; Listing generated by Microsoft (R) Optimizing Compiler Version 19.16.27027.1 

include listing.inc

INCLUDELIB MSVCRTD
INCLUDELIB OLDNAMES

msvcjmc	SEGMENT
__7B7A869E_ctype@h DB 01H
__457DD326_basetsd@h DB 01H
__4384A2D9_corecrt_memcpy_s@h DB 01H
__2088847F_corecrt_memory@h DB 01H
__4E51A221_corecrt_wstring@h DB 01H
__2140C079_string@h DB 01H
__E9FFF232_guiddef@h DB 01H
__1887E595_winnt@h DB 01H
__9FC7C64B_processthreadsapi@h DB 01H
__FA470AEC_memoryapi@h DB 01H
__F37DAFF1_winerror@h DB 01H
__7A450CCC_winbase@h DB 01H
__12AD47BB_winuser@h DB 01H
__B4B40122_winioctl@h DB 01H
__A73354DD_stdlib@h DB 01H
__25F3FB34_propidl@h DB 01H
__A40E48B8_oleauto@h DB 01H
__86261D59_stralign@h DB 01H
__2CC6E67D_corecrt_stdio_config@h DB 01H
__41381B41_corecrt_wconio@h DB 01H
__F0CC4AC4_corecrt_wio@h DB 01H
__05476D76_corecrt_wstdio@h DB 01H
__C0802A2B_corecrt_wtime@h DB 01H
__A40A425D_stat@h DB 01H
__5A74375D_wchar@h DB 01H
__6BC0FD35_vcruntime_new@h DB 01H
__77F53984_cstddef DB 01H
__188180DA_corecrt_math@h DB 01H
__D23EE329_cstdlib DB 01H
__5ECFF36E_type_traits DB 01H
__331E732B_malloc@h DB 01H
__9BB4E194_vcruntime_exception@h DB 01H
__7949CB39_exception DB 01H
__802FEEC0_pmc_exception@h DB 01H
__BB6D3116_pmc_uint_internal@h DB 01H
__1AB12E38_pmc_resourceholder@h DB 01H
__8CA3E54E_pmc_inline_func@h DB 01H
__B37E44B8_pmc_to@cpp DB 01H
msvcjmc	ENDS
PUBLIC	??0exception@std@@QEAA@XZ			; std::exception::exception
PUBLIC	??1exception@std@@UEAA@XZ			; std::exception::~exception
PUBLIC	?what@exception@std@@UEBAPEBDXZ			; std::exception::what
PUBLIC	??_Gexception@std@@UEAAPEAXI@Z			; std::exception::`scalar deleting destructor'
PUBLIC	??0Exception@Internal@Core@Math@Palmtree@@IEAA@HPEB_W@Z ; Palmtree::Math::Core::Internal::Exception::Exception
PUBLIC	??0Exception@Internal@Core@Math@Palmtree@@IEAA@HPEB_W0@Z ; Palmtree::Math::Core::Internal::Exception::Exception
PUBLIC	??0Exception@Internal@Core@Math@Palmtree@@QEAA@AEBV01234@@Z ; Palmtree::Math::Core::Internal::Exception::Exception
PUBLIC	??1Exception@Internal@Core@Math@Palmtree@@UEAA@XZ ; Palmtree::Math::Core::Internal::Exception::~Exception
PUBLIC	??_GException@Internal@Core@Math@Palmtree@@UEAAPEAXI@Z ; Palmtree::Math::Core::Internal::Exception::`scalar deleting destructor'
PUBLIC	??0OverflowException@Internal@Core@Math@Palmtree@@QEAA@PEB_W@Z ; Palmtree::Math::Core::Internal::OverflowException::OverflowException
PUBLIC	??0OverflowException@Internal@Core@Math@Palmtree@@QEAA@AEBV01234@@Z ; Palmtree::Math::Core::Internal::OverflowException::OverflowException
PUBLIC	??1OverflowException@Internal@Core@Math@Palmtree@@UEAA@XZ ; Palmtree::Math::Core::Internal::OverflowException::~OverflowException
PUBLIC	??_GOverflowException@Internal@Core@Math@Palmtree@@UEAAPEAXI@Z ; Palmtree::Math::Core::Internal::OverflowException::`scalar deleting destructor'
PUBLIC	??0InternalErrorException@Internal@Core@Math@Palmtree@@QEAA@PEB_W0@Z ; Palmtree::Math::Core::Internal::InternalErrorException::InternalErrorException
PUBLIC	??0InternalErrorException@Internal@Core@Math@Palmtree@@QEAA@AEBV01234@@Z ; Palmtree::Math::Core::Internal::InternalErrorException::InternalErrorException
PUBLIC	??1InternalErrorException@Internal@Core@Math@Palmtree@@UEAA@XZ ; Palmtree::Math::Core::Internal::InternalErrorException::~InternalErrorException
PUBLIC	??_GInternalErrorException@Internal@Core@Math@Palmtree@@UEAAPEAXI@Z ; Palmtree::Math::Core::Internal::InternalErrorException::`scalar deleting destructor'
PUBLIC	?Initialize_To@Internal@Core@Math@Palmtree@@YAHPEAU_tag_PROCESSOR_FEATURES@1234@@Z ; Palmtree::Math::Core::Internal::Initialize_To
PUBLIC	?PMC_To_X_I@Internal@Core@Math@Palmtree@@YAIPEAU__tag_PMC_HANDLE_UINT@1234@@Z ; Palmtree::Math::Core::Internal::PMC_To_X_I
PUBLIC	?PMC_To_X_L@Internal@Core@Math@Palmtree@@YA_KPEAU__tag_PMC_HANDLE_UINT@1234@@Z ; Palmtree::Math::Core::Internal::PMC_To_X_L
PUBLIC	__JustMyCode_Default
PUBLIC	??_7exception@std@@6B@				; std::exception::`vftable'
PUBLIC	??_C@_0BC@EOODALEL@Unknown?5exception@		; `string'
PUBLIC	??_7Exception@Internal@Core@Math@Palmtree@@6B@	; Palmtree::Math::Core::Internal::Exception::`vftable'
PUBLIC	??_7OverflowException@Internal@Core@Math@Palmtree@@6B@ ; Palmtree::Math::Core::Internal::OverflowException::`vftable'
PUBLIC	??_7InternalErrorException@Internal@Core@Math@Palmtree@@6B@ ; Palmtree::Math::Core::Internal::InternalErrorException::`vftable'
PUBLIC	_TI2?AVInternalErrorException@Internal@Core@Math@Palmtree@@
PUBLIC	_CTA2?AVInternalErrorException@Internal@Core@Math@Palmtree@@
PUBLIC	??_R0?AVInternalErrorException@Internal@Core@Math@Palmtree@@@8 ; Palmtree::Math::Core::Internal::InternalErrorException `RTTI Type Descriptor'
PUBLIC	_CT??_R0?AVInternalErrorException@Internal@Core@Math@Palmtree@@@8??0InternalErrorException@Internal@Core@Math@Palmtree@@QEAA@AEBV01234@@Z48
PUBLIC	??_R0?AVException@Internal@Core@Math@Palmtree@@@8 ; Palmtree::Math::Core::Internal::Exception `RTTI Type Descriptor'
PUBLIC	_CT??_R0?AVException@Internal@Core@Math@Palmtree@@@8??0Exception@Internal@Core@Math@Palmtree@@QEAA@AEBV01234@@Z48
PUBLIC	??_C@_1CG@CNOPPENL@?$PP?$II?$AA?$BP?$AAW?$AAf?$AAD?$AAj?$AAD?$PP?$LD?$PP?$PM?$PP?I?$AAk?$AA0?$AAT?$AAW?$AA?$HO@ ; `string'
PUBLIC	??_C@_1DA@LFMDH@?$AAp?$AAm?$AAc?$AA_?$AAt?$AAo?$AA?4?$AAc?$AAp?$AAp?$AA?$DL?$AAP?$AAM?$AAC?$AA_@ ; `string'
PUBLIC	_TI2?AVOverflowException@Internal@Core@Math@Palmtree@@
PUBLIC	_CTA2?AVOverflowException@Internal@Core@Math@Palmtree@@
PUBLIC	??_R0?AVOverflowException@Internal@Core@Math@Palmtree@@@8 ; Palmtree::Math::Core::Internal::OverflowException `RTTI Type Descriptor'
PUBLIC	_CT??_R0?AVOverflowException@Internal@Core@Math@Palmtree@@@8??0OverflowException@Internal@Core@Math@Palmtree@@QEAA@AEBV01234@@Z48
PUBLIC	??_C@_1CK@FCDNPBLF@?$AA3?$AA2?$AAb?$AAi?$AAt?$AAt?$AAp?$AAx?$AAn?$PP?$IL?$AA?7?$PP?$NL?$AAk?$AA1?$AAW@ ; `string'
PUBLIC	??_C@_1DA@EIOLFCFD@?$AAp?$AAm?$AAc?$AA_?$AAt?$AAo?$AA?4?$AAc?$AAp?$AAp?$AA?$DL?$AAP?$AAM?$AAC?$AA_@ ; `string'
PUBLIC	??_C@_1CK@EPAIANDA@?$AA6?$AA4?$AAb?$AAi?$AAt?$AAt?$AAp?$AAx?$AAn?$PP?$IL?$AA?7?$PP?$NL?$AAk?$AA1?$AAW@ ; `string'
PUBLIC	??_C@_1DA@FKFOPNLN@?$AAp?$AAm?$AAc?$AA_?$AAt?$AAo?$AA?4?$AAc?$AAp?$AAp?$AA?$DL?$AAP?$AAM?$AAC?$AA_@ ; `string'
PUBLIC	??_R4exception@std@@6B@				; std::exception::`RTTI Complete Object Locator'
PUBLIC	??_R0?AVexception@std@@@8			; std::exception `RTTI Type Descriptor'
PUBLIC	??_R3exception@std@@8				; std::exception::`RTTI Class Hierarchy Descriptor'
PUBLIC	??_R2exception@std@@8				; std::exception::`RTTI Base Class Array'
PUBLIC	??_R1A@?0A@EA@exception@std@@8			; std::exception::`RTTI Base Class Descriptor at (0,-1,0,64)'
PUBLIC	??_R4Exception@Internal@Core@Math@Palmtree@@6B@	; Palmtree::Math::Core::Internal::Exception::`RTTI Complete Object Locator'
PUBLIC	??_R3Exception@Internal@Core@Math@Palmtree@@8	; Palmtree::Math::Core::Internal::Exception::`RTTI Class Hierarchy Descriptor'
PUBLIC	??_R2Exception@Internal@Core@Math@Palmtree@@8	; Palmtree::Math::Core::Internal::Exception::`RTTI Base Class Array'
PUBLIC	??_R1A@?0A@EA@Exception@Internal@Core@Math@Palmtree@@8 ; Palmtree::Math::Core::Internal::Exception::`RTTI Base Class Descriptor at (0,-1,0,64)'
PUBLIC	??_R1A@?0A@EN@exception@std@@8			; std::exception::`RTTI Base Class Descriptor at (0,-1,0,77)'
PUBLIC	??_R4OverflowException@Internal@Core@Math@Palmtree@@6B@ ; Palmtree::Math::Core::Internal::OverflowException::`RTTI Complete Object Locator'
PUBLIC	??_R3OverflowException@Internal@Core@Math@Palmtree@@8 ; Palmtree::Math::Core::Internal::OverflowException::`RTTI Class Hierarchy Descriptor'
PUBLIC	??_R2OverflowException@Internal@Core@Math@Palmtree@@8 ; Palmtree::Math::Core::Internal::OverflowException::`RTTI Base Class Array'
PUBLIC	??_R1A@?0A@EA@OverflowException@Internal@Core@Math@Palmtree@@8 ; Palmtree::Math::Core::Internal::OverflowException::`RTTI Base Class Descriptor at (0,-1,0,64)'
PUBLIC	??_R4InternalErrorException@Internal@Core@Math@Palmtree@@6B@ ; Palmtree::Math::Core::Internal::InternalErrorException::`RTTI Complete Object Locator'
PUBLIC	??_R3InternalErrorException@Internal@Core@Math@Palmtree@@8 ; Palmtree::Math::Core::Internal::InternalErrorException::`RTTI Class Hierarchy Descriptor'
PUBLIC	??_R2InternalErrorException@Internal@Core@Math@Palmtree@@8 ; Palmtree::Math::Core::Internal::InternalErrorException::`RTTI Base Class Array'
PUBLIC	??_R1A@?0A@EA@InternalErrorException@Internal@Core@Math@Palmtree@@8 ; Palmtree::Math::Core::Internal::InternalErrorException::`RTTI Base Class Descriptor at (0,-1,0,64)'
EXTRN	??3@YAXPEAX_K@Z:PROC				; operator delete
EXTRN	__std_exception_destroy:PROC
EXTRN	??_Eexception@std@@UEAAPEAXI@Z:PROC		; std::exception::`vector deleting destructor'
EXTRN	??_EException@Internal@Core@Math@Palmtree@@UEAAPEAXI@Z:PROC ; Palmtree::Math::Core::Internal::Exception::`vector deleting destructor'
EXTRN	??_EOverflowException@Internal@Core@Math@Palmtree@@UEAAPEAXI@Z:PROC ; Palmtree::Math::Core::Internal::OverflowException::`vector deleting destructor'
EXTRN	??_EInternalErrorException@Internal@Core@Math@Palmtree@@UEAAPEAXI@Z:PROC ; Palmtree::Math::Core::Internal::InternalErrorException::`vector deleting destructor'
EXTRN	?CheckNumber@Internal@Core@Math@Palmtree@@YAXPEAU__tag_NUMBER_HEADER@1234@@Z:PROC ; Palmtree::Math::Core::Internal::CheckNumber
EXTRN	_CxxThrowException:PROC
EXTRN	_RTC_InitBase:PROC
EXTRN	_RTC_Shutdown:PROC
EXTRN	__CheckForDebuggerJustMyCode:PROC
EXTRN	__CxxFrameHandler3:PROC
EXTRN	??_7type_info@@6B@:BYTE				; type_info::`vftable'
;	COMDAT pdata
pdata	SEGMENT
$pdata$??0exception@std@@QEAA@XZ DD imagerel $LN3
	DD	imagerel $LN3+123
	DD	imagerel $unwind$??0exception@std@@QEAA@XZ
pdata	ENDS
;	COMDAT pdata
pdata	SEGMENT
$pdata$??1exception@std@@UEAA@XZ DD imagerel $LN3
	DD	imagerel $LN3+113
	DD	imagerel $unwind$??1exception@std@@UEAA@XZ
pdata	ENDS
;	COMDAT pdata
pdata	SEGMENT
$pdata$?what@exception@std@@UEBAPEBDXZ DD imagerel $LN5
	DD	imagerel $LN5+119
	DD	imagerel $unwind$?what@exception@std@@UEBAPEBDXZ
pdata	ENDS
;	COMDAT pdata
pdata	SEGMENT
$pdata$??_Gexception@std@@UEAAPEAXI@Z DD imagerel $LN4
	DD	imagerel $LN4+105
	DD	imagerel $unwind$??_Gexception@std@@UEAAPEAXI@Z
pdata	ENDS
;	COMDAT pdata
pdata	SEGMENT
$pdata$??0Exception@Internal@Core@Math@Palmtree@@IEAA@HPEB_W@Z DD imagerel $LN4
	DD	imagerel $LN4+171
	DD	imagerel $unwind$??0Exception@Internal@Core@Math@Palmtree@@IEAA@HPEB_W@Z
pdata	ENDS
;	COMDAT pdata
pdata	SEGMENT
$pdata$?dtor$0@?0???0Exception@Internal@Core@Math@Palmtree@@IEAA@HPEB_W@Z@4HA DD imagerel ?dtor$0@?0???0Exception@Internal@Core@Math@Palmtree@@IEAA@HPEB_W@Z@4HA
	DD	imagerel ?dtor$0@?0???0Exception@Internal@Core@Math@Palmtree@@IEAA@HPEB_W@Z@4HA+39
	DD	imagerel $unwind$?dtor$0@?0???0Exception@Internal@Core@Math@Palmtree@@IEAA@HPEB_W@Z@4HA
pdata	ENDS
;	COMDAT pdata
pdata	SEGMENT
$pdata$??0Exception@Internal@Core@Math@Palmtree@@IEAA@HPEB_W0@Z DD imagerel $LN4
	DD	imagerel $LN4+179
	DD	imagerel $unwind$??0Exception@Internal@Core@Math@Palmtree@@IEAA@HPEB_W0@Z
pdata	ENDS
;	COMDAT pdata
pdata	SEGMENT
$pdata$?dtor$0@?0???0Exception@Internal@Core@Math@Palmtree@@IEAA@HPEB_W0@Z@4HA DD imagerel ?dtor$0@?0???0Exception@Internal@Core@Math@Palmtree@@IEAA@HPEB_W0@Z@4HA
	DD	imagerel ?dtor$0@?0???0Exception@Internal@Core@Math@Palmtree@@IEAA@HPEB_W0@Z@4HA+39
	DD	imagerel $unwind$?dtor$0@?0???0Exception@Internal@Core@Math@Palmtree@@IEAA@HPEB_W0@Z@4HA
pdata	ENDS
;	COMDAT pdata
pdata	SEGMENT
$pdata$??0Exception@Internal@Core@Math@Palmtree@@QEAA@AEBV01234@@Z DD imagerel $LN4
	DD	imagerel $LN4+182
	DD	imagerel $unwind$??0Exception@Internal@Core@Math@Palmtree@@QEAA@AEBV01234@@Z
pdata	ENDS
;	COMDAT pdata
pdata	SEGMENT
$pdata$?dtor$0@?0???0Exception@Internal@Core@Math@Palmtree@@QEAA@AEBV01234@@Z@4HA DD imagerel ?dtor$0@?0???0Exception@Internal@Core@Math@Palmtree@@QEAA@AEBV01234@@Z@4HA
	DD	imagerel ?dtor$0@?0???0Exception@Internal@Core@Math@Palmtree@@QEAA@AEBV01234@@Z@4HA+39
	DD	imagerel $unwind$?dtor$0@?0???0Exception@Internal@Core@Math@Palmtree@@QEAA@AEBV01234@@Z@4HA
pdata	ENDS
;	COMDAT pdata
pdata	SEGMENT
$pdata$??1Exception@Internal@Core@Math@Palmtree@@UEAA@XZ DD imagerel $LN4
	DD	imagerel $LN4+106
	DD	imagerel $unwind$??1Exception@Internal@Core@Math@Palmtree@@UEAA@XZ
pdata	ENDS
;	COMDAT pdata
pdata	SEGMENT
$pdata$?dtor$0@?0???1Exception@Internal@Core@Math@Palmtree@@UEAA@XZ@4HA DD imagerel ?dtor$0@?0???1Exception@Internal@Core@Math@Palmtree@@UEAA@XZ@4HA
	DD	imagerel ?dtor$0@?0???1Exception@Internal@Core@Math@Palmtree@@UEAA@XZ@4HA+39
	DD	imagerel $unwind$?dtor$0@?0???1Exception@Internal@Core@Math@Palmtree@@UEAA@XZ@4HA
pdata	ENDS
;	COMDAT pdata
pdata	SEGMENT
$pdata$??_GException@Internal@Core@Math@Palmtree@@UEAAPEAXI@Z DD imagerel $LN4
	DD	imagerel $LN4+105
	DD	imagerel $unwind$??_GException@Internal@Core@Math@Palmtree@@UEAAPEAXI@Z
pdata	ENDS
;	COMDAT pdata
pdata	SEGMENT
$pdata$??0OverflowException@Internal@Core@Math@Palmtree@@QEAA@PEB_W@Z DD imagerel $LN4
	DD	imagerel $LN4+130
	DD	imagerel $unwind$??0OverflowException@Internal@Core@Math@Palmtree@@QEAA@PEB_W@Z
pdata	ENDS
;	COMDAT pdata
pdata	SEGMENT
$pdata$?dtor$0@?0???0OverflowException@Internal@Core@Math@Palmtree@@QEAA@PEB_W@Z@4HA DD imagerel ?dtor$0@?0???0OverflowException@Internal@Core@Math@Palmtree@@QEAA@PEB_W@Z@4HA
	DD	imagerel ?dtor$0@?0???0OverflowException@Internal@Core@Math@Palmtree@@QEAA@PEB_W@Z@4HA+39
	DD	imagerel $unwind$?dtor$0@?0???0OverflowException@Internal@Core@Math@Palmtree@@QEAA@PEB_W@Z@4HA
pdata	ENDS
;	COMDAT pdata
pdata	SEGMENT
$pdata$??0OverflowException@Internal@Core@Math@Palmtree@@QEAA@AEBV01234@@Z DD imagerel $LN4
	DD	imagerel $LN4+125
	DD	imagerel $unwind$??0OverflowException@Internal@Core@Math@Palmtree@@QEAA@AEBV01234@@Z
pdata	ENDS
;	COMDAT pdata
pdata	SEGMENT
$pdata$?dtor$0@?0???0OverflowException@Internal@Core@Math@Palmtree@@QEAA@AEBV01234@@Z@4HA DD imagerel ?dtor$0@?0???0OverflowException@Internal@Core@Math@Palmtree@@QEAA@AEBV01234@@Z@4HA
	DD	imagerel ?dtor$0@?0???0OverflowException@Internal@Core@Math@Palmtree@@QEAA@AEBV01234@@Z@4HA+39
	DD	imagerel $unwind$?dtor$0@?0???0OverflowException@Internal@Core@Math@Palmtree@@QEAA@AEBV01234@@Z@4HA
pdata	ENDS
;	COMDAT pdata
pdata	SEGMENT
$pdata$??1OverflowException@Internal@Core@Math@Palmtree@@UEAA@XZ DD imagerel $LN4
	DD	imagerel $LN4+106
	DD	imagerel $unwind$??1OverflowException@Internal@Core@Math@Palmtree@@UEAA@XZ
pdata	ENDS
;	COMDAT pdata
pdata	SEGMENT
$pdata$?dtor$0@?0???1OverflowException@Internal@Core@Math@Palmtree@@UEAA@XZ@4HA DD imagerel ?dtor$0@?0???1OverflowException@Internal@Core@Math@Palmtree@@UEAA@XZ@4HA
	DD	imagerel ?dtor$0@?0???1OverflowException@Internal@Core@Math@Palmtree@@UEAA@XZ@4HA+39
	DD	imagerel $unwind$?dtor$0@?0???1OverflowException@Internal@Core@Math@Palmtree@@UEAA@XZ@4HA
pdata	ENDS
;	COMDAT pdata
pdata	SEGMENT
$pdata$??_GOverflowException@Internal@Core@Math@Palmtree@@UEAAPEAXI@Z DD imagerel $LN4
	DD	imagerel $LN4+105
	DD	imagerel $unwind$??_GOverflowException@Internal@Core@Math@Palmtree@@UEAAPEAXI@Z
pdata	ENDS
;	COMDAT pdata
pdata	SEGMENT
$pdata$??0InternalErrorException@Internal@Core@Math@Palmtree@@QEAA@PEB_W0@Z DD imagerel $LN4
	DD	imagerel $LN4+142
	DD	imagerel $unwind$??0InternalErrorException@Internal@Core@Math@Palmtree@@QEAA@PEB_W0@Z
pdata	ENDS
;	COMDAT pdata
pdata	SEGMENT
$pdata$?dtor$0@?0???0InternalErrorException@Internal@Core@Math@Palmtree@@QEAA@PEB_W0@Z@4HA DD imagerel ?dtor$0@?0???0InternalErrorException@Internal@Core@Math@Palmtree@@QEAA@PEB_W0@Z@4HA
	DD	imagerel ?dtor$0@?0???0InternalErrorException@Internal@Core@Math@Palmtree@@QEAA@PEB_W0@Z@4HA+39
	DD	imagerel $unwind$?dtor$0@?0???0InternalErrorException@Internal@Core@Math@Palmtree@@QEAA@PEB_W0@Z@4HA
pdata	ENDS
;	COMDAT pdata
pdata	SEGMENT
$pdata$??0InternalErrorException@Internal@Core@Math@Palmtree@@QEAA@AEBV01234@@Z DD imagerel $LN4
	DD	imagerel $LN4+125
	DD	imagerel $unwind$??0InternalErrorException@Internal@Core@Math@Palmtree@@QEAA@AEBV01234@@Z
pdata	ENDS
;	COMDAT pdata
pdata	SEGMENT
$pdata$?dtor$0@?0???0InternalErrorException@Internal@Core@Math@Palmtree@@QEAA@AEBV01234@@Z@4HA DD imagerel ?dtor$0@?0???0InternalErrorException@Internal@Core@Math@Palmtree@@QEAA@AEBV01234@@Z@4HA
	DD	imagerel ?dtor$0@?0???0InternalErrorException@Internal@Core@Math@Palmtree@@QEAA@AEBV01234@@Z@4HA+39
	DD	imagerel $unwind$?dtor$0@?0???0InternalErrorException@Internal@Core@Math@Palmtree@@QEAA@AEBV01234@@Z@4HA
pdata	ENDS
;	COMDAT pdata
pdata	SEGMENT
$pdata$??1InternalErrorException@Internal@Core@Math@Palmtree@@UEAA@XZ DD imagerel $LN4
	DD	imagerel $LN4+106
	DD	imagerel $unwind$??1InternalErrorException@Internal@Core@Math@Palmtree@@UEAA@XZ
pdata	ENDS
;	COMDAT pdata
pdata	SEGMENT
$pdata$?dtor$0@?0???1InternalErrorException@Internal@Core@Math@Palmtree@@UEAA@XZ@4HA DD imagerel ?dtor$0@?0???1InternalErrorException@Internal@Core@Math@Palmtree@@UEAA@XZ@4HA
	DD	imagerel ?dtor$0@?0???1InternalErrorException@Internal@Core@Math@Palmtree@@UEAA@XZ@4HA+39
	DD	imagerel $unwind$?dtor$0@?0???1InternalErrorException@Internal@Core@Math@Palmtree@@UEAA@XZ@4HA
pdata	ENDS
;	COMDAT pdata
pdata	SEGMENT
$pdata$??_GInternalErrorException@Internal@Core@Math@Palmtree@@UEAAPEAXI@Z DD imagerel $LN4
	DD	imagerel $LN4+105
	DD	imagerel $unwind$??_GInternalErrorException@Internal@Core@Math@Palmtree@@UEAAPEAXI@Z
pdata	ENDS
;	COMDAT pdata
pdata	SEGMENT
$pdata$?Initialize_To@Internal@Core@Math@Palmtree@@YAHPEAU_tag_PROCESSOR_FEATURES@1234@@Z DD imagerel $LN3
	DD	imagerel $LN3+66
	DD	imagerel $unwind$?Initialize_To@Internal@Core@Math@Palmtree@@YAHPEAU_tag_PROCESSOR_FEATURES@1234@@Z
pdata	ENDS
;	COMDAT pdata
pdata	SEGMENT
$pdata$?PMC_To_X_I@Internal@Core@Math@Palmtree@@YAIPEAU__tag_PMC_HANDLE_UINT@1234@@Z DD imagerel $LN7
	DD	imagerel $LN7+242
	DD	imagerel $unwind$?PMC_To_X_I@Internal@Core@Math@Palmtree@@YAIPEAU__tag_PMC_HANDLE_UINT@1234@@Z
pdata	ENDS
;	COMDAT pdata
pdata	SEGMENT
$pdata$?PMC_To_X_L@Internal@Core@Math@Palmtree@@YA_KPEAU__tag_PMC_HANDLE_UINT@1234@@Z DD imagerel $LN11
	DD	imagerel $LN11+369
	DD	imagerel $unwind$?PMC_To_X_L@Internal@Core@Math@Palmtree@@YA_KPEAU__tag_PMC_HANDLE_UINT@1234@@Z
pdata	ENDS
;	COMDAT pdata
pdata	SEGMENT
$pdata$_FROMWORDTODWORD DD imagerel _FROMWORDTODWORD
	DD	imagerel _FROMWORDTODWORD+85
	DD	imagerel $unwind$_FROMWORDTODWORD
pdata	ENDS
;	COMDAT rtc$TMZ
rtc$TMZ	SEGMENT
_RTC_Shutdown.rtc$TMZ DQ FLAT:_RTC_Shutdown
rtc$TMZ	ENDS
;	COMDAT rtc$IMZ
rtc$IMZ	SEGMENT
_RTC_InitBase.rtc$IMZ DQ FLAT:_RTC_InitBase
rtc$IMZ	ENDS
;	COMDAT ??_R1A@?0A@EA@InternalErrorException@Internal@Core@Math@Palmtree@@8
rdata$r	SEGMENT
??_R1A@?0A@EA@InternalErrorException@Internal@Core@Math@Palmtree@@8 DD imagerel ??_R0?AVInternalErrorException@Internal@Core@Math@Palmtree@@@8 ; Palmtree::Math::Core::Internal::InternalErrorException::`RTTI Base Class Descriptor at (0,-1,0,64)'
	DD	02H
	DD	00H
	DD	0ffffffffH
	DD	00H
	DD	040H
	DD	imagerel ??_R3InternalErrorException@Internal@Core@Math@Palmtree@@8
rdata$r	ENDS
;	COMDAT ??_R2InternalErrorException@Internal@Core@Math@Palmtree@@8
rdata$r	SEGMENT
??_R2InternalErrorException@Internal@Core@Math@Palmtree@@8 DD imagerel ??_R1A@?0A@EA@InternalErrorException@Internal@Core@Math@Palmtree@@8 ; Palmtree::Math::Core::Internal::InternalErrorException::`RTTI Base Class Array'
	DD	imagerel ??_R1A@?0A@EA@Exception@Internal@Core@Math@Palmtree@@8
	DD	imagerel ??_R1A@?0A@EN@exception@std@@8
	ORG $+3
rdata$r	ENDS
;	COMDAT ??_R3InternalErrorException@Internal@Core@Math@Palmtree@@8
rdata$r	SEGMENT
??_R3InternalErrorException@Internal@Core@Math@Palmtree@@8 DD 00H ; Palmtree::Math::Core::Internal::InternalErrorException::`RTTI Class Hierarchy Descriptor'
	DD	00H
	DD	03H
	DD	imagerel ??_R2InternalErrorException@Internal@Core@Math@Palmtree@@8
rdata$r	ENDS
;	COMDAT ??_R4InternalErrorException@Internal@Core@Math@Palmtree@@6B@
rdata$r	SEGMENT
??_R4InternalErrorException@Internal@Core@Math@Palmtree@@6B@ DD 01H ; Palmtree::Math::Core::Internal::InternalErrorException::`RTTI Complete Object Locator'
	DD	00H
	DD	00H
	DD	imagerel ??_R0?AVInternalErrorException@Internal@Core@Math@Palmtree@@@8
	DD	imagerel ??_R3InternalErrorException@Internal@Core@Math@Palmtree@@8
	DD	imagerel ??_R4InternalErrorException@Internal@Core@Math@Palmtree@@6B@
rdata$r	ENDS
;	COMDAT ??_R1A@?0A@EA@OverflowException@Internal@Core@Math@Palmtree@@8
rdata$r	SEGMENT
??_R1A@?0A@EA@OverflowException@Internal@Core@Math@Palmtree@@8 DD imagerel ??_R0?AVOverflowException@Internal@Core@Math@Palmtree@@@8 ; Palmtree::Math::Core::Internal::OverflowException::`RTTI Base Class Descriptor at (0,-1,0,64)'
	DD	02H
	DD	00H
	DD	0ffffffffH
	DD	00H
	DD	040H
	DD	imagerel ??_R3OverflowException@Internal@Core@Math@Palmtree@@8
rdata$r	ENDS
;	COMDAT ??_R2OverflowException@Internal@Core@Math@Palmtree@@8
rdata$r	SEGMENT
??_R2OverflowException@Internal@Core@Math@Palmtree@@8 DD imagerel ??_R1A@?0A@EA@OverflowException@Internal@Core@Math@Palmtree@@8 ; Palmtree::Math::Core::Internal::OverflowException::`RTTI Base Class Array'
	DD	imagerel ??_R1A@?0A@EA@Exception@Internal@Core@Math@Palmtree@@8
	DD	imagerel ??_R1A@?0A@EN@exception@std@@8
	ORG $+3
rdata$r	ENDS
;	COMDAT ??_R3OverflowException@Internal@Core@Math@Palmtree@@8
rdata$r	SEGMENT
??_R3OverflowException@Internal@Core@Math@Palmtree@@8 DD 00H ; Palmtree::Math::Core::Internal::OverflowException::`RTTI Class Hierarchy Descriptor'
	DD	00H
	DD	03H
	DD	imagerel ??_R2OverflowException@Internal@Core@Math@Palmtree@@8
rdata$r	ENDS
;	COMDAT ??_R4OverflowException@Internal@Core@Math@Palmtree@@6B@
rdata$r	SEGMENT
??_R4OverflowException@Internal@Core@Math@Palmtree@@6B@ DD 01H ; Palmtree::Math::Core::Internal::OverflowException::`RTTI Complete Object Locator'
	DD	00H
	DD	00H
	DD	imagerel ??_R0?AVOverflowException@Internal@Core@Math@Palmtree@@@8
	DD	imagerel ??_R3OverflowException@Internal@Core@Math@Palmtree@@8
	DD	imagerel ??_R4OverflowException@Internal@Core@Math@Palmtree@@6B@
rdata$r	ENDS
;	COMDAT ??_R1A@?0A@EN@exception@std@@8
rdata$r	SEGMENT
??_R1A@?0A@EN@exception@std@@8 DD imagerel ??_R0?AVexception@std@@@8 ; std::exception::`RTTI Base Class Descriptor at (0,-1,0,77)'
	DD	00H
	DD	00H
	DD	0ffffffffH
	DD	00H
	DD	04dH
	DD	imagerel ??_R3exception@std@@8
rdata$r	ENDS
;	COMDAT ??_R1A@?0A@EA@Exception@Internal@Core@Math@Palmtree@@8
rdata$r	SEGMENT
??_R1A@?0A@EA@Exception@Internal@Core@Math@Palmtree@@8 DD imagerel ??_R0?AVException@Internal@Core@Math@Palmtree@@@8 ; Palmtree::Math::Core::Internal::Exception::`RTTI Base Class Descriptor at (0,-1,0,64)'
	DD	01H
	DD	00H
	DD	0ffffffffH
	DD	00H
	DD	040H
	DD	imagerel ??_R3Exception@Internal@Core@Math@Palmtree@@8
rdata$r	ENDS
;	COMDAT ??_R2Exception@Internal@Core@Math@Palmtree@@8
rdata$r	SEGMENT
??_R2Exception@Internal@Core@Math@Palmtree@@8 DD imagerel ??_R1A@?0A@EA@Exception@Internal@Core@Math@Palmtree@@8 ; Palmtree::Math::Core::Internal::Exception::`RTTI Base Class Array'
	DD	imagerel ??_R1A@?0A@EN@exception@std@@8
	ORG $+3
rdata$r	ENDS
;	COMDAT ??_R3Exception@Internal@Core@Math@Palmtree@@8
rdata$r	SEGMENT
??_R3Exception@Internal@Core@Math@Palmtree@@8 DD 00H	; Palmtree::Math::Core::Internal::Exception::`RTTI Class Hierarchy Descriptor'
	DD	00H
	DD	02H
	DD	imagerel ??_R2Exception@Internal@Core@Math@Palmtree@@8
rdata$r	ENDS
;	COMDAT ??_R4Exception@Internal@Core@Math@Palmtree@@6B@
rdata$r	SEGMENT
??_R4Exception@Internal@Core@Math@Palmtree@@6B@ DD 01H	; Palmtree::Math::Core::Internal::Exception::`RTTI Complete Object Locator'
	DD	00H
	DD	00H
	DD	imagerel ??_R0?AVException@Internal@Core@Math@Palmtree@@@8
	DD	imagerel ??_R3Exception@Internal@Core@Math@Palmtree@@8
	DD	imagerel ??_R4Exception@Internal@Core@Math@Palmtree@@6B@
rdata$r	ENDS
;	COMDAT ??_R1A@?0A@EA@exception@std@@8
rdata$r	SEGMENT
??_R1A@?0A@EA@exception@std@@8 DD imagerel ??_R0?AVexception@std@@@8 ; std::exception::`RTTI Base Class Descriptor at (0,-1,0,64)'
	DD	00H
	DD	00H
	DD	0ffffffffH
	DD	00H
	DD	040H
	DD	imagerel ??_R3exception@std@@8
rdata$r	ENDS
;	COMDAT ??_R2exception@std@@8
rdata$r	SEGMENT
??_R2exception@std@@8 DD imagerel ??_R1A@?0A@EA@exception@std@@8 ; std::exception::`RTTI Base Class Array'
	ORG $+3
rdata$r	ENDS
;	COMDAT ??_R3exception@std@@8
rdata$r	SEGMENT
??_R3exception@std@@8 DD 00H				; std::exception::`RTTI Class Hierarchy Descriptor'
	DD	00H
	DD	01H
	DD	imagerel ??_R2exception@std@@8
rdata$r	ENDS
;	COMDAT ??_R0?AVexception@std@@@8
data$r	SEGMENT
??_R0?AVexception@std@@@8 DQ FLAT:??_7type_info@@6B@	; std::exception `RTTI Type Descriptor'
	DQ	0000000000000000H
	DB	'.?AVexception@std@@', 00H
data$r	ENDS
;	COMDAT ??_R4exception@std@@6B@
rdata$r	SEGMENT
??_R4exception@std@@6B@ DD 01H				; std::exception::`RTTI Complete Object Locator'
	DD	00H
	DD	00H
	DD	imagerel ??_R0?AVexception@std@@@8
	DD	imagerel ??_R3exception@std@@8
	DD	imagerel ??_R4exception@std@@6B@
rdata$r	ENDS
;	COMDAT ??_C@_1DA@FKFOPNLN@?$AAp?$AAm?$AAc?$AA_?$AAt?$AAo?$AA?4?$AAc?$AAp?$AAp?$AA?$DL?$AAP?$AAM?$AAC?$AA_@
CONST	SEGMENT
??_C@_1DA@FKFOPNLN@?$AAp?$AAm?$AAc?$AA_?$AAt?$AAo?$AA?4?$AAc?$AAp?$AAp?$AA?$DL?$AAP?$AAM?$AAC?$AA_@ DB 'p'
	DB	00H, 'm', 00H, 'c', 00H, '_', 00H, 't', 00H, 'o', 00H, '.', 00H
	DB	'c', 00H, 'p', 00H, 'p', 00H, ';', 00H, 'P', 00H, 'M', 00H, 'C'
	DB	00H, '_', 00H, 'T', 00H, 'o', 00H, '_', 00H, 'X', 00H, '_', 00H
	DB	'L', 00H, ';', 00H, '2', 00H, 00H, 00H	; `string'
CONST	ENDS
;	COMDAT ??_C@_1CK@EPAIANDA@?$AA6?$AA4?$AAb?$AAi?$AAt?$AAt?$AAp?$AAx?$AAn?$PP?$IL?$AA?7?$PP?$NL?$AAk?$AA1?$AAW@
CONST	SEGMENT
??_C@_1CK@EPAIANDA@?$AA6?$AA4?$AAb?$AAi?$AAt?$AAt?$AAp?$AAx?$AAn?$PP?$IL?$AA?7?$PP?$NL?$AAk?$AA1?$AAW@ DB '6'
	DB	00H, '4', 00H, 'b', 00H, 'i', 00H, 't', 00H, 'tepex0n0', 08bH, 'W'
	DB	09H, 'Y', 0dbH, 'ck01YWeW0~0W0_0', 02H, '0', 00H, 00H ; `string'
CONST	ENDS
;	COMDAT ??_C@_1DA@EIOLFCFD@?$AAp?$AAm?$AAc?$AA_?$AAt?$AAo?$AA?4?$AAc?$AAp?$AAp?$AA?$DL?$AAP?$AAM?$AAC?$AA_@
CONST	SEGMENT
??_C@_1DA@EIOLFCFD@?$AAp?$AAm?$AAc?$AA_?$AAt?$AAo?$AA?4?$AAc?$AAp?$AAp?$AA?$DL?$AAP?$AAM?$AAC?$AA_@ DB 'p'
	DB	00H, 'm', 00H, 'c', 00H, '_', 00H, 't', 00H, 'o', 00H, '.', 00H
	DB	'c', 00H, 'p', 00H, 'p', 00H, ';', 00H, 'P', 00H, 'M', 00H, 'C'
	DB	00H, '_', 00H, 'T', 00H, 'o', 00H, '_', 00H, 'X', 00H, '_', 00H
	DB	'L', 00H, ';', 00H, '1', 00H, 00H, 00H	; `string'
CONST	ENDS
;	COMDAT ??_C@_1CK@FCDNPBLF@?$AA3?$AA2?$AAb?$AAi?$AAt?$AAt?$AAp?$AAx?$AAn?$PP?$IL?$AA?7?$PP?$NL?$AAk?$AA1?$AAW@
CONST	SEGMENT
??_C@_1CK@FCDNPBLF@?$AA3?$AA2?$AAb?$AAi?$AAt?$AAt?$AAp?$AAx?$AAn?$PP?$IL?$AA?7?$PP?$NL?$AAk?$AA1?$AAW@ DB '3'
	DB	00H, '2', 00H, 'b', 00H, 'i', 00H, 't', 00H, 'tepex0n0', 08bH, 'W'
	DB	09H, 'Y', 0dbH, 'ck01YWeW0~0W0_0', 02H, '0', 00H, 00H ; `string'
CONST	ENDS
;	COMDAT _CT??_R0?AVOverflowException@Internal@Core@Math@Palmtree@@@8??0OverflowException@Internal@Core@Math@Palmtree@@QEAA@AEBV01234@@Z48
xdata$x	SEGMENT
_CT??_R0?AVOverflowException@Internal@Core@Math@Palmtree@@@8??0OverflowException@Internal@Core@Math@Palmtree@@QEAA@AEBV01234@@Z48 DD 00H
	DD	imagerel ??_R0?AVOverflowException@Internal@Core@Math@Palmtree@@@8
	DD	00H
	DD	0ffffffffH
	ORG $+4
	DD	030H
	DD	imagerel ??0OverflowException@Internal@Core@Math@Palmtree@@QEAA@AEBV01234@@Z
xdata$x	ENDS
;	COMDAT ??_R0?AVOverflowException@Internal@Core@Math@Palmtree@@@8
data$r	SEGMENT
??_R0?AVOverflowException@Internal@Core@Math@Palmtree@@@8 DQ FLAT:??_7type_info@@6B@ ; Palmtree::Math::Core::Internal::OverflowException `RTTI Type Descriptor'
	DQ	0000000000000000H
	DB	'.?AVOverflowException@Internal@Core@Math@Palmtree@@', 00H
data$r	ENDS
;	COMDAT _CTA2?AVOverflowException@Internal@Core@Math@Palmtree@@
xdata$x	SEGMENT
_CTA2?AVOverflowException@Internal@Core@Math@Palmtree@@ DD 02H
	DD	imagerel _CT??_R0?AVOverflowException@Internal@Core@Math@Palmtree@@@8??0OverflowException@Internal@Core@Math@Palmtree@@QEAA@AEBV01234@@Z48
	DD	imagerel _CT??_R0?AVException@Internal@Core@Math@Palmtree@@@8??0Exception@Internal@Core@Math@Palmtree@@QEAA@AEBV01234@@Z48
xdata$x	ENDS
;	COMDAT _TI2?AVOverflowException@Internal@Core@Math@Palmtree@@
xdata$x	SEGMENT
_TI2?AVOverflowException@Internal@Core@Math@Palmtree@@ DD 00H
	DD	imagerel ??1OverflowException@Internal@Core@Math@Palmtree@@UEAA@XZ
	DD	00H
	DD	imagerel _CTA2?AVOverflowException@Internal@Core@Math@Palmtree@@
xdata$x	ENDS
;	COMDAT ??_C@_1DA@LFMDH@?$AAp?$AAm?$AAc?$AA_?$AAt?$AAo?$AA?4?$AAc?$AAp?$AAp?$AA?$DL?$AAP?$AAM?$AAC?$AA_@
CONST	SEGMENT
??_C@_1DA@LFMDH@?$AAp?$AAm?$AAc?$AA_?$AAt?$AAo?$AA?4?$AAc?$AAp?$AAp?$AA?$DL?$AAP?$AAM?$AAC?$AA_@ DB 'p'
	DB	00H, 'm', 00H, 'c', 00H, '_', 00H, 't', 00H, 'o', 00H, '.', 00H
	DB	'c', 00H, 'p', 00H, 'p', 00H, ';', 00H, 'P', 00H, 'M', 00H, 'C'
	DB	00H, '_', 00H, 'T', 00H, 'o', 00H, '_', 00H, 'X', 00H, '_', 00H
	DB	'I', 00H, ';', 00H, '1', 00H, 00H, 00H	; `string'
CONST	ENDS
;	COMDAT ??_C@_1CG@CNOPPENL@?$PP?$II?$AA?$BP?$AAW?$AAf?$AAD?$AAj?$AAD?$PP?$LD?$PP?$PM?$PP?I?$AAk?$AA0?$AAT?$AAW?$AA?$HO@
CONST	SEGMENT
??_C@_1CG@CNOPPENL@?$PP?$II?$AA?$BP?$AAW?$AAf?$AAD?$AAj?$AAD?$PP?$LD?$PP?$PM?$PP?I?$AAk?$AA0?$AAT?$AAW?$AA?$HO@ DB 088H
	DB	'N', 01fH, 'gW0f0D0j0D0', 0b3H, '0', 0fcH, '0', 0c9H, '0k00RT', 090H
	DB	'W0~0W0_0', 02H, '0', 00H, 00H		; `string'
CONST	ENDS
;	COMDAT _CT??_R0?AVException@Internal@Core@Math@Palmtree@@@8??0Exception@Internal@Core@Math@Palmtree@@QEAA@AEBV01234@@Z48
xdata$x	SEGMENT
_CT??_R0?AVException@Internal@Core@Math@Palmtree@@@8??0Exception@Internal@Core@Math@Palmtree@@QEAA@AEBV01234@@Z48 DD 00H
	DD	imagerel ??_R0?AVException@Internal@Core@Math@Palmtree@@@8
	DD	00H
	DD	0ffffffffH
	ORG $+4
	DD	030H
	DD	imagerel ??0Exception@Internal@Core@Math@Palmtree@@QEAA@AEBV01234@@Z
xdata$x	ENDS
;	COMDAT ??_R0?AVException@Internal@Core@Math@Palmtree@@@8
data$r	SEGMENT
??_R0?AVException@Internal@Core@Math@Palmtree@@@8 DQ FLAT:??_7type_info@@6B@ ; Palmtree::Math::Core::Internal::Exception `RTTI Type Descriptor'
	DQ	0000000000000000H
	DB	'.?AVException@Internal@Core@Math@Palmtree@@', 00H
data$r	ENDS
;	COMDAT _CT??_R0?AVInternalErrorException@Internal@Core@Math@Palmtree@@@8??0InternalErrorException@Internal@Core@Math@Palmtree@@QEAA@AEBV01234@@Z48
xdata$x	SEGMENT
_CT??_R0?AVInternalErrorException@Internal@Core@Math@Palmtree@@@8??0InternalErrorException@Internal@Core@Math@Palmtree@@QEAA@AEBV01234@@Z48 DD 00H
	DD	imagerel ??_R0?AVInternalErrorException@Internal@Core@Math@Palmtree@@@8
	DD	00H
	DD	0ffffffffH
	ORG $+4
	DD	030H
	DD	imagerel ??0InternalErrorException@Internal@Core@Math@Palmtree@@QEAA@AEBV01234@@Z
xdata$x	ENDS
;	COMDAT ??_R0?AVInternalErrorException@Internal@Core@Math@Palmtree@@@8
data$r	SEGMENT
??_R0?AVInternalErrorException@Internal@Core@Math@Palmtree@@@8 DQ FLAT:??_7type_info@@6B@ ; Palmtree::Math::Core::Internal::InternalErrorException `RTTI Type Descriptor'
	DQ	0000000000000000H
	DB	'.?AVInternalErrorException@Internal@Core@Math@Palmtree@@'
	DB	00H
data$r	ENDS
;	COMDAT _CTA2?AVInternalErrorException@Internal@Core@Math@Palmtree@@
xdata$x	SEGMENT
_CTA2?AVInternalErrorException@Internal@Core@Math@Palmtree@@ DD 02H
	DD	imagerel _CT??_R0?AVInternalErrorException@Internal@Core@Math@Palmtree@@@8??0InternalErrorException@Internal@Core@Math@Palmtree@@QEAA@AEBV01234@@Z48
	DD	imagerel _CT??_R0?AVException@Internal@Core@Math@Palmtree@@@8??0Exception@Internal@Core@Math@Palmtree@@QEAA@AEBV01234@@Z48
xdata$x	ENDS
;	COMDAT _TI2?AVInternalErrorException@Internal@Core@Math@Palmtree@@
xdata$x	SEGMENT
_TI2?AVInternalErrorException@Internal@Core@Math@Palmtree@@ DD 00H
	DD	imagerel ??1InternalErrorException@Internal@Core@Math@Palmtree@@UEAA@XZ
	DD	00H
	DD	imagerel _CTA2?AVInternalErrorException@Internal@Core@Math@Palmtree@@
xdata$x	ENDS
;	COMDAT ??_7InternalErrorException@Internal@Core@Math@Palmtree@@6B@
CONST	SEGMENT
??_7InternalErrorException@Internal@Core@Math@Palmtree@@6B@ DQ FLAT:??_R4InternalErrorException@Internal@Core@Math@Palmtree@@6B@ ; Palmtree::Math::Core::Internal::InternalErrorException::`vftable'
	DQ	FLAT:??_EInternalErrorException@Internal@Core@Math@Palmtree@@UEAAPEAXI@Z
	DQ	FLAT:?what@exception@std@@UEBAPEBDXZ
CONST	ENDS
;	COMDAT ??_7OverflowException@Internal@Core@Math@Palmtree@@6B@
CONST	SEGMENT
??_7OverflowException@Internal@Core@Math@Palmtree@@6B@ DQ FLAT:??_R4OverflowException@Internal@Core@Math@Palmtree@@6B@ ; Palmtree::Math::Core::Internal::OverflowException::`vftable'
	DQ	FLAT:??_EOverflowException@Internal@Core@Math@Palmtree@@UEAAPEAXI@Z
	DQ	FLAT:?what@exception@std@@UEBAPEBDXZ
CONST	ENDS
;	COMDAT ??_7Exception@Internal@Core@Math@Palmtree@@6B@
CONST	SEGMENT
??_7Exception@Internal@Core@Math@Palmtree@@6B@ DQ FLAT:??_R4Exception@Internal@Core@Math@Palmtree@@6B@ ; Palmtree::Math::Core::Internal::Exception::`vftable'
	DQ	FLAT:??_EException@Internal@Core@Math@Palmtree@@UEAAPEAXI@Z
	DQ	FLAT:?what@exception@std@@UEBAPEBDXZ
CONST	ENDS
;	COMDAT ??_C@_0BC@EOODALEL@Unknown?5exception@
CONST	SEGMENT
??_C@_0BC@EOODALEL@Unknown?5exception@ DB 'Unknown exception', 00H ; `string'
CONST	ENDS
;	COMDAT ??_7exception@std@@6B@
CONST	SEGMENT
??_7exception@std@@6B@ DQ FLAT:??_R4exception@std@@6B@	; std::exception::`vftable'
	DQ	FLAT:??_Eexception@std@@UEAAPEAXI@Z
	DQ	FLAT:?what@exception@std@@UEBAPEBDXZ
CONST	ENDS
;	COMDAT xdata
xdata	SEGMENT
$unwind$_FROMWORDTODWORD DD 025052c01H
	DD	01112316H
	DD	0700a001dH
	DD	05009H
xdata	ENDS
;	COMDAT xdata
xdata	SEGMENT
$unwind$?PMC_To_X_L@Internal@Core@Math@Palmtree@@YA_KPEAU__tag_PMC_HANDLE_UINT@1234@@Z DD 025052a01H
	DD	010e2313H
	DD	07007003fH
	DD	05006H
xdata	ENDS
;	COMDAT xdata
xdata	SEGMENT
$unwind$?PMC_To_X_I@Internal@Core@Math@Palmtree@@YAIPEAU__tag_PMC_HANDLE_UINT@1234@@Z DD 025052a01H
	DD	010e2313H
	DD	070070035H
	DD	05006H
xdata	ENDS
;	COMDAT xdata
xdata	SEGMENT
$unwind$?Initialize_To@Internal@Core@Math@Palmtree@@YAHPEAU_tag_PROCESSOR_FEATURES@1234@@Z DD 025052a01H
	DD	010e2313H
	DD	07007001dH
	DD	05006H
xdata	ENDS
;	COMDAT xdata
xdata	SEGMENT
$unwind$??_GInternalErrorException@Internal@Core@Math@Palmtree@@UEAAPEAXI@Z DD 025052e01H
	DD	01122317H
	DD	0700b001dH
	DD	0500aH
xdata	ENDS
;	COMDAT xdata
xdata	SEGMENT
$unwind$?dtor$0@?0???1InternalErrorException@Internal@Core@Math@Palmtree@@UEAA@XZ@4HA DD 031001H
	DD	0700c4210H
	DD	0500bH
xdata	ENDS
;	COMDAT xdata
xdata	SEGMENT
$ip2state$??1InternalErrorException@Internal@Core@Math@Palmtree@@UEAA@XZ DD imagerel ??1InternalErrorException@Internal@Core@Math@Palmtree@@UEAA@XZ
	DD	0ffffffffH
xdata	ENDS
;	COMDAT xdata
xdata	SEGMENT
$stateUnwindMap$??1InternalErrorException@Internal@Core@Math@Palmtree@@UEAA@XZ DD 0ffffffffH
	DD	imagerel ?dtor$0@?0???1InternalErrorException@Internal@Core@Math@Palmtree@@UEAA@XZ@4HA
xdata	ENDS
;	COMDAT CONST
CONST	SEGMENT
$cppxdata$??1InternalErrorException@Internal@Core@Math@Palmtree@@UEAA@XZ DD 019930522H
	DD	01H
	DD	imagerel $stateUnwindMap$??1InternalErrorException@Internal@Core@Math@Palmtree@@UEAA@XZ
	DD	00H
	DD	00H
	DD	01H
	DD	imagerel $ip2state$??1InternalErrorException@Internal@Core@Math@Palmtree@@UEAA@XZ
	DD	0e8H
	DD	00H
	DD	04H
CONST	ENDS
;	COMDAT xdata
xdata	SEGMENT
$unwind$??1InternalErrorException@Internal@Core@Math@Palmtree@@UEAA@XZ DD 025053519H
	DD	010e2313H
	DD	070070021H
	DD	05006H
	DD	imagerel __CxxFrameHandler3
	DD	imagerel $cppxdata$??1InternalErrorException@Internal@Core@Math@Palmtree@@UEAA@XZ
xdata	ENDS
;	COMDAT xdata
xdata	SEGMENT
$unwind$?dtor$0@?0???0InternalErrorException@Internal@Core@Math@Palmtree@@QEAA@AEBV01234@@Z@4HA DD 031001H
	DD	0700c4210H
	DD	0500bH
xdata	ENDS
;	COMDAT xdata
xdata	SEGMENT
$ip2state$??0InternalErrorException@Internal@Core@Math@Palmtree@@QEAA@AEBV01234@@Z DD imagerel ??0InternalErrorException@Internal@Core@Math@Palmtree@@QEAA@AEBV01234@@Z
	DD	0ffffffffH
	DD	imagerel ??0InternalErrorException@Internal@Core@Math@Palmtree@@QEAA@AEBV01234@@Z+91
	DD	00H
	DD	imagerel ??0InternalErrorException@Internal@Core@Math@Palmtree@@QEAA@AEBV01234@@Z+108
	DD	0ffffffffH
xdata	ENDS
;	COMDAT xdata
xdata	SEGMENT
$stateUnwindMap$??0InternalErrorException@Internal@Core@Math@Palmtree@@QEAA@AEBV01234@@Z DD 0ffffffffH
	DD	imagerel ?dtor$0@?0???0InternalErrorException@Internal@Core@Math@Palmtree@@QEAA@AEBV01234@@Z@4HA
xdata	ENDS
;	COMDAT CONST
CONST	SEGMENT
$cppxdata$??0InternalErrorException@Internal@Core@Math@Palmtree@@QEAA@AEBV01234@@Z DD 019930522H
	DD	01H
	DD	imagerel $stateUnwindMap$??0InternalErrorException@Internal@Core@Math@Palmtree@@QEAA@AEBV01234@@Z
	DD	00H
	DD	00H
	DD	03H
	DD	imagerel $ip2state$??0InternalErrorException@Internal@Core@Math@Palmtree@@QEAA@AEBV01234@@Z
	DD	0e8H
	DD	00H
	DD	04H
CONST	ENDS
;	COMDAT xdata
xdata	SEGMENT
$unwind$??0InternalErrorException@Internal@Core@Math@Palmtree@@QEAA@AEBV01234@@Z DD 025053a19H
	DD	01132318H
	DD	0700c0021H
	DD	0500bH
	DD	imagerel __CxxFrameHandler3
	DD	imagerel $cppxdata$??0InternalErrorException@Internal@Core@Math@Palmtree@@QEAA@AEBV01234@@Z
xdata	ENDS
;	COMDAT xdata
xdata	SEGMENT
$unwind$?dtor$0@?0???0InternalErrorException@Internal@Core@Math@Palmtree@@QEAA@PEB_W0@Z@4HA DD 031001H
	DD	0700c4210H
	DD	0500bH
xdata	ENDS
;	COMDAT xdata
xdata	SEGMENT
$ip2state$??0InternalErrorException@Internal@Core@Math@Palmtree@@QEAA@PEB_W0@Z DD imagerel ??0InternalErrorException@Internal@Core@Math@Palmtree@@QEAA@PEB_W0@Z
	DD	0ffffffffH
	DD	imagerel ??0InternalErrorException@Internal@Core@Math@Palmtree@@QEAA@PEB_W0@Z+108
	DD	00H
	DD	imagerel ??0InternalErrorException@Internal@Core@Math@Palmtree@@QEAA@PEB_W0@Z+125
	DD	0ffffffffH
xdata	ENDS
;	COMDAT xdata
xdata	SEGMENT
$stateUnwindMap$??0InternalErrorException@Internal@Core@Math@Palmtree@@QEAA@PEB_W0@Z DD 0ffffffffH
	DD	imagerel ?dtor$0@?0???0InternalErrorException@Internal@Core@Math@Palmtree@@QEAA@PEB_W0@Z@4HA
xdata	ENDS
;	COMDAT CONST
CONST	SEGMENT
$cppxdata$??0InternalErrorException@Internal@Core@Math@Palmtree@@QEAA@PEB_W0@Z DD 019930522H
	DD	01H
	DD	imagerel $stateUnwindMap$??0InternalErrorException@Internal@Core@Math@Palmtree@@QEAA@PEB_W0@Z
	DD	00H
	DD	00H
	DD	03H
	DD	imagerel $ip2state$??0InternalErrorException@Internal@Core@Math@Palmtree@@QEAA@PEB_W0@Z
	DD	0e8H
	DD	00H
	DD	04H
CONST	ENDS
;	COMDAT xdata
xdata	SEGMENT
$unwind$??0InternalErrorException@Internal@Core@Math@Palmtree@@QEAA@PEB_W0@Z DD 025053f19H
	DD	0118231dH
	DD	070110021H
	DD	05010H
	DD	imagerel __CxxFrameHandler3
	DD	imagerel $cppxdata$??0InternalErrorException@Internal@Core@Math@Palmtree@@QEAA@PEB_W0@Z
xdata	ENDS
;	COMDAT xdata
xdata	SEGMENT
$unwind$??_GOverflowException@Internal@Core@Math@Palmtree@@UEAAPEAXI@Z DD 025052e01H
	DD	01122317H
	DD	0700b001dH
	DD	0500aH
xdata	ENDS
;	COMDAT xdata
xdata	SEGMENT
$unwind$?dtor$0@?0???1OverflowException@Internal@Core@Math@Palmtree@@UEAA@XZ@4HA DD 031001H
	DD	0700c4210H
	DD	0500bH
xdata	ENDS
;	COMDAT xdata
xdata	SEGMENT
$ip2state$??1OverflowException@Internal@Core@Math@Palmtree@@UEAA@XZ DD imagerel ??1OverflowException@Internal@Core@Math@Palmtree@@UEAA@XZ
	DD	0ffffffffH
xdata	ENDS
;	COMDAT xdata
xdata	SEGMENT
$stateUnwindMap$??1OverflowException@Internal@Core@Math@Palmtree@@UEAA@XZ DD 0ffffffffH
	DD	imagerel ?dtor$0@?0???1OverflowException@Internal@Core@Math@Palmtree@@UEAA@XZ@4HA
xdata	ENDS
;	COMDAT CONST
CONST	SEGMENT
$cppxdata$??1OverflowException@Internal@Core@Math@Palmtree@@UEAA@XZ DD 019930522H
	DD	01H
	DD	imagerel $stateUnwindMap$??1OverflowException@Internal@Core@Math@Palmtree@@UEAA@XZ
	DD	00H
	DD	00H
	DD	01H
	DD	imagerel $ip2state$??1OverflowException@Internal@Core@Math@Palmtree@@UEAA@XZ
	DD	0e8H
	DD	00H
	DD	04H
CONST	ENDS
;	COMDAT xdata
xdata	SEGMENT
$unwind$??1OverflowException@Internal@Core@Math@Palmtree@@UEAA@XZ DD 025053519H
	DD	010e2313H
	DD	070070021H
	DD	05006H
	DD	imagerel __CxxFrameHandler3
	DD	imagerel $cppxdata$??1OverflowException@Internal@Core@Math@Palmtree@@UEAA@XZ
xdata	ENDS
;	COMDAT xdata
xdata	SEGMENT
$unwind$?dtor$0@?0???0OverflowException@Internal@Core@Math@Palmtree@@QEAA@AEBV01234@@Z@4HA DD 031001H
	DD	0700c4210H
	DD	0500bH
xdata	ENDS
;	COMDAT xdata
xdata	SEGMENT
$ip2state$??0OverflowException@Internal@Core@Math@Palmtree@@QEAA@AEBV01234@@Z DD imagerel ??0OverflowException@Internal@Core@Math@Palmtree@@QEAA@AEBV01234@@Z
	DD	0ffffffffH
	DD	imagerel ??0OverflowException@Internal@Core@Math@Palmtree@@QEAA@AEBV01234@@Z+91
	DD	00H
	DD	imagerel ??0OverflowException@Internal@Core@Math@Palmtree@@QEAA@AEBV01234@@Z+108
	DD	0ffffffffH
xdata	ENDS
;	COMDAT xdata
xdata	SEGMENT
$stateUnwindMap$??0OverflowException@Internal@Core@Math@Palmtree@@QEAA@AEBV01234@@Z DD 0ffffffffH
	DD	imagerel ?dtor$0@?0???0OverflowException@Internal@Core@Math@Palmtree@@QEAA@AEBV01234@@Z@4HA
xdata	ENDS
;	COMDAT CONST
CONST	SEGMENT
$cppxdata$??0OverflowException@Internal@Core@Math@Palmtree@@QEAA@AEBV01234@@Z DD 019930522H
	DD	01H
	DD	imagerel $stateUnwindMap$??0OverflowException@Internal@Core@Math@Palmtree@@QEAA@AEBV01234@@Z
	DD	00H
	DD	00H
	DD	03H
	DD	imagerel $ip2state$??0OverflowException@Internal@Core@Math@Palmtree@@QEAA@AEBV01234@@Z
	DD	0e8H
	DD	00H
	DD	04H
CONST	ENDS
;	COMDAT xdata
xdata	SEGMENT
$unwind$??0OverflowException@Internal@Core@Math@Palmtree@@QEAA@AEBV01234@@Z DD 025053a19H
	DD	01132318H
	DD	0700c0021H
	DD	0500bH
	DD	imagerel __CxxFrameHandler3
	DD	imagerel $cppxdata$??0OverflowException@Internal@Core@Math@Palmtree@@QEAA@AEBV01234@@Z
xdata	ENDS
;	COMDAT xdata
xdata	SEGMENT
$unwind$?dtor$0@?0???0OverflowException@Internal@Core@Math@Palmtree@@QEAA@PEB_W@Z@4HA DD 031001H
	DD	0700c4210H
	DD	0500bH
xdata	ENDS
;	COMDAT xdata
xdata	SEGMENT
$ip2state$??0OverflowException@Internal@Core@Math@Palmtree@@QEAA@PEB_W@Z DD imagerel ??0OverflowException@Internal@Core@Math@Palmtree@@QEAA@PEB_W@Z
	DD	0ffffffffH
	DD	imagerel ??0OverflowException@Internal@Core@Math@Palmtree@@QEAA@PEB_W@Z+96
	DD	00H
	DD	imagerel ??0OverflowException@Internal@Core@Math@Palmtree@@QEAA@PEB_W@Z+113
	DD	0ffffffffH
xdata	ENDS
;	COMDAT xdata
xdata	SEGMENT
$stateUnwindMap$??0OverflowException@Internal@Core@Math@Palmtree@@QEAA@PEB_W@Z DD 0ffffffffH
	DD	imagerel ?dtor$0@?0???0OverflowException@Internal@Core@Math@Palmtree@@QEAA@PEB_W@Z@4HA
xdata	ENDS
;	COMDAT CONST
CONST	SEGMENT
$cppxdata$??0OverflowException@Internal@Core@Math@Palmtree@@QEAA@PEB_W@Z DD 019930522H
	DD	01H
	DD	imagerel $stateUnwindMap$??0OverflowException@Internal@Core@Math@Palmtree@@QEAA@PEB_W@Z
	DD	00H
	DD	00H
	DD	03H
	DD	imagerel $ip2state$??0OverflowException@Internal@Core@Math@Palmtree@@QEAA@PEB_W@Z
	DD	0e8H
	DD	00H
	DD	04H
CONST	ENDS
;	COMDAT xdata
xdata	SEGMENT
$unwind$??0OverflowException@Internal@Core@Math@Palmtree@@QEAA@PEB_W@Z DD 025053a19H
	DD	01132318H
	DD	0700c0021H
	DD	0500bH
	DD	imagerel __CxxFrameHandler3
	DD	imagerel $cppxdata$??0OverflowException@Internal@Core@Math@Palmtree@@QEAA@PEB_W@Z
xdata	ENDS
;	COMDAT xdata
xdata	SEGMENT
$unwind$??_GException@Internal@Core@Math@Palmtree@@UEAAPEAXI@Z DD 025052e01H
	DD	01122317H
	DD	0700b001dH
	DD	0500aH
xdata	ENDS
;	COMDAT xdata
xdata	SEGMENT
$unwind$?dtor$0@?0???1Exception@Internal@Core@Math@Palmtree@@UEAA@XZ@4HA DD 031001H
	DD	0700c4210H
	DD	0500bH
xdata	ENDS
;	COMDAT xdata
xdata	SEGMENT
$ip2state$??1Exception@Internal@Core@Math@Palmtree@@UEAA@XZ DD imagerel ??1Exception@Internal@Core@Math@Palmtree@@UEAA@XZ
	DD	0ffffffffH
xdata	ENDS
;	COMDAT xdata
xdata	SEGMENT
$stateUnwindMap$??1Exception@Internal@Core@Math@Palmtree@@UEAA@XZ DD 0ffffffffH
	DD	imagerel ?dtor$0@?0???1Exception@Internal@Core@Math@Palmtree@@UEAA@XZ@4HA
xdata	ENDS
;	COMDAT CONST
CONST	SEGMENT
$cppxdata$??1Exception@Internal@Core@Math@Palmtree@@UEAA@XZ DD 019930522H
	DD	01H
	DD	imagerel $stateUnwindMap$??1Exception@Internal@Core@Math@Palmtree@@UEAA@XZ
	DD	00H
	DD	00H
	DD	01H
	DD	imagerel $ip2state$??1Exception@Internal@Core@Math@Palmtree@@UEAA@XZ
	DD	0e8H
	DD	00H
	DD	04H
CONST	ENDS
;	COMDAT xdata
xdata	SEGMENT
$unwind$??1Exception@Internal@Core@Math@Palmtree@@UEAA@XZ DD 025053519H
	DD	010e2313H
	DD	070070021H
	DD	05006H
	DD	imagerel __CxxFrameHandler3
	DD	imagerel $cppxdata$??1Exception@Internal@Core@Math@Palmtree@@UEAA@XZ
xdata	ENDS
;	COMDAT xdata
xdata	SEGMENT
$unwind$?dtor$0@?0???0Exception@Internal@Core@Math@Palmtree@@QEAA@AEBV01234@@Z@4HA DD 031001H
	DD	0700c4210H
	DD	0500bH
xdata	ENDS
;	COMDAT xdata
xdata	SEGMENT
$ip2state$??0Exception@Internal@Core@Math@Palmtree@@QEAA@AEBV01234@@Z DD imagerel ??0Exception@Internal@Core@Math@Palmtree@@QEAA@AEBV01234@@Z
	DD	0ffffffffH
	DD	imagerel ??0Exception@Internal@Core@Math@Palmtree@@QEAA@AEBV01234@@Z+84
	DD	00H
	DD	imagerel ??0Exception@Internal@Core@Math@Palmtree@@QEAA@AEBV01234@@Z+165
	DD	0ffffffffH
xdata	ENDS
;	COMDAT xdata
xdata	SEGMENT
$stateUnwindMap$??0Exception@Internal@Core@Math@Palmtree@@QEAA@AEBV01234@@Z DD 0ffffffffH
	DD	imagerel ?dtor$0@?0???0Exception@Internal@Core@Math@Palmtree@@QEAA@AEBV01234@@Z@4HA
xdata	ENDS
;	COMDAT CONST
CONST	SEGMENT
$cppxdata$??0Exception@Internal@Core@Math@Palmtree@@QEAA@AEBV01234@@Z DD 019930522H
	DD	01H
	DD	imagerel $stateUnwindMap$??0Exception@Internal@Core@Math@Palmtree@@QEAA@AEBV01234@@Z
	DD	00H
	DD	00H
	DD	03H
	DD	imagerel $ip2state$??0Exception@Internal@Core@Math@Palmtree@@QEAA@AEBV01234@@Z
	DD	0e8H
	DD	00H
	DD	04H
CONST	ENDS
;	COMDAT xdata
xdata	SEGMENT
$unwind$??0Exception@Internal@Core@Math@Palmtree@@QEAA@AEBV01234@@Z DD 025053a19H
	DD	01132318H
	DD	0700c0021H
	DD	0500bH
	DD	imagerel __CxxFrameHandler3
	DD	imagerel $cppxdata$??0Exception@Internal@Core@Math@Palmtree@@QEAA@AEBV01234@@Z
xdata	ENDS
;	COMDAT xdata
xdata	SEGMENT
$unwind$?dtor$0@?0???0Exception@Internal@Core@Math@Palmtree@@IEAA@HPEB_W0@Z@4HA DD 031001H
	DD	0700c4210H
	DD	0500bH
xdata	ENDS
;	COMDAT xdata
xdata	SEGMENT
$ip2state$??0Exception@Internal@Core@Math@Palmtree@@IEAA@HPEB_W0@Z DD imagerel ??0Exception@Internal@Core@Math@Palmtree@@IEAA@HPEB_W0@Z
	DD	0ffffffffH
	DD	imagerel ??0Exception@Internal@Core@Math@Palmtree@@IEAA@HPEB_W0@Z+93
	DD	00H
	DD	imagerel ??0Exception@Internal@Core@Math@Palmtree@@IEAA@HPEB_W0@Z+162
	DD	0ffffffffH
xdata	ENDS
;	COMDAT xdata
xdata	SEGMENT
$stateUnwindMap$??0Exception@Internal@Core@Math@Palmtree@@IEAA@HPEB_W0@Z DD 0ffffffffH
	DD	imagerel ?dtor$0@?0???0Exception@Internal@Core@Math@Palmtree@@IEAA@HPEB_W0@Z@4HA
xdata	ENDS
;	COMDAT CONST
CONST	SEGMENT
$cppxdata$??0Exception@Internal@Core@Math@Palmtree@@IEAA@HPEB_W0@Z DD 019930522H
	DD	01H
	DD	imagerel $stateUnwindMap$??0Exception@Internal@Core@Math@Palmtree@@IEAA@HPEB_W0@Z
	DD	00H
	DD	00H
	DD	03H
	DD	imagerel $ip2state$??0Exception@Internal@Core@Math@Palmtree@@IEAA@HPEB_W0@Z
	DD	0e8H
	DD	00H
	DD	04H
CONST	ENDS
;	COMDAT xdata
xdata	SEGMENT
$unwind$??0Exception@Internal@Core@Math@Palmtree@@IEAA@HPEB_W0@Z DD 025054319H
	DD	011c2321H
	DD	070150021H
	DD	05014H
	DD	imagerel __CxxFrameHandler3
	DD	imagerel $cppxdata$??0Exception@Internal@Core@Math@Palmtree@@IEAA@HPEB_W0@Z
xdata	ENDS
;	COMDAT xdata
xdata	SEGMENT
$unwind$?dtor$0@?0???0Exception@Internal@Core@Math@Palmtree@@IEAA@HPEB_W@Z@4HA DD 031001H
	DD	0700c4210H
	DD	0500bH
xdata	ENDS
;	COMDAT xdata
xdata	SEGMENT
$ip2state$??0Exception@Internal@Core@Math@Palmtree@@IEAA@HPEB_W@Z DD imagerel ??0Exception@Internal@Core@Math@Palmtree@@IEAA@HPEB_W@Z
	DD	0ffffffffH
	DD	imagerel ??0Exception@Internal@Core@Math@Palmtree@@IEAA@HPEB_W@Z+88
	DD	00H
	DD	imagerel ??0Exception@Internal@Core@Math@Palmtree@@IEAA@HPEB_W@Z+154
	DD	0ffffffffH
xdata	ENDS
;	COMDAT xdata
xdata	SEGMENT
$stateUnwindMap$??0Exception@Internal@Core@Math@Palmtree@@IEAA@HPEB_W@Z DD 0ffffffffH
	DD	imagerel ?dtor$0@?0???0Exception@Internal@Core@Math@Palmtree@@IEAA@HPEB_W@Z@4HA
xdata	ENDS
;	COMDAT CONST
CONST	SEGMENT
$cppxdata$??0Exception@Internal@Core@Math@Palmtree@@IEAA@HPEB_W@Z DD 019930522H
	DD	01H
	DD	imagerel $stateUnwindMap$??0Exception@Internal@Core@Math@Palmtree@@IEAA@HPEB_W@Z
	DD	00H
	DD	00H
	DD	03H
	DD	imagerel $ip2state$??0Exception@Internal@Core@Math@Palmtree@@IEAA@HPEB_W@Z
	DD	0e8H
	DD	00H
	DD	04H
CONST	ENDS
;	COMDAT xdata
xdata	SEGMENT
$unwind$??0Exception@Internal@Core@Math@Palmtree@@IEAA@HPEB_W@Z DD 025053e19H
	DD	0117231cH
	DD	070100021H
	DD	0500fH
	DD	imagerel __CxxFrameHandler3
	DD	imagerel $cppxdata$??0Exception@Internal@Core@Math@Palmtree@@IEAA@HPEB_W@Z
xdata	ENDS
;	COMDAT xdata
xdata	SEGMENT
$unwind$??_Gexception@std@@UEAAPEAXI@Z DD 025052e01H
	DD	01122317H
	DD	0700b001dH
	DD	0500aH
xdata	ENDS
;	COMDAT xdata
xdata	SEGMENT
$unwind$?what@exception@std@@UEBAPEBDXZ DD 025052a01H
	DD	010e2313H
	DD	07007001fH
	DD	05006H
xdata	ENDS
;	COMDAT xdata
xdata	SEGMENT
$ip2state$??1exception@std@@UEAA@XZ DD imagerel ??1exception@std@@UEAA@XZ
	DD	0ffffffffH
xdata	ENDS
;	COMDAT CONST
CONST	SEGMENT
$cppxdata$??1exception@std@@UEAA@XZ DD 019930522H
	DD	00H
	DD	00H
	DD	00H
	DD	00H
	DD	01H
	DD	imagerel $ip2state$??1exception@std@@UEAA@XZ
	DD	0e8H
	DD	00H
	DD	04H
CONST	ENDS
;	COMDAT xdata
xdata	SEGMENT
$unwind$??1exception@std@@UEAA@XZ DD 025053519H
	DD	010e2313H
	DD	070070021H
	DD	05006H
	DD	imagerel __CxxFrameHandler3
	DD	imagerel $cppxdata$??1exception@std@@UEAA@XZ
xdata	ENDS
;	COMDAT xdata
xdata	SEGMENT
$ip2state$??0exception@std@@QEAA@XZ DD imagerel ??0exception@std@@QEAA@XZ
	DD	0ffffffffH
xdata	ENDS
;	COMDAT CONST
CONST	SEGMENT
$cppxdata$??0exception@std@@QEAA@XZ DD 019930522H
	DD	00H
	DD	00H
	DD	00H
	DD	00H
	DD	01H
	DD	imagerel $ip2state$??0exception@std@@QEAA@XZ
	DD	0e8H
	DD	00H
	DD	04H
CONST	ENDS
;	COMDAT xdata
xdata	SEGMENT
$unwind$??0exception@std@@QEAA@XZ DD 025053519H
	DD	010e2313H
	DD	070070021H
	DD	05006H
	DD	imagerel __CxxFrameHandler3
	DD	imagerel $cppxdata$??0exception@std@@QEAA@XZ
xdata	ENDS
; Function compile flags: /Odt
;	COMDAT __JustMyCode_Default
_TEXT	SEGMENT
__JustMyCode_Default PROC				; COMDAT
  00000	c2 00 00	 ret	 0
__JustMyCode_Default ENDP
_TEXT	ENDS
; Function compile flags: /Odtp /RTCsu /ZI
; File z:\sources\lunor\repos\rougemeilland\palmtree.math.core.uint\palmtree.math.core.uint\pmc_inline_func.h
;	COMDAT _FROMWORDTODWORD
_TEXT	SEGMENT
value_high$ = 224
value_low$ = 232
_FROMWORDTODWORD PROC					; COMDAT

; 140  :         {

  00000	89 54 24 10	 mov	 DWORD PTR [rsp+16], edx
  00004	89 4c 24 08	 mov	 DWORD PTR [rsp+8], ecx
  00008	55		 push	 rbp
  00009	57		 push	 rdi
  0000a	48 81 ec e8 00
	00 00		 sub	 rsp, 232		; 000000e8H
  00011	48 8d 6c 24 20	 lea	 rbp, QWORD PTR [rsp+32]
  00016	48 8b fc	 mov	 rdi, rsp
  00019	b9 3a 00 00 00	 mov	 ecx, 58			; 0000003aH
  0001e	b8 cc cc cc cc	 mov	 eax, -858993460		; ccccccccH
  00023	f3 ab		 rep stosd
  00025	8b 8c 24 08 01
	00 00		 mov	 ecx, DWORD PTR [rsp+264]
  0002c	48 8d 0d 00 00
	00 00		 lea	 rcx, OFFSET FLAT:__8CA3E54E_pmc_inline_func@h
  00033	e8 00 00 00 00	 call	 __CheckForDebuggerJustMyCode

; 141  :             return (((_UINT64_T)value_high << 32) | value_low);

  00038	8b 85 e0 00 00
	00		 mov	 eax, DWORD PTR value_high$[rbp]
  0003e	48 c1 e0 20	 shl	 rax, 32			; 00000020H
  00042	8b 8d e8 00 00
	00		 mov	 ecx, DWORD PTR value_low$[rbp]
  00048	48 0b c1	 or	 rax, rcx

; 142  :         }

  0004b	48 8d a5 c8 00
	00 00		 lea	 rsp, QWORD PTR [rbp+200]
  00052	5f		 pop	 rdi
  00053	5d		 pop	 rbp
  00054	c3		 ret	 0
_FROMWORDTODWORD ENDP
_TEXT	ENDS
; Function compile flags: /Odtp /RTCsu /ZI
; File z:\sources\lunor\repos\rougemeilland\palmtree.math.core.uint\palmtree.math.core.uint\pmc_to.cpp
;	COMDAT ?PMC_To_X_L@Internal@Core@Math@Palmtree@@YA_KPEAU__tag_PMC_HANDLE_UINT@1234@@Z
_TEXT	SEGMENT
np$ = 8
$T1 = 232
$T2 = 312
$T3 = 392
tv93 = 456
p$ = 496
?PMC_To_X_L@Internal@Core@Math@Palmtree@@YA_KPEAU__tag_PMC_HANDLE_UINT@1234@@Z PROC ; Palmtree::Math::Core::Internal::PMC_To_X_L, COMDAT

; 51   :     {

$LN11:
  00000	48 89 4c 24 08	 mov	 QWORD PTR [rsp+8], rcx
  00005	55		 push	 rbp
  00006	57		 push	 rdi
  00007	48 81 ec f8 01
	00 00		 sub	 rsp, 504		; 000001f8H
  0000e	48 8d 6c 24 20	 lea	 rbp, QWORD PTR [rsp+32]
  00013	48 8b fc	 mov	 rdi, rsp
  00016	b9 7e 00 00 00	 mov	 ecx, 126		; 0000007eH
  0001b	b8 cc cc cc cc	 mov	 eax, -858993460		; ccccccccH
  00020	f3 ab		 rep stosd
  00022	48 8b 8c 24 18
	02 00 00	 mov	 rcx, QWORD PTR [rsp+536]
  0002a	48 8d 0d 00 00
	00 00		 lea	 rcx, OFFSET FLAT:__B37E44B8_pmc_to@cpp
  00031	e8 00 00 00 00	 call	 __CheckForDebuggerJustMyCode

; 52   :         if (sizeof(__UNIT_TYPE) * 2 < sizeof(_UINT64_T))

  00036	33 c0		 xor	 eax, eax
  00038	85 c0		 test	 eax, eax
  0003a	74 2d		 je	 SHORT $LN2@PMC_To_X_L

; 53   :         {
; 54   :             // 32bitCPU
; 55   :             throw InternalErrorException(L"", L"pmc_to.cpp;PMC_To_X_L;1");

  0003c	4c 8d 05 00 00
	00 00		 lea	 r8, OFFSET FLAT:??_C@_1DA@EIOLFCFD@?$AAp?$AAm?$AAc?$AA_?$AAt?$AAo?$AA?4?$AAc?$AAp?$AAp?$AA?$DL?$AAP?$AAM?$AAC?$AA_@
  00043	48 8d 15 00 00
	00 00		 lea	 rdx, OFFSET FLAT:??_C@_1CG@CNOPPENL@?$PP?$II?$AA?$BP?$AAW?$AAf?$AAD?$AAj?$AAD?$PP?$LD?$PP?$PM?$PP?I?$AAk?$AA0?$AAT?$AAW?$AA?$HO@
  0004a	48 8d 8d e8 00
	00 00		 lea	 rcx, QWORD PTR $T1[rbp]
  00051	e8 00 00 00 00	 call	 ??0InternalErrorException@Internal@Core@Math@Palmtree@@QEAA@PEB_W0@Z ; Palmtree::Math::Core::Internal::InternalErrorException::InternalErrorException
  00056	48 8d 15 00 00
	00 00		 lea	 rdx, OFFSET FLAT:_TI2?AVInternalErrorException@Internal@Core@Math@Palmtree@@
  0005d	48 8d 8d e8 00
	00 00		 lea	 rcx, QWORD PTR $T1[rbp]
  00064	e8 00 00 00 00	 call	 _CxxThrowException
$LN2@PMC_To_X_L:

; 56   :         }
; 57   :         NUMBER_HEADER* np = (NUMBER_HEADER*)p;

  00069	48 8b 85 f0 01
	00 00		 mov	 rax, QWORD PTR p$[rbp]
  00070	48 89 45 08	 mov	 QWORD PTR np$[rbp], rax

; 58   :         CheckNumber(np);

  00074	48 8b 4d 08	 mov	 rcx, QWORD PTR np$[rbp]
  00078	e8 00 00 00 00	 call	 ?CheckNumber@Internal@Core@Math@Palmtree@@YAXPEAU__tag_NUMBER_HEADER@1234@@Z ; Palmtree::Math::Core::Internal::CheckNumber

; 59   :         if (np->UNIT_BIT_COUNT > sizeof(_UINT64_T) * 8)

  0007d	48 8b 45 08	 mov	 rax, QWORD PTR np$[rbp]
  00081	48 83 78 20 40	 cmp	 QWORD PTR [rax+32], 64	; 00000040H
  00086	76 26		 jbe	 SHORT $LN3@PMC_To_X_L

; 60   :             throw OverflowException(L"64bit");

  00088	48 8d 15 00 00
	00 00		 lea	 rdx, OFFSET FLAT:??_C@_1CK@EPAIANDA@?$AA6?$AA4?$AAb?$AAi?$AAt?$AAt?$AAp?$AAx?$AAn?$PP?$IL?$AA?7?$PP?$NL?$AAk?$AA1?$AAW@
  0008f	48 8d 8d 38 01
	00 00		 lea	 rcx, QWORD PTR $T2[rbp]
  00096	e8 00 00 00 00	 call	 ??0OverflowException@Internal@Core@Math@Palmtree@@QEAA@PEB_W@Z ; Palmtree::Math::Core::Internal::OverflowException::OverflowException
  0009b	48 8d 15 00 00
	00 00		 lea	 rdx, OFFSET FLAT:_TI2?AVOverflowException@Internal@Core@Math@Palmtree@@
  000a2	48 8d 8d 38 01
	00 00		 lea	 rcx, QWORD PTR $T2[rbp]
  000a9	e8 00 00 00 00	 call	 _CxxThrowException
$LN3@PMC_To_X_L:

; 61   :         if (np->IS_ZERO)

  000ae	48 8b 45 08	 mov	 rax, QWORD PTR np$[rbp]
  000b2	8b 40 08	 mov	 eax, DWORD PTR [rax+8]
  000b5	83 e0 01	 and	 eax, 1
  000b8	85 c0		 test	 eax, eax
  000ba	74 0c		 je	 SHORT $LN4@PMC_To_X_L

; 62   :             return (0);

  000bc	33 c0		 xor	 eax, eax
  000be	e9 a4 00 00 00	 jmp	 $LN1@PMC_To_X_L

; 63   :         else

  000c3	e9 9f 00 00 00	 jmp	 $LN5@PMC_To_X_L
$LN4@PMC_To_X_L:

; 64   :         {
; 65   :             if (np->UNIT_BIT_COUNT <= __UNIT_TYPE_BIT_COUNT)

  000c8	48 8b 45 08	 mov	 rax, QWORD PTR np$[rbp]
  000cc	48 83 78 20 40	 cmp	 QWORD PTR [rax+32], 64	; 00000040H
  000d1	77 19		 ja	 SHORT $LN6@PMC_To_X_L

; 66   :             {
; 67   :                 //  1 
; 68   :                 return (np->BLOCK[0]);

  000d3	b8 08 00 00 00	 mov	 eax, 8
  000d8	48 6b c0 00	 imul	 rax, rax, 0
  000dc	48 8b 4d 08	 mov	 rcx, QWORD PTR np$[rbp]
  000e0	48 8b 49 40	 mov	 rcx, QWORD PTR [rcx+64]
  000e4	48 8b 04 08	 mov	 rax, QWORD PTR [rax+rcx]
  000e8	eb 7d		 jmp	 SHORT $LN1@PMC_To_X_L
  000ea	eb 7b		 jmp	 SHORT $LN7@PMC_To_X_L
$LN6@PMC_To_X_L:

; 69   :             }
; 70   :             else if (np->UNIT_BIT_COUNT <= __UNIT_TYPE_BIT_COUNT * 2)

  000ec	48 8b 45 08	 mov	 rax, QWORD PTR np$[rbp]
  000f0	48 81 78 20 80
	00 00 00	 cmp	 QWORD PTR [rax+32], 128	; 00000080H
  000f8	77 40		 ja	 SHORT $LN8@PMC_To_X_L

; 71   :             {
; 72   :                 //  2 
; 73   :                 return (_FROMWORDTODWORD((_UINT32_T)np->BLOCK[1], (_UINT32_T)np->BLOCK[0]));

  000fa	b8 08 00 00 00	 mov	 eax, 8
  000ff	48 6b c0 00	 imul	 rax, rax, 0
  00103	48 8b 4d 08	 mov	 rcx, QWORD PTR np$[rbp]
  00107	48 8b 49 40	 mov	 rcx, QWORD PTR [rcx+64]
  0010b	ba 08 00 00 00	 mov	 edx, 8
  00110	48 6b d2 01	 imul	 rdx, rdx, 1
  00114	48 89 95 c8 01
	00 00		 mov	 QWORD PTR tv93[rbp], rdx
  0011b	4c 8b 45 08	 mov	 r8, QWORD PTR np$[rbp]
  0011f	4d 8b 40 40	 mov	 r8, QWORD PTR [r8+64]
  00123	8b 14 01	 mov	 edx, DWORD PTR [rcx+rax]
  00126	48 8b 85 c8 01
	00 00		 mov	 rax, QWORD PTR tv93[rbp]
  0012d	41 8b 0c 00	 mov	 ecx, DWORD PTR [r8+rax]
  00131	e8 00 00 00 00	 call	 _FROMWORDTODWORD
  00136	eb 2f		 jmp	 SHORT $LN1@PMC_To_X_L

; 74   :             }
; 75   :             else

  00138	eb 2d		 jmp	 SHORT $LN9@PMC_To_X_L
$LN8@PMC_To_X_L:

; 76   :                 throw InternalErrorException(L"", L"pmc_to.cpp;PMC_To_X_L;2");

  0013a	4c 8d 05 00 00
	00 00		 lea	 r8, OFFSET FLAT:??_C@_1DA@FKFOPNLN@?$AAp?$AAm?$AAc?$AA_?$AAt?$AAo?$AA?4?$AAc?$AAp?$AAp?$AA?$DL?$AAP?$AAM?$AAC?$AA_@
  00141	48 8d 15 00 00
	00 00		 lea	 rdx, OFFSET FLAT:??_C@_1CG@CNOPPENL@?$PP?$II?$AA?$BP?$AAW?$AAf?$AAD?$AAj?$AAD?$PP?$LD?$PP?$PM?$PP?I?$AAk?$AA0?$AAT?$AAW?$AA?$HO@
  00148	48 8d 8d 88 01
	00 00		 lea	 rcx, QWORD PTR $T3[rbp]
  0014f	e8 00 00 00 00	 call	 ??0InternalErrorException@Internal@Core@Math@Palmtree@@QEAA@PEB_W0@Z ; Palmtree::Math::Core::Internal::InternalErrorException::InternalErrorException
  00154	48 8d 15 00 00
	00 00		 lea	 rdx, OFFSET FLAT:_TI2?AVInternalErrorException@Internal@Core@Math@Palmtree@@
  0015b	48 8d 8d 88 01
	00 00		 lea	 rcx, QWORD PTR $T3[rbp]
  00162	e8 00 00 00 00	 call	 _CxxThrowException
$LN9@PMC_To_X_L:
$LN7@PMC_To_X_L:
$LN5@PMC_To_X_L:
$LN1@PMC_To_X_L:
$LN10@PMC_To_X_L:

; 77   :         }
; 78   :     }

  00167	48 8d a5 d8 01
	00 00		 lea	 rsp, QWORD PTR [rbp+472]
  0016e	5f		 pop	 rdi
  0016f	5d		 pop	 rbp
  00170	c3		 ret	 0
?PMC_To_X_L@Internal@Core@Math@Palmtree@@YA_KPEAU__tag_PMC_HANDLE_UINT@1234@@Z ENDP ; Palmtree::Math::Core::Internal::PMC_To_X_L
_TEXT	ENDS
; Function compile flags: /Odtp /RTCsu /ZI
; File z:\sources\lunor\repos\rougemeilland\palmtree.math.core.uint\palmtree.math.core.uint\pmc_to.cpp
;	COMDAT ?PMC_To_X_I@Internal@Core@Math@Palmtree@@YAIPEAU__tag_PMC_HANDLE_UINT@1234@@Z
_TEXT	SEGMENT
np$ = 8
$T1 = 232
$T2 = 312
tv83 = 372
p$ = 416
?PMC_To_X_I@Internal@Core@Math@Palmtree@@YAIPEAU__tag_PMC_HANDLE_UINT@1234@@Z PROC ; Palmtree::Math::Core::Internal::PMC_To_X_I, COMDAT

; 37   :     {

$LN7:
  00000	48 89 4c 24 08	 mov	 QWORD PTR [rsp+8], rcx
  00005	55		 push	 rbp
  00006	57		 push	 rdi
  00007	48 81 ec a8 01
	00 00		 sub	 rsp, 424		; 000001a8H
  0000e	48 8d 6c 24 20	 lea	 rbp, QWORD PTR [rsp+32]
  00013	48 8b fc	 mov	 rdi, rsp
  00016	b9 6a 00 00 00	 mov	 ecx, 106		; 0000006aH
  0001b	b8 cc cc cc cc	 mov	 eax, -858993460		; ccccccccH
  00020	f3 ab		 rep stosd
  00022	48 8b 8c 24 c8
	01 00 00	 mov	 rcx, QWORD PTR [rsp+456]
  0002a	48 8d 0d 00 00
	00 00		 lea	 rcx, OFFSET FLAT:__B37E44B8_pmc_to@cpp
  00031	e8 00 00 00 00	 call	 __CheckForDebuggerJustMyCode

; 38   :         if (sizeof(__UNIT_TYPE) < sizeof(_UINT32_T))

  00036	33 c0		 xor	 eax, eax
  00038	85 c0		 test	 eax, eax
  0003a	74 2d		 je	 SHORT $LN2@PMC_To_X_I

; 39   :         {
; 40   :             // 32bitCPU
; 41   :             throw InternalErrorException(L"", L"pmc_to.cpp;PMC_To_X_I;1");

  0003c	4c 8d 05 00 00
	00 00		 lea	 r8, OFFSET FLAT:??_C@_1DA@LFMDH@?$AAp?$AAm?$AAc?$AA_?$AAt?$AAo?$AA?4?$AAc?$AAp?$AAp?$AA?$DL?$AAP?$AAM?$AAC?$AA_@
  00043	48 8d 15 00 00
	00 00		 lea	 rdx, OFFSET FLAT:??_C@_1CG@CNOPPENL@?$PP?$II?$AA?$BP?$AAW?$AAf?$AAD?$AAj?$AAD?$PP?$LD?$PP?$PM?$PP?I?$AAk?$AA0?$AAT?$AAW?$AA?$HO@
  0004a	48 8d 8d e8 00
	00 00		 lea	 rcx, QWORD PTR $T1[rbp]
  00051	e8 00 00 00 00	 call	 ??0InternalErrorException@Internal@Core@Math@Palmtree@@QEAA@PEB_W0@Z ; Palmtree::Math::Core::Internal::InternalErrorException::InternalErrorException
  00056	48 8d 15 00 00
	00 00		 lea	 rdx, OFFSET FLAT:_TI2?AVInternalErrorException@Internal@Core@Math@Palmtree@@
  0005d	48 8d 8d e8 00
	00 00		 lea	 rcx, QWORD PTR $T1[rbp]
  00064	e8 00 00 00 00	 call	 _CxxThrowException
$LN2@PMC_To_X_I:

; 42   :         }
; 43   :         NUMBER_HEADER* np = (NUMBER_HEADER*)p;

  00069	48 8b 85 a0 01
	00 00		 mov	 rax, QWORD PTR p$[rbp]
  00070	48 89 45 08	 mov	 QWORD PTR np$[rbp], rax

; 44   :         CheckNumber(np);

  00074	48 8b 4d 08	 mov	 rcx, QWORD PTR np$[rbp]
  00078	e8 00 00 00 00	 call	 ?CheckNumber@Internal@Core@Math@Palmtree@@YAXPEAU__tag_NUMBER_HEADER@1234@@Z ; Palmtree::Math::Core::Internal::CheckNumber

; 45   :         if (np->UNIT_BIT_COUNT > sizeof(_UINT32_T) * 8)

  0007d	48 8b 45 08	 mov	 rax, QWORD PTR np$[rbp]
  00081	48 83 78 20 20	 cmp	 QWORD PTR [rax+32], 32	; 00000020H
  00086	76 26		 jbe	 SHORT $LN3@PMC_To_X_I

; 46   :             throw OverflowException(L"32bit");

  00088	48 8d 15 00 00
	00 00		 lea	 rdx, OFFSET FLAT:??_C@_1CK@FCDNPBLF@?$AA3?$AA2?$AAb?$AAi?$AAt?$AAt?$AAp?$AAx?$AAn?$PP?$IL?$AA?7?$PP?$NL?$AAk?$AA1?$AAW@
  0008f	48 8d 8d 38 01
	00 00		 lea	 rcx, QWORD PTR $T2[rbp]
  00096	e8 00 00 00 00	 call	 ??0OverflowException@Internal@Core@Math@Palmtree@@QEAA@PEB_W@Z ; Palmtree::Math::Core::Internal::OverflowException::OverflowException
  0009b	48 8d 15 00 00
	00 00		 lea	 rdx, OFFSET FLAT:_TI2?AVOverflowException@Internal@Core@Math@Palmtree@@
  000a2	48 8d 8d 38 01
	00 00		 lea	 rcx, QWORD PTR $T2[rbp]
  000a9	e8 00 00 00 00	 call	 _CxxThrowException
$LN3@PMC_To_X_I:

; 47   :         return (np->IS_ZERO ? 0 : (_UINT32_T)np->BLOCK[0]);

  000ae	48 8b 45 08	 mov	 rax, QWORD PTR np$[rbp]
  000b2	8b 40 08	 mov	 eax, DWORD PTR [rax+8]
  000b5	83 e0 01	 and	 eax, 1
  000b8	85 c0		 test	 eax, eax
  000ba	74 0c		 je	 SHORT $LN5@PMC_To_X_I
  000bc	c7 85 74 01 00
	00 00 00 00 00	 mov	 DWORD PTR tv83[rbp], 0
  000c6	eb 1a		 jmp	 SHORT $LN6@PMC_To_X_I
$LN5@PMC_To_X_I:
  000c8	b8 08 00 00 00	 mov	 eax, 8
  000cd	48 6b c0 00	 imul	 rax, rax, 0
  000d1	48 8b 4d 08	 mov	 rcx, QWORD PTR np$[rbp]
  000d5	48 8b 49 40	 mov	 rcx, QWORD PTR [rcx+64]
  000d9	8b 04 08	 mov	 eax, DWORD PTR [rax+rcx]
  000dc	89 85 74 01 00
	00		 mov	 DWORD PTR tv83[rbp], eax
$LN6@PMC_To_X_I:
  000e2	8b 85 74 01 00
	00		 mov	 eax, DWORD PTR tv83[rbp]
$LN4@PMC_To_X_I:

; 48   :     }

  000e8	48 8d a5 88 01
	00 00		 lea	 rsp, QWORD PTR [rbp+392]
  000ef	5f		 pop	 rdi
  000f0	5d		 pop	 rbp
  000f1	c3		 ret	 0
?PMC_To_X_I@Internal@Core@Math@Palmtree@@YAIPEAU__tag_PMC_HANDLE_UINT@1234@@Z ENDP ; Palmtree::Math::Core::Internal::PMC_To_X_I
_TEXT	ENDS
; Function compile flags: /Odtp /RTCsu /ZI
; File z:\sources\lunor\repos\rougemeilland\palmtree.math.core.uint\palmtree.math.core.uint\pmc_to.cpp
;	COMDAT ?Initialize_To@Internal@Core@Math@Palmtree@@YAHPEAU_tag_PROCESSOR_FEATURES@1234@@Z
_TEXT	SEGMENT
feature$ = 224
?Initialize_To@Internal@Core@Math@Palmtree@@YAHPEAU_tag_PROCESSOR_FEATURES@1234@@Z PROC ; Palmtree::Math::Core::Internal::Initialize_To, COMDAT

; 81   :     {

$LN3:
  00000	48 89 4c 24 08	 mov	 QWORD PTR [rsp+8], rcx
  00005	55		 push	 rbp
  00006	57		 push	 rdi
  00007	48 81 ec e8 00
	00 00		 sub	 rsp, 232		; 000000e8H
  0000e	48 8d 6c 24 20	 lea	 rbp, QWORD PTR [rsp+32]
  00013	48 8b fc	 mov	 rdi, rsp
  00016	b9 3a 00 00 00	 mov	 ecx, 58			; 0000003aH
  0001b	b8 cc cc cc cc	 mov	 eax, -858993460		; ccccccccH
  00020	f3 ab		 rep stosd
  00022	48 8b 8c 24 08
	01 00 00	 mov	 rcx, QWORD PTR [rsp+264]
  0002a	48 8d 0d 00 00
	00 00		 lea	 rcx, OFFSET FLAT:__B37E44B8_pmc_to@cpp
  00031	e8 00 00 00 00	 call	 __CheckForDebuggerJustMyCode

; 82   :         return (PMC_STATUS_OK);

  00036	33 c0		 xor	 eax, eax

; 83   :     }

  00038	48 8d a5 c8 00
	00 00		 lea	 rsp, QWORD PTR [rbp+200]
  0003f	5f		 pop	 rdi
  00040	5d		 pop	 rbp
  00041	c3		 ret	 0
?Initialize_To@Internal@Core@Math@Palmtree@@YAHPEAU_tag_PROCESSOR_FEATURES@1234@@Z ENDP ; Palmtree::Math::Core::Internal::Initialize_To
_TEXT	ENDS
; Function compile flags: /Odtp /RTCsu /ZI
;	COMDAT ??_GInternalErrorException@Internal@Core@Math@Palmtree@@UEAAPEAXI@Z
_TEXT	SEGMENT
this$ = 224
__flags$ = 232
??_GInternalErrorException@Internal@Core@Math@Palmtree@@UEAAPEAXI@Z PROC ; Palmtree::Math::Core::Internal::InternalErrorException::`scalar deleting destructor', COMDAT
$LN4:
  00000	89 54 24 10	 mov	 DWORD PTR [rsp+16], edx
  00004	48 89 4c 24 08	 mov	 QWORD PTR [rsp+8], rcx
  00009	55		 push	 rbp
  0000a	57		 push	 rdi
  0000b	48 81 ec e8 00
	00 00		 sub	 rsp, 232		; 000000e8H
  00012	48 8d 6c 24 20	 lea	 rbp, QWORD PTR [rsp+32]
  00017	48 8b fc	 mov	 rdi, rsp
  0001a	b9 3a 00 00 00	 mov	 ecx, 58			; 0000003aH
  0001f	b8 cc cc cc cc	 mov	 eax, -858993460		; ccccccccH
  00024	f3 ab		 rep stosd
  00026	48 8b 8c 24 08
	01 00 00	 mov	 rcx, QWORD PTR [rsp+264]
  0002e	48 8b 8d e0 00
	00 00		 mov	 rcx, QWORD PTR this$[rbp]
  00035	e8 00 00 00 00	 call	 ??1InternalErrorException@Internal@Core@Math@Palmtree@@UEAA@XZ ; Palmtree::Math::Core::Internal::InternalErrorException::~InternalErrorException
  0003a	8b 85 e8 00 00
	00		 mov	 eax, DWORD PTR __flags$[rbp]
  00040	83 e0 01	 and	 eax, 1
  00043	85 c0		 test	 eax, eax
  00045	74 11		 je	 SHORT $LN2@scalar
  00047	ba 30 00 00 00	 mov	 edx, 48			; 00000030H
  0004c	48 8b 8d e0 00
	00 00		 mov	 rcx, QWORD PTR this$[rbp]
  00053	e8 00 00 00 00	 call	 ??3@YAXPEAX_K@Z		; operator delete
$LN2@scalar:
  00058	48 8b 85 e0 00
	00 00		 mov	 rax, QWORD PTR this$[rbp]
  0005f	48 8d a5 c8 00
	00 00		 lea	 rsp, QWORD PTR [rbp+200]
  00066	5f		 pop	 rdi
  00067	5d		 pop	 rbp
  00068	c3		 ret	 0
??_GInternalErrorException@Internal@Core@Math@Palmtree@@UEAAPEAXI@Z ENDP ; Palmtree::Math::Core::Internal::InternalErrorException::`scalar deleting destructor'
_TEXT	ENDS
; Function compile flags: /Odtp /RTCsu /ZI
; File z:\sources\lunor\repos\rougemeilland\palmtree.math.core.uint\palmtree.math.core.uint\pmc_exception.h
;	COMDAT ??1InternalErrorException@Internal@Core@Math@Palmtree@@UEAA@XZ
_TEXT	SEGMENT
$T1 = 200
this$ = 256
??1InternalErrorException@Internal@Core@Math@Palmtree@@UEAA@XZ PROC ; Palmtree::Math::Core::Internal::InternalErrorException::~InternalErrorException, COMDAT

; 295  :         {

$LN4:
  00000	48 89 4c 24 08	 mov	 QWORD PTR [rsp+8], rcx
  00005	55		 push	 rbp
  00006	57		 push	 rdi
  00007	48 81 ec 08 01
	00 00		 sub	 rsp, 264		; 00000108H
  0000e	48 8d 6c 24 20	 lea	 rbp, QWORD PTR [rsp+32]
  00013	48 8b fc	 mov	 rdi, rsp
  00016	b9 42 00 00 00	 mov	 ecx, 66			; 00000042H
  0001b	b8 cc cc cc cc	 mov	 eax, -858993460		; ccccccccH
  00020	f3 ab		 rep stosd
  00022	48 8b 8c 24 28
	01 00 00	 mov	 rcx, QWORD PTR [rsp+296]
  0002a	48 c7 85 c8 00
	00 00 fe ff ff
	ff		 mov	 QWORD PTR $T1[rbp], -2
  00035	48 8d 0d 00 00
	00 00		 lea	 rcx, OFFSET FLAT:__802FEEC0_pmc_exception@h
  0003c	e8 00 00 00 00	 call	 __CheckForDebuggerJustMyCode
  00041	90		 npad	 1
  00042	48 8b 85 00 01
	00 00		 mov	 rax, QWORD PTR this$[rbp]
  00049	48 8d 0d 00 00
	00 00		 lea	 rcx, OFFSET FLAT:??_7InternalErrorException@Internal@Core@Math@Palmtree@@6B@
  00050	48 89 08	 mov	 QWORD PTR [rax], rcx

; 296  :         }

  00053	48 8b 8d 00 01
	00 00		 mov	 rcx, QWORD PTR this$[rbp]
  0005a	e8 00 00 00 00	 call	 ??1Exception@Internal@Core@Math@Palmtree@@UEAA@XZ ; Palmtree::Math::Core::Internal::Exception::~Exception
  0005f	90		 npad	 1
  00060	48 8d a5 e8 00
	00 00		 lea	 rsp, QWORD PTR [rbp+232]
  00067	5f		 pop	 rdi
  00068	5d		 pop	 rbp
  00069	c3		 ret	 0
??1InternalErrorException@Internal@Core@Math@Palmtree@@UEAA@XZ ENDP ; Palmtree::Math::Core::Internal::InternalErrorException::~InternalErrorException
_TEXT	ENDS
;	COMDAT text$x
text$x	SEGMENT
$T1 = 200
this$ = 256
?dtor$0@?0???1InternalErrorException@Internal@Core@Math@Palmtree@@UEAA@XZ@4HA PROC ; `Palmtree::Math::Core::Internal::InternalErrorException::~InternalErrorException'::`1'::dtor$0
  00000	48 89 4c 24 08	 mov	 QWORD PTR [rsp+8], rcx
  00005	48 89 54 24 10	 mov	 QWORD PTR [rsp+16], rdx
  0000a	55		 push	 rbp
  0000b	57		 push	 rdi
  0000c	48 83 ec 28	 sub	 rsp, 40			; 00000028H
  00010	48 8d 6a 20	 lea	 rbp, QWORD PTR [rdx+32]
  00014	48 8b 8d 00 01
	00 00		 mov	 rcx, QWORD PTR this$[rbp]
  0001b	e8 00 00 00 00	 call	 ??1Exception@Internal@Core@Math@Palmtree@@UEAA@XZ ; Palmtree::Math::Core::Internal::Exception::~Exception
  00020	48 83 c4 28	 add	 rsp, 40			; 00000028H
  00024	5f		 pop	 rdi
  00025	5d		 pop	 rbp
  00026	c3		 ret	 0
?dtor$0@?0???1InternalErrorException@Internal@Core@Math@Palmtree@@UEAA@XZ@4HA ENDP ; `Palmtree::Math::Core::Internal::InternalErrorException::~InternalErrorException'::`1'::dtor$0
text$x	ENDS
; Function compile flags: /Odtp /RTCsu /ZI
;	COMDAT text$x
text$x	SEGMENT
$T1 = 200
this$ = 256
?dtor$0@?0???1InternalErrorException@Internal@Core@Math@Palmtree@@UEAA@XZ@4HA PROC ; `Palmtree::Math::Core::Internal::InternalErrorException::~InternalErrorException'::`1'::dtor$0
  00000	48 89 4c 24 08	 mov	 QWORD PTR [rsp+8], rcx
  00005	48 89 54 24 10	 mov	 QWORD PTR [rsp+16], rdx
  0000a	55		 push	 rbp
  0000b	57		 push	 rdi
  0000c	48 83 ec 28	 sub	 rsp, 40			; 00000028H
  00010	48 8d 6a 20	 lea	 rbp, QWORD PTR [rdx+32]
  00014	48 8b 8d 00 01
	00 00		 mov	 rcx, QWORD PTR this$[rbp]
  0001b	e8 00 00 00 00	 call	 ??1Exception@Internal@Core@Math@Palmtree@@UEAA@XZ ; Palmtree::Math::Core::Internal::Exception::~Exception
  00020	48 83 c4 28	 add	 rsp, 40			; 00000028H
  00024	5f		 pop	 rdi
  00025	5d		 pop	 rbp
  00026	c3		 ret	 0
?dtor$0@?0???1InternalErrorException@Internal@Core@Math@Palmtree@@UEAA@XZ@4HA ENDP ; `Palmtree::Math::Core::Internal::InternalErrorException::~InternalErrorException'::`1'::dtor$0
text$x	ENDS
; Function compile flags: /Odtp /RTCsu /ZI
; File z:\sources\lunor\repos\rougemeilland\palmtree.math.core.uint\palmtree.math.core.uint\pmc_exception.h
;	COMDAT ??0InternalErrorException@Internal@Core@Math@Palmtree@@QEAA@AEBV01234@@Z
_TEXT	SEGMENT
$T1 = 200
this$ = 256
p$ = 264
??0InternalErrorException@Internal@Core@Math@Palmtree@@QEAA@AEBV01234@@Z PROC ; Palmtree::Math::Core::Internal::InternalErrorException::InternalErrorException, COMDAT

; 291  :         {

$LN4:
  00000	48 89 54 24 10	 mov	 QWORD PTR [rsp+16], rdx
  00005	48 89 4c 24 08	 mov	 QWORD PTR [rsp+8], rcx
  0000a	55		 push	 rbp
  0000b	57		 push	 rdi
  0000c	48 81 ec 08 01
	00 00		 sub	 rsp, 264		; 00000108H
  00013	48 8d 6c 24 20	 lea	 rbp, QWORD PTR [rsp+32]
  00018	48 8b fc	 mov	 rdi, rsp
  0001b	b9 42 00 00 00	 mov	 ecx, 66			; 00000042H
  00020	b8 cc cc cc cc	 mov	 eax, -858993460		; ccccccccH
  00025	f3 ab		 rep stosd
  00027	48 8b 8c 24 28
	01 00 00	 mov	 rcx, QWORD PTR [rsp+296]
  0002f	48 c7 85 c8 00
	00 00 fe ff ff
	ff		 mov	 QWORD PTR $T1[rbp], -2
  0003a	48 8d 0d 00 00
	00 00		 lea	 rcx, OFFSET FLAT:__802FEEC0_pmc_exception@h
  00041	e8 00 00 00 00	 call	 __CheckForDebuggerJustMyCode
  00046	90		 npad	 1

; 290  :             : Exception(p)

  00047	48 8b 95 08 01
	00 00		 mov	 rdx, QWORD PTR p$[rbp]
  0004e	48 8b 8d 00 01
	00 00		 mov	 rcx, QWORD PTR this$[rbp]
  00055	e8 00 00 00 00	 call	 ??0Exception@Internal@Core@Math@Palmtree@@QEAA@AEBV01234@@Z ; Palmtree::Math::Core::Internal::Exception::Exception
  0005a	90		 npad	 1

; 291  :         {

  0005b	48 8b 85 00 01
	00 00		 mov	 rax, QWORD PTR this$[rbp]
  00062	48 8d 0d 00 00
	00 00		 lea	 rcx, OFFSET FLAT:??_7InternalErrorException@Internal@Core@Math@Palmtree@@6B@
  00069	48 89 08	 mov	 QWORD PTR [rax], rcx

; 292  :         }

  0006c	48 8b 85 00 01
	00 00		 mov	 rax, QWORD PTR this$[rbp]
  00073	48 8d a5 e8 00
	00 00		 lea	 rsp, QWORD PTR [rbp+232]
  0007a	5f		 pop	 rdi
  0007b	5d		 pop	 rbp
  0007c	c3		 ret	 0
??0InternalErrorException@Internal@Core@Math@Palmtree@@QEAA@AEBV01234@@Z ENDP ; Palmtree::Math::Core::Internal::InternalErrorException::InternalErrorException
_TEXT	ENDS
;	COMDAT text$x
text$x	SEGMENT
$T1 = 200
this$ = 256
p$ = 264
?dtor$0@?0???0InternalErrorException@Internal@Core@Math@Palmtree@@QEAA@AEBV01234@@Z@4HA PROC ; `Palmtree::Math::Core::Internal::InternalErrorException::InternalErrorException'::`1'::dtor$0
  00000	48 89 4c 24 08	 mov	 QWORD PTR [rsp+8], rcx
  00005	48 89 54 24 10	 mov	 QWORD PTR [rsp+16], rdx
  0000a	55		 push	 rbp
  0000b	57		 push	 rdi
  0000c	48 83 ec 28	 sub	 rsp, 40			; 00000028H
  00010	48 8d 6a 20	 lea	 rbp, QWORD PTR [rdx+32]
  00014	48 8b 8d 00 01
	00 00		 mov	 rcx, QWORD PTR this$[rbp]
  0001b	e8 00 00 00 00	 call	 ??1Exception@Internal@Core@Math@Palmtree@@UEAA@XZ ; Palmtree::Math::Core::Internal::Exception::~Exception
  00020	48 83 c4 28	 add	 rsp, 40			; 00000028H
  00024	5f		 pop	 rdi
  00025	5d		 pop	 rbp
  00026	c3		 ret	 0
?dtor$0@?0???0InternalErrorException@Internal@Core@Math@Palmtree@@QEAA@AEBV01234@@Z@4HA ENDP ; `Palmtree::Math::Core::Internal::InternalErrorException::InternalErrorException'::`1'::dtor$0
text$x	ENDS
; Function compile flags: /Odtp /RTCsu /ZI
;	COMDAT text$x
text$x	SEGMENT
$T1 = 200
this$ = 256
p$ = 264
?dtor$0@?0???0InternalErrorException@Internal@Core@Math@Palmtree@@QEAA@AEBV01234@@Z@4HA PROC ; `Palmtree::Math::Core::Internal::InternalErrorException::InternalErrorException'::`1'::dtor$0
  00000	48 89 4c 24 08	 mov	 QWORD PTR [rsp+8], rcx
  00005	48 89 54 24 10	 mov	 QWORD PTR [rsp+16], rdx
  0000a	55		 push	 rbp
  0000b	57		 push	 rdi
  0000c	48 83 ec 28	 sub	 rsp, 40			; 00000028H
  00010	48 8d 6a 20	 lea	 rbp, QWORD PTR [rdx+32]
  00014	48 8b 8d 00 01
	00 00		 mov	 rcx, QWORD PTR this$[rbp]
  0001b	e8 00 00 00 00	 call	 ??1Exception@Internal@Core@Math@Palmtree@@UEAA@XZ ; Palmtree::Math::Core::Internal::Exception::~Exception
  00020	48 83 c4 28	 add	 rsp, 40			; 00000028H
  00024	5f		 pop	 rdi
  00025	5d		 pop	 rbp
  00026	c3		 ret	 0
?dtor$0@?0???0InternalErrorException@Internal@Core@Math@Palmtree@@QEAA@AEBV01234@@Z@4HA ENDP ; `Palmtree::Math::Core::Internal::InternalErrorException::InternalErrorException'::`1'::dtor$0
text$x	ENDS
; Function compile flags: /Odtp /RTCsu /ZI
; File z:\sources\lunor\repos\rougemeilland\palmtree.math.core.uint\palmtree.math.core.uint\pmc_exception.h
;	COMDAT ??0InternalErrorException@Internal@Core@Math@Palmtree@@QEAA@PEB_W0@Z
_TEXT	SEGMENT
$T1 = 200
this$ = 256
message$ = 264
data$ = 272
??0InternalErrorException@Internal@Core@Math@Palmtree@@QEAA@PEB_W0@Z PROC ; Palmtree::Math::Core::Internal::InternalErrorException::InternalErrorException, COMDAT

; 286  :         {

$LN4:
  00000	4c 89 44 24 18	 mov	 QWORD PTR [rsp+24], r8
  00005	48 89 54 24 10	 mov	 QWORD PTR [rsp+16], rdx
  0000a	48 89 4c 24 08	 mov	 QWORD PTR [rsp+8], rcx
  0000f	55		 push	 rbp
  00010	57		 push	 rdi
  00011	48 81 ec 08 01
	00 00		 sub	 rsp, 264		; 00000108H
  00018	48 8d 6c 24 20	 lea	 rbp, QWORD PTR [rsp+32]
  0001d	48 8b fc	 mov	 rdi, rsp
  00020	b9 42 00 00 00	 mov	 ecx, 66			; 00000042H
  00025	b8 cc cc cc cc	 mov	 eax, -858993460		; ccccccccH
  0002a	f3 ab		 rep stosd
  0002c	48 8b 8c 24 28
	01 00 00	 mov	 rcx, QWORD PTR [rsp+296]
  00034	48 c7 85 c8 00
	00 00 fe ff ff
	ff		 mov	 QWORD PTR $T1[rbp], -2
  0003f	48 8d 0d 00 00
	00 00		 lea	 rcx, OFFSET FLAT:__802FEEC0_pmc_exception@h
  00046	e8 00 00 00 00	 call	 __CheckForDebuggerJustMyCode
  0004b	90		 npad	 1

; 285  :             : Exception(PMC_STATUS_INTERNAL_ERROR, message, data)

  0004c	4c 8b 8d 10 01
	00 00		 mov	 r9, QWORD PTR data$[rbp]
  00053	4c 8b 85 08 01
	00 00		 mov	 r8, QWORD PTR message$[rbp]
  0005a	ba 00 ff ff ff	 mov	 edx, -256		; ffffffffffffff00H
  0005f	48 8b 8d 00 01
	00 00		 mov	 rcx, QWORD PTR this$[rbp]
  00066	e8 00 00 00 00	 call	 ??0Exception@Internal@Core@Math@Palmtree@@IEAA@HPEB_W0@Z ; Palmtree::Math::Core::Internal::Exception::Exception
  0006b	90		 npad	 1

; 286  :         {

  0006c	48 8b 85 00 01
	00 00		 mov	 rax, QWORD PTR this$[rbp]
  00073	48 8d 0d 00 00
	00 00		 lea	 rcx, OFFSET FLAT:??_7InternalErrorException@Internal@Core@Math@Palmtree@@6B@
  0007a	48 89 08	 mov	 QWORD PTR [rax], rcx

; 287  :         }

  0007d	48 8b 85 00 01
	00 00		 mov	 rax, QWORD PTR this$[rbp]
  00084	48 8d a5 e8 00
	00 00		 lea	 rsp, QWORD PTR [rbp+232]
  0008b	5f		 pop	 rdi
  0008c	5d		 pop	 rbp
  0008d	c3		 ret	 0
??0InternalErrorException@Internal@Core@Math@Palmtree@@QEAA@PEB_W0@Z ENDP ; Palmtree::Math::Core::Internal::InternalErrorException::InternalErrorException
_TEXT	ENDS
;	COMDAT text$x
text$x	SEGMENT
$T1 = 200
this$ = 256
message$ = 264
data$ = 272
?dtor$0@?0???0InternalErrorException@Internal@Core@Math@Palmtree@@QEAA@PEB_W0@Z@4HA PROC ; `Palmtree::Math::Core::Internal::InternalErrorException::InternalErrorException'::`1'::dtor$0
  00000	48 89 4c 24 08	 mov	 QWORD PTR [rsp+8], rcx
  00005	48 89 54 24 10	 mov	 QWORD PTR [rsp+16], rdx
  0000a	55		 push	 rbp
  0000b	57		 push	 rdi
  0000c	48 83 ec 28	 sub	 rsp, 40			; 00000028H
  00010	48 8d 6a 20	 lea	 rbp, QWORD PTR [rdx+32]
  00014	48 8b 8d 00 01
	00 00		 mov	 rcx, QWORD PTR this$[rbp]
  0001b	e8 00 00 00 00	 call	 ??1Exception@Internal@Core@Math@Palmtree@@UEAA@XZ ; Palmtree::Math::Core::Internal::Exception::~Exception
  00020	48 83 c4 28	 add	 rsp, 40			; 00000028H
  00024	5f		 pop	 rdi
  00025	5d		 pop	 rbp
  00026	c3		 ret	 0
?dtor$0@?0???0InternalErrorException@Internal@Core@Math@Palmtree@@QEAA@PEB_W0@Z@4HA ENDP ; `Palmtree::Math::Core::Internal::InternalErrorException::InternalErrorException'::`1'::dtor$0
text$x	ENDS
; Function compile flags: /Odtp /RTCsu /ZI
;	COMDAT text$x
text$x	SEGMENT
$T1 = 200
this$ = 256
message$ = 264
data$ = 272
?dtor$0@?0???0InternalErrorException@Internal@Core@Math@Palmtree@@QEAA@PEB_W0@Z@4HA PROC ; `Palmtree::Math::Core::Internal::InternalErrorException::InternalErrorException'::`1'::dtor$0
  00000	48 89 4c 24 08	 mov	 QWORD PTR [rsp+8], rcx
  00005	48 89 54 24 10	 mov	 QWORD PTR [rsp+16], rdx
  0000a	55		 push	 rbp
  0000b	57		 push	 rdi
  0000c	48 83 ec 28	 sub	 rsp, 40			; 00000028H
  00010	48 8d 6a 20	 lea	 rbp, QWORD PTR [rdx+32]
  00014	48 8b 8d 00 01
	00 00		 mov	 rcx, QWORD PTR this$[rbp]
  0001b	e8 00 00 00 00	 call	 ??1Exception@Internal@Core@Math@Palmtree@@UEAA@XZ ; Palmtree::Math::Core::Internal::Exception::~Exception
  00020	48 83 c4 28	 add	 rsp, 40			; 00000028H
  00024	5f		 pop	 rdi
  00025	5d		 pop	 rbp
  00026	c3		 ret	 0
?dtor$0@?0???0InternalErrorException@Internal@Core@Math@Palmtree@@QEAA@PEB_W0@Z@4HA ENDP ; `Palmtree::Math::Core::Internal::InternalErrorException::InternalErrorException'::`1'::dtor$0
text$x	ENDS
; Function compile flags: /Odtp /RTCsu /ZI
;	COMDAT ??_GOverflowException@Internal@Core@Math@Palmtree@@UEAAPEAXI@Z
_TEXT	SEGMENT
this$ = 224
__flags$ = 232
??_GOverflowException@Internal@Core@Math@Palmtree@@UEAAPEAXI@Z PROC ; Palmtree::Math::Core::Internal::OverflowException::`scalar deleting destructor', COMDAT
$LN4:
  00000	89 54 24 10	 mov	 DWORD PTR [rsp+16], edx
  00004	48 89 4c 24 08	 mov	 QWORD PTR [rsp+8], rcx
  00009	55		 push	 rbp
  0000a	57		 push	 rdi
  0000b	48 81 ec e8 00
	00 00		 sub	 rsp, 232		; 000000e8H
  00012	48 8d 6c 24 20	 lea	 rbp, QWORD PTR [rsp+32]
  00017	48 8b fc	 mov	 rdi, rsp
  0001a	b9 3a 00 00 00	 mov	 ecx, 58			; 0000003aH
  0001f	b8 cc cc cc cc	 mov	 eax, -858993460		; ccccccccH
  00024	f3 ab		 rep stosd
  00026	48 8b 8c 24 08
	01 00 00	 mov	 rcx, QWORD PTR [rsp+264]
  0002e	48 8b 8d e0 00
	00 00		 mov	 rcx, QWORD PTR this$[rbp]
  00035	e8 00 00 00 00	 call	 ??1OverflowException@Internal@Core@Math@Palmtree@@UEAA@XZ ; Palmtree::Math::Core::Internal::OverflowException::~OverflowException
  0003a	8b 85 e8 00 00
	00		 mov	 eax, DWORD PTR __flags$[rbp]
  00040	83 e0 01	 and	 eax, 1
  00043	85 c0		 test	 eax, eax
  00045	74 11		 je	 SHORT $LN2@scalar
  00047	ba 30 00 00 00	 mov	 edx, 48			; 00000030H
  0004c	48 8b 8d e0 00
	00 00		 mov	 rcx, QWORD PTR this$[rbp]
  00053	e8 00 00 00 00	 call	 ??3@YAXPEAX_K@Z		; operator delete
$LN2@scalar:
  00058	48 8b 85 e0 00
	00 00		 mov	 rax, QWORD PTR this$[rbp]
  0005f	48 8d a5 c8 00
	00 00		 lea	 rsp, QWORD PTR [rbp+200]
  00066	5f		 pop	 rdi
  00067	5d		 pop	 rbp
  00068	c3		 ret	 0
??_GOverflowException@Internal@Core@Math@Palmtree@@UEAAPEAXI@Z ENDP ; Palmtree::Math::Core::Internal::OverflowException::`scalar deleting destructor'
_TEXT	ENDS
; Function compile flags: /Odtp /RTCsu /ZI
; File z:\sources\lunor\repos\rougemeilland\palmtree.math.core.uint\palmtree.math.core.uint\pmc_exception.h
;	COMDAT ??1OverflowException@Internal@Core@Math@Palmtree@@UEAA@XZ
_TEXT	SEGMENT
$T1 = 200
this$ = 256
??1OverflowException@Internal@Core@Math@Palmtree@@UEAA@XZ PROC ; Palmtree::Math::Core::Internal::OverflowException::~OverflowException, COMDAT

; 162  :         {

$LN4:
  00000	48 89 4c 24 08	 mov	 QWORD PTR [rsp+8], rcx
  00005	55		 push	 rbp
  00006	57		 push	 rdi
  00007	48 81 ec 08 01
	00 00		 sub	 rsp, 264		; 00000108H
  0000e	48 8d 6c 24 20	 lea	 rbp, QWORD PTR [rsp+32]
  00013	48 8b fc	 mov	 rdi, rsp
  00016	b9 42 00 00 00	 mov	 ecx, 66			; 00000042H
  0001b	b8 cc cc cc cc	 mov	 eax, -858993460		; ccccccccH
  00020	f3 ab		 rep stosd
  00022	48 8b 8c 24 28
	01 00 00	 mov	 rcx, QWORD PTR [rsp+296]
  0002a	48 c7 85 c8 00
	00 00 fe ff ff
	ff		 mov	 QWORD PTR $T1[rbp], -2
  00035	48 8d 0d 00 00
	00 00		 lea	 rcx, OFFSET FLAT:__802FEEC0_pmc_exception@h
  0003c	e8 00 00 00 00	 call	 __CheckForDebuggerJustMyCode
  00041	90		 npad	 1
  00042	48 8b 85 00 01
	00 00		 mov	 rax, QWORD PTR this$[rbp]
  00049	48 8d 0d 00 00
	00 00		 lea	 rcx, OFFSET FLAT:??_7OverflowException@Internal@Core@Math@Palmtree@@6B@
  00050	48 89 08	 mov	 QWORD PTR [rax], rcx

; 163  :         }

  00053	48 8b 8d 00 01
	00 00		 mov	 rcx, QWORD PTR this$[rbp]
  0005a	e8 00 00 00 00	 call	 ??1Exception@Internal@Core@Math@Palmtree@@UEAA@XZ ; Palmtree::Math::Core::Internal::Exception::~Exception
  0005f	90		 npad	 1
  00060	48 8d a5 e8 00
	00 00		 lea	 rsp, QWORD PTR [rbp+232]
  00067	5f		 pop	 rdi
  00068	5d		 pop	 rbp
  00069	c3		 ret	 0
??1OverflowException@Internal@Core@Math@Palmtree@@UEAA@XZ ENDP ; Palmtree::Math::Core::Internal::OverflowException::~OverflowException
_TEXT	ENDS
;	COMDAT text$x
text$x	SEGMENT
$T1 = 200
this$ = 256
?dtor$0@?0???1OverflowException@Internal@Core@Math@Palmtree@@UEAA@XZ@4HA PROC ; `Palmtree::Math::Core::Internal::OverflowException::~OverflowException'::`1'::dtor$0
  00000	48 89 4c 24 08	 mov	 QWORD PTR [rsp+8], rcx
  00005	48 89 54 24 10	 mov	 QWORD PTR [rsp+16], rdx
  0000a	55		 push	 rbp
  0000b	57		 push	 rdi
  0000c	48 83 ec 28	 sub	 rsp, 40			; 00000028H
  00010	48 8d 6a 20	 lea	 rbp, QWORD PTR [rdx+32]
  00014	48 8b 8d 00 01
	00 00		 mov	 rcx, QWORD PTR this$[rbp]
  0001b	e8 00 00 00 00	 call	 ??1Exception@Internal@Core@Math@Palmtree@@UEAA@XZ ; Palmtree::Math::Core::Internal::Exception::~Exception
  00020	48 83 c4 28	 add	 rsp, 40			; 00000028H
  00024	5f		 pop	 rdi
  00025	5d		 pop	 rbp
  00026	c3		 ret	 0
?dtor$0@?0???1OverflowException@Internal@Core@Math@Palmtree@@UEAA@XZ@4HA ENDP ; `Palmtree::Math::Core::Internal::OverflowException::~OverflowException'::`1'::dtor$0
text$x	ENDS
; Function compile flags: /Odtp /RTCsu /ZI
;	COMDAT text$x
text$x	SEGMENT
$T1 = 200
this$ = 256
?dtor$0@?0???1OverflowException@Internal@Core@Math@Palmtree@@UEAA@XZ@4HA PROC ; `Palmtree::Math::Core::Internal::OverflowException::~OverflowException'::`1'::dtor$0
  00000	48 89 4c 24 08	 mov	 QWORD PTR [rsp+8], rcx
  00005	48 89 54 24 10	 mov	 QWORD PTR [rsp+16], rdx
  0000a	55		 push	 rbp
  0000b	57		 push	 rdi
  0000c	48 83 ec 28	 sub	 rsp, 40			; 00000028H
  00010	48 8d 6a 20	 lea	 rbp, QWORD PTR [rdx+32]
  00014	48 8b 8d 00 01
	00 00		 mov	 rcx, QWORD PTR this$[rbp]
  0001b	e8 00 00 00 00	 call	 ??1Exception@Internal@Core@Math@Palmtree@@UEAA@XZ ; Palmtree::Math::Core::Internal::Exception::~Exception
  00020	48 83 c4 28	 add	 rsp, 40			; 00000028H
  00024	5f		 pop	 rdi
  00025	5d		 pop	 rbp
  00026	c3		 ret	 0
?dtor$0@?0???1OverflowException@Internal@Core@Math@Palmtree@@UEAA@XZ@4HA ENDP ; `Palmtree::Math::Core::Internal::OverflowException::~OverflowException'::`1'::dtor$0
text$x	ENDS
; Function compile flags: /Odtp /RTCsu /ZI
; File z:\sources\lunor\repos\rougemeilland\palmtree.math.core.uint\palmtree.math.core.uint\pmc_exception.h
;	COMDAT ??0OverflowException@Internal@Core@Math@Palmtree@@QEAA@AEBV01234@@Z
_TEXT	SEGMENT
$T1 = 200
this$ = 256
p$ = 264
??0OverflowException@Internal@Core@Math@Palmtree@@QEAA@AEBV01234@@Z PROC ; Palmtree::Math::Core::Internal::OverflowException::OverflowException, COMDAT

; 158  :         {

$LN4:
  00000	48 89 54 24 10	 mov	 QWORD PTR [rsp+16], rdx
  00005	48 89 4c 24 08	 mov	 QWORD PTR [rsp+8], rcx
  0000a	55		 push	 rbp
  0000b	57		 push	 rdi
  0000c	48 81 ec 08 01
	00 00		 sub	 rsp, 264		; 00000108H
  00013	48 8d 6c 24 20	 lea	 rbp, QWORD PTR [rsp+32]
  00018	48 8b fc	 mov	 rdi, rsp
  0001b	b9 42 00 00 00	 mov	 ecx, 66			; 00000042H
  00020	b8 cc cc cc cc	 mov	 eax, -858993460		; ccccccccH
  00025	f3 ab		 rep stosd
  00027	48 8b 8c 24 28
	01 00 00	 mov	 rcx, QWORD PTR [rsp+296]
  0002f	48 c7 85 c8 00
	00 00 fe ff ff
	ff		 mov	 QWORD PTR $T1[rbp], -2
  0003a	48 8d 0d 00 00
	00 00		 lea	 rcx, OFFSET FLAT:__802FEEC0_pmc_exception@h
  00041	e8 00 00 00 00	 call	 __CheckForDebuggerJustMyCode
  00046	90		 npad	 1

; 157  :             : Exception(p)

  00047	48 8b 95 08 01
	00 00		 mov	 rdx, QWORD PTR p$[rbp]
  0004e	48 8b 8d 00 01
	00 00		 mov	 rcx, QWORD PTR this$[rbp]
  00055	e8 00 00 00 00	 call	 ??0Exception@Internal@Core@Math@Palmtree@@QEAA@AEBV01234@@Z ; Palmtree::Math::Core::Internal::Exception::Exception
  0005a	90		 npad	 1

; 158  :         {

  0005b	48 8b 85 00 01
	00 00		 mov	 rax, QWORD PTR this$[rbp]
  00062	48 8d 0d 00 00
	00 00		 lea	 rcx, OFFSET FLAT:??_7OverflowException@Internal@Core@Math@Palmtree@@6B@
  00069	48 89 08	 mov	 QWORD PTR [rax], rcx

; 159  :         }

  0006c	48 8b 85 00 01
	00 00		 mov	 rax, QWORD PTR this$[rbp]
  00073	48 8d a5 e8 00
	00 00		 lea	 rsp, QWORD PTR [rbp+232]
  0007a	5f		 pop	 rdi
  0007b	5d		 pop	 rbp
  0007c	c3		 ret	 0
??0OverflowException@Internal@Core@Math@Palmtree@@QEAA@AEBV01234@@Z ENDP ; Palmtree::Math::Core::Internal::OverflowException::OverflowException
_TEXT	ENDS
;	COMDAT text$x
text$x	SEGMENT
$T1 = 200
this$ = 256
p$ = 264
?dtor$0@?0???0OverflowException@Internal@Core@Math@Palmtree@@QEAA@AEBV01234@@Z@4HA PROC ; `Palmtree::Math::Core::Internal::OverflowException::OverflowException'::`1'::dtor$0
  00000	48 89 4c 24 08	 mov	 QWORD PTR [rsp+8], rcx
  00005	48 89 54 24 10	 mov	 QWORD PTR [rsp+16], rdx
  0000a	55		 push	 rbp
  0000b	57		 push	 rdi
  0000c	48 83 ec 28	 sub	 rsp, 40			; 00000028H
  00010	48 8d 6a 20	 lea	 rbp, QWORD PTR [rdx+32]
  00014	48 8b 8d 00 01
	00 00		 mov	 rcx, QWORD PTR this$[rbp]
  0001b	e8 00 00 00 00	 call	 ??1Exception@Internal@Core@Math@Palmtree@@UEAA@XZ ; Palmtree::Math::Core::Internal::Exception::~Exception
  00020	48 83 c4 28	 add	 rsp, 40			; 00000028H
  00024	5f		 pop	 rdi
  00025	5d		 pop	 rbp
  00026	c3		 ret	 0
?dtor$0@?0???0OverflowException@Internal@Core@Math@Palmtree@@QEAA@AEBV01234@@Z@4HA ENDP ; `Palmtree::Math::Core::Internal::OverflowException::OverflowException'::`1'::dtor$0
text$x	ENDS
; Function compile flags: /Odtp /RTCsu /ZI
;	COMDAT text$x
text$x	SEGMENT
$T1 = 200
this$ = 256
p$ = 264
?dtor$0@?0???0OverflowException@Internal@Core@Math@Palmtree@@QEAA@AEBV01234@@Z@4HA PROC ; `Palmtree::Math::Core::Internal::OverflowException::OverflowException'::`1'::dtor$0
  00000	48 89 4c 24 08	 mov	 QWORD PTR [rsp+8], rcx
  00005	48 89 54 24 10	 mov	 QWORD PTR [rsp+16], rdx
  0000a	55		 push	 rbp
  0000b	57		 push	 rdi
  0000c	48 83 ec 28	 sub	 rsp, 40			; 00000028H
  00010	48 8d 6a 20	 lea	 rbp, QWORD PTR [rdx+32]
  00014	48 8b 8d 00 01
	00 00		 mov	 rcx, QWORD PTR this$[rbp]
  0001b	e8 00 00 00 00	 call	 ??1Exception@Internal@Core@Math@Palmtree@@UEAA@XZ ; Palmtree::Math::Core::Internal::Exception::~Exception
  00020	48 83 c4 28	 add	 rsp, 40			; 00000028H
  00024	5f		 pop	 rdi
  00025	5d		 pop	 rbp
  00026	c3		 ret	 0
?dtor$0@?0???0OverflowException@Internal@Core@Math@Palmtree@@QEAA@AEBV01234@@Z@4HA ENDP ; `Palmtree::Math::Core::Internal::OverflowException::OverflowException'::`1'::dtor$0
text$x	ENDS
; Function compile flags: /Odtp /RTCsu /ZI
; File z:\sources\lunor\repos\rougemeilland\palmtree.math.core.uint\palmtree.math.core.uint\pmc_exception.h
;	COMDAT ??0OverflowException@Internal@Core@Math@Palmtree@@QEAA@PEB_W@Z
_TEXT	SEGMENT
$T1 = 200
this$ = 256
message$ = 264
??0OverflowException@Internal@Core@Math@Palmtree@@QEAA@PEB_W@Z PROC ; Palmtree::Math::Core::Internal::OverflowException::OverflowException, COMDAT

; 153  :         {

$LN4:
  00000	48 89 54 24 10	 mov	 QWORD PTR [rsp+16], rdx
  00005	48 89 4c 24 08	 mov	 QWORD PTR [rsp+8], rcx
  0000a	55		 push	 rbp
  0000b	57		 push	 rdi
  0000c	48 81 ec 08 01
	00 00		 sub	 rsp, 264		; 00000108H
  00013	48 8d 6c 24 20	 lea	 rbp, QWORD PTR [rsp+32]
  00018	48 8b fc	 mov	 rdi, rsp
  0001b	b9 42 00 00 00	 mov	 ecx, 66			; 00000042H
  00020	b8 cc cc cc cc	 mov	 eax, -858993460		; ccccccccH
  00025	f3 ab		 rep stosd
  00027	48 8b 8c 24 28
	01 00 00	 mov	 rcx, QWORD PTR [rsp+296]
  0002f	48 c7 85 c8 00
	00 00 fe ff ff
	ff		 mov	 QWORD PTR $T1[rbp], -2
  0003a	48 8d 0d 00 00
	00 00		 lea	 rcx, OFFSET FLAT:__802FEEC0_pmc_exception@h
  00041	e8 00 00 00 00	 call	 __CheckForDebuggerJustMyCode
  00046	90		 npad	 1

; 152  :             : Exception(PMC_STATUS_OVERFLOW, message)

  00047	4c 8b 85 08 01
	00 00		 mov	 r8, QWORD PTR message$[rbp]
  0004e	ba fc ff ff ff	 mov	 edx, -4
  00053	48 8b 8d 00 01
	00 00		 mov	 rcx, QWORD PTR this$[rbp]
  0005a	e8 00 00 00 00	 call	 ??0Exception@Internal@Core@Math@Palmtree@@IEAA@HPEB_W@Z ; Palmtree::Math::Core::Internal::Exception::Exception
  0005f	90		 npad	 1

; 153  :         {

  00060	48 8b 85 00 01
	00 00		 mov	 rax, QWORD PTR this$[rbp]
  00067	48 8d 0d 00 00
	00 00		 lea	 rcx, OFFSET FLAT:??_7OverflowException@Internal@Core@Math@Palmtree@@6B@
  0006e	48 89 08	 mov	 QWORD PTR [rax], rcx

; 154  :         }

  00071	48 8b 85 00 01
	00 00		 mov	 rax, QWORD PTR this$[rbp]
  00078	48 8d a5 e8 00
	00 00		 lea	 rsp, QWORD PTR [rbp+232]
  0007f	5f		 pop	 rdi
  00080	5d		 pop	 rbp
  00081	c3		 ret	 0
??0OverflowException@Internal@Core@Math@Palmtree@@QEAA@PEB_W@Z ENDP ; Palmtree::Math::Core::Internal::OverflowException::OverflowException
_TEXT	ENDS
;	COMDAT text$x
text$x	SEGMENT
$T1 = 200
this$ = 256
message$ = 264
?dtor$0@?0???0OverflowException@Internal@Core@Math@Palmtree@@QEAA@PEB_W@Z@4HA PROC ; `Palmtree::Math::Core::Internal::OverflowException::OverflowException'::`1'::dtor$0
  00000	48 89 4c 24 08	 mov	 QWORD PTR [rsp+8], rcx
  00005	48 89 54 24 10	 mov	 QWORD PTR [rsp+16], rdx
  0000a	55		 push	 rbp
  0000b	57		 push	 rdi
  0000c	48 83 ec 28	 sub	 rsp, 40			; 00000028H
  00010	48 8d 6a 20	 lea	 rbp, QWORD PTR [rdx+32]
  00014	48 8b 8d 00 01
	00 00		 mov	 rcx, QWORD PTR this$[rbp]
  0001b	e8 00 00 00 00	 call	 ??1Exception@Internal@Core@Math@Palmtree@@UEAA@XZ ; Palmtree::Math::Core::Internal::Exception::~Exception
  00020	48 83 c4 28	 add	 rsp, 40			; 00000028H
  00024	5f		 pop	 rdi
  00025	5d		 pop	 rbp
  00026	c3		 ret	 0
?dtor$0@?0???0OverflowException@Internal@Core@Math@Palmtree@@QEAA@PEB_W@Z@4HA ENDP ; `Palmtree::Math::Core::Internal::OverflowException::OverflowException'::`1'::dtor$0
text$x	ENDS
; Function compile flags: /Odtp /RTCsu /ZI
;	COMDAT text$x
text$x	SEGMENT
$T1 = 200
this$ = 256
message$ = 264
?dtor$0@?0???0OverflowException@Internal@Core@Math@Palmtree@@QEAA@PEB_W@Z@4HA PROC ; `Palmtree::Math::Core::Internal::OverflowException::OverflowException'::`1'::dtor$0
  00000	48 89 4c 24 08	 mov	 QWORD PTR [rsp+8], rcx
  00005	48 89 54 24 10	 mov	 QWORD PTR [rsp+16], rdx
  0000a	55		 push	 rbp
  0000b	57		 push	 rdi
  0000c	48 83 ec 28	 sub	 rsp, 40			; 00000028H
  00010	48 8d 6a 20	 lea	 rbp, QWORD PTR [rdx+32]
  00014	48 8b 8d 00 01
	00 00		 mov	 rcx, QWORD PTR this$[rbp]
  0001b	e8 00 00 00 00	 call	 ??1Exception@Internal@Core@Math@Palmtree@@UEAA@XZ ; Palmtree::Math::Core::Internal::Exception::~Exception
  00020	48 83 c4 28	 add	 rsp, 40			; 00000028H
  00024	5f		 pop	 rdi
  00025	5d		 pop	 rbp
  00026	c3		 ret	 0
?dtor$0@?0???0OverflowException@Internal@Core@Math@Palmtree@@QEAA@PEB_W@Z@4HA ENDP ; `Palmtree::Math::Core::Internal::OverflowException::OverflowException'::`1'::dtor$0
text$x	ENDS
; Function compile flags: /Odtp /RTCsu /ZI
;	COMDAT ??_GException@Internal@Core@Math@Palmtree@@UEAAPEAXI@Z
_TEXT	SEGMENT
this$ = 224
__flags$ = 232
??_GException@Internal@Core@Math@Palmtree@@UEAAPEAXI@Z PROC ; Palmtree::Math::Core::Internal::Exception::`scalar deleting destructor', COMDAT
$LN4:
  00000	89 54 24 10	 mov	 DWORD PTR [rsp+16], edx
  00004	48 89 4c 24 08	 mov	 QWORD PTR [rsp+8], rcx
  00009	55		 push	 rbp
  0000a	57		 push	 rdi
  0000b	48 81 ec e8 00
	00 00		 sub	 rsp, 232		; 000000e8H
  00012	48 8d 6c 24 20	 lea	 rbp, QWORD PTR [rsp+32]
  00017	48 8b fc	 mov	 rdi, rsp
  0001a	b9 3a 00 00 00	 mov	 ecx, 58			; 0000003aH
  0001f	b8 cc cc cc cc	 mov	 eax, -858993460		; ccccccccH
  00024	f3 ab		 rep stosd
  00026	48 8b 8c 24 08
	01 00 00	 mov	 rcx, QWORD PTR [rsp+264]
  0002e	48 8b 8d e0 00
	00 00		 mov	 rcx, QWORD PTR this$[rbp]
  00035	e8 00 00 00 00	 call	 ??1Exception@Internal@Core@Math@Palmtree@@UEAA@XZ ; Palmtree::Math::Core::Internal::Exception::~Exception
  0003a	8b 85 e8 00 00
	00		 mov	 eax, DWORD PTR __flags$[rbp]
  00040	83 e0 01	 and	 eax, 1
  00043	85 c0		 test	 eax, eax
  00045	74 11		 je	 SHORT $LN2@scalar
  00047	ba 30 00 00 00	 mov	 edx, 48			; 00000030H
  0004c	48 8b 8d e0 00
	00 00		 mov	 rcx, QWORD PTR this$[rbp]
  00053	e8 00 00 00 00	 call	 ??3@YAXPEAX_K@Z		; operator delete
$LN2@scalar:
  00058	48 8b 85 e0 00
	00 00		 mov	 rax, QWORD PTR this$[rbp]
  0005f	48 8d a5 c8 00
	00 00		 lea	 rsp, QWORD PTR [rbp+200]
  00066	5f		 pop	 rdi
  00067	5d		 pop	 rbp
  00068	c3		 ret	 0
??_GException@Internal@Core@Math@Palmtree@@UEAAPEAXI@Z ENDP ; Palmtree::Math::Core::Internal::Exception::`scalar deleting destructor'
_TEXT	ENDS
; Function compile flags: /Odtp /RTCsu /ZI
; File z:\sources\lunor\repos\rougemeilland\palmtree.math.core.uint\palmtree.math.core.uint\pmc_exception.h
;	COMDAT ??1Exception@Internal@Core@Math@Palmtree@@UEAA@XZ
_TEXT	SEGMENT
$T1 = 200
this$ = 256
??1Exception@Internal@Core@Math@Palmtree@@UEAA@XZ PROC	; Palmtree::Math::Core::Internal::Exception::~Exception, COMDAT

; 70   :         {

$LN4:
  00000	48 89 4c 24 08	 mov	 QWORD PTR [rsp+8], rcx
  00005	55		 push	 rbp
  00006	57		 push	 rdi
  00007	48 81 ec 08 01
	00 00		 sub	 rsp, 264		; 00000108H
  0000e	48 8d 6c 24 20	 lea	 rbp, QWORD PTR [rsp+32]
  00013	48 8b fc	 mov	 rdi, rsp
  00016	b9 42 00 00 00	 mov	 ecx, 66			; 00000042H
  0001b	b8 cc cc cc cc	 mov	 eax, -858993460		; ccccccccH
  00020	f3 ab		 rep stosd
  00022	48 8b 8c 24 28
	01 00 00	 mov	 rcx, QWORD PTR [rsp+296]
  0002a	48 c7 85 c8 00
	00 00 fe ff ff
	ff		 mov	 QWORD PTR $T1[rbp], -2
  00035	48 8d 0d 00 00
	00 00		 lea	 rcx, OFFSET FLAT:__802FEEC0_pmc_exception@h
  0003c	e8 00 00 00 00	 call	 __CheckForDebuggerJustMyCode
  00041	90		 npad	 1
  00042	48 8b 85 00 01
	00 00		 mov	 rax, QWORD PTR this$[rbp]
  00049	48 8d 0d 00 00
	00 00		 lea	 rcx, OFFSET FLAT:??_7Exception@Internal@Core@Math@Palmtree@@6B@
  00050	48 89 08	 mov	 QWORD PTR [rax], rcx

; 71   :         }

  00053	48 8b 8d 00 01
	00 00		 mov	 rcx, QWORD PTR this$[rbp]
  0005a	e8 00 00 00 00	 call	 ??1exception@std@@UEAA@XZ ; std::exception::~exception
  0005f	90		 npad	 1
  00060	48 8d a5 e8 00
	00 00		 lea	 rsp, QWORD PTR [rbp+232]
  00067	5f		 pop	 rdi
  00068	5d		 pop	 rbp
  00069	c3		 ret	 0
??1Exception@Internal@Core@Math@Palmtree@@UEAA@XZ ENDP	; Palmtree::Math::Core::Internal::Exception::~Exception
_TEXT	ENDS
;	COMDAT text$x
text$x	SEGMENT
$T1 = 200
this$ = 256
?dtor$0@?0???1Exception@Internal@Core@Math@Palmtree@@UEAA@XZ@4HA PROC ; `Palmtree::Math::Core::Internal::Exception::~Exception'::`1'::dtor$0
  00000	48 89 4c 24 08	 mov	 QWORD PTR [rsp+8], rcx
  00005	48 89 54 24 10	 mov	 QWORD PTR [rsp+16], rdx
  0000a	55		 push	 rbp
  0000b	57		 push	 rdi
  0000c	48 83 ec 28	 sub	 rsp, 40			; 00000028H
  00010	48 8d 6a 20	 lea	 rbp, QWORD PTR [rdx+32]
  00014	48 8b 8d 00 01
	00 00		 mov	 rcx, QWORD PTR this$[rbp]
  0001b	e8 00 00 00 00	 call	 ??1exception@std@@UEAA@XZ ; std::exception::~exception
  00020	48 83 c4 28	 add	 rsp, 40			; 00000028H
  00024	5f		 pop	 rdi
  00025	5d		 pop	 rbp
  00026	c3		 ret	 0
?dtor$0@?0???1Exception@Internal@Core@Math@Palmtree@@UEAA@XZ@4HA ENDP ; `Palmtree::Math::Core::Internal::Exception::~Exception'::`1'::dtor$0
text$x	ENDS
; Function compile flags: /Odtp /RTCsu /ZI
;	COMDAT text$x
text$x	SEGMENT
$T1 = 200
this$ = 256
?dtor$0@?0???1Exception@Internal@Core@Math@Palmtree@@UEAA@XZ@4HA PROC ; `Palmtree::Math::Core::Internal::Exception::~Exception'::`1'::dtor$0
  00000	48 89 4c 24 08	 mov	 QWORD PTR [rsp+8], rcx
  00005	48 89 54 24 10	 mov	 QWORD PTR [rsp+16], rdx
  0000a	55		 push	 rbp
  0000b	57		 push	 rdi
  0000c	48 83 ec 28	 sub	 rsp, 40			; 00000028H
  00010	48 8d 6a 20	 lea	 rbp, QWORD PTR [rdx+32]
  00014	48 8b 8d 00 01
	00 00		 mov	 rcx, QWORD PTR this$[rbp]
  0001b	e8 00 00 00 00	 call	 ??1exception@std@@UEAA@XZ ; std::exception::~exception
  00020	48 83 c4 28	 add	 rsp, 40			; 00000028H
  00024	5f		 pop	 rdi
  00025	5d		 pop	 rbp
  00026	c3		 ret	 0
?dtor$0@?0???1Exception@Internal@Core@Math@Palmtree@@UEAA@XZ@4HA ENDP ; `Palmtree::Math::Core::Internal::Exception::~Exception'::`1'::dtor$0
text$x	ENDS
; Function compile flags: /Odtp /RTCsu /ZI
; File z:\sources\lunor\repos\rougemeilland\palmtree.math.core.uint\palmtree.math.core.uint\pmc_exception.h
;	COMDAT ??0Exception@Internal@Core@Math@Palmtree@@QEAA@AEBV01234@@Z
_TEXT	SEGMENT
$T1 = 200
this$ = 256
p$ = 264
??0Exception@Internal@Core@Math@Palmtree@@QEAA@AEBV01234@@Z PROC ; Palmtree::Math::Core::Internal::Exception::Exception, COMDAT

; 62   :         Exception(const Exception& p) noexcept(true)

$LN4:
  00000	48 89 54 24 10	 mov	 QWORD PTR [rsp+16], rdx
  00005	48 89 4c 24 08	 mov	 QWORD PTR [rsp+8], rcx
  0000a	55		 push	 rbp
  0000b	57		 push	 rdi
  0000c	48 81 ec 08 01
	00 00		 sub	 rsp, 264		; 00000108H
  00013	48 8d 6c 24 20	 lea	 rbp, QWORD PTR [rsp+32]
  00018	48 8b fc	 mov	 rdi, rsp
  0001b	b9 42 00 00 00	 mov	 ecx, 66			; 00000042H
  00020	b8 cc cc cc cc	 mov	 eax, -858993460		; ccccccccH
  00025	f3 ab		 rep stosd
  00027	48 8b 8c 24 28
	01 00 00	 mov	 rcx, QWORD PTR [rsp+296]
  0002f	48 c7 85 c8 00
	00 00 fe ff ff
	ff		 mov	 QWORD PTR $T1[rbp], -2
  0003a	48 8d 0d 00 00
	00 00		 lea	 rcx, OFFSET FLAT:__802FEEC0_pmc_exception@h
  00041	e8 00 00 00 00	 call	 __CheckForDebuggerJustMyCode
  00046	90		 npad	 1
  00047	48 8b 8d 00 01
	00 00		 mov	 rcx, QWORD PTR this$[rbp]
  0004e	e8 00 00 00 00	 call	 ??0exception@std@@QEAA@XZ ; std::exception::exception
  00053	90		 npad	 1
  00054	48 8b 85 00 01
	00 00		 mov	 rax, QWORD PTR this$[rbp]
  0005b	48 8d 0d 00 00
	00 00		 lea	 rcx, OFFSET FLAT:??_7Exception@Internal@Core@Math@Palmtree@@6B@
  00062	48 89 08	 mov	 QWORD PTR [rax], rcx

; 63   :         {
; 64   :             _code = p._code;

  00065	48 8b 85 00 01
	00 00		 mov	 rax, QWORD PTR this$[rbp]
  0006c	48 8b 8d 08 01
	00 00		 mov	 rcx, QWORD PTR p$[rbp]
  00073	8b 49 18	 mov	 ecx, DWORD PTR [rcx+24]
  00076	89 48 18	 mov	 DWORD PTR [rax+24], ecx

; 65   :             _message = p._message;

  00079	48 8b 85 00 01
	00 00		 mov	 rax, QWORD PTR this$[rbp]
  00080	48 8b 8d 08 01
	00 00		 mov	 rcx, QWORD PTR p$[rbp]
  00087	48 8b 49 20	 mov	 rcx, QWORD PTR [rcx+32]
  0008b	48 89 48 20	 mov	 QWORD PTR [rax+32], rcx

; 66   :             _data = p._data;

  0008f	48 8b 85 00 01
	00 00		 mov	 rax, QWORD PTR this$[rbp]
  00096	48 8b 8d 08 01
	00 00		 mov	 rcx, QWORD PTR p$[rbp]
  0009d	48 8b 49 28	 mov	 rcx, QWORD PTR [rcx+40]
  000a1	48 89 48 28	 mov	 QWORD PTR [rax+40], rcx

; 67   :         }

  000a5	48 8b 85 00 01
	00 00		 mov	 rax, QWORD PTR this$[rbp]
  000ac	48 8d a5 e8 00
	00 00		 lea	 rsp, QWORD PTR [rbp+232]
  000b3	5f		 pop	 rdi
  000b4	5d		 pop	 rbp
  000b5	c3		 ret	 0
??0Exception@Internal@Core@Math@Palmtree@@QEAA@AEBV01234@@Z ENDP ; Palmtree::Math::Core::Internal::Exception::Exception
_TEXT	ENDS
;	COMDAT text$x
text$x	SEGMENT
$T1 = 200
this$ = 256
p$ = 264
?dtor$0@?0???0Exception@Internal@Core@Math@Palmtree@@QEAA@AEBV01234@@Z@4HA PROC ; `Palmtree::Math::Core::Internal::Exception::Exception'::`1'::dtor$0
  00000	48 89 4c 24 08	 mov	 QWORD PTR [rsp+8], rcx
  00005	48 89 54 24 10	 mov	 QWORD PTR [rsp+16], rdx
  0000a	55		 push	 rbp
  0000b	57		 push	 rdi
  0000c	48 83 ec 28	 sub	 rsp, 40			; 00000028H
  00010	48 8d 6a 20	 lea	 rbp, QWORD PTR [rdx+32]
  00014	48 8b 8d 00 01
	00 00		 mov	 rcx, QWORD PTR this$[rbp]
  0001b	e8 00 00 00 00	 call	 ??1exception@std@@UEAA@XZ ; std::exception::~exception
  00020	48 83 c4 28	 add	 rsp, 40			; 00000028H
  00024	5f		 pop	 rdi
  00025	5d		 pop	 rbp
  00026	c3		 ret	 0
?dtor$0@?0???0Exception@Internal@Core@Math@Palmtree@@QEAA@AEBV01234@@Z@4HA ENDP ; `Palmtree::Math::Core::Internal::Exception::Exception'::`1'::dtor$0
text$x	ENDS
; Function compile flags: /Odtp /RTCsu /ZI
;	COMDAT text$x
text$x	SEGMENT
$T1 = 200
this$ = 256
p$ = 264
?dtor$0@?0???0Exception@Internal@Core@Math@Palmtree@@QEAA@AEBV01234@@Z@4HA PROC ; `Palmtree::Math::Core::Internal::Exception::Exception'::`1'::dtor$0
  00000	48 89 4c 24 08	 mov	 QWORD PTR [rsp+8], rcx
  00005	48 89 54 24 10	 mov	 QWORD PTR [rsp+16], rdx
  0000a	55		 push	 rbp
  0000b	57		 push	 rdi
  0000c	48 83 ec 28	 sub	 rsp, 40			; 00000028H
  00010	48 8d 6a 20	 lea	 rbp, QWORD PTR [rdx+32]
  00014	48 8b 8d 00 01
	00 00		 mov	 rcx, QWORD PTR this$[rbp]
  0001b	e8 00 00 00 00	 call	 ??1exception@std@@UEAA@XZ ; std::exception::~exception
  00020	48 83 c4 28	 add	 rsp, 40			; 00000028H
  00024	5f		 pop	 rdi
  00025	5d		 pop	 rbp
  00026	c3		 ret	 0
?dtor$0@?0???0Exception@Internal@Core@Math@Palmtree@@QEAA@AEBV01234@@Z@4HA ENDP ; `Palmtree::Math::Core::Internal::Exception::Exception'::`1'::dtor$0
text$x	ENDS
; Function compile flags: /Odtp /RTCsu /ZI
; File z:\sources\lunor\repos\rougemeilland\palmtree.math.core.uint\palmtree.math.core.uint\pmc_exception.h
;	COMDAT ??0Exception@Internal@Core@Math@Palmtree@@IEAA@HPEB_W0@Z
_TEXT	SEGMENT
$T1 = 200
this$ = 256
code$ = 264
message$ = 272
data$ = 280
??0Exception@Internal@Core@Math@Palmtree@@IEAA@HPEB_W0@Z PROC ; Palmtree::Math::Core::Internal::Exception::Exception, COMDAT

; 54   :         Exception(PMC_STATUS_CODE code, const wchar_t* message, const wchar_t* data) noexcept(true)

$LN4:
  00000	4c 89 4c 24 20	 mov	 QWORD PTR [rsp+32], r9
  00005	4c 89 44 24 18	 mov	 QWORD PTR [rsp+24], r8
  0000a	89 54 24 10	 mov	 DWORD PTR [rsp+16], edx
  0000e	48 89 4c 24 08	 mov	 QWORD PTR [rsp+8], rcx
  00013	55		 push	 rbp
  00014	57		 push	 rdi
  00015	48 81 ec 08 01
	00 00		 sub	 rsp, 264		; 00000108H
  0001c	48 8d 6c 24 20	 lea	 rbp, QWORD PTR [rsp+32]
  00021	48 8b fc	 mov	 rdi, rsp
  00024	b9 42 00 00 00	 mov	 ecx, 66			; 00000042H
  00029	b8 cc cc cc cc	 mov	 eax, -858993460		; ccccccccH
  0002e	f3 ab		 rep stosd
  00030	48 8b 8c 24 28
	01 00 00	 mov	 rcx, QWORD PTR [rsp+296]
  00038	48 c7 85 c8 00
	00 00 fe ff ff
	ff		 mov	 QWORD PTR $T1[rbp], -2
  00043	48 8d 0d 00 00
	00 00		 lea	 rcx, OFFSET FLAT:__802FEEC0_pmc_exception@h
  0004a	e8 00 00 00 00	 call	 __CheckForDebuggerJustMyCode
  0004f	90		 npad	 1
  00050	48 8b 8d 00 01
	00 00		 mov	 rcx, QWORD PTR this$[rbp]
  00057	e8 00 00 00 00	 call	 ??0exception@std@@QEAA@XZ ; std::exception::exception
  0005c	90		 npad	 1
  0005d	48 8b 85 00 01
	00 00		 mov	 rax, QWORD PTR this$[rbp]
  00064	48 8d 0d 00 00
	00 00		 lea	 rcx, OFFSET FLAT:??_7Exception@Internal@Core@Math@Palmtree@@6B@
  0006b	48 89 08	 mov	 QWORD PTR [rax], rcx

; 55   :         {
; 56   :             _code = code;

  0006e	48 8b 85 00 01
	00 00		 mov	 rax, QWORD PTR this$[rbp]
  00075	8b 8d 08 01 00
	00		 mov	 ecx, DWORD PTR code$[rbp]
  0007b	89 48 18	 mov	 DWORD PTR [rax+24], ecx

; 57   :             _message = message;

  0007e	48 8b 85 00 01
	00 00		 mov	 rax, QWORD PTR this$[rbp]
  00085	48 8b 8d 10 01
	00 00		 mov	 rcx, QWORD PTR message$[rbp]
  0008c	48 89 48 20	 mov	 QWORD PTR [rax+32], rcx

; 58   :             _data = data;

  00090	48 8b 85 00 01
	00 00		 mov	 rax, QWORD PTR this$[rbp]
  00097	48 8b 8d 18 01
	00 00		 mov	 rcx, QWORD PTR data$[rbp]
  0009e	48 89 48 28	 mov	 QWORD PTR [rax+40], rcx

; 59   :         }

  000a2	48 8b 85 00 01
	00 00		 mov	 rax, QWORD PTR this$[rbp]
  000a9	48 8d a5 e8 00
	00 00		 lea	 rsp, QWORD PTR [rbp+232]
  000b0	5f		 pop	 rdi
  000b1	5d		 pop	 rbp
  000b2	c3		 ret	 0
??0Exception@Internal@Core@Math@Palmtree@@IEAA@HPEB_W0@Z ENDP ; Palmtree::Math::Core::Internal::Exception::Exception
_TEXT	ENDS
;	COMDAT text$x
text$x	SEGMENT
$T1 = 200
this$ = 256
code$ = 264
message$ = 272
data$ = 280
?dtor$0@?0???0Exception@Internal@Core@Math@Palmtree@@IEAA@HPEB_W0@Z@4HA PROC ; `Palmtree::Math::Core::Internal::Exception::Exception'::`1'::dtor$0
  00000	48 89 4c 24 08	 mov	 QWORD PTR [rsp+8], rcx
  00005	48 89 54 24 10	 mov	 QWORD PTR [rsp+16], rdx
  0000a	55		 push	 rbp
  0000b	57		 push	 rdi
  0000c	48 83 ec 28	 sub	 rsp, 40			; 00000028H
  00010	48 8d 6a 20	 lea	 rbp, QWORD PTR [rdx+32]
  00014	48 8b 8d 00 01
	00 00		 mov	 rcx, QWORD PTR this$[rbp]
  0001b	e8 00 00 00 00	 call	 ??1exception@std@@UEAA@XZ ; std::exception::~exception
  00020	48 83 c4 28	 add	 rsp, 40			; 00000028H
  00024	5f		 pop	 rdi
  00025	5d		 pop	 rbp
  00026	c3		 ret	 0
?dtor$0@?0???0Exception@Internal@Core@Math@Palmtree@@IEAA@HPEB_W0@Z@4HA ENDP ; `Palmtree::Math::Core::Internal::Exception::Exception'::`1'::dtor$0
text$x	ENDS
; Function compile flags: /Odtp /RTCsu /ZI
;	COMDAT text$x
text$x	SEGMENT
$T1 = 200
this$ = 256
code$ = 264
message$ = 272
data$ = 280
?dtor$0@?0???0Exception@Internal@Core@Math@Palmtree@@IEAA@HPEB_W0@Z@4HA PROC ; `Palmtree::Math::Core::Internal::Exception::Exception'::`1'::dtor$0
  00000	48 89 4c 24 08	 mov	 QWORD PTR [rsp+8], rcx
  00005	48 89 54 24 10	 mov	 QWORD PTR [rsp+16], rdx
  0000a	55		 push	 rbp
  0000b	57		 push	 rdi
  0000c	48 83 ec 28	 sub	 rsp, 40			; 00000028H
  00010	48 8d 6a 20	 lea	 rbp, QWORD PTR [rdx+32]
  00014	48 8b 8d 00 01
	00 00		 mov	 rcx, QWORD PTR this$[rbp]
  0001b	e8 00 00 00 00	 call	 ??1exception@std@@UEAA@XZ ; std::exception::~exception
  00020	48 83 c4 28	 add	 rsp, 40			; 00000028H
  00024	5f		 pop	 rdi
  00025	5d		 pop	 rbp
  00026	c3		 ret	 0
?dtor$0@?0???0Exception@Internal@Core@Math@Palmtree@@IEAA@HPEB_W0@Z@4HA ENDP ; `Palmtree::Math::Core::Internal::Exception::Exception'::`1'::dtor$0
text$x	ENDS
; Function compile flags: /Odtp /RTCsu /ZI
; File z:\sources\lunor\repos\rougemeilland\palmtree.math.core.uint\palmtree.math.core.uint\pmc_exception.h
;	COMDAT ??0Exception@Internal@Core@Math@Palmtree@@IEAA@HPEB_W@Z
_TEXT	SEGMENT
$T1 = 200
this$ = 256
code$ = 264
message$ = 272
??0Exception@Internal@Core@Math@Palmtree@@IEAA@HPEB_W@Z PROC ; Palmtree::Math::Core::Internal::Exception::Exception, COMDAT

; 47   :         Exception(PMC_STATUS_CODE code, const wchar_t* message) noexcept(true)

$LN4:
  00000	4c 89 44 24 18	 mov	 QWORD PTR [rsp+24], r8
  00005	89 54 24 10	 mov	 DWORD PTR [rsp+16], edx
  00009	48 89 4c 24 08	 mov	 QWORD PTR [rsp+8], rcx
  0000e	55		 push	 rbp
  0000f	57		 push	 rdi
  00010	48 81 ec 08 01
	00 00		 sub	 rsp, 264		; 00000108H
  00017	48 8d 6c 24 20	 lea	 rbp, QWORD PTR [rsp+32]
  0001c	48 8b fc	 mov	 rdi, rsp
  0001f	b9 42 00 00 00	 mov	 ecx, 66			; 00000042H
  00024	b8 cc cc cc cc	 mov	 eax, -858993460		; ccccccccH
  00029	f3 ab		 rep stosd
  0002b	48 8b 8c 24 28
	01 00 00	 mov	 rcx, QWORD PTR [rsp+296]
  00033	48 c7 85 c8 00
	00 00 fe ff ff
	ff		 mov	 QWORD PTR $T1[rbp], -2
  0003e	48 8d 0d 00 00
	00 00		 lea	 rcx, OFFSET FLAT:__802FEEC0_pmc_exception@h
  00045	e8 00 00 00 00	 call	 __CheckForDebuggerJustMyCode
  0004a	90		 npad	 1
  0004b	48 8b 8d 00 01
	00 00		 mov	 rcx, QWORD PTR this$[rbp]
  00052	e8 00 00 00 00	 call	 ??0exception@std@@QEAA@XZ ; std::exception::exception
  00057	90		 npad	 1
  00058	48 8b 85 00 01
	00 00		 mov	 rax, QWORD PTR this$[rbp]
  0005f	48 8d 0d 00 00
	00 00		 lea	 rcx, OFFSET FLAT:??_7Exception@Internal@Core@Math@Palmtree@@6B@
  00066	48 89 08	 mov	 QWORD PTR [rax], rcx

; 48   :         {
; 49   :             _code = code;

  00069	48 8b 85 00 01
	00 00		 mov	 rax, QWORD PTR this$[rbp]
  00070	8b 8d 08 01 00
	00		 mov	 ecx, DWORD PTR code$[rbp]
  00076	89 48 18	 mov	 DWORD PTR [rax+24], ecx

; 50   :             _message = message;

  00079	48 8b 85 00 01
	00 00		 mov	 rax, QWORD PTR this$[rbp]
  00080	48 8b 8d 10 01
	00 00		 mov	 rcx, QWORD PTR message$[rbp]
  00087	48 89 48 20	 mov	 QWORD PTR [rax+32], rcx

; 51   :             _data = nullptr;

  0008b	48 8b 85 00 01
	00 00		 mov	 rax, QWORD PTR this$[rbp]
  00092	48 c7 40 28 00
	00 00 00	 mov	 QWORD PTR [rax+40], 0

; 52   :         }

  0009a	48 8b 85 00 01
	00 00		 mov	 rax, QWORD PTR this$[rbp]
  000a1	48 8d a5 e8 00
	00 00		 lea	 rsp, QWORD PTR [rbp+232]
  000a8	5f		 pop	 rdi
  000a9	5d		 pop	 rbp
  000aa	c3		 ret	 0
??0Exception@Internal@Core@Math@Palmtree@@IEAA@HPEB_W@Z ENDP ; Palmtree::Math::Core::Internal::Exception::Exception
_TEXT	ENDS
;	COMDAT text$x
text$x	SEGMENT
$T1 = 200
this$ = 256
code$ = 264
message$ = 272
?dtor$0@?0???0Exception@Internal@Core@Math@Palmtree@@IEAA@HPEB_W@Z@4HA PROC ; `Palmtree::Math::Core::Internal::Exception::Exception'::`1'::dtor$0
  00000	48 89 4c 24 08	 mov	 QWORD PTR [rsp+8], rcx
  00005	48 89 54 24 10	 mov	 QWORD PTR [rsp+16], rdx
  0000a	55		 push	 rbp
  0000b	57		 push	 rdi
  0000c	48 83 ec 28	 sub	 rsp, 40			; 00000028H
  00010	48 8d 6a 20	 lea	 rbp, QWORD PTR [rdx+32]
  00014	48 8b 8d 00 01
	00 00		 mov	 rcx, QWORD PTR this$[rbp]
  0001b	e8 00 00 00 00	 call	 ??1exception@std@@UEAA@XZ ; std::exception::~exception
  00020	48 83 c4 28	 add	 rsp, 40			; 00000028H
  00024	5f		 pop	 rdi
  00025	5d		 pop	 rbp
  00026	c3		 ret	 0
?dtor$0@?0???0Exception@Internal@Core@Math@Palmtree@@IEAA@HPEB_W@Z@4HA ENDP ; `Palmtree::Math::Core::Internal::Exception::Exception'::`1'::dtor$0
text$x	ENDS
; Function compile flags: /Odtp /RTCsu /ZI
;	COMDAT text$x
text$x	SEGMENT
$T1 = 200
this$ = 256
code$ = 264
message$ = 272
?dtor$0@?0???0Exception@Internal@Core@Math@Palmtree@@IEAA@HPEB_W@Z@4HA PROC ; `Palmtree::Math::Core::Internal::Exception::Exception'::`1'::dtor$0
  00000	48 89 4c 24 08	 mov	 QWORD PTR [rsp+8], rcx
  00005	48 89 54 24 10	 mov	 QWORD PTR [rsp+16], rdx
  0000a	55		 push	 rbp
  0000b	57		 push	 rdi
  0000c	48 83 ec 28	 sub	 rsp, 40			; 00000028H
  00010	48 8d 6a 20	 lea	 rbp, QWORD PTR [rdx+32]
  00014	48 8b 8d 00 01
	00 00		 mov	 rcx, QWORD PTR this$[rbp]
  0001b	e8 00 00 00 00	 call	 ??1exception@std@@UEAA@XZ ; std::exception::~exception
  00020	48 83 c4 28	 add	 rsp, 40			; 00000028H
  00024	5f		 pop	 rdi
  00025	5d		 pop	 rbp
  00026	c3		 ret	 0
?dtor$0@?0???0Exception@Internal@Core@Math@Palmtree@@IEAA@HPEB_W@Z@4HA ENDP ; `Palmtree::Math::Core::Internal::Exception::Exception'::`1'::dtor$0
text$x	ENDS
; Function compile flags: /Odtp /RTCsu /ZI
;	COMDAT ??_Gexception@std@@UEAAPEAXI@Z
_TEXT	SEGMENT
this$ = 224
__flags$ = 232
??_Gexception@std@@UEAAPEAXI@Z PROC			; std::exception::`scalar deleting destructor', COMDAT
$LN4:
  00000	89 54 24 10	 mov	 DWORD PTR [rsp+16], edx
  00004	48 89 4c 24 08	 mov	 QWORD PTR [rsp+8], rcx
  00009	55		 push	 rbp
  0000a	57		 push	 rdi
  0000b	48 81 ec e8 00
	00 00		 sub	 rsp, 232		; 000000e8H
  00012	48 8d 6c 24 20	 lea	 rbp, QWORD PTR [rsp+32]
  00017	48 8b fc	 mov	 rdi, rsp
  0001a	b9 3a 00 00 00	 mov	 ecx, 58			; 0000003aH
  0001f	b8 cc cc cc cc	 mov	 eax, -858993460		; ccccccccH
  00024	f3 ab		 rep stosd
  00026	48 8b 8c 24 08
	01 00 00	 mov	 rcx, QWORD PTR [rsp+264]
  0002e	48 8b 8d e0 00
	00 00		 mov	 rcx, QWORD PTR this$[rbp]
  00035	e8 00 00 00 00	 call	 ??1exception@std@@UEAA@XZ ; std::exception::~exception
  0003a	8b 85 e8 00 00
	00		 mov	 eax, DWORD PTR __flags$[rbp]
  00040	83 e0 01	 and	 eax, 1
  00043	85 c0		 test	 eax, eax
  00045	74 11		 je	 SHORT $LN2@scalar
  00047	ba 18 00 00 00	 mov	 edx, 24
  0004c	48 8b 8d e0 00
	00 00		 mov	 rcx, QWORD PTR this$[rbp]
  00053	e8 00 00 00 00	 call	 ??3@YAXPEAX_K@Z		; operator delete
$LN2@scalar:
  00058	48 8b 85 e0 00
	00 00		 mov	 rax, QWORD PTR this$[rbp]
  0005f	48 8d a5 c8 00
	00 00		 lea	 rsp, QWORD PTR [rbp+200]
  00066	5f		 pop	 rdi
  00067	5d		 pop	 rbp
  00068	c3		 ret	 0
??_Gexception@std@@UEAAPEAXI@Z ENDP			; std::exception::`scalar deleting destructor'
_TEXT	ENDS
; Function compile flags: /Odtp /RTCsu /ZI
; File c:\program files (x86)\microsoft visual studio\2017\community\vc\tools\msvc\14.16.27023\include\vcruntime_exception.h
;	COMDAT ?what@exception@std@@UEBAPEBDXZ
_TEXT	SEGMENT
tv69 = 192
this$ = 240
?what@exception@std@@UEBAPEBDXZ PROC			; std::exception::what, COMDAT

; 90   :     {

$LN5:
  00000	48 89 4c 24 08	 mov	 QWORD PTR [rsp+8], rcx
  00005	55		 push	 rbp
  00006	57		 push	 rdi
  00007	48 81 ec f8 00
	00 00		 sub	 rsp, 248		; 000000f8H
  0000e	48 8d 6c 24 20	 lea	 rbp, QWORD PTR [rsp+32]
  00013	48 8b fc	 mov	 rdi, rsp
  00016	b9 3e 00 00 00	 mov	 ecx, 62			; 0000003eH
  0001b	b8 cc cc cc cc	 mov	 eax, -858993460		; ccccccccH
  00020	f3 ab		 rep stosd
  00022	48 8b 8c 24 18
	01 00 00	 mov	 rcx, QWORD PTR [rsp+280]
  0002a	48 8d 0d 00 00
	00 00		 lea	 rcx, OFFSET FLAT:__9BB4E194_vcruntime_exception@h
  00031	e8 00 00 00 00	 call	 __CheckForDebuggerJustMyCode

; 91   :         return _Data._What ? _Data._What : "Unknown exception";

  00036	48 8b 85 f0 00
	00 00		 mov	 rax, QWORD PTR this$[rbp]
  0003d	48 83 78 08 00	 cmp	 QWORD PTR [rax+8], 0
  00042	74 14		 je	 SHORT $LN3@what
  00044	48 8b 85 f0 00
	00 00		 mov	 rax, QWORD PTR this$[rbp]
  0004b	48 8b 40 08	 mov	 rax, QWORD PTR [rax+8]
  0004f	48 89 85 c0 00
	00 00		 mov	 QWORD PTR tv69[rbp], rax
  00056	eb 0e		 jmp	 SHORT $LN4@what
$LN3@what:
  00058	48 8d 05 00 00
	00 00		 lea	 rax, OFFSET FLAT:??_C@_0BC@EOODALEL@Unknown?5exception@
  0005f	48 89 85 c0 00
	00 00		 mov	 QWORD PTR tv69[rbp], rax
$LN4@what:
  00066	48 8b 85 c0 00
	00 00		 mov	 rax, QWORD PTR tv69[rbp]

; 92   :     }

  0006d	48 8d a5 d8 00
	00 00		 lea	 rsp, QWORD PTR [rbp+216]
  00074	5f		 pop	 rdi
  00075	5d		 pop	 rbp
  00076	c3		 ret	 0
?what@exception@std@@UEBAPEBDXZ ENDP			; std::exception::what
_TEXT	ENDS
; Function compile flags: /Odtp /RTCsu /ZI
; File c:\program files (x86)\microsoft visual studio\2017\community\vc\tools\msvc\14.16.27023\include\vcruntime_exception.h
;	COMDAT ??1exception@std@@UEAA@XZ
_TEXT	SEGMENT
$T1 = 200
this$ = 256
??1exception@std@@UEAA@XZ PROC				; std::exception::~exception, COMDAT

; 85   :     {

$LN3:
  00000	48 89 4c 24 08	 mov	 QWORD PTR [rsp+8], rcx
  00005	55		 push	 rbp
  00006	57		 push	 rdi
  00007	48 81 ec 08 01
	00 00		 sub	 rsp, 264		; 00000108H
  0000e	48 8d 6c 24 20	 lea	 rbp, QWORD PTR [rsp+32]
  00013	48 8b fc	 mov	 rdi, rsp
  00016	b9 42 00 00 00	 mov	 ecx, 66			; 00000042H
  0001b	b8 cc cc cc cc	 mov	 eax, -858993460		; ccccccccH
  00020	f3 ab		 rep stosd
  00022	48 8b 8c 24 28
	01 00 00	 mov	 rcx, QWORD PTR [rsp+296]
  0002a	48 c7 85 c8 00
	00 00 fe ff ff
	ff		 mov	 QWORD PTR $T1[rbp], -2
  00035	48 8d 0d 00 00
	00 00		 lea	 rcx, OFFSET FLAT:__9BB4E194_vcruntime_exception@h
  0003c	e8 00 00 00 00	 call	 __CheckForDebuggerJustMyCode
  00041	90		 npad	 1
  00042	48 8b 85 00 01
	00 00		 mov	 rax, QWORD PTR this$[rbp]
  00049	48 8d 0d 00 00
	00 00		 lea	 rcx, OFFSET FLAT:??_7exception@std@@6B@
  00050	48 89 08	 mov	 QWORD PTR [rax], rcx

; 86   :         __std_exception_destroy(&_Data);

  00053	48 8b 85 00 01
	00 00		 mov	 rax, QWORD PTR this$[rbp]
  0005a	48 83 c0 08	 add	 rax, 8
  0005e	48 8b c8	 mov	 rcx, rax
  00061	e8 00 00 00 00	 call	 __std_exception_destroy
  00066	90		 npad	 1

; 87   :     }

  00067	48 8d a5 e8 00
	00 00		 lea	 rsp, QWORD PTR [rbp+232]
  0006e	5f		 pop	 rdi
  0006f	5d		 pop	 rbp
  00070	c3		 ret	 0
??1exception@std@@UEAA@XZ ENDP				; std::exception::~exception
_TEXT	ENDS
; Function compile flags: /Odtp /RTCsu /ZI
; File c:\program files (x86)\microsoft visual studio\2017\community\vc\tools\msvc\14.16.27023\include\vcruntime_exception.h
;	COMDAT ??0exception@std@@QEAA@XZ
_TEXT	SEGMENT
$T1 = 200
this$ = 256
??0exception@std@@QEAA@XZ PROC				; std::exception::exception, COMDAT

; 50   :     {

$LN3:
  00000	48 89 4c 24 08	 mov	 QWORD PTR [rsp+8], rcx
  00005	55		 push	 rbp
  00006	57		 push	 rdi
  00007	48 81 ec 08 01
	00 00		 sub	 rsp, 264		; 00000108H
  0000e	48 8d 6c 24 20	 lea	 rbp, QWORD PTR [rsp+32]
  00013	48 8b fc	 mov	 rdi, rsp
  00016	b9 42 00 00 00	 mov	 ecx, 66			; 00000042H
  0001b	b8 cc cc cc cc	 mov	 eax, -858993460		; ccccccccH
  00020	f3 ab		 rep stosd
  00022	48 8b 8c 24 28
	01 00 00	 mov	 rcx, QWORD PTR [rsp+296]
  0002a	48 c7 85 c8 00
	00 00 fe ff ff
	ff		 mov	 QWORD PTR $T1[rbp], -2
  00035	48 8d 0d 00 00
	00 00		 lea	 rcx, OFFSET FLAT:__9BB4E194_vcruntime_exception@h
  0003c	e8 00 00 00 00	 call	 __CheckForDebuggerJustMyCode
  00041	90		 npad	 1
  00042	48 8b 85 00 01
	00 00		 mov	 rax, QWORD PTR this$[rbp]
  00049	48 8d 0d 00 00
	00 00		 lea	 rcx, OFFSET FLAT:??_7exception@std@@6B@
  00050	48 89 08	 mov	 QWORD PTR [rax], rcx

; 49   :         : _Data()

  00053	48 8b 85 00 01
	00 00		 mov	 rax, QWORD PTR this$[rbp]
  0005a	48 83 c0 08	 add	 rax, 8
  0005e	48 8b f8	 mov	 rdi, rax
  00061	33 c0		 xor	 eax, eax
  00063	b9 10 00 00 00	 mov	 ecx, 16
  00068	f3 aa		 rep stosb

; 51   :     }

  0006a	48 8b 85 00 01
	00 00		 mov	 rax, QWORD PTR this$[rbp]
  00071	48 8d a5 e8 00
	00 00		 lea	 rsp, QWORD PTR [rbp+232]
  00078	5f		 pop	 rdi
  00079	5d		 pop	 rbp
  0007a	c3		 ret	 0
??0exception@std@@QEAA@XZ ENDP				; std::exception::exception
_TEXT	ENDS
END
