; Listing generated by Microsoft (R) Optimizing Compiler Version 19.16.27027.1 

include listing.inc

INCLUDELIB MSVCRTD
INCLUDELIB OLDNAMES

msvcjmc	SEGMENT
__7B7A869E_ctype@h DB 01H
__457DD326_basetsd@h DB 01H
__4384A2D9_corecrt_memcpy_s@h DB 01H
__2088847F_corecrt_memory@h DB 01H
__4E51A221_corecrt_wstring@h DB 01H
__2140C079_string@h DB 01H
__E9FFF232_guiddef@h DB 01H
__1887E595_winnt@h DB 01H
__9FC7C64B_processthreadsapi@h DB 01H
__FA470AEC_memoryapi@h DB 01H
__F37DAFF1_winerror@h DB 01H
__7A450CCC_winbase@h DB 01H
__12AD47BB_winuser@h DB 01H
__B4B40122_winioctl@h DB 01H
__A73354DD_stdlib@h DB 01H
__25F3FB34_propidl@h DB 01H
__A40E48B8_oleauto@h DB 01H
__86261D59_stralign@h DB 01H
__2CC6E67D_corecrt_stdio_config@h DB 01H
__41381B41_corecrt_wconio@h DB 01H
__F0CC4AC4_corecrt_wio@h DB 01H
__05476D76_corecrt_wstdio@h DB 01H
__C0802A2B_corecrt_wtime@h DB 01H
__A40A425D_stat@h DB 01H
__5A74375D_wchar@h DB 01H
__6BC0FD35_vcruntime_new@h DB 01H
__77F53984_cstddef DB 01H
__188180DA_corecrt_math@h DB 01H
__D23EE329_cstdlib DB 01H
__5ECFF36E_type_traits DB 01H
__331E732B_malloc@h DB 01H
__9BB4E194_vcruntime_exception@h DB 01H
__7949CB39_exception DB 01H
__802FEEC0_pmc_exception@h DB 01H
__BB6D3116_pmc_uint_internal@h DB 01H
__1AB12E38_pmc_resourceholder@h DB 01H
__8CA3E54E_pmc_inline_func@h DB 01H
__E05E7037_autogenerated_inline_func@h DB 01H
__E17217E9_pmc_divrem@cpp DB 01H
msvcjmc	ENDS
PUBLIC	??0exception@std@@QEAA@XZ			; std::exception::exception
PUBLIC	??1exception@std@@UEAA@XZ			; std::exception::~exception
PUBLIC	?what@exception@std@@UEBAPEBDXZ			; std::exception::what
PUBLIC	??_Gexception@std@@UEAAPEAXI@Z			; std::exception::`scalar deleting destructor'
PUBLIC	??0Exception@Internal@Core@Math@Palmtree@@IEAA@HPEB_W@Z ; Palmtree::Math::Core::Internal::Exception::Exception
PUBLIC	??0Exception@Internal@Core@Math@Palmtree@@IEAA@HPEB_W0@Z ; Palmtree::Math::Core::Internal::Exception::Exception
PUBLIC	??0Exception@Internal@Core@Math@Palmtree@@QEAA@AEBV01234@@Z ; Palmtree::Math::Core::Internal::Exception::Exception
PUBLIC	??1Exception@Internal@Core@Math@Palmtree@@UEAA@XZ ; Palmtree::Math::Core::Internal::Exception::~Exception
PUBLIC	??_GException@Internal@Core@Math@Palmtree@@UEAAPEAXI@Z ; Palmtree::Math::Core::Internal::Exception::`scalar deleting destructor'
PUBLIC	??0ArgumentNullException@Internal@Core@Math@Palmtree@@QEAA@PEB_W0@Z ; Palmtree::Math::Core::Internal::ArgumentNullException::ArgumentNullException
PUBLIC	??0ArgumentNullException@Internal@Core@Math@Palmtree@@QEAA@AEBV01234@@Z ; Palmtree::Math::Core::Internal::ArgumentNullException::ArgumentNullException
PUBLIC	??1ArgumentNullException@Internal@Core@Math@Palmtree@@UEAA@XZ ; Palmtree::Math::Core::Internal::ArgumentNullException::~ArgumentNullException
PUBLIC	??_GArgumentNullException@Internal@Core@Math@Palmtree@@UEAAPEAXI@Z ; Palmtree::Math::Core::Internal::ArgumentNullException::`scalar deleting destructor'
PUBLIC	??0DivisionByZeroException@Internal@Core@Math@Palmtree@@QEAA@PEB_W@Z ; Palmtree::Math::Core::Internal::DivisionByZeroException::DivisionByZeroException
PUBLIC	??0DivisionByZeroException@Internal@Core@Math@Palmtree@@QEAA@AEBV01234@@Z ; Palmtree::Math::Core::Internal::DivisionByZeroException::DivisionByZeroException
PUBLIC	??1DivisionByZeroException@Internal@Core@Math@Palmtree@@UEAA@XZ ; Palmtree::Math::Core::Internal::DivisionByZeroException::~DivisionByZeroException
PUBLIC	??_GDivisionByZeroException@Internal@Core@Math@Palmtree@@UEAAPEAXI@Z ; Palmtree::Math::Core::Internal::DivisionByZeroException::`scalar deleting destructor'
PUBLIC	??0InternalErrorException@Internal@Core@Math@Palmtree@@QEAA@PEB_W0@Z ; Palmtree::Math::Core::Internal::InternalErrorException::InternalErrorException
PUBLIC	??0InternalErrorException@Internal@Core@Math@Palmtree@@QEAA@AEBV01234@@Z ; Palmtree::Math::Core::Internal::InternalErrorException::InternalErrorException
PUBLIC	??1InternalErrorException@Internal@Core@Math@Palmtree@@UEAA@XZ ; Palmtree::Math::Core::Internal::InternalErrorException::~InternalErrorException
PUBLIC	??_GInternalErrorException@Internal@Core@Math@Palmtree@@UEAAPEAXI@Z ; Palmtree::Math::Core::Internal::InternalErrorException::`scalar deleting destructor'
PUBLIC	?DivRem_X_1W@Internal@Core@Math@Palmtree@@YAXPEA_K_K100@Z ; Palmtree::Math::Core::Internal::DivRem_X_1W
PUBLIC	?Rem_X_1W@Internal@Core@Math@Palmtree@@YA_KPEA_K_K1@Z ; Palmtree::Math::Core::Internal::Rem_X_1W
PUBLIC	?DivRem_X_X@Internal@Core@Math@Palmtree@@YAXPEA_K_K01000@Z ; Palmtree::Math::Core::Internal::DivRem_X_X
PUBLIC	?Initialize_DivRem@Internal@Core@Math@Palmtree@@YAHPEAU_tag_PROCESSOR_FEATURES@1234@@Z ; Palmtree::Math::Core::Internal::Initialize_DivRem
PUBLIC	?PMC_DivRem_I_X@Internal@Core@Math@Palmtree@@YAIIPEAU__tag_PMC_HANDLE_UINT@1234@PEAI@Z ; Palmtree::Math::Core::Internal::PMC_DivRem_I_X
PUBLIC	?PMC_DivRem_L_X@Internal@Core@Math@Palmtree@@YA_K_KPEAU__tag_PMC_HANDLE_UINT@1234@PEA_K@Z ; Palmtree::Math::Core::Internal::PMC_DivRem_L_X
PUBLIC	?PMC_DivRem_X_I@Internal@Core@Math@Palmtree@@YAIPEAU__tag_PMC_HANDLE_UINT@1234@IPEAPEAU51234@@Z ; Palmtree::Math::Core::Internal::PMC_DivRem_X_I
PUBLIC	?PMC_DivRem_X_L@Internal@Core@Math@Palmtree@@YA_KPEAU__tag_PMC_HANDLE_UINT@1234@_KPEAPEAU51234@@Z ; Palmtree::Math::Core::Internal::PMC_DivRem_X_L
PUBLIC	?PMC_DivRem_X_X@Internal@Core@Math@Palmtree@@YAPEAU__tag_PMC_HANDLE_UINT@1234@PEAU51234@0PEAPEAU51234@@Z ; Palmtree::Math::Core::Internal::PMC_DivRem_X_X
PUBLIC	_DIVREM_UNIT
PUBLIC	_DIVREM_SINGLE_UNIT
PUBLIC	__JustMyCode_Default
PUBLIC	??_7exception@std@@6B@				; std::exception::`vftable'
PUBLIC	??_C@_0BC@EOODALEL@Unknown?5exception@		; `string'
PUBLIC	??_7Exception@Internal@Core@Math@Palmtree@@6B@	; Palmtree::Math::Core::Internal::Exception::`vftable'
PUBLIC	??_7ArgumentNullException@Internal@Core@Math@Palmtree@@6B@ ; Palmtree::Math::Core::Internal::ArgumentNullException::`vftable'
PUBLIC	??_7DivisionByZeroException@Internal@Core@Math@Palmtree@@6B@ ; Palmtree::Math::Core::Internal::DivisionByZeroException::`vftable'
PUBLIC	??_7InternalErrorException@Internal@Core@Math@Palmtree@@6B@ ; Palmtree::Math::Core::Internal::InternalErrorException::`vftable'
PUBLIC	_TI2?AVInternalErrorException@Internal@Core@Math@Palmtree@@
PUBLIC	_CTA2?AVInternalErrorException@Internal@Core@Math@Palmtree@@
PUBLIC	??_R0?AVInternalErrorException@Internal@Core@Math@Palmtree@@@8 ; Palmtree::Math::Core::Internal::InternalErrorException `RTTI Type Descriptor'
PUBLIC	_CT??_R0?AVInternalErrorException@Internal@Core@Math@Palmtree@@@8??0InternalErrorException@Internal@Core@Math@Palmtree@@QEAA@AEBV01234@@Z48
PUBLIC	??_R0?AVException@Internal@Core@Math@Palmtree@@@8 ; Palmtree::Math::Core::Internal::Exception `RTTI Type Descriptor'
PUBLIC	_CT??_R0?AVException@Internal@Core@Math@Palmtree@@@8??0Exception@Internal@Core@Math@Palmtree@@QEAA@AEBV01234@@Z48
PUBLIC	??_C@_1CG@CNOPPENL@?$PP?$II?$AA?$BP?$AAW?$AAf?$AAD?$AAj?$AAD?$PP?$LD?$PP?$PM?$PP?I?$AAk?$AA0?$AAT?$AAW?$AA?$HO@ ; `string'
PUBLIC	??_C@_1FC@LDEMEDOK@?$AAp?$AAm?$AAc?$AA_?$AAd?$AAi?$AAv?$AAr?$AAe?$AAm?$AA?4?$AAc?$AAp?$AAp?$AA?$DL@ ; `string'
PUBLIC	??_C@_1BM@FCPAHMHB@?$PP?$IF?$PP?h?$PP?$KI?$PP?i?$PP?$PM?$AAL?$AAz?$AA?$BP?$AAW?$AA?$HO?$AAW?$AA_?$AA?$AC@ ; `string'
PUBLIC	??_C@_1FC@KBPJOMAE@?$AAp?$AAm?$AAc?$AA_?$AAd?$AAi?$AAv?$AAr?$AAe?$AAm?$AA?4?$AAc?$AAp?$AAp?$AA?$DL@ ; `string'
PUBLIC	??_C@_1FC@BJEFILGB@?$AAp?$AAm?$AAc?$AA_?$AAd?$AAi?$AAv?$AAr?$AAe?$AAm?$AA?4?$AAc?$AAp?$AAp?$AA?$DL@ ; `string'
PUBLIC	??_C@_1FC@IEJCLDNI@?$AAp?$AAm?$AAc?$AA_?$AAd?$AAi?$AAv?$AAr?$AAe?$AAm?$AA?4?$AAc?$AAp?$AAp?$AA?$DL@ ; `string'
PUBLIC	??_C@_1FC@DMCONELN@?$AAp?$AAm?$AAc?$AA_?$AAd?$AAi?$AAv?$AAr?$AAe?$AAm?$AA?4?$AAc?$AAp?$AAp?$AA?$DL@ ; `string'
PUBLIC	??_C@_1FC@COJLHLFD@?$AAp?$AAm?$AAc?$AA_?$AAd?$AAi?$AAv?$AAr?$AAe?$AAm?$AA?4?$AAc?$AAp?$AAp?$AA?$DL@ ; `string'
PUBLIC	??_C@_1FC@JGCHBMDG@?$AAp?$AAm?$AAc?$AA_?$AAd?$AAi?$AAv?$AAr?$AAe?$AAm?$AA?4?$AAc?$AAp?$AAp?$AA?$DL@ ; `string'
PUBLIC	??_C@_1FC@MOEEAMGA@?$AAp?$AAm?$AAc?$AA_?$AAd?$AAi?$AAv?$AAr?$AAe?$AAm?$AA?4?$AAc?$AAp?$AAp?$AA?$DL@ ; `string'
PUBLIC	??_C@_1FC@EDOPPJEK@?$AAp?$AAm?$AAc?$AA_?$AAd?$AAi?$AAv?$AAr?$AAe?$AAm?$AA?4?$AAc?$AAp?$AAp?$AA?$DL@ ; `string'
PUBLIC	??_C@_1FC@NODIMBPD@?$AAp?$AAm?$AAc?$AA_?$AAd?$AAi?$AAv?$AAr?$AAe?$AAm?$AA?4?$AAc?$AAp?$AAp?$AA?$DL@ ; `string'
PUBLIC	??_C@_1FC@IGFLNBKF@?$AAp?$AAm?$AAc?$AA_?$AAd?$AAi?$AAv?$AAr?$AAe?$AAm?$AA?4?$AAc?$AAp?$AAp?$AA?$DL@ ; `string'
PUBLIC	??_C@_1FC@DOOHLGMA@?$AAp?$AAm?$AAc?$AA_?$AAd?$AAi?$AAv?$AAr?$AAe?$AAm?$AA?4?$AAc?$AAp?$AAp?$AA?$DL@ ; `string'
PUBLIC	??_C@_1EA@MCJPOPJG@?$AAp?$AAm?$AAc?$AA_?$AAd?$AAi?$AAv?$AAr?$AAe?$AAm?$AA?4?$AAc?$AAp?$AAp?$AA?$DL@ ; `string'
PUBLIC	_TI2?AVArgumentNullException@Internal@Core@Math@Palmtree@@
PUBLIC	_CTA2?AVArgumentNullException@Internal@Core@Math@Palmtree@@
PUBLIC	??_R0?AVArgumentNullException@Internal@Core@Math@Palmtree@@@8 ; Palmtree::Math::Core::Internal::ArgumentNullException `RTTI Type Descriptor'
PUBLIC	_CT??_R0?AVArgumentNullException@Internal@Core@Math@Palmtree@@@8??0ArgumentNullException@Internal@Core@Math@Palmtree@@QEAA@AEBV01234@@Z48
PUBLIC	??_C@_13JAOPNPKD@?$AAv@				; `string'
PUBLIC	??_C@_1CK@ECFIEPAC@?$AA?$BF?$AAp?$AAk?$AAn?$AAu?$AAl?$AAl?$AAp?$AAt?$AAr?$AAL?$AA?$AO?$AAH?$PP?$IJ?$PP?$IM@ ; `string'
PUBLIC	_TI2?AVDivisionByZeroException@Internal@Core@Math@Palmtree@@
PUBLIC	_CTA2?AVDivisionByZeroException@Internal@Core@Math@Palmtree@@
PUBLIC	??_R0?AVDivisionByZeroException@Internal@Core@Math@Palmtree@@@8 ; Palmtree::Math::Core::Internal::DivisionByZeroException `RTTI Type Descriptor'
PUBLIC	_CT??_R0?AVDivisionByZeroException@Internal@Core@Math@Palmtree@@@8??0DivisionByZeroException@Internal@Core@Math@Palmtree@@QEAA@AEBV01234@@Z48
PUBLIC	??_C@_1CG@BGDHBHIM@?$AA0?$AAk?$PP?$II?$PP?$IL?$AAd?$PP?$JH?$AAL?$AAL?$PP?$IP?$PP?$IM?$PP?$II?$AAF?$AAh?$AAW?$AA?$HO@ ; `string'
PUBLIC	??_C@_1EA@OFDDHPLA@?$AAp?$AAm?$AAc?$AA_?$AAd?$AAi?$AAv?$AAr?$AAe?$AAm?$AA?4?$AAc?$AAp?$AAp?$AA?$DL@ ; `string'
PUBLIC	??_C@_13ICFKHAEN@?$AAu@				; `string'
PUBLIC	??_C@_1EA@FKDMJIIG@?$AAp?$AAm?$AAc?$AA_?$AAd?$AAi?$AAv?$AAr?$AAe?$AAm?$AA?4?$AAc?$AAp?$AAp?$AA?$DL@ ; `string'
PUBLIC	??_C@_1EA@KNNDHBNE@?$AAp?$AAm?$AAc?$AA_?$AAd?$AAi?$AAv?$AAr?$AAe?$AAm?$AA?4?$AAc?$AAp?$AAp?$AA?$DL@ ; `string'
PUBLIC	??_R4exception@std@@6B@				; std::exception::`RTTI Complete Object Locator'
PUBLIC	??_R0?AVexception@std@@@8			; std::exception `RTTI Type Descriptor'
PUBLIC	??_R3exception@std@@8				; std::exception::`RTTI Class Hierarchy Descriptor'
PUBLIC	??_R2exception@std@@8				; std::exception::`RTTI Base Class Array'
PUBLIC	??_R1A@?0A@EA@exception@std@@8			; std::exception::`RTTI Base Class Descriptor at (0,-1,0,64)'
PUBLIC	??_R4Exception@Internal@Core@Math@Palmtree@@6B@	; Palmtree::Math::Core::Internal::Exception::`RTTI Complete Object Locator'
PUBLIC	??_R3Exception@Internal@Core@Math@Palmtree@@8	; Palmtree::Math::Core::Internal::Exception::`RTTI Class Hierarchy Descriptor'
PUBLIC	??_R2Exception@Internal@Core@Math@Palmtree@@8	; Palmtree::Math::Core::Internal::Exception::`RTTI Base Class Array'
PUBLIC	??_R1A@?0A@EA@Exception@Internal@Core@Math@Palmtree@@8 ; Palmtree::Math::Core::Internal::Exception::`RTTI Base Class Descriptor at (0,-1,0,64)'
PUBLIC	??_R1A@?0A@EN@exception@std@@8			; std::exception::`RTTI Base Class Descriptor at (0,-1,0,77)'
PUBLIC	??_R4ArgumentNullException@Internal@Core@Math@Palmtree@@6B@ ; Palmtree::Math::Core::Internal::ArgumentNullException::`RTTI Complete Object Locator'
PUBLIC	??_R3ArgumentNullException@Internal@Core@Math@Palmtree@@8 ; Palmtree::Math::Core::Internal::ArgumentNullException::`RTTI Class Hierarchy Descriptor'
PUBLIC	??_R2ArgumentNullException@Internal@Core@Math@Palmtree@@8 ; Palmtree::Math::Core::Internal::ArgumentNullException::`RTTI Base Class Array'
PUBLIC	??_R1A@?0A@EA@ArgumentNullException@Internal@Core@Math@Palmtree@@8 ; Palmtree::Math::Core::Internal::ArgumentNullException::`RTTI Base Class Descriptor at (0,-1,0,64)'
PUBLIC	??_R4DivisionByZeroException@Internal@Core@Math@Palmtree@@6B@ ; Palmtree::Math::Core::Internal::DivisionByZeroException::`RTTI Complete Object Locator'
PUBLIC	??_R3DivisionByZeroException@Internal@Core@Math@Palmtree@@8 ; Palmtree::Math::Core::Internal::DivisionByZeroException::`RTTI Class Hierarchy Descriptor'
PUBLIC	??_R2DivisionByZeroException@Internal@Core@Math@Palmtree@@8 ; Palmtree::Math::Core::Internal::DivisionByZeroException::`RTTI Base Class Array'
PUBLIC	??_R1A@?0A@EA@DivisionByZeroException@Internal@Core@Math@Palmtree@@8 ; Palmtree::Math::Core::Internal::DivisionByZeroException::`RTTI Base Class Descriptor at (0,-1,0,64)'
PUBLIC	??_R4InternalErrorException@Internal@Core@Math@Palmtree@@6B@ ; Palmtree::Math::Core::Internal::InternalErrorException::`RTTI Complete Object Locator'
PUBLIC	??_R3InternalErrorException@Internal@Core@Math@Palmtree@@8 ; Palmtree::Math::Core::Internal::InternalErrorException::`RTTI Class Hierarchy Descriptor'
PUBLIC	??_R2InternalErrorException@Internal@Core@Math@Palmtree@@8 ; Palmtree::Math::Core::Internal::InternalErrorException::`RTTI Base Class Array'
PUBLIC	??_R1A@?0A@EA@InternalErrorException@Internal@Core@Math@Palmtree@@8 ; Palmtree::Math::Core::Internal::InternalErrorException::`RTTI Base Class Descriptor at (0,-1,0,64)'
EXTRN	??3@YAXPEAX_K@Z:PROC				; operator delete
EXTRN	__std_exception_destroy:PROC
EXTRN	??_Eexception@std@@UEAAPEAXI@Z:PROC		; std::exception::`vector deleting destructor'
EXTRN	??_EException@Internal@Core@Math@Palmtree@@UEAAPEAXI@Z:PROC ; Palmtree::Math::Core::Internal::Exception::`vector deleting destructor'
EXTRN	??_EArgumentNullException@Internal@Core@Math@Palmtree@@UEAAPEAXI@Z:PROC ; Palmtree::Math::Core::Internal::ArgumentNullException::`vector deleting destructor'
EXTRN	??_EDivisionByZeroException@Internal@Core@Math@Palmtree@@UEAAPEAXI@Z:PROC ; Palmtree::Math::Core::Internal::DivisionByZeroException::`vector deleting destructor'
EXTRN	??_EInternalErrorException@Internal@Core@Math@Palmtree@@UEAAPEAXI@Z:PROC ; Palmtree::Math::Core::Internal::InternalErrorException::`vector deleting destructor'
EXTRN	?CommitNumber@Internal@Core@Math@Palmtree@@YAXPEAU__tag_NUMBER_HEADER@1234@@Z:PROC ; Palmtree::Math::Core::Internal::CommitNumber
EXTRN	?CheckNumber@Internal@Core@Math@Palmtree@@YAXPEAU__tag_NUMBER_HEADER@1234@@Z:PROC ; Palmtree::Math::Core::Internal::CheckNumber
EXTRN	?DuplicateNumber@Internal@Core@Math@Palmtree@@YAPEAU__tag_NUMBER_HEADER@1234@PEAU51234@@Z:PROC ; Palmtree::Math::Core::Internal::DuplicateNumber
EXTRN	?RightShift_Imp@Internal@Core@Math@Palmtree@@YAXPEA_K_K10H@Z:PROC ; Palmtree::Math::Core::Internal::RightShift_Imp
EXTRN	?LeftShift_Imp@Internal@Core@Math@Palmtree@@YAXPEA_K_K10H@Z:PROC ; Palmtree::Math::Core::Internal::LeftShift_Imp
EXTRN	??0ResourceHolderUINT@Internal@Core@Math@Palmtree@@QEAA@XZ:PROC ; Palmtree::Math::Core::Internal::ResourceHolderUINT::ResourceHolderUINT
EXTRN	??1ResourceHolderUINT@Internal@Core@Math@Palmtree@@UEAA@XZ:PROC ; Palmtree::Math::Core::Internal::ResourceHolderUINT::~ResourceHolderUINT
EXTRN	?AllocateBlock@ResourceHolderUINT@Internal@Core@Math@Palmtree@@QEAAPEA_K_K@Z:PROC ; Palmtree::Math::Core::Internal::ResourceHolderUINT::AllocateBlock
EXTRN	?DeallocateBlock@ResourceHolderUINT@Internal@Core@Math@Palmtree@@QEAAXPEA_K@Z:PROC ; Palmtree::Math::Core::Internal::ResourceHolderUINT::DeallocateBlock
EXTRN	?CheckBlock@ResourceHolderUINT@Internal@Core@Math@Palmtree@@QEAAXPEA_K@Z:PROC ; Palmtree::Math::Core::Internal::ResourceHolderUINT::CheckBlock
EXTRN	?AllocateNumber@ResourceHolderUINT@Internal@Core@Math@Palmtree@@QEAAPEAU__tag_NUMBER_HEADER@2345@_K@Z:PROC ; Palmtree::Math::Core::Internal::ResourceHolderUINT::AllocateNumber
EXTRN	?HookNumber@ResourceHolderUINT@Internal@Core@Math@Palmtree@@QEAAXPEAU__tag_NUMBER_HEADER@2345@@Z:PROC ; Palmtree::Math::Core::Internal::ResourceHolderUINT::HookNumber
EXTRN	?DeallocateNumber@ResourceHolderUINT@Internal@Core@Math@Palmtree@@QEAAXPEAU__tag_NUMBER_HEADER@2345@@Z:PROC ; Palmtree::Math::Core::Internal::ResourceHolderUINT::DeallocateNumber
EXTRN	?CheckNumber@ResourceHolderUINT@Internal@Core@Math@Palmtree@@QEAAXPEAU__tag_NUMBER_HEADER@2345@@Z:PROC ; Palmtree::Math::Core::Internal::ResourceHolderUINT::CheckNumber
EXTRN	?UnlinkNumber@ResourceHolderUINT@Internal@Core@Math@Palmtree@@QEAAXPEAU__tag_NUMBER_HEADER@2345@@Z:PROC ; Palmtree::Math::Core::Internal::ResourceHolderUINT::UnlinkNumber
EXTRN	_CxxThrowException:PROC
EXTRN	_RTC_CheckStackVars:PROC
EXTRN	_RTC_InitBase:PROC
EXTRN	_RTC_Shutdown:PROC
EXTRN	__CheckForDebuggerJustMyCode:PROC
EXTRN	__CxxFrameHandler3:PROC
EXTRN	__GSHandlerCheck:PROC
EXTRN	__security_check_cookie:PROC
EXTRN	?number_zero@Internal@Core@Math@Palmtree@@3U__tag_NUMBER_HEADER@1234@A:BYTE ; Palmtree::Math::Core::Internal::number_zero
EXTRN	?statistics_info@Internal@Core@Math@Palmtree@@3U__tag_PMC_STATISTICS_INFO@1234@A:BYTE ; Palmtree::Math::Core::Internal::statistics_info
EXTRN	??_7type_info@@6B@:BYTE				; type_info::`vftable'
EXTRN	__security_cookie:QWORD
_BSS	SEGMENT
?fp_DivRem_X_X@Internal@Core@Math@Palmtree@@3P6AXPEA_K_K01000@ZEA DQ 01H DUP (?) ; Palmtree::Math::Core::Internal::fp_DivRem_X_X
_BSS	ENDS
;	COMDAT pdata
pdata	SEGMENT
$pdata$??0exception@std@@QEAA@XZ DD imagerel $LN3
	DD	imagerel $LN3+123
	DD	imagerel $unwind$??0exception@std@@QEAA@XZ
pdata	ENDS
;	COMDAT pdata
pdata	SEGMENT
$pdata$??1exception@std@@UEAA@XZ DD imagerel $LN3
	DD	imagerel $LN3+113
	DD	imagerel $unwind$??1exception@std@@UEAA@XZ
pdata	ENDS
;	COMDAT pdata
pdata	SEGMENT
$pdata$?what@exception@std@@UEBAPEBDXZ DD imagerel $LN5
	DD	imagerel $LN5+119
	DD	imagerel $unwind$?what@exception@std@@UEBAPEBDXZ
pdata	ENDS
;	COMDAT pdata
pdata	SEGMENT
$pdata$??_Gexception@std@@UEAAPEAXI@Z DD imagerel $LN4
	DD	imagerel $LN4+105
	DD	imagerel $unwind$??_Gexception@std@@UEAAPEAXI@Z
pdata	ENDS
;	COMDAT pdata
pdata	SEGMENT
$pdata$??0Exception@Internal@Core@Math@Palmtree@@IEAA@HPEB_W@Z DD imagerel $LN4
	DD	imagerel $LN4+171
	DD	imagerel $unwind$??0Exception@Internal@Core@Math@Palmtree@@IEAA@HPEB_W@Z
pdata	ENDS
;	COMDAT pdata
pdata	SEGMENT
$pdata$?dtor$0@?0???0Exception@Internal@Core@Math@Palmtree@@IEAA@HPEB_W@Z@4HA DD imagerel ?dtor$0@?0???0Exception@Internal@Core@Math@Palmtree@@IEAA@HPEB_W@Z@4HA
	DD	imagerel ?dtor$0@?0???0Exception@Internal@Core@Math@Palmtree@@IEAA@HPEB_W@Z@4HA+39
	DD	imagerel $unwind$?dtor$0@?0???0Exception@Internal@Core@Math@Palmtree@@IEAA@HPEB_W@Z@4HA
pdata	ENDS
;	COMDAT pdata
pdata	SEGMENT
$pdata$??0Exception@Internal@Core@Math@Palmtree@@IEAA@HPEB_W0@Z DD imagerel $LN4
	DD	imagerel $LN4+179
	DD	imagerel $unwind$??0Exception@Internal@Core@Math@Palmtree@@IEAA@HPEB_W0@Z
pdata	ENDS
;	COMDAT pdata
pdata	SEGMENT
$pdata$?dtor$0@?0???0Exception@Internal@Core@Math@Palmtree@@IEAA@HPEB_W0@Z@4HA DD imagerel ?dtor$0@?0???0Exception@Internal@Core@Math@Palmtree@@IEAA@HPEB_W0@Z@4HA
	DD	imagerel ?dtor$0@?0???0Exception@Internal@Core@Math@Palmtree@@IEAA@HPEB_W0@Z@4HA+39
	DD	imagerel $unwind$?dtor$0@?0???0Exception@Internal@Core@Math@Palmtree@@IEAA@HPEB_W0@Z@4HA
pdata	ENDS
;	COMDAT pdata
pdata	SEGMENT
$pdata$??0Exception@Internal@Core@Math@Palmtree@@QEAA@AEBV01234@@Z DD imagerel $LN4
	DD	imagerel $LN4+182
	DD	imagerel $unwind$??0Exception@Internal@Core@Math@Palmtree@@QEAA@AEBV01234@@Z
pdata	ENDS
;	COMDAT pdata
pdata	SEGMENT
$pdata$?dtor$0@?0???0Exception@Internal@Core@Math@Palmtree@@QEAA@AEBV01234@@Z@4HA DD imagerel ?dtor$0@?0???0Exception@Internal@Core@Math@Palmtree@@QEAA@AEBV01234@@Z@4HA
	DD	imagerel ?dtor$0@?0???0Exception@Internal@Core@Math@Palmtree@@QEAA@AEBV01234@@Z@4HA+39
	DD	imagerel $unwind$?dtor$0@?0???0Exception@Internal@Core@Math@Palmtree@@QEAA@AEBV01234@@Z@4HA
pdata	ENDS
;	COMDAT pdata
pdata	SEGMENT
$pdata$??1Exception@Internal@Core@Math@Palmtree@@UEAA@XZ DD imagerel $LN4
	DD	imagerel $LN4+106
	DD	imagerel $unwind$??1Exception@Internal@Core@Math@Palmtree@@UEAA@XZ
pdata	ENDS
;	COMDAT pdata
pdata	SEGMENT
$pdata$?dtor$0@?0???1Exception@Internal@Core@Math@Palmtree@@UEAA@XZ@4HA DD imagerel ?dtor$0@?0???1Exception@Internal@Core@Math@Palmtree@@UEAA@XZ@4HA
	DD	imagerel ?dtor$0@?0???1Exception@Internal@Core@Math@Palmtree@@UEAA@XZ@4HA+39
	DD	imagerel $unwind$?dtor$0@?0???1Exception@Internal@Core@Math@Palmtree@@UEAA@XZ@4HA
pdata	ENDS
;	COMDAT pdata
pdata	SEGMENT
$pdata$??_GException@Internal@Core@Math@Palmtree@@UEAAPEAXI@Z DD imagerel $LN4
	DD	imagerel $LN4+105
	DD	imagerel $unwind$??_GException@Internal@Core@Math@Palmtree@@UEAAPEAXI@Z
pdata	ENDS
;	COMDAT pdata
pdata	SEGMENT
$pdata$??0ArgumentNullException@Internal@Core@Math@Palmtree@@QEAA@PEB_W0@Z DD imagerel $LN4
	DD	imagerel $LN4+142
	DD	imagerel $unwind$??0ArgumentNullException@Internal@Core@Math@Palmtree@@QEAA@PEB_W0@Z
pdata	ENDS
;	COMDAT pdata
pdata	SEGMENT
$pdata$?dtor$0@?0???0ArgumentNullException@Internal@Core@Math@Palmtree@@QEAA@PEB_W0@Z@4HA DD imagerel ?dtor$0@?0???0ArgumentNullException@Internal@Core@Math@Palmtree@@QEAA@PEB_W0@Z@4HA
	DD	imagerel ?dtor$0@?0???0ArgumentNullException@Internal@Core@Math@Palmtree@@QEAA@PEB_W0@Z@4HA+39
	DD	imagerel $unwind$?dtor$0@?0???0ArgumentNullException@Internal@Core@Math@Palmtree@@QEAA@PEB_W0@Z@4HA
pdata	ENDS
;	COMDAT pdata
pdata	SEGMENT
$pdata$??0ArgumentNullException@Internal@Core@Math@Palmtree@@QEAA@AEBV01234@@Z DD imagerel $LN4
	DD	imagerel $LN4+125
	DD	imagerel $unwind$??0ArgumentNullException@Internal@Core@Math@Palmtree@@QEAA@AEBV01234@@Z
pdata	ENDS
;	COMDAT pdata
pdata	SEGMENT
$pdata$?dtor$0@?0???0ArgumentNullException@Internal@Core@Math@Palmtree@@QEAA@AEBV01234@@Z@4HA DD imagerel ?dtor$0@?0???0ArgumentNullException@Internal@Core@Math@Palmtree@@QEAA@AEBV01234@@Z@4HA
	DD	imagerel ?dtor$0@?0???0ArgumentNullException@Internal@Core@Math@Palmtree@@QEAA@AEBV01234@@Z@4HA+39
	DD	imagerel $unwind$?dtor$0@?0???0ArgumentNullException@Internal@Core@Math@Palmtree@@QEAA@AEBV01234@@Z@4HA
pdata	ENDS
;	COMDAT pdata
pdata	SEGMENT
$pdata$??1ArgumentNullException@Internal@Core@Math@Palmtree@@UEAA@XZ DD imagerel $LN4
	DD	imagerel $LN4+106
	DD	imagerel $unwind$??1ArgumentNullException@Internal@Core@Math@Palmtree@@UEAA@XZ
pdata	ENDS
;	COMDAT pdata
pdata	SEGMENT
$pdata$?dtor$0@?0???1ArgumentNullException@Internal@Core@Math@Palmtree@@UEAA@XZ@4HA DD imagerel ?dtor$0@?0???1ArgumentNullException@Internal@Core@Math@Palmtree@@UEAA@XZ@4HA
	DD	imagerel ?dtor$0@?0???1ArgumentNullException@Internal@Core@Math@Palmtree@@UEAA@XZ@4HA+39
	DD	imagerel $unwind$?dtor$0@?0???1ArgumentNullException@Internal@Core@Math@Palmtree@@UEAA@XZ@4HA
pdata	ENDS
;	COMDAT pdata
pdata	SEGMENT
$pdata$??_GArgumentNullException@Internal@Core@Math@Palmtree@@UEAAPEAXI@Z DD imagerel $LN4
	DD	imagerel $LN4+105
	DD	imagerel $unwind$??_GArgumentNullException@Internal@Core@Math@Palmtree@@UEAAPEAXI@Z
pdata	ENDS
;	COMDAT pdata
pdata	SEGMENT
$pdata$??0DivisionByZeroException@Internal@Core@Math@Palmtree@@QEAA@PEB_W@Z DD imagerel $LN4
	DD	imagerel $LN4+130
	DD	imagerel $unwind$??0DivisionByZeroException@Internal@Core@Math@Palmtree@@QEAA@PEB_W@Z
pdata	ENDS
;	COMDAT pdata
pdata	SEGMENT
$pdata$?dtor$0@?0???0DivisionByZeroException@Internal@Core@Math@Palmtree@@QEAA@PEB_W@Z@4HA DD imagerel ?dtor$0@?0???0DivisionByZeroException@Internal@Core@Math@Palmtree@@QEAA@PEB_W@Z@4HA
	DD	imagerel ?dtor$0@?0???0DivisionByZeroException@Internal@Core@Math@Palmtree@@QEAA@PEB_W@Z@4HA+39
	DD	imagerel $unwind$?dtor$0@?0???0DivisionByZeroException@Internal@Core@Math@Palmtree@@QEAA@PEB_W@Z@4HA
pdata	ENDS
;	COMDAT pdata
pdata	SEGMENT
$pdata$??0DivisionByZeroException@Internal@Core@Math@Palmtree@@QEAA@AEBV01234@@Z DD imagerel $LN4
	DD	imagerel $LN4+125
	DD	imagerel $unwind$??0DivisionByZeroException@Internal@Core@Math@Palmtree@@QEAA@AEBV01234@@Z
pdata	ENDS
;	COMDAT pdata
pdata	SEGMENT
$pdata$?dtor$0@?0???0DivisionByZeroException@Internal@Core@Math@Palmtree@@QEAA@AEBV01234@@Z@4HA DD imagerel ?dtor$0@?0???0DivisionByZeroException@Internal@Core@Math@Palmtree@@QEAA@AEBV01234@@Z@4HA
	DD	imagerel ?dtor$0@?0???0DivisionByZeroException@Internal@Core@Math@Palmtree@@QEAA@AEBV01234@@Z@4HA+39
	DD	imagerel $unwind$?dtor$0@?0???0DivisionByZeroException@Internal@Core@Math@Palmtree@@QEAA@AEBV01234@@Z@4HA
pdata	ENDS
;	COMDAT pdata
pdata	SEGMENT
$pdata$??1DivisionByZeroException@Internal@Core@Math@Palmtree@@UEAA@XZ DD imagerel $LN4
	DD	imagerel $LN4+106
	DD	imagerel $unwind$??1DivisionByZeroException@Internal@Core@Math@Palmtree@@UEAA@XZ
pdata	ENDS
;	COMDAT pdata
pdata	SEGMENT
$pdata$?dtor$0@?0???1DivisionByZeroException@Internal@Core@Math@Palmtree@@UEAA@XZ@4HA DD imagerel ?dtor$0@?0???1DivisionByZeroException@Internal@Core@Math@Palmtree@@UEAA@XZ@4HA
	DD	imagerel ?dtor$0@?0???1DivisionByZeroException@Internal@Core@Math@Palmtree@@UEAA@XZ@4HA+39
	DD	imagerel $unwind$?dtor$0@?0???1DivisionByZeroException@Internal@Core@Math@Palmtree@@UEAA@XZ@4HA
pdata	ENDS
;	COMDAT pdata
pdata	SEGMENT
$pdata$??_GDivisionByZeroException@Internal@Core@Math@Palmtree@@UEAAPEAXI@Z DD imagerel $LN4
	DD	imagerel $LN4+105
	DD	imagerel $unwind$??_GDivisionByZeroException@Internal@Core@Math@Palmtree@@UEAAPEAXI@Z
pdata	ENDS
;	COMDAT pdata
pdata	SEGMENT
$pdata$??0InternalErrorException@Internal@Core@Math@Palmtree@@QEAA@PEB_W0@Z DD imagerel $LN4
	DD	imagerel $LN4+142
	DD	imagerel $unwind$??0InternalErrorException@Internal@Core@Math@Palmtree@@QEAA@PEB_W0@Z
pdata	ENDS
;	COMDAT pdata
pdata	SEGMENT
$pdata$?dtor$0@?0???0InternalErrorException@Internal@Core@Math@Palmtree@@QEAA@PEB_W0@Z@4HA DD imagerel ?dtor$0@?0???0InternalErrorException@Internal@Core@Math@Palmtree@@QEAA@PEB_W0@Z@4HA
	DD	imagerel ?dtor$0@?0???0InternalErrorException@Internal@Core@Math@Palmtree@@QEAA@PEB_W0@Z@4HA+39
	DD	imagerel $unwind$?dtor$0@?0???0InternalErrorException@Internal@Core@Math@Palmtree@@QEAA@PEB_W0@Z@4HA
pdata	ENDS
;	COMDAT pdata
pdata	SEGMENT
$pdata$??0InternalErrorException@Internal@Core@Math@Palmtree@@QEAA@AEBV01234@@Z DD imagerel $LN4
	DD	imagerel $LN4+125
	DD	imagerel $unwind$??0InternalErrorException@Internal@Core@Math@Palmtree@@QEAA@AEBV01234@@Z
pdata	ENDS
;	COMDAT pdata
pdata	SEGMENT
$pdata$?dtor$0@?0???0InternalErrorException@Internal@Core@Math@Palmtree@@QEAA@AEBV01234@@Z@4HA DD imagerel ?dtor$0@?0???0InternalErrorException@Internal@Core@Math@Palmtree@@QEAA@AEBV01234@@Z@4HA
	DD	imagerel ?dtor$0@?0???0InternalErrorException@Internal@Core@Math@Palmtree@@QEAA@AEBV01234@@Z@4HA+39
	DD	imagerel $unwind$?dtor$0@?0???0InternalErrorException@Internal@Core@Math@Palmtree@@QEAA@AEBV01234@@Z@4HA
pdata	ENDS
;	COMDAT pdata
pdata	SEGMENT
$pdata$??1InternalErrorException@Internal@Core@Math@Palmtree@@UEAA@XZ DD imagerel $LN4
	DD	imagerel $LN4+106
	DD	imagerel $unwind$??1InternalErrorException@Internal@Core@Math@Palmtree@@UEAA@XZ
pdata	ENDS
;	COMDAT pdata
pdata	SEGMENT
$pdata$?dtor$0@?0???1InternalErrorException@Internal@Core@Math@Palmtree@@UEAA@XZ@4HA DD imagerel ?dtor$0@?0???1InternalErrorException@Internal@Core@Math@Palmtree@@UEAA@XZ@4HA
	DD	imagerel ?dtor$0@?0???1InternalErrorException@Internal@Core@Math@Palmtree@@UEAA@XZ@4HA+39
	DD	imagerel $unwind$?dtor$0@?0???1InternalErrorException@Internal@Core@Math@Palmtree@@UEAA@XZ@4HA
pdata	ENDS
;	COMDAT pdata
pdata	SEGMENT
$pdata$??_GInternalErrorException@Internal@Core@Math@Palmtree@@UEAAPEAXI@Z DD imagerel $LN4
	DD	imagerel $LN4+105
	DD	imagerel $unwind$??_GInternalErrorException@Internal@Core@Math@Palmtree@@UEAAPEAXI@Z
pdata	ENDS
;	COMDAT pdata
pdata	SEGMENT
$pdata$?DivRem_X_1W@Internal@Core@Math@Palmtree@@YAXPEA_K_K100@Z DD imagerel $LN25
	DD	imagerel $LN25+4376
	DD	imagerel $unwind$?DivRem_X_1W@Internal@Core@Math@Palmtree@@YAXPEA_K_K100@Z
pdata	ENDS
;	COMDAT pdata
pdata	SEGMENT
$pdata$?Rem_X_1W@Internal@Core@Math@Palmtree@@YA_KPEA_K_K1@Z DD imagerel $LN22
	DD	imagerel $LN22+3093
	DD	imagerel $unwind$?Rem_X_1W@Internal@Core@Math@Palmtree@@YA_KPEA_K_K1@Z
pdata	ENDS
;	COMDAT pdata
pdata	SEGMENT
$pdata$?DivRem_X_X@Internal@Core@Math@Palmtree@@YAXPEA_K_K01000@Z DD imagerel $LN15
	DD	imagerel $LN15+591
	DD	imagerel $unwind$?DivRem_X_X@Internal@Core@Math@Palmtree@@YAXPEA_K_K01000@Z
pdata	ENDS
;	COMDAT pdata
pdata	SEGMENT
$pdata$?Initialize_DivRem@Internal@Core@Math@Palmtree@@YAHPEAU_tag_PROCESSOR_FEATURES@1234@@Z DD imagerel $LN5
	DD	imagerel $LN5+147
	DD	imagerel $unwind$?Initialize_DivRem@Internal@Core@Math@Palmtree@@YAHPEAU_tag_PROCESSOR_FEATURES@1234@@Z
pdata	ENDS
;	COMDAT pdata
pdata	SEGMENT
$pdata$?PMC_DivRem_I_X@Internal@Core@Math@Palmtree@@YAIIPEAU__tag_PMC_HANDLE_UINT@1234@PEAI@Z DD imagerel $LN18
	DD	imagerel $LN18+543
	DD	imagerel $unwind$?PMC_DivRem_I_X@Internal@Core@Math@Palmtree@@YAIIPEAU__tag_PMC_HANDLE_UINT@1234@PEAI@Z
pdata	ENDS
;	COMDAT pdata
pdata	SEGMENT
$pdata$?PMC_DivRem_L_X@Internal@Core@Math@Palmtree@@YA_K_KPEAU__tag_PMC_HANDLE_UINT@1234@PEA_K@Z DD imagerel $LN37
	DD	imagerel $LN37+1725
	DD	imagerel $unwind$?PMC_DivRem_L_X@Internal@Core@Math@Palmtree@@YA_K_KPEAU__tag_PMC_HANDLE_UINT@1234@PEA_K@Z
pdata	ENDS
;	COMDAT pdata
pdata	SEGMENT
$pdata$?PMC_DivRem_X_I@Internal@Core@Math@Palmtree@@YAIPEAU__tag_PMC_HANDLE_UINT@1234@IPEAPEAU51234@@Z DD imagerel $LN9
	DD	imagerel $LN9+420
	DD	imagerel $unwind$?PMC_DivRem_X_I@Internal@Core@Math@Palmtree@@YAIPEAU__tag_PMC_HANDLE_UINT@1234@IPEAPEAU51234@@Z
pdata	ENDS
;	COMDAT pdata
pdata	SEGMENT
$pdata$?dtor$0@?0??PMC_DivRem_X_I@Internal@Core@Math@Palmtree@@YAIPEAU__tag_PMC_HANDLE_UINT@1234@IPEAPEAU51234@@Z@4HA DD imagerel ?dtor$0@?0??PMC_DivRem_X_I@Internal@Core@Math@Palmtree@@YAIPEAU__tag_PMC_HANDLE_UINT@1234@IPEAPEAU51234@@Z@4HA
	DD	imagerel ?dtor$0@?0??PMC_DivRem_X_I@Internal@Core@Math@Palmtree@@YAIPEAU__tag_PMC_HANDLE_UINT@1234@IPEAPEAU51234@@Z@4HA+36
	DD	imagerel $unwind$?dtor$0@?0??PMC_DivRem_X_I@Internal@Core@Math@Palmtree@@YAIPEAU__tag_PMC_HANDLE_UINT@1234@IPEAPEAU51234@@Z@4HA
pdata	ENDS
;	COMDAT pdata
pdata	SEGMENT
$pdata$?PMC_DivRem_X_L@Internal@Core@Math@Palmtree@@YA_KPEAU__tag_PMC_HANDLE_UINT@1234@_KPEAPEAU51234@@Z DD imagerel $LN9
	DD	imagerel $LN9+431
	DD	imagerel $unwind$?PMC_DivRem_X_L@Internal@Core@Math@Palmtree@@YA_KPEAU__tag_PMC_HANDLE_UINT@1234@_KPEAPEAU51234@@Z
pdata	ENDS
;	COMDAT pdata
pdata	SEGMENT
$pdata$?dtor$0@?0??PMC_DivRem_X_L@Internal@Core@Math@Palmtree@@YA_KPEAU__tag_PMC_HANDLE_UINT@1234@_KPEAPEAU51234@@Z@4HA DD imagerel ?dtor$0@?0??PMC_DivRem_X_L@Internal@Core@Math@Palmtree@@YA_KPEAU__tag_PMC_HANDLE_UINT@1234@_KPEAPEAU51234@@Z@4HA
	DD	imagerel ?dtor$0@?0??PMC_DivRem_X_L@Internal@Core@Math@Palmtree@@YA_KPEAU__tag_PMC_HANDLE_UINT@1234@_KPEAPEAU51234@@Z@4HA+36
	DD	imagerel $unwind$?dtor$0@?0??PMC_DivRem_X_L@Internal@Core@Math@Palmtree@@YA_KPEAU__tag_PMC_HANDLE_UINT@1234@_KPEAPEAU51234@@Z@4HA
pdata	ENDS
;	COMDAT pdata
pdata	SEGMENT
$pdata$?PMC_DivRem_X_X@Internal@Core@Math@Palmtree@@YAPEAU__tag_PMC_HANDLE_UINT@1234@PEAU51234@0PEAPEAU51234@@Z DD imagerel $LN10
	DD	imagerel $LN10+564
	DD	imagerel $unwind$?PMC_DivRem_X_X@Internal@Core@Math@Palmtree@@YAPEAU__tag_PMC_HANDLE_UINT@1234@PEAU51234@0PEAPEAU51234@@Z
pdata	ENDS
;	COMDAT pdata
pdata	SEGMENT
$pdata$?dtor$0@?0??PMC_DivRem_X_X@Internal@Core@Math@Palmtree@@YAPEAU__tag_PMC_HANDLE_UINT@1234@PEAU51234@0PEAPEAU51234@@Z@4HA DD imagerel ?dtor$0@?0??PMC_DivRem_X_X@Internal@Core@Math@Palmtree@@YAPEAU__tag_PMC_HANDLE_UINT@1234@PEAU51234@0PEAPEAU51234@@Z@4HA
	DD	imagerel ?dtor$0@?0??PMC_DivRem_X_X@Internal@Core@Math@Palmtree@@YAPEAU__tag_PMC_HANDLE_UINT@1234@PEAU51234@0PEAPEAU51234@@Z@4HA+36
	DD	imagerel $unwind$?dtor$0@?0??PMC_DivRem_X_X@Internal@Core@Math@Palmtree@@YAPEAU__tag_PMC_HANDLE_UINT@1234@PEAU51234@0PEAPEAU51234@@Z@4HA
pdata	ENDS
;	COMDAT pdata
pdata	SEGMENT
$pdata$?IncrementDIV32Counter@Internal@Core@Math@Palmtree@@YAXXZ DD imagerel ?IncrementDIV32Counter@Internal@Core@Math@Palmtree@@YAXXZ
	DD	imagerel ?IncrementDIV32Counter@Internal@Core@Math@Palmtree@@YAXXZ+62
	DD	imagerel $unwind$?IncrementDIV32Counter@Internal@Core@Math@Palmtree@@YAXXZ
pdata	ENDS
;	COMDAT pdata
pdata	SEGMENT
$pdata$?IncrementDIV64Counter@Internal@Core@Math@Palmtree@@YAXXZ DD imagerel ?IncrementDIV64Counter@Internal@Core@Math@Palmtree@@YAXXZ
	DD	imagerel ?IncrementDIV64Counter@Internal@Core@Math@Palmtree@@YAXXZ+62
	DD	imagerel $unwind$?IncrementDIV64Counter@Internal@Core@Math@Palmtree@@YAXXZ
pdata	ENDS
;	COMDAT pdata
pdata	SEGMENT
$pdata$?IncrementMULTI32Counter@Internal@Core@Math@Palmtree@@YAXXZ DD imagerel ?IncrementMULTI32Counter@Internal@Core@Math@Palmtree@@YAXXZ
	DD	imagerel ?IncrementMULTI32Counter@Internal@Core@Math@Palmtree@@YAXXZ+62
	DD	imagerel $unwind$?IncrementMULTI32Counter@Internal@Core@Math@Palmtree@@YAXXZ
pdata	ENDS
;	COMDAT pdata
pdata	SEGMENT
$pdata$?IncrementMULTI64Counter@Internal@Core@Math@Palmtree@@YAXXZ DD imagerel ?IncrementMULTI64Counter@Internal@Core@Math@Palmtree@@YAXXZ
	DD	imagerel ?IncrementMULTI64Counter@Internal@Core@Math@Palmtree@@YAXXZ+62
	DD	imagerel $unwind$?IncrementMULTI64Counter@Internal@Core@Math@Palmtree@@YAXXZ
pdata	ENDS
;	COMDAT pdata
pdata	SEGMENT
$pdata$?AddToDIV32Counter@Internal@Core@Math@Palmtree@@YAXH@Z DD imagerel ?AddToDIV32Counter@Internal@Core@Math@Palmtree@@YAXH@Z
	DD	imagerel ?AddToDIV32Counter@Internal@Core@Math@Palmtree@@YAXH@Z+78
	DD	imagerel $unwind$?AddToDIV32Counter@Internal@Core@Math@Palmtree@@YAXH@Z
pdata	ENDS
;	COMDAT pdata
pdata	SEGMENT
$pdata$?AddToDIV64Counter@Internal@Core@Math@Palmtree@@YAXH@Z DD imagerel ?AddToDIV64Counter@Internal@Core@Math@Palmtree@@YAXH@Z
	DD	imagerel ?AddToDIV64Counter@Internal@Core@Math@Palmtree@@YAXH@Z+78
	DD	imagerel $unwind$?AddToDIV64Counter@Internal@Core@Math@Palmtree@@YAXH@Z
pdata	ENDS
;	COMDAT pdata
pdata	SEGMENT
$pdata$?AddToMULTI32Counter@Internal@Core@Math@Palmtree@@YAXH@Z DD imagerel ?AddToMULTI32Counter@Internal@Core@Math@Palmtree@@YAXH@Z
	DD	imagerel ?AddToMULTI32Counter@Internal@Core@Math@Palmtree@@YAXH@Z+78
	DD	imagerel $unwind$?AddToMULTI32Counter@Internal@Core@Math@Palmtree@@YAXH@Z
pdata	ENDS
;	COMDAT pdata
pdata	SEGMENT
$pdata$?AddToMULTI64Counter@Internal@Core@Math@Palmtree@@YAXH@Z DD imagerel ?AddToMULTI64Counter@Internal@Core@Math@Palmtree@@YAXH@Z
	DD	imagerel ?AddToMULTI64Counter@Internal@Core@Math@Palmtree@@YAXH@Z+78
	DD	imagerel $unwind$?AddToMULTI64Counter@Internal@Core@Math@Palmtree@@YAXH@Z
pdata	ENDS
;	COMDAT pdata
pdata	SEGMENT
$pdata$_COPY_MEMORY_UNIT DD imagerel _COPY_MEMORY_UNIT
	DD	imagerel _COPY_MEMORY_UNIT+100
	DD	imagerel $unwind$_COPY_MEMORY_UNIT
pdata	ENDS
;	COMDAT pdata
pdata	SEGMENT
$pdata$_FROMWORDTODWORD DD imagerel _FROMWORDTODWORD
	DD	imagerel _FROMWORDTODWORD+85
	DD	imagerel $unwind$_FROMWORDTODWORD
pdata	ENDS
;	COMDAT pdata
pdata	SEGMENT
$pdata$_FROMDWORDTOWORD DD imagerel _FROMDWORDTOWORD
	DD	imagerel _FROMDWORDTOWORD+95
	DD	imagerel $unwind$_FROMDWORDTOWORD
pdata	ENDS
;	COMDAT pdata
pdata	SEGMENT
$pdata$_ADD_UNIT DD imagerel _ADD_UNIT
	DD	imagerel _ADD_UNIT+118
	DD	imagerel $unwind$_ADD_UNIT
pdata	ENDS
;	COMDAT pdata
pdata	SEGMENT
$pdata$_ADDX_UNIT DD imagerel _ADDX_UNIT
	DD	imagerel _ADDX_UNIT+121
	DD	imagerel $unwind$_ADDX_UNIT
pdata	ENDS
;	COMDAT pdata
pdata	SEGMENT
$pdata$_SUBTRUCT_UNIT DD imagerel _SUBTRUCT_UNIT
	DD	imagerel _SUBTRUCT_UNIT+118
	DD	imagerel $unwind$_SUBTRUCT_UNIT
pdata	ENDS
;	COMDAT pdata
pdata	SEGMENT
$pdata$_MULTIPLY_UNIT DD imagerel _MULTIPLY_UNIT
	DD	imagerel _MULTIPLY_UNIT+118
	DD	imagerel $unwind$_MULTIPLY_UNIT
pdata	ENDS
;	COMDAT pdata
pdata	SEGMENT
$pdata$_MULTIPLYX_UNIT DD imagerel _MULTIPLYX_UNIT
	DD	imagerel _MULTIPLYX_UNIT+103
	DD	imagerel $unwind$_MULTIPLYX_UNIT
pdata	ENDS
;	COMDAT pdata
pdata	SEGMENT
$pdata$_DIVREM_UNIT DD imagerel $LN5
	DD	imagerel $LN5+209
	DD	imagerel $unwind$_DIVREM_UNIT
pdata	ENDS
;	COMDAT pdata
pdata	SEGMENT
$pdata$_DIVREM_SINGLE_UNIT DD imagerel $LN3
	DD	imagerel $LN3+145
	DD	imagerel $unwind$_DIVREM_SINGLE_UNIT
pdata	ENDS
;	COMDAT pdata
pdata	SEGMENT
$pdata$_LZCNT_ALT_32 DD imagerel _LZCNT_ALT_32
	DD	imagerel _LZCNT_ALT_32+126
	DD	imagerel $unwind$_LZCNT_ALT_32
pdata	ENDS
;	COMDAT pdata
pdata	SEGMENT
$pdata$_LZCNT_ALT_64 DD imagerel _LZCNT_ALT_64
	DD	imagerel _LZCNT_ALT_64+131
	DD	imagerel $unwind$_LZCNT_ALT_64
pdata	ENDS
;	COMDAT pdata
pdata	SEGMENT
$pdata$_LZCNT_ALT_UNIT DD imagerel _LZCNT_ALT_UNIT
	DD	imagerel _LZCNT_ALT_UNIT+131
	DD	imagerel $unwind$_LZCNT_ALT_UNIT
pdata	ENDS
;	COMDAT pdata
pdata	SEGMENT
$pdata$_ADD_32WORDS_ADC DD imagerel _ADD_32WORDS_ADC
	DD	imagerel _ADD_32WORDS_ADC+2741
	DD	imagerel $unwind$_ADD_32WORDS_ADC
pdata	ENDS
;	COMDAT pdata
pdata	SEGMENT
$pdata$_ADD_32WORDS_ADCX DD imagerel _ADD_32WORDS_ADCX
	DD	imagerel _ADD_32WORDS_ADCX+2741
	DD	imagerel $unwind$_ADD_32WORDS_ADCX
pdata	ENDS
;	COMDAT pdata
pdata	SEGMENT
$pdata$_ADD_16WORDS_ADC DD imagerel _ADD_16WORDS_ADC
	DD	imagerel _ADD_16WORDS_ADC+1413
	DD	imagerel $unwind$_ADD_16WORDS_ADC
pdata	ENDS
;	COMDAT pdata
pdata	SEGMENT
$pdata$_ADD_16WORDS_ADCX DD imagerel _ADD_16WORDS_ADCX
	DD	imagerel _ADD_16WORDS_ADCX+1413
	DD	imagerel $unwind$_ADD_16WORDS_ADCX
pdata	ENDS
;	COMDAT pdata
pdata	SEGMENT
$pdata$_ADD_8WORDS_ADC DD imagerel _ADD_8WORDS_ADC
	DD	imagerel _ADD_8WORDS_ADC+749
	DD	imagerel $unwind$_ADD_8WORDS_ADC
pdata	ENDS
;	COMDAT pdata
pdata	SEGMENT
$pdata$_ADD_8WORDS_ADCX DD imagerel _ADD_8WORDS_ADCX
	DD	imagerel _ADD_8WORDS_ADCX+749
	DD	imagerel $unwind$_ADD_8WORDS_ADCX
pdata	ENDS
;	COMDAT pdata
pdata	SEGMENT
$pdata$_ADD_4WORDS_ADC DD imagerel _ADD_4WORDS_ADC
	DD	imagerel _ADD_4WORDS_ADC+417
	DD	imagerel $unwind$_ADD_4WORDS_ADC
pdata	ENDS
;	COMDAT pdata
pdata	SEGMENT
$pdata$_ADD_4WORDS_ADCX DD imagerel _ADD_4WORDS_ADCX
	DD	imagerel _ADD_4WORDS_ADCX+417
	DD	imagerel $unwind$_ADD_4WORDS_ADCX
pdata	ENDS
;	COMDAT pdata
pdata	SEGMENT
$pdata$_ADD_2WORDS_ADC DD imagerel _ADD_2WORDS_ADC
	DD	imagerel _ADD_2WORDS_ADC+251
	DD	imagerel $unwind$_ADD_2WORDS_ADC
pdata	ENDS
;	COMDAT pdata
pdata	SEGMENT
$pdata$_ADD_2WORDS_ADCX DD imagerel _ADD_2WORDS_ADCX
	DD	imagerel _ADD_2WORDS_ADCX+251
	DD	imagerel $unwind$_ADD_2WORDS_ADCX
pdata	ENDS
;	COMDAT pdata
pdata	SEGMENT
$pdata$?_DIVREM_UNIT_1W@DivRem@Internal@Core@Math@Palmtree@@YA_K_K0IPEA_K@Z DD imagerel ?_DIVREM_UNIT_1W@DivRem@Internal@Core@Math@Palmtree@@YA_K_K0IPEA_K@Z
	DD	imagerel ?_DIVREM_UNIT_1W@DivRem@Internal@Core@Math@Palmtree@@YA_K_K0IPEA_K@Z+1339
	DD	imagerel $unwind$?_DIVREM_UNIT_1W@DivRem@Internal@Core@Math@Palmtree@@YA_K_K0IPEA_K@Z
pdata	ENDS
;	COMDAT pdata
pdata	SEGMENT
$pdata$?_Asume_Q_@DivRem@Internal@Core@Math@Palmtree@@YAIIII@Z DD imagerel ?_Asume_Q_@DivRem@Internal@Core@Math@Palmtree@@YAIIII@Z
	DD	imagerel ?_Asume_Q_@DivRem@Internal@Core@Math@Palmtree@@YAIIII@Z+137
	DD	imagerel $unwind$?_Asume_Q_@DivRem@Internal@Core@Math@Palmtree@@YAIIII@Z
pdata	ENDS
;	COMDAT pdata
pdata	SEGMENT
$pdata$?_Check_Q_@DivRem@Internal@Core@Math@Palmtree@@YAHIIIIII@Z DD imagerel ?_Check_Q_@DivRem@Internal@Core@Math@Palmtree@@YAHIIIIII@Z
	DD	imagerel ?_Check_Q_@DivRem@Internal@Core@Math@Palmtree@@YAHIIIIII@Z+454
	DD	imagerel $unwind$?_Check_Q_@DivRem@Internal@Core@Math@Palmtree@@YAHIIIIII@Z
pdata	ENDS
;	COMDAT pdata
pdata	SEGMENT
$pdata$?_Calculate_Q_@DivRem@Internal@Core@Math@Palmtree@@YAIIIIII@Z DD imagerel ?_Calculate_Q_@DivRem@Internal@Core@Math@Palmtree@@YAIIIIII@Z
	DD	imagerel ?_Calculate_Q_@DivRem@Internal@Core@Math@Palmtree@@YAIIIIII@Z+226
	DD	imagerel $unwind$?_Calculate_Q_@DivRem@Internal@Core@Math@Palmtree@@YAIIIIII@Z
pdata	ENDS
;	COMDAT pdata
pdata	SEGMENT
$pdata$?_DIVREM_UNIT_nW@DivRem@Internal@Core@Math@Palmtree@@YA_K_K00PEA_K@Z DD imagerel ?_DIVREM_UNIT_nW@DivRem@Internal@Core@Math@Palmtree@@YA_K_K00PEA_K@Z
	DD	imagerel ?_DIVREM_UNIT_nW@DivRem@Internal@Core@Math@Palmtree@@YA_K_K00PEA_K@Z+2733
	DD	imagerel $unwind$?_DIVREM_UNIT_nW@DivRem@Internal@Core@Math@Palmtree@@YA_K_K00PEA_K@Z
pdata	ENDS
;	COMDAT pdata
pdata	SEGMENT
$pdata$?AsumeQ_@Internal@Core@Math@Palmtree@@YA_K_K00@Z DD imagerel ?AsumeQ_@Internal@Core@Math@Palmtree@@YA_K_K00@Z
	DD	imagerel ?AsumeQ_@Internal@Core@Math@Palmtree@@YA_K_K00@Z+178
	DD	imagerel $unwind$?AsumeQ_@Internal@Core@Math@Palmtree@@YA_K_K00@Z
pdata	ENDS
;	COMDAT pdata
pdata	SEGMENT
$pdata$?CheckQ_@Internal@Core@Math@Palmtree@@YAH_K00000@Z DD imagerel ?CheckQ_@Internal@Core@Math@Palmtree@@YAH_K00000@Z
	DD	imagerel ?CheckQ_@Internal@Core@Math@Palmtree@@YAH_K00000@Z+368
	DD	imagerel $unwind$?CheckQ_@Internal@Core@Math@Palmtree@@YAH_K00000@Z
pdata	ENDS
;	COMDAT pdata
pdata	SEGMENT
$pdata$?CheckQ_X@Internal@Core@Math@Palmtree@@YAH_K00000@Z DD imagerel ?CheckQ_X@Internal@Core@Math@Palmtree@@YAH_K00000@Z
	DD	imagerel ?CheckQ_X@Internal@Core@Math@Palmtree@@YAH_K00000@Z+368
	DD	imagerel $unwind$?CheckQ_X@Internal@Core@Math@Palmtree@@YAH_K00000@Z
pdata	ENDS
;	COMDAT pdata
pdata	SEGMENT
$pdata$?CalculateQ_@Internal@Core@Math@Palmtree@@YA_KPEA_K0_K1@Z DD imagerel ?CalculateQ_@Internal@Core@Math@Palmtree@@YA_KPEA_K0_K1@Z
	DD	imagerel ?CalculateQ_@Internal@Core@Math@Palmtree@@YA_KPEA_K0_K1@Z+404
	DD	imagerel $unwind$?CalculateQ_@Internal@Core@Math@Palmtree@@YA_KPEA_K0_K1@Z
pdata	ENDS
;	COMDAT pdata
pdata	SEGMENT
$pdata$?CalculateQ_X@Internal@Core@Math@Palmtree@@YA_KPEA_K0_K1@Z DD imagerel ?CalculateQ_X@Internal@Core@Math@Palmtree@@YA_KPEA_K0_K1@Z
	DD	imagerel ?CalculateQ_X@Internal@Core@Math@Palmtree@@YA_KPEA_K0_K1@Z+404
	DD	imagerel $unwind$?CalculateQ_X@Internal@Core@Math@Palmtree@@YA_KPEA_K0_K1@Z
pdata	ENDS
;	COMDAT pdata
pdata	SEGMENT
$pdata$?DoBorrow@Internal@Core@Math@Palmtree@@YAHDPEA_K_K@Z DD imagerel ?DoBorrow@Internal@Core@Math@Palmtree@@YAHDPEA_K_K@Z
	DD	imagerel ?DoBorrow@Internal@Core@Math@Palmtree@@YAHDPEA_K_K@Z+199
	DD	imagerel $unwind$?DoBorrow@Internal@Core@Math@Palmtree@@YAHDPEA_K_K@Z
pdata	ENDS
;	COMDAT pdata
pdata	SEGMENT
$pdata$?_MULTIPLY_DIGIT_UNIT@Internal@Core@Math@Palmtree@@YADDPEA_K0_K0@Z DD imagerel ?_MULTIPLY_DIGIT_UNIT@Internal@Core@Math@Palmtree@@YADDPEA_K0_K0@Z
	DD	imagerel ?_MULTIPLY_DIGIT_UNIT@Internal@Core@Math@Palmtree@@YADDPEA_K0_K0@Z+256
	DD	imagerel $unwind$?_MULTIPLY_DIGIT_UNIT@Internal@Core@Math@Palmtree@@YADDPEA_K0_K0@Z
pdata	ENDS
;	COMDAT pdata
pdata	SEGMENT
$pdata$?_MULTIPLYX_DIGIT_UNIT_DIV@Internal@Core@Math@Palmtree@@YADDPEA_K0_K0@Z DD imagerel ?_MULTIPLYX_DIGIT_UNIT_DIV@Internal@Core@Math@Palmtree@@YADDPEA_K0_K0@Z
	DD	imagerel ?_MULTIPLYX_DIGIT_UNIT_DIV@Internal@Core@Math@Palmtree@@YADDPEA_K0_K0@Z+256
	DD	imagerel $unwind$?_MULTIPLYX_DIGIT_UNIT_DIV@Internal@Core@Math@Palmtree@@YADDPEA_K0_K0@Z
pdata	ENDS
;	COMDAT pdata
pdata	SEGMENT
$pdata$?SubtructOneLine@Internal@Core@Math@Palmtree@@YAHPEA_K_K0111@Z DD imagerel ?SubtructOneLine@Internal@Core@Math@Palmtree@@YAHPEA_K_K0111@Z
	DD	imagerel ?SubtructOneLine@Internal@Core@Math@Palmtree@@YAHPEA_K_K0111@Z+5439
	DD	imagerel $unwind$?SubtructOneLine@Internal@Core@Math@Palmtree@@YAHPEA_K_K0111@Z
pdata	ENDS
;	COMDAT pdata
pdata	SEGMENT
$pdata$?SubtructOneLineX@Internal@Core@Math@Palmtree@@YAHPEA_K_K0111@Z DD imagerel ?SubtructOneLineX@Internal@Core@Math@Palmtree@@YAHPEA_K_K0111@Z
	DD	imagerel ?SubtructOneLineX@Internal@Core@Math@Palmtree@@YAHPEA_K_K0111@Z+5439
	DD	imagerel $unwind$?SubtructOneLineX@Internal@Core@Math@Palmtree@@YAHPEA_K_K0111@Z
pdata	ENDS
;	COMDAT pdata
pdata	SEGMENT
$pdata$?DoCarry@Internal@Core@Math@Palmtree@@YAXDPEA_K_K@Z DD imagerel ?DoCarry@Internal@Core@Math@Palmtree@@YAXDPEA_K_K@Z
	DD	imagerel ?DoCarry@Internal@Core@Math@Palmtree@@YAXDPEA_K_K@Z+177
	DD	imagerel $unwind$?DoCarry@Internal@Core@Math@Palmtree@@YAXDPEA_K_K@Z
pdata	ENDS
;	COMDAT pdata
pdata	SEGMENT
$pdata$?AddOneLine@Internal@Core@Math@Palmtree@@YAXPEA_K_K011@Z DD imagerel ?AddOneLine@Internal@Core@Math@Palmtree@@YAXPEA_K_K011@Z
	DD	imagerel ?AddOneLine@Internal@Core@Math@Palmtree@@YAXPEA_K_K011@Z+596
	DD	imagerel $unwind$?AddOneLine@Internal@Core@Math@Palmtree@@YAXPEA_K_K011@Z
pdata	ENDS
;	COMDAT pdata
pdata	SEGMENT
$pdata$?AddOneLineX@Internal@Core@Math@Palmtree@@YAXPEA_K_K011@Z DD imagerel ?AddOneLineX@Internal@Core@Math@Palmtree@@YAXPEA_K_K011@Z
	DD	imagerel ?AddOneLineX@Internal@Core@Math@Palmtree@@YAXPEA_K_K011@Z+596
	DD	imagerel $unwind$?AddOneLineX@Internal@Core@Math@Palmtree@@YAXPEA_K_K011@Z
pdata	ENDS
;	COMDAT pdata
pdata	SEGMENT
$pdata$?DivRem_X_X_using_ADC_MUL@Internal@Core@Math@Palmtree@@YAXPEA_K_K01000@Z DD imagerel ?DivRem_X_X_using_ADC_MUL@Internal@Core@Math@Palmtree@@YAXPEA_K_K01000@Z
	DD	imagerel ?DivRem_X_X_using_ADC_MUL@Internal@Core@Math@Palmtree@@YAXPEA_K_K01000@Z+637
	DD	imagerel $unwind$?DivRem_X_X_using_ADC_MUL@Internal@Core@Math@Palmtree@@YAXPEA_K_K01000@Z
pdata	ENDS
;	COMDAT pdata
pdata	SEGMENT
$pdata$?DivRem_X_X_using_ADX_MULX@Internal@Core@Math@Palmtree@@YAXPEA_K_K01000@Z DD imagerel ?DivRem_X_X_using_ADX_MULX@Internal@Core@Math@Palmtree@@YAXPEA_K_K01000@Z
	DD	imagerel ?DivRem_X_X_using_ADX_MULX@Internal@Core@Math@Palmtree@@YAXPEA_K_K01000@Z+549
	DD	imagerel $unwind$?DivRem_X_X_using_ADX_MULX@Internal@Core@Math@Palmtree@@YAXPEA_K_K01000@Z
pdata	ENDS
;	COMDAT pdata
pdata	SEGMENT
$pdata$?PMC_DivRem_X_I_Imp@Internal@Core@Math@Palmtree@@YAIPEAU__tag_NUMBER_HEADER@1234@IPEAPEAU51234@@Z DD imagerel ?PMC_DivRem_X_I_Imp@Internal@Core@Math@Palmtree@@YAIPEAU__tag_NUMBER_HEADER@1234@IPEAPEAU51234@@Z
	DD	imagerel ?PMC_DivRem_X_I_Imp@Internal@Core@Math@Palmtree@@YAIPEAU__tag_NUMBER_HEADER@1234@IPEAPEAU51234@@Z+714
	DD	imagerel $unwind$?PMC_DivRem_X_I_Imp@Internal@Core@Math@Palmtree@@YAIPEAU__tag_NUMBER_HEADER@1234@IPEAPEAU51234@@Z
pdata	ENDS
;	COMDAT pdata
pdata	SEGMENT
$pdata$?dtor$0@?0??PMC_DivRem_X_I_Imp@Internal@Core@Math@Palmtree@@YAIPEAU__tag_NUMBER_HEADER@1234@IPEAPEAU51234@@Z@4HA DD imagerel ?dtor$0@?0??PMC_DivRem_X_I_Imp@Internal@Core@Math@Palmtree@@YAIPEAU__tag_NUMBER_HEADER@1234@IPEAPEAU51234@@Z@4HA
	DD	imagerel ?dtor$0@?0??PMC_DivRem_X_I_Imp@Internal@Core@Math@Palmtree@@YAIPEAU__tag_NUMBER_HEADER@1234@IPEAPEAU51234@@Z@4HA+36
	DD	imagerel $unwind$?dtor$0@?0??PMC_DivRem_X_I_Imp@Internal@Core@Math@Palmtree@@YAIPEAU__tag_NUMBER_HEADER@1234@IPEAPEAU51234@@Z@4HA
pdata	ENDS
;	COMDAT pdata
pdata	SEGMENT
$pdata$?PMC_DivRem_X_L_Imp@Internal@Core@Math@Palmtree@@YA_KPEAU__tag_NUMBER_HEADER@1234@_KPEAPEAU51234@@Z DD imagerel ?PMC_DivRem_X_L_Imp@Internal@Core@Math@Palmtree@@YA_KPEAU__tag_NUMBER_HEADER@1234@_KPEAPEAU51234@@Z
	DD	imagerel ?PMC_DivRem_X_L_Imp@Internal@Core@Math@Palmtree@@YA_KPEAU__tag_NUMBER_HEADER@1234@_KPEAPEAU51234@@Z+2311
	DD	imagerel $unwind$?PMC_DivRem_X_L_Imp@Internal@Core@Math@Palmtree@@YA_KPEAU__tag_NUMBER_HEADER@1234@_KPEAPEAU51234@@Z
pdata	ENDS
;	COMDAT pdata
pdata	SEGMENT
$pdata$?dtor$0@?0??PMC_DivRem_X_L_Imp@Internal@Core@Math@Palmtree@@YA_KPEAU__tag_NUMBER_HEADER@1234@_KPEAPEAU51234@@Z@4HA DD imagerel ?dtor$0@?0??PMC_DivRem_X_L_Imp@Internal@Core@Math@Palmtree@@YA_KPEAU__tag_NUMBER_HEADER@1234@_KPEAPEAU51234@@Z@4HA
	DD	imagerel ?dtor$0@?0??PMC_DivRem_X_L_Imp@Internal@Core@Math@Palmtree@@YA_KPEAU__tag_NUMBER_HEADER@1234@_KPEAPEAU51234@@Z@4HA+39
	DD	imagerel $unwind$?dtor$0@?0??PMC_DivRem_X_L_Imp@Internal@Core@Math@Palmtree@@YA_KPEAU__tag_NUMBER_HEADER@1234@_KPEAPEAU51234@@Z@4HA
pdata	ENDS
;	COMDAT pdata
pdata	SEGMENT
$pdata$?dtor$1@?0??PMC_DivRem_X_L_Imp@Internal@Core@Math@Palmtree@@YA_KPEAU__tag_NUMBER_HEADER@1234@_KPEAPEAU51234@@Z@4HA DD imagerel ?dtor$1@?0??PMC_DivRem_X_L_Imp@Internal@Core@Math@Palmtree@@YA_KPEAU__tag_NUMBER_HEADER@1234@_KPEAPEAU51234@@Z@4HA
	DD	imagerel ?dtor$1@?0??PMC_DivRem_X_L_Imp@Internal@Core@Math@Palmtree@@YA_KPEAU__tag_NUMBER_HEADER@1234@_KPEAPEAU51234@@Z@4HA+39
	DD	imagerel $unwind$?dtor$1@?0??PMC_DivRem_X_L_Imp@Internal@Core@Math@Palmtree@@YA_KPEAU__tag_NUMBER_HEADER@1234@_KPEAPEAU51234@@Z@4HA
pdata	ENDS
;	COMDAT pdata
pdata	SEGMENT
$pdata$?dtor$2@?0??PMC_DivRem_X_L_Imp@Internal@Core@Math@Palmtree@@YA_KPEAU__tag_NUMBER_HEADER@1234@_KPEAPEAU51234@@Z@4HA DD imagerel ?dtor$2@?0??PMC_DivRem_X_L_Imp@Internal@Core@Math@Palmtree@@YA_KPEAU__tag_NUMBER_HEADER@1234@_KPEAPEAU51234@@Z@4HA
	DD	imagerel ?dtor$2@?0??PMC_DivRem_X_L_Imp@Internal@Core@Math@Palmtree@@YA_KPEAU__tag_NUMBER_HEADER@1234@_KPEAPEAU51234@@Z@4HA+39
	DD	imagerel $unwind$?dtor$2@?0??PMC_DivRem_X_L_Imp@Internal@Core@Math@Palmtree@@YA_KPEAU__tag_NUMBER_HEADER@1234@_KPEAPEAU51234@@Z@4HA
pdata	ENDS
;	COMDAT pdata
pdata	SEGMENT
$pdata$?dtor$3@?0??PMC_DivRem_X_L_Imp@Internal@Core@Math@Palmtree@@YA_KPEAU__tag_NUMBER_HEADER@1234@_KPEAPEAU51234@@Z@4HA DD imagerel ?dtor$3@?0??PMC_DivRem_X_L_Imp@Internal@Core@Math@Palmtree@@YA_KPEAU__tag_NUMBER_HEADER@1234@_KPEAPEAU51234@@Z@4HA
	DD	imagerel ?dtor$3@?0??PMC_DivRem_X_L_Imp@Internal@Core@Math@Palmtree@@YA_KPEAU__tag_NUMBER_HEADER@1234@_KPEAPEAU51234@@Z@4HA+39
	DD	imagerel $unwind$?dtor$3@?0??PMC_DivRem_X_L_Imp@Internal@Core@Math@Palmtree@@YA_KPEAU__tag_NUMBER_HEADER@1234@_KPEAPEAU51234@@Z@4HA
pdata	ENDS
;	COMDAT pdata
pdata	SEGMENT
$pdata$?PMC_DivRem_X_X_Imp@Internal@Core@Math@Palmtree@@YAPEAU__tag_NUMBER_HEADER@1234@PEAU51234@0PEAPEAU51234@@Z DD imagerel ?PMC_DivRem_X_X_Imp@Internal@Core@Math@Palmtree@@YAPEAU__tag_NUMBER_HEADER@1234@PEAU51234@0PEAPEAU51234@@Z
	DD	imagerel ?PMC_DivRem_X_X_Imp@Internal@Core@Math@Palmtree@@YAPEAU__tag_NUMBER_HEADER@1234@PEAU51234@0PEAPEAU51234@@Z+1986
	DD	imagerel $unwind$?PMC_DivRem_X_X_Imp@Internal@Core@Math@Palmtree@@YAPEAU__tag_NUMBER_HEADER@1234@PEAU51234@0PEAPEAU51234@@Z
pdata	ENDS
;	COMDAT pdata
pdata	SEGMENT
$pdata$?dtor$0@?0??PMC_DivRem_X_X_Imp@Internal@Core@Math@Palmtree@@YAPEAU__tag_NUMBER_HEADER@1234@PEAU51234@0PEAPEAU51234@@Z@4HA DD imagerel ?dtor$0@?0??PMC_DivRem_X_X_Imp@Internal@Core@Math@Palmtree@@YAPEAU__tag_NUMBER_HEADER@1234@PEAU51234@0PEAPEAU51234@@Z@4HA
	DD	imagerel ?dtor$0@?0??PMC_DivRem_X_X_Imp@Internal@Core@Math@Palmtree@@YAPEAU__tag_NUMBER_HEADER@1234@PEAU51234@0PEAPEAU51234@@Z@4HA+36
	DD	imagerel $unwind$?dtor$0@?0??PMC_DivRem_X_X_Imp@Internal@Core@Math@Palmtree@@YAPEAU__tag_NUMBER_HEADER@1234@PEAU51234@0PEAPEAU51234@@Z@4HA
pdata	ENDS
;	COMDAT pdata
pdata	SEGMENT
$pdata$?dtor$1@?0??PMC_DivRem_X_X_Imp@Internal@Core@Math@Palmtree@@YAPEAU__tag_NUMBER_HEADER@1234@PEAU51234@0PEAPEAU51234@@Z@4HA DD imagerel ?dtor$1@?0??PMC_DivRem_X_X_Imp@Internal@Core@Math@Palmtree@@YAPEAU__tag_NUMBER_HEADER@1234@PEAU51234@0PEAPEAU51234@@Z@4HA
	DD	imagerel ?dtor$1@?0??PMC_DivRem_X_X_Imp@Internal@Core@Math@Palmtree@@YAPEAU__tag_NUMBER_HEADER@1234@PEAU51234@0PEAPEAU51234@@Z@4HA+39
	DD	imagerel $unwind$?dtor$1@?0??PMC_DivRem_X_X_Imp@Internal@Core@Math@Palmtree@@YAPEAU__tag_NUMBER_HEADER@1234@PEAU51234@0PEAPEAU51234@@Z@4HA
pdata	ENDS
;	COMDAT pdata
pdata	SEGMENT
$pdata$?dtor$2@?0??PMC_DivRem_X_X_Imp@Internal@Core@Math@Palmtree@@YAPEAU__tag_NUMBER_HEADER@1234@PEAU51234@0PEAPEAU51234@@Z@4HA DD imagerel ?dtor$2@?0??PMC_DivRem_X_X_Imp@Internal@Core@Math@Palmtree@@YAPEAU__tag_NUMBER_HEADER@1234@PEAU51234@0PEAPEAU51234@@Z@4HA
	DD	imagerel ?dtor$2@?0??PMC_DivRem_X_X_Imp@Internal@Core@Math@Palmtree@@YAPEAU__tag_NUMBER_HEADER@1234@PEAU51234@0PEAPEAU51234@@Z@4HA+39
	DD	imagerel $unwind$?dtor$2@?0??PMC_DivRem_X_X_Imp@Internal@Core@Math@Palmtree@@YAPEAU__tag_NUMBER_HEADER@1234@PEAU51234@0PEAPEAU51234@@Z@4HA
pdata	ENDS
;	COMDAT pdata
pdata	SEGMENT
$pdata$?dtor$3@?0??PMC_DivRem_X_X_Imp@Internal@Core@Math@Palmtree@@YAPEAU__tag_NUMBER_HEADER@1234@PEAU51234@0PEAPEAU51234@@Z@4HA DD imagerel ?dtor$3@?0??PMC_DivRem_X_X_Imp@Internal@Core@Math@Palmtree@@YAPEAU__tag_NUMBER_HEADER@1234@PEAU51234@0PEAPEAU51234@@Z@4HA
	DD	imagerel ?dtor$3@?0??PMC_DivRem_X_X_Imp@Internal@Core@Math@Palmtree@@YAPEAU__tag_NUMBER_HEADER@1234@PEAU51234@0PEAPEAU51234@@Z@4HA+39
	DD	imagerel $unwind$?dtor$3@?0??PMC_DivRem_X_X_Imp@Internal@Core@Math@Palmtree@@YAPEAU__tag_NUMBER_HEADER@1234@PEAU51234@0PEAPEAU51234@@Z@4HA
pdata	ENDS
;	COMDAT rtc$TMZ
rtc$TMZ	SEGMENT
_RTC_Shutdown.rtc$TMZ DQ FLAT:_RTC_Shutdown
rtc$TMZ	ENDS
;	COMDAT rtc$IMZ
rtc$IMZ	SEGMENT
_RTC_InitBase.rtc$IMZ DQ FLAT:_RTC_InitBase
rtc$IMZ	ENDS
;	COMDAT ??_R1A@?0A@EA@InternalErrorException@Internal@Core@Math@Palmtree@@8
rdata$r	SEGMENT
??_R1A@?0A@EA@InternalErrorException@Internal@Core@Math@Palmtree@@8 DD imagerel ??_R0?AVInternalErrorException@Internal@Core@Math@Palmtree@@@8 ; Palmtree::Math::Core::Internal::InternalErrorException::`RTTI Base Class Descriptor at (0,-1,0,64)'
	DD	02H
	DD	00H
	DD	0ffffffffH
	DD	00H
	DD	040H
	DD	imagerel ??_R3InternalErrorException@Internal@Core@Math@Palmtree@@8
rdata$r	ENDS
;	COMDAT ??_R2InternalErrorException@Internal@Core@Math@Palmtree@@8
rdata$r	SEGMENT
??_R2InternalErrorException@Internal@Core@Math@Palmtree@@8 DD imagerel ??_R1A@?0A@EA@InternalErrorException@Internal@Core@Math@Palmtree@@8 ; Palmtree::Math::Core::Internal::InternalErrorException::`RTTI Base Class Array'
	DD	imagerel ??_R1A@?0A@EA@Exception@Internal@Core@Math@Palmtree@@8
	DD	imagerel ??_R1A@?0A@EN@exception@std@@8
	ORG $+3
rdata$r	ENDS
;	COMDAT ??_R3InternalErrorException@Internal@Core@Math@Palmtree@@8
rdata$r	SEGMENT
??_R3InternalErrorException@Internal@Core@Math@Palmtree@@8 DD 00H ; Palmtree::Math::Core::Internal::InternalErrorException::`RTTI Class Hierarchy Descriptor'
	DD	00H
	DD	03H
	DD	imagerel ??_R2InternalErrorException@Internal@Core@Math@Palmtree@@8
rdata$r	ENDS
;	COMDAT ??_R4InternalErrorException@Internal@Core@Math@Palmtree@@6B@
rdata$r	SEGMENT
??_R4InternalErrorException@Internal@Core@Math@Palmtree@@6B@ DD 01H ; Palmtree::Math::Core::Internal::InternalErrorException::`RTTI Complete Object Locator'
	DD	00H
	DD	00H
	DD	imagerel ??_R0?AVInternalErrorException@Internal@Core@Math@Palmtree@@@8
	DD	imagerel ??_R3InternalErrorException@Internal@Core@Math@Palmtree@@8
	DD	imagerel ??_R4InternalErrorException@Internal@Core@Math@Palmtree@@6B@
rdata$r	ENDS
;	COMDAT ??_R1A@?0A@EA@DivisionByZeroException@Internal@Core@Math@Palmtree@@8
rdata$r	SEGMENT
??_R1A@?0A@EA@DivisionByZeroException@Internal@Core@Math@Palmtree@@8 DD imagerel ??_R0?AVDivisionByZeroException@Internal@Core@Math@Palmtree@@@8 ; Palmtree::Math::Core::Internal::DivisionByZeroException::`RTTI Base Class Descriptor at (0,-1,0,64)'
	DD	02H
	DD	00H
	DD	0ffffffffH
	DD	00H
	DD	040H
	DD	imagerel ??_R3DivisionByZeroException@Internal@Core@Math@Palmtree@@8
rdata$r	ENDS
;	COMDAT ??_R2DivisionByZeroException@Internal@Core@Math@Palmtree@@8
rdata$r	SEGMENT
??_R2DivisionByZeroException@Internal@Core@Math@Palmtree@@8 DD imagerel ??_R1A@?0A@EA@DivisionByZeroException@Internal@Core@Math@Palmtree@@8 ; Palmtree::Math::Core::Internal::DivisionByZeroException::`RTTI Base Class Array'
	DD	imagerel ??_R1A@?0A@EA@Exception@Internal@Core@Math@Palmtree@@8
	DD	imagerel ??_R1A@?0A@EN@exception@std@@8
	ORG $+3
rdata$r	ENDS
;	COMDAT ??_R3DivisionByZeroException@Internal@Core@Math@Palmtree@@8
rdata$r	SEGMENT
??_R3DivisionByZeroException@Internal@Core@Math@Palmtree@@8 DD 00H ; Palmtree::Math::Core::Internal::DivisionByZeroException::`RTTI Class Hierarchy Descriptor'
	DD	00H
	DD	03H
	DD	imagerel ??_R2DivisionByZeroException@Internal@Core@Math@Palmtree@@8
rdata$r	ENDS
;	COMDAT ??_R4DivisionByZeroException@Internal@Core@Math@Palmtree@@6B@
rdata$r	SEGMENT
??_R4DivisionByZeroException@Internal@Core@Math@Palmtree@@6B@ DD 01H ; Palmtree::Math::Core::Internal::DivisionByZeroException::`RTTI Complete Object Locator'
	DD	00H
	DD	00H
	DD	imagerel ??_R0?AVDivisionByZeroException@Internal@Core@Math@Palmtree@@@8
	DD	imagerel ??_R3DivisionByZeroException@Internal@Core@Math@Palmtree@@8
	DD	imagerel ??_R4DivisionByZeroException@Internal@Core@Math@Palmtree@@6B@
rdata$r	ENDS
;	COMDAT ??_R1A@?0A@EA@ArgumentNullException@Internal@Core@Math@Palmtree@@8
rdata$r	SEGMENT
??_R1A@?0A@EA@ArgumentNullException@Internal@Core@Math@Palmtree@@8 DD imagerel ??_R0?AVArgumentNullException@Internal@Core@Math@Palmtree@@@8 ; Palmtree::Math::Core::Internal::ArgumentNullException::`RTTI Base Class Descriptor at (0,-1,0,64)'
	DD	02H
	DD	00H
	DD	0ffffffffH
	DD	00H
	DD	040H
	DD	imagerel ??_R3ArgumentNullException@Internal@Core@Math@Palmtree@@8
rdata$r	ENDS
;	COMDAT ??_R2ArgumentNullException@Internal@Core@Math@Palmtree@@8
rdata$r	SEGMENT
??_R2ArgumentNullException@Internal@Core@Math@Palmtree@@8 DD imagerel ??_R1A@?0A@EA@ArgumentNullException@Internal@Core@Math@Palmtree@@8 ; Palmtree::Math::Core::Internal::ArgumentNullException::`RTTI Base Class Array'
	DD	imagerel ??_R1A@?0A@EA@Exception@Internal@Core@Math@Palmtree@@8
	DD	imagerel ??_R1A@?0A@EN@exception@std@@8
	ORG $+3
rdata$r	ENDS
;	COMDAT ??_R3ArgumentNullException@Internal@Core@Math@Palmtree@@8
rdata$r	SEGMENT
??_R3ArgumentNullException@Internal@Core@Math@Palmtree@@8 DD 00H ; Palmtree::Math::Core::Internal::ArgumentNullException::`RTTI Class Hierarchy Descriptor'
	DD	00H
	DD	03H
	DD	imagerel ??_R2ArgumentNullException@Internal@Core@Math@Palmtree@@8
rdata$r	ENDS
;	COMDAT ??_R4ArgumentNullException@Internal@Core@Math@Palmtree@@6B@
rdata$r	SEGMENT
??_R4ArgumentNullException@Internal@Core@Math@Palmtree@@6B@ DD 01H ; Palmtree::Math::Core::Internal::ArgumentNullException::`RTTI Complete Object Locator'
	DD	00H
	DD	00H
	DD	imagerel ??_R0?AVArgumentNullException@Internal@Core@Math@Palmtree@@@8
	DD	imagerel ??_R3ArgumentNullException@Internal@Core@Math@Palmtree@@8
	DD	imagerel ??_R4ArgumentNullException@Internal@Core@Math@Palmtree@@6B@
rdata$r	ENDS
;	COMDAT ??_R1A@?0A@EN@exception@std@@8
rdata$r	SEGMENT
??_R1A@?0A@EN@exception@std@@8 DD imagerel ??_R0?AVexception@std@@@8 ; std::exception::`RTTI Base Class Descriptor at (0,-1,0,77)'
	DD	00H
	DD	00H
	DD	0ffffffffH
	DD	00H
	DD	04dH
	DD	imagerel ??_R3exception@std@@8
rdata$r	ENDS
;	COMDAT ??_R1A@?0A@EA@Exception@Internal@Core@Math@Palmtree@@8
rdata$r	SEGMENT
??_R1A@?0A@EA@Exception@Internal@Core@Math@Palmtree@@8 DD imagerel ??_R0?AVException@Internal@Core@Math@Palmtree@@@8 ; Palmtree::Math::Core::Internal::Exception::`RTTI Base Class Descriptor at (0,-1,0,64)'
	DD	01H
	DD	00H
	DD	0ffffffffH
	DD	00H
	DD	040H
	DD	imagerel ??_R3Exception@Internal@Core@Math@Palmtree@@8
rdata$r	ENDS
;	COMDAT ??_R2Exception@Internal@Core@Math@Palmtree@@8
rdata$r	SEGMENT
??_R2Exception@Internal@Core@Math@Palmtree@@8 DD imagerel ??_R1A@?0A@EA@Exception@Internal@Core@Math@Palmtree@@8 ; Palmtree::Math::Core::Internal::Exception::`RTTI Base Class Array'
	DD	imagerel ??_R1A@?0A@EN@exception@std@@8
	ORG $+3
rdata$r	ENDS
;	COMDAT ??_R3Exception@Internal@Core@Math@Palmtree@@8
rdata$r	SEGMENT
??_R3Exception@Internal@Core@Math@Palmtree@@8 DD 00H	; Palmtree::Math::Core::Internal::Exception::`RTTI Class Hierarchy Descriptor'
	DD	00H
	DD	02H
	DD	imagerel ??_R2Exception@Internal@Core@Math@Palmtree@@8
rdata$r	ENDS
;	COMDAT ??_R4Exception@Internal@Core@Math@Palmtree@@6B@
rdata$r	SEGMENT
??_R4Exception@Internal@Core@Math@Palmtree@@6B@ DD 01H	; Palmtree::Math::Core::Internal::Exception::`RTTI Complete Object Locator'
	DD	00H
	DD	00H
	DD	imagerel ??_R0?AVException@Internal@Core@Math@Palmtree@@@8
	DD	imagerel ??_R3Exception@Internal@Core@Math@Palmtree@@8
	DD	imagerel ??_R4Exception@Internal@Core@Math@Palmtree@@6B@
rdata$r	ENDS
;	COMDAT ??_R1A@?0A@EA@exception@std@@8
rdata$r	SEGMENT
??_R1A@?0A@EA@exception@std@@8 DD imagerel ??_R0?AVexception@std@@@8 ; std::exception::`RTTI Base Class Descriptor at (0,-1,0,64)'
	DD	00H
	DD	00H
	DD	0ffffffffH
	DD	00H
	DD	040H
	DD	imagerel ??_R3exception@std@@8
rdata$r	ENDS
;	COMDAT ??_R2exception@std@@8
rdata$r	SEGMENT
??_R2exception@std@@8 DD imagerel ??_R1A@?0A@EA@exception@std@@8 ; std::exception::`RTTI Base Class Array'
	ORG $+3
rdata$r	ENDS
;	COMDAT ??_R3exception@std@@8
rdata$r	SEGMENT
??_R3exception@std@@8 DD 00H				; std::exception::`RTTI Class Hierarchy Descriptor'
	DD	00H
	DD	01H
	DD	imagerel ??_R2exception@std@@8
rdata$r	ENDS
;	COMDAT ??_R0?AVexception@std@@@8
data$r	SEGMENT
??_R0?AVexception@std@@@8 DQ FLAT:??_7type_info@@6B@	; std::exception `RTTI Type Descriptor'
	DQ	0000000000000000H
	DB	'.?AVexception@std@@', 00H
data$r	ENDS
;	COMDAT ??_R4exception@std@@6B@
rdata$r	SEGMENT
??_R4exception@std@@6B@ DD 01H				; std::exception::`RTTI Complete Object Locator'
	DD	00H
	DD	00H
	DD	imagerel ??_R0?AVexception@std@@@8
	DD	imagerel ??_R3exception@std@@8
	DD	imagerel ??_R4exception@std@@6B@
rdata$r	ENDS
;	COMDAT ??_C@_1EA@KNNDHBNE@?$AAp?$AAm?$AAc?$AA_?$AAd?$AAi?$AAv?$AAr?$AAe?$AAm?$AA?4?$AAc?$AAp?$AAp?$AA?$DL@
CONST	SEGMENT
??_C@_1EA@KNNDHBNE@?$AAp?$AAm?$AAc?$AA_?$AAd?$AAi?$AAv?$AAr?$AAe?$AAm?$AA?4?$AAc?$AAp?$AAp?$AA?$DL@ DB 'p'
	DB	00H, 'm', 00H, 'c', 00H, '_', 00H, 'd', 00H, 'i', 00H, 'v', 00H
	DB	'r', 00H, 'e', 00H, 'm', 00H, '.', 00H, 'c', 00H, 'p', 00H, 'p'
	DB	00H, ';', 00H, 'P', 00H, 'M', 00H, 'C', 00H, '_', 00H, 'D', 00H
	DB	'i', 00H, 'v', 00H, 'R', 00H, 'e', 00H, 'm', 00H, '_', 00H, 'X'
	DB	00H, '_', 00H, 'L', 00H, ';', 00H, '1', 00H, 00H, 00H ; `string'
CONST	ENDS
;	COMDAT ??_C@_1EA@FKDMJIIG@?$AAp?$AAm?$AAc?$AA_?$AAd?$AAi?$AAv?$AAr?$AAe?$AAm?$AA?4?$AAc?$AAp?$AAp?$AA?$DL@
CONST	SEGMENT
??_C@_1EA@FKDMJIIG@?$AAp?$AAm?$AAc?$AA_?$AAd?$AAi?$AAv?$AAr?$AAe?$AAm?$AA?4?$AAc?$AAp?$AAp?$AA?$DL@ DB 'p'
	DB	00H, 'm', 00H, 'c', 00H, '_', 00H, 'd', 00H, 'i', 00H, 'v', 00H
	DB	'r', 00H, 'e', 00H, 'm', 00H, '.', 00H, 'c', 00H, 'p', 00H, 'p'
	DB	00H, ';', 00H, 'P', 00H, 'M', 00H, 'C', 00H, '_', 00H, 'D', 00H
	DB	'i', 00H, 'v', 00H, 'R', 00H, 'e', 00H, 'm', 00H, '_', 00H, 'L'
	DB	00H, '_', 00H, 'X', 00H, ';', 00H, '1', 00H, 00H, 00H ; `string'
CONST	ENDS
;	COMDAT ??_C@_13ICFKHAEN@?$AAu@
CONST	SEGMENT
??_C@_13ICFKHAEN@?$AAu@ DB 'u', 00H, 00H, 00H		; `string'
CONST	ENDS
;	COMDAT ??_C@_1EA@OFDDHPLA@?$AAp?$AAm?$AAc?$AA_?$AAd?$AAi?$AAv?$AAr?$AAe?$AAm?$AA?4?$AAc?$AAp?$AAp?$AA?$DL@
CONST	SEGMENT
??_C@_1EA@OFDDHPLA@?$AAp?$AAm?$AAc?$AA_?$AAd?$AAi?$AAv?$AAr?$AAe?$AAm?$AA?4?$AAc?$AAp?$AAp?$AA?$DL@ DB 'p'
	DB	00H, 'm', 00H, 'c', 00H, '_', 00H, 'd', 00H, 'i', 00H, 'v', 00H
	DB	'r', 00H, 'e', 00H, 'm', 00H, '.', 00H, 'c', 00H, 'p', 00H, 'p'
	DB	00H, ';', 00H, 'P', 00H, 'M', 00H, 'C', 00H, '_', 00H, 'D', 00H
	DB	'i', 00H, 'v', 00H, 'R', 00H, 'e', 00H, 'm', 00H, '_', 00H, 'X'
	DB	00H, '_', 00H, 'I', 00H, ';', 00H, '1', 00H, 00H, 00H ; `string'
CONST	ENDS
;	COMDAT ??_C@_1CG@BGDHBHIM@?$AA0?$AAk?$PP?$II?$PP?$IL?$AAd?$PP?$JH?$AAL?$AAL?$PP?$IP?$PP?$IM?$PP?$II?$AAF?$AAh?$AAW?$AA?$HO@
CONST	SEGMENT
??_C@_1CG@BGDHBHIM@?$AA0?$AAk?$PP?$II?$PP?$IL?$AAd?$PP?$JH?$AAL?$AAL?$PP?$IP?$PP?$IM?$PP?$II?$AAF?$AAh?$AAW?$AA?$HO@ DB '0'
	DB	00H, 'k0', 088H, '0', 08bH, '0d', 096H, 097H, '{L0L', 088H, 08fH
	DB	'0', 08cH, '0', 088H, '0F0h0W0~0W0_0', 02H, '0', 00H, 00H ; `string'
CONST	ENDS
;	COMDAT _CT??_R0?AVDivisionByZeroException@Internal@Core@Math@Palmtree@@@8??0DivisionByZeroException@Internal@Core@Math@Palmtree@@QEAA@AEBV01234@@Z48
xdata$x	SEGMENT
_CT??_R0?AVDivisionByZeroException@Internal@Core@Math@Palmtree@@@8??0DivisionByZeroException@Internal@Core@Math@Palmtree@@QEAA@AEBV01234@@Z48 DD 00H
	DD	imagerel ??_R0?AVDivisionByZeroException@Internal@Core@Math@Palmtree@@@8
	DD	00H
	DD	0ffffffffH
	ORG $+4
	DD	030H
	DD	imagerel ??0DivisionByZeroException@Internal@Core@Math@Palmtree@@QEAA@AEBV01234@@Z
xdata$x	ENDS
;	COMDAT ??_R0?AVDivisionByZeroException@Internal@Core@Math@Palmtree@@@8
data$r	SEGMENT
??_R0?AVDivisionByZeroException@Internal@Core@Math@Palmtree@@@8 DQ FLAT:??_7type_info@@6B@ ; Palmtree::Math::Core::Internal::DivisionByZeroException `RTTI Type Descriptor'
	DQ	0000000000000000H
	DB	'.?AVDivisionByZeroException@Internal@Core@Math@Palmtree@'
	DB	'@', 00H
data$r	ENDS
;	COMDAT _CTA2?AVDivisionByZeroException@Internal@Core@Math@Palmtree@@
xdata$x	SEGMENT
_CTA2?AVDivisionByZeroException@Internal@Core@Math@Palmtree@@ DD 02H
	DD	imagerel _CT??_R0?AVDivisionByZeroException@Internal@Core@Math@Palmtree@@@8??0DivisionByZeroException@Internal@Core@Math@Palmtree@@QEAA@AEBV01234@@Z48
	DD	imagerel _CT??_R0?AVException@Internal@Core@Math@Palmtree@@@8??0Exception@Internal@Core@Math@Palmtree@@QEAA@AEBV01234@@Z48
xdata$x	ENDS
;	COMDAT _TI2?AVDivisionByZeroException@Internal@Core@Math@Palmtree@@
xdata$x	SEGMENT
_TI2?AVDivisionByZeroException@Internal@Core@Math@Palmtree@@ DD 00H
	DD	imagerel ??1DivisionByZeroException@Internal@Core@Math@Palmtree@@UEAA@XZ
	DD	00H
	DD	imagerel _CTA2?AVDivisionByZeroException@Internal@Core@Math@Palmtree@@
xdata$x	ENDS
;	COMDAT ??_C@_1CK@ECFIEPAC@?$AA?$BF?$AAp?$AAk?$AAn?$AAu?$AAl?$AAl?$AAp?$AAt?$AAr?$AAL?$AA?$AO?$AAH?$PP?$IJ?$PP?$IM@
CONST	SEGMENT
??_C@_1CK@ECFIEPAC@?$AA?$BF?$AAp?$AAk?$AAn?$AAu?$AAl?$AAl?$AAp?$AAt?$AAr?$AAL?$AA?$AO?$AAH?$PP?$IJ?$PP?$IM@ DB 015H
	DB	'_pek0n', 00H, 'u', 00H, 'l', 00H, 'l', 00H, 'p', 00H, 't', 00H
	DB	'r', 00H, 'L0', 0eH, 'NH0', 089H, '0', 08cH, '0f0D0~0Y0', 02H, '0'
	DB	00H, 00H					; `string'
CONST	ENDS
;	COMDAT ??_C@_13JAOPNPKD@?$AAv@
CONST	SEGMENT
??_C@_13JAOPNPKD@?$AAv@ DB 'v', 00H, 00H, 00H		; `string'
CONST	ENDS
;	COMDAT _CT??_R0?AVArgumentNullException@Internal@Core@Math@Palmtree@@@8??0ArgumentNullException@Internal@Core@Math@Palmtree@@QEAA@AEBV01234@@Z48
xdata$x	SEGMENT
_CT??_R0?AVArgumentNullException@Internal@Core@Math@Palmtree@@@8??0ArgumentNullException@Internal@Core@Math@Palmtree@@QEAA@AEBV01234@@Z48 DD 00H
	DD	imagerel ??_R0?AVArgumentNullException@Internal@Core@Math@Palmtree@@@8
	DD	00H
	DD	0ffffffffH
	ORG $+4
	DD	030H
	DD	imagerel ??0ArgumentNullException@Internal@Core@Math@Palmtree@@QEAA@AEBV01234@@Z
xdata$x	ENDS
;	COMDAT ??_R0?AVArgumentNullException@Internal@Core@Math@Palmtree@@@8
data$r	SEGMENT
??_R0?AVArgumentNullException@Internal@Core@Math@Palmtree@@@8 DQ FLAT:??_7type_info@@6B@ ; Palmtree::Math::Core::Internal::ArgumentNullException `RTTI Type Descriptor'
	DQ	0000000000000000H
	DB	'.?AVArgumentNullException@Internal@Core@Math@Palmtree@@', 00H
data$r	ENDS
;	COMDAT _CTA2?AVArgumentNullException@Internal@Core@Math@Palmtree@@
xdata$x	SEGMENT
_CTA2?AVArgumentNullException@Internal@Core@Math@Palmtree@@ DD 02H
	DD	imagerel _CT??_R0?AVArgumentNullException@Internal@Core@Math@Palmtree@@@8??0ArgumentNullException@Internal@Core@Math@Palmtree@@QEAA@AEBV01234@@Z48
	DD	imagerel _CT??_R0?AVException@Internal@Core@Math@Palmtree@@@8??0Exception@Internal@Core@Math@Palmtree@@QEAA@AEBV01234@@Z48
xdata$x	ENDS
;	COMDAT _TI2?AVArgumentNullException@Internal@Core@Math@Palmtree@@
xdata$x	SEGMENT
_TI2?AVArgumentNullException@Internal@Core@Math@Palmtree@@ DD 00H
	DD	imagerel ??1ArgumentNullException@Internal@Core@Math@Palmtree@@UEAA@XZ
	DD	00H
	DD	imagerel _CTA2?AVArgumentNullException@Internal@Core@Math@Palmtree@@
xdata$x	ENDS
;	COMDAT ??_C@_1EA@MCJPOPJG@?$AAp?$AAm?$AAc?$AA_?$AAd?$AAi?$AAv?$AAr?$AAe?$AAm?$AA?4?$AAc?$AAp?$AAp?$AA?$DL@
CONST	SEGMENT
??_C@_1EA@MCJPOPJG@?$AAp?$AAm?$AAc?$AA_?$AAd?$AAi?$AAv?$AAr?$AAe?$AAm?$AA?4?$AAc?$AAp?$AAp?$AA?$DL@ DB 'p'
	DB	00H, 'm', 00H, 'c', 00H, '_', 00H, 'd', 00H, 'i', 00H, 'v', 00H
	DB	'r', 00H, 'e', 00H, 'm', 00H, '.', 00H, 'c', 00H, 'p', 00H, 'p'
	DB	00H, ';', 00H, 'P', 00H, 'M', 00H, 'C', 00H, '_', 00H, 'D', 00H
	DB	'i', 00H, 'v', 00H, 'R', 00H, 'e', 00H, 'm', 00H, '_', 00H, 'I'
	DB	00H, '_', 00H, 'X', 00H, ';', 00H, '1', 00H, 00H, 00H ; `string'
CONST	ENDS
;	COMDAT ??_C@_1FC@DOOHLGMA@?$AAp?$AAm?$AAc?$AA_?$AAd?$AAi?$AAv?$AAr?$AAe?$AAm?$AA?4?$AAc?$AAp?$AAp?$AA?$DL@
CONST	SEGMENT
??_C@_1FC@DOOHLGMA@?$AAp?$AAm?$AAc?$AA_?$AAd?$AAi?$AAv?$AAr?$AAe?$AAm?$AA?4?$AAc?$AAp?$AAp?$AA?$DL@ DB 'p'
	DB	00H, 'm', 00H, 'c', 00H, '_', 00H, 'd', 00H, 'i', 00H, 'v', 00H
	DB	'r', 00H, 'e', 00H, 'm', 00H, '.', 00H, 'c', 00H, 'p', 00H, 'p'
	DB	00H, ';', 00H, 'D', 00H, 'i', 00H, 'v', 00H, 'R', 00H, 'e', 00H
	DB	'm', 00H, ':', 00H, ':', 00H, '_', 00H, 'D', 00H, 'I', 00H, 'V'
	DB	00H, 'R', 00H, 'E', 00H, 'M', 00H, '_', 00H, 'U', 00H, 'N', 00H
	DB	'I', 00H, 'T', 00H, '_', 00H, 'n', 00H, 'W', 00H, ';', 00H, '9'
	DB	00H, 00H, 00H				; `string'
CONST	ENDS
;	COMDAT ??_C@_1FC@IGFLNBKF@?$AAp?$AAm?$AAc?$AA_?$AAd?$AAi?$AAv?$AAr?$AAe?$AAm?$AA?4?$AAc?$AAp?$AAp?$AA?$DL@
CONST	SEGMENT
??_C@_1FC@IGFLNBKF@?$AAp?$AAm?$AAc?$AA_?$AAd?$AAi?$AAv?$AAr?$AAe?$AAm?$AA?4?$AAc?$AAp?$AAp?$AA?$DL@ DB 'p'
	DB	00H, 'm', 00H, 'c', 00H, '_', 00H, 'd', 00H, 'i', 00H, 'v', 00H
	DB	'r', 00H, 'e', 00H, 'm', 00H, '.', 00H, 'c', 00H, 'p', 00H, 'p'
	DB	00H, ';', 00H, 'D', 00H, 'i', 00H, 'v', 00H, 'R', 00H, 'e', 00H
	DB	'm', 00H, ':', 00H, ':', 00H, '_', 00H, 'D', 00H, 'I', 00H, 'V'
	DB	00H, 'R', 00H, 'E', 00H, 'M', 00H, '_', 00H, 'U', 00H, 'N', 00H
	DB	'I', 00H, 'T', 00H, '_', 00H, 'n', 00H, 'W', 00H, ';', 00H, '8'
	DB	00H, 00H, 00H				; `string'
CONST	ENDS
;	COMDAT ??_C@_1FC@NODIMBPD@?$AAp?$AAm?$AAc?$AA_?$AAd?$AAi?$AAv?$AAr?$AAe?$AAm?$AA?4?$AAc?$AAp?$AAp?$AA?$DL@
CONST	SEGMENT
??_C@_1FC@NODIMBPD@?$AAp?$AAm?$AAc?$AA_?$AAd?$AAi?$AAv?$AAr?$AAe?$AAm?$AA?4?$AAc?$AAp?$AAp?$AA?$DL@ DB 'p'
	DB	00H, 'm', 00H, 'c', 00H, '_', 00H, 'd', 00H, 'i', 00H, 'v', 00H
	DB	'r', 00H, 'e', 00H, 'm', 00H, '.', 00H, 'c', 00H, 'p', 00H, 'p'
	DB	00H, ';', 00H, 'D', 00H, 'i', 00H, 'v', 00H, 'R', 00H, 'e', 00H
	DB	'm', 00H, ':', 00H, ':', 00H, '_', 00H, 'D', 00H, 'I', 00H, 'V'
	DB	00H, 'R', 00H, 'E', 00H, 'M', 00H, '_', 00H, 'U', 00H, 'N', 00H
	DB	'I', 00H, 'T', 00H, '_', 00H, 'n', 00H, 'W', 00H, ';', 00H, '7'
	DB	00H, 00H, 00H				; `string'
CONST	ENDS
;	COMDAT ??_C@_1FC@EDOPPJEK@?$AAp?$AAm?$AAc?$AA_?$AAd?$AAi?$AAv?$AAr?$AAe?$AAm?$AA?4?$AAc?$AAp?$AAp?$AA?$DL@
CONST	SEGMENT
??_C@_1FC@EDOPPJEK@?$AAp?$AAm?$AAc?$AA_?$AAd?$AAi?$AAv?$AAr?$AAe?$AAm?$AA?4?$AAc?$AAp?$AAp?$AA?$DL@ DB 'p'
	DB	00H, 'm', 00H, 'c', 00H, '_', 00H, 'd', 00H, 'i', 00H, 'v', 00H
	DB	'r', 00H, 'e', 00H, 'm', 00H, '.', 00H, 'c', 00H, 'p', 00H, 'p'
	DB	00H, ';', 00H, 'D', 00H, 'i', 00H, 'v', 00H, 'R', 00H, 'e', 00H
	DB	'm', 00H, ':', 00H, ':', 00H, '_', 00H, 'D', 00H, 'I', 00H, 'V'
	DB	00H, 'R', 00H, 'E', 00H, 'M', 00H, '_', 00H, 'U', 00H, 'N', 00H
	DB	'I', 00H, 'T', 00H, '_', 00H, 'n', 00H, 'W', 00H, ';', 00H, '0'
	DB	00H, 00H, 00H				; `string'
CONST	ENDS
;	COMDAT ??_C@_1FC@MOEEAMGA@?$AAp?$AAm?$AAc?$AA_?$AAd?$AAi?$AAv?$AAr?$AAe?$AAm?$AA?4?$AAc?$AAp?$AAp?$AA?$DL@
CONST	SEGMENT
??_C@_1FC@MOEEAMGA@?$AAp?$AAm?$AAc?$AA_?$AAd?$AAi?$AAv?$AAr?$AAe?$AAm?$AA?4?$AAc?$AAp?$AAp?$AA?$DL@ DB 'p'
	DB	00H, 'm', 00H, 'c', 00H, '_', 00H, 'd', 00H, 'i', 00H, 'v', 00H
	DB	'r', 00H, 'e', 00H, 'm', 00H, '.', 00H, 'c', 00H, 'p', 00H, 'p'
	DB	00H, ';', 00H, 'D', 00H, 'i', 00H, 'v', 00H, 'R', 00H, 'e', 00H
	DB	'm', 00H, ':', 00H, ':', 00H, '_', 00H, 'D', 00H, 'I', 00H, 'V'
	DB	00H, 'R', 00H, 'E', 00H, 'M', 00H, '_', 00H, 'U', 00H, 'N', 00H
	DB	'I', 00H, 'T', 00H, '_', 00H, '1', 00H, 'W', 00H, ';', 00H, '8'
	DB	00H, 00H, 00H				; `string'
CONST	ENDS
;	COMDAT ??_C@_1FC@JGCHBMDG@?$AAp?$AAm?$AAc?$AA_?$AAd?$AAi?$AAv?$AAr?$AAe?$AAm?$AA?4?$AAc?$AAp?$AAp?$AA?$DL@
CONST	SEGMENT
??_C@_1FC@JGCHBMDG@?$AAp?$AAm?$AAc?$AA_?$AAd?$AAi?$AAv?$AAr?$AAe?$AAm?$AA?4?$AAc?$AAp?$AAp?$AA?$DL@ DB 'p'
	DB	00H, 'm', 00H, 'c', 00H, '_', 00H, 'd', 00H, 'i', 00H, 'v', 00H
	DB	'r', 00H, 'e', 00H, 'm', 00H, '.', 00H, 'c', 00H, 'p', 00H, 'p'
	DB	00H, ';', 00H, 'D', 00H, 'i', 00H, 'v', 00H, 'R', 00H, 'e', 00H
	DB	'm', 00H, ':', 00H, ':', 00H, '_', 00H, 'D', 00H, 'I', 00H, 'V'
	DB	00H, 'R', 00H, 'E', 00H, 'M', 00H, '_', 00H, 'U', 00H, 'N', 00H
	DB	'I', 00H, 'T', 00H, '_', 00H, '1', 00H, 'W', 00H, ';', 00H, '7'
	DB	00H, 00H, 00H				; `string'
CONST	ENDS
;	COMDAT ??_C@_1FC@COJLHLFD@?$AAp?$AAm?$AAc?$AA_?$AAd?$AAi?$AAv?$AAr?$AAe?$AAm?$AA?4?$AAc?$AAp?$AAp?$AA?$DL@
CONST	SEGMENT
??_C@_1FC@COJLHLFD@?$AAp?$AAm?$AAc?$AA_?$AAd?$AAi?$AAv?$AAr?$AAe?$AAm?$AA?4?$AAc?$AAp?$AAp?$AA?$DL@ DB 'p'
	DB	00H, 'm', 00H, 'c', 00H, '_', 00H, 'd', 00H, 'i', 00H, 'v', 00H
	DB	'r', 00H, 'e', 00H, 'm', 00H, '.', 00H, 'c', 00H, 'p', 00H, 'p'
	DB	00H, ';', 00H, 'D', 00H, 'i', 00H, 'v', 00H, 'R', 00H, 'e', 00H
	DB	'm', 00H, ':', 00H, ':', 00H, '_', 00H, 'D', 00H, 'I', 00H, 'V'
	DB	00H, 'R', 00H, 'E', 00H, 'M', 00H, '_', 00H, 'U', 00H, 'N', 00H
	DB	'I', 00H, 'T', 00H, '_', 00H, '1', 00H, 'W', 00H, ';', 00H, '6'
	DB	00H, 00H, 00H				; `string'
CONST	ENDS
;	COMDAT ??_C@_1FC@DMCONELN@?$AAp?$AAm?$AAc?$AA_?$AAd?$AAi?$AAv?$AAr?$AAe?$AAm?$AA?4?$AAc?$AAp?$AAp?$AA?$DL@
CONST	SEGMENT
??_C@_1FC@DMCONELN@?$AAp?$AAm?$AAc?$AA_?$AAd?$AAi?$AAv?$AAr?$AAe?$AAm?$AA?4?$AAc?$AAp?$AAp?$AA?$DL@ DB 'p'
	DB	00H, 'm', 00H, 'c', 00H, '_', 00H, 'd', 00H, 'i', 00H, 'v', 00H
	DB	'r', 00H, 'e', 00H, 'm', 00H, '.', 00H, 'c', 00H, 'p', 00H, 'p'
	DB	00H, ';', 00H, 'D', 00H, 'i', 00H, 'v', 00H, 'R', 00H, 'e', 00H
	DB	'm', 00H, ':', 00H, ':', 00H, '_', 00H, 'D', 00H, 'I', 00H, 'V'
	DB	00H, 'R', 00H, 'E', 00H, 'M', 00H, '_', 00H, 'U', 00H, 'N', 00H
	DB	'I', 00H, 'T', 00H, '_', 00H, '1', 00H, 'W', 00H, ';', 00H, '5'
	DB	00H, 00H, 00H				; `string'
CONST	ENDS
;	COMDAT ??_C@_1FC@IEJCLDNI@?$AAp?$AAm?$AAc?$AA_?$AAd?$AAi?$AAv?$AAr?$AAe?$AAm?$AA?4?$AAc?$AAp?$AAp?$AA?$DL@
CONST	SEGMENT
??_C@_1FC@IEJCLDNI@?$AAp?$AAm?$AAc?$AA_?$AAd?$AAi?$AAv?$AAr?$AAe?$AAm?$AA?4?$AAc?$AAp?$AAp?$AA?$DL@ DB 'p'
	DB	00H, 'm', 00H, 'c', 00H, '_', 00H, 'd', 00H, 'i', 00H, 'v', 00H
	DB	'r', 00H, 'e', 00H, 'm', 00H, '.', 00H, 'c', 00H, 'p', 00H, 'p'
	DB	00H, ';', 00H, 'D', 00H, 'i', 00H, 'v', 00H, 'R', 00H, 'e', 00H
	DB	'm', 00H, ':', 00H, ':', 00H, '_', 00H, 'D', 00H, 'I', 00H, 'V'
	DB	00H, 'R', 00H, 'E', 00H, 'M', 00H, '_', 00H, 'U', 00H, 'N', 00H
	DB	'I', 00H, 'T', 00H, '_', 00H, '1', 00H, 'W', 00H, ';', 00H, '4'
	DB	00H, 00H, 00H				; `string'
CONST	ENDS
;	COMDAT ??_C@_1FC@BJEFILGB@?$AAp?$AAm?$AAc?$AA_?$AAd?$AAi?$AAv?$AAr?$AAe?$AAm?$AA?4?$AAc?$AAp?$AAp?$AA?$DL@
CONST	SEGMENT
??_C@_1FC@BJEFILGB@?$AAp?$AAm?$AAc?$AA_?$AAd?$AAi?$AAv?$AAr?$AAe?$AAm?$AA?4?$AAc?$AAp?$AAp?$AA?$DL@ DB 'p'
	DB	00H, 'm', 00H, 'c', 00H, '_', 00H, 'd', 00H, 'i', 00H, 'v', 00H
	DB	'r', 00H, 'e', 00H, 'm', 00H, '.', 00H, 'c', 00H, 'p', 00H, 'p'
	DB	00H, ';', 00H, 'D', 00H, 'i', 00H, 'v', 00H, 'R', 00H, 'e', 00H
	DB	'm', 00H, ':', 00H, ':', 00H, '_', 00H, 'D', 00H, 'I', 00H, 'V'
	DB	00H, 'R', 00H, 'E', 00H, 'M', 00H, '_', 00H, 'U', 00H, 'N', 00H
	DB	'I', 00H, 'T', 00H, '_', 00H, '1', 00H, 'W', 00H, ';', 00H, '3'
	DB	00H, 00H, 00H				; `string'
CONST	ENDS
;	COMDAT ??_C@_1FC@KBPJOMAE@?$AAp?$AAm?$AAc?$AA_?$AAd?$AAi?$AAv?$AAr?$AAe?$AAm?$AA?4?$AAc?$AAp?$AAp?$AA?$DL@
CONST	SEGMENT
??_C@_1FC@KBPJOMAE@?$AAp?$AAm?$AAc?$AA_?$AAd?$AAi?$AAv?$AAr?$AAe?$AAm?$AA?4?$AAc?$AAp?$AAp?$AA?$DL@ DB 'p'
	DB	00H, 'm', 00H, 'c', 00H, '_', 00H, 'd', 00H, 'i', 00H, 'v', 00H
	DB	'r', 00H, 'e', 00H, 'm', 00H, '.', 00H, 'c', 00H, 'p', 00H, 'p'
	DB	00H, ';', 00H, 'D', 00H, 'i', 00H, 'v', 00H, 'R', 00H, 'e', 00H
	DB	'm', 00H, ':', 00H, ':', 00H, '_', 00H, 'D', 00H, 'I', 00H, 'V'
	DB	00H, 'R', 00H, 'E', 00H, 'M', 00H, '_', 00H, 'U', 00H, 'N', 00H
	DB	'I', 00H, 'T', 00H, '_', 00H, '1', 00H, 'W', 00H, ';', 00H, '2'
	DB	00H, 00H, 00H				; `string'
CONST	ENDS
;	COMDAT ??_C@_1BM@FCPAHMHB@?$PP?$IF?$PP?h?$PP?$KI?$PP?i?$PP?$PM?$AAL?$AAz?$AA?$BP?$AAW?$AA?$HO?$AAW?$AA_?$AA?$AC@
CONST	SEGMENT
??_C@_1BM@FCPAHMHB@?$PP?$IF?$PP?h?$PP?$KI?$PP?i?$PP?$PM?$AAL?$AAz?$AA?$BP?$AAW?$AA?$HO?$AAW?$AA_?$AA?$AC@ DB 085H
	DB	'Q', 0e8H, 090H, 0a8H, '0', 0e9H, '0', 0fcH, '0L0zv', 01fH, 'u'
	DB	'W0~0W0_0', 02H, '0', 00H, 00H		; `string'
CONST	ENDS
;	COMDAT ??_C@_1FC@LDEMEDOK@?$AAp?$AAm?$AAc?$AA_?$AAd?$AAi?$AAv?$AAr?$AAe?$AAm?$AA?4?$AAc?$AAp?$AAp?$AA?$DL@
CONST	SEGMENT
??_C@_1FC@LDEMEDOK@?$AAp?$AAm?$AAc?$AA_?$AAd?$AAi?$AAv?$AAr?$AAe?$AAm?$AA?4?$AAc?$AAp?$AAp?$AA?$DL@ DB 'p'
	DB	00H, 'm', 00H, 'c', 00H, '_', 00H, 'd', 00H, 'i', 00H, 'v', 00H
	DB	'r', 00H, 'e', 00H, 'm', 00H, '.', 00H, 'c', 00H, 'p', 00H, 'p'
	DB	00H, ';', 00H, 'D', 00H, 'i', 00H, 'v', 00H, 'R', 00H, 'e', 00H
	DB	'm', 00H, ':', 00H, ':', 00H, '_', 00H, 'D', 00H, 'I', 00H, 'V'
	DB	00H, 'R', 00H, 'E', 00H, 'M', 00H, '_', 00H, 'U', 00H, 'N', 00H
	DB	'I', 00H, 'T', 00H, '_', 00H, '1', 00H, 'W', 00H, ';', 00H, '1'
	DB	00H, 00H, 00H				; `string'
CONST	ENDS
;	COMDAT ??_C@_1CG@CNOPPENL@?$PP?$II?$AA?$BP?$AAW?$AAf?$AAD?$AAj?$AAD?$PP?$LD?$PP?$PM?$PP?I?$AAk?$AA0?$AAT?$AAW?$AA?$HO@
CONST	SEGMENT
??_C@_1CG@CNOPPENL@?$PP?$II?$AA?$BP?$AAW?$AAf?$AAD?$AAj?$AAD?$PP?$LD?$PP?$PM?$PP?I?$AAk?$AA0?$AAT?$AAW?$AA?$HO@ DB 088H
	DB	'N', 01fH, 'gW0f0D0j0D0', 0b3H, '0', 0fcH, '0', 0c9H, '0k00RT', 090H
	DB	'W0~0W0_0', 02H, '0', 00H, 00H		; `string'
CONST	ENDS
;	COMDAT _CT??_R0?AVException@Internal@Core@Math@Palmtree@@@8??0Exception@Internal@Core@Math@Palmtree@@QEAA@AEBV01234@@Z48
xdata$x	SEGMENT
_CT??_R0?AVException@Internal@Core@Math@Palmtree@@@8??0Exception@Internal@Core@Math@Palmtree@@QEAA@AEBV01234@@Z48 DD 00H
	DD	imagerel ??_R0?AVException@Internal@Core@Math@Palmtree@@@8
	DD	00H
	DD	0ffffffffH
	ORG $+4
	DD	030H
	DD	imagerel ??0Exception@Internal@Core@Math@Palmtree@@QEAA@AEBV01234@@Z
xdata$x	ENDS
;	COMDAT ??_R0?AVException@Internal@Core@Math@Palmtree@@@8
data$r	SEGMENT
??_R0?AVException@Internal@Core@Math@Palmtree@@@8 DQ FLAT:??_7type_info@@6B@ ; Palmtree::Math::Core::Internal::Exception `RTTI Type Descriptor'
	DQ	0000000000000000H
	DB	'.?AVException@Internal@Core@Math@Palmtree@@', 00H
data$r	ENDS
;	COMDAT _CT??_R0?AVInternalErrorException@Internal@Core@Math@Palmtree@@@8??0InternalErrorException@Internal@Core@Math@Palmtree@@QEAA@AEBV01234@@Z48
xdata$x	SEGMENT
_CT??_R0?AVInternalErrorException@Internal@Core@Math@Palmtree@@@8??0InternalErrorException@Internal@Core@Math@Palmtree@@QEAA@AEBV01234@@Z48 DD 00H
	DD	imagerel ??_R0?AVInternalErrorException@Internal@Core@Math@Palmtree@@@8
	DD	00H
	DD	0ffffffffH
	ORG $+4
	DD	030H
	DD	imagerel ??0InternalErrorException@Internal@Core@Math@Palmtree@@QEAA@AEBV01234@@Z
xdata$x	ENDS
;	COMDAT ??_R0?AVInternalErrorException@Internal@Core@Math@Palmtree@@@8
data$r	SEGMENT
??_R0?AVInternalErrorException@Internal@Core@Math@Palmtree@@@8 DQ FLAT:??_7type_info@@6B@ ; Palmtree::Math::Core::Internal::InternalErrorException `RTTI Type Descriptor'
	DQ	0000000000000000H
	DB	'.?AVInternalErrorException@Internal@Core@Math@Palmtree@@'
	DB	00H
data$r	ENDS
;	COMDAT _CTA2?AVInternalErrorException@Internal@Core@Math@Palmtree@@
xdata$x	SEGMENT
_CTA2?AVInternalErrorException@Internal@Core@Math@Palmtree@@ DD 02H
	DD	imagerel _CT??_R0?AVInternalErrorException@Internal@Core@Math@Palmtree@@@8??0InternalErrorException@Internal@Core@Math@Palmtree@@QEAA@AEBV01234@@Z48
	DD	imagerel _CT??_R0?AVException@Internal@Core@Math@Palmtree@@@8??0Exception@Internal@Core@Math@Palmtree@@QEAA@AEBV01234@@Z48
xdata$x	ENDS
;	COMDAT _TI2?AVInternalErrorException@Internal@Core@Math@Palmtree@@
xdata$x	SEGMENT
_TI2?AVInternalErrorException@Internal@Core@Math@Palmtree@@ DD 00H
	DD	imagerel ??1InternalErrorException@Internal@Core@Math@Palmtree@@UEAA@XZ
	DD	00H
	DD	imagerel _CTA2?AVInternalErrorException@Internal@Core@Math@Palmtree@@
xdata$x	ENDS
;	COMDAT ??_7InternalErrorException@Internal@Core@Math@Palmtree@@6B@
CONST	SEGMENT
??_7InternalErrorException@Internal@Core@Math@Palmtree@@6B@ DQ FLAT:??_R4InternalErrorException@Internal@Core@Math@Palmtree@@6B@ ; Palmtree::Math::Core::Internal::InternalErrorException::`vftable'
	DQ	FLAT:??_EInternalErrorException@Internal@Core@Math@Palmtree@@UEAAPEAXI@Z
	DQ	FLAT:?what@exception@std@@UEBAPEBDXZ
CONST	ENDS
;	COMDAT ??_7DivisionByZeroException@Internal@Core@Math@Palmtree@@6B@
CONST	SEGMENT
??_7DivisionByZeroException@Internal@Core@Math@Palmtree@@6B@ DQ FLAT:??_R4DivisionByZeroException@Internal@Core@Math@Palmtree@@6B@ ; Palmtree::Math::Core::Internal::DivisionByZeroException::`vftable'
	DQ	FLAT:??_EDivisionByZeroException@Internal@Core@Math@Palmtree@@UEAAPEAXI@Z
	DQ	FLAT:?what@exception@std@@UEBAPEBDXZ
CONST	ENDS
;	COMDAT ??_7ArgumentNullException@Internal@Core@Math@Palmtree@@6B@
CONST	SEGMENT
??_7ArgumentNullException@Internal@Core@Math@Palmtree@@6B@ DQ FLAT:??_R4ArgumentNullException@Internal@Core@Math@Palmtree@@6B@ ; Palmtree::Math::Core::Internal::ArgumentNullException::`vftable'
	DQ	FLAT:??_EArgumentNullException@Internal@Core@Math@Palmtree@@UEAAPEAXI@Z
	DQ	FLAT:?what@exception@std@@UEBAPEBDXZ
CONST	ENDS
;	COMDAT ??_7Exception@Internal@Core@Math@Palmtree@@6B@
CONST	SEGMENT
??_7Exception@Internal@Core@Math@Palmtree@@6B@ DQ FLAT:??_R4Exception@Internal@Core@Math@Palmtree@@6B@ ; Palmtree::Math::Core::Internal::Exception::`vftable'
	DQ	FLAT:??_EException@Internal@Core@Math@Palmtree@@UEAAPEAXI@Z
	DQ	FLAT:?what@exception@std@@UEBAPEBDXZ
CONST	ENDS
;	COMDAT ??_C@_0BC@EOODALEL@Unknown?5exception@
CONST	SEGMENT
??_C@_0BC@EOODALEL@Unknown?5exception@ DB 'Unknown exception', 00H ; `string'
CONST	ENDS
;	COMDAT ??_7exception@std@@6B@
CONST	SEGMENT
??_7exception@std@@6B@ DQ FLAT:??_R4exception@std@@6B@	; std::exception::`vftable'
	DQ	FLAT:??_Eexception@std@@UEAAPEAXI@Z
	DQ	FLAT:?what@exception@std@@UEBAPEBDXZ
CONST	ENDS
;	COMDAT xdata
xdata	SEGMENT
$unwind$?dtor$3@?0??PMC_DivRem_X_X_Imp@Internal@Core@Math@Palmtree@@YAPEAU__tag_NUMBER_HEADER@1234@PEAU51234@0PEAPEAU51234@@Z@4HA DD 031001H
	DD	0700c4210H
	DD	0500bH
xdata	ENDS
;	COMDAT xdata
xdata	SEGMENT
$unwind$?dtor$2@?0??PMC_DivRem_X_X_Imp@Internal@Core@Math@Palmtree@@YAPEAU__tag_NUMBER_HEADER@1234@PEAU51234@0PEAPEAU51234@@Z@4HA DD 031001H
	DD	0700c4210H
	DD	0500bH
xdata	ENDS
;	COMDAT xdata
xdata	SEGMENT
$unwind$?dtor$1@?0??PMC_DivRem_X_X_Imp@Internal@Core@Math@Palmtree@@YAPEAU__tag_NUMBER_HEADER@1234@PEAU51234@0PEAPEAU51234@@Z@4HA DD 031001H
	DD	0700c4210H
	DD	0500bH
xdata	ENDS
;	COMDAT xdata
xdata	SEGMENT
$unwind$?dtor$0@?0??PMC_DivRem_X_X_Imp@Internal@Core@Math@Palmtree@@YAPEAU__tag_NUMBER_HEADER@1234@PEAU51234@0PEAPEAU51234@@Z@4HA DD 031001H
	DD	0700c4210H
	DD	0500bH
xdata	ENDS
;	COMDAT xdata
xdata	SEGMENT
$ip2state$?PMC_DivRem_X_X_Imp@Internal@Core@Math@Palmtree@@YAPEAU__tag_NUMBER_HEADER@1234@PEAU51234@0PEAPEAU51234@@Z DD imagerel ?PMC_DivRem_X_X_Imp@Internal@Core@Math@Palmtree@@YAPEAU__tag_NUMBER_HEADER@1234@PEAU51234@0PEAPEAU51234@@Z
	DD	0ffffffffH
	DD	imagerel ?PMC_DivRem_X_X_Imp@Internal@Core@Math@Palmtree@@YAPEAU__tag_NUMBER_HEADER@1234@PEAU51234@0PEAPEAU51234@@Z+328
	DD	00H
	DD	imagerel ?PMC_DivRem_X_X_Imp@Internal@Core@Math@Palmtree@@YAPEAU__tag_NUMBER_HEADER@1234@PEAU51234@0PEAPEAU51234@@Z+712
	DD	0ffffffffH
	DD	imagerel ?PMC_DivRem_X_X_Imp@Internal@Core@Math@Palmtree@@YAPEAU__tag_NUMBER_HEADER@1234@PEAU51234@0PEAPEAU51234@@Z+751
	DD	01H
	DD	imagerel ?PMC_DivRem_X_X_Imp@Internal@Core@Math@Palmtree@@YAPEAU__tag_NUMBER_HEADER@1234@PEAU51234@0PEAPEAU51234@@Z+993
	DD	0ffffffffH
	DD	imagerel ?PMC_DivRem_X_X_Imp@Internal@Core@Math@Palmtree@@YAPEAU__tag_NUMBER_HEADER@1234@PEAU51234@0PEAPEAU51234@@Z+1049
	DD	02H
	DD	imagerel ?PMC_DivRem_X_X_Imp@Internal@Core@Math@Palmtree@@YAPEAU__tag_NUMBER_HEADER@1234@PEAU51234@0PEAPEAU51234@@Z+1563
	DD	0ffffffffH
	DD	imagerel ?PMC_DivRem_X_X_Imp@Internal@Core@Math@Palmtree@@YAPEAU__tag_NUMBER_HEADER@1234@PEAU51234@0PEAPEAU51234@@Z+1605
	DD	03H
	DD	imagerel ?PMC_DivRem_X_X_Imp@Internal@Core@Math@Palmtree@@YAPEAU__tag_NUMBER_HEADER@1234@PEAU51234@0PEAPEAU51234@@Z+1935
	DD	0ffffffffH
xdata	ENDS
;	COMDAT xdata
xdata	SEGMENT
$stateUnwindMap$?PMC_DivRem_X_X_Imp@Internal@Core@Math@Palmtree@@YAPEAU__tag_NUMBER_HEADER@1234@PEAU51234@0PEAPEAU51234@@Z DD 0ffffffffH
	DD	imagerel ?dtor$0@?0??PMC_DivRem_X_X_Imp@Internal@Core@Math@Palmtree@@YAPEAU__tag_NUMBER_HEADER@1234@PEAU51234@0PEAPEAU51234@@Z@4HA
	DD	0ffffffffH
	DD	imagerel ?dtor$1@?0??PMC_DivRem_X_X_Imp@Internal@Core@Math@Palmtree@@YAPEAU__tag_NUMBER_HEADER@1234@PEAU51234@0PEAPEAU51234@@Z@4HA
	DD	0ffffffffH
	DD	imagerel ?dtor$2@?0??PMC_DivRem_X_X_Imp@Internal@Core@Math@Palmtree@@YAPEAU__tag_NUMBER_HEADER@1234@PEAU51234@0PEAPEAU51234@@Z@4HA
	DD	0ffffffffH
	DD	imagerel ?dtor$3@?0??PMC_DivRem_X_X_Imp@Internal@Core@Math@Palmtree@@YAPEAU__tag_NUMBER_HEADER@1234@PEAU51234@0PEAPEAU51234@@Z@4HA
xdata	ENDS
;	COMDAT xdata
xdata	SEGMENT
$unwind$?PMC_DivRem_X_X_Imp@Internal@Core@Math@Palmtree@@YAPEAU__tag_NUMBER_HEADER@1234@PEAU51234@0PEAPEAU51234@@Z DD 045053f11H
	DD	0118431dH
	DD	0701100a5H
	DD	05010H
	DD	imagerel __CxxFrameHandler3
	DD	imagerel $cppxdata$?PMC_DivRem_X_X_Imp@Internal@Core@Math@Palmtree@@YAPEAU__tag_NUMBER_HEADER@1234@PEAU51234@0PEAPEAU51234@@Z
xdata	ENDS
;	COMDAT CONST
CONST	SEGMENT
?PMC_DivRem_X_X_Imp@Internal@Core@Math@Palmtree@@YAPEAU__tag_NUMBER_HEADER@1234@PEAU51234@0PEAPEAU51234@@Z$rtcName$0 DB 072H ; Palmtree::Math::Core::Internal::PMC_DivRem_X_X_Imp
	DB	06fH
	DB	06fH
	DB	074H
	DB	00H
	ORG $+3
?PMC_DivRem_X_X_Imp@Internal@Core@Math@Palmtree@@YAPEAU__tag_NUMBER_HEADER@1234@PEAU51234@0PEAPEAU51234@@Z$rtcName$1 DB 072H ; Palmtree::Math::Core::Internal::PMC_DivRem_X_X_Imp
	DB	06fH
	DB	06fH
	DB	074H
	DB	00H
	ORG $+3
?PMC_DivRem_X_X_Imp@Internal@Core@Math@Palmtree@@YAPEAU__tag_NUMBER_HEADER@1234@PEAU51234@0PEAPEAU51234@@Z$rtcName$2 DB 072H ; Palmtree::Math::Core::Internal::PMC_DivRem_X_X_Imp
	DB	06fH
	DB	06fH
	DB	074H
	DB	00H
	ORG $+3
?PMC_DivRem_X_X_Imp@Internal@Core@Math@Palmtree@@YAPEAU__tag_NUMBER_HEADER@1234@PEAU51234@0PEAPEAU51234@@Z$rtcName$3 DB 072H ; Palmtree::Math::Core::Internal::PMC_DivRem_X_X_Imp
	DB	06fH
	DB	06fH
	DB	074H
	DB	00H
	ORG $+3
?PMC_DivRem_X_X_Imp@Internal@Core@Math@Palmtree@@YAPEAU__tag_NUMBER_HEADER@1234@PEAU51234@0PEAPEAU51234@@Z$rtcVarDesc DD 0268H ; Palmtree::Math::Core::Internal::PMC_DivRem_X_X_Imp
	DD	020H
	DQ	FLAT:?PMC_DivRem_X_X_Imp@Internal@Core@Math@Palmtree@@YAPEAU__tag_NUMBER_HEADER@1234@PEAU51234@0PEAPEAU51234@@Z$rtcName$3
	DD	01a8H
	DD	020H
	DQ	FLAT:?PMC_DivRem_X_X_Imp@Internal@Core@Math@Palmtree@@YAPEAU__tag_NUMBER_HEADER@1234@PEAU51234@0PEAPEAU51234@@Z$rtcName$2
	DD	0128H
	DD	020H
	DQ	FLAT:?PMC_DivRem_X_X_Imp@Internal@Core@Math@Palmtree@@YAPEAU__tag_NUMBER_HEADER@1234@PEAU51234@0PEAPEAU51234@@Z$rtcName$1
	DD	088H
	DD	020H
	DQ	FLAT:?PMC_DivRem_X_X_Imp@Internal@Core@Math@Palmtree@@YAPEAU__tag_NUMBER_HEADER@1234@PEAU51234@0PEAPEAU51234@@Z$rtcName$0
	ORG $+192
?PMC_DivRem_X_X_Imp@Internal@Core@Math@Palmtree@@YAPEAU__tag_NUMBER_HEADER@1234@PEAU51234@0PEAPEAU51234@@Z$rtcFrameData DD 04H ; Palmtree::Math::Core::Internal::PMC_DivRem_X_X_Imp
	DD	00H
	DQ	FLAT:?PMC_DivRem_X_X_Imp@Internal@Core@Math@Palmtree@@YAPEAU__tag_NUMBER_HEADER@1234@PEAU51234@0PEAPEAU51234@@Z$rtcVarDesc
$cppxdata$?PMC_DivRem_X_X_Imp@Internal@Core@Math@Palmtree@@YAPEAU__tag_NUMBER_HEADER@1234@PEAU51234@0PEAPEAU51234@@Z DD 019930522H
	DD	04H
	DD	imagerel $stateUnwindMap$?PMC_DivRem_X_X_Imp@Internal@Core@Math@Palmtree@@YAPEAU__tag_NUMBER_HEADER@1234@PEAU51234@0PEAPEAU51234@@Z
	DD	00H
	DD	00H
	DD	09H
	DD	imagerel $ip2state$?PMC_DivRem_X_X_Imp@Internal@Core@Math@Palmtree@@YAPEAU__tag_NUMBER_HEADER@1234@PEAU51234@0PEAPEAU51234@@Z
	DD	0508H
	DD	00H
	DD	00H
CONST	ENDS
;	COMDAT xdata
xdata	SEGMENT
$unwind$?dtor$3@?0??PMC_DivRem_X_L_Imp@Internal@Core@Math@Palmtree@@YA_KPEAU__tag_NUMBER_HEADER@1234@_KPEAPEAU51234@@Z@4HA DD 031001H
	DD	0700c4210H
	DD	0500bH
xdata	ENDS
;	COMDAT xdata
xdata	SEGMENT
$unwind$?dtor$2@?0??PMC_DivRem_X_L_Imp@Internal@Core@Math@Palmtree@@YA_KPEAU__tag_NUMBER_HEADER@1234@_KPEAPEAU51234@@Z@4HA DD 031001H
	DD	0700c4210H
	DD	0500bH
xdata	ENDS
;	COMDAT xdata
xdata	SEGMENT
$unwind$?dtor$1@?0??PMC_DivRem_X_L_Imp@Internal@Core@Math@Palmtree@@YA_KPEAU__tag_NUMBER_HEADER@1234@_KPEAPEAU51234@@Z@4HA DD 031001H
	DD	0700c4210H
	DD	0500bH
xdata	ENDS
;	COMDAT xdata
xdata	SEGMENT
$unwind$?dtor$0@?0??PMC_DivRem_X_L_Imp@Internal@Core@Math@Palmtree@@YA_KPEAU__tag_NUMBER_HEADER@1234@_KPEAPEAU51234@@Z@4HA DD 031001H
	DD	0700c4210H
	DD	0500bH
xdata	ENDS
;	COMDAT xdata
xdata	SEGMENT
$ip2state$?PMC_DivRem_X_L_Imp@Internal@Core@Math@Palmtree@@YA_KPEAU__tag_NUMBER_HEADER@1234@_KPEAPEAU51234@@Z DD imagerel ?PMC_DivRem_X_L_Imp@Internal@Core@Math@Palmtree@@YA_KPEAU__tag_NUMBER_HEADER@1234@_KPEAPEAU51234@@Z
	DD	0ffffffffH
	DD	imagerel ?PMC_DivRem_X_L_Imp@Internal@Core@Math@Palmtree@@YA_KPEAU__tag_NUMBER_HEADER@1234@_KPEAPEAU51234@@Z+410
	DD	00H
	DD	imagerel ?PMC_DivRem_X_L_Imp@Internal@Core@Math@Palmtree@@YA_KPEAU__tag_NUMBER_HEADER@1234@_KPEAPEAU51234@@Z+668
	DD	0ffffffffH
	DD	imagerel ?PMC_DivRem_X_L_Imp@Internal@Core@Math@Palmtree@@YA_KPEAU__tag_NUMBER_HEADER@1234@_KPEAPEAU51234@@Z+1018
	DD	01H
	DD	imagerel ?PMC_DivRem_X_L_Imp@Internal@Core@Math@Palmtree@@YA_KPEAU__tag_NUMBER_HEADER@1234@_KPEAPEAU51234@@Z+1445
	DD	0ffffffffH
	DD	imagerel ?PMC_DivRem_X_L_Imp@Internal@Core@Math@Palmtree@@YA_KPEAU__tag_NUMBER_HEADER@1234@_KPEAPEAU51234@@Z+1487
	DD	02H
	DD	imagerel ?PMC_DivRem_X_L_Imp@Internal@Core@Math@Palmtree@@YA_KPEAU__tag_NUMBER_HEADER@1234@_KPEAPEAU51234@@Z+1760
	DD	0ffffffffH
	DD	imagerel ?PMC_DivRem_X_L_Imp@Internal@Core@Math@Palmtree@@YA_KPEAU__tag_NUMBER_HEADER@1234@_KPEAPEAU51234@@Z+1943
	DD	03H
	DD	imagerel ?PMC_DivRem_X_L_Imp@Internal@Core@Math@Palmtree@@YA_KPEAU__tag_NUMBER_HEADER@1234@_KPEAPEAU51234@@Z+2208
	DD	0ffffffffH
xdata	ENDS
;	COMDAT xdata
xdata	SEGMENT
$stateUnwindMap$?PMC_DivRem_X_L_Imp@Internal@Core@Math@Palmtree@@YA_KPEAU__tag_NUMBER_HEADER@1234@_KPEAPEAU51234@@Z DD 0ffffffffH
	DD	imagerel ?dtor$0@?0??PMC_DivRem_X_L_Imp@Internal@Core@Math@Palmtree@@YA_KPEAU__tag_NUMBER_HEADER@1234@_KPEAPEAU51234@@Z@4HA
	DD	0ffffffffH
	DD	imagerel ?dtor$1@?0??PMC_DivRem_X_L_Imp@Internal@Core@Math@Palmtree@@YA_KPEAU__tag_NUMBER_HEADER@1234@_KPEAPEAU51234@@Z@4HA
	DD	0ffffffffH
	DD	imagerel ?dtor$2@?0??PMC_DivRem_X_L_Imp@Internal@Core@Math@Palmtree@@YA_KPEAU__tag_NUMBER_HEADER@1234@_KPEAPEAU51234@@Z@4HA
	DD	0ffffffffH
	DD	imagerel ?dtor$3@?0??PMC_DivRem_X_L_Imp@Internal@Core@Math@Palmtree@@YA_KPEAU__tag_NUMBER_HEADER@1234@_KPEAPEAU51234@@Z@4HA
xdata	ENDS
;	COMDAT xdata
xdata	SEGMENT
$unwind$?PMC_DivRem_X_L_Imp@Internal@Core@Math@Palmtree@@YA_KPEAU__tag_NUMBER_HEADER@1234@_KPEAPEAU51234@@Z DD 045053f11H
	DD	0118431dH
	DD	0701100fbH
	DD	05010H
	DD	imagerel __CxxFrameHandler3
	DD	imagerel $cppxdata$?PMC_DivRem_X_L_Imp@Internal@Core@Math@Palmtree@@YA_KPEAU__tag_NUMBER_HEADER@1234@_KPEAPEAU51234@@Z
xdata	ENDS
;	COMDAT CONST
CONST	SEGMENT
?PMC_DivRem_X_L_Imp@Internal@Core@Math@Palmtree@@YA_KPEAU__tag_NUMBER_HEADER@1234@_KPEAPEAU51234@@Z$rtcName$0 DB 076H ; Palmtree::Math::Core::Internal::PMC_DivRem_X_L_Imp
	DB	05fH
	DB	068H
	DB	069H
	DB	00H
	ORG $+3
?PMC_DivRem_X_L_Imp@Internal@Core@Math@Palmtree@@YA_KPEAU__tag_NUMBER_HEADER@1234@_KPEAPEAU51234@@Z$rtcName$1 DB 072H ; Palmtree::Math::Core::Internal::PMC_DivRem_X_L_Imp
	DB	06fH
	DB	06fH
	DB	074H
	DB	00H
	ORG $+3
?PMC_DivRem_X_L_Imp@Internal@Core@Math@Palmtree@@YA_KPEAU__tag_NUMBER_HEADER@1234@_KPEAPEAU51234@@Z$rtcName$2 DB 072H ; Palmtree::Math::Core::Internal::PMC_DivRem_X_L_Imp
	DB	05fH
	DB	062H
	DB	075H
	DB	066H
	DB	00H
	ORG $+2
?PMC_DivRem_X_L_Imp@Internal@Core@Math@Palmtree@@YA_KPEAU__tag_NUMBER_HEADER@1234@_KPEAPEAU51234@@Z$rtcName$3 DB 072H ; Palmtree::Math::Core::Internal::PMC_DivRem_X_L_Imp
	DB	06fH
	DB	06fH
	DB	074H
	DB	00H
	ORG $+3
?PMC_DivRem_X_L_Imp@Internal@Core@Math@Palmtree@@YA_KPEAU__tag_NUMBER_HEADER@1234@_KPEAPEAU51234@@Z$rtcName$4 DB 076H ; Palmtree::Math::Core::Internal::PMC_DivRem_X_L_Imp
	DB	05fH
	DB	062H
	DB	075H
	DB	066H
	DB	00H
	ORG $+2
?PMC_DivRem_X_L_Imp@Internal@Core@Math@Palmtree@@YA_KPEAU__tag_NUMBER_HEADER@1234@_KPEAPEAU51234@@Z$rtcName$5 DB 077H ; Palmtree::Math::Core::Internal::PMC_DivRem_X_L_Imp
	DB	06fH
	DB	072H
	DB	06bH
	DB	05fH
	DB	076H
	DB	05fH
	DB	062H
	DB	075H
	DB	066H
	DB	00H
	ORG $+1
?PMC_DivRem_X_L_Imp@Internal@Core@Math@Palmtree@@YA_KPEAU__tag_NUMBER_HEADER@1234@_KPEAPEAU51234@@Z$rtcName$6 DB 072H ; Palmtree::Math::Core::Internal::PMC_DivRem_X_L_Imp
	DB	06fH
	DB	06fH
	DB	074H
	DB	00H
	ORG $+3
?PMC_DivRem_X_L_Imp@Internal@Core@Math@Palmtree@@YA_KPEAU__tag_NUMBER_HEADER@1234@_KPEAPEAU51234@@Z$rtcName$7 DB 076H ; Palmtree::Math::Core::Internal::PMC_DivRem_X_L_Imp
	DB	05fH
	DB	062H
	DB	075H
	DB	066H
	DB	00H
	ORG $+6
?PMC_DivRem_X_L_Imp@Internal@Core@Math@Palmtree@@YA_KPEAU__tag_NUMBER_HEADER@1234@_KPEAPEAU51234@@Z$rtcName$8 DB 077H ; Palmtree::Math::Core::Internal::PMC_DivRem_X_L_Imp
	DB	06fH
	DB	072H
	DB	06bH
	DB	05fH
	DB	076H
	DB	05fH
	DB	062H
	DB	075H
	DB	066H
	DB	00H
	ORG $+1
?PMC_DivRem_X_L_Imp@Internal@Core@Math@Palmtree@@YA_KPEAU__tag_NUMBER_HEADER@1234@_KPEAPEAU51234@@Z$rtcName$9 DB 072H ; Palmtree::Math::Core::Internal::PMC_DivRem_X_L_Imp
	DB	06fH
	DB	06fH
	DB	074H
	DB	00H
	ORG $+3
?PMC_DivRem_X_L_Imp@Internal@Core@Math@Palmtree@@YA_KPEAU__tag_NUMBER_HEADER@1234@_KPEAPEAU51234@@Z$rtcName$10 DB 072H ; Palmtree::Math::Core::Internal::PMC_DivRem_X_L_Imp
	DB	05fH
	DB	062H
	DB	075H
	DB	066H
	DB	00H
	ORG $+6
?PMC_DivRem_X_L_Imp@Internal@Core@Math@Palmtree@@YA_KPEAU__tag_NUMBER_HEADER@1234@_KPEAPEAU51234@@Z$rtcFrameData DD 0bH ; Palmtree::Math::Core::Internal::PMC_DivRem_X_L_Imp
	DD	00H
	DQ	FLAT:?PMC_DivRem_X_L_Imp@Internal@Core@Math@Palmtree@@YA_KPEAU__tag_NUMBER_HEADER@1234@_KPEAPEAU51234@@Z$rtcVarDesc
$cppxdata$?PMC_DivRem_X_L_Imp@Internal@Core@Math@Palmtree@@YA_KPEAU__tag_NUMBER_HEADER@1234@_KPEAPEAU51234@@Z DD 019930522H
	DD	04H
	DD	imagerel $stateUnwindMap$?PMC_DivRem_X_L_Imp@Internal@Core@Math@Palmtree@@YA_KPEAU__tag_NUMBER_HEADER@1234@_KPEAPEAU51234@@Z
	DD	00H
	DD	00H
	DD	09H
	DD	imagerel $ip2state$?PMC_DivRem_X_L_Imp@Internal@Core@Math@Palmtree@@YA_KPEAU__tag_NUMBER_HEADER@1234@_KPEAPEAU51234@@Z
	DD	07b8H
	DD	00H
	DD	00H
?PMC_DivRem_X_L_Imp@Internal@Core@Math@Palmtree@@YA_KPEAU__tag_NUMBER_HEADER@1234@_KPEAPEAU51234@@Z$rtcVarDesc DD 0468H ; Palmtree::Math::Core::Internal::PMC_DivRem_X_L_Imp
	DD	08H
	DQ	FLAT:?PMC_DivRem_X_L_Imp@Internal@Core@Math@Palmtree@@YA_KPEAU__tag_NUMBER_HEADER@1234@_KPEAPEAU51234@@Z$rtcName$10
	DD	0408H
	DD	020H
	DQ	FLAT:?PMC_DivRem_X_L_Imp@Internal@Core@Math@Palmtree@@YA_KPEAU__tag_NUMBER_HEADER@1234@_KPEAPEAU51234@@Z$rtcName$9
	DD	0358H
	DD	010H
	DQ	FLAT:?PMC_DivRem_X_L_Imp@Internal@Core@Math@Palmtree@@YA_KPEAU__tag_NUMBER_HEADER@1234@_KPEAPEAU51234@@Z$rtcName$8
	DD	0328H
	DD	010H
	DQ	FLAT:?PMC_DivRem_X_L_Imp@Internal@Core@Math@Palmtree@@YA_KPEAU__tag_NUMBER_HEADER@1234@_KPEAPEAU51234@@Z$rtcName$7
	DD	02c8H
	DD	020H
	DQ	FLAT:?PMC_DivRem_X_L_Imp@Internal@Core@Math@Palmtree@@YA_KPEAU__tag_NUMBER_HEADER@1234@_KPEAPEAU51234@@Z$rtcName$6
	DD	0278H
	DD	010H
	DQ	FLAT:?PMC_DivRem_X_L_Imp@Internal@Core@Math@Palmtree@@YA_KPEAU__tag_NUMBER_HEADER@1234@_KPEAPEAU51234@@Z$rtcName$5
	DD	0248H
	DD	010H
	DQ	FLAT:?PMC_DivRem_X_L_Imp@Internal@Core@Math@Palmtree@@YA_KPEAU__tag_NUMBER_HEADER@1234@_KPEAPEAU51234@@Z$rtcName$4
	DD	01c8H
	DD	020H
	DQ	FLAT:?PMC_DivRem_X_L_Imp@Internal@Core@Math@Palmtree@@YA_KPEAU__tag_NUMBER_HEADER@1234@_KPEAPEAU51234@@Z$rtcName$3
	DD	0128H
	DD	08H
	DQ	FLAT:?PMC_DivRem_X_L_Imp@Internal@Core@Math@Palmtree@@YA_KPEAU__tag_NUMBER_HEADER@1234@_KPEAPEAU51234@@Z$rtcName$2
	DD	0c8H
	DD	020H
	DQ	FLAT:?PMC_DivRem_X_L_Imp@Internal@Core@Math@Palmtree@@YA_KPEAU__tag_NUMBER_HEADER@1234@_KPEAPEAU51234@@Z$rtcName$1
	DD	064H
	DD	04H
	DQ	FLAT:?PMC_DivRem_X_L_Imp@Internal@Core@Math@Palmtree@@YA_KPEAU__tag_NUMBER_HEADER@1234@_KPEAPEAU51234@@Z$rtcName$0
CONST	ENDS
;	COMDAT xdata
xdata	SEGMENT
$unwind$?dtor$0@?0??PMC_DivRem_X_I_Imp@Internal@Core@Math@Palmtree@@YAIPEAU__tag_NUMBER_HEADER@1234@IPEAPEAU51234@@Z@4HA DD 031001H
	DD	0700c4210H
	DD	0500bH
xdata	ENDS
;	COMDAT xdata
xdata	SEGMENT
$ip2state$?PMC_DivRem_X_I_Imp@Internal@Core@Math@Palmtree@@YAIPEAU__tag_NUMBER_HEADER@1234@IPEAPEAU51234@@Z DD imagerel ?PMC_DivRem_X_I_Imp@Internal@Core@Math@Palmtree@@YAIPEAU__tag_NUMBER_HEADER@1234@IPEAPEAU51234@@Z
	DD	0ffffffffH
	DD	imagerel ?PMC_DivRem_X_I_Imp@Internal@Core@Math@Palmtree@@YAIPEAU__tag_NUMBER_HEADER@1234@IPEAPEAU51234@@Z+367
	DD	00H
	DD	imagerel ?PMC_DivRem_X_I_Imp@Internal@Core@Math@Palmtree@@YAIPEAU__tag_NUMBER_HEADER@1234@IPEAPEAU51234@@Z+614
	DD	0ffffffffH
xdata	ENDS
;	COMDAT xdata
xdata	SEGMENT
$stateUnwindMap$?PMC_DivRem_X_I_Imp@Internal@Core@Math@Palmtree@@YAIPEAU__tag_NUMBER_HEADER@1234@IPEAPEAU51234@@Z DD 0ffffffffH
	DD	imagerel ?dtor$0@?0??PMC_DivRem_X_I_Imp@Internal@Core@Math@Palmtree@@YAIPEAU__tag_NUMBER_HEADER@1234@IPEAPEAU51234@@Z@4HA
xdata	ENDS
;	COMDAT xdata
xdata	SEGMENT
$unwind$?PMC_DivRem_X_I_Imp@Internal@Core@Math@Palmtree@@YAIPEAU__tag_NUMBER_HEADER@1234@IPEAPEAU51234@@Z DD 035053e11H
	DD	0117331cH
	DD	07010004dH
	DD	0500fH
	DD	imagerel __CxxFrameHandler3
	DD	imagerel $cppxdata$?PMC_DivRem_X_I_Imp@Internal@Core@Math@Palmtree@@YAIPEAU__tag_NUMBER_HEADER@1234@IPEAPEAU51234@@Z
xdata	ENDS
;	COMDAT CONST
CONST	SEGMENT
?PMC_DivRem_X_I_Imp@Internal@Core@Math@Palmtree@@YAIPEAU__tag_NUMBER_HEADER@1234@IPEAPEAU51234@@Z$rtcName$0 DB 072H ; Palmtree::Math::Core::Internal::PMC_DivRem_X_I_Imp
	DB	06fH
	DB	06fH
	DB	074H
	DB	00H
	ORG $+3
?PMC_DivRem_X_I_Imp@Internal@Core@Math@Palmtree@@YAIPEAU__tag_NUMBER_HEADER@1234@IPEAPEAU51234@@Z$rtcName$1 DB 072H ; Palmtree::Math::Core::Internal::PMC_DivRem_X_I_Imp
	DB	05fH
	DB	062H
	DB	075H
	DB	066H
	DB	00H
	ORG $+2
?PMC_DivRem_X_I_Imp@Internal@Core@Math@Palmtree@@YAIPEAU__tag_NUMBER_HEADER@1234@IPEAPEAU51234@@Z$rtcVarDesc DD 0d8H ; Palmtree::Math::Core::Internal::PMC_DivRem_X_I_Imp
	DD	08H
	DQ	FLAT:?PMC_DivRem_X_I_Imp@Internal@Core@Math@Palmtree@@YAIPEAU__tag_NUMBER_HEADER@1234@IPEAPEAU51234@@Z$rtcName$1
	DD	078H
	DD	020H
	DQ	FLAT:?PMC_DivRem_X_I_Imp@Internal@Core@Math@Palmtree@@YAIPEAU__tag_NUMBER_HEADER@1234@IPEAPEAU51234@@Z$rtcName$0
	ORG $+96
?PMC_DivRem_X_I_Imp@Internal@Core@Math@Palmtree@@YAIPEAU__tag_NUMBER_HEADER@1234@IPEAPEAU51234@@Z$rtcFrameData DD 02H ; Palmtree::Math::Core::Internal::PMC_DivRem_X_I_Imp
	DD	00H
	DQ	FLAT:?PMC_DivRem_X_I_Imp@Internal@Core@Math@Palmtree@@YAIPEAU__tag_NUMBER_HEADER@1234@IPEAPEAU51234@@Z$rtcVarDesc
$cppxdata$?PMC_DivRem_X_I_Imp@Internal@Core@Math@Palmtree@@YAIPEAU__tag_NUMBER_HEADER@1234@IPEAPEAU51234@@Z DD 019930522H
	DD	01H
	DD	imagerel $stateUnwindMap$?PMC_DivRem_X_I_Imp@Internal@Core@Math@Palmtree@@YAIPEAU__tag_NUMBER_HEADER@1234@IPEAPEAU51234@@Z
	DD	00H
	DD	00H
	DD	03H
	DD	imagerel $ip2state$?PMC_DivRem_X_I_Imp@Internal@Core@Math@Palmtree@@YAIPEAU__tag_NUMBER_HEADER@1234@IPEAPEAU51234@@Z
	DD	0248H
	DD	00H
	DD	00H
CONST	ENDS
;	COMDAT xdata
xdata	SEGMENT
$unwind$?DivRem_X_X_using_ADX_MULX@Internal@Core@Math@Palmtree@@YAXPEA_K_K01000@Z DD 035053901H
	DD	011d3322H
	DD	07016002fH
	DD	05015H
xdata	ENDS
;	COMDAT xdata
xdata	SEGMENT
$unwind$?DivRem_X_X_using_ADC_MUL@Internal@Core@Math@Palmtree@@YAXPEA_K_K01000@Z DD 035053901H
	DD	011d3322H
	DD	07016002fH
	DD	05015H
xdata	ENDS
;	COMDAT xdata
xdata	SEGMENT
$unwind$?AddOneLineX@Internal@Core@Math@Palmtree@@YAXPEA_K_K011@Z DD 025053901H
	DD	011d2322H
	DD	070160031H
	DD	05015H
xdata	ENDS
;	COMDAT xdata
xdata	SEGMENT
$unwind$?AddOneLine@Internal@Core@Math@Palmtree@@YAXPEA_K_K011@Z DD 025053901H
	DD	011d2322H
	DD	070160031H
	DD	05015H
xdata	ENDS
;	COMDAT xdata
xdata	SEGMENT
$unwind$?DoCarry@Internal@Core@Math@Palmtree@@YAXDPEA_K_K@Z DD 025053301H
	DD	0117231cH
	DD	07010001dH
	DD	0500fH
xdata	ENDS
;	COMDAT xdata
xdata	SEGMENT
$unwind$?SubtructOneLineX@Internal@Core@Math@Palmtree@@YAHPEA_K_K0111@Z DD 035053901H
	DD	011d3322H
	DD	070160037H
	DD	05015H
xdata	ENDS
;	COMDAT CONST
CONST	SEGMENT
?SubtructOneLineX@Internal@Core@Math@Palmtree@@YAHPEA_K_K0111@Z$rtcName$0 DB 06bH ; Palmtree::Math::Core::Internal::SubtructOneLineX
	DB	00H
	ORG $+14
?SubtructOneLineX@Internal@Core@Math@Palmtree@@YAHPEA_K_K0111@Z$rtcVarDesc DD 098H ; Palmtree::Math::Core::Internal::SubtructOneLineX
	DD	08H
	DQ	FLAT:?SubtructOneLineX@Internal@Core@Math@Palmtree@@YAHPEA_K_K0111@Z$rtcName$0
	ORG $+48
?SubtructOneLineX@Internal@Core@Math@Palmtree@@YAHPEA_K_K0111@Z$rtcFrameData DD 01H ; Palmtree::Math::Core::Internal::SubtructOneLineX
	DD	00H
	DQ	FLAT:?SubtructOneLineX@Internal@Core@Math@Palmtree@@YAHPEA_K_K0111@Z$rtcVarDesc
CONST	ENDS
;	COMDAT xdata
xdata	SEGMENT
$unwind$?SubtructOneLine@Internal@Core@Math@Palmtree@@YAHPEA_K_K0111@Z DD 035053901H
	DD	011d3322H
	DD	070160037H
	DD	05015H
xdata	ENDS
;	COMDAT CONST
CONST	SEGMENT
?SubtructOneLine@Internal@Core@Math@Palmtree@@YAHPEA_K_K0111@Z$rtcName$0 DB 06bH ; Palmtree::Math::Core::Internal::SubtructOneLine
	DB	00H
	ORG $+14
?SubtructOneLine@Internal@Core@Math@Palmtree@@YAHPEA_K_K0111@Z$rtcVarDesc DD 098H ; Palmtree::Math::Core::Internal::SubtructOneLine
	DD	08H
	DQ	FLAT:?SubtructOneLine@Internal@Core@Math@Palmtree@@YAHPEA_K_K0111@Z$rtcName$0
	ORG $+48
?SubtructOneLine@Internal@Core@Math@Palmtree@@YAHPEA_K_K0111@Z$rtcFrameData DD 01H ; Palmtree::Math::Core::Internal::SubtructOneLine
	DD	00H
	DQ	FLAT:?SubtructOneLine@Internal@Core@Math@Palmtree@@YAHPEA_K_K0111@Z$rtcVarDesc
CONST	ENDS
;	COMDAT xdata
xdata	SEGMENT
$unwind$?_MULTIPLYX_DIGIT_UNIT_DIV@Internal@Core@Math@Palmtree@@YADDPEA_K0_K0@Z DD 025053801H
	DD	011c2321H
	DD	070150027H
	DD	05014H
xdata	ENDS
;	COMDAT CONST
CONST	SEGMENT
?_MULTIPLYX_DIGIT_UNIT_DIV@Internal@Core@Math@Palmtree@@YADDPEA_K0_K0@Z$rtcName$0 DB 074H ; Palmtree::Math::Core::Internal::_MULTIPLYX_DIGIT_UNIT_DIV
	DB	05fH
	DB	068H
	DB	069H
	DB	00H
	ORG $+3
?_MULTIPLYX_DIGIT_UNIT_DIV@Internal@Core@Math@Palmtree@@YADDPEA_K0_K0@Z$rtcName$1 DB 074H ; Palmtree::Math::Core::Internal::_MULTIPLYX_DIGIT_UNIT_DIV
	DB	05fH
	DB	06cH
	DB	06fH
	DB	00H
	ORG $+3
?_MULTIPLYX_DIGIT_UNIT_DIV@Internal@Core@Math@Palmtree@@YADDPEA_K0_K0@Z$rtcVarDesc DD 048H ; Palmtree::Math::Core::Internal::_MULTIPLYX_DIGIT_UNIT_DIV
	DD	08H
	DQ	FLAT:?_MULTIPLYX_DIGIT_UNIT_DIV@Internal@Core@Math@Palmtree@@YADDPEA_K0_K0@Z$rtcName$1
	DD	028H
	DD	08H
	DQ	FLAT:?_MULTIPLYX_DIGIT_UNIT_DIV@Internal@Core@Math@Palmtree@@YADDPEA_K0_K0@Z$rtcName$0
	ORG $+96
?_MULTIPLYX_DIGIT_UNIT_DIV@Internal@Core@Math@Palmtree@@YADDPEA_K0_K0@Z$rtcFrameData DD 02H ; Palmtree::Math::Core::Internal::_MULTIPLYX_DIGIT_UNIT_DIV
	DD	00H
	DQ	FLAT:?_MULTIPLYX_DIGIT_UNIT_DIV@Internal@Core@Math@Palmtree@@YADDPEA_K0_K0@Z$rtcVarDesc
CONST	ENDS
;	COMDAT xdata
xdata	SEGMENT
$unwind$?_MULTIPLY_DIGIT_UNIT@Internal@Core@Math@Palmtree@@YADDPEA_K0_K0@Z DD 025053801H
	DD	011c2321H
	DD	070150027H
	DD	05014H
xdata	ENDS
;	COMDAT CONST
CONST	SEGMENT
?_MULTIPLY_DIGIT_UNIT@Internal@Core@Math@Palmtree@@YADDPEA_K0_K0@Z$rtcName$0 DB 074H ; Palmtree::Math::Core::Internal::_MULTIPLY_DIGIT_UNIT
	DB	05fH
	DB	068H
	DB	069H
	DB	00H
	ORG $+3
?_MULTIPLY_DIGIT_UNIT@Internal@Core@Math@Palmtree@@YADDPEA_K0_K0@Z$rtcName$1 DB 074H ; Palmtree::Math::Core::Internal::_MULTIPLY_DIGIT_UNIT
	DB	05fH
	DB	06cH
	DB	06fH
	DB	00H
	ORG $+3
?_MULTIPLY_DIGIT_UNIT@Internal@Core@Math@Palmtree@@YADDPEA_K0_K0@Z$rtcVarDesc DD 048H ; Palmtree::Math::Core::Internal::_MULTIPLY_DIGIT_UNIT
	DD	08H
	DQ	FLAT:?_MULTIPLY_DIGIT_UNIT@Internal@Core@Math@Palmtree@@YADDPEA_K0_K0@Z$rtcName$1
	DD	028H
	DD	08H
	DQ	FLAT:?_MULTIPLY_DIGIT_UNIT@Internal@Core@Math@Palmtree@@YADDPEA_K0_K0@Z$rtcName$0
	ORG $+96
?_MULTIPLY_DIGIT_UNIT@Internal@Core@Math@Palmtree@@YADDPEA_K0_K0@Z$rtcFrameData DD 02H ; Palmtree::Math::Core::Internal::_MULTIPLY_DIGIT_UNIT
	DD	00H
	DQ	FLAT:?_MULTIPLY_DIGIT_UNIT@Internal@Core@Math@Palmtree@@YADDPEA_K0_K0@Z$rtcVarDesc
CONST	ENDS
;	COMDAT xdata
xdata	SEGMENT
$unwind$?DoBorrow@Internal@Core@Math@Palmtree@@YAHDPEA_K_K@Z DD 025053301H
	DD	0117231cH
	DD	07010001dH
	DD	0500fH
xdata	ENDS
;	COMDAT xdata
xdata	SEGMENT
$unwind$?CalculateQ_X@Internal@Core@Math@Palmtree@@YA_KPEA_K0_K1@Z DD 035053901H
	DD	011d3322H
	DD	07016003bH
	DD	05015H
xdata	ENDS
;	COMDAT xdata
xdata	SEGMENT
$unwind$?CalculateQ_@Internal@Core@Math@Palmtree@@YA_KPEA_K0_K1@Z DD 035053901H
	DD	011d3322H
	DD	07016003bH
	DD	05015H
xdata	ENDS
;	COMDAT xdata
xdata	SEGMENT
$unwind$?CheckQ_X@Internal@Core@Math@Palmtree@@YAH_K00000@Z DD 025053901H
	DD	011d2322H
	DD	07016003bH
	DD	05015H
xdata	ENDS
;	COMDAT CONST
CONST	SEGMENT
?CheckQ_X@Internal@Core@Math@Palmtree@@YAH_K00000@Z$rtcName$0 DB 06cH ; Palmtree::Math::Core::Internal::CheckQ_X
	DB	068H
	DB	05fH
	DB	06dH
	DB	069H
	DB	00H
	ORG $+2
?CheckQ_X@Internal@Core@Math@Palmtree@@YAH_K00000@Z$rtcName$1 DB 072H ; Palmtree::Math::Core::Internal::CheckQ_X
	DB	068H
	DB	05fH
	DB	068H
	DB	069H
	DB	00H
	ORG $+2
?CheckQ_X@Internal@Core@Math@Palmtree@@YAH_K00000@Z$rtcName$2 DB 072H ; Palmtree::Math::Core::Internal::CheckQ_X
	DB	068H
	DB	05fH
	DB	06dH
	DB	069H
	DB	00H
	ORG $+2
?CheckQ_X@Internal@Core@Math@Palmtree@@YAH_K00000@Z$rtcName$3 DB 074H ; Palmtree::Math::Core::Internal::CheckQ_X
	DB	05fH
	DB	068H
	DB	069H
	DB	00H
	ORG $+3
?CheckQ_X@Internal@Core@Math@Palmtree@@YAH_K00000@Z$rtcVarDesc DD 0c8H ; Palmtree::Math::Core::Internal::CheckQ_X
	DD	08H
	DQ	FLAT:?CheckQ_X@Internal@Core@Math@Palmtree@@YAH_K00000@Z$rtcName$3
	DD	088H
	DD	08H
	DQ	FLAT:?CheckQ_X@Internal@Core@Math@Palmtree@@YAH_K00000@Z$rtcName$2
	DD	068H
	DD	08H
	DQ	FLAT:?CheckQ_X@Internal@Core@Math@Palmtree@@YAH_K00000@Z$rtcName$1
	DD	028H
	DD	08H
	DQ	FLAT:?CheckQ_X@Internal@Core@Math@Palmtree@@YAH_K00000@Z$rtcName$0
	ORG $+192
?CheckQ_X@Internal@Core@Math@Palmtree@@YAH_K00000@Z$rtcFrameData DD 04H ; Palmtree::Math::Core::Internal::CheckQ_X
	DD	00H
	DQ	FLAT:?CheckQ_X@Internal@Core@Math@Palmtree@@YAH_K00000@Z$rtcVarDesc
CONST	ENDS
;	COMDAT xdata
xdata	SEGMENT
$unwind$?CheckQ_@Internal@Core@Math@Palmtree@@YAH_K00000@Z DD 025053901H
	DD	011d2322H
	DD	07016003bH
	DD	05015H
xdata	ENDS
;	COMDAT CONST
CONST	SEGMENT
?CheckQ_@Internal@Core@Math@Palmtree@@YAH_K00000@Z$rtcName$0 DB 06cH ; Palmtree::Math::Core::Internal::CheckQ_
	DB	068H
	DB	05fH
	DB	06dH
	DB	069H
	DB	00H
	ORG $+2
?CheckQ_@Internal@Core@Math@Palmtree@@YAH_K00000@Z$rtcName$1 DB 072H ; Palmtree::Math::Core::Internal::CheckQ_
	DB	068H
	DB	05fH
	DB	068H
	DB	069H
	DB	00H
	ORG $+2
?CheckQ_@Internal@Core@Math@Palmtree@@YAH_K00000@Z$rtcName$2 DB 072H ; Palmtree::Math::Core::Internal::CheckQ_
	DB	068H
	DB	05fH
	DB	06dH
	DB	069H
	DB	00H
	ORG $+2
?CheckQ_@Internal@Core@Math@Palmtree@@YAH_K00000@Z$rtcName$3 DB 074H ; Palmtree::Math::Core::Internal::CheckQ_
	DB	05fH
	DB	068H
	DB	069H
	DB	00H
	ORG $+3
?CheckQ_@Internal@Core@Math@Palmtree@@YAH_K00000@Z$rtcVarDesc DD 0c8H ; Palmtree::Math::Core::Internal::CheckQ_
	DD	08H
	DQ	FLAT:?CheckQ_@Internal@Core@Math@Palmtree@@YAH_K00000@Z$rtcName$3
	DD	088H
	DD	08H
	DQ	FLAT:?CheckQ_@Internal@Core@Math@Palmtree@@YAH_K00000@Z$rtcName$2
	DD	068H
	DD	08H
	DQ	FLAT:?CheckQ_@Internal@Core@Math@Palmtree@@YAH_K00000@Z$rtcName$1
	DD	028H
	DD	08H
	DQ	FLAT:?CheckQ_@Internal@Core@Math@Palmtree@@YAH_K00000@Z$rtcName$0
	ORG $+192
?CheckQ_@Internal@Core@Math@Palmtree@@YAH_K00000@Z$rtcFrameData DD 04H ; Palmtree::Math::Core::Internal::CheckQ_
	DD	00H
	DQ	FLAT:?CheckQ_@Internal@Core@Math@Palmtree@@YAH_K00000@Z$rtcVarDesc
CONST	ENDS
;	COMDAT xdata
xdata	SEGMENT
$unwind$?AsumeQ_@Internal@Core@Math@Palmtree@@YA_K_K00@Z DD 025053401H
	DD	0118231dH
	DD	070110025H
	DD	05010H
xdata	ENDS
;	COMDAT CONST
CONST	SEGMENT
?AsumeQ_@Internal@Core@Math@Palmtree@@YA_K_K00@Z$rtcName$0 DB 072H ; Palmtree::Math::Core::Internal::AsumeQ_
	DB	00H
	ORG $+14
?AsumeQ_@Internal@Core@Math@Palmtree@@YA_K_K00@Z$rtcVarDesc DD 028H ; Palmtree::Math::Core::Internal::AsumeQ_
	DD	08H
	DQ	FLAT:?AsumeQ_@Internal@Core@Math@Palmtree@@YA_K_K00@Z$rtcName$0
	ORG $+48
?AsumeQ_@Internal@Core@Math@Palmtree@@YA_K_K00@Z$rtcFrameData DD 01H ; Palmtree::Math::Core::Internal::AsumeQ_
	DD	00H
	DQ	FLAT:?AsumeQ_@Internal@Core@Math@Palmtree@@YA_K_K00@Z$rtcVarDesc
CONST	ENDS
;	COMDAT xdata
xdata	SEGMENT
$unwind$?_DIVREM_UNIT_nW@DivRem@Internal@Core@Math@Palmtree@@YA_K_K00PEA_K@Z DD 035053901H
	DD	011d3322H
	DD	0701601bbH
	DD	05015H
xdata	ENDS
;	COMDAT CONST
CONST	SEGMENT
?_DIVREM_UNIT_nW@DivRem@Internal@Core@Math@Palmtree@@YA_K_K00PEA_K@Z$rtcName$0 DB 075H ; Palmtree::Math::Core::Internal::DivRem::_DIVREM_UNIT_nW
	DB	030H
	DB	00H
	ORG $+1
?_DIVREM_UNIT_nW@DivRem@Internal@Core@Math@Palmtree@@YA_K_K00PEA_K@Z$rtcName$1 DB 075H ; Palmtree::Math::Core::Internal::DivRem::_DIVREM_UNIT_nW
	DB	031H
	DB	00H
	ORG $+1
?_DIVREM_UNIT_nW@DivRem@Internal@Core@Math@Palmtree@@YA_K_K00PEA_K@Z$rtcName$2 DB 075H ; Palmtree::Math::Core::Internal::DivRem::_DIVREM_UNIT_nW
	DB	032H
	DB	00H
	ORG $+1
?_DIVREM_UNIT_nW@DivRem@Internal@Core@Math@Palmtree@@YA_K_K00PEA_K@Z$rtcName$3 DB 075H ; Palmtree::Math::Core::Internal::DivRem::_DIVREM_UNIT_nW
	DB	033H
	DB	00H
	ORG $+1
?_DIVREM_UNIT_nW@DivRem@Internal@Core@Math@Palmtree@@YA_K_K00PEA_K@Z$rtcName$4 DB 075H ; Palmtree::Math::Core::Internal::DivRem::_DIVREM_UNIT_nW
	DB	034H
	DB	00H
	ORG $+1
?_DIVREM_UNIT_nW@DivRem@Internal@Core@Math@Palmtree@@YA_K_K00PEA_K@Z$rtcName$5 DB 076H ; Palmtree::Math::Core::Internal::DivRem::_DIVREM_UNIT_nW
	DB	031H
	DB	00H
	ORG $+1
?_DIVREM_UNIT_nW@DivRem@Internal@Core@Math@Palmtree@@YA_K_K00PEA_K@Z$rtcName$6 DB 074H ; Palmtree::Math::Core::Internal::DivRem::_DIVREM_UNIT_nW
	DB	05fH
	DB	068H
	DB	069H
	DB	00H
	ORG $+3
?_DIVREM_UNIT_nW@DivRem@Internal@Core@Math@Palmtree@@YA_K_K00PEA_K@Z$rtcName$7 DB 074H ; Palmtree::Math::Core::Internal::DivRem::_DIVREM_UNIT_nW
	DB	074H
	DB	00H
	ORG $+1
?_DIVREM_UNIT_nW@DivRem@Internal@Core@Math@Palmtree@@YA_K_K00PEA_K@Z$rtcName$8 DB 074H ; Palmtree::Math::Core::Internal::DivRem::_DIVREM_UNIT_nW
	DB	031H
	DB	00H
	ORG $+1
?_DIVREM_UNIT_nW@DivRem@Internal@Core@Math@Palmtree@@YA_K_K00PEA_K@Z$rtcName$9 DB 074H ; Palmtree::Math::Core::Internal::DivRem::_DIVREM_UNIT_nW
	DB	05fH
	DB	068H
	DB	069H
	DB	00H
	ORG $+3
?_DIVREM_UNIT_nW@DivRem@Internal@Core@Math@Palmtree@@YA_K_K00PEA_K@Z$rtcName$10 DB 074H ; Palmtree::Math::Core::Internal::DivRem::_DIVREM_UNIT_nW
	DB	074H
	DB	00H
	ORG $+1
?_DIVREM_UNIT_nW@DivRem@Internal@Core@Math@Palmtree@@YA_K_K00PEA_K@Z$rtcName$11 DB 074H ; Palmtree::Math::Core::Internal::DivRem::_DIVREM_UNIT_nW
	DB	031H
	DB	00H
	ORG $+1
?_DIVREM_UNIT_nW@DivRem@Internal@Core@Math@Palmtree@@YA_K_K00PEA_K@Z$rtcName$12 DB 074H ; Palmtree::Math::Core::Internal::DivRem::_DIVREM_UNIT_nW
	DB	05fH
	DB	068H
	DB	069H
	DB	00H
	ORG $+3
?_DIVREM_UNIT_nW@DivRem@Internal@Core@Math@Palmtree@@YA_K_K00PEA_K@Z$rtcName$13 DB 074H ; Palmtree::Math::Core::Internal::DivRem::_DIVREM_UNIT_nW
	DB	074H
	DB	00H
	ORG $+1
?_DIVREM_UNIT_nW@DivRem@Internal@Core@Math@Palmtree@@YA_K_K00PEA_K@Z$rtcName$14 DB 074H ; Palmtree::Math::Core::Internal::DivRem::_DIVREM_UNIT_nW
	DB	031H
	DB	00H
	ORG $+1
?_DIVREM_UNIT_nW@DivRem@Internal@Core@Math@Palmtree@@YA_K_K00PEA_K@Z$rtcName$15 DB 074H ; Palmtree::Math::Core::Internal::DivRem::_DIVREM_UNIT_nW
	DB	031H
	DB	05fH
	DB	068H
	DB	069H
	DB	00H
	ORG $+2
?_DIVREM_UNIT_nW@DivRem@Internal@Core@Math@Palmtree@@YA_K_K00PEA_K@Z$rtcName$16 DB 074H ; Palmtree::Math::Core::Internal::DivRem::_DIVREM_UNIT_nW
	DB	032H
	DB	05fH
	DB	068H
	DB	069H
	DB	00H
	ORG $+2
?_DIVREM_UNIT_nW@DivRem@Internal@Core@Math@Palmtree@@YA_K_K00PEA_K@Z$rtcName$17 DB 074H ; Palmtree::Math::Core::Internal::DivRem::_DIVREM_UNIT_nW
	DB	05fH
	DB	076H
	DB	068H
	DB	00H
	ORG $+3
?_DIVREM_UNIT_nW@DivRem@Internal@Core@Math@Palmtree@@YA_K_K00PEA_K@Z$rtcName$18 DB 074H ; Palmtree::Math::Core::Internal::DivRem::_DIVREM_UNIT_nW
	DB	05fH
	DB	068H
	DB	069H
	DB	00H
	ORG $+3
?_DIVREM_UNIT_nW@DivRem@Internal@Core@Math@Palmtree@@YA_K_K00PEA_K@Z$rtcName$19 DB 074H ; Palmtree::Math::Core::Internal::DivRem::_DIVREM_UNIT_nW
	DB	05fH
	DB	06cH
	DB	06fH
	DB	00H
	ORG $+3
?_DIVREM_UNIT_nW@DivRem@Internal@Core@Math@Palmtree@@YA_K_K00PEA_K@Z$rtcVarDesc DD 0658H ; Palmtree::Math::Core::Internal::DivRem::_DIVREM_UNIT_nW
	DD	08H
	DQ	FLAT:?_DIVREM_UNIT_nW@DivRem@Internal@Core@Math@Palmtree@@YA_K_K00PEA_K@Z$rtcName$19
	DD	0638H
	DD	08H
	DQ	FLAT:?_DIVREM_UNIT_nW@DivRem@Internal@Core@Math@Palmtree@@YA_K_K00PEA_K@Z$rtcName$18
	DD	0618H
	DD	08H
	DQ	FLAT:?_DIVREM_UNIT_nW@DivRem@Internal@Core@Math@Palmtree@@YA_K_K00PEA_K@Z$rtcName$17
	DD	05d8H
	DD	08H
	DQ	FLAT:?_DIVREM_UNIT_nW@DivRem@Internal@Core@Math@Palmtree@@YA_K_K00PEA_K@Z$rtcName$16
	DD	0598H
	DD	08H
	DQ	FLAT:?_DIVREM_UNIT_nW@DivRem@Internal@Core@Math@Palmtree@@YA_K_K00PEA_K@Z$rtcName$15
	DD	0494H
	DD	04H
	DQ	FLAT:?_DIVREM_UNIT_nW@DivRem@Internal@Core@Math@Palmtree@@YA_K_K00PEA_K@Z$rtcName$14
	DD	0454H
	DD	04H
	DQ	FLAT:?_DIVREM_UNIT_nW@DivRem@Internal@Core@Math@Palmtree@@YA_K_K00PEA_K@Z$rtcName$13
	DD	0418H
	DD	08H
	DQ	FLAT:?_DIVREM_UNIT_nW@DivRem@Internal@Core@Math@Palmtree@@YA_K_K00PEA_K@Z$rtcName$12
	DD	0394H
	DD	04H
	DQ	FLAT:?_DIVREM_UNIT_nW@DivRem@Internal@Core@Math@Palmtree@@YA_K_K00PEA_K@Z$rtcName$11
	DD	0354H
	DD	04H
	DQ	FLAT:?_DIVREM_UNIT_nW@DivRem@Internal@Core@Math@Palmtree@@YA_K_K00PEA_K@Z$rtcName$10
	DD	0318H
	DD	08H
	DQ	FLAT:?_DIVREM_UNIT_nW@DivRem@Internal@Core@Math@Palmtree@@YA_K_K00PEA_K@Z$rtcName$9
	DD	0294H
	DD	04H
	DQ	FLAT:?_DIVREM_UNIT_nW@DivRem@Internal@Core@Math@Palmtree@@YA_K_K00PEA_K@Z$rtcName$8
	DD	0254H
	DD	04H
	DQ	FLAT:?_DIVREM_UNIT_nW@DivRem@Internal@Core@Math@Palmtree@@YA_K_K00PEA_K@Z$rtcName$7
	DD	0218H
	DD	08H
	DQ	FLAT:?_DIVREM_UNIT_nW@DivRem@Internal@Core@Math@Palmtree@@YA_K_K00PEA_K@Z$rtcName$6
	DD	0154H
	DD	04H
	DQ	FLAT:?_DIVREM_UNIT_nW@DivRem@Internal@Core@Math@Palmtree@@YA_K_K00PEA_K@Z$rtcName$5
	DD	0134H
	DD	04H
	DQ	FLAT:?_DIVREM_UNIT_nW@DivRem@Internal@Core@Math@Palmtree@@YA_K_K00PEA_K@Z$rtcName$4
	DD	0114H
	DD	04H
	DQ	FLAT:?_DIVREM_UNIT_nW@DivRem@Internal@Core@Math@Palmtree@@YA_K_K00PEA_K@Z$rtcName$3
	DD	0f4H
	DD	04H
	DQ	FLAT:?_DIVREM_UNIT_nW@DivRem@Internal@Core@Math@Palmtree@@YA_K_K00PEA_K@Z$rtcName$2
	DD	0d4H
	DD	04H
	DQ	FLAT:?_DIVREM_UNIT_nW@DivRem@Internal@Core@Math@Palmtree@@YA_K_K00PEA_K@Z$rtcName$1
	DD	0b4H
	DD	04H
	DQ	FLAT:?_DIVREM_UNIT_nW@DivRem@Internal@Core@Math@Palmtree@@YA_K_K00PEA_K@Z$rtcName$0
	ORG $+960
?_DIVREM_UNIT_nW@DivRem@Internal@Core@Math@Palmtree@@YA_K_K00PEA_K@Z$rtcFrameData DD 014H ; Palmtree::Math::Core::Internal::DivRem::_DIVREM_UNIT_nW
	DD	00H
	DQ	FLAT:?_DIVREM_UNIT_nW@DivRem@Internal@Core@Math@Palmtree@@YA_K_K00PEA_K@Z$rtcVarDesc
CONST	ENDS
;	COMDAT xdata
xdata	SEGMENT
$unwind$?_Calculate_Q_@DivRem@Internal@Core@Math@Palmtree@@YAIIIIII@Z DD 035053601H
	DD	011b3320H
	DD	070140023H
	DD	05013H
xdata	ENDS
;	COMDAT xdata
xdata	SEGMENT
$unwind$?_Check_Q_@DivRem@Internal@Core@Math@Palmtree@@YAHIIIIII@Z DD 025053601H
	DD	011b2320H
	DD	070140049H
	DD	05013H
xdata	ENDS
;	COMDAT CONST
CONST	SEGMENT
?_Check_Q_@DivRem@Internal@Core@Math@Palmtree@@YAHIIIIII@Z$rtcName$0 DB 078H ; Palmtree::Math::Core::Internal::DivRem::_Check_Q_
	DB	031H
	DB	05fH
	DB	068H
	DB	069H
	DB	00H
	ORG $+2
?_Check_Q_@DivRem@Internal@Core@Math@Palmtree@@YAHIIIIII@Z$rtcName$1 DB 078H ; Palmtree::Math::Core::Internal::DivRem::_Check_Q_
	DB	032H
	DB	05fH
	DB	068H
	DB	069H
	DB	00H
	ORG $+2
?_Check_Q_@DivRem@Internal@Core@Math@Palmtree@@YAHIIIIII@Z$rtcName$2 DB 06cH ; Palmtree::Math::Core::Internal::DivRem::_Check_Q_
	DB	068H
	DB	032H
	DB	00H
?_Check_Q_@DivRem@Internal@Core@Math@Palmtree@@YAHIIIIII@Z$rtcName$3 DB 06cH ; Palmtree::Math::Core::Internal::DivRem::_Check_Q_
	DB	068H
	DB	031H
	DB	00H
?_Check_Q_@DivRem@Internal@Core@Math@Palmtree@@YAHIIIIII@Z$rtcName$4 DB 06cH ; Palmtree::Math::Core::Internal::DivRem::_Check_Q_
	DB	068H
	DB	030H
	DB	00H
	ORG $+4
?_Check_Q_@DivRem@Internal@Core@Math@Palmtree@@YAHIIIIII@Z$rtcVarDesc DD 0e4H ; Palmtree::Math::Core::Internal::DivRem::_Check_Q_
	DD	04H
	DQ	FLAT:?_Check_Q_@DivRem@Internal@Core@Math@Palmtree@@YAHIIIIII@Z$rtcName$4
	DD	0c4H
	DD	04H
	DQ	FLAT:?_Check_Q_@DivRem@Internal@Core@Math@Palmtree@@YAHIIIIII@Z$rtcName$3
	DD	0a4H
	DD	04H
	DQ	FLAT:?_Check_Q_@DivRem@Internal@Core@Math@Palmtree@@YAHIIIIII@Z$rtcName$2
	DD	064H
	DD	04H
	DQ	FLAT:?_Check_Q_@DivRem@Internal@Core@Math@Palmtree@@YAHIIIIII@Z$rtcName$1
	DD	024H
	DD	04H
	DQ	FLAT:?_Check_Q_@DivRem@Internal@Core@Math@Palmtree@@YAHIIIIII@Z$rtcName$0
	ORG $+240
?_Check_Q_@DivRem@Internal@Core@Math@Palmtree@@YAHIIIIII@Z$rtcFrameData DD 05H ; Palmtree::Math::Core::Internal::DivRem::_Check_Q_
	DD	00H
	DQ	FLAT:?_Check_Q_@DivRem@Internal@Core@Math@Palmtree@@YAHIIIIII@Z$rtcVarDesc
CONST	ENDS
;	COMDAT xdata
xdata	SEGMENT
$unwind$?_Asume_Q_@DivRem@Internal@Core@Math@Palmtree@@YAIIII@Z DD 025053101H
	DD	0116231bH
	DD	0700f001fH
	DD	0500eH
xdata	ENDS
;	COMDAT xdata
xdata	SEGMENT
$unwind$?_DIVREM_UNIT_1W@DivRem@Internal@Core@Math@Palmtree@@YA_K_K0IPEA_K@Z DD 025053901H
	DD	011d2322H
	DD	0701600edH
	DD	05015H
xdata	ENDS
;	COMDAT CONST
CONST	SEGMENT
?_DIVREM_UNIT_1W@DivRem@Internal@Core@Math@Palmtree@@YA_K_K0IPEA_K@Z$rtcName$0 DB 075H ; Palmtree::Math::Core::Internal::DivRem::_DIVREM_UNIT_1W
	DB	031H
	DB	00H
	ORG $+1
?_DIVREM_UNIT_1W@DivRem@Internal@Core@Math@Palmtree@@YA_K_K0IPEA_K@Z$rtcName$1 DB 075H ; Palmtree::Math::Core::Internal::DivRem::_DIVREM_UNIT_1W
	DB	033H
	DB	00H
	ORG $+1
?_DIVREM_UNIT_1W@DivRem@Internal@Core@Math@Palmtree@@YA_K_K0IPEA_K@Z$rtcName$2 DB 074H ; Palmtree::Math::Core::Internal::DivRem::_DIVREM_UNIT_1W
	DB	05fH
	DB	075H
	DB	034H
	DB	00H
	ORG $+3
?_DIVREM_UNIT_1W@DivRem@Internal@Core@Math@Palmtree@@YA_K_K0IPEA_K@Z$rtcName$3 DB 074H ; Palmtree::Math::Core::Internal::DivRem::_DIVREM_UNIT_1W
	DB	05fH
	DB	075H
	DB	033H
	DB	00H
	ORG $+3
?_DIVREM_UNIT_1W@DivRem@Internal@Core@Math@Palmtree@@YA_K_K0IPEA_K@Z$rtcName$4 DB 074H ; Palmtree::Math::Core::Internal::DivRem::_DIVREM_UNIT_1W
	DB	05fH
	DB	075H
	DB	032H
	DB	00H
	ORG $+3
?_DIVREM_UNIT_1W@DivRem@Internal@Core@Math@Palmtree@@YA_K_K0IPEA_K@Z$rtcName$5 DB 074H ; Palmtree::Math::Core::Internal::DivRem::_DIVREM_UNIT_1W
	DB	05fH
	DB	075H
	DB	031H
	DB	00H
	ORG $+3
?_DIVREM_UNIT_1W@DivRem@Internal@Core@Math@Palmtree@@YA_K_K0IPEA_K@Z$rtcName$6 DB 074H ; Palmtree::Math::Core::Internal::DivRem::_DIVREM_UNIT_1W
	DB	05fH
	DB	075H
	DB	030H
	DB	00H
	ORG $+3
?_DIVREM_UNIT_1W@DivRem@Internal@Core@Math@Palmtree@@YA_K_K0IPEA_K@Z$rtcVarDesc DD 0264H ; Palmtree::Math::Core::Internal::DivRem::_DIVREM_UNIT_1W
	DD	04H
	DQ	FLAT:?_DIVREM_UNIT_1W@DivRem@Internal@Core@Math@Palmtree@@YA_K_K0IPEA_K@Z$rtcName$6
	DD	0244H
	DD	04H
	DQ	FLAT:?_DIVREM_UNIT_1W@DivRem@Internal@Core@Math@Palmtree@@YA_K_K0IPEA_K@Z$rtcName$5
	DD	0224H
	DD	04H
	DQ	FLAT:?_DIVREM_UNIT_1W@DivRem@Internal@Core@Math@Palmtree@@YA_K_K0IPEA_K@Z$rtcName$4
	DD	0204H
	DD	04H
	DQ	FLAT:?_DIVREM_UNIT_1W@DivRem@Internal@Core@Math@Palmtree@@YA_K_K0IPEA_K@Z$rtcName$3
	DD	01e4H
	DD	04H
	DQ	FLAT:?_DIVREM_UNIT_1W@DivRem@Internal@Core@Math@Palmtree@@YA_K_K0IPEA_K@Z$rtcName$2
	DD	084H
	DD	04H
	DQ	FLAT:?_DIVREM_UNIT_1W@DivRem@Internal@Core@Math@Palmtree@@YA_K_K0IPEA_K@Z$rtcName$1
	DD	044H
	DD	04H
	DQ	FLAT:?_DIVREM_UNIT_1W@DivRem@Internal@Core@Math@Palmtree@@YA_K_K0IPEA_K@Z$rtcName$0
	ORG $+336
?_DIVREM_UNIT_1W@DivRem@Internal@Core@Math@Palmtree@@YA_K_K0IPEA_K@Z$rtcFrameData DD 07H ; Palmtree::Math::Core::Internal::DivRem::_DIVREM_UNIT_1W
	DD	00H
	DQ	FLAT:?_DIVREM_UNIT_1W@DivRem@Internal@Core@Math@Palmtree@@YA_K_K0IPEA_K@Z$rtcVarDesc
CONST	ENDS
;	COMDAT xdata
xdata	SEGMENT
$unwind$_ADD_2WORDS_ADCX DD 025053801H
	DD	011c2321H
	DD	07015001dH
	DD	05014H
xdata	ENDS
;	COMDAT xdata
xdata	SEGMENT
$unwind$_ADD_2WORDS_ADC DD 025053801H
	DD	011c2321H
	DD	07015001dH
	DD	05014H
xdata	ENDS
;	COMDAT xdata
xdata	SEGMENT
$unwind$_ADD_4WORDS_ADCX DD 025053801H
	DD	011c2321H
	DD	07015001dH
	DD	05014H
xdata	ENDS
;	COMDAT xdata
xdata	SEGMENT
$unwind$_ADD_4WORDS_ADC DD 025053801H
	DD	011c2321H
	DD	07015001dH
	DD	05014H
xdata	ENDS
;	COMDAT xdata
xdata	SEGMENT
$unwind$_ADD_8WORDS_ADCX DD 025053801H
	DD	011c2321H
	DD	07015001dH
	DD	05014H
xdata	ENDS
;	COMDAT xdata
xdata	SEGMENT
$unwind$_ADD_8WORDS_ADC DD 025053801H
	DD	011c2321H
	DD	07015001dH
	DD	05014H
xdata	ENDS
;	COMDAT xdata
xdata	SEGMENT
$unwind$_ADD_16WORDS_ADCX DD 025053801H
	DD	011c2321H
	DD	07015001dH
	DD	05014H
xdata	ENDS
;	COMDAT xdata
xdata	SEGMENT
$unwind$_ADD_16WORDS_ADC DD 025053801H
	DD	011c2321H
	DD	07015001dH
	DD	05014H
xdata	ENDS
;	COMDAT xdata
xdata	SEGMENT
$unwind$_ADD_32WORDS_ADCX DD 025053801H
	DD	011c2321H
	DD	07015001dH
	DD	05014H
xdata	ENDS
;	COMDAT xdata
xdata	SEGMENT
$unwind$_ADD_32WORDS_ADC DD 025053801H
	DD	011c2321H
	DD	07015001dH
	DD	05014H
xdata	ENDS
;	COMDAT xdata
xdata	SEGMENT
$unwind$_LZCNT_ALT_UNIT DD 025052a01H
	DD	010e2313H
	DD	070070021H
	DD	05006H
xdata	ENDS
;	COMDAT CONST
CONST	SEGMENT
_LZCNT_ALT_UNIT$rtcName$0 DB 070H
	DB	06fH
	DB	073H
	DB	00H
	ORG $+12
_LZCNT_ALT_UNIT$rtcVarDesc DD 024H
	DD	04H
	DQ	FLAT:_LZCNT_ALT_UNIT$rtcName$0
	ORG $+48
_LZCNT_ALT_UNIT$rtcFrameData DD 01H
	DD	00H
	DQ	FLAT:_LZCNT_ALT_UNIT$rtcVarDesc
CONST	ENDS
;	COMDAT xdata
xdata	SEGMENT
$unwind$_LZCNT_ALT_64 DD 025052a01H
	DD	010e2313H
	DD	070070021H
	DD	05006H
xdata	ENDS
;	COMDAT CONST
CONST	SEGMENT
_LZCNT_ALT_64$rtcName$0 DB 070H
	DB	06fH
	DB	073H
	DB	00H
	ORG $+12
_LZCNT_ALT_64$rtcVarDesc DD 024H
	DD	04H
	DQ	FLAT:_LZCNT_ALT_64$rtcName$0
	ORG $+48
_LZCNT_ALT_64$rtcFrameData DD 01H
	DD	00H
	DQ	FLAT:_LZCNT_ALT_64$rtcVarDesc
CONST	ENDS
;	COMDAT xdata
xdata	SEGMENT
$unwind$_LZCNT_ALT_32 DD 025052801H
	DD	010d2312H
	DD	070060021H
	DD	05005H
xdata	ENDS
;	COMDAT CONST
CONST	SEGMENT
_LZCNT_ALT_32$rtcName$0 DB 070H
	DB	06fH
	DB	073H
	DB	00H
	ORG $+12
_LZCNT_ALT_32$rtcVarDesc DD 024H
	DD	04H
	DQ	FLAT:_LZCNT_ALT_32$rtcName$0
	ORG $+48
_LZCNT_ALT_32$rtcFrameData DD 01H
	DD	00H
	DQ	FLAT:_LZCNT_ALT_32$rtcVarDesc
CONST	ENDS
;	COMDAT xdata
xdata	SEGMENT
$unwind$_DIVREM_SINGLE_UNIT DD 025053901H
	DD	011d2322H
	DD	070160021H
	DD	05015H
xdata	ENDS
;	COMDAT CONST
CONST	SEGMENT
_DIVREM_SINGLE_UNIT$rtcName$0 DB 052H
	DB	052H
	DB	00H
	ORG $+13
_DIVREM_SINGLE_UNIT$rtcVarDesc DD 028H
	DD	08H
	DQ	FLAT:_DIVREM_SINGLE_UNIT$rtcName$0
	ORG $+48
_DIVREM_SINGLE_UNIT$rtcFrameData DD 01H
	DD	00H
	DQ	FLAT:_DIVREM_SINGLE_UNIT$rtcVarDesc
CONST	ENDS
;	COMDAT xdata
xdata	SEGMENT
$unwind$_DIVREM_UNIT DD 025053901H
	DD	011d2322H
	DD	07016002dH
	DD	05015H
xdata	ENDS
;	COMDAT CONST
CONST	SEGMENT
_DIVREM_UNIT$rtcName$0 DB 076H
	DB	05fH
	DB	068H
	DB	069H
	DB	00H
	ORG $+11
_DIVREM_UNIT$rtcVarDesc DD 024H
	DD	04H
	DQ	FLAT:_DIVREM_UNIT$rtcName$0
	ORG $+48
_DIVREM_UNIT$rtcFrameData DD 01H
	DD	00H
	DQ	FLAT:_DIVREM_UNIT$rtcVarDesc
CONST	ENDS
;	COMDAT xdata
xdata	SEGMENT
$unwind$_MULTIPLYX_UNIT DD 025053401H
	DD	0118231dH
	DD	07011001dH
	DD	05010H
xdata	ENDS
;	COMDAT xdata
xdata	SEGMENT
$unwind$_MULTIPLY_UNIT DD 025053401H
	DD	0118231dH
	DD	07011001fH
	DD	05010H
xdata	ENDS
;	COMDAT xdata
xdata	SEGMENT
$unwind$_SUBTRUCT_UNIT DD 025053801H
	DD	011c2321H
	DD	07015001dH
	DD	05014H
xdata	ENDS
;	COMDAT xdata
xdata	SEGMENT
$unwind$_ADDX_UNIT DD 025053801H
	DD	011c2321H
	DD	07015001dH
	DD	05014H
xdata	ENDS
;	COMDAT xdata
xdata	SEGMENT
$unwind$_ADD_UNIT DD 025053801H
	DD	011c2321H
	DD	07015001dH
	DD	05014H
xdata	ENDS
;	COMDAT xdata
xdata	SEGMENT
$unwind$_FROMDWORDTOWORD DD 025052f01H
	DD	01132318H
	DD	0700c001dH
	DD	0500bH
xdata	ENDS
;	COMDAT xdata
xdata	SEGMENT
$unwind$_FROMWORDTODWORD DD 025052c01H
	DD	01112316H
	DD	0700a001dH
	DD	05009H
xdata	ENDS
;	COMDAT xdata
xdata	SEGMENT
$unwind$_COPY_MEMORY_UNIT DD 025063501H
	DD	0119231eH
	DD	07012001cH
	DD	050106011H
xdata	ENDS
;	COMDAT xdata
xdata	SEGMENT
$unwind$?AddToMULTI64Counter@Internal@Core@Math@Palmtree@@YAXH@Z DD 025052801H
	DD	010d2312H
	DD	07006001dH
	DD	05005H
xdata	ENDS
;	COMDAT xdata
xdata	SEGMENT
$unwind$?AddToMULTI32Counter@Internal@Core@Math@Palmtree@@YAXH@Z DD 025052801H
	DD	010d2312H
	DD	07006001dH
	DD	05005H
xdata	ENDS
;	COMDAT xdata
xdata	SEGMENT
$unwind$?AddToDIV64Counter@Internal@Core@Math@Palmtree@@YAXH@Z DD 025052801H
	DD	010d2312H
	DD	07006001dH
	DD	05005H
xdata	ENDS
;	COMDAT xdata
xdata	SEGMENT
$unwind$?AddToDIV32Counter@Internal@Core@Math@Palmtree@@YAXH@Z DD 025052801H
	DD	010d2312H
	DD	07006001dH
	DD	05005H
xdata	ENDS
;	COMDAT xdata
xdata	SEGMENT
$unwind$?IncrementMULTI64Counter@Internal@Core@Math@Palmtree@@YAXXZ DD 025051e01H
	DD	010a230fH
	DD	07003001dH
	DD	05002H
xdata	ENDS
;	COMDAT xdata
xdata	SEGMENT
$unwind$?IncrementMULTI32Counter@Internal@Core@Math@Palmtree@@YAXXZ DD 025051e01H
	DD	010a230fH
	DD	07003001dH
	DD	05002H
xdata	ENDS
;	COMDAT xdata
xdata	SEGMENT
$unwind$?IncrementDIV64Counter@Internal@Core@Math@Palmtree@@YAXXZ DD 025051e01H
	DD	010a230fH
	DD	07003001dH
	DD	05002H
xdata	ENDS
;	COMDAT xdata
xdata	SEGMENT
$unwind$?IncrementDIV32Counter@Internal@Core@Math@Palmtree@@YAXXZ DD 025051e01H
	DD	010a230fH
	DD	07003001dH
	DD	05002H
xdata	ENDS
;	COMDAT xdata
xdata	SEGMENT
$unwind$?dtor$0@?0??PMC_DivRem_X_X@Internal@Core@Math@Palmtree@@YAPEAU__tag_PMC_HANDLE_UINT@1234@PEAU51234@0PEAPEAU51234@@Z@4HA DD 031001H
	DD	0700c4210H
	DD	0500bH
xdata	ENDS
;	COMDAT xdata
xdata	SEGMENT
$ip2state$?PMC_DivRem_X_X@Internal@Core@Math@Palmtree@@YAPEAU__tag_PMC_HANDLE_UINT@1234@PEAU51234@0PEAPEAU51234@@Z DD imagerel ?PMC_DivRem_X_X@Internal@Core@Math@Palmtree@@YAPEAU__tag_PMC_HANDLE_UINT@1234@PEAU51234@0PEAPEAU51234@@Z
	DD	0ffffffffH
	DD	imagerel ?PMC_DivRem_X_X@Internal@Core@Math@Palmtree@@YAPEAU__tag_PMC_HANDLE_UINT@1234@PEAU51234@0PEAPEAU51234@@Z+287
	DD	00H
	DD	imagerel ?PMC_DivRem_X_X@Internal@Core@Math@Palmtree@@YAPEAU__tag_PMC_HANDLE_UINT@1234@PEAU51234@0PEAPEAU51234@@Z+516
	DD	0ffffffffH
xdata	ENDS
;	COMDAT xdata
xdata	SEGMENT
$stateUnwindMap$?PMC_DivRem_X_X@Internal@Core@Math@Palmtree@@YAPEAU__tag_PMC_HANDLE_UINT@1234@PEAU51234@0PEAPEAU51234@@Z DD 0ffffffffH
	DD	imagerel ?dtor$0@?0??PMC_DivRem_X_X@Internal@Core@Math@Palmtree@@YAPEAU__tag_PMC_HANDLE_UINT@1234@PEAU51234@0PEAPEAU51234@@Z@4HA
xdata	ENDS
;	COMDAT xdata
xdata	SEGMENT
$unwind$?PMC_DivRem_X_X@Internal@Core@Math@Palmtree@@YAPEAU__tag_PMC_HANDLE_UINT@1234@PEAU51234@0PEAPEAU51234@@Z DD 025053f11H
	DD	0118231dH
	DD	07011005bH
	DD	05010H
	DD	imagerel __CxxFrameHandler3
	DD	imagerel $cppxdata$?PMC_DivRem_X_X@Internal@Core@Math@Palmtree@@YAPEAU__tag_PMC_HANDLE_UINT@1234@PEAU51234@0PEAPEAU51234@@Z
xdata	ENDS
;	COMDAT CONST
CONST	SEGMENT
?PMC_DivRem_X_X@Internal@Core@Math@Palmtree@@YAPEAU__tag_PMC_HANDLE_UINT@1234@PEAU51234@0PEAPEAU51234@@Z$rtcName$0 DB 072H ; Palmtree::Math::Core::Internal::PMC_DivRem_X_X
	DB	06fH
	DB	06fH
	DB	074H
	DB	00H
	ORG $+3
?PMC_DivRem_X_X@Internal@Core@Math@Palmtree@@YAPEAU__tag_PMC_HANDLE_UINT@1234@PEAU51234@0PEAPEAU51234@@Z$rtcName$1 DB 06eH ; Palmtree::Math::Core::Internal::PMC_DivRem_X_X
	DB	071H
	DB	00H
	ORG $+5
?PMC_DivRem_X_X@Internal@Core@Math@Palmtree@@YAPEAU__tag_PMC_HANDLE_UINT@1234@PEAU51234@0PEAPEAU51234@@Z$rtcVarDesc DD 0a8H ; Palmtree::Math::Core::Internal::PMC_DivRem_X_X
	DD	08H
	DQ	FLAT:?PMC_DivRem_X_X@Internal@Core@Math@Palmtree@@YAPEAU__tag_PMC_HANDLE_UINT@1234@PEAU51234@0PEAPEAU51234@@Z$rtcName$1
	DD	068H
	DD	020H
	DQ	FLAT:?PMC_DivRem_X_X@Internal@Core@Math@Palmtree@@YAPEAU__tag_PMC_HANDLE_UINT@1234@PEAU51234@0PEAPEAU51234@@Z$rtcName$0
	ORG $+96
?PMC_DivRem_X_X@Internal@Core@Math@Palmtree@@YAPEAU__tag_PMC_HANDLE_UINT@1234@PEAU51234@0PEAPEAU51234@@Z$rtcFrameData DD 02H ; Palmtree::Math::Core::Internal::PMC_DivRem_X_X
	DD	00H
	DQ	FLAT:?PMC_DivRem_X_X@Internal@Core@Math@Palmtree@@YAPEAU__tag_PMC_HANDLE_UINT@1234@PEAU51234@0PEAPEAU51234@@Z$rtcVarDesc
$cppxdata$?PMC_DivRem_X_X@Internal@Core@Math@Palmtree@@YAPEAU__tag_PMC_HANDLE_UINT@1234@PEAU51234@0PEAPEAU51234@@Z DD 019930522H
	DD	01H
	DD	imagerel $stateUnwindMap$?PMC_DivRem_X_X@Internal@Core@Math@Palmtree@@YAPEAU__tag_PMC_HANDLE_UINT@1234@PEAU51234@0PEAPEAU51234@@Z
	DD	00H
	DD	00H
	DD	03H
	DD	imagerel $ip2state$?PMC_DivRem_X_X@Internal@Core@Math@Palmtree@@YAPEAU__tag_PMC_HANDLE_UINT@1234@PEAU51234@0PEAPEAU51234@@Z
	DD	02b8H
	DD	00H
	DD	00H
CONST	ENDS
;	COMDAT xdata
xdata	SEGMENT
$unwind$?dtor$0@?0??PMC_DivRem_X_L@Internal@Core@Math@Palmtree@@YA_KPEAU__tag_PMC_HANDLE_UINT@1234@_KPEAPEAU51234@@Z@4HA DD 031001H
	DD	0700c4210H
	DD	0500bH
xdata	ENDS
;	COMDAT xdata
xdata	SEGMENT
$ip2state$?PMC_DivRem_X_L@Internal@Core@Math@Palmtree@@YA_KPEAU__tag_PMC_HANDLE_UINT@1234@_KPEAPEAU51234@@Z DD imagerel ?PMC_DivRem_X_L@Internal@Core@Math@Palmtree@@YA_KPEAU__tag_PMC_HANDLE_UINT@1234@_KPEAPEAU51234@@Z
	DD	0ffffffffH
	DD	imagerel ?PMC_DivRem_X_L@Internal@Core@Math@Palmtree@@YA_KPEAU__tag_PMC_HANDLE_UINT@1234@_KPEAPEAU51234@@Z+211
	DD	00H
	DD	imagerel ?PMC_DivRem_X_L@Internal@Core@Math@Palmtree@@YA_KPEAU__tag_PMC_HANDLE_UINT@1234@_KPEAPEAU51234@@Z+311
	DD	0ffffffffH
	DD	imagerel ?PMC_DivRem_X_L@Internal@Core@Math@Palmtree@@YA_KPEAU__tag_PMC_HANDLE_UINT@1234@_KPEAPEAU51234@@Z+331
	DD	00H
	DD	imagerel ?PMC_DivRem_X_L@Internal@Core@Math@Palmtree@@YA_KPEAU__tag_PMC_HANDLE_UINT@1234@_KPEAPEAU51234@@Z+371
	DD	0ffffffffH
xdata	ENDS
;	COMDAT xdata
xdata	SEGMENT
$stateUnwindMap$?PMC_DivRem_X_L@Internal@Core@Math@Palmtree@@YA_KPEAU__tag_PMC_HANDLE_UINT@1234@_KPEAPEAU51234@@Z DD 0ffffffffH
	DD	imagerel ?dtor$0@?0??PMC_DivRem_X_L@Internal@Core@Math@Palmtree@@YA_KPEAU__tag_PMC_HANDLE_UINT@1234@_KPEAPEAU51234@@Z@4HA
xdata	ENDS
;	COMDAT xdata
xdata	SEGMENT
$unwind$?PMC_DivRem_X_L@Internal@Core@Math@Palmtree@@YA_KPEAU__tag_PMC_HANDLE_UINT@1234@_KPEAPEAU51234@@Z DD 025053f11H
	DD	0118231dH
	DD	070110055H
	DD	05010H
	DD	imagerel __CxxFrameHandler3
	DD	imagerel $cppxdata$?PMC_DivRem_X_L@Internal@Core@Math@Palmtree@@YA_KPEAU__tag_PMC_HANDLE_UINT@1234@_KPEAPEAU51234@@Z
xdata	ENDS
;	COMDAT CONST
CONST	SEGMENT
?PMC_DivRem_X_L@Internal@Core@Math@Palmtree@@YA_KPEAU__tag_PMC_HANDLE_UINT@1234@_KPEAPEAU51234@@Z$rtcName$0 DB 072H ; Palmtree::Math::Core::Internal::PMC_DivRem_X_L
	DB	06fH
	DB	06fH
	DB	074H
	DB	00H
	ORG $+3
?PMC_DivRem_X_L@Internal@Core@Math@Palmtree@@YA_KPEAU__tag_PMC_HANDLE_UINT@1234@_KPEAPEAU51234@@Z$rtcName$1 DB 06eH ; Palmtree::Math::Core::Internal::PMC_DivRem_X_L
	DB	071H
	DB	00H
	ORG $+5
?PMC_DivRem_X_L@Internal@Core@Math@Palmtree@@YA_KPEAU__tag_PMC_HANDLE_UINT@1234@_KPEAPEAU51234@@Z$rtcVarDesc DD 088H ; Palmtree::Math::Core::Internal::PMC_DivRem_X_L
	DD	08H
	DQ	FLAT:?PMC_DivRem_X_L@Internal@Core@Math@Palmtree@@YA_KPEAU__tag_PMC_HANDLE_UINT@1234@_KPEAPEAU51234@@Z$rtcName$1
	DD	048H
	DD	020H
	DQ	FLAT:?PMC_DivRem_X_L@Internal@Core@Math@Palmtree@@YA_KPEAU__tag_PMC_HANDLE_UINT@1234@_KPEAPEAU51234@@Z$rtcName$0
	ORG $+96
?PMC_DivRem_X_L@Internal@Core@Math@Palmtree@@YA_KPEAU__tag_PMC_HANDLE_UINT@1234@_KPEAPEAU51234@@Z$rtcFrameData DD 02H ; Palmtree::Math::Core::Internal::PMC_DivRem_X_L
	DD	00H
	DQ	FLAT:?PMC_DivRem_X_L@Internal@Core@Math@Palmtree@@YA_KPEAU__tag_PMC_HANDLE_UINT@1234@_KPEAPEAU51234@@Z$rtcVarDesc
$cppxdata$?PMC_DivRem_X_L@Internal@Core@Math@Palmtree@@YA_KPEAU__tag_PMC_HANDLE_UINT@1234@_KPEAPEAU51234@@Z DD 019930522H
	DD	01H
	DD	imagerel $stateUnwindMap$?PMC_DivRem_X_L@Internal@Core@Math@Palmtree@@YA_KPEAU__tag_PMC_HANDLE_UINT@1234@_KPEAPEAU51234@@Z
	DD	00H
	DD	00H
	DD	05H
	DD	imagerel $ip2state$?PMC_DivRem_X_L@Internal@Core@Math@Palmtree@@YA_KPEAU__tag_PMC_HANDLE_UINT@1234@_KPEAPEAU51234@@Z
	DD	0288H
	DD	00H
	DD	00H
CONST	ENDS
;	COMDAT xdata
xdata	SEGMENT
$unwind$?dtor$0@?0??PMC_DivRem_X_I@Internal@Core@Math@Palmtree@@YAIPEAU__tag_PMC_HANDLE_UINT@1234@IPEAPEAU51234@@Z@4HA DD 031001H
	DD	0700c4210H
	DD	0500bH
xdata	ENDS
;	COMDAT xdata
xdata	SEGMENT
$ip2state$?PMC_DivRem_X_I@Internal@Core@Math@Palmtree@@YAIPEAU__tag_PMC_HANDLE_UINT@1234@IPEAPEAU51234@@Z DD imagerel ?PMC_DivRem_X_I@Internal@Core@Math@Palmtree@@YAIPEAU__tag_PMC_HANDLE_UINT@1234@IPEAPEAU51234@@Z
	DD	0ffffffffH
	DD	imagerel ?PMC_DivRem_X_I@Internal@Core@Math@Palmtree@@YAIPEAU__tag_PMC_HANDLE_UINT@1234@IPEAPEAU51234@@Z+210
	DD	00H
	DD	imagerel ?PMC_DivRem_X_I@Internal@Core@Math@Palmtree@@YAIPEAU__tag_PMC_HANDLE_UINT@1234@IPEAPEAU51234@@Z+306
	DD	0ffffffffH
	DD	imagerel ?PMC_DivRem_X_I@Internal@Core@Math@Palmtree@@YAIPEAU__tag_PMC_HANDLE_UINT@1234@IPEAPEAU51234@@Z+325
	DD	00H
	DD	imagerel ?PMC_DivRem_X_I@Internal@Core@Math@Palmtree@@YAIPEAU__tag_PMC_HANDLE_UINT@1234@IPEAPEAU51234@@Z+361
	DD	0ffffffffH
xdata	ENDS
;	COMDAT xdata
xdata	SEGMENT
$stateUnwindMap$?PMC_DivRem_X_I@Internal@Core@Math@Palmtree@@YAIPEAU__tag_PMC_HANDLE_UINT@1234@IPEAPEAU51234@@Z DD 0ffffffffH
	DD	imagerel ?dtor$0@?0??PMC_DivRem_X_I@Internal@Core@Math@Palmtree@@YAIPEAU__tag_PMC_HANDLE_UINT@1234@IPEAPEAU51234@@Z@4HA
xdata	ENDS
;	COMDAT xdata
xdata	SEGMENT
$unwind$?PMC_DivRem_X_I@Internal@Core@Math@Palmtree@@YAIPEAU__tag_PMC_HANDLE_UINT@1234@IPEAPEAU51234@@Z DD 025053e11H
	DD	0117231cH
	DD	070100055H
	DD	0500fH
	DD	imagerel __CxxFrameHandler3
	DD	imagerel $cppxdata$?PMC_DivRem_X_I@Internal@Core@Math@Palmtree@@YAIPEAU__tag_PMC_HANDLE_UINT@1234@IPEAPEAU51234@@Z
xdata	ENDS
;	COMDAT CONST
CONST	SEGMENT
?PMC_DivRem_X_I@Internal@Core@Math@Palmtree@@YAIPEAU__tag_PMC_HANDLE_UINT@1234@IPEAPEAU51234@@Z$rtcName$0 DB 072H ; Palmtree::Math::Core::Internal::PMC_DivRem_X_I
	DB	06fH
	DB	06fH
	DB	074H
	DB	00H
	ORG $+3
?PMC_DivRem_X_I@Internal@Core@Math@Palmtree@@YAIPEAU__tag_PMC_HANDLE_UINT@1234@IPEAPEAU51234@@Z$rtcName$1 DB 06eH ; Palmtree::Math::Core::Internal::PMC_DivRem_X_I
	DB	071H
	DB	00H
	ORG $+5
?PMC_DivRem_X_I@Internal@Core@Math@Palmtree@@YAIPEAU__tag_PMC_HANDLE_UINT@1234@IPEAPEAU51234@@Z$rtcVarDesc DD 088H ; Palmtree::Math::Core::Internal::PMC_DivRem_X_I
	DD	08H
	DQ	FLAT:?PMC_DivRem_X_I@Internal@Core@Math@Palmtree@@YAIPEAU__tag_PMC_HANDLE_UINT@1234@IPEAPEAU51234@@Z$rtcName$1
	DD	048H
	DD	020H
	DQ	FLAT:?PMC_DivRem_X_I@Internal@Core@Math@Palmtree@@YAIPEAU__tag_PMC_HANDLE_UINT@1234@IPEAPEAU51234@@Z$rtcName$0
	ORG $+96
?PMC_DivRem_X_I@Internal@Core@Math@Palmtree@@YAIPEAU__tag_PMC_HANDLE_UINT@1234@IPEAPEAU51234@@Z$rtcFrameData DD 02H ; Palmtree::Math::Core::Internal::PMC_DivRem_X_I
	DD	00H
	DQ	FLAT:?PMC_DivRem_X_I@Internal@Core@Math@Palmtree@@YAIPEAU__tag_PMC_HANDLE_UINT@1234@IPEAPEAU51234@@Z$rtcVarDesc
$cppxdata$?PMC_DivRem_X_I@Internal@Core@Math@Palmtree@@YAIPEAU__tag_PMC_HANDLE_UINT@1234@IPEAPEAU51234@@Z DD 019930522H
	DD	01H
	DD	imagerel $stateUnwindMap$?PMC_DivRem_X_I@Internal@Core@Math@Palmtree@@YAIPEAU__tag_PMC_HANDLE_UINT@1234@IPEAPEAU51234@@Z
	DD	00H
	DD	00H
	DD	05H
	DD	imagerel $ip2state$?PMC_DivRem_X_I@Internal@Core@Math@Palmtree@@YAIPEAU__tag_PMC_HANDLE_UINT@1234@IPEAPEAU51234@@Z
	DD	0288H
	DD	00H
	DD	00H
CONST	ENDS
;	COMDAT xdata
xdata	SEGMENT
$unwind$?PMC_DivRem_L_X@Internal@Core@Math@Palmtree@@YA_K_KPEAU__tag_PMC_HANDLE_UINT@1234@PEA_K@Z DD 045054519H
	DD	0118431dH
	DD	0701100e9H
	DD	05010H
	DD	imagerel __GSHandlerCheck
	DD	0730H
xdata	ENDS
;	COMDAT CONST
CONST	SEGMENT
?PMC_DivRem_L_X@Internal@Core@Math@Palmtree@@YA_K_KPEAU__tag_PMC_HANDLE_UINT@1234@PEA_K@Z$rtcName$0 DB 075H ; Palmtree::Math::Core::Internal::PMC_DivRem_L_X
	DB	05fH
	DB	068H
	DB	069H
	DB	00H
	ORG $+3
?PMC_DivRem_L_X@Internal@Core@Math@Palmtree@@YA_K_KPEAU__tag_PMC_HANDLE_UINT@1234@PEA_K@Z$rtcName$1 DB 074H ; Palmtree::Math::Core::Internal::PMC_DivRem_L_X
	DB	065H
	DB	06dH
	DB	070H
	DB	05fH
	DB	072H
	DB	00H
	ORG $+1
?PMC_DivRem_L_X@Internal@Core@Math@Palmtree@@YA_K_KPEAU__tag_PMC_HANDLE_UINT@1234@PEA_K@Z$rtcName$2 DB 075H ; Palmtree::Math::Core::Internal::PMC_DivRem_L_X
	DB	05fH
	DB	062H
	DB	075H
	DB	066H
	DB	00H
	ORG $+2
?PMC_DivRem_L_X@Internal@Core@Math@Palmtree@@YA_K_KPEAU__tag_PMC_HANDLE_UINT@1234@PEA_K@Z$rtcName$3 DB 071H ; Palmtree::Math::Core::Internal::PMC_DivRem_L_X
	DB	05fH
	DB	062H
	DB	075H
	DB	066H
	DB	00H
	ORG $+2
?PMC_DivRem_L_X@Internal@Core@Math@Palmtree@@YA_K_KPEAU__tag_PMC_HANDLE_UINT@1234@PEA_K@Z$rtcName$4 DB 072H ; Palmtree::Math::Core::Internal::PMC_DivRem_L_X
	DB	05fH
	DB	062H
	DB	075H
	DB	066H
	DB	00H
	ORG $+2
?PMC_DivRem_L_X@Internal@Core@Math@Palmtree@@YA_K_KPEAU__tag_PMC_HANDLE_UINT@1234@PEA_K@Z$rtcName$5 DB 075H ; Palmtree::Math::Core::Internal::PMC_DivRem_L_X
	DB	05fH
	DB	062H
	DB	075H
	DB	066H
	DB	00H
	ORG $+2
?PMC_DivRem_L_X@Internal@Core@Math@Palmtree@@YA_K_KPEAU__tag_PMC_HANDLE_UINT@1234@PEA_K@Z$rtcName$6 DB 075H ; Palmtree::Math::Core::Internal::PMC_DivRem_L_X
	DB	05fH
	DB	062H
	DB	075H
	DB	066H
	DB	00H
	ORG $+2
?PMC_DivRem_L_X@Internal@Core@Math@Palmtree@@YA_K_KPEAU__tag_PMC_HANDLE_UINT@1234@PEA_K@Z$rtcName$7 DB 071H ; Palmtree::Math::Core::Internal::PMC_DivRem_L_X
	DB	05fH
	DB	062H
	DB	075H
	DB	066H
	DB	00H
	ORG $+2
?PMC_DivRem_L_X@Internal@Core@Math@Palmtree@@YA_K_KPEAU__tag_PMC_HANDLE_UINT@1234@PEA_K@Z$rtcName$8 DB 072H ; Palmtree::Math::Core::Internal::PMC_DivRem_L_X
	DB	05fH
	DB	062H
	DB	075H
	DB	066H
	DB	00H
	ORG $+2
?PMC_DivRem_L_X@Internal@Core@Math@Palmtree@@YA_K_KPEAU__tag_PMC_HANDLE_UINT@1234@PEA_K@Z$rtcName$9 DB 077H ; Palmtree::Math::Core::Internal::PMC_DivRem_L_X
	DB	06fH
	DB	072H
	DB	06bH
	DB	05fH
	DB	076H
	DB	05fH
	DB	062H
	DB	075H
	DB	066H
	DB	00H
	ORG $+1
?PMC_DivRem_L_X@Internal@Core@Math@Palmtree@@YA_K_KPEAU__tag_PMC_HANDLE_UINT@1234@PEA_K@Z$rtcName$10 DB 075H ; Palmtree::Math::Core::Internal::PMC_DivRem_L_X
	DB	05fH
	DB	062H
	DB	075H
	DB	066H
	DB	00H
	ORG $+2
?PMC_DivRem_L_X@Internal@Core@Math@Palmtree@@YA_K_KPEAU__tag_PMC_HANDLE_UINT@1234@PEA_K@Z$rtcName$11 DB 072H ; Palmtree::Math::Core::Internal::PMC_DivRem_L_X
	DB	05fH
	DB	062H
	DB	075H
	DB	066H
	DB	00H
	ORG $+6
?PMC_DivRem_L_X@Internal@Core@Math@Palmtree@@YA_K_KPEAU__tag_PMC_HANDLE_UINT@1234@PEA_K@Z$rtcName$12 DB 077H ; Palmtree::Math::Core::Internal::PMC_DivRem_L_X
	DB	06fH
	DB	072H
	DB	06bH
	DB	05fH
	DB	076H
	DB	05fH
	DB	062H
	DB	075H
	DB	066H
	DB	00H
	ORG $+1
?PMC_DivRem_L_X@Internal@Core@Math@Palmtree@@YA_K_KPEAU__tag_PMC_HANDLE_UINT@1234@PEA_K@Z$rtcName$13 DB 074H ; Palmtree::Math::Core::Internal::PMC_DivRem_L_X
	DB	065H
	DB	06dH
	DB	070H
	DB	05fH
	DB	072H
	DB	00H
	ORG $+5
?PMC_DivRem_L_X@Internal@Core@Math@Palmtree@@YA_K_KPEAU__tag_PMC_HANDLE_UINT@1234@PEA_K@Z$rtcVarDesc DD 03c8H ; Palmtree::Math::Core::Internal::PMC_DivRem_L_X
	DD	08H
	DQ	FLAT:?PMC_DivRem_L_X@Internal@Core@Math@Palmtree@@YA_K_KPEAU__tag_PMC_HANDLE_UINT@1234@PEA_K@Z$rtcName$13
	DD	0358H
	DD	010H
	DQ	FLAT:?PMC_DivRem_L_X@Internal@Core@Math@Palmtree@@YA_K_KPEAU__tag_PMC_HANDLE_UINT@1234@PEA_K@Z$rtcName$12
	DD	0328H
	DD	018H
	DQ	FLAT:?PMC_DivRem_L_X@Internal@Core@Math@Palmtree@@YA_K_KPEAU__tag_PMC_HANDLE_UINT@1234@PEA_K@Z$rtcName$11
	DD	02f8H
	DD	010H
	DQ	FLAT:?PMC_DivRem_L_X@Internal@Core@Math@Palmtree@@YA_K_KPEAU__tag_PMC_HANDLE_UINT@1234@PEA_K@Z$rtcName$10
	DD	02c8H
	DD	010H
	DQ	FLAT:?PMC_DivRem_L_X@Internal@Core@Math@Palmtree@@YA_K_KPEAU__tag_PMC_HANDLE_UINT@1234@PEA_K@Z$rtcName$9
	DD	0298H
	DD	018H
	DQ	FLAT:?PMC_DivRem_L_X@Internal@Core@Math@Palmtree@@YA_K_KPEAU__tag_PMC_HANDLE_UINT@1234@PEA_K@Z$rtcName$8
	DD	0268H
	DD	018H
	DQ	FLAT:?PMC_DivRem_L_X@Internal@Core@Math@Palmtree@@YA_K_KPEAU__tag_PMC_HANDLE_UINT@1234@PEA_K@Z$rtcName$7
	DD	0238H
	DD	010H
	DQ	FLAT:?PMC_DivRem_L_X@Internal@Core@Math@Palmtree@@YA_K_KPEAU__tag_PMC_HANDLE_UINT@1234@PEA_K@Z$rtcName$6
	DD	01e8H
	DD	010H
	DQ	FLAT:?PMC_DivRem_L_X@Internal@Core@Math@Palmtree@@YA_K_KPEAU__tag_PMC_HANDLE_UINT@1234@PEA_K@Z$rtcName$5
	DD	01c8H
	DD	08H
	DQ	FLAT:?PMC_DivRem_L_X@Internal@Core@Math@Palmtree@@YA_K_KPEAU__tag_PMC_HANDLE_UINT@1234@PEA_K@Z$rtcName$4
	DD	0198H
	DD	018H
	DQ	FLAT:?PMC_DivRem_L_X@Internal@Core@Math@Palmtree@@YA_K_KPEAU__tag_PMC_HANDLE_UINT@1234@PEA_K@Z$rtcName$3
	DD	0168H
	DD	010H
	DQ	FLAT:?PMC_DivRem_L_X@Internal@Core@Math@Palmtree@@YA_K_KPEAU__tag_PMC_HANDLE_UINT@1234@PEA_K@Z$rtcName$2
	DD	0e8H
	DD	08H
	DQ	FLAT:?PMC_DivRem_L_X@Internal@Core@Math@Palmtree@@YA_K_KPEAU__tag_PMC_HANDLE_UINT@1234@PEA_K@Z$rtcName$1
	DD	064H
	DD	04H
	DQ	FLAT:?PMC_DivRem_L_X@Internal@Core@Math@Palmtree@@YA_K_KPEAU__tag_PMC_HANDLE_UINT@1234@PEA_K@Z$rtcName$0
	ORG $+672
?PMC_DivRem_L_X@Internal@Core@Math@Palmtree@@YA_K_KPEAU__tag_PMC_HANDLE_UINT@1234@PEA_K@Z$rtcFrameData DD 0eH ; Palmtree::Math::Core::Internal::PMC_DivRem_L_X
	DD	00H
	DQ	FLAT:?PMC_DivRem_L_X@Internal@Core@Math@Palmtree@@YA_K_KPEAU__tag_PMC_HANDLE_UINT@1234@PEA_K@Z$rtcVarDesc
CONST	ENDS
;	COMDAT xdata
xdata	SEGMENT
$unwind$?PMC_DivRem_I_X@Internal@Core@Math@Palmtree@@YAIIPEAU__tag_PMC_HANDLE_UINT@1234@PEAI@Z DD 025053201H
	DD	0117231cH
	DD	07010004fH
	DD	0500fH
xdata	ENDS
;	COMDAT CONST
CONST	SEGMENT
?PMC_DivRem_I_X@Internal@Core@Math@Palmtree@@YAIIPEAU__tag_PMC_HANDLE_UINT@1234@PEAI@Z$rtcName$0 DB 074H ; Palmtree::Math::Core::Internal::PMC_DivRem_I_X
	DB	065H
	DB	06dH
	DB	070H
	DB	05fH
	DB	072H
	DB	00H
	ORG $+9
?PMC_DivRem_I_X@Internal@Core@Math@Palmtree@@YAIIPEAU__tag_PMC_HANDLE_UINT@1234@PEAI@Z$rtcVarDesc DD 088H ; Palmtree::Math::Core::Internal::PMC_DivRem_I_X
	DD	08H
	DQ	FLAT:?PMC_DivRem_I_X@Internal@Core@Math@Palmtree@@YAIIPEAU__tag_PMC_HANDLE_UINT@1234@PEAI@Z$rtcName$0
	ORG $+48
?PMC_DivRem_I_X@Internal@Core@Math@Palmtree@@YAIIPEAU__tag_PMC_HANDLE_UINT@1234@PEAI@Z$rtcFrameData DD 01H ; Palmtree::Math::Core::Internal::PMC_DivRem_I_X
	DD	00H
	DQ	FLAT:?PMC_DivRem_I_X@Internal@Core@Math@Palmtree@@YAIIPEAU__tag_PMC_HANDLE_UINT@1234@PEAI@Z$rtcVarDesc
CONST	ENDS
;	COMDAT xdata
xdata	SEGMENT
$unwind$?Initialize_DivRem@Internal@Core@Math@Palmtree@@YAHPEAU_tag_PROCESSOR_FEATURES@1234@@Z DD 025052a01H
	DD	010e2313H
	DD	07007001fH
	DD	05006H
xdata	ENDS
;	COMDAT xdata
xdata	SEGMENT
$unwind$?DivRem_X_X@Internal@Core@Math@Palmtree@@YAXPEA_K_K01000@Z DD 045053901H
	DD	011d4322H
	DD	07016003dH
	DD	05015H
xdata	ENDS
;	COMDAT CONST
CONST	SEGMENT
?DivRem_X_X@Internal@Core@Math@Palmtree@@YAXPEA_K_K01000@Z$rtcName$0 DB 072H ; Palmtree::Math::Core::Internal::DivRem_X_X
	DB	00H
	ORG $+2
?DivRem_X_X@Internal@Core@Math@Palmtree@@YAXPEA_K_K01000@Z$rtcName$1 DB 072H ; Palmtree::Math::Core::Internal::DivRem_X_X
	DB	00H
	ORG $+10
?DivRem_X_X@Internal@Core@Math@Palmtree@@YAXPEA_K_K01000@Z$rtcVarDesc DD 0108H ; Palmtree::Math::Core::Internal::DivRem_X_X
	DD	08H
	DQ	FLAT:?DivRem_X_X@Internal@Core@Math@Palmtree@@YAXPEA_K_K01000@Z$rtcName$1
	DD	0c8H
	DD	08H
	DQ	FLAT:?DivRem_X_X@Internal@Core@Math@Palmtree@@YAXPEA_K_K01000@Z$rtcName$0
	ORG $+96
?DivRem_X_X@Internal@Core@Math@Palmtree@@YAXPEA_K_K01000@Z$rtcFrameData DD 02H ; Palmtree::Math::Core::Internal::DivRem_X_X
	DD	00H
	DQ	FLAT:?DivRem_X_X@Internal@Core@Math@Palmtree@@YAXPEA_K_K01000@Z$rtcVarDesc
CONST	ENDS
;	COMDAT xdata
xdata	SEGMENT
$unwind$?Rem_X_1W@Internal@Core@Math@Palmtree@@YA_KPEA_K_K1@Z DD 025053401H
	DD	0118231dH
	DD	070110031H
	DD	05010H
xdata	ENDS
;	COMDAT CONST
CONST	SEGMENT
?Rem_X_1W@Internal@Core@Math@Palmtree@@YA_KPEA_K_K1@Z$rtcName$0 DB 064H ; Palmtree::Math::Core::Internal::Rem_X_1W
	DB	075H
	DB	06dH
	DB	06dH
	DB	079H
	DB	05fH
	DB	071H
	DB	00H
	ORG $+8
?Rem_X_1W@Internal@Core@Math@Palmtree@@YA_KPEA_K_K1@Z$rtcVarDesc DD 068H ; Palmtree::Math::Core::Internal::Rem_X_1W
	DD	08H
	DQ	FLAT:?Rem_X_1W@Internal@Core@Math@Palmtree@@YA_KPEA_K_K1@Z$rtcName$0
	ORG $+48
?Rem_X_1W@Internal@Core@Math@Palmtree@@YA_KPEA_K_K1@Z$rtcFrameData DD 01H ; Palmtree::Math::Core::Internal::Rem_X_1W
	DD	00H
	DQ	FLAT:?Rem_X_1W@Internal@Core@Math@Palmtree@@YA_KPEA_K_K1@Z$rtcVarDesc
CONST	ENDS
;	COMDAT xdata
xdata	SEGMENT
$unwind$?DivRem_X_1W@Internal@Core@Math@Palmtree@@YAXPEA_K_K100@Z DD 025053901H
	DD	011d2322H
	DD	070160031H
	DD	05015H
xdata	ENDS
;	COMDAT xdata
xdata	SEGMENT
$unwind$??_GInternalErrorException@Internal@Core@Math@Palmtree@@UEAAPEAXI@Z DD 025052e01H
	DD	01122317H
	DD	0700b001dH
	DD	0500aH
xdata	ENDS
;	COMDAT xdata
xdata	SEGMENT
$unwind$?dtor$0@?0???1InternalErrorException@Internal@Core@Math@Palmtree@@UEAA@XZ@4HA DD 031001H
	DD	0700c4210H
	DD	0500bH
xdata	ENDS
;	COMDAT xdata
xdata	SEGMENT
$ip2state$??1InternalErrorException@Internal@Core@Math@Palmtree@@UEAA@XZ DD imagerel ??1InternalErrorException@Internal@Core@Math@Palmtree@@UEAA@XZ
	DD	0ffffffffH
xdata	ENDS
;	COMDAT xdata
xdata	SEGMENT
$stateUnwindMap$??1InternalErrorException@Internal@Core@Math@Palmtree@@UEAA@XZ DD 0ffffffffH
	DD	imagerel ?dtor$0@?0???1InternalErrorException@Internal@Core@Math@Palmtree@@UEAA@XZ@4HA
xdata	ENDS
;	COMDAT CONST
CONST	SEGMENT
$cppxdata$??1InternalErrorException@Internal@Core@Math@Palmtree@@UEAA@XZ DD 019930522H
	DD	01H
	DD	imagerel $stateUnwindMap$??1InternalErrorException@Internal@Core@Math@Palmtree@@UEAA@XZ
	DD	00H
	DD	00H
	DD	01H
	DD	imagerel $ip2state$??1InternalErrorException@Internal@Core@Math@Palmtree@@UEAA@XZ
	DD	0e8H
	DD	00H
	DD	04H
CONST	ENDS
;	COMDAT xdata
xdata	SEGMENT
$unwind$??1InternalErrorException@Internal@Core@Math@Palmtree@@UEAA@XZ DD 025053519H
	DD	010e2313H
	DD	070070021H
	DD	05006H
	DD	imagerel __CxxFrameHandler3
	DD	imagerel $cppxdata$??1InternalErrorException@Internal@Core@Math@Palmtree@@UEAA@XZ
xdata	ENDS
;	COMDAT xdata
xdata	SEGMENT
$unwind$?dtor$0@?0???0InternalErrorException@Internal@Core@Math@Palmtree@@QEAA@AEBV01234@@Z@4HA DD 031001H
	DD	0700c4210H
	DD	0500bH
xdata	ENDS
;	COMDAT xdata
xdata	SEGMENT
$ip2state$??0InternalErrorException@Internal@Core@Math@Palmtree@@QEAA@AEBV01234@@Z DD imagerel ??0InternalErrorException@Internal@Core@Math@Palmtree@@QEAA@AEBV01234@@Z
	DD	0ffffffffH
	DD	imagerel ??0InternalErrorException@Internal@Core@Math@Palmtree@@QEAA@AEBV01234@@Z+91
	DD	00H
	DD	imagerel ??0InternalErrorException@Internal@Core@Math@Palmtree@@QEAA@AEBV01234@@Z+108
	DD	0ffffffffH
xdata	ENDS
;	COMDAT xdata
xdata	SEGMENT
$stateUnwindMap$??0InternalErrorException@Internal@Core@Math@Palmtree@@QEAA@AEBV01234@@Z DD 0ffffffffH
	DD	imagerel ?dtor$0@?0???0InternalErrorException@Internal@Core@Math@Palmtree@@QEAA@AEBV01234@@Z@4HA
xdata	ENDS
;	COMDAT CONST
CONST	SEGMENT
$cppxdata$??0InternalErrorException@Internal@Core@Math@Palmtree@@QEAA@AEBV01234@@Z DD 019930522H
	DD	01H
	DD	imagerel $stateUnwindMap$??0InternalErrorException@Internal@Core@Math@Palmtree@@QEAA@AEBV01234@@Z
	DD	00H
	DD	00H
	DD	03H
	DD	imagerel $ip2state$??0InternalErrorException@Internal@Core@Math@Palmtree@@QEAA@AEBV01234@@Z
	DD	0e8H
	DD	00H
	DD	04H
CONST	ENDS
;	COMDAT xdata
xdata	SEGMENT
$unwind$??0InternalErrorException@Internal@Core@Math@Palmtree@@QEAA@AEBV01234@@Z DD 025053a19H
	DD	01132318H
	DD	0700c0021H
	DD	0500bH
	DD	imagerel __CxxFrameHandler3
	DD	imagerel $cppxdata$??0InternalErrorException@Internal@Core@Math@Palmtree@@QEAA@AEBV01234@@Z
xdata	ENDS
;	COMDAT xdata
xdata	SEGMENT
$unwind$?dtor$0@?0???0InternalErrorException@Internal@Core@Math@Palmtree@@QEAA@PEB_W0@Z@4HA DD 031001H
	DD	0700c4210H
	DD	0500bH
xdata	ENDS
;	COMDAT xdata
xdata	SEGMENT
$ip2state$??0InternalErrorException@Internal@Core@Math@Palmtree@@QEAA@PEB_W0@Z DD imagerel ??0InternalErrorException@Internal@Core@Math@Palmtree@@QEAA@PEB_W0@Z
	DD	0ffffffffH
	DD	imagerel ??0InternalErrorException@Internal@Core@Math@Palmtree@@QEAA@PEB_W0@Z+108
	DD	00H
	DD	imagerel ??0InternalErrorException@Internal@Core@Math@Palmtree@@QEAA@PEB_W0@Z+125
	DD	0ffffffffH
xdata	ENDS
;	COMDAT xdata
xdata	SEGMENT
$stateUnwindMap$??0InternalErrorException@Internal@Core@Math@Palmtree@@QEAA@PEB_W0@Z DD 0ffffffffH
	DD	imagerel ?dtor$0@?0???0InternalErrorException@Internal@Core@Math@Palmtree@@QEAA@PEB_W0@Z@4HA
xdata	ENDS
;	COMDAT CONST
CONST	SEGMENT
$cppxdata$??0InternalErrorException@Internal@Core@Math@Palmtree@@QEAA@PEB_W0@Z DD 019930522H
	DD	01H
	DD	imagerel $stateUnwindMap$??0InternalErrorException@Internal@Core@Math@Palmtree@@QEAA@PEB_W0@Z
	DD	00H
	DD	00H
	DD	03H
	DD	imagerel $ip2state$??0InternalErrorException@Internal@Core@Math@Palmtree@@QEAA@PEB_W0@Z
	DD	0e8H
	DD	00H
	DD	04H
CONST	ENDS
;	COMDAT xdata
xdata	SEGMENT
$unwind$??0InternalErrorException@Internal@Core@Math@Palmtree@@QEAA@PEB_W0@Z DD 025053f19H
	DD	0118231dH
	DD	070110021H
	DD	05010H
	DD	imagerel __CxxFrameHandler3
	DD	imagerel $cppxdata$??0InternalErrorException@Internal@Core@Math@Palmtree@@QEAA@PEB_W0@Z
xdata	ENDS
;	COMDAT xdata
xdata	SEGMENT
$unwind$??_GDivisionByZeroException@Internal@Core@Math@Palmtree@@UEAAPEAXI@Z DD 025052e01H
	DD	01122317H
	DD	0700b001dH
	DD	0500aH
xdata	ENDS
;	COMDAT xdata
xdata	SEGMENT
$unwind$?dtor$0@?0???1DivisionByZeroException@Internal@Core@Math@Palmtree@@UEAA@XZ@4HA DD 031001H
	DD	0700c4210H
	DD	0500bH
xdata	ENDS
;	COMDAT xdata
xdata	SEGMENT
$ip2state$??1DivisionByZeroException@Internal@Core@Math@Palmtree@@UEAA@XZ DD imagerel ??1DivisionByZeroException@Internal@Core@Math@Palmtree@@UEAA@XZ
	DD	0ffffffffH
xdata	ENDS
;	COMDAT xdata
xdata	SEGMENT
$stateUnwindMap$??1DivisionByZeroException@Internal@Core@Math@Palmtree@@UEAA@XZ DD 0ffffffffH
	DD	imagerel ?dtor$0@?0???1DivisionByZeroException@Internal@Core@Math@Palmtree@@UEAA@XZ@4HA
xdata	ENDS
;	COMDAT CONST
CONST	SEGMENT
$cppxdata$??1DivisionByZeroException@Internal@Core@Math@Palmtree@@UEAA@XZ DD 019930522H
	DD	01H
	DD	imagerel $stateUnwindMap$??1DivisionByZeroException@Internal@Core@Math@Palmtree@@UEAA@XZ
	DD	00H
	DD	00H
	DD	01H
	DD	imagerel $ip2state$??1DivisionByZeroException@Internal@Core@Math@Palmtree@@UEAA@XZ
	DD	0e8H
	DD	00H
	DD	04H
CONST	ENDS
;	COMDAT xdata
xdata	SEGMENT
$unwind$??1DivisionByZeroException@Internal@Core@Math@Palmtree@@UEAA@XZ DD 025053519H
	DD	010e2313H
	DD	070070021H
	DD	05006H
	DD	imagerel __CxxFrameHandler3
	DD	imagerel $cppxdata$??1DivisionByZeroException@Internal@Core@Math@Palmtree@@UEAA@XZ
xdata	ENDS
;	COMDAT xdata
xdata	SEGMENT
$unwind$?dtor$0@?0???0DivisionByZeroException@Internal@Core@Math@Palmtree@@QEAA@AEBV01234@@Z@4HA DD 031001H
	DD	0700c4210H
	DD	0500bH
xdata	ENDS
;	COMDAT xdata
xdata	SEGMENT
$ip2state$??0DivisionByZeroException@Internal@Core@Math@Palmtree@@QEAA@AEBV01234@@Z DD imagerel ??0DivisionByZeroException@Internal@Core@Math@Palmtree@@QEAA@AEBV01234@@Z
	DD	0ffffffffH
	DD	imagerel ??0DivisionByZeroException@Internal@Core@Math@Palmtree@@QEAA@AEBV01234@@Z+91
	DD	00H
	DD	imagerel ??0DivisionByZeroException@Internal@Core@Math@Palmtree@@QEAA@AEBV01234@@Z+108
	DD	0ffffffffH
xdata	ENDS
;	COMDAT xdata
xdata	SEGMENT
$stateUnwindMap$??0DivisionByZeroException@Internal@Core@Math@Palmtree@@QEAA@AEBV01234@@Z DD 0ffffffffH
	DD	imagerel ?dtor$0@?0???0DivisionByZeroException@Internal@Core@Math@Palmtree@@QEAA@AEBV01234@@Z@4HA
xdata	ENDS
;	COMDAT CONST
CONST	SEGMENT
$cppxdata$??0DivisionByZeroException@Internal@Core@Math@Palmtree@@QEAA@AEBV01234@@Z DD 019930522H
	DD	01H
	DD	imagerel $stateUnwindMap$??0DivisionByZeroException@Internal@Core@Math@Palmtree@@QEAA@AEBV01234@@Z
	DD	00H
	DD	00H
	DD	03H
	DD	imagerel $ip2state$??0DivisionByZeroException@Internal@Core@Math@Palmtree@@QEAA@AEBV01234@@Z
	DD	0e8H
	DD	00H
	DD	04H
CONST	ENDS
;	COMDAT xdata
xdata	SEGMENT
$unwind$??0DivisionByZeroException@Internal@Core@Math@Palmtree@@QEAA@AEBV01234@@Z DD 025053a19H
	DD	01132318H
	DD	0700c0021H
	DD	0500bH
	DD	imagerel __CxxFrameHandler3
	DD	imagerel $cppxdata$??0DivisionByZeroException@Internal@Core@Math@Palmtree@@QEAA@AEBV01234@@Z
xdata	ENDS
;	COMDAT xdata
xdata	SEGMENT
$unwind$?dtor$0@?0???0DivisionByZeroException@Internal@Core@Math@Palmtree@@QEAA@PEB_W@Z@4HA DD 031001H
	DD	0700c4210H
	DD	0500bH
xdata	ENDS
;	COMDAT xdata
xdata	SEGMENT
$ip2state$??0DivisionByZeroException@Internal@Core@Math@Palmtree@@QEAA@PEB_W@Z DD imagerel ??0DivisionByZeroException@Internal@Core@Math@Palmtree@@QEAA@PEB_W@Z
	DD	0ffffffffH
	DD	imagerel ??0DivisionByZeroException@Internal@Core@Math@Palmtree@@QEAA@PEB_W@Z+96
	DD	00H
	DD	imagerel ??0DivisionByZeroException@Internal@Core@Math@Palmtree@@QEAA@PEB_W@Z+113
	DD	0ffffffffH
xdata	ENDS
;	COMDAT xdata
xdata	SEGMENT
$stateUnwindMap$??0DivisionByZeroException@Internal@Core@Math@Palmtree@@QEAA@PEB_W@Z DD 0ffffffffH
	DD	imagerel ?dtor$0@?0???0DivisionByZeroException@Internal@Core@Math@Palmtree@@QEAA@PEB_W@Z@4HA
xdata	ENDS
;	COMDAT CONST
CONST	SEGMENT
$cppxdata$??0DivisionByZeroException@Internal@Core@Math@Palmtree@@QEAA@PEB_W@Z DD 019930522H
	DD	01H
	DD	imagerel $stateUnwindMap$??0DivisionByZeroException@Internal@Core@Math@Palmtree@@QEAA@PEB_W@Z
	DD	00H
	DD	00H
	DD	03H
	DD	imagerel $ip2state$??0DivisionByZeroException@Internal@Core@Math@Palmtree@@QEAA@PEB_W@Z
	DD	0e8H
	DD	00H
	DD	04H
CONST	ENDS
;	COMDAT xdata
xdata	SEGMENT
$unwind$??0DivisionByZeroException@Internal@Core@Math@Palmtree@@QEAA@PEB_W@Z DD 025053a19H
	DD	01132318H
	DD	0700c0021H
	DD	0500bH
	DD	imagerel __CxxFrameHandler3
	DD	imagerel $cppxdata$??0DivisionByZeroException@Internal@Core@Math@Palmtree@@QEAA@PEB_W@Z
xdata	ENDS
;	COMDAT xdata
xdata	SEGMENT
$unwind$??_GArgumentNullException@Internal@Core@Math@Palmtree@@UEAAPEAXI@Z DD 025052e01H
	DD	01122317H
	DD	0700b001dH
	DD	0500aH
xdata	ENDS
;	COMDAT xdata
xdata	SEGMENT
$unwind$?dtor$0@?0???1ArgumentNullException@Internal@Core@Math@Palmtree@@UEAA@XZ@4HA DD 031001H
	DD	0700c4210H
	DD	0500bH
xdata	ENDS
;	COMDAT xdata
xdata	SEGMENT
$ip2state$??1ArgumentNullException@Internal@Core@Math@Palmtree@@UEAA@XZ DD imagerel ??1ArgumentNullException@Internal@Core@Math@Palmtree@@UEAA@XZ
	DD	0ffffffffH
xdata	ENDS
;	COMDAT xdata
xdata	SEGMENT
$stateUnwindMap$??1ArgumentNullException@Internal@Core@Math@Palmtree@@UEAA@XZ DD 0ffffffffH
	DD	imagerel ?dtor$0@?0???1ArgumentNullException@Internal@Core@Math@Palmtree@@UEAA@XZ@4HA
xdata	ENDS
;	COMDAT CONST
CONST	SEGMENT
$cppxdata$??1ArgumentNullException@Internal@Core@Math@Palmtree@@UEAA@XZ DD 019930522H
	DD	01H
	DD	imagerel $stateUnwindMap$??1ArgumentNullException@Internal@Core@Math@Palmtree@@UEAA@XZ
	DD	00H
	DD	00H
	DD	01H
	DD	imagerel $ip2state$??1ArgumentNullException@Internal@Core@Math@Palmtree@@UEAA@XZ
	DD	0e8H
	DD	00H
	DD	04H
CONST	ENDS
;	COMDAT xdata
xdata	SEGMENT
$unwind$??1ArgumentNullException@Internal@Core@Math@Palmtree@@UEAA@XZ DD 025053519H
	DD	010e2313H
	DD	070070021H
	DD	05006H
	DD	imagerel __CxxFrameHandler3
	DD	imagerel $cppxdata$??1ArgumentNullException@Internal@Core@Math@Palmtree@@UEAA@XZ
xdata	ENDS
;	COMDAT xdata
xdata	SEGMENT
$unwind$?dtor$0@?0???0ArgumentNullException@Internal@Core@Math@Palmtree@@QEAA@AEBV01234@@Z@4HA DD 031001H
	DD	0700c4210H
	DD	0500bH
xdata	ENDS
;	COMDAT xdata
xdata	SEGMENT
$ip2state$??0ArgumentNullException@Internal@Core@Math@Palmtree@@QEAA@AEBV01234@@Z DD imagerel ??0ArgumentNullException@Internal@Core@Math@Palmtree@@QEAA@AEBV01234@@Z
	DD	0ffffffffH
	DD	imagerel ??0ArgumentNullException@Internal@Core@Math@Palmtree@@QEAA@AEBV01234@@Z+91
	DD	00H
	DD	imagerel ??0ArgumentNullException@Internal@Core@Math@Palmtree@@QEAA@AEBV01234@@Z+108
	DD	0ffffffffH
xdata	ENDS
;	COMDAT xdata
xdata	SEGMENT
$stateUnwindMap$??0ArgumentNullException@Internal@Core@Math@Palmtree@@QEAA@AEBV01234@@Z DD 0ffffffffH
	DD	imagerel ?dtor$0@?0???0ArgumentNullException@Internal@Core@Math@Palmtree@@QEAA@AEBV01234@@Z@4HA
xdata	ENDS
;	COMDAT CONST
CONST	SEGMENT
$cppxdata$??0ArgumentNullException@Internal@Core@Math@Palmtree@@QEAA@AEBV01234@@Z DD 019930522H
	DD	01H
	DD	imagerel $stateUnwindMap$??0ArgumentNullException@Internal@Core@Math@Palmtree@@QEAA@AEBV01234@@Z
	DD	00H
	DD	00H
	DD	03H
	DD	imagerel $ip2state$??0ArgumentNullException@Internal@Core@Math@Palmtree@@QEAA@AEBV01234@@Z
	DD	0e8H
	DD	00H
	DD	04H
CONST	ENDS
;	COMDAT xdata
xdata	SEGMENT
$unwind$??0ArgumentNullException@Internal@Core@Math@Palmtree@@QEAA@AEBV01234@@Z DD 025053a19H
	DD	01132318H
	DD	0700c0021H
	DD	0500bH
	DD	imagerel __CxxFrameHandler3
	DD	imagerel $cppxdata$??0ArgumentNullException@Internal@Core@Math@Palmtree@@QEAA@AEBV01234@@Z
xdata	ENDS
;	COMDAT xdata
xdata	SEGMENT
$unwind$?dtor$0@?0???0ArgumentNullException@Internal@Core@Math@Palmtree@@QEAA@PEB_W0@Z@4HA DD 031001H
	DD	0700c4210H
	DD	0500bH
xdata	ENDS
;	COMDAT xdata
xdata	SEGMENT
$ip2state$??0ArgumentNullException@Internal@Core@Math@Palmtree@@QEAA@PEB_W0@Z DD imagerel ??0ArgumentNullException@Internal@Core@Math@Palmtree@@QEAA@PEB_W0@Z
	DD	0ffffffffH
	DD	imagerel ??0ArgumentNullException@Internal@Core@Math@Palmtree@@QEAA@PEB_W0@Z+108
	DD	00H
	DD	imagerel ??0ArgumentNullException@Internal@Core@Math@Palmtree@@QEAA@PEB_W0@Z+125
	DD	0ffffffffH
xdata	ENDS
;	COMDAT xdata
xdata	SEGMENT
$stateUnwindMap$??0ArgumentNullException@Internal@Core@Math@Palmtree@@QEAA@PEB_W0@Z DD 0ffffffffH
	DD	imagerel ?dtor$0@?0???0ArgumentNullException@Internal@Core@Math@Palmtree@@QEAA@PEB_W0@Z@4HA
xdata	ENDS
;	COMDAT CONST
CONST	SEGMENT
$cppxdata$??0ArgumentNullException@Internal@Core@Math@Palmtree@@QEAA@PEB_W0@Z DD 019930522H
	DD	01H
	DD	imagerel $stateUnwindMap$??0ArgumentNullException@Internal@Core@Math@Palmtree@@QEAA@PEB_W0@Z
	DD	00H
	DD	00H
	DD	03H
	DD	imagerel $ip2state$??0ArgumentNullException@Internal@Core@Math@Palmtree@@QEAA@PEB_W0@Z
	DD	0e8H
	DD	00H
	DD	04H
CONST	ENDS
;	COMDAT xdata
xdata	SEGMENT
$unwind$??0ArgumentNullException@Internal@Core@Math@Palmtree@@QEAA@PEB_W0@Z DD 025053f19H
	DD	0118231dH
	DD	070110021H
	DD	05010H
	DD	imagerel __CxxFrameHandler3
	DD	imagerel $cppxdata$??0ArgumentNullException@Internal@Core@Math@Palmtree@@QEAA@PEB_W0@Z
xdata	ENDS
;	COMDAT xdata
xdata	SEGMENT
$unwind$??_GException@Internal@Core@Math@Palmtree@@UEAAPEAXI@Z DD 025052e01H
	DD	01122317H
	DD	0700b001dH
	DD	0500aH
xdata	ENDS
;	COMDAT xdata
xdata	SEGMENT
$unwind$?dtor$0@?0???1Exception@Internal@Core@Math@Palmtree@@UEAA@XZ@4HA DD 031001H
	DD	0700c4210H
	DD	0500bH
xdata	ENDS
;	COMDAT xdata
xdata	SEGMENT
$ip2state$??1Exception@Internal@Core@Math@Palmtree@@UEAA@XZ DD imagerel ??1Exception@Internal@Core@Math@Palmtree@@UEAA@XZ
	DD	0ffffffffH
xdata	ENDS
;	COMDAT xdata
xdata	SEGMENT
$stateUnwindMap$??1Exception@Internal@Core@Math@Palmtree@@UEAA@XZ DD 0ffffffffH
	DD	imagerel ?dtor$0@?0???1Exception@Internal@Core@Math@Palmtree@@UEAA@XZ@4HA
xdata	ENDS
;	COMDAT CONST
CONST	SEGMENT
$cppxdata$??1Exception@Internal@Core@Math@Palmtree@@UEAA@XZ DD 019930522H
	DD	01H
	DD	imagerel $stateUnwindMap$??1Exception@Internal@Core@Math@Palmtree@@UEAA@XZ
	DD	00H
	DD	00H
	DD	01H
	DD	imagerel $ip2state$??1Exception@Internal@Core@Math@Palmtree@@UEAA@XZ
	DD	0e8H
	DD	00H
	DD	04H
CONST	ENDS
;	COMDAT xdata
xdata	SEGMENT
$unwind$??1Exception@Internal@Core@Math@Palmtree@@UEAA@XZ DD 025053519H
	DD	010e2313H
	DD	070070021H
	DD	05006H
	DD	imagerel __CxxFrameHandler3
	DD	imagerel $cppxdata$??1Exception@Internal@Core@Math@Palmtree@@UEAA@XZ
xdata	ENDS
;	COMDAT xdata
xdata	SEGMENT
$unwind$?dtor$0@?0???0Exception@Internal@Core@Math@Palmtree@@QEAA@AEBV01234@@Z@4HA DD 031001H
	DD	0700c4210H
	DD	0500bH
xdata	ENDS
;	COMDAT xdata
xdata	SEGMENT
$ip2state$??0Exception@Internal@Core@Math@Palmtree@@QEAA@AEBV01234@@Z DD imagerel ??0Exception@Internal@Core@Math@Palmtree@@QEAA@AEBV01234@@Z
	DD	0ffffffffH
	DD	imagerel ??0Exception@Internal@Core@Math@Palmtree@@QEAA@AEBV01234@@Z+84
	DD	00H
	DD	imagerel ??0Exception@Internal@Core@Math@Palmtree@@QEAA@AEBV01234@@Z+165
	DD	0ffffffffH
xdata	ENDS
;	COMDAT xdata
xdata	SEGMENT
$stateUnwindMap$??0Exception@Internal@Core@Math@Palmtree@@QEAA@AEBV01234@@Z DD 0ffffffffH
	DD	imagerel ?dtor$0@?0???0Exception@Internal@Core@Math@Palmtree@@QEAA@AEBV01234@@Z@4HA
xdata	ENDS
;	COMDAT CONST
CONST	SEGMENT
$cppxdata$??0Exception@Internal@Core@Math@Palmtree@@QEAA@AEBV01234@@Z DD 019930522H
	DD	01H
	DD	imagerel $stateUnwindMap$??0Exception@Internal@Core@Math@Palmtree@@QEAA@AEBV01234@@Z
	DD	00H
	DD	00H
	DD	03H
	DD	imagerel $ip2state$??0Exception@Internal@Core@Math@Palmtree@@QEAA@AEBV01234@@Z
	DD	0e8H
	DD	00H
	DD	04H
CONST	ENDS
;	COMDAT xdata
xdata	SEGMENT
$unwind$??0Exception@Internal@Core@Math@Palmtree@@QEAA@AEBV01234@@Z DD 025053a19H
	DD	01132318H
	DD	0700c0021H
	DD	0500bH
	DD	imagerel __CxxFrameHandler3
	DD	imagerel $cppxdata$??0Exception@Internal@Core@Math@Palmtree@@QEAA@AEBV01234@@Z
xdata	ENDS
;	COMDAT xdata
xdata	SEGMENT
$unwind$?dtor$0@?0???0Exception@Internal@Core@Math@Palmtree@@IEAA@HPEB_W0@Z@4HA DD 031001H
	DD	0700c4210H
	DD	0500bH
xdata	ENDS
;	COMDAT xdata
xdata	SEGMENT
$ip2state$??0Exception@Internal@Core@Math@Palmtree@@IEAA@HPEB_W0@Z DD imagerel ??0Exception@Internal@Core@Math@Palmtree@@IEAA@HPEB_W0@Z
	DD	0ffffffffH
	DD	imagerel ??0Exception@Internal@Core@Math@Palmtree@@IEAA@HPEB_W0@Z+93
	DD	00H
	DD	imagerel ??0Exception@Internal@Core@Math@Palmtree@@IEAA@HPEB_W0@Z+162
	DD	0ffffffffH
xdata	ENDS
;	COMDAT xdata
xdata	SEGMENT
$stateUnwindMap$??0Exception@Internal@Core@Math@Palmtree@@IEAA@HPEB_W0@Z DD 0ffffffffH
	DD	imagerel ?dtor$0@?0???0Exception@Internal@Core@Math@Palmtree@@IEAA@HPEB_W0@Z@4HA
xdata	ENDS
;	COMDAT CONST
CONST	SEGMENT
$cppxdata$??0Exception@Internal@Core@Math@Palmtree@@IEAA@HPEB_W0@Z DD 019930522H
	DD	01H
	DD	imagerel $stateUnwindMap$??0Exception@Internal@Core@Math@Palmtree@@IEAA@HPEB_W0@Z
	DD	00H
	DD	00H
	DD	03H
	DD	imagerel $ip2state$??0Exception@Internal@Core@Math@Palmtree@@IEAA@HPEB_W0@Z
	DD	0e8H
	DD	00H
	DD	04H
CONST	ENDS
;	COMDAT xdata
xdata	SEGMENT
$unwind$??0Exception@Internal@Core@Math@Palmtree@@IEAA@HPEB_W0@Z DD 025054319H
	DD	011c2321H
	DD	070150021H
	DD	05014H
	DD	imagerel __CxxFrameHandler3
	DD	imagerel $cppxdata$??0Exception@Internal@Core@Math@Palmtree@@IEAA@HPEB_W0@Z
xdata	ENDS
;	COMDAT xdata
xdata	SEGMENT
$unwind$?dtor$0@?0???0Exception@Internal@Core@Math@Palmtree@@IEAA@HPEB_W@Z@4HA DD 031001H
	DD	0700c4210H
	DD	0500bH
xdata	ENDS
;	COMDAT xdata
xdata	SEGMENT
$ip2state$??0Exception@Internal@Core@Math@Palmtree@@IEAA@HPEB_W@Z DD imagerel ??0Exception@Internal@Core@Math@Palmtree@@IEAA@HPEB_W@Z
	DD	0ffffffffH
	DD	imagerel ??0Exception@Internal@Core@Math@Palmtree@@IEAA@HPEB_W@Z+88
	DD	00H
	DD	imagerel ??0Exception@Internal@Core@Math@Palmtree@@IEAA@HPEB_W@Z+154
	DD	0ffffffffH
xdata	ENDS
;	COMDAT xdata
xdata	SEGMENT
$stateUnwindMap$??0Exception@Internal@Core@Math@Palmtree@@IEAA@HPEB_W@Z DD 0ffffffffH
	DD	imagerel ?dtor$0@?0???0Exception@Internal@Core@Math@Palmtree@@IEAA@HPEB_W@Z@4HA
xdata	ENDS
;	COMDAT CONST
CONST	SEGMENT
$cppxdata$??0Exception@Internal@Core@Math@Palmtree@@IEAA@HPEB_W@Z DD 019930522H
	DD	01H
	DD	imagerel $stateUnwindMap$??0Exception@Internal@Core@Math@Palmtree@@IEAA@HPEB_W@Z
	DD	00H
	DD	00H
	DD	03H
	DD	imagerel $ip2state$??0Exception@Internal@Core@Math@Palmtree@@IEAA@HPEB_W@Z
	DD	0e8H
	DD	00H
	DD	04H
CONST	ENDS
;	COMDAT xdata
xdata	SEGMENT
$unwind$??0Exception@Internal@Core@Math@Palmtree@@IEAA@HPEB_W@Z DD 025053e19H
	DD	0117231cH
	DD	070100021H
	DD	0500fH
	DD	imagerel __CxxFrameHandler3
	DD	imagerel $cppxdata$??0Exception@Internal@Core@Math@Palmtree@@IEAA@HPEB_W@Z
xdata	ENDS
;	COMDAT xdata
xdata	SEGMENT
$unwind$??_Gexception@std@@UEAAPEAXI@Z DD 025052e01H
	DD	01122317H
	DD	0700b001dH
	DD	0500aH
xdata	ENDS
;	COMDAT xdata
xdata	SEGMENT
$unwind$?what@exception@std@@UEBAPEBDXZ DD 025052a01H
	DD	010e2313H
	DD	07007001fH
	DD	05006H
xdata	ENDS
;	COMDAT xdata
xdata	SEGMENT
$ip2state$??1exception@std@@UEAA@XZ DD imagerel ??1exception@std@@UEAA@XZ
	DD	0ffffffffH
xdata	ENDS
;	COMDAT CONST
CONST	SEGMENT
$cppxdata$??1exception@std@@UEAA@XZ DD 019930522H
	DD	00H
	DD	00H
	DD	00H
	DD	00H
	DD	01H
	DD	imagerel $ip2state$??1exception@std@@UEAA@XZ
	DD	0e8H
	DD	00H
	DD	04H
CONST	ENDS
;	COMDAT xdata
xdata	SEGMENT
$unwind$??1exception@std@@UEAA@XZ DD 025053519H
	DD	010e2313H
	DD	070070021H
	DD	05006H
	DD	imagerel __CxxFrameHandler3
	DD	imagerel $cppxdata$??1exception@std@@UEAA@XZ
xdata	ENDS
;	COMDAT xdata
xdata	SEGMENT
$ip2state$??0exception@std@@QEAA@XZ DD imagerel ??0exception@std@@QEAA@XZ
	DD	0ffffffffH
xdata	ENDS
;	COMDAT CONST
CONST	SEGMENT
$cppxdata$??0exception@std@@QEAA@XZ DD 019930522H
	DD	00H
	DD	00H
	DD	00H
	DD	00H
	DD	01H
	DD	imagerel $ip2state$??0exception@std@@QEAA@XZ
	DD	0e8H
	DD	00H
	DD	04H
CONST	ENDS
;	COMDAT xdata
xdata	SEGMENT
$unwind$??0exception@std@@QEAA@XZ DD 025053519H
	DD	010e2313H
	DD	070070021H
	DD	05006H
	DD	imagerel __CxxFrameHandler3
	DD	imagerel $cppxdata$??0exception@std@@QEAA@XZ
xdata	ENDS
; Function compile flags: /Odt
;	COMDAT __JustMyCode_Default
_TEXT	SEGMENT
__JustMyCode_Default PROC				; COMDAT
  00000	c2 00 00	 ret	 0
__JustMyCode_Default ENDP
_TEXT	ENDS
; Function compile flags: /Odtp /RTCsu /ZI
; File z:\sources\lunor\repos\rougemeilland\palmtree.math.core.uint\palmtree.math.core.uint\pmc_divrem.cpp
;	COMDAT ?PMC_DivRem_X_X_Imp@Internal@Core@Math@Palmtree@@YAPEAU__tag_NUMBER_HEADER@1234@PEAU51234@0PEAPEAU51234@@Z
_TEXT	SEGMENT
u_bit_count$7 = 8
v_bit_count$8 = 40
root$9 = 72
q_bit_count$10 = 136
r_bit_count$11 = 168
r$12 = 200
root$13 = 232
r_bit_count$14 = 296
r$15 = 328
root$16 = 360
q_bit_count$17 = 424
r_bit_count$18 = 456
r$19 = 488
work_v_buf$20 = 520
root$21 = 552
r_bit_count$22 = 616
r$23 = 648
work_v_buf$24 = 680
$T25 = 1096
$T26 = 1128
$T27 = 1160
$T28 = 1192
$T29 = 1224
tv272 = 1240
tv222 = 1240
tv178 = 1240
u$ = 1280
v$ = 1288
q$ = 1296
?PMC_DivRem_X_X_Imp@Internal@Core@Math@Palmtree@@YAPEAU__tag_NUMBER_HEADER@1234@PEAU51234@0PEAPEAU51234@@Z PROC ; Palmtree::Math::Core::Internal::PMC_DivRem_X_X_Imp, COMDAT

; 2039 :     {

  00000	4c 89 44 24 18	 mov	 QWORD PTR [rsp+24], r8
  00005	48 89 54 24 10	 mov	 QWORD PTR [rsp+16], rdx
  0000a	48 89 4c 24 08	 mov	 QWORD PTR [rsp+8], rcx
  0000f	55		 push	 rbp
  00010	57		 push	 rdi
  00011	48 81 ec 28 05
	00 00		 sub	 rsp, 1320		; 00000528H
  00018	48 8d 6c 24 40	 lea	 rbp, QWORD PTR [rsp+64]
  0001d	48 8b fc	 mov	 rdi, rsp
  00020	b9 4a 01 00 00	 mov	 ecx, 330		; 0000014aH
  00025	b8 cc cc cc cc	 mov	 eax, -858993460		; ccccccccH
  0002a	f3 ab		 rep stosd
  0002c	48 8b 8c 24 48
	05 00 00	 mov	 rcx, QWORD PTR [rsp+1352]
  00034	48 c7 85 c8 04
	00 00 fe ff ff
	ff		 mov	 QWORD PTR $T29[rbp], -2
  0003f	48 8d 0d 00 00
	00 00		 lea	 rcx, OFFSET FLAT:__E17217E9_pmc_divrem@cpp
  00046	e8 00 00 00 00	 call	 __CheckForDebuggerJustMyCode

; 2040 :         if (u->IS_ZERO)

  0004b	48 8b 85 00 05
	00 00		 mov	 rax, QWORD PTR u$[rbp]
  00052	8b 40 08	 mov	 eax, DWORD PTR [rax+8]
  00055	83 e0 01	 and	 eax, 1
  00058	85 c0		 test	 eax, eax
  0005a	74 2c		 je	 SHORT $LN2@PMC_DivRem

; 2041 :         {
; 2042 :             // u  0 
; 2043 : 
; 2044 :             // q = 0, r = 0 
; 2045 :             if (q != nullptr)

  0005c	48 83 bd 10 05
	00 00 00	 cmp	 QWORD PTR q$[rbp], 0
  00064	74 11		 je	 SHORT $LN4@PMC_DivRem

; 2046 :                 *q = &number_zero;

  00066	48 8b 85 10 05
	00 00		 mov	 rax, QWORD PTR q$[rbp]
  0006d	48 8d 0d 00 00
	00 00		 lea	 rcx, OFFSET FLAT:?number_zero@Internal@Core@Math@Palmtree@@3U__tag_NUMBER_HEADER@1234@A ; Palmtree::Math::Core::Internal::number_zero
  00074	48 89 08	 mov	 QWORD PTR [rax], rcx
$LN4@PMC_DivRem:

; 2047 :             return (&number_zero);

  00077	48 8d 05 00 00
	00 00		 lea	 rax, OFFSET FLAT:?number_zero@Internal@Core@Math@Palmtree@@3U__tag_NUMBER_HEADER@1234@A ; Palmtree::Math::Core::Internal::number_zero
  0007e	e9 1f 07 00 00	 jmp	 $LN1@PMC_DivRem

; 2048 :         }
; 2049 :         else

  00083	e9 1a 07 00 00	 jmp	 $LN1@PMC_DivRem
$LN2@PMC_DivRem:

; 2050 :         {
; 2051 :             // u  0 
; 2052 : 
; 2053 :             if (v->IS_ONE)

  00088	48 8b 85 08 05
	00 00		 mov	 rax, QWORD PTR v$[rbp]
  0008f	8b 40 08	 mov	 eax, DWORD PTR [rax+8]
  00092	d1 e8		 shr	 eax, 1
  00094	83 e0 01	 and	 eax, 1
  00097	85 c0		 test	 eax, eax
  00099	74 31		 je	 SHORT $LN5@PMC_DivRem

; 2054 :             {
; 2055 :                 // v  1 
; 2056 : 
; 2057 :                 // q = u, r = 0 
; 2058 :                 if (q != nullptr)

  0009b	48 83 bd 10 05
	00 00 00	 cmp	 QWORD PTR q$[rbp], 0
  000a3	74 16		 je	 SHORT $LN7@PMC_DivRem

; 2059 :                     *q = DuplicateNumber(u);

  000a5	48 8b 8d 00 05
	00 00		 mov	 rcx, QWORD PTR u$[rbp]
  000ac	e8 00 00 00 00	 call	 ?DuplicateNumber@Internal@Core@Math@Palmtree@@YAPEAU__tag_NUMBER_HEADER@1234@PEAU51234@@Z ; Palmtree::Math::Core::Internal::DuplicateNumber
  000b1	48 8b 8d 10 05
	00 00		 mov	 rcx, QWORD PTR q$[rbp]
  000b8	48 89 01	 mov	 QWORD PTR [rcx], rax
$LN7@PMC_DivRem:

; 2060 :                 return (&number_zero);

  000bb	48 8d 05 00 00
	00 00		 lea	 rax, OFFSET FLAT:?number_zero@Internal@Core@Math@Palmtree@@3U__tag_NUMBER_HEADER@1234@A ; Palmtree::Math::Core::Internal::number_zero
  000c2	e9 db 06 00 00	 jmp	 $LN1@PMC_DivRem

; 2061 :             }
; 2062 :             else

  000c7	e9 d6 06 00 00	 jmp	 $LN1@PMC_DivRem
$LN5@PMC_DivRem:

; 2063 :             {
; 2064 :                 // u > 0  v > 1 
; 2065 : 
; 2066 :                 // x  y 
; 2067 :                 __UNIT_TYPE u_bit_count = u->UNIT_BIT_COUNT;

  000cc	48 8b 85 00 05
	00 00		 mov	 rax, QWORD PTR u$[rbp]
  000d3	48 8b 40 20	 mov	 rax, QWORD PTR [rax+32]
  000d7	48 89 45 08	 mov	 QWORD PTR u_bit_count$7[rbp], rax

; 2068 :                 __UNIT_TYPE v_bit_count = v->UNIT_BIT_COUNT;

  000db	48 8b 85 08 05
	00 00		 mov	 rax, QWORD PTR v$[rbp]
  000e2	48 8b 40 20	 mov	 rax, QWORD PTR [rax+32]
  000e6	48 89 45 28	 mov	 QWORD PTR v_bit_count$8[rbp], rax

; 2069 :                 if (u_bit_count < v_bit_count)

  000ea	48 8b 45 28	 mov	 rax, QWORD PTR v_bit_count$8[rbp]
  000ee	48 39 45 08	 cmp	 QWORD PTR u_bit_count$7[rbp], rax
  000f2	73 31		 jae	 SHORT $LN8@PMC_DivRem

; 2070 :                 {
; 2071 :                     //  u < v 
; 2072 : 
; 2073 :                     // q = 0, r = u 
; 2074 :                     if (q != nullptr)

  000f4	48 83 bd 10 05
	00 00 00	 cmp	 QWORD PTR q$[rbp], 0
  000fc	74 11		 je	 SHORT $LN10@PMC_DivRem

; 2075 :                         *q = &number_zero;

  000fe	48 8b 85 10 05
	00 00		 mov	 rax, QWORD PTR q$[rbp]
  00105	48 8d 0d 00 00
	00 00		 lea	 rcx, OFFSET FLAT:?number_zero@Internal@Core@Math@Palmtree@@3U__tag_NUMBER_HEADER@1234@A ; Palmtree::Math::Core::Internal::number_zero
  0010c	48 89 08	 mov	 QWORD PTR [rax], rcx
$LN10@PMC_DivRem:

; 2076 :                     return (DuplicateNumber(u));

  0010f	48 8b 8d 00 05
	00 00		 mov	 rcx, QWORD PTR u$[rbp]
  00116	e8 00 00 00 00	 call	 ?DuplicateNumber@Internal@Core@Math@Palmtree@@YAPEAU__tag_NUMBER_HEADER@1234@PEAU51234@@Z ; Palmtree::Math::Core::Internal::DuplicateNumber
  0011b	e9 82 06 00 00	 jmp	 $LN1@PMC_DivRem
  00120	e9 7d 06 00 00	 jmp	 $LN1@PMC_DivRem
$LN8@PMC_DivRem:

; 2077 :                 }
; 2078 :                 else if (v_bit_count <= sizeof(__UNIT_TYPE) * 8)

  00125	48 83 7d 28 40	 cmp	 QWORD PTR v_bit_count$8[rbp], 64 ; 00000040H
  0012a	0f 87 ce 02 00
	00		 ja	 $LN11@PMC_DivRem

; 2079 :                 {
; 2080 :                     //  1 
; 2081 : 
; 2082 :                     if (q != nullptr)

  00130	48 83 bd 10 05
	00 00 00	 cmp	 QWORD PTR q$[rbp], 0
  00138	0f 84 a4 01 00
	00		 je	 $LN13@PMC_DivRem

; 2083 :                     {
; 2084 :                         ResourceHolderUINT root;

  0013e	48 8d 4d 48	 lea	 rcx, QWORD PTR root$9[rbp]
  00142	e8 00 00 00 00	 call	 ??0ResourceHolderUINT@Internal@Core@Math@Palmtree@@QEAA@XZ ; Palmtree::Math::Core::Internal::ResourceHolderUINT::ResourceHolderUINT
  00147	90		 npad	 1

; 2085 :                         __UNIT_TYPE q_bit_count = u_bit_count - v_bit_count + 1 + __UNIT_TYPE_BIT_COUNT; //  u_bit_count - v_bit_count + 1 

  00148	48 8b 45 28	 mov	 rax, QWORD PTR v_bit_count$8[rbp]
  0014c	48 8b 4d 08	 mov	 rcx, QWORD PTR u_bit_count$7[rbp]
  00150	48 2b c8	 sub	 rcx, rax
  00153	48 8b c1	 mov	 rax, rcx
  00156	48 83 c0 41	 add	 rax, 65			; 00000041H
  0015a	48 89 85 88 00
	00 00		 mov	 QWORD PTR q_bit_count$10[rbp], rax

; 2086 :                         *q = root.AllocateNumber(q_bit_count);

  00161	48 8b 95 88 00
	00 00		 mov	 rdx, QWORD PTR q_bit_count$10[rbp]
  00168	48 8d 4d 48	 lea	 rcx, QWORD PTR root$9[rbp]
  0016c	e8 00 00 00 00	 call	 ?AllocateNumber@ResourceHolderUINT@Internal@Core@Math@Palmtree@@QEAAPEAU__tag_NUMBER_HEADER@2345@_K@Z ; Palmtree::Math::Core::Internal::ResourceHolderUINT::AllocateNumber
  00171	48 8b 8d 10 05
	00 00		 mov	 rcx, QWORD PTR q$[rbp]
  00178	48 89 01	 mov	 QWORD PTR [rcx], rax

; 2087 :                         __UNIT_TYPE r_bit_count = sizeof(__UNIT_TYPE) * 8;

  0017b	48 c7 85 a8 00
	00 00 40 00 00
	00		 mov	 QWORD PTR r_bit_count$11[rbp], 64 ; 00000040H

; 2088 :                         NUMBER_HEADER* r = root.AllocateNumber(r_bit_count);

  00186	48 8b 95 a8 00
	00 00		 mov	 rdx, QWORD PTR r_bit_count$11[rbp]
  0018d	48 8d 4d 48	 lea	 rcx, QWORD PTR root$9[rbp]
  00191	e8 00 00 00 00	 call	 ?AllocateNumber@ResourceHolderUINT@Internal@Core@Math@Palmtree@@QEAAPEAU__tag_NUMBER_HEADER@2345@_K@Z ; Palmtree::Math::Core::Internal::ResourceHolderUINT::AllocateNumber
  00196	48 89 85 c8 00
	00 00		 mov	 QWORD PTR r$12[rbp], rax

; 2089 :                         DivRem_X_1W(u->BLOCK, u->UNIT_WORD_COUNT, (__UNIT_TYPE)v->BLOCK[0], (*q)->BLOCK, r->BLOCK);

  0019d	48 8b 85 10 05
	00 00		 mov	 rax, QWORD PTR q$[rbp]
  001a4	48 8b 00	 mov	 rax, QWORD PTR [rax]
  001a7	b9 08 00 00 00	 mov	 ecx, 8
  001ac	48 6b c9 00	 imul	 rcx, rcx, 0
  001b0	48 8b 95 08 05
	00 00		 mov	 rdx, QWORD PTR v$[rbp]
  001b7	48 8b 52 40	 mov	 rdx, QWORD PTR [rdx+64]
  001bb	4c 8b 85 c8 00
	00 00		 mov	 r8, QWORD PTR r$12[rbp]
  001c2	4d 8b 40 40	 mov	 r8, QWORD PTR [r8+64]
  001c6	4c 89 44 24 20	 mov	 QWORD PTR [rsp+32], r8
  001cb	4c 8b 48 40	 mov	 r9, QWORD PTR [rax+64]
  001cf	4c 8b 04 0a	 mov	 r8, QWORD PTR [rdx+rcx]
  001d3	48 8b 85 00 05
	00 00		 mov	 rax, QWORD PTR u$[rbp]
  001da	48 8b 50 18	 mov	 rdx, QWORD PTR [rax+24]
  001de	48 8b 85 00 05
	00 00		 mov	 rax, QWORD PTR u$[rbp]
  001e5	48 8b 48 40	 mov	 rcx, QWORD PTR [rax+64]
  001e9	e8 00 00 00 00	 call	 ?DivRem_X_1W@Internal@Core@Math@Palmtree@@YAXPEA_K_K100@Z ; Palmtree::Math::Core::Internal::DivRem_X_1W

; 2090 :                         root.CheckNumber(*q);

  001ee	48 8b 85 10 05
	00 00		 mov	 rax, QWORD PTR q$[rbp]
  001f5	48 8b 10	 mov	 rdx, QWORD PTR [rax]
  001f8	48 8d 4d 48	 lea	 rcx, QWORD PTR root$9[rbp]
  001fc	e8 00 00 00 00	 call	 ?CheckNumber@ResourceHolderUINT@Internal@Core@Math@Palmtree@@QEAAXPEAU__tag_NUMBER_HEADER@2345@@Z ; Palmtree::Math::Core::Internal::ResourceHolderUINT::CheckNumber

; 2091 :                         root.CheckNumber(r);

  00201	48 8b 95 c8 00
	00 00		 mov	 rdx, QWORD PTR r$12[rbp]
  00208	48 8d 4d 48	 lea	 rcx, QWORD PTR root$9[rbp]
  0020c	e8 00 00 00 00	 call	 ?CheckNumber@ResourceHolderUINT@Internal@Core@Math@Palmtree@@QEAAXPEAU__tag_NUMBER_HEADER@2345@@Z ; Palmtree::Math::Core::Internal::ResourceHolderUINT::CheckNumber

; 2092 :                         CommitNumber(*q);

  00211	48 8b 85 10 05
	00 00		 mov	 rax, QWORD PTR q$[rbp]
  00218	48 8b 08	 mov	 rcx, QWORD PTR [rax]
  0021b	e8 00 00 00 00	 call	 ?CommitNumber@Internal@Core@Math@Palmtree@@YAXPEAU__tag_NUMBER_HEADER@1234@@Z ; Palmtree::Math::Core::Internal::CommitNumber

; 2093 :                         CommitNumber(r);

  00220	48 8b 8d c8 00
	00 00		 mov	 rcx, QWORD PTR r$12[rbp]
  00227	e8 00 00 00 00	 call	 ?CommitNumber@Internal@Core@Math@Palmtree@@YAXPEAU__tag_NUMBER_HEADER@1234@@Z ; Palmtree::Math::Core::Internal::CommitNumber

; 2094 :                         if ((*q)->IS_ZERO)

  0022c	48 8b 85 10 05
	00 00		 mov	 rax, QWORD PTR q$[rbp]
  00233	48 8b 00	 mov	 rax, QWORD PTR [rax]
  00236	8b 40 08	 mov	 eax, DWORD PTR [rax+8]
  00239	83 e0 01	 and	 eax, 1
  0023c	85 c0		 test	 eax, eax
  0023e	74 26		 je	 SHORT $LN15@PMC_DivRem

; 2095 :                         {
; 2096 :                             root.DeallocateNumber(*q);

  00240	48 8b 85 10 05
	00 00		 mov	 rax, QWORD PTR q$[rbp]
  00247	48 8b 10	 mov	 rdx, QWORD PTR [rax]
  0024a	48 8d 4d 48	 lea	 rcx, QWORD PTR root$9[rbp]
  0024e	e8 00 00 00 00	 call	 ?DeallocateNumber@ResourceHolderUINT@Internal@Core@Math@Palmtree@@QEAAXPEAU__tag_NUMBER_HEADER@2345@@Z ; Palmtree::Math::Core::Internal::ResourceHolderUINT::DeallocateNumber

; 2097 :                             *q = &number_zero;

  00253	48 8b 85 10 05
	00 00		 mov	 rax, QWORD PTR q$[rbp]
  0025a	48 8d 0d 00 00
	00 00		 lea	 rcx, OFFSET FLAT:?number_zero@Internal@Core@Math@Palmtree@@3U__tag_NUMBER_HEADER@1234@A ; Palmtree::Math::Core::Internal::number_zero
  00261	48 89 08	 mov	 QWORD PTR [rax], rcx

; 2098 :                         }
; 2099 :                         else

  00264	eb 13		 jmp	 SHORT $LN16@PMC_DivRem
$LN15@PMC_DivRem:

; 2100 :                             root.UnlinkNumber(*q);

  00266	48 8b 85 10 05
	00 00		 mov	 rax, QWORD PTR q$[rbp]
  0026d	48 8b 10	 mov	 rdx, QWORD PTR [rax]
  00270	48 8d 4d 48	 lea	 rcx, QWORD PTR root$9[rbp]
  00274	e8 00 00 00 00	 call	 ?UnlinkNumber@ResourceHolderUINT@Internal@Core@Math@Palmtree@@QEAAXPEAU__tag_NUMBER_HEADER@2345@@Z ; Palmtree::Math::Core::Internal::ResourceHolderUINT::UnlinkNumber
$LN16@PMC_DivRem:

; 2101 :                         if (r->IS_ZERO)

  00279	48 8b 85 c8 00
	00 00		 mov	 rax, QWORD PTR r$12[rbp]
  00280	8b 40 08	 mov	 eax, DWORD PTR [rax+8]
  00283	83 e0 01	 and	 eax, 1
  00286	85 c0		 test	 eax, eax
  00288	74 20		 je	 SHORT $LN17@PMC_DivRem

; 2102 :                         {
; 2103 :                             root.DeallocateNumber(r);

  0028a	48 8b 95 c8 00
	00 00		 mov	 rdx, QWORD PTR r$12[rbp]
  00291	48 8d 4d 48	 lea	 rcx, QWORD PTR root$9[rbp]
  00295	e8 00 00 00 00	 call	 ?DeallocateNumber@ResourceHolderUINT@Internal@Core@Math@Palmtree@@QEAAXPEAU__tag_NUMBER_HEADER@2345@@Z ; Palmtree::Math::Core::Internal::ResourceHolderUINT::DeallocateNumber

; 2104 :                             r = &number_zero;

  0029a	48 8d 05 00 00
	00 00		 lea	 rax, OFFSET FLAT:?number_zero@Internal@Core@Math@Palmtree@@3U__tag_NUMBER_HEADER@1234@A ; Palmtree::Math::Core::Internal::number_zero
  002a1	48 89 85 c8 00
	00 00		 mov	 QWORD PTR r$12[rbp], rax

; 2105 :                         }
; 2106 :                         else

  002a8	eb 10		 jmp	 SHORT $LN18@PMC_DivRem
$LN17@PMC_DivRem:

; 2107 :                             root.UnlinkNumber(r);

  002aa	48 8b 95 c8 00
	00 00		 mov	 rdx, QWORD PTR r$12[rbp]
  002b1	48 8d 4d 48	 lea	 rcx, QWORD PTR root$9[rbp]
  002b5	e8 00 00 00 00	 call	 ?UnlinkNumber@ResourceHolderUINT@Internal@Core@Math@Palmtree@@QEAAXPEAU__tag_NUMBER_HEADER@2345@@Z ; Palmtree::Math::Core::Internal::ResourceHolderUINT::UnlinkNumber
$LN18@PMC_DivRem:

; 2108 :                         return (r);

  002ba	48 8b 85 c8 00
	00 00		 mov	 rax, QWORD PTR r$12[rbp]
  002c1	48 89 85 48 04
	00 00		 mov	 QWORD PTR $T25[rbp], rax
  002c8	48 8d 4d 48	 lea	 rcx, QWORD PTR root$9[rbp]
  002cc	e8 00 00 00 00	 call	 ??1ResourceHolderUINT@Internal@Core@Math@Palmtree@@UEAA@XZ ; Palmtree::Math::Core::Internal::ResourceHolderUINT::~ResourceHolderUINT
  002d1	48 8b 85 48 04
	00 00		 mov	 rax, QWORD PTR $T25[rbp]
  002d8	e9 c5 04 00 00	 jmp	 $LN1@PMC_DivRem

; 2109 :                     }
; 2110 :                     else

  002dd	e9 17 01 00 00	 jmp	 $LN14@PMC_DivRem
$LN13@PMC_DivRem:

; 2111 :                     {
; 2112 :                         ResourceHolderUINT root;

  002e2	48 8d 8d e8 00
	00 00		 lea	 rcx, QWORD PTR root$13[rbp]
  002e9	e8 00 00 00 00	 call	 ??0ResourceHolderUINT@Internal@Core@Math@Palmtree@@QEAA@XZ ; Palmtree::Math::Core::Internal::ResourceHolderUINT::ResourceHolderUINT
  002ee	90		 npad	 1

; 2113 :                         __UNIT_TYPE r_bit_count = sizeof(__UNIT_TYPE) * 8;

  002ef	48 c7 85 28 01
	00 00 40 00 00
	00		 mov	 QWORD PTR r_bit_count$14[rbp], 64 ; 00000040H

; 2114 :                         NUMBER_HEADER* r = root.AllocateNumber(r_bit_count);

  002fa	48 8b 95 28 01
	00 00		 mov	 rdx, QWORD PTR r_bit_count$14[rbp]
  00301	48 8d 8d e8 00
	00 00		 lea	 rcx, QWORD PTR root$13[rbp]
  00308	e8 00 00 00 00	 call	 ?AllocateNumber@ResourceHolderUINT@Internal@Core@Math@Palmtree@@QEAAPEAU__tag_NUMBER_HEADER@2345@_K@Z ; Palmtree::Math::Core::Internal::ResourceHolderUINT::AllocateNumber
  0030d	48 89 85 48 01
	00 00		 mov	 QWORD PTR r$15[rbp], rax

; 2115 :                         r->BLOCK[0] = Rem_X_1W(u->BLOCK, u->UNIT_WORD_COUNT, (__UNIT_TYPE)v->BLOCK[0]);

  00314	b8 08 00 00 00	 mov	 eax, 8
  00319	48 6b c0 00	 imul	 rax, rax, 0
  0031d	48 8b 8d 08 05
	00 00		 mov	 rcx, QWORD PTR v$[rbp]
  00324	48 8b 49 40	 mov	 rcx, QWORD PTR [rcx+64]
  00328	4c 8b 04 01	 mov	 r8, QWORD PTR [rcx+rax]
  0032c	48 8b 85 00 05
	00 00		 mov	 rax, QWORD PTR u$[rbp]
  00333	48 8b 50 18	 mov	 rdx, QWORD PTR [rax+24]
  00337	48 8b 85 00 05
	00 00		 mov	 rax, QWORD PTR u$[rbp]
  0033e	48 8b 48 40	 mov	 rcx, QWORD PTR [rax+64]
  00342	e8 00 00 00 00	 call	 ?Rem_X_1W@Internal@Core@Math@Palmtree@@YA_KPEA_K_K1@Z ; Palmtree::Math::Core::Internal::Rem_X_1W
  00347	48 89 85 d8 04
	00 00		 mov	 QWORD PTR tv178[rbp], rax
  0034e	b8 08 00 00 00	 mov	 eax, 8
  00353	48 6b c0 00	 imul	 rax, rax, 0
  00357	48 8b 8d 48 01
	00 00		 mov	 rcx, QWORD PTR r$15[rbp]
  0035e	48 8b 49 40	 mov	 rcx, QWORD PTR [rcx+64]
  00362	48 8b 95 d8 04
	00 00		 mov	 rdx, QWORD PTR tv178[rbp]
  00369	48 89 14 08	 mov	 QWORD PTR [rax+rcx], rdx

; 2116 :                         root.CheckNumber(r);

  0036d	48 8b 95 48 01
	00 00		 mov	 rdx, QWORD PTR r$15[rbp]
  00374	48 8d 8d e8 00
	00 00		 lea	 rcx, QWORD PTR root$13[rbp]
  0037b	e8 00 00 00 00	 call	 ?CheckNumber@ResourceHolderUINT@Internal@Core@Math@Palmtree@@QEAAXPEAU__tag_NUMBER_HEADER@2345@@Z ; Palmtree::Math::Core::Internal::ResourceHolderUINT::CheckNumber

; 2117 :                         CommitNumber(r);

  00380	48 8b 8d 48 01
	00 00		 mov	 rcx, QWORD PTR r$15[rbp]
  00387	e8 00 00 00 00	 call	 ?CommitNumber@Internal@Core@Math@Palmtree@@YAXPEAU__tag_NUMBER_HEADER@1234@@Z ; Palmtree::Math::Core::Internal::CommitNumber

; 2118 :                         if (r->IS_ZERO)

  0038c	48 8b 85 48 01
	00 00		 mov	 rax, QWORD PTR r$15[rbp]
  00393	8b 40 08	 mov	 eax, DWORD PTR [rax+8]
  00396	83 e0 01	 and	 eax, 1
  00399	85 c0		 test	 eax, eax
  0039b	74 23		 je	 SHORT $LN19@PMC_DivRem

; 2119 :                         {
; 2120 :                             root.DeallocateNumber(r);

  0039d	48 8b 95 48 01
	00 00		 mov	 rdx, QWORD PTR r$15[rbp]
  003a4	48 8d 8d e8 00
	00 00		 lea	 rcx, QWORD PTR root$13[rbp]
  003ab	e8 00 00 00 00	 call	 ?DeallocateNumber@ResourceHolderUINT@Internal@Core@Math@Palmtree@@QEAAXPEAU__tag_NUMBER_HEADER@2345@@Z ; Palmtree::Math::Core::Internal::ResourceHolderUINT::DeallocateNumber

; 2121 :                             r = &number_zero;

  003b0	48 8d 05 00 00
	00 00		 lea	 rax, OFFSET FLAT:?number_zero@Internal@Core@Math@Palmtree@@3U__tag_NUMBER_HEADER@1234@A ; Palmtree::Math::Core::Internal::number_zero
  003b7	48 89 85 48 01
	00 00		 mov	 QWORD PTR r$15[rbp], rax

; 2122 :                         }
; 2123 :                         else

  003be	eb 13		 jmp	 SHORT $LN20@PMC_DivRem
$LN19@PMC_DivRem:

; 2124 :                             root.UnlinkNumber(r);

  003c0	48 8b 95 48 01
	00 00		 mov	 rdx, QWORD PTR r$15[rbp]
  003c7	48 8d 8d e8 00
	00 00		 lea	 rcx, QWORD PTR root$13[rbp]
  003ce	e8 00 00 00 00	 call	 ?UnlinkNumber@ResourceHolderUINT@Internal@Core@Math@Palmtree@@QEAAXPEAU__tag_NUMBER_HEADER@2345@@Z ; Palmtree::Math::Core::Internal::ResourceHolderUINT::UnlinkNumber
$LN20@PMC_DivRem:

; 2125 :                         return (r);

  003d3	48 8b 85 48 01
	00 00		 mov	 rax, QWORD PTR r$15[rbp]
  003da	48 89 85 68 04
	00 00		 mov	 QWORD PTR $T26[rbp], rax
  003e1	48 8d 8d e8 00
	00 00		 lea	 rcx, QWORD PTR root$13[rbp]
  003e8	e8 00 00 00 00	 call	 ??1ResourceHolderUINT@Internal@Core@Math@Palmtree@@UEAA@XZ ; Palmtree::Math::Core::Internal::ResourceHolderUINT::~ResourceHolderUINT
  003ed	48 8b 85 68 04
	00 00		 mov	 rax, QWORD PTR $T26[rbp]
  003f4	e9 a9 03 00 00	 jmp	 $LN1@PMC_DivRem
$LN14@PMC_DivRem:

; 2126 :                     }
; 2127 :                 }
; 2128 :                 else

  003f9	e9 a4 03 00 00	 jmp	 $LN1@PMC_DivRem
$LN11@PMC_DivRem:

; 2129 :                 {
; 2130 :                     //  2 
; 2131 :                     if (q != nullptr)

  003fe	48 83 bd 10 05
	00 00 00	 cmp	 QWORD PTR q$[rbp], 0
  00406	0f 84 2c 02 00
	00		 je	 $LN21@PMC_DivRem

; 2132 :                     {
; 2133 :                         ResourceHolderUINT root;

  0040c	48 8d 8d 68 01
	00 00		 lea	 rcx, QWORD PTR root$16[rbp]
  00413	e8 00 00 00 00	 call	 ??0ResourceHolderUINT@Internal@Core@Math@Palmtree@@QEAA@XZ ; Palmtree::Math::Core::Internal::ResourceHolderUINT::ResourceHolderUINT
  00418	90		 npad	 1

; 2134 :                         __UNIT_TYPE q_bit_count = u_bit_count - v_bit_count + 1 + __UNIT_TYPE_BIT_COUNT; //  u_bit_count - v_bit_count + 1 

  00419	48 8b 45 28	 mov	 rax, QWORD PTR v_bit_count$8[rbp]
  0041d	48 8b 4d 08	 mov	 rcx, QWORD PTR u_bit_count$7[rbp]
  00421	48 2b c8	 sub	 rcx, rax
  00424	48 8b c1	 mov	 rax, rcx
  00427	48 83 c0 41	 add	 rax, 65			; 00000041H
  0042b	48 89 85 a8 01
	00 00		 mov	 QWORD PTR q_bit_count$17[rbp], rax

; 2135 :                         __UNIT_TYPE r_bit_count = u_bit_count + __UNIT_TYPE_BIT_COUNT; //  v_bit_count 

  00432	48 8b 45 08	 mov	 rax, QWORD PTR u_bit_count$7[rbp]
  00436	48 83 c0 40	 add	 rax, 64			; 00000040H
  0043a	48 89 85 c8 01
	00 00		 mov	 QWORD PTR r_bit_count$18[rbp], rax

; 2136 :                         *q = root.AllocateNumber(q_bit_count);

  00441	48 8b 95 a8 01
	00 00		 mov	 rdx, QWORD PTR q_bit_count$17[rbp]
  00448	48 8d 8d 68 01
	00 00		 lea	 rcx, QWORD PTR root$16[rbp]
  0044f	e8 00 00 00 00	 call	 ?AllocateNumber@ResourceHolderUINT@Internal@Core@Math@Palmtree@@QEAAPEAU__tag_NUMBER_HEADER@2345@_K@Z ; Palmtree::Math::Core::Internal::ResourceHolderUINT::AllocateNumber
  00454	48 8b 8d 10 05
	00 00		 mov	 rcx, QWORD PTR q$[rbp]
  0045b	48 89 01	 mov	 QWORD PTR [rcx], rax

; 2137 :                         NUMBER_HEADER* r = root.AllocateNumber(r_bit_count);

  0045e	48 8b 95 c8 01
	00 00		 mov	 rdx, QWORD PTR r_bit_count$18[rbp]
  00465	48 8d 8d 68 01
	00 00		 lea	 rcx, QWORD PTR root$16[rbp]
  0046c	e8 00 00 00 00	 call	 ?AllocateNumber@ResourceHolderUINT@Internal@Core@Math@Palmtree@@QEAAPEAU__tag_NUMBER_HEADER@2345@_K@Z ; Palmtree::Math::Core::Internal::ResourceHolderUINT::AllocateNumber
  00471	48 89 85 e8 01
	00 00		 mov	 QWORD PTR r$19[rbp], rax

; 2138 :                          __UNIT_TYPE* work_v_buf = root.AllocateBlock(v->UNIT_WORD_COUNT * __UNIT_TYPE_BIT_COUNT);

  00478	48 8b 85 08 05
	00 00		 mov	 rax, QWORD PTR v$[rbp]
  0047f	48 6b 40 18 40	 imul	 rax, QWORD PTR [rax+24], 64 ; 00000040H
  00484	48 8b d0	 mov	 rdx, rax
  00487	48 8d 8d 68 01
	00 00		 lea	 rcx, QWORD PTR root$16[rbp]
  0048e	e8 00 00 00 00	 call	 ?AllocateBlock@ResourceHolderUINT@Internal@Core@Math@Palmtree@@QEAAPEA_K_K@Z ; Palmtree::Math::Core::Internal::ResourceHolderUINT::AllocateBlock
  00493	48 89 85 08 02
	00 00		 mov	 QWORD PTR work_v_buf$20[rbp], rax

; 2139 :                         (*fp_DivRem_X_X)(u->BLOCK, u->UNIT_WORD_COUNT, v->BLOCK, v->UNIT_WORD_COUNT, work_v_buf, (*q)->BLOCK, r->BLOCK);

  0049a	48 8b 05 00 00
	00 00		 mov	 rax, QWORD PTR ?fp_DivRem_X_X@Internal@Core@Math@Palmtree@@3P6AXPEA_K_K01000@ZEA
  004a1	48 89 85 d8 04
	00 00		 mov	 QWORD PTR tv222[rbp], rax
  004a8	48 8b 85 10 05
	00 00		 mov	 rax, QWORD PTR q$[rbp]
  004af	48 8b 00	 mov	 rax, QWORD PTR [rax]
  004b2	48 8b 8d e8 01
	00 00		 mov	 rcx, QWORD PTR r$19[rbp]
  004b9	48 8b 49 40	 mov	 rcx, QWORD PTR [rcx+64]
  004bd	48 89 4c 24 30	 mov	 QWORD PTR [rsp+48], rcx
  004c2	48 8b 40 40	 mov	 rax, QWORD PTR [rax+64]
  004c6	48 89 44 24 28	 mov	 QWORD PTR [rsp+40], rax
  004cb	48 8b 85 08 02
	00 00		 mov	 rax, QWORD PTR work_v_buf$20[rbp]
  004d2	48 89 44 24 20	 mov	 QWORD PTR [rsp+32], rax
  004d7	48 8b 85 08 05
	00 00		 mov	 rax, QWORD PTR v$[rbp]
  004de	4c 8b 48 18	 mov	 r9, QWORD PTR [rax+24]
  004e2	48 8b 85 08 05
	00 00		 mov	 rax, QWORD PTR v$[rbp]
  004e9	4c 8b 40 40	 mov	 r8, QWORD PTR [rax+64]
  004ed	48 8b 85 00 05
	00 00		 mov	 rax, QWORD PTR u$[rbp]
  004f4	48 8b 50 18	 mov	 rdx, QWORD PTR [rax+24]
  004f8	48 8b 85 00 05
	00 00		 mov	 rax, QWORD PTR u$[rbp]
  004ff	48 8b 48 40	 mov	 rcx, QWORD PTR [rax+64]
  00503	ff 95 d8 04 00
	00		 call	 QWORD PTR tv222[rbp]

; 2140 :                         root.CheckBlock(work_v_buf);

  00509	48 8b 95 08 02
	00 00		 mov	 rdx, QWORD PTR work_v_buf$20[rbp]
  00510	48 8d 8d 68 01
	00 00		 lea	 rcx, QWORD PTR root$16[rbp]
  00517	e8 00 00 00 00	 call	 ?CheckBlock@ResourceHolderUINT@Internal@Core@Math@Palmtree@@QEAAXPEA_K@Z ; Palmtree::Math::Core::Internal::ResourceHolderUINT::CheckBlock

; 2141 :                         root.CheckNumber(*q);

  0051c	48 8b 85 10 05
	00 00		 mov	 rax, QWORD PTR q$[rbp]
  00523	48 8b 10	 mov	 rdx, QWORD PTR [rax]
  00526	48 8d 8d 68 01
	00 00		 lea	 rcx, QWORD PTR root$16[rbp]
  0052d	e8 00 00 00 00	 call	 ?CheckNumber@ResourceHolderUINT@Internal@Core@Math@Palmtree@@QEAAXPEAU__tag_NUMBER_HEADER@2345@@Z ; Palmtree::Math::Core::Internal::ResourceHolderUINT::CheckNumber

; 2142 :                         root.CheckNumber(r);

  00532	48 8b 95 e8 01
	00 00		 mov	 rdx, QWORD PTR r$19[rbp]
  00539	48 8d 8d 68 01
	00 00		 lea	 rcx, QWORD PTR root$16[rbp]
  00540	e8 00 00 00 00	 call	 ?CheckNumber@ResourceHolderUINT@Internal@Core@Math@Palmtree@@QEAAXPEAU__tag_NUMBER_HEADER@2345@@Z ; Palmtree::Math::Core::Internal::ResourceHolderUINT::CheckNumber

; 2143 :                         root.DeallocateBlock(work_v_buf);

  00545	48 8b 95 08 02
	00 00		 mov	 rdx, QWORD PTR work_v_buf$20[rbp]
  0054c	48 8d 8d 68 01
	00 00		 lea	 rcx, QWORD PTR root$16[rbp]
  00553	e8 00 00 00 00	 call	 ?DeallocateBlock@ResourceHolderUINT@Internal@Core@Math@Palmtree@@QEAAXPEA_K@Z ; Palmtree::Math::Core::Internal::ResourceHolderUINT::DeallocateBlock

; 2144 :                         CommitNumber(*q);

  00558	48 8b 85 10 05
	00 00		 mov	 rax, QWORD PTR q$[rbp]
  0055f	48 8b 08	 mov	 rcx, QWORD PTR [rax]
  00562	e8 00 00 00 00	 call	 ?CommitNumber@Internal@Core@Math@Palmtree@@YAXPEAU__tag_NUMBER_HEADER@1234@@Z ; Palmtree::Math::Core::Internal::CommitNumber

; 2145 :                         CommitNumber(r);

  00567	48 8b 8d e8 01
	00 00		 mov	 rcx, QWORD PTR r$19[rbp]
  0056e	e8 00 00 00 00	 call	 ?CommitNumber@Internal@Core@Math@Palmtree@@YAXPEAU__tag_NUMBER_HEADER@1234@@Z ; Palmtree::Math::Core::Internal::CommitNumber

; 2146 :                         if ((*q)->IS_ZERO)

  00573	48 8b 85 10 05
	00 00		 mov	 rax, QWORD PTR q$[rbp]
  0057a	48 8b 00	 mov	 rax, QWORD PTR [rax]
  0057d	8b 40 08	 mov	 eax, DWORD PTR [rax+8]
  00580	83 e0 01	 and	 eax, 1
  00583	85 c0		 test	 eax, eax
  00585	74 29		 je	 SHORT $LN23@PMC_DivRem

; 2147 :                         {
; 2148 :                             root.DeallocateNumber(*q);

  00587	48 8b 85 10 05
	00 00		 mov	 rax, QWORD PTR q$[rbp]
  0058e	48 8b 10	 mov	 rdx, QWORD PTR [rax]
  00591	48 8d 8d 68 01
	00 00		 lea	 rcx, QWORD PTR root$16[rbp]
  00598	e8 00 00 00 00	 call	 ?DeallocateNumber@ResourceHolderUINT@Internal@Core@Math@Palmtree@@QEAAXPEAU__tag_NUMBER_HEADER@2345@@Z ; Palmtree::Math::Core::Internal::ResourceHolderUINT::DeallocateNumber

; 2149 :                             *q = &number_zero;

  0059d	48 8b 85 10 05
	00 00		 mov	 rax, QWORD PTR q$[rbp]
  005a4	48 8d 0d 00 00
	00 00		 lea	 rcx, OFFSET FLAT:?number_zero@Internal@Core@Math@Palmtree@@3U__tag_NUMBER_HEADER@1234@A ; Palmtree::Math::Core::Internal::number_zero
  005ab	48 89 08	 mov	 QWORD PTR [rax], rcx

; 2150 :                         }
; 2151 :                         else

  005ae	eb 16		 jmp	 SHORT $LN24@PMC_DivRem
$LN23@PMC_DivRem:

; 2152 :                             root.UnlinkNumber(*q);

  005b0	48 8b 85 10 05
	00 00		 mov	 rax, QWORD PTR q$[rbp]
  005b7	48 8b 10	 mov	 rdx, QWORD PTR [rax]
  005ba	48 8d 8d 68 01
	00 00		 lea	 rcx, QWORD PTR root$16[rbp]
  005c1	e8 00 00 00 00	 call	 ?UnlinkNumber@ResourceHolderUINT@Internal@Core@Math@Palmtree@@QEAAXPEAU__tag_NUMBER_HEADER@2345@@Z ; Palmtree::Math::Core::Internal::ResourceHolderUINT::UnlinkNumber
$LN24@PMC_DivRem:

; 2153 :                         if (r->IS_ZERO)

  005c6	48 8b 85 e8 01
	00 00		 mov	 rax, QWORD PTR r$19[rbp]
  005cd	8b 40 08	 mov	 eax, DWORD PTR [rax+8]
  005d0	83 e0 01	 and	 eax, 1
  005d3	85 c0		 test	 eax, eax
  005d5	74 23		 je	 SHORT $LN25@PMC_DivRem

; 2154 :                         {
; 2155 :                             root.DeallocateNumber(r);

  005d7	48 8b 95 e8 01
	00 00		 mov	 rdx, QWORD PTR r$19[rbp]
  005de	48 8d 8d 68 01
	00 00		 lea	 rcx, QWORD PTR root$16[rbp]
  005e5	e8 00 00 00 00	 call	 ?DeallocateNumber@ResourceHolderUINT@Internal@Core@Math@Palmtree@@QEAAXPEAU__tag_NUMBER_HEADER@2345@@Z ; Palmtree::Math::Core::Internal::ResourceHolderUINT::DeallocateNumber

; 2156 :                             r = &number_zero;

  005ea	48 8d 05 00 00
	00 00		 lea	 rax, OFFSET FLAT:?number_zero@Internal@Core@Math@Palmtree@@3U__tag_NUMBER_HEADER@1234@A ; Palmtree::Math::Core::Internal::number_zero
  005f1	48 89 85 e8 01
	00 00		 mov	 QWORD PTR r$19[rbp], rax

; 2157 :                         }
; 2158 :                         else

  005f8	eb 13		 jmp	 SHORT $LN26@PMC_DivRem
$LN25@PMC_DivRem:

; 2159 :                             root.UnlinkNumber(r);

  005fa	48 8b 95 e8 01
	00 00		 mov	 rdx, QWORD PTR r$19[rbp]
  00601	48 8d 8d 68 01
	00 00		 lea	 rcx, QWORD PTR root$16[rbp]
  00608	e8 00 00 00 00	 call	 ?UnlinkNumber@ResourceHolderUINT@Internal@Core@Math@Palmtree@@QEAAXPEAU__tag_NUMBER_HEADER@2345@@Z ; Palmtree::Math::Core::Internal::ResourceHolderUINT::UnlinkNumber
$LN26@PMC_DivRem:

; 2160 :                         return (r);

  0060d	48 8b 85 e8 01
	00 00		 mov	 rax, QWORD PTR r$19[rbp]
  00614	48 89 85 88 04
	00 00		 mov	 QWORD PTR $T27[rbp], rax
  0061b	48 8d 8d 68 01
	00 00		 lea	 rcx, QWORD PTR root$16[rbp]
  00622	e8 00 00 00 00	 call	 ??1ResourceHolderUINT@Internal@Core@Math@Palmtree@@UEAA@XZ ; Palmtree::Math::Core::Internal::ResourceHolderUINT::~ResourceHolderUINT
  00627	48 8b 85 88 04
	00 00		 mov	 rax, QWORD PTR $T27[rbp]
  0062e	e9 6f 01 00 00	 jmp	 $LN1@PMC_DivRem

; 2161 :                     }
; 2162 :                     else

  00633	e9 6a 01 00 00	 jmp	 $LN1@PMC_DivRem
$LN21@PMC_DivRem:

; 2163 :                     {
; 2164 :                         ResourceHolderUINT root;

  00638	48 8d 8d 28 02
	00 00		 lea	 rcx, QWORD PTR root$21[rbp]
  0063f	e8 00 00 00 00	 call	 ??0ResourceHolderUINT@Internal@Core@Math@Palmtree@@QEAA@XZ ; Palmtree::Math::Core::Internal::ResourceHolderUINT::ResourceHolderUINT
  00644	90		 npad	 1

; 2165 :                         __UNIT_TYPE r_bit_count = u_bit_count + __UNIT_TYPE_BIT_COUNT; //  v_bit_count 

  00645	48 8b 45 08	 mov	 rax, QWORD PTR u_bit_count$7[rbp]
  00649	48 83 c0 40	 add	 rax, 64			; 00000040H
  0064d	48 89 85 68 02
	00 00		 mov	 QWORD PTR r_bit_count$22[rbp], rax

; 2166 :                         NUMBER_HEADER* r = root.AllocateNumber(r_bit_count);

  00654	48 8b 95 68 02
	00 00		 mov	 rdx, QWORD PTR r_bit_count$22[rbp]
  0065b	48 8d 8d 28 02
	00 00		 lea	 rcx, QWORD PTR root$21[rbp]
  00662	e8 00 00 00 00	 call	 ?AllocateNumber@ResourceHolderUINT@Internal@Core@Math@Palmtree@@QEAAPEAU__tag_NUMBER_HEADER@2345@_K@Z ; Palmtree::Math::Core::Internal::ResourceHolderUINT::AllocateNumber
  00667	48 89 85 88 02
	00 00		 mov	 QWORD PTR r$23[rbp], rax

; 2167 :                         __UNIT_TYPE* work_v_buf = root.AllocateBlock(v->UNIT_WORD_COUNT * __UNIT_TYPE_BIT_COUNT);

  0066e	48 8b 85 08 05
	00 00		 mov	 rax, QWORD PTR v$[rbp]
  00675	48 6b 40 18 40	 imul	 rax, QWORD PTR [rax+24], 64 ; 00000040H
  0067a	48 8b d0	 mov	 rdx, rax
  0067d	48 8d 8d 28 02
	00 00		 lea	 rcx, QWORD PTR root$21[rbp]
  00684	e8 00 00 00 00	 call	 ?AllocateBlock@ResourceHolderUINT@Internal@Core@Math@Palmtree@@QEAAPEA_K_K@Z ; Palmtree::Math::Core::Internal::ResourceHolderUINT::AllocateBlock
  00689	48 89 85 a8 02
	00 00		 mov	 QWORD PTR work_v_buf$24[rbp], rax

; 2168 :                         (*fp_DivRem_X_X)(u->BLOCK, u->UNIT_WORD_COUNT, v->BLOCK, v->UNIT_WORD_COUNT, work_v_buf, nullptr, r->BLOCK);

  00690	48 8b 05 00 00
	00 00		 mov	 rax, QWORD PTR ?fp_DivRem_X_X@Internal@Core@Math@Palmtree@@3P6AXPEA_K_K01000@ZEA
  00697	48 89 85 d8 04
	00 00		 mov	 QWORD PTR tv272[rbp], rax
  0069e	48 8b 85 88 02
	00 00		 mov	 rax, QWORD PTR r$23[rbp]
  006a5	48 8b 40 40	 mov	 rax, QWORD PTR [rax+64]
  006a9	48 89 44 24 30	 mov	 QWORD PTR [rsp+48], rax
  006ae	48 c7 44 24 28
	00 00 00 00	 mov	 QWORD PTR [rsp+40], 0
  006b7	48 8b 85 a8 02
	00 00		 mov	 rax, QWORD PTR work_v_buf$24[rbp]
  006be	48 89 44 24 20	 mov	 QWORD PTR [rsp+32], rax
  006c3	48 8b 85 08 05
	00 00		 mov	 rax, QWORD PTR v$[rbp]
  006ca	4c 8b 48 18	 mov	 r9, QWORD PTR [rax+24]
  006ce	48 8b 85 08 05
	00 00		 mov	 rax, QWORD PTR v$[rbp]
  006d5	4c 8b 40 40	 mov	 r8, QWORD PTR [rax+64]
  006d9	48 8b 85 00 05
	00 00		 mov	 rax, QWORD PTR u$[rbp]
  006e0	48 8b 50 18	 mov	 rdx, QWORD PTR [rax+24]
  006e4	48 8b 85 00 05
	00 00		 mov	 rax, QWORD PTR u$[rbp]
  006eb	48 8b 48 40	 mov	 rcx, QWORD PTR [rax+64]
  006ef	ff 95 d8 04 00
	00		 call	 QWORD PTR tv272[rbp]

; 2169 :                         root.CheckBlock(work_v_buf);

  006f5	48 8b 95 a8 02
	00 00		 mov	 rdx, QWORD PTR work_v_buf$24[rbp]
  006fc	48 8d 8d 28 02
	00 00		 lea	 rcx, QWORD PTR root$21[rbp]
  00703	e8 00 00 00 00	 call	 ?CheckBlock@ResourceHolderUINT@Internal@Core@Math@Palmtree@@QEAAXPEA_K@Z ; Palmtree::Math::Core::Internal::ResourceHolderUINT::CheckBlock

; 2170 :                         root.CheckNumber(r);

  00708	48 8b 95 88 02
	00 00		 mov	 rdx, QWORD PTR r$23[rbp]
  0070f	48 8d 8d 28 02
	00 00		 lea	 rcx, QWORD PTR root$21[rbp]
  00716	e8 00 00 00 00	 call	 ?CheckNumber@ResourceHolderUINT@Internal@Core@Math@Palmtree@@QEAAXPEAU__tag_NUMBER_HEADER@2345@@Z ; Palmtree::Math::Core::Internal::ResourceHolderUINT::CheckNumber

; 2171 :                         root.DeallocateBlock(work_v_buf);

  0071b	48 8b 95 a8 02
	00 00		 mov	 rdx, QWORD PTR work_v_buf$24[rbp]
  00722	48 8d 8d 28 02
	00 00		 lea	 rcx, QWORD PTR root$21[rbp]
  00729	e8 00 00 00 00	 call	 ?DeallocateBlock@ResourceHolderUINT@Internal@Core@Math@Palmtree@@QEAAXPEA_K@Z ; Palmtree::Math::Core::Internal::ResourceHolderUINT::DeallocateBlock

; 2172 :                         CommitNumber(r);

  0072e	48 8b 8d 88 02
	00 00		 mov	 rcx, QWORD PTR r$23[rbp]
  00735	e8 00 00 00 00	 call	 ?CommitNumber@Internal@Core@Math@Palmtree@@YAXPEAU__tag_NUMBER_HEADER@1234@@Z ; Palmtree::Math::Core::Internal::CommitNumber

; 2173 :                         if (r->IS_ZERO)

  0073a	48 8b 85 88 02
	00 00		 mov	 rax, QWORD PTR r$23[rbp]
  00741	8b 40 08	 mov	 eax, DWORD PTR [rax+8]
  00744	83 e0 01	 and	 eax, 1
  00747	85 c0		 test	 eax, eax
  00749	74 23		 je	 SHORT $LN27@PMC_DivRem

; 2174 :                         {
; 2175 :                             root.DeallocateNumber(r);

  0074b	48 8b 95 88 02
	00 00		 mov	 rdx, QWORD PTR r$23[rbp]
  00752	48 8d 8d 28 02
	00 00		 lea	 rcx, QWORD PTR root$21[rbp]
  00759	e8 00 00 00 00	 call	 ?DeallocateNumber@ResourceHolderUINT@Internal@Core@Math@Palmtree@@QEAAXPEAU__tag_NUMBER_HEADER@2345@@Z ; Palmtree::Math::Core::Internal::ResourceHolderUINT::DeallocateNumber

; 2176 :                             r = &number_zero;

  0075e	48 8d 05 00 00
	00 00		 lea	 rax, OFFSET FLAT:?number_zero@Internal@Core@Math@Palmtree@@3U__tag_NUMBER_HEADER@1234@A ; Palmtree::Math::Core::Internal::number_zero
  00765	48 89 85 88 02
	00 00		 mov	 QWORD PTR r$23[rbp], rax

; 2177 :                         }
; 2178 :                         else

  0076c	eb 13		 jmp	 SHORT $LN28@PMC_DivRem
$LN27@PMC_DivRem:

; 2179 :                             root.UnlinkNumber(r);

  0076e	48 8b 95 88 02
	00 00		 mov	 rdx, QWORD PTR r$23[rbp]
  00775	48 8d 8d 28 02
	00 00		 lea	 rcx, QWORD PTR root$21[rbp]
  0077c	e8 00 00 00 00	 call	 ?UnlinkNumber@ResourceHolderUINT@Internal@Core@Math@Palmtree@@QEAAXPEAU__tag_NUMBER_HEADER@2345@@Z ; Palmtree::Math::Core::Internal::ResourceHolderUINT::UnlinkNumber
$LN28@PMC_DivRem:

; 2180 :                         return (r);

  00781	48 8b 85 88 02
	00 00		 mov	 rax, QWORD PTR r$23[rbp]
  00788	48 89 85 a8 04
	00 00		 mov	 QWORD PTR $T28[rbp], rax
  0078f	48 8d 8d 28 02
	00 00		 lea	 rcx, QWORD PTR root$21[rbp]
  00796	e8 00 00 00 00	 call	 ??1ResourceHolderUINT@Internal@Core@Math@Palmtree@@UEAA@XZ ; Palmtree::Math::Core::Internal::ResourceHolderUINT::~ResourceHolderUINT
  0079b	48 8b 85 a8 04
	00 00		 mov	 rax, QWORD PTR $T28[rbp]
$LN1@PMC_DivRem:

; 2181 :                     }
; 2182 :                 }
; 2183 :             }
; 2184 :         }
; 2185 :     }

  007a2	48 8b f8	 mov	 rdi, rax
  007a5	48 8d 4d c0	 lea	 rcx, QWORD PTR [rbp-64]
  007a9	48 8d 15 00 00
	00 00		 lea	 rdx, OFFSET FLAT:?PMC_DivRem_X_X_Imp@Internal@Core@Math@Palmtree@@YAPEAU__tag_NUMBER_HEADER@1234@PEAU51234@0PEAPEAU51234@@Z$rtcFrameData
  007b0	e8 00 00 00 00	 call	 _RTC_CheckStackVars
  007b5	48 8b c7	 mov	 rax, rdi
  007b8	48 8d a5 e8 04
	00 00		 lea	 rsp, QWORD PTR [rbp+1256]
  007bf	5f		 pop	 rdi
  007c0	5d		 pop	 rbp
  007c1	c3		 ret	 0
?PMC_DivRem_X_X_Imp@Internal@Core@Math@Palmtree@@YAPEAU__tag_NUMBER_HEADER@1234@PEAU51234@0PEAPEAU51234@@Z ENDP ; Palmtree::Math::Core::Internal::PMC_DivRem_X_X_Imp
_TEXT	ENDS
;	COMDAT text$x
text$x	SEGMENT
u_bit_count$7 = 8
v_bit_count$8 = 40
root$9 = 72
q_bit_count$10 = 136
r_bit_count$11 = 168
r$12 = 200
root$13 = 232
r_bit_count$14 = 296
r$15 = 328
root$16 = 360
q_bit_count$17 = 424
r_bit_count$18 = 456
r$19 = 488
work_v_buf$20 = 520
root$21 = 552
r_bit_count$22 = 616
r$23 = 648
work_v_buf$24 = 680
$T25 = 1096
$T26 = 1128
$T27 = 1160
$T28 = 1192
$T29 = 1224
tv272 = 1240
tv222 = 1240
tv178 = 1240
u$ = 1280
v$ = 1288
q$ = 1296
?dtor$0@?0??PMC_DivRem_X_X_Imp@Internal@Core@Math@Palmtree@@YAPEAU__tag_NUMBER_HEADER@1234@PEAU51234@0PEAPEAU51234@@Z@4HA PROC ; `Palmtree::Math::Core::Internal::PMC_DivRem_X_X_Imp'::`1'::dtor$0
  00000	48 89 4c 24 08	 mov	 QWORD PTR [rsp+8], rcx
  00005	48 89 54 24 10	 mov	 QWORD PTR [rsp+16], rdx
  0000a	55		 push	 rbp
  0000b	57		 push	 rdi
  0000c	48 83 ec 28	 sub	 rsp, 40			; 00000028H
  00010	48 8d 6a 40	 lea	 rbp, QWORD PTR [rdx+64]
  00014	48 8d 4d 48	 lea	 rcx, QWORD PTR root$9[rbp]
  00018	e8 00 00 00 00	 call	 ??1ResourceHolderUINT@Internal@Core@Math@Palmtree@@UEAA@XZ ; Palmtree::Math::Core::Internal::ResourceHolderUINT::~ResourceHolderUINT
  0001d	48 83 c4 28	 add	 rsp, 40			; 00000028H
  00021	5f		 pop	 rdi
  00022	5d		 pop	 rbp
  00023	c3		 ret	 0
?dtor$0@?0??PMC_DivRem_X_X_Imp@Internal@Core@Math@Palmtree@@YAPEAU__tag_NUMBER_HEADER@1234@PEAU51234@0PEAPEAU51234@@Z@4HA ENDP ; `Palmtree::Math::Core::Internal::PMC_DivRem_X_X_Imp'::`1'::dtor$0
text$x	ENDS
;	COMDAT text$x
text$x	SEGMENT
u_bit_count$7 = 8
v_bit_count$8 = 40
root$9 = 72
q_bit_count$10 = 136
r_bit_count$11 = 168
r$12 = 200
root$13 = 232
r_bit_count$14 = 296
r$15 = 328
root$16 = 360
q_bit_count$17 = 424
r_bit_count$18 = 456
r$19 = 488
work_v_buf$20 = 520
root$21 = 552
r_bit_count$22 = 616
r$23 = 648
work_v_buf$24 = 680
$T25 = 1096
$T26 = 1128
$T27 = 1160
$T28 = 1192
$T29 = 1224
tv272 = 1240
tv222 = 1240
tv178 = 1240
u$ = 1280
v$ = 1288
q$ = 1296
?dtor$1@?0??PMC_DivRem_X_X_Imp@Internal@Core@Math@Palmtree@@YAPEAU__tag_NUMBER_HEADER@1234@PEAU51234@0PEAPEAU51234@@Z@4HA PROC ; `Palmtree::Math::Core::Internal::PMC_DivRem_X_X_Imp'::`1'::dtor$1
  00000	48 89 4c 24 08	 mov	 QWORD PTR [rsp+8], rcx
  00005	48 89 54 24 10	 mov	 QWORD PTR [rsp+16], rdx
  0000a	55		 push	 rbp
  0000b	57		 push	 rdi
  0000c	48 83 ec 28	 sub	 rsp, 40			; 00000028H
  00010	48 8d 6a 40	 lea	 rbp, QWORD PTR [rdx+64]
  00014	48 8d 8d e8 00
	00 00		 lea	 rcx, QWORD PTR root$13[rbp]
  0001b	e8 00 00 00 00	 call	 ??1ResourceHolderUINT@Internal@Core@Math@Palmtree@@UEAA@XZ ; Palmtree::Math::Core::Internal::ResourceHolderUINT::~ResourceHolderUINT
  00020	48 83 c4 28	 add	 rsp, 40			; 00000028H
  00024	5f		 pop	 rdi
  00025	5d		 pop	 rbp
  00026	c3		 ret	 0
?dtor$1@?0??PMC_DivRem_X_X_Imp@Internal@Core@Math@Palmtree@@YAPEAU__tag_NUMBER_HEADER@1234@PEAU51234@0PEAPEAU51234@@Z@4HA ENDP ; `Palmtree::Math::Core::Internal::PMC_DivRem_X_X_Imp'::`1'::dtor$1
text$x	ENDS
;	COMDAT text$x
text$x	SEGMENT
u_bit_count$7 = 8
v_bit_count$8 = 40
root$9 = 72
q_bit_count$10 = 136
r_bit_count$11 = 168
r$12 = 200
root$13 = 232
r_bit_count$14 = 296
r$15 = 328
root$16 = 360
q_bit_count$17 = 424
r_bit_count$18 = 456
r$19 = 488
work_v_buf$20 = 520
root$21 = 552
r_bit_count$22 = 616
r$23 = 648
work_v_buf$24 = 680
$T25 = 1096
$T26 = 1128
$T27 = 1160
$T28 = 1192
$T29 = 1224
tv272 = 1240
tv222 = 1240
tv178 = 1240
u$ = 1280
v$ = 1288
q$ = 1296
?dtor$2@?0??PMC_DivRem_X_X_Imp@Internal@Core@Math@Palmtree@@YAPEAU__tag_NUMBER_HEADER@1234@PEAU51234@0PEAPEAU51234@@Z@4HA PROC ; `Palmtree::Math::Core::Internal::PMC_DivRem_X_X_Imp'::`1'::dtor$2
  00000	48 89 4c 24 08	 mov	 QWORD PTR [rsp+8], rcx
  00005	48 89 54 24 10	 mov	 QWORD PTR [rsp+16], rdx
  0000a	55		 push	 rbp
  0000b	57		 push	 rdi
  0000c	48 83 ec 28	 sub	 rsp, 40			; 00000028H
  00010	48 8d 6a 40	 lea	 rbp, QWORD PTR [rdx+64]
  00014	48 8d 8d 68 01
	00 00		 lea	 rcx, QWORD PTR root$16[rbp]
  0001b	e8 00 00 00 00	 call	 ??1ResourceHolderUINT@Internal@Core@Math@Palmtree@@UEAA@XZ ; Palmtree::Math::Core::Internal::ResourceHolderUINT::~ResourceHolderUINT
  00020	48 83 c4 28	 add	 rsp, 40			; 00000028H
  00024	5f		 pop	 rdi
  00025	5d		 pop	 rbp
  00026	c3		 ret	 0
?dtor$2@?0??PMC_DivRem_X_X_Imp@Internal@Core@Math@Palmtree@@YAPEAU__tag_NUMBER_HEADER@1234@PEAU51234@0PEAPEAU51234@@Z@4HA ENDP ; `Palmtree::Math::Core::Internal::PMC_DivRem_X_X_Imp'::`1'::dtor$2
text$x	ENDS
;	COMDAT text$x
text$x	SEGMENT
u_bit_count$7 = 8
v_bit_count$8 = 40
root$9 = 72
q_bit_count$10 = 136
r_bit_count$11 = 168
r$12 = 200
root$13 = 232
r_bit_count$14 = 296
r$15 = 328
root$16 = 360
q_bit_count$17 = 424
r_bit_count$18 = 456
r$19 = 488
work_v_buf$20 = 520
root$21 = 552
r_bit_count$22 = 616
r$23 = 648
work_v_buf$24 = 680
$T25 = 1096
$T26 = 1128
$T27 = 1160
$T28 = 1192
$T29 = 1224
tv272 = 1240
tv222 = 1240
tv178 = 1240
u$ = 1280
v$ = 1288
q$ = 1296
?dtor$3@?0??PMC_DivRem_X_X_Imp@Internal@Core@Math@Palmtree@@YAPEAU__tag_NUMBER_HEADER@1234@PEAU51234@0PEAPEAU51234@@Z@4HA PROC ; `Palmtree::Math::Core::Internal::PMC_DivRem_X_X_Imp'::`1'::dtor$3
  00000	48 89 4c 24 08	 mov	 QWORD PTR [rsp+8], rcx
  00005	48 89 54 24 10	 mov	 QWORD PTR [rsp+16], rdx
  0000a	55		 push	 rbp
  0000b	57		 push	 rdi
  0000c	48 83 ec 28	 sub	 rsp, 40			; 00000028H
  00010	48 8d 6a 40	 lea	 rbp, QWORD PTR [rdx+64]
  00014	48 8d 8d 28 02
	00 00		 lea	 rcx, QWORD PTR root$21[rbp]
  0001b	e8 00 00 00 00	 call	 ??1ResourceHolderUINT@Internal@Core@Math@Palmtree@@UEAA@XZ ; Palmtree::Math::Core::Internal::ResourceHolderUINT::~ResourceHolderUINT
  00020	48 83 c4 28	 add	 rsp, 40			; 00000028H
  00024	5f		 pop	 rdi
  00025	5d		 pop	 rbp
  00026	c3		 ret	 0
?dtor$3@?0??PMC_DivRem_X_X_Imp@Internal@Core@Math@Palmtree@@YAPEAU__tag_NUMBER_HEADER@1234@PEAU51234@0PEAPEAU51234@@Z@4HA ENDP ; `Palmtree::Math::Core::Internal::PMC_DivRem_X_X_Imp'::`1'::dtor$3
text$x	ENDS
; Function compile flags: /Odtp /RTCsu /ZI
;	COMDAT text$x
text$x	SEGMENT
u_bit_count$7 = 8
v_bit_count$8 = 40
root$9 = 72
q_bit_count$10 = 136
r_bit_count$11 = 168
r$12 = 200
root$13 = 232
r_bit_count$14 = 296
r$15 = 328
root$16 = 360
q_bit_count$17 = 424
r_bit_count$18 = 456
r$19 = 488
work_v_buf$20 = 520
root$21 = 552
r_bit_count$22 = 616
r$23 = 648
work_v_buf$24 = 680
$T25 = 1096
$T26 = 1128
$T27 = 1160
$T28 = 1192
$T29 = 1224
tv272 = 1240
tv222 = 1240
tv178 = 1240
u$ = 1280
v$ = 1288
q$ = 1296
?dtor$0@?0??PMC_DivRem_X_X_Imp@Internal@Core@Math@Palmtree@@YAPEAU__tag_NUMBER_HEADER@1234@PEAU51234@0PEAPEAU51234@@Z@4HA PROC ; `Palmtree::Math::Core::Internal::PMC_DivRem_X_X_Imp'::`1'::dtor$0
  00000	48 89 4c 24 08	 mov	 QWORD PTR [rsp+8], rcx
  00005	48 89 54 24 10	 mov	 QWORD PTR [rsp+16], rdx
  0000a	55		 push	 rbp
  0000b	57		 push	 rdi
  0000c	48 83 ec 28	 sub	 rsp, 40			; 00000028H
  00010	48 8d 6a 40	 lea	 rbp, QWORD PTR [rdx+64]
  00014	48 8d 4d 48	 lea	 rcx, QWORD PTR root$9[rbp]
  00018	e8 00 00 00 00	 call	 ??1ResourceHolderUINT@Internal@Core@Math@Palmtree@@UEAA@XZ ; Palmtree::Math::Core::Internal::ResourceHolderUINT::~ResourceHolderUINT
  0001d	48 83 c4 28	 add	 rsp, 40			; 00000028H
  00021	5f		 pop	 rdi
  00022	5d		 pop	 rbp
  00023	c3		 ret	 0
?dtor$0@?0??PMC_DivRem_X_X_Imp@Internal@Core@Math@Palmtree@@YAPEAU__tag_NUMBER_HEADER@1234@PEAU51234@0PEAPEAU51234@@Z@4HA ENDP ; `Palmtree::Math::Core::Internal::PMC_DivRem_X_X_Imp'::`1'::dtor$0
text$x	ENDS
; Function compile flags: /Odtp /RTCsu /ZI
;	COMDAT text$x
text$x	SEGMENT
u_bit_count$7 = 8
v_bit_count$8 = 40
root$9 = 72
q_bit_count$10 = 136
r_bit_count$11 = 168
r$12 = 200
root$13 = 232
r_bit_count$14 = 296
r$15 = 328
root$16 = 360
q_bit_count$17 = 424
r_bit_count$18 = 456
r$19 = 488
work_v_buf$20 = 520
root$21 = 552
r_bit_count$22 = 616
r$23 = 648
work_v_buf$24 = 680
$T25 = 1096
$T26 = 1128
$T27 = 1160
$T28 = 1192
$T29 = 1224
tv272 = 1240
tv222 = 1240
tv178 = 1240
u$ = 1280
v$ = 1288
q$ = 1296
?dtor$1@?0??PMC_DivRem_X_X_Imp@Internal@Core@Math@Palmtree@@YAPEAU__tag_NUMBER_HEADER@1234@PEAU51234@0PEAPEAU51234@@Z@4HA PROC ; `Palmtree::Math::Core::Internal::PMC_DivRem_X_X_Imp'::`1'::dtor$1
  00000	48 89 4c 24 08	 mov	 QWORD PTR [rsp+8], rcx
  00005	48 89 54 24 10	 mov	 QWORD PTR [rsp+16], rdx
  0000a	55		 push	 rbp
  0000b	57		 push	 rdi
  0000c	48 83 ec 28	 sub	 rsp, 40			; 00000028H
  00010	48 8d 6a 40	 lea	 rbp, QWORD PTR [rdx+64]
  00014	48 8d 8d e8 00
	00 00		 lea	 rcx, QWORD PTR root$13[rbp]
  0001b	e8 00 00 00 00	 call	 ??1ResourceHolderUINT@Internal@Core@Math@Palmtree@@UEAA@XZ ; Palmtree::Math::Core::Internal::ResourceHolderUINT::~ResourceHolderUINT
  00020	48 83 c4 28	 add	 rsp, 40			; 00000028H
  00024	5f		 pop	 rdi
  00025	5d		 pop	 rbp
  00026	c3		 ret	 0
?dtor$1@?0??PMC_DivRem_X_X_Imp@Internal@Core@Math@Palmtree@@YAPEAU__tag_NUMBER_HEADER@1234@PEAU51234@0PEAPEAU51234@@Z@4HA ENDP ; `Palmtree::Math::Core::Internal::PMC_DivRem_X_X_Imp'::`1'::dtor$1
text$x	ENDS
; Function compile flags: /Odtp /RTCsu /ZI
;	COMDAT text$x
text$x	SEGMENT
u_bit_count$7 = 8
v_bit_count$8 = 40
root$9 = 72
q_bit_count$10 = 136
r_bit_count$11 = 168
r$12 = 200
root$13 = 232
r_bit_count$14 = 296
r$15 = 328
root$16 = 360
q_bit_count$17 = 424
r_bit_count$18 = 456
r$19 = 488
work_v_buf$20 = 520
root$21 = 552
r_bit_count$22 = 616
r$23 = 648
work_v_buf$24 = 680
$T25 = 1096
$T26 = 1128
$T27 = 1160
$T28 = 1192
$T29 = 1224
tv272 = 1240
tv222 = 1240
tv178 = 1240
u$ = 1280
v$ = 1288
q$ = 1296
?dtor$2@?0??PMC_DivRem_X_X_Imp@Internal@Core@Math@Palmtree@@YAPEAU__tag_NUMBER_HEADER@1234@PEAU51234@0PEAPEAU51234@@Z@4HA PROC ; `Palmtree::Math::Core::Internal::PMC_DivRem_X_X_Imp'::`1'::dtor$2
  00000	48 89 4c 24 08	 mov	 QWORD PTR [rsp+8], rcx
  00005	48 89 54 24 10	 mov	 QWORD PTR [rsp+16], rdx
  0000a	55		 push	 rbp
  0000b	57		 push	 rdi
  0000c	48 83 ec 28	 sub	 rsp, 40			; 00000028H
  00010	48 8d 6a 40	 lea	 rbp, QWORD PTR [rdx+64]
  00014	48 8d 8d 68 01
	00 00		 lea	 rcx, QWORD PTR root$16[rbp]
  0001b	e8 00 00 00 00	 call	 ??1ResourceHolderUINT@Internal@Core@Math@Palmtree@@UEAA@XZ ; Palmtree::Math::Core::Internal::ResourceHolderUINT::~ResourceHolderUINT
  00020	48 83 c4 28	 add	 rsp, 40			; 00000028H
  00024	5f		 pop	 rdi
  00025	5d		 pop	 rbp
  00026	c3		 ret	 0
?dtor$2@?0??PMC_DivRem_X_X_Imp@Internal@Core@Math@Palmtree@@YAPEAU__tag_NUMBER_HEADER@1234@PEAU51234@0PEAPEAU51234@@Z@4HA ENDP ; `Palmtree::Math::Core::Internal::PMC_DivRem_X_X_Imp'::`1'::dtor$2
text$x	ENDS
; Function compile flags: /Odtp /RTCsu /ZI
;	COMDAT text$x
text$x	SEGMENT
u_bit_count$7 = 8
v_bit_count$8 = 40
root$9 = 72
q_bit_count$10 = 136
r_bit_count$11 = 168
r$12 = 200
root$13 = 232
r_bit_count$14 = 296
r$15 = 328
root$16 = 360
q_bit_count$17 = 424
r_bit_count$18 = 456
r$19 = 488
work_v_buf$20 = 520
root$21 = 552
r_bit_count$22 = 616
r$23 = 648
work_v_buf$24 = 680
$T25 = 1096
$T26 = 1128
$T27 = 1160
$T28 = 1192
$T29 = 1224
tv272 = 1240
tv222 = 1240
tv178 = 1240
u$ = 1280
v$ = 1288
q$ = 1296
?dtor$3@?0??PMC_DivRem_X_X_Imp@Internal@Core@Math@Palmtree@@YAPEAU__tag_NUMBER_HEADER@1234@PEAU51234@0PEAPEAU51234@@Z@4HA PROC ; `Palmtree::Math::Core::Internal::PMC_DivRem_X_X_Imp'::`1'::dtor$3
  00000	48 89 4c 24 08	 mov	 QWORD PTR [rsp+8], rcx
  00005	48 89 54 24 10	 mov	 QWORD PTR [rsp+16], rdx
  0000a	55		 push	 rbp
  0000b	57		 push	 rdi
  0000c	48 83 ec 28	 sub	 rsp, 40			; 00000028H
  00010	48 8d 6a 40	 lea	 rbp, QWORD PTR [rdx+64]
  00014	48 8d 8d 28 02
	00 00		 lea	 rcx, QWORD PTR root$21[rbp]
  0001b	e8 00 00 00 00	 call	 ??1ResourceHolderUINT@Internal@Core@Math@Palmtree@@UEAA@XZ ; Palmtree::Math::Core::Internal::ResourceHolderUINT::~ResourceHolderUINT
  00020	48 83 c4 28	 add	 rsp, 40			; 00000028H
  00024	5f		 pop	 rdi
  00025	5d		 pop	 rbp
  00026	c3		 ret	 0
?dtor$3@?0??PMC_DivRem_X_X_Imp@Internal@Core@Math@Palmtree@@YAPEAU__tag_NUMBER_HEADER@1234@PEAU51234@0PEAPEAU51234@@Z@4HA ENDP ; `Palmtree::Math::Core::Internal::PMC_DivRem_X_X_Imp'::`1'::dtor$3
text$x	ENDS
; Function compile flags: /Odtp /RTCsu /ZI
; File z:\sources\lunor\repos\rougemeilland\palmtree.math.core.uint\palmtree.math.core.uint\pmc_divrem.cpp
;	COMDAT ?PMC_DivRem_X_L_Imp@Internal@Core@Math@Palmtree@@YA_KPEAU__tag_NUMBER_HEADER@1234@_KPEAPEAU51234@@Z
_TEXT	SEGMENT
u_bit_count$14 = 8
v_hi$15 = 36
v_lo$16 = 68
v_bit_count$17 = 104
root$18 = 136
q_bit_count$19 = 200
r_buf$20 = 232
r_buf$21 = 264
v_bit_count$22 = 296
r_lo$23 = 328
r_hi$24 = 360
root$25 = 392
q_bit_count$26 = 456
r_bit_count$27 = 488
v_buf$28 = 520
work_v_buf$29 = 568
r_buf$30 = 616
root$31 = 648
r_bit_count$32 = 712
v_buf$33 = 744
work_v_buf$34 = 792
r_buf$35 = 840
r$36 = 872
u_bit_count$37 = 904
v_bit_count$38 = 936
root$39 = 968
q_bit_count$40 = 1032
r_buf$41 = 1064
r_buf$42 = 1096
$T43 = 1704
$T44 = 1784
$T45 = 1816
$T46 = 1848
$T47 = 1880
$T48 = 1912
tv248 = 1928
tv209 = 1928
tv178 = 1928
u$ = 1968
v$ = 1976
q$ = 1984
?PMC_DivRem_X_L_Imp@Internal@Core@Math@Palmtree@@YA_KPEAU__tag_NUMBER_HEADER@1234@_KPEAPEAU51234@@Z PROC ; Palmtree::Math::Core::Internal::PMC_DivRem_X_L_Imp, COMDAT

; 1818 :     {

  00000	4c 89 44 24 18	 mov	 QWORD PTR [rsp+24], r8
  00005	48 89 54 24 10	 mov	 QWORD PTR [rsp+16], rdx
  0000a	48 89 4c 24 08	 mov	 QWORD PTR [rsp+8], rcx
  0000f	55		 push	 rbp
  00010	57		 push	 rdi
  00011	48 81 ec d8 07
	00 00		 sub	 rsp, 2008		; 000007d8H
  00018	48 8d 6c 24 40	 lea	 rbp, QWORD PTR [rsp+64]
  0001d	48 8b fc	 mov	 rdi, rsp
  00020	b9 f6 01 00 00	 mov	 ecx, 502		; 000001f6H
  00025	b8 cc cc cc cc	 mov	 eax, -858993460		; ccccccccH
  0002a	f3 ab		 rep stosd
  0002c	48 8b 8c 24 f8
	07 00 00	 mov	 rcx, QWORD PTR [rsp+2040]
  00034	48 c7 85 78 07
	00 00 fe ff ff
	ff		 mov	 QWORD PTR $T48[rbp], -2
  0003f	48 8d 0d 00 00
	00 00		 lea	 rcx, OFFSET FLAT:__E17217E9_pmc_divrem@cpp
  00046	e8 00 00 00 00	 call	 __CheckForDebuggerJustMyCode

; 1819 :         if (v == 0)

  0004b	48 83 bd b8 07
	00 00 00	 cmp	 QWORD PTR v$[rbp], 0
  00053	75 26		 jne	 SHORT $LN2@PMC_DivRem

; 1820 :         {
; 1821 :             // v  0 
; 1822 : 
; 1823 :             // 0 
; 1824 :             throw DivisionByZeroException(L"0");

  00055	48 8d 15 00 00
	00 00		 lea	 rdx, OFFSET FLAT:??_C@_1CG@BGDHBHIM@?$AA0?$AAk?$PP?$II?$PP?$IL?$AAd?$PP?$JH?$AAL?$AAL?$PP?$IP?$PP?$IM?$PP?$II?$AAF?$AAh?$AAW?$AA?$HO@
  0005c	48 8d 8d a8 06
	00 00		 lea	 rcx, QWORD PTR $T43[rbp]
  00063	e8 00 00 00 00	 call	 ??0DivisionByZeroException@Internal@Core@Math@Palmtree@@QEAA@PEB_W@Z ; Palmtree::Math::Core::Internal::DivisionByZeroException::DivisionByZeroException
  00068	48 8d 15 00 00
	00 00		 lea	 rdx, OFFSET FLAT:_TI2?AVDivisionByZeroException@Internal@Core@Math@Palmtree@@
  0006f	48 8d 8d a8 06
	00 00		 lea	 rcx, QWORD PTR $T43[rbp]
  00076	e8 00 00 00 00	 call	 _CxxThrowException
$LN2@PMC_DivRem:

; 1825 :         }
; 1826 :         if (u->IS_ZERO)

  0007b	48 8b 85 b0 07
	00 00		 mov	 rax, QWORD PTR u$[rbp]
  00082	8b 40 08	 mov	 eax, DWORD PTR [rax+8]
  00085	83 e0 01	 and	 eax, 1
  00088	85 c0		 test	 eax, eax
  0008a	74 27		 je	 SHORT $LN3@PMC_DivRem

; 1827 :         {
; 1828 :             // x  0 
; 1829 : 
; 1830 :             // q = 0, r = 0 
; 1831 :             if (q != nullptr)

  0008c	48 83 bd c0 07
	00 00 00	 cmp	 QWORD PTR q$[rbp], 0
  00094	74 11		 je	 SHORT $LN5@PMC_DivRem

; 1832 :                 *q = &number_zero;

  00096	48 8b 85 c0 07
	00 00		 mov	 rax, QWORD PTR q$[rbp]
  0009d	48 8d 0d 00 00
	00 00		 lea	 rcx, OFFSET FLAT:?number_zero@Internal@Core@Math@Palmtree@@3U__tag_NUMBER_HEADER@1234@A ; Palmtree::Math::Core::Internal::number_zero
  000a4	48 89 08	 mov	 QWORD PTR [rax], rcx
$LN5@PMC_DivRem:

; 1833 :             return (0);

  000a7	33 c0		 xor	 eax, eax
  000a9	e9 39 08 00 00	 jmp	 $LN36@PMC_DivRem

; 1834 :         }
; 1835 :         else

  000ae	e9 34 08 00 00	 jmp	 $LN36@PMC_DivRem
$LN3@PMC_DivRem:

; 1836 :         {
; 1837 :             // u  0 
; 1838 : 
; 1839 :             if (v == 1)

  000b3	48 83 bd b8 07
	00 00 01	 cmp	 QWORD PTR v$[rbp], 1
  000bb	75 2c		 jne	 SHORT $LN6@PMC_DivRem

; 1840 :             {
; 1841 :                 // v  1 
; 1842 : 
; 1843 :                 // q = u, r = 0 
; 1844 :                 if (q != nullptr)

  000bd	48 83 bd c0 07
	00 00 00	 cmp	 QWORD PTR q$[rbp], 0
  000c5	74 16		 je	 SHORT $LN8@PMC_DivRem

; 1845 :                     *q = DuplicateNumber(u);

  000c7	48 8b 8d b0 07
	00 00		 mov	 rcx, QWORD PTR u$[rbp]
  000ce	e8 00 00 00 00	 call	 ?DuplicateNumber@Internal@Core@Math@Palmtree@@YAPEAU__tag_NUMBER_HEADER@1234@PEAU51234@@Z ; Palmtree::Math::Core::Internal::DuplicateNumber
  000d3	48 8b 8d c0 07
	00 00		 mov	 rcx, QWORD PTR q$[rbp]
  000da	48 89 01	 mov	 QWORD PTR [rcx], rax
$LN8@PMC_DivRem:

; 1846 :                 return (0);

  000dd	33 c0		 xor	 eax, eax
  000df	e9 03 08 00 00	 jmp	 $LN36@PMC_DivRem

; 1847 :             }
; 1848 :             else

  000e4	e9 fe 07 00 00	 jmp	 $LN36@PMC_DivRem
$LN6@PMC_DivRem:

; 1849 :             {
; 1850 :                 // u > 0  v > 1 
; 1851 : 
; 1852 :                 // u  v 
; 1853 :                 __UNIT_TYPE u_bit_count = u->UNIT_BIT_COUNT;

  000e9	48 8b 85 b0 07
	00 00		 mov	 rax, QWORD PTR u$[rbp]
  000f0	48 8b 40 20	 mov	 rax, QWORD PTR [rax+32]
  000f4	48 89 45 08	 mov	 QWORD PTR u_bit_count$14[rbp], rax

; 1854 :                 if (sizeof(__UNIT_TYPE) < sizeof(v))

  000f8	33 c0		 xor	 eax, eax
  000fa	85 c0		 test	 eax, eax
  000fc	0f 84 fb 05 00
	00		 je	 $LN9@PMC_DivRem

; 1855 :                 {
; 1856 :                     // _UINT64_T  1 
; 1857 :                     _UINT32_T v_hi;
; 1858 :                     _UINT32_T v_lo = _FROMDWORDTOWORD(v, &v_hi);

  00102	48 8d 55 24	 lea	 rdx, QWORD PTR v_hi$15[rbp]
  00106	48 8b 8d b8 07
	00 00		 mov	 rcx, QWORD PTR v$[rbp]
  0010d	e8 00 00 00 00	 call	 _FROMDWORDTOWORD
  00112	89 45 44	 mov	 DWORD PTR v_lo$16[rbp], eax

; 1859 :                     if (v_hi == 0)

  00115	83 7d 24 00	 cmp	 DWORD PTR v_hi$15[rbp], 0
  00119	0f 85 d0 01 00
	00		 jne	 $LN11@PMC_DivRem

; 1860 :                     {
; 1861 :                         // v  32bit 
; 1862 :                         __UNIT_TYPE v_bit_count = sizeof(v_lo) * 8 - _LZCNT_ALT_32(v_lo);

  0011f	8b 4d 44	 mov	 ecx, DWORD PTR v_lo$16[rbp]
  00122	e8 00 00 00 00	 call	 _LZCNT_ALT_32
  00127	48 98		 cdqe
  00129	b9 20 00 00 00	 mov	 ecx, 32			; 00000020H
  0012e	48 2b c8	 sub	 rcx, rax
  00131	48 8b c1	 mov	 rax, rcx
  00134	48 89 45 68	 mov	 QWORD PTR v_bit_count$17[rbp], rax

; 1863 :                         if (u_bit_count < v_bit_count)

  00138	48 8b 45 68	 mov	 rax, QWORD PTR v_bit_count$17[rbp]
  0013c	48 39 45 08	 cmp	 QWORD PTR u_bit_count$14[rbp], rax
  00140	73 3d		 jae	 SHORT $LN13@PMC_DivRem

; 1864 :                         {
; 1865 :                             //  u < v 
; 1866 : 
; 1867 :                             // q = 0, r = u 
; 1868 :                             if (q != nullptr)

  00142	48 83 bd c0 07
	00 00 00	 cmp	 QWORD PTR q$[rbp], 0
  0014a	74 11		 je	 SHORT $LN15@PMC_DivRem

; 1869 :                                 *q = &number_zero;

  0014c	48 8b 85 c0 07
	00 00		 mov	 rax, QWORD PTR q$[rbp]
  00153	48 8d 0d 00 00
	00 00		 lea	 rcx, OFFSET FLAT:?number_zero@Internal@Core@Math@Palmtree@@3U__tag_NUMBER_HEADER@1234@A ; Palmtree::Math::Core::Internal::number_zero
  0015a	48 89 08	 mov	 QWORD PTR [rax], rcx
$LN15@PMC_DivRem:

; 1870 :                             return (u->BLOCK[0]);

  0015d	b8 08 00 00 00	 mov	 eax, 8
  00162	48 6b c0 00	 imul	 rax, rax, 0
  00166	48 8b 8d b0 07
	00 00		 mov	 rcx, QWORD PTR u$[rbp]
  0016d	48 8b 49 40	 mov	 rcx, QWORD PTR [rcx+64]
  00171	48 8b 04 08	 mov	 rax, QWORD PTR [rax+rcx]
  00175	e9 6d 07 00 00	 jmp	 $LN36@PMC_DivRem

; 1871 :                         }
; 1872 :                         else

  0017a	e9 6b 01 00 00	 jmp	 $LN14@PMC_DivRem
$LN13@PMC_DivRem:

; 1873 :                         {
; 1874 :                             if (q != nullptr)

  0017f	48 83 bd c0 07
	00 00 00	 cmp	 QWORD PTR q$[rbp], 0
  00187	0f 84 29 01 00
	00		 je	 $LN16@PMC_DivRem

; 1875 :                             {
; 1876 :                                 ResourceHolderUINT root;

  0018d	48 8d 8d 88 00
	00 00		 lea	 rcx, QWORD PTR root$18[rbp]
  00194	e8 00 00 00 00	 call	 ??0ResourceHolderUINT@Internal@Core@Math@Palmtree@@QEAA@XZ ; Palmtree::Math::Core::Internal::ResourceHolderUINT::ResourceHolderUINT
  00199	90		 npad	 1

; 1877 :                                 __UNIT_TYPE q_bit_count = u_bit_count - v_bit_count + 1 + __UNIT_TYPE_BIT_COUNT; //  u_bit_count - v_bit_count + 1 

  0019a	48 8b 45 68	 mov	 rax, QWORD PTR v_bit_count$17[rbp]
  0019e	48 8b 4d 08	 mov	 rcx, QWORD PTR u_bit_count$14[rbp]
  001a2	48 2b c8	 sub	 rcx, rax
  001a5	48 8b c1	 mov	 rax, rcx
  001a8	48 83 c0 41	 add	 rax, 65			; 00000041H
  001ac	48 89 85 c8 00
	00 00		 mov	 QWORD PTR q_bit_count$19[rbp], rax

; 1878 :                                 *q = root.AllocateNumber(q_bit_count);

  001b3	48 8b 95 c8 00
	00 00		 mov	 rdx, QWORD PTR q_bit_count$19[rbp]
  001ba	48 8d 8d 88 00
	00 00		 lea	 rcx, QWORD PTR root$18[rbp]
  001c1	e8 00 00 00 00	 call	 ?AllocateNumber@ResourceHolderUINT@Internal@Core@Math@Palmtree@@QEAAPEAU__tag_NUMBER_HEADER@2345@_K@Z ; Palmtree::Math::Core::Internal::ResourceHolderUINT::AllocateNumber
  001c6	48 8b 8d c0 07
	00 00		 mov	 rcx, QWORD PTR q$[rbp]
  001cd	48 89 01	 mov	 QWORD PTR [rcx], rax

; 1879 :                                 __UNIT_TYPE r_buf = 0;

  001d0	48 c7 85 e8 00
	00 00 00 00 00
	00		 mov	 QWORD PTR r_buf$20[rbp], 0

; 1880 :                                 DivRem_X_1W(u->BLOCK, u->UNIT_WORD_COUNT, v_lo, (*q)->BLOCK, &r_buf);

  001db	48 8b 85 c0 07
	00 00		 mov	 rax, QWORD PTR q$[rbp]
  001e2	48 8b 00	 mov	 rax, QWORD PTR [rax]
  001e5	8b 4d 44	 mov	 ecx, DWORD PTR v_lo$16[rbp]
  001e8	48 8d 95 e8 00
	00 00		 lea	 rdx, QWORD PTR r_buf$20[rbp]
  001ef	48 89 54 24 20	 mov	 QWORD PTR [rsp+32], rdx
  001f4	4c 8b 48 40	 mov	 r9, QWORD PTR [rax+64]
  001f8	44 8b c1	 mov	 r8d, ecx
  001fb	48 8b 85 b0 07
	00 00		 mov	 rax, QWORD PTR u$[rbp]
  00202	48 8b 50 18	 mov	 rdx, QWORD PTR [rax+24]
  00206	48 8b 85 b0 07
	00 00		 mov	 rax, QWORD PTR u$[rbp]
  0020d	48 8b 48 40	 mov	 rcx, QWORD PTR [rax+64]
  00211	e8 00 00 00 00	 call	 ?DivRem_X_1W@Internal@Core@Math@Palmtree@@YAXPEA_K_K100@Z ; Palmtree::Math::Core::Internal::DivRem_X_1W

; 1881 :                                 root.CheckNumber(*q);

  00216	48 8b 85 c0 07
	00 00		 mov	 rax, QWORD PTR q$[rbp]
  0021d	48 8b 10	 mov	 rdx, QWORD PTR [rax]
  00220	48 8d 8d 88 00
	00 00		 lea	 rcx, QWORD PTR root$18[rbp]
  00227	e8 00 00 00 00	 call	 ?CheckNumber@ResourceHolderUINT@Internal@Core@Math@Palmtree@@QEAAXPEAU__tag_NUMBER_HEADER@2345@@Z ; Palmtree::Math::Core::Internal::ResourceHolderUINT::CheckNumber

; 1882 :                                 CommitNumber(*q);

  0022c	48 8b 85 c0 07
	00 00		 mov	 rax, QWORD PTR q$[rbp]
  00233	48 8b 08	 mov	 rcx, QWORD PTR [rax]
  00236	e8 00 00 00 00	 call	 ?CommitNumber@Internal@Core@Math@Palmtree@@YAXPEAU__tag_NUMBER_HEADER@1234@@Z ; Palmtree::Math::Core::Internal::CommitNumber

; 1883 :                                 if ((*q)->IS_ZERO)

  0023b	48 8b 85 c0 07
	00 00		 mov	 rax, QWORD PTR q$[rbp]
  00242	48 8b 00	 mov	 rax, QWORD PTR [rax]
  00245	8b 40 08	 mov	 eax, DWORD PTR [rax+8]
  00248	83 e0 01	 and	 eax, 1
  0024b	85 c0		 test	 eax, eax
  0024d	74 29		 je	 SHORT $LN18@PMC_DivRem

; 1884 :                                 {
; 1885 :                                     root.DeallocateNumber(*q);

  0024f	48 8b 85 c0 07
	00 00		 mov	 rax, QWORD PTR q$[rbp]
  00256	48 8b 10	 mov	 rdx, QWORD PTR [rax]
  00259	48 8d 8d 88 00
	00 00		 lea	 rcx, QWORD PTR root$18[rbp]
  00260	e8 00 00 00 00	 call	 ?DeallocateNumber@ResourceHolderUINT@Internal@Core@Math@Palmtree@@QEAAXPEAU__tag_NUMBER_HEADER@2345@@Z ; Palmtree::Math::Core::Internal::ResourceHolderUINT::DeallocateNumber

; 1886 :                                     *q = &number_zero;

  00265	48 8b 85 c0 07
	00 00		 mov	 rax, QWORD PTR q$[rbp]
  0026c	48 8d 0d 00 00
	00 00		 lea	 rcx, OFFSET FLAT:?number_zero@Internal@Core@Math@Palmtree@@3U__tag_NUMBER_HEADER@1234@A ; Palmtree::Math::Core::Internal::number_zero
  00273	48 89 08	 mov	 QWORD PTR [rax], rcx

; 1887 :                                 }
; 1888 :                                 else

  00276	eb 16		 jmp	 SHORT $LN19@PMC_DivRem
$LN18@PMC_DivRem:

; 1889 :                                     root.UnlinkNumber(*q);

  00278	48 8b 85 c0 07
	00 00		 mov	 rax, QWORD PTR q$[rbp]
  0027f	48 8b 10	 mov	 rdx, QWORD PTR [rax]
  00282	48 8d 8d 88 00
	00 00		 lea	 rcx, QWORD PTR root$18[rbp]
  00289	e8 00 00 00 00	 call	 ?UnlinkNumber@ResourceHolderUINT@Internal@Core@Math@Palmtree@@QEAAXPEAU__tag_NUMBER_HEADER@2345@@Z ; Palmtree::Math::Core::Internal::ResourceHolderUINT::UnlinkNumber
$LN19@PMC_DivRem:

; 1890 :                                 return (r_buf);

  0028e	48 8b 85 e8 00
	00 00		 mov	 rax, QWORD PTR r_buf$20[rbp]
  00295	48 89 85 f8 06
	00 00		 mov	 QWORD PTR $T44[rbp], rax
  0029c	48 8d 8d 88 00
	00 00		 lea	 rcx, QWORD PTR root$18[rbp]
  002a3	e8 00 00 00 00	 call	 ??1ResourceHolderUINT@Internal@Core@Math@Palmtree@@UEAA@XZ ; Palmtree::Math::Core::Internal::ResourceHolderUINT::~ResourceHolderUINT
  002a8	48 8b 85 f8 06
	00 00		 mov	 rax, QWORD PTR $T44[rbp]
  002af	e9 33 06 00 00	 jmp	 $LN36@PMC_DivRem

; 1891 :                             }
; 1892 :                             else

  002b4	eb 34		 jmp	 SHORT $LN14@PMC_DivRem
$LN16@PMC_DivRem:

; 1893 :                             {
; 1894 :                                 __UNIT_TYPE r_buf = Rem_X_1W(u->BLOCK, u->UNIT_WORD_COUNT, v_lo);

  002b6	8b 45 44	 mov	 eax, DWORD PTR v_lo$16[rbp]
  002b9	44 8b c0	 mov	 r8d, eax
  002bc	48 8b 85 b0 07
	00 00		 mov	 rax, QWORD PTR u$[rbp]
  002c3	48 8b 50 18	 mov	 rdx, QWORD PTR [rax+24]
  002c7	48 8b 85 b0 07
	00 00		 mov	 rax, QWORD PTR u$[rbp]
  002ce	48 8b 48 40	 mov	 rcx, QWORD PTR [rax+64]
  002d2	e8 00 00 00 00	 call	 ?Rem_X_1W@Internal@Core@Math@Palmtree@@YA_KPEA_K_K1@Z ; Palmtree::Math::Core::Internal::Rem_X_1W
  002d7	48 89 85 08 01
	00 00		 mov	 QWORD PTR r_buf$21[rbp], rax

; 1895 :                                 return (r_buf);

  002de	48 8b 85 08 01
	00 00		 mov	 rax, QWORD PTR r_buf$21[rbp]
  002e5	e9 fd 05 00 00	 jmp	 $LN36@PMC_DivRem
$LN14@PMC_DivRem:

; 1896 :                             }
; 1897 :                         }
; 1898 :                     }
; 1899 :                     else

  002ea	e9 09 04 00 00	 jmp	 $LN12@PMC_DivRem
$LN11@PMC_DivRem:

; 1900 :                     {
; 1901 :                         // v  32bit 
; 1902 :                         __UNIT_TYPE v_bit_count = sizeof(v) * 8 - _LZCNT_ALT_32(v_hi);

  002ef	8b 4d 24	 mov	 ecx, DWORD PTR v_hi$15[rbp]
  002f2	e8 00 00 00 00	 call	 _LZCNT_ALT_32
  002f7	48 98		 cdqe
  002f9	b9 40 00 00 00	 mov	 ecx, 64			; 00000040H
  002fe	48 2b c8	 sub	 rcx, rax
  00301	48 8b c1	 mov	 rax, rcx
  00304	48 89 85 28 01
	00 00		 mov	 QWORD PTR v_bit_count$22[rbp], rax

; 1903 :                         if (u_bit_count < v_bit_count)

  0030b	48 8b 85 28 01
	00 00		 mov	 rax, QWORD PTR v_bit_count$22[rbp]
  00312	48 39 45 08	 cmp	 QWORD PTR u_bit_count$14[rbp], rax
  00316	0f 83 c3 00 00
	00		 jae	 $LN20@PMC_DivRem

; 1904 :                         {
; 1905 :                             //  u < v 
; 1906 : 
; 1907 :                             // q = 0, r = u 
; 1908 :                             if (q != nullptr)

  0031c	48 83 bd c0 07
	00 00 00	 cmp	 QWORD PTR q$[rbp], 0
  00324	74 11		 je	 SHORT $LN22@PMC_DivRem

; 1909 :                                 *q = &number_zero;

  00326	48 8b 85 c0 07
	00 00		 mov	 rax, QWORD PTR q$[rbp]
  0032d	48 8d 0d 00 00
	00 00		 lea	 rcx, OFFSET FLAT:?number_zero@Internal@Core@Math@Palmtree@@3U__tag_NUMBER_HEADER@1234@A ; Palmtree::Math::Core::Internal::number_zero
  00334	48 89 08	 mov	 QWORD PTR [rax], rcx
$LN22@PMC_DivRem:

; 1910 :                             if (sizeof(v) == sizeof(__UNIT_TYPE))

  00337	33 c0		 xor	 eax, eax
  00339	83 f8 01	 cmp	 eax, 1
  0033c	74 1f		 je	 SHORT $LN23@PMC_DivRem

; 1911 :                                 return (u->BLOCK[0]);

  0033e	b8 08 00 00 00	 mov	 eax, 8
  00343	48 6b c0 00	 imul	 rax, rax, 0
  00347	48 8b 8d b0 07
	00 00		 mov	 rcx, QWORD PTR u$[rbp]
  0034e	48 8b 49 40	 mov	 rcx, QWORD PTR [rcx+64]
  00352	48 8b 04 08	 mov	 rax, QWORD PTR [rax+rcx]
  00356	e9 8c 05 00 00	 jmp	 $LN36@PMC_DivRem

; 1912 :                             else

  0035b	eb 7d		 jmp	 SHORT $LN24@PMC_DivRem
$LN23@PMC_DivRem:

; 1913 :                             {
; 1914 :                                 __UNIT_TYPE r_lo = u->BLOCK[0];

  0035d	b8 08 00 00 00	 mov	 eax, 8
  00362	48 6b c0 00	 imul	 rax, rax, 0
  00366	48 8b 8d b0 07
	00 00		 mov	 rcx, QWORD PTR u$[rbp]
  0036d	48 8b 49 40	 mov	 rcx, QWORD PTR [rcx+64]
  00371	48 8b 04 08	 mov	 rax, QWORD PTR [rax+rcx]
  00375	48 89 85 48 01
	00 00		 mov	 QWORD PTR r_lo$23[rbp], rax

; 1915 :                                 __UNIT_TYPE r_hi = u->UNIT_WORD_COUNT > 1 ? u->BLOCK[1] : 0;

  0037c	48 8b 85 b0 07
	00 00		 mov	 rax, QWORD PTR u$[rbp]
  00383	48 83 78 18 01	 cmp	 QWORD PTR [rax+24], 1
  00388	76 21		 jbe	 SHORT $LN37@PMC_DivRem
  0038a	b8 08 00 00 00	 mov	 eax, 8
  0038f	48 6b c0 01	 imul	 rax, rax, 1
  00393	48 8b 8d b0 07
	00 00		 mov	 rcx, QWORD PTR u$[rbp]
  0039a	48 8b 49 40	 mov	 rcx, QWORD PTR [rcx+64]
  0039e	48 8b 04 08	 mov	 rax, QWORD PTR [rax+rcx]
  003a2	48 89 85 88 07
	00 00		 mov	 QWORD PTR tv178[rbp], rax
  003a9	eb 0b		 jmp	 SHORT $LN38@PMC_DivRem
$LN37@PMC_DivRem:
  003ab	48 c7 85 88 07
	00 00 00 00 00
	00		 mov	 QWORD PTR tv178[rbp], 0
$LN38@PMC_DivRem:
  003b6	48 8b 85 88 07
	00 00		 mov	 rax, QWORD PTR tv178[rbp]
  003bd	48 89 85 68 01
	00 00		 mov	 QWORD PTR r_hi$24[rbp], rax

; 1916 :                                 return (_FROMWORDTODWORD((_UINT32_T)r_hi, (_UINT32_T)r_lo));

  003c4	8b 95 48 01 00
	00		 mov	 edx, DWORD PTR r_lo$23[rbp]
  003ca	8b 8d 68 01 00
	00		 mov	 ecx, DWORD PTR r_hi$24[rbp]
  003d0	e8 00 00 00 00	 call	 _FROMWORDTODWORD
  003d5	e9 0d 05 00 00	 jmp	 $LN36@PMC_DivRem
$LN24@PMC_DivRem:

; 1917 :                             }
; 1918 :                         }
; 1919 :                         else

  003da	e9 19 03 00 00	 jmp	 $LN12@PMC_DivRem
$LN20@PMC_DivRem:

; 1920 :                         {
; 1921 :                             if (q != nullptr)

  003df	48 83 bd c0 07
	00 00 00	 cmp	 QWORD PTR q$[rbp], 0
  003e7	0f 84 d5 01 00
	00		 je	 $LN25@PMC_DivRem

; 1922 :                             {
; 1923 :                                 ResourceHolderUINT root;

  003ed	48 8d 8d 88 01
	00 00		 lea	 rcx, QWORD PTR root$25[rbp]
  003f4	e8 00 00 00 00	 call	 ??0ResourceHolderUINT@Internal@Core@Math@Palmtree@@QEAA@XZ ; Palmtree::Math::Core::Internal::ResourceHolderUINT::ResourceHolderUINT
  003f9	90		 npad	 1

; 1924 :                                 __UNIT_TYPE q_bit_count = u_bit_count - v_bit_count + 1 + __UNIT_TYPE_BIT_COUNT; //  u_bit_count - v_bit_count + 1 

  003fa	48 8b 85 28 01
	00 00		 mov	 rax, QWORD PTR v_bit_count$22[rbp]
  00401	48 8b 4d 08	 mov	 rcx, QWORD PTR u_bit_count$14[rbp]
  00405	48 2b c8	 sub	 rcx, rax
  00408	48 8b c1	 mov	 rax, rcx
  0040b	48 83 c0 41	 add	 rax, 65			; 00000041H
  0040f	48 89 85 c8 01
	00 00		 mov	 QWORD PTR q_bit_count$26[rbp], rax

; 1925 :                                 __UNIT_TYPE r_bit_count = u_bit_count + __UNIT_TYPE_BIT_COUNT; //  v_bit_count 

  00416	48 8b 45 08	 mov	 rax, QWORD PTR u_bit_count$14[rbp]
  0041a	48 83 c0 40	 add	 rax, 64			; 00000040H
  0041e	48 89 85 e8 01
	00 00		 mov	 QWORD PTR r_bit_count$27[rbp], rax

; 1926 :                                 *q = root.AllocateNumber(q_bit_count);

  00425	48 8b 95 c8 01
	00 00		 mov	 rdx, QWORD PTR q_bit_count$26[rbp]
  0042c	48 8d 8d 88 01
	00 00		 lea	 rcx, QWORD PTR root$25[rbp]
  00433	e8 00 00 00 00	 call	 ?AllocateNumber@ResourceHolderUINT@Internal@Core@Math@Palmtree@@QEAAPEAU__tag_NUMBER_HEADER@2345@_K@Z ; Palmtree::Math::Core::Internal::ResourceHolderUINT::AllocateNumber
  00438	48 8b 8d c0 07
	00 00		 mov	 rcx, QWORD PTR q$[rbp]
  0043f	48 89 01	 mov	 QWORD PTR [rcx], rax

; 1927 :                                 __UNIT_TYPE v_buf[] = { v_lo, v_hi };

  00442	8b 45 44	 mov	 eax, DWORD PTR v_lo$16[rbp]
  00445	48 89 85 08 02
	00 00		 mov	 QWORD PTR v_buf$28[rbp], rax
  0044c	8b 45 24	 mov	 eax, DWORD PTR v_hi$15[rbp]
  0044f	48 89 85 10 02
	00 00		 mov	 QWORD PTR v_buf$28[rbp+8], rax

; 1928 :                                 __UNIT_TYPE work_v_buf[] = { 0, 0 };

  00456	48 c7 85 38 02
	00 00 00 00 00
	00		 mov	 QWORD PTR work_v_buf$29[rbp], 0
  00461	48 c7 85 40 02
	00 00 00 00 00
	00		 mov	 QWORD PTR work_v_buf$29[rbp+8], 0

; 1929 :                                 __UNIT_TYPE* r_buf = root.AllocateBlock(r_bit_count);

  0046c	48 8b 95 e8 01
	00 00		 mov	 rdx, QWORD PTR r_bit_count$27[rbp]
  00473	48 8d 8d 88 01
	00 00		 lea	 rcx, QWORD PTR root$25[rbp]
  0047a	e8 00 00 00 00	 call	 ?AllocateBlock@ResourceHolderUINT@Internal@Core@Math@Palmtree@@QEAAPEA_K_K@Z ; Palmtree::Math::Core::Internal::ResourceHolderUINT::AllocateBlock
  0047f	48 89 85 68 02
	00 00		 mov	 QWORD PTR r_buf$30[rbp], rax

; 1930 :                                 (*fp_DivRem_X_X)(u->BLOCK, u->UNIT_WORD_COUNT, v_buf, sizeof(v_buf) / sizeof(v_buf[0]), work_v_buf, (*q)->BLOCK, r_buf);

  00486	48 8b 05 00 00
	00 00		 mov	 rax, QWORD PTR ?fp_DivRem_X_X@Internal@Core@Math@Palmtree@@3P6AXPEA_K_K01000@ZEA
  0048d	48 89 85 88 07
	00 00		 mov	 QWORD PTR tv209[rbp], rax
  00494	48 8b 85 c0 07
	00 00		 mov	 rax, QWORD PTR q$[rbp]
  0049b	48 8b 00	 mov	 rax, QWORD PTR [rax]
  0049e	48 8b 8d 68 02
	00 00		 mov	 rcx, QWORD PTR r_buf$30[rbp]
  004a5	48 89 4c 24 30	 mov	 QWORD PTR [rsp+48], rcx
  004aa	48 8b 40 40	 mov	 rax, QWORD PTR [rax+64]
  004ae	48 89 44 24 28	 mov	 QWORD PTR [rsp+40], rax
  004b3	48 8d 85 38 02
	00 00		 lea	 rax, QWORD PTR work_v_buf$29[rbp]
  004ba	48 89 44 24 20	 mov	 QWORD PTR [rsp+32], rax
  004bf	41 b9 02 00 00
	00		 mov	 r9d, 2
  004c5	4c 8d 85 08 02
	00 00		 lea	 r8, QWORD PTR v_buf$28[rbp]
  004cc	48 8b 85 b0 07
	00 00		 mov	 rax, QWORD PTR u$[rbp]
  004d3	48 8b 50 18	 mov	 rdx, QWORD PTR [rax+24]
  004d7	48 8b 85 b0 07
	00 00		 mov	 rax, QWORD PTR u$[rbp]
  004de	48 8b 48 40	 mov	 rcx, QWORD PTR [rax+64]
  004e2	ff 95 88 07 00
	00		 call	 QWORD PTR tv209[rbp]

; 1931 :                                 root.CheckNumber(*q);

  004e8	48 8b 85 c0 07
	00 00		 mov	 rax, QWORD PTR q$[rbp]
  004ef	48 8b 10	 mov	 rdx, QWORD PTR [rax]
  004f2	48 8d 8d 88 01
	00 00		 lea	 rcx, QWORD PTR root$25[rbp]
  004f9	e8 00 00 00 00	 call	 ?CheckNumber@ResourceHolderUINT@Internal@Core@Math@Palmtree@@QEAAXPEAU__tag_NUMBER_HEADER@2345@@Z ; Palmtree::Math::Core::Internal::ResourceHolderUINT::CheckNumber

; 1932 :                                 root.CheckBlock(r_buf);

  004fe	48 8b 95 68 02
	00 00		 mov	 rdx, QWORD PTR r_buf$30[rbp]
  00505	48 8d 8d 88 01
	00 00		 lea	 rcx, QWORD PTR root$25[rbp]
  0050c	e8 00 00 00 00	 call	 ?CheckBlock@ResourceHolderUINT@Internal@Core@Math@Palmtree@@QEAAXPEA_K@Z ; Palmtree::Math::Core::Internal::ResourceHolderUINT::CheckBlock

; 1933 :                                 CommitNumber(*q);

  00511	48 8b 85 c0 07
	00 00		 mov	 rax, QWORD PTR q$[rbp]
  00518	48 8b 08	 mov	 rcx, QWORD PTR [rax]
  0051b	e8 00 00 00 00	 call	 ?CommitNumber@Internal@Core@Math@Palmtree@@YAXPEAU__tag_NUMBER_HEADER@1234@@Z ; Palmtree::Math::Core::Internal::CommitNumber

; 1934 :                                 if ((*q)->IS_ZERO)

  00520	48 8b 85 c0 07
	00 00		 mov	 rax, QWORD PTR q$[rbp]
  00527	48 8b 00	 mov	 rax, QWORD PTR [rax]
  0052a	8b 40 08	 mov	 eax, DWORD PTR [rax+8]
  0052d	83 e0 01	 and	 eax, 1
  00530	85 c0		 test	 eax, eax
  00532	74 29		 je	 SHORT $LN27@PMC_DivRem

; 1935 :                                 {
; 1936 :                                     root.DeallocateNumber(*q);

  00534	48 8b 85 c0 07
	00 00		 mov	 rax, QWORD PTR q$[rbp]
  0053b	48 8b 10	 mov	 rdx, QWORD PTR [rax]
  0053e	48 8d 8d 88 01
	00 00		 lea	 rcx, QWORD PTR root$25[rbp]
  00545	e8 00 00 00 00	 call	 ?DeallocateNumber@ResourceHolderUINT@Internal@Core@Math@Palmtree@@QEAAXPEAU__tag_NUMBER_HEADER@2345@@Z ; Palmtree::Math::Core::Internal::ResourceHolderUINT::DeallocateNumber

; 1937 :                                     *q = &number_zero;

  0054a	48 8b 85 c0 07
	00 00		 mov	 rax, QWORD PTR q$[rbp]
  00551	48 8d 0d 00 00
	00 00		 lea	 rcx, OFFSET FLAT:?number_zero@Internal@Core@Math@Palmtree@@3U__tag_NUMBER_HEADER@1234@A ; Palmtree::Math::Core::Internal::number_zero
  00558	48 89 08	 mov	 QWORD PTR [rax], rcx

; 1938 :                                 }
; 1939 :                                 else

  0055b	eb 16		 jmp	 SHORT $LN28@PMC_DivRem
$LN27@PMC_DivRem:

; 1940 :                                     root.UnlinkNumber(*q);

  0055d	48 8b 85 c0 07
	00 00		 mov	 rax, QWORD PTR q$[rbp]
  00564	48 8b 10	 mov	 rdx, QWORD PTR [rax]
  00567	48 8d 8d 88 01
	00 00		 lea	 rcx, QWORD PTR root$25[rbp]
  0056e	e8 00 00 00 00	 call	 ?UnlinkNumber@ResourceHolderUINT@Internal@Core@Math@Palmtree@@QEAAXPEAU__tag_NUMBER_HEADER@2345@@Z ; Palmtree::Math::Core::Internal::ResourceHolderUINT::UnlinkNumber
$LN28@PMC_DivRem:

; 1941 :                                 return (_FROMWORDTODWORD((_UINT32_T)r_buf[1], (_UINT32_T)r_buf[0]));

  00573	b8 08 00 00 00	 mov	 eax, 8
  00578	48 6b c0 00	 imul	 rax, rax, 0
  0057c	b9 08 00 00 00	 mov	 ecx, 8
  00581	48 6b c9 01	 imul	 rcx, rcx, 1
  00585	48 8b 95 68 02
	00 00		 mov	 rdx, QWORD PTR r_buf$30[rbp]
  0058c	8b 14 02	 mov	 edx, DWORD PTR [rdx+rax]
  0058f	48 8b 85 68 02
	00 00		 mov	 rax, QWORD PTR r_buf$30[rbp]
  00596	8b 0c 08	 mov	 ecx, DWORD PTR [rax+rcx]
  00599	e8 00 00 00 00	 call	 _FROMWORDTODWORD
  0059e	48 89 85 18 07
	00 00		 mov	 QWORD PTR $T45[rbp], rax
  005a5	48 8d 8d 88 01
	00 00		 lea	 rcx, QWORD PTR root$25[rbp]
  005ac	e8 00 00 00 00	 call	 ??1ResourceHolderUINT@Internal@Core@Math@Palmtree@@UEAA@XZ ; Palmtree::Math::Core::Internal::ResourceHolderUINT::~ResourceHolderUINT
  005b1	48 8b 85 18 07
	00 00		 mov	 rax, QWORD PTR $T45[rbp]
  005b8	e9 2a 03 00 00	 jmp	 $LN36@PMC_DivRem

; 1942 :                             }
; 1943 :                             else

  005bd	e9 36 01 00 00	 jmp	 $LN12@PMC_DivRem
$LN25@PMC_DivRem:

; 1944 :                             {
; 1945 :                                 ResourceHolderUINT root;

  005c2	48 8d 8d 88 02
	00 00		 lea	 rcx, QWORD PTR root$31[rbp]
  005c9	e8 00 00 00 00	 call	 ??0ResourceHolderUINT@Internal@Core@Math@Palmtree@@QEAA@XZ ; Palmtree::Math::Core::Internal::ResourceHolderUINT::ResourceHolderUINT
  005ce	90		 npad	 1

; 1946 :                                 __UNIT_TYPE r_bit_count = u_bit_count + __UNIT_TYPE_BIT_COUNT; //  v_bit_count 

  005cf	48 8b 45 08	 mov	 rax, QWORD PTR u_bit_count$14[rbp]
  005d3	48 83 c0 40	 add	 rax, 64			; 00000040H
  005d7	48 89 85 c8 02
	00 00		 mov	 QWORD PTR r_bit_count$32[rbp], rax

; 1947 :                                 __UNIT_TYPE v_buf[] = { v_lo, v_hi };

  005de	8b 45 44	 mov	 eax, DWORD PTR v_lo$16[rbp]
  005e1	48 89 85 e8 02
	00 00		 mov	 QWORD PTR v_buf$33[rbp], rax
  005e8	8b 45 24	 mov	 eax, DWORD PTR v_hi$15[rbp]
  005eb	48 89 85 f0 02
	00 00		 mov	 QWORD PTR v_buf$33[rbp+8], rax

; 1948 :                                 __UNIT_TYPE work_v_buf[] = { 0, 0 };

  005f2	48 c7 85 18 03
	00 00 00 00 00
	00		 mov	 QWORD PTR work_v_buf$34[rbp], 0
  005fd	48 c7 85 20 03
	00 00 00 00 00
	00		 mov	 QWORD PTR work_v_buf$34[rbp+8], 0

; 1949 :                                 __UNIT_TYPE* r_buf = root.AllocateBlock(r_bit_count);

  00608	48 8b 95 c8 02
	00 00		 mov	 rdx, QWORD PTR r_bit_count$32[rbp]
  0060f	48 8d 8d 88 02
	00 00		 lea	 rcx, QWORD PTR root$31[rbp]
  00616	e8 00 00 00 00	 call	 ?AllocateBlock@ResourceHolderUINT@Internal@Core@Math@Palmtree@@QEAAPEA_K_K@Z ; Palmtree::Math::Core::Internal::ResourceHolderUINT::AllocateBlock
  0061b	48 89 85 48 03
	00 00		 mov	 QWORD PTR r_buf$35[rbp], rax

; 1950 :                                 (*fp_DivRem_X_X)(u->BLOCK, u->UNIT_WORD_COUNT, v_buf, sizeof(v_buf) / sizeof(v_buf[0]), work_v_buf, nullptr, r_buf);

  00622	48 8b 05 00 00
	00 00		 mov	 rax, QWORD PTR ?fp_DivRem_X_X@Internal@Core@Math@Palmtree@@3P6AXPEA_K_K01000@ZEA
  00629	48 89 85 88 07
	00 00		 mov	 QWORD PTR tv248[rbp], rax
  00630	48 8b 85 48 03
	00 00		 mov	 rax, QWORD PTR r_buf$35[rbp]
  00637	48 89 44 24 30	 mov	 QWORD PTR [rsp+48], rax
  0063c	48 c7 44 24 28
	00 00 00 00	 mov	 QWORD PTR [rsp+40], 0
  00645	48 8d 85 18 03
	00 00		 lea	 rax, QWORD PTR work_v_buf$34[rbp]
  0064c	48 89 44 24 20	 mov	 QWORD PTR [rsp+32], rax
  00651	41 b9 02 00 00
	00		 mov	 r9d, 2
  00657	4c 8d 85 e8 02
	00 00		 lea	 r8, QWORD PTR v_buf$33[rbp]
  0065e	48 8b 85 b0 07
	00 00		 mov	 rax, QWORD PTR u$[rbp]
  00665	48 8b 50 18	 mov	 rdx, QWORD PTR [rax+24]
  00669	48 8b 85 b0 07
	00 00		 mov	 rax, QWORD PTR u$[rbp]
  00670	48 8b 48 40	 mov	 rcx, QWORD PTR [rax+64]
  00674	ff 95 88 07 00
	00		 call	 QWORD PTR tv248[rbp]

; 1951 :                                 root.CheckBlock(r_buf);

  0067a	48 8b 95 48 03
	00 00		 mov	 rdx, QWORD PTR r_buf$35[rbp]
  00681	48 8d 8d 88 02
	00 00		 lea	 rcx, QWORD PTR root$31[rbp]
  00688	e8 00 00 00 00	 call	 ?CheckBlock@ResourceHolderUINT@Internal@Core@Math@Palmtree@@QEAAXPEA_K@Z ; Palmtree::Math::Core::Internal::ResourceHolderUINT::CheckBlock

; 1952 :                                 _UINT64_T r = _FROMWORDTODWORD((_UINT32_T)r_buf[1], (_UINT32_T)r_buf[0]);

  0068d	b8 08 00 00 00	 mov	 eax, 8
  00692	48 6b c0 00	 imul	 rax, rax, 0
  00696	b9 08 00 00 00	 mov	 ecx, 8
  0069b	48 6b c9 01	 imul	 rcx, rcx, 1
  0069f	48 8b 95 48 03
	00 00		 mov	 rdx, QWORD PTR r_buf$35[rbp]
  006a6	8b 14 02	 mov	 edx, DWORD PTR [rdx+rax]
  006a9	48 8b 85 48 03
	00 00		 mov	 rax, QWORD PTR r_buf$35[rbp]
  006b0	8b 0c 08	 mov	 ecx, DWORD PTR [rax+rcx]
  006b3	e8 00 00 00 00	 call	 _FROMWORDTODWORD
  006b8	48 89 85 68 03
	00 00		 mov	 QWORD PTR r$36[rbp], rax

; 1953 :                                 root.DeallocateBlock(r_buf);

  006bf	48 8b 95 48 03
	00 00		 mov	 rdx, QWORD PTR r_buf$35[rbp]
  006c6	48 8d 8d 88 02
	00 00		 lea	 rcx, QWORD PTR root$31[rbp]
  006cd	e8 00 00 00 00	 call	 ?DeallocateBlock@ResourceHolderUINT@Internal@Core@Math@Palmtree@@QEAAXPEA_K@Z ; Palmtree::Math::Core::Internal::ResourceHolderUINT::DeallocateBlock

; 1954 :                                 return (r);

  006d2	48 8b 85 68 03
	00 00		 mov	 rax, QWORD PTR r$36[rbp]
  006d9	48 89 85 38 07
	00 00		 mov	 QWORD PTR $T46[rbp], rax
  006e0	48 8d 8d 88 02
	00 00		 lea	 rcx, QWORD PTR root$31[rbp]
  006e7	e8 00 00 00 00	 call	 ??1ResourceHolderUINT@Internal@Core@Math@Palmtree@@UEAA@XZ ; Palmtree::Math::Core::Internal::ResourceHolderUINT::~ResourceHolderUINT
  006ec	48 8b 85 38 07
	00 00		 mov	 rax, QWORD PTR $T46[rbp]
  006f3	e9 ef 01 00 00	 jmp	 $LN36@PMC_DivRem
$LN12@PMC_DivRem:

; 1955 :                             }
; 1956 :                         }
; 1957 :                     }
; 1958 :                 }
; 1959 :                 else

  006f8	e9 ea 01 00 00	 jmp	 $LN36@PMC_DivRem
$LN9@PMC_DivRem:

; 1960 :                 {
; 1961 :                     // _UINT64_T  1 
; 1962 : 
; 1963 :                     // x  y 
; 1964 :                     __UNIT_TYPE u_bit_count = u->UNIT_BIT_COUNT;

  006fd	48 8b 85 b0 07
	00 00		 mov	 rax, QWORD PTR u$[rbp]
  00704	48 8b 40 20	 mov	 rax, QWORD PTR [rax+32]
  00708	48 89 85 88 03
	00 00		 mov	 QWORD PTR u_bit_count$37[rbp], rax

; 1965 :                     __UNIT_TYPE v_bit_count = sizeof(v) * 8 - _LZCNT_ALT_UNIT((__UNIT_TYPE)v);

  0070f	48 8b 8d b8 07
	00 00		 mov	 rcx, QWORD PTR v$[rbp]
  00716	e8 00 00 00 00	 call	 _LZCNT_ALT_UNIT
  0071b	48 98		 cdqe
  0071d	b9 40 00 00 00	 mov	 ecx, 64			; 00000040H
  00722	48 2b c8	 sub	 rcx, rax
  00725	48 8b c1	 mov	 rax, rcx
  00728	48 89 85 a8 03
	00 00		 mov	 QWORD PTR v_bit_count$38[rbp], rax

; 1966 :                     if (u_bit_count < v_bit_count)

  0072f	48 8b 85 a8 03
	00 00		 mov	 rax, QWORD PTR v_bit_count$38[rbp]
  00736	48 39 85 88 03
	00 00		 cmp	 QWORD PTR u_bit_count$37[rbp], rax
  0073d	73 3d		 jae	 SHORT $LN29@PMC_DivRem

; 1967 :                     {
; 1968 :                         //  u < v 
; 1969 : 
; 1970 :                         // q = 0, r = u 
; 1971 :                         if (q != nullptr)

  0073f	48 83 bd c0 07
	00 00 00	 cmp	 QWORD PTR q$[rbp], 0
  00747	74 11		 je	 SHORT $LN31@PMC_DivRem

; 1972 :                             *q = &number_zero;

  00749	48 8b 85 c0 07
	00 00		 mov	 rax, QWORD PTR q$[rbp]
  00750	48 8d 0d 00 00
	00 00		 lea	 rcx, OFFSET FLAT:?number_zero@Internal@Core@Math@Palmtree@@3U__tag_NUMBER_HEADER@1234@A ; Palmtree::Math::Core::Internal::number_zero
  00757	48 89 08	 mov	 QWORD PTR [rax], rcx
$LN31@PMC_DivRem:

; 1973 :                         return (u->BLOCK[0]);

  0075a	b8 08 00 00 00	 mov	 eax, 8
  0075f	48 6b c0 00	 imul	 rax, rax, 0
  00763	48 8b 8d b0 07
	00 00		 mov	 rcx, QWORD PTR u$[rbp]
  0076a	48 8b 49 40	 mov	 rcx, QWORD PTR [rcx+64]
  0076e	48 8b 04 08	 mov	 rax, QWORD PTR [rax+rcx]
  00772	e9 70 01 00 00	 jmp	 $LN36@PMC_DivRem

; 1974 :                     }
; 1975 :                     else

  00777	e9 6b 01 00 00	 jmp	 $LN36@PMC_DivRem
$LN29@PMC_DivRem:

; 1976 :                     {
; 1977 :                         if (q != nullptr)

  0077c	48 83 bd c0 07
	00 00 00	 cmp	 QWORD PTR q$[rbp], 0
  00784	0f 84 2d 01 00
	00		 je	 $LN32@PMC_DivRem

; 1978 :                         {
; 1979 :                             ResourceHolderUINT root;

  0078a	48 8d 8d c8 03
	00 00		 lea	 rcx, QWORD PTR root$39[rbp]
  00791	e8 00 00 00 00	 call	 ??0ResourceHolderUINT@Internal@Core@Math@Palmtree@@QEAA@XZ ; Palmtree::Math::Core::Internal::ResourceHolderUINT::ResourceHolderUINT
  00796	90		 npad	 1

; 1980 :                             __UNIT_TYPE q_bit_count = u_bit_count - v_bit_count + 1 + __UNIT_TYPE_BIT_COUNT; //  u_bit_count - v_bit_count + 1 

  00797	48 8b 85 a8 03
	00 00		 mov	 rax, QWORD PTR v_bit_count$38[rbp]
  0079e	48 8b 8d 88 03
	00 00		 mov	 rcx, QWORD PTR u_bit_count$37[rbp]
  007a5	48 2b c8	 sub	 rcx, rax
  007a8	48 8b c1	 mov	 rax, rcx
  007ab	48 83 c0 41	 add	 rax, 65			; 00000041H
  007af	48 89 85 08 04
	00 00		 mov	 QWORD PTR q_bit_count$40[rbp], rax

; 1981 :                             *q = root.AllocateNumber(q_bit_count);

  007b6	48 8b 95 08 04
	00 00		 mov	 rdx, QWORD PTR q_bit_count$40[rbp]
  007bd	48 8d 8d c8 03
	00 00		 lea	 rcx, QWORD PTR root$39[rbp]
  007c4	e8 00 00 00 00	 call	 ?AllocateNumber@ResourceHolderUINT@Internal@Core@Math@Palmtree@@QEAAPEAU__tag_NUMBER_HEADER@2345@_K@Z ; Palmtree::Math::Core::Internal::ResourceHolderUINT::AllocateNumber
  007c9	48 8b 8d c0 07
	00 00		 mov	 rcx, QWORD PTR q$[rbp]
  007d0	48 89 01	 mov	 QWORD PTR [rcx], rax

; 1982 :                             __UNIT_TYPE r_buf = 0;

  007d3	48 c7 85 28 04
	00 00 00 00 00
	00		 mov	 QWORD PTR r_buf$41[rbp], 0

; 1983 :                             DivRem_X_1W(u->BLOCK, u->UNIT_WORD_COUNT, (__UNIT_TYPE)v, (*q)->BLOCK, &r_buf);

  007de	48 8b 85 c0 07
	00 00		 mov	 rax, QWORD PTR q$[rbp]
  007e5	48 8b 00	 mov	 rax, QWORD PTR [rax]
  007e8	48 8d 8d 28 04
	00 00		 lea	 rcx, QWORD PTR r_buf$41[rbp]
  007ef	48 89 4c 24 20	 mov	 QWORD PTR [rsp+32], rcx
  007f4	4c 8b 48 40	 mov	 r9, QWORD PTR [rax+64]
  007f8	4c 8b 85 b8 07
	00 00		 mov	 r8, QWORD PTR v$[rbp]
  007ff	48 8b 85 b0 07
	00 00		 mov	 rax, QWORD PTR u$[rbp]
  00806	48 8b 50 18	 mov	 rdx, QWORD PTR [rax+24]
  0080a	48 8b 85 b0 07
	00 00		 mov	 rax, QWORD PTR u$[rbp]
  00811	48 8b 48 40	 mov	 rcx, QWORD PTR [rax+64]
  00815	e8 00 00 00 00	 call	 ?DivRem_X_1W@Internal@Core@Math@Palmtree@@YAXPEA_K_K100@Z ; Palmtree::Math::Core::Internal::DivRem_X_1W

; 1984 :                             root.CheckNumber(*q);

  0081a	48 8b 85 c0 07
	00 00		 mov	 rax, QWORD PTR q$[rbp]
  00821	48 8b 10	 mov	 rdx, QWORD PTR [rax]
  00824	48 8d 8d c8 03
	00 00		 lea	 rcx, QWORD PTR root$39[rbp]
  0082b	e8 00 00 00 00	 call	 ?CheckNumber@ResourceHolderUINT@Internal@Core@Math@Palmtree@@QEAAXPEAU__tag_NUMBER_HEADER@2345@@Z ; Palmtree::Math::Core::Internal::ResourceHolderUINT::CheckNumber

; 1985 :                             CommitNumber(*q);

  00830	48 8b 85 c0 07
	00 00		 mov	 rax, QWORD PTR q$[rbp]
  00837	48 8b 08	 mov	 rcx, QWORD PTR [rax]
  0083a	e8 00 00 00 00	 call	 ?CommitNumber@Internal@Core@Math@Palmtree@@YAXPEAU__tag_NUMBER_HEADER@1234@@Z ; Palmtree::Math::Core::Internal::CommitNumber

; 1986 :                             if ((*q)->IS_ZERO)

  0083f	48 8b 85 c0 07
	00 00		 mov	 rax, QWORD PTR q$[rbp]
  00846	48 8b 00	 mov	 rax, QWORD PTR [rax]
  00849	8b 40 08	 mov	 eax, DWORD PTR [rax+8]
  0084c	83 e0 01	 and	 eax, 1
  0084f	85 c0		 test	 eax, eax
  00851	74 29		 je	 SHORT $LN34@PMC_DivRem

; 1987 :                             {
; 1988 :                                 root.DeallocateNumber(*q);

  00853	48 8b 85 c0 07
	00 00		 mov	 rax, QWORD PTR q$[rbp]
  0085a	48 8b 10	 mov	 rdx, QWORD PTR [rax]
  0085d	48 8d 8d c8 03
	00 00		 lea	 rcx, QWORD PTR root$39[rbp]
  00864	e8 00 00 00 00	 call	 ?DeallocateNumber@ResourceHolderUINT@Internal@Core@Math@Palmtree@@QEAAXPEAU__tag_NUMBER_HEADER@2345@@Z ; Palmtree::Math::Core::Internal::ResourceHolderUINT::DeallocateNumber

; 1989 :                                 *q = &number_zero;

  00869	48 8b 85 c0 07
	00 00		 mov	 rax, QWORD PTR q$[rbp]
  00870	48 8d 0d 00 00
	00 00		 lea	 rcx, OFFSET FLAT:?number_zero@Internal@Core@Math@Palmtree@@3U__tag_NUMBER_HEADER@1234@A ; Palmtree::Math::Core::Internal::number_zero
  00877	48 89 08	 mov	 QWORD PTR [rax], rcx

; 1990 :                             }
; 1991 :                             else

  0087a	eb 16		 jmp	 SHORT $LN35@PMC_DivRem
$LN34@PMC_DivRem:

; 1992 :                                 root.UnlinkNumber(*q);

  0087c	48 8b 85 c0 07
	00 00		 mov	 rax, QWORD PTR q$[rbp]
  00883	48 8b 10	 mov	 rdx, QWORD PTR [rax]
  00886	48 8d 8d c8 03
	00 00		 lea	 rcx, QWORD PTR root$39[rbp]
  0088d	e8 00 00 00 00	 call	 ?UnlinkNumber@ResourceHolderUINT@Internal@Core@Math@Palmtree@@QEAAXPEAU__tag_NUMBER_HEADER@2345@@Z ; Palmtree::Math::Core::Internal::ResourceHolderUINT::UnlinkNumber
$LN35@PMC_DivRem:

; 1993 :                             return (r_buf);

  00892	48 8b 85 28 04
	00 00		 mov	 rax, QWORD PTR r_buf$41[rbp]
  00899	48 89 85 58 07
	00 00		 mov	 QWORD PTR $T47[rbp], rax
  008a0	48 8d 8d c8 03
	00 00		 lea	 rcx, QWORD PTR root$39[rbp]
  008a7	e8 00 00 00 00	 call	 ??1ResourceHolderUINT@Internal@Core@Math@Palmtree@@UEAA@XZ ; Palmtree::Math::Core::Internal::ResourceHolderUINT::~ResourceHolderUINT
  008ac	48 8b 85 58 07
	00 00		 mov	 rax, QWORD PTR $T47[rbp]
  008b3	eb 32		 jmp	 SHORT $LN36@PMC_DivRem

; 1994 :                         }
; 1995 :                         else

  008b5	eb 30		 jmp	 SHORT $LN36@PMC_DivRem
$LN32@PMC_DivRem:

; 1996 :                         {
; 1997 :                             __UNIT_TYPE r_buf = Rem_X_1W(u->BLOCK, u->UNIT_WORD_COUNT, (__UNIT_TYPE)v);

  008b7	4c 8b 85 b8 07
	00 00		 mov	 r8, QWORD PTR v$[rbp]
  008be	48 8b 85 b0 07
	00 00		 mov	 rax, QWORD PTR u$[rbp]
  008c5	48 8b 50 18	 mov	 rdx, QWORD PTR [rax+24]
  008c9	48 8b 85 b0 07
	00 00		 mov	 rax, QWORD PTR u$[rbp]
  008d0	48 8b 48 40	 mov	 rcx, QWORD PTR [rax+64]
  008d4	e8 00 00 00 00	 call	 ?Rem_X_1W@Internal@Core@Math@Palmtree@@YA_KPEA_K_K1@Z ; Palmtree::Math::Core::Internal::Rem_X_1W
  008d9	48 89 85 48 04
	00 00		 mov	 QWORD PTR r_buf$42[rbp], rax

; 1998 :                             return (r_buf);

  008e0	48 8b 85 48 04
	00 00		 mov	 rax, QWORD PTR r_buf$42[rbp]
$LN36@PMC_DivRem:

; 1999 :                         }
; 2000 :                     }
; 2001 :                 }
; 2002 : 
; 2003 :             }
; 2004 :         }
; 2005 :     }

  008e7	48 8b f8	 mov	 rdi, rax
  008ea	48 8d 4d c0	 lea	 rcx, QWORD PTR [rbp-64]
  008ee	48 8d 15 00 00
	00 00		 lea	 rdx, OFFSET FLAT:?PMC_DivRem_X_L_Imp@Internal@Core@Math@Palmtree@@YA_KPEAU__tag_NUMBER_HEADER@1234@_KPEAPEAU51234@@Z$rtcFrameData
  008f5	e8 00 00 00 00	 call	 _RTC_CheckStackVars
  008fa	48 8b c7	 mov	 rax, rdi
  008fd	48 8d a5 98 07
	00 00		 lea	 rsp, QWORD PTR [rbp+1944]
  00904	5f		 pop	 rdi
  00905	5d		 pop	 rbp
  00906	c3		 ret	 0
$LN43@PMC_DivRem:
?PMC_DivRem_X_L_Imp@Internal@Core@Math@Palmtree@@YA_KPEAU__tag_NUMBER_HEADER@1234@_KPEAPEAU51234@@Z ENDP ; Palmtree::Math::Core::Internal::PMC_DivRem_X_L_Imp
_TEXT	ENDS
;	COMDAT text$x
text$x	SEGMENT
u_bit_count$14 = 8
v_hi$15 = 36
v_lo$16 = 68
v_bit_count$17 = 104
root$18 = 136
q_bit_count$19 = 200
r_buf$20 = 232
r_buf$21 = 264
v_bit_count$22 = 296
r_lo$23 = 328
r_hi$24 = 360
root$25 = 392
q_bit_count$26 = 456
r_bit_count$27 = 488
v_buf$28 = 520
work_v_buf$29 = 568
r_buf$30 = 616
root$31 = 648
r_bit_count$32 = 712
v_buf$33 = 744
work_v_buf$34 = 792
r_buf$35 = 840
r$36 = 872
u_bit_count$37 = 904
v_bit_count$38 = 936
root$39 = 968
q_bit_count$40 = 1032
r_buf$41 = 1064
r_buf$42 = 1096
$T43 = 1704
$T44 = 1784
$T45 = 1816
$T46 = 1848
$T47 = 1880
$T48 = 1912
tv248 = 1928
tv209 = 1928
tv178 = 1928
u$ = 1968
v$ = 1976
q$ = 1984
?dtor$0@?0??PMC_DivRem_X_L_Imp@Internal@Core@Math@Palmtree@@YA_KPEAU__tag_NUMBER_HEADER@1234@_KPEAPEAU51234@@Z@4HA PROC ; `Palmtree::Math::Core::Internal::PMC_DivRem_X_L_Imp'::`1'::dtor$0
  00000	48 89 4c 24 08	 mov	 QWORD PTR [rsp+8], rcx
