; Listing generated by Microsoft (R) Optimizing Compiler Version 19.16.27027.1 

include listing.inc

INCLUDELIB MSVCRTD
INCLUDELIB OLDNAMES

msvcjmc	SEGMENT
__7B7A869E_ctype@h DB 01H
__457DD326_basetsd@h DB 01H
__4384A2D9_corecrt_memcpy_s@h DB 01H
__2088847F_corecrt_memory@h DB 01H
__4E51A221_corecrt_wstring@h DB 01H
__2140C079_string@h DB 01H
__E9FFF232_guiddef@h DB 01H
__1887E595_winnt@h DB 01H
__9FC7C64B_processthreadsapi@h DB 01H
__FA470AEC_memoryapi@h DB 01H
__F37DAFF1_winerror@h DB 01H
__7A450CCC_winbase@h DB 01H
__12AD47BB_winuser@h DB 01H
__B4B40122_winioctl@h DB 01H
__A73354DD_stdlib@h DB 01H
__25F3FB34_propidl@h DB 01H
__A40E48B8_oleauto@h DB 01H
__86261D59_stralign@h DB 01H
__2CC6E67D_corecrt_stdio_config@h DB 01H
__41381B41_corecrt_wconio@h DB 01H
__F0CC4AC4_corecrt_wio@h DB 01H
__05476D76_corecrt_wstdio@h DB 01H
__C0802A2B_corecrt_wtime@h DB 01H
__A40A425D_stat@h DB 01H
__5A74375D_wchar@h DB 01H
__6BC0FD35_vcruntime_new@h DB 01H
__77F53984_cstddef DB 01H
__188180DA_corecrt_math@h DB 01H
__D23EE329_cstdlib DB 01H
__5ECFF36E_type_traits DB 01H
__331E732B_malloc@h DB 01H
__9BB4E194_vcruntime_exception@h DB 01H
__7949CB39_exception DB 01H
__802FEEC0_pmc_exception@h DB 01H
__BB6D3116_pmc_uint_internal@h DB 01H
__1AB12E38_pmc_resourceholder@h DB 01H
__8CA3E54E_pmc_inline_func@h DB 01H
__235E20A6_pmc_pow@cpp DB 01H
msvcjmc	ENDS
PUBLIC	??0exception@std@@QEAA@XZ			; std::exception::exception
PUBLIC	??1exception@std@@UEAA@XZ			; std::exception::~exception
PUBLIC	?what@exception@std@@UEBAPEBDXZ			; std::exception::what
PUBLIC	??_Gexception@std@@UEAAPEAXI@Z			; std::exception::`scalar deleting destructor'
PUBLIC	??0Exception@Internal@Core@Math@Palmtree@@IEAA@HPEB_W@Z ; Palmtree::Math::Core::Internal::Exception::Exception
PUBLIC	??0Exception@Internal@Core@Math@Palmtree@@IEAA@HPEB_W0@Z ; Palmtree::Math::Core::Internal::Exception::Exception
PUBLIC	??0Exception@Internal@Core@Math@Palmtree@@QEAA@AEBV01234@@Z ; Palmtree::Math::Core::Internal::Exception::Exception
PUBLIC	??1Exception@Internal@Core@Math@Palmtree@@UEAA@XZ ; Palmtree::Math::Core::Internal::Exception::~Exception
PUBLIC	??_GException@Internal@Core@Math@Palmtree@@UEAAPEAXI@Z ; Palmtree::Math::Core::Internal::Exception::`scalar deleting destructor'
PUBLIC	??0ArgumentNullException@Internal@Core@Math@Palmtree@@QEAA@PEB_W0@Z ; Palmtree::Math::Core::Internal::ArgumentNullException::ArgumentNullException
PUBLIC	??0ArgumentNullException@Internal@Core@Math@Palmtree@@QEAA@AEBV01234@@Z ; Palmtree::Math::Core::Internal::ArgumentNullException::ArgumentNullException
PUBLIC	??1ArgumentNullException@Internal@Core@Math@Palmtree@@UEAA@XZ ; Palmtree::Math::Core::Internal::ArgumentNullException::~ArgumentNullException
PUBLIC	??_GArgumentNullException@Internal@Core@Math@Palmtree@@UEAAPEAXI@Z ; Palmtree::Math::Core::Internal::ArgumentNullException::`scalar deleting destructor'
PUBLIC	??0OverflowException@Internal@Core@Math@Palmtree@@QEAA@PEB_W@Z ; Palmtree::Math::Core::Internal::OverflowException::OverflowException
PUBLIC	??0OverflowException@Internal@Core@Math@Palmtree@@QEAA@AEBV01234@@Z ; Palmtree::Math::Core::Internal::OverflowException::OverflowException
PUBLIC	??1OverflowException@Internal@Core@Math@Palmtree@@UEAA@XZ ; Palmtree::Math::Core::Internal::OverflowException::~OverflowException
PUBLIC	??_GOverflowException@Internal@Core@Math@Palmtree@@UEAAPEAXI@Z ; Palmtree::Math::Core::Internal::OverflowException::`scalar deleting destructor'
PUBLIC	??0ArithmeticException@Internal@Core@Math@Palmtree@@QEAA@PEB_W@Z ; Palmtree::Math::Core::Internal::ArithmeticException::ArithmeticException
PUBLIC	??1ArithmeticException@Internal@Core@Math@Palmtree@@UEAA@XZ ; Palmtree::Math::Core::Internal::ArithmeticException::~ArithmeticException
PUBLIC	??0ArithmeticException@Internal@Core@Math@Palmtree@@QEAA@AEBV01234@@Z ; Palmtree::Math::Core::Internal::ArithmeticException::ArithmeticException
PUBLIC	??_GArithmeticException@Internal@Core@Math@Palmtree@@UEAAPEAXI@Z ; Palmtree::Math::Core::Internal::ArithmeticException::`scalar deleting destructor'
PUBLIC	??0InternalErrorException@Internal@Core@Math@Palmtree@@QEAA@PEB_W0@Z ; Palmtree::Math::Core::Internal::InternalErrorException::InternalErrorException
PUBLIC	??0InternalErrorException@Internal@Core@Math@Palmtree@@QEAA@AEBV01234@@Z ; Palmtree::Math::Core::Internal::InternalErrorException::InternalErrorException
PUBLIC	??1InternalErrorException@Internal@Core@Math@Palmtree@@UEAA@XZ ; Palmtree::Math::Core::Internal::InternalErrorException::~InternalErrorException
PUBLIC	??_GInternalErrorException@Internal@Core@Math@Palmtree@@UEAAPEAXI@Z ; Palmtree::Math::Core::Internal::InternalErrorException::`scalar deleting destructor'
PUBLIC	?PMC_Pow_X_I_Imp@Internal@Core@Math@Palmtree@@YAPEAU__tag_NUMBER_HEADER@1234@PEAU51234@I@Z ; Palmtree::Math::Core::Internal::PMC_Pow_X_I_Imp
PUBLIC	?PMC_Pow_X_L_Imp@Internal@Core@Math@Palmtree@@YAPEAU__tag_NUMBER_HEADER@1234@PEAU51234@_K@Z ; Palmtree::Math::Core::Internal::PMC_Pow_X_L_Imp
PUBLIC	?Initialize_Pow@Internal@Core@Math@Palmtree@@YAHPEAU_tag_PROCESSOR_FEATURES@1234@@Z ; Palmtree::Math::Core::Internal::Initialize_Pow
PUBLIC	?PMC_Pow_X_I@Internal@Core@Math@Palmtree@@YAPEAU__tag_PMC_HANDLE_UINT@1234@PEAU51234@I@Z ; Palmtree::Math::Core::Internal::PMC_Pow_X_I
PUBLIC	?PMC_Pow_X_L@Internal@Core@Math@Palmtree@@YAPEAU__tag_PMC_HANDLE_UINT@1234@PEAU51234@_K@Z ; Palmtree::Math::Core::Internal::PMC_Pow_X_L
PUBLIC	__JustMyCode_Default
PUBLIC	??_7exception@std@@6B@				; std::exception::`vftable'
PUBLIC	??_C@_0BC@EOODALEL@Unknown?5exception@		; `string'
PUBLIC	??_7Exception@Internal@Core@Math@Palmtree@@6B@	; Palmtree::Math::Core::Internal::Exception::`vftable'
PUBLIC	??_7ArgumentNullException@Internal@Core@Math@Palmtree@@6B@ ; Palmtree::Math::Core::Internal::ArgumentNullException::`vftable'
PUBLIC	??_7OverflowException@Internal@Core@Math@Palmtree@@6B@ ; Palmtree::Math::Core::Internal::OverflowException::`vftable'
PUBLIC	??_7ArithmeticException@Internal@Core@Math@Palmtree@@6B@ ; Palmtree::Math::Core::Internal::ArithmeticException::`vftable'
PUBLIC	??_7InternalErrorException@Internal@Core@Math@Palmtree@@6B@ ; Palmtree::Math::Core::Internal::InternalErrorException::`vftable'
PUBLIC	_TI2?AVInternalErrorException@Internal@Core@Math@Palmtree@@
PUBLIC	_CTA2?AVInternalErrorException@Internal@Core@Math@Palmtree@@
PUBLIC	??_R0?AVInternalErrorException@Internal@Core@Math@Palmtree@@@8 ; Palmtree::Math::Core::Internal::InternalErrorException `RTTI Type Descriptor'
PUBLIC	_CT??_R0?AVInternalErrorException@Internal@Core@Math@Palmtree@@@8??0InternalErrorException@Internal@Core@Math@Palmtree@@QEAA@AEBV01234@@Z48
PUBLIC	??_R0?AVException@Internal@Core@Math@Palmtree@@@8 ; Palmtree::Math::Core::Internal::Exception `RTTI Type Descriptor'
PUBLIC	_CT??_R0?AVException@Internal@Core@Math@Palmtree@@@8??0Exception@Internal@Core@Math@Palmtree@@QEAA@AEBV01234@@Z48
PUBLIC	??_C@_1CG@CNOPPENL@?$PP?$II?$AA?$BP?$AAW?$AAf?$AAD?$AAj?$AAD?$PP?$LD?$PP?$PM?$PP?I?$AAk?$AA0?$AAT?$AAW?$AA?$HO@ ; `string'
PUBLIC	_TI2?AVArithmeticException@Internal@Core@Math@Palmtree@@
PUBLIC	_CTA2?AVArithmeticException@Internal@Core@Math@Palmtree@@
PUBLIC	??_R0?AVArithmeticException@Internal@Core@Math@Palmtree@@@8 ; Palmtree::Math::Core::Internal::ArithmeticException `RTTI Type Descriptor'
PUBLIC	_CT??_R0?AVArithmeticException@Internal@Core@Math@Palmtree@@@8??0ArithmeticException@Internal@Core@Math@Palmtree@@QEAA@AEBV01234@@Z48
PUBLIC	??_C@_1BM@OCOOKOCJ@?$AA0?$AAn?$AA0?$AAW?$AAn?$AA$?$AAo?$AA?$CK?$PP?$JK?$PP?$KJ?$AAg?$AAY?$AA?$AC@ ; `string'
PUBLIC	_TI2?AVOverflowException@Internal@Core@Math@Palmtree@@
PUBLIC	_CTA2?AVOverflowException@Internal@Core@Math@Palmtree@@
PUBLIC	??_R0?AVOverflowException@Internal@Core@Math@Palmtree@@@8 ; Palmtree::Math::Core::Internal::OverflowException `RTTI Type Descriptor'
PUBLIC	_CT??_R0?AVOverflowException@Internal@Core@Math@Palmtree@@@8??0OverflowException@Internal@Core@Math@Palmtree@@QEAA@AEBV01234@@Z48
PUBLIC	??_C@_1CM@JEKMNCAI@?$PP?$KK?$PP?$PM?$PP?P?$PP?$PM?$PP?U?$PP?m?$PP?$PM?$AAk?$PP?$II?$PP?$IK?$AA?$AI?$PP?$JH?$PP?$JC?$PP?$JK?$AAL@ ; `string'
PUBLIC	??_C@_1DE@MHCFCIPE@?$AAp?$AAm?$AAc?$AA_?$AAp?$AAo?$AAw?$AA?4?$AAc?$AAp?$AAp?$AA?$DL?$AAP?$AAM?$AAC@ ; `string'
PUBLIC	_TI2?AVArgumentNullException@Internal@Core@Math@Palmtree@@
PUBLIC	_CTA2?AVArgumentNullException@Internal@Core@Math@Palmtree@@
PUBLIC	??_R0?AVArgumentNullException@Internal@Core@Math@Palmtree@@@8 ; Palmtree::Math::Core::Internal::ArgumentNullException `RTTI Type Descriptor'
PUBLIC	_CT??_R0?AVArgumentNullException@Internal@Core@Math@Palmtree@@@8??0ArgumentNullException@Internal@Core@Math@Palmtree@@QEAA@AEBV01234@@Z48
PUBLIC	??_C@_13JAOPNPKD@?$AAv@				; `string'
PUBLIC	??_C@_1CK@ECFIEPAC@?$AA?$BF?$AAp?$AAk?$AAn?$AAu?$AAl?$AAl?$AAp?$AAt?$AAr?$AAL?$AA?$AO?$AAH?$PP?$IJ?$PP?$IM@ ; `string'
PUBLIC	??_R4exception@std@@6B@				; std::exception::`RTTI Complete Object Locator'
PUBLIC	??_R0?AVexception@std@@@8			; std::exception `RTTI Type Descriptor'
PUBLIC	??_R3exception@std@@8				; std::exception::`RTTI Class Hierarchy Descriptor'
PUBLIC	??_R2exception@std@@8				; std::exception::`RTTI Base Class Array'
PUBLIC	??_R1A@?0A@EA@exception@std@@8			; std::exception::`RTTI Base Class Descriptor at (0,-1,0,64)'
PUBLIC	??_R4Exception@Internal@Core@Math@Palmtree@@6B@	; Palmtree::Math::Core::Internal::Exception::`RTTI Complete Object Locator'
PUBLIC	??_R3Exception@Internal@Core@Math@Palmtree@@8	; Palmtree::Math::Core::Internal::Exception::`RTTI Class Hierarchy Descriptor'
PUBLIC	??_R2Exception@Internal@Core@Math@Palmtree@@8	; Palmtree::Math::Core::Internal::Exception::`RTTI Base Class Array'
PUBLIC	??_R1A@?0A@EA@Exception@Internal@Core@Math@Palmtree@@8 ; Palmtree::Math::Core::Internal::Exception::`RTTI Base Class Descriptor at (0,-1,0,64)'
PUBLIC	??_R1A@?0A@EN@exception@std@@8			; std::exception::`RTTI Base Class Descriptor at (0,-1,0,77)'
PUBLIC	??_R4ArgumentNullException@Internal@Core@Math@Palmtree@@6B@ ; Palmtree::Math::Core::Internal::ArgumentNullException::`RTTI Complete Object Locator'
PUBLIC	??_R3ArgumentNullException@Internal@Core@Math@Palmtree@@8 ; Palmtree::Math::Core::Internal::ArgumentNullException::`RTTI Class Hierarchy Descriptor'
PUBLIC	??_R2ArgumentNullException@Internal@Core@Math@Palmtree@@8 ; Palmtree::Math::Core::Internal::ArgumentNullException::`RTTI Base Class Array'
PUBLIC	??_R1A@?0A@EA@ArgumentNullException@Internal@Core@Math@Palmtree@@8 ; Palmtree::Math::Core::Internal::ArgumentNullException::`RTTI Base Class Descriptor at (0,-1,0,64)'
PUBLIC	??_R4OverflowException@Internal@Core@Math@Palmtree@@6B@ ; Palmtree::Math::Core::Internal::OverflowException::`RTTI Complete Object Locator'
PUBLIC	??_R3OverflowException@Internal@Core@Math@Palmtree@@8 ; Palmtree::Math::Core::Internal::OverflowException::`RTTI Class Hierarchy Descriptor'
PUBLIC	??_R2OverflowException@Internal@Core@Math@Palmtree@@8 ; Palmtree::Math::Core::Internal::OverflowException::`RTTI Base Class Array'
PUBLIC	??_R1A@?0A@EA@OverflowException@Internal@Core@Math@Palmtree@@8 ; Palmtree::Math::Core::Internal::OverflowException::`RTTI Base Class Descriptor at (0,-1,0,64)'
PUBLIC	??_R4ArithmeticException@Internal@Core@Math@Palmtree@@6B@ ; Palmtree::Math::Core::Internal::ArithmeticException::`RTTI Complete Object Locator'
PUBLIC	??_R3ArithmeticException@Internal@Core@Math@Palmtree@@8 ; Palmtree::Math::Core::Internal::ArithmeticException::`RTTI Class Hierarchy Descriptor'
PUBLIC	??_R2ArithmeticException@Internal@Core@Math@Palmtree@@8 ; Palmtree::Math::Core::Internal::ArithmeticException::`RTTI Base Class Array'
PUBLIC	??_R1A@?0A@EA@ArithmeticException@Internal@Core@Math@Palmtree@@8 ; Palmtree::Math::Core::Internal::ArithmeticException::`RTTI Base Class Descriptor at (0,-1,0,64)'
PUBLIC	??_R4InternalErrorException@Internal@Core@Math@Palmtree@@6B@ ; Palmtree::Math::Core::Internal::InternalErrorException::`RTTI Complete Object Locator'
PUBLIC	??_R3InternalErrorException@Internal@Core@Math@Palmtree@@8 ; Palmtree::Math::Core::Internal::InternalErrorException::`RTTI Class Hierarchy Descriptor'
PUBLIC	??_R2InternalErrorException@Internal@Core@Math@Palmtree@@8 ; Palmtree::Math::Core::Internal::InternalErrorException::`RTTI Base Class Array'
PUBLIC	??_R1A@?0A@EA@InternalErrorException@Internal@Core@Math@Palmtree@@8 ; Palmtree::Math::Core::Internal::InternalErrorException::`RTTI Base Class Descriptor at (0,-1,0,64)'
EXTRN	??3@YAXPEAX_K@Z:PROC				; operator delete
EXTRN	__std_exception_destroy:PROC
EXTRN	??_Eexception@std@@UEAAPEAXI@Z:PROC		; std::exception::`vector deleting destructor'
EXTRN	??_EException@Internal@Core@Math@Palmtree@@UEAAPEAXI@Z:PROC ; Palmtree::Math::Core::Internal::Exception::`vector deleting destructor'
EXTRN	??_EArgumentNullException@Internal@Core@Math@Palmtree@@UEAAPEAXI@Z:PROC ; Palmtree::Math::Core::Internal::ArgumentNullException::`vector deleting destructor'
EXTRN	??_EOverflowException@Internal@Core@Math@Palmtree@@UEAAPEAXI@Z:PROC ; Palmtree::Math::Core::Internal::OverflowException::`vector deleting destructor'
EXTRN	??_EArithmeticException@Internal@Core@Math@Palmtree@@UEAAPEAXI@Z:PROC ; Palmtree::Math::Core::Internal::ArithmeticException::`vector deleting destructor'
EXTRN	??_EInternalErrorException@Internal@Core@Math@Palmtree@@UEAAPEAXI@Z:PROC ; Palmtree::Math::Core::Internal::InternalErrorException::`vector deleting destructor'
EXTRN	?CommitNumber@Internal@Core@Math@Palmtree@@YAXPEAU__tag_NUMBER_HEADER@1234@@Z:PROC ; Palmtree::Math::Core::Internal::CommitNumber
EXTRN	?CheckNumber@Internal@Core@Math@Palmtree@@YAXPEAU__tag_NUMBER_HEADER@1234@@Z:PROC ; Palmtree::Math::Core::Internal::CheckNumber
EXTRN	?DuplicateNumber@Internal@Core@Math@Palmtree@@YAPEAU__tag_NUMBER_HEADER@1234@PEAU51234@@Z:PROC ; Palmtree::Math::Core::Internal::DuplicateNumber
EXTRN	?Multiply_X_X_Imp@Internal@Core@Math@Palmtree@@YAXPEA_K_K010@Z:PROC ; Palmtree::Math::Core::Internal::Multiply_X_X_Imp
EXTRN	??0ResourceHolderUINT@Internal@Core@Math@Palmtree@@QEAA@XZ:PROC ; Palmtree::Math::Core::Internal::ResourceHolderUINT::ResourceHolderUINT
EXTRN	??1ResourceHolderUINT@Internal@Core@Math@Palmtree@@UEAA@XZ:PROC ; Palmtree::Math::Core::Internal::ResourceHolderUINT::~ResourceHolderUINT
EXTRN	?AllocateBlock@ResourceHolderUINT@Internal@Core@Math@Palmtree@@QEAAPEA_K_K@Z:PROC ; Palmtree::Math::Core::Internal::ResourceHolderUINT::AllocateBlock
EXTRN	?CheckBlock@ResourceHolderUINT@Internal@Core@Math@Palmtree@@QEAAXPEA_K@Z:PROC ; Palmtree::Math::Core::Internal::ResourceHolderUINT::CheckBlock
EXTRN	?AllocateNumber@ResourceHolderUINT@Internal@Core@Math@Palmtree@@QEAAPEAU__tag_NUMBER_HEADER@2345@_K@Z:PROC ; Palmtree::Math::Core::Internal::ResourceHolderUINT::AllocateNumber
EXTRN	?HookNumber@ResourceHolderUINT@Internal@Core@Math@Palmtree@@QEAAXPEAU__tag_NUMBER_HEADER@2345@@Z:PROC ; Palmtree::Math::Core::Internal::ResourceHolderUINT::HookNumber
EXTRN	?CheckNumber@ResourceHolderUINT@Internal@Core@Math@Palmtree@@QEAAXPEAU__tag_NUMBER_HEADER@2345@@Z:PROC ; Palmtree::Math::Core::Internal::ResourceHolderUINT::CheckNumber
EXTRN	?UnlinkNumber@ResourceHolderUINT@Internal@Core@Math@Palmtree@@QEAAXPEAU__tag_NUMBER_HEADER@2345@@Z:PROC ; Palmtree::Math::Core::Internal::ResourceHolderUINT::UnlinkNumber
EXTRN	_CxxThrowException:PROC
EXTRN	_RTC_CheckStackVars:PROC
EXTRN	_RTC_InitBase:PROC
EXTRN	_RTC_Shutdown:PROC
EXTRN	__CheckForDebuggerJustMyCode:PROC
EXTRN	__CxxFrameHandler3:PROC
EXTRN	?number_zero@Internal@Core@Math@Palmtree@@3U__tag_NUMBER_HEADER@1234@A:BYTE ; Palmtree::Math::Core::Internal::number_zero
EXTRN	?number_one@Internal@Core@Math@Palmtree@@3U__tag_NUMBER_HEADER@1234@A:BYTE ; Palmtree::Math::Core::Internal::number_one
EXTRN	??_7type_info@@6B@:BYTE				; type_info::`vftable'
;	COMDAT pdata
pdata	SEGMENT
$pdata$??0exception@std@@QEAA@XZ DD imagerel $LN3
	DD	imagerel $LN3+123
	DD	imagerel $unwind$??0exception@std@@QEAA@XZ
pdata	ENDS
;	COMDAT pdata
pdata	SEGMENT
$pdata$??1exception@std@@UEAA@XZ DD imagerel $LN3
	DD	imagerel $LN3+113
	DD	imagerel $unwind$??1exception@std@@UEAA@XZ
pdata	ENDS
;	COMDAT pdata
pdata	SEGMENT
$pdata$?what@exception@std@@UEBAPEBDXZ DD imagerel $LN5
	DD	imagerel $LN5+119
	DD	imagerel $unwind$?what@exception@std@@UEBAPEBDXZ
pdata	ENDS
;	COMDAT pdata
pdata	SEGMENT
$pdata$??_Gexception@std@@UEAAPEAXI@Z DD imagerel $LN4
	DD	imagerel $LN4+105
	DD	imagerel $unwind$??_Gexception@std@@UEAAPEAXI@Z
pdata	ENDS
;	COMDAT pdata
pdata	SEGMENT
$pdata$??0Exception@Internal@Core@Math@Palmtree@@IEAA@HPEB_W@Z DD imagerel $LN4
	DD	imagerel $LN4+171
	DD	imagerel $unwind$??0Exception@Internal@Core@Math@Palmtree@@IEAA@HPEB_W@Z
pdata	ENDS
;	COMDAT pdata
pdata	SEGMENT
$pdata$?dtor$0@?0???0Exception@Internal@Core@Math@Palmtree@@IEAA@HPEB_W@Z@4HA DD imagerel ?dtor$0@?0???0Exception@Internal@Core@Math@Palmtree@@IEAA@HPEB_W@Z@4HA
	DD	imagerel ?dtor$0@?0???0Exception@Internal@Core@Math@Palmtree@@IEAA@HPEB_W@Z@4HA+39
	DD	imagerel $unwind$?dtor$0@?0???0Exception@Internal@Core@Math@Palmtree@@IEAA@HPEB_W@Z@4HA
pdata	ENDS
;	COMDAT pdata
pdata	SEGMENT
$pdata$??0Exception@Internal@Core@Math@Palmtree@@IEAA@HPEB_W0@Z DD imagerel $LN4
	DD	imagerel $LN4+179
	DD	imagerel $unwind$??0Exception@Internal@Core@Math@Palmtree@@IEAA@HPEB_W0@Z
pdata	ENDS
;	COMDAT pdata
pdata	SEGMENT
$pdata$?dtor$0@?0???0Exception@Internal@Core@Math@Palmtree@@IEAA@HPEB_W0@Z@4HA DD imagerel ?dtor$0@?0???0Exception@Internal@Core@Math@Palmtree@@IEAA@HPEB_W0@Z@4HA
	DD	imagerel ?dtor$0@?0???0Exception@Internal@Core@Math@Palmtree@@IEAA@HPEB_W0@Z@4HA+39
	DD	imagerel $unwind$?dtor$0@?0???0Exception@Internal@Core@Math@Palmtree@@IEAA@HPEB_W0@Z@4HA
pdata	ENDS
;	COMDAT pdata
pdata	SEGMENT
$pdata$??0Exception@Internal@Core@Math@Palmtree@@QEAA@AEBV01234@@Z DD imagerel $LN4
	DD	imagerel $LN4+182
	DD	imagerel $unwind$??0Exception@Internal@Core@Math@Palmtree@@QEAA@AEBV01234@@Z
pdata	ENDS
;	COMDAT pdata
pdata	SEGMENT
$pdata$?dtor$0@?0???0Exception@Internal@Core@Math@Palmtree@@QEAA@AEBV01234@@Z@4HA DD imagerel ?dtor$0@?0???0Exception@Internal@Core@Math@Palmtree@@QEAA@AEBV01234@@Z@4HA
	DD	imagerel ?dtor$0@?0???0Exception@Internal@Core@Math@Palmtree@@QEAA@AEBV01234@@Z@4HA+39
	DD	imagerel $unwind$?dtor$0@?0???0Exception@Internal@Core@Math@Palmtree@@QEAA@AEBV01234@@Z@4HA
pdata	ENDS
;	COMDAT pdata
pdata	SEGMENT
$pdata$??1Exception@Internal@Core@Math@Palmtree@@UEAA@XZ DD imagerel $LN4
	DD	imagerel $LN4+106
	DD	imagerel $unwind$??1Exception@Internal@Core@Math@Palmtree@@UEAA@XZ
pdata	ENDS
;	COMDAT pdata
pdata	SEGMENT
$pdata$?dtor$0@?0???1Exception@Internal@Core@Math@Palmtree@@UEAA@XZ@4HA DD imagerel ?dtor$0@?0???1Exception@Internal@Core@Math@Palmtree@@UEAA@XZ@4HA
	DD	imagerel ?dtor$0@?0???1Exception@Internal@Core@Math@Palmtree@@UEAA@XZ@4HA+39
	DD	imagerel $unwind$?dtor$0@?0???1Exception@Internal@Core@Math@Palmtree@@UEAA@XZ@4HA
pdata	ENDS
;	COMDAT pdata
pdata	SEGMENT
$pdata$??_GException@Internal@Core@Math@Palmtree@@UEAAPEAXI@Z DD imagerel $LN4
	DD	imagerel $LN4+105
	DD	imagerel $unwind$??_GException@Internal@Core@Math@Palmtree@@UEAAPEAXI@Z
pdata	ENDS
;	COMDAT pdata
pdata	SEGMENT
$pdata$??0ArgumentNullException@Internal@Core@Math@Palmtree@@QEAA@PEB_W0@Z DD imagerel $LN4
	DD	imagerel $LN4+142
	DD	imagerel $unwind$??0ArgumentNullException@Internal@Core@Math@Palmtree@@QEAA@PEB_W0@Z
pdata	ENDS
;	COMDAT pdata
pdata	SEGMENT
$pdata$?dtor$0@?0???0ArgumentNullException@Internal@Core@Math@Palmtree@@QEAA@PEB_W0@Z@4HA DD imagerel ?dtor$0@?0???0ArgumentNullException@Internal@Core@Math@Palmtree@@QEAA@PEB_W0@Z@4HA
	DD	imagerel ?dtor$0@?0???0ArgumentNullException@Internal@Core@Math@Palmtree@@QEAA@PEB_W0@Z@4HA+39
	DD	imagerel $unwind$?dtor$0@?0???0ArgumentNullException@Internal@Core@Math@Palmtree@@QEAA@PEB_W0@Z@4HA
pdata	ENDS
;	COMDAT pdata
pdata	SEGMENT
$pdata$??0ArgumentNullException@Internal@Core@Math@Palmtree@@QEAA@AEBV01234@@Z DD imagerel $LN4
	DD	imagerel $LN4+125
	DD	imagerel $unwind$??0ArgumentNullException@Internal@Core@Math@Palmtree@@QEAA@AEBV01234@@Z
pdata	ENDS
;	COMDAT pdata
pdata	SEGMENT
$pdata$?dtor$0@?0???0ArgumentNullException@Internal@Core@Math@Palmtree@@QEAA@AEBV01234@@Z@4HA DD imagerel ?dtor$0@?0???0ArgumentNullException@Internal@Core@Math@Palmtree@@QEAA@AEBV01234@@Z@4HA
	DD	imagerel ?dtor$0@?0???0ArgumentNullException@Internal@Core@Math@Palmtree@@QEAA@AEBV01234@@Z@4HA+39
	DD	imagerel $unwind$?dtor$0@?0???0ArgumentNullException@Internal@Core@Math@Palmtree@@QEAA@AEBV01234@@Z@4HA
pdata	ENDS
;	COMDAT pdata
pdata	SEGMENT
$pdata$??1ArgumentNullException@Internal@Core@Math@Palmtree@@UEAA@XZ DD imagerel $LN4
	DD	imagerel $LN4+106
	DD	imagerel $unwind$??1ArgumentNullException@Internal@Core@Math@Palmtree@@UEAA@XZ
pdata	ENDS
;	COMDAT pdata
pdata	SEGMENT
$pdata$?dtor$0@?0???1ArgumentNullException@Internal@Core@Math@Palmtree@@UEAA@XZ@4HA DD imagerel ?dtor$0@?0???1ArgumentNullException@Internal@Core@Math@Palmtree@@UEAA@XZ@4HA
	DD	imagerel ?dtor$0@?0???1ArgumentNullException@Internal@Core@Math@Palmtree@@UEAA@XZ@4HA+39
	DD	imagerel $unwind$?dtor$0@?0???1ArgumentNullException@Internal@Core@Math@Palmtree@@UEAA@XZ@4HA
pdata	ENDS
;	COMDAT pdata
pdata	SEGMENT
$pdata$??_GArgumentNullException@Internal@Core@Math@Palmtree@@UEAAPEAXI@Z DD imagerel $LN4
	DD	imagerel $LN4+105
	DD	imagerel $unwind$??_GArgumentNullException@Internal@Core@Math@Palmtree@@UEAAPEAXI@Z
pdata	ENDS
;	COMDAT pdata
pdata	SEGMENT
$pdata$??0OverflowException@Internal@Core@Math@Palmtree@@QEAA@PEB_W@Z DD imagerel $LN4
	DD	imagerel $LN4+130
	DD	imagerel $unwind$??0OverflowException@Internal@Core@Math@Palmtree@@QEAA@PEB_W@Z
pdata	ENDS
;	COMDAT pdata
pdata	SEGMENT
$pdata$?dtor$0@?0???0OverflowException@Internal@Core@Math@Palmtree@@QEAA@PEB_W@Z@4HA DD imagerel ?dtor$0@?0???0OverflowException@Internal@Core@Math@Palmtree@@QEAA@PEB_W@Z@4HA
	DD	imagerel ?dtor$0@?0???0OverflowException@Internal@Core@Math@Palmtree@@QEAA@PEB_W@Z@4HA+39
	DD	imagerel $unwind$?dtor$0@?0???0OverflowException@Internal@Core@Math@Palmtree@@QEAA@PEB_W@Z@4HA
pdata	ENDS
;	COMDAT pdata
pdata	SEGMENT
$pdata$??0OverflowException@Internal@Core@Math@Palmtree@@QEAA@AEBV01234@@Z DD imagerel $LN4
	DD	imagerel $LN4+125
	DD	imagerel $unwind$??0OverflowException@Internal@Core@Math@Palmtree@@QEAA@AEBV01234@@Z
pdata	ENDS
;	COMDAT pdata
pdata	SEGMENT
$pdata$?dtor$0@?0???0OverflowException@Internal@Core@Math@Palmtree@@QEAA@AEBV01234@@Z@4HA DD imagerel ?dtor$0@?0???0OverflowException@Internal@Core@Math@Palmtree@@QEAA@AEBV01234@@Z@4HA
	DD	imagerel ?dtor$0@?0???0OverflowException@Internal@Core@Math@Palmtree@@QEAA@AEBV01234@@Z@4HA+39
	DD	imagerel $unwind$?dtor$0@?0???0OverflowException@Internal@Core@Math@Palmtree@@QEAA@AEBV01234@@Z@4HA
pdata	ENDS
;	COMDAT pdata
pdata	SEGMENT
$pdata$??1OverflowException@Internal@Core@Math@Palmtree@@UEAA@XZ DD imagerel $LN4
	DD	imagerel $LN4+106
	DD	imagerel $unwind$??1OverflowException@Internal@Core@Math@Palmtree@@UEAA@XZ
pdata	ENDS
;	COMDAT pdata
pdata	SEGMENT
$pdata$?dtor$0@?0???1OverflowException@Internal@Core@Math@Palmtree@@UEAA@XZ@4HA DD imagerel ?dtor$0@?0???1OverflowException@Internal@Core@Math@Palmtree@@UEAA@XZ@4HA
	DD	imagerel ?dtor$0@?0???1OverflowException@Internal@Core@Math@Palmtree@@UEAA@XZ@4HA+39
	DD	imagerel $unwind$?dtor$0@?0???1OverflowException@Internal@Core@Math@Palmtree@@UEAA@XZ@4HA
pdata	ENDS
;	COMDAT pdata
pdata	SEGMENT
$pdata$??_GOverflowException@Internal@Core@Math@Palmtree@@UEAAPEAXI@Z DD imagerel $LN4
	DD	imagerel $LN4+105
	DD	imagerel $unwind$??_GOverflowException@Internal@Core@Math@Palmtree@@UEAAPEAXI@Z
pdata	ENDS
;	COMDAT pdata
pdata	SEGMENT
$pdata$??0ArithmeticException@Internal@Core@Math@Palmtree@@QEAA@PEB_W@Z DD imagerel $LN4
	DD	imagerel $LN4+130
	DD	imagerel $unwind$??0ArithmeticException@Internal@Core@Math@Palmtree@@QEAA@PEB_W@Z
pdata	ENDS
;	COMDAT pdata
pdata	SEGMENT
$pdata$?dtor$0@?0???0ArithmeticException@Internal@Core@Math@Palmtree@@QEAA@PEB_W@Z@4HA DD imagerel ?dtor$0@?0???0ArithmeticException@Internal@Core@Math@Palmtree@@QEAA@PEB_W@Z@4HA
	DD	imagerel ?dtor$0@?0???0ArithmeticException@Internal@Core@Math@Palmtree@@QEAA@PEB_W@Z@4HA+39
	DD	imagerel $unwind$?dtor$0@?0???0ArithmeticException@Internal@Core@Math@Palmtree@@QEAA@PEB_W@Z@4HA
pdata	ENDS
;	COMDAT pdata
pdata	SEGMENT
$pdata$??1ArithmeticException@Internal@Core@Math@Palmtree@@UEAA@XZ DD imagerel $LN4
	DD	imagerel $LN4+106
	DD	imagerel $unwind$??1ArithmeticException@Internal@Core@Math@Palmtree@@UEAA@XZ
pdata	ENDS
;	COMDAT pdata
pdata	SEGMENT
$pdata$?dtor$0@?0???1ArithmeticException@Internal@Core@Math@Palmtree@@UEAA@XZ@4HA DD imagerel ?dtor$0@?0???1ArithmeticException@Internal@Core@Math@Palmtree@@UEAA@XZ@4HA
	DD	imagerel ?dtor$0@?0???1ArithmeticException@Internal@Core@Math@Palmtree@@UEAA@XZ@4HA+39
	DD	imagerel $unwind$?dtor$0@?0???1ArithmeticException@Internal@Core@Math@Palmtree@@UEAA@XZ@4HA
pdata	ENDS
;	COMDAT pdata
pdata	SEGMENT
$pdata$??0ArithmeticException@Internal@Core@Math@Palmtree@@QEAA@AEBV01234@@Z DD imagerel $LN4
	DD	imagerel $LN4+112
	DD	imagerel $unwind$??0ArithmeticException@Internal@Core@Math@Palmtree@@QEAA@AEBV01234@@Z
pdata	ENDS
;	COMDAT pdata
pdata	SEGMENT
$pdata$?dtor$0@?0???0ArithmeticException@Internal@Core@Math@Palmtree@@QEAA@AEBV01234@@Z@4HA DD imagerel ?dtor$0@?0???0ArithmeticException@Internal@Core@Math@Palmtree@@QEAA@AEBV01234@@Z@4HA
	DD	imagerel ?dtor$0@?0???0ArithmeticException@Internal@Core@Math@Palmtree@@QEAA@AEBV01234@@Z@4HA+39
	DD	imagerel $unwind$?dtor$0@?0???0ArithmeticException@Internal@Core@Math@Palmtree@@QEAA@AEBV01234@@Z@4HA
pdata	ENDS
;	COMDAT pdata
pdata	SEGMENT
$pdata$??_GArithmeticException@Internal@Core@Math@Palmtree@@UEAAPEAXI@Z DD imagerel $LN4
	DD	imagerel $LN4+105
	DD	imagerel $unwind$??_GArithmeticException@Internal@Core@Math@Palmtree@@UEAAPEAXI@Z
pdata	ENDS
;	COMDAT pdata
pdata	SEGMENT
$pdata$??0InternalErrorException@Internal@Core@Math@Palmtree@@QEAA@PEB_W0@Z DD imagerel $LN4
	DD	imagerel $LN4+142
	DD	imagerel $unwind$??0InternalErrorException@Internal@Core@Math@Palmtree@@QEAA@PEB_W0@Z
pdata	ENDS
;	COMDAT pdata
pdata	SEGMENT
$pdata$?dtor$0@?0???0InternalErrorException@Internal@Core@Math@Palmtree@@QEAA@PEB_W0@Z@4HA DD imagerel ?dtor$0@?0???0InternalErrorException@Internal@Core@Math@Palmtree@@QEAA@PEB_W0@Z@4HA
	DD	imagerel ?dtor$0@?0???0InternalErrorException@Internal@Core@Math@Palmtree@@QEAA@PEB_W0@Z@4HA+39
	DD	imagerel $unwind$?dtor$0@?0???0InternalErrorException@Internal@Core@Math@Palmtree@@QEAA@PEB_W0@Z@4HA
pdata	ENDS
;	COMDAT pdata
pdata	SEGMENT
$pdata$??0InternalErrorException@Internal@Core@Math@Palmtree@@QEAA@AEBV01234@@Z DD imagerel $LN4
	DD	imagerel $LN4+125
	DD	imagerel $unwind$??0InternalErrorException@Internal@Core@Math@Palmtree@@QEAA@AEBV01234@@Z
pdata	ENDS
;	COMDAT pdata
pdata	SEGMENT
$pdata$?dtor$0@?0???0InternalErrorException@Internal@Core@Math@Palmtree@@QEAA@AEBV01234@@Z@4HA DD imagerel ?dtor$0@?0???0InternalErrorException@Internal@Core@Math@Palmtree@@QEAA@AEBV01234@@Z@4HA
	DD	imagerel ?dtor$0@?0???0InternalErrorException@Internal@Core@Math@Palmtree@@QEAA@AEBV01234@@Z@4HA+39
	DD	imagerel $unwind$?dtor$0@?0???0InternalErrorException@Internal@Core@Math@Palmtree@@QEAA@AEBV01234@@Z@4HA
pdata	ENDS
;	COMDAT pdata
pdata	SEGMENT
$pdata$??1InternalErrorException@Internal@Core@Math@Palmtree@@UEAA@XZ DD imagerel $LN4
	DD	imagerel $LN4+106
	DD	imagerel $unwind$??1InternalErrorException@Internal@Core@Math@Palmtree@@UEAA@XZ
pdata	ENDS
;	COMDAT pdata
pdata	SEGMENT
$pdata$?dtor$0@?0???1InternalErrorException@Internal@Core@Math@Palmtree@@UEAA@XZ@4HA DD imagerel ?dtor$0@?0???1InternalErrorException@Internal@Core@Math@Palmtree@@UEAA@XZ@4HA
	DD	imagerel ?dtor$0@?0???1InternalErrorException@Internal@Core@Math@Palmtree@@UEAA@XZ@4HA+39
	DD	imagerel $unwind$?dtor$0@?0???1InternalErrorException@Internal@Core@Math@Palmtree@@UEAA@XZ@4HA
pdata	ENDS
;	COMDAT pdata
pdata	SEGMENT
$pdata$??_GInternalErrorException@Internal@Core@Math@Palmtree@@UEAAPEAXI@Z DD imagerel $LN4
	DD	imagerel $LN4+105
	DD	imagerel $unwind$??_GInternalErrorException@Internal@Core@Math@Palmtree@@UEAAPEAXI@Z
pdata	ENDS
;	COMDAT pdata
pdata	SEGMENT
$pdata$?PMC_Pow_X_I_Imp@Internal@Core@Math@Palmtree@@YAPEAU__tag_NUMBER_HEADER@1234@PEAU51234@I@Z DD imagerel $LN16
	DD	imagerel $LN16+639
	DD	imagerel $unwind$?PMC_Pow_X_I_Imp@Internal@Core@Math@Palmtree@@YAPEAU__tag_NUMBER_HEADER@1234@PEAU51234@I@Z
pdata	ENDS
;	COMDAT pdata
pdata	SEGMENT
$pdata$?dtor$0@?0??PMC_Pow_X_I_Imp@Internal@Core@Math@Palmtree@@YAPEAU__tag_NUMBER_HEADER@1234@PEAU51234@I@Z@4HA DD imagerel ?dtor$0@?0??PMC_Pow_X_I_Imp@Internal@Core@Math@Palmtree@@YAPEAU__tag_NUMBER_HEADER@1234@PEAU51234@I@Z@4HA
	DD	imagerel ?dtor$0@?0??PMC_Pow_X_I_Imp@Internal@Core@Math@Palmtree@@YAPEAU__tag_NUMBER_HEADER@1234@PEAU51234@I@Z@4HA+36
	DD	imagerel $unwind$?dtor$0@?0??PMC_Pow_X_I_Imp@Internal@Core@Math@Palmtree@@YAPEAU__tag_NUMBER_HEADER@1234@PEAU51234@I@Z@4HA
pdata	ENDS
;	COMDAT pdata
pdata	SEGMENT
$pdata$?PMC_Pow_X_L_Imp@Internal@Core@Math@Palmtree@@YAPEAU__tag_NUMBER_HEADER@1234@PEAU51234@_K@Z DD imagerel $LN16
	DD	imagerel $LN16+622
	DD	imagerel $unwind$?PMC_Pow_X_L_Imp@Internal@Core@Math@Palmtree@@YAPEAU__tag_NUMBER_HEADER@1234@PEAU51234@_K@Z
pdata	ENDS
;	COMDAT pdata
pdata	SEGMENT
$pdata$?dtor$0@?0??PMC_Pow_X_L_Imp@Internal@Core@Math@Palmtree@@YAPEAU__tag_NUMBER_HEADER@1234@PEAU51234@_K@Z@4HA DD imagerel ?dtor$0@?0??PMC_Pow_X_L_Imp@Internal@Core@Math@Palmtree@@YAPEAU__tag_NUMBER_HEADER@1234@PEAU51234@_K@Z@4HA
	DD	imagerel ?dtor$0@?0??PMC_Pow_X_L_Imp@Internal@Core@Math@Palmtree@@YAPEAU__tag_NUMBER_HEADER@1234@PEAU51234@_K@Z@4HA+36
	DD	imagerel $unwind$?dtor$0@?0??PMC_Pow_X_L_Imp@Internal@Core@Math@Palmtree@@YAPEAU__tag_NUMBER_HEADER@1234@PEAU51234@_K@Z@4HA
pdata	ENDS
;	COMDAT pdata
pdata	SEGMENT
$pdata$?Initialize_Pow@Internal@Core@Math@Palmtree@@YAHPEAU_tag_PROCESSOR_FEATURES@1234@@Z DD imagerel $LN3
	DD	imagerel $LN3+66
	DD	imagerel $unwind$?Initialize_Pow@Internal@Core@Math@Palmtree@@YAHPEAU_tag_PROCESSOR_FEATURES@1234@@Z
pdata	ENDS
;	COMDAT pdata
pdata	SEGMENT
$pdata$?PMC_Pow_X_I@Internal@Core@Math@Palmtree@@YAPEAU__tag_PMC_HANDLE_UINT@1234@PEAU51234@I@Z DD imagerel $LN7
	DD	imagerel $LN7+313
	DD	imagerel $unwind$?PMC_Pow_X_I@Internal@Core@Math@Palmtree@@YAPEAU__tag_PMC_HANDLE_UINT@1234@PEAU51234@I@Z
pdata	ENDS
;	COMDAT pdata
pdata	SEGMENT
$pdata$?dtor$0@?0??PMC_Pow_X_I@Internal@Core@Math@Palmtree@@YAPEAU__tag_PMC_HANDLE_UINT@1234@PEAU51234@I@Z@4HA DD imagerel ?dtor$0@?0??PMC_Pow_X_I@Internal@Core@Math@Palmtree@@YAPEAU__tag_PMC_HANDLE_UINT@1234@PEAU51234@I@Z@4HA
	DD	imagerel ?dtor$0@?0??PMC_Pow_X_I@Internal@Core@Math@Palmtree@@YAPEAU__tag_PMC_HANDLE_UINT@1234@PEAU51234@I@Z@4HA+36
	DD	imagerel $unwind$?dtor$0@?0??PMC_Pow_X_I@Internal@Core@Math@Palmtree@@YAPEAU__tag_PMC_HANDLE_UINT@1234@PEAU51234@I@Z@4HA
pdata	ENDS
;	COMDAT pdata
pdata	SEGMENT
$pdata$?PMC_Pow_X_L@Internal@Core@Math@Palmtree@@YAPEAU__tag_PMC_HANDLE_UINT@1234@PEAU51234@_K@Z DD imagerel $LN7
	DD	imagerel $LN7+315
	DD	imagerel $unwind$?PMC_Pow_X_L@Internal@Core@Math@Palmtree@@YAPEAU__tag_PMC_HANDLE_UINT@1234@PEAU51234@_K@Z
pdata	ENDS
;	COMDAT pdata
pdata	SEGMENT
$pdata$?dtor$0@?0??PMC_Pow_X_L@Internal@Core@Math@Palmtree@@YAPEAU__tag_PMC_HANDLE_UINT@1234@PEAU51234@_K@Z@4HA DD imagerel ?dtor$0@?0??PMC_Pow_X_L@Internal@Core@Math@Palmtree@@YAPEAU__tag_PMC_HANDLE_UINT@1234@PEAU51234@_K@Z@4HA
	DD	imagerel ?dtor$0@?0??PMC_Pow_X_L@Internal@Core@Math@Palmtree@@YAPEAU__tag_PMC_HANDLE_UINT@1234@PEAU51234@_K@Z@4HA+36
	DD	imagerel $unwind$?dtor$0@?0??PMC_Pow_X_L@Internal@Core@Math@Palmtree@@YAPEAU__tag_PMC_HANDLE_UINT@1234@PEAU51234@_K@Z@4HA
pdata	ENDS
;	COMDAT pdata
pdata	SEGMENT
$pdata$_COPY_MEMORY_UNIT DD imagerel _COPY_MEMORY_UNIT
	DD	imagerel _COPY_MEMORY_UNIT+100
	DD	imagerel $unwind$_COPY_MEMORY_UNIT
pdata	ENDS
;	COMDAT pdata
pdata	SEGMENT
$pdata$_ZERO_MEMORY_UNIT DD imagerel _ZERO_MEMORY_UNIT
	DD	imagerel _ZERO_MEMORY_UNIT+88
	DD	imagerel $unwind$_ZERO_MEMORY_UNIT
pdata	ENDS
;	COMDAT pdata
pdata	SEGMENT
$pdata$_LZCNT_ALT_32 DD imagerel _LZCNT_ALT_32
	DD	imagerel _LZCNT_ALT_32+126
	DD	imagerel $unwind$_LZCNT_ALT_32
pdata	ENDS
;	COMDAT pdata
pdata	SEGMENT
$pdata$_LZCNT_ALT_64 DD imagerel _LZCNT_ALT_64
	DD	imagerel _LZCNT_ALT_64+131
	DD	imagerel $unwind$_LZCNT_ALT_64
pdata	ENDS
;	COMDAT pdata
pdata	SEGMENT
$pdata$?Pow_X_I_Imp@Internal@Core@Math@Palmtree@@YAXPEA_K_KI000@Z DD imagerel ?Pow_X_I_Imp@Internal@Core@Math@Palmtree@@YAXPEA_K_KI000@Z
	DD	imagerel ?Pow_X_I_Imp@Internal@Core@Math@Palmtree@@YAXPEA_K_KI000@Z+553
	DD	imagerel $unwind$?Pow_X_I_Imp@Internal@Core@Math@Palmtree@@YAXPEA_K_KI000@Z
pdata	ENDS
;	COMDAT pdata
pdata	SEGMENT
$pdata$?Pow_X_L_Imp@Internal@Core@Math@Palmtree@@YAXPEA_K_K1000@Z DD imagerel ?Pow_X_L_Imp@Internal@Core@Math@Palmtree@@YAXPEA_K_K1000@Z
	DD	imagerel ?Pow_X_L_Imp@Internal@Core@Math@Palmtree@@YAXPEA_K_K1000@Z+570
	DD	imagerel $unwind$?Pow_X_L_Imp@Internal@Core@Math@Palmtree@@YAXPEA_K_K1000@Z
pdata	ENDS
;	COMDAT rtc$TMZ
rtc$TMZ	SEGMENT
_RTC_Shutdown.rtc$TMZ DQ FLAT:_RTC_Shutdown
rtc$TMZ	ENDS
;	COMDAT rtc$IMZ
rtc$IMZ	SEGMENT
_RTC_InitBase.rtc$IMZ DQ FLAT:_RTC_InitBase
rtc$IMZ	ENDS
;	COMDAT ??_R1A@?0A@EA@InternalErrorException@Internal@Core@Math@Palmtree@@8
rdata$r	SEGMENT
??_R1A@?0A@EA@InternalErrorException@Internal@Core@Math@Palmtree@@8 DD imagerel ??_R0?AVInternalErrorException@Internal@Core@Math@Palmtree@@@8 ; Palmtree::Math::Core::Internal::InternalErrorException::`RTTI Base Class Descriptor at (0,-1,0,64)'
	DD	02H
	DD	00H
	DD	0ffffffffH
	DD	00H
	DD	040H
	DD	imagerel ??_R3InternalErrorException@Internal@Core@Math@Palmtree@@8
rdata$r	ENDS
;	COMDAT ??_R2InternalErrorException@Internal@Core@Math@Palmtree@@8
rdata$r	SEGMENT
??_R2InternalErrorException@Internal@Core@Math@Palmtree@@8 DD imagerel ??_R1A@?0A@EA@InternalErrorException@Internal@Core@Math@Palmtree@@8 ; Palmtree::Math::Core::Internal::InternalErrorException::`RTTI Base Class Array'
	DD	imagerel ??_R1A@?0A@EA@Exception@Internal@Core@Math@Palmtree@@8
	DD	imagerel ??_R1A@?0A@EN@exception@std@@8
	ORG $+3
rdata$r	ENDS
;	COMDAT ??_R3InternalErrorException@Internal@Core@Math@Palmtree@@8
rdata$r	SEGMENT
??_R3InternalErrorException@Internal@Core@Math@Palmtree@@8 DD 00H ; Palmtree::Math::Core::Internal::InternalErrorException::`RTTI Class Hierarchy Descriptor'
	DD	00H
	DD	03H
	DD	imagerel ??_R2InternalErrorException@Internal@Core@Math@Palmtree@@8
rdata$r	ENDS
;	COMDAT ??_R4InternalErrorException@Internal@Core@Math@Palmtree@@6B@
rdata$r	SEGMENT
??_R4InternalErrorException@Internal@Core@Math@Palmtree@@6B@ DD 01H ; Palmtree::Math::Core::Internal::InternalErrorException::`RTTI Complete Object Locator'
	DD	00H
	DD	00H
	DD	imagerel ??_R0?AVInternalErrorException@Internal@Core@Math@Palmtree@@@8
	DD	imagerel ??_R3InternalErrorException@Internal@Core@Math@Palmtree@@8
	DD	imagerel ??_R4InternalErrorException@Internal@Core@Math@Palmtree@@6B@
rdata$r	ENDS
;	COMDAT ??_R1A@?0A@EA@ArithmeticException@Internal@Core@Math@Palmtree@@8
rdata$r	SEGMENT
??_R1A@?0A@EA@ArithmeticException@Internal@Core@Math@Palmtree@@8 DD imagerel ??_R0?AVArithmeticException@Internal@Core@Math@Palmtree@@@8 ; Palmtree::Math::Core::Internal::ArithmeticException::`RTTI Base Class Descriptor at (0,-1,0,64)'
	DD	02H
	DD	00H
	DD	0ffffffffH
	DD	00H
	DD	040H
	DD	imagerel ??_R3ArithmeticException@Internal@Core@Math@Palmtree@@8
rdata$r	ENDS
;	COMDAT ??_R2ArithmeticException@Internal@Core@Math@Palmtree@@8
rdata$r	SEGMENT
??_R2ArithmeticException@Internal@Core@Math@Palmtree@@8 DD imagerel ??_R1A@?0A@EA@ArithmeticException@Internal@Core@Math@Palmtree@@8 ; Palmtree::Math::Core::Internal::ArithmeticException::`RTTI Base Class Array'
	DD	imagerel ??_R1A@?0A@EA@Exception@Internal@Core@Math@Palmtree@@8
	DD	imagerel ??_R1A@?0A@EN@exception@std@@8
	ORG $+3
rdata$r	ENDS
;	COMDAT ??_R3ArithmeticException@Internal@Core@Math@Palmtree@@8
rdata$r	SEGMENT
??_R3ArithmeticException@Internal@Core@Math@Palmtree@@8 DD 00H ; Palmtree::Math::Core::Internal::ArithmeticException::`RTTI Class Hierarchy Descriptor'
	DD	00H
	DD	03H
	DD	imagerel ??_R2ArithmeticException@Internal@Core@Math@Palmtree@@8
rdata$r	ENDS
;	COMDAT ??_R4ArithmeticException@Internal@Core@Math@Palmtree@@6B@
rdata$r	SEGMENT
??_R4ArithmeticException@Internal@Core@Math@Palmtree@@6B@ DD 01H ; Palmtree::Math::Core::Internal::ArithmeticException::`RTTI Complete Object Locator'
	DD	00H
	DD	00H
	DD	imagerel ??_R0?AVArithmeticException@Internal@Core@Math@Palmtree@@@8
	DD	imagerel ??_R3ArithmeticException@Internal@Core@Math@Palmtree@@8
	DD	imagerel ??_R4ArithmeticException@Internal@Core@Math@Palmtree@@6B@
rdata$r	ENDS
;	COMDAT ??_R1A@?0A@EA@OverflowException@Internal@Core@Math@Palmtree@@8
rdata$r	SEGMENT
??_R1A@?0A@EA@OverflowException@Internal@Core@Math@Palmtree@@8 DD imagerel ??_R0?AVOverflowException@Internal@Core@Math@Palmtree@@@8 ; Palmtree::Math::Core::Internal::OverflowException::`RTTI Base Class Descriptor at (0,-1,0,64)'
	DD	02H
	DD	00H
	DD	0ffffffffH
	DD	00H
	DD	040H
	DD	imagerel ??_R3OverflowException@Internal@Core@Math@Palmtree@@8
rdata$r	ENDS
;	COMDAT ??_R2OverflowException@Internal@Core@Math@Palmtree@@8
rdata$r	SEGMENT
??_R2OverflowException@Internal@Core@Math@Palmtree@@8 DD imagerel ??_R1A@?0A@EA@OverflowException@Internal@Core@Math@Palmtree@@8 ; Palmtree::Math::Core::Internal::OverflowException::`RTTI Base Class Array'
	DD	imagerel ??_R1A@?0A@EA@Exception@Internal@Core@Math@Palmtree@@8
	DD	imagerel ??_R1A@?0A@EN@exception@std@@8
	ORG $+3
rdata$r	ENDS
;	COMDAT ??_R3OverflowException@Internal@Core@Math@Palmtree@@8
rdata$r	SEGMENT
??_R3OverflowException@Internal@Core@Math@Palmtree@@8 DD 00H ; Palmtree::Math::Core::Internal::OverflowException::`RTTI Class Hierarchy Descriptor'
	DD	00H
	DD	03H
	DD	imagerel ??_R2OverflowException@Internal@Core@Math@Palmtree@@8
rdata$r	ENDS
;	COMDAT ??_R4OverflowException@Internal@Core@Math@Palmtree@@6B@
rdata$r	SEGMENT
??_R4OverflowException@Internal@Core@Math@Palmtree@@6B@ DD 01H ; Palmtree::Math::Core::Internal::OverflowException::`RTTI Complete Object Locator'
	DD	00H
	DD	00H
	DD	imagerel ??_R0?AVOverflowException@Internal@Core@Math@Palmtree@@@8
	DD	imagerel ??_R3OverflowException@Internal@Core@Math@Palmtree@@8
	DD	imagerel ??_R4OverflowException@Internal@Core@Math@Palmtree@@6B@
rdata$r	ENDS
;	COMDAT ??_R1A@?0A@EA@ArgumentNullException@Internal@Core@Math@Palmtree@@8
rdata$r	SEGMENT
??_R1A@?0A@EA@ArgumentNullException@Internal@Core@Math@Palmtree@@8 DD imagerel ??_R0?AVArgumentNullException@Internal@Core@Math@Palmtree@@@8 ; Palmtree::Math::Core::Internal::ArgumentNullException::`RTTI Base Class Descriptor at (0,-1,0,64)'
	DD	02H
	DD	00H
	DD	0ffffffffH
	DD	00H
	DD	040H
	DD	imagerel ??_R3ArgumentNullException@Internal@Core@Math@Palmtree@@8
rdata$r	ENDS
;	COMDAT ??_R2ArgumentNullException@Internal@Core@Math@Palmtree@@8
rdata$r	SEGMENT
??_R2ArgumentNullException@Internal@Core@Math@Palmtree@@8 DD imagerel ??_R1A@?0A@EA@ArgumentNullException@Internal@Core@Math@Palmtree@@8 ; Palmtree::Math::Core::Internal::ArgumentNullException::`RTTI Base Class Array'
	DD	imagerel ??_R1A@?0A@EA@Exception@Internal@Core@Math@Palmtree@@8
	DD	imagerel ??_R1A@?0A@EN@exception@std@@8
	ORG $+3
rdata$r	ENDS
;	COMDAT ??_R3ArgumentNullException@Internal@Core@Math@Palmtree@@8
rdata$r	SEGMENT
??_R3ArgumentNullException@Internal@Core@Math@Palmtree@@8 DD 00H ; Palmtree::Math::Core::Internal::ArgumentNullException::`RTTI Class Hierarchy Descriptor'
	DD	00H
	DD	03H
	DD	imagerel ??_R2ArgumentNullException@Internal@Core@Math@Palmtree@@8
rdata$r	ENDS
;	COMDAT ??_R4ArgumentNullException@Internal@Core@Math@Palmtree@@6B@
rdata$r	SEGMENT
??_R4ArgumentNullException@Internal@Core@Math@Palmtree@@6B@ DD 01H ; Palmtree::Math::Core::Internal::ArgumentNullException::`RTTI Complete Object Locator'
	DD	00H
	DD	00H
	DD	imagerel ??_R0?AVArgumentNullException@Internal@Core@Math@Palmtree@@@8
	DD	imagerel ??_R3ArgumentNullException@Internal@Core@Math@Palmtree@@8
	DD	imagerel ??_R4ArgumentNullException@Internal@Core@Math@Palmtree@@6B@
rdata$r	ENDS
;	COMDAT ??_R1A@?0A@EN@exception@std@@8
rdata$r	SEGMENT
??_R1A@?0A@EN@exception@std@@8 DD imagerel ??_R0?AVexception@std@@@8 ; std::exception::`RTTI Base Class Descriptor at (0,-1,0,77)'
	DD	00H
	DD	00H
	DD	0ffffffffH
	DD	00H
	DD	04dH
	DD	imagerel ??_R3exception@std@@8
rdata$r	ENDS
;	COMDAT ??_R1A@?0A@EA@Exception@Internal@Core@Math@Palmtree@@8
rdata$r	SEGMENT
??_R1A@?0A@EA@Exception@Internal@Core@Math@Palmtree@@8 DD imagerel ??_R0?AVException@Internal@Core@Math@Palmtree@@@8 ; Palmtree::Math::Core::Internal::Exception::`RTTI Base Class Descriptor at (0,-1,0,64)'
	DD	01H
	DD	00H
	DD	0ffffffffH
	DD	00H
	DD	040H
	DD	imagerel ??_R3Exception@Internal@Core@Math@Palmtree@@8
rdata$r	ENDS
;	COMDAT ??_R2Exception@Internal@Core@Math@Palmtree@@8
rdata$r	SEGMENT
??_R2Exception@Internal@Core@Math@Palmtree@@8 DD imagerel ??_R1A@?0A@EA@Exception@Internal@Core@Math@Palmtree@@8 ; Palmtree::Math::Core::Internal::Exception::`RTTI Base Class Array'
	DD	imagerel ??_R1A@?0A@EN@exception@std@@8
	ORG $+3
rdata$r	ENDS
;	COMDAT ??_R3Exception@Internal@Core@Math@Palmtree@@8
rdata$r	SEGMENT
??_R3Exception@Internal@Core@Math@Palmtree@@8 DD 00H	; Palmtree::Math::Core::Internal::Exception::`RTTI Class Hierarchy Descriptor'
	DD	00H
	DD	02H
	DD	imagerel ??_R2Exception@Internal@Core@Math@Palmtree@@8
rdata$r	ENDS
;	COMDAT ??_R4Exception@Internal@Core@Math@Palmtree@@6B@
rdata$r	SEGMENT
??_R4Exception@Internal@Core@Math@Palmtree@@6B@ DD 01H	; Palmtree::Math::Core::Internal::Exception::`RTTI Complete Object Locator'
	DD	00H
	DD	00H
	DD	imagerel ??_R0?AVException@Internal@Core@Math@Palmtree@@@8
	DD	imagerel ??_R3Exception@Internal@Core@Math@Palmtree@@8
	DD	imagerel ??_R4Exception@Internal@Core@Math@Palmtree@@6B@
rdata$r	ENDS
;	COMDAT ??_R1A@?0A@EA@exception@std@@8
rdata$r	SEGMENT
??_R1A@?0A@EA@exception@std@@8 DD imagerel ??_R0?AVexception@std@@@8 ; std::exception::`RTTI Base Class Descriptor at (0,-1,0,64)'
	DD	00H
	DD	00H
	DD	0ffffffffH
	DD	00H
	DD	040H
	DD	imagerel ??_R3exception@std@@8
rdata$r	ENDS
;	COMDAT ??_R2exception@std@@8
rdata$r	SEGMENT
??_R2exception@std@@8 DD imagerel ??_R1A@?0A@EA@exception@std@@8 ; std::exception::`RTTI Base Class Array'
	ORG $+3
rdata$r	ENDS
;	COMDAT ??_R3exception@std@@8
rdata$r	SEGMENT
??_R3exception@std@@8 DD 00H				; std::exception::`RTTI Class Hierarchy Descriptor'
	DD	00H
	DD	01H
	DD	imagerel ??_R2exception@std@@8
rdata$r	ENDS
;	COMDAT ??_R0?AVexception@std@@@8
data$r	SEGMENT
??_R0?AVexception@std@@@8 DQ FLAT:??_7type_info@@6B@	; std::exception `RTTI Type Descriptor'
	DQ	0000000000000000H
	DB	'.?AVexception@std@@', 00H
data$r	ENDS
;	COMDAT ??_R4exception@std@@6B@
rdata$r	SEGMENT
??_R4exception@std@@6B@ DD 01H				; std::exception::`RTTI Complete Object Locator'
	DD	00H
	DD	00H
	DD	imagerel ??_R0?AVexception@std@@@8
	DD	imagerel ??_R3exception@std@@8
	DD	imagerel ??_R4exception@std@@6B@
rdata$r	ENDS
;	COMDAT ??_C@_1CK@ECFIEPAC@?$AA?$BF?$AAp?$AAk?$AAn?$AAu?$AAl?$AAl?$AAp?$AAt?$AAr?$AAL?$AA?$AO?$AAH?$PP?$IJ?$PP?$IM@
CONST	SEGMENT
??_C@_1CK@ECFIEPAC@?$AA?$BF?$AAp?$AAk?$AAn?$AAu?$AAl?$AAl?$AAp?$AAt?$AAr?$AAL?$AA?$AO?$AAH?$PP?$IJ?$PP?$IM@ DB 015H
	DB	'_pek0n', 00H, 'u', 00H, 'l', 00H, 'l', 00H, 'p', 00H, 't', 00H
	DB	'r', 00H, 'L0', 0eH, 'NH0', 089H, '0', 08cH, '0f0D0~0Y0', 02H, '0'
	DB	00H, 00H					; `string'
CONST	ENDS
;	COMDAT ??_C@_13JAOPNPKD@?$AAv@
CONST	SEGMENT
??_C@_13JAOPNPKD@?$AAv@ DB 'v', 00H, 00H, 00H		; `string'
CONST	ENDS
;	COMDAT _CT??_R0?AVArgumentNullException@Internal@Core@Math@Palmtree@@@8??0ArgumentNullException@Internal@Core@Math@Palmtree@@QEAA@AEBV01234@@Z48
xdata$x	SEGMENT
_CT??_R0?AVArgumentNullException@Internal@Core@Math@Palmtree@@@8??0ArgumentNullException@Internal@Core@Math@Palmtree@@QEAA@AEBV01234@@Z48 DD 00H
	DD	imagerel ??_R0?AVArgumentNullException@Internal@Core@Math@Palmtree@@@8
	DD	00H
	DD	0ffffffffH
	ORG $+4
	DD	030H
	DD	imagerel ??0ArgumentNullException@Internal@Core@Math@Palmtree@@QEAA@AEBV01234@@Z
xdata$x	ENDS
;	COMDAT ??_R0?AVArgumentNullException@Internal@Core@Math@Palmtree@@@8
data$r	SEGMENT
??_R0?AVArgumentNullException@Internal@Core@Math@Palmtree@@@8 DQ FLAT:??_7type_info@@6B@ ; Palmtree::Math::Core::Internal::ArgumentNullException `RTTI Type Descriptor'
	DQ	0000000000000000H
	DB	'.?AVArgumentNullException@Internal@Core@Math@Palmtree@@', 00H
data$r	ENDS
;	COMDAT _CTA2?AVArgumentNullException@Internal@Core@Math@Palmtree@@
xdata$x	SEGMENT
_CTA2?AVArgumentNullException@Internal@Core@Math@Palmtree@@ DD 02H
	DD	imagerel _CT??_R0?AVArgumentNullException@Internal@Core@Math@Palmtree@@@8??0ArgumentNullException@Internal@Core@Math@Palmtree@@QEAA@AEBV01234@@Z48
	DD	imagerel _CT??_R0?AVException@Internal@Core@Math@Palmtree@@@8??0Exception@Internal@Core@Math@Palmtree@@QEAA@AEBV01234@@Z48
xdata$x	ENDS
;	COMDAT _TI2?AVArgumentNullException@Internal@Core@Math@Palmtree@@
xdata$x	SEGMENT
_TI2?AVArgumentNullException@Internal@Core@Math@Palmtree@@ DD 00H
	DD	imagerel ??1ArgumentNullException@Internal@Core@Math@Palmtree@@UEAA@XZ
	DD	00H
	DD	imagerel _CTA2?AVArgumentNullException@Internal@Core@Math@Palmtree@@
xdata$x	ENDS
;	COMDAT ??_C@_1DE@MHCFCIPE@?$AAp?$AAm?$AAc?$AA_?$AAp?$AAo?$AAw?$AA?4?$AAc?$AAp?$AAp?$AA?$DL?$AAP?$AAM?$AAC@
CONST	SEGMENT
??_C@_1DE@MHCFCIPE@?$AAp?$AAm?$AAc?$AA_?$AAp?$AAo?$AAw?$AA?4?$AAc?$AAp?$AAp?$AA?$DL?$AAP?$AAM?$AAC@ DB 'p'
	DB	00H, 'm', 00H, 'c', 00H, '_', 00H, 'p', 00H, 'o', 00H, 'w', 00H
	DB	'.', 00H, 'c', 00H, 'p', 00H, 'p', 00H, ';', 00H, 'P', 00H, 'M'
	DB	00H, 'C', 00H, '_', 00H, 'P', 00H, 'o', 00H, 'w', 00H, '_', 00H
	DB	'X', 00H, '_', 00H, 'I', 00H, ';', 00H, '1', 00H, 00H, 00H ; `string'
CONST	ENDS
;	COMDAT ??_C@_1CM@JEKMNCAI@?$PP?$KK?$PP?$PM?$PP?P?$PP?$PM?$PP?U?$PP?m?$PP?$PM?$AAk?$PP?$II?$PP?$IK?$AA?$AI?$PP?$JH?$PP?$JC?$PP?$JK?$AAL@
CONST	SEGMENT
??_C@_1CM@JEKMNCAI@?$PP?$KK?$PP?$PM?$PP?P?$PP?$PM?$PP?U?$PP?m?$PP?$PM?$AAk?$PP?$II?$PP?$IK?$AA?$AI?$PP?$JH?$PP?$JC?$PP?$JK?$AAL@ DB 0aaH
	DB	'0', 0fcH, '0', 0d0H, '0', 0fcH, '0', 0d5H, '0', 0edH, '0', 0fcH
	DB	'0k0', 088H, '0', 08aH, '0', 08H, 08aH, 097H, '{', 092H, '0', 09aH
	DB	'}L', 088H, 'g0M0~0[0', 093H, '0', 02H, '0', 00H, 00H ; `string'
CONST	ENDS
;	COMDAT _CT??_R0?AVOverflowException@Internal@Core@Math@Palmtree@@@8??0OverflowException@Internal@Core@Math@Palmtree@@QEAA@AEBV01234@@Z48
xdata$x	SEGMENT
_CT??_R0?AVOverflowException@Internal@Core@Math@Palmtree@@@8??0OverflowException@Internal@Core@Math@Palmtree@@QEAA@AEBV01234@@Z48 DD 00H
	DD	imagerel ??_R0?AVOverflowException@Internal@Core@Math@Palmtree@@@8
	DD	00H
	DD	0ffffffffH
	ORG $+4
	DD	030H
	DD	imagerel ??0OverflowException@Internal@Core@Math@Palmtree@@QEAA@AEBV01234@@Z
xdata$x	ENDS
;	COMDAT ??_R0?AVOverflowException@Internal@Core@Math@Palmtree@@@8
data$r	SEGMENT
??_R0?AVOverflowException@Internal@Core@Math@Palmtree@@@8 DQ FLAT:??_7type_info@@6B@ ; Palmtree::Math::Core::Internal::OverflowException `RTTI Type Descriptor'
	DQ	0000000000000000H
	DB	'.?AVOverflowException@Internal@Core@Math@Palmtree@@', 00H
data$r	ENDS
;	COMDAT _CTA2?AVOverflowException@Internal@Core@Math@Palmtree@@
xdata$x	SEGMENT
_CTA2?AVOverflowException@Internal@Core@Math@Palmtree@@ DD 02H
	DD	imagerel _CT??_R0?AVOverflowException@Internal@Core@Math@Palmtree@@@8??0OverflowException@Internal@Core@Math@Palmtree@@QEAA@AEBV01234@@Z48
	DD	imagerel _CT??_R0?AVException@Internal@Core@Math@Palmtree@@@8??0Exception@Internal@Core@Math@Palmtree@@QEAA@AEBV01234@@Z48
xdata$x	ENDS
;	COMDAT _TI2?AVOverflowException@Internal@Core@Math@Palmtree@@
xdata$x	SEGMENT
_TI2?AVOverflowException@Internal@Core@Math@Palmtree@@ DD 00H
	DD	imagerel ??1OverflowException@Internal@Core@Math@Palmtree@@UEAA@XZ
	DD	00H
	DD	imagerel _CTA2?AVOverflowException@Internal@Core@Math@Palmtree@@
xdata$x	ENDS
;	COMDAT ??_C@_1BM@OCOOKOCJ@?$AA0?$AAn?$AA0?$AAW?$AAn?$AA$?$AAo?$AA?$CK?$PP?$JK?$PP?$KJ?$AAg?$AAY?$AA?$AC@
CONST	SEGMENT
??_C@_1BM@OCOOKOCJ@?$AA0?$AAn?$AA0?$AAW?$AAn?$AA$?$AAo?$AA?$CK?$PP?$JK?$PP?$KJ?$AAg?$AAY?$AA?$AC@ DB '0'
	DB	00H, 'n00', 00H, 'WNn0$Po0*g', 09aH, '[', 0a9H, 07fH, 'g0Y0', 02H
	DB	'0', 00H, 00H				; `string'
CONST	ENDS
;	COMDAT _CT??_R0?AVArithmeticException@Internal@Core@Math@Palmtree@@@8??0ArithmeticException@Internal@Core@Math@Palmtree@@QEAA@AEBV01234@@Z48
xdata$x	SEGMENT
_CT??_R0?AVArithmeticException@Internal@Core@Math@Palmtree@@@8??0ArithmeticException@Internal@Core@Math@Palmtree@@QEAA@AEBV01234@@Z48 DD 00H
	DD	imagerel ??_R0?AVArithmeticException@Internal@Core@Math@Palmtree@@@8
	DD	00H
	DD	0ffffffffH
	ORG $+4
	DD	030H
	DD	imagerel ??0ArithmeticException@Internal@Core@Math@Palmtree@@QEAA@AEBV01234@@Z
xdata$x	ENDS
;	COMDAT ??_R0?AVArithmeticException@Internal@Core@Math@Palmtree@@@8
data$r	SEGMENT
??_R0?AVArithmeticException@Internal@Core@Math@Palmtree@@@8 DQ FLAT:??_7type_info@@6B@ ; Palmtree::Math::Core::Internal::ArithmeticException `RTTI Type Descriptor'
	DQ	0000000000000000H
	DB	'.?AVArithmeticException@Internal@Core@Math@Palmtree@@', 00H
data$r	ENDS
;	COMDAT _CTA2?AVArithmeticException@Internal@Core@Math@Palmtree@@
xdata$x	SEGMENT
_CTA2?AVArithmeticException@Internal@Core@Math@Palmtree@@ DD 02H
	DD	imagerel _CT??_R0?AVArithmeticException@Internal@Core@Math@Palmtree@@@8??0ArithmeticException@Internal@Core@Math@Palmtree@@QEAA@AEBV01234@@Z48
	DD	imagerel _CT??_R0?AVException@Internal@Core@Math@Palmtree@@@8??0Exception@Internal@Core@Math@Palmtree@@QEAA@AEBV01234@@Z48
xdata$x	ENDS
;	COMDAT _TI2?AVArithmeticException@Internal@Core@Math@Palmtree@@
xdata$x	SEGMENT
_TI2?AVArithmeticException@Internal@Core@Math@Palmtree@@ DD 00H
	DD	imagerel ??1ArithmeticException@Internal@Core@Math@Palmtree@@UEAA@XZ
	DD	00H
	DD	imagerel _CTA2?AVArithmeticException@Internal@Core@Math@Palmtree@@
xdata$x	ENDS
;	COMDAT ??_C@_1CG@CNOPPENL@?$PP?$II?$AA?$BP?$AAW?$AAf?$AAD?$AAj?$AAD?$PP?$LD?$PP?$PM?$PP?I?$AAk?$AA0?$AAT?$AAW?$AA?$HO@
CONST	SEGMENT
??_C@_1CG@CNOPPENL@?$PP?$II?$AA?$BP?$AAW?$AAf?$AAD?$AAj?$AAD?$PP?$LD?$PP?$PM?$PP?I?$AAk?$AA0?$AAT?$AAW?$AA?$HO@ DB 088H
	DB	'N', 01fH, 'gW0f0D0j0D0', 0b3H, '0', 0fcH, '0', 0c9H, '0k00RT', 090H
	DB	'W0~0W0_0', 02H, '0', 00H, 00H		; `string'
CONST	ENDS
;	COMDAT _CT??_R0?AVException@Internal@Core@Math@Palmtree@@@8??0Exception@Internal@Core@Math@Palmtree@@QEAA@AEBV01234@@Z48
xdata$x	SEGMENT
_CT??_R0?AVException@Internal@Core@Math@Palmtree@@@8??0Exception@Internal@Core@Math@Palmtree@@QEAA@AEBV01234@@Z48 DD 00H
	DD	imagerel ??_R0?AVException@Internal@Core@Math@Palmtree@@@8
	DD	00H
	DD	0ffffffffH
	ORG $+4
	DD	030H
	DD	imagerel ??0Exception@Internal@Core@Math@Palmtree@@QEAA@AEBV01234@@Z
xdata$x	ENDS
;	COMDAT ??_R0?AVException@Internal@Core@Math@Palmtree@@@8
data$r	SEGMENT
??_R0?AVException@Internal@Core@Math@Palmtree@@@8 DQ FLAT:??_7type_info@@6B@ ; Palmtree::Math::Core::Internal::Exception `RTTI Type Descriptor'
	DQ	0000000000000000H
	DB	'.?AVException@Internal@Core@Math@Palmtree@@', 00H
data$r	ENDS
;	COMDAT _CT??_R0?AVInternalErrorException@Internal@Core@Math@Palmtree@@@8??0InternalErrorException@Internal@Core@Math@Palmtree@@QEAA@AEBV01234@@Z48
xdata$x	SEGMENT
_CT??_R0?AVInternalErrorException@Internal@Core@Math@Palmtree@@@8??0InternalErrorException@Internal@Core@Math@Palmtree@@QEAA@AEBV01234@@Z48 DD 00H
	DD	imagerel ??_R0?AVInternalErrorException@Internal@Core@Math@Palmtree@@@8
	DD	00H
	DD	0ffffffffH
	ORG $+4
	DD	030H
	DD	imagerel ??0InternalErrorException@Internal@Core@Math@Palmtree@@QEAA@AEBV01234@@Z
xdata$x	ENDS
;	COMDAT ??_R0?AVInternalErrorException@Internal@Core@Math@Palmtree@@@8
data$r	SEGMENT
??_R0?AVInternalErrorException@Internal@Core@Math@Palmtree@@@8 DQ FLAT:??_7type_info@@6B@ ; Palmtree::Math::Core::Internal::InternalErrorException `RTTI Type Descriptor'
	DQ	0000000000000000H
	DB	'.?AVInternalErrorException@Internal@Core@Math@Palmtree@@'
	DB	00H
data$r	ENDS
;	COMDAT _CTA2?AVInternalErrorException@Internal@Core@Math@Palmtree@@
xdata$x	SEGMENT
_CTA2?AVInternalErrorException@Internal@Core@Math@Palmtree@@ DD 02H
	DD	imagerel _CT??_R0?AVInternalErrorException@Internal@Core@Math@Palmtree@@@8??0InternalErrorException@Internal@Core@Math@Palmtree@@QEAA@AEBV01234@@Z48
	DD	imagerel _CT??_R0?AVException@Internal@Core@Math@Palmtree@@@8??0Exception@Internal@Core@Math@Palmtree@@QEAA@AEBV01234@@Z48
xdata$x	ENDS
;	COMDAT _TI2?AVInternalErrorException@Internal@Core@Math@Palmtree@@
xdata$x	SEGMENT
_TI2?AVInternalErrorException@Internal@Core@Math@Palmtree@@ DD 00H
	DD	imagerel ??1InternalErrorException@Internal@Core@Math@Palmtree@@UEAA@XZ
	DD	00H
	DD	imagerel _CTA2?AVInternalErrorException@Internal@Core@Math@Palmtree@@
xdata$x	ENDS
;	COMDAT ??_7InternalErrorException@Internal@Core@Math@Palmtree@@6B@
CONST	SEGMENT
??_7InternalErrorException@Internal@Core@Math@Palmtree@@6B@ DQ FLAT:??_R4InternalErrorException@Internal@Core@Math@Palmtree@@6B@ ; Palmtree::Math::Core::Internal::InternalErrorException::`vftable'
	DQ	FLAT:??_EInternalErrorException@Internal@Core@Math@Palmtree@@UEAAPEAXI@Z
	DQ	FLAT:?what@exception@std@@UEBAPEBDXZ
CONST	ENDS
;	COMDAT ??_7ArithmeticException@Internal@Core@Math@Palmtree@@6B@
CONST	SEGMENT
??_7ArithmeticException@Internal@Core@Math@Palmtree@@6B@ DQ FLAT:??_R4ArithmeticException@Internal@Core@Math@Palmtree@@6B@ ; Palmtree::Math::Core::Internal::ArithmeticException::`vftable'
	DQ	FLAT:??_EArithmeticException@Internal@Core@Math@Palmtree@@UEAAPEAXI@Z
	DQ	FLAT:?what@exception@std@@UEBAPEBDXZ
CONST	ENDS
;	COMDAT ??_7OverflowException@Internal@Core@Math@Palmtree@@6B@
CONST	SEGMENT
??_7OverflowException@Internal@Core@Math@Palmtree@@6B@ DQ FLAT:??_R4OverflowException@Internal@Core@Math@Palmtree@@6B@ ; Palmtree::Math::Core::Internal::OverflowException::`vftable'
	DQ	FLAT:??_EOverflowException@Internal@Core@Math@Palmtree@@UEAAPEAXI@Z
	DQ	FLAT:?what@exception@std@@UEBAPEBDXZ
CONST	ENDS
;	COMDAT ??_7ArgumentNullException@Internal@Core@Math@Palmtree@@6B@
CONST	SEGMENT
??_7ArgumentNullException@Internal@Core@Math@Palmtree@@6B@ DQ FLAT:??_R4ArgumentNullException@Internal@Core@Math@Palmtree@@6B@ ; Palmtree::Math::Core::Internal::ArgumentNullException::`vftable'
	DQ	FLAT:??_EArgumentNullException@Internal@Core@Math@Palmtree@@UEAAPEAXI@Z
	DQ	FLAT:?what@exception@std@@UEBAPEBDXZ
CONST	ENDS
;	COMDAT ??_7Exception@Internal@Core@Math@Palmtree@@6B@
CONST	SEGMENT
??_7Exception@Internal@Core@Math@Palmtree@@6B@ DQ FLAT:??_R4Exception@Internal@Core@Math@Palmtree@@6B@ ; Palmtree::Math::Core::Internal::Exception::`vftable'
	DQ	FLAT:??_EException@Internal@Core@Math@Palmtree@@UEAAPEAXI@Z
	DQ	FLAT:?what@exception@std@@UEBAPEBDXZ
CONST	ENDS
;	COMDAT ??_C@_0BC@EOODALEL@Unknown?5exception@
CONST	SEGMENT
??_C@_0BC@EOODALEL@Unknown?5exception@ DB 'Unknown exception', 00H ; `string'
CONST	ENDS
;	COMDAT ??_7exception@std@@6B@
CONST	SEGMENT
??_7exception@std@@6B@ DQ FLAT:??_R4exception@std@@6B@	; std::exception::`vftable'
	DQ	FLAT:??_Eexception@std@@UEAAPEAXI@Z
	DQ	FLAT:?what@exception@std@@UEBAPEBDXZ
CONST	ENDS
;	COMDAT xdata
xdata	SEGMENT
$unwind$?Pow_X_L_Imp@Internal@Core@Math@Palmtree@@YAXPEA_K_K1000@Z DD 035053901H
	DD	011d3322H
	DD	07016003bH
	DD	05015H
xdata	ENDS
;	COMDAT xdata
xdata	SEGMENT
$unwind$?Pow_X_I_Imp@Internal@Core@Math@Palmtree@@YAXPEA_K_KI000@Z DD 035053901H
	DD	011d3322H
	DD	07016003bH
	DD	05015H
xdata	ENDS
;	COMDAT xdata
xdata	SEGMENT
$unwind$_LZCNT_ALT_64 DD 025052a01H
	DD	010e2313H
	DD	070070021H
	DD	05006H
xdata	ENDS
;	COMDAT CONST
CONST	SEGMENT
_LZCNT_ALT_64$rtcName$0 DB 070H
	DB	06fH
	DB	073H
	DB	00H
	ORG $+12
_LZCNT_ALT_64$rtcVarDesc DD 024H
	DD	04H
	DQ	FLAT:_LZCNT_ALT_64$rtcName$0
	ORG $+48
_LZCNT_ALT_64$rtcFrameData DD 01H
	DD	00H
	DQ	FLAT:_LZCNT_ALT_64$rtcVarDesc
CONST	ENDS
;	COMDAT xdata
xdata	SEGMENT
$unwind$_LZCNT_ALT_32 DD 025052801H
	DD	010d2312H
	DD	070060021H
	DD	05005H
xdata	ENDS
;	COMDAT CONST
CONST	SEGMENT
_LZCNT_ALT_32$rtcName$0 DB 070H
	DB	06fH
	DB	073H
	DB	00H
	ORG $+12
_LZCNT_ALT_32$rtcVarDesc DD 024H
	DD	04H
	DQ	FLAT:_LZCNT_ALT_32$rtcName$0
	ORG $+48
_LZCNT_ALT_32$rtcFrameData DD 01H
	DD	00H
	DQ	FLAT:_LZCNT_ALT_32$rtcVarDesc
CONST	ENDS
;	COMDAT xdata
xdata	SEGMENT
$unwind$_ZERO_MEMORY_UNIT DD 025052f01H
	DD	01132318H
	DD	0700c001dH
	DD	0500bH
xdata	ENDS
;	COMDAT xdata
xdata	SEGMENT
$unwind$_COPY_MEMORY_UNIT DD 025063501H
	DD	0119231eH
	DD	07012001cH
	DD	050106011H
xdata	ENDS
;	COMDAT xdata
xdata	SEGMENT
$unwind$?dtor$0@?0??PMC_Pow_X_L@Internal@Core@Math@Palmtree@@YAPEAU__tag_PMC_HANDLE_UINT@1234@PEAU51234@_K@Z@4HA DD 031001H
	DD	0700c4210H
	DD	0500bH
xdata	ENDS
;	COMDAT xdata
xdata	SEGMENT
$ip2state$?PMC_Pow_X_L@Internal@Core@Math@Palmtree@@YAPEAU__tag_PMC_HANDLE_UINT@1234@PEAU51234@_K@Z DD imagerel ?PMC_Pow_X_L@Internal@Core@Math@Palmtree@@YAPEAU__tag_PMC_HANDLE_UINT@1234@PEAU51234@_K@Z
	DD	0ffffffffH
	DD	imagerel ?PMC_Pow_X_L@Internal@Core@Math@Palmtree@@YAPEAU__tag_PMC_HANDLE_UINT@1234@PEAU51234@_K@Z+198
	DD	00H
	DD	imagerel ?PMC_Pow_X_L@Internal@Core@Math@Palmtree@@YAPEAU__tag_PMC_HANDLE_UINT@1234@PEAU51234@_K@Z+267
	DD	0ffffffffH
xdata	ENDS
;	COMDAT xdata
xdata	SEGMENT
$stateUnwindMap$?PMC_Pow_X_L@Internal@Core@Math@Palmtree@@YAPEAU__tag_PMC_HANDLE_UINT@1234@PEAU51234@_K@Z DD 0ffffffffH
	DD	imagerel ?dtor$0@?0??PMC_Pow_X_L@Internal@Core@Math@Palmtree@@YAPEAU__tag_PMC_HANDLE_UINT@1234@PEAU51234@_K@Z@4HA
xdata	ENDS
;	COMDAT xdata
xdata	SEGMENT
$unwind$?PMC_Pow_X_L@Internal@Core@Math@Palmtree@@YAPEAU__tag_PMC_HANDLE_UINT@1234@PEAU51234@_K@Z DD 025053a11H
	DD	01132318H
	DD	0700c0045H
	DD	0500bH
	DD	imagerel __CxxFrameHandler3
	DD	imagerel $cppxdata$?PMC_Pow_X_L@Internal@Core@Math@Palmtree@@YAPEAU__tag_PMC_HANDLE_UINT@1234@PEAU51234@_K@Z
xdata	ENDS
;	COMDAT CONST
CONST	SEGMENT
?PMC_Pow_X_L@Internal@Core@Math@Palmtree@@YAPEAU__tag_PMC_HANDLE_UINT@1234@PEAU51234@_K@Z$rtcName$0 DB 072H ; Palmtree::Math::Core::Internal::PMC_Pow_X_L
	DB	06fH
	DB	06fH
	DB	074H
	DB	00H
	ORG $+11
?PMC_Pow_X_L@Internal@Core@Math@Palmtree@@YAPEAU__tag_PMC_HANDLE_UINT@1234@PEAU51234@_K@Z$rtcVarDesc DD 028H ; Palmtree::Math::Core::Internal::PMC_Pow_X_L
	DD	020H
	DQ	FLAT:?PMC_Pow_X_L@Internal@Core@Math@Palmtree@@YAPEAU__tag_PMC_HANDLE_UINT@1234@PEAU51234@_K@Z$rtcName$0
	ORG $+48
?PMC_Pow_X_L@Internal@Core@Math@Palmtree@@YAPEAU__tag_PMC_HANDLE_UINT@1234@PEAU51234@_K@Z$rtcFrameData DD 01H ; Palmtree::Math::Core::Internal::PMC_Pow_X_L
	DD	00H
	DQ	FLAT:?PMC_Pow_X_L@Internal@Core@Math@Palmtree@@YAPEAU__tag_PMC_HANDLE_UINT@1234@PEAU51234@_K@Z$rtcVarDesc
$cppxdata$?PMC_Pow_X_L@Internal@Core@Math@Palmtree@@YAPEAU__tag_PMC_HANDLE_UINT@1234@PEAU51234@_K@Z DD 019930522H
	DD	01H
	DD	imagerel $stateUnwindMap$?PMC_Pow_X_L@Internal@Core@Math@Palmtree@@YAPEAU__tag_PMC_HANDLE_UINT@1234@PEAU51234@_K@Z
	DD	00H
	DD	00H
	DD	03H
	DD	imagerel $ip2state$?PMC_Pow_X_L@Internal@Core@Math@Palmtree@@YAPEAU__tag_PMC_HANDLE_UINT@1234@PEAU51234@_K@Z
	DD	0208H
	DD	00H
	DD	00H
CONST	ENDS
;	COMDAT xdata
xdata	SEGMENT
$unwind$?dtor$0@?0??PMC_Pow_X_I@Internal@Core@Math@Palmtree@@YAPEAU__tag_PMC_HANDLE_UINT@1234@PEAU51234@I@Z@4HA DD 031001H
	DD	0700c4210H
	DD	0500bH
xdata	ENDS
;	COMDAT xdata
xdata	SEGMENT
$ip2state$?PMC_Pow_X_I@Internal@Core@Math@Palmtree@@YAPEAU__tag_PMC_HANDLE_UINT@1234@PEAU51234@I@Z DD imagerel ?PMC_Pow_X_I@Internal@Core@Math@Palmtree@@YAPEAU__tag_PMC_HANDLE_UINT@1234@PEAU51234@I@Z
	DD	0ffffffffH
	DD	imagerel ?PMC_Pow_X_I@Internal@Core@Math@Palmtree@@YAPEAU__tag_PMC_HANDLE_UINT@1234@PEAU51234@I@Z+197
	DD	00H
	DD	imagerel ?PMC_Pow_X_I@Internal@Core@Math@Palmtree@@YAPEAU__tag_PMC_HANDLE_UINT@1234@PEAU51234@I@Z+265
	DD	0ffffffffH
xdata	ENDS
;	COMDAT xdata
xdata	SEGMENT
$stateUnwindMap$?PMC_Pow_X_I@Internal@Core@Math@Palmtree@@YAPEAU__tag_PMC_HANDLE_UINT@1234@PEAU51234@I@Z DD 0ffffffffH
	DD	imagerel ?dtor$0@?0??PMC_Pow_X_I@Internal@Core@Math@Palmtree@@YAPEAU__tag_PMC_HANDLE_UINT@1234@PEAU51234@I@Z@4HA
xdata	ENDS
;	COMDAT xdata
xdata	SEGMENT
$unwind$?PMC_Pow_X_I@Internal@Core@Math@Palmtree@@YAPEAU__tag_PMC_HANDLE_UINT@1234@PEAU51234@I@Z DD 025053911H
	DD	01122317H
	DD	0700b0045H
	DD	0500aH
	DD	imagerel __CxxFrameHandler3
	DD	imagerel $cppxdata$?PMC_Pow_X_I@Internal@Core@Math@Palmtree@@YAPEAU__tag_PMC_HANDLE_UINT@1234@PEAU51234@I@Z
xdata	ENDS
;	COMDAT CONST
CONST	SEGMENT
?PMC_Pow_X_I@Internal@Core@Math@Palmtree@@YAPEAU__tag_PMC_HANDLE_UINT@1234@PEAU51234@I@Z$rtcName$0 DB 072H ; Palmtree::Math::Core::Internal::PMC_Pow_X_I
	DB	06fH
	DB	06fH
	DB	074H
	DB	00H
	ORG $+11
?PMC_Pow_X_I@Internal@Core@Math@Palmtree@@YAPEAU__tag_PMC_HANDLE_UINT@1234@PEAU51234@I@Z$rtcVarDesc DD 028H ; Palmtree::Math::Core::Internal::PMC_Pow_X_I
	DD	020H
	DQ	FLAT:?PMC_Pow_X_I@Internal@Core@Math@Palmtree@@YAPEAU__tag_PMC_HANDLE_UINT@1234@PEAU51234@I@Z$rtcName$0
	ORG $+48
?PMC_Pow_X_I@Internal@Core@Math@Palmtree@@YAPEAU__tag_PMC_HANDLE_UINT@1234@PEAU51234@I@Z$rtcFrameData DD 01H ; Palmtree::Math::Core::Internal::PMC_Pow_X_I
	DD	00H
	DQ	FLAT:?PMC_Pow_X_I@Internal@Core@Math@Palmtree@@YAPEAU__tag_PMC_HANDLE_UINT@1234@PEAU51234@I@Z$rtcVarDesc
$cppxdata$?PMC_Pow_X_I@Internal@Core@Math@Palmtree@@YAPEAU__tag_PMC_HANDLE_UINT@1234@PEAU51234@I@Z DD 019930522H
	DD	01H
	DD	imagerel $stateUnwindMap$?PMC_Pow_X_I@Internal@Core@Math@Palmtree@@YAPEAU__tag_PMC_HANDLE_UINT@1234@PEAU51234@I@Z
	DD	00H
	DD	00H
	DD	03H
	DD	imagerel $ip2state$?PMC_Pow_X_I@Internal@Core@Math@Palmtree@@YAPEAU__tag_PMC_HANDLE_UINT@1234@PEAU51234@I@Z
	DD	0208H
	DD	00H
	DD	00H
CONST	ENDS
;	COMDAT xdata
xdata	SEGMENT
$unwind$?Initialize_Pow@Internal@Core@Math@Palmtree@@YAHPEAU_tag_PROCESSOR_FEATURES@1234@@Z DD 025052a01H
	DD	010e2313H
	DD	07007001dH
	DD	05006H
xdata	ENDS
;	COMDAT xdata
xdata	SEGMENT
$unwind$?dtor$0@?0??PMC_Pow_X_L_Imp@Internal@Core@Math@Palmtree@@YAPEAU__tag_NUMBER_HEADER@1234@PEAU51234@_K@Z@4HA DD 031001H
	DD	0700c4210H
	DD	0500bH
xdata	ENDS
;	COMDAT xdata
xdata	SEGMENT
$ip2state$?PMC_Pow_X_L_Imp@Internal@Core@Math@Palmtree@@YAPEAU__tag_NUMBER_HEADER@1234@PEAU51234@_K@Z DD imagerel ?PMC_Pow_X_L_Imp@Internal@Core@Math@Palmtree@@YAPEAU__tag_NUMBER_HEADER@1234@PEAU51234@_K@Z
	DD	0ffffffffH
	DD	imagerel ?PMC_Pow_X_L_Imp@Internal@Core@Math@Palmtree@@YAPEAU__tag_NUMBER_HEADER@1234@PEAU51234@_K@Z+260
	DD	00H
	DD	imagerel ?PMC_Pow_X_L_Imp@Internal@Core@Math@Palmtree@@YAPEAU__tag_NUMBER_HEADER@1234@PEAU51234@_K@Z+574
	DD	0ffffffffH
xdata	ENDS
;	COMDAT xdata
xdata	SEGMENT
$stateUnwindMap$?PMC_Pow_X_L_Imp@Internal@Core@Math@Palmtree@@YAPEAU__tag_NUMBER_HEADER@1234@PEAU51234@_K@Z DD 0ffffffffH
	DD	imagerel ?dtor$0@?0??PMC_Pow_X_L_Imp@Internal@Core@Math@Palmtree@@YAPEAU__tag_NUMBER_HEADER@1234@PEAU51234@_K@Z@4HA
xdata	ENDS
;	COMDAT xdata
xdata	SEGMENT
$unwind$?PMC_Pow_X_L_Imp@Internal@Core@Math@Palmtree@@YAPEAU__tag_NUMBER_HEADER@1234@PEAU51234@_K@Z DD 035053a11H
	DD	01133318H
	DD	0700c0057H
	DD	0500bH
	DD	imagerel __CxxFrameHandler3
	DD	imagerel $cppxdata$?PMC_Pow_X_L_Imp@Internal@Core@Math@Palmtree@@YAPEAU__tag_NUMBER_HEADER@1234@PEAU51234@_K@Z
xdata	ENDS
;	COMDAT CONST
CONST	SEGMENT
?PMC_Pow_X_L_Imp@Internal@Core@Math@Palmtree@@YAPEAU__tag_NUMBER_HEADER@1234@PEAU51234@_K@Z$rtcName$0 DB 072H ; Palmtree::Math::Core::Internal::PMC_Pow_X_L_Imp
	DB	06fH
	DB	06fH
	DB	074H
	DB	00H
	ORG $+11
?PMC_Pow_X_L_Imp@Internal@Core@Math@Palmtree@@YAPEAU__tag_NUMBER_HEADER@1234@PEAU51234@_K@Z$rtcVarDesc DD 038H ; Palmtree::Math::Core::Internal::PMC_Pow_X_L_Imp
	DD	020H
	DQ	FLAT:?PMC_Pow_X_L_Imp@Internal@Core@Math@Palmtree@@YAPEAU__tag_NUMBER_HEADER@1234@PEAU51234@_K@Z$rtcName$0
	ORG $+48
?PMC_Pow_X_L_Imp@Internal@Core@Math@Palmtree@@YAPEAU__tag_NUMBER_HEADER@1234@PEAU51234@_K@Z$rtcFrameData DD 01H ; Palmtree::Math::Core::Internal::PMC_Pow_X_L_Imp
	DD	00H
	DQ	FLAT:?PMC_Pow_X_L_Imp@Internal@Core@Math@Palmtree@@YAPEAU__tag_NUMBER_HEADER@1234@PEAU51234@_K@Z$rtcVarDesc
$cppxdata$?PMC_Pow_X_L_Imp@Internal@Core@Math@Palmtree@@YAPEAU__tag_NUMBER_HEADER@1234@PEAU51234@_K@Z DD 019930522H
	DD	01H
	DD	imagerel $stateUnwindMap$?PMC_Pow_X_L_Imp@Internal@Core@Math@Palmtree@@YAPEAU__tag_NUMBER_HEADER@1234@PEAU51234@_K@Z
	DD	00H
	DD	00H
	DD	03H
	DD	imagerel $ip2state$?PMC_Pow_X_L_Imp@Internal@Core@Math@Palmtree@@YAPEAU__tag_NUMBER_HEADER@1234@PEAU51234@_K@Z
	DD	0298H
	DD	00H
	DD	00H
CONST	ENDS
;	COMDAT xdata
xdata	SEGMENT
$unwind$?dtor$0@?0??PMC_Pow_X_I_Imp@Internal@Core@Math@Palmtree@@YAPEAU__tag_NUMBER_HEADER@1234@PEAU51234@I@Z@4HA DD 031001H
	DD	0700c4210H
	DD	0500bH
xdata	ENDS
;	COMDAT xdata
xdata	SEGMENT
$ip2state$?PMC_Pow_X_I_Imp@Internal@Core@Math@Palmtree@@YAPEAU__tag_NUMBER_HEADER@1234@PEAU51234@I@Z DD imagerel ?PMC_Pow_X_I_Imp@Internal@Core@Math@Palmtree@@YAPEAU__tag_NUMBER_HEADER@1234@PEAU51234@I@Z
	DD	0ffffffffH
	DD	imagerel ?PMC_Pow_X_I_Imp@Internal@Core@Math@Palmtree@@YAPEAU__tag_NUMBER_HEADER@1234@PEAU51234@I@Z+256
	DD	00H
	DD	imagerel ?PMC_Pow_X_I_Imp@Internal@Core@Math@Palmtree@@YAPEAU__tag_NUMBER_HEADER@1234@PEAU51234@I@Z+591
	DD	0ffffffffH
xdata	ENDS
;	COMDAT xdata
xdata	SEGMENT
$stateUnwindMap$?PMC_Pow_X_I_Imp@Internal@Core@Math@Palmtree@@YAPEAU__tag_NUMBER_HEADER@1234@PEAU51234@I@Z DD 0ffffffffH
	DD	imagerel ?dtor$0@?0??PMC_Pow_X_I_Imp@Internal@Core@Math@Palmtree@@YAPEAU__tag_NUMBER_HEADER@1234@PEAU51234@I@Z@4HA
xdata	ENDS
;	COMDAT xdata
xdata	SEGMENT
$unwind$?PMC_Pow_X_I_Imp@Internal@Core@Math@Palmtree@@YAPEAU__tag_NUMBER_HEADER@1234@PEAU51234@I@Z DD 035053911H
	DD	01123317H
	DD	0700b0057H
	DD	0500aH
	DD	imagerel __CxxFrameHandler3
	DD	imagerel $cppxdata$?PMC_Pow_X_I_Imp@Internal@Core@Math@Palmtree@@YAPEAU__tag_NUMBER_HEADER@1234@PEAU51234@I@Z
xdata	ENDS
;	COMDAT CONST
CONST	SEGMENT
?PMC_Pow_X_I_Imp@Internal@Core@Math@Palmtree@@YAPEAU__tag_NUMBER_HEADER@1234@PEAU51234@I@Z$rtcName$0 DB 072H ; Palmtree::Math::Core::Internal::PMC_Pow_X_I_Imp
	DB	06fH
	DB	06fH
	DB	074H
	DB	00H
	ORG $+11
?PMC_Pow_X_I_Imp@Internal@Core@Math@Palmtree@@YAPEAU__tag_NUMBER_HEADER@1234@PEAU51234@I@Z$rtcVarDesc DD 038H ; Palmtree::Math::Core::Internal::PMC_Pow_X_I_Imp
	DD	020H
	DQ	FLAT:?PMC_Pow_X_I_Imp@Internal@Core@Math@Palmtree@@YAPEAU__tag_NUMBER_HEADER@1234@PEAU51234@I@Z$rtcName$0
	ORG $+48
?PMC_Pow_X_I_Imp@Internal@Core@Math@Palmtree@@YAPEAU__tag_NUMBER_HEADER@1234@PEAU51234@I@Z$rtcFrameData DD 01H ; Palmtree::Math::Core::Internal::PMC_Pow_X_I_Imp
	DD	00H
	DQ	FLAT:?PMC_Pow_X_I_Imp@Internal@Core@Math@Palmtree@@YAPEAU__tag_NUMBER_HEADER@1234@PEAU51234@I@Z$rtcVarDesc
$cppxdata$?PMC_Pow_X_I_Imp@Internal@Core@Math@Palmtree@@YAPEAU__tag_NUMBER_HEADER@1234@PEAU51234@I@Z DD 019930522H
	DD	01H
	DD	imagerel $stateUnwindMap$?PMC_Pow_X_I_Imp@Internal@Core@Math@Palmtree@@YAPEAU__tag_NUMBER_HEADER@1234@PEAU51234@I@Z
	DD	00H
	DD	00H
	DD	03H
	DD	imagerel $ip2state$?PMC_Pow_X_I_Imp@Internal@Core@Math@Palmtree@@YAPEAU__tag_NUMBER_HEADER@1234@PEAU51234@I@Z
	DD	0298H
	DD	00H
	DD	00H
CONST	ENDS
;	COMDAT xdata
xdata	SEGMENT
$unwind$??_GInternalErrorException@Internal@Core@Math@Palmtree@@UEAAPEAXI@Z DD 025052e01H
	DD	01122317H
	DD	0700b001dH
	DD	0500aH
xdata	ENDS
;	COMDAT xdata
xdata	SEGMENT
$unwind$?dtor$0@?0???1InternalErrorException@Internal@Core@Math@Palmtree@@UEAA@XZ@4HA DD 031001H
	DD	0700c4210H
	DD	0500bH
xdata	ENDS
;	COMDAT xdata
xdata	SEGMENT
$ip2state$??1InternalErrorException@Internal@Core@Math@Palmtree@@UEAA@XZ DD imagerel ??1InternalErrorException@Internal@Core@Math@Palmtree@@UEAA@XZ
	DD	0ffffffffH
xdata	ENDS
;	COMDAT xdata
xdata	SEGMENT
$stateUnwindMap$??1InternalErrorException@Internal@Core@Math@Palmtree@@UEAA@XZ DD 0ffffffffH
	DD	imagerel ?dtor$0@?0???1InternalErrorException@Internal@Core@Math@Palmtree@@UEAA@XZ@4HA
xdata	ENDS
;	COMDAT CONST
CONST	SEGMENT
$cppxdata$??1InternalErrorException@Internal@Core@Math@Palmtree@@UEAA@XZ DD 019930522H
	DD	01H
	DD	imagerel $stateUnwindMap$??1InternalErrorException@Internal@Core@Math@Palmtree@@UEAA@XZ
	DD	00H
	DD	00H
	DD	01H
	DD	imagerel $ip2state$??1InternalErrorException@Internal@Core@Math@Palmtree@@UEAA@XZ
	DD	0e8H
	DD	00H
	DD	04H
CONST	ENDS
;	COMDAT xdata
xdata	SEGMENT
$unwind$??1InternalErrorException@Internal@Core@Math@Palmtree@@UEAA@XZ DD 025053519H
	DD	010e2313H
	DD	070070021H
	DD	05006H
	DD	imagerel __CxxFrameHandler3
	DD	imagerel $cppxdata$??1InternalErrorException@Internal@Core@Math@Palmtree@@UEAA@XZ
xdata	ENDS
;	COMDAT xdata
xdata	SEGMENT
$unwind$?dtor$0@?0???0InternalErrorException@Internal@Core@Math@Palmtree@@QEAA@AEBV01234@@Z@4HA DD 031001H
	DD	0700c4210H
	DD	0500bH
xdata	ENDS
;	COMDAT xdata
xdata	SEGMENT
$ip2state$??0InternalErrorException@Internal@Core@Math@Palmtree@@QEAA@AEBV01234@@Z DD imagerel ??0InternalErrorException@Internal@Core@Math@Palmtree@@QEAA@AEBV01234@@Z
	DD	0ffffffffH
	DD	imagerel ??0InternalErrorException@Internal@Core@Math@Palmtree@@QEAA@AEBV01234@@Z+91
	DD	00H
	DD	imagerel ??0InternalErrorException@Internal@Core@Math@Palmtree@@QEAA@AEBV01234@@Z+108
	DD	0ffffffffH
xdata	ENDS
;	COMDAT xdata
xdata	SEGMENT
$stateUnwindMap$??0InternalErrorException@Internal@Core@Math@Palmtree@@QEAA@AEBV01234@@Z DD 0ffffffffH
	DD	imagerel ?dtor$0@?0???0InternalErrorException@Internal@Core@Math@Palmtree@@QEAA@AEBV01234@@Z@4HA
xdata	ENDS
;	COMDAT CONST
CONST	SEGMENT
$cppxdata$??0InternalErrorException@Internal@Core@Math@Palmtree@@QEAA@AEBV01234@@Z DD 019930522H
	DD	01H
	DD	imagerel $stateUnwindMap$??0InternalErrorException@Internal@Core@Math@Palmtree@@QEAA@AEBV01234@@Z
	DD	00H
	DD	00H
	DD	03H
	DD	imagerel $ip2state$??0InternalErrorException@Internal@Core@Math@Palmtree@@QEAA@AEBV01234@@Z
	DD	0e8H
	DD	00H
	DD	04H
CONST	ENDS
;	COMDAT xdata
xdata	SEGMENT
$unwind$??0InternalErrorException@Internal@Core@Math@Palmtree@@QEAA@AEBV01234@@Z DD 025053a19H
	DD	01132318H
	DD	0700c0021H
	DD	0500bH
	DD	imagerel __CxxFrameHandler3
	DD	imagerel $cppxdata$??0InternalErrorException@Internal@Core@Math@Palmtree@@QEAA@AEBV01234@@Z
xdata	ENDS
;	COMDAT xdata
xdata	SEGMENT
$unwind$?dtor$0@?0???0InternalErrorException@Internal@Core@Math@Palmtree@@QEAA@PEB_W0@Z@4HA DD 031001H
	DD	0700c4210H
	DD	0500bH
xdata	ENDS
;	COMDAT xdata
xdata	SEGMENT
$ip2state$??0InternalErrorException@Internal@Core@Math@Palmtree@@QEAA@PEB_W0@Z DD imagerel ??0InternalErrorException@Internal@Core@Math@Palmtree@@QEAA@PEB_W0@Z
	DD	0ffffffffH
	DD	imagerel ??0InternalErrorException@Internal@Core@Math@Palmtree@@QEAA@PEB_W0@Z+108
	DD	00H
	DD	imagerel ??0InternalErrorException@Internal@Core@Math@Palmtree@@QEAA@PEB_W0@Z+125
	DD	0ffffffffH
xdata	ENDS
;	COMDAT xdata
xdata	SEGMENT
$stateUnwindMap$??0InternalErrorException@Internal@Core@Math@Palmtree@@QEAA@PEB_W0@Z DD 0ffffffffH
	DD	imagerel ?dtor$0@?0???0InternalErrorException@Internal@Core@Math@Palmtree@@QEAA@PEB_W0@Z@4HA
xdata	ENDS
;	COMDAT CONST
CONST	SEGMENT
$cppxdata$??0InternalErrorException@Internal@Core@Math@Palmtree@@QEAA@PEB_W0@Z DD 019930522H
	DD	01H
	DD	imagerel $stateUnwindMap$??0InternalErrorException@Internal@Core@Math@Palmtree@@QEAA@PEB_W0@Z
	DD	00H
	DD	00H
	DD	03H
	DD	imagerel $ip2state$??0InternalErrorException@Internal@Core@Math@Palmtree@@QEAA@PEB_W0@Z
	DD	0e8H
	DD	00H
	DD	04H
CONST	ENDS
;	COMDAT xdata
xdata	SEGMENT
$unwind$??0InternalErrorException@Internal@Core@Math@Palmtree@@QEAA@PEB_W0@Z DD 025053f19H
	DD	0118231dH
	DD	070110021H
	DD	05010H
	DD	imagerel __CxxFrameHandler3
	DD	imagerel $cppxdata$??0InternalErrorException@Internal@Core@Math@Palmtree@@QEAA@PEB_W0@Z
xdata	ENDS
;	COMDAT xdata
xdata	SEGMENT
$unwind$??_GArithmeticException@Internal@Core@Math@Palmtree@@UEAAPEAXI@Z DD 025052e01H
	DD	01122317H
	DD	0700b001dH
	DD	0500aH
xdata	ENDS
;	COMDAT xdata
xdata	SEGMENT
$unwind$?dtor$0@?0???0ArithmeticException@Internal@Core@Math@Palmtree@@QEAA@AEBV01234@@Z@4HA DD 031001H
	DD	0700c4210H
	DD	0500bH
xdata	ENDS
;	COMDAT xdata
xdata	SEGMENT
$ip2state$??0ArithmeticException@Internal@Core@Math@Palmtree@@QEAA@AEBV01234@@Z DD imagerel ??0ArithmeticException@Internal@Core@Math@Palmtree@@QEAA@AEBV01234@@Z
	DD	0ffffffffH
	DD	imagerel ??0ArithmeticException@Internal@Core@Math@Palmtree@@QEAA@AEBV01234@@Z+78
	DD	00H
	DD	imagerel ??0ArithmeticException@Internal@Core@Math@Palmtree@@QEAA@AEBV01234@@Z+95
	DD	0ffffffffH
xdata	ENDS
;	COMDAT xdata
xdata	SEGMENT
$stateUnwindMap$??0ArithmeticException@Internal@Core@Math@Palmtree@@QEAA@AEBV01234@@Z DD 0ffffffffH
	DD	imagerel ?dtor$0@?0???0ArithmeticException@Internal@Core@Math@Palmtree@@QEAA@AEBV01234@@Z@4HA
xdata	ENDS
;	COMDAT CONST
CONST	SEGMENT
$cppxdata$??0ArithmeticException@Internal@Core@Math@Palmtree@@QEAA@AEBV01234@@Z DD 019930522H
	DD	01H
	DD	imagerel $stateUnwindMap$??0ArithmeticException@Internal@Core@Math@Palmtree@@QEAA@AEBV01234@@Z
	DD	00H
	DD	00H
	DD	03H
	DD	imagerel $ip2state$??0ArithmeticException@Internal@Core@Math@Palmtree@@QEAA@AEBV01234@@Z
	DD	0e8H
	DD	00H
	DD	04H
CONST	ENDS
;	COMDAT xdata
xdata	SEGMENT
$unwind$??0ArithmeticException@Internal@Core@Math@Palmtree@@QEAA@AEBV01234@@Z DD 025053a11H
	DD	01132318H
	DD	0700c0021H
	DD	0500bH
	DD	imagerel __CxxFrameHandler3
	DD	imagerel $cppxdata$??0ArithmeticException@Internal@Core@Math@Palmtree@@QEAA@AEBV01234@@Z
xdata	ENDS
;	COMDAT xdata
xdata	SEGMENT
$unwind$?dtor$0@?0???1ArithmeticException@Internal@Core@Math@Palmtree@@UEAA@XZ@4HA DD 031001H
	DD	0700c4210H
	DD	0500bH
xdata	ENDS
;	COMDAT xdata
xdata	SEGMENT
$ip2state$??1ArithmeticException@Internal@Core@Math@Palmtree@@UEAA@XZ DD imagerel ??1ArithmeticException@Internal@Core@Math@Palmtree@@UEAA@XZ
	DD	0ffffffffH
xdata	ENDS
;	COMDAT xdata
xdata	SEGMENT
$stateUnwindMap$??1ArithmeticException@Internal@Core@Math@Palmtree@@UEAA@XZ DD 0ffffffffH
	DD	imagerel ?dtor$0@?0???1ArithmeticException@Internal@Core@Math@Palmtree@@UEAA@XZ@4HA
xdata	ENDS
;	COMDAT CONST
CONST	SEGMENT
$cppxdata$??1ArithmeticException@Internal@Core@Math@Palmtree@@UEAA@XZ DD 019930522H
	DD	01H
	DD	imagerel $stateUnwindMap$??1ArithmeticException@Internal@Core@Math@Palmtree@@UEAA@XZ
	DD	00H
	DD	00H
	DD	01H
	DD	imagerel $ip2state$??1ArithmeticException@Internal@Core@Math@Palmtree@@UEAA@XZ
	DD	0e8H
	DD	00H
	DD	04H
CONST	ENDS
;	COMDAT xdata
xdata	SEGMENT
$unwind$??1ArithmeticException@Internal@Core@Math@Palmtree@@UEAA@XZ DD 025053519H
	DD	010e2313H
	DD	070070021H
	DD	05006H
	DD	imagerel __CxxFrameHandler3
	DD	imagerel $cppxdata$??1ArithmeticException@Internal@Core@Math@Palmtree@@UEAA@XZ
xdata	ENDS
;	COMDAT xdata
xdata	SEGMENT
$unwind$?dtor$0@?0???0ArithmeticException@Internal@Core@Math@Palmtree@@QEAA@PEB_W@Z@4HA DD 031001H
	DD	0700c4210H
	DD	0500bH
xdata	ENDS
;	COMDAT xdata
xdata	SEGMENT
$ip2state$??0ArithmeticException@Internal@Core@Math@Palmtree@@QEAA@PEB_W@Z DD imagerel ??0ArithmeticException@Internal@Core@Math@Palmtree@@QEAA@PEB_W@Z
	DD	0ffffffffH
	DD	imagerel ??0ArithmeticException@Internal@Core@Math@Palmtree@@QEAA@PEB_W@Z+96
	DD	00H
	DD	imagerel ??0ArithmeticException@Internal@Core@Math@Palmtree@@QEAA@PEB_W@Z+113
	DD	0ffffffffH
xdata	ENDS
;	COMDAT xdata
xdata	SEGMENT
$stateUnwindMap$??0ArithmeticException@Internal@Core@Math@Palmtree@@QEAA@PEB_W@Z DD 0ffffffffH
	DD	imagerel ?dtor$0@?0???0ArithmeticException@Internal@Core@Math@Palmtree@@QEAA@PEB_W@Z@4HA
xdata	ENDS
;	COMDAT CONST
CONST	SEGMENT
$cppxdata$??0ArithmeticException@Internal@Core@Math@Palmtree@@QEAA@PEB_W@Z DD 019930522H
	DD	01H
	DD	imagerel $stateUnwindMap$??0ArithmeticException@Internal@Core@Math@Palmtree@@QEAA@PEB_W@Z
	DD	00H
	DD	00H
	DD	03H
	DD	imagerel $ip2state$??0ArithmeticException@Internal@Core@Math@Palmtree@@QEAA@PEB_W@Z
	DD	0e8H
	DD	00H
	DD	04H
CONST	ENDS
;	COMDAT xdata
xdata	SEGMENT
$unwind$??0ArithmeticException@Internal@Core@Math@Palmtree@@QEAA@PEB_W@Z DD 025053a19H
	DD	01132318H
	DD	0700c0021H
	DD	0500bH
	DD	imagerel __CxxFrameHandler3
	DD	imagerel $cppxdata$??0ArithmeticException@Internal@Core@Math@Palmtree@@QEAA@PEB_W@Z
xdata	ENDS
;	COMDAT xdata
xdata	SEGMENT
$unwind$??_GOverflowException@Internal@Core@Math@Palmtree@@UEAAPEAXI@Z DD 025052e01H
	DD	01122317H
	DD	0700b001dH
	DD	0500aH
xdata	ENDS
;	COMDAT xdata
xdata	SEGMENT
$unwind$?dtor$0@?0???1OverflowException@Internal@Core@Math@Palmtree@@UEAA@XZ@4HA DD 031001H
	DD	0700c4210H
	DD	0500bH
xdata	ENDS
;	COMDAT xdata
xdata	SEGMENT
$ip2state$??1OverflowException@Internal@Core@Math@Palmtree@@UEAA@XZ DD imagerel ??1OverflowException@Internal@Core@Math@Palmtree@@UEAA@XZ
	DD	0ffffffffH
xdata	ENDS
;	COMDAT xdata
xdata	SEGMENT
$stateUnwindMap$??1OverflowException@Internal@Core@Math@Palmtree@@UEAA@XZ DD 0ffffffffH
	DD	imagerel ?dtor$0@?0???1OverflowException@Internal@Core@Math@Palmtree@@UEAA@XZ@4HA
xdata	ENDS
;	COMDAT CONST
CONST	SEGMENT
$cppxdata$??1OverflowException@Internal@Core@Math@Palmtree@@UEAA@XZ DD 019930522H
	DD	01H
	DD	imagerel $stateUnwindMap$??1OverflowException@Internal@Core@Math@Palmtree@@UEAA@XZ
	DD	00H
	DD	00H
	DD	01H
	DD	imagerel $ip2state$??1OverflowException@Internal@Core@Math@Palmtree@@UEAA@XZ
	DD	0e8H
	DD	00H
	DD	04H
CONST	ENDS
;	COMDAT xdata
xdata	SEGMENT
$unwind$??1OverflowException@Internal@Core@Math@Palmtree@@UEAA@XZ DD 025053519H
	DD	010e2313H
	DD	070070021H
	DD	05006H
	DD	imagerel __CxxFrameHandler3
	DD	imagerel $cppxdata$??1OverflowException@Internal@Core@Math@Palmtree@@UEAA@XZ
xdata	ENDS
;	COMDAT xdata
xdata	SEGMENT
$unwind$?dtor$0@?0???0OverflowException@Internal@Core@Math@Palmtree@@QEAA@AEBV01234@@Z@4HA DD 031001H
	DD	0700c4210H
	DD	0500bH
xdata	ENDS
;	COMDAT xdata
xdata	SEGMENT
$ip2state$??0OverflowException@Internal@Core@Math@Palmtree@@QEAA@AEBV01234@@Z DD imagerel ??0OverflowException@Internal@Core@Math@Palmtree@@QEAA@AEBV01234@@Z
	DD	0ffffffffH
	DD	imagerel ??0OverflowException@Internal@Core@Math@Palmtree@@QEAA@AEBV01234@@Z+91
	DD	00H
	DD	imagerel ??0OverflowException@Internal@Core@Math@Palmtree@@QEAA@AEBV01234@@Z+108
	DD	0ffffffffH
xdata	ENDS
;	COMDAT xdata
xdata	SEGMENT
$stateUnwindMap$??0OverflowException@Internal@Core@Math@Palmtree@@QEAA@AEBV01234@@Z DD 0ffffffffH
	DD	imagerel ?dtor$0@?0???0OverflowException@Internal@Core@Math@Palmtree@@QEAA@AEBV01234@@Z@4HA
xdata	ENDS
;	COMDAT CONST
CONST	SEGMENT
$cppxdata$??0OverflowException@Internal@Core@Math@Palmtree@@QEAA@AEBV01234@@Z DD 019930522H
	DD	01H
	DD	imagerel $stateUnwindMap$??0OverflowException@Internal@Core@Math@Palmtree@@QEAA@AEBV01234@@Z
	DD	00H
	DD	00H
	DD	03H
	DD	imagerel $ip2state$??0OverflowException@Internal@Core@Math@Palmtree@@QEAA@AEBV01234@@Z
	DD	0e8H
	DD	00H
	DD	04H
CONST	ENDS
;	COMDAT xdata
xdata	SEGMENT
$unwind$??0OverflowException@Internal@Core@Math@Palmtree@@QEAA@AEBV01234@@Z DD 025053a19H
	DD	01132318H
	DD	0700c0021H
	DD	0500bH
	DD	imagerel __CxxFrameHandler3
	DD	imagerel $cppxdata$??0OverflowException@Internal@Core@Math@Palmtree@@QEAA@AEBV01234@@Z
xdata	ENDS
;	COMDAT xdata
xdata	SEGMENT
$unwind$?dtor$0@?0???0OverflowException@Internal@Core@Math@Palmtree@@QEAA@PEB_W@Z@4HA DD 031001H
	DD	0700c4210H
	DD	0500bH
xdata	ENDS
;	COMDAT xdata
xdata	SEGMENT
$ip2state$??0OverflowException@Internal@Core@Math@Palmtree@@QEAA@PEB_W@Z DD imagerel ??0OverflowException@Internal@Core@Math@Palmtree@@QEAA@PEB_W@Z
	DD	0ffffffffH
	DD	imagerel ??0OverflowException@Internal@Core@Math@Palmtree@@QEAA@PEB_W@Z+96
	DD	00H
	DD	imagerel ??0OverflowException@Internal@Core@Math@Palmtree@@QEAA@PEB_W@Z+113
	DD	0ffffffffH
xdata	ENDS
;	COMDAT xdata
xdata	SEGMENT
$stateUnwindMap$??0OverflowException@Internal@Core@Math@Palmtree@@QEAA@PEB_W@Z DD 0ffffffffH
	DD	imagerel ?dtor$0@?0???0OverflowException@Internal@Core@Math@Palmtree@@QEAA@PEB_W@Z@4HA
xdata	ENDS
;	COMDAT CONST
CONST	SEGMENT
$cppxdata$??0OverflowException@Internal@Core@Math@Palmtree@@QEAA@PEB_W@Z DD 019930522H
	DD	01H
	DD	imagerel $stateUnwindMap$??0OverflowException@Internal@Core@Math@Palmtree@@QEAA@PEB_W@Z
	DD	00H
	DD	00H
	DD	03H
	DD	imagerel $ip2state$??0OverflowException@Internal@Core@Math@Palmtree@@QEAA@PEB_W@Z
	DD	0e8H
	DD	00H
	DD	04H
CONST	ENDS
;	COMDAT xdata
xdata	SEGMENT
$unwind$??0OverflowException@Internal@Core@Math@Palmtree@@QEAA@PEB_W@Z DD 025053a19H
	DD	01132318H
	DD	0700c0021H
	DD	0500bH
	DD	imagerel __CxxFrameHandler3
	DD	imagerel $cppxdata$??0OverflowException@Internal@Core@Math@Palmtree@@QEAA@PEB_W@Z
xdata	ENDS
;	COMDAT xdata
xdata	SEGMENT
$unwind$??_GArgumentNullException@Internal@Core@Math@Palmtree@@UEAAPEAXI@Z DD 025052e01H
	DD	01122317H
	DD	0700b001dH
	DD	0500aH
xdata	ENDS
;	COMDAT xdata
xdata	SEGMENT
$unwind$?dtor$0@?0???1ArgumentNullException@Internal@Core@Math@Palmtree@@UEAA@XZ@4HA DD 031001H
	DD	0700c4210H
	DD	0500bH
xdata	ENDS
;	COMDAT xdata
xdata	SEGMENT
$ip2state$??1ArgumentNullException@Internal@Core@Math@Palmtree@@UEAA@XZ DD imagerel ??1ArgumentNullException@Internal@Core@Math@Palmtree@@UEAA@XZ
	DD	0ffffffffH
xdata	ENDS
;	COMDAT xdata
xdata	SEGMENT
$stateUnwindMap$??1ArgumentNullException@Internal@Core@Math@Palmtree@@UEAA@XZ DD 0ffffffffH
	DD	imagerel ?dtor$0@?0???1ArgumentNullException@Internal@Core@Math@Palmtree@@UEAA@XZ@4HA
xdata	ENDS
;	COMDAT CONST
CONST	SEGMENT
$cppxdata$??1ArgumentNullException@Internal@Core@Math@Palmtree@@UEAA@XZ DD 019930522H
	DD	01H
	DD	imagerel $stateUnwindMap$??1ArgumentNullException@Internal@Core@Math@Palmtree@@UEAA@XZ
	DD	00H
	DD	00H
	DD	01H
	DD	imagerel $ip2state$??1ArgumentNullException@Internal@Core@Math@Palmtree@@UEAA@XZ
	DD	0e8H
	DD	00H
	DD	04H
CONST	ENDS
;	COMDAT xdata
xdata	SEGMENT
$unwind$??1ArgumentNullException@Internal@Core@Math@Palmtree@@UEAA@XZ DD 025053519H
	DD	010e2313H
	DD	070070021H
	DD	05006H
	DD	imagerel __CxxFrameHandler3
	DD	imagerel $cppxdata$??1ArgumentNullException@Internal@Core@Math@Palmtree@@UEAA@XZ
xdata	ENDS
;	COMDAT xdata
xdata	SEGMENT
$unwind$?dtor$0@?0???0ArgumentNullException@Internal@Core@Math@Palmtree@@QEAA@AEBV01234@@Z@4HA DD 031001H
	DD	0700c4210H
	DD	0500bH
xdata	ENDS
;	COMDAT xdata
xdata	SEGMENT
$ip2state$??0ArgumentNullException@Internal@Core@Math@Palmtree@@QEAA@AEBV01234@@Z DD imagerel ??0ArgumentNullException@Internal@Core@Math@Palmtree@@QEAA@AEBV01234@@Z
	DD	0ffffffffH
	DD	imagerel ??0ArgumentNullException@Internal@Core@Math@Palmtree@@QEAA@AEBV01234@@Z+91
	DD	00H
	DD	imagerel ??0ArgumentNullException@Internal@Core@Math@Palmtree@@QEAA@AEBV01234@@Z+108
	DD	0ffffffffH
xdata	ENDS
;	COMDAT xdata
xdata	SEGMENT
$stateUnwindMap$??0ArgumentNullException@Internal@Core@Math@Palmtree@@QEAA@AEBV01234@@Z DD 0ffffffffH
	DD	imagerel ?dtor$0@?0???0ArgumentNullException@Internal@Core@Math@Palmtree@@QEAA@AEBV01234@@Z@4HA
xdata	ENDS
;	COMDAT CONST
CONST	SEGMENT
$cppxdata$??0ArgumentNullException@Internal@Core@Math@Palmtree@@QEAA@AEBV01234@@Z DD 019930522H
	DD	01H
	DD	imagerel $stateUnwindMap$??0ArgumentNullException@Internal@Core@Math@Palmtree@@QEAA@AEBV01234@@Z
	DD	00H
	DD	00H
	DD	03H
	DD	imagerel $ip2state$??0ArgumentNullException@Internal@Core@Math@Palmtree@@QEAA@AEBV01234@@Z
	DD	0e8H
	DD	00H
	DD	04H
CONST	ENDS
;	COMDAT xdata
xdata	SEGMENT
$unwind$??0ArgumentNullException@Internal@Core@Math@Palmtree@@QEAA@AEBV01234@@Z DD 025053a19H
	DD	01132318H
	DD	0700c0021H
	DD	0500bH
	DD	imagerel __CxxFrameHandler3
	DD	imagerel $cppxdata$??0ArgumentNullException@Internal@Core@Math@Palmtree@@QEAA@AEBV01234@@Z
xdata	ENDS
;	COMDAT xdata
xdata	SEGMENT
$unwind$?dtor$0@?0???0ArgumentNullException@Internal@Core@Math@Palmtree@@QEAA@PEB_W0@Z@4HA DD 031001H
	DD	0700c4210H
	DD	0500bH
xdata	ENDS
;	COMDAT xdata
xdata	SEGMENT
$ip2state$??0ArgumentNullException@Internal@Core@Math@Palmtree@@QEAA@PEB_W0@Z DD imagerel ??0ArgumentNullException@Internal@Core@Math@Palmtree@@QEAA@PEB_W0@Z
	DD	0ffffffffH
	DD	imagerel ??0ArgumentNullException@Internal@Core@Math@Palmtree@@QEAA@PEB_W0@Z+108
	DD	00H
	DD	imagerel ??0ArgumentNullException@Internal@Core@Math@Palmtree@@QEAA@PEB_W0@Z+125
	DD	0ffffffffH
xdata	ENDS
;	COMDAT xdata
xdata	SEGMENT
$stateUnwindMap$??0ArgumentNullException@Internal@Core@Math@Palmtree@@QEAA@PEB_W0@Z DD 0ffffffffH
	DD	imagerel ?dtor$0@?0???0ArgumentNullException@Internal@Core@Math@Palmtree@@QEAA@PEB_W0@Z@4HA
xdata	ENDS
;	COMDAT CONST
CONST	SEGMENT
$cppxdata$??0ArgumentNullException@Internal@Core@Math@Palmtree@@QEAA@PEB_W0@Z DD 019930522H
	DD	01H
	DD	imagerel $stateUnwindMap$??0ArgumentNullException@Internal@Core@Math@Palmtree@@QEAA@PEB_W0@Z
	DD	00H
	DD	00H
	DD	03H
	DD	imagerel $ip2state$??0ArgumentNullException@Internal@Core@Math@Palmtree@@QEAA@PEB_W0@Z
	DD	0e8H
	DD	00H
	DD	04H
CONST	ENDS
;	COMDAT xdata
xdata	SEGMENT
$unwind$??0ArgumentNullException@Internal@Core@Math@Palmtree@@QEAA@PEB_W0@Z DD 025053f19H
	DD	0118231dH
	DD	070110021H
	DD	05010H
	DD	imagerel __CxxFrameHandler3
	DD	imagerel $cppxdata$??0ArgumentNullException@Internal@Core@Math@Palmtree@@QEAA@PEB_W0@Z
xdata	ENDS
;	COMDAT xdata
xdata	SEGMENT
$unwind$??_GException@Internal@Core@Math@Palmtree@@UEAAPEAXI@Z DD 025052e01H
	DD	01122317H
	DD	0700b001dH
	DD	0500aH
xdata	ENDS
;	COMDAT xdata
xdata	SEGMENT
$unwind$?dtor$0@?0???1Exception@Internal@Core@Math@Palmtree@@UEAA@XZ@4HA DD 031001H
	DD	0700c4210H
	DD	0500bH
xdata	ENDS
;	COMDAT xdata
xdata	SEGMENT
$ip2state$??1Exception@Internal@Core@Math@Palmtree@@UEAA@XZ DD imagerel ??1Exception@Internal@Core@Math@Palmtree@@UEAA@XZ
	DD	0ffffffffH
xdata	ENDS
;	COMDAT xdata
xdata	SEGMENT
$stateUnwindMap$??1Exception@Internal@Core@Math@Palmtree@@UEAA@XZ DD 0ffffffffH
	DD	imagerel ?dtor$0@?0???1Exception@Internal@Core@Math@Palmtree@@UEAA@XZ@4HA
xdata	ENDS
;	COMDAT CONST
CONST	SEGMENT
$cppxdata$??1Exception@Internal@Core@Math@Palmtree@@UEAA@XZ DD 019930522H
	DD	01H
	DD	imagerel $stateUnwindMap$??1Exception@Internal@Core@Math@Palmtree@@UEAA@XZ
	DD	00H
	DD	00H
	DD	01H
	DD	imagerel $ip2state$??1Exception@Internal@Core@Math@Palmtree@@UEAA@XZ
	DD	0e8H
	DD	00H
	DD	04H
CONST	ENDS
;	COMDAT xdata
xdata	SEGMENT
$unwind$??1Exception@Internal@Core@Math@Palmtree@@UEAA@XZ DD 025053519H
	DD	010e2313H
	DD	070070021H
	DD	05006H
	DD	imagerel __CxxFrameHandler3
	DD	imagerel $cppxdata$??1Exception@Internal@Core@Math@Palmtree@@UEAA@XZ
xdata	ENDS
;	COMDAT xdata
xdata	SEGMENT
$unwind$?dtor$0@?0???0Exception@Internal@Core@Math@Palmtree@@QEAA@AEBV01234@@Z@4HA DD 031001H
	DD	0700c4210H
	DD	0500bH
xdata	ENDS
;	COMDAT xdata
xdata	SEGMENT
$ip2state$??0Exception@Internal@Core@Math@Palmtree@@QEAA@AEBV01234@@Z DD imagerel ??0Exception@Internal@Core@Math@Palmtree@@QEAA@AEBV01234@@Z
	DD	0ffffffffH
	DD	imagerel ??0Exception@Internal@Core@Math@Palmtree@@QEAA@AEBV01234@@Z+84
	DD	00H
	DD	imagerel ??0Exception@Internal@Core@Math@Palmtree@@QEAA@AEBV01234@@Z+165
	DD	0ffffffffH
xdata	ENDS
;	COMDAT xdata
xdata	SEGMENT
$stateUnwindMap$??0Exception@Internal@Core@Math@Palmtree@@QEAA@AEBV01234@@Z DD 0ffffffffH
	DD	imagerel ?dtor$0@?0???0Exception@Internal@Core@Math@Palmtree@@QEAA@AEBV01234@@Z@4HA
xdata	ENDS
;	COMDAT CONST
CONST	SEGMENT
$cppxdata$??0Exception@Internal@Core@Math@Palmtree@@QEAA@AEBV01234@@Z DD 019930522H
	DD	01H
	DD	imagerel $stateUnwindMap$??0Exception@Internal@Core@Math@Palmtree@@QEAA@AEBV01234@@Z
	DD	00H
	DD	00H
	DD	03H
	DD	imagerel $ip2state$??0Exception@Internal@Core@Math@Palmtree@@QEAA@AEBV01234@@Z
	DD	0e8H
	DD	00H
	DD	04H
CONST	ENDS
;	COMDAT xdata
xdata	SEGMENT
$unwind$??0Exception@Internal@Core@Math@Palmtree@@QEAA@AEBV01234@@Z DD 025053a19H
	DD	01132318H
	DD	0700c0021H
	DD	0500bH
	DD	imagerel __CxxFrameHandler3
	DD	imagerel $cppxdata$??0Exception@Internal@Core@Math@Palmtree@@QEAA@AEBV01234@@Z
xdata	ENDS
;	COMDAT xdata
xdata	SEGMENT
$unwind$?dtor$0@?0???0Exception@Internal@Core@Math@Palmtree@@IEAA@HPEB_W0@Z@4HA DD 031001H
	DD	0700c4210H
	DD	0500bH
xdata	ENDS
;	COMDAT xdata
xdata	SEGMENT
$ip2state$??0Exception@Internal@Core@Math@Palmtree@@IEAA@HPEB_W0@Z DD imagerel ??0Exception@Internal@Core@Math@Palmtree@@IEAA@HPEB_W0@Z
	DD	0ffffffffH
	DD	imagerel ??0Exception@Internal@Core@Math@Palmtree@@IEAA@HPEB_W0@Z+93
	DD	00H
	DD	imagerel ??0Exception@Internal@Core@Math@Palmtree@@IEAA@HPEB_W0@Z+162
	DD	0ffffffffH
xdata	ENDS
;	COMDAT xdata
xdata	SEGMENT
$stateUnwindMap$??0Exception@Internal@Core@Math@Palmtree@@IEAA@HPEB_W0@Z DD 0ffffffffH
	DD	imagerel ?dtor$0@?0???0Exception@Internal@Core@Math@Palmtree@@IEAA@HPEB_W0@Z@4HA
xdata	ENDS
;	COMDAT CONST
CONST	SEGMENT
$cppxdata$??0Exception@Internal@Core@Math@Palmtree@@IEAA@HPEB_W0@Z DD 019930522H
	DD	01H
	DD	imagerel $stateUnwindMap$??0Exception@Internal@Core@Math@Palmtree@@IEAA@HPEB_W0@Z
	DD	00H
	DD	00H
	DD	03H
	DD	imagerel $ip2state$??0Exception@Internal@Core@Math@Palmtree@@IEAA@HPEB_W0@Z
	DD	0e8H
	DD	00H
	DD	04H
CONST	ENDS
;	COMDAT xdata
xdata	SEGMENT
$unwind$??0Exception@Internal@Core@Math@Palmtree@@IEAA@HPEB_W0@Z DD 025054319H
	DD	011c2321H
	DD	070150021H
	DD	05014H
	DD	imagerel __CxxFrameHandler3
	DD	imagerel $cppxdata$??0Exception@Internal@Core@Math@Palmtree@@IEAA@HPEB_W0@Z
xdata	ENDS
;	COMDAT xdata
xdata	SEGMENT
$unwind$?dtor$0@?0???0Exception@Internal@Core@Math@Palmtree@@IEAA@HPEB_W@Z@4HA DD 031001H
	DD	0700c4210H
	DD	0500bH
xdata	ENDS
;	COMDAT xdata
xdata	SEGMENT
$ip2state$??0Exception@Internal@Core@Math@Palmtree@@IEAA@HPEB_W@Z DD imagerel ??0Exception@Internal@Core@Math@Palmtree@@IEAA@HPEB_W@Z
	DD	0ffffffffH
	DD	imagerel ??0Exception@Internal@Core@Math@Palmtree@@IEAA@HPEB_W@Z+88
	DD	00H
	DD	imagerel ??0Exception@Internal@Core@Math@Palmtree@@IEAA@HPEB_W@Z+154
	DD	0ffffffffH
xdata	ENDS
;	COMDAT xdata
xdata	SEGMENT
$stateUnwindMap$??0Exception@Internal@Core@Math@Palmtree@@IEAA@HPEB_W@Z DD 0ffffffffH
	DD	imagerel ?dtor$0@?0???0Exception@Internal@Core@Math@Palmtree@@IEAA@HPEB_W@Z@4HA
xdata	ENDS
;	COMDAT CONST
CONST	SEGMENT
$cppxdata$??0Exception@Internal@Core@Math@Palmtree@@IEAA@HPEB_W@Z DD 019930522H
	DD	01H
	DD	imagerel $stateUnwindMap$??0Exception@Internal@Core@Math@Palmtree@@IEAA@HPEB_W@Z
	DD	00H
	DD	00H
	DD	03H
	DD	imagerel $ip2state$??0Exception@Internal@Core@Math@Palmtree@@IEAA@HPEB_W@Z
	DD	0e8H
	DD	00H
	DD	04H
CONST	ENDS
;	COMDAT xdata
xdata	SEGMENT
$unwind$??0Exception@Internal@Core@Math@Palmtree@@IEAA@HPEB_W@Z DD 025053e19H
	DD	0117231cH
	DD	070100021H
	DD	0500fH
	DD	imagerel __CxxFrameHandler3
	DD	imagerel $cppxdata$??0Exception@Internal@Core@Math@Palmtree@@IEAA@HPEB_W@Z
xdata	ENDS
;	COMDAT xdata
xdata	SEGMENT
$unwind$??_Gexception@std@@UEAAPEAXI@Z DD 025052e01H
	DD	01122317H
	DD	0700b001dH
	DD	0500aH
xdata	ENDS
;	COMDAT xdata
xdata	SEGMENT
$unwind$?what@exception@std@@UEBAPEBDXZ DD 025052a01H
	DD	010e2313H
	DD	07007001fH
	DD	05006H
xdata	ENDS
;	COMDAT xdata
xdata	SEGMENT
$ip2state$??1exception@std@@UEAA@XZ DD imagerel ??1exception@std@@UEAA@XZ
	DD	0ffffffffH
xdata	ENDS
;	COMDAT CONST
CONST	SEGMENT
$cppxdata$??1exception@std@@UEAA@XZ DD 019930522H
	DD	00H
	DD	00H
	DD	00H
	DD	00H
	DD	01H
	DD	imagerel $ip2state$??1exception@std@@UEAA@XZ
	DD	0e8H
	DD	00H
	DD	04H
CONST	ENDS
;	COMDAT xdata
xdata	SEGMENT
$unwind$??1exception@std@@UEAA@XZ DD 025053519H
	DD	010e2313H
	DD	070070021H
	DD	05006H
	DD	imagerel __CxxFrameHandler3
	DD	imagerel $cppxdata$??1exception@std@@UEAA@XZ
xdata	ENDS
;	COMDAT xdata
xdata	SEGMENT
$ip2state$??0exception@std@@QEAA@XZ DD imagerel ??0exception@std@@QEAA@XZ
	DD	0ffffffffH
xdata	ENDS
;	COMDAT CONST
CONST	SEGMENT
$cppxdata$??0exception@std@@QEAA@XZ DD 019930522H
	DD	00H
	DD	00H
	DD	00H
	DD	00H
	DD	01H
	DD	imagerel $ip2state$??0exception@std@@QEAA@XZ
	DD	0e8H
	DD	00H
	DD	04H
CONST	ENDS
;	COMDAT xdata
xdata	SEGMENT
$unwind$??0exception@std@@QEAA@XZ DD 025053519H
	DD	010e2313H
	DD	070070021H
	DD	05006H
	DD	imagerel __CxxFrameHandler3
	DD	imagerel $cppxdata$??0exception@std@@QEAA@XZ
xdata	ENDS
; Function compile flags: /Odt
;	COMDAT __JustMyCode_Default
_TEXT	SEGMENT
__JustMyCode_Default PROC				; COMDAT
  00000	c2 00 00	 ret	 0
__JustMyCode_Default ENDP
_TEXT	ENDS
; Function compile flags: /Odtp /RTCsu /ZI
; File z:\sources\lunor\repos\rougemeilland\palmtree.math.core.uint\palmtree.math.core.uint\pmc_pow.cpp
;	COMDAT ?Pow_X_L_Imp@Internal@Core@Math@Palmtree@@YAXPEA_K_K1000@Z
_TEXT	SEGMENT
e_mask$ = 8
u_ptr$ = 40
v_ptr$ = 72
w_ptr$ = 104
u_count$ = 136
v_count$ = 168
t_ptr$1 = 200
tv147 = 408
v_buf$ = 448
v_buf_count$ = 456
e$ = 464
work1_buf$ = 472
work2_buf$ = 480
r_buf$ = 488
?Pow_X_L_Imp@Internal@Core@Math@Palmtree@@YAXPEA_K_K1000@Z PROC ; Palmtree::Math::Core::Internal::Pow_X_L_Imp, COMDAT

; 156  :     {

  00000	4c 89 4c 24 20	 mov	 QWORD PTR [rsp+32], r9
  00005	4c 89 44 24 18	 mov	 QWORD PTR [rsp+24], r8
  0000a	48 89 54 24 10	 mov	 QWORD PTR [rsp+16], rdx
  0000f	48 89 4c 24 08	 mov	 QWORD PTR [rsp+8], rcx
  00014	55		 push	 rbp
  00015	57		 push	 rdi
  00016	48 81 ec d8 01
	00 00		 sub	 rsp, 472		; 000001d8H
  0001d	48 8d 6c 24 30	 lea	 rbp, QWORD PTR [rsp+48]
  00022	48 8b fc	 mov	 rdi, rsp
  00025	b9 76 00 00 00	 mov	 ecx, 118		; 00000076H
  0002a	b8 cc cc cc cc	 mov	 eax, -858993460		; ccccccccH
  0002f	f3 ab		 rep stosd
  00031	48 8b 8c 24 f8
	01 00 00	 mov	 rcx, QWORD PTR [rsp+504]
  00039	48 8d 0d 00 00
	00 00		 lea	 rcx, OFFSET FLAT:__235E20A6_pmc_pow@cpp
  00040	e8 00 00 00 00	 call	 __CheckForDebuggerJustMyCode

; 157  :         _UINT64_T e_mask = _rotr64(1, _LZCNT_ALT_64(e) + 1);

  00045	48 8b 8d d0 01
	00 00		 mov	 rcx, QWORD PTR e$[rbp]
  0004c	e8 00 00 00 00	 call	 _LZCNT_ALT_64
  00051	ff c0		 inc	 eax
  00053	b9 01 00 00 00	 mov	 ecx, 1
  00058	48 89 8d 98 01
	00 00		 mov	 QWORD PTR tv147[rbp], rcx
  0005f	0f b6 c8	 movzx	 ecx, al
  00062	48 8b 85 98 01
	00 00		 mov	 rax, QWORD PTR tv147[rbp]
  00069	48 d3 c8	 ror	 rax, cl
  0006c	48 89 45 08	 mov	 QWORD PTR e_mask$[rbp], rax

; 158  : 
; 159  :         //  e & e_mask  0
; 160  : 
; 161  :         __UNIT_TYPE* u_ptr = work1_buf;

  00070	48 8b 85 d8 01
	00 00		 mov	 rax, QWORD PTR work1_buf$[rbp]
  00077	48 89 45 28	 mov	 QWORD PTR u_ptr$[rbp], rax

; 162  :         __UNIT_TYPE* v_ptr = v_buf;

  0007b	48 8b 85 c0 01
	00 00		 mov	 rax, QWORD PTR v_buf$[rbp]
  00082	48 89 45 48	 mov	 QWORD PTR v_ptr$[rbp], rax

; 163  :         __UNIT_TYPE* w_ptr = work2_buf;

  00086	48 8b 85 e0 01
	00 00		 mov	 rax, QWORD PTR work2_buf$[rbp]
  0008d	48 89 45 68	 mov	 QWORD PTR w_ptr$[rbp], rax

; 164  :         __UNIT_TYPE u_count = v_buf_count;

  00091	48 8b 85 c8 01
	00 00		 mov	 rax, QWORD PTR v_buf_count$[rbp]
  00098	48 89 85 88 00
	00 00		 mov	 QWORD PTR u_count$[rbp], rax

; 165  :         __UNIT_TYPE v_count = v_buf_count;

  0009f	48 8b 85 c8 01
	00 00		 mov	 rax, QWORD PTR v_buf_count$[rbp]
  000a6	48 89 85 a8 00
	00 00		 mov	 QWORD PTR v_count$[rbp], rax

; 166  :         _COPY_MEMORY_UNIT(work1_buf, v_buf, v_buf_count);

  000ad	4c 8b 85 c8 01
	00 00		 mov	 r8, QWORD PTR v_buf_count$[rbp]
  000b4	48 8b 95 c0 01
	00 00		 mov	 rdx, QWORD PTR v_buf$[rbp]
  000bb	48 8b 8d d8 01
	00 00		 mov	 rcx, QWORD PTR work1_buf$[rbp]
  000c2	e8 00 00 00 00	 call	 _COPY_MEMORY_UNIT

; 167  :         e_mask >>= 1;

  000c7	48 8b 45 08	 mov	 rax, QWORD PTR e_mask$[rbp]
  000cb	48 d1 e8	 shr	 rax, 1
  000ce	48 89 45 08	 mov	 QWORD PTR e_mask$[rbp], rax
$LN2@Pow_X_L_Im:

; 168  :         while (e_mask != 0)

  000d2	48 83 7d 08 00	 cmp	 QWORD PTR e_mask$[rbp], 0
  000d7	0f 84 3c 01 00
	00		 je	 $LN3@Pow_X_L_Im

; 169  :         {
; 170  :             // u  w 
; 171  :             _ZERO_MEMORY_UNIT(w_ptr, u_count * 2);

  000dd	48 8b 85 88 00
	00 00		 mov	 rax, QWORD PTR u_count$[rbp]
  000e4	48 03 c0	 add	 rax, rax
  000e7	48 8b d0	 mov	 rdx, rax
  000ea	48 8b 4d 68	 mov	 rcx, QWORD PTR w_ptr$[rbp]
  000ee	e8 00 00 00 00	 call	 _ZERO_MEMORY_UNIT

; 172  :             Multiply_X_X_Imp(u_ptr, u_count, u_ptr, u_count, w_ptr);

  000f3	48 8b 45 68	 mov	 rax, QWORD PTR w_ptr$[rbp]
  000f7	48 89 44 24 20	 mov	 QWORD PTR [rsp+32], rax
  000fc	4c 8b 8d 88 00
	00 00		 mov	 r9, QWORD PTR u_count$[rbp]
  00103	4c 8b 45 28	 mov	 r8, QWORD PTR u_ptr$[rbp]
  00107	48 8b 95 88 00
	00 00		 mov	 rdx, QWORD PTR u_count$[rbp]
  0010e	48 8b 4d 28	 mov	 rcx, QWORD PTR u_ptr$[rbp]
  00112	e8 00 00 00 00	 call	 ?Multiply_X_X_Imp@Internal@Core@Math@Palmtree@@YAXPEA_K_K010@Z ; Palmtree::Math::Core::Internal::Multiply_X_X_Imp

; 173  :             u_count *= 2;

  00117	48 8b 85 88 00
	00 00		 mov	 rax, QWORD PTR u_count$[rbp]
  0011e	48 03 c0	 add	 rax, rax
  00121	48 89 85 88 00
	00 00		 mov	 QWORD PTR u_count$[rbp], rax

; 174  :             if (w_ptr[u_count - 1] == 0)

  00128	48 8b 45 68	 mov	 rax, QWORD PTR w_ptr$[rbp]
  0012c	48 8b 8d 88 00
	00 00		 mov	 rcx, QWORD PTR u_count$[rbp]
  00133	48 83 7c c8 f8
	00		 cmp	 QWORD PTR [rax+rcx*8-8], 0
  00139	75 11		 jne	 SHORT $LN4@Pow_X_L_Im

; 175  :                 --u_count;

  0013b	48 8b 85 88 00
	00 00		 mov	 rax, QWORD PTR u_count$[rbp]
  00142	48 ff c8	 dec	 rax
  00145	48 89 85 88 00
	00 00		 mov	 QWORD PTR u_count$[rbp], rax
$LN4@Pow_X_L_Im:

; 176  : 
; 177  :             // e  bit 
; 178  :             if (e & e_mask)

  0014c	48 8b 45 08	 mov	 rax, QWORD PTR e_mask$[rbp]
  00150	48 8b 8d d0 01
	00 00		 mov	 rcx, QWORD PTR e$[rbp]
  00157	48 23 c8	 and	 rcx, rax
  0015a	48 8b c1	 mov	 rax, rcx
  0015d	48 85 c0	 test	 rax, rax
  00160	0f 84 85 00 00
	00		 je	 $LN5@Pow_X_L_Im

; 179  :             {
; 180  :                 // bit  u = w * v 
; 181  :                 _ZERO_MEMORY_UNIT(u_ptr, u_count + v_count);

  00166	48 8b 85 a8 00
	00 00		 mov	 rax, QWORD PTR v_count$[rbp]
  0016d	48 8b 8d 88 00
	00 00		 mov	 rcx, QWORD PTR u_count$[rbp]
  00174	48 03 c8	 add	 rcx, rax
  00177	48 8b c1	 mov	 rax, rcx
  0017a	48 8b d0	 mov	 rdx, rax
  0017d	48 8b 4d 28	 mov	 rcx, QWORD PTR u_ptr$[rbp]
  00181	e8 00 00 00 00	 call	 _ZERO_MEMORY_UNIT

; 182  :                 Multiply_X_X_Imp(w_ptr, u_count, v_ptr, v_count, u_ptr);

  00186	48 8b 45 28	 mov	 rax, QWORD PTR u_ptr$[rbp]
  0018a	48 89 44 24 20	 mov	 QWORD PTR [rsp+32], rax
  0018f	4c 8b 8d a8 00
	00 00		 mov	 r9, QWORD PTR v_count$[rbp]
  00196	4c 8b 45 48	 mov	 r8, QWORD PTR v_ptr$[rbp]
  0019a	48 8b 95 88 00
	00 00		 mov	 rdx, QWORD PTR u_count$[rbp]
  001a1	48 8b 4d 68	 mov	 rcx, QWORD PTR w_ptr$[rbp]
  001a5	e8 00 00 00 00	 call	 ?Multiply_X_X_Imp@Internal@Core@Math@Palmtree@@YAXPEA_K_K010@Z ; Palmtree::Math::Core::Internal::Multiply_X_X_Imp

; 183  :                 u_count += v_count;

  001aa	48 8b 85 a8 00
	00 00		 mov	 rax, QWORD PTR v_count$[rbp]
  001b1	48 8b 8d 88 00
	00 00		 mov	 rcx, QWORD PTR u_count$[rbp]
  001b8	48 03 c8	 add	 rcx, rax
  001bb	48 8b c1	 mov	 rax, rcx
  001be	48 89 85 88 00
	00 00		 mov	 QWORD PTR u_count$[rbp], rax

; 184  :                 if (u_ptr[u_count - 1] == 0)

  001c5	48 8b 45 28	 mov	 rax, QWORD PTR u_ptr$[rbp]
  001c9	48 8b 8d 88 00
	00 00		 mov	 rcx, QWORD PTR u_count$[rbp]
  001d0	48 83 7c c8 f8
	00		 cmp	 QWORD PTR [rax+rcx*8-8], 0
  001d6	75 11		 jne	 SHORT $LN7@Pow_X_L_Im

; 185  :                     --u_count;

  001d8	48 8b 85 88 00
	00 00		 mov	 rax, QWORD PTR u_count$[rbp]
  001df	48 ff c8	 dec	 rax
  001e2	48 89 85 88 00
	00 00		 mov	 QWORD PTR u_count$[rbp], rax
$LN7@Pow_X_L_Im:

; 186  :             }
; 187  :             else

  001e9	eb 1e		 jmp	 SHORT $LN6@Pow_X_L_Im
$LN5@Pow_X_L_Im:

; 188  :             {
; 189  :                 // u  w 
; 190  :                 __UNIT_TYPE* t_ptr = u_ptr;

  001eb	48 8b 45 28	 mov	 rax, QWORD PTR u_ptr$[rbp]
  001ef	48 89 85 c8 00
	00 00		 mov	 QWORD PTR t_ptr$1[rbp], rax

; 191  :                 u_ptr = w_ptr;

  001f6	48 8b 45 68	 mov	 rax, QWORD PTR w_ptr$[rbp]
  001fa	48 89 45 28	 mov	 QWORD PTR u_ptr$[rbp], rax

; 192  :                 w_ptr = t_ptr;

  001fe	48 8b 85 c8 00
	00 00		 mov	 rax, QWORD PTR t_ptr$1[rbp]
  00205	48 89 45 68	 mov	 QWORD PTR w_ptr$[rbp], rax
$LN6@Pow_X_L_Im:

; 193  :             }
; 194  : 
; 195  :             e_mask >>= 1;

  00209	48 8b 45 08	 mov	 rax, QWORD PTR e_mask$[rbp]
  0020d	48 d1 e8	 shr	 rax, 1
  00210	48 89 45 08	 mov	 QWORD PTR e_mask$[rbp], rax

; 196  :         }

  00214	e9 b9 fe ff ff	 jmp	 $LN2@Pow_X_L_Im
$LN3@Pow_X_L_Im:

; 197  :         _COPY_MEMORY_UNIT(r_buf, u_ptr, u_count);

  00219	4c 8b 85 88 00
	00 00		 mov	 r8, QWORD PTR u_count$[rbp]
  00220	48 8b 55 28	 mov	 rdx, QWORD PTR u_ptr$[rbp]
  00224	48 8b 8d e8 01
	00 00		 mov	 rcx, QWORD PTR r_buf$[rbp]
  0022b	e8 00 00 00 00	 call	 _COPY_MEMORY_UNIT

; 198  :     }

  00230	48 8d a5 a8 01
	00 00		 lea	 rsp, QWORD PTR [rbp+424]
  00237	5f		 pop	 rdi
  00238	5d		 pop	 rbp
  00239	c3		 ret	 0
?Pow_X_L_Imp@Internal@Core@Math@Palmtree@@YAXPEA_K_K1000@Z ENDP ; Palmtree::Math::Core::Internal::Pow_X_L_Imp
_TEXT	ENDS
; Function compile flags: /Odtp /RTCsu /ZI
; File z:\sources\lunor\repos\rougemeilland\palmtree.math.core.uint\palmtree.math.core.uint\pmc_pow.cpp
;	COMDAT ?Pow_X_I_Imp@Internal@Core@Math@Palmtree@@YAXPEA_K_KI000@Z
_TEXT	SEGMENT
e_mask$ = 4
u_ptr$ = 40
v_ptr$ = 72
w_ptr$ = 104
u_count$ = 136
v_count$ = 168
t_ptr$1 = 200
tv147 = 404
v_buf$ = 448
v_buf_count$ = 456
e$ = 464
work1_buf$ = 472
work2_buf$ = 480
r_buf$ = 488
?Pow_X_I_Imp@Internal@Core@Math@Palmtree@@YAXPEA_K_KI000@Z PROC ; Palmtree::Math::Core::Internal::Pow_X_I_Imp, COMDAT

; 37   :     {

  00000	4c 89 4c 24 20	 mov	 QWORD PTR [rsp+32], r9
  00005	44 89 44 24 18	 mov	 DWORD PTR [rsp+24], r8d
  0000a	48 89 54 24 10	 mov	 QWORD PTR [rsp+16], rdx
  0000f	48 89 4c 24 08	 mov	 QWORD PTR [rsp+8], rcx
  00014	55		 push	 rbp
  00015	57		 push	 rdi
  00016	48 81 ec d8 01
	00 00		 sub	 rsp, 472		; 000001d8H
  0001d	48 8d 6c 24 30	 lea	 rbp, QWORD PTR [rsp+48]
  00022	48 8b fc	 mov	 rdi, rsp
  00025	b9 76 00 00 00	 mov	 ecx, 118		; 00000076H
  0002a	b8 cc cc cc cc	 mov	 eax, -858993460		; ccccccccH
  0002f	f3 ab		 rep stosd
  00031	48 8b 8c 24 f8
	01 00 00	 mov	 rcx, QWORD PTR [rsp+504]
  00039	48 8d 0d 00 00
	00 00		 lea	 rcx, OFFSET FLAT:__235E20A6_pmc_pow@cpp
  00040	e8 00 00 00 00	 call	 __CheckForDebuggerJustMyCode

; 38   :         _UINT32_T e_mask = _rotr(1, _LZCNT_ALT_32(e) + 1);

  00045	8b 8d d0 01 00
	00		 mov	 ecx, DWORD PTR e$[rbp]
  0004b	e8 00 00 00 00	 call	 _LZCNT_ALT_32
  00050	ff c0		 inc	 eax
  00052	b9 01 00 00 00	 mov	 ecx, 1
  00057	89 8d 94 01 00
	00		 mov	 DWORD PTR tv147[rbp], ecx
  0005d	0f b6 c8	 movzx	 ecx, al
  00060	8b 85 94 01 00
	00		 mov	 eax, DWORD PTR tv147[rbp]
  00066	d3 c8		 ror	 eax, cl
  00068	89 45 04	 mov	 DWORD PTR e_mask$[rbp], eax

; 39   : 
; 40   :         //  e & e_mask  0
; 41   : 
; 42   :         __UNIT_TYPE* u_ptr = work1_buf;

  0006b	48 8b 85 d8 01
	00 00		 mov	 rax, QWORD PTR work1_buf$[rbp]
  00072	48 89 45 28	 mov	 QWORD PTR u_ptr$[rbp], rax

; 43   :         __UNIT_TYPE* v_ptr = v_buf;

  00076	48 8b 85 c0 01
	00 00		 mov	 rax, QWORD PTR v_buf$[rbp]
  0007d	48 89 45 48	 mov	 QWORD PTR v_ptr$[rbp], rax

; 44   :         __UNIT_TYPE* w_ptr = work2_buf;

  00081	48 8b 85 e0 01
	00 00		 mov	 rax, QWORD PTR work2_buf$[rbp]
  00088	48 89 45 68	 mov	 QWORD PTR w_ptr$[rbp], rax

; 45   :         __UNIT_TYPE u_count = v_buf_count;

  0008c	48 8b 85 c8 01
	00 00		 mov	 rax, QWORD PTR v_buf_count$[rbp]
  00093	48 89 85 88 00
	00 00		 mov	 QWORD PTR u_count$[rbp], rax

; 46   :         __UNIT_TYPE v_count = v_buf_count;

  0009a	48 8b 85 c8 01
	00 00		 mov	 rax, QWORD PTR v_buf_count$[rbp]
  000a1	48 89 85 a8 00
	00 00		 mov	 QWORD PTR v_count$[rbp], rax

; 47   :         _COPY_MEMORY_UNIT(work1_buf, v_buf, v_buf_count);

  000a8	4c 8b 85 c8 01
	00 00		 mov	 r8, QWORD PTR v_buf_count$[rbp]
  000af	48 8b 95 c0 01
	00 00		 mov	 rdx, QWORD PTR v_buf$[rbp]
  000b6	48 8b 8d d8 01
	00 00		 mov	 rcx, QWORD PTR work1_buf$[rbp]
  000bd	e8 00 00 00 00	 call	 _COPY_MEMORY_UNIT

; 48   :         e_mask >>= 1;

  000c2	8b 45 04	 mov	 eax, DWORD PTR e_mask$[rbp]
  000c5	d1 e8		 shr	 eax, 1
  000c7	89 45 04	 mov	 DWORD PTR e_mask$[rbp], eax
$LN2@Pow_X_I_Im:

; 49   :         while (e_mask != 0)

  000ca	83 7d 04 00	 cmp	 DWORD PTR e_mask$[rbp], 0
  000ce	0f 84 34 01 00
	00		 je	 $LN3@Pow_X_I_Im

; 50   :         {
; 51   :             // u  w 
; 52   :             _ZERO_MEMORY_UNIT(w_ptr, u_count * 2);

  000d4	48 8b 85 88 00
	00 00		 mov	 rax, QWORD PTR u_count$[rbp]
  000db	48 03 c0	 add	 rax, rax
  000de	48 8b d0	 mov	 rdx, rax
  000e1	48 8b 4d 68	 mov	 rcx, QWORD PTR w_ptr$[rbp]
  000e5	e8 00 00 00 00	 call	 _ZERO_MEMORY_UNIT

; 53   :             Multiply_X_X_Imp(u_ptr, u_count, u_ptr, u_count, w_ptr);

  000ea	48 8b 45 68	 mov	 rax, QWORD PTR w_ptr$[rbp]
  000ee	48 89 44 24 20	 mov	 QWORD PTR [rsp+32], rax
  000f3	4c 8b 8d 88 00
	00 00		 mov	 r9, QWORD PTR u_count$[rbp]
  000fa	4c 8b 45 28	 mov	 r8, QWORD PTR u_ptr$[rbp]
  000fe	48 8b 95 88 00
	00 00		 mov	 rdx, QWORD PTR u_count$[rbp]
  00105	48 8b 4d 28	 mov	 rcx, QWORD PTR u_ptr$[rbp]
  00109	e8 00 00 00 00	 call	 ?Multiply_X_X_Imp@Internal@Core@Math@Palmtree@@YAXPEA_K_K010@Z ; Palmtree::Math::Core::Internal::Multiply_X_X_Imp

; 54   :             u_count *= 2;

  0010e	48 8b 85 88 00
	00 00		 mov	 rax, QWORD PTR u_count$[rbp]
  00115	48 03 c0	 add	 rax, rax
  00118	48 89 85 88 00
	00 00		 mov	 QWORD PTR u_count$[rbp], rax

; 55   :             if (w_ptr[u_count - 1] == 0)

  0011f	48 8b 45 68	 mov	 rax, QWORD PTR w_ptr$[rbp]
  00123	48 8b 8d 88 00
	00 00		 mov	 rcx, QWORD PTR u_count$[rbp]
  0012a	48 83 7c c8 f8
	00		 cmp	 QWORD PTR [rax+rcx*8-8], 0
  00130	75 11		 jne	 SHORT $LN4@Pow_X_I_Im

; 56   :                 --u_count;

  00132	48 8b 85 88 00
	00 00		 mov	 rax, QWORD PTR u_count$[rbp]
  00139	48 ff c8	 dec	 rax
  0013c	48 89 85 88 00
	00 00		 mov	 QWORD PTR u_count$[rbp], rax
$LN4@Pow_X_I_Im:

; 57   : 
; 58   :             // e  bit 
; 59   :             if (e & e_mask)

  00143	8b 45 04	 mov	 eax, DWORD PTR e_mask$[rbp]
  00146	8b 8d d0 01 00
	00		 mov	 ecx, DWORD PTR e$[rbp]
  0014c	23 c8		 and	 ecx, eax
  0014e	8b c1		 mov	 eax, ecx
  00150	85 c0		 test	 eax, eax
  00152	0f 84 85 00 00
	00		 je	 $LN5@Pow_X_I_Im

; 60   :             {
; 61   :                 // bit  u = w * v 
; 62   :                 _ZERO_MEMORY_UNIT(u_ptr, u_count + v_count);

  00158	48 8b 85 a8 00
	00 00		 mov	 rax, QWORD PTR v_count$[rbp]
  0015f	48 8b 8d 88 00
	00 00		 mov	 rcx, QWORD PTR u_count$[rbp]
  00166	48 03 c8	 add	 rcx, rax
  00169	48 8b c1	 mov	 rax, rcx
  0016c	48 8b d0	 mov	 rdx, rax
  0016f	48 8b 4d 28	 mov	 rcx, QWORD PTR u_ptr$[rbp]
  00173	e8 00 00 00 00	 call	 _ZERO_MEMORY_UNIT

; 63   :                 Multiply_X_X_Imp(w_ptr, u_count, v_ptr, v_count, u_ptr);

  00178	48 8b 45 28	 mov	 rax, QWORD PTR u_ptr$[rbp]
  0017c	48 89 44 24 20	 mov	 QWORD PTR [rsp+32], rax
  00181	4c 8b 8d a8 00
	00 00		 mov	 r9, QWORD PTR v_count$[rbp]
  00188	4c 8b 45 48	 mov	 r8, QWORD PTR v_ptr$[rbp]
  0018c	48 8b 95 88 00
	00 00		 mov	 rdx, QWORD PTR u_count$[rbp]
  00193	48 8b 4d 68	 mov	 rcx, QWORD PTR w_ptr$[rbp]
  00197	e8 00 00 00 00	 call	 ?Multiply_X_X_Imp@Internal@Core@Math@Palmtree@@YAXPEA_K_K010@Z ; Palmtree::Math::Core::Internal::Multiply_X_X_Imp

; 64   :                 u_count += v_count;

  0019c	48 8b 85 a8 00
	00 00		 mov	 rax, QWORD PTR v_count$[rbp]
  001a3	48 8b 8d 88 00
	00 00		 mov	 rcx, QWORD PTR u_count$[rbp]
  001aa	48 03 c8	 add	 rcx, rax
  001ad	48 8b c1	 mov	 rax, rcx
  001b0	48 89 85 88 00
	00 00		 mov	 QWORD PTR u_count$[rbp], rax

; 65   :                 if (u_ptr[u_count - 1] == 0)

  001b7	48 8b 45 28	 mov	 rax, QWORD PTR u_ptr$[rbp]
  001bb	48 8b 8d 88 00
	00 00		 mov	 rcx, QWORD PTR u_count$[rbp]
  001c2	48 83 7c c8 f8
	00		 cmp	 QWORD PTR [rax+rcx*8-8], 0
  001c8	75 11		 jne	 SHORT $LN7@Pow_X_I_Im

; 66   :                     --u_count;

  001ca	48 8b 85 88 00
	00 00		 mov	 rax, QWORD PTR u_count$[rbp]
  001d1	48 ff c8	 dec	 rax
  001d4	48 89 85 88 00
	00 00		 mov	 QWORD PTR u_count$[rbp], rax
$LN7@Pow_X_I_Im:

; 67   :             }
; 68   :             else

  001db	eb 1e		 jmp	 SHORT $LN6@Pow_X_I_Im
$LN5@Pow_X_I_Im:

; 69   :             {
; 70   :                 // u  w 
; 71   :                 __UNIT_TYPE* t_ptr = u_ptr;

  001dd	48 8b 45 28	 mov	 rax, QWORD PTR u_ptr$[rbp]
  001e1	48 89 85 c8 00
	00 00		 mov	 QWORD PTR t_ptr$1[rbp], rax

; 72   :                 u_ptr = w_ptr;

  001e8	48 8b 45 68	 mov	 rax, QWORD PTR w_ptr$[rbp]
  001ec	48 89 45 28	 mov	 QWORD PTR u_ptr$[rbp], rax

; 73   :                 w_ptr = t_ptr;

  001f0	48 8b 85 c8 00
	00 00		 mov	 rax, QWORD PTR t_ptr$1[rbp]
  001f7	48 89 45 68	 mov	 QWORD PTR w_ptr$[rbp], rax
$LN6@Pow_X_I_Im:

; 74   :             }
; 75   : 
; 76   :             e_mask >>= 1;

  001fb	8b 45 04	 mov	 eax, DWORD PTR e_mask$[rbp]
  001fe	d1 e8		 shr	 eax, 1
  00200	89 45 04	 mov	 DWORD PTR e_mask$[rbp], eax

; 77   :         }

  00203	e9 c2 fe ff ff	 jmp	 $LN2@Pow_X_I_Im
$LN3@Pow_X_I_Im:

; 78   :         _COPY_MEMORY_UNIT(r_buf, u_ptr, u_count);

  00208	4c 8b 85 88 00
	00 00		 mov	 r8, QWORD PTR u_count$[rbp]
  0020f	48 8b 55 28	 mov	 rdx, QWORD PTR u_ptr$[rbp]
  00213	48 8b 8d e8 01
	00 00		 mov	 rcx, QWORD PTR r_buf$[rbp]
  0021a	e8 00 00 00 00	 call	 _COPY_MEMORY_UNIT

; 79   :     }

  0021f	48 8d a5 a8 01
	00 00		 lea	 rsp, QWORD PTR [rbp+424]
  00226	5f		 pop	 rdi
  00227	5d		 pop	 rbp
  00228	c3		 ret	 0
?Pow_X_I_Imp@Internal@Core@Math@Palmtree@@YAXPEA_K_KI000@Z ENDP ; Palmtree::Math::Core::Internal::Pow_X_I_Imp
_TEXT	ENDS
; Function compile flags: /Odtp /RTCsu /ZI
; File z:\sources\lunor\repos\rougemeilland\palmtree.math.core.uint\palmtree.math.core.uint\pmc_inline_func.h
;	COMDAT _LZCNT_ALT_64
_TEXT	SEGMENT
pos$ = 4
x$ = 256
_LZCNT_ALT_64 PROC					; COMDAT

; 437  :         {

  00000	48 89 4c 24 08	 mov	 QWORD PTR [rsp+8], rcx
  00005	55		 push	 rbp
  00006	57		 push	 rdi
  00007	48 81 ec 08 01
	00 00		 sub	 rsp, 264		; 00000108H
  0000e	48 8d 6c 24 20	 lea	 rbp, QWORD PTR [rsp+32]
  00013	48 8b fc	 mov	 rdi, rsp
  00016	b9 42 00 00 00	 mov	 ecx, 66			; 00000042H
  0001b	b8 cc cc cc cc	 mov	 eax, -858993460		; ccccccccH
  00020	f3 ab		 rep stosd
  00022	48 8b 8c 24 28
	01 00 00	 mov	 rcx, QWORD PTR [rsp+296]
  0002a	48 8d 0d 00 00
	00 00		 lea	 rcx, OFFSET FLAT:__8CA3E54E_pmc_inline_func@h
  00031	e8 00 00 00 00	 call	 __CheckForDebuggerJustMyCode

; 438  :             if (x == 0)

  00036	48 83 bd 00 01
	00 00 00	 cmp	 QWORD PTR x$[rbp], 0
  0003e	75 07		 jne	 SHORT $LN2@LZCNT_ALT_

; 439  :                 return (sizeof(x) * 8);

  00040	b8 40 00 00 00	 mov	 eax, 64			; 00000040H
  00045	eb 1c		 jmp	 SHORT $LN1@LZCNT_ALT_
$LN2@LZCNT_ALT_:

; 440  : #ifdef _MSC_VER
; 441  :             DWORD pos;
; 442  :             _BitScanReverse64(&pos, x);

  00047	48 8b 85 00 01
	00 00		 mov	 rax, QWORD PTR x$[rbp]
  0004e	48 0f bd c0	 bsr	 rax, rax
  00052	89 45 04	 mov	 DWORD PTR pos$[rbp], eax

; 443  : #elif defined(__GNUC__)
; 444  :             _UINT64_T pos;
; 445  :             __asm__("bsrq %1, %0" : "=r"(pos) : "rm"(x));
; 446  : #else
; 447  : #error unknown compiler
; 448  : #endif
; 449  :             return (sizeof(x) * 8 - 1 - pos);

  00055	8b 45 04	 mov	 eax, DWORD PTR pos$[rbp]
  00058	b9 3f 00 00 00	 mov	 ecx, 63			; 0000003fH
  0005d	48 2b c8	 sub	 rcx, rax
  00060	48 8b c1	 mov	 rax, rcx
$LN1@LZCNT_ALT_:

; 450  :         }

  00063	48 8b f8	 mov	 rdi, rax
  00066	48 8d 4d e0	 lea	 rcx, QWORD PTR [rbp-32]
  0006a	48 8d 15 00 00
	00 00		 lea	 rdx, OFFSET FLAT:_LZCNT_ALT_64$rtcFrameData
  00071	e8 00 00 00 00	 call	 _RTC_CheckStackVars
  00076	48 8b c7	 mov	 rax, rdi
  00079	48 8d a5 e8 00
	00 00		 lea	 rsp, QWORD PTR [rbp+232]
  00080	5f		 pop	 rdi
  00081	5d		 pop	 rbp
  00082	c3		 ret	 0
_LZCNT_ALT_64 ENDP
_TEXT	ENDS
; Function compile flags: /Odtp /RTCsu /ZI
; File z:\sources\lunor\repos\rougemeilland\palmtree.math.core.uint\palmtree.math.core.uint\pmc_inline_func.h
;	COMDAT _LZCNT_ALT_32
_TEXT	SEGMENT
pos$ = 4
x$ = 256
_LZCNT_ALT_32 PROC					; COMDAT

; 421  :         {

  00000	89 4c 24 08	 mov	 DWORD PTR [rsp+8], ecx
  00004	55		 push	 rbp
  00005	57		 push	 rdi
  00006	48 81 ec 08 01
	00 00		 sub	 rsp, 264		; 00000108H
  0000d	48 8d 6c 24 20	 lea	 rbp, QWORD PTR [rsp+32]
  00012	48 8b fc	 mov	 rdi, rsp
  00015	b9 42 00 00 00	 mov	 ecx, 66			; 00000042H
  0001a	b8 cc cc cc cc	 mov	 eax, -858993460		; ccccccccH
  0001f	f3 ab		 rep stosd
  00021	8b 8c 24 28 01
	00 00		 mov	 ecx, DWORD PTR [rsp+296]
  00028	48 8d 0d 00 00
	00 00		 lea	 rcx, OFFSET FLAT:__8CA3E54E_pmc_inline_func@h
  0002f	e8 00 00 00 00	 call	 __CheckForDebuggerJustMyCode

; 422  :             if (x == 0)

  00034	83 bd 00 01 00
	00 00		 cmp	 DWORD PTR x$[rbp], 0
  0003b	75 07		 jne	 SHORT $LN2@LZCNT_ALT_

; 423  :                 return (sizeof(x) * 8);

  0003d	b8 20 00 00 00	 mov	 eax, 32			; 00000020H
  00042	eb 1a		 jmp	 SHORT $LN1@LZCNT_ALT_
$LN2@LZCNT_ALT_:

; 424  :             DWORD pos;
; 425  : #ifdef _MSC_VER
; 426  :             _BitScanReverse(&pos, x);

  00044	8b 85 00 01 00
	00		 mov	 eax, DWORD PTR x$[rbp]
  0004a	0f bd c0	 bsr	 eax, eax
  0004d	89 45 04	 mov	 DWORD PTR pos$[rbp], eax

; 427  : #elif defined(__GNUC__)
; 428  :             __asm__("bsrl %1, %0" : "=r"(pos) : "rm"(x));
; 429  : #else
; 430  : #error unknown compiler
; 431  : #endif
; 432  :             return (sizeof(x) * 8 - 1 - pos);

  00050	8b 45 04	 mov	 eax, DWORD PTR pos$[rbp]
  00053	b9 1f 00 00 00	 mov	 ecx, 31
  00058	48 2b c8	 sub	 rcx, rax
  0005b	48 8b c1	 mov	 rax, rcx
$LN1@LZCNT_ALT_:

; 433  :         }

  0005e	48 8b f8	 mov	 rdi, rax
  00061	48 8d 4d e0	 lea	 rcx, QWORD PTR [rbp-32]
  00065	48 8d 15 00 00
	00 00		 lea	 rdx, OFFSET FLAT:_LZCNT_ALT_32$rtcFrameData
  0006c	e8 00 00 00 00	 call	 _RTC_CheckStackVars
  00071	48 8b c7	 mov	 rax, rdi
  00074	48 8d a5 e8 00
	00 00		 lea	 rsp, QWORD PTR [rbp+232]
  0007b	5f		 pop	 rdi
  0007c	5d		 pop	 rbp
  0007d	c3		 ret	 0
_LZCNT_ALT_32 ENDP
_TEXT	ENDS
; Function compile flags: /Odtp /RTCsu /ZI
; File z:\sources\lunor\repos\rougemeilland\palmtree.math.core.uint\palmtree.math.core.uint\pmc_inline_func.h
;	COMDAT _ZERO_MEMORY_UNIT
_TEXT	SEGMENT
d$ = 224
count$ = 232
_ZERO_MEMORY_UNIT PROC					; COMDAT

; 96   :         {

  00000	48 89 54 24 10	 mov	 QWORD PTR [rsp+16], rdx
  00005	48 89 4c 24 08	 mov	 QWORD PTR [rsp+8], rcx
  0000a	55		 push	 rbp
  0000b	57		 push	 rdi
  0000c	48 81 ec e8 00
	00 00		 sub	 rsp, 232		; 000000e8H
  00013	48 8d 6c 24 20	 lea	 rbp, QWORD PTR [rsp+32]
  00018	48 8b fc	 mov	 rdi, rsp
  0001b	b9 3a 00 00 00	 mov	 ecx, 58			; 0000003aH
  00020	b8 cc cc cc cc	 mov	 eax, -858993460		; ccccccccH
  00025	f3 ab		 rep stosd
  00027	48 8b 8c 24 08
	01 00 00	 mov	 rcx, QWORD PTR [rsp+264]
  0002f	48 8d 0d 00 00
	00 00		 lea	 rcx, OFFSET FLAT:__8CA3E54E_pmc_inline_func@h
  00036	e8 00 00 00 00	 call	 __CheckForDebuggerJustMyCode

; 97   : #ifdef _M_IX86
; 98   :             __stosd((unsigned long*)d, 0, (unsigned long)count);
; 99   : #elif defined(_M_X64)
; 100  :             __stosq(d, 0, count);

  0003b	48 8b bd e0 00
	00 00		 mov	 rdi, QWORD PTR d$[rbp]
  00042	33 c0		 xor	 eax, eax
  00044	48 8b 8d e8 00
	00 00		 mov	 rcx, QWORD PTR count$[rbp]
  0004b	f3 48 ab	 rep stosq

; 101  : #else
; 102  : #error unknown platform
; 103  : #endif
; 104  :         }

  0004e	48 8d a5 c8 00
	00 00		 lea	 rsp, QWORD PTR [rbp+200]
  00055	5f		 pop	 rdi
  00056	5d		 pop	 rbp
  00057	c3		 ret	 0
_ZERO_MEMORY_UNIT ENDP
_TEXT	ENDS
; Function compile flags: /Odtp /RTCsu /ZI
; File z:\sources\lunor\repos\rougemeilland\palmtree.math.core.uint\palmtree.math.core.uint\pmc_inline_func.h
;	COMDAT _COPY_MEMORY_UNIT
_TEXT	SEGMENT
d$ = 224
s$ = 232
count$ = 240
_COPY_MEMORY_UNIT PROC					; COMDAT

; 63   :         {

  00000	4c 89 44 24 18	 mov	 QWORD PTR [rsp+24], r8
  00005	48 89 54 24 10	 mov	 QWORD PTR [rsp+16], rdx
  0000a	48 89 4c 24 08	 mov	 QWORD PTR [rsp+8], rcx
  0000f	55		 push	 rbp
  00010	56		 push	 rsi
  00011	57		 push	 rdi
  00012	48 81 ec e0 00
	00 00		 sub	 rsp, 224		; 000000e0H
  00019	48 8d 6c 24 20	 lea	 rbp, QWORD PTR [rsp+32]
  0001e	48 8b fc	 mov	 rdi, rsp
  00021	b9 38 00 00 00	 mov	 ecx, 56			; 00000038H
  00026	b8 cc cc cc cc	 mov	 eax, -858993460		; ccccccccH
  0002b	f3 ab		 rep stosd
  0002d	48 8b 8c 24 08
	01 00 00	 mov	 rcx, QWORD PTR [rsp+264]
  00035	48 8d 0d 00 00
	00 00		 lea	 rcx, OFFSET FLAT:__8CA3E54E_pmc_inline_func@h
  0003c	e8 00 00 00 00	 call	 __CheckForDebuggerJustMyCode

; 64   : #ifdef _M_IX86
; 65   :             __movsd((unsigned long *)d, (unsigned long *)s, (unsigned long)count);
; 66   : #elif defined(_M_X64)
; 67   :             __movsq(d, s, count);

  00041	48 8b bd e0 00
	00 00		 mov	 rdi, QWORD PTR d$[rbp]
  00048	48 8b b5 e8 00
	00 00		 mov	 rsi, QWORD PTR s$[rbp]
  0004f	48 8b 8d f0 00
	00 00		 mov	 rcx, QWORD PTR count$[rbp]
  00056	f3 48 a5	 rep movsq

; 68   : #else
; 69   : #error unknown platform
; 70   : #endif
; 71   :         }

  00059	48 8d a5 c0 00
	00 00		 lea	 rsp, QWORD PTR [rbp+192]
  00060	5f		 pop	 rdi
  00061	5e		 pop	 rsi
  00062	5d		 pop	 rbp
  00063	c3		 ret	 0
_COPY_MEMORY_UNIT ENDP
_TEXT	ENDS
; Function compile flags: /Odtp /RTCsu /ZI
; File z:\sources\lunor\repos\rougemeilland\palmtree.math.core.uint\palmtree.math.core.uint\pmc_pow.cpp
;	COMDAT ?PMC_Pow_X_L@Internal@Core@Math@Palmtree@@YAPEAU__tag_PMC_HANDLE_UINT@1234@PEAU51234@_K@Z
_TEXT	SEGMENT
root$ = 8
r$ = 72
$T4 = 296
$T5 = 376
$T6 = 456
$T7 = 488
v$ = 544
e$ = 552
?PMC_Pow_X_L@Internal@Core@Math@Palmtree@@YAPEAU__tag_PMC_HANDLE_UINT@1234@PEAU51234@_K@Z PROC ; Palmtree::Math::Core::Internal::PMC_Pow_X_L, COMDAT

; 295  :     {

$LN7:
  00000	48 89 54 24 10	 mov	 QWORD PTR [rsp+16], rdx
  00005	48 89 4c 24 08	 mov	 QWORD PTR [rsp+8], rcx
  0000a	55		 push	 rbp
  0000b	57		 push	 rdi
  0000c	48 81 ec 28 02
	00 00		 sub	 rsp, 552		; 00000228H
  00013	48 8d 6c 24 20	 lea	 rbp, QWORD PTR [rsp+32]
  00018	48 8b fc	 mov	 rdi, rsp
  0001b	b9 8a 00 00 00	 mov	 ecx, 138		; 0000008aH
  00020	b8 cc cc cc cc	 mov	 eax, -858993460		; ccccccccH
  00025	f3 ab		 rep stosd
  00027	48 8b 8c 24 48
	02 00 00	 mov	 rcx, QWORD PTR [rsp+584]
  0002f	48 c7 85 e8 01
	00 00 fe ff ff
	ff		 mov	 QWORD PTR $T7[rbp], -2
  0003a	48 8d 0d 00 00
	00 00		 lea	 rcx, OFFSET FLAT:__235E20A6_pmc_pow@cpp
  00041	e8 00 00 00 00	 call	 __CheckForDebuggerJustMyCode

; 296  : #ifdef _M_X64
; 297  :         if (__UNIT_TYPE_BIT_COUNT < sizeof(e) * 8)

  00046	33 c0		 xor	 eax, eax
  00048	85 c0		 test	 eax, eax
  0004a	74 2d		 je	 SHORT $LN2@PMC_Pow_X_

; 298  :         {
; 299  :             // _UINT32_T  1 
; 300  :             throw InternalErrorException(L"", L"pmc_pow.cpp;PMC_Pow_X_I;1");

  0004c	4c 8d 05 00 00
	00 00		 lea	 r8, OFFSET FLAT:??_C@_1DE@MHCFCIPE@?$AAp?$AAm?$AAc?$AA_?$AAp?$AAo?$AAw?$AA?4?$AAc?$AAp?$AAp?$AA?$DL?$AAP?$AAM?$AAC@
  00053	48 8d 15 00 00
	00 00		 lea	 rdx, OFFSET FLAT:??_C@_1CG@CNOPPENL@?$PP?$II?$AA?$BP?$AAW?$AAf?$AAD?$AAj?$AAD?$PP?$LD?$PP?$PM?$PP?I?$AAk?$AA0?$AAT?$AAW?$AA?$HO@
  0005a	48 8d 8d 28 01
	00 00		 lea	 rcx, QWORD PTR $T4[rbp]
  00061	e8 00 00 00 00	 call	 ??0InternalErrorException@Internal@Core@Math@Palmtree@@QEAA@PEB_W0@Z ; Palmtree::Math::Core::Internal::InternalErrorException::InternalErrorException
  00066	48 8d 15 00 00
	00 00		 lea	 rdx, OFFSET FLAT:_TI2?AVInternalErrorException@Internal@Core@Math@Palmtree@@
  0006d	48 8d 8d 28 01
	00 00		 lea	 rcx, QWORD PTR $T4[rbp]
  00074	e8 00 00 00 00	 call	 _CxxThrowException
$LN2@PMC_Pow_X_:

; 301  :         }
; 302  :         if (v == nullptr)

  00079	48 83 bd 20 02
	00 00 00	 cmp	 QWORD PTR v$[rbp], 0
  00081	75 2d		 jne	 SHORT $LN3@PMC_Pow_X_

; 303  :             throw ArgumentNullException(L"nullptr", L"v");

  00083	4c 8d 05 00 00
	00 00		 lea	 r8, OFFSET FLAT:??_C@_13JAOPNPKD@?$AAv@
  0008a	48 8d 15 00 00
	00 00		 lea	 rdx, OFFSET FLAT:??_C@_1CK@ECFIEPAC@?$AA?$BF?$AAp?$AAk?$AAn?$AAu?$AAl?$AAl?$AAp?$AAt?$AAr?$AAL?$AA?$AO?$AAH?$PP?$IJ?$PP?$IM@
  00091	48 8d 8d 78 01
	00 00		 lea	 rcx, QWORD PTR $T5[rbp]
  00098	e8 00 00 00 00	 call	 ??0ArgumentNullException@Internal@Core@Math@Palmtree@@QEAA@PEB_W0@Z ; Palmtree::Math::Core::Internal::ArgumentNullException::ArgumentNullException
  0009d	48 8d 15 00 00
	00 00		 lea	 rdx, OFFSET FLAT:_TI2?AVArgumentNullException@Internal@Core@Math@Palmtree@@
  000a4	48 8d 8d 78 01
	00 00		 lea	 rcx, QWORD PTR $T5[rbp]
  000ab	e8 00 00 00 00	 call	 _CxxThrowException
$LN3@PMC_Pow_X_:

; 304  :         CheckNumber((NUMBER_HEADER*)v);

  000b0	48 8b 8d 20 02
	00 00		 mov	 rcx, QWORD PTR v$[rbp]
  000b7	e8 00 00 00 00	 call	 ?CheckNumber@Internal@Core@Math@Palmtree@@YAXPEAU__tag_NUMBER_HEADER@1234@@Z ; Palmtree::Math::Core::Internal::CheckNumber

; 305  :         ResourceHolderUINT root;

  000bc	48 8d 4d 08	 lea	 rcx, QWORD PTR root$[rbp]
  000c0	e8 00 00 00 00	 call	 ??0ResourceHolderUINT@Internal@Core@Math@Palmtree@@QEAA@XZ ; Palmtree::Math::Core::Internal::ResourceHolderUINT::ResourceHolderUINT
  000c5	90		 npad	 1

; 306  :         NUMBER_HEADER* r = PMC_Pow_X_L_Imp((NUMBER_HEADER*)v, e);

  000c6	48 8b 95 28 02
	00 00		 mov	 rdx, QWORD PTR e$[rbp]
  000cd	48 8b 8d 20 02
	00 00		 mov	 rcx, QWORD PTR v$[rbp]
  000d4	e8 00 00 00 00	 call	 ?PMC_Pow_X_L_Imp@Internal@Core@Math@Palmtree@@YAPEAU__tag_NUMBER_HEADER@1234@PEAU51234@_K@Z ; Palmtree::Math::Core::Internal::PMC_Pow_X_L_Imp
  000d9	48 89 45 48	 mov	 QWORD PTR r$[rbp], rax

; 307  :         root.HookNumber(r);

  000dd	48 8b 55 48	 mov	 rdx, QWORD PTR r$[rbp]
  000e1	48 8d 4d 08	 lea	 rcx, QWORD PTR root$[rbp]
  000e5	e8 00 00 00 00	 call	 ?HookNumber@ResourceHolderUINT@Internal@Core@Math@Palmtree@@QEAAXPEAU__tag_NUMBER_HEADER@2345@@Z ; Palmtree::Math::Core::Internal::ResourceHolderUINT::HookNumber

; 308  : #ifdef _DEBUG
; 309  :         CheckNumber(r);

  000ea	48 8b 4d 48	 mov	 rcx, QWORD PTR r$[rbp]
  000ee	e8 00 00 00 00	 call	 ?CheckNumber@Internal@Core@Math@Palmtree@@YAXPEAU__tag_NUMBER_HEADER@1234@@Z ; Palmtree::Math::Core::Internal::CheckNumber

; 310  : #endif
; 311  :         root.UnlinkNumber(r);

  000f3	48 8b 55 48	 mov	 rdx, QWORD PTR r$[rbp]
  000f7	48 8d 4d 08	 lea	 rcx, QWORD PTR root$[rbp]
  000fb	e8 00 00 00 00	 call	 ?UnlinkNumber@ResourceHolderUINT@Internal@Core@Math@Palmtree@@QEAAXPEAU__tag_NUMBER_HEADER@2345@@Z ; Palmtree::Math::Core::Internal::ResourceHolderUINT::UnlinkNumber

; 312  :         return ((PMC_HANDLE_UINT)r);

  00100	48 8b 45 48	 mov	 rax, QWORD PTR r$[rbp]
  00104	48 89 85 c8 01
	00 00		 mov	 QWORD PTR $T6[rbp], rax
  0010b	48 8d 4d 08	 lea	 rcx, QWORD PTR root$[rbp]
  0010f	e8 00 00 00 00	 call	 ??1ResourceHolderUINT@Internal@Core@Math@Palmtree@@UEAA@XZ ; Palmtree::Math::Core::Internal::ResourceHolderUINT::~ResourceHolderUINT
  00114	48 8b 85 c8 01
	00 00		 mov	 rax, QWORD PTR $T6[rbp]

; 313  : #else
; 314  :         throw NotSupportedException(L"");
; 315  : #endif
; 316  :     }

  0011b	48 8b f8	 mov	 rdi, rax
  0011e	48 8d 4d e0	 lea	 rcx, QWORD PTR [rbp-32]
  00122	48 8d 15 00 00
	00 00		 lea	 rdx, OFFSET FLAT:?PMC_Pow_X_L@Internal@Core@Math@Palmtree@@YAPEAU__tag_PMC_HANDLE_UINT@1234@PEAU51234@_K@Z$rtcFrameData
  00129	e8 00 00 00 00	 call	 _RTC_CheckStackVars
  0012e	48 8b c7	 mov	 rax, rdi
  00131	48 8d a5 08 02
	00 00		 lea	 rsp, QWORD PTR [rbp+520]
  00138	5f		 pop	 rdi
  00139	5d		 pop	 rbp
  0013a	c3		 ret	 0
$LN6@PMC_Pow_X_:
?PMC_Pow_X_L@Internal@Core@Math@Palmtree@@YAPEAU__tag_PMC_HANDLE_UINT@1234@PEAU51234@_K@Z ENDP ; Palmtree::Math::Core::Internal::PMC_Pow_X_L
_TEXT	ENDS
;	COMDAT text$x
text$x	SEGMENT
root$ = 8
r$ = 72
$T4 = 296
$T5 = 376
$T6 = 456
$T7 = 488
v$ = 544
e$ = 552
?dtor$0@?0??PMC_Pow_X_L@Internal@Core@Math@Palmtree@@YAPEAU__tag_PMC_HANDLE_UINT@1234@PEAU51234@_K@Z@4HA PROC ; `Palmtree::Math::Core::Internal::PMC_Pow_X_L'::`1'::dtor$0
  00000	48 89 4c 24 08	 mov	 QWORD PTR [rsp+8], rcx
  00005	48 89 54 24 10	 mov	 QWORD PTR [rsp+16], rdx
  0000a	55		 push	 rbp
  0000b	57		 push	 rdi
  0000c	48 83 ec 28	 sub	 rsp, 40			; 00000028H
  00010	48 8d 6a 20	 lea	 rbp, QWORD PTR [rdx+32]
  00014	48 8d 4d 08	 lea	 rcx, QWORD PTR root$[rbp]
  00018	e8 00 00 00 00	 call	 ??1ResourceHolderUINT@Internal@Core@Math@Palmtree@@UEAA@XZ ; Palmtree::Math::Core::Internal::ResourceHolderUINT::~ResourceHolderUINT
  0001d	48 83 c4 28	 add	 rsp, 40			; 00000028H
  00021	5f		 pop	 rdi
  00022	5d		 pop	 rbp
  00023	c3		 ret	 0
?dtor$0@?0??PMC_Pow_X_L@Internal@Core@Math@Palmtree@@YAPEAU__tag_PMC_HANDLE_UINT@1234@PEAU51234@_K@Z@4HA ENDP ; `Palmtree::Math::Core::Internal::PMC_Pow_X_L'::`1'::dtor$0
text$x	ENDS
; Function compile flags: /Odtp /RTCsu /ZI
;	COMDAT text$x
text$x	SEGMENT
root$ = 8
r$ = 72
$T4 = 296
$T5 = 376
$T6 = 456
$T7 = 488
v$ = 544
e$ = 552
?dtor$0@?0??PMC_Pow_X_L@Internal@Core@Math@Palmtree@@YAPEAU__tag_PMC_HANDLE_UINT@1234@PEAU51234@_K@Z@4HA PROC ; `Palmtree::Math::Core::Internal::PMC_Pow_X_L'::`1'::dtor$0
  00000	48 89 4c 24 08	 mov	 QWORD PTR [rsp+8], rcx
  00005	48 89 54 24 10	 mov	 QWORD PTR [rsp+16], rdx
  0000a	55		 push	 rbp
  0000b	57		 push	 rdi
  0000c	48 83 ec 28	 sub	 rsp, 40			; 00000028H
  00010	48 8d 6a 20	 lea	 rbp, QWORD PTR [rdx+32]
  00014	48 8d 4d 08	 lea	 rcx, QWORD PTR root$[rbp]
  00018	e8 00 00 00 00	 call	 ??1ResourceHolderUINT@Internal@Core@Math@Palmtree@@UEAA@XZ ; Palmtree::Math::Core::Internal::ResourceHolderUINT::~ResourceHolderUINT
  0001d	48 83 c4 28	 add	 rsp, 40			; 00000028H
  00021	5f		 pop	 rdi
  00022	5d		 pop	 rbp
  00023	c3		 ret	 0
?dtor$0@?0??PMC_Pow_X_L@Internal@Core@Math@Palmtree@@YAPEAU__tag_PMC_HANDLE_UINT@1234@PEAU51234@_K@Z@4HA ENDP ; `Palmtree::Math::Core::Internal::PMC_Pow_X_L'::`1'::dtor$0
text$x	ENDS
; Function compile flags: /Odtp /RTCsu /ZI
; File z:\sources\lunor\repos\rougemeilland\palmtree.math.core.uint\palmtree.math.core.uint\pmc_pow.cpp
;	COMDAT ?PMC_Pow_X_I@Internal@Core@Math@Palmtree@@YAPEAU__tag_PMC_HANDLE_UINT@1234@PEAU51234@I@Z
_TEXT	SEGMENT
root$ = 8
r$ = 72
$T4 = 296
$T5 = 376
$T6 = 456
$T7 = 488
v$ = 544
e$ = 552
?PMC_Pow_X_I@Internal@Core@Math@Palmtree@@YAPEAU__tag_PMC_HANDLE_UINT@1234@PEAU51234@I@Z PROC ; Palmtree::Math::Core::Internal::PMC_Pow_X_I, COMDAT

; 275  :     {

$LN7:
  00000	89 54 24 10	 mov	 DWORD PTR [rsp+16], edx
  00004	48 89 4c 24 08	 mov	 QWORD PTR [rsp+8], rcx
  00009	55		 push	 rbp
  0000a	57		 push	 rdi
  0000b	48 81 ec 28 02
	00 00		 sub	 rsp, 552		; 00000228H
  00012	48 8d 6c 24 20	 lea	 rbp, QWORD PTR [rsp+32]
  00017	48 8b fc	 mov	 rdi, rsp
  0001a	b9 8a 00 00 00	 mov	 ecx, 138		; 0000008aH
  0001f	b8 cc cc cc cc	 mov	 eax, -858993460		; ccccccccH
  00024	f3 ab		 rep stosd
  00026	48 8b 8c 24 48
	02 00 00	 mov	 rcx, QWORD PTR [rsp+584]
  0002e	48 c7 85 e8 01
	00 00 fe ff ff
	ff		 mov	 QWORD PTR $T7[rbp], -2
  00039	48 8d 0d 00 00
	00 00		 lea	 rcx, OFFSET FLAT:__235E20A6_pmc_pow@cpp
  00040	e8 00 00 00 00	 call	 __CheckForDebuggerJustMyCode

; 276  :         if (__UNIT_TYPE_BIT_COUNT < sizeof(e) * 8)

  00045	33 c0		 xor	 eax, eax
  00047	85 c0		 test	 eax, eax
  00049	74 2d		 je	 SHORT $LN2@PMC_Pow_X_

; 277  :         {
; 278  :             // _UINT32_T  1 
; 279  :             throw InternalErrorException(L"", L"pmc_pow.cpp;PMC_Pow_X_I;1");

  0004b	4c 8d 05 00 00
	00 00		 lea	 r8, OFFSET FLAT:??_C@_1DE@MHCFCIPE@?$AAp?$AAm?$AAc?$AA_?$AAp?$AAo?$AAw?$AA?4?$AAc?$AAp?$AAp?$AA?$DL?$AAP?$AAM?$AAC@
  00052	48 8d 15 00 00
	00 00		 lea	 rdx, OFFSET FLAT:??_C@_1CG@CNOPPENL@?$PP?$II?$AA?$BP?$AAW?$AAf?$AAD?$AAj?$AAD?$PP?$LD?$PP?$PM?$PP?I?$AAk?$AA0?$AAT?$AAW?$AA?$HO@
  00059	48 8d 8d 28 01
	00 00		 lea	 rcx, QWORD PTR $T4[rbp]
  00060	e8 00 00 00 00	 call	 ??0InternalErrorException@Internal@Core@Math@Palmtree@@QEAA@PEB_W0@Z ; Palmtree::Math::Core::Internal::InternalErrorException::InternalErrorException
  00065	48 8d 15 00 00
	00 00		 lea	 rdx, OFFSET FLAT:_TI2?AVInternalErrorException@Internal@Core@Math@Palmtree@@
  0006c	48 8d 8d 28 01
	00 00		 lea	 rcx, QWORD PTR $T4[rbp]
  00073	e8 00 00 00 00	 call	 _CxxThrowException
$LN2@PMC_Pow_X_:

; 280  :         }
; 281  :         if (v == nullptr)

  00078	48 83 bd 20 02
	00 00 00	 cmp	 QWORD PTR v$[rbp], 0
  00080	75 2d		 jne	 SHORT $LN3@PMC_Pow_X_

; 282  :             throw ArgumentNullException(L"nullptr", L"v");

  00082	4c 8d 05 00 00
	00 00		 lea	 r8, OFFSET FLAT:??_C@_13JAOPNPKD@?$AAv@
  00089	48 8d 15 00 00
	00 00		 lea	 rdx, OFFSET FLAT:??_C@_1CK@ECFIEPAC@?$AA?$BF?$AAp?$AAk?$AAn?$AAu?$AAl?$AAl?$AAp?$AAt?$AAr?$AAL?$AA?$AO?$AAH?$PP?$IJ?$PP?$IM@
  00090	48 8d 8d 78 01
	00 00		 lea	 rcx, QWORD PTR $T5[rbp]
  00097	e8 00 00 00 00	 call	 ??0ArgumentNullException@Internal@Core@Math@Palmtree@@QEAA@PEB_W0@Z ; Palmtree::Math::Core::Internal::ArgumentNullException::ArgumentNullException
  0009c	48 8d 15 00 00
	00 00		 lea	 rdx, OFFSET FLAT:_TI2?AVArgumentNullException@Internal@Core@Math@Palmtree@@
  000a3	48 8d 8d 78 01
	00 00		 lea	 rcx, QWORD PTR $T5[rbp]
  000aa	e8 00 00 00 00	 call	 _CxxThrowException
$LN3@PMC_Pow_X_:

; 283  :         CheckNumber((NUMBER_HEADER*)v);

  000af	48 8b 8d 20 02
	00 00		 mov	 rcx, QWORD PTR v$[rbp]
  000b6	e8 00 00 00 00	 call	 ?CheckNumber@Internal@Core@Math@Palmtree@@YAXPEAU__tag_NUMBER_HEADER@1234@@Z ; Palmtree::Math::Core::Internal::CheckNumber

; 284  :         ResourceHolderUINT root;

  000bb	48 8d 4d 08	 lea	 rcx, QWORD PTR root$[rbp]
  000bf	e8 00 00 00 00	 call	 ??0ResourceHolderUINT@Internal@Core@Math@Palmtree@@QEAA@XZ ; Palmtree::Math::Core::Internal::ResourceHolderUINT::ResourceHolderUINT
  000c4	90		 npad	 1

; 285  :         NUMBER_HEADER* r = PMC_Pow_X_I_Imp((NUMBER_HEADER*)v, e);

  000c5	8b 95 28 02 00
	00		 mov	 edx, DWORD PTR e$[rbp]
  000cb	48 8b 8d 20 02
	00 00		 mov	 rcx, QWORD PTR v$[rbp]
  000d2	e8 00 00 00 00	 call	 ?PMC_Pow_X_I_Imp@Internal@Core@Math@Palmtree@@YAPEAU__tag_NUMBER_HEADER@1234@PEAU51234@I@Z ; Palmtree::Math::Core::Internal::PMC_Pow_X_I_Imp
  000d7	48 89 45 48	 mov	 QWORD PTR r$[rbp], rax

; 286  :         root.HookNumber(r);

  000db	48 8b 55 48	 mov	 rdx, QWORD PTR r$[rbp]
  000df	48 8d 4d 08	 lea	 rcx, QWORD PTR root$[rbp]
  000e3	e8 00 00 00 00	 call	 ?HookNumber@ResourceHolderUINT@Internal@Core@Math@Palmtree@@QEAAXPEAU__tag_NUMBER_HEADER@2345@@Z ; Palmtree::Math::Core::Internal::ResourceHolderUINT::HookNumber

; 287  : #ifdef _DEBUG
; 288  :         CheckNumber(r);

  000e8	48 8b 4d 48	 mov	 rcx, QWORD PTR r$[rbp]
  000ec	e8 00 00 00 00	 call	 ?CheckNumber@Internal@Core@Math@Palmtree@@YAXPEAU__tag_NUMBER_HEADER@1234@@Z ; Palmtree::Math::Core::Internal::CheckNumber

; 289  : #endif
; 290  :         root.UnlinkNumber(r);

  000f1	48 8b 55 48	 mov	 rdx, QWORD PTR r$[rbp]
  000f5	48 8d 4d 08	 lea	 rcx, QWORD PTR root$[rbp]
  000f9	e8 00 00 00 00	 call	 ?UnlinkNumber@ResourceHolderUINT@Internal@Core@Math@Palmtree@@QEAAXPEAU__tag_NUMBER_HEADER@2345@@Z ; Palmtree::Math::Core::Internal::ResourceHolderUINT::UnlinkNumber

; 291  :         return ((PMC_HANDLE_UINT)r);

  000fe	48 8b 45 48	 mov	 rax, QWORD PTR r$[rbp]
  00102	48 89 85 c8 01
	00 00		 mov	 QWORD PTR $T6[rbp], rax
  00109	48 8d 4d 08	 lea	 rcx, QWORD PTR root$[rbp]
  0010d	e8 00 00 00 00	 call	 ??1ResourceHolderUINT@Internal@Core@Math@Palmtree@@UEAA@XZ ; Palmtree::Math::Core::Internal::ResourceHolderUINT::~ResourceHolderUINT
  00112	48 8b 85 c8 01
	00 00		 mov	 rax, QWORD PTR $T6[rbp]

; 292  :     }

  00119	48 8b f8	 mov	 rdi, rax
  0011c	48 8d 4d e0	 lea	 rcx, QWORD PTR [rbp-32]
  00120	48 8d 15 00 00
	00 00		 lea	 rdx, OFFSET FLAT:?PMC_Pow_X_I@Internal@Core@Math@Palmtree@@YAPEAU__tag_PMC_HANDLE_UINT@1234@PEAU51234@I@Z$rtcFrameData
  00127	e8 00 00 00 00	 call	 _RTC_CheckStackVars
  0012c	48 8b c7	 mov	 rax, rdi
  0012f	48 8d a5 08 02
	00 00		 lea	 rsp, QWORD PTR [rbp+520]
  00136	5f		 pop	 rdi
  00137	5d		 pop	 rbp
  00138	c3		 ret	 0
$LN6@PMC_Pow_X_:
?PMC_Pow_X_I@Internal@Core@Math@Palmtree@@YAPEAU__tag_PMC_HANDLE_UINT@1234@PEAU51234@I@Z ENDP ; Palmtree::Math::Core::Internal::PMC_Pow_X_I
_TEXT	ENDS
;	COMDAT text$x
text$x	SEGMENT
root$ = 8
r$ = 72
$T4 = 296
$T5 = 376
$T6 = 456
$T7 = 488
v$ = 544
e$ = 552
?dtor$0@?0??PMC_Pow_X_I@Internal@Core@Math@Palmtree@@YAPEAU__tag_PMC_HANDLE_UINT@1234@PEAU51234@I@Z@4HA PROC ; `Palmtree::Math::Core::Internal::PMC_Pow_X_I'::`1'::dtor$0
  00000	48 89 4c 24 08	 mov	 QWORD PTR [rsp+8], rcx
  00005	48 89 54 24 10	 mov	 QWORD PTR [rsp+16], rdx
  0000a	55		 push	 rbp
  0000b	57		 push	 rdi
  0000c	48 83 ec 28	 sub	 rsp, 40			; 00000028H
  00010	48 8d 6a 20	 lea	 rbp, QWORD PTR [rdx+32]
  00014	48 8d 4d 08	 lea	 rcx, QWORD PTR root$[rbp]
  00018	e8 00 00 00 00	 call	 ??1ResourceHolderUINT@Internal@Core@Math@Palmtree@@UEAA@XZ ; Palmtree::Math::Core::Internal::ResourceHolderUINT::~ResourceHolderUINT
  0001d	48 83 c4 28	 add	 rsp, 40			; 00000028H
  00021	5f		 pop	 rdi
  00022	5d		 pop	 rbp
  00023	c3		 ret	 0
?dtor$0@?0??PMC_Pow_X_I@Internal@Core@Math@Palmtree@@YAPEAU__tag_PMC_HANDLE_UINT@1234@PEAU51234@I@Z@4HA ENDP ; `Palmtree::Math::Core::Internal::PMC_Pow_X_I'::`1'::dtor$0
text$x	ENDS
; Function compile flags: /Odtp /RTCsu /ZI
;	COMDAT text$x
text$x	SEGMENT
root$ = 8
r$ = 72
$T4 = 296
$T5 = 376
$T6 = 456
$T7 = 488
v$ = 544
e$ = 552
?dtor$0@?0??PMC_Pow_X_I@Internal@Core@Math@Palmtree@@YAPEAU__tag_PMC_HANDLE_UINT@1234@PEAU51234@I@Z@4HA PROC ; `Palmtree::Math::Core::Internal::PMC_Pow_X_I'::`1'::dtor$0
  00000	48 89 4c 24 08	 mov	 QWORD PTR [rsp+8], rcx
  00005	48 89 54 24 10	 mov	 QWORD PTR [rsp+16], rdx
  0000a	55		 push	 rbp
  0000b	57		 push	 rdi
  0000c	48 83 ec 28	 sub	 rsp, 40			; 00000028H
  00010	48 8d 6a 20	 lea	 rbp, QWORD PTR [rdx+32]
  00014	48 8d 4d 08	 lea	 rcx, QWORD PTR root$[rbp]
  00018	e8 00 00 00 00	 call	 ??1ResourceHolderUINT@Internal@Core@Math@Palmtree@@UEAA@XZ ; Palmtree::Math::Core::Internal::ResourceHolderUINT::~ResourceHolderUINT
  0001d	48 83 c4 28	 add	 rsp, 40			; 00000028H
  00021	5f		 pop	 rdi
  00022	5d		 pop	 rbp
  00023	c3		 ret	 0
?dtor$0@?0??PMC_Pow_X_I@Internal@Core@Math@Palmtree@@YAPEAU__tag_PMC_HANDLE_UINT@1234@PEAU51234@I@Z@4HA ENDP ; `Palmtree::Math::Core::Internal::PMC_Pow_X_I'::`1'::dtor$0
text$x	ENDS
; Function compile flags: /Odtp /RTCsu /ZI
; File z:\sources\lunor\repos\rougemeilland\palmtree.math.core.uint\palmtree.math.core.uint\pmc_pow.cpp
;	COMDAT ?Initialize_Pow@Internal@Core@Math@Palmtree@@YAHPEAU_tag_PROCESSOR_FEATURES@1234@@Z
_TEXT	SEGMENT
feature$ = 224
?Initialize_Pow@Internal@Core@Math@Palmtree@@YAHPEAU_tag_PROCESSOR_FEATURES@1234@@Z PROC ; Palmtree::Math::Core::Internal::Initialize_Pow, COMDAT

; 319  :     {

$LN3:
  00000	48 89 4c 24 08	 mov	 QWORD PTR [rsp+8], rcx
  00005	55		 push	 rbp
  00006	57		 push	 rdi
  00007	48 81 ec e8 00
	00 00		 sub	 rsp, 232		; 000000e8H
  0000e	48 8d 6c 24 20	 lea	 rbp, QWORD PTR [rsp+32]
  00013	48 8b fc	 mov	 rdi, rsp
  00016	b9 3a 00 00 00	 mov	 ecx, 58			; 0000003aH
  0001b	b8 cc cc cc cc	 mov	 eax, -858993460		; ccccccccH
  00020	f3 ab		 rep stosd
  00022	48 8b 8c 24 08
	01 00 00	 mov	 rcx, QWORD PTR [rsp+264]
  0002a	48 8d 0d 00 00
	00 00		 lea	 rcx, OFFSET FLAT:__235E20A6_pmc_pow@cpp
  00031	e8 00 00 00 00	 call	 __CheckForDebuggerJustMyCode

; 320  :         return (PMC_STATUS_OK);

  00036	33 c0		 xor	 eax, eax

; 321  :     }

  00038	48 8d a5 c8 00
	00 00		 lea	 rsp, QWORD PTR [rbp+200]
  0003f	5f		 pop	 rdi
  00040	5d		 pop	 rbp
  00041	c3		 ret	 0
?Initialize_Pow@Internal@Core@Math@Palmtree@@YAHPEAU_tag_PROCESSOR_FEATURES@1234@@Z ENDP ; Palmtree::Math::Core::Internal::Initialize_Pow
_TEXT	ENDS
; Function compile flags: /Odtp /RTCsu /ZI
; File z:\sources\lunor\repos\rougemeilland\palmtree.math.core.uint\palmtree.math.core.uint\pmc_pow.cpp
;	COMDAT ?PMC_Pow_X_L_Imp@Internal@Core@Math@Palmtree@@YAPEAU__tag_NUMBER_HEADER@1234@PEAU51234@_K@Z
_TEXT	SEGMENT
root$4 = 8
v_bit_count$5 = 72
work_bit_count$6 = 104
work1_buf$7 = 136
work2_buf$8 = 168
r$9 = 200
$T10 = 424
$T11 = 504
$T12 = 584
$T13 = 616
v$ = 672
e$ = 680
?PMC_Pow_X_L_Imp@Internal@Core@Math@Palmtree@@YAPEAU__tag_NUMBER_HEADER@1234@PEAU51234@_K@Z PROC ; Palmtree::Math::Core::Internal::PMC_Pow_X_L_Imp, COMDAT

; 201  :     {

$LN16:
  00000	48 89 54 24 10	 mov	 QWORD PTR [rsp+16], rdx
  00005	48 89 4c 24 08	 mov	 QWORD PTR [rsp+8], rcx
  0000a	55		 push	 rbp
  0000b	57		 push	 rdi
  0000c	48 81 ec b8 02
	00 00		 sub	 rsp, 696		; 000002b8H
  00013	48 8d 6c 24 30	 lea	 rbp, QWORD PTR [rsp+48]
  00018	48 8b fc	 mov	 rdi, rsp
  0001b	b9 ae 00 00 00	 mov	 ecx, 174		; 000000aeH
  00020	b8 cc cc cc cc	 mov	 eax, -858993460		; ccccccccH
  00025	f3 ab		 rep stosd
  00027	48 8b 8c 24 d8
	02 00 00	 mov	 rcx, QWORD PTR [rsp+728]
  0002f	48 c7 85 68 02
	00 00 fe ff ff
	ff		 mov	 QWORD PTR $T13[rbp], -2
  0003a	48 8d 0d 00 00
	00 00		 lea	 rcx, OFFSET FLAT:__235E20A6_pmc_pow@cpp
  00041	e8 00 00 00 00	 call	 __CheckForDebuggerJustMyCode

; 202  :         if (v->IS_ZERO)

  00046	48 8b 85 a0 02
	00 00		 mov	 rax, QWORD PTR v$[rbp]
  0004d	8b 40 08	 mov	 eax, DWORD PTR [rax+8]
  00050	83 e0 01	 and	 eax, 1
  00053	85 c0		 test	 eax, eax
  00055	74 44		 je	 SHORT $LN2@PMC_Pow_X_

; 203  :         {
; 204  :             // v  0 
; 205  : 
; 206  :             if (e == 0)

  00057	48 83 bd a8 02
	00 00 00	 cmp	 QWORD PTR e$[rbp], 0
  0005f	75 29		 jne	 SHORT $LN4@PMC_Pow_X_

; 207  :             {
; 208  :                 // e  0 
; 209  : 
; 210  :                 // 0  0 
; 211  :                 throw ArithmeticException(L"00");

  00061	48 8d 15 00 00
	00 00		 lea	 rdx, OFFSET FLAT:??_C@_1BM@OCOOKOCJ@?$AA0?$AAn?$AA0?$AAW?$AAn?$AA$?$AAo?$AA?$CK?$PP?$JK?$PP?$KJ?$AAg?$AAY?$AA?$AC@
  00068	48 8d 8d a8 01
	00 00		 lea	 rcx, QWORD PTR $T10[rbp]
  0006f	e8 00 00 00 00	 call	 ??0ArithmeticException@Internal@Core@Math@Palmtree@@QEAA@PEB_W@Z ; Palmtree::Math::Core::Internal::ArithmeticException::ArithmeticException
  00074	48 8d 15 00 00
	00 00		 lea	 rdx, OFFSET FLAT:_TI2?AVArithmeticException@Internal@Core@Math@Palmtree@@
  0007b	48 8d 8d a8 01
	00 00		 lea	 rcx, QWORD PTR $T10[rbp]
  00082	e8 00 00 00 00	 call	 _CxxThrowException
  00087	90		 npad	 1

; 212  :             }
; 213  :             else

  00088	eb 0c		 jmp	 SHORT $LN5@PMC_Pow_X_
$LN4@PMC_Pow_X_:

; 214  :             {
; 215  :                 // e  0 
; 216  : 
; 217  :                 return (&number_zero);

  0008a	48 8d 05 00 00
	00 00		 lea	 rax, OFFSET FLAT:?number_zero@Internal@Core@Math@Palmtree@@3U__tag_NUMBER_HEADER@1234@A ; Palmtree::Math::Core::Internal::number_zero
  00091	e9 b8 01 00 00	 jmp	 $LN13@PMC_Pow_X_
$LN5@PMC_Pow_X_:

; 218  :             }

  00096	e9 b3 01 00 00	 jmp	 $LN13@PMC_Pow_X_
$LN2@PMC_Pow_X_:

; 219  :         }
; 220  :         else if (v->IS_ONE)

  0009b	48 8b 85 a0 02
	00 00		 mov	 rax, QWORD PTR v$[rbp]
  000a2	8b 40 08	 mov	 eax, DWORD PTR [rax+8]
  000a5	d1 e8		 shr	 eax, 1
  000a7	83 e0 01	 and	 eax, 1
  000aa	85 c0		 test	 eax, eax
  000ac	74 11		 je	 SHORT $LN6@PMC_Pow_X_

; 221  :         {
; 222  :             // v  1 
; 223  : 
; 224  :             // e  1 
; 225  :             return (&number_one);

  000ae	48 8d 05 00 00
	00 00		 lea	 rax, OFFSET FLAT:?number_one@Internal@Core@Math@Palmtree@@3U__tag_NUMBER_HEADER@1234@A ; Palmtree::Math::Core::Internal::number_one
  000b5	e9 94 01 00 00	 jmp	 $LN13@PMC_Pow_X_

; 226  :         }
; 227  :         else

  000ba	e9 8f 01 00 00	 jmp	 $LN13@PMC_Pow_X_
$LN6@PMC_Pow_X_:

; 228  :         {
; 229  :             // v  2 
; 230  : 
; 231  :             if (e == 0)

  000bf	48 83 bd a8 02
	00 00 00	 cmp	 QWORD PTR e$[rbp], 0
  000c7	75 11		 jne	 SHORT $LN8@PMC_Pow_X_

; 232  :             {
; 233  :                 // e  0 
; 234  : 
; 235  :                 //  1 
; 236  :                 return (&number_one);

  000c9	48 8d 05 00 00
	00 00		 lea	 rax, OFFSET FLAT:?number_one@Internal@Core@Math@Palmtree@@3U__tag_NUMBER_HEADER@1234@A ; Palmtree::Math::Core::Internal::number_one
  000d0	e9 79 01 00 00	 jmp	 $LN13@PMC_Pow_X_
  000d5	e9 74 01 00 00	 jmp	 $LN13@PMC_Pow_X_
$LN8@PMC_Pow_X_:

; 237  :             }
; 238  :             else if (e == 1)

  000da	48 83 bd a8 02
	00 00 01	 cmp	 QWORD PTR e$[rbp], 1
  000e2	75 16		 jne	 SHORT $LN10@PMC_Pow_X_

; 239  :             {
; 240  :                 // e  1 
; 241  : 
; 242  :                 //  v 
; 243  :                 return (DuplicateNumber(v));

  000e4	48 8b 8d a0 02
	00 00		 mov	 rcx, QWORD PTR v$[rbp]
  000eb	e8 00 00 00 00	 call	 ?DuplicateNumber@Internal@Core@Math@Palmtree@@YAPEAU__tag_NUMBER_HEADER@1234@PEAU51234@@Z ; Palmtree::Math::Core::Internal::DuplicateNumber
  000f0	e9 59 01 00 00	 jmp	 $LN13@PMC_Pow_X_

; 244  :             }
; 245  :             else

  000f5	e9 54 01 00 00	 jmp	 $LN13@PMC_Pow_X_
$LN10@PMC_Pow_X_:

; 246  :             {
; 247  :                 // v  e  2 
; 248  : 
; 249  :                 // v  e 
; 250  :                 ResourceHolderUINT root;

  000fa	48 8d 4d 08	 lea	 rcx, QWORD PTR root$4[rbp]
  000fe	e8 00 00 00 00	 call	 ??0ResourceHolderUINT@Internal@Core@Math@Palmtree@@QEAA@XZ ; Palmtree::Math::Core::Internal::ResourceHolderUINT::ResourceHolderUINT
  00103	90		 npad	 1

; 251  :                 __UNIT_TYPE v_bit_count = v->UNIT_BIT_COUNT;

  00104	48 8b 85 a0 02
	00 00		 mov	 rax, QWORD PTR v$[rbp]
  0010b	48 8b 40 20	 mov	 rax, QWORD PTR [rax+32]
  0010f	48 89 45 48	 mov	 QWORD PTR v_bit_count$5[rbp], rax

; 252  : 
; 253  :                 // 
; 254  :                 if (v_bit_count > ((__UNIT_TYPE)-1 - __UNIT_TYPE_BIT_COUNT) / e)

  00113	33 d2		 xor	 edx, edx
  00115	48 c7 c0 bf ff
	ff ff		 mov	 rax, -65		; ffffffffffffffbfH
  0011c	48 f7 b5 a8 02
	00 00		 div	 QWORD PTR e$[rbp]
  00123	48 39 45 48	 cmp	 QWORD PTR v_bit_count$5[rbp], rax
  00127	76 26		 jbe	 SHORT $LN12@PMC_Pow_X_

; 255  :                     throw OverflowException(L"");

  00129	48 8d 15 00 00
	00 00		 lea	 rdx, OFFSET FLAT:??_C@_1CM@JEKMNCAI@?$PP?$KK?$PP?$PM?$PP?P?$PP?$PM?$PP?U?$PP?m?$PP?$PM?$AAk?$PP?$II?$PP?$IK?$AA?$AI?$PP?$JH?$PP?$JC?$PP?$JK?$AAL@
  00130	48 8d 8d f8 01
	00 00		 lea	 rcx, QWORD PTR $T11[rbp]
  00137	e8 00 00 00 00	 call	 ??0OverflowException@Internal@Core@Math@Palmtree@@QEAA@PEB_W@Z ; Palmtree::Math::Core::Internal::OverflowException::OverflowException
  0013c	48 8d 15 00 00
	00 00		 lea	 rdx, OFFSET FLAT:_TI2?AVOverflowException@Internal@Core@Math@Palmtree@@
  00143	48 8d 8d f8 01
	00 00		 lea	 rcx, QWORD PTR $T11[rbp]
  0014a	e8 00 00 00 00	 call	 _CxxThrowException
$LN12@PMC_Pow_X_:

; 256  : 
; 257  :                 __UNIT_TYPE work_bit_count = v_bit_count * e + __UNIT_TYPE_BIT_COUNT;

  0014f	48 8b 45 48	 mov	 rax, QWORD PTR v_bit_count$5[rbp]
  00153	48 0f af 85 a8
	02 00 00	 imul	 rax, QWORD PTR e$[rbp]
  0015b	48 83 c0 40	 add	 rax, 64			; 00000040H
  0015f	48 89 45 68	 mov	 QWORD PTR work_bit_count$6[rbp], rax

; 258  : 
; 259  :                 __UNIT_TYPE* work1_buf = root.AllocateBlock(work_bit_count);

  00163	48 8b 55 68	 mov	 rdx, QWORD PTR work_bit_count$6[rbp]
  00167	48 8d 4d 08	 lea	 rcx, QWORD PTR root$4[rbp]
  0016b	e8 00 00 00 00	 call	 ?AllocateBlock@ResourceHolderUINT@Internal@Core@Math@Palmtree@@QEAAPEA_K_K@Z ; Palmtree::Math::Core::Internal::ResourceHolderUINT::AllocateBlock
  00170	48 89 85 88 00
	00 00		 mov	 QWORD PTR work1_buf$7[rbp], rax

; 260  :                 __UNIT_TYPE* work2_buf = root.AllocateBlock(work_bit_count);

  00177	48 8b 55 68	 mov	 rdx, QWORD PTR work_bit_count$6[rbp]
  0017b	48 8d 4d 08	 lea	 rcx, QWORD PTR root$4[rbp]
  0017f	e8 00 00 00 00	 call	 ?AllocateBlock@ResourceHolderUINT@Internal@Core@Math@Palmtree@@QEAAPEA_K_K@Z ; Palmtree::Math::Core::Internal::ResourceHolderUINT::AllocateBlock
  00184	48 89 85 a8 00
	00 00		 mov	 QWORD PTR work2_buf$8[rbp], rax

; 261  :                 NUMBER_HEADER* r = root.AllocateNumber(work_bit_count);

  0018b	48 8b 55 68	 mov	 rdx, QWORD PTR work_bit_count$6[rbp]
  0018f	48 8d 4d 08	 lea	 rcx, QWORD PTR root$4[rbp]
  00193	e8 00 00 00 00	 call	 ?AllocateNumber@ResourceHolderUINT@Internal@Core@Math@Palmtree@@QEAAPEAU__tag_NUMBER_HEADER@2345@_K@Z ; Palmtree::Math::Core::Internal::ResourceHolderUINT::AllocateNumber
  00198	48 89 85 c8 00
	00 00		 mov	 QWORD PTR r$9[rbp], rax

; 262  :                 Pow_X_L_Imp(v->BLOCK, v->UNIT_WORD_COUNT, e, work1_buf, work2_buf, r->BLOCK);

  0019f	48 8b 85 c8 00
	00 00		 mov	 rax, QWORD PTR r$9[rbp]
  001a6	48 8b 40 40	 mov	 rax, QWORD PTR [rax+64]
  001aa	48 89 44 24 28	 mov	 QWORD PTR [rsp+40], rax
  001af	48 8b 85 a8 00
	00 00		 mov	 rax, QWORD PTR work2_buf$8[rbp]
  001b6	48 89 44 24 20	 mov	 QWORD PTR [rsp+32], rax
  001bb	4c 8b 8d 88 00
	00 00		 mov	 r9, QWORD PTR work1_buf$7[rbp]
  001c2	4c 8b 85 a8 02
	00 00		 mov	 r8, QWORD PTR e$[rbp]
  001c9	48 8b 85 a0 02
	00 00		 mov	 rax, QWORD PTR v$[rbp]
  001d0	48 8b 50 18	 mov	 rdx, QWORD PTR [rax+24]
  001d4	48 8b 85 a0 02
	00 00		 mov	 rax, QWORD PTR v$[rbp]
  001db	48 8b 48 40	 mov	 rcx, QWORD PTR [rax+64]
  001df	e8 00 00 00 00	 call	 ?Pow_X_L_Imp@Internal@Core@Math@Palmtree@@YAXPEA_K_K1000@Z ; Palmtree::Math::Core::Internal::Pow_X_L_Imp

; 263  :                 root.CheckBlock(work1_buf);

  001e4	48 8b 95 88 00
	00 00		 mov	 rdx, QWORD PTR work1_buf$7[rbp]
  001eb	48 8d 4d 08	 lea	 rcx, QWORD PTR root$4[rbp]
  001ef	e8 00 00 00 00	 call	 ?CheckBlock@ResourceHolderUINT@Internal@Core@Math@Palmtree@@QEAAXPEA_K@Z ; Palmtree::Math::Core::Internal::ResourceHolderUINT::CheckBlock

; 264  :                 root.CheckBlock(work2_buf);

  001f4	48 8b 95 a8 00
	00 00		 mov	 rdx, QWORD PTR work2_buf$8[rbp]
  001fb	48 8d 4d 08	 lea	 rcx, QWORD PTR root$4[rbp]
  001ff	e8 00 00 00 00	 call	 ?CheckBlock@ResourceHolderUINT@Internal@Core@Math@Palmtree@@QEAAXPEA_K@Z ; Palmtree::Math::Core::Internal::ResourceHolderUINT::CheckBlock

; 265  :                 root.CheckNumber(r);

  00204	48 8b 95 c8 00
	00 00		 mov	 rdx, QWORD PTR r$9[rbp]
  0020b	48 8d 4d 08	 lea	 rcx, QWORD PTR root$4[rbp]
  0020f	e8 00 00 00 00	 call	 ?CheckNumber@ResourceHolderUINT@Internal@Core@Math@Palmtree@@QEAAXPEAU__tag_NUMBER_HEADER@2345@@Z ; Palmtree::Math::Core::Internal::ResourceHolderUINT::CheckNumber

; 266  :                 CommitNumber(r);

  00214	48 8b 8d c8 00
	00 00		 mov	 rcx, QWORD PTR r$9[rbp]
  0021b	e8 00 00 00 00	 call	 ?CommitNumber@Internal@Core@Math@Palmtree@@YAXPEAU__tag_NUMBER_HEADER@1234@@Z ; Palmtree::Math::Core::Internal::CommitNumber

; 267  :                 root.UnlinkNumber(r);

  00220	48 8b 95 c8 00
	00 00		 mov	 rdx, QWORD PTR r$9[rbp]
  00227	48 8d 4d 08	 lea	 rcx, QWORD PTR root$4[rbp]
  0022b	e8 00 00 00 00	 call	 ?UnlinkNumber@ResourceHolderUINT@Internal@Core@Math@Palmtree@@QEAAXPEAU__tag_NUMBER_HEADER@2345@@Z ; Palmtree::Math::Core::Internal::ResourceHolderUINT::UnlinkNumber

; 268  :                 return (r);

  00230	48 8b 85 c8 00
	00 00		 mov	 rax, QWORD PTR r$9[rbp]
  00237	48 89 85 48 02
	00 00		 mov	 QWORD PTR $T12[rbp], rax
  0023e	48 8d 4d 08	 lea	 rcx, QWORD PTR root$4[rbp]
  00242	e8 00 00 00 00	 call	 ??1ResourceHolderUINT@Internal@Core@Math@Palmtree@@UEAA@XZ ; Palmtree::Math::Core::Internal::ResourceHolderUINT::~ResourceHolderUINT
  00247	48 8b 85 48 02
	00 00		 mov	 rax, QWORD PTR $T12[rbp]
$LN13@PMC_Pow_X_:

; 269  :             }
; 270  :         }
; 271  :     }

  0024e	48 8b f8	 mov	 rdi, rax
  00251	48 8d 4d d0	 lea	 rcx, QWORD PTR [rbp-48]
  00255	48 8d 15 00 00
	00 00		 lea	 rdx, OFFSET FLAT:?PMC_Pow_X_L_Imp@Internal@Core@Math@Palmtree@@YAPEAU__tag_NUMBER_HEADER@1234@PEAU51234@_K@Z$rtcFrameData
  0025c	e8 00 00 00 00	 call	 _RTC_CheckStackVars
  00261	48 8b c7	 mov	 rax, rdi
  00264	48 8d a5 88 02
	00 00		 lea	 rsp, QWORD PTR [rbp+648]
  0026b	5f		 pop	 rdi
  0026c	5d		 pop	 rbp
  0026d	c3		 ret	 0
$LN15@PMC_Pow_X_:
?PMC_Pow_X_L_Imp@Internal@Core@Math@Palmtree@@YAPEAU__tag_NUMBER_HEADER@1234@PEAU51234@_K@Z ENDP ; Palmtree::Math::Core::Internal::PMC_Pow_X_L_Imp
_TEXT	ENDS
;	COMDAT text$x
text$x	SEGMENT
root$4 = 8
v_bit_count$5 = 72
work_bit_count$6 = 104
work1_buf$7 = 136
work2_buf$8 = 168
r$9 = 200
$T10 = 424
$T11 = 504
$T12 = 584
$T13 = 616
v$ = 672
e$ = 680
?dtor$0@?0??PMC_Pow_X_L_Imp@Internal@Core@Math@Palmtree@@YAPEAU__tag_NUMBER_HEADER@1234@PEAU51234@_K@Z@4HA PROC ; `Palmtree::Math::Core::Internal::PMC_Pow_X_L_Imp'::`1'::dtor$0
  00000	48 89 4c 24 08	 mov	 QWORD PTR [rsp+8], rcx
  00005	48 89 54 24 10	 mov	 QWORD PTR [rsp+16], rdx
  0000a	55		 push	 rbp
  0000b	57		 push	 rdi
  0000c	48 83 ec 28	 sub	 rsp, 40			; 00000028H
  00010	48 8d 6a 30	 lea	 rbp, QWORD PTR [rdx+48]
  00014	48 8d 4d 08	 lea	 rcx, QWORD PTR root$4[rbp]
  00018	e8 00 00 00 00	 call	 ??1ResourceHolderUINT@Internal@Core@Math@Palmtree@@UEAA@XZ ; Palmtree::Math::Core::Internal::ResourceHolderUINT::~ResourceHolderUINT
  0001d	48 83 c4 28	 add	 rsp, 40			; 00000028H
  00021	5f		 pop	 rdi
  00022	5d		 pop	 rbp
  00023	c3		 ret	 0
?dtor$0@?0??PMC_Pow_X_L_Imp@Internal@Core@Math@Palmtree@@YAPEAU__tag_NUMBER_HEADER@1234@PEAU51234@_K@Z@4HA ENDP ; `Palmtree::Math::Core::Internal::PMC_Pow_X_L_Imp'::`1'::dtor$0
text$x	ENDS
; Function compile flags: /Odtp /RTCsu /ZI
;	COMDAT text$x
text$x	SEGMENT
root$4 = 8
v_bit_count$5 = 72
work_bit_count$6 = 104
work1_buf$7 = 136
work2_buf$8 = 168
r$9 = 200
$T10 = 424
$T11 = 504
$T12 = 584
$T13 = 616
v$ = 672
e$ = 680
?dtor$0@?0??PMC_Pow_X_L_Imp@Internal@Core@Math@Palmtree@@YAPEAU__tag_NUMBER_HEADER@1234@PEAU51234@_K@Z@4HA PROC ; `Palmtree::Math::Core::Internal::PMC_Pow_X_L_Imp'::`1'::dtor$0
  00000	48 89 4c 24 08	 mov	 QWORD PTR [rsp+8], rcx
  00005	48 89 54 24 10	 mov	 QWORD PTR [rsp+16], rdx
  0000a	55		 push	 rbp
  0000b	57		 push	 rdi
  0000c	48 83 ec 28	 sub	 rsp, 40			; 00000028H
  00010	48 8d 6a 30	 lea	 rbp, QWORD PTR [rdx+48]
  00014	48 8d 4d 08	 lea	 rcx, QWORD PTR root$4[rbp]
  00018	e8 00 00 00 00	 call	 ??1ResourceHolderUINT@Internal@Core@Math@Palmtree@@UEAA@XZ ; Palmtree::Math::Core::Internal::ResourceHolderUINT::~ResourceHolderUINT
  0001d	48 83 c4 28	 add	 rsp, 40			; 00000028H
  00021	5f		 pop	 rdi
  00022	5d		 pop	 rbp
  00023	c3		 ret	 0
?dtor$0@?0??PMC_Pow_X_L_Imp@Internal@Core@Math@Palmtree@@YAPEAU__tag_NUMBER_HEADER@1234@PEAU51234@_K@Z@4HA ENDP ; `Palmtree::Math::Core::Internal::PMC_Pow_X_L_Imp'::`1'::dtor$0
text$x	ENDS
; Function compile flags: /Odtp /RTCsu /ZI
; File z:\sources\lunor\repos\rougemeilland\palmtree.math.core.uint\palmtree.math.core.uint\pmc_pow.cpp
;	COMDAT ?PMC_Pow_X_I_Imp@Internal@Core@Math@Palmtree@@YAPEAU__tag_NUMBER_HEADER@1234@PEAU51234@I@Z
_TEXT	SEGMENT
root$4 = 8
v_bit_count$5 = 72
work_bit_count$6 = 104
work1_buf$7 = 136
work2_buf$8 = 168
r$9 = 200
$T10 = 424
$T11 = 504
$T12 = 584
$T13 = 616
tv84 = 632
v$ = 672
e$ = 680
?PMC_Pow_X_I_Imp@Internal@Core@Math@Palmtree@@YAPEAU__tag_NUMBER_HEADER@1234@PEAU51234@I@Z PROC ; Palmtree::Math::Core::Internal::PMC_Pow_X_I_Imp, COMDAT

; 82   :     {

$LN16:
  00000	89 54 24 10	 mov	 DWORD PTR [rsp+16], edx
  00004	48 89 4c 24 08	 mov	 QWORD PTR [rsp+8], rcx
  00009	55		 push	 rbp
  0000a	57		 push	 rdi
  0000b	48 81 ec b8 02
	00 00		 sub	 rsp, 696		; 000002b8H
  00012	48 8d 6c 24 30	 lea	 rbp, QWORD PTR [rsp+48]
  00017	48 8b fc	 mov	 rdi, rsp
  0001a	b9 ae 00 00 00	 mov	 ecx, 174		; 000000aeH
  0001f	b8 cc cc cc cc	 mov	 eax, -858993460		; ccccccccH
  00024	f3 ab		 rep stosd
  00026	48 8b 8c 24 d8
	02 00 00	 mov	 rcx, QWORD PTR [rsp+728]
  0002e	48 c7 85 68 02
	00 00 fe ff ff
	ff		 mov	 QWORD PTR $T13[rbp], -2
  00039	48 8d 0d 00 00
	00 00		 lea	 rcx, OFFSET FLAT:__235E20A6_pmc_pow@cpp
  00040	e8 00 00 00 00	 call	 __CheckForDebuggerJustMyCode

; 83   :         if (v->IS_ZERO)

  00045	48 8b 85 a0 02
	00 00		 mov	 rax, QWORD PTR v$[rbp]
  0004c	8b 40 08	 mov	 eax, DWORD PTR [rax+8]
  0004f	83 e0 01	 and	 eax, 1
  00052	85 c0		 test	 eax, eax
  00054	74 43		 je	 SHORT $LN2@PMC_Pow_X_

; 84   :         {
; 85   :             // v  0 
; 86   : 
; 87   :             if (e == 0)

  00056	83 bd a8 02 00
	00 00		 cmp	 DWORD PTR e$[rbp], 0
  0005d	75 29		 jne	 SHORT $LN4@PMC_Pow_X_

; 88   :             {
; 89   :                 // e  0 
; 90   : 
; 91   :                 // 0  0 
; 92   :                 throw ArithmeticException(L"00");

  0005f	48 8d 15 00 00
	00 00		 lea	 rdx, OFFSET FLAT:??_C@_1BM@OCOOKOCJ@?$AA0?$AAn?$AA0?$AAW?$AAn?$AA$?$AAo?$AA?$CK?$PP?$JK?$PP?$KJ?$AAg?$AAY?$AA?$AC@
  00066	48 8d 8d a8 01
	00 00		 lea	 rcx, QWORD PTR $T10[rbp]
  0006d	e8 00 00 00 00	 call	 ??0ArithmeticException@Internal@Core@Math@Palmtree@@QEAA@PEB_W@Z ; Palmtree::Math::Core::Internal::ArithmeticException::ArithmeticException
  00072	48 8d 15 00 00
	00 00		 lea	 rdx, OFFSET FLAT:_TI2?AVArithmeticException@Internal@Core@Math@Palmtree@@
  00079	48 8d 8d a8 01
	00 00		 lea	 rcx, QWORD PTR $T10[rbp]
  00080	e8 00 00 00 00	 call	 _CxxThrowException
  00085	90		 npad	 1

; 93   :             }
; 94   :             else

  00086	eb 0c		 jmp	 SHORT $LN5@PMC_Pow_X_
$LN4@PMC_Pow_X_:

; 95   :             {
; 96   :                 // e  0 
; 97   : 
; 98   :                 return (&number_zero);

  00088	48 8d 05 00 00
	00 00		 lea	 rax, OFFSET FLAT:?number_zero@Internal@Core@Math@Palmtree@@3U__tag_NUMBER_HEADER@1234@A ; Palmtree::Math::Core::Internal::number_zero
  0008f	e9 cb 01 00 00	 jmp	 $LN13@PMC_Pow_X_
$LN5@PMC_Pow_X_:

; 99   :             }

  00094	e9 c6 01 00 00	 jmp	 $LN13@PMC_Pow_X_
$LN2@PMC_Pow_X_:

; 100  :         }
; 101  :         else if (v->IS_ONE)

  00099	48 8b 85 a0 02
	00 00		 mov	 rax, QWORD PTR v$[rbp]
  000a0	8b 40 08	 mov	 eax, DWORD PTR [rax+8]
  000a3	d1 e8		 shr	 eax, 1
  000a5	83 e0 01	 and	 eax, 1
  000a8	85 c0		 test	 eax, eax
  000aa	74 11		 je	 SHORT $LN6@PMC_Pow_X_

; 102  :         {
; 103  :             // v  1 
; 104  : 
; 105  :             // e  1 
; 106  :             return (&number_one);

  000ac	48 8d 05 00 00
	00 00		 lea	 rax, OFFSET FLAT:?number_one@Internal@Core@Math@Palmtree@@3U__tag_NUMBER_HEADER@1234@A ; Palmtree::Math::Core::Internal::number_one
  000b3	e9 a7 01 00 00	 jmp	 $LN13@PMC_Pow_X_

; 107  :         }
; 108  :         else

  000b8	e9 a2 01 00 00	 jmp	 $LN13@PMC_Pow_X_
$LN6@PMC_Pow_X_:

; 109  :         {
; 110  :             // v  2 
; 111  : 
; 112  :             if (e == 0)

  000bd	83 bd a8 02 00
	00 00		 cmp	 DWORD PTR e$[rbp], 0
  000c4	75 11		 jne	 SHORT $LN8@PMC_Pow_X_

; 113  :             {
; 114  :                 // e  0 
; 115  : 
; 116  :                 //  1 
; 117  :                 return (&number_one);

  000c6	48 8d 05 00 00
	00 00		 lea	 rax, OFFSET FLAT:?number_one@Internal@Core@Math@Palmtree@@3U__tag_NUMBER_HEADER@1234@A ; Palmtree::Math::Core::Internal::number_one
  000cd	e9 8d 01 00 00	 jmp	 $LN13@PMC_Pow_X_
  000d2	e9 88 01 00 00	 jmp	 $LN13@PMC_Pow_X_
$LN8@PMC_Pow_X_:

; 118  :             }
; 119  :             else if (e == 1)

  000d7	83 bd a8 02 00
	00 01		 cmp	 DWORD PTR e$[rbp], 1
  000de	75 16		 jne	 SHORT $LN10@PMC_Pow_X_

; 120  :             {
; 121  :                 // e  1 
; 122  : 
; 123  :                 //  v 
; 124  :                 return (DuplicateNumber(v));

  000e0	48 8b 8d a0 02
	00 00		 mov	 rcx, QWORD PTR v$[rbp]
  000e7	e8 00 00 00 00	 call	 ?DuplicateNumber@Internal@Core@Math@Palmtree@@YAPEAU__tag_NUMBER_HEADER@1234@PEAU51234@@Z ; Palmtree::Math::Core::Internal::DuplicateNumber
  000ec	e9 6e 01 00 00	 jmp	 $LN13@PMC_Pow_X_

; 125  :             }
; 126  :             else

  000f1	e9 69 01 00 00	 jmp	 $LN13@PMC_Pow_X_
$LN10@PMC_Pow_X_:

; 127  :             {
; 128  :                 // v  e  2 
; 129  : 
; 130  :                 // v  e 
; 131  :                 ResourceHolderUINT root;

  000f6	48 8d 4d 08	 lea	 rcx, QWORD PTR root$4[rbp]
  000fa	e8 00 00 00 00	 call	 ??0ResourceHolderUINT@Internal@Core@Math@Palmtree@@QEAA@XZ ; Palmtree::Math::Core::Internal::ResourceHolderUINT::ResourceHolderUINT
  000ff	90		 npad	 1

; 132  :                 __UNIT_TYPE v_bit_count = v->UNIT_BIT_COUNT;

  00100	48 8b 85 a0 02
	00 00		 mov	 rax, QWORD PTR v$[rbp]
  00107	48 8b 40 20	 mov	 rax, QWORD PTR [rax+32]
  0010b	48 89 45 48	 mov	 QWORD PTR v_bit_count$5[rbp], rax

; 133  : 
; 134  :                 // 
; 135  :                 if (v_bit_count > ((__UNIT_TYPE)-1 - __UNIT_TYPE_BIT_COUNT) / e)

  0010f	8b 85 a8 02 00
	00		 mov	 eax, DWORD PTR e$[rbp]
  00115	48 89 85 78 02
	00 00		 mov	 QWORD PTR tv84[rbp], rax
  0011c	33 d2		 xor	 edx, edx
  0011e	48 c7 c0 bf ff
	ff ff		 mov	 rax, -65		; ffffffffffffffbfH
  00125	48 8b 8d 78 02
	00 00		 mov	 rcx, QWORD PTR tv84[rbp]
  0012c	48 f7 f1	 div	 rcx
  0012f	48 39 45 48	 cmp	 QWORD PTR v_bit_count$5[rbp], rax
  00133	76 26		 jbe	 SHORT $LN12@PMC_Pow_X_

; 136  :                     throw OverflowException(L"");

  00135	48 8d 15 00 00
	00 00		 lea	 rdx, OFFSET FLAT:??_C@_1CM@JEKMNCAI@?$PP?$KK?$PP?$PM?$PP?P?$PP?$PM?$PP?U?$PP?m?$PP?$PM?$AAk?$PP?$II?$PP?$IK?$AA?$AI?$PP?$JH?$PP?$JC?$PP?$JK?$AAL@
  0013c	48 8d 8d f8 01
	00 00		 lea	 rcx, QWORD PTR $T11[rbp]
  00143	e8 00 00 00 00	 call	 ??0OverflowException@Internal@Core@Math@Palmtree@@QEAA@PEB_W@Z ; Palmtree::Math::Core::Internal::OverflowException::OverflowException
  00148	48 8d 15 00 00
	00 00		 lea	 rdx, OFFSET FLAT:_TI2?AVOverflowException@Internal@Core@Math@Palmtree@@
  0014f	48 8d 8d f8 01
	00 00		 lea	 rcx, QWORD PTR $T11[rbp]
  00156	e8 00 00 00 00	 call	 _CxxThrowException
$LN12@PMC_Pow_X_:

; 137  : 
; 138  :                 __UNIT_TYPE work_bit_count = v_bit_count * e + __UNIT_TYPE_BIT_COUNT;

  0015b	8b 85 a8 02 00
	00		 mov	 eax, DWORD PTR e$[rbp]
  00161	48 8b 4d 48	 mov	 rcx, QWORD PTR v_bit_count$5[rbp]
  00165	48 0f af c8	 imul	 rcx, rax
  00169	48 8b c1	 mov	 rax, rcx
  0016c	48 83 c0 40	 add	 rax, 64			; 00000040H
  00170	48 89 45 68	 mov	 QWORD PTR work_bit_count$6[rbp], rax

; 139  : 
; 140  :                 __UNIT_TYPE* work1_buf = root.AllocateBlock(work_bit_count);

  00174	48 8b 55 68	 mov	 rdx, QWORD PTR work_bit_count$6[rbp]
  00178	48 8d 4d 08	 lea	 rcx, QWORD PTR root$4[rbp]
  0017c	e8 00 00 00 00	 call	 ?AllocateBlock@ResourceHolderUINT@Internal@Core@Math@Palmtree@@QEAAPEA_K_K@Z ; Palmtree::Math::Core::Internal::ResourceHolderUINT::AllocateBlock
  00181	48 89 85 88 00
	00 00		 mov	 QWORD PTR work1_buf$7[rbp], rax

; 141  :                 __UNIT_TYPE* work2_buf = root.AllocateBlock(work_bit_count);

  00188	48 8b 55 68	 mov	 rdx, QWORD PTR work_bit_count$6[rbp]
  0018c	48 8d 4d 08	 lea	 rcx, QWORD PTR root$4[rbp]
  00190	e8 00 00 00 00	 call	 ?AllocateBlock@ResourceHolderUINT@Internal@Core@Math@Palmtree@@QEAAPEA_K_K@Z ; Palmtree::Math::Core::Internal::ResourceHolderUINT::AllocateBlock
  00195	48 89 85 a8 00
	00 00		 mov	 QWORD PTR work2_buf$8[rbp], rax

; 142  :                 NUMBER_HEADER* r = root.AllocateNumber(work_bit_count);

  0019c	48 8b 55 68	 mov	 rdx, QWORD PTR work_bit_count$6[rbp]
  001a0	48 8d 4d 08	 lea	 rcx, QWORD PTR root$4[rbp]
  001a4	e8 00 00 00 00	 call	 ?AllocateNumber@ResourceHolderUINT@Internal@Core@Math@Palmtree@@QEAAPEAU__tag_NUMBER_HEADER@2345@_K@Z ; Palmtree::Math::Core::Internal::ResourceHolderUINT::AllocateNumber
  001a9	48 89 85 c8 00
	00 00		 mov	 QWORD PTR r$9[rbp], rax

; 143  :                 Pow_X_I_Imp(v->BLOCK, v->UNIT_WORD_COUNT, e, work1_buf, work2_buf, r->BLOCK);

  001b0	48 8b 85 c8 00
	00 00		 mov	 rax, QWORD PTR r$9[rbp]
  001b7	48 8b 40 40	 mov	 rax, QWORD PTR [rax+64]
  001bb	48 89 44 24 28	 mov	 QWORD PTR [rsp+40], rax
  001c0	48 8b 85 a8 00
	00 00		 mov	 rax, QWORD PTR work2_buf$8[rbp]
  001c7	48 89 44 24 20	 mov	 QWORD PTR [rsp+32], rax
  001cc	4c 8b 8d 88 00
	00 00		 mov	 r9, QWORD PTR work1_buf$7[rbp]
  001d3	44 8b 85 a8 02
	00 00		 mov	 r8d, DWORD PTR e$[rbp]
  001da	48 8b 85 a0 02
	00 00		 mov	 rax, QWORD PTR v$[rbp]
  001e1	48 8b 50 18	 mov	 rdx, QWORD PTR [rax+24]
  001e5	48 8b 85 a0 02
	00 00		 mov	 rax, QWORD PTR v$[rbp]
  001ec	48 8b 48 40	 mov	 rcx, QWORD PTR [rax+64]
  001f0	e8 00 00 00 00	 call	 ?Pow_X_I_Imp@Internal@Core@Math@Palmtree@@YAXPEA_K_KI000@Z ; Palmtree::Math::Core::Internal::Pow_X_I_Imp

; 144  :                 root.CheckBlock(work1_buf);

  001f5	48 8b 95 88 00
	00 00		 mov	 rdx, QWORD PTR work1_buf$7[rbp]
  001fc	48 8d 4d 08	 lea	 rcx, QWORD PTR root$4[rbp]
  00200	e8 00 00 00 00	 call	 ?CheckBlock@ResourceHolderUINT@Internal@Core@Math@Palmtree@@QEAAXPEA_K@Z ; Palmtree::Math::Core::Internal::ResourceHolderUINT::CheckBlock

; 145  :                 root.CheckBlock(work2_buf);

  00205	48 8b 95 a8 00
	00 00		 mov	 rdx, QWORD PTR work2_buf$8[rbp]
  0020c	48 8d 4d 08	 lea	 rcx, QWORD PTR root$4[rbp]
  00210	e8 00 00 00 00	 call	 ?CheckBlock@ResourceHolderUINT@Internal@Core@Math@Palmtree@@QEAAXPEA_K@Z ; Palmtree::Math::Core::Internal::ResourceHolderUINT::CheckBlock

; 146  :                 root.CheckNumber(r);

  00215	48 8b 95 c8 00
	00 00		 mov	 rdx, QWORD PTR r$9[rbp]
  0021c	48 8d 4d 08	 lea	 rcx, QWORD PTR root$4[rbp]
  00220	e8 00 00 00 00	 call	 ?CheckNumber@ResourceHolderUINT@Internal@Core@Math@Palmtree@@QEAAXPEAU__tag_NUMBER_HEADER@2345@@Z ; Palmtree::Math::Core::Internal::ResourceHolderUINT::CheckNumber

; 147  :                 CommitNumber(r);

  00225	48 8b 8d c8 00
	00 00		 mov	 rcx, QWORD PTR r$9[rbp]
  0022c	e8 00 00 00 00	 call	 ?CommitNumber@Internal@Core@Math@Palmtree@@YAXPEAU__tag_NUMBER_HEADER@1234@@Z ; Palmtree::Math::Core::Internal::CommitNumber

; 148  :                 root.UnlinkNumber(r);

  00231	48 8b 95 c8 00
	00 00		 mov	 rdx, QWORD PTR r$9[rbp]
  00238	48 8d 4d 08	 lea	 rcx, QWORD PTR root$4[rbp]
  0023c	e8 00 00 00 00	 call	 ?UnlinkNumber@ResourceHolderUINT@Internal@Core@Math@Palmtree@@QEAAXPEAU__tag_NUMBER_HEADER@2345@@Z ; Palmtree::Math::Core::Internal::ResourceHolderUINT::UnlinkNumber

; 149  :                 return (r);

  00241	48 8b 85 c8 00
	00 00		 mov	 rax, QWORD PTR r$9[rbp]
  00248	48 89 85 48 02
	00 00		 mov	 QWORD PTR $T12[rbp], rax
  0024f	48 8d 4d 08	 lea	 rcx, QWORD PTR root$4[rbp]
  00253	e8 00 00 00 00	 call	 ??1ResourceHolderUINT@Internal@Core@Math@Palmtree@@UEAA@XZ ; Palmtree::Math::Core::Internal::ResourceHolderUINT::~ResourceHolderUINT
  00258	48 8b 85 48 02
	00 00		 mov	 rax, QWORD PTR $T12[rbp]
$LN13@PMC_Pow_X_:

; 150  :             }
; 151  :         }
; 152  :     }

  0025f	48 8b f8	 mov	 rdi, rax
  00262	48 8d 4d d0	 lea	 rcx, QWORD PTR [rbp-48]
  00266	48 8d 15 00 00
	00 00		 lea	 rdx, OFFSET FLAT:?PMC_Pow_X_I_Imp@Internal@Core@Math@Palmtree@@YAPEAU__tag_NUMBER_HEADER@1234@PEAU51234@I@Z$rtcFrameData
  0026d	e8 00 00 00 00	 call	 _RTC_CheckStackVars
  00272	48 8b c7	 mov	 rax, rdi
  00275	48 8d a5 88 02
	00 00		 lea	 rsp, QWORD PTR [rbp+648]
  0027c	5f		 pop	 rdi
  0027d	5d		 pop	 rbp
  0027e	c3		 ret	 0
$LN15@PMC_Pow_X_:
?PMC_Pow_X_I_Imp@Internal@Core@Math@Palmtree@@YAPEAU__tag_NUMBER_HEADER@1234@PEAU51234@I@Z ENDP ; Palmtree::Math::Core::Internal::PMC_Pow_X_I_Imp
_TEXT	ENDS
;	COMDAT text$x
text$x	SEGMENT
root$4 = 8
v_bit_count$5 = 72
work_bit_count$6 = 104
work1_buf$7 = 136
work2_buf$8 = 168
r$9 = 200
$T10 = 424
$T11 = 504
$T12 = 584
$T13 = 616
tv84 = 632
v$ = 672
e$ = 680
?dtor$0@?0??PMC_Pow_X_I_Imp@Internal@Core@Math@Palmtree@@YAPEAU__tag_NUMBER_HEADER@1234@PEAU51234@I@Z@4HA PROC ; `Palmtree::Math::Core::Internal::PMC_Pow_X_I_Imp'::`1'::dtor$0
  00000	48 89 4c 24 08	 mov	 QWORD PTR [rsp+8], rcx
  00005	48 89 54 24 10	 mov	 QWORD PTR [rsp+16], rdx
  0000a	55		 push	 rbp
  0000b	57		 push	 rdi
  0000c	48 83 ec 28	 sub	 rsp, 40			; 00000028H
  00010	48 8d 6a 30	 lea	 rbp, QWORD PTR [rdx+48]
  00014	48 8d 4d 08	 lea	 rcx, QWORD PTR root$4[rbp]
  00018	e8 00 00 00 00	 call	 ??1ResourceHolderUINT@Internal@Core@Math@Palmtree@@UEAA@XZ ; Palmtree::Math::Core::Internal::ResourceHolderUINT::~ResourceHolderUINT
  0001d	48 83 c4 28	 add	 rsp, 40			; 00000028H
  00021	5f		 pop	 rdi
  00022	5d		 pop	 rbp
  00023	c3		 ret	 0
?dtor$0@?0??PMC_Pow_X_I_Imp@Internal@Core@Math@Palmtree@@YAPEAU__tag_NUMBER_HEADER@1234@PEAU51234@I@Z@4HA ENDP ; `Palmtree::Math::Core::Internal::PMC_Pow_X_I_Imp'::`1'::dtor$0
text$x	ENDS
; Function compile flags: /Odtp /RTCsu /ZI
;	COMDAT text$x
text$x	SEGMENT
root$4 = 8
v_bit_count$5 = 72
work_bit_count$6 = 104
work1_buf$7 = 136
work2_buf$8 = 168
r$9 = 200
$T10 = 424
$T11 = 504
$T12 = 584
$T13 = 616
tv84 = 632
v$ = 672
e$ = 680
?dtor$0@?0??PMC_Pow_X_I_Imp@Internal@Core@Math@Palmtree@@YAPEAU__tag_NUMBER_HEADER@1234@PEAU51234@I@Z@4HA PROC ; `Palmtree::Math::Core::Internal::PMC_Pow_X_I_Imp'::`1'::dtor$0
  00000	48 89 4c 24 08	 mov	 QWORD PTR [rsp+8], rcx
  00005	48 89 54 24 10	 mov	 QWORD PTR [rsp+16], rdx
  0000a	55		 push	 rbp
  0000b	57		 push	 rdi
  0000c	48 83 ec 28	 sub	 rsp, 40			; 00000028H
  00010	48 8d 6a 30	 lea	 rbp, QWORD PTR [rdx+48]
  00014	48 8d 4d 08	 lea	 rcx, QWORD PTR root$4[rbp]
  00018	e8 00 00 00 00	 call	 ??1ResourceHolderUINT@Internal@Core@Math@Palmtree@@UEAA@XZ ; Palmtree::Math::Core::Internal::ResourceHolderUINT::~ResourceHolderUINT
  0001d	48 83 c4 28	 add	 rsp, 40			; 00000028H
  00021	5f		 pop	 rdi
  00022	5d		 pop	 rbp
  00023	c3		 ret	 0
?dtor$0@?0??PMC_Pow_X_I_Imp@Internal@Core@Math@Palmtree@@YAPEAU__tag_NUMBER_HEADER@1234@PEAU51234@I@Z@4HA ENDP ; `Palmtree::Math::Core::Internal::PMC_Pow_X_I_Imp'::`1'::dtor$0
text$x	ENDS
; Function compile flags: /Odtp /RTCsu /ZI
;	COMDAT ??_GInternalErrorException@Internal@Core@Math@Palmtree@@UEAAPEAXI@Z
_TEXT	SEGMENT
this$ = 224
__flags$ = 232
??_GInternalErrorException@Internal@Core@Math@Palmtree@@UEAAPEAXI@Z PROC ; Palmtree::Math::Core::Internal::InternalErrorException::`scalar deleting destructor', COMDAT
$LN4:
  00000	89 54 24 10	 mov	 DWORD PTR [rsp+16], edx
  00004	48 89 4c 24 08	 mov	 QWORD PTR [rsp+8], rcx
  00009	55		 push	 rbp
  0000a	57		 push	 rdi
  0000b	48 81 ec e8 00
	00 00		 sub	 rsp, 232		; 000000e8H
  00012	48 8d 6c 24 20	 lea	 rbp, QWORD PTR [rsp+32]
  00017	48 8b fc	 mov	 rdi, rsp
  0001a	b9 3a 00 00 00	 mov	 ecx, 58			; 0000003aH
  0001f	b8 cc cc cc cc	 mov	 eax, -858993460		; ccccccccH
  00024	f3 ab		 rep stosd
  00026	48 8b 8c 24 08
	01 00 00	 mov	 rcx, QWORD PTR [rsp+264]
  0002e	48 8b 8d e0 00
	00 00		 mov	 rcx, QWORD PTR this$[rbp]
  00035	e8 00 00 00 00	 call	 ??1InternalErrorException@Internal@Core@Math@Palmtree@@UEAA@XZ ; Palmtree::Math::Core::Internal::InternalErrorException::~InternalErrorException
  0003a	8b 85 e8 00 00
	00		 mov	 eax, DWORD PTR __flags$[rbp]
  00040	83 e0 01	 and	 eax, 1
  00043	85 c0		 test	 eax, eax
  00045	74 11		 je	 SHORT $LN2@scalar
  00047	ba 30 00 00 00	 mov	 edx, 48			; 00000030H
  0004c	48 8b 8d e0 00
	00 00		 mov	 rcx, QWORD PTR this$[rbp]
  00053	e8 00 00 00 00	 call	 ??3@YAXPEAX_K@Z		; operator delete
$LN2@scalar:
  00058	48 8b 85 e0 00
	00 00		 mov	 rax, QWORD PTR this$[rbp]
  0005f	48 8d a5 c8 00
	00 00		 lea	 rsp, QWORD PTR [rbp+200]
  00066	5f		 pop	 rdi
  00067	5d		 pop	 rbp
  00068	c3		 ret	 0
??_GInternalErrorException@Internal@Core@Math@Palmtree@@UEAAPEAXI@Z ENDP ; Palmtree::Math::Core::Internal::InternalErrorException::`scalar deleting destructor'
_TEXT	ENDS
; Function compile flags: /Odtp /RTCsu /ZI
; File z:\sources\lunor\repos\rougemeilland\palmtree.math.core.uint\palmtree.math.core.uint\pmc_exception.h
;	COMDAT ??1InternalErrorException@Internal@Core@Math@Palmtree@@UEAA@XZ
_TEXT	SEGMENT
$T1 = 200
this$ = 256
??1InternalErrorException@Internal@Core@Math@Palmtree@@UEAA@XZ PROC ; Palmtree::Math::Core::Internal::InternalErrorException::~InternalErrorException, COMDAT

; 295  :         {

$LN4:
  00000	48 89 4c 24 08	 mov	 QWORD PTR [rsp+8], rcx
  00005	55		 push	 rbp
  00006	57		 push	 rdi
  00007	48 81 ec 08 01
	00 00		 sub	 rsp, 264		; 00000108H
  0000e	48 8d 6c 24 20	 lea	 rbp, QWORD PTR [rsp+32]
  00013	48 8b fc	 mov	 rdi, rsp
  00016	b9 42 00 00 00	 mov	 ecx, 66			; 00000042H
  0001b	b8 cc cc cc cc	 mov	 eax, -858993460		; ccccccccH
  00020	f3 ab		 rep stosd
  00022	48 8b 8c 24 28
	01 00 00	 mov	 rcx, QWORD PTR [rsp+296]
  0002a	48 c7 85 c8 00
	00 00 fe ff ff
	ff		 mov	 QWORD PTR $T1[rbp], -2
  00035	48 8d 0d 00 00
	00 00		 lea	 rcx, OFFSET FLAT:__802FEEC0_pmc_exception@h
  0003c	e8 00 00 00 00	 call	 __CheckForDebuggerJustMyCode
  00041	90		 npad	 1
  00042	48 8b 85 00 01
	00 00		 mov	 rax, QWORD PTR this$[rbp]
  00049	48 8d 0d 00 00
	00 00		 lea	 rcx, OFFSET FLAT:??_7InternalErrorException@Internal@Core@Math@Palmtree@@6B@
  00050	48 89 08	 mov	 QWORD PTR [rax], rcx

; 296  :         }

  00053	48 8b 8d 00 01
	00 00		 mov	 rcx, QWORD PTR this$[rbp]
  0005a	e8 00 00 00 00	 call	 ??1Exception@Internal@Core@Math@Palmtree@@UEAA@XZ ; Palmtree::Math::Core::Internal::Exception::~Exception
  0005f	90		 npad	 1
  00060	48 8d a5 e8 00
	00 00		 lea	 rsp, QWORD PTR [rbp+232]
  00067	5f		 pop	 rdi
  00068	5d		 pop	 rbp
  00069	c3		 ret	 0
??1InternalErrorException@Internal@Core@Math@Palmtree@@UEAA@XZ ENDP ; Palmtree::Math::Core::Internal::InternalErrorException::~InternalErrorException
_TEXT	ENDS
;	COMDAT text$x
text$x	SEGMENT
$T1 = 200
this$ = 256
?dtor$0@?0???1InternalErrorException@Internal@Core@Math@Palmtree@@UEAA@XZ@4HA PROC ; `Palmtree::Math::Core::Internal::InternalErrorException::~InternalErrorException'::`1'::dtor$0
  00000	48 89 4c 24 08	 mov	 QWORD PTR [rsp+8], rcx
  00005	48 89 54 24 10	 mov	 QWORD PTR [rsp+16], rdx
  0000a	55		 push	 rbp
  0000b	57		 push	 rdi
  0000c	48 83 ec 28	 sub	 rsp, 40			; 00000028H
  00010	48 8d 6a 20	 lea	 rbp, QWORD PTR [rdx+32]
  00014	48 8b 8d 00 01
	00 00		 mov	 rcx, QWORD PTR this$[rbp]
  0001b	e8 00 00 00 00	 call	 ??1Exception@Internal@Core@Math@Palmtree@@UEAA@XZ ; Palmtree::Math::Core::Internal::Exception::~Exception
  00020	48 83 c4 28	 add	 rsp, 40			; 00000028H
  00024	5f		 pop	 rdi
  00025	5d		 pop	 rbp
  00026	c3		 ret	 0
?dtor$0@?0???1InternalErrorException@Internal@Core@Math@Palmtree@@UEAA@XZ@4HA ENDP ; `Palmtree::Math::Core::Internal::InternalErrorException::~InternalErrorException'::`1'::dtor$0
text$x	ENDS
; Function compile flags: /Odtp /RTCsu /ZI
;	COMDAT text$x
text$x	SEGMENT
$T1 = 200
this$ = 256
?dtor$0@?0???1InternalErrorException@Internal@Core@Math@Palmtree@@UEAA@XZ@4HA PROC ; `Palmtree::Math::Core::Internal::InternalErrorException::~InternalErrorException'::`1'::dtor$0
  00000	48 89 4c 24 08	 mov	 QWORD PTR [rsp+8], rcx
  00005	48 89 54 24 10	 mov	 QWORD PTR [rsp+16], rdx
  0000a	55		 push	 rbp
  0000b	57		 push	 rdi
  0000c	48 83 ec 28	 sub	 rsp, 40			; 00000028H
  00010	48 8d 6a 20	 lea	 rbp, QWORD PTR [rdx+32]
  00014	48 8b 8d 00 01
	00 00		 mov	 rcx, QWORD PTR this$[rbp]
  0001b	e8 00 00 00 00	 call	 ??1Exception@Internal@Core@Math@Palmtree@@UEAA@XZ ; Palmtree::Math::Core::Internal::Exception::~Exception
  00020	48 83 c4 28	 add	 rsp, 40			; 00000028H
  00024	5f		 pop	 rdi
  00025	5d		 pop	 rbp
  00026	c3		 ret	 0
?dtor$0@?0???1InternalErrorException@Internal@Core@Math@Palmtree@@UEAA@XZ@4HA ENDP ; `Palmtree::Math::Core::Internal::InternalErrorException::~InternalErrorException'::`1'::dtor$0
text$x	ENDS
; Function compile flags: /Odtp /RTCsu /ZI
; File z:\sources\lunor\repos\rougemeilland\palmtree.math.core.uint\palmtree.math.core.uint\pmc_exception.h
;	COMDAT ??0InternalErrorException@Internal@Core@Math@Palmtree@@QEAA@AEBV01234@@Z
_TEXT	SEGMENT
$T1 = 200
this$ = 256
p$ = 264
??0InternalErrorException@Internal@Core@Math@Palmtree@@QEAA@AEBV01234@@Z PROC ; Palmtree::Math::Core::Internal::InternalErrorException::InternalErrorException, COMDAT

; 291  :         {

$LN4:
  00000	48 89 54 24 10	 mov	 QWORD PTR [rsp+16], rdx
  00005	48 89 4c 24 08	 mov	 QWORD PTR [rsp+8], rcx
  0000a	55		 push	 rbp
  0000b	57		 push	 rdi
  0000c	48 81 ec 08 01
	00 00		 sub	 rsp, 264		; 00000108H
  00013	48 8d 6c 24 20	 lea	 rbp, QWORD PTR [rsp+32]
  00018	48 8b fc	 mov	 rdi, rsp
  0001b	b9 42 00 00 00	 mov	 ecx, 66			; 00000042H
  00020	b8 cc cc cc cc	 mov	 eax, -858993460		; ccccccccH
  00025	f3 ab		 rep stosd
  00027	48 8b 8c 24 28
	01 00 00	 mov	 rcx, QWORD PTR [rsp+296]
  0002f	48 c7 85 c8 00
	00 00 fe ff ff
	ff		 mov	 QWORD PTR $T1[rbp], -2
  0003a	48 8d 0d 00 00
	00 00		 lea	 rcx, OFFSET FLAT:__802FEEC0_pmc_exception@h
  00041	e8 00 00 00 00	 call	 __CheckForDebuggerJustMyCode
  00046	90		 npad	 1

; 290  :             : Exception(p)

  00047	48 8b 95 08 01
	00 00		 mov	 rdx, QWORD PTR p$[rbp]
  0004e	48 8b 8d 00 01
	00 00		 mov	 rcx, QWORD PTR this$[rbp]
  00055	e8 00 00 00 00	 call	 ??0Exception@Internal@Core@Math@Palmtree@@QEAA@AEBV01234@@Z ; Palmtree::Math::Core::Internal::Exception::Exception
  0005a	90		 npad	 1

; 291  :         {

  0005b	48 8b 85 00 01
	00 00		 mov	 rax, QWORD PTR this$[rbp]
  00062	48 8d 0d 00 00
	00 00		 lea	 rcx, OFFSET FLAT:??_7InternalErrorException@Internal@Core@Math@Palmtree@@6B@
  00069	48 89 08	 mov	 QWORD PTR [rax], rcx

; 292  :         }

  0006c	48 8b 85 00 01
	00 00		 mov	 rax, QWORD PTR this$[rbp]
  00073	48 8d a5 e8 00
	00 00		 lea	 rsp, QWORD PTR [rbp+232]
  0007a	5f		 pop	 rdi
  0007b	5d		 pop	 rbp
  0007c	c3		 ret	 0
??0InternalErrorException@Internal@Core@Math@Palmtree@@QEAA@AEBV01234@@Z ENDP ; Palmtree::Math::Core::Internal::InternalErrorException::InternalErrorException
_TEXT	ENDS
;	COMDAT text$x
text$x	SEGMENT
$T1 = 200
this$ = 256
p$ = 264
?dtor$0@?0???0InternalErrorException@Internal@Core@Math@Palmtree@@QEAA@AEBV01234@@Z@4HA PROC ; `Palmtree::Math::Core::Internal::InternalErrorException::InternalErrorException'::`1'::dtor$0
  00000	48 89 4c 24 08	 mov	 QWORD PTR [rsp+8], rcx
  00005	48 89 54 24 10	 mov	 QWORD PTR [rsp+16], rdx
  0000a	55		 push	 rbp
  0000b	57		 push	 rdi
  0000c	48 83 ec 28	 sub	 rsp, 40			; 00000028H
  00010	48 8d 6a 20	 lea	 rbp, QWORD PTR [rdx+32]
  00014	48 8b 8d 00 01
	00 00		 mov	 rcx, QWORD PTR this$[rbp]
  0001b	e8 00 00 00 00	 call	 ??1Exception@Internal@Core@Math@Palmtree@@UEAA@XZ ; Palmtree::Math::Core::Internal::Exception::~Exception
  00020	48 83 c4 28	 add	 rsp, 40			; 00000028H
  00024	5f		 pop	 rdi
  00025	5d		 pop	 rbp
  00026	c3		 ret	 0
?dtor$0@?0???0InternalErrorException@Internal@Core@Math@Palmtree@@QEAA@AEBV01234@@Z@4HA ENDP ; `Palmtree::Math::Core::Internal::InternalErrorException::InternalErrorException'::`1'::dtor$0
text$x	ENDS
; Function compile flags: /Odtp /RTCsu /ZI
;	COMDAT text$x
text$x	SEGMENT
$T1 = 200
this$ = 256
p$ = 264
?dtor$0@?0???0InternalErrorException@Internal@Core@Math@Palmtree@@QEAA@AEBV01234@@Z@4HA PROC ; `Palmtree::Math::Core::Internal::InternalErrorException::InternalErrorException'::`1'::dtor$0
  00000	48 89 4c 24 08	 mov	 QWORD PTR [rsp+8], rcx
  00005	48 89 54 24 10	 mov	 QWORD PTR [rsp+16], rdx
  0000a	55		 push	 rbp
  0000b	57		 push	 rdi
  0000c	48 83 ec 28	 sub	 rsp, 40			; 00000028H
  00010	48 8d 6a 20	 lea	 rbp, QWORD PTR [rdx+32]
  00014	48 8b 8d 00 01
	00 00		 mov	 rcx, QWORD PTR this$[rbp]
  0001b	e8 00 00 00 00	 call	 ??1Exception@Internal@Core@Math@Palmtree@@UEAA@XZ ; Palmtree::Math::Core::Internal::Exception::~Exception
  00020	48 83 c4 28	 add	 rsp, 40			; 00000028H
  00024	5f		 pop	 rdi
  00025	5d		 pop	 rbp
  00026	c3		 ret	 0
?dtor$0@?0???0InternalErrorException@Internal@Core@Math@Palmtree@@QEAA@AEBV01234@@Z@4HA ENDP ; `Palmtree::Math::Core::Internal::InternalErrorException::InternalErrorException'::`1'::dtor$0
text$x	ENDS
; Function compile flags: /Odtp /RTCsu /ZI
; File z:\sources\lunor\repos\rougemeilland\palmtree.math.core.uint\palmtree.math.core.uint\pmc_exception.h
;	COMDAT ??0InternalErrorException@Internal@Core@Math@Palmtree@@QEAA@PEB_W0@Z
_TEXT	SEGMENT
$T1 = 200
this$ = 256
message$ = 264
data$ = 272
??0InternalErrorException@Internal@Core@Math@Palmtree@@QEAA@PEB_W0@Z PROC ; Palmtree::Math::Core::Internal::InternalErrorException::InternalErrorException, COMDAT

; 286  :         {

$LN4:
  00000	4c 89 44 24 18	 mov	 QWORD PTR [rsp+24], r8
  00005	48 89 54 24 10	 mov	 QWORD PTR [rsp+16], rdx
  0000a	48 89 4c 24 08	 mov	 QWORD PTR [rsp+8], rcx
  0000f	55		 push	 rbp
  00010	57		 push	 rdi
  00011	48 81 ec 08 01
	00 00		 sub	 rsp, 264		; 00000108H
  00018	48 8d 6c 24 20	 lea	 rbp, QWORD PTR [rsp+32]
  0001d	48 8b fc	 mov	 rdi, rsp
  00020	b9 42 00 00 00	 mov	 ecx, 66			; 00000042H
  00025	b8 cc cc cc cc	 mov	 eax, -858993460		; ccccccccH
  0002a	f3 ab		 rep stosd
  0002c	48 8b 8c 24 28
	01 00 00	 mov	 rcx, QWORD PTR [rsp+296]
  00034	48 c7 85 c8 00
	00 00 fe ff ff
	ff		 mov	 QWORD PTR $T1[rbp], -2
  0003f	48 8d 0d 00 00
	00 00		 lea	 rcx, OFFSET FLAT:__802FEEC0_pmc_exception@h
  00046	e8 00 00 00 00	 call	 __CheckForDebuggerJustMyCode
  0004b	90		 npad	 1

; 285  :             : Exception(PMC_STATUS_INTERNAL_ERROR, message, data)

  0004c	4c 8b 8d 10 01
	00 00		 mov	 r9, QWORD PTR data$[rbp]
  00053	4c 8b 85 08 01
	00 00		 mov	 r8, QWORD PTR message$[rbp]
  0005a	ba 00 ff ff ff	 mov	 edx, -256		; ffffffffffffff00H
  0005f	48 8b 8d 00 01
	00 00		 mov	 rcx, QWORD PTR this$[rbp]
  00066	e8 00 00 00 00	 call	 ??0Exception@Internal@Core@Math@Palmtree@@IEAA@HPEB_W0@Z ; Palmtree::Math::Core::Internal::Exception::Exception
  0006b	90		 npad	 1

; 286  :         {

  0006c	48 8b 85 00 01
	00 00		 mov	 rax, QWORD PTR this$[rbp]
  00073	48 8d 0d 00 00
	00 00		 lea	 rcx, OFFSET FLAT:??_7InternalErrorException@Internal@Core@Math@Palmtree@@6B@
  0007a	48 89 08	 mov	 QWORD PTR [rax], rcx

; 287  :         }

  0007d	48 8b 85 00 01
	00 00		 mov	 rax, QWORD PTR this$[rbp]
  00084	48 8d a5 e8 00
	00 00		 lea	 rsp, QWORD PTR [rbp+232]
  0008b	5f		 pop	 rdi
  0008c	5d		 pop	 rbp
  0008d	c3		 ret	 0
??0InternalErrorException@Internal@Core@Math@Palmtree@@QEAA@PEB_W0@Z ENDP ; Palmtree::Math::Core::Internal::InternalErrorException::InternalErrorException
_TEXT	ENDS
;	COMDAT text$x
text$x	SEGMENT
$T1 = 200
this$ = 256
message$ = 264
data$ = 272
?dtor$0@?0???0InternalErrorException@Internal@Core@Math@Palmtree@@QEAA@PEB_W0@Z@4HA PROC ; `Palmtree::Math::Core::Internal::InternalErrorException::InternalErrorException'::`1'::dtor$0
  00000	48 89 4c 24 08	 mov	 QWORD PTR [rsp+8], rcx
  00005	48 89 54 24 10	 mov	 QWORD PTR [rsp+16], rdx
  0000a	55		 push	 rbp
  0000b	57		 push	 rdi
  0000c	48 83 ec 28	 sub	 rsp, 40			; 00000028H
  00010	48 8d 6a 20	 lea	 rbp, QWORD PTR [rdx+32]
  00014	48 8b 8d 00 01
	00 00		 mov	 rcx, QWORD PTR this$[rbp]
  0001b	e8 00 00 00 00	 call	 ??1Exception@Internal@Core@Math@Palmtree@@UEAA@XZ ; Palmtree::Math::Core::Internal::Exception::~Exception
  00020	48 83 c4 28	 add	 rsp, 40			; 00000028H
  00024	5f		 pop	 rdi
  00025	5d		 pop	 rbp
  00026	c3		 ret	 0
?dtor$0@?0???0InternalErrorException@Internal@Core@Math@Palmtree@@QEAA@PEB_W0@Z@4HA ENDP ; `Palmtree::Math::Core::Internal::InternalErrorException::InternalErrorException'::`1'::dtor$0
text$x	ENDS
; Function compile flags: /Odtp /RTCsu /ZI
;	COMDAT text$x
text$x	SEGMENT
$T1 = 200
this$ = 256
message$ = 264
data$ = 272
?dtor$0@?0???0InternalErrorException@Internal@Core@Math@Palmtree@@QEAA@PEB_W0@Z@4HA PROC ; `Palmtree::Math::Core::Internal::InternalErrorException::InternalErrorException'::`1'::dtor$0
  00000	48 89 4c 24 08	 mov	 QWORD PTR [rsp+8], rcx
  00005	48 89 54 24 10	 mov	 QWORD PTR [rsp+16], rdx
  0000a	55		 push	 rbp
  0000b	57		 push	 rdi
  0000c	48 83 ec 28	 sub	 rsp, 40			; 00000028H
  00010	48 8d 6a 20	 lea	 rbp, QWORD PTR [rdx+32]
  00014	48 8b 8d 00 01
	00 00		 mov	 rcx, QWORD PTR this$[rbp]
  0001b	e8 00 00 00 00	 call	 ??1Exception@Internal@Core@Math@Palmtree@@UEAA@XZ ; Palmtree::Math::Core::Internal::Exception::~Exception
  00020	48 83 c4 28	 add	 rsp, 40			; 00000028H
  00024	5f		 pop	 rdi
  00025	5d		 pop	 rbp
  00026	c3		 ret	 0
?dtor$0@?0???0InternalErrorException@Internal@Core@Math@Palmtree@@QEAA@PEB_W0@Z@4HA ENDP ; `Palmtree::Math::Core::Internal::InternalErrorException::InternalErrorException'::`1'::dtor$0
text$x	ENDS
; Function compile flags: /Odtp /RTCsu /ZI
;	COMDAT ??_GArithmeticException@Internal@Core@Math@Palmtree@@UEAAPEAXI@Z
_TEXT	SEGMENT
this$ = 224
__flags$ = 232
??_GArithmeticException@Internal@Core@Math@Palmtree@@UEAAPEAXI@Z PROC ; Palmtree::Math::Core::Internal::ArithmeticException::`scalar deleting destructor', COMDAT
$LN4:
  00000	89 54 24 10	 mov	 DWORD PTR [rsp+16], edx
  00004	48 89 4c 24 08	 mov	 QWORD PTR [rsp+8], rcx
  00009	55		 push	 rbp
  0000a	57		 push	 rdi
  0000b	48 81 ec e8 00
	00 00		 sub	 rsp, 232		; 000000e8H
  00012	48 8d 6c 24 20	 lea	 rbp, QWORD PTR [rsp+32]
  00017	48 8b fc	 mov	 rdi, rsp
  0001a	b9 3a 00 00 00	 mov	 ecx, 58			; 0000003aH
  0001f	b8 cc cc cc cc	 mov	 eax, -858993460		; ccccccccH
  00024	f3 ab		 rep stosd
  00026	48 8b 8c 24 08
	01 00 00	 mov	 rcx, QWORD PTR [rsp+264]
  0002e	48 8b 8d e0 00
	00 00		 mov	 rcx, QWORD PTR this$[rbp]
  00035	e8 00 00 00 00	 call	 ??1ArithmeticException@Internal@Core@Math@Palmtree@@UEAA@XZ ; Palmtree::Math::Core::Internal::ArithmeticException::~ArithmeticException
  0003a	8b 85 e8 00 00
	00		 mov	 eax, DWORD PTR __flags$[rbp]
  00040	83 e0 01	 and	 eax, 1
  00043	85 c0		 test	 eax, eax
  00045	74 11		 je	 SHORT $LN2@scalar
  00047	ba 30 00 00 00	 mov	 edx, 48			; 00000030H
  0004c	48 8b 8d e0 00
	00 00		 mov	 rcx, QWORD PTR this$[rbp]
  00053	e8 00 00 00 00	 call	 ??3@YAXPEAX_K@Z		; operator delete
$LN2@scalar:
  00058	48 8b 85 e0 00
	00 00		 mov	 rax, QWORD PTR this$[rbp]
  0005f	48 8d a5 c8 00
	00 00		 lea	 rsp, QWORD PTR [rbp+200]
  00066	5f		 pop	 rdi
  00067	5d		 pop	 rbp
  00068	c3		 ret	 0
??_GArithmeticException@Internal@Core@Math@Palmtree@@UEAAPEAXI@Z ENDP ; Palmtree::Math::Core::Internal::ArithmeticException::`scalar deleting destructor'
_TEXT	ENDS
; Function compile flags: /Odtp /RTCsu /ZI
;	COMDAT ??0ArithmeticException@Internal@Core@Math@Palmtree@@QEAA@AEBV01234@@Z
_TEXT	SEGMENT
$T1 = 200
this$ = 256
__that$ = 264
??0ArithmeticException@Internal@Core@Math@Palmtree@@QEAA@AEBV01234@@Z PROC ; Palmtree::Math::Core::Internal::ArithmeticException::ArithmeticException, COMDAT
$LN4:
  00000	48 89 54 24 10	 mov	 QWORD PTR [rsp+16], rdx
  00005	48 89 4c 24 08	 mov	 QWORD PTR [rsp+8], rcx
  0000a	55		 push	 rbp
  0000b	57		 push	 rdi
  0000c	48 81 ec 08 01
	00 00		 sub	 rsp, 264		; 00000108H
  00013	48 8d 6c 24 20	 lea	 rbp, QWORD PTR [rsp+32]
  00018	48 8b fc	 mov	 rdi, rsp
  0001b	b9 42 00 00 00	 mov	 ecx, 66			; 00000042H
  00020	b8 cc cc cc cc	 mov	 eax, -858993460		; ccccccccH
  00025	f3 ab		 rep stosd
  00027	48 8b 8c 24 28
	01 00 00	 mov	 rcx, QWORD PTR [rsp+296]
  0002f	48 c7 85 c8 00
	00 00 fe ff ff
	ff		 mov	 QWORD PTR $T1[rbp], -2
  0003a	48 8b 95 08 01
	00 00		 mov	 rdx, QWORD PTR __that$[rbp]
  00041	48 8b 8d 00 01
	00 00		 mov	 rcx, QWORD PTR this$[rbp]
  00048	e8 00 00 00 00	 call	 ??0Exception@Internal@Core@Math@Palmtree@@QEAA@AEBV01234@@Z ; Palmtree::Math::Core::Internal::Exception::Exception
  0004d	90		 npad	 1
  0004e	48 8b 85 00 01
	00 00		 mov	 rax, QWORD PTR this$[rbp]
  00055	48 8d 0d 00 00
	00 00		 lea	 rcx, OFFSET FLAT:??_7ArithmeticException@Internal@Core@Math@Palmtree@@6B@
  0005c	48 89 08	 mov	 QWORD PTR [rax], rcx
  0005f	48 8b 85 00 01
	00 00		 mov	 rax, QWORD PTR this$[rbp]
  00066	48 8d a5 e8 00
	00 00		 lea	 rsp, QWORD PTR [rbp+232]
  0006d	5f		 pop	 rdi
  0006e	5d		 pop	 rbp
  0006f	c3		 ret	 0
??0ArithmeticException@Internal@Core@Math@Palmtree@@QEAA@AEBV01234@@Z ENDP ; Palmtree::Math::Core::Internal::ArithmeticException::ArithmeticException
_TEXT	ENDS
;	COMDAT text$x
text$x	SEGMENT
$T1 = 200
this$ = 256
__that$ = 264
?dtor$0@?0???0ArithmeticException@Internal@Core@Math@Palmtree@@QEAA@AEBV01234@@Z@4HA PROC ; `Palmtree::Math::Core::Internal::ArithmeticException::ArithmeticException'::`1'::dtor$0
  00000	48 89 4c 24 08	 mov	 QWORD PTR [rsp+8], rcx
  00005	48 89 54 24 10	 mov	 QWORD PTR [rsp+16], rdx
  0000a	55		 push	 rbp
  0000b	57		 push	 rdi
  0000c	48 83 ec 28	 sub	 rsp, 40			; 00000028H
  00010	48 8d 6a 20	 lea	 rbp, QWORD PTR [rdx+32]
  00014	48 8b 8d 00 01
	00 00		 mov	 rcx, QWORD PTR this$[rbp]
  0001b	e8 00 00 00 00	 call	 ??1Exception@Internal@Core@Math@Palmtree@@UEAA@XZ ; Palmtree::Math::Core::Internal::Exception::~Exception
  00020	48 83 c4 28	 add	 rsp, 40			; 00000028H
  00024	5f		 pop	 rdi
  00025	5d		 pop	 rbp
  00026	c3		 ret	 0
?dtor$0@?0???0ArithmeticException@Internal@Core@Math@Palmtree@@QEAA@AEBV01234@@Z@4HA ENDP ; `Palmtree::Math::Core::Internal::ArithmeticException::ArithmeticException'::`1'::dtor$0
text$x	ENDS
; Function compile flags: /Odtp /RTCsu /ZI
;	COMDAT text$x
text$x	SEGMENT
$T1 = 200
this$ = 256
__that$ = 264
?dtor$0@?0???0ArithmeticException@Internal@Core@Math@Palmtree@@QEAA@AEBV01234@@Z@4HA PROC ; `Palmtree::Math::Core::Internal::ArithmeticException::ArithmeticException'::`1'::dtor$0
  00000	48 89 4c 24 08	 mov	 QWORD PTR [rsp+8], rcx
  00005	48 89 54 24 10	 mov	 QWORD PTR [rsp+16], rdx
  0000a	55		 push	 rbp
  0000b	57		 push	 rdi
  0000c	48 83 ec 28	 sub	 rsp, 40			; 00000028H
  00010	48 8d 6a 20	 lea	 rbp, QWORD PTR [rdx+32]
  00014	48 8b 8d 00 01
	00 00		 mov	 rcx, QWORD PTR this$[rbp]
  0001b	e8 00 00 00 00	 call	 ??1Exception@Internal@Core@Math@Palmtree@@UEAA@XZ ; Palmtree::Math::Core::Internal::Exception::~Exception
  00020	48 83 c4 28	 add	 rsp, 40			; 00000028H
  00024	5f		 pop	 rdi
  00025	5d		 pop	 rbp
  00026	c3		 ret	 0
?dtor$0@?0???0ArithmeticException@Internal@Core@Math@Palmtree@@QEAA@AEBV01234@@Z@4HA ENDP ; `Palmtree::Math::Core::Internal::ArithmeticException::ArithmeticException'::`1'::dtor$0
text$x	ENDS
; Function compile flags: /Odtp /RTCsu /ZI
; File z:\sources\lunor\repos\rougemeilland\palmtree.math.core.uint\palmtree.math.core.uint\pmc_exception.h
;	COMDAT ??1ArithmeticException@Internal@Core@Math@Palmtree@@UEAA@XZ
_TEXT	SEGMENT
$T1 = 200
this$ = 256
??1ArithmeticException@Internal@Core@Math@Palmtree@@UEAA@XZ PROC ; Palmtree::Math::Core::Internal::ArithmeticException::~ArithmeticException, COMDAT

; 200  :         {

$LN4:
  00000	48 89 4c 24 08	 mov	 QWORD PTR [rsp+8], rcx
  00005	55		 push	 rbp
  00006	57		 push	 rdi
  00007	48 81 ec 08 01
	00 00		 sub	 rsp, 264		; 00000108H
  0000e	48 8d 6c 24 20	 lea	 rbp, QWORD PTR [rsp+32]
  00013	48 8b fc	 mov	 rdi, rsp
  00016	b9 42 00 00 00	 mov	 ecx, 66			; 00000042H
  0001b	b8 cc cc cc cc	 mov	 eax, -858993460		; ccccccccH
  00020	f3 ab		 rep stosd
  00022	48 8b 8c 24 28
	01 00 00	 mov	 rcx, QWORD PTR [rsp+296]
  0002a	48 c7 85 c8 00
	00 00 fe ff ff
	ff		 mov	 QWORD PTR $T1[rbp], -2
  00035	48 8d 0d 00 00
	00 00		 lea	 rcx, OFFSET FLAT:__802FEEC0_pmc_exception@h
  0003c	e8 00 00 00 00	 call	 __CheckForDebuggerJustMyCode
  00041	90		 npad	 1
  00042	48 8b 85 00 01
	00 00		 mov	 rax, QWORD PTR this$[rbp]
  00049	48 8d 0d 00 00
	00 00		 lea	 rcx, OFFSET FLAT:??_7ArithmeticException@Internal@Core@Math@Palmtree@@6B@
  00050	48 89 08	 mov	 QWORD PTR [rax], rcx

; 201  :         }

  00053	48 8b 8d 00 01
	00 00		 mov	 rcx, QWORD PTR this$[rbp]
  0005a	e8 00 00 00 00	 call	 ??1Exception@Internal@Core@Math@Palmtree@@UEAA@XZ ; Palmtree::Math::Core::Internal::Exception::~Exception
  0005f	90		 npad	 1
  00060	48 8d a5 e8 00
	00 00		 lea	 rsp, QWORD PTR [rbp+232]
  00067	5f		 pop	 rdi
  00068	5d		 pop	 rbp
  00069	c3		 ret	 0
??1ArithmeticException@Internal@Core@Math@Palmtree@@UEAA@XZ ENDP ; Palmtree::Math::Core::Internal::ArithmeticException::~ArithmeticException
_TEXT	ENDS
;	COMDAT text$x
text$x	SEGMENT
$T1 = 200
this$ = 256
?dtor$0@?0???1ArithmeticException@Internal@Core@Math@Palmtree@@UEAA@XZ@4HA PROC ; `Palmtree::Math::Core::Internal::ArithmeticException::~ArithmeticException'::`1'::dtor$0
  00000	48 89 4c 24 08	 mov	 QWORD PTR [rsp+8], rcx
  00005	48 89 54 24 10	 mov	 QWORD PTR [rsp+16], rdx
  0000a	55		 push	 rbp
  0000b	57		 push	 rdi
  0000c	48 83 ec 28	 sub	 rsp, 40			; 00000028H
  00010	48 8d 6a 20	 lea	 rbp, QWORD PTR [rdx+32]
  00014	48 8b 8d 00 01
	00 00		 mov	 rcx, QWORD PTR this$[rbp]
  0001b	e8 00 00 00 00	 call	 ??1Exception@Internal@Core@Math@Palmtree@@UEAA@XZ ; Palmtree::Math::Core::Internal::Exception::~Exception
  00020	48 83 c4 28	 add	 rsp, 40			; 00000028H
  00024	5f		 pop	 rdi
  00025	5d		 pop	 rbp
  00026	c3		 ret	 0
?dtor$0@?0???1ArithmeticException@Internal@Core@Math@Palmtree@@UEAA@XZ@4HA ENDP ; `Palmtree::Math::Core::Internal::ArithmeticException::~ArithmeticException'::`1'::dtor$0
text$x	ENDS
; Function compile flags: /Odtp /RTCsu /ZI
;	COMDAT text$x
text$x	SEGMENT
$T1 = 200
this$ = 256
?dtor$0@?0???1ArithmeticException@Internal@Core@Math@Palmtree@@UEAA@XZ@4HA PROC ; `Palmtree::Math::Core::Internal::ArithmeticException::~ArithmeticException'::`1'::dtor$0
  00000	48 89 4c 24 08	 mov	 QWORD PTR [rsp+8], rcx
  00005	48 89 54 24 10	 mov	 QWORD PTR [rsp+16], rdx
  0000a	55		 push	 rbp
  0000b	57		 push	 rdi
  0000c	48 83 ec 28	 sub	 rsp, 40			; 00000028H
  00010	48 8d 6a 20	 lea	 rbp, QWORD PTR [rdx+32]
  00014	48 8b 8d 00 01
	00 00		 mov	 rcx, QWORD PTR this$[rbp]
  0001b	e8 00 00 00 00	 call	 ??1Exception@Internal@Core@Math@Palmtree@@UEAA@XZ ; Palmtree::Math::Core::Internal::Exception::~Exception
  00020	48 83 c4 28	 add	 rsp, 40			; 00000028H
  00024	5f		 pop	 rdi
  00025	5d		 pop	 rbp
  00026	c3		 ret	 0
?dtor$0@?0???1ArithmeticException@Internal@Core@Math@Palmtree@@UEAA@XZ@4HA ENDP ; `Palmtree::Math::Core::Internal::ArithmeticException::~ArithmeticException'::`1'::dtor$0
text$x	ENDS
; Function compile flags: /Odtp /RTCsu /ZI
; File z:\sources\lunor\repos\rougemeilland\palmtree.math.core.uint\palmtree.math.core.uint\pmc_exception.h
;	COMDAT ??0ArithmeticException@Internal@Core@Math@Palmtree@@QEAA@PEB_W@Z
_TEXT	SEGMENT
$T1 = 200
this$ = 256
message$ = 264
??0ArithmeticException@Internal@Core@Math@Palmtree@@QEAA@PEB_W@Z PROC ; Palmtree::Math::Core::Internal::ArithmeticException::ArithmeticException, COMDAT

; 191  :         {

$LN4:
  00000	48 89 54 24 10	 mov	 QWORD PTR [rsp+16], rdx
  00005	48 89 4c 24 08	 mov	 QWORD PTR [rsp+8], rcx
  0000a	55		 push	 rbp
  0000b	57		 push	 rdi
  0000c	48 81 ec 08 01
	00 00		 sub	 rsp, 264		; 00000108H
  00013	48 8d 6c 24 20	 lea	 rbp, QWORD PTR [rsp+32]
  00018	48 8b fc	 mov	 rdi, rsp
  0001b	b9 42 00 00 00	 mov	 ecx, 66			; 00000042H
  00020	b8 cc cc cc cc	 mov	 eax, -858993460		; ccccccccH
  00025	f3 ab		 rep stosd
  00027	48 8b 8c 24 28
	01 00 00	 mov	 rcx, QWORD PTR [rsp+296]
  0002f	48 c7 85 c8 00
	00 00 fe ff ff
	ff		 mov	 QWORD PTR $T1[rbp], -2
  0003a	48 8d 0d 00 00
	00 00		 lea	 rcx, OFFSET FLAT:__802FEEC0_pmc_exception@h
  00041	e8 00 00 00 00	 call	 __CheckForDebuggerJustMyCode
  00046	90		 npad	 1

; 190  :             : Exception(PMC_STATUS_ARITHMETIC_ERROR, message)

  00047	4c 8b 85 08 01
	00 00		 mov	 r8, QWORD PTR message$[rbp]
  0004e	ba fa ff ff ff	 mov	 edx, -6
  00053	48 8b 8d 00 01
	00 00		 mov	 rcx, QWORD PTR this$[rbp]
  0005a	e8 00 00 00 00	 call	 ??0Exception@Internal@Core@Math@Palmtree@@IEAA@HPEB_W@Z ; Palmtree::Math::Core::Internal::Exception::Exception
  0005f	90		 npad	 1

; 191  :         {

  00060	48 8b 85 00 01
	00 00		 mov	 rax, QWORD PTR this$[rbp]
  00067	48 8d 0d 00 00
	00 00		 lea	 rcx, OFFSET FLAT:??_7ArithmeticException@Internal@Core@Math@Palmtree@@6B@
  0006e	48 89 08	 mov	 QWORD PTR [rax], rcx

; 192  :         }

  00071	48 8b 85 00 01
	00 00		 mov	 rax, QWORD PTR this$[rbp]
  00078	48 8d a5 e8 00
	00 00		 lea	 rsp, QWORD PTR [rbp+232]
  0007f	5f		 pop	 rdi
  00080	5d		 pop	 rbp
  00081	c3		 ret	 0
??0ArithmeticException@Internal@Core@Math@Palmtree@@QEAA@PEB_W@Z ENDP ; Palmtree::Math::Core::Internal::ArithmeticException::ArithmeticException
_TEXT	ENDS
;	COMDAT text$x
text$x	SEGMENT
$T1 = 200
this$ = 256
message$ = 264
?dtor$0@?0???0ArithmeticException@Internal@Core@Math@Palmtree@@QEAA@PEB_W@Z@4HA PROC ; `Palmtree::Math::Core::Internal::ArithmeticException::ArithmeticException'::`1'::dtor$0
  00000	48 89 4c 24 08	 mov	 QWORD PTR [rsp+8], rcx
  00005	48 89 54 24 10	 mov	 QWORD PTR [rsp+16], rdx
  0000a	55		 push	 rbp
  0000b	57		 push	 rdi
  0000c	48 83 ec 28	 sub	 rsp, 40			; 00000028H
  00010	48 8d 6a 20	 lea	 rbp, QWORD PTR [rdx+32]
  00014	48 8b 8d 00 01
	00 00		 mov	 rcx, QWORD PTR this$[rbp]
  0001b	e8 00 00 00 00	 call	 ??1Exception@Internal@Core@Math@Palmtree@@UEAA@XZ ; Palmtree::Math::Core::Internal::Exception::~Exception
  00020	48 83 c4 28	 add	 rsp, 40			; 00000028H
  00024	5f		 pop	 rdi
  00025	5d		 pop	 rbp
  00026	c3		 ret	 0
?dtor$0@?0???0ArithmeticException@Internal@Core@Math@Palmtree@@QEAA@PEB_W@Z@4HA ENDP ; `Palmtree::Math::Core::Internal::ArithmeticException::ArithmeticException'::`1'::dtor$0
text$x	ENDS
; Function compile flags: /Odtp /RTCsu /ZI
;	COMDAT text$x
text$x	SEGMENT
$T1 = 200
this$ = 256
message$ = 264
?dtor$0@?0???0ArithmeticException@Internal@Core@Math@Palmtree@@QEAA@PEB_W@Z@4HA PROC ; `Palmtree::Math::Core::Internal::ArithmeticException::ArithmeticException'::`1'::dtor$0
  00000	48 89 4c 24 08	 mov	 QWORD PTR [rsp+8], rcx
  00005	48 89 54 24 10	 mov	 QWORD PTR [rsp+16], rdx
  0000a	55		 push	 rbp
  0000b	57		 push	 rdi
  0000c	48 83 ec 28	 sub	 rsp, 40			; 00000028H
  00010	48 8d 6a 20	 lea	 rbp, QWORD PTR [rdx+32]
  00014	48 8b 8d 00 01
	00 00		 mov	 rcx, QWORD PTR this$[rbp]
  0001b	e8 00 00 00 00	 call	 ??1Exception@Internal@Core@Math@Palmtree@@UEAA@XZ ; Palmtree::Math::Core::Internal::Exception::~Exception
  00020	48 83 c4 28	 add	 rsp, 40			; 00000028H
  00024	5f		 pop	 rdi
  00025	5d		 pop	 rbp
  00026	c3		 ret	 0
?dtor$0@?0???0ArithmeticException@Internal@Core@Math@Palmtree@@QEAA@PEB_W@Z@4HA ENDP ; `Palmtree::Math::Core::Internal::ArithmeticException::ArithmeticException'::`1'::dtor$0
text$x	ENDS
; Function compile flags: /Odtp /RTCsu /ZI
;	COMDAT ??_GOverflowException@Internal@Core@Math@Palmtree@@UEAAPEAXI@Z
_TEXT	SEGMENT
this$ = 224
__flags$ = 232
??_GOverflowException@Internal@Core@Math@Palmtree@@UEAAPEAXI@Z PROC ; Palmtree::Math::Core::Internal::OverflowException::`scalar deleting destructor', COMDAT
$LN4:
  00000	89 54 24 10	 mov	 DWORD PTR [rsp+16], edx
  00004	48 89 4c 24 08	 mov	 QWORD PTR [rsp+8], rcx
  00009	55		 push	 rbp
  0000a	57		 push	 rdi
  0000b	48 81 ec e8 00
	00 00		 sub	 rsp, 232		; 000000e8H
  00012	48 8d 6c 24 20	 lea	 rbp, QWORD PTR [rsp+32]
  00017	48 8b fc	 mov	 rdi, rsp
  0001a	b9 3a 00 00 00	 mov	 ecx, 58			; 0000003aH
  0001f	b8 cc cc cc cc	 mov	 eax, -858993460		; ccccccccH
  00024	f3 ab		 rep stosd
  00026	48 8b 8c 24 08
	01 00 00	 mov	 rcx, QWORD PTR [rsp+264]
  0002e	48 8b 8d e0 00
	00 00		 mov	 rcx, QWORD PTR this$[rbp]
  00035	e8 00 00 00 00	 call	 ??1OverflowException@Internal@Core@Math@Palmtree@@UEAA@XZ ; Palmtree::Math::Core::Internal::OverflowException::~OverflowException
  0003a	8b 85 e8 00 00
	00		 mov	 eax, DWORD PTR __flags$[rbp]
  00040	83 e0 01	 and	 eax, 1
  00043	85 c0		 test	 eax, eax
  00045	74 11		 je	 SHORT $LN2@scalar
  00047	ba 30 00 00 00	 mov	 edx, 48			; 00000030H
  0004c	48 8b 8d e0 00
	00 00		 mov	 rcx, QWORD PTR this$[rbp]
  00053	e8 00 00 00 00	 call	 ??3@YAXPEAX_K@Z		; operator delete
$LN2@scalar:
  00058	48 8b 85 e0 00
	00 00		 mov	 rax, QWORD PTR this$[rbp]
  0005f	48 8d a5 c8 00
	00 00		 lea	 rsp, QWORD PTR [rbp+200]
  00066	5f		 pop	 rdi
  00067	5d		 pop	 rbp
  00068	c3		 ret	 0
??_GOverflowException@Internal@Core@Math@Palmtree@@UEAAPEAXI@Z ENDP ; Palmtree::Math::Core::Internal::OverflowException::`scalar deleting destructor'
_TEXT	ENDS
; Function compile flags: /Odtp /RTCsu /ZI
; File z:\sources\lunor\repos\rougemeilland\palmtree.math.core.uint\palmtree.math.core.uint\pmc_exception.h
;	COMDAT ??1OverflowException@Internal@Core@Math@Palmtree@@UEAA@XZ
_TEXT	SEGMENT
$T1 = 200
this$ = 256
??1OverflowException@Internal@Core@Math@Palmtree@@UEAA@XZ PROC ; Palmtree::Math::Core::Internal::OverflowException::~OverflowException, COMDAT

; 162  :         {

$LN4:
  00000	48 89 4c 24 08	 mov	 QWORD PTR [rsp+8], rcx
  00005	55		 push	 rbp
  00006	57		 push	 rdi
  00007	48 81 ec 08 01
	00 00		 sub	 rsp, 264		; 00000108H
  0000e	48 8d 6c 24 20	 lea	 rbp, QWORD PTR [rsp+32]
  00013	48 8b fc	 mov	 rdi, rsp
  00016	b9 42 00 00 00	 mov	 ecx, 66			; 00000042H
  0001b	b8 cc cc cc cc	 mov	 eax, -858993460		; ccccccccH
  00020	f3 ab		 rep stosd
  00022	48 8b 8c 24 28
	01 00 00	 mov	 rcx, QWORD PTR [rsp+296]
  0002a	48 c7 85 c8 00
	00 00 fe ff ff
	ff		 mov	 QWORD PTR $T1[rbp], -2
  00035	48 8d 0d 00 00
	00 00		 lea	 rcx, OFFSET FLAT:__802FEEC0_pmc_exception@h
  0003c	e8 00 00 00 00	 call	 __CheckForDebuggerJustMyCode
  00041	90		 npad	 1
  00042	48 8b 85 00 01
	00 00		 mov	 rax, QWORD PTR this$[rbp]
  00049	48 8d 0d 00 00
	00 00		 lea	 rcx, OFFSET FLAT:??_7OverflowException@Internal@Core@Math@Palmtree@@6B@
  00050	48 89 08	 mov	 QWORD PTR [rax], rcx

; 163  :         }

  00053	48 8b 8d 00 01
	00 00		 mov	 rcx, QWORD PTR this$[rbp]
  0005a	e8 00 00 00 00	 call	 ??1Exception@Internal@Core@Math@Palmtree@@UEAA@XZ ; Palmtree::Math::Core::Internal::Exception::~Exception
  0005f	90		 npad	 1
  00060	48 8d a5 e8 00
	00 00		 lea	 rsp, QWORD PTR [rbp+232]
  00067	5f		 pop	 rdi
  00068	5d		 pop	 rbp
  00069	c3		 ret	 0
??1OverflowException@Internal@Core@Math@Palmtree@@UEAA@XZ ENDP ; Palmtree::Math::Core::Internal::OverflowException::~OverflowException
_TEXT	ENDS
;	COMDAT text$x
text$x	SEGMENT
$T1 = 200
this$ = 256
?dtor$0@?0???1OverflowException@Internal@Core@Math@Palmtree@@UEAA@XZ@4HA PROC ; `Palmtree::Math::Core::Internal::OverflowException::~OverflowException'::`1'::dtor$0
  00000	48 89 4c 24 08	 mov	 QWORD PTR [rsp+8], rcx
  00005	48 89 54 24 10	 mov	 QWORD PTR [rsp+16], rdx
  0000a	55		 push	 rbp
  0000b	57		 push	 rdi
  0000c	48 83 ec 28	 sub	 rsp, 40			; 00000028H
  00010	48 8d 6a 20	 lea	 rbp, QWORD PTR [rdx+32]
  00014	48 8b 8d 00 01
	00 00		 mov	 rcx, QWORD PTR this$[rbp]
  0001b	e8 00 00 00 00	 call	 ??1Exception@Internal@Core@Math@Palmtree@@UEAA@XZ ; Palmtree::Math::Core::Internal::Exception::~Exception
  00020	48 83 c4 28	 add	 rsp, 40			; 00000028H
  00024	5f		 pop	 rdi
  00025	5d		 pop	 rbp
  00026	c3		 ret	 0
?dtor$0@?0???1OverflowException@Internal@Core@Math@Palmtree@@UEAA@XZ@4HA ENDP ; `Palmtree::Math::Core::Internal::OverflowException::~OverflowException'::`1'::dtor$0
text$x	ENDS
; Function compile flags: /Odtp /RTCsu /ZI
;	COMDAT text$x
text$x	SEGMENT
$T1 = 200
this$ = 256
?dtor$0@?0???1OverflowException@Internal@Core@Math@Palmtree@@UEAA@XZ@4HA PROC ; `Palmtree::Math::Core::Internal::OverflowException::~OverflowException'::`1'::dtor$0
  00000	48 89 4c 24 08	 mov	 QWORD PTR [rsp+8], rcx
  00005	48 89 54 24 10	 mov	 QWORD PTR [rsp+16], rdx
  0000a	55		 push	 rbp
  0000b	57		 push	 rdi
  0000c	48 83 ec 28	 sub	 rsp, 40			; 00000028H
  00010	48 8d 6a 20	 lea	 rbp, QWORD PTR [rdx+32]
  00014	48 8b 8d 00 01
	00 00		 mov	 rcx, QWORD PTR this$[rbp]
  0001b	e8 00 00 00 00	 call	 ??1Exception@Internal@Core@Math@Palmtree@@UEAA@XZ ; Palmtree::Math::Core::Internal::Exception::~Exception
  00020	48 83 c4 28	 add	 rsp, 40			; 00000028H
  00024	5f		 pop	 rdi
  00025	5d		 pop	 rbp
  00026	c3		 ret	 0
?dtor$0@?0???1OverflowException@Internal@Core@Math@Palmtree@@UEAA@XZ@4HA ENDP ; `Palmtree::Math::Core::Internal::OverflowException::~OverflowException'::`1'::dtor$0
text$x	ENDS
; Function compile flags: /Odtp /RTCsu /ZI
; File z:\sources\lunor\repos\rougemeilland\palmtree.math.core.uint\palmtree.math.core.uint\pmc_exception.h
;	COMDAT ??0OverflowException@Internal@Core@Math@Palmtree@@QEAA@AEBV01234@@Z
_TEXT	SEGMENT
$T1 = 200
this$ = 256
p$ = 264
??0OverflowException@Internal@Core@Math@Palmtree@@QEAA@AEBV01234@@Z PROC ; Palmtree::Math::Core::Internal::OverflowException::OverflowException, COMDAT

; 158  :         {

$LN4:
  00000	48 89 54 24 10	 mov	 QWORD PTR [rsp+16], rdx
  00005	48 89 4c 24 08	 mov	 QWORD PTR [rsp+8], rcx
  0000a	55		 push	 rbp
  0000b	57		 push	 rdi
  0000c	48 81 ec 08 01
	00 00		 sub	 rsp, 264		; 00000108H
  00013	48 8d 6c 24 20	 lea	 rbp, QWORD PTR [rsp+32]
  00018	48 8b fc	 mov	 rdi, rsp
  0001b	b9 42 00 00 00	 mov	 ecx, 66			; 00000042H
  00020	b8 cc cc cc cc	 mov	 eax, -858993460		; ccccccccH
  00025	f3 ab		 rep stosd
  00027	48 8b 8c 24 28
	01 00 00	 mov	 rcx, QWORD PTR [rsp+296]
  0002f	48 c7 85 c8 00
	00 00 fe ff ff
	ff		 mov	 QWORD PTR $T1[rbp], -2
  0003a	48 8d 0d 00 00
	00 00		 lea	 rcx, OFFSET FLAT:__802FEEC0_pmc_exception@h
  00041	e8 00 00 00 00	 call	 __CheckForDebuggerJustMyCode
  00046	90		 npad	 1

; 157  :             : Exception(p)

  00047	48 8b 95 08 01
	00 00		 mov	 rdx, QWORD PTR p$[rbp]
  0004e	48 8b 8d 00 01
	00 00		 mov	 rcx, QWORD PTR this$[rbp]
  00055	e8 00 00 00 00	 call	 ??0Exception@Internal@Core@Math@Palmtree@@QEAA@AEBV01234@@Z ; Palmtree::Math::Core::Internal::Exception::Exception
  0005a	90		 npad	 1

; 158  :         {

  0005b	48 8b 85 00 01
	00 00		 mov	 rax, QWORD PTR this$[rbp]
  00062	48 8d 0d 00 00
	00 00		 lea	 rcx, OFFSET FLAT:??_7OverflowException@Internal@Core@Math@Palmtree@@6B@
  00069	48 89 08	 mov	 QWORD PTR [rax], rcx

; 159  :         }

  0006c	48 8b 85 00 01
	00 00		 mov	 rax, QWORD PTR this$[rbp]
  00073	48 8d a5 e8 00
	00 00		 lea	 rsp, QWORD PTR [rbp+232]
  0007a	5f		 pop	 rdi
  0007b	5d		 pop	 rbp
  0007c	c3		 ret	 0
??0OverflowException@Internal@Core@Math@Palmtree@@QEAA@AEBV01234@@Z ENDP ; Palmtree::Math::Core::Internal::OverflowException::OverflowException
_TEXT	ENDS
;	COMDAT text$x
text$x	SEGMENT
$T1 = 200
this$ = 256
p$ = 264
?dtor$0@?0???0OverflowException@Internal@Core@Math@Palmtree@@QEAA@AEBV01234@@Z@4HA PROC ; `Palmtree::Math::Core::Internal::OverflowException::OverflowException'::`1'::dtor$0
  00000	48 89 4c 24 08	 mov	 QWORD PTR [rsp+8], rcx
  00005	48 89 54 24 10	 mov	 QWORD PTR [rsp+16], rdx
  0000a	55		 push	 rbp
  0000b	57		 push	 rdi
  0000c	48 83 ec 28	 sub	 rsp, 40			; 00000028H
  00010	48 8d 6a 20	 lea	 rbp, QWORD PTR [rdx+32]
  00014	48 8b 8d 00 01
	00 00		 mov	 rcx, QWORD PTR this$[rbp]
  0001b	e8 00 00 00 00	 call	 ??1Exception@Internal@Core@Math@Palmtree@@UEAA@XZ ; Palmtree::Math::Core::Internal::Exception::~Exception
  00020	48 83 c4 28	 add	 rsp, 40			; 00000028H
  00024	5f		 pop	 rdi
  00025	5d		 pop	 rbp
  00026	c3		 ret	 0
?dtor$0@?0???0OverflowException@Internal@Core@Math@Palmtree@@QEAA@AEBV01234@@Z@4HA ENDP ; `Palmtree::Math::Core::Internal::OverflowException::OverflowException'::`1'::dtor$0
text$x	ENDS
; Function compile flags: /Odtp /RTCsu /ZI
;	COMDAT text$x
text$x	SEGMENT
$T1 = 200
this$ = 256
p$ = 264
?dtor$0@?0???0OverflowException@Internal@Core@Math@Palmtree@@QEAA@AEBV01234@@Z@4HA PROC ; `Palmtree::Math::Core::Internal::OverflowException::OverflowException'::`1'::dtor$0
  00000	48 89 4c 24 08	 mov	 QWORD PTR [rsp+8], rcx
  00005	48 89 54 24 10	 mov	 QWORD PTR [rsp+16], rdx
  0000a	55		 push	 rbp
  0000b	57		 push	 rdi
  0000c	48 83 ec 28	 sub	 rsp, 40			; 00000028H
  00010	48 8d 6a 20	 lea	 rbp, QWORD PTR [rdx+32]
  00014	48 8b 8d 00 01
	00 00		 mov	 rcx, QWORD PTR this$[rbp]
  0001b	e8 00 00 00 00	 call	 ??1Exception@Internal@Core@Math@Palmtree@@UEAA@XZ ; Palmtree::Math::Core::Internal::Exception::~Exception
  00020	48 83 c4 28	 add	 rsp, 40			; 00000028H
  00024	5f		 pop	 rdi
  00025	5d		 pop	 rbp
  00026	c3		 ret	 0
?dtor$0@?0???0OverflowException@Internal@Core@Math@Palmtree@@QEAA@AEBV01234@@Z@4HA ENDP ; `Palmtree::Math::Core::Internal::OverflowException::OverflowException'::`1'::dtor$0
text$x	ENDS
; Function compile flags: /Odtp /RTCsu /ZI
; File z:\sources\lunor\repos\rougemeilland\palmtree.math.core.uint\palmtree.math.core.uint\pmc_exception.h
;	COMDAT ??0OverflowException@Internal@Core@Math@Palmtree@@QEAA@PEB_W@Z
_TEXT	SEGMENT
$T1 = 200
this$ = 256
message$ = 264
??0OverflowException@Internal@Core@Math@Palmtree@@QEAA@PEB_W@Z PROC ; Palmtree::Math::Core::Internal::OverflowException::OverflowException, COMDAT

; 153  :         {

$LN4:
  00000	48 89 54 24 10	 mov	 QWORD PTR [rsp+16], rdx
  00005	48 89 4c 24 08	 mov	 QWORD PTR [rsp+8], rcx
  0000a	55		 push	 rbp
  0000b	57		 push	 rdi
  0000c	48 81 ec 08 01
	00 00		 sub	 rsp, 264		; 00000108H
  00013	48 8d 6c 24 20	 lea	 rbp, QWORD PTR [rsp+32]
  00018	48 8b fc	 mov	 rdi, rsp
  0001b	b9 42 00 00 00	 mov	 ecx, 66			; 00000042H
  00020	b8 cc cc cc cc	 mov	 eax, -858993460		; ccccccccH
  00025	f3 ab		 rep stosd
  00027	48 8b 8c 24 28
	01 00 00	 mov	 rcx, QWORD PTR [rsp+296]
  0002f	48 c7 85 c8 00
	00 00 fe ff ff
	ff		 mov	 QWORD PTR $T1[rbp], -2
  0003a	48 8d 0d 00 00
	00 00		 lea	 rcx, OFFSET FLAT:__802FEEC0_pmc_exception@h
  00041	e8 00 00 00 00	 call	 __CheckForDebuggerJustMyCode
  00046	90		 npad	 1

; 152  :             : Exception(PMC_STATUS_OVERFLOW, message)

  00047	4c 8b 85 08 01
	00 00		 mov	 r8, QWORD PTR message$[rbp]
  0004e	ba fc ff ff ff	 mov	 edx, -4
  00053	48 8b 8d 00 01
	00 00		 mov	 rcx, QWORD PTR this$[rbp]
  0005a	e8 00 00 00 00	 call	 ??0Exception@Internal@Core@Math@Palmtree@@IEAA@HPEB_W@Z ; Palmtree::Math::Core::Internal::Exception::Exception
  0005f	90		 npad	 1

; 153  :         {

  00060	48 8b 85 00 01
	00 00		 mov	 rax, QWORD PTR this$[rbp]
  00067	48 8d 0d 00 00
	00 00		 lea	 rcx, OFFSET FLAT:??_7OverflowException@Internal@Core@Math@Palmtree@@6B@
  0006e	48 89 08	 mov	 QWORD PTR [rax], rcx

; 154  :         }

  00071	48 8b 85 00 01
	00 00		 mov	 rax, QWORD PTR this$[rbp]
  00078	48 8d a5 e8 00
	00 00		 lea	 rsp, QWORD PTR [rbp+232]
  0007f	5f		 pop	 rdi
  00080	5d		 pop	 rbp
  00081	c3		 ret	 0
??0OverflowException@Internal@Core@Math@Palmtree@@QEAA@PEB_W@Z ENDP ; Palmtree::Math::Core::Internal::OverflowException::OverflowException
_TEXT	ENDS
;	COMDAT text$x
text$x	SEGMENT
$T1 = 200
this$ = 256
message$ = 264
?dtor$0@?0???0OverflowException@Internal@Core@Math@Palmtree@@QEAA@PEB_W@Z@4HA PROC ; `Palmtree::Math::Core::Internal::OverflowException::OverflowException'::`1'::dtor$0
  00000	48 89 4c 24 08	 mov	 QWORD PTR [rsp+8], rcx
  00005	48 89 54 24 10	 mov	 QWORD PTR [rsp+16], rdx
  0000a	55		 push	 rbp
  0000b	57		 push	 rdi
  0000c	48 83 ec 28	 sub	 rsp, 40			; 00000028H
  00010	48 8d 6a 20	 lea	 rbp, QWORD PTR [rdx+32]
  00014	48 8b 8d 00 01
	00 00		 mov	 rcx, QWORD PTR this$[rbp]
  0001b	e8 00 00 00 00	 call	 ??1Exception@Internal@Core@Math@Palmtree@@UEAA@XZ ; Palmtree::Math::Core::Internal::Exception::~Exception
  00020	48 83 c4 28	 add	 rsp, 40			; 00000028H
  00024	5f		 pop	 rdi
  00025	5d		 pop	 rbp
  00026	c3		 ret	 0
?dtor$0@?0???0OverflowException@Internal@Core@Math@Palmtree@@QEAA@PEB_W@Z@4HA ENDP ; `Palmtree::Math::Core::Internal::OverflowException::OverflowException'::`1'::dtor$0
text$x	ENDS
; Function compile flags: /Odtp /RTCsu /ZI
;	COMDAT text$x
text$x	SEGMENT
$T1 = 200
this$ = 256
message$ = 264
?dtor$0@?0???0OverflowException@Internal@Core@Math@Palmtree@@QEAA@PEB_W@Z@4HA PROC ; `Palmtree::Math::Core::Internal::OverflowException::OverflowException'::`1'::dtor$0
  00000	48 89 4c 24 08	 mov	 QWORD PTR [rsp+8], rcx
  00005	48 89 54 24 10	 mov	 QWORD PTR [rsp+16], rdx
  0000a	55		 push	 rbp
  0000b	57		 push	 rdi
  0000c	48 83 ec 28	 sub	 rsp, 40			; 00000028H
  00010	48 8d 6a 20	 lea	 rbp, QWORD PTR [rdx+32]
  00014	48 8b 8d 00 01
	00 00		 mov	 rcx, QWORD PTR this$[rbp]
  0001b	e8 00 00 00 00	 call	 ??1Exception@Internal@Core@Math@Palmtree@@UEAA@XZ ; Palmtree::Math::Core::Internal::Exception::~Exception
  00020	48 83 c4 28	 add	 rsp, 40			; 00000028H
  00024	5f		 pop	 rdi
  00025	5d		 pop	 rbp
  00026	c3		 ret	 0
?dtor$0@?0???0OverflowException@Internal@Core@Math@Palmtree@@QEAA@PEB_W@Z@4HA ENDP ; `Palmtree::Math::Core::Internal::OverflowException::OverflowException'::`1'::dtor$0
text$x	ENDS
; Function compile flags: /Odtp /RTCsu /ZI
;	COMDAT ??_GArgumentNullException@Internal@Core@Math@Palmtree@@UEAAPEAXI@Z
_TEXT	SEGMENT
this$ = 224
__flags$ = 232
??_GArgumentNullException@Internal@Core@Math@Palmtree@@UEAAPEAXI@Z PROC ; Palmtree::Math::Core::Internal::ArgumentNullException::`scalar deleting destructor', COMDAT
$LN4:
  00000	89 54 24 10	 mov	 DWORD PTR [rsp+16], edx
  00004	48 89 4c 24 08	 mov	 QWORD PTR [rsp+8], rcx
  00009	55		 push	 rbp
  0000a	57		 push	 rdi
  0000b	48 81 ec e8 00
	00 00		 sub	 rsp, 232		; 000000e8H
  00012	48 8d 6c 24 20	 lea	 rbp, QWORD PTR [rsp+32]
  00017	48 8b fc	 mov	 rdi, rsp
  0001a	b9 3a 00 00 00	 mov	 ecx, 58			; 0000003aH
  0001f	b8 cc cc cc cc	 mov	 eax, -858993460		; ccccccccH
  00024	f3 ab		 rep stosd
  00026	48 8b 8c 24 08
	01 00 00	 mov	 rcx, QWORD PTR [rsp+264]
  0002e	48 8b 8d e0 00
	00 00		 mov	 rcx, QWORD PTR this$[rbp]
  00035	e8 00 00 00 00	 call	 ??1ArgumentNullException@Internal@Core@Math@Palmtree@@UEAA@XZ ; Palmtree::Math::Core::Internal::ArgumentNullException::~ArgumentNullException
  0003a	8b 85 e8 00 00
	00		 mov	 eax, DWORD PTR __flags$[rbp]
  00040	83 e0 01	 and	 eax, 1
  00043	85 c0		 test	 eax, eax
  00045	74 11		 je	 SHORT $LN2@scalar
  00047	ba 30 00 00 00	 mov	 edx, 48			; 00000030H
  0004c	48 8b 8d e0 00
	00 00		 mov	 rcx, QWORD PTR this$[rbp]
  00053	e8 00 00 00 00	 call	 ??3@YAXPEAX_K@Z		; operator delete
$LN2@scalar:
  00058	48 8b 85 e0 00
	00 00		 mov	 rax, QWORD PTR this$[rbp]
  0005f	48 8d a5 c8 00
	00 00		 lea	 rsp, QWORD PTR [rbp+200]
  00066	5f		 pop	 rdi
  00067	5d		 pop	 rbp
  00068	c3		 ret	 0
??_GArgumentNullException@Internal@Core@Math@Palmtree@@UEAAPEAXI@Z ENDP ; Palmtree::Math::Core::Internal::ArgumentNullException::`scalar deleting destructor'
_TEXT	ENDS
; Function compile flags: /Odtp /RTCsu /ZI
; File z:\sources\lunor\repos\rougemeilland\palmtree.math.core.uint\palmtree.math.core.uint\pmc_exception.h
;	COMDAT ??1ArgumentNullException@Internal@Core@Math@Palmtree@@UEAA@XZ
_TEXT	SEGMENT
$T1 = 200
this$ = 256
??1ArgumentNullException@Internal@Core@Math@Palmtree@@UEAA@XZ PROC ; Palmtree::Math::Core::Internal::ArgumentNullException::~ArgumentNullException, COMDAT

; 124  :         {

$LN4:
  00000	48 89 4c 24 08	 mov	 QWORD PTR [rsp+8], rcx
  00005	55		 push	 rbp
  00006	57		 push	 rdi
  00007	48 81 ec 08 01
	00 00		 sub	 rsp, 264		; 00000108H
  0000e	48 8d 6c 24 20	 lea	 rbp, QWORD PTR [rsp+32]
  00013	48 8b fc	 mov	 rdi, rsp
  00016	b9 42 00 00 00	 mov	 ecx, 66			; 00000042H
  0001b	b8 cc cc cc cc	 mov	 eax, -858993460		; ccccccccH
  00020	f3 ab		 rep stosd
  00022	48 8b 8c 24 28
	01 00 00	 mov	 rcx, QWORD PTR [rsp+296]
  0002a	48 c7 85 c8 00
	00 00 fe ff ff
	ff		 mov	 QWORD PTR $T1[rbp], -2
  00035	48 8d 0d 00 00
	00 00		 lea	 rcx, OFFSET FLAT:__802FEEC0_pmc_exception@h
  0003c	e8 00 00 00 00	 call	 __CheckForDebuggerJustMyCode
  00041	90		 npad	 1
  00042	48 8b 85 00 01
	00 00		 mov	 rax, QWORD PTR this$[rbp]
  00049	48 8d 0d 00 00
	00 00		 lea	 rcx, OFFSET FLAT:??_7ArgumentNullException@Internal@Core@Math@Palmtree@@6B@
  00050	48 89 08	 mov	 QWORD PTR [rax], rcx

; 125  :         }

  00053	48 8b 8d 00 01
	00 00		 mov	 rcx, QWORD PTR this$[rbp]
  0005a	e8 00 00 00 00	 call	 ??1Exception@Internal@Core@Math@Palmtree@@UEAA@XZ ; Palmtree::Math::Core::Internal::Exception::~Exception
  0005f	90		 npad	 1
  00060	48 8d a5 e8 00
	00 00		 lea	 rsp, QWORD PTR [rbp+232]
  00067	5f		 pop	 rdi
  00068	5d		 pop	 rbp
  00069	c3		 ret	 0
??1ArgumentNullException@Internal@Core@Math@Palmtree@@UEAA@XZ ENDP ; Palmtree::Math::Core::Internal::ArgumentNullException::~ArgumentNullException
_TEXT	ENDS
;	COMDAT text$x
text$x	SEGMENT
$T1 = 200
this$ = 256
?dtor$0@?0???1ArgumentNullException@Internal@Core@Math@Palmtree@@UEAA@XZ@4HA PROC ; `Palmtree::Math::Core::Internal::ArgumentNullException::~ArgumentNullException'::`1'::dtor$0
  00000	48 89 4c 24 08	 mov	 QWORD PTR [rsp+8], rcx
  00005	48 89 54 24 10	 mov	 QWORD PTR [rsp+16], rdx
  0000a	55		 push	 rbp
  0000b	57		 push	 rdi
  0000c	48 83 ec 28	 sub	 rsp, 40			; 00000028H
  00010	48 8d 6a 20	 lea	 rbp, QWORD PTR [rdx+32]
  00014	48 8b 8d 00 01
	00 00		 mov	 rcx, QWORD PTR this$[rbp]
  0001b	e8 00 00 00 00	 call	 ??1Exception@Internal@Core@Math@Palmtree@@UEAA@XZ ; Palmtree::Math::Core::Internal::Exception::~Exception
  00020	48 83 c4 28	 add	 rsp, 40			; 00000028H
  00024	5f		 pop	 rdi
  00025	5d		 pop	 rbp
  00026	c3		 ret	 0
?dtor$0@?0???1ArgumentNullException@Internal@Core@Math@Palmtree@@UEAA@XZ@4HA ENDP ; `Palmtree::Math::Core::Internal::ArgumentNullException::~ArgumentNullException'::`1'::dtor$0
text$x	ENDS
; Function compile flags: /Odtp /RTCsu /ZI
;	COMDAT text$x
text$x	SEGMENT
$T1 = 200
this$ = 256
?dtor$0@?0???1ArgumentNullException@Internal@Core@Math@Palmtree@@UEAA@XZ@4HA PROC ; `Palmtree::Math::Core::Internal::ArgumentNullException::~ArgumentNullException'::`1'::dtor$0
  00000	48 89 4c 24 08	 mov	 QWORD PTR [rsp+8], rcx
  00005	48 89 54 24 10	 mov	 QWORD PTR [rsp+16], rdx
  0000a	55		 push	 rbp
  0000b	57		 push	 rdi
  0000c	48 83 ec 28	 sub	 rsp, 40			; 00000028H
  00010	48 8d 6a 20	 lea	 rbp, QWORD PTR [rdx+32]
  00014	48 8b 8d 00 01
	00 00		 mov	 rcx, QWORD PTR this$[rbp]
  0001b	e8 00 00 00 00	 call	 ??1Exception@Internal@Core@Math@Palmtree@@UEAA@XZ ; Palmtree::Math::Core::Internal::Exception::~Exception
  00020	48 83 c4 28	 add	 rsp, 40			; 00000028H
  00024	5f		 pop	 rdi
  00025	5d		 pop	 rbp
  00026	c3		 ret	 0
?dtor$0@?0???1ArgumentNullException@Internal@Core@Math@Palmtree@@UEAA@XZ@4HA ENDP ; `Palmtree::Math::Core::Internal::ArgumentNullException::~ArgumentNullException'::`1'::dtor$0
text$x	ENDS
; Function compile flags: /Odtp /RTCsu /ZI
; File z:\sources\lunor\repos\rougemeilland\palmtree.math.core.uint\palmtree.math.core.uint\pmc_exception.h
;	COMDAT ??0ArgumentNullException@Internal@Core@Math@Palmtree@@QEAA@AEBV01234@@Z
_TEXT	SEGMENT
$T1 = 200
this$ = 256
p$ = 264
??0ArgumentNullException@Internal@Core@Math@Palmtree@@QEAA@AEBV01234@@Z PROC ; Palmtree::Math::Core::Internal::ArgumentNullException::ArgumentNullException, COMDAT

; 120  :         {

$LN4:
  00000	48 89 54 24 10	 mov	 QWORD PTR [rsp+16], rdx
  00005	48 89 4c 24 08	 mov	 QWORD PTR [rsp+8], rcx
  0000a	55		 push	 rbp
  0000b	57		 push	 rdi
  0000c	48 81 ec 08 01
	00 00		 sub	 rsp, 264		; 00000108H
  00013	48 8d 6c 24 20	 lea	 rbp, QWORD PTR [rsp+32]
  00018	48 8b fc	 mov	 rdi, rsp
  0001b	b9 42 00 00 00	 mov	 ecx, 66			; 00000042H
  00020	b8 cc cc cc cc	 mov	 eax, -858993460		; ccccccccH
  00025	f3 ab		 rep stosd
  00027	48 8b 8c 24 28
	01 00 00	 mov	 rcx, QWORD PTR [rsp+296]
  0002f	48 c7 85 c8 00
	00 00 fe ff ff
	ff		 mov	 QWORD PTR $T1[rbp], -2
  0003a	48 8d 0d 00 00
	00 00		 lea	 rcx, OFFSET FLAT:__802FEEC0_pmc_exception@h
  00041	e8 00 00 00 00	 call	 __CheckForDebuggerJustMyCode
  00046	90		 npad	 1

; 119  :             : Exception(p)

  00047	48 8b 95 08 01
	00 00		 mov	 rdx, QWORD PTR p$[rbp]
  0004e	48 8b 8d 00 01
	00 00		 mov	 rcx, QWORD PTR this$[rbp]
  00055	e8 00 00 00 00	 call	 ??0Exception@Internal@Core@Math@Palmtree@@QEAA@AEBV01234@@Z ; Palmtree::Math::Core::Internal::Exception::Exception
  0005a	90		 npad	 1

; 120  :         {

  0005b	48 8b 85 00 01
	00 00		 mov	 rax, QWORD PTR this$[rbp]
  00062	48 8d 0d 00 00
	00 00		 lea	 rcx, OFFSET FLAT:??_7ArgumentNullException@Internal@Core@Math@Palmtree@@6B@
  00069	48 89 08	 mov	 QWORD PTR [rax], rcx

; 121  :         }

  0006c	48 8b 85 00 01
	00 00		 mov	 rax, QWORD PTR this$[rbp]
  00073	48 8d a5 e8 00
	00 00		 lea	 rsp, QWORD PTR [rbp+232]
  0007a	5f		 pop	 rdi
  0007b	5d		 pop	 rbp
  0007c	c3		 ret	 0
??0ArgumentNullException@Internal@Core@Math@Palmtree@@QEAA@AEBV01234@@Z ENDP ; Palmtree::Math::Core::Internal::ArgumentNullException::ArgumentNullException
_TEXT	ENDS
;	COMDAT text$x
text$x	SEGMENT
$T1 = 200
this$ = 256
p$ = 264
?dtor$0@?0???0ArgumentNullException@Internal@Core@Math@Palmtree@@QEAA@AEBV01234@@Z@4HA PROC ; `Palmtree::Math::Core::Internal::ArgumentNullException::ArgumentNullException'::`1'::dtor$0
  00000	48 89 4c 24 08	 mov	 QWORD PTR [rsp+8], rcx
  00005	48 89 54 24 10	 mov	 QWORD PTR [rsp+16], rdx
  0000a	55		 push	 rbp
  0000b	57		 push	 rdi
  0000c	48 83 ec 28	 sub	 rsp, 40			; 00000028H
  00010	48 8d 6a 20	 lea	 rbp, QWORD PTR [rdx+32]
  00014	48 8b 8d 00 01
	00 00		 mov	 rcx, QWORD PTR this$[rbp]
  0001b	e8 00 00 00 00	 call	 ??1Exception@Internal@Core@Math@Palmtree@@UEAA@XZ ; Palmtree::Math::Core::Internal::Exception::~Exception
  00020	48 83 c4 28	 add	 rsp, 40			; 00000028H
  00024	5f		 pop	 rdi
  00025	5d		 pop	 rbp
  00026	c3		 ret	 0
?dtor$0@?0???0ArgumentNullException@Internal@Core@Math@Palmtree@@QEAA@AEBV01234@@Z@4HA ENDP ; `Palmtree::Math::Core::Internal::ArgumentNullException::ArgumentNullException'::`1'::dtor$0
text$x	ENDS
; Function compile flags: /Odtp /RTCsu /ZI
;	COMDAT text$x
text$x	SEGMENT
$T1 = 200
this$ = 256
p$ = 264
?dtor$0@?0???0ArgumentNullException@Internal@Core@Math@Palmtree@@QEAA@AEBV01234@@Z@4HA PROC ; `Palmtree::Math::Core::Internal::ArgumentNullException::ArgumentNullException'::`1'::dtor$0
  00000	48 89 4c 24 08	 mov	 QWORD PTR [rsp+8], rcx
  00005	48 89 54 24 10	 mov	 QWORD PTR [rsp+16], rdx
  0000a	55		 push	 rbp
  0000b	57		 push	 rdi
  0000c	48 83 ec 28	 sub	 rsp, 40			; 00000028H
  00010	48 8d 6a 20	 lea	 rbp, QWORD PTR [rdx+32]
  00014	48 8b 8d 00 01
	00 00		 mov	 rcx, QWORD PTR this$[rbp]
  0001b	e8 00 00 00 00	 call	 ??1Exception@Internal@Core@Math@Palmtree@@UEAA@XZ ; Palmtree::Math::Core::Internal::Exception::~Exception
  00020	48 83 c4 28	 add	 rsp, 40			; 00000028H
  00024	5f		 pop	 rdi
  00025	5d		 pop	 rbp
  00026	c3		 ret	 0
?dtor$0@?0???0ArgumentNullException@Internal@Core@Math@Palmtree@@QEAA@AEBV01234@@Z@4HA ENDP ; `Palmtree::Math::Core::Internal::ArgumentNullException::ArgumentNullException'::`1'::dtor$0
text$x	ENDS
; Function compile flags: /Odtp /RTCsu /ZI
; File z:\sources\lunor\repos\rougemeilland\palmtree.math.core.uint\palmtree.math.core.uint\pmc_exception.h
;	COMDAT ??0ArgumentNullException@Internal@Core@Math@Palmtree@@QEAA@PEB_W0@Z
_TEXT	SEGMENT
$T1 = 200
this$ = 256
message$ = 264
param_name$ = 272
??0ArgumentNullException@Internal@Core@Math@Palmtree@@QEAA@PEB_W0@Z PROC ; Palmtree::Math::Core::Internal::ArgumentNullException::ArgumentNullException, COMDAT

; 115  :         {

$LN4:
  00000	4c 89 44 24 18	 mov	 QWORD PTR [rsp+24], r8
  00005	48 89 54 24 10	 mov	 QWORD PTR [rsp+16], rdx
  0000a	48 89 4c 24 08	 mov	 QWORD PTR [rsp+8], rcx
  0000f	55		 push	 rbp
  00010	57		 push	 rdi
  00011	48 81 ec 08 01
	00 00		 sub	 rsp, 264		; 00000108H
  00018	48 8d 6c 24 20	 lea	 rbp, QWORD PTR [rsp+32]
  0001d	48 8b fc	 mov	 rdi, rsp
  00020	b9 42 00 00 00	 mov	 ecx, 66			; 00000042H
  00025	b8 cc cc cc cc	 mov	 eax, -858993460		; ccccccccH
  0002a	f3 ab		 rep stosd
  0002c	48 8b 8c 24 28
	01 00 00	 mov	 rcx, QWORD PTR [rsp+296]
  00034	48 c7 85 c8 00
	00 00 fe ff ff
	ff		 mov	 QWORD PTR $T1[rbp], -2
  0003f	48 8d 0d 00 00
	00 00		 lea	 rcx, OFFSET FLAT:__802FEEC0_pmc_exception@h
  00046	e8 00 00 00 00	 call	 __CheckForDebuggerJustMyCode
  0004b	90		 npad	 1

; 114  :             : Exception(PMC_STATUS_ARGUMENT_NULL_ERROR, message, param_name)

  0004c	4c 8b 8d 10 01
	00 00		 mov	 r9, QWORD PTR param_name$[rbp]
  00053	4c 8b 85 08 01
	00 00		 mov	 r8, QWORD PTR message$[rbp]
  0005a	ba fe ff ff ff	 mov	 edx, -2
  0005f	48 8b 8d 00 01
	00 00		 mov	 rcx, QWORD PTR this$[rbp]
  00066	e8 00 00 00 00	 call	 ??0Exception@Internal@Core@Math@Palmtree@@IEAA@HPEB_W0@Z ; Palmtree::Math::Core::Internal::Exception::Exception
  0006b	90		 npad	 1

; 115  :         {

  0006c	48 8b 85 00 01
	00 00		 mov	 rax, QWORD PTR this$[rbp]
  00073	48 8d 0d 00 00
	00 00		 lea	 rcx, OFFSET FLAT:??_7ArgumentNullException@Internal@Core@Math@Palmtree@@6B@
  0007a	48 89 08	 mov	 QWORD PTR [rax], rcx

; 116  :         }

  0007d	48 8b 85 00 01
	00 00		 mov	 rax, QWORD PTR this$[rbp]
  00084	48 8d a5 e8 00
	00 00		 lea	 rsp, QWORD PTR [rbp+232]
  0008b	5f		 pop	 rdi
  0008c	5d		 pop	 rbp
  0008d	c3		 ret	 0
??0ArgumentNullException@Internal@Core@Math@Palmtree@@QEAA@PEB_W0@Z ENDP ; Palmtree::Math::Core::Internal::ArgumentNullException::ArgumentNullException
_TEXT	ENDS
;	COMDAT text$x
text$x	SEGMENT
$T1 = 200
this$ = 256
message$ = 264
param_name$ = 272
?dtor$0@?0???0ArgumentNullException@Internal@Core@Math@Palmtree@@QEAA@PEB_W0@Z@4HA PROC ; `Palmtree::Math::Core::Internal::ArgumentNullException::ArgumentNullException'::`1'::dtor$0
  00000	48 89 4c 24 08	 mov	 QWORD PTR [rsp+8], rcx
  00005	48 89 54 24 10	 mov	 QWORD PTR [rsp+16], rdx
  0000a	55		 push	 rbp
  0000b	57		 push	 rdi
  0000c	48 83 ec 28	 sub	 rsp, 40			; 00000028H
  00010	48 8d 6a 20	 lea	 rbp, QWORD PTR [rdx+32]
  00014	48 8b 8d 00 01
	00 00		 mov	 rcx, QWORD PTR this$[rbp]
  0001b	e8 00 00 00 00	 call	 ??1Exception@Internal@Core@Math@Palmtree@@UEAA@XZ ; Palmtree::Math::Core::Internal::Exception::~Exception
  00020	48 83 c4 28	 add	 rsp, 40			; 00000028H
  00024	5f		 pop	 rdi
  00025	5d		 pop	 rbp
  00026	c3		 ret	 0
?dtor$0@?0???0ArgumentNullException@Internal@Core@Math@Palmtree@@QEAA@PEB_W0@Z@4HA ENDP ; `Palmtree::Math::Core::Internal::ArgumentNullException::ArgumentNullException'::`1'::dtor$0
text$x	ENDS
; Function compile flags: /Odtp /RTCsu /ZI
;	COMDAT text$x
text$x	SEGMENT
$T1 = 200
this$ = 256
message$ = 264
param_name$ = 272
?dtor$0@?0???0ArgumentNullException@Internal@Core@Math@Palmtree@@QEAA@PEB_W0@Z@4HA PROC ; `Palmtree::Math::Core::Internal::ArgumentNullException::ArgumentNullException'::`1'::dtor$0
  00000	48 89 4c 24 08	 mov	 QWORD PTR [rsp+8], rcx
  00005	48 89 54 24 10	 mov	 QWORD PTR [rsp+16], rdx
  0000a	55		 push	 rbp
  0000b	57		 push	 rdi
  0000c	48 83 ec 28	 sub	 rsp, 40			; 00000028H
  00010	48 8d 6a 20	 lea	 rbp, QWORD PTR [rdx+32]
  00014	48 8b 8d 00 01
	00 00		 mov	 rcx, QWORD PTR this$[rbp]
  0001b	e8 00 00 00 00	 call	 ??1Exception@Internal@Core@Math@Palmtree@@UEAA@XZ ; Palmtree::Math::Core::Internal::Exception::~Exception
  00020	48 83 c4 28	 add	 rsp, 40			; 00000028H
  00024	5f		 pop	 rdi
  00025	5d		 pop	 rbp
  00026	c3		 ret	 0
?dtor$0@?0???0ArgumentNullException@Internal@Core@Math@Palmtree@@QEAA@PEB_W0@Z@4HA ENDP ; `Palmtree::Math::Core::Internal::ArgumentNullException::ArgumentNullException'::`1'::dtor$0
text$x	ENDS
; Function compile flags: /Odtp /RTCsu /ZI
;	COMDAT ??_GException@Internal@Core@Math@Palmtree@@UEAAPEAXI@Z
_TEXT	SEGMENT
this$ = 224
__flags$ = 232
??_GException@Internal@Core@Math@Palmtree@@UEAAPEAXI@Z PROC ; Palmtree::Math::Core::Internal::Exception::`scalar deleting destructor', COMDAT
$LN4:
  00000	89 54 24 10	 mov	 DWORD PTR [rsp+16], edx
  00004	48 89 4c 24 08	 mov	 QWORD PTR [rsp+8], rcx
  00009	55		 push	 rbp
  0000a	57		 push	 rdi
  0000b	48 81 ec e8 00
	00 00		 sub	 rsp, 232		; 000000e8H
  00012	48 8d 6c 24 20	 lea	 rbp, QWORD PTR [rsp+32]
  00017	48 8b fc	 mov	 rdi, rsp
  0001a	b9 3a 00 00 00	 mov	 ecx, 58			; 0000003aH
  0001f	b8 cc cc cc cc	 mov	 eax, -858993460		; ccccccccH
  00024	f3 ab		 rep stosd
  00026	48 8b 8c 24 08
	01 00 00	 mov	 rcx, QWORD PTR [rsp+264]
  0002e	48 8b 8d e0 00
	00 00		 mov	 rcx, QWORD PTR this$[rbp]
  00035	e8 00 00 00 00	 call	 ??1Exception@Internal@Core@Math@Palmtree@@UEAA@XZ ; Palmtree::Math::Core::Internal::Exception::~Exception
  0003a	8b 85 e8 00 00
	00		 mov	 eax, DWORD PTR __flags$[rbp]
  00040	83 e0 01	 and	 eax, 1
  00043	85 c0		 test	 eax, eax
  00045	74 11		 je	 SHORT $LN2@scalar
  00047	ba 30 00 00 00	 mov	 edx, 48			; 00000030H
  0004c	48 8b 8d e0 00
	00 00		 mov	 rcx, QWORD PTR this$[rbp]
  00053	e8 00 00 00 00	 call	 ??3@YAXPEAX_K@Z		; operator delete
$LN2@scalar:
  00058	48 8b 85 e0 00
	00 00		 mov	 rax, QWORD PTR this$[rbp]
  0005f	48 8d a5 c8 00
	00 00		 lea	 rsp, QWORD PTR [rbp+200]
  00066	5f		 pop	 rdi
  00067	5d		 pop	 rbp
  00068	c3		 ret	 0
??_GException@Internal@Core@Math@Palmtree@@UEAAPEAXI@Z ENDP ; Palmtree::Math::Core::Internal::Exception::`scalar deleting destructor'
_TEXT	ENDS
; Function compile flags: /Odtp /RTCsu /ZI
; File z:\sources\lunor\repos\rougemeilland\palmtree.math.core.uint\palmtree.math.core.uint\pmc_exception.h
;	COMDAT ??1Exception@Internal@Core@Math@Palmtree@@UEAA@XZ
_TEXT	SEGMENT
$T1 = 200
this$ = 256
??1Exception@Internal@Core@Math@Palmtree@@UEAA@XZ PROC	; Palmtree::Math::Core::Internal::Exception::~Exception, COMDAT

; 70   :         {

$LN4:
  00000	48 89 4c 24 08	 mov	 QWORD PTR [rsp+8], rcx
  00005	55		 push	 rbp
  00006	57		 push	 rdi
  00007	48 81 ec 08 01
	00 00		 sub	 rsp, 264		; 00000108H
  0000e	48 8d 6c 24 20	 lea	 rbp, QWORD PTR [rsp+32]
  00013	48 8b fc	 mov	 rdi, rsp
  00016	b9 42 00 00 00	 mov	 ecx, 66			; 00000042H
  0001b	b8 cc cc cc cc	 mov	 eax, -858993460		; ccccccccH
  00020	f3 ab		 rep stosd
  00022	48 8b 8c 24 28
	01 00 00	 mov	 rcx, QWORD PTR [rsp+296]
  0002a	48 c7 85 c8 00
	00 00 fe ff ff
	ff		 mov	 QWORD PTR $T1[rbp], -2
  00035	48 8d 0d 00 00
	00 00		 lea	 rcx, OFFSET FLAT:__802FEEC0_pmc_exception@h
  0003c	e8 00 00 00 00	 call	 __CheckForDebuggerJustMyCode
  00041	90		 npad	 1
  00042	48 8b 85 00 01
	00 00		 mov	 rax, QWORD PTR this$[rbp]
  00049	48 8d 0d 00 00
	00 00		 lea	 rcx, OFFSET FLAT:??_7Exception@Internal@Core@Math@Palmtree@@6B@
  00050	48 89 08	 mov	 QWORD PTR [rax], rcx

; 71   :         }

  00053	48 8b 8d 00 01
	00 00		 mov	 rcx, QWORD PTR this$[rbp]
  0005a	e8 00 00 00 00	 call	 ??1exception@std@@UEAA@XZ ; std::exception::~exception
  0005f	90		 npad	 1
  00060	48 8d a5 e8 00
	00 00		 lea	 rsp, QWORD PTR [rbp+232]
  00067	5f		 pop	 rdi
  00068	5d		 pop	 rbp
  00069	c3		 ret	 0
??1Exception@Internal@Core@Math@Palmtree@@UEAA@XZ ENDP	; Palmtree::Math::Core::Internal::Exception::~Exception
_TEXT	ENDS
;	COMDAT text$x
text$x	SEGMENT
$T1 = 200
this$ = 256
?dtor$0@?0???1Exception@Internal@Core@Math@Palmtree@@UEAA@XZ@4HA PROC ; `Palmtree::Math::Core::Internal::Exception::~Exception'::`1'::dtor$0
  00000	48 89 4c 24 08	 mov	 QWORD PTR [rsp+8], rcx
  00005	48 89 54 24 10	 mov	 QWORD PTR [rsp+16], rdx
  0000a	55		 push	 rbp
  0000b	57		 push	 rdi
  0000c	48 83 ec 28	 sub	 rsp, 40			; 00000028H
  00010	48 8d 6a 20	 lea	 rbp, QWORD PTR [rdx+32]
  00014	48 8b 8d 00 01
	00 00		 mov	 rcx, QWORD PTR this$[rbp]
  0001b	e8 00 00 00 00	 call	 ??1exception@std@@UEAA@XZ ; std::exception::~exception
  00020	48 83 c4 28	 add	 rsp, 40			; 00000028H
  00024	5f		 pop	 rdi
  00025	5d		 pop	 rbp
  00026	c3		 ret	 0
?dtor$0@?0???1Exception@Internal@Core@Math@Palmtree@@UEAA@XZ@4HA ENDP ; `Palmtree::Math::Core::Internal::Exception::~Exception'::`1'::dtor$0
text$x	ENDS
; Function compile flags: /Odtp /RTCsu /ZI
;	COMDAT text$x
text$x	SEGMENT
$T1 = 200
this$ = 256
?dtor$0@?0???1Exception@Internal@Core@Math@Palmtree@@UEAA@XZ@4HA PROC ; `Palmtree::Math::Core::Internal::Exception::~Exception'::`1'::dtor$0
  00000	48 89 4c 24 08	 mov	 QWORD PTR [rsp+8], rcx
  00005	48 89 54 24 10	 mov	 QWORD PTR [rsp+16], rdx
  0000a	55		 push	 rbp
  0000b	57		 push	 rdi
  0000c	48 83 ec 28	 sub	 rsp, 40			; 00000028H
  00010	48 8d 6a 20	 lea	 rbp, QWORD PTR [rdx+32]
  00014	48 8b 8d 00 01
	00 00		 mov	 rcx, QWORD PTR this$[rbp]
  0001b	e8 00 00 00 00	 call	 ??1exception@std@@UEAA@XZ ; std::exception::~exception
  00020	48 83 c4 28	 add	 rsp, 40			; 00000028H
  00024	5f		 pop	 rdi
  00025	5d		 pop	 rbp
  00026	c3		 ret	 0
?dtor$0@?0???1Exception@Internal@Core@Math@Palmtree@@UEAA@XZ@4HA ENDP ; `Palmtree::Math::Core::Internal::Exception::~Exception'::`1'::dtor$0
text$x	ENDS
; Function compile flags: /Odtp /RTCsu /ZI
; File z:\sources\lunor\repos\rougemeilland\palmtree.math.core.uint\palmtree.math.core.uint\pmc_exception.h
;	COMDAT ??0Exception@Internal@Core@Math@Palmtree@@QEAA@AEBV01234@@Z
_TEXT	SEGMENT
$T1 = 200
this$ = 256
p$ = 264
??0Exception@Internal@Core@Math@Palmtree@@QEAA@AEBV01234@@Z PROC ; Palmtree::Math::Core::Internal::Exception::Exception, COMDAT

; 62   :         Exception(const Exception& p) noexcept(true)

$LN4:
  00000	48 89 54 24 10	 mov	 QWORD PTR [rsp+16], rdx
  00005	48 89 4c 24 08	 mov	 QWORD PTR [rsp+8], rcx
  0000a	55		 push	 rbp
  0000b	57		 push	 rdi
  0000c	48 81 ec 08 01
	00 00		 sub	 rsp, 264		; 00000108H
  00013	48 8d 6c 24 20	 lea	 rbp, QWORD PTR [rsp+32]
  00018	48 8b fc	 mov	 rdi, rsp
  0001b	b9 42 00 00 00	 mov	 ecx, 66			; 00000042H
  00020	b8 cc cc cc cc	 mov	 eax, -858993460		; ccccccccH
  00025	f3 ab		 rep stosd
  00027	48 8b 8c 24 28
	01 00 00	 mov	 rcx, QWORD PTR [rsp+296]
  0002f	48 c7 85 c8 00
	00 00 fe ff ff
	ff		 mov	 QWORD PTR $T1[rbp], -2
  0003a	48 8d 0d 00 00
	00 00		 lea	 rcx, OFFSET FLAT:__802FEEC0_pmc_exception@h
  00041	e8 00 00 00 00	 call	 __CheckForDebuggerJustMyCode
  00046	90		 npad	 1
  00047	48 8b 8d 00 01
	00 00		 mov	 rcx, QWORD PTR this$[rbp]
  0004e	e8 00 00 00 00	 call	 ??0exception@std@@QEAA@XZ ; std::exception::exception
  00053	90		 npad	 1
  00054	48 8b 85 00 01
	00 00		 mov	 rax, QWORD PTR this$[rbp]
  0005b	48 8d 0d 00 00
	00 00		 lea	 rcx, OFFSET FLAT:??_7Exception@Internal@Core@Math@Palmtree@@6B@
  00062	48 89 08	 mov	 QWORD PTR [rax], rcx

; 63   :         {
; 64   :             _code = p._code;

  00065	48 8b 85 00 01
	00 00		 mov	 rax, QWORD PTR this$[rbp]
  0006c	48 8b 8d 08 01
	00 00		 mov	 rcx, QWORD PTR p$[rbp]
  00073	8b 49 18	 mov	 ecx, DWORD PTR [rcx+24]
  00076	89 48 18	 mov	 DWORD PTR [rax+24], ecx

; 65   :             _message = p._message;

  00079	48 8b 85 00 01
	00 00		 mov	 rax, QWORD PTR this$[rbp]
  00080	48 8b 8d 08 01
	00 00		 mov	 rcx, QWORD PTR p$[rbp]
  00087	48 8b 49 20	 mov	 rcx, QWORD PTR [rcx+32]
  0008b	48 89 48 20	 mov	 QWORD PTR [rax+32], rcx

; 66   :             _data = p._data;

  0008f	48 8b 85 00 01
	00 00		 mov	 rax, QWORD PTR this$[rbp]
  00096	48 8b 8d 08 01
	00 00		 mov	 rcx, QWORD PTR p$[rbp]
  0009d	48 8b 49 28	 mov	 rcx, QWORD PTR [rcx+40]
  000a1	48 89 48 28	 mov	 QWORD PTR [rax+40], rcx

; 67   :         }

  000a5	48 8b 85 00 01
	00 00		 mov	 rax, QWORD PTR this$[rbp]
  000ac	48 8d a5 e8 00
	00 00		 lea	 rsp, QWORD PTR [rbp+232]
  000b3	5f		 pop	 rdi
  000b4	5d		 pop	 rbp
  000b5	c3		 ret	 0
??0Exception@Internal@Core@Math@Palmtree@@QEAA@AEBV01234@@Z ENDP ; Palmtree::Math::Core::Internal::Exception::Exception
_TEXT	ENDS
;	COMDAT text$x
text$x	SEGMENT
$T1 = 200
this$ = 256
p$ = 264
?dtor$0@?0???0Exception@Internal@Core@Math@Palmtree@@QEAA@AEBV01234@@Z@4HA PROC ; `Palmtree::Math::Core::Internal::Exception::Exception'::`1'::dtor$0
  00000	48 89 4c 24 08	 mov	 QWORD PTR [rsp+8], rcx
  00005	48 89 54 24 10	 mov	 QWORD PTR [rsp+16], rdx
  0000a	55		 push	 rbp
  0000b	57		 push	 rdi
  0000c	48 83 ec 28	 sub	 rsp, 40			; 00000028H
  00010	48 8d 6a 20	 lea	 rbp, QWORD PTR [rdx+32]
  00014	48 8b 8d 00 01
	00 00		 mov	 rcx, QWORD PTR this$[rbp]
  0001b	e8 00 00 00 00	 call	 ??1exception@std@@UEAA@XZ ; std::exception::~exception
  00020	48 83 c4 28	 add	 rsp, 40			; 00000028H
  00024	5f		 pop	 rdi
  00025	5d		 pop	 rbp
  00026	c3		 ret	 0
?dtor$0@?0???0Exception@Internal@Core@Math@Palmtree@@QEAA@AEBV01234@@Z@4HA ENDP ; `Palmtree::Math::Core::Internal::Exception::Exception'::`1'::dtor$0
text$x	ENDS
; Function compile flags: /Odtp /RTCsu /ZI
;	COMDAT text$x
text$x	SEGMENT
$T1 = 200
this$ = 256
p$ = 264
?dtor$0@?0???0Exception@Internal@Core@Math@Palmtree@@QEAA@AEBV01234@@Z@4HA PROC ; `Palmtree::Math::Core::Internal::Exception::Exception'::`1'::dtor$0
  00000	48 89 4c 24 08	 mov	 QWORD PTR [rsp+8], rcx
  00005	48 89 54 24 10	 mov	 QWORD PTR [rsp+16], rdx
  0000a	55		 push	 rbp
  0000b	57		 push	 rdi
  0000c	48 83 ec 28	 sub	 rsp, 40			; 00000028H
  00010	48 8d 6a 20	 lea	 rbp, QWORD PTR [rdx+32]
  00014	48 8b 8d 00 01
	00 00		 mov	 rcx, QWORD PTR this$[rbp]
  0001b	e8 00 00 00 00	 call	 ??1exception@std@@UEAA@XZ ; std::exception::~exception
  00020	48 83 c4 28	 add	 rsp, 40			; 00000028H
  00024	5f		 pop	 rdi
  00025	5d		 pop	 rbp
  00026	c3		 ret	 0
?dtor$0@?0???0Exception@Internal@Core@Math@Palmtree@@QEAA@AEBV01234@@Z@4HA ENDP ; `Palmtree::Math::Core::Internal::Exception::Exception'::`1'::dtor$0
text$x	ENDS
; Function compile flags: /Odtp /RTCsu /ZI
; File z:\sources\lunor\repos\rougemeilland\palmtree.math.core.uint\palmtree.math.core.uint\pmc_exception.h
;	COMDAT ??0Exception@Internal@Core@Math@Palmtree@@IEAA@HPEB_W0@Z
_TEXT	SEGMENT
$T1 = 200
this$ = 256
code$ = 264
message$ = 272
data$ = 280
??0Exception@Internal@Core@Math@Palmtree@@IEAA@HPEB_W0@Z PROC ; Palmtree::Math::Core::Internal::Exception::Exception, COMDAT

; 54   :         Exception(PMC_STATUS_CODE code, const wchar_t* message, const wchar_t* data) noexcept(true)

$LN4:
  00000	4c 89 4c 24 20	 mov	 QWORD PTR [rsp+32], r9
  00005	4c 89 44 24 18	 mov	 QWORD PTR [rsp+24], r8
  0000a	89 54 24 10	 mov	 DWORD PTR [rsp+16], edx
  0000e	48 89 4c 24 08	 mov	 QWORD PTR [rsp+8], rcx
  00013	55		 push	 rbp
  00014	57		 push	 rdi
  00015	48 81 ec 08 01
	00 00		 sub	 rsp, 264		; 00000108H
  0001c	48 8d 6c 24 20	 lea	 rbp, QWORD PTR [rsp+32]
  00021	48 8b fc	 mov	 rdi, rsp
  00024	b9 42 00 00 00	 mov	 ecx, 66			; 00000042H
  00029	b8 cc cc cc cc	 mov	 eax, -858993460		; ccccccccH
  0002e	f3 ab		 rep stosd
  00030	48 8b 8c 24 28
	01 00 00	 mov	 rcx, QWORD PTR [rsp+296]
  00038	48 c7 85 c8 00
	00 00 fe ff ff
	ff		 mov	 QWORD PTR $T1[rbp], -2
  00043	48 8d 0d 00 00
	00 00		 lea	 rcx, OFFSET FLAT:__802FEEC0_pmc_exception@h
  0004a	e8 00 00 00 00	 call	 __CheckForDebuggerJustMyCode
  0004f	90		 npad	 1
  00050	48 8b 8d 00 01
	00 00		 mov	 rcx, QWORD PTR this$[rbp]
  00057	e8 00 00 00 00	 call	 ??0exception@std@@QEAA@XZ ; std::exception::exception
  0005c	90		 npad	 1
  0005d	48 8b 85 00 01
	00 00		 mov	 rax, QWORD PTR this$[rbp]
  00064	48 8d 0d 00 00
	00 00		 lea	 rcx, OFFSET FLAT:??_7Exception@Internal@Core@Math@Palmtree@@6B@
  0006b	48 89 08	 mov	 QWORD PTR [rax], rcx

; 55   :         {
; 56   :             _code = code;

  0006e	48 8b 85 00 01
	00 00		 mov	 rax, QWORD PTR this$[rbp]
  00075	8b 8d 08 01 00
	00		 mov	 ecx, DWORD PTR code$[rbp]
  0007b	89 48 18	 mov	 DWORD PTR [rax+24], ecx

; 57   :             _message = message;

  0007e	48 8b 85 00 01
	00 00		 mov	 rax, QWORD PTR this$[rbp]
  00085	48 8b 8d 10 01
	00 00		 mov	 rcx, QWORD PTR message$[rbp]
  0008c	48 89 48 20	 mov	 QWORD PTR [rax+32], rcx

; 58   :             _data = data;

  00090	48 8b 85 00 01
	00 00		 mov	 rax, QWORD PTR this$[rbp]
  00097	48 8b 8d 18 01
	00 00		 mov	 rcx, QWORD PTR data$[rbp]
  0009e	48 89 48 28	 mov	 QWORD PTR [rax+40], rcx

; 59   :         }

  000a2	48 8b 85 00 01
	00 00		 mov	 rax, QWORD PTR this$[rbp]
  000a9	48 8d a5 e8 00
	00 00		 lea	 rsp, QWORD PTR [rbp+232]
  000b0	5f		 pop	 rdi
  000b1	5d		 pop	 rbp
  000b2	c3		 ret	 0
??0Exception@Internal@Core@Math@Palmtree@@IEAA@HPEB_W0@Z ENDP ; Palmtree::Math::Core::Internal::Exception::Exception
_TEXT	ENDS
;	COMDAT text$x
text$x	SEGMENT
$T1 = 200
this$ = 256
code$ = 264
message$ = 272
data$ = 280
?dtor$0@?0???0Exception@Internal@Core@Math@Palmtree@@IEAA@HPEB_W0@Z@4HA PROC ; `Palmtree::Math::Core::Internal::Exception::Exception'::`1'::dtor$0
  00000	48 89 4c 24 08	 mov	 QWORD PTR [rsp+8], rcx
  00005	48 89 54 24 10	 mov	 QWORD PTR [rsp+16], rdx
  0000a	55		 push	 rbp
  0000b	57		 push	 rdi
  0000c	48 83 ec 28	 sub	 rsp, 40			; 00000028H
  00010	48 8d 6a 20	 lea	 rbp, QWORD PTR [rdx+32]
  00014	48 8b 8d 00 01
	00 00		 mov	 rcx, QWORD PTR this$[rbp]
  0001b	e8 00 00 00 00	 call	 ??1exception@std@@UEAA@XZ ; std::exception::~exception
  00020	48 83 c4 28	 add	 rsp, 40			; 00000028H
  00024	5f		 pop	 rdi
  00025	5d		 pop	 rbp
  00026	c3		 ret	 0
?dtor$0@?0???0Exception@Internal@Core@Math@Palmtree@@IEAA@HPEB_W0@Z@4HA ENDP ; `Palmtree::Math::Core::Internal::Exception::Exception'::`1'::dtor$0
text$x	ENDS
; Function compile flags: /Odtp /RTCsu /ZI
;	COMDAT text$x
text$x	SEGMENT
$T1 = 200
this$ = 256
code$ = 264
message$ = 272
data$ = 280
?dtor$0@?0???0Exception@Internal@Core@Math@Palmtree@@IEAA@HPEB_W0@Z@4HA PROC ; `Palmtree::Math::Core::Internal::Exception::Exception'::`1'::dtor$0
  00000	48 89 4c 24 08	 mov	 QWORD PTR [rsp+8], rcx
  00005	48 89 54 24 10	 mov	 QWORD PTR [rsp+16], rdx
  0000a	55		 push	 rbp
  0000b	57		 push	 rdi
  0000c	48 83 ec 28	 sub	 rsp, 40			; 00000028H
  00010	48 8d 6a 20	 lea	 rbp, QWORD PTR [rdx+32]
  00014	48 8b 8d 00 01
	00 00		 mov	 rcx, QWORD PTR this$[rbp]
  0001b	e8 00 00 00 00	 call	 ??1exception@std@@UEAA@XZ ; std::exception::~exception
  00020	48 83 c4 28	 add	 rsp, 40			; 00000028H
  00024	5f		 pop	 rdi
  00025	5d		 pop	 rbp
  00026	c3		 ret	 0
?dtor$0@?0???0Exception@Internal@Core@Math@Palmtree@@IEAA@HPEB_W0@Z@4HA ENDP ; `Palmtree::Math::Core::Internal::Exception::Exception'::`1'::dtor$0
text$x	ENDS
; Function compile flags: /Odtp /RTCsu /ZI
; File z:\sources\lunor\repos\rougemeilland\palmtree.math.core.uint\palmtree.math.core.uint\pmc_exception.h
;	COMDAT ??0Exception@Internal@Core@Math@Palmtree@@IEAA@HPEB_W@Z
_TEXT	SEGMENT
$T1 = 200
this$ = 256
code$ = 264
message$ = 272
??0Exception@Internal@Core@Math@Palmtree@@IEAA@HPEB_W@Z PROC ; Palmtree::Math::Core::Internal::Exception::Exception, COMDAT

; 47   :         Exception(PMC_STATUS_CODE code, const wchar_t* message) noexcept(true)

$LN4:
  00000	4c 89 44 24 18	 mov	 QWORD PTR [rsp+24], r8
  00005	89 54 24 10	 mov	 DWORD PTR [rsp+16], edx
  00009	48 89 4c 24 08	 mov	 QWORD PTR [rsp+8], rcx
  0000e	55		 push	 rbp
  0000f	57		 push	 rdi
  00010	48 81 ec 08 01
	00 00		 sub	 rsp, 264		; 00000108H
  00017	48 8d 6c 24 20	 lea	 rbp, QWORD PTR [rsp+32]
  0001c	48 8b fc	 mov	 rdi, rsp
  0001f	b9 42 00 00 00	 mov	 ecx, 66			; 00000042H
  00024	b8 cc cc cc cc	 mov	 eax, -858993460		; ccccccccH
  00029	f3 ab		 rep stosd
  0002b	48 8b 8c 24 28
	01 00 00	 mov	 rcx, QWORD PTR [rsp+296]
  00033	48 c7 85 c8 00
	00 00 fe ff ff
	ff		 mov	 QWORD PTR $T1[rbp], -2
  0003e	48 8d 0d 00 00
	00 00		 lea	 rcx, OFFSET FLAT:__802FEEC0_pmc_exception@h
  00045	e8 00 00 00 00	 call	 __CheckForDebuggerJustMyCode
  0004a	90		 npad	 1
  0004b	48 8b 8d 00 01
	00 00		 mov	 rcx, QWORD PTR this$[rbp]
  00052	e8 00 00 00 00	 call	 ??0exception@std@@QEAA@XZ ; std::exception::exception
  00057	90		 npad	 1
  00058	48 8b 85 00 01
	00 00		 mov	 rax, QWORD PTR this$[rbp]
  0005f	48 8d 0d 00 00
	00 00		 lea	 rcx, OFFSET FLAT:??_7Exception@Internal@Core@Math@Palmtree@@6B@
  00066	48 89 08	 mov	 QWORD PTR [rax], rcx

; 48   :         {
; 49   :             _code = code;

  00069	48 8b 85 00 01
	00 00		 mov	 rax, QWORD PTR this$[rbp]
  00070	8b 8d 08 01 00
	00		 mov	 ecx, DWORD PTR code$[rbp]
  00076	89 48 18	 mov	 DWORD PTR [rax+24], ecx

; 50   :             _message = message;

  00079	48 8b 85 00 01
	00 00		 mov	 rax, QWORD PTR this$[rbp]
  00080	48 8b 8d 10 01
	00 00		 mov	 rcx, QWORD PTR message$[rbp]
  00087	48 89 48 20	 mov	 QWORD PTR [rax+32], rcx

; 51   :             _data = nullptr;

  0008b	48 8b 85 00 01
	00 00		 mov	 rax, QWORD PTR this$[rbp]
  00092	48 c7 40 28 00
	00 00 00	 mov	 QWORD PTR [rax+40], 0

; 52   :         }

  0009a	48 8b 85 00 01
	00 00		 mov	 rax, QWORD PTR this$[rbp]
  000a1	48 8d a5 e8 00
	00 00		 lea	 rsp, QWORD PTR [rbp+232]
  000a8	5f		 pop	 rdi
  000a9	5d		 pop	 rbp
  000aa	c3		 ret	 0
??0Exception@Internal@Core@Math@Palmtree@@IEAA@HPEB_W@Z ENDP ; Palmtree::Math::Core::Internal::Exception::Exception
_TEXT	ENDS
;	COMDAT text$x
text$x	SEGMENT
$T1 = 200
this$ = 256
code$ = 264
message$ = 272
?dtor$0@?0???0Exception@Internal@Core@Math@Palmtree@@IEAA@HPEB_W@Z@4HA PROC ; `Palmtree::Math::Core::Internal::Exception::Exception'::`1'::dtor$0
  00000	48 89 4c 24 08	 mov	 QWORD PTR [rsp+8], rcx
  00005	48 89 54 24 10	 mov	 QWORD PTR [rsp+16], rdx
  0000a	55		 push	 rbp
  0000b	57		 push	 rdi
  0000c	48 83 ec 28	 sub	 rsp, 40			; 00000028H
  00010	48 8d 6a 20	 lea	 rbp, QWORD PTR [rdx+32]
  00014	48 8b 8d 00 01
	00 00		 mov	 rcx, QWORD PTR this$[rbp]
  0001b	e8 00 00 00 00	 call	 ??1exception@std@@UEAA@XZ ; std::exception::~exception
  00020	48 83 c4 28	 add	 rsp, 40			; 00000028H
  00024	5f		 pop	 rdi
  00025	5d		 pop	 rbp
  00026	c3		 ret	 0
?dtor$0@?0???0Exception@Internal@Core@Math@Palmtree@@IEAA@HPEB_W@Z@4HA ENDP ; `Palmtree::Math::Core::Internal::Exception::Exception'::`1'::dtor$0
text$x	ENDS
; Function compile flags: /Odtp /RTCsu /ZI
;	COMDAT text$x
text$x	SEGMENT
$T1 = 200
this$ = 256
code$ = 264
message$ = 272
?dtor$0@?0???0Exception@Internal@Core@Math@Palmtree@@IEAA@HPEB_W@Z@4HA PROC ; `Palmtree::Math::Core::Internal::Exception::Exception'::`1'::dtor$0
  00000	48 89 4c 24 08	 mov	 QWORD PTR [rsp+8], rcx
  00005	48 89 54 24 10	 mov	 QWORD PTR [rsp+16], rdx
  0000a	55		 push	 rbp
  0000b	57		 push	 rdi
  0000c	48 83 ec 28	 sub	 rsp, 40			; 00000028H
  00010	48 8d 6a 20	 lea	 rbp, QWORD PTR [rdx+32]
  00014	48 8b 8d 00 01
	00 00		 mov	 rcx, QWORD PTR this$[rbp]
  0001b	e8 00 00 00 00	 call	 ??1exception@std@@UEAA@XZ ; std::exception::~exception
  00020	48 83 c4 28	 add	 rsp, 40			; 00000028H
  00024	5f		 pop	 rdi
  00025	5d		 pop	 rbp
  00026	c3		 ret	 0
?dtor$0@?0???0Exception@Internal@Core@Math@Palmtree@@IEAA@HPEB_W@Z@4HA ENDP ; `Palmtree::Math::Core::Internal::Exception::Exception'::`1'::dtor$0
text$x	ENDS
; Function compile flags: /Odtp /RTCsu /ZI
;	COMDAT ??_Gexception@std@@UEAAPEAXI@Z
_TEXT	SEGMENT
this$ = 224
__flags$ = 232
??_Gexception@std@@UEAAPEAXI@Z PROC			; std::exception::`scalar deleting destructor', COMDAT
$LN4:
  00000	89 54 24 10	 mov	 DWORD PTR [rsp+16], edx
  00004	48 89 4c 24 08	 mov	 QWORD PTR [rsp+8], rcx
  00009	55		 push	 rbp
  0000a	57		 push	 rdi
  0000b	48 81 ec e8 00
	00 00		 sub	 rsp, 232		; 000000e8H
  00012	48 8d 6c 24 20	 lea	 rbp, QWORD PTR [rsp+32]
  00017	48 8b fc	 mov	 rdi, rsp
  0001a	b9 3a 00 00 00	 mov	 ecx, 58			; 0000003aH
  0001f	b8 cc cc cc cc	 mov	 eax, -858993460		; ccccccccH
  00024	f3 ab		 rep stosd
  00026	48 8b 8c 24 08
	01 00 00	 mov	 rcx, QWORD PTR [rsp+264]
  0002e	48 8b 8d e0 00
	00 00		 mov	 rcx, QWORD PTR this$[rbp]
  00035	e8 00 00 00 00	 call	 ??1exception@std@@UEAA@XZ ; std::exception::~exception
  0003a	8b 85 e8 00 00
	00		 mov	 eax, DWORD PTR __flags$[rbp]
  00040	83 e0 01	 and	 eax, 1
  00043	85 c0		 test	 eax, eax
  00045	74 11		 je	 SHORT $LN2@scalar
  00047	ba 18 00 00 00	 mov	 edx, 24
  0004c	48 8b 8d e0 00
	00 00		 mov	 rcx, QWORD PTR this$[rbp]
  00053	e8 00 00 00 00	 call	 ??3@YAXPEAX_K@Z		; operator delete
$LN2@scalar:
  00058	48 8b 85 e0 00
	00 00		 mov	 rax, QWORD PTR this$[rbp]
  0005f	48 8d a5 c8 00
	00 00		 lea	 rsp, QWORD PTR [rbp+200]
  00066	5f		 pop	 rdi
  00067	5d		 pop	 rbp
  00068	c3		 ret	 0
??_Gexception@std@@UEAAPEAXI@Z ENDP			; std::exception::`scalar deleting destructor'
_TEXT	ENDS
; Function compile flags: /Odtp /RTCsu /ZI
; File c:\program files (x86)\microsoft visual studio\2017\community\vc\tools\msvc\14.16.27023\include\vcruntime_exception.h
;	COMDAT ?what@exception@std@@UEBAPEBDXZ
_TEXT	SEGMENT
tv69 = 192
this$ = 240
?what@exception@std@@UEBAPEBDXZ PROC			; std::exception::what, COMDAT

; 90   :     {

$LN5:
  00000	48 89 4c 24 08	 mov	 QWORD PTR [rsp+8], rcx
  00005	55		 push	 rbp
  00006	57		 push	 rdi
  00007	48 81 ec f8 00
	00 00		 sub	 rsp, 248		; 000000f8H
  0000e	48 8d 6c 24 20	 lea	 rbp, QWORD PTR [rsp+32]
  00013	48 8b fc	 mov	 rdi, rsp
  00016	b9 3e 00 00 00	 mov	 ecx, 62			; 0000003eH
  0001b	b8 cc cc cc cc	 mov	 eax, -858993460		; ccccccccH
  00020	f3 ab		 rep stosd
  00022	48 8b 8c 24 18
	01 00 00	 mov	 rcx, QWORD PTR [rsp+280]
  0002a	48 8d 0d 00 00
	00 00		 lea	 rcx, OFFSET FLAT:__9BB4E194_vcruntime_exception@h
  00031	e8 00 00 00 00	 call	 __CheckForDebuggerJustMyCode

; 91   :         return _Data._What ? _Data._What : "Unknown exception";

  00036	48 8b 85 f0 00
	00 00		 mov	 rax, QWORD PTR this$[rbp]
  0003d	48 83 78 08 00	 cmp	 QWORD PTR [rax+8], 0
  00042	74 14		 je	 SHORT $LN3@what
  00044	48 8b 85 f0 00
	00 00		 mov	 rax, QWORD PTR this$[rbp]
  0004b	48 8b 40 08	 mov	 rax, QWORD PTR [rax+8]
  0004f	48 89 85 c0 00
	00 00		 mov	 QWORD PTR tv69[rbp], rax
  00056	eb 0e		 jmp	 SHORT $LN4@what
$LN3@what:
  00058	48 8d 05 00 00
	00 00		 lea	 rax, OFFSET FLAT:??_C@_0BC@EOODALEL@Unknown?5exception@
  0005f	48 89 85 c0 00
	00 00		 mov	 QWORD PTR tv69[rbp], rax
$LN4@what:
  00066	48 8b 85 c0 00
	00 00		 mov	 rax, QWORD PTR tv69[rbp]

; 92   :     }

  0006d	48 8d a5 d8 00
	00 00		 lea	 rsp, QWORD PTR [rbp+216]
  00074	5f		 pop	 rdi
  00075	5d		 pop	 rbp
  00076	c3		 ret	 0
?what@exception@std@@UEBAPEBDXZ ENDP			; std::exception::what
_TEXT	ENDS
; Function compile flags: /Odtp /RTCsu /ZI
; File c:\program files (x86)\microsoft visual studio\2017\community\vc\tools\msvc\14.16.27023\include\vcruntime_exception.h
;	COMDAT ??1exception@std@@UEAA@XZ
_TEXT	SEGMENT
$T1 = 200
this$ = 256
??1exception@std@@UEAA@XZ PROC				; std::exception::~exception, COMDAT

; 85   :     {

$LN3:
  00000	48 89 4c 24 08	 mov	 QWORD PTR [rsp+8], rcx
  00005	55		 push	 rbp
  00006	57		 push	 rdi
  00007	48 81 ec 08 01
	00 00		 sub	 rsp, 264		; 00000108H
  0000e	48 8d 6c 24 20	 lea	 rbp, QWORD PTR [rsp+32]
  00013	48 8b fc	 mov	 rdi, rsp
  00016	b9 42 00 00 00	 mov	 ecx, 66			; 00000042H
  0001b	b8 cc cc cc cc	 mov	 eax, -858993460		; ccccccccH
  00020	f3 ab		 rep stosd
  00022	48 8b 8c 24 28
	01 00 00	 mov	 rcx, QWORD PTR [rsp+296]
  0002a	48 c7 85 c8 00
	00 00 fe ff ff
	ff		 mov	 QWORD PTR $T1[rbp], -2
  00035	48 8d 0d 00 00
	00 00		 lea	 rcx, OFFSET FLAT:__9BB4E194_vcruntime_exception@h
  0003c	e8 00 00 00 00	 call	 __CheckForDebuggerJustMyCode
  00041	90		 npad	 1
  00042	48 8b 85 00 01
	00 00		 mov	 rax, QWORD PTR this$[rbp]
  00049	48 8d 0d 00 00
	00 00		 lea	 rcx, OFFSET FLAT:??_7exception@std@@6B@
  00050	48 89 08	 mov	 QWORD PTR [rax], rcx

; 86   :         __std_exception_destroy(&_Data);

  00053	48 8b 85 00 01
	00 00		 mov	 rax, QWORD PTR this$[rbp]
  0005a	48 83 c0 08	 add	 rax, 8
  0005e	48 8b c8	 mov	 rcx, rax
  00061	e8 00 00 00 00	 call	 __std_exception_destroy
  00066	90		 npad	 1

; 87   :     }

  00067	48 8d a5 e8 00
	00 00		 lea	 rsp, QWORD PTR [rbp+232]
  0006e	5f		 pop	 rdi
  0006f	5d		 pop	 rbp
  00070	c3		 ret	 0
??1exception@std@@UEAA@XZ ENDP				; std::exception::~exception
_TEXT	ENDS
; Function compile flags: /Odtp /RTCsu /ZI
; File c:\program files (x86)\microsoft visual studio\2017\community\vc\tools\msvc\14.16.27023\include\vcruntime_exception.h
;	COMDAT ??0exception@std@@QEAA@XZ
_TEXT	SEGMENT
$T1 = 200
this$ = 256
??0exception@std@@QEAA@XZ PROC				; std::exception::exception, COMDAT

; 50   :     {

$LN3:
  00000	48 89 4c 24 08	 mov	 QWORD PTR [rsp+8], rcx
  00005	55		 push	 rbp
  00006	57		 push	 rdi
  00007	48 81 ec 08 01
	00 00		 sub	 rsp, 264		; 00000108H
  0000e	48 8d 6c 24 20	 lea	 rbp, QWORD PTR [rsp+32]
  00013	48 8b fc	 mov	 rdi, rsp
  00016	b9 42 00 00 00	 mov	 ecx, 66			; 00000042H
  0001b	b8 cc cc cc cc	 mov	 eax, -858993460		; ccccccccH
  00020	f3 ab		 rep stosd
  00022	48 8b 8c 24 28
	01 00 00	 mov	 rcx, QWORD PTR [rsp+296]
  0002a	48 c7 85 c8 00
	00 00 fe ff ff
	ff		 mov	 QWORD PTR $T1[rbp], -2
  00035	48 8d 0d 00 00
	00 00		 lea	 rcx, OFFSET FLAT:__9BB4E194_vcruntime_exception@h
  0003c	e8 00 00 00 00	 call	 __CheckForDebuggerJustMyCode
  00041	90		 npad	 1
  00042	48 8b 85 00 01
	00 00		 mov	 rax, QWORD PTR this$[rbp]
  00049	48 8d 0d 00 00
	00 00		 lea	 rcx, OFFSET FLAT:??_7exception@std@@6B@
  00050	48 89 08	 mov	 QWORD PTR [rax], rcx

; 49   :         : _Data()

  00053	48 8b 85 00 01
	00 00		 mov	 rax, QWORD PTR this$[rbp]
  0005a	48 83 c0 08	 add	 rax, 8
  0005e	48 8b f8	 mov	 rdi, rax
  00061	33 c0		 xor	 eax, eax
  00063	b9 10 00 00 00	 mov	 ecx, 16
  00068	f3 aa		 rep stosb

; 51   :     }

  0006a	48 8b 85 00 01
	00 00		 mov	 rax, QWORD PTR this$[rbp]
  00071	48 8d a5 e8 00
	00 00		 lea	 rsp, QWORD PTR [rbp+232]
  00078	5f		 pop	 rdi
  00079	5d		 pop	 rbp
  0007a	c3		 ret	 0
??0exception@std@@QEAA@XZ ENDP				; std::exception::exception
_TEXT	ENDS
END
