; Listing generated by Microsoft (R) Optimizing Compiler Version 19.16.27026.1 

include listing.inc

INCLUDELIB MSVCRTD
INCLUDELIB OLDNAMES

msvcjmc	SEGMENT
__7B7A869E_ctype@h DB 01H
__457DD326_basetsd@h DB 01H
__4384A2D9_corecrt_memcpy_s@h DB 01H
__4E51A221_corecrt_wstring@h DB 01H
__2140C079_string@h DB 01H
__1887E595_winnt@h DB 01H
__9FC7C64B_processthreadsapi@h DB 01H
__FA470AEC_memoryapi@h DB 01H
__F37DAFF1_winerror@h DB 01H
__7A450CCC_winbase@h DB 01H
__B4B40122_winioctl@h DB 01H
__86261D59_stralign@h DB 01H
__BB6D3116_pmc_uint_internal@h DB 01H
__8CA3E54E_pmc_inline_func@h DB 01H
__B6CC0FF4_pmc_compare@c DB 01H
msvcjmc	ENDS
PUBLIC	Compare_Imp
PUBLIC	Initialize_Compare
PUBLIC	PMC_Compare_I_X
PUBLIC	PMC_Compare_L_X
PUBLIC	PMC_Compare_X_I
PUBLIC	PMC_Compare_X_L
PUBLIC	PMC_Compare_X_X
PUBLIC	__JustMyCode_Default
EXTRN	CheckNumber:PROC
EXTRN	_RTC_CheckStackVars:PROC
EXTRN	_RTC_InitBase:PROC
EXTRN	_RTC_Shutdown:PROC
EXTRN	__CheckForDebuggerJustMyCode:PROC
;	COMDAT pdata
pdata	SEGMENT
$pdata$Compare_Imp DD imagerel $LN9
	DD	imagerel $LN9+251
	DD	imagerel $unwind$Compare_Imp
pdata	ENDS
;	COMDAT pdata
pdata	SEGMENT
$pdata$Initialize_Compare DD imagerel $LN3
	DD	imagerel $LN3+66
	DD	imagerel $unwind$Initialize_Compare
pdata	ENDS
;	COMDAT pdata
pdata	SEGMENT
$pdata$PMC_Compare_I_X DD imagerel $LN7
	DD	imagerel $LN7+205
	DD	imagerel $unwind$PMC_Compare_I_X
pdata	ENDS
;	COMDAT pdata
pdata	SEGMENT
$pdata$PMC_Compare_L_X DD imagerel $LN7
	DD	imagerel $LN7+208
	DD	imagerel $unwind$PMC_Compare_L_X
pdata	ENDS
;	COMDAT pdata
pdata	SEGMENT
$pdata$PMC_Compare_X_I DD imagerel $LN7
	DD	imagerel $LN7+204
	DD	imagerel $unwind$PMC_Compare_X_I
pdata	ENDS
;	COMDAT pdata
pdata	SEGMENT
$pdata$PMC_Compare_X_L DD imagerel $LN7
	DD	imagerel $LN7+206
	DD	imagerel $unwind$PMC_Compare_X_L
pdata	ENDS
;	COMDAT pdata
pdata	SEGMENT
$pdata$PMC_Compare_X_X DD imagerel $LN18
	DD	imagerel $LN18+436
	DD	imagerel $unwind$PMC_Compare_X_X
pdata	ENDS
;	COMDAT pdata
pdata	SEGMENT
$pdata$_FROMDWORDTOWORD DD imagerel _FROMDWORDTOWORD
	DD	imagerel _FROMDWORDTOWORD+95
	DD	imagerel $unwind$_FROMDWORDTOWORD
pdata	ENDS
;	COMDAT pdata
pdata	SEGMENT
$pdata$_LZCNT_ALT_32 DD imagerel _LZCNT_ALT_32
	DD	imagerel _LZCNT_ALT_32+126
	DD	imagerel $unwind$_LZCNT_ALT_32
pdata	ENDS
;	COMDAT pdata
pdata	SEGMENT
$pdata$_LZCNT_ALT_UNIT DD imagerel _LZCNT_ALT_UNIT
	DD	imagerel _LZCNT_ALT_UNIT+131
	DD	imagerel $unwind$_LZCNT_ALT_UNIT
pdata	ENDS
;	COMDAT pdata
pdata	SEGMENT
$pdata$PMC_Compare_X_I_Imp DD imagerel PMC_Compare_X_I_Imp
	DD	imagerel PMC_Compare_X_I_Imp+364
	DD	imagerel $unwind$PMC_Compare_X_I_Imp
pdata	ENDS
;	COMDAT pdata
pdata	SEGMENT
$pdata$PMC_Compare_X_L_Imp DD imagerel PMC_Compare_X_L_Imp
	DD	imagerel PMC_Compare_X_L_Imp+926
	DD	imagerel $unwind$PMC_Compare_X_L_Imp
pdata	ENDS
;	COMDAT rtc$TMZ
rtc$TMZ	SEGMENT
_RTC_Shutdown.rtc$TMZ DQ FLAT:_RTC_Shutdown
rtc$TMZ	ENDS
;	COMDAT rtc$IMZ
rtc$IMZ	SEGMENT
_RTC_InitBase.rtc$IMZ DQ FLAT:_RTC_InitBase
rtc$IMZ	ENDS
;	COMDAT xdata
xdata	SEGMENT
$unwind$PMC_Compare_X_L_Imp DD 025053401H
	DD	0118231dH
	DD	070110039H
	DD	05010H
xdata	ENDS
;	COMDAT CONST
CONST	SEGMENT
PMC_Compare_X_L_Imp$rtcName$0 DB 076H
	DB	05fH
	DB	068H
	DB	069H
	DB	00H
	ORG $+11
PMC_Compare_X_L_Imp$rtcVarDesc DD 044H
	DD	04H
	DQ	FLAT:PMC_Compare_X_L_Imp$rtcName$0
	ORG $+48
PMC_Compare_X_L_Imp$rtcFrameData DD 01H
	DD	00H
	DQ	FLAT:PMC_Compare_X_L_Imp$rtcVarDesc
CONST	ENDS
;	COMDAT xdata
xdata	SEGMENT
$unwind$PMC_Compare_X_I_Imp DD 025053301H
	DD	0117231cH
	DD	070100025H
	DD	0500fH
xdata	ENDS
;	COMDAT xdata
xdata	SEGMENT
$unwind$_LZCNT_ALT_UNIT DD 025052a01H
	DD	010e2313H
	DD	070070021H
	DD	05006H
xdata	ENDS
;	COMDAT CONST
CONST	SEGMENT
_LZCNT_ALT_UNIT$rtcName$0 DB 070H
	DB	06fH
	DB	073H
	DB	00H
	ORG $+12
_LZCNT_ALT_UNIT$rtcVarDesc DD 024H
	DD	04H
	DQ	FLAT:_LZCNT_ALT_UNIT$rtcName$0
	ORG $+48
_LZCNT_ALT_UNIT$rtcFrameData DD 01H
	DD	00H
	DQ	FLAT:_LZCNT_ALT_UNIT$rtcVarDesc
CONST	ENDS
;	COMDAT xdata
xdata	SEGMENT
$unwind$_LZCNT_ALT_32 DD 025052801H
	DD	010d2312H
	DD	070060021H
	DD	05005H
xdata	ENDS
;	COMDAT CONST
CONST	SEGMENT
_LZCNT_ALT_32$rtcName$0 DB 070H
	DB	06fH
	DB	073H
	DB	00H
	ORG $+12
_LZCNT_ALT_32$rtcVarDesc DD 024H
	DD	04H
	DQ	FLAT:_LZCNT_ALT_32$rtcName$0
	ORG $+48
_LZCNT_ALT_32$rtcFrameData DD 01H
	DD	00H
	DQ	FLAT:_LZCNT_ALT_32$rtcVarDesc
CONST	ENDS
;	COMDAT xdata
xdata	SEGMENT
$unwind$_FROMDWORDTOWORD DD 025052f01H
	DD	01132318H
	DD	0700c001dH
	DD	0500bH
xdata	ENDS
;	COMDAT xdata
xdata	SEGMENT
$unwind$PMC_Compare_X_X DD 025053401H
	DD	0118231dH
	DD	070110031H
	DD	05010H
xdata	ENDS
;	COMDAT xdata
xdata	SEGMENT
$unwind$PMC_Compare_X_L DD 025053401H
	DD	0118231dH
	DD	070110025H
	DD	05010H
xdata	ENDS
;	COMDAT CONST
CONST	SEGMENT
PMC_Compare_X_L$rtcName$0 DB 077H
	DB	05fH
	DB	074H
	DB	065H
	DB	06dH
	DB	070H
	DB	00H
	ORG $+9
PMC_Compare_X_L$rtcVarDesc DD 044H
	DD	04H
	DQ	FLAT:PMC_Compare_X_L$rtcName$0
	ORG $+48
PMC_Compare_X_L$rtcFrameData DD 01H
	DD	00H
	DQ	FLAT:PMC_Compare_X_L$rtcVarDesc
CONST	ENDS
;	COMDAT xdata
xdata	SEGMENT
$unwind$PMC_Compare_X_I DD 025053301H
	DD	0117231cH
	DD	070100025H
	DD	0500fH
xdata	ENDS
;	COMDAT CONST
CONST	SEGMENT
PMC_Compare_X_I$rtcName$0 DB 077H
	DB	05fH
	DB	074H
	DB	065H
	DB	06dH
	DB	070H
	DB	00H
	ORG $+9
PMC_Compare_X_I$rtcVarDesc DD 044H
	DD	04H
	DQ	FLAT:PMC_Compare_X_I$rtcName$0
	ORG $+48
PMC_Compare_X_I$rtcFrameData DD 01H
	DD	00H
	DQ	FLAT:PMC_Compare_X_I$rtcVarDesc
CONST	ENDS
;	COMDAT xdata
xdata	SEGMENT
$unwind$PMC_Compare_L_X DD 025053401H
	DD	0118231dH
	DD	070110025H
	DD	05010H
xdata	ENDS
;	COMDAT CONST
CONST	SEGMENT
PMC_Compare_L_X$rtcName$0 DB 077H
	DB	05fH
	DB	074H
	DB	065H
	DB	06dH
	DB	070H
	DB	00H
	ORG $+9
PMC_Compare_L_X$rtcVarDesc DD 044H
	DD	04H
	DQ	FLAT:PMC_Compare_L_X$rtcName$0
	ORG $+48
PMC_Compare_L_X$rtcFrameData DD 01H
	DD	00H
	DQ	FLAT:PMC_Compare_L_X$rtcVarDesc
CONST	ENDS
;	COMDAT xdata
xdata	SEGMENT
$unwind$PMC_Compare_I_X DD 025053201H
	DD	0117231cH
	DD	070100025H
	DD	0500fH
xdata	ENDS
;	COMDAT CONST
CONST	SEGMENT
PMC_Compare_I_X$rtcName$0 DB 077H
	DB	05fH
	DB	074H
	DB	065H
	DB	06dH
	DB	070H
	DB	00H
	ORG $+9
PMC_Compare_I_X$rtcVarDesc DD 044H
	DD	04H
	DQ	FLAT:PMC_Compare_I_X$rtcName$0
	ORG $+48
PMC_Compare_I_X$rtcFrameData DD 01H
	DD	00H
	DQ	FLAT:PMC_Compare_I_X$rtcVarDesc
CONST	ENDS
;	COMDAT xdata
xdata	SEGMENT
$unwind$Initialize_Compare DD 025052a01H
	DD	010e2313H
	DD	07007001dH
	DD	05006H
xdata	ENDS
;	COMDAT xdata
xdata	SEGMENT
$unwind$Compare_Imp DD 025053401H
	DD	0118231dH
	DD	07011001dH
	DD	05010H
xdata	ENDS
; Function compile flags: /Odt
;	COMDAT __JustMyCode_Default
_TEXT	SEGMENT
__JustMyCode_Default PROC				; COMDAT
	ret	0
__JustMyCode_Default ENDP
_TEXT	ENDS
; Function compile flags: /Odtp /RTCsu /ZI
; File z:\sources\lunor\repos\rougemeilland\palmtree.math.core.uint\palmtree.math.core.uint\pmc_compare.c
;	COMDAT PMC_Compare_X_L_Imp
_TEXT	SEGMENT
u_bit_count$4 = 8
v_hi$5 = 36
v_lo$6 = 68
v_bit_count$7 = 104
v_bit_count$8 = 136
u_bit_count$9 = 168
v_bit_count$10 = 200
u$ = 448
v$ = 456
w$ = 464
PMC_Compare_X_L_Imp PROC				; COMDAT

; 144  : {

	mov	QWORD PTR [rsp+24], r8
	mov	QWORD PTR [rsp+16], rdx
	mov	QWORD PTR [rsp+8], rcx
	push	rbp
	push	rdi
	sub	rsp, 456				; 000001c8H
	lea	rbp, QWORD PTR [rsp+32]
	mov	rdi, rsp
	mov	ecx, 114				; 00000072H
	mov	eax, -858993460				; ccccccccH
	rep stosd
	mov	rcx, QWORD PTR [rsp+488]
	lea	rcx, OFFSET FLAT:__B6CC0FF4_pmc_compare@c
	call	__CheckForDebuggerJustMyCode

; 145  :     if (u->IS_ZERO)

	mov	rax, QWORD PTR u$[rbp]
	mov	eax, DWORD PTR [rax+40]
	shr	eax, 1
	and	eax, 1
	test	eax, eax
	je	SHORT $LN2@PMC_Compar

; 146  :     {
; 147  :         // u が 0 である場合
; 148  :         if (v == 0)

	cmp	QWORD PTR v$[rbp], 0
	jne	SHORT $LN4@PMC_Compar

; 149  :         {
; 150  :             // v が 0 である場合
; 151  :             *w = 0;

	mov	rax, QWORD PTR w$[rbp]
	mov	DWORD PTR [rax], 0

; 152  :         }

	jmp	SHORT $LN5@PMC_Compar
$LN4@PMC_Compar:

; 153  :         else
; 154  :         {
; 155  :             // v が 0 でない場合
; 156  :             *w = -1;

	mov	rax, QWORD PTR w$[rbp]
	mov	DWORD PTR [rax], -1
$LN5@PMC_Compar:

; 157  :         }
; 158  :     }

	jmp	$LN3@PMC_Compar
$LN2@PMC_Compar:

; 159  :     else if (v == 0)

	cmp	QWORD PTR v$[rbp], 0
	jne	SHORT $LN6@PMC_Compar

; 160  :     {
; 161  :         // v が 0 である場合
; 162  :         *w = 1;

	mov	rax, QWORD PTR w$[rbp]
	mov	DWORD PTR [rax], 1

; 163  :     }

	jmp	$LN7@PMC_Compar
$LN6@PMC_Compar:

; 164  :     else
; 165  :     {
; 166  :         // u と v がともに 0 ではない場合
; 167  :         if (__UNIT_TYPE_BIT_COUNT < sizeof(v) * 8)

	xor	eax, eax
	test	eax, eax
	je	$LN8@PMC_Compar

; 168  :         {
; 169  :             // _UINT64_T が 1 ワードで表現しきれない場合
; 170  :             __UNIT_TYPE u_bit_count = u->UNIT_BIT_COUNT;

	mov	rax, QWORD PTR u$[rbp]
	mov	rax, QWORD PTR [rax+16]
	mov	QWORD PTR u_bit_count$4[rbp], rax

; 171  :             _UINT32_T v_hi;
; 172  :             _UINT32_T v_lo = _FROMDWORDTOWORD(v, &v_hi);

	lea	rdx, QWORD PTR v_hi$5[rbp]
	mov	rcx, QWORD PTR v$[rbp]
	call	_FROMDWORDTOWORD
	mov	DWORD PTR v_lo$6[rbp], eax

; 173  :             if (v_hi == 0)

	cmp	DWORD PTR v_hi$5[rbp], 0
	jne	$LN10@PMC_Compar

; 174  :             {
; 175  :                 // v の値が 32bit では表現できる場合
; 176  :                 __UNIT_TYPE v_bit_count = sizeof(v_lo) * 8 - _LZCNT_ALT_32(v_lo);

	mov	ecx, DWORD PTR v_lo$6[rbp]
	call	_LZCNT_ALT_32
	cdqe
	mov	ecx, 32					; 00000020H
	sub	rcx, rax
	mov	rax, rcx
	mov	QWORD PTR v_bit_count$7[rbp], rax

; 177  :                 if (u_bit_count > v_bit_count)

	mov	rax, QWORD PTR v_bit_count$7[rbp]
	cmp	QWORD PTR u_bit_count$4[rbp], rax
	jbe	SHORT $LN12@PMC_Compar

; 178  :                 {
; 179  :                     // 明らかに u > v である場合
; 180  :                     *w = 1;

	mov	rax, QWORD PTR w$[rbp]
	mov	DWORD PTR [rax], 1

; 181  :                 }

	jmp	SHORT $LN13@PMC_Compar
$LN12@PMC_Compar:

; 182  :                 else if (u_bit_count < v_bit_count)

	mov	rax, QWORD PTR v_bit_count$7[rbp]
	cmp	QWORD PTR u_bit_count$4[rbp], rax
	jae	SHORT $LN14@PMC_Compar

; 183  :                 {
; 184  :                     // 明らかに u < v である場合
; 185  :                     *w = -1;

	mov	rax, QWORD PTR w$[rbp]
	mov	DWORD PTR [rax], -1

; 186  :                 }

	jmp	SHORT $LN15@PMC_Compar
$LN14@PMC_Compar:

; 187  :                 else
; 188  :                 {
; 189  :                     // u > 0 && v > 0 かつ u のビット長と v のビット長が等しく、かつ v が 1 ワードで表現できる場合
; 190  :                     // ⇒ u と v はともに 1 ワードで表現できる
; 191  :                     if (u->BLOCK[0] > v_lo)

	mov	eax, 8
	imul	rax, rax, 0
	mov	rcx, QWORD PTR u$[rbp]
	mov	rcx, QWORD PTR [rcx+56]
	mov	edx, DWORD PTR v_lo$6[rbp]
	cmp	QWORD PTR [rax+rcx], rdx
	jbe	SHORT $LN16@PMC_Compar

; 192  :                         *w = 1;

	mov	rax, QWORD PTR w$[rbp]
	mov	DWORD PTR [rax], 1
	jmp	SHORT $LN17@PMC_Compar
$LN16@PMC_Compar:

; 193  :                     else if (u->BLOCK[0] < v_lo)

	mov	eax, 8
	imul	rax, rax, 0
	mov	rcx, QWORD PTR u$[rbp]
	mov	rcx, QWORD PTR [rcx+56]
	mov	edx, DWORD PTR v_lo$6[rbp]
	cmp	QWORD PTR [rax+rcx], rdx
	jae	SHORT $LN18@PMC_Compar

; 194  :                         *w = -1;

	mov	rax, QWORD PTR w$[rbp]
	mov	DWORD PTR [rax], -1
	jmp	SHORT $LN19@PMC_Compar
$LN18@PMC_Compar:

; 195  :                     else
; 196  :                         *w = 0;

	mov	rax, QWORD PTR w$[rbp]
	mov	DWORD PTR [rax], 0
$LN19@PMC_Compar:
$LN17@PMC_Compar:
$LN15@PMC_Compar:
$LN13@PMC_Compar:

; 197  :                 }
; 198  :             }

	jmp	$LN11@PMC_Compar
$LN10@PMC_Compar:

; 199  :             else
; 200  :             {
; 201  :                 // v の値が 32bit では表現できない場合
; 202  :                 __UNIT_TYPE v_bit_count = sizeof(v) * 8 - _LZCNT_ALT_32(v_hi);

	mov	ecx, DWORD PTR v_hi$5[rbp]
	call	_LZCNT_ALT_32
	cdqe
	mov	ecx, 64					; 00000040H
	sub	rcx, rax
	mov	rax, rcx
	mov	QWORD PTR v_bit_count$8[rbp], rax

; 203  :                 if (u_bit_count > v_bit_count)

	mov	rax, QWORD PTR v_bit_count$8[rbp]
	cmp	QWORD PTR u_bit_count$4[rbp], rax
	jbe	SHORT $LN20@PMC_Compar

; 204  :                 {
; 205  :                     // 明らかに u > v である場合
; 206  :                     *w = 1;

	mov	rax, QWORD PTR w$[rbp]
	mov	DWORD PTR [rax], 1

; 207  :                 }

	jmp	$LN21@PMC_Compar
$LN20@PMC_Compar:

; 208  :                 else if (u_bit_count < v_bit_count)

	mov	rax, QWORD PTR v_bit_count$8[rbp]
	cmp	QWORD PTR u_bit_count$4[rbp], rax
	jae	SHORT $LN22@PMC_Compar

; 209  :                 {
; 210  :                     // 明らかに u < v である場合
; 211  :                     *w = -1;

	mov	rax, QWORD PTR w$[rbp]
	mov	DWORD PTR [rax], -1

; 212  :                 }

	jmp	$LN23@PMC_Compar
$LN22@PMC_Compar:

; 213  :                 else
; 214  :                 {
; 215  :                     // u > 0 && v > 0 かつ u のビット長と v のビット長が等しく、かつ v が 2 ワードで表現できる場合
; 216  :                     // ⇒ u と v はともに 2 ワードで表現できる
; 217  :                     if (u->BLOCK[1] > v_hi)

	mov	eax, 8
	imul	rax, rax, 1
	mov	rcx, QWORD PTR u$[rbp]
	mov	rcx, QWORD PTR [rcx+56]
	mov	edx, DWORD PTR v_hi$5[rbp]
	cmp	QWORD PTR [rax+rcx], rdx
	jbe	SHORT $LN24@PMC_Compar

; 218  :                         *w = 1;

	mov	rax, QWORD PTR w$[rbp]
	mov	DWORD PTR [rax], 1
	jmp	$LN25@PMC_Compar
$LN24@PMC_Compar:

; 219  :                     else if (u->BLOCK[1] < v_hi)

	mov	eax, 8
	imul	rax, rax, 1
	mov	rcx, QWORD PTR u$[rbp]
	mov	rcx, QWORD PTR [rcx+56]
	mov	edx, DWORD PTR v_hi$5[rbp]
	cmp	QWORD PTR [rax+rcx], rdx
	jae	SHORT $LN26@PMC_Compar

; 220  :                         *w = -1;

	mov	rax, QWORD PTR w$[rbp]
	mov	DWORD PTR [rax], -1
	jmp	SHORT $LN27@PMC_Compar
$LN26@PMC_Compar:

; 221  :                     else if (u->BLOCK[0] > v_lo)

	mov	eax, 8
	imul	rax, rax, 0
	mov	rcx, QWORD PTR u$[rbp]
	mov	rcx, QWORD PTR [rcx+56]
	mov	edx, DWORD PTR v_lo$6[rbp]
	cmp	QWORD PTR [rax+rcx], rdx
	jbe	SHORT $LN28@PMC_Compar

; 222  :                         *w = 1;

	mov	rax, QWORD PTR w$[rbp]
	mov	DWORD PTR [rax], 1
	jmp	SHORT $LN29@PMC_Compar
$LN28@PMC_Compar:

; 223  :                     else if (u->BLOCK[0] < v_lo)

	mov	eax, 8
	imul	rax, rax, 0
	mov	rcx, QWORD PTR u$[rbp]
	mov	rcx, QWORD PTR [rcx+56]
	mov	edx, DWORD PTR v_lo$6[rbp]
	cmp	QWORD PTR [rax+rcx], rdx
	jae	SHORT $LN30@PMC_Compar

; 224  :                         *w = -1;

	mov	rax, QWORD PTR w$[rbp]
	mov	DWORD PTR [rax], -1
	jmp	SHORT $LN31@PMC_Compar
$LN30@PMC_Compar:

; 225  :                     else
; 226  :                         *w = 0;

	mov	rax, QWORD PTR w$[rbp]
	mov	DWORD PTR [rax], 0
$LN31@PMC_Compar:
$LN29@PMC_Compar:
$LN27@PMC_Compar:
$LN25@PMC_Compar:
$LN23@PMC_Compar:
$LN21@PMC_Compar:
$LN11@PMC_Compar:

; 227  :                 }
; 228  :             }
; 229  :         }

	jmp	$LN9@PMC_Compar
$LN8@PMC_Compar:

; 230  :         else
; 231  :         {
; 232  :             // _UINT64_T が 1 ワードで表現できる場合
; 233  : 
; 234  :             __UNIT_TYPE u_bit_count = u->UNIT_BIT_COUNT;

	mov	rax, QWORD PTR u$[rbp]
	mov	rax, QWORD PTR [rax+16]
	mov	QWORD PTR u_bit_count$9[rbp], rax

; 235  :             __UNIT_TYPE v_bit_count = sizeof(v) * 8 - _LZCNT_ALT_UNIT((__UNIT_TYPE)v);

	mov	rcx, QWORD PTR v$[rbp]
	call	_LZCNT_ALT_UNIT
	cdqe
	mov	ecx, 64					; 00000040H
	sub	rcx, rax
	mov	rax, rcx
	mov	QWORD PTR v_bit_count$10[rbp], rax

; 236  :             if (u_bit_count > v_bit_count)

	mov	rax, QWORD PTR v_bit_count$10[rbp]
	cmp	QWORD PTR u_bit_count$9[rbp], rax
	jbe	SHORT $LN32@PMC_Compar

; 237  :             {
; 238  :                 // 明らかに u > v である場合
; 239  :                 *w = 1;

	mov	rax, QWORD PTR w$[rbp]
	mov	DWORD PTR [rax], 1

; 240  :             }

	jmp	$LN33@PMC_Compar
$LN32@PMC_Compar:

; 241  :             else if (u_bit_count < v_bit_count)

	mov	rax, QWORD PTR v_bit_count$10[rbp]
	cmp	QWORD PTR u_bit_count$9[rbp], rax
	jae	SHORT $LN34@PMC_Compar

; 242  :             {
; 243  :                 // 明らかに u < v である場合
; 244  :                 *w = -1;

	mov	rax, QWORD PTR w$[rbp]
	mov	DWORD PTR [rax], -1

; 245  :             }

	jmp	SHORT $LN35@PMC_Compar
$LN34@PMC_Compar:

; 246  :             else
; 247  :             {
; 248  :                 // u > 0 && v > 0 かつ u のビット長と v のビット長が等しく、かつ v が 1 ワードで表現できる場合
; 249  :                 // ⇒ u と v はともに 1 ワードで表現できる
; 250  :                 if (u->BLOCK[0] > v)

	mov	eax, 8
	imul	rax, rax, 0
	mov	rcx, QWORD PTR u$[rbp]
	mov	rcx, QWORD PTR [rcx+56]
	mov	rdx, QWORD PTR v$[rbp]
	cmp	QWORD PTR [rax+rcx], rdx
	jbe	SHORT $LN36@PMC_Compar

; 251  :                     *w = 1;

	mov	rax, QWORD PTR w$[rbp]
	mov	DWORD PTR [rax], 1
	jmp	SHORT $LN37@PMC_Compar
$LN36@PMC_Compar:

; 252  :                 else if (u->BLOCK[0] < v)

	mov	eax, 8
	imul	rax, rax, 0
	mov	rcx, QWORD PTR u$[rbp]
	mov	rcx, QWORD PTR [rcx+56]
	mov	rdx, QWORD PTR v$[rbp]
	cmp	QWORD PTR [rax+rcx], rdx
	jae	SHORT $LN38@PMC_Compar

; 253  :                     *w = -1;

	mov	rax, QWORD PTR w$[rbp]
	mov	DWORD PTR [rax], -1
	jmp	SHORT $LN39@PMC_Compar
$LN38@PMC_Compar:

; 254  :                 else
; 255  :                     *w = 0;

	mov	rax, QWORD PTR w$[rbp]
	mov	DWORD PTR [rax], 0
$LN39@PMC_Compar:
$LN37@PMC_Compar:
$LN35@PMC_Compar:
$LN33@PMC_Compar:
$LN9@PMC_Compar:
$LN7@PMC_Compar:
$LN3@PMC_Compar:

; 256  :             }
; 257  :         }
; 258  :     }
; 259  : }

	lea	rcx, QWORD PTR [rbp-32]
	lea	rdx, OFFSET FLAT:PMC_Compare_X_L_Imp$rtcFrameData
	call	_RTC_CheckStackVars
	lea	rsp, QWORD PTR [rbp+424]
	pop	rdi
	pop	rbp
	ret	0
PMC_Compare_X_L_Imp ENDP
_TEXT	ENDS
; Function compile flags: /Odtp /RTCsu /ZI
; File z:\sources\lunor\repos\rougemeilland\palmtree.math.core.uint\palmtree.math.core.uint\pmc_compare.c
;	COMDAT PMC_Compare_X_I_Imp
_TEXT	SEGMENT
u_bit_count$1 = 8
v_bit_count$2 = 40
u$ = 288
v$ = 296
w$ = 304
PMC_Compare_X_I_Imp PROC				; COMDAT

; 54   : {

	mov	QWORD PTR [rsp+24], r8
	mov	DWORD PTR [rsp+16], edx
	mov	QWORD PTR [rsp+8], rcx
	push	rbp
	push	rdi
	sub	rsp, 296				; 00000128H
	lea	rbp, QWORD PTR [rsp+32]
	mov	rdi, rsp
	mov	ecx, 74					; 0000004aH
	mov	eax, -858993460				; ccccccccH
	rep stosd
	mov	rcx, QWORD PTR [rsp+328]
	lea	rcx, OFFSET FLAT:__B6CC0FF4_pmc_compare@c
	call	__CheckForDebuggerJustMyCode

; 55   :     if (u->IS_ZERO)

	mov	rax, QWORD PTR u$[rbp]
	mov	eax, DWORD PTR [rax+40]
	shr	eax, 1
	and	eax, 1
	test	eax, eax
	je	SHORT $LN2@PMC_Compar

; 56   :     {
; 57   :         // u が 0 である場合
; 58   :         if (v == 0)

	cmp	DWORD PTR v$[rbp], 0
	jne	SHORT $LN4@PMC_Compar

; 59   :         {
; 60   :             // v が 0 である場合
; 61   :             *w = 0;

	mov	rax, QWORD PTR w$[rbp]
	mov	DWORD PTR [rax], 0

; 62   :         }

	jmp	SHORT $LN5@PMC_Compar
$LN4@PMC_Compar:

; 63   :         else
; 64   :         {
; 65   :             // v が 0 でない場合
; 66   :             *w = -1;

	mov	rax, QWORD PTR w$[rbp]
	mov	DWORD PTR [rax], -1
$LN5@PMC_Compar:

; 67   :         }
; 68   :     }

	jmp	$LN3@PMC_Compar
$LN2@PMC_Compar:

; 69   :     else if (v == 0)

	cmp	DWORD PTR v$[rbp], 0
	jne	SHORT $LN6@PMC_Compar

; 70   :     {
; 71   :         // v が 0 である場合
; 72   :         *w = 1;

	mov	rax, QWORD PTR w$[rbp]
	mov	DWORD PTR [rax], 1

; 73   :     }

	jmp	$LN7@PMC_Compar
$LN6@PMC_Compar:

; 74   :     else
; 75   :     {
; 76   :         // x と y がともに 0 ではない場合
; 77   :         __UNIT_TYPE u_bit_count = u->UNIT_BIT_COUNT;

	mov	rax, QWORD PTR u$[rbp]
	mov	rax, QWORD PTR [rax+16]
	mov	QWORD PTR u_bit_count$1[rbp], rax

; 78   :         __UNIT_TYPE v_bit_count = sizeof(v) * 8 - _LZCNT_ALT_32(v);

	mov	ecx, DWORD PTR v$[rbp]
	call	_LZCNT_ALT_32
	cdqe
	mov	ecx, 32					; 00000020H
	sub	rcx, rax
	mov	rax, rcx
	mov	QWORD PTR v_bit_count$2[rbp], rax

; 79   :         if (u_bit_count > v_bit_count)

	mov	rax, QWORD PTR v_bit_count$2[rbp]
	cmp	QWORD PTR u_bit_count$1[rbp], rax
	jbe	SHORT $LN8@PMC_Compar

; 80   :         {
; 81   :             // 明らかに u > v である場合
; 82   :             *w = 1;

	mov	rax, QWORD PTR w$[rbp]
	mov	DWORD PTR [rax], 1

; 83   :         }

	jmp	$LN9@PMC_Compar
$LN8@PMC_Compar:

; 84   :         else if (u_bit_count < v_bit_count)

	mov	rax, QWORD PTR v_bit_count$2[rbp]
	cmp	QWORD PTR u_bit_count$1[rbp], rax
	jae	SHORT $LN10@PMC_Compar

; 85   :         {
; 86   :             // 明らかに u < v である場合
; 87   :             *w = -1;

	mov	rax, QWORD PTR w$[rbp]
	mov	DWORD PTR [rax], -1

; 88   :         }

	jmp	SHORT $LN11@PMC_Compar
$LN10@PMC_Compar:

; 89   :         else
; 90   :         {
; 91   :             // u > 0 && v > 0 かつ u のビット長と v のビット長が等しい場合
; 92   :             // ⇒ u と v はともに 1 ワードで表現できる
; 93   :             if (u->BLOCK[0] > v)

	mov	eax, 8
	imul	rax, rax, 0
	mov	rcx, QWORD PTR u$[rbp]
	mov	rcx, QWORD PTR [rcx+56]
	mov	edx, DWORD PTR v$[rbp]
	cmp	QWORD PTR [rax+rcx], rdx
	jbe	SHORT $LN12@PMC_Compar

; 94   :                 *w = 1;

	mov	rax, QWORD PTR w$[rbp]
	mov	DWORD PTR [rax], 1
	jmp	SHORT $LN13@PMC_Compar
$LN12@PMC_Compar:

; 95   :             else if (u->BLOCK[0] < v)

	mov	eax, 8
	imul	rax, rax, 0
	mov	rcx, QWORD PTR u$[rbp]
	mov	rcx, QWORD PTR [rcx+56]
	mov	edx, DWORD PTR v$[rbp]
	cmp	QWORD PTR [rax+rcx], rdx
	jae	SHORT $LN14@PMC_Compar

; 96   :                 *w = -1;

	mov	rax, QWORD PTR w$[rbp]
	mov	DWORD PTR [rax], -1
	jmp	SHORT $LN15@PMC_Compar
$LN14@PMC_Compar:

; 97   :             else
; 98   :                 *w = 0;

	mov	rax, QWORD PTR w$[rbp]
	mov	DWORD PTR [rax], 0
$LN15@PMC_Compar:
$LN13@PMC_Compar:
$LN11@PMC_Compar:
$LN9@PMC_Compar:
$LN7@PMC_Compar:
$LN3@PMC_Compar:

; 99   :         }
; 100  :     }
; 101  : }

	lea	rsp, QWORD PTR [rbp+264]
	pop	rdi
	pop	rbp
	ret	0
PMC_Compare_X_I_Imp ENDP
_TEXT	ENDS
; Function compile flags: /Odtp /RTCsu /ZI
; File z:\sources\lunor\repos\rougemeilland\palmtree.math.core.uint\palmtree.math.core.uint\pmc_inline_func.h
;	COMDAT _LZCNT_ALT_UNIT
_TEXT	SEGMENT
pos$ = 4
x$ = 256
_LZCNT_ALT_UNIT PROC					; COMDAT

; 622  :     {

	mov	QWORD PTR [rsp+8], rcx
	push	rbp
	push	rdi
	sub	rsp, 264				; 00000108H
	lea	rbp, QWORD PTR [rsp+32]
	mov	rdi, rsp
	mov	ecx, 66					; 00000042H
	mov	eax, -858993460				; ccccccccH
	rep stosd
	mov	rcx, QWORD PTR [rsp+296]
	lea	rcx, OFFSET FLAT:__8CA3E54E_pmc_inline_func@h
	call	__CheckForDebuggerJustMyCode

; 623  :         if (x == 0)

	cmp	QWORD PTR x$[rbp], 0
	jne	SHORT $LN2@LZCNT_ALT_

; 624  :             return (sizeof(x) * 8);

	mov	eax, 64					; 00000040H
	jmp	SHORT $LN1@LZCNT_ALT_
$LN2@LZCNT_ALT_:

; 625  : #ifdef _M_IX86
; 626  :         _UINT32_T pos;
; 627  : #ifdef _MSC_VER
; 628  :         _BitScanReverse(&pos, x);
; 629  : #elif defined(__GNUC__)
; 630  :         __asm__("bsrl %1, %0" : "=r"(pos) : "rm"(x));
; 631  : #else
; 632  : #error unknown compiler
; 633  : #endif
; 634  : #elif defined(_M_X64)
; 635  : #ifdef _MSC_VER
; 636  :         _UINT32_T pos;
; 637  :         _BitScanReverse64(&pos, x);

	mov	rax, QWORD PTR x$[rbp]
	bsr	rax, rax
	mov	DWORD PTR pos$[rbp], eax

; 638  : #elif defined(__GNUC__)
; 639  :         _UINT64_T pos;
; 640  :         __asm__("bsrq %1, %0" : "=r"(pos) : "rm"(x));
; 641  : #else
; 642  : #error unknown compiler
; 643  : #endif
; 644  : #else
; 645  : #error unknown platform
; 646  : #endif
; 647  :         return (sizeof(x) * 8 - 1 - pos);

	mov	eax, DWORD PTR pos$[rbp]
	mov	ecx, 63					; 0000003fH
	sub	rcx, rax
	mov	rax, rcx
$LN1@LZCNT_ALT_:

; 648  :     }

	mov	rdi, rax
	lea	rcx, QWORD PTR [rbp-32]
	lea	rdx, OFFSET FLAT:_LZCNT_ALT_UNIT$rtcFrameData
	call	_RTC_CheckStackVars
	mov	rax, rdi
	lea	rsp, QWORD PTR [rbp+232]
	pop	rdi
	pop	rbp
	ret	0
_LZCNT_ALT_UNIT ENDP
_TEXT	ENDS
; Function compile flags: /Odtp /RTCsu /ZI
; File z:\sources\lunor\repos\rougemeilland\palmtree.math.core.uint\palmtree.math.core.uint\pmc_inline_func.h
;	COMDAT _LZCNT_ALT_32
_TEXT	SEGMENT
pos$ = 4
x$ = 256
_LZCNT_ALT_32 PROC					; COMDAT

; 589  :     {

	mov	DWORD PTR [rsp+8], ecx
	push	rbp
	push	rdi
	sub	rsp, 264				; 00000108H
	lea	rbp, QWORD PTR [rsp+32]
	mov	rdi, rsp
	mov	ecx, 66					; 00000042H
	mov	eax, -858993460				; ccccccccH
	rep stosd
	mov	ecx, DWORD PTR [rsp+296]
	lea	rcx, OFFSET FLAT:__8CA3E54E_pmc_inline_func@h
	call	__CheckForDebuggerJustMyCode

; 590  :         if (x == 0)

	cmp	DWORD PTR x$[rbp], 0
	jne	SHORT $LN2@LZCNT_ALT_

; 591  :             return (sizeof(x) * 8);

	mov	eax, 32					; 00000020H
	jmp	SHORT $LN1@LZCNT_ALT_
$LN2@LZCNT_ALT_:

; 592  :         _UINT32_T pos;
; 593  : #ifdef _MSC_VER
; 594  :         _BitScanReverse(&pos, x);

	mov	eax, DWORD PTR x$[rbp]
	bsr	eax, eax
	mov	DWORD PTR pos$[rbp], eax

; 595  : #elif defined(__GNUC__)
; 596  :         __asm__("bsrl %1, %0" : "=r"(pos) : "rm"(x));
; 597  : #else
; 598  : #error unknown compiler
; 599  : #endif
; 600  :         return (sizeof(x) * 8 - 1 - pos);

	mov	eax, DWORD PTR pos$[rbp]
	mov	ecx, 31
	sub	rcx, rax
	mov	rax, rcx
$LN1@LZCNT_ALT_:

; 601  :     }

	mov	rdi, rax
	lea	rcx, QWORD PTR [rbp-32]
	lea	rdx, OFFSET FLAT:_LZCNT_ALT_32$rtcFrameData
	call	_RTC_CheckStackVars
	mov	rax, rdi
	lea	rsp, QWORD PTR [rbp+232]
	pop	rdi
	pop	rbp
	ret	0
_LZCNT_ALT_32 ENDP
_TEXT	ENDS
; Function compile flags: /Odtp /RTCsu /ZI
; File z:\sources\lunor\repos\rougemeilland\palmtree.math.core.uint\palmtree.math.core.uint\pmc_inline_func.h
;	COMDAT _FROMDWORDTOWORD
_TEXT	SEGMENT
value$ = 224
result_high$ = 232
_FROMDWORDTOWORD PROC					; COMDAT

; 175  :     {

	mov	QWORD PTR [rsp+16], rdx
	mov	QWORD PTR [rsp+8], rcx
	push	rbp
	push	rdi
	sub	rsp, 232				; 000000e8H
	lea	rbp, QWORD PTR [rsp+32]
	mov	rdi, rsp
	mov	ecx, 58					; 0000003aH
	mov	eax, -858993460				; ccccccccH
	rep stosd
	mov	rcx, QWORD PTR [rsp+264]
	lea	rcx, OFFSET FLAT:__8CA3E54E_pmc_inline_func@h
	call	__CheckForDebuggerJustMyCode

; 176  :         *result_high = (_UINT32_T)(value >> 32);

	mov	rax, QWORD PTR value$[rbp]
	shr	rax, 32					; 00000020H
	mov	rcx, QWORD PTR result_high$[rbp]
	mov	DWORD PTR [rcx], eax

; 177  :         return ((_UINT32_T)value);

	mov	eax, DWORD PTR value$[rbp]

; 178  :     }

	lea	rsp, QWORD PTR [rbp+200]
	pop	rdi
	pop	rbp
	ret	0
_FROMDWORDTOWORD ENDP
_TEXT	ENDS
; Function compile flags: /Odtp /RTCsu /ZI
; File z:\sources\lunor\repos\rougemeilland\palmtree.math.core.uint\palmtree.math.core.uint\pmc_compare.c
;	COMDAT PMC_Compare_X_X
_TEXT	SEGMENT
nu$ = 8
nv$ = 40
result$ = 68
u_bit_count$1 = 104
v_bit_count$2 = 136
tv81 = 340
u$ = 384
v$ = 392
w$ = 400
PMC_Compare_X_X PROC					; COMDAT

; 302  : {

$LN18:
	mov	QWORD PTR [rsp+24], r8
	mov	QWORD PTR [rsp+16], rdx
	mov	QWORD PTR [rsp+8], rcx
	push	rbp
	push	rdi
	sub	rsp, 392				; 00000188H
	lea	rbp, QWORD PTR [rsp+32]
	mov	rdi, rsp
	mov	ecx, 98					; 00000062H
	mov	eax, -858993460				; ccccccccH
	rep stosd
	mov	rcx, QWORD PTR [rsp+424]
	lea	rcx, OFFSET FLAT:__B6CC0FF4_pmc_compare@c
	call	__CheckForDebuggerJustMyCode

; 303  :     if (u == NULL)

	cmp	QWORD PTR u$[rbp], 0
	jne	SHORT $LN2@PMC_Compar

; 304  :         return (PMC_STATUS_ARGUMENT_ERROR);

	mov	eax, -1
	jmp	$LN1@PMC_Compar
$LN2@PMC_Compar:

; 305  :     if (v == NULL)

	cmp	QWORD PTR v$[rbp], 0
	jne	SHORT $LN3@PMC_Compar

; 306  :         return (PMC_STATUS_ARGUMENT_ERROR);

	mov	eax, -1
	jmp	$LN1@PMC_Compar
$LN3@PMC_Compar:

; 307  :     if (w == NULL)

	cmp	QWORD PTR w$[rbp], 0
	jne	SHORT $LN4@PMC_Compar

; 308  :         return (PMC_STATUS_ARGUMENT_ERROR);

	mov	eax, -1
	jmp	$LN1@PMC_Compar
$LN4@PMC_Compar:

; 309  :     NUMBER_HEADER* nu = (NUMBER_HEADER*)u;

	mov	rax, QWORD PTR u$[rbp]
	mov	QWORD PTR nu$[rbp], rax

; 310  :     NUMBER_HEADER* nv = (NUMBER_HEADER*)v;

	mov	rax, QWORD PTR v$[rbp]
	mov	QWORD PTR nv$[rbp], rax

; 311  :     PMC_STATUS_CODE result;
; 312  :     if ((result = CheckNumber(nu)) != PMC_STATUS_OK)

	mov	rcx, QWORD PTR nu$[rbp]
	call	CheckNumber
	mov	DWORD PTR result$[rbp], eax
	cmp	DWORD PTR result$[rbp], 0
	je	SHORT $LN5@PMC_Compar

; 313  :         return (result);

	mov	eax, DWORD PTR result$[rbp]
	jmp	$LN1@PMC_Compar
$LN5@PMC_Compar:

; 314  :     if ((result = CheckNumber(nv)) != PMC_STATUS_OK)

	mov	rcx, QWORD PTR nv$[rbp]
	call	CheckNumber
	mov	DWORD PTR result$[rbp], eax
	cmp	DWORD PTR result$[rbp], 0
	je	SHORT $LN6@PMC_Compar

; 315  :         return (result);

	mov	eax, DWORD PTR result$[rbp]
	jmp	$LN1@PMC_Compar
$LN6@PMC_Compar:

; 316  :     if (nu->IS_ZERO)

	mov	rax, QWORD PTR nu$[rbp]
	mov	eax, DWORD PTR [rax+40]
	shr	eax, 1
	and	eax, 1
	test	eax, eax
	je	SHORT $LN7@PMC_Compar

; 317  :     {
; 318  :         *w = nv->IS_ZERO ? 0 : -1;

	mov	rax, QWORD PTR nv$[rbp]
	mov	eax, DWORD PTR [rax+40]
	shr	eax, 1
	and	eax, 1
	test	eax, eax
	je	SHORT $LN16@PMC_Compar
	mov	DWORD PTR tv81[rbp], 0
	jmp	SHORT $LN17@PMC_Compar
$LN16@PMC_Compar:
	mov	DWORD PTR tv81[rbp], -1
$LN17@PMC_Compar:
	mov	rax, QWORD PTR w$[rbp]
	mov	ecx, DWORD PTR tv81[rbp]
	mov	DWORD PTR [rax], ecx

; 319  :     }

	jmp	$LN8@PMC_Compar
$LN7@PMC_Compar:

; 320  :     else if (nv->IS_ZERO)

	mov	rax, QWORD PTR nv$[rbp]
	mov	eax, DWORD PTR [rax+40]
	shr	eax, 1
	and	eax, 1
	test	eax, eax
	je	SHORT $LN9@PMC_Compar

; 321  :     {
; 322  :         *w = 1;

	mov	rax, QWORD PTR w$[rbp]
	mov	DWORD PTR [rax], 1

; 323  :     }

	jmp	SHORT $LN10@PMC_Compar
$LN9@PMC_Compar:

; 324  :     else
; 325  :     {
; 326  :         __UNIT_TYPE u_bit_count = nu->UNIT_BIT_COUNT;

	mov	rax, QWORD PTR nu$[rbp]
	mov	rax, QWORD PTR [rax+16]
	mov	QWORD PTR u_bit_count$1[rbp], rax

; 327  :         __UNIT_TYPE v_bit_count = nv->UNIT_BIT_COUNT;

	mov	rax, QWORD PTR nv$[rbp]
	mov	rax, QWORD PTR [rax+16]
	mov	QWORD PTR v_bit_count$2[rbp], rax

; 328  :         if (u_bit_count > v_bit_count)

	mov	rax, QWORD PTR v_bit_count$2[rbp]
	cmp	QWORD PTR u_bit_count$1[rbp], rax
	jbe	SHORT $LN11@PMC_Compar

; 329  :         {
; 330  :             // 明らかに u > v である場合
; 331  :             *w = 1;

	mov	rax, QWORD PTR w$[rbp]
	mov	DWORD PTR [rax], 1

; 332  :         }

	jmp	SHORT $LN12@PMC_Compar
$LN11@PMC_Compar:

; 333  :         else if (u_bit_count < v_bit_count)

	mov	rax, QWORD PTR v_bit_count$2[rbp]
	cmp	QWORD PTR u_bit_count$1[rbp], rax
	jae	SHORT $LN13@PMC_Compar

; 334  :         {
; 335  :             // 明らかに u < v である場合
; 336  :             *w = -1;

	mov	rax, QWORD PTR w$[rbp]
	mov	DWORD PTR [rax], -1

; 337  :         }

	jmp	SHORT $LN14@PMC_Compar
$LN13@PMC_Compar:

; 338  :         else
; 339  :         {
; 340  :             // u > 0 && v > 0 かつ u のビット長と v のビット長が等しい場合
; 341  :             *w = Compare_Imp(nu->BLOCK, nv->BLOCK, nu->UNIT_WORD_COUNT);

	mov	rax, QWORD PTR nu$[rbp]
	mov	r8, QWORD PTR [rax+8]
	mov	rax, QWORD PTR nv$[rbp]
	mov	rdx, QWORD PTR [rax+56]
	mov	rax, QWORD PTR nu$[rbp]
	mov	rcx, QWORD PTR [rax+56]
	call	Compare_Imp
	mov	rcx, QWORD PTR w$[rbp]
	mov	DWORD PTR [rcx], eax
$LN14@PMC_Compar:
$LN12@PMC_Compar:
$LN10@PMC_Compar:
$LN8@PMC_Compar:

; 342  :         }
; 343  :     }
; 344  :     return (PMC_STATUS_OK);

	xor	eax, eax
$LN1@PMC_Compar:

; 345  : }

	lea	rsp, QWORD PTR [rbp+360]
	pop	rdi
	pop	rbp
	ret	0
PMC_Compare_X_X ENDP
_TEXT	ENDS
; Function compile flags: /Odtp /RTCsu /ZI
; File z:\sources\lunor\repos\rougemeilland\palmtree.math.core.uint\palmtree.math.core.uint\pmc_compare.c
;	COMDAT PMC_Compare_X_L
_TEXT	SEGMENT
result$ = 4
w_temp$ = 36
u$ = 288
v$ = 296
w$ = 304
PMC_Compare_X_L PROC					; COMDAT

; 282  : {

$LN7:
	mov	QWORD PTR [rsp+24], r8
	mov	QWORD PTR [rsp+16], rdx
	mov	QWORD PTR [rsp+8], rcx
	push	rbp
	push	rdi
	sub	rsp, 296				; 00000128H
	lea	rbp, QWORD PTR [rsp+32]
	mov	rdi, rsp
	mov	ecx, 74					; 0000004aH
	mov	eax, -858993460				; ccccccccH
	rep stosd
	mov	rcx, QWORD PTR [rsp+328]
	lea	rcx, OFFSET FLAT:__B6CC0FF4_pmc_compare@c
	call	__CheckForDebuggerJustMyCode

; 283  :     if (__UNIT_TYPE_BIT_COUNT * 2 < sizeof(v) * 8)

	xor	eax, eax
	test	eax, eax
	je	SHORT $LN2@PMC_Compar

; 284  :     {
; 285  :         // _UINT64_T が 2 ワードで表現しきれない処理系には対応しない
; 286  :         return (PMC_STATUS_INTERNAL_ERROR);

	mov	eax, -256				; ffffffffffffff00H
	jmp	SHORT $LN1@PMC_Compar
$LN2@PMC_Compar:

; 287  :     }
; 288  :     if (u == NULL)

	cmp	QWORD PTR u$[rbp], 0
	jne	SHORT $LN3@PMC_Compar

; 289  :         return (PMC_STATUS_ARGUMENT_ERROR);

	mov	eax, -1
	jmp	SHORT $LN1@PMC_Compar
$LN3@PMC_Compar:

; 290  :     if (w == NULL)

	cmp	QWORD PTR w$[rbp], 0
	jne	SHORT $LN4@PMC_Compar

; 291  :         return (PMC_STATUS_ARGUMENT_ERROR);

	mov	eax, -1
	jmp	SHORT $LN1@PMC_Compar
$LN4@PMC_Compar:

; 292  :     PMC_STATUS_CODE result;
; 293  :     if ((result = CheckNumber((NUMBER_HEADER*)u)) != PMC_STATUS_OK)

	mov	rcx, QWORD PTR u$[rbp]
	call	CheckNumber
	mov	DWORD PTR result$[rbp], eax
	cmp	DWORD PTR result$[rbp], 0
	je	SHORT $LN5@PMC_Compar

; 294  :         return (result);

	mov	eax, DWORD PTR result$[rbp]
	jmp	SHORT $LN1@PMC_Compar
$LN5@PMC_Compar:

; 295  :     _INT32_T w_temp;
; 296  :     PMC_Compare_X_L_Imp((NUMBER_HEADER*)u, v, &w_temp);

	lea	r8, QWORD PTR w_temp$[rbp]
	mov	rdx, QWORD PTR v$[rbp]
	mov	rcx, QWORD PTR u$[rbp]
	call	PMC_Compare_X_L_Imp

; 297  :     *w = w_temp;

	mov	rax, QWORD PTR w$[rbp]
	mov	ecx, DWORD PTR w_temp$[rbp]
	mov	DWORD PTR [rax], ecx

; 298  :     return (PMC_STATUS_OK);

	xor	eax, eax
$LN1@PMC_Compar:

; 299  : }

	mov	rdi, rax
	lea	rcx, QWORD PTR [rbp-32]
	lea	rdx, OFFSET FLAT:PMC_Compare_X_L$rtcFrameData
	call	_RTC_CheckStackVars
	mov	rax, rdi
	lea	rsp, QWORD PTR [rbp+264]
	pop	rdi
	pop	rbp
	ret	0
PMC_Compare_X_L ENDP
_TEXT	ENDS
; Function compile flags: /Odtp /RTCsu /ZI
; File z:\sources\lunor\repos\rougemeilland\palmtree.math.core.uint\palmtree.math.core.uint\pmc_compare.c
;	COMDAT PMC_Compare_X_I
_TEXT	SEGMENT
result$ = 4
w_temp$ = 36
u$ = 288
v$ = 296
w$ = 304
PMC_Compare_X_I PROC					; COMDAT

; 124  : {

$LN7:
	mov	QWORD PTR [rsp+24], r8
	mov	DWORD PTR [rsp+16], edx
	mov	QWORD PTR [rsp+8], rcx
	push	rbp
	push	rdi
	sub	rsp, 296				; 00000128H
	lea	rbp, QWORD PTR [rsp+32]
	mov	rdi, rsp
	mov	ecx, 74					; 0000004aH
	mov	eax, -858993460				; ccccccccH
	rep stosd
	mov	rcx, QWORD PTR [rsp+328]
	lea	rcx, OFFSET FLAT:__B6CC0FF4_pmc_compare@c
	call	__CheckForDebuggerJustMyCode

; 125  :     if (__UNIT_TYPE_BIT_COUNT < sizeof(v) * 8)

	xor	eax, eax
	test	eax, eax
	je	SHORT $LN2@PMC_Compar

; 126  :     {
; 127  :         // _UINT32_T が 1 ワードで表現しきれない処理系には対応しない
; 128  :         return (PMC_STATUS_INTERNAL_ERROR);

	mov	eax, -256				; ffffffffffffff00H
	jmp	SHORT $LN1@PMC_Compar
$LN2@PMC_Compar:

; 129  :     }
; 130  :     if (u == NULL)

	cmp	QWORD PTR u$[rbp], 0
	jne	SHORT $LN3@PMC_Compar

; 131  :         return (PMC_STATUS_ARGUMENT_ERROR);

	mov	eax, -1
	jmp	SHORT $LN1@PMC_Compar
$LN3@PMC_Compar:

; 132  :     if (w == NULL)

	cmp	QWORD PTR w$[rbp], 0
	jne	SHORT $LN4@PMC_Compar

; 133  :         return (PMC_STATUS_ARGUMENT_ERROR);

	mov	eax, -1
	jmp	SHORT $LN1@PMC_Compar
$LN4@PMC_Compar:

; 134  :     PMC_STATUS_CODE result;
; 135  :     if ((result = CheckNumber((NUMBER_HEADER*)u)) != PMC_STATUS_OK)

	mov	rcx, QWORD PTR u$[rbp]
	call	CheckNumber
	mov	DWORD PTR result$[rbp], eax
	cmp	DWORD PTR result$[rbp], 0
	je	SHORT $LN5@PMC_Compar

; 136  :         return (result);

	mov	eax, DWORD PTR result$[rbp]
	jmp	SHORT $LN1@PMC_Compar
$LN5@PMC_Compar:

; 137  :     _INT32_T w_temp;
; 138  :     PMC_Compare_X_I_Imp((NUMBER_HEADER*)u, v, &w_temp);

	lea	r8, QWORD PTR w_temp$[rbp]
	mov	edx, DWORD PTR v$[rbp]
	mov	rcx, QWORD PTR u$[rbp]
	call	PMC_Compare_X_I_Imp

; 139  :     *w = w_temp;

	mov	rax, QWORD PTR w$[rbp]
	mov	ecx, DWORD PTR w_temp$[rbp]
	mov	DWORD PTR [rax], ecx

; 140  :     return (PMC_STATUS_OK);

	xor	eax, eax
$LN1@PMC_Compar:

; 141  : }

	mov	rdi, rax
	lea	rcx, QWORD PTR [rbp-32]
	lea	rdx, OFFSET FLAT:PMC_Compare_X_I$rtcFrameData
	call	_RTC_CheckStackVars
	mov	rax, rdi
	lea	rsp, QWORD PTR [rbp+264]
	pop	rdi
	pop	rbp
	ret	0
PMC_Compare_X_I ENDP
_TEXT	ENDS
; Function compile flags: /Odtp /RTCsu /ZI
; File z:\sources\lunor\repos\rougemeilland\palmtree.math.core.uint\palmtree.math.core.uint\pmc_compare.c
;	COMDAT PMC_Compare_L_X
_TEXT	SEGMENT
result$ = 4
w_temp$ = 36
u$ = 288
v$ = 296
w$ = 304
PMC_Compare_L_X PROC					; COMDAT

; 262  : {

$LN7:
	mov	QWORD PTR [rsp+24], r8
	mov	QWORD PTR [rsp+16], rdx
	mov	QWORD PTR [rsp+8], rcx
	push	rbp
	push	rdi
	sub	rsp, 296				; 00000128H
	lea	rbp, QWORD PTR [rsp+32]
	mov	rdi, rsp
	mov	ecx, 74					; 0000004aH
	mov	eax, -858993460				; ccccccccH
	rep stosd
	mov	rcx, QWORD PTR [rsp+328]
	lea	rcx, OFFSET FLAT:__B6CC0FF4_pmc_compare@c
	call	__CheckForDebuggerJustMyCode

; 263  :     if (__UNIT_TYPE_BIT_COUNT * 2 < sizeof(u) * 8)

	xor	eax, eax
	test	eax, eax
	je	SHORT $LN2@PMC_Compar

; 264  :     {
; 265  :         // _UINT64_T が 2 ワードで表現しきれない処理系には対応しない
; 266  :         return (PMC_STATUS_INTERNAL_ERROR);

	mov	eax, -256				; ffffffffffffff00H
	jmp	SHORT $LN1@PMC_Compar
$LN2@PMC_Compar:

; 267  :     }
; 268  :     if (v == NULL)

	cmp	QWORD PTR v$[rbp], 0
	jne	SHORT $LN3@PMC_Compar

; 269  :         return (PMC_STATUS_ARGUMENT_ERROR);

	mov	eax, -1
	jmp	SHORT $LN1@PMC_Compar
$LN3@PMC_Compar:

; 270  :     if (w == NULL)

	cmp	QWORD PTR w$[rbp], 0
	jne	SHORT $LN4@PMC_Compar

; 271  :         return (PMC_STATUS_ARGUMENT_ERROR);

	mov	eax, -1
	jmp	SHORT $LN1@PMC_Compar
$LN4@PMC_Compar:

; 272  :     PMC_STATUS_CODE result;
; 273  :     if ((result = CheckNumber((NUMBER_HEADER*)v)) != PMC_STATUS_OK)

	mov	rcx, QWORD PTR v$[rbp]
	call	CheckNumber
	mov	DWORD PTR result$[rbp], eax
	cmp	DWORD PTR result$[rbp], 0
	je	SHORT $LN5@PMC_Compar

; 274  :         return (result);

	mov	eax, DWORD PTR result$[rbp]
	jmp	SHORT $LN1@PMC_Compar
$LN5@PMC_Compar:

; 275  :     _INT32_T w_temp;
; 276  :     PMC_Compare_X_L_Imp((NUMBER_HEADER*)v, u, &w_temp);

	lea	r8, QWORD PTR w_temp$[rbp]
	mov	rdx, QWORD PTR u$[rbp]
	mov	rcx, QWORD PTR v$[rbp]
	call	PMC_Compare_X_L_Imp

; 277  :     *w = -w_temp;

	mov	eax, DWORD PTR w_temp$[rbp]
	neg	eax
	mov	rcx, QWORD PTR w$[rbp]
	mov	DWORD PTR [rcx], eax

; 278  :     return (PMC_STATUS_OK);

	xor	eax, eax
$LN1@PMC_Compar:

; 279  : }

	mov	rdi, rax
	lea	rcx, QWORD PTR [rbp-32]
	lea	rdx, OFFSET FLAT:PMC_Compare_L_X$rtcFrameData
	call	_RTC_CheckStackVars
	mov	rax, rdi
	lea	rsp, QWORD PTR [rbp+264]
	pop	rdi
	pop	rbp
	ret	0
PMC_Compare_L_X ENDP
_TEXT	ENDS
; Function compile flags: /Odtp /RTCsu /ZI
; File z:\sources\lunor\repos\rougemeilland\palmtree.math.core.uint\palmtree.math.core.uint\pmc_compare.c
;	COMDAT PMC_Compare_I_X
_TEXT	SEGMENT
result$ = 4
w_temp$ = 36
u$ = 288
v$ = 296
w$ = 304
PMC_Compare_I_X PROC					; COMDAT

; 104  : {

$LN7:
	mov	QWORD PTR [rsp+24], r8
	mov	QWORD PTR [rsp+16], rdx
	mov	DWORD PTR [rsp+8], ecx
	push	rbp
	push	rdi
	sub	rsp, 296				; 00000128H
	lea	rbp, QWORD PTR [rsp+32]
	mov	rdi, rsp
	mov	ecx, 74					; 0000004aH
	mov	eax, -858993460				; ccccccccH
	rep stosd
	mov	ecx, DWORD PTR [rsp+328]
	lea	rcx, OFFSET FLAT:__B6CC0FF4_pmc_compare@c
	call	__CheckForDebuggerJustMyCode

; 105  :     if (__UNIT_TYPE_BIT_COUNT < sizeof(u) * 8)

	xor	eax, eax
	test	eax, eax
	je	SHORT $LN2@PMC_Compar

; 106  :     {
; 107  :         // _UINT32_T が 1 ワードで表現しきれない処理系には対応しない
; 108  :         return (PMC_STATUS_INTERNAL_ERROR);

	mov	eax, -256				; ffffffffffffff00H
	jmp	SHORT $LN1@PMC_Compar
$LN2@PMC_Compar:

; 109  :     }
; 110  :     if (v == NULL)

	cmp	QWORD PTR v$[rbp], 0
	jne	SHORT $LN3@PMC_Compar

; 111  :         return (PMC_STATUS_ARGUMENT_ERROR);

	mov	eax, -1
	jmp	SHORT $LN1@PMC_Compar
$LN3@PMC_Compar:

; 112  :     if (w == NULL)

	cmp	QWORD PTR w$[rbp], 0
	jne	SHORT $LN4@PMC_Compar

; 113  :         return (PMC_STATUS_ARGUMENT_ERROR);

	mov	eax, -1
	jmp	SHORT $LN1@PMC_Compar
$LN4@PMC_Compar:

; 114  :     PMC_STATUS_CODE result;
; 115  :     if ((result = CheckNumber((NUMBER_HEADER*)v)) != PMC_STATUS_OK)

	mov	rcx, QWORD PTR v$[rbp]
	call	CheckNumber
	mov	DWORD PTR result$[rbp], eax
	cmp	DWORD PTR result$[rbp], 0
	je	SHORT $LN5@PMC_Compar

; 116  :         return (result);

	mov	eax, DWORD PTR result$[rbp]
	jmp	SHORT $LN1@PMC_Compar
$LN5@PMC_Compar:

; 117  :     _INT32_T w_temp;
; 118  :     PMC_Compare_X_I_Imp((NUMBER_HEADER*)v, u, &w_temp);

	lea	r8, QWORD PTR w_temp$[rbp]
	mov	edx, DWORD PTR u$[rbp]
	mov	rcx, QWORD PTR v$[rbp]
	call	PMC_Compare_X_I_Imp

; 119  :     *w = -w_temp;

	mov	eax, DWORD PTR w_temp$[rbp]
	neg	eax
	mov	rcx, QWORD PTR w$[rbp]
	mov	DWORD PTR [rcx], eax

; 120  :     return (PMC_STATUS_OK);

	xor	eax, eax
$LN1@PMC_Compar:

; 121  : }

	mov	rdi, rax
	lea	rcx, QWORD PTR [rbp-32]
	lea	rdx, OFFSET FLAT:PMC_Compare_I_X$rtcFrameData
	call	_RTC_CheckStackVars
	mov	rax, rdi
	lea	rsp, QWORD PTR [rbp+264]
	pop	rdi
	pop	rbp
	ret	0
PMC_Compare_I_X ENDP
_TEXT	ENDS
; Function compile flags: /Odtp /RTCsu /ZI
; File z:\sources\lunor\repos\rougemeilland\palmtree.math.core.uint\palmtree.math.core.uint\pmc_compare.c
;	COMDAT Initialize_Compare
_TEXT	SEGMENT
feature$ = 224
Initialize_Compare PROC					; COMDAT

; 348  : {

$LN3:
	mov	QWORD PTR [rsp+8], rcx
	push	rbp
	push	rdi
	sub	rsp, 232				; 000000e8H
	lea	rbp, QWORD PTR [rsp+32]
	mov	rdi, rsp
	mov	ecx, 58					; 0000003aH
	mov	eax, -858993460				; ccccccccH
	rep stosd
	mov	rcx, QWORD PTR [rsp+264]
	lea	rcx, OFFSET FLAT:__B6CC0FF4_pmc_compare@c
	call	__CheckForDebuggerJustMyCode

; 349  :     return (PMC_STATUS_OK);

	xor	eax, eax

; 350  : }

	lea	rsp, QWORD PTR [rbp+200]
	pop	rdi
	pop	rbp
	ret	0
Initialize_Compare ENDP
_TEXT	ENDS
; Function compile flags: /Odtp /RTCsu /ZI
; File z:\sources\lunor\repos\rougemeilland\palmtree.math.core.uint\palmtree.math.core.uint\pmc_compare.c
;	COMDAT Compare_Imp
_TEXT	SEGMENT
u$ = 224
v$ = 232
count$ = 240
Compare_Imp PROC					; COMDAT

; 32   : {

$LN9:
	mov	QWORD PTR [rsp+24], r8
	mov	QWORD PTR [rsp+16], rdx
	mov	QWORD PTR [rsp+8], rcx
	push	rbp
	push	rdi
	sub	rsp, 232				; 000000e8H
	lea	rbp, QWORD PTR [rsp+32]
	mov	rdi, rsp
	mov	ecx, 58					; 0000003aH
	mov	eax, -858993460				; ccccccccH
	rep stosd
	mov	rcx, QWORD PTR [rsp+264]
	lea	rcx, OFFSET FLAT:__B6CC0FF4_pmc_compare@c
	call	__CheckForDebuggerJustMyCode

; 33   :     u += count;

	mov	rax, QWORD PTR u$[rbp]
	mov	rcx, QWORD PTR count$[rbp]
	lea	rax, QWORD PTR [rax+rcx*8]
	mov	QWORD PTR u$[rbp], rax

; 34   :     v += count;

	mov	rax, QWORD PTR v$[rbp]
	mov	rcx, QWORD PTR count$[rbp]
	lea	rax, QWORD PTR [rax+rcx*8]
	mov	QWORD PTR v$[rbp], rax
$LN2@Compare_Im:

; 35   :     while (count > 0)

	cmp	QWORD PTR count$[rbp], 0
	jbe	SHORT $LN3@Compare_Im

; 36   :     {
; 37   :         --u;

	mov	rax, QWORD PTR u$[rbp]
	sub	rax, 8
	mov	QWORD PTR u$[rbp], rax

; 38   :         --v;

	mov	rax, QWORD PTR v$[rbp]
	sub	rax, 8
	mov	QWORD PTR v$[rbp], rax

; 39   :         --count;

	mov	rax, QWORD PTR count$[rbp]
	dec	rax
	mov	QWORD PTR count$[rbp], rax

; 40   : 
; 41   :         if (*u > *v)

	mov	rax, QWORD PTR u$[rbp]
	mov	rcx, QWORD PTR v$[rbp]
	mov	rcx, QWORD PTR [rcx]
	cmp	QWORD PTR [rax], rcx
	jbe	SHORT $LN4@Compare_Im

; 42   :             return (1);

	mov	eax, 1
	jmp	SHORT $LN1@Compare_Im
	jmp	SHORT $LN5@Compare_Im
$LN4@Compare_Im:

; 43   :         else if (*u < *v)

	mov	rax, QWORD PTR u$[rbp]
	mov	rcx, QWORD PTR v$[rbp]
	mov	rcx, QWORD PTR [rcx]
	cmp	QWORD PTR [rax], rcx
	jae	SHORT $LN6@Compare_Im

; 44   :             return (-1);

	mov	eax, -1
	jmp	SHORT $LN1@Compare_Im
$LN6@Compare_Im:
$LN5@Compare_Im:

; 45   :         else
; 46   :         {
; 47   :         }
; 48   :     }

	jmp	SHORT $LN2@Compare_Im
$LN3@Compare_Im:

; 49   :     return (0);

	xor	eax, eax
$LN1@Compare_Im:

; 50   : }

	lea	rsp, QWORD PTR [rbp+200]
	pop	rdi
	pop	rbp
	ret	0
Compare_Imp ENDP
_TEXT	ENDS
END
