; Listing generated by Microsoft (R) Optimizing Compiler Version 19.16.27026.1 

include listing.inc

INCLUDELIB MSVCRTD
INCLUDELIB OLDNAMES

msvcjmc	SEGMENT
__7B7A869E_ctype@h DB 01H
__457DD326_basetsd@h DB 01H
__4384A2D9_corecrt_memcpy_s@h DB 01H
__4E51A221_corecrt_wstring@h DB 01H
__2140C079_string@h DB 01H
__1887E595_winnt@h DB 01H
__9FC7C64B_processthreadsapi@h DB 01H
__FA470AEC_memoryapi@h DB 01H
__F37DAFF1_winerror@h DB 01H
__7A450CCC_winbase@h DB 01H
__B4B40122_winioctl@h DB 01H
__86261D59_stralign@h DB 01H
__BB6D3116_pmc_uint_internal@h DB 01H
__8CA3E54E_pmc_inline_func@h DB 01H
__E05E7037_autogenerated_inline_func@h DB 01H
__6B07DC87_pmc_subtruct@c DB 01H
msvcjmc	ENDS
PUBLIC	Subtruct_Imp
PUBLIC	Initialize_Subtruct
PUBLIC	PMC_Subtruct_I_X
PUBLIC	PMC_Subtruct_L_X
PUBLIC	PMC_Subtruct_X_I
PUBLIC	PMC_Subtruct_X_L
PUBLIC	PMC_Subtruct_X_X
PUBLIC	__JustMyCode_Default
EXTRN	CheckBlockLight:PROC
EXTRN	AllocateNumber:PROC
EXTRN	DeallocateNumber:PROC
EXTRN	CommitNumber:PROC
EXTRN	CheckNumber:PROC
EXTRN	DuplicateNumber:PROC
EXTRN	_RTC_CheckStackVars:PROC
EXTRN	_RTC_InitBase:PROC
EXTRN	_RTC_Shutdown:PROC
EXTRN	__CheckForDebuggerJustMyCode:PROC
EXTRN	number_zero:BYTE
;	COMDAT pdata
pdata	SEGMENT
$pdata$Subtruct_Imp DD imagerel $LN10
	DD	imagerel $LN10+855
	DD	imagerel $unwind$Subtruct_Imp
pdata	ENDS
;	COMDAT pdata
pdata	SEGMENT
$pdata$Initialize_Subtruct DD imagerel $LN3
	DD	imagerel $LN3+66
	DD	imagerel $unwind$Initialize_Subtruct
pdata	ENDS
;	COMDAT pdata
pdata	SEGMENT
$pdata$PMC_Subtruct_I_X DD imagerel $LN17
	DD	imagerel $LN17+421
	DD	imagerel $unwind$PMC_Subtruct_I_X
pdata	ENDS
;	COMDAT pdata
pdata	SEGMENT
$pdata$PMC_Subtruct_L_X DD imagerel $LN31
	DD	imagerel $LN31+910
	DD	imagerel $unwind$PMC_Subtruct_L_X
pdata	ENDS
;	COMDAT pdata
pdata	SEGMENT
$pdata$PMC_Subtruct_X_I DD imagerel $LN22
	DD	imagerel $LN22+639
	DD	imagerel $unwind$PMC_Subtruct_X_I
pdata	ENDS
;	COMDAT pdata
pdata	SEGMENT
$pdata$PMC_Subtruct_X_L DD imagerel $LN38
	DD	imagerel $LN38+1238
	DD	imagerel $unwind$PMC_Subtruct_X_L
pdata	ENDS
;	COMDAT pdata
pdata	SEGMENT
$pdata$PMC_Subtruct_X_X DD imagerel $LN22
	DD	imagerel $LN22+664
	DD	imagerel $unwind$PMC_Subtruct_X_X
pdata	ENDS
;	COMDAT pdata
pdata	SEGMENT
$pdata$_FROMWORDTODWORD DD imagerel _FROMWORDTODWORD
	DD	imagerel _FROMWORDTODWORD+85
	DD	imagerel $unwind$_FROMWORDTODWORD
pdata	ENDS
;	COMDAT pdata
pdata	SEGMENT
$pdata$_FROMDWORDTOWORD DD imagerel _FROMDWORDTOWORD
	DD	imagerel _FROMDWORDTOWORD+95
	DD	imagerel $unwind$_FROMDWORDTOWORD
pdata	ENDS
;	COMDAT pdata
pdata	SEGMENT
$pdata$_SUBTRUCT_UNIT DD imagerel _SUBTRUCT_UNIT
	DD	imagerel _SUBTRUCT_UNIT+118
	DD	imagerel $unwind$_SUBTRUCT_UNIT
pdata	ENDS
;	COMDAT pdata
pdata	SEGMENT
$pdata$_LZCNT_ALT_32 DD imagerel _LZCNT_ALT_32
	DD	imagerel _LZCNT_ALT_32+126
	DD	imagerel $unwind$_LZCNT_ALT_32
pdata	ENDS
;	COMDAT pdata
pdata	SEGMENT
$pdata$_LZCNT_ALT_UNIT DD imagerel _LZCNT_ALT_UNIT
	DD	imagerel _LZCNT_ALT_UNIT+131
	DD	imagerel $unwind$_LZCNT_ALT_UNIT
pdata	ENDS
;	COMDAT pdata
pdata	SEGMENT
$pdata$_SUBTRUCT_32WORDS_SBB DD imagerel _SUBTRUCT_32WORDS_SBB
	DD	imagerel _SUBTRUCT_32WORDS_SBB+2741
	DD	imagerel $unwind$_SUBTRUCT_32WORDS_SBB
pdata	ENDS
;	COMDAT pdata
pdata	SEGMENT
$pdata$_SUBTRUCT_16WORDS_SBB DD imagerel _SUBTRUCT_16WORDS_SBB
	DD	imagerel _SUBTRUCT_16WORDS_SBB+1413
	DD	imagerel $unwind$_SUBTRUCT_16WORDS_SBB
pdata	ENDS
;	COMDAT pdata
pdata	SEGMENT
$pdata$_SUBTRUCT_8WORDS_SBB DD imagerel _SUBTRUCT_8WORDS_SBB
	DD	imagerel _SUBTRUCT_8WORDS_SBB+749
	DD	imagerel $unwind$_SUBTRUCT_8WORDS_SBB
pdata	ENDS
;	COMDAT pdata
pdata	SEGMENT
$pdata$_SUBTRUCT_4WORDS_SBB DD imagerel _SUBTRUCT_4WORDS_SBB
	DD	imagerel _SUBTRUCT_4WORDS_SBB+417
	DD	imagerel $unwind$_SUBTRUCT_4WORDS_SBB
pdata	ENDS
;	COMDAT pdata
pdata	SEGMENT
$pdata$_SUBTRUCT_2WORDS_SBB DD imagerel _SUBTRUCT_2WORDS_SBB
	DD	imagerel _SUBTRUCT_2WORDS_SBB+251
	DD	imagerel $unwind$_SUBTRUCT_2WORDS_SBB
pdata	ENDS
;	COMDAT pdata
pdata	SEGMENT
$pdata$DoBorrow DD imagerel DoBorrow
	DD	imagerel DoBorrow+385
	DD	imagerel $unwind$DoBorrow
pdata	ENDS
;	COMDAT pdata
pdata	SEGMENT
$pdata$Subtruct_X_1W DD imagerel Subtruct_X_1W
	DD	imagerel Subtruct_X_1W+253
	DD	imagerel $unwind$Subtruct_X_1W
pdata	ENDS
;	COMDAT pdata
pdata	SEGMENT
$pdata$Subtruct_X_2W DD imagerel Subtruct_X_2W
	DD	imagerel Subtruct_X_2W+380
	DD	imagerel $unwind$Subtruct_X_2W
pdata	ENDS
;	COMDAT rtc$TMZ
rtc$TMZ	SEGMENT
_RTC_Shutdown.rtc$TMZ DQ FLAT:_RTC_Shutdown
rtc$TMZ	ENDS
;	COMDAT rtc$IMZ
rtc$IMZ	SEGMENT
_RTC_InitBase.rtc$IMZ DQ FLAT:_RTC_InitBase
rtc$IMZ	ENDS
;	COMDAT xdata
xdata	SEGMENT
$unwind$Subtruct_X_2W DD 035053901H
	DD	011d3322H
	DD	070160025H
	DD	05015H
xdata	ENDS
;	COMDAT xdata
xdata	SEGMENT
$unwind$Subtruct_X_1W DD 035053901H
	DD	011d3322H
	DD	070160025H
	DD	05015H
xdata	ENDS
;	COMDAT xdata
xdata	SEGMENT
$unwind$DoBorrow DD 025053801H
	DD	011c2321H
	DD	07015001fH
	DD	05014H
xdata	ENDS
;	COMDAT xdata
xdata	SEGMENT
$unwind$_SUBTRUCT_2WORDS_SBB DD 025053801H
	DD	011c2321H
	DD	07015001dH
	DD	05014H
xdata	ENDS
;	COMDAT xdata
xdata	SEGMENT
$unwind$_SUBTRUCT_4WORDS_SBB DD 025053801H
	DD	011c2321H
	DD	07015001dH
	DD	05014H
xdata	ENDS
;	COMDAT xdata
xdata	SEGMENT
$unwind$_SUBTRUCT_8WORDS_SBB DD 025053801H
	DD	011c2321H
	DD	07015001dH
	DD	05014H
xdata	ENDS
;	COMDAT xdata
xdata	SEGMENT
$unwind$_SUBTRUCT_16WORDS_SBB DD 025053801H
	DD	011c2321H
	DD	07015001dH
	DD	05014H
xdata	ENDS
;	COMDAT xdata
xdata	SEGMENT
$unwind$_SUBTRUCT_32WORDS_SBB DD 025053801H
	DD	011c2321H
	DD	07015001dH
	DD	05014H
xdata	ENDS
;	COMDAT xdata
xdata	SEGMENT
$unwind$_LZCNT_ALT_UNIT DD 025052a01H
	DD	010e2313H
	DD	070070021H
	DD	05006H
xdata	ENDS
;	COMDAT CONST
CONST	SEGMENT
_LZCNT_ALT_UNIT$rtcName$0 DB 070H
	DB	06fH
	DB	073H
	DB	00H
	ORG $+12
_LZCNT_ALT_UNIT$rtcVarDesc DD 024H
	DD	04H
	DQ	FLAT:_LZCNT_ALT_UNIT$rtcName$0
	ORG $+48
_LZCNT_ALT_UNIT$rtcFrameData DD 01H
	DD	00H
	DQ	FLAT:_LZCNT_ALT_UNIT$rtcVarDesc
CONST	ENDS
;	COMDAT xdata
xdata	SEGMENT
$unwind$_LZCNT_ALT_32 DD 025052801H
	DD	010d2312H
	DD	070060021H
	DD	05005H
xdata	ENDS
;	COMDAT CONST
CONST	SEGMENT
_LZCNT_ALT_32$rtcName$0 DB 070H
	DB	06fH
	DB	073H
	DB	00H
	ORG $+12
_LZCNT_ALT_32$rtcVarDesc DD 024H
	DD	04H
	DQ	FLAT:_LZCNT_ALT_32$rtcName$0
	ORG $+48
_LZCNT_ALT_32$rtcFrameData DD 01H
	DD	00H
	DQ	FLAT:_LZCNT_ALT_32$rtcVarDesc
CONST	ENDS
;	COMDAT xdata
xdata	SEGMENT
$unwind$_SUBTRUCT_UNIT DD 025053801H
	DD	011c2321H
	DD	07015001dH
	DD	05014H
xdata	ENDS
;	COMDAT xdata
xdata	SEGMENT
$unwind$_FROMDWORDTOWORD DD 025052f01H
	DD	01132318H
	DD	0700c001dH
	DD	0500bH
xdata	ENDS
;	COMDAT xdata
xdata	SEGMENT
$unwind$_FROMWORDTODWORD DD 025052c01H
	DD	01112316H
	DD	0700a001dH
	DD	05009H
xdata	ENDS
;	COMDAT xdata
xdata	SEGMENT
$unwind$PMC_Subtruct_X_X DD 035053401H
	DD	0118331dH
	DD	07011003fH
	DD	05010H
xdata	ENDS
;	COMDAT CONST
CONST	SEGMENT
PMC_Subtruct_X_X$rtcName$0 DB 06eH
	DB	07aH
	DB	00H
	ORG $+5
PMC_Subtruct_X_X$rtcName$1 DB 06eH
	DB	07aH
	DB	05fH
	DB	06cH
	DB	069H
	DB	067H
	DB	068H
	DB	074H
	DB	05fH
	DB	063H
	DB	068H
	DB	065H
	DB	063H
	DB	06bH
	DB	05fH
	DB	063H
	DB	06fH
	DB	064H
	DB	065H
	DB	00H
	ORG $+4
PMC_Subtruct_X_X$rtcVarDesc DD 0118H
	DD	08H
	DQ	FLAT:PMC_Subtruct_X_X$rtcName$1
	DD	098H
	DD	08H
	DQ	FLAT:PMC_Subtruct_X_X$rtcName$0
	ORG $+96
PMC_Subtruct_X_X$rtcFrameData DD 02H
	DD	00H
	DQ	FLAT:PMC_Subtruct_X_X$rtcVarDesc
CONST	ENDS
;	COMDAT xdata
xdata	SEGMENT
$unwind$PMC_Subtruct_X_L DD 035053401H
	DD	0118331dH
	DD	07011005fH
	DD	05010H
xdata	ENDS
;	COMDAT CONST
CONST	SEGMENT
PMC_Subtruct_X_L$rtcName$0 DB 06eH
	DB	07aH
	DB	00H
	ORG $+1
PMC_Subtruct_X_L$rtcName$1 DB 079H
	DB	05fH
	DB	068H
	DB	069H
	DB	00H
	ORG $+7
PMC_Subtruct_X_L$rtcName$2 DB 06eH
	DB	07aH
	DB	05fH
	DB	06cH
	DB	069H
	DB	067H
	DB	068H
	DB	074H
	DB	05fH
	DB	063H
	DB	068H
	DB	065H
	DB	063H
	DB	06bH
	DB	05fH
	DB	063H
	DB	06fH
	DB	064H
	DB	065H
	DB	00H
	ORG $+4
PMC_Subtruct_X_L$rtcName$3 DB 06eH
	DB	07aH
	DB	05fH
	DB	06cH
	DB	069H
	DB	067H
	DB	068H
	DB	074H
	DB	05fH
	DB	063H
	DB	068H
	DB	065H
	DB	063H
	DB	06bH
	DB	05fH
	DB	063H
	DB	06fH
	DB	064H
	DB	065H
	DB	00H
	ORG $+4
PMC_Subtruct_X_L$rtcName$4 DB 06eH
	DB	07aH
	DB	05fH
	DB	06cH
	DB	069H
	DB	067H
	DB	068H
	DB	074H
	DB	05fH
	DB	063H
	DB	068H
	DB	065H
	DB	063H
	DB	06bH
	DB	05fH
	DB	063H
	DB	06fH
	DB	064H
	DB	065H
	DB	00H
	ORG $+12
PMC_Subtruct_X_L$rtcVarDesc DD 0218H
	DD	08H
	DQ	FLAT:PMC_Subtruct_X_L$rtcName$4
	DD	0198H
	DD	08H
	DQ	FLAT:PMC_Subtruct_X_L$rtcName$3
	DD	0138H
	DD	08H
	DQ	FLAT:PMC_Subtruct_X_L$rtcName$2
	DD	0b4H
	DD	04H
	DQ	FLAT:PMC_Subtruct_X_L$rtcName$1
	DD	078H
	DD	08H
	DQ	FLAT:PMC_Subtruct_X_L$rtcName$0
	ORG $+240
PMC_Subtruct_X_L$rtcFrameData DD 05H
	DD	00H
	DQ	FLAT:PMC_Subtruct_X_L$rtcVarDesc
CONST	ENDS
;	COMDAT xdata
xdata	SEGMENT
$unwind$PMC_Subtruct_X_I DD 035053301H
	DD	0117331cH
	DD	07010003bH
	DD	0500fH
xdata	ENDS
;	COMDAT CONST
CONST	SEGMENT
PMC_Subtruct_X_I$rtcName$0 DB 06eH
	DB	077H
	DB	00H
	ORG $+5
PMC_Subtruct_X_I$rtcName$1 DB 077H
	DB	05fH
	DB	06cH
	DB	069H
	DB	067H
	DB	068H
	DB	074H
	DB	05fH
	DB	063H
	DB	068H
	DB	065H
	DB	063H
	DB	06bH
	DB	05fH
	DB	063H
	DB	06fH
	DB	064H
	DB	065H
	DB	00H
	ORG $+5
PMC_Subtruct_X_I$rtcVarDesc DD 0f8H
	DD	08H
	DQ	FLAT:PMC_Subtruct_X_I$rtcName$1
	DD	078H
	DD	08H
	DQ	FLAT:PMC_Subtruct_X_I$rtcName$0
	ORG $+96
PMC_Subtruct_X_I$rtcFrameData DD 02H
	DD	00H
	DQ	FLAT:PMC_Subtruct_X_I$rtcVarDesc
CONST	ENDS
;	COMDAT xdata
xdata	SEGMENT
$unwind$PMC_Subtruct_L_X DD 025053401H
	DD	0118231dH
	DD	070110079H
	DD	05010H
xdata	ENDS
;	COMDAT CONST
CONST	SEGMENT
PMC_Subtruct_L_X$rtcName$0 DB 075H
	DB	05fH
	DB	068H
	DB	069H
	DB	00H
	ORG $+3
PMC_Subtruct_L_X$rtcName$1 DB 074H
	DB	065H
	DB	06dH
	DB	070H
	DB	05fH
	DB	077H
	DB	00H
	ORG $+1
PMC_Subtruct_L_X$rtcName$2 DB 074H
	DB	065H
	DB	06dH
	DB	070H
	DB	05fH
	DB	077H
	DB	05fH
	DB	068H
	DB	069H
	DB	00H
	ORG $+6
PMC_Subtruct_L_X$rtcName$3 DB 074H
	DB	065H
	DB	06dH
	DB	070H
	DB	05fH
	DB	077H
	DB	05fH
	DB	06cH
	DB	06fH
	DB	00H
	ORG $+2
PMC_Subtruct_L_X$rtcName$4 DB 074H
	DB	065H
	DB	06dH
	DB	070H
	DB	05fH
	DB	077H
	DB	00H
	ORG $+5
PMC_Subtruct_L_X$rtcFrameData DD 05H
	DD	00H
	DQ	FLAT:PMC_Subtruct_L_X$rtcVarDesc
	ORG $+8
PMC_Subtruct_L_X$rtcVarDesc DD 0208H
	DD	08H
	DQ	FLAT:PMC_Subtruct_L_X$rtcName$4
	DD	0188H
	DD	08H
	DQ	FLAT:PMC_Subtruct_L_X$rtcName$3
	DD	0168H
	DD	08H
	DQ	FLAT:PMC_Subtruct_L_X$rtcName$2
	DD	0e8H
	DD	08H
	DQ	FLAT:PMC_Subtruct_L_X$rtcName$1
	DD	064H
	DD	04H
	DQ	FLAT:PMC_Subtruct_L_X$rtcName$0
CONST	ENDS
;	COMDAT xdata
xdata	SEGMENT
$unwind$PMC_Subtruct_I_X DD 025053201H
	DD	0117231cH
	DD	070100035H
	DD	0500fH
xdata	ENDS
;	COMDAT CONST
CONST	SEGMENT
PMC_Subtruct_I_X$rtcName$0 DB 074H
	DB	065H
	DB	06dH
	DB	070H
	DB	05fH
	DB	077H
	DB	00H
	ORG $+9
PMC_Subtruct_I_X$rtcVarDesc DD 0a8H
	DD	08H
	DQ	FLAT:PMC_Subtruct_I_X$rtcName$0
	ORG $+48
PMC_Subtruct_I_X$rtcFrameData DD 01H
	DD	00H
	DQ	FLAT:PMC_Subtruct_I_X$rtcVarDesc
CONST	ENDS
;	COMDAT xdata
xdata	SEGMENT
$unwind$Initialize_Subtruct DD 025052a01H
	DD	010e2313H
	DD	07007001dH
	DD	05006H
xdata	ENDS
;	COMDAT xdata
xdata	SEGMENT
$unwind$Subtruct_Imp DD 035053901H
	DD	011d3322H
	DD	070160029H
	DD	05015H
xdata	ENDS
; Function compile flags: /Odt
;	COMDAT __JustMyCode_Default
_TEXT	SEGMENT
__JustMyCode_Default PROC				; COMDAT
	ret	0
__JustMyCode_Default ENDP
_TEXT	ENDS
; Function compile flags: /Odtp /RTCsu /ZI
; File z:\sources\lunor\repos\rougemeilland\palmtree.math.core.uint\palmtree.math.core.uint\pmc_subtruct.c
;	COMDAT Subtruct_X_2W
_TEXT	SEGMENT
c$1 = 4
tv76 = 216
tv67 = 216
tv80 = 224
tv71 = 224
up$ = 272
u_count$ = 280
v_hi$ = 288
v_lo$ = 296
wp$ = 304
w_count$ = 312
Subtruct_X_2W PROC					; COMDAT

; 98   : {

	mov	QWORD PTR [rsp+32], r9
	mov	QWORD PTR [rsp+24], r8
	mov	QWORD PTR [rsp+16], rdx
	mov	QWORD PTR [rsp+8], rcx
	push	rbp
	push	rdi
	sub	rsp, 296				; 00000128H
	lea	rbp, QWORD PTR [rsp+48]
	mov	rdi, rsp
	mov	ecx, 74					; 0000004aH
	mov	eax, -858993460				; ccccccccH
	rep stosd
	mov	rcx, QWORD PTR [rsp+328]
	lea	rcx, OFFSET FLAT:__6B07DC87_pmc_subtruct@c
	call	__CheckForDebuggerJustMyCode

; 99   :     if (u_count < 2)

	cmp	QWORD PTR u_count$[rbp], 2
	jae	SHORT $LN2@Subtruct_X

; 100  :     {
; 101  :         // u が 1 ワードしかなかった場合
; 102  : 
; 103  :         // 明らかに演算結果が負になるのでエラーを通知する。
; 104  :         return (PMC_STATUS_INTERNAL_BORROW);

	mov	eax, -258				; fffffffffffffefeH
	jmp	$LN1@Subtruct_X

; 105  :     }

	jmp	$LN3@Subtruct_X
$LN2@Subtruct_X:

; 106  :     else
; 107  :     {
; 108  :         // x が 2 ワード以上あった場合
; 109  : 
; 110  :         // 最下位のワードの減算をする
; 111  :         char c = _SUBTRUCT_UNIT(0, *up++, v_lo, wp++);

	mov	rax, QWORD PTR wp$[rbp]
	mov	QWORD PTR tv67[rbp], rax
	mov	rax, QWORD PTR wp$[rbp]
	add	rax, 8
	mov	QWORD PTR wp$[rbp], rax
	mov	rax, QWORD PTR up$[rbp]
	mov	rax, QWORD PTR [rax]
	mov	QWORD PTR tv71[rbp], rax
	mov	rax, QWORD PTR up$[rbp]
	add	rax, 8
	mov	QWORD PTR up$[rbp], rax
	mov	r9, QWORD PTR tv67[rbp]
	mov	r8, QWORD PTR v_lo$[rbp]
	mov	rdx, QWORD PTR tv71[rbp]
	xor	ecx, ecx
	call	_SUBTRUCT_UNIT
	mov	BYTE PTR c$1[rbp], al

; 112  : 
; 113  :         // 最下位から 2 番目のワードの減算をする。
; 114  :         c = _SUBTRUCT_UNIT(c, *up++, v_hi, wp++);

	mov	rax, QWORD PTR wp$[rbp]
	mov	QWORD PTR tv76[rbp], rax
	mov	rax, QWORD PTR wp$[rbp]
	add	rax, 8
	mov	QWORD PTR wp$[rbp], rax
	mov	rax, QWORD PTR up$[rbp]
	mov	rax, QWORD PTR [rax]
	mov	QWORD PTR tv80[rbp], rax
	mov	rax, QWORD PTR up$[rbp]
	add	rax, 8
	mov	QWORD PTR up$[rbp], rax
	mov	r9, QWORD PTR tv76[rbp]
	mov	r8, QWORD PTR v_hi$[rbp]
	mov	rdx, QWORD PTR tv80[rbp]
	movzx	ecx, BYTE PTR c$1[rbp]
	call	_SUBTRUCT_UNIT
	mov	BYTE PTR c$1[rbp], al

; 115  :         u_count -= 2;

	mov	rax, QWORD PTR u_count$[rbp]
	sub	rax, 2
	mov	QWORD PTR u_count$[rbp], rax

; 116  :         w_count -= 2;

	mov	rax, QWORD PTR w_count$[rbp]
	sub	rax, 2
	mov	QWORD PTR w_count$[rbp], rax

; 117  : 
; 118  :         // 残りの桁の繰り上がりを計算し、復帰する。
; 119  :         return (DoBorrow(c, up, u_count, wp, w_count));

	mov	rax, QWORD PTR w_count$[rbp]
	mov	QWORD PTR [rsp+32], rax
	mov	r9, QWORD PTR wp$[rbp]
	mov	r8, QWORD PTR u_count$[rbp]
	mov	rdx, QWORD PTR up$[rbp]
	movzx	ecx, BYTE PTR c$1[rbp]
	call	DoBorrow
$LN3@Subtruct_X:
$LN1@Subtruct_X:

; 120  :     }
; 121  : }

	lea	rsp, QWORD PTR [rbp+248]
	pop	rdi
	pop	rbp
	ret	0
Subtruct_X_2W ENDP
_TEXT	ENDS
; Function compile flags: /Odtp /RTCsu /ZI
; File z:\sources\lunor\repos\rougemeilland\palmtree.math.core.uint\palmtree.math.core.uint\pmc_subtruct.c
;	COMDAT Subtruct_X_1W
_TEXT	SEGMENT
c$ = 4
tv66 = 216
tv70 = 224
up$ = 272
u_count$ = 280
v$ = 288
wp$ = 296
w_count$ = 304
Subtruct_X_1W PROC					; COMDAT

; 86   : {

	mov	QWORD PTR [rsp+32], r9
	mov	QWORD PTR [rsp+24], r8
	mov	QWORD PTR [rsp+16], rdx
	mov	QWORD PTR [rsp+8], rcx
	push	rbp
	push	rdi
	sub	rsp, 296				; 00000128H
	lea	rbp, QWORD PTR [rsp+48]
	mov	rdi, rsp
	mov	ecx, 74					; 0000004aH
	mov	eax, -858993460				; ccccccccH
	rep stosd
	mov	rcx, QWORD PTR [rsp+328]
	lea	rcx, OFFSET FLAT:__6B07DC87_pmc_subtruct@c
	call	__CheckForDebuggerJustMyCode

; 87   :     // 最下桁の減算を行う
; 88   :     char c = _SUBTRUCT_UNIT(0, *up++, v, wp++);

	mov	rax, QWORD PTR wp$[rbp]
	mov	QWORD PTR tv66[rbp], rax
	mov	rax, QWORD PTR wp$[rbp]
	add	rax, 8
	mov	QWORD PTR wp$[rbp], rax
	mov	rax, QWORD PTR up$[rbp]
	mov	rax, QWORD PTR [rax]
	mov	QWORD PTR tv70[rbp], rax
	mov	rax, QWORD PTR up$[rbp]
	add	rax, 8
	mov	QWORD PTR up$[rbp], rax
	mov	r9, QWORD PTR tv66[rbp]
	mov	r8, QWORD PTR v$[rbp]
	mov	rdx, QWORD PTR tv70[rbp]
	xor	ecx, ecx
	call	_SUBTRUCT_UNIT
	mov	BYTE PTR c$[rbp], al

; 89   :     --u_count;

	mov	rax, QWORD PTR u_count$[rbp]
	dec	rax
	mov	QWORD PTR u_count$[rbp], rax

; 90   :     --w_count;

	mov	rax, QWORD PTR w_count$[rbp]
	dec	rax
	mov	QWORD PTR w_count$[rbp], rax

; 91   : 
; 92   :     // 残りの桁の繰上りを行い復帰する。
; 93   :     return (DoBorrow(c, up, u_count, wp, w_count));

	mov	rax, QWORD PTR w_count$[rbp]
	mov	QWORD PTR [rsp+32], rax
	mov	r9, QWORD PTR wp$[rbp]
	mov	r8, QWORD PTR u_count$[rbp]
	mov	rdx, QWORD PTR up$[rbp]
	movzx	ecx, BYTE PTR c$[rbp]
	call	DoBorrow

; 94   : }

	lea	rsp, QWORD PTR [rbp+248]
	pop	rdi
	pop	rbp
	ret	0
Subtruct_X_1W ENDP
_TEXT	ENDS
; Function compile flags: /Odtp /RTCsu /ZI
; File z:\sources\lunor\repos\rougemeilland\palmtree.math.core.uint\palmtree.math.core.uint\pmc_subtruct.c
;	COMDAT DoBorrow
_TEXT	SEGMENT
tv71 = 192
tv75 = 200
c$ = 240
up$ = 248
u_count$ = 256
wp$ = 264
w_count$ = 272
DoBorrow PROC						; COMDAT

; 40   : {

	mov	QWORD PTR [rsp+32], r9
	mov	QWORD PTR [rsp+24], r8
	mov	QWORD PTR [rsp+16], rdx
	mov	BYTE PTR [rsp+8], cl
	push	rbp
	push	rdi
	sub	rsp, 248				; 000000f8H
	lea	rbp, QWORD PTR [rsp+32]
	mov	rdi, rsp
	mov	ecx, 62					; 0000003eH
	mov	eax, -858993460				; ccccccccH
	rep stosd
	movzx	ecx, BYTE PTR [rsp+280]
	lea	rcx, OFFSET FLAT:__6B07DC87_pmc_subtruct@c
	call	__CheckForDebuggerJustMyCode
$LN2@DoBorrow:

; 41   :     // 桁借りを続く限り行う
; 42   :     for (;;)
; 43   :     {
; 44   :         if (u_count <= 0)

	cmp	QWORD PTR u_count$[rbp], 0
	ja	SHORT $LN7@DoBorrow

; 45   :         {
; 46   :             // x の最上位まで達してしまった場合
; 47   : 
; 48   :             if (c)

	movsx	eax, BYTE PTR c$[rbp]
	test	eax, eax
	je	SHORT $LN9@DoBorrow

; 49   :             {
; 50   :                 // かつそれでも桁借りを行う必要がある場合
; 51   : 
; 52   :                 // 減算結果が負になってしまったので呼び出し元に通知する。
; 53   :                 return (PMC_STATUS_INTERNAL_BORROW);

	mov	eax, -258				; fffffffffffffefeH
	jmp	$LN1@DoBorrow
$LN9@DoBorrow:

; 54   :             }
; 55   : 
; 56   :             // xの最上位に達してしまった場合はいずれにしろループを中断して正常復帰する。
; 57   : 
; 58   :             return (PMC_STATUS_OK);

	xor	eax, eax
	jmp	$LN1@DoBorrow

; 59   :         }

	jmp	$LN8@DoBorrow
$LN7@DoBorrow:

; 60   :         else if (c)

	movsx	eax, BYTE PTR c$[rbp]
	test	eax, eax
	je	$LN10@DoBorrow

; 61   :         {
; 62   :             // xの最上位に達しておらず、かつボローが立っている場合
; 63   : 
; 64   :             // 桁借りを継続する
; 65   :             c = _SUBTRUCT_UNIT(c, *up++, 0, wp++);

	mov	rax, QWORD PTR wp$[rbp]
	mov	QWORD PTR tv71[rbp], rax
	mov	rax, QWORD PTR wp$[rbp]
	add	rax, 8
	mov	QWORD PTR wp$[rbp], rax
	mov	rax, QWORD PTR up$[rbp]
	mov	rax, QWORD PTR [rax]
	mov	QWORD PTR tv75[rbp], rax
	mov	rax, QWORD PTR up$[rbp]
	add	rax, 8
	mov	QWORD PTR up$[rbp], rax
	mov	r9, QWORD PTR tv71[rbp]
	xor	r8d, r8d
	mov	rdx, QWORD PTR tv75[rbp]
	movzx	ecx, BYTE PTR c$[rbp]
	call	_SUBTRUCT_UNIT
	mov	BYTE PTR c$[rbp], al

; 66   :             --u_count;

	mov	rax, QWORD PTR u_count$[rbp]
	dec	rax
	mov	QWORD PTR u_count$[rbp], rax

; 67   :             --w_count;

	mov	rax, QWORD PTR w_count$[rbp]
	dec	rax
	mov	QWORD PTR w_count$[rbp], rax

; 68   :         }

	jmp	SHORT $LN11@DoBorrow
$LN10@DoBorrow:
$LN5@DoBorrow:

; 69   :         else
; 70   :         {
; 71   :             // xの最上位に達しておらず、かつボローが立っていない場合
; 72   : 
; 73   :             // 桁借りを中断し、xの残りのデータをzにそのまま複写し、正常復帰する。
; 74   :             while (u_count > 0)

	cmp	QWORD PTR u_count$[rbp], 0
	jbe	SHORT $LN6@DoBorrow

; 75   :             {
; 76   :                 *wp++ = *up++;

	mov	rax, QWORD PTR wp$[rbp]
	mov	rcx, QWORD PTR up$[rbp]
	mov	rcx, QWORD PTR [rcx]
	mov	QWORD PTR [rax], rcx
	mov	rax, QWORD PTR wp$[rbp]
	add	rax, 8
	mov	QWORD PTR wp$[rbp], rax
	mov	rax, QWORD PTR up$[rbp]
	add	rax, 8
	mov	QWORD PTR up$[rbp], rax

; 77   :                 --u_count;

	mov	rax, QWORD PTR u_count$[rbp]
	dec	rax
	mov	QWORD PTR u_count$[rbp], rax

; 78   :                 --w_count;

	mov	rax, QWORD PTR w_count$[rbp]
	dec	rax
	mov	QWORD PTR w_count$[rbp], rax

; 79   :             }

	jmp	SHORT $LN5@DoBorrow
$LN6@DoBorrow:

; 80   :             return (PMC_STATUS_OK);

	xor	eax, eax
	jmp	SHORT $LN1@DoBorrow
$LN11@DoBorrow:
$LN8@DoBorrow:

; 81   :         }
; 82   :     }

	jmp	$LN2@DoBorrow
$LN1@DoBorrow:

; 83   : }

	lea	rsp, QWORD PTR [rbp+216]
	pop	rdi
	pop	rbp
	ret	0
DoBorrow ENDP
_TEXT	ENDS
; Function compile flags: /Odtp /RTCsu /ZI
; File z:\sources\lunor\repos\rougemeilland\palmtree.math.core.uint\palmtree.math.core.uint\autogenerated_inline_func.h
;	COMDAT _SUBTRUCT_2WORDS_SBB
_TEXT	SEGMENT
c$ = 224
xp$ = 232
yp$ = 240
zp$ = 248
_SUBTRUCT_2WORDS_SBB PROC				; COMDAT

; 4464 : {

	mov	QWORD PTR [rsp+32], r9
	mov	QWORD PTR [rsp+24], r8
	mov	QWORD PTR [rsp+16], rdx
	mov	BYTE PTR [rsp+8], cl
	push	rbp
	push	rdi
	sub	rsp, 232				; 000000e8H
	lea	rbp, QWORD PTR [rsp+32]
	mov	rdi, rsp
	mov	ecx, 58					; 0000003aH
	mov	eax, -858993460				; ccccccccH
	rep stosd
	movzx	ecx, BYTE PTR [rsp+264]
	lea	rcx, OFFSET FLAT:__E05E7037_autogenerated_inline_func@h
	call	__CheckForDebuggerJustMyCode

; 4465 : #ifdef _MSC_VER
; 4466 :     c = _SUBTRUCT_UNIT(c, xp[0], yp[0], &zp[0]);

	mov	eax, 8
	imul	rax, rax, 0
	mov	rcx, QWORD PTR zp$[rbp]
	add	rcx, rax
	mov	rax, rcx
	mov	ecx, 8
	imul	rcx, rcx, 0
	mov	edx, 8
	imul	rdx, rdx, 0
	mov	r9, rax
	mov	rax, QWORD PTR yp$[rbp]
	mov	r8, QWORD PTR [rax+rcx]
	mov	rax, QWORD PTR xp$[rbp]
	mov	rdx, QWORD PTR [rax+rdx]
	movzx	ecx, BYTE PTR c$[rbp]
	call	_SUBTRUCT_UNIT
	mov	BYTE PTR c$[rbp], al

; 4467 :     c = _SUBTRUCT_UNIT(c, xp[1], yp[1], &zp[1]);

	mov	eax, 8
	imul	rax, rax, 1
	mov	rcx, QWORD PTR zp$[rbp]
	add	rcx, rax
	mov	rax, rcx
	mov	ecx, 8
	imul	rcx, rcx, 1
	mov	edx, 8
	imul	rdx, rdx, 1
	mov	r9, rax
	mov	rax, QWORD PTR yp$[rbp]
	mov	r8, QWORD PTR [rax+rcx]
	mov	rax, QWORD PTR xp$[rbp]
	mov	rdx, QWORD PTR [rax+rdx]
	movzx	ecx, BYTE PTR c$[rbp]
	call	_SUBTRUCT_UNIT
	mov	BYTE PTR c$[rbp], al

; 4468 : #elif defined(__GNUC__)
; 4469 : #ifdef _M_IX86
; 4470 :     __asm__ volatile (
; 4471 :         "addb\t$-1, %0\n\t"
; 4472 :         "movl\t(%1), %%ecx\n\t"
; 4473 :         "sbbl\t(%2), %%ecx\n\t"
; 4474 :         "movl\t%%ecx, (%3)\n\t"
; 4475 :         "movl\t4(%1), %%ecx\n\t"
; 4476 :         "sbbl\t4(%2), %%ecx\n\t"
; 4477 :         "movl\t%%ecx, 4(%3)\n\t"
; 4478 :         "setc\t%0"
; 4479 :         : "+r"(c), "+r"(xp), "+r"(yp), "+r"(zp)
; 4480 :         :
; 4481 :         : "cc", "memory", "%ecx"
; 4482 : );
; 4483 : #elif defined(_M_IX64)
; 4484 :     __asm__ volatile (
; 4485 :         "addb\t$-1, %0\n\t"
; 4486 :         "movq\t(%1), %%rcx\n\t"
; 4487 :         "sbbq\t(%2), %%rcx\n\t"
; 4488 :         "movq\t%%rcx, (%3)\n\t"
; 4489 :         "movq\t8(%1), %%rcx\n\t"
; 4490 :         "sbbq\t8(%2), %%rcx\n\t"
; 4491 :         "movq\t%%rcx, 8(%3)\n\t"
; 4492 :         "setc\t%0"
; 4493 :         : "+r"(c), "+r"(xp), "+r"(yp), "+r"(zp)
; 4494 :         :
; 4495 :         : "cc", "memory", "%rcx"
; 4496 : );
; 4497 : #else
; 4498 : #error unknown platform
; 4499 : #endif
; 4500 : #else
; 4501 : #error unknown compiler
; 4502 : #endif
; 4503 :     return (c);

	movzx	eax, BYTE PTR c$[rbp]

; 4504 : }

	lea	rsp, QWORD PTR [rbp+200]
	pop	rdi
	pop	rbp
	ret	0
_SUBTRUCT_2WORDS_SBB ENDP
_TEXT	ENDS
; Function compile flags: /Odtp /RTCsu /ZI
; File z:\sources\lunor\repos\rougemeilland\palmtree.math.core.uint\palmtree.math.core.uint\autogenerated_inline_func.h
;	COMDAT _SUBTRUCT_4WORDS_SBB
_TEXT	SEGMENT
c$ = 224
xp$ = 232
yp$ = 240
zp$ = 248
_SUBTRUCT_4WORDS_SBB PROC				; COMDAT

; 4050 : {

	mov	QWORD PTR [rsp+32], r9
	mov	QWORD PTR [rsp+24], r8
	mov	QWORD PTR [rsp+16], rdx
	mov	BYTE PTR [rsp+8], cl
	push	rbp
	push	rdi
	sub	rsp, 232				; 000000e8H
	lea	rbp, QWORD PTR [rsp+32]
	mov	rdi, rsp
	mov	ecx, 58					; 0000003aH
	mov	eax, -858993460				; ccccccccH
	rep stosd
	movzx	ecx, BYTE PTR [rsp+264]
	lea	rcx, OFFSET FLAT:__E05E7037_autogenerated_inline_func@h
	call	__CheckForDebuggerJustMyCode

; 4051 : #ifdef _MSC_VER
; 4052 :     c = _SUBTRUCT_UNIT(c, xp[0], yp[0], &zp[0]);

	mov	eax, 8
	imul	rax, rax, 0
	mov	rcx, QWORD PTR zp$[rbp]
	add	rcx, rax
	mov	rax, rcx
	mov	ecx, 8
	imul	rcx, rcx, 0
	mov	edx, 8
	imul	rdx, rdx, 0
	mov	r9, rax
	mov	rax, QWORD PTR yp$[rbp]
	mov	r8, QWORD PTR [rax+rcx]
	mov	rax, QWORD PTR xp$[rbp]
	mov	rdx, QWORD PTR [rax+rdx]
	movzx	ecx, BYTE PTR c$[rbp]
	call	_SUBTRUCT_UNIT
	mov	BYTE PTR c$[rbp], al

; 4053 :     c = _SUBTRUCT_UNIT(c, xp[1], yp[1], &zp[1]);

	mov	eax, 8
	imul	rax, rax, 1
	mov	rcx, QWORD PTR zp$[rbp]
	add	rcx, rax
	mov	rax, rcx
	mov	ecx, 8
	imul	rcx, rcx, 1
	mov	edx, 8
	imul	rdx, rdx, 1
	mov	r9, rax
	mov	rax, QWORD PTR yp$[rbp]
	mov	r8, QWORD PTR [rax+rcx]
	mov	rax, QWORD PTR xp$[rbp]
	mov	rdx, QWORD PTR [rax+rdx]
	movzx	ecx, BYTE PTR c$[rbp]
	call	_SUBTRUCT_UNIT
	mov	BYTE PTR c$[rbp], al

; 4054 :     c = _SUBTRUCT_UNIT(c, xp[2], yp[2], &zp[2]);

	mov	eax, 8
	imul	rax, rax, 2
	mov	rcx, QWORD PTR zp$[rbp]
	add	rcx, rax
	mov	rax, rcx
	mov	ecx, 8
	imul	rcx, rcx, 2
	mov	edx, 8
	imul	rdx, rdx, 2
	mov	r9, rax
	mov	rax, QWORD PTR yp$[rbp]
	mov	r8, QWORD PTR [rax+rcx]
	mov	rax, QWORD PTR xp$[rbp]
	mov	rdx, QWORD PTR [rax+rdx]
	movzx	ecx, BYTE PTR c$[rbp]
	call	_SUBTRUCT_UNIT
	mov	BYTE PTR c$[rbp], al

; 4055 :     c = _SUBTRUCT_UNIT(c, xp[3], yp[3], &zp[3]);

	mov	eax, 8
	imul	rax, rax, 3
	mov	rcx, QWORD PTR zp$[rbp]
	add	rcx, rax
	mov	rax, rcx
	mov	ecx, 8
	imul	rcx, rcx, 3
	mov	edx, 8
	imul	rdx, rdx, 3
	mov	r9, rax
	mov	rax, QWORD PTR yp$[rbp]
	mov	r8, QWORD PTR [rax+rcx]
	mov	rax, QWORD PTR xp$[rbp]
	mov	rdx, QWORD PTR [rax+rdx]
	movzx	ecx, BYTE PTR c$[rbp]
	call	_SUBTRUCT_UNIT
	mov	BYTE PTR c$[rbp], al

; 4056 : #elif defined(__GNUC__)
; 4057 : #ifdef _M_IX86
; 4058 :     __asm__ volatile (
; 4059 :         "addb\t$-1, %0\n\t"
; 4060 :         "movl\t(%1), %%ecx\n\t"
; 4061 :         "sbbl\t(%2), %%ecx\n\t"
; 4062 :         "movl\t%%ecx, (%3)\n\t"
; 4063 :         "movl\t4(%1), %%ecx\n\t"
; 4064 :         "sbbl\t4(%2), %%ecx\n\t"
; 4065 :         "movl\t%%ecx, 4(%3)\n\t"
; 4066 :         "movl\t8(%1), %%ecx\n\t"
; 4067 :         "sbbl\t8(%2), %%ecx\n\t"
; 4068 :         "movl\t%%ecx, 8(%3)\n\t"
; 4069 :         "movl\t12(%1), %%ecx\n\t"
; 4070 :         "sbbl\t12(%2), %%ecx\n\t"
; 4071 :         "movl\t%%ecx, 12(%3)\n\t"
; 4072 :         "setc\t%0"
; 4073 :         : "+r"(c), "+r"(xp), "+r"(yp), "+r"(zp)
; 4074 :         :
; 4075 :         : "cc", "memory", "%ecx"
; 4076 : );
; 4077 : #elif defined(_M_IX64)
; 4078 :     __asm__ volatile (
; 4079 :         "addb\t$-1, %0\n\t"
; 4080 :         "movq\t(%1), %%rcx\n\t"
; 4081 :         "sbbq\t(%2), %%rcx\n\t"
; 4082 :         "movq\t%%rcx, (%3)\n\t"
; 4083 :         "movq\t8(%1), %%rcx\n\t"
; 4084 :         "sbbq\t8(%2), %%rcx\n\t"
; 4085 :         "movq\t%%rcx, 8(%3)\n\t"
; 4086 :         "movq\t16(%1), %%rcx\n\t"
; 4087 :         "sbbq\t16(%2), %%rcx\n\t"
; 4088 :         "movq\t%%rcx, 16(%3)\n\t"
; 4089 :         "movq\t24(%1), %%rcx\n\t"
; 4090 :         "sbbq\t24(%2), %%rcx\n\t"
; 4091 :         "movq\t%%rcx, 24(%3)\n\t"
; 4092 :         "setc\t%0"
; 4093 :         : "+r"(c), "+r"(xp), "+r"(yp), "+r"(zp)
; 4094 :         :
; 4095 :         : "cc", "memory", "%rcx"
; 4096 : );
; 4097 : #else
; 4098 : #error unknown platform
; 4099 : #endif
; 4100 : #else
; 4101 : #error unknown compiler
; 4102 : #endif
; 4103 :     return (c);

	movzx	eax, BYTE PTR c$[rbp]

; 4104 : }

	lea	rsp, QWORD PTR [rbp+200]
	pop	rdi
	pop	rbp
	ret	0
_SUBTRUCT_4WORDS_SBB ENDP
_TEXT	ENDS
; Function compile flags: /Odtp /RTCsu /ZI
; File z:\sources\lunor\repos\rougemeilland\palmtree.math.core.uint\palmtree.math.core.uint\autogenerated_inline_func.h
;	COMDAT _SUBTRUCT_8WORDS_SBB
_TEXT	SEGMENT
c$ = 224
xp$ = 232
yp$ = 240
zp$ = 248
_SUBTRUCT_8WORDS_SBB PROC				; COMDAT

; 3454 : {

	mov	QWORD PTR [rsp+32], r9
	mov	QWORD PTR [rsp+24], r8
	mov	QWORD PTR [rsp+16], rdx
	mov	BYTE PTR [rsp+8], cl
	push	rbp
	push	rdi
	sub	rsp, 232				; 000000e8H
	lea	rbp, QWORD PTR [rsp+32]
	mov	rdi, rsp
	mov	ecx, 58					; 0000003aH
	mov	eax, -858993460				; ccccccccH
	rep stosd
	movzx	ecx, BYTE PTR [rsp+264]
	lea	rcx, OFFSET FLAT:__E05E7037_autogenerated_inline_func@h
	call	__CheckForDebuggerJustMyCode

; 3455 : #ifdef _MSC_VER
; 3456 :     c = _SUBTRUCT_UNIT(c, xp[0], yp[0], &zp[0]);

	mov	eax, 8
	imul	rax, rax, 0
	mov	rcx, QWORD PTR zp$[rbp]
	add	rcx, rax
	mov	rax, rcx
	mov	ecx, 8
	imul	rcx, rcx, 0
	mov	edx, 8
	imul	rdx, rdx, 0
	mov	r9, rax
	mov	rax, QWORD PTR yp$[rbp]
	mov	r8, QWORD PTR [rax+rcx]
	mov	rax, QWORD PTR xp$[rbp]
	mov	rdx, QWORD PTR [rax+rdx]
	movzx	ecx, BYTE PTR c$[rbp]
	call	_SUBTRUCT_UNIT
	mov	BYTE PTR c$[rbp], al

; 3457 :     c = _SUBTRUCT_UNIT(c, xp[1], yp[1], &zp[1]);

	mov	eax, 8
	imul	rax, rax, 1
	mov	rcx, QWORD PTR zp$[rbp]
	add	rcx, rax
	mov	rax, rcx
	mov	ecx, 8
	imul	rcx, rcx, 1
	mov	edx, 8
	imul	rdx, rdx, 1
	mov	r9, rax
	mov	rax, QWORD PTR yp$[rbp]
	mov	r8, QWORD PTR [rax+rcx]
	mov	rax, QWORD PTR xp$[rbp]
	mov	rdx, QWORD PTR [rax+rdx]
	movzx	ecx, BYTE PTR c$[rbp]
	call	_SUBTRUCT_UNIT
	mov	BYTE PTR c$[rbp], al

; 3458 :     c = _SUBTRUCT_UNIT(c, xp[2], yp[2], &zp[2]);

	mov	eax, 8
	imul	rax, rax, 2
	mov	rcx, QWORD PTR zp$[rbp]
	add	rcx, rax
	mov	rax, rcx
	mov	ecx, 8
	imul	rcx, rcx, 2
	mov	edx, 8
	imul	rdx, rdx, 2
	mov	r9, rax
	mov	rax, QWORD PTR yp$[rbp]
	mov	r8, QWORD PTR [rax+rcx]
	mov	rax, QWORD PTR xp$[rbp]
	mov	rdx, QWORD PTR [rax+rdx]
	movzx	ecx, BYTE PTR c$[rbp]
	call	_SUBTRUCT_UNIT
	mov	BYTE PTR c$[rbp], al

; 3459 :     c = _SUBTRUCT_UNIT(c, xp[3], yp[3], &zp[3]);

	mov	eax, 8
	imul	rax, rax, 3
	mov	rcx, QWORD PTR zp$[rbp]
	add	rcx, rax
	mov	rax, rcx
	mov	ecx, 8
	imul	rcx, rcx, 3
	mov	edx, 8
	imul	rdx, rdx, 3
	mov	r9, rax
	mov	rax, QWORD PTR yp$[rbp]
	mov	r8, QWORD PTR [rax+rcx]
	mov	rax, QWORD PTR xp$[rbp]
	mov	rdx, QWORD PTR [rax+rdx]
	movzx	ecx, BYTE PTR c$[rbp]
	call	_SUBTRUCT_UNIT
	mov	BYTE PTR c$[rbp], al

; 3460 :     c = _SUBTRUCT_UNIT(c, xp[4], yp[4], &zp[4]);

	mov	eax, 8
	imul	rax, rax, 4
	mov	rcx, QWORD PTR zp$[rbp]
	add	rcx, rax
	mov	rax, rcx
	mov	ecx, 8
	imul	rcx, rcx, 4
	mov	edx, 8
	imul	rdx, rdx, 4
	mov	r9, rax
	mov	rax, QWORD PTR yp$[rbp]
	mov	r8, QWORD PTR [rax+rcx]
	mov	rax, QWORD PTR xp$[rbp]
	mov	rdx, QWORD PTR [rax+rdx]
	movzx	ecx, BYTE PTR c$[rbp]
	call	_SUBTRUCT_UNIT
	mov	BYTE PTR c$[rbp], al

; 3461 :     c = _SUBTRUCT_UNIT(c, xp[5], yp[5], &zp[5]);

	mov	eax, 8
	imul	rax, rax, 5
	mov	rcx, QWORD PTR zp$[rbp]
	add	rcx, rax
	mov	rax, rcx
	mov	ecx, 8
	imul	rcx, rcx, 5
	mov	edx, 8
	imul	rdx, rdx, 5
	mov	r9, rax
	mov	rax, QWORD PTR yp$[rbp]
	mov	r8, QWORD PTR [rax+rcx]
	mov	rax, QWORD PTR xp$[rbp]
	mov	rdx, QWORD PTR [rax+rdx]
	movzx	ecx, BYTE PTR c$[rbp]
	call	_SUBTRUCT_UNIT
	mov	BYTE PTR c$[rbp], al

; 3462 :     c = _SUBTRUCT_UNIT(c, xp[6], yp[6], &zp[6]);

	mov	eax, 8
	imul	rax, rax, 6
	mov	rcx, QWORD PTR zp$[rbp]
	add	rcx, rax
	mov	rax, rcx
	mov	ecx, 8
	imul	rcx, rcx, 6
	mov	edx, 8
	imul	rdx, rdx, 6
	mov	r9, rax
	mov	rax, QWORD PTR yp$[rbp]
	mov	r8, QWORD PTR [rax+rcx]
	mov	rax, QWORD PTR xp$[rbp]
	mov	rdx, QWORD PTR [rax+rdx]
	movzx	ecx, BYTE PTR c$[rbp]
	call	_SUBTRUCT_UNIT
	mov	BYTE PTR c$[rbp], al

; 3463 :     c = _SUBTRUCT_UNIT(c, xp[7], yp[7], &zp[7]);

	mov	eax, 8
	imul	rax, rax, 7
	mov	rcx, QWORD PTR zp$[rbp]
	add	rcx, rax
	mov	rax, rcx
	mov	ecx, 8
	imul	rcx, rcx, 7
	mov	edx, 8
	imul	rdx, rdx, 7
	mov	r9, rax
	mov	rax, QWORD PTR yp$[rbp]
	mov	r8, QWORD PTR [rax+rcx]
	mov	rax, QWORD PTR xp$[rbp]
	mov	rdx, QWORD PTR [rax+rdx]
	movzx	ecx, BYTE PTR c$[rbp]
	call	_SUBTRUCT_UNIT
	mov	BYTE PTR c$[rbp], al

; 3464 : #elif defined(__GNUC__)
; 3465 : #ifdef _M_IX86
; 3466 :     __asm__ volatile (
; 3467 :         "addb\t$-1, %0\n\t"
; 3468 :         "movl\t(%1), %%ecx\n\t"
; 3469 :         "sbbl\t(%2), %%ecx\n\t"
; 3470 :         "movl\t%%ecx, (%3)\n\t"
; 3471 :         "movl\t4(%1), %%ecx\n\t"
; 3472 :         "sbbl\t4(%2), %%ecx\n\t"
; 3473 :         "movl\t%%ecx, 4(%3)\n\t"
; 3474 :         "movl\t8(%1), %%ecx\n\t"
; 3475 :         "sbbl\t8(%2), %%ecx\n\t"
; 3476 :         "movl\t%%ecx, 8(%3)\n\t"
; 3477 :         "movl\t12(%1), %%ecx\n\t"
; 3478 :         "sbbl\t12(%2), %%ecx\n\t"
; 3479 :         "movl\t%%ecx, 12(%3)\n\t"
; 3480 :         "movl\t16(%1), %%ecx\n\t"
; 3481 :         "sbbl\t16(%2), %%ecx\n\t"
; 3482 :         "movl\t%%ecx, 16(%3)\n\t"
; 3483 :         "movl\t20(%1), %%ecx\n\t"
; 3484 :         "sbbl\t20(%2), %%ecx\n\t"
; 3485 :         "movl\t%%ecx, 20(%3)\n\t"
; 3486 :         "movl\t24(%1), %%ecx\n\t"
; 3487 :         "sbbl\t24(%2), %%ecx\n\t"
; 3488 :         "movl\t%%ecx, 24(%3)\n\t"
; 3489 :         "movl\t28(%1), %%ecx\n\t"
; 3490 :         "sbbl\t28(%2), %%ecx\n\t"
; 3491 :         "movl\t%%ecx, 28(%3)\n\t"
; 3492 :         "setc\t%0"
; 3493 :         : "+r"(c), "+r"(xp), "+r"(yp), "+r"(zp)
; 3494 :         :
; 3495 :         : "cc", "memory", "%ecx"
; 3496 : );
; 3497 : #elif defined(_M_IX64)
; 3498 :     __asm__ volatile (
; 3499 :         "addb\t$-1, %0\n\t"
; 3500 :         "movq\t(%1), %%rcx\n\t"
; 3501 :         "sbbq\t(%2), %%rcx\n\t"
; 3502 :         "movq\t%%rcx, (%3)\n\t"
; 3503 :         "movq\t8(%1), %%rcx\n\t"
; 3504 :         "sbbq\t8(%2), %%rcx\n\t"
; 3505 :         "movq\t%%rcx, 8(%3)\n\t"
; 3506 :         "movq\t16(%1), %%rcx\n\t"
; 3507 :         "sbbq\t16(%2), %%rcx\n\t"
; 3508 :         "movq\t%%rcx, 16(%3)\n\t"
; 3509 :         "movq\t24(%1), %%rcx\n\t"
; 3510 :         "sbbq\t24(%2), %%rcx\n\t"
; 3511 :         "movq\t%%rcx, 24(%3)\n\t"
; 3512 :         "movq\t32(%1), %%rcx\n\t"
; 3513 :         "sbbq\t32(%2), %%rcx\n\t"
; 3514 :         "movq\t%%rcx, 32(%3)\n\t"
; 3515 :         "movq\t40(%1), %%rcx\n\t"
; 3516 :         "sbbq\t40(%2), %%rcx\n\t"
; 3517 :         "movq\t%%rcx, 40(%3)\n\t"
; 3518 :         "movq\t48(%1), %%rcx\n\t"
; 3519 :         "sbbq\t48(%2), %%rcx\n\t"
; 3520 :         "movq\t%%rcx, 48(%3)\n\t"
; 3521 :         "movq\t56(%1), %%rcx\n\t"
; 3522 :         "sbbq\t56(%2), %%rcx\n\t"
; 3523 :         "movq\t%%rcx, 56(%3)\n\t"
; 3524 :         "setc\t%0"
; 3525 :         : "+r"(c), "+r"(xp), "+r"(yp), "+r"(zp)
; 3526 :         :
; 3527 :         : "cc", "memory", "%rcx"
; 3528 : );
; 3529 : #else
; 3530 : #error unknown platform
; 3531 : #endif
; 3532 : #else
; 3533 : #error unknown compiler
; 3534 : #endif
; 3535 :     return (c);

	movzx	eax, BYTE PTR c$[rbp]

; 3536 : }

	lea	rsp, QWORD PTR [rbp+200]
	pop	rdi
	pop	rbp
	ret	0
_SUBTRUCT_8WORDS_SBB ENDP
_TEXT	ENDS
; Function compile flags: /Odtp /RTCsu /ZI
; File z:\sources\lunor\repos\rougemeilland\palmtree.math.core.uint\palmtree.math.core.uint\autogenerated_inline_func.h
;	COMDAT _SUBTRUCT_16WORDS_SBB
_TEXT	SEGMENT
c$ = 224
xp$ = 232
yp$ = 240
zp$ = 248
_SUBTRUCT_16WORDS_SBB PROC				; COMDAT

; 2494 : {

	mov	QWORD PTR [rsp+32], r9
	mov	QWORD PTR [rsp+24], r8
	mov	QWORD PTR [rsp+16], rdx
	mov	BYTE PTR [rsp+8], cl
	push	rbp
	push	rdi
	sub	rsp, 232				; 000000e8H
	lea	rbp, QWORD PTR [rsp+32]
	mov	rdi, rsp
	mov	ecx, 58					; 0000003aH
	mov	eax, -858993460				; ccccccccH
	rep stosd
	movzx	ecx, BYTE PTR [rsp+264]
	lea	rcx, OFFSET FLAT:__E05E7037_autogenerated_inline_func@h
	call	__CheckForDebuggerJustMyCode

; 2495 : #ifdef _MSC_VER
; 2496 :     c = _SUBTRUCT_UNIT(c, xp[0], yp[0], &zp[0]);

	mov	eax, 8
	imul	rax, rax, 0
	mov	rcx, QWORD PTR zp$[rbp]
	add	rcx, rax
	mov	rax, rcx
	mov	ecx, 8
	imul	rcx, rcx, 0
	mov	edx, 8
	imul	rdx, rdx, 0
	mov	r9, rax
	mov	rax, QWORD PTR yp$[rbp]
	mov	r8, QWORD PTR [rax+rcx]
	mov	rax, QWORD PTR xp$[rbp]
	mov	rdx, QWORD PTR [rax+rdx]
	movzx	ecx, BYTE PTR c$[rbp]
	call	_SUBTRUCT_UNIT
	mov	BYTE PTR c$[rbp], al

; 2497 :     c = _SUBTRUCT_UNIT(c, xp[1], yp[1], &zp[1]);

	mov	eax, 8
	imul	rax, rax, 1
	mov	rcx, QWORD PTR zp$[rbp]
	add	rcx, rax
	mov	rax, rcx
	mov	ecx, 8
	imul	rcx, rcx, 1
	mov	edx, 8
	imul	rdx, rdx, 1
	mov	r9, rax
	mov	rax, QWORD PTR yp$[rbp]
	mov	r8, QWORD PTR [rax+rcx]
	mov	rax, QWORD PTR xp$[rbp]
	mov	rdx, QWORD PTR [rax+rdx]
	movzx	ecx, BYTE PTR c$[rbp]
	call	_SUBTRUCT_UNIT
	mov	BYTE PTR c$[rbp], al

; 2498 :     c = _SUBTRUCT_UNIT(c, xp[2], yp[2], &zp[2]);

	mov	eax, 8
	imul	rax, rax, 2
	mov	rcx, QWORD PTR zp$[rbp]
	add	rcx, rax
	mov	rax, rcx
	mov	ecx, 8
	imul	rcx, rcx, 2
	mov	edx, 8
	imul	rdx, rdx, 2
	mov	r9, rax
	mov	rax, QWORD PTR yp$[rbp]
	mov	r8, QWORD PTR [rax+rcx]
	mov	rax, QWORD PTR xp$[rbp]
	mov	rdx, QWORD PTR [rax+rdx]
	movzx	ecx, BYTE PTR c$[rbp]
	call	_SUBTRUCT_UNIT
	mov	BYTE PTR c$[rbp], al

; 2499 :     c = _SUBTRUCT_UNIT(c, xp[3], yp[3], &zp[3]);

	mov	eax, 8
	imul	rax, rax, 3
	mov	rcx, QWORD PTR zp$[rbp]
	add	rcx, rax
	mov	rax, rcx
	mov	ecx, 8
	imul	rcx, rcx, 3
	mov	edx, 8
	imul	rdx, rdx, 3
	mov	r9, rax
	mov	rax, QWORD PTR yp$[rbp]
	mov	r8, QWORD PTR [rax+rcx]
	mov	rax, QWORD PTR xp$[rbp]
	mov	rdx, QWORD PTR [rax+rdx]
	movzx	ecx, BYTE PTR c$[rbp]
	call	_SUBTRUCT_UNIT
	mov	BYTE PTR c$[rbp], al

; 2500 :     c = _SUBTRUCT_UNIT(c, xp[4], yp[4], &zp[4]);

	mov	eax, 8
	imul	rax, rax, 4
	mov	rcx, QWORD PTR zp$[rbp]
	add	rcx, rax
	mov	rax, rcx
	mov	ecx, 8
	imul	rcx, rcx, 4
	mov	edx, 8
	imul	rdx, rdx, 4
	mov	r9, rax
	mov	rax, QWORD PTR yp$[rbp]
	mov	r8, QWORD PTR [rax+rcx]
	mov	rax, QWORD PTR xp$[rbp]
	mov	rdx, QWORD PTR [rax+rdx]
	movzx	ecx, BYTE PTR c$[rbp]
	call	_SUBTRUCT_UNIT
	mov	BYTE PTR c$[rbp], al

; 2501 :     c = _SUBTRUCT_UNIT(c, xp[5], yp[5], &zp[5]);

	mov	eax, 8
	imul	rax, rax, 5
	mov	rcx, QWORD PTR zp$[rbp]
	add	rcx, rax
	mov	rax, rcx
	mov	ecx, 8
	imul	rcx, rcx, 5
	mov	edx, 8
	imul	rdx, rdx, 5
	mov	r9, rax
	mov	rax, QWORD PTR yp$[rbp]
	mov	r8, QWORD PTR [rax+rcx]
	mov	rax, QWORD PTR xp$[rbp]
	mov	rdx, QWORD PTR [rax+rdx]
	movzx	ecx, BYTE PTR c$[rbp]
	call	_SUBTRUCT_UNIT
	mov	BYTE PTR c$[rbp], al

; 2502 :     c = _SUBTRUCT_UNIT(c, xp[6], yp[6], &zp[6]);

	mov	eax, 8
	imul	rax, rax, 6
	mov	rcx, QWORD PTR zp$[rbp]
	add	rcx, rax
	mov	rax, rcx
	mov	ecx, 8
	imul	rcx, rcx, 6
	mov	edx, 8
	imul	rdx, rdx, 6
	mov	r9, rax
	mov	rax, QWORD PTR yp$[rbp]
	mov	r8, QWORD PTR [rax+rcx]
	mov	rax, QWORD PTR xp$[rbp]
	mov	rdx, QWORD PTR [rax+rdx]
	movzx	ecx, BYTE PTR c$[rbp]
	call	_SUBTRUCT_UNIT
	mov	BYTE PTR c$[rbp], al

; 2503 :     c = _SUBTRUCT_UNIT(c, xp[7], yp[7], &zp[7]);

	mov	eax, 8
	imul	rax, rax, 7
	mov	rcx, QWORD PTR zp$[rbp]
	add	rcx, rax
	mov	rax, rcx
	mov	ecx, 8
	imul	rcx, rcx, 7
	mov	edx, 8
	imul	rdx, rdx, 7
	mov	r9, rax
	mov	rax, QWORD PTR yp$[rbp]
	mov	r8, QWORD PTR [rax+rcx]
	mov	rax, QWORD PTR xp$[rbp]
	mov	rdx, QWORD PTR [rax+rdx]
	movzx	ecx, BYTE PTR c$[rbp]
	call	_SUBTRUCT_UNIT
	mov	BYTE PTR c$[rbp], al

; 2504 :     c = _SUBTRUCT_UNIT(c, xp[8], yp[8], &zp[8]);

	mov	eax, 8
	imul	rax, rax, 8
	mov	rcx, QWORD PTR zp$[rbp]
	add	rcx, rax
	mov	rax, rcx
	mov	ecx, 8
	imul	rcx, rcx, 8
	mov	edx, 8
	imul	rdx, rdx, 8
	mov	r9, rax
	mov	rax, QWORD PTR yp$[rbp]
	mov	r8, QWORD PTR [rax+rcx]
	mov	rax, QWORD PTR xp$[rbp]
	mov	rdx, QWORD PTR [rax+rdx]
	movzx	ecx, BYTE PTR c$[rbp]
	call	_SUBTRUCT_UNIT
	mov	BYTE PTR c$[rbp], al

; 2505 :     c = _SUBTRUCT_UNIT(c, xp[9], yp[9], &zp[9]);

	mov	eax, 8
	imul	rax, rax, 9
	mov	rcx, QWORD PTR zp$[rbp]
	add	rcx, rax
	mov	rax, rcx
	mov	ecx, 8
	imul	rcx, rcx, 9
	mov	edx, 8
	imul	rdx, rdx, 9
	mov	r9, rax
	mov	rax, QWORD PTR yp$[rbp]
	mov	r8, QWORD PTR [rax+rcx]
	mov	rax, QWORD PTR xp$[rbp]
	mov	rdx, QWORD PTR [rax+rdx]
	movzx	ecx, BYTE PTR c$[rbp]
	call	_SUBTRUCT_UNIT
	mov	BYTE PTR c$[rbp], al

; 2506 :     c = _SUBTRUCT_UNIT(c, xp[10], yp[10], &zp[10]);

	mov	eax, 8
	imul	rax, rax, 10
	mov	rcx, QWORD PTR zp$[rbp]
	add	rcx, rax
	mov	rax, rcx
	mov	ecx, 8
	imul	rcx, rcx, 10
	mov	edx, 8
	imul	rdx, rdx, 10
	mov	r9, rax
	mov	rax, QWORD PTR yp$[rbp]
	mov	r8, QWORD PTR [rax+rcx]
	mov	rax, QWORD PTR xp$[rbp]
	mov	rdx, QWORD PTR [rax+rdx]
	movzx	ecx, BYTE PTR c$[rbp]
	call	_SUBTRUCT_UNIT
	mov	BYTE PTR c$[rbp], al

; 2507 :     c = _SUBTRUCT_UNIT(c, xp[11], yp[11], &zp[11]);

	mov	eax, 8
	imul	rax, rax, 11
	mov	rcx, QWORD PTR zp$[rbp]
	add	rcx, rax
	mov	rax, rcx
	mov	ecx, 8
	imul	rcx, rcx, 11
	mov	edx, 8
	imul	rdx, rdx, 11
	mov	r9, rax
	mov	rax, QWORD PTR yp$[rbp]
	mov	r8, QWORD PTR [rax+rcx]
	mov	rax, QWORD PTR xp$[rbp]
	mov	rdx, QWORD PTR [rax+rdx]
	movzx	ecx, BYTE PTR c$[rbp]
	call	_SUBTRUCT_UNIT
	mov	BYTE PTR c$[rbp], al

; 2508 :     c = _SUBTRUCT_UNIT(c, xp[12], yp[12], &zp[12]);

	mov	eax, 8
	imul	rax, rax, 12
	mov	rcx, QWORD PTR zp$[rbp]
	add	rcx, rax
	mov	rax, rcx
	mov	ecx, 8
	imul	rcx, rcx, 12
	mov	edx, 8
	imul	rdx, rdx, 12
	mov	r9, rax
	mov	rax, QWORD PTR yp$[rbp]
	mov	r8, QWORD PTR [rax+rcx]
	mov	rax, QWORD PTR xp$[rbp]
	mov	rdx, QWORD PTR [rax+rdx]
	movzx	ecx, BYTE PTR c$[rbp]
	call	_SUBTRUCT_UNIT
	mov	BYTE PTR c$[rbp], al

; 2509 :     c = _SUBTRUCT_UNIT(c, xp[13], yp[13], &zp[13]);

	mov	eax, 8
	imul	rax, rax, 13
	mov	rcx, QWORD PTR zp$[rbp]
	add	rcx, rax
	mov	rax, rcx
	mov	ecx, 8
	imul	rcx, rcx, 13
	mov	edx, 8
	imul	rdx, rdx, 13
	mov	r9, rax
	mov	rax, QWORD PTR yp$[rbp]
	mov	r8, QWORD PTR [rax+rcx]
	mov	rax, QWORD PTR xp$[rbp]
	mov	rdx, QWORD PTR [rax+rdx]
	movzx	ecx, BYTE PTR c$[rbp]
	call	_SUBTRUCT_UNIT
	mov	BYTE PTR c$[rbp], al

; 2510 :     c = _SUBTRUCT_UNIT(c, xp[14], yp[14], &zp[14]);

	mov	eax, 8
	imul	rax, rax, 14
	mov	rcx, QWORD PTR zp$[rbp]
	add	rcx, rax
	mov	rax, rcx
	mov	ecx, 8
	imul	rcx, rcx, 14
	mov	edx, 8
	imul	rdx, rdx, 14
	mov	r9, rax
	mov	rax, QWORD PTR yp$[rbp]
	mov	r8, QWORD PTR [rax+rcx]
	mov	rax, QWORD PTR xp$[rbp]
	mov	rdx, QWORD PTR [rax+rdx]
	movzx	ecx, BYTE PTR c$[rbp]
	call	_SUBTRUCT_UNIT
	mov	BYTE PTR c$[rbp], al

; 2511 :     c = _SUBTRUCT_UNIT(c, xp[15], yp[15], &zp[15]);

	mov	eax, 8
	imul	rax, rax, 15
	mov	rcx, QWORD PTR zp$[rbp]
	add	rcx, rax
	mov	rax, rcx
	mov	ecx, 8
	imul	rcx, rcx, 15
	mov	edx, 8
	imul	rdx, rdx, 15
	mov	r9, rax
	mov	rax, QWORD PTR yp$[rbp]
	mov	r8, QWORD PTR [rax+rcx]
	mov	rax, QWORD PTR xp$[rbp]
	mov	rdx, QWORD PTR [rax+rdx]
	movzx	ecx, BYTE PTR c$[rbp]
	call	_SUBTRUCT_UNIT
	mov	BYTE PTR c$[rbp], al

; 2512 : #elif defined(__GNUC__)
; 2513 : #ifdef _M_IX86
; 2514 :     __asm__ volatile (
; 2515 :         "addb\t$-1, %0\n\t"
; 2516 :         "movl\t(%1), %%ecx\n\t"
; 2517 :         "sbbl\t(%2), %%ecx\n\t"
; 2518 :         "movl\t%%ecx, (%3)\n\t"
; 2519 :         "movl\t4(%1), %%ecx\n\t"
; 2520 :         "sbbl\t4(%2), %%ecx\n\t"
; 2521 :         "movl\t%%ecx, 4(%3)\n\t"
; 2522 :         "movl\t8(%1), %%ecx\n\t"
; 2523 :         "sbbl\t8(%2), %%ecx\n\t"
; 2524 :         "movl\t%%ecx, 8(%3)\n\t"
; 2525 :         "movl\t12(%1), %%ecx\n\t"
; 2526 :         "sbbl\t12(%2), %%ecx\n\t"
; 2527 :         "movl\t%%ecx, 12(%3)\n\t"
; 2528 :         "movl\t16(%1), %%ecx\n\t"
; 2529 :         "sbbl\t16(%2), %%ecx\n\t"
; 2530 :         "movl\t%%ecx, 16(%3)\n\t"
; 2531 :         "movl\t20(%1), %%ecx\n\t"
; 2532 :         "sbbl\t20(%2), %%ecx\n\t"
; 2533 :         "movl\t%%ecx, 20(%3)\n\t"
; 2534 :         "movl\t24(%1), %%ecx\n\t"
; 2535 :         "sbbl\t24(%2), %%ecx\n\t"
; 2536 :         "movl\t%%ecx, 24(%3)\n\t"
; 2537 :         "movl\t28(%1), %%ecx\n\t"
; 2538 :         "sbbl\t28(%2), %%ecx\n\t"
; 2539 :         "movl\t%%ecx, 28(%3)\n\t"
; 2540 :         "movl\t32(%1), %%ecx\n\t"
; 2541 :         "sbbl\t32(%2), %%ecx\n\t"
; 2542 :         "movl\t%%ecx, 32(%3)\n\t"
; 2543 :         "movl\t36(%1), %%ecx\n\t"
; 2544 :         "sbbl\t36(%2), %%ecx\n\t"
; 2545 :         "movl\t%%ecx, 36(%3)\n\t"
; 2546 :         "movl\t40(%1), %%ecx\n\t"
; 2547 :         "sbbl\t40(%2), %%ecx\n\t"
; 2548 :         "movl\t%%ecx, 40(%3)\n\t"
; 2549 :         "movl\t44(%1), %%ecx\n\t"
; 2550 :         "sbbl\t44(%2), %%ecx\n\t"
; 2551 :         "movl\t%%ecx, 44(%3)\n\t"
; 2552 :         "movl\t48(%1), %%ecx\n\t"
; 2553 :         "sbbl\t48(%2), %%ecx\n\t"
; 2554 :         "movl\t%%ecx, 48(%3)\n\t"
; 2555 :         "movl\t52(%1), %%ecx\n\t"
; 2556 :         "sbbl\t52(%2), %%ecx\n\t"
; 2557 :         "movl\t%%ecx, 52(%3)\n\t"
; 2558 :         "movl\t56(%1), %%ecx\n\t"
; 2559 :         "sbbl\t56(%2), %%ecx\n\t"
; 2560 :         "movl\t%%ecx, 56(%3)\n\t"
; 2561 :         "movl\t60(%1), %%ecx\n\t"
; 2562 :         "sbbl\t60(%2), %%ecx\n\t"
; 2563 :         "movl\t%%ecx, 60(%3)\n\t"
; 2564 :         "setc\t%0"
; 2565 :         : "+r"(c), "+r"(xp), "+r"(yp), "+r"(zp)
; 2566 :         :
; 2567 :         : "cc", "memory", "%ecx"
; 2568 : );
; 2569 : #elif defined(_M_IX64)
; 2570 :     __asm__ volatile (
; 2571 :         "addb\t$-1, %0\n\t"
; 2572 :         "movq\t(%1), %%rcx\n\t"
; 2573 :         "sbbq\t(%2), %%rcx\n\t"
; 2574 :         "movq\t%%rcx, (%3)\n\t"
; 2575 :         "movq\t8(%1), %%rcx\n\t"
; 2576 :         "sbbq\t8(%2), %%rcx\n\t"
; 2577 :         "movq\t%%rcx, 8(%3)\n\t"
; 2578 :         "movq\t16(%1), %%rcx\n\t"
; 2579 :         "sbbq\t16(%2), %%rcx\n\t"
; 2580 :         "movq\t%%rcx, 16(%3)\n\t"
; 2581 :         "movq\t24(%1), %%rcx\n\t"
; 2582 :         "sbbq\t24(%2), %%rcx\n\t"
; 2583 :         "movq\t%%rcx, 24(%3)\n\t"
; 2584 :         "movq\t32(%1), %%rcx\n\t"
; 2585 :         "sbbq\t32(%2), %%rcx\n\t"
; 2586 :         "movq\t%%rcx, 32(%3)\n\t"
; 2587 :         "movq\t40(%1), %%rcx\n\t"
; 2588 :         "sbbq\t40(%2), %%rcx\n\t"
; 2589 :         "movq\t%%rcx, 40(%3)\n\t"
; 2590 :         "movq\t48(%1), %%rcx\n\t"
; 2591 :         "sbbq\t48(%2), %%rcx\n\t"
; 2592 :         "movq\t%%rcx, 48(%3)\n\t"
; 2593 :         "movq\t56(%1), %%rcx\n\t"
; 2594 :         "sbbq\t56(%2), %%rcx\n\t"
; 2595 :         "movq\t%%rcx, 56(%3)\n\t"
; 2596 :         "movq\t64(%1), %%rcx\n\t"
; 2597 :         "sbbq\t64(%2), %%rcx\n\t"
; 2598 :         "movq\t%%rcx, 64(%3)\n\t"
; 2599 :         "movq\t72(%1), %%rcx\n\t"
; 2600 :         "sbbq\t72(%2), %%rcx\n\t"
; 2601 :         "movq\t%%rcx, 72(%3)\n\t"
; 2602 :         "movq\t80(%1), %%rcx\n\t"
; 2603 :         "sbbq\t80(%2), %%rcx\n\t"
; 2604 :         "movq\t%%rcx, 80(%3)\n\t"
; 2605 :         "movq\t88(%1), %%rcx\n\t"
; 2606 :         "sbbq\t88(%2), %%rcx\n\t"
; 2607 :         "movq\t%%rcx, 88(%3)\n\t"
; 2608 :         "movq\t96(%1), %%rcx\n\t"
; 2609 :         "sbbq\t96(%2), %%rcx\n\t"
; 2610 :         "movq\t%%rcx, 96(%3)\n\t"
; 2611 :         "movq\t104(%1), %%rcx\n\t"
; 2612 :         "sbbq\t104(%2), %%rcx\n\t"
; 2613 :         "movq\t%%rcx, 104(%3)\n\t"
; 2614 :         "movq\t112(%1), %%rcx\n\t"
; 2615 :         "sbbq\t112(%2), %%rcx\n\t"
; 2616 :         "movq\t%%rcx, 112(%3)\n\t"
; 2617 :         "movq\t120(%1), %%rcx\n\t"
; 2618 :         "sbbq\t120(%2), %%rcx\n\t"
; 2619 :         "movq\t%%rcx, 120(%3)\n\t"
; 2620 :         "setc\t%0"
; 2621 :         : "+r"(c), "+r"(xp), "+r"(yp), "+r"(zp)
; 2622 :         :
; 2623 :         : "cc", "memory", "%rcx"
; 2624 : );
; 2625 : #else
; 2626 : #error unknown platform
; 2627 : #endif
; 2628 : #else
; 2629 : #error unknown compiler
; 2630 : #endif
; 2631 :     return (c);

	movzx	eax, BYTE PTR c$[rbp]

; 2632 : }

	lea	rsp, QWORD PTR [rbp+200]
	pop	rdi
	pop	rbp
	ret	0
_SUBTRUCT_16WORDS_SBB ENDP
_TEXT	ENDS
; Function compile flags: /Odtp /RTCsu /ZI
; File z:\sources\lunor\repos\rougemeilland\palmtree.math.core.uint\palmtree.math.core.uint\autogenerated_inline_func.h
;	COMDAT _SUBTRUCT_32WORDS_SBB
_TEXT	SEGMENT
c$ = 224
xp$ = 232
yp$ = 240
zp$ = 248
_SUBTRUCT_32WORDS_SBB PROC				; COMDAT

; 806  : {

	mov	QWORD PTR [rsp+32], r9
	mov	QWORD PTR [rsp+24], r8
	mov	QWORD PTR [rsp+16], rdx
	mov	BYTE PTR [rsp+8], cl
	push	rbp
	push	rdi
	sub	rsp, 232				; 000000e8H
	lea	rbp, QWORD PTR [rsp+32]
	mov	rdi, rsp
	mov	ecx, 58					; 0000003aH
	mov	eax, -858993460				; ccccccccH
	rep stosd
	movzx	ecx, BYTE PTR [rsp+264]
	lea	rcx, OFFSET FLAT:__E05E7037_autogenerated_inline_func@h
	call	__CheckForDebuggerJustMyCode

; 807  : #ifdef _MSC_VER
; 808  :     c = _SUBTRUCT_UNIT(c, xp[0], yp[0], &zp[0]);

	mov	eax, 8
	imul	rax, rax, 0
	mov	rcx, QWORD PTR zp$[rbp]
	add	rcx, rax
	mov	rax, rcx
	mov	ecx, 8
	imul	rcx, rcx, 0
	mov	edx, 8
	imul	rdx, rdx, 0
	mov	r9, rax
	mov	rax, QWORD PTR yp$[rbp]
	mov	r8, QWORD PTR [rax+rcx]
	mov	rax, QWORD PTR xp$[rbp]
	mov	rdx, QWORD PTR [rax+rdx]
	movzx	ecx, BYTE PTR c$[rbp]
	call	_SUBTRUCT_UNIT
	mov	BYTE PTR c$[rbp], al

; 809  :     c = _SUBTRUCT_UNIT(c, xp[1], yp[1], &zp[1]);

	mov	eax, 8
	imul	rax, rax, 1
	mov	rcx, QWORD PTR zp$[rbp]
	add	rcx, rax
	mov	rax, rcx
	mov	ecx, 8
	imul	rcx, rcx, 1
	mov	edx, 8
	imul	rdx, rdx, 1
	mov	r9, rax
	mov	rax, QWORD PTR yp$[rbp]
	mov	r8, QWORD PTR [rax+rcx]
	mov	rax, QWORD PTR xp$[rbp]
	mov	rdx, QWORD PTR [rax+rdx]
	movzx	ecx, BYTE PTR c$[rbp]
	call	_SUBTRUCT_UNIT
	mov	BYTE PTR c$[rbp], al

; 810  :     c = _SUBTRUCT_UNIT(c, xp[2], yp[2], &zp[2]);

	mov	eax, 8
	imul	rax, rax, 2
	mov	rcx, QWORD PTR zp$[rbp]
	add	rcx, rax
	mov	rax, rcx
	mov	ecx, 8
	imul	rcx, rcx, 2
	mov	edx, 8
	imul	rdx, rdx, 2
	mov	r9, rax
	mov	rax, QWORD PTR yp$[rbp]
	mov	r8, QWORD PTR [rax+rcx]
	mov	rax, QWORD PTR xp$[rbp]
	mov	rdx, QWORD PTR [rax+rdx]
	movzx	ecx, BYTE PTR c$[rbp]
	call	_SUBTRUCT_UNIT
	mov	BYTE PTR c$[rbp], al

; 811  :     c = _SUBTRUCT_UNIT(c, xp[3], yp[3], &zp[3]);

	mov	eax, 8
	imul	rax, rax, 3
	mov	rcx, QWORD PTR zp$[rbp]
	add	rcx, rax
	mov	rax, rcx
	mov	ecx, 8
	imul	rcx, rcx, 3
	mov	edx, 8
	imul	rdx, rdx, 3
	mov	r9, rax
	mov	rax, QWORD PTR yp$[rbp]
	mov	r8, QWORD PTR [rax+rcx]
	mov	rax, QWORD PTR xp$[rbp]
	mov	rdx, QWORD PTR [rax+rdx]
	movzx	ecx, BYTE PTR c$[rbp]
	call	_SUBTRUCT_UNIT
	mov	BYTE PTR c$[rbp], al

; 812  :     c = _SUBTRUCT_UNIT(c, xp[4], yp[4], &zp[4]);

	mov	eax, 8
	imul	rax, rax, 4
	mov	rcx, QWORD PTR zp$[rbp]
	add	rcx, rax
	mov	rax, rcx
	mov	ecx, 8
	imul	rcx, rcx, 4
	mov	edx, 8
	imul	rdx, rdx, 4
	mov	r9, rax
	mov	rax, QWORD PTR yp$[rbp]
	mov	r8, QWORD PTR [rax+rcx]
	mov	rax, QWORD PTR xp$[rbp]
	mov	rdx, QWORD PTR [rax+rdx]
	movzx	ecx, BYTE PTR c$[rbp]
	call	_SUBTRUCT_UNIT
	mov	BYTE PTR c$[rbp], al

; 813  :     c = _SUBTRUCT_UNIT(c, xp[5], yp[5], &zp[5]);

	mov	eax, 8
	imul	rax, rax, 5
	mov	rcx, QWORD PTR zp$[rbp]
	add	rcx, rax
	mov	rax, rcx
	mov	ecx, 8
	imul	rcx, rcx, 5
	mov	edx, 8
	imul	rdx, rdx, 5
	mov	r9, rax
	mov	rax, QWORD PTR yp$[rbp]
	mov	r8, QWORD PTR [rax+rcx]
	mov	rax, QWORD PTR xp$[rbp]
	mov	rdx, QWORD PTR [rax+rdx]
	movzx	ecx, BYTE PTR c$[rbp]
	call	_SUBTRUCT_UNIT
	mov	BYTE PTR c$[rbp], al

; 814  :     c = _SUBTRUCT_UNIT(c, xp[6], yp[6], &zp[6]);

	mov	eax, 8
	imul	rax, rax, 6
	mov	rcx, QWORD PTR zp$[rbp]
	add	rcx, rax
	mov	rax, rcx
	mov	ecx, 8
	imul	rcx, rcx, 6
	mov	edx, 8
	imul	rdx, rdx, 6
	mov	r9, rax
	mov	rax, QWORD PTR yp$[rbp]
	mov	r8, QWORD PTR [rax+rcx]
	mov	rax, QWORD PTR xp$[rbp]
	mov	rdx, QWORD PTR [rax+rdx]
	movzx	ecx, BYTE PTR c$[rbp]
	call	_SUBTRUCT_UNIT
	mov	BYTE PTR c$[rbp], al

; 815  :     c = _SUBTRUCT_UNIT(c, xp[7], yp[7], &zp[7]);

	mov	eax, 8
	imul	rax, rax, 7
	mov	rcx, QWORD PTR zp$[rbp]
	add	rcx, rax
	mov	rax, rcx
	mov	ecx, 8
	imul	rcx, rcx, 7
	mov	edx, 8
	imul	rdx, rdx, 7
	mov	r9, rax
	mov	rax, QWORD PTR yp$[rbp]
	mov	r8, QWORD PTR [rax+rcx]
	mov	rax, QWORD PTR xp$[rbp]
	mov	rdx, QWORD PTR [rax+rdx]
	movzx	ecx, BYTE PTR c$[rbp]
	call	_SUBTRUCT_UNIT
	mov	BYTE PTR c$[rbp], al

; 816  :     c = _SUBTRUCT_UNIT(c, xp[8], yp[8], &zp[8]);

	mov	eax, 8
	imul	rax, rax, 8
	mov	rcx, QWORD PTR zp$[rbp]
	add	rcx, rax
	mov	rax, rcx
	mov	ecx, 8
	imul	rcx, rcx, 8
	mov	edx, 8
	imul	rdx, rdx, 8
	mov	r9, rax
	mov	rax, QWORD PTR yp$[rbp]
	mov	r8, QWORD PTR [rax+rcx]
	mov	rax, QWORD PTR xp$[rbp]
	mov	rdx, QWORD PTR [rax+rdx]
	movzx	ecx, BYTE PTR c$[rbp]
	call	_SUBTRUCT_UNIT
	mov	BYTE PTR c$[rbp], al

; 817  :     c = _SUBTRUCT_UNIT(c, xp[9], yp[9], &zp[9]);

	mov	eax, 8
	imul	rax, rax, 9
	mov	rcx, QWORD PTR zp$[rbp]
	add	rcx, rax
	mov	rax, rcx
	mov	ecx, 8
	imul	rcx, rcx, 9
	mov	edx, 8
	imul	rdx, rdx, 9
	mov	r9, rax
	mov	rax, QWORD PTR yp$[rbp]
	mov	r8, QWORD PTR [rax+rcx]
	mov	rax, QWORD PTR xp$[rbp]
	mov	rdx, QWORD PTR [rax+rdx]
	movzx	ecx, BYTE PTR c$[rbp]
	call	_SUBTRUCT_UNIT
	mov	BYTE PTR c$[rbp], al

; 818  :     c = _SUBTRUCT_UNIT(c, xp[10], yp[10], &zp[10]);

	mov	eax, 8
	imul	rax, rax, 10
	mov	rcx, QWORD PTR zp$[rbp]
	add	rcx, rax
	mov	rax, rcx
	mov	ecx, 8
	imul	rcx, rcx, 10
	mov	edx, 8
	imul	rdx, rdx, 10
	mov	r9, rax
	mov	rax, QWORD PTR yp$[rbp]
	mov	r8, QWORD PTR [rax+rcx]
	mov	rax, QWORD PTR xp$[rbp]
	mov	rdx, QWORD PTR [rax+rdx]
	movzx	ecx, BYTE PTR c$[rbp]
	call	_SUBTRUCT_UNIT
	mov	BYTE PTR c$[rbp], al

; 819  :     c = _SUBTRUCT_UNIT(c, xp[11], yp[11], &zp[11]);

	mov	eax, 8
	imul	rax, rax, 11
	mov	rcx, QWORD PTR zp$[rbp]
	add	rcx, rax
	mov	rax, rcx
	mov	ecx, 8
	imul	rcx, rcx, 11
	mov	edx, 8
	imul	rdx, rdx, 11
	mov	r9, rax
	mov	rax, QWORD PTR yp$[rbp]
	mov	r8, QWORD PTR [rax+rcx]
	mov	rax, QWORD PTR xp$[rbp]
	mov	rdx, QWORD PTR [rax+rdx]
	movzx	ecx, BYTE PTR c$[rbp]
	call	_SUBTRUCT_UNIT
	mov	BYTE PTR c$[rbp], al

; 820  :     c = _SUBTRUCT_UNIT(c, xp[12], yp[12], &zp[12]);

	mov	eax, 8
	imul	rax, rax, 12
	mov	rcx, QWORD PTR zp$[rbp]
	add	rcx, rax
	mov	rax, rcx
	mov	ecx, 8
	imul	rcx, rcx, 12
	mov	edx, 8
	imul	rdx, rdx, 12
	mov	r9, rax
	mov	rax, QWORD PTR yp$[rbp]
	mov	r8, QWORD PTR [rax+rcx]
	mov	rax, QWORD PTR xp$[rbp]
	mov	rdx, QWORD PTR [rax+rdx]
	movzx	ecx, BYTE PTR c$[rbp]
	call	_SUBTRUCT_UNIT
	mov	BYTE PTR c$[rbp], al

; 821  :     c = _SUBTRUCT_UNIT(c, xp[13], yp[13], &zp[13]);

	mov	eax, 8
	imul	rax, rax, 13
	mov	rcx, QWORD PTR zp$[rbp]
	add	rcx, rax
	mov	rax, rcx
	mov	ecx, 8
	imul	rcx, rcx, 13
	mov	edx, 8
	imul	rdx, rdx, 13
	mov	r9, rax
	mov	rax, QWORD PTR yp$[rbp]
	mov	r8, QWORD PTR [rax+rcx]
	mov	rax, QWORD PTR xp$[rbp]
	mov	rdx, QWORD PTR [rax+rdx]
	movzx	ecx, BYTE PTR c$[rbp]
	call	_SUBTRUCT_UNIT
	mov	BYTE PTR c$[rbp], al

; 822  :     c = _SUBTRUCT_UNIT(c, xp[14], yp[14], &zp[14]);

	mov	eax, 8
	imul	rax, rax, 14
	mov	rcx, QWORD PTR zp$[rbp]
	add	rcx, rax
	mov	rax, rcx
	mov	ecx, 8
	imul	rcx, rcx, 14
	mov	edx, 8
	imul	rdx, rdx, 14
	mov	r9, rax
	mov	rax, QWORD PTR yp$[rbp]
	mov	r8, QWORD PTR [rax+rcx]
	mov	rax, QWORD PTR xp$[rbp]
	mov	rdx, QWORD PTR [rax+rdx]
	movzx	ecx, BYTE PTR c$[rbp]
	call	_SUBTRUCT_UNIT
	mov	BYTE PTR c$[rbp], al

; 823  :     c = _SUBTRUCT_UNIT(c, xp[15], yp[15], &zp[15]);

	mov	eax, 8
	imul	rax, rax, 15
	mov	rcx, QWORD PTR zp$[rbp]
	add	rcx, rax
	mov	rax, rcx
	mov	ecx, 8
	imul	rcx, rcx, 15
	mov	edx, 8
	imul	rdx, rdx, 15
	mov	r9, rax
	mov	rax, QWORD PTR yp$[rbp]
	mov	r8, QWORD PTR [rax+rcx]
	mov	rax, QWORD PTR xp$[rbp]
	mov	rdx, QWORD PTR [rax+rdx]
	movzx	ecx, BYTE PTR c$[rbp]
	call	_SUBTRUCT_UNIT
	mov	BYTE PTR c$[rbp], al

; 824  :     c = _SUBTRUCT_UNIT(c, xp[16], yp[16], &zp[16]);

	mov	eax, 8
	imul	rax, rax, 16
	mov	rcx, QWORD PTR zp$[rbp]
	add	rcx, rax
	mov	rax, rcx
	mov	ecx, 8
	imul	rcx, rcx, 16
	mov	edx, 8
	imul	rdx, rdx, 16
	mov	r9, rax
	mov	rax, QWORD PTR yp$[rbp]
	mov	r8, QWORD PTR [rax+rcx]
	mov	rax, QWORD PTR xp$[rbp]
	mov	rdx, QWORD PTR [rax+rdx]
	movzx	ecx, BYTE PTR c$[rbp]
	call	_SUBTRUCT_UNIT
	mov	BYTE PTR c$[rbp], al

; 825  :     c = _SUBTRUCT_UNIT(c, xp[17], yp[17], &zp[17]);

	mov	eax, 8
	imul	rax, rax, 17
	mov	rcx, QWORD PTR zp$[rbp]
	add	rcx, rax
	mov	rax, rcx
	mov	ecx, 8
	imul	rcx, rcx, 17
	mov	edx, 8
	imul	rdx, rdx, 17
	mov	r9, rax
	mov	rax, QWORD PTR yp$[rbp]
	mov	r8, QWORD PTR [rax+rcx]
	mov	rax, QWORD PTR xp$[rbp]
	mov	rdx, QWORD PTR [rax+rdx]
	movzx	ecx, BYTE PTR c$[rbp]
	call	_SUBTRUCT_UNIT
	mov	BYTE PTR c$[rbp], al

; 826  :     c = _SUBTRUCT_UNIT(c, xp[18], yp[18], &zp[18]);

	mov	eax, 8
	imul	rax, rax, 18
	mov	rcx, QWORD PTR zp$[rbp]
	add	rcx, rax
	mov	rax, rcx
	mov	ecx, 8
	imul	rcx, rcx, 18
	mov	edx, 8
	imul	rdx, rdx, 18
	mov	r9, rax
	mov	rax, QWORD PTR yp$[rbp]
	mov	r8, QWORD PTR [rax+rcx]
	mov	rax, QWORD PTR xp$[rbp]
	mov	rdx, QWORD PTR [rax+rdx]
	movzx	ecx, BYTE PTR c$[rbp]
	call	_SUBTRUCT_UNIT
	mov	BYTE PTR c$[rbp], al

; 827  :     c = _SUBTRUCT_UNIT(c, xp[19], yp[19], &zp[19]);

	mov	eax, 8
	imul	rax, rax, 19
	mov	rcx, QWORD PTR zp$[rbp]
	add	rcx, rax
	mov	rax, rcx
	mov	ecx, 8
	imul	rcx, rcx, 19
	mov	edx, 8
	imul	rdx, rdx, 19
	mov	r9, rax
	mov	rax, QWORD PTR yp$[rbp]
	mov	r8, QWORD PTR [rax+rcx]
	mov	rax, QWORD PTR xp$[rbp]
	mov	rdx, QWORD PTR [rax+rdx]
	movzx	ecx, BYTE PTR c$[rbp]
	call	_SUBTRUCT_UNIT
	mov	BYTE PTR c$[rbp], al

; 828  :     c = _SUBTRUCT_UNIT(c, xp[20], yp[20], &zp[20]);

	mov	eax, 8
	imul	rax, rax, 20
	mov	rcx, QWORD PTR zp$[rbp]
	add	rcx, rax
	mov	rax, rcx
	mov	ecx, 8
	imul	rcx, rcx, 20
	mov	edx, 8
	imul	rdx, rdx, 20
	mov	r9, rax
	mov	rax, QWORD PTR yp$[rbp]
	mov	r8, QWORD PTR [rax+rcx]
	mov	rax, QWORD PTR xp$[rbp]
	mov	rdx, QWORD PTR [rax+rdx]
	movzx	ecx, BYTE PTR c$[rbp]
	call	_SUBTRUCT_UNIT
	mov	BYTE PTR c$[rbp], al

; 829  :     c = _SUBTRUCT_UNIT(c, xp[21], yp[21], &zp[21]);

	mov	eax, 8
	imul	rax, rax, 21
	mov	rcx, QWORD PTR zp$[rbp]
	add	rcx, rax
	mov	rax, rcx
	mov	ecx, 8
	imul	rcx, rcx, 21
	mov	edx, 8
	imul	rdx, rdx, 21
	mov	r9, rax
	mov	rax, QWORD PTR yp$[rbp]
	mov	r8, QWORD PTR [rax+rcx]
	mov	rax, QWORD PTR xp$[rbp]
	mov	rdx, QWORD PTR [rax+rdx]
	movzx	ecx, BYTE PTR c$[rbp]
	call	_SUBTRUCT_UNIT
	mov	BYTE PTR c$[rbp], al

; 830  :     c = _SUBTRUCT_UNIT(c, xp[22], yp[22], &zp[22]);

	mov	eax, 8
	imul	rax, rax, 22
	mov	rcx, QWORD PTR zp$[rbp]
	add	rcx, rax
	mov	rax, rcx
	mov	ecx, 8
	imul	rcx, rcx, 22
	mov	edx, 8
	imul	rdx, rdx, 22
	mov	r9, rax
	mov	rax, QWORD PTR yp$[rbp]
	mov	r8, QWORD PTR [rax+rcx]
	mov	rax, QWORD PTR xp$[rbp]
	mov	rdx, QWORD PTR [rax+rdx]
	movzx	ecx, BYTE PTR c$[rbp]
	call	_SUBTRUCT_UNIT
	mov	BYTE PTR c$[rbp], al

; 831  :     c = _SUBTRUCT_UNIT(c, xp[23], yp[23], &zp[23]);

	mov	eax, 8
	imul	rax, rax, 23
	mov	rcx, QWORD PTR zp$[rbp]
	add	rcx, rax
	mov	rax, rcx
	mov	ecx, 8
	imul	rcx, rcx, 23
	mov	edx, 8
	imul	rdx, rdx, 23
	mov	r9, rax
	mov	rax, QWORD PTR yp$[rbp]
	mov	r8, QWORD PTR [rax+rcx]
	mov	rax, QWORD PTR xp$[rbp]
	mov	rdx, QWORD PTR [rax+rdx]
	movzx	ecx, BYTE PTR c$[rbp]
	call	_SUBTRUCT_UNIT
	mov	BYTE PTR c$[rbp], al

; 832  :     c = _SUBTRUCT_UNIT(c, xp[24], yp[24], &zp[24]);

	mov	eax, 8
	imul	rax, rax, 24
	mov	rcx, QWORD PTR zp$[rbp]
	add	rcx, rax
	mov	rax, rcx
	mov	ecx, 8
	imul	rcx, rcx, 24
	mov	edx, 8
	imul	rdx, rdx, 24
	mov	r9, rax
	mov	rax, QWORD PTR yp$[rbp]
	mov	r8, QWORD PTR [rax+rcx]
	mov	rax, QWORD PTR xp$[rbp]
	mov	rdx, QWORD PTR [rax+rdx]
	movzx	ecx, BYTE PTR c$[rbp]
	call	_SUBTRUCT_UNIT
	mov	BYTE PTR c$[rbp], al

; 833  :     c = _SUBTRUCT_UNIT(c, xp[25], yp[25], &zp[25]);

	mov	eax, 8
	imul	rax, rax, 25
	mov	rcx, QWORD PTR zp$[rbp]
	add	rcx, rax
	mov	rax, rcx
	mov	ecx, 8
	imul	rcx, rcx, 25
	mov	edx, 8
	imul	rdx, rdx, 25
	mov	r9, rax
	mov	rax, QWORD PTR yp$[rbp]
	mov	r8, QWORD PTR [rax+rcx]
	mov	rax, QWORD PTR xp$[rbp]
	mov	rdx, QWORD PTR [rax+rdx]
	movzx	ecx, BYTE PTR c$[rbp]
	call	_SUBTRUCT_UNIT
	mov	BYTE PTR c$[rbp], al

; 834  :     c = _SUBTRUCT_UNIT(c, xp[26], yp[26], &zp[26]);

	mov	eax, 8
	imul	rax, rax, 26
	mov	rcx, QWORD PTR zp$[rbp]
	add	rcx, rax
	mov	rax, rcx
	mov	ecx, 8
	imul	rcx, rcx, 26
	mov	edx, 8
	imul	rdx, rdx, 26
	mov	r9, rax
	mov	rax, QWORD PTR yp$[rbp]
	mov	r8, QWORD PTR [rax+rcx]
	mov	rax, QWORD PTR xp$[rbp]
	mov	rdx, QWORD PTR [rax+rdx]
	movzx	ecx, BYTE PTR c$[rbp]
	call	_SUBTRUCT_UNIT
	mov	BYTE PTR c$[rbp], al

; 835  :     c = _SUBTRUCT_UNIT(c, xp[27], yp[27], &zp[27]);

	mov	eax, 8
	imul	rax, rax, 27
	mov	rcx, QWORD PTR zp$[rbp]
	add	rcx, rax
	mov	rax, rcx
	mov	ecx, 8
	imul	rcx, rcx, 27
	mov	edx, 8
	imul	rdx, rdx, 27
	mov	r9, rax
	mov	rax, QWORD PTR yp$[rbp]
	mov	r8, QWORD PTR [rax+rcx]
	mov	rax, QWORD PTR xp$[rbp]
	mov	rdx, QWORD PTR [rax+rdx]
	movzx	ecx, BYTE PTR c$[rbp]
	call	_SUBTRUCT_UNIT
	mov	BYTE PTR c$[rbp], al

; 836  :     c = _SUBTRUCT_UNIT(c, xp[28], yp[28], &zp[28]);

	mov	eax, 8
	imul	rax, rax, 28
	mov	rcx, QWORD PTR zp$[rbp]
	add	rcx, rax
	mov	rax, rcx
	mov	ecx, 8
	imul	rcx, rcx, 28
	mov	edx, 8
	imul	rdx, rdx, 28
	mov	r9, rax
	mov	rax, QWORD PTR yp$[rbp]
	mov	r8, QWORD PTR [rax+rcx]
	mov	rax, QWORD PTR xp$[rbp]
	mov	rdx, QWORD PTR [rax+rdx]
	movzx	ecx, BYTE PTR c$[rbp]
	call	_SUBTRUCT_UNIT
	mov	BYTE PTR c$[rbp], al

; 837  :     c = _SUBTRUCT_UNIT(c, xp[29], yp[29], &zp[29]);

	mov	eax, 8
	imul	rax, rax, 29
	mov	rcx, QWORD PTR zp$[rbp]
	add	rcx, rax
	mov	rax, rcx
	mov	ecx, 8
	imul	rcx, rcx, 29
	mov	edx, 8
	imul	rdx, rdx, 29
	mov	r9, rax
	mov	rax, QWORD PTR yp$[rbp]
	mov	r8, QWORD PTR [rax+rcx]
	mov	rax, QWORD PTR xp$[rbp]
	mov	rdx, QWORD PTR [rax+rdx]
	movzx	ecx, BYTE PTR c$[rbp]
	call	_SUBTRUCT_UNIT
	mov	BYTE PTR c$[rbp], al

; 838  :     c = _SUBTRUCT_UNIT(c, xp[30], yp[30], &zp[30]);

	mov	eax, 8
	imul	rax, rax, 30
	mov	rcx, QWORD PTR zp$[rbp]
	add	rcx, rax
	mov	rax, rcx
	mov	ecx, 8
	imul	rcx, rcx, 30
	mov	edx, 8
	imul	rdx, rdx, 30
	mov	r9, rax
	mov	rax, QWORD PTR yp$[rbp]
	mov	r8, QWORD PTR [rax+rcx]
	mov	rax, QWORD PTR xp$[rbp]
	mov	rdx, QWORD PTR [rax+rdx]
	movzx	ecx, BYTE PTR c$[rbp]
	call	_SUBTRUCT_UNIT
	mov	BYTE PTR c$[rbp], al

; 839  :     c = _SUBTRUCT_UNIT(c, xp[31], yp[31], &zp[31]);

	mov	eax, 8
	imul	rax, rax, 31
	mov	rcx, QWORD PTR zp$[rbp]
	add	rcx, rax
	mov	rax, rcx
	mov	ecx, 8
	imul	rcx, rcx, 31
	mov	edx, 8
	imul	rdx, rdx, 31
	mov	r9, rax
	mov	rax, QWORD PTR yp$[rbp]
	mov	r8, QWORD PTR [rax+rcx]
	mov	rax, QWORD PTR xp$[rbp]
	mov	rdx, QWORD PTR [rax+rdx]
	movzx	ecx, BYTE PTR c$[rbp]
	call	_SUBTRUCT_UNIT
	mov	BYTE PTR c$[rbp], al

; 840  : #elif defined(__GNUC__)
; 841  : #ifdef _M_IX86
; 842  :     __asm__ volatile (
; 843  :         "addb\t$-1, %0\n\t"
; 844  :         "movl\t(%1), %%ecx\n\t"
; 845  :         "sbbl\t(%2), %%ecx\n\t"
; 846  :         "movl\t%%ecx, (%3)\n\t"
; 847  :         "movl\t4(%1), %%ecx\n\t"
; 848  :         "sbbl\t4(%2), %%ecx\n\t"
; 849  :         "movl\t%%ecx, 4(%3)\n\t"
; 850  :         "movl\t8(%1), %%ecx\n\t"
; 851  :         "sbbl\t8(%2), %%ecx\n\t"
; 852  :         "movl\t%%ecx, 8(%3)\n\t"
; 853  :         "movl\t12(%1), %%ecx\n\t"
; 854  :         "sbbl\t12(%2), %%ecx\n\t"
; 855  :         "movl\t%%ecx, 12(%3)\n\t"
; 856  :         "movl\t16(%1), %%ecx\n\t"
; 857  :         "sbbl\t16(%2), %%ecx\n\t"
; 858  :         "movl\t%%ecx, 16(%3)\n\t"
; 859  :         "movl\t20(%1), %%ecx\n\t"
; 860  :         "sbbl\t20(%2), %%ecx\n\t"
; 861  :         "movl\t%%ecx, 20(%3)\n\t"
; 862  :         "movl\t24(%1), %%ecx\n\t"
; 863  :         "sbbl\t24(%2), %%ecx\n\t"
; 864  :         "movl\t%%ecx, 24(%3)\n\t"
; 865  :         "movl\t28(%1), %%ecx\n\t"
; 866  :         "sbbl\t28(%2), %%ecx\n\t"
; 867  :         "movl\t%%ecx, 28(%3)\n\t"
; 868  :         "movl\t32(%1), %%ecx\n\t"
; 869  :         "sbbl\t32(%2), %%ecx\n\t"
; 870  :         "movl\t%%ecx, 32(%3)\n\t"
; 871  :         "movl\t36(%1), %%ecx\n\t"
; 872  :         "sbbl\t36(%2), %%ecx\n\t"
; 873  :         "movl\t%%ecx, 36(%3)\n\t"
; 874  :         "movl\t40(%1), %%ecx\n\t"
; 875  :         "sbbl\t40(%2), %%ecx\n\t"
; 876  :         "movl\t%%ecx, 40(%3)\n\t"
; 877  :         "movl\t44(%1), %%ecx\n\t"
; 878  :         "sbbl\t44(%2), %%ecx\n\t"
; 879  :         "movl\t%%ecx, 44(%3)\n\t"
; 880  :         "movl\t48(%1), %%ecx\n\t"
; 881  :         "sbbl\t48(%2), %%ecx\n\t"
; 882  :         "movl\t%%ecx, 48(%3)\n\t"
; 883  :         "movl\t52(%1), %%ecx\n\t"
; 884  :         "sbbl\t52(%2), %%ecx\n\t"
; 885  :         "movl\t%%ecx, 52(%3)\n\t"
; 886  :         "movl\t56(%1), %%ecx\n\t"
; 887  :         "sbbl\t56(%2), %%ecx\n\t"
; 888  :         "movl\t%%ecx, 56(%3)\n\t"
; 889  :         "movl\t60(%1), %%ecx\n\t"
; 890  :         "sbbl\t60(%2), %%ecx\n\t"
; 891  :         "movl\t%%ecx, 60(%3)\n\t"
; 892  :         "movl\t64(%1), %%ecx\n\t"
; 893  :         "sbbl\t64(%2), %%ecx\n\t"
; 894  :         "movl\t%%ecx, 64(%3)\n\t"
; 895  :         "movl\t68(%1), %%ecx\n\t"
; 896  :         "sbbl\t68(%2), %%ecx\n\t"
; 897  :         "movl\t%%ecx, 68(%3)\n\t"
; 898  :         "movl\t72(%1), %%ecx\n\t"
; 899  :         "sbbl\t72(%2), %%ecx\n\t"
; 900  :         "movl\t%%ecx, 72(%3)\n\t"
; 901  :         "movl\t76(%1), %%ecx\n\t"
; 902  :         "sbbl\t76(%2), %%ecx\n\t"
; 903  :         "movl\t%%ecx, 76(%3)\n\t"
; 904  :         "movl\t80(%1), %%ecx\n\t"
; 905  :         "sbbl\t80(%2), %%ecx\n\t"
; 906  :         "movl\t%%ecx, 80(%3)\n\t"
; 907  :         "movl\t84(%1), %%ecx\n\t"
; 908  :         "sbbl\t84(%2), %%ecx\n\t"
; 909  :         "movl\t%%ecx, 84(%3)\n\t"
; 910  :         "movl\t88(%1), %%ecx\n\t"
; 911  :         "sbbl\t88(%2), %%ecx\n\t"
; 912  :         "movl\t%%ecx, 88(%3)\n\t"
; 913  :         "movl\t92(%1), %%ecx\n\t"
; 914  :         "sbbl\t92(%2), %%ecx\n\t"
; 915  :         "movl\t%%ecx, 92(%3)\n\t"
; 916  :         "movl\t96(%1), %%ecx\n\t"
; 917  :         "sbbl\t96(%2), %%ecx\n\t"
; 918  :         "movl\t%%ecx, 96(%3)\n\t"
; 919  :         "movl\t100(%1), %%ecx\n\t"
; 920  :         "sbbl\t100(%2), %%ecx\n\t"
; 921  :         "movl\t%%ecx, 100(%3)\n\t"
; 922  :         "movl\t104(%1), %%ecx\n\t"
; 923  :         "sbbl\t104(%2), %%ecx\n\t"
; 924  :         "movl\t%%ecx, 104(%3)\n\t"
; 925  :         "movl\t108(%1), %%ecx\n\t"
; 926  :         "sbbl\t108(%2), %%ecx\n\t"
; 927  :         "movl\t%%ecx, 108(%3)\n\t"
; 928  :         "movl\t112(%1), %%ecx\n\t"
; 929  :         "sbbl\t112(%2), %%ecx\n\t"
; 930  :         "movl\t%%ecx, 112(%3)\n\t"
; 931  :         "movl\t116(%1), %%ecx\n\t"
; 932  :         "sbbl\t116(%2), %%ecx\n\t"
; 933  :         "movl\t%%ecx, 116(%3)\n\t"
; 934  :         "movl\t120(%1), %%ecx\n\t"
; 935  :         "sbbl\t120(%2), %%ecx\n\t"
; 936  :         "movl\t%%ecx, 120(%3)\n\t"
; 937  :         "movl\t124(%1), %%ecx\n\t"
; 938  :         "sbbl\t124(%2), %%ecx\n\t"
; 939  :         "movl\t%%ecx, 124(%3)\n\t"
; 940  :         "setc\t%0"
; 941  :         : "+r"(c), "+r"(xp), "+r"(yp), "+r"(zp)
; 942  :         :
; 943  :         : "cc", "memory", "%ecx"
; 944  : );
; 945  : #elif defined(_M_IX64)
; 946  :     __asm__ volatile (
; 947  :         "addb\t$-1, %0\n\t"
; 948  :         "movq\t(%1), %%rcx\n\t"
; 949  :         "sbbq\t(%2), %%rcx\n\t"
; 950  :         "movq\t%%rcx, (%3)\n\t"
; 951  :         "movq\t8(%1), %%rcx\n\t"
; 952  :         "sbbq\t8(%2), %%rcx\n\t"
; 953  :         "movq\t%%rcx, 8(%3)\n\t"
; 954  :         "movq\t16(%1), %%rcx\n\t"
; 955  :         "sbbq\t16(%2), %%rcx\n\t"
; 956  :         "movq\t%%rcx, 16(%3)\n\t"
; 957  :         "movq\t24(%1), %%rcx\n\t"
; 958  :         "sbbq\t24(%2), %%rcx\n\t"
; 959  :         "movq\t%%rcx, 24(%3)\n\t"
; 960  :         "movq\t32(%1), %%rcx\n\t"
; 961  :         "sbbq\t32(%2), %%rcx\n\t"
; 962  :         "movq\t%%rcx, 32(%3)\n\t"
; 963  :         "movq\t40(%1), %%rcx\n\t"
; 964  :         "sbbq\t40(%2), %%rcx\n\t"
; 965  :         "movq\t%%rcx, 40(%3)\n\t"
; 966  :         "movq\t48(%1), %%rcx\n\t"
; 967  :         "sbbq\t48(%2), %%rcx\n\t"
; 968  :         "movq\t%%rcx, 48(%3)\n\t"
; 969  :         "movq\t56(%1), %%rcx\n\t"
; 970  :         "sbbq\t56(%2), %%rcx\n\t"
; 971  :         "movq\t%%rcx, 56(%3)\n\t"
; 972  :         "movq\t64(%1), %%rcx\n\t"
; 973  :         "sbbq\t64(%2), %%rcx\n\t"
; 974  :         "movq\t%%rcx, 64(%3)\n\t"
; 975  :         "movq\t72(%1), %%rcx\n\t"
; 976  :         "sbbq\t72(%2), %%rcx\n\t"
; 977  :         "movq\t%%rcx, 72(%3)\n\t"
; 978  :         "movq\t80(%1), %%rcx\n\t"
; 979  :         "sbbq\t80(%2), %%rcx\n\t"
; 980  :         "movq\t%%rcx, 80(%3)\n\t"
; 981  :         "movq\t88(%1), %%rcx\n\t"
; 982  :         "sbbq\t88(%2), %%rcx\n\t"
; 983  :         "movq\t%%rcx, 88(%3)\n\t"
; 984  :         "movq\t96(%1), %%rcx\n\t"
; 985  :         "sbbq\t96(%2), %%rcx\n\t"
; 986  :         "movq\t%%rcx, 96(%3)\n\t"
; 987  :         "movq\t104(%1), %%rcx\n\t"
; 988  :         "sbbq\t104(%2), %%rcx\n\t"
; 989  :         "movq\t%%rcx, 104(%3)\n\t"
; 990  :         "movq\t112(%1), %%rcx\n\t"
; 991  :         "sbbq\t112(%2), %%rcx\n\t"
; 992  :         "movq\t%%rcx, 112(%3)\n\t"
; 993  :         "movq\t120(%1), %%rcx\n\t"
; 994  :         "sbbq\t120(%2), %%rcx\n\t"
; 995  :         "movq\t%%rcx, 120(%3)\n\t"
; 996  :         "movq\t128(%1), %%rcx\n\t"
; 997  :         "sbbq\t128(%2), %%rcx\n\t"
; 998  :         "movq\t%%rcx, 128(%3)\n\t"
; 999  :         "movq\t136(%1), %%rcx\n\t"
; 1000 :         "sbbq\t136(%2), %%rcx\n\t"
; 1001 :         "movq\t%%rcx, 136(%3)\n\t"
; 1002 :         "movq\t144(%1), %%rcx\n\t"
; 1003 :         "sbbq\t144(%2), %%rcx\n\t"
; 1004 :         "movq\t%%rcx, 144(%3)\n\t"
; 1005 :         "movq\t152(%1), %%rcx\n\t"
; 1006 :         "sbbq\t152(%2), %%rcx\n\t"
; 1007 :         "movq\t%%rcx, 152(%3)\n\t"
; 1008 :         "movq\t160(%1), %%rcx\n\t"
; 1009 :         "sbbq\t160(%2), %%rcx\n\t"
; 1010 :         "movq\t%%rcx, 160(%3)\n\t"
; 1011 :         "movq\t168(%1), %%rcx\n\t"
; 1012 :         "sbbq\t168(%2), %%rcx\n\t"
; 1013 :         "movq\t%%rcx, 168(%3)\n\t"
; 1014 :         "movq\t176(%1), %%rcx\n\t"
; 1015 :         "sbbq\t176(%2), %%rcx\n\t"
; 1016 :         "movq\t%%rcx, 176(%3)\n\t"
; 1017 :         "movq\t184(%1), %%rcx\n\t"
; 1018 :         "sbbq\t184(%2), %%rcx\n\t"
; 1019 :         "movq\t%%rcx, 184(%3)\n\t"
; 1020 :         "movq\t192(%1), %%rcx\n\t"
; 1021 :         "sbbq\t192(%2), %%rcx\n\t"
; 1022 :         "movq\t%%rcx, 192(%3)\n\t"
; 1023 :         "movq\t200(%1), %%rcx\n\t"
; 1024 :         "sbbq\t200(%2), %%rcx\n\t"
; 1025 :         "movq\t%%rcx, 200(%3)\n\t"
; 1026 :         "movq\t208(%1), %%rcx\n\t"
; 1027 :         "sbbq\t208(%2), %%rcx\n\t"
; 1028 :         "movq\t%%rcx, 208(%3)\n\t"
; 1029 :         "movq\t216(%1), %%rcx\n\t"
; 1030 :         "sbbq\t216(%2), %%rcx\n\t"
; 1031 :         "movq\t%%rcx, 216(%3)\n\t"
; 1032 :         "movq\t224(%1), %%rcx\n\t"
; 1033 :         "sbbq\t224(%2), %%rcx\n\t"
; 1034 :         "movq\t%%rcx, 224(%3)\n\t"
; 1035 :         "movq\t232(%1), %%rcx\n\t"
; 1036 :         "sbbq\t232(%2), %%rcx\n\t"
; 1037 :         "movq\t%%rcx, 232(%3)\n\t"
; 1038 :         "movq\t240(%1), %%rcx\n\t"
; 1039 :         "sbbq\t240(%2), %%rcx\n\t"
; 1040 :         "movq\t%%rcx, 240(%3)\n\t"
; 1041 :         "movq\t248(%1), %%rcx\n\t"
; 1042 :         "sbbq\t248(%2), %%rcx\n\t"
; 1043 :         "movq\t%%rcx, 248(%3)\n\t"
; 1044 :         "setc\t%0"
; 1045 :         : "+r"(c), "+r"(xp), "+r"(yp), "+r"(zp)
; 1046 :         :
; 1047 :         : "cc", "memory", "%rcx"
; 1048 : );
; 1049 : #else
; 1050 : #error unknown platform
; 1051 : #endif
; 1052 : #else
; 1053 : #error unknown compiler
; 1054 : #endif
; 1055 :     return (c);

	movzx	eax, BYTE PTR c$[rbp]

; 1056 : }

	lea	rsp, QWORD PTR [rbp+200]
	pop	rdi
	pop	rbp
	ret	0
_SUBTRUCT_32WORDS_SBB ENDP
_TEXT	ENDS
; Function compile flags: /Odtp /RTCsu /ZI
; File z:\sources\lunor\repos\rougemeilland\palmtree.math.core.uint\palmtree.math.core.uint\pmc_inline_func.h
;	COMDAT _LZCNT_ALT_UNIT
_TEXT	SEGMENT
pos$ = 4
x$ = 256
_LZCNT_ALT_UNIT PROC					; COMDAT

; 629  :     {

	mov	QWORD PTR [rsp+8], rcx
	push	rbp
	push	rdi
	sub	rsp, 264				; 00000108H
	lea	rbp, QWORD PTR [rsp+32]
	mov	rdi, rsp
	mov	ecx, 66					; 00000042H
	mov	eax, -858993460				; ccccccccH
	rep stosd
	mov	rcx, QWORD PTR [rsp+296]
	lea	rcx, OFFSET FLAT:__8CA3E54E_pmc_inline_func@h
	call	__CheckForDebuggerJustMyCode

; 630  :         if (x == 0)

	cmp	QWORD PTR x$[rbp], 0
	jne	SHORT $LN2@LZCNT_ALT_

; 631  :             return (sizeof(x) * 8);

	mov	eax, 64					; 00000040H
	jmp	SHORT $LN1@LZCNT_ALT_
$LN2@LZCNT_ALT_:

; 632  : #ifdef _M_IX86
; 633  :         _UINT32_T pos;
; 634  : #ifdef _MSC_VER
; 635  :         _BitScanReverse(&pos, x);
; 636  : #elif defined(__GNUC__)
; 637  :         __asm__("bsrl %1, %0" : "=r"(pos) : "rm"(x));
; 638  : #else
; 639  : #error unknown compiler
; 640  : #endif
; 641  : #elif defined(_M_X64)
; 642  : #ifdef _MSC_VER
; 643  :         _UINT32_T pos;
; 644  :         _BitScanReverse64(&pos, x);

	mov	rax, QWORD PTR x$[rbp]
	bsr	rax, rax
	mov	DWORD PTR pos$[rbp], eax

; 645  : #elif defined(__GNUC__)
; 646  :         _UINT64_T pos;
; 647  :         __asm__("bsrq %1, %0" : "=r"(pos) : "rm"(x));
; 648  : #else
; 649  : #error unknown compiler
; 650  : #endif
; 651  : #else
; 652  : #error unknown platform
; 653  : #endif
; 654  :         return (sizeof(x) * 8 - 1 - pos);

	mov	eax, DWORD PTR pos$[rbp]
	mov	ecx, 63					; 0000003fH
	sub	rcx, rax
	mov	rax, rcx
$LN1@LZCNT_ALT_:

; 655  :     }

	mov	rdi, rax
	lea	rcx, QWORD PTR [rbp-32]
	lea	rdx, OFFSET FLAT:_LZCNT_ALT_UNIT$rtcFrameData
	call	_RTC_CheckStackVars
	mov	rax, rdi
	lea	rsp, QWORD PTR [rbp+232]
	pop	rdi
	pop	rbp
	ret	0
_LZCNT_ALT_UNIT ENDP
_TEXT	ENDS
; Function compile flags: /Odtp /RTCsu /ZI
; File z:\sources\lunor\repos\rougemeilland\palmtree.math.core.uint\palmtree.math.core.uint\pmc_inline_func.h
;	COMDAT _LZCNT_ALT_32
_TEXT	SEGMENT
pos$ = 4
x$ = 256
_LZCNT_ALT_32 PROC					; COMDAT

; 596  :     {

	mov	DWORD PTR [rsp+8], ecx
	push	rbp
	push	rdi
	sub	rsp, 264				; 00000108H
	lea	rbp, QWORD PTR [rsp+32]
	mov	rdi, rsp
	mov	ecx, 66					; 00000042H
	mov	eax, -858993460				; ccccccccH
	rep stosd
	mov	ecx, DWORD PTR [rsp+296]
	lea	rcx, OFFSET FLAT:__8CA3E54E_pmc_inline_func@h
	call	__CheckForDebuggerJustMyCode

; 597  :         if (x == 0)

	cmp	DWORD PTR x$[rbp], 0
	jne	SHORT $LN2@LZCNT_ALT_

; 598  :             return (sizeof(x) * 8);

	mov	eax, 32					; 00000020H
	jmp	SHORT $LN1@LZCNT_ALT_
$LN2@LZCNT_ALT_:

; 599  :         _UINT32_T pos;
; 600  : #ifdef _MSC_VER
; 601  :         _BitScanReverse(&pos, x);

	mov	eax, DWORD PTR x$[rbp]
	bsr	eax, eax
	mov	DWORD PTR pos$[rbp], eax

; 602  : #elif defined(__GNUC__)
; 603  :         __asm__("bsrl %1, %0" : "=r"(pos) : "rm"(x));
; 604  : #else
; 605  : #error unknown compiler
; 606  : #endif
; 607  :         return (sizeof(x) * 8 - 1 - pos);

	mov	eax, DWORD PTR pos$[rbp]
	mov	ecx, 31
	sub	rcx, rax
	mov	rax, rcx
$LN1@LZCNT_ALT_:

; 608  :     }

	mov	rdi, rax
	lea	rcx, QWORD PTR [rbp-32]
	lea	rdx, OFFSET FLAT:_LZCNT_ALT_32$rtcFrameData
	call	_RTC_CheckStackVars
	mov	rax, rdi
	lea	rsp, QWORD PTR [rbp+232]
	pop	rdi
	pop	rbp
	ret	0
_LZCNT_ALT_32 ENDP
_TEXT	ENDS
; Function compile flags: /Odtp /RTCsu /ZI
; File z:\sources\lunor\repos\rougemeilland\palmtree.math.core.uint\palmtree.math.core.uint\pmc_inline_func.h
;	COMDAT _SUBTRUCT_UNIT
_TEXT	SEGMENT
borrow$ = 224
u$ = 232
v$ = 240
w$ = 248
_SUBTRUCT_UNIT PROC					; COMDAT

; 269  :     {

	mov	QWORD PTR [rsp+32], r9
	mov	QWORD PTR [rsp+24], r8
	mov	QWORD PTR [rsp+16], rdx
	mov	BYTE PTR [rsp+8], cl
	push	rbp
	push	rdi
	sub	rsp, 232				; 000000e8H
	lea	rbp, QWORD PTR [rsp+32]
	mov	rdi, rsp
	mov	ecx, 58					; 0000003aH
	mov	eax, -858993460				; ccccccccH
	rep stosd
	movzx	ecx, BYTE PTR [rsp+264]
	lea	rcx, OFFSET FLAT:__8CA3E54E_pmc_inline_func@h
	call	__CheckForDebuggerJustMyCode

; 270  : #ifdef _M_IX86
; 271  :         return (_subborrow_u32(borrow, u, v, w));
; 272  : #elif defined(_M_X64)
; 273  :         return (_subborrow_u64(borrow, u, v, w));

	mov	rax, QWORD PTR u$[rbp]
	movzx	ecx, BYTE PTR borrow$[rbp]
	add	cl, -1
	sbb	rax, QWORD PTR v$[rbp]
	setb	cl
	mov	rdx, QWORD PTR w$[rbp]
	mov	QWORD PTR [rdx], rax
	movzx	eax, cl

; 274  : #else
; 275  : #error unknown platform
; 276  : #endif
; 277  :     }

	lea	rsp, QWORD PTR [rbp+200]
	pop	rdi
	pop	rbp
	ret	0
_SUBTRUCT_UNIT ENDP
_TEXT	ENDS
; Function compile flags: /Odtp /RTCsu /ZI
; File z:\sources\lunor\repos\rougemeilland\palmtree.math.core.uint\palmtree.math.core.uint\pmc_inline_func.h
;	COMDAT _FROMDWORDTOWORD
_TEXT	SEGMENT
value$ = 224
result_high$ = 232
_FROMDWORDTOWORD PROC					; COMDAT

; 182  :     {

	mov	QWORD PTR [rsp+16], rdx
	mov	QWORD PTR [rsp+8], rcx
	push	rbp
	push	rdi
	sub	rsp, 232				; 000000e8H
	lea	rbp, QWORD PTR [rsp+32]
	mov	rdi, rsp
	mov	ecx, 58					; 0000003aH
	mov	eax, -858993460				; ccccccccH
	rep stosd
	mov	rcx, QWORD PTR [rsp+264]
	lea	rcx, OFFSET FLAT:__8CA3E54E_pmc_inline_func@h
	call	__CheckForDebuggerJustMyCode

; 183  :         *result_high = (_UINT32_T)(value >> 32);

	mov	rax, QWORD PTR value$[rbp]
	shr	rax, 32					; 00000020H
	mov	rcx, QWORD PTR result_high$[rbp]
	mov	DWORD PTR [rcx], eax

; 184  :         return ((_UINT32_T)value);

	mov	eax, DWORD PTR value$[rbp]

; 185  :     }

	lea	rsp, QWORD PTR [rbp+200]
	pop	rdi
	pop	rbp
	ret	0
_FROMDWORDTOWORD ENDP
_TEXT	ENDS
; Function compile flags: /Odtp /RTCsu /ZI
; File z:\sources\lunor\repos\rougemeilland\palmtree.math.core.uint\palmtree.math.core.uint\pmc_inline_func.h
;	COMDAT _FROMWORDTODWORD
_TEXT	SEGMENT
value_high$ = 224
value_low$ = 232
_FROMWORDTODWORD PROC					; COMDAT

; 177  :     {

	mov	DWORD PTR [rsp+16], edx
	mov	DWORD PTR [rsp+8], ecx
	push	rbp
	push	rdi
	sub	rsp, 232				; 000000e8H
	lea	rbp, QWORD PTR [rsp+32]
	mov	rdi, rsp
	mov	ecx, 58					; 0000003aH
	mov	eax, -858993460				; ccccccccH
	rep stosd
	mov	ecx, DWORD PTR [rsp+264]
	lea	rcx, OFFSET FLAT:__8CA3E54E_pmc_inline_func@h
	call	__CheckForDebuggerJustMyCode

; 178  :         return (((_UINT64_T)value_high << 32) | value_low);

	mov	eax, DWORD PTR value_high$[rbp]
	shl	rax, 32					; 00000020H
	mov	ecx, DWORD PTR value_low$[rbp]
	or	rax, rcx

; 179  :     }

	lea	rsp, QWORD PTR [rbp+200]
	pop	rdi
	pop	rbp
	ret	0
_FROMWORDTODWORD ENDP
_TEXT	ENDS
; Function compile flags: /Odtp /RTCsu /ZI
; File z:\sources\lunor\repos\rougemeilland\palmtree.math.core.uint\palmtree.math.core.uint\pmc_subtruct.c
;	COMDAT PMC_Subtruct_X_X
_TEXT	SEGMENT
nx$ = 8
ny$ = 40
result$ = 68
nz$ = 104
x_bit_count$5 = 136
y_bit_count$6 = 168
z_bit_count$7 = 200
nz_light_check_code$8 = 232
tv145 = 436
x$ = 480
y$ = 488
o$ = 496
PMC_Subtruct_X_X PROC					; COMDAT

; 665  : {

$LN22:
	mov	QWORD PTR [rsp+24], r8
	mov	QWORD PTR [rsp+16], rdx
	mov	QWORD PTR [rsp+8], rcx
	push	rbp
	push	rdi
	sub	rsp, 504				; 000001f8H
	lea	rbp, QWORD PTR [rsp+48]
	mov	rdi, rsp
	mov	ecx, 126				; 0000007eH
	mov	eax, -858993460				; ccccccccH
	rep stosd
	mov	rcx, QWORD PTR [rsp+536]
	lea	rcx, OFFSET FLAT:__6B07DC87_pmc_subtruct@c
	call	__CheckForDebuggerJustMyCode

; 666  :     if (x == NULL)

	cmp	QWORD PTR x$[rbp], 0
	jne	SHORT $LN2@PMC_Subtru

; 667  :         return (PMC_STATUS_ARGUMENT_ERROR);

	mov	eax, -1
	jmp	$LN1@PMC_Subtru
$LN2@PMC_Subtru:

; 668  :     if (y == NULL)

	cmp	QWORD PTR y$[rbp], 0
	jne	SHORT $LN3@PMC_Subtru

; 669  :         return (PMC_STATUS_ARGUMENT_ERROR);

	mov	eax, -1
	jmp	$LN1@PMC_Subtru
$LN3@PMC_Subtru:

; 670  :     if (o == NULL)

	cmp	QWORD PTR o$[rbp], 0
	jne	SHORT $LN4@PMC_Subtru

; 671  :         return (PMC_STATUS_ARGUMENT_ERROR);

	mov	eax, -1
	jmp	$LN1@PMC_Subtru
$LN4@PMC_Subtru:

; 672  :     NUMBER_HEADER* nx = (NUMBER_HEADER*)x;

	mov	rax, QWORD PTR x$[rbp]
	mov	QWORD PTR nx$[rbp], rax

; 673  :     NUMBER_HEADER* ny = (NUMBER_HEADER*)y;

	mov	rax, QWORD PTR y$[rbp]
	mov	QWORD PTR ny$[rbp], rax

; 674  :     PMC_STATUS_CODE result;
; 675  :     if ((result = CheckNumber(nx)) != PMC_STATUS_OK)

	mov	rcx, QWORD PTR nx$[rbp]
	call	CheckNumber
	mov	DWORD PTR result$[rbp], eax
	cmp	DWORD PTR result$[rbp], 0
	je	SHORT $LN5@PMC_Subtru

; 676  :         return (result);

	mov	eax, DWORD PTR result$[rbp]
	jmp	$LN1@PMC_Subtru
$LN5@PMC_Subtru:

; 677  :     if ((result = CheckNumber(ny)) != PMC_STATUS_OK)

	mov	rcx, QWORD PTR ny$[rbp]
	call	CheckNumber
	mov	DWORD PTR result$[rbp], eax
	cmp	DWORD PTR result$[rbp], 0
	je	SHORT $LN6@PMC_Subtru

; 678  :         return (result);

	mov	eax, DWORD PTR result$[rbp]
	jmp	$LN1@PMC_Subtru
$LN6@PMC_Subtru:

; 679  :     NUMBER_HEADER* nz;
; 680  :     if (nx->IS_ZERO)

	mov	rax, QWORD PTR nx$[rbp]
	mov	eax, DWORD PTR [rax+40]
	shr	eax, 1
	and	eax, 1
	test	eax, eax
	je	SHORT $LN7@PMC_Subtru

; 681  :     {
; 682  :         if (ny->IS_ZERO)

	mov	rax, QWORD PTR ny$[rbp]
	mov	eax, DWORD PTR [rax+40]
	shr	eax, 1
	and	eax, 1
	test	eax, eax
	je	SHORT $LN9@PMC_Subtru

; 683  :         {
; 684  :             // y が 0 である場合
; 685  : 
; 686  :             // x と y がともに 0 であるので、演算結果の 0 を呼び出し元に返す。
; 687  :             *o = &number_zero;

	mov	rax, QWORD PTR o$[rbp]
	lea	rcx, OFFSET FLAT:number_zero
	mov	QWORD PTR [rax], rcx

; 688  :         }

	jmp	SHORT $LN10@PMC_Subtru
$LN9@PMC_Subtru:

; 689  :         else
; 690  :         {
; 691  :             // y が 0 ではない場合
; 692  : 
; 693  :             // 演算結果は負となってしまうのでエラーを返す。
; 694  :             return (PMC_STATUS_OVERFLOW);

	mov	eax, -2
	jmp	$LN1@PMC_Subtru
$LN10@PMC_Subtru:

; 695  :         }
; 696  :     }

	jmp	$LN8@PMC_Subtru
$LN7@PMC_Subtru:

; 697  :     else
; 698  :     {
; 699  :         // x が 0 ではない場合
; 700  : 
; 701  :         if (ny->IS_ZERO)

	mov	rax, QWORD PTR ny$[rbp]
	mov	eax, DWORD PTR [rax+40]
	shr	eax, 1
	and	eax, 1
	test	eax, eax
	je	SHORT $LN11@PMC_Subtru

; 702  :         {
; 703  :             // y が 0 である場合
; 704  : 
; 705  :             // 演算結果となる x の値を持つ NUMBER_HEADER 構造体を獲得し、呼び出し元へ返す。
; 706  :             if ((result = DuplicateNumber(nx, &nz)) != PMC_STATUS_OK)

	lea	rdx, QWORD PTR nz$[rbp]
	mov	rcx, QWORD PTR nx$[rbp]
	call	DuplicateNumber
	mov	DWORD PTR result$[rbp], eax
	cmp	DWORD PTR result$[rbp], 0
	je	SHORT $LN13@PMC_Subtru

; 707  :                 return (result);

	mov	eax, DWORD PTR result$[rbp]
	jmp	$LN1@PMC_Subtru
$LN13@PMC_Subtru:

; 708  :         }

	jmp	$LN12@PMC_Subtru
$LN11@PMC_Subtru:

; 709  :         else
; 710  :         {
; 711  :             // x と y がともに 0 ではない場合
; 712  : 
; 713  :             // x と y の差を計算する
; 714  :             __UNIT_TYPE x_bit_count = nx->UNIT_BIT_COUNT;

	mov	rax, QWORD PTR nx$[rbp]
	mov	rax, QWORD PTR [rax+16]
	mov	QWORD PTR x_bit_count$5[rbp], rax

; 715  :             __UNIT_TYPE y_bit_count = ny->UNIT_BIT_COUNT;

	mov	rax, QWORD PTR ny$[rbp]
	mov	rax, QWORD PTR [rax+16]
	mov	QWORD PTR y_bit_count$6[rbp], rax

; 716  :             if (x_bit_count < y_bit_count)

	mov	rax, QWORD PTR y_bit_count$6[rbp]
	cmp	QWORD PTR x_bit_count$5[rbp], rax
	jae	SHORT $LN14@PMC_Subtru

; 717  :             {
; 718  :                 // 演算結果は負となってしまうのでエラーを返す。
; 719  :                 return (PMC_STATUS_OVERFLOW);

	mov	eax, -2
	jmp	$LN1@PMC_Subtru
$LN14@PMC_Subtru:

; 720  :             }
; 721  :             __UNIT_TYPE z_bit_count = x_bit_count;

	mov	rax, QWORD PTR x_bit_count$5[rbp]
	mov	QWORD PTR z_bit_count$7[rbp], rax

; 722  :             __UNIT_TYPE nz_light_check_code;
; 723  :             if ((result = AllocateNumber(&nz, z_bit_count, &nz_light_check_code)) != PMC_STATUS_OK)

	lea	r8, QWORD PTR nz_light_check_code$8[rbp]
	mov	rdx, QWORD PTR z_bit_count$7[rbp]
	lea	rcx, QWORD PTR nz$[rbp]
	call	AllocateNumber
	mov	DWORD PTR result$[rbp], eax
	cmp	DWORD PTR result$[rbp], 0
	je	SHORT $LN15@PMC_Subtru

; 724  :                 return (result);

	mov	eax, DWORD PTR result$[rbp]
	jmp	$LN1@PMC_Subtru
$LN15@PMC_Subtru:

; 725  :             if ((result = Subtruct_Imp(nx->BLOCK, nx->UNIT_WORD_COUNT, ny->BLOCK, ny->UNIT_WORD_COUNT, nz->BLOCK, nz->BLOCK_COUNT)) != PMC_STATUS_OK)

	mov	rax, QWORD PTR nz$[rbp]
	mov	rax, QWORD PTR [rax+48]
	mov	QWORD PTR [rsp+40], rax
	mov	rax, QWORD PTR nz$[rbp]
	mov	rax, QWORD PTR [rax+56]
	mov	QWORD PTR [rsp+32], rax
	mov	rax, QWORD PTR ny$[rbp]
	mov	r9, QWORD PTR [rax+8]
	mov	rax, QWORD PTR ny$[rbp]
	mov	r8, QWORD PTR [rax+56]
	mov	rax, QWORD PTR nx$[rbp]
	mov	rdx, QWORD PTR [rax+8]
	mov	rax, QWORD PTR nx$[rbp]
	mov	rcx, QWORD PTR [rax+56]
	call	Subtruct_Imp
	mov	DWORD PTR result$[rbp], eax
	cmp	DWORD PTR result$[rbp], 0
	je	SHORT $LN16@PMC_Subtru

; 726  :             {
; 727  :                 DeallocateNumber(nz);

	mov	rcx, QWORD PTR nz$[rbp]
	call	DeallocateNumber

; 728  :                 return (result == PMC_STATUS_INTERNAL_BORROW ? PMC_STATUS_OVERFLOW : result);

	cmp	DWORD PTR result$[rbp], -258		; fffffffffffffefeH
	jne	SHORT $LN20@PMC_Subtru
	mov	DWORD PTR tv145[rbp], -2
	jmp	SHORT $LN21@PMC_Subtru
$LN20@PMC_Subtru:
	mov	eax, DWORD PTR result$[rbp]
	mov	DWORD PTR tv145[rbp], eax
$LN21@PMC_Subtru:
	mov	eax, DWORD PTR tv145[rbp]
	jmp	SHORT $LN1@PMC_Subtru
$LN16@PMC_Subtru:

; 729  :             }
; 730  :             if ((result = CheckBlockLight(nz->BLOCK, nz_light_check_code)) != PMC_STATUS_OK)

	mov	rdx, QWORD PTR nz_light_check_code$8[rbp]
	mov	rax, QWORD PTR nz$[rbp]
	mov	rcx, QWORD PTR [rax+56]
	call	CheckBlockLight
	mov	DWORD PTR result$[rbp], eax
	cmp	DWORD PTR result$[rbp], 0
	je	SHORT $LN17@PMC_Subtru

; 731  :                 return (result);

	mov	eax, DWORD PTR result$[rbp]
	jmp	SHORT $LN1@PMC_Subtru
$LN17@PMC_Subtru:

; 732  :             CommitNumber(nz);

	mov	rcx, QWORD PTR nz$[rbp]
	call	CommitNumber
$LN12@PMC_Subtru:

; 733  :         }
; 734  :         *o = nz;

	mov	rax, QWORD PTR o$[rbp]
	mov	rcx, QWORD PTR nz$[rbp]
	mov	QWORD PTR [rax], rcx
$LN8@PMC_Subtru:

; 735  :     }
; 736  : #ifdef _DEBUG
; 737  :     if ((result = CheckNumber(*o)) != PMC_STATUS_OK)

	mov	rax, QWORD PTR o$[rbp]
	mov	rcx, QWORD PTR [rax]
	call	CheckNumber
	mov	DWORD PTR result$[rbp], eax
	cmp	DWORD PTR result$[rbp], 0
	je	SHORT $LN18@PMC_Subtru

; 738  :         return (result);

	mov	eax, DWORD PTR result$[rbp]
	jmp	SHORT $LN1@PMC_Subtru
$LN18@PMC_Subtru:

; 739  : #endif
; 740  :     return (PMC_STATUS_OK);

	xor	eax, eax
$LN1@PMC_Subtru:

; 741  : }

	mov	rdi, rax
	lea	rcx, QWORD PTR [rbp-48]
	lea	rdx, OFFSET FLAT:PMC_Subtruct_X_X$rtcFrameData
	call	_RTC_CheckStackVars
	mov	rax, rdi
	lea	rsp, QWORD PTR [rbp+456]
	pop	rdi
	pop	rbp
	ret	0
PMC_Subtruct_X_X ENDP
_TEXT	ENDS
; Function compile flags: /Odtp /RTCsu /ZI
; File z:\sources\lunor\repos\rougemeilland\palmtree.math.core.uint\palmtree.math.core.uint\pmc_subtruct.c
;	COMDAT PMC_Subtruct_X_L
_TEXT	SEGMENT
nx$ = 8
result$ = 36
nz$ = 72
x_bit_count$8 = 104
y_hi$9 = 132
y_lo$10 = 164
y_bit_count$11 = 200
z_bit_count$12 = 232
nz_light_check_code$13 = 264
y_bit_count$14 = 296
z_bit_count$15 = 328
nz_light_check_code$16 = 360
x_bit_count$17 = 392
y_bit_count$18 = 424
z_bit_count$19 = 456
nz_light_check_code$20 = 488
tv204 = 692
tv174 = 692
tv142 = 692
x$ = 736
y$ = 744
o$ = 752
PMC_Subtruct_X_L PROC					; COMDAT

; 524  : {

$LN38:
	mov	QWORD PTR [rsp+24], r8
	mov	QWORD PTR [rsp+16], rdx
	mov	QWORD PTR [rsp+8], rcx
	push	rbp
	push	rdi
	sub	rsp, 760				; 000002f8H
	lea	rbp, QWORD PTR [rsp+48]
	mov	rdi, rsp
	mov	ecx, 190				; 000000beH
	mov	eax, -858993460				; ccccccccH
	rep stosd
	mov	rcx, QWORD PTR [rsp+792]
	lea	rcx, OFFSET FLAT:__6B07DC87_pmc_subtruct@c
	call	__CheckForDebuggerJustMyCode

; 525  :     if (__UNIT_TYPE_BIT_COUNT * 2 < sizeof(y) * 8)

	xor	eax, eax
	test	eax, eax
	je	SHORT $LN2@PMC_Subtru

; 526  :     {
; 527  :         // _UINT64_T が 2 ワードで表現しきれない処理系には対応しない
; 528  :         return (PMC_STATUS_INTERNAL_ERROR);

	mov	eax, -256				; ffffffffffffff00H
	jmp	$LN1@PMC_Subtru
$LN2@PMC_Subtru:

; 529  :     }
; 530  :     if (x == NULL)

	cmp	QWORD PTR x$[rbp], 0
	jne	SHORT $LN3@PMC_Subtru

; 531  :         return (PMC_STATUS_ARGUMENT_ERROR);

	mov	eax, -1
	jmp	$LN1@PMC_Subtru
$LN3@PMC_Subtru:

; 532  :     if (o == NULL)

	cmp	QWORD PTR o$[rbp], 0
	jne	SHORT $LN4@PMC_Subtru

; 533  :         return (PMC_STATUS_ARGUMENT_ERROR);

	mov	eax, -1
	jmp	$LN1@PMC_Subtru
$LN4@PMC_Subtru:

; 534  :     NUMBER_HEADER* nx = (NUMBER_HEADER*)x;

	mov	rax, QWORD PTR x$[rbp]
	mov	QWORD PTR nx$[rbp], rax

; 535  :     PMC_STATUS_CODE result;
; 536  :     if ((result = CheckNumber(nx)) != PMC_STATUS_OK)

	mov	rcx, QWORD PTR nx$[rbp]
	call	CheckNumber
	mov	DWORD PTR result$[rbp], eax
	cmp	DWORD PTR result$[rbp], 0
	je	SHORT $LN5@PMC_Subtru

; 537  :         return (result);

	mov	eax, DWORD PTR result$[rbp]
	jmp	$LN1@PMC_Subtru
$LN5@PMC_Subtru:

; 538  :     NUMBER_HEADER* nz;
; 539  :     if (nx->IS_ZERO)

	mov	rax, QWORD PTR nx$[rbp]
	mov	eax, DWORD PTR [rax+40]
	shr	eax, 1
	and	eax, 1
	test	eax, eax
	je	SHORT $LN6@PMC_Subtru

; 540  :     {
; 541  :         // x が 0 である場合
; 542  : 
; 543  :         if (y == 0)

	cmp	QWORD PTR y$[rbp], 0
	jne	SHORT $LN8@PMC_Subtru

; 544  :         {
; 545  :             // y が 0 である場合
; 546  : 
; 547  :             // x と y がともに 0 であるので、演算結果の 0 を呼び出し元に返す。
; 548  :             *o = &number_zero;

	mov	rax, QWORD PTR o$[rbp]
	lea	rcx, OFFSET FLAT:number_zero
	mov	QWORD PTR [rax], rcx

; 549  :         }

	jmp	SHORT $LN9@PMC_Subtru
$LN8@PMC_Subtru:

; 550  :         else
; 551  :         {
; 552  :             // y が 0 ではない場合
; 553  : 
; 554  :             // 演算結果は負となってしまうのでエラーを返す。
; 555  :             return (PMC_STATUS_OVERFLOW);

	mov	eax, -2
	jmp	$LN1@PMC_Subtru
$LN9@PMC_Subtru:

; 556  :         }
; 557  :     }

	jmp	$LN7@PMC_Subtru
$LN6@PMC_Subtru:

; 558  :     else
; 559  :     {
; 560  :         // x が 0 ではない場合
; 561  : 
; 562  :         if (y == 0)

	cmp	QWORD PTR y$[rbp], 0
	jne	SHORT $LN10@PMC_Subtru

; 563  :         {
; 564  :             // y が 0 である場合
; 565  : 
; 566  :             // 演算結果となる x の値を持つ NUMBER_HEADER 構造体を獲得し、呼び出し元へ返す。
; 567  :             if ((result = DuplicateNumber(nx, &nz)) != PMC_STATUS_OK)

	lea	rdx, QWORD PTR nz$[rbp]
	mov	rcx, QWORD PTR nx$[rbp]
	call	DuplicateNumber
	mov	DWORD PTR result$[rbp], eax
	cmp	DWORD PTR result$[rbp], 0
	je	SHORT $LN12@PMC_Subtru

; 568  :                 return (result);

	mov	eax, DWORD PTR result$[rbp]
	jmp	$LN1@PMC_Subtru
$LN12@PMC_Subtru:

; 569  :         }

	jmp	$LN11@PMC_Subtru
$LN10@PMC_Subtru:

; 570  :         else
; 571  :         {
; 572  :             // x と y がともに 0 ではない場合
; 573  : 
; 574  :             // x と y の差を計算する
; 575  :             if (__UNIT_TYPE_BIT_COUNT < sizeof(y) * 8)

	xor	eax, eax
	test	eax, eax
	je	$LN13@PMC_Subtru

; 576  :             {
; 577  :                 // _UINT64_T が 1 ワードで表現しきれない場合
; 578  : 
; 579  :                 __UNIT_TYPE x_bit_count = nx->UNIT_BIT_COUNT;

	mov	rax, QWORD PTR nx$[rbp]
	mov	rax, QWORD PTR [rax+16]
	mov	QWORD PTR x_bit_count$8[rbp], rax

; 580  :                 _UINT32_T y_hi;
; 581  :                 _UINT32_T y_lo = _FROMDWORDTOWORD(y, &y_hi);

	lea	rdx, QWORD PTR y_hi$9[rbp]
	mov	rcx, QWORD PTR y$[rbp]
	call	_FROMDWORDTOWORD
	mov	DWORD PTR y_lo$10[rbp], eax

; 582  :                 if (y_hi == 0)

	cmp	DWORD PTR y_hi$9[rbp], 0
	jne	$LN15@PMC_Subtru

; 583  :                 {
; 584  :                     // y の値が 32bit で表現可能な場合
; 585  :                     __UNIT_TYPE y_bit_count = sizeof(y_lo) * 8 - _LZCNT_ALT_32(y_lo);

	mov	ecx, DWORD PTR y_lo$10[rbp]
	call	_LZCNT_ALT_32
	cdqe
	mov	ecx, 32					; 00000020H
	sub	rcx, rax
	mov	rax, rcx
	mov	QWORD PTR y_bit_count$11[rbp], rax

; 586  :                     if (x_bit_count < y_bit_count)

	mov	rax, QWORD PTR y_bit_count$11[rbp]
	cmp	QWORD PTR x_bit_count$8[rbp], rax
	jae	SHORT $LN17@PMC_Subtru

; 587  :                     {
; 588  :                         // 演算結果は負となってしまうのでエラーを返す。
; 589  :                         return (PMC_STATUS_OVERFLOW);

	mov	eax, -2
	jmp	$LN1@PMC_Subtru
$LN17@PMC_Subtru:

; 590  :                     }
; 591  :                     __UNIT_TYPE z_bit_count = x_bit_count;

	mov	rax, QWORD PTR x_bit_count$8[rbp]
	mov	QWORD PTR z_bit_count$12[rbp], rax

; 592  :                     __UNIT_TYPE nz_light_check_code;
; 593  :                     if ((result = AllocateNumber(&nz, z_bit_count, &nz_light_check_code)) != PMC_STATUS_OK)

	lea	r8, QWORD PTR nz_light_check_code$13[rbp]
	mov	rdx, QWORD PTR z_bit_count$12[rbp]
	lea	rcx, QWORD PTR nz$[rbp]
	call	AllocateNumber
	mov	DWORD PTR result$[rbp], eax
	cmp	DWORD PTR result$[rbp], 0
	je	SHORT $LN18@PMC_Subtru

; 594  :                         return (result);

	mov	eax, DWORD PTR result$[rbp]
	jmp	$LN1@PMC_Subtru
$LN18@PMC_Subtru:

; 595  :                     if ((result = Subtruct_X_1W(nx->BLOCK, nx->UNIT_WORD_COUNT, y_lo, nz->BLOCK, nz->BLOCK_COUNT)) != PMC_STATUS_OK)

	mov	eax, DWORD PTR y_lo$10[rbp]
	mov	rcx, QWORD PTR nz$[rbp]
	mov	rcx, QWORD PTR [rcx+48]
	mov	QWORD PTR [rsp+32], rcx
	mov	rcx, QWORD PTR nz$[rbp]
	mov	r9, QWORD PTR [rcx+56]
	mov	r8d, eax
	mov	rax, QWORD PTR nx$[rbp]
	mov	rdx, QWORD PTR [rax+8]
	mov	rax, QWORD PTR nx$[rbp]
	mov	rcx, QWORD PTR [rax+56]
	call	Subtruct_X_1W
	mov	DWORD PTR result$[rbp], eax
	cmp	DWORD PTR result$[rbp], 0
	je	SHORT $LN19@PMC_Subtru

; 596  :                     {
; 597  :                         DeallocateNumber(nz);

	mov	rcx, QWORD PTR nz$[rbp]
	call	DeallocateNumber

; 598  :                         return (result == PMC_STATUS_INTERNAL_BORROW ? PMC_STATUS_OVERFLOW : result);

	cmp	DWORD PTR result$[rbp], -258		; fffffffffffffefeH
	jne	SHORT $LN32@PMC_Subtru
	mov	DWORD PTR tv142[rbp], -2
	jmp	SHORT $LN33@PMC_Subtru
$LN32@PMC_Subtru:
	mov	eax, DWORD PTR result$[rbp]
	mov	DWORD PTR tv142[rbp], eax
$LN33@PMC_Subtru:
	mov	eax, DWORD PTR tv142[rbp]
	jmp	$LN1@PMC_Subtru
$LN19@PMC_Subtru:

; 599  :                     }
; 600  :                     if ((result = CheckBlockLight(nz->BLOCK, nz_light_check_code)) != PMC_STATUS_OK)

	mov	rdx, QWORD PTR nz_light_check_code$13[rbp]
	mov	rax, QWORD PTR nz$[rbp]
	mov	rcx, QWORD PTR [rax+56]
	call	CheckBlockLight
	mov	DWORD PTR result$[rbp], eax
	cmp	DWORD PTR result$[rbp], 0
	je	SHORT $LN20@PMC_Subtru

; 601  :                         return (result);

	mov	eax, DWORD PTR result$[rbp]
	jmp	$LN1@PMC_Subtru
$LN20@PMC_Subtru:

; 602  :                 }

	jmp	$LN16@PMC_Subtru
$LN15@PMC_Subtru:

; 603  :                 else
; 604  :                 {
; 605  :                     // y の値が 32bit では表現できない場合
; 606  :                     __UNIT_TYPE y_bit_count = sizeof(y) * 8 - _LZCNT_ALT_32(y_hi);

	mov	ecx, DWORD PTR y_hi$9[rbp]
	call	_LZCNT_ALT_32
	cdqe
	mov	ecx, 64					; 00000040H
	sub	rcx, rax
	mov	rax, rcx
	mov	QWORD PTR y_bit_count$14[rbp], rax

; 607  :                     if (x_bit_count < y_bit_count)

	mov	rax, QWORD PTR y_bit_count$14[rbp]
	cmp	QWORD PTR x_bit_count$8[rbp], rax
	jae	SHORT $LN21@PMC_Subtru

; 608  :                     {
; 609  :                         // 演算結果は負となってしまうのでエラーを返す。
; 610  :                         return (PMC_STATUS_OVERFLOW);

	mov	eax, -2
	jmp	$LN1@PMC_Subtru
$LN21@PMC_Subtru:

; 611  :                     }
; 612  :                     __UNIT_TYPE z_bit_count = x_bit_count;

	mov	rax, QWORD PTR x_bit_count$8[rbp]
	mov	QWORD PTR z_bit_count$15[rbp], rax

; 613  :                     __UNIT_TYPE nz_light_check_code;
; 614  :                     if ((result = AllocateNumber(&nz, z_bit_count, &nz_light_check_code)) != PMC_STATUS_OK)

	lea	r8, QWORD PTR nz_light_check_code$16[rbp]
	mov	rdx, QWORD PTR z_bit_count$15[rbp]
	lea	rcx, QWORD PTR nz$[rbp]
	call	AllocateNumber
	mov	DWORD PTR result$[rbp], eax
	cmp	DWORD PTR result$[rbp], 0
	je	SHORT $LN22@PMC_Subtru

; 615  :                         return (result);

	mov	eax, DWORD PTR result$[rbp]
	jmp	$LN1@PMC_Subtru
$LN22@PMC_Subtru:

; 616  :                     if ((result = Subtruct_X_2W(nx->BLOCK, nx->UNIT_WORD_COUNT, y_hi, y_lo, nz->BLOCK, nz->BLOCK_COUNT)) != PMC_STATUS_OK)

	mov	eax, DWORD PTR y_lo$10[rbp]
	mov	ecx, DWORD PTR y_hi$9[rbp]
	mov	rdx, QWORD PTR nz$[rbp]
	mov	rdx, QWORD PTR [rdx+48]
	mov	QWORD PTR [rsp+40], rdx
	mov	rdx, QWORD PTR nz$[rbp]
	mov	rdx, QWORD PTR [rdx+56]
	mov	QWORD PTR [rsp+32], rdx
	mov	r9d, eax
	mov	r8d, ecx
	mov	rax, QWORD PTR nx$[rbp]
	mov	rdx, QWORD PTR [rax+8]
	mov	rax, QWORD PTR nx$[rbp]
	mov	rcx, QWORD PTR [rax+56]
	call	Subtruct_X_2W
	mov	DWORD PTR result$[rbp], eax
	cmp	DWORD PTR result$[rbp], 0
	je	SHORT $LN23@PMC_Subtru

; 617  :                     {
; 618  :                         DeallocateNumber(nz);

	mov	rcx, QWORD PTR nz$[rbp]
	call	DeallocateNumber

; 619  :                         return (result == PMC_STATUS_INTERNAL_BORROW ? PMC_STATUS_OVERFLOW : result);

	cmp	DWORD PTR result$[rbp], -258		; fffffffffffffefeH
	jne	SHORT $LN34@PMC_Subtru
	mov	DWORD PTR tv174[rbp], -2
	jmp	SHORT $LN35@PMC_Subtru
$LN34@PMC_Subtru:
	mov	eax, DWORD PTR result$[rbp]
	mov	DWORD PTR tv174[rbp], eax
$LN35@PMC_Subtru:
	mov	eax, DWORD PTR tv174[rbp]
	jmp	$LN1@PMC_Subtru
$LN23@PMC_Subtru:

; 620  :                     }
; 621  :                     if ((result = CheckBlockLight(nz->BLOCK, nz_light_check_code)) != PMC_STATUS_OK)

	mov	rdx, QWORD PTR nz_light_check_code$16[rbp]
	mov	rax, QWORD PTR nz$[rbp]
	mov	rcx, QWORD PTR [rax+56]
	call	CheckBlockLight
	mov	DWORD PTR result$[rbp], eax
	cmp	DWORD PTR result$[rbp], 0
	je	SHORT $LN24@PMC_Subtru

; 622  :                         return (result);

	mov	eax, DWORD PTR result$[rbp]
	jmp	$LN1@PMC_Subtru
$LN24@PMC_Subtru:
$LN16@PMC_Subtru:

; 623  :                 }
; 624  :             }

	jmp	$LN14@PMC_Subtru
$LN13@PMC_Subtru:

; 625  :             else
; 626  :             {
; 627  :                 // _UINT64_T が 1 ワードで表現できる場合
; 628  : 
; 629  :                 __UNIT_TYPE x_bit_count = nx->UNIT_BIT_COUNT;

	mov	rax, QWORD PTR nx$[rbp]
	mov	rax, QWORD PTR [rax+16]
	mov	QWORD PTR x_bit_count$17[rbp], rax

; 630  :                 __UNIT_TYPE y_bit_count = sizeof(y) * 8 - _LZCNT_ALT_UNIT((__UNIT_TYPE)y);

	mov	rcx, QWORD PTR y$[rbp]
	call	_LZCNT_ALT_UNIT
	cdqe
	mov	ecx, 64					; 00000040H
	sub	rcx, rax
	mov	rax, rcx
	mov	QWORD PTR y_bit_count$18[rbp], rax

; 631  :                 if (x_bit_count < y_bit_count)

	mov	rax, QWORD PTR y_bit_count$18[rbp]
	cmp	QWORD PTR x_bit_count$17[rbp], rax
	jae	SHORT $LN25@PMC_Subtru

; 632  :                 {
; 633  :                     // 演算結果は負となってしまうのでエラーを返す。
; 634  :                     return (PMC_STATUS_OVERFLOW);

	mov	eax, -2
	jmp	$LN1@PMC_Subtru
$LN25@PMC_Subtru:

; 635  :                 }
; 636  :                 __UNIT_TYPE z_bit_count = x_bit_count;

	mov	rax, QWORD PTR x_bit_count$17[rbp]
	mov	QWORD PTR z_bit_count$19[rbp], rax

; 637  :                 __UNIT_TYPE nz_light_check_code;
; 638  :                 if ((result = AllocateNumber(&nz, z_bit_count, &nz_light_check_code)) != PMC_STATUS_OK)

	lea	r8, QWORD PTR nz_light_check_code$20[rbp]
	mov	rdx, QWORD PTR z_bit_count$19[rbp]
	lea	rcx, QWORD PTR nz$[rbp]
	call	AllocateNumber
	mov	DWORD PTR result$[rbp], eax
	cmp	DWORD PTR result$[rbp], 0
	je	SHORT $LN26@PMC_Subtru

; 639  :                     return (result);

	mov	eax, DWORD PTR result$[rbp]
	jmp	$LN1@PMC_Subtru
$LN26@PMC_Subtru:

; 640  :                 if ((result = Subtruct_X_1W(nx->BLOCK, nx->UNIT_WORD_COUNT, (__UNIT_TYPE)y, nz->BLOCK, nz->BLOCK_COUNT)) != PMC_STATUS_OK)

	mov	rax, QWORD PTR nz$[rbp]
	mov	rax, QWORD PTR [rax+48]
	mov	QWORD PTR [rsp+32], rax
	mov	rax, QWORD PTR nz$[rbp]
	mov	r9, QWORD PTR [rax+56]
	mov	r8, QWORD PTR y$[rbp]
	mov	rax, QWORD PTR nx$[rbp]
	mov	rdx, QWORD PTR [rax+8]
	mov	rax, QWORD PTR nx$[rbp]
	mov	rcx, QWORD PTR [rax+56]
	call	Subtruct_X_1W
	mov	DWORD PTR result$[rbp], eax
	cmp	DWORD PTR result$[rbp], 0
	je	SHORT $LN27@PMC_Subtru

; 641  :                 {
; 642  :                     DeallocateNumber(nz);

	mov	rcx, QWORD PTR nz$[rbp]
	call	DeallocateNumber

; 643  :                     return (result == PMC_STATUS_INTERNAL_BORROW ? PMC_STATUS_OVERFLOW : result);

	cmp	DWORD PTR result$[rbp], -258		; fffffffffffffefeH
	jne	SHORT $LN36@PMC_Subtru
	mov	DWORD PTR tv204[rbp], -2
	jmp	SHORT $LN37@PMC_Subtru
$LN36@PMC_Subtru:
	mov	eax, DWORD PTR result$[rbp]
	mov	DWORD PTR tv204[rbp], eax
$LN37@PMC_Subtru:
	mov	eax, DWORD PTR tv204[rbp]
	jmp	SHORT $LN1@PMC_Subtru
$LN27@PMC_Subtru:

; 644  :                 }
; 645  :                 if ((result = CheckBlockLight(nz->BLOCK, nz_light_check_code)) != PMC_STATUS_OK)

	mov	rdx, QWORD PTR nz_light_check_code$20[rbp]
	mov	rax, QWORD PTR nz$[rbp]
	mov	rcx, QWORD PTR [rax+56]
	call	CheckBlockLight
	mov	DWORD PTR result$[rbp], eax
	cmp	DWORD PTR result$[rbp], 0
	je	SHORT $LN28@PMC_Subtru

; 646  :                     return (result);

	mov	eax, DWORD PTR result$[rbp]
	jmp	SHORT $LN1@PMC_Subtru
$LN28@PMC_Subtru:
$LN14@PMC_Subtru:

; 647  :             }
; 648  :             CommitNumber(nz);

	mov	rcx, QWORD PTR nz$[rbp]
	call	CommitNumber

; 649  :             if (nz->IS_ZERO)

	mov	rax, QWORD PTR nz$[rbp]
	mov	eax, DWORD PTR [rax+40]
	shr	eax, 1
	and	eax, 1
	test	eax, eax
	je	SHORT $LN29@PMC_Subtru

; 650  :             {
; 651  :                 DeallocateNumber(nz);

	mov	rcx, QWORD PTR nz$[rbp]
	call	DeallocateNumber

; 652  :                 nz = &number_zero;

	lea	rax, OFFSET FLAT:number_zero
	mov	QWORD PTR nz$[rbp], rax
$LN29@PMC_Subtru:
$LN11@PMC_Subtru:

; 653  :             }
; 654  :         }
; 655  :         *o = nz;

	mov	rax, QWORD PTR o$[rbp]
	mov	rcx, QWORD PTR nz$[rbp]
	mov	QWORD PTR [rax], rcx
$LN7@PMC_Subtru:

; 656  :     }
; 657  : #ifdef _DEBUG
; 658  :     if ((result = CheckNumber(*o)) != PMC_STATUS_OK)

	mov	rax, QWORD PTR o$[rbp]
	mov	rcx, QWORD PTR [rax]
	call	CheckNumber
	mov	DWORD PTR result$[rbp], eax
	cmp	DWORD PTR result$[rbp], 0
	je	SHORT $LN30@PMC_Subtru

; 659  :         return (result);

	mov	eax, DWORD PTR result$[rbp]
	jmp	SHORT $LN1@PMC_Subtru
$LN30@PMC_Subtru:

; 660  : #endif
; 661  :     return (PMC_STATUS_OK);

	xor	eax, eax
$LN1@PMC_Subtru:

; 662  : }

	mov	rdi, rax
	lea	rcx, QWORD PTR [rbp-48]
	lea	rdx, OFFSET FLAT:PMC_Subtruct_X_L$rtcFrameData
	call	_RTC_CheckStackVars
	mov	rax, rdi
	lea	rsp, QWORD PTR [rbp+712]
	pop	rdi
	pop	rbp
	ret	0
PMC_Subtruct_X_L ENDP
_TEXT	ENDS
; Function compile flags: /Odtp /RTCsu /ZI
; File z:\sources\lunor\repos\rougemeilland\palmtree.math.core.uint\palmtree.math.core.uint\pmc_subtruct.c
;	COMDAT PMC_Subtruct_X_I
_TEXT	SEGMENT
nu$ = 8
result$ = 36
nw$ = 72
u_bit_count$5 = 104
v_bit_count$6 = 136
w_bit_count$7 = 168
w_light_check_code$8 = 200
tv137 = 404
u$ = 448
v$ = 456
w$ = 464
PMC_Subtruct_X_I PROC					; COMDAT

; 269  : {

$LN22:
	mov	QWORD PTR [rsp+24], r8
	mov	DWORD PTR [rsp+16], edx
	mov	QWORD PTR [rsp+8], rcx
	push	rbp
	push	rdi
	sub	rsp, 472				; 000001d8H
	lea	rbp, QWORD PTR [rsp+48]
	mov	rdi, rsp
	mov	ecx, 118				; 00000076H
	mov	eax, -858993460				; ccccccccH
	rep stosd
	mov	rcx, QWORD PTR [rsp+504]
	lea	rcx, OFFSET FLAT:__6B07DC87_pmc_subtruct@c
	call	__CheckForDebuggerJustMyCode

; 270  :     if (__UNIT_TYPE_BIT_COUNT < sizeof(v) * 8)

	xor	eax, eax
	test	eax, eax
	je	SHORT $LN2@PMC_Subtru

; 271  :     {
; 272  :         // _UINT32_T が 1 ワードで表現しきれない処理系には対応しない
; 273  :         return (PMC_STATUS_INTERNAL_ERROR);

	mov	eax, -256				; ffffffffffffff00H
	jmp	$LN1@PMC_Subtru
$LN2@PMC_Subtru:

; 274  :     }
; 275  :     if (u == NULL)

	cmp	QWORD PTR u$[rbp], 0
	jne	SHORT $LN3@PMC_Subtru

; 276  :         return (PMC_STATUS_ARGUMENT_ERROR);

	mov	eax, -1
	jmp	$LN1@PMC_Subtru
$LN3@PMC_Subtru:

; 277  :     if (w == NULL)

	cmp	QWORD PTR w$[rbp], 0
	jne	SHORT $LN4@PMC_Subtru

; 278  :         return (PMC_STATUS_ARGUMENT_ERROR);

	mov	eax, -1
	jmp	$LN1@PMC_Subtru
$LN4@PMC_Subtru:

; 279  :     NUMBER_HEADER* nu = (NUMBER_HEADER*)u;

	mov	rax, QWORD PTR u$[rbp]
	mov	QWORD PTR nu$[rbp], rax

; 280  :     PMC_STATUS_CODE result;
; 281  :     if ((result = CheckNumber(nu)) != PMC_STATUS_OK)

	mov	rcx, QWORD PTR nu$[rbp]
	call	CheckNumber
	mov	DWORD PTR result$[rbp], eax
	cmp	DWORD PTR result$[rbp], 0
	je	SHORT $LN5@PMC_Subtru

; 282  :         return (result);

	mov	eax, DWORD PTR result$[rbp]
	jmp	$LN1@PMC_Subtru
$LN5@PMC_Subtru:

; 283  :     NUMBER_HEADER* nw;
; 284  :     if (nu->IS_ZERO)

	mov	rax, QWORD PTR nu$[rbp]
	mov	eax, DWORD PTR [rax+40]
	shr	eax, 1
	and	eax, 1
	test	eax, eax
	je	SHORT $LN6@PMC_Subtru

; 285  :     {
; 286  :         // u が 0 である場合
; 287  : 
; 288  :         if (v == 0)

	cmp	DWORD PTR v$[rbp], 0
	jne	SHORT $LN8@PMC_Subtru

; 289  :         {
; 290  :             // v が 0 である場合
; 291  : 
; 292  :             // u と v がともに 0 であるので、演算結果の 0 を呼び出し元に返す。
; 293  :             *w = &number_zero;

	mov	rax, QWORD PTR w$[rbp]
	lea	rcx, OFFSET FLAT:number_zero
	mov	QWORD PTR [rax], rcx

; 294  :         }

	jmp	SHORT $LN9@PMC_Subtru
$LN8@PMC_Subtru:

; 295  :         else
; 296  :         {
; 297  :             // v が 0 ではない場合
; 298  : 
; 299  :             // 演算結果は負となってしまうのでエラーを返す。
; 300  :             return (PMC_STATUS_OVERFLOW);

	mov	eax, -2
	jmp	$LN1@PMC_Subtru
$LN9@PMC_Subtru:

; 301  :         }
; 302  :     }

	jmp	$LN7@PMC_Subtru
$LN6@PMC_Subtru:

; 303  :     else
; 304  :     {
; 305  :         // u が 0 ではない場合
; 306  : 
; 307  :         if (v == 0)

	cmp	DWORD PTR v$[rbp], 0
	jne	SHORT $LN10@PMC_Subtru

; 308  :         {
; 309  :             // v が 0 である場合
; 310  : 
; 311  :             // 演算結果となる x の値を持つ NUMBER_HEADER 構造体を獲得し、呼び出し元へ返す。
; 312  :             if ((result = DuplicateNumber(nu, &nw)) != PMC_STATUS_OK)

	lea	rdx, QWORD PTR nw$[rbp]
	mov	rcx, QWORD PTR nu$[rbp]
	call	DuplicateNumber
	mov	DWORD PTR result$[rbp], eax
	cmp	DWORD PTR result$[rbp], 0
	je	SHORT $LN12@PMC_Subtru

; 313  :                 return (result);

	mov	eax, DWORD PTR result$[rbp]
	jmp	$LN1@PMC_Subtru
$LN12@PMC_Subtru:

; 314  :         }

	jmp	$LN11@PMC_Subtru
$LN10@PMC_Subtru:

; 315  :         else
; 316  :         {
; 317  :             // u と v がともに 0 ではない場合
; 318  : 
; 319  :             // u と v の差を計算する
; 320  :             __UNIT_TYPE u_bit_count = nu->UNIT_BIT_COUNT;

	mov	rax, QWORD PTR nu$[rbp]
	mov	rax, QWORD PTR [rax+16]
	mov	QWORD PTR u_bit_count$5[rbp], rax

; 321  :             __UNIT_TYPE v_bit_count = sizeof(v) * 8 - _LZCNT_ALT_32(v);

	mov	ecx, DWORD PTR v$[rbp]
	call	_LZCNT_ALT_32
	cdqe
	mov	ecx, 32					; 00000020H
	sub	rcx, rax
	mov	rax, rcx
	mov	QWORD PTR v_bit_count$6[rbp], rax

; 322  :             if (u_bit_count < v_bit_count)

	mov	rax, QWORD PTR v_bit_count$6[rbp]
	cmp	QWORD PTR u_bit_count$5[rbp], rax
	jae	SHORT $LN13@PMC_Subtru

; 323  :             {
; 324  :                 // 演算結果は負となってしまうのでエラーを返す。
; 325  :                 return (PMC_STATUS_OVERFLOW);

	mov	eax, -2
	jmp	$LN1@PMC_Subtru
$LN13@PMC_Subtru:

; 326  :             }
; 327  :             __UNIT_TYPE w_bit_count = u_bit_count;

	mov	rax, QWORD PTR u_bit_count$5[rbp]
	mov	QWORD PTR w_bit_count$7[rbp], rax

; 328  :             __UNIT_TYPE w_light_check_code;
; 329  :             if ((result = AllocateNumber(&nw, w_bit_count, &w_light_check_code)) != PMC_STATUS_OK)

	lea	r8, QWORD PTR w_light_check_code$8[rbp]
	mov	rdx, QWORD PTR w_bit_count$7[rbp]
	lea	rcx, QWORD PTR nw$[rbp]
	call	AllocateNumber
	mov	DWORD PTR result$[rbp], eax
	cmp	DWORD PTR result$[rbp], 0
	je	SHORT $LN14@PMC_Subtru

; 330  :                 return (result);

	mov	eax, DWORD PTR result$[rbp]
	jmp	$LN1@PMC_Subtru
$LN14@PMC_Subtru:

; 331  :             if ((result = Subtruct_X_1W(nu->BLOCK, nu->UNIT_WORD_COUNT, v, nw->BLOCK, nw->BLOCK_COUNT)) != PMC_STATUS_OK)

	mov	eax, DWORD PTR v$[rbp]
	mov	rcx, QWORD PTR nw$[rbp]
	mov	rcx, QWORD PTR [rcx+48]
	mov	QWORD PTR [rsp+32], rcx
	mov	rcx, QWORD PTR nw$[rbp]
	mov	r9, QWORD PTR [rcx+56]
	mov	r8d, eax
	mov	rax, QWORD PTR nu$[rbp]
	mov	rdx, QWORD PTR [rax+8]
	mov	rax, QWORD PTR nu$[rbp]
	mov	rcx, QWORD PTR [rax+56]
	call	Subtruct_X_1W
	mov	DWORD PTR result$[rbp], eax
	cmp	DWORD PTR result$[rbp], 0
	je	SHORT $LN15@PMC_Subtru

; 332  :             {
; 333  :                 DeallocateNumber(nw);

	mov	rcx, QWORD PTR nw$[rbp]
	call	DeallocateNumber

; 334  :                 return (result == PMC_STATUS_INTERNAL_BORROW ? PMC_STATUS_OVERFLOW : result);

	cmp	DWORD PTR result$[rbp], -258		; fffffffffffffefeH
	jne	SHORT $LN20@PMC_Subtru
	mov	DWORD PTR tv137[rbp], -2
	jmp	SHORT $LN21@PMC_Subtru
$LN20@PMC_Subtru:
	mov	eax, DWORD PTR result$[rbp]
	mov	DWORD PTR tv137[rbp], eax
$LN21@PMC_Subtru:
	mov	eax, DWORD PTR tv137[rbp]
	jmp	SHORT $LN1@PMC_Subtru
$LN15@PMC_Subtru:

; 335  :             }
; 336  :             if ((result = CheckBlockLight(nw->BLOCK, w_light_check_code)) != PMC_STATUS_OK)

	mov	rdx, QWORD PTR w_light_check_code$8[rbp]
	mov	rax, QWORD PTR nw$[rbp]
	mov	rcx, QWORD PTR [rax+56]
	call	CheckBlockLight
	mov	DWORD PTR result$[rbp], eax
	cmp	DWORD PTR result$[rbp], 0
	je	SHORT $LN16@PMC_Subtru

; 337  :                 return (result);

	mov	eax, DWORD PTR result$[rbp]
	jmp	SHORT $LN1@PMC_Subtru
$LN16@PMC_Subtru:

; 338  :             CommitNumber(nw);

	mov	rcx, QWORD PTR nw$[rbp]
	call	CommitNumber

; 339  :             if (nw->IS_ZERO)

	mov	rax, QWORD PTR nw$[rbp]
	mov	eax, DWORD PTR [rax+40]
	shr	eax, 1
	and	eax, 1
	test	eax, eax
	je	SHORT $LN17@PMC_Subtru

; 340  :             {
; 341  :                 DeallocateNumber(nw);

	mov	rcx, QWORD PTR nw$[rbp]
	call	DeallocateNumber

; 342  :                 nw = &number_zero;

	lea	rax, OFFSET FLAT:number_zero
	mov	QWORD PTR nw$[rbp], rax
$LN17@PMC_Subtru:
$LN11@PMC_Subtru:

; 343  :             }
; 344  :         }
; 345  :         *w = nw;

	mov	rax, QWORD PTR w$[rbp]
	mov	rcx, QWORD PTR nw$[rbp]
	mov	QWORD PTR [rax], rcx
$LN7@PMC_Subtru:

; 346  :     }
; 347  : #ifdef _DEBUG
; 348  :     if ((result = CheckNumber(*w)) != PMC_STATUS_OK)

	mov	rax, QWORD PTR w$[rbp]
	mov	rcx, QWORD PTR [rax]
	call	CheckNumber
	mov	DWORD PTR result$[rbp], eax
	cmp	DWORD PTR result$[rbp], 0
	je	SHORT $LN18@PMC_Subtru

; 349  :         return (result);

	mov	eax, DWORD PTR result$[rbp]
	jmp	SHORT $LN1@PMC_Subtru
$LN18@PMC_Subtru:

; 350  : #endif
; 351  :     return (PMC_STATUS_OK);

	xor	eax, eax
$LN1@PMC_Subtru:

; 352  : }

	mov	rdi, rax
	lea	rcx, QWORD PTR [rbp-48]
	lea	rdx, OFFSET FLAT:PMC_Subtruct_X_I$rtcFrameData
	call	_RTC_CheckStackVars
	mov	rax, rdi
	lea	rsp, QWORD PTR [rbp+424]
	pop	rdi
	pop	rbp
	ret	0
PMC_Subtruct_X_I ENDP
_TEXT	ENDS
; Function compile flags: /Odtp /RTCsu /ZI
; File z:\sources\lunor\repos\rougemeilland\palmtree.math.core.uint\palmtree.math.core.uint\pmc_subtruct.c
;	COMDAT PMC_Subtruct_L_X
_TEXT	SEGMENT
nv$ = 8
result$ = 36
u_hi$8 = 68
u_lo$9 = 100
u_bit_count$10 = 136
v_bit_count$11 = 168
temp_w$12 = 200
borrow$13 = 228
u_bit_count$14 = 264
v_bit_count$15 = 296
temp_w_hi$16 = 328
temp_w_lo$17 = 360
borrow$18 = 388
u_bit_count$19 = 424
v_bit_count$20 = 456
temp_w$21 = 488
borrow$22 = 516
u$ = 960
v$ = 968
w$ = 976
PMC_Subtruct_L_X PROC					; COMDAT

; 355  : {

$LN31:
	mov	QWORD PTR [rsp+24], r8
	mov	QWORD PTR [rsp+16], rdx
	mov	QWORD PTR [rsp+8], rcx
	push	rbp
	push	rdi
	sub	rsp, 968				; 000003c8H
	lea	rbp, QWORD PTR [rsp+32]
	mov	rdi, rsp
	mov	ecx, 242				; 000000f2H
	mov	eax, -858993460				; ccccccccH
	rep stosd
	mov	rcx, QWORD PTR [rsp+1000]
	lea	rcx, OFFSET FLAT:__6B07DC87_pmc_subtruct@c
	call	__CheckForDebuggerJustMyCode

; 356  :     if (__UNIT_TYPE_BIT_COUNT * 2 < sizeof(u) * 8)

	xor	eax, eax
	test	eax, eax
	je	SHORT $LN2@PMC_Subtru

; 357  :     {
; 358  :         // _UINT64_T が 2 ワードで表現しきれない処理系には対応しない
; 359  :         return (PMC_STATUS_INTERNAL_ERROR);

	mov	eax, -256				; ffffffffffffff00H
	jmp	$LN1@PMC_Subtru
$LN2@PMC_Subtru:

; 360  :     }
; 361  :     if (v == NULL)

	cmp	QWORD PTR v$[rbp], 0
	jne	SHORT $LN3@PMC_Subtru

; 362  :         return (PMC_STATUS_ARGUMENT_ERROR);

	mov	eax, -1
	jmp	$LN1@PMC_Subtru
$LN3@PMC_Subtru:

; 363  :     if (w == NULL)

	cmp	QWORD PTR w$[rbp], 0
	jne	SHORT $LN4@PMC_Subtru

; 364  :         return (PMC_STATUS_ARGUMENT_ERROR);

	mov	eax, -1
	jmp	$LN1@PMC_Subtru
$LN4@PMC_Subtru:

; 365  :     NUMBER_HEADER* nv = (NUMBER_HEADER*)v;

	mov	rax, QWORD PTR v$[rbp]
	mov	QWORD PTR nv$[rbp], rax

; 366  :     PMC_STATUS_CODE result;
; 367  :     if ((result = CheckNumber(nv)) != PMC_STATUS_OK)

	mov	rcx, QWORD PTR nv$[rbp]
	call	CheckNumber
	mov	DWORD PTR result$[rbp], eax
	cmp	DWORD PTR result$[rbp], 0
	je	SHORT $LN5@PMC_Subtru

; 368  :         return (result);

	mov	eax, DWORD PTR result$[rbp]
	jmp	$LN1@PMC_Subtru
$LN5@PMC_Subtru:

; 369  :     if (u == 0)

	cmp	QWORD PTR u$[rbp], 0
	jne	SHORT $LN6@PMC_Subtru

; 370  :     {
; 371  :         // u が 0 である場合
; 372  : 
; 373  :         if (nv->IS_ZERO)

	mov	rax, QWORD PTR nv$[rbp]
	mov	eax, DWORD PTR [rax+40]
	shr	eax, 1
	and	eax, 1
	test	eax, eax
	je	SHORT $LN8@PMC_Subtru

; 374  :         {
; 375  :             // v が 0 である場合
; 376  : 
; 377  :             // x と y がともに 0 であるので、演算結果の 0 を呼び出し元に返す。
; 378  :             *w = 0;

	mov	rax, QWORD PTR w$[rbp]
	mov	QWORD PTR [rax], 0

; 379  :         }

	jmp	SHORT $LN9@PMC_Subtru
$LN8@PMC_Subtru:

; 380  :         else
; 381  :         {
; 382  :             // v が 0 ではない場合
; 383  : 
; 384  :             // 演算結果は負となってしまうのでエラーを返す。
; 385  :             return (PMC_STATUS_OVERFLOW);

	mov	eax, -2
	jmp	$LN1@PMC_Subtru
$LN9@PMC_Subtru:

; 386  :         }
; 387  :     }

	jmp	$LN7@PMC_Subtru
$LN6@PMC_Subtru:

; 388  :     else
; 389  :     {
; 390  :         // u が 0 ではない場合
; 391  : 
; 392  :         if (nv->IS_ZERO)

	mov	rax, QWORD PTR nv$[rbp]
	mov	eax, DWORD PTR [rax+40]
	shr	eax, 1
	and	eax, 1
	test	eax, eax
	je	SHORT $LN10@PMC_Subtru

; 393  :         {
; 394  :             // v が 0 である場合
; 395  : 
; 396  :             // 演算結果となる u の値を持つ NUMBER_HEADER 構造体を獲得し、呼び出し元へ返す。
; 397  :             *w = u;

	mov	rax, QWORD PTR w$[rbp]
	mov	rcx, QWORD PTR u$[rbp]
	mov	QWORD PTR [rax], rcx

; 398  :         }

	jmp	$LN11@PMC_Subtru
$LN10@PMC_Subtru:

; 399  :         else
; 400  :         {
; 401  :             // u と v がともに 0 ではない場合
; 402  : 
; 403  :             // u と v の差を計算する
; 404  :             if (__UNIT_TYPE_BIT_COUNT < sizeof(u) * 8)

	xor	eax, eax
	test	eax, eax
	je	$LN12@PMC_Subtru

; 405  :             {
; 406  :                 // _UINT64_T が 1 ワードで表現しきれない場合
; 407  : 
; 408  :                 _UINT32_T u_hi;
; 409  :                 _UINT32_T u_lo = _FROMDWORDTOWORD(u, &u_hi);

	lea	rdx, QWORD PTR u_hi$8[rbp]
	mov	rcx, QWORD PTR u$[rbp]
	call	_FROMDWORDTOWORD
	mov	DWORD PTR u_lo$9[rbp], eax

; 410  :                 if (u_hi == 0)

	cmp	DWORD PTR u_hi$8[rbp], 0
	jne	$LN14@PMC_Subtru

; 411  :                 {
; 412  :                     // u の値が 32bit で表現可能な場合
; 413  :                     __UNIT_TYPE u_bit_count = sizeof(u_lo) * 8 - _LZCNT_ALT_32(u_lo);

	mov	ecx, DWORD PTR u_lo$9[rbp]
	call	_LZCNT_ALT_32
	cdqe
	mov	ecx, 32					; 00000020H
	sub	rcx, rax
	mov	rax, rcx
	mov	QWORD PTR u_bit_count$10[rbp], rax

; 414  :                     __UNIT_TYPE v_bit_count = nv->UNIT_BIT_COUNT;

	mov	rax, QWORD PTR nv$[rbp]
	mov	rax, QWORD PTR [rax+16]
	mov	QWORD PTR v_bit_count$11[rbp], rax

; 415  :                     if (u_bit_count < v_bit_count)

	mov	rax, QWORD PTR v_bit_count$11[rbp]
	cmp	QWORD PTR u_bit_count$10[rbp], rax
	jae	SHORT $LN16@PMC_Subtru

; 416  :                     {
; 417  :                         // 明らかに u < v である場合
; 418  : 
; 419  :                         // 演算結果は負となってしまうのでエラーを返す。
; 420  :                         return (PMC_STATUS_OVERFLOW);

	mov	eax, -2
	jmp	$LN1@PMC_Subtru

; 421  :                     }

	jmp	SHORT $LN17@PMC_Subtru
$LN16@PMC_Subtru:

; 422  :                     else
; 423  :                     {
; 424  :                         // u のビット長が v のビット長以上である場合
; 425  : 
; 426  :                         // u が32bit 整数で表現できるので v も 32bit 整数で表現できる
; 427  : 
; 428  :                         __UNIT_TYPE temp_w;
; 429  :                         char borrow = _SUBTRUCT_UNIT(0, u_lo, nv->BLOCK[0], &temp_w);

	mov	eax, 8
	imul	rax, rax, 0
	mov	rcx, QWORD PTR nv$[rbp]
	mov	rcx, QWORD PTR [rcx+56]
	mov	edx, DWORD PTR u_lo$9[rbp]
	lea	r9, QWORD PTR temp_w$12[rbp]
	mov	r8, QWORD PTR [rcx+rax]
	xor	ecx, ecx
	call	_SUBTRUCT_UNIT
	mov	BYTE PTR borrow$13[rbp], al

; 430  :                         if (borrow)

	movsx	eax, BYTE PTR borrow$13[rbp]
	test	eax, eax
	je	SHORT $LN18@PMC_Subtru

; 431  :                         {
; 432  :                             // ボローが発生した場合は演算結果が負なのでエラーとする
; 433  :                             return (PMC_STATUS_OVERFLOW);

	mov	eax, -2
	jmp	$LN1@PMC_Subtru

; 434  :                         }

	jmp	SHORT $LN19@PMC_Subtru
$LN18@PMC_Subtru:

; 435  :                         else
; 436  :                         {
; 437  :                             *w = temp_w;

	mov	rax, QWORD PTR w$[rbp]
	mov	rcx, QWORD PTR temp_w$12[rbp]
	mov	QWORD PTR [rax], rcx
$LN19@PMC_Subtru:
$LN17@PMC_Subtru:

; 438  :                         }
; 439  :                     }
; 440  :                 }

	jmp	$LN15@PMC_Subtru
$LN14@PMC_Subtru:

; 441  :                 else
; 442  :                 {
; 443  :                     // u の値が 32bit では表現できない場合
; 444  :                     __UNIT_TYPE u_bit_count = sizeof(u) * 8 - _LZCNT_ALT_32(u_hi);

	mov	ecx, DWORD PTR u_hi$8[rbp]
	call	_LZCNT_ALT_32
	cdqe
	mov	ecx, 64					; 00000040H
	sub	rcx, rax
	mov	rax, rcx
	mov	QWORD PTR u_bit_count$14[rbp], rax

; 445  :                     __UNIT_TYPE v_bit_count = nv->UNIT_BIT_COUNT;

	mov	rax, QWORD PTR nv$[rbp]
	mov	rax, QWORD PTR [rax+16]
	mov	QWORD PTR v_bit_count$15[rbp], rax

; 446  :                     if (u_bit_count < v_bit_count)

	mov	rax, QWORD PTR v_bit_count$15[rbp]
	cmp	QWORD PTR u_bit_count$14[rbp], rax
	jae	SHORT $LN20@PMC_Subtru

; 447  :                     {
; 448  :                         // 明らかに u < v である場合
; 449  : 
; 450  :                         // 演算結果は負となってしまうのでエラーを返す。
; 451  :                         return (PMC_STATUS_OVERFLOW);

	mov	eax, -2
	jmp	$LN1@PMC_Subtru

; 452  :                     }

	jmp	$LN21@PMC_Subtru
$LN20@PMC_Subtru:

; 453  :                     else
; 454  :                     {
; 455  :                         // u のビット長が v のビット長以上である場合
; 456  : 
; 457  :                         // この時点では u は 33 ～ 64bit 整数であり、v は 1 ～ 64bit整数である
; 458  : 
; 459  :                         __UNIT_TYPE temp_w_hi;
; 460  :                         __UNIT_TYPE temp_w_lo;
; 461  :                         char borrow;
; 462  :                         borrow = _SUBTRUCT_UNIT(0, u_lo, nv->BLOCK[0], &temp_w_lo);

	mov	eax, 8
	imul	rax, rax, 0
	mov	rcx, QWORD PTR nv$[rbp]
	mov	rcx, QWORD PTR [rcx+56]
	mov	edx, DWORD PTR u_lo$9[rbp]
	lea	r9, QWORD PTR temp_w_lo$17[rbp]
	mov	r8, QWORD PTR [rcx+rax]
	xor	ecx, ecx
	call	_SUBTRUCT_UNIT
	mov	BYTE PTR borrow$18[rbp], al

; 463  :                         if (nv->UNIT_WORD_COUNT <= 1)

	mov	rax, QWORD PTR nv$[rbp]
	cmp	QWORD PTR [rax+8], 1
	ja	SHORT $LN22@PMC_Subtru

; 464  :                         {
; 465  :                             // v が 1 ワードで表現できる場合(1 ～ 32bit 整数)
; 466  :                             borrow = _SUBTRUCT_UNIT(borrow, u_hi, 0, &temp_w_hi);

	mov	eax, DWORD PTR u_hi$8[rbp]
	lea	r9, QWORD PTR temp_w_hi$16[rbp]
	xor	r8d, r8d
	mov	edx, eax
	movzx	ecx, BYTE PTR borrow$18[rbp]
	call	_SUBTRUCT_UNIT
	mov	BYTE PTR borrow$18[rbp], al

; 467  :                         }

	jmp	SHORT $LN23@PMC_Subtru
$LN22@PMC_Subtru:

; 468  :                         else
; 469  :                         {
; 470  :                             // v が 1 ワードで表現できない場合(33 ～ 64bit 整数)
; 471  :                             borrow = _SUBTRUCT_UNIT(borrow, u_hi, nv->BLOCK[1], &temp_w_hi);

	mov	eax, 8
	imul	rax, rax, 1
	mov	rcx, QWORD PTR nv$[rbp]
	mov	rcx, QWORD PTR [rcx+56]
	mov	edx, DWORD PTR u_hi$8[rbp]
	lea	r9, QWORD PTR temp_w_hi$16[rbp]
	mov	r8, QWORD PTR [rcx+rax]
	movzx	ecx, BYTE PTR borrow$18[rbp]
	call	_SUBTRUCT_UNIT
	mov	BYTE PTR borrow$18[rbp], al
$LN23@PMC_Subtru:

; 472  :                         }
; 473  :                         if (borrow)

	movsx	eax, BYTE PTR borrow$18[rbp]
	test	eax, eax
	je	SHORT $LN24@PMC_Subtru

; 474  :                         {
; 475  :                             // ボローが発生した場合は演算結果が負なのでエラーとする
; 476  :                             return (PMC_STATUS_OVERFLOW);

	mov	eax, -2
	jmp	$LN1@PMC_Subtru

; 477  :                         }

	jmp	SHORT $LN25@PMC_Subtru
$LN24@PMC_Subtru:

; 478  :                         else
; 479  :                         {
; 480  :                             *w = _FROMWORDTODWORD((_UINT32_T)temp_w_hi, (_UINT32_T)temp_w_lo);

	mov	edx, DWORD PTR temp_w_lo$17[rbp]
	mov	ecx, DWORD PTR temp_w_hi$16[rbp]
	call	_FROMWORDTODWORD
	mov	rcx, QWORD PTR w$[rbp]
	mov	QWORD PTR [rcx], rax
$LN25@PMC_Subtru:
$LN21@PMC_Subtru:
$LN15@PMC_Subtru:

; 481  :                         }
; 482  : 
; 483  :                     }
; 484  :                 }
; 485  :             }

	jmp	$LN13@PMC_Subtru
$LN12@PMC_Subtru:

; 486  :             else
; 487  :             {
; 488  :                 // _UINT64_T が 1 ワードで表現できる場合
; 489  : 
; 490  :                 __UNIT_TYPE u_bit_count = sizeof(u) * 8 - _LZCNT_ALT_UNIT((__UNIT_TYPE)u);

	mov	rcx, QWORD PTR u$[rbp]
	call	_LZCNT_ALT_UNIT
	cdqe
	mov	ecx, 64					; 00000040H
	sub	rcx, rax
	mov	rax, rcx
	mov	QWORD PTR u_bit_count$19[rbp], rax

; 491  :                 __UNIT_TYPE v_bit_count = nv->UNIT_BIT_COUNT;

	mov	rax, QWORD PTR nv$[rbp]
	mov	rax, QWORD PTR [rax+16]
	mov	QWORD PTR v_bit_count$20[rbp], rax

; 492  :                 if (u_bit_count < v_bit_count)

	mov	rax, QWORD PTR v_bit_count$20[rbp]
	cmp	QWORD PTR u_bit_count$19[rbp], rax
	jae	SHORT $LN26@PMC_Subtru

; 493  :                 {
; 494  :                     // 明らかに u < v である場合
; 495  : 
; 496  :                     // 演算結果は負となってしまうのでエラーを返す。
; 497  :                     return (PMC_STATUS_OVERFLOW);

	mov	eax, -2
	jmp	SHORT $LN1@PMC_Subtru

; 498  :                 }

	jmp	SHORT $LN27@PMC_Subtru
$LN26@PMC_Subtru:

; 499  :                 else
; 500  :                 {
; 501  :                     // u のビット長が v のビット長以上である場合
; 502  : 
; 503  :                     // u が 64bit 整数で表現できるので v も 64bit 整数で表現できる
; 504  : 
; 505  :                     __UNIT_TYPE temp_w;
; 506  :                     char borrow = _SUBTRUCT_UNIT(0, (__UNIT_TYPE)u, nv->BLOCK[0], &temp_w);

	mov	eax, 8
	imul	rax, rax, 0
	mov	rcx, QWORD PTR nv$[rbp]
	mov	rcx, QWORD PTR [rcx+56]
	lea	r9, QWORD PTR temp_w$21[rbp]
	mov	r8, QWORD PTR [rcx+rax]
	mov	rdx, QWORD PTR u$[rbp]
	xor	ecx, ecx
	call	_SUBTRUCT_UNIT
	mov	BYTE PTR borrow$22[rbp], al

; 507  :                     if (borrow)

	movsx	eax, BYTE PTR borrow$22[rbp]
	test	eax, eax
	je	SHORT $LN28@PMC_Subtru

; 508  :                     {
; 509  :                         // ボローが発生した場合は演算結果が負なのでエラーとする
; 510  :                         return (PMC_STATUS_OVERFLOW);

	mov	eax, -2
	jmp	SHORT $LN1@PMC_Subtru

; 511  :                     }

	jmp	SHORT $LN29@PMC_Subtru
$LN28@PMC_Subtru:

; 512  :                     else
; 513  :                     {
; 514  :                         *w = temp_w;

	mov	rax, QWORD PTR w$[rbp]
	mov	rcx, QWORD PTR temp_w$21[rbp]
	mov	QWORD PTR [rax], rcx
$LN29@PMC_Subtru:
$LN27@PMC_Subtru:
$LN13@PMC_Subtru:
$LN11@PMC_Subtru:
$LN7@PMC_Subtru:

; 515  :                     }
; 516  :                 }
; 517  :             }
; 518  :         }
; 519  :     }
; 520  :     return (PMC_STATUS_OK);

	xor	eax, eax
$LN1@PMC_Subtru:

; 521  : }

	mov	rdi, rax
	lea	rcx, QWORD PTR [rbp-32]
	lea	rdx, OFFSET FLAT:PMC_Subtruct_L_X$rtcFrameData
	call	_RTC_CheckStackVars
	mov	rax, rdi
	lea	rsp, QWORD PTR [rbp+936]
	pop	rdi
	pop	rbp
	ret	0
PMC_Subtruct_L_X ENDP
_TEXT	ENDS
; Function compile flags: /Odtp /RTCsu /ZI
; File z:\sources\lunor\repos\rougemeilland\palmtree.math.core.uint\palmtree.math.core.uint\pmc_subtruct.c
;	COMDAT PMC_Subtruct_I_X
_TEXT	SEGMENT
nv$ = 8
result$ = 36
u_bit_count$4 = 72
v_bit_count$5 = 104
temp_w$6 = 136
borrow$7 = 164
u$ = 416
v$ = 424
w$ = 432
PMC_Subtruct_I_X PROC					; COMDAT

; 189  : {

$LN17:
	mov	QWORD PTR [rsp+24], r8
	mov	QWORD PTR [rsp+16], rdx
	mov	DWORD PTR [rsp+8], ecx
	push	rbp
	push	rdi
	sub	rsp, 424				; 000001a8H
	lea	rbp, QWORD PTR [rsp+32]
	mov	rdi, rsp
	mov	ecx, 106				; 0000006aH
	mov	eax, -858993460				; ccccccccH
	rep stosd
	mov	ecx, DWORD PTR [rsp+456]
	lea	rcx, OFFSET FLAT:__6B07DC87_pmc_subtruct@c
	call	__CheckForDebuggerJustMyCode

; 190  :     if (__UNIT_TYPE_BIT_COUNT < sizeof(u) * 8)

	xor	eax, eax
	test	eax, eax
	je	SHORT $LN2@PMC_Subtru

; 191  :     {
; 192  :         // _UINT32_T が 1 ワードで表現しきれない処理系には対応しない
; 193  :         return (PMC_STATUS_INTERNAL_ERROR);

	mov	eax, -256				; ffffffffffffff00H
	jmp	$LN1@PMC_Subtru
$LN2@PMC_Subtru:

; 194  :     }
; 195  :     if (v == NULL)

	cmp	QWORD PTR v$[rbp], 0
	jne	SHORT $LN3@PMC_Subtru

; 196  :         return (PMC_STATUS_ARGUMENT_ERROR);

	mov	eax, -1
	jmp	$LN1@PMC_Subtru
$LN3@PMC_Subtru:

; 197  :     if (w == NULL)

	cmp	QWORD PTR w$[rbp], 0
	jne	SHORT $LN4@PMC_Subtru

; 198  :         return (PMC_STATUS_ARGUMENT_ERROR);

	mov	eax, -1
	jmp	$LN1@PMC_Subtru
$LN4@PMC_Subtru:

; 199  :     NUMBER_HEADER* nv = (NUMBER_HEADER*)v;

	mov	rax, QWORD PTR v$[rbp]
	mov	QWORD PTR nv$[rbp], rax

; 200  :     PMC_STATUS_CODE result;
; 201  :     if ((result = CheckNumber(nv)) != PMC_STATUS_OK)

	mov	rcx, QWORD PTR nv$[rbp]
	call	CheckNumber
	mov	DWORD PTR result$[rbp], eax
	cmp	DWORD PTR result$[rbp], 0
	je	SHORT $LN5@PMC_Subtru

; 202  :         return (result);

	mov	eax, DWORD PTR result$[rbp]
	jmp	$LN1@PMC_Subtru
$LN5@PMC_Subtru:

; 203  :     if (u == 0)

	cmp	DWORD PTR u$[rbp], 0
	jne	SHORT $LN6@PMC_Subtru

; 204  :     {
; 205  :         // u が 0 である場合
; 206  : 
; 207  :         if (nv->IS_ZERO)

	mov	rax, QWORD PTR nv$[rbp]
	mov	eax, DWORD PTR [rax+40]
	shr	eax, 1
	and	eax, 1
	test	eax, eax
	je	SHORT $LN8@PMC_Subtru

; 208  :         {
; 209  :             // v が 0 である場合
; 210  : 
; 211  :             // u と v がともに 0 であるので、演算結果の 0 を呼び出し元に返す。
; 212  :             *w = 0;

	mov	rax, QWORD PTR w$[rbp]
	mov	DWORD PTR [rax], 0

; 213  :         }

	jmp	SHORT $LN9@PMC_Subtru
$LN8@PMC_Subtru:

; 214  :         else
; 215  :         {
; 216  :             // v が 0 ではない場合
; 217  : 
; 218  :             // 演算結果は負となってしまうのでエラーを返す。
; 219  :             return (PMC_STATUS_OVERFLOW);

	mov	eax, -2
	jmp	$LN1@PMC_Subtru
$LN9@PMC_Subtru:

; 220  :         }
; 221  :     }

	jmp	$LN7@PMC_Subtru
$LN6@PMC_Subtru:

; 222  :     else
; 223  :     {
; 224  :         // u が 0 ではない場合
; 225  : 
; 226  :         if (nv->IS_ZERO)

	mov	rax, QWORD PTR nv$[rbp]
	mov	eax, DWORD PTR [rax+40]
	shr	eax, 1
	and	eax, 1
	test	eax, eax
	je	SHORT $LN10@PMC_Subtru

; 227  :         {
; 228  :             // v が 0 である場合
; 229  : 
; 230  :             // 演算結果となる u の値を持つ NUMBER_HEADER 構造体を獲得し、呼び出し元へ返す。
; 231  :             *w = u;

	mov	rax, QWORD PTR w$[rbp]
	mov	ecx, DWORD PTR u$[rbp]
	mov	DWORD PTR [rax], ecx

; 232  :         }

	jmp	$LN11@PMC_Subtru
$LN10@PMC_Subtru:

; 233  :         else
; 234  :         {
; 235  :             // u と v がともに 0 ではない場合
; 236  : 
; 237  :             // x と y の差を計算する
; 238  :             __UNIT_TYPE u_bit_count = sizeof(u) * 8 - _LZCNT_ALT_32(u);

	mov	ecx, DWORD PTR u$[rbp]
	call	_LZCNT_ALT_32
	cdqe
	mov	ecx, 32					; 00000020H
	sub	rcx, rax
	mov	rax, rcx
	mov	QWORD PTR u_bit_count$4[rbp], rax

; 239  :             __UNIT_TYPE v_bit_count = nv->UNIT_BIT_COUNT;

	mov	rax, QWORD PTR nv$[rbp]
	mov	rax, QWORD PTR [rax+16]
	mov	QWORD PTR v_bit_count$5[rbp], rax

; 240  :             if (u_bit_count < v_bit_count)

	mov	rax, QWORD PTR v_bit_count$5[rbp]
	cmp	QWORD PTR u_bit_count$4[rbp], rax
	jae	SHORT $LN12@PMC_Subtru

; 241  :             {
; 242  :                 // 明らかに u < v である場合
; 243  :                 // 演算結果は負となってしまうのでエラーを返す。
; 244  :                 return (PMC_STATUS_OVERFLOW);

	mov	eax, -2
	jmp	SHORT $LN1@PMC_Subtru

; 245  :             }

	jmp	SHORT $LN13@PMC_Subtru
$LN12@PMC_Subtru:

; 246  :             else
; 247  :             {
; 248  :                 // u のビット長が v のビット長以上である場合
; 249  : 
; 250  :                 // u が 32bit 整数なので、v も32bit 整数で表現できる
; 251  :                 __UNIT_TYPE temp_w;
; 252  :                 char borrow = _SUBTRUCT_UNIT(0, u, nv->BLOCK[0], &temp_w);

	mov	eax, 8
	imul	rax, rax, 0
	mov	rcx, QWORD PTR nv$[rbp]
	mov	rcx, QWORD PTR [rcx+56]
	mov	edx, DWORD PTR u$[rbp]
	lea	r9, QWORD PTR temp_w$6[rbp]
	mov	r8, QWORD PTR [rcx+rax]
	xor	ecx, ecx
	call	_SUBTRUCT_UNIT
	mov	BYTE PTR borrow$7[rbp], al

; 253  :                 if (borrow)

	movsx	eax, BYTE PTR borrow$7[rbp]
	test	eax, eax
	je	SHORT $LN14@PMC_Subtru

; 254  :                 {
; 255  :                     // ボローが発生した場合は演算結果が負なのでエラーとする
; 256  :                     return (PMC_STATUS_OVERFLOW);

	mov	eax, -2
	jmp	SHORT $LN1@PMC_Subtru

; 257  :                 }

	jmp	SHORT $LN15@PMC_Subtru
$LN14@PMC_Subtru:

; 258  :                 else
; 259  :                 {
; 260  :                     *w = (_UINT32_T)temp_w;

	mov	rax, QWORD PTR w$[rbp]
	mov	ecx, DWORD PTR temp_w$6[rbp]
	mov	DWORD PTR [rax], ecx
$LN15@PMC_Subtru:
$LN13@PMC_Subtru:
$LN11@PMC_Subtru:
$LN7@PMC_Subtru:

; 261  :                 }
; 262  :             }
; 263  :         }
; 264  :     }
; 265  :     return (PMC_STATUS_OK);

	xor	eax, eax
$LN1@PMC_Subtru:

; 266  : }

	mov	rdi, rax
	lea	rcx, QWORD PTR [rbp-32]
	lea	rdx, OFFSET FLAT:PMC_Subtruct_I_X$rtcFrameData
	call	_RTC_CheckStackVars
	mov	rax, rdi
	lea	rsp, QWORD PTR [rbp+392]
	pop	rdi
	pop	rbp
	ret	0
PMC_Subtruct_I_X ENDP
_TEXT	ENDS
; Function compile flags: /Odtp /RTCsu /ZI
; File z:\sources\lunor\repos\rougemeilland\palmtree.math.core.uint\palmtree.math.core.uint\pmc_subtruct.c
;	COMDAT Initialize_Subtruct
_TEXT	SEGMENT
feature$ = 224
Initialize_Subtruct PROC				; COMDAT

; 744  : {

$LN3:
	mov	QWORD PTR [rsp+8], rcx
	push	rbp
	push	rdi
	sub	rsp, 232				; 000000e8H
	lea	rbp, QWORD PTR [rsp+32]
	mov	rdi, rsp
	mov	ecx, 58					; 0000003aH
	mov	eax, -858993460				; ccccccccH
	rep stosd
	mov	rcx, QWORD PTR [rsp+264]
	lea	rcx, OFFSET FLAT:__6B07DC87_pmc_subtruct@c
	call	__CheckForDebuggerJustMyCode

; 745  :     return (PMC_STATUS_OK);

	xor	eax, eax

; 746  : }

	lea	rsp, QWORD PTR [rbp+200]
	pop	rdi
	pop	rbp
	ret	0
Initialize_Subtruct ENDP
_TEXT	ENDS
; Function compile flags: /Odtp /RTCsu /ZI
; File z:\sources\lunor\repos\rougemeilland\palmtree.math.core.uint\palmtree.math.core.uint\pmc_subtruct.c
;	COMDAT Subtruct_Imp
_TEXT	SEGMENT
c$ = 4
count$ = 40
tv151 = 248
tv154 = 256
tv157 = 264
up$ = 304
u_count$ = 312
vp$ = 320
v_count$ = 328
wp$ = 336
w_count$ = 344
Subtruct_Imp PROC					; COMDAT

; 125  : {

$LN10:
	mov	QWORD PTR [rsp+32], r9
	mov	QWORD PTR [rsp+24], r8
	mov	QWORD PTR [rsp+16], rdx
	mov	QWORD PTR [rsp+8], rcx
	push	rbp
	push	rdi
	sub	rsp, 328				; 00000148H
	lea	rbp, QWORD PTR [rsp+48]
	mov	rdi, rsp
	mov	ecx, 82					; 00000052H
	mov	eax, -858993460				; ccccccccH
	rep stosd
	mov	rcx, QWORD PTR [rsp+360]
	lea	rcx, OFFSET FLAT:__6B07DC87_pmc_subtruct@c
	call	__CheckForDebuggerJustMyCode

; 126  :     char c = 0;

	mov	BYTE PTR c$[rbp], 0

; 127  : 
; 128  :     // まず 32 ワードずつ減算をする。
; 129  :     __UNIT_TYPE count = v_count >> 5;

	mov	rax, QWORD PTR v_count$[rbp]
	shr	rax, 5
	mov	QWORD PTR count$[rbp], rax
$LN2@Subtruct_I:

; 130  :     while (count != 0)

	cmp	QWORD PTR count$[rbp], 0
	je	SHORT $LN3@Subtruct_I

; 131  :     {
; 132  :         c= _SUBTRUCT_32WORDS_SBB(c, up, vp, wp);

	mov	r9, QWORD PTR wp$[rbp]
	mov	r8, QWORD PTR vp$[rbp]
	mov	rdx, QWORD PTR up$[rbp]
	movzx	ecx, BYTE PTR c$[rbp]
	call	_SUBTRUCT_32WORDS_SBB
	mov	BYTE PTR c$[rbp], al

; 133  :         up += 32;

	mov	rax, QWORD PTR up$[rbp]
	add	rax, 256				; 00000100H
	mov	QWORD PTR up$[rbp], rax

; 134  :         vp += 32;

	mov	rax, QWORD PTR vp$[rbp]
	add	rax, 256				; 00000100H
	mov	QWORD PTR vp$[rbp], rax

; 135  :         wp += 32;

	mov	rax, QWORD PTR wp$[rbp]
	add	rax, 256				; 00000100H
	mov	QWORD PTR wp$[rbp], rax

; 136  :         --count;

	mov	rax, QWORD PTR count$[rbp]
	dec	rax
	mov	QWORD PTR count$[rbp], rax

; 137  :     }

	jmp	SHORT $LN2@Subtruct_I
$LN3@Subtruct_I:

; 138  :     // この時点で未処理の桁は 32 ワード未満のはず
; 139  : 
; 140  :     // 未処理の桁が 16 ワード以上あるなら 16 ワード減算を行う。
; 141  :     if (v_count & 0x10)

	mov	rax, QWORD PTR v_count$[rbp]
	and	rax, 16
	test	rax, rax
	je	SHORT $LN4@Subtruct_I

; 142  :     {
; 143  :         c = _SUBTRUCT_16WORDS_SBB(c, up, vp, wp);

	mov	r9, QWORD PTR wp$[rbp]
	mov	r8, QWORD PTR vp$[rbp]
	mov	rdx, QWORD PTR up$[rbp]
	movzx	ecx, BYTE PTR c$[rbp]
	call	_SUBTRUCT_16WORDS_SBB
	mov	BYTE PTR c$[rbp], al

; 144  :         up += 16;

	mov	rax, QWORD PTR up$[rbp]
	add	rax, 128				; 00000080H
	mov	QWORD PTR up$[rbp], rax

; 145  :         vp += 16;

	mov	rax, QWORD PTR vp$[rbp]
	add	rax, 128				; 00000080H
	mov	QWORD PTR vp$[rbp], rax

; 146  :         wp += 16;

	mov	rax, QWORD PTR wp$[rbp]
	add	rax, 128				; 00000080H
	mov	QWORD PTR wp$[rbp], rax
$LN4@Subtruct_I:

; 147  :     }
; 148  :     // この時点で未処理の桁は 16 ワード未満のはず
; 149  : 
; 150  :     // 未処理の桁が 8 ワード以上あるなら 8 ワード減算を行う。
; 151  :     if (v_count & 0x8)

	mov	rax, QWORD PTR v_count$[rbp]
	and	rax, 8
	test	rax, rax
	je	SHORT $LN5@Subtruct_I

; 152  :     {
; 153  :         c = _SUBTRUCT_8WORDS_SBB(c, up, vp, wp);

	mov	r9, QWORD PTR wp$[rbp]
	mov	r8, QWORD PTR vp$[rbp]
	mov	rdx, QWORD PTR up$[rbp]
	movzx	ecx, BYTE PTR c$[rbp]
	call	_SUBTRUCT_8WORDS_SBB
	mov	BYTE PTR c$[rbp], al

; 154  :         up += 8;

	mov	rax, QWORD PTR up$[rbp]
	add	rax, 64					; 00000040H
	mov	QWORD PTR up$[rbp], rax

; 155  :         vp += 8;

	mov	rax, QWORD PTR vp$[rbp]
	add	rax, 64					; 00000040H
	mov	QWORD PTR vp$[rbp], rax

; 156  :         wp += 8;

	mov	rax, QWORD PTR wp$[rbp]
	add	rax, 64					; 00000040H
	mov	QWORD PTR wp$[rbp], rax
$LN5@Subtruct_I:

; 157  :     }
; 158  :     // この時点で未処理の桁は 8 ワード未満のはず
; 159  : 
; 160  :     // 未処理の桁が 4 ワード以上あるなら 4 ワード減算を行う。
; 161  :     if (v_count & 0x4)

	mov	rax, QWORD PTR v_count$[rbp]
	and	rax, 4
	test	rax, rax
	je	SHORT $LN6@Subtruct_I

; 162  :     {
; 163  :         c = _SUBTRUCT_4WORDS_SBB(c, up, vp, wp);

	mov	r9, QWORD PTR wp$[rbp]
	mov	r8, QWORD PTR vp$[rbp]
	mov	rdx, QWORD PTR up$[rbp]
	movzx	ecx, BYTE PTR c$[rbp]
	call	_SUBTRUCT_4WORDS_SBB
	mov	BYTE PTR c$[rbp], al

; 164  :         up += 4;

	mov	rax, QWORD PTR up$[rbp]
	add	rax, 32					; 00000020H
	mov	QWORD PTR up$[rbp], rax

; 165  :         vp += 4;

	mov	rax, QWORD PTR vp$[rbp]
	add	rax, 32					; 00000020H
	mov	QWORD PTR vp$[rbp], rax

; 166  :         wp += 4;

	mov	rax, QWORD PTR wp$[rbp]
	add	rax, 32					; 00000020H
	mov	QWORD PTR wp$[rbp], rax
$LN6@Subtruct_I:

; 167  :     }
; 168  :     // この時点で未処理の桁は 4 ワード未満のはず
; 169  : 
; 170  :     // 未処理の桁が 2 ワード以上あるなら 2 ワード減算を行う。
; 171  :     if (v_count & 0x2)

	mov	rax, QWORD PTR v_count$[rbp]
	and	rax, 2
	test	rax, rax
	je	SHORT $LN7@Subtruct_I

; 172  :     {
; 173  :         c = _SUBTRUCT_2WORDS_SBB(c, up, vp, wp);

	mov	r9, QWORD PTR wp$[rbp]
	mov	r8, QWORD PTR vp$[rbp]
	mov	rdx, QWORD PTR up$[rbp]
	movzx	ecx, BYTE PTR c$[rbp]
	call	_SUBTRUCT_2WORDS_SBB
	mov	BYTE PTR c$[rbp], al

; 174  :         up += 2;

	mov	rax, QWORD PTR up$[rbp]
	add	rax, 16
	mov	QWORD PTR up$[rbp], rax

; 175  :         vp += 2;

	mov	rax, QWORD PTR vp$[rbp]
	add	rax, 16
	mov	QWORD PTR vp$[rbp], rax

; 176  :         wp += 2;

	mov	rax, QWORD PTR wp$[rbp]
	add	rax, 16
	mov	QWORD PTR wp$[rbp], rax
$LN7@Subtruct_I:

; 177  :     }
; 178  :     // この時点で未処理の桁は 2 ワード未満のはず
; 179  : 
; 180  :     // 未処理の桁が 1 ワード以上あるなら 1 ワード減算を行う。
; 181  :     if (v_count & 1)

	mov	rax, QWORD PTR v_count$[rbp]
	and	rax, 1
	test	rax, rax
	je	$LN8@Subtruct_I

; 182  :         c = _SUBTRUCT_UNIT(c, *up++, *vp++, wp++);

	mov	rax, QWORD PTR wp$[rbp]
	mov	QWORD PTR tv151[rbp], rax
	mov	rax, QWORD PTR wp$[rbp]
	add	rax, 8
	mov	QWORD PTR wp$[rbp], rax
	mov	rax, QWORD PTR vp$[rbp]
	mov	rax, QWORD PTR [rax]
	mov	QWORD PTR tv154[rbp], rax
	mov	rax, QWORD PTR vp$[rbp]
	add	rax, 8
	mov	QWORD PTR vp$[rbp], rax
	mov	rax, QWORD PTR up$[rbp]
	mov	rax, QWORD PTR [rax]
	mov	QWORD PTR tv157[rbp], rax
	mov	rax, QWORD PTR up$[rbp]
	add	rax, 8
	mov	QWORD PTR up$[rbp], rax
	mov	r9, QWORD PTR tv151[rbp]
	mov	r8, QWORD PTR tv154[rbp]
	mov	rdx, QWORD PTR tv157[rbp]
	movzx	ecx, BYTE PTR c$[rbp]
	call	_SUBTRUCT_UNIT
	mov	BYTE PTR c$[rbp], al
$LN8@Subtruct_I:

; 183  : 
; 184  :     // 残りの桁の繰り上がりを計算し、復帰する。
; 185  :     return (DoBorrow(c, up, u_count - v_count, wp, w_count - v_count));

	mov	rax, QWORD PTR v_count$[rbp]
	mov	rcx, QWORD PTR w_count$[rbp]
	sub	rcx, rax
	mov	rax, rcx
	mov	rcx, QWORD PTR v_count$[rbp]
	mov	rdx, QWORD PTR u_count$[rbp]
	sub	rdx, rcx
	mov	rcx, rdx
	mov	QWORD PTR [rsp+32], rax
	mov	r9, QWORD PTR wp$[rbp]
	mov	r8, rcx
	mov	rdx, QWORD PTR up$[rbp]
	movzx	ecx, BYTE PTR c$[rbp]
	call	DoBorrow

; 186  : }

	lea	rsp, QWORD PTR [rbp+280]
	pop	rdi
	pop	rbp
	ret	0
Subtruct_Imp ENDP
_TEXT	ENDS
END
