; Listing generated by Microsoft (R) Optimizing Compiler Version 19.16.27027.1 

include listing.inc

INCLUDELIB MSVCRTD
INCLUDELIB OLDNAMES

msvcjmc	SEGMENT
__7B7A869E_ctype@h DB 01H
__457DD326_basetsd@h DB 01H
__4384A2D9_corecrt_memcpy_s@h DB 01H
__2088847F_corecrt_memory@h DB 01H
__4E51A221_corecrt_wstring@h DB 01H
__2140C079_string@h DB 01H
__E9FFF232_guiddef@h DB 01H
__1887E595_winnt@h DB 01H
__9FC7C64B_processthreadsapi@h DB 01H
__FA470AEC_memoryapi@h DB 01H
__F37DAFF1_winerror@h DB 01H
__7A450CCC_winbase@h DB 01H
__12AD47BB_winuser@h DB 01H
__B4B40122_winioctl@h DB 01H
__A73354DD_stdlib@h DB 01H
__25F3FB34_propidl@h DB 01H
__A40E48B8_oleauto@h DB 01H
__86261D59_stralign@h DB 01H
__2CC6E67D_corecrt_stdio_config@h DB 01H
__41381B41_corecrt_wconio@h DB 01H
__F0CC4AC4_corecrt_wio@h DB 01H
__05476D76_corecrt_wstdio@h DB 01H
__C0802A2B_corecrt_wtime@h DB 01H
__A40A425D_stat@h DB 01H
__5A74375D_wchar@h DB 01H
__6BC0FD35_vcruntime_new@h DB 01H
__77F53984_cstddef DB 01H
__188180DA_corecrt_math@h DB 01H
__D23EE329_cstdlib DB 01H
__5ECFF36E_type_traits DB 01H
__331E732B_malloc@h DB 01H
__9BB4E194_vcruntime_exception@h DB 01H
__7949CB39_exception DB 01H
__802FEEC0_pmc_exception@h DB 01H
__BB6D3116_pmc_uint_internal@h DB 01H
__1AB12E38_pmc_resourceholder@h DB 01H
__8CA3E54E_pmc_inline_func@h DB 01H
__D969B5A7_pmc_bitwiseor@cpp DB 01H
msvcjmc	ENDS
PUBLIC	??0exception@std@@QEAA@XZ			; std::exception::exception
PUBLIC	??1exception@std@@UEAA@XZ			; std::exception::~exception
PUBLIC	?what@exception@std@@UEBAPEBDXZ			; std::exception::what
PUBLIC	??_Gexception@std@@UEAAPEAXI@Z			; std::exception::`scalar deleting destructor'
PUBLIC	??0Exception@Internal@Core@Math@Palmtree@@IEAA@HPEB_W0@Z ; Palmtree::Math::Core::Internal::Exception::Exception
PUBLIC	??0Exception@Internal@Core@Math@Palmtree@@QEAA@AEBV01234@@Z ; Palmtree::Math::Core::Internal::Exception::Exception
PUBLIC	??1Exception@Internal@Core@Math@Palmtree@@UEAA@XZ ; Palmtree::Math::Core::Internal::Exception::~Exception
PUBLIC	??_GException@Internal@Core@Math@Palmtree@@UEAAPEAXI@Z ; Palmtree::Math::Core::Internal::Exception::`scalar deleting destructor'
PUBLIC	??0ArgumentNullException@Internal@Core@Math@Palmtree@@QEAA@PEB_W0@Z ; Palmtree::Math::Core::Internal::ArgumentNullException::ArgumentNullException
PUBLIC	??0ArgumentNullException@Internal@Core@Math@Palmtree@@QEAA@AEBV01234@@Z ; Palmtree::Math::Core::Internal::ArgumentNullException::ArgumentNullException
PUBLIC	??1ArgumentNullException@Internal@Core@Math@Palmtree@@UEAA@XZ ; Palmtree::Math::Core::Internal::ArgumentNullException::~ArgumentNullException
PUBLIC	??_GArgumentNullException@Internal@Core@Math@Palmtree@@UEAAPEAXI@Z ; Palmtree::Math::Core::Internal::ArgumentNullException::`scalar deleting destructor'
PUBLIC	??0InternalErrorException@Internal@Core@Math@Palmtree@@QEAA@PEB_W0@Z ; Palmtree::Math::Core::Internal::InternalErrorException::InternalErrorException
PUBLIC	??0InternalErrorException@Internal@Core@Math@Palmtree@@QEAA@AEBV01234@@Z ; Palmtree::Math::Core::Internal::InternalErrorException::InternalErrorException
PUBLIC	??1InternalErrorException@Internal@Core@Math@Palmtree@@UEAA@XZ ; Palmtree::Math::Core::Internal::InternalErrorException::~InternalErrorException
PUBLIC	??_GInternalErrorException@Internal@Core@Math@Palmtree@@UEAAPEAXI@Z ; Palmtree::Math::Core::Internal::InternalErrorException::`scalar deleting destructor'
PUBLIC	?Initialize_BitwiseOr@Internal@Core@Math@Palmtree@@YAHPEAU_tag_PROCESSOR_FEATURES@1234@@Z ; Palmtree::Math::Core::Internal::Initialize_BitwiseOr
PUBLIC	?PMC_BitwiseOr_I_X@Internal@Core@Math@Palmtree@@YAPEAU__tag_PMC_HANDLE_UINT@1234@IPEAU51234@@Z ; Palmtree::Math::Core::Internal::PMC_BitwiseOr_I_X
PUBLIC	?PMC_BitwiseOr_L_X@Internal@Core@Math@Palmtree@@YAPEAU__tag_PMC_HANDLE_UINT@1234@_KPEAU51234@@Z ; Palmtree::Math::Core::Internal::PMC_BitwiseOr_L_X
PUBLIC	?PMC_BitwiseOr_X_I@Internal@Core@Math@Palmtree@@YAPEAU__tag_PMC_HANDLE_UINT@1234@PEAU51234@I@Z ; Palmtree::Math::Core::Internal::PMC_BitwiseOr_X_I
PUBLIC	?PMC_BitwiseOr_X_L@Internal@Core@Math@Palmtree@@YAPEAU__tag_PMC_HANDLE_UINT@1234@PEAU51234@_K@Z ; Palmtree::Math::Core::Internal::PMC_BitwiseOr_X_L
PUBLIC	?PMC_BitwiseOr_X_X@Internal@Core@Math@Palmtree@@YAPEAU__tag_PMC_HANDLE_UINT@1234@PEAU51234@0@Z ; Palmtree::Math::Core::Internal::PMC_BitwiseOr_X_X
PUBLIC	__JustMyCode_Default
PUBLIC	??_7exception@std@@6B@				; std::exception::`vftable'
PUBLIC	??_C@_0BC@EOODALEL@Unknown?5exception@		; `string'
PUBLIC	??_7Exception@Internal@Core@Math@Palmtree@@6B@	; Palmtree::Math::Core::Internal::Exception::`vftable'
PUBLIC	??_7ArgumentNullException@Internal@Core@Math@Palmtree@@6B@ ; Palmtree::Math::Core::Internal::ArgumentNullException::`vftable'
PUBLIC	??_7InternalErrorException@Internal@Core@Math@Palmtree@@6B@ ; Palmtree::Math::Core::Internal::InternalErrorException::`vftable'
PUBLIC	_TI2?AVInternalErrorException@Internal@Core@Math@Palmtree@@
PUBLIC	_CTA2?AVInternalErrorException@Internal@Core@Math@Palmtree@@
PUBLIC	??_R0?AVInternalErrorException@Internal@Core@Math@Palmtree@@@8 ; Palmtree::Math::Core::Internal::InternalErrorException `RTTI Type Descriptor'
PUBLIC	_CT??_R0?AVInternalErrorException@Internal@Core@Math@Palmtree@@@8??0InternalErrorException@Internal@Core@Math@Palmtree@@QEAA@AEBV01234@@Z48
PUBLIC	??_R0?AVException@Internal@Core@Math@Palmtree@@@8 ; Palmtree::Math::Core::Internal::Exception `RTTI Type Descriptor'
PUBLIC	_CT??_R0?AVException@Internal@Core@Math@Palmtree@@@8??0Exception@Internal@Core@Math@Palmtree@@QEAA@AEBV01234@@Z48
PUBLIC	??_C@_1CG@CNOPPENL@?$PP?$II?$AA?$BP?$AAW?$AAf?$AAD?$AAj?$AAD?$PP?$LD?$PP?$PM?$PP?I?$AAk?$AA0?$AAT?$AAW?$AA?$HO@ ; `string'
PUBLIC	??_C@_1EM@OHKHIOJJ@?$AAp?$AAm?$AAc?$AA_?$AAb?$AAi?$AAt?$AAw?$AAi?$AAs?$AAe?$AAo?$AAr?$AA?4?$AAc@ ; `string'
PUBLIC	_TI2?AVArgumentNullException@Internal@Core@Math@Palmtree@@
PUBLIC	_CTA2?AVArgumentNullException@Internal@Core@Math@Palmtree@@
PUBLIC	??_R0?AVArgumentNullException@Internal@Core@Math@Palmtree@@@8 ; Palmtree::Math::Core::Internal::ArgumentNullException `RTTI Type Descriptor'
PUBLIC	_CT??_R0?AVArgumentNullException@Internal@Core@Math@Palmtree@@@8??0ArgumentNullException@Internal@Core@Math@Palmtree@@QEAA@AEBV01234@@Z48
PUBLIC	??_C@_13JAOPNPKD@?$AAv@				; `string'
PUBLIC	??_C@_1CK@ECFIEPAC@?$AA?$BF?$AAp?$AAk?$AAn?$AAu?$AAl?$AAl?$AAp?$AAt?$AAr?$AAL?$AA?$AO?$AAH?$PP?$IJ?$PP?$IM@ ; `string'
PUBLIC	??_C@_1EM@MAALBOLP@?$AAp?$AAm?$AAc?$AA_?$AAb?$AAi?$AAt?$AAw?$AAi?$AAs?$AAe?$AAo?$AAr?$AA?4?$AAc@ ; `string'
PUBLIC	??_C@_13ICFKHAEN@?$AAu@				; `string'
PUBLIC	??_C@_1EM@HPAEPJIJ@?$AAp?$AAm?$AAc?$AA_?$AAb?$AAi?$AAt?$AAw?$AAi?$AAs?$AAe?$AAo?$AAr?$AA?4?$AAc@ ; `string'
PUBLIC	??_C@_1EM@IIOLBANL@?$AAp?$AAm?$AAc?$AA_?$AAb?$AAi?$AAt?$AAw?$AAi?$AAs?$AAe?$AAo?$AAr?$AA?4?$AAc@ ; `string'
PUBLIC	??_R4exception@std@@6B@				; std::exception::`RTTI Complete Object Locator'
PUBLIC	??_R0?AVexception@std@@@8			; std::exception `RTTI Type Descriptor'
PUBLIC	??_R3exception@std@@8				; std::exception::`RTTI Class Hierarchy Descriptor'
PUBLIC	??_R2exception@std@@8				; std::exception::`RTTI Base Class Array'
PUBLIC	??_R1A@?0A@EA@exception@std@@8			; std::exception::`RTTI Base Class Descriptor at (0,-1,0,64)'
PUBLIC	??_R4Exception@Internal@Core@Math@Palmtree@@6B@	; Palmtree::Math::Core::Internal::Exception::`RTTI Complete Object Locator'
PUBLIC	??_R3Exception@Internal@Core@Math@Palmtree@@8	; Palmtree::Math::Core::Internal::Exception::`RTTI Class Hierarchy Descriptor'
PUBLIC	??_R2Exception@Internal@Core@Math@Palmtree@@8	; Palmtree::Math::Core::Internal::Exception::`RTTI Base Class Array'
PUBLIC	??_R1A@?0A@EA@Exception@Internal@Core@Math@Palmtree@@8 ; Palmtree::Math::Core::Internal::Exception::`RTTI Base Class Descriptor at (0,-1,0,64)'
PUBLIC	??_R1A@?0A@EN@exception@std@@8			; std::exception::`RTTI Base Class Descriptor at (0,-1,0,77)'
PUBLIC	??_R4ArgumentNullException@Internal@Core@Math@Palmtree@@6B@ ; Palmtree::Math::Core::Internal::ArgumentNullException::`RTTI Complete Object Locator'
PUBLIC	??_R3ArgumentNullException@Internal@Core@Math@Palmtree@@8 ; Palmtree::Math::Core::Internal::ArgumentNullException::`RTTI Class Hierarchy Descriptor'
PUBLIC	??_R2ArgumentNullException@Internal@Core@Math@Palmtree@@8 ; Palmtree::Math::Core::Internal::ArgumentNullException::`RTTI Base Class Array'
PUBLIC	??_R1A@?0A@EA@ArgumentNullException@Internal@Core@Math@Palmtree@@8 ; Palmtree::Math::Core::Internal::ArgumentNullException::`RTTI Base Class Descriptor at (0,-1,0,64)'
PUBLIC	??_R4InternalErrorException@Internal@Core@Math@Palmtree@@6B@ ; Palmtree::Math::Core::Internal::InternalErrorException::`RTTI Complete Object Locator'
PUBLIC	??_R3InternalErrorException@Internal@Core@Math@Palmtree@@8 ; Palmtree::Math::Core::Internal::InternalErrorException::`RTTI Class Hierarchy Descriptor'
PUBLIC	??_R2InternalErrorException@Internal@Core@Math@Palmtree@@8 ; Palmtree::Math::Core::Internal::InternalErrorException::`RTTI Base Class Array'
PUBLIC	??_R1A@?0A@EA@InternalErrorException@Internal@Core@Math@Palmtree@@8 ; Palmtree::Math::Core::Internal::InternalErrorException::`RTTI Base Class Descriptor at (0,-1,0,64)'
EXTRN	??3@YAXPEAX_K@Z:PROC				; operator delete
EXTRN	__std_exception_destroy:PROC
EXTRN	??_Eexception@std@@UEAAPEAXI@Z:PROC		; std::exception::`vector deleting destructor'
EXTRN	??_EException@Internal@Core@Math@Palmtree@@UEAAPEAXI@Z:PROC ; Palmtree::Math::Core::Internal::Exception::`vector deleting destructor'
EXTRN	??_EArgumentNullException@Internal@Core@Math@Palmtree@@UEAAPEAXI@Z:PROC ; Palmtree::Math::Core::Internal::ArgumentNullException::`vector deleting destructor'
EXTRN	??_EInternalErrorException@Internal@Core@Math@Palmtree@@UEAAPEAXI@Z:PROC ; Palmtree::Math::Core::Internal::InternalErrorException::`vector deleting destructor'
EXTRN	?CommitNumber@Internal@Core@Math@Palmtree@@YAXPEAU__tag_NUMBER_HEADER@1234@@Z:PROC ; Palmtree::Math::Core::Internal::CommitNumber
EXTRN	?CheckNumber@Internal@Core@Math@Palmtree@@YAXPEAU__tag_NUMBER_HEADER@1234@@Z:PROC ; Palmtree::Math::Core::Internal::CheckNumber
EXTRN	?DuplicateNumber@Internal@Core@Math@Palmtree@@YAPEAU__tag_NUMBER_HEADER@1234@PEAU51234@@Z:PROC ; Palmtree::Math::Core::Internal::DuplicateNumber
EXTRN	?From_I_Imp@Internal@Core@Math@Palmtree@@YAPEAU__tag_NUMBER_HEADER@1234@I@Z:PROC ; Palmtree::Math::Core::Internal::From_I_Imp
EXTRN	?From_L_Imp@Internal@Core@Math@Palmtree@@YAPEAU__tag_NUMBER_HEADER@1234@_K@Z:PROC ; Palmtree::Math::Core::Internal::From_L_Imp
EXTRN	??0ResourceHolderUINT@Internal@Core@Math@Palmtree@@QEAA@XZ:PROC ; Palmtree::Math::Core::Internal::ResourceHolderUINT::ResourceHolderUINT
EXTRN	??1ResourceHolderUINT@Internal@Core@Math@Palmtree@@UEAA@XZ:PROC ; Palmtree::Math::Core::Internal::ResourceHolderUINT::~ResourceHolderUINT
EXTRN	?AllocateNumber@ResourceHolderUINT@Internal@Core@Math@Palmtree@@QEAAPEAU__tag_NUMBER_HEADER@2345@_K@Z:PROC ; Palmtree::Math::Core::Internal::ResourceHolderUINT::AllocateNumber
EXTRN	?HookNumber@ResourceHolderUINT@Internal@Core@Math@Palmtree@@QEAAXPEAU__tag_NUMBER_HEADER@2345@@Z:PROC ; Palmtree::Math::Core::Internal::ResourceHolderUINT::HookNumber
EXTRN	?CheckNumber@ResourceHolderUINT@Internal@Core@Math@Palmtree@@QEAAXPEAU__tag_NUMBER_HEADER@2345@@Z:PROC ; Palmtree::Math::Core::Internal::ResourceHolderUINT::CheckNumber
EXTRN	?UnlinkNumber@ResourceHolderUINT@Internal@Core@Math@Palmtree@@QEAAXPEAU__tag_NUMBER_HEADER@2345@@Z:PROC ; Palmtree::Math::Core::Internal::ResourceHolderUINT::UnlinkNumber
EXTRN	_CxxThrowException:PROC
EXTRN	_RTC_CheckStackVars:PROC
EXTRN	_RTC_InitBase:PROC
EXTRN	_RTC_Shutdown:PROC
EXTRN	__CheckForDebuggerJustMyCode:PROC
EXTRN	__CxxFrameHandler3:PROC
EXTRN	?number_zero@Internal@Core@Math@Palmtree@@3U__tag_NUMBER_HEADER@1234@A:BYTE ; Palmtree::Math::Core::Internal::number_zero
EXTRN	??_7type_info@@6B@:BYTE				; type_info::`vftable'
;	COMDAT pdata
pdata	SEGMENT
$pdata$??0exception@std@@QEAA@XZ DD imagerel $LN3
	DD	imagerel $LN3+123
	DD	imagerel $unwind$??0exception@std@@QEAA@XZ
pdata	ENDS
;	COMDAT pdata
pdata	SEGMENT
$pdata$??1exception@std@@UEAA@XZ DD imagerel $LN3
	DD	imagerel $LN3+113
	DD	imagerel $unwind$??1exception@std@@UEAA@XZ
pdata	ENDS
;	COMDAT pdata
pdata	SEGMENT
$pdata$?what@exception@std@@UEBAPEBDXZ DD imagerel $LN5
	DD	imagerel $LN5+119
	DD	imagerel $unwind$?what@exception@std@@UEBAPEBDXZ
pdata	ENDS
;	COMDAT pdata
pdata	SEGMENT
$pdata$??_Gexception@std@@UEAAPEAXI@Z DD imagerel $LN4
	DD	imagerel $LN4+105
	DD	imagerel $unwind$??_Gexception@std@@UEAAPEAXI@Z
pdata	ENDS
;	COMDAT pdata
pdata	SEGMENT
$pdata$??0Exception@Internal@Core@Math@Palmtree@@IEAA@HPEB_W0@Z DD imagerel $LN4
	DD	imagerel $LN4+179
	DD	imagerel $unwind$??0Exception@Internal@Core@Math@Palmtree@@IEAA@HPEB_W0@Z
pdata	ENDS
;	COMDAT pdata
pdata	SEGMENT
$pdata$?dtor$0@?0???0Exception@Internal@Core@Math@Palmtree@@IEAA@HPEB_W0@Z@4HA DD imagerel ?dtor$0@?0???0Exception@Internal@Core@Math@Palmtree@@IEAA@HPEB_W0@Z@4HA
	DD	imagerel ?dtor$0@?0???0Exception@Internal@Core@Math@Palmtree@@IEAA@HPEB_W0@Z@4HA+39
	DD	imagerel $unwind$?dtor$0@?0???0Exception@Internal@Core@Math@Palmtree@@IEAA@HPEB_W0@Z@4HA
pdata	ENDS
;	COMDAT pdata
pdata	SEGMENT
$pdata$??0Exception@Internal@Core@Math@Palmtree@@QEAA@AEBV01234@@Z DD imagerel $LN4
	DD	imagerel $LN4+182
	DD	imagerel $unwind$??0Exception@Internal@Core@Math@Palmtree@@QEAA@AEBV01234@@Z
pdata	ENDS
;	COMDAT pdata
pdata	SEGMENT
$pdata$?dtor$0@?0???0Exception@Internal@Core@Math@Palmtree@@QEAA@AEBV01234@@Z@4HA DD imagerel ?dtor$0@?0???0Exception@Internal@Core@Math@Palmtree@@QEAA@AEBV01234@@Z@4HA
	DD	imagerel ?dtor$0@?0???0Exception@Internal@Core@Math@Palmtree@@QEAA@AEBV01234@@Z@4HA+39
	DD	imagerel $unwind$?dtor$0@?0???0Exception@Internal@Core@Math@Palmtree@@QEAA@AEBV01234@@Z@4HA
pdata	ENDS
;	COMDAT pdata
pdata	SEGMENT
$pdata$??1Exception@Internal@Core@Math@Palmtree@@UEAA@XZ DD imagerel $LN4
	DD	imagerel $LN4+106
	DD	imagerel $unwind$??1Exception@Internal@Core@Math@Palmtree@@UEAA@XZ
pdata	ENDS
;	COMDAT pdata
pdata	SEGMENT
$pdata$?dtor$0@?0???1Exception@Internal@Core@Math@Palmtree@@UEAA@XZ@4HA DD imagerel ?dtor$0@?0???1Exception@Internal@Core@Math@Palmtree@@UEAA@XZ@4HA
	DD	imagerel ?dtor$0@?0???1Exception@Internal@Core@Math@Palmtree@@UEAA@XZ@4HA+39
	DD	imagerel $unwind$?dtor$0@?0???1Exception@Internal@Core@Math@Palmtree@@UEAA@XZ@4HA
pdata	ENDS
;	COMDAT pdata
pdata	SEGMENT
$pdata$??_GException@Internal@Core@Math@Palmtree@@UEAAPEAXI@Z DD imagerel $LN4
	DD	imagerel $LN4+105
	DD	imagerel $unwind$??_GException@Internal@Core@Math@Palmtree@@UEAAPEAXI@Z
pdata	ENDS
;	COMDAT pdata
pdata	SEGMENT
$pdata$??0ArgumentNullException@Internal@Core@Math@Palmtree@@QEAA@PEB_W0@Z DD imagerel $LN4
	DD	imagerel $LN4+142
	DD	imagerel $unwind$??0ArgumentNullException@Internal@Core@Math@Palmtree@@QEAA@PEB_W0@Z
pdata	ENDS
;	COMDAT pdata
pdata	SEGMENT
$pdata$?dtor$0@?0???0ArgumentNullException@Internal@Core@Math@Palmtree@@QEAA@PEB_W0@Z@4HA DD imagerel ?dtor$0@?0???0ArgumentNullException@Internal@Core@Math@Palmtree@@QEAA@PEB_W0@Z@4HA
	DD	imagerel ?dtor$0@?0???0ArgumentNullException@Internal@Core@Math@Palmtree@@QEAA@PEB_W0@Z@4HA+39
	DD	imagerel $unwind$?dtor$0@?0???0ArgumentNullException@Internal@Core@Math@Palmtree@@QEAA@PEB_W0@Z@4HA
pdata	ENDS
;	COMDAT pdata
pdata	SEGMENT
$pdata$??0ArgumentNullException@Internal@Core@Math@Palmtree@@QEAA@AEBV01234@@Z DD imagerel $LN4
	DD	imagerel $LN4+125
	DD	imagerel $unwind$??0ArgumentNullException@Internal@Core@Math@Palmtree@@QEAA@AEBV01234@@Z
pdata	ENDS
;	COMDAT pdata
pdata	SEGMENT
$pdata$?dtor$0@?0???0ArgumentNullException@Internal@Core@Math@Palmtree@@QEAA@AEBV01234@@Z@4HA DD imagerel ?dtor$0@?0???0ArgumentNullException@Internal@Core@Math@Palmtree@@QEAA@AEBV01234@@Z@4HA
	DD	imagerel ?dtor$0@?0???0ArgumentNullException@Internal@Core@Math@Palmtree@@QEAA@AEBV01234@@Z@4HA+39
	DD	imagerel $unwind$?dtor$0@?0???0ArgumentNullException@Internal@Core@Math@Palmtree@@QEAA@AEBV01234@@Z@4HA
pdata	ENDS
;	COMDAT pdata
pdata	SEGMENT
$pdata$??1ArgumentNullException@Internal@Core@Math@Palmtree@@UEAA@XZ DD imagerel $LN4
	DD	imagerel $LN4+106
	DD	imagerel $unwind$??1ArgumentNullException@Internal@Core@Math@Palmtree@@UEAA@XZ
pdata	ENDS
;	COMDAT pdata
pdata	SEGMENT
$pdata$?dtor$0@?0???1ArgumentNullException@Internal@Core@Math@Palmtree@@UEAA@XZ@4HA DD imagerel ?dtor$0@?0???1ArgumentNullException@Internal@Core@Math@Palmtree@@UEAA@XZ@4HA
	DD	imagerel ?dtor$0@?0???1ArgumentNullException@Internal@Core@Math@Palmtree@@UEAA@XZ@4HA+39
	DD	imagerel $unwind$?dtor$0@?0???1ArgumentNullException@Internal@Core@Math@Palmtree@@UEAA@XZ@4HA
pdata	ENDS
;	COMDAT pdata
pdata	SEGMENT
$pdata$??_GArgumentNullException@Internal@Core@Math@Palmtree@@UEAAPEAXI@Z DD imagerel $LN4
	DD	imagerel $LN4+105
	DD	imagerel $unwind$??_GArgumentNullException@Internal@Core@Math@Palmtree@@UEAAPEAXI@Z
pdata	ENDS
;	COMDAT pdata
pdata	SEGMENT
$pdata$??0InternalErrorException@Internal@Core@Math@Palmtree@@QEAA@PEB_W0@Z DD imagerel $LN4
	DD	imagerel $LN4+142
	DD	imagerel $unwind$??0InternalErrorException@Internal@Core@Math@Palmtree@@QEAA@PEB_W0@Z
pdata	ENDS
;	COMDAT pdata
pdata	SEGMENT
$pdata$?dtor$0@?0???0InternalErrorException@Internal@Core@Math@Palmtree@@QEAA@PEB_W0@Z@4HA DD imagerel ?dtor$0@?0???0InternalErrorException@Internal@Core@Math@Palmtree@@QEAA@PEB_W0@Z@4HA
	DD	imagerel ?dtor$0@?0???0InternalErrorException@Internal@Core@Math@Palmtree@@QEAA@PEB_W0@Z@4HA+39
	DD	imagerel $unwind$?dtor$0@?0???0InternalErrorException@Internal@Core@Math@Palmtree@@QEAA@PEB_W0@Z@4HA
pdata	ENDS
;	COMDAT pdata
pdata	SEGMENT
$pdata$??0InternalErrorException@Internal@Core@Math@Palmtree@@QEAA@AEBV01234@@Z DD imagerel $LN4
	DD	imagerel $LN4+125
	DD	imagerel $unwind$??0InternalErrorException@Internal@Core@Math@Palmtree@@QEAA@AEBV01234@@Z
pdata	ENDS
;	COMDAT pdata
pdata	SEGMENT
$pdata$?dtor$0@?0???0InternalErrorException@Internal@Core@Math@Palmtree@@QEAA@AEBV01234@@Z@4HA DD imagerel ?dtor$0@?0???0InternalErrorException@Internal@Core@Math@Palmtree@@QEAA@AEBV01234@@Z@4HA
	DD	imagerel ?dtor$0@?0???0InternalErrorException@Internal@Core@Math@Palmtree@@QEAA@AEBV01234@@Z@4HA+39
	DD	imagerel $unwind$?dtor$0@?0???0InternalErrorException@Internal@Core@Math@Palmtree@@QEAA@AEBV01234@@Z@4HA
pdata	ENDS
;	COMDAT pdata
pdata	SEGMENT
$pdata$??1InternalErrorException@Internal@Core@Math@Palmtree@@UEAA@XZ DD imagerel $LN4
	DD	imagerel $LN4+106
	DD	imagerel $unwind$??1InternalErrorException@Internal@Core@Math@Palmtree@@UEAA@XZ
pdata	ENDS
;	COMDAT pdata
pdata	SEGMENT
$pdata$?dtor$0@?0???1InternalErrorException@Internal@Core@Math@Palmtree@@UEAA@XZ@4HA DD imagerel ?dtor$0@?0???1InternalErrorException@Internal@Core@Math@Palmtree@@UEAA@XZ@4HA
	DD	imagerel ?dtor$0@?0???1InternalErrorException@Internal@Core@Math@Palmtree@@UEAA@XZ@4HA+39
	DD	imagerel $unwind$?dtor$0@?0???1InternalErrorException@Internal@Core@Math@Palmtree@@UEAA@XZ@4HA
pdata	ENDS
;	COMDAT pdata
pdata	SEGMENT
$pdata$??_GInternalErrorException@Internal@Core@Math@Palmtree@@UEAAPEAXI@Z DD imagerel $LN4
	DD	imagerel $LN4+105
	DD	imagerel $unwind$??_GInternalErrorException@Internal@Core@Math@Palmtree@@UEAAPEAXI@Z
pdata	ENDS
;	COMDAT pdata
pdata	SEGMENT
$pdata$?Initialize_BitwiseOr@Internal@Core@Math@Palmtree@@YAHPEAU_tag_PROCESSOR_FEATURES@1234@@Z DD imagerel $LN3
	DD	imagerel $LN3+66
	DD	imagerel $unwind$?Initialize_BitwiseOr@Internal@Core@Math@Palmtree@@YAHPEAU_tag_PROCESSOR_FEATURES@1234@@Z
pdata	ENDS
;	COMDAT pdata
pdata	SEGMENT
$pdata$?PMC_BitwiseOr_I_X@Internal@Core@Math@Palmtree@@YAPEAU__tag_PMC_HANDLE_UINT@1234@IPEAU51234@@Z DD imagerel $LN7
	DD	imagerel $LN7+312
	DD	imagerel $unwind$?PMC_BitwiseOr_I_X@Internal@Core@Math@Palmtree@@YAPEAU__tag_PMC_HANDLE_UINT@1234@IPEAU51234@@Z
pdata	ENDS
;	COMDAT pdata
pdata	SEGMENT
$pdata$?dtor$0@?0??PMC_BitwiseOr_I_X@Internal@Core@Math@Palmtree@@YAPEAU__tag_PMC_HANDLE_UINT@1234@IPEAU51234@@Z@4HA DD imagerel ?dtor$0@?0??PMC_BitwiseOr_I_X@Internal@Core@Math@Palmtree@@YAPEAU__tag_PMC_HANDLE_UINT@1234@IPEAU51234@@Z@4HA
	DD	imagerel ?dtor$0@?0??PMC_BitwiseOr_I_X@Internal@Core@Math@Palmtree@@YAPEAU__tag_PMC_HANDLE_UINT@1234@IPEAU51234@@Z@4HA+36
	DD	imagerel $unwind$?dtor$0@?0??PMC_BitwiseOr_I_X@Internal@Core@Math@Palmtree@@YAPEAU__tag_PMC_HANDLE_UINT@1234@IPEAU51234@@Z@4HA
pdata	ENDS
;	COMDAT pdata
pdata	SEGMENT
$pdata$?PMC_BitwiseOr_L_X@Internal@Core@Math@Palmtree@@YAPEAU__tag_PMC_HANDLE_UINT@1234@_KPEAU51234@@Z DD imagerel $LN7
	DD	imagerel $LN7+315
	DD	imagerel $unwind$?PMC_BitwiseOr_L_X@Internal@Core@Math@Palmtree@@YAPEAU__tag_PMC_HANDLE_UINT@1234@_KPEAU51234@@Z
pdata	ENDS
;	COMDAT pdata
pdata	SEGMENT
$pdata$?dtor$0@?0??PMC_BitwiseOr_L_X@Internal@Core@Math@Palmtree@@YAPEAU__tag_PMC_HANDLE_UINT@1234@_KPEAU51234@@Z@4HA DD imagerel ?dtor$0@?0??PMC_BitwiseOr_L_X@Internal@Core@Math@Palmtree@@YAPEAU__tag_PMC_HANDLE_UINT@1234@_KPEAU51234@@Z@4HA
	DD	imagerel ?dtor$0@?0??PMC_BitwiseOr_L_X@Internal@Core@Math@Palmtree@@YAPEAU__tag_PMC_HANDLE_UINT@1234@_KPEAU51234@@Z@4HA+36
	DD	imagerel $unwind$?dtor$0@?0??PMC_BitwiseOr_L_X@Internal@Core@Math@Palmtree@@YAPEAU__tag_PMC_HANDLE_UINT@1234@_KPEAU51234@@Z@4HA
pdata	ENDS
;	COMDAT pdata
pdata	SEGMENT
$pdata$?PMC_BitwiseOr_X_I@Internal@Core@Math@Palmtree@@YAPEAU__tag_PMC_HANDLE_UINT@1234@PEAU51234@I@Z DD imagerel $LN7
	DD	imagerel $LN7+313
	DD	imagerel $unwind$?PMC_BitwiseOr_X_I@Internal@Core@Math@Palmtree@@YAPEAU__tag_PMC_HANDLE_UINT@1234@PEAU51234@I@Z
pdata	ENDS
;	COMDAT pdata
pdata	SEGMENT
$pdata$?dtor$0@?0??PMC_BitwiseOr_X_I@Internal@Core@Math@Palmtree@@YAPEAU__tag_PMC_HANDLE_UINT@1234@PEAU51234@I@Z@4HA DD imagerel ?dtor$0@?0??PMC_BitwiseOr_X_I@Internal@Core@Math@Palmtree@@YAPEAU__tag_PMC_HANDLE_UINT@1234@PEAU51234@I@Z@4HA
	DD	imagerel ?dtor$0@?0??PMC_BitwiseOr_X_I@Internal@Core@Math@Palmtree@@YAPEAU__tag_PMC_HANDLE_UINT@1234@PEAU51234@I@Z@4HA+36
	DD	imagerel $unwind$?dtor$0@?0??PMC_BitwiseOr_X_I@Internal@Core@Math@Palmtree@@YAPEAU__tag_PMC_HANDLE_UINT@1234@PEAU51234@I@Z@4HA
pdata	ENDS
;	COMDAT pdata
pdata	SEGMENT
$pdata$?PMC_BitwiseOr_X_L@Internal@Core@Math@Palmtree@@YAPEAU__tag_PMC_HANDLE_UINT@1234@PEAU51234@_K@Z DD imagerel $LN7
	DD	imagerel $LN7+315
	DD	imagerel $unwind$?PMC_BitwiseOr_X_L@Internal@Core@Math@Palmtree@@YAPEAU__tag_PMC_HANDLE_UINT@1234@PEAU51234@_K@Z
pdata	ENDS
;	COMDAT pdata
pdata	SEGMENT
$pdata$?dtor$0@?0??PMC_BitwiseOr_X_L@Internal@Core@Math@Palmtree@@YAPEAU__tag_PMC_HANDLE_UINT@1234@PEAU51234@_K@Z@4HA DD imagerel ?dtor$0@?0??PMC_BitwiseOr_X_L@Internal@Core@Math@Palmtree@@YAPEAU__tag_PMC_HANDLE_UINT@1234@PEAU51234@_K@Z@4HA
	DD	imagerel ?dtor$0@?0??PMC_BitwiseOr_X_L@Internal@Core@Math@Palmtree@@YAPEAU__tag_PMC_HANDLE_UINT@1234@PEAU51234@_K@Z@4HA+36
	DD	imagerel $unwind$?dtor$0@?0??PMC_BitwiseOr_X_L@Internal@Core@Math@Palmtree@@YAPEAU__tag_PMC_HANDLE_UINT@1234@PEAU51234@_K@Z@4HA
pdata	ENDS
;	COMDAT pdata
pdata	SEGMENT
$pdata$?PMC_BitwiseOr_X_X@Internal@Core@Math@Palmtree@@YAPEAU__tag_PMC_HANDLE_UINT@1234@PEAU51234@0@Z DD imagerel $LN7
	DD	imagerel $LN7+356
	DD	imagerel $unwind$?PMC_BitwiseOr_X_X@Internal@Core@Math@Palmtree@@YAPEAU__tag_PMC_HANDLE_UINT@1234@PEAU51234@0@Z
pdata	ENDS
;	COMDAT pdata
pdata	SEGMENT
$pdata$?dtor$0@?0??PMC_BitwiseOr_X_X@Internal@Core@Math@Palmtree@@YAPEAU__tag_PMC_HANDLE_UINT@1234@PEAU51234@0@Z@4HA DD imagerel ?dtor$0@?0??PMC_BitwiseOr_X_X@Internal@Core@Math@Palmtree@@YAPEAU__tag_PMC_HANDLE_UINT@1234@PEAU51234@0@Z@4HA
	DD	imagerel ?dtor$0@?0??PMC_BitwiseOr_X_X@Internal@Core@Math@Palmtree@@YAPEAU__tag_PMC_HANDLE_UINT@1234@PEAU51234@0@Z@4HA+36
	DD	imagerel $unwind$?dtor$0@?0??PMC_BitwiseOr_X_X@Internal@Core@Math@Palmtree@@YAPEAU__tag_PMC_HANDLE_UINT@1234@PEAU51234@0@Z@4HA
pdata	ENDS
;	COMDAT pdata
pdata	SEGMENT
$pdata$_COPY_MEMORY_UNIT DD imagerel _COPY_MEMORY_UNIT
	DD	imagerel _COPY_MEMORY_UNIT+100
	DD	imagerel $unwind$_COPY_MEMORY_UNIT
pdata	ENDS
;	COMDAT pdata
pdata	SEGMENT
$pdata$_FROMDWORDTOWORD DD imagerel _FROMDWORDTOWORD
	DD	imagerel _FROMDWORDTOWORD+95
	DD	imagerel $unwind$_FROMDWORDTOWORD
pdata	ENDS
;	COMDAT pdata
pdata	SEGMENT
$pdata$_MAXIMUM_UNIT DD imagerel _MAXIMUM_UNIT
	DD	imagerel _MAXIMUM_UNIT+122
	DD	imagerel $unwind$_MAXIMUM_UNIT
pdata	ENDS
;	COMDAT pdata
pdata	SEGMENT
$pdata$_LZCNT_ALT_32 DD imagerel _LZCNT_ALT_32
	DD	imagerel _LZCNT_ALT_32+126
	DD	imagerel $unwind$_LZCNT_ALT_32
pdata	ENDS
;	COMDAT pdata
pdata	SEGMENT
$pdata$_LZCNT_ALT_UNIT DD imagerel _LZCNT_ALT_UNIT
	DD	imagerel _LZCNT_ALT_UNIT+131
	DD	imagerel $unwind$_LZCNT_ALT_UNIT
pdata	ENDS
;	COMDAT pdata
pdata	SEGMENT
$pdata$?BitwiseOr_X_1W@Internal@Core@Math@Palmtree@@YAXPEA_K_K10@Z DD imagerel ?BitwiseOr_X_1W@Internal@Core@Math@Palmtree@@YAXPEA_K_K10@Z
	DD	imagerel ?BitwiseOr_X_1W@Internal@Core@Math@Palmtree@@YAXPEA_K_K10@Z+251
	DD	imagerel $unwind$?BitwiseOr_X_1W@Internal@Core@Math@Palmtree@@YAXPEA_K_K10@Z
pdata	ENDS
;	COMDAT pdata
pdata	SEGMENT
$pdata$?BitwiseOr_X_2W@Internal@Core@Math@Palmtree@@YAXPEA_K_K110@Z DD imagerel ?BitwiseOr_X_2W@Internal@Core@Math@Palmtree@@YAXPEA_K_K110@Z
	DD	imagerel ?BitwiseOr_X_2W@Internal@Core@Math@Palmtree@@YAXPEA_K_K110@Z+447
	DD	imagerel $unwind$?BitwiseOr_X_2W@Internal@Core@Math@Palmtree@@YAXPEA_K_K110@Z
pdata	ENDS
;	COMDAT pdata
pdata	SEGMENT
$pdata$?BitwiseOr_X_X@Internal@Core@Math@Palmtree@@YAXPEA_K_K010@Z DD imagerel ?BitwiseOr_X_X@Internal@Core@Math@Palmtree@@YAXPEA_K_K010@Z
	DD	imagerel ?BitwiseOr_X_X@Internal@Core@Math@Palmtree@@YAXPEA_K_K010@Z+4562
	DD	imagerel $unwind$?BitwiseOr_X_X@Internal@Core@Math@Palmtree@@YAXPEA_K_K010@Z
pdata	ENDS
;	COMDAT pdata
pdata	SEGMENT
$pdata$?PMC_BitwiseOr_X_I_Imp@Internal@Core@Math@Palmtree@@YAPEAU__tag_NUMBER_HEADER@1234@PEAU51234@I@Z DD imagerel ?PMC_BitwiseOr_X_I_Imp@Internal@Core@Math@Palmtree@@YAPEAU__tag_NUMBER_HEADER@1234@PEAU51234@I@Z
	DD	imagerel ?PMC_BitwiseOr_X_I_Imp@Internal@Core@Math@Palmtree@@YAPEAU__tag_NUMBER_HEADER@1234@PEAU51234@I@Z+413
	DD	imagerel $unwind$?PMC_BitwiseOr_X_I_Imp@Internal@Core@Math@Palmtree@@YAPEAU__tag_NUMBER_HEADER@1234@PEAU51234@I@Z
pdata	ENDS
;	COMDAT pdata
pdata	SEGMENT
$pdata$?dtor$0@?0??PMC_BitwiseOr_X_I_Imp@Internal@Core@Math@Palmtree@@YAPEAU__tag_NUMBER_HEADER@1234@PEAU51234@I@Z@4HA DD imagerel ?dtor$0@?0??PMC_BitwiseOr_X_I_Imp@Internal@Core@Math@Palmtree@@YAPEAU__tag_NUMBER_HEADER@1234@PEAU51234@I@Z@4HA
	DD	imagerel ?dtor$0@?0??PMC_BitwiseOr_X_I_Imp@Internal@Core@Math@Palmtree@@YAPEAU__tag_NUMBER_HEADER@1234@PEAU51234@I@Z@4HA+36
	DD	imagerel $unwind$?dtor$0@?0??PMC_BitwiseOr_X_I_Imp@Internal@Core@Math@Palmtree@@YAPEAU__tag_NUMBER_HEADER@1234@PEAU51234@I@Z@4HA
pdata	ENDS
;	COMDAT pdata
pdata	SEGMENT
$pdata$?PMC_BitwiseOr_X_L_Imp@Internal@Core@Math@Palmtree@@YAPEAU__tag_NUMBER_HEADER@1234@PEAU51234@_K@Z DD imagerel ?PMC_BitwiseOr_X_L_Imp@Internal@Core@Math@Palmtree@@YAPEAU__tag_NUMBER_HEADER@1234@PEAU51234@_K@Z
	DD	imagerel ?PMC_BitwiseOr_X_L_Imp@Internal@Core@Math@Palmtree@@YAPEAU__tag_NUMBER_HEADER@1234@PEAU51234@_K@Z+947
	DD	imagerel $unwind$?PMC_BitwiseOr_X_L_Imp@Internal@Core@Math@Palmtree@@YAPEAU__tag_NUMBER_HEADER@1234@PEAU51234@_K@Z
pdata	ENDS
;	COMDAT pdata
pdata	SEGMENT
$pdata$?dtor$0@?0??PMC_BitwiseOr_X_L_Imp@Internal@Core@Math@Palmtree@@YAPEAU__tag_NUMBER_HEADER@1234@PEAU51234@_K@Z@4HA DD imagerel ?dtor$0@?0??PMC_BitwiseOr_X_L_Imp@Internal@Core@Math@Palmtree@@YAPEAU__tag_NUMBER_HEADER@1234@PEAU51234@_K@Z@4HA
	DD	imagerel ?dtor$0@?0??PMC_BitwiseOr_X_L_Imp@Internal@Core@Math@Palmtree@@YAPEAU__tag_NUMBER_HEADER@1234@PEAU51234@_K@Z@4HA+36
	DD	imagerel $unwind$?dtor$0@?0??PMC_BitwiseOr_X_L_Imp@Internal@Core@Math@Palmtree@@YAPEAU__tag_NUMBER_HEADER@1234@PEAU51234@_K@Z@4HA
pdata	ENDS
;	COMDAT pdata
pdata	SEGMENT
$pdata$?dtor$1@?0??PMC_BitwiseOr_X_L_Imp@Internal@Core@Math@Palmtree@@YAPEAU__tag_NUMBER_HEADER@1234@PEAU51234@_K@Z@4HA DD imagerel ?dtor$1@?0??PMC_BitwiseOr_X_L_Imp@Internal@Core@Math@Palmtree@@YAPEAU__tag_NUMBER_HEADER@1234@PEAU51234@_K@Z@4HA
	DD	imagerel ?dtor$1@?0??PMC_BitwiseOr_X_L_Imp@Internal@Core@Math@Palmtree@@YAPEAU__tag_NUMBER_HEADER@1234@PEAU51234@_K@Z@4HA+39
	DD	imagerel $unwind$?dtor$1@?0??PMC_BitwiseOr_X_L_Imp@Internal@Core@Math@Palmtree@@YAPEAU__tag_NUMBER_HEADER@1234@PEAU51234@_K@Z@4HA
pdata	ENDS
;	COMDAT pdata
pdata	SEGMENT
$pdata$?dtor$2@?0??PMC_BitwiseOr_X_L_Imp@Internal@Core@Math@Palmtree@@YAPEAU__tag_NUMBER_HEADER@1234@PEAU51234@_K@Z@4HA DD imagerel ?dtor$2@?0??PMC_BitwiseOr_X_L_Imp@Internal@Core@Math@Palmtree@@YAPEAU__tag_NUMBER_HEADER@1234@PEAU51234@_K@Z@4HA
	DD	imagerel ?dtor$2@?0??PMC_BitwiseOr_X_L_Imp@Internal@Core@Math@Palmtree@@YAPEAU__tag_NUMBER_HEADER@1234@PEAU51234@_K@Z@4HA+39
	DD	imagerel $unwind$?dtor$2@?0??PMC_BitwiseOr_X_L_Imp@Internal@Core@Math@Palmtree@@YAPEAU__tag_NUMBER_HEADER@1234@PEAU51234@_K@Z@4HA
pdata	ENDS
;	COMDAT pdata
pdata	SEGMENT
$pdata$?PMC_BitwiseOr_X_X_Imp@Internal@Core@Math@Palmtree@@YAPEAU__tag_NUMBER_HEADER@1234@PEAU51234@0@Z DD imagerel ?PMC_BitwiseOr_X_X_Imp@Internal@Core@Math@Palmtree@@YAPEAU__tag_NUMBER_HEADER@1234@PEAU51234@0@Z
	DD	imagerel ?PMC_BitwiseOr_X_X_Imp@Internal@Core@Math@Palmtree@@YAPEAU__tag_NUMBER_HEADER@1234@PEAU51234@0@Z+468
	DD	imagerel $unwind$?PMC_BitwiseOr_X_X_Imp@Internal@Core@Math@Palmtree@@YAPEAU__tag_NUMBER_HEADER@1234@PEAU51234@0@Z
pdata	ENDS
;	COMDAT pdata
pdata	SEGMENT
$pdata$?dtor$0@?0??PMC_BitwiseOr_X_X_Imp@Internal@Core@Math@Palmtree@@YAPEAU__tag_NUMBER_HEADER@1234@PEAU51234@0@Z@4HA DD imagerel ?dtor$0@?0??PMC_BitwiseOr_X_X_Imp@Internal@Core@Math@Palmtree@@YAPEAU__tag_NUMBER_HEADER@1234@PEAU51234@0@Z@4HA
	DD	imagerel ?dtor$0@?0??PMC_BitwiseOr_X_X_Imp@Internal@Core@Math@Palmtree@@YAPEAU__tag_NUMBER_HEADER@1234@PEAU51234@0@Z@4HA+36
	DD	imagerel $unwind$?dtor$0@?0??PMC_BitwiseOr_X_X_Imp@Internal@Core@Math@Palmtree@@YAPEAU__tag_NUMBER_HEADER@1234@PEAU51234@0@Z@4HA
pdata	ENDS
;	COMDAT rtc$TMZ
rtc$TMZ	SEGMENT
_RTC_Shutdown.rtc$TMZ DQ FLAT:_RTC_Shutdown
rtc$TMZ	ENDS
;	COMDAT rtc$IMZ
rtc$IMZ	SEGMENT
_RTC_InitBase.rtc$IMZ DQ FLAT:_RTC_InitBase
rtc$IMZ	ENDS
;	COMDAT ??_R1A@?0A@EA@InternalErrorException@Internal@Core@Math@Palmtree@@8
rdata$r	SEGMENT
??_R1A@?0A@EA@InternalErrorException@Internal@Core@Math@Palmtree@@8 DD imagerel ??_R0?AVInternalErrorException@Internal@Core@Math@Palmtree@@@8 ; Palmtree::Math::Core::Internal::InternalErrorException::`RTTI Base Class Descriptor at (0,-1,0,64)'
	DD	02H
	DD	00H
	DD	0ffffffffH
	DD	00H
	DD	040H
	DD	imagerel ??_R3InternalErrorException@Internal@Core@Math@Palmtree@@8
rdata$r	ENDS
;	COMDAT ??_R2InternalErrorException@Internal@Core@Math@Palmtree@@8
rdata$r	SEGMENT
??_R2InternalErrorException@Internal@Core@Math@Palmtree@@8 DD imagerel ??_R1A@?0A@EA@InternalErrorException@Internal@Core@Math@Palmtree@@8 ; Palmtree::Math::Core::Internal::InternalErrorException::`RTTI Base Class Array'
	DD	imagerel ??_R1A@?0A@EA@Exception@Internal@Core@Math@Palmtree@@8
	DD	imagerel ??_R1A@?0A@EN@exception@std@@8
	ORG $+3
rdata$r	ENDS
;	COMDAT ??_R3InternalErrorException@Internal@Core@Math@Palmtree@@8
rdata$r	SEGMENT
??_R3InternalErrorException@Internal@Core@Math@Palmtree@@8 DD 00H ; Palmtree::Math::Core::Internal::InternalErrorException::`RTTI Class Hierarchy Descriptor'
	DD	00H
	DD	03H
	DD	imagerel ??_R2InternalErrorException@Internal@Core@Math@Palmtree@@8
rdata$r	ENDS
;	COMDAT ??_R4InternalErrorException@Internal@Core@Math@Palmtree@@6B@
rdata$r	SEGMENT
??_R4InternalErrorException@Internal@Core@Math@Palmtree@@6B@ DD 01H ; Palmtree::Math::Core::Internal::InternalErrorException::`RTTI Complete Object Locator'
	DD	00H
	DD	00H
	DD	imagerel ??_R0?AVInternalErrorException@Internal@Core@Math@Palmtree@@@8
	DD	imagerel ??_R3InternalErrorException@Internal@Core@Math@Palmtree@@8
	DD	imagerel ??_R4InternalErrorException@Internal@Core@Math@Palmtree@@6B@
rdata$r	ENDS
;	COMDAT ??_R1A@?0A@EA@ArgumentNullException@Internal@Core@Math@Palmtree@@8
rdata$r	SEGMENT
??_R1A@?0A@EA@ArgumentNullException@Internal@Core@Math@Palmtree@@8 DD imagerel ??_R0?AVArgumentNullException@Internal@Core@Math@Palmtree@@@8 ; Palmtree::Math::Core::Internal::ArgumentNullException::`RTTI Base Class Descriptor at (0,-1,0,64)'
	DD	02H
	DD	00H
	DD	0ffffffffH
	DD	00H
	DD	040H
	DD	imagerel ??_R3ArgumentNullException@Internal@Core@Math@Palmtree@@8
rdata$r	ENDS
;	COMDAT ??_R2ArgumentNullException@Internal@Core@Math@Palmtree@@8
rdata$r	SEGMENT
??_R2ArgumentNullException@Internal@Core@Math@Palmtree@@8 DD imagerel ??_R1A@?0A@EA@ArgumentNullException@Internal@Core@Math@Palmtree@@8 ; Palmtree::Math::Core::Internal::ArgumentNullException::`RTTI Base Class Array'
	DD	imagerel ??_R1A@?0A@EA@Exception@Internal@Core@Math@Palmtree@@8
	DD	imagerel ??_R1A@?0A@EN@exception@std@@8
	ORG $+3
rdata$r	ENDS
;	COMDAT ??_R3ArgumentNullException@Internal@Core@Math@Palmtree@@8
rdata$r	SEGMENT
??_R3ArgumentNullException@Internal@Core@Math@Palmtree@@8 DD 00H ; Palmtree::Math::Core::Internal::ArgumentNullException::`RTTI Class Hierarchy Descriptor'
	DD	00H
	DD	03H
	DD	imagerel ??_R2ArgumentNullException@Internal@Core@Math@Palmtree@@8
rdata$r	ENDS
;	COMDAT ??_R4ArgumentNullException@Internal@Core@Math@Palmtree@@6B@
rdata$r	SEGMENT
??_R4ArgumentNullException@Internal@Core@Math@Palmtree@@6B@ DD 01H ; Palmtree::Math::Core::Internal::ArgumentNullException::`RTTI Complete Object Locator'
	DD	00H
	DD	00H
	DD	imagerel ??_R0?AVArgumentNullException@Internal@Core@Math@Palmtree@@@8
	DD	imagerel ??_R3ArgumentNullException@Internal@Core@Math@Palmtree@@8
	DD	imagerel ??_R4ArgumentNullException@Internal@Core@Math@Palmtree@@6B@
rdata$r	ENDS
;	COMDAT ??_R1A@?0A@EN@exception@std@@8
rdata$r	SEGMENT
??_R1A@?0A@EN@exception@std@@8 DD imagerel ??_R0?AVexception@std@@@8 ; std::exception::`RTTI Base Class Descriptor at (0,-1,0,77)'
	DD	00H
	DD	00H
	DD	0ffffffffH
	DD	00H
	DD	04dH
	DD	imagerel ??_R3exception@std@@8
rdata$r	ENDS
;	COMDAT ??_R1A@?0A@EA@Exception@Internal@Core@Math@Palmtree@@8
rdata$r	SEGMENT
??_R1A@?0A@EA@Exception@Internal@Core@Math@Palmtree@@8 DD imagerel ??_R0?AVException@Internal@Core@Math@Palmtree@@@8 ; Palmtree::Math::Core::Internal::Exception::`RTTI Base Class Descriptor at (0,-1,0,64)'
	DD	01H
	DD	00H
	DD	0ffffffffH
	DD	00H
	DD	040H
	DD	imagerel ??_R3Exception@Internal@Core@Math@Palmtree@@8
rdata$r	ENDS
;	COMDAT ??_R2Exception@Internal@Core@Math@Palmtree@@8
rdata$r	SEGMENT
??_R2Exception@Internal@Core@Math@Palmtree@@8 DD imagerel ??_R1A@?0A@EA@Exception@Internal@Core@Math@Palmtree@@8 ; Palmtree::Math::Core::Internal::Exception::`RTTI Base Class Array'
	DD	imagerel ??_R1A@?0A@EN@exception@std@@8
	ORG $+3
rdata$r	ENDS
;	COMDAT ??_R3Exception@Internal@Core@Math@Palmtree@@8
rdata$r	SEGMENT
??_R3Exception@Internal@Core@Math@Palmtree@@8 DD 00H	; Palmtree::Math::Core::Internal::Exception::`RTTI Class Hierarchy Descriptor'
	DD	00H
	DD	02H
	DD	imagerel ??_R2Exception@Internal@Core@Math@Palmtree@@8
rdata$r	ENDS
;	COMDAT ??_R4Exception@Internal@Core@Math@Palmtree@@6B@
rdata$r	SEGMENT
??_R4Exception@Internal@Core@Math@Palmtree@@6B@ DD 01H	; Palmtree::Math::Core::Internal::Exception::`RTTI Complete Object Locator'
	DD	00H
	DD	00H
	DD	imagerel ??_R0?AVException@Internal@Core@Math@Palmtree@@@8
	DD	imagerel ??_R3Exception@Internal@Core@Math@Palmtree@@8
	DD	imagerel ??_R4Exception@Internal@Core@Math@Palmtree@@6B@
rdata$r	ENDS
;	COMDAT ??_R1A@?0A@EA@exception@std@@8
rdata$r	SEGMENT
??_R1A@?0A@EA@exception@std@@8 DD imagerel ??_R0?AVexception@std@@@8 ; std::exception::`RTTI Base Class Descriptor at (0,-1,0,64)'
	DD	00H
	DD	00H
	DD	0ffffffffH
	DD	00H
	DD	040H
	DD	imagerel ??_R3exception@std@@8
rdata$r	ENDS
;	COMDAT ??_R2exception@std@@8
rdata$r	SEGMENT
??_R2exception@std@@8 DD imagerel ??_R1A@?0A@EA@exception@std@@8 ; std::exception::`RTTI Base Class Array'
	ORG $+3
rdata$r	ENDS
;	COMDAT ??_R3exception@std@@8
rdata$r	SEGMENT
??_R3exception@std@@8 DD 00H				; std::exception::`RTTI Class Hierarchy Descriptor'
	DD	00H
	DD	01H
	DD	imagerel ??_R2exception@std@@8
rdata$r	ENDS
;	COMDAT ??_R0?AVexception@std@@@8
data$r	SEGMENT
??_R0?AVexception@std@@@8 DQ FLAT:??_7type_info@@6B@	; std::exception `RTTI Type Descriptor'
	DQ	0000000000000000H
	DB	'.?AVexception@std@@', 00H
data$r	ENDS
;	COMDAT ??_R4exception@std@@6B@
rdata$r	SEGMENT
??_R4exception@std@@6B@ DD 01H				; std::exception::`RTTI Complete Object Locator'
	DD	00H
	DD	00H
	DD	imagerel ??_R0?AVexception@std@@@8
	DD	imagerel ??_R3exception@std@@8
	DD	imagerel ??_R4exception@std@@6B@
rdata$r	ENDS
;	COMDAT ??_C@_1EM@IIOLBANL@?$AAp?$AAm?$AAc?$AA_?$AAb?$AAi?$AAt?$AAw?$AAi?$AAs?$AAe?$AAo?$AAr?$AA?4?$AAc@
CONST	SEGMENT
??_C@_1EM@IIOLBANL@?$AAp?$AAm?$AAc?$AA_?$AAb?$AAi?$AAt?$AAw?$AAi?$AAs?$AAe?$AAo?$AAr?$AA?4?$AAc@ DB 'p'
	DB	00H, 'm', 00H, 'c', 00H, '_', 00H, 'b', 00H, 'i', 00H, 't', 00H
	DB	'w', 00H, 'i', 00H, 's', 00H, 'e', 00H, 'o', 00H, 'r', 00H, '.'
	DB	00H, 'c', 00H, 'p', 00H, 'p', 00H, ';', 00H, 'P', 00H, 'M', 00H
	DB	'C', 00H, '_', 00H, 'B', 00H, 'i', 00H, 't', 00H, 'w', 00H, 'i'
	DB	00H, 's', 00H, 'e', 00H, 'O', 00H, 'r', 00H, '_', 00H, 'X', 00H
	DB	'_', 00H, 'L', 00H, ';', 00H, '1', 00H, 00H, 00H ; `string'
CONST	ENDS
;	COMDAT ??_C@_1EM@HPAEPJIJ@?$AAp?$AAm?$AAc?$AA_?$AAb?$AAi?$AAt?$AAw?$AAi?$AAs?$AAe?$AAo?$AAr?$AA?4?$AAc@
CONST	SEGMENT
??_C@_1EM@HPAEPJIJ@?$AAp?$AAm?$AAc?$AA_?$AAb?$AAi?$AAt?$AAw?$AAi?$AAs?$AAe?$AAo?$AAr?$AA?4?$AAc@ DB 'p'
	DB	00H, 'm', 00H, 'c', 00H, '_', 00H, 'b', 00H, 'i', 00H, 't', 00H
	DB	'w', 00H, 'i', 00H, 's', 00H, 'e', 00H, 'o', 00H, 'r', 00H, '.'
	DB	00H, 'c', 00H, 'p', 00H, 'p', 00H, ';', 00H, 'P', 00H, 'M', 00H
	DB	'C', 00H, '_', 00H, 'B', 00H, 'i', 00H, 't', 00H, 'w', 00H, 'i'
	DB	00H, 's', 00H, 'e', 00H, 'O', 00H, 'r', 00H, '_', 00H, 'L', 00H
	DB	'_', 00H, 'X', 00H, ';', 00H, '1', 00H, 00H, 00H ; `string'
CONST	ENDS
;	COMDAT ??_C@_13ICFKHAEN@?$AAu@
CONST	SEGMENT
??_C@_13ICFKHAEN@?$AAu@ DB 'u', 00H, 00H, 00H		; `string'
CONST	ENDS
;	COMDAT ??_C@_1EM@MAALBOLP@?$AAp?$AAm?$AAc?$AA_?$AAb?$AAi?$AAt?$AAw?$AAi?$AAs?$AAe?$AAo?$AAr?$AA?4?$AAc@
CONST	SEGMENT
??_C@_1EM@MAALBOLP@?$AAp?$AAm?$AAc?$AA_?$AAb?$AAi?$AAt?$AAw?$AAi?$AAs?$AAe?$AAo?$AAr?$AA?4?$AAc@ DB 'p'
	DB	00H, 'm', 00H, 'c', 00H, '_', 00H, 'b', 00H, 'i', 00H, 't', 00H
	DB	'w', 00H, 'i', 00H, 's', 00H, 'e', 00H, 'o', 00H, 'r', 00H, '.'
	DB	00H, 'c', 00H, 'p', 00H, 'p', 00H, ';', 00H, 'P', 00H, 'M', 00H
	DB	'C', 00H, '_', 00H, 'B', 00H, 'i', 00H, 't', 00H, 'w', 00H, 'i'
	DB	00H, 's', 00H, 'e', 00H, 'O', 00H, 'r', 00H, '_', 00H, 'X', 00H
	DB	'_', 00H, 'I', 00H, ';', 00H, '1', 00H, 00H, 00H ; `string'
CONST	ENDS
;	COMDAT ??_C@_1CK@ECFIEPAC@?$AA?$BF?$AAp?$AAk?$AAn?$AAu?$AAl?$AAl?$AAp?$AAt?$AAr?$AAL?$AA?$AO?$AAH?$PP?$IJ?$PP?$IM@
CONST	SEGMENT
??_C@_1CK@ECFIEPAC@?$AA?$BF?$AAp?$AAk?$AAn?$AAu?$AAl?$AAl?$AAp?$AAt?$AAr?$AAL?$AA?$AO?$AAH?$PP?$IJ?$PP?$IM@ DB 015H
	DB	'_pek0n', 00H, 'u', 00H, 'l', 00H, 'l', 00H, 'p', 00H, 't', 00H
	DB	'r', 00H, 'L0', 0eH, 'NH0', 089H, '0', 08cH, '0f0D0~0Y0', 02H, '0'
	DB	00H, 00H					; `string'
CONST	ENDS
;	COMDAT ??_C@_13JAOPNPKD@?$AAv@
CONST	SEGMENT
??_C@_13JAOPNPKD@?$AAv@ DB 'v', 00H, 00H, 00H		; `string'
CONST	ENDS
;	COMDAT _CT??_R0?AVArgumentNullException@Internal@Core@Math@Palmtree@@@8??0ArgumentNullException@Internal@Core@Math@Palmtree@@QEAA@AEBV01234@@Z48
xdata$x	SEGMENT
_CT??_R0?AVArgumentNullException@Internal@Core@Math@Palmtree@@@8??0ArgumentNullException@Internal@Core@Math@Palmtree@@QEAA@AEBV01234@@Z48 DD 00H
	DD	imagerel ??_R0?AVArgumentNullException@Internal@Core@Math@Palmtree@@@8
	DD	00H
	DD	0ffffffffH
	ORG $+4
	DD	030H
	DD	imagerel ??0ArgumentNullException@Internal@Core@Math@Palmtree@@QEAA@AEBV01234@@Z
xdata$x	ENDS
;	COMDAT ??_R0?AVArgumentNullException@Internal@Core@Math@Palmtree@@@8
data$r	SEGMENT
??_R0?AVArgumentNullException@Internal@Core@Math@Palmtree@@@8 DQ FLAT:??_7type_info@@6B@ ; Palmtree::Math::Core::Internal::ArgumentNullException `RTTI Type Descriptor'
	DQ	0000000000000000H
	DB	'.?AVArgumentNullException@Internal@Core@Math@Palmtree@@', 00H
data$r	ENDS
;	COMDAT _CTA2?AVArgumentNullException@Internal@Core@Math@Palmtree@@
xdata$x	SEGMENT
_CTA2?AVArgumentNullException@Internal@Core@Math@Palmtree@@ DD 02H
	DD	imagerel _CT??_R0?AVArgumentNullException@Internal@Core@Math@Palmtree@@@8??0ArgumentNullException@Internal@Core@Math@Palmtree@@QEAA@AEBV01234@@Z48
	DD	imagerel _CT??_R0?AVException@Internal@Core@Math@Palmtree@@@8??0Exception@Internal@Core@Math@Palmtree@@QEAA@AEBV01234@@Z48
xdata$x	ENDS
;	COMDAT _TI2?AVArgumentNullException@Internal@Core@Math@Palmtree@@
xdata$x	SEGMENT
_TI2?AVArgumentNullException@Internal@Core@Math@Palmtree@@ DD 00H
	DD	imagerel ??1ArgumentNullException@Internal@Core@Math@Palmtree@@UEAA@XZ
	DD	00H
	DD	imagerel _CTA2?AVArgumentNullException@Internal@Core@Math@Palmtree@@
xdata$x	ENDS
;	COMDAT ??_C@_1EM@OHKHIOJJ@?$AAp?$AAm?$AAc?$AA_?$AAb?$AAi?$AAt?$AAw?$AAi?$AAs?$AAe?$AAo?$AAr?$AA?4?$AAc@
CONST	SEGMENT
??_C@_1EM@OHKHIOJJ@?$AAp?$AAm?$AAc?$AA_?$AAb?$AAi?$AAt?$AAw?$AAi?$AAs?$AAe?$AAo?$AAr?$AA?4?$AAc@ DB 'p'
	DB	00H, 'm', 00H, 'c', 00H, '_', 00H, 'b', 00H, 'i', 00H, 't', 00H
	DB	'w', 00H, 'i', 00H, 's', 00H, 'e', 00H, 'o', 00H, 'r', 00H, '.'
	DB	00H, 'c', 00H, 'p', 00H, 'p', 00H, ';', 00H, 'P', 00H, 'M', 00H
	DB	'C', 00H, '_', 00H, 'B', 00H, 'i', 00H, 't', 00H, 'w', 00H, 'i'
	DB	00H, 's', 00H, 'e', 00H, 'O', 00H, 'r', 00H, '_', 00H, 'I', 00H
	DB	'_', 00H, 'X', 00H, ';', 00H, '1', 00H, 00H, 00H ; `string'
CONST	ENDS
;	COMDAT ??_C@_1CG@CNOPPENL@?$PP?$II?$AA?$BP?$AAW?$AAf?$AAD?$AAj?$AAD?$PP?$LD?$PP?$PM?$PP?I?$AAk?$AA0?$AAT?$AAW?$AA?$HO@
CONST	SEGMENT
??_C@_1CG@CNOPPENL@?$PP?$II?$AA?$BP?$AAW?$AAf?$AAD?$AAj?$AAD?$PP?$LD?$PP?$PM?$PP?I?$AAk?$AA0?$AAT?$AAW?$AA?$HO@ DB 088H
	DB	'N', 01fH, 'gW0f0D0j0D0', 0b3H, '0', 0fcH, '0', 0c9H, '0k00RT', 090H
	DB	'W0~0W0_0', 02H, '0', 00H, 00H		; `string'
CONST	ENDS
;	COMDAT _CT??_R0?AVException@Internal@Core@Math@Palmtree@@@8??0Exception@Internal@Core@Math@Palmtree@@QEAA@AEBV01234@@Z48
xdata$x	SEGMENT
_CT??_R0?AVException@Internal@Core@Math@Palmtree@@@8??0Exception@Internal@Core@Math@Palmtree@@QEAA@AEBV01234@@Z48 DD 00H
	DD	imagerel ??_R0?AVException@Internal@Core@Math@Palmtree@@@8
	DD	00H
	DD	0ffffffffH
	ORG $+4
	DD	030H
	DD	imagerel ??0Exception@Internal@Core@Math@Palmtree@@QEAA@AEBV01234@@Z
xdata$x	ENDS
;	COMDAT ??_R0?AVException@Internal@Core@Math@Palmtree@@@8
data$r	SEGMENT
??_R0?AVException@Internal@Core@Math@Palmtree@@@8 DQ FLAT:??_7type_info@@6B@ ; Palmtree::Math::Core::Internal::Exception `RTTI Type Descriptor'
	DQ	0000000000000000H
	DB	'.?AVException@Internal@Core@Math@Palmtree@@', 00H
data$r	ENDS
;	COMDAT _CT??_R0?AVInternalErrorException@Internal@Core@Math@Palmtree@@@8??0InternalErrorException@Internal@Core@Math@Palmtree@@QEAA@AEBV01234@@Z48
xdata$x	SEGMENT
_CT??_R0?AVInternalErrorException@Internal@Core@Math@Palmtree@@@8??0InternalErrorException@Internal@Core@Math@Palmtree@@QEAA@AEBV01234@@Z48 DD 00H
	DD	imagerel ??_R0?AVInternalErrorException@Internal@Core@Math@Palmtree@@@8
	DD	00H
	DD	0ffffffffH
	ORG $+4
	DD	030H
	DD	imagerel ??0InternalErrorException@Internal@Core@Math@Palmtree@@QEAA@AEBV01234@@Z
xdata$x	ENDS
;	COMDAT ??_R0?AVInternalErrorException@Internal@Core@Math@Palmtree@@@8
data$r	SEGMENT
??_R0?AVInternalErrorException@Internal@Core@Math@Palmtree@@@8 DQ FLAT:??_7type_info@@6B@ ; Palmtree::Math::Core::Internal::InternalErrorException `RTTI Type Descriptor'
	DQ	0000000000000000H
	DB	'.?AVInternalErrorException@Internal@Core@Math@Palmtree@@'
	DB	00H
data$r	ENDS
;	COMDAT _CTA2?AVInternalErrorException@Internal@Core@Math@Palmtree@@
xdata$x	SEGMENT
_CTA2?AVInternalErrorException@Internal@Core@Math@Palmtree@@ DD 02H
	DD	imagerel _CT??_R0?AVInternalErrorException@Internal@Core@Math@Palmtree@@@8??0InternalErrorException@Internal@Core@Math@Palmtree@@QEAA@AEBV01234@@Z48
	DD	imagerel _CT??_R0?AVException@Internal@Core@Math@Palmtree@@@8??0Exception@Internal@Core@Math@Palmtree@@QEAA@AEBV01234@@Z48
xdata$x	ENDS
;	COMDAT _TI2?AVInternalErrorException@Internal@Core@Math@Palmtree@@
xdata$x	SEGMENT
_TI2?AVInternalErrorException@Internal@Core@Math@Palmtree@@ DD 00H
	DD	imagerel ??1InternalErrorException@Internal@Core@Math@Palmtree@@UEAA@XZ
	DD	00H
	DD	imagerel _CTA2?AVInternalErrorException@Internal@Core@Math@Palmtree@@
xdata$x	ENDS
;	COMDAT ??_7InternalErrorException@Internal@Core@Math@Palmtree@@6B@
CONST	SEGMENT
??_7InternalErrorException@Internal@Core@Math@Palmtree@@6B@ DQ FLAT:??_R4InternalErrorException@Internal@Core@Math@Palmtree@@6B@ ; Palmtree::Math::Core::Internal::InternalErrorException::`vftable'
	DQ	FLAT:??_EInternalErrorException@Internal@Core@Math@Palmtree@@UEAAPEAXI@Z
	DQ	FLAT:?what@exception@std@@UEBAPEBDXZ
CONST	ENDS
;	COMDAT ??_7ArgumentNullException@Internal@Core@Math@Palmtree@@6B@
CONST	SEGMENT
??_7ArgumentNullException@Internal@Core@Math@Palmtree@@6B@ DQ FLAT:??_R4ArgumentNullException@Internal@Core@Math@Palmtree@@6B@ ; Palmtree::Math::Core::Internal::ArgumentNullException::`vftable'
	DQ	FLAT:??_EArgumentNullException@Internal@Core@Math@Palmtree@@UEAAPEAXI@Z
	DQ	FLAT:?what@exception@std@@UEBAPEBDXZ
CONST	ENDS
;	COMDAT ??_7Exception@Internal@Core@Math@Palmtree@@6B@
CONST	SEGMENT
??_7Exception@Internal@Core@Math@Palmtree@@6B@ DQ FLAT:??_R4Exception@Internal@Core@Math@Palmtree@@6B@ ; Palmtree::Math::Core::Internal::Exception::`vftable'
	DQ	FLAT:??_EException@Internal@Core@Math@Palmtree@@UEAAPEAXI@Z
	DQ	FLAT:?what@exception@std@@UEBAPEBDXZ
CONST	ENDS
;	COMDAT ??_C@_0BC@EOODALEL@Unknown?5exception@
CONST	SEGMENT
??_C@_0BC@EOODALEL@Unknown?5exception@ DB 'Unknown exception', 00H ; `string'
CONST	ENDS
;	COMDAT ??_7exception@std@@6B@
CONST	SEGMENT
??_7exception@std@@6B@ DQ FLAT:??_R4exception@std@@6B@	; std::exception::`vftable'
	DQ	FLAT:??_Eexception@std@@UEAAPEAXI@Z
	DQ	FLAT:?what@exception@std@@UEBAPEBDXZ
CONST	ENDS
;	COMDAT xdata
xdata	SEGMENT
$unwind$?dtor$0@?0??PMC_BitwiseOr_X_X_Imp@Internal@Core@Math@Palmtree@@YAPEAU__tag_NUMBER_HEADER@1234@PEAU51234@0@Z@4HA DD 031001H
	DD	0700c4210H
	DD	0500bH
xdata	ENDS
;	COMDAT xdata
xdata	SEGMENT
$ip2state$?PMC_BitwiseOr_X_X_Imp@Internal@Core@Math@Palmtree@@YAPEAU__tag_NUMBER_HEADER@1234@PEAU51234@0@Z DD imagerel ?PMC_BitwiseOr_X_X_Imp@Internal@Core@Math@Palmtree@@YAPEAU__tag_NUMBER_HEADER@1234@PEAU51234@0@Z
	DD	0ffffffffH
	DD	imagerel ?PMC_BitwiseOr_X_X_Imp@Internal@Core@Math@Palmtree@@YAPEAU__tag_NUMBER_HEADER@1234@PEAU51234@0@Z+158
	DD	00H
	DD	imagerel ?PMC_BitwiseOr_X_X_Imp@Internal@Core@Math@Palmtree@@YAPEAU__tag_NUMBER_HEADER@1234@PEAU51234@0@Z+420
	DD	0ffffffffH
xdata	ENDS
;	COMDAT xdata
xdata	SEGMENT
$stateUnwindMap$?PMC_BitwiseOr_X_X_Imp@Internal@Core@Math@Palmtree@@YAPEAU__tag_NUMBER_HEADER@1234@PEAU51234@0@Z DD 0ffffffffH
	DD	imagerel ?dtor$0@?0??PMC_BitwiseOr_X_X_Imp@Internal@Core@Math@Palmtree@@YAPEAU__tag_NUMBER_HEADER@1234@PEAU51234@0@Z@4HA
xdata	ENDS
;	COMDAT xdata
xdata	SEGMENT
$unwind$?PMC_BitwiseOr_X_X_Imp@Internal@Core@Math@Palmtree@@YAPEAU__tag_NUMBER_HEADER@1234@PEAU51234@0@Z DD 035053a11H
	DD	01133318H
	DD	0700c0043H
	DD	0500bH
	DD	imagerel __CxxFrameHandler3
	DD	imagerel $cppxdata$?PMC_BitwiseOr_X_X_Imp@Internal@Core@Math@Palmtree@@YAPEAU__tag_NUMBER_HEADER@1234@PEAU51234@0@Z
xdata	ENDS
;	COMDAT CONST
CONST	SEGMENT
?PMC_BitwiseOr_X_X_Imp@Internal@Core@Math@Palmtree@@YAPEAU__tag_NUMBER_HEADER@1234@PEAU51234@0@Z$rtcName$0 DB 072H ; Palmtree::Math::Core::Internal::PMC_BitwiseOr_X_X_Imp
	DB	06fH
	DB	06fH
	DB	074H
	DB	00H
	ORG $+11
?PMC_BitwiseOr_X_X_Imp@Internal@Core@Math@Palmtree@@YAPEAU__tag_NUMBER_HEADER@1234@PEAU51234@0@Z$rtcVarDesc DD 038H ; Palmtree::Math::Core::Internal::PMC_BitwiseOr_X_X_Imp
	DD	020H
	DQ	FLAT:?PMC_BitwiseOr_X_X_Imp@Internal@Core@Math@Palmtree@@YAPEAU__tag_NUMBER_HEADER@1234@PEAU51234@0@Z$rtcName$0
	ORG $+48
?PMC_BitwiseOr_X_X_Imp@Internal@Core@Math@Palmtree@@YAPEAU__tag_NUMBER_HEADER@1234@PEAU51234@0@Z$rtcFrameData DD 01H ; Palmtree::Math::Core::Internal::PMC_BitwiseOr_X_X_Imp
	DD	00H
	DQ	FLAT:?PMC_BitwiseOr_X_X_Imp@Internal@Core@Math@Palmtree@@YAPEAU__tag_NUMBER_HEADER@1234@PEAU51234@0@Z$rtcVarDesc
$cppxdata$?PMC_BitwiseOr_X_X_Imp@Internal@Core@Math@Palmtree@@YAPEAU__tag_NUMBER_HEADER@1234@PEAU51234@0@Z DD 019930522H
	DD	01H
	DD	imagerel $stateUnwindMap$?PMC_BitwiseOr_X_X_Imp@Internal@Core@Math@Palmtree@@YAPEAU__tag_NUMBER_HEADER@1234@PEAU51234@0@Z
	DD	00H
	DD	00H
	DD	03H
	DD	imagerel $ip2state$?PMC_BitwiseOr_X_X_Imp@Internal@Core@Math@Palmtree@@YAPEAU__tag_NUMBER_HEADER@1234@PEAU51234@0@Z
	DD	01f8H
	DD	00H
	DD	00H
CONST	ENDS
;	COMDAT xdata
xdata	SEGMENT
$unwind$?dtor$2@?0??PMC_BitwiseOr_X_L_Imp@Internal@Core@Math@Palmtree@@YAPEAU__tag_NUMBER_HEADER@1234@PEAU51234@_K@Z@4HA DD 031001H
	DD	0700c4210H
	DD	0500bH
xdata	ENDS
;	COMDAT xdata
xdata	SEGMENT
$unwind$?dtor$1@?0??PMC_BitwiseOr_X_L_Imp@Internal@Core@Math@Palmtree@@YAPEAU__tag_NUMBER_HEADER@1234@PEAU51234@_K@Z@4HA DD 031001H
	DD	0700c4210H
	DD	0500bH
xdata	ENDS
;	COMDAT xdata
xdata	SEGMENT
$unwind$?dtor$0@?0??PMC_BitwiseOr_X_L_Imp@Internal@Core@Math@Palmtree@@YAPEAU__tag_NUMBER_HEADER@1234@PEAU51234@_K@Z@4HA DD 031001H
	DD	0700c4210H
	DD	0500bH
xdata	ENDS
;	COMDAT xdata
xdata	SEGMENT
$ip2state$?PMC_BitwiseOr_X_L_Imp@Internal@Core@Math@Palmtree@@YAPEAU__tag_NUMBER_HEADER@1234@PEAU51234@_K@Z DD imagerel ?PMC_BitwiseOr_X_L_Imp@Internal@Core@Math@Palmtree@@YAPEAU__tag_NUMBER_HEADER@1234@PEAU51234@_K@Z
	DD	0ffffffffH
	DD	imagerel ?PMC_BitwiseOr_X_L_Imp@Internal@Core@Math@Palmtree@@YAPEAU__tag_NUMBER_HEADER@1234@PEAU51234@_K@Z+229
	DD	00H
	DD	imagerel ?PMC_BitwiseOr_X_L_Imp@Internal@Core@Math@Palmtree@@YAPEAU__tag_NUMBER_HEADER@1234@PEAU51234@_K@Z+405
	DD	0ffffffffH
	DD	imagerel ?PMC_BitwiseOr_X_L_Imp@Internal@Core@Math@Palmtree@@YAPEAU__tag_NUMBER_HEADER@1234@PEAU51234@_K@Z+444
	DD	01H
	DD	imagerel ?PMC_BitwiseOr_X_L_Imp@Internal@Core@Math@Palmtree@@YAPEAU__tag_NUMBER_HEADER@1234@PEAU51234@_K@Z+640
	DD	0ffffffffH
	DD	imagerel ?PMC_BitwiseOr_X_L_Imp@Internal@Core@Math@Palmtree@@YAPEAU__tag_NUMBER_HEADER@1234@PEAU51234@_K@Z+682
	DD	02H
	DD	imagerel ?PMC_BitwiseOr_X_L_Imp@Internal@Core@Math@Palmtree@@YAPEAU__tag_NUMBER_HEADER@1234@PEAU51234@_K@Z+896
	DD	0ffffffffH
xdata	ENDS
;	COMDAT xdata
xdata	SEGMENT
$stateUnwindMap$?PMC_BitwiseOr_X_L_Imp@Internal@Core@Math@Palmtree@@YAPEAU__tag_NUMBER_HEADER@1234@PEAU51234@_K@Z DD 0ffffffffH
	DD	imagerel ?dtor$0@?0??PMC_BitwiseOr_X_L_Imp@Internal@Core@Math@Palmtree@@YAPEAU__tag_NUMBER_HEADER@1234@PEAU51234@_K@Z@4HA
	DD	0ffffffffH
	DD	imagerel ?dtor$1@?0??PMC_BitwiseOr_X_L_Imp@Internal@Core@Math@Palmtree@@YAPEAU__tag_NUMBER_HEADER@1234@PEAU51234@_K@Z@4HA
	DD	0ffffffffH
	DD	imagerel ?dtor$2@?0??PMC_BitwiseOr_X_L_Imp@Internal@Core@Math@Palmtree@@YAPEAU__tag_NUMBER_HEADER@1234@PEAU51234@_K@Z@4HA
xdata	ENDS
;	COMDAT xdata
xdata	SEGMENT
$unwind$?PMC_BitwiseOr_X_L_Imp@Internal@Core@Math@Palmtree@@YAPEAU__tag_NUMBER_HEADER@1234@PEAU51234@_K@Z DD 035053a11H
	DD	01133318H
	DD	0700c0093H
	DD	0500bH
	DD	imagerel __CxxFrameHandler3
	DD	imagerel $cppxdata$?PMC_BitwiseOr_X_L_Imp@Internal@Core@Math@Palmtree@@YAPEAU__tag_NUMBER_HEADER@1234@PEAU51234@_K@Z
xdata	ENDS
;	COMDAT CONST
CONST	SEGMENT
?PMC_BitwiseOr_X_L_Imp@Internal@Core@Math@Palmtree@@YAPEAU__tag_NUMBER_HEADER@1234@PEAU51234@_K@Z$rtcName$0 DB 076H ; Palmtree::Math::Core::Internal::PMC_BitwiseOr_X_L_Imp
	DB	05fH
	DB	068H
	DB	069H
	DB	00H
	ORG $+3
?PMC_BitwiseOr_X_L_Imp@Internal@Core@Math@Palmtree@@YAPEAU__tag_NUMBER_HEADER@1234@PEAU51234@_K@Z$rtcName$1 DB 072H ; Palmtree::Math::Core::Internal::PMC_BitwiseOr_X_L_Imp
	DB	06fH
	DB	06fH
	DB	074H
	DB	00H
	ORG $+3
?PMC_BitwiseOr_X_L_Imp@Internal@Core@Math@Palmtree@@YAPEAU__tag_NUMBER_HEADER@1234@PEAU51234@_K@Z$rtcName$2 DB 072H ; Palmtree::Math::Core::Internal::PMC_BitwiseOr_X_L_Imp
	DB	06fH
	DB	06fH
	DB	074H
	DB	00H
	ORG $+3
?PMC_BitwiseOr_X_L_Imp@Internal@Core@Math@Palmtree@@YAPEAU__tag_NUMBER_HEADER@1234@PEAU51234@_K@Z$rtcName$3 DB 072H ; Palmtree::Math::Core::Internal::PMC_BitwiseOr_X_L_Imp
	DB	06fH
	DB	06fH
	DB	074H
	DB	00H
	ORG $+3
?PMC_BitwiseOr_X_L_Imp@Internal@Core@Math@Palmtree@@YAPEAU__tag_NUMBER_HEADER@1234@PEAU51234@_K@Z$rtcVarDesc DD 01d8H ; Palmtree::Math::Core::Internal::PMC_BitwiseOr_X_L_Imp
	DD	020H
	DQ	FLAT:?PMC_BitwiseOr_X_L_Imp@Internal@Core@Math@Palmtree@@YAPEAU__tag_NUMBER_HEADER@1234@PEAU51234@_K@Z$rtcName$3
	DD	0138H
	DD	020H
	DQ	FLAT:?PMC_BitwiseOr_X_L_Imp@Internal@Core@Math@Palmtree@@YAPEAU__tag_NUMBER_HEADER@1234@PEAU51234@_K@Z$rtcName$2
	DD	098H
	DD	020H
	DQ	FLAT:?PMC_BitwiseOr_X_L_Imp@Internal@Core@Math@Palmtree@@YAPEAU__tag_NUMBER_HEADER@1234@PEAU51234@_K@Z$rtcName$1
	DD	054H
	DD	04H
	DQ	FLAT:?PMC_BitwiseOr_X_L_Imp@Internal@Core@Math@Palmtree@@YAPEAU__tag_NUMBER_HEADER@1234@PEAU51234@_K@Z$rtcName$0
	ORG $+192
?PMC_BitwiseOr_X_L_Imp@Internal@Core@Math@Palmtree@@YAPEAU__tag_NUMBER_HEADER@1234@PEAU51234@_K@Z$rtcFrameData DD 04H ; Palmtree::Math::Core::Internal::PMC_BitwiseOr_X_L_Imp
	DD	00H
	DQ	FLAT:?PMC_BitwiseOr_X_L_Imp@Internal@Core@Math@Palmtree@@YAPEAU__tag_NUMBER_HEADER@1234@PEAU51234@_K@Z$rtcVarDesc
$cppxdata$?PMC_BitwiseOr_X_L_Imp@Internal@Core@Math@Palmtree@@YAPEAU__tag_NUMBER_HEADER@1234@PEAU51234@_K@Z DD 019930522H
	DD	03H
	DD	imagerel $stateUnwindMap$?PMC_BitwiseOr_X_L_Imp@Internal@Core@Math@Palmtree@@YAPEAU__tag_NUMBER_HEADER@1234@PEAU51234@_K@Z
	DD	00H
	DD	00H
	DD	07H
	DD	imagerel $ip2state$?PMC_BitwiseOr_X_L_Imp@Internal@Core@Math@Palmtree@@YAPEAU__tag_NUMBER_HEADER@1234@PEAU51234@_K@Z
	DD	0478H
	DD	00H
	DD	00H
CONST	ENDS
;	COMDAT xdata
xdata	SEGMENT
$unwind$?dtor$0@?0??PMC_BitwiseOr_X_I_Imp@Internal@Core@Math@Palmtree@@YAPEAU__tag_NUMBER_HEADER@1234@PEAU51234@I@Z@4HA DD 031001H
	DD	0700c4210H
	DD	0500bH
xdata	ENDS
;	COMDAT xdata
xdata	SEGMENT
$ip2state$?PMC_BitwiseOr_X_I_Imp@Internal@Core@Math@Palmtree@@YAPEAU__tag_NUMBER_HEADER@1234@PEAU51234@I@Z DD imagerel ?PMC_BitwiseOr_X_I_Imp@Internal@Core@Math@Palmtree@@YAPEAU__tag_NUMBER_HEADER@1234@PEAU51234@I@Z
	DD	0ffffffffH
	DD	imagerel ?PMC_BitwiseOr_X_I_Imp@Internal@Core@Math@Palmtree@@YAPEAU__tag_NUMBER_HEADER@1234@PEAU51234@I@Z+171
	DD	00H
	DD	imagerel ?PMC_BitwiseOr_X_I_Imp@Internal@Core@Math@Palmtree@@YAPEAU__tag_NUMBER_HEADER@1234@PEAU51234@I@Z+365
	DD	0ffffffffH
xdata	ENDS
;	COMDAT xdata
xdata	SEGMENT
$stateUnwindMap$?PMC_BitwiseOr_X_I_Imp@Internal@Core@Math@Palmtree@@YAPEAU__tag_NUMBER_HEADER@1234@PEAU51234@I@Z DD 0ffffffffH
	DD	imagerel ?dtor$0@?0??PMC_BitwiseOr_X_I_Imp@Internal@Core@Math@Palmtree@@YAPEAU__tag_NUMBER_HEADER@1234@PEAU51234@I@Z@4HA
xdata	ENDS
;	COMDAT xdata
xdata	SEGMENT
$unwind$?PMC_BitwiseOr_X_I_Imp@Internal@Core@Math@Palmtree@@YAPEAU__tag_NUMBER_HEADER@1234@PEAU51234@I@Z DD 025053911H
	DD	01122317H
	DD	0700b003dH
	DD	0500aH
	DD	imagerel __CxxFrameHandler3
	DD	imagerel $cppxdata$?PMC_BitwiseOr_X_I_Imp@Internal@Core@Math@Palmtree@@YAPEAU__tag_NUMBER_HEADER@1234@PEAU51234@I@Z
xdata	ENDS
;	COMDAT CONST
CONST	SEGMENT
?PMC_BitwiseOr_X_I_Imp@Internal@Core@Math@Palmtree@@YAPEAU__tag_NUMBER_HEADER@1234@PEAU51234@I@Z$rtcName$0 DB 072H ; Palmtree::Math::Core::Internal::PMC_BitwiseOr_X_I_Imp
	DB	06fH
	DB	06fH
	DB	074H
	DB	00H
	ORG $+11
?PMC_BitwiseOr_X_I_Imp@Internal@Core@Math@Palmtree@@YAPEAU__tag_NUMBER_HEADER@1234@PEAU51234@I@Z$rtcVarDesc DD 028H ; Palmtree::Math::Core::Internal::PMC_BitwiseOr_X_I_Imp
	DD	020H
	DQ	FLAT:?PMC_BitwiseOr_X_I_Imp@Internal@Core@Math@Palmtree@@YAPEAU__tag_NUMBER_HEADER@1234@PEAU51234@I@Z$rtcName$0
	ORG $+48
?PMC_BitwiseOr_X_I_Imp@Internal@Core@Math@Palmtree@@YAPEAU__tag_NUMBER_HEADER@1234@PEAU51234@I@Z$rtcFrameData DD 01H ; Palmtree::Math::Core::Internal::PMC_BitwiseOr_X_I_Imp
	DD	00H
	DQ	FLAT:?PMC_BitwiseOr_X_I_Imp@Internal@Core@Math@Palmtree@@YAPEAU__tag_NUMBER_HEADER@1234@PEAU51234@I@Z$rtcVarDesc
$cppxdata$?PMC_BitwiseOr_X_I_Imp@Internal@Core@Math@Palmtree@@YAPEAU__tag_NUMBER_HEADER@1234@PEAU51234@I@Z DD 019930522H
	DD	01H
	DD	imagerel $stateUnwindMap$?PMC_BitwiseOr_X_I_Imp@Internal@Core@Math@Palmtree@@YAPEAU__tag_NUMBER_HEADER@1234@PEAU51234@I@Z
	DD	00H
	DD	00H
	DD	03H
	DD	imagerel $ip2state$?PMC_BitwiseOr_X_I_Imp@Internal@Core@Math@Palmtree@@YAPEAU__tag_NUMBER_HEADER@1234@PEAU51234@I@Z
	DD	01c8H
	DD	00H
	DD	00H
CONST	ENDS
;	COMDAT xdata
xdata	SEGMENT
$unwind$?BitwiseOr_X_X@Internal@Core@Math@Palmtree@@YAXPEA_K_K010@Z DD 025053901H
	DD	011d2322H
	DD	070160029H
	DD	05015H
xdata	ENDS
;	COMDAT xdata
xdata	SEGMENT
$unwind$?BitwiseOr_X_2W@Internal@Core@Math@Palmtree@@YAXPEA_K_K110@Z DD 025053901H
	DD	011d2322H
	DD	07016001fH
	DD	05015H
xdata	ENDS
;	COMDAT xdata
xdata	SEGMENT
$unwind$?BitwiseOr_X_1W@Internal@Core@Math@Palmtree@@YAXPEA_K_K10@Z DD 025053901H
	DD	011d2322H
	DD	07016001fH
	DD	05015H
xdata	ENDS
;	COMDAT xdata
xdata	SEGMENT
$unwind$_LZCNT_ALT_UNIT DD 025052a01H
	DD	010e2313H
	DD	070070021H
	DD	05006H
xdata	ENDS
;	COMDAT CONST
CONST	SEGMENT
_LZCNT_ALT_UNIT$rtcName$0 DB 070H
	DB	06fH
	DB	073H
	DB	00H
	ORG $+12
_LZCNT_ALT_UNIT$rtcVarDesc DD 024H
	DD	04H
	DQ	FLAT:_LZCNT_ALT_UNIT$rtcName$0
	ORG $+48
_LZCNT_ALT_UNIT$rtcFrameData DD 01H
	DD	00H
	DQ	FLAT:_LZCNT_ALT_UNIT$rtcVarDesc
CONST	ENDS
;	COMDAT xdata
xdata	SEGMENT
$unwind$_LZCNT_ALT_32 DD 025052801H
	DD	010d2312H
	DD	070060021H
	DD	05005H
xdata	ENDS
;	COMDAT CONST
CONST	SEGMENT
_LZCNT_ALT_32$rtcName$0 DB 070H
	DB	06fH
	DB	073H
	DB	00H
	ORG $+12
_LZCNT_ALT_32$rtcVarDesc DD 024H
	DD	04H
	DQ	FLAT:_LZCNT_ALT_32$rtcName$0
	ORG $+48
_LZCNT_ALT_32$rtcFrameData DD 01H
	DD	00H
	DQ	FLAT:_LZCNT_ALT_32$rtcVarDesc
CONST	ENDS
;	COMDAT xdata
xdata	SEGMENT
$unwind$_MAXIMUM_UNIT DD 025052f01H
	DD	01132318H
	DD	0700c001fH
	DD	0500bH
xdata	ENDS
;	COMDAT xdata
xdata	SEGMENT
$unwind$_FROMDWORDTOWORD DD 025052f01H
	DD	01132318H
	DD	0700c001dH
	DD	0500bH
xdata	ENDS
;	COMDAT xdata
xdata	SEGMENT
$unwind$_COPY_MEMORY_UNIT DD 025063501H
	DD	0119231eH
	DD	07012001cH
	DD	050106011H
xdata	ENDS
;	COMDAT xdata
xdata	SEGMENT
$unwind$?dtor$0@?0??PMC_BitwiseOr_X_X@Internal@Core@Math@Palmtree@@YAPEAU__tag_PMC_HANDLE_UINT@1234@PEAU51234@0@Z@4HA DD 031001H
	DD	0700c4210H
	DD	0500bH
xdata	ENDS
;	COMDAT xdata
xdata	SEGMENT
$ip2state$?PMC_BitwiseOr_X_X@Internal@Core@Math@Palmtree@@YAPEAU__tag_PMC_HANDLE_UINT@1234@PEAU51234@0@Z DD imagerel ?PMC_BitwiseOr_X_X@Internal@Core@Math@Palmtree@@YAPEAU__tag_PMC_HANDLE_UINT@1234@PEAU51234@0@Z
	DD	0ffffffffH
	DD	imagerel ?PMC_BitwiseOr_X_X@Internal@Core@Math@Palmtree@@YAPEAU__tag_PMC_HANDLE_UINT@1234@PEAU51234@0@Z+230
	DD	00H
	DD	imagerel ?PMC_BitwiseOr_X_X@Internal@Core@Math@Palmtree@@YAPEAU__tag_PMC_HANDLE_UINT@1234@PEAU51234@0@Z+308
	DD	0ffffffffH
xdata	ENDS
;	COMDAT xdata
xdata	SEGMENT
$stateUnwindMap$?PMC_BitwiseOr_X_X@Internal@Core@Math@Palmtree@@YAPEAU__tag_PMC_HANDLE_UINT@1234@PEAU51234@0@Z DD 0ffffffffH
	DD	imagerel ?dtor$0@?0??PMC_BitwiseOr_X_X@Internal@Core@Math@Palmtree@@YAPEAU__tag_PMC_HANDLE_UINT@1234@PEAU51234@0@Z@4HA
xdata	ENDS
;	COMDAT xdata
xdata	SEGMENT
$unwind$?PMC_BitwiseOr_X_X@Internal@Core@Math@Palmtree@@YAPEAU__tag_PMC_HANDLE_UINT@1234@PEAU51234@0@Z DD 025053a11H
	DD	01132318H
	DD	0700c004dH
	DD	0500bH
	DD	imagerel __CxxFrameHandler3
	DD	imagerel $cppxdata$?PMC_BitwiseOr_X_X@Internal@Core@Math@Palmtree@@YAPEAU__tag_PMC_HANDLE_UINT@1234@PEAU51234@0@Z
xdata	ENDS
;	COMDAT CONST
CONST	SEGMENT
?PMC_BitwiseOr_X_X@Internal@Core@Math@Palmtree@@YAPEAU__tag_PMC_HANDLE_UINT@1234@PEAU51234@0@Z$rtcName$0 DB 072H ; Palmtree::Math::Core::Internal::PMC_BitwiseOr_X_X
	DB	06fH
	DB	06fH
	DB	074H
	DB	00H
	ORG $+11
?PMC_BitwiseOr_X_X@Internal@Core@Math@Palmtree@@YAPEAU__tag_PMC_HANDLE_UINT@1234@PEAU51234@0@Z$rtcVarDesc DD 068H ; Palmtree::Math::Core::Internal::PMC_BitwiseOr_X_X
	DD	020H
	DQ	FLAT:?PMC_BitwiseOr_X_X@Internal@Core@Math@Palmtree@@YAPEAU__tag_PMC_HANDLE_UINT@1234@PEAU51234@0@Z$rtcName$0
	ORG $+48
?PMC_BitwiseOr_X_X@Internal@Core@Math@Palmtree@@YAPEAU__tag_PMC_HANDLE_UINT@1234@PEAU51234@0@Z$rtcFrameData DD 01H ; Palmtree::Math::Core::Internal::PMC_BitwiseOr_X_X
	DD	00H
	DQ	FLAT:?PMC_BitwiseOr_X_X@Internal@Core@Math@Palmtree@@YAPEAU__tag_PMC_HANDLE_UINT@1234@PEAU51234@0@Z$rtcVarDesc
$cppxdata$?PMC_BitwiseOr_X_X@Internal@Core@Math@Palmtree@@YAPEAU__tag_PMC_HANDLE_UINT@1234@PEAU51234@0@Z DD 019930522H
	DD	01H
	DD	imagerel $stateUnwindMap$?PMC_BitwiseOr_X_X@Internal@Core@Math@Palmtree@@YAPEAU__tag_PMC_HANDLE_UINT@1234@PEAU51234@0@Z
	DD	00H
	DD	00H
	DD	03H
	DD	imagerel $ip2state$?PMC_BitwiseOr_X_X@Internal@Core@Math@Palmtree@@YAPEAU__tag_PMC_HANDLE_UINT@1234@PEAU51234@0@Z
	DD	0248H
	DD	00H
	DD	00H
CONST	ENDS
;	COMDAT xdata
xdata	SEGMENT
$unwind$?dtor$0@?0??PMC_BitwiseOr_X_L@Internal@Core@Math@Palmtree@@YAPEAU__tag_PMC_HANDLE_UINT@1234@PEAU51234@_K@Z@4HA DD 031001H
	DD	0700c4210H
	DD	0500bH
xdata	ENDS
;	COMDAT xdata
xdata	SEGMENT
$ip2state$?PMC_BitwiseOr_X_L@Internal@Core@Math@Palmtree@@YAPEAU__tag_PMC_HANDLE_UINT@1234@PEAU51234@_K@Z DD imagerel ?PMC_BitwiseOr_X_L@Internal@Core@Math@Palmtree@@YAPEAU__tag_PMC_HANDLE_UINT@1234@PEAU51234@_K@Z
	DD	0ffffffffH
	DD	imagerel ?PMC_BitwiseOr_X_L@Internal@Core@Math@Palmtree@@YAPEAU__tag_PMC_HANDLE_UINT@1234@PEAU51234@_K@Z+198
	DD	00H
	DD	imagerel ?PMC_BitwiseOr_X_L@Internal@Core@Math@Palmtree@@YAPEAU__tag_PMC_HANDLE_UINT@1234@PEAU51234@_K@Z+267
	DD	0ffffffffH
xdata	ENDS
;	COMDAT xdata
xdata	SEGMENT
$stateUnwindMap$?PMC_BitwiseOr_X_L@Internal@Core@Math@Palmtree@@YAPEAU__tag_PMC_HANDLE_UINT@1234@PEAU51234@_K@Z DD 0ffffffffH
	DD	imagerel ?dtor$0@?0??PMC_BitwiseOr_X_L@Internal@Core@Math@Palmtree@@YAPEAU__tag_PMC_HANDLE_UINT@1234@PEAU51234@_K@Z@4HA
xdata	ENDS
;	COMDAT xdata
xdata	SEGMENT
$unwind$?PMC_BitwiseOr_X_L@Internal@Core@Math@Palmtree@@YAPEAU__tag_PMC_HANDLE_UINT@1234@PEAU51234@_K@Z DD 025053a11H
	DD	01132318H
	DD	0700c0045H
	DD	0500bH
	DD	imagerel __CxxFrameHandler3
	DD	imagerel $cppxdata$?PMC_BitwiseOr_X_L@Internal@Core@Math@Palmtree@@YAPEAU__tag_PMC_HANDLE_UINT@1234@PEAU51234@_K@Z
xdata	ENDS
;	COMDAT CONST
CONST	SEGMENT
?PMC_BitwiseOr_X_L@Internal@Core@Math@Palmtree@@YAPEAU__tag_PMC_HANDLE_UINT@1234@PEAU51234@_K@Z$rtcName$0 DB 072H ; Palmtree::Math::Core::Internal::PMC_BitwiseOr_X_L
	DB	06fH
	DB	06fH
	DB	074H
	DB	00H
	ORG $+11
?PMC_BitwiseOr_X_L@Internal@Core@Math@Palmtree@@YAPEAU__tag_PMC_HANDLE_UINT@1234@PEAU51234@_K@Z$rtcVarDesc DD 028H ; Palmtree::Math::Core::Internal::PMC_BitwiseOr_X_L
	DD	020H
	DQ	FLAT:?PMC_BitwiseOr_X_L@Internal@Core@Math@Palmtree@@YAPEAU__tag_PMC_HANDLE_UINT@1234@PEAU51234@_K@Z$rtcName$0
	ORG $+48
?PMC_BitwiseOr_X_L@Internal@Core@Math@Palmtree@@YAPEAU__tag_PMC_HANDLE_UINT@1234@PEAU51234@_K@Z$rtcFrameData DD 01H ; Palmtree::Math::Core::Internal::PMC_BitwiseOr_X_L
	DD	00H
	DQ	FLAT:?PMC_BitwiseOr_X_L@Internal@Core@Math@Palmtree@@YAPEAU__tag_PMC_HANDLE_UINT@1234@PEAU51234@_K@Z$rtcVarDesc
$cppxdata$?PMC_BitwiseOr_X_L@Internal@Core@Math@Palmtree@@YAPEAU__tag_PMC_HANDLE_UINT@1234@PEAU51234@_K@Z DD 019930522H
	DD	01H
	DD	imagerel $stateUnwindMap$?PMC_BitwiseOr_X_L@Internal@Core@Math@Palmtree@@YAPEAU__tag_PMC_HANDLE_UINT@1234@PEAU51234@_K@Z
	DD	00H
	DD	00H
	DD	03H
	DD	imagerel $ip2state$?PMC_BitwiseOr_X_L@Internal@Core@Math@Palmtree@@YAPEAU__tag_PMC_HANDLE_UINT@1234@PEAU51234@_K@Z
	DD	0208H
	DD	00H
	DD	00H
CONST	ENDS
;	COMDAT xdata
xdata	SEGMENT
$unwind$?dtor$0@?0??PMC_BitwiseOr_X_I@Internal@Core@Math@Palmtree@@YAPEAU__tag_PMC_HANDLE_UINT@1234@PEAU51234@I@Z@4HA DD 031001H
	DD	0700c4210H
	DD	0500bH
xdata	ENDS
;	COMDAT xdata
xdata	SEGMENT
$ip2state$?PMC_BitwiseOr_X_I@Internal@Core@Math@Palmtree@@YAPEAU__tag_PMC_HANDLE_UINT@1234@PEAU51234@I@Z DD imagerel ?PMC_BitwiseOr_X_I@Internal@Core@Math@Palmtree@@YAPEAU__tag_PMC_HANDLE_UINT@1234@PEAU51234@I@Z
	DD	0ffffffffH
	DD	imagerel ?PMC_BitwiseOr_X_I@Internal@Core@Math@Palmtree@@YAPEAU__tag_PMC_HANDLE_UINT@1234@PEAU51234@I@Z+197
	DD	00H
	DD	imagerel ?PMC_BitwiseOr_X_I@Internal@Core@Math@Palmtree@@YAPEAU__tag_PMC_HANDLE_UINT@1234@PEAU51234@I@Z+265
	DD	0ffffffffH
xdata	ENDS
;	COMDAT xdata
xdata	SEGMENT
$stateUnwindMap$?PMC_BitwiseOr_X_I@Internal@Core@Math@Palmtree@@YAPEAU__tag_PMC_HANDLE_UINT@1234@PEAU51234@I@Z DD 0ffffffffH
	DD	imagerel ?dtor$0@?0??PMC_BitwiseOr_X_I@Internal@Core@Math@Palmtree@@YAPEAU__tag_PMC_HANDLE_UINT@1234@PEAU51234@I@Z@4HA
xdata	ENDS
;	COMDAT xdata
xdata	SEGMENT
$unwind$?PMC_BitwiseOr_X_I@Internal@Core@Math@Palmtree@@YAPEAU__tag_PMC_HANDLE_UINT@1234@PEAU51234@I@Z DD 025053911H
	DD	01122317H
	DD	0700b0045H
	DD	0500aH
	DD	imagerel __CxxFrameHandler3
	DD	imagerel $cppxdata$?PMC_BitwiseOr_X_I@Internal@Core@Math@Palmtree@@YAPEAU__tag_PMC_HANDLE_UINT@1234@PEAU51234@I@Z
xdata	ENDS
;	COMDAT CONST
CONST	SEGMENT
?PMC_BitwiseOr_X_I@Internal@Core@Math@Palmtree@@YAPEAU__tag_PMC_HANDLE_UINT@1234@PEAU51234@I@Z$rtcName$0 DB 072H ; Palmtree::Math::Core::Internal::PMC_BitwiseOr_X_I
	DB	06fH
	DB	06fH
	DB	074H
	DB	00H
	ORG $+11
?PMC_BitwiseOr_X_I@Internal@Core@Math@Palmtree@@YAPEAU__tag_PMC_HANDLE_UINT@1234@PEAU51234@I@Z$rtcVarDesc DD 028H ; Palmtree::Math::Core::Internal::PMC_BitwiseOr_X_I
	DD	020H
	DQ	FLAT:?PMC_BitwiseOr_X_I@Internal@Core@Math@Palmtree@@YAPEAU__tag_PMC_HANDLE_UINT@1234@PEAU51234@I@Z$rtcName$0
	ORG $+48
?PMC_BitwiseOr_X_I@Internal@Core@Math@Palmtree@@YAPEAU__tag_PMC_HANDLE_UINT@1234@PEAU51234@I@Z$rtcFrameData DD 01H ; Palmtree::Math::Core::Internal::PMC_BitwiseOr_X_I
	DD	00H
	DQ	FLAT:?PMC_BitwiseOr_X_I@Internal@Core@Math@Palmtree@@YAPEAU__tag_PMC_HANDLE_UINT@1234@PEAU51234@I@Z$rtcVarDesc
$cppxdata$?PMC_BitwiseOr_X_I@Internal@Core@Math@Palmtree@@YAPEAU__tag_PMC_HANDLE_UINT@1234@PEAU51234@I@Z DD 019930522H
	DD	01H
	DD	imagerel $stateUnwindMap$?PMC_BitwiseOr_X_I@Internal@Core@Math@Palmtree@@YAPEAU__tag_PMC_HANDLE_UINT@1234@PEAU51234@I@Z
	DD	00H
	DD	00H
	DD	03H
	DD	imagerel $ip2state$?PMC_BitwiseOr_X_I@Internal@Core@Math@Palmtree@@YAPEAU__tag_PMC_HANDLE_UINT@1234@PEAU51234@I@Z
	DD	0208H
	DD	00H
	DD	00H
CONST	ENDS
;	COMDAT xdata
xdata	SEGMENT
$unwind$?dtor$0@?0??PMC_BitwiseOr_L_X@Internal@Core@Math@Palmtree@@YAPEAU__tag_PMC_HANDLE_UINT@1234@_KPEAU51234@@Z@4HA DD 031001H
	DD	0700c4210H
	DD	0500bH
xdata	ENDS
;	COMDAT xdata
xdata	SEGMENT
$ip2state$?PMC_BitwiseOr_L_X@Internal@Core@Math@Palmtree@@YAPEAU__tag_PMC_HANDLE_UINT@1234@_KPEAU51234@@Z DD imagerel ?PMC_BitwiseOr_L_X@Internal@Core@Math@Palmtree@@YAPEAU__tag_PMC_HANDLE_UINT@1234@_KPEAU51234@@Z
	DD	0ffffffffH
	DD	imagerel ?PMC_BitwiseOr_L_X@Internal@Core@Math@Palmtree@@YAPEAU__tag_PMC_HANDLE_UINT@1234@_KPEAU51234@@Z+198
	DD	00H
	DD	imagerel ?PMC_BitwiseOr_L_X@Internal@Core@Math@Palmtree@@YAPEAU__tag_PMC_HANDLE_UINT@1234@_KPEAU51234@@Z+267
	DD	0ffffffffH
xdata	ENDS
;	COMDAT xdata
xdata	SEGMENT
$stateUnwindMap$?PMC_BitwiseOr_L_X@Internal@Core@Math@Palmtree@@YAPEAU__tag_PMC_HANDLE_UINT@1234@_KPEAU51234@@Z DD 0ffffffffH
	DD	imagerel ?dtor$0@?0??PMC_BitwiseOr_L_X@Internal@Core@Math@Palmtree@@YAPEAU__tag_PMC_HANDLE_UINT@1234@_KPEAU51234@@Z@4HA
xdata	ENDS
;	COMDAT xdata
xdata	SEGMENT
$unwind$?PMC_BitwiseOr_L_X@Internal@Core@Math@Palmtree@@YAPEAU__tag_PMC_HANDLE_UINT@1234@_KPEAU51234@@Z DD 025053a11H
	DD	01132318H
	DD	0700c0045H
	DD	0500bH
	DD	imagerel __CxxFrameHandler3
	DD	imagerel $cppxdata$?PMC_BitwiseOr_L_X@Internal@Core@Math@Palmtree@@YAPEAU__tag_PMC_HANDLE_UINT@1234@_KPEAU51234@@Z
xdata	ENDS
;	COMDAT CONST
CONST	SEGMENT
?PMC_BitwiseOr_L_X@Internal@Core@Math@Palmtree@@YAPEAU__tag_PMC_HANDLE_UINT@1234@_KPEAU51234@@Z$rtcName$0 DB 072H ; Palmtree::Math::Core::Internal::PMC_BitwiseOr_L_X
	DB	06fH
	DB	06fH
	DB	074H
	DB	00H
	ORG $+11
?PMC_BitwiseOr_L_X@Internal@Core@Math@Palmtree@@YAPEAU__tag_PMC_HANDLE_UINT@1234@_KPEAU51234@@Z$rtcVarDesc DD 028H ; Palmtree::Math::Core::Internal::PMC_BitwiseOr_L_X
	DD	020H
	DQ	FLAT:?PMC_BitwiseOr_L_X@Internal@Core@Math@Palmtree@@YAPEAU__tag_PMC_HANDLE_UINT@1234@_KPEAU51234@@Z$rtcName$0
	ORG $+48
?PMC_BitwiseOr_L_X@Internal@Core@Math@Palmtree@@YAPEAU__tag_PMC_HANDLE_UINT@1234@_KPEAU51234@@Z$rtcFrameData DD 01H ; Palmtree::Math::Core::Internal::PMC_BitwiseOr_L_X
	DD	00H
	DQ	FLAT:?PMC_BitwiseOr_L_X@Internal@Core@Math@Palmtree@@YAPEAU__tag_PMC_HANDLE_UINT@1234@_KPEAU51234@@Z$rtcVarDesc
$cppxdata$?PMC_BitwiseOr_L_X@Internal@Core@Math@Palmtree@@YAPEAU__tag_PMC_HANDLE_UINT@1234@_KPEAU51234@@Z DD 019930522H
	DD	01H
	DD	imagerel $stateUnwindMap$?PMC_BitwiseOr_L_X@Internal@Core@Math@Palmtree@@YAPEAU__tag_PMC_HANDLE_UINT@1234@_KPEAU51234@@Z
	DD	00H
	DD	00H
	DD	03H
	DD	imagerel $ip2state$?PMC_BitwiseOr_L_X@Internal@Core@Math@Palmtree@@YAPEAU__tag_PMC_HANDLE_UINT@1234@_KPEAU51234@@Z
	DD	0208H
	DD	00H
	DD	00H
CONST	ENDS
;	COMDAT xdata
xdata	SEGMENT
$unwind$?dtor$0@?0??PMC_BitwiseOr_I_X@Internal@Core@Math@Palmtree@@YAPEAU__tag_PMC_HANDLE_UINT@1234@IPEAU51234@@Z@4HA DD 031001H
	DD	0700c4210H
	DD	0500bH
xdata	ENDS
;	COMDAT xdata
xdata	SEGMENT
$ip2state$?PMC_BitwiseOr_I_X@Internal@Core@Math@Palmtree@@YAPEAU__tag_PMC_HANDLE_UINT@1234@IPEAU51234@@Z DD imagerel ?PMC_BitwiseOr_I_X@Internal@Core@Math@Palmtree@@YAPEAU__tag_PMC_HANDLE_UINT@1234@IPEAU51234@@Z
	DD	0ffffffffH
	DD	imagerel ?PMC_BitwiseOr_I_X@Internal@Core@Math@Palmtree@@YAPEAU__tag_PMC_HANDLE_UINT@1234@IPEAU51234@@Z+196
	DD	00H
	DD	imagerel ?PMC_BitwiseOr_I_X@Internal@Core@Math@Palmtree@@YAPEAU__tag_PMC_HANDLE_UINT@1234@IPEAU51234@@Z+264
	DD	0ffffffffH
xdata	ENDS
;	COMDAT xdata
xdata	SEGMENT
$stateUnwindMap$?PMC_BitwiseOr_I_X@Internal@Core@Math@Palmtree@@YAPEAU__tag_PMC_HANDLE_UINT@1234@IPEAU51234@@Z DD 0ffffffffH
	DD	imagerel ?dtor$0@?0??PMC_BitwiseOr_I_X@Internal@Core@Math@Palmtree@@YAPEAU__tag_PMC_HANDLE_UINT@1234@IPEAU51234@@Z@4HA
xdata	ENDS
;	COMDAT xdata
xdata	SEGMENT
$unwind$?PMC_BitwiseOr_I_X@Internal@Core@Math@Palmtree@@YAPEAU__tag_PMC_HANDLE_UINT@1234@IPEAU51234@@Z DD 025053811H
	DD	01122317H
	DD	0700b0045H
	DD	0500aH
	DD	imagerel __CxxFrameHandler3
	DD	imagerel $cppxdata$?PMC_BitwiseOr_I_X@Internal@Core@Math@Palmtree@@YAPEAU__tag_PMC_HANDLE_UINT@1234@IPEAU51234@@Z
xdata	ENDS
;	COMDAT CONST
CONST	SEGMENT
?PMC_BitwiseOr_I_X@Internal@Core@Math@Palmtree@@YAPEAU__tag_PMC_HANDLE_UINT@1234@IPEAU51234@@Z$rtcName$0 DB 072H ; Palmtree::Math::Core::Internal::PMC_BitwiseOr_I_X
	DB	06fH
	DB	06fH
	DB	074H
	DB	00H
	ORG $+11
?PMC_BitwiseOr_I_X@Internal@Core@Math@Palmtree@@YAPEAU__tag_PMC_HANDLE_UINT@1234@IPEAU51234@@Z$rtcVarDesc DD 028H ; Palmtree::Math::Core::Internal::PMC_BitwiseOr_I_X
	DD	020H
	DQ	FLAT:?PMC_BitwiseOr_I_X@Internal@Core@Math@Palmtree@@YAPEAU__tag_PMC_HANDLE_UINT@1234@IPEAU51234@@Z$rtcName$0
	ORG $+48
?PMC_BitwiseOr_I_X@Internal@Core@Math@Palmtree@@YAPEAU__tag_PMC_HANDLE_UINT@1234@IPEAU51234@@Z$rtcFrameData DD 01H ; Palmtree::Math::Core::Internal::PMC_BitwiseOr_I_X
	DD	00H
	DQ	FLAT:?PMC_BitwiseOr_I_X@Internal@Core@Math@Palmtree@@YAPEAU__tag_PMC_HANDLE_UINT@1234@IPEAU51234@@Z$rtcVarDesc
$cppxdata$?PMC_BitwiseOr_I_X@Internal@Core@Math@Palmtree@@YAPEAU__tag_PMC_HANDLE_UINT@1234@IPEAU51234@@Z DD 019930522H
	DD	01H
	DD	imagerel $stateUnwindMap$?PMC_BitwiseOr_I_X@Internal@Core@Math@Palmtree@@YAPEAU__tag_PMC_HANDLE_UINT@1234@IPEAU51234@@Z
	DD	00H
	DD	00H
	DD	03H
	DD	imagerel $ip2state$?PMC_BitwiseOr_I_X@Internal@Core@Math@Palmtree@@YAPEAU__tag_PMC_HANDLE_UINT@1234@IPEAU51234@@Z
	DD	0208H
	DD	00H
	DD	00H
CONST	ENDS
;	COMDAT xdata
xdata	SEGMENT
$unwind$?Initialize_BitwiseOr@Internal@Core@Math@Palmtree@@YAHPEAU_tag_PROCESSOR_FEATURES@1234@@Z DD 025052a01H
	DD	010e2313H
	DD	07007001dH
	DD	05006H
xdata	ENDS
;	COMDAT xdata
xdata	SEGMENT
$unwind$??_GInternalErrorException@Internal@Core@Math@Palmtree@@UEAAPEAXI@Z DD 025052e01H
	DD	01122317H
	DD	0700b001dH
	DD	0500aH
xdata	ENDS
;	COMDAT xdata
xdata	SEGMENT
$unwind$?dtor$0@?0???1InternalErrorException@Internal@Core@Math@Palmtree@@UEAA@XZ@4HA DD 031001H
	DD	0700c4210H
	DD	0500bH
xdata	ENDS
;	COMDAT xdata
xdata	SEGMENT
$ip2state$??1InternalErrorException@Internal@Core@Math@Palmtree@@UEAA@XZ DD imagerel ??1InternalErrorException@Internal@Core@Math@Palmtree@@UEAA@XZ
	DD	0ffffffffH
xdata	ENDS
;	COMDAT xdata
xdata	SEGMENT
$stateUnwindMap$??1InternalErrorException@Internal@Core@Math@Palmtree@@UEAA@XZ DD 0ffffffffH
	DD	imagerel ?dtor$0@?0???1InternalErrorException@Internal@Core@Math@Palmtree@@UEAA@XZ@4HA
xdata	ENDS
;	COMDAT CONST
CONST	SEGMENT
$cppxdata$??1InternalErrorException@Internal@Core@Math@Palmtree@@UEAA@XZ DD 019930522H
	DD	01H
	DD	imagerel $stateUnwindMap$??1InternalErrorException@Internal@Core@Math@Palmtree@@UEAA@XZ
	DD	00H
	DD	00H
	DD	01H
	DD	imagerel $ip2state$??1InternalErrorException@Internal@Core@Math@Palmtree@@UEAA@XZ
	DD	0e8H
	DD	00H
	DD	04H
CONST	ENDS
;	COMDAT xdata
xdata	SEGMENT
$unwind$??1InternalErrorException@Internal@Core@Math@Palmtree@@UEAA@XZ DD 025053519H
	DD	010e2313H
	DD	070070021H
	DD	05006H
	DD	imagerel __CxxFrameHandler3
	DD	imagerel $cppxdata$??1InternalErrorException@Internal@Core@Math@Palmtree@@UEAA@XZ
xdata	ENDS
;	COMDAT xdata
xdata	SEGMENT
$unwind$?dtor$0@?0???0InternalErrorException@Internal@Core@Math@Palmtree@@QEAA@AEBV01234@@Z@4HA DD 031001H
	DD	0700c4210H
	DD	0500bH
xdata	ENDS
;	COMDAT xdata
xdata	SEGMENT
$ip2state$??0InternalErrorException@Internal@Core@Math@Palmtree@@QEAA@AEBV01234@@Z DD imagerel ??0InternalErrorException@Internal@Core@Math@Palmtree@@QEAA@AEBV01234@@Z
	DD	0ffffffffH
	DD	imagerel ??0InternalErrorException@Internal@Core@Math@Palmtree@@QEAA@AEBV01234@@Z+91
	DD	00H
	DD	imagerel ??0InternalErrorException@Internal@Core@Math@Palmtree@@QEAA@AEBV01234@@Z+108
	DD	0ffffffffH
xdata	ENDS
;	COMDAT xdata
xdata	SEGMENT
$stateUnwindMap$??0InternalErrorException@Internal@Core@Math@Palmtree@@QEAA@AEBV01234@@Z DD 0ffffffffH
	DD	imagerel ?dtor$0@?0???0InternalErrorException@Internal@Core@Math@Palmtree@@QEAA@AEBV01234@@Z@4HA
xdata	ENDS
;	COMDAT CONST
CONST	SEGMENT
$cppxdata$??0InternalErrorException@Internal@Core@Math@Palmtree@@QEAA@AEBV01234@@Z DD 019930522H
	DD	01H
	DD	imagerel $stateUnwindMap$??0InternalErrorException@Internal@Core@Math@Palmtree@@QEAA@AEBV01234@@Z
	DD	00H
	DD	00H
	DD	03H
	DD	imagerel $ip2state$??0InternalErrorException@Internal@Core@Math@Palmtree@@QEAA@AEBV01234@@Z
	DD	0e8H
	DD	00H
	DD	04H
CONST	ENDS
;	COMDAT xdata
xdata	SEGMENT
$unwind$??0InternalErrorException@Internal@Core@Math@Palmtree@@QEAA@AEBV01234@@Z DD 025053a19H
	DD	01132318H
	DD	0700c0021H
	DD	0500bH
	DD	imagerel __CxxFrameHandler3
	DD	imagerel $cppxdata$??0InternalErrorException@Internal@Core@Math@Palmtree@@QEAA@AEBV01234@@Z
xdata	ENDS
;	COMDAT xdata
xdata	SEGMENT
$unwind$?dtor$0@?0???0InternalErrorException@Internal@Core@Math@Palmtree@@QEAA@PEB_W0@Z@4HA DD 031001H
	DD	0700c4210H
	DD	0500bH
xdata	ENDS
;	COMDAT xdata
xdata	SEGMENT
$ip2state$??0InternalErrorException@Internal@Core@Math@Palmtree@@QEAA@PEB_W0@Z DD imagerel ??0InternalErrorException@Internal@Core@Math@Palmtree@@QEAA@PEB_W0@Z
	DD	0ffffffffH
	DD	imagerel ??0InternalErrorException@Internal@Core@Math@Palmtree@@QEAA@PEB_W0@Z+108
	DD	00H
	DD	imagerel ??0InternalErrorException@Internal@Core@Math@Palmtree@@QEAA@PEB_W0@Z+125
	DD	0ffffffffH
xdata	ENDS
;	COMDAT xdata
xdata	SEGMENT
$stateUnwindMap$??0InternalErrorException@Internal@Core@Math@Palmtree@@QEAA@PEB_W0@Z DD 0ffffffffH
	DD	imagerel ?dtor$0@?0???0InternalErrorException@Internal@Core@Math@Palmtree@@QEAA@PEB_W0@Z@4HA
xdata	ENDS
;	COMDAT CONST
CONST	SEGMENT
$cppxdata$??0InternalErrorException@Internal@Core@Math@Palmtree@@QEAA@PEB_W0@Z DD 019930522H
	DD	01H
	DD	imagerel $stateUnwindMap$??0InternalErrorException@Internal@Core@Math@Palmtree@@QEAA@PEB_W0@Z
	DD	00H
	DD	00H
	DD	03H
	DD	imagerel $ip2state$??0InternalErrorException@Internal@Core@Math@Palmtree@@QEAA@PEB_W0@Z
	DD	0e8H
	DD	00H
	DD	04H
CONST	ENDS
;	COMDAT xdata
xdata	SEGMENT
$unwind$??0InternalErrorException@Internal@Core@Math@Palmtree@@QEAA@PEB_W0@Z DD 025053f19H
	DD	0118231dH
	DD	070110021H
	DD	05010H
	DD	imagerel __CxxFrameHandler3
	DD	imagerel $cppxdata$??0InternalErrorException@Internal@Core@Math@Palmtree@@QEAA@PEB_W0@Z
xdata	ENDS
;	COMDAT xdata
xdata	SEGMENT
$unwind$??_GArgumentNullException@Internal@Core@Math@Palmtree@@UEAAPEAXI@Z DD 025052e01H
	DD	01122317H
	DD	0700b001dH
	DD	0500aH
xdata	ENDS
;	COMDAT xdata
xdata	SEGMENT
$unwind$?dtor$0@?0???1ArgumentNullException@Internal@Core@Math@Palmtree@@UEAA@XZ@4HA DD 031001H
	DD	0700c4210H
	DD	0500bH
xdata	ENDS
;	COMDAT xdata
xdata	SEGMENT
$ip2state$??1ArgumentNullException@Internal@Core@Math@Palmtree@@UEAA@XZ DD imagerel ??1ArgumentNullException@Internal@Core@Math@Palmtree@@UEAA@XZ
	DD	0ffffffffH
xdata	ENDS
;	COMDAT xdata
xdata	SEGMENT
$stateUnwindMap$??1ArgumentNullException@Internal@Core@Math@Palmtree@@UEAA@XZ DD 0ffffffffH
	DD	imagerel ?dtor$0@?0???1ArgumentNullException@Internal@Core@Math@Palmtree@@UEAA@XZ@4HA
xdata	ENDS
;	COMDAT CONST
CONST	SEGMENT
$cppxdata$??1ArgumentNullException@Internal@Core@Math@Palmtree@@UEAA@XZ DD 019930522H
	DD	01H
	DD	imagerel $stateUnwindMap$??1ArgumentNullException@Internal@Core@Math@Palmtree@@UEAA@XZ
	DD	00H
	DD	00H
	DD	01H
	DD	imagerel $ip2state$??1ArgumentNullException@Internal@Core@Math@Palmtree@@UEAA@XZ
	DD	0e8H
	DD	00H
	DD	04H
CONST	ENDS
;	COMDAT xdata
xdata	SEGMENT
$unwind$??1ArgumentNullException@Internal@Core@Math@Palmtree@@UEAA@XZ DD 025053519H
	DD	010e2313H
	DD	070070021H
	DD	05006H
	DD	imagerel __CxxFrameHandler3
	DD	imagerel $cppxdata$??1ArgumentNullException@Internal@Core@Math@Palmtree@@UEAA@XZ
xdata	ENDS
;	COMDAT xdata
xdata	SEGMENT
$unwind$?dtor$0@?0???0ArgumentNullException@Internal@Core@Math@Palmtree@@QEAA@AEBV01234@@Z@4HA DD 031001H
	DD	0700c4210H
	DD	0500bH
xdata	ENDS
;	COMDAT xdata
xdata	SEGMENT
$ip2state$??0ArgumentNullException@Internal@Core@Math@Palmtree@@QEAA@AEBV01234@@Z DD imagerel ??0ArgumentNullException@Internal@Core@Math@Palmtree@@QEAA@AEBV01234@@Z
	DD	0ffffffffH
	DD	imagerel ??0ArgumentNullException@Internal@Core@Math@Palmtree@@QEAA@AEBV01234@@Z+91
	DD	00H
	DD	imagerel ??0ArgumentNullException@Internal@Core@Math@Palmtree@@QEAA@AEBV01234@@Z+108
	DD	0ffffffffH
xdata	ENDS
;	COMDAT xdata
xdata	SEGMENT
$stateUnwindMap$??0ArgumentNullException@Internal@Core@Math@Palmtree@@QEAA@AEBV01234@@Z DD 0ffffffffH
	DD	imagerel ?dtor$0@?0???0ArgumentNullException@Internal@Core@Math@Palmtree@@QEAA@AEBV01234@@Z@4HA
xdata	ENDS
;	COMDAT CONST
CONST	SEGMENT
$cppxdata$??0ArgumentNullException@Internal@Core@Math@Palmtree@@QEAA@AEBV01234@@Z DD 019930522H
	DD	01H
	DD	imagerel $stateUnwindMap$??0ArgumentNullException@Internal@Core@Math@Palmtree@@QEAA@AEBV01234@@Z
	DD	00H
	DD	00H
	DD	03H
	DD	imagerel $ip2state$??0ArgumentNullException@Internal@Core@Math@Palmtree@@QEAA@AEBV01234@@Z
	DD	0e8H
	DD	00H
	DD	04H
CONST	ENDS
;	COMDAT xdata
xdata	SEGMENT
$unwind$??0ArgumentNullException@Internal@Core@Math@Palmtree@@QEAA@AEBV01234@@Z DD 025053a19H
	DD	01132318H
	DD	0700c0021H
	DD	0500bH
	DD	imagerel __CxxFrameHandler3
	DD	imagerel $cppxdata$??0ArgumentNullException@Internal@Core@Math@Palmtree@@QEAA@AEBV01234@@Z
xdata	ENDS
;	COMDAT xdata
xdata	SEGMENT
$unwind$?dtor$0@?0???0ArgumentNullException@Internal@Core@Math@Palmtree@@QEAA@PEB_W0@Z@4HA DD 031001H
	DD	0700c4210H
	DD	0500bH
xdata	ENDS
;	COMDAT xdata
xdata	SEGMENT
$ip2state$??0ArgumentNullException@Internal@Core@Math@Palmtree@@QEAA@PEB_W0@Z DD imagerel ??0ArgumentNullException@Internal@Core@Math@Palmtree@@QEAA@PEB_W0@Z
	DD	0ffffffffH
	DD	imagerel ??0ArgumentNullException@Internal@Core@Math@Palmtree@@QEAA@PEB_W0@Z+108
	DD	00H
	DD	imagerel ??0ArgumentNullException@Internal@Core@Math@Palmtree@@QEAA@PEB_W0@Z+125
	DD	0ffffffffH
xdata	ENDS
;	COMDAT xdata
xdata	SEGMENT
$stateUnwindMap$??0ArgumentNullException@Internal@Core@Math@Palmtree@@QEAA@PEB_W0@Z DD 0ffffffffH
	DD	imagerel ?dtor$0@?0???0ArgumentNullException@Internal@Core@Math@Palmtree@@QEAA@PEB_W0@Z@4HA
xdata	ENDS
;	COMDAT CONST
CONST	SEGMENT
$cppxdata$??0ArgumentNullException@Internal@Core@Math@Palmtree@@QEAA@PEB_W0@Z DD 019930522H
	DD	01H
	DD	imagerel $stateUnwindMap$??0ArgumentNullException@Internal@Core@Math@Palmtree@@QEAA@PEB_W0@Z
	DD	00H
	DD	00H
	DD	03H
	DD	imagerel $ip2state$??0ArgumentNullException@Internal@Core@Math@Palmtree@@QEAA@PEB_W0@Z
	DD	0e8H
	DD	00H
	DD	04H
CONST	ENDS
;	COMDAT xdata
xdata	SEGMENT
$unwind$??0ArgumentNullException@Internal@Core@Math@Palmtree@@QEAA@PEB_W0@Z DD 025053f19H
	DD	0118231dH
	DD	070110021H
	DD	05010H
	DD	imagerel __CxxFrameHandler3
	DD	imagerel $cppxdata$??0ArgumentNullException@Internal@Core@Math@Palmtree@@QEAA@PEB_W0@Z
xdata	ENDS
;	COMDAT xdata
xdata	SEGMENT
$unwind$??_GException@Internal@Core@Math@Palmtree@@UEAAPEAXI@Z DD 025052e01H
	DD	01122317H
	DD	0700b001dH
	DD	0500aH
xdata	ENDS
;	COMDAT xdata
xdata	SEGMENT
$unwind$?dtor$0@?0???1Exception@Internal@Core@Math@Palmtree@@UEAA@XZ@4HA DD 031001H
	DD	0700c4210H
	DD	0500bH
xdata	ENDS
;	COMDAT xdata
xdata	SEGMENT
$ip2state$??1Exception@Internal@Core@Math@Palmtree@@UEAA@XZ DD imagerel ??1Exception@Internal@Core@Math@Palmtree@@UEAA@XZ
	DD	0ffffffffH
xdata	ENDS
;	COMDAT xdata
xdata	SEGMENT
$stateUnwindMap$??1Exception@Internal@Core@Math@Palmtree@@UEAA@XZ DD 0ffffffffH
	DD	imagerel ?dtor$0@?0???1Exception@Internal@Core@Math@Palmtree@@UEAA@XZ@4HA
xdata	ENDS
;	COMDAT CONST
CONST	SEGMENT
$cppxdata$??1Exception@Internal@Core@Math@Palmtree@@UEAA@XZ DD 019930522H
	DD	01H
	DD	imagerel $stateUnwindMap$??1Exception@Internal@Core@Math@Palmtree@@UEAA@XZ
	DD	00H
	DD	00H
	DD	01H
	DD	imagerel $ip2state$??1Exception@Internal@Core@Math@Palmtree@@UEAA@XZ
	DD	0e8H
	DD	00H
	DD	04H
CONST	ENDS
;	COMDAT xdata
xdata	SEGMENT
$unwind$??1Exception@Internal@Core@Math@Palmtree@@UEAA@XZ DD 025053519H
	DD	010e2313H
	DD	070070021H
	DD	05006H
	DD	imagerel __CxxFrameHandler3
	DD	imagerel $cppxdata$??1Exception@Internal@Core@Math@Palmtree@@UEAA@XZ
xdata	ENDS
;	COMDAT xdata
xdata	SEGMENT
$unwind$?dtor$0@?0???0Exception@Internal@Core@Math@Palmtree@@QEAA@AEBV01234@@Z@4HA DD 031001H
	DD	0700c4210H
	DD	0500bH
xdata	ENDS
;	COMDAT xdata
xdata	SEGMENT
$ip2state$??0Exception@Internal@Core@Math@Palmtree@@QEAA@AEBV01234@@Z DD imagerel ??0Exception@Internal@Core@Math@Palmtree@@QEAA@AEBV01234@@Z
	DD	0ffffffffH
	DD	imagerel ??0Exception@Internal@Core@Math@Palmtree@@QEAA@AEBV01234@@Z+84
	DD	00H
	DD	imagerel ??0Exception@Internal@Core@Math@Palmtree@@QEAA@AEBV01234@@Z+165
	DD	0ffffffffH
xdata	ENDS
;	COMDAT xdata
xdata	SEGMENT
$stateUnwindMap$??0Exception@Internal@Core@Math@Palmtree@@QEAA@AEBV01234@@Z DD 0ffffffffH
	DD	imagerel ?dtor$0@?0???0Exception@Internal@Core@Math@Palmtree@@QEAA@AEBV01234@@Z@4HA
xdata	ENDS
;	COMDAT CONST
CONST	SEGMENT
$cppxdata$??0Exception@Internal@Core@Math@Palmtree@@QEAA@AEBV01234@@Z DD 019930522H
	DD	01H
	DD	imagerel $stateUnwindMap$??0Exception@Internal@Core@Math@Palmtree@@QEAA@AEBV01234@@Z
	DD	00H
	DD	00H
	DD	03H
	DD	imagerel $ip2state$??0Exception@Internal@Core@Math@Palmtree@@QEAA@AEBV01234@@Z
	DD	0e8H
	DD	00H
	DD	04H
CONST	ENDS
;	COMDAT xdata
xdata	SEGMENT
$unwind$??0Exception@Internal@Core@Math@Palmtree@@QEAA@AEBV01234@@Z DD 025053a19H
	DD	01132318H
	DD	0700c0021H
	DD	0500bH
	DD	imagerel __CxxFrameHandler3
	DD	imagerel $cppxdata$??0Exception@Internal@Core@Math@Palmtree@@QEAA@AEBV01234@@Z
xdata	ENDS
;	COMDAT xdata
xdata	SEGMENT
$unwind$?dtor$0@?0???0Exception@Internal@Core@Math@Palmtree@@IEAA@HPEB_W0@Z@4HA DD 031001H
	DD	0700c4210H
	DD	0500bH
xdata	ENDS
;	COMDAT xdata
xdata	SEGMENT
$ip2state$??0Exception@Internal@Core@Math@Palmtree@@IEAA@HPEB_W0@Z DD imagerel ??0Exception@Internal@Core@Math@Palmtree@@IEAA@HPEB_W0@Z
	DD	0ffffffffH
	DD	imagerel ??0Exception@Internal@Core@Math@Palmtree@@IEAA@HPEB_W0@Z+93
	DD	00H
	DD	imagerel ??0Exception@Internal@Core@Math@Palmtree@@IEAA@HPEB_W0@Z+162
	DD	0ffffffffH
xdata	ENDS
;	COMDAT xdata
xdata	SEGMENT
$stateUnwindMap$??0Exception@Internal@Core@Math@Palmtree@@IEAA@HPEB_W0@Z DD 0ffffffffH
	DD	imagerel ?dtor$0@?0???0Exception@Internal@Core@Math@Palmtree@@IEAA@HPEB_W0@Z@4HA
xdata	ENDS
;	COMDAT CONST
CONST	SEGMENT
$cppxdata$??0Exception@Internal@Core@Math@Palmtree@@IEAA@HPEB_W0@Z DD 019930522H
	DD	01H
	DD	imagerel $stateUnwindMap$??0Exception@Internal@Core@Math@Palmtree@@IEAA@HPEB_W0@Z
	DD	00H
	DD	00H
	DD	03H
	DD	imagerel $ip2state$??0Exception@Internal@Core@Math@Palmtree@@IEAA@HPEB_W0@Z
	DD	0e8H
	DD	00H
	DD	04H
CONST	ENDS
;	COMDAT xdata
xdata	SEGMENT
$unwind$??0Exception@Internal@Core@Math@Palmtree@@IEAA@HPEB_W0@Z DD 025054319H
	DD	011c2321H
	DD	070150021H
	DD	05014H
	DD	imagerel __CxxFrameHandler3
	DD	imagerel $cppxdata$??0Exception@Internal@Core@Math@Palmtree@@IEAA@HPEB_W0@Z
xdata	ENDS
;	COMDAT xdata
xdata	SEGMENT
$unwind$??_Gexception@std@@UEAAPEAXI@Z DD 025052e01H
	DD	01122317H
	DD	0700b001dH
	DD	0500aH
xdata	ENDS
;	COMDAT xdata
xdata	SEGMENT
$unwind$?what@exception@std@@UEBAPEBDXZ DD 025052a01H
	DD	010e2313H
	DD	07007001fH
	DD	05006H
xdata	ENDS
;	COMDAT xdata
xdata	SEGMENT
$ip2state$??1exception@std@@UEAA@XZ DD imagerel ??1exception@std@@UEAA@XZ
	DD	0ffffffffH
xdata	ENDS
;	COMDAT CONST
CONST	SEGMENT
$cppxdata$??1exception@std@@UEAA@XZ DD 019930522H
	DD	00H
	DD	00H
	DD	00H
	DD	00H
	DD	01H
	DD	imagerel $ip2state$??1exception@std@@UEAA@XZ
	DD	0e8H
	DD	00H
	DD	04H
CONST	ENDS
;	COMDAT xdata
xdata	SEGMENT
$unwind$??1exception@std@@UEAA@XZ DD 025053519H
	DD	010e2313H
	DD	070070021H
	DD	05006H
	DD	imagerel __CxxFrameHandler3
	DD	imagerel $cppxdata$??1exception@std@@UEAA@XZ
xdata	ENDS
;	COMDAT xdata
xdata	SEGMENT
$ip2state$??0exception@std@@QEAA@XZ DD imagerel ??0exception@std@@QEAA@XZ
	DD	0ffffffffH
xdata	ENDS
;	COMDAT CONST
CONST	SEGMENT
$cppxdata$??0exception@std@@QEAA@XZ DD 019930522H
	DD	00H
	DD	00H
	DD	00H
	DD	00H
	DD	01H
	DD	imagerel $ip2state$??0exception@std@@QEAA@XZ
	DD	0e8H
	DD	00H
	DD	04H
CONST	ENDS
;	COMDAT xdata
xdata	SEGMENT
$unwind$??0exception@std@@QEAA@XZ DD 025053519H
	DD	010e2313H
	DD	070070021H
	DD	05006H
	DD	imagerel __CxxFrameHandler3
	DD	imagerel $cppxdata$??0exception@std@@QEAA@XZ
xdata	ENDS
; Function compile flags: /Odt
;	COMDAT __JustMyCode_Default
_TEXT	SEGMENT
__JustMyCode_Default PROC				; COMDAT
  00000	c2 00 00	 ret	 0
__JustMyCode_Default ENDP
_TEXT	ENDS
; Function compile flags: /Odtp /RTCsu /ZI
; File z:\sources\lunor\repos\rougemeilland\palmtree.math.core.uint\palmtree.math.core.uint\pmc_bitwiseor.cpp
;	COMDAT ?PMC_BitwiseOr_X_X_Imp@Internal@Core@Math@Palmtree@@YAPEAU__tag_NUMBER_HEADER@1234@PEAU51234@0@Z
_TEXT	SEGMENT
root$4 = 8
t$5 = 72
u_bit_count$6 = 104
v_bit_count$7 = 136
w_bit_count$8 = 168
w$9 = 200
$T10 = 424
$T11 = 456
u$ = 512
v$ = 520
?PMC_BitwiseOr_X_X_Imp@Internal@Core@Math@Palmtree@@YAPEAU__tag_NUMBER_HEADER@1234@PEAU51234@0@Z PROC ; Palmtree::Math::Core::Internal::PMC_BitwiseOr_X_X_Imp, COMDAT

; 377  :     {

  00000	48 89 54 24 10	 mov	 QWORD PTR [rsp+16], rdx
  00005	48 89 4c 24 08	 mov	 QWORD PTR [rsp+8], rcx
  0000a	55		 push	 rbp
  0000b	57		 push	 rdi
  0000c	48 81 ec 18 02
	00 00		 sub	 rsp, 536		; 00000218H
  00013	48 8d 6c 24 30	 lea	 rbp, QWORD PTR [rsp+48]
  00018	48 8b fc	 mov	 rdi, rsp
  0001b	b9 86 00 00 00	 mov	 ecx, 134		; 00000086H
  00020	b8 cc cc cc cc	 mov	 eax, -858993460		; ccccccccH
  00025	f3 ab		 rep stosd
  00027	48 8b 8c 24 38
	02 00 00	 mov	 rcx, QWORD PTR [rsp+568]
  0002f	48 c7 85 c8 01
	00 00 fe ff ff
	ff		 mov	 QWORD PTR $T11[rbp], -2
  0003a	48 8d 0d 00 00
	00 00		 lea	 rcx, OFFSET FLAT:__D969B5A7_pmc_bitwiseor@cpp
  00041	e8 00 00 00 00	 call	 __CheckForDebuggerJustMyCode

; 378  :         if (u->IS_ZERO)

  00046	48 8b 85 00 02
	00 00		 mov	 rax, QWORD PTR u$[rbp]
  0004d	8b 40 08	 mov	 eax, DWORD PTR [rax+8]
  00050	83 e0 01	 and	 eax, 1
  00053	85 c0		 test	 eax, eax
  00055	74 16		 je	 SHORT $LN2@PMC_Bitwis

; 379  :             return (DuplicateNumber(v));

  00057	48 8b 8d 08 02
	00 00		 mov	 rcx, QWORD PTR v$[rbp]
  0005e	e8 00 00 00 00	 call	 ?DuplicateNumber@Internal@Core@Math@Palmtree@@YAPEAU__tag_NUMBER_HEADER@1234@PEAU51234@@Z ; Palmtree::Math::Core::Internal::DuplicateNumber
  00063	e9 4c 01 00 00	 jmp	 $LN1@PMC_Bitwis
  00068	e9 47 01 00 00	 jmp	 $LN1@PMC_Bitwis
$LN2@PMC_Bitwis:

; 380  :         else if (v->IS_ZERO)

  0006d	48 8b 85 08 02
	00 00		 mov	 rax, QWORD PTR v$[rbp]
  00074	8b 40 08	 mov	 eax, DWORD PTR [rax+8]
  00077	83 e0 01	 and	 eax, 1
  0007a	85 c0		 test	 eax, eax
  0007c	74 16		 je	 SHORT $LN4@PMC_Bitwis

; 381  :             return (DuplicateNumber(u));

  0007e	48 8b 8d 00 02
	00 00		 mov	 rcx, QWORD PTR u$[rbp]
  00085	e8 00 00 00 00	 call	 ?DuplicateNumber@Internal@Core@Math@Palmtree@@YAPEAU__tag_NUMBER_HEADER@1234@PEAU51234@@Z ; Palmtree::Math::Core::Internal::DuplicateNumber
  0008a	e9 25 01 00 00	 jmp	 $LN1@PMC_Bitwis

; 382  :         else

  0008f	e9 20 01 00 00	 jmp	 $LN1@PMC_Bitwis
$LN4@PMC_Bitwis:

; 383  :         {
; 384  :             ResourceHolderUINT root;

  00094	48 8d 4d 08	 lea	 rcx, QWORD PTR root$4[rbp]
  00098	e8 00 00 00 00	 call	 ??0ResourceHolderUINT@Internal@Core@Math@Palmtree@@QEAA@XZ ; Palmtree::Math::Core::Internal::ResourceHolderUINT::ResourceHolderUINT
  0009d	90		 npad	 1

; 385  :             if (u->UNIT_WORD_COUNT < v->UNIT_WORD_COUNT)

  0009e	48 8b 85 00 02
	00 00		 mov	 rax, QWORD PTR u$[rbp]
  000a5	48 8b 8d 08 02
	00 00		 mov	 rcx, QWORD PTR v$[rbp]
  000ac	48 8b 49 18	 mov	 rcx, QWORD PTR [rcx+24]
  000b0	48 39 48 18	 cmp	 QWORD PTR [rax+24], rcx
  000b4	73 24		 jae	 SHORT $LN6@PMC_Bitwis

; 386  :             {
; 387  :                 NUMBER_HEADER* t = u;

  000b6	48 8b 85 00 02
	00 00		 mov	 rax, QWORD PTR u$[rbp]
  000bd	48 89 45 48	 mov	 QWORD PTR t$5[rbp], rax

; 388  :                 u = v;

  000c1	48 8b 85 08 02
	00 00		 mov	 rax, QWORD PTR v$[rbp]
  000c8	48 89 85 00 02
	00 00		 mov	 QWORD PTR u$[rbp], rax

; 389  :                 v = t;

  000cf	48 8b 45 48	 mov	 rax, QWORD PTR t$5[rbp]
  000d3	48 89 85 08 02
	00 00		 mov	 QWORD PTR v$[rbp], rax
$LN6@PMC_Bitwis:

; 390  :             }
; 391  :             __UNIT_TYPE u_bit_count = u->UNIT_BIT_COUNT;

  000da	48 8b 85 00 02
	00 00		 mov	 rax, QWORD PTR u$[rbp]
  000e1	48 8b 40 20	 mov	 rax, QWORD PTR [rax+32]
  000e5	48 89 45 68	 mov	 QWORD PTR u_bit_count$6[rbp], rax

; 392  :             __UNIT_TYPE v_bit_count = v->UNIT_BIT_COUNT;

  000e9	48 8b 85 08 02
	00 00		 mov	 rax, QWORD PTR v$[rbp]
  000f0	48 8b 40 20	 mov	 rax, QWORD PTR [rax+32]
  000f4	48 89 85 88 00
	00 00		 mov	 QWORD PTR v_bit_count$7[rbp], rax

; 393  :             __UNIT_TYPE w_bit_count = _MAXIMUM_UNIT(u_bit_count, v_bit_count);

  000fb	48 8b 95 88 00
	00 00		 mov	 rdx, QWORD PTR v_bit_count$7[rbp]
  00102	48 8b 4d 68	 mov	 rcx, QWORD PTR u_bit_count$6[rbp]
  00106	e8 00 00 00 00	 call	 _MAXIMUM_UNIT
  0010b	48 89 85 a8 00
	00 00		 mov	 QWORD PTR w_bit_count$8[rbp], rax

; 394  :             NUMBER_HEADER* w = root.AllocateNumber(w_bit_count);

  00112	48 8b 95 a8 00
	00 00		 mov	 rdx, QWORD PTR w_bit_count$8[rbp]
  00119	48 8d 4d 08	 lea	 rcx, QWORD PTR root$4[rbp]
  0011d	e8 00 00 00 00	 call	 ?AllocateNumber@ResourceHolderUINT@Internal@Core@Math@Palmtree@@QEAAPEAU__tag_NUMBER_HEADER@2345@_K@Z ; Palmtree::Math::Core::Internal::ResourceHolderUINT::AllocateNumber
  00122	48 89 85 c8 00
	00 00		 mov	 QWORD PTR w$9[rbp], rax

; 395  :             BitwiseOr_X_X(u->BLOCK, u->UNIT_WORD_COUNT, v->BLOCK, v->UNIT_WORD_COUNT, w->BLOCK);

  00129	48 8b 85 c8 00
	00 00		 mov	 rax, QWORD PTR w$9[rbp]
  00130	48 8b 40 40	 mov	 rax, QWORD PTR [rax+64]
  00134	48 89 44 24 20	 mov	 QWORD PTR [rsp+32], rax
  00139	48 8b 85 08 02
	00 00		 mov	 rax, QWORD PTR v$[rbp]
  00140	4c 8b 48 18	 mov	 r9, QWORD PTR [rax+24]
  00144	48 8b 85 08 02
	00 00		 mov	 rax, QWORD PTR v$[rbp]
  0014b	4c 8b 40 40	 mov	 r8, QWORD PTR [rax+64]
  0014f	48 8b 85 00 02
	00 00		 mov	 rax, QWORD PTR u$[rbp]
  00156	48 8b 50 18	 mov	 rdx, QWORD PTR [rax+24]
  0015a	48 8b 85 00 02
	00 00		 mov	 rax, QWORD PTR u$[rbp]
  00161	48 8b 48 40	 mov	 rcx, QWORD PTR [rax+64]
  00165	e8 00 00 00 00	 call	 ?BitwiseOr_X_X@Internal@Core@Math@Palmtree@@YAXPEA_K_K010@Z ; Palmtree::Math::Core::Internal::BitwiseOr_X_X

; 396  :             root.CheckNumber(w);

  0016a	48 8b 95 c8 00
	00 00		 mov	 rdx, QWORD PTR w$9[rbp]
  00171	48 8d 4d 08	 lea	 rcx, QWORD PTR root$4[rbp]
  00175	e8 00 00 00 00	 call	 ?CheckNumber@ResourceHolderUINT@Internal@Core@Math@Palmtree@@QEAAXPEAU__tag_NUMBER_HEADER@2345@@Z ; Palmtree::Math::Core::Internal::ResourceHolderUINT::CheckNumber

; 397  :             CommitNumber(w);

  0017a	48 8b 8d c8 00
	00 00		 mov	 rcx, QWORD PTR w$9[rbp]
  00181	e8 00 00 00 00	 call	 ?CommitNumber@Internal@Core@Math@Palmtree@@YAXPEAU__tag_NUMBER_HEADER@1234@@Z ; Palmtree::Math::Core::Internal::CommitNumber

; 398  :             root.UnlinkNumber(w);

  00186	48 8b 95 c8 00
	00 00		 mov	 rdx, QWORD PTR w$9[rbp]
  0018d	48 8d 4d 08	 lea	 rcx, QWORD PTR root$4[rbp]
  00191	e8 00 00 00 00	 call	 ?UnlinkNumber@ResourceHolderUINT@Internal@Core@Math@Palmtree@@QEAAXPEAU__tag_NUMBER_HEADER@2345@@Z ; Palmtree::Math::Core::Internal::ResourceHolderUINT::UnlinkNumber

; 399  :             return (w);

  00196	48 8b 85 c8 00
	00 00		 mov	 rax, QWORD PTR w$9[rbp]
  0019d	48 89 85 a8 01
	00 00		 mov	 QWORD PTR $T10[rbp], rax
  001a4	48 8d 4d 08	 lea	 rcx, QWORD PTR root$4[rbp]
  001a8	e8 00 00 00 00	 call	 ??1ResourceHolderUINT@Internal@Core@Math@Palmtree@@UEAA@XZ ; Palmtree::Math::Core::Internal::ResourceHolderUINT::~ResourceHolderUINT
  001ad	48 8b 85 a8 01
	00 00		 mov	 rax, QWORD PTR $T10[rbp]
$LN1@PMC_Bitwis:

; 400  :         }
; 401  :     }

  001b4	48 8b f8	 mov	 rdi, rax
  001b7	48 8d 4d d0	 lea	 rcx, QWORD PTR [rbp-48]
  001bb	48 8d 15 00 00
	00 00		 lea	 rdx, OFFSET FLAT:?PMC_BitwiseOr_X_X_Imp@Internal@Core@Math@Palmtree@@YAPEAU__tag_NUMBER_HEADER@1234@PEAU51234@0@Z$rtcFrameData
  001c2	e8 00 00 00 00	 call	 _RTC_CheckStackVars
  001c7	48 8b c7	 mov	 rax, rdi
  001ca	48 8d a5 e8 01
	00 00		 lea	 rsp, QWORD PTR [rbp+488]
  001d1	5f		 pop	 rdi
  001d2	5d		 pop	 rbp
  001d3	c3		 ret	 0
?PMC_BitwiseOr_X_X_Imp@Internal@Core@Math@Palmtree@@YAPEAU__tag_NUMBER_HEADER@1234@PEAU51234@0@Z ENDP ; Palmtree::Math::Core::Internal::PMC_BitwiseOr_X_X_Imp
_TEXT	ENDS
;	COMDAT text$x
text$x	SEGMENT
root$4 = 8
t$5 = 72
u_bit_count$6 = 104
v_bit_count$7 = 136
w_bit_count$8 = 168
w$9 = 200
$T10 = 424
$T11 = 456
u$ = 512
v$ = 520
?dtor$0@?0??PMC_BitwiseOr_X_X_Imp@Internal@Core@Math@Palmtree@@YAPEAU__tag_NUMBER_HEADER@1234@PEAU51234@0@Z@4HA PROC ; `Palmtree::Math::Core::Internal::PMC_BitwiseOr_X_X_Imp'::`1'::dtor$0
  00000	48 89 4c 24 08	 mov	 QWORD PTR [rsp+8], rcx
  00005	48 89 54 24 10	 mov	 QWORD PTR [rsp+16], rdx
  0000a	55		 push	 rbp
  0000b	57		 push	 rdi
  0000c	48 83 ec 28	 sub	 rsp, 40			; 00000028H
  00010	48 8d 6a 30	 lea	 rbp, QWORD PTR [rdx+48]
  00014	48 8d 4d 08	 lea	 rcx, QWORD PTR root$4[rbp]
  00018	e8 00 00 00 00	 call	 ??1ResourceHolderUINT@Internal@Core@Math@Palmtree@@UEAA@XZ ; Palmtree::Math::Core::Internal::ResourceHolderUINT::~ResourceHolderUINT
  0001d	48 83 c4 28	 add	 rsp, 40			; 00000028H
  00021	5f		 pop	 rdi
  00022	5d		 pop	 rbp
  00023	c3		 ret	 0
?dtor$0@?0??PMC_BitwiseOr_X_X_Imp@Internal@Core@Math@Palmtree@@YAPEAU__tag_NUMBER_HEADER@1234@PEAU51234@0@Z@4HA ENDP ; `Palmtree::Math::Core::Internal::PMC_BitwiseOr_X_X_Imp'::`1'::dtor$0
text$x	ENDS
; Function compile flags: /Odtp /RTCsu /ZI
;	COMDAT text$x
text$x	SEGMENT
root$4 = 8
t$5 = 72
u_bit_count$6 = 104
v_bit_count$7 = 136
w_bit_count$8 = 168
w$9 = 200
$T10 = 424
$T11 = 456
u$ = 512
v$ = 520
?dtor$0@?0??PMC_BitwiseOr_X_X_Imp@Internal@Core@Math@Palmtree@@YAPEAU__tag_NUMBER_HEADER@1234@PEAU51234@0@Z@4HA PROC ; `Palmtree::Math::Core::Internal::PMC_BitwiseOr_X_X_Imp'::`1'::dtor$0
  00000	48 89 4c 24 08	 mov	 QWORD PTR [rsp+8], rcx
  00005	48 89 54 24 10	 mov	 QWORD PTR [rsp+16], rdx
  0000a	55		 push	 rbp
  0000b	57		 push	 rdi
  0000c	48 83 ec 28	 sub	 rsp, 40			; 00000028H
  00010	48 8d 6a 30	 lea	 rbp, QWORD PTR [rdx+48]
  00014	48 8d 4d 08	 lea	 rcx, QWORD PTR root$4[rbp]
  00018	e8 00 00 00 00	 call	 ??1ResourceHolderUINT@Internal@Core@Math@Palmtree@@UEAA@XZ ; Palmtree::Math::Core::Internal::ResourceHolderUINT::~ResourceHolderUINT
  0001d	48 83 c4 28	 add	 rsp, 40			; 00000028H
  00021	5f		 pop	 rdi
  00022	5d		 pop	 rbp
  00023	c3		 ret	 0
?dtor$0@?0??PMC_BitwiseOr_X_X_Imp@Internal@Core@Math@Palmtree@@YAPEAU__tag_NUMBER_HEADER@1234@PEAU51234@0@Z@4HA ENDP ; `Palmtree::Math::Core::Internal::PMC_BitwiseOr_X_X_Imp'::`1'::dtor$0
text$x	ENDS
; Function compile flags: /Odtp /RTCsu /ZI
; File z:\sources\lunor\repos\rougemeilland\palmtree.math.core.uint\palmtree.math.core.uint\pmc_bitwiseor.cpp
;	COMDAT ?PMC_BitwiseOr_X_L_Imp@Internal@Core@Math@Palmtree@@YAPEAU__tag_NUMBER_HEADER@1234@PEAU51234@_K@Z
_TEXT	SEGMENT
u_bit_count$7 = 8
v_hi$8 = 36
v_lo$9 = 68
root$10 = 104
v_bit_count$11 = 168
w_bit_count$12 = 200
w$13 = 232
root$14 = 264
v_bit_count$15 = 328
w_bit_count$16 = 360
w$17 = 392
root$18 = 424
u_bit_count$19 = 488
v_bit_count$20 = 520
w_bit_count$21 = 552
w$22 = 584
$T23 = 1000
$T24 = 1032
$T25 = 1064
$T26 = 1096
u$ = 1152
v$ = 1160
?PMC_BitwiseOr_X_L_Imp@Internal@Core@Math@Palmtree@@YAPEAU__tag_NUMBER_HEADER@1234@PEAU51234@_K@Z PROC ; Palmtree::Math::Core::Internal::PMC_BitwiseOr_X_L_Imp, COMDAT

; 263  :     {

  00000	48 89 54 24 10	 mov	 QWORD PTR [rsp+16], rdx
  00005	48 89 4c 24 08	 mov	 QWORD PTR [rsp+8], rcx
  0000a	55		 push	 rbp
  0000b	57		 push	 rdi
  0000c	48 81 ec 98 04
	00 00		 sub	 rsp, 1176		; 00000498H
  00013	48 8d 6c 24 30	 lea	 rbp, QWORD PTR [rsp+48]
  00018	48 8b fc	 mov	 rdi, rsp
  0001b	b9 26 01 00 00	 mov	 ecx, 294		; 00000126H
  00020	b8 cc cc cc cc	 mov	 eax, -858993460		; ccccccccH
  00025	f3 ab		 rep stosd
  00027	48 8b 8c 24 b8
	04 00 00	 mov	 rcx, QWORD PTR [rsp+1208]
  0002f	48 c7 85 48 04
	00 00 fe ff ff
	ff		 mov	 QWORD PTR $T26[rbp], -2
  0003a	48 8d 0d 00 00
	00 00		 lea	 rcx, OFFSET FLAT:__D969B5A7_pmc_bitwiseor@cpp
  00041	e8 00 00 00 00	 call	 __CheckForDebuggerJustMyCode

; 264  :         if (u->IS_ZERO)

  00046	48 8b 85 80 04
	00 00		 mov	 rax, QWORD PTR u$[rbp]
  0004d	8b 40 08	 mov	 eax, DWORD PTR [rax+8]
  00050	83 e0 01	 and	 eax, 1
  00053	85 c0		 test	 eax, eax
  00055	74 2e		 je	 SHORT $LN2@PMC_Bitwis

; 265  :         {
; 266  :             // u  0 
; 267  :             if (v == 0)

  00057	48 83 bd 88 04
	00 00 00	 cmp	 QWORD PTR v$[rbp], 0
  0005f	75 0e		 jne	 SHORT $LN4@PMC_Bitwis

; 268  :             {
; 269  :                 // v  0 
; 270  :                 return (&number_zero);

  00061	48 8d 05 00 00
	00 00		 lea	 rax, OFFSET FLAT:?number_zero@Internal@Core@Math@Palmtree@@3U__tag_NUMBER_HEADER@1234@A ; Palmtree::Math::Core::Internal::number_zero
  00068	e9 26 03 00 00	 jmp	 $LN1@PMC_Bitwis

; 271  :             }
; 272  :             else

  0006d	eb 11		 jmp	 SHORT $LN5@PMC_Bitwis
$LN4@PMC_Bitwis:

; 273  :             {
; 274  :                 // v  0 
; 275  :                 return (From_L_Imp(v));

  0006f	48 8b 8d 88 04
	00 00		 mov	 rcx, QWORD PTR v$[rbp]
  00076	e8 00 00 00 00	 call	 ?From_L_Imp@Internal@Core@Math@Palmtree@@YAPEAU__tag_NUMBER_HEADER@1234@_K@Z ; Palmtree::Math::Core::Internal::From_L_Imp
  0007b	e9 13 03 00 00	 jmp	 $LN1@PMC_Bitwis
$LN5@PMC_Bitwis:

; 276  :             }

  00080	e9 0e 03 00 00	 jmp	 $LN1@PMC_Bitwis
$LN2@PMC_Bitwis:

; 277  :         }
; 278  :         else if (v == 0)

  00085	48 83 bd 88 04
	00 00 00	 cmp	 QWORD PTR v$[rbp], 0
  0008d	75 16		 jne	 SHORT $LN6@PMC_Bitwis

; 279  :         {
; 280  :             // v  0 
; 281  :             return (DuplicateNumber(u));

  0008f	48 8b 8d 80 04
	00 00		 mov	 rcx, QWORD PTR u$[rbp]
  00096	e8 00 00 00 00	 call	 ?DuplicateNumber@Internal@Core@Math@Palmtree@@YAPEAU__tag_NUMBER_HEADER@1234@PEAU51234@@Z ; Palmtree::Math::Core::Internal::DuplicateNumber
  0009b	e9 f3 02 00 00	 jmp	 $LN1@PMC_Bitwis

; 282  :         }
; 283  :         else

  000a0	e9 ee 02 00 00	 jmp	 $LN1@PMC_Bitwis
$LN6@PMC_Bitwis:

; 284  :         {
; 285  :             // u  v  0 
; 286  :             if (__UNIT_TYPE_BIT_COUNT < sizeof(v) * 8)

  000a5	33 c0		 xor	 eax, eax
  000a7	85 c0		 test	 eax, eax
  000a9	0f 84 ee 01 00
	00		 je	 $LN8@PMC_Bitwis

; 287  :             {
; 288  :                 // _UINT64_T  1 
; 289  :                 __UNIT_TYPE u_bit_count = u->UNIT_BIT_COUNT;

  000af	48 8b 85 80 04
	00 00		 mov	 rax, QWORD PTR u$[rbp]
  000b6	48 8b 40 20	 mov	 rax, QWORD PTR [rax+32]
  000ba	48 89 45 08	 mov	 QWORD PTR u_bit_count$7[rbp], rax

; 290  :                 _UINT32_T v_hi;
; 291  :                 _UINT32_T v_lo = _FROMDWORDTOWORD(v, &v_hi);

  000be	48 8d 55 24	 lea	 rdx, QWORD PTR v_hi$8[rbp]
  000c2	48 8b 8d 88 04
	00 00		 mov	 rcx, QWORD PTR v$[rbp]
  000c9	e8 00 00 00 00	 call	 _FROMDWORDTOWORD
  000ce	89 45 44	 mov	 DWORD PTR v_lo$9[rbp], eax

; 292  :                 if (v_hi == 0)

  000d1	83 7d 24 00	 cmp	 DWORD PTR v_hi$8[rbp], 0
  000d5	0f 85 d4 00 00
	00		 jne	 $LN10@PMC_Bitwis

; 293  :                 {
; 294  :                     // v  32bit 
; 295  :                     ResourceHolderUINT root;

  000db	48 8d 4d 68	 lea	 rcx, QWORD PTR root$10[rbp]
  000df	e8 00 00 00 00	 call	 ??0ResourceHolderUINT@Internal@Core@Math@Palmtree@@QEAA@XZ ; Palmtree::Math::Core::Internal::ResourceHolderUINT::ResourceHolderUINT
  000e4	90		 npad	 1

; 296  :                     __UNIT_TYPE v_bit_count = sizeof(v_lo) * 8 - _LZCNT_ALT_32(v_lo);

  000e5	8b 4d 44	 mov	 ecx, DWORD PTR v_lo$9[rbp]
  000e8	e8 00 00 00 00	 call	 _LZCNT_ALT_32
  000ed	48 98		 cdqe
  000ef	b9 20 00 00 00	 mov	 ecx, 32			; 00000020H
  000f4	48 2b c8	 sub	 rcx, rax
  000f7	48 8b c1	 mov	 rax, rcx
  000fa	48 89 85 a8 00
	00 00		 mov	 QWORD PTR v_bit_count$11[rbp], rax

; 297  :                     __UNIT_TYPE w_bit_count = _MAXIMUM_UNIT(u_bit_count, v_bit_count);

  00101	48 8b 95 a8 00
	00 00		 mov	 rdx, QWORD PTR v_bit_count$11[rbp]
  00108	48 8b 4d 08	 mov	 rcx, QWORD PTR u_bit_count$7[rbp]
  0010c	e8 00 00 00 00	 call	 _MAXIMUM_UNIT
  00111	48 89 85 c8 00
	00 00		 mov	 QWORD PTR w_bit_count$12[rbp], rax

; 298  :                     NUMBER_HEADER* w = root.AllocateNumber(w_bit_count);

  00118	48 8b 95 c8 00
	00 00		 mov	 rdx, QWORD PTR w_bit_count$12[rbp]
  0011f	48 8d 4d 68	 lea	 rcx, QWORD PTR root$10[rbp]
  00123	e8 00 00 00 00	 call	 ?AllocateNumber@ResourceHolderUINT@Internal@Core@Math@Palmtree@@QEAAPEAU__tag_NUMBER_HEADER@2345@_K@Z ; Palmtree::Math::Core::Internal::ResourceHolderUINT::AllocateNumber
  00128	48 89 85 e8 00
	00 00		 mov	 QWORD PTR w$13[rbp], rax

; 299  :                     BitwiseOr_X_1W(u->BLOCK, u->UNIT_WORD_COUNT, v_lo, w->BLOCK);

  0012f	8b 45 44	 mov	 eax, DWORD PTR v_lo$9[rbp]
  00132	48 8b 8d e8 00
	00 00		 mov	 rcx, QWORD PTR w$13[rbp]
  00139	4c 8b 49 40	 mov	 r9, QWORD PTR [rcx+64]
  0013d	44 8b c0	 mov	 r8d, eax
  00140	48 8b 85 80 04
	00 00		 mov	 rax, QWORD PTR u$[rbp]
  00147	48 8b 50 18	 mov	 rdx, QWORD PTR [rax+24]
  0014b	48 8b 85 80 04
	00 00		 mov	 rax, QWORD PTR u$[rbp]
  00152	48 8b 48 40	 mov	 rcx, QWORD PTR [rax+64]
  00156	e8 00 00 00 00	 call	 ?BitwiseOr_X_1W@Internal@Core@Math@Palmtree@@YAXPEA_K_K10@Z ; Palmtree::Math::Core::Internal::BitwiseOr_X_1W

; 300  :                     root.CheckNumber(w);

  0015b	48 8b 95 e8 00
	00 00		 mov	 rdx, QWORD PTR w$13[rbp]
  00162	48 8d 4d 68	 lea	 rcx, QWORD PTR root$10[rbp]
  00166	e8 00 00 00 00	 call	 ?CheckNumber@ResourceHolderUINT@Internal@Core@Math@Palmtree@@QEAAXPEAU__tag_NUMBER_HEADER@2345@@Z ; Palmtree::Math::Core::Internal::ResourceHolderUINT::CheckNumber

; 301  :                     CommitNumber(w);

  0016b	48 8b 8d e8 00
	00 00		 mov	 rcx, QWORD PTR w$13[rbp]
  00172	e8 00 00 00 00	 call	 ?CommitNumber@Internal@Core@Math@Palmtree@@YAXPEAU__tag_NUMBER_HEADER@1234@@Z ; Palmtree::Math::Core::Internal::CommitNumber

; 302  :                     root.UnlinkNumber(w);

  00177	48 8b 95 e8 00
	00 00		 mov	 rdx, QWORD PTR w$13[rbp]
  0017e	48 8d 4d 68	 lea	 rcx, QWORD PTR root$10[rbp]
  00182	e8 00 00 00 00	 call	 ?UnlinkNumber@ResourceHolderUINT@Internal@Core@Math@Palmtree@@QEAAXPEAU__tag_NUMBER_HEADER@2345@@Z ; Palmtree::Math::Core::Internal::ResourceHolderUINT::UnlinkNumber

; 303  :                     return (w);

  00187	48 8b 85 e8 00
	00 00		 mov	 rax, QWORD PTR w$13[rbp]
  0018e	48 89 85 e8 03
	00 00		 mov	 QWORD PTR $T23[rbp], rax
  00195	48 8d 4d 68	 lea	 rcx, QWORD PTR root$10[rbp]
  00199	e8 00 00 00 00	 call	 ??1ResourceHolderUINT@Internal@Core@Math@Palmtree@@UEAA@XZ ; Palmtree::Math::Core::Internal::ResourceHolderUINT::~ResourceHolderUINT
  0019e	48 8b 85 e8 03
	00 00		 mov	 rax, QWORD PTR $T23[rbp]
  001a5	e9 e9 01 00 00	 jmp	 $LN1@PMC_Bitwis

; 304  :                 }
; 305  :                 else

  001aa	e9 e9 00 00 00	 jmp	 $LN11@PMC_Bitwis
$LN10@PMC_Bitwis:

; 306  :                 {
; 307  :                     // v  32bit 
; 308  :                     ResourceHolderUINT root;

  001af	48 8d 8d 08 01
	00 00		 lea	 rcx, QWORD PTR root$14[rbp]
  001b6	e8 00 00 00 00	 call	 ??0ResourceHolderUINT@Internal@Core@Math@Palmtree@@QEAA@XZ ; Palmtree::Math::Core::Internal::ResourceHolderUINT::ResourceHolderUINT
  001bb	90		 npad	 1

; 309  :                     __UNIT_TYPE v_bit_count = sizeof(v) * 8 - _LZCNT_ALT_32(v_hi);

  001bc	8b 4d 24	 mov	 ecx, DWORD PTR v_hi$8[rbp]
  001bf	e8 00 00 00 00	 call	 _LZCNT_ALT_32
  001c4	48 98		 cdqe
  001c6	b9 40 00 00 00	 mov	 ecx, 64			; 00000040H
  001cb	48 2b c8	 sub	 rcx, rax
  001ce	48 8b c1	 mov	 rax, rcx
  001d1	48 89 85 48 01
	00 00		 mov	 QWORD PTR v_bit_count$15[rbp], rax

; 310  :                     __UNIT_TYPE w_bit_count = _MAXIMUM_UNIT(u_bit_count, v_bit_count);

  001d8	48 8b 95 48 01
	00 00		 mov	 rdx, QWORD PTR v_bit_count$15[rbp]
  001df	48 8b 4d 08	 mov	 rcx, QWORD PTR u_bit_count$7[rbp]
  001e3	e8 00 00 00 00	 call	 _MAXIMUM_UNIT
  001e8	48 89 85 68 01
	00 00		 mov	 QWORD PTR w_bit_count$16[rbp], rax

; 311  :                     NUMBER_HEADER* w = root.AllocateNumber(w_bit_count);

  001ef	48 8b 95 68 01
	00 00		 mov	 rdx, QWORD PTR w_bit_count$16[rbp]
  001f6	48 8d 8d 08 01
	00 00		 lea	 rcx, QWORD PTR root$14[rbp]
  001fd	e8 00 00 00 00	 call	 ?AllocateNumber@ResourceHolderUINT@Internal@Core@Math@Palmtree@@QEAAPEAU__tag_NUMBER_HEADER@2345@_K@Z ; Palmtree::Math::Core::Internal::ResourceHolderUINT::AllocateNumber
  00202	48 89 85 88 01
	00 00		 mov	 QWORD PTR w$17[rbp], rax

; 312  :                     BitwiseOr_X_2W(u->BLOCK, u->UNIT_WORD_COUNT, v_hi, v_lo, w->BLOCK);

  00209	8b 45 44	 mov	 eax, DWORD PTR v_lo$9[rbp]
  0020c	8b 4d 24	 mov	 ecx, DWORD PTR v_hi$8[rbp]
  0020f	48 8b 95 88 01
	00 00		 mov	 rdx, QWORD PTR w$17[rbp]
  00216	48 8b 52 40	 mov	 rdx, QWORD PTR [rdx+64]
  0021a	48 89 54 24 20	 mov	 QWORD PTR [rsp+32], rdx
  0021f	44 8b c8	 mov	 r9d, eax
  00222	44 8b c1	 mov	 r8d, ecx
  00225	48 8b 85 80 04
	00 00		 mov	 rax, QWORD PTR u$[rbp]
  0022c	48 8b 50 18	 mov	 rdx, QWORD PTR [rax+24]
  00230	48 8b 85 80 04
	00 00		 mov	 rax, QWORD PTR u$[rbp]
  00237	48 8b 48 40	 mov	 rcx, QWORD PTR [rax+64]
  0023b	e8 00 00 00 00	 call	 ?BitwiseOr_X_2W@Internal@Core@Math@Palmtree@@YAXPEA_K_K110@Z ; Palmtree::Math::Core::Internal::BitwiseOr_X_2W

; 313  :                     root.CheckNumber(w);

  00240	48 8b 95 88 01
	00 00		 mov	 rdx, QWORD PTR w$17[rbp]
  00247	48 8d 8d 08 01
	00 00		 lea	 rcx, QWORD PTR root$14[rbp]
  0024e	e8 00 00 00 00	 call	 ?CheckNumber@ResourceHolderUINT@Internal@Core@Math@Palmtree@@QEAAXPEAU__tag_NUMBER_HEADER@2345@@Z ; Palmtree::Math::Core::Internal::ResourceHolderUINT::CheckNumber

; 314  :                     CommitNumber(w);

  00253	48 8b 8d 88 01
	00 00		 mov	 rcx, QWORD PTR w$17[rbp]
  0025a	e8 00 00 00 00	 call	 ?CommitNumber@Internal@Core@Math@Palmtree@@YAXPEAU__tag_NUMBER_HEADER@1234@@Z ; Palmtree::Math::Core::Internal::CommitNumber

; 315  :                     root.UnlinkNumber(w);

  0025f	48 8b 95 88 01
	00 00		 mov	 rdx, QWORD PTR w$17[rbp]
  00266	48 8d 8d 08 01
	00 00		 lea	 rcx, QWORD PTR root$14[rbp]
  0026d	e8 00 00 00 00	 call	 ?UnlinkNumber@ResourceHolderUINT@Internal@Core@Math@Palmtree@@QEAAXPEAU__tag_NUMBER_HEADER@2345@@Z ; Palmtree::Math::Core::Internal::ResourceHolderUINT::UnlinkNumber

; 316  :                     return (w);

  00272	48 8b 85 88 01
	00 00		 mov	 rax, QWORD PTR w$17[rbp]
  00279	48 89 85 08 04
	00 00		 mov	 QWORD PTR $T24[rbp], rax
  00280	48 8d 8d 08 01
	00 00		 lea	 rcx, QWORD PTR root$14[rbp]
  00287	e8 00 00 00 00	 call	 ??1ResourceHolderUINT@Internal@Core@Math@Palmtree@@UEAA@XZ ; Palmtree::Math::Core::Internal::ResourceHolderUINT::~ResourceHolderUINT
  0028c	48 8b 85 08 04
	00 00		 mov	 rax, QWORD PTR $T24[rbp]
  00293	e9 fb 00 00 00	 jmp	 $LN1@PMC_Bitwis
$LN11@PMC_Bitwis:

; 317  :                 }
; 318  :             }
; 319  :             else

  00298	e9 f6 00 00 00	 jmp	 $LN1@PMC_Bitwis
$LN8@PMC_Bitwis:

; 320  :             {
; 321  :                 // _UINT64_T  1 
; 322  :                 ResourceHolderUINT root;

  0029d	48 8d 8d a8 01
	00 00		 lea	 rcx, QWORD PTR root$18[rbp]
  002a4	e8 00 00 00 00	 call	 ??0ResourceHolderUINT@Internal@Core@Math@Palmtree@@QEAA@XZ ; Palmtree::Math::Core::Internal::ResourceHolderUINT::ResourceHolderUINT
  002a9	90		 npad	 1

; 323  :                 __UNIT_TYPE u_bit_count = u->UNIT_BIT_COUNT;

  002aa	48 8b 85 80 04
	00 00		 mov	 rax, QWORD PTR u$[rbp]
  002b1	48 8b 40 20	 mov	 rax, QWORD PTR [rax+32]
  002b5	48 89 85 e8 01
	00 00		 mov	 QWORD PTR u_bit_count$19[rbp], rax

; 324  :                 __UNIT_TYPE v_bit_count = sizeof(v) * 8 - _LZCNT_ALT_UNIT((__UNIT_TYPE)v);

  002bc	48 8b 8d 88 04
	00 00		 mov	 rcx, QWORD PTR v$[rbp]
  002c3	e8 00 00 00 00	 call	 _LZCNT_ALT_UNIT
  002c8	48 98		 cdqe
  002ca	b9 40 00 00 00	 mov	 ecx, 64			; 00000040H
  002cf	48 2b c8	 sub	 rcx, rax
  002d2	48 8b c1	 mov	 rax, rcx
  002d5	48 89 85 08 02
	00 00		 mov	 QWORD PTR v_bit_count$20[rbp], rax

; 325  :                 __UNIT_TYPE w_bit_count = _MAXIMUM_UNIT(u_bit_count, v_bit_count) + 1;

  002dc	48 8b 95 08 02
	00 00		 mov	 rdx, QWORD PTR v_bit_count$20[rbp]
  002e3	48 8b 8d e8 01
	00 00		 mov	 rcx, QWORD PTR u_bit_count$19[rbp]
  002ea	e8 00 00 00 00	 call	 _MAXIMUM_UNIT
  002ef	48 ff c0	 inc	 rax
  002f2	48 89 85 28 02
	00 00		 mov	 QWORD PTR w_bit_count$21[rbp], rax

; 326  :                 NUMBER_HEADER* w = root.AllocateNumber(w_bit_count);

  002f9	48 8b 95 28 02
	00 00		 mov	 rdx, QWORD PTR w_bit_count$21[rbp]
  00300	48 8d 8d a8 01
	00 00		 lea	 rcx, QWORD PTR root$18[rbp]
  00307	e8 00 00 00 00	 call	 ?AllocateNumber@ResourceHolderUINT@Internal@Core@Math@Palmtree@@QEAAPEAU__tag_NUMBER_HEADER@2345@_K@Z ; Palmtree::Math::Core::Internal::ResourceHolderUINT::AllocateNumber
  0030c	48 89 85 48 02
	00 00		 mov	 QWORD PTR w$22[rbp], rax

; 327  :                 BitwiseOr_X_1W(u->BLOCK, u->UNIT_WORD_COUNT, (__UNIT_TYPE)v, w->BLOCK);

  00313	48 8b 85 48 02
	00 00		 mov	 rax, QWORD PTR w$22[rbp]
  0031a	4c 8b 48 40	 mov	 r9, QWORD PTR [rax+64]
  0031e	4c 8b 85 88 04
	00 00		 mov	 r8, QWORD PTR v$[rbp]
  00325	48 8b 85 80 04
	00 00		 mov	 rax, QWORD PTR u$[rbp]
  0032c	48 8b 50 18	 mov	 rdx, QWORD PTR [rax+24]
  00330	48 8b 85 80 04
	00 00		 mov	 rax, QWORD PTR u$[rbp]
  00337	48 8b 48 40	 mov	 rcx, QWORD PTR [rax+64]
  0033b	e8 00 00 00 00	 call	 ?BitwiseOr_X_1W@Internal@Core@Math@Palmtree@@YAXPEA_K_K10@Z ; Palmtree::Math::Core::Internal::BitwiseOr_X_1W

; 328  :                 root.CheckNumber(w);

  00340	48 8b 95 48 02
	00 00		 mov	 rdx, QWORD PTR w$22[rbp]
  00347	48 8d 8d a8 01
	00 00		 lea	 rcx, QWORD PTR root$18[rbp]
  0034e	e8 00 00 00 00	 call	 ?CheckNumber@ResourceHolderUINT@Internal@Core@Math@Palmtree@@QEAAXPEAU__tag_NUMBER_HEADER@2345@@Z ; Palmtree::Math::Core::Internal::ResourceHolderUINT::CheckNumber

; 329  :                 CommitNumber(w);

  00353	48 8b 8d 48 02
	00 00		 mov	 rcx, QWORD PTR w$22[rbp]
  0035a	e8 00 00 00 00	 call	 ?CommitNumber@Internal@Core@Math@Palmtree@@YAXPEAU__tag_NUMBER_HEADER@1234@@Z ; Palmtree::Math::Core::Internal::CommitNumber

; 330  :                 root.UnlinkNumber(w);

  0035f	48 8b 95 48 02
	00 00		 mov	 rdx, QWORD PTR w$22[rbp]
  00366	48 8d 8d a8 01
	00 00		 lea	 rcx, QWORD PTR root$18[rbp]
  0036d	e8 00 00 00 00	 call	 ?UnlinkNumber@ResourceHolderUINT@Internal@Core@Math@Palmtree@@QEAAXPEAU__tag_NUMBER_HEADER@2345@@Z ; Palmtree::Math::Core::Internal::ResourceHolderUINT::UnlinkNumber

; 331  :                 return (w);

  00372	48 8b 85 48 02
	00 00		 mov	 rax, QWORD PTR w$22[rbp]
  00379	48 89 85 28 04
	00 00		 mov	 QWORD PTR $T25[rbp], rax
  00380	48 8d 8d a8 01
	00 00		 lea	 rcx, QWORD PTR root$18[rbp]
  00387	e8 00 00 00 00	 call	 ??1ResourceHolderUINT@Internal@Core@Math@Palmtree@@UEAA@XZ ; Palmtree::Math::Core::Internal::ResourceHolderUINT::~ResourceHolderUINT
  0038c	48 8b 85 28 04
	00 00		 mov	 rax, QWORD PTR $T25[rbp]
$LN1@PMC_Bitwis:

; 332  :             }
; 333  :         }
; 334  :     }

  00393	48 8b f8	 mov	 rdi, rax
  00396	48 8d 4d d0	 lea	 rcx, QWORD PTR [rbp-48]
  0039a	48 8d 15 00 00
	00 00		 lea	 rdx, OFFSET FLAT:?PMC_BitwiseOr_X_L_Imp@Internal@Core@Math@Palmtree@@YAPEAU__tag_NUMBER_HEADER@1234@PEAU51234@_K@Z$rtcFrameData
  003a1	e8 00 00 00 00	 call	 _RTC_CheckStackVars
  003a6	48 8b c7	 mov	 rax, rdi
  003a9	48 8d a5 68 04
	00 00		 lea	 rsp, QWORD PTR [rbp+1128]
  003b0	5f		 pop	 rdi
  003b1	5d		 pop	 rbp
  003b2	c3		 ret	 0
?PMC_BitwiseOr_X_L_Imp@Internal@Core@Math@Palmtree@@YAPEAU__tag_NUMBER_HEADER@1234@PEAU51234@_K@Z ENDP ; Palmtree::Math::Core::Internal::PMC_BitwiseOr_X_L_Imp
_TEXT	ENDS
;	COMDAT text$x
text$x	SEGMENT
u_bit_count$7 = 8
v_hi$8 = 36
v_lo$9 = 68
root$10 = 104
v_bit_count$11 = 168
w_bit_count$12 = 200
w$13 = 232
root$14 = 264
v_bit_count$15 = 328
w_bit_count$16 = 360
w$17 = 392
root$18 = 424
u_bit_count$19 = 488
v_bit_count$20 = 520
w_bit_count$21 = 552
w$22 = 584
$T23 = 1000
$T24 = 1032
$T25 = 1064
$T26 = 1096
u$ = 1152
v$ = 1160
?dtor$0@?0??PMC_BitwiseOr_X_L_Imp@Internal@Core@Math@Palmtree@@YAPEAU__tag_NUMBER_HEADER@1234@PEAU51234@_K@Z@4HA PROC ; `Palmtree::Math::Core::Internal::PMC_BitwiseOr_X_L_Imp'::`1'::dtor$0
  00000	48 89 4c 24 08	 mov	 QWORD PTR [rsp+8], rcx
  00005	48 89 54 24 10	 mov	 QWORD PTR [rsp+16], rdx
  0000a	55		 push	 rbp
  0000b	57		 push	 rdi
  0000c	48 83 ec 28	 sub	 rsp, 40			; 00000028H
  00010	48 8d 6a 30	 lea	 rbp, QWORD PTR [rdx+48]
  00014	48 8d 4d 68	 lea	 rcx, QWORD PTR root$10[rbp]
  00018	e8 00 00 00 00	 call	 ??1ResourceHolderUINT@Internal@Core@Math@Palmtree@@UEAA@XZ ; Palmtree::Math::Core::Internal::ResourceHolderUINT::~ResourceHolderUINT
  0001d	48 83 c4 28	 add	 rsp, 40			; 00000028H
  00021	5f		 pop	 rdi
  00022	5d		 pop	 rbp
  00023	c3		 ret	 0
?dtor$0@?0??PMC_BitwiseOr_X_L_Imp@Internal@Core@Math@Palmtree@@YAPEAU__tag_NUMBER_HEADER@1234@PEAU51234@_K@Z@4HA ENDP ; `Palmtree::Math::Core::Internal::PMC_BitwiseOr_X_L_Imp'::`1'::dtor$0
text$x	ENDS
;	COMDAT text$x
text$x	SEGMENT
u_bit_count$7 = 8
v_hi$8 = 36
v_lo$9 = 68
root$10 = 104
v_bit_count$11 = 168
w_bit_count$12 = 200
w$13 = 232
root$14 = 264
v_bit_count$15 = 328
w_bit_count$16 = 360
w$17 = 392
root$18 = 424
u_bit_count$19 = 488
v_bit_count$20 = 520
w_bit_count$21 = 552
w$22 = 584
$T23 = 1000
$T24 = 1032
$T25 = 1064
$T26 = 1096
u$ = 1152
v$ = 1160
?dtor$1@?0??PMC_BitwiseOr_X_L_Imp@Internal@Core@Math@Palmtree@@YAPEAU__tag_NUMBER_HEADER@1234@PEAU51234@_K@Z@4HA PROC ; `Palmtree::Math::Core::Internal::PMC_BitwiseOr_X_L_Imp'::`1'::dtor$1
  00000	48 89 4c 24 08	 mov	 QWORD PTR [rsp+8], rcx
  00005	48 89 54 24 10	 mov	 QWORD PTR [rsp+16], rdx
  0000a	55		 push	 rbp
  0000b	57		 push	 rdi
  0000c	48 83 ec 28	 sub	 rsp, 40			; 00000028H
  00010	48 8d 6a 30	 lea	 rbp, QWORD PTR [rdx+48]
  00014	48 8d 8d 08 01
	00 00		 lea	 rcx, QWORD PTR root$14[rbp]
  0001b	e8 00 00 00 00	 call	 ??1ResourceHolderUINT@Internal@Core@Math@Palmtree@@UEAA@XZ ; Palmtree::Math::Core::Internal::ResourceHolderUINT::~ResourceHolderUINT
  00020	48 83 c4 28	 add	 rsp, 40			; 00000028H
  00024	5f		 pop	 rdi
  00025	5d		 pop	 rbp
  00026	c3		 ret	 0
?dtor$1@?0??PMC_BitwiseOr_X_L_Imp@Internal@Core@Math@Palmtree@@YAPEAU__tag_NUMBER_HEADER@1234@PEAU51234@_K@Z@4HA ENDP ; `Palmtree::Math::Core::Internal::PMC_BitwiseOr_X_L_Imp'::`1'::dtor$1
text$x	ENDS
;	COMDAT text$x
text$x	SEGMENT
u_bit_count$7 = 8
v_hi$8 = 36
v_lo$9 = 68
root$10 = 104
v_bit_count$11 = 168
w_bit_count$12 = 200
w$13 = 232
root$14 = 264
v_bit_count$15 = 328
w_bit_count$16 = 360
w$17 = 392
root$18 = 424
u_bit_count$19 = 488
v_bit_count$20 = 520
w_bit_count$21 = 552
w$22 = 584
$T23 = 1000
$T24 = 1032
$T25 = 1064
$T26 = 1096
u$ = 1152
v$ = 1160
?dtor$2@?0??PMC_BitwiseOr_X_L_Imp@Internal@Core@Math@Palmtree@@YAPEAU__tag_NUMBER_HEADER@1234@PEAU51234@_K@Z@4HA PROC ; `Palmtree::Math::Core::Internal::PMC_BitwiseOr_X_L_Imp'::`1'::dtor$2
  00000	48 89 4c 24 08	 mov	 QWORD PTR [rsp+8], rcx
  00005	48 89 54 24 10	 mov	 QWORD PTR [rsp+16], rdx
  0000a	55		 push	 rbp
  0000b	57		 push	 rdi
  0000c	48 83 ec 28	 sub	 rsp, 40			; 00000028H
  00010	48 8d 6a 30	 lea	 rbp, QWORD PTR [rdx+48]
  00014	48 8d 8d a8 01
	00 00		 lea	 rcx, QWORD PTR root$18[rbp]
  0001b	e8 00 00 00 00	 call	 ??1ResourceHolderUINT@Internal@Core@Math@Palmtree@@UEAA@XZ ; Palmtree::Math::Core::Internal::ResourceHolderUINT::~ResourceHolderUINT
  00020	48 83 c4 28	 add	 rsp, 40			; 00000028H
  00024	5f		 pop	 rdi
  00025	5d		 pop	 rbp
  00026	c3		 ret	 0
?dtor$2@?0??PMC_BitwiseOr_X_L_Imp@Internal@Core@Math@Palmtree@@YAPEAU__tag_NUMBER_HEADER@1234@PEAU51234@_K@Z@4HA ENDP ; `Palmtree::Math::Core::Internal::PMC_BitwiseOr_X_L_Imp'::`1'::dtor$2
text$x	ENDS
; Function compile flags: /Odtp /RTCsu /ZI
;	COMDAT text$x
text$x	SEGMENT
u_bit_count$7 = 8
v_hi$8 = 36
v_lo$9 = 68
root$10 = 104
v_bit_count$11 = 168
w_bit_count$12 = 200
w$13 = 232
root$14 = 264
v_bit_count$15 = 328
w_bit_count$16 = 360
w$17 = 392
root$18 = 424
u_bit_count$19 = 488
v_bit_count$20 = 520
w_bit_count$21 = 552
w$22 = 584
$T23 = 1000
$T24 = 1032
$T25 = 1064
$T26 = 1096
u$ = 1152
v$ = 1160
?dtor$0@?0??PMC_BitwiseOr_X_L_Imp@Internal@Core@Math@Palmtree@@YAPEAU__tag_NUMBER_HEADER@1234@PEAU51234@_K@Z@4HA PROC ; `Palmtree::Math::Core::Internal::PMC_BitwiseOr_X_L_Imp'::`1'::dtor$0
  00000	48 89 4c 24 08	 mov	 QWORD PTR [rsp+8], rcx
  00005	48 89 54 24 10	 mov	 QWORD PTR [rsp+16], rdx
  0000a	55		 push	 rbp
  0000b	57		 push	 rdi
  0000c	48 83 ec 28	 sub	 rsp, 40			; 00000028H
  00010	48 8d 6a 30	 lea	 rbp, QWORD PTR [rdx+48]
  00014	48 8d 4d 68	 lea	 rcx, QWORD PTR root$10[rbp]
  00018	e8 00 00 00 00	 call	 ??1ResourceHolderUINT@Internal@Core@Math@Palmtree@@UEAA@XZ ; Palmtree::Math::Core::Internal::ResourceHolderUINT::~ResourceHolderUINT
  0001d	48 83 c4 28	 add	 rsp, 40			; 00000028H
  00021	5f		 pop	 rdi
  00022	5d		 pop	 rbp
  00023	c3		 ret	 0
?dtor$0@?0??PMC_BitwiseOr_X_L_Imp@Internal@Core@Math@Palmtree@@YAPEAU__tag_NUMBER_HEADER@1234@PEAU51234@_K@Z@4HA ENDP ; `Palmtree::Math::Core::Internal::PMC_BitwiseOr_X_L_Imp'::`1'::dtor$0
text$x	ENDS
; Function compile flags: /Odtp /RTCsu /ZI
;	COMDAT text$x
text$x	SEGMENT
u_bit_count$7 = 8
v_hi$8 = 36
v_lo$9 = 68
root$10 = 104
v_bit_count$11 = 168
w_bit_count$12 = 200
w$13 = 232
root$14 = 264
v_bit_count$15 = 328
w_bit_count$16 = 360
w$17 = 392
root$18 = 424
u_bit_count$19 = 488
v_bit_count$20 = 520
w_bit_count$21 = 552
w$22 = 584
$T23 = 1000
$T24 = 1032
$T25 = 1064
$T26 = 1096
u$ = 1152
v$ = 1160
?dtor$1@?0??PMC_BitwiseOr_X_L_Imp@Internal@Core@Math@Palmtree@@YAPEAU__tag_NUMBER_HEADER@1234@PEAU51234@_K@Z@4HA PROC ; `Palmtree::Math::Core::Internal::PMC_BitwiseOr_X_L_Imp'::`1'::dtor$1
  00000	48 89 4c 24 08	 mov	 QWORD PTR [rsp+8], rcx
  00005	48 89 54 24 10	 mov	 QWORD PTR [rsp+16], rdx
  0000a	55		 push	 rbp
  0000b	57		 push	 rdi
  0000c	48 83 ec 28	 sub	 rsp, 40			; 00000028H
  00010	48 8d 6a 30	 lea	 rbp, QWORD PTR [rdx+48]
  00014	48 8d 8d 08 01
	00 00		 lea	 rcx, QWORD PTR root$14[rbp]
  0001b	e8 00 00 00 00	 call	 ??1ResourceHolderUINT@Internal@Core@Math@Palmtree@@UEAA@XZ ; Palmtree::Math::Core::Internal::ResourceHolderUINT::~ResourceHolderUINT
  00020	48 83 c4 28	 add	 rsp, 40			; 00000028H
  00024	5f		 pop	 rdi
  00025	5d		 pop	 rbp
  00026	c3		 ret	 0
?dtor$1@?0??PMC_BitwiseOr_X_L_Imp@Internal@Core@Math@Palmtree@@YAPEAU__tag_NUMBER_HEADER@1234@PEAU51234@_K@Z@4HA ENDP ; `Palmtree::Math::Core::Internal::PMC_BitwiseOr_X_L_Imp'::`1'::dtor$1
text$x	ENDS
; Function compile flags: /Odtp /RTCsu /ZI
;	COMDAT text$x
text$x	SEGMENT
u_bit_count$7 = 8
v_hi$8 = 36
v_lo$9 = 68
root$10 = 104
v_bit_count$11 = 168
w_bit_count$12 = 200
w$13 = 232
root$14 = 264
v_bit_count$15 = 328
w_bit_count$16 = 360
w$17 = 392
root$18 = 424
u_bit_count$19 = 488
v_bit_count$20 = 520
w_bit_count$21 = 552
w$22 = 584
$T23 = 1000
$T24 = 1032
$T25 = 1064
$T26 = 1096
u$ = 1152
v$ = 1160
?dtor$2@?0??PMC_BitwiseOr_X_L_Imp@Internal@Core@Math@Palmtree@@YAPEAU__tag_NUMBER_HEADER@1234@PEAU51234@_K@Z@4HA PROC ; `Palmtree::Math::Core::Internal::PMC_BitwiseOr_X_L_Imp'::`1'::dtor$2
  00000	48 89 4c 24 08	 mov	 QWORD PTR [rsp+8], rcx
  00005	48 89 54 24 10	 mov	 QWORD PTR [rsp+16], rdx
  0000a	55		 push	 rbp
  0000b	57		 push	 rdi
  0000c	48 83 ec 28	 sub	 rsp, 40			; 00000028H
  00010	48 8d 6a 30	 lea	 rbp, QWORD PTR [rdx+48]
  00014	48 8d 8d a8 01
	00 00		 lea	 rcx, QWORD PTR root$18[rbp]
  0001b	e8 00 00 00 00	 call	 ??1ResourceHolderUINT@Internal@Core@Math@Palmtree@@UEAA@XZ ; Palmtree::Math::Core::Internal::ResourceHolderUINT::~ResourceHolderUINT
  00020	48 83 c4 28	 add	 rsp, 40			; 00000028H
  00024	5f		 pop	 rdi
  00025	5d		 pop	 rbp
  00026	c3		 ret	 0
?dtor$2@?0??PMC_BitwiseOr_X_L_Imp@Internal@Core@Math@Palmtree@@YAPEAU__tag_NUMBER_HEADER@1234@PEAU51234@_K@Z@4HA ENDP ; `Palmtree::Math::Core::Internal::PMC_BitwiseOr_X_L_Imp'::`1'::dtor$2
text$x	ENDS
; Function compile flags: /Odtp /RTCsu /ZI
; File z:\sources\lunor\repos\rougemeilland\palmtree.math.core.uint\palmtree.math.core.uint\pmc_bitwiseor.cpp
;	COMDAT ?PMC_BitwiseOr_X_I_Imp@Internal@Core@Math@Palmtree@@YAPEAU__tag_NUMBER_HEADER@1234@PEAU51234@I@Z
_TEXT	SEGMENT
root$4 = 8
u_bit_count$5 = 72
v_bit_count$6 = 104
w_bit_count$7 = 136
w$8 = 168
$T9 = 392
$T10 = 424
u$ = 480
v$ = 488
?PMC_BitwiseOr_X_I_Imp@Internal@Core@Math@Palmtree@@YAPEAU__tag_NUMBER_HEADER@1234@PEAU51234@I@Z PROC ; Palmtree::Math::Core::Internal::PMC_BitwiseOr_X_I_Imp, COMDAT

; 186  :     {

  00000	89 54 24 10	 mov	 DWORD PTR [rsp+16], edx
  00004	48 89 4c 24 08	 mov	 QWORD PTR [rsp+8], rcx
  00009	55		 push	 rbp
  0000a	57		 push	 rdi
  0000b	48 81 ec e8 01
	00 00		 sub	 rsp, 488		; 000001e8H
  00012	48 8d 6c 24 20	 lea	 rbp, QWORD PTR [rsp+32]
  00017	48 8b fc	 mov	 rdi, rsp
  0001a	b9 7a 00 00 00	 mov	 ecx, 122		; 0000007aH
  0001f	b8 cc cc cc cc	 mov	 eax, -858993460		; ccccccccH
  00024	f3 ab		 rep stosd
  00026	48 8b 8c 24 08
	02 00 00	 mov	 rcx, QWORD PTR [rsp+520]
  0002e	48 c7 85 a8 01
	00 00 fe ff ff
	ff		 mov	 QWORD PTR $T10[rbp], -2
  00039	48 8d 0d 00 00
	00 00		 lea	 rcx, OFFSET FLAT:__D969B5A7_pmc_bitwiseor@cpp
  00040	e8 00 00 00 00	 call	 __CheckForDebuggerJustMyCode

; 187  :         if (u->IS_ZERO)

  00045	48 8b 85 e0 01
	00 00		 mov	 rax, QWORD PTR u$[rbp]
  0004c	8b 40 08	 mov	 eax, DWORD PTR [rax+8]
  0004f	83 e0 01	 and	 eax, 1
  00052	85 c0		 test	 eax, eax
  00054	74 2c		 je	 SHORT $LN2@PMC_Bitwis

; 188  :         {
; 189  :             // u  0 
; 190  :             if (v == 0)

  00056	83 bd e8 01 00
	00 00		 cmp	 DWORD PTR v$[rbp], 0
  0005d	75 0e		 jne	 SHORT $LN4@PMC_Bitwis

; 191  :             {
; 192  :                 // v  0 
; 193  :                 return (&number_zero);

  0005f	48 8d 05 00 00
	00 00		 lea	 rax, OFFSET FLAT:?number_zero@Internal@Core@Math@Palmtree@@3U__tag_NUMBER_HEADER@1234@A ; Palmtree::Math::Core::Internal::number_zero
  00066	e9 12 01 00 00	 jmp	 $LN1@PMC_Bitwis

; 194  :             }
; 195  :             else

  0006b	eb 10		 jmp	 SHORT $LN5@PMC_Bitwis
$LN4@PMC_Bitwis:

; 196  :             {
; 197  :                 // v  0 
; 198  :                 return (From_I_Imp(v));

  0006d	8b 8d e8 01 00
	00		 mov	 ecx, DWORD PTR v$[rbp]
  00073	e8 00 00 00 00	 call	 ?From_I_Imp@Internal@Core@Math@Palmtree@@YAPEAU__tag_NUMBER_HEADER@1234@I@Z ; Palmtree::Math::Core::Internal::From_I_Imp
  00078	e9 00 01 00 00	 jmp	 $LN1@PMC_Bitwis
$LN5@PMC_Bitwis:

; 199  :             }

  0007d	e9 fb 00 00 00	 jmp	 $LN1@PMC_Bitwis
$LN2@PMC_Bitwis:

; 200  :         }
; 201  :         else if (v == 0)

  00082	83 bd e8 01 00
	00 00		 cmp	 DWORD PTR v$[rbp], 0
  00089	75 16		 jne	 SHORT $LN6@PMC_Bitwis

; 202  :         {
; 203  :             // v  0 
; 204  :             return (DuplicateNumber(u));

  0008b	48 8b 8d e0 01
	00 00		 mov	 rcx, QWORD PTR u$[rbp]
  00092	e8 00 00 00 00	 call	 ?DuplicateNumber@Internal@Core@Math@Palmtree@@YAPEAU__tag_NUMBER_HEADER@1234@PEAU51234@@Z ; Palmtree::Math::Core::Internal::DuplicateNumber
  00097	e9 e1 00 00 00	 jmp	 $LN1@PMC_Bitwis

; 205  :         }
; 206  :         else

  0009c	e9 dc 00 00 00	 jmp	 $LN1@PMC_Bitwis
$LN6@PMC_Bitwis:

; 207  :         {
; 208  :             // u  v  0 
; 209  :             ResourceHolderUINT root;

  000a1	48 8d 4d 08	 lea	 rcx, QWORD PTR root$4[rbp]
  000a5	e8 00 00 00 00	 call	 ??0ResourceHolderUINT@Internal@Core@Math@Palmtree@@QEAA@XZ ; Palmtree::Math::Core::Internal::ResourceHolderUINT::ResourceHolderUINT
  000aa	90		 npad	 1

; 210  :             __UNIT_TYPE u_bit_count = u->UNIT_BIT_COUNT;

  000ab	48 8b 85 e0 01
	00 00		 mov	 rax, QWORD PTR u$[rbp]
  000b2	48 8b 40 20	 mov	 rax, QWORD PTR [rax+32]
  000b6	48 89 45 48	 mov	 QWORD PTR u_bit_count$5[rbp], rax

; 211  :             __UNIT_TYPE v_bit_count = sizeof(v) * 8 - _LZCNT_ALT_32(v);

  000ba	8b 8d e8 01 00
	00		 mov	 ecx, DWORD PTR v$[rbp]
  000c0	e8 00 00 00 00	 call	 _LZCNT_ALT_32
  000c5	48 98		 cdqe
  000c7	b9 20 00 00 00	 mov	 ecx, 32			; 00000020H
  000cc	48 2b c8	 sub	 rcx, rax
  000cf	48 8b c1	 mov	 rax, rcx
  000d2	48 89 45 68	 mov	 QWORD PTR v_bit_count$6[rbp], rax

; 212  :             __UNIT_TYPE w_bit_count = _MAXIMUM_UNIT(u_bit_count, v_bit_count) + 1;

  000d6	48 8b 55 68	 mov	 rdx, QWORD PTR v_bit_count$6[rbp]
  000da	48 8b 4d 48	 mov	 rcx, QWORD PTR u_bit_count$5[rbp]
  000de	e8 00 00 00 00	 call	 _MAXIMUM_UNIT
  000e3	48 ff c0	 inc	 rax
  000e6	48 89 85 88 00
	00 00		 mov	 QWORD PTR w_bit_count$7[rbp], rax

; 213  :             NUMBER_HEADER* w = root.AllocateNumber(w_bit_count);

  000ed	48 8b 95 88 00
	00 00		 mov	 rdx, QWORD PTR w_bit_count$7[rbp]
  000f4	48 8d 4d 08	 lea	 rcx, QWORD PTR root$4[rbp]
  000f8	e8 00 00 00 00	 call	 ?AllocateNumber@ResourceHolderUINT@Internal@Core@Math@Palmtree@@QEAAPEAU__tag_NUMBER_HEADER@2345@_K@Z ; Palmtree::Math::Core::Internal::ResourceHolderUINT::AllocateNumber
  000fd	48 89 85 a8 00
	00 00		 mov	 QWORD PTR w$8[rbp], rax

; 214  :             BitwiseOr_X_1W(u->BLOCK, u->UNIT_WORD_COUNT, v, w->BLOCK);

  00104	8b 85 e8 01 00
	00		 mov	 eax, DWORD PTR v$[rbp]
  0010a	48 8b 8d a8 00
	00 00		 mov	 rcx, QWORD PTR w$8[rbp]
  00111	4c 8b 49 40	 mov	 r9, QWORD PTR [rcx+64]
  00115	44 8b c0	 mov	 r8d, eax
  00118	48 8b 85 e0 01
	00 00		 mov	 rax, QWORD PTR u$[rbp]
  0011f	48 8b 50 18	 mov	 rdx, QWORD PTR [rax+24]
  00123	48 8b 85 e0 01
	00 00		 mov	 rax, QWORD PTR u$[rbp]
  0012a	48 8b 48 40	 mov	 rcx, QWORD PTR [rax+64]
  0012e	e8 00 00 00 00	 call	 ?BitwiseOr_X_1W@Internal@Core@Math@Palmtree@@YAXPEA_K_K10@Z ; Palmtree::Math::Core::Internal::BitwiseOr_X_1W

; 215  :             root.CheckNumber(w);

  00133	48 8b 95 a8 00
	00 00		 mov	 rdx, QWORD PTR w$8[rbp]
  0013a	48 8d 4d 08	 lea	 rcx, QWORD PTR root$4[rbp]
  0013e	e8 00 00 00 00	 call	 ?CheckNumber@ResourceHolderUINT@Internal@Core@Math@Palmtree@@QEAAXPEAU__tag_NUMBER_HEADER@2345@@Z ; Palmtree::Math::Core::Internal::ResourceHolderUINT::CheckNumber

; 216  :             CommitNumber(w);

  00143	48 8b 8d a8 00
	00 00		 mov	 rcx, QWORD PTR w$8[rbp]
  0014a	e8 00 00 00 00	 call	 ?CommitNumber@Internal@Core@Math@Palmtree@@YAXPEAU__tag_NUMBER_HEADER@1234@@Z ; Palmtree::Math::Core::Internal::CommitNumber

; 217  :             root.UnlinkNumber(w);

  0014f	48 8b 95 a8 00
	00 00		 mov	 rdx, QWORD PTR w$8[rbp]
  00156	48 8d 4d 08	 lea	 rcx, QWORD PTR root$4[rbp]
  0015a	e8 00 00 00 00	 call	 ?UnlinkNumber@ResourceHolderUINT@Internal@Core@Math@Palmtree@@QEAAXPEAU__tag_NUMBER_HEADER@2345@@Z ; Palmtree::Math::Core::Internal::ResourceHolderUINT::UnlinkNumber

; 218  :             return (w);

  0015f	48 8b 85 a8 00
	00 00		 mov	 rax, QWORD PTR w$8[rbp]
  00166	48 89 85 88 01
	00 00		 mov	 QWORD PTR $T9[rbp], rax
  0016d	48 8d 4d 08	 lea	 rcx, QWORD PTR root$4[rbp]
  00171	e8 00 00 00 00	 call	 ??1ResourceHolderUINT@Internal@Core@Math@Palmtree@@UEAA@XZ ; Palmtree::Math::Core::Internal::ResourceHolderUINT::~ResourceHolderUINT
  00176	48 8b 85 88 01
	00 00		 mov	 rax, QWORD PTR $T9[rbp]
$LN1@PMC_Bitwis:

; 219  :         }
; 220  :     }

  0017d	48 8b f8	 mov	 rdi, rax
  00180	48 8d 4d e0	 lea	 rcx, QWORD PTR [rbp-32]
  00184	48 8d 15 00 00
	00 00		 lea	 rdx, OFFSET FLAT:?PMC_BitwiseOr_X_I_Imp@Internal@Core@Math@Palmtree@@YAPEAU__tag_NUMBER_HEADER@1234@PEAU51234@I@Z$rtcFrameData
  0018b	e8 00 00 00 00	 call	 _RTC_CheckStackVars
  00190	48 8b c7	 mov	 rax, rdi
  00193	48 8d a5 c8 01
	00 00		 lea	 rsp, QWORD PTR [rbp+456]
  0019a	5f		 pop	 rdi
  0019b	5d		 pop	 rbp
  0019c	c3		 ret	 0
?PMC_BitwiseOr_X_I_Imp@Internal@Core@Math@Palmtree@@YAPEAU__tag_NUMBER_HEADER@1234@PEAU51234@I@Z ENDP ; Palmtree::Math::Core::Internal::PMC_BitwiseOr_X_I_Imp
_TEXT	ENDS
;	COMDAT text$x
text$x	SEGMENT
root$4 = 8
u_bit_count$5 = 72
v_bit_count$6 = 104
w_bit_count$7 = 136
w$8 = 168
$T9 = 392
$T10 = 424
u$ = 480
v$ = 488
?dtor$0@?0??PMC_BitwiseOr_X_I_Imp@Internal@Core@Math@Palmtree@@YAPEAU__tag_NUMBER_HEADER@1234@PEAU51234@I@Z@4HA PROC ; `Palmtree::Math::Core::Internal::PMC_BitwiseOr_X_I_Imp'::`1'::dtor$0
  00000	48 89 4c 24 08	 mov	 QWORD PTR [rsp+8], rcx
  00005	48 89 54 24 10	 mov	 QWORD PTR [rsp+16], rdx
  0000a	55		 push	 rbp
  0000b	57		 push	 rdi
  0000c	48 83 ec 28	 sub	 rsp, 40			; 00000028H
  00010	48 8d 6a 20	 lea	 rbp, QWORD PTR [rdx+32]
  00014	48 8d 4d 08	 lea	 rcx, QWORD PTR root$4[rbp]
  00018	e8 00 00 00 00	 call	 ??1ResourceHolderUINT@Internal@Core@Math@Palmtree@@UEAA@XZ ; Palmtree::Math::Core::Internal::ResourceHolderUINT::~ResourceHolderUINT
  0001d	48 83 c4 28	 add	 rsp, 40			; 00000028H
  00021	5f		 pop	 rdi
  00022	5d		 pop	 rbp
  00023	c3		 ret	 0
?dtor$0@?0??PMC_BitwiseOr_X_I_Imp@Internal@Core@Math@Palmtree@@YAPEAU__tag_NUMBER_HEADER@1234@PEAU51234@I@Z@4HA ENDP ; `Palmtree::Math::Core::Internal::PMC_BitwiseOr_X_I_Imp'::`1'::dtor$0
text$x	ENDS
; Function compile flags: /Odtp /RTCsu /ZI
;	COMDAT text$x
text$x	SEGMENT
root$4 = 8
u_bit_count$5 = 72
v_bit_count$6 = 104
w_bit_count$7 = 136
w$8 = 168
$T9 = 392
$T10 = 424
u$ = 480
v$ = 488
?dtor$0@?0??PMC_BitwiseOr_X_I_Imp@Internal@Core@Math@Palmtree@@YAPEAU__tag_NUMBER_HEADER@1234@PEAU51234@I@Z@4HA PROC ; `Palmtree::Math::Core::Internal::PMC_BitwiseOr_X_I_Imp'::`1'::dtor$0
  00000	48 89 4c 24 08	 mov	 QWORD PTR [rsp+8], rcx
  00005	48 89 54 24 10	 mov	 QWORD PTR [rsp+16], rdx
  0000a	55		 push	 rbp
  0000b	57		 push	 rdi
  0000c	48 83 ec 28	 sub	 rsp, 40			; 00000028H
  00010	48 8d 6a 20	 lea	 rbp, QWORD PTR [rdx+32]
  00014	48 8d 4d 08	 lea	 rcx, QWORD PTR root$4[rbp]
  00018	e8 00 00 00 00	 call	 ??1ResourceHolderUINT@Internal@Core@Math@Palmtree@@UEAA@XZ ; Palmtree::Math::Core::Internal::ResourceHolderUINT::~ResourceHolderUINT
  0001d	48 83 c4 28	 add	 rsp, 40			; 00000028H
  00021	5f		 pop	 rdi
  00022	5d		 pop	 rbp
  00023	c3		 ret	 0
?dtor$0@?0??PMC_BitwiseOr_X_I_Imp@Internal@Core@Math@Palmtree@@YAPEAU__tag_NUMBER_HEADER@1234@PEAU51234@I@Z@4HA ENDP ; `Palmtree::Math::Core::Internal::PMC_BitwiseOr_X_I_Imp'::`1'::dtor$0
text$x	ENDS
; Function compile flags: /Odtp /RTCsu /ZI
; File z:\sources\lunor\repos\rougemeilland\palmtree.math.core.uint\palmtree.math.core.uint\pmc_bitwiseor.cpp
;	COMDAT ?BitwiseOr_X_X@Internal@Core@Math@Palmtree@@YAXPEA_K_K010@Z
_TEXT	SEGMENT
or_count$ = 8
cp_count$ = 40
count$ = 72
u$ = 320
u_count$ = 328
v$ = 336
v_count$ = 344
w$ = 352
?BitwiseOr_X_X@Internal@Core@Math@Palmtree@@YAXPEA_K_K010@Z PROC ; Palmtree::Math::Core::Internal::BitwiseOr_X_X, COMDAT

; 71   :     {

  00000	4c 89 4c 24 20	 mov	 QWORD PTR [rsp+32], r9
  00005	4c 89 44 24 18	 mov	 QWORD PTR [rsp+24], r8
  0000a	48 89 54 24 10	 mov	 QWORD PTR [rsp+16], rdx
  0000f	48 89 4c 24 08	 mov	 QWORD PTR [rsp+8], rcx
  00014	55		 push	 rbp
  00015	57		 push	 rdi
  00016	48 81 ec 48 01
	00 00		 sub	 rsp, 328		; 00000148H
  0001d	48 8d 6c 24 20	 lea	 rbp, QWORD PTR [rsp+32]
  00022	48 8b fc	 mov	 rdi, rsp
  00025	b9 52 00 00 00	 mov	 ecx, 82			; 00000052H
  0002a	b8 cc cc cc cc	 mov	 eax, -858993460		; ccccccccH
  0002f	f3 ab		 rep stosd
  00031	48 8b 8c 24 68
	01 00 00	 mov	 rcx, QWORD PTR [rsp+360]
  00039	48 8d 0d 00 00
	00 00		 lea	 rcx, OFFSET FLAT:__D969B5A7_pmc_bitwiseor@cpp
  00040	e8 00 00 00 00	 call	 __CheckForDebuggerJustMyCode

; 72   :         __UNIT_TYPE or_count = v_count;

  00045	48 8b 85 58 01
	00 00		 mov	 rax, QWORD PTR v_count$[rbp]
  0004c	48 89 45 08	 mov	 QWORD PTR or_count$[rbp], rax

; 73   :         __UNIT_TYPE cp_count = u_count - v_count;

  00050	48 8b 85 58 01
	00 00		 mov	 rax, QWORD PTR v_count$[rbp]
  00057	48 8b 8d 48 01
	00 00		 mov	 rcx, QWORD PTR u_count$[rbp]
  0005e	48 2b c8	 sub	 rcx, rax
  00061	48 8b c1	 mov	 rax, rcx
  00064	48 89 45 28	 mov	 QWORD PTR cp_count$[rbp], rax

; 74   : 
; 75   :         __UNIT_TYPE count = or_count >> 5;

  00068	48 8b 45 08	 mov	 rax, QWORD PTR or_count$[rbp]
  0006c	48 c1 e8 05	 shr	 rax, 5
  00070	48 89 45 48	 mov	 QWORD PTR count$[rbp], rax
$LN2@BitwiseOr_:

; 76   :         while (count > 0)

  00074	48 83 7d 48 00	 cmp	 QWORD PTR count$[rbp], 0
  00079	0f 86 2c 08 00
	00		 jbe	 $LN3@BitwiseOr_

; 77   :         {
; 78   :             w[0] = u[0] | v[0];

  0007f	b8 08 00 00 00	 mov	 eax, 8
  00084	48 6b c0 00	 imul	 rax, rax, 0
  00088	b9 08 00 00 00	 mov	 ecx, 8
  0008d	48 6b c9 00	 imul	 rcx, rcx, 0
  00091	48 8b 95 40 01
	00 00		 mov	 rdx, QWORD PTR u$[rbp]
  00098	4c 8b 85 50 01
	00 00		 mov	 r8, QWORD PTR v$[rbp]
  0009f	49 8b 0c 08	 mov	 rcx, QWORD PTR [r8+rcx]
  000a3	48 8b 04 02	 mov	 rax, QWORD PTR [rdx+rax]
  000a7	48 0b c1	 or	 rax, rcx
  000aa	b9 08 00 00 00	 mov	 ecx, 8
  000af	48 6b c9 00	 imul	 rcx, rcx, 0
  000b3	48 8b 95 60 01
	00 00		 mov	 rdx, QWORD PTR w$[rbp]
  000ba	48 89 04 0a	 mov	 QWORD PTR [rdx+rcx], rax

; 79   :             w[1] = u[1] | v[1];

  000be	b8 08 00 00 00	 mov	 eax, 8
  000c3	48 6b c0 01	 imul	 rax, rax, 1
  000c7	b9 08 00 00 00	 mov	 ecx, 8
  000cc	48 6b c9 01	 imul	 rcx, rcx, 1
  000d0	48 8b 95 40 01
	00 00		 mov	 rdx, QWORD PTR u$[rbp]
  000d7	4c 8b 85 50 01
	00 00		 mov	 r8, QWORD PTR v$[rbp]
  000de	49 8b 0c 08	 mov	 rcx, QWORD PTR [r8+rcx]
  000e2	48 8b 04 02	 mov	 rax, QWORD PTR [rdx+rax]
  000e6	48 0b c1	 or	 rax, rcx
  000e9	b9 08 00 00 00	 mov	 ecx, 8
  000ee	48 6b c9 01	 imul	 rcx, rcx, 1
  000f2	48 8b 95 60 01
	00 00		 mov	 rdx, QWORD PTR w$[rbp]
  000f9	48 89 04 0a	 mov	 QWORD PTR [rdx+rcx], rax

; 80   :             w[2] = u[2] | v[2];

  000fd	b8 08 00 00 00	 mov	 eax, 8
  00102	48 6b c0 02	 imul	 rax, rax, 2
  00106	b9 08 00 00 00	 mov	 ecx, 8
  0010b	48 6b c9 02	 imul	 rcx, rcx, 2
  0010f	48 8b 95 40 01
	00 00		 mov	 rdx, QWORD PTR u$[rbp]
  00116	4c 8b 85 50 01
	00 00		 mov	 r8, QWORD PTR v$[rbp]
  0011d	49 8b 0c 08	 mov	 rcx, QWORD PTR [r8+rcx]
  00121	48 8b 04 02	 mov	 rax, QWORD PTR [rdx+rax]
  00125	48 0b c1	 or	 rax, rcx
  00128	b9 08 00 00 00	 mov	 ecx, 8
  0012d	48 6b c9 02	 imul	 rcx, rcx, 2
  00131	48 8b 95 60 01
	00 00		 mov	 rdx, QWORD PTR w$[rbp]
  00138	48 89 04 0a	 mov	 QWORD PTR [rdx+rcx], rax

; 81   :             w[3] = u[3] | v[3];

  0013c	b8 08 00 00 00	 mov	 eax, 8
  00141	48 6b c0 03	 imul	 rax, rax, 3
  00145	b9 08 00 00 00	 mov	 ecx, 8
  0014a	48 6b c9 03	 imul	 rcx, rcx, 3
  0014e	48 8b 95 40 01
	00 00		 mov	 rdx, QWORD PTR u$[rbp]
  00155	4c 8b 85 50 01
	00 00		 mov	 r8, QWORD PTR v$[rbp]
  0015c	49 8b 0c 08	 mov	 rcx, QWORD PTR [r8+rcx]
  00160	48 8b 04 02	 mov	 rax, QWORD PTR [rdx+rax]
  00164	48 0b c1	 or	 rax, rcx
  00167	b9 08 00 00 00	 mov	 ecx, 8
  0016c	48 6b c9 03	 imul	 rcx, rcx, 3
  00170	48 8b 95 60 01
	00 00		 mov	 rdx, QWORD PTR w$[rbp]
  00177	48 89 04 0a	 mov	 QWORD PTR [rdx+rcx], rax

; 82   :             w[4] = u[4] | v[4];

  0017b	b8 08 00 00 00	 mov	 eax, 8
  00180	48 6b c0 04	 imul	 rax, rax, 4
  00184	b9 08 00 00 00	 mov	 ecx, 8
  00189	48 6b c9 04	 imul	 rcx, rcx, 4
  0018d	48 8b 95 40 01
	00 00		 mov	 rdx, QWORD PTR u$[rbp]
  00194	4c 8b 85 50 01
	00 00		 mov	 r8, QWORD PTR v$[rbp]
  0019b	49 8b 0c 08	 mov	 rcx, QWORD PTR [r8+rcx]
  0019f	48 8b 04 02	 mov	 rax, QWORD PTR [rdx+rax]
  001a3	48 0b c1	 or	 rax, rcx
  001a6	b9 08 00 00 00	 mov	 ecx, 8
  001ab	48 6b c9 04	 imul	 rcx, rcx, 4
  001af	48 8b 95 60 01
	00 00		 mov	 rdx, QWORD PTR w$[rbp]
  001b6	48 89 04 0a	 mov	 QWORD PTR [rdx+rcx], rax

; 83   :             w[5] = u[5] | v[5];

  001ba	b8 08 00 00 00	 mov	 eax, 8
  001bf	48 6b c0 05	 imul	 rax, rax, 5
  001c3	b9 08 00 00 00	 mov	 ecx, 8
  001c8	48 6b c9 05	 imul	 rcx, rcx, 5
  001cc	48 8b 95 40 01
	00 00		 mov	 rdx, QWORD PTR u$[rbp]
  001d3	4c 8b 85 50 01
	00 00		 mov	 r8, QWORD PTR v$[rbp]
  001da	49 8b 0c 08	 mov	 rcx, QWORD PTR [r8+rcx]
  001de	48 8b 04 02	 mov	 rax, QWORD PTR [rdx+rax]
  001e2	48 0b c1	 or	 rax, rcx
  001e5	b9 08 00 00 00	 mov	 ecx, 8
  001ea	48 6b c9 05	 imul	 rcx, rcx, 5
  001ee	48 8b 95 60 01
	00 00		 mov	 rdx, QWORD PTR w$[rbp]
  001f5	48 89 04 0a	 mov	 QWORD PTR [rdx+rcx], rax

; 84   :             w[6] = u[6] | v[6];

  001f9	b8 08 00 00 00	 mov	 eax, 8
  001fe	48 6b c0 06	 imul	 rax, rax, 6
  00202	b9 08 00 00 00	 mov	 ecx, 8
  00207	48 6b c9 06	 imul	 rcx, rcx, 6
  0020b	48 8b 95 40 01
	00 00		 mov	 rdx, QWORD PTR u$[rbp]
  00212	4c 8b 85 50 01
	00 00		 mov	 r8, QWORD PTR v$[rbp]
  00219	49 8b 0c 08	 mov	 rcx, QWORD PTR [r8+rcx]
  0021d	48 8b 04 02	 mov	 rax, QWORD PTR [rdx+rax]
  00221	48 0b c1	 or	 rax, rcx
  00224	b9 08 00 00 00	 mov	 ecx, 8
  00229	48 6b c9 06	 imul	 rcx, rcx, 6
  0022d	48 8b 95 60 01
	00 00		 mov	 rdx, QWORD PTR w$[rbp]
  00234	48 89 04 0a	 mov	 QWORD PTR [rdx+rcx], rax

; 85   :             w[7] = u[7] | v[7];

  00238	b8 08 00 00 00	 mov	 eax, 8
  0023d	48 6b c0 07	 imul	 rax, rax, 7
  00241	b9 08 00 00 00	 mov	 ecx, 8
  00246	48 6b c9 07	 imul	 rcx, rcx, 7
  0024a	48 8b 95 40 01
	00 00		 mov	 rdx, QWORD PTR u$[rbp]
  00251	4c 8b 85 50 01
	00 00		 mov	 r8, QWORD PTR v$[rbp]
  00258	49 8b 0c 08	 mov	 rcx, QWORD PTR [r8+rcx]
  0025c	48 8b 04 02	 mov	 rax, QWORD PTR [rdx+rax]
  00260	48 0b c1	 or	 rax, rcx
  00263	b9 08 00 00 00	 mov	 ecx, 8
  00268	48 6b c9 07	 imul	 rcx, rcx, 7
  0026c	48 8b 95 60 01
	00 00		 mov	 rdx, QWORD PTR w$[rbp]
  00273	48 89 04 0a	 mov	 QWORD PTR [rdx+rcx], rax

; 86   :             w[8] = u[8] | v[8];

  00277	b8 08 00 00 00	 mov	 eax, 8
  0027c	48 6b c0 08	 imul	 rax, rax, 8
  00280	b9 08 00 00 00	 mov	 ecx, 8
  00285	48 6b c9 08	 imul	 rcx, rcx, 8
  00289	48 8b 95 40 01
	00 00		 mov	 rdx, QWORD PTR u$[rbp]
  00290	4c 8b 85 50 01
	00 00		 mov	 r8, QWORD PTR v$[rbp]
  00297	49 8b 0c 08	 mov	 rcx, QWORD PTR [r8+rcx]
  0029b	48 8b 04 02	 mov	 rax, QWORD PTR [rdx+rax]
  0029f	48 0b c1	 or	 rax, rcx
  002a2	b9 08 00 00 00	 mov	 ecx, 8
  002a7	48 6b c9 08	 imul	 rcx, rcx, 8
  002ab	48 8b 95 60 01
	00 00		 mov	 rdx, QWORD PTR w$[rbp]
  002b2	48 89 04 0a	 mov	 QWORD PTR [rdx+rcx], rax

; 87   :             w[9] = u[9] | v[9];

  002b6	b8 08 00 00 00	 mov	 eax, 8
  002bb	48 6b c0 09	 imul	 rax, rax, 9
  002bf	b9 08 00 00 00	 mov	 ecx, 8
  002c4	48 6b c9 09	 imul	 rcx, rcx, 9
  002c8	48 8b 95 40 01
	00 00		 mov	 rdx, QWORD PTR u$[rbp]
  002cf	4c 8b 85 50 01
	00 00		 mov	 r8, QWORD PTR v$[rbp]
  002d6	49 8b 0c 08	 mov	 rcx, QWORD PTR [r8+rcx]
  002da	48 8b 04 02	 mov	 rax, QWORD PTR [rdx+rax]
  002de	48 0b c1	 or	 rax, rcx
  002e1	b9 08 00 00 00	 mov	 ecx, 8
  002e6	48 6b c9 09	 imul	 rcx, rcx, 9
  002ea	48 8b 95 60 01
	00 00		 mov	 rdx, QWORD PTR w$[rbp]
  002f1	48 89 04 0a	 mov	 QWORD PTR [rdx+rcx], rax

; 88   :             w[10] = u[10] | v[10];

  002f5	b8 08 00 00 00	 mov	 eax, 8
  002fa	48 6b c0 0a	 imul	 rax, rax, 10
  002fe	b9 08 00 00 00	 mov	 ecx, 8
  00303	48 6b c9 0a	 imul	 rcx, rcx, 10
  00307	48 8b 95 40 01
	00 00		 mov	 rdx, QWORD PTR u$[rbp]
  0030e	4c 8b 85 50 01
	00 00		 mov	 r8, QWORD PTR v$[rbp]
  00315	49 8b 0c 08	 mov	 rcx, QWORD PTR [r8+rcx]
  00319	48 8b 04 02	 mov	 rax, QWORD PTR [rdx+rax]
  0031d	48 0b c1	 or	 rax, rcx
  00320	b9 08 00 00 00	 mov	 ecx, 8
  00325	48 6b c9 0a	 imul	 rcx, rcx, 10
  00329	48 8b 95 60 01
	00 00		 mov	 rdx, QWORD PTR w$[rbp]
  00330	48 89 04 0a	 mov	 QWORD PTR [rdx+rcx], rax

; 89   :             w[11] = u[11] | v[11];

  00334	b8 08 00 00 00	 mov	 eax, 8
  00339	48 6b c0 0b	 imul	 rax, rax, 11
  0033d	b9 08 00 00 00	 mov	 ecx, 8
  00342	48 6b c9 0b	 imul	 rcx, rcx, 11
  00346	48 8b 95 40 01
	00 00		 mov	 rdx, QWORD PTR u$[rbp]
  0034d	4c 8b 85 50 01
	00 00		 mov	 r8, QWORD PTR v$[rbp]
  00354	49 8b 0c 08	 mov	 rcx, QWORD PTR [r8+rcx]
  00358	48 8b 04 02	 mov	 rax, QWORD PTR [rdx+rax]
  0035c	48 0b c1	 or	 rax, rcx
  0035f	b9 08 00 00 00	 mov	 ecx, 8
  00364	48 6b c9 0b	 imul	 rcx, rcx, 11
  00368	48 8b 95 60 01
	00 00		 mov	 rdx, QWORD PTR w$[rbp]
  0036f	48 89 04 0a	 mov	 QWORD PTR [rdx+rcx], rax

; 90   :             w[12] = u[12] | v[12];

  00373	b8 08 00 00 00	 mov	 eax, 8
  00378	48 6b c0 0c	 imul	 rax, rax, 12
  0037c	b9 08 00 00 00	 mov	 ecx, 8
  00381	48 6b c9 0c	 imul	 rcx, rcx, 12
  00385	48 8b 95 40 01
	00 00		 mov	 rdx, QWORD PTR u$[rbp]
  0038c	4c 8b 85 50 01
	00 00		 mov	 r8, QWORD PTR v$[rbp]
  00393	49 8b 0c 08	 mov	 rcx, QWORD PTR [r8+rcx]
  00397	48 8b 04 02	 mov	 rax, QWORD PTR [rdx+rax]
  0039b	48 0b c1	 or	 rax, rcx
  0039e	b9 08 00 00 00	 mov	 ecx, 8
  003a3	48 6b c9 0c	 imul	 rcx, rcx, 12
  003a7	48 8b 95 60 01
	00 00		 mov	 rdx, QWORD PTR w$[rbp]
  003ae	48 89 04 0a	 mov	 QWORD PTR [rdx+rcx], rax

; 91   :             w[13] = u[13] | v[13];

  003b2	b8 08 00 00 00	 mov	 eax, 8
  003b7	48 6b c0 0d	 imul	 rax, rax, 13
  003bb	b9 08 00 00 00	 mov	 ecx, 8
  003c0	48 6b c9 0d	 imul	 rcx, rcx, 13
  003c4	48 8b 95 40 01
	00 00		 mov	 rdx, QWORD PTR u$[rbp]
  003cb	4c 8b 85 50 01
	00 00		 mov	 r8, QWORD PTR v$[rbp]
  003d2	49 8b 0c 08	 mov	 rcx, QWORD PTR [r8+rcx]
  003d6	48 8b 04 02	 mov	 rax, QWORD PTR [rdx+rax]
  003da	48 0b c1	 or	 rax, rcx
  003dd	b9 08 00 00 00	 mov	 ecx, 8
  003e2	48 6b c9 0d	 imul	 rcx, rcx, 13
  003e6	48 8b 95 60 01
	00 00		 mov	 rdx, QWORD PTR w$[rbp]
  003ed	48 89 04 0a	 mov	 QWORD PTR [rdx+rcx], rax

; 92   :             w[14] = u[14] | v[14];

  003f1	b8 08 00 00 00	 mov	 eax, 8
  003f6	48 6b c0 0e	 imul	 rax, rax, 14
  003fa	b9 08 00 00 00	 mov	 ecx, 8
  003ff	48 6b c9 0e	 imul	 rcx, rcx, 14
  00403	48 8b 95 40 01
	00 00		 mov	 rdx, QWORD PTR u$[rbp]
  0040a	4c 8b 85 50 01
	00 00		 mov	 r8, QWORD PTR v$[rbp]
  00411	49 8b 0c 08	 mov	 rcx, QWORD PTR [r8+rcx]
  00415	48 8b 04 02	 mov	 rax, QWORD PTR [rdx+rax]
  00419	48 0b c1	 or	 rax, rcx
  0041c	b9 08 00 00 00	 mov	 ecx, 8
  00421	48 6b c9 0e	 imul	 rcx, rcx, 14
  00425	48 8b 95 60 01
	00 00		 mov	 rdx, QWORD PTR w$[rbp]
  0042c	48 89 04 0a	 mov	 QWORD PTR [rdx+rcx], rax

; 93   :             w[15] = u[15] | v[15];

  00430	b8 08 00 00 00	 mov	 eax, 8
  00435	48 6b c0 0f	 imul	 rax, rax, 15
  00439	b9 08 00 00 00	 mov	 ecx, 8
  0043e	48 6b c9 0f	 imul	 rcx, rcx, 15
  00442	48 8b 95 40 01
	00 00		 mov	 rdx, QWORD PTR u$[rbp]
  00449	4c 8b 85 50 01
	00 00		 mov	 r8, QWORD PTR v$[rbp]
  00450	49 8b 0c 08	 mov	 rcx, QWORD PTR [r8+rcx]
  00454	48 8b 04 02	 mov	 rax, QWORD PTR [rdx+rax]
  00458	48 0b c1	 or	 rax, rcx
  0045b	b9 08 00 00 00	 mov	 ecx, 8
  00460	48 6b c9 0f	 imul	 rcx, rcx, 15
  00464	48 8b 95 60 01
	00 00		 mov	 rdx, QWORD PTR w$[rbp]
  0046b	48 89 04 0a	 mov	 QWORD PTR [rdx+rcx], rax

; 94   :             w[16] = u[16] | v[16];

  0046f	b8 08 00 00 00	 mov	 eax, 8
  00474	48 6b c0 10	 imul	 rax, rax, 16
  00478	b9 08 00 00 00	 mov	 ecx, 8
  0047d	48 6b c9 10	 imul	 rcx, rcx, 16
  00481	48 8b 95 40 01
	00 00		 mov	 rdx, QWORD PTR u$[rbp]
  00488	4c 8b 85 50 01
	00 00		 mov	 r8, QWORD PTR v$[rbp]
  0048f	49 8b 0c 08	 mov	 rcx, QWORD PTR [r8+rcx]
  00493	48 8b 04 02	 mov	 rax, QWORD PTR [rdx+rax]
  00497	48 0b c1	 or	 rax, rcx
  0049a	b9 08 00 00 00	 mov	 ecx, 8
  0049f	48 6b c9 10	 imul	 rcx, rcx, 16
  004a3	48 8b 95 60 01
	00 00		 mov	 rdx, QWORD PTR w$[rbp]
  004aa	48 89 04 0a	 mov	 QWORD PTR [rdx+rcx], rax

; 95   :             w[17] = u[17] | v[17];

  004ae	b8 08 00 00 00	 mov	 eax, 8
  004b3	48 6b c0 11	 imul	 rax, rax, 17
  004b7	b9 08 00 00 00	 mov	 ecx, 8
  004bc	48 6b c9 11	 imul	 rcx, rcx, 17
  004c0	48 8b 95 40 01
	00 00		 mov	 rdx, QWORD PTR u$[rbp]
  004c7	4c 8b 85 50 01
	00 00		 mov	 r8, QWORD PTR v$[rbp]
  004ce	49 8b 0c 08	 mov	 rcx, QWORD PTR [r8+rcx]
  004d2	48 8b 04 02	 mov	 rax, QWORD PTR [rdx+rax]
  004d6	48 0b c1	 or	 rax, rcx
  004d9	b9 08 00 00 00	 mov	 ecx, 8
  004de	48 6b c9 11	 imul	 rcx, rcx, 17
  004e2	48 8b 95 60 01
	00 00		 mov	 rdx, QWORD PTR w$[rbp]
  004e9	48 89 04 0a	 mov	 QWORD PTR [rdx+rcx], rax

; 96   :             w[18] = u[18] | v[18];

  004ed	b8 08 00 00 00	 mov	 eax, 8
  004f2	48 6b c0 12	 imul	 rax, rax, 18
  004f6	b9 08 00 00 00	 mov	 ecx, 8
  004fb	48 6b c9 12	 imul	 rcx, rcx, 18
  004ff	48 8b 95 40 01
	00 00		 mov	 rdx, QWORD PTR u$[rbp]
  00506	4c 8b 85 50 01
	00 00		 mov	 r8, QWORD PTR v$[rbp]
  0050d	49 8b 0c 08	 mov	 rcx, QWORD PTR [r8+rcx]
  00511	48 8b 04 02	 mov	 rax, QWORD PTR [rdx+rax]
  00515	48 0b c1	 or	 rax, rcx
  00518	b9 08 00 00 00	 mov	 ecx, 8
  0051d	48 6b c9 12	 imul	 rcx, rcx, 18
  00521	48 8b 95 60 01
	00 00		 mov	 rdx, QWORD PTR w$[rbp]
  00528	48 89 04 0a	 mov	 QWORD PTR [rdx+rcx], rax

; 97   :             w[19] = u[19] | v[19];

  0052c	b8 08 00 00 00	 mov	 eax, 8
  00531	48 6b c0 13	 imul	 rax, rax, 19
  00535	b9 08 00 00 00	 mov	 ecx, 8
  0053a	48 6b c9 13	 imul	 rcx, rcx, 19
  0053e	48 8b 95 40 01
	00 00		 mov	 rdx, QWORD PTR u$[rbp]
  00545	4c 8b 85 50 01
	00 00		 mov	 r8, QWORD PTR v$[rbp]
  0054c	49 8b 0c 08	 mov	 rcx, QWORD PTR [r8+rcx]
  00550	48 8b 04 02	 mov	 rax, QWORD PTR [rdx+rax]
  00554	48 0b c1	 or	 rax, rcx
  00557	b9 08 00 00 00	 mov	 ecx, 8
  0055c	48 6b c9 13	 imul	 rcx, rcx, 19
  00560	48 8b 95 60 01
	00 00		 mov	 rdx, QWORD PTR w$[rbp]
  00567	48 89 04 0a	 mov	 QWORD PTR [rdx+rcx], rax

; 98   :             w[20] = u[20] | v[20];

  0056b	b8 08 00 00 00	 mov	 eax, 8
  00570	48 6b c0 14	 imul	 rax, rax, 20
  00574	b9 08 00 00 00	 mov	 ecx, 8
  00579	48 6b c9 14	 imul	 rcx, rcx, 20
  0057d	48 8b 95 40 01
	00 00		 mov	 rdx, QWORD PTR u$[rbp]
  00584	4c 8b 85 50 01
	00 00		 mov	 r8, QWORD PTR v$[rbp]
  0058b	49 8b 0c 08	 mov	 rcx, QWORD PTR [r8+rcx]
  0058f	48 8b 04 02	 mov	 rax, QWORD PTR [rdx+rax]
  00593	48 0b c1	 or	 rax, rcx
  00596	b9 08 00 00 00	 mov	 ecx, 8
  0059b	48 6b c9 14	 imul	 rcx, rcx, 20
  0059f	48 8b 95 60 01
	00 00		 mov	 rdx, QWORD PTR w$[rbp]
  005a6	48 89 04 0a	 mov	 QWORD PTR [rdx+rcx], rax

; 99   :             w[21] = u[21] | v[21];

  005aa	b8 08 00 00 00	 mov	 eax, 8
  005af	48 6b c0 15	 imul	 rax, rax, 21
  005b3	b9 08 00 00 00	 mov	 ecx, 8
  005b8	48 6b c9 15	 imul	 rcx, rcx, 21
  005bc	48 8b 95 40 01
	00 00		 mov	 rdx, QWORD PTR u$[rbp]
  005c3	4c 8b 85 50 01
	00 00		 mov	 r8, QWORD PTR v$[rbp]
  005ca	49 8b 0c 08	 mov	 rcx, QWORD PTR [r8+rcx]
  005ce	48 8b 04 02	 mov	 rax, QWORD PTR [rdx+rax]
  005d2	48 0b c1	 or	 rax, rcx
  005d5	b9 08 00 00 00	 mov	 ecx, 8
  005da	48 6b c9 15	 imul	 rcx, rcx, 21
  005de	48 8b 95 60 01
	00 00		 mov	 rdx, QWORD PTR w$[rbp]
  005e5	48 89 04 0a	 mov	 QWORD PTR [rdx+rcx], rax

; 100  :             w[22] = u[22] | v[22];

  005e9	b8 08 00 00 00	 mov	 eax, 8
  005ee	48 6b c0 16	 imul	 rax, rax, 22
  005f2	b9 08 00 00 00	 mov	 ecx, 8
  005f7	48 6b c9 16	 imul	 rcx, rcx, 22
  005fb	48 8b 95 40 01
	00 00		 mov	 rdx, QWORD PTR u$[rbp]
  00602	4c 8b 85 50 01
	00 00		 mov	 r8, QWORD PTR v$[rbp]
  00609	49 8b 0c 08	 mov	 rcx, QWORD PTR [r8+rcx]
  0060d	48 8b 04 02	 mov	 rax, QWORD PTR [rdx+rax]
  00611	48 0b c1	 or	 rax, rcx
  00614	b9 08 00 00 00	 mov	 ecx, 8
  00619	48 6b c9 16	 imul	 rcx, rcx, 22
  0061d	48 8b 95 60 01
	00 00		 mov	 rdx, QWORD PTR w$[rbp]
  00624	48 89 04 0a	 mov	 QWORD PTR [rdx+rcx], rax

; 101  :             w[23] = u[23] | v[23];

  00628	b8 08 00 00 00	 mov	 eax, 8
  0062d	48 6b c0 17	 imul	 rax, rax, 23
  00631	b9 08 00 00 00	 mov	 ecx, 8
  00636	48 6b c9 17	 imul	 rcx, rcx, 23
  0063a	48 8b 95 40 01
	00 00		 mov	 rdx, QWORD PTR u$[rbp]
  00641	4c 8b 85 50 01
	00 00		 mov	 r8, QWORD PTR v$[rbp]
  00648	49 8b 0c 08	 mov	 rcx, QWORD PTR [r8+rcx]
  0064c	48 8b 04 02	 mov	 rax, QWORD PTR [rdx+rax]
  00650	48 0b c1	 or	 rax, rcx
  00653	b9 08 00 00 00	 mov	 ecx, 8
  00658	48 6b c9 17	 imul	 rcx, rcx, 23
  0065c	48 8b 95 60 01
	00 00		 mov	 rdx, QWORD PTR w$[rbp]
  00663	48 89 04 0a	 mov	 QWORD PTR [rdx+rcx], rax

; 102  :             w[24] = u[24] | v[24];

  00667	b8 08 00 00 00	 mov	 eax, 8
  0066c	48 6b c0 18	 imul	 rax, rax, 24
  00670	b9 08 00 00 00	 mov	 ecx, 8
  00675	48 6b c9 18	 imul	 rcx, rcx, 24
  00679	48 8b 95 40 01
	00 00		 mov	 rdx, QWORD PTR u$[rbp]
  00680	4c 8b 85 50 01
	00 00		 mov	 r8, QWORD PTR v$[rbp]
  00687	49 8b 0c 08	 mov	 rcx, QWORD PTR [r8+rcx]
  0068b	48 8b 04 02	 mov	 rax, QWORD PTR [rdx+rax]
  0068f	48 0b c1	 or	 rax, rcx
  00692	b9 08 00 00 00	 mov	 ecx, 8
  00697	48 6b c9 18	 imul	 rcx, rcx, 24
  0069b	48 8b 95 60 01
	00 00		 mov	 rdx, QWORD PTR w$[rbp]
  006a2	48 89 04 0a	 mov	 QWORD PTR [rdx+rcx], rax

; 103  :             w[25] = u[25] | v[25];

  006a6	b8 08 00 00 00	 mov	 eax, 8
  006ab	48 6b c0 19	 imul	 rax, rax, 25
  006af	b9 08 00 00 00	 mov	 ecx, 8
  006b4	48 6b c9 19	 imul	 rcx, rcx, 25
  006b8	48 8b 95 40 01
	00 00		 mov	 rdx, QWORD PTR u$[rbp]
  006bf	4c 8b 85 50 01
	00 00		 mov	 r8, QWORD PTR v$[rbp]
  006c6	49 8b 0c 08	 mov	 rcx, QWORD PTR [r8+rcx]
  006ca	48 8b 04 02	 mov	 rax, QWORD PTR [rdx+rax]
  006ce	48 0b c1	 or	 rax, rcx
  006d1	b9 08 00 00 00	 mov	 ecx, 8
  006d6	48 6b c9 19	 imul	 rcx, rcx, 25
  006da	48 8b 95 60 01
	00 00		 mov	 rdx, QWORD PTR w$[rbp]
  006e1	48 89 04 0a	 mov	 QWORD PTR [rdx+rcx], rax

; 104  :             w[26] = u[26] | v[26];

  006e5	b8 08 00 00 00	 mov	 eax, 8
  006ea	48 6b c0 1a	 imul	 rax, rax, 26
  006ee	b9 08 00 00 00	 mov	 ecx, 8
  006f3	48 6b c9 1a	 imul	 rcx, rcx, 26
  006f7	48 8b 95 40 01
	00 00		 mov	 rdx, QWORD PTR u$[rbp]
  006fe	4c 8b 85 50 01
	00 00		 mov	 r8, QWORD PTR v$[rbp]
  00705	49 8b 0c 08	 mov	 rcx, QWORD PTR [r8+rcx]
  00709	48 8b 04 02	 mov	 rax, QWORD PTR [rdx+rax]
  0070d	48 0b c1	 or	 rax, rcx
  00710	b9 08 00 00 00	 mov	 ecx, 8
  00715	48 6b c9 1a	 imul	 rcx, rcx, 26
  00719	48 8b 95 60 01
	00 00		 mov	 rdx, QWORD PTR w$[rbp]
  00720	48 89 04 0a	 mov	 QWORD PTR [rdx+rcx], rax

; 105  :             w[27] = u[27] | v[27];

  00724	b8 08 00 00 00	 mov	 eax, 8
  00729	48 6b c0 1b	 imul	 rax, rax, 27
  0072d	b9 08 00 00 00	 mov	 ecx, 8
  00732	48 6b c9 1b	 imul	 rcx, rcx, 27
  00736	48 8b 95 40 01
	00 00		 mov	 rdx, QWORD PTR u$[rbp]
  0073d	4c 8b 85 50 01
	00 00		 mov	 r8, QWORD PTR v$[rbp]
  00744	49 8b 0c 08	 mov	 rcx, QWORD PTR [r8+rcx]
  00748	48 8b 04 02	 mov	 rax, QWORD PTR [rdx+rax]
  0074c	48 0b c1	 or	 rax, rcx
  0074f	b9 08 00 00 00	 mov	 ecx, 8
  00754	48 6b c9 1b	 imul	 rcx, rcx, 27
  00758	48 8b 95 60 01
	00 00		 mov	 rdx, QWORD PTR w$[rbp]
  0075f	48 89 04 0a	 mov	 QWORD PTR [rdx+rcx], rax

; 106  :             w[28] = u[28] | v[28];

  00763	b8 08 00 00 00	 mov	 eax, 8
  00768	48 6b c0 1c	 imul	 rax, rax, 28
  0076c	b9 08 00 00 00	 mov	 ecx, 8
  00771	48 6b c9 1c	 imul	 rcx, rcx, 28
  00775	48 8b 95 40 01
	00 00		 mov	 rdx, QWORD PTR u$[rbp]
  0077c	4c 8b 85 50 01
	00 00		 mov	 r8, QWORD PTR v$[rbp]
  00783	49 8b 0c 08	 mov	 rcx, QWORD PTR [r8+rcx]
  00787	48 8b 04 02	 mov	 rax, QWORD PTR [rdx+rax]
  0078b	48 0b c1	 or	 rax, rcx
  0078e	b9 08 00 00 00	 mov	 ecx, 8
  00793	48 6b c9 1c	 imul	 rcx, rcx, 28
  00797	48 8b 95 60 01
	00 00		 mov	 rdx, QWORD PTR w$[rbp]
  0079e	48 89 04 0a	 mov	 QWORD PTR [rdx+rcx], rax

; 107  :             w[29] = u[29] | v[29];

  007a2	b8 08 00 00 00	 mov	 eax, 8
  007a7	48 6b c0 1d	 imul	 rax, rax, 29
  007ab	b9 08 00 00 00	 mov	 ecx, 8
  007b0	48 6b c9 1d	 imul	 rcx, rcx, 29
  007b4	48 8b 95 40 01
	00 00		 mov	 rdx, QWORD PTR u$[rbp]
  007bb	4c 8b 85 50 01
	00 00		 mov	 r8, QWORD PTR v$[rbp]
  007c2	49 8b 0c 08	 mov	 rcx, QWORD PTR [r8+rcx]
  007c6	48 8b 04 02	 mov	 rax, QWORD PTR [rdx+rax]
  007ca	48 0b c1	 or	 rax, rcx
  007cd	b9 08 00 00 00	 mov	 ecx, 8
  007d2	48 6b c9 1d	 imul	 rcx, rcx, 29
  007d6	48 8b 95 60 01
	00 00		 mov	 rdx, QWORD PTR w$[rbp]
  007dd	48 89 04 0a	 mov	 QWORD PTR [rdx+rcx], rax

; 108  :             w[30] = u[30] | v[30];

  007e1	b8 08 00 00 00	 mov	 eax, 8
  007e6	48 6b c0 1e	 imul	 rax, rax, 30
  007ea	b9 08 00 00 00	 mov	 ecx, 8
  007ef	48 6b c9 1e	 imul	 rcx, rcx, 30
  007f3	48 8b 95 40 01
	00 00		 mov	 rdx, QWORD PTR u$[rbp]
  007fa	4c 8b 85 50 01
	00 00		 mov	 r8, QWORD PTR v$[rbp]
  00801	49 8b 0c 08	 mov	 rcx, QWORD PTR [r8+rcx]
  00805	48 8b 04 02	 mov	 rax, QWORD PTR [rdx+rax]
  00809	48 0b c1	 or	 rax, rcx
  0080c	b9 08 00 00 00	 mov	 ecx, 8
  00811	48 6b c9 1e	 imul	 rcx, rcx, 30
  00815	48 8b 95 60 01
	00 00		 mov	 rdx, QWORD PTR w$[rbp]
  0081c	48 89 04 0a	 mov	 QWORD PTR [rdx+rcx], rax

; 109  :             w[31] = u[31] | v[31];

  00820	b8 08 00 00 00	 mov	 eax, 8
  00825	48 6b c0 1f	 imul	 rax, rax, 31
  00829	b9 08 00 00 00	 mov	 ecx, 8
  0082e	48 6b c9 1f	 imul	 rcx, rcx, 31
  00832	48 8b 95 40 01
	00 00		 mov	 rdx, QWORD PTR u$[rbp]
  00839	4c 8b 85 50 01
	00 00		 mov	 r8, QWORD PTR v$[rbp]
  00840	49 8b 0c 08	 mov	 rcx, QWORD PTR [r8+rcx]
  00844	48 8b 04 02	 mov	 rax, QWORD PTR [rdx+rax]
  00848	48 0b c1	 or	 rax, rcx
  0084b	b9 08 00 00 00	 mov	 ecx, 8
  00850	48 6b c9 1f	 imul	 rcx, rcx, 31
  00854	48 8b 95 60 01
	00 00		 mov	 rdx, QWORD PTR w$[rbp]
  0085b	48 89 04 0a	 mov	 QWORD PTR [rdx+rcx], rax

; 110  :             u += 32;

  0085f	48 8b 85 40 01
	00 00		 mov	 rax, QWORD PTR u$[rbp]
  00866	48 05 00 01 00
	00		 add	 rax, 256		; 00000100H
  0086c	48 89 85 40 01
	00 00		 mov	 QWORD PTR u$[rbp], rax

; 111  :             v += 32;

  00873	48 8b 85 50 01
	00 00		 mov	 rax, QWORD PTR v$[rbp]
  0087a	48 05 00 01 00
	00		 add	 rax, 256		; 00000100H
  00880	48 89 85 50 01
	00 00		 mov	 QWORD PTR v$[rbp], rax

; 112  :             w += 32;

  00887	48 8b 85 60 01
	00 00		 mov	 rax, QWORD PTR w$[rbp]
  0088e	48 05 00 01 00
	00		 add	 rax, 256		; 00000100H
  00894	48 89 85 60 01
	00 00		 mov	 QWORD PTR w$[rbp], rax

; 113  :             --count;

  0089b	48 8b 45 48	 mov	 rax, QWORD PTR count$[rbp]
  0089f	48 ff c8	 dec	 rax
  008a2	48 89 45 48	 mov	 QWORD PTR count$[rbp], rax

; 114  :         }

  008a6	e9 c9 f7 ff ff	 jmp	 $LN2@BitwiseOr_
$LN3@BitwiseOr_:

; 115  : 
; 116  :         if (or_count & 0x10)

  008ab	48 8b 45 08	 mov	 rax, QWORD PTR or_count$[rbp]
  008af	48 83 e0 10	 and	 rax, 16
  008b3	48 85 c0	 test	 rax, rax
  008b6	0f 84 2c 04 00
	00		 je	 $LN4@BitwiseOr_

; 117  :         {
; 118  :             w[0] = u[0] | v[0];

  008bc	b8 08 00 00 00	 mov	 eax, 8
  008c1	48 6b c0 00	 imul	 rax, rax, 0
  008c5	b9 08 00 00 00	 mov	 ecx, 8
  008ca	48 6b c9 00	 imul	 rcx, rcx, 0
  008ce	48 8b 95 40 01
	00 00		 mov	 rdx, QWORD PTR u$[rbp]
  008d5	4c 8b 85 50 01
	00 00		 mov	 r8, QWORD PTR v$[rbp]
  008dc	49 8b 0c 08	 mov	 rcx, QWORD PTR [r8+rcx]
  008e0	48 8b 04 02	 mov	 rax, QWORD PTR [rdx+rax]
  008e4	48 0b c1	 or	 rax, rcx
  008e7	b9 08 00 00 00	 mov	 ecx, 8
  008ec	48 6b c9 00	 imul	 rcx, rcx, 0
  008f0	48 8b 95 60 01
	00 00		 mov	 rdx, QWORD PTR w$[rbp]
  008f7	48 89 04 0a	 mov	 QWORD PTR [rdx+rcx], rax

; 119  :             w[1] = u[1] | v[1];

  008fb	b8 08 00 00 00	 mov	 eax, 8
  00900	48 6b c0 01	 imul	 rax, rax, 1
  00904	b9 08 00 00 00	 mov	 ecx, 8
  00909	48 6b c9 01	 imul	 rcx, rcx, 1
  0090d	48 8b 95 40 01
	00 00		 mov	 rdx, QWORD PTR u$[rbp]
  00914	4c 8b 85 50 01
	00 00		 mov	 r8, QWORD PTR v$[rbp]
  0091b	49 8b 0c 08	 mov	 rcx, QWORD PTR [r8+rcx]
  0091f	48 8b 04 02	 mov	 rax, QWORD PTR [rdx+rax]
  00923	48 0b c1	 or	 rax, rcx
  00926	b9 08 00 00 00	 mov	 ecx, 8
  0092b	48 6b c9 01	 imul	 rcx, rcx, 1
  0092f	48 8b 95 60 01
	00 00		 mov	 rdx, QWORD PTR w$[rbp]
  00936	48 89 04 0a	 mov	 QWORD PTR [rdx+rcx], rax

; 120  :             w[2] = u[2] | v[2];

  0093a	b8 08 00 00 00	 mov	 eax, 8
  0093f	48 6b c0 02	 imul	 rax, rax, 2
  00943	b9 08 00 00 00	 mov	 ecx, 8
  00948	48 6b c9 02	 imul	 rcx, rcx, 2
  0094c	48 8b 95 40 01
	00 00		 mov	 rdx, QWORD PTR u$[rbp]
  00953	4c 8b 85 50 01
	00 00		 mov	 r8, QWORD PTR v$[rbp]
  0095a	49 8b 0c 08	 mov	 rcx, QWORD PTR [r8+rcx]
  0095e	48 8b 04 02	 mov	 rax, QWORD PTR [rdx+rax]
  00962	48 0b c1	 or	 rax, rcx
  00965	b9 08 00 00 00	 mov	 ecx, 8
  0096a	48 6b c9 02	 imul	 rcx, rcx, 2
  0096e	48 8b 95 60 01
	00 00		 mov	 rdx, QWORD PTR w$[rbp]
  00975	48 89 04 0a	 mov	 QWORD PTR [rdx+rcx], rax

; 121  :             w[3] = u[3] | v[3];

  00979	b8 08 00 00 00	 mov	 eax, 8
  0097e	48 6b c0 03	 imul	 rax, rax, 3
  00982	b9 08 00 00 00	 mov	 ecx, 8
  00987	48 6b c9 03	 imul	 rcx, rcx, 3
  0098b	48 8b 95 40 01
	00 00		 mov	 rdx, QWORD PTR u$[rbp]
  00992	4c 8b 85 50 01
	00 00		 mov	 r8, QWORD PTR v$[rbp]
  00999	49 8b 0c 08	 mov	 rcx, QWORD PTR [r8+rcx]
  0099d	48 8b 04 02	 mov	 rax, QWORD PTR [rdx+rax]
  009a1	48 0b c1	 or	 rax, rcx
  009a4	b9 08 00 00 00	 mov	 ecx, 8
  009a9	48 6b c9 03	 imul	 rcx, rcx, 3
  009ad	48 8b 95 60 01
	00 00		 mov	 rdx, QWORD PTR w$[rbp]
  009b4	48 89 04 0a	 mov	 QWORD PTR [rdx+rcx], rax

; 122  :             w[4] = u[4] | v[4];

  009b8	b8 08 00 00 00	 mov	 eax, 8
  009bd	48 6b c0 04	 imul	 rax, rax, 4
  009c1	b9 08 00 00 00	 mov	 ecx, 8
  009c6	48 6b c9 04	 imul	 rcx, rcx, 4
  009ca	48 8b 95 40 01
	00 00		 mov	 rdx, QWORD PTR u$[rbp]
  009d1	4c 8b 85 50 01
	00 00		 mov	 r8, QWORD PTR v$[rbp]
  009d8	49 8b 0c 08	 mov	 rcx, QWORD PTR [r8+rcx]
  009dc	48 8b 04 02	 mov	 rax, QWORD PTR [rdx+rax]
  009e0	48 0b c1	 or	 rax, rcx
  009e3	b9 08 00 00 00	 mov	 ecx, 8
  009e8	48 6b c9 04	 imul	 rcx, rcx, 4
  009ec	48 8b 95 60 01
	00 00		 mov	 rdx, QWORD PTR w$[rbp]
  009f3	48 89 04 0a	 mov	 QWORD PTR [rdx+rcx], rax

; 123  :             w[5] = u[5] | v[5];

  009f7	b8 08 00 00 00	 mov	 eax, 8
  009fc	48 6b c0 05	 imul	 rax, rax, 5
  00a00	b9 08 00 00 00	 mov	 ecx, 8
  00a05	48 6b c9 05	 imul	 rcx, rcx, 5
  00a09	48 8b 95 40 01
	00 00		 mov	 rdx, QWORD PTR u$[rbp]
  00a10	4c 8b 85 50 01
	00 00		 mov	 r8, QWORD PTR v$[rbp]
  00a17	49 8b 0c 08	 mov	 rcx, QWORD PTR [r8+rcx]
  00a1b	48 8b 04 02	 mov	 rax, QWORD PTR [rdx+rax]
  00a1f	48 0b c1	 or	 rax, rcx
  00a22	b9 08 00 00 00	 mov	 ecx, 8
  00a27	48 6b c9 05	 imul	 rcx, rcx, 5
  00a2b	48 8b 95 60 01
	00 00		 mov	 rdx, QWORD PTR w$[rbp]
  00a32	48 89 04 0a	 mov	 QWORD PTR [rdx+rcx], rax

; 124  :             w[6] = u[6] | v[6];

  00a36	b8 08 00 00 00	 mov	 eax, 8
  00a3b	48 6b c0 06	 imul	 rax, rax, 6
  00a3f	b9 08 00 00 00	 mov	 ecx, 8
  00a44	48 6b c9 06	 imul	 rcx, rcx, 6
  00a48	48 8b 95 40 01
	00 00		 mov	 rdx, QWORD PTR u$[rbp]
  00a4f	4c 8b 85 50 01
	00 00		 mov	 r8, QWORD PTR v$[rbp]
  00a56	49 8b 0c 08	 mov	 rcx, QWORD PTR [r8+rcx]
  00a5a	48 8b 04 02	 mov	 rax, QWORD PTR [rdx+rax]
  00a5e	48 0b c1	 or	 rax, rcx
  00a61	b9 08 00 00 00	 mov	 ecx, 8
  00a66	48 6b c9 06	 imul	 rcx, rcx, 6
  00a6a	48 8b 95 60 01
	00 00		 mov	 rdx, QWORD PTR w$[rbp]
  00a71	48 89 04 0a	 mov	 QWORD PTR [rdx+rcx], rax

; 125  :             w[7] = u[7] | v[7];

  00a75	b8 08 00 00 00	 mov	 eax, 8
  00a7a	48 6b c0 07	 imul	 rax, rax, 7
  00a7e	b9 08 00 00 00	 mov	 ecx, 8
  00a83	48 6b c9 07	 imul	 rcx, rcx, 7
  00a87	48 8b 95 40 01
	00 00		 mov	 rdx, QWORD PTR u$[rbp]
  00a8e	4c 8b 85 50 01
	00 00		 mov	 r8, QWORD PTR v$[rbp]
  00a95	49 8b 0c 08	 mov	 rcx, QWORD PTR [r8+rcx]
  00a99	48 8b 04 02	 mov	 rax, QWORD PTR [rdx+rax]
  00a9d	48 0b c1	 or	 rax, rcx
  00aa0	b9 08 00 00 00	 mov	 ecx, 8
  00aa5	48 6b c9 07	 imul	 rcx, rcx, 7
  00aa9	48 8b 95 60 01
	00 00		 mov	 rdx, QWORD PTR w$[rbp]
  00ab0	48 89 04 0a	 mov	 QWORD PTR [rdx+rcx], rax

; 126  :             w[8] = u[8] | v[8];

  00ab4	b8 08 00 00 00	 mov	 eax, 8
  00ab9	48 6b c0 08	 imul	 rax, rax, 8
  00abd	b9 08 00 00 00	 mov	 ecx, 8
  00ac2	48 6b c9 08	 imul	 rcx, rcx, 8
  00ac6	48 8b 95 40 01
	00 00		 mov	 rdx, QWORD PTR u$[rbp]
  00acd	4c 8b 85 50 01
	00 00		 mov	 r8, QWORD PTR v$[rbp]
  00ad4	49 8b 0c 08	 mov	 rcx, QWORD PTR [r8+rcx]
  00ad8	48 8b 04 02	 mov	 rax, QWORD PTR [rdx+rax]
  00adc	48 0b c1	 or	 rax, rcx
  00adf	b9 08 00 00 00	 mov	 ecx, 8
  00ae4	48 6b c9 08	 imul	 rcx, rcx, 8
  00ae8	48 8b 95 60 01
	00 00		 mov	 rdx, QWORD PTR w$[rbp]
  00aef	48 89 04 0a	 mov	 QWORD PTR [rdx+rcx], rax

; 127  :             w[9] = u[9] | v[9];

  00af3	b8 08 00 00 00	 mov	 eax, 8
  00af8	48 6b c0 09	 imul	 rax, rax, 9
  00afc	b9 08 00 00 00	 mov	 ecx, 8
  00b01	48 6b c9 09	 imul	 rcx, rcx, 9
  00b05	48 8b 95 40 01
	00 00		 mov	 rdx, QWORD PTR u$[rbp]
  00b0c	4c 8b 85 50 01
	00 00		 mov	 r8, QWORD PTR v$[rbp]
  00b13	49 8b 0c 08	 mov	 rcx, QWORD PTR [r8+rcx]
  00b17	48 8b 04 02	 mov	 rax, QWORD PTR [rdx+rax]
  00b1b	48 0b c1	 or	 rax, rcx
  00b1e	b9 08 00 00 00	 mov	 ecx, 8
  00b23	48 6b c9 09	 imul	 rcx, rcx, 9
  00b27	48 8b 95 60 01
	00 00		 mov	 rdx, QWORD PTR w$[rbp]
  00b2e	48 89 04 0a	 mov	 QWORD PTR [rdx+rcx], rax

; 128  :             w[10] = u[10] | v[10];

  00b32	b8 08 00 00 00	 mov	 eax, 8
  00b37	48 6b c0 0a	 imul	 rax, rax, 10
  00b3b	b9 08 00 00 00	 mov	 ecx, 8
  00b40	48 6b c9 0a	 imul	 rcx, rcx, 10
  00b44	48 8b 95 40 01
	00 00		 mov	 rdx, QWORD PTR u$[rbp]
  00b4b	4c 8b 85 50 01
	00 00		 mov	 r8, QWORD PTR v$[rbp]
  00b52	49 8b 0c 08	 mov	 rcx, QWORD PTR [r8+rcx]
  00b56	48 8b 04 02	 mov	 rax, QWORD PTR [rdx+rax]
  00b5a	48 0b c1	 or	 rax, rcx
  00b5d	b9 08 00 00 00	 mov	 ecx, 8
  00b62	48 6b c9 0a	 imul	 rcx, rcx, 10
  00b66	48 8b 95 60 01
	00 00		 mov	 rdx, QWORD PTR w$[rbp]
  00b6d	48 89 04 0a	 mov	 QWORD PTR [rdx+rcx], rax

; 129  :             w[11] = u[11] | v[11];

  00b71	b8 08 00 00 00	 mov	 eax, 8
  00b76	48 6b c0 0b	 imul	 rax, rax, 11
  00b7a	b9 08 00 00 00	 mov	 ecx, 8
  00b7f	48 6b c9 0b	 imul	 rcx, rcx, 11
  00b83	48 8b 95 40 01
	00 00		 mov	 rdx, QWORD PTR u$[rbp]
  00b8a	4c 8b 85 50 01
	00 00		 mov	 r8, QWORD PTR v$[rbp]
  00b91	49 8b 0c 08	 mov	 rcx, QWORD PTR [r8+rcx]
  00b95	48 8b 04 02	 mov	 rax, QWORD PTR [rdx+rax]
  00b99	48 0b c1	 or	 rax, rcx
  00b9c	b9 08 00 00 00	 mov	 ecx, 8
  00ba1	48 6b c9 0b	 imul	 rcx, rcx, 11
  00ba5	48 8b 95 60 01
	00 00		 mov	 rdx, QWORD PTR w$[rbp]
  00bac	48 89 04 0a	 mov	 QWORD PTR [rdx+rcx], rax

; 130  :             w[12] = u[12] | v[12];

  00bb0	b8 08 00 00 00	 mov	 eax, 8
  00bb5	48 6b c0 0c	 imul	 rax, rax, 12
  00bb9	b9 08 00 00 00	 mov	 ecx, 8
  00bbe	48 6b c9 0c	 imul	 rcx, rcx, 12
  00bc2	48 8b 95 40 01
	00 00		 mov	 rdx, QWORD PTR u$[rbp]
  00bc9	4c 8b 85 50 01
	00 00		 mov	 r8, QWORD PTR v$[rbp]
  00bd0	49 8b 0c 08	 mov	 rcx, QWORD PTR [r8+rcx]
  00bd4	48 8b 04 02	 mov	 rax, QWORD PTR [rdx+rax]
  00bd8	48 0b c1	 or	 rax, rcx
  00bdb	b9 08 00 00 00	 mov	 ecx, 8
  00be0	48 6b c9 0c	 imul	 rcx, rcx, 12
  00be4	48 8b 95 60 01
	00 00		 mov	 rdx, QWORD PTR w$[rbp]
  00beb	48 89 04 0a	 mov	 QWORD PTR [rdx+rcx], rax

; 131  :             w[13] = u[13] | v[13];

  00bef	b8 08 00 00 00	 mov	 eax, 8
  00bf4	48 6b c0 0d	 imul	 rax, rax, 13
  00bf8	b9 08 00 00 00	 mov	 ecx, 8
  00bfd	48 6b c9 0d	 imul	 rcx, rcx, 13
  00c01	48 8b 95 40 01
	00 00		 mov	 rdx, QWORD PTR u$[rbp]
  00c08	4c 8b 85 50 01
	00 00		 mov	 r8, QWORD PTR v$[rbp]
  00c0f	49 8b 0c 08	 mov	 rcx, QWORD PTR [r8+rcx]
  00c13	48 8b 04 02	 mov	 rax, QWORD PTR [rdx+rax]
  00c17	48 0b c1	 or	 rax, rcx
  00c1a	b9 08 00 00 00	 mov	 ecx, 8
  00c1f	48 6b c9 0d	 imul	 rcx, rcx, 13
  00c23	48 8b 95 60 01
	00 00		 mov	 rdx, QWORD PTR w$[rbp]
  00c2a	48 89 04 0a	 mov	 QWORD PTR [rdx+rcx], rax

; 132  :             w[14] = u[14] | v[14];

  00c2e	b8 08 00 00 00	 mov	 eax, 8
  00c33	48 6b c0 0e	 imul	 rax, rax, 14
  00c37	b9 08 00 00 00	 mov	 ecx, 8
  00c3c	48 6b c9 0e	 imul	 rcx, rcx, 14
  00c40	48 8b 95 40 01
	00 00		 mov	 rdx, QWORD PTR u$[rbp]
  00c47	4c 8b 85 50 01
	00 00		 mov	 r8, QWORD PTR v$[rbp]
  00c4e	49 8b 0c 08	 mov	 rcx, QWORD PTR [r8+rcx]
  00c52	48 8b 04 02	 mov	 rax, QWORD PTR [rdx+rax]
  00c56	48 0b c1	 or	 rax, rcx
  00c59	b9 08 00 00 00	 mov	 ecx, 8
  00c5e	48 6b c9 0e	 imul	 rcx, rcx, 14
  00c62	48 8b 95 60 01
	00 00		 mov	 rdx, QWORD PTR w$[rbp]
  00c69	48 89 04 0a	 mov	 QWORD PTR [rdx+rcx], rax

; 133  :             w[15] = u[15] | v[15];

  00c6d	b8 08 00 00 00	 mov	 eax, 8
  00c72	48 6b c0 0f	 imul	 rax, rax, 15
  00c76	b9 08 00 00 00	 mov	 ecx, 8
  00c7b	48 6b c9 0f	 imul	 rcx, rcx, 15
  00c7f	48 8b 95 40 01
	00 00		 mov	 rdx, QWORD PTR u$[rbp]
  00c86	4c 8b 85 50 01
	00 00		 mov	 r8, QWORD PTR v$[rbp]
  00c8d	49 8b 0c 08	 mov	 rcx, QWORD PTR [r8+rcx]
  00c91	48 8b 04 02	 mov	 rax, QWORD PTR [rdx+rax]
  00c95	48 0b c1	 or	 rax, rcx
  00c98	b9 08 00 00 00	 mov	 ecx, 8
  00c9d	48 6b c9 0f	 imul	 rcx, rcx, 15
  00ca1	48 8b 95 60 01
	00 00		 mov	 rdx, QWORD PTR w$[rbp]
  00ca8	48 89 04 0a	 mov	 QWORD PTR [rdx+rcx], rax

; 134  :             u += 16;

  00cac	48 8b 85 40 01
	00 00		 mov	 rax, QWORD PTR u$[rbp]
  00cb3	48 05 80 00 00
	00		 add	 rax, 128		; 00000080H
  00cb9	48 89 85 40 01
	00 00		 mov	 QWORD PTR u$[rbp], rax

; 135  :             v += 16;

  00cc0	48 8b 85 50 01
	00 00		 mov	 rax, QWORD PTR v$[rbp]
  00cc7	48 05 80 00 00
	00		 add	 rax, 128		; 00000080H
  00ccd	48 89 85 50 01
	00 00		 mov	 QWORD PTR v$[rbp], rax

; 136  :             w += 16;

  00cd4	48 8b 85 60 01
	00 00		 mov	 rax, QWORD PTR w$[rbp]
  00cdb	48 05 80 00 00
	00		 add	 rax, 128		; 00000080H
  00ce1	48 89 85 60 01
	00 00		 mov	 QWORD PTR w$[rbp], rax
$LN4@BitwiseOr_:

; 137  :         }
; 138  : 
; 139  :         if (or_count & 0x8)

  00ce8	48 8b 45 08	 mov	 rax, QWORD PTR or_count$[rbp]
  00cec	48 83 e0 08	 and	 rax, 8
  00cf0	48 85 c0	 test	 rax, rax
  00cf3	0f 84 2e 02 00
	00		 je	 $LN5@BitwiseOr_

; 140  :         {
; 141  :             w[0] = u[0] | v[0];

  00cf9	b8 08 00 00 00	 mov	 eax, 8
  00cfe	48 6b c0 00	 imul	 rax, rax, 0
  00d02	b9 08 00 00 00	 mov	 ecx, 8
  00d07	48 6b c9 00	 imul	 rcx, rcx, 0
  00d0b	48 8b 95 40 01
	00 00		 mov	 rdx, QWORD PTR u$[rbp]
  00d12	4c 8b 85 50 01
	00 00		 mov	 r8, QWORD PTR v$[rbp]
  00d19	49 8b 0c 08	 mov	 rcx, QWORD PTR [r8+rcx]
  00d1d	48 8b 04 02	 mov	 rax, QWORD PTR [rdx+rax]
  00d21	48 0b c1	 or	 rax, rcx
  00d24	b9 08 00 00 00	 mov	 ecx, 8
  00d29	48 6b c9 00	 imul	 rcx, rcx, 0
  00d2d	48 8b 95 60 01
	00 00		 mov	 rdx, QWORD PTR w$[rbp]
  00d34	48 89 04 0a	 mov	 QWORD PTR [rdx+rcx], rax

; 142  :             w[1] = u[1] | v[1];

  00d38	b8 08 00 00 00	 mov	 eax, 8
  00d3d	48 6b c0 01	 imul	 rax, rax, 1
  00d41	b9 08 00 00 00	 mov	 ecx, 8
  00d46	48 6b c9 01	 imul	 rcx, rcx, 1
  00d4a	48 8b 95 40 01
	00 00		 mov	 rdx, QWORD PTR u$[rbp]
  00d51	4c 8b 85 50 01
	00 00		 mov	 r8, QWORD PTR v$[rbp]
  00d58	49 8b 0c 08	 mov	 rcx, QWORD PTR [r8+rcx]
  00d5c	48 8b 04 02	 mov	 rax, QWORD PTR [rdx+rax]
  00d60	48 0b c1	 or	 rax, rcx
  00d63	b9 08 00 00 00	 mov	 ecx, 8
  00d68	48 6b c9 01	 imul	 rcx, rcx, 1
  00d6c	48 8b 95 60 01
	00 00		 mov	 rdx, QWORD PTR w$[rbp]
  00d73	48 89 04 0a	 mov	 QWORD PTR [rdx+rcx], rax

; 143  :             w[2] = u[2] | v[2];

  00d77	b8 08 00 00 00	 mov	 eax, 8
  00d7c	48 6b c0 02	 imul	 rax, rax, 2
  00d80	b9 08 00 00 00	 mov	 ecx, 8
  00d85	48 6b c9 02	 imul	 rcx, rcx, 2
  00d89	48 8b 95 40 01
	00 00		 mov	 rdx, QWORD PTR u$[rbp]
  00d90	4c 8b 85 50 01
	00 00		 mov	 r8, QWORD PTR v$[rbp]
  00d97	49 8b 0c 08	 mov	 rcx, QWORD PTR [r8+rcx]
  00d9b	48 8b 04 02	 mov	 rax, QWORD PTR [rdx+rax]
  00d9f	48 0b c1	 or	 rax, rcx
  00da2	b9 08 00 00 00	 mov	 ecx, 8
  00da7	48 6b c9 02	 imul	 rcx, rcx, 2
  00dab	48 8b 95 60 01
	00 00		 mov	 rdx, QWORD PTR w$[rbp]
  00db2	48 89 04 0a	 mov	 QWORD PTR [rdx+rcx], rax

; 144  :             w[3] = u[3] | v[3];

  00db6	b8 08 00 00 00	 mov	 eax, 8
  00dbb	48 6b c0 03	 imul	 rax, rax, 3
  00dbf	b9 08 00 00 00	 mov	 ecx, 8
  00dc4	48 6b c9 03	 imul	 rcx, rcx, 3
  00dc8	48 8b 95 40 01
	00 00		 mov	 rdx, QWORD PTR u$[rbp]
  00dcf	4c 8b 85 50 01
	00 00		 mov	 r8, QWORD PTR v$[rbp]
  00dd6	49 8b 0c 08	 mov	 rcx, QWORD PTR [r8+rcx]
  00dda	48 8b 04 02	 mov	 rax, QWORD PTR [rdx+rax]
  00dde	48 0b c1	 or	 rax, rcx
  00de1	b9 08 00 00 00	 mov	 ecx, 8
  00de6	48 6b c9 03	 imul	 rcx, rcx, 3
  00dea	48 8b 95 60 01
	00 00		 mov	 rdx, QWORD PTR w$[rbp]
  00df1	48 89 04 0a	 mov	 QWORD PTR [rdx+rcx], rax

; 145  :             w[4] = u[4] | v[4];

  00df5	b8 08 00 00 00	 mov	 eax, 8
  00dfa	48 6b c0 04	 imul	 rax, rax, 4
  00dfe	b9 08 00 00 00	 mov	 ecx, 8
  00e03	48 6b c9 04	 imul	 rcx, rcx, 4
  00e07	48 8b 95 40 01
	00 00		 mov	 rdx, QWORD PTR u$[rbp]
  00e0e	4c 8b 85 50 01
	00 00		 mov	 r8, QWORD PTR v$[rbp]
  00e15	49 8b 0c 08	 mov	 rcx, QWORD PTR [r8+rcx]
  00e19	48 8b 04 02	 mov	 rax, QWORD PTR [rdx+rax]
  00e1d	48 0b c1	 or	 rax, rcx
  00e20	b9 08 00 00 00	 mov	 ecx, 8
  00e25	48 6b c9 04	 imul	 rcx, rcx, 4
  00e29	48 8b 95 60 01
	00 00		 mov	 rdx, QWORD PTR w$[rbp]
  00e30	48 89 04 0a	 mov	 QWORD PTR [rdx+rcx], rax

; 146  :             w[5] = u[5] | v[5];

  00e34	b8 08 00 00 00	 mov	 eax, 8
  00e39	48 6b c0 05	 imul	 rax, rax, 5
  00e3d	b9 08 00 00 00	 mov	 ecx, 8
  00e42	48 6b c9 05	 imul	 rcx, rcx, 5
  00e46	48 8b 95 40 01
	00 00		 mov	 rdx, QWORD PTR u$[rbp]
  00e4d	4c 8b 85 50 01
	00 00		 mov	 r8, QWORD PTR v$[rbp]
  00e54	49 8b 0c 08	 mov	 rcx, QWORD PTR [r8+rcx]
  00e58	48 8b 04 02	 mov	 rax, QWORD PTR [rdx+rax]
  00e5c	48 0b c1	 or	 rax, rcx
  00e5f	b9 08 00 00 00	 mov	 ecx, 8
  00e64	48 6b c9 05	 imul	 rcx, rcx, 5
  00e68	48 8b 95 60 01
	00 00		 mov	 rdx, QWORD PTR w$[rbp]
  00e6f	48 89 04 0a	 mov	 QWORD PTR [rdx+rcx], rax

; 147  :             w[6] = u[6] | v[6];

  00e73	b8 08 00 00 00	 mov	 eax, 8
  00e78	48 6b c0 06	 imul	 rax, rax, 6
  00e7c	b9 08 00 00 00	 mov	 ecx, 8
  00e81	48 6b c9 06	 imul	 rcx, rcx, 6
  00e85	48 8b 95 40 01
	00 00		 mov	 rdx, QWORD PTR u$[rbp]
  00e8c	4c 8b 85 50 01
	00 00		 mov	 r8, QWORD PTR v$[rbp]
  00e93	49 8b 0c 08	 mov	 rcx, QWORD PTR [r8+rcx]
  00e97	48 8b 04 02	 mov	 rax, QWORD PTR [rdx+rax]
  00e9b	48 0b c1	 or	 rax, rcx
  00e9e	b9 08 00 00 00	 mov	 ecx, 8
  00ea3	48 6b c9 06	 imul	 rcx, rcx, 6
  00ea7	48 8b 95 60 01
	00 00		 mov	 rdx, QWORD PTR w$[rbp]
  00eae	48 89 04 0a	 mov	 QWORD PTR [rdx+rcx], rax

; 148  :             w[7] = u[7] | v[7];

  00eb2	b8 08 00 00 00	 mov	 eax, 8
  00eb7	48 6b c0 07	 imul	 rax, rax, 7
  00ebb	b9 08 00 00 00	 mov	 ecx, 8
  00ec0	48 6b c9 07	 imul	 rcx, rcx, 7
  00ec4	48 8b 95 40 01
	00 00		 mov	 rdx, QWORD PTR u$[rbp]
  00ecb	4c 8b 85 50 01
	00 00		 mov	 r8, QWORD PTR v$[rbp]
  00ed2	49 8b 0c 08	 mov	 rcx, QWORD PTR [r8+rcx]
  00ed6	48 8b 04 02	 mov	 rax, QWORD PTR [rdx+rax]
  00eda	48 0b c1	 or	 rax, rcx
  00edd	b9 08 00 00 00	 mov	 ecx, 8
  00ee2	48 6b c9 07	 imul	 rcx, rcx, 7
  00ee6	48 8b 95 60 01
	00 00		 mov	 rdx, QWORD PTR w$[rbp]
  00eed	48 89 04 0a	 mov	 QWORD PTR [rdx+rcx], rax

; 149  :             u += 8;

  00ef1	48 8b 85 40 01
	00 00		 mov	 rax, QWORD PTR u$[rbp]
  00ef8	48 83 c0 40	 add	 rax, 64			; 00000040H
  00efc	48 89 85 40 01
	00 00		 mov	 QWORD PTR u$[rbp], rax

; 150  :             v += 8;

  00f03	48 8b 85 50 01
	00 00		 mov	 rax, QWORD PTR v$[rbp]
  00f0a	48 83 c0 40	 add	 rax, 64			; 00000040H
  00f0e	48 89 85 50 01
	00 00		 mov	 QWORD PTR v$[rbp], rax

; 151  :             w += 8;

  00f15	48 8b 85 60 01
	00 00		 mov	 rax, QWORD PTR w$[rbp]
  00f1c	48 83 c0 40	 add	 rax, 64			; 00000040H
  00f20	48 89 85 60 01
	00 00		 mov	 QWORD PTR w$[rbp], rax
$LN5@BitwiseOr_:

; 152  :         }
; 153  : 
; 154  :         if (or_count & 0x4)

  00f27	48 8b 45 08	 mov	 rax, QWORD PTR or_count$[rbp]
  00f2b	48 83 e0 04	 and	 rax, 4
  00f2f	48 85 c0	 test	 rax, rax
  00f32	0f 84 32 01 00
	00		 je	 $LN6@BitwiseOr_

; 155  :         {
; 156  :             w[0] = u[0] | v[0];

  00f38	b8 08 00 00 00	 mov	 eax, 8
  00f3d	48 6b c0 00	 imul	 rax, rax, 0
  00f41	b9 08 00 00 00	 mov	 ecx, 8
  00f46	48 6b c9 00	 imul	 rcx, rcx, 0
  00f4a	48 8b 95 40 01
	00 00		 mov	 rdx, QWORD PTR u$[rbp]
  00f51	4c 8b 85 50 01
	00 00		 mov	 r8, QWORD PTR v$[rbp]
  00f58	49 8b 0c 08	 mov	 rcx, QWORD PTR [r8+rcx]
  00f5c	48 8b 04 02	 mov	 rax, QWORD PTR [rdx+rax]
  00f60	48 0b c1	 or	 rax, rcx
  00f63	b9 08 00 00 00	 mov	 ecx, 8
  00f68	48 6b c9 00	 imul	 rcx, rcx, 0
  00f6c	48 8b 95 60 01
	00 00		 mov	 rdx, QWORD PTR w$[rbp]
  00f73	48 89 04 0a	 mov	 QWORD PTR [rdx+rcx], rax

; 157  :             w[1] = u[1] | v[1];

  00f77	b8 08 00 00 00	 mov	 eax, 8
  00f7c	48 6b c0 01	 imul	 rax, rax, 1
  00f80	b9 08 00 00 00	 mov	 ecx, 8
  00f85	48 6b c9 01	 imul	 rcx, rcx, 1
  00f89	48 8b 95 40 01
	00 00		 mov	 rdx, QWORD PTR u$[rbp]
  00f90	4c 8b 85 50 01
	00 00		 mov	 r8, QWORD PTR v$[rbp]
  00f97	49 8b 0c 08	 mov	 rcx, QWORD PTR [r8+rcx]
  00f9b	48 8b 04 02	 mov	 rax, QWORD PTR [rdx+rax]
  00f9f	48 0b c1	 or	 rax, rcx
  00fa2	b9 08 00 00 00	 mov	 ecx, 8
  00fa7	48 6b c9 01	 imul	 rcx, rcx, 1
  00fab	48 8b 95 60 01
	00 00		 mov	 rdx, QWORD PTR w$[rbp]
  00fb2	48 89 04 0a	 mov	 QWORD PTR [rdx+rcx], rax

; 158  :             w[2] = u[2] | v[2];

  00fb6	b8 08 00 00 00	 mov	 eax, 8
  00fbb	48 6b c0 02	 imul	 rax, rax, 2
  00fbf	b9 08 00 00 00	 mov	 ecx, 8
  00fc4	48 6b c9 02	 imul	 rcx, rcx, 2
  00fc8	48 8b 95 40 01
	00 00		 mov	 rdx, QWORD PTR u$[rbp]
  00fcf	4c 8b 85 50 01
	00 00		 mov	 r8, QWORD PTR v$[rbp]
  00fd6	49 8b 0c 08	 mov	 rcx, QWORD PTR [r8+rcx]
  00fda	48 8b 04 02	 mov	 rax, QWORD PTR [rdx+rax]
  00fde	48 0b c1	 or	 rax, rcx
  00fe1	b9 08 00 00 00	 mov	 ecx, 8
  00fe6	48 6b c9 02	 imul	 rcx, rcx, 2
  00fea	48 8b 95 60 01
	00 00		 mov	 rdx, QWORD PTR w$[rbp]
  00ff1	48 89 04 0a	 mov	 QWORD PTR [rdx+rcx], rax

; 159  :             w[3] = u[3] | v[3];

  00ff5	b8 08 00 00 00	 mov	 eax, 8
  00ffa	48 6b c0 03	 imul	 rax, rax, 3
  00ffe	b9 08 00 00 00	 mov	 ecx, 8
  01003	48 6b c9 03	 imul	 rcx, rcx, 3
  01007	48 8b 95 40 01
	00 00		 mov	 rdx, QWORD PTR u$[rbp]
  0100e	4c 8b 85 50 01
	00 00		 mov	 r8, QWORD PTR v$[rbp]
  01015	49 8b 0c 08	 mov	 rcx, QWORD PTR [r8+rcx]
  01019	48 8b 04 02	 mov	 rax, QWORD PTR [rdx+rax]
  0101d	48 0b c1	 or	 rax, rcx
  01020	b9 08 00 00 00	 mov	 ecx, 8
  01025	48 6b c9 03	 imul	 rcx, rcx, 3
  01029	48 8b 95 60 01
	00 00		 mov	 rdx, QWORD PTR w$[rbp]
  01030	48 89 04 0a	 mov	 QWORD PTR [rdx+rcx], rax

; 160  :             u += 4;

  01034	48 8b 85 40 01
	00 00		 mov	 rax, QWORD PTR u$[rbp]
  0103b	48 83 c0 20	 add	 rax, 32			; 00000020H
  0103f	48 89 85 40 01
	00 00		 mov	 QWORD PTR u$[rbp], rax

; 161  :             v += 4;

  01046	48 8b 85 50 01
	00 00		 mov	 rax, QWORD PTR v$[rbp]
  0104d	48 83 c0 20	 add	 rax, 32			; 00000020H
  01051	48 89 85 50 01
	00 00		 mov	 QWORD PTR v$[rbp], rax

; 162  :             w += 4;

  01058	48 8b 85 60 01
	00 00		 mov	 rax, QWORD PTR w$[rbp]
  0105f	48 83 c0 20	 add	 rax, 32			; 00000020H
  01063	48 89 85 60 01
	00 00		 mov	 QWORD PTR w$[rbp], rax
$LN6@BitwiseOr_:

; 163  :         }
; 164  : 
; 165  :         if (or_count & 0x2)

  0106a	48 8b 45 08	 mov	 rax, QWORD PTR or_count$[rbp]
  0106e	48 83 e0 02	 and	 rax, 2
  01072	48 85 c0	 test	 rax, rax
  01075	0f 84 b4 00 00
	00		 je	 $LN7@BitwiseOr_

; 166  :         {
; 167  :             w[0] = u[0] | v[0];

  0107b	b8 08 00 00 00	 mov	 eax, 8
  01080	48 6b c0 00	 imul	 rax, rax, 0
  01084	b9 08 00 00 00	 mov	 ecx, 8
  01089	48 6b c9 00	 imul	 rcx, rcx, 0
  0108d	48 8b 95 40 01
	00 00		 mov	 rdx, QWORD PTR u$[rbp]
  01094	4c 8b 85 50 01
	00 00		 mov	 r8, QWORD PTR v$[rbp]
  0109b	49 8b 0c 08	 mov	 rcx, QWORD PTR [r8+rcx]
  0109f	48 8b 04 02	 mov	 rax, QWORD PTR [rdx+rax]
  010a3	48 0b c1	 or	 rax, rcx
  010a6	b9 08 00 00 00	 mov	 ecx, 8
  010ab	48 6b c9 00	 imul	 rcx, rcx, 0
  010af	48 8b 95 60 01
	00 00		 mov	 rdx, QWORD PTR w$[rbp]
  010b6	48 89 04 0a	 mov	 QWORD PTR [rdx+rcx], rax

; 168  :             w[1] = u[1] | v[1];

  010ba	b8 08 00 00 00	 mov	 eax, 8
  010bf	48 6b c0 01	 imul	 rax, rax, 1
  010c3	b9 08 00 00 00	 mov	 ecx, 8
  010c8	48 6b c9 01	 imul	 rcx, rcx, 1
  010cc	48 8b 95 40 01
	00 00		 mov	 rdx, QWORD PTR u$[rbp]
  010d3	4c 8b 85 50 01
	00 00		 mov	 r8, QWORD PTR v$[rbp]
  010da	49 8b 0c 08	 mov	 rcx, QWORD PTR [r8+rcx]
  010de	48 8b 04 02	 mov	 rax, QWORD PTR [rdx+rax]
  010e2	48 0b c1	 or	 rax, rcx
  010e5	b9 08 00 00 00	 mov	 ecx, 8
  010ea	48 6b c9 01	 imul	 rcx, rcx, 1
  010ee	48 8b 95 60 01
	00 00		 mov	 rdx, QWORD PTR w$[rbp]
  010f5	48 89 04 0a	 mov	 QWORD PTR [rdx+rcx], rax

; 169  :             u += 2;

  010f9	48 8b 85 40 01
	00 00		 mov	 rax, QWORD PTR u$[rbp]
  01100	48 83 c0 10	 add	 rax, 16
  01104	48 89 85 40 01
	00 00		 mov	 QWORD PTR u$[rbp], rax

; 170  :             v += 2;

  0110b	48 8b 85 50 01
	00 00		 mov	 rax, QWORD PTR v$[rbp]
  01112	48 83 c0 10	 add	 rax, 16
  01116	48 89 85 50 01
	00 00		 mov	 QWORD PTR v$[rbp], rax

; 171  :             w += 2;

  0111d	48 8b 85 60 01
	00 00		 mov	 rax, QWORD PTR w$[rbp]
  01124	48 83 c0 10	 add	 rax, 16
  01128	48 89 85 60 01
	00 00		 mov	 QWORD PTR w$[rbp], rax
$LN7@BitwiseOr_:

; 172  :         }
; 173  : 
; 174  :         if (or_count & 0x1)

  0112f	48 8b 45 08	 mov	 rax, QWORD PTR or_count$[rbp]
  01133	48 83 e0 01	 and	 rax, 1
  01137	48 85 c0	 test	 rax, rax
  0113a	74 75		 je	 SHORT $LN8@BitwiseOr_

; 175  :         {
; 176  :             w[0] = u[0] | v[0];

  0113c	b8 08 00 00 00	 mov	 eax, 8
  01141	48 6b c0 00	 imul	 rax, rax, 0
  01145	b9 08 00 00 00	 mov	 ecx, 8
  0114a	48 6b c9 00	 imul	 rcx, rcx, 0
  0114e	48 8b 95 40 01
	00 00		 mov	 rdx, QWORD PTR u$[rbp]
  01155	4c 8b 85 50 01
	00 00		 mov	 r8, QWORD PTR v$[rbp]
  0115c	49 8b 0c 08	 mov	 rcx, QWORD PTR [r8+rcx]
  01160	48 8b 04 02	 mov	 rax, QWORD PTR [rdx+rax]
  01164	48 0b c1	 or	 rax, rcx
  01167	b9 08 00 00 00	 mov	 ecx, 8
  0116c	48 6b c9 00	 imul	 rcx, rcx, 0
  01170	48 8b 95 60 01
	00 00		 mov	 rdx, QWORD PTR w$[rbp]
  01177	48 89 04 0a	 mov	 QWORD PTR [rdx+rcx], rax

; 177  :             u += 1;

  0117b	48 8b 85 40 01
	00 00		 mov	 rax, QWORD PTR u$[rbp]
  01182	48 83 c0 08	 add	 rax, 8
  01186	48 89 85 40 01
	00 00		 mov	 QWORD PTR u$[rbp], rax

; 178  :             v += 1;

  0118d	48 8b 85 50 01
	00 00		 mov	 rax, QWORD PTR v$[rbp]
  01194	48 83 c0 08	 add	 rax, 8
  01198	48 89 85 50 01
	00 00		 mov	 QWORD PTR v$[rbp], rax

; 179  :             w += 1;

  0119f	48 8b 85 60 01
	00 00		 mov	 rax, QWORD PTR w$[rbp]
  011a6	48 83 c0 08	 add	 rax, 8
  011aa	48 89 85 60 01
	00 00		 mov	 QWORD PTR w$[rbp], rax
$LN8@BitwiseOr_:

; 180  :         }
; 181  : 
; 182  :         _COPY_MEMORY_UNIT(w, u, cp_count);

  011b1	4c 8b 45 28	 mov	 r8, QWORD PTR cp_count$[rbp]
  011b5	48 8b 95 40 01
	00 00		 mov	 rdx, QWORD PTR u$[rbp]
  011bc	48 8b 8d 60 01
	00 00		 mov	 rcx, QWORD PTR w$[rbp]
  011c3	e8 00 00 00 00	 call	 _COPY_MEMORY_UNIT

; 183  :     }

  011c8	48 8d a5 28 01
	00 00		 lea	 rsp, QWORD PTR [rbp+296]
  011cf	5f		 pop	 rdi
  011d0	5d		 pop	 rbp
  011d1	c3		 ret	 0
?BitwiseOr_X_X@Internal@Core@Math@Palmtree@@YAXPEA_K_K010@Z ENDP ; Palmtree::Math::Core::Internal::BitwiseOr_X_X
_TEXT	ENDS
; Function compile flags: /Odtp /RTCsu /ZI
; File z:\sources\lunor\repos\rougemeilland\palmtree.math.core.uint\palmtree.math.core.uint\pmc_bitwiseor.cpp
;	COMDAT ?BitwiseOr_X_2W@Internal@Core@Math@Palmtree@@YAXPEA_K_K110@Z
_TEXT	SEGMENT
tv129 = 192
u$ = 240
u_count$ = 248
v_hi$ = 256
v_lo$ = 264
w$ = 272
?BitwiseOr_X_2W@Internal@Core@Math@Palmtree@@YAXPEA_K_K110@Z PROC ; Palmtree::Math::Core::Internal::BitwiseOr_X_2W, COMDAT

; 50   :     {

  00000	4c 89 4c 24 20	 mov	 QWORD PTR [rsp+32], r9
  00005	4c 89 44 24 18	 mov	 QWORD PTR [rsp+24], r8
  0000a	48 89 54 24 10	 mov	 QWORD PTR [rsp+16], rdx
  0000f	48 89 4c 24 08	 mov	 QWORD PTR [rsp+8], rcx
  00014	55		 push	 rbp
  00015	57		 push	 rdi
  00016	48 81 ec f8 00
	00 00		 sub	 rsp, 248		; 000000f8H
  0001d	48 8d 6c 24 20	 lea	 rbp, QWORD PTR [rsp+32]
  00022	48 8b fc	 mov	 rdi, rsp
  00025	b9 3e 00 00 00	 mov	 ecx, 62			; 0000003eH
  0002a	b8 cc cc cc cc	 mov	 eax, -858993460		; ccccccccH
  0002f	f3 ab		 rep stosd
  00031	48 8b 8c 24 18
	01 00 00	 mov	 rcx, QWORD PTR [rsp+280]
  00039	48 8d 0d 00 00
	00 00		 lea	 rcx, OFFSET FLAT:__D969B5A7_pmc_bitwiseor@cpp
  00040	e8 00 00 00 00	 call	 __CheckForDebuggerJustMyCode

; 51   :         if (u_count == 1)

  00045	48 83 bd f8 00
	00 00 01	 cmp	 QWORD PTR u_count$[rbp], 1
  0004d	75 52		 jne	 SHORT $LN2@BitwiseOr_

; 52   :         {
; 53   :             w[0] = u[0] | v_lo;

  0004f	b8 08 00 00 00	 mov	 eax, 8
  00054	48 6b c0 00	 imul	 rax, rax, 0
  00058	48 8b 8d f0 00
	00 00		 mov	 rcx, QWORD PTR u$[rbp]
  0005f	48 8b 95 08 01
	00 00		 mov	 rdx, QWORD PTR v_lo$[rbp]
  00066	48 8b 04 01	 mov	 rax, QWORD PTR [rcx+rax]
  0006a	48 0b c2	 or	 rax, rdx
  0006d	b9 08 00 00 00	 mov	 ecx, 8
  00072	48 6b c9 00	 imul	 rcx, rcx, 0
  00076	48 8b 95 10 01
	00 00		 mov	 rdx, QWORD PTR w$[rbp]
  0007d	48 89 04 0a	 mov	 QWORD PTR [rdx+rcx], rax

; 54   :             w[1] = v_hi;

  00081	b8 08 00 00 00	 mov	 eax, 8
  00086	48 6b c0 01	 imul	 rax, rax, 1
  0008a	48 8b 8d 10 01
	00 00		 mov	 rcx, QWORD PTR w$[rbp]
  00091	48 8b 95 00 01
	00 00		 mov	 rdx, QWORD PTR v_hi$[rbp]
  00098	48 89 14 01	 mov	 QWORD PTR [rcx+rax], rdx
  0009c	e9 14 01 00 00	 jmp	 $LN3@BitwiseOr_
$LN2@BitwiseOr_:

; 55   :         }
; 56   :         else if (u_count == 2)

  000a1	48 83 bd f8 00
	00 00 02	 cmp	 QWORD PTR u_count$[rbp], 2
  000a9	75 69		 jne	 SHORT $LN4@BitwiseOr_

; 57   :         {
; 58   :             w[0] = u[0] | v_lo;

  000ab	b8 08 00 00 00	 mov	 eax, 8
  000b0	48 6b c0 00	 imul	 rax, rax, 0
  000b4	48 8b 8d f0 00
	00 00		 mov	 rcx, QWORD PTR u$[rbp]
  000bb	48 8b 95 08 01
	00 00		 mov	 rdx, QWORD PTR v_lo$[rbp]
  000c2	48 8b 04 01	 mov	 rax, QWORD PTR [rcx+rax]
  000c6	48 0b c2	 or	 rax, rdx
  000c9	b9 08 00 00 00	 mov	 ecx, 8
  000ce	48 6b c9 00	 imul	 rcx, rcx, 0
  000d2	48 8b 95 10 01
	00 00		 mov	 rdx, QWORD PTR w$[rbp]
  000d9	48 89 04 0a	 mov	 QWORD PTR [rdx+rcx], rax

; 59   :             w[1] = u[1] | v_hi;

  000dd	b8 08 00 00 00	 mov	 eax, 8
  000e2	48 6b c0 01	 imul	 rax, rax, 1
  000e6	48 8b 8d f0 00
	00 00		 mov	 rcx, QWORD PTR u$[rbp]
  000ed	48 8b 95 00 01
	00 00		 mov	 rdx, QWORD PTR v_hi$[rbp]
  000f4	48 8b 04 01	 mov	 rax, QWORD PTR [rcx+rax]
  000f8	48 0b c2	 or	 rax, rdx
  000fb	b9 08 00 00 00	 mov	 ecx, 8
  00100	48 6b c9 01	 imul	 rcx, rcx, 1
  00104	48 8b 95 10 01
	00 00		 mov	 rdx, QWORD PTR w$[rbp]
  0010b	48 89 04 0a	 mov	 QWORD PTR [rdx+rcx], rax

; 60   :         }
; 61   :         else

  0010f	e9 a1 00 00 00	 jmp	 $LN5@BitwiseOr_
$LN4@BitwiseOr_:

; 62   :         {
; 63   :             w[0] = u[0] | v_lo;

  00114	b8 08 00 00 00	 mov	 eax, 8
  00119	48 6b c0 00	 imul	 rax, rax, 0
  0011d	48 8b 8d f0 00
	00 00		 mov	 rcx, QWORD PTR u$[rbp]
  00124	48 8b 95 08 01
	00 00		 mov	 rdx, QWORD PTR v_lo$[rbp]
  0012b	48 8b 04 01	 mov	 rax, QWORD PTR [rcx+rax]
  0012f	48 0b c2	 or	 rax, rdx
  00132	b9 08 00 00 00	 mov	 ecx, 8
  00137	48 6b c9 00	 imul	 rcx, rcx, 0
  0013b	48 8b 95 10 01
	00 00		 mov	 rdx, QWORD PTR w$[rbp]
  00142	48 89 04 0a	 mov	 QWORD PTR [rdx+rcx], rax

; 64   :             w[1] = u[1] | v_hi;

  00146	b8 08 00 00 00	 mov	 eax, 8
  0014b	48 6b c0 01	 imul	 rax, rax, 1
  0014f	48 8b 8d f0 00
	00 00		 mov	 rcx, QWORD PTR u$[rbp]
  00156	48 8b 95 00 01
	00 00		 mov	 rdx, QWORD PTR v_hi$[rbp]
  0015d	48 8b 04 01	 mov	 rax, QWORD PTR [rcx+rax]
  00161	48 0b c2	 or	 rax, rdx
  00164	b9 08 00 00 00	 mov	 ecx, 8
  00169	48 6b c9 01	 imul	 rcx, rcx, 1
  0016d	48 8b 95 10 01
	00 00		 mov	 rdx, QWORD PTR w$[rbp]
  00174	48 89 04 0a	 mov	 QWORD PTR [rdx+rcx], rax

; 65   :             _COPY_MEMORY_UNIT(w + 2, u + 2, u_count - 2);

  00178	48 8b 85 f8 00
	00 00		 mov	 rax, QWORD PTR u_count$[rbp]
  0017f	48 83 e8 02	 sub	 rax, 2
  00183	48 8b 8d f0 00
	00 00		 mov	 rcx, QWORD PTR u$[rbp]
  0018a	48 83 c1 10	 add	 rcx, 16
  0018e	48 8b 95 10 01
	00 00		 mov	 rdx, QWORD PTR w$[rbp]
  00195	48 83 c2 10	 add	 rdx, 16
  00199	48 89 95 c0 00
	00 00		 mov	 QWORD PTR tv129[rbp], rdx
  001a0	4c 8b c0	 mov	 r8, rax
  001a3	48 8b d1	 mov	 rdx, rcx
  001a6	48 8b 85 c0 00
	00 00		 mov	 rax, QWORD PTR tv129[rbp]
  001ad	48 8b c8	 mov	 rcx, rax
  001b0	e8 00 00 00 00	 call	 _COPY_MEMORY_UNIT
$LN5@BitwiseOr_:
$LN3@BitwiseOr_:

; 66   :         }
; 67   :     }

  001b5	48 8d a5 d8 00
	00 00		 lea	 rsp, QWORD PTR [rbp+216]
  001bc	5f		 pop	 rdi
  001bd	5d		 pop	 rbp
  001be	c3		 ret	 0
?BitwiseOr_X_2W@Internal@Core@Math@Palmtree@@YAXPEA_K_K110@Z ENDP ; Palmtree::Math::Core::Internal::BitwiseOr_X_2W
_TEXT	ENDS
; Function compile flags: /Odtp /RTCsu /ZI
; File z:\sources\lunor\repos\rougemeilland\palmtree.math.core.uint\palmtree.math.core.uint\pmc_bitwiseor.cpp
;	COMDAT ?BitwiseOr_X_1W@Internal@Core@Math@Palmtree@@YAXPEA_K_K10@Z
_TEXT	SEGMENT
tv79 = 192
u$ = 240
u_count$ = 248
v$ = 256
w$ = 264
?BitwiseOr_X_1W@Internal@Core@Math@Palmtree@@YAXPEA_K_K10@Z PROC ; Palmtree::Math::Core::Internal::BitwiseOr_X_1W, COMDAT

; 38   :     {

  00000	4c 89 4c 24 20	 mov	 QWORD PTR [rsp+32], r9
  00005	4c 89 44 24 18	 mov	 QWORD PTR [rsp+24], r8
  0000a	48 89 54 24 10	 mov	 QWORD PTR [rsp+16], rdx
  0000f	48 89 4c 24 08	 mov	 QWORD PTR [rsp+8], rcx
  00014	55		 push	 rbp
  00015	57		 push	 rdi
  00016	48 81 ec f8 00
	00 00		 sub	 rsp, 248		; 000000f8H
  0001d	48 8d 6c 24 20	 lea	 rbp, QWORD PTR [rsp+32]
  00022	48 8b fc	 mov	 rdi, rsp
  00025	b9 3e 00 00 00	 mov	 ecx, 62			; 0000003eH
  0002a	b8 cc cc cc cc	 mov	 eax, -858993460		; ccccccccH
  0002f	f3 ab		 rep stosd
  00031	48 8b 8c 24 18
	01 00 00	 mov	 rcx, QWORD PTR [rsp+280]
  00039	48 8d 0d 00 00
	00 00		 lea	 rcx, OFFSET FLAT:__D969B5A7_pmc_bitwiseor@cpp
  00040	e8 00 00 00 00	 call	 __CheckForDebuggerJustMyCode

; 39   :         if (u_count == 1)

  00045	48 83 bd f8 00
	00 00 01	 cmp	 QWORD PTR u_count$[rbp], 1
  0004d	75 34		 jne	 SHORT $LN2@BitwiseOr_

; 40   :             w[0] = u[0] | v;

  0004f	b8 08 00 00 00	 mov	 eax, 8
  00054	48 6b c0 00	 imul	 rax, rax, 0
  00058	48 8b 8d f0 00
	00 00		 mov	 rcx, QWORD PTR u$[rbp]
  0005f	48 8b 95 00 01
	00 00		 mov	 rdx, QWORD PTR v$[rbp]
  00066	48 8b 04 01	 mov	 rax, QWORD PTR [rcx+rax]
  0006a	48 0b c2	 or	 rax, rdx
  0006d	b9 08 00 00 00	 mov	 ecx, 8
  00072	48 6b c9 00	 imul	 rcx, rcx, 0
  00076	48 8b 95 08 01
	00 00		 mov	 rdx, QWORD PTR w$[rbp]
  0007d	48 89 04 0a	 mov	 QWORD PTR [rdx+rcx], rax

; 41   :         else

  00081	eb 6e		 jmp	 SHORT $LN3@BitwiseOr_
$LN2@BitwiseOr_:

; 42   :         {
; 43   :             w[0] = u[0] | v;

  00083	b8 08 00 00 00	 mov	 eax, 8
  00088	48 6b c0 00	 imul	 rax, rax, 0
  0008c	48 8b 8d f0 00
	00 00		 mov	 rcx, QWORD PTR u$[rbp]
  00093	48 8b 95 00 01
	00 00		 mov	 rdx, QWORD PTR v$[rbp]
  0009a	48 8b 04 01	 mov	 rax, QWORD PTR [rcx+rax]
  0009e	48 0b c2	 or	 rax, rdx
  000a1	b9 08 00 00 00	 mov	 ecx, 8
  000a6	48 6b c9 00	 imul	 rcx, rcx, 0
  000aa	48 8b 95 08 01
	00 00		 mov	 rdx, QWORD PTR w$[rbp]
  000b1	48 89 04 0a	 mov	 QWORD PTR [rdx+rcx], rax

; 44   :             _COPY_MEMORY_UNIT(w + 1, u + 1, u_count - 1);

  000b5	48 8b 85 f8 00
	00 00		 mov	 rax, QWORD PTR u_count$[rbp]
  000bc	48 ff c8	 dec	 rax
  000bf	48 8b 8d f0 00
	00 00		 mov	 rcx, QWORD PTR u$[rbp]
  000c6	48 83 c1 08	 add	 rcx, 8
  000ca	48 8b 95 08 01
	00 00		 mov	 rdx, QWORD PTR w$[rbp]
  000d1	48 83 c2 08	 add	 rdx, 8
  000d5	48 89 95 c0 00
	00 00		 mov	 QWORD PTR tv79[rbp], rdx
  000dc	4c 8b c0	 mov	 r8, rax
  000df	48 8b d1	 mov	 rdx, rcx
  000e2	48 8b 85 c0 00
	00 00		 mov	 rax, QWORD PTR tv79[rbp]
  000e9	48 8b c8	 mov	 rcx, rax
  000ec	e8 00 00 00 00	 call	 _COPY_MEMORY_UNIT
$LN3@BitwiseOr_:

; 45   :         }
; 46   :     }

  000f1	48 8d a5 d8 00
	00 00		 lea	 rsp, QWORD PTR [rbp+216]
  000f8	5f		 pop	 rdi
  000f9	5d		 pop	 rbp
  000fa	c3		 ret	 0
?BitwiseOr_X_1W@Internal@Core@Math@Palmtree@@YAXPEA_K_K10@Z ENDP ; Palmtree::Math::Core::Internal::BitwiseOr_X_1W
_TEXT	ENDS
; Function compile flags: /Odtp /RTCsu /ZI
; File z:\sources\lunor\repos\rougemeilland\palmtree.math.core.uint\palmtree.math.core.uint\pmc_inline_func.h
;	COMDAT _LZCNT_ALT_UNIT
_TEXT	SEGMENT
pos$ = 4
x$ = 256
_LZCNT_ALT_UNIT PROC					; COMDAT

; 454  :         {

  00000	48 89 4c 24 08	 mov	 QWORD PTR [rsp+8], rcx
  00005	55		 push	 rbp
  00006	57		 push	 rdi
  00007	48 81 ec 08 01
	00 00		 sub	 rsp, 264		; 00000108H
  0000e	48 8d 6c 24 20	 lea	 rbp, QWORD PTR [rsp+32]
  00013	48 8b fc	 mov	 rdi, rsp
  00016	b9 42 00 00 00	 mov	 ecx, 66			; 00000042H
  0001b	b8 cc cc cc cc	 mov	 eax, -858993460		; ccccccccH
  00020	f3 ab		 rep stosd
  00022	48 8b 8c 24 28
	01 00 00	 mov	 rcx, QWORD PTR [rsp+296]
  0002a	48 8d 0d 00 00
	00 00		 lea	 rcx, OFFSET FLAT:__8CA3E54E_pmc_inline_func@h
  00031	e8 00 00 00 00	 call	 __CheckForDebuggerJustMyCode

; 455  :             if (x == 0)

  00036	48 83 bd 00 01
	00 00 00	 cmp	 QWORD PTR x$[rbp], 0
  0003e	75 07		 jne	 SHORT $LN2@LZCNT_ALT_

; 456  :                 return (sizeof(x) * 8);

  00040	b8 40 00 00 00	 mov	 eax, 64			; 00000040H
  00045	eb 1c		 jmp	 SHORT $LN1@LZCNT_ALT_
$LN2@LZCNT_ALT_:

; 457  : #ifdef _M_IX86
; 458  :             DWORD pos;
; 459  : #ifdef _MSC_VER
; 460  :             _BitScanReverse(&pos, x);
; 461  : #elif defined(__GNUC__)
; 462  :             __asm__("bsrl %1, %0" : "=r"(pos) : "rm"(x));
; 463  : #else
; 464  : #error unknown compiler
; 465  : #endif
; 466  : #elif defined(_M_X64)
; 467  : #ifdef _MSC_VER
; 468  :             DWORD pos;
; 469  :             _BitScanReverse64(&pos, x);

  00047	48 8b 85 00 01
	00 00		 mov	 rax, QWORD PTR x$[rbp]
  0004e	48 0f bd c0	 bsr	 rax, rax
  00052	89 45 04	 mov	 DWORD PTR pos$[rbp], eax

; 470  : #elif defined(__GNUC__)
; 471  :             _UINT64_T pos;
; 472  :             __asm__("bsrq %1, %0" : "=r"(pos) : "rm"(x));
; 473  : #else
; 474  : #error unknown compiler
; 475  : #endif
; 476  : #else
; 477  : #error unknown platform
; 478  : #endif
; 479  :             return (sizeof(x) * 8 - 1 - pos);

  00055	8b 45 04	 mov	 eax, DWORD PTR pos$[rbp]
  00058	b9 3f 00 00 00	 mov	 ecx, 63			; 0000003fH
  0005d	48 2b c8	 sub	 rcx, rax
  00060	48 8b c1	 mov	 rax, rcx
$LN1@LZCNT_ALT_:

; 480  :         }

  00063	48 8b f8	 mov	 rdi, rax
  00066	48 8d 4d e0	 lea	 rcx, QWORD PTR [rbp-32]
  0006a	48 8d 15 00 00
	00 00		 lea	 rdx, OFFSET FLAT:_LZCNT_ALT_UNIT$rtcFrameData
  00071	e8 00 00 00 00	 call	 _RTC_CheckStackVars
  00076	48 8b c7	 mov	 rax, rdi
  00079	48 8d a5 e8 00
	00 00		 lea	 rsp, QWORD PTR [rbp+232]
  00080	5f		 pop	 rdi
  00081	5d		 pop	 rbp
  00082	c3		 ret	 0
_LZCNT_ALT_UNIT ENDP
_TEXT	ENDS
; Function compile flags: /Odtp /RTCsu /ZI
; File z:\sources\lunor\repos\rougemeilland\palmtree.math.core.uint\palmtree.math.core.uint\pmc_inline_func.h
;	COMDAT _LZCNT_ALT_32
_TEXT	SEGMENT
pos$ = 4
x$ = 256
_LZCNT_ALT_32 PROC					; COMDAT

; 421  :         {

  00000	89 4c 24 08	 mov	 DWORD PTR [rsp+8], ecx
  00004	55		 push	 rbp
  00005	57		 push	 rdi
  00006	48 81 ec 08 01
	00 00		 sub	 rsp, 264		; 00000108H
  0000d	48 8d 6c 24 20	 lea	 rbp, QWORD PTR [rsp+32]
  00012	48 8b fc	 mov	 rdi, rsp
  00015	b9 42 00 00 00	 mov	 ecx, 66			; 00000042H
  0001a	b8 cc cc cc cc	 mov	 eax, -858993460		; ccccccccH
  0001f	f3 ab		 rep stosd
  00021	8b 8c 24 28 01
	00 00		 mov	 ecx, DWORD PTR [rsp+296]
  00028	48 8d 0d 00 00
	00 00		 lea	 rcx, OFFSET FLAT:__8CA3E54E_pmc_inline_func@h
  0002f	e8 00 00 00 00	 call	 __CheckForDebuggerJustMyCode

; 422  :             if (x == 0)

  00034	83 bd 00 01 00
	00 00		 cmp	 DWORD PTR x$[rbp], 0
  0003b	75 07		 jne	 SHORT $LN2@LZCNT_ALT_

; 423  :                 return (sizeof(x) * 8);

  0003d	b8 20 00 00 00	 mov	 eax, 32			; 00000020H
  00042	eb 1a		 jmp	 SHORT $LN1@LZCNT_ALT_
$LN2@LZCNT_ALT_:

; 424  :             DWORD pos;
; 425  : #ifdef _MSC_VER
; 426  :             _BitScanReverse(&pos, x);

  00044	8b 85 00 01 00
	00		 mov	 eax, DWORD PTR x$[rbp]
  0004a	0f bd c0	 bsr	 eax, eax
  0004d	89 45 04	 mov	 DWORD PTR pos$[rbp], eax

; 427  : #elif defined(__GNUC__)
; 428  :             __asm__("bsrl %1, %0" : "=r"(pos) : "rm"(x));
; 429  : #else
; 430  : #error unknown compiler
; 431  : #endif
; 432  :             return (sizeof(x) * 8 - 1 - pos);

  00050	8b 45 04	 mov	 eax, DWORD PTR pos$[rbp]
  00053	b9 1f 00 00 00	 mov	 ecx, 31
  00058	48 2b c8	 sub	 rcx, rax
  0005b	48 8b c1	 mov	 rax, rcx
$LN1@LZCNT_ALT_:

; 433  :         }

  0005e	48 8b f8	 mov	 rdi, rax
  00061	48 8d 4d e0	 lea	 rcx, QWORD PTR [rbp-32]
  00065	48 8d 15 00 00
	00 00		 lea	 rdx, OFFSET FLAT:_LZCNT_ALT_32$rtcFrameData
  0006c	e8 00 00 00 00	 call	 _RTC_CheckStackVars
  00071	48 8b c7	 mov	 rax, rdi
  00074	48 8d a5 e8 00
	00 00		 lea	 rsp, QWORD PTR [rbp+232]
  0007b	5f		 pop	 rdi
  0007c	5d		 pop	 rbp
  0007d	c3		 ret	 0
_LZCNT_ALT_32 ENDP
_TEXT	ENDS
; Function compile flags: /Odtp /RTCsu /ZI
; File z:\sources\lunor\repos\rougemeilland\palmtree.math.core.uint\palmtree.math.core.uint\pmc_inline_func.h
;	COMDAT _MAXIMUM_UNIT
_TEXT	SEGMENT
tv65 = 192
x$ = 240
y$ = 248
_MAXIMUM_UNIT PROC					; COMDAT

; 166  :         {

  00000	48 89 54 24 10	 mov	 QWORD PTR [rsp+16], rdx
  00005	48 89 4c 24 08	 mov	 QWORD PTR [rsp+8], rcx
  0000a	55		 push	 rbp
  0000b	57		 push	 rdi
  0000c	48 81 ec f8 00
	00 00		 sub	 rsp, 248		; 000000f8H
  00013	48 8d 6c 24 20	 lea	 rbp, QWORD PTR [rsp+32]
  00018	48 8b fc	 mov	 rdi, rsp
  0001b	b9 3e 00 00 00	 mov	 ecx, 62			; 0000003eH
  00020	b8 cc cc cc cc	 mov	 eax, -858993460		; ccccccccH
  00025	f3 ab		 rep stosd
  00027	48 8b 8c 24 18
	01 00 00	 mov	 rcx, QWORD PTR [rsp+280]
  0002f	48 8d 0d 00 00
	00 00		 lea	 rcx, OFFSET FLAT:__8CA3E54E_pmc_inline_func@h
  00036	e8 00 00 00 00	 call	 __CheckForDebuggerJustMyCode

; 167  :             return (x >= y ? x : y);

  0003b	48 8b 85 f8 00
	00 00		 mov	 rax, QWORD PTR y$[rbp]
  00042	48 39 85 f0 00
	00 00		 cmp	 QWORD PTR x$[rbp], rax
  00049	72 10		 jb	 SHORT $LN3@MAXIMUM_UN
  0004b	48 8b 85 f0 00
	00 00		 mov	 rax, QWORD PTR x$[rbp]
  00052	48 89 85 c0 00
	00 00		 mov	 QWORD PTR tv65[rbp], rax
  00059	eb 0e		 jmp	 SHORT $LN4@MAXIMUM_UN
$LN3@MAXIMUM_UN:
  0005b	48 8b 85 f8 00
	00 00		 mov	 rax, QWORD PTR y$[rbp]
  00062	48 89 85 c0 00
	00 00		 mov	 QWORD PTR tv65[rbp], rax
$LN4@MAXIMUM_UN:
  00069	48 8b 85 c0 00
	00 00		 mov	 rax, QWORD PTR tv65[rbp]

; 168  :         }

  00070	48 8d a5 d8 00
	00 00		 lea	 rsp, QWORD PTR [rbp+216]
  00077	5f		 pop	 rdi
  00078	5d		 pop	 rbp
  00079	c3		 ret	 0
_MAXIMUM_UNIT ENDP
_TEXT	ENDS
; Function compile flags: /Odtp /RTCsu /ZI
; File z:\sources\lunor\repos\rougemeilland\palmtree.math.core.uint\palmtree.math.core.uint\pmc_inline_func.h
;	COMDAT _FROMDWORDTOWORD
_TEXT	SEGMENT
value$ = 224
result_high$ = 232
_FROMDWORDTOWORD PROC					; COMDAT

; 145  :         {

  00000	48 89 54 24 10	 mov	 QWORD PTR [rsp+16], rdx
  00005	48 89 4c 24 08	 mov	 QWORD PTR [rsp+8], rcx
  0000a	55		 push	 rbp
  0000b	57		 push	 rdi
  0000c	48 81 ec e8 00
	00 00		 sub	 rsp, 232		; 000000e8H
  00013	48 8d 6c 24 20	 lea	 rbp, QWORD PTR [rsp+32]
  00018	48 8b fc	 mov	 rdi, rsp
  0001b	b9 3a 00 00 00	 mov	 ecx, 58			; 0000003aH
  00020	b8 cc cc cc cc	 mov	 eax, -858993460		; ccccccccH
  00025	f3 ab		 rep stosd
  00027	48 8b 8c 24 08
	01 00 00	 mov	 rcx, QWORD PTR [rsp+264]
  0002f	48 8d 0d 00 00
	00 00		 lea	 rcx, OFFSET FLAT:__8CA3E54E_pmc_inline_func@h
  00036	e8 00 00 00 00	 call	 __CheckForDebuggerJustMyCode

; 146  :             *result_high = (_UINT32_T)(value >> 32);

  0003b	48 8b 85 e0 00
	00 00		 mov	 rax, QWORD PTR value$[rbp]
  00042	48 c1 e8 20	 shr	 rax, 32			; 00000020H
  00046	48 8b 8d e8 00
	00 00		 mov	 rcx, QWORD PTR result_high$[rbp]
  0004d	89 01		 mov	 DWORD PTR [rcx], eax

; 147  :             return ((_UINT32_T)value);

  0004f	8b 85 e0 00 00
	00		 mov	 eax, DWORD PTR value$[rbp]

; 148  :         }

  00055	48 8d a5 c8 00
	00 00		 lea	 rsp, QWORD PTR [rbp+200]
  0005c	5f		 pop	 rdi
  0005d	5d		 pop	 rbp
  0005e	c3		 ret	 0
_FROMDWORDTOWORD ENDP
_TEXT	ENDS
; Function compile flags: /Odtp /RTCsu /ZI
; File z:\sources\lunor\repos\rougemeilland\palmtree.math.core.uint\palmtree.math.core.uint\pmc_inline_func.h
;	COMDAT _COPY_MEMORY_UNIT
_TEXT	SEGMENT
d$ = 224
s$ = 232
count$ = 240
_COPY_MEMORY_UNIT PROC					; COMDAT

; 63   :         {

  00000	4c 89 44 24 18	 mov	 QWORD PTR [rsp+24], r8
  00005	48 89 54 24 10	 mov	 QWORD PTR [rsp+16], rdx
  0000a	48 89 4c 24 08	 mov	 QWORD PTR [rsp+8], rcx
  0000f	55		 push	 rbp
  00010	56		 push	 rsi
  00011	57		 push	 rdi
  00012	48 81 ec e0 00
	00 00		 sub	 rsp, 224		; 000000e0H
  00019	48 8d 6c 24 20	 lea	 rbp, QWORD PTR [rsp+32]
  0001e	48 8b fc	 mov	 rdi, rsp
  00021	b9 38 00 00 00	 mov	 ecx, 56			; 00000038H
  00026	b8 cc cc cc cc	 mov	 eax, -858993460		; ccccccccH
  0002b	f3 ab		 rep stosd
  0002d	48 8b 8c 24 08
	01 00 00	 mov	 rcx, QWORD PTR [rsp+264]
  00035	48 8d 0d 00 00
	00 00		 lea	 rcx, OFFSET FLAT:__8CA3E54E_pmc_inline_func@h
  0003c	e8 00 00 00 00	 call	 __CheckForDebuggerJustMyCode

; 64   : #ifdef _M_IX86
; 65   :             __movsd((unsigned long *)d, (unsigned long *)s, (unsigned long)count);
; 66   : #elif defined(_M_X64)
; 67   :             __movsq(d, s, count);

  00041	48 8b bd e0 00
	00 00		 mov	 rdi, QWORD PTR d$[rbp]
  00048	48 8b b5 e8 00
	00 00		 mov	 rsi, QWORD PTR s$[rbp]
  0004f	48 8b 8d f0 00
	00 00		 mov	 rcx, QWORD PTR count$[rbp]
  00056	f3 48 a5	 rep movsq

; 68   : #else
; 69   : #error unknown platform
; 70   : #endif
; 71   :         }

  00059	48 8d a5 c0 00
	00 00		 lea	 rsp, QWORD PTR [rbp+192]
  00060	5f		 pop	 rdi
  00061	5e		 pop	 rsi
  00062	5d		 pop	 rbp
  00063	c3		 ret	 0
_COPY_MEMORY_UNIT ENDP
_TEXT	ENDS
; Function compile flags: /Odtp /RTCsu /ZI
; File z:\sources\lunor\repos\rougemeilland\palmtree.math.core.uint\palmtree.math.core.uint\pmc_bitwiseor.cpp
;	COMDAT ?PMC_BitwiseOr_X_X@Internal@Core@Math@Palmtree@@YAPEAU__tag_PMC_HANDLE_UINT@1234@PEAU51234@0@Z
_TEXT	SEGMENT
nu$ = 8
nv$ = 40
root$ = 72
nw$ = 136
$T4 = 360
$T5 = 440
$T6 = 520
$T7 = 552
u$ = 608
v$ = 616
?PMC_BitwiseOr_X_X@Internal@Core@Math@Palmtree@@YAPEAU__tag_PMC_HANDLE_UINT@1234@PEAU51234@0@Z PROC ; Palmtree::Math::Core::Internal::PMC_BitwiseOr_X_X, COMDAT

; 404  :     {

$LN7:
  00000	48 89 54 24 10	 mov	 QWORD PTR [rsp+16], rdx
  00005	48 89 4c 24 08	 mov	 QWORD PTR [rsp+8], rcx
  0000a	55		 push	 rbp
  0000b	57		 push	 rdi
  0000c	48 81 ec 68 02
	00 00		 sub	 rsp, 616		; 00000268H
  00013	48 8d 6c 24 20	 lea	 rbp, QWORD PTR [rsp+32]
  00018	48 8b fc	 mov	 rdi, rsp
  0001b	b9 9a 00 00 00	 mov	 ecx, 154		; 0000009aH
  00020	b8 cc cc cc cc	 mov	 eax, -858993460		; ccccccccH
  00025	f3 ab		 rep stosd
  00027	48 8b 8c 24 88
	02 00 00	 mov	 rcx, QWORD PTR [rsp+648]
  0002f	48 c7 85 28 02
	00 00 fe ff ff
	ff		 mov	 QWORD PTR $T7[rbp], -2
  0003a	48 8d 0d 00 00
	00 00		 lea	 rcx, OFFSET FLAT:__D969B5A7_pmc_bitwiseor@cpp
  00041	e8 00 00 00 00	 call	 __CheckForDebuggerJustMyCode

; 405  :         if (u == nullptr)

  00046	48 83 bd 60 02
	00 00 00	 cmp	 QWORD PTR u$[rbp], 0
  0004e	75 2d		 jne	 SHORT $LN2@PMC_Bitwis

; 406  :             throw ArgumentNullException(L"nullptr", L"u");

  00050	4c 8d 05 00 00
	00 00		 lea	 r8, OFFSET FLAT:??_C@_13ICFKHAEN@?$AAu@
  00057	48 8d 15 00 00
	00 00		 lea	 rdx, OFFSET FLAT:??_C@_1CK@ECFIEPAC@?$AA?$BF?$AAp?$AAk?$AAn?$AAu?$AAl?$AAl?$AAp?$AAt?$AAr?$AAL?$AA?$AO?$AAH?$PP?$IJ?$PP?$IM@
  0005e	48 8d 8d 68 01
	00 00		 lea	 rcx, QWORD PTR $T4[rbp]
  00065	e8 00 00 00 00	 call	 ??0ArgumentNullException@Internal@Core@Math@Palmtree@@QEAA@PEB_W0@Z ; Palmtree::Math::Core::Internal::ArgumentNullException::ArgumentNullException
  0006a	48 8d 15 00 00
	00 00		 lea	 rdx, OFFSET FLAT:_TI2?AVArgumentNullException@Internal@Core@Math@Palmtree@@
  00071	48 8d 8d 68 01
	00 00		 lea	 rcx, QWORD PTR $T4[rbp]
  00078	e8 00 00 00 00	 call	 _CxxThrowException
$LN2@PMC_Bitwis:

; 407  :         if (v == nullptr)

  0007d	48 83 bd 68 02
	00 00 00	 cmp	 QWORD PTR v$[rbp], 0
  00085	75 2d		 jne	 SHORT $LN3@PMC_Bitwis

; 408  :             throw ArgumentNullException(L"nullptr", L"v");

  00087	4c 8d 05 00 00
	00 00		 lea	 r8, OFFSET FLAT:??_C@_13JAOPNPKD@?$AAv@
  0008e	48 8d 15 00 00
	00 00		 lea	 rdx, OFFSET FLAT:??_C@_1CK@ECFIEPAC@?$AA?$BF?$AAp?$AAk?$AAn?$AAu?$AAl?$AAl?$AAp?$AAt?$AAr?$AAL?$AA?$AO?$AAH?$PP?$IJ?$PP?$IM@
  00095	48 8d 8d b8 01
	00 00		 lea	 rcx, QWORD PTR $T5[rbp]
  0009c	e8 00 00 00 00	 call	 ??0ArgumentNullException@Internal@Core@Math@Palmtree@@QEAA@PEB_W0@Z ; Palmtree::Math::Core::Internal::ArgumentNullException::ArgumentNullException
  000a1	48 8d 15 00 00
	00 00		 lea	 rdx, OFFSET FLAT:_TI2?AVArgumentNullException@Internal@Core@Math@Palmtree@@
  000a8	48 8d 8d b8 01
	00 00		 lea	 rcx, QWORD PTR $T5[rbp]
  000af	e8 00 00 00 00	 call	 _CxxThrowException
$LN3@PMC_Bitwis:

; 409  :         NUMBER_HEADER* nu = (NUMBER_HEADER*)u;

  000b4	48 8b 85 60 02
	00 00		 mov	 rax, QWORD PTR u$[rbp]
  000bb	48 89 45 08	 mov	 QWORD PTR nu$[rbp], rax

; 410  :         NUMBER_HEADER* nv = (NUMBER_HEADER*)v;

  000bf	48 8b 85 68 02
	00 00		 mov	 rax, QWORD PTR v$[rbp]
  000c6	48 89 45 28	 mov	 QWORD PTR nv$[rbp], rax

; 411  :         CheckNumber(nu);

  000ca	48 8b 4d 08	 mov	 rcx, QWORD PTR nu$[rbp]
  000ce	e8 00 00 00 00	 call	 ?CheckNumber@Internal@Core@Math@Palmtree@@YAXPEAU__tag_NUMBER_HEADER@1234@@Z ; Palmtree::Math::Core::Internal::CheckNumber

; 412  :         CheckNumber(nv);

  000d3	48 8b 4d 28	 mov	 rcx, QWORD PTR nv$[rbp]
  000d7	e8 00 00 00 00	 call	 ?CheckNumber@Internal@Core@Math@Palmtree@@YAXPEAU__tag_NUMBER_HEADER@1234@@Z ; Palmtree::Math::Core::Internal::CheckNumber

; 413  :         ResourceHolderUINT root;

  000dc	48 8d 4d 48	 lea	 rcx, QWORD PTR root$[rbp]
  000e0	e8 00 00 00 00	 call	 ??0ResourceHolderUINT@Internal@Core@Math@Palmtree@@QEAA@XZ ; Palmtree::Math::Core::Internal::ResourceHolderUINT::ResourceHolderUINT
  000e5	90		 npad	 1

; 414  :         NUMBER_HEADER* nw = PMC_BitwiseOr_X_X_Imp(nu, nv);

  000e6	48 8b 55 28	 mov	 rdx, QWORD PTR nv$[rbp]
  000ea	48 8b 4d 08	 mov	 rcx, QWORD PTR nu$[rbp]
  000ee	e8 00 00 00 00	 call	 ?PMC_BitwiseOr_X_X_Imp@Internal@Core@Math@Palmtree@@YAPEAU__tag_NUMBER_HEADER@1234@PEAU51234@0@Z ; Palmtree::Math::Core::Internal::PMC_BitwiseOr_X_X_Imp
  000f3	48 89 85 88 00
	00 00		 mov	 QWORD PTR nw$[rbp], rax

; 415  :         root.HookNumber(nw);

  000fa	48 8b 95 88 00
	00 00		 mov	 rdx, QWORD PTR nw$[rbp]
  00101	48 8d 4d 48	 lea	 rcx, QWORD PTR root$[rbp]
  00105	e8 00 00 00 00	 call	 ?HookNumber@ResourceHolderUINT@Internal@Core@Math@Palmtree@@QEAAXPEAU__tag_NUMBER_HEADER@2345@@Z ; Palmtree::Math::Core::Internal::ResourceHolderUINT::HookNumber

; 416  : #ifdef _DEBUG
; 417  :         CheckNumber(nw);

  0010a	48 8b 8d 88 00
	00 00		 mov	 rcx, QWORD PTR nw$[rbp]
  00111	e8 00 00 00 00	 call	 ?CheckNumber@Internal@Core@Math@Palmtree@@YAXPEAU__tag_NUMBER_HEADER@1234@@Z ; Palmtree::Math::Core::Internal::CheckNumber

; 418  : #endif
; 419  :         root.UnlinkNumber(nw);

  00116	48 8b 95 88 00
	00 00		 mov	 rdx, QWORD PTR nw$[rbp]
  0011d	48 8d 4d 48	 lea	 rcx, QWORD PTR root$[rbp]
  00121	e8 00 00 00 00	 call	 ?UnlinkNumber@ResourceHolderUINT@Internal@Core@Math@Palmtree@@QEAAXPEAU__tag_NUMBER_HEADER@2345@@Z ; Palmtree::Math::Core::Internal::ResourceHolderUINT::UnlinkNumber

; 420  :         return ((PMC_HANDLE_UINT)nw);

  00126	48 8b 85 88 00
	00 00		 mov	 rax, QWORD PTR nw$[rbp]
  0012d	48 89 85 08 02
	00 00		 mov	 QWORD PTR $T6[rbp], rax
  00134	48 8d 4d 48	 lea	 rcx, QWORD PTR root$[rbp]
  00138	e8 00 00 00 00	 call	 ??1ResourceHolderUINT@Internal@Core@Math@Palmtree@@UEAA@XZ ; Palmtree::Math::Core::Internal::ResourceHolderUINT::~ResourceHolderUINT
  0013d	48 8b 85 08 02
	00 00		 mov	 rax, QWORD PTR $T6[rbp]

; 421  :     }

  00144	48 8b f8	 mov	 rdi, rax
  00147	48 8d 4d e0	 lea	 rcx, QWORD PTR [rbp-32]
  0014b	48 8d 15 00 00
	00 00		 lea	 rdx, OFFSET FLAT:?PMC_BitwiseOr_X_X@Internal@Core@Math@Palmtree@@YAPEAU__tag_PMC_HANDLE_UINT@1234@PEAU51234@0@Z$rtcFrameData
  00152	e8 00 00 00 00	 call	 _RTC_CheckStackVars
  00157	48 8b c7	 mov	 rax, rdi
  0015a	48 8d a5 48 02
	00 00		 lea	 rsp, QWORD PTR [rbp+584]
  00161	5f		 pop	 rdi
  00162	5d		 pop	 rbp
  00163	c3		 ret	 0
$LN6@PMC_Bitwis:
?PMC_BitwiseOr_X_X@Internal@Core@Math@Palmtree@@YAPEAU__tag_PMC_HANDLE_UINT@1234@PEAU51234@0@Z ENDP ; Palmtree::Math::Core::Internal::PMC_BitwiseOr_X_X
_TEXT	ENDS
;	COMDAT text$x
text$x	SEGMENT
nu$ = 8
nv$ = 40
root$ = 72
nw$ = 136
$T4 = 360
$T5 = 440
$T6 = 520
$T7 = 552
u$ = 608
v$ = 616
?dtor$0@?0??PMC_BitwiseOr_X_X@Internal@Core@Math@Palmtree@@YAPEAU__tag_PMC_HANDLE_UINT@1234@PEAU51234@0@Z@4HA PROC ; `Palmtree::Math::Core::Internal::PMC_BitwiseOr_X_X'::`1'::dtor$0
  00000	48 89 4c 24 08	 mov	 QWORD PTR [rsp+8], rcx
  00005	48 89 54 24 10	 mov	 QWORD PTR [rsp+16], rdx
  0000a	55		 push	 rbp
  0000b	57		 push	 rdi
  0000c	48 83 ec 28	 sub	 rsp, 40			; 00000028H
  00010	48 8d 6a 20	 lea	 rbp, QWORD PTR [rdx+32]
  00014	48 8d 4d 48	 lea	 rcx, QWORD PTR root$[rbp]
  00018	e8 00 00 00 00	 call	 ??1ResourceHolderUINT@Internal@Core@Math@Palmtree@@UEAA@XZ ; Palmtree::Math::Core::Internal::ResourceHolderUINT::~ResourceHolderUINT
  0001d	48 83 c4 28	 add	 rsp, 40			; 00000028H
  00021	5f		 pop	 rdi
  00022	5d		 pop	 rbp
  00023	c3		 ret	 0
?dtor$0@?0??PMC_BitwiseOr_X_X@Internal@Core@Math@Palmtree@@YAPEAU__tag_PMC_HANDLE_UINT@1234@PEAU51234@0@Z@4HA ENDP ; `Palmtree::Math::Core::Internal::PMC_BitwiseOr_X_X'::`1'::dtor$0
text$x	ENDS
; Function compile flags: /Odtp /RTCsu /ZI
;	COMDAT text$x
text$x	SEGMENT
nu$ = 8
nv$ = 40
root$ = 72
nw$ = 136
$T4 = 360
$T5 = 440
$T6 = 520
$T7 = 552
u$ = 608
v$ = 616
?dtor$0@?0??PMC_BitwiseOr_X_X@Internal@Core@Math@Palmtree@@YAPEAU__tag_PMC_HANDLE_UINT@1234@PEAU51234@0@Z@4HA PROC ; `Palmtree::Math::Core::Internal::PMC_BitwiseOr_X_X'::`1'::dtor$0
  00000	48 89 4c 24 08	 mov	 QWORD PTR [rsp+8], rcx
  00005	48 89 54 24 10	 mov	 QWORD PTR [rsp+16], rdx
  0000a	55		 push	 rbp
  0000b	57		 push	 rdi
  0000c	48 83 ec 28	 sub	 rsp, 40			; 00000028H
  00010	48 8d 6a 20	 lea	 rbp, QWORD PTR [rdx+32]
  00014	48 8d 4d 48	 lea	 rcx, QWORD PTR root$[rbp]
  00018	e8 00 00 00 00	 call	 ??1ResourceHolderUINT@Internal@Core@Math@Palmtree@@UEAA@XZ ; Palmtree::Math::Core::Internal::ResourceHolderUINT::~ResourceHolderUINT
  0001d	48 83 c4 28	 add	 rsp, 40			; 00000028H
  00021	5f		 pop	 rdi
  00022	5d		 pop	 rbp
  00023	c3		 ret	 0
?dtor$0@?0??PMC_BitwiseOr_X_X@Internal@Core@Math@Palmtree@@YAPEAU__tag_PMC_HANDLE_UINT@1234@PEAU51234@0@Z@4HA ENDP ; `Palmtree::Math::Core::Internal::PMC_BitwiseOr_X_X'::`1'::dtor$0
text$x	ENDS
; Function compile flags: /Odtp /RTCsu /ZI
; File z:\sources\lunor\repos\rougemeilland\palmtree.math.core.uint\palmtree.math.core.uint\pmc_bitwiseor.cpp
;	COMDAT ?PMC_BitwiseOr_X_L@Internal@Core@Math@Palmtree@@YAPEAU__tag_PMC_HANDLE_UINT@1234@PEAU51234@_K@Z
_TEXT	SEGMENT
root$ = 8
w$ = 72
$T4 = 296
$T5 = 376
$T6 = 456
$T7 = 488
u$ = 544
v$ = 552
?PMC_BitwiseOr_X_L@Internal@Core@Math@Palmtree@@YAPEAU__tag_PMC_HANDLE_UINT@1234@PEAU51234@_K@Z PROC ; Palmtree::Math::Core::Internal::PMC_BitwiseOr_X_L, COMDAT

; 357  :     {

$LN7:
  00000	48 89 54 24 10	 mov	 QWORD PTR [rsp+16], rdx
  00005	48 89 4c 24 08	 mov	 QWORD PTR [rsp+8], rcx
  0000a	55		 push	 rbp
  0000b	57		 push	 rdi
  0000c	48 81 ec 28 02
	00 00		 sub	 rsp, 552		; 00000228H
  00013	48 8d 6c 24 20	 lea	 rbp, QWORD PTR [rsp+32]
  00018	48 8b fc	 mov	 rdi, rsp
  0001b	b9 8a 00 00 00	 mov	 ecx, 138		; 0000008aH
  00020	b8 cc cc cc cc	 mov	 eax, -858993460		; ccccccccH
  00025	f3 ab		 rep stosd
  00027	48 8b 8c 24 48
	02 00 00	 mov	 rcx, QWORD PTR [rsp+584]
  0002f	48 c7 85 e8 01
	00 00 fe ff ff
	ff		 mov	 QWORD PTR $T7[rbp], -2
  0003a	48 8d 0d 00 00
	00 00		 lea	 rcx, OFFSET FLAT:__D969B5A7_pmc_bitwiseor@cpp
  00041	e8 00 00 00 00	 call	 __CheckForDebuggerJustMyCode

; 358  :         if (__UNIT_TYPE_BIT_COUNT * 2 < sizeof(v) * 8)

  00046	33 c0		 xor	 eax, eax
  00048	85 c0		 test	 eax, eax
  0004a	74 2d		 je	 SHORT $LN2@PMC_Bitwis

; 359  :         {
; 360  :             // _UINT64_T  2 
; 361  :             throw InternalErrorException(L"", L"pmc_bitwiseor.cpp;PMC_BitwiseOr_X_L;1");

  0004c	4c 8d 05 00 00
	00 00		 lea	 r8, OFFSET FLAT:??_C@_1EM@IIOLBANL@?$AAp?$AAm?$AAc?$AA_?$AAb?$AAi?$AAt?$AAw?$AAi?$AAs?$AAe?$AAo?$AAr?$AA?4?$AAc@
  00053	48 8d 15 00 00
	00 00		 lea	 rdx, OFFSET FLAT:??_C@_1CG@CNOPPENL@?$PP?$II?$AA?$BP?$AAW?$AAf?$AAD?$AAj?$AAD?$PP?$LD?$PP?$PM?$PP?I?$AAk?$AA0?$AAT?$AAW?$AA?$HO@
  0005a	48 8d 8d 28 01
	00 00		 lea	 rcx, QWORD PTR $T4[rbp]
  00061	e8 00 00 00 00	 call	 ??0InternalErrorException@Internal@Core@Math@Palmtree@@QEAA@PEB_W0@Z ; Palmtree::Math::Core::Internal::InternalErrorException::InternalErrorException
  00066	48 8d 15 00 00
	00 00		 lea	 rdx, OFFSET FLAT:_TI2?AVInternalErrorException@Internal@Core@Math@Palmtree@@
  0006d	48 8d 8d 28 01
	00 00		 lea	 rcx, QWORD PTR $T4[rbp]
  00074	e8 00 00 00 00	 call	 _CxxThrowException
$LN2@PMC_Bitwis:

; 362  :         }
; 363  :         if (u == nullptr)

  00079	48 83 bd 20 02
	00 00 00	 cmp	 QWORD PTR u$[rbp], 0
  00081	75 2d		 jne	 SHORT $LN3@PMC_Bitwis

; 364  :             throw ArgumentNullException(L"nullptr", L"u");

  00083	4c 8d 05 00 00
	00 00		 lea	 r8, OFFSET FLAT:??_C@_13ICFKHAEN@?$AAu@
  0008a	48 8d 15 00 00
	00 00		 lea	 rdx, OFFSET FLAT:??_C@_1CK@ECFIEPAC@?$AA?$BF?$AAp?$AAk?$AAn?$AAu?$AAl?$AAl?$AAp?$AAt?$AAr?$AAL?$AA?$AO?$AAH?$PP?$IJ?$PP?$IM@
  00091	48 8d 8d 78 01
	00 00		 lea	 rcx, QWORD PTR $T5[rbp]
  00098	e8 00 00 00 00	 call	 ??0ArgumentNullException@Internal@Core@Math@Palmtree@@QEAA@PEB_W0@Z ; Palmtree::Math::Core::Internal::ArgumentNullException::ArgumentNullException
  0009d	48 8d 15 00 00
	00 00		 lea	 rdx, OFFSET FLAT:_TI2?AVArgumentNullException@Internal@Core@Math@Palmtree@@
  000a4	48 8d 8d 78 01
	00 00		 lea	 rcx, QWORD PTR $T5[rbp]
  000ab	e8 00 00 00 00	 call	 _CxxThrowException
$LN3@PMC_Bitwis:

; 365  :         CheckNumber((NUMBER_HEADER*)u);

  000b0	48 8b 8d 20 02
	00 00		 mov	 rcx, QWORD PTR u$[rbp]
  000b7	e8 00 00 00 00	 call	 ?CheckNumber@Internal@Core@Math@Palmtree@@YAXPEAU__tag_NUMBER_HEADER@1234@@Z ; Palmtree::Math::Core::Internal::CheckNumber

; 366  :         ResourceHolderUINT root;

  000bc	48 8d 4d 08	 lea	 rcx, QWORD PTR root$[rbp]
  000c0	e8 00 00 00 00	 call	 ??0ResourceHolderUINT@Internal@Core@Math@Palmtree@@QEAA@XZ ; Palmtree::Math::Core::Internal::ResourceHolderUINT::ResourceHolderUINT
  000c5	90		 npad	 1

; 367  :         NUMBER_HEADER* w = PMC_BitwiseOr_X_L_Imp((NUMBER_HEADER*)u, v);

  000c6	48 8b 95 28 02
	00 00		 mov	 rdx, QWORD PTR v$[rbp]
  000cd	48 8b 8d 20 02
	00 00		 mov	 rcx, QWORD PTR u$[rbp]
  000d4	e8 00 00 00 00	 call	 ?PMC_BitwiseOr_X_L_Imp@Internal@Core@Math@Palmtree@@YAPEAU__tag_NUMBER_HEADER@1234@PEAU51234@_K@Z ; Palmtree::Math::Core::Internal::PMC_BitwiseOr_X_L_Imp
  000d9	48 89 45 48	 mov	 QWORD PTR w$[rbp], rax

; 368  :         root.HookNumber(w);

  000dd	48 8b 55 48	 mov	 rdx, QWORD PTR w$[rbp]
  000e1	48 8d 4d 08	 lea	 rcx, QWORD PTR root$[rbp]
  000e5	e8 00 00 00 00	 call	 ?HookNumber@ResourceHolderUINT@Internal@Core@Math@Palmtree@@QEAAXPEAU__tag_NUMBER_HEADER@2345@@Z ; Palmtree::Math::Core::Internal::ResourceHolderUINT::HookNumber

; 369  : #ifdef _DEBUG
; 370  :         CheckNumber(w);

  000ea	48 8b 4d 48	 mov	 rcx, QWORD PTR w$[rbp]
  000ee	e8 00 00 00 00	 call	 ?CheckNumber@Internal@Core@Math@Palmtree@@YAXPEAU__tag_NUMBER_HEADER@1234@@Z ; Palmtree::Math::Core::Internal::CheckNumber

; 371  : #endif
; 372  :         root.UnlinkNumber(w);

  000f3	48 8b 55 48	 mov	 rdx, QWORD PTR w$[rbp]
  000f7	48 8d 4d 08	 lea	 rcx, QWORD PTR root$[rbp]
  000fb	e8 00 00 00 00	 call	 ?UnlinkNumber@ResourceHolderUINT@Internal@Core@Math@Palmtree@@QEAAXPEAU__tag_NUMBER_HEADER@2345@@Z ; Palmtree::Math::Core::Internal::ResourceHolderUINT::UnlinkNumber

; 373  :         return ((PMC_HANDLE_UINT)w);

  00100	48 8b 45 48	 mov	 rax, QWORD PTR w$[rbp]
  00104	48 89 85 c8 01
	00 00		 mov	 QWORD PTR $T6[rbp], rax
  0010b	48 8d 4d 08	 lea	 rcx, QWORD PTR root$[rbp]
  0010f	e8 00 00 00 00	 call	 ??1ResourceHolderUINT@Internal@Core@Math@Palmtree@@UEAA@XZ ; Palmtree::Math::Core::Internal::ResourceHolderUINT::~ResourceHolderUINT
  00114	48 8b 85 c8 01
	00 00		 mov	 rax, QWORD PTR $T6[rbp]

; 374  :     }

  0011b	48 8b f8	 mov	 rdi, rax
  0011e	48 8d 4d e0	 lea	 rcx, QWORD PTR [rbp-32]
  00122	48 8d 15 00 00
	00 00		 lea	 rdx, OFFSET FLAT:?PMC_BitwiseOr_X_L@Internal@Core@Math@Palmtree@@YAPEAU__tag_PMC_HANDLE_UINT@1234@PEAU51234@_K@Z$rtcFrameData
  00129	e8 00 00 00 00	 call	 _RTC_CheckStackVars
  0012e	48 8b c7	 mov	 rax, rdi
  00131	48 8d a5 08 02
	00 00		 lea	 rsp, QWORD PTR [rbp+520]
  00138	5f		 pop	 rdi
  00139	5d		 pop	 rbp
  0013a	c3		 ret	 0
$LN6@PMC_Bitwis:
?PMC_BitwiseOr_X_L@Internal@Core@Math@Palmtree@@YAPEAU__tag_PMC_HANDLE_UINT@1234@PEAU51234@_K@Z ENDP ; Palmtree::Math::Core::Internal::PMC_BitwiseOr_X_L
_TEXT	ENDS
;	COMDAT text$x
text$x	SEGMENT
root$ = 8
w$ = 72
$T4 = 296
$T5 = 376
$T6 = 456
$T7 = 488
u$ = 544
v$ = 552
?dtor$0@?0??PMC_BitwiseOr_X_L@Internal@Core@Math@Palmtree@@YAPEAU__tag_PMC_HANDLE_UINT@1234@PEAU51234@_K@Z@4HA PROC ; `Palmtree::Math::Core::Internal::PMC_BitwiseOr_X_L'::`1'::dtor$0
  00000	48 89 4c 24 08	 mov	 QWORD PTR [rsp+8], rcx
  00005	48 89 54 24 10	 mov	 QWORD PTR [rsp+16], rdx
  0000a	55		 push	 rbp
  0000b	57		 push	 rdi
  0000c	48 83 ec 28	 sub	 rsp, 40			; 00000028H
  00010	48 8d 6a 20	 lea	 rbp, QWORD PTR [rdx+32]
  00014	48 8d 4d 08	 lea	 rcx, QWORD PTR root$[rbp]
  00018	e8 00 00 00 00	 call	 ??1ResourceHolderUINT@Internal@Core@Math@Palmtree@@UEAA@XZ ; Palmtree::Math::Core::Internal::ResourceHolderUINT::~ResourceHolderUINT
  0001d	48 83 c4 28	 add	 rsp, 40			; 00000028H
  00021	5f		 pop	 rdi
  00022	5d		 pop	 rbp
  00023	c3		 ret	 0
?dtor$0@?0??PMC_BitwiseOr_X_L@Internal@Core@Math@Palmtree@@YAPEAU__tag_PMC_HANDLE_UINT@1234@PEAU51234@_K@Z@4HA ENDP ; `Palmtree::Math::Core::Internal::PMC_BitwiseOr_X_L'::`1'::dtor$0
text$x	ENDS
; Function compile flags: /Odtp /RTCsu /ZI
;	COMDAT text$x
text$x	SEGMENT
root$ = 8
w$ = 72
$T4 = 296
$T5 = 376
$T6 = 456
$T7 = 488
u$ = 544
v$ = 552
?dtor$0@?0??PMC_BitwiseOr_X_L@Internal@Core@Math@Palmtree@@YAPEAU__tag_PMC_HANDLE_UINT@1234@PEAU51234@_K@Z@4HA PROC ; `Palmtree::Math::Core::Internal::PMC_BitwiseOr_X_L'::`1'::dtor$0
  00000	48 89 4c 24 08	 mov	 QWORD PTR [rsp+8], rcx
  00005	48 89 54 24 10	 mov	 QWORD PTR [rsp+16], rdx
  0000a	55		 push	 rbp
  0000b	57		 push	 rdi
  0000c	48 83 ec 28	 sub	 rsp, 40			; 00000028H
  00010	48 8d 6a 20	 lea	 rbp, QWORD PTR [rdx+32]
  00014	48 8d 4d 08	 lea	 rcx, QWORD PTR root$[rbp]
  00018	e8 00 00 00 00	 call	 ??1ResourceHolderUINT@Internal@Core@Math@Palmtree@@UEAA@XZ ; Palmtree::Math::Core::Internal::ResourceHolderUINT::~ResourceHolderUINT
  0001d	48 83 c4 28	 add	 rsp, 40			; 00000028H
  00021	5f		 pop	 rdi
  00022	5d		 pop	 rbp
  00023	c3		 ret	 0
?dtor$0@?0??PMC_BitwiseOr_X_L@Internal@Core@Math@Palmtree@@YAPEAU__tag_PMC_HANDLE_UINT@1234@PEAU51234@_K@Z@4HA ENDP ; `Palmtree::Math::Core::Internal::PMC_BitwiseOr_X_L'::`1'::dtor$0
text$x	ENDS
; Function compile flags: /Odtp /RTCsu /ZI
; File z:\sources\lunor\repos\rougemeilland\palmtree.math.core.uint\palmtree.math.core.uint\pmc_bitwiseor.cpp
;	COMDAT ?PMC_BitwiseOr_X_I@Internal@Core@Math@Palmtree@@YAPEAU__tag_PMC_HANDLE_UINT@1234@PEAU51234@I@Z
_TEXT	SEGMENT
root$ = 8
nw$ = 72
$T4 = 296
$T5 = 376
$T6 = 456
$T7 = 488
u$ = 544
v$ = 552
?PMC_BitwiseOr_X_I@Internal@Core@Math@Palmtree@@YAPEAU__tag_PMC_HANDLE_UINT@1234@PEAU51234@I@Z PROC ; Palmtree::Math::Core::Internal::PMC_BitwiseOr_X_I, COMDAT

; 243  :     {

$LN7:
  00000	89 54 24 10	 mov	 DWORD PTR [rsp+16], edx
  00004	48 89 4c 24 08	 mov	 QWORD PTR [rsp+8], rcx
  00009	55		 push	 rbp
  0000a	57		 push	 rdi
  0000b	48 81 ec 28 02
	00 00		 sub	 rsp, 552		; 00000228H
  00012	48 8d 6c 24 20	 lea	 rbp, QWORD PTR [rsp+32]
  00017	48 8b fc	 mov	 rdi, rsp
  0001a	b9 8a 00 00 00	 mov	 ecx, 138		; 0000008aH
  0001f	b8 cc cc cc cc	 mov	 eax, -858993460		; ccccccccH
  00024	f3 ab		 rep stosd
  00026	48 8b 8c 24 48
	02 00 00	 mov	 rcx, QWORD PTR [rsp+584]
  0002e	48 c7 85 e8 01
	00 00 fe ff ff
	ff		 mov	 QWORD PTR $T7[rbp], -2
  00039	48 8d 0d 00 00
	00 00		 lea	 rcx, OFFSET FLAT:__D969B5A7_pmc_bitwiseor@cpp
  00040	e8 00 00 00 00	 call	 __CheckForDebuggerJustMyCode

; 244  :         if (__UNIT_TYPE_BIT_COUNT < sizeof(v) * 8)

  00045	33 c0		 xor	 eax, eax
  00047	85 c0		 test	 eax, eax
  00049	74 2d		 je	 SHORT $LN2@PMC_Bitwis

; 245  :         {
; 246  :             // _UINT32_T  1 
; 247  :             throw InternalErrorException(L"", L"pmc_bitwiseor.cpp;PMC_BitwiseOr_X_I;1");

  0004b	4c 8d 05 00 00
	00 00		 lea	 r8, OFFSET FLAT:??_C@_1EM@MAALBOLP@?$AAp?$AAm?$AAc?$AA_?$AAb?$AAi?$AAt?$AAw?$AAi?$AAs?$AAe?$AAo?$AAr?$AA?4?$AAc@
  00052	48 8d 15 00 00
	00 00		 lea	 rdx, OFFSET FLAT:??_C@_1CG@CNOPPENL@?$PP?$II?$AA?$BP?$AAW?$AAf?$AAD?$AAj?$AAD?$PP?$LD?$PP?$PM?$PP?I?$AAk?$AA0?$AAT?$AAW?$AA?$HO@
  00059	48 8d 8d 28 01
	00 00		 lea	 rcx, QWORD PTR $T4[rbp]
  00060	e8 00 00 00 00	 call	 ??0InternalErrorException@Internal@Core@Math@Palmtree@@QEAA@PEB_W0@Z ; Palmtree::Math::Core::Internal::InternalErrorException::InternalErrorException
  00065	48 8d 15 00 00
	00 00		 lea	 rdx, OFFSET FLAT:_TI2?AVInternalErrorException@Internal@Core@Math@Palmtree@@
  0006c	48 8d 8d 28 01
	00 00		 lea	 rcx, QWORD PTR $T4[rbp]
  00073	e8 00 00 00 00	 call	 _CxxThrowException
$LN2@PMC_Bitwis:

; 248  :         }
; 249  :         if (u == nullptr)

  00078	48 83 bd 20 02
	00 00 00	 cmp	 QWORD PTR u$[rbp], 0
  00080	75 2d		 jne	 SHORT $LN3@PMC_Bitwis

; 250  :             throw ArgumentNullException(L"nullptr", L"u");

  00082	4c 8d 05 00 00
	00 00		 lea	 r8, OFFSET FLAT:??_C@_13ICFKHAEN@?$AAu@
  00089	48 8d 15 00 00
	00 00		 lea	 rdx, OFFSET FLAT:??_C@_1CK@ECFIEPAC@?$AA?$BF?$AAp?$AAk?$AAn?$AAu?$AAl?$AAl?$AAp?$AAt?$AAr?$AAL?$AA?$AO?$AAH?$PP?$IJ?$PP?$IM@
  00090	48 8d 8d 78 01
	00 00		 lea	 rcx, QWORD PTR $T5[rbp]
  00097	e8 00 00 00 00	 call	 ??0ArgumentNullException@Internal@Core@Math@Palmtree@@QEAA@PEB_W0@Z ; Palmtree::Math::Core::Internal::ArgumentNullException::ArgumentNullException
  0009c	48 8d 15 00 00
	00 00		 lea	 rdx, OFFSET FLAT:_TI2?AVArgumentNullException@Internal@Core@Math@Palmtree@@
  000a3	48 8d 8d 78 01
	00 00		 lea	 rcx, QWORD PTR $T5[rbp]
  000aa	e8 00 00 00 00	 call	 _CxxThrowException
$LN3@PMC_Bitwis:

; 251  :         CheckNumber((NUMBER_HEADER*)u);

  000af	48 8b 8d 20 02
	00 00		 mov	 rcx, QWORD PTR u$[rbp]
  000b6	e8 00 00 00 00	 call	 ?CheckNumber@Internal@Core@Math@Palmtree@@YAXPEAU__tag_NUMBER_HEADER@1234@@Z ; Palmtree::Math::Core::Internal::CheckNumber

; 252  :         ResourceHolderUINT root;

  000bb	48 8d 4d 08	 lea	 rcx, QWORD PTR root$[rbp]
  000bf	e8 00 00 00 00	 call	 ??0ResourceHolderUINT@Internal@Core@Math@Palmtree@@QEAA@XZ ; Palmtree::Math::Core::Internal::ResourceHolderUINT::ResourceHolderUINT
  000c4	90		 npad	 1

; 253  :         NUMBER_HEADER* nw = PMC_BitwiseOr_X_I_Imp((NUMBER_HEADER*)u, v);

  000c5	8b 95 28 02 00
	00		 mov	 edx, DWORD PTR v$[rbp]
  000cb	48 8b 8d 20 02
	00 00		 mov	 rcx, QWORD PTR u$[rbp]
  000d2	e8 00 00 00 00	 call	 ?PMC_BitwiseOr_X_I_Imp@Internal@Core@Math@Palmtree@@YAPEAU__tag_NUMBER_HEADER@1234@PEAU51234@I@Z ; Palmtree::Math::Core::Internal::PMC_BitwiseOr_X_I_Imp
  000d7	48 89 45 48	 mov	 QWORD PTR nw$[rbp], rax

; 254  :         root.HookNumber(nw);

  000db	48 8b 55 48	 mov	 rdx, QWORD PTR nw$[rbp]
  000df	48 8d 4d 08	 lea	 rcx, QWORD PTR root$[rbp]
  000e3	e8 00 00 00 00	 call	 ?HookNumber@ResourceHolderUINT@Internal@Core@Math@Palmtree@@QEAAXPEAU__tag_NUMBER_HEADER@2345@@Z ; Palmtree::Math::Core::Internal::ResourceHolderUINT::HookNumber

; 255  : #ifdef _DEBUG
; 256  :         CheckNumber(nw);

  000e8	48 8b 4d 48	 mov	 rcx, QWORD PTR nw$[rbp]
  000ec	e8 00 00 00 00	 call	 ?CheckNumber@Internal@Core@Math@Palmtree@@YAXPEAU__tag_NUMBER_HEADER@1234@@Z ; Palmtree::Math::Core::Internal::CheckNumber

; 257  : #endif
; 258  :         root.UnlinkNumber(nw);

  000f1	48 8b 55 48	 mov	 rdx, QWORD PTR nw$[rbp]
  000f5	48 8d 4d 08	 lea	 rcx, QWORD PTR root$[rbp]
  000f9	e8 00 00 00 00	 call	 ?UnlinkNumber@ResourceHolderUINT@Internal@Core@Math@Palmtree@@QEAAXPEAU__tag_NUMBER_HEADER@2345@@Z ; Palmtree::Math::Core::Internal::ResourceHolderUINT::UnlinkNumber

; 259  :         return ((PMC_HANDLE_UINT)nw);

  000fe	48 8b 45 48	 mov	 rax, QWORD PTR nw$[rbp]
  00102	48 89 85 c8 01
	00 00		 mov	 QWORD PTR $T6[rbp], rax
  00109	48 8d 4d 08	 lea	 rcx, QWORD PTR root$[rbp]
  0010d	e8 00 00 00 00	 call	 ??1ResourceHolderUINT@Internal@Core@Math@Palmtree@@UEAA@XZ ; Palmtree::Math::Core::Internal::ResourceHolderUINT::~ResourceHolderUINT
  00112	48 8b 85 c8 01
	00 00		 mov	 rax, QWORD PTR $T6[rbp]

; 260  :     }

  00119	48 8b f8	 mov	 rdi, rax
  0011c	48 8d 4d e0	 lea	 rcx, QWORD PTR [rbp-32]
  00120	48 8d 15 00 00
	00 00		 lea	 rdx, OFFSET FLAT:?PMC_BitwiseOr_X_I@Internal@Core@Math@Palmtree@@YAPEAU__tag_PMC_HANDLE_UINT@1234@PEAU51234@I@Z$rtcFrameData
  00127	e8 00 00 00 00	 call	 _RTC_CheckStackVars
  0012c	48 8b c7	 mov	 rax, rdi
  0012f	48 8d a5 08 02
	00 00		 lea	 rsp, QWORD PTR [rbp+520]
  00136	5f		 pop	 rdi
  00137	5d		 pop	 rbp
  00138	c3		 ret	 0
$LN6@PMC_Bitwis:
?PMC_BitwiseOr_X_I@Internal@Core@Math@Palmtree@@YAPEAU__tag_PMC_HANDLE_UINT@1234@PEAU51234@I@Z ENDP ; Palmtree::Math::Core::Internal::PMC_BitwiseOr_X_I
_TEXT	ENDS
;	COMDAT text$x
text$x	SEGMENT
root$ = 8
nw$ = 72
$T4 = 296
$T5 = 376
$T6 = 456
$T7 = 488
u$ = 544
v$ = 552
?dtor$0@?0??PMC_BitwiseOr_X_I@Internal@Core@Math@Palmtree@@YAPEAU__tag_PMC_HANDLE_UINT@1234@PEAU51234@I@Z@4HA PROC ; `Palmtree::Math::Core::Internal::PMC_BitwiseOr_X_I'::`1'::dtor$0
  00000	48 89 4c 24 08	 mov	 QWORD PTR [rsp+8], rcx
  00005	48 89 54 24 10	 mov	 QWORD PTR [rsp+16], rdx
  0000a	55		 push	 rbp
  0000b	57		 push	 rdi
  0000c	48 83 ec 28	 sub	 rsp, 40			; 00000028H
  00010	48 8d 6a 20	 lea	 rbp, QWORD PTR [rdx+32]
  00014	48 8d 4d 08	 lea	 rcx, QWORD PTR root$[rbp]
  00018	e8 00 00 00 00	 call	 ??1ResourceHolderUINT@Internal@Core@Math@Palmtree@@UEAA@XZ ; Palmtree::Math::Core::Internal::ResourceHolderUINT::~ResourceHolderUINT
  0001d	48 83 c4 28	 add	 rsp, 40			; 00000028H
  00021	5f		 pop	 rdi
  00022	5d		 pop	 rbp
  00023	c3		 ret	 0
?dtor$0@?0??PMC_BitwiseOr_X_I@Internal@Core@Math@Palmtree@@YAPEAU__tag_PMC_HANDLE_UINT@1234@PEAU51234@I@Z@4HA ENDP ; `Palmtree::Math::Core::Internal::PMC_BitwiseOr_X_I'::`1'::dtor$0
text$x	ENDS
; Function compile flags: /Odtp /RTCsu /ZI
;	COMDAT text$x
text$x	SEGMENT
root$ = 8
nw$ = 72
$T4 = 296
$T5 = 376
$T6 = 456
$T7 = 488
u$ = 544
v$ = 552
?dtor$0@?0??PMC_BitwiseOr_X_I@Internal@Core@Math@Palmtree@@YAPEAU__tag_PMC_HANDLE_UINT@1234@PEAU51234@I@Z@4HA PROC ; `Palmtree::Math::Core::Internal::PMC_BitwiseOr_X_I'::`1'::dtor$0
  00000	48 89 4c 24 08	 mov	 QWORD PTR [rsp+8], rcx
  00005	48 89 54 24 10	 mov	 QWORD PTR [rsp+16], rdx
  0000a	55		 push	 rbp
  0000b	57		 push	 rdi
  0000c	48 83 ec 28	 sub	 rsp, 40			; 00000028H
  00010	48 8d 6a 20	 lea	 rbp, QWORD PTR [rdx+32]
  00014	48 8d 4d 08	 lea	 rcx, QWORD PTR root$[rbp]
  00018	e8 00 00 00 00	 call	 ??1ResourceHolderUINT@Internal@Core@Math@Palmtree@@UEAA@XZ ; Palmtree::Math::Core::Internal::ResourceHolderUINT::~ResourceHolderUINT
  0001d	48 83 c4 28	 add	 rsp, 40			; 00000028H
  00021	5f		 pop	 rdi
  00022	5d		 pop	 rbp
  00023	c3		 ret	 0
?dtor$0@?0??PMC_BitwiseOr_X_I@Internal@Core@Math@Palmtree@@YAPEAU__tag_PMC_HANDLE_UINT@1234@PEAU51234@I@Z@4HA ENDP ; `Palmtree::Math::Core::Internal::PMC_BitwiseOr_X_I'::`1'::dtor$0
text$x	ENDS
; Function compile flags: /Odtp /RTCsu /ZI
; File z:\sources\lunor\repos\rougemeilland\palmtree.math.core.uint\palmtree.math.core.uint\pmc_bitwiseor.cpp
;	COMDAT ?PMC_BitwiseOr_L_X@Internal@Core@Math@Palmtree@@YAPEAU__tag_PMC_HANDLE_UINT@1234@_KPEAU51234@@Z
_TEXT	SEGMENT
root$ = 8
w$ = 72
$T4 = 296
$T5 = 376
$T6 = 456
$T7 = 488
u$ = 544
v$ = 552
?PMC_BitwiseOr_L_X@Internal@Core@Math@Palmtree@@YAPEAU__tag_PMC_HANDLE_UINT@1234@_KPEAU51234@@Z PROC ; Palmtree::Math::Core::Internal::PMC_BitwiseOr_L_X, COMDAT

; 337  :     {

$LN7:
  00000	48 89 54 24 10	 mov	 QWORD PTR [rsp+16], rdx
  00005	48 89 4c 24 08	 mov	 QWORD PTR [rsp+8], rcx
  0000a	55		 push	 rbp
  0000b	57		 push	 rdi
  0000c	48 81 ec 28 02
	00 00		 sub	 rsp, 552		; 00000228H
  00013	48 8d 6c 24 20	 lea	 rbp, QWORD PTR [rsp+32]
  00018	48 8b fc	 mov	 rdi, rsp
  0001b	b9 8a 00 00 00	 mov	 ecx, 138		; 0000008aH
  00020	b8 cc cc cc cc	 mov	 eax, -858993460		; ccccccccH
  00025	f3 ab		 rep stosd
  00027	48 8b 8c 24 48
	02 00 00	 mov	 rcx, QWORD PTR [rsp+584]
  0002f	48 c7 85 e8 01
	00 00 fe ff ff
	ff		 mov	 QWORD PTR $T7[rbp], -2
  0003a	48 8d 0d 00 00
	00 00		 lea	 rcx, OFFSET FLAT:__D969B5A7_pmc_bitwiseor@cpp
  00041	e8 00 00 00 00	 call	 __CheckForDebuggerJustMyCode

; 338  :         if (__UNIT_TYPE_BIT_COUNT * 2 < sizeof(u) * 8)

  00046	33 c0		 xor	 eax, eax
  00048	85 c0		 test	 eax, eax
  0004a	74 2d		 je	 SHORT $LN2@PMC_Bitwis

; 339  :         {
; 340  :             // _UINT64_T  2 
; 341  :             throw InternalErrorException(L"", L"pmc_bitwiseor.cpp;PMC_BitwiseOr_L_X;1");

  0004c	4c 8d 05 00 00
	00 00		 lea	 r8, OFFSET FLAT:??_C@_1EM@HPAEPJIJ@?$AAp?$AAm?$AAc?$AA_?$AAb?$AAi?$AAt?$AAw?$AAi?$AAs?$AAe?$AAo?$AAr?$AA?4?$AAc@
  00053	48 8d 15 00 00
	00 00		 lea	 rdx, OFFSET FLAT:??_C@_1CG@CNOPPENL@?$PP?$II?$AA?$BP?$AAW?$AAf?$AAD?$AAj?$AAD?$PP?$LD?$PP?$PM?$PP?I?$AAk?$AA0?$AAT?$AAW?$AA?$HO@
  0005a	48 8d 8d 28 01
	00 00		 lea	 rcx, QWORD PTR $T4[rbp]
  00061	e8 00 00 00 00	 call	 ??0InternalErrorException@Internal@Core@Math@Palmtree@@QEAA@PEB_W0@Z ; Palmtree::Math::Core::Internal::InternalErrorException::InternalErrorException
  00066	48 8d 15 00 00
	00 00		 lea	 rdx, OFFSET FLAT:_TI2?AVInternalErrorException@Internal@Core@Math@Palmtree@@
  0006d	48 8d 8d 28 01
	00 00		 lea	 rcx, QWORD PTR $T4[rbp]
  00074	e8 00 00 00 00	 call	 _CxxThrowException
$LN2@PMC_Bitwis:

; 342  :         }
; 343  :         if (v == nullptr)

  00079	48 83 bd 28 02
	00 00 00	 cmp	 QWORD PTR v$[rbp], 0
  00081	75 2d		 jne	 SHORT $LN3@PMC_Bitwis

; 344  :             throw ArgumentNullException(L"nullptr", L"v");

  00083	4c 8d 05 00 00
	00 00		 lea	 r8, OFFSET FLAT:??_C@_13JAOPNPKD@?$AAv@
  0008a	48 8d 15 00 00
	00 00		 lea	 rdx, OFFSET FLAT:??_C@_1CK@ECFIEPAC@?$AA?$BF?$AAp?$AAk?$AAn?$AAu?$AAl?$AAl?$AAp?$AAt?$AAr?$AAL?$AA?$AO?$AAH?$PP?$IJ?$PP?$IM@
  00091	48 8d 8d 78 01
	00 00		 lea	 rcx, QWORD PTR $T5[rbp]
  00098	e8 00 00 00 00	 call	 ??0ArgumentNullException@Internal@Core@Math@Palmtree@@QEAA@PEB_W0@Z ; Palmtree::Math::Core::Internal::ArgumentNullException::ArgumentNullException
  0009d	48 8d 15 00 00
	00 00		 lea	 rdx, OFFSET FLAT:_TI2?AVArgumentNullException@Internal@Core@Math@Palmtree@@
  000a4	48 8d 8d 78 01
	00 00		 lea	 rcx, QWORD PTR $T5[rbp]
  000ab	e8 00 00 00 00	 call	 _CxxThrowException
$LN3@PMC_Bitwis:

; 345  :         CheckNumber((NUMBER_HEADER*)v);

  000b0	48 8b 8d 28 02
	00 00		 mov	 rcx, QWORD PTR v$[rbp]
  000b7	e8 00 00 00 00	 call	 ?CheckNumber@Internal@Core@Math@Palmtree@@YAXPEAU__tag_NUMBER_HEADER@1234@@Z ; Palmtree::Math::Core::Internal::CheckNumber

; 346  :         ResourceHolderUINT root;

  000bc	48 8d 4d 08	 lea	 rcx, QWORD PTR root$[rbp]
  000c0	e8 00 00 00 00	 call	 ??0ResourceHolderUINT@Internal@Core@Math@Palmtree@@QEAA@XZ ; Palmtree::Math::Core::Internal::ResourceHolderUINT::ResourceHolderUINT
  000c5	90		 npad	 1

; 347  :         NUMBER_HEADER* w = PMC_BitwiseOr_X_L_Imp((NUMBER_HEADER*)v, u);

  000c6	48 8b 95 20 02
	00 00		 mov	 rdx, QWORD PTR u$[rbp]
  000cd	48 8b 8d 28 02
	00 00		 mov	 rcx, QWORD PTR v$[rbp]
  000d4	e8 00 00 00 00	 call	 ?PMC_BitwiseOr_X_L_Imp@Internal@Core@Math@Palmtree@@YAPEAU__tag_NUMBER_HEADER@1234@PEAU51234@_K@Z ; Palmtree::Math::Core::Internal::PMC_BitwiseOr_X_L_Imp
  000d9	48 89 45 48	 mov	 QWORD PTR w$[rbp], rax

; 348  :         root.HookNumber(w);

  000dd	48 8b 55 48	 mov	 rdx, QWORD PTR w$[rbp]
  000e1	48 8d 4d 08	 lea	 rcx, QWORD PTR root$[rbp]
  000e5	e8 00 00 00 00	 call	 ?HookNumber@ResourceHolderUINT@Internal@Core@Math@Palmtree@@QEAAXPEAU__tag_NUMBER_HEADER@2345@@Z ; Palmtree::Math::Core::Internal::ResourceHolderUINT::HookNumber

; 349  : #ifdef _DEBUG
; 350  :         CheckNumber(w);

  000ea	48 8b 4d 48	 mov	 rcx, QWORD PTR w$[rbp]
  000ee	e8 00 00 00 00	 call	 ?CheckNumber@Internal@Core@Math@Palmtree@@YAXPEAU__tag_NUMBER_HEADER@1234@@Z ; Palmtree::Math::Core::Internal::CheckNumber

; 351  : #endif
; 352  :         root.UnlinkNumber(w);

  000f3	48 8b 55 48	 mov	 rdx, QWORD PTR w$[rbp]
  000f7	48 8d 4d 08	 lea	 rcx, QWORD PTR root$[rbp]
  000fb	e8 00 00 00 00	 call	 ?UnlinkNumber@ResourceHolderUINT@Internal@Core@Math@Palmtree@@QEAAXPEAU__tag_NUMBER_HEADER@2345@@Z ; Palmtree::Math::Core::Internal::ResourceHolderUINT::UnlinkNumber

; 353  :         return ((PMC_HANDLE_UINT)w);

  00100	48 8b 45 48	 mov	 rax, QWORD PTR w$[rbp]
  00104	48 89 85 c8 01
	00 00		 mov	 QWORD PTR $T6[rbp], rax
  0010b	48 8d 4d 08	 lea	 rcx, QWORD PTR root$[rbp]
  0010f	e8 00 00 00 00	 call	 ??1ResourceHolderUINT@Internal@Core@Math@Palmtree@@UEAA@XZ ; Palmtree::Math::Core::Internal::ResourceHolderUINT::~ResourceHolderUINT
  00114	48 8b 85 c8 01
	00 00		 mov	 rax, QWORD PTR $T6[rbp]

; 354  :     }

  0011b	48 8b f8	 mov	 rdi, rax
  0011e	48 8d 4d e0	 lea	 rcx, QWORD PTR [rbp-32]
  00122	48 8d 15 00 00
	00 00		 lea	 rdx, OFFSET FLAT:?PMC_BitwiseOr_L_X@Internal@Core@Math@Palmtree@@YAPEAU__tag_PMC_HANDLE_UINT@1234@_KPEAU51234@@Z$rtcFrameData
  00129	e8 00 00 00 00	 call	 _RTC_CheckStackVars
  0012e	48 8b c7	 mov	 rax, rdi
  00131	48 8d a5 08 02
	00 00		 lea	 rsp, QWORD PTR [rbp+520]
  00138	5f		 pop	 rdi
  00139	5d		 pop	 rbp
  0013a	c3		 ret	 0
$LN6@PMC_Bitwis:
?PMC_BitwiseOr_L_X@Internal@Core@Math@Palmtree@@YAPEAU__tag_PMC_HANDLE_UINT@1234@_KPEAU51234@@Z ENDP ; Palmtree::Math::Core::Internal::PMC_BitwiseOr_L_X
_TEXT	ENDS
;	COMDAT text$x
text$x	SEGMENT
root$ = 8
w$ = 72
$T4 = 296
$T5 = 376
$T6 = 456
$T7 = 488
u$ = 544
v$ = 552
?dtor$0@?0??PMC_BitwiseOr_L_X@Internal@Core@Math@Palmtree@@YAPEAU__tag_PMC_HANDLE_UINT@1234@_KPEAU51234@@Z@4HA PROC ; `Palmtree::Math::Core::Internal::PMC_BitwiseOr_L_X'::`1'::dtor$0
  00000	48 89 4c 24 08	 mov	 QWORD PTR [rsp+8], rcx
  00005	48 89 54 24 10	 mov	 QWORD PTR [rsp+16], rdx
  0000a	55		 push	 rbp
  0000b	57		 push	 rdi
  0000c	48 83 ec 28	 sub	 rsp, 40			; 00000028H
  00010	48 8d 6a 20	 lea	 rbp, QWORD PTR [rdx+32]
  00014	48 8d 4d 08	 lea	 rcx, QWORD PTR root$[rbp]
  00018	e8 00 00 00 00	 call	 ??1ResourceHolderUINT@Internal@Core@Math@Palmtree@@UEAA@XZ ; Palmtree::Math::Core::Internal::ResourceHolderUINT::~ResourceHolderUINT
  0001d	48 83 c4 28	 add	 rsp, 40			; 00000028H
  00021	5f		 pop	 rdi
  00022	5d		 pop	 rbp
  00023	c3		 ret	 0
?dtor$0@?0??PMC_BitwiseOr_L_X@Internal@Core@Math@Palmtree@@YAPEAU__tag_PMC_HANDLE_UINT@1234@_KPEAU51234@@Z@4HA ENDP ; `Palmtree::Math::Core::Internal::PMC_BitwiseOr_L_X'::`1'::dtor$0
text$x	ENDS
; Function compile flags: /Odtp /RTCsu /ZI
;	COMDAT text$x
text$x	SEGMENT
root$ = 8
w$ = 72
$T4 = 296
$T5 = 376
$T6 = 456
$T7 = 488
u$ = 544
v$ = 552
?dtor$0@?0??PMC_BitwiseOr_L_X@Internal@Core@Math@Palmtree@@YAPEAU__tag_PMC_HANDLE_UINT@1234@_KPEAU51234@@Z@4HA PROC ; `Palmtree::Math::Core::Internal::PMC_BitwiseOr_L_X'::`1'::dtor$0
  00000	48 89 4c 24 08	 mov	 QWORD PTR [rsp+8], rcx
  00005	48 89 54 24 10	 mov	 QWORD PTR [rsp+16], rdx
  0000a	55		 push	 rbp
  0000b	57		 push	 rdi
  0000c	48 83 ec 28	 sub	 rsp, 40			; 00000028H
  00010	48 8d 6a 20	 lea	 rbp, QWORD PTR [rdx+32]
  00014	48 8d 4d 08	 lea	 rcx, QWORD PTR root$[rbp]
  00018	e8 00 00 00 00	 call	 ??1ResourceHolderUINT@Internal@Core@Math@Palmtree@@UEAA@XZ ; Palmtree::Math::Core::Internal::ResourceHolderUINT::~ResourceHolderUINT
  0001d	48 83 c4 28	 add	 rsp, 40			; 00000028H
  00021	5f		 pop	 rdi
  00022	5d		 pop	 rbp
  00023	c3		 ret	 0
?dtor$0@?0??PMC_BitwiseOr_L_X@Internal@Core@Math@Palmtree@@YAPEAU__tag_PMC_HANDLE_UINT@1234@_KPEAU51234@@Z@4HA ENDP ; `Palmtree::Math::Core::Internal::PMC_BitwiseOr_L_X'::`1'::dtor$0
text$x	ENDS
; Function compile flags: /Odtp /RTCsu /ZI
; File z:\sources\lunor\repos\rougemeilland\palmtree.math.core.uint\palmtree.math.core.uint\pmc_bitwiseor.cpp
;	COMDAT ?PMC_BitwiseOr_I_X@Internal@Core@Math@Palmtree@@YAPEAU__tag_PMC_HANDLE_UINT@1234@IPEAU51234@@Z
_TEXT	SEGMENT
root$ = 8
nw$ = 72
$T4 = 296
$T5 = 376
$T6 = 456
$T7 = 488
u$ = 544
v$ = 552
?PMC_BitwiseOr_I_X@Internal@Core@Math@Palmtree@@YAPEAU__tag_PMC_HANDLE_UINT@1234@IPEAU51234@@Z PROC ; Palmtree::Math::Core::Internal::PMC_BitwiseOr_I_X, COMDAT

; 223  :     {

$LN7:
  00000	48 89 54 24 10	 mov	 QWORD PTR [rsp+16], rdx
  00005	89 4c 24 08	 mov	 DWORD PTR [rsp+8], ecx
  00009	55		 push	 rbp
  0000a	57		 push	 rdi
  0000b	48 81 ec 28 02
	00 00		 sub	 rsp, 552		; 00000228H
  00012	48 8d 6c 24 20	 lea	 rbp, QWORD PTR [rsp+32]
  00017	48 8b fc	 mov	 rdi, rsp
  0001a	b9 8a 00 00 00	 mov	 ecx, 138		; 0000008aH
  0001f	b8 cc cc cc cc	 mov	 eax, -858993460		; ccccccccH
  00024	f3 ab		 rep stosd
  00026	8b 8c 24 48 02
	00 00		 mov	 ecx, DWORD PTR [rsp+584]
  0002d	48 c7 85 e8 01
	00 00 fe ff ff
	ff		 mov	 QWORD PTR $T7[rbp], -2
  00038	48 8d 0d 00 00
	00 00		 lea	 rcx, OFFSET FLAT:__D969B5A7_pmc_bitwiseor@cpp
  0003f	e8 00 00 00 00	 call	 __CheckForDebuggerJustMyCode

; 224  :         if (__UNIT_TYPE_BIT_COUNT < sizeof(u) * 8)

  00044	33 c0		 xor	 eax, eax
  00046	85 c0		 test	 eax, eax
  00048	74 2d		 je	 SHORT $LN2@PMC_Bitwis

; 225  :         {
; 226  :             // _UINT32_T  1 
; 227  :             throw InternalErrorException(L"", L"pmc_bitwiseor.cpp;PMC_BitwiseOr_I_X;1");

  0004a	4c 8d 05 00 00
	00 00		 lea	 r8, OFFSET FLAT:??_C@_1EM@OHKHIOJJ@?$AAp?$AAm?$AAc?$AA_?$AAb?$AAi?$AAt?$AAw?$AAi?$AAs?$AAe?$AAo?$AAr?$AA?4?$AAc@
  00051	48 8d 15 00 00
	00 00		 lea	 rdx, OFFSET FLAT:??_C@_1CG@CNOPPENL@?$PP?$II?$AA?$BP?$AAW?$AAf?$AAD?$AAj?$AAD?$PP?$LD?$PP?$PM?$PP?I?$AAk?$AA0?$AAT?$AAW?$AA?$HO@
  00058	48 8d 8d 28 01
	00 00		 lea	 rcx, QWORD PTR $T4[rbp]
  0005f	e8 00 00 00 00	 call	 ??0InternalErrorException@Internal@Core@Math@Palmtree@@QEAA@PEB_W0@Z ; Palmtree::Math::Core::Internal::InternalErrorException::InternalErrorException
  00064	48 8d 15 00 00
	00 00		 lea	 rdx, OFFSET FLAT:_TI2?AVInternalErrorException@Internal@Core@Math@Palmtree@@
  0006b	48 8d 8d 28 01
	00 00		 lea	 rcx, QWORD PTR $T4[rbp]
  00072	e8 00 00 00 00	 call	 _CxxThrowException
$LN2@PMC_Bitwis:

; 228  :         }
; 229  :         if (v == nullptr)

  00077	48 83 bd 28 02
	00 00 00	 cmp	 QWORD PTR v$[rbp], 0
  0007f	75 2d		 jne	 SHORT $LN3@PMC_Bitwis

; 230  :             throw ArgumentNullException(L"nullptr", L"v");

  00081	4c 8d 05 00 00
	00 00		 lea	 r8, OFFSET FLAT:??_C@_13JAOPNPKD@?$AAv@
  00088	48 8d 15 00 00
	00 00		 lea	 rdx, OFFSET FLAT:??_C@_1CK@ECFIEPAC@?$AA?$BF?$AAp?$AAk?$AAn?$AAu?$AAl?$AAl?$AAp?$AAt?$AAr?$AAL?$AA?$AO?$AAH?$PP?$IJ?$PP?$IM@
  0008f	48 8d 8d 78 01
	00 00		 lea	 rcx, QWORD PTR $T5[rbp]
  00096	e8 00 00 00 00	 call	 ??0ArgumentNullException@Internal@Core@Math@Palmtree@@QEAA@PEB_W0@Z ; Palmtree::Math::Core::Internal::ArgumentNullException::ArgumentNullException
  0009b	48 8d 15 00 00
	00 00		 lea	 rdx, OFFSET FLAT:_TI2?AVArgumentNullException@Internal@Core@Math@Palmtree@@
  000a2	48 8d 8d 78 01
	00 00		 lea	 rcx, QWORD PTR $T5[rbp]
  000a9	e8 00 00 00 00	 call	 _CxxThrowException
$LN3@PMC_Bitwis:

; 231  :         CheckNumber((NUMBER_HEADER*)v);

  000ae	48 8b 8d 28 02
	00 00		 mov	 rcx, QWORD PTR v$[rbp]
  000b5	e8 00 00 00 00	 call	 ?CheckNumber@Internal@Core@Math@Palmtree@@YAXPEAU__tag_NUMBER_HEADER@1234@@Z ; Palmtree::Math::Core::Internal::CheckNumber

; 232  :         ResourceHolderUINT root;

  000ba	48 8d 4d 08	 lea	 rcx, QWORD PTR root$[rbp]
  000be	e8 00 00 00 00	 call	 ??0ResourceHolderUINT@Internal@Core@Math@Palmtree@@QEAA@XZ ; Palmtree::Math::Core::Internal::ResourceHolderUINT::ResourceHolderUINT
  000c3	90		 npad	 1

; 233  :         NUMBER_HEADER* nw = PMC_BitwiseOr_X_I_Imp((NUMBER_HEADER*)v, u);

  000c4	8b 95 20 02 00
	00		 mov	 edx, DWORD PTR u$[rbp]
  000ca	48 8b 8d 28 02
	00 00		 mov	 rcx, QWORD PTR v$[rbp]
  000d1	e8 00 00 00 00	 call	 ?PMC_BitwiseOr_X_I_Imp@Internal@Core@Math@Palmtree@@YAPEAU__tag_NUMBER_HEADER@1234@PEAU51234@I@Z ; Palmtree::Math::Core::Internal::PMC_BitwiseOr_X_I_Imp
  000d6	48 89 45 48	 mov	 QWORD PTR nw$[rbp], rax

; 234  :         root.HookNumber(nw);

  000da	48 8b 55 48	 mov	 rdx, QWORD PTR nw$[rbp]
  000de	48 8d 4d 08	 lea	 rcx, QWORD PTR root$[rbp]
  000e2	e8 00 00 00 00	 call	 ?HookNumber@ResourceHolderUINT@Internal@Core@Math@Palmtree@@QEAAXPEAU__tag_NUMBER_HEADER@2345@@Z ; Palmtree::Math::Core::Internal::ResourceHolderUINT::HookNumber

; 235  : #ifdef _DEBUG
; 236  :         CheckNumber(nw);

  000e7	48 8b 4d 48	 mov	 rcx, QWORD PTR nw$[rbp]
  000eb	e8 00 00 00 00	 call	 ?CheckNumber@Internal@Core@Math@Palmtree@@YAXPEAU__tag_NUMBER_HEADER@1234@@Z ; Palmtree::Math::Core::Internal::CheckNumber

; 237  : #endif
; 238  :         root.UnlinkNumber(nw);

  000f0	48 8b 55 48	 mov	 rdx, QWORD PTR nw$[rbp]
  000f4	48 8d 4d 08	 lea	 rcx, QWORD PTR root$[rbp]
  000f8	e8 00 00 00 00	 call	 ?UnlinkNumber@ResourceHolderUINT@Internal@Core@Math@Palmtree@@QEAAXPEAU__tag_NUMBER_HEADER@2345@@Z ; Palmtree::Math::Core::Internal::ResourceHolderUINT::UnlinkNumber

; 239  :         return ((PMC_HANDLE_UINT)nw);

  000fd	48 8b 45 48	 mov	 rax, QWORD PTR nw$[rbp]
  00101	48 89 85 c8 01
	00 00		 mov	 QWORD PTR $T6[rbp], rax
  00108	48 8d 4d 08	 lea	 rcx, QWORD PTR root$[rbp]
  0010c	e8 00 00 00 00	 call	 ??1ResourceHolderUINT@Internal@Core@Math@Palmtree@@UEAA@XZ ; Palmtree::Math::Core::Internal::ResourceHolderUINT::~ResourceHolderUINT
  00111	48 8b 85 c8 01
	00 00		 mov	 rax, QWORD PTR $T6[rbp]

; 240  :     }

  00118	48 8b f8	 mov	 rdi, rax
  0011b	48 8d 4d e0	 lea	 rcx, QWORD PTR [rbp-32]
  0011f	48 8d 15 00 00
	00 00		 lea	 rdx, OFFSET FLAT:?PMC_BitwiseOr_I_X@Internal@Core@Math@Palmtree@@YAPEAU__tag_PMC_HANDLE_UINT@1234@IPEAU51234@@Z$rtcFrameData
  00126	e8 00 00 00 00	 call	 _RTC_CheckStackVars
  0012b	48 8b c7	 mov	 rax, rdi
  0012e	48 8d a5 08 02
	00 00		 lea	 rsp, QWORD PTR [rbp+520]
  00135	5f		 pop	 rdi
  00136	5d		 pop	 rbp
  00137	c3		 ret	 0
$LN6@PMC_Bitwis:
?PMC_BitwiseOr_I_X@Internal@Core@Math@Palmtree@@YAPEAU__tag_PMC_HANDLE_UINT@1234@IPEAU51234@@Z ENDP ; Palmtree::Math::Core::Internal::PMC_BitwiseOr_I_X
_TEXT	ENDS
;	COMDAT text$x
text$x	SEGMENT
root$ = 8
nw$ = 72
$T4 = 296
$T5 = 376
$T6 = 456
$T7 = 488
u$ = 544
v$ = 552
?dtor$0@?0??PMC_BitwiseOr_I_X@Internal@Core@Math@Palmtree@@YAPEAU__tag_PMC_HANDLE_UINT@1234@IPEAU51234@@Z@4HA PROC ; `Palmtree::Math::Core::Internal::PMC_BitwiseOr_I_X'::`1'::dtor$0
  00000	48 89 4c 24 08	 mov	 QWORD PTR [rsp+8], rcx
  00005	48 89 54 24 10	 mov	 QWORD PTR [rsp+16], rdx
  0000a	55		 push	 rbp
  0000b	57		 push	 rdi
  0000c	48 83 ec 28	 sub	 rsp, 40			; 00000028H
  00010	48 8d 6a 20	 lea	 rbp, QWORD PTR [rdx+32]
  00014	48 8d 4d 08	 lea	 rcx, QWORD PTR root$[rbp]
  00018	e8 00 00 00 00	 call	 ??1ResourceHolderUINT@Internal@Core@Math@Palmtree@@UEAA@XZ ; Palmtree::Math::Core::Internal::ResourceHolderUINT::~ResourceHolderUINT
  0001d	48 83 c4 28	 add	 rsp, 40			; 00000028H
  00021	5f		 pop	 rdi
  00022	5d		 pop	 rbp
  00023	c3		 ret	 0
?dtor$0@?0??PMC_BitwiseOr_I_X@Internal@Core@Math@Palmtree@@YAPEAU__tag_PMC_HANDLE_UINT@1234@IPEAU51234@@Z@4HA ENDP ; `Palmtree::Math::Core::Internal::PMC_BitwiseOr_I_X'::`1'::dtor$0
text$x	ENDS
; Function compile flags: /Odtp /RTCsu /ZI
;	COMDAT text$x
text$x	SEGMENT
root$ = 8
nw$ = 72
$T4 = 296
$T5 = 376
$T6 = 456
$T7 = 488
u$ = 544
v$ = 552
?dtor$0@?0??PMC_BitwiseOr_I_X@Internal@Core@Math@Palmtree@@YAPEAU__tag_PMC_HANDLE_UINT@1234@IPEAU51234@@Z@4HA PROC ; `Palmtree::Math::Core::Internal::PMC_BitwiseOr_I_X'::`1'::dtor$0
  00000	48 89 4c 24 08	 mov	 QWORD PTR [rsp+8], rcx
  00005	48 89 54 24 10	 mov	 QWORD PTR [rsp+16], rdx
  0000a	55		 push	 rbp
  0000b	57		 push	 rdi
  0000c	48 83 ec 28	 sub	 rsp, 40			; 00000028H
  00010	48 8d 6a 20	 lea	 rbp, QWORD PTR [rdx+32]
  00014	48 8d 4d 08	 lea	 rcx, QWORD PTR root$[rbp]
  00018	e8 00 00 00 00	 call	 ??1ResourceHolderUINT@Internal@Core@Math@Palmtree@@UEAA@XZ ; Palmtree::Math::Core::Internal::ResourceHolderUINT::~ResourceHolderUINT
  0001d	48 83 c4 28	 add	 rsp, 40			; 00000028H
  00021	5f		 pop	 rdi
  00022	5d		 pop	 rbp
  00023	c3		 ret	 0
?dtor$0@?0??PMC_BitwiseOr_I_X@Internal@Core@Math@Palmtree@@YAPEAU__tag_PMC_HANDLE_UINT@1234@IPEAU51234@@Z@4HA ENDP ; `Palmtree::Math::Core::Internal::PMC_BitwiseOr_I_X'::`1'::dtor$0
text$x	ENDS
; Function compile flags: /Odtp /RTCsu /ZI
; File z:\sources\lunor\repos\rougemeilland\palmtree.math.core.uint\palmtree.math.core.uint\pmc_bitwiseor.cpp
;	COMDAT ?Initialize_BitwiseOr@Internal@Core@Math@Palmtree@@YAHPEAU_tag_PROCESSOR_FEATURES@1234@@Z
_TEXT	SEGMENT
feature$ = 224
?Initialize_BitwiseOr@Internal@Core@Math@Palmtree@@YAHPEAU_tag_PROCESSOR_FEATURES@1234@@Z PROC ; Palmtree::Math::Core::Internal::Initialize_BitwiseOr, COMDAT

; 424  :     {

$LN3:
  00000	48 89 4c 24 08	 mov	 QWORD PTR [rsp+8], rcx
  00005	55		 push	 rbp
  00006	57		 push	 rdi
  00007	48 81 ec e8 00
	00 00		 sub	 rsp, 232		; 000000e8H
  0000e	48 8d 6c 24 20	 lea	 rbp, QWORD PTR [rsp+32]
  00013	48 8b fc	 mov	 rdi, rsp
  00016	b9 3a 00 00 00	 mov	 ecx, 58			; 0000003aH
  0001b	b8 cc cc cc cc	 mov	 eax, -858993460		; ccccccccH
  00020	f3 ab		 rep stosd
  00022	48 8b 8c 24 08
	01 00 00	 mov	 rcx, QWORD PTR [rsp+264]
  0002a	48 8d 0d 00 00
	00 00		 lea	 rcx, OFFSET FLAT:__D969B5A7_pmc_bitwiseor@cpp
  00031	e8 00 00 00 00	 call	 __CheckForDebuggerJustMyCode

; 425  :         return (PMC_STATUS_OK);

  00036	33 c0		 xor	 eax, eax

; 426  :     }

  00038	48 8d a5 c8 00
	00 00		 lea	 rsp, QWORD PTR [rbp+200]
  0003f	5f		 pop	 rdi
  00040	5d		 pop	 rbp
  00041	c3		 ret	 0
?Initialize_BitwiseOr@Internal@Core@Math@Palmtree@@YAHPEAU_tag_PROCESSOR_FEATURES@1234@@Z ENDP ; Palmtree::Math::Core::Internal::Initialize_BitwiseOr
_TEXT	ENDS
; Function compile flags: /Odtp /RTCsu /ZI
;	COMDAT ??_GInternalErrorException@Internal@Core@Math@Palmtree@@UEAAPEAXI@Z
_TEXT	SEGMENT
this$ = 224
__flags$ = 232
??_GInternalErrorException@Internal@Core@Math@Palmtree@@UEAAPEAXI@Z PROC ; Palmtree::Math::Core::Internal::InternalErrorException::`scalar deleting destructor', COMDAT
$LN4:
  00000	89 54 24 10	 mov	 DWORD PTR [rsp+16], edx
  00004	48 89 4c 24 08	 mov	 QWORD PTR [rsp+8], rcx
  00009	55		 push	 rbp
  0000a	57		 push	 rdi
  0000b	48 81 ec e8 00
	00 00		 sub	 rsp, 232		; 000000e8H
  00012	48 8d 6c 24 20	 lea	 rbp, QWORD PTR [rsp+32]
  00017	48 8b fc	 mov	 rdi, rsp
  0001a	b9 3a 00 00 00	 mov	 ecx, 58			; 0000003aH
  0001f	b8 cc cc cc cc	 mov	 eax, -858993460		; ccccccccH
  00024	f3 ab		 rep stosd
  00026	48 8b 8c 24 08
	01 00 00	 mov	 rcx, QWORD PTR [rsp+264]
  0002e	48 8b 8d e0 00
	00 00		 mov	 rcx, QWORD PTR this$[rbp]
  00035	e8 00 00 00 00	 call	 ??1InternalErrorException@Internal@Core@Math@Palmtree@@UEAA@XZ ; Palmtree::Math::Core::Internal::InternalErrorException::~InternalErrorException
  0003a	8b 85 e8 00 00
	00		 mov	 eax, DWORD PTR __flags$[rbp]
  00040	83 e0 01	 and	 eax, 1
  00043	85 c0		 test	 eax, eax
  00045	74 11		 je	 SHORT $LN2@scalar
  00047	ba 30 00 00 00	 mov	 edx, 48			; 00000030H
  0004c	48 8b 8d e0 00
	00 00		 mov	 rcx, QWORD PTR this$[rbp]
  00053	e8 00 00 00 00	 call	 ??3@YAXPEAX_K@Z		; operator delete
$LN2@scalar:
  00058	48 8b 85 e0 00
	00 00		 mov	 rax, QWORD PTR this$[rbp]
  0005f	48 8d a5 c8 00
	00 00		 lea	 rsp, QWORD PTR [rbp+200]
  00066	5f		 pop	 rdi
  00067	5d		 pop	 rbp
  00068	c3		 ret	 0
??_GInternalErrorException@Internal@Core@Math@Palmtree@@UEAAPEAXI@Z ENDP ; Palmtree::Math::Core::Internal::InternalErrorException::`scalar deleting destructor'
_TEXT	ENDS
; Function compile flags: /Odtp /RTCsu /ZI
; File z:\sources\lunor\repos\rougemeilland\palmtree.math.core.uint\palmtree.math.core.uint\pmc_exception.h
;	COMDAT ??1InternalErrorException@Internal@Core@Math@Palmtree@@UEAA@XZ
_TEXT	SEGMENT
$T1 = 200
this$ = 256
??1InternalErrorException@Internal@Core@Math@Palmtree@@UEAA@XZ PROC ; Palmtree::Math::Core::Internal::InternalErrorException::~InternalErrorException, COMDAT

; 295  :         {

$LN4:
  00000	48 89 4c 24 08	 mov	 QWORD PTR [rsp+8], rcx
  00005	55		 push	 rbp
  00006	57		 push	 rdi
  00007	48 81 ec 08 01
	00 00		 sub	 rsp, 264		; 00000108H
  0000e	48 8d 6c 24 20	 lea	 rbp, QWORD PTR [rsp+32]
  00013	48 8b fc	 mov	 rdi, rsp
  00016	b9 42 00 00 00	 mov	 ecx, 66			; 00000042H
  0001b	b8 cc cc cc cc	 mov	 eax, -858993460		; ccccccccH
  00020	f3 ab		 rep stosd
  00022	48 8b 8c 24 28
	01 00 00	 mov	 rcx, QWORD PTR [rsp+296]
  0002a	48 c7 85 c8 00
	00 00 fe ff ff
	ff		 mov	 QWORD PTR $T1[rbp], -2
  00035	48 8d 0d 00 00
	00 00		 lea	 rcx, OFFSET FLAT:__802FEEC0_pmc_exception@h
  0003c	e8 00 00 00 00	 call	 __CheckForDebuggerJustMyCode
  00041	90		 npad	 1
  00042	48 8b 85 00 01
	00 00		 mov	 rax, QWORD PTR this$[rbp]
  00049	48 8d 0d 00 00
	00 00		 lea	 rcx, OFFSET FLAT:??_7InternalErrorException@Internal@Core@Math@Palmtree@@6B@
  00050	48 89 08	 mov	 QWORD PTR [rax], rcx

; 296  :         }

  00053	48 8b 8d 00 01
	00 00		 mov	 rcx, QWORD PTR this$[rbp]
  0005a	e8 00 00 00 00	 call	 ??1Exception@Internal@Core@Math@Palmtree@@UEAA@XZ ; Palmtree::Math::Core::Internal::Exception::~Exception
  0005f	90		 npad	 1
  00060	48 8d a5 e8 00
	00 00		 lea	 rsp, QWORD PTR [rbp+232]
  00067	5f		 pop	 rdi
  00068	5d		 pop	 rbp
  00069	c3		 ret	 0
??1InternalErrorException@Internal@Core@Math@Palmtree@@UEAA@XZ ENDP ; Palmtree::Math::Core::Internal::InternalErrorException::~InternalErrorException
_TEXT	ENDS
;	COMDAT text$x
text$x	SEGMENT
$T1 = 200
this$ = 256
?dtor$0@?0???1InternalErrorException@Internal@Core@Math@Palmtree@@UEAA@XZ@4HA PROC ; `Palmtree::Math::Core::Internal::InternalErrorException::~InternalErrorException'::`1'::dtor$0
  00000	48 89 4c 24 08	 mov	 QWORD PTR [rsp+8], rcx
  00005	48 89 54 24 10	 mov	 QWORD PTR [rsp+16], rdx
  0000a	55		 push	 rbp
  0000b	57		 push	 rdi
  0000c	48 83 ec 28	 sub	 rsp, 40			; 00000028H
  00010	48 8d 6a 20	 lea	 rbp, QWORD PTR [rdx+32]
  00014	48 8b 8d 00 01
	00 00		 mov	 rcx, QWORD PTR this$[rbp]
  0001b	e8 00 00 00 00	 call	 ??1Exception@Internal@Core@Math@Palmtree@@UEAA@XZ ; Palmtree::Math::Core::Internal::Exception::~Exception
  00020	48 83 c4 28	 add	 rsp, 40			; 00000028H
  00024	5f		 pop	 rdi
  00025	5d		 pop	 rbp
  00026	c3		 ret	 0
?dtor$0@?0???1InternalErrorException@Internal@Core@Math@Palmtree@@UEAA@XZ@4HA ENDP ; `Palmtree::Math::Core::Internal::InternalErrorException::~InternalErrorException'::`1'::dtor$0
text$x	ENDS
; Function compile flags: /Odtp /RTCsu /ZI
;	COMDAT text$x
text$x	SEGMENT
$T1 = 200
this$ = 256
?dtor$0@?0???1InternalErrorException@Internal@Core@Math@Palmtree@@UEAA@XZ@4HA PROC ; `Palmtree::Math::Core::Internal::InternalErrorException::~InternalErrorException'::`1'::dtor$0
  00000	48 89 4c 24 08	 mov	 QWORD PTR [rsp+8], rcx
  00005	48 89 54 24 10	 mov	 QWORD PTR [rsp+16], rdx
  0000a	55		 push	 rbp
  0000b	57		 push	 rdi
  0000c	48 83 ec 28	 sub	 rsp, 40			; 00000028H
  00010	48 8d 6a 20	 lea	 rbp, QWORD PTR [rdx+32]
  00014	48 8b 8d 00 01
	00 00		 mov	 rcx, QWORD PTR this$[rbp]
  0001b	e8 00 00 00 00	 call	 ??1Exception@Internal@Core@Math@Palmtree@@UEAA@XZ ; Palmtree::Math::Core::Internal::Exception::~Exception
  00020	48 83 c4 28	 add	 rsp, 40			; 00000028H
  00024	5f		 pop	 rdi
  00025	5d		 pop	 rbp
  00026	c3		 ret	 0
?dtor$0@?0???1InternalErrorException@Internal@Core@Math@Palmtree@@UEAA@XZ@4HA ENDP ; `Palmtree::Math::Core::Internal::InternalErrorException::~InternalErrorException'::`1'::dtor$0
text$x	ENDS
; Function compile flags: /Odtp /RTCsu /ZI
; File z:\sources\lunor\repos\rougemeilland\palmtree.math.core.uint\palmtree.math.core.uint\pmc_exception.h
;	COMDAT ??0InternalErrorException@Internal@Core@Math@Palmtree@@QEAA@AEBV01234@@Z
_TEXT	SEGMENT
$T1 = 200
this$ = 256
p$ = 264
??0InternalErrorException@Internal@Core@Math@Palmtree@@QEAA@AEBV01234@@Z PROC ; Palmtree::Math::Core::Internal::InternalErrorException::InternalErrorException, COMDAT

; 291  :         {

$LN4:
  00000	48 89 54 24 10	 mov	 QWORD PTR [rsp+16], rdx
  00005	48 89 4c 24 08	 mov	 QWORD PTR [rsp+8], rcx
  0000a	55		 push	 rbp
  0000b	57		 push	 rdi
  0000c	48 81 ec 08 01
	00 00		 sub	 rsp, 264		; 00000108H
  00013	48 8d 6c 24 20	 lea	 rbp, QWORD PTR [rsp+32]
  00018	48 8b fc	 mov	 rdi, rsp
  0001b	b9 42 00 00 00	 mov	 ecx, 66			; 00000042H
  00020	b8 cc cc cc cc	 mov	 eax, -858993460		; ccccccccH
  00025	f3 ab		 rep stosd
  00027	48 8b 8c 24 28
	01 00 00	 mov	 rcx, QWORD PTR [rsp+296]
  0002f	48 c7 85 c8 00
	00 00 fe ff ff
	ff		 mov	 QWORD PTR $T1[rbp], -2
  0003a	48 8d 0d 00 00
	00 00		 lea	 rcx, OFFSET FLAT:__802FEEC0_pmc_exception@h
  00041	e8 00 00 00 00	 call	 __CheckForDebuggerJustMyCode
  00046	90		 npad	 1

; 290  :             : Exception(p)

  00047	48 8b 95 08 01
	00 00		 mov	 rdx, QWORD PTR p$[rbp]
  0004e	48 8b 8d 00 01
	00 00		 mov	 rcx, QWORD PTR this$[rbp]
  00055	e8 00 00 00 00	 call	 ??0Exception@Internal@Core@Math@Palmtree@@QEAA@AEBV01234@@Z ; Palmtree::Math::Core::Internal::Exception::Exception
  0005a	90		 npad	 1

; 291  :         {

  0005b	48 8b 85 00 01
	00 00		 mov	 rax, QWORD PTR this$[rbp]
  00062	48 8d 0d 00 00
	00 00		 lea	 rcx, OFFSET FLAT:??_7InternalErrorException@Internal@Core@Math@Palmtree@@6B@
  00069	48 89 08	 mov	 QWORD PTR [rax], rcx

; 292  :         }

  0006c	48 8b 85 00 01
	00 00		 mov	 rax, QWORD PTR this$[rbp]
  00073	48 8d a5 e8 00
	00 00		 lea	 rsp, QWORD PTR [rbp+232]
  0007a	5f		 pop	 rdi
  0007b	5d		 pop	 rbp
  0007c	c3		 ret	 0
??0InternalErrorException@Internal@Core@Math@Palmtree@@QEAA@AEBV01234@@Z ENDP ; Palmtree::Math::Core::Internal::InternalErrorException::InternalErrorException
_TEXT	ENDS
;	COMDAT text$x
text$x	SEGMENT
$T1 = 200
this$ = 256
p$ = 264
?dtor$0@?0???0InternalErrorException@Internal@Core@Math@Palmtree@@QEAA@AEBV01234@@Z@4HA PROC ; `Palmtree::Math::Core::Internal::InternalErrorException::InternalErrorException'::`1'::dtor$0
  00000	48 89 4c 24 08	 mov	 QWORD PTR [rsp+8], rcx
  00005	48 89 54 24 10	 mov	 QWORD PTR [rsp+16], rdx
  0000a	55		 push	 rbp
  0000b	57		 push	 rdi
  0000c	48 83 ec 28	 sub	 rsp, 40			; 00000028H
  00010	48 8d 6a 20	 lea	 rbp, QWORD PTR [rdx+32]
  00014	48 8b 8d 00 01
	00 00		 mov	 rcx, QWORD PTR this$[rbp]
  0001b	e8 00 00 00 00	 call	 ??1Exception@Internal@Core@Math@Palmtree@@UEAA@XZ ; Palmtree::Math::Core::Internal::Exception::~Exception
  00020	48 83 c4 28	 add	 rsp, 40			; 00000028H
  00024	5f		 pop	 rdi
  00025	5d		 pop	 rbp
  00026	c3		 ret	 0
?dtor$0@?0???0InternalErrorException@Internal@Core@Math@Palmtree@@QEAA@AEBV01234@@Z@4HA ENDP ; `Palmtree::Math::Core::Internal::InternalErrorException::InternalErrorException'::`1'::dtor$0
text$x	ENDS
; Function compile flags: /Odtp /RTCsu /ZI
;	COMDAT text$x
text$x	SEGMENT
$T1 = 200
this$ = 256
p$ = 264
?dtor$0@?0???0InternalErrorException@Internal@Core@Math@Palmtree@@QEAA@AEBV01234@@Z@4HA PROC ; `Palmtree::Math::Core::Internal::InternalErrorException::InternalErrorException'::`1'::dtor$0
  00000	48 89 4c 24 08	 mov	 QWORD PTR [rsp+8], rcx
  00005	48 89 54 24 10	 mov	 QWORD PTR [rsp+16], rdx
  0000a	55		 push	 rbp
  0000b	57		 push	 rdi
  0000c	48 83 ec 28	 sub	 rsp, 40			; 00000028H
  00010	48 8d 6a 20	 lea	 rbp, QWORD PTR [rdx+32]
  00014	48 8b 8d 00 01
	00 00		 mov	 rcx, QWORD PTR this$[rbp]
  0001b	e8 00 00 00 00	 call	 ??1Exception@Internal@Core@Math@Palmtree@@UEAA@XZ ; Palmtree::Math::Core::Internal::Exception::~Exception
  00020	48 83 c4 28	 add	 rsp, 40			; 00000028H
  00024	5f		 pop	 rdi
  00025	5d		 pop	 rbp
  00026	c3		 ret	 0
?dtor$0@?0???0InternalErrorException@Internal@Core@Math@Palmtree@@QEAA@AEBV01234@@Z@4HA ENDP ; `Palmtree::Math::Core::Internal::InternalErrorException::InternalErrorException'::`1'::dtor$0
text$x	ENDS
; Function compile flags: /Odtp /RTCsu /ZI
; File z:\sources\lunor\repos\rougemeilland\palmtree.math.core.uint\palmtree.math.core.uint\pmc_exception.h
;	COMDAT ??0InternalErrorException@Internal@Core@Math@Palmtree@@QEAA@PEB_W0@Z
_TEXT	SEGMENT
$T1 = 200
this$ = 256
message$ = 264
data$ = 272
??0InternalErrorException@Internal@Core@Math@Palmtree@@QEAA@PEB_W0@Z PROC ; Palmtree::Math::Core::Internal::InternalErrorException::InternalErrorException, COMDAT

; 286  :         {

$LN4:
  00000	4c 89 44 24 18	 mov	 QWORD PTR [rsp+24], r8
  00005	48 89 54 24 10	 mov	 QWORD PTR [rsp+16], rdx
  0000a	48 89 4c 24 08	 mov	 QWORD PTR [rsp+8], rcx
  0000f	55		 push	 rbp
  00010	57		 push	 rdi
  00011	48 81 ec 08 01
	00 00		 sub	 rsp, 264		; 00000108H
  00018	48 8d 6c 24 20	 lea	 rbp, QWORD PTR [rsp+32]
  0001d	48 8b fc	 mov	 rdi, rsp
  00020	b9 42 00 00 00	 mov	 ecx, 66			; 00000042H
  00025	b8 cc cc cc cc	 mov	 eax, -858993460		; ccccccccH
  0002a	f3 ab		 rep stosd
  0002c	48 8b 8c 24 28
	01 00 00	 mov	 rcx, QWORD PTR [rsp+296]
  00034	48 c7 85 c8 00
	00 00 fe ff ff
	ff		 mov	 QWORD PTR $T1[rbp], -2
  0003f	48 8d 0d 00 00
	00 00		 lea	 rcx, OFFSET FLAT:__802FEEC0_pmc_exception@h
  00046	e8 00 00 00 00	 call	 __CheckForDebuggerJustMyCode
  0004b	90		 npad	 1

; 285  :             : Exception(PMC_STATUS_INTERNAL_ERROR, message, data)

  0004c	4c 8b 8d 10 01
	00 00		 mov	 r9, QWORD PTR data$[rbp]
  00053	4c 8b 85 08 01
	00 00		 mov	 r8, QWORD PTR message$[rbp]
  0005a	ba 00 ff ff ff	 mov	 edx, -256		; ffffffffffffff00H
  0005f	48 8b 8d 00 01
	00 00		 mov	 rcx, QWORD PTR this$[rbp]
  00066	e8 00 00 00 00	 call	 ??0Exception@Internal@Core@Math@Palmtree@@IEAA@HPEB_W0@Z ; Palmtree::Math::Core::Internal::Exception::Exception
  0006b	90		 npad	 1

; 286  :         {

  0006c	48 8b 85 00 01
	00 00		 mov	 rax, QWORD PTR this$[rbp]
  00073	48 8d 0d 00 00
	00 00		 lea	 rcx, OFFSET FLAT:??_7InternalErrorException@Internal@Core@Math@Palmtree@@6B@
  0007a	48 89 08	 mov	 QWORD PTR [rax], rcx

; 287  :         }

  0007d	48 8b 85 00 01
	00 00		 mov	 rax, QWORD PTR this$[rbp]
  00084	48 8d a5 e8 00
	00 00		 lea	 rsp, QWORD PTR [rbp+232]
  0008b	5f		 pop	 rdi
  0008c	5d		 pop	 rbp
  0008d	c3		 ret	 0
??0InternalErrorException@Internal@Core@Math@Palmtree@@QEAA@PEB_W0@Z ENDP ; Palmtree::Math::Core::Internal::InternalErrorException::InternalErrorException
_TEXT	ENDS
;	COMDAT text$x
text$x	SEGMENT
$T1 = 200
this$ = 256
message$ = 264
data$ = 272
?dtor$0@?0???0InternalErrorException@Internal@Core@Math@Palmtree@@QEAA@PEB_W0@Z@4HA PROC ; `Palmtree::Math::Core::Internal::InternalErrorException::InternalErrorException'::`1'::dtor$0
  00000	48 89 4c 24 08	 mov	 QWORD PTR [rsp+8], rcx
  00005	48 89 54 24 10	 mov	 QWORD PTR [rsp+16], rdx
  0000a	55		 push	 rbp
  0000b	57		 push	 rdi
  0000c	48 83 ec 28	 sub	 rsp, 40			; 00000028H
  00010	48 8d 6a 20	 lea	 rbp, QWORD PTR [rdx+32]
  00014	48 8b 8d 00 01
	00 00		 mov	 rcx, QWORD PTR this$[rbp]
  0001b	e8 00 00 00 00	 call	 ??1Exception@Internal@Core@Math@Palmtree@@UEAA@XZ ; Palmtree::Math::Core::Internal::Exception::~Exception
  00020	48 83 c4 28	 add	 rsp, 40			; 00000028H
  00024	5f		 pop	 rdi
  00025	5d		 pop	 rbp
  00026	c3		 ret	 0
?dtor$0@?0???0InternalErrorException@Internal@Core@Math@Palmtree@@QEAA@PEB_W0@Z@4HA ENDP ; `Palmtree::Math::Core::Internal::InternalErrorException::InternalErrorException'::`1'::dtor$0
text$x	ENDS
; Function compile flags: /Odtp /RTCsu /ZI
;	COMDAT text$x
text$x	SEGMENT
$T1 = 200
this$ = 256
message$ = 264
data$ = 272
?dtor$0@?0???0InternalErrorException@Internal@Core@Math@Palmtree@@QEAA@PEB_W0@Z@4HA PROC ; `Palmtree::Math::Core::Internal::InternalErrorException::InternalErrorException'::`1'::dtor$0
  00000	48 89 4c 24 08	 mov	 QWORD PTR [rsp+8], rcx
  00005	48 89 54 24 10	 mov	 QWORD PTR [rsp+16], rdx
  0000a	55		 push	 rbp
  0000b	57		 push	 rdi
  0000c	48 83 ec 28	 sub	 rsp, 40			; 00000028H
  00010	48 8d 6a 20	 lea	 rbp, QWORD PTR [rdx+32]
  00014	48 8b 8d 00 01
	00 00		 mov	 rcx, QWORD PTR this$[rbp]
  0001b	e8 00 00 00 00	 call	 ??1Exception@Internal@Core@Math@Palmtree@@UEAA@XZ ; Palmtree::Math::Core::Internal::Exception::~Exception
  00020	48 83 c4 28	 add	 rsp, 40			; 00000028H
  00024	5f		 pop	 rdi
  00025	5d		 pop	 rbp
  00026	c3		 ret	 0
?dtor$0@?0???0InternalErrorException@Internal@Core@Math@Palmtree@@QEAA@PEB_W0@Z@4HA ENDP ; `Palmtree::Math::Core::Internal::InternalErrorException::InternalErrorException'::`1'::dtor$0
text$x	ENDS
; Function compile flags: /Odtp /RTCsu /ZI
;	COMDAT ??_GArgumentNullException@Internal@Core@Math@Palmtree@@UEAAPEAXI@Z
_TEXT	SEGMENT
this$ = 224
__flags$ = 232
??_GArgumentNullException@Internal@Core@Math@Palmtree@@UEAAPEAXI@Z PROC ; Palmtree::Math::Core::Internal::ArgumentNullException::`scalar deleting destructor', COMDAT
$LN4:
  00000	89 54 24 10	 mov	 DWORD PTR [rsp+16], edx
  00004	48 89 4c 24 08	 mov	 QWORD PTR [rsp+8], rcx
  00009	55		 push	 rbp
  0000a	57		 push	 rdi
  0000b	48 81 ec e8 00
	00 00		 sub	 rsp, 232		; 000000e8H
  00012	48 8d 6c 24 20	 lea	 rbp, QWORD PTR [rsp+32]
  00017	48 8b fc	 mov	 rdi, rsp
  0001a	b9 3a 00 00 00	 mov	 ecx, 58			; 0000003aH
  0001f	b8 cc cc cc cc	 mov	 eax, -858993460		; ccccccccH
  00024	f3 ab		 rep stosd
  00026	48 8b 8c 24 08
	01 00 00	 mov	 rcx, QWORD PTR [rsp+264]
  0002e	48 8b 8d e0 00
	00 00		 mov	 rcx, QWORD PTR this$[rbp]
  00035	e8 00 00 00 00	 call	 ??1ArgumentNullException@Internal@Core@Math@Palmtree@@UEAA@XZ ; Palmtree::Math::Core::Internal::ArgumentNullException::~ArgumentNullException
  0003a	8b 85 e8 00 00
	00		 mov	 eax, DWORD PTR __flags$[rbp]
  00040	83 e0 01	 and	 eax, 1
  00043	85 c0		 test	 eax, eax
  00045	74 11		 je	 SHORT $LN2@scalar
  00047	ba 30 00 00 00	 mov	 edx, 48			; 00000030H
  0004c	48 8b 8d e0 00
	00 00		 mov	 rcx, QWORD PTR this$[rbp]
  00053	e8 00 00 00 00	 call	 ??3@YAXPEAX_K@Z		; operator delete
$LN2@scalar:
  00058	48 8b 85 e0 00
	00 00		 mov	 rax, QWORD PTR this$[rbp]
  0005f	48 8d a5 c8 00
	00 00		 lea	 rsp, QWORD PTR [rbp+200]
  00066	5f		 pop	 rdi
  00067	5d		 pop	 rbp
  00068	c3		 ret	 0
??_GArgumentNullException@Internal@Core@Math@Palmtree@@UEAAPEAXI@Z ENDP ; Palmtree::Math::Core::Internal::ArgumentNullException::`scalar deleting destructor'
_TEXT	ENDS
; Function compile flags: /Odtp /RTCsu /ZI
; File z:\sources\lunor\repos\rougemeilland\palmtree.math.core.uint\palmtree.math.core.uint\pmc_exception.h
;	COMDAT ??1ArgumentNullException@Internal@Core@Math@Palmtree@@UEAA@XZ
_TEXT	SEGMENT
$T1 = 200
this$ = 256
??1ArgumentNullException@Internal@Core@Math@Palmtree@@UEAA@XZ PROC ; Palmtree::Math::Core::Internal::ArgumentNullException::~ArgumentNullException, COMDAT

; 124  :         {

$LN4:
  00000	48 89 4c 24 08	 mov	 QWORD PTR [rsp+8], rcx
  00005	55		 push	 rbp
  00006	57		 push	 rdi
  00007	48 81 ec 08 01
	00 00		 sub	 rsp, 264		; 00000108H
  0000e	48 8d 6c 24 20	 lea	 rbp, QWORD PTR [rsp+32]
  00013	48 8b fc	 mov	 rdi, rsp
  00016	b9 42 00 00 00	 mov	 ecx, 66			; 00000042H
  0001b	b8 cc cc cc cc	 mov	 eax, -858993460		; ccccccccH
  00020	f3 ab		 rep stosd
  00022	48 8b 8c 24 28
	01 00 00	 mov	 rcx, QWORD PTR [rsp+296]
  0002a	48 c7 85 c8 00
	00 00 fe ff ff
	ff		 mov	 QWORD PTR $T1[rbp], -2
  00035	48 8d 0d 00 00
	00 00		 lea	 rcx, OFFSET FLAT:__802FEEC0_pmc_exception@h
  0003c	e8 00 00 00 00	 call	 __CheckForDebuggerJustMyCode
  00041	90		 npad	 1
  00042	48 8b 85 00 01
	00 00		 mov	 rax, QWORD PTR this$[rbp]
  00049	48 8d 0d 00 00
	00 00		 lea	 rcx, OFFSET FLAT:??_7ArgumentNullException@Internal@Core@Math@Palmtree@@6B@
  00050	48 89 08	 mov	 QWORD PTR [rax], rcx

; 125  :         }

  00053	48 8b 8d 00 01
	00 00		 mov	 rcx, QWORD PTR this$[rbp]
  0005a	e8 00 00 00 00	 call	 ??1Exception@Internal@Core@Math@Palmtree@@UEAA@XZ ; Palmtree::Math::Core::Internal::Exception::~Exception
  0005f	90		 npad	 1
  00060	48 8d a5 e8 00
	00 00		 lea	 rsp, QWORD PTR [rbp+232]
  00067	5f		 pop	 rdi
  00068	5d		 pop	 rbp
  00069	c3		 ret	 0
??1ArgumentNullException@Internal@Core@Math@Palmtree@@UEAA@XZ ENDP ; Palmtree::Math::Core::Internal::ArgumentNullException::~ArgumentNullException
_TEXT	ENDS
;	COMDAT text$x
text$x	SEGMENT
$T1 = 200
this$ = 256
?dtor$0@?0???1ArgumentNullException@Internal@Core@Math@Palmtree@@UEAA@XZ@4HA PROC ; `Palmtree::Math::Core::Internal::ArgumentNullException::~ArgumentNullException'::`1'::dtor$0
  00000	48 89 4c 24 08	 mov	 QWORD PTR [rsp+8], rcx
  00005	48 89 54 24 10	 mov	 QWORD PTR [rsp+16], rdx
  0000a	55		 push	 rbp
  0000b	57		 push	 rdi
  0000c	48 83 ec 28	 sub	 rsp, 40			; 00000028H
  00010	48 8d 6a 20	 lea	 rbp, QWORD PTR [rdx+32]
  00014	48 8b 8d 00 01
	00 00		 mov	 rcx, QWORD PTR this$[rbp]
  0001b	e8 00 00 00 00	 call	 ??1Exception@Internal@Core@Math@Palmtree@@UEAA@XZ ; Palmtree::Math::Core::Internal::Exception::~Exception
  00020	48 83 c4 28	 add	 rsp, 40			; 00000028H
  00024	5f		 pop	 rdi
  00025	5d		 pop	 rbp
  00026	c3		 ret	 0
?dtor$0@?0???1ArgumentNullException@Internal@Core@Math@Palmtree@@UEAA@XZ@4HA ENDP ; `Palmtree::Math::Core::Internal::ArgumentNullException::~ArgumentNullException'::`1'::dtor$0
text$x	ENDS
; Function compile flags: /Odtp /RTCsu /ZI
;	COMDAT text$x
text$x	SEGMENT
$T1 = 200
this$ = 256
?dtor$0@?0???1ArgumentNullException@Internal@Core@Math@Palmtree@@UEAA@XZ@4HA PROC ; `Palmtree::Math::Core::Internal::ArgumentNullException::~ArgumentNullException'::`1'::dtor$0
  00000	48 89 4c 24 08	 mov	 QWORD PTR [rsp+8], rcx
  00005	48 89 54 24 10	 mov	 QWORD PTR [rsp+16], rdx
  0000a	55		 push	 rbp
  0000b	57		 push	 rdi
  0000c	48 83 ec 28	 sub	 rsp, 40			; 00000028H
  00010	48 8d 6a 20	 lea	 rbp, QWORD PTR [rdx+32]
  00014	48 8b 8d 00 01
	00 00		 mov	 rcx, QWORD PTR this$[rbp]
  0001b	e8 00 00 00 00	 call	 ??1Exception@Internal@Core@Math@Palmtree@@UEAA@XZ ; Palmtree::Math::Core::Internal::Exception::~Exception
  00020	48 83 c4 28	 add	 rsp, 40			; 00000028H
  00024	5f		 pop	 rdi
  00025	5d		 pop	 rbp
  00026	c3		 ret	 0
?dtor$0@?0???1ArgumentNullException@Internal@Core@Math@Palmtree@@UEAA@XZ@4HA ENDP ; `Palmtree::Math::Core::Internal::ArgumentNullException::~ArgumentNullException'::`1'::dtor$0
text$x	ENDS
; Function compile flags: /Odtp /RTCsu /ZI
; File z:\sources\lunor\repos\rougemeilland\palmtree.math.core.uint\palmtree.math.core.uint\pmc_exception.h
;	COMDAT ??0ArgumentNullException@Internal@Core@Math@Palmtree@@QEAA@AEBV01234@@Z
_TEXT	SEGMENT
$T1 = 200
this$ = 256
p$ = 264
??0ArgumentNullException@Internal@Core@Math@Palmtree@@QEAA@AEBV01234@@Z PROC ; Palmtree::Math::Core::Internal::ArgumentNullException::ArgumentNullException, COMDAT

; 120  :         {

$LN4:
  00000	48 89 54 24 10	 mov	 QWORD PTR [rsp+16], rdx
  00005	48 89 4c 24 08	 mov	 QWORD PTR [rsp+8], rcx
  0000a	55		 push	 rbp
  0000b	57		 push	 rdi
  0000c	48 81 ec 08 01
	00 00		 sub	 rsp, 264		; 00000108H
  00013	48 8d 6c 24 20	 lea	 rbp, QWORD PTR [rsp+32]
  00018	48 8b fc	 mov	 rdi, rsp
  0001b	b9 42 00 00 00	 mov	 ecx, 66			; 00000042H
  00020	b8 cc cc cc cc	 mov	 eax, -858993460		; ccccccccH
  00025	f3 ab		 rep stosd
  00027	48 8b 8c 24 28
	01 00 00	 mov	 rcx, QWORD PTR [rsp+296]
  0002f	48 c7 85 c8 00
	00 00 fe ff ff
	ff		 mov	 QWORD PTR $T1[rbp], -2
  0003a	48 8d 0d 00 00
	00 00		 lea	 rcx, OFFSET FLAT:__802FEEC0_pmc_exception@h
  00041	e8 00 00 00 00	 call	 __CheckForDebuggerJustMyCode
  00046	90		 npad	 1

; 119  :             : Exception(p)

  00047	48 8b 95 08 01
	00 00		 mov	 rdx, QWORD PTR p$[rbp]
  0004e	48 8b 8d 00 01
	00 00		 mov	 rcx, QWORD PTR this$[rbp]
  00055	e8 00 00 00 00	 call	 ??0Exception@Internal@Core@Math@Palmtree@@QEAA@AEBV01234@@Z ; Palmtree::Math::Core::Internal::Exception::Exception
  0005a	90		 npad	 1

; 120  :         {

  0005b	48 8b 85 00 01
	00 00		 mov	 rax, QWORD PTR this$[rbp]
  00062	48 8d 0d 00 00
	00 00		 lea	 rcx, OFFSET FLAT:??_7ArgumentNullException@Internal@Core@Math@Palmtree@@6B@
  00069	48 89 08	 mov	 QWORD PTR [rax], rcx

; 121  :         }

  0006c	48 8b 85 00 01
	00 00		 mov	 rax, QWORD PTR this$[rbp]
  00073	48 8d a5 e8 00
	00 00		 lea	 rsp, QWORD PTR [rbp+232]
  0007a	5f		 pop	 rdi
  0007b	5d		 pop	 rbp
  0007c	c3		 ret	 0
??0ArgumentNullException@Internal@Core@Math@Palmtree@@QEAA@AEBV01234@@Z ENDP ; Palmtree::Math::Core::Internal::ArgumentNullException::ArgumentNullException
_TEXT	ENDS
;	COMDAT text$x
text$x	SEGMENT
$T1 = 200
this$ = 256
p$ = 264
?dtor$0@?0???0ArgumentNullException@Internal@Core@Math@Palmtree@@QEAA@AEBV01234@@Z@4HA PROC ; `Palmtree::Math::Core::Internal::ArgumentNullException::ArgumentNullException'::`1'::dtor$0
  00000	48 89 4c 24 08	 mov	 QWORD PTR [rsp+8], rcx
  00005	48 89 54 24 10	 mov	 QWORD PTR [rsp+16], rdx
  0000a	55		 push	 rbp
  0000b	57		 push	 rdi
  0000c	48 83 ec 28	 sub	 rsp, 40			; 00000028H
  00010	48 8d 6a 20	 lea	 rbp, QWORD PTR [rdx+32]
  00014	48 8b 8d 00 01
	00 00		 mov	 rcx, QWORD PTR this$[rbp]
  0001b	e8 00 00 00 00	 call	 ??1Exception@Internal@Core@Math@Palmtree@@UEAA@XZ ; Palmtree::Math::Core::Internal::Exception::~Exception
  00020	48 83 c4 28	 add	 rsp, 40			; 00000028H
  00024	5f		 pop	 rdi
  00025	5d		 pop	 rbp
  00026	c3		 ret	 0
?dtor$0@?0???0ArgumentNullException@Internal@Core@Math@Palmtree@@QEAA@AEBV01234@@Z@4HA ENDP ; `Palmtree::Math::Core::Internal::ArgumentNullException::ArgumentNullException'::`1'::dtor$0
text$x	ENDS
; Function compile flags: /Odtp /RTCsu /ZI
;	COMDAT text$x
text$x	SEGMENT
$T1 = 200
this$ = 256
p$ = 264
?dtor$0@?0???0ArgumentNullException@Internal@Core@Math@Palmtree@@QEAA@AEBV01234@@Z@4HA PROC ; `Palmtree::Math::Core::Internal::ArgumentNullException::ArgumentNullException'::`1'::dtor$0
  00000	48 89 4c 24 08	 mov	 QWORD PTR [rsp+8], rcx
  00005	48 89 54 24 10	 mov	 QWORD PTR [rsp+16], rdx
  0000a	55		 push	 rbp
  0000b	57		 push	 rdi
  0000c	48 83 ec 28	 sub	 rsp, 40			; 00000028H
  00010	48 8d 6a 20	 lea	 rbp, QWORD PTR [rdx+32]
  00014	48 8b 8d 00 01
	00 00		 mov	 rcx, QWORD PTR this$[rbp]
  0001b	e8 00 00 00 00	 call	 ??1Exception@Internal@Core@Math@Palmtree@@UEAA@XZ ; Palmtree::Math::Core::Internal::Exception::~Exception
  00020	48 83 c4 28	 add	 rsp, 40			; 00000028H
  00024	5f		 pop	 rdi
  00025	5d		 pop	 rbp
  00026	c3		 ret	 0
?dtor$0@?0???0ArgumentNullException@Internal@Core@Math@Palmtree@@QEAA@AEBV01234@@Z@4HA ENDP ; `Palmtree::Math::Core::Internal::ArgumentNullException::ArgumentNullException'::`1'::dtor$0
text$x	ENDS
; Function compile flags: /Odtp /RTCsu /ZI
; File z:\sources\lunor\repos\rougemeilland\palmtree.math.core.uint\palmtree.math.core.uint\pmc_exception.h
;	COMDAT ??0ArgumentNullException@Internal@Core@Math@Palmtree@@QEAA@PEB_W0@Z
_TEXT	SEGMENT
$T1 = 200
this$ = 256
message$ = 264
param_name$ = 272
??0ArgumentNullException@Internal@Core@Math@Palmtree@@QEAA@PEB_W0@Z PROC ; Palmtree::Math::Core::Internal::ArgumentNullException::ArgumentNullException, COMDAT

; 115  :         {

$LN4:
  00000	4c 89 44 24 18	 mov	 QWORD PTR [rsp+24], r8
  00005	48 89 54 24 10	 mov	 QWORD PTR [rsp+16], rdx
  0000a	48 89 4c 24 08	 mov	 QWORD PTR [rsp+8], rcx
  0000f	55		 push	 rbp
  00010	57		 push	 rdi
  00011	48 81 ec 08 01
	00 00		 sub	 rsp, 264		; 00000108H
  00018	48 8d 6c 24 20	 lea	 rbp, QWORD PTR [rsp+32]
  0001d	48 8b fc	 mov	 rdi, rsp
  00020	b9 42 00 00 00	 mov	 ecx, 66			; 00000042H
  00025	b8 cc cc cc cc	 mov	 eax, -858993460		; ccccccccH
  0002a	f3 ab		 rep stosd
  0002c	48 8b 8c 24 28
	01 00 00	 mov	 rcx, QWORD PTR [rsp+296]
  00034	48 c7 85 c8 00
	00 00 fe ff ff
	ff		 mov	 QWORD PTR $T1[rbp], -2
  0003f	48 8d 0d 00 00
	00 00		 lea	 rcx, OFFSET FLAT:__802FEEC0_pmc_exception@h
  00046	e8 00 00 00 00	 call	 __CheckForDebuggerJustMyCode
  0004b	90		 npad	 1

; 114  :             : Exception(PMC_STATUS_ARGUMENT_NULL_ERROR, message, param_name)

  0004c	4c 8b 8d 10 01
	00 00		 mov	 r9, QWORD PTR param_name$[rbp]
  00053	4c 8b 85 08 01
	00 00		 mov	 r8, QWORD PTR message$[rbp]
  0005a	ba fe ff ff ff	 mov	 edx, -2
  0005f	48 8b 8d 00 01
	00 00		 mov	 rcx, QWORD PTR this$[rbp]
  00066	e8 00 00 00 00	 call	 ??0Exception@Internal@Core@Math@Palmtree@@IEAA@HPEB_W0@Z ; Palmtree::Math::Core::Internal::Exception::Exception
  0006b	90		 npad	 1

; 115  :         {

  0006c	48 8b 85 00 01
	00 00		 mov	 rax, QWORD PTR this$[rbp]
  00073	48 8d 0d 00 00
	00 00		 lea	 rcx, OFFSET FLAT:??_7ArgumentNullException@Internal@Core@Math@Palmtree@@6B@
  0007a	48 89 08	 mov	 QWORD PTR [rax], rcx

; 116  :         }

  0007d	48 8b 85 00 01
	00 00		 mov	 rax, QWORD PTR this$[rbp]
  00084	48 8d a5 e8 00
	00 00		 lea	 rsp, QWORD PTR [rbp+232]
  0008b	5f		 pop	 rdi
  0008c	5d		 pop	 rbp
  0008d	c3		 ret	 0
??0ArgumentNullException@Internal@Core@Math@Palmtree@@QEAA@PEB_W0@Z ENDP ; Palmtree::Math::Core::Internal::ArgumentNullException::ArgumentNullException
_TEXT	ENDS
;	COMDAT text$x
text$x	SEGMENT
$T1 = 200
this$ = 256
message$ = 264
param_name$ = 272
?dtor$0@?0???0ArgumentNullException@Internal@Core@Math@Palmtree@@QEAA@PEB_W0@Z@4HA PROC ; `Palmtree::Math::Core::Internal::ArgumentNullException::ArgumentNullException'::`1'::dtor$0
  00000	48 89 4c 24 08	 mov	 QWORD PTR [rsp+8], rcx
  00005	48 89 54 24 10	 mov	 QWORD PTR [rsp+16], rdx
  0000a	55		 push	 rbp
  0000b	57		 push	 rdi
  0000c	48 83 ec 28	 sub	 rsp, 40			; 00000028H
  00010	48 8d 6a 20	 lea	 rbp, QWORD PTR [rdx+32]
  00014	48 8b 8d 00 01
	00 00		 mov	 rcx, QWORD PTR this$[rbp]
  0001b	e8 00 00 00 00	 call	 ??1Exception@Internal@Core@Math@Palmtree@@UEAA@XZ ; Palmtree::Math::Core::Internal::Exception::~Exception
  00020	48 83 c4 28	 add	 rsp, 40			; 00000028H
  00024	5f		 pop	 rdi
  00025	5d		 pop	 rbp
  00026	c3		 ret	 0
?dtor$0@?0???0ArgumentNullException@Internal@Core@Math@Palmtree@@QEAA@PEB_W0@Z@4HA ENDP ; `Palmtree::Math::Core::Internal::ArgumentNullException::ArgumentNullException'::`1'::dtor$0
text$x	ENDS
; Function compile flags: /Odtp /RTCsu /ZI
;	COMDAT text$x
text$x	SEGMENT
$T1 = 200
this$ = 256
message$ = 264
param_name$ = 272
?dtor$0@?0???0ArgumentNullException@Internal@Core@Math@Palmtree@@QEAA@PEB_W0@Z@4HA PROC ; `Palmtree::Math::Core::Internal::ArgumentNullException::ArgumentNullException'::`1'::dtor$0
  00000	48 89 4c 24 08	 mov	 QWORD PTR [rsp+8], rcx
  00005	48 89 54 24 10	 mov	 QWORD PTR [rsp+16], rdx
  0000a	55		 push	 rbp
  0000b	57		 push	 rdi
  0000c	48 83 ec 28	 sub	 rsp, 40			; 00000028H
  00010	48 8d 6a 20	 lea	 rbp, QWORD PTR [rdx+32]
  00014	48 8b 8d 00 01
	00 00		 mov	 rcx, QWORD PTR this$[rbp]
  0001b	e8 00 00 00 00	 call	 ??1Exception@Internal@Core@Math@Palmtree@@UEAA@XZ ; Palmtree::Math::Core::Internal::Exception::~Exception
  00020	48 83 c4 28	 add	 rsp, 40			; 00000028H
  00024	5f		 pop	 rdi
  00025	5d		 pop	 rbp
  00026	c3		 ret	 0
?dtor$0@?0???0ArgumentNullException@Internal@Core@Math@Palmtree@@QEAA@PEB_W0@Z@4HA ENDP ; `Palmtree::Math::Core::Internal::ArgumentNullException::ArgumentNullException'::`1'::dtor$0
text$x	ENDS
; Function compile flags: /Odtp /RTCsu /ZI
;	COMDAT ??_GException@Internal@Core@Math@Palmtree@@UEAAPEAXI@Z
_TEXT	SEGMENT
this$ = 224
__flags$ = 232
??_GException@Internal@Core@Math@Palmtree@@UEAAPEAXI@Z PROC ; Palmtree::Math::Core::Internal::Exception::`scalar deleting destructor', COMDAT
$LN4:
  00000	89 54 24 10	 mov	 DWORD PTR [rsp+16], edx
  00004	48 89 4c 24 08	 mov	 QWORD PTR [rsp+8], rcx
  00009	55		 push	 rbp
  0000a	57		 push	 rdi
  0000b	48 81 ec e8 00
	00 00		 sub	 rsp, 232		; 000000e8H
  00012	48 8d 6c 24 20	 lea	 rbp, QWORD PTR [rsp+32]
  00017	48 8b fc	 mov	 rdi, rsp
  0001a	b9 3a 00 00 00	 mov	 ecx, 58			; 0000003aH
  0001f	b8 cc cc cc cc	 mov	 eax, -858993460		; ccccccccH
  00024	f3 ab		 rep stosd
  00026	48 8b 8c 24 08
	01 00 00	 mov	 rcx, QWORD PTR [rsp+264]
  0002e	48 8b 8d e0 00
	00 00		 mov	 rcx, QWORD PTR this$[rbp]
  00035	e8 00 00 00 00	 call	 ??1Exception@Internal@Core@Math@Palmtree@@UEAA@XZ ; Palmtree::Math::Core::Internal::Exception::~Exception
  0003a	8b 85 e8 00 00
	00		 mov	 eax, DWORD PTR __flags$[rbp]
  00040	83 e0 01	 and	 eax, 1
  00043	85 c0		 test	 eax, eax
  00045	74 11		 je	 SHORT $LN2@scalar
  00047	ba 30 00 00 00	 mov	 edx, 48			; 00000030H
  0004c	48 8b 8d e0 00
	00 00		 mov	 rcx, QWORD PTR this$[rbp]
  00053	e8 00 00 00 00	 call	 ??3@YAXPEAX_K@Z		; operator delete
$LN2@scalar:
  00058	48 8b 85 e0 00
	00 00		 mov	 rax, QWORD PTR this$[rbp]
  0005f	48 8d a5 c8 00
	00 00		 lea	 rsp, QWORD PTR [rbp+200]
  00066	5f		 pop	 rdi
  00067	5d		 pop	 rbp
  00068	c3		 ret	 0
??_GException@Internal@Core@Math@Palmtree@@UEAAPEAXI@Z ENDP ; Palmtree::Math::Core::Internal::Exception::`scalar deleting destructor'
_TEXT	ENDS
; Function compile flags: /Odtp /RTCsu /ZI
; File z:\sources\lunor\repos\rougemeilland\palmtree.math.core.uint\palmtree.math.core.uint\pmc_exception.h
;	COMDAT ??1Exception@Internal@Core@Math@Palmtree@@UEAA@XZ
_TEXT	SEGMENT
$T1 = 200
this$ = 256
??1Exception@Internal@Core@Math@Palmtree@@UEAA@XZ PROC	; Palmtree::Math::Core::Internal::Exception::~Exception, COMDAT

; 70   :         {

$LN4:
  00000	48 89 4c 24 08	 mov	 QWORD PTR [rsp+8], rcx
  00005	55		 push	 rbp
  00006	57		 push	 rdi
  00007	48 81 ec 08 01
	00 00		 sub	 rsp, 264		; 00000108H
  0000e	48 8d 6c 24 20	 lea	 rbp, QWORD PTR [rsp+32]
  00013	48 8b fc	 mov	 rdi, rsp
  00016	b9 42 00 00 00	 mov	 ecx, 66			; 00000042H
  0001b	b8 cc cc cc cc	 mov	 eax, -858993460		; ccccccccH
  00020	f3 ab		 rep stosd
  00022	48 8b 8c 24 28
	01 00 00	 mov	 rcx, QWORD PTR [rsp+296]
  0002a	48 c7 85 c8 00
	00 00 fe ff ff
	ff		 mov	 QWORD PTR $T1[rbp], -2
  00035	48 8d 0d 00 00
	00 00		 lea	 rcx, OFFSET FLAT:__802FEEC0_pmc_exception@h
  0003c	e8 00 00 00 00	 call	 __CheckForDebuggerJustMyCode
  00041	90		 npad	 1
  00042	48 8b 85 00 01
	00 00		 mov	 rax, QWORD PTR this$[rbp]
  00049	48 8d 0d 00 00
	00 00		 lea	 rcx, OFFSET FLAT:??_7Exception@Internal@Core@Math@Palmtree@@6B@
  00050	48 89 08	 mov	 QWORD PTR [rax], rcx

; 71   :         }

  00053	48 8b 8d 00 01
	00 00		 mov	 rcx, QWORD PTR this$[rbp]
  0005a	e8 00 00 00 00	 call	 ??1exception@std@@UEAA@XZ ; std::exception::~exception
  0005f	90		 npad	 1
  00060	48 8d a5 e8 00
	00 00		 lea	 rsp, QWORD PTR [rbp+232]
  00067	5f		 pop	 rdi
  00068	5d		 pop	 rbp
  00069	c3		 ret	 0
??1Exception@Internal@Core@Math@Palmtree@@UEAA@XZ ENDP	; Palmtree::Math::Core::Internal::Exception::~Exception
_TEXT	ENDS
;	COMDAT text$x
text$x	SEGMENT
$T1 = 200
this$ = 256
?dtor$0@?0???1Exception@Internal@Core@Math@Palmtree@@UEAA@XZ@4HA PROC ; `Palmtree::Math::Core::Internal::Exception::~Exception'::`1'::dtor$0
  00000	48 89 4c 24 08	 mov	 QWORD PTR [rsp+8], rcx
  00005	48 89 54 24 10	 mov	 QWORD PTR [rsp+16], rdx
  0000a	55		 push	 rbp
  0000b	57		 push	 rdi
  0000c	48 83 ec 28	 sub	 rsp, 40			; 00000028H
  00010	48 8d 6a 20	 lea	 rbp, QWORD PTR [rdx+32]
  00014	48 8b 8d 00 01
	00 00		 mov	 rcx, QWORD PTR this$[rbp]
  0001b	e8 00 00 00 00	 call	 ??1exception@std@@UEAA@XZ ; std::exception::~exception
  00020	48 83 c4 28	 add	 rsp, 40			; 00000028H
  00024	5f		 pop	 rdi
  00025	5d		 pop	 rbp
  00026	c3		 ret	 0
?dtor$0@?0???1Exception@Internal@Core@Math@Palmtree@@UEAA@XZ@4HA ENDP ; `Palmtree::Math::Core::Internal::Exception::~Exception'::`1'::dtor$0
text$x	ENDS
; Function compile flags: /Odtp /RTCsu /ZI
;	COMDAT text$x
text$x	SEGMENT
$T1 = 200
this$ = 256
?dtor$0@?0???1Exception@Internal@Core@Math@Palmtree@@UEAA@XZ@4HA PROC ; `Palmtree::Math::Core::Internal::Exception::~Exception'::`1'::dtor$0
  00000	48 89 4c 24 08	 mov	 QWORD PTR [rsp+8], rcx
  00005	48 89 54 24 10	 mov	 QWORD PTR [rsp+16], rdx
  0000a	55		 push	 rbp
  0000b	57		 push	 rdi
  0000c	48 83 ec 28	 sub	 rsp, 40			; 00000028H
  00010	48 8d 6a 20	 lea	 rbp, QWORD PTR [rdx+32]
  00014	48 8b 8d 00 01
	00 00		 mov	 rcx, QWORD PTR this$[rbp]
  0001b	e8 00 00 00 00	 call	 ??1exception@std@@UEAA@XZ ; std::exception::~exception
  00020	48 83 c4 28	 add	 rsp, 40			; 00000028H
  00024	5f		 pop	 rdi
  00025	5d		 pop	 rbp
  00026	c3		 ret	 0
?dtor$0@?0???1Exception@Internal@Core@Math@Palmtree@@UEAA@XZ@4HA ENDP ; `Palmtree::Math::Core::Internal::Exception::~Exception'::`1'::dtor$0
text$x	ENDS
; Function compile flags: /Odtp /RTCsu /ZI
; File z:\sources\lunor\repos\rougemeilland\palmtree.math.core.uint\palmtree.math.core.uint\pmc_exception.h
;	COMDAT ??0Exception@Internal@Core@Math@Palmtree@@QEAA@AEBV01234@@Z
_TEXT	SEGMENT
$T1 = 200
this$ = 256
p$ = 264
??0Exception@Internal@Core@Math@Palmtree@@QEAA@AEBV01234@@Z PROC ; Palmtree::Math::Core::Internal::Exception::Exception, COMDAT

; 62   :         Exception(const Exception& p) noexcept(true)

$LN4:
  00000	48 89 54 24 10	 mov	 QWORD PTR [rsp+16], rdx
  00005	48 89 4c 24 08	 mov	 QWORD PTR [rsp+8], rcx
  0000a	55		 push	 rbp
  0000b	57		 push	 rdi
  0000c	48 81 ec 08 01
	00 00		 sub	 rsp, 264		; 00000108H
  00013	48 8d 6c 24 20	 lea	 rbp, QWORD PTR [rsp+32]
  00018	48 8b fc	 mov	 rdi, rsp
  0001b	b9 42 00 00 00	 mov	 ecx, 66			; 00000042H
  00020	b8 cc cc cc cc	 mov	 eax, -858993460		; ccccccccH
  00025	f3 ab		 rep stosd
  00027	48 8b 8c 24 28
	01 00 00	 mov	 rcx, QWORD PTR [rsp+296]
  0002f	48 c7 85 c8 00
	00 00 fe ff ff
	ff		 mov	 QWORD PTR $T1[rbp], -2
  0003a	48 8d 0d 00 00
	00 00		 lea	 rcx, OFFSET FLAT:__802FEEC0_pmc_exception@h
  00041	e8 00 00 00 00	 call	 __CheckForDebuggerJustMyCode
  00046	90		 npad	 1
  00047	48 8b 8d 00 01
	00 00		 mov	 rcx, QWORD PTR this$[rbp]
  0004e	e8 00 00 00 00	 call	 ??0exception@std@@QEAA@XZ ; std::exception::exception
  00053	90		 npad	 1
  00054	48 8b 85 00 01
	00 00		 mov	 rax, QWORD PTR this$[rbp]
  0005b	48 8d 0d 00 00
	00 00		 lea	 rcx, OFFSET FLAT:??_7Exception@Internal@Core@Math@Palmtree@@6B@
  00062	48 89 08	 mov	 QWORD PTR [rax], rcx

; 63   :         {
; 64   :             _code = p._code;

  00065	48 8b 85 00 01
	00 00		 mov	 rax, QWORD PTR this$[rbp]
  0006c	48 8b 8d 08 01
	00 00		 mov	 rcx, QWORD PTR p$[rbp]
  00073	8b 49 18	 mov	 ecx, DWORD PTR [rcx+24]
  00076	89 48 18	 mov	 DWORD PTR [rax+24], ecx

; 65   :             _message = p._message;

  00079	48 8b 85 00 01
	00 00		 mov	 rax, QWORD PTR this$[rbp]
  00080	48 8b 8d 08 01
	00 00		 mov	 rcx, QWORD PTR p$[rbp]
  00087	48 8b 49 20	 mov	 rcx, QWORD PTR [rcx+32]
  0008b	48 89 48 20	 mov	 QWORD PTR [rax+32], rcx

; 66   :             _data = p._data;

  0008f	48 8b 85 00 01
	00 00		 mov	 rax, QWORD PTR this$[rbp]
  00096	48 8b 8d 08 01
	00 00		 mov	 rcx, QWORD PTR p$[rbp]
  0009d	48 8b 49 28	 mov	 rcx, QWORD PTR [rcx+40]
  000a1	48 89 48 28	 mov	 QWORD PTR [rax+40], rcx

; 67   :         }

  000a5	48 8b 85 00 01
	00 00		 mov	 rax, QWORD PTR this$[rbp]
  000ac	48 8d a5 e8 00
	00 00		 lea	 rsp, QWORD PTR [rbp+232]
  000b3	5f		 pop	 rdi
  000b4	5d		 pop	 rbp
  000b5	c3		 ret	 0
??0Exception@Internal@Core@Math@Palmtree@@QEAA@AEBV01234@@Z ENDP ; Palmtree::Math::Core::Internal::Exception::Exception
_TEXT	ENDS
;	COMDAT text$x
text$x	SEGMENT
$T1 = 200
this$ = 256
p$ = 264
?dtor$0@?0???0Exception@Internal@Core@Math@Palmtree@@QEAA@AEBV01234@@Z@4HA PROC ; `Palmtree::Math::Core::Internal::Exception::Exception'::`1'::dtor$0
  00000	48 89 4c 24 08	 mov	 QWORD PTR [rsp+8], rcx
  00005	48 89 54 24 10	 mov	 QWORD PTR [rsp+16], rdx
  0000a	55		 push	 rbp
  0000b	57		 push	 rdi
  0000c	48 83 ec 28	 sub	 rsp, 40			; 00000028H
  00010	48 8d 6a 20	 lea	 rbp, QWORD PTR [rdx+32]
  00014	48 8b 8d 00 01
	00 00		 mov	 rcx, QWORD PTR this$[rbp]
  0001b	e8 00 00 00 00	 call	 ??1exception@std@@UEAA@XZ ; std::exception::~exception
  00020	48 83 c4 28	 add	 rsp, 40			; 00000028H
  00024	5f		 pop	 rdi
  00025	5d		 pop	 rbp
  00026	c3		 ret	 0
?dtor$0@?0???0Exception@Internal@Core@Math@Palmtree@@QEAA@AEBV01234@@Z@4HA ENDP ; `Palmtree::Math::Core::Internal::Exception::Exception'::`1'::dtor$0
text$x	ENDS
; Function compile flags: /Odtp /RTCsu /ZI
;	COMDAT text$x
text$x	SEGMENT
$T1 = 200
this$ = 256
p$ = 264
?dtor$0@?0???0Exception@Internal@Core@Math@Palmtree@@QEAA@AEBV01234@@Z@4HA PROC ; `Palmtree::Math::Core::Internal::Exception::Exception'::`1'::dtor$0
  00000	48 89 4c 24 08	 mov	 QWORD PTR [rsp+8], rcx
  00005	48 89 54 24 10	 mov	 QWORD PTR [rsp+16], rdx
  0000a	55		 push	 rbp
  0000b	57		 push	 rdi
  0000c	48 83 ec 28	 sub	 rsp, 40			; 00000028H
  00010	48 8d 6a 20	 lea	 rbp, QWORD PTR [rdx+32]
  00014	48 8b 8d 00 01
	00 00		 mov	 rcx, QWORD PTR this$[rbp]
  0001b	e8 00 00 00 00	 call	 ??1exception@std@@UEAA@XZ ; std::exception::~exception
  00020	48 83 c4 28	 add	 rsp, 40			; 00000028H
  00024	5f		 pop	 rdi
  00025	5d		 pop	 rbp
  00026	c3		 ret	 0
?dtor$0@?0???0Exception@Internal@Core@Math@Palmtree@@QEAA@AEBV01234@@Z@4HA ENDP ; `Palmtree::Math::Core::Internal::Exception::Exception'::`1'::dtor$0
text$x	ENDS
; Function compile flags: /Odtp /RTCsu /ZI
; File z:\sources\lunor\repos\rougemeilland\palmtree.math.core.uint\palmtree.math.core.uint\pmc_exception.h
;	COMDAT ??0Exception@Internal@Core@Math@Palmtree@@IEAA@HPEB_W0@Z
_TEXT	SEGMENT
$T1 = 200
this$ = 256
code$ = 264
message$ = 272
data$ = 280
??0Exception@Internal@Core@Math@Palmtree@@IEAA@HPEB_W0@Z PROC ; Palmtree::Math::Core::Internal::Exception::Exception, COMDAT

; 54   :         Exception(PMC_STATUS_CODE code, const wchar_t* message, const wchar_t* data) noexcept(true)

$LN4:
  00000	4c 89 4c 24 20	 mov	 QWORD PTR [rsp+32], r9
  00005	4c 89 44 24 18	 mov	 QWORD PTR [rsp+24], r8
  0000a	89 54 24 10	 mov	 DWORD PTR [rsp+16], edx
  0000e	48 89 4c 24 08	 mov	 QWORD PTR [rsp+8], rcx
  00013	55		 push	 rbp
  00014	57		 push	 rdi
  00015	48 81 ec 08 01
	00 00		 sub	 rsp, 264		; 00000108H
  0001c	48 8d 6c 24 20	 lea	 rbp, QWORD PTR [rsp+32]
  00021	48 8b fc	 mov	 rdi, rsp
  00024	b9 42 00 00 00	 mov	 ecx, 66			; 00000042H
  00029	b8 cc cc cc cc	 mov	 eax, -858993460		; ccccccccH
  0002e	f3 ab		 rep stosd
  00030	48 8b 8c 24 28
	01 00 00	 mov	 rcx, QWORD PTR [rsp+296]
  00038	48 c7 85 c8 00
	00 00 fe ff ff
	ff		 mov	 QWORD PTR $T1[rbp], -2
  00043	48 8d 0d 00 00
	00 00		 lea	 rcx, OFFSET FLAT:__802FEEC0_pmc_exception@h
  0004a	e8 00 00 00 00	 call	 __CheckForDebuggerJustMyCode
  0004f	90		 npad	 1
  00050	48 8b 8d 00 01
	00 00		 mov	 rcx, QWORD PTR this$[rbp]
  00057	e8 00 00 00 00	 call	 ??0exception@std@@QEAA@XZ ; std::exception::exception
  0005c	90		 npad	 1
  0005d	48 8b 85 00 01
	00 00		 mov	 rax, QWORD PTR this$[rbp]
  00064	48 8d 0d 00 00
	00 00		 lea	 rcx, OFFSET FLAT:??_7Exception@Internal@Core@Math@Palmtree@@6B@
  0006b	48 89 08	 mov	 QWORD PTR [rax], rcx

; 55   :         {
; 56   :             _code = code;

  0006e	48 8b 85 00 01
	00 00		 mov	 rax, QWORD PTR this$[rbp]
  00075	8b 8d 08 01 00
	00		 mov	 ecx, DWORD PTR code$[rbp]
  0007b	89 48 18	 mov	 DWORD PTR [rax+24], ecx

; 57   :             _message = message;

  0007e	48 8b 85 00 01
	00 00		 mov	 rax, QWORD PTR this$[rbp]
  00085	48 8b 8d 10 01
	00 00		 mov	 rcx, QWORD PTR message$[rbp]
  0008c	48 89 48 20	 mov	 QWORD PTR [rax+32], rcx

; 58   :             _data = data;

  00090	48 8b 85 00 01
	00 00		 mov	 rax, QWORD PTR this$[rbp]
  00097	48 8b 8d 18 01
	00 00		 mov	 rcx, QWORD PTR data$[rbp]
  0009e	48 89 48 28	 mov	 QWORD PTR [rax+40], rcx

; 59   :         }

  000a2	48 8b 85 00 01
	00 00		 mov	 rax, QWORD PTR this$[rbp]
  000a9	48 8d a5 e8 00
	00 00		 lea	 rsp, QWORD PTR [rbp+232]
  000b0	5f		 pop	 rdi
  000b1	5d		 pop	 rbp
  000b2	c3		 ret	 0
??0Exception@Internal@Core@Math@Palmtree@@IEAA@HPEB_W0@Z ENDP ; Palmtree::Math::Core::Internal::Exception::Exception
_TEXT	ENDS
;	COMDAT text$x
text$x	SEGMENT
$T1 = 200
this$ = 256
code$ = 264
message$ = 272
data$ = 280
?dtor$0@?0???0Exception@Internal@Core@Math@Palmtree@@IEAA@HPEB_W0@Z@4HA PROC ; `Palmtree::Math::Core::Internal::Exception::Exception'::`1'::dtor$0
  00000	48 89 4c 24 08	 mov	 QWORD PTR [rsp+8], rcx
  00005	48 89 54 24 10	 mov	 QWORD PTR [rsp+16], rdx
  0000a	55		 push	 rbp
  0000b	57		 push	 rdi
  0000c	48 83 ec 28	 sub	 rsp, 40			; 00000028H
  00010	48 8d 6a 20	 lea	 rbp, QWORD PTR [rdx+32]
  00014	48 8b 8d 00 01
	00 00		 mov	 rcx, QWORD PTR this$[rbp]
  0001b	e8 00 00 00 00	 call	 ??1exception@std@@UEAA@XZ ; std::exception::~exception
  00020	48 83 c4 28	 add	 rsp, 40			; 00000028H
  00024	5f		 pop	 rdi
  00025	5d		 pop	 rbp
  00026	c3		 ret	 0
?dtor$0@?0???0Exception@Internal@Core@Math@Palmtree@@IEAA@HPEB_W0@Z@4HA ENDP ; `Palmtree::Math::Core::Internal::Exception::Exception'::`1'::dtor$0
text$x	ENDS
; Function compile flags: /Odtp /RTCsu /ZI
;	COMDAT text$x
text$x	SEGMENT
$T1 = 200
this$ = 256
code$ = 264
message$ = 272
data$ = 280
?dtor$0@?0???0Exception@Internal@Core@Math@Palmtree@@IEAA@HPEB_W0@Z@4HA PROC ; `Palmtree::Math::Core::Internal::Exception::Exception'::`1'::dtor$0
  00000	48 89 4c 24 08	 mov	 QWORD PTR [rsp+8], rcx
  00005	48 89 54 24 10	 mov	 QWORD PTR [rsp+16], rdx
  0000a	55		 push	 rbp
  0000b	57		 push	 rdi
  0000c	48 83 ec 28	 sub	 rsp, 40			; 00000028H
  00010	48 8d 6a 20	 lea	 rbp, QWORD PTR [rdx+32]
  00014	48 8b 8d 00 01
	00 00		 mov	 rcx, QWORD PTR this$[rbp]
  0001b	e8 00 00 00 00	 call	 ??1exception@std@@UEAA@XZ ; std::exception::~exception
  00020	48 83 c4 28	 add	 rsp, 40			; 00000028H
  00024	5f		 pop	 rdi
  00025	5d		 pop	 rbp
  00026	c3		 ret	 0
?dtor$0@?0???0Exception@Internal@Core@Math@Palmtree@@IEAA@HPEB_W0@Z@4HA ENDP ; `Palmtree::Math::Core::Internal::Exception::Exception'::`1'::dtor$0
text$x	ENDS
; Function compile flags: /Odtp /RTCsu /ZI
;	COMDAT ??_Gexception@std@@UEAAPEAXI@Z
_TEXT	SEGMENT
this$ = 224
__flags$ = 232
??_Gexception@std@@UEAAPEAXI@Z PROC			; std::exception::`scalar deleting destructor', COMDAT
$LN4:
  00000	89 54 24 10	 mov	 DWORD PTR [rsp+16], edx
  00004	48 89 4c 24 08	 mov	 QWORD PTR [rsp+8], rcx
  00009	55		 push	 rbp
  0000a	57		 push	 rdi
  0000b	48 81 ec e8 00
	00 00		 sub	 rsp, 232		; 000000e8H
  00012	48 8d 6c 24 20	 lea	 rbp, QWORD PTR [rsp+32]
  00017	48 8b fc	 mov	 rdi, rsp
  0001a	b9 3a 00 00 00	 mov	 ecx, 58			; 0000003aH
  0001f	b8 cc cc cc cc	 mov	 eax, -858993460		; ccccccccH
  00024	f3 ab		 rep stosd
  00026	48 8b 8c 24 08
	01 00 00	 mov	 rcx, QWORD PTR [rsp+264]
  0002e	48 8b 8d e0 00
	00 00		 mov	 rcx, QWORD PTR this$[rbp]
  00035	e8 00 00 00 00	 call	 ??1exception@std@@UEAA@XZ ; std::exception::~exception
  0003a	8b 85 e8 00 00
	00		 mov	 eax, DWORD PTR __flags$[rbp]
  00040	83 e0 01	 and	 eax, 1
  00043	85 c0		 test	 eax, eax
  00045	74 11		 je	 SHORT $LN2@scalar
  00047	ba 18 00 00 00	 mov	 edx, 24
  0004c	48 8b 8d e0 00
	00 00		 mov	 rcx, QWORD PTR this$[rbp]
  00053	e8 00 00 00 00	 call	 ??3@YAXPEAX_K@Z		; operator delete
$LN2@scalar:
  00058	48 8b 85 e0 00
	00 00		 mov	 rax, QWORD PTR this$[rbp]
  0005f	48 8d a5 c8 00
	00 00		 lea	 rsp, QWORD PTR [rbp+200]
  00066	5f		 pop	 rdi
  00067	5d		 pop	 rbp
  00068	c3		 ret	 0
??_Gexception@std@@UEAAPEAXI@Z ENDP			; std::exception::`scalar deleting destructor'
_TEXT	ENDS
; Function compile flags: /Odtp /RTCsu /ZI
; File c:\program files (x86)\microsoft visual studio\2017\community\vc\tools\msvc\14.16.27023\include\vcruntime_exception.h
;	COMDAT ?what@exception@std@@UEBAPEBDXZ
_TEXT	SEGMENT
tv69 = 192
this$ = 240
?what@exception@std@@UEBAPEBDXZ PROC			; std::exception::what, COMDAT

; 90   :     {

$LN5:
  00000	48 89 4c 24 08	 mov	 QWORD PTR [rsp+8], rcx
  00005	55		 push	 rbp
  00006	57		 push	 rdi
  00007	48 81 ec f8 00
	00 00		 sub	 rsp, 248		; 000000f8H
  0000e	48 8d 6c 24 20	 lea	 rbp, QWORD PTR [rsp+32]
  00013	48 8b fc	 mov	 rdi, rsp
  00016	b9 3e 00 00 00	 mov	 ecx, 62			; 0000003eH
  0001b	b8 cc cc cc cc	 mov	 eax, -858993460		; ccccccccH
  00020	f3 ab		 rep stosd
  00022	48 8b 8c 24 18
	01 00 00	 mov	 rcx, QWORD PTR [rsp+280]
  0002a	48 8d 0d 00 00
	00 00		 lea	 rcx, OFFSET FLAT:__9BB4E194_vcruntime_exception@h
  00031	e8 00 00 00 00	 call	 __CheckForDebuggerJustMyCode

; 91   :         return _Data._What ? _Data._What : "Unknown exception";

  00036	48 8b 85 f0 00
	00 00		 mov	 rax, QWORD PTR this$[rbp]
  0003d	48 83 78 08 00	 cmp	 QWORD PTR [rax+8], 0
  00042	74 14		 je	 SHORT $LN3@what
  00044	48 8b 85 f0 00
	00 00		 mov	 rax, QWORD PTR this$[rbp]
  0004b	48 8b 40 08	 mov	 rax, QWORD PTR [rax+8]
  0004f	48 89 85 c0 00
	00 00		 mov	 QWORD PTR tv69[rbp], rax
  00056	eb 0e		 jmp	 SHORT $LN4@what
$LN3@what:
  00058	48 8d 05 00 00
	00 00		 lea	 rax, OFFSET FLAT:??_C@_0BC@EOODALEL@Unknown?5exception@
  0005f	48 89 85 c0 00
	00 00		 mov	 QWORD PTR tv69[rbp], rax
$LN4@what:
  00066	48 8b 85 c0 00
	00 00		 mov	 rax, QWORD PTR tv69[rbp]

; 92   :     }

  0006d	48 8d a5 d8 00
	00 00		 lea	 rsp, QWORD PTR [rbp+216]
  00074	5f		 pop	 rdi
  00075	5d		 pop	 rbp
  00076	c3		 ret	 0
?what@exception@std@@UEBAPEBDXZ ENDP			; std::exception::what
_TEXT	ENDS
; Function compile flags: /Odtp /RTCsu /ZI
; File c:\program files (x86)\microsoft visual studio\2017\community\vc\tools\msvc\14.16.27023\include\vcruntime_exception.h
;	COMDAT ??1exception@std@@UEAA@XZ
_TEXT	SEGMENT
$T1 = 200
this$ = 256
??1exception@std@@UEAA@XZ PROC				; std::exception::~exception, COMDAT

; 85   :     {

$LN3:
  00000	48 89 4c 24 08	 mov	 QWORD PTR [rsp+8], rcx
  00005	55		 push	 rbp
  00006	57		 push	 rdi
  00007	48 81 ec 08 01
	00 00		 sub	 rsp, 264		; 00000108H
  0000e	48 8d 6c 24 20	 lea	 rbp, QWORD PTR [rsp+32]
  00013	48 8b fc	 mov	 rdi, rsp
  00016	b9 42 00 00 00	 mov	 ecx, 66			; 00000042H
  0001b	b8 cc cc cc cc	 mov	 eax, -858993460		; ccccccccH
  00020	f3 ab		 rep stosd
  00022	48 8b 8c 24 28
	01 00 00	 mov	 rcx, QWORD PTR [rsp+296]
  0002a	48 c7 85 c8 00
	00 00 fe ff ff
	ff		 mov	 QWORD PTR $T1[rbp], -2
  00035	48 8d 0d 00 00
	00 00		 lea	 rcx, OFFSET FLAT:__9BB4E194_vcruntime_exception@h
  0003c	e8 00 00 00 00	 call	 __CheckForDebuggerJustMyCode
  00041	90		 npad	 1
  00042	48 8b 85 00 01
	00 00		 mov	 rax, QWORD PTR this$[rbp]
  00049	48 8d 0d 00 00
	00 00		 lea	 rcx, OFFSET FLAT:??_7exception@std@@6B@
  00050	48 89 08	 mov	 QWORD PTR [rax], rcx

; 86   :         __std_exception_destroy(&_Data);

  00053	48 8b 85 00 01
	00 00		 mov	 rax, QWORD PTR this$[rbp]
  0005a	48 83 c0 08	 add	 rax, 8
  0005e	48 8b c8	 mov	 rcx, rax
  00061	e8 00 00 00 00	 call	 __std_exception_destroy
  00066	90		 npad	 1

; 87   :     }

  00067	48 8d a5 e8 00
	00 00		 lea	 rsp, QWORD PTR [rbp+232]
  0006e	5f		 pop	 rdi
  0006f	5d		 pop	 rbp
  00070	c3		 ret	 0
??1exception@std@@UEAA@XZ ENDP				; std::exception::~exception
_TEXT	ENDS
; Function compile flags: /Odtp /RTCsu /ZI
; File c:\program files (x86)\microsoft visual studio\2017\community\vc\tools\msvc\14.16.27023\include\vcruntime_exception.h
;	COMDAT ??0exception@std@@QEAA@XZ
_TEXT	SEGMENT
$T1 = 200
this$ = 256
??0exception@std@@QEAA@XZ PROC				; std::exception::exception, COMDAT

; 50   :     {

$LN3:
  00000	48 89 4c 24 08	 mov	 QWORD PTR [rsp+8], rcx
  00005	55		 push	 rbp
  00006	57		 push	 rdi
  00007	48 81 ec 08 01
	00 00		 sub	 rsp, 264		; 00000108H
  0000e	48 8d 6c 24 20	 lea	 rbp, QWORD PTR [rsp+32]
  00013	48 8b fc	 mov	 rdi, rsp
  00016	b9 42 00 00 00	 mov	 ecx, 66			; 00000042H
  0001b	b8 cc cc cc cc	 mov	 eax, -858993460		; ccccccccH
  00020	f3 ab		 rep stosd
  00022	48 8b 8c 24 28
	01 00 00	 mov	 rcx, QWORD PTR [rsp+296]
  0002a	48 c7 85 c8 00
	00 00 fe ff ff
	ff		 mov	 QWORD PTR $T1[rbp], -2
  00035	48 8d 0d 00 00
	00 00		 lea	 rcx, OFFSET FLAT:__9BB4E194_vcruntime_exception@h
  0003c	e8 00 00 00 00	 call	 __CheckForDebuggerJustMyCode
  00041	90		 npad	 1
  00042	48 8b 85 00 01
	00 00		 mov	 rax, QWORD PTR this$[rbp]
  00049	48 8d 0d 00 00
	00 00		 lea	 rcx, OFFSET FLAT:??_7exception@std@@6B@
  00050	48 89 08	 mov	 QWORD PTR [rax], rcx

; 49   :         : _Data()

  00053	48 8b 85 00 01
	00 00		 mov	 rax, QWORD PTR this$[rbp]
  0005a	48 83 c0 08	 add	 rax, 8
  0005e	48 8b f8	 mov	 rdi, rax
  00061	33 c0		 xor	 eax, eax
  00063	b9 10 00 00 00	 mov	 ecx, 16
  00068	f3 aa		 rep stosb

; 51   :     }

  0006a	48 8b 85 00 01
	00 00		 mov	 rax, QWORD PTR this$[rbp]
  00071	48 8d a5 e8 00
	00 00		 lea	 rsp, QWORD PTR [rbp+232]
  00078	5f		 pop	 rdi
  00079	5d		 pop	 rbp
  0007a	c3		 ret	 0
??0exception@std@@QEAA@XZ ENDP				; std::exception::exception
_TEXT	ENDS
END
