; Listing generated by Microsoft (R) Optimizing Compiler Version 19.16.27027.1 

include listing.inc

INCLUDELIB MSVCRTD
INCLUDELIB OLDNAMES

msvcjmc	SEGMENT
__7B7A869E_ctype@h DB 01H
__457DD326_basetsd@h DB 01H
__4384A2D9_corecrt_memcpy_s@h DB 01H
__2088847F_corecrt_memory@h DB 01H
__4E51A221_corecrt_wstring@h DB 01H
__2140C079_string@h DB 01H
__E9FFF232_guiddef@h DB 01H
__1887E595_winnt@h DB 01H
__9FC7C64B_processthreadsapi@h DB 01H
__FA470AEC_memoryapi@h DB 01H
__F37DAFF1_winerror@h DB 01H
__7A450CCC_winbase@h DB 01H
__12AD47BB_winuser@h DB 01H
__B4B40122_winioctl@h DB 01H
__A73354DD_stdlib@h DB 01H
__25F3FB34_propidl@h DB 01H
__A40E48B8_oleauto@h DB 01H
__86261D59_stralign@h DB 01H
__2CC6E67D_corecrt_stdio_config@h DB 01H
__41381B41_corecrt_wconio@h DB 01H
__F0CC4AC4_corecrt_wio@h DB 01H
__05476D76_corecrt_wstdio@h DB 01H
__C0802A2B_corecrt_wtime@h DB 01H
__A40A425D_stat@h DB 01H
__5A74375D_wchar@h DB 01H
__6BC0FD35_vcruntime_new@h DB 01H
__77F53984_cstddef DB 01H
__188180DA_corecrt_math@h DB 01H
__D23EE329_cstdlib DB 01H
__5ECFF36E_type_traits DB 01H
__331E732B_malloc@h DB 01H
__9BB4E194_vcruntime_exception@h DB 01H
__7949CB39_exception DB 01H
__802FEEC0_pmc_exception@h DB 01H
__BB6D3116_pmc_uint_internal@h DB 01H
__8CA3E54E_pmc_inline_func@h DB 01H
__9F55872E_pmc_compare@cpp DB 01H
msvcjmc	ENDS
PUBLIC	??0exception@std@@QEAA@XZ			; std::exception::exception
PUBLIC	??1exception@std@@UEAA@XZ			; std::exception::~exception
PUBLIC	?what@exception@std@@UEBAPEBDXZ			; std::exception::what
PUBLIC	??_Gexception@std@@UEAAPEAXI@Z			; std::exception::`scalar deleting destructor'
PUBLIC	??0Exception@Internal@Core@Math@Palmtree@@IEAA@HPEB_W0@Z ; Palmtree::Math::Core::Internal::Exception::Exception
PUBLIC	??0Exception@Internal@Core@Math@Palmtree@@QEAA@AEBV01234@@Z ; Palmtree::Math::Core::Internal::Exception::Exception
PUBLIC	??1Exception@Internal@Core@Math@Palmtree@@UEAA@XZ ; Palmtree::Math::Core::Internal::Exception::~Exception
PUBLIC	??_GException@Internal@Core@Math@Palmtree@@UEAAPEAXI@Z ; Palmtree::Math::Core::Internal::Exception::`scalar deleting destructor'
PUBLIC	??0ArgumentNullException@Internal@Core@Math@Palmtree@@QEAA@PEB_W0@Z ; Palmtree::Math::Core::Internal::ArgumentNullException::ArgumentNullException
PUBLIC	??0ArgumentNullException@Internal@Core@Math@Palmtree@@QEAA@AEBV01234@@Z ; Palmtree::Math::Core::Internal::ArgumentNullException::ArgumentNullException
PUBLIC	??1ArgumentNullException@Internal@Core@Math@Palmtree@@UEAA@XZ ; Palmtree::Math::Core::Internal::ArgumentNullException::~ArgumentNullException
PUBLIC	??_GArgumentNullException@Internal@Core@Math@Palmtree@@UEAAPEAXI@Z ; Palmtree::Math::Core::Internal::ArgumentNullException::`scalar deleting destructor'
PUBLIC	??0InternalErrorException@Internal@Core@Math@Palmtree@@QEAA@PEB_W0@Z ; Palmtree::Math::Core::Internal::InternalErrorException::InternalErrorException
PUBLIC	??0InternalErrorException@Internal@Core@Math@Palmtree@@QEAA@AEBV01234@@Z ; Palmtree::Math::Core::Internal::InternalErrorException::InternalErrorException
PUBLIC	??1InternalErrorException@Internal@Core@Math@Palmtree@@UEAA@XZ ; Palmtree::Math::Core::Internal::InternalErrorException::~InternalErrorException
PUBLIC	??_GInternalErrorException@Internal@Core@Math@Palmtree@@UEAAPEAXI@Z ; Palmtree::Math::Core::Internal::InternalErrorException::`scalar deleting destructor'
PUBLIC	?Compare_Imp@Internal@Core@Math@Palmtree@@YAHPEA_K0_K@Z ; Palmtree::Math::Core::Internal::Compare_Imp
PUBLIC	?PMC_Compare_X_X_Imp@Internal@Core@Math@Palmtree@@YAHPEAU__tag_NUMBER_HEADER@1234@0@Z ; Palmtree::Math::Core::Internal::PMC_Compare_X_X_Imp
PUBLIC	?Initialize_Compare@Internal@Core@Math@Palmtree@@YAHPEAU_tag_PROCESSOR_FEATURES@1234@@Z ; Palmtree::Math::Core::Internal::Initialize_Compare
PUBLIC	?PMC_Compare_I_X@Internal@Core@Math@Palmtree@@YAHIPEAU__tag_PMC_HANDLE_UINT@1234@@Z ; Palmtree::Math::Core::Internal::PMC_Compare_I_X
PUBLIC	?PMC_Compare_L_X@Internal@Core@Math@Palmtree@@YAH_KPEAU__tag_PMC_HANDLE_UINT@1234@@Z ; Palmtree::Math::Core::Internal::PMC_Compare_L_X
PUBLIC	?PMC_Compare_X_I@Internal@Core@Math@Palmtree@@YAHPEAU__tag_PMC_HANDLE_UINT@1234@I@Z ; Palmtree::Math::Core::Internal::PMC_Compare_X_I
PUBLIC	?PMC_Compare_X_L@Internal@Core@Math@Palmtree@@YAHPEAU__tag_PMC_HANDLE_UINT@1234@_K@Z ; Palmtree::Math::Core::Internal::PMC_Compare_X_L
PUBLIC	?PMC_Compare_X_X@Internal@Core@Math@Palmtree@@YAHPEAU__tag_PMC_HANDLE_UINT@1234@0@Z ; Palmtree::Math::Core::Internal::PMC_Compare_X_X
PUBLIC	__JustMyCode_Default
PUBLIC	??_7exception@std@@6B@				; std::exception::`vftable'
PUBLIC	??_C@_0BC@EOODALEL@Unknown?5exception@		; `string'
PUBLIC	??_7Exception@Internal@Core@Math@Palmtree@@6B@	; Palmtree::Math::Core::Internal::Exception::`vftable'
PUBLIC	??_7ArgumentNullException@Internal@Core@Math@Palmtree@@6B@ ; Palmtree::Math::Core::Internal::ArgumentNullException::`vftable'
PUBLIC	??_7InternalErrorException@Internal@Core@Math@Palmtree@@6B@ ; Palmtree::Math::Core::Internal::InternalErrorException::`vftable'
PUBLIC	_TI2?AVInternalErrorException@Internal@Core@Math@Palmtree@@
PUBLIC	_CTA2?AVInternalErrorException@Internal@Core@Math@Palmtree@@
PUBLIC	??_R0?AVInternalErrorException@Internal@Core@Math@Palmtree@@@8 ; Palmtree::Math::Core::Internal::InternalErrorException `RTTI Type Descriptor'
PUBLIC	_CT??_R0?AVInternalErrorException@Internal@Core@Math@Palmtree@@@8??0InternalErrorException@Internal@Core@Math@Palmtree@@QEAA@AEBV01234@@Z48
PUBLIC	??_R0?AVException@Internal@Core@Math@Palmtree@@@8 ; Palmtree::Math::Core::Internal::Exception `RTTI Type Descriptor'
PUBLIC	_CT??_R0?AVException@Internal@Core@Math@Palmtree@@@8??0Exception@Internal@Core@Math@Palmtree@@QEAA@AEBV01234@@Z48
PUBLIC	??_C@_1EE@IOKDECPJ@?$AAp?$AAm?$AAc?$AA_?$AAc?$AAo?$AAm?$AAp?$AAa?$AAr?$AAe?$AA?4?$AAc?$AAp?$AAp@ ; `string'
PUBLIC	??_C@_1CG@CNOPPENL@?$PP?$II?$AA?$BP?$AAW?$AAf?$AAD?$AAj?$AAD?$PP?$LD?$PP?$PM?$PP?I?$AAk?$AA0?$AAT?$AAW?$AA?$HO@ ; `string'
PUBLIC	_TI2?AVArgumentNullException@Internal@Core@Math@Palmtree@@
PUBLIC	_CTA2?AVArgumentNullException@Internal@Core@Math@Palmtree@@
PUBLIC	??_R0?AVArgumentNullException@Internal@Core@Math@Palmtree@@@8 ; Palmtree::Math::Core::Internal::ArgumentNullException `RTTI Type Descriptor'
PUBLIC	_CT??_R0?AVArgumentNullException@Internal@Core@Math@Palmtree@@@8??0ArgumentNullException@Internal@Core@Math@Palmtree@@QEAA@AEBV01234@@Z48
PUBLIC	??_C@_13JAOPNPKD@?$AAv@				; `string'
PUBLIC	??_C@_1CK@ECFIEPAC@?$AA?$BF?$AAp?$AAk?$AAn?$AAu?$AAl?$AAl?$AAp?$AAt?$AAr?$AAL?$AA?$AO?$AAH?$PP?$IJ?$PP?$IM@ ; `string'
PUBLIC	??_C@_1EE@JMBGONBH@?$AAp?$AAm?$AAc?$AA_?$AAc?$AAo?$AAm?$AAp?$AAa?$AAr?$AAe?$AA?4?$AAc?$AAp?$AAp@ ; `string'
PUBLIC	??_C@_1BM@FCPAHMHB@?$PP?$IF?$PP?h?$PP?$KI?$PP?i?$PP?$PM?$AAL?$AAz?$AA?$BP?$AAW?$AA?$HO?$AAW?$AA_?$AA?$AC@ ; `string'
PUBLIC	??_C@_1EE@KJAPNCNP@?$AAp?$AAm?$AAc?$AA_?$AAc?$AAo?$AAm?$AAp?$AAa?$AAr?$AAe?$AA?4?$AAc?$AAp?$AAp@ ; `string'
PUBLIC	??_C@_13ICFKHAEN@?$AAu@				; `string'
PUBLIC	??_C@_1EE@LLLKHNDB@?$AAp?$AAm?$AAc?$AA_?$AAc?$AAo?$AAm?$AAp?$AAa?$AAr?$AAe?$AA?4?$AAc?$AAp?$AAp@ ; `string'
PUBLIC	??_C@_1EE@BGAADFOJ@?$AAp?$AAm?$AAc?$AA_?$AAc?$AAo?$AAm?$AAp?$AAa?$AAr?$AAe?$AA?4?$AAc?$AAp?$AAp@ ; `string'
PUBLIC	??_C@_1EE@ELFJKAH@?$AAp?$AAm?$AAc?$AA_?$AAc?$AAo?$AAm?$AAp?$AAa?$AAr?$AAe?$AA?4?$AAc?$AAp?$AAp@ ; `string'
PUBLIC	??_C@_1EE@OBOPNMLL@?$AAp?$AAm?$AAc?$AA_?$AAc?$AAo?$AAm?$AAp?$AAa?$AAr?$AAe?$AA?4?$AAc?$AAp?$AAp@ ; `string'
PUBLIC	??_C@_1EE@PDFKHDFF@?$AAp?$AAm?$AAc?$AA_?$AAc?$AAo?$AAm?$AAp?$AAa?$AAr?$AAe?$AA?4?$AAc?$AAp?$AAp@ ; `string'
PUBLIC	??_C@_1EE@BJBOODGK@?$AAp?$AAm?$AAc?$AA_?$AAc?$AAo?$AAm?$AAp?$AAa?$AAr?$AAe?$AA?4?$AAc?$AAp?$AAp@ ; `string'
PUBLIC	??_R4exception@std@@6B@				; std::exception::`RTTI Complete Object Locator'
PUBLIC	??_R0?AVexception@std@@@8			; std::exception `RTTI Type Descriptor'
PUBLIC	??_R3exception@std@@8				; std::exception::`RTTI Class Hierarchy Descriptor'
PUBLIC	??_R2exception@std@@8				; std::exception::`RTTI Base Class Array'
PUBLIC	??_R1A@?0A@EA@exception@std@@8			; std::exception::`RTTI Base Class Descriptor at (0,-1,0,64)'
PUBLIC	??_R4Exception@Internal@Core@Math@Palmtree@@6B@	; Palmtree::Math::Core::Internal::Exception::`RTTI Complete Object Locator'
PUBLIC	??_R3Exception@Internal@Core@Math@Palmtree@@8	; Palmtree::Math::Core::Internal::Exception::`RTTI Class Hierarchy Descriptor'
PUBLIC	??_R2Exception@Internal@Core@Math@Palmtree@@8	; Palmtree::Math::Core::Internal::Exception::`RTTI Base Class Array'
PUBLIC	??_R1A@?0A@EA@Exception@Internal@Core@Math@Palmtree@@8 ; Palmtree::Math::Core::Internal::Exception::`RTTI Base Class Descriptor at (0,-1,0,64)'
PUBLIC	??_R1A@?0A@EN@exception@std@@8			; std::exception::`RTTI Base Class Descriptor at (0,-1,0,77)'
PUBLIC	??_R4ArgumentNullException@Internal@Core@Math@Palmtree@@6B@ ; Palmtree::Math::Core::Internal::ArgumentNullException::`RTTI Complete Object Locator'
PUBLIC	??_R3ArgumentNullException@Internal@Core@Math@Palmtree@@8 ; Palmtree::Math::Core::Internal::ArgumentNullException::`RTTI Class Hierarchy Descriptor'
PUBLIC	??_R2ArgumentNullException@Internal@Core@Math@Palmtree@@8 ; Palmtree::Math::Core::Internal::ArgumentNullException::`RTTI Base Class Array'
PUBLIC	??_R1A@?0A@EA@ArgumentNullException@Internal@Core@Math@Palmtree@@8 ; Palmtree::Math::Core::Internal::ArgumentNullException::`RTTI Base Class Descriptor at (0,-1,0,64)'
PUBLIC	??_R4InternalErrorException@Internal@Core@Math@Palmtree@@6B@ ; Palmtree::Math::Core::Internal::InternalErrorException::`RTTI Complete Object Locator'
PUBLIC	??_R3InternalErrorException@Internal@Core@Math@Palmtree@@8 ; Palmtree::Math::Core::Internal::InternalErrorException::`RTTI Class Hierarchy Descriptor'
PUBLIC	??_R2InternalErrorException@Internal@Core@Math@Palmtree@@8 ; Palmtree::Math::Core::Internal::InternalErrorException::`RTTI Base Class Array'
PUBLIC	??_R1A@?0A@EA@InternalErrorException@Internal@Core@Math@Palmtree@@8 ; Palmtree::Math::Core::Internal::InternalErrorException::`RTTI Base Class Descriptor at (0,-1,0,64)'
EXTRN	??3@YAXPEAX_K@Z:PROC				; operator delete
EXTRN	__std_exception_destroy:PROC
EXTRN	??_Eexception@std@@UEAAPEAXI@Z:PROC		; std::exception::`vector deleting destructor'
EXTRN	??_EException@Internal@Core@Math@Palmtree@@UEAAPEAXI@Z:PROC ; Palmtree::Math::Core::Internal::Exception::`vector deleting destructor'
EXTRN	??_EArgumentNullException@Internal@Core@Math@Palmtree@@UEAAPEAXI@Z:PROC ; Palmtree::Math::Core::Internal::ArgumentNullException::`vector deleting destructor'
EXTRN	??_EInternalErrorException@Internal@Core@Math@Palmtree@@UEAAPEAXI@Z:PROC ; Palmtree::Math::Core::Internal::InternalErrorException::`vector deleting destructor'
EXTRN	?CheckNumber@Internal@Core@Math@Palmtree@@YAXPEAU__tag_NUMBER_HEADER@1234@@Z:PROC ; Palmtree::Math::Core::Internal::CheckNumber
EXTRN	_CxxThrowException:PROC
EXTRN	_RTC_CheckStackVars:PROC
EXTRN	_RTC_InitBase:PROC
EXTRN	_RTC_Shutdown:PROC
EXTRN	__CheckForDebuggerJustMyCode:PROC
EXTRN	__CxxFrameHandler3:PROC
EXTRN	??_7type_info@@6B@:BYTE				; type_info::`vftable'
;	COMDAT pdata
pdata	SEGMENT
$pdata$??0exception@std@@QEAA@XZ DD imagerel $LN3
	DD	imagerel $LN3+123
	DD	imagerel $unwind$??0exception@std@@QEAA@XZ
pdata	ENDS
;	COMDAT pdata
pdata	SEGMENT
$pdata$??1exception@std@@UEAA@XZ DD imagerel $LN3
	DD	imagerel $LN3+113
	DD	imagerel $unwind$??1exception@std@@UEAA@XZ
pdata	ENDS
;	COMDAT pdata
pdata	SEGMENT
$pdata$?what@exception@std@@UEBAPEBDXZ DD imagerel $LN5
	DD	imagerel $LN5+119
	DD	imagerel $unwind$?what@exception@std@@UEBAPEBDXZ
pdata	ENDS
;	COMDAT pdata
pdata	SEGMENT
$pdata$??_Gexception@std@@UEAAPEAXI@Z DD imagerel $LN4
	DD	imagerel $LN4+105
	DD	imagerel $unwind$??_Gexception@std@@UEAAPEAXI@Z
pdata	ENDS
;	COMDAT pdata
pdata	SEGMENT
$pdata$??0Exception@Internal@Core@Math@Palmtree@@IEAA@HPEB_W0@Z DD imagerel $LN4
	DD	imagerel $LN4+179
	DD	imagerel $unwind$??0Exception@Internal@Core@Math@Palmtree@@IEAA@HPEB_W0@Z
pdata	ENDS
;	COMDAT pdata
pdata	SEGMENT
$pdata$?dtor$0@?0???0Exception@Internal@Core@Math@Palmtree@@IEAA@HPEB_W0@Z@4HA DD imagerel ?dtor$0@?0???0Exception@Internal@Core@Math@Palmtree@@IEAA@HPEB_W0@Z@4HA
	DD	imagerel ?dtor$0@?0???0Exception@Internal@Core@Math@Palmtree@@IEAA@HPEB_W0@Z@4HA+39
	DD	imagerel $unwind$?dtor$0@?0???0Exception@Internal@Core@Math@Palmtree@@IEAA@HPEB_W0@Z@4HA
pdata	ENDS
;	COMDAT pdata
pdata	SEGMENT
$pdata$??0Exception@Internal@Core@Math@Palmtree@@QEAA@AEBV01234@@Z DD imagerel $LN4
	DD	imagerel $LN4+182
	DD	imagerel $unwind$??0Exception@Internal@Core@Math@Palmtree@@QEAA@AEBV01234@@Z
pdata	ENDS
;	COMDAT pdata
pdata	SEGMENT
$pdata$?dtor$0@?0???0Exception@Internal@Core@Math@Palmtree@@QEAA@AEBV01234@@Z@4HA DD imagerel ?dtor$0@?0???0Exception@Internal@Core@Math@Palmtree@@QEAA@AEBV01234@@Z@4HA
	DD	imagerel ?dtor$0@?0???0Exception@Internal@Core@Math@Palmtree@@QEAA@AEBV01234@@Z@4HA+39
	DD	imagerel $unwind$?dtor$0@?0???0Exception@Internal@Core@Math@Palmtree@@QEAA@AEBV01234@@Z@4HA
pdata	ENDS
;	COMDAT pdata
pdata	SEGMENT
$pdata$??1Exception@Internal@Core@Math@Palmtree@@UEAA@XZ DD imagerel $LN4
	DD	imagerel $LN4+106
	DD	imagerel $unwind$??1Exception@Internal@Core@Math@Palmtree@@UEAA@XZ
pdata	ENDS
;	COMDAT pdata
pdata	SEGMENT
$pdata$?dtor$0@?0???1Exception@Internal@Core@Math@Palmtree@@UEAA@XZ@4HA DD imagerel ?dtor$0@?0???1Exception@Internal@Core@Math@Palmtree@@UEAA@XZ@4HA
	DD	imagerel ?dtor$0@?0???1Exception@Internal@Core@Math@Palmtree@@UEAA@XZ@4HA+39
	DD	imagerel $unwind$?dtor$0@?0???1Exception@Internal@Core@Math@Palmtree@@UEAA@XZ@4HA
pdata	ENDS
;	COMDAT pdata
pdata	SEGMENT
$pdata$??_GException@Internal@Core@Math@Palmtree@@UEAAPEAXI@Z DD imagerel $LN4
	DD	imagerel $LN4+105
	DD	imagerel $unwind$??_GException@Internal@Core@Math@Palmtree@@UEAAPEAXI@Z
pdata	ENDS
;	COMDAT pdata
pdata	SEGMENT
$pdata$??0ArgumentNullException@Internal@Core@Math@Palmtree@@QEAA@PEB_W0@Z DD imagerel $LN4
	DD	imagerel $LN4+142
	DD	imagerel $unwind$??0ArgumentNullException@Internal@Core@Math@Palmtree@@QEAA@PEB_W0@Z
pdata	ENDS
;	COMDAT pdata
pdata	SEGMENT
$pdata$?dtor$0@?0???0ArgumentNullException@Internal@Core@Math@Palmtree@@QEAA@PEB_W0@Z@4HA DD imagerel ?dtor$0@?0???0ArgumentNullException@Internal@Core@Math@Palmtree@@QEAA@PEB_W0@Z@4HA
	DD	imagerel ?dtor$0@?0???0ArgumentNullException@Internal@Core@Math@Palmtree@@QEAA@PEB_W0@Z@4HA+39
	DD	imagerel $unwind$?dtor$0@?0???0ArgumentNullException@Internal@Core@Math@Palmtree@@QEAA@PEB_W0@Z@4HA
pdata	ENDS
;	COMDAT pdata
pdata	SEGMENT
$pdata$??0ArgumentNullException@Internal@Core@Math@Palmtree@@QEAA@AEBV01234@@Z DD imagerel $LN4
	DD	imagerel $LN4+125
	DD	imagerel $unwind$??0ArgumentNullException@Internal@Core@Math@Palmtree@@QEAA@AEBV01234@@Z
pdata	ENDS
;	COMDAT pdata
pdata	SEGMENT
$pdata$?dtor$0@?0???0ArgumentNullException@Internal@Core@Math@Palmtree@@QEAA@AEBV01234@@Z@4HA DD imagerel ?dtor$0@?0???0ArgumentNullException@Internal@Core@Math@Palmtree@@QEAA@AEBV01234@@Z@4HA
	DD	imagerel ?dtor$0@?0???0ArgumentNullException@Internal@Core@Math@Palmtree@@QEAA@AEBV01234@@Z@4HA+39
	DD	imagerel $unwind$?dtor$0@?0???0ArgumentNullException@Internal@Core@Math@Palmtree@@QEAA@AEBV01234@@Z@4HA
pdata	ENDS
;	COMDAT pdata
pdata	SEGMENT
$pdata$??1ArgumentNullException@Internal@Core@Math@Palmtree@@UEAA@XZ DD imagerel $LN4
	DD	imagerel $LN4+106
	DD	imagerel $unwind$??1ArgumentNullException@Internal@Core@Math@Palmtree@@UEAA@XZ
pdata	ENDS
;	COMDAT pdata
pdata	SEGMENT
$pdata$?dtor$0@?0???1ArgumentNullException@Internal@Core@Math@Palmtree@@UEAA@XZ@4HA DD imagerel ?dtor$0@?0???1ArgumentNullException@Internal@Core@Math@Palmtree@@UEAA@XZ@4HA
	DD	imagerel ?dtor$0@?0???1ArgumentNullException@Internal@Core@Math@Palmtree@@UEAA@XZ@4HA+39
	DD	imagerel $unwind$?dtor$0@?0???1ArgumentNullException@Internal@Core@Math@Palmtree@@UEAA@XZ@4HA
pdata	ENDS
;	COMDAT pdata
pdata	SEGMENT
$pdata$??_GArgumentNullException@Internal@Core@Math@Palmtree@@UEAAPEAXI@Z DD imagerel $LN4
	DD	imagerel $LN4+105
	DD	imagerel $unwind$??_GArgumentNullException@Internal@Core@Math@Palmtree@@UEAAPEAXI@Z
pdata	ENDS
;	COMDAT pdata
pdata	SEGMENT
$pdata$??0InternalErrorException@Internal@Core@Math@Palmtree@@QEAA@PEB_W0@Z DD imagerel $LN4
	DD	imagerel $LN4+142
	DD	imagerel $unwind$??0InternalErrorException@Internal@Core@Math@Palmtree@@QEAA@PEB_W0@Z
pdata	ENDS
;	COMDAT pdata
pdata	SEGMENT
$pdata$?dtor$0@?0???0InternalErrorException@Internal@Core@Math@Palmtree@@QEAA@PEB_W0@Z@4HA DD imagerel ?dtor$0@?0???0InternalErrorException@Internal@Core@Math@Palmtree@@QEAA@PEB_W0@Z@4HA
	DD	imagerel ?dtor$0@?0???0InternalErrorException@Internal@Core@Math@Palmtree@@QEAA@PEB_W0@Z@4HA+39
	DD	imagerel $unwind$?dtor$0@?0???0InternalErrorException@Internal@Core@Math@Palmtree@@QEAA@PEB_W0@Z@4HA
pdata	ENDS
;	COMDAT pdata
pdata	SEGMENT
$pdata$??0InternalErrorException@Internal@Core@Math@Palmtree@@QEAA@AEBV01234@@Z DD imagerel $LN4
	DD	imagerel $LN4+125
	DD	imagerel $unwind$??0InternalErrorException@Internal@Core@Math@Palmtree@@QEAA@AEBV01234@@Z
pdata	ENDS
;	COMDAT pdata
pdata	SEGMENT
$pdata$?dtor$0@?0???0InternalErrorException@Internal@Core@Math@Palmtree@@QEAA@AEBV01234@@Z@4HA DD imagerel ?dtor$0@?0???0InternalErrorException@Internal@Core@Math@Palmtree@@QEAA@AEBV01234@@Z@4HA
	DD	imagerel ?dtor$0@?0???0InternalErrorException@Internal@Core@Math@Palmtree@@QEAA@AEBV01234@@Z@4HA+39
	DD	imagerel $unwind$?dtor$0@?0???0InternalErrorException@Internal@Core@Math@Palmtree@@QEAA@AEBV01234@@Z@4HA
pdata	ENDS
;	COMDAT pdata
pdata	SEGMENT
$pdata$??1InternalErrorException@Internal@Core@Math@Palmtree@@UEAA@XZ DD imagerel $LN4
	DD	imagerel $LN4+106
	DD	imagerel $unwind$??1InternalErrorException@Internal@Core@Math@Palmtree@@UEAA@XZ
pdata	ENDS
;	COMDAT pdata
pdata	SEGMENT
$pdata$?dtor$0@?0???1InternalErrorException@Internal@Core@Math@Palmtree@@UEAA@XZ@4HA DD imagerel ?dtor$0@?0???1InternalErrorException@Internal@Core@Math@Palmtree@@UEAA@XZ@4HA
	DD	imagerel ?dtor$0@?0???1InternalErrorException@Internal@Core@Math@Palmtree@@UEAA@XZ@4HA+39
	DD	imagerel $unwind$?dtor$0@?0???1InternalErrorException@Internal@Core@Math@Palmtree@@UEAA@XZ@4HA
pdata	ENDS
;	COMDAT pdata
pdata	SEGMENT
$pdata$??_GInternalErrorException@Internal@Core@Math@Palmtree@@UEAAPEAXI@Z DD imagerel $LN4
	DD	imagerel $LN4+105
	DD	imagerel $unwind$??_GInternalErrorException@Internal@Core@Math@Palmtree@@UEAAPEAXI@Z
pdata	ENDS
;	COMDAT pdata
pdata	SEGMENT
$pdata$?Compare_Imp@Internal@Core@Math@Palmtree@@YAHPEA_K0_K@Z DD imagerel $LN9
	DD	imagerel $LN9+251
	DD	imagerel $unwind$?Compare_Imp@Internal@Core@Math@Palmtree@@YAHPEA_K0_K@Z
pdata	ENDS
;	COMDAT pdata
pdata	SEGMENT
$pdata$?PMC_Compare_X_X_Imp@Internal@Core@Math@Palmtree@@YAHPEAU__tag_NUMBER_HEADER@1234@0@Z DD imagerel $LN13
	DD	imagerel $LN13+273
	DD	imagerel $unwind$?PMC_Compare_X_X_Imp@Internal@Core@Math@Palmtree@@YAHPEAU__tag_NUMBER_HEADER@1234@0@Z
pdata	ENDS
;	COMDAT pdata
pdata	SEGMENT
$pdata$?Initialize_Compare@Internal@Core@Math@Palmtree@@YAHPEAU_tag_PROCESSOR_FEATURES@1234@@Z DD imagerel $LN3
	DD	imagerel $LN3+66
	DD	imagerel $unwind$?Initialize_Compare@Internal@Core@Math@Palmtree@@YAHPEAU_tag_PROCESSOR_FEATURES@1234@@Z
pdata	ENDS
;	COMDAT pdata
pdata	SEGMENT
$pdata$?PMC_Compare_I_X@Internal@Core@Math@Palmtree@@YAHIPEAU__tag_PMC_HANDLE_UINT@1234@@Z DD imagerel $LN6
	DD	imagerel $LN6+274
	DD	imagerel $unwind$?PMC_Compare_I_X@Internal@Core@Math@Palmtree@@YAHIPEAU__tag_PMC_HANDLE_UINT@1234@@Z
pdata	ENDS
;	COMDAT pdata
pdata	SEGMENT
$pdata$?PMC_Compare_L_X@Internal@Core@Math@Palmtree@@YAH_KPEAU__tag_PMC_HANDLE_UINT@1234@@Z DD imagerel $LN6
	DD	imagerel $LN6+277
	DD	imagerel $unwind$?PMC_Compare_L_X@Internal@Core@Math@Palmtree@@YAH_KPEAU__tag_PMC_HANDLE_UINT@1234@@Z
pdata	ENDS
;	COMDAT pdata
pdata	SEGMENT
$pdata$?PMC_Compare_X_I@Internal@Core@Math@Palmtree@@YAHPEAU__tag_PMC_HANDLE_UINT@1234@I@Z DD imagerel $LN6
	DD	imagerel $LN6+273
	DD	imagerel $unwind$?PMC_Compare_X_I@Internal@Core@Math@Palmtree@@YAHPEAU__tag_PMC_HANDLE_UINT@1234@I@Z
pdata	ENDS
;	COMDAT pdata
pdata	SEGMENT
$pdata$?PMC_Compare_X_L@Internal@Core@Math@Palmtree@@YAHPEAU__tag_PMC_HANDLE_UINT@1234@_K@Z DD imagerel $LN6
	DD	imagerel $LN6+275
	DD	imagerel $unwind$?PMC_Compare_X_L@Internal@Core@Math@Palmtree@@YAHPEAU__tag_PMC_HANDLE_UINT@1234@_K@Z
pdata	ENDS
;	COMDAT pdata
pdata	SEGMENT
$pdata$?PMC_Compare_X_X@Internal@Core@Math@Palmtree@@YAHPEAU__tag_PMC_HANDLE_UINT@1234@0@Z DD imagerel $LN6
	DD	imagerel $LN6+301
	DD	imagerel $unwind$?PMC_Compare_X_X@Internal@Core@Math@Palmtree@@YAHPEAU__tag_PMC_HANDLE_UINT@1234@0@Z
pdata	ENDS
;	COMDAT pdata
pdata	SEGMENT
$pdata$_FROMDWORDTOWORD DD imagerel _FROMDWORDTOWORD
	DD	imagerel _FROMDWORDTOWORD+95
	DD	imagerel $unwind$_FROMDWORDTOWORD
pdata	ENDS
;	COMDAT pdata
pdata	SEGMENT
$pdata$_LZCNT_ALT_32 DD imagerel _LZCNT_ALT_32
	DD	imagerel _LZCNT_ALT_32+126
	DD	imagerel $unwind$_LZCNT_ALT_32
pdata	ENDS
;	COMDAT pdata
pdata	SEGMENT
$pdata$_LZCNT_ALT_UNIT DD imagerel _LZCNT_ALT_UNIT
	DD	imagerel _LZCNT_ALT_UNIT+131
	DD	imagerel $unwind$_LZCNT_ALT_UNIT
pdata	ENDS
;	COMDAT pdata
pdata	SEGMENT
$pdata$?PMC_Compare_X_I_Imp@Internal@Core@Math@Palmtree@@YAHPEAU__tag_NUMBER_HEADER@1234@I@Z DD imagerel ?PMC_Compare_X_I_Imp@Internal@Core@Math@Palmtree@@YAHPEAU__tag_NUMBER_HEADER@1234@I@Z
	DD	imagerel ?PMC_Compare_X_I_Imp@Internal@Core@Math@Palmtree@@YAHPEAU__tag_NUMBER_HEADER@1234@I@Z+307
	DD	imagerel $unwind$?PMC_Compare_X_I_Imp@Internal@Core@Math@Palmtree@@YAHPEAU__tag_NUMBER_HEADER@1234@I@Z
pdata	ENDS
;	COMDAT pdata
pdata	SEGMENT
$pdata$?PMC_Compare_X_L_Imp@Internal@Core@Math@Palmtree@@YAHPEAU__tag_NUMBER_HEADER@1234@_K@Z DD imagerel ?PMC_Compare_X_L_Imp@Internal@Core@Math@Palmtree@@YAHPEAU__tag_NUMBER_HEADER@1234@_K@Z
	DD	imagerel ?PMC_Compare_X_L_Imp@Internal@Core@Math@Palmtree@@YAHPEAU__tag_NUMBER_HEADER@1234@_K@Z+833
	DD	imagerel $unwind$?PMC_Compare_X_L_Imp@Internal@Core@Math@Palmtree@@YAHPEAU__tag_NUMBER_HEADER@1234@_K@Z
pdata	ENDS
;	COMDAT rtc$TMZ
rtc$TMZ	SEGMENT
_RTC_Shutdown.rtc$TMZ DQ FLAT:_RTC_Shutdown
rtc$TMZ	ENDS
;	COMDAT rtc$IMZ
rtc$IMZ	SEGMENT
_RTC_InitBase.rtc$IMZ DQ FLAT:_RTC_InitBase
rtc$IMZ	ENDS
;	COMDAT ??_R1A@?0A@EA@InternalErrorException@Internal@Core@Math@Palmtree@@8
rdata$r	SEGMENT
??_R1A@?0A@EA@InternalErrorException@Internal@Core@Math@Palmtree@@8 DD imagerel ??_R0?AVInternalErrorException@Internal@Core@Math@Palmtree@@@8 ; Palmtree::Math::Core::Internal::InternalErrorException::`RTTI Base Class Descriptor at (0,-1,0,64)'
	DD	02H
	DD	00H
	DD	0ffffffffH
	DD	00H
	DD	040H
	DD	imagerel ??_R3InternalErrorException@Internal@Core@Math@Palmtree@@8
rdata$r	ENDS
;	COMDAT ??_R2InternalErrorException@Internal@Core@Math@Palmtree@@8
rdata$r	SEGMENT
??_R2InternalErrorException@Internal@Core@Math@Palmtree@@8 DD imagerel ??_R1A@?0A@EA@InternalErrorException@Internal@Core@Math@Palmtree@@8 ; Palmtree::Math::Core::Internal::InternalErrorException::`RTTI Base Class Array'
	DD	imagerel ??_R1A@?0A@EA@Exception@Internal@Core@Math@Palmtree@@8
	DD	imagerel ??_R1A@?0A@EN@exception@std@@8
	ORG $+3
rdata$r	ENDS
;	COMDAT ??_R3InternalErrorException@Internal@Core@Math@Palmtree@@8
rdata$r	SEGMENT
??_R3InternalErrorException@Internal@Core@Math@Palmtree@@8 DD 00H ; Palmtree::Math::Core::Internal::InternalErrorException::`RTTI Class Hierarchy Descriptor'
	DD	00H
	DD	03H
	DD	imagerel ??_R2InternalErrorException@Internal@Core@Math@Palmtree@@8
rdata$r	ENDS
;	COMDAT ??_R4InternalErrorException@Internal@Core@Math@Palmtree@@6B@
rdata$r	SEGMENT
??_R4InternalErrorException@Internal@Core@Math@Palmtree@@6B@ DD 01H ; Palmtree::Math::Core::Internal::InternalErrorException::`RTTI Complete Object Locator'
	DD	00H
	DD	00H
	DD	imagerel ??_R0?AVInternalErrorException@Internal@Core@Math@Palmtree@@@8
	DD	imagerel ??_R3InternalErrorException@Internal@Core@Math@Palmtree@@8
	DD	imagerel ??_R4InternalErrorException@Internal@Core@Math@Palmtree@@6B@
rdata$r	ENDS
;	COMDAT ??_R1A@?0A@EA@ArgumentNullException@Internal@Core@Math@Palmtree@@8
rdata$r	SEGMENT
??_R1A@?0A@EA@ArgumentNullException@Internal@Core@Math@Palmtree@@8 DD imagerel ??_R0?AVArgumentNullException@Internal@Core@Math@Palmtree@@@8 ; Palmtree::Math::Core::Internal::ArgumentNullException::`RTTI Base Class Descriptor at (0,-1,0,64)'
	DD	02H
	DD	00H
	DD	0ffffffffH
	DD	00H
	DD	040H
	DD	imagerel ??_R3ArgumentNullException@Internal@Core@Math@Palmtree@@8
rdata$r	ENDS
;	COMDAT ??_R2ArgumentNullException@Internal@Core@Math@Palmtree@@8
rdata$r	SEGMENT
??_R2ArgumentNullException@Internal@Core@Math@Palmtree@@8 DD imagerel ??_R1A@?0A@EA@ArgumentNullException@Internal@Core@Math@Palmtree@@8 ; Palmtree::Math::Core::Internal::ArgumentNullException::`RTTI Base Class Array'
	DD	imagerel ??_R1A@?0A@EA@Exception@Internal@Core@Math@Palmtree@@8
	DD	imagerel ??_R1A@?0A@EN@exception@std@@8
	ORG $+3
rdata$r	ENDS
;	COMDAT ??_R3ArgumentNullException@Internal@Core@Math@Palmtree@@8
rdata$r	SEGMENT
??_R3ArgumentNullException@Internal@Core@Math@Palmtree@@8 DD 00H ; Palmtree::Math::Core::Internal::ArgumentNullException::`RTTI Class Hierarchy Descriptor'
	DD	00H
	DD	03H
	DD	imagerel ??_R2ArgumentNullException@Internal@Core@Math@Palmtree@@8
rdata$r	ENDS
;	COMDAT ??_R4ArgumentNullException@Internal@Core@Math@Palmtree@@6B@
rdata$r	SEGMENT
??_R4ArgumentNullException@Internal@Core@Math@Palmtree@@6B@ DD 01H ; Palmtree::Math::Core::Internal::ArgumentNullException::`RTTI Complete Object Locator'
	DD	00H
	DD	00H
	DD	imagerel ??_R0?AVArgumentNullException@Internal@Core@Math@Palmtree@@@8
	DD	imagerel ??_R3ArgumentNullException@Internal@Core@Math@Palmtree@@8
	DD	imagerel ??_R4ArgumentNullException@Internal@Core@Math@Palmtree@@6B@
rdata$r	ENDS
;	COMDAT ??_R1A@?0A@EN@exception@std@@8
rdata$r	SEGMENT
??_R1A@?0A@EN@exception@std@@8 DD imagerel ??_R0?AVexception@std@@@8 ; std::exception::`RTTI Base Class Descriptor at (0,-1,0,77)'
	DD	00H
	DD	00H
	DD	0ffffffffH
	DD	00H
	DD	04dH
	DD	imagerel ??_R3exception@std@@8
rdata$r	ENDS
;	COMDAT ??_R1A@?0A@EA@Exception@Internal@Core@Math@Palmtree@@8
rdata$r	SEGMENT
??_R1A@?0A@EA@Exception@Internal@Core@Math@Palmtree@@8 DD imagerel ??_R0?AVException@Internal@Core@Math@Palmtree@@@8 ; Palmtree::Math::Core::Internal::Exception::`RTTI Base Class Descriptor at (0,-1,0,64)'
	DD	01H
	DD	00H
	DD	0ffffffffH
	DD	00H
	DD	040H
	DD	imagerel ??_R3Exception@Internal@Core@Math@Palmtree@@8
rdata$r	ENDS
;	COMDAT ??_R2Exception@Internal@Core@Math@Palmtree@@8
rdata$r	SEGMENT
??_R2Exception@Internal@Core@Math@Palmtree@@8 DD imagerel ??_R1A@?0A@EA@Exception@Internal@Core@Math@Palmtree@@8 ; Palmtree::Math::Core::Internal::Exception::`RTTI Base Class Array'
	DD	imagerel ??_R1A@?0A@EN@exception@std@@8
	ORG $+3
rdata$r	ENDS
;	COMDAT ??_R3Exception@Internal@Core@Math@Palmtree@@8
rdata$r	SEGMENT
??_R3Exception@Internal@Core@Math@Palmtree@@8 DD 00H	; Palmtree::Math::Core::Internal::Exception::`RTTI Class Hierarchy Descriptor'
	DD	00H
	DD	02H
	DD	imagerel ??_R2Exception@Internal@Core@Math@Palmtree@@8
rdata$r	ENDS
;	COMDAT ??_R4Exception@Internal@Core@Math@Palmtree@@6B@
rdata$r	SEGMENT
??_R4Exception@Internal@Core@Math@Palmtree@@6B@ DD 01H	; Palmtree::Math::Core::Internal::Exception::`RTTI Complete Object Locator'
	DD	00H
	DD	00H
	DD	imagerel ??_R0?AVException@Internal@Core@Math@Palmtree@@@8
	DD	imagerel ??_R3Exception@Internal@Core@Math@Palmtree@@8
	DD	imagerel ??_R4Exception@Internal@Core@Math@Palmtree@@6B@
rdata$r	ENDS
;	COMDAT ??_R1A@?0A@EA@exception@std@@8
rdata$r	SEGMENT
??_R1A@?0A@EA@exception@std@@8 DD imagerel ??_R0?AVexception@std@@@8 ; std::exception::`RTTI Base Class Descriptor at (0,-1,0,64)'
	DD	00H
	DD	00H
	DD	0ffffffffH
	DD	00H
	DD	040H
	DD	imagerel ??_R3exception@std@@8
rdata$r	ENDS
;	COMDAT ??_R2exception@std@@8
rdata$r	SEGMENT
??_R2exception@std@@8 DD imagerel ??_R1A@?0A@EA@exception@std@@8 ; std::exception::`RTTI Base Class Array'
	ORG $+3
rdata$r	ENDS
;	COMDAT ??_R3exception@std@@8
rdata$r	SEGMENT
??_R3exception@std@@8 DD 00H				; std::exception::`RTTI Class Hierarchy Descriptor'
	DD	00H
	DD	01H
	DD	imagerel ??_R2exception@std@@8
rdata$r	ENDS
;	COMDAT ??_R0?AVexception@std@@@8
data$r	SEGMENT
??_R0?AVexception@std@@@8 DQ FLAT:??_7type_info@@6B@	; std::exception `RTTI Type Descriptor'
	DQ	0000000000000000H
	DB	'.?AVexception@std@@', 00H
data$r	ENDS
;	COMDAT ??_R4exception@std@@6B@
rdata$r	SEGMENT
??_R4exception@std@@6B@ DD 01H				; std::exception::`RTTI Complete Object Locator'
	DD	00H
	DD	00H
	DD	imagerel ??_R0?AVexception@std@@@8
	DD	imagerel ??_R3exception@std@@8
	DD	imagerel ??_R4exception@std@@6B@
rdata$r	ENDS
;	COMDAT ??_C@_1EE@BJBOODGK@?$AAp?$AAm?$AAc?$AA_?$AAc?$AAo?$AAm?$AAp?$AAa?$AAr?$AAe?$AA?4?$AAc?$AAp?$AAp@
CONST	SEGMENT
??_C@_1EE@BJBOODGK@?$AAp?$AAm?$AAc?$AA_?$AAc?$AAo?$AAm?$AAp?$AAa?$AAr?$AAe?$AA?4?$AAc?$AAp?$AAp@ DB 'p'
	DB	00H, 'm', 00H, 'c', 00H, '_', 00H, 'c', 00H, 'o', 00H, 'm', 00H
	DB	'p', 00H, 'a', 00H, 'r', 00H, 'e', 00H, '.', 00H, 'c', 00H, 'p'
	DB	00H, 'p', 00H, ';', 00H, 'P', 00H, 'M', 00H, 'C', 00H, '_', 00H
	DB	'C', 00H, 'o', 00H, 'm', 00H, 'p', 00H, 'a', 00H, 'r', 00H, 'e'
	DB	00H, '_', 00H, 'X', 00H, '_', 00H, 'X', 00H, ';', 00H, '1', 00H
	DB	00H, 00H					; `string'
CONST	ENDS
;	COMDAT ??_C@_1EE@PDFKHDFF@?$AAp?$AAm?$AAc?$AA_?$AAc?$AAo?$AAm?$AAp?$AAa?$AAr?$AAe?$AA?4?$AAc?$AAp?$AAp@
CONST	SEGMENT
??_C@_1EE@PDFKHDFF@?$AAp?$AAm?$AAc?$AA_?$AAc?$AAo?$AAm?$AAp?$AAa?$AAr?$AAe?$AA?4?$AAc?$AAp?$AAp@ DB 'p'
	DB	00H, 'm', 00H, 'c', 00H, '_', 00H, 'c', 00H, 'o', 00H, 'm', 00H
	DB	'p', 00H, 'a', 00H, 'r', 00H, 'e', 00H, '.', 00H, 'c', 00H, 'p'
	DB	00H, 'p', 00H, ';', 00H, 'P', 00H, 'M', 00H, 'C', 00H, '_', 00H
	DB	'C', 00H, 'o', 00H, 'm', 00H, 'p', 00H, 'a', 00H, 'r', 00H, 'e'
	DB	00H, '_', 00H, 'X', 00H, '_', 00H, 'L', 00H, ';', 00H, '2', 00H
	DB	00H, 00H					; `string'
CONST	ENDS
;	COMDAT ??_C@_1EE@OBOPNMLL@?$AAp?$AAm?$AAc?$AA_?$AAc?$AAo?$AAm?$AAp?$AAa?$AAr?$AAe?$AA?4?$AAc?$AAp?$AAp@
CONST	SEGMENT
??_C@_1EE@OBOPNMLL@?$AAp?$AAm?$AAc?$AA_?$AAc?$AAo?$AAm?$AAp?$AAa?$AAr?$AAe?$AA?4?$AAc?$AAp?$AAp@ DB 'p'
	DB	00H, 'm', 00H, 'c', 00H, '_', 00H, 'c', 00H, 'o', 00H, 'm', 00H
	DB	'p', 00H, 'a', 00H, 'r', 00H, 'e', 00H, '.', 00H, 'c', 00H, 'p'
	DB	00H, 'p', 00H, ';', 00H, 'P', 00H, 'M', 00H, 'C', 00H, '_', 00H
	DB	'C', 00H, 'o', 00H, 'm', 00H, 'p', 00H, 'a', 00H, 'r', 00H, 'e'
	DB	00H, '_', 00H, 'X', 00H, '_', 00H, 'L', 00H, ';', 00H, '1', 00H
	DB	00H, 00H					; `string'
CONST	ENDS
;	COMDAT ??_C@_1EE@ELFJKAH@?$AAp?$AAm?$AAc?$AA_?$AAc?$AAo?$AAm?$AAp?$AAa?$AAr?$AAe?$AA?4?$AAc?$AAp?$AAp@
CONST	SEGMENT
??_C@_1EE@ELFJKAH@?$AAp?$AAm?$AAc?$AA_?$AAc?$AAo?$AAm?$AAp?$AAa?$AAr?$AAe?$AA?4?$AAc?$AAp?$AAp@ DB 'p'
	DB	00H, 'm', 00H, 'c', 00H, '_', 00H, 'c', 00H, 'o', 00H, 'm', 00H
	DB	'p', 00H, 'a', 00H, 'r', 00H, 'e', 00H, '.', 00H, 'c', 00H, 'p'
	DB	00H, 'p', 00H, ';', 00H, 'P', 00H, 'M', 00H, 'C', 00H, '_', 00H
	DB	'C', 00H, 'o', 00H, 'm', 00H, 'p', 00H, 'a', 00H, 'r', 00H, 'e'
	DB	00H, '_', 00H, 'L', 00H, '_', 00H, 'X', 00H, ';', 00H, '2', 00H
	DB	00H, 00H					; `string'
CONST	ENDS
;	COMDAT ??_C@_1EE@BGAADFOJ@?$AAp?$AAm?$AAc?$AA_?$AAc?$AAo?$AAm?$AAp?$AAa?$AAr?$AAe?$AA?4?$AAc?$AAp?$AAp@
CONST	SEGMENT
??_C@_1EE@BGAADFOJ@?$AAp?$AAm?$AAc?$AA_?$AAc?$AAo?$AAm?$AAp?$AAa?$AAr?$AAe?$AA?4?$AAc?$AAp?$AAp@ DB 'p'
	DB	00H, 'm', 00H, 'c', 00H, '_', 00H, 'c', 00H, 'o', 00H, 'm', 00H
	DB	'p', 00H, 'a', 00H, 'r', 00H, 'e', 00H, '.', 00H, 'c', 00H, 'p'
	DB	00H, 'p', 00H, ';', 00H, 'P', 00H, 'M', 00H, 'C', 00H, '_', 00H
	DB	'C', 00H, 'o', 00H, 'm', 00H, 'p', 00H, 'a', 00H, 'r', 00H, 'e'
	DB	00H, '_', 00H, 'L', 00H, '_', 00H, 'X', 00H, ';', 00H, '1', 00H
	DB	00H, 00H					; `string'
CONST	ENDS
;	COMDAT ??_C@_1EE@LLLKHNDB@?$AAp?$AAm?$AAc?$AA_?$AAc?$AAo?$AAm?$AAp?$AAa?$AAr?$AAe?$AA?4?$AAc?$AAp?$AAp@
CONST	SEGMENT
??_C@_1EE@LLLKHNDB@?$AAp?$AAm?$AAc?$AA_?$AAc?$AAo?$AAm?$AAp?$AAa?$AAr?$AAe?$AA?4?$AAc?$AAp?$AAp@ DB 'p'
	DB	00H, 'm', 00H, 'c', 00H, '_', 00H, 'c', 00H, 'o', 00H, 'm', 00H
	DB	'p', 00H, 'a', 00H, 'r', 00H, 'e', 00H, '.', 00H, 'c', 00H, 'p'
	DB	00H, 'p', 00H, ';', 00H, 'P', 00H, 'M', 00H, 'C', 00H, '_', 00H
	DB	'C', 00H, 'o', 00H, 'm', 00H, 'p', 00H, 'a', 00H, 'r', 00H, 'e'
	DB	00H, '_', 00H, 'X', 00H, '_', 00H, 'I', 00H, ';', 00H, '2', 00H
	DB	00H, 00H					; `string'
CONST	ENDS
;	COMDAT ??_C@_13ICFKHAEN@?$AAu@
CONST	SEGMENT
??_C@_13ICFKHAEN@?$AAu@ DB 'u', 00H, 00H, 00H		; `string'
CONST	ENDS
;	COMDAT ??_C@_1EE@KJAPNCNP@?$AAp?$AAm?$AAc?$AA_?$AAc?$AAo?$AAm?$AAp?$AAa?$AAr?$AAe?$AA?4?$AAc?$AAp?$AAp@
CONST	SEGMENT
??_C@_1EE@KJAPNCNP@?$AAp?$AAm?$AAc?$AA_?$AAc?$AAo?$AAm?$AAp?$AAa?$AAr?$AAe?$AA?4?$AAc?$AAp?$AAp@ DB 'p'
	DB	00H, 'm', 00H, 'c', 00H, '_', 00H, 'c', 00H, 'o', 00H, 'm', 00H
	DB	'p', 00H, 'a', 00H, 'r', 00H, 'e', 00H, '.', 00H, 'c', 00H, 'p'
	DB	00H, 'p', 00H, ';', 00H, 'P', 00H, 'M', 00H, 'C', 00H, '_', 00H
	DB	'C', 00H, 'o', 00H, 'm', 00H, 'p', 00H, 'a', 00H, 'r', 00H, 'e'
	DB	00H, '_', 00H, 'X', 00H, '_', 00H, 'I', 00H, ';', 00H, '1', 00H
	DB	00H, 00H					; `string'
CONST	ENDS
;	COMDAT ??_C@_1BM@FCPAHMHB@?$PP?$IF?$PP?h?$PP?$KI?$PP?i?$PP?$PM?$AAL?$AAz?$AA?$BP?$AAW?$AA?$HO?$AAW?$AA_?$AA?$AC@
CONST	SEGMENT
??_C@_1BM@FCPAHMHB@?$PP?$IF?$PP?h?$PP?$KI?$PP?i?$PP?$PM?$AAL?$AAz?$AA?$BP?$AAW?$AA?$HO?$AAW?$AA_?$AA?$AC@ DB 085H
	DB	'Q', 0e8H, 090H, 0a8H, '0', 0e9H, '0', 0fcH, '0L0zv', 01fH, 'u'
	DB	'W0~0W0_0', 02H, '0', 00H, 00H		; `string'
CONST	ENDS
;	COMDAT ??_C@_1EE@JMBGONBH@?$AAp?$AAm?$AAc?$AA_?$AAc?$AAo?$AAm?$AAp?$AAa?$AAr?$AAe?$AA?4?$AAc?$AAp?$AAp@
CONST	SEGMENT
??_C@_1EE@JMBGONBH@?$AAp?$AAm?$AAc?$AA_?$AAc?$AAo?$AAm?$AAp?$AAa?$AAr?$AAe?$AA?4?$AAc?$AAp?$AAp@ DB 'p'
	DB	00H, 'm', 00H, 'c', 00H, '_', 00H, 'c', 00H, 'o', 00H, 'm', 00H
	DB	'p', 00H, 'a', 00H, 'r', 00H, 'e', 00H, '.', 00H, 'c', 00H, 'p'
	DB	00H, 'p', 00H, ';', 00H, 'P', 00H, 'M', 00H, 'C', 00H, '_', 00H
	DB	'C', 00H, 'o', 00H, 'm', 00H, 'p', 00H, 'a', 00H, 'r', 00H, 'e'
	DB	00H, '_', 00H, 'I', 00H, '_', 00H, 'X', 00H, ';', 00H, '2', 00H
	DB	00H, 00H					; `string'
CONST	ENDS
;	COMDAT ??_C@_1CK@ECFIEPAC@?$AA?$BF?$AAp?$AAk?$AAn?$AAu?$AAl?$AAl?$AAp?$AAt?$AAr?$AAL?$AA?$AO?$AAH?$PP?$IJ?$PP?$IM@
CONST	SEGMENT
??_C@_1CK@ECFIEPAC@?$AA?$BF?$AAp?$AAk?$AAn?$AAu?$AAl?$AAl?$AAp?$AAt?$AAr?$AAL?$AA?$AO?$AAH?$PP?$IJ?$PP?$IM@ DB 015H
	DB	'_pek0n', 00H, 'u', 00H, 'l', 00H, 'l', 00H, 'p', 00H, 't', 00H
	DB	'r', 00H, 'L0', 0eH, 'NH0', 089H, '0', 08cH, '0f0D0~0Y0', 02H, '0'
	DB	00H, 00H					; `string'
CONST	ENDS
;	COMDAT ??_C@_13JAOPNPKD@?$AAv@
CONST	SEGMENT
??_C@_13JAOPNPKD@?$AAv@ DB 'v', 00H, 00H, 00H		; `string'
CONST	ENDS
;	COMDAT _CT??_R0?AVArgumentNullException@Internal@Core@Math@Palmtree@@@8??0ArgumentNullException@Internal@Core@Math@Palmtree@@QEAA@AEBV01234@@Z48
xdata$x	SEGMENT
_CT??_R0?AVArgumentNullException@Internal@Core@Math@Palmtree@@@8??0ArgumentNullException@Internal@Core@Math@Palmtree@@QEAA@AEBV01234@@Z48 DD 00H
	DD	imagerel ??_R0?AVArgumentNullException@Internal@Core@Math@Palmtree@@@8
	DD	00H
	DD	0ffffffffH
	ORG $+4
	DD	030H
	DD	imagerel ??0ArgumentNullException@Internal@Core@Math@Palmtree@@QEAA@AEBV01234@@Z
xdata$x	ENDS
;	COMDAT ??_R0?AVArgumentNullException@Internal@Core@Math@Palmtree@@@8
data$r	SEGMENT
??_R0?AVArgumentNullException@Internal@Core@Math@Palmtree@@@8 DQ FLAT:??_7type_info@@6B@ ; Palmtree::Math::Core::Internal::ArgumentNullException `RTTI Type Descriptor'
	DQ	0000000000000000H
	DB	'.?AVArgumentNullException@Internal@Core@Math@Palmtree@@', 00H
data$r	ENDS
;	COMDAT _CTA2?AVArgumentNullException@Internal@Core@Math@Palmtree@@
xdata$x	SEGMENT
_CTA2?AVArgumentNullException@Internal@Core@Math@Palmtree@@ DD 02H
	DD	imagerel _CT??_R0?AVArgumentNullException@Internal@Core@Math@Palmtree@@@8??0ArgumentNullException@Internal@Core@Math@Palmtree@@QEAA@AEBV01234@@Z48
	DD	imagerel _CT??_R0?AVException@Internal@Core@Math@Palmtree@@@8??0Exception@Internal@Core@Math@Palmtree@@QEAA@AEBV01234@@Z48
xdata$x	ENDS
;	COMDAT _TI2?AVArgumentNullException@Internal@Core@Math@Palmtree@@
xdata$x	SEGMENT
_TI2?AVArgumentNullException@Internal@Core@Math@Palmtree@@ DD 00H
	DD	imagerel ??1ArgumentNullException@Internal@Core@Math@Palmtree@@UEAA@XZ
	DD	00H
	DD	imagerel _CTA2?AVArgumentNullException@Internal@Core@Math@Palmtree@@
xdata$x	ENDS
;	COMDAT ??_C@_1CG@CNOPPENL@?$PP?$II?$AA?$BP?$AAW?$AAf?$AAD?$AAj?$AAD?$PP?$LD?$PP?$PM?$PP?I?$AAk?$AA0?$AAT?$AAW?$AA?$HO@
CONST	SEGMENT
??_C@_1CG@CNOPPENL@?$PP?$II?$AA?$BP?$AAW?$AAf?$AAD?$AAj?$AAD?$PP?$LD?$PP?$PM?$PP?I?$AAk?$AA0?$AAT?$AAW?$AA?$HO@ DB 088H
	DB	'N', 01fH, 'gW0f0D0j0D0', 0b3H, '0', 0fcH, '0', 0c9H, '0k00RT', 090H
	DB	'W0~0W0_0', 02H, '0', 00H, 00H		; `string'
CONST	ENDS
;	COMDAT ??_C@_1EE@IOKDECPJ@?$AAp?$AAm?$AAc?$AA_?$AAc?$AAo?$AAm?$AAp?$AAa?$AAr?$AAe?$AA?4?$AAc?$AAp?$AAp@
CONST	SEGMENT
??_C@_1EE@IOKDECPJ@?$AAp?$AAm?$AAc?$AA_?$AAc?$AAo?$AAm?$AAp?$AAa?$AAr?$AAe?$AA?4?$AAc?$AAp?$AAp@ DB 'p'
	DB	00H, 'm', 00H, 'c', 00H, '_', 00H, 'c', 00H, 'o', 00H, 'm', 00H
	DB	'p', 00H, 'a', 00H, 'r', 00H, 'e', 00H, '.', 00H, 'c', 00H, 'p'
	DB	00H, 'p', 00H, ';', 00H, 'P', 00H, 'M', 00H, 'C', 00H, '_', 00H
	DB	'C', 00H, 'o', 00H, 'm', 00H, 'p', 00H, 'a', 00H, 'r', 00H, 'e'
	DB	00H, '_', 00H, 'I', 00H, '_', 00H, 'X', 00H, ';', 00H, '1', 00H
	DB	00H, 00H					; `string'
CONST	ENDS
;	COMDAT _CT??_R0?AVException@Internal@Core@Math@Palmtree@@@8??0Exception@Internal@Core@Math@Palmtree@@QEAA@AEBV01234@@Z48
xdata$x	SEGMENT
_CT??_R0?AVException@Internal@Core@Math@Palmtree@@@8??0Exception@Internal@Core@Math@Palmtree@@QEAA@AEBV01234@@Z48 DD 00H
	DD	imagerel ??_R0?AVException@Internal@Core@Math@Palmtree@@@8
	DD	00H
	DD	0ffffffffH
	ORG $+4
	DD	030H
	DD	imagerel ??0Exception@Internal@Core@Math@Palmtree@@QEAA@AEBV01234@@Z
xdata$x	ENDS
;	COMDAT ??_R0?AVException@Internal@Core@Math@Palmtree@@@8
data$r	SEGMENT
??_R0?AVException@Internal@Core@Math@Palmtree@@@8 DQ FLAT:??_7type_info@@6B@ ; Palmtree::Math::Core::Internal::Exception `RTTI Type Descriptor'
	DQ	0000000000000000H
	DB	'.?AVException@Internal@Core@Math@Palmtree@@', 00H
data$r	ENDS
;	COMDAT _CT??_R0?AVInternalErrorException@Internal@Core@Math@Palmtree@@@8??0InternalErrorException@Internal@Core@Math@Palmtree@@QEAA@AEBV01234@@Z48
xdata$x	SEGMENT
_CT??_R0?AVInternalErrorException@Internal@Core@Math@Palmtree@@@8??0InternalErrorException@Internal@Core@Math@Palmtree@@QEAA@AEBV01234@@Z48 DD 00H
	DD	imagerel ??_R0?AVInternalErrorException@Internal@Core@Math@Palmtree@@@8
	DD	00H
	DD	0ffffffffH
	ORG $+4
	DD	030H
	DD	imagerel ??0InternalErrorException@Internal@Core@Math@Palmtree@@QEAA@AEBV01234@@Z
xdata$x	ENDS
;	COMDAT ??_R0?AVInternalErrorException@Internal@Core@Math@Palmtree@@@8
data$r	SEGMENT
??_R0?AVInternalErrorException@Internal@Core@Math@Palmtree@@@8 DQ FLAT:??_7type_info@@6B@ ; Palmtree::Math::Core::Internal::InternalErrorException `RTTI Type Descriptor'
	DQ	0000000000000000H
	DB	'.?AVInternalErrorException@Internal@Core@Math@Palmtree@@'
	DB	00H
data$r	ENDS
;	COMDAT _CTA2?AVInternalErrorException@Internal@Core@Math@Palmtree@@
xdata$x	SEGMENT
_CTA2?AVInternalErrorException@Internal@Core@Math@Palmtree@@ DD 02H
	DD	imagerel _CT??_R0?AVInternalErrorException@Internal@Core@Math@Palmtree@@@8??0InternalErrorException@Internal@Core@Math@Palmtree@@QEAA@AEBV01234@@Z48
	DD	imagerel _CT??_R0?AVException@Internal@Core@Math@Palmtree@@@8??0Exception@Internal@Core@Math@Palmtree@@QEAA@AEBV01234@@Z48
xdata$x	ENDS
;	COMDAT _TI2?AVInternalErrorException@Internal@Core@Math@Palmtree@@
xdata$x	SEGMENT
_TI2?AVInternalErrorException@Internal@Core@Math@Palmtree@@ DD 00H
	DD	imagerel ??1InternalErrorException@Internal@Core@Math@Palmtree@@UEAA@XZ
	DD	00H
	DD	imagerel _CTA2?AVInternalErrorException@Internal@Core@Math@Palmtree@@
xdata$x	ENDS
;	COMDAT ??_7InternalErrorException@Internal@Core@Math@Palmtree@@6B@
CONST	SEGMENT
??_7InternalErrorException@Internal@Core@Math@Palmtree@@6B@ DQ FLAT:??_R4InternalErrorException@Internal@Core@Math@Palmtree@@6B@ ; Palmtree::Math::Core::Internal::InternalErrorException::`vftable'
	DQ	FLAT:??_EInternalErrorException@Internal@Core@Math@Palmtree@@UEAAPEAXI@Z
	DQ	FLAT:?what@exception@std@@UEBAPEBDXZ
CONST	ENDS
;	COMDAT ??_7ArgumentNullException@Internal@Core@Math@Palmtree@@6B@
CONST	SEGMENT
??_7ArgumentNullException@Internal@Core@Math@Palmtree@@6B@ DQ FLAT:??_R4ArgumentNullException@Internal@Core@Math@Palmtree@@6B@ ; Palmtree::Math::Core::Internal::ArgumentNullException::`vftable'
	DQ	FLAT:??_EArgumentNullException@Internal@Core@Math@Palmtree@@UEAAPEAXI@Z
	DQ	FLAT:?what@exception@std@@UEBAPEBDXZ
CONST	ENDS
;	COMDAT ??_7Exception@Internal@Core@Math@Palmtree@@6B@
CONST	SEGMENT
??_7Exception@Internal@Core@Math@Palmtree@@6B@ DQ FLAT:??_R4Exception@Internal@Core@Math@Palmtree@@6B@ ; Palmtree::Math::Core::Internal::Exception::`vftable'
	DQ	FLAT:??_EException@Internal@Core@Math@Palmtree@@UEAAPEAXI@Z
	DQ	FLAT:?what@exception@std@@UEBAPEBDXZ
CONST	ENDS
;	COMDAT ??_C@_0BC@EOODALEL@Unknown?5exception@
CONST	SEGMENT
??_C@_0BC@EOODALEL@Unknown?5exception@ DB 'Unknown exception', 00H ; `string'
CONST	ENDS
;	COMDAT ??_7exception@std@@6B@
CONST	SEGMENT
??_7exception@std@@6B@ DQ FLAT:??_R4exception@std@@6B@	; std::exception::`vftable'
	DQ	FLAT:??_Eexception@std@@UEAAPEAXI@Z
	DQ	FLAT:?what@exception@std@@UEBAPEBDXZ
CONST	ENDS
;	COMDAT xdata
xdata	SEGMENT
$unwind$?PMC_Compare_X_L_Imp@Internal@Core@Math@Palmtree@@YAHPEAU__tag_NUMBER_HEADER@1234@_K@Z DD 025052f01H
	DD	01132318H
	DD	0700c0039H
	DD	0500bH
xdata	ENDS
;	COMDAT CONST
CONST	SEGMENT
?PMC_Compare_X_L_Imp@Internal@Core@Math@Palmtree@@YAHPEAU__tag_NUMBER_HEADER@1234@_K@Z$rtcName$0 DB 076H ; Palmtree::Math::Core::Internal::PMC_Compare_X_L_Imp
	DB	05fH
	DB	068H
	DB	069H
	DB	00H
	ORG $+11
?PMC_Compare_X_L_Imp@Internal@Core@Math@Palmtree@@YAHPEAU__tag_NUMBER_HEADER@1234@_K@Z$rtcVarDesc DD 044H ; Palmtree::Math::Core::Internal::PMC_Compare_X_L_Imp
	DD	04H
	DQ	FLAT:?PMC_Compare_X_L_Imp@Internal@Core@Math@Palmtree@@YAHPEAU__tag_NUMBER_HEADER@1234@_K@Z$rtcName$0
	ORG $+48
?PMC_Compare_X_L_Imp@Internal@Core@Math@Palmtree@@YAHPEAU__tag_NUMBER_HEADER@1234@_K@Z$rtcFrameData DD 01H ; Palmtree::Math::Core::Internal::PMC_Compare_X_L_Imp
	DD	00H
	DQ	FLAT:?PMC_Compare_X_L_Imp@Internal@Core@Math@Palmtree@@YAHPEAU__tag_NUMBER_HEADER@1234@_K@Z$rtcVarDesc
CONST	ENDS
;	COMDAT xdata
xdata	SEGMENT
$unwind$?PMC_Compare_X_I_Imp@Internal@Core@Math@Palmtree@@YAHPEAU__tag_NUMBER_HEADER@1234@I@Z DD 025052e01H
	DD	01122317H
	DD	0700b0025H
	DD	0500aH
xdata	ENDS
;	COMDAT xdata
xdata	SEGMENT
$unwind$_LZCNT_ALT_UNIT DD 025052a01H
	DD	010e2313H
	DD	070070021H
	DD	05006H
xdata	ENDS
;	COMDAT CONST
CONST	SEGMENT
_LZCNT_ALT_UNIT$rtcName$0 DB 070H
	DB	06fH
	DB	073H
	DB	00H
	ORG $+12
_LZCNT_ALT_UNIT$rtcVarDesc DD 024H
	DD	04H
	DQ	FLAT:_LZCNT_ALT_UNIT$rtcName$0
	ORG $+48
_LZCNT_ALT_UNIT$rtcFrameData DD 01H
	DD	00H
	DQ	FLAT:_LZCNT_ALT_UNIT$rtcVarDesc
CONST	ENDS
;	COMDAT xdata
xdata	SEGMENT
$unwind$_LZCNT_ALT_32 DD 025052801H
	DD	010d2312H
	DD	070060021H
	DD	05005H
xdata	ENDS
;	COMDAT CONST
CONST	SEGMENT
_LZCNT_ALT_32$rtcName$0 DB 070H
	DB	06fH
	DB	073H
	DB	00H
	ORG $+12
_LZCNT_ALT_32$rtcVarDesc DD 024H
	DD	04H
	DQ	FLAT:_LZCNT_ALT_32$rtcName$0
	ORG $+48
_LZCNT_ALT_32$rtcFrameData DD 01H
	DD	00H
	DQ	FLAT:_LZCNT_ALT_32$rtcVarDesc
CONST	ENDS
;	COMDAT xdata
xdata	SEGMENT
$unwind$_FROMDWORDTOWORD DD 025052f01H
	DD	01132318H
	DD	0700c001dH
	DD	0500bH
xdata	ENDS
;	COMDAT xdata
xdata	SEGMENT
$unwind$?PMC_Compare_X_X@Internal@Core@Math@Palmtree@@YAHPEAU__tag_PMC_HANDLE_UINT@1234@0@Z DD 025052f01H
	DD	01132318H
	DD	0700c0047H
	DD	0500bH
xdata	ENDS
;	COMDAT xdata
xdata	SEGMENT
$unwind$?PMC_Compare_X_L@Internal@Core@Math@Palmtree@@YAHPEAU__tag_PMC_HANDLE_UINT@1234@_K@Z DD 025052f01H
	DD	01132318H
	DD	0700c003fH
	DD	0500bH
xdata	ENDS
;	COMDAT xdata
xdata	SEGMENT
$unwind$?PMC_Compare_X_I@Internal@Core@Math@Palmtree@@YAHPEAU__tag_PMC_HANDLE_UINT@1234@I@Z DD 025052e01H
	DD	01122317H
	DD	0700b003fH
	DD	0500aH
xdata	ENDS
;	COMDAT xdata
xdata	SEGMENT
$unwind$?PMC_Compare_L_X@Internal@Core@Math@Palmtree@@YAH_KPEAU__tag_PMC_HANDLE_UINT@1234@@Z DD 025052f01H
	DD	01132318H
	DD	0700c003fH
	DD	0500bH
xdata	ENDS
;	COMDAT xdata
xdata	SEGMENT
$unwind$?PMC_Compare_I_X@Internal@Core@Math@Palmtree@@YAHIPEAU__tag_PMC_HANDLE_UINT@1234@@Z DD 025052d01H
	DD	01122317H
	DD	0700b003fH
	DD	0500aH
xdata	ENDS
;	COMDAT xdata
xdata	SEGMENT
$unwind$?Initialize_Compare@Internal@Core@Math@Palmtree@@YAHPEAU_tag_PROCESSOR_FEATURES@1234@@Z DD 025052a01H
	DD	010e2313H
	DD	07007001dH
	DD	05006H
xdata	ENDS
;	COMDAT xdata
xdata	SEGMENT
$unwind$?PMC_Compare_X_X_Imp@Internal@Core@Math@Palmtree@@YAHPEAU__tag_NUMBER_HEADER@1234@0@Z DD 025052f01H
	DD	01132318H
	DD	0700c0025H
	DD	0500bH
xdata	ENDS
;	COMDAT xdata
xdata	SEGMENT
$unwind$?Compare_Imp@Internal@Core@Math@Palmtree@@YAHPEA_K0_K@Z DD 025053401H
	DD	0118231dH
	DD	07011001dH
	DD	05010H
xdata	ENDS
;	COMDAT xdata
xdata	SEGMENT
$unwind$??_GInternalErrorException@Internal@Core@Math@Palmtree@@UEAAPEAXI@Z DD 025052e01H
	DD	01122317H
	DD	0700b001dH
	DD	0500aH
xdata	ENDS
;	COMDAT xdata
xdata	SEGMENT
$unwind$?dtor$0@?0???1InternalErrorException@Internal@Core@Math@Palmtree@@UEAA@XZ@4HA DD 031001H
	DD	0700c4210H
	DD	0500bH
xdata	ENDS
;	COMDAT xdata
xdata	SEGMENT
$ip2state$??1InternalErrorException@Internal@Core@Math@Palmtree@@UEAA@XZ DD imagerel ??1InternalErrorException@Internal@Core@Math@Palmtree@@UEAA@XZ
	DD	0ffffffffH
xdata	ENDS
;	COMDAT xdata
xdata	SEGMENT
$stateUnwindMap$??1InternalErrorException@Internal@Core@Math@Palmtree@@UEAA@XZ DD 0ffffffffH
	DD	imagerel ?dtor$0@?0???1InternalErrorException@Internal@Core@Math@Palmtree@@UEAA@XZ@4HA
xdata	ENDS
;	COMDAT CONST
CONST	SEGMENT
$cppxdata$??1InternalErrorException@Internal@Core@Math@Palmtree@@UEAA@XZ DD 019930522H
	DD	01H
	DD	imagerel $stateUnwindMap$??1InternalErrorException@Internal@Core@Math@Palmtree@@UEAA@XZ
	DD	00H
	DD	00H
	DD	01H
	DD	imagerel $ip2state$??1InternalErrorException@Internal@Core@Math@Palmtree@@UEAA@XZ
	DD	0e8H
	DD	00H
	DD	04H
CONST	ENDS
;	COMDAT xdata
xdata	SEGMENT
$unwind$??1InternalErrorException@Internal@Core@Math@Palmtree@@UEAA@XZ DD 025053519H
	DD	010e2313H
	DD	070070021H
	DD	05006H
	DD	imagerel __CxxFrameHandler3
	DD	imagerel $cppxdata$??1InternalErrorException@Internal@Core@Math@Palmtree@@UEAA@XZ
xdata	ENDS
;	COMDAT xdata
xdata	SEGMENT
$unwind$?dtor$0@?0???0InternalErrorException@Internal@Core@Math@Palmtree@@QEAA@AEBV01234@@Z@4HA DD 031001H
	DD	0700c4210H
	DD	0500bH
xdata	ENDS
;	COMDAT xdata
xdata	SEGMENT
$ip2state$??0InternalErrorException@Internal@Core@Math@Palmtree@@QEAA@AEBV01234@@Z DD imagerel ??0InternalErrorException@Internal@Core@Math@Palmtree@@QEAA@AEBV01234@@Z
	DD	0ffffffffH
	DD	imagerel ??0InternalErrorException@Internal@Core@Math@Palmtree@@QEAA@AEBV01234@@Z+91
	DD	00H
	DD	imagerel ??0InternalErrorException@Internal@Core@Math@Palmtree@@QEAA@AEBV01234@@Z+108
	DD	0ffffffffH
xdata	ENDS
;	COMDAT xdata
xdata	SEGMENT
$stateUnwindMap$??0InternalErrorException@Internal@Core@Math@Palmtree@@QEAA@AEBV01234@@Z DD 0ffffffffH
	DD	imagerel ?dtor$0@?0???0InternalErrorException@Internal@Core@Math@Palmtree@@QEAA@AEBV01234@@Z@4HA
xdata	ENDS
;	COMDAT CONST
CONST	SEGMENT
$cppxdata$??0InternalErrorException@Internal@Core@Math@Palmtree@@QEAA@AEBV01234@@Z DD 019930522H
	DD	01H
	DD	imagerel $stateUnwindMap$??0InternalErrorException@Internal@Core@Math@Palmtree@@QEAA@AEBV01234@@Z
	DD	00H
	DD	00H
	DD	03H
	DD	imagerel $ip2state$??0InternalErrorException@Internal@Core@Math@Palmtree@@QEAA@AEBV01234@@Z
	DD	0e8H
	DD	00H
	DD	04H
CONST	ENDS
;	COMDAT xdata
xdata	SEGMENT
$unwind$??0InternalErrorException@Internal@Core@Math@Palmtree@@QEAA@AEBV01234@@Z DD 025053a19H
	DD	01132318H
	DD	0700c0021H
	DD	0500bH
	DD	imagerel __CxxFrameHandler3
	DD	imagerel $cppxdata$??0InternalErrorException@Internal@Core@Math@Palmtree@@QEAA@AEBV01234@@Z
xdata	ENDS
;	COMDAT xdata
xdata	SEGMENT
$unwind$?dtor$0@?0???0InternalErrorException@Internal@Core@Math@Palmtree@@QEAA@PEB_W0@Z@4HA DD 031001H
	DD	0700c4210H
	DD	0500bH
xdata	ENDS
;	COMDAT xdata
xdata	SEGMENT
$ip2state$??0InternalErrorException@Internal@Core@Math@Palmtree@@QEAA@PEB_W0@Z DD imagerel ??0InternalErrorException@Internal@Core@Math@Palmtree@@QEAA@PEB_W0@Z
	DD	0ffffffffH
	DD	imagerel ??0InternalErrorException@Internal@Core@Math@Palmtree@@QEAA@PEB_W0@Z+108
	DD	00H
	DD	imagerel ??0InternalErrorException@Internal@Core@Math@Palmtree@@QEAA@PEB_W0@Z+125
	DD	0ffffffffH
xdata	ENDS
;	COMDAT xdata
xdata	SEGMENT
$stateUnwindMap$??0InternalErrorException@Internal@Core@Math@Palmtree@@QEAA@PEB_W0@Z DD 0ffffffffH
	DD	imagerel ?dtor$0@?0???0InternalErrorException@Internal@Core@Math@Palmtree@@QEAA@PEB_W0@Z@4HA
xdata	ENDS
;	COMDAT CONST
CONST	SEGMENT
$cppxdata$??0InternalErrorException@Internal@Core@Math@Palmtree@@QEAA@PEB_W0@Z DD 019930522H
	DD	01H
	DD	imagerel $stateUnwindMap$??0InternalErrorException@Internal@Core@Math@Palmtree@@QEAA@PEB_W0@Z
	DD	00H
	DD	00H
	DD	03H
	DD	imagerel $ip2state$??0InternalErrorException@Internal@Core@Math@Palmtree@@QEAA@PEB_W0@Z
	DD	0e8H
	DD	00H
	DD	04H
CONST	ENDS
;	COMDAT xdata
xdata	SEGMENT
$unwind$??0InternalErrorException@Internal@Core@Math@Palmtree@@QEAA@PEB_W0@Z DD 025053f19H
	DD	0118231dH
	DD	070110021H
	DD	05010H
	DD	imagerel __CxxFrameHandler3
	DD	imagerel $cppxdata$??0InternalErrorException@Internal@Core@Math@Palmtree@@QEAA@PEB_W0@Z
xdata	ENDS
;	COMDAT xdata
xdata	SEGMENT
$unwind$??_GArgumentNullException@Internal@Core@Math@Palmtree@@UEAAPEAXI@Z DD 025052e01H
	DD	01122317H
	DD	0700b001dH
	DD	0500aH
xdata	ENDS
;	COMDAT xdata
xdata	SEGMENT
$unwind$?dtor$0@?0???1ArgumentNullException@Internal@Core@Math@Palmtree@@UEAA@XZ@4HA DD 031001H
	DD	0700c4210H
	DD	0500bH
xdata	ENDS
;	COMDAT xdata
xdata	SEGMENT
$ip2state$??1ArgumentNullException@Internal@Core@Math@Palmtree@@UEAA@XZ DD imagerel ??1ArgumentNullException@Internal@Core@Math@Palmtree@@UEAA@XZ
	DD	0ffffffffH
xdata	ENDS
;	COMDAT xdata
xdata	SEGMENT
$stateUnwindMap$??1ArgumentNullException@Internal@Core@Math@Palmtree@@UEAA@XZ DD 0ffffffffH
	DD	imagerel ?dtor$0@?0???1ArgumentNullException@Internal@Core@Math@Palmtree@@UEAA@XZ@4HA
xdata	ENDS
;	COMDAT CONST
CONST	SEGMENT
$cppxdata$??1ArgumentNullException@Internal@Core@Math@Palmtree@@UEAA@XZ DD 019930522H
	DD	01H
	DD	imagerel $stateUnwindMap$??1ArgumentNullException@Internal@Core@Math@Palmtree@@UEAA@XZ
	DD	00H
	DD	00H
	DD	01H
	DD	imagerel $ip2state$??1ArgumentNullException@Internal@Core@Math@Palmtree@@UEAA@XZ
	DD	0e8H
	DD	00H
	DD	04H
CONST	ENDS
;	COMDAT xdata
xdata	SEGMENT
$unwind$??1ArgumentNullException@Internal@Core@Math@Palmtree@@UEAA@XZ DD 025053519H
	DD	010e2313H
	DD	070070021H
	DD	05006H
	DD	imagerel __CxxFrameHandler3
	DD	imagerel $cppxdata$??1ArgumentNullException@Internal@Core@Math@Palmtree@@UEAA@XZ
xdata	ENDS
;	COMDAT xdata
xdata	SEGMENT
$unwind$?dtor$0@?0???0ArgumentNullException@Internal@Core@Math@Palmtree@@QEAA@AEBV01234@@Z@4HA DD 031001H
	DD	0700c4210H
	DD	0500bH
xdata	ENDS
;	COMDAT xdata
xdata	SEGMENT
$ip2state$??0ArgumentNullException@Internal@Core@Math@Palmtree@@QEAA@AEBV01234@@Z DD imagerel ??0ArgumentNullException@Internal@Core@Math@Palmtree@@QEAA@AEBV01234@@Z
	DD	0ffffffffH
	DD	imagerel ??0ArgumentNullException@Internal@Core@Math@Palmtree@@QEAA@AEBV01234@@Z+91
	DD	00H
	DD	imagerel ??0ArgumentNullException@Internal@Core@Math@Palmtree@@QEAA@AEBV01234@@Z+108
	DD	0ffffffffH
xdata	ENDS
;	COMDAT xdata
xdata	SEGMENT
$stateUnwindMap$??0ArgumentNullException@Internal@Core@Math@Palmtree@@QEAA@AEBV01234@@Z DD 0ffffffffH
	DD	imagerel ?dtor$0@?0???0ArgumentNullException@Internal@Core@Math@Palmtree@@QEAA@AEBV01234@@Z@4HA
xdata	ENDS
;	COMDAT CONST
CONST	SEGMENT
$cppxdata$??0ArgumentNullException@Internal@Core@Math@Palmtree@@QEAA@AEBV01234@@Z DD 019930522H
	DD	01H
	DD	imagerel $stateUnwindMap$??0ArgumentNullException@Internal@Core@Math@Palmtree@@QEAA@AEBV01234@@Z
	DD	00H
	DD	00H
	DD	03H
	DD	imagerel $ip2state$??0ArgumentNullException@Internal@Core@Math@Palmtree@@QEAA@AEBV01234@@Z
	DD	0e8H
	DD	00H
	DD	04H
CONST	ENDS
;	COMDAT xdata
xdata	SEGMENT
$unwind$??0ArgumentNullException@Internal@Core@Math@Palmtree@@QEAA@AEBV01234@@Z DD 025053a19H
	DD	01132318H
	DD	0700c0021H
	DD	0500bH
	DD	imagerel __CxxFrameHandler3
	DD	imagerel $cppxdata$??0ArgumentNullException@Internal@Core@Math@Palmtree@@QEAA@AEBV01234@@Z
xdata	ENDS
;	COMDAT xdata
xdata	SEGMENT
$unwind$?dtor$0@?0???0ArgumentNullException@Internal@Core@Math@Palmtree@@QEAA@PEB_W0@Z@4HA DD 031001H
	DD	0700c4210H
	DD	0500bH
xdata	ENDS
;	COMDAT xdata
xdata	SEGMENT
$ip2state$??0ArgumentNullException@Internal@Core@Math@Palmtree@@QEAA@PEB_W0@Z DD imagerel ??0ArgumentNullException@Internal@Core@Math@Palmtree@@QEAA@PEB_W0@Z
	DD	0ffffffffH
	DD	imagerel ??0ArgumentNullException@Internal@Core@Math@Palmtree@@QEAA@PEB_W0@Z+108
	DD	00H
	DD	imagerel ??0ArgumentNullException@Internal@Core@Math@Palmtree@@QEAA@PEB_W0@Z+125
	DD	0ffffffffH
xdata	ENDS
;	COMDAT xdata
xdata	SEGMENT
$stateUnwindMap$??0ArgumentNullException@Internal@Core@Math@Palmtree@@QEAA@PEB_W0@Z DD 0ffffffffH
	DD	imagerel ?dtor$0@?0???0ArgumentNullException@Internal@Core@Math@Palmtree@@QEAA@PEB_W0@Z@4HA
xdata	ENDS
;	COMDAT CONST
CONST	SEGMENT
$cppxdata$??0ArgumentNullException@Internal@Core@Math@Palmtree@@QEAA@PEB_W0@Z DD 019930522H
	DD	01H
	DD	imagerel $stateUnwindMap$??0ArgumentNullException@Internal@Core@Math@Palmtree@@QEAA@PEB_W0@Z
	DD	00H
	DD	00H
	DD	03H
	DD	imagerel $ip2state$??0ArgumentNullException@Internal@Core@Math@Palmtree@@QEAA@PEB_W0@Z
	DD	0e8H
	DD	00H
	DD	04H
CONST	ENDS
;	COMDAT xdata
xdata	SEGMENT
$unwind$??0ArgumentNullException@Internal@Core@Math@Palmtree@@QEAA@PEB_W0@Z DD 025053f19H
	DD	0118231dH
	DD	070110021H
	DD	05010H
	DD	imagerel __CxxFrameHandler3
	DD	imagerel $cppxdata$??0ArgumentNullException@Internal@Core@Math@Palmtree@@QEAA@PEB_W0@Z
xdata	ENDS
;	COMDAT xdata
xdata	SEGMENT
$unwind$??_GException@Internal@Core@Math@Palmtree@@UEAAPEAXI@Z DD 025052e01H
	DD	01122317H
	DD	0700b001dH
	DD	0500aH
xdata	ENDS
;	COMDAT xdata
xdata	SEGMENT
$unwind$?dtor$0@?0???1Exception@Internal@Core@Math@Palmtree@@UEAA@XZ@4HA DD 031001H
	DD	0700c4210H
	DD	0500bH
xdata	ENDS
;	COMDAT xdata
xdata	SEGMENT
$ip2state$??1Exception@Internal@Core@Math@Palmtree@@UEAA@XZ DD imagerel ??1Exception@Internal@Core@Math@Palmtree@@UEAA@XZ
	DD	0ffffffffH
xdata	ENDS
;	COMDAT xdata
xdata	SEGMENT
$stateUnwindMap$??1Exception@Internal@Core@Math@Palmtree@@UEAA@XZ DD 0ffffffffH
	DD	imagerel ?dtor$0@?0???1Exception@Internal@Core@Math@Palmtree@@UEAA@XZ@4HA
xdata	ENDS
;	COMDAT CONST
CONST	SEGMENT
$cppxdata$??1Exception@Internal@Core@Math@Palmtree@@UEAA@XZ DD 019930522H
	DD	01H
	DD	imagerel $stateUnwindMap$??1Exception@Internal@Core@Math@Palmtree@@UEAA@XZ
	DD	00H
	DD	00H
	DD	01H
	DD	imagerel $ip2state$??1Exception@Internal@Core@Math@Palmtree@@UEAA@XZ
	DD	0e8H
	DD	00H
	DD	04H
CONST	ENDS
;	COMDAT xdata
xdata	SEGMENT
$unwind$??1Exception@Internal@Core@Math@Palmtree@@UEAA@XZ DD 025053519H
	DD	010e2313H
	DD	070070021H
	DD	05006H
	DD	imagerel __CxxFrameHandler3
	DD	imagerel $cppxdata$??1Exception@Internal@Core@Math@Palmtree@@UEAA@XZ
xdata	ENDS
;	COMDAT xdata
xdata	SEGMENT
$unwind$?dtor$0@?0???0Exception@Internal@Core@Math@Palmtree@@QEAA@AEBV01234@@Z@4HA DD 031001H
	DD	0700c4210H
	DD	0500bH
xdata	ENDS
;	COMDAT xdata
xdata	SEGMENT
$ip2state$??0Exception@Internal@Core@Math@Palmtree@@QEAA@AEBV01234@@Z DD imagerel ??0Exception@Internal@Core@Math@Palmtree@@QEAA@AEBV01234@@Z
	DD	0ffffffffH
	DD	imagerel ??0Exception@Internal@Core@Math@Palmtree@@QEAA@AEBV01234@@Z+84
	DD	00H
	DD	imagerel ??0Exception@Internal@Core@Math@Palmtree@@QEAA@AEBV01234@@Z+165
	DD	0ffffffffH
xdata	ENDS
;	COMDAT xdata
xdata	SEGMENT
$stateUnwindMap$??0Exception@Internal@Core@Math@Palmtree@@QEAA@AEBV01234@@Z DD 0ffffffffH
	DD	imagerel ?dtor$0@?0???0Exception@Internal@Core@Math@Palmtree@@QEAA@AEBV01234@@Z@4HA
xdata	ENDS
;	COMDAT CONST
CONST	SEGMENT
$cppxdata$??0Exception@Internal@Core@Math@Palmtree@@QEAA@AEBV01234@@Z DD 019930522H
	DD	01H
	DD	imagerel $stateUnwindMap$??0Exception@Internal@Core@Math@Palmtree@@QEAA@AEBV01234@@Z
	DD	00H
	DD	00H
	DD	03H
	DD	imagerel $ip2state$??0Exception@Internal@Core@Math@Palmtree@@QEAA@AEBV01234@@Z
	DD	0e8H
	DD	00H
	DD	04H
CONST	ENDS
;	COMDAT xdata
xdata	SEGMENT
$unwind$??0Exception@Internal@Core@Math@Palmtree@@QEAA@AEBV01234@@Z DD 025053a19H
	DD	01132318H
	DD	0700c0021H
	DD	0500bH
	DD	imagerel __CxxFrameHandler3
	DD	imagerel $cppxdata$??0Exception@Internal@Core@Math@Palmtree@@QEAA@AEBV01234@@Z
xdata	ENDS
;	COMDAT xdata
xdata	SEGMENT
$unwind$?dtor$0@?0???0Exception@Internal@Core@Math@Palmtree@@IEAA@HPEB_W0@Z@4HA DD 031001H
	DD	0700c4210H
	DD	0500bH
xdata	ENDS
;	COMDAT xdata
xdata	SEGMENT
$ip2state$??0Exception@Internal@Core@Math@Palmtree@@IEAA@HPEB_W0@Z DD imagerel ??0Exception@Internal@Core@Math@Palmtree@@IEAA@HPEB_W0@Z
	DD	0ffffffffH
	DD	imagerel ??0Exception@Internal@Core@Math@Palmtree@@IEAA@HPEB_W0@Z+93
	DD	00H
	DD	imagerel ??0Exception@Internal@Core@Math@Palmtree@@IEAA@HPEB_W0@Z+162
	DD	0ffffffffH
xdata	ENDS
;	COMDAT xdata
xdata	SEGMENT
$stateUnwindMap$??0Exception@Internal@Core@Math@Palmtree@@IEAA@HPEB_W0@Z DD 0ffffffffH
	DD	imagerel ?dtor$0@?0???0Exception@Internal@Core@Math@Palmtree@@IEAA@HPEB_W0@Z@4HA
xdata	ENDS
;	COMDAT CONST
CONST	SEGMENT
$cppxdata$??0Exception@Internal@Core@Math@Palmtree@@IEAA@HPEB_W0@Z DD 019930522H
	DD	01H
	DD	imagerel $stateUnwindMap$??0Exception@Internal@Core@Math@Palmtree@@IEAA@HPEB_W0@Z
	DD	00H
	DD	00H
	DD	03H
	DD	imagerel $ip2state$??0Exception@Internal@Core@Math@Palmtree@@IEAA@HPEB_W0@Z
	DD	0e8H
	DD	00H
	DD	04H
CONST	ENDS
;	COMDAT xdata
xdata	SEGMENT
$unwind$??0Exception@Internal@Core@Math@Palmtree@@IEAA@HPEB_W0@Z DD 025054319H
	DD	011c2321H
	DD	070150021H
	DD	05014H
	DD	imagerel __CxxFrameHandler3
	DD	imagerel $cppxdata$??0Exception@Internal@Core@Math@Palmtree@@IEAA@HPEB_W0@Z
xdata	ENDS
;	COMDAT xdata
xdata	SEGMENT
$unwind$??_Gexception@std@@UEAAPEAXI@Z DD 025052e01H
	DD	01122317H
	DD	0700b001dH
	DD	0500aH
xdata	ENDS
;	COMDAT xdata
xdata	SEGMENT
$unwind$?what@exception@std@@UEBAPEBDXZ DD 025052a01H
	DD	010e2313H
	DD	07007001fH
	DD	05006H
xdata	ENDS
;	COMDAT xdata
xdata	SEGMENT
$ip2state$??1exception@std@@UEAA@XZ DD imagerel ??1exception@std@@UEAA@XZ
	DD	0ffffffffH
xdata	ENDS
;	COMDAT CONST
CONST	SEGMENT
$cppxdata$??1exception@std@@UEAA@XZ DD 019930522H
	DD	00H
	DD	00H
	DD	00H
	DD	00H
	DD	01H
	DD	imagerel $ip2state$??1exception@std@@UEAA@XZ
	DD	0e8H
	DD	00H
	DD	04H
CONST	ENDS
;	COMDAT xdata
xdata	SEGMENT
$unwind$??1exception@std@@UEAA@XZ DD 025053519H
	DD	010e2313H
	DD	070070021H
	DD	05006H
	DD	imagerel __CxxFrameHandler3
	DD	imagerel $cppxdata$??1exception@std@@UEAA@XZ
xdata	ENDS
;	COMDAT xdata
xdata	SEGMENT
$ip2state$??0exception@std@@QEAA@XZ DD imagerel ??0exception@std@@QEAA@XZ
	DD	0ffffffffH
xdata	ENDS
;	COMDAT CONST
CONST	SEGMENT
$cppxdata$??0exception@std@@QEAA@XZ DD 019930522H
	DD	00H
	DD	00H
	DD	00H
	DD	00H
	DD	01H
	DD	imagerel $ip2state$??0exception@std@@QEAA@XZ
	DD	0e8H
	DD	00H
	DD	04H
CONST	ENDS
;	COMDAT xdata
xdata	SEGMENT
$unwind$??0exception@std@@QEAA@XZ DD 025053519H
	DD	010e2313H
	DD	070070021H
	DD	05006H
	DD	imagerel __CxxFrameHandler3
	DD	imagerel $cppxdata$??0exception@std@@QEAA@XZ
xdata	ENDS
; Function compile flags: /Odt
;	COMDAT __JustMyCode_Default
_TEXT	SEGMENT
__JustMyCode_Default PROC				; COMDAT
  00000	c2 00 00	 ret	 0
__JustMyCode_Default ENDP
_TEXT	ENDS
; Function compile flags: /Odtp /RTCsu /ZI
; File z:\sources\lunor\repos\rougemeilland\palmtree.math.core.uint\palmtree.math.core.uint\pmc_compare.cpp
;	COMDAT ?PMC_Compare_X_L_Imp@Internal@Core@Math@Palmtree@@YAHPEAU__tag_NUMBER_HEADER@1234@_K@Z
_TEXT	SEGMENT
u_bit_count$4 = 8
v_hi$5 = 36
v_lo$6 = 68
v_bit_count$7 = 104
v_bit_count$8 = 136
u_bit_count$9 = 168
v_bit_count$10 = 200
u$ = 448
v$ = 456
?PMC_Compare_X_L_Imp@Internal@Core@Math@Palmtree@@YAHPEAU__tag_NUMBER_HEADER@1234@_K@Z PROC ; Palmtree::Math::Core::Internal::PMC_Compare_X_L_Imp, COMDAT

; 144  :     {

  00000	48 89 54 24 10	 mov	 QWORD PTR [rsp+16], rdx
  00005	48 89 4c 24 08	 mov	 QWORD PTR [rsp+8], rcx
  0000a	55		 push	 rbp
  0000b	57		 push	 rdi
  0000c	48 81 ec c8 01
	00 00		 sub	 rsp, 456		; 000001c8H
  00013	48 8d 6c 24 20	 lea	 rbp, QWORD PTR [rsp+32]
  00018	48 8b fc	 mov	 rdi, rsp
  0001b	b9 72 00 00 00	 mov	 ecx, 114		; 00000072H
  00020	b8 cc cc cc cc	 mov	 eax, -858993460		; ccccccccH
  00025	f3 ab		 rep stosd
  00027	48 8b 8c 24 e8
	01 00 00	 mov	 rcx, QWORD PTR [rsp+488]
  0002f	48 8d 0d 00 00
	00 00		 lea	 rcx, OFFSET FLAT:__9F55872E_pmc_compare@cpp
  00036	e8 00 00 00 00	 call	 __CheckForDebuggerJustMyCode

; 145  :         if (u->IS_ZERO)

  0003b	48 8b 85 c0 01
	00 00		 mov	 rax, QWORD PTR u$[rbp]
  00042	8b 40 08	 mov	 eax, DWORD PTR [rax+8]
  00045	83 e0 01	 and	 eax, 1
  00048	85 c0		 test	 eax, eax
  0004a	74 22		 je	 SHORT $LN2@PMC_Compar

; 146  :         {
; 147  :             // u  0 
; 148  :             if (v == 0)

  0004c	48 83 bd c8 01
	00 00 00	 cmp	 QWORD PTR v$[rbp], 0
  00054	75 09		 jne	 SHORT $LN4@PMC_Compar

; 149  :             {
; 150  :                 // v  0 
; 151  :                 return (0);

  00056	33 c0		 xor	 eax, eax
  00058	e9 c4 02 00 00	 jmp	 $LN1@PMC_Compar

; 152  :             }
; 153  :             else

  0005d	eb 0a		 jmp	 SHORT $LN5@PMC_Compar
$LN4@PMC_Compar:

; 154  :             {
; 155  :                 // v  0 
; 156  :                 return (-1);

  0005f	b8 ff ff ff ff	 mov	 eax, -1
  00064	e9 b8 02 00 00	 jmp	 $LN1@PMC_Compar
$LN5@PMC_Compar:

; 157  :             }

  00069	e9 b3 02 00 00	 jmp	 $LN3@PMC_Compar
$LN2@PMC_Compar:

; 158  :         }
; 159  :         else if (v == 0)

  0006e	48 83 bd c8 01
	00 00 00	 cmp	 QWORD PTR v$[rbp], 0
  00076	75 0f		 jne	 SHORT $LN6@PMC_Compar

; 160  :         {
; 161  :             // v  0 
; 162  :             return (1);

  00078	b8 01 00 00 00	 mov	 eax, 1
  0007d	e9 9f 02 00 00	 jmp	 $LN1@PMC_Compar

; 163  :         }
; 164  :         else

  00082	e9 9a 02 00 00	 jmp	 $LN7@PMC_Compar
$LN6@PMC_Compar:

; 165  :         {
; 166  :             // u  v  0 
; 167  :             if (__UNIT_TYPE_BIT_COUNT < sizeof(v) * 8)

  00087	33 c0		 xor	 eax, eax
  00089	85 c0		 test	 eax, eax
  0008b	0f 84 d6 01 00
	00		 je	 $LN8@PMC_Compar

; 168  :             {
; 169  :                 // _UINT64_T  1 
; 170  :                 __UNIT_TYPE u_bit_count = u->UNIT_BIT_COUNT;

  00091	48 8b 85 c0 01
	00 00		 mov	 rax, QWORD PTR u$[rbp]
  00098	48 8b 40 20	 mov	 rax, QWORD PTR [rax+32]
  0009c	48 89 45 08	 mov	 QWORD PTR u_bit_count$4[rbp], rax

; 171  :                 _UINT32_T v_hi;
; 172  :                 _UINT32_T v_lo = _FROMDWORDTOWORD(v, &v_hi);

  000a0	48 8d 55 24	 lea	 rdx, QWORD PTR v_hi$5[rbp]
  000a4	48 8b 8d c8 01
	00 00		 mov	 rcx, QWORD PTR v$[rbp]
  000ab	e8 00 00 00 00	 call	 _FROMDWORDTOWORD
  000b0	89 45 44	 mov	 DWORD PTR v_lo$6[rbp], eax

; 173  :                 if (v_hi == 0)

  000b3	83 7d 24 00	 cmp	 DWORD PTR v_hi$5[rbp], 0
  000b7	0f 85 a3 00 00
	00		 jne	 $LN10@PMC_Compar

; 174  :                 {
; 175  :                     // v  32bit 
; 176  :                     __UNIT_TYPE v_bit_count = sizeof(v_lo) * 8 - _LZCNT_ALT_32(v_lo);

  000bd	8b 4d 44	 mov	 ecx, DWORD PTR v_lo$6[rbp]
  000c0	e8 00 00 00 00	 call	 _LZCNT_ALT_32
  000c5	48 98		 cdqe
  000c7	b9 20 00 00 00	 mov	 ecx, 32			; 00000020H
  000cc	48 2b c8	 sub	 rcx, rax
  000cf	48 8b c1	 mov	 rax, rcx
  000d2	48 89 45 68	 mov	 QWORD PTR v_bit_count$7[rbp], rax

; 177  :                     if (u_bit_count > v_bit_count)

  000d6	48 8b 45 68	 mov	 rax, QWORD PTR v_bit_count$7[rbp]
  000da	48 39 45 08	 cmp	 QWORD PTR u_bit_count$4[rbp], rax
  000de	76 0c		 jbe	 SHORT $LN12@PMC_Compar

; 178  :                     {
; 179  :                         //  u > v 
; 180  :                         return (1);

  000e0	b8 01 00 00 00	 mov	 eax, 1
  000e5	e9 37 02 00 00	 jmp	 $LN1@PMC_Compar
  000ea	eb 6f		 jmp	 SHORT $LN13@PMC_Compar
$LN12@PMC_Compar:

; 181  :                     }
; 182  :                     else if (u_bit_count < v_bit_count)

  000ec	48 8b 45 68	 mov	 rax, QWORD PTR v_bit_count$7[rbp]
  000f0	48 39 45 08	 cmp	 QWORD PTR u_bit_count$4[rbp], rax
  000f4	73 0c		 jae	 SHORT $LN14@PMC_Compar

; 183  :                     {
; 184  :                         //  u < v 
; 185  :                         return (-1);

  000f6	b8 ff ff ff ff	 mov	 eax, -1
  000fb	e9 21 02 00 00	 jmp	 $LN1@PMC_Compar

; 186  :                     }
; 187  :                     else

  00100	eb 59		 jmp	 SHORT $LN15@PMC_Compar
$LN14@PMC_Compar:

; 188  :                     {
; 189  :                         // u > 0 && v > 0  u  v  v  1 
; 190  :                         //  u  v  1 
; 191  :                         if (u->BLOCK[0] > v_lo)

  00102	b8 08 00 00 00	 mov	 eax, 8
  00107	48 6b c0 00	 imul	 rax, rax, 0
  0010b	48 8b 8d c0 01
	00 00		 mov	 rcx, QWORD PTR u$[rbp]
  00112	48 8b 49 40	 mov	 rcx, QWORD PTR [rcx+64]
  00116	8b 55 44	 mov	 edx, DWORD PTR v_lo$6[rbp]
  00119	48 39 14 08	 cmp	 QWORD PTR [rax+rcx], rdx
  0011d	76 0c		 jbe	 SHORT $LN16@PMC_Compar

; 192  :                             return (1);

  0011f	b8 01 00 00 00	 mov	 eax, 1
  00124	e9 f8 01 00 00	 jmp	 $LN1@PMC_Compar
  00129	eb 30		 jmp	 SHORT $LN17@PMC_Compar
$LN16@PMC_Compar:

; 193  :                         else if (u->BLOCK[0] < v_lo)

  0012b	b8 08 00 00 00	 mov	 eax, 8
  00130	48 6b c0 00	 imul	 rax, rax, 0
  00134	48 8b 8d c0 01
	00 00		 mov	 rcx, QWORD PTR u$[rbp]
  0013b	48 8b 49 40	 mov	 rcx, QWORD PTR [rcx+64]
  0013f	8b 55 44	 mov	 edx, DWORD PTR v_lo$6[rbp]
  00142	48 39 14 08	 cmp	 QWORD PTR [rax+rcx], rdx
  00146	73 0c		 jae	 SHORT $LN18@PMC_Compar

; 194  :                             return (-1);

  00148	b8 ff ff ff ff	 mov	 eax, -1
  0014d	e9 cf 01 00 00	 jmp	 $LN1@PMC_Compar

; 195  :                         else

  00152	eb 07		 jmp	 SHORT $LN19@PMC_Compar
$LN18@PMC_Compar:

; 196  :                             return (0);

  00154	33 c0		 xor	 eax, eax
  00156	e9 c6 01 00 00	 jmp	 $LN1@PMC_Compar
$LN19@PMC_Compar:
$LN17@PMC_Compar:
$LN15@PMC_Compar:
$LN13@PMC_Compar:

; 197  :                     }
; 198  :                 }
; 199  :                 else

  0015b	e9 02 01 00 00	 jmp	 $LN11@PMC_Compar
$LN10@PMC_Compar:

; 200  :                 {
; 201  :                     // v  32bit 
; 202  :                     __UNIT_TYPE v_bit_count = sizeof(v) * 8 - _LZCNT_ALT_32(v_hi);

  00160	8b 4d 24	 mov	 ecx, DWORD PTR v_hi$5[rbp]
  00163	e8 00 00 00 00	 call	 _LZCNT_ALT_32
  00168	48 98		 cdqe
  0016a	b9 40 00 00 00	 mov	 ecx, 64			; 00000040H
  0016f	48 2b c8	 sub	 rcx, rax
  00172	48 8b c1	 mov	 rax, rcx
  00175	48 89 85 88 00
	00 00		 mov	 QWORD PTR v_bit_count$8[rbp], rax

; 203  :                     if (u_bit_count > v_bit_count)

  0017c	48 8b 85 88 00
	00 00		 mov	 rax, QWORD PTR v_bit_count$8[rbp]
  00183	48 39 45 08	 cmp	 QWORD PTR u_bit_count$4[rbp], rax
  00187	76 0f		 jbe	 SHORT $LN20@PMC_Compar

; 204  :                     {
; 205  :                         //  u > v 
; 206  :                         return (1);

  00189	b8 01 00 00 00	 mov	 eax, 1
  0018e	e9 8e 01 00 00	 jmp	 $LN1@PMC_Compar
  00193	e9 ca 00 00 00	 jmp	 $LN21@PMC_Compar
$LN20@PMC_Compar:

; 207  :                     }
; 208  :                     else if (u_bit_count < v_bit_count)

  00198	48 8b 85 88 00
	00 00		 mov	 rax, QWORD PTR v_bit_count$8[rbp]
  0019f	48 39 45 08	 cmp	 QWORD PTR u_bit_count$4[rbp], rax
  001a3	73 0f		 jae	 SHORT $LN22@PMC_Compar

; 209  :                     {
; 210  :                         //  u < v 
; 211  :                         return (-1);

  001a5	b8 ff ff ff ff	 mov	 eax, -1
  001aa	e9 72 01 00 00	 jmp	 $LN1@PMC_Compar

; 212  :                     }
; 213  :                     else

  001af	e9 ae 00 00 00	 jmp	 $LN23@PMC_Compar
$LN22@PMC_Compar:

; 214  :                     {
; 215  :                         // u > 0 && v > 0  u  v  v  2 
; 216  :                         //  u  v  2 
; 217  :                         if (u->BLOCK[1] > v_hi)

  001b4	b8 08 00 00 00	 mov	 eax, 8
  001b9	48 6b c0 01	 imul	 rax, rax, 1
  001bd	48 8b 8d c0 01
	00 00		 mov	 rcx, QWORD PTR u$[rbp]
  001c4	48 8b 49 40	 mov	 rcx, QWORD PTR [rcx+64]
  001c8	8b 55 24	 mov	 edx, DWORD PTR v_hi$5[rbp]
  001cb	48 39 14 08	 cmp	 QWORD PTR [rax+rcx], rdx
  001cf	76 0f		 jbe	 SHORT $LN24@PMC_Compar

; 218  :                             return (1);

  001d1	b8 01 00 00 00	 mov	 eax, 1
  001d6	e9 46 01 00 00	 jmp	 $LN1@PMC_Compar
  001db	e9 82 00 00 00	 jmp	 $LN25@PMC_Compar
$LN24@PMC_Compar:

; 219  :                         else if (u->BLOCK[1] < v_hi)

  001e0	b8 08 00 00 00	 mov	 eax, 8
  001e5	48 6b c0 01	 imul	 rax, rax, 1
  001e9	48 8b 8d c0 01
	00 00		 mov	 rcx, QWORD PTR u$[rbp]
  001f0	48 8b 49 40	 mov	 rcx, QWORD PTR [rcx+64]
  001f4	8b 55 24	 mov	 edx, DWORD PTR v_hi$5[rbp]
  001f7	48 39 14 08	 cmp	 QWORD PTR [rax+rcx], rdx
  001fb	73 0c		 jae	 SHORT $LN26@PMC_Compar

; 220  :                             return (-1);

  001fd	b8 ff ff ff ff	 mov	 eax, -1
  00202	e9 1a 01 00 00	 jmp	 $LN1@PMC_Compar
  00207	eb 59		 jmp	 SHORT $LN27@PMC_Compar
$LN26@PMC_Compar:

; 221  :                         else if (u->BLOCK[0] > v_lo)

  00209	b8 08 00 00 00	 mov	 eax, 8
  0020e	48 6b c0 00	 imul	 rax, rax, 0
  00212	48 8b 8d c0 01
	00 00		 mov	 rcx, QWORD PTR u$[rbp]
  00219	48 8b 49 40	 mov	 rcx, QWORD PTR [rcx+64]
  0021d	8b 55 44	 mov	 edx, DWORD PTR v_lo$6[rbp]
  00220	48 39 14 08	 cmp	 QWORD PTR [rax+rcx], rdx
  00224	76 0c		 jbe	 SHORT $LN28@PMC_Compar

; 222  :                             return (1);

  00226	b8 01 00 00 00	 mov	 eax, 1
  0022b	e9 f1 00 00 00	 jmp	 $LN1@PMC_Compar
  00230	eb 30		 jmp	 SHORT $LN29@PMC_Compar
$LN28@PMC_Compar:

; 223  :                         else if (u->BLOCK[0] < v_lo)

  00232	b8 08 00 00 00	 mov	 eax, 8
  00237	48 6b c0 00	 imul	 rax, rax, 0
  0023b	48 8b 8d c0 01
	00 00		 mov	 rcx, QWORD PTR u$[rbp]
  00242	48 8b 49 40	 mov	 rcx, QWORD PTR [rcx+64]
  00246	8b 55 44	 mov	 edx, DWORD PTR v_lo$6[rbp]
  00249	48 39 14 08	 cmp	 QWORD PTR [rax+rcx], rdx
  0024d	73 0c		 jae	 SHORT $LN30@PMC_Compar

; 224  :                             return (-1);

  0024f	b8 ff ff ff ff	 mov	 eax, -1
  00254	e9 c8 00 00 00	 jmp	 $LN1@PMC_Compar

; 225  :                         else

  00259	eb 07		 jmp	 SHORT $LN31@PMC_Compar
$LN30@PMC_Compar:

; 226  :                             return (0);

  0025b	33 c0		 xor	 eax, eax
  0025d	e9 bf 00 00 00	 jmp	 $LN1@PMC_Compar
$LN31@PMC_Compar:
$LN29@PMC_Compar:
$LN27@PMC_Compar:
$LN25@PMC_Compar:
$LN23@PMC_Compar:
$LN21@PMC_Compar:
$LN11@PMC_Compar:

; 227  :                     }
; 228  :                 }
; 229  :             }
; 230  :             else

  00262	e9 ba 00 00 00	 jmp	 $LN9@PMC_Compar
$LN8@PMC_Compar:

; 231  :             {
; 232  :                 // _UINT64_T  1 
; 233  : 
; 234  :                 __UNIT_TYPE u_bit_count = u->UNIT_BIT_COUNT;

  00267	48 8b 85 c0 01
	00 00		 mov	 rax, QWORD PTR u$[rbp]
  0026e	48 8b 40 20	 mov	 rax, QWORD PTR [rax+32]
  00272	48 89 85 a8 00
	00 00		 mov	 QWORD PTR u_bit_count$9[rbp], rax

; 235  :                 __UNIT_TYPE v_bit_count = sizeof(v) * 8 - _LZCNT_ALT_UNIT((__UNIT_TYPE)v);

  00279	48 8b 8d c8 01
	00 00		 mov	 rcx, QWORD PTR v$[rbp]
  00280	e8 00 00 00 00	 call	 _LZCNT_ALT_UNIT
  00285	48 98		 cdqe
  00287	b9 40 00 00 00	 mov	 ecx, 64			; 00000040H
  0028c	48 2b c8	 sub	 rcx, rax
  0028f	48 8b c1	 mov	 rax, rcx
  00292	48 89 85 c8 00
	00 00		 mov	 QWORD PTR v_bit_count$10[rbp], rax

; 236  :                 if (u_bit_count > v_bit_count)

  00299	48 8b 85 c8 00
	00 00		 mov	 rax, QWORD PTR v_bit_count$10[rbp]
  002a0	48 39 85 a8 00
	00 00		 cmp	 QWORD PTR u_bit_count$9[rbp], rax
  002a7	76 09		 jbe	 SHORT $LN32@PMC_Compar

; 237  :                 {
; 238  :                     //  u > v 
; 239  :                     return (1);

  002a9	b8 01 00 00 00	 mov	 eax, 1
  002ae	eb 71		 jmp	 SHORT $LN1@PMC_Compar
  002b0	eb 6f		 jmp	 SHORT $LN33@PMC_Compar
$LN32@PMC_Compar:

; 240  :                 }
; 241  :                 else if (u_bit_count < v_bit_count)

  002b2	48 8b 85 c8 00
	00 00		 mov	 rax, QWORD PTR v_bit_count$10[rbp]
  002b9	48 39 85 a8 00
	00 00		 cmp	 QWORD PTR u_bit_count$9[rbp], rax
  002c0	73 09		 jae	 SHORT $LN34@PMC_Compar

; 242  :                 {
; 243  :                     //  u < v 
; 244  :                     return (-1);

  002c2	b8 ff ff ff ff	 mov	 eax, -1
  002c7	eb 58		 jmp	 SHORT $LN1@PMC_Compar

; 245  :                 }
; 246  :                 else

  002c9	eb 56		 jmp	 SHORT $LN35@PMC_Compar
$LN34@PMC_Compar:

; 247  :                 {
; 248  :                     // u > 0 && v > 0  u  v  v  1 
; 249  :                     //  u  v  1 
; 250  :                     if (u->BLOCK[0] > v)

  002cb	b8 08 00 00 00	 mov	 eax, 8
  002d0	48 6b c0 00	 imul	 rax, rax, 0
  002d4	48 8b 8d c0 01
	00 00		 mov	 rcx, QWORD PTR u$[rbp]
  002db	48 8b 49 40	 mov	 rcx, QWORD PTR [rcx+64]
  002df	48 8b 95 c8 01
	00 00		 mov	 rdx, QWORD PTR v$[rbp]
  002e6	48 39 14 08	 cmp	 QWORD PTR [rax+rcx], rdx
  002ea	76 09		 jbe	 SHORT $LN36@PMC_Compar

; 251  :                         return (1);

  002ec	b8 01 00 00 00	 mov	 eax, 1
  002f1	eb 2e		 jmp	 SHORT $LN1@PMC_Compar
  002f3	eb 2c		 jmp	 SHORT $LN37@PMC_Compar
$LN36@PMC_Compar:

; 252  :                     else if (u->BLOCK[0] < v)

  002f5	b8 08 00 00 00	 mov	 eax, 8
  002fa	48 6b c0 00	 imul	 rax, rax, 0
  002fe	48 8b 8d c0 01
	00 00		 mov	 rcx, QWORD PTR u$[rbp]
  00305	48 8b 49 40	 mov	 rcx, QWORD PTR [rcx+64]
  00309	48 8b 95 c8 01
	00 00		 mov	 rdx, QWORD PTR v$[rbp]
  00310	48 39 14 08	 cmp	 QWORD PTR [rax+rcx], rdx
  00314	73 09		 jae	 SHORT $LN38@PMC_Compar

; 253  :                         return (-1);

  00316	b8 ff ff ff ff	 mov	 eax, -1
  0031b	eb 04		 jmp	 SHORT $LN1@PMC_Compar

; 254  :                     else

  0031d	eb 02		 jmp	 SHORT $LN39@PMC_Compar
$LN38@PMC_Compar:

; 255  :                         return (0);

  0031f	33 c0		 xor	 eax, eax
$LN39@PMC_Compar:
$LN37@PMC_Compar:
$LN35@PMC_Compar:
$LN33@PMC_Compar:
$LN9@PMC_Compar:
$LN7@PMC_Compar:
$LN3@PMC_Compar:
$LN1@PMC_Compar:

; 256  :                 }
; 257  :             }
; 258  :         }
; 259  :     }

  00321	48 8b f8	 mov	 rdi, rax
  00324	48 8d 4d e0	 lea	 rcx, QWORD PTR [rbp-32]
  00328	48 8d 15 00 00
	00 00		 lea	 rdx, OFFSET FLAT:?PMC_Compare_X_L_Imp@Internal@Core@Math@Palmtree@@YAHPEAU__tag_NUMBER_HEADER@1234@_K@Z$rtcFrameData
  0032f	e8 00 00 00 00	 call	 _RTC_CheckStackVars
  00334	48 8b c7	 mov	 rax, rdi
  00337	48 8d a5 a8 01
	00 00		 lea	 rsp, QWORD PTR [rbp+424]
  0033e	5f		 pop	 rdi
  0033f	5d		 pop	 rbp
  00340	c3		 ret	 0
?PMC_Compare_X_L_Imp@Internal@Core@Math@Palmtree@@YAHPEAU__tag_NUMBER_HEADER@1234@_K@Z ENDP ; Palmtree::Math::Core::Internal::PMC_Compare_X_L_Imp
_TEXT	ENDS
; Function compile flags: /Odtp /RTCsu /ZI
; File z:\sources\lunor\repos\rougemeilland\palmtree.math.core.uint\palmtree.math.core.uint\pmc_compare.cpp
;	COMDAT ?PMC_Compare_X_I_Imp@Internal@Core@Math@Palmtree@@YAHPEAU__tag_NUMBER_HEADER@1234@I@Z
_TEXT	SEGMENT
u_bit_count$1 = 8
v_bit_count$2 = 40
u$ = 288
v$ = 296
?PMC_Compare_X_I_Imp@Internal@Core@Math@Palmtree@@YAHPEAU__tag_NUMBER_HEADER@1234@I@Z PROC ; Palmtree::Math::Core::Internal::PMC_Compare_X_I_Imp, COMDAT

; 58   :     {

  00000	89 54 24 10	 mov	 DWORD PTR [rsp+16], edx
  00004	48 89 4c 24 08	 mov	 QWORD PTR [rsp+8], rcx
  00009	55		 push	 rbp
  0000a	57		 push	 rdi
  0000b	48 81 ec 28 01
	00 00		 sub	 rsp, 296		; 00000128H
  00012	48 8d 6c 24 20	 lea	 rbp, QWORD PTR [rsp+32]
  00017	48 8b fc	 mov	 rdi, rsp
  0001a	b9 4a 00 00 00	 mov	 ecx, 74			; 0000004aH
  0001f	b8 cc cc cc cc	 mov	 eax, -858993460		; ccccccccH
  00024	f3 ab		 rep stosd
  00026	48 8b 8c 24 48
	01 00 00	 mov	 rcx, QWORD PTR [rsp+328]
  0002e	48 8d 0d 00 00
	00 00		 lea	 rcx, OFFSET FLAT:__9F55872E_pmc_compare@cpp
  00035	e8 00 00 00 00	 call	 __CheckForDebuggerJustMyCode

; 59   :         if (u->IS_ZERO)

  0003a	48 8b 85 20 01
	00 00		 mov	 rax, QWORD PTR u$[rbp]
  00041	8b 40 08	 mov	 eax, DWORD PTR [rax+8]
  00044	83 e0 01	 and	 eax, 1
  00047	85 c0		 test	 eax, eax
  00049	74 21		 je	 SHORT $LN2@PMC_Compar

; 60   :         {
; 61   :             // u  0 
; 62   :             if (v == 0)

  0004b	83 bd 28 01 00
	00 00		 cmp	 DWORD PTR v$[rbp], 0
  00052	75 09		 jne	 SHORT $LN4@PMC_Compar

; 63   :             {
; 64   :                 // v  0 
; 65   :                 return (0);

  00054	33 c0		 xor	 eax, eax
  00056	e9 ce 00 00 00	 jmp	 $LN1@PMC_Compar

; 66   :             }
; 67   :             else

  0005b	eb 0a		 jmp	 SHORT $LN5@PMC_Compar
$LN4@PMC_Compar:

; 68   :             {
; 69   :                 // v  0 
; 70   :                 return (-1);

  0005d	b8 ff ff ff ff	 mov	 eax, -1
  00062	e9 c2 00 00 00	 jmp	 $LN1@PMC_Compar
$LN5@PMC_Compar:

; 71   :             }

  00067	e9 bd 00 00 00	 jmp	 $LN3@PMC_Compar
$LN2@PMC_Compar:

; 72   :         }
; 73   :         else if (v == 0)

  0006c	83 bd 28 01 00
	00 00		 cmp	 DWORD PTR v$[rbp], 0
  00073	75 0f		 jne	 SHORT $LN6@PMC_Compar

; 74   :         {
; 75   :             // v  0 
; 76   :             return (1);

  00075	b8 01 00 00 00	 mov	 eax, 1
  0007a	e9 aa 00 00 00	 jmp	 $LN1@PMC_Compar

; 77   :         }
; 78   :         else

  0007f	e9 a5 00 00 00	 jmp	 $LN7@PMC_Compar
$LN6@PMC_Compar:

; 79   :         {
; 80   :             // x  y  0 
; 81   :             __UNIT_TYPE u_bit_count = u->UNIT_BIT_COUNT;

  00084	48 8b 85 20 01
	00 00		 mov	 rax, QWORD PTR u$[rbp]
  0008b	48 8b 40 20	 mov	 rax, QWORD PTR [rax+32]
  0008f	48 89 45 08	 mov	 QWORD PTR u_bit_count$1[rbp], rax

; 82   :             __UNIT_TYPE v_bit_count = sizeof(v) * 8 - _LZCNT_ALT_32(v);

  00093	8b 8d 28 01 00
	00		 mov	 ecx, DWORD PTR v$[rbp]
  00099	e8 00 00 00 00	 call	 _LZCNT_ALT_32
  0009e	48 98		 cdqe
  000a0	b9 20 00 00 00	 mov	 ecx, 32			; 00000020H
  000a5	48 2b c8	 sub	 rcx, rax
  000a8	48 8b c1	 mov	 rax, rcx
  000ab	48 89 45 28	 mov	 QWORD PTR v_bit_count$2[rbp], rax

; 83   :             if (u_bit_count > v_bit_count)

  000af	48 8b 45 28	 mov	 rax, QWORD PTR v_bit_count$2[rbp]
  000b3	48 39 45 08	 cmp	 QWORD PTR u_bit_count$1[rbp], rax
  000b7	76 09		 jbe	 SHORT $LN8@PMC_Compar

; 84   :             {
; 85   :                 //  u > v 
; 86   :                 return (1);

  000b9	b8 01 00 00 00	 mov	 eax, 1
  000be	eb 69		 jmp	 SHORT $LN1@PMC_Compar
  000c0	eb 67		 jmp	 SHORT $LN9@PMC_Compar
$LN8@PMC_Compar:

; 87   :             }
; 88   :             else if (u_bit_count < v_bit_count)

  000c2	48 8b 45 28	 mov	 rax, QWORD PTR v_bit_count$2[rbp]
  000c6	48 39 45 08	 cmp	 QWORD PTR u_bit_count$1[rbp], rax
  000ca	73 09		 jae	 SHORT $LN10@PMC_Compar

; 89   :             {
; 90   :                 //  u < v 
; 91   :                 return (-1);

  000cc	b8 ff ff ff ff	 mov	 eax, -1
  000d1	eb 56		 jmp	 SHORT $LN1@PMC_Compar

; 92   :             }
; 93   :             else

  000d3	eb 54		 jmp	 SHORT $LN11@PMC_Compar
$LN10@PMC_Compar:

; 94   :             {
; 95   :                 // u > 0 && v > 0  u  v 
; 96   :                 //  u  v  1 
; 97   :                 if (u->BLOCK[0] > v)

  000d5	b8 08 00 00 00	 mov	 eax, 8
  000da	48 6b c0 00	 imul	 rax, rax, 0
  000de	48 8b 8d 20 01
	00 00		 mov	 rcx, QWORD PTR u$[rbp]
  000e5	48 8b 49 40	 mov	 rcx, QWORD PTR [rcx+64]
  000e9	8b 95 28 01 00
	00		 mov	 edx, DWORD PTR v$[rbp]
  000ef	48 39 14 08	 cmp	 QWORD PTR [rax+rcx], rdx
  000f3	76 09		 jbe	 SHORT $LN12@PMC_Compar

; 98   :                     return (1);

  000f5	b8 01 00 00 00	 mov	 eax, 1
  000fa	eb 2d		 jmp	 SHORT $LN1@PMC_Compar
  000fc	eb 2b		 jmp	 SHORT $LN13@PMC_Compar
$LN12@PMC_Compar:

; 99   :                 else if (u->BLOCK[0] < v)

  000fe	b8 08 00 00 00	 mov	 eax, 8
  00103	48 6b c0 00	 imul	 rax, rax, 0
  00107	48 8b 8d 20 01
	00 00		 mov	 rcx, QWORD PTR u$[rbp]
  0010e	48 8b 49 40	 mov	 rcx, QWORD PTR [rcx+64]
  00112	8b 95 28 01 00
	00		 mov	 edx, DWORD PTR v$[rbp]
  00118	48 39 14 08	 cmp	 QWORD PTR [rax+rcx], rdx
  0011c	73 09		 jae	 SHORT $LN14@PMC_Compar

; 100  :                     return (-1);

  0011e	b8 ff ff ff ff	 mov	 eax, -1
  00123	eb 04		 jmp	 SHORT $LN1@PMC_Compar

; 101  :                 else

  00125	eb 02		 jmp	 SHORT $LN15@PMC_Compar
$LN14@PMC_Compar:

; 102  :                     return (0);

  00127	33 c0		 xor	 eax, eax
$LN15@PMC_Compar:
$LN13@PMC_Compar:
$LN11@PMC_Compar:
$LN9@PMC_Compar:
$LN7@PMC_Compar:
$LN3@PMC_Compar:
$LN1@PMC_Compar:

; 103  :             }
; 104  :         }
; 105  :     }

  00129	48 8d a5 08 01
	00 00		 lea	 rsp, QWORD PTR [rbp+264]
  00130	5f		 pop	 rdi
  00131	5d		 pop	 rbp
  00132	c3		 ret	 0
?PMC_Compare_X_I_Imp@Internal@Core@Math@Palmtree@@YAHPEAU__tag_NUMBER_HEADER@1234@I@Z ENDP ; Palmtree::Math::Core::Internal::PMC_Compare_X_I_Imp
_TEXT	ENDS
; Function compile flags: /Odtp /RTCsu /ZI
; File z:\sources\lunor\repos\rougemeilland\palmtree.math.core.uint\palmtree.math.core.uint\pmc_inline_func.h
;	COMDAT _LZCNT_ALT_UNIT
_TEXT	SEGMENT
pos$ = 4
x$ = 256
_LZCNT_ALT_UNIT PROC					; COMDAT

; 454  :         {

  00000	48 89 4c 24 08	 mov	 QWORD PTR [rsp+8], rcx
  00005	55		 push	 rbp
  00006	57		 push	 rdi
  00007	48 81 ec 08 01
	00 00		 sub	 rsp, 264		; 00000108H
  0000e	48 8d 6c 24 20	 lea	 rbp, QWORD PTR [rsp+32]
  00013	48 8b fc	 mov	 rdi, rsp
  00016	b9 42 00 00 00	 mov	 ecx, 66			; 00000042H
  0001b	b8 cc cc cc cc	 mov	 eax, -858993460		; ccccccccH
  00020	f3 ab		 rep stosd
  00022	48 8b 8c 24 28
	01 00 00	 mov	 rcx, QWORD PTR [rsp+296]
  0002a	48 8d 0d 00 00
	00 00		 lea	 rcx, OFFSET FLAT:__8CA3E54E_pmc_inline_func@h
  00031	e8 00 00 00 00	 call	 __CheckForDebuggerJustMyCode

; 455  :             if (x == 0)

  00036	48 83 bd 00 01
	00 00 00	 cmp	 QWORD PTR x$[rbp], 0
  0003e	75 07		 jne	 SHORT $LN2@LZCNT_ALT_

; 456  :                 return (sizeof(x) * 8);

  00040	b8 40 00 00 00	 mov	 eax, 64			; 00000040H
  00045	eb 1c		 jmp	 SHORT $LN1@LZCNT_ALT_
$LN2@LZCNT_ALT_:

; 457  : #ifdef _M_IX86
; 458  :             DWORD pos;
; 459  : #ifdef _MSC_VER
; 460  :             _BitScanReverse(&pos, x);
; 461  : #elif defined(__GNUC__)
; 462  :             __asm__("bsrl %1, %0" : "=r"(pos) : "rm"(x));
; 463  : #else
; 464  : #error unknown compiler
; 465  : #endif
; 466  : #elif defined(_M_X64)
; 467  : #ifdef _MSC_VER
; 468  :             DWORD pos;
; 469  :             _BitScanReverse64(&pos, x);

  00047	48 8b 85 00 01
	00 00		 mov	 rax, QWORD PTR x$[rbp]
  0004e	48 0f bd c0	 bsr	 rax, rax
  00052	89 45 04	 mov	 DWORD PTR pos$[rbp], eax

; 470  : #elif defined(__GNUC__)
; 471  :             _UINT64_T pos;
; 472  :             __asm__("bsrq %1, %0" : "=r"(pos) : "rm"(x));
; 473  : #else
; 474  : #error unknown compiler
; 475  : #endif
; 476  : #else
; 477  : #error unknown platform
; 478  : #endif
; 479  :             return (sizeof(x) * 8 - 1 - pos);

  00055	8b 45 04	 mov	 eax, DWORD PTR pos$[rbp]
  00058	b9 3f 00 00 00	 mov	 ecx, 63			; 0000003fH
  0005d	48 2b c8	 sub	 rcx, rax
  00060	48 8b c1	 mov	 rax, rcx
$LN1@LZCNT_ALT_:

; 480  :         }

  00063	48 8b f8	 mov	 rdi, rax
  00066	48 8d 4d e0	 lea	 rcx, QWORD PTR [rbp-32]
  0006a	48 8d 15 00 00
	00 00		 lea	 rdx, OFFSET FLAT:_LZCNT_ALT_UNIT$rtcFrameData
  00071	e8 00 00 00 00	 call	 _RTC_CheckStackVars
  00076	48 8b c7	 mov	 rax, rdi
  00079	48 8d a5 e8 00
	00 00		 lea	 rsp, QWORD PTR [rbp+232]
  00080	5f		 pop	 rdi
  00081	5d		 pop	 rbp
  00082	c3		 ret	 0
_LZCNT_ALT_UNIT ENDP
_TEXT	ENDS
; Function compile flags: /Odtp /RTCsu /ZI
; File z:\sources\lunor\repos\rougemeilland\palmtree.math.core.uint\palmtree.math.core.uint\pmc_inline_func.h
;	COMDAT _LZCNT_ALT_32
_TEXT	SEGMENT
pos$ = 4
x$ = 256
_LZCNT_ALT_32 PROC					; COMDAT

; 421  :         {

  00000	89 4c 24 08	 mov	 DWORD PTR [rsp+8], ecx
  00004	55		 push	 rbp
  00005	57		 push	 rdi
  00006	48 81 ec 08 01
	00 00		 sub	 rsp, 264		; 00000108H
  0000d	48 8d 6c 24 20	 lea	 rbp, QWORD PTR [rsp+32]
  00012	48 8b fc	 mov	 rdi, rsp
  00015	b9 42 00 00 00	 mov	 ecx, 66			; 00000042H
  0001a	b8 cc cc cc cc	 mov	 eax, -858993460		; ccccccccH
  0001f	f3 ab		 rep stosd
  00021	8b 8c 24 28 01
	00 00		 mov	 ecx, DWORD PTR [rsp+296]
  00028	48 8d 0d 00 00
	00 00		 lea	 rcx, OFFSET FLAT:__8CA3E54E_pmc_inline_func@h
  0002f	e8 00 00 00 00	 call	 __CheckForDebuggerJustMyCode

; 422  :             if (x == 0)

  00034	83 bd 00 01 00
	00 00		 cmp	 DWORD PTR x$[rbp], 0
  0003b	75 07		 jne	 SHORT $LN2@LZCNT_ALT_

; 423  :                 return (sizeof(x) * 8);

  0003d	b8 20 00 00 00	 mov	 eax, 32			; 00000020H
  00042	eb 1a		 jmp	 SHORT $LN1@LZCNT_ALT_
$LN2@LZCNT_ALT_:

; 424  :             DWORD pos;
; 425  : #ifdef _MSC_VER
; 426  :             _BitScanReverse(&pos, x);

  00044	8b 85 00 01 00
	00		 mov	 eax, DWORD PTR x$[rbp]
  0004a	0f bd c0	 bsr	 eax, eax
  0004d	89 45 04	 mov	 DWORD PTR pos$[rbp], eax

; 427  : #elif defined(__GNUC__)
; 428  :             __asm__("bsrl %1, %0" : "=r"(pos) : "rm"(x));
; 429  : #else
; 430  : #error unknown compiler
; 431  : #endif
; 432  :             return (sizeof(x) * 8 - 1 - pos);

  00050	8b 45 04	 mov	 eax, DWORD PTR pos$[rbp]
  00053	b9 1f 00 00 00	 mov	 ecx, 31
  00058	48 2b c8	 sub	 rcx, rax
  0005b	48 8b c1	 mov	 rax, rcx
$LN1@LZCNT_ALT_:

; 433  :         }

  0005e	48 8b f8	 mov	 rdi, rax
  00061	48 8d 4d e0	 lea	 rcx, QWORD PTR [rbp-32]
  00065	48 8d 15 00 00
	00 00		 lea	 rdx, OFFSET FLAT:_LZCNT_ALT_32$rtcFrameData
  0006c	e8 00 00 00 00	 call	 _RTC_CheckStackVars
  00071	48 8b c7	 mov	 rax, rdi
  00074	48 8d a5 e8 00
	00 00		 lea	 rsp, QWORD PTR [rbp+232]
  0007b	5f		 pop	 rdi
  0007c	5d		 pop	 rbp
  0007d	c3		 ret	 0
_LZCNT_ALT_32 ENDP
_TEXT	ENDS
; Function compile flags: /Odtp /RTCsu /ZI
; File z:\sources\lunor\repos\rougemeilland\palmtree.math.core.uint\palmtree.math.core.uint\pmc_inline_func.h
;	COMDAT _FROMDWORDTOWORD
_TEXT	SEGMENT
value$ = 224
result_high$ = 232
_FROMDWORDTOWORD PROC					; COMDAT

; 145  :         {

  00000	48 89 54 24 10	 mov	 QWORD PTR [rsp+16], rdx
  00005	48 89 4c 24 08	 mov	 QWORD PTR [rsp+8], rcx
  0000a	55		 push	 rbp
  0000b	57		 push	 rdi
  0000c	48 81 ec e8 00
	00 00		 sub	 rsp, 232		; 000000e8H
  00013	48 8d 6c 24 20	 lea	 rbp, QWORD PTR [rsp+32]
  00018	48 8b fc	 mov	 rdi, rsp
  0001b	b9 3a 00 00 00	 mov	 ecx, 58			; 0000003aH
  00020	b8 cc cc cc cc	 mov	 eax, -858993460		; ccccccccH
  00025	f3 ab		 rep stosd
  00027	48 8b 8c 24 08
	01 00 00	 mov	 rcx, QWORD PTR [rsp+264]
  0002f	48 8d 0d 00 00
	00 00		 lea	 rcx, OFFSET FLAT:__8CA3E54E_pmc_inline_func@h
  00036	e8 00 00 00 00	 call	 __CheckForDebuggerJustMyCode

; 146  :             *result_high = (_UINT32_T)(value >> 32);

  0003b	48 8b 85 e0 00
	00 00		 mov	 rax, QWORD PTR value$[rbp]
  00042	48 c1 e8 20	 shr	 rax, 32			; 00000020H
  00046	48 8b 8d e8 00
	00 00		 mov	 rcx, QWORD PTR result_high$[rbp]
  0004d	89 01		 mov	 DWORD PTR [rcx], eax

; 147  :             return ((_UINT32_T)value);

  0004f	8b 85 e0 00 00
	00		 mov	 eax, DWORD PTR value$[rbp]

; 148  :         }

  00055	48 8d a5 c8 00
	00 00		 lea	 rsp, QWORD PTR [rbp+200]
  0005c	5f		 pop	 rdi
  0005d	5d		 pop	 rbp
  0005e	c3		 ret	 0
_FROMDWORDTOWORD ENDP
_TEXT	ENDS
; Function compile flags: /Odtp /RTCsu /ZI
; File z:\sources\lunor\repos\rougemeilland\palmtree.math.core.uint\palmtree.math.core.uint\pmc_compare.cpp
;	COMDAT ?PMC_Compare_X_X@Internal@Core@Math@Palmtree@@YAHPEAU__tag_PMC_HANDLE_UINT@1234@0@Z
_TEXT	SEGMENT
nu$ = 8
nv$ = 40
w$ = 68
$T1 = 296
$T2 = 376
$T3 = 456
u$ = 560
v$ = 568
?PMC_Compare_X_X@Internal@Core@Math@Palmtree@@YAHPEAU__tag_PMC_HANDLE_UINT@1234@0@Z PROC ; Palmtree::Math::Core::Internal::PMC_Compare_X_X, COMDAT

; 326  :     {

$LN6:
  00000	48 89 54 24 10	 mov	 QWORD PTR [rsp+16], rdx
  00005	48 89 4c 24 08	 mov	 QWORD PTR [rsp+8], rcx
  0000a	55		 push	 rbp
  0000b	57		 push	 rdi
  0000c	48 81 ec 38 02
	00 00		 sub	 rsp, 568		; 00000238H
  00013	48 8d 6c 24 20	 lea	 rbp, QWORD PTR [rsp+32]
  00018	48 8b fc	 mov	 rdi, rsp
  0001b	b9 8e 00 00 00	 mov	 ecx, 142		; 0000008eH
  00020	b8 cc cc cc cc	 mov	 eax, -858993460		; ccccccccH
  00025	f3 ab		 rep stosd
  00027	48 8b 8c 24 58
	02 00 00	 mov	 rcx, QWORD PTR [rsp+600]
  0002f	48 8d 0d 00 00
	00 00		 lea	 rcx, OFFSET FLAT:__9F55872E_pmc_compare@cpp
  00036	e8 00 00 00 00	 call	 __CheckForDebuggerJustMyCode

; 327  :         if (u == nullptr)

  0003b	48 83 bd 30 02
	00 00 00	 cmp	 QWORD PTR u$[rbp], 0
  00043	75 2d		 jne	 SHORT $LN2@PMC_Compar

; 328  :             throw ArgumentNullException(L"nullptr", L"u");

  00045	4c 8d 05 00 00
	00 00		 lea	 r8, OFFSET FLAT:??_C@_13ICFKHAEN@?$AAu@
  0004c	48 8d 15 00 00
	00 00		 lea	 rdx, OFFSET FLAT:??_C@_1CK@ECFIEPAC@?$AA?$BF?$AAp?$AAk?$AAn?$AAu?$AAl?$AAl?$AAp?$AAt?$AAr?$AAL?$AA?$AO?$AAH?$PP?$IJ?$PP?$IM@
  00053	48 8d 8d 28 01
	00 00		 lea	 rcx, QWORD PTR $T1[rbp]
  0005a	e8 00 00 00 00	 call	 ??0ArgumentNullException@Internal@Core@Math@Palmtree@@QEAA@PEB_W0@Z ; Palmtree::Math::Core::Internal::ArgumentNullException::ArgumentNullException
  0005f	48 8d 15 00 00
	00 00		 lea	 rdx, OFFSET FLAT:_TI2?AVArgumentNullException@Internal@Core@Math@Palmtree@@
  00066	48 8d 8d 28 01
	00 00		 lea	 rcx, QWORD PTR $T1[rbp]
  0006d	e8 00 00 00 00	 call	 _CxxThrowException
$LN2@PMC_Compar:

; 329  :         if (v == nullptr)

  00072	48 83 bd 38 02
	00 00 00	 cmp	 QWORD PTR v$[rbp], 0
  0007a	75 2d		 jne	 SHORT $LN3@PMC_Compar

; 330  :             throw ArgumentNullException(L"nullptr", L"v");

  0007c	4c 8d 05 00 00
	00 00		 lea	 r8, OFFSET FLAT:??_C@_13JAOPNPKD@?$AAv@
  00083	48 8d 15 00 00
	00 00		 lea	 rdx, OFFSET FLAT:??_C@_1CK@ECFIEPAC@?$AA?$BF?$AAp?$AAk?$AAn?$AAu?$AAl?$AAl?$AAp?$AAt?$AAr?$AAL?$AA?$AO?$AAH?$PP?$IJ?$PP?$IM@
  0008a	48 8d 8d 78 01
	00 00		 lea	 rcx, QWORD PTR $T2[rbp]
  00091	e8 00 00 00 00	 call	 ??0ArgumentNullException@Internal@Core@Math@Palmtree@@QEAA@PEB_W0@Z ; Palmtree::Math::Core::Internal::ArgumentNullException::ArgumentNullException
  00096	48 8d 15 00 00
	00 00		 lea	 rdx, OFFSET FLAT:_TI2?AVArgumentNullException@Internal@Core@Math@Palmtree@@
  0009d	48 8d 8d 78 01
	00 00		 lea	 rcx, QWORD PTR $T2[rbp]
  000a4	e8 00 00 00 00	 call	 _CxxThrowException
$LN3@PMC_Compar:

; 331  :         NUMBER_HEADER* nu = (NUMBER_HEADER*)u;

  000a9	48 8b 85 30 02
	00 00		 mov	 rax, QWORD PTR u$[rbp]
  000b0	48 89 45 08	 mov	 QWORD PTR nu$[rbp], rax

; 332  :         NUMBER_HEADER* nv = (NUMBER_HEADER*)v;

  000b4	48 8b 85 38 02
	00 00		 mov	 rax, QWORD PTR v$[rbp]
  000bb	48 89 45 28	 mov	 QWORD PTR nv$[rbp], rax

; 333  :         CheckNumber(nu);

  000bf	48 8b 4d 08	 mov	 rcx, QWORD PTR nu$[rbp]
  000c3	e8 00 00 00 00	 call	 ?CheckNumber@Internal@Core@Math@Palmtree@@YAXPEAU__tag_NUMBER_HEADER@1234@@Z ; Palmtree::Math::Core::Internal::CheckNumber

; 334  :         CheckNumber(nv);

  000c8	48 8b 4d 28	 mov	 rcx, QWORD PTR nv$[rbp]
  000cc	e8 00 00 00 00	 call	 ?CheckNumber@Internal@Core@Math@Palmtree@@YAXPEAU__tag_NUMBER_HEADER@1234@@Z ; Palmtree::Math::Core::Internal::CheckNumber

; 335  :         _INT32_T w = PMC_Compare_X_X_Imp(nu, nv);

  000d1	48 8b 55 28	 mov	 rdx, QWORD PTR nv$[rbp]
  000d5	48 8b 4d 08	 mov	 rcx, QWORD PTR nu$[rbp]
  000d9	e8 00 00 00 00	 call	 ?PMC_Compare_X_X_Imp@Internal@Core@Math@Palmtree@@YAHPEAU__tag_NUMBER_HEADER@1234@0@Z ; Palmtree::Math::Core::Internal::PMC_Compare_X_X_Imp
  000de	89 45 44	 mov	 DWORD PTR w$[rbp], eax

; 336  : #ifdef _DEBUG
; 337  :         if (w != 0 && w != 1 && w != -1)

  000e1	83 7d 44 00	 cmp	 DWORD PTR w$[rbp], 0
  000e5	74 39		 je	 SHORT $LN4@PMC_Compar
  000e7	83 7d 44 01	 cmp	 DWORD PTR w$[rbp], 1
  000eb	74 33		 je	 SHORT $LN4@PMC_Compar
  000ed	83 7d 44 ff	 cmp	 DWORD PTR w$[rbp], -1
  000f1	74 2d		 je	 SHORT $LN4@PMC_Compar

; 338  :             throw InternalErrorException(L"", L"pmc_compare.cpp;PMC_Compare_X_X;1");

  000f3	4c 8d 05 00 00
	00 00		 lea	 r8, OFFSET FLAT:??_C@_1EE@BJBOODGK@?$AAp?$AAm?$AAc?$AA_?$AAc?$AAo?$AAm?$AAp?$AAa?$AAr?$AAe?$AA?4?$AAc?$AAp?$AAp@
  000fa	48 8d 15 00 00
	00 00		 lea	 rdx, OFFSET FLAT:??_C@_1BM@FCPAHMHB@?$PP?$IF?$PP?h?$PP?$KI?$PP?i?$PP?$PM?$AAL?$AAz?$AA?$BP?$AAW?$AA?$HO?$AAW?$AA_?$AA?$AC@
  00101	48 8d 8d c8 01
	00 00		 lea	 rcx, QWORD PTR $T3[rbp]
  00108	e8 00 00 00 00	 call	 ??0InternalErrorException@Internal@Core@Math@Palmtree@@QEAA@PEB_W0@Z ; Palmtree::Math::Core::Internal::InternalErrorException::InternalErrorException
  0010d	48 8d 15 00 00
	00 00		 lea	 rdx, OFFSET FLAT:_TI2?AVInternalErrorException@Internal@Core@Math@Palmtree@@
  00114	48 8d 8d c8 01
	00 00		 lea	 rcx, QWORD PTR $T3[rbp]
  0011b	e8 00 00 00 00	 call	 _CxxThrowException
$LN4@PMC_Compar:

; 339  : #endif
; 340  :         return (w);

  00120	8b 45 44	 mov	 eax, DWORD PTR w$[rbp]
$LN5@PMC_Compar:

; 341  :     }

  00123	48 8d a5 18 02
	00 00		 lea	 rsp, QWORD PTR [rbp+536]
  0012a	5f		 pop	 rdi
  0012b	5d		 pop	 rbp
  0012c	c3		 ret	 0
?PMC_Compare_X_X@Internal@Core@Math@Palmtree@@YAHPEAU__tag_PMC_HANDLE_UINT@1234@0@Z ENDP ; Palmtree::Math::Core::Internal::PMC_Compare_X_X
_TEXT	ENDS
; Function compile flags: /Odtp /RTCsu /ZI
; File z:\sources\lunor\repos\rougemeilland\palmtree.math.core.uint\palmtree.math.core.uint\pmc_compare.cpp
;	COMDAT ?PMC_Compare_X_L@Internal@Core@Math@Palmtree@@YAHPEAU__tag_PMC_HANDLE_UINT@1234@_K@Z
_TEXT	SEGMENT
w$ = 4
$T1 = 232
$T2 = 312
$T3 = 392
u$ = 496
v$ = 504
?PMC_Compare_X_L@Internal@Core@Math@Palmtree@@YAHPEAU__tag_PMC_HANDLE_UINT@1234@_K@Z PROC ; Palmtree::Math::Core::Internal::PMC_Compare_X_L, COMDAT

; 280  :     {

$LN6:
  00000	48 89 54 24 10	 mov	 QWORD PTR [rsp+16], rdx
  00005	48 89 4c 24 08	 mov	 QWORD PTR [rsp+8], rcx
  0000a	55		 push	 rbp
  0000b	57		 push	 rdi
  0000c	48 81 ec f8 01
	00 00		 sub	 rsp, 504		; 000001f8H
  00013	48 8d 6c 24 20	 lea	 rbp, QWORD PTR [rsp+32]
  00018	48 8b fc	 mov	 rdi, rsp
  0001b	b9 7e 00 00 00	 mov	 ecx, 126		; 0000007eH
  00020	b8 cc cc cc cc	 mov	 eax, -858993460		; ccccccccH
  00025	f3 ab		 rep stosd
  00027	48 8b 8c 24 18
	02 00 00	 mov	 rcx, QWORD PTR [rsp+536]
  0002f	48 8d 0d 00 00
	00 00		 lea	 rcx, OFFSET FLAT:__9F55872E_pmc_compare@cpp
  00036	e8 00 00 00 00	 call	 __CheckForDebuggerJustMyCode

; 281  :         if (__UNIT_TYPE_BIT_COUNT * 2 < sizeof(v) * 8)

  0003b	33 c0		 xor	 eax, eax
  0003d	85 c0		 test	 eax, eax
  0003f	74 2d		 je	 SHORT $LN2@PMC_Compar

; 282  :         {
; 283  :             // _UINT64_T  2 
; 284  :             throw InternalErrorException(L"", L"pmc_compare.cpp;PMC_Compare_X_L;1");

  00041	4c 8d 05 00 00
	00 00		 lea	 r8, OFFSET FLAT:??_C@_1EE@OBOPNMLL@?$AAp?$AAm?$AAc?$AA_?$AAc?$AAo?$AAm?$AAp?$AAa?$AAr?$AAe?$AA?4?$AAc?$AAp?$AAp@
  00048	48 8d 15 00 00
	00 00		 lea	 rdx, OFFSET FLAT:??_C@_1CG@CNOPPENL@?$PP?$II?$AA?$BP?$AAW?$AAf?$AAD?$AAj?$AAD?$PP?$LD?$PP?$PM?$PP?I?$AAk?$AA0?$AAT?$AAW?$AA?$HO@
  0004f	48 8d 8d e8 00
	00 00		 lea	 rcx, QWORD PTR $T1[rbp]
  00056	e8 00 00 00 00	 call	 ??0InternalErrorException@Internal@Core@Math@Palmtree@@QEAA@PEB_W0@Z ; Palmtree::Math::Core::Internal::InternalErrorException::InternalErrorException
  0005b	48 8d 15 00 00
	00 00		 lea	 rdx, OFFSET FLAT:_TI2?AVInternalErrorException@Internal@Core@Math@Palmtree@@
  00062	48 8d 8d e8 00
	00 00		 lea	 rcx, QWORD PTR $T1[rbp]
  00069	e8 00 00 00 00	 call	 _CxxThrowException
$LN2@PMC_Compar:

; 285  :         }
; 286  :         if (u == nullptr)

  0006e	48 83 bd f0 01
	00 00 00	 cmp	 QWORD PTR u$[rbp], 0
  00076	75 2d		 jne	 SHORT $LN3@PMC_Compar

; 287  :             throw ArgumentNullException(L"nullptr", L"u");

  00078	4c 8d 05 00 00
	00 00		 lea	 r8, OFFSET FLAT:??_C@_13ICFKHAEN@?$AAu@
  0007f	48 8d 15 00 00
	00 00		 lea	 rdx, OFFSET FLAT:??_C@_1CK@ECFIEPAC@?$AA?$BF?$AAp?$AAk?$AAn?$AAu?$AAl?$AAl?$AAp?$AAt?$AAr?$AAL?$AA?$AO?$AAH?$PP?$IJ?$PP?$IM@
  00086	48 8d 8d 38 01
	00 00		 lea	 rcx, QWORD PTR $T2[rbp]
  0008d	e8 00 00 00 00	 call	 ??0ArgumentNullException@Internal@Core@Math@Palmtree@@QEAA@PEB_W0@Z ; Palmtree::Math::Core::Internal::ArgumentNullException::ArgumentNullException
  00092	48 8d 15 00 00
	00 00		 lea	 rdx, OFFSET FLAT:_TI2?AVArgumentNullException@Internal@Core@Math@Palmtree@@
  00099	48 8d 8d 38 01
	00 00		 lea	 rcx, QWORD PTR $T2[rbp]
  000a0	e8 00 00 00 00	 call	 _CxxThrowException
$LN3@PMC_Compar:

; 288  :         CheckNumber((NUMBER_HEADER*)u);

  000a5	48 8b 8d f0 01
	00 00		 mov	 rcx, QWORD PTR u$[rbp]
  000ac	e8 00 00 00 00	 call	 ?CheckNumber@Internal@Core@Math@Palmtree@@YAXPEAU__tag_NUMBER_HEADER@1234@@Z ; Palmtree::Math::Core::Internal::CheckNumber

; 289  :         _INT32_T w = PMC_Compare_X_L_Imp((NUMBER_HEADER*)u, v);

  000b1	48 8b 95 f8 01
	00 00		 mov	 rdx, QWORD PTR v$[rbp]
  000b8	48 8b 8d f0 01
	00 00		 mov	 rcx, QWORD PTR u$[rbp]
  000bf	e8 00 00 00 00	 call	 ?PMC_Compare_X_L_Imp@Internal@Core@Math@Palmtree@@YAHPEAU__tag_NUMBER_HEADER@1234@_K@Z ; Palmtree::Math::Core::Internal::PMC_Compare_X_L_Imp
  000c4	89 45 04	 mov	 DWORD PTR w$[rbp], eax

; 290  : #ifdef _DEBUG
; 291  :         if (w != 0 && w != 1 && w != -1)

  000c7	83 7d 04 00	 cmp	 DWORD PTR w$[rbp], 0
  000cb	74 39		 je	 SHORT $LN4@PMC_Compar
  000cd	83 7d 04 01	 cmp	 DWORD PTR w$[rbp], 1
  000d1	74 33		 je	 SHORT $LN4@PMC_Compar
  000d3	83 7d 04 ff	 cmp	 DWORD PTR w$[rbp], -1
  000d7	74 2d		 je	 SHORT $LN4@PMC_Compar

; 292  :             throw InternalErrorException(L"", L"pmc_compare.cpp;PMC_Compare_X_L;2");

  000d9	4c 8d 05 00 00
	00 00		 lea	 r8, OFFSET FLAT:??_C@_1EE@PDFKHDFF@?$AAp?$AAm?$AAc?$AA_?$AAc?$AAo?$AAm?$AAp?$AAa?$AAr?$AAe?$AA?4?$AAc?$AAp?$AAp@
  000e0	48 8d 15 00 00
	00 00		 lea	 rdx, OFFSET FLAT:??_C@_1BM@FCPAHMHB@?$PP?$IF?$PP?h?$PP?$KI?$PP?i?$PP?$PM?$AAL?$AAz?$AA?$BP?$AAW?$AA?$HO?$AAW?$AA_?$AA?$AC@
  000e7	48 8d 8d 88 01
	00 00		 lea	 rcx, QWORD PTR $T3[rbp]
  000ee	e8 00 00 00 00	 call	 ??0InternalErrorException@Internal@Core@Math@Palmtree@@QEAA@PEB_W0@Z ; Palmtree::Math::Core::Internal::InternalErrorException::InternalErrorException
  000f3	48 8d 15 00 00
	00 00		 lea	 rdx, OFFSET FLAT:_TI2?AVInternalErrorException@Internal@Core@Math@Palmtree@@
  000fa	48 8d 8d 88 01
	00 00		 lea	 rcx, QWORD PTR $T3[rbp]
  00101	e8 00 00 00 00	 call	 _CxxThrowException
$LN4@PMC_Compar:

; 293  : #endif
; 294  :         return (w);

  00106	8b 45 04	 mov	 eax, DWORD PTR w$[rbp]
$LN5@PMC_Compar:

; 295  :     }

  00109	48 8d a5 d8 01
	00 00		 lea	 rsp, QWORD PTR [rbp+472]
  00110	5f		 pop	 rdi
  00111	5d		 pop	 rbp
  00112	c3		 ret	 0
?PMC_Compare_X_L@Internal@Core@Math@Palmtree@@YAHPEAU__tag_PMC_HANDLE_UINT@1234@_K@Z ENDP ; Palmtree::Math::Core::Internal::PMC_Compare_X_L
_TEXT	ENDS
; Function compile flags: /Odtp /RTCsu /ZI
; File z:\sources\lunor\repos\rougemeilland\palmtree.math.core.uint\palmtree.math.core.uint\pmc_compare.cpp
;	COMDAT ?PMC_Compare_X_I@Internal@Core@Math@Palmtree@@YAHPEAU__tag_PMC_HANDLE_UINT@1234@I@Z
_TEXT	SEGMENT
w$ = 4
$T1 = 232
$T2 = 312
$T3 = 392
u$ = 496
v$ = 504
?PMC_Compare_X_I@Internal@Core@Math@Palmtree@@YAHPEAU__tag_PMC_HANDLE_UINT@1234@I@Z PROC ; Palmtree::Math::Core::Internal::PMC_Compare_X_I, COMDAT

; 126  :     {

$LN6:
  00000	89 54 24 10	 mov	 DWORD PTR [rsp+16], edx
  00004	48 89 4c 24 08	 mov	 QWORD PTR [rsp+8], rcx
  00009	55		 push	 rbp
  0000a	57		 push	 rdi
  0000b	48 81 ec f8 01
	00 00		 sub	 rsp, 504		; 000001f8H
  00012	48 8d 6c 24 20	 lea	 rbp, QWORD PTR [rsp+32]
  00017	48 8b fc	 mov	 rdi, rsp
  0001a	b9 7e 00 00 00	 mov	 ecx, 126		; 0000007eH
  0001f	b8 cc cc cc cc	 mov	 eax, -858993460		; ccccccccH
  00024	f3 ab		 rep stosd
  00026	48 8b 8c 24 18
	02 00 00	 mov	 rcx, QWORD PTR [rsp+536]
  0002e	48 8d 0d 00 00
	00 00		 lea	 rcx, OFFSET FLAT:__9F55872E_pmc_compare@cpp
  00035	e8 00 00 00 00	 call	 __CheckForDebuggerJustMyCode

; 127  :         if (__UNIT_TYPE_BIT_COUNT < sizeof(v) * 8)

  0003a	33 c0		 xor	 eax, eax
  0003c	85 c0		 test	 eax, eax
  0003e	74 2d		 je	 SHORT $LN2@PMC_Compar

; 128  :         {
; 129  :             // _UINT32_T  1 
; 130  :             throw InternalErrorException(L"", L"pmc_compare.cpp;PMC_Compare_X_I;1");

  00040	4c 8d 05 00 00
	00 00		 lea	 r8, OFFSET FLAT:??_C@_1EE@KJAPNCNP@?$AAp?$AAm?$AAc?$AA_?$AAc?$AAo?$AAm?$AAp?$AAa?$AAr?$AAe?$AA?4?$AAc?$AAp?$AAp@
  00047	48 8d 15 00 00
	00 00		 lea	 rdx, OFFSET FLAT:??_C@_1CG@CNOPPENL@?$PP?$II?$AA?$BP?$AAW?$AAf?$AAD?$AAj?$AAD?$PP?$LD?$PP?$PM?$PP?I?$AAk?$AA0?$AAT?$AAW?$AA?$HO@
  0004e	48 8d 8d e8 00
	00 00		 lea	 rcx, QWORD PTR $T1[rbp]
  00055	e8 00 00 00 00	 call	 ??0InternalErrorException@Internal@Core@Math@Palmtree@@QEAA@PEB_W0@Z ; Palmtree::Math::Core::Internal::InternalErrorException::InternalErrorException
  0005a	48 8d 15 00 00
	00 00		 lea	 rdx, OFFSET FLAT:_TI2?AVInternalErrorException@Internal@Core@Math@Palmtree@@
  00061	48 8d 8d e8 00
	00 00		 lea	 rcx, QWORD PTR $T1[rbp]
  00068	e8 00 00 00 00	 call	 _CxxThrowException
$LN2@PMC_Compar:

; 131  :         }
; 132  :         if (u == nullptr)

  0006d	48 83 bd f0 01
	00 00 00	 cmp	 QWORD PTR u$[rbp], 0
  00075	75 2d		 jne	 SHORT $LN3@PMC_Compar

; 133  :             throw ArgumentNullException(L"nullptr", L"u");

  00077	4c 8d 05 00 00
	00 00		 lea	 r8, OFFSET FLAT:??_C@_13ICFKHAEN@?$AAu@
  0007e	48 8d 15 00 00
	00 00		 lea	 rdx, OFFSET FLAT:??_C@_1CK@ECFIEPAC@?$AA?$BF?$AAp?$AAk?$AAn?$AAu?$AAl?$AAl?$AAp?$AAt?$AAr?$AAL?$AA?$AO?$AAH?$PP?$IJ?$PP?$IM@
  00085	48 8d 8d 38 01
	00 00		 lea	 rcx, QWORD PTR $T2[rbp]
  0008c	e8 00 00 00 00	 call	 ??0ArgumentNullException@Internal@Core@Math@Palmtree@@QEAA@PEB_W0@Z ; Palmtree::Math::Core::Internal::ArgumentNullException::ArgumentNullException
  00091	48 8d 15 00 00
	00 00		 lea	 rdx, OFFSET FLAT:_TI2?AVArgumentNullException@Internal@Core@Math@Palmtree@@
  00098	48 8d 8d 38 01
	00 00		 lea	 rcx, QWORD PTR $T2[rbp]
  0009f	e8 00 00 00 00	 call	 _CxxThrowException
$LN3@PMC_Compar:

; 134  :         CheckNumber((NUMBER_HEADER*)u);

  000a4	48 8b 8d f0 01
	00 00		 mov	 rcx, QWORD PTR u$[rbp]
  000ab	e8 00 00 00 00	 call	 ?CheckNumber@Internal@Core@Math@Palmtree@@YAXPEAU__tag_NUMBER_HEADER@1234@@Z ; Palmtree::Math::Core::Internal::CheckNumber

; 135  :         _INT32_T w = PMC_Compare_X_I_Imp((NUMBER_HEADER*)u, v);

  000b0	8b 95 f8 01 00
	00		 mov	 edx, DWORD PTR v$[rbp]
  000b6	48 8b 8d f0 01
	00 00		 mov	 rcx, QWORD PTR u$[rbp]
  000bd	e8 00 00 00 00	 call	 ?PMC_Compare_X_I_Imp@Internal@Core@Math@Palmtree@@YAHPEAU__tag_NUMBER_HEADER@1234@I@Z ; Palmtree::Math::Core::Internal::PMC_Compare_X_I_Imp
  000c2	89 45 04	 mov	 DWORD PTR w$[rbp], eax

; 136  : #ifdef _DEBUG
; 137  :         if (w != 0 && w != 1 && w != -1)

  000c5	83 7d 04 00	 cmp	 DWORD PTR w$[rbp], 0
  000c9	74 39		 je	 SHORT $LN4@PMC_Compar
  000cb	83 7d 04 01	 cmp	 DWORD PTR w$[rbp], 1
  000cf	74 33		 je	 SHORT $LN4@PMC_Compar
  000d1	83 7d 04 ff	 cmp	 DWORD PTR w$[rbp], -1
  000d5	74 2d		 je	 SHORT $LN4@PMC_Compar

; 138  :             throw InternalErrorException(L"", L"pmc_compare.cpp;PMC_Compare_X_I;2");

  000d7	4c 8d 05 00 00
	00 00		 lea	 r8, OFFSET FLAT:??_C@_1EE@LLLKHNDB@?$AAp?$AAm?$AAc?$AA_?$AAc?$AAo?$AAm?$AAp?$AAa?$AAr?$AAe?$AA?4?$AAc?$AAp?$AAp@
  000de	48 8d 15 00 00
	00 00		 lea	 rdx, OFFSET FLAT:??_C@_1BM@FCPAHMHB@?$PP?$IF?$PP?h?$PP?$KI?$PP?i?$PP?$PM?$AAL?$AAz?$AA?$BP?$AAW?$AA?$HO?$AAW?$AA_?$AA?$AC@
  000e5	48 8d 8d 88 01
	00 00		 lea	 rcx, QWORD PTR $T3[rbp]
  000ec	e8 00 00 00 00	 call	 ??0InternalErrorException@Internal@Core@Math@Palmtree@@QEAA@PEB_W0@Z ; Palmtree::Math::Core::Internal::InternalErrorException::InternalErrorException
  000f1	48 8d 15 00 00
	00 00		 lea	 rdx, OFFSET FLAT:_TI2?AVInternalErrorException@Internal@Core@Math@Palmtree@@
  000f8	48 8d 8d 88 01
	00 00		 lea	 rcx, QWORD PTR $T3[rbp]
  000ff	e8 00 00 00 00	 call	 _CxxThrowException
$LN4@PMC_Compar:

; 139  : #endif
; 140  :         return (w);

  00104	8b 45 04	 mov	 eax, DWORD PTR w$[rbp]
$LN5@PMC_Compar:

; 141  :     }

  00107	48 8d a5 d8 01
	00 00		 lea	 rsp, QWORD PTR [rbp+472]
  0010e	5f		 pop	 rdi
  0010f	5d		 pop	 rbp
  00110	c3		 ret	 0
?PMC_Compare_X_I@Internal@Core@Math@Palmtree@@YAHPEAU__tag_PMC_HANDLE_UINT@1234@I@Z ENDP ; Palmtree::Math::Core::Internal::PMC_Compare_X_I
_TEXT	ENDS
; Function compile flags: /Odtp /RTCsu /ZI
; File z:\sources\lunor\repos\rougemeilland\palmtree.math.core.uint\palmtree.math.core.uint\pmc_compare.cpp
;	COMDAT ?PMC_Compare_L_X@Internal@Core@Math@Palmtree@@YAH_KPEAU__tag_PMC_HANDLE_UINT@1234@@Z
_TEXT	SEGMENT
w$ = 4
$T1 = 232
$T2 = 312
$T3 = 392
u$ = 496
v$ = 504
?PMC_Compare_L_X@Internal@Core@Math@Palmtree@@YAH_KPEAU__tag_PMC_HANDLE_UINT@1234@@Z PROC ; Palmtree::Math::Core::Internal::PMC_Compare_L_X, COMDAT

; 262  :     {

$LN6:
  00000	48 89 54 24 10	 mov	 QWORD PTR [rsp+16], rdx
  00005	48 89 4c 24 08	 mov	 QWORD PTR [rsp+8], rcx
  0000a	55		 push	 rbp
  0000b	57		 push	 rdi
  0000c	48 81 ec f8 01
	00 00		 sub	 rsp, 504		; 000001f8H
  00013	48 8d 6c 24 20	 lea	 rbp, QWORD PTR [rsp+32]
  00018	48 8b fc	 mov	 rdi, rsp
  0001b	b9 7e 00 00 00	 mov	 ecx, 126		; 0000007eH
  00020	b8 cc cc cc cc	 mov	 eax, -858993460		; ccccccccH
  00025	f3 ab		 rep stosd
  00027	48 8b 8c 24 18
	02 00 00	 mov	 rcx, QWORD PTR [rsp+536]
  0002f	48 8d 0d 00 00
	00 00		 lea	 rcx, OFFSET FLAT:__9F55872E_pmc_compare@cpp
  00036	e8 00 00 00 00	 call	 __CheckForDebuggerJustMyCode

; 263  :         if (__UNIT_TYPE_BIT_COUNT * 2 < sizeof(u) * 8)

  0003b	33 c0		 xor	 eax, eax
  0003d	85 c0		 test	 eax, eax
  0003f	74 2d		 je	 SHORT $LN2@PMC_Compar

; 264  :         {
; 265  :             // _UINT64_T  2 
; 266  :             throw InternalErrorException(L"", L"pmc_compare.cpp;PMC_Compare_L_X;1");

  00041	4c 8d 05 00 00
	00 00		 lea	 r8, OFFSET FLAT:??_C@_1EE@BGAADFOJ@?$AAp?$AAm?$AAc?$AA_?$AAc?$AAo?$AAm?$AAp?$AAa?$AAr?$AAe?$AA?4?$AAc?$AAp?$AAp@
  00048	48 8d 15 00 00
	00 00		 lea	 rdx, OFFSET FLAT:??_C@_1CG@CNOPPENL@?$PP?$II?$AA?$BP?$AAW?$AAf?$AAD?$AAj?$AAD?$PP?$LD?$PP?$PM?$PP?I?$AAk?$AA0?$AAT?$AAW?$AA?$HO@
  0004f	48 8d 8d e8 00
	00 00		 lea	 rcx, QWORD PTR $T1[rbp]
  00056	e8 00 00 00 00	 call	 ??0InternalErrorException@Internal@Core@Math@Palmtree@@QEAA@PEB_W0@Z ; Palmtree::Math::Core::Internal::InternalErrorException::InternalErrorException
  0005b	48 8d 15 00 00
	00 00		 lea	 rdx, OFFSET FLAT:_TI2?AVInternalErrorException@Internal@Core@Math@Palmtree@@
  00062	48 8d 8d e8 00
	00 00		 lea	 rcx, QWORD PTR $T1[rbp]
  00069	e8 00 00 00 00	 call	 _CxxThrowException
$LN2@PMC_Compar:

; 267  :         }
; 268  :         if (v == nullptr)

  0006e	48 83 bd f8 01
	00 00 00	 cmp	 QWORD PTR v$[rbp], 0
  00076	75 2d		 jne	 SHORT $LN3@PMC_Compar

; 269  :             throw ArgumentNullException(L"nullptr", L"v");

  00078	4c 8d 05 00 00
	00 00		 lea	 r8, OFFSET FLAT:??_C@_13JAOPNPKD@?$AAv@
  0007f	48 8d 15 00 00
	00 00		 lea	 rdx, OFFSET FLAT:??_C@_1CK@ECFIEPAC@?$AA?$BF?$AAp?$AAk?$AAn?$AAu?$AAl?$AAl?$AAp?$AAt?$AAr?$AAL?$AA?$AO?$AAH?$PP?$IJ?$PP?$IM@
  00086	48 8d 8d 38 01
	00 00		 lea	 rcx, QWORD PTR $T2[rbp]
  0008d	e8 00 00 00 00	 call	 ??0ArgumentNullException@Internal@Core@Math@Palmtree@@QEAA@PEB_W0@Z ; Palmtree::Math::Core::Internal::ArgumentNullException::ArgumentNullException
  00092	48 8d 15 00 00
	00 00		 lea	 rdx, OFFSET FLAT:_TI2?AVArgumentNullException@Internal@Core@Math@Palmtree@@
  00099	48 8d 8d 38 01
	00 00		 lea	 rcx, QWORD PTR $T2[rbp]
  000a0	e8 00 00 00 00	 call	 _CxxThrowException
$LN3@PMC_Compar:

; 270  :         CheckNumber((NUMBER_HEADER*)v);

  000a5	48 8b 8d f8 01
	00 00		 mov	 rcx, QWORD PTR v$[rbp]
  000ac	e8 00 00 00 00	 call	 ?CheckNumber@Internal@Core@Math@Palmtree@@YAXPEAU__tag_NUMBER_HEADER@1234@@Z ; Palmtree::Math::Core::Internal::CheckNumber

; 271  :         _INT32_T w = -PMC_Compare_X_L_Imp((NUMBER_HEADER*)v, u);

  000b1	48 8b 95 f0 01
	00 00		 mov	 rdx, QWORD PTR u$[rbp]
  000b8	48 8b 8d f8 01
	00 00		 mov	 rcx, QWORD PTR v$[rbp]
  000bf	e8 00 00 00 00	 call	 ?PMC_Compare_X_L_Imp@Internal@Core@Math@Palmtree@@YAHPEAU__tag_NUMBER_HEADER@1234@_K@Z ; Palmtree::Math::Core::Internal::PMC_Compare_X_L_Imp
  000c4	f7 d8		 neg	 eax
  000c6	89 45 04	 mov	 DWORD PTR w$[rbp], eax

; 272  : #ifdef _DEBUG
; 273  :         if (w != 0 && w != 1 && w != -1)

  000c9	83 7d 04 00	 cmp	 DWORD PTR w$[rbp], 0
  000cd	74 39		 je	 SHORT $LN4@PMC_Compar
  000cf	83 7d 04 01	 cmp	 DWORD PTR w$[rbp], 1
  000d3	74 33		 je	 SHORT $LN4@PMC_Compar
  000d5	83 7d 04 ff	 cmp	 DWORD PTR w$[rbp], -1
  000d9	74 2d		 je	 SHORT $LN4@PMC_Compar

; 274  :             throw InternalErrorException(L"", L"pmc_compare.cpp;PMC_Compare_L_X;2");

  000db	4c 8d 05 00 00
	00 00		 lea	 r8, OFFSET FLAT:??_C@_1EE@ELFJKAH@?$AAp?$AAm?$AAc?$AA_?$AAc?$AAo?$AAm?$AAp?$AAa?$AAr?$AAe?$AA?4?$AAc?$AAp?$AAp@
  000e2	48 8d 15 00 00
	00 00		 lea	 rdx, OFFSET FLAT:??_C@_1BM@FCPAHMHB@?$PP?$IF?$PP?h?$PP?$KI?$PP?i?$PP?$PM?$AAL?$AAz?$AA?$BP?$AAW?$AA?$HO?$AAW?$AA_?$AA?$AC@
  000e9	48 8d 8d 88 01
	00 00		 lea	 rcx, QWORD PTR $T3[rbp]
  000f0	e8 00 00 00 00	 call	 ??0InternalErrorException@Internal@Core@Math@Palmtree@@QEAA@PEB_W0@Z ; Palmtree::Math::Core::Internal::InternalErrorException::InternalErrorException
  000f5	48 8d 15 00 00
	00 00		 lea	 rdx, OFFSET FLAT:_TI2?AVInternalErrorException@Internal@Core@Math@Palmtree@@
  000fc	48 8d 8d 88 01
	00 00		 lea	 rcx, QWORD PTR $T3[rbp]
  00103	e8 00 00 00 00	 call	 _CxxThrowException
$LN4@PMC_Compar:

; 275  : #endif
; 276  :         return (w);

  00108	8b 45 04	 mov	 eax, DWORD PTR w$[rbp]
$LN5@PMC_Compar:

; 277  :     }

  0010b	48 8d a5 d8 01
	00 00		 lea	 rsp, QWORD PTR [rbp+472]
  00112	5f		 pop	 rdi
  00113	5d		 pop	 rbp
  00114	c3		 ret	 0
?PMC_Compare_L_X@Internal@Core@Math@Palmtree@@YAH_KPEAU__tag_PMC_HANDLE_UINT@1234@@Z ENDP ; Palmtree::Math::Core::Internal::PMC_Compare_L_X
_TEXT	ENDS
; Function compile flags: /Odtp /RTCsu /ZI
; File z:\sources\lunor\repos\rougemeilland\palmtree.math.core.uint\palmtree.math.core.uint\pmc_compare.cpp
;	COMDAT ?PMC_Compare_I_X@Internal@Core@Math@Palmtree@@YAHIPEAU__tag_PMC_HANDLE_UINT@1234@@Z
_TEXT	SEGMENT
w$ = 4
$T1 = 232
$T2 = 312
$T3 = 392
u$ = 496
v$ = 504
?PMC_Compare_I_X@Internal@Core@Math@Palmtree@@YAHIPEAU__tag_PMC_HANDLE_UINT@1234@@Z PROC ; Palmtree::Math::Core::Internal::PMC_Compare_I_X, COMDAT

; 108  :     {

$LN6:
  00000	48 89 54 24 10	 mov	 QWORD PTR [rsp+16], rdx
  00005	89 4c 24 08	 mov	 DWORD PTR [rsp+8], ecx
  00009	55		 push	 rbp
  0000a	57		 push	 rdi
  0000b	48 81 ec f8 01
	00 00		 sub	 rsp, 504		; 000001f8H
  00012	48 8d 6c 24 20	 lea	 rbp, QWORD PTR [rsp+32]
  00017	48 8b fc	 mov	 rdi, rsp
  0001a	b9 7e 00 00 00	 mov	 ecx, 126		; 0000007eH
  0001f	b8 cc cc cc cc	 mov	 eax, -858993460		; ccccccccH
  00024	f3 ab		 rep stosd
  00026	8b 8c 24 18 02
	00 00		 mov	 ecx, DWORD PTR [rsp+536]
  0002d	48 8d 0d 00 00
	00 00		 lea	 rcx, OFFSET FLAT:__9F55872E_pmc_compare@cpp
  00034	e8 00 00 00 00	 call	 __CheckForDebuggerJustMyCode

; 109  :         if (__UNIT_TYPE_BIT_COUNT < sizeof(u) * 8)

  00039	33 c0		 xor	 eax, eax
  0003b	85 c0		 test	 eax, eax
  0003d	74 2d		 je	 SHORT $LN2@PMC_Compar

; 110  :         {
; 111  :             // _UINT32_T  1 
; 112  :             throw InternalErrorException(L"", L"pmc_compare.cpp;PMC_Compare_I_X;1");

  0003f	4c 8d 05 00 00
	00 00		 lea	 r8, OFFSET FLAT:??_C@_1EE@IOKDECPJ@?$AAp?$AAm?$AAc?$AA_?$AAc?$AAo?$AAm?$AAp?$AAa?$AAr?$AAe?$AA?4?$AAc?$AAp?$AAp@
  00046	48 8d 15 00 00
	00 00		 lea	 rdx, OFFSET FLAT:??_C@_1CG@CNOPPENL@?$PP?$II?$AA?$BP?$AAW?$AAf?$AAD?$AAj?$AAD?$PP?$LD?$PP?$PM?$PP?I?$AAk?$AA0?$AAT?$AAW?$AA?$HO@
  0004d	48 8d 8d e8 00
	00 00		 lea	 rcx, QWORD PTR $T1[rbp]
  00054	e8 00 00 00 00	 call	 ??0InternalErrorException@Internal@Core@Math@Palmtree@@QEAA@PEB_W0@Z ; Palmtree::Math::Core::Internal::InternalErrorException::InternalErrorException
  00059	48 8d 15 00 00
	00 00		 lea	 rdx, OFFSET FLAT:_TI2?AVInternalErrorException@Internal@Core@Math@Palmtree@@
  00060	48 8d 8d e8 00
	00 00		 lea	 rcx, QWORD PTR $T1[rbp]
  00067	e8 00 00 00 00	 call	 _CxxThrowException
$LN2@PMC_Compar:

; 113  :         }
; 114  :         if (v == nullptr)

  0006c	48 83 bd f8 01
	00 00 00	 cmp	 QWORD PTR v$[rbp], 0
  00074	75 2d		 jne	 SHORT $LN3@PMC_Compar

; 115  :             throw ArgumentNullException(L"nullptr", L"v");

  00076	4c 8d 05 00 00
	00 00		 lea	 r8, OFFSET FLAT:??_C@_13JAOPNPKD@?$AAv@
  0007d	48 8d 15 00 00
	00 00		 lea	 rdx, OFFSET FLAT:??_C@_1CK@ECFIEPAC@?$AA?$BF?$AAp?$AAk?$AAn?$AAu?$AAl?$AAl?$AAp?$AAt?$AAr?$AAL?$AA?$AO?$AAH?$PP?$IJ?$PP?$IM@
  00084	48 8d 8d 38 01
	00 00		 lea	 rcx, QWORD PTR $T2[rbp]
  0008b	e8 00 00 00 00	 call	 ??0ArgumentNullException@Internal@Core@Math@Palmtree@@QEAA@PEB_W0@Z ; Palmtree::Math::Core::Internal::ArgumentNullException::ArgumentNullException
  00090	48 8d 15 00 00
	00 00		 lea	 rdx, OFFSET FLAT:_TI2?AVArgumentNullException@Internal@Core@Math@Palmtree@@
  00097	48 8d 8d 38 01
	00 00		 lea	 rcx, QWORD PTR $T2[rbp]
  0009e	e8 00 00 00 00	 call	 _CxxThrowException
$LN3@PMC_Compar:

; 116  :         CheckNumber((NUMBER_HEADER*)v);

  000a3	48 8b 8d f8 01
	00 00		 mov	 rcx, QWORD PTR v$[rbp]
  000aa	e8 00 00 00 00	 call	 ?CheckNumber@Internal@Core@Math@Palmtree@@YAXPEAU__tag_NUMBER_HEADER@1234@@Z ; Palmtree::Math::Core::Internal::CheckNumber

; 117  :         _INT32_T w = -PMC_Compare_X_I_Imp((NUMBER_HEADER*)v, u);

  000af	8b 95 f0 01 00
	00		 mov	 edx, DWORD PTR u$[rbp]
  000b5	48 8b 8d f8 01
	00 00		 mov	 rcx, QWORD PTR v$[rbp]
  000bc	e8 00 00 00 00	 call	 ?PMC_Compare_X_I_Imp@Internal@Core@Math@Palmtree@@YAHPEAU__tag_NUMBER_HEADER@1234@I@Z ; Palmtree::Math::Core::Internal::PMC_Compare_X_I_Imp
  000c1	f7 d8		 neg	 eax
  000c3	89 45 04	 mov	 DWORD PTR w$[rbp], eax

; 118  : #ifdef _DEBUG
; 119  :         if (w != 0 && w != 1 && w != -1)

  000c6	83 7d 04 00	 cmp	 DWORD PTR w$[rbp], 0
  000ca	74 39		 je	 SHORT $LN4@PMC_Compar
  000cc	83 7d 04 01	 cmp	 DWORD PTR w$[rbp], 1
  000d0	74 33		 je	 SHORT $LN4@PMC_Compar
  000d2	83 7d 04 ff	 cmp	 DWORD PTR w$[rbp], -1
  000d6	74 2d		 je	 SHORT $LN4@PMC_Compar

; 120  :             throw InternalErrorException(L"", L"pmc_compare.cpp;PMC_Compare_I_X;2");

  000d8	4c 8d 05 00 00
	00 00		 lea	 r8, OFFSET FLAT:??_C@_1EE@JMBGONBH@?$AAp?$AAm?$AAc?$AA_?$AAc?$AAo?$AAm?$AAp?$AAa?$AAr?$AAe?$AA?4?$AAc?$AAp?$AAp@
  000df	48 8d 15 00 00
	00 00		 lea	 rdx, OFFSET FLAT:??_C@_1BM@FCPAHMHB@?$PP?$IF?$PP?h?$PP?$KI?$PP?i?$PP?$PM?$AAL?$AAz?$AA?$BP?$AAW?$AA?$HO?$AAW?$AA_?$AA?$AC@
  000e6	48 8d 8d 88 01
	00 00		 lea	 rcx, QWORD PTR $T3[rbp]
  000ed	e8 00 00 00 00	 call	 ??0InternalErrorException@Internal@Core@Math@Palmtree@@QEAA@PEB_W0@Z ; Palmtree::Math::Core::Internal::InternalErrorException::InternalErrorException
  000f2	48 8d 15 00 00
	00 00		 lea	 rdx, OFFSET FLAT:_TI2?AVInternalErrorException@Internal@Core@Math@Palmtree@@
  000f9	48 8d 8d 88 01
	00 00		 lea	 rcx, QWORD PTR $T3[rbp]
  00100	e8 00 00 00 00	 call	 _CxxThrowException
$LN4@PMC_Compar:

; 121  : #endif
; 122  :         return (w);

  00105	8b 45 04	 mov	 eax, DWORD PTR w$[rbp]
$LN5@PMC_Compar:

; 123  :     }

  00108	48 8d a5 d8 01
	00 00		 lea	 rsp, QWORD PTR [rbp+472]
  0010f	5f		 pop	 rdi
  00110	5d		 pop	 rbp
  00111	c3		 ret	 0
?PMC_Compare_I_X@Internal@Core@Math@Palmtree@@YAHIPEAU__tag_PMC_HANDLE_UINT@1234@@Z ENDP ; Palmtree::Math::Core::Internal::PMC_Compare_I_X
_TEXT	ENDS
; Function compile flags: /Odtp /RTCsu /ZI
; File z:\sources\lunor\repos\rougemeilland\palmtree.math.core.uint\palmtree.math.core.uint\pmc_compare.cpp
;	COMDAT ?Initialize_Compare@Internal@Core@Math@Palmtree@@YAHPEAU_tag_PROCESSOR_FEATURES@1234@@Z
_TEXT	SEGMENT
feature$ = 224
?Initialize_Compare@Internal@Core@Math@Palmtree@@YAHPEAU_tag_PROCESSOR_FEATURES@1234@@Z PROC ; Palmtree::Math::Core::Internal::Initialize_Compare, COMDAT

; 344  :     {

$LN3:
  00000	48 89 4c 24 08	 mov	 QWORD PTR [rsp+8], rcx
  00005	55		 push	 rbp
  00006	57		 push	 rdi
  00007	48 81 ec e8 00
	00 00		 sub	 rsp, 232		; 000000e8H
  0000e	48 8d 6c 24 20	 lea	 rbp, QWORD PTR [rsp+32]
  00013	48 8b fc	 mov	 rdi, rsp
  00016	b9 3a 00 00 00	 mov	 ecx, 58			; 0000003aH
  0001b	b8 cc cc cc cc	 mov	 eax, -858993460		; ccccccccH
  00020	f3 ab		 rep stosd
  00022	48 8b 8c 24 08
	01 00 00	 mov	 rcx, QWORD PTR [rsp+264]
  0002a	48 8d 0d 00 00
	00 00		 lea	 rcx, OFFSET FLAT:__9F55872E_pmc_compare@cpp
  00031	e8 00 00 00 00	 call	 __CheckForDebuggerJustMyCode

; 345  :         return (PMC_STATUS_OK);

  00036	33 c0		 xor	 eax, eax

; 346  :     }

  00038	48 8d a5 c8 00
	00 00		 lea	 rsp, QWORD PTR [rbp+200]
  0003f	5f		 pop	 rdi
  00040	5d		 pop	 rbp
  00041	c3		 ret	 0
?Initialize_Compare@Internal@Core@Math@Palmtree@@YAHPEAU_tag_PROCESSOR_FEATURES@1234@@Z ENDP ; Palmtree::Math::Core::Internal::Initialize_Compare
_TEXT	ENDS
; Function compile flags: /Odtp /RTCsu /ZI
; File z:\sources\lunor\repos\rougemeilland\palmtree.math.core.uint\palmtree.math.core.uint\pmc_compare.cpp
;	COMDAT ?PMC_Compare_X_X_Imp@Internal@Core@Math@Palmtree@@YAHPEAU__tag_NUMBER_HEADER@1234@0@Z
_TEXT	SEGMENT
u_bit_count$1 = 8
v_bit_count$2 = 40
tv70 = 244
u$ = 288
v$ = 296
?PMC_Compare_X_X_Imp@Internal@Core@Math@Palmtree@@YAHPEAU__tag_NUMBER_HEADER@1234@0@Z PROC ; Palmtree::Math::Core::Internal::PMC_Compare_X_X_Imp, COMDAT

; 298  :     {

$LN13:
  00000	48 89 54 24 10	 mov	 QWORD PTR [rsp+16], rdx
  00005	48 89 4c 24 08	 mov	 QWORD PTR [rsp+8], rcx
  0000a	55		 push	 rbp
  0000b	57		 push	 rdi
  0000c	48 81 ec 28 01
	00 00		 sub	 rsp, 296		; 00000128H
  00013	48 8d 6c 24 20	 lea	 rbp, QWORD PTR [rsp+32]
  00018	48 8b fc	 mov	 rdi, rsp
  0001b	b9 4a 00 00 00	 mov	 ecx, 74			; 0000004aH
  00020	b8 cc cc cc cc	 mov	 eax, -858993460		; ccccccccH
  00025	f3 ab		 rep stosd
  00027	48 8b 8c 24 48
	01 00 00	 mov	 rcx, QWORD PTR [rsp+328]
  0002f	48 8d 0d 00 00
	00 00		 lea	 rcx, OFFSET FLAT:__9F55872E_pmc_compare@cpp
  00036	e8 00 00 00 00	 call	 __CheckForDebuggerJustMyCode

; 299  :         if (u->IS_ZERO)

  0003b	48 8b 85 20 01
	00 00		 mov	 rax, QWORD PTR u$[rbp]
  00042	8b 40 08	 mov	 eax, DWORD PTR [rax+8]
  00045	83 e0 01	 and	 eax, 1
  00048	85 c0		 test	 eax, eax
  0004a	74 37		 je	 SHORT $LN2@PMC_Compar

; 300  :             return (v->IS_ZERO ? 0 : -1);

  0004c	48 8b 85 28 01
	00 00		 mov	 rax, QWORD PTR v$[rbp]
  00053	8b 40 08	 mov	 eax, DWORD PTR [rax+8]
  00056	83 e0 01	 and	 eax, 1
  00059	85 c0		 test	 eax, eax
  0005b	74 0c		 je	 SHORT $LN11@PMC_Compar
  0005d	c7 85 f4 00 00
	00 00 00 00 00	 mov	 DWORD PTR tv70[rbp], 0
  00067	eb 0a		 jmp	 SHORT $LN12@PMC_Compar
$LN11@PMC_Compar:
  00069	c7 85 f4 00 00
	00 ff ff ff ff	 mov	 DWORD PTR tv70[rbp], -1
$LN12@PMC_Compar:
  00073	8b 85 f4 00 00
	00		 mov	 eax, DWORD PTR tv70[rbp]
  00079	e9 89 00 00 00	 jmp	 $LN1@PMC_Compar
  0007e	e9 84 00 00 00	 jmp	 $LN3@PMC_Compar
$LN2@PMC_Compar:

; 301  :         else if (v->IS_ZERO)

  00083	48 8b 85 28 01
	00 00		 mov	 rax, QWORD PTR v$[rbp]
  0008a	8b 40 08	 mov	 eax, DWORD PTR [rax+8]
  0008d	83 e0 01	 and	 eax, 1
  00090	85 c0		 test	 eax, eax
  00092	74 09		 je	 SHORT $LN4@PMC_Compar

; 302  :             return (1);

  00094	b8 01 00 00 00	 mov	 eax, 1
  00099	eb 6c		 jmp	 SHORT $LN1@PMC_Compar

; 303  :         else

  0009b	eb 6a		 jmp	 SHORT $LN5@PMC_Compar
$LN4@PMC_Compar:

; 304  :         {
; 305  :             __UNIT_TYPE u_bit_count = u->UNIT_BIT_COUNT;

  0009d	48 8b 85 20 01
	00 00		 mov	 rax, QWORD PTR u$[rbp]
  000a4	48 8b 40 20	 mov	 rax, QWORD PTR [rax+32]
  000a8	48 89 45 08	 mov	 QWORD PTR u_bit_count$1[rbp], rax

; 306  :             __UNIT_TYPE v_bit_count = v->UNIT_BIT_COUNT;

  000ac	48 8b 85 28 01
	00 00		 mov	 rax, QWORD PTR v$[rbp]
  000b3	48 8b 40 20	 mov	 rax, QWORD PTR [rax+32]
  000b7	48 89 45 28	 mov	 QWORD PTR v_bit_count$2[rbp], rax

; 307  :             if (u_bit_count > v_bit_count)

  000bb	48 8b 45 28	 mov	 rax, QWORD PTR v_bit_count$2[rbp]
  000bf	48 39 45 08	 cmp	 QWORD PTR u_bit_count$1[rbp], rax
  000c3	76 09		 jbe	 SHORT $LN6@PMC_Compar

; 308  :             {
; 309  :                 //  u > v 
; 310  :                 return (1);

  000c5	b8 01 00 00 00	 mov	 eax, 1
  000ca	eb 3b		 jmp	 SHORT $LN1@PMC_Compar
  000cc	eb 39		 jmp	 SHORT $LN7@PMC_Compar
$LN6@PMC_Compar:

; 311  :             }
; 312  :             else if (u_bit_count < v_bit_count)

  000ce	48 8b 45 28	 mov	 rax, QWORD PTR v_bit_count$2[rbp]
  000d2	48 39 45 08	 cmp	 QWORD PTR u_bit_count$1[rbp], rax
  000d6	73 09		 jae	 SHORT $LN8@PMC_Compar

; 313  :             {
; 314  :                 //  u < v 
; 315  :                 return (-1);

  000d8	b8 ff ff ff ff	 mov	 eax, -1
  000dd	eb 28		 jmp	 SHORT $LN1@PMC_Compar

; 316  :             }
; 317  :             else

  000df	eb 26		 jmp	 SHORT $LN9@PMC_Compar
$LN8@PMC_Compar:

; 318  :             {
; 319  :                 // u > 0 && v > 0  u  v 
; 320  :                 return (Compare_Imp(u->BLOCK, v->BLOCK, u->UNIT_WORD_COUNT));

  000e1	48 8b 85 20 01
	00 00		 mov	 rax, QWORD PTR u$[rbp]
  000e8	4c 8b 40 18	 mov	 r8, QWORD PTR [rax+24]
  000ec	48 8b 85 28 01
	00 00		 mov	 rax, QWORD PTR v$[rbp]
  000f3	48 8b 50 40	 mov	 rdx, QWORD PTR [rax+64]
  000f7	48 8b 85 20 01
	00 00		 mov	 rax, QWORD PTR u$[rbp]
  000fe	48 8b 48 40	 mov	 rcx, QWORD PTR [rax+64]
  00102	e8 00 00 00 00	 call	 ?Compare_Imp@Internal@Core@Math@Palmtree@@YAHPEA_K0_K@Z ; Palmtree::Math::Core::Internal::Compare_Imp
$LN9@PMC_Compar:
$LN7@PMC_Compar:
$LN5@PMC_Compar:
$LN3@PMC_Compar:
$LN1@PMC_Compar:

; 321  :             }
; 322  :         }
; 323  :     }

  00107	48 8d a5 08 01
	00 00		 lea	 rsp, QWORD PTR [rbp+264]
  0010e	5f		 pop	 rdi
  0010f	5d		 pop	 rbp
  00110	c3		 ret	 0
?PMC_Compare_X_X_Imp@Internal@Core@Math@Palmtree@@YAHPEAU__tag_NUMBER_HEADER@1234@0@Z ENDP ; Palmtree::Math::Core::Internal::PMC_Compare_X_X_Imp
_TEXT	ENDS
; Function compile flags: /Odtp /RTCsu /ZI
; File z:\sources\lunor\repos\rougemeilland\palmtree.math.core.uint\palmtree.math.core.uint\pmc_compare.cpp
;	COMDAT ?Compare_Imp@Internal@Core@Math@Palmtree@@YAHPEA_K0_K@Z
_TEXT	SEGMENT
u$ = 224
v$ = 232
count$ = 240
?Compare_Imp@Internal@Core@Math@Palmtree@@YAHPEA_K0_K@Z PROC ; Palmtree::Math::Core::Internal::Compare_Imp, COMDAT

; 36   :     {

$LN9:
  00000	4c 89 44 24 18	 mov	 QWORD PTR [rsp+24], r8
  00005	48 89 54 24 10	 mov	 QWORD PTR [rsp+16], rdx
  0000a	48 89 4c 24 08	 mov	 QWORD PTR [rsp+8], rcx
  0000f	55		 push	 rbp
  00010	57		 push	 rdi
  00011	48 81 ec e8 00
	00 00		 sub	 rsp, 232		; 000000e8H
  00018	48 8d 6c 24 20	 lea	 rbp, QWORD PTR [rsp+32]
  0001d	48 8b fc	 mov	 rdi, rsp
  00020	b9 3a 00 00 00	 mov	 ecx, 58			; 0000003aH
  00025	b8 cc cc cc cc	 mov	 eax, -858993460		; ccccccccH
  0002a	f3 ab		 rep stosd
  0002c	48 8b 8c 24 08
	01 00 00	 mov	 rcx, QWORD PTR [rsp+264]
  00034	48 8d 0d 00 00
	00 00		 lea	 rcx, OFFSET FLAT:__9F55872E_pmc_compare@cpp
  0003b	e8 00 00 00 00	 call	 __CheckForDebuggerJustMyCode

; 37   :         u += count;

  00040	48 8b 85 e0 00
	00 00		 mov	 rax, QWORD PTR u$[rbp]
  00047	48 8b 8d f0 00
	00 00		 mov	 rcx, QWORD PTR count$[rbp]
  0004e	48 8d 04 c8	 lea	 rax, QWORD PTR [rax+rcx*8]
  00052	48 89 85 e0 00
	00 00		 mov	 QWORD PTR u$[rbp], rax

; 38   :         v += count;

  00059	48 8b 85 e8 00
	00 00		 mov	 rax, QWORD PTR v$[rbp]
  00060	48 8b 8d f0 00
	00 00		 mov	 rcx, QWORD PTR count$[rbp]
  00067	48 8d 04 c8	 lea	 rax, QWORD PTR [rax+rcx*8]
  0006b	48 89 85 e8 00
	00 00		 mov	 QWORD PTR v$[rbp], rax
$LN2@Compare_Im:

; 39   :         while (count > 0)

  00072	48 83 bd f0 00
	00 00 00	 cmp	 QWORD PTR count$[rbp], 0
  0007a	76 73		 jbe	 SHORT $LN3@Compare_Im

; 40   :         {
; 41   :             --u;

  0007c	48 8b 85 e0 00
	00 00		 mov	 rax, QWORD PTR u$[rbp]
  00083	48 83 e8 08	 sub	 rax, 8
  00087	48 89 85 e0 00
	00 00		 mov	 QWORD PTR u$[rbp], rax

; 42   :             --v;

  0008e	48 8b 85 e8 00
	00 00		 mov	 rax, QWORD PTR v$[rbp]
  00095	48 83 e8 08	 sub	 rax, 8
  00099	48 89 85 e8 00
	00 00		 mov	 QWORD PTR v$[rbp], rax

; 43   :             --count;

  000a0	48 8b 85 f0 00
	00 00		 mov	 rax, QWORD PTR count$[rbp]
  000a7	48 ff c8	 dec	 rax
  000aa	48 89 85 f0 00
	00 00		 mov	 QWORD PTR count$[rbp], rax

; 44   : 
; 45   :             if (*u > *v)

  000b1	48 8b 85 e0 00
	00 00		 mov	 rax, QWORD PTR u$[rbp]
  000b8	48 8b 8d e8 00
	00 00		 mov	 rcx, QWORD PTR v$[rbp]
  000bf	48 8b 09	 mov	 rcx, QWORD PTR [rcx]
  000c2	48 39 08	 cmp	 QWORD PTR [rax], rcx
  000c5	76 09		 jbe	 SHORT $LN4@Compare_Im

; 46   :                 return (1);

  000c7	b8 01 00 00 00	 mov	 eax, 1
  000cc	eb 23		 jmp	 SHORT $LN1@Compare_Im
  000ce	eb 1d		 jmp	 SHORT $LN5@Compare_Im
$LN4@Compare_Im:

; 47   :             else if (*u < *v)

  000d0	48 8b 85 e0 00
	00 00		 mov	 rax, QWORD PTR u$[rbp]
  000d7	48 8b 8d e8 00
	00 00		 mov	 rcx, QWORD PTR v$[rbp]
  000de	48 8b 09	 mov	 rcx, QWORD PTR [rcx]
  000e1	48 39 08	 cmp	 QWORD PTR [rax], rcx
  000e4	73 07		 jae	 SHORT $LN6@Compare_Im

; 48   :                 return (-1);

  000e6	b8 ff ff ff ff	 mov	 eax, -1
  000eb	eb 04		 jmp	 SHORT $LN1@Compare_Im
$LN6@Compare_Im:
$LN5@Compare_Im:

; 49   :             else
; 50   :             {
; 51   :             }
; 52   :         }

  000ed	eb 83		 jmp	 SHORT $LN2@Compare_Im
$LN3@Compare_Im:

; 53   :         return (0);

  000ef	33 c0		 xor	 eax, eax
$LN1@Compare_Im:

; 54   :     }

  000f1	48 8d a5 c8 00
	00 00		 lea	 rsp, QWORD PTR [rbp+200]
  000f8	5f		 pop	 rdi
  000f9	5d		 pop	 rbp
  000fa	c3		 ret	 0
?Compare_Imp@Internal@Core@Math@Palmtree@@YAHPEA_K0_K@Z ENDP ; Palmtree::Math::Core::Internal::Compare_Imp
_TEXT	ENDS
; Function compile flags: /Odtp /RTCsu /ZI
;	COMDAT ??_GInternalErrorException@Internal@Core@Math@Palmtree@@UEAAPEAXI@Z
_TEXT	SEGMENT
this$ = 224
__flags$ = 232
??_GInternalErrorException@Internal@Core@Math@Palmtree@@UEAAPEAXI@Z PROC ; Palmtree::Math::Core::Internal::InternalErrorException::`scalar deleting destructor', COMDAT
$LN4:
  00000	89 54 24 10	 mov	 DWORD PTR [rsp+16], edx
  00004	48 89 4c 24 08	 mov	 QWORD PTR [rsp+8], rcx
  00009	55		 push	 rbp
  0000a	57		 push	 rdi
  0000b	48 81 ec e8 00
	00 00		 sub	 rsp, 232		; 000000e8H
  00012	48 8d 6c 24 20	 lea	 rbp, QWORD PTR [rsp+32]
  00017	48 8b fc	 mov	 rdi, rsp
  0001a	b9 3a 00 00 00	 mov	 ecx, 58			; 0000003aH
  0001f	b8 cc cc cc cc	 mov	 eax, -858993460		; ccccccccH
  00024	f3 ab		 rep stosd
  00026	48 8b 8c 24 08
	01 00 00	 mov	 rcx, QWORD PTR [rsp+264]
  0002e	48 8b 8d e0 00
	00 00		 mov	 rcx, QWORD PTR this$[rbp]
  00035	e8 00 00 00 00	 call	 ??1InternalErrorException@Internal@Core@Math@Palmtree@@UEAA@XZ ; Palmtree::Math::Core::Internal::InternalErrorException::~InternalErrorException
  0003a	8b 85 e8 00 00
	00		 mov	 eax, DWORD PTR __flags$[rbp]
  00040	83 e0 01	 and	 eax, 1
  00043	85 c0		 test	 eax, eax
  00045	74 11		 je	 SHORT $LN2@scalar
  00047	ba 30 00 00 00	 mov	 edx, 48			; 00000030H
  0004c	48 8b 8d e0 00
	00 00		 mov	 rcx, QWORD PTR this$[rbp]
  00053	e8 00 00 00 00	 call	 ??3@YAXPEAX_K@Z		; operator delete
$LN2@scalar:
  00058	48 8b 85 e0 00
	00 00		 mov	 rax, QWORD PTR this$[rbp]
  0005f	48 8d a5 c8 00
	00 00		 lea	 rsp, QWORD PTR [rbp+200]
  00066	5f		 pop	 rdi
  00067	5d		 pop	 rbp
  00068	c3		 ret	 0
??_GInternalErrorException@Internal@Core@Math@Palmtree@@UEAAPEAXI@Z ENDP ; Palmtree::Math::Core::Internal::InternalErrorException::`scalar deleting destructor'
_TEXT	ENDS
; Function compile flags: /Odtp /RTCsu /ZI
; File z:\sources\lunor\repos\rougemeilland\palmtree.math.core.uint\palmtree.math.core.uint\pmc_exception.h
;	COMDAT ??1InternalErrorException@Internal@Core@Math@Palmtree@@UEAA@XZ
_TEXT	SEGMENT
$T1 = 200
this$ = 256
??1InternalErrorException@Internal@Core@Math@Palmtree@@UEAA@XZ PROC ; Palmtree::Math::Core::Internal::InternalErrorException::~InternalErrorException, COMDAT

; 295  :         {

$LN4:
  00000	48 89 4c 24 08	 mov	 QWORD PTR [rsp+8], rcx
  00005	55		 push	 rbp
  00006	57		 push	 rdi
  00007	48 81 ec 08 01
	00 00		 sub	 rsp, 264		; 00000108H
  0000e	48 8d 6c 24 20	 lea	 rbp, QWORD PTR [rsp+32]
  00013	48 8b fc	 mov	 rdi, rsp
  00016	b9 42 00 00 00	 mov	 ecx, 66			; 00000042H
  0001b	b8 cc cc cc cc	 mov	 eax, -858993460		; ccccccccH
  00020	f3 ab		 rep stosd
  00022	48 8b 8c 24 28
	01 00 00	 mov	 rcx, QWORD PTR [rsp+296]
  0002a	48 c7 85 c8 00
	00 00 fe ff ff
	ff		 mov	 QWORD PTR $T1[rbp], -2
  00035	48 8d 0d 00 00
	00 00		 lea	 rcx, OFFSET FLAT:__802FEEC0_pmc_exception@h
  0003c	e8 00 00 00 00	 call	 __CheckForDebuggerJustMyCode
  00041	90		 npad	 1
  00042	48 8b 85 00 01
	00 00		 mov	 rax, QWORD PTR this$[rbp]
  00049	48 8d 0d 00 00
	00 00		 lea	 rcx, OFFSET FLAT:??_7InternalErrorException@Internal@Core@Math@Palmtree@@6B@
  00050	48 89 08	 mov	 QWORD PTR [rax], rcx

; 296  :         }

  00053	48 8b 8d 00 01
	00 00		 mov	 rcx, QWORD PTR this$[rbp]
  0005a	e8 00 00 00 00	 call	 ??1Exception@Internal@Core@Math@Palmtree@@UEAA@XZ ; Palmtree::Math::Core::Internal::Exception::~Exception
  0005f	90		 npad	 1
  00060	48 8d a5 e8 00
	00 00		 lea	 rsp, QWORD PTR [rbp+232]
  00067	5f		 pop	 rdi
  00068	5d		 pop	 rbp
  00069	c3		 ret	 0
??1InternalErrorException@Internal@Core@Math@Palmtree@@UEAA@XZ ENDP ; Palmtree::Math::Core::Internal::InternalErrorException::~InternalErrorException
_TEXT	ENDS
;	COMDAT text$x
text$x	SEGMENT
$T1 = 200
this$ = 256
?dtor$0@?0???1InternalErrorException@Internal@Core@Math@Palmtree@@UEAA@XZ@4HA PROC ; `Palmtree::Math::Core::Internal::InternalErrorException::~InternalErrorException'::`1'::dtor$0
  00000	48 89 4c 24 08	 mov	 QWORD PTR [rsp+8], rcx
  00005	48 89 54 24 10	 mov	 QWORD PTR [rsp+16], rdx
  0000a	55		 push	 rbp
  0000b	57		 push	 rdi
  0000c	48 83 ec 28	 sub	 rsp, 40			; 00000028H
  00010	48 8d 6a 20	 lea	 rbp, QWORD PTR [rdx+32]
  00014	48 8b 8d 00 01
	00 00		 mov	 rcx, QWORD PTR this$[rbp]
  0001b	e8 00 00 00 00	 call	 ??1Exception@Internal@Core@Math@Palmtree@@UEAA@XZ ; Palmtree::Math::Core::Internal::Exception::~Exception
  00020	48 83 c4 28	 add	 rsp, 40			; 00000028H
  00024	5f		 pop	 rdi
  00025	5d		 pop	 rbp
  00026	c3		 ret	 0
?dtor$0@?0???1InternalErrorException@Internal@Core@Math@Palmtree@@UEAA@XZ@4HA ENDP ; `Palmtree::Math::Core::Internal::InternalErrorException::~InternalErrorException'::`1'::dtor$0
text$x	ENDS
; Function compile flags: /Odtp /RTCsu /ZI
;	COMDAT text$x
text$x	SEGMENT
$T1 = 200
this$ = 256
?dtor$0@?0???1InternalErrorException@Internal@Core@Math@Palmtree@@UEAA@XZ@4HA PROC ; `Palmtree::Math::Core::Internal::InternalErrorException::~InternalErrorException'::`1'::dtor$0
  00000	48 89 4c 24 08	 mov	 QWORD PTR [rsp+8], rcx
  00005	48 89 54 24 10	 mov	 QWORD PTR [rsp+16], rdx
  0000a	55		 push	 rbp
  0000b	57		 push	 rdi
  0000c	48 83 ec 28	 sub	 rsp, 40			; 00000028H
  00010	48 8d 6a 20	 lea	 rbp, QWORD PTR [rdx+32]
  00014	48 8b 8d 00 01
	00 00		 mov	 rcx, QWORD PTR this$[rbp]
  0001b	e8 00 00 00 00	 call	 ??1Exception@Internal@Core@Math@Palmtree@@UEAA@XZ ; Palmtree::Math::Core::Internal::Exception::~Exception
  00020	48 83 c4 28	 add	 rsp, 40			; 00000028H
  00024	5f		 pop	 rdi
  00025	5d		 pop	 rbp
  00026	c3		 ret	 0
?dtor$0@?0???1InternalErrorException@Internal@Core@Math@Palmtree@@UEAA@XZ@4HA ENDP ; `Palmtree::Math::Core::Internal::InternalErrorException::~InternalErrorException'::`1'::dtor$0
text$x	ENDS
; Function compile flags: /Odtp /RTCsu /ZI
; File z:\sources\lunor\repos\rougemeilland\palmtree.math.core.uint\palmtree.math.core.uint\pmc_exception.h
;	COMDAT ??0InternalErrorException@Internal@Core@Math@Palmtree@@QEAA@AEBV01234@@Z
_TEXT	SEGMENT
$T1 = 200
this$ = 256
p$ = 264
??0InternalErrorException@Internal@Core@Math@Palmtree@@QEAA@AEBV01234@@Z PROC ; Palmtree::Math::Core::Internal::InternalErrorException::InternalErrorException, COMDAT

; 291  :         {

$LN4:
  00000	48 89 54 24 10	 mov	 QWORD PTR [rsp+16], rdx
  00005	48 89 4c 24 08	 mov	 QWORD PTR [rsp+8], rcx
  0000a	55		 push	 rbp
  0000b	57		 push	 rdi
  0000c	48 81 ec 08 01
	00 00		 sub	 rsp, 264		; 00000108H
  00013	48 8d 6c 24 20	 lea	 rbp, QWORD PTR [rsp+32]
  00018	48 8b fc	 mov	 rdi, rsp
  0001b	b9 42 00 00 00	 mov	 ecx, 66			; 00000042H
  00020	b8 cc cc cc cc	 mov	 eax, -858993460		; ccccccccH
  00025	f3 ab		 rep stosd
  00027	48 8b 8c 24 28
	01 00 00	 mov	 rcx, QWORD PTR [rsp+296]
  0002f	48 c7 85 c8 00
	00 00 fe ff ff
	ff		 mov	 QWORD PTR $T1[rbp], -2
  0003a	48 8d 0d 00 00
	00 00		 lea	 rcx, OFFSET FLAT:__802FEEC0_pmc_exception@h
  00041	e8 00 00 00 00	 call	 __CheckForDebuggerJustMyCode
  00046	90		 npad	 1

; 290  :             : Exception(p)

  00047	48 8b 95 08 01
	00 00		 mov	 rdx, QWORD PTR p$[rbp]
  0004e	48 8b 8d 00 01
	00 00		 mov	 rcx, QWORD PTR this$[rbp]
  00055	e8 00 00 00 00	 call	 ??0Exception@Internal@Core@Math@Palmtree@@QEAA@AEBV01234@@Z ; Palmtree::Math::Core::Internal::Exception::Exception
  0005a	90		 npad	 1

; 291  :         {

  0005b	48 8b 85 00 01
	00 00		 mov	 rax, QWORD PTR this$[rbp]
  00062	48 8d 0d 00 00
	00 00		 lea	 rcx, OFFSET FLAT:??_7InternalErrorException@Internal@Core@Math@Palmtree@@6B@
  00069	48 89 08	 mov	 QWORD PTR [rax], rcx

; 292  :         }

  0006c	48 8b 85 00 01
	00 00		 mov	 rax, QWORD PTR this$[rbp]
  00073	48 8d a5 e8 00
	00 00		 lea	 rsp, QWORD PTR [rbp+232]
  0007a	5f		 pop	 rdi
  0007b	5d		 pop	 rbp
  0007c	c3		 ret	 0
??0InternalErrorException@Internal@Core@Math@Palmtree@@QEAA@AEBV01234@@Z ENDP ; Palmtree::Math::Core::Internal::InternalErrorException::InternalErrorException
_TEXT	ENDS
;	COMDAT text$x
text$x	SEGMENT
$T1 = 200
this$ = 256
p$ = 264
?dtor$0@?0???0InternalErrorException@Internal@Core@Math@Palmtree@@QEAA@AEBV01234@@Z@4HA PROC ; `Palmtree::Math::Core::Internal::InternalErrorException::InternalErrorException'::`1'::dtor$0
  00000	48 89 4c 24 08	 mov	 QWORD PTR [rsp+8], rcx
  00005	48 89 54 24 10	 mov	 QWORD PTR [rsp+16], rdx
  0000a	55		 push	 rbp
  0000b	57		 push	 rdi
  0000c	48 83 ec 28	 sub	 rsp, 40			; 00000028H
  00010	48 8d 6a 20	 lea	 rbp, QWORD PTR [rdx+32]
  00014	48 8b 8d 00 01
	00 00		 mov	 rcx, QWORD PTR this$[rbp]
  0001b	e8 00 00 00 00	 call	 ??1Exception@Internal@Core@Math@Palmtree@@UEAA@XZ ; Palmtree::Math::Core::Internal::Exception::~Exception
  00020	48 83 c4 28	 add	 rsp, 40			; 00000028H
  00024	5f		 pop	 rdi
  00025	5d		 pop	 rbp
  00026	c3		 ret	 0
?dtor$0@?0???0InternalErrorException@Internal@Core@Math@Palmtree@@QEAA@AEBV01234@@Z@4HA ENDP ; `Palmtree::Math::Core::Internal::InternalErrorException::InternalErrorException'::`1'::dtor$0
text$x	ENDS
; Function compile flags: /Odtp /RTCsu /ZI
;	COMDAT text$x
text$x	SEGMENT
$T1 = 200
this$ = 256
p$ = 264
?dtor$0@?0???0InternalErrorException@Internal@Core@Math@Palmtree@@QEAA@AEBV01234@@Z@4HA PROC ; `Palmtree::Math::Core::Internal::InternalErrorException::InternalErrorException'::`1'::dtor$0
  00000	48 89 4c 24 08	 mov	 QWORD PTR [rsp+8], rcx
  00005	48 89 54 24 10	 mov	 QWORD PTR [rsp+16], rdx
  0000a	55		 push	 rbp
  0000b	57		 push	 rdi
  0000c	48 83 ec 28	 sub	 rsp, 40			; 00000028H
  00010	48 8d 6a 20	 lea	 rbp, QWORD PTR [rdx+32]
  00014	48 8b 8d 00 01
	00 00		 mov	 rcx, QWORD PTR this$[rbp]
  0001b	e8 00 00 00 00	 call	 ??1Exception@Internal@Core@Math@Palmtree@@UEAA@XZ ; Palmtree::Math::Core::Internal::Exception::~Exception
  00020	48 83 c4 28	 add	 rsp, 40			; 00000028H
  00024	5f		 pop	 rdi
  00025	5d		 pop	 rbp
  00026	c3		 ret	 0
?dtor$0@?0???0InternalErrorException@Internal@Core@Math@Palmtree@@QEAA@AEBV01234@@Z@4HA ENDP ; `Palmtree::Math::Core::Internal::InternalErrorException::InternalErrorException'::`1'::dtor$0
text$x	ENDS
; Function compile flags: /Odtp /RTCsu /ZI
; File z:\sources\lunor\repos\rougemeilland\palmtree.math.core.uint\palmtree.math.core.uint\pmc_exception.h
;	COMDAT ??0InternalErrorException@Internal@Core@Math@Palmtree@@QEAA@PEB_W0@Z
_TEXT	SEGMENT
$T1 = 200
this$ = 256
message$ = 264
data$ = 272
??0InternalErrorException@Internal@Core@Math@Palmtree@@QEAA@PEB_W0@Z PROC ; Palmtree::Math::Core::Internal::InternalErrorException::InternalErrorException, COMDAT

; 286  :         {

$LN4:
  00000	4c 89 44 24 18	 mov	 QWORD PTR [rsp+24], r8
  00005	48 89 54 24 10	 mov	 QWORD PTR [rsp+16], rdx
  0000a	48 89 4c 24 08	 mov	 QWORD PTR [rsp+8], rcx
  0000f	55		 push	 rbp
  00010	57		 push	 rdi
  00011	48 81 ec 08 01
	00 00		 sub	 rsp, 264		; 00000108H
  00018	48 8d 6c 24 20	 lea	 rbp, QWORD PTR [rsp+32]
  0001d	48 8b fc	 mov	 rdi, rsp
  00020	b9 42 00 00 00	 mov	 ecx, 66			; 00000042H
  00025	b8 cc cc cc cc	 mov	 eax, -858993460		; ccccccccH
  0002a	f3 ab		 rep stosd
  0002c	48 8b 8c 24 28
	01 00 00	 mov	 rcx, QWORD PTR [rsp+296]
  00034	48 c7 85 c8 00
	00 00 fe ff ff
	ff		 mov	 QWORD PTR $T1[rbp], -2
  0003f	48 8d 0d 00 00
	00 00		 lea	 rcx, OFFSET FLAT:__802FEEC0_pmc_exception@h
  00046	e8 00 00 00 00	 call	 __CheckForDebuggerJustMyCode
  0004b	90		 npad	 1

; 285  :             : Exception(PMC_STATUS_INTERNAL_ERROR, message, data)

  0004c	4c 8b 8d 10 01
	00 00		 mov	 r9, QWORD PTR data$[rbp]
  00053	4c 8b 85 08 01
	00 00		 mov	 r8, QWORD PTR message$[rbp]
  0005a	ba 00 ff ff ff	 mov	 edx, -256		; ffffffffffffff00H
  0005f	48 8b 8d 00 01
	00 00		 mov	 rcx, QWORD PTR this$[rbp]
  00066	e8 00 00 00 00	 call	 ??0Exception@Internal@Core@Math@Palmtree@@IEAA@HPEB_W0@Z ; Palmtree::Math::Core::Internal::Exception::Exception
  0006b	90		 npad	 1

; 286  :         {

  0006c	48 8b 85 00 01
	00 00		 mov	 rax, QWORD PTR this$[rbp]
  00073	48 8d 0d 00 00
	00 00		 lea	 rcx, OFFSET FLAT:??_7InternalErrorException@Internal@Core@Math@Palmtree@@6B@
  0007a	48 89 08	 mov	 QWORD PTR [rax], rcx

; 287  :         }

  0007d	48 8b 85 00 01
	00 00		 mov	 rax, QWORD PTR this$[rbp]
  00084	48 8d a5 e8 00
	00 00		 lea	 rsp, QWORD PTR [rbp+232]
  0008b	5f		 pop	 rdi
  0008c	5d		 pop	 rbp
  0008d	c3		 ret	 0
??0InternalErrorException@Internal@Core@Math@Palmtree@@QEAA@PEB_W0@Z ENDP ; Palmtree::Math::Core::Internal::InternalErrorException::InternalErrorException
_TEXT	ENDS
;	COMDAT text$x
text$x	SEGMENT
$T1 = 200
this$ = 256
message$ = 264
data$ = 272
?dtor$0@?0???0InternalErrorException@Internal@Core@Math@Palmtree@@QEAA@PEB_W0@Z@4HA PROC ; `Palmtree::Math::Core::Internal::InternalErrorException::InternalErrorException'::`1'::dtor$0
  00000	48 89 4c 24 08	 mov	 QWORD PTR [rsp+8], rcx
  00005	48 89 54 24 10	 mov	 QWORD PTR [rsp+16], rdx
  0000a	55		 push	 rbp
  0000b	57		 push	 rdi
  0000c	48 83 ec 28	 sub	 rsp, 40			; 00000028H
  00010	48 8d 6a 20	 lea	 rbp, QWORD PTR [rdx+32]
  00014	48 8b 8d 00 01
	00 00		 mov	 rcx, QWORD PTR this$[rbp]
  0001b	e8 00 00 00 00	 call	 ??1Exception@Internal@Core@Math@Palmtree@@UEAA@XZ ; Palmtree::Math::Core::Internal::Exception::~Exception
  00020	48 83 c4 28	 add	 rsp, 40			; 00000028H
  00024	5f		 pop	 rdi
  00025	5d		 pop	 rbp
  00026	c3		 ret	 0
?dtor$0@?0???0InternalErrorException@Internal@Core@Math@Palmtree@@QEAA@PEB_W0@Z@4HA ENDP ; `Palmtree::Math::Core::Internal::InternalErrorException::InternalErrorException'::`1'::dtor$0
text$x	ENDS
; Function compile flags: /Odtp /RTCsu /ZI
;	COMDAT text$x
text$x	SEGMENT
$T1 = 200
this$ = 256
message$ = 264
data$ = 272
?dtor$0@?0???0InternalErrorException@Internal@Core@Math@Palmtree@@QEAA@PEB_W0@Z@4HA PROC ; `Palmtree::Math::Core::Internal::InternalErrorException::InternalErrorException'::`1'::dtor$0
  00000	48 89 4c 24 08	 mov	 QWORD PTR [rsp+8], rcx
  00005	48 89 54 24 10	 mov	 QWORD PTR [rsp+16], rdx
  0000a	55		 push	 rbp
  0000b	57		 push	 rdi
  0000c	48 83 ec 28	 sub	 rsp, 40			; 00000028H
  00010	48 8d 6a 20	 lea	 rbp, QWORD PTR [rdx+32]
  00014	48 8b 8d 00 01
	00 00		 mov	 rcx, QWORD PTR this$[rbp]
  0001b	e8 00 00 00 00	 call	 ??1Exception@Internal@Core@Math@Palmtree@@UEAA@XZ ; Palmtree::Math::Core::Internal::Exception::~Exception
  00020	48 83 c4 28	 add	 rsp, 40			; 00000028H
  00024	5f		 pop	 rdi
  00025	5d		 pop	 rbp
  00026	c3		 ret	 0
?dtor$0@?0???0InternalErrorException@Internal@Core@Math@Palmtree@@QEAA@PEB_W0@Z@4HA ENDP ; `Palmtree::Math::Core::Internal::InternalErrorException::InternalErrorException'::`1'::dtor$0
text$x	ENDS
; Function compile flags: /Odtp /RTCsu /ZI
;	COMDAT ??_GArgumentNullException@Internal@Core@Math@Palmtree@@UEAAPEAXI@Z
_TEXT	SEGMENT
this$ = 224
__flags$ = 232
??_GArgumentNullException@Internal@Core@Math@Palmtree@@UEAAPEAXI@Z PROC ; Palmtree::Math::Core::Internal::ArgumentNullException::`scalar deleting destructor', COMDAT
$LN4:
  00000	89 54 24 10	 mov	 DWORD PTR [rsp+16], edx
  00004	48 89 4c 24 08	 mov	 QWORD PTR [rsp+8], rcx
  00009	55		 push	 rbp
  0000a	57		 push	 rdi
  0000b	48 81 ec e8 00
	00 00		 sub	 rsp, 232		; 000000e8H
  00012	48 8d 6c 24 20	 lea	 rbp, QWORD PTR [rsp+32]
  00017	48 8b fc	 mov	 rdi, rsp
  0001a	b9 3a 00 00 00	 mov	 ecx, 58			; 0000003aH
  0001f	b8 cc cc cc cc	 mov	 eax, -858993460		; ccccccccH
  00024	f3 ab		 rep stosd
  00026	48 8b 8c 24 08
	01 00 00	 mov	 rcx, QWORD PTR [rsp+264]
  0002e	48 8b 8d e0 00
	00 00		 mov	 rcx, QWORD PTR this$[rbp]
  00035	e8 00 00 00 00	 call	 ??1ArgumentNullException@Internal@Core@Math@Palmtree@@UEAA@XZ ; Palmtree::Math::Core::Internal::ArgumentNullException::~ArgumentNullException
  0003a	8b 85 e8 00 00
	00		 mov	 eax, DWORD PTR __flags$[rbp]
  00040	83 e0 01	 and	 eax, 1
  00043	85 c0		 test	 eax, eax
  00045	74 11		 je	 SHORT $LN2@scalar
  00047	ba 30 00 00 00	 mov	 edx, 48			; 00000030H
  0004c	48 8b 8d e0 00
	00 00		 mov	 rcx, QWORD PTR this$[rbp]
  00053	e8 00 00 00 00	 call	 ??3@YAXPEAX_K@Z		; operator delete
$LN2@scalar:
  00058	48 8b 85 e0 00
	00 00		 mov	 rax, QWORD PTR this$[rbp]
  0005f	48 8d a5 c8 00
	00 00		 lea	 rsp, QWORD PTR [rbp+200]
  00066	5f		 pop	 rdi
  00067	5d		 pop	 rbp
  00068	c3		 ret	 0
??_GArgumentNullException@Internal@Core@Math@Palmtree@@UEAAPEAXI@Z ENDP ; Palmtree::Math::Core::Internal::ArgumentNullException::`scalar deleting destructor'
_TEXT	ENDS
; Function compile flags: /Odtp /RTCsu /ZI
; File z:\sources\lunor\repos\rougemeilland\palmtree.math.core.uint\palmtree.math.core.uint\pmc_exception.h
;	COMDAT ??1ArgumentNullException@Internal@Core@Math@Palmtree@@UEAA@XZ
_TEXT	SEGMENT
$T1 = 200
this$ = 256
??1ArgumentNullException@Internal@Core@Math@Palmtree@@UEAA@XZ PROC ; Palmtree::Math::Core::Internal::ArgumentNullException::~ArgumentNullException, COMDAT

; 124  :         {

$LN4:
  00000	48 89 4c 24 08	 mov	 QWORD PTR [rsp+8], rcx
  00005	55		 push	 rbp
  00006	57		 push	 rdi
  00007	48 81 ec 08 01
	00 00		 sub	 rsp, 264		; 00000108H
  0000e	48 8d 6c 24 20	 lea	 rbp, QWORD PTR [rsp+32]
  00013	48 8b fc	 mov	 rdi, rsp
  00016	b9 42 00 00 00	 mov	 ecx, 66			; 00000042H
  0001b	b8 cc cc cc cc	 mov	 eax, -858993460		; ccccccccH
  00020	f3 ab		 rep stosd
  00022	48 8b 8c 24 28
	01 00 00	 mov	 rcx, QWORD PTR [rsp+296]
  0002a	48 c7 85 c8 00
	00 00 fe ff ff
	ff		 mov	 QWORD PTR $T1[rbp], -2
  00035	48 8d 0d 00 00
	00 00		 lea	 rcx, OFFSET FLAT:__802FEEC0_pmc_exception@h
  0003c	e8 00 00 00 00	 call	 __CheckForDebuggerJustMyCode
  00041	90		 npad	 1
  00042	48 8b 85 00 01
	00 00		 mov	 rax, QWORD PTR this$[rbp]
  00049	48 8d 0d 00 00
	00 00		 lea	 rcx, OFFSET FLAT:??_7ArgumentNullException@Internal@Core@Math@Palmtree@@6B@
  00050	48 89 08	 mov	 QWORD PTR [rax], rcx

; 125  :         }

  00053	48 8b 8d 00 01
	00 00		 mov	 rcx, QWORD PTR this$[rbp]
  0005a	e8 00 00 00 00	 call	 ??1Exception@Internal@Core@Math@Palmtree@@UEAA@XZ ; Palmtree::Math::Core::Internal::Exception::~Exception
  0005f	90		 npad	 1
  00060	48 8d a5 e8 00
	00 00		 lea	 rsp, QWORD PTR [rbp+232]
  00067	5f		 pop	 rdi
  00068	5d		 pop	 rbp
  00069	c3		 ret	 0
??1ArgumentNullException@Internal@Core@Math@Palmtree@@UEAA@XZ ENDP ; Palmtree::Math::Core::Internal::ArgumentNullException::~ArgumentNullException
_TEXT	ENDS
;	COMDAT text$x
text$x	SEGMENT
$T1 = 200
this$ = 256
?dtor$0@?0???1ArgumentNullException@Internal@Core@Math@Palmtree@@UEAA@XZ@4HA PROC ; `Palmtree::Math::Core::Internal::ArgumentNullException::~ArgumentNullException'::`1'::dtor$0
  00000	48 89 4c 24 08	 mov	 QWORD PTR [rsp+8], rcx
  00005	48 89 54 24 10	 mov	 QWORD PTR [rsp+16], rdx
  0000a	55		 push	 rbp
  0000b	57		 push	 rdi
  0000c	48 83 ec 28	 sub	 rsp, 40			; 00000028H
  00010	48 8d 6a 20	 lea	 rbp, QWORD PTR [rdx+32]
  00014	48 8b 8d 00 01
	00 00		 mov	 rcx, QWORD PTR this$[rbp]
  0001b	e8 00 00 00 00	 call	 ??1Exception@Internal@Core@Math@Palmtree@@UEAA@XZ ; Palmtree::Math::Core::Internal::Exception::~Exception
  00020	48 83 c4 28	 add	 rsp, 40			; 00000028H
  00024	5f		 pop	 rdi
  00025	5d		 pop	 rbp
  00026	c3		 ret	 0
?dtor$0@?0???1ArgumentNullException@Internal@Core@Math@Palmtree@@UEAA@XZ@4HA ENDP ; `Palmtree::Math::Core::Internal::ArgumentNullException::~ArgumentNullException'::`1'::dtor$0
text$x	ENDS
; Function compile flags: /Odtp /RTCsu /ZI
;	COMDAT text$x
text$x	SEGMENT
$T1 = 200
this$ = 256
?dtor$0@?0???1ArgumentNullException@Internal@Core@Math@Palmtree@@UEAA@XZ@4HA PROC ; `Palmtree::Math::Core::Internal::ArgumentNullException::~ArgumentNullException'::`1'::dtor$0
  00000	48 89 4c 24 08	 mov	 QWORD PTR [rsp+8], rcx
  00005	48 89 54 24 10	 mov	 QWORD PTR [rsp+16], rdx
  0000a	55		 push	 rbp
  0000b	57		 push	 rdi
  0000c	48 83 ec 28	 sub	 rsp, 40			; 00000028H
  00010	48 8d 6a 20	 lea	 rbp, QWORD PTR [rdx+32]
  00014	48 8b 8d 00 01
	00 00		 mov	 rcx, QWORD PTR this$[rbp]
  0001b	e8 00 00 00 00	 call	 ??1Exception@Internal@Core@Math@Palmtree@@UEAA@XZ ; Palmtree::Math::Core::Internal::Exception::~Exception
  00020	48 83 c4 28	 add	 rsp, 40			; 00000028H
  00024	5f		 pop	 rdi
  00025	5d		 pop	 rbp
  00026	c3		 ret	 0
?dtor$0@?0???1ArgumentNullException@Internal@Core@Math@Palmtree@@UEAA@XZ@4HA ENDP ; `Palmtree::Math::Core::Internal::ArgumentNullException::~ArgumentNullException'::`1'::dtor$0
text$x	ENDS
; Function compile flags: /Odtp /RTCsu /ZI
; File z:\sources\lunor\repos\rougemeilland\palmtree.math.core.uint\palmtree.math.core.uint\pmc_exception.h
;	COMDAT ??0ArgumentNullException@Internal@Core@Math@Palmtree@@QEAA@AEBV01234@@Z
_TEXT	SEGMENT
$T1 = 200
this$ = 256
p$ = 264
??0ArgumentNullException@Internal@Core@Math@Palmtree@@QEAA@AEBV01234@@Z PROC ; Palmtree::Math::Core::Internal::ArgumentNullException::ArgumentNullException, COMDAT

; 120  :         {

$LN4:
  00000	48 89 54 24 10	 mov	 QWORD PTR [rsp+16], rdx
  00005	48 89 4c 24 08	 mov	 QWORD PTR [rsp+8], rcx
  0000a	55		 push	 rbp
  0000b	57		 push	 rdi
  0000c	48 81 ec 08 01
	00 00		 sub	 rsp, 264		; 00000108H
  00013	48 8d 6c 24 20	 lea	 rbp, QWORD PTR [rsp+32]
  00018	48 8b fc	 mov	 rdi, rsp
  0001b	b9 42 00 00 00	 mov	 ecx, 66			; 00000042H
  00020	b8 cc cc cc cc	 mov	 eax, -858993460		; ccccccccH
  00025	f3 ab		 rep stosd
  00027	48 8b 8c 24 28
	01 00 00	 mov	 rcx, QWORD PTR [rsp+296]
  0002f	48 c7 85 c8 00
	00 00 fe ff ff
	ff		 mov	 QWORD PTR $T1[rbp], -2
  0003a	48 8d 0d 00 00
	00 00		 lea	 rcx, OFFSET FLAT:__802FEEC0_pmc_exception@h
  00041	e8 00 00 00 00	 call	 __CheckForDebuggerJustMyCode
  00046	90		 npad	 1

; 119  :             : Exception(p)

  00047	48 8b 95 08 01
	00 00		 mov	 rdx, QWORD PTR p$[rbp]
  0004e	48 8b 8d 00 01
	00 00		 mov	 rcx, QWORD PTR this$[rbp]
  00055	e8 00 00 00 00	 call	 ??0Exception@Internal@Core@Math@Palmtree@@QEAA@AEBV01234@@Z ; Palmtree::Math::Core::Internal::Exception::Exception
  0005a	90		 npad	 1

; 120  :         {

  0005b	48 8b 85 00 01
	00 00		 mov	 rax, QWORD PTR this$[rbp]
  00062	48 8d 0d 00 00
	00 00		 lea	 rcx, OFFSET FLAT:??_7ArgumentNullException@Internal@Core@Math@Palmtree@@6B@
  00069	48 89 08	 mov	 QWORD PTR [rax], rcx

; 121  :         }

  0006c	48 8b 85 00 01
	00 00		 mov	 rax, QWORD PTR this$[rbp]
  00073	48 8d a5 e8 00
	00 00		 lea	 rsp, QWORD PTR [rbp+232]
  0007a	5f		 pop	 rdi
  0007b	5d		 pop	 rbp
  0007c	c3		 ret	 0
??0ArgumentNullException@Internal@Core@Math@Palmtree@@QEAA@AEBV01234@@Z ENDP ; Palmtree::Math::Core::Internal::ArgumentNullException::ArgumentNullException
_TEXT	ENDS
;	COMDAT text$x
text$x	SEGMENT
$T1 = 200
this$ = 256
p$ = 264
?dtor$0@?0???0ArgumentNullException@Internal@Core@Math@Palmtree@@QEAA@AEBV01234@@Z@4HA PROC ; `Palmtree::Math::Core::Internal::ArgumentNullException::ArgumentNullException'::`1'::dtor$0
  00000	48 89 4c 24 08	 mov	 QWORD PTR [rsp+8], rcx
  00005	48 89 54 24 10	 mov	 QWORD PTR [rsp+16], rdx
  0000a	55		 push	 rbp
  0000b	57		 push	 rdi
  0000c	48 83 ec 28	 sub	 rsp, 40			; 00000028H
  00010	48 8d 6a 20	 lea	 rbp, QWORD PTR [rdx+32]
  00014	48 8b 8d 00 01
	00 00		 mov	 rcx, QWORD PTR this$[rbp]
  0001b	e8 00 00 00 00	 call	 ??1Exception@Internal@Core@Math@Palmtree@@UEAA@XZ ; Palmtree::Math::Core::Internal::Exception::~Exception
  00020	48 83 c4 28	 add	 rsp, 40			; 00000028H
  00024	5f		 pop	 rdi
  00025	5d		 pop	 rbp
  00026	c3		 ret	 0
?dtor$0@?0???0ArgumentNullException@Internal@Core@Math@Palmtree@@QEAA@AEBV01234@@Z@4HA ENDP ; `Palmtree::Math::Core::Internal::ArgumentNullException::ArgumentNullException'::`1'::dtor$0
text$x	ENDS
; Function compile flags: /Odtp /RTCsu /ZI
;	COMDAT text$x
text$x	SEGMENT
$T1 = 200
this$ = 256
p$ = 264
?dtor$0@?0???0ArgumentNullException@Internal@Core@Math@Palmtree@@QEAA@AEBV01234@@Z@4HA PROC ; `Palmtree::Math::Core::Internal::ArgumentNullException::ArgumentNullException'::`1'::dtor$0
  00000	48 89 4c 24 08	 mov	 QWORD PTR [rsp+8], rcx
  00005	48 89 54 24 10	 mov	 QWORD PTR [rsp+16], rdx
  0000a	55		 push	 rbp
  0000b	57		 push	 rdi
  0000c	48 83 ec 28	 sub	 rsp, 40			; 00000028H
  00010	48 8d 6a 20	 lea	 rbp, QWORD PTR [rdx+32]
  00014	48 8b 8d 00 01
	00 00		 mov	 rcx, QWORD PTR this$[rbp]
  0001b	e8 00 00 00 00	 call	 ??1Exception@Internal@Core@Math@Palmtree@@UEAA@XZ ; Palmtree::Math::Core::Internal::Exception::~Exception
  00020	48 83 c4 28	 add	 rsp, 40			; 00000028H
  00024	5f		 pop	 rdi
  00025	5d		 pop	 rbp
  00026	c3		 ret	 0
?dtor$0@?0???0ArgumentNullException@Internal@Core@Math@Palmtree@@QEAA@AEBV01234@@Z@4HA ENDP ; `Palmtree::Math::Core::Internal::ArgumentNullException::ArgumentNullException'::`1'::dtor$0
text$x	ENDS
; Function compile flags: /Odtp /RTCsu /ZI
; File z:\sources\lunor\repos\rougemeilland\palmtree.math.core.uint\palmtree.math.core.uint\pmc_exception.h
;	COMDAT ??0ArgumentNullException@Internal@Core@Math@Palmtree@@QEAA@PEB_W0@Z
_TEXT	SEGMENT
$T1 = 200
this$ = 256
message$ = 264
param_name$ = 272
??0ArgumentNullException@Internal@Core@Math@Palmtree@@QEAA@PEB_W0@Z PROC ; Palmtree::Math::Core::Internal::ArgumentNullException::ArgumentNullException, COMDAT

; 115  :         {

$LN4:
  00000	4c 89 44 24 18	 mov	 QWORD PTR [rsp+24], r8
  00005	48 89 54 24 10	 mov	 QWORD PTR [rsp+16], rdx
  0000a	48 89 4c 24 08	 mov	 QWORD PTR [rsp+8], rcx
  0000f	55		 push	 rbp
  00010	57		 push	 rdi
  00011	48 81 ec 08 01
	00 00		 sub	 rsp, 264		; 00000108H
  00018	48 8d 6c 24 20	 lea	 rbp, QWORD PTR [rsp+32]
  0001d	48 8b fc	 mov	 rdi, rsp
  00020	b9 42 00 00 00	 mov	 ecx, 66			; 00000042H
  00025	b8 cc cc cc cc	 mov	 eax, -858993460		; ccccccccH
  0002a	f3 ab		 rep stosd
  0002c	48 8b 8c 24 28
	01 00 00	 mov	 rcx, QWORD PTR [rsp+296]
  00034	48 c7 85 c8 00
	00 00 fe ff ff
	ff		 mov	 QWORD PTR $T1[rbp], -2
  0003f	48 8d 0d 00 00
	00 00		 lea	 rcx, OFFSET FLAT:__802FEEC0_pmc_exception@h
  00046	e8 00 00 00 00	 call	 __CheckForDebuggerJustMyCode
  0004b	90		 npad	 1

; 114  :             : Exception(PMC_STATUS_ARGUMENT_NULL_ERROR, message, param_name)

  0004c	4c 8b 8d 10 01
	00 00		 mov	 r9, QWORD PTR param_name$[rbp]
  00053	4c 8b 85 08 01
	00 00		 mov	 r8, QWORD PTR message$[rbp]
  0005a	ba fe ff ff ff	 mov	 edx, -2
  0005f	48 8b 8d 00 01
	00 00		 mov	 rcx, QWORD PTR this$[rbp]
  00066	e8 00 00 00 00	 call	 ??0Exception@Internal@Core@Math@Palmtree@@IEAA@HPEB_W0@Z ; Palmtree::Math::Core::Internal::Exception::Exception
  0006b	90		 npad	 1

; 115  :         {

  0006c	48 8b 85 00 01
	00 00		 mov	 rax, QWORD PTR this$[rbp]
  00073	48 8d 0d 00 00
	00 00		 lea	 rcx, OFFSET FLAT:??_7ArgumentNullException@Internal@Core@Math@Palmtree@@6B@
  0007a	48 89 08	 mov	 QWORD PTR [rax], rcx

; 116  :         }

  0007d	48 8b 85 00 01
	00 00		 mov	 rax, QWORD PTR this$[rbp]
  00084	48 8d a5 e8 00
	00 00		 lea	 rsp, QWORD PTR [rbp+232]
  0008b	5f		 pop	 rdi
  0008c	5d		 pop	 rbp
  0008d	c3		 ret	 0
??0ArgumentNullException@Internal@Core@Math@Palmtree@@QEAA@PEB_W0@Z ENDP ; Palmtree::Math::Core::Internal::ArgumentNullException::ArgumentNullException
_TEXT	ENDS
;	COMDAT text$x
text$x	SEGMENT
$T1 = 200
this$ = 256
message$ = 264
param_name$ = 272
?dtor$0@?0???0ArgumentNullException@Internal@Core@Math@Palmtree@@QEAA@PEB_W0@Z@4HA PROC ; `Palmtree::Math::Core::Internal::ArgumentNullException::ArgumentNullException'::`1'::dtor$0
  00000	48 89 4c 24 08	 mov	 QWORD PTR [rsp+8], rcx
  00005	48 89 54 24 10	 mov	 QWORD PTR [rsp+16], rdx
  0000a	55		 push	 rbp
  0000b	57		 push	 rdi
  0000c	48 83 ec 28	 sub	 rsp, 40			; 00000028H
  00010	48 8d 6a 20	 lea	 rbp, QWORD PTR [rdx+32]
  00014	48 8b 8d 00 01
	00 00		 mov	 rcx, QWORD PTR this$[rbp]
  0001b	e8 00 00 00 00	 call	 ??1Exception@Internal@Core@Math@Palmtree@@UEAA@XZ ; Palmtree::Math::Core::Internal::Exception::~Exception
  00020	48 83 c4 28	 add	 rsp, 40			; 00000028H
  00024	5f		 pop	 rdi
  00025	5d		 pop	 rbp
  00026	c3		 ret	 0
?dtor$0@?0???0ArgumentNullException@Internal@Core@Math@Palmtree@@QEAA@PEB_W0@Z@4HA ENDP ; `Palmtree::Math::Core::Internal::ArgumentNullException::ArgumentNullException'::`1'::dtor$0
text$x	ENDS
; Function compile flags: /Odtp /RTCsu /ZI
;	COMDAT text$x
text$x	SEGMENT
$T1 = 200
this$ = 256
message$ = 264
param_name$ = 272
?dtor$0@?0???0ArgumentNullException@Internal@Core@Math@Palmtree@@QEAA@PEB_W0@Z@4HA PROC ; `Palmtree::Math::Core::Internal::ArgumentNullException::ArgumentNullException'::`1'::dtor$0
  00000	48 89 4c 24 08	 mov	 QWORD PTR [rsp+8], rcx
  00005	48 89 54 24 10	 mov	 QWORD PTR [rsp+16], rdx
  0000a	55		 push	 rbp
  0000b	57		 push	 rdi
  0000c	48 83 ec 28	 sub	 rsp, 40			; 00000028H
  00010	48 8d 6a 20	 lea	 rbp, QWORD PTR [rdx+32]
  00014	48 8b 8d 00 01
	00 00		 mov	 rcx, QWORD PTR this$[rbp]
  0001b	e8 00 00 00 00	 call	 ??1Exception@Internal@Core@Math@Palmtree@@UEAA@XZ ; Palmtree::Math::Core::Internal::Exception::~Exception
  00020	48 83 c4 28	 add	 rsp, 40			; 00000028H
  00024	5f		 pop	 rdi
  00025	5d		 pop	 rbp
  00026	c3		 ret	 0
?dtor$0@?0???0ArgumentNullException@Internal@Core@Math@Palmtree@@QEAA@PEB_W0@Z@4HA ENDP ; `Palmtree::Math::Core::Internal::ArgumentNullException::ArgumentNullException'::`1'::dtor$0
text$x	ENDS
; Function compile flags: /Odtp /RTCsu /ZI
;	COMDAT ??_GException@Internal@Core@Math@Palmtree@@UEAAPEAXI@Z
_TEXT	SEGMENT
this$ = 224
__flags$ = 232
??_GException@Internal@Core@Math@Palmtree@@UEAAPEAXI@Z PROC ; Palmtree::Math::Core::Internal::Exception::`scalar deleting destructor', COMDAT
$LN4:
  00000	89 54 24 10	 mov	 DWORD PTR [rsp+16], edx
  00004	48 89 4c 24 08	 mov	 QWORD PTR [rsp+8], rcx
  00009	55		 push	 rbp
  0000a	57		 push	 rdi
  0000b	48 81 ec e8 00
	00 00		 sub	 rsp, 232		; 000000e8H
  00012	48 8d 6c 24 20	 lea	 rbp, QWORD PTR [rsp+32]
  00017	48 8b fc	 mov	 rdi, rsp
  0001a	b9 3a 00 00 00	 mov	 ecx, 58			; 0000003aH
  0001f	b8 cc cc cc cc	 mov	 eax, -858993460		; ccccccccH
  00024	f3 ab		 rep stosd
  00026	48 8b 8c 24 08
	01 00 00	 mov	 rcx, QWORD PTR [rsp+264]
  0002e	48 8b 8d e0 00
	00 00		 mov	 rcx, QWORD PTR this$[rbp]
  00035	e8 00 00 00 00	 call	 ??1Exception@Internal@Core@Math@Palmtree@@UEAA@XZ ; Palmtree::Math::Core::Internal::Exception::~Exception
  0003a	8b 85 e8 00 00
	00		 mov	 eax, DWORD PTR __flags$[rbp]
  00040	83 e0 01	 and	 eax, 1
  00043	85 c0		 test	 eax, eax
  00045	74 11		 je	 SHORT $LN2@scalar
  00047	ba 30 00 00 00	 mov	 edx, 48			; 00000030H
  0004c	48 8b 8d e0 00
	00 00		 mov	 rcx, QWORD PTR this$[rbp]
  00053	e8 00 00 00 00	 call	 ??3@YAXPEAX_K@Z		; operator delete
$LN2@scalar:
  00058	48 8b 85 e0 00
	00 00		 mov	 rax, QWORD PTR this$[rbp]
  0005f	48 8d a5 c8 00
	00 00		 lea	 rsp, QWORD PTR [rbp+200]
  00066	5f		 pop	 rdi
  00067	5d		 pop	 rbp
  00068	c3		 ret	 0
??_GException@Internal@Core@Math@Palmtree@@UEAAPEAXI@Z ENDP ; Palmtree::Math::Core::Internal::Exception::`scalar deleting destructor'
_TEXT	ENDS
; Function compile flags: /Odtp /RTCsu /ZI
; File z:\sources\lunor\repos\rougemeilland\palmtree.math.core.uint\palmtree.math.core.uint\pmc_exception.h
;	COMDAT ??1Exception@Internal@Core@Math@Palmtree@@UEAA@XZ
_TEXT	SEGMENT
$T1 = 200
this$ = 256
??1Exception@Internal@Core@Math@Palmtree@@UEAA@XZ PROC	; Palmtree::Math::Core::Internal::Exception::~Exception, COMDAT

; 70   :         {

$LN4:
  00000	48 89 4c 24 08	 mov	 QWORD PTR [rsp+8], rcx
  00005	55		 push	 rbp
  00006	57		 push	 rdi
  00007	48 81 ec 08 01
	00 00		 sub	 rsp, 264		; 00000108H
  0000e	48 8d 6c 24 20	 lea	 rbp, QWORD PTR [rsp+32]
  00013	48 8b fc	 mov	 rdi, rsp
  00016	b9 42 00 00 00	 mov	 ecx, 66			; 00000042H
  0001b	b8 cc cc cc cc	 mov	 eax, -858993460		; ccccccccH
  00020	f3 ab		 rep stosd
  00022	48 8b 8c 24 28
	01 00 00	 mov	 rcx, QWORD PTR [rsp+296]
  0002a	48 c7 85 c8 00
	00 00 fe ff ff
	ff		 mov	 QWORD PTR $T1[rbp], -2
  00035	48 8d 0d 00 00
	00 00		 lea	 rcx, OFFSET FLAT:__802FEEC0_pmc_exception@h
  0003c	e8 00 00 00 00	 call	 __CheckForDebuggerJustMyCode
  00041	90		 npad	 1
  00042	48 8b 85 00 01
	00 00		 mov	 rax, QWORD PTR this$[rbp]
  00049	48 8d 0d 00 00
	00 00		 lea	 rcx, OFFSET FLAT:??_7Exception@Internal@Core@Math@Palmtree@@6B@
  00050	48 89 08	 mov	 QWORD PTR [rax], rcx

; 71   :         }

  00053	48 8b 8d 00 01
	00 00		 mov	 rcx, QWORD PTR this$[rbp]
  0005a	e8 00 00 00 00	 call	 ??1exception@std@@UEAA@XZ ; std::exception::~exception
  0005f	90		 npad	 1
  00060	48 8d a5 e8 00
	00 00		 lea	 rsp, QWORD PTR [rbp+232]
  00067	5f		 pop	 rdi
  00068	5d		 pop	 rbp
  00069	c3		 ret	 0
??1Exception@Internal@Core@Math@Palmtree@@UEAA@XZ ENDP	; Palmtree::Math::Core::Internal::Exception::~Exception
_TEXT	ENDS
;	COMDAT text$x
text$x	SEGMENT
$T1 = 200
this$ = 256
?dtor$0@?0???1Exception@Internal@Core@Math@Palmtree@@UEAA@XZ@4HA PROC ; `Palmtree::Math::Core::Internal::Exception::~Exception'::`1'::dtor$0
  00000	48 89 4c 24 08	 mov	 QWORD PTR [rsp+8], rcx
  00005	48 89 54 24 10	 mov	 QWORD PTR [rsp+16], rdx
  0000a	55		 push	 rbp
  0000b	57		 push	 rdi
  0000c	48 83 ec 28	 sub	 rsp, 40			; 00000028H
  00010	48 8d 6a 20	 lea	 rbp, QWORD PTR [rdx+32]
  00014	48 8b 8d 00 01
	00 00		 mov	 rcx, QWORD PTR this$[rbp]
  0001b	e8 00 00 00 00	 call	 ??1exception@std@@UEAA@XZ ; std::exception::~exception
  00020	48 83 c4 28	 add	 rsp, 40			; 00000028H
  00024	5f		 pop	 rdi
  00025	5d		 pop	 rbp
  00026	c3		 ret	 0
?dtor$0@?0???1Exception@Internal@Core@Math@Palmtree@@UEAA@XZ@4HA ENDP ; `Palmtree::Math::Core::Internal::Exception::~Exception'::`1'::dtor$0
text$x	ENDS
; Function compile flags: /Odtp /RTCsu /ZI
;	COMDAT text$x
text$x	SEGMENT
$T1 = 200
this$ = 256
?dtor$0@?0???1Exception@Internal@Core@Math@Palmtree@@UEAA@XZ@4HA PROC ; `Palmtree::Math::Core::Internal::Exception::~Exception'::`1'::dtor$0
  00000	48 89 4c 24 08	 mov	 QWORD PTR [rsp+8], rcx
  00005	48 89 54 24 10	 mov	 QWORD PTR [rsp+16], rdx
  0000a	55		 push	 rbp
  0000b	57		 push	 rdi
  0000c	48 83 ec 28	 sub	 rsp, 40			; 00000028H
  00010	48 8d 6a 20	 lea	 rbp, QWORD PTR [rdx+32]
  00014	48 8b 8d 00 01
	00 00		 mov	 rcx, QWORD PTR this$[rbp]
  0001b	e8 00 00 00 00	 call	 ??1exception@std@@UEAA@XZ ; std::exception::~exception
  00020	48 83 c4 28	 add	 rsp, 40			; 00000028H
  00024	5f		 pop	 rdi
  00025	5d		 pop	 rbp
  00026	c3		 ret	 0
?dtor$0@?0???1Exception@Internal@Core@Math@Palmtree@@UEAA@XZ@4HA ENDP ; `Palmtree::Math::Core::Internal::Exception::~Exception'::`1'::dtor$0
text$x	ENDS
; Function compile flags: /Odtp /RTCsu /ZI
; File z:\sources\lunor\repos\rougemeilland\palmtree.math.core.uint\palmtree.math.core.uint\pmc_exception.h
;	COMDAT ??0Exception@Internal@Core@Math@Palmtree@@QEAA@AEBV01234@@Z
_TEXT	SEGMENT
$T1 = 200
this$ = 256
p$ = 264
??0Exception@Internal@Core@Math@Palmtree@@QEAA@AEBV01234@@Z PROC ; Palmtree::Math::Core::Internal::Exception::Exception, COMDAT

; 62   :         Exception(const Exception& p) noexcept(true)

$LN4:
  00000	48 89 54 24 10	 mov	 QWORD PTR [rsp+16], rdx
  00005	48 89 4c 24 08	 mov	 QWORD PTR [rsp+8], rcx
  0000a	55		 push	 rbp
  0000b	57		 push	 rdi
  0000c	48 81 ec 08 01
	00 00		 sub	 rsp, 264		; 00000108H
  00013	48 8d 6c 24 20	 lea	 rbp, QWORD PTR [rsp+32]
  00018	48 8b fc	 mov	 rdi, rsp
  0001b	b9 42 00 00 00	 mov	 ecx, 66			; 00000042H
  00020	b8 cc cc cc cc	 mov	 eax, -858993460		; ccccccccH
  00025	f3 ab		 rep stosd
  00027	48 8b 8c 24 28
	01 00 00	 mov	 rcx, QWORD PTR [rsp+296]
  0002f	48 c7 85 c8 00
	00 00 fe ff ff
	ff		 mov	 QWORD PTR $T1[rbp], -2
  0003a	48 8d 0d 00 00
	00 00		 lea	 rcx, OFFSET FLAT:__802FEEC0_pmc_exception@h
  00041	e8 00 00 00 00	 call	 __CheckForDebuggerJustMyCode
  00046	90		 npad	 1
  00047	48 8b 8d 00 01
	00 00		 mov	 rcx, QWORD PTR this$[rbp]
  0004e	e8 00 00 00 00	 call	 ??0exception@std@@QEAA@XZ ; std::exception::exception
  00053	90		 npad	 1
  00054	48 8b 85 00 01
	00 00		 mov	 rax, QWORD PTR this$[rbp]
  0005b	48 8d 0d 00 00
	00 00		 lea	 rcx, OFFSET FLAT:??_7Exception@Internal@Core@Math@Palmtree@@6B@
  00062	48 89 08	 mov	 QWORD PTR [rax], rcx

; 63   :         {
; 64   :             _code = p._code;

  00065	48 8b 85 00 01
	00 00		 mov	 rax, QWORD PTR this$[rbp]
  0006c	48 8b 8d 08 01
	00 00		 mov	 rcx, QWORD PTR p$[rbp]
  00073	8b 49 18	 mov	 ecx, DWORD PTR [rcx+24]
  00076	89 48 18	 mov	 DWORD PTR [rax+24], ecx

; 65   :             _message = p._message;

  00079	48 8b 85 00 01
	00 00		 mov	 rax, QWORD PTR this$[rbp]
  00080	48 8b 8d 08 01
	00 00		 mov	 rcx, QWORD PTR p$[rbp]
  00087	48 8b 49 20	 mov	 rcx, QWORD PTR [rcx+32]
  0008b	48 89 48 20	 mov	 QWORD PTR [rax+32], rcx

; 66   :             _data = p._data;

  0008f	48 8b 85 00 01
	00 00		 mov	 rax, QWORD PTR this$[rbp]
  00096	48 8b 8d 08 01
	00 00		 mov	 rcx, QWORD PTR p$[rbp]
  0009d	48 8b 49 28	 mov	 rcx, QWORD PTR [rcx+40]
  000a1	48 89 48 28	 mov	 QWORD PTR [rax+40], rcx

; 67   :         }

  000a5	48 8b 85 00 01
	00 00		 mov	 rax, QWORD PTR this$[rbp]
  000ac	48 8d a5 e8 00
	00 00		 lea	 rsp, QWORD PTR [rbp+232]
  000b3	5f		 pop	 rdi
  000b4	5d		 pop	 rbp
  000b5	c3		 ret	 0
??0Exception@Internal@Core@Math@Palmtree@@QEAA@AEBV01234@@Z ENDP ; Palmtree::Math::Core::Internal::Exception::Exception
_TEXT	ENDS
;	COMDAT text$x
text$x	SEGMENT
$T1 = 200
this$ = 256
p$ = 264
?dtor$0@?0???0Exception@Internal@Core@Math@Palmtree@@QEAA@AEBV01234@@Z@4HA PROC ; `Palmtree::Math::Core::Internal::Exception::Exception'::`1'::dtor$0
  00000	48 89 4c 24 08	 mov	 QWORD PTR [rsp+8], rcx
  00005	48 89 54 24 10	 mov	 QWORD PTR [rsp+16], rdx
  0000a	55		 push	 rbp
  0000b	57		 push	 rdi
  0000c	48 83 ec 28	 sub	 rsp, 40			; 00000028H
  00010	48 8d 6a 20	 lea	 rbp, QWORD PTR [rdx+32]
  00014	48 8b 8d 00 01
	00 00		 mov	 rcx, QWORD PTR this$[rbp]
  0001b	e8 00 00 00 00	 call	 ??1exception@std@@UEAA@XZ ; std::exception::~exception
  00020	48 83 c4 28	 add	 rsp, 40			; 00000028H
  00024	5f		 pop	 rdi
  00025	5d		 pop	 rbp
  00026	c3		 ret	 0
?dtor$0@?0???0Exception@Internal@Core@Math@Palmtree@@QEAA@AEBV01234@@Z@4HA ENDP ; `Palmtree::Math::Core::Internal::Exception::Exception'::`1'::dtor$0
text$x	ENDS
; Function compile flags: /Odtp /RTCsu /ZI
;	COMDAT text$x
text$x	SEGMENT
$T1 = 200
this$ = 256
p$ = 264
?dtor$0@?0???0Exception@Internal@Core@Math@Palmtree@@QEAA@AEBV01234@@Z@4HA PROC ; `Palmtree::Math::Core::Internal::Exception::Exception'::`1'::dtor$0
  00000	48 89 4c 24 08	 mov	 QWORD PTR [rsp+8], rcx
  00005	48 89 54 24 10	 mov	 QWORD PTR [rsp+16], rdx
  0000a	55		 push	 rbp
  0000b	57		 push	 rdi
  0000c	48 83 ec 28	 sub	 rsp, 40			; 00000028H
  00010	48 8d 6a 20	 lea	 rbp, QWORD PTR [rdx+32]
  00014	48 8b 8d 00 01
	00 00		 mov	 rcx, QWORD PTR this$[rbp]
  0001b	e8 00 00 00 00	 call	 ??1exception@std@@UEAA@XZ ; std::exception::~exception
  00020	48 83 c4 28	 add	 rsp, 40			; 00000028H
  00024	5f		 pop	 rdi
  00025	5d		 pop	 rbp
  00026	c3		 ret	 0
?dtor$0@?0???0Exception@Internal@Core@Math@Palmtree@@QEAA@AEBV01234@@Z@4HA ENDP ; `Palmtree::Math::Core::Internal::Exception::Exception'::`1'::dtor$0
text$x	ENDS
; Function compile flags: /Odtp /RTCsu /ZI
; File z:\sources\lunor\repos\rougemeilland\palmtree.math.core.uint\palmtree.math.core.uint\pmc_exception.h
;	COMDAT ??0Exception@Internal@Core@Math@Palmtree@@IEAA@HPEB_W0@Z
_TEXT	SEGMENT
$T1 = 200
this$ = 256
code$ = 264
message$ = 272
data$ = 280
??0Exception@Internal@Core@Math@Palmtree@@IEAA@HPEB_W0@Z PROC ; Palmtree::Math::Core::Internal::Exception::Exception, COMDAT

; 54   :         Exception(PMC_STATUS_CODE code, const wchar_t* message, const wchar_t* data) noexcept(true)

$LN4:
  00000	4c 89 4c 24 20	 mov	 QWORD PTR [rsp+32], r9
  00005	4c 89 44 24 18	 mov	 QWORD PTR [rsp+24], r8
  0000a	89 54 24 10	 mov	 DWORD PTR [rsp+16], edx
  0000e	48 89 4c 24 08	 mov	 QWORD PTR [rsp+8], rcx
  00013	55		 push	 rbp
  00014	57		 push	 rdi
  00015	48 81 ec 08 01
	00 00		 sub	 rsp, 264		; 00000108H
  0001c	48 8d 6c 24 20	 lea	 rbp, QWORD PTR [rsp+32]
  00021	48 8b fc	 mov	 rdi, rsp
  00024	b9 42 00 00 00	 mov	 ecx, 66			; 00000042H
  00029	b8 cc cc cc cc	 mov	 eax, -858993460		; ccccccccH
  0002e	f3 ab		 rep stosd
  00030	48 8b 8c 24 28
	01 00 00	 mov	 rcx, QWORD PTR [rsp+296]
  00038	48 c7 85 c8 00
	00 00 fe ff ff
	ff		 mov	 QWORD PTR $T1[rbp], -2
  00043	48 8d 0d 00 00
	00 00		 lea	 rcx, OFFSET FLAT:__802FEEC0_pmc_exception@h
  0004a	e8 00 00 00 00	 call	 __CheckForDebuggerJustMyCode
  0004f	90		 npad	 1
  00050	48 8b 8d 00 01
	00 00		 mov	 rcx, QWORD PTR this$[rbp]
  00057	e8 00 00 00 00	 call	 ??0exception@std@@QEAA@XZ ; std::exception::exception
  0005c	90		 npad	 1
  0005d	48 8b 85 00 01
	00 00		 mov	 rax, QWORD PTR this$[rbp]
  00064	48 8d 0d 00 00
	00 00		 lea	 rcx, OFFSET FLAT:??_7Exception@Internal@Core@Math@Palmtree@@6B@
  0006b	48 89 08	 mov	 QWORD PTR [rax], rcx

; 55   :         {
; 56   :             _code = code;

  0006e	48 8b 85 00 01
	00 00		 mov	 rax, QWORD PTR this$[rbp]
  00075	8b 8d 08 01 00
	00		 mov	 ecx, DWORD PTR code$[rbp]
  0007b	89 48 18	 mov	 DWORD PTR [rax+24], ecx

; 57   :             _message = message;

  0007e	48 8b 85 00 01
	00 00		 mov	 rax, QWORD PTR this$[rbp]
  00085	48 8b 8d 10 01
	00 00		 mov	 rcx, QWORD PTR message$[rbp]
  0008c	48 89 48 20	 mov	 QWORD PTR [rax+32], rcx

; 58   :             _data = data;

  00090	48 8b 85 00 01
	00 00		 mov	 rax, QWORD PTR this$[rbp]
  00097	48 8b 8d 18 01
	00 00		 mov	 rcx, QWORD PTR data$[rbp]
  0009e	48 89 48 28	 mov	 QWORD PTR [rax+40], rcx

; 59   :         }

  000a2	48 8b 85 00 01
	00 00		 mov	 rax, QWORD PTR this$[rbp]
  000a9	48 8d a5 e8 00
	00 00		 lea	 rsp, QWORD PTR [rbp+232]
  000b0	5f		 pop	 rdi
  000b1	5d		 pop	 rbp
  000b2	c3		 ret	 0
??0Exception@Internal@Core@Math@Palmtree@@IEAA@HPEB_W0@Z ENDP ; Palmtree::Math::Core::Internal::Exception::Exception
_TEXT	ENDS
;	COMDAT text$x
text$x	SEGMENT
$T1 = 200
this$ = 256
code$ = 264
message$ = 272
data$ = 280
?dtor$0@?0???0Exception@Internal@Core@Math@Palmtree@@IEAA@HPEB_W0@Z@4HA PROC ; `Palmtree::Math::Core::Internal::Exception::Exception'::`1'::dtor$0
  00000	48 89 4c 24 08	 mov	 QWORD PTR [rsp+8], rcx
  00005	48 89 54 24 10	 mov	 QWORD PTR [rsp+16], rdx
  0000a	55		 push	 rbp
  0000b	57		 push	 rdi
  0000c	48 83 ec 28	 sub	 rsp, 40			; 00000028H
  00010	48 8d 6a 20	 lea	 rbp, QWORD PTR [rdx+32]
  00014	48 8b 8d 00 01
	00 00		 mov	 rcx, QWORD PTR this$[rbp]
  0001b	e8 00 00 00 00	 call	 ??1exception@std@@UEAA@XZ ; std::exception::~exception
  00020	48 83 c4 28	 add	 rsp, 40			; 00000028H
  00024	5f		 pop	 rdi
  00025	5d		 pop	 rbp
  00026	c3		 ret	 0
?dtor$0@?0???0Exception@Internal@Core@Math@Palmtree@@IEAA@HPEB_W0@Z@4HA ENDP ; `Palmtree::Math::Core::Internal::Exception::Exception'::`1'::dtor$0
text$x	ENDS
; Function compile flags: /Odtp /RTCsu /ZI
;	COMDAT text$x
text$x	SEGMENT
$T1 = 200
this$ = 256
code$ = 264
message$ = 272
data$ = 280
?dtor$0@?0???0Exception@Internal@Core@Math@Palmtree@@IEAA@HPEB_W0@Z@4HA PROC ; `Palmtree::Math::Core::Internal::Exception::Exception'::`1'::dtor$0
  00000	48 89 4c 24 08	 mov	 QWORD PTR [rsp+8], rcx
  00005	48 89 54 24 10	 mov	 QWORD PTR [rsp+16], rdx
  0000a	55		 push	 rbp
  0000b	57		 push	 rdi
  0000c	48 83 ec 28	 sub	 rsp, 40			; 00000028H
  00010	48 8d 6a 20	 lea	 rbp, QWORD PTR [rdx+32]
  00014	48 8b 8d 00 01
	00 00		 mov	 rcx, QWORD PTR this$[rbp]
  0001b	e8 00 00 00 00	 call	 ??1exception@std@@UEAA@XZ ; std::exception::~exception
  00020	48 83 c4 28	 add	 rsp, 40			; 00000028H
  00024	5f		 pop	 rdi
  00025	5d		 pop	 rbp
  00026	c3		 ret	 0
?dtor$0@?0???0Exception@Internal@Core@Math@Palmtree@@IEAA@HPEB_W0@Z@4HA ENDP ; `Palmtree::Math::Core::Internal::Exception::Exception'::`1'::dtor$0
text$x	ENDS
; Function compile flags: /Odtp /RTCsu /ZI
;	COMDAT ??_Gexception@std@@UEAAPEAXI@Z
_TEXT	SEGMENT
this$ = 224
__flags$ = 232
??_Gexception@std@@UEAAPEAXI@Z PROC			; std::exception::`scalar deleting destructor', COMDAT
$LN4:
  00000	89 54 24 10	 mov	 DWORD PTR [rsp+16], edx
  00004	48 89 4c 24 08	 mov	 QWORD PTR [rsp+8], rcx
  00009	55		 push	 rbp
  0000a	57		 push	 rdi
  0000b	48 81 ec e8 00
	00 00		 sub	 rsp, 232		; 000000e8H
  00012	48 8d 6c 24 20	 lea	 rbp, QWORD PTR [rsp+32]
  00017	48 8b fc	 mov	 rdi, rsp
  0001a	b9 3a 00 00 00	 mov	 ecx, 58			; 0000003aH
  0001f	b8 cc cc cc cc	 mov	 eax, -858993460		; ccccccccH
  00024	f3 ab		 rep stosd
  00026	48 8b 8c 24 08
	01 00 00	 mov	 rcx, QWORD PTR [rsp+264]
  0002e	48 8b 8d e0 00
	00 00		 mov	 rcx, QWORD PTR this$[rbp]
  00035	e8 00 00 00 00	 call	 ??1exception@std@@UEAA@XZ ; std::exception::~exception
  0003a	8b 85 e8 00 00
	00		 mov	 eax, DWORD PTR __flags$[rbp]
  00040	83 e0 01	 and	 eax, 1
  00043	85 c0		 test	 eax, eax
  00045	74 11		 je	 SHORT $LN2@scalar
  00047	ba 18 00 00 00	 mov	 edx, 24
  0004c	48 8b 8d e0 00
	00 00		 mov	 rcx, QWORD PTR this$[rbp]
  00053	e8 00 00 00 00	 call	 ??3@YAXPEAX_K@Z		; operator delete
$LN2@scalar:
  00058	48 8b 85 e0 00
	00 00		 mov	 rax, QWORD PTR this$[rbp]
  0005f	48 8d a5 c8 00
	00 00		 lea	 rsp, QWORD PTR [rbp+200]
  00066	5f		 pop	 rdi
  00067	5d		 pop	 rbp
  00068	c3		 ret	 0
??_Gexception@std@@UEAAPEAXI@Z ENDP			; std::exception::`scalar deleting destructor'
_TEXT	ENDS
; Function compile flags: /Odtp /RTCsu /ZI
; File c:\program files (x86)\microsoft visual studio\2017\community\vc\tools\msvc\14.16.27023\include\vcruntime_exception.h
;	COMDAT ?what@exception@std@@UEBAPEBDXZ
_TEXT	SEGMENT
tv69 = 192
this$ = 240
?what@exception@std@@UEBAPEBDXZ PROC			; std::exception::what, COMDAT

; 90   :     {

$LN5:
  00000	48 89 4c 24 08	 mov	 QWORD PTR [rsp+8], rcx
  00005	55		 push	 rbp
  00006	57		 push	 rdi
  00007	48 81 ec f8 00
	00 00		 sub	 rsp, 248		; 000000f8H
  0000e	48 8d 6c 24 20	 lea	 rbp, QWORD PTR [rsp+32]
  00013	48 8b fc	 mov	 rdi, rsp
  00016	b9 3e 00 00 00	 mov	 ecx, 62			; 0000003eH
  0001b	b8 cc cc cc cc	 mov	 eax, -858993460		; ccccccccH
  00020	f3 ab		 rep stosd
  00022	48 8b 8c 24 18
	01 00 00	 mov	 rcx, QWORD PTR [rsp+280]
  0002a	48 8d 0d 00 00
	00 00		 lea	 rcx, OFFSET FLAT:__9BB4E194_vcruntime_exception@h
  00031	e8 00 00 00 00	 call	 __CheckForDebuggerJustMyCode

; 91   :         return _Data._What ? _Data._What : "Unknown exception";

  00036	48 8b 85 f0 00
	00 00		 mov	 rax, QWORD PTR this$[rbp]
  0003d	48 83 78 08 00	 cmp	 QWORD PTR [rax+8], 0
  00042	74 14		 je	 SHORT $LN3@what
  00044	48 8b 85 f0 00
	00 00		 mov	 rax, QWORD PTR this$[rbp]
  0004b	48 8b 40 08	 mov	 rax, QWORD PTR [rax+8]
  0004f	48 89 85 c0 00
	00 00		 mov	 QWORD PTR tv69[rbp], rax
  00056	eb 0e		 jmp	 SHORT $LN4@what
$LN3@what:
  00058	48 8d 05 00 00
	00 00		 lea	 rax, OFFSET FLAT:??_C@_0BC@EOODALEL@Unknown?5exception@
  0005f	48 89 85 c0 00
	00 00		 mov	 QWORD PTR tv69[rbp], rax
$LN4@what:
  00066	48 8b 85 c0 00
	00 00		 mov	 rax, QWORD PTR tv69[rbp]

; 92   :     }

  0006d	48 8d a5 d8 00
	00 00		 lea	 rsp, QWORD PTR [rbp+216]
  00074	5f		 pop	 rdi
  00075	5d		 pop	 rbp
  00076	c3		 ret	 0
?what@exception@std@@UEBAPEBDXZ ENDP			; std::exception::what
_TEXT	ENDS
; Function compile flags: /Odtp /RTCsu /ZI
; File c:\program files (x86)\microsoft visual studio\2017\community\vc\tools\msvc\14.16.27023\include\vcruntime_exception.h
;	COMDAT ??1exception@std@@UEAA@XZ
_TEXT	SEGMENT
$T1 = 200
this$ = 256
??1exception@std@@UEAA@XZ PROC				; std::exception::~exception, COMDAT

; 85   :     {

$LN3:
  00000	48 89 4c 24 08	 mov	 QWORD PTR [rsp+8], rcx
  00005	55		 push	 rbp
  00006	57		 push	 rdi
  00007	48 81 ec 08 01
	00 00		 sub	 rsp, 264		; 00000108H
  0000e	48 8d 6c 24 20	 lea	 rbp, QWORD PTR [rsp+32]
  00013	48 8b fc	 mov	 rdi, rsp
  00016	b9 42 00 00 00	 mov	 ecx, 66			; 00000042H
  0001b	b8 cc cc cc cc	 mov	 eax, -858993460		; ccccccccH
  00020	f3 ab		 rep stosd
  00022	48 8b 8c 24 28
	01 00 00	 mov	 rcx, QWORD PTR [rsp+296]
  0002a	48 c7 85 c8 00
	00 00 fe ff ff
	ff		 mov	 QWORD PTR $T1[rbp], -2
  00035	48 8d 0d 00 00
	00 00		 lea	 rcx, OFFSET FLAT:__9BB4E194_vcruntime_exception@h
  0003c	e8 00 00 00 00	 call	 __CheckForDebuggerJustMyCode
  00041	90		 npad	 1
  00042	48 8b 85 00 01
	00 00		 mov	 rax, QWORD PTR this$[rbp]
  00049	48 8d 0d 00 00
	00 00		 lea	 rcx, OFFSET FLAT:??_7exception@std@@6B@
  00050	48 89 08	 mov	 QWORD PTR [rax], rcx

; 86   :         __std_exception_destroy(&_Data);

  00053	48 8b 85 00 01
	00 00		 mov	 rax, QWORD PTR this$[rbp]
  0005a	48 83 c0 08	 add	 rax, 8
  0005e	48 8b c8	 mov	 rcx, rax
  00061	e8 00 00 00 00	 call	 __std_exception_destroy
  00066	90		 npad	 1

; 87   :     }

  00067	48 8d a5 e8 00
	00 00		 lea	 rsp, QWORD PTR [rbp+232]
  0006e	5f		 pop	 rdi
  0006f	5d		 pop	 rbp
  00070	c3		 ret	 0
??1exception@std@@UEAA@XZ ENDP				; std::exception::~exception
_TEXT	ENDS
; Function compile flags: /Odtp /RTCsu /ZI
; File c:\program files (x86)\microsoft visual studio\2017\community\vc\tools\msvc\14.16.27023\include\vcruntime_exception.h
;	COMDAT ??0exception@std@@QEAA@XZ
_TEXT	SEGMENT
$T1 = 200
this$ = 256
??0exception@std@@QEAA@XZ PROC				; std::exception::exception, COMDAT

; 50   :     {

$LN3:
  00000	48 89 4c 24 08	 mov	 QWORD PTR [rsp+8], rcx
  00005	55		 push	 rbp
  00006	57		 push	 rdi
  00007	48 81 ec 08 01
	00 00		 sub	 rsp, 264		; 00000108H
  0000e	48 8d 6c 24 20	 lea	 rbp, QWORD PTR [rsp+32]
  00013	48 8b fc	 mov	 rdi, rsp
  00016	b9 42 00 00 00	 mov	 ecx, 66			; 00000042H
  0001b	b8 cc cc cc cc	 mov	 eax, -858993460		; ccccccccH
  00020	f3 ab		 rep stosd
  00022	48 8b 8c 24 28
	01 00 00	 mov	 rcx, QWORD PTR [rsp+296]
  0002a	48 c7 85 c8 00
	00 00 fe ff ff
	ff		 mov	 QWORD PTR $T1[rbp], -2
  00035	48 8d 0d 00 00
	00 00		 lea	 rcx, OFFSET FLAT:__9BB4E194_vcruntime_exception@h
  0003c	e8 00 00 00 00	 call	 __CheckForDebuggerJustMyCode
  00041	90		 npad	 1
  00042	48 8b 85 00 01
	00 00		 mov	 rax, QWORD PTR this$[rbp]
  00049	48 8d 0d 00 00
	00 00		 lea	 rcx, OFFSET FLAT:??_7exception@std@@6B@
  00050	48 89 08	 mov	 QWORD PTR [rax], rcx

; 49   :         : _Data()

  00053	48 8b 85 00 01
	00 00		 mov	 rax, QWORD PTR this$[rbp]
  0005a	48 83 c0 08	 add	 rax, 8
  0005e	48 8b f8	 mov	 rdi, rax
  00061	33 c0		 xor	 eax, eax
  00063	b9 10 00 00 00	 mov	 ecx, 16
  00068	f3 aa		 rep stosb

; 51   :     }

  0006a	48 8b 85 00 01
	00 00		 mov	 rax, QWORD PTR this$[rbp]
  00071	48 8d a5 e8 00
	00 00		 lea	 rsp, QWORD PTR [rbp+232]
  00078	5f		 pop	 rdi
  00079	5d		 pop	 rbp
  0007a	c3		 ret	 0
??0exception@std@@QEAA@XZ ENDP				; std::exception::exception
_TEXT	ENDS
END
