; Listing generated by Microsoft (R) Optimizing Compiler Version 19.16.27027.1 

include listing.inc

INCLUDELIB MSVCRTD
INCLUDELIB OLDNAMES

msvcjmc	SEGMENT
__7B7A869E_ctype@h DB 01H
__457DD326_basetsd@h DB 01H
__4384A2D9_corecrt_memcpy_s@h DB 01H
__2088847F_corecrt_memory@h DB 01H
__4E51A221_corecrt_wstring@h DB 01H
__2140C079_string@h DB 01H
__E9FFF232_guiddef@h DB 01H
__1887E595_winnt@h DB 01H
__9FC7C64B_processthreadsapi@h DB 01H
__FA470AEC_memoryapi@h DB 01H
__F37DAFF1_winerror@h DB 01H
__7A450CCC_winbase@h DB 01H
__12AD47BB_winuser@h DB 01H
__B4B40122_winioctl@h DB 01H
__A73354DD_stdlib@h DB 01H
__25F3FB34_propidl@h DB 01H
__A40E48B8_oleauto@h DB 01H
__86261D59_stralign@h DB 01H
__2CC6E67D_corecrt_stdio_config@h DB 01H
__41381B41_corecrt_wconio@h DB 01H
__F0CC4AC4_corecrt_wio@h DB 01H
__05476D76_corecrt_wstdio@h DB 01H
__C0802A2B_corecrt_wtime@h DB 01H
__A40A425D_stat@h DB 01H
__5A74375D_wchar@h DB 01H
__6BC0FD35_vcruntime_new@h DB 01H
__77F53984_cstddef DB 01H
__188180DA_corecrt_math@h DB 01H
__D23EE329_cstdlib DB 01H
__5ECFF36E_type_traits DB 01H
__331E732B_malloc@h DB 01H
__9BB4E194_vcruntime_exception@h DB 01H
__7949CB39_exception DB 01H
__802FEEC0_pmc_exception@h DB 01H
__BB6D3116_pmc_uint_internal@h DB 01H
__1AB12E38_pmc_resourceholder@h DB 01H
__8CA3E54E_pmc_inline_func@h DB 01H
__E05E7037_autogenerated_inline_func@h DB 01H
__AF70AA4D_pmc_add@cpp DB 01H
msvcjmc	ENDS
PUBLIC	??0exception@std@@QEAA@XZ			; std::exception::exception
PUBLIC	??1exception@std@@UEAA@XZ			; std::exception::~exception
PUBLIC	?what@exception@std@@UEBAPEBDXZ			; std::exception::what
PUBLIC	??_Gexception@std@@UEAAPEAXI@Z			; std::exception::`scalar deleting destructor'
PUBLIC	??0Exception@Internal@Core@Math@Palmtree@@IEAA@HPEB_W0@Z ; Palmtree::Math::Core::Internal::Exception::Exception
PUBLIC	??0Exception@Internal@Core@Math@Palmtree@@QEAA@AEBV01234@@Z ; Palmtree::Math::Core::Internal::Exception::Exception
PUBLIC	??1Exception@Internal@Core@Math@Palmtree@@UEAA@XZ ; Palmtree::Math::Core::Internal::Exception::~Exception
PUBLIC	??_GException@Internal@Core@Math@Palmtree@@UEAAPEAXI@Z ; Palmtree::Math::Core::Internal::Exception::`scalar deleting destructor'
PUBLIC	??0ArgumentNullException@Internal@Core@Math@Palmtree@@QEAA@PEB_W0@Z ; Palmtree::Math::Core::Internal::ArgumentNullException::ArgumentNullException
PUBLIC	??0ArgumentNullException@Internal@Core@Math@Palmtree@@QEAA@AEBV01234@@Z ; Palmtree::Math::Core::Internal::ArgumentNullException::ArgumentNullException
PUBLIC	??1ArgumentNullException@Internal@Core@Math@Palmtree@@UEAA@XZ ; Palmtree::Math::Core::Internal::ArgumentNullException::~ArgumentNullException
PUBLIC	??_GArgumentNullException@Internal@Core@Math@Palmtree@@UEAAPEAXI@Z ; Palmtree::Math::Core::Internal::ArgumentNullException::`scalar deleting destructor'
PUBLIC	??0InternalErrorException@Internal@Core@Math@Palmtree@@QEAA@PEB_W0@Z ; Palmtree::Math::Core::Internal::InternalErrorException::InternalErrorException
PUBLIC	??0InternalErrorException@Internal@Core@Math@Palmtree@@QEAA@AEBV01234@@Z ; Palmtree::Math::Core::Internal::InternalErrorException::InternalErrorException
PUBLIC	??1InternalErrorException@Internal@Core@Math@Palmtree@@UEAA@XZ ; Palmtree::Math::Core::Internal::InternalErrorException::~InternalErrorException
PUBLIC	??_GInternalErrorException@Internal@Core@Math@Palmtree@@UEAAPEAXI@Z ; Palmtree::Math::Core::Internal::InternalErrorException::`scalar deleting destructor'
PUBLIC	?PMC_Add_X_X_Imp@Internal@Core@Math@Palmtree@@YAPEAU__tag_NUMBER_HEADER@1234@PEAU51234@0@Z ; Palmtree::Math::Core::Internal::PMC_Add_X_X_Imp
PUBLIC	?Initialize_Add@Internal@Core@Math@Palmtree@@YAHPEAU_tag_PROCESSOR_FEATURES@1234@@Z ; Palmtree::Math::Core::Internal::Initialize_Add
PUBLIC	?PMC_Add_I_X@Internal@Core@Math@Palmtree@@YAPEAU__tag_PMC_HANDLE_UINT@1234@IPEAU51234@@Z ; Palmtree::Math::Core::Internal::PMC_Add_I_X
PUBLIC	?PMC_Add_L_X@Internal@Core@Math@Palmtree@@YAPEAU__tag_PMC_HANDLE_UINT@1234@_KPEAU51234@@Z ; Palmtree::Math::Core::Internal::PMC_Add_L_X
PUBLIC	?PMC_Add_X_I@Internal@Core@Math@Palmtree@@YAPEAU__tag_PMC_HANDLE_UINT@1234@PEAU51234@I@Z ; Palmtree::Math::Core::Internal::PMC_Add_X_I
PUBLIC	?PMC_Add_X_L@Internal@Core@Math@Palmtree@@YAPEAU__tag_PMC_HANDLE_UINT@1234@PEAU51234@_K@Z ; Palmtree::Math::Core::Internal::PMC_Add_X_L
PUBLIC	?PMC_Add_X_X@Internal@Core@Math@Palmtree@@YAPEAU__tag_PMC_HANDLE_UINT@1234@PEAU51234@0@Z ; Palmtree::Math::Core::Internal::PMC_Add_X_X
PUBLIC	__JustMyCode_Default
PUBLIC	??_7exception@std@@6B@				; std::exception::`vftable'
PUBLIC	??_C@_0BC@EOODALEL@Unknown?5exception@		; `string'
PUBLIC	??_7Exception@Internal@Core@Math@Palmtree@@6B@	; Palmtree::Math::Core::Internal::Exception::`vftable'
PUBLIC	??_7ArgumentNullException@Internal@Core@Math@Palmtree@@6B@ ; Palmtree::Math::Core::Internal::ArgumentNullException::`vftable'
PUBLIC	??_7InternalErrorException@Internal@Core@Math@Palmtree@@6B@ ; Palmtree::Math::Core::Internal::InternalErrorException::`vftable'
PUBLIC	_TI2?AVInternalErrorException@Internal@Core@Math@Palmtree@@
PUBLIC	_CTA2?AVInternalErrorException@Internal@Core@Math@Palmtree@@
PUBLIC	??_R0?AVInternalErrorException@Internal@Core@Math@Palmtree@@@8 ; Palmtree::Math::Core::Internal::InternalErrorException `RTTI Type Descriptor'
PUBLIC	_CT??_R0?AVInternalErrorException@Internal@Core@Math@Palmtree@@@8??0InternalErrorException@Internal@Core@Math@Palmtree@@QEAA@AEBV01234@@Z48
PUBLIC	??_R0?AVException@Internal@Core@Math@Palmtree@@@8 ; Palmtree::Math::Core::Internal::Exception `RTTI Type Descriptor'
PUBLIC	_CT??_R0?AVException@Internal@Core@Math@Palmtree@@@8??0Exception@Internal@Core@Math@Palmtree@@QEAA@AEBV01234@@Z48
PUBLIC	??_C@_1CG@CNOPPENL@?$PP?$II?$AA?$BP?$AAW?$AAf?$AAD?$AAj?$AAD?$PP?$LD?$PP?$PM?$PP?I?$AAk?$AA0?$AAT?$AAW?$AA?$HO@ ; `string'
PUBLIC	??_C@_1CM@CADFJOJJ@?$AAp?$AAc?$AAm?$AA_?$AAa?$AAd?$AAd?$AA?4?$AAc?$AAp?$AAp?$AA?$DL?$AAD?$AAo?$AAC@ ; `string'
PUBLIC	??_C@_1BM@FCPAHMHB@?$PP?$IF?$PP?h?$PP?$KI?$PP?i?$PP?$PM?$AAL?$AAz?$AA?$BP?$AAW?$AA?$HO?$AAW?$AA_?$AA?$AC@ ; `string'
PUBLIC	??_C@_1DE@FNNDGJIA@?$AAp?$AAm?$AAc?$AA_?$AAa?$AAd?$AAd?$AA?4?$AAc?$AAp?$AAp?$AA?$DL?$AAP?$AAM?$AAC@ ; `string'
PUBLIC	_TI2?AVArgumentNullException@Internal@Core@Math@Palmtree@@
PUBLIC	_CTA2?AVArgumentNullException@Internal@Core@Math@Palmtree@@
PUBLIC	??_R0?AVArgumentNullException@Internal@Core@Math@Palmtree@@@8 ; Palmtree::Math::Core::Internal::ArgumentNullException `RTTI Type Descriptor'
PUBLIC	_CT??_R0?AVArgumentNullException@Internal@Core@Math@Palmtree@@@8??0ArgumentNullException@Internal@Core@Math@Palmtree@@QEAA@AEBV01234@@Z48
PUBLIC	??_C@_13JAOPNPKD@?$AAv@				; `string'
PUBLIC	??_C@_1CK@ECFIEPAC@?$AA?$BF?$AAp?$AAk?$AAn?$AAu?$AAl?$AAl?$AAp?$AAt?$AAr?$AAL?$AA?$AO?$AAH?$PP?$IJ?$PP?$IM@ ; `string'
PUBLIC	??_C@_1DE@HKHPPJKG@?$AAp?$AAm?$AAc?$AA_?$AAa?$AAd?$AAd?$AA?4?$AAc?$AAp?$AAp?$AA?$DL?$AAP?$AAM?$AAC@ ; `string'
PUBLIC	??_C@_13ICFKHAEN@?$AAu@				; `string'
PUBLIC	??_C@_1DE@MFHABOJA@?$AAp?$AAm?$AAc?$AA_?$AAa?$AAd?$AAd?$AA?4?$AAc?$AAp?$AAp?$AA?$DL?$AAP?$AAM?$AAC@ ; `string'
PUBLIC	??_C@_1DE@DCJPPHMC@?$AAp?$AAm?$AAc?$AA_?$AAa?$AAd?$AAd?$AA?4?$AAc?$AAp?$AAp?$AA?$DL?$AAP?$AAM?$AAC@ ; `string'
PUBLIC	??_R4exception@std@@6B@				; std::exception::`RTTI Complete Object Locator'
PUBLIC	??_R0?AVexception@std@@@8			; std::exception `RTTI Type Descriptor'
PUBLIC	??_R3exception@std@@8				; std::exception::`RTTI Class Hierarchy Descriptor'
PUBLIC	??_R2exception@std@@8				; std::exception::`RTTI Base Class Array'
PUBLIC	??_R1A@?0A@EA@exception@std@@8			; std::exception::`RTTI Base Class Descriptor at (0,-1,0,64)'
PUBLIC	??_R4Exception@Internal@Core@Math@Palmtree@@6B@	; Palmtree::Math::Core::Internal::Exception::`RTTI Complete Object Locator'
PUBLIC	??_R3Exception@Internal@Core@Math@Palmtree@@8	; Palmtree::Math::Core::Internal::Exception::`RTTI Class Hierarchy Descriptor'
PUBLIC	??_R2Exception@Internal@Core@Math@Palmtree@@8	; Palmtree::Math::Core::Internal::Exception::`RTTI Base Class Array'
PUBLIC	??_R1A@?0A@EA@Exception@Internal@Core@Math@Palmtree@@8 ; Palmtree::Math::Core::Internal::Exception::`RTTI Base Class Descriptor at (0,-1,0,64)'
PUBLIC	??_R1A@?0A@EN@exception@std@@8			; std::exception::`RTTI Base Class Descriptor at (0,-1,0,77)'
PUBLIC	??_R4ArgumentNullException@Internal@Core@Math@Palmtree@@6B@ ; Palmtree::Math::Core::Internal::ArgumentNullException::`RTTI Complete Object Locator'
PUBLIC	??_R3ArgumentNullException@Internal@Core@Math@Palmtree@@8 ; Palmtree::Math::Core::Internal::ArgumentNullException::`RTTI Class Hierarchy Descriptor'
PUBLIC	??_R2ArgumentNullException@Internal@Core@Math@Palmtree@@8 ; Palmtree::Math::Core::Internal::ArgumentNullException::`RTTI Base Class Array'
PUBLIC	??_R1A@?0A@EA@ArgumentNullException@Internal@Core@Math@Palmtree@@8 ; Palmtree::Math::Core::Internal::ArgumentNullException::`RTTI Base Class Descriptor at (0,-1,0,64)'
PUBLIC	??_R4InternalErrorException@Internal@Core@Math@Palmtree@@6B@ ; Palmtree::Math::Core::Internal::InternalErrorException::`RTTI Complete Object Locator'
PUBLIC	??_R3InternalErrorException@Internal@Core@Math@Palmtree@@8 ; Palmtree::Math::Core::Internal::InternalErrorException::`RTTI Class Hierarchy Descriptor'
PUBLIC	??_R2InternalErrorException@Internal@Core@Math@Palmtree@@8 ; Palmtree::Math::Core::Internal::InternalErrorException::`RTTI Base Class Array'
PUBLIC	??_R1A@?0A@EA@InternalErrorException@Internal@Core@Math@Palmtree@@8 ; Palmtree::Math::Core::Internal::InternalErrorException::`RTTI Base Class Descriptor at (0,-1,0,64)'
EXTRN	??3@YAXPEAX_K@Z:PROC				; operator delete
EXTRN	__std_exception_destroy:PROC
EXTRN	??_Eexception@std@@UEAAPEAXI@Z:PROC		; std::exception::`vector deleting destructor'
EXTRN	??_EException@Internal@Core@Math@Palmtree@@UEAAPEAXI@Z:PROC ; Palmtree::Math::Core::Internal::Exception::`vector deleting destructor'
EXTRN	??_EArgumentNullException@Internal@Core@Math@Palmtree@@UEAAPEAXI@Z:PROC ; Palmtree::Math::Core::Internal::ArgumentNullException::`vector deleting destructor'
EXTRN	??_EInternalErrorException@Internal@Core@Math@Palmtree@@UEAAPEAXI@Z:PROC ; Palmtree::Math::Core::Internal::InternalErrorException::`vector deleting destructor'
EXTRN	?CommitNumber@Internal@Core@Math@Palmtree@@YAXPEAU__tag_NUMBER_HEADER@1234@@Z:PROC ; Palmtree::Math::Core::Internal::CommitNumber
EXTRN	?CheckNumber@Internal@Core@Math@Palmtree@@YAXPEAU__tag_NUMBER_HEADER@1234@@Z:PROC ; Palmtree::Math::Core::Internal::CheckNumber
EXTRN	?DuplicateNumber@Internal@Core@Math@Palmtree@@YAPEAU__tag_NUMBER_HEADER@1234@PEAU51234@@Z:PROC ; Palmtree::Math::Core::Internal::DuplicateNumber
EXTRN	?From_I_Imp@Internal@Core@Math@Palmtree@@YAPEAU__tag_NUMBER_HEADER@1234@I@Z:PROC ; Palmtree::Math::Core::Internal::From_I_Imp
EXTRN	?From_L_Imp@Internal@Core@Math@Palmtree@@YAPEAU__tag_NUMBER_HEADER@1234@_K@Z:PROC ; Palmtree::Math::Core::Internal::From_L_Imp
EXTRN	??0ResourceHolderUINT@Internal@Core@Math@Palmtree@@QEAA@XZ:PROC ; Palmtree::Math::Core::Internal::ResourceHolderUINT::ResourceHolderUINT
EXTRN	??1ResourceHolderUINT@Internal@Core@Math@Palmtree@@UEAA@XZ:PROC ; Palmtree::Math::Core::Internal::ResourceHolderUINT::~ResourceHolderUINT
EXTRN	?AllocateNumber@ResourceHolderUINT@Internal@Core@Math@Palmtree@@QEAAPEAU__tag_NUMBER_HEADER@2345@_K@Z:PROC ; Palmtree::Math::Core::Internal::ResourceHolderUINT::AllocateNumber
EXTRN	?HookNumber@ResourceHolderUINT@Internal@Core@Math@Palmtree@@QEAAXPEAU__tag_NUMBER_HEADER@2345@@Z:PROC ; Palmtree::Math::Core::Internal::ResourceHolderUINT::HookNumber
EXTRN	?CheckNumber@ResourceHolderUINT@Internal@Core@Math@Palmtree@@QEAAXPEAU__tag_NUMBER_HEADER@2345@@Z:PROC ; Palmtree::Math::Core::Internal::ResourceHolderUINT::CheckNumber
EXTRN	?UnlinkNumber@ResourceHolderUINT@Internal@Core@Math@Palmtree@@QEAAXPEAU__tag_NUMBER_HEADER@2345@@Z:PROC ; Palmtree::Math::Core::Internal::ResourceHolderUINT::UnlinkNumber
EXTRN	_CxxThrowException:PROC
EXTRN	_RTC_CheckStackVars:PROC
EXTRN	_RTC_InitBase:PROC
EXTRN	_RTC_Shutdown:PROC
EXTRN	__CheckForDebuggerJustMyCode:PROC
EXTRN	__CxxFrameHandler3:PROC
EXTRN	?number_zero@Internal@Core@Math@Palmtree@@3U__tag_NUMBER_HEADER@1234@A:BYTE ; Palmtree::Math::Core::Internal::number_zero
EXTRN	??_7type_info@@6B@:BYTE				; type_info::`vftable'
_BSS	SEGMENT
?fp_Add_Imp@Internal@Core@Math@Palmtree@@3P6AXPEA_K_K0101@ZEA DQ 01H DUP (?) ; Palmtree::Math::Core::Internal::fp_Add_Imp
_BSS	ENDS
;	COMDAT pdata
pdata	SEGMENT
$pdata$??0exception@std@@QEAA@XZ DD imagerel $LN3
	DD	imagerel $LN3+123
	DD	imagerel $unwind$??0exception@std@@QEAA@XZ
pdata	ENDS
;	COMDAT pdata
pdata	SEGMENT
$pdata$??1exception@std@@UEAA@XZ DD imagerel $LN3
	DD	imagerel $LN3+113
	DD	imagerel $unwind$??1exception@std@@UEAA@XZ
pdata	ENDS
;	COMDAT pdata
pdata	SEGMENT
$pdata$?what@exception@std@@UEBAPEBDXZ DD imagerel $LN5
	DD	imagerel $LN5+119
	DD	imagerel $unwind$?what@exception@std@@UEBAPEBDXZ
pdata	ENDS
;	COMDAT pdata
pdata	SEGMENT
$pdata$??_Gexception@std@@UEAAPEAXI@Z DD imagerel $LN4
	DD	imagerel $LN4+105
	DD	imagerel $unwind$??_Gexception@std@@UEAAPEAXI@Z
pdata	ENDS
;	COMDAT pdata
pdata	SEGMENT
$pdata$??0Exception@Internal@Core@Math@Palmtree@@IEAA@HPEB_W0@Z DD imagerel $LN4
	DD	imagerel $LN4+179
	DD	imagerel $unwind$??0Exception@Internal@Core@Math@Palmtree@@IEAA@HPEB_W0@Z
pdata	ENDS
;	COMDAT pdata
pdata	SEGMENT
$pdata$?dtor$0@?0???0Exception@Internal@Core@Math@Palmtree@@IEAA@HPEB_W0@Z@4HA DD imagerel ?dtor$0@?0???0Exception@Internal@Core@Math@Palmtree@@IEAA@HPEB_W0@Z@4HA
	DD	imagerel ?dtor$0@?0???0Exception@Internal@Core@Math@Palmtree@@IEAA@HPEB_W0@Z@4HA+39
	DD	imagerel $unwind$?dtor$0@?0???0Exception@Internal@Core@Math@Palmtree@@IEAA@HPEB_W0@Z@4HA
pdata	ENDS
;	COMDAT pdata
pdata	SEGMENT
$pdata$??0Exception@Internal@Core@Math@Palmtree@@QEAA@AEBV01234@@Z DD imagerel $LN4
	DD	imagerel $LN4+182
	DD	imagerel $unwind$??0Exception@Internal@Core@Math@Palmtree@@QEAA@AEBV01234@@Z
pdata	ENDS
;	COMDAT pdata
pdata	SEGMENT
$pdata$?dtor$0@?0???0Exception@Internal@Core@Math@Palmtree@@QEAA@AEBV01234@@Z@4HA DD imagerel ?dtor$0@?0???0Exception@Internal@Core@Math@Palmtree@@QEAA@AEBV01234@@Z@4HA
	DD	imagerel ?dtor$0@?0???0Exception@Internal@Core@Math@Palmtree@@QEAA@AEBV01234@@Z@4HA+39
	DD	imagerel $unwind$?dtor$0@?0???0Exception@Internal@Core@Math@Palmtree@@QEAA@AEBV01234@@Z@4HA
pdata	ENDS
;	COMDAT pdata
pdata	SEGMENT
$pdata$??1Exception@Internal@Core@Math@Palmtree@@UEAA@XZ DD imagerel $LN4
	DD	imagerel $LN4+106
	DD	imagerel $unwind$??1Exception@Internal@Core@Math@Palmtree@@UEAA@XZ
pdata	ENDS
;	COMDAT pdata
pdata	SEGMENT
$pdata$?dtor$0@?0???1Exception@Internal@Core@Math@Palmtree@@UEAA@XZ@4HA DD imagerel ?dtor$0@?0???1Exception@Internal@Core@Math@Palmtree@@UEAA@XZ@4HA
	DD	imagerel ?dtor$0@?0???1Exception@Internal@Core@Math@Palmtree@@UEAA@XZ@4HA+39
	DD	imagerel $unwind$?dtor$0@?0???1Exception@Internal@Core@Math@Palmtree@@UEAA@XZ@4HA
pdata	ENDS
;	COMDAT pdata
pdata	SEGMENT
$pdata$??_GException@Internal@Core@Math@Palmtree@@UEAAPEAXI@Z DD imagerel $LN4
	DD	imagerel $LN4+105
	DD	imagerel $unwind$??_GException@Internal@Core@Math@Palmtree@@UEAAPEAXI@Z
pdata	ENDS
;	COMDAT pdata
pdata	SEGMENT
$pdata$??0ArgumentNullException@Internal@Core@Math@Palmtree@@QEAA@PEB_W0@Z DD imagerel $LN4
	DD	imagerel $LN4+142
	DD	imagerel $unwind$??0ArgumentNullException@Internal@Core@Math@Palmtree@@QEAA@PEB_W0@Z
pdata	ENDS
;	COMDAT pdata
pdata	SEGMENT
$pdata$?dtor$0@?0???0ArgumentNullException@Internal@Core@Math@Palmtree@@QEAA@PEB_W0@Z@4HA DD imagerel ?dtor$0@?0???0ArgumentNullException@Internal@Core@Math@Palmtree@@QEAA@PEB_W0@Z@4HA
	DD	imagerel ?dtor$0@?0???0ArgumentNullException@Internal@Core@Math@Palmtree@@QEAA@PEB_W0@Z@4HA+39
	DD	imagerel $unwind$?dtor$0@?0???0ArgumentNullException@Internal@Core@Math@Palmtree@@QEAA@PEB_W0@Z@4HA
pdata	ENDS
;	COMDAT pdata
pdata	SEGMENT
$pdata$??0ArgumentNullException@Internal@Core@Math@Palmtree@@QEAA@AEBV01234@@Z DD imagerel $LN4
	DD	imagerel $LN4+125
	DD	imagerel $unwind$??0ArgumentNullException@Internal@Core@Math@Palmtree@@QEAA@AEBV01234@@Z
pdata	ENDS
;	COMDAT pdata
pdata	SEGMENT
$pdata$?dtor$0@?0???0ArgumentNullException@Internal@Core@Math@Palmtree@@QEAA@AEBV01234@@Z@4HA DD imagerel ?dtor$0@?0???0ArgumentNullException@Internal@Core@Math@Palmtree@@QEAA@AEBV01234@@Z@4HA
	DD	imagerel ?dtor$0@?0???0ArgumentNullException@Internal@Core@Math@Palmtree@@QEAA@AEBV01234@@Z@4HA+39
	DD	imagerel $unwind$?dtor$0@?0???0ArgumentNullException@Internal@Core@Math@Palmtree@@QEAA@AEBV01234@@Z@4HA
pdata	ENDS
;	COMDAT pdata
pdata	SEGMENT
$pdata$??1ArgumentNullException@Internal@Core@Math@Palmtree@@UEAA@XZ DD imagerel $LN4
	DD	imagerel $LN4+106
	DD	imagerel $unwind$??1ArgumentNullException@Internal@Core@Math@Palmtree@@UEAA@XZ
pdata	ENDS
;	COMDAT pdata
pdata	SEGMENT
$pdata$?dtor$0@?0???1ArgumentNullException@Internal@Core@Math@Palmtree@@UEAA@XZ@4HA DD imagerel ?dtor$0@?0???1ArgumentNullException@Internal@Core@Math@Palmtree@@UEAA@XZ@4HA
	DD	imagerel ?dtor$0@?0???1ArgumentNullException@Internal@Core@Math@Palmtree@@UEAA@XZ@4HA+39
	DD	imagerel $unwind$?dtor$0@?0???1ArgumentNullException@Internal@Core@Math@Palmtree@@UEAA@XZ@4HA
pdata	ENDS
;	COMDAT pdata
pdata	SEGMENT
$pdata$??_GArgumentNullException@Internal@Core@Math@Palmtree@@UEAAPEAXI@Z DD imagerel $LN4
	DD	imagerel $LN4+105
	DD	imagerel $unwind$??_GArgumentNullException@Internal@Core@Math@Palmtree@@UEAAPEAXI@Z
pdata	ENDS
;	COMDAT pdata
pdata	SEGMENT
$pdata$??0InternalErrorException@Internal@Core@Math@Palmtree@@QEAA@PEB_W0@Z DD imagerel $LN4
	DD	imagerel $LN4+142
	DD	imagerel $unwind$??0InternalErrorException@Internal@Core@Math@Palmtree@@QEAA@PEB_W0@Z
pdata	ENDS
;	COMDAT pdata
pdata	SEGMENT
$pdata$?dtor$0@?0???0InternalErrorException@Internal@Core@Math@Palmtree@@QEAA@PEB_W0@Z@4HA DD imagerel ?dtor$0@?0???0InternalErrorException@Internal@Core@Math@Palmtree@@QEAA@PEB_W0@Z@4HA
	DD	imagerel ?dtor$0@?0???0InternalErrorException@Internal@Core@Math@Palmtree@@QEAA@PEB_W0@Z@4HA+39
	DD	imagerel $unwind$?dtor$0@?0???0InternalErrorException@Internal@Core@Math@Palmtree@@QEAA@PEB_W0@Z@4HA
pdata	ENDS
;	COMDAT pdata
pdata	SEGMENT
$pdata$??0InternalErrorException@Internal@Core@Math@Palmtree@@QEAA@AEBV01234@@Z DD imagerel $LN4
	DD	imagerel $LN4+125
	DD	imagerel $unwind$??0InternalErrorException@Internal@Core@Math@Palmtree@@QEAA@AEBV01234@@Z
pdata	ENDS
;	COMDAT pdata
pdata	SEGMENT
$pdata$?dtor$0@?0???0InternalErrorException@Internal@Core@Math@Palmtree@@QEAA@AEBV01234@@Z@4HA DD imagerel ?dtor$0@?0???0InternalErrorException@Internal@Core@Math@Palmtree@@QEAA@AEBV01234@@Z@4HA
	DD	imagerel ?dtor$0@?0???0InternalErrorException@Internal@Core@Math@Palmtree@@QEAA@AEBV01234@@Z@4HA+39
	DD	imagerel $unwind$?dtor$0@?0???0InternalErrorException@Internal@Core@Math@Palmtree@@QEAA@AEBV01234@@Z@4HA
pdata	ENDS
;	COMDAT pdata
pdata	SEGMENT
$pdata$??1InternalErrorException@Internal@Core@Math@Palmtree@@UEAA@XZ DD imagerel $LN4
	DD	imagerel $LN4+106
	DD	imagerel $unwind$??1InternalErrorException@Internal@Core@Math@Palmtree@@UEAA@XZ
pdata	ENDS
;	COMDAT pdata
pdata	SEGMENT
$pdata$?dtor$0@?0???1InternalErrorException@Internal@Core@Math@Palmtree@@UEAA@XZ@4HA DD imagerel ?dtor$0@?0???1InternalErrorException@Internal@Core@Math@Palmtree@@UEAA@XZ@4HA
	DD	imagerel ?dtor$0@?0???1InternalErrorException@Internal@Core@Math@Palmtree@@UEAA@XZ@4HA+39
	DD	imagerel $unwind$?dtor$0@?0???1InternalErrorException@Internal@Core@Math@Palmtree@@UEAA@XZ@4HA
pdata	ENDS
;	COMDAT pdata
pdata	SEGMENT
$pdata$??_GInternalErrorException@Internal@Core@Math@Palmtree@@UEAAPEAXI@Z DD imagerel $LN4
	DD	imagerel $LN4+105
	DD	imagerel $unwind$??_GInternalErrorException@Internal@Core@Math@Palmtree@@UEAAPEAXI@Z
pdata	ENDS
;	COMDAT pdata
pdata	SEGMENT
$pdata$?PMC_Add_X_X_Imp@Internal@Core@Math@Palmtree@@YAPEAU__tag_NUMBER_HEADER@1234@PEAU51234@0@Z DD imagerel $LN10
	DD	imagerel $LN10+467
	DD	imagerel $unwind$?PMC_Add_X_X_Imp@Internal@Core@Math@Palmtree@@YAPEAU__tag_NUMBER_HEADER@1234@PEAU51234@0@Z
pdata	ENDS
;	COMDAT pdata
pdata	SEGMENT
$pdata$?dtor$0@?0??PMC_Add_X_X_Imp@Internal@Core@Math@Palmtree@@YAPEAU__tag_NUMBER_HEADER@1234@PEAU51234@0@Z@4HA DD imagerel ?dtor$0@?0??PMC_Add_X_X_Imp@Internal@Core@Math@Palmtree@@YAPEAU__tag_NUMBER_HEADER@1234@PEAU51234@0@Z@4HA
	DD	imagerel ?dtor$0@?0??PMC_Add_X_X_Imp@Internal@Core@Math@Palmtree@@YAPEAU__tag_NUMBER_HEADER@1234@PEAU51234@0@Z@4HA+36
	DD	imagerel $unwind$?dtor$0@?0??PMC_Add_X_X_Imp@Internal@Core@Math@Palmtree@@YAPEAU__tag_NUMBER_HEADER@1234@PEAU51234@0@Z@4HA
pdata	ENDS
;	COMDAT pdata
pdata	SEGMENT
$pdata$?Initialize_Add@Internal@Core@Math@Palmtree@@YAHPEAU_tag_PROCESSOR_FEATURES@1234@@Z DD imagerel $LN5
	DD	imagerel $LN5+128
	DD	imagerel $unwind$?Initialize_Add@Internal@Core@Math@Palmtree@@YAHPEAU_tag_PROCESSOR_FEATURES@1234@@Z
pdata	ENDS
;	COMDAT pdata
pdata	SEGMENT
$pdata$?PMC_Add_I_X@Internal@Core@Math@Palmtree@@YAPEAU__tag_PMC_HANDLE_UINT@1234@IPEAU51234@@Z DD imagerel $LN7
	DD	imagerel $LN7+312
	DD	imagerel $unwind$?PMC_Add_I_X@Internal@Core@Math@Palmtree@@YAPEAU__tag_PMC_HANDLE_UINT@1234@IPEAU51234@@Z
pdata	ENDS
;	COMDAT pdata
pdata	SEGMENT
$pdata$?dtor$0@?0??PMC_Add_I_X@Internal@Core@Math@Palmtree@@YAPEAU__tag_PMC_HANDLE_UINT@1234@IPEAU51234@@Z@4HA DD imagerel ?dtor$0@?0??PMC_Add_I_X@Internal@Core@Math@Palmtree@@YAPEAU__tag_PMC_HANDLE_UINT@1234@IPEAU51234@@Z@4HA
	DD	imagerel ?dtor$0@?0??PMC_Add_I_X@Internal@Core@Math@Palmtree@@YAPEAU__tag_PMC_HANDLE_UINT@1234@IPEAU51234@@Z@4HA+36
	DD	imagerel $unwind$?dtor$0@?0??PMC_Add_I_X@Internal@Core@Math@Palmtree@@YAPEAU__tag_PMC_HANDLE_UINT@1234@IPEAU51234@@Z@4HA
pdata	ENDS
;	COMDAT pdata
pdata	SEGMENT
$pdata$?PMC_Add_L_X@Internal@Core@Math@Palmtree@@YAPEAU__tag_PMC_HANDLE_UINT@1234@_KPEAU51234@@Z DD imagerel $LN7
	DD	imagerel $LN7+315
	DD	imagerel $unwind$?PMC_Add_L_X@Internal@Core@Math@Palmtree@@YAPEAU__tag_PMC_HANDLE_UINT@1234@_KPEAU51234@@Z
pdata	ENDS
;	COMDAT pdata
pdata	SEGMENT
$pdata$?dtor$0@?0??PMC_Add_L_X@Internal@Core@Math@Palmtree@@YAPEAU__tag_PMC_HANDLE_UINT@1234@_KPEAU51234@@Z@4HA DD imagerel ?dtor$0@?0??PMC_Add_L_X@Internal@Core@Math@Palmtree@@YAPEAU__tag_PMC_HANDLE_UINT@1234@_KPEAU51234@@Z@4HA
	DD	imagerel ?dtor$0@?0??PMC_Add_L_X@Internal@Core@Math@Palmtree@@YAPEAU__tag_PMC_HANDLE_UINT@1234@_KPEAU51234@@Z@4HA+36
	DD	imagerel $unwind$?dtor$0@?0??PMC_Add_L_X@Internal@Core@Math@Palmtree@@YAPEAU__tag_PMC_HANDLE_UINT@1234@_KPEAU51234@@Z@4HA
pdata	ENDS
;	COMDAT pdata
pdata	SEGMENT
$pdata$?PMC_Add_X_I@Internal@Core@Math@Palmtree@@YAPEAU__tag_PMC_HANDLE_UINT@1234@PEAU51234@I@Z DD imagerel $LN7
	DD	imagerel $LN7+313
	DD	imagerel $unwind$?PMC_Add_X_I@Internal@Core@Math@Palmtree@@YAPEAU__tag_PMC_HANDLE_UINT@1234@PEAU51234@I@Z
pdata	ENDS
;	COMDAT pdata
pdata	SEGMENT
$pdata$?dtor$0@?0??PMC_Add_X_I@Internal@Core@Math@Palmtree@@YAPEAU__tag_PMC_HANDLE_UINT@1234@PEAU51234@I@Z@4HA DD imagerel ?dtor$0@?0??PMC_Add_X_I@Internal@Core@Math@Palmtree@@YAPEAU__tag_PMC_HANDLE_UINT@1234@PEAU51234@I@Z@4HA
	DD	imagerel ?dtor$0@?0??PMC_Add_X_I@Internal@Core@Math@Palmtree@@YAPEAU__tag_PMC_HANDLE_UINT@1234@PEAU51234@I@Z@4HA+36
	DD	imagerel $unwind$?dtor$0@?0??PMC_Add_X_I@Internal@Core@Math@Palmtree@@YAPEAU__tag_PMC_HANDLE_UINT@1234@PEAU51234@I@Z@4HA
pdata	ENDS
;	COMDAT pdata
pdata	SEGMENT
$pdata$?PMC_Add_X_L@Internal@Core@Math@Palmtree@@YAPEAU__tag_PMC_HANDLE_UINT@1234@PEAU51234@_K@Z DD imagerel $LN7
	DD	imagerel $LN7+315
	DD	imagerel $unwind$?PMC_Add_X_L@Internal@Core@Math@Palmtree@@YAPEAU__tag_PMC_HANDLE_UINT@1234@PEAU51234@_K@Z
pdata	ENDS
;	COMDAT pdata
pdata	SEGMENT
$pdata$?dtor$0@?0??PMC_Add_X_L@Internal@Core@Math@Palmtree@@YAPEAU__tag_PMC_HANDLE_UINT@1234@PEAU51234@_K@Z@4HA DD imagerel ?dtor$0@?0??PMC_Add_X_L@Internal@Core@Math@Palmtree@@YAPEAU__tag_PMC_HANDLE_UINT@1234@PEAU51234@_K@Z@4HA
	DD	imagerel ?dtor$0@?0??PMC_Add_X_L@Internal@Core@Math@Palmtree@@YAPEAU__tag_PMC_HANDLE_UINT@1234@PEAU51234@_K@Z@4HA+36
	DD	imagerel $unwind$?dtor$0@?0??PMC_Add_X_L@Internal@Core@Math@Palmtree@@YAPEAU__tag_PMC_HANDLE_UINT@1234@PEAU51234@_K@Z@4HA
pdata	ENDS
;	COMDAT pdata
pdata	SEGMENT
$pdata$?PMC_Add_X_X@Internal@Core@Math@Palmtree@@YAPEAU__tag_PMC_HANDLE_UINT@1234@PEAU51234@0@Z DD imagerel $LN7
	DD	imagerel $LN7+331
	DD	imagerel $unwind$?PMC_Add_X_X@Internal@Core@Math@Palmtree@@YAPEAU__tag_PMC_HANDLE_UINT@1234@PEAU51234@0@Z
pdata	ENDS
;	COMDAT pdata
pdata	SEGMENT
$pdata$?dtor$0@?0??PMC_Add_X_X@Internal@Core@Math@Palmtree@@YAPEAU__tag_PMC_HANDLE_UINT@1234@PEAU51234@0@Z@4HA DD imagerel ?dtor$0@?0??PMC_Add_X_X@Internal@Core@Math@Palmtree@@YAPEAU__tag_PMC_HANDLE_UINT@1234@PEAU51234@0@Z@4HA
	DD	imagerel ?dtor$0@?0??PMC_Add_X_X@Internal@Core@Math@Palmtree@@YAPEAU__tag_PMC_HANDLE_UINT@1234@PEAU51234@0@Z@4HA+36
	DD	imagerel $unwind$?dtor$0@?0??PMC_Add_X_X@Internal@Core@Math@Palmtree@@YAPEAU__tag_PMC_HANDLE_UINT@1234@PEAU51234@0@Z@4HA
pdata	ENDS
;	COMDAT pdata
pdata	SEGMENT
$pdata$_FROMDWORDTOWORD DD imagerel _FROMDWORDTOWORD
	DD	imagerel _FROMDWORDTOWORD+95
	DD	imagerel $unwind$_FROMDWORDTOWORD
pdata	ENDS
;	COMDAT pdata
pdata	SEGMENT
$pdata$_MAXIMUM_UNIT DD imagerel _MAXIMUM_UNIT
	DD	imagerel _MAXIMUM_UNIT+122
	DD	imagerel $unwind$_MAXIMUM_UNIT
pdata	ENDS
;	COMDAT pdata
pdata	SEGMENT
$pdata$_ADD_UNIT DD imagerel _ADD_UNIT
	DD	imagerel _ADD_UNIT+118
	DD	imagerel $unwind$_ADD_UNIT
pdata	ENDS
;	COMDAT pdata
pdata	SEGMENT
$pdata$_ADDX_UNIT DD imagerel _ADDX_UNIT
	DD	imagerel _ADDX_UNIT+121
	DD	imagerel $unwind$_ADDX_UNIT
pdata	ENDS
;	COMDAT pdata
pdata	SEGMENT
$pdata$_LZCNT_ALT_32 DD imagerel _LZCNT_ALT_32
	DD	imagerel _LZCNT_ALT_32+126
	DD	imagerel $unwind$_LZCNT_ALT_32
pdata	ENDS
;	COMDAT pdata
pdata	SEGMENT
$pdata$_LZCNT_ALT_UNIT DD imagerel _LZCNT_ALT_UNIT
	DD	imagerel _LZCNT_ALT_UNIT+131
	DD	imagerel $unwind$_LZCNT_ALT_UNIT
pdata	ENDS
;	COMDAT pdata
pdata	SEGMENT
$pdata$_ADD_32WORDS_ADC DD imagerel _ADD_32WORDS_ADC
	DD	imagerel _ADD_32WORDS_ADC+2741
	DD	imagerel $unwind$_ADD_32WORDS_ADC
pdata	ENDS
;	COMDAT pdata
pdata	SEGMENT
$pdata$_ADD_32WORDS_ADCX DD imagerel _ADD_32WORDS_ADCX
	DD	imagerel _ADD_32WORDS_ADCX+2741
	DD	imagerel $unwind$_ADD_32WORDS_ADCX
pdata	ENDS
;	COMDAT pdata
pdata	SEGMENT
$pdata$_ADD_16WORDS_ADC DD imagerel _ADD_16WORDS_ADC
	DD	imagerel _ADD_16WORDS_ADC+1413
	DD	imagerel $unwind$_ADD_16WORDS_ADC
pdata	ENDS
;	COMDAT pdata
pdata	SEGMENT
$pdata$_ADD_16WORDS_ADCX DD imagerel _ADD_16WORDS_ADCX
	DD	imagerel _ADD_16WORDS_ADCX+1413
	DD	imagerel $unwind$_ADD_16WORDS_ADCX
pdata	ENDS
;	COMDAT pdata
pdata	SEGMENT
$pdata$_ADD_8WORDS_ADC DD imagerel _ADD_8WORDS_ADC
	DD	imagerel _ADD_8WORDS_ADC+749
	DD	imagerel $unwind$_ADD_8WORDS_ADC
pdata	ENDS
;	COMDAT pdata
pdata	SEGMENT
$pdata$_ADD_8WORDS_ADCX DD imagerel _ADD_8WORDS_ADCX
	DD	imagerel _ADD_8WORDS_ADCX+749
	DD	imagerel $unwind$_ADD_8WORDS_ADCX
pdata	ENDS
;	COMDAT pdata
pdata	SEGMENT
$pdata$_ADD_4WORDS_ADC DD imagerel _ADD_4WORDS_ADC
	DD	imagerel _ADD_4WORDS_ADC+417
	DD	imagerel $unwind$_ADD_4WORDS_ADC
pdata	ENDS
;	COMDAT pdata
pdata	SEGMENT
$pdata$_ADD_4WORDS_ADCX DD imagerel _ADD_4WORDS_ADCX
	DD	imagerel _ADD_4WORDS_ADCX+417
	DD	imagerel $unwind$_ADD_4WORDS_ADCX
pdata	ENDS
;	COMDAT pdata
pdata	SEGMENT
$pdata$_ADD_2WORDS_ADC DD imagerel _ADD_2WORDS_ADC
	DD	imagerel _ADD_2WORDS_ADC+251
	DD	imagerel $unwind$_ADD_2WORDS_ADC
pdata	ENDS
;	COMDAT pdata
pdata	SEGMENT
$pdata$_ADD_2WORDS_ADCX DD imagerel _ADD_2WORDS_ADCX
	DD	imagerel _ADD_2WORDS_ADCX+251
	DD	imagerel $unwind$_ADD_2WORDS_ADCX
pdata	ENDS
;	COMDAT pdata
pdata	SEGMENT
$pdata$?DoCarry@Internal@Core@Math@Palmtree@@YAXDPEA_K_K01@Z DD imagerel ?DoCarry@Internal@Core@Math@Palmtree@@YAXDPEA_K_K01@Z
	DD	imagerel ?DoCarry@Internal@Core@Math@Palmtree@@YAXDPEA_K_K01@Z+454
	DD	imagerel $unwind$?DoCarry@Internal@Core@Math@Palmtree@@YAXDPEA_K_K01@Z
pdata	ENDS
;	COMDAT pdata
pdata	SEGMENT
$pdata$?Add_X_1W@Internal@Core@Math@Palmtree@@YAXPEA_K_K101@Z DD imagerel ?Add_X_1W@Internal@Core@Math@Palmtree@@YAXPEA_K_K101@Z
	DD	imagerel ?Add_X_1W@Internal@Core@Math@Palmtree@@YAXPEA_K_K101@Z+253
	DD	imagerel $unwind$?Add_X_1W@Internal@Core@Math@Palmtree@@YAXPEA_K_K101@Z
pdata	ENDS
;	COMDAT pdata
pdata	SEGMENT
$pdata$?Add_X_2W@Internal@Core@Math@Palmtree@@YAXPEA_K_K1101@Z DD imagerel ?Add_X_2W@Internal@Core@Math@Palmtree@@YAXPEA_K_K1101@Z
	DD	imagerel ?Add_X_2W@Internal@Core@Math@Palmtree@@YAXPEA_K_K1101@Z+487
	DD	imagerel $unwind$?Add_X_2W@Internal@Core@Math@Palmtree@@YAXPEA_K_K1101@Z
pdata	ENDS
;	COMDAT pdata
pdata	SEGMENT
$pdata$?Add_Imp_using_ADC@Internal@Core@Math@Palmtree@@YAXPEA_K_K0101@Z DD imagerel ?Add_Imp_using_ADC@Internal@Core@Math@Palmtree@@YAXPEA_K_K0101@Z
	DD	imagerel ?Add_Imp_using_ADC@Internal@Core@Math@Palmtree@@YAXPEA_K_K0101@Z+918
	DD	imagerel $unwind$?Add_Imp_using_ADC@Internal@Core@Math@Palmtree@@YAXPEA_K_K0101@Z
pdata	ENDS
;	COMDAT pdata
pdata	SEGMENT
$pdata$?Add_Imp_using_ADCX@Internal@Core@Math@Palmtree@@YAXPEA_K_K0101@Z DD imagerel ?Add_Imp_using_ADCX@Internal@Core@Math@Palmtree@@YAXPEA_K_K0101@Z
	DD	imagerel ?Add_Imp_using_ADCX@Internal@Core@Math@Palmtree@@YAXPEA_K_K0101@Z+918
	DD	imagerel $unwind$?Add_Imp_using_ADCX@Internal@Core@Math@Palmtree@@YAXPEA_K_K0101@Z
pdata	ENDS
;	COMDAT pdata
pdata	SEGMENT
$pdata$?PMC_Add_X_I_Imp@Internal@Core@Math@Palmtree@@YAPEAU__tag_NUMBER_HEADER@1234@PEAU51234@I@Z DD imagerel ?PMC_Add_X_I_Imp@Internal@Core@Math@Palmtree@@YAPEAU__tag_NUMBER_HEADER@1234@PEAU51234@I@Z
	DD	imagerel ?PMC_Add_X_I_Imp@Internal@Core@Math@Palmtree@@YAPEAU__tag_NUMBER_HEADER@1234@PEAU51234@I@Z+429
	DD	imagerel $unwind$?PMC_Add_X_I_Imp@Internal@Core@Math@Palmtree@@YAPEAU__tag_NUMBER_HEADER@1234@PEAU51234@I@Z
pdata	ENDS
;	COMDAT pdata
pdata	SEGMENT
$pdata$?dtor$0@?0??PMC_Add_X_I_Imp@Internal@Core@Math@Palmtree@@YAPEAU__tag_NUMBER_HEADER@1234@PEAU51234@I@Z@4HA DD imagerel ?dtor$0@?0??PMC_Add_X_I_Imp@Internal@Core@Math@Palmtree@@YAPEAU__tag_NUMBER_HEADER@1234@PEAU51234@I@Z@4HA
	DD	imagerel ?dtor$0@?0??PMC_Add_X_I_Imp@Internal@Core@Math@Palmtree@@YAPEAU__tag_NUMBER_HEADER@1234@PEAU51234@I@Z@4HA+36
	DD	imagerel $unwind$?dtor$0@?0??PMC_Add_X_I_Imp@Internal@Core@Math@Palmtree@@YAPEAU__tag_NUMBER_HEADER@1234@PEAU51234@I@Z@4HA
pdata	ENDS
;	COMDAT pdata
pdata	SEGMENT
$pdata$?PMC_Add_X_L_Imp@Internal@Core@Math@Palmtree@@YAPEAU__tag_NUMBER_HEADER@1234@PEAU51234@_K@Z DD imagerel ?PMC_Add_X_L_Imp@Internal@Core@Math@Palmtree@@YAPEAU__tag_NUMBER_HEADER@1234@PEAU51234@_K@Z
	DD	imagerel ?PMC_Add_X_L_Imp@Internal@Core@Math@Palmtree@@YAPEAU__tag_NUMBER_HEADER@1234@PEAU51234@_K@Z+1001
	DD	imagerel $unwind$?PMC_Add_X_L_Imp@Internal@Core@Math@Palmtree@@YAPEAU__tag_NUMBER_HEADER@1234@PEAU51234@_K@Z
pdata	ENDS
;	COMDAT pdata
pdata	SEGMENT
$pdata$?dtor$0@?0??PMC_Add_X_L_Imp@Internal@Core@Math@Palmtree@@YAPEAU__tag_NUMBER_HEADER@1234@PEAU51234@_K@Z@4HA DD imagerel ?dtor$0@?0??PMC_Add_X_L_Imp@Internal@Core@Math@Palmtree@@YAPEAU__tag_NUMBER_HEADER@1234@PEAU51234@_K@Z@4HA
	DD	imagerel ?dtor$0@?0??PMC_Add_X_L_Imp@Internal@Core@Math@Palmtree@@YAPEAU__tag_NUMBER_HEADER@1234@PEAU51234@_K@Z@4HA+36
	DD	imagerel $unwind$?dtor$0@?0??PMC_Add_X_L_Imp@Internal@Core@Math@Palmtree@@YAPEAU__tag_NUMBER_HEADER@1234@PEAU51234@_K@Z@4HA
pdata	ENDS
;	COMDAT pdata
pdata	SEGMENT
$pdata$?dtor$1@?0??PMC_Add_X_L_Imp@Internal@Core@Math@Palmtree@@YAPEAU__tag_NUMBER_HEADER@1234@PEAU51234@_K@Z@4HA DD imagerel ?dtor$1@?0??PMC_Add_X_L_Imp@Internal@Core@Math@Palmtree@@YAPEAU__tag_NUMBER_HEADER@1234@PEAU51234@_K@Z@4HA
	DD	imagerel ?dtor$1@?0??PMC_Add_X_L_Imp@Internal@Core@Math@Palmtree@@YAPEAU__tag_NUMBER_HEADER@1234@PEAU51234@_K@Z@4HA+39
	DD	imagerel $unwind$?dtor$1@?0??PMC_Add_X_L_Imp@Internal@Core@Math@Palmtree@@YAPEAU__tag_NUMBER_HEADER@1234@PEAU51234@_K@Z@4HA
pdata	ENDS
;	COMDAT pdata
pdata	SEGMENT
$pdata$?dtor$2@?0??PMC_Add_X_L_Imp@Internal@Core@Math@Palmtree@@YAPEAU__tag_NUMBER_HEADER@1234@PEAU51234@_K@Z@4HA DD imagerel ?dtor$2@?0??PMC_Add_X_L_Imp@Internal@Core@Math@Palmtree@@YAPEAU__tag_NUMBER_HEADER@1234@PEAU51234@_K@Z@4HA
	DD	imagerel ?dtor$2@?0??PMC_Add_X_L_Imp@Internal@Core@Math@Palmtree@@YAPEAU__tag_NUMBER_HEADER@1234@PEAU51234@_K@Z@4HA+39
	DD	imagerel $unwind$?dtor$2@?0??PMC_Add_X_L_Imp@Internal@Core@Math@Palmtree@@YAPEAU__tag_NUMBER_HEADER@1234@PEAU51234@_K@Z@4HA
pdata	ENDS
;	COMDAT rtc$TMZ
rtc$TMZ	SEGMENT
_RTC_Shutdown.rtc$TMZ DQ FLAT:_RTC_Shutdown
rtc$TMZ	ENDS
;	COMDAT rtc$IMZ
rtc$IMZ	SEGMENT
_RTC_InitBase.rtc$IMZ DQ FLAT:_RTC_InitBase
rtc$IMZ	ENDS
;	COMDAT ??_R1A@?0A@EA@InternalErrorException@Internal@Core@Math@Palmtree@@8
rdata$r	SEGMENT
??_R1A@?0A@EA@InternalErrorException@Internal@Core@Math@Palmtree@@8 DD imagerel ??_R0?AVInternalErrorException@Internal@Core@Math@Palmtree@@@8 ; Palmtree::Math::Core::Internal::InternalErrorException::`RTTI Base Class Descriptor at (0,-1,0,64)'
	DD	02H
	DD	00H
	DD	0ffffffffH
	DD	00H
	DD	040H
	DD	imagerel ??_R3InternalErrorException@Internal@Core@Math@Palmtree@@8
rdata$r	ENDS
;	COMDAT ??_R2InternalErrorException@Internal@Core@Math@Palmtree@@8
rdata$r	SEGMENT
??_R2InternalErrorException@Internal@Core@Math@Palmtree@@8 DD imagerel ??_R1A@?0A@EA@InternalErrorException@Internal@Core@Math@Palmtree@@8 ; Palmtree::Math::Core::Internal::InternalErrorException::`RTTI Base Class Array'
	DD	imagerel ??_R1A@?0A@EA@Exception@Internal@Core@Math@Palmtree@@8
	DD	imagerel ??_R1A@?0A@EN@exception@std@@8
	ORG $+3
rdata$r	ENDS
;	COMDAT ??_R3InternalErrorException@Internal@Core@Math@Palmtree@@8
rdata$r	SEGMENT
??_R3InternalErrorException@Internal@Core@Math@Palmtree@@8 DD 00H ; Palmtree::Math::Core::Internal::InternalErrorException::`RTTI Class Hierarchy Descriptor'
	DD	00H
	DD	03H
	DD	imagerel ??_R2InternalErrorException@Internal@Core@Math@Palmtree@@8
rdata$r	ENDS
;	COMDAT ??_R4InternalErrorException@Internal@Core@Math@Palmtree@@6B@
rdata$r	SEGMENT
??_R4InternalErrorException@Internal@Core@Math@Palmtree@@6B@ DD 01H ; Palmtree::Math::Core::Internal::InternalErrorException::`RTTI Complete Object Locator'
	DD	00H
	DD	00H
	DD	imagerel ??_R0?AVInternalErrorException@Internal@Core@Math@Palmtree@@@8
	DD	imagerel ??_R3InternalErrorException@Internal@Core@Math@Palmtree@@8
	DD	imagerel ??_R4InternalErrorException@Internal@Core@Math@Palmtree@@6B@
rdata$r	ENDS
;	COMDAT ??_R1A@?0A@EA@ArgumentNullException@Internal@Core@Math@Palmtree@@8
rdata$r	SEGMENT
??_R1A@?0A@EA@ArgumentNullException@Internal@Core@Math@Palmtree@@8 DD imagerel ??_R0?AVArgumentNullException@Internal@Core@Math@Palmtree@@@8 ; Palmtree::Math::Core::Internal::ArgumentNullException::`RTTI Base Class Descriptor at (0,-1,0,64)'
	DD	02H
	DD	00H
	DD	0ffffffffH
	DD	00H
	DD	040H
	DD	imagerel ??_R3ArgumentNullException@Internal@Core@Math@Palmtree@@8
rdata$r	ENDS
;	COMDAT ??_R2ArgumentNullException@Internal@Core@Math@Palmtree@@8
rdata$r	SEGMENT
??_R2ArgumentNullException@Internal@Core@Math@Palmtree@@8 DD imagerel ??_R1A@?0A@EA@ArgumentNullException@Internal@Core@Math@Palmtree@@8 ; Palmtree::Math::Core::Internal::ArgumentNullException::`RTTI Base Class Array'
	DD	imagerel ??_R1A@?0A@EA@Exception@Internal@Core@Math@Palmtree@@8
	DD	imagerel ??_R1A@?0A@EN@exception@std@@8
	ORG $+3
rdata$r	ENDS
;	COMDAT ??_R3ArgumentNullException@Internal@Core@Math@Palmtree@@8
rdata$r	SEGMENT
??_R3ArgumentNullException@Internal@Core@Math@Palmtree@@8 DD 00H ; Palmtree::Math::Core::Internal::ArgumentNullException::`RTTI Class Hierarchy Descriptor'
	DD	00H
	DD	03H
	DD	imagerel ??_R2ArgumentNullException@Internal@Core@Math@Palmtree@@8
rdata$r	ENDS
;	COMDAT ??_R4ArgumentNullException@Internal@Core@Math@Palmtree@@6B@
rdata$r	SEGMENT
??_R4ArgumentNullException@Internal@Core@Math@Palmtree@@6B@ DD 01H ; Palmtree::Math::Core::Internal::ArgumentNullException::`RTTI Complete Object Locator'
	DD	00H
	DD	00H
	DD	imagerel ??_R0?AVArgumentNullException@Internal@Core@Math@Palmtree@@@8
	DD	imagerel ??_R3ArgumentNullException@Internal@Core@Math@Palmtree@@8
	DD	imagerel ??_R4ArgumentNullException@Internal@Core@Math@Palmtree@@6B@
rdata$r	ENDS
;	COMDAT ??_R1A@?0A@EN@exception@std@@8
rdata$r	SEGMENT
??_R1A@?0A@EN@exception@std@@8 DD imagerel ??_R0?AVexception@std@@@8 ; std::exception::`RTTI Base Class Descriptor at (0,-1,0,77)'
	DD	00H
	DD	00H
	DD	0ffffffffH
	DD	00H
	DD	04dH
	DD	imagerel ??_R3exception@std@@8
rdata$r	ENDS
;	COMDAT ??_R1A@?0A@EA@Exception@Internal@Core@Math@Palmtree@@8
rdata$r	SEGMENT
??_R1A@?0A@EA@Exception@Internal@Core@Math@Palmtree@@8 DD imagerel ??_R0?AVException@Internal@Core@Math@Palmtree@@@8 ; Palmtree::Math::Core::Internal::Exception::`RTTI Base Class Descriptor at (0,-1,0,64)'
	DD	01H
	DD	00H
	DD	0ffffffffH
	DD	00H
	DD	040H
	DD	imagerel ??_R3Exception@Internal@Core@Math@Palmtree@@8
rdata$r	ENDS
;	COMDAT ??_R2Exception@Internal@Core@Math@Palmtree@@8
rdata$r	SEGMENT
??_R2Exception@Internal@Core@Math@Palmtree@@8 DD imagerel ??_R1A@?0A@EA@Exception@Internal@Core@Math@Palmtree@@8 ; Palmtree::Math::Core::Internal::Exception::`RTTI Base Class Array'
	DD	imagerel ??_R1A@?0A@EN@exception@std@@8
	ORG $+3
rdata$r	ENDS
;	COMDAT ??_R3Exception@Internal@Core@Math@Palmtree@@8
rdata$r	SEGMENT
??_R3Exception@Internal@Core@Math@Palmtree@@8 DD 00H	; Palmtree::Math::Core::Internal::Exception::`RTTI Class Hierarchy Descriptor'
	DD	00H
	DD	02H
	DD	imagerel ??_R2Exception@Internal@Core@Math@Palmtree@@8
rdata$r	ENDS
;	COMDAT ??_R4Exception@Internal@Core@Math@Palmtree@@6B@
rdata$r	SEGMENT
??_R4Exception@Internal@Core@Math@Palmtree@@6B@ DD 01H	; Palmtree::Math::Core::Internal::Exception::`RTTI Complete Object Locator'
	DD	00H
	DD	00H
	DD	imagerel ??_R0?AVException@Internal@Core@Math@Palmtree@@@8
	DD	imagerel ??_R3Exception@Internal@Core@Math@Palmtree@@8
	DD	imagerel ??_R4Exception@Internal@Core@Math@Palmtree@@6B@
rdata$r	ENDS
;	COMDAT ??_R1A@?0A@EA@exception@std@@8
rdata$r	SEGMENT
??_R1A@?0A@EA@exception@std@@8 DD imagerel ??_R0?AVexception@std@@@8 ; std::exception::`RTTI Base Class Descriptor at (0,-1,0,64)'
	DD	00H
	DD	00H
	DD	0ffffffffH
	DD	00H
	DD	040H
	DD	imagerel ??_R3exception@std@@8
rdata$r	ENDS
;	COMDAT ??_R2exception@std@@8
rdata$r	SEGMENT
??_R2exception@std@@8 DD imagerel ??_R1A@?0A@EA@exception@std@@8 ; std::exception::`RTTI Base Class Array'
	ORG $+3
rdata$r	ENDS
;	COMDAT ??_R3exception@std@@8
rdata$r	SEGMENT
??_R3exception@std@@8 DD 00H				; std::exception::`RTTI Class Hierarchy Descriptor'
	DD	00H
	DD	01H
	DD	imagerel ??_R2exception@std@@8
rdata$r	ENDS
;	COMDAT ??_R0?AVexception@std@@@8
data$r	SEGMENT
??_R0?AVexception@std@@@8 DQ FLAT:??_7type_info@@6B@	; std::exception `RTTI Type Descriptor'
	DQ	0000000000000000H
	DB	'.?AVexception@std@@', 00H
data$r	ENDS
;	COMDAT ??_R4exception@std@@6B@
rdata$r	SEGMENT
??_R4exception@std@@6B@ DD 01H				; std::exception::`RTTI Complete Object Locator'
	DD	00H
	DD	00H
	DD	imagerel ??_R0?AVexception@std@@@8
	DD	imagerel ??_R3exception@std@@8
	DD	imagerel ??_R4exception@std@@6B@
rdata$r	ENDS
;	COMDAT ??_C@_1DE@DCJPPHMC@?$AAp?$AAm?$AAc?$AA_?$AAa?$AAd?$AAd?$AA?4?$AAc?$AAp?$AAp?$AA?$DL?$AAP?$AAM?$AAC@
CONST	SEGMENT
??_C@_1DE@DCJPPHMC@?$AAp?$AAm?$AAc?$AA_?$AAa?$AAd?$AAd?$AA?4?$AAc?$AAp?$AAp?$AA?$DL?$AAP?$AAM?$AAC@ DB 'p'
	DB	00H, 'm', 00H, 'c', 00H, '_', 00H, 'a', 00H, 'd', 00H, 'd', 00H
	DB	'.', 00H, 'c', 00H, 'p', 00H, 'p', 00H, ';', 00H, 'P', 00H, 'M'
	DB	00H, 'C', 00H, '_', 00H, 'A', 00H, 'd', 00H, 'd', 00H, '_', 00H
	DB	'X', 00H, '_', 00H, 'L', 00H, ';', 00H, '1', 00H, 00H, 00H ; `string'
CONST	ENDS
;	COMDAT ??_C@_1DE@MFHABOJA@?$AAp?$AAm?$AAc?$AA_?$AAa?$AAd?$AAd?$AA?4?$AAc?$AAp?$AAp?$AA?$DL?$AAP?$AAM?$AAC@
CONST	SEGMENT
??_C@_1DE@MFHABOJA@?$AAp?$AAm?$AAc?$AA_?$AAa?$AAd?$AAd?$AA?4?$AAc?$AAp?$AAp?$AA?$DL?$AAP?$AAM?$AAC@ DB 'p'
	DB	00H, 'm', 00H, 'c', 00H, '_', 00H, 'a', 00H, 'd', 00H, 'd', 00H
	DB	'.', 00H, 'c', 00H, 'p', 00H, 'p', 00H, ';', 00H, 'P', 00H, 'M'
	DB	00H, 'C', 00H, '_', 00H, 'A', 00H, 'd', 00H, 'd', 00H, '_', 00H
	DB	'L', 00H, '_', 00H, 'X', 00H, ';', 00H, '1', 00H, 00H, 00H ; `string'
CONST	ENDS
;	COMDAT ??_C@_13ICFKHAEN@?$AAu@
CONST	SEGMENT
??_C@_13ICFKHAEN@?$AAu@ DB 'u', 00H, 00H, 00H		; `string'
CONST	ENDS
;	COMDAT ??_C@_1DE@HKHPPJKG@?$AAp?$AAm?$AAc?$AA_?$AAa?$AAd?$AAd?$AA?4?$AAc?$AAp?$AAp?$AA?$DL?$AAP?$AAM?$AAC@
CONST	SEGMENT
??_C@_1DE@HKHPPJKG@?$AAp?$AAm?$AAc?$AA_?$AAa?$AAd?$AAd?$AA?4?$AAc?$AAp?$AAp?$AA?$DL?$AAP?$AAM?$AAC@ DB 'p'
	DB	00H, 'm', 00H, 'c', 00H, '_', 00H, 'a', 00H, 'd', 00H, 'd', 00H
	DB	'.', 00H, 'c', 00H, 'p', 00H, 'p', 00H, ';', 00H, 'P', 00H, 'M'
	DB	00H, 'C', 00H, '_', 00H, 'A', 00H, 'd', 00H, 'd', 00H, '_', 00H
	DB	'X', 00H, '_', 00H, 'I', 00H, ';', 00H, '1', 00H, 00H, 00H ; `string'
CONST	ENDS
;	COMDAT ??_C@_1CK@ECFIEPAC@?$AA?$BF?$AAp?$AAk?$AAn?$AAu?$AAl?$AAl?$AAp?$AAt?$AAr?$AAL?$AA?$AO?$AAH?$PP?$IJ?$PP?$IM@
CONST	SEGMENT
??_C@_1CK@ECFIEPAC@?$AA?$BF?$AAp?$AAk?$AAn?$AAu?$AAl?$AAl?$AAp?$AAt?$AAr?$AAL?$AA?$AO?$AAH?$PP?$IJ?$PP?$IM@ DB 015H
	DB	'_pek0n', 00H, 'u', 00H, 'l', 00H, 'l', 00H, 'p', 00H, 't', 00H
	DB	'r', 00H, 'L0', 0eH, 'NH0', 089H, '0', 08cH, '0f0D0~0Y0', 02H, '0'
	DB	00H, 00H					; `string'
CONST	ENDS
;	COMDAT ??_C@_13JAOPNPKD@?$AAv@
CONST	SEGMENT
??_C@_13JAOPNPKD@?$AAv@ DB 'v', 00H, 00H, 00H		; `string'
CONST	ENDS
;	COMDAT _CT??_R0?AVArgumentNullException@Internal@Core@Math@Palmtree@@@8??0ArgumentNullException@Internal@Core@Math@Palmtree@@QEAA@AEBV01234@@Z48
xdata$x	SEGMENT
_CT??_R0?AVArgumentNullException@Internal@Core@Math@Palmtree@@@8??0ArgumentNullException@Internal@Core@Math@Palmtree@@QEAA@AEBV01234@@Z48 DD 00H
	DD	imagerel ??_R0?AVArgumentNullException@Internal@Core@Math@Palmtree@@@8
	DD	00H
	DD	0ffffffffH
	ORG $+4
	DD	030H
	DD	imagerel ??0ArgumentNullException@Internal@Core@Math@Palmtree@@QEAA@AEBV01234@@Z
xdata$x	ENDS
;	COMDAT ??_R0?AVArgumentNullException@Internal@Core@Math@Palmtree@@@8
data$r	SEGMENT
??_R0?AVArgumentNullException@Internal@Core@Math@Palmtree@@@8 DQ FLAT:??_7type_info@@6B@ ; Palmtree::Math::Core::Internal::ArgumentNullException `RTTI Type Descriptor'
	DQ	0000000000000000H
	DB	'.?AVArgumentNullException@Internal@Core@Math@Palmtree@@', 00H
data$r	ENDS
;	COMDAT _CTA2?AVArgumentNullException@Internal@Core@Math@Palmtree@@
xdata$x	SEGMENT
_CTA2?AVArgumentNullException@Internal@Core@Math@Palmtree@@ DD 02H
	DD	imagerel _CT??_R0?AVArgumentNullException@Internal@Core@Math@Palmtree@@@8??0ArgumentNullException@Internal@Core@Math@Palmtree@@QEAA@AEBV01234@@Z48
	DD	imagerel _CT??_R0?AVException@Internal@Core@Math@Palmtree@@@8??0Exception@Internal@Core@Math@Palmtree@@QEAA@AEBV01234@@Z48
xdata$x	ENDS
;	COMDAT _TI2?AVArgumentNullException@Internal@Core@Math@Palmtree@@
xdata$x	SEGMENT
_TI2?AVArgumentNullException@Internal@Core@Math@Palmtree@@ DD 00H
	DD	imagerel ??1ArgumentNullException@Internal@Core@Math@Palmtree@@UEAA@XZ
	DD	00H
	DD	imagerel _CTA2?AVArgumentNullException@Internal@Core@Math@Palmtree@@
xdata$x	ENDS
;	COMDAT ??_C@_1DE@FNNDGJIA@?$AAp?$AAm?$AAc?$AA_?$AAa?$AAd?$AAd?$AA?4?$AAc?$AAp?$AAp?$AA?$DL?$AAP?$AAM?$AAC@
CONST	SEGMENT
??_C@_1DE@FNNDGJIA@?$AAp?$AAm?$AAc?$AA_?$AAa?$AAd?$AAd?$AA?4?$AAc?$AAp?$AAp?$AA?$DL?$AAP?$AAM?$AAC@ DB 'p'
	DB	00H, 'm', 00H, 'c', 00H, '_', 00H, 'a', 00H, 'd', 00H, 'd', 00H
	DB	'.', 00H, 'c', 00H, 'p', 00H, 'p', 00H, ';', 00H, 'P', 00H, 'M'
	DB	00H, 'C', 00H, '_', 00H, 'A', 00H, 'd', 00H, 'd', 00H, '_', 00H
	DB	'I', 00H, '_', 00H, 'X', 00H, ';', 00H, '1', 00H, 00H, 00H ; `string'
CONST	ENDS
;	COMDAT ??_C@_1BM@FCPAHMHB@?$PP?$IF?$PP?h?$PP?$KI?$PP?i?$PP?$PM?$AAL?$AAz?$AA?$BP?$AAW?$AA?$HO?$AAW?$AA_?$AA?$AC@
CONST	SEGMENT
??_C@_1BM@FCPAHMHB@?$PP?$IF?$PP?h?$PP?$KI?$PP?i?$PP?$PM?$AAL?$AAz?$AA?$BP?$AAW?$AA?$HO?$AAW?$AA_?$AA?$AC@ DB 085H
	DB	'Q', 0e8H, 090H, 0a8H, '0', 0e9H, '0', 0fcH, '0L0zv', 01fH, 'u'
	DB	'W0~0W0_0', 02H, '0', 00H, 00H		; `string'
CONST	ENDS
;	COMDAT ??_C@_1CM@CADFJOJJ@?$AAp?$AAc?$AAm?$AA_?$AAa?$AAd?$AAd?$AA?4?$AAc?$AAp?$AAp?$AA?$DL?$AAD?$AAo?$AAC@
CONST	SEGMENT
??_C@_1CM@CADFJOJJ@?$AAp?$AAc?$AAm?$AA_?$AAa?$AAd?$AAd?$AA?4?$AAc?$AAp?$AAp?$AA?$DL?$AAD?$AAo?$AAC@ DB 'p'
	DB	00H, 'c', 00H, 'm', 00H, '_', 00H, 'a', 00H, 'd', 00H, 'd', 00H
	DB	'.', 00H, 'c', 00H, 'p', 00H, 'p', 00H, ';', 00H, 'D', 00H, 'o'
	DB	00H, 'C', 00H, 'a', 00H, 'r', 00H, 'r', 00H, 'y', 00H, ';', 00H
	DB	'1', 00H, 00H, 00H				; `string'
CONST	ENDS
;	COMDAT ??_C@_1CG@CNOPPENL@?$PP?$II?$AA?$BP?$AAW?$AAf?$AAD?$AAj?$AAD?$PP?$LD?$PP?$PM?$PP?I?$AAk?$AA0?$AAT?$AAW?$AA?$HO@
CONST	SEGMENT
??_C@_1CG@CNOPPENL@?$PP?$II?$AA?$BP?$AAW?$AAf?$AAD?$AAj?$AAD?$PP?$LD?$PP?$PM?$PP?I?$AAk?$AA0?$AAT?$AAW?$AA?$HO@ DB 088H
	DB	'N', 01fH, 'gW0f0D0j0D0', 0b3H, '0', 0fcH, '0', 0c9H, '0k00RT', 090H
	DB	'W0~0W0_0', 02H, '0', 00H, 00H		; `string'
CONST	ENDS
;	COMDAT _CT??_R0?AVException@Internal@Core@Math@Palmtree@@@8??0Exception@Internal@Core@Math@Palmtree@@QEAA@AEBV01234@@Z48
xdata$x	SEGMENT
_CT??_R0?AVException@Internal@Core@Math@Palmtree@@@8??0Exception@Internal@Core@Math@Palmtree@@QEAA@AEBV01234@@Z48 DD 00H
	DD	imagerel ??_R0?AVException@Internal@Core@Math@Palmtree@@@8
	DD	00H
	DD	0ffffffffH
	ORG $+4
	DD	030H
	DD	imagerel ??0Exception@Internal@Core@Math@Palmtree@@QEAA@AEBV01234@@Z
xdata$x	ENDS
;	COMDAT ??_R0?AVException@Internal@Core@Math@Palmtree@@@8
data$r	SEGMENT
??_R0?AVException@Internal@Core@Math@Palmtree@@@8 DQ FLAT:??_7type_info@@6B@ ; Palmtree::Math::Core::Internal::Exception `RTTI Type Descriptor'
	DQ	0000000000000000H
	DB	'.?AVException@Internal@Core@Math@Palmtree@@', 00H
data$r	ENDS
;	COMDAT _CT??_R0?AVInternalErrorException@Internal@Core@Math@Palmtree@@@8??0InternalErrorException@Internal@Core@Math@Palmtree@@QEAA@AEBV01234@@Z48
xdata$x	SEGMENT
_CT??_R0?AVInternalErrorException@Internal@Core@Math@Palmtree@@@8??0InternalErrorException@Internal@Core@Math@Palmtree@@QEAA@AEBV01234@@Z48 DD 00H
	DD	imagerel ??_R0?AVInternalErrorException@Internal@Core@Math@Palmtree@@@8
	DD	00H
	DD	0ffffffffH
	ORG $+4
	DD	030H
	DD	imagerel ??0InternalErrorException@Internal@Core@Math@Palmtree@@QEAA@AEBV01234@@Z
xdata$x	ENDS
;	COMDAT ??_R0?AVInternalErrorException@Internal@Core@Math@Palmtree@@@8
data$r	SEGMENT
??_R0?AVInternalErrorException@Internal@Core@Math@Palmtree@@@8 DQ FLAT:??_7type_info@@6B@ ; Palmtree::Math::Core::Internal::InternalErrorException `RTTI Type Descriptor'
	DQ	0000000000000000H
	DB	'.?AVInternalErrorException@Internal@Core@Math@Palmtree@@'
	DB	00H
data$r	ENDS
;	COMDAT _CTA2?AVInternalErrorException@Internal@Core@Math@Palmtree@@
xdata$x	SEGMENT
_CTA2?AVInternalErrorException@Internal@Core@Math@Palmtree@@ DD 02H
	DD	imagerel _CT??_R0?AVInternalErrorException@Internal@Core@Math@Palmtree@@@8??0InternalErrorException@Internal@Core@Math@Palmtree@@QEAA@AEBV01234@@Z48
	DD	imagerel _CT??_R0?AVException@Internal@Core@Math@Palmtree@@@8??0Exception@Internal@Core@Math@Palmtree@@QEAA@AEBV01234@@Z48
xdata$x	ENDS
;	COMDAT _TI2?AVInternalErrorException@Internal@Core@Math@Palmtree@@
xdata$x	SEGMENT
_TI2?AVInternalErrorException@Internal@Core@Math@Palmtree@@ DD 00H
	DD	imagerel ??1InternalErrorException@Internal@Core@Math@Palmtree@@UEAA@XZ
	DD	00H
	DD	imagerel _CTA2?AVInternalErrorException@Internal@Core@Math@Palmtree@@
xdata$x	ENDS
;	COMDAT ??_7InternalErrorException@Internal@Core@Math@Palmtree@@6B@
CONST	SEGMENT
??_7InternalErrorException@Internal@Core@Math@Palmtree@@6B@ DQ FLAT:??_R4InternalErrorException@Internal@Core@Math@Palmtree@@6B@ ; Palmtree::Math::Core::Internal::InternalErrorException::`vftable'
	DQ	FLAT:??_EInternalErrorException@Internal@Core@Math@Palmtree@@UEAAPEAXI@Z
	DQ	FLAT:?what@exception@std@@UEBAPEBDXZ
CONST	ENDS
;	COMDAT ??_7ArgumentNullException@Internal@Core@Math@Palmtree@@6B@
CONST	SEGMENT
??_7ArgumentNullException@Internal@Core@Math@Palmtree@@6B@ DQ FLAT:??_R4ArgumentNullException@Internal@Core@Math@Palmtree@@6B@ ; Palmtree::Math::Core::Internal::ArgumentNullException::`vftable'
	DQ	FLAT:??_EArgumentNullException@Internal@Core@Math@Palmtree@@UEAAPEAXI@Z
	DQ	FLAT:?what@exception@std@@UEBAPEBDXZ
CONST	ENDS
;	COMDAT ??_7Exception@Internal@Core@Math@Palmtree@@6B@
CONST	SEGMENT
??_7Exception@Internal@Core@Math@Palmtree@@6B@ DQ FLAT:??_R4Exception@Internal@Core@Math@Palmtree@@6B@ ; Palmtree::Math::Core::Internal::Exception::`vftable'
	DQ	FLAT:??_EException@Internal@Core@Math@Palmtree@@UEAAPEAXI@Z
	DQ	FLAT:?what@exception@std@@UEBAPEBDXZ
CONST	ENDS
;	COMDAT ??_C@_0BC@EOODALEL@Unknown?5exception@
CONST	SEGMENT
??_C@_0BC@EOODALEL@Unknown?5exception@ DB 'Unknown exception', 00H ; `string'
CONST	ENDS
;	COMDAT ??_7exception@std@@6B@
CONST	SEGMENT
??_7exception@std@@6B@ DQ FLAT:??_R4exception@std@@6B@	; std::exception::`vftable'
	DQ	FLAT:??_Eexception@std@@UEAAPEAXI@Z
	DQ	FLAT:?what@exception@std@@UEBAPEBDXZ
CONST	ENDS
;	COMDAT xdata
xdata	SEGMENT
$unwind$?dtor$2@?0??PMC_Add_X_L_Imp@Internal@Core@Math@Palmtree@@YAPEAU__tag_NUMBER_HEADER@1234@PEAU51234@_K@Z@4HA DD 031001H
	DD	0700c4210H
	DD	0500bH
xdata	ENDS
;	COMDAT xdata
xdata	SEGMENT
$unwind$?dtor$1@?0??PMC_Add_X_L_Imp@Internal@Core@Math@Palmtree@@YAPEAU__tag_NUMBER_HEADER@1234@PEAU51234@_K@Z@4HA DD 031001H
	DD	0700c4210H
	DD	0500bH
xdata	ENDS
;	COMDAT xdata
xdata	SEGMENT
$unwind$?dtor$0@?0??PMC_Add_X_L_Imp@Internal@Core@Math@Palmtree@@YAPEAU__tag_NUMBER_HEADER@1234@PEAU51234@_K@Z@4HA DD 031001H
	DD	0700c4210H
	DD	0500bH
xdata	ENDS
;	COMDAT xdata
xdata	SEGMENT
$ip2state$?PMC_Add_X_L_Imp@Internal@Core@Math@Palmtree@@YAPEAU__tag_NUMBER_HEADER@1234@PEAU51234@_K@Z DD imagerel ?PMC_Add_X_L_Imp@Internal@Core@Math@Palmtree@@YAPEAU__tag_NUMBER_HEADER@1234@PEAU51234@_K@Z
	DD	0ffffffffH
	DD	imagerel ?PMC_Add_X_L_Imp@Internal@Core@Math@Palmtree@@YAPEAU__tag_NUMBER_HEADER@1234@PEAU51234@_K@Z+229
	DD	00H
	DD	imagerel ?PMC_Add_X_L_Imp@Internal@Core@Math@Palmtree@@YAPEAU__tag_NUMBER_HEADER@1234@PEAU51234@_K@Z+424
	DD	0ffffffffH
	DD	imagerel ?PMC_Add_X_L_Imp@Internal@Core@Math@Palmtree@@YAPEAU__tag_NUMBER_HEADER@1234@PEAU51234@_K@Z+463
	DD	01H
	DD	imagerel ?PMC_Add_X_L_Imp@Internal@Core@Math@Palmtree@@YAPEAU__tag_NUMBER_HEADER@1234@PEAU51234@_K@Z+678
	DD	0ffffffffH
	DD	imagerel ?PMC_Add_X_L_Imp@Internal@Core@Math@Palmtree@@YAPEAU__tag_NUMBER_HEADER@1234@PEAU51234@_K@Z+720
	DD	02H
	DD	imagerel ?PMC_Add_X_L_Imp@Internal@Core@Math@Palmtree@@YAPEAU__tag_NUMBER_HEADER@1234@PEAU51234@_K@Z+950
	DD	0ffffffffH
xdata	ENDS
;	COMDAT xdata
xdata	SEGMENT
$stateUnwindMap$?PMC_Add_X_L_Imp@Internal@Core@Math@Palmtree@@YAPEAU__tag_NUMBER_HEADER@1234@PEAU51234@_K@Z DD 0ffffffffH
	DD	imagerel ?dtor$0@?0??PMC_Add_X_L_Imp@Internal@Core@Math@Palmtree@@YAPEAU__tag_NUMBER_HEADER@1234@PEAU51234@_K@Z@4HA
	DD	0ffffffffH
	DD	imagerel ?dtor$1@?0??PMC_Add_X_L_Imp@Internal@Core@Math@Palmtree@@YAPEAU__tag_NUMBER_HEADER@1234@PEAU51234@_K@Z@4HA
	DD	0ffffffffH
	DD	imagerel ?dtor$2@?0??PMC_Add_X_L_Imp@Internal@Core@Math@Palmtree@@YAPEAU__tag_NUMBER_HEADER@1234@PEAU51234@_K@Z@4HA
xdata	ENDS
;	COMDAT xdata
xdata	SEGMENT
$unwind$?PMC_Add_X_L_Imp@Internal@Core@Math@Palmtree@@YAPEAU__tag_NUMBER_HEADER@1234@PEAU51234@_K@Z DD 035053a11H
	DD	01133318H
	DD	0700c0093H
	DD	0500bH
	DD	imagerel __CxxFrameHandler3
	DD	imagerel $cppxdata$?PMC_Add_X_L_Imp@Internal@Core@Math@Palmtree@@YAPEAU__tag_NUMBER_HEADER@1234@PEAU51234@_K@Z
xdata	ENDS
;	COMDAT CONST
CONST	SEGMENT
?PMC_Add_X_L_Imp@Internal@Core@Math@Palmtree@@YAPEAU__tag_NUMBER_HEADER@1234@PEAU51234@_K@Z$rtcName$0 DB 076H ; Palmtree::Math::Core::Internal::PMC_Add_X_L_Imp
	DB	05fH
	DB	068H
	DB	069H
	DB	00H
	ORG $+3
?PMC_Add_X_L_Imp@Internal@Core@Math@Palmtree@@YAPEAU__tag_NUMBER_HEADER@1234@PEAU51234@_K@Z$rtcName$1 DB 072H ; Palmtree::Math::Core::Internal::PMC_Add_X_L_Imp
	DB	06fH
	DB	06fH
	DB	074H
	DB	00H
	ORG $+3
?PMC_Add_X_L_Imp@Internal@Core@Math@Palmtree@@YAPEAU__tag_NUMBER_HEADER@1234@PEAU51234@_K@Z$rtcName$2 DB 072H ; Palmtree::Math::Core::Internal::PMC_Add_X_L_Imp
	DB	06fH
	DB	06fH
	DB	074H
	DB	00H
	ORG $+3
?PMC_Add_X_L_Imp@Internal@Core@Math@Palmtree@@YAPEAU__tag_NUMBER_HEADER@1234@PEAU51234@_K@Z$rtcName$3 DB 072H ; Palmtree::Math::Core::Internal::PMC_Add_X_L_Imp
	DB	06fH
	DB	06fH
	DB	074H
	DB	00H
	ORG $+3
?PMC_Add_X_L_Imp@Internal@Core@Math@Palmtree@@YAPEAU__tag_NUMBER_HEADER@1234@PEAU51234@_K@Z$rtcVarDesc DD 01d8H ; Palmtree::Math::Core::Internal::PMC_Add_X_L_Imp
	DD	020H
	DQ	FLAT:?PMC_Add_X_L_Imp@Internal@Core@Math@Palmtree@@YAPEAU__tag_NUMBER_HEADER@1234@PEAU51234@_K@Z$rtcName$3
	DD	0138H
	DD	020H
	DQ	FLAT:?PMC_Add_X_L_Imp@Internal@Core@Math@Palmtree@@YAPEAU__tag_NUMBER_HEADER@1234@PEAU51234@_K@Z$rtcName$2
	DD	098H
	DD	020H
	DQ	FLAT:?PMC_Add_X_L_Imp@Internal@Core@Math@Palmtree@@YAPEAU__tag_NUMBER_HEADER@1234@PEAU51234@_K@Z$rtcName$1
	DD	054H
	DD	04H
	DQ	FLAT:?PMC_Add_X_L_Imp@Internal@Core@Math@Palmtree@@YAPEAU__tag_NUMBER_HEADER@1234@PEAU51234@_K@Z$rtcName$0
	ORG $+192
?PMC_Add_X_L_Imp@Internal@Core@Math@Palmtree@@YAPEAU__tag_NUMBER_HEADER@1234@PEAU51234@_K@Z$rtcFrameData DD 04H ; Palmtree::Math::Core::Internal::PMC_Add_X_L_Imp
	DD	00H
	DQ	FLAT:?PMC_Add_X_L_Imp@Internal@Core@Math@Palmtree@@YAPEAU__tag_NUMBER_HEADER@1234@PEAU51234@_K@Z$rtcVarDesc
$cppxdata$?PMC_Add_X_L_Imp@Internal@Core@Math@Palmtree@@YAPEAU__tag_NUMBER_HEADER@1234@PEAU51234@_K@Z DD 019930522H
	DD	03H
	DD	imagerel $stateUnwindMap$?PMC_Add_X_L_Imp@Internal@Core@Math@Palmtree@@YAPEAU__tag_NUMBER_HEADER@1234@PEAU51234@_K@Z
	DD	00H
	DD	00H
	DD	07H
	DD	imagerel $ip2state$?PMC_Add_X_L_Imp@Internal@Core@Math@Palmtree@@YAPEAU__tag_NUMBER_HEADER@1234@PEAU51234@_K@Z
	DD	0478H
	DD	00H
	DD	00H
CONST	ENDS
;	COMDAT xdata
xdata	SEGMENT
$unwind$?dtor$0@?0??PMC_Add_X_I_Imp@Internal@Core@Math@Palmtree@@YAPEAU__tag_NUMBER_HEADER@1234@PEAU51234@I@Z@4HA DD 031001H
	DD	0700c4210H
	DD	0500bH
xdata	ENDS
;	COMDAT xdata
xdata	SEGMENT
$ip2state$?PMC_Add_X_I_Imp@Internal@Core@Math@Palmtree@@YAPEAU__tag_NUMBER_HEADER@1234@PEAU51234@I@Z DD imagerel ?PMC_Add_X_I_Imp@Internal@Core@Math@Palmtree@@YAPEAU__tag_NUMBER_HEADER@1234@PEAU51234@I@Z
	DD	0ffffffffH
	DD	imagerel ?PMC_Add_X_I_Imp@Internal@Core@Math@Palmtree@@YAPEAU__tag_NUMBER_HEADER@1234@PEAU51234@I@Z+171
	DD	00H
	DD	imagerel ?PMC_Add_X_I_Imp@Internal@Core@Math@Palmtree@@YAPEAU__tag_NUMBER_HEADER@1234@PEAU51234@I@Z+381
	DD	0ffffffffH
xdata	ENDS
;	COMDAT xdata
xdata	SEGMENT
$stateUnwindMap$?PMC_Add_X_I_Imp@Internal@Core@Math@Palmtree@@YAPEAU__tag_NUMBER_HEADER@1234@PEAU51234@I@Z DD 0ffffffffH
	DD	imagerel ?dtor$0@?0??PMC_Add_X_I_Imp@Internal@Core@Math@Palmtree@@YAPEAU__tag_NUMBER_HEADER@1234@PEAU51234@I@Z@4HA
xdata	ENDS
;	COMDAT xdata
xdata	SEGMENT
$unwind$?PMC_Add_X_I_Imp@Internal@Core@Math@Palmtree@@YAPEAU__tag_NUMBER_HEADER@1234@PEAU51234@I@Z DD 035053911H
	DD	01123317H
	DD	0700b003fH
	DD	0500aH
	DD	imagerel __CxxFrameHandler3
	DD	imagerel $cppxdata$?PMC_Add_X_I_Imp@Internal@Core@Math@Palmtree@@YAPEAU__tag_NUMBER_HEADER@1234@PEAU51234@I@Z
xdata	ENDS
;	COMDAT CONST
CONST	SEGMENT
?PMC_Add_X_I_Imp@Internal@Core@Math@Palmtree@@YAPEAU__tag_NUMBER_HEADER@1234@PEAU51234@I@Z$rtcName$0 DB 072H ; Palmtree::Math::Core::Internal::PMC_Add_X_I_Imp
	DB	06fH
	DB	06fH
	DB	074H
	DB	00H
	ORG $+11
?PMC_Add_X_I_Imp@Internal@Core@Math@Palmtree@@YAPEAU__tag_NUMBER_HEADER@1234@PEAU51234@I@Z$rtcVarDesc DD 038H ; Palmtree::Math::Core::Internal::PMC_Add_X_I_Imp
	DD	020H
	DQ	FLAT:?PMC_Add_X_I_Imp@Internal@Core@Math@Palmtree@@YAPEAU__tag_NUMBER_HEADER@1234@PEAU51234@I@Z$rtcName$0
	ORG $+48
?PMC_Add_X_I_Imp@Internal@Core@Math@Palmtree@@YAPEAU__tag_NUMBER_HEADER@1234@PEAU51234@I@Z$rtcFrameData DD 01H ; Palmtree::Math::Core::Internal::PMC_Add_X_I_Imp
	DD	00H
	DQ	FLAT:?PMC_Add_X_I_Imp@Internal@Core@Math@Palmtree@@YAPEAU__tag_NUMBER_HEADER@1234@PEAU51234@I@Z$rtcVarDesc
$cppxdata$?PMC_Add_X_I_Imp@Internal@Core@Math@Palmtree@@YAPEAU__tag_NUMBER_HEADER@1234@PEAU51234@I@Z DD 019930522H
	DD	01H
	DD	imagerel $stateUnwindMap$?PMC_Add_X_I_Imp@Internal@Core@Math@Palmtree@@YAPEAU__tag_NUMBER_HEADER@1234@PEAU51234@I@Z
	DD	00H
	DD	00H
	DD	03H
	DD	imagerel $ip2state$?PMC_Add_X_I_Imp@Internal@Core@Math@Palmtree@@YAPEAU__tag_NUMBER_HEADER@1234@PEAU51234@I@Z
	DD	01d8H
	DD	00H
	DD	00H
CONST	ENDS
;	COMDAT xdata
xdata	SEGMENT
$unwind$?Add_Imp_using_ADCX@Internal@Core@Math@Palmtree@@YAXPEA_K_K0101@Z DD 035053901H
	DD	011d3322H
	DD	07016003dH
	DD	05015H
xdata	ENDS
;	COMDAT xdata
xdata	SEGMENT
$unwind$?Add_Imp_using_ADC@Internal@Core@Math@Palmtree@@YAXPEA_K_K0101@Z DD 035053901H
	DD	011d3322H
	DD	07016003dH
	DD	05015H
xdata	ENDS
;	COMDAT xdata
xdata	SEGMENT
$unwind$?Add_X_2W@Internal@Core@Math@Palmtree@@YAXPEA_K_K1101@Z DD 035053901H
	DD	011d3322H
	DD	07016002dH
	DD	05015H
xdata	ENDS
;	COMDAT xdata
xdata	SEGMENT
$unwind$?Add_X_1W@Internal@Core@Math@Palmtree@@YAXPEA_K_K101@Z DD 035053901H
	DD	011d3322H
	DD	070160025H
	DD	05015H
xdata	ENDS
;	COMDAT xdata
xdata	SEGMENT
$unwind$?DoCarry@Internal@Core@Math@Palmtree@@YAXDPEA_K_K01@Z DD 025053801H
	DD	011c2321H
	DD	070150029H
	DD	05014H
xdata	ENDS
;	COMDAT xdata
xdata	SEGMENT
$unwind$_ADD_2WORDS_ADCX DD 025053801H
	DD	011c2321H
	DD	07015001dH
	DD	05014H
xdata	ENDS
;	COMDAT xdata
xdata	SEGMENT
$unwind$_ADD_2WORDS_ADC DD 025053801H
	DD	011c2321H
	DD	07015001dH
	DD	05014H
xdata	ENDS
;	COMDAT xdata
xdata	SEGMENT
$unwind$_ADD_4WORDS_ADCX DD 025053801H
	DD	011c2321H
	DD	07015001dH
	DD	05014H
xdata	ENDS
;	COMDAT xdata
xdata	SEGMENT
$unwind$_ADD_4WORDS_ADC DD 025053801H
	DD	011c2321H
	DD	07015001dH
	DD	05014H
xdata	ENDS
;	COMDAT xdata
xdata	SEGMENT
$unwind$_ADD_8WORDS_ADCX DD 025053801H
	DD	011c2321H
	DD	07015001dH
	DD	05014H
xdata	ENDS
;	COMDAT xdata
xdata	SEGMENT
$unwind$_ADD_8WORDS_ADC DD 025053801H
	DD	011c2321H
	DD	07015001dH
	DD	05014H
xdata	ENDS
;	COMDAT xdata
xdata	SEGMENT
$unwind$_ADD_16WORDS_ADCX DD 025053801H
	DD	011c2321H
	DD	07015001dH
	DD	05014H
xdata	ENDS
;	COMDAT xdata
xdata	SEGMENT
$unwind$_ADD_16WORDS_ADC DD 025053801H
	DD	011c2321H
	DD	07015001dH
	DD	05014H
xdata	ENDS
;	COMDAT xdata
xdata	SEGMENT
$unwind$_ADD_32WORDS_ADCX DD 025053801H
	DD	011c2321H
	DD	07015001dH
	DD	05014H
xdata	ENDS
;	COMDAT xdata
xdata	SEGMENT
$unwind$_ADD_32WORDS_ADC DD 025053801H
	DD	011c2321H
	DD	07015001dH
	DD	05014H
xdata	ENDS
;	COMDAT xdata
xdata	SEGMENT
$unwind$_LZCNT_ALT_UNIT DD 025052a01H
	DD	010e2313H
	DD	070070021H
	DD	05006H
xdata	ENDS
;	COMDAT CONST
CONST	SEGMENT
_LZCNT_ALT_UNIT$rtcName$0 DB 070H
	DB	06fH
	DB	073H
	DB	00H
	ORG $+12
_LZCNT_ALT_UNIT$rtcVarDesc DD 024H
	DD	04H
	DQ	FLAT:_LZCNT_ALT_UNIT$rtcName$0
	ORG $+48
_LZCNT_ALT_UNIT$rtcFrameData DD 01H
	DD	00H
	DQ	FLAT:_LZCNT_ALT_UNIT$rtcVarDesc
CONST	ENDS
;	COMDAT xdata
xdata	SEGMENT
$unwind$_LZCNT_ALT_32 DD 025052801H
	DD	010d2312H
	DD	070060021H
	DD	05005H
xdata	ENDS
;	COMDAT CONST
CONST	SEGMENT
_LZCNT_ALT_32$rtcName$0 DB 070H
	DB	06fH
	DB	073H
	DB	00H
	ORG $+12
_LZCNT_ALT_32$rtcVarDesc DD 024H
	DD	04H
	DQ	FLAT:_LZCNT_ALT_32$rtcName$0
	ORG $+48
_LZCNT_ALT_32$rtcFrameData DD 01H
	DD	00H
	DQ	FLAT:_LZCNT_ALT_32$rtcVarDesc
CONST	ENDS
;	COMDAT xdata
xdata	SEGMENT
$unwind$_ADDX_UNIT DD 025053801H
	DD	011c2321H
	DD	07015001dH
	DD	05014H
xdata	ENDS
;	COMDAT xdata
xdata	SEGMENT
$unwind$_ADD_UNIT DD 025053801H
	DD	011c2321H
	DD	07015001dH
	DD	05014H
xdata	ENDS
;	COMDAT xdata
xdata	SEGMENT
$unwind$_MAXIMUM_UNIT DD 025052f01H
	DD	01132318H
	DD	0700c001fH
	DD	0500bH
xdata	ENDS
;	COMDAT xdata
xdata	SEGMENT
$unwind$_FROMDWORDTOWORD DD 025052f01H
	DD	01132318H
	DD	0700c001dH
	DD	0500bH
xdata	ENDS
;	COMDAT xdata
xdata	SEGMENT
$unwind$?dtor$0@?0??PMC_Add_X_X@Internal@Core@Math@Palmtree@@YAPEAU__tag_PMC_HANDLE_UINT@1234@PEAU51234@0@Z@4HA DD 031001H
	DD	0700c4210H
	DD	0500bH
xdata	ENDS
;	COMDAT xdata
xdata	SEGMENT
$ip2state$?PMC_Add_X_X@Internal@Core@Math@Palmtree@@YAPEAU__tag_PMC_HANDLE_UINT@1234@PEAU51234@0@Z DD imagerel ?PMC_Add_X_X@Internal@Core@Math@Palmtree@@YAPEAU__tag_PMC_HANDLE_UINT@1234@PEAU51234@0@Z
	DD	0ffffffffH
	DD	imagerel ?PMC_Add_X_X@Internal@Core@Math@Palmtree@@YAPEAU__tag_PMC_HANDLE_UINT@1234@PEAU51234@0@Z+214
	DD	00H
	DD	imagerel ?PMC_Add_X_X@Internal@Core@Math@Palmtree@@YAPEAU__tag_PMC_HANDLE_UINT@1234@PEAU51234@0@Z+283
	DD	0ffffffffH
xdata	ENDS
;	COMDAT xdata
xdata	SEGMENT
$stateUnwindMap$?PMC_Add_X_X@Internal@Core@Math@Palmtree@@YAPEAU__tag_PMC_HANDLE_UINT@1234@PEAU51234@0@Z DD 0ffffffffH
	DD	imagerel ?dtor$0@?0??PMC_Add_X_X@Internal@Core@Math@Palmtree@@YAPEAU__tag_PMC_HANDLE_UINT@1234@PEAU51234@0@Z@4HA
xdata	ENDS
;	COMDAT xdata
xdata	SEGMENT
$unwind$?PMC_Add_X_X@Internal@Core@Math@Palmtree@@YAPEAU__tag_PMC_HANDLE_UINT@1234@PEAU51234@0@Z DD 025053a11H
	DD	01132318H
	DD	0700c0045H
	DD	0500bH
	DD	imagerel __CxxFrameHandler3
	DD	imagerel $cppxdata$?PMC_Add_X_X@Internal@Core@Math@Palmtree@@YAPEAU__tag_PMC_HANDLE_UINT@1234@PEAU51234@0@Z
xdata	ENDS
;	COMDAT CONST
CONST	SEGMENT
?PMC_Add_X_X@Internal@Core@Math@Palmtree@@YAPEAU__tag_PMC_HANDLE_UINT@1234@PEAU51234@0@Z$rtcName$0 DB 072H ; Palmtree::Math::Core::Internal::PMC_Add_X_X
	DB	06fH
	DB	06fH
	DB	074H
	DB	00H
	ORG $+11
?PMC_Add_X_X@Internal@Core@Math@Palmtree@@YAPEAU__tag_PMC_HANDLE_UINT@1234@PEAU51234@0@Z$rtcVarDesc DD 028H ; Palmtree::Math::Core::Internal::PMC_Add_X_X
	DD	020H
	DQ	FLAT:?PMC_Add_X_X@Internal@Core@Math@Palmtree@@YAPEAU__tag_PMC_HANDLE_UINT@1234@PEAU51234@0@Z$rtcName$0
	ORG $+48
?PMC_Add_X_X@Internal@Core@Math@Palmtree@@YAPEAU__tag_PMC_HANDLE_UINT@1234@PEAU51234@0@Z$rtcFrameData DD 01H ; Palmtree::Math::Core::Internal::PMC_Add_X_X
	DD	00H
	DQ	FLAT:?PMC_Add_X_X@Internal@Core@Math@Palmtree@@YAPEAU__tag_PMC_HANDLE_UINT@1234@PEAU51234@0@Z$rtcVarDesc
$cppxdata$?PMC_Add_X_X@Internal@Core@Math@Palmtree@@YAPEAU__tag_PMC_HANDLE_UINT@1234@PEAU51234@0@Z DD 019930522H
	DD	01H
	DD	imagerel $stateUnwindMap$?PMC_Add_X_X@Internal@Core@Math@Palmtree@@YAPEAU__tag_PMC_HANDLE_UINT@1234@PEAU51234@0@Z
	DD	00H
	DD	00H
	DD	03H
	DD	imagerel $ip2state$?PMC_Add_X_X@Internal@Core@Math@Palmtree@@YAPEAU__tag_PMC_HANDLE_UINT@1234@PEAU51234@0@Z
	DD	0208H
	DD	00H
	DD	00H
CONST	ENDS
;	COMDAT xdata
xdata	SEGMENT
$unwind$?dtor$0@?0??PMC_Add_X_L@Internal@Core@Math@Palmtree@@YAPEAU__tag_PMC_HANDLE_UINT@1234@PEAU51234@_K@Z@4HA DD 031001H
	DD	0700c4210H
	DD	0500bH
xdata	ENDS
;	COMDAT xdata
xdata	SEGMENT
$ip2state$?PMC_Add_X_L@Internal@Core@Math@Palmtree@@YAPEAU__tag_PMC_HANDLE_UINT@1234@PEAU51234@_K@Z DD imagerel ?PMC_Add_X_L@Internal@Core@Math@Palmtree@@YAPEAU__tag_PMC_HANDLE_UINT@1234@PEAU51234@_K@Z
	DD	0ffffffffH
	DD	imagerel ?PMC_Add_X_L@Internal@Core@Math@Palmtree@@YAPEAU__tag_PMC_HANDLE_UINT@1234@PEAU51234@_K@Z+198
	DD	00H
	DD	imagerel ?PMC_Add_X_L@Internal@Core@Math@Palmtree@@YAPEAU__tag_PMC_HANDLE_UINT@1234@PEAU51234@_K@Z+267
	DD	0ffffffffH
xdata	ENDS
;	COMDAT xdata
xdata	SEGMENT
$stateUnwindMap$?PMC_Add_X_L@Internal@Core@Math@Palmtree@@YAPEAU__tag_PMC_HANDLE_UINT@1234@PEAU51234@_K@Z DD 0ffffffffH
	DD	imagerel ?dtor$0@?0??PMC_Add_X_L@Internal@Core@Math@Palmtree@@YAPEAU__tag_PMC_HANDLE_UINT@1234@PEAU51234@_K@Z@4HA
xdata	ENDS
;	COMDAT xdata
xdata	SEGMENT
$unwind$?PMC_Add_X_L@Internal@Core@Math@Palmtree@@YAPEAU__tag_PMC_HANDLE_UINT@1234@PEAU51234@_K@Z DD 025053a11H
	DD	01132318H
	DD	0700c0045H
	DD	0500bH
	DD	imagerel __CxxFrameHandler3
	DD	imagerel $cppxdata$?PMC_Add_X_L@Internal@Core@Math@Palmtree@@YAPEAU__tag_PMC_HANDLE_UINT@1234@PEAU51234@_K@Z
xdata	ENDS
;	COMDAT CONST
CONST	SEGMENT
?PMC_Add_X_L@Internal@Core@Math@Palmtree@@YAPEAU__tag_PMC_HANDLE_UINT@1234@PEAU51234@_K@Z$rtcName$0 DB 072H ; Palmtree::Math::Core::Internal::PMC_Add_X_L
	DB	06fH
	DB	06fH
	DB	074H
	DB	00H
	ORG $+11
?PMC_Add_X_L@Internal@Core@Math@Palmtree@@YAPEAU__tag_PMC_HANDLE_UINT@1234@PEAU51234@_K@Z$rtcVarDesc DD 028H ; Palmtree::Math::Core::Internal::PMC_Add_X_L
	DD	020H
	DQ	FLAT:?PMC_Add_X_L@Internal@Core@Math@Palmtree@@YAPEAU__tag_PMC_HANDLE_UINT@1234@PEAU51234@_K@Z$rtcName$0
	ORG $+48
?PMC_Add_X_L@Internal@Core@Math@Palmtree@@YAPEAU__tag_PMC_HANDLE_UINT@1234@PEAU51234@_K@Z$rtcFrameData DD 01H ; Palmtree::Math::Core::Internal::PMC_Add_X_L
	DD	00H
	DQ	FLAT:?PMC_Add_X_L@Internal@Core@Math@Palmtree@@YAPEAU__tag_PMC_HANDLE_UINT@1234@PEAU51234@_K@Z$rtcVarDesc
$cppxdata$?PMC_Add_X_L@Internal@Core@Math@Palmtree@@YAPEAU__tag_PMC_HANDLE_UINT@1234@PEAU51234@_K@Z DD 019930522H
	DD	01H
	DD	imagerel $stateUnwindMap$?PMC_Add_X_L@Internal@Core@Math@Palmtree@@YAPEAU__tag_PMC_HANDLE_UINT@1234@PEAU51234@_K@Z
	DD	00H
	DD	00H
	DD	03H
	DD	imagerel $ip2state$?PMC_Add_X_L@Internal@Core@Math@Palmtree@@YAPEAU__tag_PMC_HANDLE_UINT@1234@PEAU51234@_K@Z
	DD	0208H
	DD	00H
	DD	00H
CONST	ENDS
;	COMDAT xdata
xdata	SEGMENT
$unwind$?dtor$0@?0??PMC_Add_X_I@Internal@Core@Math@Palmtree@@YAPEAU__tag_PMC_HANDLE_UINT@1234@PEAU51234@I@Z@4HA DD 031001H
	DD	0700c4210H
	DD	0500bH
xdata	ENDS
;	COMDAT xdata
xdata	SEGMENT
$ip2state$?PMC_Add_X_I@Internal@Core@Math@Palmtree@@YAPEAU__tag_PMC_HANDLE_UINT@1234@PEAU51234@I@Z DD imagerel ?PMC_Add_X_I@Internal@Core@Math@Palmtree@@YAPEAU__tag_PMC_HANDLE_UINT@1234@PEAU51234@I@Z
	DD	0ffffffffH
	DD	imagerel ?PMC_Add_X_I@Internal@Core@Math@Palmtree@@YAPEAU__tag_PMC_HANDLE_UINT@1234@PEAU51234@I@Z+197
	DD	00H
	DD	imagerel ?PMC_Add_X_I@Internal@Core@Math@Palmtree@@YAPEAU__tag_PMC_HANDLE_UINT@1234@PEAU51234@I@Z+265
	DD	0ffffffffH
xdata	ENDS
;	COMDAT xdata
xdata	SEGMENT
$stateUnwindMap$?PMC_Add_X_I@Internal@Core@Math@Palmtree@@YAPEAU__tag_PMC_HANDLE_UINT@1234@PEAU51234@I@Z DD 0ffffffffH
	DD	imagerel ?dtor$0@?0??PMC_Add_X_I@Internal@Core@Math@Palmtree@@YAPEAU__tag_PMC_HANDLE_UINT@1234@PEAU51234@I@Z@4HA
xdata	ENDS
;	COMDAT xdata
xdata	SEGMENT
$unwind$?PMC_Add_X_I@Internal@Core@Math@Palmtree@@YAPEAU__tag_PMC_HANDLE_UINT@1234@PEAU51234@I@Z DD 025053911H
	DD	01122317H
	DD	0700b0045H
	DD	0500aH
	DD	imagerel __CxxFrameHandler3
	DD	imagerel $cppxdata$?PMC_Add_X_I@Internal@Core@Math@Palmtree@@YAPEAU__tag_PMC_HANDLE_UINT@1234@PEAU51234@I@Z
xdata	ENDS
;	COMDAT CONST
CONST	SEGMENT
?PMC_Add_X_I@Internal@Core@Math@Palmtree@@YAPEAU__tag_PMC_HANDLE_UINT@1234@PEAU51234@I@Z$rtcName$0 DB 072H ; Palmtree::Math::Core::Internal::PMC_Add_X_I
	DB	06fH
	DB	06fH
	DB	074H
	DB	00H
	ORG $+11
?PMC_Add_X_I@Internal@Core@Math@Palmtree@@YAPEAU__tag_PMC_HANDLE_UINT@1234@PEAU51234@I@Z$rtcVarDesc DD 028H ; Palmtree::Math::Core::Internal::PMC_Add_X_I
	DD	020H
	DQ	FLAT:?PMC_Add_X_I@Internal@Core@Math@Palmtree@@YAPEAU__tag_PMC_HANDLE_UINT@1234@PEAU51234@I@Z$rtcName$0
	ORG $+48
?PMC_Add_X_I@Internal@Core@Math@Palmtree@@YAPEAU__tag_PMC_HANDLE_UINT@1234@PEAU51234@I@Z$rtcFrameData DD 01H ; Palmtree::Math::Core::Internal::PMC_Add_X_I
	DD	00H
	DQ	FLAT:?PMC_Add_X_I@Internal@Core@Math@Palmtree@@YAPEAU__tag_PMC_HANDLE_UINT@1234@PEAU51234@I@Z$rtcVarDesc
$cppxdata$?PMC_Add_X_I@Internal@Core@Math@Palmtree@@YAPEAU__tag_PMC_HANDLE_UINT@1234@PEAU51234@I@Z DD 019930522H
	DD	01H
	DD	imagerel $stateUnwindMap$?PMC_Add_X_I@Internal@Core@Math@Palmtree@@YAPEAU__tag_PMC_HANDLE_UINT@1234@PEAU51234@I@Z
	DD	00H
	DD	00H
	DD	03H
	DD	imagerel $ip2state$?PMC_Add_X_I@Internal@Core@Math@Palmtree@@YAPEAU__tag_PMC_HANDLE_UINT@1234@PEAU51234@I@Z
	DD	0208H
	DD	00H
	DD	00H
CONST	ENDS
;	COMDAT xdata
xdata	SEGMENT
$unwind$?dtor$0@?0??PMC_Add_L_X@Internal@Core@Math@Palmtree@@YAPEAU__tag_PMC_HANDLE_UINT@1234@_KPEAU51234@@Z@4HA DD 031001H
	DD	0700c4210H
	DD	0500bH
xdata	ENDS
;	COMDAT xdata
xdata	SEGMENT
$ip2state$?PMC_Add_L_X@Internal@Core@Math@Palmtree@@YAPEAU__tag_PMC_HANDLE_UINT@1234@_KPEAU51234@@Z DD imagerel ?PMC_Add_L_X@Internal@Core@Math@Palmtree@@YAPEAU__tag_PMC_HANDLE_UINT@1234@_KPEAU51234@@Z
	DD	0ffffffffH
	DD	imagerel ?PMC_Add_L_X@Internal@Core@Math@Palmtree@@YAPEAU__tag_PMC_HANDLE_UINT@1234@_KPEAU51234@@Z+198
	DD	00H
	DD	imagerel ?PMC_Add_L_X@Internal@Core@Math@Palmtree@@YAPEAU__tag_PMC_HANDLE_UINT@1234@_KPEAU51234@@Z+267
	DD	0ffffffffH
xdata	ENDS
;	COMDAT xdata
xdata	SEGMENT
$stateUnwindMap$?PMC_Add_L_X@Internal@Core@Math@Palmtree@@YAPEAU__tag_PMC_HANDLE_UINT@1234@_KPEAU51234@@Z DD 0ffffffffH
	DD	imagerel ?dtor$0@?0??PMC_Add_L_X@Internal@Core@Math@Palmtree@@YAPEAU__tag_PMC_HANDLE_UINT@1234@_KPEAU51234@@Z@4HA
xdata	ENDS
;	COMDAT xdata
xdata	SEGMENT
$unwind$?PMC_Add_L_X@Internal@Core@Math@Palmtree@@YAPEAU__tag_PMC_HANDLE_UINT@1234@_KPEAU51234@@Z DD 025053a11H
	DD	01132318H
	DD	0700c0045H
	DD	0500bH
	DD	imagerel __CxxFrameHandler3
	DD	imagerel $cppxdata$?PMC_Add_L_X@Internal@Core@Math@Palmtree@@YAPEAU__tag_PMC_HANDLE_UINT@1234@_KPEAU51234@@Z
xdata	ENDS
;	COMDAT CONST
CONST	SEGMENT
?PMC_Add_L_X@Internal@Core@Math@Palmtree@@YAPEAU__tag_PMC_HANDLE_UINT@1234@_KPEAU51234@@Z$rtcName$0 DB 072H ; Palmtree::Math::Core::Internal::PMC_Add_L_X
	DB	06fH
	DB	06fH
	DB	074H
	DB	00H
	ORG $+11
?PMC_Add_L_X@Internal@Core@Math@Palmtree@@YAPEAU__tag_PMC_HANDLE_UINT@1234@_KPEAU51234@@Z$rtcVarDesc DD 028H ; Palmtree::Math::Core::Internal::PMC_Add_L_X
	DD	020H
	DQ	FLAT:?PMC_Add_L_X@Internal@Core@Math@Palmtree@@YAPEAU__tag_PMC_HANDLE_UINT@1234@_KPEAU51234@@Z$rtcName$0
	ORG $+48
?PMC_Add_L_X@Internal@Core@Math@Palmtree@@YAPEAU__tag_PMC_HANDLE_UINT@1234@_KPEAU51234@@Z$rtcFrameData DD 01H ; Palmtree::Math::Core::Internal::PMC_Add_L_X
	DD	00H
	DQ	FLAT:?PMC_Add_L_X@Internal@Core@Math@Palmtree@@YAPEAU__tag_PMC_HANDLE_UINT@1234@_KPEAU51234@@Z$rtcVarDesc
$cppxdata$?PMC_Add_L_X@Internal@Core@Math@Palmtree@@YAPEAU__tag_PMC_HANDLE_UINT@1234@_KPEAU51234@@Z DD 019930522H
	DD	01H
	DD	imagerel $stateUnwindMap$?PMC_Add_L_X@Internal@Core@Math@Palmtree@@YAPEAU__tag_PMC_HANDLE_UINT@1234@_KPEAU51234@@Z
	DD	00H
	DD	00H
	DD	03H
	DD	imagerel $ip2state$?PMC_Add_L_X@Internal@Core@Math@Palmtree@@YAPEAU__tag_PMC_HANDLE_UINT@1234@_KPEAU51234@@Z
	DD	0208H
	DD	00H
	DD	00H
CONST	ENDS
;	COMDAT xdata
xdata	SEGMENT
$unwind$?dtor$0@?0??PMC_Add_I_X@Internal@Core@Math@Palmtree@@YAPEAU__tag_PMC_HANDLE_UINT@1234@IPEAU51234@@Z@4HA DD 031001H
	DD	0700c4210H
	DD	0500bH
xdata	ENDS
;	COMDAT xdata
xdata	SEGMENT
$ip2state$?PMC_Add_I_X@Internal@Core@Math@Palmtree@@YAPEAU__tag_PMC_HANDLE_UINT@1234@IPEAU51234@@Z DD imagerel ?PMC_Add_I_X@Internal@Core@Math@Palmtree@@YAPEAU__tag_PMC_HANDLE_UINT@1234@IPEAU51234@@Z
	DD	0ffffffffH
	DD	imagerel ?PMC_Add_I_X@Internal@Core@Math@Palmtree@@YAPEAU__tag_PMC_HANDLE_UINT@1234@IPEAU51234@@Z+196
	DD	00H
	DD	imagerel ?PMC_Add_I_X@Internal@Core@Math@Palmtree@@YAPEAU__tag_PMC_HANDLE_UINT@1234@IPEAU51234@@Z+264
	DD	0ffffffffH
xdata	ENDS
;	COMDAT xdata
xdata	SEGMENT
$stateUnwindMap$?PMC_Add_I_X@Internal@Core@Math@Palmtree@@YAPEAU__tag_PMC_HANDLE_UINT@1234@IPEAU51234@@Z DD 0ffffffffH
	DD	imagerel ?dtor$0@?0??PMC_Add_I_X@Internal@Core@Math@Palmtree@@YAPEAU__tag_PMC_HANDLE_UINT@1234@IPEAU51234@@Z@4HA
xdata	ENDS
;	COMDAT xdata
xdata	SEGMENT
$unwind$?PMC_Add_I_X@Internal@Core@Math@Palmtree@@YAPEAU__tag_PMC_HANDLE_UINT@1234@IPEAU51234@@Z DD 025053811H
	DD	01122317H
	DD	0700b0045H
	DD	0500aH
	DD	imagerel __CxxFrameHandler3
	DD	imagerel $cppxdata$?PMC_Add_I_X@Internal@Core@Math@Palmtree@@YAPEAU__tag_PMC_HANDLE_UINT@1234@IPEAU51234@@Z
xdata	ENDS
;	COMDAT CONST
CONST	SEGMENT
?PMC_Add_I_X@Internal@Core@Math@Palmtree@@YAPEAU__tag_PMC_HANDLE_UINT@1234@IPEAU51234@@Z$rtcName$0 DB 072H ; Palmtree::Math::Core::Internal::PMC_Add_I_X
	DB	06fH
	DB	06fH
	DB	074H
	DB	00H
	ORG $+11
?PMC_Add_I_X@Internal@Core@Math@Palmtree@@YAPEAU__tag_PMC_HANDLE_UINT@1234@IPEAU51234@@Z$rtcVarDesc DD 028H ; Palmtree::Math::Core::Internal::PMC_Add_I_X
	DD	020H
	DQ	FLAT:?PMC_Add_I_X@Internal@Core@Math@Palmtree@@YAPEAU__tag_PMC_HANDLE_UINT@1234@IPEAU51234@@Z$rtcName$0
	ORG $+48
?PMC_Add_I_X@Internal@Core@Math@Palmtree@@YAPEAU__tag_PMC_HANDLE_UINT@1234@IPEAU51234@@Z$rtcFrameData DD 01H ; Palmtree::Math::Core::Internal::PMC_Add_I_X
	DD	00H
	DQ	FLAT:?PMC_Add_I_X@Internal@Core@Math@Palmtree@@YAPEAU__tag_PMC_HANDLE_UINT@1234@IPEAU51234@@Z$rtcVarDesc
$cppxdata$?PMC_Add_I_X@Internal@Core@Math@Palmtree@@YAPEAU__tag_PMC_HANDLE_UINT@1234@IPEAU51234@@Z DD 019930522H
	DD	01H
	DD	imagerel $stateUnwindMap$?PMC_Add_I_X@Internal@Core@Math@Palmtree@@YAPEAU__tag_PMC_HANDLE_UINT@1234@IPEAU51234@@Z
	DD	00H
	DD	00H
	DD	03H
	DD	imagerel $ip2state$?PMC_Add_I_X@Internal@Core@Math@Palmtree@@YAPEAU__tag_PMC_HANDLE_UINT@1234@IPEAU51234@@Z
	DD	0208H
	DD	00H
	DD	00H
CONST	ENDS
;	COMDAT xdata
xdata	SEGMENT
$unwind$?Initialize_Add@Internal@Core@Math@Palmtree@@YAHPEAU_tag_PROCESSOR_FEATURES@1234@@Z DD 025052a01H
	DD	010e2313H
	DD	07007001fH
	DD	05006H
xdata	ENDS
;	COMDAT xdata
xdata	SEGMENT
$unwind$?dtor$0@?0??PMC_Add_X_X_Imp@Internal@Core@Math@Palmtree@@YAPEAU__tag_NUMBER_HEADER@1234@PEAU51234@0@Z@4HA DD 031001H
	DD	0700c4210H
	DD	0500bH
xdata	ENDS
;	COMDAT xdata
xdata	SEGMENT
$ip2state$?PMC_Add_X_X_Imp@Internal@Core@Math@Palmtree@@YAPEAU__tag_NUMBER_HEADER@1234@PEAU51234@0@Z DD imagerel ?PMC_Add_X_X_Imp@Internal@Core@Math@Palmtree@@YAPEAU__tag_NUMBER_HEADER@1234@PEAU51234@0@Z
	DD	0ffffffffH
	DD	imagerel ?PMC_Add_X_X_Imp@Internal@Core@Math@Palmtree@@YAPEAU__tag_NUMBER_HEADER@1234@PEAU51234@0@Z+189
	DD	00H
	DD	imagerel ?PMC_Add_X_X_Imp@Internal@Core@Math@Palmtree@@YAPEAU__tag_NUMBER_HEADER@1234@PEAU51234@0@Z+419
	DD	0ffffffffH
xdata	ENDS
;	COMDAT xdata
xdata	SEGMENT
$stateUnwindMap$?PMC_Add_X_X_Imp@Internal@Core@Math@Palmtree@@YAPEAU__tag_NUMBER_HEADER@1234@PEAU51234@0@Z DD 0ffffffffH
	DD	imagerel ?dtor$0@?0??PMC_Add_X_X_Imp@Internal@Core@Math@Palmtree@@YAPEAU__tag_NUMBER_HEADER@1234@PEAU51234@0@Z@4HA
xdata	ENDS
;	COMDAT xdata
xdata	SEGMENT
$unwind$?PMC_Add_X_X_Imp@Internal@Core@Math@Palmtree@@YAPEAU__tag_NUMBER_HEADER@1234@PEAU51234@0@Z DD 035053a11H
	DD	01133318H
	DD	0700c003fH
	DD	0500bH
	DD	imagerel __CxxFrameHandler3
	DD	imagerel $cppxdata$?PMC_Add_X_X_Imp@Internal@Core@Math@Palmtree@@YAPEAU__tag_NUMBER_HEADER@1234@PEAU51234@0@Z
xdata	ENDS
;	COMDAT CONST
CONST	SEGMENT
?PMC_Add_X_X_Imp@Internal@Core@Math@Palmtree@@YAPEAU__tag_NUMBER_HEADER@1234@PEAU51234@0@Z$rtcName$0 DB 072H ; Palmtree::Math::Core::Internal::PMC_Add_X_X_Imp
	DB	06fH
	DB	06fH
	DB	074H
	DB	00H
	ORG $+11
?PMC_Add_X_X_Imp@Internal@Core@Math@Palmtree@@YAPEAU__tag_NUMBER_HEADER@1234@PEAU51234@0@Z$rtcVarDesc DD 038H ; Palmtree::Math::Core::Internal::PMC_Add_X_X_Imp
	DD	020H
	DQ	FLAT:?PMC_Add_X_X_Imp@Internal@Core@Math@Palmtree@@YAPEAU__tag_NUMBER_HEADER@1234@PEAU51234@0@Z$rtcName$0
	ORG $+48
?PMC_Add_X_X_Imp@Internal@Core@Math@Palmtree@@YAPEAU__tag_NUMBER_HEADER@1234@PEAU51234@0@Z$rtcFrameData DD 01H ; Palmtree::Math::Core::Internal::PMC_Add_X_X_Imp
	DD	00H
	DQ	FLAT:?PMC_Add_X_X_Imp@Internal@Core@Math@Palmtree@@YAPEAU__tag_NUMBER_HEADER@1234@PEAU51234@0@Z$rtcVarDesc
$cppxdata$?PMC_Add_X_X_Imp@Internal@Core@Math@Palmtree@@YAPEAU__tag_NUMBER_HEADER@1234@PEAU51234@0@Z DD 019930522H
	DD	01H
	DD	imagerel $stateUnwindMap$?PMC_Add_X_X_Imp@Internal@Core@Math@Palmtree@@YAPEAU__tag_NUMBER_HEADER@1234@PEAU51234@0@Z
	DD	00H
	DD	00H
	DD	03H
	DD	imagerel $ip2state$?PMC_Add_X_X_Imp@Internal@Core@Math@Palmtree@@YAPEAU__tag_NUMBER_HEADER@1234@PEAU51234@0@Z
	DD	01d8H
	DD	00H
	DD	00H
CONST	ENDS
;	COMDAT xdata
xdata	SEGMENT
$unwind$??_GInternalErrorException@Internal@Core@Math@Palmtree@@UEAAPEAXI@Z DD 025052e01H
	DD	01122317H
	DD	0700b001dH
	DD	0500aH
xdata	ENDS
;	COMDAT xdata
xdata	SEGMENT
$unwind$?dtor$0@?0???1InternalErrorException@Internal@Core@Math@Palmtree@@UEAA@XZ@4HA DD 031001H
	DD	0700c4210H
	DD	0500bH
xdata	ENDS
;	COMDAT xdata
xdata	SEGMENT
$ip2state$??1InternalErrorException@Internal@Core@Math@Palmtree@@UEAA@XZ DD imagerel ??1InternalErrorException@Internal@Core@Math@Palmtree@@UEAA@XZ
	DD	0ffffffffH
xdata	ENDS
;	COMDAT xdata
xdata	SEGMENT
$stateUnwindMap$??1InternalErrorException@Internal@Core@Math@Palmtree@@UEAA@XZ DD 0ffffffffH
	DD	imagerel ?dtor$0@?0???1InternalErrorException@Internal@Core@Math@Palmtree@@UEAA@XZ@4HA
xdata	ENDS
;	COMDAT CONST
CONST	SEGMENT
$cppxdata$??1InternalErrorException@Internal@Core@Math@Palmtree@@UEAA@XZ DD 019930522H
	DD	01H
	DD	imagerel $stateUnwindMap$??1InternalErrorException@Internal@Core@Math@Palmtree@@UEAA@XZ
	DD	00H
	DD	00H
	DD	01H
	DD	imagerel $ip2state$??1InternalErrorException@Internal@Core@Math@Palmtree@@UEAA@XZ
	DD	0e8H
	DD	00H
	DD	04H
CONST	ENDS
;	COMDAT xdata
xdata	SEGMENT
$unwind$??1InternalErrorException@Internal@Core@Math@Palmtree@@UEAA@XZ DD 025053519H
	DD	010e2313H
	DD	070070021H
	DD	05006H
	DD	imagerel __CxxFrameHandler3
	DD	imagerel $cppxdata$??1InternalErrorException@Internal@Core@Math@Palmtree@@UEAA@XZ
xdata	ENDS
;	COMDAT xdata
xdata	SEGMENT
$unwind$?dtor$0@?0???0InternalErrorException@Internal@Core@Math@Palmtree@@QEAA@AEBV01234@@Z@4HA DD 031001H
	DD	0700c4210H
	DD	0500bH
xdata	ENDS
;	COMDAT xdata
xdata	SEGMENT
$ip2state$??0InternalErrorException@Internal@Core@Math@Palmtree@@QEAA@AEBV01234@@Z DD imagerel ??0InternalErrorException@Internal@Core@Math@Palmtree@@QEAA@AEBV01234@@Z
	DD	0ffffffffH
	DD	imagerel ??0InternalErrorException@Internal@Core@Math@Palmtree@@QEAA@AEBV01234@@Z+91
	DD	00H
	DD	imagerel ??0InternalErrorException@Internal@Core@Math@Palmtree@@QEAA@AEBV01234@@Z+108
	DD	0ffffffffH
xdata	ENDS
;	COMDAT xdata
xdata	SEGMENT
$stateUnwindMap$??0InternalErrorException@Internal@Core@Math@Palmtree@@QEAA@AEBV01234@@Z DD 0ffffffffH
	DD	imagerel ?dtor$0@?0???0InternalErrorException@Internal@Core@Math@Palmtree@@QEAA@AEBV01234@@Z@4HA
xdata	ENDS
;	COMDAT CONST
CONST	SEGMENT
$cppxdata$??0InternalErrorException@Internal@Core@Math@Palmtree@@QEAA@AEBV01234@@Z DD 019930522H
	DD	01H
	DD	imagerel $stateUnwindMap$??0InternalErrorException@Internal@Core@Math@Palmtree@@QEAA@AEBV01234@@Z
	DD	00H
	DD	00H
	DD	03H
	DD	imagerel $ip2state$??0InternalErrorException@Internal@Core@Math@Palmtree@@QEAA@AEBV01234@@Z
	DD	0e8H
	DD	00H
	DD	04H
CONST	ENDS
;	COMDAT xdata
xdata	SEGMENT
$unwind$??0InternalErrorException@Internal@Core@Math@Palmtree@@QEAA@AEBV01234@@Z DD 025053a19H
	DD	01132318H
	DD	0700c0021H
	DD	0500bH
	DD	imagerel __CxxFrameHandler3
	DD	imagerel $cppxdata$??0InternalErrorException@Internal@Core@Math@Palmtree@@QEAA@AEBV01234@@Z
xdata	ENDS
;	COMDAT xdata
xdata	SEGMENT
$unwind$?dtor$0@?0???0InternalErrorException@Internal@Core@Math@Palmtree@@QEAA@PEB_W0@Z@4HA DD 031001H
	DD	0700c4210H
	DD	0500bH
xdata	ENDS
;	COMDAT xdata
xdata	SEGMENT
$ip2state$??0InternalErrorException@Internal@Core@Math@Palmtree@@QEAA@PEB_W0@Z DD imagerel ??0InternalErrorException@Internal@Core@Math@Palmtree@@QEAA@PEB_W0@Z
	DD	0ffffffffH
	DD	imagerel ??0InternalErrorException@Internal@Core@Math@Palmtree@@QEAA@PEB_W0@Z+108
	DD	00H
	DD	imagerel ??0InternalErrorException@Internal@Core@Math@Palmtree@@QEAA@PEB_W0@Z+125
	DD	0ffffffffH
xdata	ENDS
;	COMDAT xdata
xdata	SEGMENT
$stateUnwindMap$??0InternalErrorException@Internal@Core@Math@Palmtree@@QEAA@PEB_W0@Z DD 0ffffffffH
	DD	imagerel ?dtor$0@?0???0InternalErrorException@Internal@Core@Math@Palmtree@@QEAA@PEB_W0@Z@4HA
xdata	ENDS
;	COMDAT CONST
CONST	SEGMENT
$cppxdata$??0InternalErrorException@Internal@Core@Math@Palmtree@@QEAA@PEB_W0@Z DD 019930522H
	DD	01H
	DD	imagerel $stateUnwindMap$??0InternalErrorException@Internal@Core@Math@Palmtree@@QEAA@PEB_W0@Z
	DD	00H
	DD	00H
	DD	03H
	DD	imagerel $ip2state$??0InternalErrorException@Internal@Core@Math@Palmtree@@QEAA@PEB_W0@Z
	DD	0e8H
	DD	00H
	DD	04H
CONST	ENDS
;	COMDAT xdata
xdata	SEGMENT
$unwind$??0InternalErrorException@Internal@Core@Math@Palmtree@@QEAA@PEB_W0@Z DD 025053f19H
	DD	0118231dH
	DD	070110021H
	DD	05010H
	DD	imagerel __CxxFrameHandler3
	DD	imagerel $cppxdata$??0InternalErrorException@Internal@Core@Math@Palmtree@@QEAA@PEB_W0@Z
xdata	ENDS
;	COMDAT xdata
xdata	SEGMENT
$unwind$??_GArgumentNullException@Internal@Core@Math@Palmtree@@UEAAPEAXI@Z DD 025052e01H
	DD	01122317H
	DD	0700b001dH
	DD	0500aH
xdata	ENDS
;	COMDAT xdata
xdata	SEGMENT
$unwind$?dtor$0@?0???1ArgumentNullException@Internal@Core@Math@Palmtree@@UEAA@XZ@4HA DD 031001H
	DD	0700c4210H
	DD	0500bH
xdata	ENDS
;	COMDAT xdata
xdata	SEGMENT
$ip2state$??1ArgumentNullException@Internal@Core@Math@Palmtree@@UEAA@XZ DD imagerel ??1ArgumentNullException@Internal@Core@Math@Palmtree@@UEAA@XZ
	DD	0ffffffffH
xdata	ENDS
;	COMDAT xdata
xdata	SEGMENT
$stateUnwindMap$??1ArgumentNullException@Internal@Core@Math@Palmtree@@UEAA@XZ DD 0ffffffffH
	DD	imagerel ?dtor$0@?0???1ArgumentNullException@Internal@Core@Math@Palmtree@@UEAA@XZ@4HA
xdata	ENDS
;	COMDAT CONST
CONST	SEGMENT
$cppxdata$??1ArgumentNullException@Internal@Core@Math@Palmtree@@UEAA@XZ DD 019930522H
	DD	01H
	DD	imagerel $stateUnwindMap$??1ArgumentNullException@Internal@Core@Math@Palmtree@@UEAA@XZ
	DD	00H
	DD	00H
	DD	01H
	DD	imagerel $ip2state$??1ArgumentNullException@Internal@Core@Math@Palmtree@@UEAA@XZ
	DD	0e8H
	DD	00H
	DD	04H
CONST	ENDS
;	COMDAT xdata
xdata	SEGMENT
$unwind$??1ArgumentNullException@Internal@Core@Math@Palmtree@@UEAA@XZ DD 025053519H
	DD	010e2313H
	DD	070070021H
	DD	05006H
	DD	imagerel __CxxFrameHandler3
	DD	imagerel $cppxdata$??1ArgumentNullException@Internal@Core@Math@Palmtree@@UEAA@XZ
xdata	ENDS
;	COMDAT xdata
xdata	SEGMENT
$unwind$?dtor$0@?0???0ArgumentNullException@Internal@Core@Math@Palmtree@@QEAA@AEBV01234@@Z@4HA DD 031001H
	DD	0700c4210H
	DD	0500bH
xdata	ENDS
;	COMDAT xdata
xdata	SEGMENT
$ip2state$??0ArgumentNullException@Internal@Core@Math@Palmtree@@QEAA@AEBV01234@@Z DD imagerel ??0ArgumentNullException@Internal@Core@Math@Palmtree@@QEAA@AEBV01234@@Z
	DD	0ffffffffH
	DD	imagerel ??0ArgumentNullException@Internal@Core@Math@Palmtree@@QEAA@AEBV01234@@Z+91
	DD	00H
	DD	imagerel ??0ArgumentNullException@Internal@Core@Math@Palmtree@@QEAA@AEBV01234@@Z+108
	DD	0ffffffffH
xdata	ENDS
;	COMDAT xdata
xdata	SEGMENT
$stateUnwindMap$??0ArgumentNullException@Internal@Core@Math@Palmtree@@QEAA@AEBV01234@@Z DD 0ffffffffH
	DD	imagerel ?dtor$0@?0???0ArgumentNullException@Internal@Core@Math@Palmtree@@QEAA@AEBV01234@@Z@4HA
xdata	ENDS
;	COMDAT CONST
CONST	SEGMENT
$cppxdata$??0ArgumentNullException@Internal@Core@Math@Palmtree@@QEAA@AEBV01234@@Z DD 019930522H
	DD	01H
	DD	imagerel $stateUnwindMap$??0ArgumentNullException@Internal@Core@Math@Palmtree@@QEAA@AEBV01234@@Z
	DD	00H
	DD	00H
	DD	03H
	DD	imagerel $ip2state$??0ArgumentNullException@Internal@Core@Math@Palmtree@@QEAA@AEBV01234@@Z
	DD	0e8H
	DD	00H
	DD	04H
CONST	ENDS
;	COMDAT xdata
xdata	SEGMENT
$unwind$??0ArgumentNullException@Internal@Core@Math@Palmtree@@QEAA@AEBV01234@@Z DD 025053a19H
	DD	01132318H
	DD	0700c0021H
	DD	0500bH
	DD	imagerel __CxxFrameHandler3
	DD	imagerel $cppxdata$??0ArgumentNullException@Internal@Core@Math@Palmtree@@QEAA@AEBV01234@@Z
xdata	ENDS
;	COMDAT xdata
xdata	SEGMENT
$unwind$?dtor$0@?0???0ArgumentNullException@Internal@Core@Math@Palmtree@@QEAA@PEB_W0@Z@4HA DD 031001H
	DD	0700c4210H
	DD	0500bH
xdata	ENDS
;	COMDAT xdata
xdata	SEGMENT
$ip2state$??0ArgumentNullException@Internal@Core@Math@Palmtree@@QEAA@PEB_W0@Z DD imagerel ??0ArgumentNullException@Internal@Core@Math@Palmtree@@QEAA@PEB_W0@Z
	DD	0ffffffffH
	DD	imagerel ??0ArgumentNullException@Internal@Core@Math@Palmtree@@QEAA@PEB_W0@Z+108
	DD	00H
	DD	imagerel ??0ArgumentNullException@Internal@Core@Math@Palmtree@@QEAA@PEB_W0@Z+125
	DD	0ffffffffH
xdata	ENDS
;	COMDAT xdata
xdata	SEGMENT
$stateUnwindMap$??0ArgumentNullException@Internal@Core@Math@Palmtree@@QEAA@PEB_W0@Z DD 0ffffffffH
	DD	imagerel ?dtor$0@?0???0ArgumentNullException@Internal@Core@Math@Palmtree@@QEAA@PEB_W0@Z@4HA
xdata	ENDS
;	COMDAT CONST
CONST	SEGMENT
$cppxdata$??0ArgumentNullException@Internal@Core@Math@Palmtree@@QEAA@PEB_W0@Z DD 019930522H
	DD	01H
	DD	imagerel $stateUnwindMap$??0ArgumentNullException@Internal@Core@Math@Palmtree@@QEAA@PEB_W0@Z
	DD	00H
	DD	00H
	DD	03H
	DD	imagerel $ip2state$??0ArgumentNullException@Internal@Core@Math@Palmtree@@QEAA@PEB_W0@Z
	DD	0e8H
	DD	00H
	DD	04H
CONST	ENDS
;	COMDAT xdata
xdata	SEGMENT
$unwind$??0ArgumentNullException@Internal@Core@Math@Palmtree@@QEAA@PEB_W0@Z DD 025053f19H
	DD	0118231dH
	DD	070110021H
	DD	05010H
	DD	imagerel __CxxFrameHandler3
	DD	imagerel $cppxdata$??0ArgumentNullException@Internal@Core@Math@Palmtree@@QEAA@PEB_W0@Z
xdata	ENDS
;	COMDAT xdata
xdata	SEGMENT
$unwind$??_GException@Internal@Core@Math@Palmtree@@UEAAPEAXI@Z DD 025052e01H
	DD	01122317H
	DD	0700b001dH
	DD	0500aH
xdata	ENDS
;	COMDAT xdata
xdata	SEGMENT
$unwind$?dtor$0@?0???1Exception@Internal@Core@Math@Palmtree@@UEAA@XZ@4HA DD 031001H
	DD	0700c4210H
	DD	0500bH
xdata	ENDS
;	COMDAT xdata
xdata	SEGMENT
$ip2state$??1Exception@Internal@Core@Math@Palmtree@@UEAA@XZ DD imagerel ??1Exception@Internal@Core@Math@Palmtree@@UEAA@XZ
	DD	0ffffffffH
xdata	ENDS
;	COMDAT xdata
xdata	SEGMENT
$stateUnwindMap$??1Exception@Internal@Core@Math@Palmtree@@UEAA@XZ DD 0ffffffffH
	DD	imagerel ?dtor$0@?0???1Exception@Internal@Core@Math@Palmtree@@UEAA@XZ@4HA
xdata	ENDS
;	COMDAT CONST
CONST	SEGMENT
$cppxdata$??1Exception@Internal@Core@Math@Palmtree@@UEAA@XZ DD 019930522H
	DD	01H
	DD	imagerel $stateUnwindMap$??1Exception@Internal@Core@Math@Palmtree@@UEAA@XZ
	DD	00H
	DD	00H
	DD	01H
	DD	imagerel $ip2state$??1Exception@Internal@Core@Math@Palmtree@@UEAA@XZ
	DD	0e8H
	DD	00H
	DD	04H
CONST	ENDS
;	COMDAT xdata
xdata	SEGMENT
$unwind$??1Exception@Internal@Core@Math@Palmtree@@UEAA@XZ DD 025053519H
	DD	010e2313H
	DD	070070021H
	DD	05006H
	DD	imagerel __CxxFrameHandler3
	DD	imagerel $cppxdata$??1Exception@Internal@Core@Math@Palmtree@@UEAA@XZ
xdata	ENDS
;	COMDAT xdata
xdata	SEGMENT
$unwind$?dtor$0@?0???0Exception@Internal@Core@Math@Palmtree@@QEAA@AEBV01234@@Z@4HA DD 031001H
	DD	0700c4210H
	DD	0500bH
xdata	ENDS
;	COMDAT xdata
xdata	SEGMENT
$ip2state$??0Exception@Internal@Core@Math@Palmtree@@QEAA@AEBV01234@@Z DD imagerel ??0Exception@Internal@Core@Math@Palmtree@@QEAA@AEBV01234@@Z
	DD	0ffffffffH
	DD	imagerel ??0Exception@Internal@Core@Math@Palmtree@@QEAA@AEBV01234@@Z+84
	DD	00H
	DD	imagerel ??0Exception@Internal@Core@Math@Palmtree@@QEAA@AEBV01234@@Z+165
	DD	0ffffffffH
xdata	ENDS
;	COMDAT xdata
xdata	SEGMENT
$stateUnwindMap$??0Exception@Internal@Core@Math@Palmtree@@QEAA@AEBV01234@@Z DD 0ffffffffH
	DD	imagerel ?dtor$0@?0???0Exception@Internal@Core@Math@Palmtree@@QEAA@AEBV01234@@Z@4HA
xdata	ENDS
;	COMDAT CONST
CONST	SEGMENT
$cppxdata$??0Exception@Internal@Core@Math@Palmtree@@QEAA@AEBV01234@@Z DD 019930522H
	DD	01H
	DD	imagerel $stateUnwindMap$??0Exception@Internal@Core@Math@Palmtree@@QEAA@AEBV01234@@Z
	DD	00H
	DD	00H
	DD	03H
	DD	imagerel $ip2state$??0Exception@Internal@Core@Math@Palmtree@@QEAA@AEBV01234@@Z
	DD	0e8H
	DD	00H
	DD	04H
CONST	ENDS
;	COMDAT xdata
xdata	SEGMENT
$unwind$??0Exception@Internal@Core@Math@Palmtree@@QEAA@AEBV01234@@Z DD 025053a19H
	DD	01132318H
	DD	0700c0021H
	DD	0500bH
	DD	imagerel __CxxFrameHandler3
	DD	imagerel $cppxdata$??0Exception@Internal@Core@Math@Palmtree@@QEAA@AEBV01234@@Z
xdata	ENDS
;	COMDAT xdata
xdata	SEGMENT
$unwind$?dtor$0@?0???0Exception@Internal@Core@Math@Palmtree@@IEAA@HPEB_W0@Z@4HA DD 031001H
	DD	0700c4210H
	DD	0500bH
xdata	ENDS
;	COMDAT xdata
xdata	SEGMENT
$ip2state$??0Exception@Internal@Core@Math@Palmtree@@IEAA@HPEB_W0@Z DD imagerel ??0Exception@Internal@Core@Math@Palmtree@@IEAA@HPEB_W0@Z
	DD	0ffffffffH
	DD	imagerel ??0Exception@Internal@Core@Math@Palmtree@@IEAA@HPEB_W0@Z+93
	DD	00H
	DD	imagerel ??0Exception@Internal@Core@Math@Palmtree@@IEAA@HPEB_W0@Z+162
	DD	0ffffffffH
xdata	ENDS
;	COMDAT xdata
xdata	SEGMENT
$stateUnwindMap$??0Exception@Internal@Core@Math@Palmtree@@IEAA@HPEB_W0@Z DD 0ffffffffH
	DD	imagerel ?dtor$0@?0???0Exception@Internal@Core@Math@Palmtree@@IEAA@HPEB_W0@Z@4HA
xdata	ENDS
;	COMDAT CONST
CONST	SEGMENT
$cppxdata$??0Exception@Internal@Core@Math@Palmtree@@IEAA@HPEB_W0@Z DD 019930522H
	DD	01H
	DD	imagerel $stateUnwindMap$??0Exception@Internal@Core@Math@Palmtree@@IEAA@HPEB_W0@Z
	DD	00H
	DD	00H
	DD	03H
	DD	imagerel $ip2state$??0Exception@Internal@Core@Math@Palmtree@@IEAA@HPEB_W0@Z
	DD	0e8H
	DD	00H
	DD	04H
CONST	ENDS
;	COMDAT xdata
xdata	SEGMENT
$unwind$??0Exception@Internal@Core@Math@Palmtree@@IEAA@HPEB_W0@Z DD 025054319H
	DD	011c2321H
	DD	070150021H
	DD	05014H
	DD	imagerel __CxxFrameHandler3
	DD	imagerel $cppxdata$??0Exception@Internal@Core@Math@Palmtree@@IEAA@HPEB_W0@Z
xdata	ENDS
;	COMDAT xdata
xdata	SEGMENT
$unwind$??_Gexception@std@@UEAAPEAXI@Z DD 025052e01H
	DD	01122317H
	DD	0700b001dH
	DD	0500aH
xdata	ENDS
;	COMDAT xdata
xdata	SEGMENT
$unwind$?what@exception@std@@UEBAPEBDXZ DD 025052a01H
	DD	010e2313H
	DD	07007001fH
	DD	05006H
xdata	ENDS
;	COMDAT xdata
xdata	SEGMENT
$ip2state$??1exception@std@@UEAA@XZ DD imagerel ??1exception@std@@UEAA@XZ
	DD	0ffffffffH
xdata	ENDS
;	COMDAT CONST
CONST	SEGMENT
$cppxdata$??1exception@std@@UEAA@XZ DD 019930522H
	DD	00H
	DD	00H
	DD	00H
	DD	00H
	DD	01H
	DD	imagerel $ip2state$??1exception@std@@UEAA@XZ
	DD	0e8H
	DD	00H
	DD	04H
CONST	ENDS
;	COMDAT xdata
xdata	SEGMENT
$unwind$??1exception@std@@UEAA@XZ DD 025053519H
	DD	010e2313H
	DD	070070021H
	DD	05006H
	DD	imagerel __CxxFrameHandler3
	DD	imagerel $cppxdata$??1exception@std@@UEAA@XZ
xdata	ENDS
;	COMDAT xdata
xdata	SEGMENT
$ip2state$??0exception@std@@QEAA@XZ DD imagerel ??0exception@std@@QEAA@XZ
	DD	0ffffffffH
xdata	ENDS
;	COMDAT CONST
CONST	SEGMENT
$cppxdata$??0exception@std@@QEAA@XZ DD 019930522H
	DD	00H
	DD	00H
	DD	00H
	DD	00H
	DD	01H
	DD	imagerel $ip2state$??0exception@std@@QEAA@XZ
	DD	0e8H
	DD	00H
	DD	04H
CONST	ENDS
;	COMDAT xdata
xdata	SEGMENT
$unwind$??0exception@std@@QEAA@XZ DD 025053519H
	DD	010e2313H
	DD	070070021H
	DD	05006H
	DD	imagerel __CxxFrameHandler3
	DD	imagerel $cppxdata$??0exception@std@@QEAA@XZ
xdata	ENDS
; Function compile flags: /Odt
;	COMDAT __JustMyCode_Default
_TEXT	SEGMENT
__JustMyCode_Default PROC				; COMDAT
  00000	c2 00 00	 ret	 0
__JustMyCode_Default ENDP
_TEXT	ENDS
; Function compile flags: /Odtp /RTCsu /ZI
; File z:\sources\lunor\repos\rougemeilland\palmtree.math.core.uint\palmtree.math.core.uint\pmc_add.cpp
;	COMDAT ?PMC_Add_X_L_Imp@Internal@Core@Math@Palmtree@@YAPEAU__tag_NUMBER_HEADER@1234@PEAU51234@_K@Z
_TEXT	SEGMENT
u_bit_count$7 = 8
v_hi$8 = 36
v_lo$9 = 68
root$10 = 104
v_bit_count$11 = 168
w_bit_count$12 = 200
w$13 = 232
root$14 = 264
v_bit_count$15 = 328
w_bit_count$16 = 360
w$17 = 392
root$18 = 424
u_bit_count$19 = 488
v_bit_count$20 = 520
w_bit_count$21 = 552
w$22 = 584
$T23 = 1000
$T24 = 1032
$T25 = 1064
$T26 = 1096
u$ = 1152
v$ = 1160
?PMC_Add_X_L_Imp@Internal@Core@Math@Palmtree@@YAPEAU__tag_NUMBER_HEADER@1234@PEAU51234@_K@Z PROC ; Palmtree::Math::Core::Internal::PMC_Add_X_L_Imp, COMDAT

; 390  :     {

  00000	48 89 54 24 10	 mov	 QWORD PTR [rsp+16], rdx
  00005	48 89 4c 24 08	 mov	 QWORD PTR [rsp+8], rcx
  0000a	55		 push	 rbp
  0000b	57		 push	 rdi
  0000c	48 81 ec 98 04
	00 00		 sub	 rsp, 1176		; 00000498H
  00013	48 8d 6c 24 30	 lea	 rbp, QWORD PTR [rsp+48]
  00018	48 8b fc	 mov	 rdi, rsp
  0001b	b9 26 01 00 00	 mov	 ecx, 294		; 00000126H
  00020	b8 cc cc cc cc	 mov	 eax, -858993460		; ccccccccH
  00025	f3 ab		 rep stosd
  00027	48 8b 8c 24 b8
	04 00 00	 mov	 rcx, QWORD PTR [rsp+1208]
  0002f	48 c7 85 48 04
	00 00 fe ff ff
	ff		 mov	 QWORD PTR $T26[rbp], -2
  0003a	48 8d 0d 00 00
	00 00		 lea	 rcx, OFFSET FLAT:__AF70AA4D_pmc_add@cpp
  00041	e8 00 00 00 00	 call	 __CheckForDebuggerJustMyCode

; 391  :         if (u->IS_ZERO)

  00046	48 8b 85 80 04
	00 00		 mov	 rax, QWORD PTR u$[rbp]
  0004d	8b 40 08	 mov	 eax, DWORD PTR [rax+8]
  00050	83 e0 01	 and	 eax, 1
  00053	85 c0		 test	 eax, eax
  00055	74 2e		 je	 SHORT $LN2@PMC_Add_X_

; 392  :         {
; 393  :             // u  0 
; 394  : 
; 395  :             if (v == 0)

  00057	48 83 bd 88 04
	00 00 00	 cmp	 QWORD PTR v$[rbp], 0
  0005f	75 0e		 jne	 SHORT $LN4@PMC_Add_X_

; 396  :             {
; 397  :                 // v  0 
; 398  : 
; 399  :                 // u  v  0  0 
; 400  :                 return (&number_zero);

  00061	48 8d 05 00 00
	00 00		 lea	 rax, OFFSET FLAT:?number_zero@Internal@Core@Math@Palmtree@@3U__tag_NUMBER_HEADER@1234@A ; Palmtree::Math::Core::Internal::number_zero
  00068	e9 5c 03 00 00	 jmp	 $LN1@PMC_Add_X_

; 401  :             }
; 402  :             else

  0006d	eb 11		 jmp	 SHORT $LN5@PMC_Add_X_
$LN4@PMC_Add_X_:

; 403  :             {
; 404  :                 // v  0 
; 405  : 
; 406  :                 //  v  NUMBER_HEADER 
; 407  :                 return (From_L_Imp(v));

  0006f	48 8b 8d 88 04
	00 00		 mov	 rcx, QWORD PTR v$[rbp]
  00076	e8 00 00 00 00	 call	 ?From_L_Imp@Internal@Core@Math@Palmtree@@YAPEAU__tag_NUMBER_HEADER@1234@_K@Z ; Palmtree::Math::Core::Internal::From_L_Imp
  0007b	e9 49 03 00 00	 jmp	 $LN1@PMC_Add_X_
$LN5@PMC_Add_X_:

; 408  :             }
; 409  :         }
; 410  :         else

  00080	e9 44 03 00 00	 jmp	 $LN1@PMC_Add_X_
$LN2@PMC_Add_X_:

; 411  :         {
; 412  :             // u  0 
; 413  : 
; 414  :             if (v == 0)

  00085	48 83 bd 88 04
	00 00 00	 cmp	 QWORD PTR v$[rbp], 0
  0008d	75 16		 jne	 SHORT $LN6@PMC_Add_X_

; 415  :             {
; 416  :                 // v  0 
; 417  : 
; 418  :                 //  u  NUMBER_HEADER 
; 419  :                 return (DuplicateNumber(u));

  0008f	48 8b 8d 80 04
	00 00		 mov	 rcx, QWORD PTR u$[rbp]
  00096	e8 00 00 00 00	 call	 ?DuplicateNumber@Internal@Core@Math@Palmtree@@YAPEAU__tag_NUMBER_HEADER@1234@PEAU51234@@Z ; Palmtree::Math::Core::Internal::DuplicateNumber
  0009b	e9 29 03 00 00	 jmp	 $LN1@PMC_Add_X_

; 420  :             }
; 421  :             else

  000a0	e9 24 03 00 00	 jmp	 $LN1@PMC_Add_X_
$LN6@PMC_Add_X_:

; 422  :             {
; 423  :                 // u  v  0 
; 424  : 
; 425  :                 // u  v 
; 426  :                 if (__UNIT_TYPE_BIT_COUNT < sizeof(v) * 8)

  000a5	33 c0		 xor	 eax, eax
  000a7	85 c0		 test	 eax, eax
  000a9	0f 84 14 02 00
	00		 je	 $LN8@PMC_Add_X_

; 427  :                 {
; 428  :                     // _UINT64_T  1 
; 429  : 
; 430  :                     __UNIT_TYPE u_bit_count = u->UNIT_BIT_COUNT;

  000af	48 8b 85 80 04
	00 00		 mov	 rax, QWORD PTR u$[rbp]
  000b6	48 8b 40 20	 mov	 rax, QWORD PTR [rax+32]
  000ba	48 89 45 08	 mov	 QWORD PTR u_bit_count$7[rbp], rax

; 431  :                     _UINT32_T v_hi;
; 432  :                     _UINT32_T v_lo = _FROMDWORDTOWORD(v, &v_hi);

  000be	48 8d 55 24	 lea	 rdx, QWORD PTR v_hi$8[rbp]
  000c2	48 8b 8d 88 04
	00 00		 mov	 rcx, QWORD PTR v$[rbp]
  000c9	e8 00 00 00 00	 call	 _FROMDWORDTOWORD
  000ce	89 45 44	 mov	 DWORD PTR v_lo$9[rbp], eax

; 433  :                     if (v_hi == 0)

  000d1	83 7d 24 00	 cmp	 DWORD PTR v_hi$8[rbp], 0
  000d5	0f 85 e7 00 00
	00		 jne	 $LN10@PMC_Add_X_

; 434  :                     {
; 435  :                         // y  32bit 
; 436  : 
; 437  :                         ResourceHolderUINT root;

  000db	48 8d 4d 68	 lea	 rcx, QWORD PTR root$10[rbp]
  000df	e8 00 00 00 00	 call	 ??0ResourceHolderUINT@Internal@Core@Math@Palmtree@@QEAA@XZ ; Palmtree::Math::Core::Internal::ResourceHolderUINT::ResourceHolderUINT
  000e4	90		 npad	 1

; 438  :                         __UNIT_TYPE v_bit_count = sizeof(v_lo) * 8 - _LZCNT_ALT_32(v_lo);

  000e5	8b 4d 44	 mov	 ecx, DWORD PTR v_lo$9[rbp]
  000e8	e8 00 00 00 00	 call	 _LZCNT_ALT_32
  000ed	48 98		 cdqe
  000ef	b9 20 00 00 00	 mov	 ecx, 32			; 00000020H
  000f4	48 2b c8	 sub	 rcx, rax
  000f7	48 8b c1	 mov	 rax, rcx
  000fa	48 89 85 a8 00
	00 00		 mov	 QWORD PTR v_bit_count$11[rbp], rax

; 439  :                         __UNIT_TYPE w_bit_count = _MAXIMUM_UNIT(u_bit_count, v_bit_count) + 1;

  00101	48 8b 95 a8 00
	00 00		 mov	 rdx, QWORD PTR v_bit_count$11[rbp]
  00108	48 8b 4d 08	 mov	 rcx, QWORD PTR u_bit_count$7[rbp]
  0010c	e8 00 00 00 00	 call	 _MAXIMUM_UNIT
  00111	48 ff c0	 inc	 rax
  00114	48 89 85 c8 00
	00 00		 mov	 QWORD PTR w_bit_count$12[rbp], rax

; 440  :                         NUMBER_HEADER* w = root.AllocateNumber(w_bit_count);

  0011b	48 8b 95 c8 00
	00 00		 mov	 rdx, QWORD PTR w_bit_count$12[rbp]
  00122	48 8d 4d 68	 lea	 rcx, QWORD PTR root$10[rbp]
  00126	e8 00 00 00 00	 call	 ?AllocateNumber@ResourceHolderUINT@Internal@Core@Math@Palmtree@@QEAAPEAU__tag_NUMBER_HEADER@2345@_K@Z ; Palmtree::Math::Core::Internal::ResourceHolderUINT::AllocateNumber
  0012b	48 89 85 e8 00
	00 00		 mov	 QWORD PTR w$13[rbp], rax

; 441  :                         Add_X_1W(u->BLOCK, u->UNIT_WORD_COUNT, v_lo, w->BLOCK, w->BLOCK_COUNT);

  00132	8b 45 44	 mov	 eax, DWORD PTR v_lo$9[rbp]
  00135	48 8b 8d e8 00
	00 00		 mov	 rcx, QWORD PTR w$13[rbp]
  0013c	48 8b 49 38	 mov	 rcx, QWORD PTR [rcx+56]
  00140	48 89 4c 24 20	 mov	 QWORD PTR [rsp+32], rcx
  00145	48 8b 8d e8 00
	00 00		 mov	 rcx, QWORD PTR w$13[rbp]
  0014c	4c 8b 49 40	 mov	 r9, QWORD PTR [rcx+64]
  00150	44 8b c0	 mov	 r8d, eax
  00153	48 8b 85 80 04
	00 00		 mov	 rax, QWORD PTR u$[rbp]
  0015a	48 8b 50 18	 mov	 rdx, QWORD PTR [rax+24]
  0015e	48 8b 85 80 04
	00 00		 mov	 rax, QWORD PTR u$[rbp]
  00165	48 8b 48 40	 mov	 rcx, QWORD PTR [rax+64]
  00169	e8 00 00 00 00	 call	 ?Add_X_1W@Internal@Core@Math@Palmtree@@YAXPEA_K_K101@Z ; Palmtree::Math::Core::Internal::Add_X_1W

; 442  :                         root.CheckNumber(w);

  0016e	48 8b 95 e8 00
	00 00		 mov	 rdx, QWORD PTR w$13[rbp]
  00175	48 8d 4d 68	 lea	 rcx, QWORD PTR root$10[rbp]
  00179	e8 00 00 00 00	 call	 ?CheckNumber@ResourceHolderUINT@Internal@Core@Math@Palmtree@@QEAAXPEAU__tag_NUMBER_HEADER@2345@@Z ; Palmtree::Math::Core::Internal::ResourceHolderUINT::CheckNumber

; 443  :                         CommitNumber(w);

  0017e	48 8b 8d e8 00
	00 00		 mov	 rcx, QWORD PTR w$13[rbp]
  00185	e8 00 00 00 00	 call	 ?CommitNumber@Internal@Core@Math@Palmtree@@YAXPEAU__tag_NUMBER_HEADER@1234@@Z ; Palmtree::Math::Core::Internal::CommitNumber

; 444  :                         root.UnlinkNumber(w);

  0018a	48 8b 95 e8 00
	00 00		 mov	 rdx, QWORD PTR w$13[rbp]
  00191	48 8d 4d 68	 lea	 rcx, QWORD PTR root$10[rbp]
  00195	e8 00 00 00 00	 call	 ?UnlinkNumber@ResourceHolderUINT@Internal@Core@Math@Palmtree@@QEAAXPEAU__tag_NUMBER_HEADER@2345@@Z ; Palmtree::Math::Core::Internal::ResourceHolderUINT::UnlinkNumber

; 445  :                         return (w);

  0019a	48 8b 85 e8 00
	00 00		 mov	 rax, QWORD PTR w$13[rbp]
  001a1	48 89 85 e8 03
	00 00		 mov	 QWORD PTR $T23[rbp], rax
  001a8	48 8d 4d 68	 lea	 rcx, QWORD PTR root$10[rbp]
  001ac	e8 00 00 00 00	 call	 ??1ResourceHolderUINT@Internal@Core@Math@Palmtree@@UEAA@XZ ; Palmtree::Math::Core::Internal::ResourceHolderUINT::~ResourceHolderUINT
  001b1	48 8b 85 e8 03
	00 00		 mov	 rax, QWORD PTR $T23[rbp]
  001b8	e9 0c 02 00 00	 jmp	 $LN1@PMC_Add_X_

; 446  :                     }
; 447  :                     else

  001bd	e9 fc 00 00 00	 jmp	 $LN11@PMC_Add_X_
$LN10@PMC_Add_X_:

; 448  :                     {
; 449  :                         // y  32bit 
; 450  : 
; 451  :                         ResourceHolderUINT root;

  001c2	48 8d 8d 08 01
	00 00		 lea	 rcx, QWORD PTR root$14[rbp]
  001c9	e8 00 00 00 00	 call	 ??0ResourceHolderUINT@Internal@Core@Math@Palmtree@@QEAA@XZ ; Palmtree::Math::Core::Internal::ResourceHolderUINT::ResourceHolderUINT
  001ce	90		 npad	 1

; 452  :                         __UNIT_TYPE v_bit_count = sizeof(v) * 8 - _LZCNT_ALT_32(v_hi);

  001cf	8b 4d 24	 mov	 ecx, DWORD PTR v_hi$8[rbp]
  001d2	e8 00 00 00 00	 call	 _LZCNT_ALT_32
  001d7	48 98		 cdqe
  001d9	b9 40 00 00 00	 mov	 ecx, 64			; 00000040H
  001de	48 2b c8	 sub	 rcx, rax
  001e1	48 8b c1	 mov	 rax, rcx
  001e4	48 89 85 48 01
	00 00		 mov	 QWORD PTR v_bit_count$15[rbp], rax

; 453  :                         __UNIT_TYPE w_bit_count = _MAXIMUM_UNIT(u_bit_count, v_bit_count) + 1;

  001eb	48 8b 95 48 01
	00 00		 mov	 rdx, QWORD PTR v_bit_count$15[rbp]
  001f2	48 8b 4d 08	 mov	 rcx, QWORD PTR u_bit_count$7[rbp]
  001f6	e8 00 00 00 00	 call	 _MAXIMUM_UNIT
  001fb	48 ff c0	 inc	 rax
  001fe	48 89 85 68 01
	00 00		 mov	 QWORD PTR w_bit_count$16[rbp], rax

; 454  :                         NUMBER_HEADER* w = root.AllocateNumber(w_bit_count);

  00205	48 8b 95 68 01
	00 00		 mov	 rdx, QWORD PTR w_bit_count$16[rbp]
  0020c	48 8d 8d 08 01
	00 00		 lea	 rcx, QWORD PTR root$14[rbp]
  00213	e8 00 00 00 00	 call	 ?AllocateNumber@ResourceHolderUINT@Internal@Core@Math@Palmtree@@QEAAPEAU__tag_NUMBER_HEADER@2345@_K@Z ; Palmtree::Math::Core::Internal::ResourceHolderUINT::AllocateNumber
  00218	48 89 85 88 01
	00 00		 mov	 QWORD PTR w$17[rbp], rax

; 455  :                         Add_X_2W(u->BLOCK, u->UNIT_WORD_COUNT, v_hi, v_lo, w->BLOCK, w->BLOCK_COUNT);

  0021f	8b 45 44	 mov	 eax, DWORD PTR v_lo$9[rbp]
  00222	8b 4d 24	 mov	 ecx, DWORD PTR v_hi$8[rbp]
  00225	48 8b 95 88 01
	00 00		 mov	 rdx, QWORD PTR w$17[rbp]
  0022c	48 8b 52 38	 mov	 rdx, QWORD PTR [rdx+56]
  00230	48 89 54 24 28	 mov	 QWORD PTR [rsp+40], rdx
  00235	48 8b 95 88 01
	00 00		 mov	 rdx, QWORD PTR w$17[rbp]
  0023c	48 8b 52 40	 mov	 rdx, QWORD PTR [rdx+64]
  00240	48 89 54 24 20	 mov	 QWORD PTR [rsp+32], rdx
  00245	44 8b c8	 mov	 r9d, eax
  00248	44 8b c1	 mov	 r8d, ecx
  0024b	48 8b 85 80 04
	00 00		 mov	 rax, QWORD PTR u$[rbp]
  00252	48 8b 50 18	 mov	 rdx, QWORD PTR [rax+24]
  00256	48 8b 85 80 04
	00 00		 mov	 rax, QWORD PTR u$[rbp]
  0025d	48 8b 48 40	 mov	 rcx, QWORD PTR [rax+64]
  00261	e8 00 00 00 00	 call	 ?Add_X_2W@Internal@Core@Math@Palmtree@@YAXPEA_K_K1101@Z ; Palmtree::Math::Core::Internal::Add_X_2W

; 456  :                         root.CheckNumber(w);

  00266	48 8b 95 88 01
	00 00		 mov	 rdx, QWORD PTR w$17[rbp]
  0026d	48 8d 8d 08 01
	00 00		 lea	 rcx, QWORD PTR root$14[rbp]
  00274	e8 00 00 00 00	 call	 ?CheckNumber@ResourceHolderUINT@Internal@Core@Math@Palmtree@@QEAAXPEAU__tag_NUMBER_HEADER@2345@@Z ; Palmtree::Math::Core::Internal::ResourceHolderUINT::CheckNumber

; 457  :                         CommitNumber(w);

  00279	48 8b 8d 88 01
	00 00		 mov	 rcx, QWORD PTR w$17[rbp]
  00280	e8 00 00 00 00	 call	 ?CommitNumber@Internal@Core@Math@Palmtree@@YAXPEAU__tag_NUMBER_HEADER@1234@@Z ; Palmtree::Math::Core::Internal::CommitNumber

; 458  :                         root.UnlinkNumber(w);

  00285	48 8b 95 88 01
	00 00		 mov	 rdx, QWORD PTR w$17[rbp]
  0028c	48 8d 8d 08 01
	00 00		 lea	 rcx, QWORD PTR root$14[rbp]
  00293	e8 00 00 00 00	 call	 ?UnlinkNumber@ResourceHolderUINT@Internal@Core@Math@Palmtree@@QEAAXPEAU__tag_NUMBER_HEADER@2345@@Z ; Palmtree::Math::Core::Internal::ResourceHolderUINT::UnlinkNumber

; 459  :                         return (w);

  00298	48 8b 85 88 01
	00 00		 mov	 rax, QWORD PTR w$17[rbp]
  0029f	48 89 85 08 04
	00 00		 mov	 QWORD PTR $T24[rbp], rax
  002a6	48 8d 8d 08 01
	00 00		 lea	 rcx, QWORD PTR root$14[rbp]
  002ad	e8 00 00 00 00	 call	 ??1ResourceHolderUINT@Internal@Core@Math@Palmtree@@UEAA@XZ ; Palmtree::Math::Core::Internal::ResourceHolderUINT::~ResourceHolderUINT
  002b2	48 8b 85 08 04
	00 00		 mov	 rax, QWORD PTR $T24[rbp]
  002b9	e9 0b 01 00 00	 jmp	 $LN1@PMC_Add_X_
$LN11@PMC_Add_X_:

; 460  :                     }
; 461  :                 }
; 462  :                 else

  002be	e9 06 01 00 00	 jmp	 $LN1@PMC_Add_X_
$LN8@PMC_Add_X_:

; 463  :                 {
; 464  :                     // _UINT64_T  1 
; 465  : 
; 466  :                     ResourceHolderUINT root;

  002c3	48 8d 8d a8 01
	00 00		 lea	 rcx, QWORD PTR root$18[rbp]
  002ca	e8 00 00 00 00	 call	 ??0ResourceHolderUINT@Internal@Core@Math@Palmtree@@QEAA@XZ ; Palmtree::Math::Core::Internal::ResourceHolderUINT::ResourceHolderUINT
  002cf	90		 npad	 1

; 467  :                     __UNIT_TYPE u_bit_count = u->UNIT_BIT_COUNT;

  002d0	48 8b 85 80 04
	00 00		 mov	 rax, QWORD PTR u$[rbp]
  002d7	48 8b 40 20	 mov	 rax, QWORD PTR [rax+32]
  002db	48 89 85 e8 01
	00 00		 mov	 QWORD PTR u_bit_count$19[rbp], rax

; 468  :                     __UNIT_TYPE v_bit_count = sizeof(v) * 8 - _LZCNT_ALT_UNIT((__UNIT_TYPE)v);

  002e2	48 8b 8d 88 04
	00 00		 mov	 rcx, QWORD PTR v$[rbp]
  002e9	e8 00 00 00 00	 call	 _LZCNT_ALT_UNIT
  002ee	48 98		 cdqe
  002f0	b9 40 00 00 00	 mov	 ecx, 64			; 00000040H
  002f5	48 2b c8	 sub	 rcx, rax
  002f8	48 8b c1	 mov	 rax, rcx
  002fb	48 89 85 08 02
	00 00		 mov	 QWORD PTR v_bit_count$20[rbp], rax

; 469  :                     __UNIT_TYPE w_bit_count = _MAXIMUM_UNIT(u_bit_count, v_bit_count) + 1;

  00302	48 8b 95 08 02
	00 00		 mov	 rdx, QWORD PTR v_bit_count$20[rbp]
  00309	48 8b 8d e8 01
	00 00		 mov	 rcx, QWORD PTR u_bit_count$19[rbp]
  00310	e8 00 00 00 00	 call	 _MAXIMUM_UNIT
  00315	48 ff c0	 inc	 rax
  00318	48 89 85 28 02
	00 00		 mov	 QWORD PTR w_bit_count$21[rbp], rax

; 470  :                     NUMBER_HEADER* w = root.AllocateNumber(w_bit_count);

  0031f	48 8b 95 28 02
	00 00		 mov	 rdx, QWORD PTR w_bit_count$21[rbp]
  00326	48 8d 8d a8 01
	00 00		 lea	 rcx, QWORD PTR root$18[rbp]
  0032d	e8 00 00 00 00	 call	 ?AllocateNumber@ResourceHolderUINT@Internal@Core@Math@Palmtree@@QEAAPEAU__tag_NUMBER_HEADER@2345@_K@Z ; Palmtree::Math::Core::Internal::ResourceHolderUINT::AllocateNumber
  00332	48 89 85 48 02
	00 00		 mov	 QWORD PTR w$22[rbp], rax

; 471  :                     Add_X_1W(u->BLOCK, u->UNIT_WORD_COUNT, (__UNIT_TYPE)v, w->BLOCK, w->BLOCK_COUNT);

  00339	48 8b 85 48 02
	00 00		 mov	 rax, QWORD PTR w$22[rbp]
  00340	48 8b 40 38	 mov	 rax, QWORD PTR [rax+56]
  00344	48 89 44 24 20	 mov	 QWORD PTR [rsp+32], rax
  00349	48 8b 85 48 02
	00 00		 mov	 rax, QWORD PTR w$22[rbp]
  00350	4c 8b 48 40	 mov	 r9, QWORD PTR [rax+64]
  00354	4c 8b 85 88 04
	00 00		 mov	 r8, QWORD PTR v$[rbp]
  0035b	48 8b 85 80 04
	00 00		 mov	 rax, QWORD PTR u$[rbp]
  00362	48 8b 50 18	 mov	 rdx, QWORD PTR [rax+24]
  00366	48 8b 85 80 04
	00 00		 mov	 rax, QWORD PTR u$[rbp]
  0036d	48 8b 48 40	 mov	 rcx, QWORD PTR [rax+64]
  00371	e8 00 00 00 00	 call	 ?Add_X_1W@Internal@Core@Math@Palmtree@@YAXPEA_K_K101@Z ; Palmtree::Math::Core::Internal::Add_X_1W

; 472  :                     root.CheckNumber(w);

  00376	48 8b 95 48 02
	00 00		 mov	 rdx, QWORD PTR w$22[rbp]
  0037d	48 8d 8d a8 01
	00 00		 lea	 rcx, QWORD PTR root$18[rbp]
  00384	e8 00 00 00 00	 call	 ?CheckNumber@ResourceHolderUINT@Internal@Core@Math@Palmtree@@QEAAXPEAU__tag_NUMBER_HEADER@2345@@Z ; Palmtree::Math::Core::Internal::ResourceHolderUINT::CheckNumber

; 473  :                     CommitNumber(w);

  00389	48 8b 8d 48 02
	00 00		 mov	 rcx, QWORD PTR w$22[rbp]
  00390	e8 00 00 00 00	 call	 ?CommitNumber@Internal@Core@Math@Palmtree@@YAXPEAU__tag_NUMBER_HEADER@1234@@Z ; Palmtree::Math::Core::Internal::CommitNumber

; 474  :                     root.UnlinkNumber(w);

  00395	48 8b 95 48 02
	00 00		 mov	 rdx, QWORD PTR w$22[rbp]
  0039c	48 8d 8d a8 01
	00 00		 lea	 rcx, QWORD PTR root$18[rbp]
  003a3	e8 00 00 00 00	 call	 ?UnlinkNumber@ResourceHolderUINT@Internal@Core@Math@Palmtree@@QEAAXPEAU__tag_NUMBER_HEADER@2345@@Z ; Palmtree::Math::Core::Internal::ResourceHolderUINT::UnlinkNumber

; 475  :                     return (w);

  003a8	48 8b 85 48 02
	00 00		 mov	 rax, QWORD PTR w$22[rbp]
  003af	48 89 85 28 04
	00 00		 mov	 QWORD PTR $T25[rbp], rax
  003b6	48 8d 8d a8 01
	00 00		 lea	 rcx, QWORD PTR root$18[rbp]
  003bd	e8 00 00 00 00	 call	 ??1ResourceHolderUINT@Internal@Core@Math@Palmtree@@UEAA@XZ ; Palmtree::Math::Core::Internal::ResourceHolderUINT::~ResourceHolderUINT
  003c2	48 8b 85 28 04
	00 00		 mov	 rax, QWORD PTR $T25[rbp]
$LN1@PMC_Add_X_:

; 476  :                 }
; 477  :             }
; 478  :         }
; 479  :     }

  003c9	48 8b f8	 mov	 rdi, rax
  003cc	48 8d 4d d0	 lea	 rcx, QWORD PTR [rbp-48]
  003d0	48 8d 15 00 00
	00 00		 lea	 rdx, OFFSET FLAT:?PMC_Add_X_L_Imp@Internal@Core@Math@Palmtree@@YAPEAU__tag_NUMBER_HEADER@1234@PEAU51234@_K@Z$rtcFrameData
  003d7	e8 00 00 00 00	 call	 _RTC_CheckStackVars
  003dc	48 8b c7	 mov	 rax, rdi
  003df	48 8d a5 68 04
	00 00		 lea	 rsp, QWORD PTR [rbp+1128]
  003e6	5f		 pop	 rdi
  003e7	5d		 pop	 rbp
  003e8	c3		 ret	 0
?PMC_Add_X_L_Imp@Internal@Core@Math@Palmtree@@YAPEAU__tag_NUMBER_HEADER@1234@PEAU51234@_K@Z ENDP ; Palmtree::Math::Core::Internal::PMC_Add_X_L_Imp
_TEXT	ENDS
;	COMDAT text$x
text$x	SEGMENT
u_bit_count$7 = 8
v_hi$8 = 36
v_lo$9 = 68
root$10 = 104
v_bit_count$11 = 168
w_bit_count$12 = 200
w$13 = 232
root$14 = 264
v_bit_count$15 = 328
w_bit_count$16 = 360
w$17 = 392
root$18 = 424
u_bit_count$19 = 488
v_bit_count$20 = 520
w_bit_count$21 = 552
w$22 = 584
$T23 = 1000
$T24 = 1032
$T25 = 1064
$T26 = 1096
u$ = 1152
v$ = 1160
?dtor$0@?0??PMC_Add_X_L_Imp@Internal@Core@Math@Palmtree@@YAPEAU__tag_NUMBER_HEADER@1234@PEAU51234@_K@Z@4HA PROC ; `Palmtree::Math::Core::Internal::PMC_Add_X_L_Imp'::`1'::dtor$0
  00000	48 89 4c 24 08	 mov	 QWORD PTR [rsp+8], rcx
  00005	48 89 54 24 10	 mov	 QWORD PTR [rsp+16], rdx
  0000a	55		 push	 rbp
  0000b	57		 push	 rdi
  0000c	48 83 ec 28	 sub	 rsp, 40			; 00000028H
  00010	48 8d 6a 30	 lea	 rbp, QWORD PTR [rdx+48]
  00014	48 8d 4d 68	 lea	 rcx, QWORD PTR root$10[rbp]
  00018	e8 00 00 00 00	 call	 ??1ResourceHolderUINT@Internal@Core@Math@Palmtree@@UEAA@XZ ; Palmtree::Math::Core::Internal::ResourceHolderUINT::~ResourceHolderUINT
  0001d	48 83 c4 28	 add	 rsp, 40			; 00000028H
  00021	5f		 pop	 rdi
  00022	5d		 pop	 rbp
  00023	c3		 ret	 0
?dtor$0@?0??PMC_Add_X_L_Imp@Internal@Core@Math@Palmtree@@YAPEAU__tag_NUMBER_HEADER@1234@PEAU51234@_K@Z@4HA ENDP ; `Palmtree::Math::Core::Internal::PMC_Add_X_L_Imp'::`1'::dtor$0
text$x	ENDS
;	COMDAT text$x
text$x	SEGMENT
u_bit_count$7 = 8
v_hi$8 = 36
v_lo$9 = 68
root$10 = 104
v_bit_count$11 = 168
w_bit_count$12 = 200
w$13 = 232
root$14 = 264
v_bit_count$15 = 328
w_bit_count$16 = 360
w$17 = 392
root$18 = 424
u_bit_count$19 = 488
v_bit_count$20 = 520
w_bit_count$21 = 552
w$22 = 584
$T23 = 1000
$T24 = 1032
$T25 = 1064
$T26 = 1096
u$ = 1152
v$ = 1160
?dtor$1@?0??PMC_Add_X_L_Imp@Internal@Core@Math@Palmtree@@YAPEAU__tag_NUMBER_HEADER@1234@PEAU51234@_K@Z@4HA PROC ; `Palmtree::Math::Core::Internal::PMC_Add_X_L_Imp'::`1'::dtor$1
  00000	48 89 4c 24 08	 mov	 QWORD PTR [rsp+8], rcx
  00005	48 89 54 24 10	 mov	 QWORD PTR [rsp+16], rdx
  0000a	55		 push	 rbp
  0000b	57		 push	 rdi
  0000c	48 83 ec 28	 sub	 rsp, 40			; 00000028H
  00010	48 8d 6a 30	 lea	 rbp, QWORD PTR [rdx+48]
  00014	48 8d 8d 08 01
	00 00		 lea	 rcx, QWORD PTR root$14[rbp]
  0001b	e8 00 00 00 00	 call	 ??1ResourceHolderUINT@Internal@Core@Math@Palmtree@@UEAA@XZ ; Palmtree::Math::Core::Internal::ResourceHolderUINT::~ResourceHolderUINT
  00020	48 83 c4 28	 add	 rsp, 40			; 00000028H
  00024	5f		 pop	 rdi
  00025	5d		 pop	 rbp
  00026	c3		 ret	 0
?dtor$1@?0??PMC_Add_X_L_Imp@Internal@Core@Math@Palmtree@@YAPEAU__tag_NUMBER_HEADER@1234@PEAU51234@_K@Z@4HA ENDP ; `Palmtree::Math::Core::Internal::PMC_Add_X_L_Imp'::`1'::dtor$1
text$x	ENDS
;	COMDAT text$x
text$x	SEGMENT
u_bit_count$7 = 8
v_hi$8 = 36
v_lo$9 = 68
root$10 = 104
v_bit_count$11 = 168
w_bit_count$12 = 200
w$13 = 232
root$14 = 264
v_bit_count$15 = 328
w_bit_count$16 = 360
w$17 = 392
root$18 = 424
u_bit_count$19 = 488
v_bit_count$20 = 520
w_bit_count$21 = 552
w$22 = 584
$T23 = 1000
$T24 = 1032
$T25 = 1064
$T26 = 1096
u$ = 1152
v$ = 1160
?dtor$2@?0??PMC_Add_X_L_Imp@Internal@Core@Math@Palmtree@@YAPEAU__tag_NUMBER_HEADER@1234@PEAU51234@_K@Z@4HA PROC ; `Palmtree::Math::Core::Internal::PMC_Add_X_L_Imp'::`1'::dtor$2
  00000	48 89 4c 24 08	 mov	 QWORD PTR [rsp+8], rcx
  00005	48 89 54 24 10	 mov	 QWORD PTR [rsp+16], rdx
  0000a	55		 push	 rbp
  0000b	57		 push	 rdi
  0000c	48 83 ec 28	 sub	 rsp, 40			; 00000028H
  00010	48 8d 6a 30	 lea	 rbp, QWORD PTR [rdx+48]
  00014	48 8d 8d a8 01
	00 00		 lea	 rcx, QWORD PTR root$18[rbp]
  0001b	e8 00 00 00 00	 call	 ??1ResourceHolderUINT@Internal@Core@Math@Palmtree@@UEAA@XZ ; Palmtree::Math::Core::Internal::ResourceHolderUINT::~ResourceHolderUINT
  00020	48 83 c4 28	 add	 rsp, 40			; 00000028H
  00024	5f		 pop	 rdi
  00025	5d		 pop	 rbp
  00026	c3		 ret	 0
?dtor$2@?0??PMC_Add_X_L_Imp@Internal@Core@Math@Palmtree@@YAPEAU__tag_NUMBER_HEADER@1234@PEAU51234@_K@Z@4HA ENDP ; `Palmtree::Math::Core::Internal::PMC_Add_X_L_Imp'::`1'::dtor$2
text$x	ENDS
; Function compile flags: /Odtp /RTCsu /ZI
;	COMDAT text$x
text$x	SEGMENT
u_bit_count$7 = 8
v_hi$8 = 36
v_lo$9 = 68
root$10 = 104
v_bit_count$11 = 168
w_bit_count$12 = 200
w$13 = 232
root$14 = 264
v_bit_count$15 = 328
w_bit_count$16 = 360
w$17 = 392
root$18 = 424
u_bit_count$19 = 488
v_bit_count$20 = 520
w_bit_count$21 = 552
w$22 = 584
$T23 = 1000
$T24 = 1032
$T25 = 1064
$T26 = 1096
u$ = 1152
v$ = 1160
?dtor$0@?0??PMC_Add_X_L_Imp@Internal@Core@Math@Palmtree@@YAPEAU__tag_NUMBER_HEADER@1234@PEAU51234@_K@Z@4HA PROC ; `Palmtree::Math::Core::Internal::PMC_Add_X_L_Imp'::`1'::dtor$0
  00000	48 89 4c 24 08	 mov	 QWORD PTR [rsp+8], rcx
  00005	48 89 54 24 10	 mov	 QWORD PTR [rsp+16], rdx
  0000a	55		 push	 rbp
  0000b	57		 push	 rdi
  0000c	48 83 ec 28	 sub	 rsp, 40			; 00000028H
  00010	48 8d 6a 30	 lea	 rbp, QWORD PTR [rdx+48]
  00014	48 8d 4d 68	 lea	 rcx, QWORD PTR root$10[rbp]
  00018	e8 00 00 00 00	 call	 ??1ResourceHolderUINT@Internal@Core@Math@Palmtree@@UEAA@XZ ; Palmtree::Math::Core::Internal::ResourceHolderUINT::~ResourceHolderUINT
  0001d	48 83 c4 28	 add	 rsp, 40			; 00000028H
  00021	5f		 pop	 rdi
  00022	5d		 pop	 rbp
  00023	c3		 ret	 0
?dtor$0@?0??PMC_Add_X_L_Imp@Internal@Core@Math@Palmtree@@YAPEAU__tag_NUMBER_HEADER@1234@PEAU51234@_K@Z@4HA ENDP ; `Palmtree::Math::Core::Internal::PMC_Add_X_L_Imp'::`1'::dtor$0
text$x	ENDS
; Function compile flags: /Odtp /RTCsu /ZI
;	COMDAT text$x
text$x	SEGMENT
u_bit_count$7 = 8
v_hi$8 = 36
v_lo$9 = 68
root$10 = 104
v_bit_count$11 = 168
w_bit_count$12 = 200
w$13 = 232
root$14 = 264
v_bit_count$15 = 328
w_bit_count$16 = 360
w$17 = 392
root$18 = 424
u_bit_count$19 = 488
v_bit_count$20 = 520
w_bit_count$21 = 552
w$22 = 584
$T23 = 1000
$T24 = 1032
$T25 = 1064
$T26 = 1096
u$ = 1152
v$ = 1160
?dtor$1@?0??PMC_Add_X_L_Imp@Internal@Core@Math@Palmtree@@YAPEAU__tag_NUMBER_HEADER@1234@PEAU51234@_K@Z@4HA PROC ; `Palmtree::Math::Core::Internal::PMC_Add_X_L_Imp'::`1'::dtor$1
  00000	48 89 4c 24 08	 mov	 QWORD PTR [rsp+8], rcx
  00005	48 89 54 24 10	 mov	 QWORD PTR [rsp+16], rdx
  0000a	55		 push	 rbp
  0000b	57		 push	 rdi
  0000c	48 83 ec 28	 sub	 rsp, 40			; 00000028H
  00010	48 8d 6a 30	 lea	 rbp, QWORD PTR [rdx+48]
  00014	48 8d 8d 08 01
	00 00		 lea	 rcx, QWORD PTR root$14[rbp]
  0001b	e8 00 00 00 00	 call	 ??1ResourceHolderUINT@Internal@Core@Math@Palmtree@@UEAA@XZ ; Palmtree::Math::Core::Internal::ResourceHolderUINT::~ResourceHolderUINT
  00020	48 83 c4 28	 add	 rsp, 40			; 00000028H
  00024	5f		 pop	 rdi
  00025	5d		 pop	 rbp
  00026	c3		 ret	 0
?dtor$1@?0??PMC_Add_X_L_Imp@Internal@Core@Math@Palmtree@@YAPEAU__tag_NUMBER_HEADER@1234@PEAU51234@_K@Z@4HA ENDP ; `Palmtree::Math::Core::Internal::PMC_Add_X_L_Imp'::`1'::dtor$1
text$x	ENDS
; Function compile flags: /Odtp /RTCsu /ZI
;	COMDAT text$x
text$x	SEGMENT
u_bit_count$7 = 8
v_hi$8 = 36
v_lo$9 = 68
root$10 = 104
v_bit_count$11 = 168
w_bit_count$12 = 200
w$13 = 232
root$14 = 264
v_bit_count$15 = 328
w_bit_count$16 = 360
w$17 = 392
root$18 = 424
u_bit_count$19 = 488
v_bit_count$20 = 520
w_bit_count$21 = 552
w$22 = 584
$T23 = 1000
$T24 = 1032
$T25 = 1064
$T26 = 1096
u$ = 1152
v$ = 1160
?dtor$2@?0??PMC_Add_X_L_Imp@Internal@Core@Math@Palmtree@@YAPEAU__tag_NUMBER_HEADER@1234@PEAU51234@_K@Z@4HA PROC ; `Palmtree::Math::Core::Internal::PMC_Add_X_L_Imp'::`1'::dtor$2
  00000	48 89 4c 24 08	 mov	 QWORD PTR [rsp+8], rcx
  00005	48 89 54 24 10	 mov	 QWORD PTR [rsp+16], rdx
  0000a	55		 push	 rbp
  0000b	57		 push	 rdi
  0000c	48 83 ec 28	 sub	 rsp, 40			; 00000028H
  00010	48 8d 6a 30	 lea	 rbp, QWORD PTR [rdx+48]
  00014	48 8d 8d a8 01
	00 00		 lea	 rcx, QWORD PTR root$18[rbp]
  0001b	e8 00 00 00 00	 call	 ??1ResourceHolderUINT@Internal@Core@Math@Palmtree@@UEAA@XZ ; Palmtree::Math::Core::Internal::ResourceHolderUINT::~ResourceHolderUINT
  00020	48 83 c4 28	 add	 rsp, 40			; 00000028H
  00024	5f		 pop	 rdi
  00025	5d		 pop	 rbp
  00026	c3		 ret	 0
?dtor$2@?0??PMC_Add_X_L_Imp@Internal@Core@Math@Palmtree@@YAPEAU__tag_NUMBER_HEADER@1234@PEAU51234@_K@Z@4HA ENDP ; `Palmtree::Math::Core::Internal::PMC_Add_X_L_Imp'::`1'::dtor$2
text$x	ENDS
; Function compile flags: /Odtp /RTCsu /ZI
; File z:\sources\lunor\repos\rougemeilland\palmtree.math.core.uint\palmtree.math.core.uint\pmc_add.cpp
;	COMDAT ?PMC_Add_X_I_Imp@Internal@Core@Math@Palmtree@@YAPEAU__tag_NUMBER_HEADER@1234@PEAU51234@I@Z
_TEXT	SEGMENT
root$4 = 8
u_bit_count$5 = 72
v_bit_count$6 = 104
w_bit_count$7 = 136
nw$8 = 168
$T9 = 392
$T10 = 424
nu$ = 480
v$ = 488
?PMC_Add_X_I_Imp@Internal@Core@Math@Palmtree@@YAPEAU__tag_NUMBER_HEADER@1234@PEAU51234@I@Z PROC ; Palmtree::Math::Core::Internal::PMC_Add_X_I_Imp, COMDAT

; 299  :     {

  00000	89 54 24 10	 mov	 DWORD PTR [rsp+16], edx
  00004	48 89 4c 24 08	 mov	 QWORD PTR [rsp+8], rcx
  00009	55		 push	 rbp
  0000a	57		 push	 rdi
  0000b	48 81 ec f8 01
	00 00		 sub	 rsp, 504		; 000001f8H
  00012	48 8d 6c 24 30	 lea	 rbp, QWORD PTR [rsp+48]
  00017	48 8b fc	 mov	 rdi, rsp
  0001a	b9 7e 00 00 00	 mov	 ecx, 126		; 0000007eH
  0001f	b8 cc cc cc cc	 mov	 eax, -858993460		; ccccccccH
  00024	f3 ab		 rep stosd
  00026	48 8b 8c 24 18
	02 00 00	 mov	 rcx, QWORD PTR [rsp+536]
  0002e	48 c7 85 a8 01
	00 00 fe ff ff
	ff		 mov	 QWORD PTR $T10[rbp], -2
  00039	48 8d 0d 00 00
	00 00		 lea	 rcx, OFFSET FLAT:__AF70AA4D_pmc_add@cpp
  00040	e8 00 00 00 00	 call	 __CheckForDebuggerJustMyCode

; 300  :         if (nu->IS_ZERO)

  00045	48 8b 85 e0 01
	00 00		 mov	 rax, QWORD PTR nu$[rbp]
  0004c	8b 40 08	 mov	 eax, DWORD PTR [rax+8]
  0004f	83 e0 01	 and	 eax, 1
  00052	85 c0		 test	 eax, eax
  00054	74 2c		 je	 SHORT $LN2@PMC_Add_X_

; 301  :         {
; 302  :             // x  0 
; 303  : 
; 304  :             if (v == 0)

  00056	83 bd e8 01 00
	00 00		 cmp	 DWORD PTR v$[rbp], 0
  0005d	75 0e		 jne	 SHORT $LN4@PMC_Add_X_

; 305  :             {
; 306  :                 // y  0 
; 307  : 
; 308  :                 // x  y  0  0 
; 309  :                 return (&number_zero);

  0005f	48 8d 05 00 00
	00 00		 lea	 rax, OFFSET FLAT:?number_zero@Internal@Core@Math@Palmtree@@3U__tag_NUMBER_HEADER@1234@A ; Palmtree::Math::Core::Internal::number_zero
  00066	e9 22 01 00 00	 jmp	 $LN1@PMC_Add_X_

; 310  :             }
; 311  :             else

  0006b	eb 10		 jmp	 SHORT $LN5@PMC_Add_X_
$LN4@PMC_Add_X_:

; 312  :             {
; 313  :                 // y  0 
; 314  : 
; 315  :                 //  y  NUMBER_HEADER 
; 316  :                 return (From_I_Imp(v));

  0006d	8b 8d e8 01 00
	00		 mov	 ecx, DWORD PTR v$[rbp]
  00073	e8 00 00 00 00	 call	 ?From_I_Imp@Internal@Core@Math@Palmtree@@YAPEAU__tag_NUMBER_HEADER@1234@I@Z ; Palmtree::Math::Core::Internal::From_I_Imp
  00078	e9 10 01 00 00	 jmp	 $LN1@PMC_Add_X_
$LN5@PMC_Add_X_:

; 317  :             }
; 318  :         }
; 319  :         else

  0007d	e9 0b 01 00 00	 jmp	 $LN1@PMC_Add_X_
$LN2@PMC_Add_X_:

; 320  :         {
; 321  :             // x  0 
; 322  : 
; 323  :             if (v == 0)

  00082	83 bd e8 01 00
	00 00		 cmp	 DWORD PTR v$[rbp], 0
  00089	75 16		 jne	 SHORT $LN6@PMC_Add_X_

; 324  :             {
; 325  :                 // y  0 
; 326  : 
; 327  :                 //  x  NUMBER_HEADER 
; 328  :                 return (DuplicateNumber(nu));

  0008b	48 8b 8d e0 01
	00 00		 mov	 rcx, QWORD PTR nu$[rbp]
  00092	e8 00 00 00 00	 call	 ?DuplicateNumber@Internal@Core@Math@Palmtree@@YAPEAU__tag_NUMBER_HEADER@1234@PEAU51234@@Z ; Palmtree::Math::Core::Internal::DuplicateNumber
  00097	e9 f1 00 00 00	 jmp	 $LN1@PMC_Add_X_

; 329  :             }
; 330  :             else

  0009c	e9 ec 00 00 00	 jmp	 $LN1@PMC_Add_X_
$LN6@PMC_Add_X_:

; 331  :             {
; 332  :                 // x  y  0 
; 333  : 
; 334  :                 // x  y 
; 335  :                 ResourceHolderUINT root;

  000a1	48 8d 4d 08	 lea	 rcx, QWORD PTR root$4[rbp]
  000a5	e8 00 00 00 00	 call	 ??0ResourceHolderUINT@Internal@Core@Math@Palmtree@@QEAA@XZ ; Palmtree::Math::Core::Internal::ResourceHolderUINT::ResourceHolderUINT
  000aa	90		 npad	 1

; 336  :                 __UNIT_TYPE u_bit_count = nu->UNIT_BIT_COUNT;

  000ab	48 8b 85 e0 01
	00 00		 mov	 rax, QWORD PTR nu$[rbp]
  000b2	48 8b 40 20	 mov	 rax, QWORD PTR [rax+32]
  000b6	48 89 45 48	 mov	 QWORD PTR u_bit_count$5[rbp], rax

; 337  :                 __UNIT_TYPE v_bit_count = sizeof(v) * 8 - _LZCNT_ALT_32(v);

  000ba	8b 8d e8 01 00
	00		 mov	 ecx, DWORD PTR v$[rbp]
  000c0	e8 00 00 00 00	 call	 _LZCNT_ALT_32
  000c5	48 98		 cdqe
  000c7	b9 20 00 00 00	 mov	 ecx, 32			; 00000020H
  000cc	48 2b c8	 sub	 rcx, rax
  000cf	48 8b c1	 mov	 rax, rcx
  000d2	48 89 45 68	 mov	 QWORD PTR v_bit_count$6[rbp], rax

; 338  :                 __UNIT_TYPE w_bit_count = _MAXIMUM_UNIT(u_bit_count, v_bit_count) + 1;

  000d6	48 8b 55 68	 mov	 rdx, QWORD PTR v_bit_count$6[rbp]
  000da	48 8b 4d 48	 mov	 rcx, QWORD PTR u_bit_count$5[rbp]
  000de	e8 00 00 00 00	 call	 _MAXIMUM_UNIT
  000e3	48 ff c0	 inc	 rax
  000e6	48 89 85 88 00
	00 00		 mov	 QWORD PTR w_bit_count$7[rbp], rax

; 339  :                 NUMBER_HEADER* nw = root.AllocateNumber(w_bit_count);

  000ed	48 8b 95 88 00
	00 00		 mov	 rdx, QWORD PTR w_bit_count$7[rbp]
  000f4	48 8d 4d 08	 lea	 rcx, QWORD PTR root$4[rbp]
  000f8	e8 00 00 00 00	 call	 ?AllocateNumber@ResourceHolderUINT@Internal@Core@Math@Palmtree@@QEAAPEAU__tag_NUMBER_HEADER@2345@_K@Z ; Palmtree::Math::Core::Internal::ResourceHolderUINT::AllocateNumber
  000fd	48 89 85 a8 00
	00 00		 mov	 QWORD PTR nw$8[rbp], rax

; 340  :                 Add_X_1W(nu->BLOCK, nu->UNIT_WORD_COUNT, v, nw->BLOCK, nw->BLOCK_COUNT);

  00104	8b 85 e8 01 00
	00		 mov	 eax, DWORD PTR v$[rbp]
  0010a	48 8b 8d a8 00
	00 00		 mov	 rcx, QWORD PTR nw$8[rbp]
  00111	48 8b 49 38	 mov	 rcx, QWORD PTR [rcx+56]
  00115	48 89 4c 24 20	 mov	 QWORD PTR [rsp+32], rcx
  0011a	48 8b 8d a8 00
	00 00		 mov	 rcx, QWORD PTR nw$8[rbp]
  00121	4c 8b 49 40	 mov	 r9, QWORD PTR [rcx+64]
  00125	44 8b c0	 mov	 r8d, eax
  00128	48 8b 85 e0 01
	00 00		 mov	 rax, QWORD PTR nu$[rbp]
  0012f	48 8b 50 18	 mov	 rdx, QWORD PTR [rax+24]
  00133	48 8b 85 e0 01
	00 00		 mov	 rax, QWORD PTR nu$[rbp]
  0013a	48 8b 48 40	 mov	 rcx, QWORD PTR [rax+64]
  0013e	e8 00 00 00 00	 call	 ?Add_X_1W@Internal@Core@Math@Palmtree@@YAXPEA_K_K101@Z ; Palmtree::Math::Core::Internal::Add_X_1W

; 341  :                 root.CheckNumber(nw);

  00143	48 8b 95 a8 00
	00 00		 mov	 rdx, QWORD PTR nw$8[rbp]
  0014a	48 8d 4d 08	 lea	 rcx, QWORD PTR root$4[rbp]
  0014e	e8 00 00 00 00	 call	 ?CheckNumber@ResourceHolderUINT@Internal@Core@Math@Palmtree@@QEAAXPEAU__tag_NUMBER_HEADER@2345@@Z ; Palmtree::Math::Core::Internal::ResourceHolderUINT::CheckNumber

; 342  :                 CommitNumber(nw);

  00153	48 8b 8d a8 00
	00 00		 mov	 rcx, QWORD PTR nw$8[rbp]
  0015a	e8 00 00 00 00	 call	 ?CommitNumber@Internal@Core@Math@Palmtree@@YAXPEAU__tag_NUMBER_HEADER@1234@@Z ; Palmtree::Math::Core::Internal::CommitNumber

; 343  :                 root.UnlinkNumber(nw);

  0015f	48 8b 95 a8 00
	00 00		 mov	 rdx, QWORD PTR nw$8[rbp]
  00166	48 8d 4d 08	 lea	 rcx, QWORD PTR root$4[rbp]
  0016a	e8 00 00 00 00	 call	 ?UnlinkNumber@ResourceHolderUINT@Internal@Core@Math@Palmtree@@QEAAXPEAU__tag_NUMBER_HEADER@2345@@Z ; Palmtree::Math::Core::Internal::ResourceHolderUINT::UnlinkNumber

; 344  :                 return (nw);

  0016f	48 8b 85 a8 00
	00 00		 mov	 rax, QWORD PTR nw$8[rbp]
  00176	48 89 85 88 01
	00 00		 mov	 QWORD PTR $T9[rbp], rax
  0017d	48 8d 4d 08	 lea	 rcx, QWORD PTR root$4[rbp]
  00181	e8 00 00 00 00	 call	 ??1ResourceHolderUINT@Internal@Core@Math@Palmtree@@UEAA@XZ ; Palmtree::Math::Core::Internal::ResourceHolderUINT::~ResourceHolderUINT
  00186	48 8b 85 88 01
	00 00		 mov	 rax, QWORD PTR $T9[rbp]
$LN1@PMC_Add_X_:

; 345  :             }
; 346  :         }
; 347  :     }

  0018d	48 8b f8	 mov	 rdi, rax
  00190	48 8d 4d d0	 lea	 rcx, QWORD PTR [rbp-48]
  00194	48 8d 15 00 00
	00 00		 lea	 rdx, OFFSET FLAT:?PMC_Add_X_I_Imp@Internal@Core@Math@Palmtree@@YAPEAU__tag_NUMBER_HEADER@1234@PEAU51234@I@Z$rtcFrameData
  0019b	e8 00 00 00 00	 call	 _RTC_CheckStackVars
  001a0	48 8b c7	 mov	 rax, rdi
  001a3	48 8d a5 c8 01
	00 00		 lea	 rsp, QWORD PTR [rbp+456]
  001aa	5f		 pop	 rdi
  001ab	5d		 pop	 rbp
  001ac	c3		 ret	 0
?PMC_Add_X_I_Imp@Internal@Core@Math@Palmtree@@YAPEAU__tag_NUMBER_HEADER@1234@PEAU51234@I@Z ENDP ; Palmtree::Math::Core::Internal::PMC_Add_X_I_Imp
_TEXT	ENDS
;	COMDAT text$x
text$x	SEGMENT
root$4 = 8
u_bit_count$5 = 72
v_bit_count$6 = 104
w_bit_count$7 = 136
nw$8 = 168
$T9 = 392
$T10 = 424
nu$ = 480
v$ = 488
?dtor$0@?0??PMC_Add_X_I_Imp@Internal@Core@Math@Palmtree@@YAPEAU__tag_NUMBER_HEADER@1234@PEAU51234@I@Z@4HA PROC ; `Palmtree::Math::Core::Internal::PMC_Add_X_I_Imp'::`1'::dtor$0
  00000	48 89 4c 24 08	 mov	 QWORD PTR [rsp+8], rcx
  00005	48 89 54 24 10	 mov	 QWORD PTR [rsp+16], rdx
  0000a	55		 push	 rbp
  0000b	57		 push	 rdi
  0000c	48 83 ec 28	 sub	 rsp, 40			; 00000028H
  00010	48 8d 6a 30	 lea	 rbp, QWORD PTR [rdx+48]
  00014	48 8d 4d 08	 lea	 rcx, QWORD PTR root$4[rbp]
  00018	e8 00 00 00 00	 call	 ??1ResourceHolderUINT@Internal@Core@Math@Palmtree@@UEAA@XZ ; Palmtree::Math::Core::Internal::ResourceHolderUINT::~ResourceHolderUINT
  0001d	48 83 c4 28	 add	 rsp, 40			; 00000028H
  00021	5f		 pop	 rdi
  00022	5d		 pop	 rbp
  00023	c3		 ret	 0
?dtor$0@?0??PMC_Add_X_I_Imp@Internal@Core@Math@Palmtree@@YAPEAU__tag_NUMBER_HEADER@1234@PEAU51234@I@Z@4HA ENDP ; `Palmtree::Math::Core::Internal::PMC_Add_X_I_Imp'::`1'::dtor$0
text$x	ENDS
; Function compile flags: /Odtp /RTCsu /ZI
;	COMDAT text$x
text$x	SEGMENT
root$4 = 8
u_bit_count$5 = 72
v_bit_count$6 = 104
w_bit_count$7 = 136
nw$8 = 168
$T9 = 392
$T10 = 424
nu$ = 480
v$ = 488
?dtor$0@?0??PMC_Add_X_I_Imp@Internal@Core@Math@Palmtree@@YAPEAU__tag_NUMBER_HEADER@1234@PEAU51234@I@Z@4HA PROC ; `Palmtree::Math::Core::Internal::PMC_Add_X_I_Imp'::`1'::dtor$0
  00000	48 89 4c 24 08	 mov	 QWORD PTR [rsp+8], rcx
  00005	48 89 54 24 10	 mov	 QWORD PTR [rsp+16], rdx
  0000a	55		 push	 rbp
  0000b	57		 push	 rdi
  0000c	48 83 ec 28	 sub	 rsp, 40			; 00000028H
  00010	48 8d 6a 30	 lea	 rbp, QWORD PTR [rdx+48]
  00014	48 8d 4d 08	 lea	 rcx, QWORD PTR root$4[rbp]
  00018	e8 00 00 00 00	 call	 ??1ResourceHolderUINT@Internal@Core@Math@Palmtree@@UEAA@XZ ; Palmtree::Math::Core::Internal::ResourceHolderUINT::~ResourceHolderUINT
  0001d	48 83 c4 28	 add	 rsp, 40			; 00000028H
  00021	5f		 pop	 rdi
  00022	5d		 pop	 rbp
  00023	c3		 ret	 0
?dtor$0@?0??PMC_Add_X_I_Imp@Internal@Core@Math@Palmtree@@YAPEAU__tag_NUMBER_HEADER@1234@PEAU51234@I@Z@4HA ENDP ; `Palmtree::Math::Core::Internal::PMC_Add_X_I_Imp'::`1'::dtor$0
text$x	ENDS
; Function compile flags: /Odtp /RTCsu /ZI
; File z:\sources\lunor\repos\rougemeilland\palmtree.math.core.uint\palmtree.math.core.uint\pmc_add.cpp
;	COMDAT ?Add_Imp_using_ADCX@Internal@Core@Math@Palmtree@@YAXPEA_K_K0101@Z
_TEXT	SEGMENT
t_buf$1 = 8
t_count$2 = 40
up$ = 72
vp$ = 104
wp$ = 136
c$ = 164
count$ = 200
tv152 = 408
tv155 = 416
tv158 = 424
u_buf$ = 464
u_count$ = 472
v_buf$ = 480
v_count$ = 488
w_buf$ = 496
w_count$ = 504
?Add_Imp_using_ADCX@Internal@Core@Math@Palmtree@@YAXPEA_K_K0101@Z PROC ; Palmtree::Math::Core::Internal::Add_Imp_using_ADCX, COMDAT

; 222  :     {

  00000	4c 89 4c 24 20	 mov	 QWORD PTR [rsp+32], r9
  00005	4c 89 44 24 18	 mov	 QWORD PTR [rsp+24], r8
  0000a	48 89 54 24 10	 mov	 QWORD PTR [rsp+16], rdx
  0000f	48 89 4c 24 08	 mov	 QWORD PTR [rsp+8], rcx
  00014	55		 push	 rbp
  00015	57		 push	 rdi
  00016	48 81 ec e8 01
	00 00		 sub	 rsp, 488		; 000001e8H
  0001d	48 8d 6c 24 30	 lea	 rbp, QWORD PTR [rsp+48]
  00022	48 8b fc	 mov	 rdi, rsp
  00025	b9 7a 00 00 00	 mov	 ecx, 122		; 0000007aH
  0002a	b8 cc cc cc cc	 mov	 eax, -858993460		; ccccccccH
  0002f	f3 ab		 rep stosd
  00031	48 8b 8c 24 08
	02 00 00	 mov	 rcx, QWORD PTR [rsp+520]
  00039	48 8d 0d 00 00
	00 00		 lea	 rcx, OFFSET FLAT:__AF70AA4D_pmc_add@cpp
  00040	e8 00 00 00 00	 call	 __CheckForDebuggerJustMyCode

; 223  :         // x  y 
; 224  :         if (u_count < v_count)

  00045	48 8b 85 e8 01
	00 00		 mov	 rax, QWORD PTR v_count$[rbp]
  0004c	48 39 85 d8 01
	00 00		 cmp	 QWORD PTR u_count$[rbp], rax
  00053	73 48		 jae	 SHORT $LN4@Add_Imp_us

; 225  :         {
; 226  :             __UNIT_TYPE* t_buf = u_buf;

  00055	48 8b 85 d0 01
	00 00		 mov	 rax, QWORD PTR u_buf$[rbp]
  0005c	48 89 45 08	 mov	 QWORD PTR t_buf$1[rbp], rax

; 227  :             u_buf = v_buf;

  00060	48 8b 85 e0 01
	00 00		 mov	 rax, QWORD PTR v_buf$[rbp]
  00067	48 89 85 d0 01
	00 00		 mov	 QWORD PTR u_buf$[rbp], rax

; 228  :             v_buf = t_buf;

  0006e	48 8b 45 08	 mov	 rax, QWORD PTR t_buf$1[rbp]
  00072	48 89 85 e0 01
	00 00		 mov	 QWORD PTR v_buf$[rbp], rax

; 229  :             __UNIT_TYPE t_count = u_count;

  00079	48 8b 85 d8 01
	00 00		 mov	 rax, QWORD PTR u_count$[rbp]
  00080	48 89 45 28	 mov	 QWORD PTR t_count$2[rbp], rax

; 230  :             u_count = v_count;

  00084	48 8b 85 e8 01
	00 00		 mov	 rax, QWORD PTR v_count$[rbp]
  0008b	48 89 85 d8 01
	00 00		 mov	 QWORD PTR u_count$[rbp], rax

; 231  :             v_count = t_count;

  00092	48 8b 45 28	 mov	 rax, QWORD PTR t_count$2[rbp]
  00096	48 89 85 e8 01
	00 00		 mov	 QWORD PTR v_count$[rbp], rax
$LN4@Add_Imp_us:

; 232  :         }
; 233  :         __UNIT_TYPE* up = u_buf;

  0009d	48 8b 85 d0 01
	00 00		 mov	 rax, QWORD PTR u_buf$[rbp]
  000a4	48 89 45 48	 mov	 QWORD PTR up$[rbp], rax

; 234  :         __UNIT_TYPE* vp = v_buf;

  000a8	48 8b 85 e0 01
	00 00		 mov	 rax, QWORD PTR v_buf$[rbp]
  000af	48 89 45 68	 mov	 QWORD PTR vp$[rbp], rax

; 235  :         __UNIT_TYPE* wp = w_buf;

  000b3	48 8b 85 f0 01
	00 00		 mov	 rax, QWORD PTR w_buf$[rbp]
  000ba	48 89 85 88 00
	00 00		 mov	 QWORD PTR wp$[rbp], rax

; 236  :         char c = 0;

  000c1	c6 85 a4 00 00
	00 00		 mov	 BYTE PTR c$[rbp], 0

; 237  : 
; 238  :         //  32 
; 239  :         __UNIT_TYPE count = v_count >> 5;

  000c8	48 8b 85 e8 01
	00 00		 mov	 rax, QWORD PTR v_count$[rbp]
  000cf	48 c1 e8 05	 shr	 rax, 5
  000d3	48 89 85 c8 00
	00 00		 mov	 QWORD PTR count$[rbp], rax
$LN2@Add_Imp_us:

; 240  :         while (count != 0)

  000da	48 83 bd c8 00
	00 00 00	 cmp	 QWORD PTR count$[rbp], 0
  000e2	74 64		 je	 SHORT $LN3@Add_Imp_us

; 241  :         {
; 242  :             c = _ADD_32WORDS_ADCX(c, up, vp, wp);

  000e4	4c 8b 8d 88 00
	00 00		 mov	 r9, QWORD PTR wp$[rbp]
  000eb	4c 8b 45 68	 mov	 r8, QWORD PTR vp$[rbp]
  000ef	48 8b 55 48	 mov	 rdx, QWORD PTR up$[rbp]
  000f3	0f b6 8d a4 00
	00 00		 movzx	 ecx, BYTE PTR c$[rbp]
  000fa	e8 00 00 00 00	 call	 _ADD_32WORDS_ADCX
  000ff	88 85 a4 00 00
	00		 mov	 BYTE PTR c$[rbp], al

; 243  :             up += 32;

  00105	48 8b 45 48	 mov	 rax, QWORD PTR up$[rbp]
  00109	48 05 00 01 00
	00		 add	 rax, 256		; 00000100H
  0010f	48 89 45 48	 mov	 QWORD PTR up$[rbp], rax

; 244  :             vp += 32;

  00113	48 8b 45 68	 mov	 rax, QWORD PTR vp$[rbp]
  00117	48 05 00 01 00
	00		 add	 rax, 256		; 00000100H
  0011d	48 89 45 68	 mov	 QWORD PTR vp$[rbp], rax

; 245  :             wp += 32;

  00121	48 8b 85 88 00
	00 00		 mov	 rax, QWORD PTR wp$[rbp]
  00128	48 05 00 01 00
	00		 add	 rax, 256		; 00000100H
  0012e	48 89 85 88 00
	00 00		 mov	 QWORD PTR wp$[rbp], rax

; 246  :             --count;

  00135	48 8b 85 c8 00
	00 00		 mov	 rax, QWORD PTR count$[rbp]
  0013c	48 ff c8	 dec	 rax
  0013f	48 89 85 c8 00
	00 00		 mov	 QWORD PTR count$[rbp], rax

; 247  :         }

  00146	eb 92		 jmp	 SHORT $LN2@Add_Imp_us
$LN3@Add_Imp_us:

; 248  :         //  32 
; 249  : 
; 250  :         //  16  16 
; 251  :         if (v_count & 0x10)

  00148	48 8b 85 e8 01
	00 00		 mov	 rax, QWORD PTR v_count$[rbp]
  0014f	48 83 e0 10	 and	 rax, 16
  00153	48 85 c0	 test	 rax, rax
  00156	74 51		 je	 SHORT $LN5@Add_Imp_us

; 252  :         {
; 253  :             c = _ADD_16WORDS_ADCX(c, up, vp, wp);

  00158	4c 8b 8d 88 00
	00 00		 mov	 r9, QWORD PTR wp$[rbp]
  0015f	4c 8b 45 68	 mov	 r8, QWORD PTR vp$[rbp]
  00163	48 8b 55 48	 mov	 rdx, QWORD PTR up$[rbp]
  00167	0f b6 8d a4 00
	00 00		 movzx	 ecx, BYTE PTR c$[rbp]
  0016e	e8 00 00 00 00	 call	 _ADD_16WORDS_ADCX
  00173	88 85 a4 00 00
	00		 mov	 BYTE PTR c$[rbp], al

; 254  :             up += 16;

  00179	48 8b 45 48	 mov	 rax, QWORD PTR up$[rbp]
  0017d	48 05 80 00 00
	00		 add	 rax, 128		; 00000080H
  00183	48 89 45 48	 mov	 QWORD PTR up$[rbp], rax

; 255  :             vp += 16;

  00187	48 8b 45 68	 mov	 rax, QWORD PTR vp$[rbp]
  0018b	48 05 80 00 00
	00		 add	 rax, 128		; 00000080H
  00191	48 89 45 68	 mov	 QWORD PTR vp$[rbp], rax

; 256  :             wp += 16;

  00195	48 8b 85 88 00
	00 00		 mov	 rax, QWORD PTR wp$[rbp]
  0019c	48 05 80 00 00
	00		 add	 rax, 128		; 00000080H
  001a2	48 89 85 88 00
	00 00		 mov	 QWORD PTR wp$[rbp], rax
$LN5@Add_Imp_us:

; 257  :         }
; 258  :         //  16 
; 259  : 
; 260  :         //  8  8 
; 261  :         if (v_count & 0x8)

  001a9	48 8b 85 e8 01
	00 00		 mov	 rax, QWORD PTR v_count$[rbp]
  001b0	48 83 e0 08	 and	 rax, 8
  001b4	48 85 c0	 test	 rax, rax
  001b7	74 4b		 je	 SHORT $LN6@Add_Imp_us

; 262  :         {
; 263  :             c = _ADD_8WORDS_ADCX(c, up, vp, wp);

  001b9	4c 8b 8d 88 00
	00 00		 mov	 r9, QWORD PTR wp$[rbp]
  001c0	4c 8b 45 68	 mov	 r8, QWORD PTR vp$[rbp]
  001c4	48 8b 55 48	 mov	 rdx, QWORD PTR up$[rbp]
  001c8	0f b6 8d a4 00
	00 00		 movzx	 ecx, BYTE PTR c$[rbp]
  001cf	e8 00 00 00 00	 call	 _ADD_8WORDS_ADCX
  001d4	88 85 a4 00 00
	00		 mov	 BYTE PTR c$[rbp], al

; 264  :             up += 8;

  001da	48 8b 45 48	 mov	 rax, QWORD PTR up$[rbp]
  001de	48 83 c0 40	 add	 rax, 64			; 00000040H
  001e2	48 89 45 48	 mov	 QWORD PTR up$[rbp], rax

; 265  :             vp += 8;

  001e6	48 8b 45 68	 mov	 rax, QWORD PTR vp$[rbp]
  001ea	48 83 c0 40	 add	 rax, 64			; 00000040H
  001ee	48 89 45 68	 mov	 QWORD PTR vp$[rbp], rax

; 266  :             wp += 8;

  001f2	48 8b 85 88 00
	00 00		 mov	 rax, QWORD PTR wp$[rbp]
  001f9	48 83 c0 40	 add	 rax, 64			; 00000040H
  001fd	48 89 85 88 00
	00 00		 mov	 QWORD PTR wp$[rbp], rax
$LN6@Add_Imp_us:

; 267  :         }
; 268  :         //  8 
; 269  : 
; 270  :         //  4  4 
; 271  :         if (v_count & 0x4)

  00204	48 8b 85 e8 01
	00 00		 mov	 rax, QWORD PTR v_count$[rbp]
  0020b	48 83 e0 04	 and	 rax, 4
  0020f	48 85 c0	 test	 rax, rax
  00212	74 4b		 je	 SHORT $LN7@Add_Imp_us

; 272  :         {
; 273  :             c = _ADD_4WORDS_ADCX(c, up, vp, wp);

  00214	4c 8b 8d 88 00
	00 00		 mov	 r9, QWORD PTR wp$[rbp]
  0021b	4c 8b 45 68	 mov	 r8, QWORD PTR vp$[rbp]
  0021f	48 8b 55 48	 mov	 rdx, QWORD PTR up$[rbp]
  00223	0f b6 8d a4 00
	00 00		 movzx	 ecx, BYTE PTR c$[rbp]
  0022a	e8 00 00 00 00	 call	 _ADD_4WORDS_ADCX
  0022f	88 85 a4 00 00
	00		 mov	 BYTE PTR c$[rbp], al

; 274  :             up += 4;

  00235	48 8b 45 48	 mov	 rax, QWORD PTR up$[rbp]
  00239	48 83 c0 20	 add	 rax, 32			; 00000020H
  0023d	48 89 45 48	 mov	 QWORD PTR up$[rbp], rax

; 275  :             vp += 4;

  00241	48 8b 45 68	 mov	 rax, QWORD PTR vp$[rbp]
  00245	48 83 c0 20	 add	 rax, 32			; 00000020H
  00249	48 89 45 68	 mov	 QWORD PTR vp$[rbp], rax

; 276  :             wp += 4;

  0024d	48 8b 85 88 00
	00 00		 mov	 rax, QWORD PTR wp$[rbp]
  00254	48 83 c0 20	 add	 rax, 32			; 00000020H
  00258	48 89 85 88 00
	00 00		 mov	 QWORD PTR wp$[rbp], rax
$LN7@Add_Imp_us:

; 277  :         }
; 278  :         //  4 
; 279  : 
; 280  :         //  2  2 
; 281  :         if (v_count & 0x2)

  0025f	48 8b 85 e8 01
	00 00		 mov	 rax, QWORD PTR v_count$[rbp]
  00266	48 83 e0 02	 and	 rax, 2
  0026a	48 85 c0	 test	 rax, rax
  0026d	74 4b		 je	 SHORT $LN8@Add_Imp_us

; 282  :         {
; 283  :             c = _ADD_2WORDS_ADCX(c, up, vp, wp);

  0026f	4c 8b 8d 88 00
	00 00		 mov	 r9, QWORD PTR wp$[rbp]
  00276	4c 8b 45 68	 mov	 r8, QWORD PTR vp$[rbp]
  0027a	48 8b 55 48	 mov	 rdx, QWORD PTR up$[rbp]
  0027e	0f b6 8d a4 00
	00 00		 movzx	 ecx, BYTE PTR c$[rbp]
  00285	e8 00 00 00 00	 call	 _ADD_2WORDS_ADCX
  0028a	88 85 a4 00 00
	00		 mov	 BYTE PTR c$[rbp], al

; 284  :             up += 2;

  00290	48 8b 45 48	 mov	 rax, QWORD PTR up$[rbp]
  00294	48 83 c0 10	 add	 rax, 16
  00298	48 89 45 48	 mov	 QWORD PTR up$[rbp], rax

; 285  :             vp += 2;

  0029c	48 8b 45 68	 mov	 rax, QWORD PTR vp$[rbp]
  002a0	48 83 c0 10	 add	 rax, 16
  002a4	48 89 45 68	 mov	 QWORD PTR vp$[rbp], rax

; 286  :             wp += 2;

  002a8	48 8b 85 88 00
	00 00		 mov	 rax, QWORD PTR wp$[rbp]
  002af	48 83 c0 10	 add	 rax, 16
  002b3	48 89 85 88 00
	00 00		 mov	 QWORD PTR wp$[rbp], rax
$LN8@Add_Imp_us:

; 287  :         }
; 288  :         //  2 
; 289  : 
; 290  :         //  1  1 
; 291  :         if (v_count & 0x1)

  002ba	48 8b 85 e8 01
	00 00		 mov	 rax, QWORD PTR v_count$[rbp]
  002c1	48 83 e0 01	 and	 rax, 1
  002c5	48 85 c0	 test	 rax, rax
  002c8	74 7b		 je	 SHORT $LN9@Add_Imp_us

; 292  :             c = _ADDX_UNIT(c, *up++, *vp++, wp++);

  002ca	48 8b 85 88 00
	00 00		 mov	 rax, QWORD PTR wp$[rbp]
  002d1	48 89 85 98 01
	00 00		 mov	 QWORD PTR tv152[rbp], rax
  002d8	48 8b 85 88 00
	00 00		 mov	 rax, QWORD PTR wp$[rbp]
  002df	48 83 c0 08	 add	 rax, 8
  002e3	48 89 85 88 00
	00 00		 mov	 QWORD PTR wp$[rbp], rax
  002ea	48 8b 45 68	 mov	 rax, QWORD PTR vp$[rbp]
  002ee	48 8b 00	 mov	 rax, QWORD PTR [rax]
  002f1	48 89 85 a0 01
	00 00		 mov	 QWORD PTR tv155[rbp], rax
  002f8	48 8b 45 68	 mov	 rax, QWORD PTR vp$[rbp]
  002fc	48 83 c0 08	 add	 rax, 8
  00300	48 89 45 68	 mov	 QWORD PTR vp$[rbp], rax
  00304	48 8b 45 48	 mov	 rax, QWORD PTR up$[rbp]
  00308	48 8b 00	 mov	 rax, QWORD PTR [rax]
  0030b	48 89 85 a8 01
	00 00		 mov	 QWORD PTR tv158[rbp], rax
  00312	48 8b 45 48	 mov	 rax, QWORD PTR up$[rbp]
  00316	48 83 c0 08	 add	 rax, 8
  0031a	48 89 45 48	 mov	 QWORD PTR up$[rbp], rax
  0031e	4c 8b 8d 98 01
	00 00		 mov	 r9, QWORD PTR tv152[rbp]
  00325	4c 8b 85 a0 01
	00 00		 mov	 r8, QWORD PTR tv155[rbp]
  0032c	48 8b 95 a8 01
	00 00		 mov	 rdx, QWORD PTR tv158[rbp]
  00333	0f b6 8d a4 00
	00 00		 movzx	 ecx, BYTE PTR c$[rbp]
  0033a	e8 00 00 00 00	 call	 _ADDX_UNIT
  0033f	88 85 a4 00 00
	00		 mov	 BYTE PTR c$[rbp], al
$LN9@Add_Imp_us:

; 293  : 
; 294  :         // 
; 295  :         DoCarry(c, up, u_count - v_count, wp, w_count - v_count);

  00345	48 8b 85 e8 01
	00 00		 mov	 rax, QWORD PTR v_count$[rbp]
  0034c	48 8b 8d f8 01
	00 00		 mov	 rcx, QWORD PTR w_count$[rbp]
  00353	48 2b c8	 sub	 rcx, rax
  00356	48 8b c1	 mov	 rax, rcx
  00359	48 8b 8d e8 01
	00 00		 mov	 rcx, QWORD PTR v_count$[rbp]
  00360	48 8b 95 d8 01
	00 00		 mov	 rdx, QWORD PTR u_count$[rbp]
  00367	48 2b d1	 sub	 rdx, rcx
  0036a	48 8b ca	 mov	 rcx, rdx
  0036d	48 89 44 24 20	 mov	 QWORD PTR [rsp+32], rax
  00372	4c 8b 8d 88 00
	00 00		 mov	 r9, QWORD PTR wp$[rbp]
  00379	4c 8b c1	 mov	 r8, rcx
  0037c	48 8b 55 48	 mov	 rdx, QWORD PTR up$[rbp]
  00380	0f b6 8d a4 00
	00 00		 movzx	 ecx, BYTE PTR c$[rbp]
  00387	e8 00 00 00 00	 call	 ?DoCarry@Internal@Core@Math@Palmtree@@YAXDPEA_K_K01@Z ; Palmtree::Math::Core::Internal::DoCarry

; 296  :     }

  0038c	48 8d a5 b8 01
	00 00		 lea	 rsp, QWORD PTR [rbp+440]
  00393	5f		 pop	 rdi
  00394	5d		 pop	 rbp
  00395	c3		 ret	 0
?Add_Imp_using_ADCX@Internal@Core@Math@Palmtree@@YAXPEA_K_K0101@Z ENDP ; Palmtree::Math::Core::Internal::Add_Imp_using_ADCX
_TEXT	ENDS
; Function compile flags: /Odtp /RTCsu /ZI
; File z:\sources\lunor\repos\rougemeilland\palmtree.math.core.uint\palmtree.math.core.uint\pmc_add.cpp
;	COMDAT ?Add_Imp_using_ADC@Internal@Core@Math@Palmtree@@YAXPEA_K_K0101@Z
_TEXT	SEGMENT
t_buf$1 = 8
t_count$2 = 40
up$ = 72
vp$ = 104
wp$ = 136
c$ = 164
count$ = 200
tv152 = 408
tv155 = 416
tv158 = 424
u_buf$ = 464
u_count$ = 472
v_buf$ = 480
v_count$ = 488
w_buf$ = 496
w_count$ = 504
?Add_Imp_using_ADC@Internal@Core@Math@Palmtree@@YAXPEA_K_K0101@Z PROC ; Palmtree::Math::Core::Internal::Add_Imp_using_ADC, COMDAT

; 145  :     {

  00000	4c 89 4c 24 20	 mov	 QWORD PTR [rsp+32], r9
  00005	4c 89 44 24 18	 mov	 QWORD PTR [rsp+24], r8
  0000a	48 89 54 24 10	 mov	 QWORD PTR [rsp+16], rdx
  0000f	48 89 4c 24 08	 mov	 QWORD PTR [rsp+8], rcx
  00014	55		 push	 rbp
  00015	57		 push	 rdi
  00016	48 81 ec e8 01
	00 00		 sub	 rsp, 488		; 000001e8H
  0001d	48 8d 6c 24 30	 lea	 rbp, QWORD PTR [rsp+48]
  00022	48 8b fc	 mov	 rdi, rsp
  00025	b9 7a 00 00 00	 mov	 ecx, 122		; 0000007aH
  0002a	b8 cc cc cc cc	 mov	 eax, -858993460		; ccccccccH
  0002f	f3 ab		 rep stosd
  00031	48 8b 8c 24 08
	02 00 00	 mov	 rcx, QWORD PTR [rsp+520]
  00039	48 8d 0d 00 00
	00 00		 lea	 rcx, OFFSET FLAT:__AF70AA4D_pmc_add@cpp
  00040	e8 00 00 00 00	 call	 __CheckForDebuggerJustMyCode

; 146  :         // x  y 
; 147  :         if (u_count < v_count)

  00045	48 8b 85 e8 01
	00 00		 mov	 rax, QWORD PTR v_count$[rbp]
  0004c	48 39 85 d8 01
	00 00		 cmp	 QWORD PTR u_count$[rbp], rax
  00053	73 48		 jae	 SHORT $LN4@Add_Imp_us

; 148  :         {
; 149  :             __UNIT_TYPE* t_buf = u_buf;

  00055	48 8b 85 d0 01
	00 00		 mov	 rax, QWORD PTR u_buf$[rbp]
  0005c	48 89 45 08	 mov	 QWORD PTR t_buf$1[rbp], rax

; 150  :             u_buf = v_buf;

  00060	48 8b 85 e0 01
	00 00		 mov	 rax, QWORD PTR v_buf$[rbp]
  00067	48 89 85 d0 01
	00 00		 mov	 QWORD PTR u_buf$[rbp], rax

; 151  :             v_buf = t_buf;

  0006e	48 8b 45 08	 mov	 rax, QWORD PTR t_buf$1[rbp]
  00072	48 89 85 e0 01
	00 00		 mov	 QWORD PTR v_buf$[rbp], rax

; 152  :             __UNIT_TYPE t_count = u_count;

  00079	48 8b 85 d8 01
	00 00		 mov	 rax, QWORD PTR u_count$[rbp]
  00080	48 89 45 28	 mov	 QWORD PTR t_count$2[rbp], rax

; 153  :             u_count = v_count;

  00084	48 8b 85 e8 01
	00 00		 mov	 rax, QWORD PTR v_count$[rbp]
  0008b	48 89 85 d8 01
	00 00		 mov	 QWORD PTR u_count$[rbp], rax

; 154  :             v_count = t_count;

  00092	48 8b 45 28	 mov	 rax, QWORD PTR t_count$2[rbp]
  00096	48 89 85 e8 01
	00 00		 mov	 QWORD PTR v_count$[rbp], rax
$LN4@Add_Imp_us:

; 155  :         }
; 156  :         __UNIT_TYPE* up = u_buf;

  0009d	48 8b 85 d0 01
	00 00		 mov	 rax, QWORD PTR u_buf$[rbp]
  000a4	48 89 45 48	 mov	 QWORD PTR up$[rbp], rax

; 157  :         __UNIT_TYPE* vp = v_buf;

  000a8	48 8b 85 e0 01
	00 00		 mov	 rax, QWORD PTR v_buf$[rbp]
  000af	48 89 45 68	 mov	 QWORD PTR vp$[rbp], rax

; 158  :         __UNIT_TYPE* wp = w_buf;

  000b3	48 8b 85 f0 01
	00 00		 mov	 rax, QWORD PTR w_buf$[rbp]
  000ba	48 89 85 88 00
	00 00		 mov	 QWORD PTR wp$[rbp], rax

; 159  :         char c = 0;

  000c1	c6 85 a4 00 00
	00 00		 mov	 BYTE PTR c$[rbp], 0

; 160  : 
; 161  :         //  32 
; 162  :         __UNIT_TYPE count = v_count >> 5;

  000c8	48 8b 85 e8 01
	00 00		 mov	 rax, QWORD PTR v_count$[rbp]
  000cf	48 c1 e8 05	 shr	 rax, 5
  000d3	48 89 85 c8 00
	00 00		 mov	 QWORD PTR count$[rbp], rax
$LN2@Add_Imp_us:

; 163  :         while (count != 0)

  000da	48 83 bd c8 00
	00 00 00	 cmp	 QWORD PTR count$[rbp], 0
  000e2	74 64		 je	 SHORT $LN3@Add_Imp_us

; 164  :         {
; 165  :             c = _ADD_32WORDS_ADC(c, up, vp, wp);

  000e4	4c 8b 8d 88 00
	00 00		 mov	 r9, QWORD PTR wp$[rbp]
  000eb	4c 8b 45 68	 mov	 r8, QWORD PTR vp$[rbp]
  000ef	48 8b 55 48	 mov	 rdx, QWORD PTR up$[rbp]
  000f3	0f b6 8d a4 00
	00 00		 movzx	 ecx, BYTE PTR c$[rbp]
  000fa	e8 00 00 00 00	 call	 _ADD_32WORDS_ADC
  000ff	88 85 a4 00 00
	00		 mov	 BYTE PTR c$[rbp], al

; 166  :             up += 32;

  00105	48 8b 45 48	 mov	 rax, QWORD PTR up$[rbp]
  00109	48 05 00 01 00
	00		 add	 rax, 256		; 00000100H
  0010f	48 89 45 48	 mov	 QWORD PTR up$[rbp], rax

; 167  :             vp += 32;

  00113	48 8b 45 68	 mov	 rax, QWORD PTR vp$[rbp]
  00117	48 05 00 01 00
	00		 add	 rax, 256		; 00000100H
  0011d	48 89 45 68	 mov	 QWORD PTR vp$[rbp], rax

; 168  :             wp += 32;

  00121	48 8b 85 88 00
	00 00		 mov	 rax, QWORD PTR wp$[rbp]
  00128	48 05 00 01 00
	00		 add	 rax, 256		; 00000100H
  0012e	48 89 85 88 00
	00 00		 mov	 QWORD PTR wp$[rbp], rax

; 169  :             --count;

  00135	48 8b 85 c8 00
	00 00		 mov	 rax, QWORD PTR count$[rbp]
  0013c	48 ff c8	 dec	 rax
  0013f	48 89 85 c8 00
	00 00		 mov	 QWORD PTR count$[rbp], rax

; 170  :         }

  00146	eb 92		 jmp	 SHORT $LN2@Add_Imp_us
$LN3@Add_Imp_us:

; 171  :         //  32 
; 172  : 
; 173  :         //  16  16 
; 174  :         if (v_count & 0x10)

  00148	48 8b 85 e8 01
	00 00		 mov	 rax, QWORD PTR v_count$[rbp]
  0014f	48 83 e0 10	 and	 rax, 16
  00153	48 85 c0	 test	 rax, rax
  00156	74 51		 je	 SHORT $LN5@Add_Imp_us

; 175  :         {
; 176  :             c = _ADD_16WORDS_ADC(c, up, vp, wp);

  00158	4c 8b 8d 88 00
	00 00		 mov	 r9, QWORD PTR wp$[rbp]
  0015f	4c 8b 45 68	 mov	 r8, QWORD PTR vp$[rbp]
  00163	48 8b 55 48	 mov	 rdx, QWORD PTR up$[rbp]
  00167	0f b6 8d a4 00
	00 00		 movzx	 ecx, BYTE PTR c$[rbp]
  0016e	e8 00 00 00 00	 call	 _ADD_16WORDS_ADC
  00173	88 85 a4 00 00
	00		 mov	 BYTE PTR c$[rbp], al

; 177  :             up += 16;

  00179	48 8b 45 48	 mov	 rax, QWORD PTR up$[rbp]
  0017d	48 05 80 00 00
	00		 add	 rax, 128		; 00000080H
  00183	48 89 45 48	 mov	 QWORD PTR up$[rbp], rax

; 178  :             vp += 16;

  00187	48 8b 45 68	 mov	 rax, QWORD PTR vp$[rbp]
  0018b	48 05 80 00 00
	00		 add	 rax, 128		; 00000080H
  00191	48 89 45 68	 mov	 QWORD PTR vp$[rbp], rax

; 179  :             wp += 16;

  00195	48 8b 85 88 00
	00 00		 mov	 rax, QWORD PTR wp$[rbp]
  0019c	48 05 80 00 00
	00		 add	 rax, 128		; 00000080H
  001a2	48 89 85 88 00
	00 00		 mov	 QWORD PTR wp$[rbp], rax
$LN5@Add_Imp_us:

; 180  :         }
; 181  :         //  16 
; 182  : 
; 183  :         //  8  8 
; 184  :         if (v_count & 0x8)

  001a9	48 8b 85 e8 01
	00 00		 mov	 rax, QWORD PTR v_count$[rbp]
  001b0	48 83 e0 08	 and	 rax, 8
  001b4	48 85 c0	 test	 rax, rax
  001b7	74 4b		 je	 SHORT $LN6@Add_Imp_us

; 185  :         {
; 186  :             c = _ADD_8WORDS_ADC(c, up, vp, wp);

  001b9	4c 8b 8d 88 00
	00 00		 mov	 r9, QWORD PTR wp$[rbp]
  001c0	4c 8b 45 68	 mov	 r8, QWORD PTR vp$[rbp]
  001c4	48 8b 55 48	 mov	 rdx, QWORD PTR up$[rbp]
  001c8	0f b6 8d a4 00
	00 00		 movzx	 ecx, BYTE PTR c$[rbp]
  001cf	e8 00 00 00 00	 call	 _ADD_8WORDS_ADC
  001d4	88 85 a4 00 00
	00		 mov	 BYTE PTR c$[rbp], al

; 187  :             up += 8;

  001da	48 8b 45 48	 mov	 rax, QWORD PTR up$[rbp]
  001de	48 83 c0 40	 add	 rax, 64			; 00000040H
  001e2	48 89 45 48	 mov	 QWORD PTR up$[rbp], rax

; 188  :             vp += 8;

  001e6	48 8b 45 68	 mov	 rax, QWORD PTR vp$[rbp]
  001ea	48 83 c0 40	 add	 rax, 64			; 00000040H
  001ee	48 89 45 68	 mov	 QWORD PTR vp$[rbp], rax

; 189  :             wp += 8;

  001f2	48 8b 85 88 00
	00 00		 mov	 rax, QWORD PTR wp$[rbp]
  001f9	48 83 c0 40	 add	 rax, 64			; 00000040H
  001fd	48 89 85 88 00
	00 00		 mov	 QWORD PTR wp$[rbp], rax
$LN6@Add_Imp_us:

; 190  :         }
; 191  :         //  8 
; 192  : 
; 193  :         //  4  4 
; 194  :         if (v_count & 0x4)

  00204	48 8b 85 e8 01
	00 00		 mov	 rax, QWORD PTR v_count$[rbp]
  0020b	48 83 e0 04	 and	 rax, 4
  0020f	48 85 c0	 test	 rax, rax
  00212	74 4b		 je	 SHORT $LN7@Add_Imp_us

; 195  :         {
; 196  :             c = _ADD_4WORDS_ADC(c, up, vp, wp);

  00214	4c 8b 8d 88 00
	00 00		 mov	 r9, QWORD PTR wp$[rbp]
  0021b	4c 8b 45 68	 mov	 r8, QWORD PTR vp$[rbp]
  0021f	48 8b 55 48	 mov	 rdx, QWORD PTR up$[rbp]
  00223	0f b6 8d a4 00
	00 00		 movzx	 ecx, BYTE PTR c$[rbp]
  0022a	e8 00 00 00 00	 call	 _ADD_4WORDS_ADC
  0022f	88 85 a4 00 00
	00		 mov	 BYTE PTR c$[rbp], al

; 197  :             up += 4;

  00235	48 8b 45 48	 mov	 rax, QWORD PTR up$[rbp]
  00239	48 83 c0 20	 add	 rax, 32			; 00000020H
  0023d	48 89 45 48	 mov	 QWORD PTR up$[rbp], rax

; 198  :             vp += 4;

  00241	48 8b 45 68	 mov	 rax, QWORD PTR vp$[rbp]
  00245	48 83 c0 20	 add	 rax, 32			; 00000020H
  00249	48 89 45 68	 mov	 QWORD PTR vp$[rbp], rax

; 199  :             wp += 4;

  0024d	48 8b 85 88 00
	00 00		 mov	 rax, QWORD PTR wp$[rbp]
  00254	48 83 c0 20	 add	 rax, 32			; 00000020H
  00258	48 89 85 88 00
	00 00		 mov	 QWORD PTR wp$[rbp], rax
$LN7@Add_Imp_us:

; 200  :         }
; 201  :         //  4 
; 202  : 
; 203  :         //  2  2 
; 204  :         if (v_count & 0x2)

  0025f	48 8b 85 e8 01
	00 00		 mov	 rax, QWORD PTR v_count$[rbp]
  00266	48 83 e0 02	 and	 rax, 2
  0026a	48 85 c0	 test	 rax, rax
  0026d	74 4b		 je	 SHORT $LN8@Add_Imp_us

; 205  :         {
; 206  :             c = _ADD_2WORDS_ADC(c, up, vp, wp);

  0026f	4c 8b 8d 88 00
	00 00		 mov	 r9, QWORD PTR wp$[rbp]
  00276	4c 8b 45 68	 mov	 r8, QWORD PTR vp$[rbp]
  0027a	48 8b 55 48	 mov	 rdx, QWORD PTR up$[rbp]
  0027e	0f b6 8d a4 00
	00 00		 movzx	 ecx, BYTE PTR c$[rbp]
  00285	e8 00 00 00 00	 call	 _ADD_2WORDS_ADC
  0028a	88 85 a4 00 00
	00		 mov	 BYTE PTR c$[rbp], al

; 207  :             up += 2;

  00290	48 8b 45 48	 mov	 rax, QWORD PTR up$[rbp]
  00294	48 83 c0 10	 add	 rax, 16
  00298	48 89 45 48	 mov	 QWORD PTR up$[rbp], rax

; 208  :             vp += 2;

  0029c	48 8b 45 68	 mov	 rax, QWORD PTR vp$[rbp]
  002a0	48 83 c0 10	 add	 rax, 16
  002a4	48 89 45 68	 mov	 QWORD PTR vp$[rbp], rax

; 209  :             wp += 2;

  002a8	48 8b 85 88 00
	00 00		 mov	 rax, QWORD PTR wp$[rbp]
  002af	48 83 c0 10	 add	 rax, 16
  002b3	48 89 85 88 00
	00 00		 mov	 QWORD PTR wp$[rbp], rax
$LN8@Add_Imp_us:

; 210  :         }
; 211  :         //  2 
; 212  : 
; 213  :         //  1  1 
; 214  :         if (v_count & 0x1)

  002ba	48 8b 85 e8 01
	00 00		 mov	 rax, QWORD PTR v_count$[rbp]
  002c1	48 83 e0 01	 and	 rax, 1
  002c5	48 85 c0	 test	 rax, rax
  002c8	74 7b		 je	 SHORT $LN9@Add_Imp_us

; 215  :             c = _ADD_UNIT(c, *up++, *vp++, wp++);

  002ca	48 8b 85 88 00
	00 00		 mov	 rax, QWORD PTR wp$[rbp]
  002d1	48 89 85 98 01
	00 00		 mov	 QWORD PTR tv152[rbp], rax
  002d8	48 8b 85 88 00
	00 00		 mov	 rax, QWORD PTR wp$[rbp]
  002df	48 83 c0 08	 add	 rax, 8
  002e3	48 89 85 88 00
	00 00		 mov	 QWORD PTR wp$[rbp], rax
  002ea	48 8b 45 68	 mov	 rax, QWORD PTR vp$[rbp]
  002ee	48 8b 00	 mov	 rax, QWORD PTR [rax]
  002f1	48 89 85 a0 01
	00 00		 mov	 QWORD PTR tv155[rbp], rax
  002f8	48 8b 45 68	 mov	 rax, QWORD PTR vp$[rbp]
  002fc	48 83 c0 08	 add	 rax, 8
  00300	48 89 45 68	 mov	 QWORD PTR vp$[rbp], rax
  00304	48 8b 45 48	 mov	 rax, QWORD PTR up$[rbp]
  00308	48 8b 00	 mov	 rax, QWORD PTR [rax]
  0030b	48 89 85 a8 01
	00 00		 mov	 QWORD PTR tv158[rbp], rax
  00312	48 8b 45 48	 mov	 rax, QWORD PTR up$[rbp]
  00316	48 83 c0 08	 add	 rax, 8
  0031a	48 89 45 48	 mov	 QWORD PTR up$[rbp], rax
  0031e	4c 8b 8d 98 01
	00 00		 mov	 r9, QWORD PTR tv152[rbp]
  00325	4c 8b 85 a0 01
	00 00		 mov	 r8, QWORD PTR tv155[rbp]
  0032c	48 8b 95 a8 01
	00 00		 mov	 rdx, QWORD PTR tv158[rbp]
  00333	0f b6 8d a4 00
	00 00		 movzx	 ecx, BYTE PTR c$[rbp]
  0033a	e8 00 00 00 00	 call	 _ADD_UNIT
  0033f	88 85 a4 00 00
	00		 mov	 BYTE PTR c$[rbp], al
$LN9@Add_Imp_us:

; 216  : 
; 217  :         // 
; 218  :         DoCarry(c, up, u_count - v_count, wp, w_count - v_count);

  00345	48 8b 85 e8 01
	00 00		 mov	 rax, QWORD PTR v_count$[rbp]
  0034c	48 8b 8d f8 01
	00 00		 mov	 rcx, QWORD PTR w_count$[rbp]
  00353	48 2b c8	 sub	 rcx, rax
  00356	48 8b c1	 mov	 rax, rcx
  00359	48 8b 8d e8 01
	00 00		 mov	 rcx, QWORD PTR v_count$[rbp]
  00360	48 8b 95 d8 01
	00 00		 mov	 rdx, QWORD PTR u_count$[rbp]
  00367	48 2b d1	 sub	 rdx, rcx
  0036a	48 8b ca	 mov	 rcx, rdx
  0036d	48 89 44 24 20	 mov	 QWORD PTR [rsp+32], rax
  00372	4c 8b 8d 88 00
	00 00		 mov	 r9, QWORD PTR wp$[rbp]
  00379	4c 8b c1	 mov	 r8, rcx
  0037c	48 8b 55 48	 mov	 rdx, QWORD PTR up$[rbp]
  00380	0f b6 8d a4 00
	00 00		 movzx	 ecx, BYTE PTR c$[rbp]
  00387	e8 00 00 00 00	 call	 ?DoCarry@Internal@Core@Math@Palmtree@@YAXDPEA_K_K01@Z ; Palmtree::Math::Core::Internal::DoCarry

; 219  :     }

  0038c	48 8d a5 b8 01
	00 00		 lea	 rsp, QWORD PTR [rbp+440]
  00393	5f		 pop	 rdi
  00394	5d		 pop	 rbp
  00395	c3		 ret	 0
?Add_Imp_using_ADC@Internal@Core@Math@Palmtree@@YAXPEA_K_K0101@Z ENDP ; Palmtree::Math::Core::Internal::Add_Imp_using_ADC
_TEXT	ENDS
; Function compile flags: /Odtp /RTCsu /ZI
; File z:\sources\lunor\repos\rougemeilland\palmtree.math.core.uint\palmtree.math.core.uint\pmc_add.cpp
;	COMDAT ?Add_X_2W@Internal@Core@Math@Palmtree@@YAXPEA_K_K1101@Z
_TEXT	SEGMENT
up$ = 8
wp$ = 40
c$ = 68
tv128 = 280
tv87 = 280
tv132 = 288
tv91 = 288
u_buf$ = 336
u_count$ = 344
v_hi$ = 352
v_lo$ = 360
w_buf$ = 368
w_count$ = 376
?Add_X_2W@Internal@Core@Math@Palmtree@@YAXPEA_K_K1101@Z PROC ; Palmtree::Math::Core::Internal::Add_X_2W, COMDAT

; 104  :     {

  00000	4c 89 4c 24 20	 mov	 QWORD PTR [rsp+32], r9
  00005	4c 89 44 24 18	 mov	 QWORD PTR [rsp+24], r8
  0000a	48 89 54 24 10	 mov	 QWORD PTR [rsp+16], rdx
  0000f	48 89 4c 24 08	 mov	 QWORD PTR [rsp+8], rcx
  00014	55		 push	 rbp
  00015	57		 push	 rdi
  00016	48 81 ec 68 01
	00 00		 sub	 rsp, 360		; 00000168H
  0001d	48 8d 6c 24 30	 lea	 rbp, QWORD PTR [rsp+48]
  00022	48 8b fc	 mov	 rdi, rsp
  00025	b9 5a 00 00 00	 mov	 ecx, 90			; 0000005aH
  0002a	b8 cc cc cc cc	 mov	 eax, -858993460		; ccccccccH
  0002f	f3 ab		 rep stosd
  00031	48 8b 8c 24 88
	01 00 00	 mov	 rcx, QWORD PTR [rsp+392]
  00039	48 8d 0d 00 00
	00 00		 lea	 rcx, OFFSET FLAT:__AF70AA4D_pmc_add@cpp
  00040	e8 00 00 00 00	 call	 __CheckForDebuggerJustMyCode

; 105  :         __UNIT_TYPE* up = u_buf;

  00045	48 8b 85 50 01
	00 00		 mov	 rax, QWORD PTR u_buf$[rbp]
  0004c	48 89 45 08	 mov	 QWORD PTR up$[rbp], rax

; 106  :         __UNIT_TYPE* wp = w_buf;

  00050	48 8b 85 70 01
	00 00		 mov	 rax, QWORD PTR w_buf$[rbp]
  00057	48 89 45 28	 mov	 QWORD PTR wp$[rbp], rax

; 107  :         char c;
; 108  : 
; 109  :         if (u_count < 2)

  0005b	48 83 bd 58 01
	00 00 02	 cmp	 QWORD PTR u_count$[rbp], 2
  00063	0f 83 8a 00 00
	00		 jae	 $LN2@Add_X_2W

; 110  :         {
; 111  :             // x  1 
; 112  : 
; 113  :             // 
; 114  :             c = _ADD_UNIT(0, up[0], v_lo, &wp[0]);

  00069	b8 08 00 00 00	 mov	 eax, 8
  0006e	48 6b c0 00	 imul	 rax, rax, 0
  00072	48 8b 4d 28	 mov	 rcx, QWORD PTR wp$[rbp]
  00076	48 03 c8	 add	 rcx, rax
  00079	48 8b c1	 mov	 rax, rcx
  0007c	b9 08 00 00 00	 mov	 ecx, 8
  00081	48 6b c9 00	 imul	 rcx, rcx, 0
  00085	4c 8b c8	 mov	 r9, rax
  00088	4c 8b 85 68 01
	00 00		 mov	 r8, QWORD PTR v_lo$[rbp]
  0008f	48 8b 45 08	 mov	 rax, QWORD PTR up$[rbp]
  00093	48 8b 14 08	 mov	 rdx, QWORD PTR [rax+rcx]
  00097	33 c9		 xor	 ecx, ecx
  00099	e8 00 00 00 00	 call	 _ADD_UNIT
  0009e	88 45 44	 mov	 BYTE PTR c$[rbp], al

; 115  : 
; 116  :             //  2 
; 117  :             c = _ADD_UNIT(c, 0, v_hi, &wp[1]);

  000a1	b8 08 00 00 00	 mov	 eax, 8
  000a6	48 6b c0 01	 imul	 rax, rax, 1
  000aa	48 8b 4d 28	 mov	 rcx, QWORD PTR wp$[rbp]
  000ae	48 03 c8	 add	 rcx, rax
  000b1	48 8b c1	 mov	 rax, rcx
  000b4	4c 8b c8	 mov	 r9, rax
  000b7	4c 8b 85 60 01
	00 00		 mov	 r8, QWORD PTR v_hi$[rbp]
  000be	33 d2		 xor	 edx, edx
  000c0	0f b6 4d 44	 movzx	 ecx, BYTE PTR c$[rbp]
  000c4	e8 00 00 00 00	 call	 _ADD_UNIT
  000c9	88 45 44	 mov	 BYTE PTR c$[rbp], al

; 118  : 
; 119  :             //  3  1 
; 120  :             if (c)

  000cc	0f be 45 44	 movsx	 eax, BYTE PTR c$[rbp]
  000d0	85 c0		 test	 eax, eax
  000d2	74 15		 je	 SHORT $LN4@Add_X_2W

; 121  :                 wp[2] = 1;

  000d4	b8 08 00 00 00	 mov	 eax, 8
  000d9	48 6b c0 02	 imul	 rax, rax, 2
  000dd	48 8b 4d 28	 mov	 rcx, QWORD PTR wp$[rbp]
  000e1	48 c7 04 01 01
	00 00 00	 mov	 QWORD PTR [rcx+rax], 1
$LN4@Add_X_2W:

; 122  : 
; 123  :             // 
; 124  :             return;

  000e9	e9 ef 00 00 00	 jmp	 $LN1@Add_X_2W

; 125  :         }
; 126  :         else

  000ee	e9 ea 00 00 00	 jmp	 $LN3@Add_X_2W
$LN2@Add_X_2W:

; 127  :         {
; 128  :             // x  2 
; 129  : 
; 130  :             // 
; 131  :             c = _ADD_UNIT(0, *up++, v_lo, wp++);

  000f3	48 8b 45 28	 mov	 rax, QWORD PTR wp$[rbp]
  000f7	48 89 85 18 01
	00 00		 mov	 QWORD PTR tv87[rbp], rax
  000fe	48 8b 45 28	 mov	 rax, QWORD PTR wp$[rbp]
  00102	48 83 c0 08	 add	 rax, 8
  00106	48 89 45 28	 mov	 QWORD PTR wp$[rbp], rax
  0010a	48 8b 45 08	 mov	 rax, QWORD PTR up$[rbp]
  0010e	48 8b 00	 mov	 rax, QWORD PTR [rax]
  00111	48 89 85 20 01
	00 00		 mov	 QWORD PTR tv91[rbp], rax
  00118	48 8b 45 08	 mov	 rax, QWORD PTR up$[rbp]
  0011c	48 83 c0 08	 add	 rax, 8
  00120	48 89 45 08	 mov	 QWORD PTR up$[rbp], rax
  00124	4c 8b 8d 18 01
	00 00		 mov	 r9, QWORD PTR tv87[rbp]
  0012b	4c 8b 85 68 01
	00 00		 mov	 r8, QWORD PTR v_lo$[rbp]
  00132	48 8b 95 20 01
	00 00		 mov	 rdx, QWORD PTR tv91[rbp]
  00139	33 c9		 xor	 ecx, ecx
  0013b	e8 00 00 00 00	 call	 _ADD_UNIT
  00140	88 45 44	 mov	 BYTE PTR c$[rbp], al

; 132  : 
; 133  :             //  2 
; 134  :             c = _ADD_UNIT(c, *up++, v_hi, wp++);

  00143	48 8b 45 28	 mov	 rax, QWORD PTR wp$[rbp]
  00147	48 89 85 18 01
	00 00		 mov	 QWORD PTR tv128[rbp], rax
  0014e	48 8b 45 28	 mov	 rax, QWORD PTR wp$[rbp]
  00152	48 83 c0 08	 add	 rax, 8
  00156	48 89 45 28	 mov	 QWORD PTR wp$[rbp], rax
  0015a	48 8b 45 08	 mov	 rax, QWORD PTR up$[rbp]
  0015e	48 8b 00	 mov	 rax, QWORD PTR [rax]
  00161	48 89 85 20 01
	00 00		 mov	 QWORD PTR tv132[rbp], rax
  00168	48 8b 45 08	 mov	 rax, QWORD PTR up$[rbp]
  0016c	48 83 c0 08	 add	 rax, 8
  00170	48 89 45 08	 mov	 QWORD PTR up$[rbp], rax
  00174	4c 8b 8d 18 01
	00 00		 mov	 r9, QWORD PTR tv128[rbp]
  0017b	4c 8b 85 60 01
	00 00		 mov	 r8, QWORD PTR v_hi$[rbp]
  00182	48 8b 95 20 01
	00 00		 mov	 rdx, QWORD PTR tv132[rbp]
  00189	0f b6 4d 44	 movzx	 ecx, BYTE PTR c$[rbp]
  0018d	e8 00 00 00 00	 call	 _ADD_UNIT
  00192	88 45 44	 mov	 BYTE PTR c$[rbp], al

; 135  :             u_count -= 2;

  00195	48 8b 85 58 01
	00 00		 mov	 rax, QWORD PTR u_count$[rbp]
  0019c	48 83 e8 02	 sub	 rax, 2
  001a0	48 89 85 58 01
	00 00		 mov	 QWORD PTR u_count$[rbp], rax

; 136  :             w_count -= 2;

  001a7	48 8b 85 78 01
	00 00		 mov	 rax, QWORD PTR w_count$[rbp]
  001ae	48 83 e8 02	 sub	 rax, 2
  001b2	48 89 85 78 01
	00 00		 mov	 QWORD PTR w_count$[rbp], rax

; 137  : 
; 138  :             // 
; 139  :             DoCarry(c, up, u_count, wp, w_count);

  001b9	48 8b 85 78 01
	00 00		 mov	 rax, QWORD PTR w_count$[rbp]
  001c0	48 89 44 24 20	 mov	 QWORD PTR [rsp+32], rax
  001c5	4c 8b 4d 28	 mov	 r9, QWORD PTR wp$[rbp]
  001c9	4c 8b 85 58 01
	00 00		 mov	 r8, QWORD PTR u_count$[rbp]
  001d0	48 8b 55 08	 mov	 rdx, QWORD PTR up$[rbp]
  001d4	0f b6 4d 44	 movzx	 ecx, BYTE PTR c$[rbp]
  001d8	e8 00 00 00 00	 call	 ?DoCarry@Internal@Core@Math@Palmtree@@YAXDPEA_K_K01@Z ; Palmtree::Math::Core::Internal::DoCarry
$LN3@Add_X_2W:
$LN1@Add_X_2W:

; 140  :         }
; 141  :     }

  001dd	48 8d a5 38 01
	00 00		 lea	 rsp, QWORD PTR [rbp+312]
  001e4	5f		 pop	 rdi
  001e5	5d		 pop	 rbp
  001e6	c3		 ret	 0
?Add_X_2W@Internal@Core@Math@Palmtree@@YAXPEA_K_K1101@Z ENDP ; Palmtree::Math::Core::Internal::Add_X_2W
_TEXT	ENDS
; Function compile flags: /Odtp /RTCsu /ZI
; File z:\sources\lunor\repos\rougemeilland\palmtree.math.core.uint\palmtree.math.core.uint\pmc_add.cpp
;	COMDAT ?Add_X_1W@Internal@Core@Math@Palmtree@@YAXPEA_K_K101@Z
_TEXT	SEGMENT
c$ = 4
tv66 = 216
tv70 = 224
u_ptr$ = 272
u_count$ = 280
v$ = 288
w_ptr$ = 296
w_count$ = 304
?Add_X_1W@Internal@Core@Math@Palmtree@@YAXPEA_K_K101@Z PROC ; Palmtree::Math::Core::Internal::Add_X_1W, COMDAT

; 91   :     {

  00000	4c 89 4c 24 20	 mov	 QWORD PTR [rsp+32], r9
  00005	4c 89 44 24 18	 mov	 QWORD PTR [rsp+24], r8
  0000a	48 89 54 24 10	 mov	 QWORD PTR [rsp+16], rdx
  0000f	48 89 4c 24 08	 mov	 QWORD PTR [rsp+8], rcx
  00014	55		 push	 rbp
  00015	57		 push	 rdi
  00016	48 81 ec 28 01
	00 00		 sub	 rsp, 296		; 00000128H
  0001d	48 8d 6c 24 30	 lea	 rbp, QWORD PTR [rsp+48]
  00022	48 8b fc	 mov	 rdi, rsp
  00025	b9 4a 00 00 00	 mov	 ecx, 74			; 0000004aH
  0002a	b8 cc cc cc cc	 mov	 eax, -858993460		; ccccccccH
  0002f	f3 ab		 rep stosd
  00031	48 8b 8c 24 48
	01 00 00	 mov	 rcx, QWORD PTR [rsp+328]
  00039	48 8d 0d 00 00
	00 00		 lea	 rcx, OFFSET FLAT:__AF70AA4D_pmc_add@cpp
  00040	e8 00 00 00 00	 call	 __CheckForDebuggerJustMyCode

; 92   :         char c;
; 93   : 
; 94   :         // 
; 95   :         c = _ADD_UNIT(0, *u_ptr++, v, w_ptr++);

  00045	48 8b 85 28 01
	00 00		 mov	 rax, QWORD PTR w_ptr$[rbp]
  0004c	48 89 85 d8 00
	00 00		 mov	 QWORD PTR tv66[rbp], rax
  00053	48 8b 85 28 01
	00 00		 mov	 rax, QWORD PTR w_ptr$[rbp]
  0005a	48 83 c0 08	 add	 rax, 8
  0005e	48 89 85 28 01
	00 00		 mov	 QWORD PTR w_ptr$[rbp], rax
  00065	48 8b 85 10 01
	00 00		 mov	 rax, QWORD PTR u_ptr$[rbp]
  0006c	48 8b 00	 mov	 rax, QWORD PTR [rax]
  0006f	48 89 85 e0 00
	00 00		 mov	 QWORD PTR tv70[rbp], rax
  00076	48 8b 85 10 01
	00 00		 mov	 rax, QWORD PTR u_ptr$[rbp]
  0007d	48 83 c0 08	 add	 rax, 8
  00081	48 89 85 10 01
	00 00		 mov	 QWORD PTR u_ptr$[rbp], rax
  00088	4c 8b 8d d8 00
	00 00		 mov	 r9, QWORD PTR tv66[rbp]
  0008f	4c 8b 85 20 01
	00 00		 mov	 r8, QWORD PTR v$[rbp]
  00096	48 8b 95 e0 00
	00 00		 mov	 rdx, QWORD PTR tv70[rbp]
  0009d	33 c9		 xor	 ecx, ecx
  0009f	e8 00 00 00 00	 call	 _ADD_UNIT
  000a4	88 45 04	 mov	 BYTE PTR c$[rbp], al

; 96   :         --u_count;

  000a7	48 8b 85 18 01
	00 00		 mov	 rax, QWORD PTR u_count$[rbp]
  000ae	48 ff c8	 dec	 rax
  000b1	48 89 85 18 01
	00 00		 mov	 QWORD PTR u_count$[rbp], rax

; 97   :         --w_count;

  000b8	48 8b 85 30 01
	00 00		 mov	 rax, QWORD PTR w_count$[rbp]
  000bf	48 ff c8	 dec	 rax
  000c2	48 89 85 30 01
	00 00		 mov	 QWORD PTR w_count$[rbp], rax

; 98   : 
; 99   :         // 
; 100  :         DoCarry(c, u_ptr, u_count, w_ptr, w_count);

  000c9	48 8b 85 30 01
	00 00		 mov	 rax, QWORD PTR w_count$[rbp]
  000d0	48 89 44 24 20	 mov	 QWORD PTR [rsp+32], rax
  000d5	4c 8b 8d 28 01
	00 00		 mov	 r9, QWORD PTR w_ptr$[rbp]
  000dc	4c 8b 85 18 01
	00 00		 mov	 r8, QWORD PTR u_count$[rbp]
  000e3	48 8b 95 10 01
	00 00		 mov	 rdx, QWORD PTR u_ptr$[rbp]
  000ea	0f b6 4d 04	 movzx	 ecx, BYTE PTR c$[rbp]
  000ee	e8 00 00 00 00	 call	 ?DoCarry@Internal@Core@Math@Palmtree@@YAXDPEA_K_K01@Z ; Palmtree::Math::Core::Internal::DoCarry

; 101  :     }

  000f3	48 8d a5 f8 00
	00 00		 lea	 rsp, QWORD PTR [rbp+248]
  000fa	5f		 pop	 rdi
  000fb	5d		 pop	 rbp
  000fc	c3		 ret	 0
?Add_X_1W@Internal@Core@Math@Palmtree@@YAXPEA_K_K101@Z ENDP ; Palmtree::Math::Core::Internal::Add_X_1W
_TEXT	ENDS
; Function compile flags: /Odtp /RTCsu /ZI
; File z:\sources\lunor\repos\rougemeilland\palmtree.math.core.uint\palmtree.math.core.uint\pmc_add.cpp
;	COMDAT ?DoCarry@Internal@Core@Math@Palmtree@@YAXDPEA_K_K01@Z
_TEXT	SEGMENT
$T1 = 200
tv90 = 264
tv77 = 264
tv81 = 272
c$ = 320
u_ptr$ = 328
u_count$ = 336
w_ptr$ = 344
w_count$ = 352
?DoCarry@Internal@Core@Math@Palmtree@@YAXDPEA_K_K01@Z PROC ; Palmtree::Math::Core::Internal::DoCarry, COMDAT

; 39   :     {

  00000	4c 89 4c 24 20	 mov	 QWORD PTR [rsp+32], r9
  00005	4c 89 44 24 18	 mov	 QWORD PTR [rsp+24], r8
  0000a	48 89 54 24 10	 mov	 QWORD PTR [rsp+16], rdx
  0000f	88 4c 24 08	 mov	 BYTE PTR [rsp+8], cl
  00013	55		 push	 rbp
  00014	57		 push	 rdi
  00015	48 81 ec 48 01
	00 00		 sub	 rsp, 328		; 00000148H
  0001c	48 8d 6c 24 20	 lea	 rbp, QWORD PTR [rsp+32]
  00021	48 8b fc	 mov	 rdi, rsp
  00024	b9 52 00 00 00	 mov	 ecx, 82			; 00000052H
  00029	b8 cc cc cc cc	 mov	 eax, -858993460		; ccccccccH
  0002e	f3 ab		 rep stosd
  00030	0f b6 8c 24 68
	01 00 00	 movzx	 ecx, BYTE PTR [rsp+360]
  00038	48 8d 0d 00 00
	00 00		 lea	 rcx, OFFSET FLAT:__AF70AA4D_pmc_add@cpp
  0003f	e8 00 00 00 00	 call	 __CheckForDebuggerJustMyCode
$LN2@DoCarry:

; 40   :         // 
; 41   :         for (;;)
; 42   :         {
; 43   :             if (u_count <= 0)

  00044	48 83 bd 50 01
	00 00 00	 cmp	 QWORD PTR u_count$[rbp], 0
  0004c	77 5a		 ja	 SHORT $LN7@DoCarry

; 44   :             {
; 45   :                 // u 
; 46   : 
; 47   :                 if (c)

  0004e	0f be 85 40 01
	00 00		 movsx	 eax, BYTE PTR c$[rbp]
  00055	85 c0		 test	 eax, eax
  00057	74 45		 je	 SHORT $LN9@DoCarry

; 48   :                 {
; 49   :                     // 
; 50   :                     if (w_count <= 0)

  00059	48 83 bd 60 01
	00 00 00	 cmp	 QWORD PTR w_count$[rbp], 0
  00061	77 2d		 ja	 SHORT $LN10@DoCarry

; 51   :                     {
; 52   :                         //  w 
; 53   : 
; 54   :                         // w 
; 55   :                         throw InternalErrorException(L"", L"pcm_add.cpp;DoCarry;1");

  00063	4c 8d 05 00 00
	00 00		 lea	 r8, OFFSET FLAT:??_C@_1CM@CADFJOJJ@?$AAp?$AAc?$AAm?$AA_?$AAa?$AAd?$AAd?$AA?4?$AAc?$AAp?$AAp?$AA?$DL?$AAD?$AAo?$AAC@
  0006a	48 8d 15 00 00
	00 00		 lea	 rdx, OFFSET FLAT:??_C@_1BM@FCPAHMHB@?$PP?$IF?$PP?h?$PP?$KI?$PP?i?$PP?$PM?$AAL?$AAz?$AA?$BP?$AAW?$AA?$HO?$AAW?$AA_?$AA?$AC@
  00071	48 8d 8d c8 00
	00 00		 lea	 rcx, QWORD PTR $T1[rbp]
  00078	e8 00 00 00 00	 call	 ??0InternalErrorException@Internal@Core@Math@Palmtree@@QEAA@PEB_W0@Z ; Palmtree::Math::Core::Internal::InternalErrorException::InternalErrorException
  0007d	48 8d 15 00 00
	00 00		 lea	 rdx, OFFSET FLAT:_TI2?AVInternalErrorException@Internal@Core@Math@Palmtree@@
  00084	48 8d 8d c8 00
	00 00		 lea	 rcx, QWORD PTR $T1[rbp]
  0008b	e8 00 00 00 00	 call	 _CxxThrowException
$LN10@DoCarry:

; 56   :                     }
; 57   :                     *w_ptr = 1;

  00090	48 8b 85 58 01
	00 00		 mov	 rax, QWORD PTR w_ptr$[rbp]
  00097	48 c7 00 01 00
	00 00		 mov	 QWORD PTR [rax], 1
$LN9@DoCarry:

; 58   :                 }
; 59   : 
; 60   :                 // u 
; 61   : 
; 62   :                 return;

  0009e	e9 19 01 00 00	 jmp	 $LN1@DoCarry
  000a3	e9 0f 01 00 00	 jmp	 $LN8@DoCarry
$LN7@DoCarry:

; 63   :             }
; 64   :             else if (c)

  000a8	0f be 85 40 01
	00 00		 movsx	 eax, BYTE PTR c$[rbp]
  000af	85 c0		 test	 eax, eax
  000b1	0f 84 8a 00 00
	00		 je	 $LN11@DoCarry

; 65   :             {
; 66   :                 // u 
; 67   : 
; 68   :                 // 
; 69   :                 c = _ADD_UNIT(c, *u_ptr++, 0, w_ptr++);

  000b7	48 8b 85 58 01
	00 00		 mov	 rax, QWORD PTR w_ptr$[rbp]
  000be	48 89 85 08 01
	00 00		 mov	 QWORD PTR tv77[rbp], rax
  000c5	48 8b 85 58 01
	00 00		 mov	 rax, QWORD PTR w_ptr$[rbp]
  000cc	48 83 c0 08	 add	 rax, 8
  000d0	48 89 85 58 01
	00 00		 mov	 QWORD PTR w_ptr$[rbp], rax
  000d7	48 8b 85 48 01
	00 00		 mov	 rax, QWORD PTR u_ptr$[rbp]
  000de	48 8b 00	 mov	 rax, QWORD PTR [rax]
  000e1	48 89 85 10 01
	00 00		 mov	 QWORD PTR tv81[rbp], rax
  000e8	48 8b 85 48 01
	00 00		 mov	 rax, QWORD PTR u_ptr$[rbp]
  000ef	48 83 c0 08	 add	 rax, 8
  000f3	48 89 85 48 01
	00 00		 mov	 QWORD PTR u_ptr$[rbp], rax
  000fa	4c 8b 8d 08 01
	00 00		 mov	 r9, QWORD PTR tv77[rbp]
  00101	45 33 c0	 xor	 r8d, r8d
  00104	48 8b 95 10 01
	00 00		 mov	 rdx, QWORD PTR tv81[rbp]
  0010b	0f b6 8d 40 01
	00 00		 movzx	 ecx, BYTE PTR c$[rbp]
  00112	e8 00 00 00 00	 call	 _ADD_UNIT
  00117	88 85 40 01 00
	00		 mov	 BYTE PTR c$[rbp], al

; 70   :                 --u_count;

  0011d	48 8b 85 50 01
	00 00		 mov	 rax, QWORD PTR u_count$[rbp]
  00124	48 ff c8	 dec	 rax
  00127	48 89 85 50 01
	00 00		 mov	 QWORD PTR u_count$[rbp], rax

; 71   :                 --w_count;

  0012e	48 8b 85 60 01
	00 00		 mov	 rax, QWORD PTR w_count$[rbp]
  00135	48 ff c8	 dec	 rax
  00138	48 89 85 60 01
	00 00		 mov	 QWORD PTR w_count$[rbp], rax

; 72   :             }
; 73   :             else

  0013f	eb 76		 jmp	 SHORT $LN12@DoCarry
$LN11@DoCarry:
$LN5@DoCarry:

; 74   :             {
; 75   :                 // u 
; 76   : 
; 77   :                 // u z
; 78   :                 while (u_count > 0)

  00141	48 83 bd 50 01
	00 00 00	 cmp	 QWORD PTR u_count$[rbp], 0
  00149	76 6a		 jbe	 SHORT $LN6@DoCarry

; 79   :                 {
; 80   :                     *w_ptr++ = *u_ptr++;

  0014b	48 8b 85 48 01
	00 00		 mov	 rax, QWORD PTR u_ptr$[rbp]
  00152	48 8b 00	 mov	 rax, QWORD PTR [rax]
  00155	48 89 85 08 01
	00 00		 mov	 QWORD PTR tv90[rbp], rax
  0015c	48 8b 85 48 01
	00 00		 mov	 rax, QWORD PTR u_ptr$[rbp]
  00163	48 83 c0 08	 add	 rax, 8
  00167	48 89 85 48 01
	00 00		 mov	 QWORD PTR u_ptr$[rbp], rax
  0016e	48 8b 85 58 01
	00 00		 mov	 rax, QWORD PTR w_ptr$[rbp]
  00175	48 8b 8d 08 01
	00 00		 mov	 rcx, QWORD PTR tv90[rbp]
  0017c	48 89 08	 mov	 QWORD PTR [rax], rcx
  0017f	48 8b 85 58 01
	00 00		 mov	 rax, QWORD PTR w_ptr$[rbp]
  00186	48 83 c0 08	 add	 rax, 8
  0018a	48 89 85 58 01
	00 00		 mov	 QWORD PTR w_ptr$[rbp], rax

; 81   :                     --u_count;

  00191	48 8b 85 50 01
	00 00		 mov	 rax, QWORD PTR u_count$[rbp]
  00198	48 ff c8	 dec	 rax
  0019b	48 89 85 50 01
	00 00		 mov	 QWORD PTR u_count$[rbp], rax

; 82   :                     --w_count;

  001a2	48 8b 85 60 01
	00 00		 mov	 rax, QWORD PTR w_count$[rbp]
  001a9	48 ff c8	 dec	 rax
  001ac	48 89 85 60 01
	00 00		 mov	 QWORD PTR w_count$[rbp], rax

; 83   :                 }

  001b3	eb 8c		 jmp	 SHORT $LN5@DoCarry
$LN6@DoCarry:

; 84   :                 return;

  001b5	eb 05		 jmp	 SHORT $LN1@DoCarry
$LN12@DoCarry:
$LN8@DoCarry:

; 85   :             }
; 86   :         }

  001b7	e9 88 fe ff ff	 jmp	 $LN2@DoCarry
$LN1@DoCarry:
$LN13@DoCarry:

; 87   :     }

  001bc	48 8d a5 28 01
	00 00		 lea	 rsp, QWORD PTR [rbp+296]
  001c3	5f		 pop	 rdi
  001c4	5d		 pop	 rbp
  001c5	c3		 ret	 0
?DoCarry@Internal@Core@Math@Palmtree@@YAXDPEA_K_K01@Z ENDP ; Palmtree::Math::Core::Internal::DoCarry
_TEXT	ENDS
; Function compile flags: /Odtp /RTCsu /ZI
; File z:\sources\lunor\repos\rougemeilland\palmtree.math.core.uint\palmtree.math.core.uint\autogenerated_inline_func.h
;	COMDAT _ADD_2WORDS_ADCX
_TEXT	SEGMENT
c$ = 224
xp$ = 232
yp$ = 240
zp$ = 248
_ADD_2WORDS_ADCX PROC					; COMDAT

; 2228 : {

  00000	4c 89 4c 24 20	 mov	 QWORD PTR [rsp+32], r9
  00005	4c 89 44 24 18	 mov	 QWORD PTR [rsp+24], r8
  0000a	48 89 54 24 10	 mov	 QWORD PTR [rsp+16], rdx
  0000f	88 4c 24 08	 mov	 BYTE PTR [rsp+8], cl
  00013	55		 push	 rbp
  00014	57		 push	 rdi
  00015	48 81 ec e8 00
	00 00		 sub	 rsp, 232		; 000000e8H
  0001c	48 8d 6c 24 20	 lea	 rbp, QWORD PTR [rsp+32]
  00021	48 8b fc	 mov	 rdi, rsp
  00024	b9 3a 00 00 00	 mov	 ecx, 58			; 0000003aH
  00029	b8 cc cc cc cc	 mov	 eax, -858993460		; ccccccccH
  0002e	f3 ab		 rep stosd
  00030	0f b6 8c 24 08
	01 00 00	 movzx	 ecx, BYTE PTR [rsp+264]
  00038	48 8d 0d 00 00
	00 00		 lea	 rcx, OFFSET FLAT:__E05E7037_autogenerated_inline_func@h
  0003f	e8 00 00 00 00	 call	 __CheckForDebuggerJustMyCode

; 2229 : #ifdef _MSC_VER
; 2230 :     c = _ADDX_UNIT(c, xp[0], yp[0], &zp[0]);

  00044	b8 08 00 00 00	 mov	 eax, 8
  00049	48 6b c0 00	 imul	 rax, rax, 0
  0004d	48 8b 8d f8 00
	00 00		 mov	 rcx, QWORD PTR zp$[rbp]
  00054	48 03 c8	 add	 rcx, rax
  00057	48 8b c1	 mov	 rax, rcx
  0005a	b9 08 00 00 00	 mov	 ecx, 8
  0005f	48 6b c9 00	 imul	 rcx, rcx, 0
  00063	ba 08 00 00 00	 mov	 edx, 8
  00068	48 6b d2 00	 imul	 rdx, rdx, 0
  0006c	4c 8b c8	 mov	 r9, rax
  0006f	48 8b 85 f0 00
	00 00		 mov	 rax, QWORD PTR yp$[rbp]
  00076	4c 8b 04 08	 mov	 r8, QWORD PTR [rax+rcx]
  0007a	48 8b 85 e8 00
	00 00		 mov	 rax, QWORD PTR xp$[rbp]
  00081	48 8b 14 10	 mov	 rdx, QWORD PTR [rax+rdx]
  00085	0f b6 8d e0 00
	00 00		 movzx	 ecx, BYTE PTR c$[rbp]
  0008c	e8 00 00 00 00	 call	 _ADDX_UNIT
  00091	88 85 e0 00 00
	00		 mov	 BYTE PTR c$[rbp], al

; 2231 :     c = _ADDX_UNIT(c, xp[1], yp[1], &zp[1]);

  00097	b8 08 00 00 00	 mov	 eax, 8
  0009c	48 6b c0 01	 imul	 rax, rax, 1
  000a0	48 8b 8d f8 00
	00 00		 mov	 rcx, QWORD PTR zp$[rbp]
  000a7	48 03 c8	 add	 rcx, rax
  000aa	48 8b c1	 mov	 rax, rcx
  000ad	b9 08 00 00 00	 mov	 ecx, 8
  000b2	48 6b c9 01	 imul	 rcx, rcx, 1
  000b6	ba 08 00 00 00	 mov	 edx, 8
  000bb	48 6b d2 01	 imul	 rdx, rdx, 1
  000bf	4c 8b c8	 mov	 r9, rax
  000c2	48 8b 85 f0 00
	00 00		 mov	 rax, QWORD PTR yp$[rbp]
  000c9	4c 8b 04 08	 mov	 r8, QWORD PTR [rax+rcx]
  000cd	48 8b 85 e8 00
	00 00		 mov	 rax, QWORD PTR xp$[rbp]
  000d4	48 8b 14 10	 mov	 rdx, QWORD PTR [rax+rdx]
  000d8	0f b6 8d e0 00
	00 00		 movzx	 ecx, BYTE PTR c$[rbp]
  000df	e8 00 00 00 00	 call	 _ADDX_UNIT
  000e4	88 85 e0 00 00
	00		 mov	 BYTE PTR c$[rbp], al

; 2232 : #elif defined(__GNUC__)
; 2233 : #ifdef _M_IX86
; 2234 :     __asm__ volatile (
; 2235 :         "addb\t$-1, %0\n\t"
; 2236 :         "movl\t(%1), %%ecx\n\t"
; 2237 :         "adcxl\t(%2), %%ecx\n\t"
; 2238 :         "movl\t%%ecx, (%3)\n\t"
; 2239 :         "movl\t4(%1), %%ecx\n\t"
; 2240 :         "adcxl\t4(%2), %%ecx\n\t"
; 2241 :         "movl\t%%ecx, 4(%3)\n\t"
; 2242 :         "setc\t%0"
; 2243 :         : "+r"(c), "+r"(xp), "+r"(yp), "+r"(zp)
; 2244 :         :
; 2245 :         : "cc", "memory", "%ecx"
; 2246 : );
; 2247 : #elif defined(_M_X64)
; 2248 :     __asm__ volatile (
; 2249 :         "addb\t$-1, %0\n\t"
; 2250 :         "movq\t(%1), %%rcx\n\t"
; 2251 :         "adcxq\t(%2), %%rcx\n\t"
; 2252 :         "movq\t%%rcx, (%3)\n\t"
; 2253 :         "movq\t8(%1), %%rcx\n\t"
; 2254 :         "adcxq\t8(%2), %%rcx\n\t"
; 2255 :         "movq\t%%rcx, 8(%3)\n\t"
; 2256 :         "setc\t%0"
; 2257 :         : "+r"(c), "+r"(xp), "+r"(yp), "+r"(zp)
; 2258 :         :
; 2259 :         : "cc", "memory", "%rcx"
; 2260 : );
; 2261 : #else
; 2262 : #error unknown platform
; 2263 : #endif
; 2264 : #else
; 2265 : #error unknown compiler
; 2266 : #endif
; 2267 :     return (c);

  000ea	0f b6 85 e0 00
	00 00		 movzx	 eax, BYTE PTR c$[rbp]

; 2268 : }

  000f1	48 8d a5 c8 00
	00 00		 lea	 rsp, QWORD PTR [rbp+200]
  000f8	5f		 pop	 rdi
  000f9	5d		 pop	 rbp
  000fa	c3		 ret	 0
_ADD_2WORDS_ADCX ENDP
_TEXT	ENDS
; Function compile flags: /Odtp /RTCsu /ZI
; File z:\sources\lunor\repos\rougemeilland\palmtree.math.core.uint\palmtree.math.core.uint\autogenerated_inline_func.h
;	COMDAT _ADD_2WORDS_ADC
_TEXT	SEGMENT
c$ = 224
xp$ = 232
yp$ = 240
zp$ = 248
_ADD_2WORDS_ADC PROC					; COMDAT

; 2185 : {

  00000	4c 89 4c 24 20	 mov	 QWORD PTR [rsp+32], r9
  00005	4c 89 44 24 18	 mov	 QWORD PTR [rsp+24], r8
  0000a	48 89 54 24 10	 mov	 QWORD PTR [rsp+16], rdx
  0000f	88 4c 24 08	 mov	 BYTE PTR [rsp+8], cl
  00013	55		 push	 rbp
  00014	57		 push	 rdi
  00015	48 81 ec e8 00
	00 00		 sub	 rsp, 232		; 000000e8H
  0001c	48 8d 6c 24 20	 lea	 rbp, QWORD PTR [rsp+32]
  00021	48 8b fc	 mov	 rdi, rsp
  00024	b9 3a 00 00 00	 mov	 ecx, 58			; 0000003aH
  00029	b8 cc cc cc cc	 mov	 eax, -858993460		; ccccccccH
  0002e	f3 ab		 rep stosd
  00030	0f b6 8c 24 08
	01 00 00	 movzx	 ecx, BYTE PTR [rsp+264]
  00038	48 8d 0d 00 00
	00 00		 lea	 rcx, OFFSET FLAT:__E05E7037_autogenerated_inline_func@h
  0003f	e8 00 00 00 00	 call	 __CheckForDebuggerJustMyCode

; 2186 : #ifdef _MSC_VER
; 2187 :     c = _ADD_UNIT(c, xp[0], yp[0], &zp[0]);

  00044	b8 08 00 00 00	 mov	 eax, 8
  00049	48 6b c0 00	 imul	 rax, rax, 0
  0004d	48 8b 8d f8 00
	00 00		 mov	 rcx, QWORD PTR zp$[rbp]
  00054	48 03 c8	 add	 rcx, rax
  00057	48 8b c1	 mov	 rax, rcx
  0005a	b9 08 00 00 00	 mov	 ecx, 8
  0005f	48 6b c9 00	 imul	 rcx, rcx, 0
  00063	ba 08 00 00 00	 mov	 edx, 8
  00068	48 6b d2 00	 imul	 rdx, rdx, 0
  0006c	4c 8b c8	 mov	 r9, rax
  0006f	48 8b 85 f0 00
	00 00		 mov	 rax, QWORD PTR yp$[rbp]
  00076	4c 8b 04 08	 mov	 r8, QWORD PTR [rax+rcx]
  0007a	48 8b 85 e8 00
	00 00		 mov	 rax, QWORD PTR xp$[rbp]
  00081	48 8b 14 10	 mov	 rdx, QWORD PTR [rax+rdx]
  00085	0f b6 8d e0 00
	00 00		 movzx	 ecx, BYTE PTR c$[rbp]
  0008c	e8 00 00 00 00	 call	 _ADD_UNIT
  00091	88 85 e0 00 00
	00		 mov	 BYTE PTR c$[rbp], al

; 2188 :     c = _ADD_UNIT(c, xp[1], yp[1], &zp[1]);

  00097	b8 08 00 00 00	 mov	 eax, 8
  0009c	48 6b c0 01	 imul	 rax, rax, 1
  000a0	48 8b 8d f8 00
	00 00		 mov	 rcx, QWORD PTR zp$[rbp]
  000a7	48 03 c8	 add	 rcx, rax
  000aa	48 8b c1	 mov	 rax, rcx
  000ad	b9 08 00 00 00	 mov	 ecx, 8
  000b2	48 6b c9 01	 imul	 rcx, rcx, 1
  000b6	ba 08 00 00 00	 mov	 edx, 8
  000bb	48 6b d2 01	 imul	 rdx, rdx, 1
  000bf	4c 8b c8	 mov	 r9, rax
  000c2	48 8b 85 f0 00
	00 00		 mov	 rax, QWORD PTR yp$[rbp]
  000c9	4c 8b 04 08	 mov	 r8, QWORD PTR [rax+rcx]
  000cd	48 8b 85 e8 00
	00 00		 mov	 rax, QWORD PTR xp$[rbp]
  000d4	48 8b 14 10	 mov	 rdx, QWORD PTR [rax+rdx]
  000d8	0f b6 8d e0 00
	00 00		 movzx	 ecx, BYTE PTR c$[rbp]
  000df	e8 00 00 00 00	 call	 _ADD_UNIT
  000e4	88 85 e0 00 00
	00		 mov	 BYTE PTR c$[rbp], al

; 2189 : #elif defined(__GNUC__)
; 2190 : #ifdef _M_IX86
; 2191 :     __asm__ volatile (
; 2192 :         "addb\t$-1, %0\n\t"
; 2193 :         "movl\t(%1), %%ecx\n\t"
; 2194 :         "adcl\t(%2), %%ecx\n\t"
; 2195 :         "movl\t%%ecx, (%3)\n\t"
; 2196 :         "movl\t4(%1), %%ecx\n\t"
; 2197 :         "adcl\t4(%2), %%ecx\n\t"
; 2198 :         "movl\t%%ecx, 4(%3)\n\t"
; 2199 :         "setc\t%0"
; 2200 :         : "+r"(c), "+r"(xp), "+r"(yp), "+r"(zp)
; 2201 :         :
; 2202 :         : "cc", "memory", "%ecx"
; 2203 : );
; 2204 : #elif defined(_M_X64)
; 2205 :     __asm__ volatile (
; 2206 :         "addb\t$-1, %0\n\t"
; 2207 :         "movq\t(%1), %%rcx\n\t"
; 2208 :         "adcq\t(%2), %%rcx\n\t"
; 2209 :         "movq\t%%rcx, (%3)\n\t"
; 2210 :         "movq\t8(%1), %%rcx\n\t"
; 2211 :         "adcq\t8(%2), %%rcx\n\t"
; 2212 :         "movq\t%%rcx, 8(%3)\n\t"
; 2213 :         "setc\t%0"
; 2214 :         : "+r"(c), "+r"(xp), "+r"(yp), "+r"(zp)
; 2215 :         :
; 2216 :         : "cc", "memory", "%rcx"
; 2217 : );
; 2218 : #else
; 2219 : #error unknown platform
; 2220 : #endif
; 2221 : #else
; 2222 : #error unknown compiler
; 2223 : #endif
; 2224 :     return (c);

  000ea	0f b6 85 e0 00
	00 00		 movzx	 eax, BYTE PTR c$[rbp]

; 2225 : }

  000f1	48 8d a5 c8 00
	00 00		 lea	 rsp, QWORD PTR [rbp+200]
  000f8	5f		 pop	 rdi
  000f9	5d		 pop	 rbp
  000fa	c3		 ret	 0
_ADD_2WORDS_ADC ENDP
_TEXT	ENDS
; Function compile flags: /Odtp /RTCsu /ZI
; File z:\sources\lunor\repos\rougemeilland\palmtree.math.core.uint\palmtree.math.core.uint\autogenerated_inline_func.h
;	COMDAT _ADD_4WORDS_ADCX
_TEXT	SEGMENT
c$ = 224
xp$ = 232
yp$ = 240
zp$ = 248
_ADD_4WORDS_ADCX PROC					; COMDAT

; 2014 : {

  00000	4c 89 4c 24 20	 mov	 QWORD PTR [rsp+32], r9
  00005	4c 89 44 24 18	 mov	 QWORD PTR [rsp+24], r8
  0000a	48 89 54 24 10	 mov	 QWORD PTR [rsp+16], rdx
  0000f	88 4c 24 08	 mov	 BYTE PTR [rsp+8], cl
  00013	55		 push	 rbp
  00014	57		 push	 rdi
  00015	48 81 ec e8 00
	00 00		 sub	 rsp, 232		; 000000e8H
  0001c	48 8d 6c 24 20	 lea	 rbp, QWORD PTR [rsp+32]
  00021	48 8b fc	 mov	 rdi, rsp
  00024	b9 3a 00 00 00	 mov	 ecx, 58			; 0000003aH
  00029	b8 cc cc cc cc	 mov	 eax, -858993460		; ccccccccH
  0002e	f3 ab		 rep stosd
  00030	0f b6 8c 24 08
	01 00 00	 movzx	 ecx, BYTE PTR [rsp+264]
  00038	48 8d 0d 00 00
	00 00		 lea	 rcx, OFFSET FLAT:__E05E7037_autogenerated_inline_func@h
  0003f	e8 00 00 00 00	 call	 __CheckForDebuggerJustMyCode

; 2015 : #ifdef _MSC_VER
; 2016 :     c = _ADDX_UNIT(c, xp[0], yp[0], &zp[0]);

  00044	b8 08 00 00 00	 mov	 eax, 8
  00049	48 6b c0 00	 imul	 rax, rax, 0
  0004d	48 8b 8d f8 00
	00 00		 mov	 rcx, QWORD PTR zp$[rbp]
  00054	48 03 c8	 add	 rcx, rax
  00057	48 8b c1	 mov	 rax, rcx
  0005a	b9 08 00 00 00	 mov	 ecx, 8
  0005f	48 6b c9 00	 imul	 rcx, rcx, 0
  00063	ba 08 00 00 00	 mov	 edx, 8
  00068	48 6b d2 00	 imul	 rdx, rdx, 0
  0006c	4c 8b c8	 mov	 r9, rax
  0006f	48 8b 85 f0 00
	00 00		 mov	 rax, QWORD PTR yp$[rbp]
  00076	4c 8b 04 08	 mov	 r8, QWORD PTR [rax+rcx]
  0007a	48 8b 85 e8 00
	00 00		 mov	 rax, QWORD PTR xp$[rbp]
  00081	48 8b 14 10	 mov	 rdx, QWORD PTR [rax+rdx]
  00085	0f b6 8d e0 00
	00 00		 movzx	 ecx, BYTE PTR c$[rbp]
  0008c	e8 00 00 00 00	 call	 _ADDX_UNIT
  00091	88 85 e0 00 00
	00		 mov	 BYTE PTR c$[rbp], al

; 2017 :     c = _ADDX_UNIT(c, xp[1], yp[1], &zp[1]);

  00097	b8 08 00 00 00	 mov	 eax, 8
  0009c	48 6b c0 01	 imul	 rax, rax, 1
  000a0	48 8b 8d f8 00
	00 00		 mov	 rcx, QWORD PTR zp$[rbp]
  000a7	48 03 c8	 add	 rcx, rax
  000aa	48 8b c1	 mov	 rax, rcx
  000ad	b9 08 00 00 00	 mov	 ecx, 8
  000b2	48 6b c9 01	 imul	 rcx, rcx, 1
  000b6	ba 08 00 00 00	 mov	 edx, 8
  000bb	48 6b d2 01	 imul	 rdx, rdx, 1
  000bf	4c 8b c8	 mov	 r9, rax
  000c2	48 8b 85 f0 00
	00 00		 mov	 rax, QWORD PTR yp$[rbp]
  000c9	4c 8b 04 08	 mov	 r8, QWORD PTR [rax+rcx]
  000cd	48 8b 85 e8 00
	00 00		 mov	 rax, QWORD PTR xp$[rbp]
  000d4	48 8b 14 10	 mov	 rdx, QWORD PTR [rax+rdx]
  000d8	0f b6 8d e0 00
	00 00		 movzx	 ecx, BYTE PTR c$[rbp]
  000df	e8 00 00 00 00	 call	 _ADDX_UNIT
  000e4	88 85 e0 00 00
	00		 mov	 BYTE PTR c$[rbp], al

; 2018 :     c = _ADDX_UNIT(c, xp[2], yp[2], &zp[2]);

  000ea	b8 08 00 00 00	 mov	 eax, 8
  000ef	48 6b c0 02	 imul	 rax, rax, 2
  000f3	48 8b 8d f8 00
	00 00		 mov	 rcx, QWORD PTR zp$[rbp]
  000fa	48 03 c8	 add	 rcx, rax
  000fd	48 8b c1	 mov	 rax, rcx
  00100	b9 08 00 00 00	 mov	 ecx, 8
  00105	48 6b c9 02	 imul	 rcx, rcx, 2
  00109	ba 08 00 00 00	 mov	 edx, 8
  0010e	48 6b d2 02	 imul	 rdx, rdx, 2
  00112	4c 8b c8	 mov	 r9, rax
  00115	48 8b 85 f0 00
	00 00		 mov	 rax, QWORD PTR yp$[rbp]
  0011c	4c 8b 04 08	 mov	 r8, QWORD PTR [rax+rcx]
  00120	48 8b 85 e8 00
	00 00		 mov	 rax, QWORD PTR xp$[rbp]
  00127	48 8b 14 10	 mov	 rdx, QWORD PTR [rax+rdx]
  0012b	0f b6 8d e0 00
	00 00		 movzx	 ecx, BYTE PTR c$[rbp]
  00132	e8 00 00 00 00	 call	 _ADDX_UNIT
  00137	88 85 e0 00 00
	00		 mov	 BYTE PTR c$[rbp], al

; 2019 :     c = _ADDX_UNIT(c, xp[3], yp[3], &zp[3]);

  0013d	b8 08 00 00 00	 mov	 eax, 8
  00142	48 6b c0 03	 imul	 rax, rax, 3
  00146	48 8b 8d f8 00
	00 00		 mov	 rcx, QWORD PTR zp$[rbp]
  0014d	48 03 c8	 add	 rcx, rax
  00150	48 8b c1	 mov	 rax, rcx
  00153	b9 08 00 00 00	 mov	 ecx, 8
  00158	48 6b c9 03	 imul	 rcx, rcx, 3
  0015c	ba 08 00 00 00	 mov	 edx, 8
  00161	48 6b d2 03	 imul	 rdx, rdx, 3
  00165	4c 8b c8	 mov	 r9, rax
  00168	48 8b 85 f0 00
	00 00		 mov	 rax, QWORD PTR yp$[rbp]
  0016f	4c 8b 04 08	 mov	 r8, QWORD PTR [rax+rcx]
  00173	48 8b 85 e8 00
	00 00		 mov	 rax, QWORD PTR xp$[rbp]
  0017a	48 8b 14 10	 mov	 rdx, QWORD PTR [rax+rdx]
  0017e	0f b6 8d e0 00
	00 00		 movzx	 ecx, BYTE PTR c$[rbp]
  00185	e8 00 00 00 00	 call	 _ADDX_UNIT
  0018a	88 85 e0 00 00
	00		 mov	 BYTE PTR c$[rbp], al

; 2020 : #elif defined(__GNUC__)
; 2021 : #ifdef _M_IX86
; 2022 :     __asm__ volatile (
; 2023 :         "addb\t$-1, %0\n\t"
; 2024 :         "movl\t(%1), %%ecx\n\t"
; 2025 :         "adcxl\t(%2), %%ecx\n\t"
; 2026 :         "movl\t%%ecx, (%3)\n\t"
; 2027 :         "movl\t4(%1), %%ecx\n\t"
; 2028 :         "adcxl\t4(%2), %%ecx\n\t"
; 2029 :         "movl\t%%ecx, 4(%3)\n\t"
; 2030 :         "movl\t8(%1), %%ecx\n\t"
; 2031 :         "adcxl\t8(%2), %%ecx\n\t"
; 2032 :         "movl\t%%ecx, 8(%3)\n\t"
; 2033 :         "movl\t12(%1), %%ecx\n\t"
; 2034 :         "adcxl\t12(%2), %%ecx\n\t"
; 2035 :         "movl\t%%ecx, 12(%3)\n\t"
; 2036 :         "setc\t%0"
; 2037 :         : "+r"(c), "+r"(xp), "+r"(yp), "+r"(zp)
; 2038 :         :
; 2039 :         : "cc", "memory", "%ecx"
; 2040 : );
; 2041 : #elif defined(_M_X64)
; 2042 :     __asm__ volatile (
; 2043 :         "addb\t$-1, %0\n\t"
; 2044 :         "movq\t(%1), %%rcx\n\t"
; 2045 :         "adcxq\t(%2), %%rcx\n\t"
; 2046 :         "movq\t%%rcx, (%3)\n\t"
; 2047 :         "movq\t8(%1), %%rcx\n\t"
; 2048 :         "adcxq\t8(%2), %%rcx\n\t"
; 2049 :         "movq\t%%rcx, 8(%3)\n\t"
; 2050 :         "movq\t16(%1), %%rcx\n\t"
; 2051 :         "adcxq\t16(%2), %%rcx\n\t"
; 2052 :         "movq\t%%rcx, 16(%3)\n\t"
; 2053 :         "movq\t24(%1), %%rcx\n\t"
; 2054 :         "adcxq\t24(%2), %%rcx\n\t"
; 2055 :         "movq\t%%rcx, 24(%3)\n\t"
; 2056 :         "setc\t%0"
; 2057 :         : "+r"(c), "+r"(xp), "+r"(yp), "+r"(zp)
; 2058 :         :
; 2059 :         : "cc", "memory", "%rcx"
; 2060 : );
; 2061 : #else
; 2062 : #error unknown platform
; 2063 : #endif
; 2064 : #else
; 2065 : #error unknown compiler
; 2066 : #endif
; 2067 :     return (c);

  00190	0f b6 85 e0 00
	00 00		 movzx	 eax, BYTE PTR c$[rbp]

; 2068 : }

  00197	48 8d a5 c8 00
	00 00		 lea	 rsp, QWORD PTR [rbp+200]
  0019e	5f		 pop	 rdi
  0019f	5d		 pop	 rbp
  001a0	c3		 ret	 0
_ADD_4WORDS_ADCX ENDP
_TEXT	ENDS
; Function compile flags: /Odtp /RTCsu /ZI
; File z:\sources\lunor\repos\rougemeilland\palmtree.math.core.uint\palmtree.math.core.uint\autogenerated_inline_func.h
;	COMDAT _ADD_4WORDS_ADC
_TEXT	SEGMENT
c$ = 224
xp$ = 232
yp$ = 240
zp$ = 248
_ADD_4WORDS_ADC PROC					; COMDAT

; 1957 : {

  00000	4c 89 4c 24 20	 mov	 QWORD PTR [rsp+32], r9
  00005	4c 89 44 24 18	 mov	 QWORD PTR [rsp+24], r8
  0000a	48 89 54 24 10	 mov	 QWORD PTR [rsp+16], rdx
  0000f	88 4c 24 08	 mov	 BYTE PTR [rsp+8], cl
  00013	55		 push	 rbp
  00014	57		 push	 rdi
  00015	48 81 ec e8 00
	00 00		 sub	 rsp, 232		; 000000e8H
  0001c	48 8d 6c 24 20	 lea	 rbp, QWORD PTR [rsp+32]
  00021	48 8b fc	 mov	 rdi, rsp
  00024	b9 3a 00 00 00	 mov	 ecx, 58			; 0000003aH
  00029	b8 cc cc cc cc	 mov	 eax, -858993460		; ccccccccH
  0002e	f3 ab		 rep stosd
  00030	0f b6 8c 24 08
	01 00 00	 movzx	 ecx, BYTE PTR [rsp+264]
  00038	48 8d 0d 00 00
	00 00		 lea	 rcx, OFFSET FLAT:__E05E7037_autogenerated_inline_func@h
  0003f	e8 00 00 00 00	 call	 __CheckForDebuggerJustMyCode

; 1958 : #ifdef _MSC_VER
; 1959 :     c = _ADD_UNIT(c, xp[0], yp[0], &zp[0]);

  00044	b8 08 00 00 00	 mov	 eax, 8
  00049	48 6b c0 00	 imul	 rax, rax, 0
  0004d	48 8b 8d f8 00
	00 00		 mov	 rcx, QWORD PTR zp$[rbp]
  00054	48 03 c8	 add	 rcx, rax
  00057	48 8b c1	 mov	 rax, rcx
  0005a	b9 08 00 00 00	 mov	 ecx, 8
  0005f	48 6b c9 00	 imul	 rcx, rcx, 0
  00063	ba 08 00 00 00	 mov	 edx, 8
  00068	48 6b d2 00	 imul	 rdx, rdx, 0
  0006c	4c 8b c8	 mov	 r9, rax
  0006f	48 8b 85 f0 00
	00 00		 mov	 rax, QWORD PTR yp$[rbp]
  00076	4c 8b 04 08	 mov	 r8, QWORD PTR [rax+rcx]
  0007a	48 8b 85 e8 00
	00 00		 mov	 rax, QWORD PTR xp$[rbp]
  00081	48 8b 14 10	 mov	 rdx, QWORD PTR [rax+rdx]
  00085	0f b6 8d e0 00
	00 00		 movzx	 ecx, BYTE PTR c$[rbp]
  0008c	e8 00 00 00 00	 call	 _ADD_UNIT
  00091	88 85 e0 00 00
	00		 mov	 BYTE PTR c$[rbp], al

; 1960 :     c = _ADD_UNIT(c, xp[1], yp[1], &zp[1]);

  00097	b8 08 00 00 00	 mov	 eax, 8
  0009c	48 6b c0 01	 imul	 rax, rax, 1
  000a0	48 8b 8d f8 00
	00 00		 mov	 rcx, QWORD PTR zp$[rbp]
  000a7	48 03 c8	 add	 rcx, rax
  000aa	48 8b c1	 mov	 rax, rcx
  000ad	b9 08 00 00 00	 mov	 ecx, 8
  000b2	48 6b c9 01	 imul	 rcx, rcx, 1
  000b6	ba 08 00 00 00	 mov	 edx, 8
  000bb	48 6b d2 01	 imul	 rdx, rdx, 1
  000bf	4c 8b c8	 mov	 r9, rax
  000c2	48 8b 85 f0 00
	00 00		 mov	 rax, QWORD PTR yp$[rbp]
  000c9	4c 8b 04 08	 mov	 r8, QWORD PTR [rax+rcx]
  000cd	48 8b 85 e8 00
	00 00		 mov	 rax, QWORD PTR xp$[rbp]
  000d4	48 8b 14 10	 mov	 rdx, QWORD PTR [rax+rdx]
  000d8	0f b6 8d e0 00
	00 00		 movzx	 ecx, BYTE PTR c$[rbp]
  000df	e8 00 00 00 00	 call	 _ADD_UNIT
  000e4	88 85 e0 00 00
	00		 mov	 BYTE PTR c$[rbp], al

; 1961 :     c = _ADD_UNIT(c, xp[2], yp[2], &zp[2]);

  000ea	b8 08 00 00 00	 mov	 eax, 8
  000ef	48 6b c0 02	 imul	 rax, rax, 2
  000f3	48 8b 8d f8 00
	00 00		 mov	 rcx, QWORD PTR zp$[rbp]
  000fa	48 03 c8	 add	 rcx, rax
  000fd	48 8b c1	 mov	 rax, rcx
  00100	b9 08 00 00 00	 mov	 ecx, 8
  00105	48 6b c9 02	 imul	 rcx, rcx, 2
  00109	ba 08 00 00 00	 mov	 edx, 8
  0010e	48 6b d2 02	 imul	 rdx, rdx, 2
  00112	4c 8b c8	 mov	 r9, rax
  00115	48 8b 85 f0 00
	00 00		 mov	 rax, QWORD PTR yp$[rbp]
  0011c	4c 8b 04 08	 mov	 r8, QWORD PTR [rax+rcx]
  00120	48 8b 85 e8 00
	00 00		 mov	 rax, QWORD PTR xp$[rbp]
  00127	48 8b 14 10	 mov	 rdx, QWORD PTR [rax+rdx]
  0012b	0f b6 8d e0 00
	00 00		 movzx	 ecx, BYTE PTR c$[rbp]
  00132	e8 00 00 00 00	 call	 _ADD_UNIT
  00137	88 85 e0 00 00
	00		 mov	 BYTE PTR c$[rbp], al

; 1962 :     c = _ADD_UNIT(c, xp[3], yp[3], &zp[3]);

  0013d	b8 08 00 00 00	 mov	 eax, 8
  00142	48 6b c0 03	 imul	 rax, rax, 3
  00146	48 8b 8d f8 00
	00 00		 mov	 rcx, QWORD PTR zp$[rbp]
  0014d	48 03 c8	 add	 rcx, rax
  00150	48 8b c1	 mov	 rax, rcx
  00153	b9 08 00 00 00	 mov	 ecx, 8
  00158	48 6b c9 03	 imul	 rcx, rcx, 3
  0015c	ba 08 00 00 00	 mov	 edx, 8
  00161	48 6b d2 03	 imul	 rdx, rdx, 3
  00165	4c 8b c8	 mov	 r9, rax
  00168	48 8b 85 f0 00
	00 00		 mov	 rax, QWORD PTR yp$[rbp]
  0016f	4c 8b 04 08	 mov	 r8, QWORD PTR [rax+rcx]
  00173	48 8b 85 e8 00
	00 00		 mov	 rax, QWORD PTR xp$[rbp]
  0017a	48 8b 14 10	 mov	 rdx, QWORD PTR [rax+rdx]
  0017e	0f b6 8d e0 00
	00 00		 movzx	 ecx, BYTE PTR c$[rbp]
  00185	e8 00 00 00 00	 call	 _ADD_UNIT
  0018a	88 85 e0 00 00
	00		 mov	 BYTE PTR c$[rbp], al

; 1963 : #elif defined(__GNUC__)
; 1964 : #ifdef _M_IX86
; 1965 :     __asm__ volatile (
; 1966 :         "addb\t$-1, %0\n\t"
; 1967 :         "movl\t(%1), %%ecx\n\t"
; 1968 :         "adcl\t(%2), %%ecx\n\t"
; 1969 :         "movl\t%%ecx, (%3)\n\t"
; 1970 :         "movl\t4(%1), %%ecx\n\t"
; 1971 :         "adcl\t4(%2), %%ecx\n\t"
; 1972 :         "movl\t%%ecx, 4(%3)\n\t"
; 1973 :         "movl\t8(%1), %%ecx\n\t"
; 1974 :         "adcl\t8(%2), %%ecx\n\t"
; 1975 :         "movl\t%%ecx, 8(%3)\n\t"
; 1976 :         "movl\t12(%1), %%ecx\n\t"
; 1977 :         "adcl\t12(%2), %%ecx\n\t"
; 1978 :         "movl\t%%ecx, 12(%3)\n\t"
; 1979 :         "setc\t%0"
; 1980 :         : "+r"(c), "+r"(xp), "+r"(yp), "+r"(zp)
; 1981 :         :
; 1982 :         : "cc", "memory", "%ecx"
; 1983 : );
; 1984 : #elif defined(_M_X64)
; 1985 :     __asm__ volatile (
; 1986 :         "addb\t$-1, %0\n\t"
; 1987 :         "movq\t(%1), %%rcx\n\t"
; 1988 :         "adcq\t(%2), %%rcx\n\t"
; 1989 :         "movq\t%%rcx, (%3)\n\t"
; 1990 :         "movq\t8(%1), %%rcx\n\t"
; 1991 :         "adcq\t8(%2), %%rcx\n\t"
; 1992 :         "movq\t%%rcx, 8(%3)\n\t"
; 1993 :         "movq\t16(%1), %%rcx\n\t"
; 1994 :         "adcq\t16(%2), %%rcx\n\t"
; 1995 :         "movq\t%%rcx, 16(%3)\n\t"
; 1996 :         "movq\t24(%1), %%rcx\n\t"
; 1997 :         "adcq\t24(%2), %%rcx\n\t"
; 1998 :         "movq\t%%rcx, 24(%3)\n\t"
; 1999 :         "setc\t%0"
; 2000 :         : "+r"(c), "+r"(xp), "+r"(yp), "+r"(zp)
; 2001 :         :
; 2002 :         : "cc", "memory", "%rcx"
; 2003 : );
; 2004 : #else
; 2005 : #error unknown platform
; 2006 : #endif
; 2007 : #else
; 2008 : #error unknown compiler
; 2009 : #endif
; 2010 :     return (c);

  00190	0f b6 85 e0 00
	00 00		 movzx	 eax, BYTE PTR c$[rbp]

; 2011 : }

  00197	48 8d a5 c8 00
	00 00		 lea	 rsp, QWORD PTR [rbp+200]
  0019e	5f		 pop	 rdi
  0019f	5d		 pop	 rbp
  001a0	c3		 ret	 0
_ADD_4WORDS_ADC ENDP
_TEXT	ENDS
; Function compile flags: /Odtp /RTCsu /ZI
; File z:\sources\lunor\repos\rougemeilland\palmtree.math.core.uint\palmtree.math.core.uint\autogenerated_inline_func.h
;	COMDAT _ADD_8WORDS_ADCX
_TEXT	SEGMENT
c$ = 224
xp$ = 232
yp$ = 240
zp$ = 248
_ADD_8WORDS_ADCX PROC					; COMDAT

; 1702 : {

  00000	4c 89 4c 24 20	 mov	 QWORD PTR [rsp+32], r9
  00005	4c 89 44 24 18	 mov	 QWORD PTR [rsp+24], r8
  0000a	48 89 54 24 10	 mov	 QWORD PTR [rsp+16], rdx
  0000f	88 4c 24 08	 mov	 BYTE PTR [rsp+8], cl
  00013	55		 push	 rbp
  00014	57		 push	 rdi
  00015	48 81 ec e8 00
	00 00		 sub	 rsp, 232		; 000000e8H
  0001c	48 8d 6c 24 20	 lea	 rbp, QWORD PTR [rsp+32]
  00021	48 8b fc	 mov	 rdi, rsp
  00024	b9 3a 00 00 00	 mov	 ecx, 58			; 0000003aH
  00029	b8 cc cc cc cc	 mov	 eax, -858993460		; ccccccccH
  0002e	f3 ab		 rep stosd
  00030	0f b6 8c 24 08
	01 00 00	 movzx	 ecx, BYTE PTR [rsp+264]
  00038	48 8d 0d 00 00
	00 00		 lea	 rcx, OFFSET FLAT:__E05E7037_autogenerated_inline_func@h
  0003f	e8 00 00 00 00	 call	 __CheckForDebuggerJustMyCode

; 1703 : #ifdef _MSC_VER
; 1704 :     c = _ADDX_UNIT(c, xp[0], yp[0], &zp[0]);

  00044	b8 08 00 00 00	 mov	 eax, 8
  00049	48 6b c0 00	 imul	 rax, rax, 0
  0004d	48 8b 8d f8 00
	00 00		 mov	 rcx, QWORD PTR zp$[rbp]
  00054	48 03 c8	 add	 rcx, rax
  00057	48 8b c1	 mov	 rax, rcx
  0005a	b9 08 00 00 00	 mov	 ecx, 8
  0005f	48 6b c9 00	 imul	 rcx, rcx, 0
  00063	ba 08 00 00 00	 mov	 edx, 8
  00068	48 6b d2 00	 imul	 rdx, rdx, 0
  0006c	4c 8b c8	 mov	 r9, rax
  0006f	48 8b 85 f0 00
	00 00		 mov	 rax, QWORD PTR yp$[rbp]
  00076	4c 8b 04 08	 mov	 r8, QWORD PTR [rax+rcx]
  0007a	48 8b 85 e8 00
	00 00		 mov	 rax, QWORD PTR xp$[rbp]
  00081	48 8b 14 10	 mov	 rdx, QWORD PTR [rax+rdx]
  00085	0f b6 8d e0 00
	00 00		 movzx	 ecx, BYTE PTR c$[rbp]
  0008c	e8 00 00 00 00	 call	 _ADDX_UNIT
  00091	88 85 e0 00 00
	00		 mov	 BYTE PTR c$[rbp], al

; 1705 :     c = _ADDX_UNIT(c, xp[1], yp[1], &zp[1]);

  00097	b8 08 00 00 00	 mov	 eax, 8
  0009c	48 6b c0 01	 imul	 rax, rax, 1
  000a0	48 8b 8d f8 00
	00 00		 mov	 rcx, QWORD PTR zp$[rbp]
  000a7	48 03 c8	 add	 rcx, rax
  000aa	48 8b c1	 mov	 rax, rcx
  000ad	b9 08 00 00 00	 mov	 ecx, 8
  000b2	48 6b c9 01	 imul	 rcx, rcx, 1
  000b6	ba 08 00 00 00	 mov	 edx, 8
  000bb	48 6b d2 01	 imul	 rdx, rdx, 1
  000bf	4c 8b c8	 mov	 r9, rax
  000c2	48 8b 85 f0 00
	00 00		 mov	 rax, QWORD PTR yp$[rbp]
  000c9	4c 8b 04 08	 mov	 r8, QWORD PTR [rax+rcx]
  000cd	48 8b 85 e8 00
	00 00		 mov	 rax, QWORD PTR xp$[rbp]
  000d4	48 8b 14 10	 mov	 rdx, QWORD PTR [rax+rdx]
  000d8	0f b6 8d e0 00
	00 00		 movzx	 ecx, BYTE PTR c$[rbp]
  000df	e8 00 00 00 00	 call	 _ADDX_UNIT
  000e4	88 85 e0 00 00
	00		 mov	 BYTE PTR c$[rbp], al

; 1706 :     c = _ADDX_UNIT(c, xp[2], yp[2], &zp[2]);

  000ea	b8 08 00 00 00	 mov	 eax, 8
  000ef	48 6b c0 02	 imul	 rax, rax, 2
  000f3	48 8b 8d f8 00
	00 00		 mov	 rcx, QWORD PTR zp$[rbp]
  000fa	48 03 c8	 add	 rcx, rax
  000fd	48 8b c1	 mov	 rax, rcx
  00100	b9 08 00 00 00	 mov	 ecx, 8
  00105	48 6b c9 02	 imul	 rcx, rcx, 2
  00109	ba 08 00 00 00	 mov	 edx, 8
  0010e	48 6b d2 02	 imul	 rdx, rdx, 2
  00112	4c 8b c8	 mov	 r9, rax
  00115	48 8b 85 f0 00
	00 00		 mov	 rax, QWORD PTR yp$[rbp]
  0011c	4c 8b 04 08	 mov	 r8, QWORD PTR [rax+rcx]
  00120	48 8b 85 e8 00
	00 00		 mov	 rax, QWORD PTR xp$[rbp]
  00127	48 8b 14 10	 mov	 rdx, QWORD PTR [rax+rdx]
  0012b	0f b6 8d e0 00
	00 00		 movzx	 ecx, BYTE PTR c$[rbp]
  00132	e8 00 00 00 00	 call	 _ADDX_UNIT
  00137	88 85 e0 00 00
	00		 mov	 BYTE PTR c$[rbp], al

; 1707 :     c = _ADDX_UNIT(c, xp[3], yp[3], &zp[3]);

  0013d	b8 08 00 00 00	 mov	 eax, 8
  00142	48 6b c0 03	 imul	 rax, rax, 3
  00146	48 8b 8d f8 00
	00 00		 mov	 rcx, QWORD PTR zp$[rbp]
  0014d	48 03 c8	 add	 rcx, rax
  00150	48 8b c1	 mov	 rax, rcx
  00153	b9 08 00 00 00	 mov	 ecx, 8
  00158	48 6b c9 03	 imul	 rcx, rcx, 3
  0015c	ba 08 00 00 00	 mov	 edx, 8
  00161	48 6b d2 03	 imul	 rdx, rdx, 3
  00165	4c 8b c8	 mov	 r9, rax
  00168	48 8b 85 f0 00
	00 00		 mov	 rax, QWORD PTR yp$[rbp]
  0016f	4c 8b 04 08	 mov	 r8, QWORD PTR [rax+rcx]
  00173	48 8b 85 e8 00
	00 00		 mov	 rax, QWORD PTR xp$[rbp]
  0017a	48 8b 14 10	 mov	 rdx, QWORD PTR [rax+rdx]
  0017e	0f b6 8d e0 00
	00 00		 movzx	 ecx, BYTE PTR c$[rbp]
  00185	e8 00 00 00 00	 call	 _ADDX_UNIT
  0018a	88 85 e0 00 00
	00		 mov	 BYTE PTR c$[rbp], al

; 1708 :     c = _ADDX_UNIT(c, xp[4], yp[4], &zp[4]);

  00190	b8 08 00 00 00	 mov	 eax, 8
  00195	48 6b c0 04	 imul	 rax, rax, 4
  00199	48 8b 8d f8 00
	00 00		 mov	 rcx, QWORD PTR zp$[rbp]
  001a0	48 03 c8	 add	 rcx, rax
  001a3	48 8b c1	 mov	 rax, rcx
  001a6	b9 08 00 00 00	 mov	 ecx, 8
  001ab	48 6b c9 04	 imul	 rcx, rcx, 4
  001af	ba 08 00 00 00	 mov	 edx, 8
  001b4	48 6b d2 04	 imul	 rdx, rdx, 4
  001b8	4c 8b c8	 mov	 r9, rax
  001bb	48 8b 85 f0 00
	00 00		 mov	 rax, QWORD PTR yp$[rbp]
  001c2	4c 8b 04 08	 mov	 r8, QWORD PTR [rax+rcx]
  001c6	48 8b 85 e8 00
	00 00		 mov	 rax, QWORD PTR xp$[rbp]
  001cd	48 8b 14 10	 mov	 rdx, QWORD PTR [rax+rdx]
  001d1	0f b6 8d e0 00
	00 00		 movzx	 ecx, BYTE PTR c$[rbp]
  001d8	e8 00 00 00 00	 call	 _ADDX_UNIT
  001dd	88 85 e0 00 00
	00		 mov	 BYTE PTR c$[rbp], al

; 1709 :     c = _ADDX_UNIT(c, xp[5], yp[5], &zp[5]);

  001e3	b8 08 00 00 00	 mov	 eax, 8
  001e8	48 6b c0 05	 imul	 rax, rax, 5
  001ec	48 8b 8d f8 00
	00 00		 mov	 rcx, QWORD PTR zp$[rbp]
  001f3	48 03 c8	 add	 rcx, rax
  001f6	48 8b c1	 mov	 rax, rcx
  001f9	b9 08 00 00 00	 mov	 ecx, 8
  001fe	48 6b c9 05	 imul	 rcx, rcx, 5
  00202	ba 08 00 00 00	 mov	 edx, 8
  00207	48 6b d2 05	 imul	 rdx, rdx, 5
  0020b	4c 8b c8	 mov	 r9, rax
  0020e	48 8b 85 f0 00
	00 00		 mov	 rax, QWORD PTR yp$[rbp]
  00215	4c 8b 04 08	 mov	 r8, QWORD PTR [rax+rcx]
  00219	48 8b 85 e8 00
	00 00		 mov	 rax, QWORD PTR xp$[rbp]
  00220	48 8b 14 10	 mov	 rdx, QWORD PTR [rax+rdx]
  00224	0f b6 8d e0 00
	00 00		 movzx	 ecx, BYTE PTR c$[rbp]
  0022b	e8 00 00 00 00	 call	 _ADDX_UNIT
  00230	88 85 e0 00 00
	00		 mov	 BYTE PTR c$[rbp], al

; 1710 :     c = _ADDX_UNIT(c, xp[6], yp[6], &zp[6]);

  00236	b8 08 00 00 00	 mov	 eax, 8
  0023b	48 6b c0 06	 imul	 rax, rax, 6
  0023f	48 8b 8d f8 00
	00 00		 mov	 rcx, QWORD PTR zp$[rbp]
  00246	48 03 c8	 add	 rcx, rax
  00249	48 8b c1	 mov	 rax, rcx
  0024c	b9 08 00 00 00	 mov	 ecx, 8
  00251	48 6b c9 06	 imul	 rcx, rcx, 6
  00255	ba 08 00 00 00	 mov	 edx, 8
  0025a	48 6b d2 06	 imul	 rdx, rdx, 6
  0025e	4c 8b c8	 mov	 r9, rax
  00261	48 8b 85 f0 00
	00 00		 mov	 rax, QWORD PTR yp$[rbp]
  00268	4c 8b 04 08	 mov	 r8, QWORD PTR [rax+rcx]
  0026c	48 8b 85 e8 00
	00 00		 mov	 rax, QWORD PTR xp$[rbp]
  00273	48 8b 14 10	 mov	 rdx, QWORD PTR [rax+rdx]
  00277	0f b6 8d e0 00
	00 00		 movzx	 ecx, BYTE PTR c$[rbp]
  0027e	e8 00 00 00 00	 call	 _ADDX_UNIT
  00283	88 85 e0 00 00
	00		 mov	 BYTE PTR c$[rbp], al

; 1711 :     c = _ADDX_UNIT(c, xp[7], yp[7], &zp[7]);

  00289	b8 08 00 00 00	 mov	 eax, 8
  0028e	48 6b c0 07	 imul	 rax, rax, 7
  00292	48 8b 8d f8 00
	00 00		 mov	 rcx, QWORD PTR zp$[rbp]
  00299	48 03 c8	 add	 rcx, rax
  0029c	48 8b c1	 mov	 rax, rcx
  0029f	b9 08 00 00 00	 mov	 ecx, 8
  002a4	48 6b c9 07	 imul	 rcx, rcx, 7
  002a8	ba 08 00 00 00	 mov	 edx, 8
  002ad	48 6b d2 07	 imul	 rdx, rdx, 7
  002b1	4c 8b c8	 mov	 r9, rax
  002b4	48 8b 85 f0 00
	00 00		 mov	 rax, QWORD PTR yp$[rbp]
  002bb	4c 8b 04 08	 mov	 r8, QWORD PTR [rax+rcx]
  002bf	48 8b 85 e8 00
	00 00		 mov	 rax, QWORD PTR xp$[rbp]
  002c6	48 8b 14 10	 mov	 rdx, QWORD PTR [rax+rdx]
  002ca	0f b6 8d e0 00
	00 00		 movzx	 ecx, BYTE PTR c$[rbp]
  002d1	e8 00 00 00 00	 call	 _ADDX_UNIT
  002d6	88 85 e0 00 00
	00		 mov	 BYTE PTR c$[rbp], al

; 1712 : #elif defined(__GNUC__)
; 1713 : #ifdef _M_IX86
; 1714 :     __asm__ volatile (
; 1715 :         "addb\t$-1, %0\n\t"
; 1716 :         "movl\t(%1), %%ecx\n\t"
; 1717 :         "adcxl\t(%2), %%ecx\n\t"
; 1718 :         "movl\t%%ecx, (%3)\n\t"
; 1719 :         "movl\t4(%1), %%ecx\n\t"
; 1720 :         "adcxl\t4(%2), %%ecx\n\t"
; 1721 :         "movl\t%%ecx, 4(%3)\n\t"
; 1722 :         "movl\t8(%1), %%ecx\n\t"
; 1723 :         "adcxl\t8(%2), %%ecx\n\t"
; 1724 :         "movl\t%%ecx, 8(%3)\n\t"
; 1725 :         "movl\t12(%1), %%ecx\n\t"
; 1726 :         "adcxl\t12(%2), %%ecx\n\t"
; 1727 :         "movl\t%%ecx, 12(%3)\n\t"
; 1728 :         "movl\t16(%1), %%ecx\n\t"
; 1729 :         "adcxl\t16(%2), %%ecx\n\t"
; 1730 :         "movl\t%%ecx, 16(%3)\n\t"
; 1731 :         "movl\t20(%1), %%ecx\n\t"
; 1732 :         "adcxl\t20(%2), %%ecx\n\t"
; 1733 :         "movl\t%%ecx, 20(%3)\n\t"
; 1734 :         "movl\t24(%1), %%ecx\n\t"
; 1735 :         "adcxl\t24(%2), %%ecx\n\t"
; 1736 :         "movl\t%%ecx, 24(%3)\n\t"
; 1737 :         "movl\t28(%1), %%ecx\n\t"
; 1738 :         "adcxl\t28(%2), %%ecx\n\t"
; 1739 :         "movl\t%%ecx, 28(%3)\n\t"
; 1740 :         "setc\t%0"
; 1741 :         : "+r"(c), "+r"(xp), "+r"(yp), "+r"(zp)
; 1742 :         :
; 1743 :         : "cc", "memory", "%ecx"
; 1744 : );
; 1745 : #elif defined(_M_X64)
; 1746 :     __asm__ volatile (
; 1747 :         "addb\t$-1, %0\n\t"
; 1748 :         "movq\t(%1), %%rcx\n\t"
; 1749 :         "adcxq\t(%2), %%rcx\n\t"
; 1750 :         "movq\t%%rcx, (%3)\n\t"
; 1751 :         "movq\t8(%1), %%rcx\n\t"
; 1752 :         "adcxq\t8(%2), %%rcx\n\t"
; 1753 :         "movq\t%%rcx, 8(%3)\n\t"
; 1754 :         "movq\t16(%1), %%rcx\n\t"
; 1755 :         "adcxq\t16(%2), %%rcx\n\t"
; 1756 :         "movq\t%%rcx, 16(%3)\n\t"
; 1757 :         "movq\t24(%1), %%rcx\n\t"
; 1758 :         "adcxq\t24(%2), %%rcx\n\t"
; 1759 :         "movq\t%%rcx, 24(%3)\n\t"
; 1760 :         "movq\t32(%1), %%rcx\n\t"
; 1761 :         "adcxq\t32(%2), %%rcx\n\t"
; 1762 :         "movq\t%%rcx, 32(%3)\n\t"
; 1763 :         "movq\t40(%1), %%rcx\n\t"
; 1764 :         "adcxq\t40(%2), %%rcx\n\t"
; 1765 :         "movq\t%%rcx, 40(%3)\n\t"
; 1766 :         "movq\t48(%1), %%rcx\n\t"
; 1767 :         "adcxq\t48(%2), %%rcx\n\t"
; 1768 :         "movq\t%%rcx, 48(%3)\n\t"
; 1769 :         "movq\t56(%1), %%rcx\n\t"
; 1770 :         "adcxq\t56(%2), %%rcx\n\t"
; 1771 :         "movq\t%%rcx, 56(%3)\n\t"
; 1772 :         "setc\t%0"
; 1773 :         : "+r"(c), "+r"(xp), "+r"(yp), "+r"(zp)
; 1774 :         :
; 1775 :         : "cc", "memory", "%rcx"
; 1776 : );
; 1777 : #else
; 1778 : #error unknown platform
; 1779 : #endif
; 1780 : #else
; 1781 : #error unknown compiler
; 1782 : #endif
; 1783 :     return (c);

  002dc	0f b6 85 e0 00
	00 00		 movzx	 eax, BYTE PTR c$[rbp]

; 1784 : }

  002e3	48 8d a5 c8 00
	00 00		 lea	 rsp, QWORD PTR [rbp+200]
  002ea	5f		 pop	 rdi
  002eb	5d		 pop	 rbp
  002ec	c3		 ret	 0
_ADD_8WORDS_ADCX ENDP
_TEXT	ENDS
; Function compile flags: /Odtp /RTCsu /ZI
; File z:\sources\lunor\repos\rougemeilland\palmtree.math.core.uint\palmtree.math.core.uint\autogenerated_inline_func.h
;	COMDAT _ADD_8WORDS_ADC
_TEXT	SEGMENT
c$ = 224
xp$ = 232
yp$ = 240
zp$ = 248
_ADD_8WORDS_ADC PROC					; COMDAT

; 1617 : {

  00000	4c 89 4c 24 20	 mov	 QWORD PTR [rsp+32], r9
  00005	4c 89 44 24 18	 mov	 QWORD PTR [rsp+24], r8
  0000a	48 89 54 24 10	 mov	 QWORD PTR [rsp+16], rdx
  0000f	88 4c 24 08	 mov	 BYTE PTR [rsp+8], cl
  00013	55		 push	 rbp
  00014	57		 push	 rdi
  00015	48 81 ec e8 00
	00 00		 sub	 rsp, 232		; 000000e8H
  0001c	48 8d 6c 24 20	 lea	 rbp, QWORD PTR [rsp+32]
  00021	48 8b fc	 mov	 rdi, rsp
  00024	b9 3a 00 00 00	 mov	 ecx, 58			; 0000003aH
  00029	b8 cc cc cc cc	 mov	 eax, -858993460		; ccccccccH
  0002e	f3 ab		 rep stosd
  00030	0f b6 8c 24 08
	01 00 00	 movzx	 ecx, BYTE PTR [rsp+264]
  00038	48 8d 0d 00 00
	00 00		 lea	 rcx, OFFSET FLAT:__E05E7037_autogenerated_inline_func@h
  0003f	e8 00 00 00 00	 call	 __CheckForDebuggerJustMyCode

; 1618 : #ifdef _MSC_VER
; 1619 :     c = _ADD_UNIT(c, xp[0], yp[0], &zp[0]);

  00044	b8 08 00 00 00	 mov	 eax, 8
  00049	48 6b c0 00	 imul	 rax, rax, 0
  0004d	48 8b 8d f8 00
	00 00		 mov	 rcx, QWORD PTR zp$[rbp]
  00054	48 03 c8	 add	 rcx, rax
  00057	48 8b c1	 mov	 rax, rcx
  0005a	b9 08 00 00 00	 mov	 ecx, 8
  0005f	48 6b c9 00	 imul	 rcx, rcx, 0
  00063	ba 08 00 00 00	 mov	 edx, 8
  00068	48 6b d2 00	 imul	 rdx, rdx, 0
  0006c	4c 8b c8	 mov	 r9, rax
  0006f	48 8b 85 f0 00
	00 00		 mov	 rax, QWORD PTR yp$[rbp]
  00076	4c 8b 04 08	 mov	 r8, QWORD PTR [rax+rcx]
  0007a	48 8b 85 e8 00
	00 00		 mov	 rax, QWORD PTR xp$[rbp]
  00081	48 8b 14 10	 mov	 rdx, QWORD PTR [rax+rdx]
  00085	0f b6 8d e0 00
	00 00		 movzx	 ecx, BYTE PTR c$[rbp]
  0008c	e8 00 00 00 00	 call	 _ADD_UNIT
  00091	88 85 e0 00 00
	00		 mov	 BYTE PTR c$[rbp], al

; 1620 :     c = _ADD_UNIT(c, xp[1], yp[1], &zp[1]);

  00097	b8 08 00 00 00	 mov	 eax, 8
  0009c	48 6b c0 01	 imul	 rax, rax, 1
  000a0	48 8b 8d f8 00
	00 00		 mov	 rcx, QWORD PTR zp$[rbp]
  000a7	48 03 c8	 add	 rcx, rax
  000aa	48 8b c1	 mov	 rax, rcx
  000ad	b9 08 00 00 00	 mov	 ecx, 8
  000b2	48 6b c9 01	 imul	 rcx, rcx, 1
  000b6	ba 08 00 00 00	 mov	 edx, 8
  000bb	48 6b d2 01	 imul	 rdx, rdx, 1
  000bf	4c 8b c8	 mov	 r9, rax
  000c2	48 8b 85 f0 00
	00 00		 mov	 rax, QWORD PTR yp$[rbp]
  000c9	4c 8b 04 08	 mov	 r8, QWORD PTR [rax+rcx]
  000cd	48 8b 85 e8 00
	00 00		 mov	 rax, QWORD PTR xp$[rbp]
  000d4	48 8b 14 10	 mov	 rdx, QWORD PTR [rax+rdx]
  000d8	0f b6 8d e0 00
	00 00		 movzx	 ecx, BYTE PTR c$[rbp]
  000df	e8 00 00 00 00	 call	 _ADD_UNIT
  000e4	88 85 e0 00 00
	00		 mov	 BYTE PTR c$[rbp], al

; 1621 :     c = _ADD_UNIT(c, xp[2], yp[2], &zp[2]);

  000ea	b8 08 00 00 00	 mov	 eax, 8
  000ef	48 6b c0 02	 imul	 rax, rax, 2
  000f3	48 8b 8d f8 00
	00 00		 mov	 rcx, QWORD PTR zp$[rbp]
  000fa	48 03 c8	 add	 rcx, rax
  000fd	48 8b c1	 mov	 rax, rcx
  00100	b9 08 00 00 00	 mov	 ecx, 8
  00105	48 6b c9 02	 imul	 rcx, rcx, 2
  00109	ba 08 00 00 00	 mov	 edx, 8
  0010e	48 6b d2 02	 imul	 rdx, rdx, 2
  00112	4c 8b c8	 mov	 r9, rax
  00115	48 8b 85 f0 00
	00 00		 mov	 rax, QWORD PTR yp$[rbp]
  0011c	4c 8b 04 08	 mov	 r8, QWORD PTR [rax+rcx]
  00120	48 8b 85 e8 00
	00 00		 mov	 rax, QWORD PTR xp$[rbp]
  00127	48 8b 14 10	 mov	 rdx, QWORD PTR [rax+rdx]
  0012b	0f b6 8d e0 00
	00 00		 movzx	 ecx, BYTE PTR c$[rbp]
  00132	e8 00 00 00 00	 call	 _ADD_UNIT
  00137	88 85 e0 00 00
	00		 mov	 BYTE PTR c$[rbp], al

; 1622 :     c = _ADD_UNIT(c, xp[3], yp[3], &zp[3]);

  0013d	b8 08 00 00 00	 mov	 eax, 8
  00142	48 6b c0 03	 imul	 rax, rax, 3
  00146	48 8b 8d f8 00
	00 00		 mov	 rcx, QWORD PTR zp$[rbp]
  0014d	48 03 c8	 add	 rcx, rax
  00150	48 8b c1	 mov	 rax, rcx
  00153	b9 08 00 00 00	 mov	 ecx, 8
  00158	48 6b c9 03	 imul	 rcx, rcx, 3
  0015c	ba 08 00 00 00	 mov	 edx, 8
  00161	48 6b d2 03	 imul	 rdx, rdx, 3
  00165	4c 8b c8	 mov	 r9, rax
  00168	48 8b 85 f0 00
	00 00		 mov	 rax, QWORD PTR yp$[rbp]
  0016f	4c 8b 04 08	 mov	 r8, QWORD PTR [rax+rcx]
  00173	48 8b 85 e8 00
	00 00		 mov	 rax, QWORD PTR xp$[rbp]
  0017a	48 8b 14 10	 mov	 rdx, QWORD PTR [rax+rdx]
  0017e	0f b6 8d e0 00
	00 00		 movzx	 ecx, BYTE PTR c$[rbp]
  00185	e8 00 00 00 00	 call	 _ADD_UNIT
  0018a	88 85 e0 00 00
	00		 mov	 BYTE PTR c$[rbp], al

; 1623 :     c = _ADD_UNIT(c, xp[4], yp[4], &zp[4]);

  00190	b8 08 00 00 00	 mov	 eax, 8
  00195	48 6b c0 04	 imul	 rax, rax, 4
  00199	48 8b 8d f8 00
	00 00		 mov	 rcx, QWORD PTR zp$[rbp]
  001a0	48 03 c8	 add	 rcx, rax
  001a3	48 8b c1	 mov	 rax, rcx
  001a6	b9 08 00 00 00	 mov	 ecx, 8
  001ab	48 6b c9 04	 imul	 rcx, rcx, 4
  001af	ba 08 00 00 00	 mov	 edx, 8
  001b4	48 6b d2 04	 imul	 rdx, rdx, 4
  001b8	4c 8b c8	 mov	 r9, rax
  001bb	48 8b 85 f0 00
	00 00		 mov	 rax, QWORD PTR yp$[rbp]
  001c2	4c 8b 04 08	 mov	 r8, QWORD PTR [rax+rcx]
  001c6	48 8b 85 e8 00
	00 00		 mov	 rax, QWORD PTR xp$[rbp]
  001cd	48 8b 14 10	 mov	 rdx, QWORD PTR [rax+rdx]
  001d1	0f b6 8d e0 00
	00 00		 movzx	 ecx, BYTE PTR c$[rbp]
  001d8	e8 00 00 00 00	 call	 _ADD_UNIT
  001dd	88 85 e0 00 00
	00		 mov	 BYTE PTR c$[rbp], al

; 1624 :     c = _ADD_UNIT(c, xp[5], yp[5], &zp[5]);

  001e3	b8 08 00 00 00	 mov	 eax, 8
  001e8	48 6b c0 05	 imul	 rax, rax, 5
  001ec	48 8b 8d f8 00
	00 00		 mov	 rcx, QWORD PTR zp$[rbp]
  001f3	48 03 c8	 add	 rcx, rax
  001f6	48 8b c1	 mov	 rax, rcx
  001f9	b9 08 00 00 00	 mov	 ecx, 8
  001fe	48 6b c9 05	 imul	 rcx, rcx, 5
  00202	ba 08 00 00 00	 mov	 edx, 8
  00207	48 6b d2 05	 imul	 rdx, rdx, 5
  0020b	4c 8b c8	 mov	 r9, rax
  0020e	48 8b 85 f0 00
	00 00		 mov	 rax, QWORD PTR yp$[rbp]
  00215	4c 8b 04 08	 mov	 r8, QWORD PTR [rax+rcx]
  00219	48 8b 85 e8 00
	00 00		 mov	 rax, QWORD PTR xp$[rbp]
  00220	48 8b 14 10	 mov	 rdx, QWORD PTR [rax+rdx]
  00224	0f b6 8d e0 00
	00 00		 movzx	 ecx, BYTE PTR c$[rbp]
  0022b	e8 00 00 00 00	 call	 _ADD_UNIT
  00230	88 85 e0 00 00
	00		 mov	 BYTE PTR c$[rbp], al

; 1625 :     c = _ADD_UNIT(c, xp[6], yp[6], &zp[6]);

  00236	b8 08 00 00 00	 mov	 eax, 8
  0023b	48 6b c0 06	 imul	 rax, rax, 6
  0023f	48 8b 8d f8 00
	00 00		 mov	 rcx, QWORD PTR zp$[rbp]
  00246	48 03 c8	 add	 rcx, rax
  00249	48 8b c1	 mov	 rax, rcx
  0024c	b9 08 00 00 00	 mov	 ecx, 8
  00251	48 6b c9 06	 imul	 rcx, rcx, 6
  00255	ba 08 00 00 00	 mov	 edx, 8
  0025a	48 6b d2 06	 imul	 rdx, rdx, 6
  0025e	4c 8b c8	 mov	 r9, rax
  00261	48 8b 85 f0 00
	00 00		 mov	 rax, QWORD PTR yp$[rbp]
  00268	4c 8b 04 08	 mov	 r8, QWORD PTR [rax+rcx]
  0026c	48 8b 85 e8 00
	00 00		 mov	 rax, QWORD PTR xp$[rbp]
  00273	48 8b 14 10	 mov	 rdx, QWORD PTR [rax+rdx]
  00277	0f b6 8d e0 00
	00 00		 movzx	 ecx, BYTE PTR c$[rbp]
  0027e	e8 00 00 00 00	 call	 _ADD_UNIT
  00283	88 85 e0 00 00
	00		 mov	 BYTE PTR c$[rbp], al

; 1626 :     c = _ADD_UNIT(c, xp[7], yp[7], &zp[7]);

  00289	b8 08 00 00 00	 mov	 eax, 8
  0028e	48 6b c0 07	 imul	 rax, rax, 7
  00292	48 8b 8d f8 00
	00 00		 mov	 rcx, QWORD PTR zp$[rbp]
  00299	48 03 c8	 add	 rcx, rax
  0029c	48 8b c1	 mov	 rax, rcx
  0029f	b9 08 00 00 00	 mov	 ecx, 8
  002a4	48 6b c9 07	 imul	 rcx, rcx, 7
  002a8	ba 08 00 00 00	 mov	 edx, 8
  002ad	48 6b d2 07	 imul	 rdx, rdx, 7
  002b1	4c 8b c8	 mov	 r9, rax
  002b4	48 8b 85 f0 00
	00 00		 mov	 rax, QWORD PTR yp$[rbp]
  002bb	4c 8b 04 08	 mov	 r8, QWORD PTR [rax+rcx]
  002bf	48 8b 85 e8 00
	00 00		 mov	 rax, QWORD PTR xp$[rbp]
  002c6	48 8b 14 10	 mov	 rdx, QWORD PTR [rax+rdx]
  002ca	0f b6 8d e0 00
	00 00		 movzx	 ecx, BYTE PTR c$[rbp]
  002d1	e8 00 00 00 00	 call	 _ADD_UNIT
  002d6	88 85 e0 00 00
	00		 mov	 BYTE PTR c$[rbp], al

; 1627 : #elif defined(__GNUC__)
; 1628 : #ifdef _M_IX86
; 1629 :     __asm__ volatile (
; 1630 :         "addb\t$-1, %0\n\t"
; 1631 :         "movl\t(%1), %%ecx\n\t"
; 1632 :         "adcl\t(%2), %%ecx\n\t"
; 1633 :         "movl\t%%ecx, (%3)\n\t"
; 1634 :         "movl\t4(%1), %%ecx\n\t"
; 1635 :         "adcl\t4(%2), %%ecx\n\t"
; 1636 :         "movl\t%%ecx, 4(%3)\n\t"
; 1637 :         "movl\t8(%1), %%ecx\n\t"
; 1638 :         "adcl\t8(%2), %%ecx\n\t"
; 1639 :         "movl\t%%ecx, 8(%3)\n\t"
; 1640 :         "movl\t12(%1), %%ecx\n\t"
; 1641 :         "adcl\t12(%2), %%ecx\n\t"
; 1642 :         "movl\t%%ecx, 12(%3)\n\t"
; 1643 :         "movl\t16(%1), %%ecx\n\t"
; 1644 :         "adcl\t16(%2), %%ecx\n\t"
; 1645 :         "movl\t%%ecx, 16(%3)\n\t"
; 1646 :         "movl\t20(%1), %%ecx\n\t"
; 1647 :         "adcl\t20(%2), %%ecx\n\t"
; 1648 :         "movl\t%%ecx, 20(%3)\n\t"
; 1649 :         "movl\t24(%1), %%ecx\n\t"
; 1650 :         "adcl\t24(%2), %%ecx\n\t"
; 1651 :         "movl\t%%ecx, 24(%3)\n\t"
; 1652 :         "movl\t28(%1), %%ecx\n\t"
; 1653 :         "adcl\t28(%2), %%ecx\n\t"
; 1654 :         "movl\t%%ecx, 28(%3)\n\t"
; 1655 :         "setc\t%0"
; 1656 :         : "+r"(c), "+r"(xp), "+r"(yp), "+r"(zp)
; 1657 :         :
; 1658 :         : "cc", "memory", "%ecx"
; 1659 : );
; 1660 : #elif defined(_M_X64)
; 1661 :     __asm__ volatile (
; 1662 :         "addb\t$-1, %0\n\t"
; 1663 :         "movq\t(%1), %%rcx\n\t"
; 1664 :         "adcq\t(%2), %%rcx\n\t"
; 1665 :         "movq\t%%rcx, (%3)\n\t"
; 1666 :         "movq\t8(%1), %%rcx\n\t"
; 1667 :         "adcq\t8(%2), %%rcx\n\t"
; 1668 :         "movq\t%%rcx, 8(%3)\n\t"
; 1669 :         "movq\t16(%1), %%rcx\n\t"
; 1670 :         "adcq\t16(%2), %%rcx\n\t"
; 1671 :         "movq\t%%rcx, 16(%3)\n\t"
; 1672 :         "movq\t24(%1), %%rcx\n\t"
; 1673 :         "adcq\t24(%2), %%rcx\n\t"
; 1674 :         "movq\t%%rcx, 24(%3)\n\t"
; 1675 :         "movq\t32(%1), %%rcx\n\t"
; 1676 :         "adcq\t32(%2), %%rcx\n\t"
; 1677 :         "movq\t%%rcx, 32(%3)\n\t"
; 1678 :         "movq\t40(%1), %%rcx\n\t"
; 1679 :         "adcq\t40(%2), %%rcx\n\t"
; 1680 :         "movq\t%%rcx, 40(%3)\n\t"
; 1681 :         "movq\t48(%1), %%rcx\n\t"
; 1682 :         "adcq\t48(%2), %%rcx\n\t"
; 1683 :         "movq\t%%rcx, 48(%3)\n\t"
; 1684 :         "movq\t56(%1), %%rcx\n\t"
; 1685 :         "adcq\t56(%2), %%rcx\n\t"
; 1686 :         "movq\t%%rcx, 56(%3)\n\t"
; 1687 :         "setc\t%0"
; 1688 :         : "+r"(c), "+r"(xp), "+r"(yp), "+r"(zp)
; 1689 :         :
; 1690 :         : "cc", "memory", "%rcx"
; 1691 : );
; 1692 : #else
; 1693 : #error unknown platform
; 1694 : #endif
; 1695 : #else
; 1696 : #error unknown compiler
; 1697 : #endif
; 1698 :     return (c);

  002dc	0f b6 85 e0 00
	00 00		 movzx	 eax, BYTE PTR c$[rbp]

; 1699 : }

  002e3	48 8d a5 c8 00
	00 00		 lea	 rsp, QWORD PTR [rbp+200]
  002ea	5f		 pop	 rdi
  002eb	5d		 pop	 rbp
  002ec	c3		 ret	 0
_ADD_8WORDS_ADC ENDP
_TEXT	ENDS
; Function compile flags: /Odtp /RTCsu /ZI
; File z:\sources\lunor\repos\rougemeilland\palmtree.math.core.uint\palmtree.math.core.uint\autogenerated_inline_func.h
;	COMDAT _ADD_16WORDS_ADCX
_TEXT	SEGMENT
c$ = 224
xp$ = 232
yp$ = 240
zp$ = 248
_ADD_16WORDS_ADCX PROC					; COMDAT

; 1194 : {

  00000	4c 89 4c 24 20	 mov	 QWORD PTR [rsp+32], r9
  00005	4c 89 44 24 18	 mov	 QWORD PTR [rsp+24], r8
  0000a	48 89 54 24 10	 mov	 QWORD PTR [rsp+16], rdx
  0000f	88 4c 24 08	 mov	 BYTE PTR [rsp+8], cl
  00013	55		 push	 rbp
  00014	57		 push	 rdi
  00015	48 81 ec e8 00
	00 00		 sub	 rsp, 232		; 000000e8H
  0001c	48 8d 6c 24 20	 lea	 rbp, QWORD PTR [rsp+32]
  00021	48 8b fc	 mov	 rdi, rsp
  00024	b9 3a 00 00 00	 mov	 ecx, 58			; 0000003aH
  00029	b8 cc cc cc cc	 mov	 eax, -858993460		; ccccccccH
  0002e	f3 ab		 rep stosd
  00030	0f b6 8c 24 08
	01 00 00	 movzx	 ecx, BYTE PTR [rsp+264]
  00038	48 8d 0d 00 00
	00 00		 lea	 rcx, OFFSET FLAT:__E05E7037_autogenerated_inline_func@h
  0003f	e8 00 00 00 00	 call	 __CheckForDebuggerJustMyCode

; 1195 : #ifdef _MSC_VER
; 1196 :     c = _ADDX_UNIT(c, xp[0], yp[0], &zp[0]);

  00044	b8 08 00 00 00	 mov	 eax, 8
  00049	48 6b c0 00	 imul	 rax, rax, 0
  0004d	48 8b 8d f8 00
	00 00		 mov	 rcx, QWORD PTR zp$[rbp]
  00054	48 03 c8	 add	 rcx, rax
  00057	48 8b c1	 mov	 rax, rcx
  0005a	b9 08 00 00 00	 mov	 ecx, 8
  0005f	48 6b c9 00	 imul	 rcx, rcx, 0
  00063	ba 08 00 00 00	 mov	 edx, 8
  00068	48 6b d2 00	 imul	 rdx, rdx, 0
  0006c	4c 8b c8	 mov	 r9, rax
  0006f	48 8b 85 f0 00
	00 00		 mov	 rax, QWORD PTR yp$[rbp]
  00076	4c 8b 04 08	 mov	 r8, QWORD PTR [rax+rcx]
  0007a	48 8b 85 e8 00
	00 00		 mov	 rax, QWORD PTR xp$[rbp]
  00081	48 8b 14 10	 mov	 rdx, QWORD PTR [rax+rdx]
  00085	0f b6 8d e0 00
	00 00		 movzx	 ecx, BYTE PTR c$[rbp]
  0008c	e8 00 00 00 00	 call	 _ADDX_UNIT
  00091	88 85 e0 00 00
	00		 mov	 BYTE PTR c$[rbp], al

; 1197 :     c = _ADDX_UNIT(c, xp[1], yp[1], &zp[1]);

  00097	b8 08 00 00 00	 mov	 eax, 8
  0009c	48 6b c0 01	 imul	 rax, rax, 1
  000a0	48 8b 8d f8 00
	00 00		 mov	 rcx, QWORD PTR zp$[rbp]
  000a7	48 03 c8	 add	 rcx, rax
  000aa	48 8b c1	 mov	 rax, rcx
  000ad	b9 08 00 00 00	 mov	 ecx, 8
  000b2	48 6b c9 01	 imul	 rcx, rcx, 1
  000b6	ba 08 00 00 00	 mov	 edx, 8
  000bb	48 6b d2 01	 imul	 rdx, rdx, 1
  000bf	4c 8b c8	 mov	 r9, rax
  000c2	48 8b 85 f0 00
	00 00		 mov	 rax, QWORD PTR yp$[rbp]
  000c9	4c 8b 04 08	 mov	 r8, QWORD PTR [rax+rcx]
  000cd	48 8b 85 e8 00
	00 00		 mov	 rax, QWORD PTR xp$[rbp]
  000d4	48 8b 14 10	 mov	 rdx, QWORD PTR [rax+rdx]
  000d8	0f b6 8d e0 00
	00 00		 movzx	 ecx, BYTE PTR c$[rbp]
  000df	e8 00 00 00 00	 call	 _ADDX_UNIT
  000e4	88 85 e0 00 00
	00		 mov	 BYTE PTR c$[rbp], al

; 1198 :     c = _ADDX_UNIT(c, xp[2], yp[2], &zp[2]);

  000ea	b8 08 00 00 00	 mov	 eax, 8
  000ef	48 6b c0 02	 imul	 rax, rax, 2
  000f3	48 8b 8d f8 00
	00 00		 mov	 rcx, QWORD PTR zp$[rbp]
  000fa	48 03 c8	 add	 rcx, rax
  000fd	48 8b c1	 mov	 rax, rcx
  00100	b9 08 00 00 00	 mov	 ecx, 8
  00105	48 6b c9 02	 imul	 rcx, rcx, 2
  00109	ba 08 00 00 00	 mov	 edx, 8
  0010e	48 6b d2 02	 imul	 rdx, rdx, 2
  00112	4c 8b c8	 mov	 r9, rax
  00115	48 8b 85 f0 00
	00 00		 mov	 rax, QWORD PTR yp$[rbp]
  0011c	4c 8b 04 08	 mov	 r8, QWORD PTR [rax+rcx]
  00120	48 8b 85 e8 00
	00 00		 mov	 rax, QWORD PTR xp$[rbp]
  00127	48 8b 14 10	 mov	 rdx, QWORD PTR [rax+rdx]
  0012b	0f b6 8d e0 00
	00 00		 movzx	 ecx, BYTE PTR c$[rbp]
  00132	e8 00 00 00 00	 call	 _ADDX_UNIT
  00137	88 85 e0 00 00
	00		 mov	 BYTE PTR c$[rbp], al

; 1199 :     c = _ADDX_UNIT(c, xp[3], yp[3], &zp[3]);

  0013d	b8 08 00 00 00	 mov	 eax, 8
  00142	48 6b c0 03	 imul	 rax, rax, 3
  00146	48 8b 8d f8 00
	00 00		 mov	 rcx, QWORD PTR zp$[rbp]
  0014d	48 03 c8	 add	 rcx, rax
  00150	48 8b c1	 mov	 rax, rcx
  00153	b9 08 00 00 00	 mov	 ecx, 8
  00158	48 6b c9 03	 imul	 rcx, rcx, 3
  0015c	ba 08 00 00 00	 mov	 edx, 8
  00161	48 6b d2 03	 imul	 rdx, rdx, 3
  00165	4c 8b c8	 mov	 r9, rax
  00168	48 8b 85 f0 00
	00 00		 mov	 rax, QWORD PTR yp$[rbp]
  0016f	4c 8b 04 08	 mov	 r8, QWORD PTR [rax+rcx]
  00173	48 8b 85 e8 00
	00 00		 mov	 rax, QWORD PTR xp$[rbp]
  0017a	48 8b 14 10	 mov	 rdx, QWORD PTR [rax+rdx]
  0017e	0f b6 8d e0 00
	00 00		 movzx	 ecx, BYTE PTR c$[rbp]
  00185	e8 00 00 00 00	 call	 _ADDX_UNIT
  0018a	88 85 e0 00 00
	00		 mov	 BYTE PTR c$[rbp], al

; 1200 :     c = _ADDX_UNIT(c, xp[4], yp[4], &zp[4]);

  00190	b8 08 00 00 00	 mov	 eax, 8
  00195	48 6b c0 04	 imul	 rax, rax, 4
  00199	48 8b 8d f8 00
	00 00		 mov	 rcx, QWORD PTR zp$[rbp]
  001a0	48 03 c8	 add	 rcx, rax
  001a3	48 8b c1	 mov	 rax, rcx
  001a6	b9 08 00 00 00	 mov	 ecx, 8
  001ab	48 6b c9 04	 imul	 rcx, rcx, 4
  001af	ba 08 00 00 00	 mov	 edx, 8
  001b4	48 6b d2 04	 imul	 rdx, rdx, 4
  001b8	4c 8b c8	 mov	 r9, rax
  001bb	48 8b 85 f0 00
	00 00		 mov	 rax, QWORD PTR yp$[rbp]
  001c2	4c 8b 04 08	 mov	 r8, QWORD PTR [rax+rcx]
  001c6	48 8b 85 e8 00
	00 00		 mov	 rax, QWORD PTR xp$[rbp]
  001cd	48 8b 14 10	 mov	 rdx, QWORD PTR [rax+rdx]
  001d1	0f b6 8d e0 00
	00 00		 movzx	 ecx, BYTE PTR c$[rbp]
  001d8	e8 00 00 00 00	 call	 _ADDX_UNIT
  001dd	88 85 e0 00 00
	00		 mov	 BYTE PTR c$[rbp], al

; 1201 :     c = _ADDX_UNIT(c, xp[5], yp[5], &zp[5]);

  001e3	b8 08 00 00 00	 mov	 eax, 8
  001e8	48 6b c0 05	 imul	 rax, rax, 5
  001ec	48 8b 8d f8 00
	00 00		 mov	 rcx, QWORD PTR zp$[rbp]
  001f3	48 03 c8	 add	 rcx, rax
  001f6	48 8b c1	 mov	 rax, rcx
  001f9	b9 08 00 00 00	 mov	 ecx, 8
  001fe	48 6b c9 05	 imul	 rcx, rcx, 5
  00202	ba 08 00 00 00	 mov	 edx, 8
  00207	48 6b d2 05	 imul	 rdx, rdx, 5
  0020b	4c 8b c8	 mov	 r9, rax
  0020e	48 8b 85 f0 00
	00 00		 mov	 rax, QWORD PTR yp$[rbp]
  00215	4c 8b 04 08	 mov	 r8, QWORD PTR [rax+rcx]
  00219	48 8b 85 e8 00
	00 00		 mov	 rax, QWORD PTR xp$[rbp]
  00220	48 8b 14 10	 mov	 rdx, QWORD PTR [rax+rdx]
  00224	0f b6 8d e0 00
	00 00		 movzx	 ecx, BYTE PTR c$[rbp]
  0022b	e8 00 00 00 00	 call	 _ADDX_UNIT
  00230	88 85 e0 00 00
	00		 mov	 BYTE PTR c$[rbp], al

; 1202 :     c = _ADDX_UNIT(c, xp[6], yp[6], &zp[6]);

  00236	b8 08 00 00 00	 mov	 eax, 8
  0023b	48 6b c0 06	 imul	 rax, rax, 6
  0023f	48 8b 8d f8 00
	00 00		 mov	 rcx, QWORD PTR zp$[rbp]
  00246	48 03 c8	 add	 rcx, rax
  00249	48 8b c1	 mov	 rax, rcx
  0024c	b9 08 00 00 00	 mov	 ecx, 8
  00251	48 6b c9 06	 imul	 rcx, rcx, 6
  00255	ba 08 00 00 00	 mov	 edx, 8
  0025a	48 6b d2 06	 imul	 rdx, rdx, 6
  0025e	4c 8b c8	 mov	 r9, rax
  00261	48 8b 85 f0 00
	00 00		 mov	 rax, QWORD PTR yp$[rbp]
  00268	4c 8b 04 08	 mov	 r8, QWORD PTR [rax+rcx]
  0026c	48 8b 85 e8 00
	00 00		 mov	 rax, QWORD PTR xp$[rbp]
  00273	48 8b 14 10	 mov	 rdx, QWORD PTR [rax+rdx]
  00277	0f b6 8d e0 00
	00 00		 movzx	 ecx, BYTE PTR c$[rbp]
  0027e	e8 00 00 00 00	 call	 _ADDX_UNIT
  00283	88 85 e0 00 00
	00		 mov	 BYTE PTR c$[rbp], al

; 1203 :     c = _ADDX_UNIT(c, xp[7], yp[7], &zp[7]);

  00289	b8 08 00 00 00	 mov	 eax, 8
  0028e	48 6b c0 07	 imul	 rax, rax, 7
  00292	48 8b 8d f8 00
	00 00		 mov	 rcx, QWORD PTR zp$[rbp]
  00299	48 03 c8	 add	 rcx, rax
  0029c	48 8b c1	 mov	 rax, rcx
  0029f	b9 08 00 00 00	 mov	 ecx, 8
  002a4	48 6b c9 07	 imul	 rcx, rcx, 7
  002a8	ba 08 00 00 00	 mov	 edx, 8
  002ad	48 6b d2 07	 imul	 rdx, rdx, 7
  002b1	4c 8b c8	 mov	 r9, rax
  002b4	48 8b 85 f0 00
	00 00		 mov	 rax, QWORD PTR yp$[rbp]
  002bb	4c 8b 04 08	 mov	 r8, QWORD PTR [rax+rcx]
  002bf	48 8b 85 e8 00
	00 00		 mov	 rax, QWORD PTR xp$[rbp]
  002c6	48 8b 14 10	 mov	 rdx, QWORD PTR [rax+rdx]
  002ca	0f b6 8d e0 00
	00 00		 movzx	 ecx, BYTE PTR c$[rbp]
  002d1	e8 00 00 00 00	 call	 _ADDX_UNIT
  002d6	88 85 e0 00 00
	00		 mov	 BYTE PTR c$[rbp], al

; 1204 :     c = _ADDX_UNIT(c, xp[8], yp[8], &zp[8]);

  002dc	b8 08 00 00 00	 mov	 eax, 8
  002e1	48 6b c0 08	 imul	 rax, rax, 8
  002e5	48 8b 8d f8 00
	00 00		 mov	 rcx, QWORD PTR zp$[rbp]
  002ec	48 03 c8	 add	 rcx, rax
  002ef	48 8b c1	 mov	 rax, rcx
  002f2	b9 08 00 00 00	 mov	 ecx, 8
  002f7	48 6b c9 08	 imul	 rcx, rcx, 8
  002fb	ba 08 00 00 00	 mov	 edx, 8
  00300	48 6b d2 08	 imul	 rdx, rdx, 8
  00304	4c 8b c8	 mov	 r9, rax
  00307	48 8b 85 f0 00
	00 00		 mov	 rax, QWORD PTR yp$[rbp]
  0030e	4c 8b 04 08	 mov	 r8, QWORD PTR [rax+rcx]
  00312	48 8b 85 e8 00
	00 00		 mov	 rax, QWORD PTR xp$[rbp]
  00319	48 8b 14 10	 mov	 rdx, QWORD PTR [rax+rdx]
  0031d	0f b6 8d e0 00
	00 00		 movzx	 ecx, BYTE PTR c$[rbp]
  00324	e8 00 00 00 00	 call	 _ADDX_UNIT
  00329	88 85 e0 00 00
	00		 mov	 BYTE PTR c$[rbp], al

; 1205 :     c = _ADDX_UNIT(c, xp[9], yp[9], &zp[9]);

  0032f	b8 08 00 00 00	 mov	 eax, 8
  00334	48 6b c0 09	 imul	 rax, rax, 9
  00338	48 8b 8d f8 00
	00 00		 mov	 rcx, QWORD PTR zp$[rbp]
  0033f	48 03 c8	 add	 rcx, rax
  00342	48 8b c1	 mov	 rax, rcx
  00345	b9 08 00 00 00	 mov	 ecx, 8
  0034a	48 6b c9 09	 imul	 rcx, rcx, 9
  0034e	ba 08 00 00 00	 mov	 edx, 8
  00353	48 6b d2 09	 imul	 rdx, rdx, 9
  00357	4c 8b c8	 mov	 r9, rax
  0035a	48 8b 85 f0 00
	00 00		 mov	 rax, QWORD PTR yp$[rbp]
  00361	4c 8b 04 08	 mov	 r8, QWORD PTR [rax+rcx]
  00365	48 8b 85 e8 00
	00 00		 mov	 rax, QWORD PTR xp$[rbp]
  0036c	48 8b 14 10	 mov	 rdx, QWORD PTR [rax+rdx]
  00370	0f b6 8d e0 00
	00 00		 movzx	 ecx, BYTE PTR c$[rbp]
  00377	e8 00 00 00 00	 call	 _ADDX_UNIT
  0037c	88 85 e0 00 00
	00		 mov	 BYTE PTR c$[rbp], al

; 1206 :     c = _ADDX_UNIT(c, xp[10], yp[10], &zp[10]);

  00382	b8 08 00 00 00	 mov	 eax, 8
  00387	48 6b c0 0a	 imul	 rax, rax, 10
  0038b	48 8b 8d f8 00
	00 00		 mov	 rcx, QWORD PTR zp$[rbp]
  00392	48 03 c8	 add	 rcx, rax
  00395	48 8b c1	 mov	 rax, rcx
  00398	b9 08 00 00 00	 mov	 ecx, 8
  0039d	48 6b c9 0a	 imul	 rcx, rcx, 10
  003a1	ba 08 00 00 00	 mov	 edx, 8
  003a6	48 6b d2 0a	 imul	 rdx, rdx, 10
  003aa	4c 8b c8	 mov	 r9, rax
  003ad	48 8b 85 f0 00
	00 00		 mov	 rax, QWORD PTR yp$[rbp]
  003b4	4c 8b 04 08	 mov	 r8, QWORD PTR [rax+rcx]
  003b8	48 8b 85 e8 00
	00 00		 mov	 rax, QWORD PTR xp$[rbp]
  003bf	48 8b 14 10	 mov	 rdx, QWORD PTR [rax+rdx]
  003c3	0f b6 8d e0 00
	00 00		 movzx	 ecx, BYTE PTR c$[rbp]
  003ca	e8 00 00 00 00	 call	 _ADDX_UNIT
  003cf	88 85 e0 00 00
	00		 mov	 BYTE PTR c$[rbp], al

; 1207 :     c = _ADDX_UNIT(c, xp[11], yp[11], &zp[11]);

  003d5	b8 08 00 00 00	 mov	 eax, 8
  003da	48 6b c0 0b	 imul	 rax, rax, 11
  003de	48 8b 8d f8 00
	00 00		 mov	 rcx, QWORD PTR zp$[rbp]
  003e5	48 03 c8	 add	 rcx, rax
  003e8	48 8b c1	 mov	 rax, rcx
  003eb	b9 08 00 00 00	 mov	 ecx, 8
  003f0	48 6b c9 0b	 imul	 rcx, rcx, 11
  003f4	ba 08 00 00 00	 mov	 edx, 8
  003f9	48 6b d2 0b	 imul	 rdx, rdx, 11
  003fd	4c 8b c8	 mov	 r9, rax
  00400	48 8b 85 f0 00
	00 00		 mov	 rax, QWORD PTR yp$[rbp]
  00407	4c 8b 04 08	 mov	 r8, QWORD PTR [rax+rcx]
  0040b	48 8b 85 e8 00
	00 00		 mov	 rax, QWORD PTR xp$[rbp]
  00412	48 8b 14 10	 mov	 rdx, QWORD PTR [rax+rdx]
  00416	0f b6 8d e0 00
	00 00		 movzx	 ecx, BYTE PTR c$[rbp]
  0041d	e8 00 00 00 00	 call	 _ADDX_UNIT
  00422	88 85 e0 00 00
	00		 mov	 BYTE PTR c$[rbp], al

; 1208 :     c = _ADDX_UNIT(c, xp[12], yp[12], &zp[12]);

  00428	b8 08 00 00 00	 mov	 eax, 8
  0042d	48 6b c0 0c	 imul	 rax, rax, 12
  00431	48 8b 8d f8 00
	00 00		 mov	 rcx, QWORD PTR zp$[rbp]
  00438	48 03 c8	 add	 rcx, rax
  0043b	48 8b c1	 mov	 rax, rcx
  0043e	b9 08 00 00 00	 mov	 ecx, 8
  00443	48 6b c9 0c	 imul	 rcx, rcx, 12
  00447	ba 08 00 00 00	 mov	 edx, 8
  0044c	48 6b d2 0c	 imul	 rdx, rdx, 12
  00450	4c 8b c8	 mov	 r9, rax
  00453	48 8b 85 f0 00
	00 00		 mov	 rax, QWORD PTR yp$[rbp]
  0045a	4c 8b 04 08	 mov	 r8, QWORD PTR [rax+rcx]
  0045e	48 8b 85 e8 00
	00 00		 mov	 rax, QWORD PTR xp$[rbp]
  00465	48 8b 14 10	 mov	 rdx, QWORD PTR [rax+rdx]
  00469	0f b6 8d e0 00
	00 00		 movzx	 ecx, BYTE PTR c$[rbp]
  00470	e8 00 00 00 00	 call	 _ADDX_UNIT
  00475	88 85 e0 00 00
	00		 mov	 BYTE PTR c$[rbp], al

; 1209 :     c = _ADDX_UNIT(c, xp[13], yp[13], &zp[13]);

  0047b	b8 08 00 00 00	 mov	 eax, 8
  00480	48 6b c0 0d	 imul	 rax, rax, 13
  00484	48 8b 8d f8 00
	00 00		 mov	 rcx, QWORD PTR zp$[rbp]
  0048b	48 03 c8	 add	 rcx, rax
  0048e	48 8b c1	 mov	 rax, rcx
  00491	b9 08 00 00 00	 mov	 ecx, 8
  00496	48 6b c9 0d	 imul	 rcx, rcx, 13
  0049a	ba 08 00 00 00	 mov	 edx, 8
  0049f	48 6b d2 0d	 imul	 rdx, rdx, 13
  004a3	4c 8b c8	 mov	 r9, rax
  004a6	48 8b 85 f0 00
	00 00		 mov	 rax, QWORD PTR yp$[rbp]
  004ad	4c 8b 04 08	 mov	 r8, QWORD PTR [rax+rcx]
  004b1	48 8b 85 e8 00
	00 00		 mov	 rax, QWORD PTR xp$[rbp]
  004b8	48 8b 14 10	 mov	 rdx, QWORD PTR [rax+rdx]
  004bc	0f b6 8d e0 00
	00 00		 movzx	 ecx, BYTE PTR c$[rbp]
  004c3	e8 00 00 00 00	 call	 _ADDX_UNIT
  004c8	88 85 e0 00 00
	00		 mov	 BYTE PTR c$[rbp], al

; 1210 :     c = _ADDX_UNIT(c, xp[14], yp[14], &zp[14]);

  004ce	b8 08 00 00 00	 mov	 eax, 8
  004d3	48 6b c0 0e	 imul	 rax, rax, 14
  004d7	48 8b 8d f8 00
	00 00		 mov	 rcx, QWORD PTR zp$[rbp]
  004de	48 03 c8	 add	 rcx, rax
  004e1	48 8b c1	 mov	 rax, rcx
  004e4	b9 08 00 00 00	 mov	 ecx, 8
  004e9	48 6b c9 0e	 imul	 rcx, rcx, 14
  004ed	ba 08 00 00 00	 mov	 edx, 8
  004f2	48 6b d2 0e	 imul	 rdx, rdx, 14
  004f6	4c 8b c8	 mov	 r9, rax
  004f9	48 8b 85 f0 00
	00 00		 mov	 rax, QWORD PTR yp$[rbp]
  00500	4c 8b 04 08	 mov	 r8, QWORD PTR [rax+rcx]
  00504	48 8b 85 e8 00
	00 00		 mov	 rax, QWORD PTR xp$[rbp]
  0050b	48 8b 14 10	 mov	 rdx, QWORD PTR [rax+rdx]
  0050f	0f b6 8d e0 00
	00 00		 movzx	 ecx, BYTE PTR c$[rbp]
  00516	e8 00 00 00 00	 call	 _ADDX_UNIT
  0051b	88 85 e0 00 00
	00		 mov	 BYTE PTR c$[rbp], al

; 1211 :     c = _ADDX_UNIT(c, xp[15], yp[15], &zp[15]);

  00521	b8 08 00 00 00	 mov	 eax, 8
  00526	48 6b c0 0f	 imul	 rax, rax, 15
  0052a	48 8b 8d f8 00
	00 00		 mov	 rcx, QWORD PTR zp$[rbp]
  00531	48 03 c8	 add	 rcx, rax
  00534	48 8b c1	 mov	 rax, rcx
  00537	b9 08 00 00 00	 mov	 ecx, 8
  0053c	48 6b c9 0f	 imul	 rcx, rcx, 15
  00540	ba 08 00 00 00	 mov	 edx, 8
  00545	48 6b d2 0f	 imul	 rdx, rdx, 15
  00549	4c 8b c8	 mov	 r9, rax
  0054c	48 8b 85 f0 00
	00 00		 mov	 rax, QWORD PTR yp$[rbp]
  00553	4c 8b 04 08	 mov	 r8, QWORD PTR [rax+rcx]
  00557	48 8b 85 e8 00
	00 00		 mov	 rax, QWORD PTR xp$[rbp]
  0055e	48 8b 14 10	 mov	 rdx, QWORD PTR [rax+rdx]
  00562	0f b6 8d e0 00
	00 00		 movzx	 ecx, BYTE PTR c$[rbp]
  00569	e8 00 00 00 00	 call	 _ADDX_UNIT
  0056e	88 85 e0 00 00
	00		 mov	 BYTE PTR c$[rbp], al

; 1212 : #elif defined(__GNUC__)
; 1213 : #ifdef _M_IX86
; 1214 :     __asm__ volatile (
; 1215 :         "addb\t$-1, %0\n\t"
; 1216 :         "movl\t(%1), %%ecx\n\t"
; 1217 :         "adcxl\t(%2), %%ecx\n\t"
; 1218 :         "movl\t%%ecx, (%3)\n\t"
; 1219 :         "movl\t4(%1), %%ecx\n\t"
; 1220 :         "adcxl\t4(%2), %%ecx\n\t"
; 1221 :         "movl\t%%ecx, 4(%3)\n\t"
; 1222 :         "movl\t8(%1), %%ecx\n\t"
; 1223 :         "adcxl\t8(%2), %%ecx\n\t"
; 1224 :         "movl\t%%ecx, 8(%3)\n\t"
; 1225 :         "movl\t12(%1), %%ecx\n\t"
; 1226 :         "adcxl\t12(%2), %%ecx\n\t"
; 1227 :         "movl\t%%ecx, 12(%3)\n\t"
; 1228 :         "movl\t16(%1), %%ecx\n\t"
; 1229 :         "adcxl\t16(%2), %%ecx\n\t"
; 1230 :         "movl\t%%ecx, 16(%3)\n\t"
; 1231 :         "movl\t20(%1), %%ecx\n\t"
; 1232 :         "adcxl\t20(%2), %%ecx\n\t"
; 1233 :         "movl\t%%ecx, 20(%3)\n\t"
; 1234 :         "movl\t24(%1), %%ecx\n\t"
; 1235 :         "adcxl\t24(%2), %%ecx\n\t"
; 1236 :         "movl\t%%ecx, 24(%3)\n\t"
; 1237 :         "movl\t28(%1), %%ecx\n\t"
; 1238 :         "adcxl\t28(%2), %%ecx\n\t"
; 1239 :         "movl\t%%ecx, 28(%3)\n\t"
; 1240 :         "movl\t32(%1), %%ecx\n\t"
; 1241 :         "adcxl\t32(%2), %%ecx\n\t"
; 1242 :         "movl\t%%ecx, 32(%3)\n\t"
; 1243 :         "movl\t36(%1), %%ecx\n\t"
; 1244 :         "adcxl\t36(%2), %%ecx\n\t"
; 1245 :         "movl\t%%ecx, 36(%3)\n\t"
; 1246 :         "movl\t40(%1), %%ecx\n\t"
; 1247 :         "adcxl\t40(%2), %%ecx\n\t"
; 1248 :         "movl\t%%ecx, 40(%3)\n\t"
; 1249 :         "movl\t44(%1), %%ecx\n\t"
; 1250 :         "adcxl\t44(%2), %%ecx\n\t"
; 1251 :         "movl\t%%ecx, 44(%3)\n\t"
; 1252 :         "movl\t48(%1), %%ecx\n\t"
; 1253 :         "adcxl\t48(%2), %%ecx\n\t"
; 1254 :         "movl\t%%ecx, 48(%3)\n\t"
; 1255 :         "movl\t52(%1), %%ecx\n\t"
; 1256 :         "adcxl\t52(%2), %%ecx\n\t"
; 1257 :         "movl\t%%ecx, 52(%3)\n\t"
; 1258 :         "movl\t56(%1), %%ecx\n\t"
; 1259 :         "adcxl\t56(%2), %%ecx\n\t"
; 1260 :         "movl\t%%ecx, 56(%3)\n\t"
; 1261 :         "movl\t60(%1), %%ecx\n\t"
; 1262 :         "adcxl\t60(%2), %%ecx\n\t"
; 1263 :         "movl\t%%ecx, 60(%3)\n\t"
; 1264 :         "setc\t%0"
; 1265 :         : "+r"(c), "+r"(xp), "+r"(yp), "+r"(zp)
; 1266 :         :
; 1267 :         : "cc", "memory", "%ecx"
; 1268 : );
; 1269 : #elif defined(_M_X64)
; 1270 :     __asm__ volatile (
; 1271 :         "addb\t$-1, %0\n\t"
; 1272 :         "movq\t(%1), %%rcx\n\t"
; 1273 :         "adcxq\t(%2), %%rcx\n\t"
; 1274 :         "movq\t%%rcx, (%3)\n\t"
; 1275 :         "movq\t8(%1), %%rcx\n\t"
; 1276 :         "adcxq\t8(%2), %%rcx\n\t"
; 1277 :         "movq\t%%rcx, 8(%3)\n\t"
; 1278 :         "movq\t16(%1), %%rcx\n\t"
; 1279 :         "adcxq\t16(%2), %%rcx\n\t"
; 1280 :         "movq\t%%rcx, 16(%3)\n\t"
; 1281 :         "movq\t24(%1), %%rcx\n\t"
; 1282 :         "adcxq\t24(%2), %%rcx\n\t"
; 1283 :         "movq\t%%rcx, 24(%3)\n\t"
; 1284 :         "movq\t32(%1), %%rcx\n\t"
; 1285 :         "adcxq\t32(%2), %%rcx\n\t"
; 1286 :         "movq\t%%rcx, 32(%3)\n\t"
; 1287 :         "movq\t40(%1), %%rcx\n\t"
; 1288 :         "adcxq\t40(%2), %%rcx\n\t"
; 1289 :         "movq\t%%rcx, 40(%3)\n\t"
; 1290 :         "movq\t48(%1), %%rcx\n\t"
; 1291 :         "adcxq\t48(%2), %%rcx\n\t"
; 1292 :         "movq\t%%rcx, 48(%3)\n\t"
; 1293 :         "movq\t56(%1), %%rcx\n\t"
; 1294 :         "adcxq\t56(%2), %%rcx\n\t"
; 1295 :         "movq\t%%rcx, 56(%3)\n\t"
; 1296 :         "movq\t64(%1), %%rcx\n\t"
; 1297 :         "adcxq\t64(%2), %%rcx\n\t"
; 1298 :         "movq\t%%rcx, 64(%3)\n\t"
; 1299 :         "movq\t72(%1), %%rcx\n\t"
; 1300 :         "adcxq\t72(%2), %%rcx\n\t"
; 1301 :         "movq\t%%rcx, 72(%3)\n\t"
; 1302 :         "movq\t80(%1), %%rcx\n\t"
; 1303 :         "adcxq\t80(%2), %%rcx\n\t"
; 1304 :         "movq\t%%rcx, 80(%3)\n\t"
; 1305 :         "movq\t88(%1), %%rcx\n\t"
; 1306 :         "adcxq\t88(%2), %%rcx\n\t"
; 1307 :         "movq\t%%rcx, 88(%3)\n\t"
; 1308 :         "movq\t96(%1), %%rcx\n\t"
; 1309 :         "adcxq\t96(%2), %%rcx\n\t"
; 1310 :         "movq\t%%rcx, 96(%3)\n\t"
; 1311 :         "movq\t104(%1), %%rcx\n\t"
; 1312 :         "adcxq\t104(%2), %%rcx\n\t"
; 1313 :         "movq\t%%rcx, 104(%3)\n\t"
; 1314 :         "movq\t112(%1), %%rcx\n\t"
; 1315 :         "adcxq\t112(%2), %%rcx\n\t"
; 1316 :         "movq\t%%rcx, 112(%3)\n\t"
; 1317 :         "movq\t120(%1), %%rcx\n\t"
; 1318 :         "adcxq\t120(%2), %%rcx\n\t"
; 1319 :         "movq\t%%rcx, 120(%3)\n\t"
; 1320 :         "setc\t%0"
; 1321 :         : "+r"(c), "+r"(xp), "+r"(yp), "+r"(zp)
; 1322 :         :
; 1323 :         : "cc", "memory", "%rcx"
; 1324 : );
; 1325 : #else
; 1326 : #error unknown platform
; 1327 : #endif
; 1328 : #else
; 1329 : #error unknown compiler
; 1330 : #endif
; 1331 :     return (c);

  00574	0f b6 85 e0 00
	00 00		 movzx	 eax, BYTE PTR c$[rbp]

; 1332 : }

  0057b	48 8d a5 c8 00
	00 00		 lea	 rsp, QWORD PTR [rbp+200]
  00582	5f		 pop	 rdi
  00583	5d		 pop	 rbp
  00584	c3		 ret	 0
_ADD_16WORDS_ADCX ENDP
_TEXT	ENDS
; Function compile flags: /Odtp /RTCsu /ZI
; File z:\sources\lunor\repos\rougemeilland\palmtree.math.core.uint\palmtree.math.core.uint\autogenerated_inline_func.h
;	COMDAT _ADD_16WORDS_ADC
_TEXT	SEGMENT
c$ = 224
xp$ = 232
yp$ = 240
zp$ = 248
_ADD_16WORDS_ADC PROC					; COMDAT

; 1053 : {

  00000	4c 89 4c 24 20	 mov	 QWORD PTR [rsp+32], r9
  00005	4c 89 44 24 18	 mov	 QWORD PTR [rsp+24], r8
  0000a	48 89 54 24 10	 mov	 QWORD PTR [rsp+16], rdx
  0000f	88 4c 24 08	 mov	 BYTE PTR [rsp+8], cl
  00013	55		 push	 rbp
  00014	57		 push	 rdi
  00015	48 81 ec e8 00
	00 00		 sub	 rsp, 232		; 000000e8H
  0001c	48 8d 6c 24 20	 lea	 rbp, QWORD PTR [rsp+32]
  00021	48 8b fc	 mov	 rdi, rsp
  00024	b9 3a 00 00 00	 mov	 ecx, 58			; 0000003aH
  00029	b8 cc cc cc cc	 mov	 eax, -858993460		; ccccccccH
  0002e	f3 ab		 rep stosd
  00030	0f b6 8c 24 08
	01 00 00	 movzx	 ecx, BYTE PTR [rsp+264]
  00038	48 8d 0d 00 00
	00 00		 lea	 rcx, OFFSET FLAT:__E05E7037_autogenerated_inline_func@h
  0003f	e8 00 00 00 00	 call	 __CheckForDebuggerJustMyCode

; 1054 : #ifdef _MSC_VER
; 1055 :     c = _ADD_UNIT(c, xp[0], yp[0], &zp[0]);

  00044	b8 08 00 00 00	 mov	 eax, 8
  00049	48 6b c0 00	 imul	 rax, rax, 0
  0004d	48 8b 8d f8 00
	00 00		 mov	 rcx, QWORD PTR zp$[rbp]
  00054	48 03 c8	 add	 rcx, rax
  00057	48 8b c1	 mov	 rax, rcx
  0005a	b9 08 00 00 00	 mov	 ecx, 8
  0005f	48 6b c9 00	 imul	 rcx, rcx, 0
  00063	ba 08 00 00 00	 mov	 edx, 8
  00068	48 6b d2 00	 imul	 rdx, rdx, 0
  0006c	4c 8b c8	 mov	 r9, rax
  0006f	48 8b 85 f0 00
	00 00		 mov	 rax, QWORD PTR yp$[rbp]
  00076	4c 8b 04 08	 mov	 r8, QWORD PTR [rax+rcx]
  0007a	48 8b 85 e8 00
	00 00		 mov	 rax, QWORD PTR xp$[rbp]
  00081	48 8b 14 10	 mov	 rdx, QWORD PTR [rax+rdx]
  00085	0f b6 8d e0 00
	00 00		 movzx	 ecx, BYTE PTR c$[rbp]
  0008c	e8 00 00 00 00	 call	 _ADD_UNIT
  00091	88 85 e0 00 00
	00		 mov	 BYTE PTR c$[rbp], al

; 1056 :     c = _ADD_UNIT(c, xp[1], yp[1], &zp[1]);

  00097	b8 08 00 00 00	 mov	 eax, 8
  0009c	48 6b c0 01	 imul	 rax, rax, 1
  000a0	48 8b 8d f8 00
	00 00		 mov	 rcx, QWORD PTR zp$[rbp]
  000a7	48 03 c8	 add	 rcx, rax
  000aa	48 8b c1	 mov	 rax, rcx
  000ad	b9 08 00 00 00	 mov	 ecx, 8
  000b2	48 6b c9 01	 imul	 rcx, rcx, 1
  000b6	ba 08 00 00 00	 mov	 edx, 8
  000bb	48 6b d2 01	 imul	 rdx, rdx, 1
  000bf	4c 8b c8	 mov	 r9, rax
  000c2	48 8b 85 f0 00
	00 00		 mov	 rax, QWORD PTR yp$[rbp]
  000c9	4c 8b 04 08	 mov	 r8, QWORD PTR [rax+rcx]
  000cd	48 8b 85 e8 00
	00 00		 mov	 rax, QWORD PTR xp$[rbp]
  000d4	48 8b 14 10	 mov	 rdx, QWORD PTR [rax+rdx]
  000d8	0f b6 8d e0 00
	00 00		 movzx	 ecx, BYTE PTR c$[rbp]
  000df	e8 00 00 00 00	 call	 _ADD_UNIT
  000e4	88 85 e0 00 00
	00		 mov	 BYTE PTR c$[rbp], al

; 1057 :     c = _ADD_UNIT(c, xp[2], yp[2], &zp[2]);

  000ea	b8 08 00 00 00	 mov	 eax, 8
  000ef	48 6b c0 02	 imul	 rax, rax, 2
  000f3	48 8b 8d f8 00
	00 00		 mov	 rcx, QWORD PTR zp$[rbp]
  000fa	48 03 c8	 add	 rcx, rax
  000fd	48 8b c1	 mov	 rax, rcx
  00100	b9 08 00 00 00	 mov	 ecx, 8
  00105	48 6b c9 02	 imul	 rcx, rcx, 2
  00109	ba 08 00 00 00	 mov	 edx, 8
  0010e	48 6b d2 02	 imul	 rdx, rdx, 2
  00112	4c 8b c8	 mov	 r9, rax
  00115	48 8b 85 f0 00
	00 00		 mov	 rax, QWORD PTR yp$[rbp]
  0011c	4c 8b 04 08	 mov	 r8, QWORD PTR [rax+rcx]
  00120	48 8b 85 e8 00
	00 00		 mov	 rax, QWORD PTR xp$[rbp]
  00127	48 8b 14 10	 mov	 rdx, QWORD PTR [rax+rdx]
  0012b	0f b6 8d e0 00
	00 00		 movzx	 ecx, BYTE PTR c$[rbp]
  00132	e8 00 00 00 00	 call	 _ADD_UNIT
  00137	88 85 e0 00 00
	00		 mov	 BYTE PTR c$[rbp], al

; 1058 :     c = _ADD_UNIT(c, xp[3], yp[3], &zp[3]);

  0013d	b8 08 00 00 00	 mov	 eax, 8
  00142	48 6b c0 03	 imul	 rax, rax, 3
  00146	48 8b 8d f8 00
	00 00		 mov	 rcx, QWORD PTR zp$[rbp]
  0014d	48 03 c8	 add	 rcx, rax
  00150	48 8b c1	 mov	 rax, rcx
  00153	b9 08 00 00 00	 mov	 ecx, 8
  00158	48 6b c9 03	 imul	 rcx, rcx, 3
  0015c	ba 08 00 00 00	 mov	 edx, 8
  00161	48 6b d2 03	 imul	 rdx, rdx, 3
  00165	4c 8b c8	 mov	 r9, rax
  00168	48 8b 85 f0 00
	00 00		 mov	 rax, QWORD PTR yp$[rbp]
  0016f	4c 8b 04 08	 mov	 r8, QWORD PTR [rax+rcx]
  00173	48 8b 85 e8 00
	00 00		 mov	 rax, QWORD PTR xp$[rbp]
  0017a	48 8b 14 10	 mov	 rdx, QWORD PTR [rax+rdx]
  0017e	0f b6 8d e0 00
	00 00		 movzx	 ecx, BYTE PTR c$[rbp]
  00185	e8 00 00 00 00	 call	 _ADD_UNIT
  0018a	88 85 e0 00 00
	00		 mov	 BYTE PTR c$[rbp], al

; 1059 :     c = _ADD_UNIT(c, xp[4], yp[4], &zp[4]);

  00190	b8 08 00 00 00	 mov	 eax, 8
  00195	48 6b c0 04	 imul	 rax, rax, 4
  00199	48 8b 8d f8 00
	00 00		 mov	 rcx, QWORD PTR zp$[rbp]
  001a0	48 03 c8	 add	 rcx, rax
  001a3	48 8b c1	 mov	 rax, rcx
  001a6	b9 08 00 00 00	 mov	 ecx, 8
  001ab	48 6b c9 04	 imul	 rcx, rcx, 4
  001af	ba 08 00 00 00	 mov	 edx, 8
  001b4	48 6b d2 04	 imul	 rdx, rdx, 4
  001b8	4c 8b c8	 mov	 r9, rax
  001bb	48 8b 85 f0 00
	00 00		 mov	 rax, QWORD PTR yp$[rbp]
  001c2	4c 8b 04 08	 mov	 r8, QWORD PTR [rax+rcx]
  001c6	48 8b 85 e8 00
	00 00		 mov	 rax, QWORD PTR xp$[rbp]
  001cd	48 8b 14 10	 mov	 rdx, QWORD PTR [rax+rdx]
  001d1	0f b6 8d e0 00
	00 00		 movzx	 ecx, BYTE PTR c$[rbp]
  001d8	e8 00 00 00 00	 call	 _ADD_UNIT
  001dd	88 85 e0 00 00
	00		 mov	 BYTE PTR c$[rbp], al

; 1060 :     c = _ADD_UNIT(c, xp[5], yp[5], &zp[5]);

  001e3	b8 08 00 00 00	 mov	 eax, 8
  001e8	48 6b c0 05	 imul	 rax, rax, 5
  001ec	48 8b 8d f8 00
	00 00		 mov	 rcx, QWORD PTR zp$[rbp]
  001f3	48 03 c8	 add	 rcx, rax
  001f6	48 8b c1	 mov	 rax, rcx
  001f9	b9 08 00 00 00	 mov	 ecx, 8
  001fe	48 6b c9 05	 imul	 rcx, rcx, 5
  00202	ba 08 00 00 00	 mov	 edx, 8
  00207	48 6b d2 05	 imul	 rdx, rdx, 5
  0020b	4c 8b c8	 mov	 r9, rax
  0020e	48 8b 85 f0 00
	00 00		 mov	 rax, QWORD PTR yp$[rbp]
  00215	4c 8b 04 08	 mov	 r8, QWORD PTR [rax+rcx]
  00219	48 8b 85 e8 00
	00 00		 mov	 rax, QWORD PTR xp$[rbp]
  00220	48 8b 14 10	 mov	 rdx, QWORD PTR [rax+rdx]
  00224	0f b6 8d e0 00
	00 00		 movzx	 ecx, BYTE PTR c$[rbp]
  0022b	e8 00 00 00 00	 call	 _ADD_UNIT
  00230	88 85 e0 00 00
	00		 mov	 BYTE PTR c$[rbp], al

; 1061 :     c = _ADD_UNIT(c, xp[6], yp[6], &zp[6]);

  00236	b8 08 00 00 00	 mov	 eax, 8
  0023b	48 6b c0 06	 imul	 rax, rax, 6
  0023f	48 8b 8d f8 00
	00 00		 mov	 rcx, QWORD PTR zp$[rbp]
  00246	48 03 c8	 add	 rcx, rax
  00249	48 8b c1	 mov	 rax, rcx
  0024c	b9 08 00 00 00	 mov	 ecx, 8
  00251	48 6b c9 06	 imul	 rcx, rcx, 6
  00255	ba 08 00 00 00	 mov	 edx, 8
  0025a	48 6b d2 06	 imul	 rdx, rdx, 6
  0025e	4c 8b c8	 mov	 r9, rax
  00261	48 8b 85 f0 00
	00 00		 mov	 rax, QWORD PTR yp$[rbp]
  00268	4c 8b 04 08	 mov	 r8, QWORD PTR [rax+rcx]
  0026c	48 8b 85 e8 00
	00 00		 mov	 rax, QWORD PTR xp$[rbp]
  00273	48 8b 14 10	 mov	 rdx, QWORD PTR [rax+rdx]
  00277	0f b6 8d e0 00
	00 00		 movzx	 ecx, BYTE PTR c$[rbp]
  0027e	e8 00 00 00 00	 call	 _ADD_UNIT
  00283	88 85 e0 00 00
	00		 mov	 BYTE PTR c$[rbp], al

; 1062 :     c = _ADD_UNIT(c, xp[7], yp[7], &zp[7]);

  00289	b8 08 00 00 00	 mov	 eax, 8
  0028e	48 6b c0 07	 imul	 rax, rax, 7
  00292	48 8b 8d f8 00
	00 00		 mov	 rcx, QWORD PTR zp$[rbp]
  00299	48 03 c8	 add	 rcx, rax
  0029c	48 8b c1	 mov	 rax, rcx
  0029f	b9 08 00 00 00	 mov	 ecx, 8
  002a4	48 6b c9 07	 imul	 rcx, rcx, 7
  002a8	ba 08 00 00 00	 mov	 edx, 8
  002ad	48 6b d2 07	 imul	 rdx, rdx, 7
  002b1	4c 8b c8	 mov	 r9, rax
  002b4	48 8b 85 f0 00
	00 00		 mov	 rax, QWORD PTR yp$[rbp]
  002bb	4c 8b 04 08	 mov	 r8, QWORD PTR [rax+rcx]
  002bf	48 8b 85 e8 00
	00 00		 mov	 rax, QWORD PTR xp$[rbp]
  002c6	48 8b 14 10	 mov	 rdx, QWORD PTR [rax+rdx]
  002ca	0f b6 8d e0 00
	00 00		 movzx	 ecx, BYTE PTR c$[rbp]
  002d1	e8 00 00 00 00	 call	 _ADD_UNIT
  002d6	88 85 e0 00 00
	00		 mov	 BYTE PTR c$[rbp], al

; 1063 :     c = _ADD_UNIT(c, xp[8], yp[8], &zp[8]);

  002dc	b8 08 00 00 00	 mov	 eax, 8
  002e1	48 6b c0 08	 imul	 rax, rax, 8
  002e5	48 8b 8d f8 00
	00 00		 mov	 rcx, QWORD PTR zp$[rbp]
  002ec	48 03 c8	 add	 rcx, rax
  002ef	48 8b c1	 mov	 rax, rcx
  002f2	b9 08 00 00 00	 mov	 ecx, 8
  002f7	48 6b c9 08	 imul	 rcx, rcx, 8
  002fb	ba 08 00 00 00	 mov	 edx, 8
  00300	48 6b d2 08	 imul	 rdx, rdx, 8
  00304	4c 8b c8	 mov	 r9, rax
  00307	48 8b 85 f0 00
	00 00		 mov	 rax, QWORD PTR yp$[rbp]
  0030e	4c 8b 04 08	 mov	 r8, QWORD PTR [rax+rcx]
  00312	48 8b 85 e8 00
	00 00		 mov	 rax, QWORD PTR xp$[rbp]
  00319	48 8b 14 10	 mov	 rdx, QWORD PTR [rax+rdx]
  0031d	0f b6 8d e0 00
	00 00		 movzx	 ecx, BYTE PTR c$[rbp]
  00324	e8 00 00 00 00	 call	 _ADD_UNIT
  00329	88 85 e0 00 00
	00		 mov	 BYTE PTR c$[rbp], al

; 1064 :     c = _ADD_UNIT(c, xp[9], yp[9], &zp[9]);

  0032f	b8 08 00 00 00	 mov	 eax, 8
  00334	48 6b c0 09	 imul	 rax, rax, 9
  00338	48 8b 8d f8 00
	00 00		 mov	 rcx, QWORD PTR zp$[rbp]
  0033f	48 03 c8	 add	 rcx, rax
  00342	48 8b c1	 mov	 rax, rcx
  00345	b9 08 00 00 00	 mov	 ecx, 8
  0034a	48 6b c9 09	 imul	 rcx, rcx, 9
  0034e	ba 08 00 00 00	 mov	 edx, 8
  00353	48 6b d2 09	 imul	 rdx, rdx, 9
  00357	4c 8b c8	 mov	 r9, rax
  0035a	48 8b 85 f0 00
	00 00		 mov	 rax, QWORD PTR yp$[rbp]
  00361	4c 8b 04 08	 mov	 r8, QWORD PTR [rax+rcx]
  00365	48 8b 85 e8 00
	00 00		 mov	 rax, QWORD PTR xp$[rbp]
  0036c	48 8b 14 10	 mov	 rdx, QWORD PTR [rax+rdx]
  00370	0f b6 8d e0 00
	00 00		 movzx	 ecx, BYTE PTR c$[rbp]
  00377	e8 00 00 00 00	 call	 _ADD_UNIT
  0037c	88 85 e0 00 00
	00		 mov	 BYTE PTR c$[rbp], al

; 1065 :     c = _ADD_UNIT(c, xp[10], yp[10], &zp[10]);

  00382	b8 08 00 00 00	 mov	 eax, 8
  00387	48 6b c0 0a	 imul	 rax, rax, 10
  0038b	48 8b 8d f8 00
	00 00		 mov	 rcx, QWORD PTR zp$[rbp]
  00392	48 03 c8	 add	 rcx, rax
  00395	48 8b c1	 mov	 rax, rcx
  00398	b9 08 00 00 00	 mov	 ecx, 8
  0039d	48 6b c9 0a	 imul	 rcx, rcx, 10
  003a1	ba 08 00 00 00	 mov	 edx, 8
  003a6	48 6b d2 0a	 imul	 rdx, rdx, 10
  003aa	4c 8b c8	 mov	 r9, rax
  003ad	48 8b 85 f0 00
	00 00		 mov	 rax, QWORD PTR yp$[rbp]
  003b4	4c 8b 04 08	 mov	 r8, QWORD PTR [rax+rcx]
  003b8	48 8b 85 e8 00
	00 00		 mov	 rax, QWORD PTR xp$[rbp]
  003bf	48 8b 14 10	 mov	 rdx, QWORD PTR [rax+rdx]
  003c3	0f b6 8d e0 00
	00 00		 movzx	 ecx, BYTE PTR c$[rbp]
  003ca	e8 00 00 00 00	 call	 _ADD_UNIT
  003cf	88 85 e0 00 00
	00		 mov	 BYTE PTR c$[rbp], al

; 1066 :     c = _ADD_UNIT(c, xp[11], yp[11], &zp[11]);

  003d5	b8 08 00 00 00	 mov	 eax, 8
  003da	48 6b c0 0b	 imul	 rax, rax, 11
  003de	48 8b 8d f8 00
	00 00		 mov	 rcx, QWORD PTR zp$[rbp]
  003e5	48 03 c8	 add	 rcx, rax
  003e8	48 8b c1	 mov	 rax, rcx
  003eb	b9 08 00 00 00	 mov	 ecx, 8
  003f0	48 6b c9 0b	 imul	 rcx, rcx, 11
  003f4	ba 08 00 00 00	 mov	 edx, 8
  003f9	48 6b d2 0b	 imul	 rdx, rdx, 11
  003fd	4c 8b c8	 mov	 r9, rax
  00400	48 8b 85 f0 00
	00 00		 mov	 rax, QWORD PTR yp$[rbp]
  00407	4c 8b 04 08	 mov	 r8, QWORD PTR [rax+rcx]
  0040b	48 8b 85 e8 00
	00 00		 mov	 rax, QWORD PTR xp$[rbp]
  00412	48 8b 14 10	 mov	 rdx, QWORD PTR [rax+rdx]
  00416	0f b6 8d e0 00
	00 00		 movzx	 ecx, BYTE PTR c$[rbp]
  0041d	e8 00 00 00 00	 call	 _ADD_UNIT
  00422	88 85 e0 00 00
	00		 mov	 BYTE PTR c$[rbp], al

; 1067 :     c = _ADD_UNIT(c, xp[12], yp[12], &zp[12]);

  00428	b8 08 00 00 00	 mov	 eax, 8
  0042d	48 6b c0 0c	 imul	 rax, rax, 12
  00431	48 8b 8d f8 00
	00 00		 mov	 rcx, QWORD PTR zp$[rbp]
  00438	48 03 c8	 add	 rcx, rax
  0043b	48 8b c1	 mov	 rax, rcx
  0043e	b9 08 00 00 00	 mov	 ecx, 8
  00443	48 6b c9 0c	 imul	 rcx, rcx, 12
  00447	ba 08 00 00 00	 mov	 edx, 8
  0044c	48 6b d2 0c	 imul	 rdx, rdx, 12
  00450	4c 8b c8	 mov	 r9, rax
  00453	48 8b 85 f0 00
	00 00		 mov	 rax, QWORD PTR yp$[rbp]
  0045a	4c 8b 04 08	 mov	 r8, QWORD PTR [rax+rcx]
  0045e	48 8b 85 e8 00
	00 00		 mov	 rax, QWORD PTR xp$[rbp]
  00465	48 8b 14 10	 mov	 rdx, QWORD PTR [rax+rdx]
  00469	0f b6 8d e0 00
	00 00		 movzx	 ecx, BYTE PTR c$[rbp]
  00470	e8 00 00 00 00	 call	 _ADD_UNIT
  00475	88 85 e0 00 00
	00		 mov	 BYTE PTR c$[rbp], al

; 1068 :     c = _ADD_UNIT(c, xp[13], yp[13], &zp[13]);

  0047b	b8 08 00 00 00	 mov	 eax, 8
  00480	48 6b c0 0d	 imul	 rax, rax, 13
  00484	48 8b 8d f8 00
	00 00		 mov	 rcx, QWORD PTR zp$[rbp]
  0048b	48 03 c8	 add	 rcx, rax
  0048e	48 8b c1	 mov	 rax, rcx
  00491	b9 08 00 00 00	 mov	 ecx, 8
  00496	48 6b c9 0d	 imul	 rcx, rcx, 13
  0049a	ba 08 00 00 00	 mov	 edx, 8
  0049f	48 6b d2 0d	 imul	 rdx, rdx, 13
  004a3	4c 8b c8	 mov	 r9, rax
  004a6	48 8b 85 f0 00
	00 00		 mov	 rax, QWORD PTR yp$[rbp]
  004ad	4c 8b 04 08	 mov	 r8, QWORD PTR [rax+rcx]
  004b1	48 8b 85 e8 00
	00 00		 mov	 rax, QWORD PTR xp$[rbp]
  004b8	48 8b 14 10	 mov	 rdx, QWORD PTR [rax+rdx]
  004bc	0f b6 8d e0 00
	00 00		 movzx	 ecx, BYTE PTR c$[rbp]
  004c3	e8 00 00 00 00	 call	 _ADD_UNIT
  004c8	88 85 e0 00 00
	00		 mov	 BYTE PTR c$[rbp], al

; 1069 :     c = _ADD_UNIT(c, xp[14], yp[14], &zp[14]);

  004ce	b8 08 00 00 00	 mov	 eax, 8
  004d3	48 6b c0 0e	 imul	 rax, rax, 14
  004d7	48 8b 8d f8 00
	00 00		 mov	 rcx, QWORD PTR zp$[rbp]
  004de	48 03 c8	 add	 rcx, rax
  004e1	48 8b c1	 mov	 rax, rcx
  004e4	b9 08 00 00 00	 mov	 ecx, 8
  004e9	48 6b c9 0e	 imul	 rcx, rcx, 14
  004ed	ba 08 00 00 00	 mov	 edx, 8
  004f2	48 6b d2 0e	 imul	 rdx, rdx, 14
  004f6	4c 8b c8	 mov	 r9, rax
  004f9	48 8b 85 f0 00
	00 00		 mov	 rax, QWORD PTR yp$[rbp]
  00500	4c 8b 04 08	 mov	 r8, QWORD PTR [rax+rcx]
  00504	48 8b 85 e8 00
	00 00		 mov	 rax, QWORD PTR xp$[rbp]
  0050b	48 8b 14 10	 mov	 rdx, QWORD PTR [rax+rdx]
  0050f	0f b6 8d e0 00
	00 00		 movzx	 ecx, BYTE PTR c$[rbp]
  00516	e8 00 00 00 00	 call	 _ADD_UNIT
  0051b	88 85 e0 00 00
	00		 mov	 BYTE PTR c$[rbp], al

; 1070 :     c = _ADD_UNIT(c, xp[15], yp[15], &zp[15]);

  00521	b8 08 00 00 00	 mov	 eax, 8
  00526	48 6b c0 0f	 imul	 rax, rax, 15
  0052a	48 8b 8d f8 00
	00 00		 mov	 rcx, QWORD PTR zp$[rbp]
  00531	48 03 c8	 add	 rcx, rax
  00534	48 8b c1	 mov	 rax, rcx
  00537	b9 08 00 00 00	 mov	 ecx, 8
  0053c	48 6b c9 0f	 imul	 rcx, rcx, 15
  00540	ba 08 00 00 00	 mov	 edx, 8
  00545	48 6b d2 0f	 imul	 rdx, rdx, 15
  00549	4c 8b c8	 mov	 r9, rax
  0054c	48 8b 85 f0 00
	00 00		 mov	 rax, QWORD PTR yp$[rbp]
  00553	4c 8b 04 08	 mov	 r8, QWORD PTR [rax+rcx]
  00557	48 8b 85 e8 00
	00 00		 mov	 rax, QWORD PTR xp$[rbp]
  0055e	48 8b 14 10	 mov	 rdx, QWORD PTR [rax+rdx]
  00562	0f b6 8d e0 00
	00 00		 movzx	 ecx, BYTE PTR c$[rbp]
  00569	e8 00 00 00 00	 call	 _ADD_UNIT
  0056e	88 85 e0 00 00
	00		 mov	 BYTE PTR c$[rbp], al

; 1071 : #elif defined(__GNUC__)
; 1072 : #ifdef _M_IX86
; 1073 :     __asm__ volatile (
; 1074 :         "addb\t$-1, %0\n\t"
; 1075 :         "movl\t(%1), %%ecx\n\t"
; 1076 :         "adcl\t(%2), %%ecx\n\t"
; 1077 :         "movl\t%%ecx, (%3)\n\t"
; 1078 :         "movl\t4(%1), %%ecx\n\t"
; 1079 :         "adcl\t4(%2), %%ecx\n\t"
; 1080 :         "movl\t%%ecx, 4(%3)\n\t"
; 1081 :         "movl\t8(%1), %%ecx\n\t"
; 1082 :         "adcl\t8(%2), %%ecx\n\t"
; 1083 :         "movl\t%%ecx, 8(%3)\n\t"
; 1084 :         "movl\t12(%1), %%ecx\n\t"
; 1085 :         "adcl\t12(%2), %%ecx\n\t"
; 1086 :         "movl\t%%ecx, 12(%3)\n\t"
; 1087 :         "movl\t16(%1), %%ecx\n\t"
; 1088 :         "adcl\t16(%2), %%ecx\n\t"
; 1089 :         "movl\t%%ecx, 16(%3)\n\t"
; 1090 :         "movl\t20(%1), %%ecx\n\t"
; 1091 :         "adcl\t20(%2), %%ecx\n\t"
; 1092 :         "movl\t%%ecx, 20(%3)\n\t"
; 1093 :         "movl\t24(%1), %%ecx\n\t"
; 1094 :         "adcl\t24(%2), %%ecx\n\t"
; 1095 :         "movl\t%%ecx, 24(%3)\n\t"
; 1096 :         "movl\t28(%1), %%ecx\n\t"
; 1097 :         "adcl\t28(%2), %%ecx\n\t"
; 1098 :         "movl\t%%ecx, 28(%3)\n\t"
; 1099 :         "movl\t32(%1), %%ecx\n\t"
; 1100 :         "adcl\t32(%2), %%ecx\n\t"
; 1101 :         "movl\t%%ecx, 32(%3)\n\t"
; 1102 :         "movl\t36(%1), %%ecx\n\t"
; 1103 :         "adcl\t36(%2), %%ecx\n\t"
; 1104 :         "movl\t%%ecx, 36(%3)\n\t"
; 1105 :         "movl\t40(%1), %%ecx\n\t"
; 1106 :         "adcl\t40(%2), %%ecx\n\t"
; 1107 :         "movl\t%%ecx, 40(%3)\n\t"
; 1108 :         "movl\t44(%1), %%ecx\n\t"
; 1109 :         "adcl\t44(%2), %%ecx\n\t"
; 1110 :         "movl\t%%ecx, 44(%3)\n\t"
; 1111 :         "movl\t48(%1), %%ecx\n\t"
; 1112 :         "adcl\t48(%2), %%ecx\n\t"
; 1113 :         "movl\t%%ecx, 48(%3)\n\t"
; 1114 :         "movl\t52(%1), %%ecx\n\t"
; 1115 :         "adcl\t52(%2), %%ecx\n\t"
; 1116 :         "movl\t%%ecx, 52(%3)\n\t"
; 1117 :         "movl\t56(%1), %%ecx\n\t"
; 1118 :         "adcl\t56(%2), %%ecx\n\t"
; 1119 :         "movl\t%%ecx, 56(%3)\n\t"
; 1120 :         "movl\t60(%1), %%ecx\n\t"
; 1121 :         "adcl\t60(%2), %%ecx\n\t"
; 1122 :         "movl\t%%ecx, 60(%3)\n\t"
; 1123 :         "setc\t%0"
; 1124 :         : "+r"(c), "+r"(xp), "+r"(yp), "+r"(zp)
; 1125 :         :
; 1126 :         : "cc", "memory", "%ecx"
; 1127 : );
; 1128 : #elif defined(_M_X64)
; 1129 :     __asm__ volatile (
; 1130 :         "addb\t$-1, %0\n\t"
; 1131 :         "movq\t(%1), %%rcx\n\t"
; 1132 :         "adcq\t(%2), %%rcx\n\t"
; 1133 :         "movq\t%%rcx, (%3)\n\t"
; 1134 :         "movq\t8(%1), %%rcx\n\t"
; 1135 :         "adcq\t8(%2), %%rcx\n\t"
; 1136 :         "movq\t%%rcx, 8(%3)\n\t"
; 1137 :         "movq\t16(%1), %%rcx\n\t"
; 1138 :         "adcq\t16(%2), %%rcx\n\t"
; 1139 :         "movq\t%%rcx, 16(%3)\n\t"
; 1140 :         "movq\t24(%1), %%rcx\n\t"
; 1141 :         "adcq\t24(%2), %%rcx\n\t"
; 1142 :         "movq\t%%rcx, 24(%3)\n\t"
; 1143 :         "movq\t32(%1), %%rcx\n\t"
; 1144 :         "adcq\t32(%2), %%rcx\n\t"
; 1145 :         "movq\t%%rcx, 32(%3)\n\t"
; 1146 :         "movq\t40(%1), %%rcx\n\t"
; 1147 :         "adcq\t40(%2), %%rcx\n\t"
; 1148 :         "movq\t%%rcx, 40(%3)\n\t"
; 1149 :         "movq\t48(%1), %%rcx\n\t"
; 1150 :         "adcq\t48(%2), %%rcx\n\t"
; 1151 :         "movq\t%%rcx, 48(%3)\n\t"
; 1152 :         "movq\t56(%1), %%rcx\n\t"
; 1153 :         "adcq\t56(%2), %%rcx\n\t"
; 1154 :         "movq\t%%rcx, 56(%3)\n\t"
; 1155 :         "movq\t64(%1), %%rcx\n\t"
; 1156 :         "adcq\t64(%2), %%rcx\n\t"
; 1157 :         "movq\t%%rcx, 64(%3)\n\t"
; 1158 :         "movq\t72(%1), %%rcx\n\t"
; 1159 :         "adcq\t72(%2), %%rcx\n\t"
; 1160 :         "movq\t%%rcx, 72(%3)\n\t"
; 1161 :         "movq\t80(%1), %%rcx\n\t"
; 1162 :         "adcq\t80(%2), %%rcx\n\t"
; 1163 :         "movq\t%%rcx, 80(%3)\n\t"
; 1164 :         "movq\t88(%1), %%rcx\n\t"
; 1165 :         "adcq\t88(%2), %%rcx\n\t"
; 1166 :         "movq\t%%rcx, 88(%3)\n\t"
; 1167 :         "movq\t96(%1), %%rcx\n\t"
; 1168 :         "adcq\t96(%2), %%rcx\n\t"
; 1169 :         "movq\t%%rcx, 96(%3)\n\t"
; 1170 :         "movq\t104(%1), %%rcx\n\t"
; 1171 :         "adcq\t104(%2), %%rcx\n\t"
; 1172 :         "movq\t%%rcx, 104(%3)\n\t"
; 1173 :         "movq\t112(%1), %%rcx\n\t"
; 1174 :         "adcq\t112(%2), %%rcx\n\t"
; 1175 :         "movq\t%%rcx, 112(%3)\n\t"
; 1176 :         "movq\t120(%1), %%rcx\n\t"
; 1177 :         "adcq\t120(%2), %%rcx\n\t"
; 1178 :         "movq\t%%rcx, 120(%3)\n\t"
; 1179 :         "setc\t%0"
; 1180 :         : "+r"(c), "+r"(xp), "+r"(yp), "+r"(zp)
; 1181 :         :
; 1182 :         : "cc", "memory", "%rcx"
; 1183 : );
; 1184 : #else
; 1185 : #error unknown platform
; 1186 : #endif
; 1187 : #else
; 1188 : #error unknown compiler
; 1189 : #endif
; 1190 :     return (c);

  00574	0f b6 85 e0 00
	00 00		 movzx	 eax, BYTE PTR c$[rbp]

; 1191 : }

  0057b	48 8d a5 c8 00
	00 00		 lea	 rsp, QWORD PTR [rbp+200]
  00582	5f		 pop	 rdi
  00583	5d		 pop	 rbp
  00584	c3		 ret	 0
_ADD_16WORDS_ADC ENDP
_TEXT	ENDS
; Function compile flags: /Odtp /RTCsu /ZI
; File z:\sources\lunor\repos\rougemeilland\palmtree.math.core.uint\palmtree.math.core.uint\autogenerated_inline_func.h
;	COMDAT _ADD_32WORDS_ADCX
_TEXT	SEGMENT
c$ = 224
xp$ = 232
yp$ = 240
zp$ = 248
_ADD_32WORDS_ADCX PROC					; COMDAT

; 294  : {

  00000	4c 89 4c 24 20	 mov	 QWORD PTR [rsp+32], r9
  00005	4c 89 44 24 18	 mov	 QWORD PTR [rsp+24], r8
  0000a	48 89 54 24 10	 mov	 QWORD PTR [rsp+16], rdx
  0000f	88 4c 24 08	 mov	 BYTE PTR [rsp+8], cl
  00013	55		 push	 rbp
  00014	57		 push	 rdi
  00015	48 81 ec e8 00
	00 00		 sub	 rsp, 232		; 000000e8H
  0001c	48 8d 6c 24 20	 lea	 rbp, QWORD PTR [rsp+32]
  00021	48 8b fc	 mov	 rdi, rsp
  00024	b9 3a 00 00 00	 mov	 ecx, 58			; 0000003aH
  00029	b8 cc cc cc cc	 mov	 eax, -858993460		; ccccccccH
  0002e	f3 ab		 rep stosd
  00030	0f b6 8c 24 08
	01 00 00	 movzx	 ecx, BYTE PTR [rsp+264]
  00038	48 8d 0d 00 00
	00 00		 lea	 rcx, OFFSET FLAT:__E05E7037_autogenerated_inline_func@h
  0003f	e8 00 00 00 00	 call	 __CheckForDebuggerJustMyCode

; 295  : #ifdef _MSC_VER
; 296  :     c = _ADDX_UNIT(c, xp[0], yp[0], &zp[0]);

  00044	b8 08 00 00 00	 mov	 eax, 8
  00049	48 6b c0 00	 imul	 rax, rax, 0
  0004d	48 8b 8d f8 00
	00 00		 mov	 rcx, QWORD PTR zp$[rbp]
  00054	48 03 c8	 add	 rcx, rax
  00057	48 8b c1	 mov	 rax, rcx
  0005a	b9 08 00 00 00	 mov	 ecx, 8
  0005f	48 6b c9 00	 imul	 rcx, rcx, 0
  00063	ba 08 00 00 00	 mov	 edx, 8
  00068	48 6b d2 00	 imul	 rdx, rdx, 0
  0006c	4c 8b c8	 mov	 r9, rax
  0006f	48 8b 85 f0 00
	00 00		 mov	 rax, QWORD PTR yp$[rbp]
  00076	4c 8b 04 08	 mov	 r8, QWORD PTR [rax+rcx]
  0007a	48 8b 85 e8 00
	00 00		 mov	 rax, QWORD PTR xp$[rbp]
  00081	48 8b 14 10	 mov	 rdx, QWORD PTR [rax+rdx]
  00085	0f b6 8d e0 00
	00 00		 movzx	 ecx, BYTE PTR c$[rbp]
  0008c	e8 00 00 00 00	 call	 _ADDX_UNIT
  00091	88 85 e0 00 00
	00		 mov	 BYTE PTR c$[rbp], al

; 297  :     c = _ADDX_UNIT(c, xp[1], yp[1], &zp[1]);

  00097	b8 08 00 00 00	 mov	 eax, 8
  0009c	48 6b c0 01	 imul	 rax, rax, 1
  000a0	48 8b 8d f8 00
	00 00		 mov	 rcx, QWORD PTR zp$[rbp]
  000a7	48 03 c8	 add	 rcx, rax
  000aa	48 8b c1	 mov	 rax, rcx
  000ad	b9 08 00 00 00	 mov	 ecx, 8
  000b2	48 6b c9 01	 imul	 rcx, rcx, 1
  000b6	ba 08 00 00 00	 mov	 edx, 8
  000bb	48 6b d2 01	 imul	 rdx, rdx, 1
  000bf	4c 8b c8	 mov	 r9, rax
  000c2	48 8b 85 f0 00
	00 00		 mov	 rax, QWORD PTR yp$[rbp]
  000c9	4c 8b 04 08	 mov	 r8, QWORD PTR [rax+rcx]
  000cd	48 8b 85 e8 00
	00 00		 mov	 rax, QWORD PTR xp$[rbp]
  000d4	48 8b 14 10	 mov	 rdx, QWORD PTR [rax+rdx]
  000d8	0f b6 8d e0 00
	00 00		 movzx	 ecx, BYTE PTR c$[rbp]
