; Listing generated by Microsoft (R) Optimizing Compiler Version 19.16.27026.1 

include listing.inc

INCLUDELIB MSVCRTD
INCLUDELIB OLDNAMES

msvcjmc	SEGMENT
__7B7A869E_ctype@h DB 01H
__457DD326_basetsd@h DB 01H
__4384A2D9_corecrt_memcpy_s@h DB 01H
__4E51A221_corecrt_wstring@h DB 01H
__2140C079_string@h DB 01H
__1887E595_winnt@h DB 01H
__9FC7C64B_processthreadsapi@h DB 01H
__FA470AEC_memoryapi@h DB 01H
__F37DAFF1_winerror@h DB 01H
__7A450CCC_winbase@h DB 01H
__B4B40122_winioctl@h DB 01H
__86261D59_stralign@h DB 01H
__BB6D3116_pmc_uint_internal@h DB 01H
__8CA3E54E_pmc_inline_func@h DB 01H
__A674555F_pmc_bitwiseand@c DB 01H
msvcjmc	ENDS
PUBLIC	Initialize_BitwiseAnd
PUBLIC	PMC_BitwiseAnd_I_X
PUBLIC	PMC_BitwiseAnd_L_X
PUBLIC	PMC_BitwiseAnd_X_I
PUBLIC	PMC_BitwiseAnd_X_L
PUBLIC	PMC_BitwiseAnd_X_X
PUBLIC	__JustMyCode_Default
EXTRN	CheckBlockLight:PROC
EXTRN	AllocateNumber:PROC
EXTRN	DeallocateNumber:PROC
EXTRN	CommitNumber:PROC
EXTRN	CheckNumber:PROC
EXTRN	_RTC_CheckStackVars:PROC
EXTRN	_RTC_InitBase:PROC
EXTRN	_RTC_Shutdown:PROC
EXTRN	__CheckForDebuggerJustMyCode:PROC
EXTRN	number_zero:BYTE
;	COMDAT pdata
pdata	SEGMENT
$pdata$Initialize_BitwiseAnd DD imagerel $LN3
	DD	imagerel $LN3+66
	DD	imagerel $unwind$Initialize_BitwiseAnd
pdata	ENDS
;	COMDAT pdata
pdata	SEGMENT
$pdata$PMC_BitwiseAnd_I_X DD imagerel $LN11
	DD	imagerel $LN11+258
	DD	imagerel $unwind$PMC_BitwiseAnd_I_X
pdata	ENDS
;	COMDAT pdata
pdata	SEGMENT
$pdata$PMC_BitwiseAnd_L_X DD imagerel $LN15
	DD	imagerel $LN15+457
	DD	imagerel $unwind$PMC_BitwiseAnd_L_X
pdata	ENDS
;	COMDAT pdata
pdata	SEGMENT
$pdata$PMC_BitwiseAnd_X_I DD imagerel $LN11
	DD	imagerel $LN11+259
	DD	imagerel $unwind$PMC_BitwiseAnd_X_I
pdata	ENDS
;	COMDAT pdata
pdata	SEGMENT
$pdata$PMC_BitwiseAnd_X_L DD imagerel $LN15
	DD	imagerel $LN15+457
	DD	imagerel $unwind$PMC_BitwiseAnd_X_L
pdata	ENDS
;	COMDAT pdata
pdata	SEGMENT
$pdata$PMC_BitwiseAnd_X_X DD imagerel $LN16
	DD	imagerel $LN16+586
	DD	imagerel $unwind$PMC_BitwiseAnd_X_X
pdata	ENDS
;	COMDAT pdata
pdata	SEGMENT
$pdata$_FROMWORDTODWORD DD imagerel _FROMWORDTODWORD
	DD	imagerel _FROMWORDTODWORD+85
	DD	imagerel $unwind$_FROMWORDTODWORD
pdata	ENDS
;	COMDAT pdata
pdata	SEGMENT
$pdata$_FROMDWORDTOWORD DD imagerel _FROMDWORDTOWORD
	DD	imagerel _FROMDWORDTOWORD+95
	DD	imagerel $unwind$_FROMDWORDTOWORD
pdata	ENDS
;	COMDAT pdata
pdata	SEGMENT
$pdata$_DIVIDE_CEILING_UNIT DD imagerel _DIVIDE_CEILING_UNIT
	DD	imagerel _DIVIDE_CEILING_UNIT+97
	DD	imagerel $unwind$_DIVIDE_CEILING_UNIT
pdata	ENDS
;	COMDAT pdata
pdata	SEGMENT
$pdata$_MINIMUM_UNIT DD imagerel _MINIMUM_UNIT
	DD	imagerel _MINIMUM_UNIT+122
	DD	imagerel $unwind$_MINIMUM_UNIT
pdata	ENDS
;	COMDAT pdata
pdata	SEGMENT
$pdata$BitwiseAnd_X_X DD imagerel BitwiseAnd_X_X
	DD	imagerel BitwiseAnd_X_X+4522
	DD	imagerel $unwind$BitwiseAnd_X_X
pdata	ENDS
;	COMDAT rtc$TMZ
rtc$TMZ	SEGMENT
_RTC_Shutdown.rtc$TMZ DQ FLAT:_RTC_Shutdown
rtc$TMZ	ENDS
;	COMDAT rtc$IMZ
rtc$IMZ	SEGMENT
_RTC_InitBase.rtc$IMZ DQ FLAT:_RTC_InitBase
rtc$IMZ	ENDS
;	COMDAT xdata
xdata	SEGMENT
$unwind$BitwiseAnd_X_X DD 025053901H
	DD	011d2322H
	DD	070160021H
	DD	05015H
xdata	ENDS
;	COMDAT xdata
xdata	SEGMENT
$unwind$_MINIMUM_UNIT DD 025052f01H
	DD	01132318H
	DD	0700c001fH
	DD	0500bH
xdata	ENDS
;	COMDAT xdata
xdata	SEGMENT
$unwind$_DIVIDE_CEILING_UNIT DD 025052f01H
	DD	01132318H
	DD	0700c001dH
	DD	0500bH
xdata	ENDS
;	COMDAT xdata
xdata	SEGMENT
$unwind$_FROMDWORDTOWORD DD 025052f01H
	DD	01132318H
	DD	0700c001dH
	DD	0500bH
xdata	ENDS
;	COMDAT xdata
xdata	SEGMENT
$unwind$_FROMWORDTODWORD DD 025052c01H
	DD	01112316H
	DD	0700a001dH
	DD	05009H
xdata	ENDS
;	COMDAT xdata
xdata	SEGMENT
$unwind$PMC_BitwiseAnd_X_X DD 025053401H
	DD	0118231dH
	DD	070110041H
	DD	05010H
xdata	ENDS
;	COMDAT CONST
CONST	SEGMENT
PMC_BitwiseAnd_X_X$rtcName$0 DB 06eH
	DB	077H
	DB	00H
	ORG $+5
PMC_BitwiseAnd_X_X$rtcName$1 DB 06eH
	DB	077H
	DB	05fH
	DB	06cH
	DB	069H
	DB	067H
	DB	068H
	DB	074H
	DB	05fH
	DB	063H
	DB	068H
	DB	065H
	DB	063H
	DB	06bH
	DB	05fH
	DB	063H
	DB	06fH
	DB	064H
	DB	065H
	DB	00H
	ORG $+4
PMC_BitwiseAnd_X_X$rtcVarDesc DD 0108H
	DD	08H
	DQ	FLAT:PMC_BitwiseAnd_X_X$rtcName$1
	DD	088H
	DD	08H
	DQ	FLAT:PMC_BitwiseAnd_X_X$rtcName$0
	ORG $+96
PMC_BitwiseAnd_X_X$rtcFrameData DD 02H
	DD	00H
	DQ	FLAT:PMC_BitwiseAnd_X_X$rtcVarDesc
CONST	ENDS
;	COMDAT xdata
xdata	SEGMENT
$unwind$PMC_BitwiseAnd_X_L DD 025053401H
	DD	0118231dH
	DD	070110035H
	DD	05010H
xdata	ENDS
;	COMDAT CONST
CONST	SEGMENT
PMC_BitwiseAnd_X_L$rtcName$0 DB 076H
	DB	05fH
	DB	068H
	DB	069H
	DB	00H
	ORG $+11
PMC_BitwiseAnd_X_L$rtcVarDesc DD 064H
	DD	04H
	DQ	FLAT:PMC_BitwiseAnd_X_L$rtcName$0
	ORG $+48
PMC_BitwiseAnd_X_L$rtcFrameData DD 01H
	DD	00H
	DQ	FLAT:PMC_BitwiseAnd_X_L$rtcVarDesc
CONST	ENDS
;	COMDAT xdata
xdata	SEGMENT
$unwind$PMC_BitwiseAnd_X_I DD 025053301H
	DD	0117231cH
	DD	070100025H
	DD	0500fH
xdata	ENDS
;	COMDAT xdata
xdata	SEGMENT
$unwind$PMC_BitwiseAnd_L_X DD 025053401H
	DD	0118231dH
	DD	070110035H
	DD	05010H
xdata	ENDS
;	COMDAT CONST
CONST	SEGMENT
PMC_BitwiseAnd_L_X$rtcName$0 DB 075H
	DB	05fH
	DB	068H
	DB	069H
	DB	00H
	ORG $+11
PMC_BitwiseAnd_L_X$rtcVarDesc DD 064H
	DD	04H
	DQ	FLAT:PMC_BitwiseAnd_L_X$rtcName$0
	ORG $+48
PMC_BitwiseAnd_L_X$rtcFrameData DD 01H
	DD	00H
	DQ	FLAT:PMC_BitwiseAnd_L_X$rtcVarDesc
CONST	ENDS
;	COMDAT xdata
xdata	SEGMENT
$unwind$PMC_BitwiseAnd_I_X DD 025053201H
	DD	0117231cH
	DD	070100025H
	DD	0500fH
xdata	ENDS
;	COMDAT xdata
xdata	SEGMENT
$unwind$Initialize_BitwiseAnd DD 025052a01H
	DD	010e2313H
	DD	07007001dH
	DD	05006H
xdata	ENDS
; Function compile flags: /Odt
;	COMDAT __JustMyCode_Default
_TEXT	SEGMENT
__JustMyCode_Default PROC				; COMDAT
	ret	0
__JustMyCode_Default ENDP
_TEXT	ENDS
; Function compile flags: /Odtp /RTCsu /ZI
; File z:\sources\lunor\repos\rougemeilland\palmtree.math.core.uint\palmtree.math.core.uint\pmc_bitwiseand.c
;	COMDAT BitwiseAnd_X_X
_TEXT	SEGMENT
count$ = 8
u$ = 256
v$ = 264
w$ = 272
w_count$ = 280
BitwiseAnd_X_X PROC					; COMDAT

; 39   : {

	mov	QWORD PTR [rsp+32], r9
	mov	QWORD PTR [rsp+24], r8
	mov	QWORD PTR [rsp+16], rdx
	mov	QWORD PTR [rsp+8], rcx
	push	rbp
	push	rdi
	sub	rsp, 264				; 00000108H
	lea	rbp, QWORD PTR [rsp+32]
	mov	rdi, rsp
	mov	ecx, 66					; 00000042H
	mov	eax, -858993460				; ccccccccH
	rep stosd
	mov	rcx, QWORD PTR [rsp+296]
	lea	rcx, OFFSET FLAT:__A674555F_pmc_bitwiseand@c
	call	__CheckForDebuggerJustMyCode

; 40   :     __UNIT_TYPE count = w_count >> 5;

	mov	rax, QWORD PTR w_count$[rbp]
	shr	rax, 5
	mov	QWORD PTR count$[rbp], rax
$LN2@BitwiseAnd:

; 41   :     while (count != 0)

	cmp	QWORD PTR count$[rbp], 0
	je	$LN3@BitwiseAnd

; 42   :     {
; 43   :         w[0] = u[0] & v[0];

	mov	eax, 8
	imul	rax, rax, 0
	mov	ecx, 8
	imul	rcx, rcx, 0
	mov	rdx, QWORD PTR u$[rbp]
	mov	r8, QWORD PTR v$[rbp]
	mov	rcx, QWORD PTR [r8+rcx]
	mov	rax, QWORD PTR [rdx+rax]
	and	rax, rcx
	mov	ecx, 8
	imul	rcx, rcx, 0
	mov	rdx, QWORD PTR w$[rbp]
	mov	QWORD PTR [rdx+rcx], rax

; 44   :         w[1] = u[1] & v[1];

	mov	eax, 8
	imul	rax, rax, 1
	mov	ecx, 8
	imul	rcx, rcx, 1
	mov	rdx, QWORD PTR u$[rbp]
	mov	r8, QWORD PTR v$[rbp]
	mov	rcx, QWORD PTR [r8+rcx]
	mov	rax, QWORD PTR [rdx+rax]
	and	rax, rcx
	mov	ecx, 8
	imul	rcx, rcx, 1
	mov	rdx, QWORD PTR w$[rbp]
	mov	QWORD PTR [rdx+rcx], rax

; 45   :         w[2] = u[2] & v[2];

	mov	eax, 8
	imul	rax, rax, 2
	mov	ecx, 8
	imul	rcx, rcx, 2
	mov	rdx, QWORD PTR u$[rbp]
	mov	r8, QWORD PTR v$[rbp]
	mov	rcx, QWORD PTR [r8+rcx]
	mov	rax, QWORD PTR [rdx+rax]
	and	rax, rcx
	mov	ecx, 8
	imul	rcx, rcx, 2
	mov	rdx, QWORD PTR w$[rbp]
	mov	QWORD PTR [rdx+rcx], rax

; 46   :         w[3] = u[3] & v[3];

	mov	eax, 8
	imul	rax, rax, 3
	mov	ecx, 8
	imul	rcx, rcx, 3
	mov	rdx, QWORD PTR u$[rbp]
	mov	r8, QWORD PTR v$[rbp]
	mov	rcx, QWORD PTR [r8+rcx]
	mov	rax, QWORD PTR [rdx+rax]
	and	rax, rcx
	mov	ecx, 8
	imul	rcx, rcx, 3
	mov	rdx, QWORD PTR w$[rbp]
	mov	QWORD PTR [rdx+rcx], rax

; 47   :         w[4] = u[4] & v[4];

	mov	eax, 8
	imul	rax, rax, 4
	mov	ecx, 8
	imul	rcx, rcx, 4
	mov	rdx, QWORD PTR u$[rbp]
	mov	r8, QWORD PTR v$[rbp]
	mov	rcx, QWORD PTR [r8+rcx]
	mov	rax, QWORD PTR [rdx+rax]
	and	rax, rcx
	mov	ecx, 8
	imul	rcx, rcx, 4
	mov	rdx, QWORD PTR w$[rbp]
	mov	QWORD PTR [rdx+rcx], rax

; 48   :         w[5] = u[5] & v[5];

	mov	eax, 8
	imul	rax, rax, 5
	mov	ecx, 8
	imul	rcx, rcx, 5
	mov	rdx, QWORD PTR u$[rbp]
	mov	r8, QWORD PTR v$[rbp]
	mov	rcx, QWORD PTR [r8+rcx]
	mov	rax, QWORD PTR [rdx+rax]
	and	rax, rcx
	mov	ecx, 8
	imul	rcx, rcx, 5
	mov	rdx, QWORD PTR w$[rbp]
	mov	QWORD PTR [rdx+rcx], rax

; 49   :         w[6] = u[6] & v[6];

	mov	eax, 8
	imul	rax, rax, 6
	mov	ecx, 8
	imul	rcx, rcx, 6
	mov	rdx, QWORD PTR u$[rbp]
	mov	r8, QWORD PTR v$[rbp]
	mov	rcx, QWORD PTR [r8+rcx]
	mov	rax, QWORD PTR [rdx+rax]
	and	rax, rcx
	mov	ecx, 8
	imul	rcx, rcx, 6
	mov	rdx, QWORD PTR w$[rbp]
	mov	QWORD PTR [rdx+rcx], rax

; 50   :         w[7] = u[7] & v[7];

	mov	eax, 8
	imul	rax, rax, 7
	mov	ecx, 8
	imul	rcx, rcx, 7
	mov	rdx, QWORD PTR u$[rbp]
	mov	r8, QWORD PTR v$[rbp]
	mov	rcx, QWORD PTR [r8+rcx]
	mov	rax, QWORD PTR [rdx+rax]
	and	rax, rcx
	mov	ecx, 8
	imul	rcx, rcx, 7
	mov	rdx, QWORD PTR w$[rbp]
	mov	QWORD PTR [rdx+rcx], rax

; 51   :         w[8] = u[8] & v[8];

	mov	eax, 8
	imul	rax, rax, 8
	mov	ecx, 8
	imul	rcx, rcx, 8
	mov	rdx, QWORD PTR u$[rbp]
	mov	r8, QWORD PTR v$[rbp]
	mov	rcx, QWORD PTR [r8+rcx]
	mov	rax, QWORD PTR [rdx+rax]
	and	rax, rcx
	mov	ecx, 8
	imul	rcx, rcx, 8
	mov	rdx, QWORD PTR w$[rbp]
	mov	QWORD PTR [rdx+rcx], rax

; 52   :         w[9] = u[9] & v[9];

	mov	eax, 8
	imul	rax, rax, 9
	mov	ecx, 8
	imul	rcx, rcx, 9
	mov	rdx, QWORD PTR u$[rbp]
	mov	r8, QWORD PTR v$[rbp]
	mov	rcx, QWORD PTR [r8+rcx]
	mov	rax, QWORD PTR [rdx+rax]
	and	rax, rcx
	mov	ecx, 8
	imul	rcx, rcx, 9
	mov	rdx, QWORD PTR w$[rbp]
	mov	QWORD PTR [rdx+rcx], rax

; 53   :         w[10] = u[10] & v[10];

	mov	eax, 8
	imul	rax, rax, 10
	mov	ecx, 8
	imul	rcx, rcx, 10
	mov	rdx, QWORD PTR u$[rbp]
	mov	r8, QWORD PTR v$[rbp]
	mov	rcx, QWORD PTR [r8+rcx]
	mov	rax, QWORD PTR [rdx+rax]
	and	rax, rcx
	mov	ecx, 8
	imul	rcx, rcx, 10
	mov	rdx, QWORD PTR w$[rbp]
	mov	QWORD PTR [rdx+rcx], rax

; 54   :         w[11] = u[11] & v[11];

	mov	eax, 8
	imul	rax, rax, 11
	mov	ecx, 8
	imul	rcx, rcx, 11
	mov	rdx, QWORD PTR u$[rbp]
	mov	r8, QWORD PTR v$[rbp]
	mov	rcx, QWORD PTR [r8+rcx]
	mov	rax, QWORD PTR [rdx+rax]
	and	rax, rcx
	mov	ecx, 8
	imul	rcx, rcx, 11
	mov	rdx, QWORD PTR w$[rbp]
	mov	QWORD PTR [rdx+rcx], rax

; 55   :         w[12] = u[12] & v[12];

	mov	eax, 8
	imul	rax, rax, 12
	mov	ecx, 8
	imul	rcx, rcx, 12
	mov	rdx, QWORD PTR u$[rbp]
	mov	r8, QWORD PTR v$[rbp]
	mov	rcx, QWORD PTR [r8+rcx]
	mov	rax, QWORD PTR [rdx+rax]
	and	rax, rcx
	mov	ecx, 8
	imul	rcx, rcx, 12
	mov	rdx, QWORD PTR w$[rbp]
	mov	QWORD PTR [rdx+rcx], rax

; 56   :         w[13] = u[13] & v[13];

	mov	eax, 8
	imul	rax, rax, 13
	mov	ecx, 8
	imul	rcx, rcx, 13
	mov	rdx, QWORD PTR u$[rbp]
	mov	r8, QWORD PTR v$[rbp]
	mov	rcx, QWORD PTR [r8+rcx]
	mov	rax, QWORD PTR [rdx+rax]
	and	rax, rcx
	mov	ecx, 8
	imul	rcx, rcx, 13
	mov	rdx, QWORD PTR w$[rbp]
	mov	QWORD PTR [rdx+rcx], rax

; 57   :         w[14] = u[14] & v[14];

	mov	eax, 8
	imul	rax, rax, 14
	mov	ecx, 8
	imul	rcx, rcx, 14
	mov	rdx, QWORD PTR u$[rbp]
	mov	r8, QWORD PTR v$[rbp]
	mov	rcx, QWORD PTR [r8+rcx]
	mov	rax, QWORD PTR [rdx+rax]
	and	rax, rcx
	mov	ecx, 8
	imul	rcx, rcx, 14
	mov	rdx, QWORD PTR w$[rbp]
	mov	QWORD PTR [rdx+rcx], rax

; 58   :         w[15] = u[15] & v[15];

	mov	eax, 8
	imul	rax, rax, 15
	mov	ecx, 8
	imul	rcx, rcx, 15
	mov	rdx, QWORD PTR u$[rbp]
	mov	r8, QWORD PTR v$[rbp]
	mov	rcx, QWORD PTR [r8+rcx]
	mov	rax, QWORD PTR [rdx+rax]
	and	rax, rcx
	mov	ecx, 8
	imul	rcx, rcx, 15
	mov	rdx, QWORD PTR w$[rbp]
	mov	QWORD PTR [rdx+rcx], rax

; 59   :         w[16] = u[16] & v[16];

	mov	eax, 8
	imul	rax, rax, 16
	mov	ecx, 8
	imul	rcx, rcx, 16
	mov	rdx, QWORD PTR u$[rbp]
	mov	r8, QWORD PTR v$[rbp]
	mov	rcx, QWORD PTR [r8+rcx]
	mov	rax, QWORD PTR [rdx+rax]
	and	rax, rcx
	mov	ecx, 8
	imul	rcx, rcx, 16
	mov	rdx, QWORD PTR w$[rbp]
	mov	QWORD PTR [rdx+rcx], rax

; 60   :         w[17] = u[17] & v[17];

	mov	eax, 8
	imul	rax, rax, 17
	mov	ecx, 8
	imul	rcx, rcx, 17
	mov	rdx, QWORD PTR u$[rbp]
	mov	r8, QWORD PTR v$[rbp]
	mov	rcx, QWORD PTR [r8+rcx]
	mov	rax, QWORD PTR [rdx+rax]
	and	rax, rcx
	mov	ecx, 8
	imul	rcx, rcx, 17
	mov	rdx, QWORD PTR w$[rbp]
	mov	QWORD PTR [rdx+rcx], rax

; 61   :         w[18] = u[18] & v[18];

	mov	eax, 8
	imul	rax, rax, 18
	mov	ecx, 8
	imul	rcx, rcx, 18
	mov	rdx, QWORD PTR u$[rbp]
	mov	r8, QWORD PTR v$[rbp]
	mov	rcx, QWORD PTR [r8+rcx]
	mov	rax, QWORD PTR [rdx+rax]
	and	rax, rcx
	mov	ecx, 8
	imul	rcx, rcx, 18
	mov	rdx, QWORD PTR w$[rbp]
	mov	QWORD PTR [rdx+rcx], rax

; 62   :         w[19] = u[19] & v[19];

	mov	eax, 8
	imul	rax, rax, 19
	mov	ecx, 8
	imul	rcx, rcx, 19
	mov	rdx, QWORD PTR u$[rbp]
	mov	r8, QWORD PTR v$[rbp]
	mov	rcx, QWORD PTR [r8+rcx]
	mov	rax, QWORD PTR [rdx+rax]
	and	rax, rcx
	mov	ecx, 8
	imul	rcx, rcx, 19
	mov	rdx, QWORD PTR w$[rbp]
	mov	QWORD PTR [rdx+rcx], rax

; 63   :         w[20] = u[20] & v[20];

	mov	eax, 8
	imul	rax, rax, 20
	mov	ecx, 8
	imul	rcx, rcx, 20
	mov	rdx, QWORD PTR u$[rbp]
	mov	r8, QWORD PTR v$[rbp]
	mov	rcx, QWORD PTR [r8+rcx]
	mov	rax, QWORD PTR [rdx+rax]
	and	rax, rcx
	mov	ecx, 8
	imul	rcx, rcx, 20
	mov	rdx, QWORD PTR w$[rbp]
	mov	QWORD PTR [rdx+rcx], rax

; 64   :         w[21] = u[21] & v[21];

	mov	eax, 8
	imul	rax, rax, 21
	mov	ecx, 8
	imul	rcx, rcx, 21
	mov	rdx, QWORD PTR u$[rbp]
	mov	r8, QWORD PTR v$[rbp]
	mov	rcx, QWORD PTR [r8+rcx]
	mov	rax, QWORD PTR [rdx+rax]
	and	rax, rcx
	mov	ecx, 8
	imul	rcx, rcx, 21
	mov	rdx, QWORD PTR w$[rbp]
	mov	QWORD PTR [rdx+rcx], rax

; 65   :         w[22] = u[22] & v[22];

	mov	eax, 8
	imul	rax, rax, 22
	mov	ecx, 8
	imul	rcx, rcx, 22
	mov	rdx, QWORD PTR u$[rbp]
	mov	r8, QWORD PTR v$[rbp]
	mov	rcx, QWORD PTR [r8+rcx]
	mov	rax, QWORD PTR [rdx+rax]
	and	rax, rcx
	mov	ecx, 8
	imul	rcx, rcx, 22
	mov	rdx, QWORD PTR w$[rbp]
	mov	QWORD PTR [rdx+rcx], rax

; 66   :         w[23] = u[23] & v[23];

	mov	eax, 8
	imul	rax, rax, 23
	mov	ecx, 8
	imul	rcx, rcx, 23
	mov	rdx, QWORD PTR u$[rbp]
	mov	r8, QWORD PTR v$[rbp]
	mov	rcx, QWORD PTR [r8+rcx]
	mov	rax, QWORD PTR [rdx+rax]
	and	rax, rcx
	mov	ecx, 8
	imul	rcx, rcx, 23
	mov	rdx, QWORD PTR w$[rbp]
	mov	QWORD PTR [rdx+rcx], rax

; 67   :         w[24] = u[24] & v[24];

	mov	eax, 8
	imul	rax, rax, 24
	mov	ecx, 8
	imul	rcx, rcx, 24
	mov	rdx, QWORD PTR u$[rbp]
	mov	r8, QWORD PTR v$[rbp]
	mov	rcx, QWORD PTR [r8+rcx]
	mov	rax, QWORD PTR [rdx+rax]
	and	rax, rcx
	mov	ecx, 8
	imul	rcx, rcx, 24
	mov	rdx, QWORD PTR w$[rbp]
	mov	QWORD PTR [rdx+rcx], rax

; 68   :         w[25] = u[25] & v[25];

	mov	eax, 8
	imul	rax, rax, 25
	mov	ecx, 8
	imul	rcx, rcx, 25
	mov	rdx, QWORD PTR u$[rbp]
	mov	r8, QWORD PTR v$[rbp]
	mov	rcx, QWORD PTR [r8+rcx]
	mov	rax, QWORD PTR [rdx+rax]
	and	rax, rcx
	mov	ecx, 8
	imul	rcx, rcx, 25
	mov	rdx, QWORD PTR w$[rbp]
	mov	QWORD PTR [rdx+rcx], rax

; 69   :         w[26] = u[26] & v[26];

	mov	eax, 8
	imul	rax, rax, 26
	mov	ecx, 8
	imul	rcx, rcx, 26
	mov	rdx, QWORD PTR u$[rbp]
	mov	r8, QWORD PTR v$[rbp]
	mov	rcx, QWORD PTR [r8+rcx]
	mov	rax, QWORD PTR [rdx+rax]
	and	rax, rcx
	mov	ecx, 8
	imul	rcx, rcx, 26
	mov	rdx, QWORD PTR w$[rbp]
	mov	QWORD PTR [rdx+rcx], rax

; 70   :         w[27] = u[27] & v[27];

	mov	eax, 8
	imul	rax, rax, 27
	mov	ecx, 8
	imul	rcx, rcx, 27
	mov	rdx, QWORD PTR u$[rbp]
	mov	r8, QWORD PTR v$[rbp]
	mov	rcx, QWORD PTR [r8+rcx]
	mov	rax, QWORD PTR [rdx+rax]
	and	rax, rcx
	mov	ecx, 8
	imul	rcx, rcx, 27
	mov	rdx, QWORD PTR w$[rbp]
	mov	QWORD PTR [rdx+rcx], rax

; 71   :         w[28] = u[28] & v[28];

	mov	eax, 8
	imul	rax, rax, 28
	mov	ecx, 8
	imul	rcx, rcx, 28
	mov	rdx, QWORD PTR u$[rbp]
	mov	r8, QWORD PTR v$[rbp]
	mov	rcx, QWORD PTR [r8+rcx]
	mov	rax, QWORD PTR [rdx+rax]
	and	rax, rcx
	mov	ecx, 8
	imul	rcx, rcx, 28
	mov	rdx, QWORD PTR w$[rbp]
	mov	QWORD PTR [rdx+rcx], rax

; 72   :         w[29] = u[29] & v[29];

	mov	eax, 8
	imul	rax, rax, 29
	mov	ecx, 8
	imul	rcx, rcx, 29
	mov	rdx, QWORD PTR u$[rbp]
	mov	r8, QWORD PTR v$[rbp]
	mov	rcx, QWORD PTR [r8+rcx]
	mov	rax, QWORD PTR [rdx+rax]
	and	rax, rcx
	mov	ecx, 8
	imul	rcx, rcx, 29
	mov	rdx, QWORD PTR w$[rbp]
	mov	QWORD PTR [rdx+rcx], rax

; 73   :         w[30] = u[30] & v[30];

	mov	eax, 8
	imul	rax, rax, 30
	mov	ecx, 8
	imul	rcx, rcx, 30
	mov	rdx, QWORD PTR u$[rbp]
	mov	r8, QWORD PTR v$[rbp]
	mov	rcx, QWORD PTR [r8+rcx]
	mov	rax, QWORD PTR [rdx+rax]
	and	rax, rcx
	mov	ecx, 8
	imul	rcx, rcx, 30
	mov	rdx, QWORD PTR w$[rbp]
	mov	QWORD PTR [rdx+rcx], rax

; 74   :         w[31] = u[31] & v[31];

	mov	eax, 8
	imul	rax, rax, 31
	mov	ecx, 8
	imul	rcx, rcx, 31
	mov	rdx, QWORD PTR u$[rbp]
	mov	r8, QWORD PTR v$[rbp]
	mov	rcx, QWORD PTR [r8+rcx]
	mov	rax, QWORD PTR [rdx+rax]
	and	rax, rcx
	mov	ecx, 8
	imul	rcx, rcx, 31
	mov	rdx, QWORD PTR w$[rbp]
	mov	QWORD PTR [rdx+rcx], rax

; 75   :         u += 32;

	mov	rax, QWORD PTR u$[rbp]
	add	rax, 256				; 00000100H
	mov	QWORD PTR u$[rbp], rax

; 76   :         v += 32;

	mov	rax, QWORD PTR v$[rbp]
	add	rax, 256				; 00000100H
	mov	QWORD PTR v$[rbp], rax

; 77   :         w += 32;

	mov	rax, QWORD PTR w$[rbp]
	add	rax, 256				; 00000100H
	mov	QWORD PTR w$[rbp], rax

; 78   :         --count;

	mov	rax, QWORD PTR count$[rbp]
	dec	rax
	mov	QWORD PTR count$[rbp], rax

; 79   :     }

	jmp	$LN2@BitwiseAnd
$LN3@BitwiseAnd:

; 80   : 
; 81   :     if (w_count & 0x10)

	mov	rax, QWORD PTR w_count$[rbp]
	and	rax, 16
	test	rax, rax
	je	$LN4@BitwiseAnd

; 82   :     {
; 83   :         w[0] = u[0] & v[0];

	mov	eax, 8
	imul	rax, rax, 0
	mov	ecx, 8
	imul	rcx, rcx, 0
	mov	rdx, QWORD PTR u$[rbp]
	mov	r8, QWORD PTR v$[rbp]
	mov	rcx, QWORD PTR [r8+rcx]
	mov	rax, QWORD PTR [rdx+rax]
	and	rax, rcx
	mov	ecx, 8
	imul	rcx, rcx, 0
	mov	rdx, QWORD PTR w$[rbp]
	mov	QWORD PTR [rdx+rcx], rax

; 84   :         w[1] = u[1] & v[1];

	mov	eax, 8
	imul	rax, rax, 1
	mov	ecx, 8
	imul	rcx, rcx, 1
	mov	rdx, QWORD PTR u$[rbp]
	mov	r8, QWORD PTR v$[rbp]
	mov	rcx, QWORD PTR [r8+rcx]
	mov	rax, QWORD PTR [rdx+rax]
	and	rax, rcx
	mov	ecx, 8
	imul	rcx, rcx, 1
	mov	rdx, QWORD PTR w$[rbp]
	mov	QWORD PTR [rdx+rcx], rax

; 85   :         w[2] = u[2] & v[2];

	mov	eax, 8
	imul	rax, rax, 2
	mov	ecx, 8
	imul	rcx, rcx, 2
	mov	rdx, QWORD PTR u$[rbp]
	mov	r8, QWORD PTR v$[rbp]
	mov	rcx, QWORD PTR [r8+rcx]
	mov	rax, QWORD PTR [rdx+rax]
	and	rax, rcx
	mov	ecx, 8
	imul	rcx, rcx, 2
	mov	rdx, QWORD PTR w$[rbp]
	mov	QWORD PTR [rdx+rcx], rax

; 86   :         w[3] = u[3] & v[3];

	mov	eax, 8
	imul	rax, rax, 3
	mov	ecx, 8
	imul	rcx, rcx, 3
	mov	rdx, QWORD PTR u$[rbp]
	mov	r8, QWORD PTR v$[rbp]
	mov	rcx, QWORD PTR [r8+rcx]
	mov	rax, QWORD PTR [rdx+rax]
	and	rax, rcx
	mov	ecx, 8
	imul	rcx, rcx, 3
	mov	rdx, QWORD PTR w$[rbp]
	mov	QWORD PTR [rdx+rcx], rax

; 87   :         w[4] = u[4] & v[4];

	mov	eax, 8
	imul	rax, rax, 4
	mov	ecx, 8
	imul	rcx, rcx, 4
	mov	rdx, QWORD PTR u$[rbp]
	mov	r8, QWORD PTR v$[rbp]
	mov	rcx, QWORD PTR [r8+rcx]
	mov	rax, QWORD PTR [rdx+rax]
	and	rax, rcx
	mov	ecx, 8
	imul	rcx, rcx, 4
	mov	rdx, QWORD PTR w$[rbp]
	mov	QWORD PTR [rdx+rcx], rax

; 88   :         w[5] = u[5] & v[5];

	mov	eax, 8
	imul	rax, rax, 5
	mov	ecx, 8
	imul	rcx, rcx, 5
	mov	rdx, QWORD PTR u$[rbp]
	mov	r8, QWORD PTR v$[rbp]
	mov	rcx, QWORD PTR [r8+rcx]
	mov	rax, QWORD PTR [rdx+rax]
	and	rax, rcx
	mov	ecx, 8
	imul	rcx, rcx, 5
	mov	rdx, QWORD PTR w$[rbp]
	mov	QWORD PTR [rdx+rcx], rax

; 89   :         w[6] = u[6] & v[6];

	mov	eax, 8
	imul	rax, rax, 6
	mov	ecx, 8
	imul	rcx, rcx, 6
	mov	rdx, QWORD PTR u$[rbp]
	mov	r8, QWORD PTR v$[rbp]
	mov	rcx, QWORD PTR [r8+rcx]
	mov	rax, QWORD PTR [rdx+rax]
	and	rax, rcx
	mov	ecx, 8
	imul	rcx, rcx, 6
	mov	rdx, QWORD PTR w$[rbp]
	mov	QWORD PTR [rdx+rcx], rax

; 90   :         w[7] = u[7] & v[7];

	mov	eax, 8
	imul	rax, rax, 7
	mov	ecx, 8
	imul	rcx, rcx, 7
	mov	rdx, QWORD PTR u$[rbp]
	mov	r8, QWORD PTR v$[rbp]
	mov	rcx, QWORD PTR [r8+rcx]
	mov	rax, QWORD PTR [rdx+rax]
	and	rax, rcx
	mov	ecx, 8
	imul	rcx, rcx, 7
	mov	rdx, QWORD PTR w$[rbp]
	mov	QWORD PTR [rdx+rcx], rax

; 91   :         w[8] = u[8] & v[8];

	mov	eax, 8
	imul	rax, rax, 8
	mov	ecx, 8
	imul	rcx, rcx, 8
	mov	rdx, QWORD PTR u$[rbp]
	mov	r8, QWORD PTR v$[rbp]
	mov	rcx, QWORD PTR [r8+rcx]
	mov	rax, QWORD PTR [rdx+rax]
	and	rax, rcx
	mov	ecx, 8
	imul	rcx, rcx, 8
	mov	rdx, QWORD PTR w$[rbp]
	mov	QWORD PTR [rdx+rcx], rax

; 92   :         w[9] = u[9] & v[9];

	mov	eax, 8
	imul	rax, rax, 9
	mov	ecx, 8
	imul	rcx, rcx, 9
	mov	rdx, QWORD PTR u$[rbp]
	mov	r8, QWORD PTR v$[rbp]
	mov	rcx, QWORD PTR [r8+rcx]
	mov	rax, QWORD PTR [rdx+rax]
	and	rax, rcx
	mov	ecx, 8
	imul	rcx, rcx, 9
	mov	rdx, QWORD PTR w$[rbp]
	mov	QWORD PTR [rdx+rcx], rax

; 93   :         w[10] = u[10] & v[10];

	mov	eax, 8
	imul	rax, rax, 10
	mov	ecx, 8
	imul	rcx, rcx, 10
	mov	rdx, QWORD PTR u$[rbp]
	mov	r8, QWORD PTR v$[rbp]
	mov	rcx, QWORD PTR [r8+rcx]
	mov	rax, QWORD PTR [rdx+rax]
	and	rax, rcx
	mov	ecx, 8
	imul	rcx, rcx, 10
	mov	rdx, QWORD PTR w$[rbp]
	mov	QWORD PTR [rdx+rcx], rax

; 94   :         w[11] = u[11] & v[11];

	mov	eax, 8
	imul	rax, rax, 11
	mov	ecx, 8
	imul	rcx, rcx, 11
	mov	rdx, QWORD PTR u$[rbp]
	mov	r8, QWORD PTR v$[rbp]
	mov	rcx, QWORD PTR [r8+rcx]
	mov	rax, QWORD PTR [rdx+rax]
	and	rax, rcx
	mov	ecx, 8
	imul	rcx, rcx, 11
	mov	rdx, QWORD PTR w$[rbp]
	mov	QWORD PTR [rdx+rcx], rax

; 95   :         w[12] = u[12] & v[12];

	mov	eax, 8
	imul	rax, rax, 12
	mov	ecx, 8
	imul	rcx, rcx, 12
	mov	rdx, QWORD PTR u$[rbp]
	mov	r8, QWORD PTR v$[rbp]
	mov	rcx, QWORD PTR [r8+rcx]
	mov	rax, QWORD PTR [rdx+rax]
	and	rax, rcx
	mov	ecx, 8
	imul	rcx, rcx, 12
	mov	rdx, QWORD PTR w$[rbp]
	mov	QWORD PTR [rdx+rcx], rax

; 96   :         w[13] = u[13] & v[13];

	mov	eax, 8
	imul	rax, rax, 13
	mov	ecx, 8
	imul	rcx, rcx, 13
	mov	rdx, QWORD PTR u$[rbp]
	mov	r8, QWORD PTR v$[rbp]
	mov	rcx, QWORD PTR [r8+rcx]
	mov	rax, QWORD PTR [rdx+rax]
	and	rax, rcx
	mov	ecx, 8
	imul	rcx, rcx, 13
	mov	rdx, QWORD PTR w$[rbp]
	mov	QWORD PTR [rdx+rcx], rax

; 97   :         w[14] = u[14] & v[14];

	mov	eax, 8
	imul	rax, rax, 14
	mov	ecx, 8
	imul	rcx, rcx, 14
	mov	rdx, QWORD PTR u$[rbp]
	mov	r8, QWORD PTR v$[rbp]
	mov	rcx, QWORD PTR [r8+rcx]
	mov	rax, QWORD PTR [rdx+rax]
	and	rax, rcx
	mov	ecx, 8
	imul	rcx, rcx, 14
	mov	rdx, QWORD PTR w$[rbp]
	mov	QWORD PTR [rdx+rcx], rax

; 98   :         w[15] = u[15] & v[15];

	mov	eax, 8
	imul	rax, rax, 15
	mov	ecx, 8
	imul	rcx, rcx, 15
	mov	rdx, QWORD PTR u$[rbp]
	mov	r8, QWORD PTR v$[rbp]
	mov	rcx, QWORD PTR [r8+rcx]
	mov	rax, QWORD PTR [rdx+rax]
	and	rax, rcx
	mov	ecx, 8
	imul	rcx, rcx, 15
	mov	rdx, QWORD PTR w$[rbp]
	mov	QWORD PTR [rdx+rcx], rax

; 99   :         u += 16;

	mov	rax, QWORD PTR u$[rbp]
	add	rax, 128				; 00000080H
	mov	QWORD PTR u$[rbp], rax

; 100  :         v += 16;

	mov	rax, QWORD PTR v$[rbp]
	add	rax, 128				; 00000080H
	mov	QWORD PTR v$[rbp], rax

; 101  :         w += 16;

	mov	rax, QWORD PTR w$[rbp]
	add	rax, 128				; 00000080H
	mov	QWORD PTR w$[rbp], rax
$LN4@BitwiseAnd:

; 102  :     }
; 103  : 
; 104  :     if (w_count & 0x8)

	mov	rax, QWORD PTR w_count$[rbp]
	and	rax, 8
	test	rax, rax
	je	$LN5@BitwiseAnd

; 105  :     {
; 106  :         w[0] = u[0] & v[0];

	mov	eax, 8
	imul	rax, rax, 0
	mov	ecx, 8
	imul	rcx, rcx, 0
	mov	rdx, QWORD PTR u$[rbp]
	mov	r8, QWORD PTR v$[rbp]
	mov	rcx, QWORD PTR [r8+rcx]
	mov	rax, QWORD PTR [rdx+rax]
	and	rax, rcx
	mov	ecx, 8
	imul	rcx, rcx, 0
	mov	rdx, QWORD PTR w$[rbp]
	mov	QWORD PTR [rdx+rcx], rax

; 107  :         w[1] = u[1] & v[1];

	mov	eax, 8
	imul	rax, rax, 1
	mov	ecx, 8
	imul	rcx, rcx, 1
	mov	rdx, QWORD PTR u$[rbp]
	mov	r8, QWORD PTR v$[rbp]
	mov	rcx, QWORD PTR [r8+rcx]
	mov	rax, QWORD PTR [rdx+rax]
	and	rax, rcx
	mov	ecx, 8
	imul	rcx, rcx, 1
	mov	rdx, QWORD PTR w$[rbp]
	mov	QWORD PTR [rdx+rcx], rax

; 108  :         w[2] = u[2] & v[2];

	mov	eax, 8
	imul	rax, rax, 2
	mov	ecx, 8
	imul	rcx, rcx, 2
	mov	rdx, QWORD PTR u$[rbp]
	mov	r8, QWORD PTR v$[rbp]
	mov	rcx, QWORD PTR [r8+rcx]
	mov	rax, QWORD PTR [rdx+rax]
	and	rax, rcx
	mov	ecx, 8
	imul	rcx, rcx, 2
	mov	rdx, QWORD PTR w$[rbp]
	mov	QWORD PTR [rdx+rcx], rax

; 109  :         w[3] = u[3] & v[3];

	mov	eax, 8
	imul	rax, rax, 3
	mov	ecx, 8
	imul	rcx, rcx, 3
	mov	rdx, QWORD PTR u$[rbp]
	mov	r8, QWORD PTR v$[rbp]
	mov	rcx, QWORD PTR [r8+rcx]
	mov	rax, QWORD PTR [rdx+rax]
	and	rax, rcx
	mov	ecx, 8
	imul	rcx, rcx, 3
	mov	rdx, QWORD PTR w$[rbp]
	mov	QWORD PTR [rdx+rcx], rax

; 110  :         w[4] = u[4] & v[4];

	mov	eax, 8
	imul	rax, rax, 4
	mov	ecx, 8
	imul	rcx, rcx, 4
	mov	rdx, QWORD PTR u$[rbp]
	mov	r8, QWORD PTR v$[rbp]
	mov	rcx, QWORD PTR [r8+rcx]
	mov	rax, QWORD PTR [rdx+rax]
	and	rax, rcx
	mov	ecx, 8
	imul	rcx, rcx, 4
	mov	rdx, QWORD PTR w$[rbp]
	mov	QWORD PTR [rdx+rcx], rax

; 111  :         w[5] = u[5] & v[5];

	mov	eax, 8
	imul	rax, rax, 5
	mov	ecx, 8
	imul	rcx, rcx, 5
	mov	rdx, QWORD PTR u$[rbp]
	mov	r8, QWORD PTR v$[rbp]
	mov	rcx, QWORD PTR [r8+rcx]
	mov	rax, QWORD PTR [rdx+rax]
	and	rax, rcx
	mov	ecx, 8
	imul	rcx, rcx, 5
	mov	rdx, QWORD PTR w$[rbp]
	mov	QWORD PTR [rdx+rcx], rax

; 112  :         w[6] = u[6] & v[6];

	mov	eax, 8
	imul	rax, rax, 6
	mov	ecx, 8
	imul	rcx, rcx, 6
	mov	rdx, QWORD PTR u$[rbp]
	mov	r8, QWORD PTR v$[rbp]
	mov	rcx, QWORD PTR [r8+rcx]
	mov	rax, QWORD PTR [rdx+rax]
	and	rax, rcx
	mov	ecx, 8
	imul	rcx, rcx, 6
	mov	rdx, QWORD PTR w$[rbp]
	mov	QWORD PTR [rdx+rcx], rax

; 113  :         w[7] = u[7] & v[7];

	mov	eax, 8
	imul	rax, rax, 7
	mov	ecx, 8
	imul	rcx, rcx, 7
	mov	rdx, QWORD PTR u$[rbp]
	mov	r8, QWORD PTR v$[rbp]
	mov	rcx, QWORD PTR [r8+rcx]
	mov	rax, QWORD PTR [rdx+rax]
	and	rax, rcx
	mov	ecx, 8
	imul	rcx, rcx, 7
	mov	rdx, QWORD PTR w$[rbp]
	mov	QWORD PTR [rdx+rcx], rax

; 114  :         u += 8;

	mov	rax, QWORD PTR u$[rbp]
	add	rax, 64					; 00000040H
	mov	QWORD PTR u$[rbp], rax

; 115  :         v += 8;

	mov	rax, QWORD PTR v$[rbp]
	add	rax, 64					; 00000040H
	mov	QWORD PTR v$[rbp], rax

; 116  :         w += 8;

	mov	rax, QWORD PTR w$[rbp]
	add	rax, 64					; 00000040H
	mov	QWORD PTR w$[rbp], rax
$LN5@BitwiseAnd:

; 117  :     }
; 118  : 
; 119  :     if (w_count & 0x4)

	mov	rax, QWORD PTR w_count$[rbp]
	and	rax, 4
	test	rax, rax
	je	$LN6@BitwiseAnd

; 120  :     {
; 121  :         w[0] = u[0] & v[0];

	mov	eax, 8
	imul	rax, rax, 0
	mov	ecx, 8
	imul	rcx, rcx, 0
	mov	rdx, QWORD PTR u$[rbp]
	mov	r8, QWORD PTR v$[rbp]
	mov	rcx, QWORD PTR [r8+rcx]
	mov	rax, QWORD PTR [rdx+rax]
	and	rax, rcx
	mov	ecx, 8
	imul	rcx, rcx, 0
	mov	rdx, QWORD PTR w$[rbp]
	mov	QWORD PTR [rdx+rcx], rax

; 122  :         w[1] = u[1] & v[1];

	mov	eax, 8
	imul	rax, rax, 1
	mov	ecx, 8
	imul	rcx, rcx, 1
	mov	rdx, QWORD PTR u$[rbp]
	mov	r8, QWORD PTR v$[rbp]
	mov	rcx, QWORD PTR [r8+rcx]
	mov	rax, QWORD PTR [rdx+rax]
	and	rax, rcx
	mov	ecx, 8
	imul	rcx, rcx, 1
	mov	rdx, QWORD PTR w$[rbp]
	mov	QWORD PTR [rdx+rcx], rax

; 123  :         w[2] = u[2] & v[2];

	mov	eax, 8
	imul	rax, rax, 2
	mov	ecx, 8
	imul	rcx, rcx, 2
	mov	rdx, QWORD PTR u$[rbp]
	mov	r8, QWORD PTR v$[rbp]
	mov	rcx, QWORD PTR [r8+rcx]
	mov	rax, QWORD PTR [rdx+rax]
	and	rax, rcx
	mov	ecx, 8
	imul	rcx, rcx, 2
	mov	rdx, QWORD PTR w$[rbp]
	mov	QWORD PTR [rdx+rcx], rax

; 124  :         w[3] = u[3] & v[3];

	mov	eax, 8
	imul	rax, rax, 3
	mov	ecx, 8
	imul	rcx, rcx, 3
	mov	rdx, QWORD PTR u$[rbp]
	mov	r8, QWORD PTR v$[rbp]
	mov	rcx, QWORD PTR [r8+rcx]
	mov	rax, QWORD PTR [rdx+rax]
	and	rax, rcx
	mov	ecx, 8
	imul	rcx, rcx, 3
	mov	rdx, QWORD PTR w$[rbp]
	mov	QWORD PTR [rdx+rcx], rax

; 125  :         u += 4;

	mov	rax, QWORD PTR u$[rbp]
	add	rax, 32					; 00000020H
	mov	QWORD PTR u$[rbp], rax

; 126  :         v += 4;

	mov	rax, QWORD PTR v$[rbp]
	add	rax, 32					; 00000020H
	mov	QWORD PTR v$[rbp], rax

; 127  :         w += 4;

	mov	rax, QWORD PTR w$[rbp]
	add	rax, 32					; 00000020H
	mov	QWORD PTR w$[rbp], rax
$LN6@BitwiseAnd:

; 128  :     }
; 129  : 
; 130  :     if (w_count & 0x2)

	mov	rax, QWORD PTR w_count$[rbp]
	and	rax, 2
	test	rax, rax
	je	$LN7@BitwiseAnd

; 131  :     {
; 132  :         w[0] = u[0] & v[0];

	mov	eax, 8
	imul	rax, rax, 0
	mov	ecx, 8
	imul	rcx, rcx, 0
	mov	rdx, QWORD PTR u$[rbp]
	mov	r8, QWORD PTR v$[rbp]
	mov	rcx, QWORD PTR [r8+rcx]
	mov	rax, QWORD PTR [rdx+rax]
	and	rax, rcx
	mov	ecx, 8
	imul	rcx, rcx, 0
	mov	rdx, QWORD PTR w$[rbp]
	mov	QWORD PTR [rdx+rcx], rax

; 133  :         w[1] = u[1] & v[1];

	mov	eax, 8
	imul	rax, rax, 1
	mov	ecx, 8
	imul	rcx, rcx, 1
	mov	rdx, QWORD PTR u$[rbp]
	mov	r8, QWORD PTR v$[rbp]
	mov	rcx, QWORD PTR [r8+rcx]
	mov	rax, QWORD PTR [rdx+rax]
	and	rax, rcx
	mov	ecx, 8
	imul	rcx, rcx, 1
	mov	rdx, QWORD PTR w$[rbp]
	mov	QWORD PTR [rdx+rcx], rax

; 134  :         u += 2;

	mov	rax, QWORD PTR u$[rbp]
	add	rax, 16
	mov	QWORD PTR u$[rbp], rax

; 135  :         v += 2;

	mov	rax, QWORD PTR v$[rbp]
	add	rax, 16
	mov	QWORD PTR v$[rbp], rax

; 136  :         w += 2;

	mov	rax, QWORD PTR w$[rbp]
	add	rax, 16
	mov	QWORD PTR w$[rbp], rax
$LN7@BitwiseAnd:

; 137  :     }
; 138  : 
; 139  :     if (w_count & 0x1)

	mov	rax, QWORD PTR w_count$[rbp]
	and	rax, 1
	test	rax, rax
	je	SHORT $LN8@BitwiseAnd

; 140  :     {
; 141  :         w[0] = u[0] & v[0];

	mov	eax, 8
	imul	rax, rax, 0
	mov	ecx, 8
	imul	rcx, rcx, 0
	mov	rdx, QWORD PTR u$[rbp]
	mov	r8, QWORD PTR v$[rbp]
	mov	rcx, QWORD PTR [r8+rcx]
	mov	rax, QWORD PTR [rdx+rax]
	and	rax, rcx
	mov	ecx, 8
	imul	rcx, rcx, 0
	mov	rdx, QWORD PTR w$[rbp]
	mov	QWORD PTR [rdx+rcx], rax

; 142  :         u += 1;

	mov	rax, QWORD PTR u$[rbp]
	add	rax, 8
	mov	QWORD PTR u$[rbp], rax

; 143  :         v += 1;

	mov	rax, QWORD PTR v$[rbp]
	add	rax, 8
	mov	QWORD PTR v$[rbp], rax

; 144  :         w += 1;

	mov	rax, QWORD PTR w$[rbp]
	add	rax, 8
	mov	QWORD PTR w$[rbp], rax
$LN8@BitwiseAnd:

; 145  :     }
; 146  : }

	lea	rsp, QWORD PTR [rbp+232]
	pop	rdi
	pop	rbp
	ret	0
BitwiseAnd_X_X ENDP
_TEXT	ENDS
; Function compile flags: /Odtp /RTCsu /ZI
; File z:\sources\lunor\repos\rougemeilland\palmtree.math.core.uint\palmtree.math.core.uint\pmc_inline_func.h
;	COMDAT _MINIMUM_UNIT
_TEXT	SEGMENT
tv65 = 192
x$ = 240
y$ = 248
_MINIMUM_UNIT PROC					; COMDAT

; 208  :     {

	mov	QWORD PTR [rsp+16], rdx
	mov	QWORD PTR [rsp+8], rcx
	push	rbp
	push	rdi
	sub	rsp, 248				; 000000f8H
	lea	rbp, QWORD PTR [rsp+32]
	mov	rdi, rsp
	mov	ecx, 62					; 0000003eH
	mov	eax, -858993460				; ccccccccH
	rep stosd
	mov	rcx, QWORD PTR [rsp+280]
	lea	rcx, OFFSET FLAT:__8CA3E54E_pmc_inline_func@h
	call	__CheckForDebuggerJustMyCode

; 209  :         return (x <= y ? x : y);

	mov	rax, QWORD PTR y$[rbp]
	cmp	QWORD PTR x$[rbp], rax
	ja	SHORT $LN3@MINIMUM_UN
	mov	rax, QWORD PTR x$[rbp]
	mov	QWORD PTR tv65[rbp], rax
	jmp	SHORT $LN4@MINIMUM_UN
$LN3@MINIMUM_UN:
	mov	rax, QWORD PTR y$[rbp]
	mov	QWORD PTR tv65[rbp], rax
$LN4@MINIMUM_UN:
	mov	rax, QWORD PTR tv65[rbp]

; 210  :     }

	lea	rsp, QWORD PTR [rbp+216]
	pop	rdi
	pop	rbp
	ret	0
_MINIMUM_UNIT ENDP
_TEXT	ENDS
; Function compile flags: /Odtp /RTCsu /ZI
; File z:\sources\lunor\repos\rougemeilland\palmtree.math.core.uint\palmtree.math.core.uint\pmc_inline_func.h
;	COMDAT _DIVIDE_CEILING_UNIT
_TEXT	SEGMENT
u$ = 224
v$ = 232
_DIVIDE_CEILING_UNIT PROC				; COMDAT

; 193  :     {

	mov	QWORD PTR [rsp+16], rdx
	mov	QWORD PTR [rsp+8], rcx
	push	rbp
	push	rdi
	sub	rsp, 232				; 000000e8H
	lea	rbp, QWORD PTR [rsp+32]
	mov	rdi, rsp
	mov	ecx, 58					; 0000003aH
	mov	eax, -858993460				; ccccccccH
	rep stosd
	mov	rcx, QWORD PTR [rsp+264]
	lea	rcx, OFFSET FLAT:__8CA3E54E_pmc_inline_func@h
	call	__CheckForDebuggerJustMyCode

; 194  :         return ((u + v - 1) / v);

	mov	rax, QWORD PTR u$[rbp]
	mov	rcx, QWORD PTR v$[rbp]
	lea	rax, QWORD PTR [rax+rcx-1]
	xor	edx, edx
	div	QWORD PTR v$[rbp]

; 195  :     }

	lea	rsp, QWORD PTR [rbp+200]
	pop	rdi
	pop	rbp
	ret	0
_DIVIDE_CEILING_UNIT ENDP
_TEXT	ENDS
; Function compile flags: /Odtp /RTCsu /ZI
; File z:\sources\lunor\repos\rougemeilland\palmtree.math.core.uint\palmtree.math.core.uint\pmc_inline_func.h
;	COMDAT _FROMDWORDTOWORD
_TEXT	SEGMENT
value$ = 224
result_high$ = 232
_FROMDWORDTOWORD PROC					; COMDAT

; 182  :     {

	mov	QWORD PTR [rsp+16], rdx
	mov	QWORD PTR [rsp+8], rcx
	push	rbp
	push	rdi
	sub	rsp, 232				; 000000e8H
	lea	rbp, QWORD PTR [rsp+32]
	mov	rdi, rsp
	mov	ecx, 58					; 0000003aH
	mov	eax, -858993460				; ccccccccH
	rep stosd
	mov	rcx, QWORD PTR [rsp+264]
	lea	rcx, OFFSET FLAT:__8CA3E54E_pmc_inline_func@h
	call	__CheckForDebuggerJustMyCode

; 183  :         *result_high = (_UINT32_T)(value >> 32);

	mov	rax, QWORD PTR value$[rbp]
	shr	rax, 32					; 00000020H
	mov	rcx, QWORD PTR result_high$[rbp]
	mov	DWORD PTR [rcx], eax

; 184  :         return ((_UINT32_T)value);

	mov	eax, DWORD PTR value$[rbp]

; 185  :     }

	lea	rsp, QWORD PTR [rbp+200]
	pop	rdi
	pop	rbp
	ret	0
_FROMDWORDTOWORD ENDP
_TEXT	ENDS
; Function compile flags: /Odtp /RTCsu /ZI
; File z:\sources\lunor\repos\rougemeilland\palmtree.math.core.uint\palmtree.math.core.uint\pmc_inline_func.h
;	COMDAT _FROMWORDTODWORD
_TEXT	SEGMENT
value_high$ = 224
value_low$ = 232
_FROMWORDTODWORD PROC					; COMDAT

; 177  :     {

	mov	DWORD PTR [rsp+16], edx
	mov	DWORD PTR [rsp+8], ecx
	push	rbp
	push	rdi
	sub	rsp, 232				; 000000e8H
	lea	rbp, QWORD PTR [rsp+32]
	mov	rdi, rsp
	mov	ecx, 58					; 0000003aH
	mov	eax, -858993460				; ccccccccH
	rep stosd
	mov	ecx, DWORD PTR [rsp+264]
	lea	rcx, OFFSET FLAT:__8CA3E54E_pmc_inline_func@h
	call	__CheckForDebuggerJustMyCode

; 178  :         return (((_UINT64_T)value_high << 32) | value_low);

	mov	eax, DWORD PTR value_high$[rbp]
	shl	rax, 32					; 00000020H
	mov	ecx, DWORD PTR value_low$[rbp]
	or	rax, rcx

; 179  :     }

	lea	rsp, QWORD PTR [rbp+200]
	pop	rdi
	pop	rbp
	ret	0
_FROMWORDTODWORD ENDP
_TEXT	ENDS
; Function compile flags: /Odtp /RTCsu /ZI
; File z:\sources\lunor\repos\rougemeilland\palmtree.math.core.uint\palmtree.math.core.uint\pmc_bitwiseand.c
;	COMDAT PMC_BitwiseAnd_X_X
_TEXT	SEGMENT
nu$ = 8
nv$ = 40
result$ = 68
nw$ = 104
u_bit_count$5 = 136
v_bit_count$6 = 168
w_bit_count$7 = 200
nw_light_check_code$8 = 232
w_word_count$9 = 264
u$ = 512
v$ = 520
w$ = 528
PMC_BitwiseAnd_X_X PROC					; COMDAT

; 317  : {

$LN16:
	mov	QWORD PTR [rsp+24], r8
	mov	QWORD PTR [rsp+16], rdx
	mov	QWORD PTR [rsp+8], rcx
	push	rbp
	push	rdi
	sub	rsp, 520				; 00000208H
	lea	rbp, QWORD PTR [rsp+32]
	mov	rdi, rsp
	mov	ecx, 130				; 00000082H
	mov	eax, -858993460				; ccccccccH
	rep stosd
	mov	rcx, QWORD PTR [rsp+552]
	lea	rcx, OFFSET FLAT:__A674555F_pmc_bitwiseand@c
	call	__CheckForDebuggerJustMyCode

; 318  :     if (u == NULL)

	cmp	QWORD PTR u$[rbp], 0
	jne	SHORT $LN2@PMC_Bitwis

; 319  :         return (PMC_STATUS_ARGUMENT_ERROR);

	mov	eax, -1
	jmp	$LN1@PMC_Bitwis
$LN2@PMC_Bitwis:

; 320  :     if (v == NULL)

	cmp	QWORD PTR v$[rbp], 0
	jne	SHORT $LN3@PMC_Bitwis

; 321  :         return (PMC_STATUS_ARGUMENT_ERROR);

	mov	eax, -1
	jmp	$LN1@PMC_Bitwis
$LN3@PMC_Bitwis:

; 322  :     if (w == NULL)

	cmp	QWORD PTR w$[rbp], 0
	jne	SHORT $LN4@PMC_Bitwis

; 323  :         return (PMC_STATUS_ARGUMENT_ERROR);

	mov	eax, -1
	jmp	$LN1@PMC_Bitwis
$LN4@PMC_Bitwis:

; 324  :     NUMBER_HEADER* nu = (NUMBER_HEADER*)u;

	mov	rax, QWORD PTR u$[rbp]
	mov	QWORD PTR nu$[rbp], rax

; 325  :     NUMBER_HEADER* nv = (NUMBER_HEADER*)v;

	mov	rax, QWORD PTR v$[rbp]
	mov	QWORD PTR nv$[rbp], rax

; 326  :     PMC_STATUS_CODE result;
; 327  :     if ((result = CheckNumber(nu)) != PMC_STATUS_OK)

	mov	rcx, QWORD PTR nu$[rbp]
	call	CheckNumber
	mov	DWORD PTR result$[rbp], eax
	cmp	DWORD PTR result$[rbp], 0
	je	SHORT $LN5@PMC_Bitwis

; 328  :         return (result);

	mov	eax, DWORD PTR result$[rbp]
	jmp	$LN1@PMC_Bitwis
$LN5@PMC_Bitwis:

; 329  :     if ((result = CheckNumber(nv)) != PMC_STATUS_OK)

	mov	rcx, QWORD PTR nv$[rbp]
	call	CheckNumber
	mov	DWORD PTR result$[rbp], eax
	cmp	DWORD PTR result$[rbp], 0
	je	SHORT $LN6@PMC_Bitwis

; 330  :         return (result);

	mov	eax, DWORD PTR result$[rbp]
	jmp	$LN1@PMC_Bitwis
$LN6@PMC_Bitwis:

; 331  :     NUMBER_HEADER* nw;
; 332  :     if (nu->IS_ZERO)

	mov	rax, QWORD PTR nu$[rbp]
	mov	eax, DWORD PTR [rax+40]
	shr	eax, 1
	and	eax, 1
	test	eax, eax
	je	SHORT $LN7@PMC_Bitwis

; 333  :         *w = &number_zero;

	mov	rax, QWORD PTR w$[rbp]
	lea	rcx, OFFSET FLAT:number_zero
	mov	QWORD PTR [rax], rcx
	jmp	$LN8@PMC_Bitwis
$LN7@PMC_Bitwis:

; 334  :     else if (nv->IS_ZERO)

	mov	rax, QWORD PTR nv$[rbp]
	mov	eax, DWORD PTR [rax+40]
	shr	eax, 1
	and	eax, 1
	test	eax, eax
	je	SHORT $LN9@PMC_Bitwis

; 335  :         *w = &number_zero;

	mov	rax, QWORD PTR w$[rbp]
	lea	rcx, OFFSET FLAT:number_zero
	mov	QWORD PTR [rax], rcx
	jmp	$LN10@PMC_Bitwis
$LN9@PMC_Bitwis:

; 336  :     else
; 337  :     {
; 338  :         __UNIT_TYPE u_bit_count = nu->UNIT_BIT_COUNT;

	mov	rax, QWORD PTR nu$[rbp]
	mov	rax, QWORD PTR [rax+16]
	mov	QWORD PTR u_bit_count$5[rbp], rax

; 339  :         __UNIT_TYPE v_bit_count = nv->UNIT_BIT_COUNT;

	mov	rax, QWORD PTR nv$[rbp]
	mov	rax, QWORD PTR [rax+16]
	mov	QWORD PTR v_bit_count$6[rbp], rax

; 340  :         __UNIT_TYPE w_bit_count = _MINIMUM_UNIT(u_bit_count, v_bit_count);

	mov	rdx, QWORD PTR v_bit_count$6[rbp]
	mov	rcx, QWORD PTR u_bit_count$5[rbp]
	call	_MINIMUM_UNIT
	mov	QWORD PTR w_bit_count$7[rbp], rax

; 341  :         __UNIT_TYPE nw_light_check_code;
; 342  :         if ((result = AllocateNumber(&nw, w_bit_count, &nw_light_check_code)) != PMC_STATUS_OK)

	lea	r8, QWORD PTR nw_light_check_code$8[rbp]
	mov	rdx, QWORD PTR w_bit_count$7[rbp]
	lea	rcx, QWORD PTR nw$[rbp]
	call	AllocateNumber
	mov	DWORD PTR result$[rbp], eax
	cmp	DWORD PTR result$[rbp], 0
	je	SHORT $LN11@PMC_Bitwis

; 343  :             return (result);

	mov	eax, DWORD PTR result$[rbp]
	jmp	$LN1@PMC_Bitwis
$LN11@PMC_Bitwis:

; 344  :         __UNIT_TYPE w_word_count = _DIVIDE_CEILING_UNIT(w_bit_count, __UNIT_TYPE_BIT_COUNT);

	mov	edx, 64					; 00000040H
	mov	rcx, QWORD PTR w_bit_count$7[rbp]
	call	_DIVIDE_CEILING_UNIT
	mov	QWORD PTR w_word_count$9[rbp], rax

; 345  :         BitwiseAnd_X_X(nu->BLOCK, nv->BLOCK, nw->BLOCK, w_word_count);

	mov	r9, QWORD PTR w_word_count$9[rbp]
	mov	rax, QWORD PTR nw$[rbp]
	mov	r8, QWORD PTR [rax+56]
	mov	rax, QWORD PTR nv$[rbp]
	mov	rdx, QWORD PTR [rax+56]
	mov	rax, QWORD PTR nu$[rbp]
	mov	rcx, QWORD PTR [rax+56]
	call	BitwiseAnd_X_X

; 346  :         if ((result = CheckBlockLight(nw->BLOCK, nw_light_check_code)) != PMC_STATUS_OK)

	mov	rdx, QWORD PTR nw_light_check_code$8[rbp]
	mov	rax, QWORD PTR nw$[rbp]
	mov	rcx, QWORD PTR [rax+56]
	call	CheckBlockLight
	mov	DWORD PTR result$[rbp], eax
	cmp	DWORD PTR result$[rbp], 0
	je	SHORT $LN12@PMC_Bitwis

; 347  :             return (result);

	mov	eax, DWORD PTR result$[rbp]
	jmp	SHORT $LN1@PMC_Bitwis
$LN12@PMC_Bitwis:

; 348  :         CommitNumber(nw);

	mov	rcx, QWORD PTR nw$[rbp]
	call	CommitNumber

; 349  :         if (nw->IS_ZERO)

	mov	rax, QWORD PTR nw$[rbp]
	mov	eax, DWORD PTR [rax+40]
	shr	eax, 1
	and	eax, 1
	test	eax, eax
	je	SHORT $LN13@PMC_Bitwis

; 350  :         {
; 351  :             DeallocateNumber(nw);

	mov	rcx, QWORD PTR nw$[rbp]
	call	DeallocateNumber

; 352  :             nw = &number_zero;

	lea	rax, OFFSET FLAT:number_zero
	mov	QWORD PTR nw$[rbp], rax
$LN13@PMC_Bitwis:

; 353  :         }
; 354  :         *w = nw;

	mov	rax, QWORD PTR w$[rbp]
	mov	rcx, QWORD PTR nw$[rbp]
	mov	QWORD PTR [rax], rcx
$LN10@PMC_Bitwis:
$LN8@PMC_Bitwis:

; 355  :     }
; 356  : #ifdef _DEBUG
; 357  :     if ((result = CheckNumber(*w)) != PMC_STATUS_OK)

	mov	rax, QWORD PTR w$[rbp]
	mov	rcx, QWORD PTR [rax]
	call	CheckNumber
	mov	DWORD PTR result$[rbp], eax
	cmp	DWORD PTR result$[rbp], 0
	je	SHORT $LN14@PMC_Bitwis

; 358  :         return (result);

	mov	eax, DWORD PTR result$[rbp]
	jmp	SHORT $LN1@PMC_Bitwis
$LN14@PMC_Bitwis:

; 359  : #endif
; 360  :     return (PMC_STATUS_OK);

	xor	eax, eax
$LN1@PMC_Bitwis:

; 361  : }

	mov	rdi, rax
	lea	rcx, QWORD PTR [rbp-32]
	lea	rdx, OFFSET FLAT:PMC_BitwiseAnd_X_X$rtcFrameData
	call	_RTC_CheckStackVars
	mov	rax, rdi
	lea	rsp, QWORD PTR [rbp+488]
	pop	rdi
	pop	rbp
	ret	0
PMC_BitwiseAnd_X_X ENDP
_TEXT	ENDS
; Function compile flags: /Odtp /RTCsu /ZI
; File z:\sources\lunor\repos\rougemeilland\palmtree.math.core.uint\palmtree.math.core.uint\pmc_bitwiseand.c
;	COMDAT PMC_BitwiseAnd_X_L
_TEXT	SEGMENT
nu$ = 8
result$ = 36
v_hi$4 = 68
v_lo$5 = 100
w_hi$6 = 132
w_lo$7 = 164
tv86 = 376
u$ = 416
v$ = 424
w$ = 432
PMC_BitwiseAnd_X_L PROC					; COMDAT

; 268  : {

$LN15:
	mov	QWORD PTR [rsp+24], r8
	mov	QWORD PTR [rsp+16], rdx
	mov	QWORD PTR [rsp+8], rcx
	push	rbp
	push	rdi
	sub	rsp, 424				; 000001a8H
	lea	rbp, QWORD PTR [rsp+32]
	mov	rdi, rsp
	mov	ecx, 106				; 0000006aH
	mov	eax, -858993460				; ccccccccH
	rep stosd
	mov	rcx, QWORD PTR [rsp+456]
	lea	rcx, OFFSET FLAT:__A674555F_pmc_bitwiseand@c
	call	__CheckForDebuggerJustMyCode

; 269  :     if (__UNIT_TYPE_BIT_COUNT * 2 < sizeof(v) * 8)

	xor	eax, eax
	test	eax, eax
	je	SHORT $LN2@PMC_Bitwis

; 270  :     {
; 271  :         // _UINT64_T が 2 ワードで表現しきれない処理系には対応しない
; 272  :         return (PMC_STATUS_INTERNAL_ERROR);

	mov	eax, -256				; ffffffffffffff00H
	jmp	$LN1@PMC_Bitwis
$LN2@PMC_Bitwis:

; 273  :     }
; 274  :     if (u == NULL)

	cmp	QWORD PTR u$[rbp], 0
	jne	SHORT $LN3@PMC_Bitwis

; 275  :         return (PMC_STATUS_ARGUMENT_ERROR);

	mov	eax, -1
	jmp	$LN1@PMC_Bitwis
$LN3@PMC_Bitwis:

; 276  :     if (w == NULL)

	cmp	QWORD PTR w$[rbp], 0
	jne	SHORT $LN4@PMC_Bitwis

; 277  :         return (PMC_STATUS_ARGUMENT_ERROR);

	mov	eax, -1
	jmp	$LN1@PMC_Bitwis
$LN4@PMC_Bitwis:

; 278  :     NUMBER_HEADER* nu = (NUMBER_HEADER*)u;

	mov	rax, QWORD PTR u$[rbp]
	mov	QWORD PTR nu$[rbp], rax

; 279  :     PMC_STATUS_CODE result;
; 280  :     if ((result = CheckNumber(nu)) != PMC_STATUS_OK)

	mov	rcx, QWORD PTR nu$[rbp]
	call	CheckNumber
	mov	DWORD PTR result$[rbp], eax
	cmp	DWORD PTR result$[rbp], 0
	je	SHORT $LN5@PMC_Bitwis

; 281  :         return (result);

	mov	eax, DWORD PTR result$[rbp]
	jmp	$LN1@PMC_Bitwis
$LN5@PMC_Bitwis:

; 282  :     if (nu->IS_ZERO)

	mov	rax, QWORD PTR nu$[rbp]
	mov	eax, DWORD PTR [rax+40]
	shr	eax, 1
	and	eax, 1
	test	eax, eax
	je	SHORT $LN6@PMC_Bitwis

; 283  :     {
; 284  :         // u が 0 である場合
; 285  :         *w = 0;

	mov	rax, QWORD PTR w$[rbp]
	mov	QWORD PTR [rax], 0

; 286  :     }

	jmp	$LN7@PMC_Bitwis
$LN6@PMC_Bitwis:

; 287  :     else if (v == 0)

	cmp	QWORD PTR v$[rbp], 0
	jne	SHORT $LN8@PMC_Bitwis

; 288  :     {
; 289  :         // v が 0 である場合
; 290  :         *w = 0;

	mov	rax, QWORD PTR w$[rbp]
	mov	QWORD PTR [rax], 0

; 291  :     }

	jmp	$LN9@PMC_Bitwis
$LN8@PMC_Bitwis:

; 292  :     else
; 293  :     {
; 294  :         // u と v がともに 0 ではない場合
; 295  : 
; 296  :         // x と y の和を計算する
; 297  :         if (__UNIT_TYPE_BIT_COUNT < sizeof(v) * 8)

	xor	eax, eax
	test	eax, eax
	je	$LN10@PMC_Bitwis

; 298  :         {
; 299  :             // _UINT64_T が 1 ワードで表現しきれない場合
; 300  : 
; 301  :             _UINT32_T v_hi;
; 302  :             _UINT32_T v_lo = _FROMDWORDTOWORD(v, &v_hi);

	lea	rdx, QWORD PTR v_hi$4[rbp]
	mov	rcx, QWORD PTR v$[rbp]
	call	_FROMDWORDTOWORD
	mov	DWORD PTR v_lo$5[rbp], eax

; 303  :             _UINT32_T w_hi = nu->UNIT_WORD_COUNT > 1 ? nu->BLOCK[1] & v_hi : 0;

	mov	rax, QWORD PTR nu$[rbp]
	cmp	QWORD PTR [rax+8], 1
	jbe	SHORT $LN13@PMC_Bitwis
	mov	eax, 8
	imul	rax, rax, 1
	mov	rcx, QWORD PTR nu$[rbp]
	mov	rcx, QWORD PTR [rcx+56]
	mov	edx, DWORD PTR v_hi$4[rbp]
	mov	rax, QWORD PTR [rcx+rax]
	and	rax, rdx
	mov	QWORD PTR tv86[rbp], rax
	jmp	SHORT $LN14@PMC_Bitwis
$LN13@PMC_Bitwis:
	mov	QWORD PTR tv86[rbp], 0
$LN14@PMC_Bitwis:
	mov	eax, DWORD PTR tv86[rbp]
	mov	DWORD PTR w_hi$6[rbp], eax

; 304  :             _UINT32_T w_lo = nu->BLOCK[0] & v_lo;

	mov	eax, 8
	imul	rax, rax, 0
	mov	rcx, QWORD PTR nu$[rbp]
	mov	rcx, QWORD PTR [rcx+56]
	mov	edx, DWORD PTR v_lo$5[rbp]
	mov	rax, QWORD PTR [rcx+rax]
	and	rax, rdx
	mov	DWORD PTR w_lo$7[rbp], eax

; 305  :             *w = _FROMWORDTODWORD(w_hi, w_lo);

	mov	edx, DWORD PTR w_lo$7[rbp]
	mov	ecx, DWORD PTR w_hi$6[rbp]
	call	_FROMWORDTODWORD
	mov	rcx, QWORD PTR w$[rbp]
	mov	QWORD PTR [rcx], rax

; 306  :         }

	jmp	SHORT $LN11@PMC_Bitwis
$LN10@PMC_Bitwis:

; 307  :         else
; 308  :         {
; 309  :             // _UINT64_T が 1 ワードで表現できる場合
; 310  :             *w = nu->BLOCK[0] & v;

	mov	eax, 8
	imul	rax, rax, 0
	mov	rcx, QWORD PTR nu$[rbp]
	mov	rcx, QWORD PTR [rcx+56]
	mov	rdx, QWORD PTR v$[rbp]
	mov	rax, QWORD PTR [rcx+rax]
	and	rax, rdx
	mov	rcx, QWORD PTR w$[rbp]
	mov	QWORD PTR [rcx], rax
$LN11@PMC_Bitwis:
$LN9@PMC_Bitwis:
$LN7@PMC_Bitwis:

; 311  :         }
; 312  :     }
; 313  :     return (PMC_STATUS_OK);

	xor	eax, eax
$LN1@PMC_Bitwis:

; 314  : }

	mov	rdi, rax
	lea	rcx, QWORD PTR [rbp-32]
	lea	rdx, OFFSET FLAT:PMC_BitwiseAnd_X_L$rtcFrameData
	call	_RTC_CheckStackVars
	mov	rax, rdi
	lea	rsp, QWORD PTR [rbp+392]
	pop	rdi
	pop	rbp
	ret	0
PMC_BitwiseAnd_X_L ENDP
_TEXT	ENDS
; Function compile flags: /Odtp /RTCsu /ZI
; File z:\sources\lunor\repos\rougemeilland\palmtree.math.core.uint\palmtree.math.core.uint\pmc_bitwiseand.c
;	COMDAT PMC_BitwiseAnd_X_I
_TEXT	SEGMENT
nu$ = 8
result$ = 36
u$ = 288
v$ = 296
w$ = 304
PMC_BitwiseAnd_X_I PROC					; COMDAT

; 184  : {

$LN11:
	mov	QWORD PTR [rsp+24], r8
	mov	DWORD PTR [rsp+16], edx
	mov	QWORD PTR [rsp+8], rcx
	push	rbp
	push	rdi
	sub	rsp, 296				; 00000128H
	lea	rbp, QWORD PTR [rsp+32]
	mov	rdi, rsp
	mov	ecx, 74					; 0000004aH
	mov	eax, -858993460				; ccccccccH
	rep stosd
	mov	rcx, QWORD PTR [rsp+328]
	lea	rcx, OFFSET FLAT:__A674555F_pmc_bitwiseand@c
	call	__CheckForDebuggerJustMyCode

; 185  :     if (__UNIT_TYPE_BIT_COUNT < sizeof(v) * 8)

	xor	eax, eax
	test	eax, eax
	je	SHORT $LN2@PMC_Bitwis

; 186  :     {
; 187  :         // _UINT32_T が 1 ワードで表現しきれない処理系には対応しない
; 188  :         return (PMC_STATUS_INTERNAL_ERROR);

	mov	eax, -256				; ffffffffffffff00H
	jmp	$LN1@PMC_Bitwis
$LN2@PMC_Bitwis:

; 189  :     }
; 190  :     if (u == NULL)

	cmp	QWORD PTR u$[rbp], 0
	jne	SHORT $LN3@PMC_Bitwis

; 191  :         return (PMC_STATUS_ARGUMENT_ERROR);

	mov	eax, -1
	jmp	$LN1@PMC_Bitwis
$LN3@PMC_Bitwis:

; 192  :     if (w == NULL)

	cmp	QWORD PTR w$[rbp], 0
	jne	SHORT $LN4@PMC_Bitwis

; 193  :         return (PMC_STATUS_ARGUMENT_ERROR);

	mov	eax, -1
	jmp	$LN1@PMC_Bitwis
$LN4@PMC_Bitwis:

; 194  :     NUMBER_HEADER* nu = (NUMBER_HEADER*)u;

	mov	rax, QWORD PTR u$[rbp]
	mov	QWORD PTR nu$[rbp], rax

; 195  :     PMC_STATUS_CODE result;
; 196  :     if ((result = CheckNumber(nu)) != PMC_STATUS_OK)

	mov	rcx, QWORD PTR nu$[rbp]
	call	CheckNumber
	mov	DWORD PTR result$[rbp], eax
	cmp	DWORD PTR result$[rbp], 0
	je	SHORT $LN5@PMC_Bitwis

; 197  :         return (result);

	mov	eax, DWORD PTR result$[rbp]
	jmp	SHORT $LN1@PMC_Bitwis
$LN5@PMC_Bitwis:

; 198  :     if (nu->IS_ZERO)

	mov	rax, QWORD PTR nu$[rbp]
	mov	eax, DWORD PTR [rax+40]
	shr	eax, 1
	and	eax, 1
	test	eax, eax
	je	SHORT $LN6@PMC_Bitwis

; 199  :     {
; 200  :         // u が 0 である場合
; 201  :         *w = 0;

	mov	rax, QWORD PTR w$[rbp]
	mov	DWORD PTR [rax], 0

; 202  :     }

	jmp	SHORT $LN7@PMC_Bitwis
$LN6@PMC_Bitwis:

; 203  :     else  if (v == 0)

	cmp	DWORD PTR v$[rbp], 0
	jne	SHORT $LN8@PMC_Bitwis

; 204  :     {
; 205  :         // v が 0 である場合
; 206  :         *w = 0;

	mov	rax, QWORD PTR w$[rbp]
	mov	DWORD PTR [rax], 0

; 207  :     }

	jmp	SHORT $LN9@PMC_Bitwis
$LN8@PMC_Bitwis:

; 208  :     else
; 209  :     {
; 210  :         // u と v がともに 0 ではない場合
; 211  : 
; 212  :         // u と v の bit AND を計算する
; 213  :         *w = nu->BLOCK[0] & v;

	mov	eax, 8
	imul	rax, rax, 0
	mov	rcx, QWORD PTR nu$[rbp]
	mov	rcx, QWORD PTR [rcx+56]
	mov	edx, DWORD PTR v$[rbp]
	mov	rax, QWORD PTR [rcx+rax]
	and	rax, rdx
	mov	rcx, QWORD PTR w$[rbp]
	mov	DWORD PTR [rcx], eax
$LN9@PMC_Bitwis:
$LN7@PMC_Bitwis:

; 214  :     }
; 215  :     return (PMC_STATUS_OK);

	xor	eax, eax
$LN1@PMC_Bitwis:

; 216  : }

	lea	rsp, QWORD PTR [rbp+264]
	pop	rdi
	pop	rbp
	ret	0
PMC_BitwiseAnd_X_I ENDP
_TEXT	ENDS
; Function compile flags: /Odtp /RTCsu /ZI
; File z:\sources\lunor\repos\rougemeilland\palmtree.math.core.uint\palmtree.math.core.uint\pmc_bitwiseand.c
;	COMDAT PMC_BitwiseAnd_L_X
_TEXT	SEGMENT
nv$ = 8
result$ = 36
u_hi$4 = 68
u_lo$5 = 100
w_hi$6 = 132
w_lo$7 = 164
tv86 = 376
u$ = 416
v$ = 424
w$ = 432
PMC_BitwiseAnd_L_X PROC					; COMDAT

; 219  : {

$LN15:
	mov	QWORD PTR [rsp+24], r8
	mov	QWORD PTR [rsp+16], rdx
	mov	QWORD PTR [rsp+8], rcx
	push	rbp
	push	rdi
	sub	rsp, 424				; 000001a8H
	lea	rbp, QWORD PTR [rsp+32]
	mov	rdi, rsp
	mov	ecx, 106				; 0000006aH
	mov	eax, -858993460				; ccccccccH
	rep stosd
	mov	rcx, QWORD PTR [rsp+456]
	lea	rcx, OFFSET FLAT:__A674555F_pmc_bitwiseand@c
	call	__CheckForDebuggerJustMyCode

; 220  :     if (__UNIT_TYPE_BIT_COUNT * 2 < sizeof(u) * 8)

	xor	eax, eax
	test	eax, eax
	je	SHORT $LN2@PMC_Bitwis

; 221  :     {
; 222  :         // _UINT64_T が 2 ワードで表現しきれない処理系には対応しない
; 223  :         return (PMC_STATUS_INTERNAL_ERROR);

	mov	eax, -256				; ffffffffffffff00H
	jmp	$LN1@PMC_Bitwis
$LN2@PMC_Bitwis:

; 224  :     }
; 225  :     if (v == NULL)

	cmp	QWORD PTR v$[rbp], 0
	jne	SHORT $LN3@PMC_Bitwis

; 226  :         return (PMC_STATUS_ARGUMENT_ERROR);

	mov	eax, -1
	jmp	$LN1@PMC_Bitwis
$LN3@PMC_Bitwis:

; 227  :     if (w == NULL)

	cmp	QWORD PTR w$[rbp], 0
	jne	SHORT $LN4@PMC_Bitwis

; 228  :         return (PMC_STATUS_ARGUMENT_ERROR);

	mov	eax, -1
	jmp	$LN1@PMC_Bitwis
$LN4@PMC_Bitwis:

; 229  :     NUMBER_HEADER* nv = (NUMBER_HEADER*)v;

	mov	rax, QWORD PTR v$[rbp]
	mov	QWORD PTR nv$[rbp], rax

; 230  :     PMC_STATUS_CODE result;
; 231  :     if ((result = CheckNumber(nv)) != PMC_STATUS_OK)

	mov	rcx, QWORD PTR nv$[rbp]
	call	CheckNumber
	mov	DWORD PTR result$[rbp], eax
	cmp	DWORD PTR result$[rbp], 0
	je	SHORT $LN5@PMC_Bitwis

; 232  :         return (result);

	mov	eax, DWORD PTR result$[rbp]
	jmp	$LN1@PMC_Bitwis
$LN5@PMC_Bitwis:

; 233  :     if (nv->IS_ZERO)

	mov	rax, QWORD PTR nv$[rbp]
	mov	eax, DWORD PTR [rax+40]
	shr	eax, 1
	and	eax, 1
	test	eax, eax
	je	SHORT $LN6@PMC_Bitwis

; 234  :     {
; 235  :         // v が 0 である場合
; 236  :         *w = 0;

	mov	rax, QWORD PTR w$[rbp]
	mov	QWORD PTR [rax], 0

; 237  :     }

	jmp	$LN7@PMC_Bitwis
$LN6@PMC_Bitwis:

; 238  :     else if (u == 0)

	cmp	QWORD PTR u$[rbp], 0
	jne	SHORT $LN8@PMC_Bitwis

; 239  :     {
; 240  :         // u が 0 である場合
; 241  :         *w = 0;

	mov	rax, QWORD PTR w$[rbp]
	mov	QWORD PTR [rax], 0

; 242  :     }

	jmp	$LN9@PMC_Bitwis
$LN8@PMC_Bitwis:

; 243  :     else
; 244  :     {
; 245  :         // u と v がともに 0 ではない場合
; 246  : 
; 247  :         // x と y の和を計算する
; 248  :         if (__UNIT_TYPE_BIT_COUNT < sizeof(u) * 8)

	xor	eax, eax
	test	eax, eax
	je	$LN10@PMC_Bitwis

; 249  :         {
; 250  :             // _UINT64_T が 1 ワードで表現しきれない場合
; 251  : 
; 252  :             _UINT32_T u_hi;
; 253  :             _UINT32_T u_lo = _FROMDWORDTOWORD(u, &u_hi);

	lea	rdx, QWORD PTR u_hi$4[rbp]
	mov	rcx, QWORD PTR u$[rbp]
	call	_FROMDWORDTOWORD
	mov	DWORD PTR u_lo$5[rbp], eax

; 254  :             _UINT32_T w_hi = nv->UNIT_WORD_COUNT > 1 ? nv->BLOCK[1] & u_hi : 0;

	mov	rax, QWORD PTR nv$[rbp]
	cmp	QWORD PTR [rax+8], 1
	jbe	SHORT $LN13@PMC_Bitwis
	mov	eax, 8
	imul	rax, rax, 1
	mov	rcx, QWORD PTR nv$[rbp]
	mov	rcx, QWORD PTR [rcx+56]
	mov	edx, DWORD PTR u_hi$4[rbp]
	mov	rax, QWORD PTR [rcx+rax]
	and	rax, rdx
	mov	QWORD PTR tv86[rbp], rax
	jmp	SHORT $LN14@PMC_Bitwis
$LN13@PMC_Bitwis:
	mov	QWORD PTR tv86[rbp], 0
$LN14@PMC_Bitwis:
	mov	eax, DWORD PTR tv86[rbp]
	mov	DWORD PTR w_hi$6[rbp], eax

; 255  :             _UINT32_T w_lo = nv->BLOCK[0] & u_lo;

	mov	eax, 8
	imul	rax, rax, 0
	mov	rcx, QWORD PTR nv$[rbp]
	mov	rcx, QWORD PTR [rcx+56]
	mov	edx, DWORD PTR u_lo$5[rbp]
	mov	rax, QWORD PTR [rcx+rax]
	and	rax, rdx
	mov	DWORD PTR w_lo$7[rbp], eax

; 256  :             *w = _FROMWORDTODWORD(w_hi, w_lo);

	mov	edx, DWORD PTR w_lo$7[rbp]
	mov	ecx, DWORD PTR w_hi$6[rbp]
	call	_FROMWORDTODWORD
	mov	rcx, QWORD PTR w$[rbp]
	mov	QWORD PTR [rcx], rax

; 257  :         }

	jmp	SHORT $LN11@PMC_Bitwis
$LN10@PMC_Bitwis:

; 258  :         else
; 259  :         {
; 260  :             // _UINT64_T が 1 ワードで表現できる場合
; 261  :             *w = nv->BLOCK[0] & u;

	mov	eax, 8
	imul	rax, rax, 0
	mov	rcx, QWORD PTR nv$[rbp]
	mov	rcx, QWORD PTR [rcx+56]
	mov	rdx, QWORD PTR u$[rbp]
	mov	rax, QWORD PTR [rcx+rax]
	and	rax, rdx
	mov	rcx, QWORD PTR w$[rbp]
	mov	QWORD PTR [rcx], rax
$LN11@PMC_Bitwis:
$LN9@PMC_Bitwis:
$LN7@PMC_Bitwis:

; 262  :         }
; 263  :     }
; 264  :     return (PMC_STATUS_OK);

	xor	eax, eax
$LN1@PMC_Bitwis:

; 265  : }

	mov	rdi, rax
	lea	rcx, QWORD PTR [rbp-32]
	lea	rdx, OFFSET FLAT:PMC_BitwiseAnd_L_X$rtcFrameData
	call	_RTC_CheckStackVars
	mov	rax, rdi
	lea	rsp, QWORD PTR [rbp+392]
	pop	rdi
	pop	rbp
	ret	0
PMC_BitwiseAnd_L_X ENDP
_TEXT	ENDS
; Function compile flags: /Odtp /RTCsu /ZI
; File z:\sources\lunor\repos\rougemeilland\palmtree.math.core.uint\palmtree.math.core.uint\pmc_bitwiseand.c
;	COMDAT PMC_BitwiseAnd_I_X
_TEXT	SEGMENT
nv$ = 8
result$ = 36
u$ = 288
v$ = 296
w$ = 304
PMC_BitwiseAnd_I_X PROC					; COMDAT

; 149  : {

$LN11:
	mov	QWORD PTR [rsp+24], r8
	mov	QWORD PTR [rsp+16], rdx
	mov	DWORD PTR [rsp+8], ecx
	push	rbp
	push	rdi
	sub	rsp, 296				; 00000128H
	lea	rbp, QWORD PTR [rsp+32]
	mov	rdi, rsp
	mov	ecx, 74					; 0000004aH
	mov	eax, -858993460				; ccccccccH
	rep stosd
	mov	ecx, DWORD PTR [rsp+328]
	lea	rcx, OFFSET FLAT:__A674555F_pmc_bitwiseand@c
	call	__CheckForDebuggerJustMyCode

; 150  :     if (__UNIT_TYPE_BIT_COUNT < sizeof(u) * 8)

	xor	eax, eax
	test	eax, eax
	je	SHORT $LN2@PMC_Bitwis

; 151  :     {
; 152  :         // _UINT32_T が 1 ワードで表現しきれない処理系には対応しない
; 153  :         return (PMC_STATUS_INTERNAL_ERROR);

	mov	eax, -256				; ffffffffffffff00H
	jmp	$LN1@PMC_Bitwis
$LN2@PMC_Bitwis:

; 154  :     }
; 155  :     if (v == NULL)

	cmp	QWORD PTR v$[rbp], 0
	jne	SHORT $LN3@PMC_Bitwis

; 156  :         return (PMC_STATUS_ARGUMENT_ERROR);

	mov	eax, -1
	jmp	$LN1@PMC_Bitwis
$LN3@PMC_Bitwis:

; 157  :     if (w == NULL)

	cmp	QWORD PTR w$[rbp], 0
	jne	SHORT $LN4@PMC_Bitwis

; 158  :         return (PMC_STATUS_ARGUMENT_ERROR);

	mov	eax, -1
	jmp	$LN1@PMC_Bitwis
$LN4@PMC_Bitwis:

; 159  :     NUMBER_HEADER* nv = (NUMBER_HEADER*)v;

	mov	rax, QWORD PTR v$[rbp]
	mov	QWORD PTR nv$[rbp], rax

; 160  :     PMC_STATUS_CODE result;
; 161  :     if ((result = CheckNumber(nv)) != PMC_STATUS_OK)

	mov	rcx, QWORD PTR nv$[rbp]
	call	CheckNumber
	mov	DWORD PTR result$[rbp], eax
	cmp	DWORD PTR result$[rbp], 0
	je	SHORT $LN5@PMC_Bitwis

; 162  :         return (result);

	mov	eax, DWORD PTR result$[rbp]
	jmp	SHORT $LN1@PMC_Bitwis
$LN5@PMC_Bitwis:

; 163  :     if (nv->IS_ZERO)

	mov	rax, QWORD PTR nv$[rbp]
	mov	eax, DWORD PTR [rax+40]
	shr	eax, 1
	and	eax, 1
	test	eax, eax
	je	SHORT $LN6@PMC_Bitwis

; 164  :     {
; 165  :         // v が 0 である場合
; 166  :         *w = 0;

	mov	rax, QWORD PTR w$[rbp]
	mov	DWORD PTR [rax], 0

; 167  :     }

	jmp	SHORT $LN7@PMC_Bitwis
$LN6@PMC_Bitwis:

; 168  :     else  if (u == 0)

	cmp	DWORD PTR u$[rbp], 0
	jne	SHORT $LN8@PMC_Bitwis

; 169  :     {
; 170  :         // u が 0 である場合
; 171  :         *w = 0;

	mov	rax, QWORD PTR w$[rbp]
	mov	DWORD PTR [rax], 0

; 172  :     }

	jmp	SHORT $LN9@PMC_Bitwis
$LN8@PMC_Bitwis:

; 173  :     else
; 174  :     {
; 175  :         // u と v がともに 0 ではない場合
; 176  : 
; 177  :         // u と v の bit AND を計算する
; 178  :         *w = nv->BLOCK[0] & u;

	mov	eax, 8
	imul	rax, rax, 0
	mov	rcx, QWORD PTR nv$[rbp]
	mov	rcx, QWORD PTR [rcx+56]
	mov	edx, DWORD PTR u$[rbp]
	mov	rax, QWORD PTR [rcx+rax]
	and	rax, rdx
	mov	rcx, QWORD PTR w$[rbp]
	mov	DWORD PTR [rcx], eax
$LN9@PMC_Bitwis:
$LN7@PMC_Bitwis:

; 179  :     }
; 180  :     return (PMC_STATUS_OK);

	xor	eax, eax
$LN1@PMC_Bitwis:

; 181  : }

	lea	rsp, QWORD PTR [rbp+264]
	pop	rdi
	pop	rbp
	ret	0
PMC_BitwiseAnd_I_X ENDP
_TEXT	ENDS
; Function compile flags: /Odtp /RTCsu /ZI
; File z:\sources\lunor\repos\rougemeilland\palmtree.math.core.uint\palmtree.math.core.uint\pmc_bitwiseand.c
;	COMDAT Initialize_BitwiseAnd
_TEXT	SEGMENT
feature$ = 224
Initialize_BitwiseAnd PROC				; COMDAT

; 365  : {

$LN3:
	mov	QWORD PTR [rsp+8], rcx
	push	rbp
	push	rdi
	sub	rsp, 232				; 000000e8H
	lea	rbp, QWORD PTR [rsp+32]
	mov	rdi, rsp
	mov	ecx, 58					; 0000003aH
	mov	eax, -858993460				; ccccccccH
	rep stosd
	mov	rcx, QWORD PTR [rsp+264]
	lea	rcx, OFFSET FLAT:__A674555F_pmc_bitwiseand@c
	call	__CheckForDebuggerJustMyCode

; 366  :     return (PMC_STATUS_OK);

	xor	eax, eax

; 367  : }

	lea	rsp, QWORD PTR [rbp+200]
	pop	rdi
	pop	rbp
	ret	0
Initialize_BitwiseAnd ENDP
_TEXT	ENDS
END
