; Listing generated by Microsoft (R) Optimizing Compiler Version 19.16.27027.1 

include listing.inc

INCLUDELIB MSVCRTD
INCLUDELIB OLDNAMES

msvcjmc	SEGMENT
__7B7A869E_ctype@h DB 01H
__457DD326_basetsd@h DB 01H
__4384A2D9_corecrt_memcpy_s@h DB 01H
__2088847F_corecrt_memory@h DB 01H
__4E51A221_corecrt_wstring@h DB 01H
__2140C079_string@h DB 01H
__E9FFF232_guiddef@h DB 01H
__1887E595_winnt@h DB 01H
__9FC7C64B_processthreadsapi@h DB 01H
__FA470AEC_memoryapi@h DB 01H
__F37DAFF1_winerror@h DB 01H
__7A450CCC_winbase@h DB 01H
__12AD47BB_winuser@h DB 01H
__B4B40122_winioctl@h DB 01H
__A73354DD_stdlib@h DB 01H
__25F3FB34_propidl@h DB 01H
__A40E48B8_oleauto@h DB 01H
__86261D59_stralign@h DB 01H
__2CC6E67D_corecrt_stdio_config@h DB 01H
__41381B41_corecrt_wconio@h DB 01H
__F0CC4AC4_corecrt_wio@h DB 01H
__05476D76_corecrt_wstdio@h DB 01H
__C0802A2B_corecrt_wtime@h DB 01H
__A40A425D_stat@h DB 01H
__5A74375D_wchar@h DB 01H
__6BC0FD35_vcruntime_new@h DB 01H
__77F53984_cstddef DB 01H
__188180DA_corecrt_math@h DB 01H
__D23EE329_cstdlib DB 01H
__5ECFF36E_type_traits DB 01H
__331E732B_malloc@h DB 01H
__9BB4E194_vcruntime_exception@h DB 01H
__7949CB39_exception DB 01H
__802FEEC0_pmc_exception@h DB 01H
__80E6779E_pmc_stringio@h DB 01H
__BB6D3116_pmc_uint_internal@h DB 01H
__1AB12E38_pmc_resourceholder@h DB 01H
__8CA3E54E_pmc_inline_func@h DB 01H
__F159A697_pmc_parse@cpp DB 01H
msvcjmc	ENDS
PUBLIC	??0exception@std@@QEAA@XZ			; std::exception::exception
PUBLIC	??1exception@std@@UEAA@XZ			; std::exception::~exception
PUBLIC	?what@exception@std@@UEBAPEBDXZ			; std::exception::what
PUBLIC	??_Gexception@std@@UEAAPEAXI@Z			; std::exception::`scalar deleting destructor'
PUBLIC	??0Exception@Internal@Core@Math@Palmtree@@IEAA@HPEB_W@Z ; Palmtree::Math::Core::Internal::Exception::Exception
PUBLIC	??0Exception@Internal@Core@Math@Palmtree@@IEAA@HPEB_W0@Z ; Palmtree::Math::Core::Internal::Exception::Exception
PUBLIC	??0Exception@Internal@Core@Math@Palmtree@@QEAA@AEBV01234@@Z ; Palmtree::Math::Core::Internal::Exception::Exception
PUBLIC	??1Exception@Internal@Core@Math@Palmtree@@UEAA@XZ ; Palmtree::Math::Core::Internal::Exception::~Exception
PUBLIC	??_GException@Internal@Core@Math@Palmtree@@UEAAPEAXI@Z ; Palmtree::Math::Core::Internal::Exception::`scalar deleting destructor'
PUBLIC	??0ArgumentException@Internal@Core@Math@Palmtree@@QEAA@PEB_W@Z ; Palmtree::Math::Core::Internal::ArgumentException::ArgumentException
PUBLIC	??0ArgumentException@Internal@Core@Math@Palmtree@@QEAA@AEBV01234@@Z ; Palmtree::Math::Core::Internal::ArgumentException::ArgumentException
PUBLIC	??1ArgumentException@Internal@Core@Math@Palmtree@@UEAA@XZ ; Palmtree::Math::Core::Internal::ArgumentException::~ArgumentException
PUBLIC	??_GArgumentException@Internal@Core@Math@Palmtree@@UEAAPEAXI@Z ; Palmtree::Math::Core::Internal::ArgumentException::`scalar deleting destructor'
PUBLIC	??0ArgumentNullException@Internal@Core@Math@Palmtree@@QEAA@PEB_W0@Z ; Palmtree::Math::Core::Internal::ArgumentNullException::ArgumentNullException
PUBLIC	??0ArgumentNullException@Internal@Core@Math@Palmtree@@QEAA@AEBV01234@@Z ; Palmtree::Math::Core::Internal::ArgumentNullException::ArgumentNullException
PUBLIC	??1ArgumentNullException@Internal@Core@Math@Palmtree@@UEAA@XZ ; Palmtree::Math::Core::Internal::ArgumentNullException::~ArgumentNullException
PUBLIC	??_GArgumentNullException@Internal@Core@Math@Palmtree@@UEAAPEAXI@Z ; Palmtree::Math::Core::Internal::ArgumentNullException::`scalar deleting destructor'
PUBLIC	??0InsufficientBufferException@Internal@Core@Math@Palmtree@@QEAA@PEB_W@Z ; Palmtree::Math::Core::Internal::InsufficientBufferException::InsufficientBufferException
PUBLIC	??0InsufficientBufferException@Internal@Core@Math@Palmtree@@QEAA@AEBV01234@@Z ; Palmtree::Math::Core::Internal::InsufficientBufferException::InsufficientBufferException
PUBLIC	??1InsufficientBufferException@Internal@Core@Math@Palmtree@@UEAA@XZ ; Palmtree::Math::Core::Internal::InsufficientBufferException::~InsufficientBufferException
PUBLIC	??_GInsufficientBufferException@Internal@Core@Math@Palmtree@@UEAAPEAXI@Z ; Palmtree::Math::Core::Internal::InsufficientBufferException::`scalar deleting destructor'
PUBLIC	??0InternalErrorException@Internal@Core@Math@Palmtree@@QEAA@PEB_W0@Z ; Palmtree::Math::Core::Internal::InternalErrorException::InternalErrorException
PUBLIC	??0InternalErrorException@Internal@Core@Math@Palmtree@@QEAA@AEBV01234@@Z ; Palmtree::Math::Core::Internal::InternalErrorException::InternalErrorException
PUBLIC	??1InternalErrorException@Internal@Core@Math@Palmtree@@UEAA@XZ ; Palmtree::Math::Core::Internal::InternalErrorException::~InternalErrorException
PUBLIC	??_GInternalErrorException@Internal@Core@Math@Palmtree@@UEAAPEAXI@Z ; Palmtree::Math::Core::Internal::InternalErrorException::`scalar deleting destructor'
PUBLIC	??0StringReader@Internal@Core@Math@Palmtree@@QEAA@PEB_W@Z ; Palmtree::Math::Core::Internal::StringReader::StringReader
PUBLIC	?PeekChar@StringReader@Internal@Core@Math@Palmtree@@UEAA_WXZ ; Palmtree::Math::Core::Internal::StringReader::PeekChar
PUBLIC	?Progress@StringReader@Internal@Core@Math@Palmtree@@UEAAXXZ ; Palmtree::Math::Core::Internal::StringReader::Progress
PUBLIC	?StartsWith@StringReader@Internal@Core@Math@Palmtree@@UEAAHPEB_W@Z ; Palmtree::Math::Core::Internal::StringReader::StartsWith
PUBLIC	?SkipSpace@StringReader@Internal@Core@Math@Palmtree@@QEAAXXZ ; Palmtree::Math::Core::Internal::StringReader::SkipSpace
PUBLIC	?SkipString@StringReader@Internal@Core@Math@Palmtree@@UEAAXPEB_W@Z ; Palmtree::Math::Core::Internal::StringReader::SkipString
PUBLIC	?StartsWith@StringReader@Internal@Core@Math@Palmtree@@CAHPEB_W0@Z ; Palmtree::Math::Core::Internal::StringReader::StartsWith
PUBLIC	??0StringWriter@Internal@Core@Math@Palmtree@@IEAA@PEA_W00@Z ; Palmtree::Math::Core::Internal::StringWriter::StringWriter
PUBLIC	??0StringWriter@Internal@Core@Math@Palmtree@@QEAA@PEA_W_K@Z ; Palmtree::Math::Core::Internal::StringWriter::StringWriter
PUBLIC	?Write@StringWriter@Internal@Core@Math@Palmtree@@UEAAX_W@Z ; Palmtree::Math::Core::Internal::StringWriter::Write
PUBLIC	?Write@StringWriter@Internal@Core@Math@Palmtree@@UEAAXPEB_W@Z ; Palmtree::Math::Core::Internal::StringWriter::Write
PUBLIC	?GetString@StringWriter@Internal@Core@Math@Palmtree@@UEAAPEA_WXZ ; Palmtree::Math::Core::Internal::StringWriter::GetString
PUBLIC	?Initialize_Parse@Internal@Core@Math@Palmtree@@YAHPEAU_tag_PROCESSOR_FEATURES@1234@@Z ; Palmtree::Math::Core::Internal::Initialize_Parse
PUBLIC	?PMC_TryParse@Internal@Core@Math@Palmtree@@YAHPEB_WHPEBU__tag_PMC_NUMBER_FORMAT_INFO@1234@PEAPEAU__tag_PMC_HANDLE_UINT@1234@PEAI@Z ; Palmtree::Math::Core::Internal::PMC_TryParse
PUBLIC	?PMC_TryParseForSINT@Internal@Core@Math@Palmtree@@YAHPEB_WHPEBU__tag_PMC_NUMBER_FORMAT_INFO@1234@PEADPEAPEAU__tag_PMC_HANDLE_UINT@1234@PEAI@Z ; Palmtree::Math::Core::Internal::PMC_TryParseForSINT
PUBLIC	??0ParserState@Internal@Core@Math@Palmtree@@QEAA@PEB_WIPEBU__tag_PMC_NUMBER_FORMAT_INFO@1234@PEADPEA_W_K34@Z ; Palmtree::Math::Core::Internal::ParserState::ParserState
PUBLIC	??1ParserState@Internal@Core@Math@Palmtree@@QEAA@XZ ; Palmtree::Math::Core::Internal::ParserState::~ParserState
PUBLIC	?ParseAsDecimalNumberString@ParserState@Internal@Core@Math@Palmtree@@QEAAHXZ ; Palmtree::Math::Core::Internal::ParserState::ParseAsDecimalNumberString
PUBLIC	?ParseAsHexNumberString@ParserState@Internal@Core@Math@Palmtree@@QEAAHXZ ; Palmtree::Math::Core::Internal::ParserState::ParseAsHexNumberString
PUBLIC	?ParseAsIntegerPartNumberSequence@ParserState@Internal@Core@Math@Palmtree@@AEAAXXZ ; Palmtree::Math::Core::Internal::ParserState::ParseAsIntegerPartNumberSequence
PUBLIC	?ParseAsFractionPartNumberSequence@ParserState@Internal@Core@Math@Palmtree@@AEAAXXZ ; Palmtree::Math::Core::Internal::ParserState::ParseAsFractionPartNumberSequence
PUBLIC	__JustMyCode_Default
PUBLIC	??_7exception@std@@6B@				; std::exception::`vftable'
PUBLIC	??_C@_0BC@EOODALEL@Unknown?5exception@		; `string'
PUBLIC	??_7Exception@Internal@Core@Math@Palmtree@@6B@	; Palmtree::Math::Core::Internal::Exception::`vftable'
PUBLIC	??_7ArgumentException@Internal@Core@Math@Palmtree@@6B@ ; Palmtree::Math::Core::Internal::ArgumentException::`vftable'
PUBLIC	??_7ArgumentNullException@Internal@Core@Math@Palmtree@@6B@ ; Palmtree::Math::Core::Internal::ArgumentNullException::`vftable'
PUBLIC	??_7InsufficientBufferException@Internal@Core@Math@Palmtree@@6B@ ; Palmtree::Math::Core::Internal::InsufficientBufferException::`vftable'
PUBLIC	??_7InternalErrorException@Internal@Core@Math@Palmtree@@6B@ ; Palmtree::Math::Core::Internal::InternalErrorException::`vftable'
PUBLIC	??_7StringReader@Internal@Core@Math@Palmtree@@6B@ ; Palmtree::Math::Core::Internal::StringReader::`vftable'
PUBLIC	_TI2?AVInternalErrorException@Internal@Core@Math@Palmtree@@
PUBLIC	_CTA2?AVInternalErrorException@Internal@Core@Math@Palmtree@@
PUBLIC	??_R0?AVInternalErrorException@Internal@Core@Math@Palmtree@@@8 ; Palmtree::Math::Core::Internal::InternalErrorException `RTTI Type Descriptor'
PUBLIC	_CT??_R0?AVInternalErrorException@Internal@Core@Math@Palmtree@@@8??0InternalErrorException@Internal@Core@Math@Palmtree@@QEAA@AEBV01234@@Z48
PUBLIC	??_R0?AVException@Internal@Core@Math@Palmtree@@@8 ; Palmtree::Math::Core::Internal::Exception `RTTI Type Descriptor'
PUBLIC	_CT??_R0?AVException@Internal@Core@Math@Palmtree@@@8??0Exception@Internal@Core@Math@Palmtree@@QEAA@AEBV01234@@Z48
PUBLIC	??_C@_1FA@CNGEABBJ@?$AAp?$AAm?$AAc?$AA_?$AAs?$AAt?$AAr?$AAi?$AAn?$AAg?$AAi?$AAo?$AA?4?$AAh?$AA?$DL@ ; `string'
PUBLIC	??_C@_1BM@FCPAHMHB@?$PP?$IF?$PP?h?$PP?$KI?$PP?i?$PP?$PM?$AAL?$AAz?$AA?$BP?$AAW?$AA?$HO?$AAW?$AA_?$AA?$AC@ ; `string'
PUBLIC	??_C@_1FE@KONPIGEM@?$AAp?$AAm?$AAc?$AA_?$AAs?$AAt?$AAr?$AAi?$AAn?$AAg?$AAi?$AAo?$AA?4?$AAh?$AA?$DL@ ; `string'
PUBLIC	??_7StringWriter@Internal@Core@Math@Palmtree@@6B@ ; Palmtree::Math::Core::Internal::StringWriter::`vftable'
PUBLIC	_TI2?AVInsufficientBufferException@Internal@Core@Math@Palmtree@@
PUBLIC	_CTA2?AVInsufficientBufferException@Internal@Core@Math@Palmtree@@
PUBLIC	??_R0?AVInsufficientBufferException@Internal@Core@Math@Palmtree@@@8 ; Palmtree::Math::Core::Internal::InsufficientBufferException `RTTI Type Descriptor'
PUBLIC	_CT??_R0?AVInsufficientBufferException@Internal@Core@Math@Palmtree@@@8??0InsufficientBufferException@Internal@Core@Math@Palmtree@@QEAA@AEBV01234@@Z48
PUBLIC	??_C@_1CO@JABAMCFP@?$PP?x?$AAM?$PP?$LM?$AA?$HP?$AAH?$PP?P?$PP?C?$PP?U?$PP?$KB?$AAn?$PP?$LF?$PP?$KE?$PP?$LK?$AAL?$AA?$AN@ ; `string'
PUBLIC	??_C@_1EK@OBHKPMHI@?$AAp?$AAm?$AAc?$AA_?$AAp?$AAa?$AAr?$AAs?$AAe?$AA?$DL?$AAP?$AAa?$AAr?$AAs?$AAe@ ; `string'
PUBLIC	??_C@_1EK@PDMPFDJG@?$AAp?$AAm?$AAc?$AA_?$AAp?$AAa?$AAr?$AAs?$AAe?$AA?$DL?$AAP?$AAa?$AAr?$AAs?$AAe@ ; `string'
PUBLIC	??_C@_1EK@ELHDDEPD@?$AAp?$AAm?$AAc?$AA_?$AAp?$AAa?$AAr?$AAs?$AAe?$AA?$DL?$AAP?$AAa?$AAr?$AAs?$AAe@ ; `string'
PUBLIC	??_C@_1EK@NGKEAMEK@?$AAp?$AAm?$AAc?$AA_?$AAp?$AAa?$AAr?$AAs?$AAe?$AA?$DL?$AAP?$AAa?$AAr?$AAs?$AAe@ ; `string'
PUBLIC	??_C@_1EK@GOBIGLCP@?$AAp?$AAm?$AAc?$AA_?$AAp?$AAa?$AAr?$AAs?$AAe?$AA?$DL?$AAP?$AAa?$AAr?$AAs?$AAe@ ; `string'
PUBLIC	??_C@_1EK@HMKNMEMB@?$AAp?$AAm?$AAc?$AA_?$AAp?$AAa?$AAr?$AAs?$AAe?$AA?$DL?$AAP?$AAa?$AAr?$AAs?$AAe@ ; `string'
PUBLIC	??_C@_1EK@MEBBKDKE@?$AAp?$AAm?$AAc?$AA_?$AAp?$AAa?$AAr?$AAs?$AAe?$AA?$DL?$AAP?$AAa?$AAr?$AAs?$AAe@ ; `string'
PUBLIC	??_C@_13JDNADJOG@?$PP?$KA@			; `string'
PUBLIC	??_C@_13HOIJIPNN@?$AA?5@			; `string'
PUBLIC	??_C@_13LLDNKHDC@?$AA?$CI@			; `string'
PUBLIC	??_C@_13DIBMAFH@?$AA?$CJ@			; `string'
PUBLIC	??_C@_1DG@OHPDJC@?$AAp?$AAm?$AAc?$AA_?$AAp?$AAa?$AAr?$AAs?$AAe?$AA?4?$AAc?$AAp?$AAp?$AA?$DL?$AAT@ ; `string'
PUBLIC	??_C@_1DG@BCFCFMHM@?$AAp?$AAm?$AAc?$AA_?$AAp?$AAa?$AAr?$AAs?$AAe?$AA?4?$AAc?$AAp?$AAp?$AA?$DL?$AAT@ ; `string'
PUBLIC	??_C@_1DG@KKOODLBJ@?$AAp?$AAm?$AAc?$AA_?$AAp?$AAa?$AAr?$AAs?$AAe?$AA?4?$AAc?$AAp?$AAp?$AA?$DL?$AAT@ ; `string'
PUBLIC	_TI2?AVArgumentException@Internal@Core@Math@Palmtree@@
PUBLIC	_CTA2?AVArgumentException@Internal@Core@Math@Palmtree@@
PUBLIC	??_R0?AVArgumentException@Internal@Core@Math@Palmtree@@@8 ; Palmtree::Math::Core::Internal::ArgumentException `RTTI Type Descriptor'
PUBLIC	_CT??_R0?AVArgumentException@Internal@Core@Math@Palmtree@@@8??0ArgumentException@Internal@Core@Math@Palmtree@@QEAA@AEBV01234@@Z48
PUBLIC	??_C@_1FG@MPGAEBOC@?$AA?$BF?$AAp?$AAn?$AAu?$AAm?$AAb?$AAe?$AAr?$AA_?$AAs?$AAt?$AAy?$AAl?$AAe?$AAs@ ; `string'
PUBLIC	_TI2?AVArgumentNullException@Internal@Core@Math@Palmtree@@
PUBLIC	_CTA2?AVArgumentNullException@Internal@Core@Math@Palmtree@@
PUBLIC	??_R0?AVArgumentNullException@Internal@Core@Math@Palmtree@@@8 ; Palmtree::Math::Core::Internal::ArgumentNullException `RTTI Type Descriptor'
PUBLIC	_CT??_R0?AVArgumentNullException@Internal@Core@Math@Palmtree@@@8??0ArgumentNullException@Internal@Core@Math@Palmtree@@QEAA@AEBV01234@@Z48
PUBLIC	??_C@_1O@JOABEBCL@?$AAs?$AAo?$AAu?$AAr?$AAc?$AAe@ ; `string'
PUBLIC	??_C@_1CK@ECFIEPAC@?$AA?$BF?$AAp?$AAk?$AAn?$AAu?$AAl?$AAl?$AAp?$AAt?$AAr?$AAL?$AA?$AO?$AAH?$PP?$IJ?$PP?$IM@ ; `string'
PUBLIC	??_C@_13LNPOMHLG@?$AAo@				; `string'
PUBLIC	??_C@_1O@KGDAECED@?$AAo?$AA_?$AAs?$AAi?$AAg?$AAn@ ; `string'
PUBLIC	??_C@_1M@LGAEBGCK@?$AAo?$AA_?$AAa?$AAb?$AAs@	; `string'
PUBLIC	??_R4exception@std@@6B@				; std::exception::`RTTI Complete Object Locator'
PUBLIC	??_R0?AVexception@std@@@8			; std::exception `RTTI Type Descriptor'
PUBLIC	??_R3exception@std@@8				; std::exception::`RTTI Class Hierarchy Descriptor'
PUBLIC	??_R2exception@std@@8				; std::exception::`RTTI Base Class Array'
PUBLIC	??_R1A@?0A@EA@exception@std@@8			; std::exception::`RTTI Base Class Descriptor at (0,-1,0,64)'
PUBLIC	??_R4Exception@Internal@Core@Math@Palmtree@@6B@	; Palmtree::Math::Core::Internal::Exception::`RTTI Complete Object Locator'
PUBLIC	??_R3Exception@Internal@Core@Math@Palmtree@@8	; Palmtree::Math::Core::Internal::Exception::`RTTI Class Hierarchy Descriptor'
PUBLIC	??_R2Exception@Internal@Core@Math@Palmtree@@8	; Palmtree::Math::Core::Internal::Exception::`RTTI Base Class Array'
PUBLIC	??_R1A@?0A@EA@Exception@Internal@Core@Math@Palmtree@@8 ; Palmtree::Math::Core::Internal::Exception::`RTTI Base Class Descriptor at (0,-1,0,64)'
PUBLIC	??_R1A@?0A@EN@exception@std@@8			; std::exception::`RTTI Base Class Descriptor at (0,-1,0,77)'
PUBLIC	??_R4ArgumentException@Internal@Core@Math@Palmtree@@6B@ ; Palmtree::Math::Core::Internal::ArgumentException::`RTTI Complete Object Locator'
PUBLIC	??_R3ArgumentException@Internal@Core@Math@Palmtree@@8 ; Palmtree::Math::Core::Internal::ArgumentException::`RTTI Class Hierarchy Descriptor'
PUBLIC	??_R2ArgumentException@Internal@Core@Math@Palmtree@@8 ; Palmtree::Math::Core::Internal::ArgumentException::`RTTI Base Class Array'
PUBLIC	??_R1A@?0A@EA@ArgumentException@Internal@Core@Math@Palmtree@@8 ; Palmtree::Math::Core::Internal::ArgumentException::`RTTI Base Class Descriptor at (0,-1,0,64)'
PUBLIC	??_R4ArgumentNullException@Internal@Core@Math@Palmtree@@6B@ ; Palmtree::Math::Core::Internal::ArgumentNullException::`RTTI Complete Object Locator'
PUBLIC	??_R3ArgumentNullException@Internal@Core@Math@Palmtree@@8 ; Palmtree::Math::Core::Internal::ArgumentNullException::`RTTI Class Hierarchy Descriptor'
PUBLIC	??_R2ArgumentNullException@Internal@Core@Math@Palmtree@@8 ; Palmtree::Math::Core::Internal::ArgumentNullException::`RTTI Base Class Array'
PUBLIC	??_R1A@?0A@EA@ArgumentNullException@Internal@Core@Math@Palmtree@@8 ; Palmtree::Math::Core::Internal::ArgumentNullException::`RTTI Base Class Descriptor at (0,-1,0,64)'
PUBLIC	??_R4InsufficientBufferException@Internal@Core@Math@Palmtree@@6B@ ; Palmtree::Math::Core::Internal::InsufficientBufferException::`RTTI Complete Object Locator'
PUBLIC	??_R3InsufficientBufferException@Internal@Core@Math@Palmtree@@8 ; Palmtree::Math::Core::Internal::InsufficientBufferException::`RTTI Class Hierarchy Descriptor'
PUBLIC	??_R2InsufficientBufferException@Internal@Core@Math@Palmtree@@8 ; Palmtree::Math::Core::Internal::InsufficientBufferException::`RTTI Base Class Array'
PUBLIC	??_R1A@?0A@EA@InsufficientBufferException@Internal@Core@Math@Palmtree@@8 ; Palmtree::Math::Core::Internal::InsufficientBufferException::`RTTI Base Class Descriptor at (0,-1,0,64)'
PUBLIC	??_R4InternalErrorException@Internal@Core@Math@Palmtree@@6B@ ; Palmtree::Math::Core::Internal::InternalErrorException::`RTTI Complete Object Locator'
PUBLIC	??_R3InternalErrorException@Internal@Core@Math@Palmtree@@8 ; Palmtree::Math::Core::Internal::InternalErrorException::`RTTI Class Hierarchy Descriptor'
PUBLIC	??_R2InternalErrorException@Internal@Core@Math@Palmtree@@8 ; Palmtree::Math::Core::Internal::InternalErrorException::`RTTI Base Class Array'
PUBLIC	??_R1A@?0A@EA@InternalErrorException@Internal@Core@Math@Palmtree@@8 ; Palmtree::Math::Core::Internal::InternalErrorException::`RTTI Base Class Descriptor at (0,-1,0,64)'
PUBLIC	??_R4StringReader@Internal@Core@Math@Palmtree@@6B@ ; Palmtree::Math::Core::Internal::StringReader::`RTTI Complete Object Locator'
PUBLIC	??_R0?AVStringReader@Internal@Core@Math@Palmtree@@@8 ; Palmtree::Math::Core::Internal::StringReader `RTTI Type Descriptor'
PUBLIC	??_R3StringReader@Internal@Core@Math@Palmtree@@8 ; Palmtree::Math::Core::Internal::StringReader::`RTTI Class Hierarchy Descriptor'
PUBLIC	??_R2StringReader@Internal@Core@Math@Palmtree@@8 ; Palmtree::Math::Core::Internal::StringReader::`RTTI Base Class Array'
PUBLIC	??_R1A@?0A@EA@StringReader@Internal@Core@Math@Palmtree@@8 ; Palmtree::Math::Core::Internal::StringReader::`RTTI Base Class Descriptor at (0,-1,0,64)'
PUBLIC	??_R4StringWriter@Internal@Core@Math@Palmtree@@6B@ ; Palmtree::Math::Core::Internal::StringWriter::`RTTI Complete Object Locator'
PUBLIC	??_R0?AVStringWriter@Internal@Core@Math@Palmtree@@@8 ; Palmtree::Math::Core::Internal::StringWriter `RTTI Type Descriptor'
PUBLIC	??_R3StringWriter@Internal@Core@Math@Palmtree@@8 ; Palmtree::Math::Core::Internal::StringWriter::`RTTI Class Hierarchy Descriptor'
PUBLIC	??_R2StringWriter@Internal@Core@Math@Palmtree@@8 ; Palmtree::Math::Core::Internal::StringWriter::`RTTI Base Class Array'
PUBLIC	??_R1A@?0A@EA@StringWriter@Internal@Core@Math@Palmtree@@8 ; Palmtree::Math::Core::Internal::StringWriter::`RTTI Base Class Descriptor at (0,-1,0,64)'
EXTRN	??3@YAXPEAX_K@Z:PROC				; operator delete
EXTRN	__imp_lstrcmpW:PROC
EXTRN	__imp_lstrcpyW:PROC
EXTRN	__imp_lstrlenW:PROC
EXTRN	__std_exception_destroy:PROC
EXTRN	??_Eexception@std@@UEAAPEAXI@Z:PROC		; std::exception::`vector deleting destructor'
EXTRN	??_EException@Internal@Core@Math@Palmtree@@UEAAPEAXI@Z:PROC ; Palmtree::Math::Core::Internal::Exception::`vector deleting destructor'
EXTRN	??_EArgumentException@Internal@Core@Math@Palmtree@@UEAAPEAXI@Z:PROC ; Palmtree::Math::Core::Internal::ArgumentException::`vector deleting destructor'
EXTRN	??_EArgumentNullException@Internal@Core@Math@Palmtree@@UEAAPEAXI@Z:PROC ; Palmtree::Math::Core::Internal::ArgumentNullException::`vector deleting destructor'
EXTRN	??_EInsufficientBufferException@Internal@Core@Math@Palmtree@@UEAAPEAXI@Z:PROC ; Palmtree::Math::Core::Internal::InsufficientBufferException::`vector deleting destructor'
EXTRN	??_EInternalErrorException@Internal@Core@Math@Palmtree@@UEAAPEAXI@Z:PROC ; Palmtree::Math::Core::Internal::InternalErrorException::`vector deleting destructor'
EXTRN	?CommitNumber@Internal@Core@Math@Palmtree@@YAXPEAU__tag_NUMBER_HEADER@1234@@Z:PROC ; Palmtree::Math::Core::Internal::CommitNumber
EXTRN	?CheckNumber@Internal@Core@Math@Palmtree@@YAXPEAU__tag_NUMBER_HEADER@1234@@Z:PROC ; Palmtree::Math::Core::Internal::CheckNumber
EXTRN	?InitializeNumberFormatoInfo@Internal@Core@Math@Palmtree@@YAXPEAU__tag_PMC_NUMBER_FORMAT_INFO@1234@@Z:PROC ; Palmtree::Math::Core::Internal::InitializeNumberFormatoInfo
EXTRN	??0ResourceHolderUINT@Internal@Core@Math@Palmtree@@QEAA@XZ:PROC ; Palmtree::Math::Core::Internal::ResourceHolderUINT::ResourceHolderUINT
EXTRN	??1ResourceHolderUINT@Internal@Core@Math@Palmtree@@UEAA@XZ:PROC ; Palmtree::Math::Core::Internal::ResourceHolderUINT::~ResourceHolderUINT
EXTRN	?AllocateBlock@ResourceHolderUINT@Internal@Core@Math@Palmtree@@QEAAPEA_K_K@Z:PROC ; Palmtree::Math::Core::Internal::ResourceHolderUINT::AllocateBlock
EXTRN	?DeallocateBlock@ResourceHolderUINT@Internal@Core@Math@Palmtree@@QEAAXPEA_K@Z:PROC ; Palmtree::Math::Core::Internal::ResourceHolderUINT::DeallocateBlock
EXTRN	?CheckBlock@ResourceHolderUINT@Internal@Core@Math@Palmtree@@QEAAXPEA_K@Z:PROC ; Palmtree::Math::Core::Internal::ResourceHolderUINT::CheckBlock
EXTRN	?AllocateString@ResourceHolderUINT@Internal@Core@Math@Palmtree@@QEAAPEA_W_K@Z:PROC ; Palmtree::Math::Core::Internal::ResourceHolderUINT::AllocateString
EXTRN	?DeallocateString@ResourceHolderUINT@Internal@Core@Math@Palmtree@@QEAAXPEA_W@Z:PROC ; Palmtree::Math::Core::Internal::ResourceHolderUINT::DeallocateString
EXTRN	?CheckString@ResourceHolderUINT@Internal@Core@Math@Palmtree@@QEAAXPEA_W@Z:PROC ; Palmtree::Math::Core::Internal::ResourceHolderUINT::CheckString
EXTRN	?AllocateNumber@ResourceHolderUINT@Internal@Core@Math@Palmtree@@QEAAPEAU__tag_NUMBER_HEADER@2345@_K@Z:PROC ; Palmtree::Math::Core::Internal::ResourceHolderUINT::AllocateNumber
EXTRN	?HookNumber@ResourceHolderUINT@Internal@Core@Math@Palmtree@@QEAAXPEAU__tag_NUMBER_HEADER@2345@@Z:PROC ; Palmtree::Math::Core::Internal::ResourceHolderUINT::HookNumber
EXTRN	?DeallocateNumber@ResourceHolderUINT@Internal@Core@Math@Palmtree@@QEAAXPEAU__tag_NUMBER_HEADER@2345@@Z:PROC ; Palmtree::Math::Core::Internal::ResourceHolderUINT::DeallocateNumber
EXTRN	?CheckNumber@ResourceHolderUINT@Internal@Core@Math@Palmtree@@QEAAXPEAU__tag_NUMBER_HEADER@2345@@Z:PROC ; Palmtree::Math::Core::Internal::ResourceHolderUINT::CheckNumber
EXTRN	?UnlinkNumber@ResourceHolderUINT@Internal@Core@Math@Palmtree@@QEAAXPEAU__tag_NUMBER_HEADER@2345@@Z:PROC ; Palmtree::Math::Core::Internal::ResourceHolderUINT::UnlinkNumber
EXTRN	_CxxThrowException:PROC
EXTRN	_RTC_CheckStackVars:PROC
EXTRN	_RTC_InitBase:PROC
EXTRN	_RTC_Shutdown:PROC
EXTRN	__CheckForDebuggerJustMyCode:PROC
EXTRN	__CxxFrameHandler3:PROC
EXTRN	__GSHandlerCheck_EH:PROC
EXTRN	__security_check_cookie:PROC
EXTRN	??_7type_info@@6B@:BYTE				; type_info::`vftable'
EXTRN	?number_zero@Internal@Core@Math@Palmtree@@3U__tag_NUMBER_HEADER@1234@A:BYTE ; Palmtree::Math::Core::Internal::number_zero
EXTRN	?statistics_info@Internal@Core@Math@Palmtree@@3U__tag_PMC_STATISTICS_INFO@1234@A:BYTE ; Palmtree::Math::Core::Internal::statistics_info
EXTRN	__security_cookie:QWORD
_BSS	SEGMENT
?default_number_format_option@Internal@Core@Math@Palmtree@@3U__tag_PMC_NUMBER_FORMAT_INFO@1234@A DB 01e4H DUP (?) ; Palmtree::Math::Core::Internal::default_number_format_option
	ALIGN	8

?fp_MultiplyAndAdd@Internal@Core@Math@Palmtree@@3P6APEA_KPEA_K_K1@ZEA DQ 01H DUP (?) ; Palmtree::Math::Core::Internal::fp_MultiplyAndAdd
_BSS	ENDS
;	COMDAT pdata
pdata	SEGMENT
$pdata$??0exception@std@@QEAA@XZ DD imagerel $LN3
	DD	imagerel $LN3+123
	DD	imagerel $unwind$??0exception@std@@QEAA@XZ
pdata	ENDS
;	COMDAT pdata
pdata	SEGMENT
$pdata$??1exception@std@@UEAA@XZ DD imagerel $LN3
	DD	imagerel $LN3+113
	DD	imagerel $unwind$??1exception@std@@UEAA@XZ
pdata	ENDS
;	COMDAT pdata
pdata	SEGMENT
$pdata$?what@exception@std@@UEBAPEBDXZ DD imagerel $LN5
	DD	imagerel $LN5+119
	DD	imagerel $unwind$?what@exception@std@@UEBAPEBDXZ
pdata	ENDS
;	COMDAT pdata
pdata	SEGMENT
$pdata$??_Gexception@std@@UEAAPEAXI@Z DD imagerel $LN4
	DD	imagerel $LN4+105
	DD	imagerel $unwind$??_Gexception@std@@UEAAPEAXI@Z
pdata	ENDS
;	COMDAT pdata
pdata	SEGMENT
$pdata$??0Exception@Internal@Core@Math@Palmtree@@IEAA@HPEB_W@Z DD imagerel $LN4
	DD	imagerel $LN4+171
	DD	imagerel $unwind$??0Exception@Internal@Core@Math@Palmtree@@IEAA@HPEB_W@Z
pdata	ENDS
;	COMDAT pdata
pdata	SEGMENT
$pdata$?dtor$0@?0???0Exception@Internal@Core@Math@Palmtree@@IEAA@HPEB_W@Z@4HA DD imagerel ?dtor$0@?0???0Exception@Internal@Core@Math@Palmtree@@IEAA@HPEB_W@Z@4HA
	DD	imagerel ?dtor$0@?0???0Exception@Internal@Core@Math@Palmtree@@IEAA@HPEB_W@Z@4HA+39
	DD	imagerel $unwind$?dtor$0@?0???0Exception@Internal@Core@Math@Palmtree@@IEAA@HPEB_W@Z@4HA
pdata	ENDS
;	COMDAT pdata
pdata	SEGMENT
$pdata$??0Exception@Internal@Core@Math@Palmtree@@IEAA@HPEB_W0@Z DD imagerel $LN4
	DD	imagerel $LN4+179
	DD	imagerel $unwind$??0Exception@Internal@Core@Math@Palmtree@@IEAA@HPEB_W0@Z
pdata	ENDS
;	COMDAT pdata
pdata	SEGMENT
$pdata$?dtor$0@?0???0Exception@Internal@Core@Math@Palmtree@@IEAA@HPEB_W0@Z@4HA DD imagerel ?dtor$0@?0???0Exception@Internal@Core@Math@Palmtree@@IEAA@HPEB_W0@Z@4HA
	DD	imagerel ?dtor$0@?0???0Exception@Internal@Core@Math@Palmtree@@IEAA@HPEB_W0@Z@4HA+39
	DD	imagerel $unwind$?dtor$0@?0???0Exception@Internal@Core@Math@Palmtree@@IEAA@HPEB_W0@Z@4HA
pdata	ENDS
;	COMDAT pdata
pdata	SEGMENT
$pdata$??0Exception@Internal@Core@Math@Palmtree@@QEAA@AEBV01234@@Z DD imagerel $LN4
	DD	imagerel $LN4+182
	DD	imagerel $unwind$??0Exception@Internal@Core@Math@Palmtree@@QEAA@AEBV01234@@Z
pdata	ENDS
;	COMDAT pdata
pdata	SEGMENT
$pdata$?dtor$0@?0???0Exception@Internal@Core@Math@Palmtree@@QEAA@AEBV01234@@Z@4HA DD imagerel ?dtor$0@?0???0Exception@Internal@Core@Math@Palmtree@@QEAA@AEBV01234@@Z@4HA
	DD	imagerel ?dtor$0@?0???0Exception@Internal@Core@Math@Palmtree@@QEAA@AEBV01234@@Z@4HA+39
	DD	imagerel $unwind$?dtor$0@?0???0Exception@Internal@Core@Math@Palmtree@@QEAA@AEBV01234@@Z@4HA
pdata	ENDS
;	COMDAT pdata
pdata	SEGMENT
$pdata$??1Exception@Internal@Core@Math@Palmtree@@UEAA@XZ DD imagerel $LN4
	DD	imagerel $LN4+106
	DD	imagerel $unwind$??1Exception@Internal@Core@Math@Palmtree@@UEAA@XZ
pdata	ENDS
;	COMDAT pdata
pdata	SEGMENT
$pdata$?dtor$0@?0???1Exception@Internal@Core@Math@Palmtree@@UEAA@XZ@4HA DD imagerel ?dtor$0@?0???1Exception@Internal@Core@Math@Palmtree@@UEAA@XZ@4HA
	DD	imagerel ?dtor$0@?0???1Exception@Internal@Core@Math@Palmtree@@UEAA@XZ@4HA+39
	DD	imagerel $unwind$?dtor$0@?0???1Exception@Internal@Core@Math@Palmtree@@UEAA@XZ@4HA
pdata	ENDS
;	COMDAT pdata
pdata	SEGMENT
$pdata$??_GException@Internal@Core@Math@Palmtree@@UEAAPEAXI@Z DD imagerel $LN4
	DD	imagerel $LN4+105
	DD	imagerel $unwind$??_GException@Internal@Core@Math@Palmtree@@UEAAPEAXI@Z
pdata	ENDS
;	COMDAT pdata
pdata	SEGMENT
$pdata$??0ArgumentException@Internal@Core@Math@Palmtree@@QEAA@PEB_W@Z DD imagerel $LN4
	DD	imagerel $LN4+130
	DD	imagerel $unwind$??0ArgumentException@Internal@Core@Math@Palmtree@@QEAA@PEB_W@Z
pdata	ENDS
;	COMDAT pdata
pdata	SEGMENT
$pdata$?dtor$0@?0???0ArgumentException@Internal@Core@Math@Palmtree@@QEAA@PEB_W@Z@4HA DD imagerel ?dtor$0@?0???0ArgumentException@Internal@Core@Math@Palmtree@@QEAA@PEB_W@Z@4HA
	DD	imagerel ?dtor$0@?0???0ArgumentException@Internal@Core@Math@Palmtree@@QEAA@PEB_W@Z@4HA+39
	DD	imagerel $unwind$?dtor$0@?0???0ArgumentException@Internal@Core@Math@Palmtree@@QEAA@PEB_W@Z@4HA
pdata	ENDS
;	COMDAT pdata
pdata	SEGMENT
$pdata$??0ArgumentException@Internal@Core@Math@Palmtree@@QEAA@AEBV01234@@Z DD imagerel $LN4
	DD	imagerel $LN4+125
	DD	imagerel $unwind$??0ArgumentException@Internal@Core@Math@Palmtree@@QEAA@AEBV01234@@Z
pdata	ENDS
;	COMDAT pdata
pdata	SEGMENT
$pdata$?dtor$0@?0???0ArgumentException@Internal@Core@Math@Palmtree@@QEAA@AEBV01234@@Z@4HA DD imagerel ?dtor$0@?0???0ArgumentException@Internal@Core@Math@Palmtree@@QEAA@AEBV01234@@Z@4HA
	DD	imagerel ?dtor$0@?0???0ArgumentException@Internal@Core@Math@Palmtree@@QEAA@AEBV01234@@Z@4HA+39
	DD	imagerel $unwind$?dtor$0@?0???0ArgumentException@Internal@Core@Math@Palmtree@@QEAA@AEBV01234@@Z@4HA
pdata	ENDS
;	COMDAT pdata
pdata	SEGMENT
$pdata$??1ArgumentException@Internal@Core@Math@Palmtree@@UEAA@XZ DD imagerel $LN4
	DD	imagerel $LN4+106
	DD	imagerel $unwind$??1ArgumentException@Internal@Core@Math@Palmtree@@UEAA@XZ
pdata	ENDS
;	COMDAT pdata
pdata	SEGMENT
$pdata$?dtor$0@?0???1ArgumentException@Internal@Core@Math@Palmtree@@UEAA@XZ@4HA DD imagerel ?dtor$0@?0???1ArgumentException@Internal@Core@Math@Palmtree@@UEAA@XZ@4HA
	DD	imagerel ?dtor$0@?0???1ArgumentException@Internal@Core@Math@Palmtree@@UEAA@XZ@4HA+39
	DD	imagerel $unwind$?dtor$0@?0???1ArgumentException@Internal@Core@Math@Palmtree@@UEAA@XZ@4HA
pdata	ENDS
;	COMDAT pdata
pdata	SEGMENT
$pdata$??_GArgumentException@Internal@Core@Math@Palmtree@@UEAAPEAXI@Z DD imagerel $LN4
	DD	imagerel $LN4+105
	DD	imagerel $unwind$??_GArgumentException@Internal@Core@Math@Palmtree@@UEAAPEAXI@Z
pdata	ENDS
;	COMDAT pdata
pdata	SEGMENT
$pdata$??0ArgumentNullException@Internal@Core@Math@Palmtree@@QEAA@PEB_W0@Z DD imagerel $LN4
	DD	imagerel $LN4+142
	DD	imagerel $unwind$??0ArgumentNullException@Internal@Core@Math@Palmtree@@QEAA@PEB_W0@Z
pdata	ENDS
;	COMDAT pdata
pdata	SEGMENT
$pdata$?dtor$0@?0???0ArgumentNullException@Internal@Core@Math@Palmtree@@QEAA@PEB_W0@Z@4HA DD imagerel ?dtor$0@?0???0ArgumentNullException@Internal@Core@Math@Palmtree@@QEAA@PEB_W0@Z@4HA
	DD	imagerel ?dtor$0@?0???0ArgumentNullException@Internal@Core@Math@Palmtree@@QEAA@PEB_W0@Z@4HA+39
	DD	imagerel $unwind$?dtor$0@?0???0ArgumentNullException@Internal@Core@Math@Palmtree@@QEAA@PEB_W0@Z@4HA
pdata	ENDS
;	COMDAT pdata
pdata	SEGMENT
$pdata$??0ArgumentNullException@Internal@Core@Math@Palmtree@@QEAA@AEBV01234@@Z DD imagerel $LN4
	DD	imagerel $LN4+125
	DD	imagerel $unwind$??0ArgumentNullException@Internal@Core@Math@Palmtree@@QEAA@AEBV01234@@Z
pdata	ENDS
;	COMDAT pdata
pdata	SEGMENT
$pdata$?dtor$0@?0???0ArgumentNullException@Internal@Core@Math@Palmtree@@QEAA@AEBV01234@@Z@4HA DD imagerel ?dtor$0@?0???0ArgumentNullException@Internal@Core@Math@Palmtree@@QEAA@AEBV01234@@Z@4HA
	DD	imagerel ?dtor$0@?0???0ArgumentNullException@Internal@Core@Math@Palmtree@@QEAA@AEBV01234@@Z@4HA+39
	DD	imagerel $unwind$?dtor$0@?0???0ArgumentNullException@Internal@Core@Math@Palmtree@@QEAA@AEBV01234@@Z@4HA
pdata	ENDS
;	COMDAT pdata
pdata	SEGMENT
$pdata$??1ArgumentNullException@Internal@Core@Math@Palmtree@@UEAA@XZ DD imagerel $LN4
	DD	imagerel $LN4+106
	DD	imagerel $unwind$??1ArgumentNullException@Internal@Core@Math@Palmtree@@UEAA@XZ
pdata	ENDS
;	COMDAT pdata
pdata	SEGMENT
$pdata$?dtor$0@?0???1ArgumentNullException@Internal@Core@Math@Palmtree@@UEAA@XZ@4HA DD imagerel ?dtor$0@?0???1ArgumentNullException@Internal@Core@Math@Palmtree@@UEAA@XZ@4HA
	DD	imagerel ?dtor$0@?0???1ArgumentNullException@Internal@Core@Math@Palmtree@@UEAA@XZ@4HA+39
	DD	imagerel $unwind$?dtor$0@?0???1ArgumentNullException@Internal@Core@Math@Palmtree@@UEAA@XZ@4HA
pdata	ENDS
;	COMDAT pdata
pdata	SEGMENT
$pdata$??_GArgumentNullException@Internal@Core@Math@Palmtree@@UEAAPEAXI@Z DD imagerel $LN4
	DD	imagerel $LN4+105
	DD	imagerel $unwind$??_GArgumentNullException@Internal@Core@Math@Palmtree@@UEAAPEAXI@Z
pdata	ENDS
;	COMDAT pdata
pdata	SEGMENT
$pdata$??0InsufficientBufferException@Internal@Core@Math@Palmtree@@QEAA@PEB_W@Z DD imagerel $LN4
	DD	imagerel $LN4+129
	DD	imagerel $unwind$??0InsufficientBufferException@Internal@Core@Math@Palmtree@@QEAA@PEB_W@Z
pdata	ENDS
;	COMDAT pdata
pdata	SEGMENT
$pdata$?dtor$0@?0???0InsufficientBufferException@Internal@Core@Math@Palmtree@@QEAA@PEB_W@Z@4HA DD imagerel ?dtor$0@?0???0InsufficientBufferException@Internal@Core@Math@Palmtree@@QEAA@PEB_W@Z@4HA
	DD	imagerel ?dtor$0@?0???0InsufficientBufferException@Internal@Core@Math@Palmtree@@QEAA@PEB_W@Z@4HA+39
	DD	imagerel $unwind$?dtor$0@?0???0InsufficientBufferException@Internal@Core@Math@Palmtree@@QEAA@PEB_W@Z@4HA
pdata	ENDS
;	COMDAT pdata
pdata	SEGMENT
$pdata$??0InsufficientBufferException@Internal@Core@Math@Palmtree@@QEAA@AEBV01234@@Z DD imagerel $LN4
	DD	imagerel $LN4+125
	DD	imagerel $unwind$??0InsufficientBufferException@Internal@Core@Math@Palmtree@@QEAA@AEBV01234@@Z
pdata	ENDS
;	COMDAT pdata
pdata	SEGMENT
$pdata$?dtor$0@?0???0InsufficientBufferException@Internal@Core@Math@Palmtree@@QEAA@AEBV01234@@Z@4HA DD imagerel ?dtor$0@?0???0InsufficientBufferException@Internal@Core@Math@Palmtree@@QEAA@AEBV01234@@Z@4HA
	DD	imagerel ?dtor$0@?0???0InsufficientBufferException@Internal@Core@Math@Palmtree@@QEAA@AEBV01234@@Z@4HA+39
	DD	imagerel $unwind$?dtor$0@?0???0InsufficientBufferException@Internal@Core@Math@Palmtree@@QEAA@AEBV01234@@Z@4HA
pdata	ENDS
;	COMDAT pdata
pdata	SEGMENT
$pdata$??1InsufficientBufferException@Internal@Core@Math@Palmtree@@UEAA@XZ DD imagerel $LN4
	DD	imagerel $LN4+106
	DD	imagerel $unwind$??1InsufficientBufferException@Internal@Core@Math@Palmtree@@UEAA@XZ
pdata	ENDS
;	COMDAT pdata
pdata	SEGMENT
$pdata$?dtor$0@?0???1InsufficientBufferException@Internal@Core@Math@Palmtree@@UEAA@XZ@4HA DD imagerel ?dtor$0@?0???1InsufficientBufferException@Internal@Core@Math@Palmtree@@UEAA@XZ@4HA
	DD	imagerel ?dtor$0@?0???1InsufficientBufferException@Internal@Core@Math@Palmtree@@UEAA@XZ@4HA+39
	DD	imagerel $unwind$?dtor$0@?0???1InsufficientBufferException@Internal@Core@Math@Palmtree@@UEAA@XZ@4HA
pdata	ENDS
;	COMDAT pdata
pdata	SEGMENT
$pdata$??_GInsufficientBufferException@Internal@Core@Math@Palmtree@@UEAAPEAXI@Z DD imagerel $LN4
	DD	imagerel $LN4+105
	DD	imagerel $unwind$??_GInsufficientBufferException@Internal@Core@Math@Palmtree@@UEAAPEAXI@Z
pdata	ENDS
;	COMDAT pdata
pdata	SEGMENT
$pdata$??0InternalErrorException@Internal@Core@Math@Palmtree@@QEAA@PEB_W0@Z DD imagerel $LN4
	DD	imagerel $LN4+142
	DD	imagerel $unwind$??0InternalErrorException@Internal@Core@Math@Palmtree@@QEAA@PEB_W0@Z
pdata	ENDS
;	COMDAT pdata
pdata	SEGMENT
$pdata$?dtor$0@?0???0InternalErrorException@Internal@Core@Math@Palmtree@@QEAA@PEB_W0@Z@4HA DD imagerel ?dtor$0@?0???0InternalErrorException@Internal@Core@Math@Palmtree@@QEAA@PEB_W0@Z@4HA
	DD	imagerel ?dtor$0@?0???0InternalErrorException@Internal@Core@Math@Palmtree@@QEAA@PEB_W0@Z@4HA+39
	DD	imagerel $unwind$?dtor$0@?0???0InternalErrorException@Internal@Core@Math@Palmtree@@QEAA@PEB_W0@Z@4HA
pdata	ENDS
;	COMDAT pdata
pdata	SEGMENT
$pdata$??0InternalErrorException@Internal@Core@Math@Palmtree@@QEAA@AEBV01234@@Z DD imagerel $LN4
	DD	imagerel $LN4+125
	DD	imagerel $unwind$??0InternalErrorException@Internal@Core@Math@Palmtree@@QEAA@AEBV01234@@Z
pdata	ENDS
;	COMDAT pdata
pdata	SEGMENT
$pdata$?dtor$0@?0???0InternalErrorException@Internal@Core@Math@Palmtree@@QEAA@AEBV01234@@Z@4HA DD imagerel ?dtor$0@?0???0InternalErrorException@Internal@Core@Math@Palmtree@@QEAA@AEBV01234@@Z@4HA
	DD	imagerel ?dtor$0@?0???0InternalErrorException@Internal@Core@Math@Palmtree@@QEAA@AEBV01234@@Z@4HA+39
	DD	imagerel $unwind$?dtor$0@?0???0InternalErrorException@Internal@Core@Math@Palmtree@@QEAA@AEBV01234@@Z@4HA
pdata	ENDS
;	COMDAT pdata
pdata	SEGMENT
$pdata$??1InternalErrorException@Internal@Core@Math@Palmtree@@UEAA@XZ DD imagerel $LN4
	DD	imagerel $LN4+106
	DD	imagerel $unwind$??1InternalErrorException@Internal@Core@Math@Palmtree@@UEAA@XZ
pdata	ENDS
;	COMDAT pdata
pdata	SEGMENT
$pdata$?dtor$0@?0???1InternalErrorException@Internal@Core@Math@Palmtree@@UEAA@XZ@4HA DD imagerel ?dtor$0@?0???1InternalErrorException@Internal@Core@Math@Palmtree@@UEAA@XZ@4HA
	DD	imagerel ?dtor$0@?0???1InternalErrorException@Internal@Core@Math@Palmtree@@UEAA@XZ@4HA+39
	DD	imagerel $unwind$?dtor$0@?0???1InternalErrorException@Internal@Core@Math@Palmtree@@UEAA@XZ@4HA
pdata	ENDS
;	COMDAT pdata
pdata	SEGMENT
$pdata$??_GInternalErrorException@Internal@Core@Math@Palmtree@@UEAAPEAXI@Z DD imagerel $LN4
	DD	imagerel $LN4+105
	DD	imagerel $unwind$??_GInternalErrorException@Internal@Core@Math@Palmtree@@UEAAPEAXI@Z
pdata	ENDS
;	COMDAT pdata
pdata	SEGMENT
$pdata$??0StringReader@Internal@Core@Math@Palmtree@@QEAA@PEB_W@Z DD imagerel $LN3
	DD	imagerel $LN3+111
	DD	imagerel $unwind$??0StringReader@Internal@Core@Math@Palmtree@@QEAA@PEB_W@Z
pdata	ENDS
;	COMDAT pdata
pdata	SEGMENT
$pdata$?PeekChar@StringReader@Internal@Core@Math@Palmtree@@UEAA_WXZ DD imagerel $LN3
	DD	imagerel $LN3+78
	DD	imagerel $unwind$?PeekChar@StringReader@Internal@Core@Math@Palmtree@@UEAA_WXZ
pdata	ENDS
;	COMDAT pdata
pdata	SEGMENT
$pdata$?Progress@StringReader@Internal@Core@Math@Palmtree@@UEAAXXZ DD imagerel $LN4
	DD	imagerel $LN4+153
	DD	imagerel $unwind$?Progress@StringReader@Internal@Core@Math@Palmtree@@UEAAXXZ
pdata	ENDS
;	COMDAT pdata
pdata	SEGMENT
$pdata$?StartsWith@StringReader@Internal@Core@Math@Palmtree@@UEAAHPEB_W@Z DD imagerel $LN3
	DD	imagerel $LN3+92
	DD	imagerel $unwind$?StartsWith@StringReader@Internal@Core@Math@Palmtree@@UEAAHPEB_W@Z
pdata	ENDS
;	COMDAT pdata
pdata	SEGMENT
$pdata$?SkipSpace@StringReader@Internal@Core@Math@Palmtree@@QEAAXXZ DD imagerel $LN10
	DD	imagerel $LN10+147
	DD	imagerel $unwind$?SkipSpace@StringReader@Internal@Core@Math@Palmtree@@QEAAXXZ
pdata	ENDS
;	COMDAT pdata
pdata	SEGMENT
$pdata$?SkipString@StringReader@Internal@Core@Math@Palmtree@@UEAAXPEB_W@Z DD imagerel $LN4
	DD	imagerel $LN4+215
	DD	imagerel $unwind$?SkipString@StringReader@Internal@Core@Math@Palmtree@@UEAAXPEB_W@Z
pdata	ENDS
;	COMDAT pdata
pdata	SEGMENT
$pdata$?StartsWith@StringReader@Internal@Core@Math@Palmtree@@CAHPEB_W0@Z DD imagerel $LN6
	DD	imagerel $LN6+154
	DD	imagerel $unwind$?StartsWith@StringReader@Internal@Core@Math@Palmtree@@CAHPEB_W0@Z
pdata	ENDS
;	COMDAT pdata
pdata	SEGMENT
$pdata$??0StringWriter@Internal@Core@Math@Palmtree@@IEAA@PEA_W00@Z DD imagerel $LN3
	DD	imagerel $LN3+172
	DD	imagerel $unwind$??0StringWriter@Internal@Core@Math@Palmtree@@IEAA@PEA_W00@Z
pdata	ENDS
;	COMDAT pdata
pdata	SEGMENT
$pdata$??0StringWriter@Internal@Core@Math@Palmtree@@QEAA@PEA_W_K@Z DD imagerel $LN5
	DD	imagerel $LN5+179
	DD	imagerel $unwind$??0StringWriter@Internal@Core@Math@Palmtree@@QEAA@PEA_W_K@Z
pdata	ENDS
;	COMDAT pdata
pdata	SEGMENT
$pdata$?Write@StringWriter@Internal@Core@Math@Palmtree@@UEAAX_W@Z DD imagerel $LN5
	DD	imagerel $LN5+241
	DD	imagerel $unwind$?Write@StringWriter@Internal@Core@Math@Palmtree@@UEAAX_W@Z
pdata	ENDS
;	COMDAT pdata
pdata	SEGMENT
$pdata$?Write@StringWriter@Internal@Core@Math@Palmtree@@UEAAXPEB_W@Z DD imagerel $LN5
	DD	imagerel $LN5+147
	DD	imagerel $unwind$?Write@StringWriter@Internal@Core@Math@Palmtree@@UEAAXPEB_W@Z
pdata	ENDS
;	COMDAT pdata
pdata	SEGMENT
$pdata$?GetString@StringWriter@Internal@Core@Math@Palmtree@@UEAAPEA_WXZ DD imagerel $LN3
	DD	imagerel $LN3+75
	DD	imagerel $unwind$?GetString@StringWriter@Internal@Core@Math@Palmtree@@UEAAPEA_WXZ
pdata	ENDS
;	COMDAT pdata
pdata	SEGMENT
$pdata$?Initialize_Parse@Internal@Core@Math@Palmtree@@YAHPEAU_tag_PROCESSOR_FEATURES@1234@@Z DD imagerel $LN5
	DD	imagerel $LN5+145
	DD	imagerel $unwind$?Initialize_Parse@Internal@Core@Math@Palmtree@@YAHPEAU_tag_PROCESSOR_FEATURES@1234@@Z
pdata	ENDS
;	COMDAT pdata
pdata	SEGMENT
$pdata$?PMC_TryParse@Internal@Core@Math@Palmtree@@YAHPEB_WHPEBU__tag_PMC_NUMBER_FORMAT_INFO@1234@PEAPEAU__tag_PMC_HANDLE_UINT@1234@PEAI@Z DD imagerel $LN11
	DD	imagerel $LN11+500
	DD	imagerel $unwind$?PMC_TryParse@Internal@Core@Math@Palmtree@@YAHPEB_WHPEBU__tag_PMC_NUMBER_FORMAT_INFO@1234@PEAPEAU__tag_PMC_HANDLE_UINT@1234@PEAI@Z
pdata	ENDS
;	COMDAT pdata
pdata	SEGMENT
$pdata$?dtor$0@?0??PMC_TryParse@Internal@Core@Math@Palmtree@@YAHPEB_WHPEBU__tag_PMC_NUMBER_FORMAT_INFO@1234@PEAPEAU__tag_PMC_HANDLE_UINT@1234@PEAI@Z@4HA DD imagerel ?dtor$0@?0??PMC_TryParse@Internal@Core@Math@Palmtree@@YAHPEB_WHPEBU__tag_PMC_NUMBER_FORMAT_INFO@1234@PEAPEAU__tag_PMC_HANDLE_UINT@1234@PEAI@Z@4HA
	DD	imagerel ?dtor$0@?0??PMC_TryParse@Internal@Core@Math@Palmtree@@YAHPEB_WHPEBU__tag_PMC_NUMBER_FORMAT_INFO@1234@PEAPEAU__tag_PMC_HANDLE_UINT@1234@PEAI@Z@4HA+36
	DD	imagerel $unwind$?dtor$0@?0??PMC_TryParse@Internal@Core@Math@Palmtree@@YAHPEB_WHPEBU__tag_PMC_NUMBER_FORMAT_INFO@1234@PEAPEAU__tag_PMC_HANDLE_UINT@1234@PEAI@Z@4HA
pdata	ENDS
;	COMDAT pdata
pdata	SEGMENT
$pdata$?PMC_TryParseForSINT@Internal@Core@Math@Palmtree@@YAHPEB_WHPEBU__tag_PMC_NUMBER_FORMAT_INFO@1234@PEADPEAPEAU__tag_PMC_HANDLE_UINT@1234@PEAI@Z DD imagerel $LN8
	DD	imagerel $LN8+398
	DD	imagerel $unwind$?PMC_TryParseForSINT@Internal@Core@Math@Palmtree@@YAHPEB_WHPEBU__tag_PMC_NUMBER_FORMAT_INFO@1234@PEADPEAPEAU__tag_PMC_HANDLE_UINT@1234@PEAI@Z
pdata	ENDS
;	COMDAT pdata
pdata	SEGMENT
$pdata$?IncrementMULTI32Counter@Internal@Core@Math@Palmtree@@YAXXZ DD imagerel ?IncrementMULTI32Counter@Internal@Core@Math@Palmtree@@YAXXZ
	DD	imagerel ?IncrementMULTI32Counter@Internal@Core@Math@Palmtree@@YAXXZ+62
	DD	imagerel $unwind$?IncrementMULTI32Counter@Internal@Core@Math@Palmtree@@YAXXZ
pdata	ENDS
;	COMDAT pdata
pdata	SEGMENT
$pdata$?IncrementMULTI64Counter@Internal@Core@Math@Palmtree@@YAXXZ DD imagerel ?IncrementMULTI64Counter@Internal@Core@Math@Palmtree@@YAXXZ
	DD	imagerel ?IncrementMULTI64Counter@Internal@Core@Math@Palmtree@@YAXXZ+62
	DD	imagerel $unwind$?IncrementMULTI64Counter@Internal@Core@Math@Palmtree@@YAXXZ
pdata	ENDS
;	COMDAT pdata
pdata	SEGMENT
$pdata$?AddToMULTI32Counter@Internal@Core@Math@Palmtree@@YAXH@Z DD imagerel ?AddToMULTI32Counter@Internal@Core@Math@Palmtree@@YAXH@Z
	DD	imagerel ?AddToMULTI32Counter@Internal@Core@Math@Palmtree@@YAXH@Z+78
	DD	imagerel $unwind$?AddToMULTI32Counter@Internal@Core@Math@Palmtree@@YAXH@Z
pdata	ENDS
;	COMDAT pdata
pdata	SEGMENT
$pdata$?AddToMULTI64Counter@Internal@Core@Math@Palmtree@@YAXH@Z DD imagerel ?AddToMULTI64Counter@Internal@Core@Math@Palmtree@@YAXH@Z
	DD	imagerel ?AddToMULTI64Counter@Internal@Core@Math@Palmtree@@YAXH@Z+78
	DD	imagerel $unwind$?AddToMULTI64Counter@Internal@Core@Math@Palmtree@@YAXH@Z
pdata	ENDS
;	COMDAT pdata
pdata	SEGMENT
$pdata$_COPY_MEMORY_UNIT DD imagerel _COPY_MEMORY_UNIT
	DD	imagerel _COPY_MEMORY_UNIT+100
	DD	imagerel $unwind$_COPY_MEMORY_UNIT
pdata	ENDS
;	COMDAT pdata
pdata	SEGMENT
$pdata$_DIVIDE_CEILING_UNIT DD imagerel _DIVIDE_CEILING_UNIT
	DD	imagerel _DIVIDE_CEILING_UNIT+97
	DD	imagerel $unwind$_DIVIDE_CEILING_UNIT
pdata	ENDS
;	COMDAT pdata
pdata	SEGMENT
$pdata$_DIVIDE_CEILING_SIZE DD imagerel _DIVIDE_CEILING_SIZE
	DD	imagerel _DIVIDE_CEILING_SIZE+97
	DD	imagerel $unwind$_DIVIDE_CEILING_SIZE
pdata	ENDS
;	COMDAT pdata
pdata	SEGMENT
$pdata$_ADD_UNIT DD imagerel _ADD_UNIT
	DD	imagerel _ADD_UNIT+118
	DD	imagerel $unwind$_ADD_UNIT
pdata	ENDS
;	COMDAT pdata
pdata	SEGMENT
$pdata$_ADDX_UNIT DD imagerel _ADDX_UNIT
	DD	imagerel _ADDX_UNIT+121
	DD	imagerel $unwind$_ADDX_UNIT
pdata	ENDS
;	COMDAT pdata
pdata	SEGMENT
$pdata$_MULTIPLY_UNIT DD imagerel _MULTIPLY_UNIT
	DD	imagerel _MULTIPLY_UNIT+118
	DD	imagerel $unwind$_MULTIPLY_UNIT
pdata	ENDS
;	COMDAT pdata
pdata	SEGMENT
$pdata$_MULTIPLYX_UNIT DD imagerel _MULTIPLYX_UNIT
	DD	imagerel _MULTIPLYX_UNIT+103
	DD	imagerel $unwind$_MULTIPLYX_UNIT
pdata	ENDS
;	COMDAT pdata
pdata	SEGMENT
$pdata$?ParseDecimalDigit@Internal@Core@Math@Palmtree@@YAH_W@Z DD imagerel ?ParseDecimalDigit@Internal@Core@Math@Palmtree@@YAH_W@Z
	DD	imagerel ?ParseDecimalDigit@Internal@Core@Math@Palmtree@@YAH_W@Z+105
	DD	imagerel $unwind$?ParseDecimalDigit@Internal@Core@Math@Palmtree@@YAH_W@Z
pdata	ENDS
;	COMDAT pdata
pdata	SEGMENT
$pdata$?ParseHexDigit@Internal@Core@Math@Palmtree@@YAH_W@Z DD imagerel ?ParseHexDigit@Internal@Core@Math@Palmtree@@YAH_W@Z
	DD	imagerel ?ParseHexDigit@Internal@Core@Math@Palmtree@@YAH_W@Z+177
	DD	imagerel $unwind$?ParseHexDigit@Internal@Core@Math@Palmtree@@YAH_W@Z
pdata	ENDS
;	COMDAT pdata
pdata	SEGMENT
$pdata$??0ParserState@Internal@Core@Math@Palmtree@@QEAA@PEB_WIPEBU__tag_PMC_NUMBER_FORMAT_INFO@1234@PEADPEA_W_K34@Z DD imagerel $LN14
	DD	imagerel $LN14+1155
	DD	imagerel $unwind$??0ParserState@Internal@Core@Math@Palmtree@@QEAA@PEB_WIPEBU__tag_PMC_NUMBER_FORMAT_INFO@1234@PEADPEA_W_K34@Z
pdata	ENDS
;	COMDAT pdata
pdata	SEGMENT
$pdata$??1ParserState@Internal@Core@Math@Palmtree@@QEAA@XZ DD imagerel $LN3
	DD	imagerel $LN3+76
	DD	imagerel $unwind$??1ParserState@Internal@Core@Math@Palmtree@@QEAA@XZ
pdata	ENDS
;	COMDAT pdata
pdata	SEGMENT
$pdata$?ParseAsDecimalNumberString@ParserState@Internal@Core@Math@Palmtree@@QEAAHXZ DD imagerel $LN115
	DD	imagerel $LN115+11204
	DD	imagerel $unwind$?ParseAsDecimalNumberString@ParserState@Internal@Core@Math@Palmtree@@QEAAHXZ
pdata	ENDS
;	COMDAT pdata
pdata	SEGMENT
$pdata$?ParseAsHexNumberString@ParserState@Internal@Core@Math@Palmtree@@QEAAHXZ DD imagerel $LN6
	DD	imagerel $LN6+192
	DD	imagerel $unwind$?ParseAsHexNumberString@ParserState@Internal@Core@Math@Palmtree@@QEAAHXZ
pdata	ENDS
;	COMDAT pdata
pdata	SEGMENT
$pdata$?ParseAsIntegerPartNumberSequence@ParserState@Internal@Core@Math@Palmtree@@AEAAXXZ DD imagerel $LN14
	DD	imagerel $LN14+667
	DD	imagerel $unwind$?ParseAsIntegerPartNumberSequence@ParserState@Internal@Core@Math@Palmtree@@AEAAXXZ
pdata	ENDS
;	COMDAT pdata
pdata	SEGMENT
$pdata$?ParseAsFractionPartNumberSequence@ParserState@Internal@Core@Math@Palmtree@@AEAAXXZ DD imagerel $LN10
	DD	imagerel $LN10+351
	DD	imagerel $unwind$?ParseAsFractionPartNumberSequence@ParserState@Internal@Core@Math@Palmtree@@AEAAXXZ
pdata	ENDS
;	COMDAT pdata
pdata	SEGMENT
$pdata$?ParseAsDecimalNumberString@Internal@Core@Math@Palmtree@@YAHPEB_WIPEBU__tag_PMC_NUMBER_FORMAT_INFO@1234@PEADPEA_W_K34@Z DD imagerel ?ParseAsDecimalNumberString@Internal@Core@Math@Palmtree@@YAHPEB_WIPEBU__tag_PMC_NUMBER_FORMAT_INFO@1234@PEADPEA_W_K34@Z
	DD	imagerel ?ParseAsDecimalNumberString@Internal@Core@Math@Palmtree@@YAHPEB_WIPEBU__tag_PMC_NUMBER_FORMAT_INFO@1234@PEADPEA_W_K34@Z+262
	DD	imagerel $unwind$?ParseAsDecimalNumberString@Internal@Core@Math@Palmtree@@YAHPEB_WIPEBU__tag_PMC_NUMBER_FORMAT_INFO@1234@PEADPEA_W_K34@Z
pdata	ENDS
;	COMDAT pdata
pdata	SEGMENT
$pdata$?dtor$0@?0??ParseAsDecimalNumberString@Internal@Core@Math@Palmtree@@YAHPEB_WIPEBU__tag_PMC_NUMBER_FORMAT_INFO@1234@PEADPEA_W_K34@Z@4HA DD imagerel ?dtor$0@?0??ParseAsDecimalNumberString@Internal@Core@Math@Palmtree@@YAHPEB_WIPEBU__tag_PMC_NUMBER_FORMAT_INFO@1234@PEADPEA_W_K34@Z@4HA
	DD	imagerel ?dtor$0@?0??ParseAsDecimalNumberString@Internal@Core@Math@Palmtree@@YAHPEB_WIPEBU__tag_PMC_NUMBER_FORMAT_INFO@1234@PEADPEA_W_K34@Z@4HA+36
	DD	imagerel $unwind$?dtor$0@?0??ParseAsDecimalNumberString@Internal@Core@Math@Palmtree@@YAHPEB_WIPEBU__tag_PMC_NUMBER_FORMAT_INFO@1234@PEADPEA_W_K34@Z@4HA
pdata	ENDS
;	COMDAT pdata
pdata	SEGMENT
$pdata$?BuildLeading1WordFromDecimalString@Internal@Core@Math@Palmtree@@YA_KPEA_W_K@Z DD imagerel ?BuildLeading1WordFromDecimalString@Internal@Core@Math@Palmtree@@YA_KPEA_W_K@Z
	DD	imagerel ?BuildLeading1WordFromDecimalString@Internal@Core@Math@Palmtree@@YA_KPEA_W_K@Z+174
	DD	imagerel $unwind$?BuildLeading1WordFromDecimalString@Internal@Core@Math@Palmtree@@YA_KPEA_W_K@Z
pdata	ENDS
;	COMDAT pdata
pdata	SEGMENT
$pdata$?Build1WordFromDecimalString@Internal@Core@Math@Palmtree@@YA_KPEA_W@Z DD imagerel ?Build1WordFromDecimalString@Internal@Core@Math@Palmtree@@YA_KPEA_W@Z
	DD	imagerel ?Build1WordFromDecimalString@Internal@Core@Math@Palmtree@@YA_KPEA_W@Z+1313
	DD	imagerel $unwind$?Build1WordFromDecimalString@Internal@Core@Math@Palmtree@@YA_KPEA_W@Z
pdata	ENDS
;	COMDAT pdata
pdata	SEGMENT
$pdata$?BuildBinaryFromDecimalString@Internal@Core@Math@Palmtree@@YAXPEA_WPEA_K1@Z DD imagerel ?BuildBinaryFromDecimalString@Internal@Core@Math@Palmtree@@YAXPEA_WPEA_K1@Z
	DD	imagerel ?BuildBinaryFromDecimalString@Internal@Core@Math@Palmtree@@YAXPEA_WPEA_K1@Z+347
	DD	imagerel $unwind$?BuildBinaryFromDecimalString@Internal@Core@Math@Palmtree@@YAXPEA_WPEA_K1@Z
pdata	ENDS
;	COMDAT pdata
pdata	SEGMENT
$pdata$?MultiplyAndAdd1Word_using_ADC_MUL@Internal@Core@Math@Palmtree@@YA_K_K0PEA_K@Z DD imagerel ?MultiplyAndAdd1Word_using_ADC_MUL@Internal@Core@Math@Palmtree@@YA_K_K0PEA_K@Z
	DD	imagerel ?MultiplyAndAdd1Word_using_ADC_MUL@Internal@Core@Math@Palmtree@@YA_K_K0PEA_K@Z+212
	DD	imagerel $unwind$?MultiplyAndAdd1Word_using_ADC_MUL@Internal@Core@Math@Palmtree@@YA_K_K0PEA_K@Z
pdata	ENDS
;	COMDAT pdata
pdata	SEGMENT
$pdata$?MultiplyAndAdd1Word_using_ADCX_MULX@Internal@Core@Math@Palmtree@@YA_K_K0PEA_K@Z DD imagerel ?MultiplyAndAdd1Word_using_ADCX_MULX@Internal@Core@Math@Palmtree@@YA_K_K0PEA_K@Z
	DD	imagerel ?MultiplyAndAdd1Word_using_ADCX_MULX@Internal@Core@Math@Palmtree@@YA_K_K0PEA_K@Z+212
	DD	imagerel $unwind$?MultiplyAndAdd1Word_using_ADCX_MULX@Internal@Core@Math@Palmtree@@YA_K_K0PEA_K@Z
pdata	ENDS
;	COMDAT pdata
pdata	SEGMENT
$pdata$?MultiplyAndAdd_using_ADC_MUL@Internal@Core@Math@Palmtree@@YAPEA_KPEA_K_K1@Z DD imagerel ?MultiplyAndAdd_using_ADC_MUL@Internal@Core@Math@Palmtree@@YAPEA_KPEA_K_K1@Z
	DD	imagerel ?MultiplyAndAdd_using_ADC_MUL@Internal@Core@Math@Palmtree@@YAPEA_KPEA_K_K1@Z+4203
	DD	imagerel $unwind$?MultiplyAndAdd_using_ADC_MUL@Internal@Core@Math@Palmtree@@YAPEA_KPEA_K_K1@Z
pdata	ENDS
;	COMDAT pdata
pdata	SEGMENT
$pdata$?MultiplyAndAdd_using_ADCX_MULX@Internal@Core@Math@Palmtree@@YAPEA_KPEA_K_K1@Z DD imagerel ?MultiplyAndAdd_using_ADCX_MULX@Internal@Core@Math@Palmtree@@YAPEA_KPEA_K_K1@Z
	DD	imagerel ?MultiplyAndAdd_using_ADCX_MULX@Internal@Core@Math@Palmtree@@YAPEA_KPEA_K_K1@Z+4203
	DD	imagerel $unwind$?MultiplyAndAdd_using_ADCX_MULX@Internal@Core@Math@Palmtree@@YAPEA_KPEA_K_K1@Z
pdata	ENDS
;	COMDAT pdata
pdata	SEGMENT
$pdata$?ConvertCardinalNumber@Internal@Core@Math@Palmtree@@YAXPEA_K_K0@Z DD imagerel ?ConvertCardinalNumber@Internal@Core@Math@Palmtree@@YAXPEA_K_K0@Z
	DD	imagerel ?ConvertCardinalNumber@Internal@Core@Math@Palmtree@@YAXPEA_K_K0@Z+381
	DD	imagerel $unwind$?ConvertCardinalNumber@Internal@Core@Math@Palmtree@@YAXPEA_K_K0@Z
pdata	ENDS
;	COMDAT pdata
pdata	SEGMENT
$pdata$?dtor$0@?0??ConvertCardinalNumber@Internal@Core@Math@Palmtree@@YAXPEA_K_K0@Z@4HA DD imagerel ?dtor$0@?0??ConvertCardinalNumber@Internal@Core@Math@Palmtree@@YAXPEA_K_K0@Z@4HA
	DD	imagerel ?dtor$0@?0??ConvertCardinalNumber@Internal@Core@Math@Palmtree@@YAXPEA_K_K0@Z@4HA+36
	DD	imagerel $unwind$?dtor$0@?0??ConvertCardinalNumber@Internal@Core@Math@Palmtree@@YAXPEA_K_K0@Z@4HA
pdata	ENDS
;	COMDAT pdata
pdata	SEGMENT
$pdata$?TryParseDN@Internal@Core@Math@Palmtree@@YAHPEB_WIPEBU__tag_PMC_NUMBER_FORMAT_INFO@1234@PEADPEAPEAU__tag_NUMBER_HEADER@1234@PEAI@Z DD imagerel ?TryParseDN@Internal@Core@Math@Palmtree@@YAHPEB_WIPEBU__tag_PMC_NUMBER_FORMAT_INFO@1234@PEADPEAPEAU__tag_NUMBER_HEADER@1234@PEAI@Z
	DD	imagerel ?TryParseDN@Internal@Core@Math@Palmtree@@YAHPEB_WIPEBU__tag_PMC_NUMBER_FORMAT_INFO@1234@PEADPEAPEAU__tag_NUMBER_HEADER@1234@PEAI@Z+2057
	DD	imagerel $unwind$?TryParseDN@Internal@Core@Math@Palmtree@@YAHPEB_WIPEBU__tag_PMC_NUMBER_FORMAT_INFO@1234@PEADPEAPEAU__tag_NUMBER_HEADER@1234@PEAI@Z
pdata	ENDS
;	COMDAT pdata
pdata	SEGMENT
$pdata$?dtor$0@?0??TryParseDN@Internal@Core@Math@Palmtree@@YAHPEB_WIPEBU__tag_PMC_NUMBER_FORMAT_INFO@1234@PEADPEAPEAU__tag_NUMBER_HEADER@1234@PEAI@Z@4HA DD imagerel ?dtor$0@?0??TryParseDN@Internal@Core@Math@Palmtree@@YAHPEB_WIPEBU__tag_PMC_NUMBER_FORMAT_INFO@1234@PEADPEAPEAU__tag_NUMBER_HEADER@1234@PEAI@Z@4HA
	DD	imagerel ?dtor$0@?0??TryParseDN@Internal@Core@Math@Palmtree@@YAHPEB_WIPEBU__tag_PMC_NUMBER_FORMAT_INFO@1234@PEADPEAPEAU__tag_NUMBER_HEADER@1234@PEAI@Z@4HA+36
	DD	imagerel $unwind$?dtor$0@?0??TryParseDN@Internal@Core@Math@Palmtree@@YAHPEB_WIPEBU__tag_PMC_NUMBER_FORMAT_INFO@1234@PEADPEAPEAU__tag_NUMBER_HEADER@1234@PEAI@Z@4HA
pdata	ENDS
;	COMDAT pdata
pdata	SEGMENT
$pdata$?BuildLeading1WordFromHexString@Internal@Core@Math@Palmtree@@YA_KPEA_W_K@Z DD imagerel ?BuildLeading1WordFromHexString@Internal@Core@Math@Palmtree@@YA_KPEA_W_K@Z
	DD	imagerel ?BuildLeading1WordFromHexString@Internal@Core@Math@Palmtree@@YA_KPEA_W_K@Z+222
	DD	imagerel $unwind$?BuildLeading1WordFromHexString@Internal@Core@Math@Palmtree@@YA_KPEA_W_K@Z
pdata	ENDS
;	COMDAT pdata
pdata	SEGMENT
$pdata$?Build1WordFromHexString@Internal@Core@Math@Palmtree@@YA_KPEA_W@Z DD imagerel ?Build1WordFromHexString@Internal@Core@Math@Palmtree@@YA_KPEA_W@Z
	DD	imagerel ?Build1WordFromHexString@Internal@Core@Math@Palmtree@@YA_KPEA_W@Z+1121
	DD	imagerel $unwind$?Build1WordFromHexString@Internal@Core@Math@Palmtree@@YA_KPEA_W@Z
pdata	ENDS
;	COMDAT pdata
pdata	SEGMENT
$pdata$?BuildBinaryFromHexString@Internal@Core@Math@Palmtree@@YAXPEA_WPEA_K@Z DD imagerel ?BuildBinaryFromHexString@Internal@Core@Math@Palmtree@@YAXPEA_WPEA_K@Z
	DD	imagerel ?BuildBinaryFromHexString@Internal@Core@Math@Palmtree@@YAXPEA_WPEA_K@Z+332
	DD	imagerel $unwind$?BuildBinaryFromHexString@Internal@Core@Math@Palmtree@@YAXPEA_WPEA_K@Z
pdata	ENDS
;	COMDAT pdata
pdata	SEGMENT
$pdata$?ParseAsHexNumberString@Internal@Core@Math@Palmtree@@YAHPEB_WIPEBU__tag_PMC_NUMBER_FORMAT_INFO@1234@PEA_W_K@Z DD imagerel ?ParseAsHexNumberString@Internal@Core@Math@Palmtree@@YAHPEB_WIPEBU__tag_PMC_NUMBER_FORMAT_INFO@1234@PEA_W_K@Z
	DD	imagerel ?ParseAsHexNumberString@Internal@Core@Math@Palmtree@@YAHPEB_WIPEBU__tag_PMC_NUMBER_FORMAT_INFO@1234@PEA_W_K@Z+253
	DD	imagerel $unwind$?ParseAsHexNumberString@Internal@Core@Math@Palmtree@@YAHPEB_WIPEBU__tag_PMC_NUMBER_FORMAT_INFO@1234@PEA_W_K@Z
pdata	ENDS
;	COMDAT pdata
pdata	SEGMENT
$pdata$?dtor$0@?0??ParseAsHexNumberString@Internal@Core@Math@Palmtree@@YAHPEB_WIPEBU__tag_PMC_NUMBER_FORMAT_INFO@1234@PEA_W_K@Z@4HA DD imagerel ?dtor$0@?0??ParseAsHexNumberString@Internal@Core@Math@Palmtree@@YAHPEB_WIPEBU__tag_PMC_NUMBER_FORMAT_INFO@1234@PEA_W_K@Z@4HA
	DD	imagerel ?dtor$0@?0??ParseAsHexNumberString@Internal@Core@Math@Palmtree@@YAHPEB_WIPEBU__tag_PMC_NUMBER_FORMAT_INFO@1234@PEA_W_K@Z@4HA+36
	DD	imagerel $unwind$?dtor$0@?0??ParseAsHexNumberString@Internal@Core@Math@Palmtree@@YAHPEB_WIPEBU__tag_PMC_NUMBER_FORMAT_INFO@1234@PEA_W_K@Z@4HA
pdata	ENDS
;	COMDAT pdata
pdata	SEGMENT
$pdata$?TryParseX@Internal@Core@Math@Palmtree@@YAHPEB_WIPEBU__tag_PMC_NUMBER_FORMAT_INFO@1234@PEADPEAPEAU__tag_NUMBER_HEADER@1234@PEAI@Z DD imagerel ?TryParseX@Internal@Core@Math@Palmtree@@YAHPEB_WIPEBU__tag_PMC_NUMBER_FORMAT_INFO@1234@PEADPEAPEAU__tag_NUMBER_HEADER@1234@PEAI@Z
	DD	imagerel ?TryParseX@Internal@Core@Math@Palmtree@@YAHPEB_WIPEBU__tag_PMC_NUMBER_FORMAT_INFO@1234@PEADPEAPEAU__tag_NUMBER_HEADER@1234@PEAI@Z+1001
	DD	imagerel $unwind$?TryParseX@Internal@Core@Math@Palmtree@@YAHPEB_WIPEBU__tag_PMC_NUMBER_FORMAT_INFO@1234@PEADPEAPEAU__tag_NUMBER_HEADER@1234@PEAI@Z
pdata	ENDS
;	COMDAT pdata
pdata	SEGMENT
$pdata$?dtor$0@?0??TryParseX@Internal@Core@Math@Palmtree@@YAHPEB_WIPEBU__tag_PMC_NUMBER_FORMAT_INFO@1234@PEADPEAPEAU__tag_NUMBER_HEADER@1234@PEAI@Z@4HA DD imagerel ?dtor$0@?0??TryParseX@Internal@Core@Math@Palmtree@@YAHPEB_WIPEBU__tag_PMC_NUMBER_FORMAT_INFO@1234@PEADPEAPEAU__tag_NUMBER_HEADER@1234@PEAI@Z@4HA
	DD	imagerel ?dtor$0@?0??TryParseX@Internal@Core@Math@Palmtree@@YAHPEB_WIPEBU__tag_PMC_NUMBER_FORMAT_INFO@1234@PEADPEAPEAU__tag_NUMBER_HEADER@1234@PEAI@Z@4HA+36
	DD	imagerel $unwind$?dtor$0@?0??TryParseX@Internal@Core@Math@Palmtree@@YAHPEB_WIPEBU__tag_PMC_NUMBER_FORMAT_INFO@1234@PEADPEAPEAU__tag_NUMBER_HEADER@1234@PEAI@Z@4HA
pdata	ENDS
;	COMDAT pdata
pdata	SEGMENT
$pdata$?PMC_TryParse_Imp@Internal@Core@Math@Palmtree@@YAHPEB_WHPEBU__tag_PMC_NUMBER_FORMAT_INFO@1234@PEADPEAPEAU__tag_NUMBER_HEADER@1234@PEAI@Z DD imagerel ?PMC_TryParse_Imp@Internal@Core@Math@Palmtree@@YAHPEB_WHPEBU__tag_PMC_NUMBER_FORMAT_INFO@1234@PEADPEAPEAU__tag_NUMBER_HEADER@1234@PEAI@Z
	DD	imagerel ?PMC_TryParse_Imp@Internal@Core@Math@Palmtree@@YAHPEB_WHPEBU__tag_PMC_NUMBER_FORMAT_INFO@1234@PEADPEAPEAU__tag_NUMBER_HEADER@1234@PEAI@Z+537
	DD	imagerel $unwind$?PMC_TryParse_Imp@Internal@Core@Math@Palmtree@@YAHPEB_WHPEBU__tag_PMC_NUMBER_FORMAT_INFO@1234@PEADPEAPEAU__tag_NUMBER_HEADER@1234@PEAI@Z
pdata	ENDS
;	COMDAT pdata
pdata	SEGMENT
$pdata$?dtor$0@?0??PMC_TryParse_Imp@Internal@Core@Math@Palmtree@@YAHPEB_WHPEBU__tag_PMC_NUMBER_FORMAT_INFO@1234@PEADPEAPEAU__tag_NUMBER_HEADER@1234@PEAI@Z@4HA DD imagerel ?dtor$0@?0??PMC_TryParse_Imp@Internal@Core@Math@Palmtree@@YAHPEB_WHPEBU__tag_PMC_NUMBER_FORMAT_INFO@1234@PEADPEAPEAU__tag_NUMBER_HEADER@1234@PEAI@Z@4HA
	DD	imagerel ?dtor$0@?0??PMC_TryParse_Imp@Internal@Core@Math@Palmtree@@YAHPEB_WHPEBU__tag_PMC_NUMBER_FORMAT_INFO@1234@PEADPEAPEAU__tag_NUMBER_HEADER@1234@PEAI@Z@4HA+36
	DD	imagerel $unwind$?dtor$0@?0??PMC_TryParse_Imp@Internal@Core@Math@Palmtree@@YAHPEB_WHPEBU__tag_PMC_NUMBER_FORMAT_INFO@1234@PEADPEAPEAU__tag_NUMBER_HEADER@1234@PEAI@Z@4HA
pdata	ENDS
;	COMDAT rtc$TMZ
rtc$TMZ	SEGMENT
_RTC_Shutdown.rtc$TMZ DQ FLAT:_RTC_Shutdown
rtc$TMZ	ENDS
;	COMDAT rtc$IMZ
rtc$IMZ	SEGMENT
_RTC_InitBase.rtc$IMZ DQ FLAT:_RTC_InitBase
rtc$IMZ	ENDS
;	COMDAT ??_R1A@?0A@EA@StringWriter@Internal@Core@Math@Palmtree@@8
rdata$r	SEGMENT
??_R1A@?0A@EA@StringWriter@Internal@Core@Math@Palmtree@@8 DD imagerel ??_R0?AVStringWriter@Internal@Core@Math@Palmtree@@@8 ; Palmtree::Math::Core::Internal::StringWriter::`RTTI Base Class Descriptor at (0,-1,0,64)'
	DD	00H
	DD	00H
	DD	0ffffffffH
	DD	00H
	DD	040H
	DD	imagerel ??_R3StringWriter@Internal@Core@Math@Palmtree@@8
rdata$r	ENDS
;	COMDAT ??_R2StringWriter@Internal@Core@Math@Palmtree@@8
rdata$r	SEGMENT
??_R2StringWriter@Internal@Core@Math@Palmtree@@8 DD imagerel ??_R1A@?0A@EA@StringWriter@Internal@Core@Math@Palmtree@@8 ; Palmtree::Math::Core::Internal::StringWriter::`RTTI Base Class Array'
	ORG $+3
rdata$r	ENDS
;	COMDAT ??_R3StringWriter@Internal@Core@Math@Palmtree@@8
rdata$r	SEGMENT
??_R3StringWriter@Internal@Core@Math@Palmtree@@8 DD 00H	; Palmtree::Math::Core::Internal::StringWriter::`RTTI Class Hierarchy Descriptor'
	DD	00H
	DD	01H
	DD	imagerel ??_R2StringWriter@Internal@Core@Math@Palmtree@@8
rdata$r	ENDS
;	COMDAT ??_R0?AVStringWriter@Internal@Core@Math@Palmtree@@@8
data$r	SEGMENT
??_R0?AVStringWriter@Internal@Core@Math@Palmtree@@@8 DQ FLAT:??_7type_info@@6B@ ; Palmtree::Math::Core::Internal::StringWriter `RTTI Type Descriptor'
	DQ	0000000000000000H
	DB	'.?AVStringWriter@Internal@Core@Math@Palmtree@@', 00H
data$r	ENDS
;	COMDAT ??_R4StringWriter@Internal@Core@Math@Palmtree@@6B@
rdata$r	SEGMENT
??_R4StringWriter@Internal@Core@Math@Palmtree@@6B@ DD 01H ; Palmtree::Math::Core::Internal::StringWriter::`RTTI Complete Object Locator'
	DD	00H
	DD	00H
	DD	imagerel ??_R0?AVStringWriter@Internal@Core@Math@Palmtree@@@8
	DD	imagerel ??_R3StringWriter@Internal@Core@Math@Palmtree@@8
	DD	imagerel ??_R4StringWriter@Internal@Core@Math@Palmtree@@6B@
rdata$r	ENDS
;	COMDAT ??_R1A@?0A@EA@StringReader@Internal@Core@Math@Palmtree@@8
rdata$r	SEGMENT
??_R1A@?0A@EA@StringReader@Internal@Core@Math@Palmtree@@8 DD imagerel ??_R0?AVStringReader@Internal@Core@Math@Palmtree@@@8 ; Palmtree::Math::Core::Internal::StringReader::`RTTI Base Class Descriptor at (0,-1,0,64)'
	DD	00H
	DD	00H
	DD	0ffffffffH
	DD	00H
	DD	040H
	DD	imagerel ??_R3StringReader@Internal@Core@Math@Palmtree@@8
rdata$r	ENDS
;	COMDAT ??_R2StringReader@Internal@Core@Math@Palmtree@@8
rdata$r	SEGMENT
??_R2StringReader@Internal@Core@Math@Palmtree@@8 DD imagerel ??_R1A@?0A@EA@StringReader@Internal@Core@Math@Palmtree@@8 ; Palmtree::Math::Core::Internal::StringReader::`RTTI Base Class Array'
	ORG $+3
rdata$r	ENDS
;	COMDAT ??_R3StringReader@Internal@Core@Math@Palmtree@@8
rdata$r	SEGMENT
??_R3StringReader@Internal@Core@Math@Palmtree@@8 DD 00H	; Palmtree::Math::Core::Internal::StringReader::`RTTI Class Hierarchy Descriptor'
	DD	00H
	DD	01H
	DD	imagerel ??_R2StringReader@Internal@Core@Math@Palmtree@@8
rdata$r	ENDS
;	COMDAT ??_R0?AVStringReader@Internal@Core@Math@Palmtree@@@8
data$r	SEGMENT
??_R0?AVStringReader@Internal@Core@Math@Palmtree@@@8 DQ FLAT:??_7type_info@@6B@ ; Palmtree::Math::Core::Internal::StringReader `RTTI Type Descriptor'
	DQ	0000000000000000H
	DB	'.?AVStringReader@Internal@Core@Math@Palmtree@@', 00H
data$r	ENDS
;	COMDAT ??_R4StringReader@Internal@Core@Math@Palmtree@@6B@
rdata$r	SEGMENT
??_R4StringReader@Internal@Core@Math@Palmtree@@6B@ DD 01H ; Palmtree::Math::Core::Internal::StringReader::`RTTI Complete Object Locator'
	DD	00H
	DD	00H
	DD	imagerel ??_R0?AVStringReader@Internal@Core@Math@Palmtree@@@8
	DD	imagerel ??_R3StringReader@Internal@Core@Math@Palmtree@@8
	DD	imagerel ??_R4StringReader@Internal@Core@Math@Palmtree@@6B@
rdata$r	ENDS
;	COMDAT ??_R1A@?0A@EA@InternalErrorException@Internal@Core@Math@Palmtree@@8
rdata$r	SEGMENT
??_R1A@?0A@EA@InternalErrorException@Internal@Core@Math@Palmtree@@8 DD imagerel ??_R0?AVInternalErrorException@Internal@Core@Math@Palmtree@@@8 ; Palmtree::Math::Core::Internal::InternalErrorException::`RTTI Base Class Descriptor at (0,-1,0,64)'
	DD	02H
	DD	00H
	DD	0ffffffffH
	DD	00H
	DD	040H
	DD	imagerel ??_R3InternalErrorException@Internal@Core@Math@Palmtree@@8
rdata$r	ENDS
;	COMDAT ??_R2InternalErrorException@Internal@Core@Math@Palmtree@@8
rdata$r	SEGMENT
??_R2InternalErrorException@Internal@Core@Math@Palmtree@@8 DD imagerel ??_R1A@?0A@EA@InternalErrorException@Internal@Core@Math@Palmtree@@8 ; Palmtree::Math::Core::Internal::InternalErrorException::`RTTI Base Class Array'
	DD	imagerel ??_R1A@?0A@EA@Exception@Internal@Core@Math@Palmtree@@8
	DD	imagerel ??_R1A@?0A@EN@exception@std@@8
	ORG $+3
rdata$r	ENDS
;	COMDAT ??_R3InternalErrorException@Internal@Core@Math@Palmtree@@8
rdata$r	SEGMENT
??_R3InternalErrorException@Internal@Core@Math@Palmtree@@8 DD 00H ; Palmtree::Math::Core::Internal::InternalErrorException::`RTTI Class Hierarchy Descriptor'
	DD	00H
	DD	03H
	DD	imagerel ??_R2InternalErrorException@Internal@Core@Math@Palmtree@@8
rdata$r	ENDS
;	COMDAT ??_R4InternalErrorException@Internal@Core@Math@Palmtree@@6B@
rdata$r	SEGMENT
??_R4InternalErrorException@Internal@Core@Math@Palmtree@@6B@ DD 01H ; Palmtree::Math::Core::Internal::InternalErrorException::`RTTI Complete Object Locator'
	DD	00H
	DD	00H
	DD	imagerel ??_R0?AVInternalErrorException@Internal@Core@Math@Palmtree@@@8
	DD	imagerel ??_R3InternalErrorException@Internal@Core@Math@Palmtree@@8
	DD	imagerel ??_R4InternalErrorException@Internal@Core@Math@Palmtree@@6B@
rdata$r	ENDS
;	COMDAT ??_R1A@?0A@EA@InsufficientBufferException@Internal@Core@Math@Palmtree@@8
rdata$r	SEGMENT
??_R1A@?0A@EA@InsufficientBufferException@Internal@Core@Math@Palmtree@@8 DD imagerel ??_R0?AVInsufficientBufferException@Internal@Core@Math@Palmtree@@@8 ; Palmtree::Math::Core::Internal::InsufficientBufferException::`RTTI Base Class Descriptor at (0,-1,0,64)'
	DD	02H
	DD	00H
	DD	0ffffffffH
	DD	00H
	DD	040H
	DD	imagerel ??_R3InsufficientBufferException@Internal@Core@Math@Palmtree@@8
rdata$r	ENDS
;	COMDAT ??_R2InsufficientBufferException@Internal@Core@Math@Palmtree@@8
rdata$r	SEGMENT
??_R2InsufficientBufferException@Internal@Core@Math@Palmtree@@8 DD imagerel ??_R1A@?0A@EA@InsufficientBufferException@Internal@Core@Math@Palmtree@@8 ; Palmtree::Math::Core::Internal::InsufficientBufferException::`RTTI Base Class Array'
	DD	imagerel ??_R1A@?0A@EA@Exception@Internal@Core@Math@Palmtree@@8
	DD	imagerel ??_R1A@?0A@EN@exception@std@@8
	ORG $+3
rdata$r	ENDS
;	COMDAT ??_R3InsufficientBufferException@Internal@Core@Math@Palmtree@@8
rdata$r	SEGMENT
??_R3InsufficientBufferException@Internal@Core@Math@Palmtree@@8 DD 00H ; Palmtree::Math::Core::Internal::InsufficientBufferException::`RTTI Class Hierarchy Descriptor'
	DD	00H
	DD	03H
	DD	imagerel ??_R2InsufficientBufferException@Internal@Core@Math@Palmtree@@8
rdata$r	ENDS
;	COMDAT ??_R4InsufficientBufferException@Internal@Core@Math@Palmtree@@6B@
rdata$r	SEGMENT
??_R4InsufficientBufferException@Internal@Core@Math@Palmtree@@6B@ DD 01H ; Palmtree::Math::Core::Internal::InsufficientBufferException::`RTTI Complete Object Locator'
	DD	00H
	DD	00H
	DD	imagerel ??_R0?AVInsufficientBufferException@Internal@Core@Math@Palmtree@@@8
	DD	imagerel ??_R3InsufficientBufferException@Internal@Core@Math@Palmtree@@8
	DD	imagerel ??_R4InsufficientBufferException@Internal@Core@Math@Palmtree@@6B@
rdata$r	ENDS
;	COMDAT ??_R1A@?0A@EA@ArgumentNullException@Internal@Core@Math@Palmtree@@8
rdata$r	SEGMENT
??_R1A@?0A@EA@ArgumentNullException@Internal@Core@Math@Palmtree@@8 DD imagerel ??_R0?AVArgumentNullException@Internal@Core@Math@Palmtree@@@8 ; Palmtree::Math::Core::Internal::ArgumentNullException::`RTTI Base Class Descriptor at (0,-1,0,64)'
	DD	02H
	DD	00H
	DD	0ffffffffH
	DD	00H
	DD	040H
	DD	imagerel ??_R3ArgumentNullException@Internal@Core@Math@Palmtree@@8
rdata$r	ENDS
;	COMDAT ??_R2ArgumentNullException@Internal@Core@Math@Palmtree@@8
rdata$r	SEGMENT
??_R2ArgumentNullException@Internal@Core@Math@Palmtree@@8 DD imagerel ??_R1A@?0A@EA@ArgumentNullException@Internal@Core@Math@Palmtree@@8 ; Palmtree::Math::Core::Internal::ArgumentNullException::`RTTI Base Class Array'
	DD	imagerel ??_R1A@?0A@EA@Exception@Internal@Core@Math@Palmtree@@8
	DD	imagerel ??_R1A@?0A@EN@exception@std@@8
	ORG $+3
rdata$r	ENDS
;	COMDAT ??_R3ArgumentNullException@Internal@Core@Math@Palmtree@@8
rdata$r	SEGMENT
??_R3ArgumentNullException@Internal@Core@Math@Palmtree@@8 DD 00H ; Palmtree::Math::Core::Internal::ArgumentNullException::`RTTI Class Hierarchy Descriptor'
	DD	00H
	DD	03H
	DD	imagerel ??_R2ArgumentNullException@Internal@Core@Math@Palmtree@@8
rdata$r	ENDS
;	COMDAT ??_R4ArgumentNullException@Internal@Core@Math@Palmtree@@6B@
rdata$r	SEGMENT
??_R4ArgumentNullException@Internal@Core@Math@Palmtree@@6B@ DD 01H ; Palmtree::Math::Core::Internal::ArgumentNullException::`RTTI Complete Object Locator'
	DD	00H
	DD	00H
	DD	imagerel ??_R0?AVArgumentNullException@Internal@Core@Math@Palmtree@@@8
	DD	imagerel ??_R3ArgumentNullException@Internal@Core@Math@Palmtree@@8
	DD	imagerel ??_R4ArgumentNullException@Internal@Core@Math@Palmtree@@6B@
rdata$r	ENDS
;	COMDAT ??_R1A@?0A@EA@ArgumentException@Internal@Core@Math@Palmtree@@8
rdata$r	SEGMENT
??_R1A@?0A@EA@ArgumentException@Internal@Core@Math@Palmtree@@8 DD imagerel ??_R0?AVArgumentException@Internal@Core@Math@Palmtree@@@8 ; Palmtree::Math::Core::Internal::ArgumentException::`RTTI Base Class Descriptor at (0,-1,0,64)'
	DD	02H
	DD	00H
	DD	0ffffffffH
	DD	00H
	DD	040H
	DD	imagerel ??_R3ArgumentException@Internal@Core@Math@Palmtree@@8
rdata$r	ENDS
;	COMDAT ??_R2ArgumentException@Internal@Core@Math@Palmtree@@8
rdata$r	SEGMENT
??_R2ArgumentException@Internal@Core@Math@Palmtree@@8 DD imagerel ??_R1A@?0A@EA@ArgumentException@Internal@Core@Math@Palmtree@@8 ; Palmtree::Math::Core::Internal::ArgumentException::`RTTI Base Class Array'
	DD	imagerel ??_R1A@?0A@EA@Exception@Internal@Core@Math@Palmtree@@8
	DD	imagerel ??_R1A@?0A@EN@exception@std@@8
	ORG $+3
rdata$r	ENDS
;	COMDAT ??_R3ArgumentException@Internal@Core@Math@Palmtree@@8
rdata$r	SEGMENT
??_R3ArgumentException@Internal@Core@Math@Palmtree@@8 DD 00H ; Palmtree::Math::Core::Internal::ArgumentException::`RTTI Class Hierarchy Descriptor'
	DD	00H
	DD	03H
	DD	imagerel ??_R2ArgumentException@Internal@Core@Math@Palmtree@@8
rdata$r	ENDS
;	COMDAT ??_R4ArgumentException@Internal@Core@Math@Palmtree@@6B@
rdata$r	SEGMENT
??_R4ArgumentException@Internal@Core@Math@Palmtree@@6B@ DD 01H ; Palmtree::Math::Core::Internal::ArgumentException::`RTTI Complete Object Locator'
	DD	00H
	DD	00H
	DD	imagerel ??_R0?AVArgumentException@Internal@Core@Math@Palmtree@@@8
	DD	imagerel ??_R3ArgumentException@Internal@Core@Math@Palmtree@@8
	DD	imagerel ??_R4ArgumentException@Internal@Core@Math@Palmtree@@6B@
rdata$r	ENDS
;	COMDAT ??_R1A@?0A@EN@exception@std@@8
rdata$r	SEGMENT
??_R1A@?0A@EN@exception@std@@8 DD imagerel ??_R0?AVexception@std@@@8 ; std::exception::`RTTI Base Class Descriptor at (0,-1,0,77)'
	DD	00H
	DD	00H
	DD	0ffffffffH
	DD	00H
	DD	04dH
	DD	imagerel ??_R3exception@std@@8
rdata$r	ENDS
;	COMDAT ??_R1A@?0A@EA@Exception@Internal@Core@Math@Palmtree@@8
rdata$r	SEGMENT
??_R1A@?0A@EA@Exception@Internal@Core@Math@Palmtree@@8 DD imagerel ??_R0?AVException@Internal@Core@Math@Palmtree@@@8 ; Palmtree::Math::Core::Internal::Exception::`RTTI Base Class Descriptor at (0,-1,0,64)'
	DD	01H
	DD	00H
	DD	0ffffffffH
	DD	00H
	DD	040H
	DD	imagerel ??_R3Exception@Internal@Core@Math@Palmtree@@8
rdata$r	ENDS
;	COMDAT ??_R2Exception@Internal@Core@Math@Palmtree@@8
rdata$r	SEGMENT
??_R2Exception@Internal@Core@Math@Palmtree@@8 DD imagerel ??_R1A@?0A@EA@Exception@Internal@Core@Math@Palmtree@@8 ; Palmtree::Math::Core::Internal::Exception::`RTTI Base Class Array'
	DD	imagerel ??_R1A@?0A@EN@exception@std@@8
	ORG $+3
rdata$r	ENDS
;	COMDAT ??_R3Exception@Internal@Core@Math@Palmtree@@8
rdata$r	SEGMENT
??_R3Exception@Internal@Core@Math@Palmtree@@8 DD 00H	; Palmtree::Math::Core::Internal::Exception::`RTTI Class Hierarchy Descriptor'
	DD	00H
	DD	02H
	DD	imagerel ??_R2Exception@Internal@Core@Math@Palmtree@@8
rdata$r	ENDS
;	COMDAT ??_R4Exception@Internal@Core@Math@Palmtree@@6B@
rdata$r	SEGMENT
??_R4Exception@Internal@Core@Math@Palmtree@@6B@ DD 01H	; Palmtree::Math::Core::Internal::Exception::`RTTI Complete Object Locator'
	DD	00H
	DD	00H
	DD	imagerel ??_R0?AVException@Internal@Core@Math@Palmtree@@@8
	DD	imagerel ??_R3Exception@Internal@Core@Math@Palmtree@@8
	DD	imagerel ??_R4Exception@Internal@Core@Math@Palmtree@@6B@
rdata$r	ENDS
;	COMDAT ??_R1A@?0A@EA@exception@std@@8
rdata$r	SEGMENT
??_R1A@?0A@EA@exception@std@@8 DD imagerel ??_R0?AVexception@std@@@8 ; std::exception::`RTTI Base Class Descriptor at (0,-1,0,64)'
	DD	00H
	DD	00H
	DD	0ffffffffH
	DD	00H
	DD	040H
	DD	imagerel ??_R3exception@std@@8
rdata$r	ENDS
;	COMDAT ??_R2exception@std@@8
rdata$r	SEGMENT
??_R2exception@std@@8 DD imagerel ??_R1A@?0A@EA@exception@std@@8 ; std::exception::`RTTI Base Class Array'
	ORG $+3
rdata$r	ENDS
;	COMDAT ??_R3exception@std@@8
rdata$r	SEGMENT
??_R3exception@std@@8 DD 00H				; std::exception::`RTTI Class Hierarchy Descriptor'
	DD	00H
	DD	01H
	DD	imagerel ??_R2exception@std@@8
rdata$r	ENDS
;	COMDAT ??_R0?AVexception@std@@@8
data$r	SEGMENT
??_R0?AVexception@std@@@8 DQ FLAT:??_7type_info@@6B@	; std::exception `RTTI Type Descriptor'
	DQ	0000000000000000H
	DB	'.?AVexception@std@@', 00H
data$r	ENDS
;	COMDAT ??_R4exception@std@@6B@
rdata$r	SEGMENT
??_R4exception@std@@6B@ DD 01H				; std::exception::`RTTI Complete Object Locator'
	DD	00H
	DD	00H
	DD	imagerel ??_R0?AVexception@std@@@8
	DD	imagerel ??_R3exception@std@@8
	DD	imagerel ??_R4exception@std@@6B@
rdata$r	ENDS
;	COMDAT ??_C@_1M@LGAEBGCK@?$AAo?$AA_?$AAa?$AAb?$AAs@
CONST	SEGMENT
??_C@_1M@LGAEBGCK@?$AAo?$AA_?$AAa?$AAb?$AAs@ DB 'o', 00H, '_', 00H, 'a', 00H
	DB	'b', 00H, 's', 00H, 00H, 00H			; `string'
CONST	ENDS
;	COMDAT ??_C@_1O@KGDAECED@?$AAo?$AA_?$AAs?$AAi?$AAg?$AAn@
CONST	SEGMENT
??_C@_1O@KGDAECED@?$AAo?$AA_?$AAs?$AAi?$AAg?$AAn@ DB 'o', 00H, '_', 00H, 's'
	DB	00H, 'i', 00H, 'g', 00H, 'n', 00H, 00H, 00H	; `string'
CONST	ENDS
;	COMDAT ??_C@_13LNPOMHLG@?$AAo@
CONST	SEGMENT
??_C@_13LNPOMHLG@?$AAo@ DB 'o', 00H, 00H, 00H		; `string'
CONST	ENDS
;	COMDAT ??_C@_1CK@ECFIEPAC@?$AA?$BF?$AAp?$AAk?$AAn?$AAu?$AAl?$AAl?$AAp?$AAt?$AAr?$AAL?$AA?$AO?$AAH?$PP?$IJ?$PP?$IM@
CONST	SEGMENT
??_C@_1CK@ECFIEPAC@?$AA?$BF?$AAp?$AAk?$AAn?$AAu?$AAl?$AAl?$AAp?$AAt?$AAr?$AAL?$AA?$AO?$AAH?$PP?$IJ?$PP?$IM@ DB 015H
	DB	'_pek0n', 00H, 'u', 00H, 'l', 00H, 'l', 00H, 'p', 00H, 't', 00H
	DB	'r', 00H, 'L0', 0eH, 'NH0', 089H, '0', 08cH, '0f0D0~0Y0', 02H, '0'
	DB	00H, 00H					; `string'
CONST	ENDS
;	COMDAT ??_C@_1O@JOABEBCL@?$AAs?$AAo?$AAu?$AAr?$AAc?$AAe@
CONST	SEGMENT
??_C@_1O@JOABEBCL@?$AAs?$AAo?$AAu?$AAr?$AAc?$AAe@ DB 's', 00H, 'o', 00H, 'u'
	DB	00H, 'r', 00H, 'c', 00H, 'e', 00H, 00H, 00H	; `string'
CONST	ENDS
;	COMDAT _CT??_R0?AVArgumentNullException@Internal@Core@Math@Palmtree@@@8??0ArgumentNullException@Internal@Core@Math@Palmtree@@QEAA@AEBV01234@@Z48
xdata$x	SEGMENT
_CT??_R0?AVArgumentNullException@Internal@Core@Math@Palmtree@@@8??0ArgumentNullException@Internal@Core@Math@Palmtree@@QEAA@AEBV01234@@Z48 DD 00H
	DD	imagerel ??_R0?AVArgumentNullException@Internal@Core@Math@Palmtree@@@8
	DD	00H
	DD	0ffffffffH
	ORG $+4
	DD	030H
	DD	imagerel ??0ArgumentNullException@Internal@Core@Math@Palmtree@@QEAA@AEBV01234@@Z
xdata$x	ENDS
;	COMDAT ??_R0?AVArgumentNullException@Internal@Core@Math@Palmtree@@@8
data$r	SEGMENT
??_R0?AVArgumentNullException@Internal@Core@Math@Palmtree@@@8 DQ FLAT:??_7type_info@@6B@ ; Palmtree::Math::Core::Internal::ArgumentNullException `RTTI Type Descriptor'
	DQ	0000000000000000H
	DB	'.?AVArgumentNullException@Internal@Core@Math@Palmtree@@', 00H
data$r	ENDS
;	COMDAT _CTA2?AVArgumentNullException@Internal@Core@Math@Palmtree@@
xdata$x	SEGMENT
_CTA2?AVArgumentNullException@Internal@Core@Math@Palmtree@@ DD 02H
	DD	imagerel _CT??_R0?AVArgumentNullException@Internal@Core@Math@Palmtree@@@8??0ArgumentNullException@Internal@Core@Math@Palmtree@@QEAA@AEBV01234@@Z48
	DD	imagerel _CT??_R0?AVException@Internal@Core@Math@Palmtree@@@8??0Exception@Internal@Core@Math@Palmtree@@QEAA@AEBV01234@@Z48
xdata$x	ENDS
;	COMDAT _TI2?AVArgumentNullException@Internal@Core@Math@Palmtree@@
xdata$x	SEGMENT
_TI2?AVArgumentNullException@Internal@Core@Math@Palmtree@@ DD 00H
	DD	imagerel ??1ArgumentNullException@Internal@Core@Math@Palmtree@@UEAA@XZ
	DD	00H
	DD	imagerel _CTA2?AVArgumentNullException@Internal@Core@Math@Palmtree@@
xdata$x	ENDS
;	COMDAT ??_C@_1FG@MPGAEBOC@?$AA?$BF?$AAp?$AAn?$AAu?$AAm?$AAb?$AAe?$AAr?$AA_?$AAs?$AAt?$AAy?$AAl?$AAe?$AAs@
CONST	SEGMENT
??_C@_1FG@MPGAEBOC@?$AA?$BF?$AAp?$AAn?$AAu?$AAm?$AAb?$AAe?$AAr?$AA_?$AAs?$AAt?$AAy?$AAl?$AAe?$AAs@ DB 015H
	DB	'_pen', 00H, 'u', 00H, 'm', 00H, 'b', 00H, 'e', 00H, 'r', 00H, '_'
	DB	00H, 's', 00H, 't', 00H, 'y', 00H, 'l', 00H, 'e', 00H, 's', 00H
	DB	'k01', 08aH, 0efH, 'SU0', 08cH, '0f0D0j0D0D}', 07fH, '0', 08H, 'T'
	DB	08fH, '0[0n0', 0d5H, '0', 0e9H, '0', 0b0H, '0L0', 07H, 'c', 09aH
	DB	'[U0', 08cH, '0~0W0_0', 02H, '0', 00H, 00H	; `string'
CONST	ENDS
;	COMDAT _CT??_R0?AVArgumentException@Internal@Core@Math@Palmtree@@@8??0ArgumentException@Internal@Core@Math@Palmtree@@QEAA@AEBV01234@@Z48
xdata$x	SEGMENT
_CT??_R0?AVArgumentException@Internal@Core@Math@Palmtree@@@8??0ArgumentException@Internal@Core@Math@Palmtree@@QEAA@AEBV01234@@Z48 DD 00H
	DD	imagerel ??_R0?AVArgumentException@Internal@Core@Math@Palmtree@@@8
	DD	00H
	DD	0ffffffffH
	ORG $+4
	DD	030H
	DD	imagerel ??0ArgumentException@Internal@Core@Math@Palmtree@@QEAA@AEBV01234@@Z
xdata$x	ENDS
;	COMDAT ??_R0?AVArgumentException@Internal@Core@Math@Palmtree@@@8
data$r	SEGMENT
??_R0?AVArgumentException@Internal@Core@Math@Palmtree@@@8 DQ FLAT:??_7type_info@@6B@ ; Palmtree::Math::Core::Internal::ArgumentException `RTTI Type Descriptor'
	DQ	0000000000000000H
	DB	'.?AVArgumentException@Internal@Core@Math@Palmtree@@', 00H
data$r	ENDS
;	COMDAT _CTA2?AVArgumentException@Internal@Core@Math@Palmtree@@
xdata$x	SEGMENT
_CTA2?AVArgumentException@Internal@Core@Math@Palmtree@@ DD 02H
	DD	imagerel _CT??_R0?AVArgumentException@Internal@Core@Math@Palmtree@@@8??0ArgumentException@Internal@Core@Math@Palmtree@@QEAA@AEBV01234@@Z48
	DD	imagerel _CT??_R0?AVException@Internal@Core@Math@Palmtree@@@8??0Exception@Internal@Core@Math@Palmtree@@QEAA@AEBV01234@@Z48
xdata$x	ENDS
;	COMDAT _TI2?AVArgumentException@Internal@Core@Math@Palmtree@@
xdata$x	SEGMENT
_TI2?AVArgumentException@Internal@Core@Math@Palmtree@@ DD 00H
	DD	imagerel ??1ArgumentException@Internal@Core@Math@Palmtree@@UEAA@XZ
	DD	00H
	DD	imagerel _CTA2?AVArgumentException@Internal@Core@Math@Palmtree@@
xdata$x	ENDS
;	COMDAT ??_C@_1DG@KKOODLBJ@?$AAp?$AAm?$AAc?$AA_?$AAp?$AAa?$AAr?$AAs?$AAe?$AA?4?$AAc?$AAp?$AAp?$AA?$DL?$AAT@
CONST	SEGMENT
??_C@_1DG@KKOODLBJ@?$AAp?$AAm?$AAc?$AA_?$AAp?$AAa?$AAr?$AAs?$AAe?$AA?4?$AAc?$AAp?$AAp?$AA?$DL?$AAT@ DB 'p'
	DB	00H, 'm', 00H, 'c', 00H, '_', 00H, 'p', 00H, 'a', 00H, 'r', 00H
	DB	's', 00H, 'e', 00H, '.', 00H, 'c', 00H, 'p', 00H, 'p', 00H, ';'
	DB	00H, 'T', 00H, 'r', 00H, 'y', 00H, 'P', 00H, 'a', 00H, 'r', 00H
	DB	's', 00H, 'e', 00H, 'D', 00H, 'N', 00H, ';', 00H, '3', 00H, 00H
	DB	00H						; `string'
CONST	ENDS
;	COMDAT ??_C@_1DG@BCFCFMHM@?$AAp?$AAm?$AAc?$AA_?$AAp?$AAa?$AAr?$AAs?$AAe?$AA?4?$AAc?$AAp?$AAp?$AA?$DL?$AAT@
CONST	SEGMENT
??_C@_1DG@BCFCFMHM@?$AAp?$AAm?$AAc?$AA_?$AAp?$AAa?$AAr?$AAs?$AAe?$AA?4?$AAc?$AAp?$AAp?$AA?$DL?$AAT@ DB 'p'
	DB	00H, 'm', 00H, 'c', 00H, '_', 00H, 'p', 00H, 'a', 00H, 'r', 00H
	DB	's', 00H, 'e', 00H, '.', 00H, 'c', 00H, 'p', 00H, 'p', 00H, ';'
	DB	00H, 'T', 00H, 'r', 00H, 'y', 00H, 'P', 00H, 'a', 00H, 'r', 00H
	DB	's', 00H, 'e', 00H, 'D', 00H, 'N', 00H, ';', 00H, '2', 00H, 00H
	DB	00H						; `string'
CONST	ENDS
;	COMDAT ??_C@_1DG@OHPDJC@?$AAp?$AAm?$AAc?$AA_?$AAp?$AAa?$AAr?$AAs?$AAe?$AA?4?$AAc?$AAp?$AAp?$AA?$DL?$AAT@
CONST	SEGMENT
??_C@_1DG@OHPDJC@?$AAp?$AAm?$AAc?$AA_?$AAp?$AAa?$AAr?$AAs?$AAe?$AA?4?$AAc?$AAp?$AAp?$AA?$DL?$AAT@ DB 'p'
	DB	00H, 'm', 00H, 'c', 00H, '_', 00H, 'p', 00H, 'a', 00H, 'r', 00H
	DB	's', 00H, 'e', 00H, '.', 00H, 'c', 00H, 'p', 00H, 'p', 00H, ';'
	DB	00H, 'T', 00H, 'r', 00H, 'y', 00H, 'P', 00H, 'a', 00H, 'r', 00H
	DB	's', 00H, 'e', 00H, 'D', 00H, 'N', 00H, ';', 00H, '1', 00H, 00H
	DB	00H						; `string'
CONST	ENDS
;	COMDAT ??_C@_13DIBMAFH@?$AA?$CJ@
CONST	SEGMENT
??_C@_13DIBMAFH@?$AA?$CJ@ DB ')', 00H, 00H, 00H		; `string'
CONST	ENDS
;	COMDAT ??_C@_13LLDNKHDC@?$AA?$CI@
CONST	SEGMENT
??_C@_13LLDNKHDC@?$AA?$CI@ DB '(', 00H, 00H, 00H	; `string'
CONST	ENDS
;	COMDAT ??_C@_13HOIJIPNN@?$AA?5@
CONST	SEGMENT
??_C@_13HOIJIPNN@?$AA?5@ DB ' ', 00H, 00H, 00H		; `string'
CONST	ENDS
;	COMDAT ??_C@_13JDNADJOG@?$PP?$KA@
CONST	SEGMENT
??_C@_13JDNADJOG@?$PP?$KA@ DB 0a0H, 00H, 00H, 00H	; `string'
CONST	ENDS
;	COMDAT ??_C@_1EK@MEBBKDKE@?$AAp?$AAm?$AAc?$AA_?$AAp?$AAa?$AAr?$AAs?$AAe?$AA?$DL?$AAP?$AAa?$AAr?$AAs?$AAe@
CONST	SEGMENT
??_C@_1EK@MEBBKDKE@?$AAp?$AAm?$AAc?$AA_?$AAp?$AAa?$AAr?$AAs?$AAe?$AA?$DL?$AAP?$AAa?$AAr?$AAs?$AAe@ DB 'p'
	DB	00H, 'm', 00H, 'c', 00H, '_', 00H, 'p', 00H, 'a', 00H, 'r', 00H
	DB	's', 00H, 'e', 00H, ';', 00H, 'P', 00H, 'a', 00H, 'r', 00H, 's'
	DB	00H, 'e', 00H, 'r', 00H, 'S', 00H, 't', 00H, 'a', 00H, 't', 00H
	DB	'e', 00H, ':', 00H, ':', 00H, 'P', 00H, 'a', 00H, 'r', 00H, 's'
	DB	00H, 'e', 00H, 'r', 00H, 'S', 00H, 't', 00H, 'a', 00H, 't', 00H
	DB	'e', 00H, ';', 00H, '7', 00H, 00H, 00H	; `string'
CONST	ENDS
;	COMDAT ??_C@_1EK@HMKNMEMB@?$AAp?$AAm?$AAc?$AA_?$AAp?$AAa?$AAr?$AAs?$AAe?$AA?$DL?$AAP?$AAa?$AAr?$AAs?$AAe@
CONST	SEGMENT
??_C@_1EK@HMKNMEMB@?$AAp?$AAm?$AAc?$AA_?$AAp?$AAa?$AAr?$AAs?$AAe?$AA?$DL?$AAP?$AAa?$AAr?$AAs?$AAe@ DB 'p'
	DB	00H, 'm', 00H, 'c', 00H, '_', 00H, 'p', 00H, 'a', 00H, 'r', 00H
	DB	's', 00H, 'e', 00H, ';', 00H, 'P', 00H, 'a', 00H, 'r', 00H, 's'
	DB	00H, 'e', 00H, 'r', 00H, 'S', 00H, 't', 00H, 'a', 00H, 't', 00H
	DB	'e', 00H, ':', 00H, ':', 00H, 'P', 00H, 'a', 00H, 'r', 00H, 's'
	DB	00H, 'e', 00H, 'r', 00H, 'S', 00H, 't', 00H, 'a', 00H, 't', 00H
	DB	'e', 00H, ';', 00H, '6', 00H, 00H, 00H	; `string'
CONST	ENDS
;	COMDAT ??_C@_1EK@GOBIGLCP@?$AAp?$AAm?$AAc?$AA_?$AAp?$AAa?$AAr?$AAs?$AAe?$AA?$DL?$AAP?$AAa?$AAr?$AAs?$AAe@
CONST	SEGMENT
??_C@_1EK@GOBIGLCP@?$AAp?$AAm?$AAc?$AA_?$AAp?$AAa?$AAr?$AAs?$AAe?$AA?$DL?$AAP?$AAa?$AAr?$AAs?$AAe@ DB 'p'
	DB	00H, 'm', 00H, 'c', 00H, '_', 00H, 'p', 00H, 'a', 00H, 'r', 00H
	DB	's', 00H, 'e', 00H, ';', 00H, 'P', 00H, 'a', 00H, 'r', 00H, 's'
	DB	00H, 'e', 00H, 'r', 00H, 'S', 00H, 't', 00H, 'a', 00H, 't', 00H
	DB	'e', 00H, ':', 00H, ':', 00H, 'P', 00H, 'a', 00H, 'r', 00H, 's'
	DB	00H, 'e', 00H, 'r', 00H, 'S', 00H, 't', 00H, 'a', 00H, 't', 00H
	DB	'e', 00H, ';', 00H, '5', 00H, 00H, 00H	; `string'
CONST	ENDS
;	COMDAT ??_C@_1EK@NGKEAMEK@?$AAp?$AAm?$AAc?$AA_?$AAp?$AAa?$AAr?$AAs?$AAe?$AA?$DL?$AAP?$AAa?$AAr?$AAs?$AAe@
CONST	SEGMENT
??_C@_1EK@NGKEAMEK@?$AAp?$AAm?$AAc?$AA_?$AAp?$AAa?$AAr?$AAs?$AAe?$AA?$DL?$AAP?$AAa?$AAr?$AAs?$AAe@ DB 'p'
	DB	00H, 'm', 00H, 'c', 00H, '_', 00H, 'p', 00H, 'a', 00H, 'r', 00H
	DB	's', 00H, 'e', 00H, ';', 00H, 'P', 00H, 'a', 00H, 'r', 00H, 's'
	DB	00H, 'e', 00H, 'r', 00H, 'S', 00H, 't', 00H, 'a', 00H, 't', 00H
	DB	'e', 00H, ':', 00H, ':', 00H, 'P', 00H, 'a', 00H, 'r', 00H, 's'
	DB	00H, 'e', 00H, 'r', 00H, 'S', 00H, 't', 00H, 'a', 00H, 't', 00H
	DB	'e', 00H, ';', 00H, '4', 00H, 00H, 00H	; `string'
CONST	ENDS
;	COMDAT ??_C@_1EK@ELHDDEPD@?$AAp?$AAm?$AAc?$AA_?$AAp?$AAa?$AAr?$AAs?$AAe?$AA?$DL?$AAP?$AAa?$AAr?$AAs?$AAe@
CONST	SEGMENT
??_C@_1EK@ELHDDEPD@?$AAp?$AAm?$AAc?$AA_?$AAp?$AAa?$AAr?$AAs?$AAe?$AA?$DL?$AAP?$AAa?$AAr?$AAs?$AAe@ DB 'p'
	DB	00H, 'm', 00H, 'c', 00H, '_', 00H, 'p', 00H, 'a', 00H, 'r', 00H
	DB	's', 00H, 'e', 00H, ';', 00H, 'P', 00H, 'a', 00H, 'r', 00H, 's'
	DB	00H, 'e', 00H, 'r', 00H, 'S', 00H, 't', 00H, 'a', 00H, 't', 00H
	DB	'e', 00H, ':', 00H, ':', 00H, 'P', 00H, 'a', 00H, 'r', 00H, 's'
	DB	00H, 'e', 00H, 'r', 00H, 'S', 00H, 't', 00H, 'a', 00H, 't', 00H
	DB	'e', 00H, ';', 00H, '3', 00H, 00H, 00H	; `string'
CONST	ENDS
;	COMDAT ??_C@_1EK@PDMPFDJG@?$AAp?$AAm?$AAc?$AA_?$AAp?$AAa?$AAr?$AAs?$AAe?$AA?$DL?$AAP?$AAa?$AAr?$AAs?$AAe@
CONST	SEGMENT
??_C@_1EK@PDMPFDJG@?$AAp?$AAm?$AAc?$AA_?$AAp?$AAa?$AAr?$AAs?$AAe?$AA?$DL?$AAP?$AAa?$AAr?$AAs?$AAe@ DB 'p'
	DB	00H, 'm', 00H, 'c', 00H, '_', 00H, 'p', 00H, 'a', 00H, 'r', 00H
	DB	's', 00H, 'e', 00H, ';', 00H, 'P', 00H, 'a', 00H, 'r', 00H, 's'
	DB	00H, 'e', 00H, 'r', 00H, 'S', 00H, 't', 00H, 'a', 00H, 't', 00H
	DB	'e', 00H, ':', 00H, ':', 00H, 'P', 00H, 'a', 00H, 'r', 00H, 's'
	DB	00H, 'e', 00H, 'r', 00H, 'S', 00H, 't', 00H, 'a', 00H, 't', 00H
	DB	'e', 00H, ';', 00H, '2', 00H, 00H, 00H	; `string'
CONST	ENDS
;	COMDAT ??_C@_1EK@OBHKPMHI@?$AAp?$AAm?$AAc?$AA_?$AAp?$AAa?$AAr?$AAs?$AAe?$AA?$DL?$AAP?$AAa?$AAr?$AAs?$AAe@
CONST	SEGMENT
??_C@_1EK@OBHKPMHI@?$AAp?$AAm?$AAc?$AA_?$AAp?$AAa?$AAr?$AAs?$AAe?$AA?$DL?$AAP?$AAa?$AAr?$AAs?$AAe@ DB 'p'
	DB	00H, 'm', 00H, 'c', 00H, '_', 00H, 'p', 00H, 'a', 00H, 'r', 00H
	DB	's', 00H, 'e', 00H, ';', 00H, 'P', 00H, 'a', 00H, 'r', 00H, 's'
	DB	00H, 'e', 00H, 'r', 00H, 'S', 00H, 't', 00H, 'a', 00H, 't', 00H
	DB	'e', 00H, ':', 00H, ':', 00H, 'P', 00H, 'a', 00H, 'r', 00H, 's'
	DB	00H, 'e', 00H, 'r', 00H, 'S', 00H, 't', 00H, 'a', 00H, 't', 00H
	DB	'e', 00H, ';', 00H, '1', 00H, 00H, 00H	; `string'
CONST	ENDS
;	COMDAT ??_C@_1CO@JABAMCFP@?$PP?x?$AAM?$PP?$LM?$AA?$HP?$AAH?$PP?P?$PP?C?$PP?U?$PP?$KB?$AAn?$PP?$LF?$PP?$KE?$PP?$LK?$AAL?$AA?$AN@
CONST	SEGMENT
??_C@_1CO@JABAMCFP@?$PP?x?$AAM?$PP?$LM?$AA?$HP?$AAH?$PP?P?$PP?C?$PP?U?$PP?$KB?$AAn?$PP?$LF?$PP?$KE?$PP?$LK?$AAL?$AA?$AN@ DB 0f8H
	DB	'fM0', 0bcH, 08fH, 07fH, '0HQ', 0d0H, '0', 0c3H, '0', 0d5H, '0'
	DB	0a1H, '0n0', 0b5H, '0', 0a4H, '0', 0baH, '0L0', 0dH, 'N', 0b3H
	DB	08dH, 'W0f0D0~0Y0', 02H, '0', 00H, 00H	; `string'
CONST	ENDS
;	COMDAT _CT??_R0?AVInsufficientBufferException@Internal@Core@Math@Palmtree@@@8??0InsufficientBufferException@Internal@Core@Math@Palmtree@@QEAA@AEBV01234@@Z48
xdata$x	SEGMENT
_CT??_R0?AVInsufficientBufferException@Internal@Core@Math@Palmtree@@@8??0InsufficientBufferException@Internal@Core@Math@Palmtree@@QEAA@AEBV01234@@Z48 DD 00H
	DD	imagerel ??_R0?AVInsufficientBufferException@Internal@Core@Math@Palmtree@@@8
	DD	00H
	DD	0ffffffffH
	ORG $+4
	DD	030H
	DD	imagerel ??0InsufficientBufferException@Internal@Core@Math@Palmtree@@QEAA@AEBV01234@@Z
xdata$x	ENDS
;	COMDAT ??_R0?AVInsufficientBufferException@Internal@Core@Math@Palmtree@@@8
data$r	SEGMENT
??_R0?AVInsufficientBufferException@Internal@Core@Math@Palmtree@@@8 DQ FLAT:??_7type_info@@6B@ ; Palmtree::Math::Core::Internal::InsufficientBufferException `RTTI Type Descriptor'
	DQ	0000000000000000H
	DB	'.?AVInsufficientBufferException@Internal@Core@Math@Palmt'
	DB	'ree@@', 00H
data$r	ENDS
;	COMDAT _CTA2?AVInsufficientBufferException@Internal@Core@Math@Palmtree@@
xdata$x	SEGMENT
_CTA2?AVInsufficientBufferException@Internal@Core@Math@Palmtree@@ DD 02H
	DD	imagerel _CT??_R0?AVInsufficientBufferException@Internal@Core@Math@Palmtree@@@8??0InsufficientBufferException@Internal@Core@Math@Palmtree@@QEAA@AEBV01234@@Z48
	DD	imagerel _CT??_R0?AVException@Internal@Core@Math@Palmtree@@@8??0Exception@Internal@Core@Math@Palmtree@@QEAA@AEBV01234@@Z48
xdata$x	ENDS
;	COMDAT _TI2?AVInsufficientBufferException@Internal@Core@Math@Palmtree@@
xdata$x	SEGMENT
_TI2?AVInsufficientBufferException@Internal@Core@Math@Palmtree@@ DD 00H
	DD	imagerel ??1InsufficientBufferException@Internal@Core@Math@Palmtree@@UEAA@XZ
	DD	00H
	DD	imagerel _CTA2?AVInsufficientBufferException@Internal@Core@Math@Palmtree@@
xdata$x	ENDS
;	COMDAT ??_7StringWriter@Internal@Core@Math@Palmtree@@6B@
CONST	SEGMENT
??_7StringWriter@Internal@Core@Math@Palmtree@@6B@ DQ FLAT:??_R4StringWriter@Internal@Core@Math@Palmtree@@6B@ ; Palmtree::Math::Core::Internal::StringWriter::`vftable'
	DQ	FLAT:?Write@StringWriter@Internal@Core@Math@Palmtree@@UEAAXPEB_W@Z
	DQ	FLAT:?Write@StringWriter@Internal@Core@Math@Palmtree@@UEAAX_W@Z
	DQ	FLAT:?GetString@StringWriter@Internal@Core@Math@Palmtree@@UEAAPEA_WXZ
CONST	ENDS
;	COMDAT ??_C@_1FE@KONPIGEM@?$AAp?$AAm?$AAc?$AA_?$AAs?$AAt?$AAr?$AAi?$AAn?$AAg?$AAi?$AAo?$AA?4?$AAh?$AA?$DL@
CONST	SEGMENT
??_C@_1FE@KONPIGEM@?$AAp?$AAm?$AAc?$AA_?$AAs?$AAt?$AAr?$AAi?$AAn?$AAg?$AAi?$AAo?$AA?4?$AAh?$AA?$DL@ DB 'p'
	DB	00H, 'm', 00H, 'c', 00H, '_', 00H, 's', 00H, 't', 00H, 'r', 00H
	DB	'i', 00H, 'n', 00H, 'g', 00H, 'i', 00H, 'o', 00H, '.', 00H, 'h'
	DB	00H, ';', 00H, 'S', 00H, 't', 00H, 'r', 00H, 'i', 00H, 'n', 00H
	DB	'g', 00H, 'R', 00H, 'e', 00H, 'a', 00H, 'd', 00H, 'e', 00H, 'r'
	DB	00H, ':', 00H, ':', 00H, 'S', 00H, 'k', 00H, 'i', 00H, 'p', 00H
	DB	'S', 00H, 't', 00H, 'r', 00H, 'i', 00H, 'n', 00H, 'g', 00H, ';'
	DB	00H, '1', 00H, 00H, 00H			; `string'
CONST	ENDS
;	COMDAT ??_C@_1BM@FCPAHMHB@?$PP?$IF?$PP?h?$PP?$KI?$PP?i?$PP?$PM?$AAL?$AAz?$AA?$BP?$AAW?$AA?$HO?$AAW?$AA_?$AA?$AC@
CONST	SEGMENT
??_C@_1BM@FCPAHMHB@?$PP?$IF?$PP?h?$PP?$KI?$PP?i?$PP?$PM?$AAL?$AAz?$AA?$BP?$AAW?$AA?$HO?$AAW?$AA_?$AA?$AC@ DB 085H
	DB	'Q', 0e8H, 090H, 0a8H, '0', 0e9H, '0', 0fcH, '0L0zv', 01fH, 'u'
	DB	'W0~0W0_0', 02H, '0', 00H, 00H		; `string'
CONST	ENDS
;	COMDAT ??_C@_1FA@CNGEABBJ@?$AAp?$AAm?$AAc?$AA_?$AAs?$AAt?$AAr?$AAi?$AAn?$AAg?$AAi?$AAo?$AA?4?$AAh?$AA?$DL@
CONST	SEGMENT
??_C@_1FA@CNGEABBJ@?$AAp?$AAm?$AAc?$AA_?$AAs?$AAt?$AAr?$AAi?$AAn?$AAg?$AAi?$AAo?$AA?4?$AAh?$AA?$DL@ DB 'p'
	DB	00H, 'm', 00H, 'c', 00H, '_', 00H, 's', 00H, 't', 00H, 'r', 00H
	DB	'i', 00H, 'n', 00H, 'g', 00H, 'i', 00H, 'o', 00H, '.', 00H, 'h'
	DB	00H, ';', 00H, 'S', 00H, 't', 00H, 'r', 00H, 'i', 00H, 'n', 00H
	DB	'g', 00H, 'R', 00H, 'e', 00H, 'a', 00H, 'd', 00H, 'e', 00H, 'r'
	DB	00H, ':', 00H, ':', 00H, 'P', 00H, 'r', 00H, 'o', 00H, 'g', 00H
	DB	'r', 00H, 'e', 00H, 's', 00H, 's', 00H, ';', 00H, '1', 00H, 00H
	DB	00H						; `string'
CONST	ENDS
;	COMDAT _CT??_R0?AVException@Internal@Core@Math@Palmtree@@@8??0Exception@Internal@Core@Math@Palmtree@@QEAA@AEBV01234@@Z48
xdata$x	SEGMENT
_CT??_R0?AVException@Internal@Core@Math@Palmtree@@@8??0Exception@Internal@Core@Math@Palmtree@@QEAA@AEBV01234@@Z48 DD 00H
	DD	imagerel ??_R0?AVException@Internal@Core@Math@Palmtree@@@8
	DD	00H
	DD	0ffffffffH
	ORG $+4
	DD	030H
	DD	imagerel ??0Exception@Internal@Core@Math@Palmtree@@QEAA@AEBV01234@@Z
xdata$x	ENDS
;	COMDAT ??_R0?AVException@Internal@Core@Math@Palmtree@@@8
data$r	SEGMENT
??_R0?AVException@Internal@Core@Math@Palmtree@@@8 DQ FLAT:??_7type_info@@6B@ ; Palmtree::Math::Core::Internal::Exception `RTTI Type Descriptor'
	DQ	0000000000000000H
	DB	'.?AVException@Internal@Core@Math@Palmtree@@', 00H
data$r	ENDS
;	COMDAT _CT??_R0?AVInternalErrorException@Internal@Core@Math@Palmtree@@@8??0InternalErrorException@Internal@Core@Math@Palmtree@@QEAA@AEBV01234@@Z48
xdata$x	SEGMENT
_CT??_R0?AVInternalErrorException@Internal@Core@Math@Palmtree@@@8??0InternalErrorException@Internal@Core@Math@Palmtree@@QEAA@AEBV01234@@Z48 DD 00H
	DD	imagerel ??_R0?AVInternalErrorException@Internal@Core@Math@Palmtree@@@8
	DD	00H
	DD	0ffffffffH
	ORG $+4
	DD	030H
	DD	imagerel ??0InternalErrorException@Internal@Core@Math@Palmtree@@QEAA@AEBV01234@@Z
xdata$x	ENDS
;	COMDAT ??_R0?AVInternalErrorException@Internal@Core@Math@Palmtree@@@8
data$r	SEGMENT
??_R0?AVInternalErrorException@Internal@Core@Math@Palmtree@@@8 DQ FLAT:??_7type_info@@6B@ ; Palmtree::Math::Core::Internal::InternalErrorException `RTTI Type Descriptor'
	DQ	0000000000000000H
	DB	'.?AVInternalErrorException@Internal@Core@Math@Palmtree@@'
	DB	00H
data$r	ENDS
;	COMDAT _CTA2?AVInternalErrorException@Internal@Core@Math@Palmtree@@
xdata$x	SEGMENT
_CTA2?AVInternalErrorException@Internal@Core@Math@Palmtree@@ DD 02H
	DD	imagerel _CT??_R0?AVInternalErrorException@Internal@Core@Math@Palmtree@@@8??0InternalErrorException@Internal@Core@Math@Palmtree@@QEAA@AEBV01234@@Z48
	DD	imagerel _CT??_R0?AVException@Internal@Core@Math@Palmtree@@@8??0Exception@Internal@Core@Math@Palmtree@@QEAA@AEBV01234@@Z48
xdata$x	ENDS
;	COMDAT _TI2?AVInternalErrorException@Internal@Core@Math@Palmtree@@
xdata$x	SEGMENT
_TI2?AVInternalErrorException@Internal@Core@Math@Palmtree@@ DD 00H
	DD	imagerel ??1InternalErrorException@Internal@Core@Math@Palmtree@@UEAA@XZ
	DD	00H
	DD	imagerel _CTA2?AVInternalErrorException@Internal@Core@Math@Palmtree@@
xdata$x	ENDS
;	COMDAT ??_7StringReader@Internal@Core@Math@Palmtree@@6B@
CONST	SEGMENT
??_7StringReader@Internal@Core@Math@Palmtree@@6B@ DQ FLAT:??_R4StringReader@Internal@Core@Math@Palmtree@@6B@ ; Palmtree::Math::Core::Internal::StringReader::`vftable'
	DQ	FLAT:?PeekChar@StringReader@Internal@Core@Math@Palmtree@@UEAA_WXZ
	DQ	FLAT:?Progress@StringReader@Internal@Core@Math@Palmtree@@UEAAXXZ
	DQ	FLAT:?StartsWith@StringReader@Internal@Core@Math@Palmtree@@UEAAHPEB_W@Z
	DQ	FLAT:?SkipString@StringReader@Internal@Core@Math@Palmtree@@UEAAXPEB_W@Z
CONST	ENDS
;	COMDAT ??_7InternalErrorException@Internal@Core@Math@Palmtree@@6B@
CONST	SEGMENT
??_7InternalErrorException@Internal@Core@Math@Palmtree@@6B@ DQ FLAT:??_R4InternalErrorException@Internal@Core@Math@Palmtree@@6B@ ; Palmtree::Math::Core::Internal::InternalErrorException::`vftable'
	DQ	FLAT:??_EInternalErrorException@Internal@Core@Math@Palmtree@@UEAAPEAXI@Z
	DQ	FLAT:?what@exception@std@@UEBAPEBDXZ
CONST	ENDS
;	COMDAT ??_7InsufficientBufferException@Internal@Core@Math@Palmtree@@6B@
CONST	SEGMENT
??_7InsufficientBufferException@Internal@Core@Math@Palmtree@@6B@ DQ FLAT:??_R4InsufficientBufferException@Internal@Core@Math@Palmtree@@6B@ ; Palmtree::Math::Core::Internal::InsufficientBufferException::`vftable'
	DQ	FLAT:??_EInsufficientBufferException@Internal@Core@Math@Palmtree@@UEAAPEAXI@Z
	DQ	FLAT:?what@exception@std@@UEBAPEBDXZ
CONST	ENDS
;	COMDAT ??_7ArgumentNullException@Internal@Core@Math@Palmtree@@6B@
CONST	SEGMENT
??_7ArgumentNullException@Internal@Core@Math@Palmtree@@6B@ DQ FLAT:??_R4ArgumentNullException@Internal@Core@Math@Palmtree@@6B@ ; Palmtree::Math::Core::Internal::ArgumentNullException::`vftable'
	DQ	FLAT:??_EArgumentNullException@Internal@Core@Math@Palmtree@@UEAAPEAXI@Z
	DQ	FLAT:?what@exception@std@@UEBAPEBDXZ
CONST	ENDS
;	COMDAT ??_7ArgumentException@Internal@Core@Math@Palmtree@@6B@
CONST	SEGMENT
??_7ArgumentException@Internal@Core@Math@Palmtree@@6B@ DQ FLAT:??_R4ArgumentException@Internal@Core@Math@Palmtree@@6B@ ; Palmtree::Math::Core::Internal::ArgumentException::`vftable'
	DQ	FLAT:??_EArgumentException@Internal@Core@Math@Palmtree@@UEAAPEAXI@Z
	DQ	FLAT:?what@exception@std@@UEBAPEBDXZ
CONST	ENDS
;	COMDAT ??_7Exception@Internal@Core@Math@Palmtree@@6B@
CONST	SEGMENT
??_7Exception@Internal@Core@Math@Palmtree@@6B@ DQ FLAT:??_R4Exception@Internal@Core@Math@Palmtree@@6B@ ; Palmtree::Math::Core::Internal::Exception::`vftable'
	DQ	FLAT:??_EException@Internal@Core@Math@Palmtree@@UEAAPEAXI@Z
	DQ	FLAT:?what@exception@std@@UEBAPEBDXZ
CONST	ENDS
;	COMDAT ??_C@_0BC@EOODALEL@Unknown?5exception@
CONST	SEGMENT
??_C@_0BC@EOODALEL@Unknown?5exception@ DB 'Unknown exception', 00H ; `string'
CONST	ENDS
;	COMDAT ??_7exception@std@@6B@
CONST	SEGMENT
??_7exception@std@@6B@ DQ FLAT:??_R4exception@std@@6B@	; std::exception::`vftable'
	DQ	FLAT:??_Eexception@std@@UEAAPEAXI@Z
	DQ	FLAT:?what@exception@std@@UEBAPEBDXZ
CONST	ENDS
;	COMDAT xdata
xdata	SEGMENT
$unwind$?dtor$0@?0??PMC_TryParse_Imp@Internal@Core@Math@Palmtree@@YAHPEB_WHPEBU__tag_PMC_NUMBER_FORMAT_INFO@1234@PEADPEAPEAU__tag_NUMBER_HEADER@1234@PEAI@Z@4HA DD 031001H
	DD	0700c4210H
	DD	0500bH
xdata	ENDS
;	COMDAT xdata
xdata	SEGMENT
$ip2state$?PMC_TryParse_Imp@Internal@Core@Math@Palmtree@@YAHPEB_WHPEBU__tag_PMC_NUMBER_FORMAT_INFO@1234@PEADPEAPEAU__tag_NUMBER_HEADER@1234@PEAI@Z DD imagerel ?PMC_TryParse_Imp@Internal@Core@Math@Palmtree@@YAHPEB_WHPEBU__tag_PMC_NUMBER_FORMAT_INFO@1234@PEADPEAPEAU__tag_NUMBER_HEADER@1234@PEAI@Z
	DD	0ffffffffH
	DD	imagerel ?PMC_TryParse_Imp@Internal@Core@Math@Palmtree@@YAHPEB_WHPEBU__tag_PMC_NUMBER_FORMAT_INFO@1234@PEADPEAPEAU__tag_NUMBER_HEADER@1234@PEAI@Z+89
	DD	00H
	DD	imagerel ?PMC_TryParse_Imp@Internal@Core@Math@Palmtree@@YAHPEB_WHPEBU__tag_PMC_NUMBER_FORMAT_INFO@1234@PEADPEAPEAU__tag_NUMBER_HEADER@1234@PEAI@Z+258
	DD	0ffffffffH
	DD	imagerel ?PMC_TryParse_Imp@Internal@Core@Math@Palmtree@@YAHPEB_WHPEBU__tag_PMC_NUMBER_FORMAT_INFO@1234@PEADPEAPEAU__tag_NUMBER_HEADER@1234@PEAI@Z+278
	DD	00H
	DD	imagerel ?PMC_TryParse_Imp@Internal@Core@Math@Palmtree@@YAHPEB_WHPEBU__tag_PMC_NUMBER_FORMAT_INFO@1234@PEADPEAPEAU__tag_NUMBER_HEADER@1234@PEAI@Z+397
	DD	0ffffffffH
	DD	imagerel ?PMC_TryParse_Imp@Internal@Core@Math@Palmtree@@YAHPEB_WHPEBU__tag_PMC_NUMBER_FORMAT_INFO@1234@PEADPEAPEAU__tag_NUMBER_HEADER@1234@PEAI@Z+414
	DD	00H
	DD	imagerel ?PMC_TryParse_Imp@Internal@Core@Math@Palmtree@@YAHPEB_WHPEBU__tag_PMC_NUMBER_FORMAT_INFO@1234@PEADPEAPEAU__tag_NUMBER_HEADER@1234@PEAI@Z+490
	DD	0ffffffffH
xdata	ENDS
;	COMDAT xdata
xdata	SEGMENT
$stateUnwindMap$?PMC_TryParse_Imp@Internal@Core@Math@Palmtree@@YAHPEB_WHPEBU__tag_PMC_NUMBER_FORMAT_INFO@1234@PEADPEAPEAU__tag_NUMBER_HEADER@1234@PEAI@Z DD 0ffffffffH
	DD	imagerel ?dtor$0@?0??PMC_TryParse_Imp@Internal@Core@Math@Palmtree@@YAHPEB_WHPEBU__tag_PMC_NUMBER_FORMAT_INFO@1234@PEADPEAPEAU__tag_NUMBER_HEADER@1234@PEAI@Z@4HA
xdata	ENDS
;	COMDAT xdata
xdata	SEGMENT
$unwind$?PMC_TryParse_Imp@Internal@Core@Math@Palmtree@@YAHPEB_WHPEBU__tag_PMC_NUMBER_FORMAT_INFO@1234@PEADPEAPEAU__tag_NUMBER_HEADER@1234@PEAI@Z DD 035054311H
	DD	011c3321H
	DD	07015004dH
	DD	05014H
	DD	imagerel __CxxFrameHandler3
	DD	imagerel $cppxdata$?PMC_TryParse_Imp@Internal@Core@Math@Palmtree@@YAHPEB_WHPEBU__tag_PMC_NUMBER_FORMAT_INFO@1234@PEADPEAPEAU__tag_NUMBER_HEADER@1234@PEAI@Z
xdata	ENDS
;	COMDAT CONST
CONST	SEGMENT
?PMC_TryParse_Imp@Internal@Core@Math@Palmtree@@YAHPEB_WHPEBU__tag_PMC_NUMBER_FORMAT_INFO@1234@PEADPEAPEAU__tag_NUMBER_HEADER@1234@PEAI@Z$rtcName$0 DB 072H ; Palmtree::Math::Core::Internal::PMC_TryParse_Imp
	DB	06fH
	DB	06fH
	DB	074H
	DB	00H
	ORG $+11
?PMC_TryParse_Imp@Internal@Core@Math@Palmtree@@YAHPEB_WHPEBU__tag_PMC_NUMBER_FORMAT_INFO@1234@PEADPEAPEAU__tag_NUMBER_HEADER@1234@PEAI@Z$rtcVarDesc DD 038H ; Palmtree::Math::Core::Internal::PMC_TryParse_Imp
	DD	020H
	DQ	FLAT:?PMC_TryParse_Imp@Internal@Core@Math@Palmtree@@YAHPEB_WHPEBU__tag_PMC_NUMBER_FORMAT_INFO@1234@PEADPEAPEAU__tag_NUMBER_HEADER@1234@PEAI@Z$rtcName$0
	ORG $+48
?PMC_TryParse_Imp@Internal@Core@Math@Palmtree@@YAHPEB_WHPEBU__tag_PMC_NUMBER_FORMAT_INFO@1234@PEADPEAPEAU__tag_NUMBER_HEADER@1234@PEAI@Z$rtcFrameData DD 01H ; Palmtree::Math::Core::Internal::PMC_TryParse_Imp
	DD	00H
	DQ	FLAT:?PMC_TryParse_Imp@Internal@Core@Math@Palmtree@@YAHPEB_WHPEBU__tag_PMC_NUMBER_FORMAT_INFO@1234@PEADPEAPEAU__tag_NUMBER_HEADER@1234@PEAI@Z$rtcVarDesc
$cppxdata$?PMC_TryParse_Imp@Internal@Core@Math@Palmtree@@YAHPEB_WHPEBU__tag_PMC_NUMBER_FORMAT_INFO@1234@PEADPEAPEAU__tag_NUMBER_HEADER@1234@PEAI@Z DD 019930522H
	DD	01H
	DD	imagerel $stateUnwindMap$?PMC_TryParse_Imp@Internal@Core@Math@Palmtree@@YAHPEB_WHPEBU__tag_PMC_NUMBER_FORMAT_INFO@1234@PEADPEAPEAU__tag_NUMBER_HEADER@1234@PEAI@Z
	DD	00H
	DD	00H
	DD	07H
	DD	imagerel $ip2state$?PMC_TryParse_Imp@Internal@Core@Math@Palmtree@@YAHPEB_WHPEBU__tag_PMC_NUMBER_FORMAT_INFO@1234@PEADPEAPEAU__tag_NUMBER_HEADER@1234@PEAI@Z
	DD	0248H
	DD	00H
	DD	00H
CONST	ENDS
;	COMDAT xdata
xdata	SEGMENT
$unwind$?dtor$0@?0??TryParseX@Internal@Core@Math@Palmtree@@YAHPEB_WIPEBU__tag_PMC_NUMBER_FORMAT_INFO@1234@PEADPEAPEAU__tag_NUMBER_HEADER@1234@PEAI@Z@4HA DD 031001H
	DD	0700c4210H
	DD	0500bH
xdata	ENDS
;	COMDAT xdata
xdata	SEGMENT
$ip2state$?TryParseX@Internal@Core@Math@Palmtree@@YAHPEB_WIPEBU__tag_PMC_NUMBER_FORMAT_INFO@1234@PEADPEAPEAU__tag_NUMBER_HEADER@1234@PEAI@Z DD imagerel ?TryParseX@Internal@Core@Math@Palmtree@@YAHPEB_WIPEBU__tag_PMC_NUMBER_FORMAT_INFO@1234@PEADPEAPEAU__tag_NUMBER_HEADER@1234@PEAI@Z
	DD	0ffffffffH
	DD	imagerel ?TryParseX@Internal@Core@Math@Palmtree@@YAHPEB_WIPEBU__tag_PMC_NUMBER_FORMAT_INFO@1234@PEADPEAPEAU__tag_NUMBER_HEADER@1234@PEAI@Z+89
	DD	00H
	DD	imagerel ?TryParseX@Internal@Core@Math@Palmtree@@YAHPEB_WIPEBU__tag_PMC_NUMBER_FORMAT_INFO@1234@PEADPEAPEAU__tag_NUMBER_HEADER@1234@PEAI@Z+279
	DD	0ffffffffH
	DD	imagerel ?TryParseX@Internal@Core@Math@Palmtree@@YAHPEB_WIPEBU__tag_PMC_NUMBER_FORMAT_INFO@1234@PEADPEAPEAU__tag_NUMBER_HEADER@1234@PEAI@Z+299
	DD	00H
	DD	imagerel ?TryParseX@Internal@Core@Math@Palmtree@@YAHPEB_WIPEBU__tag_PMC_NUMBER_FORMAT_INFO@1234@PEADPEAPEAU__tag_NUMBER_HEADER@1234@PEAI@Z+309
	DD	0ffffffffH
	DD	imagerel ?TryParseX@Internal@Core@Math@Palmtree@@YAHPEB_WIPEBU__tag_PMC_NUMBER_FORMAT_INFO@1234@PEADPEAPEAU__tag_NUMBER_HEADER@1234@PEAI@Z+329
	DD	00H
	DD	imagerel ?TryParseX@Internal@Core@Math@Palmtree@@YAHPEB_WIPEBU__tag_PMC_NUMBER_FORMAT_INFO@1234@PEADPEAPEAU__tag_NUMBER_HEADER@1234@PEAI@Z+954
	DD	0ffffffffH
xdata	ENDS
;	COMDAT xdata
xdata	SEGMENT
$stateUnwindMap$?TryParseX@Internal@Core@Math@Palmtree@@YAHPEB_WIPEBU__tag_PMC_NUMBER_FORMAT_INFO@1234@PEADPEAPEAU__tag_NUMBER_HEADER@1234@PEAI@Z DD 0ffffffffH
	DD	imagerel ?dtor$0@?0??TryParseX@Internal@Core@Math@Palmtree@@YAHPEB_WIPEBU__tag_PMC_NUMBER_FORMAT_INFO@1234@PEADPEAPEAU__tag_NUMBER_HEADER@1234@PEAI@Z@4HA
xdata	ENDS
;	COMDAT xdata
xdata	SEGMENT
$unwind$?TryParseX@Internal@Core@Math@Palmtree@@YAHPEB_WIPEBU__tag_PMC_NUMBER_FORMAT_INFO@1234@PEADPEAPEAU__tag_NUMBER_HEADER@1234@PEAI@Z DD 035054311H
	DD	011c3321H
	DD	070150077H
	DD	05014H
	DD	imagerel __CxxFrameHandler3
	DD	imagerel $cppxdata$?TryParseX@Internal@Core@Math@Palmtree@@YAHPEB_WIPEBU__tag_PMC_NUMBER_FORMAT_INFO@1234@PEADPEAPEAU__tag_NUMBER_HEADER@1234@PEAI@Z
xdata	ENDS
;	COMDAT CONST
CONST	SEGMENT
?TryParseX@Internal@Core@Math@Palmtree@@YAHPEB_WIPEBU__tag_PMC_NUMBER_FORMAT_INFO@1234@PEADPEAPEAU__tag_NUMBER_HEADER@1234@PEAI@Z$rtcName$0 DB 072H ; Palmtree::Math::Core::Internal::TryParseX
	DB	06fH
	DB	06fH
	DB	074H
	DB	00H
	ORG $+11
?TryParseX@Internal@Core@Math@Palmtree@@YAHPEB_WIPEBU__tag_PMC_NUMBER_FORMAT_INFO@1234@PEADPEAPEAU__tag_NUMBER_HEADER@1234@PEAI@Z$rtcVarDesc DD 038H ; Palmtree::Math::Core::Internal::TryParseX
	DD	020H
	DQ	FLAT:?TryParseX@Internal@Core@Math@Palmtree@@YAHPEB_WIPEBU__tag_PMC_NUMBER_FORMAT_INFO@1234@PEADPEAPEAU__tag_NUMBER_HEADER@1234@PEAI@Z$rtcName$0
	ORG $+48
?TryParseX@Internal@Core@Math@Palmtree@@YAHPEB_WIPEBU__tag_PMC_NUMBER_FORMAT_INFO@1234@PEADPEAPEAU__tag_NUMBER_HEADER@1234@PEAI@Z$rtcFrameData DD 01H ; Palmtree::Math::Core::Internal::TryParseX
	DD	00H
	DQ	FLAT:?TryParseX@Internal@Core@Math@Palmtree@@YAHPEB_WIPEBU__tag_PMC_NUMBER_FORMAT_INFO@1234@PEADPEAPEAU__tag_NUMBER_HEADER@1234@PEAI@Z$rtcVarDesc
$cppxdata$?TryParseX@Internal@Core@Math@Palmtree@@YAHPEB_WIPEBU__tag_PMC_NUMBER_FORMAT_INFO@1234@PEADPEAPEAU__tag_NUMBER_HEADER@1234@PEAI@Z DD 019930522H
	DD	01H
	DD	imagerel $stateUnwindMap$?TryParseX@Internal@Core@Math@Palmtree@@YAHPEB_WIPEBU__tag_PMC_NUMBER_FORMAT_INFO@1234@PEADPEAPEAU__tag_NUMBER_HEADER@1234@PEAI@Z
	DD	00H
	DD	00H
	DD	07H
	DD	imagerel $ip2state$?TryParseX@Internal@Core@Math@Palmtree@@YAHPEB_WIPEBU__tag_PMC_NUMBER_FORMAT_INFO@1234@PEADPEAPEAU__tag_NUMBER_HEADER@1234@PEAI@Z
	DD	0398H
	DD	00H
	DD	00H
CONST	ENDS
;	COMDAT xdata
xdata	SEGMENT
$unwind$?dtor$0@?0??ParseAsHexNumberString@Internal@Core@Math@Palmtree@@YAHPEB_WIPEBU__tag_PMC_NUMBER_FORMAT_INFO@1234@PEA_W_K@Z@4HA DD 031001H
	DD	0700c4210H
	DD	0500bH
xdata	ENDS
;	COMDAT xdata
xdata	SEGMENT
$ip2state$?ParseAsHexNumberString@Internal@Core@Math@Palmtree@@YAHPEB_WIPEBU__tag_PMC_NUMBER_FORMAT_INFO@1234@PEA_W_K@Z DD imagerel ?ParseAsHexNumberString@Internal@Core@Math@Palmtree@@YAHPEB_WIPEBU__tag_PMC_NUMBER_FORMAT_INFO@1234@PEA_W_K@Z
	DD	0ffffffffH
	DD	imagerel ?ParseAsHexNumberString@Internal@Core@Math@Palmtree@@YAHPEB_WIPEBU__tag_PMC_NUMBER_FORMAT_INFO@1234@PEA_W_K@Z+178
	DD	00H
	DD	imagerel ?ParseAsHexNumberString@Internal@Core@Math@Palmtree@@YAHPEB_WIPEBU__tag_PMC_NUMBER_FORMAT_INFO@1234@PEA_W_K@Z+193
	DD	0ffffffffH
xdata	ENDS
;	COMDAT xdata
xdata	SEGMENT
$stateUnwindMap$?ParseAsHexNumberString@Internal@Core@Math@Palmtree@@YAHPEB_WIPEBU__tag_PMC_NUMBER_FORMAT_INFO@1234@PEA_W_K@Z DD 0ffffffffH
	DD	imagerel ?dtor$0@?0??ParseAsHexNumberString@Internal@Core@Math@Palmtree@@YAHPEB_WIPEBU__tag_PMC_NUMBER_FORMAT_INFO@1234@PEA_W_K@Z@4HA
xdata	ENDS
;	COMDAT xdata
xdata	SEGMENT
$unwind$?ParseAsHexNumberString@Internal@Core@Math@Palmtree@@YAHPEB_WIPEBU__tag_PMC_NUMBER_FORMAT_INFO@1234@PEA_W_K@Z DD 055055419H
	DD	011c5321H
	DD	07015005bH
	DD	05014H
	DD	imagerel __GSHandlerCheck_EH
	DD	imagerel $cppxdata$?ParseAsHexNumberString@Internal@Core@Math@Palmtree@@YAHPEB_WIPEBU__tag_PMC_NUMBER_FORMAT_INFO@1234@PEA_W_K@Z
	DD	02caH
xdata	ENDS
;	COMDAT CONST
CONST	SEGMENT
?ParseAsHexNumberString@Internal@Core@Math@Palmtree@@YAHPEB_WIPEBU__tag_PMC_NUMBER_FORMAT_INFO@1234@PEA_W_K@Z$rtcName$0 DB 064H ; Palmtree::Math::Core::Internal::ParseAsHexNumberString
	DB	075H
	DB	06dH
	DB	06dH
	DB	079H
	DB	05fH
	DB	073H
	DB	069H
	DB	067H
	DB	06eH
	DB	00H
	ORG $+1
?ParseAsHexNumberString@Internal@Core@Math@Palmtree@@YAHPEB_WIPEBU__tag_PMC_NUMBER_FORMAT_INFO@1234@PEA_W_K@Z$rtcName$1 DB 073H ; Palmtree::Math::Core::Internal::ParseAsHexNumberString
	DB	074H
	DB	061H
	DB	074H
	DB	065H
	DB	00H
	ORG $+14
?ParseAsHexNumberString@Internal@Core@Math@Palmtree@@YAHPEB_WIPEBU__tag_PMC_NUMBER_FORMAT_INFO@1234@PEA_W_K@Z$rtcVarDesc DD 080H ; Palmtree::Math::Core::Internal::ParseAsHexNumberString
	DD	0140H
	DQ	FLAT:?ParseAsHexNumberString@Internal@Core@Math@Palmtree@@YAHPEB_WIPEBU__tag_PMC_NUMBER_FORMAT_INFO@1234@PEA_W_K@Z$rtcName$1
	DD	054H
	DD	01H
	DQ	FLAT:?ParseAsHexNumberString@Internal@Core@Math@Palmtree@@YAHPEB_WIPEBU__tag_PMC_NUMBER_FORMAT_INFO@1234@PEA_W_K@Z$rtcName$0
	ORG $+96
?ParseAsHexNumberString@Internal@Core@Math@Palmtree@@YAHPEB_WIPEBU__tag_PMC_NUMBER_FORMAT_INFO@1234@PEA_W_K@Z$rtcFrameData DD 02H ; Palmtree::Math::Core::Internal::ParseAsHexNumberString
	DD	00H
	DQ	FLAT:?ParseAsHexNumberString@Internal@Core@Math@Palmtree@@YAHPEB_WIPEBU__tag_PMC_NUMBER_FORMAT_INFO@1234@PEA_W_K@Z$rtcVarDesc
$cppxdata$?ParseAsHexNumberString@Internal@Core@Math@Palmtree@@YAHPEB_WIPEBU__tag_PMC_NUMBER_FORMAT_INFO@1234@PEA_W_K@Z DD 019930522H
	DD	01H
	DD	imagerel $stateUnwindMap$?ParseAsHexNumberString@Internal@Core@Math@Palmtree@@YAHPEB_WIPEBU__tag_PMC_NUMBER_FORMAT_INFO@1234@PEA_W_K@Z
	DD	00H
	DD	00H
	DD	03H
	DD	imagerel $ip2state$?ParseAsHexNumberString@Internal@Core@Math@Palmtree@@YAHPEB_WIPEBU__tag_PMC_NUMBER_FORMAT_INFO@1234@PEA_W_K@Z
	DD	02b8H
	DD	00H
	DD	00H
CONST	ENDS
;	COMDAT xdata
xdata	SEGMENT
$unwind$?BuildBinaryFromHexString@Internal@Core@Math@Palmtree@@YAXPEA_WPEA_K@Z DD 025052f01H
	DD	01132318H
	DD	0700c0031H
	DD	0500bH
xdata	ENDS
;	COMDAT xdata
xdata	SEGMENT
$unwind$?Build1WordFromHexString@Internal@Core@Math@Palmtree@@YA_KPEA_W@Z DD 025052a01H
	DD	010e2313H
	DD	070070021H
	DD	05006H
xdata	ENDS
;	COMDAT xdata
xdata	SEGMENT
$unwind$?BuildLeading1WordFromHexString@Internal@Core@Math@Palmtree@@YA_KPEA_W_K@Z DD 025052f01H
	DD	01132318H
	DD	0700c0021H
	DD	0500bH
xdata	ENDS
;	COMDAT xdata
xdata	SEGMENT
$unwind$?dtor$0@?0??TryParseDN@Internal@Core@Math@Palmtree@@YAHPEB_WIPEBU__tag_PMC_NUMBER_FORMAT_INFO@1234@PEADPEAPEAU__tag_NUMBER_HEADER@1234@PEAI@Z@4HA DD 031001H
	DD	0700c4210H
	DD	0500bH
xdata	ENDS
;	COMDAT xdata
xdata	SEGMENT
$ip2state$?TryParseDN@Internal@Core@Math@Palmtree@@YAHPEB_WIPEBU__tag_PMC_NUMBER_FORMAT_INFO@1234@PEADPEAPEAU__tag_NUMBER_HEADER@1234@PEAI@Z DD imagerel ?TryParseDN@Internal@Core@Math@Palmtree@@YAHPEB_WIPEBU__tag_PMC_NUMBER_FORMAT_INFO@1234@PEADPEAPEAU__tag_NUMBER_HEADER@1234@PEAI@Z
	DD	0ffffffffH
	DD	imagerel ?TryParseDN@Internal@Core@Math@Palmtree@@YAHPEB_WIPEBU__tag_PMC_NUMBER_FORMAT_INFO@1234@PEADPEAPEAU__tag_NUMBER_HEADER@1234@PEAI@Z+96
	DD	00H
	DD	imagerel ?TryParseDN@Internal@Core@Math@Palmtree@@YAHPEB_WIPEBU__tag_PMC_NUMBER_FORMAT_INFO@1234@PEADPEAPEAU__tag_NUMBER_HEADER@1234@PEAI@Z+383
	DD	0ffffffffH
	DD	imagerel ?TryParseDN@Internal@Core@Math@Palmtree@@YAHPEB_WIPEBU__tag_PMC_NUMBER_FORMAT_INFO@1234@PEADPEAPEAU__tag_NUMBER_HEADER@1234@PEAI@Z+403
	DD	00H
	DD	imagerel ?TryParseDN@Internal@Core@Math@Palmtree@@YAHPEB_WIPEBU__tag_PMC_NUMBER_FORMAT_INFO@1234@PEADPEAPEAU__tag_NUMBER_HEADER@1234@PEAI@Z+413
	DD	0ffffffffH
	DD	imagerel ?TryParseDN@Internal@Core@Math@Palmtree@@YAHPEB_WIPEBU__tag_PMC_NUMBER_FORMAT_INFO@1234@PEADPEAPEAU__tag_NUMBER_HEADER@1234@PEAI@Z+433
	DD	00H
	DD	imagerel ?TryParseDN@Internal@Core@Math@Palmtree@@YAHPEB_WIPEBU__tag_PMC_NUMBER_FORMAT_INFO@1234@PEADPEAPEAU__tag_NUMBER_HEADER@1234@PEAI@Z+572
	DD	0ffffffffH
	DD	imagerel ?TryParseDN@Internal@Core@Math@Palmtree@@YAHPEB_WIPEBU__tag_PMC_NUMBER_FORMAT_INFO@1234@PEADPEAPEAU__tag_NUMBER_HEADER@1234@PEAI@Z+592
	DD	00H
	DD	imagerel ?TryParseDN@Internal@Core@Math@Palmtree@@YAHPEB_WIPEBU__tag_PMC_NUMBER_FORMAT_INFO@1234@PEADPEAPEAU__tag_NUMBER_HEADER@1234@PEAI@Z+602
	DD	0ffffffffH
	DD	imagerel ?TryParseDN@Internal@Core@Math@Palmtree@@YAHPEB_WIPEBU__tag_PMC_NUMBER_FORMAT_INFO@1234@PEADPEAPEAU__tag_NUMBER_HEADER@1234@PEAI@Z+622
	DD	00H
	DD	imagerel ?TryParseDN@Internal@Core@Math@Palmtree@@YAHPEB_WIPEBU__tag_PMC_NUMBER_FORMAT_INFO@1234@PEADPEAPEAU__tag_NUMBER_HEADER@1234@PEAI@Z+713
	DD	0ffffffffH
	DD	imagerel ?TryParseDN@Internal@Core@Math@Palmtree@@YAHPEB_WIPEBU__tag_PMC_NUMBER_FORMAT_INFO@1234@PEADPEAPEAU__tag_NUMBER_HEADER@1234@PEAI@Z+733
	DD	00H
	DD	imagerel ?TryParseDN@Internal@Core@Math@Palmtree@@YAHPEB_WIPEBU__tag_PMC_NUMBER_FORMAT_INFO@1234@PEADPEAPEAU__tag_NUMBER_HEADER@1234@PEAI@Z+743
	DD	0ffffffffH
	DD	imagerel ?TryParseDN@Internal@Core@Math@Palmtree@@YAHPEB_WIPEBU__tag_PMC_NUMBER_FORMAT_INFO@1234@PEADPEAPEAU__tag_NUMBER_HEADER@1234@PEAI@Z+763
	DD	00H
	DD	imagerel ?TryParseDN@Internal@Core@Math@Palmtree@@YAHPEB_WIPEBU__tag_PMC_NUMBER_FORMAT_INFO@1234@PEADPEAPEAU__tag_NUMBER_HEADER@1234@PEAI@Z+1150
	DD	0ffffffffH
	DD	imagerel ?TryParseDN@Internal@Core@Math@Palmtree@@YAHPEB_WIPEBU__tag_PMC_NUMBER_FORMAT_INFO@1234@PEADPEAPEAU__tag_NUMBER_HEADER@1234@PEAI@Z+1170
	DD	00H
	DD	imagerel ?TryParseDN@Internal@Core@Math@Palmtree@@YAHPEB_WIPEBU__tag_PMC_NUMBER_FORMAT_INFO@1234@PEADPEAPEAU__tag_NUMBER_HEADER@1234@PEAI@Z+1180
	DD	0ffffffffH
	DD	imagerel ?TryParseDN@Internal@Core@Math@Palmtree@@YAHPEB_WIPEBU__tag_PMC_NUMBER_FORMAT_INFO@1234@PEADPEAPEAU__tag_NUMBER_HEADER@1234@PEAI@Z+1200
	DD	00H
	DD	imagerel ?TryParseDN@Internal@Core@Math@Palmtree@@YAHPEB_WIPEBU__tag_PMC_NUMBER_FORMAT_INFO@1234@PEADPEAPEAU__tag_NUMBER_HEADER@1234@PEAI@Z+1348
	DD	0ffffffffH
	DD	imagerel ?TryParseDN@Internal@Core@Math@Palmtree@@YAHPEB_WIPEBU__tag_PMC_NUMBER_FORMAT_INFO@1234@PEADPEAPEAU__tag_NUMBER_HEADER@1234@PEAI@Z+1368
	DD	00H
	DD	imagerel ?TryParseDN@Internal@Core@Math@Palmtree@@YAHPEB_WIPEBU__tag_PMC_NUMBER_FORMAT_INFO@1234@PEADPEAPEAU__tag_NUMBER_HEADER@1234@PEAI@Z+1378
	DD	0ffffffffH
	DD	imagerel ?TryParseDN@Internal@Core@Math@Palmtree@@YAHPEB_WIPEBU__tag_PMC_NUMBER_FORMAT_INFO@1234@PEADPEAPEAU__tag_NUMBER_HEADER@1234@PEAI@Z+1398
	DD	00H
	DD	imagerel ?TryParseDN@Internal@Core@Math@Palmtree@@YAHPEB_WIPEBU__tag_PMC_NUMBER_FORMAT_INFO@1234@PEADPEAPEAU__tag_NUMBER_HEADER@1234@PEAI@Z+2010
	DD	0ffffffffH
xdata	ENDS
;	COMDAT xdata
xdata	SEGMENT
$stateUnwindMap$?TryParseDN@Internal@Core@Math@Palmtree@@YAHPEB_WIPEBU__tag_PMC_NUMBER_FORMAT_INFO@1234@PEADPEAPEAU__tag_NUMBER_HEADER@1234@PEAI@Z DD 0ffffffffH
	DD	imagerel ?dtor$0@?0??TryParseDN@Internal@Core@Math@Palmtree@@YAHPEB_WIPEBU__tag_PMC_NUMBER_FORMAT_INFO@1234@PEADPEAPEAU__tag_NUMBER_HEADER@1234@PEAI@Z@4HA
xdata	ENDS
;	COMDAT xdata
xdata	SEGMENT
$unwind$?TryParseDN@Internal@Core@Math@Palmtree@@YAHPEB_WIPEBU__tag_PMC_NUMBER_FORMAT_INFO@1234@PEADPEAPEAU__tag_NUMBER_HEADER@1234@PEAI@Z DD 045054311H
	DD	011c4321H
	DD	0701500dbH
	DD	05014H
	DD	imagerel __CxxFrameHandler3
	DD	imagerel $cppxdata$?TryParseDN@Internal@Core@Math@Palmtree@@YAHPEB_WIPEBU__tag_PMC_NUMBER_FORMAT_INFO@1234@PEADPEAPEAU__tag_NUMBER_HEADER@1234@PEAI@Z
xdata	ENDS
;	COMDAT CONST
CONST	SEGMENT
?TryParseDN@Internal@Core@Math@Palmtree@@YAHPEB_WIPEBU__tag_PMC_NUMBER_FORMAT_INFO@1234@PEADPEAPEAU__tag_NUMBER_HEADER@1234@PEAI@Z$rtcName$0 DB 072H ; Palmtree::Math::Core::Internal::TryParseDN
	DB	06fH
	DB	06fH
	DB	074H
	DB	00H
	ORG $+3
?TryParseDN@Internal@Core@Math@Palmtree@@YAHPEB_WIPEBU__tag_PMC_NUMBER_FORMAT_INFO@1234@PEADPEAPEAU__tag_NUMBER_HEADER@1234@PEAI@Z$rtcName$1 DB 062H ; Palmtree::Math::Core::Internal::TryParseDN
	DB	069H
	DB	06eH
	DB	05fH
	DB	062H
	DB	075H
	DB	066H
	DB	05fH
	DB	063H
	DB	06fH
	DB	075H
	DB	06eH
	DB	074H
	DB	00H
	ORG $+10
?TryParseDN@Internal@Core@Math@Palmtree@@YAHPEB_WIPEBU__tag_PMC_NUMBER_FORMAT_INFO@1234@PEADPEAPEAU__tag_NUMBER_HEADER@1234@PEAI@Z$rtcVarDesc DD 01e8H ; Palmtree::Math::Core::Internal::TryParseDN
	DD	08H
	DQ	FLAT:?TryParseDN@Internal@Core@Math@Palmtree@@YAHPEB_WIPEBU__tag_PMC_NUMBER_FORMAT_INFO@1234@PEADPEAPEAU__tag_NUMBER_HEADER@1234@PEAI@Z$rtcName$1
	DD	068H
	DD	020H
	DQ	FLAT:?TryParseDN@Internal@Core@Math@Palmtree@@YAHPEB_WIPEBU__tag_PMC_NUMBER_FORMAT_INFO@1234@PEADPEAPEAU__tag_NUMBER_HEADER@1234@PEAI@Z$rtcName$0
	ORG $+96
?TryParseDN@Internal@Core@Math@Palmtree@@YAHPEB_WIPEBU__tag_PMC_NUMBER_FORMAT_INFO@1234@PEADPEAPEAU__tag_NUMBER_HEADER@1234@PEAI@Z$rtcFrameData DD 02H ; Palmtree::Math::Core::Internal::TryParseDN
	DD	00H
	DQ	FLAT:?TryParseDN@Internal@Core@Math@Palmtree@@YAHPEB_WIPEBU__tag_PMC_NUMBER_FORMAT_INFO@1234@PEADPEAPEAU__tag_NUMBER_HEADER@1234@PEAI@Z$rtcVarDesc
$cppxdata$?TryParseDN@Internal@Core@Math@Palmtree@@YAHPEB_WIPEBU__tag_PMC_NUMBER_FORMAT_INFO@1234@PEADPEAPEAU__tag_NUMBER_HEADER@1234@PEAI@Z DD 019930522H
	DD	01H
	DD	imagerel $stateUnwindMap$?TryParseDN@Internal@Core@Math@Palmtree@@YAHPEB_WIPEBU__tag_PMC_NUMBER_FORMAT_INFO@1234@PEADPEAPEAU__tag_NUMBER_HEADER@1234@PEAI@Z
	DD	00H
	DD	00H
	DD	017H
	DD	imagerel $ip2state$?TryParseDN@Internal@Core@Math@Palmtree@@YAHPEB_WIPEBU__tag_PMC_NUMBER_FORMAT_INFO@1234@PEADPEAPEAU__tag_NUMBER_HEADER@1234@PEAI@Z
	DD	06b8H
	DD	00H
	DD	00H
CONST	ENDS
;	COMDAT xdata
xdata	SEGMENT
$unwind$?dtor$0@?0??ConvertCardinalNumber@Internal@Core@Math@Palmtree@@YAXPEA_K_K0@Z@4HA DD 031001H
	DD	0700c4210H
	DD	0500bH
xdata	ENDS
;	COMDAT xdata
xdata	SEGMENT
$ip2state$?ConvertCardinalNumber@Internal@Core@Math@Palmtree@@YAXPEA_K_K0@Z DD imagerel ?ConvertCardinalNumber@Internal@Core@Math@Palmtree@@YAXPEA_K_K0@Z
	DD	0ffffffffH
	DD	imagerel ?ConvertCardinalNumber@Internal@Core@Math@Palmtree@@YAXPEA_K_K0@Z+85
	DD	00H
	DD	imagerel ?ConvertCardinalNumber@Internal@Core@Math@Palmtree@@YAXPEA_K_K0@Z+346
	DD	0ffffffffH
xdata	ENDS
;	COMDAT xdata
xdata	SEGMENT
$stateUnwindMap$?ConvertCardinalNumber@Internal@Core@Math@Palmtree@@YAXPEA_K_K0@Z DD 0ffffffffH
	DD	imagerel ?dtor$0@?0??ConvertCardinalNumber@Internal@Core@Math@Palmtree@@YAXPEA_K_K0@Z@4HA
xdata	ENDS
;	COMDAT xdata
xdata	SEGMENT
$unwind$?ConvertCardinalNumber@Internal@Core@Math@Palmtree@@YAXPEA_K_K0@Z DD 025053f11H
	DD	0118231dH
	DD	070110035H
	DD	05010H
	DD	imagerel __CxxFrameHandler3
	DD	imagerel $cppxdata$?ConvertCardinalNumber@Internal@Core@Math@Palmtree@@YAXPEA_K_K0@Z
xdata	ENDS
;	COMDAT CONST
CONST	SEGMENT
?ConvertCardinalNumber@Internal@Core@Math@Palmtree@@YAXPEA_K_K0@Z$rtcName$0 DB 072H ; Palmtree::Math::Core::Internal::ConvertCardinalNumber
	DB	06fH
	DB	06fH
	DB	074H
	DB	00H
	ORG $+11
?ConvertCardinalNumber@Internal@Core@Math@Palmtree@@YAXPEA_K_K0@Z$rtcVarDesc DD 028H ; Palmtree::Math::Core::Internal::ConvertCardinalNumber
	DD	020H
	DQ	FLAT:?ConvertCardinalNumber@Internal@Core@Math@Palmtree@@YAXPEA_K_K0@Z$rtcName$0
	ORG $+48
?ConvertCardinalNumber@Internal@Core@Math@Palmtree@@YAXPEA_K_K0@Z$rtcFrameData DD 01H ; Palmtree::Math::Core::Internal::ConvertCardinalNumber
	DD	00H
	DQ	FLAT:?ConvertCardinalNumber@Internal@Core@Math@Palmtree@@YAXPEA_K_K0@Z$rtcVarDesc
$cppxdata$?ConvertCardinalNumber@Internal@Core@Math@Palmtree@@YAXPEA_K_K0@Z DD 019930522H
	DD	01H
	DD	imagerel $stateUnwindMap$?ConvertCardinalNumber@Internal@Core@Math@Palmtree@@YAXPEA_K_K0@Z
	DD	00H
	DD	00H
	DD	03H
	DD	imagerel $ip2state$?ConvertCardinalNumber@Internal@Core@Math@Palmtree@@YAXPEA_K_K0@Z
	DD	0188H
	DD	00H
	DD	00H
CONST	ENDS
;	COMDAT xdata
xdata	SEGMENT
$unwind$?MultiplyAndAdd_using_ADCX_MULX@Internal@Core@Math@Palmtree@@YAPEA_KPEA_K_K1@Z DD 025053401H
	DD	0118231dH
	DD	070110025H
	DD	05010H
xdata	ENDS
;	COMDAT xdata
xdata	SEGMENT
$unwind$?MultiplyAndAdd_using_ADC_MUL@Internal@Core@Math@Palmtree@@YAPEA_KPEA_K_K1@Z DD 025053401H
	DD	0118231dH
	DD	070110025H
	DD	05010H
xdata	ENDS
;	COMDAT xdata
xdata	SEGMENT
$unwind$?MultiplyAndAdd1Word_using_ADCX_MULX@Internal@Core@Math@Palmtree@@YA_K_K0PEA_K@Z DD 025053401H
	DD	0118231dH
	DD	07011002bH
	DD	05010H
xdata	ENDS
;	COMDAT CONST
CONST	SEGMENT
?MultiplyAndAdd1Word_using_ADCX_MULX@Internal@Core@Math@Palmtree@@YA_K_K0PEA_K@Z$rtcName$0 DB 074H ; Palmtree::Math::Core::Internal::MultiplyAndAdd1Word_using_ADCX_MULX
	DB	05fH
	DB	068H
	DB	069H
	DB	00H
	ORG $+11
?MultiplyAndAdd1Word_using_ADCX_MULX@Internal@Core@Math@Palmtree@@YA_K_K0PEA_K@Z$rtcVarDesc DD 048H ; Palmtree::Math::Core::Internal::MultiplyAndAdd1Word_using_ADCX_MULX
	DD	08H
	DQ	FLAT:?MultiplyAndAdd1Word_using_ADCX_MULX@Internal@Core@Math@Palmtree@@YA_K_K0PEA_K@Z$rtcName$0
	ORG $+48
?MultiplyAndAdd1Word_using_ADCX_MULX@Internal@Core@Math@Palmtree@@YA_K_K0PEA_K@Z$rtcFrameData DD 01H ; Palmtree::Math::Core::Internal::MultiplyAndAdd1Word_using_ADCX_MULX
	DD	00H
	DQ	FLAT:?MultiplyAndAdd1Word_using_ADCX_MULX@Internal@Core@Math@Palmtree@@YA_K_K0PEA_K@Z$rtcVarDesc
CONST	ENDS
;	COMDAT xdata
xdata	SEGMENT
$unwind$?MultiplyAndAdd1Word_using_ADC_MUL@Internal@Core@Math@Palmtree@@YA_K_K0PEA_K@Z DD 025053401H
	DD	0118231dH
	DD	07011002bH
	DD	05010H
xdata	ENDS
;	COMDAT CONST
CONST	SEGMENT
?MultiplyAndAdd1Word_using_ADC_MUL@Internal@Core@Math@Palmtree@@YA_K_K0PEA_K@Z$rtcName$0 DB 074H ; Palmtree::Math::Core::Internal::MultiplyAndAdd1Word_using_ADC_MUL
	DB	05fH
	DB	068H
	DB	069H
	DB	00H
	ORG $+11
?MultiplyAndAdd1Word_using_ADC_MUL@Internal@Core@Math@Palmtree@@YA_K_K0PEA_K@Z$rtcVarDesc DD 048H ; Palmtree::Math::Core::Internal::MultiplyAndAdd1Word_using_ADC_MUL
	DD	08H
	DQ	FLAT:?MultiplyAndAdd1Word_using_ADC_MUL@Internal@Core@Math@Palmtree@@YA_K_K0PEA_K@Z$rtcName$0
	ORG $+48
?MultiplyAndAdd1Word_using_ADC_MUL@Internal@Core@Math@Palmtree@@YA_K_K0PEA_K@Z$rtcFrameData DD 01H ; Palmtree::Math::Core::Internal::MultiplyAndAdd1Word_using_ADC_MUL
	DD	00H
	DQ	FLAT:?MultiplyAndAdd1Word_using_ADC_MUL@Internal@Core@Math@Palmtree@@YA_K_K0PEA_K@Z$rtcVarDesc
CONST	ENDS
;	COMDAT xdata
xdata	SEGMENT
$unwind$?BuildBinaryFromDecimalString@Internal@Core@Math@Palmtree@@YAXPEA_WPEA_K1@Z DD 025053401H
	DD	0118231dH
	DD	070110031H
	DD	05010H
xdata	ENDS
;	COMDAT xdata
xdata	SEGMENT
$unwind$?Build1WordFromDecimalString@Internal@Core@Math@Palmtree@@YA_KPEA_W@Z DD 025052a01H
	DD	010e2313H
	DD	070070021H
	DD	05006H
xdata	ENDS
;	COMDAT xdata
xdata	SEGMENT
$unwind$?BuildLeading1WordFromDecimalString@Internal@Core@Math@Palmtree@@YA_KPEA_W_K@Z DD 025052f01H
	DD	01132318H
	DD	0700c0021H
	DD	0500bH
xdata	ENDS
;	COMDAT xdata
xdata	SEGMENT
$unwind$?dtor$0@?0??ParseAsDecimalNumberString@Internal@Core@Math@Palmtree@@YAHPEB_WIPEBU__tag_PMC_NUMBER_FORMAT_INFO@1234@PEADPEA_W_K34@Z@4HA DD 031001H
	DD	0700c4210H
	DD	0500bH
xdata	ENDS
;	COMDAT xdata
xdata	SEGMENT
$ip2state$?ParseAsDecimalNumberString@Internal@Core@Math@Palmtree@@YAHPEB_WIPEBU__tag_PMC_NUMBER_FORMAT_INFO@1234@PEADPEA_W_K34@Z DD imagerel ?ParseAsDecimalNumberString@Internal@Core@Math@Palmtree@@YAHPEB_WIPEBU__tag_PMC_NUMBER_FORMAT_INFO@1234@PEADPEA_W_K34@Z
	DD	0ffffffffH
	DD	imagerel ?ParseAsDecimalNumberString@Internal@Core@Math@Palmtree@@YAHPEB_WIPEBU__tag_PMC_NUMBER_FORMAT_INFO@1234@PEADPEA_W_K34@Z+187
	DD	00H
	DD	imagerel ?ParseAsDecimalNumberString@Internal@Core@Math@Palmtree@@YAHPEB_WIPEBU__tag_PMC_NUMBER_FORMAT_INFO@1234@PEADPEA_W_K34@Z+202
	DD	0ffffffffH
xdata	ENDS
;	COMDAT xdata
xdata	SEGMENT
$stateUnwindMap$?ParseAsDecimalNumberString@Internal@Core@Math@Palmtree@@YAHPEB_WIPEBU__tag_PMC_NUMBER_FORMAT_INFO@1234@PEADPEA_W_K34@Z DD 0ffffffffH
	DD	imagerel ?dtor$0@?0??ParseAsDecimalNumberString@Internal@Core@Math@Palmtree@@YAHPEB_WIPEBU__tag_PMC_NUMBER_FORMAT_INFO@1234@PEADPEA_W_K34@Z@4HA
xdata	ENDS
;	COMDAT xdata
xdata	SEGMENT
$unwind$?ParseAsDecimalNumberString@Internal@Core@Math@Palmtree@@YAHPEB_WIPEBU__tag_PMC_NUMBER_FORMAT_INFO@1234@PEADPEA_W_K34@Z DD 055055419H
	DD	011c5321H
	DD	070150057H
	DD	05014H
	DD	imagerel __GSHandlerCheck_EH
	DD	imagerel $cppxdata$?ParseAsDecimalNumberString@Internal@Core@Math@Palmtree@@YAHPEB_WIPEBU__tag_PMC_NUMBER_FORMAT_INFO@1234@PEADPEA_W_K34@Z
	DD	02aaH
xdata	ENDS
;	COMDAT CONST
CONST	SEGMENT
?ParseAsDecimalNumberString@Internal@Core@Math@Palmtree@@YAHPEB_WIPEBU__tag_PMC_NUMBER_FORMAT_INFO@1234@PEADPEA_W_K34@Z$rtcName$0 DB 073H ; Palmtree::Math::Core::Internal::ParseAsDecimalNumberString
	DB	074H
	DB	061H
	DB	074H
	DB	065H
	DB	00H
	ORG $+10
?ParseAsDecimalNumberString@Internal@Core@Math@Palmtree@@YAHPEB_WIPEBU__tag_PMC_NUMBER_FORMAT_INFO@1234@PEADPEA_W_K34@Z$rtcVarDesc DD 060H ; Palmtree::Math::Core::Internal::ParseAsDecimalNumberString
	DD	0140H
	DQ	FLAT:?ParseAsDecimalNumberString@Internal@Core@Math@Palmtree@@YAHPEB_WIPEBU__tag_PMC_NUMBER_FORMAT_INFO@1234@PEADPEA_W_K34@Z$rtcName$0
	ORG $+48
?ParseAsDecimalNumberString@Internal@Core@Math@Palmtree@@YAHPEB_WIPEBU__tag_PMC_NUMBER_FORMAT_INFO@1234@PEADPEA_W_K34@Z$rtcFrameData DD 01H ; Palmtree::Math::Core::Internal::ParseAsDecimalNumberString
	DD	00H
	DQ	FLAT:?ParseAsDecimalNumberString@Internal@Core@Math@Palmtree@@YAHPEB_WIPEBU__tag_PMC_NUMBER_FORMAT_INFO@1234@PEADPEA_W_K34@Z$rtcVarDesc
$cppxdata$?ParseAsDecimalNumberString@Internal@Core@Math@Palmtree@@YAHPEB_WIPEBU__tag_PMC_NUMBER_FORMAT_INFO@1234@PEADPEA_W_K34@Z DD 019930522H
	DD	01H
	DD	imagerel $stateUnwindMap$?ParseAsDecimalNumberString@Internal@Core@Math@Palmtree@@YAHPEB_WIPEBU__tag_PMC_NUMBER_FORMAT_INFO@1234@PEADPEA_W_K34@Z
	DD	00H
	DD	00H
	DD	03H
	DD	imagerel $ip2state$?ParseAsDecimalNumberString@Internal@Core@Math@Palmtree@@YAHPEB_WIPEBU__tag_PMC_NUMBER_FORMAT_INFO@1234@PEADPEA_W_K34@Z
	DD	0298H
	DD	00H
	DD	00H
CONST	ENDS
;	COMDAT xdata
xdata	SEGMENT
$unwind$?ParseAsFractionPartNumberSequence@ParserState@Internal@Core@Math@Palmtree@@AEAAXXZ DD 025052a01H
	DD	010e2313H
	DD	070070023H
	DD	05006H
xdata	ENDS
;	COMDAT xdata
xdata	SEGMENT
$unwind$?ParseAsIntegerPartNumberSequence@ParserState@Internal@Core@Math@Palmtree@@AEAAXXZ DD 025052a01H
	DD	010e2313H
	DD	070070023H
	DD	05006H
xdata	ENDS
;	COMDAT xdata
xdata	SEGMENT
$unwind$?ParseAsHexNumberString@ParserState@Internal@Core@Math@Palmtree@@QEAAHXZ DD 025052a01H
	DD	010e2313H
	DD	07007001fH
	DD	05006H
xdata	ENDS
;	COMDAT xdata
xdata	SEGMENT
$unwind$?ParseAsDecimalNumberString@ParserState@Internal@Core@Math@Palmtree@@QEAAHXZ DD 025052a01H
	DD	010e2313H
	DD	07007001fH
	DD	05006H
xdata	ENDS
;	COMDAT xdata
xdata	SEGMENT
$ip2state$??1ParserState@Internal@Core@Math@Palmtree@@QEAA@XZ DD imagerel ??1ParserState@Internal@Core@Math@Palmtree@@QEAA@XZ
	DD	0ffffffffH
xdata	ENDS
;	COMDAT CONST
CONST	SEGMENT
$cppxdata$??1ParserState@Internal@Core@Math@Palmtree@@QEAA@XZ DD 019930522H
	DD	00H
	DD	00H
	DD	00H
	DD	00H
	DD	01H
	DD	imagerel $ip2state$??1ParserState@Internal@Core@Math@Palmtree@@QEAA@XZ
	DD	0e8H
	DD	00H
	DD	04H
CONST	ENDS
;	COMDAT xdata
xdata	SEGMENT
$unwind$??1ParserState@Internal@Core@Math@Palmtree@@QEAA@XZ DD 025053519H
	DD	010e2313H
	DD	070070021H
	DD	05006H
	DD	imagerel __CxxFrameHandler3
	DD	imagerel $cppxdata$??1ParserState@Internal@Core@Math@Palmtree@@QEAA@XZ
xdata	ENDS
;	COMDAT xdata
xdata	SEGMENT
$unwind$??0ParserState@Internal@Core@Math@Palmtree@@QEAA@PEB_WIPEBU__tag_PMC_NUMBER_FORMAT_INFO@1234@PEADPEA_W_K34@Z DD 025053901H
	DD	011d2322H
	DD	07016007bH
	DD	05015H
xdata	ENDS
;	COMDAT xdata
xdata	SEGMENT
$unwind$?ParseHexDigit@Internal@Core@Math@Palmtree@@YAH_W@Z DD 025052a01H
	DD	010e2313H
	DD	07007001dH
	DD	05006H
xdata	ENDS
;	COMDAT xdata
xdata	SEGMENT
$unwind$?ParseDecimalDigit@Internal@Core@Math@Palmtree@@YAH_W@Z DD 025052a01H
	DD	010e2313H
	DD	07007001dH
	DD	05006H
xdata	ENDS
;	COMDAT xdata
xdata	SEGMENT
$unwind$_MULTIPLYX_UNIT DD 025053401H
	DD	0118231dH
	DD	07011001dH
	DD	05010H
xdata	ENDS
;	COMDAT xdata
xdata	SEGMENT
$unwind$_MULTIPLY_UNIT DD 025053401H
	DD	0118231dH
	DD	07011001fH
	DD	05010H
xdata	ENDS
;	COMDAT xdata
xdata	SEGMENT
$unwind$_ADDX_UNIT DD 025053801H
	DD	011c2321H
	DD	07015001dH
	DD	05014H
xdata	ENDS
;	COMDAT xdata
xdata	SEGMENT
$unwind$_ADD_UNIT DD 025053801H
	DD	011c2321H
	DD	07015001dH
	DD	05014H
xdata	ENDS
;	COMDAT xdata
xdata	SEGMENT
$unwind$_DIVIDE_CEILING_SIZE DD 025052f01H
	DD	01132318H
	DD	0700c001dH
	DD	0500bH
xdata	ENDS
;	COMDAT xdata
xdata	SEGMENT
$unwind$_DIVIDE_CEILING_UNIT DD 025052f01H
	DD	01132318H
	DD	0700c001dH
	DD	0500bH
xdata	ENDS
;	COMDAT xdata
xdata	SEGMENT
$unwind$_COPY_MEMORY_UNIT DD 025063501H
	DD	0119231eH
	DD	07012001cH
	DD	050106011H
xdata	ENDS
;	COMDAT xdata
xdata	SEGMENT
$unwind$?AddToMULTI64Counter@Internal@Core@Math@Palmtree@@YAXH@Z DD 025052801H
	DD	010d2312H
	DD	07006001dH
	DD	05005H
xdata	ENDS
;	COMDAT xdata
xdata	SEGMENT
$unwind$?AddToMULTI32Counter@Internal@Core@Math@Palmtree@@YAXH@Z DD 025052801H
	DD	010d2312H
	DD	07006001dH
	DD	05005H
xdata	ENDS
;	COMDAT xdata
xdata	SEGMENT
$unwind$?IncrementMULTI64Counter@Internal@Core@Math@Palmtree@@YAXXZ DD 025051e01H
	DD	010a230fH
	DD	07003001dH
	DD	05002H
xdata	ENDS
;	COMDAT xdata
xdata	SEGMENT
$unwind$?IncrementMULTI32Counter@Internal@Core@Math@Palmtree@@YAXXZ DD 025051e01H
	DD	010a230fH
	DD	07003001dH
	DD	05002H
xdata	ENDS
;	COMDAT xdata
xdata	SEGMENT
$unwind$?PMC_TryParseForSINT@Internal@Core@Math@Palmtree@@YAHPEB_WHPEBU__tag_PMC_NUMBER_FORMAT_INFO@1234@PEADPEAPEAU__tag_PMC_HANDLE_UINT@1234@PEAI@Z DD 035053801H
	DD	011c3321H
	DD	070150045H
	DD	05014H
xdata	ENDS
;	COMDAT CONST
CONST	SEGMENT
?PMC_TryParseForSINT@Internal@Core@Math@Palmtree@@YAHPEB_WHPEBU__tag_PMC_NUMBER_FORMAT_INFO@1234@PEADPEAPEAU__tag_PMC_HANDLE_UINT@1234@PEAI@Z$rtcName$0 DB 06eH ; Palmtree::Math::Core::Internal::PMC_TryParseForSINT
	DB	06fH
	DB	05fH
	DB	061H
	DB	062H
	DB	073H
	DB	00H
	ORG $+9
?PMC_TryParseForSINT@Internal@Core@Math@Palmtree@@YAHPEB_WHPEBU__tag_PMC_NUMBER_FORMAT_INFO@1234@PEADPEAPEAU__tag_PMC_HANDLE_UINT@1234@PEAI@Z$rtcVarDesc DD 038H ; Palmtree::Math::Core::Internal::PMC_TryParseForSINT
	DD	08H
	DQ	FLAT:?PMC_TryParseForSINT@Internal@Core@Math@Palmtree@@YAHPEB_WHPEBU__tag_PMC_NUMBER_FORMAT_INFO@1234@PEADPEAPEAU__tag_PMC_HANDLE_UINT@1234@PEAI@Z$rtcName$0
	ORG $+48
?PMC_TryParseForSINT@Internal@Core@Math@Palmtree@@YAHPEB_WHPEBU__tag_PMC_NUMBER_FORMAT_INFO@1234@PEADPEAPEAU__tag_PMC_HANDLE_UINT@1234@PEAI@Z$rtcFrameData DD 01H ; Palmtree::Math::Core::Internal::PMC_TryParseForSINT
	DD	00H
	DQ	FLAT:?PMC_TryParseForSINT@Internal@Core@Math@Palmtree@@YAHPEB_WHPEBU__tag_PMC_NUMBER_FORMAT_INFO@1234@PEADPEAPEAU__tag_PMC_HANDLE_UINT@1234@PEAI@Z$rtcVarDesc
CONST	ENDS
;	COMDAT xdata
xdata	SEGMENT
$unwind$?dtor$0@?0??PMC_TryParse@Internal@Core@Math@Palmtree@@YAHPEB_WHPEBU__tag_PMC_NUMBER_FORMAT_INFO@1234@PEAPEAU__tag_PMC_HANDLE_UINT@1234@PEAI@Z@4HA DD 031001H
	DD	0700c4210H
	DD	0500bH
xdata	ENDS
;	COMDAT xdata
xdata	SEGMENT
$ip2state$?PMC_TryParse@Internal@Core@Math@Palmtree@@YAHPEB_WHPEBU__tag_PMC_NUMBER_FORMAT_INFO@1234@PEAPEAU__tag_PMC_HANDLE_UINT@1234@PEAI@Z DD imagerel ?PMC_TryParse@Internal@Core@Math@Palmtree@@YAHPEB_WHPEBU__tag_PMC_NUMBER_FORMAT_INFO@1234@PEAPEAU__tag_PMC_HANDLE_UINT@1234@PEAI@Z
	DD	0ffffffffH
	DD	imagerel ?PMC_TryParse@Internal@Core@Math@Palmtree@@YAHPEB_WHPEBU__tag_PMC_NUMBER_FORMAT_INFO@1234@PEAPEAU__tag_PMC_HANDLE_UINT@1234@PEAI@Z+223
	DD	00H
	DD	imagerel ?PMC_TryParse@Internal@Core@Math@Palmtree@@YAHPEB_WHPEBU__tag_PMC_NUMBER_FORMAT_INFO@1234@PEAPEAU__tag_PMC_HANDLE_UINT@1234@PEAI@Z+325
	DD	0ffffffffH
	DD	imagerel ?PMC_TryParse@Internal@Core@Math@Palmtree@@YAHPEB_WHPEBU__tag_PMC_NUMBER_FORMAT_INFO@1234@PEAPEAU__tag_PMC_HANDLE_UINT@1234@PEAI@Z+342
	DD	00H
	DD	imagerel ?PMC_TryParse@Internal@Core@Math@Palmtree@@YAHPEB_WHPEBU__tag_PMC_NUMBER_FORMAT_INFO@1234@PEAPEAU__tag_PMC_HANDLE_UINT@1234@PEAI@Z+386
	DD	0ffffffffH
	DD	imagerel ?PMC_TryParse@Internal@Core@Math@Palmtree@@YAHPEB_WHPEBU__tag_PMC_NUMBER_FORMAT_INFO@1234@PEAPEAU__tag_PMC_HANDLE_UINT@1234@PEAI@Z+403
	DD	00H
	DD	imagerel ?PMC_TryParse@Internal@Core@Math@Palmtree@@YAHPEB_WHPEBU__tag_PMC_NUMBER_FORMAT_INFO@1234@PEAPEAU__tag_PMC_HANDLE_UINT@1234@PEAI@Z+453
	DD	0ffffffffH
xdata	ENDS
;	COMDAT xdata
xdata	SEGMENT
$stateUnwindMap$?PMC_TryParse@Internal@Core@Math@Palmtree@@YAHPEB_WHPEBU__tag_PMC_NUMBER_FORMAT_INFO@1234@PEAPEAU__tag_PMC_HANDLE_UINT@1234@PEAI@Z DD 0ffffffffH
	DD	imagerel ?dtor$0@?0??PMC_TryParse@Internal@Core@Math@Palmtree@@YAHPEB_WHPEBU__tag_PMC_NUMBER_FORMAT_INFO@1234@PEAPEAU__tag_PMC_HANDLE_UINT@1234@PEAI@Z@4HA
xdata	ENDS
;	COMDAT xdata
xdata	SEGMENT
$unwind$?PMC_TryParse@Internal@Core@Math@Palmtree@@YAHPEB_WHPEBU__tag_PMC_NUMBER_FORMAT_INFO@1234@PEAPEAU__tag_PMC_HANDLE_UINT@1234@PEAI@Z DD 035054311H
	DD	011c3321H
	DD	070150057H
	DD	05014H
	DD	imagerel __CxxFrameHandler3
	DD	imagerel $cppxdata$?PMC_TryParse@Internal@Core@Math@Palmtree@@YAHPEB_WHPEBU__tag_PMC_NUMBER_FORMAT_INFO@1234@PEAPEAU__tag_PMC_HANDLE_UINT@1234@PEAI@Z
xdata	ENDS
;	COMDAT CONST
CONST	SEGMENT
?PMC_TryParse@Internal@Core@Math@Palmtree@@YAHPEB_WHPEBU__tag_PMC_NUMBER_FORMAT_INFO@1234@PEAPEAU__tag_PMC_HANDLE_UINT@1234@PEAI@Z$rtcName$0 DB 072H ; Palmtree::Math::Core::Internal::PMC_TryParse
	DB	06fH
	DB	06fH
	DB	074H
	DB	00H
	ORG $+3
?PMC_TryParse@Internal@Core@Math@Palmtree@@YAHPEB_WHPEBU__tag_PMC_NUMBER_FORMAT_INFO@1234@PEAPEAU__tag_PMC_HANDLE_UINT@1234@PEAI@Z$rtcName$1 DB 06fH ; Palmtree::Math::Core::Internal::PMC_TryParse
	DB	05fH
	DB	073H
	DB	069H
	DB	067H
	DB	06eH
	DB	00H
	ORG $+1
?PMC_TryParse@Internal@Core@Math@Palmtree@@YAHPEB_WHPEBU__tag_PMC_NUMBER_FORMAT_INFO@1234@PEAPEAU__tag_PMC_HANDLE_UINT@1234@PEAI@Z$rtcName$2 DB 06fH ; Palmtree::Math::Core::Internal::PMC_TryParse
	DB	05fH
	DB	061H
	DB	062H
	DB	073H
	DB	00H
	ORG $+2
?PMC_TryParse@Internal@Core@Math@Palmtree@@YAHPEB_WHPEBU__tag_PMC_NUMBER_FORMAT_INFO@1234@PEAPEAU__tag_PMC_HANDLE_UINT@1234@PEAI@Z$rtcFrameData DD 03H ; Palmtree::Math::Core::Internal::PMC_TryParse
	DD	00H
	DQ	FLAT:?PMC_TryParse@Internal@Core@Math@Palmtree@@YAHPEB_WHPEBU__tag_PMC_NUMBER_FORMAT_INFO@1234@PEAPEAU__tag_PMC_HANDLE_UINT@1234@PEAI@Z$rtcVarDesc
$cppxdata$?PMC_TryParse@Internal@Core@Math@Palmtree@@YAHPEB_WHPEBU__tag_PMC_NUMBER_FORMAT_INFO@1234@PEAPEAU__tag_PMC_HANDLE_UINT@1234@PEAI@Z DD 019930522H
	DD	01H
	DD	imagerel $stateUnwindMap$?PMC_TryParse@Internal@Core@Math@Palmtree@@YAHPEB_WHPEBU__tag_PMC_NUMBER_FORMAT_INFO@1234@PEAPEAU__tag_PMC_HANDLE_UINT@1234@PEAI@Z
	DD	00H
	DD	00H
	DD	07H
	DD	imagerel $ip2state$?PMC_TryParse@Internal@Core@Math@Palmtree@@YAHPEB_WHPEBU__tag_PMC_NUMBER_FORMAT_INFO@1234@PEAPEAU__tag_PMC_HANDLE_UINT@1234@PEAI@Z
	DD	0298H
	DD	00H
	DD	00H
?PMC_TryParse@Internal@Core@Math@Palmtree@@YAHPEB_WHPEBU__tag_PMC_NUMBER_FORMAT_INFO@1234@PEAPEAU__tag_PMC_HANDLE_UINT@1234@PEAI@Z$rtcVarDesc DD 098H ; Palmtree::Math::Core::Internal::PMC_TryParse
	DD	08H
	DQ	FLAT:?PMC_TryParse@Internal@Core@Math@Palmtree@@YAHPEB_WHPEBU__tag_PMC_NUMBER_FORMAT_INFO@1234@PEAPEAU__tag_PMC_HANDLE_UINT@1234@PEAI@Z$rtcName$2
	DD	074H
	DD	01H
	DQ	FLAT:?PMC_TryParse@Internal@Core@Math@Palmtree@@YAHPEB_WHPEBU__tag_PMC_NUMBER_FORMAT_INFO@1234@PEAPEAU__tag_PMC_HANDLE_UINT@1234@PEAI@Z$rtcName$1
	DD	038H
	DD	020H
	DQ	FLAT:?PMC_TryParse@Internal@Core@Math@Palmtree@@YAHPEB_WHPEBU__tag_PMC_NUMBER_FORMAT_INFO@1234@PEAPEAU__tag_PMC_HANDLE_UINT@1234@PEAI@Z$rtcName$0
CONST	ENDS
;	COMDAT xdata
xdata	SEGMENT
$unwind$?Initialize_Parse@Internal@Core@Math@Palmtree@@YAHPEAU_tag_PROCESSOR_FEATURES@1234@@Z DD 025052a01H
	DD	010e2313H
	DD	07007001dH
	DD	05006H
xdata	ENDS
;	COMDAT xdata
xdata	SEGMENT
$unwind$?GetString@StringWriter@Internal@Core@Math@Palmtree@@UEAAPEA_WXZ DD 025052a01H
	DD	010e2313H
	DD	07007001dH
	DD	05006H
xdata	ENDS
;	COMDAT xdata
xdata	SEGMENT
$unwind$?Write@StringWriter@Internal@Core@Math@Palmtree@@UEAAXPEB_W@Z DD 025052f01H
	DD	01132318H
	DD	0700c001fH
	DD	0500bH
xdata	ENDS
;	COMDAT xdata
xdata	SEGMENT
$unwind$?Write@StringWriter@Internal@Core@Math@Palmtree@@UEAAX_W@Z DD 025052f01H
	DD	01132318H
	DD	0700c0027H
	DD	0500bH
xdata	ENDS
;	COMDAT xdata
xdata	SEGMENT
$unwind$??0StringWriter@Internal@Core@Math@Palmtree@@QEAA@PEA_W_K@Z DD 025053401H
	DD	0118231dH
	DD	07011001fH
	DD	05010H
xdata	ENDS
;	COMDAT xdata
xdata	SEGMENT
$unwind$??0StringWriter@Internal@Core@Math@Palmtree@@IEAA@PEA_W00@Z DD 025053901H
	DD	011d2322H
	DD	07016001dH
	DD	05015H
xdata	ENDS
;	COMDAT xdata
xdata	SEGMENT
$unwind$?StartsWith@StringReader@Internal@Core@Math@Palmtree@@CAHPEB_W0@Z DD 025052f01H
	DD	01132318H
	DD	0700c001dH
	DD	0500bH
xdata	ENDS
;	COMDAT xdata
xdata	SEGMENT
$unwind$?SkipString@StringReader@Internal@Core@Math@Palmtree@@UEAAXPEB_W@Z DD 025052f01H
	DD	01132318H
	DD	0700c0029H
	DD	0500bH
xdata	ENDS
;	COMDAT xdata
xdata	SEGMENT
$unwind$?SkipSpace@StringReader@Internal@Core@Math@Palmtree@@QEAAXXZ DD 025052a01H
	DD	010e2313H
	DD	07007001fH
	DD	05006H
xdata	ENDS
;	COMDAT xdata
xdata	SEGMENT
$unwind$?StartsWith@StringReader@Internal@Core@Math@Palmtree@@UEAAHPEB_W@Z DD 025052f01H
	DD	01132318H
	DD	0700c001dH
	DD	0500bH
xdata	ENDS
;	COMDAT xdata
xdata	SEGMENT
$unwind$?Progress@StringReader@Internal@Core@Math@Palmtree@@UEAAXXZ DD 025052a01H
	DD	010e2313H
	DD	070070027H
	DD	05006H
xdata	ENDS
;	COMDAT xdata
xdata	SEGMENT
$unwind$?PeekChar@StringReader@Internal@Core@Math@Palmtree@@UEAA_WXZ DD 025052a01H
	DD	010e2313H
	DD	07007001dH
	DD	05006H
xdata	ENDS
;	COMDAT xdata
xdata	SEGMENT
$unwind$??0StringReader@Internal@Core@Math@Palmtree@@QEAA@PEB_W@Z DD 025052f01H
	DD	01132318H
	DD	0700c001dH
	DD	0500bH
xdata	ENDS
;	COMDAT xdata
xdata	SEGMENT
$unwind$??_GInternalErrorException@Internal@Core@Math@Palmtree@@UEAAPEAXI@Z DD 025052e01H
	DD	01122317H
	DD	0700b001dH
	DD	0500aH
xdata	ENDS
;	COMDAT xdata
xdata	SEGMENT
$unwind$?dtor$0@?0???1InternalErrorException@Internal@Core@Math@Palmtree@@UEAA@XZ@4HA DD 031001H
	DD	0700c4210H
	DD	0500bH
xdata	ENDS
;	COMDAT xdata
xdata	SEGMENT
$ip2state$??1InternalErrorException@Internal@Core@Math@Palmtree@@UEAA@XZ DD imagerel ??1InternalErrorException@Internal@Core@Math@Palmtree@@UEAA@XZ
	DD	0ffffffffH
xdata	ENDS
;	COMDAT xdata
xdata	SEGMENT
$stateUnwindMap$??1InternalErrorException@Internal@Core@Math@Palmtree@@UEAA@XZ DD 0ffffffffH
	DD	imagerel ?dtor$0@?0???1InternalErrorException@Internal@Core@Math@Palmtree@@UEAA@XZ@4HA
xdata	ENDS
;	COMDAT CONST
CONST	SEGMENT
$cppxdata$??1InternalErrorException@Internal@Core@Math@Palmtree@@UEAA@XZ DD 019930522H
	DD	01H
	DD	imagerel $stateUnwindMap$??1InternalErrorException@Internal@Core@Math@Palmtree@@UEAA@XZ
	DD	00H
	DD	00H
	DD	01H
	DD	imagerel $ip2state$??1InternalErrorException@Internal@Core@Math@Palmtree@@UEAA@XZ
	DD	0e8H
	DD	00H
	DD	04H
CONST	ENDS
;	COMDAT xdata
xdata	SEGMENT
$unwind$??1InternalErrorException@Internal@Core@Math@Palmtree@@UEAA@XZ DD 025053519H
	DD	010e2313H
	DD	070070021H
	DD	05006H
	DD	imagerel __CxxFrameHandler3
	DD	imagerel $cppxdata$??1InternalErrorException@Internal@Core@Math@Palmtree@@UEAA@XZ
xdata	ENDS
;	COMDAT xdata
xdata	SEGMENT
$unwind$?dtor$0@?0???0InternalErrorException@Internal@Core@Math@Palmtree@@QEAA@AEBV01234@@Z@4HA DD 031001H
	DD	0700c4210H
	DD	0500bH
xdata	ENDS
;	COMDAT xdata
xdata	SEGMENT
$ip2state$??0InternalErrorException@Internal@Core@Math@Palmtree@@QEAA@AEBV01234@@Z DD imagerel ??0InternalErrorException@Internal@Core@Math@Palmtree@@QEAA@AEBV01234@@Z
	DD	0ffffffffH
	DD	imagerel ??0InternalErrorException@Internal@Core@Math@Palmtree@@QEAA@AEBV01234@@Z+91
	DD	00H
	DD	imagerel ??0InternalErrorException@Internal@Core@Math@Palmtree@@QEAA@AEBV01234@@Z+108
	DD	0ffffffffH
xdata	ENDS
;	COMDAT xdata
xdata	SEGMENT
$stateUnwindMap$??0InternalErrorException@Internal@Core@Math@Palmtree@@QEAA@AEBV01234@@Z DD 0ffffffffH
	DD	imagerel ?dtor$0@?0???0InternalErrorException@Internal@Core@Math@Palmtree@@QEAA@AEBV01234@@Z@4HA
xdata	ENDS
;	COMDAT CONST
CONST	SEGMENT
$cppxdata$??0InternalErrorException@Internal@Core@Math@Palmtree@@QEAA@AEBV01234@@Z DD 019930522H
	DD	01H
	DD	imagerel $stateUnwindMap$??0InternalErrorException@Internal@Core@Math@Palmtree@@QEAA@AEBV01234@@Z
	DD	00H
	DD	00H
	DD	03H
	DD	imagerel $ip2state$??0InternalErrorException@Internal@Core@Math@Palmtree@@QEAA@AEBV01234@@Z
	DD	0e8H
	DD	00H
	DD	04H
CONST	ENDS
;	COMDAT xdata
xdata	SEGMENT
$unwind$??0InternalErrorException@Internal@Core@Math@Palmtree@@QEAA@AEBV01234@@Z DD 025053a19H
	DD	01132318H
	DD	0700c0021H
	DD	0500bH
	DD	imagerel __CxxFrameHandler3
	DD	imagerel $cppxdata$??0InternalErrorException@Internal@Core@Math@Palmtree@@QEAA@AEBV01234@@Z
xdata	ENDS
;	COMDAT xdata
xdata	SEGMENT
$unwind$?dtor$0@?0???0InternalErrorException@Internal@Core@Math@Palmtree@@QEAA@PEB_W0@Z@4HA DD 031001H
	DD	0700c4210H
	DD	0500bH
xdata	ENDS
;	COMDAT xdata
xdata	SEGMENT
$ip2state$??0InternalErrorException@Internal@Core@Math@Palmtree@@QEAA@PEB_W0@Z DD imagerel ??0InternalErrorException@Internal@Core@Math@Palmtree@@QEAA@PEB_W0@Z
	DD	0ffffffffH
	DD	imagerel ??0InternalErrorException@Internal@Core@Math@Palmtree@@QEAA@PEB_W0@Z+108
	DD	00H
	DD	imagerel ??0InternalErrorException@Internal@Core@Math@Palmtree@@QEAA@PEB_W0@Z+125
	DD	0ffffffffH
xdata	ENDS
;	COMDAT xdata
xdata	SEGMENT
$stateUnwindMap$??0InternalErrorException@Internal@Core@Math@Palmtree@@QEAA@PEB_W0@Z DD 0ffffffffH
	DD	imagerel ?dtor$0@?0???0InternalErrorException@Internal@Core@Math@Palmtree@@QEAA@PEB_W0@Z@4HA
xdata	ENDS
;	COMDAT CONST
CONST	SEGMENT
$cppxdata$??0InternalErrorException@Internal@Core@Math@Palmtree@@QEAA@PEB_W0@Z DD 019930522H
	DD	01H
	DD	imagerel $stateUnwindMap$??0InternalErrorException@Internal@Core@Math@Palmtree@@QEAA@PEB_W0@Z
	DD	00H
	DD	00H
	DD	03H
	DD	imagerel $ip2state$??0InternalErrorException@Internal@Core@Math@Palmtree@@QEAA@PEB_W0@Z
	DD	0e8H
	DD	00H
	DD	04H
CONST	ENDS
;	COMDAT xdata
xdata	SEGMENT
$unwind$??0InternalErrorException@Internal@Core@Math@Palmtree@@QEAA@PEB_W0@Z DD 025053f19H
	DD	0118231dH
	DD	070110021H
	DD	05010H
	DD	imagerel __CxxFrameHandler3
	DD	imagerel $cppxdata$??0InternalErrorException@Internal@Core@Math@Palmtree@@QEAA@PEB_W0@Z
xdata	ENDS
;	COMDAT xdata
xdata	SEGMENT
$unwind$??_GInsufficientBufferException@Internal@Core@Math@Palmtree@@UEAAPEAXI@Z DD 025052e01H
	DD	01122317H
	DD	0700b001dH
	DD	0500aH
xdata	ENDS
;	COMDAT xdata
xdata	SEGMENT
$unwind$?dtor$0@?0???1InsufficientBufferException@Internal@Core@Math@Palmtree@@UEAA@XZ@4HA DD 031001H
	DD	0700c4210H
	DD	0500bH
xdata	ENDS
;	COMDAT xdata
xdata	SEGMENT
$ip2state$??1InsufficientBufferException@Internal@Core@Math@Palmtree@@UEAA@XZ DD imagerel ??1InsufficientBufferException@Internal@Core@Math@Palmtree@@UEAA@XZ
	DD	0ffffffffH
xdata	ENDS
;	COMDAT xdata
xdata	SEGMENT
$stateUnwindMap$??1InsufficientBufferException@Internal@Core@Math@Palmtree@@UEAA@XZ DD 0ffffffffH
	DD	imagerel ?dtor$0@?0???1InsufficientBufferException@Internal@Core@Math@Palmtree@@UEAA@XZ@4HA
xdata	ENDS
;	COMDAT CONST
CONST	SEGMENT
$cppxdata$??1InsufficientBufferException@Internal@Core@Math@Palmtree@@UEAA@XZ DD 019930522H
	DD	01H
	DD	imagerel $stateUnwindMap$??1InsufficientBufferException@Internal@Core@Math@Palmtree@@UEAA@XZ
	DD	00H
	DD	00H
	DD	01H
	DD	imagerel $ip2state$??1InsufficientBufferException@Internal@Core@Math@Palmtree@@UEAA@XZ
	DD	0e8H
	DD	00H
	DD	04H
CONST	ENDS
;	COMDAT xdata
xdata	SEGMENT
$unwind$??1InsufficientBufferException@Internal@Core@Math@Palmtree@@UEAA@XZ DD 025053519H
	DD	010e2313H
	DD	070070021H
	DD	05006H
	DD	imagerel __CxxFrameHandler3
	DD	imagerel $cppxdata$??1InsufficientBufferException@Internal@Core@Math@Palmtree@@UEAA@XZ
xdata	ENDS
;	COMDAT xdata
xdata	SEGMENT
$unwind$?dtor$0@?0???0InsufficientBufferException@Internal@Core@Math@Palmtree@@QEAA@AEBV01234@@Z@4HA DD 031001H
	DD	0700c4210H
	DD	0500bH
xdata	ENDS
;	COMDAT xdata
xdata	SEGMENT
$ip2state$??0InsufficientBufferException@Internal@Core@Math@Palmtree@@QEAA@AEBV01234@@Z DD imagerel ??0InsufficientBufferException@Internal@Core@Math@Palmtree@@QEAA@AEBV01234@@Z
	DD	0ffffffffH
	DD	imagerel ??0InsufficientBufferException@Internal@Core@Math@Palmtree@@QEAA@AEBV01234@@Z+91
	DD	00H
	DD	imagerel ??0InsufficientBufferException@Internal@Core@Math@Palmtree@@QEAA@AEBV01234@@Z+108
	DD	0ffffffffH
xdata	ENDS
;	COMDAT xdata
xdata	SEGMENT
$stateUnwindMap$??0InsufficientBufferException@Internal@Core@Math@Palmtree@@QEAA@AEBV01234@@Z DD 0ffffffffH
	DD	imagerel ?dtor$0@?0???0InsufficientBufferException@Internal@Core@Math@Palmtree@@QEAA@AEBV01234@@Z@4HA
xdata	ENDS
;	COMDAT CONST
CONST	SEGMENT
$cppxdata$??0InsufficientBufferException@Internal@Core@Math@Palmtree@@QEAA@AEBV01234@@Z DD 019930522H
	DD	01H
	DD	imagerel $stateUnwindMap$??0InsufficientBufferException@Internal@Core@Math@Palmtree@@QEAA@AEBV01234@@Z
	DD	00H
	DD	00H
	DD	03H
	DD	imagerel $ip2state$??0InsufficientBufferException@Internal@Core@Math@Palmtree@@QEAA@AEBV01234@@Z
	DD	0e8H
	DD	00H
	DD	04H
CONST	ENDS
;	COMDAT xdata
xdata	SEGMENT
$unwind$??0InsufficientBufferException@Internal@Core@Math@Palmtree@@QEAA@AEBV01234@@Z DD 025053a19H
	DD	01132318H
	DD	0700c0021H
	DD	0500bH
	DD	imagerel __CxxFrameHandler3
	DD	imagerel $cppxdata$??0InsufficientBufferException@Internal@Core@Math@Palmtree@@QEAA@AEBV01234@@Z
xdata	ENDS
;	COMDAT xdata
xdata	SEGMENT
$unwind$?dtor$0@?0???0InsufficientBufferException@Internal@Core@Math@Palmtree@@QEAA@PEB_W@Z@4HA DD 031001H
	DD	0700c4210H
	DD	0500bH
xdata	ENDS
;	COMDAT xdata
xdata	SEGMENT
$ip2state$??0InsufficientBufferException@Internal@Core@Math@Palmtree@@QEAA@PEB_W@Z DD imagerel ??0InsufficientBufferException@Internal@Core@Math@Palmtree@@QEAA@PEB_W@Z
	DD	0ffffffffH
	DD	imagerel ??0InsufficientBufferException@Internal@Core@Math@Palmtree@@QEAA@PEB_W@Z+95
	DD	00H
	DD	imagerel ??0InsufficientBufferException@Internal@Core@Math@Palmtree@@QEAA@PEB_W@Z+112
	DD	0ffffffffH
xdata	ENDS
;	COMDAT xdata
xdata	SEGMENT
$stateUnwindMap$??0InsufficientBufferException@Internal@Core@Math@Palmtree@@QEAA@PEB_W@Z DD 0ffffffffH
	DD	imagerel ?dtor$0@?0???0InsufficientBufferException@Internal@Core@Math@Palmtree@@QEAA@PEB_W@Z@4HA
xdata	ENDS
;	COMDAT CONST
CONST	SEGMENT
$cppxdata$??0InsufficientBufferException@Internal@Core@Math@Palmtree@@QEAA@PEB_W@Z DD 019930522H
	DD	01H
	DD	imagerel $stateUnwindMap$??0InsufficientBufferException@Internal@Core@Math@Palmtree@@QEAA@PEB_W@Z
	DD	00H
	DD	00H
	DD	03H
	DD	imagerel $ip2state$??0InsufficientBufferException@Internal@Core@Math@Palmtree@@QEAA@PEB_W@Z
	DD	0e8H
	DD	00H
	DD	00H
CONST	ENDS
;	COMDAT xdata
xdata	SEGMENT
$unwind$??0InsufficientBufferException@Internal@Core@Math@Palmtree@@QEAA@PEB_W@Z DD 025053a11H
	DD	01132318H
	DD	0700c0021H
	DD	0500bH
	DD	imagerel __CxxFrameHandler3
	DD	imagerel $cppxdata$??0InsufficientBufferException@Internal@Core@Math@Palmtree@@QEAA@PEB_W@Z
xdata	ENDS
;	COMDAT xdata
xdata	SEGMENT
$unwind$??_GArgumentNullException@Internal@Core@Math@Palmtree@@UEAAPEAXI@Z DD 025052e01H
	DD	01122317H
	DD	0700b001dH
	DD	0500aH
xdata	ENDS
;	COMDAT xdata
xdata	SEGMENT
$unwind$?dtor$0@?0???1ArgumentNullException@Internal@Core@Math@Palmtree@@UEAA@XZ@4HA DD 031001H
	DD	0700c4210H
	DD	0500bH
xdata	ENDS
;	COMDAT xdata
xdata	SEGMENT
$ip2state$??1ArgumentNullException@Internal@Core@Math@Palmtree@@UEAA@XZ DD imagerel ??1ArgumentNullException@Internal@Core@Math@Palmtree@@UEAA@XZ
	DD	0ffffffffH
xdata	ENDS
;	COMDAT xdata
xdata	SEGMENT
$stateUnwindMap$??1ArgumentNullException@Internal@Core@Math@Palmtree@@UEAA@XZ DD 0ffffffffH
	DD	imagerel ?dtor$0@?0???1ArgumentNullException@Internal@Core@Math@Palmtree@@UEAA@XZ@4HA
xdata	ENDS
;	COMDAT CONST
CONST	SEGMENT
$cppxdata$??1ArgumentNullException@Internal@Core@Math@Palmtree@@UEAA@XZ DD 019930522H
	DD	01H
	DD	imagerel $stateUnwindMap$??1ArgumentNullException@Internal@Core@Math@Palmtree@@UEAA@XZ
	DD	00H
	DD	00H
	DD	01H
	DD	imagerel $ip2state$??1ArgumentNullException@Internal@Core@Math@Palmtree@@UEAA@XZ
	DD	0e8H
	DD	00H
	DD	04H
CONST	ENDS
;	COMDAT xdata
xdata	SEGMENT
$unwind$??1ArgumentNullException@Internal@Core@Math@Palmtree@@UEAA@XZ DD 025053519H
	DD	010e2313H
	DD	070070021H
	DD	05006H
	DD	imagerel __CxxFrameHandler3
	DD	imagerel $cppxdata$??1ArgumentNullException@Internal@Core@Math@Palmtree@@UEAA@XZ
xdata	ENDS
;	COMDAT xdata
xdata	SEGMENT
$unwind$?dtor$0@?0???0ArgumentNullException@Internal@Core@Math@Palmtree@@QEAA@AEBV01234@@Z@4HA DD 031001H
	DD	0700c4210H
	DD	0500bH
xdata	ENDS
;	COMDAT xdata
xdata	SEGMENT
$ip2state$??0ArgumentNullException@Internal@Core@Math@Palmtree@@QEAA@AEBV01234@@Z DD imagerel ??0ArgumentNullException@Internal@Core@Math@Palmtree@@QEAA@AEBV01234@@Z
	DD	0ffffffffH
	DD	imagerel ??0ArgumentNullException@Internal@Core@Math@Palmtree@@QEAA@AEBV01234@@Z+91
	DD	00H
	DD	imagerel ??0ArgumentNullException@Internal@Core@Math@Palmtree@@QEAA@AEBV01234@@Z+108
	DD	0ffffffffH
xdata	ENDS
;	COMDAT xdata
xdata	SEGMENT
$stateUnwindMap$??0ArgumentNullException@Internal@Core@Math@Palmtree@@QEAA@AEBV01234@@Z DD 0ffffffffH
	DD	imagerel ?dtor$0@?0???0ArgumentNullException@Internal@Core@Math@Palmtree@@QEAA@AEBV01234@@Z@4HA
xdata	ENDS
;	COMDAT CONST
CONST	SEGMENT
$cppxdata$??0ArgumentNullException@Internal@Core@Math@Palmtree@@QEAA@AEBV01234@@Z DD 019930522H
	DD	01H
	DD	imagerel $stateUnwindMap$??0ArgumentNullException@Internal@Core@Math@Palmtree@@QEAA@AEBV01234@@Z
	DD	00H
	DD	00H
	DD	03H
	DD	imagerel $ip2state$??0ArgumentNullException@Internal@Core@Math@Palmtree@@QEAA@AEBV01234@@Z
	DD	0e8H
	DD	00H
	DD	04H
CONST	ENDS
;	COMDAT xdata
xdata	SEGMENT
$unwind$??0ArgumentNullException@Internal@Core@Math@Palmtree@@QEAA@AEBV01234@@Z DD 025053a19H
	DD	01132318H
	DD	0700c0021H
	DD	0500bH
	DD	imagerel __CxxFrameHandler3
	DD	imagerel $cppxdata$??0ArgumentNullException@Internal@Core@Math@Palmtree@@QEAA@AEBV01234@@Z
xdata	ENDS
;	COMDAT xdata
xdata	SEGMENT
$unwind$?dtor$0@?0???0ArgumentNullException@Internal@Core@Math@Palmtree@@QEAA@PEB_W0@Z@4HA DD 031001H
	DD	0700c4210H
	DD	0500bH
xdata	ENDS
;	COMDAT xdata
xdata	SEGMENT
$ip2state$??0ArgumentNullException@Internal@Core@Math@Palmtree@@QEAA@PEB_W0@Z DD imagerel ??0ArgumentNullException@Internal@Core@Math@Palmtree@@QEAA@PEB_W0@Z
	DD	0ffffffffH
	DD	imagerel ??0ArgumentNullException@Internal@Core@Math@Palmtree@@QEAA@PEB_W0@Z+108
	DD	00H
	DD	imagerel ??0ArgumentNullException@Internal@Core@Math@Palmtree@@QEAA@PEB_W0@Z+125
	DD	0ffffffffH
xdata	ENDS
;	COMDAT xdata
xdata	SEGMENT
$stateUnwindMap$??0ArgumentNullException@Internal@Core@Math@Palmtree@@QEAA@PEB_W0@Z DD 0ffffffffH
	DD	imagerel ?dtor$0@?0???0ArgumentNullException@Internal@Core@Math@Palmtree@@QEAA@PEB_W0@Z@4HA
xdata	ENDS
;	COMDAT CONST
CONST	SEGMENT
$cppxdata$??0ArgumentNullException@Internal@Core@Math@Palmtree@@QEAA@PEB_W0@Z DD 019930522H
	DD	01H
	DD	imagerel $stateUnwindMap$??0ArgumentNullException@Internal@Core@Math@Palmtree@@QEAA@PEB_W0@Z
	DD	00H
	DD	00H
	DD	03H
	DD	imagerel $ip2state$??0ArgumentNullException@Internal@Core@Math@Palmtree@@QEAA@PEB_W0@Z
	DD	0e8H
	DD	00H
	DD	04H
CONST	ENDS
;	COMDAT xdata
xdata	SEGMENT
$unwind$??0ArgumentNullException@Internal@Core@Math@Palmtree@@QEAA@PEB_W0@Z DD 025053f19H
	DD	0118231dH
	DD	070110021H
	DD	05010H
	DD	imagerel __CxxFrameHandler3
	DD	imagerel $cppxdata$??0ArgumentNullException@Internal@Core@Math@Palmtree@@QEAA@PEB_W0@Z
xdata	ENDS
;	COMDAT xdata
xdata	SEGMENT
$unwind$??_GArgumentException@Internal@Core@Math@Palmtree@@UEAAPEAXI@Z DD 025052e01H
	DD	01122317H
	DD	0700b001dH
	DD	0500aH
xdata	ENDS
;	COMDAT xdata
xdata	SEGMENT
$unwind$?dtor$0@?0???1ArgumentException@Internal@Core@Math@Palmtree@@UEAA@XZ@4HA DD 031001H
	DD	0700c4210H
	DD	0500bH
xdata	ENDS
;	COMDAT xdata
xdata	SEGMENT
$ip2state$??1ArgumentException@Internal@Core@Math@Palmtree@@UEAA@XZ DD imagerel ??1ArgumentException@Internal@Core@Math@Palmtree@@UEAA@XZ
	DD	0ffffffffH
xdata	ENDS
;	COMDAT xdata
xdata	SEGMENT
$stateUnwindMap$??1ArgumentException@Internal@Core@Math@Palmtree@@UEAA@XZ DD 0ffffffffH
	DD	imagerel ?dtor$0@?0???1ArgumentException@Internal@Core@Math@Palmtree@@UEAA@XZ@4HA
xdata	ENDS
;	COMDAT CONST
CONST	SEGMENT
$cppxdata$??1ArgumentException@Internal@Core@Math@Palmtree@@UEAA@XZ DD 019930522H
	DD	01H
	DD	imagerel $stateUnwindMap$??1ArgumentException@Internal@Core@Math@Palmtree@@UEAA@XZ
	DD	00H
	DD	00H
	DD	01H
	DD	imagerel $ip2state$??1ArgumentException@Internal@Core@Math@Palmtree@@UEAA@XZ
	DD	0e8H
	DD	00H
	DD	04H
CONST	ENDS
;	COMDAT xdata
xdata	SEGMENT
$unwind$??1ArgumentException@Internal@Core@Math@Palmtree@@UEAA@XZ DD 025053519H
	DD	010e2313H
	DD	070070021H
	DD	05006H
	DD	imagerel __CxxFrameHandler3
	DD	imagerel $cppxdata$??1ArgumentException@Internal@Core@Math@Palmtree@@UEAA@XZ
xdata	ENDS
;	COMDAT xdata
xdata	SEGMENT
$unwind$?dtor$0@?0???0ArgumentException@Internal@Core@Math@Palmtree@@QEAA@AEBV01234@@Z@4HA DD 031001H
	DD	0700c4210H
	DD	0500bH
xdata	ENDS
;	COMDAT xdata
xdata	SEGMENT
$ip2state$??0ArgumentException@Internal@Core@Math@Palmtree@@QEAA@AEBV01234@@Z DD imagerel ??0ArgumentException@Internal@Core@Math@Palmtree@@QEAA@AEBV01234@@Z
	DD	0ffffffffH
	DD	imagerel ??0ArgumentException@Internal@Core@Math@Palmtree@@QEAA@AEBV01234@@Z+91
	DD	00H
	DD	imagerel ??0ArgumentException@Internal@Core@Math@Palmtree@@QEAA@AEBV01234@@Z+108
	DD	0ffffffffH
xdata	ENDS
;	COMDAT xdata
xdata	SEGMENT
$stateUnwindMap$??0ArgumentException@Internal@Core@Math@Palmtree@@QEAA@AEBV01234@@Z DD 0ffffffffH
	DD	imagerel ?dtor$0@?0???0ArgumentException@Internal@Core@Math@Palmtree@@QEAA@AEBV01234@@Z@4HA
xdata	ENDS
;	COMDAT CONST
CONST	SEGMENT
$cppxdata$??0ArgumentException@Internal@Core@Math@Palmtree@@QEAA@AEBV01234@@Z DD 019930522H
	DD	01H
	DD	imagerel $stateUnwindMap$??0ArgumentException@Internal@Core@Math@Palmtree@@QEAA@AEBV01234@@Z
	DD	00H
	DD	00H
	DD	03H
	DD	imagerel $ip2state$??0ArgumentException@Internal@Core@Math@Palmtree@@QEAA@AEBV01234@@Z
	DD	0e8H
	DD	00H
	DD	04H
CONST	ENDS
;	COMDAT xdata
xdata	SEGMENT
$unwind$??0ArgumentException@Internal@Core@Math@Palmtree@@QEAA@AEBV01234@@Z DD 025053a19H
	DD	01132318H
	DD	0700c0021H
	DD	0500bH
	DD	imagerel __CxxFrameHandler3
	DD	imagerel $cppxdata$??0ArgumentException@Internal@Core@Math@Palmtree@@QEAA@AEBV01234@@Z
xdata	ENDS
;	COMDAT xdata
xdata	SEGMENT
$unwind$?dtor$0@?0???0ArgumentException@Internal@Core@Math@Palmtree@@QEAA@PEB_W@Z@4HA DD 031001H
	DD	0700c4210H
	DD	0500bH
xdata	ENDS
;	COMDAT xdata
xdata	SEGMENT
$ip2state$??0ArgumentException@Internal@Core@Math@Palmtree@@QEAA@PEB_W@Z DD imagerel ??0ArgumentException@Internal@Core@Math@Palmtree@@QEAA@PEB_W@Z
	DD	0ffffffffH
	DD	imagerel ??0ArgumentException@Internal@Core@Math@Palmtree@@QEAA@PEB_W@Z+96
	DD	00H
	DD	imagerel ??0ArgumentException@Internal@Core@Math@Palmtree@@QEAA@PEB_W@Z+113
	DD	0ffffffffH
xdata	ENDS
;	COMDAT xdata
xdata	SEGMENT
$stateUnwindMap$??0ArgumentException@Internal@Core@Math@Palmtree@@QEAA@PEB_W@Z DD 0ffffffffH
	DD	imagerel ?dtor$0@?0???0ArgumentException@Internal@Core@Math@Palmtree@@QEAA@PEB_W@Z@4HA
xdata	ENDS
;	COMDAT CONST
CONST	SEGMENT
$cppxdata$??0ArgumentException@Internal@Core@Math@Palmtree@@QEAA@PEB_W@Z DD 019930522H
	DD	01H
	DD	imagerel $stateUnwindMap$??0ArgumentException@Internal@Core@Math@Palmtree@@QEAA@PEB_W@Z
	DD	00H
	DD	00H
	DD	03H
	DD	imagerel $ip2state$??0ArgumentException@Internal@Core@Math@Palmtree@@QEAA@PEB_W@Z
	DD	0e8H
	DD	00H
	DD	04H
CONST	ENDS
;	COMDAT xdata
xdata	SEGMENT
$unwind$??0ArgumentException@Internal@Core@Math@Palmtree@@QEAA@PEB_W@Z DD 025053a19H
	DD	01132318H
	DD	0700c0021H
	DD	0500bH
	DD	imagerel __CxxFrameHandler3
	DD	imagerel $cppxdata$??0ArgumentException@Internal@Core@Math@Palmtree@@QEAA@PEB_W@Z
xdata	ENDS
;	COMDAT xdata
xdata	SEGMENT
$unwind$??_GException@Internal@Core@Math@Palmtree@@UEAAPEAXI@Z DD 025052e01H
	DD	01122317H
	DD	0700b001dH
	DD	0500aH
xdata	ENDS
;	COMDAT xdata
xdata	SEGMENT
$unwind$?dtor$0@?0???1Exception@Internal@Core@Math@Palmtree@@UEAA@XZ@4HA DD 031001H
	DD	0700c4210H
	DD	0500bH
xdata	ENDS
;	COMDAT xdata
xdata	SEGMENT
$ip2state$??1Exception@Internal@Core@Math@Palmtree@@UEAA@XZ DD imagerel ??1Exception@Internal@Core@Math@Palmtree@@UEAA@XZ
	DD	0ffffffffH
xdata	ENDS
;	COMDAT xdata
xdata	SEGMENT
$stateUnwindMap$??1Exception@Internal@Core@Math@Palmtree@@UEAA@XZ DD 0ffffffffH
	DD	imagerel ?dtor$0@?0???1Exception@Internal@Core@Math@Palmtree@@UEAA@XZ@4HA
xdata	ENDS
;	COMDAT CONST
CONST	SEGMENT
$cppxdata$??1Exception@Internal@Core@Math@Palmtree@@UEAA@XZ DD 019930522H
	DD	01H
	DD	imagerel $stateUnwindMap$??1Exception@Internal@Core@Math@Palmtree@@UEAA@XZ
	DD	00H
	DD	00H
	DD	01H
	DD	imagerel $ip2state$??1Exception@Internal@Core@Math@Palmtree@@UEAA@XZ
	DD	0e8H
	DD	00H
	DD	04H
CONST	ENDS
;	COMDAT xdata
xdata	SEGMENT
$unwind$??1Exception@Internal@Core@Math@Palmtree@@UEAA@XZ DD 025053519H
	DD	010e2313H
	DD	070070021H
	DD	05006H
	DD	imagerel __CxxFrameHandler3
	DD	imagerel $cppxdata$??1Exception@Internal@Core@Math@Palmtree@@UEAA@XZ
xdata	ENDS
;	COMDAT xdata
xdata	SEGMENT
$unwind$?dtor$0@?0???0Exception@Internal@Core@Math@Palmtree@@QEAA@AEBV01234@@Z@4HA DD 031001H
	DD	0700c4210H
	DD	0500bH
xdata	ENDS
;	COMDAT xdata
xdata	SEGMENT
$ip2state$??0Exception@Internal@Core@Math@Palmtree@@QEAA@AEBV01234@@Z DD imagerel ??0Exception@Internal@Core@Math@Palmtree@@QEAA@AEBV01234@@Z
	DD	0ffffffffH
	DD	imagerel ??0Exception@Internal@Core@Math@Palmtree@@QEAA@AEBV01234@@Z+84
	DD	00H
	DD	imagerel ??0Exception@Internal@Core@Math@Palmtree@@QEAA@AEBV01234@@Z+165
	DD	0ffffffffH
xdata	ENDS
;	COMDAT xdata
xdata	SEGMENT
$stateUnwindMap$??0Exception@Internal@Core@Math@Palmtree@@QEAA@AEBV01234@@Z DD 0ffffffffH
	DD	imagerel ?dtor$0@?0???0Exception@Internal@Core@Math@Palmtree@@QEAA@AEBV01234@@Z@4HA
xdata	ENDS
;	COMDAT CONST
CONST	SEGMENT
$cppxdata$??0Exception@Internal@Core@Math@Palmtree@@QEAA@AEBV01234@@Z DD 019930522H
	DD	01H
	DD	imagerel $stateUnwindMap$??0Exception@Internal@Core@Math@Palmtree@@QEAA@AEBV01234@@Z
	DD	00H
	DD	00H
	DD	03H
	DD	imagerel $ip2state$??0Exception@Internal@Core@Math@Palmtree@@QEAA@AEBV01234@@Z
	DD	0e8H
	DD	00H
	DD	04H
CONST	ENDS
;	COMDAT xdata
xdata	SEGMENT
$unwind$??0Exception@Internal@Core@Math@Palmtree@@QEAA@AEBV01234@@Z DD 025053a19H
	DD	01132318H
	DD	0700c0021H
	DD	0500bH
	DD	imagerel __CxxFrameHandler3
	DD	imagerel $cppxdata$??0Exception@Internal@Core@Math@Palmtree@@QEAA@AEBV01234@@Z
xdata	ENDS
;	COMDAT xdata
xdata	SEGMENT
$unwind$?dtor$0@?0???0Exception@Internal@Core@Math@Palmtree@@IEAA@HPEB_W0@Z@4HA DD 031001H
	DD	0700c4210H
	DD	0500bH
xdata	ENDS
;	COMDAT xdata
xdata	SEGMENT
$ip2state$??0Exception@Internal@Core@Math@Palmtree@@IEAA@HPEB_W0@Z DD imagerel ??0Exception@Internal@Core@Math@Palmtree@@IEAA@HPEB_W0@Z
	DD	0ffffffffH
	DD	imagerel ??0Exception@Internal@Core@Math@Palmtree@@IEAA@HPEB_W0@Z+93
	DD	00H
	DD	imagerel ??0Exception@Internal@Core@Math@Palmtree@@IEAA@HPEB_W0@Z+162
	DD	0ffffffffH
xdata	ENDS
;	COMDAT xdata
xdata	SEGMENT
$stateUnwindMap$??0Exception@Internal@Core@Math@Palmtree@@IEAA@HPEB_W0@Z DD 0ffffffffH
	DD	imagerel ?dtor$0@?0???0Exception@Internal@Core@Math@Palmtree@@IEAA@HPEB_W0@Z@4HA
xdata	ENDS
;	COMDAT CONST
CONST	SEGMENT
$cppxdata$??0Exception@Internal@Core@Math@Palmtree@@IEAA@HPEB_W0@Z DD 019930522H
	DD	01H
	DD	imagerel $stateUnwindMap$??0Exception@Internal@Core@Math@Palmtree@@IEAA@HPEB_W0@Z
	DD	00H
	DD	00H
	DD	03H
	DD	imagerel $ip2state$??0Exception@Internal@Core@Math@Palmtree@@IEAA@HPEB_W0@Z
	DD	0e8H
	DD	00H
	DD	04H
CONST	ENDS
;	COMDAT xdata
xdata	SEGMENT
$unwind$??0Exception@Internal@Core@Math@Palmtree@@IEAA@HPEB_W0@Z DD 025054319H
	DD	011c2321H
	DD	070150021H
	DD	05014H
	DD	imagerel __CxxFrameHandler3
	DD	imagerel $cppxdata$??0Exception@Internal@Core@Math@Palmtree@@IEAA@HPEB_W0@Z
xdata	ENDS
;	COMDAT xdata
xdata	SEGMENT
$unwind$?dtor$0@?0???0Exception@Internal@Core@Math@Palmtree@@IEAA@HPEB_W@Z@4HA DD 031001H
	DD	0700c4210H
	DD	0500bH
xdata	ENDS
;	COMDAT xdata
xdata	SEGMENT
$ip2state$??0Exception@Internal@Core@Math@Palmtree@@IEAA@HPEB_W@Z DD imagerel ??0Exception@Internal@Core@Math@Palmtree@@IEAA@HPEB_W@Z
	DD	0ffffffffH
	DD	imagerel ??0Exception@Internal@Core@Math@Palmtree@@IEAA@HPEB_W@Z+88
	DD	00H
	DD	imagerel ??0Exception@Internal@Core@Math@Palmtree@@IEAA@HPEB_W@Z+154
	DD	0ffffffffH
xdata	ENDS
;	COMDAT xdata
xdata	SEGMENT
$stateUnwindMap$??0Exception@Internal@Core@Math@Palmtree@@IEAA@HPEB_W@Z DD 0ffffffffH
	DD	imagerel ?dtor$0@?0???0Exception@Internal@Core@Math@Palmtree@@IEAA@HPEB_W@Z@4HA
xdata	ENDS
;	COMDAT CONST
CONST	SEGMENT
$cppxdata$??0Exception@Internal@Core@Math@Palmtree@@IEAA@HPEB_W@Z DD 019930522H
	DD	01H
	DD	imagerel $stateUnwindMap$??0Exception@Internal@Core@Math@Palmtree@@IEAA@HPEB_W@Z
	DD	00H
	DD	00H
	DD	03H
	DD	imagerel $ip2state$??0Exception@Internal@Core@Math@Palmtree@@IEAA@HPEB_W@Z
	DD	0e8H
	DD	00H
	DD	04H
CONST	ENDS
;	COMDAT xdata
xdata	SEGMENT
$unwind$??0Exception@Internal@Core@Math@Palmtree@@IEAA@HPEB_W@Z DD 025053e19H
	DD	0117231cH
	DD	070100021H
	DD	0500fH
	DD	imagerel __CxxFrameHandler3
	DD	imagerel $cppxdata$??0Exception@Internal@Core@Math@Palmtree@@IEAA@HPEB_W@Z
xdata	ENDS
;	COMDAT xdata
xdata	SEGMENT
$unwind$??_Gexception@std@@UEAAPEAXI@Z DD 025052e01H
	DD	01122317H
	DD	0700b001dH
	DD	0500aH
xdata	ENDS
;	COMDAT xdata
xdata	SEGMENT
$unwind$?what@exception@std@@UEBAPEBDXZ DD 025052a01H
	DD	010e2313H
	DD	07007001fH
	DD	05006H
xdata	ENDS
;	COMDAT xdata
xdata	SEGMENT
$ip2state$??1exception@std@@UEAA@XZ DD imagerel ??1exception@std@@UEAA@XZ
	DD	0ffffffffH
xdata	ENDS
;	COMDAT CONST
CONST	SEGMENT
$cppxdata$??1exception@std@@UEAA@XZ DD 019930522H
	DD	00H
	DD	00H
	DD	00H
	DD	00H
	DD	01H
	DD	imagerel $ip2state$??1exception@std@@UEAA@XZ
	DD	0e8H
	DD	00H
	DD	04H
CONST	ENDS
;	COMDAT xdata
xdata	SEGMENT
$unwind$??1exception@std@@UEAA@XZ DD 025053519H
	DD	010e2313H
	DD	070070021H
	DD	05006H
	DD	imagerel __CxxFrameHandler3
	DD	imagerel $cppxdata$??1exception@std@@UEAA@XZ
xdata	ENDS
;	COMDAT xdata
xdata	SEGMENT
$ip2state$??0exception@std@@QEAA@XZ DD imagerel ??0exception@std@@QEAA@XZ
	DD	0ffffffffH
xdata	ENDS
;	COMDAT CONST
CONST	SEGMENT
$cppxdata$??0exception@std@@QEAA@XZ DD 019930522H
	DD	00H
	DD	00H
	DD	00H
	DD	00H
	DD	01H
	DD	imagerel $ip2state$??0exception@std@@QEAA@XZ
	DD	0e8H
	DD	00H
	DD	04H
CONST	ENDS
;	COMDAT xdata
xdata	SEGMENT
$unwind$??0exception@std@@QEAA@XZ DD 025053519H
	DD	010e2313H
	DD	070070021H
	DD	05006H
	DD	imagerel __CxxFrameHandler3
	DD	imagerel $cppxdata$??0exception@std@@QEAA@XZ
xdata	ENDS
; Function compile flags: /Odt
;	COMDAT __JustMyCode_Default
_TEXT	SEGMENT
__JustMyCode_Default PROC				; COMDAT
  00000	c2 00 00	 ret	 0
__JustMyCode_Default ENDP
_TEXT	ENDS
; Function compile flags: /Odtp /RTCsu /ZI
; File z:\sources\lunor\repos\rougemeilland\palmtree.math.core.uint\palmtree.math.core.uint\pmc_parse.cpp
;	COMDAT ?PMC_TryParse_Imp@Internal@Core@Math@Palmtree@@YAHPEB_WHPEBU__tag_PMC_NUMBER_FORMAT_INFO@1234@PEADPEAPEAU__tag_NUMBER_HEADER@1234@PEAI@Z
_TEXT	SEGMENT
root$ = 8
mask$4 = 68
err$5 = 100
err$6 = 132
$T7 = 360
$T8 = 436
$T9 = 468
$T10 = 500
$T11 = 536
source$ = 592
number_styles$ = 600
format_option$ = 608
o_sign$ = 616
o_abs$ = 624
result$ = 632
?PMC_TryParse_Imp@Internal@Core@Math@Palmtree@@YAHPEB_WHPEBU__tag_PMC_NUMBER_FORMAT_INFO@1234@PEADPEAPEAU__tag_NUMBER_HEADER@1234@PEAI@Z PROC ; Palmtree::Math::Core::Internal::PMC_TryParse_Imp, COMDAT

; 1271 :     {

  00000	4c 89 4c 24 20	 mov	 QWORD PTR [rsp+32], r9
  00005	4c 89 44 24 18	 mov	 QWORD PTR [rsp+24], r8
  0000a	89 54 24 10	 mov	 DWORD PTR [rsp+16], edx
  0000e	48 89 4c 24 08	 mov	 QWORD PTR [rsp+8], rcx
  00013	55		 push	 rbp
  00014	57		 push	 rdi
  00015	48 81 ec 68 02
	00 00		 sub	 rsp, 616		; 00000268H
  0001c	48 8d 6c 24 30	 lea	 rbp, QWORD PTR [rsp+48]
  00021	48 8b fc	 mov	 rdi, rsp
  00024	b9 9a 00 00 00	 mov	 ecx, 154		; 0000009aH
  00029	b8 cc cc cc cc	 mov	 eax, -858993460		; ccccccccH
  0002e	f3 ab		 rep stosd
  00030	48 8b 8c 24 88
	02 00 00	 mov	 rcx, QWORD PTR [rsp+648]
  00038	48 c7 85 18 02
	00 00 fe ff ff
	ff		 mov	 QWORD PTR $T11[rbp], -2
  00043	48 8d 0d 00 00
	00 00		 lea	 rcx, OFFSET FLAT:__F159A697_pmc_parse@cpp
  0004a	e8 00 00 00 00	 call	 __CheckForDebuggerJustMyCode

; 1272 :         ResourceHolderUINT root;

  0004f	48 8d 4d 08	 lea	 rcx, QWORD PTR root$[rbp]
  00053	e8 00 00 00 00	 call	 ??0ResourceHolderUINT@Internal@Core@Math@Palmtree@@QEAA@XZ ; Palmtree::Math::Core::Internal::ResourceHolderUINT::ResourceHolderUINT
  00058	90		 npad	 1

; 1273 :         if (number_styles & PMC_NUMBER_STYLE_ALLOW_HEX_SPECIFIER)

  00059	8b 85 58 02 00
	00		 mov	 eax, DWORD PTR number_styles$[rbp]
  0005f	25 00 02 00 00	 and	 eax, 512		; 00000200H
  00064	85 c0		 test	 eax, eax
  00066	0f 84 c2 00 00
	00		 je	 $LN2@PMC_TryPar

; 1274 :         {
; 1275 :             // 16
; 1276 : 
; 1277 :             // 
; 1278 :             _UINT32_T mask = PMC_NUMBER_STYLE_ALLOW_HEX_SPECIFIER | PMC_NUMBER_STYLE_ALLOW_LEADING_WHITE | PMC_NUMBER_STYLE_ALLOW_TRAILING_WHITE | PMC_NUMBER_STYLE_ALLOW_EXCEPTION_THROWING | PMC_NUMBER_STYLE_ALLOW_SIGNED_INTEGER;

  0006c	c7 45 44 03 02
	00 03		 mov	 DWORD PTR mask$4[rbp], 50332163 ; 03000203H

; 1279 : 
; 1280 :             // 
; 1281 :             if (number_styles & ~mask)

  00073	8b 45 44	 mov	 eax, DWORD PTR mask$4[rbp]
  00076	f7 d0		 not	 eax
  00078	8b 8d 58 02 00
	00		 mov	 ecx, DWORD PTR number_styles$[rbp]
  0007e	23 c8		 and	 ecx, eax
  00080	8b c1		 mov	 eax, ecx
  00082	85 c0		 test	 eax, eax
  00084	74 26		 je	 SHORT $LN4@PMC_TryPar

; 1282 :                 throw ArgumentException(L"number_styles");

  00086	48 8d 15 00 00
	00 00		 lea	 rdx, OFFSET FLAT:??_C@_1FG@MPGAEBOC@?$AA?$BF?$AAp?$AAn?$AAu?$AAm?$AAb?$AAe?$AAr?$AA_?$AAs?$AAt?$AAy?$AAl?$AAe?$AAs@
  0008d	48 8d 8d 68 01
	00 00		 lea	 rcx, QWORD PTR $T7[rbp]
  00094	e8 00 00 00 00	 call	 ??0ArgumentException@Internal@Core@Math@Palmtree@@QEAA@PEB_W@Z ; Palmtree::Math::Core::Internal::ArgumentException::ArgumentException
  00099	48 8d 15 00 00
	00 00		 lea	 rdx, OFFSET FLAT:_TI2?AVArgumentException@Internal@Core@Math@Palmtree@@
  000a0	48 8d 8d 68 01
	00 00		 lea	 rcx, QWORD PTR $T7[rbp]
  000a7	e8 00 00 00 00	 call	 _CxxThrowException
$LN4@PMC_TryPar:

; 1283 : 
; 1284 :             PMC_STATUS_CODE err = TryParseX(source, number_styles, format_option, o_sign, o_abs, result);

  000ac	48 8b 85 78 02
	00 00		 mov	 rax, QWORD PTR result$[rbp]
  000b3	48 89 44 24 28	 mov	 QWORD PTR [rsp+40], rax
  000b8	48 8b 85 70 02
	00 00		 mov	 rax, QWORD PTR o_abs$[rbp]
  000bf	48 89 44 24 20	 mov	 QWORD PTR [rsp+32], rax
  000c4	4c 8b 8d 68 02
	00 00		 mov	 r9, QWORD PTR o_sign$[rbp]
  000cb	4c 8b 85 60 02
	00 00		 mov	 r8, QWORD PTR format_option$[rbp]
  000d2	8b 95 58 02 00
	00		 mov	 edx, DWORD PTR number_styles$[rbp]
  000d8	48 8b 8d 50 02
	00 00		 mov	 rcx, QWORD PTR source$[rbp]
  000df	e8 00 00 00 00	 call	 ?TryParseX@Internal@Core@Math@Palmtree@@YAHPEB_WIPEBU__tag_PMC_NUMBER_FORMAT_INFO@1234@PEADPEAPEAU__tag_NUMBER_HEADER@1234@PEAI@Z ; Palmtree::Math::Core::Internal::TryParseX
  000e4	89 45 64	 mov	 DWORD PTR err$5[rbp], eax

; 1285 :             if (err != PMC_STATUS_OK || !*result)

  000e7	83 7d 64 00	 cmp	 DWORD PTR err$5[rbp], 0
  000eb	75 0c		 jne	 SHORT $LN6@PMC_TryPar
  000ed	48 8b 85 78 02
	00 00		 mov	 rax, QWORD PTR result$[rbp]
  000f4	83 38 00	 cmp	 DWORD PTR [rax], 0
  000f7	75 1d		 jne	 SHORT $LN5@PMC_TryPar
$LN6@PMC_TryPar:

; 1286 :                 return (err);

  000f9	8b 45 64	 mov	 eax, DWORD PTR err$5[rbp]
  000fc	89 85 b4 01 00
	00		 mov	 DWORD PTR $T8[rbp], eax
  00102	48 8d 4d 08	 lea	 rcx, QWORD PTR root$[rbp]
  00106	e8 00 00 00 00	 call	 ??1ResourceHolderUINT@Internal@Core@Math@Palmtree@@UEAA@XZ ; Palmtree::Math::Core::Internal::ResourceHolderUINT::~ResourceHolderUINT
  0010b	8b 85 b4 01 00
	00		 mov	 eax, DWORD PTR $T8[rbp]
  00111	e9 e3 00 00 00	 jmp	 $LN9@PMC_TryPar
$LN5@PMC_TryPar:

; 1287 :             root.HookNumber(*o_abs);

  00116	48 8b 85 70 02
	00 00		 mov	 rax, QWORD PTR o_abs$[rbp]
  0011d	48 8b 10	 mov	 rdx, QWORD PTR [rax]
  00120	48 8d 4d 08	 lea	 rcx, QWORD PTR root$[rbp]
  00124	e8 00 00 00 00	 call	 ?HookNumber@ResourceHolderUINT@Internal@Core@Math@Palmtree@@QEAAXPEAU__tag_NUMBER_HEADER@2345@@Z ; Palmtree::Math::Core::Internal::ResourceHolderUINT::HookNumber

; 1288 :         }
; 1289 :         else

  00129	e9 83 00 00 00	 jmp	 $LN3@PMC_TryPar
$LN2@PMC_TryPar:

; 1290 :         {
; 1291 :             // 10
; 1292 :             PMC_STATUS_CODE err = TryParseDN(source, number_styles, format_option, o_sign, o_abs, result);

  0012e	48 8b 85 78 02
	00 00		 mov	 rax, QWORD PTR result$[rbp]
  00135	48 89 44 24 28	 mov	 QWORD PTR [rsp+40], rax
  0013a	48 8b 85 70 02
	00 00		 mov	 rax, QWORD PTR o_abs$[rbp]
  00141	48 89 44 24 20	 mov	 QWORD PTR [rsp+32], rax
  00146	4c 8b 8d 68 02
	00 00		 mov	 r9, QWORD PTR o_sign$[rbp]
  0014d	4c 8b 85 60 02
	00 00		 mov	 r8, QWORD PTR format_option$[rbp]
  00154	8b 95 58 02 00
	00		 mov	 edx, DWORD PTR number_styles$[rbp]
  0015a	48 8b 8d 50 02
	00 00		 mov	 rcx, QWORD PTR source$[rbp]
  00161	e8 00 00 00 00	 call	 ?TryParseDN@Internal@Core@Math@Palmtree@@YAHPEB_WIPEBU__tag_PMC_NUMBER_FORMAT_INFO@1234@PEADPEAPEAU__tag_NUMBER_HEADER@1234@PEAI@Z ; Palmtree::Math::Core::Internal::TryParseDN
  00166	89 85 84 00 00
	00		 mov	 DWORD PTR err$6[rbp], eax

; 1293 :             if (err != PMC_STATUS_OK || !*result)

  0016c	83 bd 84 00 00
	00 00		 cmp	 DWORD PTR err$6[rbp], 0
  00173	75 0c		 jne	 SHORT $LN8@PMC_TryPar
  00175	48 8b 85 78 02
	00 00		 mov	 rax, QWORD PTR result$[rbp]
  0017c	83 38 00	 cmp	 DWORD PTR [rax], 0
  0017f	75 1d		 jne	 SHORT $LN7@PMC_TryPar
$LN8@PMC_TryPar:

; 1294 :                 return (err);

  00181	8b 85 84 00 00
	00		 mov	 eax, DWORD PTR err$6[rbp]
  00187	89 85 d4 01 00
	00		 mov	 DWORD PTR $T9[rbp], eax
  0018d	48 8d 4d 08	 lea	 rcx, QWORD PTR root$[rbp]
  00191	e8 00 00 00 00	 call	 ??1ResourceHolderUINT@Internal@Core@Math@Palmtree@@UEAA@XZ ; Palmtree::Math::Core::Internal::ResourceHolderUINT::~ResourceHolderUINT
  00196	8b 85 d4 01 00
	00		 mov	 eax, DWORD PTR $T9[rbp]
  0019c	eb 5b		 jmp	 SHORT $LN9@PMC_TryPar
$LN7@PMC_TryPar:

; 1295 :             root.HookNumber(*o_abs);

  0019e	48 8b 85 70 02
	00 00		 mov	 rax, QWORD PTR o_abs$[rbp]
  001a5	48 8b 10	 mov	 rdx, QWORD PTR [rax]
  001a8	48 8d 4d 08	 lea	 rcx, QWORD PTR root$[rbp]
  001ac	e8 00 00 00 00	 call	 ?HookNumber@ResourceHolderUINT@Internal@Core@Math@Palmtree@@QEAAXPEAU__tag_NUMBER_HEADER@2345@@Z ; Palmtree::Math::Core::Internal::ResourceHolderUINT::HookNumber
$LN3@PMC_TryPar:

; 1296 :         }
; 1297 : #ifdef _DEBUG
; 1298 :         CheckNumber(*o_abs);

  001b1	48 8b 85 70 02
	00 00		 mov	 rax, QWORD PTR o_abs$[rbp]
  001b8	48 8b 08	 mov	 rcx, QWORD PTR [rax]
  001bb	e8 00 00 00 00	 call	 ?CheckNumber@Internal@Core@Math@Palmtree@@YAXPEAU__tag_NUMBER_HEADER@1234@@Z ; Palmtree::Math::Core::Internal::CheckNumber

; 1299 : #endif
; 1300 :         root.UnlinkNumber(*o_abs);

  001c0	48 8b 85 70 02
	00 00		 mov	 rax, QWORD PTR o_abs$[rbp]
  001c7	48 8b 10	 mov	 rdx, QWORD PTR [rax]
  001ca	48 8d 4d 08	 lea	 rcx, QWORD PTR root$[rbp]
  001ce	e8 00 00 00 00	 call	 ?UnlinkNumber@ResourceHolderUINT@Internal@Core@Math@Palmtree@@QEAAXPEAU__tag_NUMBER_HEADER@2345@@Z ; Palmtree::Math::Core::Internal::ResourceHolderUINT::UnlinkNumber

; 1301 :         *result = 1;

  001d3	48 8b 85 78 02
	00 00		 mov	 rax, QWORD PTR result$[rbp]
  001da	c7 00 01 00 00
	00		 mov	 DWORD PTR [rax], 1

; 1302 :         return (PMC_STATUS_OK);

  001e0	c7 85 f4 01 00
	00 00 00 00 00	 mov	 DWORD PTR $T10[rbp], 0
  001ea	48 8d 4d 08	 lea	 rcx, QWORD PTR root$[rbp]
  001ee	e8 00 00 00 00	 call	 ??1ResourceHolderUINT@Internal@Core@Math@Palmtree@@UEAA@XZ ; Palmtree::Math::Core::Internal::ResourceHolderUINT::~ResourceHolderUINT
  001f3	8b 85 f4 01 00
	00		 mov	 eax, DWORD PTR $T10[rbp]
$LN9@PMC_TryPar:

; 1303 :     }

  001f9	48 8b f8	 mov	 rdi, rax
  001fc	48 8d 4d d0	 lea	 rcx, QWORD PTR [rbp-48]
  00200	48 8d 15 00 00
	00 00		 lea	 rdx, OFFSET FLAT:?PMC_TryParse_Imp@Internal@Core@Math@Palmtree@@YAHPEB_WHPEBU__tag_PMC_NUMBER_FORMAT_INFO@1234@PEADPEAPEAU__tag_NUMBER_HEADER@1234@PEAI@Z$rtcFrameData
  00207	e8 00 00 00 00	 call	 _RTC_CheckStackVars
  0020c	48 8b c7	 mov	 rax, rdi
  0020f	48 8d a5 38 02
	00 00		 lea	 rsp, QWORD PTR [rbp+568]
  00216	5f		 pop	 rdi
  00217	5d		 pop	 rbp
  00218	c3		 ret	 0
$LN11@PMC_TryPar:
?PMC_TryParse_Imp@Internal@Core@Math@Palmtree@@YAHPEB_WHPEBU__tag_PMC_NUMBER_FORMAT_INFO@1234@PEADPEAPEAU__tag_NUMBER_HEADER@1234@PEAI@Z ENDP ; Palmtree::Math::Core::Internal::PMC_TryParse_Imp
_TEXT	ENDS
;	COMDAT text$x
text$x	SEGMENT
root$ = 8
mask$4 = 68
err$5 = 100
err$6 = 132
$T7 = 360
$T8 = 436
$T9 = 468
$T10 = 500
$T11 = 536
source$ = 592
number_styles$ = 600
format_option$ = 608
o_sign$ = 616
o_abs$ = 624
result$ = 632
?dtor$0@?0??PMC_TryParse_Imp@Internal@Core@Math@Palmtree@@YAHPEB_WHPEBU__tag_PMC_NUMBER_FORMAT_INFO@1234@PEADPEAPEAU__tag_NUMBER_HEADER@1234@PEAI@Z@4HA PROC ; `Palmtree::Math::Core::Internal::PMC_TryParse_Imp'::`1'::dtor$0
  00000	48 89 4c 24 08	 mov	 QWORD PTR [rsp+8], rcx
  00005	48 89 54 24 10	 mov	 QWORD PTR [rsp+16], rdx
  0000a	55		 push	 rbp
  0000b	57		 push	 rdi
  0000c	48 83 ec 28	 sub	 rsp, 40			; 00000028H
  00010	48 8d 6a 30	 lea	 rbp, QWORD PTR [rdx+48]
  00014	48 8d 4d 08	 lea	 rcx, QWORD PTR root$[rbp]
  00018	e8 00 00 00 00	 call	 ??1ResourceHolderUINT@Internal@Core@Math@Palmtree@@UEAA@XZ ; Palmtree::Math::Core::Internal::ResourceHolderUINT::~ResourceHolderUINT
  0001d	48 83 c4 28	 add	 rsp, 40			; 00000028H
  00021	5f		 pop	 rdi
  00022	5d		 pop	 rbp
  00023	c3		 ret	 0
?dtor$0@?0??PMC_TryParse_Imp@Internal@Core@Math@Palmtree@@YAHPEB_WHPEBU__tag_PMC_NUMBER_FORMAT_INFO@1234@PEADPEAPEAU__tag_NUMBER_HEADER@1234@PEAI@Z@4HA ENDP ; `Palmtree::Math::Core::Internal::PMC_TryParse_Imp'::`1'::dtor$0
text$x	ENDS
; Function compile flags: /Odtp /RTCsu /ZI
;	COMDAT text$x
text$x	SEGMENT
root$ = 8
mask$4 = 68
err$5 = 100
err$6 = 132
$T7 = 360
$T8 = 436
$T9 = 468
$T10 = 500
$T11 = 536
source$ = 592
number_styles$ = 600
format_option$ = 608
o_sign$ = 616
o_abs$ = 624
result$ = 632
?dtor$0@?0??PMC_TryParse_Imp@Internal@Core@Math@Palmtree@@YAHPEB_WHPEBU__tag_PMC_NUMBER_FORMAT_INFO@1234@PEADPEAPEAU__tag_NUMBER_HEADER@1234@PEAI@Z@4HA PROC ; `Palmtree::Math::Core::Internal::PMC_TryParse_Imp'::`1'::dtor$0
  00000	48 89 4c 24 08	 mov	 QWORD PTR [rsp+8], rcx
  00005	48 89 54 24 10	 mov	 QWORD PTR [rsp+16], rdx
  0000a	55		 push	 rbp
  0000b	57		 push	 rdi
  0000c	48 83 ec 28	 sub	 rsp, 40			; 00000028H
  00010	48 8d 6a 30	 lea	 rbp, QWORD PTR [rdx+48]
  00014	48 8d 4d 08	 lea	 rcx, QWORD PTR root$[rbp]
  00018	e8 00 00 00 00	 call	 ??1ResourceHolderUINT@Internal@Core@Math@Palmtree@@UEAA@XZ ; Palmtree::Math::Core::Internal::ResourceHolderUINT::~ResourceHolderUINT
  0001d	48 83 c4 28	 add	 rsp, 40			; 00000028H
  00021	5f		 pop	 rdi
  00022	5d		 pop	 rbp
  00023	c3		 ret	 0
?dtor$0@?0??PMC_TryParse_Imp@Internal@Core@Math@Palmtree@@YAHPEB_WHPEBU__tag_PMC_NUMBER_FORMAT_INFO@1234@PEADPEAPEAU__tag_NUMBER_HEADER@1234@PEAI@Z@4HA ENDP ; `Palmtree::Math::Core::Internal::PMC_TryParse_Imp'::`1'::dtor$0
text$x	ENDS
; Function compile flags: /Odtp /RTCsu /ZI
; File z:\sources\lunor\repos\rougemeilland\palmtree.math.core.uint\palmtree.math.core.uint\pmc_parse.cpp
;	COMDAT ?TryParseX@Internal@Core@Math@Palmtree@@YAHPEB_WIPEBU__tag_PMC_NUMBER_FORMAT_INFO@1234@PEADPEAPEAU__tag_NUMBER_HEADER@1234@PEAI@Z
_TEXT	SEGMENT
root$ = 8
source_len$ = 72
int_part_buf_size$ = 104
int_part_buf$ = 136
result_parsing$ = 164
o_bit_count$ = 200
lzcnt$4 = 228
padding$5 = 264
carry$6 = 292
p$7 = 328
count$8 = 360
$T9 = 772
$T10 = 804
$T11 = 836
$T12 = 872
tv231 = 888
source$ = 928
number_styles$ = 936
format_option$ = 944
o_sign$ = 952
o_abs$ = 960
result$ = 968
?TryParseX@Internal@Core@Math@Palmtree@@YAHPEB_WIPEBU__tag_PMC_NUMBER_FORMAT_INFO@1234@PEADPEAPEAU__tag_NUMBER_HEADER@1234@PEAI@Z PROC ; Palmtree::Math::Core::Internal::TryParseX, COMDAT

; 1190 :     {

  00000	4c 89 4c 24 20	 mov	 QWORD PTR [rsp+32], r9
  00005	4c 89 44 24 18	 mov	 QWORD PTR [rsp+24], r8
  0000a	89 54 24 10	 mov	 DWORD PTR [rsp+16], edx
  0000e	48 89 4c 24 08	 mov	 QWORD PTR [rsp+8], rcx
  00013	55		 push	 rbp
  00014	57		 push	 rdi
  00015	48 81 ec b8 03
	00 00		 sub	 rsp, 952		; 000003b8H
  0001c	48 8d 6c 24 30	 lea	 rbp, QWORD PTR [rsp+48]
  00021	48 8b fc	 mov	 rdi, rsp
  00024	b9 ee 00 00 00	 mov	 ecx, 238		; 000000eeH
  00029	b8 cc cc cc cc	 mov	 eax, -858993460		; ccccccccH
  0002e	f3 ab		 rep stosd
  00030	48 8b 8c 24 d8
	03 00 00	 mov	 rcx, QWORD PTR [rsp+984]
  00038	48 c7 85 68 03
	00 00 fe ff ff
	ff		 mov	 QWORD PTR $T12[rbp], -2
  00043	48 8d 0d 00 00
	00 00		 lea	 rcx, OFFSET FLAT:__F159A697_pmc_parse@cpp
  0004a	e8 00 00 00 00	 call	 __CheckForDebuggerJustMyCode

; 1191 :         ResourceHolderUINT root;

  0004f	48 8d 4d 08	 lea	 rcx, QWORD PTR root$[rbp]
  00053	e8 00 00 00 00	 call	 ??0ResourceHolderUINT@Internal@Core@Math@Palmtree@@QEAA@XZ ; Palmtree::Math::Core::Internal::ResourceHolderUINT::ResourceHolderUINT
  00058	90		 npad	 1

; 1192 :         __UNIT_TYPE source_len = lstrlenW(source);

  00059	48 8b 8d a0 03
	00 00		 mov	 rcx, QWORD PTR source$[rbp]
  00060	ff 15 00 00 00
	00		 call	 QWORD PTR __imp_lstrlenW
  00066	48 98		 cdqe
  00068	48 89 45 48	 mov	 QWORD PTR source_len$[rbp], rax

; 1193 :         size_t int_part_buf_size = source_len + 1;

  0006c	48 8b 45 48	 mov	 rax, QWORD PTR source_len$[rbp]
  00070	48 ff c0	 inc	 rax
  00073	48 89 45 68	 mov	 QWORD PTR int_part_buf_size$[rbp], rax

; 1194 :         wchar_t* int_part_buf = root.AllocateString(source_len + 1);

  00077	48 8b 45 48	 mov	 rax, QWORD PTR source_len$[rbp]
  0007b	48 ff c0	 inc	 rax
  0007e	48 8b d0	 mov	 rdx, rax
  00081	48 8d 4d 08	 lea	 rcx, QWORD PTR root$[rbp]
  00085	e8 00 00 00 00	 call	 ?AllocateString@ResourceHolderUINT@Internal@Core@Math@Palmtree@@QEAAPEA_W_K@Z ; Palmtree::Math::Core::Internal::ResourceHolderUINT::AllocateString
  0008a	48 89 85 88 00
	00 00		 mov	 QWORD PTR int_part_buf$[rbp], rax

; 1195 :         int result_parsing = ParseAsHexNumberString(source, number_styles, format_option, int_part_buf, int_part_buf_size);

  00091	48 8b 45 68	 mov	 rax, QWORD PTR int_part_buf_size$[rbp]
  00095	48 89 44 24 20	 mov	 QWORD PTR [rsp+32], rax
  0009a	4c 8b 8d 88 00
	00 00		 mov	 r9, QWORD PTR int_part_buf$[rbp]
  000a1	4c 8b 85 b0 03
	00 00		 mov	 r8, QWORD PTR format_option$[rbp]
  000a8	8b 95 a8 03 00
	00		 mov	 edx, DWORD PTR number_styles$[rbp]
  000ae	48 8b 8d a0 03
	00 00		 mov	 rcx, QWORD PTR source$[rbp]
  000b5	e8 00 00 00 00	 call	 ?ParseAsHexNumberString@Internal@Core@Math@Palmtree@@YAHPEB_WIPEBU__tag_PMC_NUMBER_FORMAT_INFO@1234@PEA_W_K@Z ; Palmtree::Math::Core::Internal::ParseAsHexNumberString
  000ba	89 85 a4 00 00
	00		 mov	 DWORD PTR result_parsing$[rbp], eax

; 1196 :         root.CheckString(int_part_buf);

  000c0	48 8b 95 88 00
	00 00		 mov	 rdx, QWORD PTR int_part_buf$[rbp]
  000c7	48 8d 4d 08	 lea	 rcx, QWORD PTR root$[rbp]
  000cb	e8 00 00 00 00	 call	 ?CheckString@ResourceHolderUINT@Internal@Core@Math@Palmtree@@QEAAXPEA_W@Z ; Palmtree::Math::Core::Internal::ResourceHolderUINT::CheckString

; 1197 :         if (!result_parsing || int_part_buf[0] == L'\0')

  000d0	83 bd a4 00 00
	00 00		 cmp	 DWORD PTR result_parsing$[rbp], 0
  000d7	74 18		 je	 SHORT $LN5@TryParseX
  000d9	b8 02 00 00 00	 mov	 eax, 2
  000de	48 6b c0 00	 imul	 rax, rax, 0
  000e2	48 8b 8d 88 00
	00 00		 mov	 rcx, QWORD PTR int_part_buf$[rbp]
  000e9	0f b7 04 01	 movzx	 eax, WORD PTR [rcx+rax]
  000ed	85 c0		 test	 eax, eax
  000ef	75 58		 jne	 SHORT $LN4@TryParseX
$LN5@TryParseX:

; 1198 :         {
; 1199 :             *result = 0;

  000f1	48 8b 85 c8 03
	00 00		 mov	 rax, QWORD PTR result$[rbp]
  000f8	c7 00 00 00 00
	00		 mov	 DWORD PTR [rax], 0

; 1200 :             if (number_styles & PMC_NUMBER_STYLE_ALLOW_EXCEPTION_THROWING)

  000fe	8b 85 a8 03 00
	00		 mov	 eax, DWORD PTR number_styles$[rbp]
  00104	25 00 00 00 02	 and	 eax, 33554432		; 02000000H
  00109	85 c0		 test	 eax, eax
  0010b	74 1e		 je	 SHORT $LN6@TryParseX

; 1201 :                 return (PMC_STATUS_FORMAT_ERROR);

  0010d	c7 85 04 03 00
	00 f9 ff ff ff	 mov	 DWORD PTR $T9[rbp], -7
  00117	48 8d 4d 08	 lea	 rcx, QWORD PTR root$[rbp]
  0011b	e8 00 00 00 00	 call	 ??1ResourceHolderUINT@Internal@Core@Math@Palmtree@@UEAA@XZ ; Palmtree::Math::Core::Internal::ResourceHolderUINT::~ResourceHolderUINT
  00120	8b 85 04 03 00
	00		 mov	 eax, DWORD PTR $T9[rbp]
  00126	e9 9e 02 00 00	 jmp	 $LN1@TryParseX
$LN6@TryParseX:

; 1202 :             return (PMC_STATUS_OK);

  0012b	c7 85 24 03 00
	00 00 00 00 00	 mov	 DWORD PTR $T10[rbp], 0
  00135	48 8d 4d 08	 lea	 rcx, QWORD PTR root$[rbp]
  00139	e8 00 00 00 00	 call	 ??1ResourceHolderUINT@Internal@Core@Math@Palmtree@@UEAA@XZ ; Palmtree::Math::Core::Internal::ResourceHolderUINT::~ResourceHolderUINT
  0013e	8b 85 24 03 00
	00		 mov	 eax, DWORD PTR $T10[rbp]
  00144	e9 80 02 00 00	 jmp	 $LN1@TryParseX
$LN4@TryParseX:

; 1203 :         }
; 1204 : 
; 1205 :         //  1  8F 
; 1206 :         if (ParseHexDigit(int_part_buf[0]) >= 8)

  00149	b8 02 00 00 00	 mov	 eax, 2
  0014e	48 6b c0 00	 imul	 rax, rax, 0
  00152	48 8b 8d 88 00
	00 00		 mov	 rcx, QWORD PTR int_part_buf$[rbp]
  00159	0f b7 0c 01	 movzx	 ecx, WORD PTR [rcx+rax]
  0015d	e8 00 00 00 00	 call	 ?ParseHexDigit@Internal@Core@Math@Palmtree@@YAH_W@Z ; Palmtree::Math::Core::Internal::ParseHexDigit
  00162	83 f8 08	 cmp	 eax, 8
  00165	7c 27		 jl	 SHORT $LN7@TryParseX

; 1207 :         {
; 1208 :             //  1  8F 
; 1209 :             if (!(number_styles & PMC_NUMBER_STYLE_ALLOW_SIGNED_INTEGER))

  00167	8b 85 a8 03 00
	00		 mov	 eax, DWORD PTR number_styles$[rbp]
  0016d	25 00 00 00 01	 and	 eax, 16777216		; 01000000H
  00172	85 c0		 test	 eax, eax
  00174	75 0c		 jne	 SHORT $LN9@TryParseX

; 1210 :             {
; 1211 :                 // '8''F'
; 1212 : 
; 1213 :                 // 
; 1214 :                 *o_sign = 1;

  00176	48 8b 85 b8 03
	00 00		 mov	 rax, QWORD PTR o_sign$[rbp]
  0017d	c6 00 01	 mov	 BYTE PTR [rax], 1

; 1215 :             }
; 1216 :             else

  00180	eb 0a		 jmp	 SHORT $LN10@TryParseX
$LN9@TryParseX:

; 1217 :             {
; 1218 :                 // '8''F'
; 1219 : 
; 1220 :                 // 
; 1221 :                 *o_sign = -1;

  00182	48 8b 85 b8 03
	00 00		 mov	 rax, QWORD PTR o_sign$[rbp]
  00189	c6 00 ff	 mov	 BYTE PTR [rax], -1
$LN10@TryParseX:

; 1222 :             }
; 1223 :         }
; 1224 :         else

  0018c	eb 0a		 jmp	 SHORT $LN8@TryParseX
$LN7@TryParseX:

; 1225 :         {
; 1226 :             //  1  07 
; 1227 :             *o_sign = 1;

  0018e	48 8b 85 b8 03
	00 00		 mov	 rax, QWORD PTR o_sign$[rbp]
  00195	c6 00 01	 mov	 BYTE PTR [rax], 1
$LN8@TryParseX:

; 1228 :         }
; 1229 : 
; 1230 :         __UNIT_TYPE o_bit_count = lstrlenW(int_part_buf) * 4;

  00198	48 8b 8d 88 00
	00 00		 mov	 rcx, QWORD PTR int_part_buf$[rbp]
  0019f	ff 15 00 00 00
	00		 call	 QWORD PTR __imp_lstrlenW
  001a5	c1 e0 02	 shl	 eax, 2
  001a8	48 98		 cdqe
  001aa	48 89 85 c8 00
	00 00		 mov	 QWORD PTR o_bit_count$[rbp], rax

; 1231 :         *o_abs = root.AllocateNumber(o_bit_count);

  001b1	48 8b 95 c8 00
	00 00		 mov	 rdx, QWORD PTR o_bit_count$[rbp]
  001b8	48 8d 4d 08	 lea	 rcx, QWORD PTR root$[rbp]
  001bc	e8 00 00 00 00	 call	 ?AllocateNumber@ResourceHolderUINT@Internal@Core@Math@Palmtree@@QEAAPEAU__tag_NUMBER_HEADER@2345@_K@Z ; Palmtree::Math::Core::Internal::ResourceHolderUINT::AllocateNumber
  001c1	48 8b 8d c0 03
	00 00		 mov	 rcx, QWORD PTR o_abs$[rbp]
  001c8	48 89 01	 mov	 QWORD PTR [rcx], rax

; 1232 :         BuildBinaryFromHexString(int_part_buf, (*o_abs)->BLOCK);

  001cb	48 8b 85 c0 03
	00 00		 mov	 rax, QWORD PTR o_abs$[rbp]
  001d2	48 8b 00	 mov	 rax, QWORD PTR [rax]
  001d5	48 8b 50 40	 mov	 rdx, QWORD PTR [rax+64]
  001d9	48 8b 8d 88 00
	00 00		 mov	 rcx, QWORD PTR int_part_buf$[rbp]
  001e0	e8 00 00 00 00	 call	 ?BuildBinaryFromHexString@Internal@Core@Math@Palmtree@@YAXPEA_WPEA_K@Z ; Palmtree::Math::Core::Internal::BuildBinaryFromHexString

; 1233 :         root.CheckNumber(*o_abs);

  001e5	48 8b 85 c0 03
	00 00		 mov	 rax, QWORD PTR o_abs$[rbp]
  001ec	48 8b 10	 mov	 rdx, QWORD PTR [rax]
  001ef	48 8d 4d 08	 lea	 rcx, QWORD PTR root$[rbp]
  001f3	e8 00 00 00 00	 call	 ?CheckNumber@ResourceHolderUINT@Internal@Core@Math@Palmtree@@QEAAXPEAU__tag_NUMBER_HEADER@2345@@Z ; Palmtree::Math::Core::Internal::ResourceHolderUINT::CheckNumber

; 1234 :         root.DeallocateString(int_part_buf);

  001f8	48 8b 95 88 00
	00 00		 mov	 rdx, QWORD PTR int_part_buf$[rbp]
  001ff	48 8d 4d 08	 lea	 rcx, QWORD PTR root$[rbp]
  00203	e8 00 00 00 00	 call	 ?DeallocateString@ResourceHolderUINT@Internal@Core@Math@Palmtree@@QEAAXPEA_W@Z ; Palmtree::Math::Core::Internal::ResourceHolderUINT::DeallocateString

; 1235 :         if (*o_sign < 0)

  00208	48 8b 85 b8 03
	00 00		 mov	 rax, QWORD PTR o_sign$[rbp]
  0020f	0f be 00	 movsx	 eax, BYTE PTR [rax]
  00212	85 c0		 test	 eax, eax
  00214	0f 8d 23 01 00
	00		 jge	 $LN11@TryParseX

; 1236 :         {
; 1237 :             // 
; 1238 : 
; 1239 :             int lzcnt = o_bit_count % __UNIT_TYPE_BIT_COUNT;

  0021a	33 d2		 xor	 edx, edx
  0021c	48 8b 85 c8 00
	00 00		 mov	 rax, QWORD PTR o_bit_count$[rbp]
  00223	b9 40 00 00 00	 mov	 ecx, 64			; 00000040H
  00228	48 f7 f1	 div	 rcx
  0022b	48 8b c2	 mov	 rax, rdx
  0022e	89 85 e4 00 00
	00		 mov	 DWORD PTR lzcnt$4[rbp], eax

; 1240 :             if (lzcnt != 0)

  00234	83 bd e4 00 00
	00 00		 cmp	 DWORD PTR lzcnt$4[rbp], 0
  0023b	74 74		 je	 SHORT $LN12@TryParseX

; 1241 :             {
; 1242 :                 __UNIT_TYPE padding = (__UNIT_TYPE)-1 << lzcnt;

  0023d	8b 85 e4 00 00
	00		 mov	 eax, DWORD PTR lzcnt$4[rbp]
  00243	48 c7 c1 ff ff
	ff ff		 mov	 rcx, -1
  0024a	48 89 8d 78 03
	00 00		 mov	 QWORD PTR tv231[rbp], rcx
  00251	0f b6 c8	 movzx	 ecx, al
  00254	48 8b 85 78 03
	00 00		 mov	 rax, QWORD PTR tv231[rbp]
  0025b	48 d3 e0	 shl	 rax, cl
  0025e	48 89 85 08 01
	00 00		 mov	 QWORD PTR padding$5[rbp], rax

; 1243 :                 (*o_abs)->BLOCK[(*o_abs)->BLOCK_COUNT - 1] |= padding;

  00265	48 8b 85 c0 03
	00 00		 mov	 rax, QWORD PTR o_abs$[rbp]
  0026c	48 8b 00	 mov	 rax, QWORD PTR [rax]
  0026f	48 8b 8d c0 03
	00 00		 mov	 rcx, QWORD PTR o_abs$[rbp]
  00276	48 8b 09	 mov	 rcx, QWORD PTR [rcx]
  00279	48 8b 49 38	 mov	 rcx, QWORD PTR [rcx+56]
  0027d	48 8b 40 40	 mov	 rax, QWORD PTR [rax+64]
  00281	48 8b 95 08 01
	00 00		 mov	 rdx, QWORD PTR padding$5[rbp]
  00288	48 8b 44 c8 f8	 mov	 rax, QWORD PTR [rax+rcx*8-8]
  0028d	48 0b c2	 or	 rax, rdx
  00290	48 8b 8d c0 03
	00 00		 mov	 rcx, QWORD PTR o_abs$[rbp]
  00297	48 8b 09	 mov	 rcx, QWORD PTR [rcx]
  0029a	48 8b 95 c0 03
	00 00		 mov	 rdx, QWORD PTR o_abs$[rbp]
  002a1	48 8b 12	 mov	 rdx, QWORD PTR [rdx]
  002a4	48 8b 52 38	 mov	 rdx, QWORD PTR [rdx+56]
  002a8	48 8b 49 40	 mov	 rcx, QWORD PTR [rcx+64]
  002ac	48 89 44 d1 f8	 mov	 QWORD PTR [rcx+rdx*8-8], rax
$LN12@TryParseX:

; 1244 :             }
; 1245 : 
; 1246 :             //  (*o_abs)->BLOCK 
; 1247 :             char carry = 1;

  002b1	c6 85 24 01 00
	00 01		 mov	 BYTE PTR carry$6[rbp], 1

; 1248 :             __UNIT_TYPE* p = (*o_abs)->BLOCK;

  002b8	48 8b 85 c0 03
	00 00		 mov	 rax, QWORD PTR o_abs$[rbp]
  002bf	48 8b 00	 mov	 rax, QWORD PTR [rax]
  002c2	48 8b 40 40	 mov	 rax, QWORD PTR [rax+64]
  002c6	48 89 85 48 01
	00 00		 mov	 QWORD PTR p$7[rbp], rax

; 1249 :             __UNIT_TYPE count = (*o_abs)->BLOCK_COUNT;

  002cd	48 8b 85 c0 03
	00 00		 mov	 rax, QWORD PTR o_abs$[rbp]
  002d4	48 8b 00	 mov	 rax, QWORD PTR [rax]
  002d7	48 8b 40 38	 mov	 rax, QWORD PTR [rax+56]
  002db	48 89 85 68 01
	00 00		 mov	 QWORD PTR count$8[rbp], rax
$LN2@TryParseX:

; 1250 :             while (count > 0)

  002e2	48 83 bd 68 01
	00 00 00	 cmp	 QWORD PTR count$8[rbp], 0
  002ea	76 51		 jbe	 SHORT $LN11@TryParseX

; 1251 :             {
; 1252 :                 carry = _ADD_UNIT(carry, ~*p, 0, p);

  002ec	48 8b 85 48 01
	00 00		 mov	 rax, QWORD PTR p$7[rbp]
  002f3	48 8b 00	 mov	 rax, QWORD PTR [rax]
  002f6	48 f7 d0	 not	 rax
  002f9	4c 8b 8d 48 01
	00 00		 mov	 r9, QWORD PTR p$7[rbp]
  00300	45 33 c0	 xor	 r8d, r8d
  00303	48 8b d0	 mov	 rdx, rax
  00306	0f b6 8d 24 01
	00 00		 movzx	 ecx, BYTE PTR carry$6[rbp]
  0030d	e8 00 00 00 00	 call	 _ADD_UNIT
  00312	88 85 24 01 00
	00		 mov	 BYTE PTR carry$6[rbp], al

; 1253 :                 ++p;

  00318	48 8b 85 48 01
	00 00		 mov	 rax, QWORD PTR p$7[rbp]
  0031f	48 83 c0 08	 add	 rax, 8
  00323	48 89 85 48 01
	00 00		 mov	 QWORD PTR p$7[rbp], rax

; 1254 :                 --count;

  0032a	48 8b 85 68 01
	00 00		 mov	 rax, QWORD PTR count$8[rbp]
  00331	48 ff c8	 dec	 rax
  00334	48 89 85 68 01
	00 00		 mov	 QWORD PTR count$8[rbp], rax

; 1255 :             }

  0033b	eb a5		 jmp	 SHORT $LN2@TryParseX
$LN11@TryParseX:

; 1256 :         }
; 1257 :         CommitNumber(*o_abs);

  0033d	48 8b 85 c0 03
	00 00		 mov	 rax, QWORD PTR o_abs$[rbp]
  00344	48 8b 08	 mov	 rcx, QWORD PTR [rax]
  00347	e8 00 00 00 00	 call	 ?CommitNumber@Internal@Core@Math@Palmtree@@YAXPEAU__tag_NUMBER_HEADER@1234@@Z ; Palmtree::Math::Core::Internal::CommitNumber

; 1258 :         if ((*o_abs)->IS_ZERO)

  0034c	48 8b 85 c0 03
	00 00		 mov	 rax, QWORD PTR o_abs$[rbp]
  00353	48 8b 00	 mov	 rax, QWORD PTR [rax]
  00356	8b 40 08	 mov	 eax, DWORD PTR [rax+8]
  00359	83 e0 01	 and	 eax, 1
  0035c	85 c0		 test	 eax, eax
  0035e	74 30		 je	 SHORT $LN13@TryParseX

; 1259 :         {
; 1260 :             root.DeallocateNumber(*o_abs);

  00360	48 8b 85 c0 03
	00 00		 mov	 rax, QWORD PTR o_abs$[rbp]
  00367	48 8b 10	 mov	 rdx, QWORD PTR [rax]
  0036a	48 8d 4d 08	 lea	 rcx, QWORD PTR root$[rbp]
  0036e	e8 00 00 00 00	 call	 ?DeallocateNumber@ResourceHolderUINT@Internal@Core@Math@Palmtree@@QEAAXPEAU__tag_NUMBER_HEADER@2345@@Z ; Palmtree::Math::Core::Internal::ResourceHolderUINT::DeallocateNumber

; 1261 :             *o_sign = 0;

  00373	48 8b 85 b8 03
	00 00		 mov	 rax, QWORD PTR o_sign$[rbp]
  0037a	c6 00 00	 mov	 BYTE PTR [rax], 0

; 1262 :             *o_abs = &number_zero;

  0037d	48 8b 85 c0 03
	00 00		 mov	 rax, QWORD PTR o_abs$[rbp]
  00384	48 8d 0d 00 00
	00 00		 lea	 rcx, OFFSET FLAT:?number_zero@Internal@Core@Math@Palmtree@@3U__tag_NUMBER_HEADER@1234@A ; Palmtree::Math::Core::Internal::number_zero
  0038b	48 89 08	 mov	 QWORD PTR [rax], rcx

; 1263 :         }
; 1264 :         else

  0038e	eb 13		 jmp	 SHORT $LN14@TryParseX
$LN13@TryParseX:

; 1265 :             root.UnlinkNumber(*o_abs);

  00390	48 8b 85 c0 03
	00 00		 mov	 rax, QWORD PTR o_abs$[rbp]
  00397	48 8b 10	 mov	 rdx, QWORD PTR [rax]
  0039a	48 8d 4d 08	 lea	 rcx, QWORD PTR root$[rbp]
  0039e	e8 00 00 00 00	 call	 ?UnlinkNumber@ResourceHolderUINT@Internal@Core@Math@Palmtree@@QEAAXPEAU__tag_NUMBER_HEADER@2345@@Z ; Palmtree::Math::Core::Internal::ResourceHolderUINT::UnlinkNumber
$LN14@TryParseX:

; 1266 :         *result = 1;

  003a3	48 8b 85 c8 03
	00 00		 mov	 rax, QWORD PTR result$[rbp]
  003aa	c7 00 01 00 00
	00		 mov	 DWORD PTR [rax], 1

; 1267 :         return (PMC_STATUS_OK);

  003b0	c7 85 44 03 00
	00 00 00 00 00	 mov	 DWORD PTR $T11[rbp], 0
  003ba	48 8d 4d 08	 lea	 rcx, QWORD PTR root$[rbp]
  003be	e8 00 00 00 00	 call	 ??1ResourceHolderUINT@Internal@Core@Math@Palmtree@@UEAA@XZ ; Palmtree::Math::Core::Internal::ResourceHolderUINT::~ResourceHolderUINT
  003c3	8b 85 44 03 00
	00		 mov	 eax, DWORD PTR $T11[rbp]
$LN1@TryParseX:

; 1268 :     }

  003c9	48 8b f8	 mov	 rdi, rax
  003cc	48 8d 4d d0	 lea	 rcx, QWORD PTR [rbp-48]
  003d0	48 8d 15 00 00
	00 00		 lea	 rdx, OFFSET FLAT:?TryParseX@Internal@Core@Math@Palmtree@@YAHPEB_WIPEBU__tag_PMC_NUMBER_FORMAT_INFO@1234@PEADPEAPEAU__tag_NUMBER_HEADER@1234@PEAI@Z$rtcFrameData
  003d7	e8 00 00 00 00	 call	 _RTC_CheckStackVars
  003dc	48 8b c7	 mov	 rax, rdi
  003df	48 8d a5 88 03
	00 00		 lea	 rsp, QWORD PTR [rbp+904]
  003e6	5f		 pop	 rdi
  003e7	5d		 pop	 rbp
  003e8	c3		 ret	 0
?TryParseX@Internal@Core@Math@Palmtree@@YAHPEB_WIPEBU__tag_PMC_NUMBER_FORMAT_INFO@1234@PEADPEAPEAU__tag_NUMBER_HEADER@1234@PEAI@Z ENDP ; Palmtree::Math::Core::Internal::TryParseX
_TEXT	ENDS
;	COMDAT text$x
text$x	SEGMENT
root$ = 8
source_len$ = 72
int_part_buf_size$ = 104
int_part_buf$ = 136
result_parsing$ = 164
o_bit_count$ = 200
lzcnt$4 = 228
padding$5 = 264
carry$6 = 292
p$7 = 328
count$8 = 360
$T9 = 772
$T10 = 804
$T11 = 836
$T12 = 872
tv231 = 888
source$ = 928
number_styles$ = 936
format_option$ = 944
o_sign$ = 952
o_abs$ = 960
result$ = 968
?dtor$0@?0??TryParseX@Internal@Core@Math@Palmtree@@YAHPEB_WIPEBU__tag_PMC_NUMBER_FORMAT_INFO@1234@PEADPEAPEAU__tag_NUMBER_HEADER@1234@PEAI@Z@4HA PROC ; `Palmtree::Math::Core::Internal::TryParseX'::`1'::dtor$0
  00000	48 89 4c 24 08	 mov	 QWORD PTR [rsp+8], rcx
  00005	48 89 54 24 10	 mov	 QWORD PTR [rsp+16], rdx
  0000a	55		 push	 rbp
  0000b	57		 push	 rdi
  0000c	48 83 ec 28	 sub	 rsp, 40			; 00000028H
  00010	48 8d 6a 30	 lea	 rbp, QWORD PTR [rdx+48]
  00014	48 8d 4d 08	 lea	 rcx, QWORD PTR root$[rbp]
  00018	e8 00 00 00 00	 call	 ??1ResourceHolderUINT@Internal@Core@Math@Palmtree@@UEAA@XZ ; Palmtree::Math::Core::Internal::ResourceHolderUINT::~ResourceHolderUINT
  0001d	48 83 c4 28	 add	 rsp, 40			; 00000028H
  00021	5f		 pop	 rdi
  00022	5d		 pop	 rbp
  00023	c3		 ret	 0
?dtor$0@?0??TryParseX@Internal@Core@Math@Palmtree@@YAHPEB_WIPEBU__tag_PMC_NUMBER_FORMAT_INFO@1234@PEADPEAPEAU__tag_NUMBER_HEADER@1234@PEAI@Z@4HA ENDP ; `Palmtree::Math::Core::Internal::TryParseX'::`1'::dtor$0
text$x	ENDS
; Function compile flags: /Odtp /RTCsu /ZI
;	COMDAT text$x
text$x	SEGMENT
root$ = 8
source_len$ = 72
int_part_buf_size$ = 104
int_part_buf$ = 136
result_parsing$ = 164
o_bit_count$ = 200
lzcnt$4 = 228
padding$5 = 264
carry$6 = 292
p$7 = 328
count$8 = 360
$T9 = 772
$T10 = 804
$T11 = 836
$T12 = 872
tv231 = 888
source$ = 928
number_styles$ = 936
format_option$ = 944
o_sign$ = 952
o_abs$ = 960
result$ = 968
?dtor$0@?0??TryParseX@Internal@Core@Math@Palmtree@@YAHPEB_WIPEBU__tag_PMC_NUMBER_FORMAT_INFO@1234@PEADPEAPEAU__tag_NUMBER_HEADER@1234@PEAI@Z@4HA PROC ; `Palmtree::Math::Core::Internal::TryParseX'::`1'::dtor$0
  00000	48 89 4c 24 08	 mov	 QWORD PTR [rsp+8], rcx
  00005	48 89 54 24 10	 mov	 QWORD PTR [rsp+16], rdx
  0000a	55		 push	 rbp
  0000b	57		 push	 rdi
  0000c	48 83 ec 28	 sub	 rsp, 40			; 00000028H
  00010	48 8d 6a 30	 lea	 rbp, QWORD PTR [rdx+48]
  00014	48 8d 4d 08	 lea	 rcx, QWORD PTR root$[rbp]
  00018	e8 00 00 00 00	 call	 ??1ResourceHolderUINT@Internal@Core@Math@Palmtree@@UEAA@XZ ; Palmtree::Math::Core::Internal::ResourceHolderUINT::~ResourceHolderUINT
  0001d	48 83 c4 28	 add	 rsp, 40			; 00000028H
  00021	5f		 pop	 rdi
  00022	5d		 pop	 rbp
  00023	c3		 ret	 0
?dtor$0@?0??TryParseX@Internal@Core@Math@Palmtree@@YAHPEB_WIPEBU__tag_PMC_NUMBER_FORMAT_INFO@1234@PEADPEAPEAU__tag_NUMBER_HEADER@1234@PEAI@Z@4HA ENDP ; `Palmtree::Math::Core::Internal::TryParseX'::`1'::dtor$0
text$x	ENDS
; Function compile flags: /Odtp /RTCsu /ZI
; File z:\sources\lunor\repos\rougemeilland\palmtree.math.core.uint\palmtree.math.core.uint\pmc_parse.cpp
;	COMDAT ?ParseAsHexNumberString@Internal@Core@Math@Palmtree@@YAHPEB_WIPEBU__tag_PMC_NUMBER_FORMAT_INFO@1234@PEA_W_K@Z
_TEXT	SEGMENT
dummy_sign$ = 4
state$ = 48
$T5 = 580
$T6 = 616
__$ArrayPad$ = 632
in_ptr$ = 672
number_styles$ = 680
format_option$ = 688
int_part_buf$ = 696
int_part_buf_size$ = 704
?ParseAsHexNumberString@Internal@Core@Math@Palmtree@@YAHPEB_WIPEBU__tag_PMC_NUMBER_FORMAT_INFO@1234@PEA_W_K@Z PROC ; Palmtree::Math::Core::Internal::ParseAsHexNumberString, COMDAT

; 1183 :     {

  00000	4c 89 4c 24 20	 mov	 QWORD PTR [rsp+32], r9
  00005	4c 89 44 24 18	 mov	 QWORD PTR [rsp+24], r8
  0000a	89 54 24 10	 mov	 DWORD PTR [rsp+16], edx
  0000e	48 89 4c 24 08	 mov	 QWORD PTR [rsp+8], rcx
  00013	55		 push	 rbp
  00014	57		 push	 rdi
  00015	48 81 ec d8 02
	00 00		 sub	 rsp, 728		; 000002d8H
  0001c	48 8d 6c 24 50	 lea	 rbp, QWORD PTR [rsp+80]
  00021	48 8b fc	 mov	 rdi, rsp
  00024	b9 b6 00 00 00	 mov	 ecx, 182		; 000000b6H
  00029	b8 cc cc cc cc	 mov	 eax, -858993460		; ccccccccH
  0002e	f3 ab		 rep stosd
  00030	48 8b 8c 24 f8
	02 00 00	 mov	 rcx, QWORD PTR [rsp+760]
  00038	48 c7 85 68 02
	00 00 fe ff ff
	ff		 mov	 QWORD PTR $T6[rbp], -2
  00043	48 8b 05 00 00
	00 00		 mov	 rax, QWORD PTR __security_cookie
  0004a	48 33 c5	 xor	 rax, rbp
  0004d	48 89 85 78 02
	00 00		 mov	 QWORD PTR __$ArrayPad$[rbp], rax
  00054	48 8d 0d 00 00
	00 00		 lea	 rcx, OFFSET FLAT:__F159A697_pmc_parse@cpp
  0005b	e8 00 00 00 00	 call	 __CheckForDebuggerJustMyCode

; 1184 :         char dummy_sign;
; 1185 :         ParserState state(in_ptr, number_styles, format_option, &dummy_sign, int_part_buf, int_part_buf_size, nullptr, 0);

  00060	48 c7 44 24 40
	00 00 00 00	 mov	 QWORD PTR [rsp+64], 0
  00069	48 c7 44 24 38
	00 00 00 00	 mov	 QWORD PTR [rsp+56], 0
  00072	48 8b 85 c0 02
	00 00		 mov	 rax, QWORD PTR int_part_buf_size$[rbp]
  00079	48 89 44 24 30	 mov	 QWORD PTR [rsp+48], rax
  0007e	48 8b 85 b8 02
	00 00		 mov	 rax, QWORD PTR int_part_buf$[rbp]
  00085	48 89 44 24 28	 mov	 QWORD PTR [rsp+40], rax
  0008a	48 8d 45 04	 lea	 rax, QWORD PTR dummy_sign$[rbp]
  0008e	48 89 44 24 20	 mov	 QWORD PTR [rsp+32], rax
  00093	4c 8b 8d b0 02
	00 00		 mov	 r9, QWORD PTR format_option$[rbp]
  0009a	44 8b 85 a8 02
	00 00		 mov	 r8d, DWORD PTR number_styles$[rbp]
  000a1	48 8b 95 a0 02
	00 00		 mov	 rdx, QWORD PTR in_ptr$[rbp]
  000a8	48 8d 4d 30	 lea	 rcx, QWORD PTR state$[rbp]
  000ac	e8 00 00 00 00	 call	 ??0ParserState@Internal@Core@Math@Palmtree@@QEAA@PEB_WIPEBU__tag_PMC_NUMBER_FORMAT_INFO@1234@PEADPEA_W_K34@Z ; Palmtree::Math::Core::Internal::ParserState::ParserState
  000b1	90		 npad	 1

; 1186 :         return (state.ParseAsHexNumberString());

  000b2	48 8d 4d 30	 lea	 rcx, QWORD PTR state$[rbp]
  000b6	e8 00 00 00 00	 call	 ?ParseAsHexNumberString@ParserState@Internal@Core@Math@Palmtree@@QEAAHXZ ; Palmtree::Math::Core::Internal::ParserState::ParseAsHexNumberString
  000bb	89 85 44 02 00
	00		 mov	 DWORD PTR $T5[rbp], eax
  000c1	48 8d 4d 30	 lea	 rcx, QWORD PTR state$[rbp]
  000c5	e8 00 00 00 00	 call	 ??1ParserState@Internal@Core@Math@Palmtree@@QEAA@XZ ; Palmtree::Math::Core::Internal::ParserState::~ParserState
  000ca	8b 85 44 02 00
	00		 mov	 eax, DWORD PTR $T5[rbp]

; 1187 :     }

  000d0	8b f8		 mov	 edi, eax
  000d2	48 8d 4d b0	 lea	 rcx, QWORD PTR [rbp-80]
  000d6	48 8d 15 00 00
	00 00		 lea	 rdx, OFFSET FLAT:?ParseAsHexNumberString@Internal@Core@Math@Palmtree@@YAHPEB_WIPEBU__tag_PMC_NUMBER_FORMAT_INFO@1234@PEA_W_K@Z$rtcFrameData
  000dd	e8 00 00 00 00	 call	 _RTC_CheckStackVars
  000e2	8b c7		 mov	 eax, edi
  000e4	48 8b 8d 78 02
	00 00		 mov	 rcx, QWORD PTR __$ArrayPad$[rbp]
  000eb	48 33 cd	 xor	 rcx, rbp
  000ee	e8 00 00 00 00	 call	 __security_check_cookie
  000f3	48 8d a5 88 02
	00 00		 lea	 rsp, QWORD PTR [rbp+648]
  000fa	5f		 pop	 rdi
  000fb	5d		 pop	 rbp
  000fc	c3		 ret	 0
?ParseAsHexNumberString@Internal@Core@Math@Palmtree@@YAHPEB_WIPEBU__tag_PMC_NUMBER_FORMAT_INFO@1234@PEA_W_K@Z ENDP ; Palmtree::Math::Core::Internal::ParseAsHexNumberString
_TEXT	ENDS
;	COMDAT text$x
text$x	SEGMENT
dummy_sign$ = 4
state$ = 48
$T5 = 580
$T6 = 616
__$ArrayPad$ = 632
in_ptr$ = 672
number_styles$ = 680
format_option$ = 688
int_part_buf$ = 696
int_part_buf_size$ = 704
?dtor$0@?0??ParseAsHexNumberString@Internal@Core@Math@Palmtree@@YAHPEB_WIPEBU__tag_PMC_NUMBER_FORMAT_INFO@1234@PEA_W_K@Z@4HA PROC ; `Palmtree::Math::Core::Internal::ParseAsHexNumberString'::`1'::dtor$0
  00000	48 89 4c 24 08	 mov	 QWORD PTR [rsp+8], rcx
  00005	48 89 54 24 10	 mov	 QWORD PTR [rsp+16], rdx
  0000a	55		 push	 rbp
  0000b	57		 push	 rdi
  0000c	48 83 ec 28	 sub	 rsp, 40			; 00000028H
  00010	48 8d 6a 50	 lea	 rbp, QWORD PTR [rdx+80]
  00014	48 8d 4d 30	 lea	 rcx, QWORD PTR state$[rbp]
  00018	e8 00 00 00 00	 call	 ??1ParserState@Internal@Core@Math@Palmtree@@QEAA@XZ ; Palmtree::Math::Core::Internal::ParserState::~ParserState
  0001d	48 83 c4 28	 add	 rsp, 40			; 00000028H
  00021	5f		 pop	 rdi
  00022	5d		 pop	 rbp
  00023	c3		 ret	 0
?dtor$0@?0??ParseAsHexNumberString@Internal@Core@Math@Palmtree@@YAHPEB_WIPEBU__tag_PMC_NUMBER_FORMAT_INFO@1234@PEA_W_K@Z@4HA ENDP ; `Palmtree::Math::Core::Internal::ParseAsHexNumberString'::`1'::dtor$0
text$x	ENDS
; Function compile flags: /Odtp /RTCsu /ZI
;	COMDAT text$x
text$x	SEGMENT
dummy_sign$ = 4
state$ = 48
$T5 = 580
$T6 = 616
__$ArrayPad$ = 632
in_ptr$ = 672
number_styles$ = 680
format_option$ = 688
int_part_buf$ = 696
int_part_buf_size$ = 704
?dtor$0@?0??ParseAsHexNumberString@Internal@Core@Math@Palmtree@@YAHPEB_WIPEBU__tag_PMC_NUMBER_FORMAT_INFO@1234@PEA_W_K@Z@4HA PROC ; `Palmtree::Math::Core::Internal::ParseAsHexNumberString'::`1'::dtor$0
  00000	48 89 4c 24 08	 mov	 QWORD PTR [rsp+8], rcx
  00005	48 89 54 24 10	 mov	 QWORD PTR [rsp+16], rdx
  0000a	55		 push	 rbp
  0000b	57		 push	 rdi
  0000c	48 83 ec 28	 sub	 rsp, 40			; 00000028H
  00010	48 8d 6a 50	 lea	 rbp, QWORD PTR [rdx+80]
  00014	48 8d 4d 30	 lea	 rcx, QWORD PTR state$[rbp]
  00018	e8 00 00 00 00	 call	 ??1ParserState@Internal@Core@Math@Palmtree@@QEAA@XZ ; Palmtree::Math::Core::Internal::ParserState::~ParserState
  0001d	48 83 c4 28	 add	 rsp, 40			; 00000028H
  00021	5f		 pop	 rdi
  00022	5d		 pop	 rbp
  00023	c3		 ret	 0
?dtor$0@?0??ParseAsHexNumberString@Internal@Core@Math@Palmtree@@YAHPEB_WIPEBU__tag_PMC_NUMBER_FORMAT_INFO@1234@PEA_W_K@Z@4HA ENDP ; `Palmtree::Math::Core::Internal::ParseAsHexNumberString'::`1'::dtor$0
text$x	ENDS
; Function compile flags: /Odtp /RTCsu /ZI
; File z:\sources\lunor\repos\rougemeilland\palmtree.math.core.uint\palmtree.math.core.uint\pmc_parse.cpp
;	COMDAT ?BuildBinaryFromHexString@Internal@Core@Math@Palmtree@@YAXPEA_WPEA_K@Z
_TEXT	SEGMENT
word_digit_count$ = 4
source_count$ = 40
in_ptr$ = 72
out_ptr$ = 104
r$ = 132
tv74 = 344
source$ = 384
out_buf$ = 392
?BuildBinaryFromHexString@Internal@Core@Math@Palmtree@@YAXPEA_WPEA_K@Z PROC ; Palmtree::Math::Core::Internal::BuildBinaryFromHexString, COMDAT

; 1162 :     {

  00000	48 89 54 24 10	 mov	 QWORD PTR [rsp+16], rdx
  00005	48 89 4c 24 08	 mov	 QWORD PTR [rsp+8], rcx
  0000a	55		 push	 rbp
  0000b	57		 push	 rdi
  0000c	48 81 ec 88 01
	00 00		 sub	 rsp, 392		; 00000188H
  00013	48 8d 6c 24 20	 lea	 rbp, QWORD PTR [rsp+32]
  00018	48 8b fc	 mov	 rdi, rsp
  0001b	b9 62 00 00 00	 mov	 ecx, 98			; 00000062H
  00020	b8 cc cc cc cc	 mov	 eax, -858993460		; ccccccccH
  00025	f3 ab		 rep stosd
  00027	48 8b 8c 24 a8
	01 00 00	 mov	 rcx, QWORD PTR [rsp+424]
  0002f	48 8d 0d 00 00
	00 00		 lea	 rcx, OFFSET FLAT:__F159A697_pmc_parse@cpp
  00036	e8 00 00 00 00	 call	 __CheckForDebuggerJustMyCode

; 1163 :         int word_digit_count = __UNIT_TYPE_BIT_COUNT / 4;

  0003b	c7 45 04 10 00
	00 00		 mov	 DWORD PTR word_digit_count$[rbp], 16

; 1164 :         __UNIT_TYPE source_count = lstrlenW(source);

  00042	48 8b 8d 80 01
	00 00		 mov	 rcx, QWORD PTR source$[rbp]
  00049	ff 15 00 00 00
	00		 call	 QWORD PTR __imp_lstrlenW
  0004f	48 98		 cdqe
  00051	48 89 45 28	 mov	 QWORD PTR source_count$[rbp], rax

; 1165 :         wchar_t* in_ptr = source;

  00055	48 8b 85 80 01
	00 00		 mov	 rax, QWORD PTR source$[rbp]
  0005c	48 89 45 48	 mov	 QWORD PTR in_ptr$[rbp], rax

; 1166 :         __UNIT_TYPE* out_ptr = out_buf + _DIVIDE_CEILING_UNIT(source_count, word_digit_count) - 1;

  00060	48 63 45 04	 movsxd	 rax, DWORD PTR word_digit_count$[rbp]
  00064	48 8b d0	 mov	 rdx, rax
  00067	48 8b 4d 28	 mov	 rcx, QWORD PTR source_count$[rbp]
  0006b	e8 00 00 00 00	 call	 _DIVIDE_CEILING_UNIT
  00070	48 8b 8d 88 01
	00 00		 mov	 rcx, QWORD PTR out_buf$[rbp]
  00077	48 8d 44 c1 f8	 lea	 rax, QWORD PTR [rcx+rax*8-8]
  0007c	48 89 45 68	 mov	 QWORD PTR out_ptr$[rbp], rax

; 1167 :         int r = source_count % word_digit_count;

  00080	48 63 45 04	 movsxd	 rax, DWORD PTR word_digit_count$[rbp]
  00084	48 89 85 58 01
	00 00		 mov	 QWORD PTR tv74[rbp], rax
  0008b	33 d2		 xor	 edx, edx
  0008d	48 8b 45 28	 mov	 rax, QWORD PTR source_count$[rbp]
  00091	48 8b 8d 58 01
	00 00		 mov	 rcx, QWORD PTR tv74[rbp]
  00098	48 f7 f1	 div	 rcx
  0009b	48 8b c2	 mov	 rax, rdx
  0009e	89 85 84 00 00
	00		 mov	 DWORD PTR r$[rbp], eax

; 1168 :         if (r > 0)

  000a4	83 bd 84 00 00
	00 00		 cmp	 DWORD PTR r$[rbp], 0
  000ab	7e 4e		 jle	 SHORT $LN4@BuildBinar

; 1169 :         {
; 1170 :             *out_ptr-- = BuildLeading1WordFromHexString(in_ptr, r);

  000ad	48 63 85 84 00
	00 00		 movsxd	 rax, DWORD PTR r$[rbp]
  000b4	48 8b d0	 mov	 rdx, rax
  000b7	48 8b 4d 48	 mov	 rcx, QWORD PTR in_ptr$[rbp]
  000bb	e8 00 00 00 00	 call	 ?BuildLeading1WordFromHexString@Internal@Core@Math@Palmtree@@YA_KPEA_W_K@Z ; Palmtree::Math::Core::Internal::BuildLeading1WordFromHexString
  000c0	48 8b 4d 68	 mov	 rcx, QWORD PTR out_ptr$[rbp]
  000c4	48 89 01	 mov	 QWORD PTR [rcx], rax
  000c7	48 8b 45 68	 mov	 rax, QWORD PTR out_ptr$[rbp]
  000cb	48 83 e8 08	 sub	 rax, 8
  000cf	48 89 45 68	 mov	 QWORD PTR out_ptr$[rbp], rax

; 1171 :             in_ptr += r;

  000d3	48 63 85 84 00
	00 00		 movsxd	 rax, DWORD PTR r$[rbp]
  000da	48 8b 4d 48	 mov	 rcx, QWORD PTR in_ptr$[rbp]
  000de	48 8d 04 41	 lea	 rax, QWORD PTR [rcx+rax*2]
  000e2	48 89 45 48	 mov	 QWORD PTR in_ptr$[rbp], rax

; 1172 :             source_count -= r;

  000e6	48 63 85 84 00
	00 00		 movsxd	 rax, DWORD PTR r$[rbp]
  000ed	48 8b 4d 28	 mov	 rcx, QWORD PTR source_count$[rbp]
  000f1	48 2b c8	 sub	 rcx, rax
  000f4	48 8b c1	 mov	 rax, rcx
  000f7	48 89 45 28	 mov	 QWORD PTR source_count$[rbp], rax
$LN4@BuildBinar:
$LN2@BuildBinar:

; 1173 :         }
; 1174 :         while (source_count > 0)

  000fb	48 83 7d 28 00	 cmp	 QWORD PTR source_count$[rbp], 0
  00100	76 40		 jbe	 SHORT $LN3@BuildBinar

; 1175 :         {
; 1176 :             *out_ptr-- = Build1WordFromHexString(in_ptr);

  00102	48 8b 4d 48	 mov	 rcx, QWORD PTR in_ptr$[rbp]
  00106	e8 00 00 00 00	 call	 ?Build1WordFromHexString@Internal@Core@Math@Palmtree@@YA_KPEA_W@Z ; Palmtree::Math::Core::Internal::Build1WordFromHexString
  0010b	48 8b 4d 68	 mov	 rcx, QWORD PTR out_ptr$[rbp]
  0010f	48 89 01	 mov	 QWORD PTR [rcx], rax
  00112	48 8b 45 68	 mov	 rax, QWORD PTR out_ptr$[rbp]
  00116	48 83 e8 08	 sub	 rax, 8
  0011a	48 89 45 68	 mov	 QWORD PTR out_ptr$[rbp], rax

; 1177 :             in_ptr += word_digit_count;

  0011e	48 63 45 04	 movsxd	 rax, DWORD PTR word_digit_count$[rbp]
  00122	48 8b 4d 48	 mov	 rcx, QWORD PTR in_ptr$[rbp]
  00126	48 8d 04 41	 lea	 rax, QWORD PTR [rcx+rax*2]
  0012a	48 89 45 48	 mov	 QWORD PTR in_ptr$[rbp], rax

; 1178 :             source_count -= word_digit_count;

  0012e	48 63 45 04	 movsxd	 rax, DWORD PTR word_digit_count$[rbp]
  00132	48 8b 4d 28	 mov	 rcx, QWORD PTR source_count$[rbp]
  00136	48 2b c8	 sub	 rcx, rax
  00139	48 8b c1	 mov	 rax, rcx
  0013c	48 89 45 28	 mov	 QWORD PTR source_count$[rbp], rax

; 1179 :         }

  00140	eb b9		 jmp	 SHORT $LN2@BuildBinar
$LN3@BuildBinar:

; 1180 :     }

  00142	48 8d a5 68 01
	00 00		 lea	 rsp, QWORD PTR [rbp+360]
  00149	5f		 pop	 rdi
  0014a	5d		 pop	 rbp
  0014b	c3		 ret	 0
?BuildBinaryFromHexString@Internal@Core@Math@Palmtree@@YAXPEA_WPEA_K@Z ENDP ; Palmtree::Math::Core::Internal::BuildBinaryFromHexString
_TEXT	ENDS
; Function compile flags: /Odtp /RTCsu /ZI
; File z:\sources\lunor\repos\rougemeilland\palmtree.math.core.uint\palmtree.math.core.uint\pmc_parse.cpp
;	COMDAT ?Build1WordFromHexString@Internal@Core@Math@Palmtree@@YA_KPEA_W@Z
_TEXT	SEGMENT
x$ = 8
tv206 = 212
tv198 = 212
tv191 = 212
tv183 = 212
tv176 = 212
tv169 = 212
tv162 = 212
tv154 = 212
tv147 = 212
tv140 = 212
tv133 = 212
tv94 = 212
tv87 = 212
tv80 = 212
tv73 = 212
tv66 = 212
in_ptr$ = 256
?Build1WordFromHexString@Internal@Core@Math@Palmtree@@YA_KPEA_W@Z PROC ; Palmtree::Math::Core::Internal::Build1WordFromHexString, COMDAT

; 1129 :     {

  00000	48 89 4c 24 08	 mov	 QWORD PTR [rsp+8], rcx
  00005	55		 push	 rbp
  00006	57		 push	 rdi
  00007	48 81 ec 08 01
	00 00		 sub	 rsp, 264		; 00000108H
  0000e	48 8d 6c 24 20	 lea	 rbp, QWORD PTR [rsp+32]
  00013	48 8b fc	 mov	 rdi, rsp
  00016	b9 42 00 00 00	 mov	 ecx, 66			; 00000042H
  0001b	b8 cc cc cc cc	 mov	 eax, -858993460		; ccccccccH
  00020	f3 ab		 rep stosd
  00022	48 8b 8c 24 28
	01 00 00	 mov	 rcx, QWORD PTR [rsp+296]
  0002a	48 8d 0d 00 00
	00 00		 lea	 rcx, OFFSET FLAT:__F159A697_pmc_parse@cpp
  00031	e8 00 00 00 00	 call	 __CheckForDebuggerJustMyCode

; 1130 :         __UNIT_TYPE x = ParseHexDigit(*in_ptr++);

  00036	48 8b 85 00 01
	00 00		 mov	 rax, QWORD PTR in_ptr$[rbp]
  0003d	0f b7 00	 movzx	 eax, WORD PTR [rax]
  00040	66 89 85 d4 00
	00 00		 mov	 WORD PTR tv66[rbp], ax
  00047	48 8b 85 00 01
	00 00		 mov	 rax, QWORD PTR in_ptr$[rbp]
  0004e	48 83 c0 02	 add	 rax, 2
  00052	48 89 85 00 01
	00 00		 mov	 QWORD PTR in_ptr$[rbp], rax
  00059	0f b7 8d d4 00
	00 00		 movzx	 ecx, WORD PTR tv66[rbp]
  00060	e8 00 00 00 00	 call	 ?ParseHexDigit@Internal@Core@Math@Palmtree@@YAH_W@Z ; Palmtree::Math::Core::Internal::ParseHexDigit
  00065	48 98		 cdqe
  00067	48 89 45 08	 mov	 QWORD PTR x$[rbp], rax

; 1131 :         if (sizeof(__UNIT_TYPE) >= sizeof(_UINT64_T))

  0006b	33 c0		 xor	 eax, eax
  0006d	83 f8 01	 cmp	 eax, 1
  00070	0f 84 00 02 00
	00		 je	 $LN2@Build1Word

; 1132 :         {
; 1133 :             x = x * 16 + ParseHexDigit(*in_ptr++);

  00076	48 8b 85 00 01
	00 00		 mov	 rax, QWORD PTR in_ptr$[rbp]
  0007d	0f b7 00	 movzx	 eax, WORD PTR [rax]
  00080	66 89 85 d4 00
	00 00		 mov	 WORD PTR tv73[rbp], ax
  00087	48 8b 85 00 01
	00 00		 mov	 rax, QWORD PTR in_ptr$[rbp]
  0008e	48 83 c0 02	 add	 rax, 2
  00092	48 89 85 00 01
	00 00		 mov	 QWORD PTR in_ptr$[rbp], rax
  00099	0f b7 8d d4 00
	00 00		 movzx	 ecx, WORD PTR tv73[rbp]
  000a0	e8 00 00 00 00	 call	 ?ParseHexDigit@Internal@Core@Math@Palmtree@@YAH_W@Z ; Palmtree::Math::Core::Internal::ParseHexDigit
  000a5	48 98		 cdqe
  000a7	48 6b 4d 08 10	 imul	 rcx, QWORD PTR x$[rbp], 16
  000ac	48 03 c8	 add	 rcx, rax
  000af	48 8b c1	 mov	 rax, rcx
  000b2	48 89 45 08	 mov	 QWORD PTR x$[rbp], rax

; 1134 :             x = x * 16 + ParseHexDigit(*in_ptr++);

  000b6	48 8b 85 00 01
	00 00		 mov	 rax, QWORD PTR in_ptr$[rbp]
  000bd	0f b7 00	 movzx	 eax, WORD PTR [rax]
  000c0	66 89 85 d4 00
	00 00		 mov	 WORD PTR tv80[rbp], ax
  000c7	48 8b 85 00 01
	00 00		 mov	 rax, QWORD PTR in_ptr$[rbp]
  000ce	48 83 c0 02	 add	 rax, 2
  000d2	48 89 85 00 01
	00 00		 mov	 QWORD PTR in_ptr$[rbp], rax
  000d9	0f b7 8d d4 00
	00 00		 movzx	 ecx, WORD PTR tv80[rbp]
  000e0	e8 00 00 00 00	 call	 ?ParseHexDigit@Internal@Core@Math@Palmtree@@YAH_W@Z ; Palmtree::Math::Core::Internal::ParseHexDigit
  000e5	48 98		 cdqe
  000e7	48 6b 4d 08 10	 imul	 rcx, QWORD PTR x$[rbp], 16
  000ec	48 03 c8	 add	 rcx, rax
  000ef	48 8b c1	 mov	 rax, rcx
  000f2	48 89 45 08	 mov	 QWORD PTR x$[rbp], rax

; 1135 :             x = x * 16 + ParseHexDigit(*in_ptr++);

  000f6	48 8b 85 00 01
	00 00		 mov	 rax, QWORD PTR in_ptr$[rbp]
  000fd	0f b7 00	 movzx	 eax, WORD PTR [rax]
  00100	66 89 85 d4 00
	00 00		 mov	 WORD PTR tv87[rbp], ax
  00107	48 8b 85 00 01
	00 00		 mov	 rax, QWORD PTR in_ptr$[rbp]
  0010e	48 83 c0 02	 add	 rax, 2
  00112	48 89 85 00 01
	00 00		 mov	 QWORD PTR in_ptr$[rbp], rax
  00119	0f b7 8d d4 00
	00 00		 movzx	 ecx, WORD PTR tv87[rbp]
  00120	e8 00 00 00 00	 call	 ?ParseHexDigit@Internal@Core@Math@Palmtree@@YAH_W@Z ; Palmtree::Math::Core::Internal::ParseHexDigit
  00125	48 98		 cdqe
  00127	48 6b 4d 08 10	 imul	 rcx, QWORD PTR x$[rbp], 16
  0012c	48 03 c8	 add	 rcx, rax
  0012f	48 8b c1	 mov	 rax, rcx
  00132	48 89 45 08	 mov	 QWORD PTR x$[rbp], rax

; 1136 :             x = x * 16 + ParseHexDigit(*in_ptr++);

  00136	48 8b 85 00 01
	00 00		 mov	 rax, QWORD PTR in_ptr$[rbp]
  0013d	0f b7 00	 movzx	 eax, WORD PTR [rax]
  00140	66 89 85 d4 00
	00 00		 mov	 WORD PTR tv94[rbp], ax
  00147	48 8b 85 00 01
	00 00		 mov	 rax, QWORD PTR in_ptr$[rbp]
  0014e	48 83 c0 02	 add	 rax, 2
  00152	48 89 85 00 01
	00 00		 mov	 QWORD PTR in_ptr$[rbp], rax
  00159	0f b7 8d d4 00
	00 00		 movzx	 ecx, WORD PTR tv94[rbp]
  00160	e8 00 00 00 00	 call	 ?ParseHexDigit@Internal@Core@Math@Palmtree@@YAH_W@Z ; Palmtree::Math::Core::Internal::ParseHexDigit
  00165	48 98		 cdqe
  00167	48 6b 4d 08 10	 imul	 rcx, QWORD PTR x$[rbp], 16
  0016c	48 03 c8	 add	 rcx, rax
  0016f	48 8b c1	 mov	 rax, rcx
  00172	48 89 45 08	 mov	 QWORD PTR x$[rbp], rax

; 1137 :             x = x * 16 + ParseHexDigit(*in_ptr++);

  00176	48 8b 85 00 01
	00 00		 mov	 rax, QWORD PTR in_ptr$[rbp]
  0017d	0f b7 00	 movzx	 eax, WORD PTR [rax]
  00180	66 89 85 d4 00
	00 00		 mov	 WORD PTR tv133[rbp], ax
  00187	48 8b 85 00 01
	00 00		 mov	 rax, QWORD PTR in_ptr$[rbp]
  0018e	48 83 c0 02	 add	 rax, 2
  00192	48 89 85 00 01
	00 00		 mov	 QWORD PTR in_ptr$[rbp], rax
  00199	0f b7 8d d4 00
	00 00		 movzx	 ecx, WORD PTR tv133[rbp]
  001a0	e8 00 00 00 00	 call	 ?ParseHexDigit@Internal@Core@Math@Palmtree@@YAH_W@Z ; Palmtree::Math::Core::Internal::ParseHexDigit
  001a5	48 98		 cdqe
  001a7	48 6b 4d 08 10	 imul	 rcx, QWORD PTR x$[rbp], 16
  001ac	48 03 c8	 add	 rcx, rax
  001af	48 8b c1	 mov	 rax, rcx
  001b2	48 89 45 08	 mov	 QWORD PTR x$[rbp], rax

; 1138 :             x = x * 16 + ParseHexDigit(*in_ptr++);

  001b6	48 8b 85 00 01
	00 00		 mov	 rax, QWORD PTR in_ptr$[rbp]
  001bd	0f b7 00	 movzx	 eax, WORD PTR [rax]
  001c0	66 89 85 d4 00
	00 00		 mov	 WORD PTR tv140[rbp], ax
  001c7	48 8b 85 00 01
	00 00		 mov	 rax, QWORD PTR in_ptr$[rbp]
  001ce	48 83 c0 02	 add	 rax, 2
  001d2	48 89 85 00 01
	00 00		 mov	 QWORD PTR in_ptr$[rbp], rax
  001d9	0f b7 8d d4 00
	00 00		 movzx	 ecx, WORD PTR tv140[rbp]
  001e0	e8 00 00 00 00	 call	 ?ParseHexDigit@Internal@Core@Math@Palmtree@@YAH_W@Z ; Palmtree::Math::Core::Internal::ParseHexDigit
  001e5	48 98		 cdqe
  001e7	48 6b 4d 08 10	 imul	 rcx, QWORD PTR x$[rbp], 16
  001ec	48 03 c8	 add	 rcx, rax
  001ef	48 8b c1	 mov	 rax, rcx
  001f2	48 89 45 08	 mov	 QWORD PTR x$[rbp], rax

; 1139 :             x = x * 16 + ParseHexDigit(*in_ptr++);

  001f6	48 8b 85 00 01
	00 00		 mov	 rax, QWORD PTR in_ptr$[rbp]
  001fd	0f b7 00	 movzx	 eax, WORD PTR [rax]
  00200	66 89 85 d4 00
	00 00		 mov	 WORD PTR tv147[rbp], ax
  00207	48 8b 85 00 01
	00 00		 mov	 rax, QWORD PTR in_ptr$[rbp]
  0020e	48 83 c0 02	 add	 rax, 2
  00212	48 89 85 00 01
	00 00		 mov	 QWORD PTR in_ptr$[rbp], rax
  00219	0f b7 8d d4 00
	00 00		 movzx	 ecx, WORD PTR tv147[rbp]
  00220	e8 00 00 00 00	 call	 ?ParseHexDigit@Internal@Core@Math@Palmtree@@YAH_W@Z ; Palmtree::Math::Core::Internal::ParseHexDigit
  00225	48 98		 cdqe
  00227	48 6b 4d 08 10	 imul	 rcx, QWORD PTR x$[rbp], 16
  0022c	48 03 c8	 add	 rcx, rax
  0022f	48 8b c1	 mov	 rax, rcx
  00232	48 89 45 08	 mov	 QWORD PTR x$[rbp], rax

; 1140 :             x = x * 16 + ParseHexDigit(*in_ptr++);

  00236	48 8b 85 00 01
	00 00		 mov	 rax, QWORD PTR in_ptr$[rbp]
  0023d	0f b7 00	 movzx	 eax, WORD PTR [rax]
  00240	66 89 85 d4 00
	00 00		 mov	 WORD PTR tv154[rbp], ax
  00247	48 8b 85 00 01
	00 00		 mov	 rax, QWORD PTR in_ptr$[rbp]
  0024e	48 83 c0 02	 add	 rax, 2
  00252	48 89 85 00 01
	00 00		 mov	 QWORD PTR in_ptr$[rbp], rax
  00259	0f b7 8d d4 00
	00 00		 movzx	 ecx, WORD PTR tv154[rbp]
  00260	e8 00 00 00 00	 call	 ?ParseHexDigit@Internal@Core@Math@Palmtree@@YAH_W@Z ; Palmtree::Math::Core::Internal::ParseHexDigit
  00265	48 98		 cdqe
  00267	48 6b 4d 08 10	 imul	 rcx, QWORD PTR x$[rbp], 16
  0026c	48 03 c8	 add	 rcx, rax
  0026f	48 8b c1	 mov	 rax, rcx
  00272	48 89 45 08	 mov	 QWORD PTR x$[rbp], rax
$LN2@Build1Word:

; 1141 :         }
; 1142 :         if (sizeof(__UNIT_TYPE) >= sizeof(_UINT32_T))

  00276	33 c0		 xor	 eax, eax
  00278	83 f8 01	 cmp	 eax, 1
  0027b	0f 84 00 01 00
	00		 je	 $LN3@Build1Word

; 1143 :         {
; 1144 :             x = x * 16 + ParseHexDigit(*in_ptr++);

  00281	48 8b 85 00 01
	00 00		 mov	 rax, QWORD PTR in_ptr$[rbp]
  00288	0f b7 00	 movzx	 eax, WORD PTR [rax]
  0028b	66 89 85 d4 00
	00 00		 mov	 WORD PTR tv162[rbp], ax
  00292	48 8b 85 00 01
	00 00		 mov	 rax, QWORD PTR in_ptr$[rbp]
  00299	48 83 c0 02	 add	 rax, 2
  0029d	48 89 85 00 01
	00 00		 mov	 QWORD PTR in_ptr$[rbp], rax
  002a4	0f b7 8d d4 00
	00 00		 movzx	 ecx, WORD PTR tv162[rbp]
  002ab	e8 00 00 00 00	 call	 ?ParseHexDigit@Internal@Core@Math@Palmtree@@YAH_W@Z ; Palmtree::Math::Core::Internal::ParseHexDigit
  002b0	48 98		 cdqe
  002b2	48 6b 4d 08 10	 imul	 rcx, QWORD PTR x$[rbp], 16
  002b7	48 03 c8	 add	 rcx, rax
  002ba	48 8b c1	 mov	 rax, rcx
  002bd	48 89 45 08	 mov	 QWORD PTR x$[rbp], rax

; 1145 :             x = x * 16 + ParseHexDigit(*in_ptr++);

  002c1	48 8b 85 00 01
	00 00		 mov	 rax, QWORD PTR in_ptr$[rbp]
  002c8	0f b7 00	 movzx	 eax, WORD PTR [rax]
  002cb	66 89 85 d4 00
	00 00		 mov	 WORD PTR tv169[rbp], ax
  002d2	48 8b 85 00 01
	00 00		 mov	 rax, QWORD PTR in_ptr$[rbp]
  002d9	48 83 c0 02	 add	 rax, 2
  002dd	48 89 85 00 01
	00 00		 mov	 QWORD PTR in_ptr$[rbp], rax
  002e4	0f b7 8d d4 00
	00 00		 movzx	 ecx, WORD PTR tv169[rbp]
  002eb	e8 00 00 00 00	 call	 ?ParseHexDigit@Internal@Core@Math@Palmtree@@YAH_W@Z ; Palmtree::Math::Core::Internal::ParseHexDigit
  002f0	48 98		 cdqe
  002f2	48 6b 4d 08 10	 imul	 rcx, QWORD PTR x$[rbp], 16
  002f7	48 03 c8	 add	 rcx, rax
  002fa	48 8b c1	 mov	 rax, rcx
  002fd	48 89 45 08	 mov	 QWORD PTR x$[rbp], rax

; 1146 :             x = x * 16 + ParseHexDigit(*in_ptr++);

  00301	48 8b 85 00 01
	00 00		 mov	 rax, QWORD PTR in_ptr$[rbp]
  00308	0f b7 00	 movzx	 eax, WORD PTR [rax]
  0030b	66 89 85 d4 00
	00 00		 mov	 WORD PTR tv176[rbp], ax
  00312	48 8b 85 00 01
	00 00		 mov	 rax, QWORD PTR in_ptr$[rbp]
  00319	48 83 c0 02	 add	 rax, 2
  0031d	48 89 85 00 01
	00 00		 mov	 QWORD PTR in_ptr$[rbp], rax
  00324	0f b7 8d d4 00
	00 00		 movzx	 ecx, WORD PTR tv176[rbp]
  0032b	e8 00 00 00 00	 call	 ?ParseHexDigit@Internal@Core@Math@Palmtree@@YAH_W@Z ; Palmtree::Math::Core::Internal::ParseHexDigit
  00330	48 98		 cdqe
  00332	48 6b 4d 08 10	 imul	 rcx, QWORD PTR x$[rbp], 16
  00337	48 03 c8	 add	 rcx, rax
  0033a	48 8b c1	 mov	 rax, rcx
  0033d	48 89 45 08	 mov	 QWORD PTR x$[rbp], rax

; 1147 :             x = x * 16 + ParseHexDigit(*in_ptr++);

  00341	48 8b 85 00 01
	00 00		 mov	 rax, QWORD PTR in_ptr$[rbp]
  00348	0f b7 00	 movzx	 eax, WORD PTR [rax]
  0034b	66 89 85 d4 00
	00 00		 mov	 WORD PTR tv183[rbp], ax
  00352	48 8b 85 00 01
	00 00		 mov	 rax, QWORD PTR in_ptr$[rbp]
  00359	48 83 c0 02	 add	 rax, 2
  0035d	48 89 85 00 01
	00 00		 mov	 QWORD PTR in_ptr$[rbp], rax
  00364	0f b7 8d d4 00
	00 00		 movzx	 ecx, WORD PTR tv183[rbp]
  0036b	e8 00 00 00 00	 call	 ?ParseHexDigit@Internal@Core@Math@Palmtree@@YAH_W@Z ; Palmtree::Math::Core::Internal::ParseHexDigit
  00370	48 98		 cdqe
  00372	48 6b 4d 08 10	 imul	 rcx, QWORD PTR x$[rbp], 16
  00377	48 03 c8	 add	 rcx, rax
  0037a	48 8b c1	 mov	 rax, rcx
  0037d	48 89 45 08	 mov	 QWORD PTR x$[rbp], rax
$LN3@Build1Word:

; 1148 :         }
; 1149 :         if (sizeof(__UNIT_TYPE) >= sizeof(_UINT16_T))

  00381	33 c0		 xor	 eax, eax
  00383	83 f8 01	 cmp	 eax, 1
  00386	0f 84 80 00 00
	00		 je	 $LN4@Build1Word

; 1150 :         {
; 1151 :             x = x * 16 + ParseHexDigit(*in_ptr++);

  0038c	48 8b 85 00 01
	00 00		 mov	 rax, QWORD PTR in_ptr$[rbp]
  00393	0f b7 00	 movzx	 eax, WORD PTR [rax]
  00396	66 89 85 d4 00
	00 00		 mov	 WORD PTR tv191[rbp], ax
  0039d	48 8b 85 00 01
	00 00		 mov	 rax, QWORD PTR in_ptr$[rbp]
  003a4	48 83 c0 02	 add	 rax, 2
  003a8	48 89 85 00 01
	00 00		 mov	 QWORD PTR in_ptr$[rbp], rax
  003af	0f b7 8d d4 00
	00 00		 movzx	 ecx, WORD PTR tv191[rbp]
  003b6	e8 00 00 00 00	 call	 ?ParseHexDigit@Internal@Core@Math@Palmtree@@YAH_W@Z ; Palmtree::Math::Core::Internal::ParseHexDigit
  003bb	48 98		 cdqe
  003bd	48 6b 4d 08 10	 imul	 rcx, QWORD PTR x$[rbp], 16
  003c2	48 03 c8	 add	 rcx, rax
  003c5	48 8b c1	 mov	 rax, rcx
  003c8	48 89 45 08	 mov	 QWORD PTR x$[rbp], rax

; 1152 :             x = x * 16 + ParseHexDigit(*in_ptr++);

  003cc	48 8b 85 00 01
	00 00		 mov	 rax, QWORD PTR in_ptr$[rbp]
  003d3	0f b7 00	 movzx	 eax, WORD PTR [rax]
  003d6	66 89 85 d4 00
	00 00		 mov	 WORD PTR tv198[rbp], ax
  003dd	48 8b 85 00 01
	00 00		 mov	 rax, QWORD PTR in_ptr$[rbp]
  003e4	48 83 c0 02	 add	 rax, 2
  003e8	48 89 85 00 01
	00 00		 mov	 QWORD PTR in_ptr$[rbp], rax
  003ef	0f b7 8d d4 00
	00 00		 movzx	 ecx, WORD PTR tv198[rbp]
  003f6	e8 00 00 00 00	 call	 ?ParseHexDigit@Internal@Core@Math@Palmtree@@YAH_W@Z ; Palmtree::Math::Core::Internal::ParseHexDigit
  003fb	48 98		 cdqe
  003fd	48 6b 4d 08 10	 imul	 rcx, QWORD PTR x$[rbp], 16
  00402	48 03 c8	 add	 rcx, rax
  00405	48 8b c1	 mov	 rax, rcx
  00408	48 89 45 08	 mov	 QWORD PTR x$[rbp], rax
$LN4@Build1Word:

; 1153 :         }
; 1154 :         if (sizeof(__UNIT_TYPE) >= sizeof(_BYTE_T))

  0040c	33 c0		 xor	 eax, eax
  0040e	83 f8 01	 cmp	 eax, 1
  00411	74 40		 je	 SHORT $LN5@Build1Word

; 1155 :         {
; 1156 :             x = x * 16 + ParseHexDigit(*in_ptr++);

  00413	48 8b 85 00 01
	00 00		 mov	 rax, QWORD PTR in_ptr$[rbp]
  0041a	0f b7 00	 movzx	 eax, WORD PTR [rax]
  0041d	66 89 85 d4 00
	00 00		 mov	 WORD PTR tv206[rbp], ax
  00424	48 8b 85 00 01
	00 00		 mov	 rax, QWORD PTR in_ptr$[rbp]
  0042b	48 83 c0 02	 add	 rax, 2
  0042f	48 89 85 00 01
	00 00		 mov	 QWORD PTR in_ptr$[rbp], rax
  00436	0f b7 8d d4 00
	00 00		 movzx	 ecx, WORD PTR tv206[rbp]
  0043d	e8 00 00 00 00	 call	 ?ParseHexDigit@Internal@Core@Math@Palmtree@@YAH_W@Z ; Palmtree::Math::Core::Internal::ParseHexDigit
  00442	48 98		 cdqe
  00444	48 6b 4d 08 10	 imul	 rcx, QWORD PTR x$[rbp], 16
  00449	48 03 c8	 add	 rcx, rax
  0044c	48 8b c1	 mov	 rax, rcx
  0044f	48 89 45 08	 mov	 QWORD PTR x$[rbp], rax
$LN5@Build1Word:

; 1157 :         }
; 1158 :         return (x);

  00453	48 8b 45 08	 mov	 rax, QWORD PTR x$[rbp]

; 1159 :     }

  00457	48 8d a5 e8 00
	00 00		 lea	 rsp, QWORD PTR [rbp+232]
  0045e	5f		 pop	 rdi
  0045f	5d		 pop	 rbp
  00460	c3		 ret	 0
?Build1WordFromHexString@Internal@Core@Math@Palmtree@@YA_KPEA_W@Z ENDP ; Palmtree::Math::Core::Internal::Build1WordFromHexString
_TEXT	ENDS
; Function compile flags: /Odtp /RTCsu /ZI
; File z:\sources\lunor\repos\rougemeilland\palmtree.math.core.uint\palmtree.math.core.uint\pmc_parse.cpp
;	COMDAT ?BuildLeading1WordFromHexString@Internal@Core@Math@Palmtree@@YA_KPEA_W_K@Z
_TEXT	SEGMENT
x$ = 8
tv70 = 216
in_ptr$ = 256
count$ = 264
?BuildLeading1WordFromHexString@Internal@Core@Math@Palmtree@@YA_KPEA_W_K@Z PROC ; Palmtree::Math::Core::Internal::BuildLeading1WordFromHexString, COMDAT

; 1115 :     {

  00000	48 89 54 24 10	 mov	 QWORD PTR [rsp+16], rdx
  00005	48 89 4c 24 08	 mov	 QWORD PTR [rsp+8], rcx
  0000a	55		 push	 rbp
  0000b	57		 push	 rdi
  0000c	48 81 ec 08 01
	00 00		 sub	 rsp, 264		; 00000108H
  00013	48 8d 6c 24 20	 lea	 rbp, QWORD PTR [rsp+32]
  00018	48 8b fc	 mov	 rdi, rsp
  0001b	b9 42 00 00 00	 mov	 ecx, 66			; 00000042H
  00020	b8 cc cc cc cc	 mov	 eax, -858993460		; ccccccccH
  00025	f3 ab		 rep stosd
  00027	48 8b 8c 24 28
	01 00 00	 mov	 rcx, QWORD PTR [rsp+296]
  0002f	48 8d 0d 00 00
	00 00		 lea	 rcx, OFFSET FLAT:__F159A697_pmc_parse@cpp
  00036	e8 00 00 00 00	 call	 __CheckForDebuggerJustMyCode

; 1116 :         __UNIT_TYPE x = ParseHexDigit(*in_ptr);

  0003b	48 8b 85 00 01
	00 00		 mov	 rax, QWORD PTR in_ptr$[rbp]
  00042	0f b7 08	 movzx	 ecx, WORD PTR [rax]
  00045	e8 00 00 00 00	 call	 ?ParseHexDigit@Internal@Core@Math@Palmtree@@YAH_W@Z ; Palmtree::Math::Core::Internal::ParseHexDigit
  0004a	48 98		 cdqe
  0004c	48 89 45 08	 mov	 QWORD PTR x$[rbp], rax

; 1117 :         ++in_ptr;

  00050	48 8b 85 00 01
	00 00		 mov	 rax, QWORD PTR in_ptr$[rbp]
  00057	48 83 c0 02	 add	 rax, 2
  0005b	48 89 85 00 01
	00 00		 mov	 QWORD PTR in_ptr$[rbp], rax

; 1118 :         --count;

  00062	48 8b 85 08 01
	00 00		 mov	 rax, QWORD PTR count$[rbp]
  00069	48 ff c8	 dec	 rax
  0006c	48 89 85 08 01
	00 00		 mov	 QWORD PTR count$[rbp], rax
$LN2@BuildLeadi:

; 1119 :         while (count > 0)

  00073	48 83 bd 08 01
	00 00 00	 cmp	 QWORD PTR count$[rbp], 0
  0007b	76 53		 jbe	 SHORT $LN3@BuildLeadi

; 1120 :         {
; 1121 :             x = x * 16 + ParseHexDigit(*in_ptr);

  0007d	48 6b 45 08 10	 imul	 rax, QWORD PTR x$[rbp], 16
  00082	48 89 85 d8 00
	00 00		 mov	 QWORD PTR tv70[rbp], rax
  00089	48 8b 8d 00 01
	00 00		 mov	 rcx, QWORD PTR in_ptr$[rbp]
  00090	0f b7 09	 movzx	 ecx, WORD PTR [rcx]
  00093	e8 00 00 00 00	 call	 ?ParseHexDigit@Internal@Core@Math@Palmtree@@YAH_W@Z ; Palmtree::Math::Core::Internal::ParseHexDigit
  00098	48 98		 cdqe
  0009a	48 8b 8d d8 00
	00 00		 mov	 rcx, QWORD PTR tv70[rbp]
  000a1	48 03 c8	 add	 rcx, rax
  000a4	48 8b c1	 mov	 rax, rcx
  000a7	48 89 45 08	 mov	 QWORD PTR x$[rbp], rax

; 1122 :             ++in_ptr;

  000ab	48 8b 85 00 01
	00 00		 mov	 rax, QWORD PTR in_ptr$[rbp]
  000b2	48 83 c0 02	 add	 rax, 2
  000b6	48 89 85 00 01
	00 00		 mov	 QWORD PTR in_ptr$[rbp], rax

; 1123 :             --count;

  000bd	48 8b 85 08 01
	00 00		 mov	 rax, QWORD PTR count$[rbp]
  000c4	48 ff c8	 dec	 rax
  000c7	48 89 85 08 01
	00 00		 mov	 QWORD PTR count$[rbp], rax

; 1124 :         }

  000ce	eb a3		 jmp	 SHORT $LN2@BuildLeadi
$LN3@BuildLeadi:

; 1125 :         return (x);

  000d0	48 8b 45 08	 mov	 rax, QWORD PTR x$[rbp]

; 1126 :     }

  000d4	48 8d a5 e8 00
	00 00		 lea	 rsp, QWORD PTR [rbp+232]
  000db	5f		 pop	 rdi
  000dc	5d		 pop	 rbp
  000dd	c3		 ret	 0
?BuildLeading1WordFromHexString@Internal@Core@Math@Palmtree@@YA_KPEA_W_K@Z ENDP ; Palmtree::Math::Core::Internal::BuildLeading1WordFromHexString
_TEXT	ENDS
; Function compile flags: /Odtp /RTCsu /ZI
; File z:\sources\lunor\repos\rougemeilland\palmtree.math.core.uint\palmtree.math.core.uint\pmc_parse.cpp
;	COMDAT ?TryParseDN@Internal@Core@Math@Palmtree@@YAHPEB_WIPEBU__tag_PMC_NUMBER_FORMAT_INFO@1234@PEADPEAPEAU__tag_NUMBER_HEADER@1234@PEAI@Z
_TEXT	SEGMENT
word_digit_count$ = 4
root$ = 40
source_len$ = 104
int_part_buf_count$ = 136
int_part_buf$ = 168
frac_part_buf_count$ = 200
frac_part_buf$ = 232
result_parsing$ = 260
s_ptr$5 = 296
d_ptr$6 = 328
frac_ptr$ = 360
bin_buf$ = 392
bin_buf_count$ = 424
o_bit_count$ = 456
$T7 = 1060
$T8 = 1092
$T9 = 1124
$T10 = 1156
$T11 = 1188
$T12 = 1220
$T13 = 1252
$T14 = 1284
$T15 = 1316
$T16 = 1348
$T17 = 1384
$T18 = 1464
$T19 = 1544
$T20 = 1620
$T21 = 1656
tv88 = 1668
tv212 = 1672
source$ = 1712
number_styles$ = 1720
format_option$ = 1728
o_sign$ = 1736
o_abs$ = 1744
result$ = 1752
?TryParseDN@Internal@Core@Math@Palmtree@@YAHPEB_WIPEBU__tag_PMC_NUMBER_FORMAT_INFO@1234@PEADPEAPEAU__tag_NUMBER_HEADER@1234@PEAI@Z PROC ; Palmtree::Math::Core::Internal::TryParseDN, COMDAT

; 967  :     {

  00000	4c 89 4c 24 20	 mov	 QWORD PTR [rsp+32], r9
  00005	4c 89 44 24 18	 mov	 QWORD PTR [rsp+24], r8
  0000a	89 54 24 10	 mov	 DWORD PTR [rsp+16], edx
  0000e	48 89 4c 24 08	 mov	 QWORD PTR [rsp+8], rcx
  00013	55		 push	 rbp
  00014	57		 push	 rdi
  00015	48 81 ec d8 06
	00 00		 sub	 rsp, 1752		; 000006d8H
  0001c	48 8d 6c 24 40	 lea	 rbp, QWORD PTR [rsp+64]
  00021	48 8b fc	 mov	 rdi, rsp
  00024	b9 b6 01 00 00	 mov	 ecx, 438		; 000001b6H
  00029	b8 cc cc cc cc	 mov	 eax, -858993460		; ccccccccH
  0002e	f3 ab		 rep stosd
  00030	48 8b 8c 24 f8
	06 00 00	 mov	 rcx, QWORD PTR [rsp+1784]
  00038	48 c7 85 78 06
	00 00 fe ff ff
	ff		 mov	 QWORD PTR $T21[rbp], -2
  00043	48 8d 0d 00 00
	00 00		 lea	 rcx, OFFSET FLAT:__F159A697_pmc_parse@cpp
  0004a	e8 00 00 00 00	 call	 __CheckForDebuggerJustMyCode

; 968  : #ifdef _M_IX86
; 969  :         int word_digit_count = 9;
; 970  : #elif defined(_M_X64)
; 971  :         int word_digit_count = 19;

  0004f	c7 45 04 13 00
	00 00		 mov	 DWORD PTR word_digit_count$[rbp], 19

; 972  : #else
; 973  : #error unknown platform
; 974  : #endif
; 975  : 
; 976  :         ResourceHolderUINT root;

  00056	48 8d 4d 28	 lea	 rcx, QWORD PTR root$[rbp]
  0005a	e8 00 00 00 00	 call	 ??0ResourceHolderUINT@Internal@Core@Math@Palmtree@@QEAA@XZ ; Palmtree::Math::Core::Internal::ResourceHolderUINT::ResourceHolderUINT
  0005f	90		 npad	 1

; 977  : 
; 978  :         __UNIT_TYPE source_len = lstrlenW(source);

  00060	48 8b 8d b0 06
	00 00		 mov	 rcx, QWORD PTR source$[rbp]
  00067	ff 15 00 00 00
	00		 call	 QWORD PTR __imp_lstrlenW
  0006d	48 98		 cdqe
  0006f	48 89 45 68	 mov	 QWORD PTR source_len$[rbp], rax

; 979  : 
; 980  :         size_t int_part_buf_count = source_len + 1;

  00073	48 8b 45 68	 mov	 rax, QWORD PTR source_len$[rbp]
  00077	48 ff c0	 inc	 rax
  0007a	48 89 85 88 00
	00 00		 mov	 QWORD PTR int_part_buf_count$[rbp], rax

; 981  :         wchar_t* int_part_buf = root.AllocateString(int_part_buf_count);

  00081	48 8b 95 88 00
	00 00		 mov	 rdx, QWORD PTR int_part_buf_count$[rbp]
  00088	48 8d 4d 28	 lea	 rcx, QWORD PTR root$[rbp]
  0008c	e8 00 00 00 00	 call	 ?AllocateString@ResourceHolderUINT@Internal@Core@Math@Palmtree@@QEAAPEA_W_K@Z ; Palmtree::Math::Core::Internal::ResourceHolderUINT::AllocateString
  00091	48 89 85 a8 00
	00 00		 mov	 QWORD PTR int_part_buf$[rbp], rax

; 982  :         size_t frac_part_buf_count = source_len + 1;

  00098	48 8b 45 68	 mov	 rax, QWORD PTR source_len$[rbp]
  0009c	48 ff c0	 inc	 rax
  0009f	48 89 85 c8 00
	00 00		 mov	 QWORD PTR frac_part_buf_count$[rbp], rax

; 983  :         wchar_t* frac_part_buf = root.AllocateString(frac_part_buf_count);

  000a6	48 8b 95 c8 00
	00 00		 mov	 rdx, QWORD PTR frac_part_buf_count$[rbp]
  000ad	48 8d 4d 28	 lea	 rcx, QWORD PTR root$[rbp]
  000b1	e8 00 00 00 00	 call	 ?AllocateString@ResourceHolderUINT@Internal@Core@Math@Palmtree@@QEAAPEA_W_K@Z ; Palmtree::Math::Core::Internal::ResourceHolderUINT::AllocateString
  000b6	48 89 85 e8 00
	00 00		 mov	 QWORD PTR frac_part_buf$[rbp], rax

; 984  :         bool result_parsing = ParseAsDecimalNumberString(source, number_styles, format_option, o_sign, int_part_buf, int_part_buf_count, frac_part_buf, frac_part_buf_count);

  000bd	48 8b 85 c8 00
	00 00		 mov	 rax, QWORD PTR frac_part_buf_count$[rbp]
  000c4	48 89 44 24 38	 mov	 QWORD PTR [rsp+56], rax
  000c9	48 8b 85 e8 00
	00 00		 mov	 rax, QWORD PTR frac_part_buf$[rbp]
  000d0	48 89 44 24 30	 mov	 QWORD PTR [rsp+48], rax
  000d5	48 8b 85 88 00
	00 00		 mov	 rax, QWORD PTR int_part_buf_count$[rbp]
  000dc	48 89 44 24 28	 mov	 QWORD PTR [rsp+40], rax
  000e1	48 8b 85 a8 00
	00 00		 mov	 rax, QWORD PTR int_part_buf$[rbp]
  000e8	48 89 44 24 20	 mov	 QWORD PTR [rsp+32], rax
  000ed	4c 8b 8d c8 06
	00 00		 mov	 r9, QWORD PTR o_sign$[rbp]
  000f4	4c 8b 85 c0 06
	00 00		 mov	 r8, QWORD PTR format_option$[rbp]
  000fb	8b 95 b8 06 00
	00		 mov	 edx, DWORD PTR number_styles$[rbp]
  00101	48 8b 8d b0 06
	00 00		 mov	 rcx, QWORD PTR source$[rbp]
  00108	e8 00 00 00 00	 call	 ?ParseAsDecimalNumberString@Internal@Core@Math@Palmtree@@YAHPEB_WIPEBU__tag_PMC_NUMBER_FORMAT_INFO@1234@PEADPEA_W_K34@Z ; Palmtree::Math::Core::Internal::ParseAsDecimalNumberString
  0010d	85 c0		 test	 eax, eax
  0010f	74 09		 je	 SHORT $LN32@TryParseDN
  00111	c6 85 84 06 00
	00 01		 mov	 BYTE PTR tv88[rbp], 1
  00118	eb 07		 jmp	 SHORT $LN33@TryParseDN
$LN32@TryParseDN:
  0011a	c6 85 84 06 00
	00 00		 mov	 BYTE PTR tv88[rbp], 0
$LN33@TryParseDN:
  00121	0f b6 85 84 06
	00 00		 movzx	 eax, BYTE PTR tv88[rbp]
  00128	88 85 04 01 00
	00		 mov	 BYTE PTR result_parsing$[rbp], al

; 985  :         root.CheckString(int_part_buf);

  0012e	48 8b 95 a8 00
	00 00		 mov	 rdx, QWORD PTR int_part_buf$[rbp]
  00135	48 8d 4d 28	 lea	 rcx, QWORD PTR root$[rbp]
  00139	e8 00 00 00 00	 call	 ?CheckString@ResourceHolderUINT@Internal@Core@Math@Palmtree@@QEAAXPEA_W@Z ; Palmtree::Math::Core::Internal::ResourceHolderUINT::CheckString

; 986  :         root.CheckString(frac_part_buf);

  0013e	48 8b 95 e8 00
	00 00		 mov	 rdx, QWORD PTR frac_part_buf$[rbp]
  00145	48 8d 4d 28	 lea	 rcx, QWORD PTR root$[rbp]
  00149	e8 00 00 00 00	 call	 ?CheckString@ResourceHolderUINT@Internal@Core@Math@Palmtree@@QEAAXPEA_W@Z ; Palmtree::Math::Core::Internal::ResourceHolderUINT::CheckString

; 987  :         if (!result_parsing)

  0014e	0f b6 85 04 01
	00 00		 movzx	 eax, BYTE PTR result_parsing$[rbp]
  00155	85 c0		 test	 eax, eax
  00157	75 58		 jne	 SHORT $LN9@TryParseDN

; 988  :         {
; 989  :             *result = 0;

  00159	48 8b 85 d8 06
	00 00		 mov	 rax, QWORD PTR result$[rbp]
  00160	c7 00 00 00 00
	00		 mov	 DWORD PTR [rax], 0

; 990  :             if (number_styles & PMC_NUMBER_STYLE_ALLOW_EXCEPTION_THROWING)

  00166	8b 85 b8 06 00
	00		 mov	 eax, DWORD PTR number_styles$[rbp]
  0016c	25 00 00 00 02	 and	 eax, 33554432		; 02000000H
  00171	85 c0		 test	 eax, eax
  00173	74 1e		 je	 SHORT $LN10@TryParseDN

; 991  :                 return (PMC_STATUS_FORMAT_ERROR);

  00175	c7 85 24 04 00
	00 f9 ff ff ff	 mov	 DWORD PTR $T7[rbp], -7
  0017f	48 8d 4d 28	 lea	 rcx, QWORD PTR root$[rbp]
  00183	e8 00 00 00 00	 call	 ??1ResourceHolderUINT@Internal@Core@Math@Palmtree@@UEAA@XZ ; Palmtree::Math::Core::Internal::ResourceHolderUINT::~ResourceHolderUINT
  00188	8b 85 24 04 00
	00		 mov	 eax, DWORD PTR $T7[rbp]
  0018e	e9 56 06 00 00	 jmp	 $LN31@TryParseDN
$LN10@TryParseDN:

; 992  :             return (PMC_STATUS_OK);

  00193	c7 85 44 04 00
	00 00 00 00 00	 mov	 DWORD PTR $T8[rbp], 0
  0019d	48 8d 4d 28	 lea	 rcx, QWORD PTR root$[rbp]
  001a1	e8 00 00 00 00	 call	 ??1ResourceHolderUINT@Internal@Core@Math@Palmtree@@UEAA@XZ ; Palmtree::Math::Core::Internal::ResourceHolderUINT::~ResourceHolderUINT
  001a6	8b 85 44 04 00
	00		 mov	 eax, DWORD PTR $T8[rbp]
  001ac	e9 38 06 00 00	 jmp	 $LN31@TryParseDN
$LN9@TryParseDN:

; 993  :         }
; 994  :         if (int_part_buf[0] == L'\0' && (frac_part_buf[0] == L'\0' || frac_part_buf[0] == L'.' && frac_part_buf[1] == L'\0'))

  001b1	b8 02 00 00 00	 mov	 eax, 2
  001b6	48 6b c0 00	 imul	 rax, rax, 0
  001ba	48 8b 8d a8 00
	00 00		 mov	 rcx, QWORD PTR int_part_buf$[rbp]
  001c1	0f b7 04 01	 movzx	 eax, WORD PTR [rcx+rax]
  001c5	85 c0		 test	 eax, eax
  001c7	0f 85 a1 00 00
	00		 jne	 $LN11@TryParseDN
  001cd	b8 02 00 00 00	 mov	 eax, 2
  001d2	48 6b c0 00	 imul	 rax, rax, 0
  001d6	48 8b 8d e8 00
	00 00		 mov	 rcx, QWORD PTR frac_part_buf$[rbp]
  001dd	0f b7 04 01	 movzx	 eax, WORD PTR [rcx+rax]
  001e1	85 c0		 test	 eax, eax
  001e3	74 31		 je	 SHORT $LN12@TryParseDN
  001e5	b8 02 00 00 00	 mov	 eax, 2
  001ea	48 6b c0 00	 imul	 rax, rax, 0
  001ee	48 8b 8d e8 00
	00 00		 mov	 rcx, QWORD PTR frac_part_buf$[rbp]
  001f5	0f b7 04 01	 movzx	 eax, WORD PTR [rcx+rax]
  001f9	83 f8 2e	 cmp	 eax, 46			; 0000002eH
  001fc	75 70		 jne	 SHORT $LN11@TryParseDN
  001fe	b8 02 00 00 00	 mov	 eax, 2
  00203	48 6b c0 01	 imul	 rax, rax, 1
  00207	48 8b 8d e8 00
	00 00		 mov	 rcx, QWORD PTR frac_part_buf$[rbp]
  0020e	0f b7 04 01	 movzx	 eax, WORD PTR [rcx+rax]
  00212	85 c0		 test	 eax, eax
  00214	75 58		 jne	 SHORT $LN11@TryParseDN
$LN12@TryParseDN:

; 995  :         {
; 996  :             // 
; 997  :             *result = 0;

  00216	48 8b 85 d8 06
	00 00		 mov	 rax, QWORD PTR result$[rbp]
  0021d	c7 00 00 00 00
	00		 mov	 DWORD PTR [rax], 0

; 998  :             if (number_styles & PMC_NUMBER_STYLE_ALLOW_EXCEPTION_THROWING)

  00223	8b 85 b8 06 00
	00		 mov	 eax, DWORD PTR number_styles$[rbp]
  00229	25 00 00 00 02	 and	 eax, 33554432		; 02000000H
  0022e	85 c0		 test	 eax, eax
  00230	74 1e		 je	 SHORT $LN13@TryParseDN

; 999  :                 return (PMC_STATUS_FORMAT_ERROR);

  00232	c7 85 64 04 00
	00 f9 ff ff ff	 mov	 DWORD PTR $T9[rbp], -7
  0023c	48 8d 4d 28	 lea	 rcx, QWORD PTR root$[rbp]
  00240	e8 00 00 00 00	 call	 ??1ResourceHolderUINT@Internal@Core@Math@Palmtree@@UEAA@XZ ; Palmtree::Math::Core::Internal::ResourceHolderUINT::~ResourceHolderUINT
  00245	8b 85 64 04 00
	00		 mov	 eax, DWORD PTR $T9[rbp]
  0024b	e9 99 05 00 00	 jmp	 $LN31@TryParseDN
$LN13@TryParseDN:

; 1000 :             return (PMC_STATUS_OK);

  00250	c7 85 84 04 00
	00 00 00 00 00	 mov	 DWORD PTR $T10[rbp], 0
  0025a	48 8d 4d 28	 lea	 rcx, QWORD PTR root$[rbp]
  0025e	e8 00 00 00 00	 call	 ??1ResourceHolderUINT@Internal@Core@Math@Palmtree@@UEAA@XZ ; Palmtree::Math::Core::Internal::ResourceHolderUINT::~ResourceHolderUINT
  00263	8b 85 84 04 00
	00		 mov	 eax, DWORD PTR $T10[rbp]
  00269	e9 7b 05 00 00	 jmp	 $LN31@TryParseDN
$LN11@TryParseDN:

; 1001 :         }
; 1002 : 
; 1003 :         if (*o_sign < 0 && frac_part_buf[0] != L'\0')

  0026e	48 8b 85 c8 06
	00 00		 mov	 rax, QWORD PTR o_sign$[rbp]
  00275	0f be 00	 movsx	 eax, BYTE PTR [rax]
  00278	85 c0		 test	 eax, eax
  0027a	7d 7f		 jge	 SHORT $LN14@TryParseDN
  0027c	b8 02 00 00 00	 mov	 eax, 2
  00281	48 6b c0 00	 imul	 rax, rax, 0
  00285	48 8b 8d e8 00
	00 00		 mov	 rcx, QWORD PTR frac_part_buf$[rbp]
  0028c	0f b7 04 01	 movzx	 eax, WORD PTR [rcx+rax]
  00290	85 c0		 test	 eax, eax
  00292	74 67		 je	 SHORT $LN14@TryParseDN

; 1004 :         {
; 1005 :             //  (OverflowException) ( '0' )
; 1006 :             //  uint.Parse 
; 1007 : 
; 1008 :             if ((number_styles & PMC_NUMBER_STYLE_ALLOW_SIGNED_INTEGER) == 0)

  00294	8b 85 b8 06 00
	00		 mov	 eax, DWORD PTR number_styles$[rbp]
  0029a	25 00 00 00 01	 and	 eax, 16777216		; 01000000H
  0029f	85 c0		 test	 eax, eax
  002a1	75 58		 jne	 SHORT $LN14@TryParseDN

; 1009 :             {
; 1010 :                 // 
; 1011 : 
; 1012 :                 *result = 0;

  002a3	48 8b 85 d8 06
	00 00		 mov	 rax, QWORD PTR result$[rbp]
  002aa	c7 00 00 00 00
	00		 mov	 DWORD PTR [rax], 0

; 1013 :                 if (number_styles & PMC_NUMBER_STYLE_ALLOW_EXCEPTION_THROWING)

  002b0	8b 85 b8 06 00
	00		 mov	 eax, DWORD PTR number_styles$[rbp]
  002b6	25 00 00 00 02	 and	 eax, 33554432		; 02000000H
  002bb	85 c0		 test	 eax, eax
  002bd	74 1e		 je	 SHORT $LN16@TryParseDN

; 1014 :                     return (PMC_STATUS_OVERFLOW);

  002bf	c7 85 a4 04 00
	00 fc ff ff ff	 mov	 DWORD PTR $T11[rbp], -4
  002c9	48 8d 4d 28	 lea	 rcx, QWORD PTR root$[rbp]
  002cd	e8 00 00 00 00	 call	 ??1ResourceHolderUINT@Internal@Core@Math@Palmtree@@UEAA@XZ ; Palmtree::Math::Core::Internal::ResourceHolderUINT::~ResourceHolderUINT
  002d2	8b 85 a4 04 00
	00		 mov	 eax, DWORD PTR $T11[rbp]
  002d8	e9 0c 05 00 00	 jmp	 $LN31@TryParseDN
$LN16@TryParseDN:

; 1015 :                 return (PMC_STATUS_OK);

  002dd	c7 85 c4 04 00
	00 00 00 00 00	 mov	 DWORD PTR $T12[rbp], 0
  002e7	48 8d 4d 28	 lea	 rcx, QWORD PTR root$[rbp]
  002eb	e8 00 00 00 00	 call	 ??1ResourceHolderUINT@Internal@Core@Math@Palmtree@@UEAA@XZ ; Palmtree::Math::Core::Internal::ResourceHolderUINT::~ResourceHolderUINT
  002f0	8b 85 c4 04 00
	00		 mov	 eax, DWORD PTR $T12[rbp]
  002f6	e9 ee 04 00 00	 jmp	 $LN31@TryParseDN
$LN14@TryParseDN:

; 1016 :             }
; 1017 :         }
; 1018 : 
; 1019 :         if (int_part_buf[0] == L'0')

  002fb	b8 02 00 00 00	 mov	 eax, 2
  00300	48 6b c0 00	 imul	 rax, rax, 0
  00304	48 8b 8d a8 00
	00 00		 mov	 rcx, QWORD PTR int_part_buf$[rbp]
  0030b	0f b7 04 01	 movzx	 eax, WORD PTR [rcx+rax]
  0030f	83 f8 30	 cmp	 eax, 48			; 00000030H
  00312	0f 85 89 00 00
	00		 jne	 $LN17@TryParseDN

; 1020 :         {
; 1021 :             //  0 
; 1022 :             wchar_t* s_ptr = int_part_buf;

  00318	48 8b 85 a8 00
	00 00		 mov	 rax, QWORD PTR int_part_buf$[rbp]
  0031f	48 89 85 28 01
	00 00		 mov	 QWORD PTR s_ptr$5[rbp], rax

; 1023 :             wchar_t* d_ptr = int_part_buf;

  00326	48 8b 85 a8 00
	00 00		 mov	 rax, QWORD PTR int_part_buf$[rbp]
  0032d	48 89 85 48 01
	00 00		 mov	 QWORD PTR d_ptr$6[rbp], rax
$LN2@TryParseDN:

; 1024 :             while (*s_ptr == L'0')

  00334	48 8b 85 28 01
	00 00		 mov	 rax, QWORD PTR s_ptr$5[rbp]
  0033b	0f b7 00	 movzx	 eax, WORD PTR [rax]
  0033e	83 f8 30	 cmp	 eax, 48			; 00000030H
  00341	75 14		 jne	 SHORT $LN4@TryParseDN

; 1025 :                 ++s_ptr;

  00343	48 8b 85 28 01
	00 00		 mov	 rax, QWORD PTR s_ptr$5[rbp]
  0034a	48 83 c0 02	 add	 rax, 2
  0034e	48 89 85 28 01
	00 00		 mov	 QWORD PTR s_ptr$5[rbp], rax
  00355	eb dd		 jmp	 SHORT $LN2@TryParseDN
$LN4@TryParseDN:

; 1026 :             for (;;)
; 1027 :             {
; 1028 :                 *d_ptr = *s_ptr;

  00357	48 8b 85 48 01
	00 00		 mov	 rax, QWORD PTR d_ptr$6[rbp]
  0035e	48 8b 8d 28 01
	00 00		 mov	 rcx, QWORD PTR s_ptr$5[rbp]
  00365	0f b7 09	 movzx	 ecx, WORD PTR [rcx]
  00368	66 89 08	 mov	 WORD PTR [rax], cx

; 1029 :                 if (*s_ptr == L'\0')

  0036b	48 8b 85 28 01
	00 00		 mov	 rax, QWORD PTR s_ptr$5[rbp]
  00372	0f b7 00	 movzx	 eax, WORD PTR [rax]
  00375	85 c0		 test	 eax, eax
  00377	75 02		 jne	 SHORT $LN18@TryParseDN

; 1030 :                     break;

  00379	eb 26		 jmp	 SHORT $LN17@TryParseDN
$LN18@TryParseDN:

; 1031 :                 ++s_ptr;

  0037b	48 8b 85 28 01
	00 00		 mov	 rax, QWORD PTR s_ptr$5[rbp]
  00382	48 83 c0 02	 add	 rax, 2
  00386	48 89 85 28 01
	00 00		 mov	 QWORD PTR s_ptr$5[rbp], rax

; 1032 :                 ++d_ptr;

  0038d	48 8b 85 48 01
	00 00		 mov	 rax, QWORD PTR d_ptr$6[rbp]
  00394	48 83 c0 02	 add	 rax, 2
  00398	48 89 85 48 01
	00 00		 mov	 QWORD PTR d_ptr$6[rbp], rax

; 1033 :             }

  0039f	eb b6		 jmp	 SHORT $LN4@TryParseDN
$LN17@TryParseDN:

; 1034 :         }
; 1035 : 
; 1036 :         //  0 
; 1037 :         wchar_t* frac_ptr = frac_part_buf + lstrlenW(frac_part_buf);

  003a1	48 8b 8d e8 00
	00 00		 mov	 rcx, QWORD PTR frac_part_buf$[rbp]
  003a8	ff 15 00 00 00
	00		 call	 QWORD PTR __imp_lstrlenW
  003ae	48 98		 cdqe
  003b0	48 8b 8d e8 00
	00 00		 mov	 rcx, QWORD PTR frac_part_buf$[rbp]
  003b7	48 8d 04 41	 lea	 rax, QWORD PTR [rcx+rax*2]
  003bb	48 89 85 68 01
	00 00		 mov	 QWORD PTR frac_ptr$[rbp], rax
$LN7@TryParseDN:

; 1038 :         while (frac_ptr > frac_part_buf && frac_ptr[-1] == L'0')

  003c2	48 8b 85 e8 00
	00 00		 mov	 rax, QWORD PTR frac_part_buf$[rbp]
  003c9	48 39 85 68 01
	00 00		 cmp	 QWORD PTR frac_ptr$[rbp], rax
  003d0	76 2d		 jbe	 SHORT $LN8@TryParseDN
  003d2	b8 02 00 00 00	 mov	 eax, 2
  003d7	48 6b c0 ff	 imul	 rax, rax, -1
  003db	48 8b 8d 68 01
	00 00		 mov	 rcx, QWORD PTR frac_ptr$[rbp]
  003e2	0f b7 04 01	 movzx	 eax, WORD PTR [rcx+rax]
  003e6	83 f8 30	 cmp	 eax, 48			; 00000030H
  003e9	75 14		 jne	 SHORT $LN8@TryParseDN

; 1039 :             --frac_ptr;

  003eb	48 8b 85 68 01
	00 00		 mov	 rax, QWORD PTR frac_ptr$[rbp]
  003f2	48 83 e8 02	 sub	 rax, 2
  003f6	48 89 85 68 01
	00 00		 mov	 QWORD PTR frac_ptr$[rbp], rax
  003fd	eb c3		 jmp	 SHORT $LN7@TryParseDN
$LN8@TryParseDN:

; 1040 :         *frac_ptr = L'\0';

  003ff	33 c0		 xor	 eax, eax
  00401	48 8b 8d 68 01
	00 00		 mov	 rcx, QWORD PTR frac_ptr$[rbp]
  00408	66 89 01	 mov	 WORD PTR [rcx], ax

; 1041 : 
; 1042 :         //  0 
; 1043 :         if (!(frac_part_buf[0] == L'\0' || frac_part_buf[0] == L'.' && frac_part_buf[1] == L'\0'))

  0040b	b8 02 00 00 00	 mov	 eax, 2
  00410	48 6b c0 00	 imul	 rax, rax, 0
  00414	48 8b 8d e8 00
	00 00		 mov	 rcx, QWORD PTR frac_part_buf$[rbp]
  0041b	0f b7 04 01	 movzx	 eax, WORD PTR [rcx+rax]
  0041f	85 c0		 test	 eax, eax
  00421	0f 84 89 00 00
	00		 je	 $LN19@TryParseDN
  00427	b8 02 00 00 00	 mov	 eax, 2
  0042c	48 6b c0 00	 imul	 rax, rax, 0
  00430	48 8b 8d e8 00
	00 00		 mov	 rcx, QWORD PTR frac_part_buf$[rbp]
  00437	0f b7 04 01	 movzx	 eax, WORD PTR [rcx+rax]
  0043b	83 f8 2e	 cmp	 eax, 46			; 0000002eH
  0043e	75 18		 jne	 SHORT $LN20@TryParseDN
  00440	b8 02 00 00 00	 mov	 eax, 2
  00445	48 6b c0 01	 imul	 rax, rax, 1
  00449	48 8b 8d e8 00
	00 00		 mov	 rcx, QWORD PTR frac_part_buf$[rbp]
  00450	0f b7 04 01	 movzx	 eax, WORD PTR [rcx+rax]
  00454	85 c0		 test	 eax, eax
  00456	74 58		 je	 SHORT $LN19@TryParseDN
$LN20@TryParseDN:

; 1044 :         {
; 1045 :             *result = 0;

  00458	48 8b 85 d8 06
	00 00		 mov	 rax, QWORD PTR result$[rbp]
  0045f	c7 00 00 00 00
	00		 mov	 DWORD PTR [rax], 0

; 1046 :             if (number_styles & PMC_NUMBER_STYLE_ALLOW_EXCEPTION_THROWING)

  00465	8b 85 b8 06 00
	00		 mov	 eax, DWORD PTR number_styles$[rbp]
  0046b	25 00 00 00 02	 and	 eax, 33554432		; 02000000H
  00470	85 c0		 test	 eax, eax
  00472	74 1e		 je	 SHORT $LN21@TryParseDN

; 1047 :                 return (PMC_STATUS_OVERFLOW);

  00474	c7 85 e4 04 00
	00 fc ff ff ff	 mov	 DWORD PTR $T13[rbp], -4
  0047e	48 8d 4d 28	 lea	 rcx, QWORD PTR root$[rbp]
  00482	e8 00 00 00 00	 call	 ??1ResourceHolderUINT@Internal@Core@Math@Palmtree@@UEAA@XZ ; Palmtree::Math::Core::Internal::ResourceHolderUINT::~ResourceHolderUINT
  00487	8b 85 e4 04 00
	00		 mov	 eax, DWORD PTR $T13[rbp]
  0048d	e9 57 03 00 00	 jmp	 $LN31@TryParseDN
$LN21@TryParseDN:

; 1048 :             return (PMC_STATUS_OK);

  00492	c7 85 04 05 00
	00 00 00 00 00	 mov	 DWORD PTR $T14[rbp], 0
  0049c	48 8d 4d 28	 lea	 rcx, QWORD PTR root$[rbp]
  004a0	e8 00 00 00 00	 call	 ??1ResourceHolderUINT@Internal@Core@Math@Palmtree@@UEAA@XZ ; Palmtree::Math::Core::Internal::ResourceHolderUINT::~ResourceHolderUINT
  004a5	8b 85 04 05 00
	00		 mov	 eax, DWORD PTR $T14[rbp]
  004ab	e9 39 03 00 00	 jmp	 $LN31@TryParseDN
$LN19@TryParseDN:

; 1049 :         }
; 1050 : 
; 1051 :         if (int_part_buf[0] == L'\0')

  004b0	b8 02 00 00 00	 mov	 eax, 2
  004b5	48 6b c0 00	 imul	 rax, rax, 0
  004b9	48 8b 8d a8 00
	00 00		 mov	 rcx, QWORD PTR int_part_buf$[rbp]
  004c0	0f b7 04 01	 movzx	 eax, WORD PTR [rcx+rax]
  004c4	85 c0		 test	 eax, eax
  004c6	75 39		 jne	 SHORT $LN22@TryParseDN

; 1052 :         {
; 1053 :             // 
; 1054 : 
; 1055 :             //  0  
; 1056 :             *o_sign = 0;

  004c8	48 8b 85 c8 06
	00 00		 mov	 rax, QWORD PTR o_sign$[rbp]
  004cf	c6 00 00	 mov	 BYTE PTR [rax], 0

; 1057 : 
; 1058 :             //  0 
; 1059 :             int_part_buf[0] = L'0';

  004d2	b8 02 00 00 00	 mov	 eax, 2
  004d7	48 6b c0 00	 imul	 rax, rax, 0
  004db	b9 30 00 00 00	 mov	 ecx, 48			; 00000030H
  004e0	48 8b 95 a8 00
	00 00		 mov	 rdx, QWORD PTR int_part_buf$[rbp]
  004e7	66 89 0c 02	 mov	 WORD PTR [rdx+rax], cx

; 1060 :             int_part_buf[1] = L'\0';

  004eb	b8 02 00 00 00	 mov	 eax, 2
  004f0	48 6b c0 01	 imul	 rax, rax, 1
  004f4	33 c9		 xor	 ecx, ecx
  004f6	48 8b 95 a8 00
	00 00		 mov	 rdx, QWORD PTR int_part_buf$[rbp]
  004fd	66 89 0c 02	 mov	 WORD PTR [rdx+rax], cx
$LN22@TryParseDN:

; 1061 :         }
; 1062 : 
; 1063 :         if (*o_sign < 0)

  00501	48 8b 85 c8 06
	00 00		 mov	 rax, QWORD PTR o_sign$[rbp]
  00508	0f be 00	 movsx	 eax, BYTE PTR [rax]
  0050b	85 c0		 test	 eax, eax
  0050d	7d 67		 jge	 SHORT $LN23@TryParseDN

; 1064 :         {
; 1065 :             // 
; 1066 : 
; 1067 :             if ((number_styles & PMC_NUMBER_STYLE_ALLOW_SIGNED_INTEGER) == 0)

  0050f	8b 85 b8 06 00
	00		 mov	 eax, DWORD PTR number_styles$[rbp]
  00515	25 00 00 00 01	 and	 eax, 16777216		; 01000000H
  0051a	85 c0		 test	 eax, eax
  0051c	75 58		 jne	 SHORT $LN23@TryParseDN

; 1068 :             {
; 1069 :                 // 
; 1070 : 
; 1071 :                 *result = 0;

  0051e	48 8b 85 d8 06
	00 00		 mov	 rax, QWORD PTR result$[rbp]
  00525	c7 00 00 00 00
	00		 mov	 DWORD PTR [rax], 0

; 1072 :                 if (number_styles & PMC_NUMBER_STYLE_ALLOW_EXCEPTION_THROWING)

  0052b	8b 85 b8 06 00
	00		 mov	 eax, DWORD PTR number_styles$[rbp]
  00531	25 00 00 00 02	 and	 eax, 33554432		; 02000000H
  00536	85 c0		 test	 eax, eax
  00538	74 1e		 je	 SHORT $LN25@TryParseDN

; 1073 :                     return (PMC_STATUS_OVERFLOW);

  0053a	c7 85 24 05 00
	00 fc ff ff ff	 mov	 DWORD PTR $T15[rbp], -4
  00544	48 8d 4d 28	 lea	 rcx, QWORD PTR root$[rbp]
  00548	e8 00 00 00 00	 call	 ??1ResourceHolderUINT@Internal@Core@Math@Palmtree@@UEAA@XZ ; Palmtree::Math::Core::Internal::ResourceHolderUINT::~ResourceHolderUINT
  0054d	8b 85 24 05 00
	00		 mov	 eax, DWORD PTR $T15[rbp]
  00553	e9 91 02 00 00	 jmp	 $LN31@TryParseDN
$LN25@TryParseDN:

; 1074 :                 return (PMC_STATUS_OK);

  00558	c7 85 44 05 00
	00 00 00 00 00	 mov	 DWORD PTR $T16[rbp], 0
  00562	48 8d 4d 28	 lea	 rcx, QWORD PTR root$[rbp]
  00566	e8 00 00 00 00	 call	 ??1ResourceHolderUINT@Internal@Core@Math@Palmtree@@UEAA@XZ ; Palmtree::Math::Core::Internal::ResourceHolderUINT::~ResourceHolderUINT
  0056b	8b 85 44 05 00
	00		 mov	 eax, DWORD PTR $T16[rbp]
  00571	e9 73 02 00 00	 jmp	 $LN31@TryParseDN
$LN23@TryParseDN:

; 1075 :             }
; 1076 :         }
; 1077 : 
; 1078 :         // 
; 1079 :         root.DeallocateString(frac_part_buf);

  00576	48 8b 95 e8 00
	00 00		 mov	 rdx, QWORD PTR frac_part_buf$[rbp]
  0057d	48 8d 4d 28	 lea	 rcx, QWORD PTR root$[rbp]
  00581	e8 00 00 00 00	 call	 ?DeallocateString@ResourceHolderUINT@Internal@Core@Math@Palmtree@@QEAAXPEA_W@Z ; Palmtree::Math::Core::Internal::ResourceHolderUINT::DeallocateString

; 1080 : 
; 1081 :         //  10^word_digit_count 
; 1082 :         __UNIT_TYPE* bin_buf = root.AllocateBlock(_DIVIDE_CEILING_SIZE(lstrlenW(int_part_buf), word_digit_count) * __UNIT_TYPE_BIT_COUNT);

  00586	48 63 45 04	 movsxd	 rax, DWORD PTR word_digit_count$[rbp]
  0058a	48 89 85 88 06
	00 00		 mov	 QWORD PTR tv212[rbp], rax
  00591	48 8b 8d a8 00
	00 00		 mov	 rcx, QWORD PTR int_part_buf$[rbp]
  00598	ff 15 00 00 00
	00		 call	 QWORD PTR __imp_lstrlenW
  0059e	48 98		 cdqe
  005a0	48 8b 8d 88 06
	00 00		 mov	 rcx, QWORD PTR tv212[rbp]
  005a7	48 8b d1	 mov	 rdx, rcx
  005aa	48 8b c8	 mov	 rcx, rax
  005ad	e8 00 00 00 00	 call	 _DIVIDE_CEILING_SIZE
  005b2	48 6b c0 40	 imul	 rax, rax, 64		; 00000040H
  005b6	48 8b d0	 mov	 rdx, rax
  005b9	48 8d 4d 28	 lea	 rcx, QWORD PTR root$[rbp]
  005bd	e8 00 00 00 00	 call	 ?AllocateBlock@ResourceHolderUINT@Internal@Core@Math@Palmtree@@QEAAPEA_K_K@Z ; Palmtree::Math::Core::Internal::ResourceHolderUINT::AllocateBlock
  005c2	48 89 85 88 01
	00 00		 mov	 QWORD PTR bin_buf$[rbp], rax

; 1083 :         __UNIT_TYPE bin_buf_count;
; 1084 :         BuildBinaryFromDecimalString(int_part_buf, bin_buf, &bin_buf_count);

  005c9	4c 8d 85 a8 01
	00 00		 lea	 r8, QWORD PTR bin_buf_count$[rbp]
  005d0	48 8b 95 88 01
	00 00		 mov	 rdx, QWORD PTR bin_buf$[rbp]
  005d7	48 8b 8d a8 00
	00 00		 mov	 rcx, QWORD PTR int_part_buf$[rbp]
  005de	e8 00 00 00 00	 call	 ?BuildBinaryFromDecimalString@Internal@Core@Math@Palmtree@@YAXPEA_WPEA_K1@Z ; Palmtree::Math::Core::Internal::BuildBinaryFromDecimalString

; 1085 :         root.CheckBlock(bin_buf);

  005e3	48 8b 95 88 01
	00 00		 mov	 rdx, QWORD PTR bin_buf$[rbp]
  005ea	48 8d 4d 28	 lea	 rcx, QWORD PTR root$[rbp]
  005ee	e8 00 00 00 00	 call	 ?CheckBlock@ResourceHolderUINT@Internal@Core@Math@Palmtree@@QEAAXPEA_K@Z ; Palmtree::Math::Core::Internal::ResourceHolderUINT::CheckBlock

; 1086 :         root.DeallocateString(int_part_buf);

  005f3	48 8b 95 a8 00
	00 00		 mov	 rdx, QWORD PTR int_part_buf$[rbp]
  005fa	48 8d 4d 28	 lea	 rcx, QWORD PTR root$[rbp]
  005fe	e8 00 00 00 00	 call	 ?DeallocateString@ResourceHolderUINT@Internal@Core@Math@Palmtree@@QEAAXPEA_W@Z ; Palmtree::Math::Core::Internal::ResourceHolderUINT::DeallocateString

; 1087 : 
; 1088 :         // 10^word_digit_count  10 
; 1089 :         __UNIT_TYPE o_bit_count = bin_buf_count * __UNIT_TYPE_BIT_COUNT;

  00603	48 6b 85 a8 01
	00 00 40	 imul	 rax, QWORD PTR bin_buf_count$[rbp], 64 ; 00000040H
  0060b	48 89 85 c8 01
	00 00		 mov	 QWORD PTR o_bit_count$[rbp], rax

; 1090 :         *o_abs = root.AllocateNumber(o_bit_count);

  00612	48 8b 95 c8 01
	00 00		 mov	 rdx, QWORD PTR o_bit_count$[rbp]
  00619	48 8d 4d 28	 lea	 rcx, QWORD PTR root$[rbp]
  0061d	e8 00 00 00 00	 call	 ?AllocateNumber@ResourceHolderUINT@Internal@Core@Math@Palmtree@@QEAAPEAU__tag_NUMBER_HEADER@2345@_K@Z ; Palmtree::Math::Core::Internal::ResourceHolderUINT::AllocateNumber
  00622	48 8b 8d d0 06
	00 00		 mov	 rcx, QWORD PTR o_abs$[rbp]
  00629	48 89 01	 mov	 QWORD PTR [rcx], rax

; 1091 :         ConvertCardinalNumber(bin_buf, bin_buf_count, (*o_abs)->BLOCK);

  0062c	48 8b 85 d0 06
	00 00		 mov	 rax, QWORD PTR o_abs$[rbp]
  00633	48 8b 00	 mov	 rax, QWORD PTR [rax]
  00636	4c 8b 40 40	 mov	 r8, QWORD PTR [rax+64]
  0063a	48 8b 95 a8 01
	00 00		 mov	 rdx, QWORD PTR bin_buf_count$[rbp]
  00641	48 8b 8d 88 01
	00 00		 mov	 rcx, QWORD PTR bin_buf$[rbp]
  00648	e8 00 00 00 00	 call	 ?ConvertCardinalNumber@Internal@Core@Math@Palmtree@@YAXPEA_K_K0@Z ; Palmtree::Math::Core::Internal::ConvertCardinalNumber

; 1092 :         root.CheckNumber(*o_abs);

  0064d	48 8b 85 d0 06
	00 00		 mov	 rax, QWORD PTR o_abs$[rbp]
  00654	48 8b 10	 mov	 rdx, QWORD PTR [rax]
  00657	48 8d 4d 28	 lea	 rcx, QWORD PTR root$[rbp]
  0065b	e8 00 00 00 00	 call	 ?CheckNumber@ResourceHolderUINT@Internal@Core@Math@Palmtree@@QEAAXPEAU__tag_NUMBER_HEADER@2345@@Z ; Palmtree::Math::Core::Internal::ResourceHolderUINT::CheckNumber

; 1093 :         root.DeallocateBlock(bin_buf);

  00660	48 8b 95 88 01
	00 00		 mov	 rdx, QWORD PTR bin_buf$[rbp]
  00667	48 8d 4d 28	 lea	 rcx, QWORD PTR root$[rbp]
  0066b	e8 00 00 00 00	 call	 ?DeallocateBlock@ResourceHolderUINT@Internal@Core@Math@Palmtree@@QEAAXPEA_K@Z ; Palmtree::Math::Core::Internal::ResourceHolderUINT::DeallocateBlock

; 1094 :         CommitNumber(*o_abs);

  00670	48 8b 85 d0 06
	00 00		 mov	 rax, QWORD PTR o_abs$[rbp]
  00677	48 8b 08	 mov	 rcx, QWORD PTR [rax]
  0067a	e8 00 00 00 00	 call	 ?CommitNumber@Internal@Core@Math@Palmtree@@YAXPEAU__tag_NUMBER_HEADER@1234@@Z ; Palmtree::Math::Core::Internal::CommitNumber

; 1095 :         if ((*o_abs)->IS_ZERO)

  0067f	48 8b 85 d0 06
	00 00		 mov	 rax, QWORD PTR o_abs$[rbp]
  00686	48 8b 00	 mov	 rax, QWORD PTR [rax]
  00689	8b 40 08	 mov	 eax, DWORD PTR [rax+8]
  0068c	83 e0 01	 and	 eax, 1
  0068f	85 c0		 test	 eax, eax
  00691	74 26		 je	 SHORT $LN26@TryParseDN

; 1096 :         {
; 1097 :             root.DeallocateNumber(*o_abs);

  00693	48 8b 85 d0 06
	00 00		 mov	 rax, QWORD PTR o_abs$[rbp]
  0069a	48 8b 10	 mov	 rdx, QWORD PTR [rax]
  0069d	48 8d 4d 28	 lea	 rcx, QWORD PTR root$[rbp]
  006a1	e8 00 00 00 00	 call	 ?DeallocateNumber@ResourceHolderUINT@Internal@Core@Math@Palmtree@@QEAAXPEAU__tag_NUMBER_HEADER@2345@@Z ; Palmtree::Math::Core::Internal::ResourceHolderUINT::DeallocateNumber

; 1098 :             *o_abs = &number_zero;

  006a6	48 8b 85 d0 06
	00 00		 mov	 rax, QWORD PTR o_abs$[rbp]
  006ad	48 8d 0d 00 00
	00 00		 lea	 rcx, OFFSET FLAT:?number_zero@Internal@Core@Math@Palmtree@@3U__tag_NUMBER_HEADER@1234@A ; Palmtree::Math::Core::Internal::number_zero
  006b4	48 89 08	 mov	 QWORD PTR [rax], rcx

; 1099 :         }
; 1100 :         else

  006b7	eb 13		 jmp	 SHORT $LN27@TryParseDN
$LN26@TryParseDN:

; 1101 :             root.UnlinkNumber(*o_abs);

  006b9	48 8b 85 d0 06
	00 00		 mov	 rax, QWORD PTR o_abs$[rbp]
  006c0	48 8b 10	 mov	 rdx, QWORD PTR [rax]
  006c3	48 8d 4d 28	 lea	 rcx, QWORD PTR root$[rbp]
  006c7	e8 00 00 00 00	 call	 ?UnlinkNumber@ResourceHolderUINT@Internal@Core@Math@Palmtree@@QEAAXPEAU__tag_NUMBER_HEADER@2345@@Z ; Palmtree::Math::Core::Internal::ResourceHolderUINT::UnlinkNumber
$LN27@TryParseDN:

; 1102 : #ifdef _DEBUG
; 1103 :         if (*o_sign != 0 && *o_sign != 1 && *o_sign != -1)

  006cc	48 8b 85 c8 06
	00 00		 mov	 rax, QWORD PTR o_sign$[rbp]
  006d3	0f be 00	 movsx	 eax, BYTE PTR [rax]
  006d6	85 c0		 test	 eax, eax
  006d8	74 4b		 je	 SHORT $LN28@TryParseDN
  006da	48 8b 85 c8 06
	00 00		 mov	 rax, QWORD PTR o_sign$[rbp]
  006e1	0f be 00	 movsx	 eax, BYTE PTR [rax]
  006e4	83 f8 01	 cmp	 eax, 1
  006e7	74 3c		 je	 SHORT $LN28@TryParseDN
  006e9	48 8b 85 c8 06
	00 00		 mov	 rax, QWORD PTR o_sign$[rbp]
  006f0	0f be 00	 movsx	 eax, BYTE PTR [rax]
  006f3	83 f8 ff	 cmp	 eax, -1
  006f6	74 2d		 je	 SHORT $LN28@TryParseDN

; 1104 :             throw InternalErrorException(L"", L"pmc_parse.cpp;TryParseDN;1");

  006f8	4c 8d 05 00 00
	00 00		 lea	 r8, OFFSET FLAT:??_C@_1DG@OHPDJC@?$AAp?$AAm?$AAc?$AA_?$AAp?$AAa?$AAr?$AAs?$AAe?$AA?4?$AAc?$AAp?$AAp?$AA?$DL?$AAT@
  006ff	48 8d 15 00 00
	00 00		 lea	 rdx, OFFSET FLAT:??_C@_1BM@FCPAHMHB@?$PP?$IF?$PP?h?$PP?$KI?$PP?i?$PP?$PM?$AAL?$AAz?$AA?$BP?$AAW?$AA?$HO?$AAW?$AA_?$AA?$AC@
  00706	48 8d 8d 68 05
	00 00		 lea	 rcx, QWORD PTR $T17[rbp]
  0070d	e8 00 00 00 00	 call	 ??0InternalErrorException@Internal@Core@Math@Palmtree@@QEAA@PEB_W0@Z ; Palmtree::Math::Core::Internal::InternalErrorException::InternalErrorException
  00712	48 8d 15 00 00
	00 00		 lea	 rdx, OFFSET FLAT:_TI2?AVInternalErrorException@Internal@Core@Math@Palmtree@@
  00719	48 8d 8d 68 05
	00 00		 lea	 rcx, QWORD PTR $T17[rbp]
  00720	e8 00 00 00 00	 call	 _CxxThrowException
$LN28@TryParseDN:

; 1105 :         if (*o_sign == 0 && !(*o_abs)->IS_ZERO)

  00725	48 8b 85 c8 06
	00 00		 mov	 rax, QWORD PTR o_sign$[rbp]
  0072c	0f be 00	 movsx	 eax, BYTE PTR [rax]
  0072f	85 c0		 test	 eax, eax
  00731	75 41		 jne	 SHORT $LN29@TryParseDN
  00733	48 8b 85 d0 06
	00 00		 mov	 rax, QWORD PTR o_abs$[rbp]
  0073a	48 8b 00	 mov	 rax, QWORD PTR [rax]
  0073d	8b 40 08	 mov	 eax, DWORD PTR [rax+8]
  00740	83 e0 01	 and	 eax, 1
  00743	85 c0		 test	 eax, eax
  00745	75 2d		 jne	 SHORT $LN29@TryParseDN

; 1106 :             throw InternalErrorException(L"", L"pmc_parse.cpp;TryParseDN;2");

  00747	4c 8d 05 00 00
	00 00		 lea	 r8, OFFSET FLAT:??_C@_1DG@BCFCFMHM@?$AAp?$AAm?$AAc?$AA_?$AAp?$AAa?$AAr?$AAs?$AAe?$AA?4?$AAc?$AAp?$AAp?$AA?$DL?$AAT@
  0074e	48 8d 15 00 00
	00 00		 lea	 rdx, OFFSET FLAT:??_C@_1BM@FCPAHMHB@?$PP?$IF?$PP?h?$PP?$KI?$PP?i?$PP?$PM?$AAL?$AAz?$AA?$BP?$AAW?$AA?$HO?$AAW?$AA_?$AA?$AC@
  00755	48 8d 8d b8 05
	00 00		 lea	 rcx, QWORD PTR $T18[rbp]
  0075c	e8 00 00 00 00	 call	 ??0InternalErrorException@Internal@Core@Math@Palmtree@@QEAA@PEB_W0@Z ; Palmtree::Math::Core::Internal::InternalErrorException::InternalErrorException
  00761	48 8d 15 00 00
	00 00		 lea	 rdx, OFFSET FLAT:_TI2?AVInternalErrorException@Internal@Core@Math@Palmtree@@
  00768	48 8d 8d b8 05
	00 00		 lea	 rcx, QWORD PTR $T18[rbp]
  0076f	e8 00 00 00 00	 call	 _CxxThrowException
$LN29@TryParseDN:

; 1107 :         if (*o_sign != 0 && (*o_abs)->IS_ZERO)

  00774	48 8b 85 c8 06
	00 00		 mov	 rax, QWORD PTR o_sign$[rbp]
  0077b	0f be 00	 movsx	 eax, BYTE PTR [rax]
  0077e	85 c0		 test	 eax, eax
  00780	74 41		 je	 SHORT $LN30@TryParseDN
  00782	48 8b 85 d0 06
	00 00		 mov	 rax, QWORD PTR o_abs$[rbp]
  00789	48 8b 00	 mov	 rax, QWORD PTR [rax]
  0078c	8b 40 08	 mov	 eax, DWORD PTR [rax+8]
  0078f	83 e0 01	 and	 eax, 1
  00792	85 c0		 test	 eax, eax
  00794	74 2d		 je	 SHORT $LN30@TryParseDN

; 1108 :             throw InternalErrorException(L"", L"pmc_parse.cpp;TryParseDN;3");

  00796	4c 8d 05 00 00
	00 00		 lea	 r8, OFFSET FLAT:??_C@_1DG@KKOODLBJ@?$AAp?$AAm?$AAc?$AA_?$AAp?$AAa?$AAr?$AAs?$AAe?$AA?4?$AAc?$AAp?$AAp?$AA?$DL?$AAT@
  0079d	48 8d 15 00 00
	00 00		 lea	 rdx, OFFSET FLAT:??_C@_1BM@FCPAHMHB@?$PP?$IF?$PP?h?$PP?$KI?$PP?i?$PP?$PM?$AAL?$AAz?$AA?$BP?$AAW?$AA?$HO?$AAW?$AA_?$AA?$AC@
  007a4	48 8d 8d 08 06
	00 00		 lea	 rcx, QWORD PTR $T19[rbp]
  007ab	e8 00 00 00 00	 call	 ??0InternalErrorException@Internal@Core@Math@Palmtree@@QEAA@PEB_W0@Z ; Palmtree::Math::Core::Internal::InternalErrorException::InternalErrorException
  007b0	48 8d 15 00 00
	00 00		 lea	 rdx, OFFSET FLAT:_TI2?AVInternalErrorException@Internal@Core@Math@Palmtree@@
  007b7	48 8d 8d 08 06
	00 00		 lea	 rcx, QWORD PTR $T19[rbp]
  007be	e8 00 00 00 00	 call	 _CxxThrowException
$LN30@TryParseDN:

; 1109 : #endif
; 1110 :         *result = 1;

  007c3	48 8b 85 d8 06
	00 00		 mov	 rax, QWORD PTR result$[rbp]
  007ca	c7 00 01 00 00
	00		 mov	 DWORD PTR [rax], 1

; 1111 :         return (PMC_STATUS_OK);

  007d0	c7 85 54 06 00
	00 00 00 00 00	 mov	 DWORD PTR $T20[rbp], 0
  007da	48 8d 4d 28	 lea	 rcx, QWORD PTR root$[rbp]
  007de	e8 00 00 00 00	 call	 ??1ResourceHolderUINT@Internal@Core@Math@Palmtree@@UEAA@XZ ; Palmtree::Math::Core::Internal::ResourceHolderUINT::~ResourceHolderUINT
  007e3	8b 85 54 06 00
	00		 mov	 eax, DWORD PTR $T20[rbp]
$LN31@TryParseDN:

; 1112 :     }

  007e9	48 8b f8	 mov	 rdi, rax
  007ec	48 8d 4d c0	 lea	 rcx, QWORD PTR [rbp-64]
  007f0	48 8d 15 00 00
	00 00		 lea	 rdx, OFFSET FLAT:?TryParseDN@Internal@Core@Math@Palmtree@@YAHPEB_WIPEBU__tag_PMC_NUMBER_FORMAT_INFO@1234@PEADPEAPEAU__tag_NUMBER_HEADER@1234@PEAI@Z$rtcFrameData
