; Listing generated by Microsoft (R) Optimizing Compiler Version 19.16.27026.1 

include listing.inc

INCLUDELIB MSVCRTD
INCLUDELIB OLDNAMES

msvcjmc	SEGMENT
__7B7A869E_ctype@h DB 01H
__457DD326_basetsd@h DB 01H
__4384A2D9_corecrt_memcpy_s@h DB 01H
__4E51A221_corecrt_wstring@h DB 01H
__2140C079_string@h DB 01H
__1887E595_winnt@h DB 01H
__9FC7C64B_processthreadsapi@h DB 01H
__FA470AEC_memoryapi@h DB 01H
__F37DAFF1_winerror@h DB 01H
__7A450CCC_winbase@h DB 01H
__B4B40122_winioctl@h DB 01H
__86261D59_stralign@h DB 01H
__BB6D3116_pmc_uint_internal@h DB 01H
__8CA3E54E_pmc_inline_func@h DB 01H
__3F1A8F43_pmc_bitwiseor@c DB 01H
msvcjmc	ENDS
PUBLIC	Initialize_BitwiseOr
PUBLIC	PMC_BitwiseOr_I_X
PUBLIC	PMC_BitwiseOr_L_X
PUBLIC	PMC_BitwiseOr_X_I
PUBLIC	PMC_BitwiseOr_X_L
PUBLIC	PMC_BitwiseOr_X_X
PUBLIC	__JustMyCode_Default
EXTRN	CheckBlockLight:PROC
EXTRN	AllocateNumber:PROC
EXTRN	CommitNumber:PROC
EXTRN	CheckNumber:PROC
EXTRN	DuplicateNumber:PROC
EXTRN	From_I_Imp:PROC
EXTRN	From_L_Imp:PROC
EXTRN	_RTC_CheckStackVars:PROC
EXTRN	_RTC_InitBase:PROC
EXTRN	_RTC_Shutdown:PROC
EXTRN	__CheckForDebuggerJustMyCode:PROC
EXTRN	number_zero:BYTE
;	COMDAT pdata
pdata	SEGMENT
$pdata$Initialize_BitwiseOr DD imagerel $LN3
	DD	imagerel $LN3+66
	DD	imagerel $unwind$Initialize_BitwiseOr
pdata	ENDS
;	COMDAT pdata
pdata	SEGMENT
$pdata$PMC_BitwiseOr_I_X DD imagerel $LN9
	DD	imagerel $LN9+218
	DD	imagerel $unwind$PMC_BitwiseOr_I_X
pdata	ENDS
;	COMDAT pdata
pdata	SEGMENT
$pdata$PMC_BitwiseOr_L_X DD imagerel $LN9
	DD	imagerel $LN9+221
	DD	imagerel $unwind$PMC_BitwiseOr_L_X
pdata	ENDS
;	COMDAT pdata
pdata	SEGMENT
$pdata$PMC_BitwiseOr_X_I DD imagerel $LN9
	DD	imagerel $LN9+219
	DD	imagerel $unwind$PMC_BitwiseOr_X_I
pdata	ENDS
;	COMDAT pdata
pdata	SEGMENT
$pdata$PMC_BitwiseOr_X_L DD imagerel $LN9
	DD	imagerel $LN9+221
	DD	imagerel $unwind$PMC_BitwiseOr_X_L
pdata	ENDS
;	COMDAT pdata
pdata	SEGMENT
$pdata$PMC_BitwiseOr_X_X DD imagerel $LN18
	DD	imagerel $LN18+614
	DD	imagerel $unwind$PMC_BitwiseOr_X_X
pdata	ENDS
;	COMDAT pdata
pdata	SEGMENT
$pdata$_COPY_MEMORY_UNIT DD imagerel _COPY_MEMORY_UNIT
	DD	imagerel _COPY_MEMORY_UNIT+100
	DD	imagerel $unwind$_COPY_MEMORY_UNIT
pdata	ENDS
;	COMDAT pdata
pdata	SEGMENT
$pdata$_FROMDWORDTOWORD DD imagerel _FROMDWORDTOWORD
	DD	imagerel _FROMDWORDTOWORD+95
	DD	imagerel $unwind$_FROMDWORDTOWORD
pdata	ENDS
;	COMDAT pdata
pdata	SEGMENT
$pdata$_MAXIMUM_UNIT DD imagerel _MAXIMUM_UNIT
	DD	imagerel _MAXIMUM_UNIT+122
	DD	imagerel $unwind$_MAXIMUM_UNIT
pdata	ENDS
;	COMDAT pdata
pdata	SEGMENT
$pdata$_LZCNT_ALT_32 DD imagerel _LZCNT_ALT_32
	DD	imagerel _LZCNT_ALT_32+126
	DD	imagerel $unwind$_LZCNT_ALT_32
pdata	ENDS
;	COMDAT pdata
pdata	SEGMENT
$pdata$_LZCNT_ALT_UNIT DD imagerel _LZCNT_ALT_UNIT
	DD	imagerel _LZCNT_ALT_UNIT+131
	DD	imagerel $unwind$_LZCNT_ALT_UNIT
pdata	ENDS
;	COMDAT pdata
pdata	SEGMENT
$pdata$BitwiseOr_X_1W DD imagerel BitwiseOr_X_1W
	DD	imagerel BitwiseOr_X_1W+251
	DD	imagerel $unwind$BitwiseOr_X_1W
pdata	ENDS
;	COMDAT pdata
pdata	SEGMENT
$pdata$BitwiseOr_X_2W DD imagerel BitwiseOr_X_2W
	DD	imagerel BitwiseOr_X_2W+447
	DD	imagerel $unwind$BitwiseOr_X_2W
pdata	ENDS
;	COMDAT pdata
pdata	SEGMENT
$pdata$BitwiseOr_X_X DD imagerel BitwiseOr_X_X
	DD	imagerel BitwiseOr_X_X+4562
	DD	imagerel $unwind$BitwiseOr_X_X
pdata	ENDS
;	COMDAT pdata
pdata	SEGMENT
$pdata$PMC_BitwiseOr_X_I_Imp DD imagerel PMC_BitwiseOr_X_I_Imp
	DD	imagerel PMC_BitwiseOr_X_I_Imp+439
	DD	imagerel $unwind$PMC_BitwiseOr_X_I_Imp
pdata	ENDS
;	COMDAT pdata
pdata	SEGMENT
$pdata$PMC_BitwiseOr_X_L_Imp DD imagerel PMC_BitwiseOr_X_L_Imp
	DD	imagerel PMC_BitwiseOr_X_L_Imp+918
	DD	imagerel $unwind$PMC_BitwiseOr_X_L_Imp
pdata	ENDS
;	COMDAT rtc$TMZ
rtc$TMZ	SEGMENT
_RTC_Shutdown.rtc$TMZ DQ FLAT:_RTC_Shutdown
rtc$TMZ	ENDS
;	COMDAT rtc$IMZ
rtc$IMZ	SEGMENT
_RTC_InitBase.rtc$IMZ DQ FLAT:_RTC_InitBase
rtc$IMZ	ENDS
;	COMDAT xdata
xdata	SEGMENT
$unwind$PMC_BitwiseOr_X_L_Imp DD 035053401H
	DD	0118331dH
	DD	070110057H
	DD	05010H
xdata	ENDS
;	COMDAT CONST
CONST	SEGMENT
PMC_BitwiseOr_X_L_Imp$rtcName$0 DB 076H
	DB	05fH
	DB	068H
	DB	069H
	DB	00H
	ORG $+3
PMC_BitwiseOr_X_L_Imp$rtcName$1 DB 077H
	DB	05fH
	DB	06cH
	DB	069H
	DB	067H
	DB	068H
	DB	074H
	DB	05fH
	DB	063H
	DB	068H
	DB	065H
	DB	063H
	DB	06bH
	DB	05fH
	DB	063H
	DB	06fH
	DB	064H
	DB	065H
	DB	00H
	ORG $+5
PMC_BitwiseOr_X_L_Imp$rtcName$2 DB 077H
	DB	05fH
	DB	06cH
	DB	069H
	DB	067H
	DB	068H
	DB	074H
	DB	05fH
	DB	063H
	DB	068H
	DB	065H
	DB	063H
	DB	06bH
	DB	05fH
	DB	063H
	DB	06fH
	DB	064H
	DB	065H
	DB	00H
	ORG $+5
PMC_BitwiseOr_X_L_Imp$rtcName$3 DB 06eH
	DB	077H
	DB	05fH
	DB	06cH
	DB	069H
	DB	067H
	DB	068H
	DB	074H
	DB	05fH
	DB	063H
	DB	068H
	DB	065H
	DB	063H
	DB	06bH
	DB	05fH
	DB	063H
	DB	06fH
	DB	064H
	DB	065H
	DB	00H
	ORG $+4
PMC_BitwiseOr_X_L_Imp$rtcVarDesc DD 01d8H
	DD	08H
	DQ	FLAT:PMC_BitwiseOr_X_L_Imp$rtcName$3
	DD	0158H
	DD	08H
	DQ	FLAT:PMC_BitwiseOr_X_L_Imp$rtcName$2
	DD	0f8H
	DD	08H
	DQ	FLAT:PMC_BitwiseOr_X_L_Imp$rtcName$1
	DD	074H
	DD	04H
	DQ	FLAT:PMC_BitwiseOr_X_L_Imp$rtcName$0
	ORG $+192
PMC_BitwiseOr_X_L_Imp$rtcFrameData DD 04H
	DD	00H
	DQ	FLAT:PMC_BitwiseOr_X_L_Imp$rtcVarDesc
CONST	ENDS
;	COMDAT xdata
xdata	SEGMENT
$unwind$PMC_BitwiseOr_X_I_Imp DD 025053301H
	DD	0117231cH
	DD	070100031H
	DD	0500fH
xdata	ENDS
;	COMDAT CONST
CONST	SEGMENT
PMC_BitwiseOr_X_I_Imp$rtcName$0 DB 06eH
	DB	07aH
	DB	05fH
	DB	063H
	DB	068H
	DB	065H
	DB	063H
	DB	06bH
	DB	05fH
	DB	063H
	DB	06fH
	DB	064H
	DB	065H
	DB	00H
	ORG $+2
PMC_BitwiseOr_X_I_Imp$rtcVarDesc DD 0a8H
	DD	08H
	DQ	FLAT:PMC_BitwiseOr_X_I_Imp$rtcName$0
	ORG $+48
PMC_BitwiseOr_X_I_Imp$rtcFrameData DD 01H
	DD	00H
	DQ	FLAT:PMC_BitwiseOr_X_I_Imp$rtcVarDesc
CONST	ENDS
;	COMDAT xdata
xdata	SEGMENT
$unwind$BitwiseOr_X_X DD 025053901H
	DD	011d2322H
	DD	070160029H
	DD	05015H
xdata	ENDS
;	COMDAT xdata
xdata	SEGMENT
$unwind$BitwiseOr_X_2W DD 025053901H
	DD	011d2322H
	DD	07016001fH
	DD	05015H
xdata	ENDS
;	COMDAT xdata
xdata	SEGMENT
$unwind$BitwiseOr_X_1W DD 025053901H
	DD	011d2322H
	DD	07016001fH
	DD	05015H
xdata	ENDS
;	COMDAT xdata
xdata	SEGMENT
$unwind$_LZCNT_ALT_UNIT DD 025052a01H
	DD	010e2313H
	DD	070070021H
	DD	05006H
xdata	ENDS
;	COMDAT CONST
CONST	SEGMENT
_LZCNT_ALT_UNIT$rtcName$0 DB 070H
	DB	06fH
	DB	073H
	DB	00H
	ORG $+12
_LZCNT_ALT_UNIT$rtcVarDesc DD 024H
	DD	04H
	DQ	FLAT:_LZCNT_ALT_UNIT$rtcName$0
	ORG $+48
_LZCNT_ALT_UNIT$rtcFrameData DD 01H
	DD	00H
	DQ	FLAT:_LZCNT_ALT_UNIT$rtcVarDesc
CONST	ENDS
;	COMDAT xdata
xdata	SEGMENT
$unwind$_LZCNT_ALT_32 DD 025052801H
	DD	010d2312H
	DD	070060021H
	DD	05005H
xdata	ENDS
;	COMDAT CONST
CONST	SEGMENT
_LZCNT_ALT_32$rtcName$0 DB 070H
	DB	06fH
	DB	073H
	DB	00H
	ORG $+12
_LZCNT_ALT_32$rtcVarDesc DD 024H
	DD	04H
	DQ	FLAT:_LZCNT_ALT_32$rtcName$0
	ORG $+48
_LZCNT_ALT_32$rtcFrameData DD 01H
	DD	00H
	DQ	FLAT:_LZCNT_ALT_32$rtcVarDesc
CONST	ENDS
;	COMDAT xdata
xdata	SEGMENT
$unwind$_MAXIMUM_UNIT DD 025052f01H
	DD	01132318H
	DD	0700c001fH
	DD	0500bH
xdata	ENDS
;	COMDAT xdata
xdata	SEGMENT
$unwind$_FROMDWORDTOWORD DD 025052f01H
	DD	01132318H
	DD	0700c001dH
	DD	0500bH
xdata	ENDS
;	COMDAT xdata
xdata	SEGMENT
$unwind$_COPY_MEMORY_UNIT DD 025063501H
	DD	0119231eH
	DD	07012001cH
	DD	050106011H
xdata	ENDS
;	COMDAT xdata
xdata	SEGMENT
$unwind$PMC_BitwiseOr_X_X DD 035053401H
	DD	0118331dH
	DD	070110043H
	DD	05010H
xdata	ENDS
;	COMDAT CONST
CONST	SEGMENT
PMC_BitwiseOr_X_X$rtcName$0 DB 06eH
	DB	077H
	DB	00H
	ORG $+5
PMC_BitwiseOr_X_X$rtcName$1 DB 06eH
	DB	077H
	DB	05fH
	DB	06cH
	DB	069H
	DB	067H
	DB	068H
	DB	074H
	DB	05fH
	DB	063H
	DB	068H
	DB	065H
	DB	063H
	DB	06bH
	DB	05fH
	DB	063H
	DB	06fH
	DB	064H
	DB	065H
	DB	00H
	ORG $+4
PMC_BitwiseOr_X_X$rtcVarDesc DD 0138H
	DD	08H
	DQ	FLAT:PMC_BitwiseOr_X_X$rtcName$1
	DD	098H
	DD	08H
	DQ	FLAT:PMC_BitwiseOr_X_X$rtcName$0
	ORG $+96
PMC_BitwiseOr_X_X$rtcFrameData DD 02H
	DD	00H
	DQ	FLAT:PMC_BitwiseOr_X_X$rtcVarDesc
CONST	ENDS
;	COMDAT xdata
xdata	SEGMENT
$unwind$PMC_BitwiseOr_X_L DD 025053401H
	DD	0118231dH
	DD	070110021H
	DD	05010H
xdata	ENDS
;	COMDAT xdata
xdata	SEGMENT
$unwind$PMC_BitwiseOr_X_I DD 025053301H
	DD	0117231cH
	DD	070100021H
	DD	0500fH
xdata	ENDS
;	COMDAT xdata
xdata	SEGMENT
$unwind$PMC_BitwiseOr_L_X DD 025053401H
	DD	0118231dH
	DD	070110021H
	DD	05010H
xdata	ENDS
;	COMDAT xdata
xdata	SEGMENT
$unwind$PMC_BitwiseOr_I_X DD 025053201H
	DD	0117231cH
	DD	070100021H
	DD	0500fH
xdata	ENDS
;	COMDAT xdata
xdata	SEGMENT
$unwind$Initialize_BitwiseOr DD 025052a01H
	DD	010e2313H
	DD	07007001dH
	DD	05006H
xdata	ENDS
; Function compile flags: /Odt
;	COMDAT __JustMyCode_Default
_TEXT	SEGMENT
__JustMyCode_Default PROC				; COMDAT
	ret	0
__JustMyCode_Default ENDP
_TEXT	ENDS
; Function compile flags: /Odtp /RTCsu /ZI
; File z:\sources\lunor\repos\rougemeilland\palmtree.math.core.uint\palmtree.math.core.uint\pmc_bitwiseor.c
;	COMDAT PMC_BitwiseOr_X_L_Imp
_TEXT	SEGMENT
result$ = 4
u_bit_count$7 = 40
v_hi$8 = 68
v_lo$9 = 100
v_bit_count$10 = 136
w_bit_count$11 = 168
w_light_check_code$12 = 200
v_bit_count$13 = 232
w_bit_count$14 = 264
w_light_check_code$15 = 296
u_bit_count$16 = 328
v_bit_count$17 = 360
w_bit_count$18 = 392
nw_light_check_code$19 = 424
u$ = 672
v$ = 680
w$ = 688
PMC_BitwiseOr_X_L_Imp PROC				; COMDAT

; 268  : {

	mov	QWORD PTR [rsp+24], r8
	mov	QWORD PTR [rsp+16], rdx
	mov	QWORD PTR [rsp+8], rcx
	push	rbp
	push	rdi
	sub	rsp, 696				; 000002b8H
	lea	rbp, QWORD PTR [rsp+48]
	mov	rdi, rsp
	mov	ecx, 174				; 000000aeH
	mov	eax, -858993460				; ccccccccH
	rep stosd
	mov	rcx, QWORD PTR [rsp+728]
	lea	rcx, OFFSET FLAT:__3F1A8F43_pmc_bitwiseor@c
	call	__CheckForDebuggerJustMyCode

; 269  :     PMC_STATUS_CODE result;
; 270  :     if (u->IS_ZERO)

	mov	rax, QWORD PTR u$[rbp]
	mov	eax, DWORD PTR [rax+40]
	shr	eax, 1
	and	eax, 1
	test	eax, eax
	je	SHORT $LN2@PMC_Bitwis

; 271  :     {
; 272  :         // u が 0 である場合
; 273  :         if (v == 0)

	cmp	QWORD PTR v$[rbp], 0
	jne	SHORT $LN4@PMC_Bitwis

; 274  :         {
; 275  :             // v が 0 である場合
; 276  :             *w = &number_zero;

	mov	rax, QWORD PTR w$[rbp]
	lea	rcx, OFFSET FLAT:number_zero
	mov	QWORD PTR [rax], rcx

; 277  :         }

	jmp	SHORT $LN5@PMC_Bitwis
$LN4@PMC_Bitwis:

; 278  :         else
; 279  :         {
; 280  :             // v が 0 でない場合
; 281  :             if ((result = From_L_Imp(v, w)) != PMC_STATUS_OK)

	mov	rdx, QWORD PTR w$[rbp]
	mov	rcx, QWORD PTR v$[rbp]
	call	From_L_Imp
	mov	DWORD PTR result$[rbp], eax
	cmp	DWORD PTR result$[rbp], 0
	je	SHORT $LN6@PMC_Bitwis

; 282  :                 return (result);

	mov	eax, DWORD PTR result$[rbp]
	jmp	$LN1@PMC_Bitwis
$LN6@PMC_Bitwis:
$LN5@PMC_Bitwis:

; 283  :         }
; 284  :     }

	jmp	$LN3@PMC_Bitwis
$LN2@PMC_Bitwis:

; 285  :     else if (v == 0)

	cmp	QWORD PTR v$[rbp], 0
	jne	SHORT $LN7@PMC_Bitwis

; 286  :     {
; 287  :         // v が 0 である場合
; 288  :         if ((result = DuplicateNumber(u, w)) != PMC_STATUS_OK)

	mov	rdx, QWORD PTR w$[rbp]
	mov	rcx, QWORD PTR u$[rbp]
	call	DuplicateNumber
	mov	DWORD PTR result$[rbp], eax
	cmp	DWORD PTR result$[rbp], 0
	je	SHORT $LN9@PMC_Bitwis

; 289  :             return (result);

	mov	eax, DWORD PTR result$[rbp]
	jmp	$LN1@PMC_Bitwis
$LN9@PMC_Bitwis:

; 290  :     }

	jmp	$LN8@PMC_Bitwis
$LN7@PMC_Bitwis:

; 291  :     else
; 292  :     {
; 293  :         // u と v がともに 0 ではない場合
; 294  :         if (__UNIT_TYPE_BIT_COUNT < sizeof(v) * 8)

	xor	eax, eax
	test	eax, eax
	je	$LN10@PMC_Bitwis

; 295  :         {
; 296  :             // _UINT64_T が 1 ワードで表現しきれない場合
; 297  :             __UNIT_TYPE u_bit_count = u->UNIT_BIT_COUNT;

	mov	rax, QWORD PTR u$[rbp]
	mov	rax, QWORD PTR [rax+16]
	mov	QWORD PTR u_bit_count$7[rbp], rax

; 298  :             _UINT32_T v_hi;
; 299  :             _UINT32_T v_lo = _FROMDWORDTOWORD(v, &v_hi);

	lea	rdx, QWORD PTR v_hi$8[rbp]
	mov	rcx, QWORD PTR v$[rbp]
	call	_FROMDWORDTOWORD
	mov	DWORD PTR v_lo$9[rbp], eax

; 300  :             if (v_hi == 0)

	cmp	DWORD PTR v_hi$8[rbp], 0
	jne	$LN12@PMC_Bitwis

; 301  :             {
; 302  :                 // v の値が 32bit で表現可能な場合
; 303  :                 __UNIT_TYPE v_bit_count = sizeof(v_lo) * 8 - _LZCNT_ALT_32(v_lo);

	mov	ecx, DWORD PTR v_lo$9[rbp]
	call	_LZCNT_ALT_32
	cdqe
	mov	ecx, 32					; 00000020H
	sub	rcx, rax
	mov	rax, rcx
	mov	QWORD PTR v_bit_count$10[rbp], rax

; 304  :                 __UNIT_TYPE w_bit_count = _MAXIMUM_UNIT(u_bit_count, v_bit_count);

	mov	rdx, QWORD PTR v_bit_count$10[rbp]
	mov	rcx, QWORD PTR u_bit_count$7[rbp]
	call	_MAXIMUM_UNIT
	mov	QWORD PTR w_bit_count$11[rbp], rax

; 305  :                 __UNIT_TYPE w_light_check_code;
; 306  :                 if ((result = AllocateNumber(w, w_bit_count, &w_light_check_code)) != PMC_STATUS_OK)

	lea	r8, QWORD PTR w_light_check_code$12[rbp]
	mov	rdx, QWORD PTR w_bit_count$11[rbp]
	mov	rcx, QWORD PTR w$[rbp]
	call	AllocateNumber
	mov	DWORD PTR result$[rbp], eax
	cmp	DWORD PTR result$[rbp], 0
	je	SHORT $LN14@PMC_Bitwis

; 307  :                     return (result);

	mov	eax, DWORD PTR result$[rbp]
	jmp	$LN1@PMC_Bitwis
$LN14@PMC_Bitwis:

; 308  :                 BitwiseOr_X_1W(u->BLOCK, u->UNIT_WORD_COUNT, v_lo, (*w)->BLOCK);

	mov	rax, QWORD PTR w$[rbp]
	mov	rax, QWORD PTR [rax]
	mov	ecx, DWORD PTR v_lo$9[rbp]
	mov	r9, QWORD PTR [rax+56]
	mov	r8d, ecx
	mov	rax, QWORD PTR u$[rbp]
	mov	rdx, QWORD PTR [rax+8]
	mov	rax, QWORD PTR u$[rbp]
	mov	rcx, QWORD PTR [rax+56]
	call	BitwiseOr_X_1W

; 309  :                 if ((result = CheckBlockLight((*w)->BLOCK, w_light_check_code)) != PMC_STATUS_OK)

	mov	rax, QWORD PTR w$[rbp]
	mov	rax, QWORD PTR [rax]
	mov	rdx, QWORD PTR w_light_check_code$12[rbp]
	mov	rcx, QWORD PTR [rax+56]
	call	CheckBlockLight
	mov	DWORD PTR result$[rbp], eax
	cmp	DWORD PTR result$[rbp], 0
	je	SHORT $LN15@PMC_Bitwis

; 310  :                     return (result);

	mov	eax, DWORD PTR result$[rbp]
	jmp	$LN1@PMC_Bitwis
$LN15@PMC_Bitwis:

; 311  :             }

	jmp	$LN13@PMC_Bitwis
$LN12@PMC_Bitwis:

; 312  :             else
; 313  :             {
; 314  :                 // y の値が 32bit では表現できない場合
; 315  :                 __UNIT_TYPE v_bit_count = sizeof(v) * 8 - _LZCNT_ALT_32(v_hi);

	mov	ecx, DWORD PTR v_hi$8[rbp]
	call	_LZCNT_ALT_32
	cdqe
	mov	ecx, 64					; 00000040H
	sub	rcx, rax
	mov	rax, rcx
	mov	QWORD PTR v_bit_count$13[rbp], rax

; 316  :                 __UNIT_TYPE w_bit_count = _MAXIMUM_UNIT(u_bit_count, v_bit_count);

	mov	rdx, QWORD PTR v_bit_count$13[rbp]
	mov	rcx, QWORD PTR u_bit_count$7[rbp]
	call	_MAXIMUM_UNIT
	mov	QWORD PTR w_bit_count$14[rbp], rax

; 317  :                 __UNIT_TYPE w_light_check_code;
; 318  :                 if ((result = AllocateNumber(w, w_bit_count, &w_light_check_code)) != PMC_STATUS_OK)

	lea	r8, QWORD PTR w_light_check_code$15[rbp]
	mov	rdx, QWORD PTR w_bit_count$14[rbp]
	mov	rcx, QWORD PTR w$[rbp]
	call	AllocateNumber
	mov	DWORD PTR result$[rbp], eax
	cmp	DWORD PTR result$[rbp], 0
	je	SHORT $LN16@PMC_Bitwis

; 319  :                     return (result);

	mov	eax, DWORD PTR result$[rbp]
	jmp	$LN1@PMC_Bitwis
$LN16@PMC_Bitwis:

; 320  :                 BitwiseOr_X_2W(u->BLOCK, u->UNIT_WORD_COUNT, v_hi, v_lo, (*w)->BLOCK);

	mov	rax, QWORD PTR w$[rbp]
	mov	rax, QWORD PTR [rax]
	mov	ecx, DWORD PTR v_lo$9[rbp]
	mov	edx, DWORD PTR v_hi$8[rbp]
	mov	rax, QWORD PTR [rax+56]
	mov	QWORD PTR [rsp+32], rax
	mov	r9d, ecx
	mov	r8d, edx
	mov	rax, QWORD PTR u$[rbp]
	mov	rdx, QWORD PTR [rax+8]
	mov	rax, QWORD PTR u$[rbp]
	mov	rcx, QWORD PTR [rax+56]
	call	BitwiseOr_X_2W

; 321  :                 if ((result = CheckBlockLight((*w)->BLOCK, w_light_check_code)) != PMC_STATUS_OK)

	mov	rax, QWORD PTR w$[rbp]
	mov	rax, QWORD PTR [rax]
	mov	rdx, QWORD PTR w_light_check_code$15[rbp]
	mov	rcx, QWORD PTR [rax+56]
	call	CheckBlockLight
	mov	DWORD PTR result$[rbp], eax
	cmp	DWORD PTR result$[rbp], 0
	je	SHORT $LN17@PMC_Bitwis

; 322  :                     return (result);

	mov	eax, DWORD PTR result$[rbp]
	jmp	$LN1@PMC_Bitwis
$LN17@PMC_Bitwis:
$LN13@PMC_Bitwis:

; 323  :             }
; 324  :             CommitNumber(*w);

	mov	rax, QWORD PTR w$[rbp]
	mov	rcx, QWORD PTR [rax]
	call	CommitNumber

; 325  :         }

	jmp	$LN11@PMC_Bitwis
$LN10@PMC_Bitwis:

; 326  :         else
; 327  :         {
; 328  :             // _UINT64_T が 1 ワードで表現できる場合
; 329  : 
; 330  :             __UNIT_TYPE u_bit_count = u->UNIT_BIT_COUNT;

	mov	rax, QWORD PTR u$[rbp]
	mov	rax, QWORD PTR [rax+16]
	mov	QWORD PTR u_bit_count$16[rbp], rax

; 331  :             __UNIT_TYPE v_bit_count = sizeof(v) * 8 - _LZCNT_ALT_UNIT((__UNIT_TYPE)v);

	mov	rcx, QWORD PTR v$[rbp]
	call	_LZCNT_ALT_UNIT
	cdqe
	mov	ecx, 64					; 00000040H
	sub	rcx, rax
	mov	rax, rcx
	mov	QWORD PTR v_bit_count$17[rbp], rax

; 332  :             __UNIT_TYPE w_bit_count = _MAXIMUM_UNIT(u_bit_count, v_bit_count) + 1;

	mov	rdx, QWORD PTR v_bit_count$17[rbp]
	mov	rcx, QWORD PTR u_bit_count$16[rbp]
	call	_MAXIMUM_UNIT
	inc	rax
	mov	QWORD PTR w_bit_count$18[rbp], rax

; 333  :             __UNIT_TYPE nw_light_check_code;
; 334  :             if ((result = AllocateNumber(w, w_bit_count, &nw_light_check_code)) != PMC_STATUS_OK)

	lea	r8, QWORD PTR nw_light_check_code$19[rbp]
	mov	rdx, QWORD PTR w_bit_count$18[rbp]
	mov	rcx, QWORD PTR w$[rbp]
	call	AllocateNumber
	mov	DWORD PTR result$[rbp], eax
	cmp	DWORD PTR result$[rbp], 0
	je	SHORT $LN18@PMC_Bitwis

; 335  :                 return (result);

	mov	eax, DWORD PTR result$[rbp]
	jmp	SHORT $LN1@PMC_Bitwis
$LN18@PMC_Bitwis:

; 336  :             BitwiseOr_X_1W(u->BLOCK, u->UNIT_WORD_COUNT, (__UNIT_TYPE)v, (*w)->BLOCK);

	mov	rax, QWORD PTR w$[rbp]
	mov	rax, QWORD PTR [rax]
	mov	r9, QWORD PTR [rax+56]
	mov	r8, QWORD PTR v$[rbp]
	mov	rax, QWORD PTR u$[rbp]
	mov	rdx, QWORD PTR [rax+8]
	mov	rax, QWORD PTR u$[rbp]
	mov	rcx, QWORD PTR [rax+56]
	call	BitwiseOr_X_1W

; 337  :             if ((result = CheckBlockLight((*w)->BLOCK, nw_light_check_code)) != PMC_STATUS_OK)

	mov	rax, QWORD PTR w$[rbp]
	mov	rax, QWORD PTR [rax]
	mov	rdx, QWORD PTR nw_light_check_code$19[rbp]
	mov	rcx, QWORD PTR [rax+56]
	call	CheckBlockLight
	mov	DWORD PTR result$[rbp], eax
	cmp	DWORD PTR result$[rbp], 0
	je	SHORT $LN19@PMC_Bitwis

; 338  :                 return (result);

	mov	eax, DWORD PTR result$[rbp]
	jmp	SHORT $LN1@PMC_Bitwis
$LN19@PMC_Bitwis:

; 339  :             CommitNumber(*w);

	mov	rax, QWORD PTR w$[rbp]
	mov	rcx, QWORD PTR [rax]
	call	CommitNumber
$LN11@PMC_Bitwis:
$LN8@PMC_Bitwis:
$LN3@PMC_Bitwis:

; 340  :         }
; 341  :     }
; 342  :     return (PMC_STATUS_OK);

	xor	eax, eax
$LN1@PMC_Bitwis:

; 343  : }

	mov	rdi, rax
	lea	rcx, QWORD PTR [rbp-48]
	lea	rdx, OFFSET FLAT:PMC_BitwiseOr_X_L_Imp$rtcFrameData
	call	_RTC_CheckStackVars
	mov	rax, rdi
	lea	rsp, QWORD PTR [rbp+648]
	pop	rdi
	pop	rbp
	ret	0
PMC_BitwiseOr_X_L_Imp ENDP
_TEXT	ENDS
; Function compile flags: /Odtp /RTCsu /ZI
; File z:\sources\lunor\repos\rougemeilland\palmtree.math.core.uint\palmtree.math.core.uint\pmc_bitwiseor.c
;	COMDAT PMC_BitwiseOr_X_I_Imp
_TEXT	SEGMENT
result$ = 4
u_bit_count$4 = 40
v_bit_count$5 = 72
w_bit_count$6 = 104
nz_check_code$7 = 136
u$ = 384
v$ = 392
w$ = 400
PMC_BitwiseOr_X_I_Imp PROC				; COMDAT

; 181  : {

	mov	QWORD PTR [rsp+24], r8
	mov	DWORD PTR [rsp+16], edx
	mov	QWORD PTR [rsp+8], rcx
	push	rbp
	push	rdi
	sub	rsp, 392				; 00000188H
	lea	rbp, QWORD PTR [rsp+32]
	mov	rdi, rsp
	mov	ecx, 98					; 00000062H
	mov	eax, -858993460				; ccccccccH
	rep stosd
	mov	rcx, QWORD PTR [rsp+424]
	lea	rcx, OFFSET FLAT:__3F1A8F43_pmc_bitwiseor@c
	call	__CheckForDebuggerJustMyCode

; 182  :     PMC_STATUS_CODE result;
; 183  :     if (u->IS_ZERO)

	mov	rax, QWORD PTR u$[rbp]
	mov	eax, DWORD PTR [rax+40]
	shr	eax, 1
	and	eax, 1
	test	eax, eax
	je	SHORT $LN2@PMC_Bitwis

; 184  :     {
; 185  :         // u が 0 である場合
; 186  :         if (v == 0)

	cmp	DWORD PTR v$[rbp], 0
	jne	SHORT $LN4@PMC_Bitwis

; 187  :         {
; 188  :             // v が 0 である場合
; 189  :             *w = &number_zero;

	mov	rax, QWORD PTR w$[rbp]
	lea	rcx, OFFSET FLAT:number_zero
	mov	QWORD PTR [rax], rcx

; 190  :         }

	jmp	SHORT $LN5@PMC_Bitwis
$LN4@PMC_Bitwis:

; 191  :         else
; 192  :         {
; 193  :             // v が 0 でない場合
; 194  :             if ((result = From_I_Imp(v, w)) != PMC_STATUS_OK)

	mov	rdx, QWORD PTR w$[rbp]
	mov	ecx, DWORD PTR v$[rbp]
	call	From_I_Imp
	mov	DWORD PTR result$[rbp], eax
	cmp	DWORD PTR result$[rbp], 0
	je	SHORT $LN6@PMC_Bitwis

; 195  :                 return (result);

	mov	eax, DWORD PTR result$[rbp]
	jmp	$LN1@PMC_Bitwis
$LN6@PMC_Bitwis:
$LN5@PMC_Bitwis:

; 196  :         }
; 197  :     }

	jmp	$LN3@PMC_Bitwis
$LN2@PMC_Bitwis:

; 198  :     else if (v == 0)

	cmp	DWORD PTR v$[rbp], 0
	jne	SHORT $LN7@PMC_Bitwis

; 199  :     {
; 200  :         // v が 0 である場合
; 201  :         if ((result = DuplicateNumber(u, w)) != PMC_STATUS_OK)

	mov	rdx, QWORD PTR w$[rbp]
	mov	rcx, QWORD PTR u$[rbp]
	call	DuplicateNumber
	mov	DWORD PTR result$[rbp], eax
	cmp	DWORD PTR result$[rbp], 0
	je	SHORT $LN9@PMC_Bitwis

; 202  :             return (result);

	mov	eax, DWORD PTR result$[rbp]
	jmp	$LN1@PMC_Bitwis
$LN9@PMC_Bitwis:

; 203  :     }

	jmp	$LN8@PMC_Bitwis
$LN7@PMC_Bitwis:

; 204  :     else
; 205  :     {
; 206  :         // x と y がともに 0 ではない場合
; 207  :         __UNIT_TYPE u_bit_count = u->UNIT_BIT_COUNT;

	mov	rax, QWORD PTR u$[rbp]
	mov	rax, QWORD PTR [rax+16]
	mov	QWORD PTR u_bit_count$4[rbp], rax

; 208  :         __UNIT_TYPE v_bit_count = sizeof(v) * 8 - _LZCNT_ALT_32(v);

	mov	ecx, DWORD PTR v$[rbp]
	call	_LZCNT_ALT_32
	cdqe
	mov	ecx, 32					; 00000020H
	sub	rcx, rax
	mov	rax, rcx
	mov	QWORD PTR v_bit_count$5[rbp], rax

; 209  :         __UNIT_TYPE w_bit_count = _MAXIMUM_UNIT(u_bit_count, v_bit_count) + 1;

	mov	rdx, QWORD PTR v_bit_count$5[rbp]
	mov	rcx, QWORD PTR u_bit_count$4[rbp]
	call	_MAXIMUM_UNIT
	inc	rax
	mov	QWORD PTR w_bit_count$6[rbp], rax

; 210  :         __UNIT_TYPE nz_check_code;
; 211  :         if ((result = AllocateNumber(w, w_bit_count, &nz_check_code)) != PMC_STATUS_OK)

	lea	r8, QWORD PTR nz_check_code$7[rbp]
	mov	rdx, QWORD PTR w_bit_count$6[rbp]
	mov	rcx, QWORD PTR w$[rbp]
	call	AllocateNumber
	mov	DWORD PTR result$[rbp], eax
	cmp	DWORD PTR result$[rbp], 0
	je	SHORT $LN10@PMC_Bitwis

; 212  :             return (result);

	mov	eax, DWORD PTR result$[rbp]
	jmp	SHORT $LN1@PMC_Bitwis
$LN10@PMC_Bitwis:

; 213  :         BitwiseOr_X_1W(u->BLOCK, u->UNIT_WORD_COUNT, v, (*w)->BLOCK);

	mov	rax, QWORD PTR w$[rbp]
	mov	rax, QWORD PTR [rax]
	mov	ecx, DWORD PTR v$[rbp]
	mov	r9, QWORD PTR [rax+56]
	mov	r8d, ecx
	mov	rax, QWORD PTR u$[rbp]
	mov	rdx, QWORD PTR [rax+8]
	mov	rax, QWORD PTR u$[rbp]
	mov	rcx, QWORD PTR [rax+56]
	call	BitwiseOr_X_1W

; 214  :         if ((result = CheckBlockLight((*w)->BLOCK, nz_check_code)) != PMC_STATUS_OK)

	mov	rax, QWORD PTR w$[rbp]
	mov	rax, QWORD PTR [rax]
	mov	rdx, QWORD PTR nz_check_code$7[rbp]
	mov	rcx, QWORD PTR [rax+56]
	call	CheckBlockLight
	mov	DWORD PTR result$[rbp], eax
	cmp	DWORD PTR result$[rbp], 0
	je	SHORT $LN11@PMC_Bitwis

; 215  :             return (result);

	mov	eax, DWORD PTR result$[rbp]
	jmp	SHORT $LN1@PMC_Bitwis
$LN11@PMC_Bitwis:

; 216  :         CommitNumber(*w);

	mov	rax, QWORD PTR w$[rbp]
	mov	rcx, QWORD PTR [rax]
	call	CommitNumber
$LN8@PMC_Bitwis:
$LN3@PMC_Bitwis:

; 217  :     }
; 218  :     return (PMC_STATUS_OK);

	xor	eax, eax
$LN1@PMC_Bitwis:

; 219  : }

	mov	rdi, rax
	lea	rcx, QWORD PTR [rbp-32]
	lea	rdx, OFFSET FLAT:PMC_BitwiseOr_X_I_Imp$rtcFrameData
	call	_RTC_CheckStackVars
	mov	rax, rdi
	lea	rsp, QWORD PTR [rbp+360]
	pop	rdi
	pop	rbp
	ret	0
PMC_BitwiseOr_X_I_Imp ENDP
_TEXT	ENDS
; Function compile flags: /Odtp /RTCsu /ZI
; File z:\sources\lunor\repos\rougemeilland\palmtree.math.core.uint\palmtree.math.core.uint\pmc_bitwiseor.c
;	COMDAT BitwiseOr_X_X
_TEXT	SEGMENT
or_count$ = 8
cp_count$ = 40
count$ = 72
u$ = 320
u_count$ = 328
v$ = 336
v_count$ = 344
w$ = 352
BitwiseOr_X_X PROC					; COMDAT

; 66   : {

	mov	QWORD PTR [rsp+32], r9
	mov	QWORD PTR [rsp+24], r8
	mov	QWORD PTR [rsp+16], rdx
	mov	QWORD PTR [rsp+8], rcx
	push	rbp
	push	rdi
	sub	rsp, 328				; 00000148H
	lea	rbp, QWORD PTR [rsp+32]
	mov	rdi, rsp
	mov	ecx, 82					; 00000052H
	mov	eax, -858993460				; ccccccccH
	rep stosd
	mov	rcx, QWORD PTR [rsp+360]
	lea	rcx, OFFSET FLAT:__3F1A8F43_pmc_bitwiseor@c
	call	__CheckForDebuggerJustMyCode

; 67   :     __UNIT_TYPE or_count = v_count;

	mov	rax, QWORD PTR v_count$[rbp]
	mov	QWORD PTR or_count$[rbp], rax

; 68   :     __UNIT_TYPE cp_count = u_count - v_count;

	mov	rax, QWORD PTR v_count$[rbp]
	mov	rcx, QWORD PTR u_count$[rbp]
	sub	rcx, rax
	mov	rax, rcx
	mov	QWORD PTR cp_count$[rbp], rax

; 69   : 
; 70   :     __UNIT_TYPE count = or_count >> 5;

	mov	rax, QWORD PTR or_count$[rbp]
	shr	rax, 5
	mov	QWORD PTR count$[rbp], rax
$LN2@BitwiseOr_:

; 71   :     while (count > 0)

	cmp	QWORD PTR count$[rbp], 0
	jbe	$LN3@BitwiseOr_

; 72   :     {
; 73   :         w[0] = u[0] | v[0];

	mov	eax, 8
	imul	rax, rax, 0
	mov	ecx, 8
	imul	rcx, rcx, 0
	mov	rdx, QWORD PTR u$[rbp]
	mov	r8, QWORD PTR v$[rbp]
	mov	rcx, QWORD PTR [r8+rcx]
	mov	rax, QWORD PTR [rdx+rax]
	or	rax, rcx
	mov	ecx, 8
	imul	rcx, rcx, 0
	mov	rdx, QWORD PTR w$[rbp]
	mov	QWORD PTR [rdx+rcx], rax

; 74   :         w[1] = u[1] | v[1];

	mov	eax, 8
	imul	rax, rax, 1
	mov	ecx, 8
	imul	rcx, rcx, 1
	mov	rdx, QWORD PTR u$[rbp]
	mov	r8, QWORD PTR v$[rbp]
	mov	rcx, QWORD PTR [r8+rcx]
	mov	rax, QWORD PTR [rdx+rax]
	or	rax, rcx
	mov	ecx, 8
	imul	rcx, rcx, 1
	mov	rdx, QWORD PTR w$[rbp]
	mov	QWORD PTR [rdx+rcx], rax

; 75   :         w[2] = u[2] | v[2];

	mov	eax, 8
	imul	rax, rax, 2
	mov	ecx, 8
	imul	rcx, rcx, 2
	mov	rdx, QWORD PTR u$[rbp]
	mov	r8, QWORD PTR v$[rbp]
	mov	rcx, QWORD PTR [r8+rcx]
	mov	rax, QWORD PTR [rdx+rax]
	or	rax, rcx
	mov	ecx, 8
	imul	rcx, rcx, 2
	mov	rdx, QWORD PTR w$[rbp]
	mov	QWORD PTR [rdx+rcx], rax

; 76   :         w[3] = u[3] | v[3];

	mov	eax, 8
	imul	rax, rax, 3
	mov	ecx, 8
	imul	rcx, rcx, 3
	mov	rdx, QWORD PTR u$[rbp]
	mov	r8, QWORD PTR v$[rbp]
	mov	rcx, QWORD PTR [r8+rcx]
	mov	rax, QWORD PTR [rdx+rax]
	or	rax, rcx
	mov	ecx, 8
	imul	rcx, rcx, 3
	mov	rdx, QWORD PTR w$[rbp]
	mov	QWORD PTR [rdx+rcx], rax

; 77   :         w[4] = u[4] | v[4];

	mov	eax, 8
	imul	rax, rax, 4
	mov	ecx, 8
	imul	rcx, rcx, 4
	mov	rdx, QWORD PTR u$[rbp]
	mov	r8, QWORD PTR v$[rbp]
	mov	rcx, QWORD PTR [r8+rcx]
	mov	rax, QWORD PTR [rdx+rax]
	or	rax, rcx
	mov	ecx, 8
	imul	rcx, rcx, 4
	mov	rdx, QWORD PTR w$[rbp]
	mov	QWORD PTR [rdx+rcx], rax

; 78   :         w[5] = u[5] | v[5];

	mov	eax, 8
	imul	rax, rax, 5
	mov	ecx, 8
	imul	rcx, rcx, 5
	mov	rdx, QWORD PTR u$[rbp]
	mov	r8, QWORD PTR v$[rbp]
	mov	rcx, QWORD PTR [r8+rcx]
	mov	rax, QWORD PTR [rdx+rax]
	or	rax, rcx
	mov	ecx, 8
	imul	rcx, rcx, 5
	mov	rdx, QWORD PTR w$[rbp]
	mov	QWORD PTR [rdx+rcx], rax

; 79   :         w[6] = u[6] | v[6];

	mov	eax, 8
	imul	rax, rax, 6
	mov	ecx, 8
	imul	rcx, rcx, 6
	mov	rdx, QWORD PTR u$[rbp]
	mov	r8, QWORD PTR v$[rbp]
	mov	rcx, QWORD PTR [r8+rcx]
	mov	rax, QWORD PTR [rdx+rax]
	or	rax, rcx
	mov	ecx, 8
	imul	rcx, rcx, 6
	mov	rdx, QWORD PTR w$[rbp]
	mov	QWORD PTR [rdx+rcx], rax

; 80   :         w[7] = u[7] | v[7];

	mov	eax, 8
	imul	rax, rax, 7
	mov	ecx, 8
	imul	rcx, rcx, 7
	mov	rdx, QWORD PTR u$[rbp]
	mov	r8, QWORD PTR v$[rbp]
	mov	rcx, QWORD PTR [r8+rcx]
	mov	rax, QWORD PTR [rdx+rax]
	or	rax, rcx
	mov	ecx, 8
	imul	rcx, rcx, 7
	mov	rdx, QWORD PTR w$[rbp]
	mov	QWORD PTR [rdx+rcx], rax

; 81   :         w[8] = u[8] | v[8];

	mov	eax, 8
	imul	rax, rax, 8
	mov	ecx, 8
	imul	rcx, rcx, 8
	mov	rdx, QWORD PTR u$[rbp]
	mov	r8, QWORD PTR v$[rbp]
	mov	rcx, QWORD PTR [r8+rcx]
	mov	rax, QWORD PTR [rdx+rax]
	or	rax, rcx
	mov	ecx, 8
	imul	rcx, rcx, 8
	mov	rdx, QWORD PTR w$[rbp]
	mov	QWORD PTR [rdx+rcx], rax

; 82   :         w[9] = u[9] | v[9];

	mov	eax, 8
	imul	rax, rax, 9
	mov	ecx, 8
	imul	rcx, rcx, 9
	mov	rdx, QWORD PTR u$[rbp]
	mov	r8, QWORD PTR v$[rbp]
	mov	rcx, QWORD PTR [r8+rcx]
	mov	rax, QWORD PTR [rdx+rax]
	or	rax, rcx
	mov	ecx, 8
	imul	rcx, rcx, 9
	mov	rdx, QWORD PTR w$[rbp]
	mov	QWORD PTR [rdx+rcx], rax

; 83   :         w[10] = u[10] | v[10];

	mov	eax, 8
	imul	rax, rax, 10
	mov	ecx, 8
	imul	rcx, rcx, 10
	mov	rdx, QWORD PTR u$[rbp]
	mov	r8, QWORD PTR v$[rbp]
	mov	rcx, QWORD PTR [r8+rcx]
	mov	rax, QWORD PTR [rdx+rax]
	or	rax, rcx
	mov	ecx, 8
	imul	rcx, rcx, 10
	mov	rdx, QWORD PTR w$[rbp]
	mov	QWORD PTR [rdx+rcx], rax

; 84   :         w[11] = u[11] | v[11];

	mov	eax, 8
	imul	rax, rax, 11
	mov	ecx, 8
	imul	rcx, rcx, 11
	mov	rdx, QWORD PTR u$[rbp]
	mov	r8, QWORD PTR v$[rbp]
	mov	rcx, QWORD PTR [r8+rcx]
	mov	rax, QWORD PTR [rdx+rax]
	or	rax, rcx
	mov	ecx, 8
	imul	rcx, rcx, 11
	mov	rdx, QWORD PTR w$[rbp]
	mov	QWORD PTR [rdx+rcx], rax

; 85   :         w[12] = u[12] | v[12];

	mov	eax, 8
	imul	rax, rax, 12
	mov	ecx, 8
	imul	rcx, rcx, 12
	mov	rdx, QWORD PTR u$[rbp]
	mov	r8, QWORD PTR v$[rbp]
	mov	rcx, QWORD PTR [r8+rcx]
	mov	rax, QWORD PTR [rdx+rax]
	or	rax, rcx
	mov	ecx, 8
	imul	rcx, rcx, 12
	mov	rdx, QWORD PTR w$[rbp]
	mov	QWORD PTR [rdx+rcx], rax

; 86   :         w[13] = u[13] | v[13];

	mov	eax, 8
	imul	rax, rax, 13
	mov	ecx, 8
	imul	rcx, rcx, 13
	mov	rdx, QWORD PTR u$[rbp]
	mov	r8, QWORD PTR v$[rbp]
	mov	rcx, QWORD PTR [r8+rcx]
	mov	rax, QWORD PTR [rdx+rax]
	or	rax, rcx
	mov	ecx, 8
	imul	rcx, rcx, 13
	mov	rdx, QWORD PTR w$[rbp]
	mov	QWORD PTR [rdx+rcx], rax

; 87   :         w[14] = u[14] | v[14];

	mov	eax, 8
	imul	rax, rax, 14
	mov	ecx, 8
	imul	rcx, rcx, 14
	mov	rdx, QWORD PTR u$[rbp]
	mov	r8, QWORD PTR v$[rbp]
	mov	rcx, QWORD PTR [r8+rcx]
	mov	rax, QWORD PTR [rdx+rax]
	or	rax, rcx
	mov	ecx, 8
	imul	rcx, rcx, 14
	mov	rdx, QWORD PTR w$[rbp]
	mov	QWORD PTR [rdx+rcx], rax

; 88   :         w[15] = u[15] | v[15];

	mov	eax, 8
	imul	rax, rax, 15
	mov	ecx, 8
	imul	rcx, rcx, 15
	mov	rdx, QWORD PTR u$[rbp]
	mov	r8, QWORD PTR v$[rbp]
	mov	rcx, QWORD PTR [r8+rcx]
	mov	rax, QWORD PTR [rdx+rax]
	or	rax, rcx
	mov	ecx, 8
	imul	rcx, rcx, 15
	mov	rdx, QWORD PTR w$[rbp]
	mov	QWORD PTR [rdx+rcx], rax

; 89   :         w[16] = u[16] | v[16];

	mov	eax, 8
	imul	rax, rax, 16
	mov	ecx, 8
	imul	rcx, rcx, 16
	mov	rdx, QWORD PTR u$[rbp]
	mov	r8, QWORD PTR v$[rbp]
	mov	rcx, QWORD PTR [r8+rcx]
	mov	rax, QWORD PTR [rdx+rax]
	or	rax, rcx
	mov	ecx, 8
	imul	rcx, rcx, 16
	mov	rdx, QWORD PTR w$[rbp]
	mov	QWORD PTR [rdx+rcx], rax

; 90   :         w[17] = u[17] | v[17];

	mov	eax, 8
	imul	rax, rax, 17
	mov	ecx, 8
	imul	rcx, rcx, 17
	mov	rdx, QWORD PTR u$[rbp]
	mov	r8, QWORD PTR v$[rbp]
	mov	rcx, QWORD PTR [r8+rcx]
	mov	rax, QWORD PTR [rdx+rax]
	or	rax, rcx
	mov	ecx, 8
	imul	rcx, rcx, 17
	mov	rdx, QWORD PTR w$[rbp]
	mov	QWORD PTR [rdx+rcx], rax

; 91   :         w[18] = u[18] | v[18];

	mov	eax, 8
	imul	rax, rax, 18
	mov	ecx, 8
	imul	rcx, rcx, 18
	mov	rdx, QWORD PTR u$[rbp]
	mov	r8, QWORD PTR v$[rbp]
	mov	rcx, QWORD PTR [r8+rcx]
	mov	rax, QWORD PTR [rdx+rax]
	or	rax, rcx
	mov	ecx, 8
	imul	rcx, rcx, 18
	mov	rdx, QWORD PTR w$[rbp]
	mov	QWORD PTR [rdx+rcx], rax

; 92   :         w[19] = u[19] | v[19];

	mov	eax, 8
	imul	rax, rax, 19
	mov	ecx, 8
	imul	rcx, rcx, 19
	mov	rdx, QWORD PTR u$[rbp]
	mov	r8, QWORD PTR v$[rbp]
	mov	rcx, QWORD PTR [r8+rcx]
	mov	rax, QWORD PTR [rdx+rax]
	or	rax, rcx
	mov	ecx, 8
	imul	rcx, rcx, 19
	mov	rdx, QWORD PTR w$[rbp]
	mov	QWORD PTR [rdx+rcx], rax

; 93   :         w[20] = u[20] | v[20];

	mov	eax, 8
	imul	rax, rax, 20
	mov	ecx, 8
	imul	rcx, rcx, 20
	mov	rdx, QWORD PTR u$[rbp]
	mov	r8, QWORD PTR v$[rbp]
	mov	rcx, QWORD PTR [r8+rcx]
	mov	rax, QWORD PTR [rdx+rax]
	or	rax, rcx
	mov	ecx, 8
	imul	rcx, rcx, 20
	mov	rdx, QWORD PTR w$[rbp]
	mov	QWORD PTR [rdx+rcx], rax

; 94   :         w[21] = u[21] | v[21];

	mov	eax, 8
	imul	rax, rax, 21
	mov	ecx, 8
	imul	rcx, rcx, 21
	mov	rdx, QWORD PTR u$[rbp]
	mov	r8, QWORD PTR v$[rbp]
	mov	rcx, QWORD PTR [r8+rcx]
	mov	rax, QWORD PTR [rdx+rax]
	or	rax, rcx
	mov	ecx, 8
	imul	rcx, rcx, 21
	mov	rdx, QWORD PTR w$[rbp]
	mov	QWORD PTR [rdx+rcx], rax

; 95   :         w[22] = u[22] | v[22];

	mov	eax, 8
	imul	rax, rax, 22
	mov	ecx, 8
	imul	rcx, rcx, 22
	mov	rdx, QWORD PTR u$[rbp]
	mov	r8, QWORD PTR v$[rbp]
	mov	rcx, QWORD PTR [r8+rcx]
	mov	rax, QWORD PTR [rdx+rax]
	or	rax, rcx
	mov	ecx, 8
	imul	rcx, rcx, 22
	mov	rdx, QWORD PTR w$[rbp]
	mov	QWORD PTR [rdx+rcx], rax

; 96   :         w[23] = u[23] | v[23];

	mov	eax, 8
	imul	rax, rax, 23
	mov	ecx, 8
	imul	rcx, rcx, 23
	mov	rdx, QWORD PTR u$[rbp]
	mov	r8, QWORD PTR v$[rbp]
	mov	rcx, QWORD PTR [r8+rcx]
	mov	rax, QWORD PTR [rdx+rax]
	or	rax, rcx
	mov	ecx, 8
	imul	rcx, rcx, 23
	mov	rdx, QWORD PTR w$[rbp]
	mov	QWORD PTR [rdx+rcx], rax

; 97   :         w[24] = u[24] | v[24];

	mov	eax, 8
	imul	rax, rax, 24
	mov	ecx, 8
	imul	rcx, rcx, 24
	mov	rdx, QWORD PTR u$[rbp]
	mov	r8, QWORD PTR v$[rbp]
	mov	rcx, QWORD PTR [r8+rcx]
	mov	rax, QWORD PTR [rdx+rax]
	or	rax, rcx
	mov	ecx, 8
	imul	rcx, rcx, 24
	mov	rdx, QWORD PTR w$[rbp]
	mov	QWORD PTR [rdx+rcx], rax

; 98   :         w[25] = u[25] | v[25];

	mov	eax, 8
	imul	rax, rax, 25
	mov	ecx, 8
	imul	rcx, rcx, 25
	mov	rdx, QWORD PTR u$[rbp]
	mov	r8, QWORD PTR v$[rbp]
	mov	rcx, QWORD PTR [r8+rcx]
	mov	rax, QWORD PTR [rdx+rax]
	or	rax, rcx
	mov	ecx, 8
	imul	rcx, rcx, 25
	mov	rdx, QWORD PTR w$[rbp]
	mov	QWORD PTR [rdx+rcx], rax

; 99   :         w[26] = u[26] | v[26];

	mov	eax, 8
	imul	rax, rax, 26
	mov	ecx, 8
	imul	rcx, rcx, 26
	mov	rdx, QWORD PTR u$[rbp]
	mov	r8, QWORD PTR v$[rbp]
	mov	rcx, QWORD PTR [r8+rcx]
	mov	rax, QWORD PTR [rdx+rax]
	or	rax, rcx
	mov	ecx, 8
	imul	rcx, rcx, 26
	mov	rdx, QWORD PTR w$[rbp]
	mov	QWORD PTR [rdx+rcx], rax

; 100  :         w[27] = u[27] | v[27];

	mov	eax, 8
	imul	rax, rax, 27
	mov	ecx, 8
	imul	rcx, rcx, 27
	mov	rdx, QWORD PTR u$[rbp]
	mov	r8, QWORD PTR v$[rbp]
	mov	rcx, QWORD PTR [r8+rcx]
	mov	rax, QWORD PTR [rdx+rax]
	or	rax, rcx
	mov	ecx, 8
	imul	rcx, rcx, 27
	mov	rdx, QWORD PTR w$[rbp]
	mov	QWORD PTR [rdx+rcx], rax

; 101  :         w[28] = u[28] | v[28];

	mov	eax, 8
	imul	rax, rax, 28
	mov	ecx, 8
	imul	rcx, rcx, 28
	mov	rdx, QWORD PTR u$[rbp]
	mov	r8, QWORD PTR v$[rbp]
	mov	rcx, QWORD PTR [r8+rcx]
	mov	rax, QWORD PTR [rdx+rax]
	or	rax, rcx
	mov	ecx, 8
	imul	rcx, rcx, 28
	mov	rdx, QWORD PTR w$[rbp]
	mov	QWORD PTR [rdx+rcx], rax

; 102  :         w[29] = u[29] | v[29];

	mov	eax, 8
	imul	rax, rax, 29
	mov	ecx, 8
	imul	rcx, rcx, 29
	mov	rdx, QWORD PTR u$[rbp]
	mov	r8, QWORD PTR v$[rbp]
	mov	rcx, QWORD PTR [r8+rcx]
	mov	rax, QWORD PTR [rdx+rax]
	or	rax, rcx
	mov	ecx, 8
	imul	rcx, rcx, 29
	mov	rdx, QWORD PTR w$[rbp]
	mov	QWORD PTR [rdx+rcx], rax

; 103  :         w[30] = u[30] | v[30];

	mov	eax, 8
	imul	rax, rax, 30
	mov	ecx, 8
	imul	rcx, rcx, 30
	mov	rdx, QWORD PTR u$[rbp]
	mov	r8, QWORD PTR v$[rbp]
	mov	rcx, QWORD PTR [r8+rcx]
	mov	rax, QWORD PTR [rdx+rax]
	or	rax, rcx
	mov	ecx, 8
	imul	rcx, rcx, 30
	mov	rdx, QWORD PTR w$[rbp]
	mov	QWORD PTR [rdx+rcx], rax

; 104  :         w[31] = u[31] | v[31];

	mov	eax, 8
	imul	rax, rax, 31
	mov	ecx, 8
	imul	rcx, rcx, 31
	mov	rdx, QWORD PTR u$[rbp]
	mov	r8, QWORD PTR v$[rbp]
	mov	rcx, QWORD PTR [r8+rcx]
	mov	rax, QWORD PTR [rdx+rax]
	or	rax, rcx
	mov	ecx, 8
	imul	rcx, rcx, 31
	mov	rdx, QWORD PTR w$[rbp]
	mov	QWORD PTR [rdx+rcx], rax

; 105  :         u += 32;

	mov	rax, QWORD PTR u$[rbp]
	add	rax, 256				; 00000100H
	mov	QWORD PTR u$[rbp], rax

; 106  :         v += 32;

	mov	rax, QWORD PTR v$[rbp]
	add	rax, 256				; 00000100H
	mov	QWORD PTR v$[rbp], rax

; 107  :         w += 32;

	mov	rax, QWORD PTR w$[rbp]
	add	rax, 256				; 00000100H
	mov	QWORD PTR w$[rbp], rax

; 108  :         --count;

	mov	rax, QWORD PTR count$[rbp]
	dec	rax
	mov	QWORD PTR count$[rbp], rax

; 109  :     }

	jmp	$LN2@BitwiseOr_
$LN3@BitwiseOr_:

; 110  : 
; 111  :     if (or_count & 0x10)

	mov	rax, QWORD PTR or_count$[rbp]
	and	rax, 16
	test	rax, rax
	je	$LN4@BitwiseOr_

; 112  :     {
; 113  :         w[0] = u[0] | v[0];

	mov	eax, 8
	imul	rax, rax, 0
	mov	ecx, 8
	imul	rcx, rcx, 0
	mov	rdx, QWORD PTR u$[rbp]
	mov	r8, QWORD PTR v$[rbp]
	mov	rcx, QWORD PTR [r8+rcx]
	mov	rax, QWORD PTR [rdx+rax]
	or	rax, rcx
	mov	ecx, 8
	imul	rcx, rcx, 0
	mov	rdx, QWORD PTR w$[rbp]
	mov	QWORD PTR [rdx+rcx], rax

; 114  :         w[1] = u[1] | v[1];

	mov	eax, 8
	imul	rax, rax, 1
	mov	ecx, 8
	imul	rcx, rcx, 1
	mov	rdx, QWORD PTR u$[rbp]
	mov	r8, QWORD PTR v$[rbp]
	mov	rcx, QWORD PTR [r8+rcx]
	mov	rax, QWORD PTR [rdx+rax]
	or	rax, rcx
	mov	ecx, 8
	imul	rcx, rcx, 1
	mov	rdx, QWORD PTR w$[rbp]
	mov	QWORD PTR [rdx+rcx], rax

; 115  :         w[2] = u[2] | v[2];

	mov	eax, 8
	imul	rax, rax, 2
	mov	ecx, 8
	imul	rcx, rcx, 2
	mov	rdx, QWORD PTR u$[rbp]
	mov	r8, QWORD PTR v$[rbp]
	mov	rcx, QWORD PTR [r8+rcx]
	mov	rax, QWORD PTR [rdx+rax]
	or	rax, rcx
	mov	ecx, 8
	imul	rcx, rcx, 2
	mov	rdx, QWORD PTR w$[rbp]
	mov	QWORD PTR [rdx+rcx], rax

; 116  :         w[3] = u[3] | v[3];

	mov	eax, 8
	imul	rax, rax, 3
	mov	ecx, 8
	imul	rcx, rcx, 3
	mov	rdx, QWORD PTR u$[rbp]
	mov	r8, QWORD PTR v$[rbp]
	mov	rcx, QWORD PTR [r8+rcx]
	mov	rax, QWORD PTR [rdx+rax]
	or	rax, rcx
	mov	ecx, 8
	imul	rcx, rcx, 3
	mov	rdx, QWORD PTR w$[rbp]
	mov	QWORD PTR [rdx+rcx], rax

; 117  :         w[4] = u[4] | v[4];

	mov	eax, 8
	imul	rax, rax, 4
	mov	ecx, 8
	imul	rcx, rcx, 4
	mov	rdx, QWORD PTR u$[rbp]
	mov	r8, QWORD PTR v$[rbp]
	mov	rcx, QWORD PTR [r8+rcx]
	mov	rax, QWORD PTR [rdx+rax]
	or	rax, rcx
	mov	ecx, 8
	imul	rcx, rcx, 4
	mov	rdx, QWORD PTR w$[rbp]
	mov	QWORD PTR [rdx+rcx], rax

; 118  :         w[5] = u[5] | v[5];

	mov	eax, 8
	imul	rax, rax, 5
	mov	ecx, 8
	imul	rcx, rcx, 5
	mov	rdx, QWORD PTR u$[rbp]
	mov	r8, QWORD PTR v$[rbp]
	mov	rcx, QWORD PTR [r8+rcx]
	mov	rax, QWORD PTR [rdx+rax]
	or	rax, rcx
	mov	ecx, 8
	imul	rcx, rcx, 5
	mov	rdx, QWORD PTR w$[rbp]
	mov	QWORD PTR [rdx+rcx], rax

; 119  :         w[6] = u[6] | v[6];

	mov	eax, 8
	imul	rax, rax, 6
	mov	ecx, 8
	imul	rcx, rcx, 6
	mov	rdx, QWORD PTR u$[rbp]
	mov	r8, QWORD PTR v$[rbp]
	mov	rcx, QWORD PTR [r8+rcx]
	mov	rax, QWORD PTR [rdx+rax]
	or	rax, rcx
	mov	ecx, 8
	imul	rcx, rcx, 6
	mov	rdx, QWORD PTR w$[rbp]
	mov	QWORD PTR [rdx+rcx], rax

; 120  :         w[7] = u[7] | v[7];

	mov	eax, 8
	imul	rax, rax, 7
	mov	ecx, 8
	imul	rcx, rcx, 7
	mov	rdx, QWORD PTR u$[rbp]
	mov	r8, QWORD PTR v$[rbp]
	mov	rcx, QWORD PTR [r8+rcx]
	mov	rax, QWORD PTR [rdx+rax]
	or	rax, rcx
	mov	ecx, 8
	imul	rcx, rcx, 7
	mov	rdx, QWORD PTR w$[rbp]
	mov	QWORD PTR [rdx+rcx], rax

; 121  :         w[8] = u[8] | v[8];

	mov	eax, 8
	imul	rax, rax, 8
	mov	ecx, 8
	imul	rcx, rcx, 8
	mov	rdx, QWORD PTR u$[rbp]
	mov	r8, QWORD PTR v$[rbp]
	mov	rcx, QWORD PTR [r8+rcx]
	mov	rax, QWORD PTR [rdx+rax]
	or	rax, rcx
	mov	ecx, 8
	imul	rcx, rcx, 8
	mov	rdx, QWORD PTR w$[rbp]
	mov	QWORD PTR [rdx+rcx], rax

; 122  :         w[9] = u[9] | v[9];

	mov	eax, 8
	imul	rax, rax, 9
	mov	ecx, 8
	imul	rcx, rcx, 9
	mov	rdx, QWORD PTR u$[rbp]
	mov	r8, QWORD PTR v$[rbp]
	mov	rcx, QWORD PTR [r8+rcx]
	mov	rax, QWORD PTR [rdx+rax]
	or	rax, rcx
	mov	ecx, 8
	imul	rcx, rcx, 9
	mov	rdx, QWORD PTR w$[rbp]
	mov	QWORD PTR [rdx+rcx], rax

; 123  :         w[10] = u[10] | v[10];

	mov	eax, 8
	imul	rax, rax, 10
	mov	ecx, 8
	imul	rcx, rcx, 10
	mov	rdx, QWORD PTR u$[rbp]
	mov	r8, QWORD PTR v$[rbp]
	mov	rcx, QWORD PTR [r8+rcx]
	mov	rax, QWORD PTR [rdx+rax]
	or	rax, rcx
	mov	ecx, 8
	imul	rcx, rcx, 10
	mov	rdx, QWORD PTR w$[rbp]
	mov	QWORD PTR [rdx+rcx], rax

; 124  :         w[11] = u[11] | v[11];

	mov	eax, 8
	imul	rax, rax, 11
	mov	ecx, 8
	imul	rcx, rcx, 11
	mov	rdx, QWORD PTR u$[rbp]
	mov	r8, QWORD PTR v$[rbp]
	mov	rcx, QWORD PTR [r8+rcx]
	mov	rax, QWORD PTR [rdx+rax]
	or	rax, rcx
	mov	ecx, 8
	imul	rcx, rcx, 11
	mov	rdx, QWORD PTR w$[rbp]
	mov	QWORD PTR [rdx+rcx], rax

; 125  :         w[12] = u[12] | v[12];

	mov	eax, 8
	imul	rax, rax, 12
	mov	ecx, 8
	imul	rcx, rcx, 12
	mov	rdx, QWORD PTR u$[rbp]
	mov	r8, QWORD PTR v$[rbp]
	mov	rcx, QWORD PTR [r8+rcx]
	mov	rax, QWORD PTR [rdx+rax]
	or	rax, rcx
	mov	ecx, 8
	imul	rcx, rcx, 12
	mov	rdx, QWORD PTR w$[rbp]
	mov	QWORD PTR [rdx+rcx], rax

; 126  :         w[13] = u[13] | v[13];

	mov	eax, 8
	imul	rax, rax, 13
	mov	ecx, 8
	imul	rcx, rcx, 13
	mov	rdx, QWORD PTR u$[rbp]
	mov	r8, QWORD PTR v$[rbp]
	mov	rcx, QWORD PTR [r8+rcx]
	mov	rax, QWORD PTR [rdx+rax]
	or	rax, rcx
	mov	ecx, 8
	imul	rcx, rcx, 13
	mov	rdx, QWORD PTR w$[rbp]
	mov	QWORD PTR [rdx+rcx], rax

; 127  :         w[14] = u[14] | v[14];

	mov	eax, 8
	imul	rax, rax, 14
	mov	ecx, 8
	imul	rcx, rcx, 14
	mov	rdx, QWORD PTR u$[rbp]
	mov	r8, QWORD PTR v$[rbp]
	mov	rcx, QWORD PTR [r8+rcx]
	mov	rax, QWORD PTR [rdx+rax]
	or	rax, rcx
	mov	ecx, 8
	imul	rcx, rcx, 14
	mov	rdx, QWORD PTR w$[rbp]
	mov	QWORD PTR [rdx+rcx], rax

; 128  :         w[15] = u[15] | v[15];

	mov	eax, 8
	imul	rax, rax, 15
	mov	ecx, 8
	imul	rcx, rcx, 15
	mov	rdx, QWORD PTR u$[rbp]
	mov	r8, QWORD PTR v$[rbp]
	mov	rcx, QWORD PTR [r8+rcx]
	mov	rax, QWORD PTR [rdx+rax]
	or	rax, rcx
	mov	ecx, 8
	imul	rcx, rcx, 15
	mov	rdx, QWORD PTR w$[rbp]
	mov	QWORD PTR [rdx+rcx], rax

; 129  :         u += 16;

	mov	rax, QWORD PTR u$[rbp]
	add	rax, 128				; 00000080H
	mov	QWORD PTR u$[rbp], rax

; 130  :         v += 16;

	mov	rax, QWORD PTR v$[rbp]
	add	rax, 128				; 00000080H
	mov	QWORD PTR v$[rbp], rax

; 131  :         w += 16;

	mov	rax, QWORD PTR w$[rbp]
	add	rax, 128				; 00000080H
	mov	QWORD PTR w$[rbp], rax
$LN4@BitwiseOr_:

; 132  :     }
; 133  : 
; 134  :     if (or_count & 0x8)

	mov	rax, QWORD PTR or_count$[rbp]
	and	rax, 8
	test	rax, rax
	je	$LN5@BitwiseOr_

; 135  :     {
; 136  :         w[0] = u[0] | v[0];

	mov	eax, 8
	imul	rax, rax, 0
	mov	ecx, 8
	imul	rcx, rcx, 0
	mov	rdx, QWORD PTR u$[rbp]
	mov	r8, QWORD PTR v$[rbp]
	mov	rcx, QWORD PTR [r8+rcx]
	mov	rax, QWORD PTR [rdx+rax]
	or	rax, rcx
	mov	ecx, 8
	imul	rcx, rcx, 0
	mov	rdx, QWORD PTR w$[rbp]
	mov	QWORD PTR [rdx+rcx], rax

; 137  :         w[1] = u[1] | v[1];

	mov	eax, 8
	imul	rax, rax, 1
	mov	ecx, 8
	imul	rcx, rcx, 1
	mov	rdx, QWORD PTR u$[rbp]
	mov	r8, QWORD PTR v$[rbp]
	mov	rcx, QWORD PTR [r8+rcx]
	mov	rax, QWORD PTR [rdx+rax]
	or	rax, rcx
	mov	ecx, 8
	imul	rcx, rcx, 1
	mov	rdx, QWORD PTR w$[rbp]
	mov	QWORD PTR [rdx+rcx], rax

; 138  :         w[2] = u[2] | v[2];

	mov	eax, 8
	imul	rax, rax, 2
	mov	ecx, 8
	imul	rcx, rcx, 2
	mov	rdx, QWORD PTR u$[rbp]
	mov	r8, QWORD PTR v$[rbp]
	mov	rcx, QWORD PTR [r8+rcx]
	mov	rax, QWORD PTR [rdx+rax]
	or	rax, rcx
	mov	ecx, 8
	imul	rcx, rcx, 2
	mov	rdx, QWORD PTR w$[rbp]
	mov	QWORD PTR [rdx+rcx], rax

; 139  :         w[3] = u[3] | v[3];

	mov	eax, 8
	imul	rax, rax, 3
	mov	ecx, 8
	imul	rcx, rcx, 3
	mov	rdx, QWORD PTR u$[rbp]
	mov	r8, QWORD PTR v$[rbp]
	mov	rcx, QWORD PTR [r8+rcx]
	mov	rax, QWORD PTR [rdx+rax]
	or	rax, rcx
	mov	ecx, 8
	imul	rcx, rcx, 3
	mov	rdx, QWORD PTR w$[rbp]
	mov	QWORD PTR [rdx+rcx], rax

; 140  :         w[4] = u[4] | v[4];

	mov	eax, 8
	imul	rax, rax, 4
	mov	ecx, 8
	imul	rcx, rcx, 4
	mov	rdx, QWORD PTR u$[rbp]
	mov	r8, QWORD PTR v$[rbp]
	mov	rcx, QWORD PTR [r8+rcx]
	mov	rax, QWORD PTR [rdx+rax]
	or	rax, rcx
	mov	ecx, 8
	imul	rcx, rcx, 4
	mov	rdx, QWORD PTR w$[rbp]
	mov	QWORD PTR [rdx+rcx], rax

; 141  :         w[5] = u[5] | v[5];

	mov	eax, 8
	imul	rax, rax, 5
	mov	ecx, 8
	imul	rcx, rcx, 5
	mov	rdx, QWORD PTR u$[rbp]
	mov	r8, QWORD PTR v$[rbp]
	mov	rcx, QWORD PTR [r8+rcx]
	mov	rax, QWORD PTR [rdx+rax]
	or	rax, rcx
	mov	ecx, 8
	imul	rcx, rcx, 5
	mov	rdx, QWORD PTR w$[rbp]
	mov	QWORD PTR [rdx+rcx], rax

; 142  :         w[6] = u[6] | v[6];

	mov	eax, 8
	imul	rax, rax, 6
	mov	ecx, 8
	imul	rcx, rcx, 6
	mov	rdx, QWORD PTR u$[rbp]
	mov	r8, QWORD PTR v$[rbp]
	mov	rcx, QWORD PTR [r8+rcx]
	mov	rax, QWORD PTR [rdx+rax]
	or	rax, rcx
	mov	ecx, 8
	imul	rcx, rcx, 6
	mov	rdx, QWORD PTR w$[rbp]
	mov	QWORD PTR [rdx+rcx], rax

; 143  :         w[7] = u[7] | v[7];

	mov	eax, 8
	imul	rax, rax, 7
	mov	ecx, 8
	imul	rcx, rcx, 7
	mov	rdx, QWORD PTR u$[rbp]
	mov	r8, QWORD PTR v$[rbp]
	mov	rcx, QWORD PTR [r8+rcx]
	mov	rax, QWORD PTR [rdx+rax]
	or	rax, rcx
	mov	ecx, 8
	imul	rcx, rcx, 7
	mov	rdx, QWORD PTR w$[rbp]
	mov	QWORD PTR [rdx+rcx], rax

; 144  :         u += 8;

	mov	rax, QWORD PTR u$[rbp]
	add	rax, 64					; 00000040H
	mov	QWORD PTR u$[rbp], rax

; 145  :         v += 8;

	mov	rax, QWORD PTR v$[rbp]
	add	rax, 64					; 00000040H
	mov	QWORD PTR v$[rbp], rax

; 146  :         w += 8;

	mov	rax, QWORD PTR w$[rbp]
	add	rax, 64					; 00000040H
	mov	QWORD PTR w$[rbp], rax
$LN5@BitwiseOr_:

; 147  :     }
; 148  : 
; 149  :     if (or_count & 0x4)

	mov	rax, QWORD PTR or_count$[rbp]
	and	rax, 4
	test	rax, rax
	je	$LN6@BitwiseOr_

; 150  :     {
; 151  :         w[0] = u[0] | v[0];

	mov	eax, 8
	imul	rax, rax, 0
	mov	ecx, 8
	imul	rcx, rcx, 0
	mov	rdx, QWORD PTR u$[rbp]
	mov	r8, QWORD PTR v$[rbp]
	mov	rcx, QWORD PTR [r8+rcx]
	mov	rax, QWORD PTR [rdx+rax]
	or	rax, rcx
	mov	ecx, 8
	imul	rcx, rcx, 0
	mov	rdx, QWORD PTR w$[rbp]
	mov	QWORD PTR [rdx+rcx], rax

; 152  :         w[1] = u[1] | v[1];

	mov	eax, 8
	imul	rax, rax, 1
	mov	ecx, 8
	imul	rcx, rcx, 1
	mov	rdx, QWORD PTR u$[rbp]
	mov	r8, QWORD PTR v$[rbp]
	mov	rcx, QWORD PTR [r8+rcx]
	mov	rax, QWORD PTR [rdx+rax]
	or	rax, rcx
	mov	ecx, 8
	imul	rcx, rcx, 1
	mov	rdx, QWORD PTR w$[rbp]
	mov	QWORD PTR [rdx+rcx], rax

; 153  :         w[2] = u[2] | v[2];

	mov	eax, 8
	imul	rax, rax, 2
	mov	ecx, 8
	imul	rcx, rcx, 2
	mov	rdx, QWORD PTR u$[rbp]
	mov	r8, QWORD PTR v$[rbp]
	mov	rcx, QWORD PTR [r8+rcx]
	mov	rax, QWORD PTR [rdx+rax]
	or	rax, rcx
	mov	ecx, 8
	imul	rcx, rcx, 2
	mov	rdx, QWORD PTR w$[rbp]
	mov	QWORD PTR [rdx+rcx], rax

; 154  :         w[3] = u[3] | v[3];

	mov	eax, 8
	imul	rax, rax, 3
	mov	ecx, 8
	imul	rcx, rcx, 3
	mov	rdx, QWORD PTR u$[rbp]
	mov	r8, QWORD PTR v$[rbp]
	mov	rcx, QWORD PTR [r8+rcx]
	mov	rax, QWORD PTR [rdx+rax]
	or	rax, rcx
	mov	ecx, 8
	imul	rcx, rcx, 3
	mov	rdx, QWORD PTR w$[rbp]
	mov	QWORD PTR [rdx+rcx], rax

; 155  :         u += 4;

	mov	rax, QWORD PTR u$[rbp]
	add	rax, 32					; 00000020H
	mov	QWORD PTR u$[rbp], rax

; 156  :         v += 4;

	mov	rax, QWORD PTR v$[rbp]
	add	rax, 32					; 00000020H
	mov	QWORD PTR v$[rbp], rax

; 157  :         w += 4;

	mov	rax, QWORD PTR w$[rbp]
	add	rax, 32					; 00000020H
	mov	QWORD PTR w$[rbp], rax
$LN6@BitwiseOr_:

; 158  :     }
; 159  : 
; 160  :     if (or_count & 0x2)

	mov	rax, QWORD PTR or_count$[rbp]
	and	rax, 2
	test	rax, rax
	je	$LN7@BitwiseOr_

; 161  :     {
; 162  :         w[0] = u[0] | v[0];

	mov	eax, 8
	imul	rax, rax, 0
	mov	ecx, 8
	imul	rcx, rcx, 0
	mov	rdx, QWORD PTR u$[rbp]
	mov	r8, QWORD PTR v$[rbp]
	mov	rcx, QWORD PTR [r8+rcx]
	mov	rax, QWORD PTR [rdx+rax]
	or	rax, rcx
	mov	ecx, 8
	imul	rcx, rcx, 0
	mov	rdx, QWORD PTR w$[rbp]
	mov	QWORD PTR [rdx+rcx], rax

; 163  :         w[1] = u[1] | v[1];

	mov	eax, 8
	imul	rax, rax, 1
	mov	ecx, 8
	imul	rcx, rcx, 1
	mov	rdx, QWORD PTR u$[rbp]
	mov	r8, QWORD PTR v$[rbp]
	mov	rcx, QWORD PTR [r8+rcx]
	mov	rax, QWORD PTR [rdx+rax]
	or	rax, rcx
	mov	ecx, 8
	imul	rcx, rcx, 1
	mov	rdx, QWORD PTR w$[rbp]
	mov	QWORD PTR [rdx+rcx], rax

; 164  :         u += 2;

	mov	rax, QWORD PTR u$[rbp]
	add	rax, 16
	mov	QWORD PTR u$[rbp], rax

; 165  :         v += 2;

	mov	rax, QWORD PTR v$[rbp]
	add	rax, 16
	mov	QWORD PTR v$[rbp], rax

; 166  :         w += 2;

	mov	rax, QWORD PTR w$[rbp]
	add	rax, 16
	mov	QWORD PTR w$[rbp], rax
$LN7@BitwiseOr_:

; 167  :     }
; 168  : 
; 169  :     if (or_count & 0x1)

	mov	rax, QWORD PTR or_count$[rbp]
	and	rax, 1
	test	rax, rax
	je	SHORT $LN8@BitwiseOr_

; 170  :     {
; 171  :         w[0] = u[0] | v[0];

	mov	eax, 8
	imul	rax, rax, 0
	mov	ecx, 8
	imul	rcx, rcx, 0
	mov	rdx, QWORD PTR u$[rbp]
	mov	r8, QWORD PTR v$[rbp]
	mov	rcx, QWORD PTR [r8+rcx]
	mov	rax, QWORD PTR [rdx+rax]
	or	rax, rcx
	mov	ecx, 8
	imul	rcx, rcx, 0
	mov	rdx, QWORD PTR w$[rbp]
	mov	QWORD PTR [rdx+rcx], rax

; 172  :         u += 1;

	mov	rax, QWORD PTR u$[rbp]
	add	rax, 8
	mov	QWORD PTR u$[rbp], rax

; 173  :         v += 1;

	mov	rax, QWORD PTR v$[rbp]
	add	rax, 8
	mov	QWORD PTR v$[rbp], rax

; 174  :         w += 1;

	mov	rax, QWORD PTR w$[rbp]
	add	rax, 8
	mov	QWORD PTR w$[rbp], rax
$LN8@BitwiseOr_:

; 175  :     }
; 176  : 
; 177  :     _COPY_MEMORY_UNIT(w, u, cp_count);

	mov	r8, QWORD PTR cp_count$[rbp]
	mov	rdx, QWORD PTR u$[rbp]
	mov	rcx, QWORD PTR w$[rbp]
	call	_COPY_MEMORY_UNIT

; 178  : }

	lea	rsp, QWORD PTR [rbp+296]
	pop	rdi
	pop	rbp
	ret	0
BitwiseOr_X_X ENDP
_TEXT	ENDS
; Function compile flags: /Odtp /RTCsu /ZI
; File z:\sources\lunor\repos\rougemeilland\palmtree.math.core.uint\palmtree.math.core.uint\pmc_bitwiseor.c
;	COMDAT BitwiseOr_X_2W
_TEXT	SEGMENT
tv129 = 192
u$ = 240
u_count$ = 248
v_hi$ = 256
v_lo$ = 264
w$ = 272
BitwiseOr_X_2W PROC					; COMDAT

; 45   : {

	mov	QWORD PTR [rsp+32], r9
	mov	QWORD PTR [rsp+24], r8
	mov	QWORD PTR [rsp+16], rdx
	mov	QWORD PTR [rsp+8], rcx
	push	rbp
	push	rdi
	sub	rsp, 248				; 000000f8H
	lea	rbp, QWORD PTR [rsp+32]
	mov	rdi, rsp
	mov	ecx, 62					; 0000003eH
	mov	eax, -858993460				; ccccccccH
	rep stosd
	mov	rcx, QWORD PTR [rsp+280]
	lea	rcx, OFFSET FLAT:__3F1A8F43_pmc_bitwiseor@c
	call	__CheckForDebuggerJustMyCode

; 46   :     if (u_count == 1)

	cmp	QWORD PTR u_count$[rbp], 1
	jne	SHORT $LN2@BitwiseOr_

; 47   :     {
; 48   :         w[0] = u[0] | v_lo;

	mov	eax, 8
	imul	rax, rax, 0
	mov	rcx, QWORD PTR u$[rbp]
	mov	rdx, QWORD PTR v_lo$[rbp]
	mov	rax, QWORD PTR [rcx+rax]
	or	rax, rdx
	mov	ecx, 8
	imul	rcx, rcx, 0
	mov	rdx, QWORD PTR w$[rbp]
	mov	QWORD PTR [rdx+rcx], rax

; 49   :         w[1] = v_hi;

	mov	eax, 8
	imul	rax, rax, 1
	mov	rcx, QWORD PTR w$[rbp]
	mov	rdx, QWORD PTR v_hi$[rbp]
	mov	QWORD PTR [rcx+rax], rdx

; 50   :     }

	jmp	$LN3@BitwiseOr_
$LN2@BitwiseOr_:

; 51   :     else if (u_count == 2)

	cmp	QWORD PTR u_count$[rbp], 2
	jne	SHORT $LN4@BitwiseOr_

; 52   :     {
; 53   :         w[0] = u[0] | v_lo;

	mov	eax, 8
	imul	rax, rax, 0
	mov	rcx, QWORD PTR u$[rbp]
	mov	rdx, QWORD PTR v_lo$[rbp]
	mov	rax, QWORD PTR [rcx+rax]
	or	rax, rdx
	mov	ecx, 8
	imul	rcx, rcx, 0
	mov	rdx, QWORD PTR w$[rbp]
	mov	QWORD PTR [rdx+rcx], rax

; 54   :         w[1] = u[1] | v_hi;

	mov	eax, 8
	imul	rax, rax, 1
	mov	rcx, QWORD PTR u$[rbp]
	mov	rdx, QWORD PTR v_hi$[rbp]
	mov	rax, QWORD PTR [rcx+rax]
	or	rax, rdx
	mov	ecx, 8
	imul	rcx, rcx, 1
	mov	rdx, QWORD PTR w$[rbp]
	mov	QWORD PTR [rdx+rcx], rax

; 55   :     }

	jmp	$LN5@BitwiseOr_
$LN4@BitwiseOr_:

; 56   :     else
; 57   :     {
; 58   :         w[0] = u[0] | v_lo;

	mov	eax, 8
	imul	rax, rax, 0
	mov	rcx, QWORD PTR u$[rbp]
	mov	rdx, QWORD PTR v_lo$[rbp]
	mov	rax, QWORD PTR [rcx+rax]
	or	rax, rdx
	mov	ecx, 8
	imul	rcx, rcx, 0
	mov	rdx, QWORD PTR w$[rbp]
	mov	QWORD PTR [rdx+rcx], rax

; 59   :         w[1] = u[1] | v_hi;

	mov	eax, 8
	imul	rax, rax, 1
	mov	rcx, QWORD PTR u$[rbp]
	mov	rdx, QWORD PTR v_hi$[rbp]
	mov	rax, QWORD PTR [rcx+rax]
	or	rax, rdx
	mov	ecx, 8
	imul	rcx, rcx, 1
	mov	rdx, QWORD PTR w$[rbp]
	mov	QWORD PTR [rdx+rcx], rax

; 60   :         _COPY_MEMORY_UNIT(w + 2, u + 2, u_count - 2);

	mov	rax, QWORD PTR u_count$[rbp]
	sub	rax, 2
	mov	rcx, QWORD PTR u$[rbp]
	add	rcx, 16
	mov	rdx, QWORD PTR w$[rbp]
	add	rdx, 16
	mov	QWORD PTR tv129[rbp], rdx
	mov	r8, rax
	mov	rdx, rcx
	mov	rax, QWORD PTR tv129[rbp]
	mov	rcx, rax
	call	_COPY_MEMORY_UNIT
$LN5@BitwiseOr_:
$LN3@BitwiseOr_:

; 61   :     }
; 62   : }

	lea	rsp, QWORD PTR [rbp+216]
	pop	rdi
	pop	rbp
	ret	0
BitwiseOr_X_2W ENDP
_TEXT	ENDS
; Function compile flags: /Odtp /RTCsu /ZI
; File z:\sources\lunor\repos\rougemeilland\palmtree.math.core.uint\palmtree.math.core.uint\pmc_bitwiseor.c
;	COMDAT BitwiseOr_X_1W
_TEXT	SEGMENT
tv79 = 192
u$ = 240
u_count$ = 248
v$ = 256
w$ = 264
BitwiseOr_X_1W PROC					; COMDAT

; 33   : {

	mov	QWORD PTR [rsp+32], r9
	mov	QWORD PTR [rsp+24], r8
	mov	QWORD PTR [rsp+16], rdx
	mov	QWORD PTR [rsp+8], rcx
	push	rbp
	push	rdi
	sub	rsp, 248				; 000000f8H
	lea	rbp, QWORD PTR [rsp+32]
	mov	rdi, rsp
	mov	ecx, 62					; 0000003eH
	mov	eax, -858993460				; ccccccccH
	rep stosd
	mov	rcx, QWORD PTR [rsp+280]
	lea	rcx, OFFSET FLAT:__3F1A8F43_pmc_bitwiseor@c
	call	__CheckForDebuggerJustMyCode

; 34   :     if (u_count == 1)

	cmp	QWORD PTR u_count$[rbp], 1
	jne	SHORT $LN2@BitwiseOr_

; 35   :         w[0] = u[0] | v;

	mov	eax, 8
	imul	rax, rax, 0
	mov	rcx, QWORD PTR u$[rbp]
	mov	rdx, QWORD PTR v$[rbp]
	mov	rax, QWORD PTR [rcx+rax]
	or	rax, rdx
	mov	ecx, 8
	imul	rcx, rcx, 0
	mov	rdx, QWORD PTR w$[rbp]
	mov	QWORD PTR [rdx+rcx], rax
	jmp	SHORT $LN3@BitwiseOr_
$LN2@BitwiseOr_:

; 36   :     else
; 37   :     {
; 38   :         w[0] = u[0] | v;

	mov	eax, 8
	imul	rax, rax, 0
	mov	rcx, QWORD PTR u$[rbp]
	mov	rdx, QWORD PTR v$[rbp]
	mov	rax, QWORD PTR [rcx+rax]
	or	rax, rdx
	mov	ecx, 8
	imul	rcx, rcx, 0
	mov	rdx, QWORD PTR w$[rbp]
	mov	QWORD PTR [rdx+rcx], rax

; 39   :         _COPY_MEMORY_UNIT(w + 1, u + 1, u_count - 1);

	mov	rax, QWORD PTR u_count$[rbp]
	dec	rax
	mov	rcx, QWORD PTR u$[rbp]
	add	rcx, 8
	mov	rdx, QWORD PTR w$[rbp]
	add	rdx, 8
	mov	QWORD PTR tv79[rbp], rdx
	mov	r8, rax
	mov	rdx, rcx
	mov	rax, QWORD PTR tv79[rbp]
	mov	rcx, rax
	call	_COPY_MEMORY_UNIT
$LN3@BitwiseOr_:

; 40   :     }
; 41   : }

	lea	rsp, QWORD PTR [rbp+216]
	pop	rdi
	pop	rbp
	ret	0
BitwiseOr_X_1W ENDP
_TEXT	ENDS
; Function compile flags: /Odtp /RTCsu /ZI
; File z:\sources\lunor\repos\rougemeilland\palmtree.math.core.uint\palmtree.math.core.uint\pmc_inline_func.h
;	COMDAT _LZCNT_ALT_UNIT
_TEXT	SEGMENT
pos$ = 4
x$ = 256
_LZCNT_ALT_UNIT PROC					; COMDAT

; 623  :     {

	mov	QWORD PTR [rsp+8], rcx
	push	rbp
	push	rdi
	sub	rsp, 264				; 00000108H
	lea	rbp, QWORD PTR [rsp+32]
	mov	rdi, rsp
	mov	ecx, 66					; 00000042H
	mov	eax, -858993460				; ccccccccH
	rep stosd
	mov	rcx, QWORD PTR [rsp+296]
	lea	rcx, OFFSET FLAT:__8CA3E54E_pmc_inline_func@h
	call	__CheckForDebuggerJustMyCode

; 624  :         if (x == 0)

	cmp	QWORD PTR x$[rbp], 0
	jne	SHORT $LN2@LZCNT_ALT_

; 625  :             return (sizeof(x) * 8);

	mov	eax, 64					; 00000040H
	jmp	SHORT $LN1@LZCNT_ALT_
$LN2@LZCNT_ALT_:

; 626  : #ifdef _M_IX86
; 627  :         _UINT32_T pos;
; 628  : #ifdef _MSC_VER
; 629  :         _BitScanReverse(&pos, x);
; 630  : #elif defined(__GNUC__)
; 631  :         __asm__("bsrl %1, %0" : "=r"(pos) : "rm"(x));
; 632  : #else
; 633  : #error unknown compiler
; 634  : #endif
; 635  : #elif defined(_M_X64)
; 636  : #ifdef _MSC_VER
; 637  :         _UINT32_T pos;
; 638  :         _BitScanReverse64(&pos, x);

	mov	rax, QWORD PTR x$[rbp]
	bsr	rax, rax
	mov	DWORD PTR pos$[rbp], eax

; 639  : #elif defined(__GNUC__)
; 640  :         _UINT64_T pos;
; 641  :         __asm__("bsrq %1, %0" : "=r"(pos) : "rm"(x));
; 642  : #else
; 643  : #error unknown compiler
; 644  : #endif
; 645  : #else
; 646  : #error unknown platform
; 647  : #endif
; 648  :         return (sizeof(x) * 8 - 1 - pos);

	mov	eax, DWORD PTR pos$[rbp]
	mov	ecx, 63					; 0000003fH
	sub	rcx, rax
	mov	rax, rcx
$LN1@LZCNT_ALT_:

; 649  :     }

	mov	rdi, rax
	lea	rcx, QWORD PTR [rbp-32]
	lea	rdx, OFFSET FLAT:_LZCNT_ALT_UNIT$rtcFrameData
	call	_RTC_CheckStackVars
	mov	rax, rdi
	lea	rsp, QWORD PTR [rbp+232]
	pop	rdi
	pop	rbp
	ret	0
_LZCNT_ALT_UNIT ENDP
_TEXT	ENDS
; Function compile flags: /Odtp /RTCsu /ZI
; File z:\sources\lunor\repos\rougemeilland\palmtree.math.core.uint\palmtree.math.core.uint\pmc_inline_func.h
;	COMDAT _LZCNT_ALT_32
_TEXT	SEGMENT
pos$ = 4
x$ = 256
_LZCNT_ALT_32 PROC					; COMDAT

; 590  :     {

	mov	DWORD PTR [rsp+8], ecx
	push	rbp
	push	rdi
	sub	rsp, 264				; 00000108H
	lea	rbp, QWORD PTR [rsp+32]
	mov	rdi, rsp
	mov	ecx, 66					; 00000042H
	mov	eax, -858993460				; ccccccccH
	rep stosd
	mov	ecx, DWORD PTR [rsp+296]
	lea	rcx, OFFSET FLAT:__8CA3E54E_pmc_inline_func@h
	call	__CheckForDebuggerJustMyCode

; 591  :         if (x == 0)

	cmp	DWORD PTR x$[rbp], 0
	jne	SHORT $LN2@LZCNT_ALT_

; 592  :             return (sizeof(x) * 8);

	mov	eax, 32					; 00000020H
	jmp	SHORT $LN1@LZCNT_ALT_
$LN2@LZCNT_ALT_:

; 593  :         _UINT32_T pos;
; 594  : #ifdef _MSC_VER
; 595  :         _BitScanReverse(&pos, x);

	mov	eax, DWORD PTR x$[rbp]
	bsr	eax, eax
	mov	DWORD PTR pos$[rbp], eax

; 596  : #elif defined(__GNUC__)
; 597  :         __asm__("bsrl %1, %0" : "=r"(pos) : "rm"(x));
; 598  : #else
; 599  : #error unknown compiler
; 600  : #endif
; 601  :         return (sizeof(x) * 8 - 1 - pos);

	mov	eax, DWORD PTR pos$[rbp]
	mov	ecx, 31
	sub	rcx, rax
	mov	rax, rcx
$LN1@LZCNT_ALT_:

; 602  :     }

	mov	rdi, rax
	lea	rcx, QWORD PTR [rbp-32]
	lea	rdx, OFFSET FLAT:_LZCNT_ALT_32$rtcFrameData
	call	_RTC_CheckStackVars
	mov	rax, rdi
	lea	rsp, QWORD PTR [rbp+232]
	pop	rdi
	pop	rbp
	ret	0
_LZCNT_ALT_32 ENDP
_TEXT	ENDS
; Function compile flags: /Odtp /RTCsu /ZI
; File z:\sources\lunor\repos\rougemeilland\palmtree.math.core.uint\palmtree.math.core.uint\pmc_inline_func.h
;	COMDAT _MAXIMUM_UNIT
_TEXT	SEGMENT
tv65 = 192
x$ = 240
y$ = 248
_MAXIMUM_UNIT PROC					; COMDAT

; 197  :     {

	mov	QWORD PTR [rsp+16], rdx
	mov	QWORD PTR [rsp+8], rcx
	push	rbp
	push	rdi
	sub	rsp, 248				; 000000f8H
	lea	rbp, QWORD PTR [rsp+32]
	mov	rdi, rsp
	mov	ecx, 62					; 0000003eH
	mov	eax, -858993460				; ccccccccH
	rep stosd
	mov	rcx, QWORD PTR [rsp+280]
	lea	rcx, OFFSET FLAT:__8CA3E54E_pmc_inline_func@h
	call	__CheckForDebuggerJustMyCode

; 198  :         return (x >= y ? x : y);

	mov	rax, QWORD PTR y$[rbp]
	cmp	QWORD PTR x$[rbp], rax
	jb	SHORT $LN3@MAXIMUM_UN
	mov	rax, QWORD PTR x$[rbp]
	mov	QWORD PTR tv65[rbp], rax
	jmp	SHORT $LN4@MAXIMUM_UN
$LN3@MAXIMUM_UN:
	mov	rax, QWORD PTR y$[rbp]
	mov	QWORD PTR tv65[rbp], rax
$LN4@MAXIMUM_UN:
	mov	rax, QWORD PTR tv65[rbp]

; 199  :     }

	lea	rsp, QWORD PTR [rbp+216]
	pop	rdi
	pop	rbp
	ret	0
_MAXIMUM_UNIT ENDP
_TEXT	ENDS
; Function compile flags: /Odtp /RTCsu /ZI
; File z:\sources\lunor\repos\rougemeilland\palmtree.math.core.uint\palmtree.math.core.uint\pmc_inline_func.h
;	COMDAT _FROMDWORDTOWORD
_TEXT	SEGMENT
value$ = 224
result_high$ = 232
_FROMDWORDTOWORD PROC					; COMDAT

; 176  :     {

	mov	QWORD PTR [rsp+16], rdx
	mov	QWORD PTR [rsp+8], rcx
	push	rbp
	push	rdi
	sub	rsp, 232				; 000000e8H
	lea	rbp, QWORD PTR [rsp+32]
	mov	rdi, rsp
	mov	ecx, 58					; 0000003aH
	mov	eax, -858993460				; ccccccccH
	rep stosd
	mov	rcx, QWORD PTR [rsp+264]
	lea	rcx, OFFSET FLAT:__8CA3E54E_pmc_inline_func@h
	call	__CheckForDebuggerJustMyCode

; 177  :         *result_high = (_UINT32_T)(value >> 32);

	mov	rax, QWORD PTR value$[rbp]
	shr	rax, 32					; 00000020H
	mov	rcx, QWORD PTR result_high$[rbp]
	mov	DWORD PTR [rcx], eax

; 178  :         return ((_UINT32_T)value);

	mov	eax, DWORD PTR value$[rbp]

; 179  :     }

	lea	rsp, QWORD PTR [rbp+200]
	pop	rdi
	pop	rbp
	ret	0
_FROMDWORDTOWORD ENDP
_TEXT	ENDS
; Function compile flags: /Odtp /RTCsu /ZI
; File z:\sources\lunor\repos\rougemeilland\palmtree.math.core.uint\palmtree.math.core.uint\pmc_inline_func.h
;	COMDAT _COPY_MEMORY_UNIT
_TEXT	SEGMENT
d$ = 224
s$ = 232
count$ = 240
_COPY_MEMORY_UNIT PROC					; COMDAT

; 60   :     {

	mov	QWORD PTR [rsp+24], r8
	mov	QWORD PTR [rsp+16], rdx
	mov	QWORD PTR [rsp+8], rcx
	push	rbp
	push	rsi
	push	rdi
	sub	rsp, 224				; 000000e0H
	lea	rbp, QWORD PTR [rsp+32]
	mov	rdi, rsp
	mov	ecx, 56					; 00000038H
	mov	eax, -858993460				; ccccccccH
	rep stosd
	mov	rcx, QWORD PTR [rsp+264]
	lea	rcx, OFFSET FLAT:__8CA3E54E_pmc_inline_func@h
	call	__CheckForDebuggerJustMyCode

; 61   : #ifdef _M_IX86
; 62   :         __movsd((unsigned long *)d, (unsigned long *)s, (unsigned long)count);
; 63   : #elif defined(_M_X64)
; 64   :         __movsq(d, s, count);

	mov	rdi, QWORD PTR d$[rbp]
	mov	rsi, QWORD PTR s$[rbp]
	mov	rcx, QWORD PTR count$[rbp]
	rep movsq

; 65   : #else
; 66   : #error unknown platform
; 67   : #endif
; 68   :     }

	lea	rsp, QWORD PTR [rbp+192]
	pop	rdi
	pop	rsi
	pop	rbp
	ret	0
_COPY_MEMORY_UNIT ENDP
_TEXT	ENDS
; Function compile flags: /Odtp /RTCsu /ZI
; File z:\sources\lunor\repos\rougemeilland\palmtree.math.core.uint\palmtree.math.core.uint\pmc_bitwiseor.c
;	COMDAT PMC_BitwiseOr_X_X
_TEXT	SEGMENT
nu$ = 8
nv$ = 40
result$ = 68
nw$ = 104
t$5 = 136
u_bit_count$6 = 168
v_bit_count$7 = 200
w_bit_count$8 = 232
nw_light_check_code$9 = 264
u$ = 512
v$ = 520
w$ = 528
PMC_BitwiseOr_X_X PROC					; COMDAT

; 392  : {

$LN18:
	mov	QWORD PTR [rsp+24], r8
	mov	QWORD PTR [rsp+16], rdx
	mov	QWORD PTR [rsp+8], rcx
	push	rbp
	push	rdi
	sub	rsp, 536				; 00000218H
	lea	rbp, QWORD PTR [rsp+48]
	mov	rdi, rsp
	mov	ecx, 134				; 00000086H
	mov	eax, -858993460				; ccccccccH
	rep stosd
	mov	rcx, QWORD PTR [rsp+568]
	lea	rcx, OFFSET FLAT:__3F1A8F43_pmc_bitwiseor@c
	call	__CheckForDebuggerJustMyCode

; 393  :     if (u == NULL)

	cmp	QWORD PTR u$[rbp], 0
	jne	SHORT $LN2@PMC_Bitwis

; 394  :         return (PMC_STATUS_ARGUMENT_ERROR);

	mov	eax, -1
	jmp	$LN1@PMC_Bitwis
$LN2@PMC_Bitwis:

; 395  :     if (v == NULL)

	cmp	QWORD PTR v$[rbp], 0
	jne	SHORT $LN3@PMC_Bitwis

; 396  :         return (PMC_STATUS_ARGUMENT_ERROR);

	mov	eax, -1
	jmp	$LN1@PMC_Bitwis
$LN3@PMC_Bitwis:

; 397  :     if (w == NULL)

	cmp	QWORD PTR w$[rbp], 0
	jne	SHORT $LN4@PMC_Bitwis

; 398  :         return (PMC_STATUS_ARGUMENT_ERROR);

	mov	eax, -1
	jmp	$LN1@PMC_Bitwis
$LN4@PMC_Bitwis:

; 399  :     NUMBER_HEADER* nu = (NUMBER_HEADER*)u;

	mov	rax, QWORD PTR u$[rbp]
	mov	QWORD PTR nu$[rbp], rax

; 400  :     NUMBER_HEADER* nv = (NUMBER_HEADER*)v;

	mov	rax, QWORD PTR v$[rbp]
	mov	QWORD PTR nv$[rbp], rax

; 401  :     PMC_STATUS_CODE result;
; 402  :     if ((result = CheckNumber(nu)) != PMC_STATUS_OK)

	mov	rcx, QWORD PTR nu$[rbp]
	call	CheckNumber
	mov	DWORD PTR result$[rbp], eax
	cmp	DWORD PTR result$[rbp], 0
	je	SHORT $LN5@PMC_Bitwis

; 403  :         return (result);

	mov	eax, DWORD PTR result$[rbp]
	jmp	$LN1@PMC_Bitwis
$LN5@PMC_Bitwis:

; 404  :     if ((result = CheckNumber(nv)) != PMC_STATUS_OK)

	mov	rcx, QWORD PTR nv$[rbp]
	call	CheckNumber
	mov	DWORD PTR result$[rbp], eax
	cmp	DWORD PTR result$[rbp], 0
	je	SHORT $LN6@PMC_Bitwis

; 405  :         return (result);

	mov	eax, DWORD PTR result$[rbp]
	jmp	$LN1@PMC_Bitwis
$LN6@PMC_Bitwis:

; 406  :     NUMBER_HEADER* nw;
; 407  :     if (nu->IS_ZERO)

	mov	rax, QWORD PTR nu$[rbp]
	mov	eax, DWORD PTR [rax+40]
	shr	eax, 1
	and	eax, 1
	test	eax, eax
	je	SHORT $LN7@PMC_Bitwis

; 408  :     {
; 409  :         if ((result = DuplicateNumber(nv, &nw)) != PMC_STATUS_OK)

	lea	rdx, QWORD PTR nw$[rbp]
	mov	rcx, QWORD PTR nv$[rbp]
	call	DuplicateNumber
	mov	DWORD PTR result$[rbp], eax
	cmp	DWORD PTR result$[rbp], 0
	je	SHORT $LN9@PMC_Bitwis

; 410  :             return (result);

	mov	eax, DWORD PTR result$[rbp]
	jmp	$LN1@PMC_Bitwis
$LN9@PMC_Bitwis:

; 411  :     }

	jmp	$LN8@PMC_Bitwis
$LN7@PMC_Bitwis:

; 412  :     else if (nv->IS_ZERO)

	mov	rax, QWORD PTR nv$[rbp]
	mov	eax, DWORD PTR [rax+40]
	shr	eax, 1
	and	eax, 1
	test	eax, eax
	je	SHORT $LN10@PMC_Bitwis

; 413  :     {
; 414  :         if ((result = DuplicateNumber(nu, &nw)) != PMC_STATUS_OK)

	lea	rdx, QWORD PTR nw$[rbp]
	mov	rcx, QWORD PTR nu$[rbp]
	call	DuplicateNumber
	mov	DWORD PTR result$[rbp], eax
	cmp	DWORD PTR result$[rbp], 0
	je	SHORT $LN12@PMC_Bitwis

; 415  :             return (result);

	mov	eax, DWORD PTR result$[rbp]
	jmp	$LN1@PMC_Bitwis
$LN12@PMC_Bitwis:

; 416  :     }

	jmp	$LN11@PMC_Bitwis
$LN10@PMC_Bitwis:

; 417  :     else
; 418  :     {
; 419  :         if (nu->UNIT_WORD_COUNT < nv->UNIT_WORD_COUNT)

	mov	rax, QWORD PTR nu$[rbp]
	mov	rcx, QWORD PTR nv$[rbp]
	mov	rcx, QWORD PTR [rcx+8]
	cmp	QWORD PTR [rax+8], rcx
	jae	SHORT $LN13@PMC_Bitwis

; 420  :         {
; 421  :             NUMBER_HEADER* t = nu;

	mov	rax, QWORD PTR nu$[rbp]
	mov	QWORD PTR t$5[rbp], rax

; 422  :             nu = nv;

	mov	rax, QWORD PTR nv$[rbp]
	mov	QWORD PTR nu$[rbp], rax

; 423  :             nv = t;

	mov	rax, QWORD PTR t$5[rbp]
	mov	QWORD PTR nv$[rbp], rax
$LN13@PMC_Bitwis:

; 424  :         }
; 425  :         __UNIT_TYPE u_bit_count = nu->UNIT_BIT_COUNT;

	mov	rax, QWORD PTR nu$[rbp]
	mov	rax, QWORD PTR [rax+16]
	mov	QWORD PTR u_bit_count$6[rbp], rax

; 426  :         __UNIT_TYPE v_bit_count = nv->UNIT_BIT_COUNT;

	mov	rax, QWORD PTR nv$[rbp]
	mov	rax, QWORD PTR [rax+16]
	mov	QWORD PTR v_bit_count$7[rbp], rax

; 427  :         __UNIT_TYPE w_bit_count = _MAXIMUM_UNIT(u_bit_count, v_bit_count);

	mov	rdx, QWORD PTR v_bit_count$7[rbp]
	mov	rcx, QWORD PTR u_bit_count$6[rbp]
	call	_MAXIMUM_UNIT
	mov	QWORD PTR w_bit_count$8[rbp], rax

; 428  :         __UNIT_TYPE nw_light_check_code;
; 429  :         if ((result = AllocateNumber(&nw, w_bit_count, &nw_light_check_code)) != PMC_STATUS_OK)

	lea	r8, QWORD PTR nw_light_check_code$9[rbp]
	mov	rdx, QWORD PTR w_bit_count$8[rbp]
	lea	rcx, QWORD PTR nw$[rbp]
	call	AllocateNumber
	mov	DWORD PTR result$[rbp], eax
	cmp	DWORD PTR result$[rbp], 0
	je	SHORT $LN14@PMC_Bitwis

; 430  :             return (result);

	mov	eax, DWORD PTR result$[rbp]
	jmp	$LN1@PMC_Bitwis
$LN14@PMC_Bitwis:

; 431  :         BitwiseOr_X_X(nu->BLOCK, nu->UNIT_WORD_COUNT, nv->BLOCK, nv->UNIT_WORD_COUNT, nw->BLOCK);

	mov	rax, QWORD PTR nw$[rbp]
	mov	rax, QWORD PTR [rax+56]
	mov	QWORD PTR [rsp+32], rax
	mov	rax, QWORD PTR nv$[rbp]
	mov	r9, QWORD PTR [rax+8]
	mov	rax, QWORD PTR nv$[rbp]
	mov	r8, QWORD PTR [rax+56]
	mov	rax, QWORD PTR nu$[rbp]
	mov	rdx, QWORD PTR [rax+8]
	mov	rax, QWORD PTR nu$[rbp]
	mov	rcx, QWORD PTR [rax+56]
	call	BitwiseOr_X_X

; 432  :         if ((result = CheckBlockLight(nw->BLOCK, nw_light_check_code)) != PMC_STATUS_OK)

	mov	rdx, QWORD PTR nw_light_check_code$9[rbp]
	mov	rax, QWORD PTR nw$[rbp]
	mov	rcx, QWORD PTR [rax+56]
	call	CheckBlockLight
	mov	DWORD PTR result$[rbp], eax
	cmp	DWORD PTR result$[rbp], 0
	je	SHORT $LN15@PMC_Bitwis

; 433  :             return (result);

	mov	eax, DWORD PTR result$[rbp]
	jmp	SHORT $LN1@PMC_Bitwis
$LN15@PMC_Bitwis:

; 434  :         CommitNumber(nw);

	mov	rcx, QWORD PTR nw$[rbp]
	call	CommitNumber
$LN11@PMC_Bitwis:
$LN8@PMC_Bitwis:

; 435  :     }
; 436  :     *w = (PMC_HANDLE_UINT)nw;

	mov	rax, QWORD PTR w$[rbp]
	mov	rcx, QWORD PTR nw$[rbp]
	mov	QWORD PTR [rax], rcx

; 437  : #ifdef _DEBUG
; 438  :     if ((result = CheckNumber((NUMBER_HEADER*)*w)) != PMC_STATUS_OK)

	mov	rax, QWORD PTR w$[rbp]
	mov	rcx, QWORD PTR [rax]
	call	CheckNumber
	mov	DWORD PTR result$[rbp], eax
	cmp	DWORD PTR result$[rbp], 0
	je	SHORT $LN16@PMC_Bitwis

; 439  :         return (result);

	mov	eax, DWORD PTR result$[rbp]
	jmp	SHORT $LN1@PMC_Bitwis
$LN16@PMC_Bitwis:

; 440  : #endif
; 441  :     return (PMC_STATUS_OK);

	xor	eax, eax
$LN1@PMC_Bitwis:

; 442  : }

	mov	rdi, rax
	lea	rcx, QWORD PTR [rbp-48]
	lea	rdx, OFFSET FLAT:PMC_BitwiseOr_X_X$rtcFrameData
	call	_RTC_CheckStackVars
	mov	rax, rdi
	lea	rsp, QWORD PTR [rbp+488]
	pop	rdi
	pop	rbp
	ret	0
PMC_BitwiseOr_X_X ENDP
_TEXT	ENDS
; Function compile flags: /Odtp /RTCsu /ZI
; File z:\sources\lunor\repos\rougemeilland\palmtree.math.core.uint\palmtree.math.core.uint\pmc_bitwiseor.c
;	COMDAT PMC_BitwiseOr_X_L
_TEXT	SEGMENT
result$ = 4
u$ = 256
v$ = 264
w$ = 272
PMC_BitwiseOr_X_L PROC					; COMDAT

; 369  : {

$LN9:
	mov	QWORD PTR [rsp+24], r8
	mov	QWORD PTR [rsp+16], rdx
	mov	QWORD PTR [rsp+8], rcx
	push	rbp
	push	rdi
	sub	rsp, 264				; 00000108H
	lea	rbp, QWORD PTR [rsp+32]
	mov	rdi, rsp
	mov	ecx, 66					; 00000042H
	mov	eax, -858993460				; ccccccccH
	rep stosd
	mov	rcx, QWORD PTR [rsp+296]
	lea	rcx, OFFSET FLAT:__3F1A8F43_pmc_bitwiseor@c
	call	__CheckForDebuggerJustMyCode

; 370  :     if (__UNIT_TYPE_BIT_COUNT * 2 < sizeof(v) * 8)

	xor	eax, eax
	test	eax, eax
	je	SHORT $LN2@PMC_Bitwis

; 371  :     {
; 372  :         // _UINT64_T が 2 ワードで表現しきれない処理系には対応しない
; 373  :         return (PMC_STATUS_INTERNAL_ERROR);

	mov	eax, -256				; ffffffffffffff00H
	jmp	$LN1@PMC_Bitwis
$LN2@PMC_Bitwis:

; 374  :     }
; 375  :     if (u == NULL)

	cmp	QWORD PTR u$[rbp], 0
	jne	SHORT $LN3@PMC_Bitwis

; 376  :         return (PMC_STATUS_ARGUMENT_ERROR);

	mov	eax, -1
	jmp	SHORT $LN1@PMC_Bitwis
$LN3@PMC_Bitwis:

; 377  :     if (w == NULL)

	cmp	QWORD PTR w$[rbp], 0
	jne	SHORT $LN4@PMC_Bitwis

; 378  :         return (PMC_STATUS_ARGUMENT_ERROR);

	mov	eax, -1
	jmp	SHORT $LN1@PMC_Bitwis
$LN4@PMC_Bitwis:

; 379  :     PMC_STATUS_CODE result;
; 380  :     if ((result = CheckNumber((NUMBER_HEADER*)u)) != PMC_STATUS_OK)

	mov	rcx, QWORD PTR u$[rbp]
	call	CheckNumber
	mov	DWORD PTR result$[rbp], eax
	cmp	DWORD PTR result$[rbp], 0
	je	SHORT $LN5@PMC_Bitwis

; 381  :         return (result);

	mov	eax, DWORD PTR result$[rbp]
	jmp	SHORT $LN1@PMC_Bitwis
$LN5@PMC_Bitwis:

; 382  :     if ((result = PMC_BitwiseOr_X_L_Imp((NUMBER_HEADER*)u, v, (NUMBER_HEADER**)w)) != PMC_STATUS_OK)

	mov	r8, QWORD PTR w$[rbp]
	mov	rdx, QWORD PTR v$[rbp]
	mov	rcx, QWORD PTR u$[rbp]
	call	PMC_BitwiseOr_X_L_Imp
	mov	DWORD PTR result$[rbp], eax
	cmp	DWORD PTR result$[rbp], 0
	je	SHORT $LN6@PMC_Bitwis

; 383  :         return (result);

	mov	eax, DWORD PTR result$[rbp]
	jmp	SHORT $LN1@PMC_Bitwis
$LN6@PMC_Bitwis:

; 384  : #ifdef _DEBUG
; 385  :     if ((result = CheckNumber((NUMBER_HEADER*)*w)) != PMC_STATUS_OK)

	mov	rax, QWORD PTR w$[rbp]
	mov	rcx, QWORD PTR [rax]
	call	CheckNumber
	mov	DWORD PTR result$[rbp], eax
	cmp	DWORD PTR result$[rbp], 0
	je	SHORT $LN7@PMC_Bitwis

; 386  :         return (result);

	mov	eax, DWORD PTR result$[rbp]
	jmp	SHORT $LN1@PMC_Bitwis
$LN7@PMC_Bitwis:

; 387  : #endif
; 388  :     return (PMC_STATUS_OK);

	xor	eax, eax
$LN1@PMC_Bitwis:

; 389  : }

	lea	rsp, QWORD PTR [rbp+232]
	pop	rdi
	pop	rbp
	ret	0
PMC_BitwiseOr_X_L ENDP
_TEXT	ENDS
; Function compile flags: /Odtp /RTCsu /ZI
; File z:\sources\lunor\repos\rougemeilland\palmtree.math.core.uint\palmtree.math.core.uint\pmc_bitwiseor.c
;	COMDAT PMC_BitwiseOr_X_I
_TEXT	SEGMENT
result$ = 4
u$ = 256
v$ = 264
w$ = 272
PMC_BitwiseOr_X_I PROC					; COMDAT

; 245  : {

$LN9:
	mov	QWORD PTR [rsp+24], r8
	mov	DWORD PTR [rsp+16], edx
	mov	QWORD PTR [rsp+8], rcx
	push	rbp
	push	rdi
	sub	rsp, 264				; 00000108H
	lea	rbp, QWORD PTR [rsp+32]
	mov	rdi, rsp
	mov	ecx, 66					; 00000042H
	mov	eax, -858993460				; ccccccccH
	rep stosd
	mov	rcx, QWORD PTR [rsp+296]
	lea	rcx, OFFSET FLAT:__3F1A8F43_pmc_bitwiseor@c
	call	__CheckForDebuggerJustMyCode

; 246  :     if (__UNIT_TYPE_BIT_COUNT < sizeof(v) * 8)

	xor	eax, eax
	test	eax, eax
	je	SHORT $LN2@PMC_Bitwis

; 247  :     {
; 248  :         // _UINT32_T が 1 ワードで表現しきれない処理系には対応しない
; 249  :         return (PMC_STATUS_INTERNAL_ERROR);

	mov	eax, -256				; ffffffffffffff00H
	jmp	$LN1@PMC_Bitwis
$LN2@PMC_Bitwis:

; 250  :     }
; 251  :     if (u == NULL)

	cmp	QWORD PTR u$[rbp], 0
	jne	SHORT $LN3@PMC_Bitwis

; 252  :         return (PMC_STATUS_ARGUMENT_ERROR);

	mov	eax, -1
	jmp	SHORT $LN1@PMC_Bitwis
$LN3@PMC_Bitwis:

; 253  :     if (w == NULL)

	cmp	QWORD PTR w$[rbp], 0
	jne	SHORT $LN4@PMC_Bitwis

; 254  :         return (PMC_STATUS_ARGUMENT_ERROR);

	mov	eax, -1
	jmp	SHORT $LN1@PMC_Bitwis
$LN4@PMC_Bitwis:

; 255  :     PMC_STATUS_CODE result;
; 256  :     if ((result = CheckNumber((NUMBER_HEADER*)u)) != PMC_STATUS_OK)

	mov	rcx, QWORD PTR u$[rbp]
	call	CheckNumber
	mov	DWORD PTR result$[rbp], eax
	cmp	DWORD PTR result$[rbp], 0
	je	SHORT $LN5@PMC_Bitwis

; 257  :         return (result);

	mov	eax, DWORD PTR result$[rbp]
	jmp	SHORT $LN1@PMC_Bitwis
$LN5@PMC_Bitwis:

; 258  :     if ((result = PMC_BitwiseOr_X_I_Imp((NUMBER_HEADER*)u, v, (NUMBER_HEADER**)w)) != PMC_STATUS_OK)

	mov	r8, QWORD PTR w$[rbp]
	mov	edx, DWORD PTR v$[rbp]
	mov	rcx, QWORD PTR u$[rbp]
	call	PMC_BitwiseOr_X_I_Imp
	mov	DWORD PTR result$[rbp], eax
	cmp	DWORD PTR result$[rbp], 0
	je	SHORT $LN6@PMC_Bitwis

; 259  :         return (result);

	mov	eax, DWORD PTR result$[rbp]
	jmp	SHORT $LN1@PMC_Bitwis
$LN6@PMC_Bitwis:

; 260  : #ifdef _DEBUG
; 261  :     if ((result = CheckNumber((NUMBER_HEADER*)*w)) != PMC_STATUS_OK)

	mov	rax, QWORD PTR w$[rbp]
	mov	rcx, QWORD PTR [rax]
	call	CheckNumber
	mov	DWORD PTR result$[rbp], eax
	cmp	DWORD PTR result$[rbp], 0
	je	SHORT $LN7@PMC_Bitwis

; 262  :         return (result);

	mov	eax, DWORD PTR result$[rbp]
	jmp	SHORT $LN1@PMC_Bitwis
$LN7@PMC_Bitwis:

; 263  : #endif
; 264  :     return (PMC_STATUS_OK);

	xor	eax, eax
$LN1@PMC_Bitwis:

; 265  : }

	lea	rsp, QWORD PTR [rbp+232]
	pop	rdi
	pop	rbp
	ret	0
PMC_BitwiseOr_X_I ENDP
_TEXT	ENDS
; Function compile flags: /Odtp /RTCsu /ZI
; File z:\sources\lunor\repos\rougemeilland\palmtree.math.core.uint\palmtree.math.core.uint\pmc_bitwiseor.c
;	COMDAT PMC_BitwiseOr_L_X
_TEXT	SEGMENT
result$ = 4
u$ = 256
v$ = 264
w$ = 272
PMC_BitwiseOr_L_X PROC					; COMDAT

; 346  : {

$LN9:
	mov	QWORD PTR [rsp+24], r8
	mov	QWORD PTR [rsp+16], rdx
	mov	QWORD PTR [rsp+8], rcx
	push	rbp
	push	rdi
	sub	rsp, 264				; 00000108H
	lea	rbp, QWORD PTR [rsp+32]
	mov	rdi, rsp
	mov	ecx, 66					; 00000042H
	mov	eax, -858993460				; ccccccccH
	rep stosd
	mov	rcx, QWORD PTR [rsp+296]
	lea	rcx, OFFSET FLAT:__3F1A8F43_pmc_bitwiseor@c
	call	__CheckForDebuggerJustMyCode

; 347  :     if (__UNIT_TYPE_BIT_COUNT * 2 < sizeof(u) * 8)

	xor	eax, eax
	test	eax, eax
	je	SHORT $LN2@PMC_Bitwis

; 348  :     {
; 349  :         // _UINT64_T が 2 ワードで表現しきれない処理系には対応しない
; 350  :         return (PMC_STATUS_INTERNAL_ERROR);

	mov	eax, -256				; ffffffffffffff00H
	jmp	$LN1@PMC_Bitwis
$LN2@PMC_Bitwis:

; 351  :     }
; 352  :     if (v == NULL)

	cmp	QWORD PTR v$[rbp], 0
	jne	SHORT $LN3@PMC_Bitwis

; 353  :         return (PMC_STATUS_ARGUMENT_ERROR);

	mov	eax, -1
	jmp	SHORT $LN1@PMC_Bitwis
$LN3@PMC_Bitwis:

; 354  :     if (w == NULL)

	cmp	QWORD PTR w$[rbp], 0
	jne	SHORT $LN4@PMC_Bitwis

; 355  :         return (PMC_STATUS_ARGUMENT_ERROR);

	mov	eax, -1
	jmp	SHORT $LN1@PMC_Bitwis
$LN4@PMC_Bitwis:

; 356  :     PMC_STATUS_CODE result;
; 357  :     if ((result = CheckNumber((NUMBER_HEADER*)v)) != PMC_STATUS_OK)

	mov	rcx, QWORD PTR v$[rbp]
	call	CheckNumber
	mov	DWORD PTR result$[rbp], eax
	cmp	DWORD PTR result$[rbp], 0
	je	SHORT $LN5@PMC_Bitwis

; 358  :         return (result);

	mov	eax, DWORD PTR result$[rbp]
	jmp	SHORT $LN1@PMC_Bitwis
$LN5@PMC_Bitwis:

; 359  :     if ((result = PMC_BitwiseOr_X_L_Imp((NUMBER_HEADER*)v, u, (NUMBER_HEADER**)w)) != PMC_STATUS_OK)

	mov	r8, QWORD PTR w$[rbp]
	mov	rdx, QWORD PTR u$[rbp]
	mov	rcx, QWORD PTR v$[rbp]
	call	PMC_BitwiseOr_X_L_Imp
	mov	DWORD PTR result$[rbp], eax
	cmp	DWORD PTR result$[rbp], 0
	je	SHORT $LN6@PMC_Bitwis

; 360  :         return (result);

	mov	eax, DWORD PTR result$[rbp]
	jmp	SHORT $LN1@PMC_Bitwis
$LN6@PMC_Bitwis:

; 361  : #ifdef _DEBUG
; 362  :     if ((result = CheckNumber((NUMBER_HEADER*)*w)) != PMC_STATUS_OK)

	mov	rax, QWORD PTR w$[rbp]
	mov	rcx, QWORD PTR [rax]
	call	CheckNumber
	mov	DWORD PTR result$[rbp], eax
	cmp	DWORD PTR result$[rbp], 0
	je	SHORT $LN7@PMC_Bitwis

; 363  :         return (result);

	mov	eax, DWORD PTR result$[rbp]
	jmp	SHORT $LN1@PMC_Bitwis
$LN7@PMC_Bitwis:

; 364  : #endif
; 365  :     return (PMC_STATUS_OK);

	xor	eax, eax
$LN1@PMC_Bitwis:

; 366  : }

	lea	rsp, QWORD PTR [rbp+232]
	pop	rdi
	pop	rbp
	ret	0
PMC_BitwiseOr_L_X ENDP
_TEXT	ENDS
; Function compile flags: /Odtp /RTCsu /ZI
; File z:\sources\lunor\repos\rougemeilland\palmtree.math.core.uint\palmtree.math.core.uint\pmc_bitwiseor.c
;	COMDAT PMC_BitwiseOr_I_X
_TEXT	SEGMENT
result$ = 4
u$ = 256
v$ = 264
w$ = 272
PMC_BitwiseOr_I_X PROC					; COMDAT

; 222  : {

$LN9:
	mov	QWORD PTR [rsp+24], r8
	mov	QWORD PTR [rsp+16], rdx
	mov	DWORD PTR [rsp+8], ecx
	push	rbp
	push	rdi
	sub	rsp, 264				; 00000108H
	lea	rbp, QWORD PTR [rsp+32]
	mov	rdi, rsp
	mov	ecx, 66					; 00000042H
	mov	eax, -858993460				; ccccccccH
	rep stosd
	mov	ecx, DWORD PTR [rsp+296]
	lea	rcx, OFFSET FLAT:__3F1A8F43_pmc_bitwiseor@c
	call	__CheckForDebuggerJustMyCode

; 223  :     if (__UNIT_TYPE_BIT_COUNT < sizeof(u) * 8)

	xor	eax, eax
	test	eax, eax
	je	SHORT $LN2@PMC_Bitwis

; 224  :     {
; 225  :         // _UINT32_T が 1 ワードで表現しきれない処理系には対応しない
; 226  :         return (PMC_STATUS_INTERNAL_ERROR);

	mov	eax, -256				; ffffffffffffff00H
	jmp	$LN1@PMC_Bitwis
$LN2@PMC_Bitwis:

; 227  :     }
; 228  :     if (v == NULL)

	cmp	QWORD PTR v$[rbp], 0
	jne	SHORT $LN3@PMC_Bitwis

; 229  :         return (PMC_STATUS_ARGUMENT_ERROR);

	mov	eax, -1
	jmp	SHORT $LN1@PMC_Bitwis
$LN3@PMC_Bitwis:

; 230  :     if (w == NULL)

	cmp	QWORD PTR w$[rbp], 0
	jne	SHORT $LN4@PMC_Bitwis

; 231  :         return (PMC_STATUS_ARGUMENT_ERROR);

	mov	eax, -1
	jmp	SHORT $LN1@PMC_Bitwis
$LN4@PMC_Bitwis:

; 232  :     PMC_STATUS_CODE result;
; 233  :     if ((result = CheckNumber((NUMBER_HEADER*)v)) != PMC_STATUS_OK)

	mov	rcx, QWORD PTR v$[rbp]
	call	CheckNumber
	mov	DWORD PTR result$[rbp], eax
	cmp	DWORD PTR result$[rbp], 0
	je	SHORT $LN5@PMC_Bitwis

; 234  :         return (result);

	mov	eax, DWORD PTR result$[rbp]
	jmp	SHORT $LN1@PMC_Bitwis
$LN5@PMC_Bitwis:

; 235  :     if ((result = PMC_BitwiseOr_X_I_Imp((NUMBER_HEADER*)v, u, (NUMBER_HEADER**)w)) != PMC_STATUS_OK)

	mov	r8, QWORD PTR w$[rbp]
	mov	edx, DWORD PTR u$[rbp]
	mov	rcx, QWORD PTR v$[rbp]
	call	PMC_BitwiseOr_X_I_Imp
	mov	DWORD PTR result$[rbp], eax
	cmp	DWORD PTR result$[rbp], 0
	je	SHORT $LN6@PMC_Bitwis

; 236  :         return (result);

	mov	eax, DWORD PTR result$[rbp]
	jmp	SHORT $LN1@PMC_Bitwis
$LN6@PMC_Bitwis:

; 237  : #ifdef _DEBUG
; 238  :     if ((result = CheckNumber((NUMBER_HEADER*)*w)) != PMC_STATUS_OK)

	mov	rax, QWORD PTR w$[rbp]
	mov	rcx, QWORD PTR [rax]
	call	CheckNumber
	mov	DWORD PTR result$[rbp], eax
	cmp	DWORD PTR result$[rbp], 0
	je	SHORT $LN7@PMC_Bitwis

; 239  :         return (result);

	mov	eax, DWORD PTR result$[rbp]
	jmp	SHORT $LN1@PMC_Bitwis
$LN7@PMC_Bitwis:

; 240  : #endif
; 241  :     return (PMC_STATUS_OK);

	xor	eax, eax
$LN1@PMC_Bitwis:

; 242  : }

	lea	rsp, QWORD PTR [rbp+232]
	pop	rdi
	pop	rbp
	ret	0
PMC_BitwiseOr_I_X ENDP
_TEXT	ENDS
; Function compile flags: /Odtp /RTCsu /ZI
; File z:\sources\lunor\repos\rougemeilland\palmtree.math.core.uint\palmtree.math.core.uint\pmc_bitwiseor.c
;	COMDAT Initialize_BitwiseOr
_TEXT	SEGMENT
feature$ = 224
Initialize_BitwiseOr PROC				; COMDAT

; 445  : {

$LN3:
	mov	QWORD PTR [rsp+8], rcx
	push	rbp
	push	rdi
	sub	rsp, 232				; 000000e8H
	lea	rbp, QWORD PTR [rsp+32]
	mov	rdi, rsp
	mov	ecx, 58					; 0000003aH
	mov	eax, -858993460				; ccccccccH
	rep stosd
	mov	rcx, QWORD PTR [rsp+264]
	lea	rcx, OFFSET FLAT:__3F1A8F43_pmc_bitwiseor@c
	call	__CheckForDebuggerJustMyCode

; 446  :     return (PMC_STATUS_OK);

	xor	eax, eax

; 447  : }

	lea	rsp, QWORD PTR [rbp+200]
	pop	rdi
	pop	rbp
	ret	0
Initialize_BitwiseOr ENDP
_TEXT	ENDS
END
