; Listing generated by Microsoft (R) Optimizing Compiler Version 19.16.27026.1 

include listing.inc

INCLUDELIB MSVCRTD
INCLUDELIB OLDNAMES

msvcjmc	SEGMENT
__7B7A869E_ctype@h DB 01H
__457DD326_basetsd@h DB 01H
__4384A2D9_corecrt_memcpy_s@h DB 01H
__4E51A221_corecrt_wstring@h DB 01H
__2140C079_string@h DB 01H
__1887E595_winnt@h DB 01H
__9FC7C64B_processthreadsapi@h DB 01H
__FA470AEC_memoryapi@h DB 01H
__F37DAFF1_winerror@h DB 01H
__7A450CCC_winbase@h DB 01H
__B4B40122_winioctl@h DB 01H
__86261D59_stralign@h DB 01H
__BB6D3116_pmc_uint_internal@h DB 01H
__8CA3E54E_pmc_inline_func@h DB 01H
__4FBA55E1_pmc_pow@c DB 01H
msvcjmc	ENDS
PUBLIC	Initialize_Pow
PUBLIC	PMC_Pow_X_I
PUBLIC	__JustMyCode_Default
EXTRN	AllocateBlock:PROC
EXTRN	DeallocateBlock:PROC
EXTRN	CheckBlockLight:PROC
EXTRN	AllocateNumber:PROC
EXTRN	CommitNumber:PROC
EXTRN	CheckNumber:PROC
EXTRN	DuplicateNumber:PROC
EXTRN	Multiply_X_X_Imp:PROC
EXTRN	_RTC_CheckStackVars:PROC
EXTRN	_RTC_InitBase:PROC
EXTRN	_RTC_Shutdown:PROC
EXTRN	__CheckForDebuggerJustMyCode:PROC
EXTRN	number_zero:BYTE
EXTRN	number_one:BYTE
;	COMDAT pdata
pdata	SEGMENT
$pdata$Initialize_Pow DD imagerel $LN3
	DD	imagerel $LN3+66
	DD	imagerel $unwind$Initialize_Pow
pdata	ENDS
;	COMDAT pdata
pdata	SEGMENT
$pdata$PMC_Pow_X_I DD imagerel $LN9
	DD	imagerel $LN9+219
	DD	imagerel $unwind$PMC_Pow_X_I
pdata	ENDS
;	COMDAT pdata
pdata	SEGMENT
$pdata$_COPY_MEMORY_UNIT DD imagerel _COPY_MEMORY_UNIT
	DD	imagerel _COPY_MEMORY_UNIT+100
	DD	imagerel $unwind$_COPY_MEMORY_UNIT
pdata	ENDS
;	COMDAT pdata
pdata	SEGMENT
$pdata$_ZERO_MEMORY_UNIT DD imagerel _ZERO_MEMORY_UNIT
	DD	imagerel _ZERO_MEMORY_UNIT+88
	DD	imagerel $unwind$_ZERO_MEMORY_UNIT
pdata	ENDS
;	COMDAT pdata
pdata	SEGMENT
$pdata$_LZCNT_ALT_32 DD imagerel _LZCNT_ALT_32
	DD	imagerel _LZCNT_ALT_32+126
	DD	imagerel $unwind$_LZCNT_ALT_32
pdata	ENDS
;	COMDAT pdata
pdata	SEGMENT
$pdata$Pow_Imp DD imagerel Pow_Imp
	DD	imagerel Pow_Imp+553
	DD	imagerel $unwind$Pow_Imp
pdata	ENDS
;	COMDAT pdata
pdata	SEGMENT
$pdata$PMC_Pow_X_I_Imp DD imagerel PMC_Pow_X_I_Imp
	DD	imagerel PMC_Pow_X_I_Imp+797
	DD	imagerel $unwind$PMC_Pow_X_I_Imp
pdata	ENDS
;	COMDAT rtc$TMZ
rtc$TMZ	SEGMENT
_RTC_Shutdown.rtc$TMZ DQ FLAT:_RTC_Shutdown
rtc$TMZ	ENDS
;	COMDAT rtc$IMZ
rtc$IMZ	SEGMENT
_RTC_InitBase.rtc$IMZ DQ FLAT:_RTC_InitBase
rtc$IMZ	ENDS
;	COMDAT xdata
xdata	SEGMENT
$unwind$PMC_Pow_X_I_Imp DD 035053301H
	DD	0117331cH
	DD	070100047H
	DD	0500fH
xdata	ENDS
;	COMDAT CONST
CONST	SEGMENT
PMC_Pow_X_I_Imp$rtcName$0 DB 077H
	DB	06fH
	DB	072H
	DB	06bH
	DB	031H
	DB	05fH
	DB	062H
	DB	075H
	DB	066H
	DB	05fH
	DB	063H
	DB	06fH
	DB	064H
	DB	065H
	DB	00H
	ORG $+1
PMC_Pow_X_I_Imp$rtcName$1 DB 077H
	DB	06fH
	DB	072H
	DB	06bH
	DB	031H
	DB	05fH
	DB	062H
	DB	075H
	DB	066H
	DB	05fH
	DB	077H
	DB	06fH
	DB	072H
	DB	064H
	DB	073H
	DB	00H
PMC_Pow_X_I_Imp$rtcName$2 DB 077H
	DB	06fH
	DB	072H
	DB	06bH
	DB	032H
	DB	05fH
	DB	062H
	DB	075H
	DB	066H
	DB	05fH
	DB	063H
	DB	06fH
	DB	064H
	DB	065H
	DB	00H
	ORG $+1
PMC_Pow_X_I_Imp$rtcName$3 DB 077H
	DB	06fH
	DB	072H
	DB	06bH
	DB	032H
	DB	05fH
	DB	062H
	DB	075H
	DB	066H
	DB	05fH
	DB	077H
	DB	06fH
	DB	072H
	DB	064H
	DB	073H
	DB	00H
PMC_Pow_X_I_Imp$rtcName$4 DB 072H
	DB	05fH
	DB	063H
	DB	068H
	DB	065H
	DB	063H
	DB	06bH
	DB	05fH
	DB	063H
	DB	06fH
	DB	064H
	DB	065H
	DB	00H
	ORG $+3
PMC_Pow_X_I_Imp$rtcVarDesc DD 0158H
	DD	08H
	DQ	FLAT:PMC_Pow_X_I_Imp$rtcName$4
	DD	0118H
	DD	08H
	DQ	FLAT:PMC_Pow_X_I_Imp$rtcName$3
	DD	0f8H
	DD	08H
	DQ	FLAT:PMC_Pow_X_I_Imp$rtcName$2
	DD	0b8H
	DD	08H
	DQ	FLAT:PMC_Pow_X_I_Imp$rtcName$1
	DD	098H
	DD	08H
	DQ	FLAT:PMC_Pow_X_I_Imp$rtcName$0
	ORG $+240
PMC_Pow_X_I_Imp$rtcFrameData DD 05H
	DD	00H
	DQ	FLAT:PMC_Pow_X_I_Imp$rtcVarDesc
CONST	ENDS
;	COMDAT xdata
xdata	SEGMENT
$unwind$Pow_Imp DD 035053901H
	DD	011d3322H
	DD	07016003bH
	DD	05015H
xdata	ENDS
;	COMDAT xdata
xdata	SEGMENT
$unwind$_LZCNT_ALT_32 DD 025052801H
	DD	010d2312H
	DD	070060021H
	DD	05005H
xdata	ENDS
;	COMDAT CONST
CONST	SEGMENT
_LZCNT_ALT_32$rtcName$0 DB 070H
	DB	06fH
	DB	073H
	DB	00H
	ORG $+12
_LZCNT_ALT_32$rtcVarDesc DD 024H
	DD	04H
	DQ	FLAT:_LZCNT_ALT_32$rtcName$0
	ORG $+48
_LZCNT_ALT_32$rtcFrameData DD 01H
	DD	00H
	DQ	FLAT:_LZCNT_ALT_32$rtcVarDesc
CONST	ENDS
;	COMDAT xdata
xdata	SEGMENT
$unwind$_ZERO_MEMORY_UNIT DD 025052f01H
	DD	01132318H
	DD	0700c001dH
	DD	0500bH
xdata	ENDS
;	COMDAT xdata
xdata	SEGMENT
$unwind$_COPY_MEMORY_UNIT DD 025063501H
	DD	0119231eH
	DD	07012001cH
	DD	050106011H
xdata	ENDS
;	COMDAT xdata
xdata	SEGMENT
$unwind$PMC_Pow_X_I DD 025053301H
	DD	0117231cH
	DD	070100021H
	DD	0500fH
xdata	ENDS
;	COMDAT xdata
xdata	SEGMENT
$unwind$Initialize_Pow DD 025052a01H
	DD	010e2313H
	DD	07007001dH
	DD	05006H
xdata	ENDS
; Function compile flags: /Odt
;	COMDAT __JustMyCode_Default
_TEXT	SEGMENT
__JustMyCode_Default PROC				; COMDAT
	ret	0
__JustMyCode_Default ENDP
_TEXT	ENDS
; Function compile flags: /Odtp /RTCsu /ZI
; File z:\sources\lunor\repos\rougemeilland\palmtree.math.core.uint\palmtree.math.core.uint\pmc_pow.c
;	COMDAT PMC_Pow_X_I_Imp
_TEXT	SEGMENT
result$ = 4
v_bit_count$8 = 40
work_bit_count$9 = 72
work1_buf_code$10 = 104
work1_buf_words$11 = 136
work1_buf$12 = 168
work2_buf_code$13 = 200
work2_buf_words$14 = 232
work2_buf$15 = 264
r_check_code$16 = 296
tv80 = 504
v$ = 544
e$ = 552
r$ = 560
PMC_Pow_X_I_Imp PROC					; COMDAT

; 77   : {

	mov	QWORD PTR [rsp+24], r8
	mov	DWORD PTR [rsp+16], edx
	mov	QWORD PTR [rsp+8], rcx
	push	rbp
	push	rdi
	sub	rsp, 568				; 00000238H
	lea	rbp, QWORD PTR [rsp+48]
	mov	rdi, rsp
	mov	ecx, 142				; 0000008eH
	mov	eax, -858993460				; ccccccccH
	rep stosd
	mov	rcx, QWORD PTR [rsp+600]
	lea	rcx, OFFSET FLAT:__4FBA55E1_pmc_pow@c
	call	__CheckForDebuggerJustMyCode

; 78   :     PMC_STATUS_CODE result;
; 79   :     if (v->IS_ZERO)

	mov	rax, QWORD PTR v$[rbp]
	mov	eax, DWORD PTR [rax+40]
	shr	eax, 1
	and	eax, 1
	test	eax, eax
	je	SHORT $LN2@PMC_Pow_X_

; 80   :     {
; 81   :         // v が 0 である場合
; 82   : 
; 83   :         if (e == 0)

	cmp	DWORD PTR e$[rbp], 0
	jne	SHORT $LN4@PMC_Pow_X_

; 84   :         {
; 85   :             // e が 0 である場合
; 86   : 
; 87   :             // 0 の 0 乗となるので、エラーを返す
; 88   :             return (PMC_STATUS_ARGUMENT_ERROR);

	mov	eax, -1
	jmp	$LN1@PMC_Pow_X_

; 89   :         }

	jmp	SHORT $LN5@PMC_Pow_X_
$LN4@PMC_Pow_X_:

; 90   :         else
; 91   :         {
; 92   :             // e が 0 ではない場合
; 93   : 
; 94   :             *r = &number_zero;

	mov	rax, QWORD PTR r$[rbp]
	lea	rcx, OFFSET FLAT:number_zero
	mov	QWORD PTR [rax], rcx
$LN5@PMC_Pow_X_:

; 95   :         }
; 96   :     }

	jmp	$LN3@PMC_Pow_X_
$LN2@PMC_Pow_X_:

; 97   :     else if (v->IS_ONE)

	mov	rax, QWORD PTR v$[rbp]
	mov	eax, DWORD PTR [rax+40]
	shr	eax, 2
	and	eax, 1
	test	eax, eax
	je	SHORT $LN6@PMC_Pow_X_

; 98   :     {
; 99   :         // v が 1 である場合
; 100  :         
; 101  :         // e が何であってもべき乗は 1 となる。
; 102  :         *r = &number_one;

	mov	rax, QWORD PTR r$[rbp]
	lea	rcx, OFFSET FLAT:number_one
	mov	QWORD PTR [rax], rcx

; 103  :     }

	jmp	$LN7@PMC_Pow_X_
$LN6@PMC_Pow_X_:

; 104  :     else
; 105  :     {
; 106  :         // v が 2 以上である場合
; 107  : 
; 108  :         if (e == 0)

	cmp	DWORD PTR e$[rbp], 0
	jne	SHORT $LN8@PMC_Pow_X_

; 109  :         {
; 110  :             // e が 0 である場合
; 111  : 
; 112  :             // 計算結果の 1 を返す
; 113  :             *r = &number_one;

	mov	rax, QWORD PTR r$[rbp]
	lea	rcx, OFFSET FLAT:number_one
	mov	QWORD PTR [rax], rcx

; 114  :         }

	jmp	$LN9@PMC_Pow_X_
$LN8@PMC_Pow_X_:

; 115  :         else if (e == 1)

	cmp	DWORD PTR e$[rbp], 1
	jne	SHORT $LN10@PMC_Pow_X_

; 116  :         {
; 117  :             // e が 1 である場合
; 118  : 
; 119  :             // 計算結果の v を返す
; 120  :             if ((result = DuplicateNumber(v, r)) != PMC_STATUS_OK)

	mov	rdx, QWORD PTR r$[rbp]
	mov	rcx, QWORD PTR v$[rbp]
	call	DuplicateNumber
	mov	DWORD PTR result$[rbp], eax
	cmp	DWORD PTR result$[rbp], 0
	je	SHORT $LN12@PMC_Pow_X_

; 121  :                 return (result);

	mov	eax, DWORD PTR result$[rbp]
	jmp	$LN1@PMC_Pow_X_
$LN12@PMC_Pow_X_:

; 122  :         }

	jmp	$LN11@PMC_Pow_X_
$LN10@PMC_Pow_X_:

; 123  :         else
; 124  :         {
; 125  :             // v と e がともに 2 以上である場合
; 126  : 
; 127  :             // v の e 乗を計算する
; 128  :             __UNIT_TYPE v_bit_count = v->UNIT_BIT_COUNT;

	mov	rax, QWORD PTR v$[rbp]
	mov	rax, QWORD PTR [rax+16]
	mov	QWORD PTR v_bit_count$8[rbp], rax

; 129  : 
; 130  :             // べき乗の計算結果のビット長が論理的な限界を超えると思われる場合、エラーを返す
; 131  :             if (v_bit_count > ((__UNIT_TYPE)-1 - __UNIT_TYPE_BIT_COUNT) / e)

	mov	eax, DWORD PTR e$[rbp]
	mov	QWORD PTR tv80[rbp], rax
	xor	edx, edx
	mov	rax, -65				; ffffffffffffffbfH
	mov	rcx, QWORD PTR tv80[rbp]
	div	rcx
	cmp	QWORD PTR v_bit_count$8[rbp], rax
	jbe	SHORT $LN13@PMC_Pow_X_

; 132  :                 return (PMC_STATUS_OVERFLOW);

	mov	eax, -2
	jmp	$LN1@PMC_Pow_X_
$LN13@PMC_Pow_X_:

; 133  : 
; 134  :             __UNIT_TYPE work_bit_count = v_bit_count * e + __UNIT_TYPE_BIT_COUNT;

	mov	eax, DWORD PTR e$[rbp]
	mov	rcx, QWORD PTR v_bit_count$8[rbp]
	imul	rcx, rax
	mov	rax, rcx
	add	rax, 64					; 00000040H
	mov	QWORD PTR work_bit_count$9[rbp], rax

; 135  : 
; 136  :             __UNIT_TYPE work1_buf_code;
; 137  :             __UNIT_TYPE work1_buf_words;
; 138  :             __UNIT_TYPE* work1_buf = AllocateBlock(work_bit_count, &work1_buf_words, &work1_buf_code);

	lea	r8, QWORD PTR work1_buf_code$10[rbp]
	lea	rdx, QWORD PTR work1_buf_words$11[rbp]
	mov	rcx, QWORD PTR work_bit_count$9[rbp]
	call	AllocateBlock
	mov	QWORD PTR work1_buf$12[rbp], rax

; 139  :             if (work1_buf == NULL)

	cmp	QWORD PTR work1_buf$12[rbp], 0
	jne	SHORT $LN14@PMC_Pow_X_

; 140  :             {
; 141  :                 return (PMC_STATUS_NOT_ENOUGH_MEMORY);

	mov	eax, -5
	jmp	$LN1@PMC_Pow_X_
$LN14@PMC_Pow_X_:

; 142  :             }
; 143  :             __UNIT_TYPE work2_buf_code;
; 144  :             __UNIT_TYPE work2_buf_words;
; 145  :             __UNIT_TYPE* work2_buf = AllocateBlock(work_bit_count, &work2_buf_words, &work2_buf_code);

	lea	r8, QWORD PTR work2_buf_code$13[rbp]
	lea	rdx, QWORD PTR work2_buf_words$14[rbp]
	mov	rcx, QWORD PTR work_bit_count$9[rbp]
	call	AllocateBlock
	mov	QWORD PTR work2_buf$15[rbp], rax

; 146  :             if (work1_buf == NULL)

	cmp	QWORD PTR work1_buf$12[rbp], 0
	jne	SHORT $LN15@PMC_Pow_X_

; 147  :             {
; 148  :                 DeallocateBlock(work1_buf, work1_buf_words);

	mov	rdx, QWORD PTR work1_buf_words$11[rbp]
	mov	rcx, QWORD PTR work1_buf$12[rbp]
	call	DeallocateBlock

; 149  :                 return (PMC_STATUS_NOT_ENOUGH_MEMORY);

	mov	eax, -5
	jmp	$LN1@PMC_Pow_X_
$LN15@PMC_Pow_X_:

; 150  :             }
; 151  :             __UNIT_TYPE r_check_code;
; 152  :             if ((result = AllocateNumber(r, work_bit_count, &r_check_code)) != PMC_STATUS_OK)

	lea	r8, QWORD PTR r_check_code$16[rbp]
	mov	rdx, QWORD PTR work_bit_count$9[rbp]
	mov	rcx, QWORD PTR r$[rbp]
	call	AllocateNumber
	mov	DWORD PTR result$[rbp], eax
	cmp	DWORD PTR result$[rbp], 0
	je	SHORT $LN16@PMC_Pow_X_

; 153  :             {
; 154  :                 DeallocateBlock(work1_buf, work1_buf_words);

	mov	rdx, QWORD PTR work1_buf_words$11[rbp]
	mov	rcx, QWORD PTR work1_buf$12[rbp]
	call	DeallocateBlock

; 155  :                 DeallocateBlock(work2_buf, work2_buf_words);

	mov	rdx, QWORD PTR work2_buf_words$14[rbp]
	mov	rcx, QWORD PTR work2_buf$15[rbp]
	call	DeallocateBlock

; 156  :                 return (PMC_STATUS_NOT_ENOUGH_MEMORY);

	mov	eax, -5
	jmp	$LN1@PMC_Pow_X_
$LN16@PMC_Pow_X_:

; 157  :             }
; 158  : 
; 159  :             Pow_Imp(v->BLOCK, v->UNIT_WORD_COUNT, e, work1_buf, work2_buf, (*r)->BLOCK);

	mov	rax, QWORD PTR r$[rbp]
	mov	rax, QWORD PTR [rax]
	mov	rax, QWORD PTR [rax+56]
	mov	QWORD PTR [rsp+40], rax
	mov	rax, QWORD PTR work2_buf$15[rbp]
	mov	QWORD PTR [rsp+32], rax
	mov	r9, QWORD PTR work1_buf$12[rbp]
	mov	r8d, DWORD PTR e$[rbp]
	mov	rax, QWORD PTR v$[rbp]
	mov	rdx, QWORD PTR [rax+8]
	mov	rax, QWORD PTR v$[rbp]
	mov	rcx, QWORD PTR [rax+56]
	call	Pow_Imp

; 160  : 
; 161  :             if ((result = CheckBlockLight(work1_buf, work1_buf_code)) != PMC_STATUS_OK)

	mov	rdx, QWORD PTR work1_buf_code$10[rbp]
	mov	rcx, QWORD PTR work1_buf$12[rbp]
	call	CheckBlockLight
	mov	DWORD PTR result$[rbp], eax
	cmp	DWORD PTR result$[rbp], 0
	je	SHORT $LN17@PMC_Pow_X_

; 162  :                 return (result);

	mov	eax, DWORD PTR result$[rbp]
	jmp	$LN1@PMC_Pow_X_
$LN17@PMC_Pow_X_:

; 163  :             if ((result = CheckBlockLight(work2_buf, work2_buf_code)) != PMC_STATUS_OK)

	mov	rdx, QWORD PTR work2_buf_code$13[rbp]
	mov	rcx, QWORD PTR work2_buf$15[rbp]
	call	CheckBlockLight
	mov	DWORD PTR result$[rbp], eax
	cmp	DWORD PTR result$[rbp], 0
	je	SHORT $LN18@PMC_Pow_X_

; 164  :                 return (result);

	mov	eax, DWORD PTR result$[rbp]
	jmp	SHORT $LN1@PMC_Pow_X_
$LN18@PMC_Pow_X_:

; 165  :             if ((result = CheckBlockLight((*r)->BLOCK, r_check_code)) != PMC_STATUS_OK)

	mov	rax, QWORD PTR r$[rbp]
	mov	rax, QWORD PTR [rax]
	mov	rdx, QWORD PTR r_check_code$16[rbp]
	mov	rcx, QWORD PTR [rax+56]
	call	CheckBlockLight
	mov	DWORD PTR result$[rbp], eax
	cmp	DWORD PTR result$[rbp], 0
	je	SHORT $LN19@PMC_Pow_X_

; 166  :                 return (result);

	mov	eax, DWORD PTR result$[rbp]
	jmp	SHORT $LN1@PMC_Pow_X_
$LN19@PMC_Pow_X_:

; 167  :             DeallocateBlock(work1_buf, work1_buf_words);

	mov	rdx, QWORD PTR work1_buf_words$11[rbp]
	mov	rcx, QWORD PTR work1_buf$12[rbp]
	call	DeallocateBlock

; 168  :             DeallocateBlock(work2_buf, work2_buf_words);

	mov	rdx, QWORD PTR work2_buf_words$14[rbp]
	mov	rcx, QWORD PTR work2_buf$15[rbp]
	call	DeallocateBlock

; 169  :             CommitNumber(*r);

	mov	rax, QWORD PTR r$[rbp]
	mov	rcx, QWORD PTR [rax]
	call	CommitNumber
$LN11@PMC_Pow_X_:
$LN9@PMC_Pow_X_:
$LN7@PMC_Pow_X_:
$LN3@PMC_Pow_X_:

; 170  :         }
; 171  :     }
; 172  :     return (PMC_STATUS_OK);

	xor	eax, eax
$LN1@PMC_Pow_X_:

; 173  : }

	mov	rdi, rax
	lea	rcx, QWORD PTR [rbp-48]
	lea	rdx, OFFSET FLAT:PMC_Pow_X_I_Imp$rtcFrameData
	call	_RTC_CheckStackVars
	mov	rax, rdi
	lea	rsp, QWORD PTR [rbp+520]
	pop	rdi
	pop	rbp
	ret	0
PMC_Pow_X_I_Imp ENDP
_TEXT	ENDS
; Function compile flags: /Odtp /RTCsu /ZI
; File z:\sources\lunor\repos\rougemeilland\palmtree.math.core.uint\palmtree.math.core.uint\pmc_pow.c
;	COMDAT Pow_Imp
_TEXT	SEGMENT
e_mask$ = 4
u_ptr$ = 40
v_ptr$ = 72
w_ptr$ = 104
u_count$ = 136
v_count$ = 168
t_ptr$1 = 200
tv147 = 404
v_buf$ = 448
v_buf_count$ = 456
e$ = 464
work1_buf$ = 472
work2_buf$ = 480
r_buf$ = 488
Pow_Imp	PROC						; COMDAT

; 32   : {

	mov	QWORD PTR [rsp+32], r9
	mov	DWORD PTR [rsp+24], r8d
	mov	QWORD PTR [rsp+16], rdx
	mov	QWORD PTR [rsp+8], rcx
	push	rbp
	push	rdi
	sub	rsp, 472				; 000001d8H
	lea	rbp, QWORD PTR [rsp+48]
	mov	rdi, rsp
	mov	ecx, 118				; 00000076H
	mov	eax, -858993460				; ccccccccH
	rep stosd
	mov	rcx, QWORD PTR [rsp+504]
	lea	rcx, OFFSET FLAT:__4FBA55E1_pmc_pow@c
	call	__CheckForDebuggerJustMyCode

; 33   :     _UINT32_T e_mask = _rotr(1, _LZCNT_ALT_32(e) + 1);

	mov	ecx, DWORD PTR e$[rbp]
	call	_LZCNT_ALT_32
	inc	eax
	mov	ecx, 1
	mov	DWORD PTR tv147[rbp], ecx
	movzx	ecx, al
	mov	eax, DWORD PTR tv147[rbp]
	ror	eax, cl
	mov	DWORD PTR e_mask$[rbp], eax

; 34   : 
; 35   :     // この時点で e & e_mask は 0ではないはず
; 36   : 
; 37   :     __UNIT_TYPE* u_ptr = work1_buf;

	mov	rax, QWORD PTR work1_buf$[rbp]
	mov	QWORD PTR u_ptr$[rbp], rax

; 38   :     __UNIT_TYPE* v_ptr = v_buf;

	mov	rax, QWORD PTR v_buf$[rbp]
	mov	QWORD PTR v_ptr$[rbp], rax

; 39   :     __UNIT_TYPE* w_ptr = work2_buf;

	mov	rax, QWORD PTR work2_buf$[rbp]
	mov	QWORD PTR w_ptr$[rbp], rax

; 40   :     __UNIT_TYPE u_count = v_buf_count;

	mov	rax, QWORD PTR v_buf_count$[rbp]
	mov	QWORD PTR u_count$[rbp], rax

; 41   :     __UNIT_TYPE v_count = v_buf_count;

	mov	rax, QWORD PTR v_buf_count$[rbp]
	mov	QWORD PTR v_count$[rbp], rax

; 42   :     _COPY_MEMORY_UNIT(work1_buf, v_buf, v_buf_count);

	mov	r8, QWORD PTR v_buf_count$[rbp]
	mov	rdx, QWORD PTR v_buf$[rbp]
	mov	rcx, QWORD PTR work1_buf$[rbp]
	call	_COPY_MEMORY_UNIT

; 43   :     e_mask >>= 1;

	mov	eax, DWORD PTR e_mask$[rbp]
	shr	eax, 1
	mov	DWORD PTR e_mask$[rbp], eax
$LN2@Pow_Imp:

; 44   :     while (e_mask != 0)

	cmp	DWORD PTR e_mask$[rbp], 0
	je	$LN3@Pow_Imp

; 45   :     {
; 46   :         // u を自乗して w に格納する
; 47   :         _ZERO_MEMORY_UNIT(w_ptr, u_count * 2);

	mov	rax, QWORD PTR u_count$[rbp]
	add	rax, rax
	mov	rdx, rax
	mov	rcx, QWORD PTR w_ptr$[rbp]
	call	_ZERO_MEMORY_UNIT

; 48   :         Multiply_X_X_Imp(u_ptr, u_count, u_ptr, u_count, w_ptr);

	mov	rax, QWORD PTR w_ptr$[rbp]
	mov	QWORD PTR [rsp+32], rax
	mov	r9, QWORD PTR u_count$[rbp]
	mov	r8, QWORD PTR u_ptr$[rbp]
	mov	rdx, QWORD PTR u_count$[rbp]
	mov	rcx, QWORD PTR u_ptr$[rbp]
	call	Multiply_X_X_Imp

; 49   :         u_count *= 2;

	mov	rax, QWORD PTR u_count$[rbp]
	add	rax, rax
	mov	QWORD PTR u_count$[rbp], rax

; 50   :         if (w_ptr[u_count - 1] == 0)

	mov	rax, QWORD PTR w_ptr$[rbp]
	mov	rcx, QWORD PTR u_count$[rbp]
	cmp	QWORD PTR [rax+rcx*8-8], 0
	jne	SHORT $LN4@Pow_Imp

; 51   :             --u_count;

	mov	rax, QWORD PTR u_count$[rbp]
	dec	rax
	mov	QWORD PTR u_count$[rbp], rax
$LN4@Pow_Imp:

; 52   : 
; 53   :         // e の該当桁の bit を調べる
; 54   :         if (e & e_mask)

	mov	eax, DWORD PTR e_mask$[rbp]
	mov	ecx, DWORD PTR e$[rbp]
	and	ecx, eax
	mov	eax, ecx
	test	eax, eax
	je	$LN5@Pow_Imp

; 55   :         {
; 56   :             // bit が立っていたら u = w * v とする
; 57   :             _ZERO_MEMORY_UNIT(u_ptr, u_count + v_count);

	mov	rax, QWORD PTR v_count$[rbp]
	mov	rcx, QWORD PTR u_count$[rbp]
	add	rcx, rax
	mov	rax, rcx
	mov	rdx, rax
	mov	rcx, QWORD PTR u_ptr$[rbp]
	call	_ZERO_MEMORY_UNIT

; 58   :             Multiply_X_X_Imp(w_ptr, u_count, v_ptr, v_count, u_ptr);

	mov	rax, QWORD PTR u_ptr$[rbp]
	mov	QWORD PTR [rsp+32], rax
	mov	r9, QWORD PTR v_count$[rbp]
	mov	r8, QWORD PTR v_ptr$[rbp]
	mov	rdx, QWORD PTR u_count$[rbp]
	mov	rcx, QWORD PTR w_ptr$[rbp]
	call	Multiply_X_X_Imp

; 59   :             u_count += v_count;

	mov	rax, QWORD PTR v_count$[rbp]
	mov	rcx, QWORD PTR u_count$[rbp]
	add	rcx, rax
	mov	rax, rcx
	mov	QWORD PTR u_count$[rbp], rax

; 60   :             if (u_ptr[u_count - 1] == 0)

	mov	rax, QWORD PTR u_ptr$[rbp]
	mov	rcx, QWORD PTR u_count$[rbp]
	cmp	QWORD PTR [rax+rcx*8-8], 0
	jne	SHORT $LN7@Pow_Imp

; 61   :                 --u_count;

	mov	rax, QWORD PTR u_count$[rbp]
	dec	rax
	mov	QWORD PTR u_count$[rbp], rax
$LN7@Pow_Imp:

; 62   :         }

	jmp	SHORT $LN6@Pow_Imp
$LN5@Pow_Imp:

; 63   :         else
; 64   :         {
; 65   :             // u と w を交換する
; 66   :             __UNIT_TYPE* t_ptr = u_ptr;

	mov	rax, QWORD PTR u_ptr$[rbp]
	mov	QWORD PTR t_ptr$1[rbp], rax

; 67   :             u_ptr = w_ptr;

	mov	rax, QWORD PTR w_ptr$[rbp]
	mov	QWORD PTR u_ptr$[rbp], rax

; 68   :             w_ptr = t_ptr;

	mov	rax, QWORD PTR t_ptr$1[rbp]
	mov	QWORD PTR w_ptr$[rbp], rax
$LN6@Pow_Imp:

; 69   :         }
; 70   : 
; 71   :         e_mask >>= 1;

	mov	eax, DWORD PTR e_mask$[rbp]
	shr	eax, 1
	mov	DWORD PTR e_mask$[rbp], eax

; 72   :     }

	jmp	$LN2@Pow_Imp
$LN3@Pow_Imp:

; 73   :     _COPY_MEMORY_UNIT(r_buf, u_ptr, u_count);

	mov	r8, QWORD PTR u_count$[rbp]
	mov	rdx, QWORD PTR u_ptr$[rbp]
	mov	rcx, QWORD PTR r_buf$[rbp]
	call	_COPY_MEMORY_UNIT

; 74   : }

	lea	rsp, QWORD PTR [rbp+424]
	pop	rdi
	pop	rbp
	ret	0
Pow_Imp	ENDP
_TEXT	ENDS
; Function compile flags: /Odtp /RTCsu /ZI
; File z:\sources\lunor\repos\rougemeilland\palmtree.math.core.uint\palmtree.math.core.uint\pmc_inline_func.h
;	COMDAT _LZCNT_ALT_32
_TEXT	SEGMENT
pos$ = 4
x$ = 256
_LZCNT_ALT_32 PROC					; COMDAT

; 590  :     {

	mov	DWORD PTR [rsp+8], ecx
	push	rbp
	push	rdi
	sub	rsp, 264				; 00000108H
	lea	rbp, QWORD PTR [rsp+32]
	mov	rdi, rsp
	mov	ecx, 66					; 00000042H
	mov	eax, -858993460				; ccccccccH
	rep stosd
	mov	ecx, DWORD PTR [rsp+296]
	lea	rcx, OFFSET FLAT:__8CA3E54E_pmc_inline_func@h
	call	__CheckForDebuggerJustMyCode

; 591  :         if (x == 0)

	cmp	DWORD PTR x$[rbp], 0
	jne	SHORT $LN2@LZCNT_ALT_

; 592  :             return (sizeof(x) * 8);

	mov	eax, 32					; 00000020H
	jmp	SHORT $LN1@LZCNT_ALT_
$LN2@LZCNT_ALT_:

; 593  :         _UINT32_T pos;
; 594  : #ifdef _MSC_VER
; 595  :         _BitScanReverse(&pos, x);

	mov	eax, DWORD PTR x$[rbp]
	bsr	eax, eax
	mov	DWORD PTR pos$[rbp], eax

; 596  : #elif defined(__GNUC__)
; 597  :         __asm__("bsrl %1, %0" : "=r"(pos) : "rm"(x));
; 598  : #else
; 599  : #error unknown compiler
; 600  : #endif
; 601  :         return (sizeof(x) * 8 - 1 - pos);

	mov	eax, DWORD PTR pos$[rbp]
	mov	ecx, 31
	sub	rcx, rax
	mov	rax, rcx
$LN1@LZCNT_ALT_:

; 602  :     }

	mov	rdi, rax
	lea	rcx, QWORD PTR [rbp-32]
	lea	rdx, OFFSET FLAT:_LZCNT_ALT_32$rtcFrameData
	call	_RTC_CheckStackVars
	mov	rax, rdi
	lea	rsp, QWORD PTR [rbp+232]
	pop	rdi
	pop	rbp
	ret	0
_LZCNT_ALT_32 ENDP
_TEXT	ENDS
; Function compile flags: /Odtp /RTCsu /ZI
; File z:\sources\lunor\repos\rougemeilland\palmtree.math.core.uint\palmtree.math.core.uint\pmc_inline_func.h
;	COMDAT _ZERO_MEMORY_UNIT
_TEXT	SEGMENT
d$ = 224
count$ = 232
_ZERO_MEMORY_UNIT PROC					; COMDAT

; 110  :     {

	mov	QWORD PTR [rsp+16], rdx
	mov	QWORD PTR [rsp+8], rcx
	push	rbp
	push	rdi
	sub	rsp, 232				; 000000e8H
	lea	rbp, QWORD PTR [rsp+32]
	mov	rdi, rsp
	mov	ecx, 58					; 0000003aH
	mov	eax, -858993460				; ccccccccH
	rep stosd
	mov	rcx, QWORD PTR [rsp+264]
	lea	rcx, OFFSET FLAT:__8CA3E54E_pmc_inline_func@h
	call	__CheckForDebuggerJustMyCode

; 111  : #ifdef _M_IX86
; 112  :         __stosd((unsigned long*)d, 0, (unsigned long)count);
; 113  : #elif defined(_M_X64)
; 114  :         __stosq(d, 0, count);

	mov	rdi, QWORD PTR d$[rbp]
	xor	eax, eax
	mov	rcx, QWORD PTR count$[rbp]
	rep stosq

; 115  : #else
; 116  : #error unknown platform
; 117  : #endif
; 118  :     }

	lea	rsp, QWORD PTR [rbp+200]
	pop	rdi
	pop	rbp
	ret	0
_ZERO_MEMORY_UNIT ENDP
_TEXT	ENDS
; Function compile flags: /Odtp /RTCsu /ZI
; File z:\sources\lunor\repos\rougemeilland\palmtree.math.core.uint\palmtree.math.core.uint\pmc_inline_func.h
;	COMDAT _COPY_MEMORY_UNIT
_TEXT	SEGMENT
d$ = 224
s$ = 232
count$ = 240
_COPY_MEMORY_UNIT PROC					; COMDAT

; 60   :     {

	mov	QWORD PTR [rsp+24], r8
	mov	QWORD PTR [rsp+16], rdx
	mov	QWORD PTR [rsp+8], rcx
	push	rbp
	push	rsi
	push	rdi
	sub	rsp, 224				; 000000e0H
	lea	rbp, QWORD PTR [rsp+32]
	mov	rdi, rsp
	mov	ecx, 56					; 00000038H
	mov	eax, -858993460				; ccccccccH
	rep stosd
	mov	rcx, QWORD PTR [rsp+264]
	lea	rcx, OFFSET FLAT:__8CA3E54E_pmc_inline_func@h
	call	__CheckForDebuggerJustMyCode

; 61   : #ifdef _M_IX86
; 62   :         __movsd((unsigned long *)d, (unsigned long *)s, (unsigned long)count);
; 63   : #elif defined(_M_X64)
; 64   :         __movsq(d, s, count);

	mov	rdi, QWORD PTR d$[rbp]
	mov	rsi, QWORD PTR s$[rbp]
	mov	rcx, QWORD PTR count$[rbp]
	rep movsq

; 65   : #else
; 66   : #error unknown platform
; 67   : #endif
; 68   :     }

	lea	rsp, QWORD PTR [rbp+192]
	pop	rdi
	pop	rsi
	pop	rbp
	ret	0
_COPY_MEMORY_UNIT ENDP
_TEXT	ENDS
; Function compile flags: /Odtp /RTCsu /ZI
; File z:\sources\lunor\repos\rougemeilland\palmtree.math.core.uint\palmtree.math.core.uint\pmc_pow.c
;	COMDAT PMC_Pow_X_I
_TEXT	SEGMENT
result$ = 4
v$ = 256
e$ = 264
r$ = 272
PMC_Pow_X_I PROC					; COMDAT

; 176  : {

$LN9:
	mov	QWORD PTR [rsp+24], r8
	mov	DWORD PTR [rsp+16], edx
	mov	QWORD PTR [rsp+8], rcx
	push	rbp
	push	rdi
	sub	rsp, 264				; 00000108H
	lea	rbp, QWORD PTR [rsp+32]
	mov	rdi, rsp
	mov	ecx, 66					; 00000042H
	mov	eax, -858993460				; ccccccccH
	rep stosd
	mov	rcx, QWORD PTR [rsp+296]
	lea	rcx, OFFSET FLAT:__4FBA55E1_pmc_pow@c
	call	__CheckForDebuggerJustMyCode

; 177  :     if (__UNIT_TYPE_BIT_COUNT < sizeof(e) * 8)

	xor	eax, eax
	test	eax, eax
	je	SHORT $LN2@PMC_Pow_X_

; 178  :     {
; 179  :         // _UINT32_T が 1 ワードで表現しきれない処理系には対応しない
; 180  :         return (PMC_STATUS_INTERNAL_ERROR);

	mov	eax, -256				; ffffffffffffff00H
	jmp	$LN1@PMC_Pow_X_
$LN2@PMC_Pow_X_:

; 181  :     }
; 182  :     if (v == NULL)

	cmp	QWORD PTR v$[rbp], 0
	jne	SHORT $LN3@PMC_Pow_X_

; 183  :         return (PMC_STATUS_ARGUMENT_ERROR);

	mov	eax, -1
	jmp	SHORT $LN1@PMC_Pow_X_
$LN3@PMC_Pow_X_:

; 184  :     if (r == NULL)

	cmp	QWORD PTR r$[rbp], 0
	jne	SHORT $LN4@PMC_Pow_X_

; 185  :         return (PMC_STATUS_ARGUMENT_ERROR);

	mov	eax, -1
	jmp	SHORT $LN1@PMC_Pow_X_
$LN4@PMC_Pow_X_:

; 186  :     PMC_STATUS_CODE result;
; 187  :     if ((result = CheckNumber((NUMBER_HEADER*)v)) != PMC_STATUS_OK)

	mov	rcx, QWORD PTR v$[rbp]
	call	CheckNumber
	mov	DWORD PTR result$[rbp], eax
	cmp	DWORD PTR result$[rbp], 0
	je	SHORT $LN5@PMC_Pow_X_

; 188  :         return (result);

	mov	eax, DWORD PTR result$[rbp]
	jmp	SHORT $LN1@PMC_Pow_X_
$LN5@PMC_Pow_X_:

; 189  :     if ((result = PMC_Pow_X_I_Imp((NUMBER_HEADER*)v, e, (NUMBER_HEADER**)r)) != PMC_STATUS_OK)

	mov	r8, QWORD PTR r$[rbp]
	mov	edx, DWORD PTR e$[rbp]
	mov	rcx, QWORD PTR v$[rbp]
	call	PMC_Pow_X_I_Imp
	mov	DWORD PTR result$[rbp], eax
	cmp	DWORD PTR result$[rbp], 0
	je	SHORT $LN6@PMC_Pow_X_

; 190  :         return (result);

	mov	eax, DWORD PTR result$[rbp]
	jmp	SHORT $LN1@PMC_Pow_X_
$LN6@PMC_Pow_X_:

; 191  : #ifdef _DEBUG
; 192  :     if ((result = CheckNumber((NUMBER_HEADER*)*r)) != PMC_STATUS_OK)

	mov	rax, QWORD PTR r$[rbp]
	mov	rcx, QWORD PTR [rax]
	call	CheckNumber
	mov	DWORD PTR result$[rbp], eax
	cmp	DWORD PTR result$[rbp], 0
	je	SHORT $LN7@PMC_Pow_X_

; 193  :         return (result);

	mov	eax, DWORD PTR result$[rbp]
	jmp	SHORT $LN1@PMC_Pow_X_
$LN7@PMC_Pow_X_:

; 194  : #endif
; 195  :     return (PMC_STATUS_OK);

	xor	eax, eax
$LN1@PMC_Pow_X_:

; 196  : }

	lea	rsp, QWORD PTR [rbp+232]
	pop	rdi
	pop	rbp
	ret	0
PMC_Pow_X_I ENDP
_TEXT	ENDS
; Function compile flags: /Odtp /RTCsu /ZI
; File z:\sources\lunor\repos\rougemeilland\palmtree.math.core.uint\palmtree.math.core.uint\pmc_pow.c
;	COMDAT Initialize_Pow
_TEXT	SEGMENT
feature$ = 224
Initialize_Pow PROC					; COMDAT

; 199  : {

$LN3:
	mov	QWORD PTR [rsp+8], rcx
	push	rbp
	push	rdi
	sub	rsp, 232				; 000000e8H
	lea	rbp, QWORD PTR [rsp+32]
	mov	rdi, rsp
	mov	ecx, 58					; 0000003aH
	mov	eax, -858993460				; ccccccccH
	rep stosd
	mov	rcx, QWORD PTR [rsp+264]
	lea	rcx, OFFSET FLAT:__4FBA55E1_pmc_pow@c
	call	__CheckForDebuggerJustMyCode

; 200  :     return (PMC_STATUS_OK);

	xor	eax, eax

; 201  : }

	lea	rsp, QWORD PTR [rbp+200]
	pop	rdi
	pop	rbp
	ret	0
Initialize_Pow ENDP
_TEXT	ENDS
END
