; Listing generated by Microsoft (R) Optimizing Compiler Version 19.16.27026.1 

include listing.inc

INCLUDELIB MSVCRTD
INCLUDELIB OLDNAMES

msvcjmc	SEGMENT
__7B7A869E_ctype@h DB 01H
__457DD326_basetsd@h DB 01H
__4384A2D9_corecrt_memcpy_s@h DB 01H
__4E51A221_corecrt_wstring@h DB 01H
__2140C079_string@h DB 01H
__1887E595_winnt@h DB 01H
__9FC7C64B_processthreadsapi@h DB 01H
__FA470AEC_memoryapi@h DB 01H
__F37DAFF1_winerror@h DB 01H
__7A450CCC_winbase@h DB 01H
__B4B40122_winioctl@h DB 01H
__86261D59_stralign@h DB 01H
__BB6D3116_pmc_uint_internal@h DB 01H
__8CA3E54E_pmc_inline_func@h DB 01H
__01E10085_pmc_equals@c DB 01H
msvcjmc	ENDS
PUBLIC	Initialize_Equals
PUBLIC	PMC_Equals_I_X
PUBLIC	PMC_Equals_L_X
PUBLIC	PMC_Equals_X_I
PUBLIC	PMC_Equals_X_L
PUBLIC	PMC_Equals_X_X
PUBLIC	__JustMyCode_Default
EXTRN	CheckNumber:PROC
EXTRN	_RTC_CheckStackVars:PROC
EXTRN	_RTC_InitBase:PROC
EXTRN	_RTC_Shutdown:PROC
EXTRN	__CheckForDebuggerJustMyCode:PROC
;	COMDAT pdata
pdata	SEGMENT
$pdata$Initialize_Equals DD imagerel $LN3
	DD	imagerel $LN3+66
	DD	imagerel $unwind$Initialize_Equals
pdata	ENDS
;	COMDAT pdata
pdata	SEGMENT
$pdata$PMC_Equals_I_X DD imagerel $LN8
	DD	imagerel $LN8+205
	DD	imagerel $unwind$PMC_Equals_I_X
pdata	ENDS
;	COMDAT pdata
pdata	SEGMENT
$pdata$PMC_Equals_L_X DD imagerel $LN8
	DD	imagerel $LN8+208
	DD	imagerel $unwind$PMC_Equals_L_X
pdata	ENDS
;	COMDAT pdata
pdata	SEGMENT
$pdata$PMC_Equals_X_I DD imagerel $LN8
	DD	imagerel $LN8+206
	DD	imagerel $unwind$PMC_Equals_X_I
pdata	ENDS
;	COMDAT pdata
pdata	SEGMENT
$pdata$PMC_Equals_X_L DD imagerel $LN8
	DD	imagerel $LN8+208
	DD	imagerel $unwind$PMC_Equals_X_L
pdata	ENDS
;	COMDAT pdata
pdata	SEGMENT
$pdata$PMC_Equals_X_X DD imagerel $LN17
	DD	imagerel $LN17+427
	DD	imagerel $unwind$PMC_Equals_X_X
pdata	ENDS
;	COMDAT pdata
pdata	SEGMENT
$pdata$_FROMDWORDTOWORD DD imagerel _FROMDWORDTOWORD
	DD	imagerel _FROMDWORDTOWORD+95
	DD	imagerel $unwind$_FROMDWORDTOWORD
pdata	ENDS
;	COMDAT pdata
pdata	SEGMENT
$pdata$_LZCNT_ALT_32 DD imagerel _LZCNT_ALT_32
	DD	imagerel _LZCNT_ALT_32+126
	DD	imagerel $unwind$_LZCNT_ALT_32
pdata	ENDS
;	COMDAT pdata
pdata	SEGMENT
$pdata$_LZCNT_ALT_UNIT DD imagerel _LZCNT_ALT_UNIT
	DD	imagerel _LZCNT_ALT_UNIT+131
	DD	imagerel $unwind$_LZCNT_ALT_UNIT
pdata	ENDS
;	COMDAT pdata
pdata	SEGMENT
$pdata$Equals_X_I_Imp DD imagerel Equals_X_I_Imp
	DD	imagerel Equals_X_I_Imp+265
	DD	imagerel $unwind$Equals_X_I_Imp
pdata	ENDS
;	COMDAT pdata
pdata	SEGMENT
$pdata$Equals_X_L_Imp DD imagerel Equals_X_L_Imp
	DD	imagerel Equals_X_L_Imp+621
	DD	imagerel $unwind$Equals_X_L_Imp
pdata	ENDS
;	COMDAT pdata
pdata	SEGMENT
$pdata$Equals_X_X_Imp DD imagerel Equals_X_X_Imp
	DD	imagerel Equals_X_X_Imp+170
	DD	imagerel $unwind$Equals_X_X_Imp
pdata	ENDS
;	COMDAT rtc$TMZ
rtc$TMZ	SEGMENT
_RTC_Shutdown.rtc$TMZ DQ FLAT:_RTC_Shutdown
rtc$TMZ	ENDS
;	COMDAT rtc$IMZ
rtc$IMZ	SEGMENT
_RTC_InitBase.rtc$IMZ DQ FLAT:_RTC_InitBase
rtc$IMZ	ENDS
;	COMDAT xdata
xdata	SEGMENT
$unwind$Equals_X_X_Imp DD 025053401H
	DD	0118231dH
	DD	07011001dH
	DD	05010H
xdata	ENDS
;	COMDAT xdata
xdata	SEGMENT
$unwind$Equals_X_L_Imp DD 025052f01H
	DD	01132318H
	DD	0700c0039H
	DD	0500bH
xdata	ENDS
;	COMDAT CONST
CONST	SEGMENT
Equals_X_L_Imp$rtcName$0 DB 076H
	DB	05fH
	DB	068H
	DB	069H
	DB	00H
	ORG $+11
Equals_X_L_Imp$rtcVarDesc DD 044H
	DD	04H
	DQ	FLAT:Equals_X_L_Imp$rtcName$0
	ORG $+48
Equals_X_L_Imp$rtcFrameData DD 01H
	DD	00H
	DQ	FLAT:Equals_X_L_Imp$rtcVarDesc
CONST	ENDS
;	COMDAT xdata
xdata	SEGMENT
$unwind$Equals_X_I_Imp DD 025052e01H
	DD	01122317H
	DD	0700b0025H
	DD	0500aH
xdata	ENDS
;	COMDAT xdata
xdata	SEGMENT
$unwind$_LZCNT_ALT_UNIT DD 025052a01H
	DD	010e2313H
	DD	070070021H
	DD	05006H
xdata	ENDS
;	COMDAT CONST
CONST	SEGMENT
_LZCNT_ALT_UNIT$rtcName$0 DB 070H
	DB	06fH
	DB	073H
	DB	00H
	ORG $+12
_LZCNT_ALT_UNIT$rtcVarDesc DD 024H
	DD	04H
	DQ	FLAT:_LZCNT_ALT_UNIT$rtcName$0
	ORG $+48
_LZCNT_ALT_UNIT$rtcFrameData DD 01H
	DD	00H
	DQ	FLAT:_LZCNT_ALT_UNIT$rtcVarDesc
CONST	ENDS
;	COMDAT xdata
xdata	SEGMENT
$unwind$_LZCNT_ALT_32 DD 025052801H
	DD	010d2312H
	DD	070060021H
	DD	05005H
xdata	ENDS
;	COMDAT CONST
CONST	SEGMENT
_LZCNT_ALT_32$rtcName$0 DB 070H
	DB	06fH
	DB	073H
	DB	00H
	ORG $+12
_LZCNT_ALT_32$rtcVarDesc DD 024H
	DD	04H
	DQ	FLAT:_LZCNT_ALT_32$rtcName$0
	ORG $+48
_LZCNT_ALT_32$rtcFrameData DD 01H
	DD	00H
	DQ	FLAT:_LZCNT_ALT_32$rtcVarDesc
CONST	ENDS
;	COMDAT xdata
xdata	SEGMENT
$unwind$_FROMDWORDTOWORD DD 025052f01H
	DD	01132318H
	DD	0700c001dH
	DD	0500bH
xdata	ENDS
;	COMDAT xdata
xdata	SEGMENT
$unwind$PMC_Equals_X_X DD 025053401H
	DD	0118231dH
	DD	070110031H
	DD	05010H
xdata	ENDS
;	COMDAT xdata
xdata	SEGMENT
$unwind$PMC_Equals_X_L DD 025053401H
	DD	0118231dH
	DD	070110021H
	DD	05010H
xdata	ENDS
;	COMDAT xdata
xdata	SEGMENT
$unwind$PMC_Equals_X_I DD 025053301H
	DD	0117231cH
	DD	070100021H
	DD	0500fH
xdata	ENDS
;	COMDAT xdata
xdata	SEGMENT
$unwind$PMC_Equals_L_X DD 025053401H
	DD	0118231dH
	DD	070110021H
	DD	05010H
xdata	ENDS
;	COMDAT xdata
xdata	SEGMENT
$unwind$PMC_Equals_I_X DD 025053201H
	DD	0117231cH
	DD	070100021H
	DD	0500fH
xdata	ENDS
;	COMDAT xdata
xdata	SEGMENT
$unwind$Initialize_Equals DD 025052a01H
	DD	010e2313H
	DD	07007001dH
	DD	05006H
xdata	ENDS
; Function compile flags: /Odt
;	COMDAT __JustMyCode_Default
_TEXT	SEGMENT
__JustMyCode_Default PROC				; COMDAT
	ret	0
__JustMyCode_Default ENDP
_TEXT	ENDS
; Function compile flags: /Odtp /RTCsu /ZI
; File z:\sources\lunor\repos\rougemeilland\palmtree.math.core.uint\palmtree.math.core.uint\pmc_equals.c
;	COMDAT Equals_X_X_Imp
_TEXT	SEGMENT
u$ = 224
v$ = 232
count$ = 240
Equals_X_X_Imp PROC					; COMDAT

; 139  : {

	mov	QWORD PTR [rsp+24], r8
	mov	QWORD PTR [rsp+16], rdx
	mov	QWORD PTR [rsp+8], rcx
	push	rbp
	push	rdi
	sub	rsp, 232				; 000000e8H
	lea	rbp, QWORD PTR [rsp+32]
	mov	rdi, rsp
	mov	ecx, 58					; 0000003aH
	mov	eax, -858993460				; ccccccccH
	rep stosd
	mov	rcx, QWORD PTR [rsp+264]
	lea	rcx, OFFSET FLAT:__01E10085_pmc_equals@c
	call	__CheckForDebuggerJustMyCode
$LN2@Equals_X_X:

; 140  :     while (count > 0)

	cmp	QWORD PTR count$[rbp], 0
	jbe	SHORT $LN3@Equals_X_X

; 141  :     {
; 142  :         if (*u != *v)

	mov	rax, QWORD PTR u$[rbp]
	mov	rcx, QWORD PTR v$[rbp]
	mov	rcx, QWORD PTR [rcx]
	cmp	QWORD PTR [rax], rcx
	je	SHORT $LN4@Equals_X_X

; 143  :             return (0);

	xor	eax, eax
	jmp	SHORT $LN1@Equals_X_X
$LN4@Equals_X_X:

; 144  :         ++u;

	mov	rax, QWORD PTR u$[rbp]
	add	rax, 8
	mov	QWORD PTR u$[rbp], rax

; 145  :         ++v;

	mov	rax, QWORD PTR v$[rbp]
	add	rax, 8
	mov	QWORD PTR v$[rbp], rax

; 146  :         --count;

	mov	rax, QWORD PTR count$[rbp]
	dec	rax
	mov	QWORD PTR count$[rbp], rax

; 147  :     }

	jmp	SHORT $LN2@Equals_X_X
$LN3@Equals_X_X:

; 148  :     return (1);

	mov	eax, 1
$LN1@Equals_X_X:

; 149  : }

	lea	rsp, QWORD PTR [rbp+200]
	pop	rdi
	pop	rbp
	ret	0
Equals_X_X_Imp ENDP
_TEXT	ENDS
; Function compile flags: /Odtp /RTCsu /ZI
; File z:\sources\lunor\repos\rougemeilland\palmtree.math.core.uint\palmtree.math.core.uint\pmc_equals.c
;	COMDAT Equals_X_L_Imp
_TEXT	SEGMENT
u_bit_count$4 = 8
v_hi$5 = 36
v_lo$6 = 68
v_bit_count$7 = 104
v_bit_count$8 = 136
u_bit_count$9 = 168
v_bit_count$10 = 200
tv145 = 404
tv134 = 404
tv86 = 404
tv68 = 404
u$ = 448
v$ = 456
Equals_X_L_Imp PROC					; COMDAT

; 63   : {

	mov	QWORD PTR [rsp+16], rdx
	mov	QWORD PTR [rsp+8], rcx
	push	rbp
	push	rdi
	sub	rsp, 456				; 000001c8H
	lea	rbp, QWORD PTR [rsp+32]
	mov	rdi, rsp
	mov	ecx, 114				; 00000072H
	mov	eax, -858993460				; ccccccccH
	rep stosd
	mov	rcx, QWORD PTR [rsp+488]
	lea	rcx, OFFSET FLAT:__01E10085_pmc_equals@c
	call	__CheckForDebuggerJustMyCode

; 64   :     if (u->IS_ZERO)

	mov	rax, QWORD PTR u$[rbp]
	mov	eax, DWORD PTR [rax]
	and	eax, 1
	test	eax, eax
	je	SHORT $LN2@Equals_X_L

; 65   :     {
; 66   :         // u が 0 である場合
; 67   :         return (v == 0);

	cmp	QWORD PTR v$[rbp], 0
	jne	SHORT $LN17@Equals_X_L
	mov	DWORD PTR tv68[rbp], 1
	jmp	SHORT $LN18@Equals_X_L
$LN17@Equals_X_L:
	mov	DWORD PTR tv68[rbp], 0
$LN18@Equals_X_L:
	mov	eax, DWORD PTR tv68[rbp]
	jmp	$LN1@Equals_X_L

; 68   :     }

	jmp	$LN3@Equals_X_L
$LN2@Equals_X_L:

; 69   :     else if (v == 0)

	cmp	QWORD PTR v$[rbp], 0
	jne	SHORT $LN4@Equals_X_L

; 70   :     {
; 71   :         // v が 0 である場合
; 72   :         return (0);

	xor	eax, eax
	jmp	$LN1@Equals_X_L

; 73   :     }

	jmp	$LN5@Equals_X_L
$LN4@Equals_X_L:

; 74   :     else
; 75   :     {
; 76   :         // u と v がともに 0 ではない場合
; 77   :         if (__UNIT_TYPE_BIT_COUNT < sizeof(v) * 8)

	xor	eax, eax
	test	eax, eax
	je	$LN6@Equals_X_L

; 78   :         {
; 79   :             // _UINT64_T が 1 ワードで表現しきれない場合
; 80   :             __UNIT_TYPE u_bit_count = u->UNIT_BIT_COUNT;

	mov	rax, QWORD PTR u$[rbp]
	mov	rax, QWORD PTR [rax+24]
	mov	QWORD PTR u_bit_count$4[rbp], rax

; 81   :             _UINT32_T v_hi;
; 82   :             _UINT32_T v_lo = _FROMDWORDTOWORD(v, &v_hi);

	lea	rdx, QWORD PTR v_hi$5[rbp]
	mov	rcx, QWORD PTR v$[rbp]
	call	_FROMDWORDTOWORD
	mov	DWORD PTR v_lo$6[rbp], eax

; 83   :             if (v_hi == 0)

	cmp	DWORD PTR v_hi$5[rbp], 0
	jne	SHORT $LN8@Equals_X_L

; 84   :             {
; 85   :                 // v の値が 32bit では表現できる場合
; 86   :                 __UNIT_TYPE v_bit_count = sizeof(v_lo) * 8 - _LZCNT_ALT_32(v_lo);

	mov	ecx, DWORD PTR v_lo$6[rbp]
	call	_LZCNT_ALT_32
	cdqe
	mov	ecx, 32					; 00000020H
	sub	rcx, rax
	mov	rax, rcx
	mov	QWORD PTR v_bit_count$7[rbp], rax

; 87   :                 if (u_bit_count != v_bit_count)

	mov	rax, QWORD PTR v_bit_count$7[rbp]
	cmp	QWORD PTR u_bit_count$4[rbp], rax
	je	SHORT $LN10@Equals_X_L

; 88   :                 {
; 89   :                     // 明らかに u > v である場合
; 90   :                     return (0);

	xor	eax, eax
	jmp	$LN1@Equals_X_L

; 91   :                 }

	jmp	SHORT $LN11@Equals_X_L
$LN10@Equals_X_L:

; 92   :                 else
; 93   :                 {
; 94   :                     // u > 0 && v > 0 かつ u のビット長と v のビット長が等しく、かつ v が 1 ワードで表現できる場合
; 95   :                     // ⇒ u と v はともに 1 ワードで表現できる
; 96   :                     return (u->BLOCK[0] == v_lo);

	mov	eax, 8
	imul	rax, rax, 0
	mov	rcx, QWORD PTR u$[rbp]
	mov	rcx, QWORD PTR [rcx+64]
	mov	edx, DWORD PTR v_lo$6[rbp]
	cmp	QWORD PTR [rax+rcx], rdx
	jne	SHORT $LN19@Equals_X_L
	mov	DWORD PTR tv86[rbp], 1
	jmp	SHORT $LN20@Equals_X_L
$LN19@Equals_X_L:
	mov	DWORD PTR tv86[rbp], 0
$LN20@Equals_X_L:
	mov	eax, DWORD PTR tv86[rbp]
	jmp	$LN1@Equals_X_L
$LN11@Equals_X_L:

; 97   :                 }
; 98   :             }

	jmp	$LN9@Equals_X_L
$LN8@Equals_X_L:

; 99   :             else
; 100  :             {
; 101  :                 // v の値が 32bit では表現できない場合
; 102  :                 __UNIT_TYPE v_bit_count = sizeof(v) * 8 - _LZCNT_ALT_32(v_hi);

	mov	ecx, DWORD PTR v_hi$5[rbp]
	call	_LZCNT_ALT_32
	cdqe
	mov	ecx, 64					; 00000040H
	sub	rcx, rax
	mov	rax, rcx
	mov	QWORD PTR v_bit_count$8[rbp], rax

; 103  :                 if (u_bit_count != v_bit_count)

	mov	rax, QWORD PTR v_bit_count$8[rbp]
	cmp	QWORD PTR u_bit_count$4[rbp], rax
	je	SHORT $LN12@Equals_X_L

; 104  :                 {
; 105  :                     // 明らかに u > v である場合
; 106  :                     return (0);

	xor	eax, eax
	jmp	$LN1@Equals_X_L

; 107  :                 }

	jmp	SHORT $LN13@Equals_X_L
$LN12@Equals_X_L:

; 108  :                 else
; 109  :                 {
; 110  :                     // u > 0 && v > 0 かつ u のビット長と v のビット長が等しく、かつ v が 2 ワードで表現できる場合
; 111  :                     // ⇒ u と v はともに 2 ワードで表現できる
; 112  :                     return (u->BLOCK[1] == v_hi && u->BLOCK[0] == v_lo);

	mov	eax, 8
	imul	rax, rax, 1
	mov	rcx, QWORD PTR u$[rbp]
	mov	rcx, QWORD PTR [rcx+64]
	mov	edx, DWORD PTR v_hi$5[rbp]
	cmp	QWORD PTR [rax+rcx], rdx
	jne	SHORT $LN21@Equals_X_L
	mov	eax, 8
	imul	rax, rax, 0
	mov	rcx, QWORD PTR u$[rbp]
	mov	rcx, QWORD PTR [rcx+64]
	mov	edx, DWORD PTR v_lo$6[rbp]
	cmp	QWORD PTR [rax+rcx], rdx
	jne	SHORT $LN21@Equals_X_L
	mov	DWORD PTR tv134[rbp], 1
	jmp	SHORT $LN22@Equals_X_L
$LN21@Equals_X_L:
	mov	DWORD PTR tv134[rbp], 0
$LN22@Equals_X_L:
	mov	eax, DWORD PTR tv134[rbp]
	jmp	$LN1@Equals_X_L
$LN13@Equals_X_L:
$LN9@Equals_X_L:

; 113  :                 }
; 114  :             }
; 115  :         }

	jmp	$LN7@Equals_X_L
$LN6@Equals_X_L:

; 116  :         else
; 117  :         {
; 118  :             // _UINT64_T が 1 ワードで表現できる場合
; 119  : 
; 120  :             __UNIT_TYPE u_bit_count = u->UNIT_BIT_COUNT;

	mov	rax, QWORD PTR u$[rbp]
	mov	rax, QWORD PTR [rax+24]
	mov	QWORD PTR u_bit_count$9[rbp], rax

; 121  :             __UNIT_TYPE v_bit_count = sizeof(v) * 8 - _LZCNT_ALT_UNIT((__UNIT_TYPE)v);

	mov	rcx, QWORD PTR v$[rbp]
	call	_LZCNT_ALT_UNIT
	cdqe
	mov	ecx, 64					; 00000040H
	sub	rcx, rax
	mov	rax, rcx
	mov	QWORD PTR v_bit_count$10[rbp], rax

; 122  :             if (u_bit_count != v_bit_count)

	mov	rax, QWORD PTR v_bit_count$10[rbp]
	cmp	QWORD PTR u_bit_count$9[rbp], rax
	je	SHORT $LN14@Equals_X_L

; 123  :             {
; 124  :                 // 明らかに u > v である場合
; 125  :                 return (0);

	xor	eax, eax
	jmp	SHORT $LN1@Equals_X_L

; 126  :             }

	jmp	SHORT $LN15@Equals_X_L
$LN14@Equals_X_L:

; 127  :             else
; 128  :             {
; 129  :                 // u > 0 && v > 0 かつ u のビット長と v のビット長が等しく、かつ v が 1 ワードで表現できる場合
; 130  :                 // ⇒ u と v はともに 1 ワードで表現できる
; 131  :                 return (u->BLOCK[0] == v);

	mov	eax, 8
	imul	rax, rax, 0
	mov	rcx, QWORD PTR u$[rbp]
	mov	rcx, QWORD PTR [rcx+64]
	mov	rdx, QWORD PTR v$[rbp]
	cmp	QWORD PTR [rax+rcx], rdx
	jne	SHORT $LN23@Equals_X_L
	mov	DWORD PTR tv145[rbp], 1
	jmp	SHORT $LN24@Equals_X_L
$LN23@Equals_X_L:
	mov	DWORD PTR tv145[rbp], 0
$LN24@Equals_X_L:
	mov	eax, DWORD PTR tv145[rbp]
	jmp	SHORT $LN1@Equals_X_L
$LN15@Equals_X_L:
$LN7@Equals_X_L:
$LN5@Equals_X_L:
$LN3@Equals_X_L:

; 132  :             }
; 133  :         }
; 134  :     }
; 135  :     return (PMC_STATUS_OK);

	xor	eax, eax
$LN1@Equals_X_L:

; 136  : }

	mov	rdi, rax
	lea	rcx, QWORD PTR [rbp-32]
	lea	rdx, OFFSET FLAT:Equals_X_L_Imp$rtcFrameData
	call	_RTC_CheckStackVars
	mov	rax, rdi
	lea	rsp, QWORD PTR [rbp+424]
	pop	rdi
	pop	rbp
	ret	0
Equals_X_L_Imp ENDP
_TEXT	ENDS
; Function compile flags: /Odtp /RTCsu /ZI
; File z:\sources\lunor\repos\rougemeilland\palmtree.math.core.uint\palmtree.math.core.uint\pmc_equals.c
;	COMDAT Equals_X_I_Imp
_TEXT	SEGMENT
u_bit_count$1 = 8
v_bit_count$2 = 40
tv81 = 244
tv68 = 244
u$ = 288
v$ = 296
Equals_X_I_Imp PROC					; COMDAT

; 32   : {

	mov	DWORD PTR [rsp+16], edx
	mov	QWORD PTR [rsp+8], rcx
	push	rbp
	push	rdi
	sub	rsp, 296				; 00000128H
	lea	rbp, QWORD PTR [rsp+32]
	mov	rdi, rsp
	mov	ecx, 74					; 0000004aH
	mov	eax, -858993460				; ccccccccH
	rep stosd
	mov	rcx, QWORD PTR [rsp+328]
	lea	rcx, OFFSET FLAT:__01E10085_pmc_equals@c
	call	__CheckForDebuggerJustMyCode

; 33   :     if (u->IS_ZERO)

	mov	rax, QWORD PTR u$[rbp]
	mov	eax, DWORD PTR [rax]
	and	eax, 1
	test	eax, eax
	je	SHORT $LN2@Equals_X_I

; 34   :     {
; 35   :         // u が 0 である場合
; 36   :         return (v == 0);

	cmp	DWORD PTR v$[rbp], 0
	jne	SHORT $LN9@Equals_X_I
	mov	DWORD PTR tv68[rbp], 1
	jmp	SHORT $LN10@Equals_X_I
$LN9@Equals_X_I:
	mov	DWORD PTR tv68[rbp], 0
$LN10@Equals_X_I:
	mov	eax, DWORD PTR tv68[rbp]
	jmp	$LN1@Equals_X_I

; 37   :     }

	jmp	$LN3@Equals_X_I
$LN2@Equals_X_I:

; 38   :     else if (v == 0)

	cmp	DWORD PTR v$[rbp], 0
	jne	SHORT $LN4@Equals_X_I

; 39   :     {
; 40   :         // v が 0 である場合
; 41   :         return (0);

	xor	eax, eax
	jmp	SHORT $LN1@Equals_X_I

; 42   :     }

	jmp	SHORT $LN5@Equals_X_I
$LN4@Equals_X_I:

; 43   :     else
; 44   :     {
; 45   :         // x と y がともに 0 ではない場合
; 46   :         __UNIT_TYPE u_bit_count = u->UNIT_BIT_COUNT;

	mov	rax, QWORD PTR u$[rbp]
	mov	rax, QWORD PTR [rax+24]
	mov	QWORD PTR u_bit_count$1[rbp], rax

; 47   :         __UNIT_TYPE v_bit_count = sizeof(v) * 8 - _LZCNT_ALT_32(v);

	mov	ecx, DWORD PTR v$[rbp]
	call	_LZCNT_ALT_32
	cdqe
	mov	ecx, 32					; 00000020H
	sub	rcx, rax
	mov	rax, rcx
	mov	QWORD PTR v_bit_count$2[rbp], rax

; 48   :         if (u_bit_count != v_bit_count)

	mov	rax, QWORD PTR v_bit_count$2[rbp]
	cmp	QWORD PTR u_bit_count$1[rbp], rax
	je	SHORT $LN6@Equals_X_I

; 49   :         {
; 50   :             // 明らかに u != v である場合
; 51   :             return (0);

	xor	eax, eax
	jmp	SHORT $LN1@Equals_X_I

; 52   :         }

	jmp	SHORT $LN7@Equals_X_I
$LN6@Equals_X_I:

; 53   :         else
; 54   :         {
; 55   :             // u > 0 && v > 0 かつ u のビット長と v のビット長が等しい場合
; 56   :             // ⇒ u と v はともに 1 ワードで表現できる
; 57   :             return ( u->BLOCK[0] == v);

	mov	eax, 8
	imul	rax, rax, 0
	mov	rcx, QWORD PTR u$[rbp]
	mov	rcx, QWORD PTR [rcx+64]
	mov	edx, DWORD PTR v$[rbp]
	cmp	QWORD PTR [rax+rcx], rdx
	jne	SHORT $LN11@Equals_X_I
	mov	DWORD PTR tv81[rbp], 1
	jmp	SHORT $LN12@Equals_X_I
$LN11@Equals_X_I:
	mov	DWORD PTR tv81[rbp], 0
$LN12@Equals_X_I:
	mov	eax, DWORD PTR tv81[rbp]
$LN7@Equals_X_I:
$LN5@Equals_X_I:
$LN3@Equals_X_I:
$LN1@Equals_X_I:

; 58   :         }
; 59   :     }
; 60   : }

	lea	rsp, QWORD PTR [rbp+264]
	pop	rdi
	pop	rbp
	ret	0
Equals_X_I_Imp ENDP
_TEXT	ENDS
; Function compile flags: /Odtp /RTCsu /ZI
; File z:\sources\lunor\repos\rougemeilland\palmtree.math.core.uint\palmtree.math.core.uint\pmc_inline_func.h
;	COMDAT _LZCNT_ALT_UNIT
_TEXT	SEGMENT
pos$ = 4
x$ = 256
_LZCNT_ALT_UNIT PROC					; COMDAT

; 623  :     {

	mov	QWORD PTR [rsp+8], rcx
	push	rbp
	push	rdi
	sub	rsp, 264				; 00000108H
	lea	rbp, QWORD PTR [rsp+32]
	mov	rdi, rsp
	mov	ecx, 66					; 00000042H
	mov	eax, -858993460				; ccccccccH
	rep stosd
	mov	rcx, QWORD PTR [rsp+296]
	lea	rcx, OFFSET FLAT:__8CA3E54E_pmc_inline_func@h
	call	__CheckForDebuggerJustMyCode

; 624  :         if (x == 0)

	cmp	QWORD PTR x$[rbp], 0
	jne	SHORT $LN2@LZCNT_ALT_

; 625  :             return (sizeof(x) * 8);

	mov	eax, 64					; 00000040H
	jmp	SHORT $LN1@LZCNT_ALT_
$LN2@LZCNT_ALT_:

; 626  : #ifdef _M_IX86
; 627  :         _UINT32_T pos;
; 628  : #ifdef _MSC_VER
; 629  :         _BitScanReverse(&pos, x);
; 630  : #elif defined(__GNUC__)
; 631  :         __asm__("bsrl %1, %0" : "=r"(pos) : "rm"(x));
; 632  : #else
; 633  : #error unknown compiler
; 634  : #endif
; 635  : #elif defined(_M_X64)
; 636  : #ifdef _MSC_VER
; 637  :         _UINT32_T pos;
; 638  :         _BitScanReverse64(&pos, x);

	mov	rax, QWORD PTR x$[rbp]
	bsr	rax, rax
	mov	DWORD PTR pos$[rbp], eax

; 639  : #elif defined(__GNUC__)
; 640  :         _UINT64_T pos;
; 641  :         __asm__("bsrq %1, %0" : "=r"(pos) : "rm"(x));
; 642  : #else
; 643  : #error unknown compiler
; 644  : #endif
; 645  : #else
; 646  : #error unknown platform
; 647  : #endif
; 648  :         return (sizeof(x) * 8 - 1 - pos);

	mov	eax, DWORD PTR pos$[rbp]
	mov	ecx, 63					; 0000003fH
	sub	rcx, rax
	mov	rax, rcx
$LN1@LZCNT_ALT_:

; 649  :     }

	mov	rdi, rax
	lea	rcx, QWORD PTR [rbp-32]
	lea	rdx, OFFSET FLAT:_LZCNT_ALT_UNIT$rtcFrameData
	call	_RTC_CheckStackVars
	mov	rax, rdi
	lea	rsp, QWORD PTR [rbp+232]
	pop	rdi
	pop	rbp
	ret	0
_LZCNT_ALT_UNIT ENDP
_TEXT	ENDS
; Function compile flags: /Odtp /RTCsu /ZI
; File z:\sources\lunor\repos\rougemeilland\palmtree.math.core.uint\palmtree.math.core.uint\pmc_inline_func.h
;	COMDAT _LZCNT_ALT_32
_TEXT	SEGMENT
pos$ = 4
x$ = 256
_LZCNT_ALT_32 PROC					; COMDAT

; 590  :     {

	mov	DWORD PTR [rsp+8], ecx
	push	rbp
	push	rdi
	sub	rsp, 264				; 00000108H
	lea	rbp, QWORD PTR [rsp+32]
	mov	rdi, rsp
	mov	ecx, 66					; 00000042H
	mov	eax, -858993460				; ccccccccH
	rep stosd
	mov	ecx, DWORD PTR [rsp+296]
	lea	rcx, OFFSET FLAT:__8CA3E54E_pmc_inline_func@h
	call	__CheckForDebuggerJustMyCode

; 591  :         if (x == 0)

	cmp	DWORD PTR x$[rbp], 0
	jne	SHORT $LN2@LZCNT_ALT_

; 592  :             return (sizeof(x) * 8);

	mov	eax, 32					; 00000020H
	jmp	SHORT $LN1@LZCNT_ALT_
$LN2@LZCNT_ALT_:

; 593  :         _UINT32_T pos;
; 594  : #ifdef _MSC_VER
; 595  :         _BitScanReverse(&pos, x);

	mov	eax, DWORD PTR x$[rbp]
	bsr	eax, eax
	mov	DWORD PTR pos$[rbp], eax

; 596  : #elif defined(__GNUC__)
; 597  :         __asm__("bsrl %1, %0" : "=r"(pos) : "rm"(x));
; 598  : #else
; 599  : #error unknown compiler
; 600  : #endif
; 601  :         return (sizeof(x) * 8 - 1 - pos);

	mov	eax, DWORD PTR pos$[rbp]
	mov	ecx, 31
	sub	rcx, rax
	mov	rax, rcx
$LN1@LZCNT_ALT_:

; 602  :     }

	mov	rdi, rax
	lea	rcx, QWORD PTR [rbp-32]
	lea	rdx, OFFSET FLAT:_LZCNT_ALT_32$rtcFrameData
	call	_RTC_CheckStackVars
	mov	rax, rdi
	lea	rsp, QWORD PTR [rbp+232]
	pop	rdi
	pop	rbp
	ret	0
_LZCNT_ALT_32 ENDP
_TEXT	ENDS
; Function compile flags: /Odtp /RTCsu /ZI
; File z:\sources\lunor\repos\rougemeilland\palmtree.math.core.uint\palmtree.math.core.uint\pmc_inline_func.h
;	COMDAT _FROMDWORDTOWORD
_TEXT	SEGMENT
value$ = 224
result_high$ = 232
_FROMDWORDTOWORD PROC					; COMDAT

; 176  :     {

	mov	QWORD PTR [rsp+16], rdx
	mov	QWORD PTR [rsp+8], rcx
	push	rbp
	push	rdi
	sub	rsp, 232				; 000000e8H
	lea	rbp, QWORD PTR [rsp+32]
	mov	rdi, rsp
	mov	ecx, 58					; 0000003aH
	mov	eax, -858993460				; ccccccccH
	rep stosd
	mov	rcx, QWORD PTR [rsp+264]
	lea	rcx, OFFSET FLAT:__8CA3E54E_pmc_inline_func@h
	call	__CheckForDebuggerJustMyCode

; 177  :         *result_high = (_UINT32_T)(value >> 32);

	mov	rax, QWORD PTR value$[rbp]
	shr	rax, 32					; 00000020H
	mov	rcx, QWORD PTR result_high$[rbp]
	mov	DWORD PTR [rcx], eax

; 178  :         return ((_UINT32_T)value);

	mov	eax, DWORD PTR value$[rbp]

; 179  :     }

	lea	rsp, QWORD PTR [rbp+200]
	pop	rdi
	pop	rbp
	ret	0
_FROMDWORDTOWORD ENDP
_TEXT	ENDS
; Function compile flags: /Odtp /RTCsu /ZI
; File z:\sources\lunor\repos\rougemeilland\palmtree.math.core.uint\palmtree.math.core.uint\pmc_equals.c
;	COMDAT PMC_Equals_X_X
_TEXT	SEGMENT
nu$ = 8
nv$ = 40
result$ = 68
u_bit_count$1 = 104
v_bit_count$2 = 136
tv79 = 340
u$ = 384
v$ = 392
w$ = 400
PMC_Equals_X_X PROC					; COMDAT

; 240  : {

$LN17:
	mov	QWORD PTR [rsp+24], r8
	mov	QWORD PTR [rsp+16], rdx
	mov	QWORD PTR [rsp+8], rcx
	push	rbp
	push	rdi
	sub	rsp, 392				; 00000188H
	lea	rbp, QWORD PTR [rsp+32]
	mov	rdi, rsp
	mov	ecx, 98					; 00000062H
	mov	eax, -858993460				; ccccccccH
	rep stosd
	mov	rcx, QWORD PTR [rsp+424]
	lea	rcx, OFFSET FLAT:__01E10085_pmc_equals@c
	call	__CheckForDebuggerJustMyCode

; 241  :     if (u == NULL)

	cmp	QWORD PTR u$[rbp], 0
	jne	SHORT $LN2@PMC_Equals

; 242  :         return (PMC_STATUS_ARGUMENT_ERROR);

	mov	eax, -1
	jmp	$LN1@PMC_Equals
$LN2@PMC_Equals:

; 243  :     if (v == NULL)

	cmp	QWORD PTR v$[rbp], 0
	jne	SHORT $LN3@PMC_Equals

; 244  :         return (PMC_STATUS_ARGUMENT_ERROR);

	mov	eax, -1
	jmp	$LN1@PMC_Equals
$LN3@PMC_Equals:

; 245  :     if (w == NULL)

	cmp	QWORD PTR w$[rbp], 0
	jne	SHORT $LN4@PMC_Equals

; 246  :         return (PMC_STATUS_ARGUMENT_ERROR);

	mov	eax, -1
	jmp	$LN1@PMC_Equals
$LN4@PMC_Equals:

; 247  :     NUMBER_HEADER* nu = (NUMBER_HEADER*)u;

	mov	rax, QWORD PTR u$[rbp]
	mov	QWORD PTR nu$[rbp], rax

; 248  :     NUMBER_HEADER* nv = (NUMBER_HEADER*)v;

	mov	rax, QWORD PTR v$[rbp]
	mov	QWORD PTR nv$[rbp], rax

; 249  :     PMC_STATUS_CODE result;
; 250  :     if ((result = CheckNumber(nu)) != PMC_STATUS_OK)

	mov	rcx, QWORD PTR nu$[rbp]
	call	CheckNumber
	mov	DWORD PTR result$[rbp], eax
	cmp	DWORD PTR result$[rbp], 0
	je	SHORT $LN5@PMC_Equals

; 251  :         return (result);

	mov	eax, DWORD PTR result$[rbp]
	jmp	$LN1@PMC_Equals
$LN5@PMC_Equals:

; 252  :     if ((result = CheckNumber(nv)) != PMC_STATUS_OK)

	mov	rcx, QWORD PTR nv$[rbp]
	call	CheckNumber
	mov	DWORD PTR result$[rbp], eax
	cmp	DWORD PTR result$[rbp], 0
	je	SHORT $LN6@PMC_Equals

; 253  :         return (result);

	mov	eax, DWORD PTR result$[rbp]
	jmp	$LN1@PMC_Equals
$LN6@PMC_Equals:

; 254  :     if (nu->IS_ZERO)

	mov	rax, QWORD PTR nu$[rbp]
	mov	eax, DWORD PTR [rax]
	and	eax, 1
	test	eax, eax
	je	SHORT $LN7@PMC_Equals

; 255  :     {
; 256  :         *w = nv->IS_ZERO ? 1 : 0;

	mov	rax, QWORD PTR nv$[rbp]
	mov	eax, DWORD PTR [rax]
	and	eax, 1
	test	eax, eax
	je	SHORT $LN15@PMC_Equals
	mov	DWORD PTR tv79[rbp], 1
	jmp	SHORT $LN16@PMC_Equals
$LN15@PMC_Equals:
	mov	DWORD PTR tv79[rbp], 0
$LN16@PMC_Equals:
	mov	rax, QWORD PTR w$[rbp]
	mov	ecx, DWORD PTR tv79[rbp]
	mov	DWORD PTR [rax], ecx

; 257  :     }

	jmp	SHORT $LN8@PMC_Equals
$LN7@PMC_Equals:

; 258  :     else if (nv->IS_ZERO)

	mov	rax, QWORD PTR nv$[rbp]
	mov	eax, DWORD PTR [rax]
	and	eax, 1
	test	eax, eax
	je	SHORT $LN9@PMC_Equals

; 259  :     {
; 260  :         *w = 0;

	mov	rax, QWORD PTR w$[rbp]
	mov	DWORD PTR [rax], 0

; 261  :     }

	jmp	SHORT $LN10@PMC_Equals
$LN9@PMC_Equals:

; 262  :     else
; 263  :     {
; 264  :         __UNIT_TYPE u_bit_count = nu->UNIT_BIT_COUNT;

	mov	rax, QWORD PTR nu$[rbp]
	mov	rax, QWORD PTR [rax+24]
	mov	QWORD PTR u_bit_count$1[rbp], rax

; 265  :         __UNIT_TYPE v_bit_count = nv->UNIT_BIT_COUNT;

	mov	rax, QWORD PTR nv$[rbp]
	mov	rax, QWORD PTR [rax+24]
	mov	QWORD PTR v_bit_count$2[rbp], rax

; 266  :         if (u_bit_count != v_bit_count)

	mov	rax, QWORD PTR v_bit_count$2[rbp]
	cmp	QWORD PTR u_bit_count$1[rbp], rax
	je	SHORT $LN11@PMC_Equals

; 267  :         {
; 268  :             // 明らかに u > v である場合
; 269  :             *w = 0;

	mov	rax, QWORD PTR w$[rbp]
	mov	DWORD PTR [rax], 0

; 270  :         }

	jmp	SHORT $LN12@PMC_Equals
$LN11@PMC_Equals:

; 271  :         else
; 272  :         {
; 273  :             // u > 0 && v > 0 かつ u のビット長と v のビット長が等しい場合
; 274  :             *w = Equals_X_X_Imp(nu->BLOCK, nv->BLOCK, nu->UNIT_WORD_COUNT);

	mov	rax, QWORD PTR nu$[rbp]
	mov	r8, QWORD PTR [rax+16]
	mov	rax, QWORD PTR nv$[rbp]
	mov	rdx, QWORD PTR [rax+64]
	mov	rax, QWORD PTR nu$[rbp]
	mov	rcx, QWORD PTR [rax+64]
	call	Equals_X_X_Imp
	mov	rcx, QWORD PTR w$[rbp]
	mov	DWORD PTR [rcx], eax
$LN12@PMC_Equals:
$LN10@PMC_Equals:
$LN8@PMC_Equals:

; 275  :         }
; 276  :     }
; 277  : #ifdef _DEBUG
; 278  :     if (*w != 0 && *w != 1)

	mov	rax, QWORD PTR w$[rbp]
	cmp	DWORD PTR [rax], 0
	je	SHORT $LN13@PMC_Equals
	mov	rax, QWORD PTR w$[rbp]
	cmp	DWORD PTR [rax], 1
	je	SHORT $LN13@PMC_Equals

; 279  :         return (PMC_STATUS_INTERNAL_ERROR);

	mov	eax, -256				; ffffffffffffff00H
	jmp	SHORT $LN1@PMC_Equals
$LN13@PMC_Equals:

; 280  : #endif
; 281  :     return (PMC_STATUS_OK);

	xor	eax, eax
$LN1@PMC_Equals:

; 282  : }

	lea	rsp, QWORD PTR [rbp+360]
	pop	rdi
	pop	rbp
	ret	0
PMC_Equals_X_X ENDP
_TEXT	ENDS
; Function compile flags: /Odtp /RTCsu /ZI
; File z:\sources\lunor\repos\rougemeilland\palmtree.math.core.uint\palmtree.math.core.uint\pmc_equals.c
;	COMDAT PMC_Equals_X_L
_TEXT	SEGMENT
result$ = 4
u$ = 256
v$ = 264
w$ = 272
PMC_Equals_X_L PROC					; COMDAT

; 218  : {

$LN8:
	mov	QWORD PTR [rsp+24], r8
	mov	QWORD PTR [rsp+16], rdx
	mov	QWORD PTR [rsp+8], rcx
	push	rbp
	push	rdi
	sub	rsp, 264				; 00000108H
	lea	rbp, QWORD PTR [rsp+32]
	mov	rdi, rsp
	mov	ecx, 66					; 00000042H
	mov	eax, -858993460				; ccccccccH
	rep stosd
	mov	rcx, QWORD PTR [rsp+296]
	lea	rcx, OFFSET FLAT:__01E10085_pmc_equals@c
	call	__CheckForDebuggerJustMyCode

; 219  :     if (__UNIT_TYPE_BIT_COUNT * 2 < sizeof(v) * 8)

	xor	eax, eax
	test	eax, eax
	je	SHORT $LN2@PMC_Equals

; 220  :     {
; 221  :         // _UINT64_T が 2 ワードで表現しきれない処理系には対応しない
; 222  :         return (PMC_STATUS_INTERNAL_ERROR);

	mov	eax, -256				; ffffffffffffff00H
	jmp	SHORT $LN1@PMC_Equals
$LN2@PMC_Equals:

; 223  :     }
; 224  :     if (u == NULL)

	cmp	QWORD PTR u$[rbp], 0
	jne	SHORT $LN3@PMC_Equals

; 225  :         return (PMC_STATUS_ARGUMENT_ERROR);

	mov	eax, -1
	jmp	SHORT $LN1@PMC_Equals
$LN3@PMC_Equals:

; 226  :     if (w == NULL)

	cmp	QWORD PTR w$[rbp], 0
	jne	SHORT $LN4@PMC_Equals

; 227  :         return (PMC_STATUS_ARGUMENT_ERROR);

	mov	eax, -1
	jmp	SHORT $LN1@PMC_Equals
$LN4@PMC_Equals:

; 228  :     PMC_STATUS_CODE result;
; 229  :     if ((result = CheckNumber((NUMBER_HEADER*)u)) != PMC_STATUS_OK)

	mov	rcx, QWORD PTR u$[rbp]
	call	CheckNumber
	mov	DWORD PTR result$[rbp], eax
	cmp	DWORD PTR result$[rbp], 0
	je	SHORT $LN5@PMC_Equals

; 230  :         return (result);

	mov	eax, DWORD PTR result$[rbp]
	jmp	SHORT $LN1@PMC_Equals
$LN5@PMC_Equals:

; 231  :     *w = Equals_X_L_Imp((NUMBER_HEADER*)u, v);

	mov	rdx, QWORD PTR v$[rbp]
	mov	rcx, QWORD PTR u$[rbp]
	call	Equals_X_L_Imp
	mov	rcx, QWORD PTR w$[rbp]
	mov	DWORD PTR [rcx], eax

; 232  : #ifdef _DEBUG
; 233  :     if (*w != 0 && *w != 1)

	mov	rax, QWORD PTR w$[rbp]
	cmp	DWORD PTR [rax], 0
	je	SHORT $LN6@PMC_Equals
	mov	rax, QWORD PTR w$[rbp]
	cmp	DWORD PTR [rax], 1
	je	SHORT $LN6@PMC_Equals

; 234  :         return (PMC_STATUS_INTERNAL_ERROR);

	mov	eax, -256				; ffffffffffffff00H
	jmp	SHORT $LN1@PMC_Equals
$LN6@PMC_Equals:

; 235  : #endif
; 236  :     return (PMC_STATUS_OK);

	xor	eax, eax
$LN1@PMC_Equals:

; 237  : }

	lea	rsp, QWORD PTR [rbp+232]
	pop	rdi
	pop	rbp
	ret	0
PMC_Equals_X_L ENDP
_TEXT	ENDS
; Function compile flags: /Odtp /RTCsu /ZI
; File z:\sources\lunor\repos\rougemeilland\palmtree.math.core.uint\palmtree.math.core.uint\pmc_equals.c
;	COMDAT PMC_Equals_X_I
_TEXT	SEGMENT
result$ = 4
u$ = 256
v$ = 264
w$ = 272
PMC_Equals_X_I PROC					; COMDAT

; 174  : {

$LN8:
	mov	QWORD PTR [rsp+24], r8
	mov	DWORD PTR [rsp+16], edx
	mov	QWORD PTR [rsp+8], rcx
	push	rbp
	push	rdi
	sub	rsp, 264				; 00000108H
	lea	rbp, QWORD PTR [rsp+32]
	mov	rdi, rsp
	mov	ecx, 66					; 00000042H
	mov	eax, -858993460				; ccccccccH
	rep stosd
	mov	rcx, QWORD PTR [rsp+296]
	lea	rcx, OFFSET FLAT:__01E10085_pmc_equals@c
	call	__CheckForDebuggerJustMyCode

; 175  :     if (__UNIT_TYPE_BIT_COUNT < sizeof(v) * 8)

	xor	eax, eax
	test	eax, eax
	je	SHORT $LN2@PMC_Equals

; 176  :     {
; 177  :         // _UINT32_T が 1 ワードで表現しきれない処理系には対応しない
; 178  :         return (PMC_STATUS_INTERNAL_ERROR);

	mov	eax, -256				; ffffffffffffff00H
	jmp	SHORT $LN1@PMC_Equals
$LN2@PMC_Equals:

; 179  :     }
; 180  :     if (u == NULL)

	cmp	QWORD PTR u$[rbp], 0
	jne	SHORT $LN3@PMC_Equals

; 181  :         return (PMC_STATUS_ARGUMENT_ERROR);

	mov	eax, -1
	jmp	SHORT $LN1@PMC_Equals
$LN3@PMC_Equals:

; 182  :     if (w == NULL)

	cmp	QWORD PTR w$[rbp], 0
	jne	SHORT $LN4@PMC_Equals

; 183  :         return (PMC_STATUS_ARGUMENT_ERROR);

	mov	eax, -1
	jmp	SHORT $LN1@PMC_Equals
$LN4@PMC_Equals:

; 184  :     PMC_STATUS_CODE result;
; 185  :     if ((result = CheckNumber((NUMBER_HEADER*)u)) != PMC_STATUS_OK)

	mov	rcx, QWORD PTR u$[rbp]
	call	CheckNumber
	mov	DWORD PTR result$[rbp], eax
	cmp	DWORD PTR result$[rbp], 0
	je	SHORT $LN5@PMC_Equals

; 186  :         return (result);

	mov	eax, DWORD PTR result$[rbp]
	jmp	SHORT $LN1@PMC_Equals
$LN5@PMC_Equals:

; 187  :     *w = Equals_X_I_Imp((NUMBER_HEADER*)u, v);

	mov	edx, DWORD PTR v$[rbp]
	mov	rcx, QWORD PTR u$[rbp]
	call	Equals_X_I_Imp
	mov	rcx, QWORD PTR w$[rbp]
	mov	DWORD PTR [rcx], eax

; 188  : #ifdef _DEBUG
; 189  :     if (*w != 0 && *w != 1)

	mov	rax, QWORD PTR w$[rbp]
	cmp	DWORD PTR [rax], 0
	je	SHORT $LN6@PMC_Equals
	mov	rax, QWORD PTR w$[rbp]
	cmp	DWORD PTR [rax], 1
	je	SHORT $LN6@PMC_Equals

; 190  :         return (PMC_STATUS_INTERNAL_ERROR);

	mov	eax, -256				; ffffffffffffff00H
	jmp	SHORT $LN1@PMC_Equals
$LN6@PMC_Equals:

; 191  : #endif
; 192  :     return (PMC_STATUS_OK);

	xor	eax, eax
$LN1@PMC_Equals:

; 193  : }

	lea	rsp, QWORD PTR [rbp+232]
	pop	rdi
	pop	rbp
	ret	0
PMC_Equals_X_I ENDP
_TEXT	ENDS
; Function compile flags: /Odtp /RTCsu /ZI
; File z:\sources\lunor\repos\rougemeilland\palmtree.math.core.uint\palmtree.math.core.uint\pmc_equals.c
;	COMDAT PMC_Equals_L_X
_TEXT	SEGMENT
result$ = 4
u$ = 256
v$ = 264
w$ = 272
PMC_Equals_L_X PROC					; COMDAT

; 196  : {

$LN8:
	mov	QWORD PTR [rsp+24], r8
	mov	QWORD PTR [rsp+16], rdx
	mov	QWORD PTR [rsp+8], rcx
	push	rbp
	push	rdi
	sub	rsp, 264				; 00000108H
	lea	rbp, QWORD PTR [rsp+32]
	mov	rdi, rsp
	mov	ecx, 66					; 00000042H
	mov	eax, -858993460				; ccccccccH
	rep stosd
	mov	rcx, QWORD PTR [rsp+296]
	lea	rcx, OFFSET FLAT:__01E10085_pmc_equals@c
	call	__CheckForDebuggerJustMyCode

; 197  :     if (__UNIT_TYPE_BIT_COUNT * 2 < sizeof(u) * 8)

	xor	eax, eax
	test	eax, eax
	je	SHORT $LN2@PMC_Equals

; 198  :     {
; 199  :         // _UINT64_T が 2 ワードで表現しきれない処理系には対応しない
; 200  :         return (PMC_STATUS_INTERNAL_ERROR);

	mov	eax, -256				; ffffffffffffff00H
	jmp	SHORT $LN1@PMC_Equals
$LN2@PMC_Equals:

; 201  :     }
; 202  :     if (v == NULL)

	cmp	QWORD PTR v$[rbp], 0
	jne	SHORT $LN3@PMC_Equals

; 203  :         return (PMC_STATUS_ARGUMENT_ERROR);

	mov	eax, -1
	jmp	SHORT $LN1@PMC_Equals
$LN3@PMC_Equals:

; 204  :     if (w == NULL)

	cmp	QWORD PTR w$[rbp], 0
	jne	SHORT $LN4@PMC_Equals

; 205  :         return (PMC_STATUS_ARGUMENT_ERROR);

	mov	eax, -1
	jmp	SHORT $LN1@PMC_Equals
$LN4@PMC_Equals:

; 206  :     PMC_STATUS_CODE result;
; 207  :     if ((result = CheckNumber((NUMBER_HEADER*)v)) != PMC_STATUS_OK)

	mov	rcx, QWORD PTR v$[rbp]
	call	CheckNumber
	mov	DWORD PTR result$[rbp], eax
	cmp	DWORD PTR result$[rbp], 0
	je	SHORT $LN5@PMC_Equals

; 208  :         return (result);

	mov	eax, DWORD PTR result$[rbp]
	jmp	SHORT $LN1@PMC_Equals
$LN5@PMC_Equals:

; 209  :     *w = Equals_X_L_Imp((NUMBER_HEADER*)v, u);

	mov	rdx, QWORD PTR u$[rbp]
	mov	rcx, QWORD PTR v$[rbp]
	call	Equals_X_L_Imp
	mov	rcx, QWORD PTR w$[rbp]
	mov	DWORD PTR [rcx], eax

; 210  : #ifdef _DEBUG
; 211  :     if (*w != 0 && *w != 1)

	mov	rax, QWORD PTR w$[rbp]
	cmp	DWORD PTR [rax], 0
	je	SHORT $LN6@PMC_Equals
	mov	rax, QWORD PTR w$[rbp]
	cmp	DWORD PTR [rax], 1
	je	SHORT $LN6@PMC_Equals

; 212  :         return (PMC_STATUS_INTERNAL_ERROR);

	mov	eax, -256				; ffffffffffffff00H
	jmp	SHORT $LN1@PMC_Equals
$LN6@PMC_Equals:

; 213  : #endif
; 214  :     return (PMC_STATUS_OK);

	xor	eax, eax
$LN1@PMC_Equals:

; 215  : }

	lea	rsp, QWORD PTR [rbp+232]
	pop	rdi
	pop	rbp
	ret	0
PMC_Equals_L_X ENDP
_TEXT	ENDS
; Function compile flags: /Odtp /RTCsu /ZI
; File z:\sources\lunor\repos\rougemeilland\palmtree.math.core.uint\palmtree.math.core.uint\pmc_equals.c
;	COMDAT PMC_Equals_I_X
_TEXT	SEGMENT
result$ = 4
u$ = 256
v$ = 264
w$ = 272
PMC_Equals_I_X PROC					; COMDAT

; 152  : {

$LN8:
	mov	QWORD PTR [rsp+24], r8
	mov	QWORD PTR [rsp+16], rdx
	mov	DWORD PTR [rsp+8], ecx
	push	rbp
	push	rdi
	sub	rsp, 264				; 00000108H
	lea	rbp, QWORD PTR [rsp+32]
	mov	rdi, rsp
	mov	ecx, 66					; 00000042H
	mov	eax, -858993460				; ccccccccH
	rep stosd
	mov	ecx, DWORD PTR [rsp+296]
	lea	rcx, OFFSET FLAT:__01E10085_pmc_equals@c
	call	__CheckForDebuggerJustMyCode

; 153  :     if (__UNIT_TYPE_BIT_COUNT < sizeof(u) * 8)

	xor	eax, eax
	test	eax, eax
	je	SHORT $LN2@PMC_Equals

; 154  :     {
; 155  :         // _UINT32_T が 1 ワードで表現しきれない処理系には対応しない
; 156  :         return (PMC_STATUS_INTERNAL_ERROR);

	mov	eax, -256				; ffffffffffffff00H
	jmp	SHORT $LN1@PMC_Equals
$LN2@PMC_Equals:

; 157  :     }
; 158  :     if (v == NULL)

	cmp	QWORD PTR v$[rbp], 0
	jne	SHORT $LN3@PMC_Equals

; 159  :         return (PMC_STATUS_ARGUMENT_ERROR);

	mov	eax, -1
	jmp	SHORT $LN1@PMC_Equals
$LN3@PMC_Equals:

; 160  :     if (w == NULL)

	cmp	QWORD PTR w$[rbp], 0
	jne	SHORT $LN4@PMC_Equals

; 161  :         return (PMC_STATUS_ARGUMENT_ERROR);

	mov	eax, -1
	jmp	SHORT $LN1@PMC_Equals
$LN4@PMC_Equals:

; 162  :     PMC_STATUS_CODE result;
; 163  :     if ((result = CheckNumber((NUMBER_HEADER*)v)) != PMC_STATUS_OK)

	mov	rcx, QWORD PTR v$[rbp]
	call	CheckNumber
	mov	DWORD PTR result$[rbp], eax
	cmp	DWORD PTR result$[rbp], 0
	je	SHORT $LN5@PMC_Equals

; 164  :         return (result);

	mov	eax, DWORD PTR result$[rbp]
	jmp	SHORT $LN1@PMC_Equals
$LN5@PMC_Equals:

; 165  :     *w = Equals_X_I_Imp((NUMBER_HEADER*)v, u);

	mov	edx, DWORD PTR u$[rbp]
	mov	rcx, QWORD PTR v$[rbp]
	call	Equals_X_I_Imp
	mov	rcx, QWORD PTR w$[rbp]
	mov	DWORD PTR [rcx], eax

; 166  : #ifdef _DEBUG
; 167  :     if (*w != 0 && *w != 1)

	mov	rax, QWORD PTR w$[rbp]
	cmp	DWORD PTR [rax], 0
	je	SHORT $LN6@PMC_Equals
	mov	rax, QWORD PTR w$[rbp]
	cmp	DWORD PTR [rax], 1
	je	SHORT $LN6@PMC_Equals

; 168  :         return (PMC_STATUS_INTERNAL_ERROR);

	mov	eax, -256				; ffffffffffffff00H
	jmp	SHORT $LN1@PMC_Equals
$LN6@PMC_Equals:

; 169  : #endif
; 170  :     return (PMC_STATUS_OK);

	xor	eax, eax
$LN1@PMC_Equals:

; 171  : }

	lea	rsp, QWORD PTR [rbp+232]
	pop	rdi
	pop	rbp
	ret	0
PMC_Equals_I_X ENDP
_TEXT	ENDS
; Function compile flags: /Odtp /RTCsu /ZI
; File z:\sources\lunor\repos\rougemeilland\palmtree.math.core.uint\palmtree.math.core.uint\pmc_equals.c
;	COMDAT Initialize_Equals
_TEXT	SEGMENT
feature$ = 224
Initialize_Equals PROC					; COMDAT

; 285  : {

$LN3:
	mov	QWORD PTR [rsp+8], rcx
	push	rbp
	push	rdi
	sub	rsp, 232				; 000000e8H
	lea	rbp, QWORD PTR [rsp+32]
	mov	rdi, rsp
	mov	ecx, 58					; 0000003aH
	mov	eax, -858993460				; ccccccccH
	rep stosd
	mov	rcx, QWORD PTR [rsp+264]
	lea	rcx, OFFSET FLAT:__01E10085_pmc_equals@c
	call	__CheckForDebuggerJustMyCode

; 286  :     return (PMC_STATUS_OK);

	xor	eax, eax

; 287  : }

	lea	rsp, QWORD PTR [rbp+200]
	pop	rdi
	pop	rbp
	ret	0
Initialize_Equals ENDP
_TEXT	ENDS
END
