; Listing generated by Microsoft (R) Optimizing Compiler Version 19.16.27026.1 

include listing.inc

INCLUDELIB MSVCRTD
INCLUDELIB OLDNAMES

msvcjmc	SEGMENT
__7B7A869E_ctype@h DB 01H
__457DD326_basetsd@h DB 01H
__4384A2D9_corecrt_memcpy_s@h DB 01H
__4E51A221_corecrt_wstring@h DB 01H
__2140C079_string@h DB 01H
__1887E595_winnt@h DB 01H
__9FC7C64B_processthreadsapi@h DB 01H
__FA470AEC_memoryapi@h DB 01H
__F37DAFF1_winerror@h DB 01H
__7A450CCC_winbase@h DB 01H
__B4B40122_winioctl@h DB 01H
__86261D59_stralign@h DB 01H
__BB6D3116_pmc_uint_internal@h DB 01H
__5449575B_pmc_getpropertyvalue@c DB 01H
msvcjmc	ENDS
PUBLIC	Initialize_GetPropertyValue
PUBLIC	PMC_GetPropertyValue_X_I
PUBLIC	__JustMyCode_Default
EXTRN	CheckNumber:PROC
EXTRN	_RTC_InitBase:PROC
EXTRN	_RTC_Shutdown:PROC
EXTRN	__CheckForDebuggerJustMyCode:PROC
;	COMDAT pdata
pdata	SEGMENT
$pdata$Initialize_GetPropertyValue DD imagerel $LN3
	DD	imagerel $LN3+66
	DD	imagerel $unwind$Initialize_GetPropertyValue
pdata	ENDS
;	COMDAT pdata
pdata	SEGMENT
$pdata$PMC_GetPropertyValue_X_I DD imagerel $LN13
	DD	imagerel $LN13+308
	DD	imagerel $unwind$PMC_GetPropertyValue_X_I
pdata	ENDS
;	COMDAT rtc$TMZ
rtc$TMZ	SEGMENT
_RTC_Shutdown.rtc$TMZ DQ FLAT:_RTC_Shutdown
rtc$TMZ	ENDS
;	COMDAT rtc$IMZ
rtc$IMZ	SEGMENT
_RTC_InitBase.rtc$IMZ DQ FLAT:_RTC_InitBase
rtc$IMZ	ENDS
;	COMDAT xdata
xdata	SEGMENT
$unwind$PMC_GetPropertyValue_X_I DD 025053301H
	DD	0117231cH
	DD	070100025H
	DD	0500fH
xdata	ENDS
;	COMDAT xdata
xdata	SEGMENT
$unwind$Initialize_GetPropertyValue DD 025052a01H
	DD	010e2313H
	DD	07007001dH
	DD	05006H
xdata	ENDS
; Function compile flags: /Odt
;	COMDAT __JustMyCode_Default
_TEXT	SEGMENT
__JustMyCode_Default PROC				; COMDAT
	ret	0
__JustMyCode_Default ENDP
_TEXT	ENDS
; Function compile flags: /Odtp /RTCsu /ZI
; File z:\sources\lunor\repos\rougemeilland\palmtree.math.core.uint\palmtree.math.core.uint\pmc_getpropertyvalue.c
;	COMDAT PMC_GetPropertyValue_X_I
_TEXT	SEGMENT
result$ = 4
nx$ = 40
tv69 = 244
x$ = 288
function_code$ = 296
o$ = 304
PMC_GetPropertyValue_X_I PROC				; COMDAT

; 31   : {

$LN13:
	mov	QWORD PTR [rsp+24], r8
	mov	DWORD PTR [rsp+16], edx
	mov	QWORD PTR [rsp+8], rcx
	push	rbp
	push	rdi
	sub	rsp, 296				; 00000128H
	lea	rbp, QWORD PTR [rsp+32]
	mov	rdi, rsp
	mov	ecx, 74					; 0000004aH
	mov	eax, -858993460				; ccccccccH
	rep stosd
	mov	rcx, QWORD PTR [rsp+328]
	lea	rcx, OFFSET FLAT:__5449575B_pmc_getpropertyvalue@c
	call	__CheckForDebuggerJustMyCode

; 32   :     if (x == NULL)

	cmp	QWORD PTR x$[rbp], 0
	jne	SHORT $LN4@PMC_GetPro

; 33   :         return (PMC_STATUS_ARGUMENT_ERROR);

	mov	eax, -1
	jmp	$LN1@PMC_GetPro
$LN4@PMC_GetPro:

; 34   :     if (o == NULL)

	cmp	QWORD PTR o$[rbp], 0
	jne	SHORT $LN5@PMC_GetPro

; 35   :         return (PMC_STATUS_ARGUMENT_ERROR);

	mov	eax, -1
	jmp	$LN1@PMC_GetPro
$LN5@PMC_GetPro:

; 36   :     PMC_STATUS_CODE result;
; 37   :     NUMBER_HEADER* nx = (NUMBER_HEADER*)x;

	mov	rax, QWORD PTR x$[rbp]
	mov	QWORD PTR nx$[rbp], rax

; 38   :     if ((result = CheckNumber(nx)) != PMC_STATUS_OK)

	mov	rcx, QWORD PTR nx$[rbp]
	call	CheckNumber
	mov	DWORD PTR result$[rbp], eax
	cmp	DWORD PTR result$[rbp], 0
	je	SHORT $LN6@PMC_GetPro

; 39   :         return (result);

	mov	eax, DWORD PTR result$[rbp]
	jmp	$LN1@PMC_GetPro
$LN6@PMC_GetPro:

; 40   :     switch (function_code)

	mov	eax, DWORD PTR function_code$[rbp]
	mov	DWORD PTR tv69[rbp], eax
	cmp	DWORD PTR tv69[rbp], 1
	je	SHORT $LN7@PMC_GetPro
	cmp	DWORD PTR tv69[rbp], 2
	je	SHORT $LN8@PMC_GetPro
	cmp	DWORD PTR tv69[rbp], 3
	je	SHORT $LN9@PMC_GetPro
	cmp	DWORD PTR tv69[rbp], 4
	je	SHORT $LN10@PMC_GetPro
	jmp	SHORT $LN11@PMC_GetPro
$LN7@PMC_GetPro:

; 41   :     {
; 42   :     case PMC_PROPERTY_IS_EVEN:
; 43   :         *o = nx->IS_EVEN;

	mov	rax, QWORD PTR nx$[rbp]
	mov	eax, DWORD PTR [rax+40]
	shr	eax, 3
	and	eax, 1
	mov	rcx, QWORD PTR o$[rbp]
	mov	DWORD PTR [rcx], eax

; 44   :         return (PMC_STATUS_OK);

	xor	eax, eax
	jmp	SHORT $LN1@PMC_GetPro
$LN8@PMC_GetPro:

; 45   :     case PMC_PROPERTY_IS_ONE:
; 46   :         *o = nx->IS_ONE;

	mov	rax, QWORD PTR nx$[rbp]
	mov	eax, DWORD PTR [rax+40]
	shr	eax, 2
	and	eax, 1
	mov	rcx, QWORD PTR o$[rbp]
	mov	DWORD PTR [rcx], eax

; 47   :         return (PMC_STATUS_OK);

	xor	eax, eax
	jmp	SHORT $LN1@PMC_GetPro
$LN9@PMC_GetPro:

; 48   :     case PMC_PROPERTY_IS_POWER_OF_TWO:
; 49   :         *o = nx->IS_POWER_OF_TWO;

	mov	rax, QWORD PTR nx$[rbp]
	mov	eax, DWORD PTR [rax+40]
	shr	eax, 4
	and	eax, 1
	mov	rcx, QWORD PTR o$[rbp]
	mov	DWORD PTR [rcx], eax

; 50   :         return (PMC_STATUS_OK);

	xor	eax, eax
	jmp	SHORT $LN1@PMC_GetPro
$LN10@PMC_GetPro:

; 51   :     case PMC_PROPERTY_IS_ZERO:
; 52   :         *o = nx->IS_ZERO;

	mov	rax, QWORD PTR nx$[rbp]
	mov	eax, DWORD PTR [rax+40]
	shr	eax, 1
	and	eax, 1
	mov	rcx, QWORD PTR o$[rbp]
	mov	DWORD PTR [rcx], eax

; 53   :         return (PMC_STATUS_OK);

	xor	eax, eax
	jmp	SHORT $LN1@PMC_GetPro
$LN11@PMC_GetPro:

; 54   :     default:
; 55   :         return (PMC_STATUS_ARGUMENT_ERROR);

	mov	eax, -1
$LN1@PMC_GetPro:

; 56   :     }
; 57   : }

	lea	rsp, QWORD PTR [rbp+264]
	pop	rdi
	pop	rbp
	ret	0
PMC_GetPropertyValue_X_I ENDP
_TEXT	ENDS
; Function compile flags: /Odtp /RTCsu /ZI
; File z:\sources\lunor\repos\rougemeilland\palmtree.math.core.uint\palmtree.math.core.uint\pmc_getpropertyvalue.c
;	COMDAT Initialize_GetPropertyValue
_TEXT	SEGMENT
feature$ = 224
Initialize_GetPropertyValue PROC			; COMDAT

; 60   : {

$LN3:
	mov	QWORD PTR [rsp+8], rcx
	push	rbp
	push	rdi
	sub	rsp, 232				; 000000e8H
	lea	rbp, QWORD PTR [rsp+32]
	mov	rdi, rsp
	mov	ecx, 58					; 0000003aH
	mov	eax, -858993460				; ccccccccH
	rep stosd
	mov	rcx, QWORD PTR [rsp+264]
	lea	rcx, OFFSET FLAT:__5449575B_pmc_getpropertyvalue@c
	call	__CheckForDebuggerJustMyCode

; 61   :     return (PMC_STATUS_OK);

	xor	eax, eax

; 62   : }

	lea	rsp, QWORD PTR [rbp+200]
	pop	rdi
	pop	rbp
	ret	0
Initialize_GetPropertyValue ENDP
_TEXT	ENDS
END
