; Listing generated by Microsoft (R) Optimizing Compiler Version 19.16.27026.1 

include listing.inc

INCLUDELIB MSVCRTD
INCLUDELIB OLDNAMES

msvcjmc	SEGMENT
__7B7A869E_ctype@h DB 01H
__457DD326_basetsd@h DB 01H
__4384A2D9_corecrt_memcpy_s@h DB 01H
__4E51A221_corecrt_wstring@h DB 01H
__2140C079_string@h DB 01H
__1887E595_winnt@h DB 01H
__9FC7C64B_processthreadsapi@h DB 01H
__FA470AEC_memoryapi@h DB 01H
__F37DAFF1_winerror@h DB 01H
__7A450CCC_winbase@h DB 01H
__B4B40122_winioctl@h DB 01H
__86261D59_stralign@h DB 01H
__BB6D3116_pmc_uint_internal@h DB 01H
__8CA3E54E_pmc_inline_func@h DB 01H
__B1857B5F_pmc_bytes@c DB 01H
msvcjmc	ENDS
PUBLIC	PMC_FromByteArray
PUBLIC	PMC_ToByteArray
PUBLIC	PMC_FromByteArrayForSINT
PUBLIC	PMC_ToByteArrayForSINT
PUBLIC	__JustMyCode_Default
EXTRN	AllocateNumber:PROC
EXTRN	CommitNumber:PROC
EXTRN	CheckNumber:PROC
EXTRN	_RTC_CheckStackVars:PROC
EXTRN	_RTC_InitBase:PROC
EXTRN	_RTC_Shutdown:PROC
EXTRN	__CheckForDebuggerJustMyCode:PROC
EXTRN	number_zero:BYTE
;	COMDAT pdata
pdata	SEGMENT
$pdata$PMC_FromByteArray DD imagerel $LN16
	DD	imagerel $LN16+500
	DD	imagerel $unwind$PMC_FromByteArray
pdata	ENDS
;	COMDAT pdata
pdata	SEGMENT
$pdata$PMC_ToByteArray DD imagerel $LN11
	DD	imagerel $LN11+353
	DD	imagerel $unwind$PMC_ToByteArray
pdata	ENDS
;	COMDAT pdata
pdata	SEGMENT
$pdata$PMC_FromByteArrayForSINT DD imagerel $LN19
	DD	imagerel $LN19+600
	DD	imagerel $unwind$PMC_FromByteArrayForSINT
pdata	ENDS
;	COMDAT pdata
pdata	SEGMENT
$pdata$PMC_ToByteArrayForSINT DD imagerel $LN19
	DD	imagerel $LN19+501
	DD	imagerel $unwind$PMC_ToByteArrayForSINT
pdata	ENDS
;	COMDAT pdata
pdata	SEGMENT
$pdata$_COPY_MEMORY_BYTE DD imagerel _COPY_MEMORY_BYTE
	DD	imagerel _COPY_MEMORY_BYTE+99
	DD	imagerel $unwind$_COPY_MEMORY_BYTE
pdata	ENDS
;	COMDAT pdata
pdata	SEGMENT
$pdata$_DIVIDE_CEILING_SIZE DD imagerel _DIVIDE_CEILING_SIZE
	DD	imagerel _DIVIDE_CEILING_SIZE+97
	DD	imagerel $unwind$_DIVIDE_CEILING_SIZE
pdata	ENDS
;	COMDAT pdata
pdata	SEGMENT
$pdata$_LZCNT_ALT_8 DD imagerel _LZCNT_ALT_8
	DD	imagerel _LZCNT_ALT_8+133
	DD	imagerel $unwind$_LZCNT_ALT_8
pdata	ENDS
;	COMDAT pdata
pdata	SEGMENT
$pdata$CountActualBitsFromBuffer DD imagerel CountActualBitsFromBuffer
	DD	imagerel CountActualBitsFromBuffer+208
	DD	imagerel $unwind$CountActualBitsFromBuffer
pdata	ENDS
;	COMDAT rtc$TMZ
rtc$TMZ	SEGMENT
_RTC_Shutdown.rtc$TMZ DQ FLAT:_RTC_Shutdown
rtc$TMZ	ENDS
;	COMDAT rtc$IMZ
rtc$IMZ	SEGMENT
_RTC_InitBase.rtc$IMZ DQ FLAT:_RTC_InitBase
rtc$IMZ	ENDS
;	COMDAT xdata
xdata	SEGMENT
$unwind$CountActualBitsFromBuffer DD 025052f01H
	DD	01132318H
	DD	0700c001fH
	DD	0500bH
xdata	ENDS
;	COMDAT xdata
xdata	SEGMENT
$unwind$_LZCNT_ALT_8 DD 025052901H
	DD	010d2312H
	DD	070060021H
	DD	05005H
xdata	ENDS
;	COMDAT CONST
CONST	SEGMENT
_LZCNT_ALT_8$rtcName$0 DB 070H
	DB	06fH
	DB	073H
	DB	00H
	ORG $+12
_LZCNT_ALT_8$rtcVarDesc DD 024H
	DD	04H
	DQ	FLAT:_LZCNT_ALT_8$rtcName$0
	ORG $+48
_LZCNT_ALT_8$rtcFrameData DD 01H
	DD	00H
	DQ	FLAT:_LZCNT_ALT_8$rtcVarDesc
CONST	ENDS
;	COMDAT xdata
xdata	SEGMENT
$unwind$_DIVIDE_CEILING_SIZE DD 025052f01H
	DD	01132318H
	DD	0700c001dH
	DD	0500bH
xdata	ENDS
;	COMDAT xdata
xdata	SEGMENT
$unwind$_COPY_MEMORY_BYTE DD 025063501H
	DD	0119231eH
	DD	07012001cH
	DD	050106011H
xdata	ENDS
;	COMDAT xdata
xdata	SEGMENT
$unwind$PMC_ToByteArrayForSINT DD 025053801H
	DD	011c2321H
	DD	070150029H
	DD	05014H
xdata	ENDS
;	COMDAT xdata
xdata	SEGMENT
$unwind$PMC_FromByteArrayForSINT DD 025053901H
	DD	011d2322H
	DD	070160035H
	DD	05015H
xdata	ENDS
;	COMDAT CONST
CONST	SEGMENT
PMC_FromByteArrayForSINT$rtcName$0 DB 070H
	DB	00H
	ORG $+14
PMC_FromByteArrayForSINT$rtcVarDesc DD 0c8H
	DD	08H
	DQ	FLAT:PMC_FromByteArrayForSINT$rtcName$0
	ORG $+48
PMC_FromByteArrayForSINT$rtcFrameData DD 01H
	DD	00H
	DQ	FLAT:PMC_FromByteArrayForSINT$rtcVarDesc
CONST	ENDS
;	COMDAT xdata
xdata	SEGMENT
$unwind$PMC_ToByteArray DD 025053901H
	DD	011d2322H
	DD	070160029H
	DD	05015H
xdata	ENDS
;	COMDAT xdata
xdata	SEGMENT
$unwind$PMC_FromByteArray DD 025053401H
	DD	0118231dH
	DD	070110035H
	DD	05010H
xdata	ENDS
;	COMDAT CONST
CONST	SEGMENT
PMC_FromByteArray$rtcName$0 DB 070H
	DB	00H
	ORG $+14
PMC_FromByteArray$rtcVarDesc DD 0c8H
	DD	08H
	DQ	FLAT:PMC_FromByteArray$rtcName$0
	ORG $+48
PMC_FromByteArray$rtcFrameData DD 01H
	DD	00H
	DQ	FLAT:PMC_FromByteArray$rtcVarDesc
CONST	ENDS
; Function compile flags: /Odt
;	COMDAT __JustMyCode_Default
_TEXT	SEGMENT
__JustMyCode_Default PROC				; COMDAT
	ret	0
__JustMyCode_Default ENDP
_TEXT	ENDS
; Function compile flags: /Odtp /RTCsu /ZI
; File z:\sources\lunor\repos\rougemeilland\palmtree.math.core.uint\palmtree.math.core.uint\pmc_bytes.c
;	COMDAT CountActualBitsFromBuffer
_TEXT	SEGMENT
tv69 = 192
p$ = 240
count$ = 248
CountActualBitsFromBuffer PROC				; COMDAT

; 32   : {

	mov	QWORD PTR [rsp+16], rdx
	mov	QWORD PTR [rsp+8], rcx
	push	rbp
	push	rdi
	sub	rsp, 248				; 000000f8H
	lea	rbp, QWORD PTR [rsp+32]
	mov	rdi, rsp
	mov	ecx, 62					; 0000003eH
	mov	eax, -858993460				; ccccccccH
	rep stosd
	mov	rcx, QWORD PTR [rsp+280]
	lea	rcx, OFFSET FLAT:__B1857B5F_pmc_bytes@c
	call	__CheckForDebuggerJustMyCode

; 33   :     p += count;

	mov	rax, QWORD PTR count$[rbp]
	mov	rcx, QWORD PTR p$[rbp]
	add	rcx, rax
	mov	rax, rcx
	mov	QWORD PTR p$[rbp], rax
$LN2@CountActua:

; 34   :     while (count > 0)

	cmp	QWORD PTR count$[rbp], 0
	jbe	SHORT $LN3@CountActua

; 35   :     {
; 36   :         --p;

	mov	rax, QWORD PTR p$[rbp]
	dec	rax
	mov	QWORD PTR p$[rbp], rax

; 37   :         if (*p != 0)

	mov	rax, QWORD PTR p$[rbp]
	movzx	eax, BYTE PTR [rax]
	test	eax, eax
	je	SHORT $LN4@CountActua

; 38   :             return (count * 8 - _LZCNT_ALT_8(*p));

	mov	rax, QWORD PTR count$[rbp]
	shl	rax, 3
	mov	QWORD PTR tv69[rbp], rax
	mov	rcx, QWORD PTR p$[rbp]
	movzx	ecx, BYTE PTR [rcx]
	call	_LZCNT_ALT_8
	cdqe
	mov	rcx, QWORD PTR tv69[rbp]
	sub	rcx, rax
	mov	rax, rcx
	jmp	SHORT $LN1@CountActua
$LN4@CountActua:

; 39   :         --count;

	mov	rax, QWORD PTR count$[rbp]
	dec	rax
	mov	QWORD PTR count$[rbp], rax

; 40   :     }

	jmp	SHORT $LN2@CountActua
$LN3@CountActua:

; 41   :     return (0);

	xor	eax, eax
$LN1@CountActua:

; 42   : }

	lea	rsp, QWORD PTR [rbp+216]
	pop	rdi
	pop	rbp
	ret	0
CountActualBitsFromBuffer ENDP
_TEXT	ENDS
; Function compile flags: /Odtp /RTCsu /ZI
; File z:\sources\lunor\repos\rougemeilland\palmtree.math.core.uint\palmtree.math.core.uint\pmc_inline_func.h
;	COMDAT _LZCNT_ALT_8
_TEXT	SEGMENT
pos$ = 4
x$ = 256
_LZCNT_ALT_8 PROC					; COMDAT

; 575  :     {

	mov	BYTE PTR [rsp+8], cl
	push	rbp
	push	rdi
	sub	rsp, 264				; 00000108H
	lea	rbp, QWORD PTR [rsp+32]
	mov	rdi, rsp
	mov	ecx, 66					; 00000042H
	mov	eax, -858993460				; ccccccccH
	rep stosd
	movzx	ecx, BYTE PTR [rsp+296]
	lea	rcx, OFFSET FLAT:__8CA3E54E_pmc_inline_func@h
	call	__CheckForDebuggerJustMyCode

; 576  :         if (x == 0)

	movzx	eax, BYTE PTR x$[rbp]
	test	eax, eax
	jne	SHORT $LN2@LZCNT_ALT_

; 577  :             return (sizeof(x) * 8);

	mov	eax, 8
	jmp	SHORT $LN1@LZCNT_ALT_
$LN2@LZCNT_ALT_:

; 578  :         _UINT32_T pos;
; 579  : #ifdef _MSC_VER
; 580  :         _BitScanReverse(&pos, x);

	movzx	eax, BYTE PTR x$[rbp]
	bsr	eax, eax
	mov	DWORD PTR pos$[rbp], eax

; 581  : #elif defined(__GNUC__)
; 582  :         __asm__("bsrl %1, %0" : "=r"(pos) : "rm"((_UINT32_T)x));
; 583  : #else
; 584  : #error unknown compiler
; 585  : #endif
; 586  :         return ((unsigned char)(sizeof(x) * 8 - 1 - pos));

	mov	eax, DWORD PTR pos$[rbp]
	mov	ecx, 7
	sub	rcx, rax
	mov	rax, rcx
	movzx	eax, al
$LN1@LZCNT_ALT_:

; 587  :     }

	mov	rdi, rax
	lea	rcx, QWORD PTR [rbp-32]
	lea	rdx, OFFSET FLAT:_LZCNT_ALT_8$rtcFrameData
	call	_RTC_CheckStackVars
	mov	rax, rdi
	lea	rsp, QWORD PTR [rbp+232]
	pop	rdi
	pop	rbp
	ret	0
_LZCNT_ALT_8 ENDP
_TEXT	ENDS
; Function compile flags: /Odtp /RTCsu /ZI
; File z:\sources\lunor\repos\rougemeilland\palmtree.math.core.uint\palmtree.math.core.uint\pmc_inline_func.h
;	COMDAT _DIVIDE_CEILING_SIZE
_TEXT	SEGMENT
u$ = 224
v$ = 232
_DIVIDE_CEILING_SIZE PROC				; COMDAT

; 192  :     {

	mov	QWORD PTR [rsp+16], rdx
	mov	QWORD PTR [rsp+8], rcx
	push	rbp
	push	rdi
	sub	rsp, 232				; 000000e8H
	lea	rbp, QWORD PTR [rsp+32]
	mov	rdi, rsp
	mov	ecx, 58					; 0000003aH
	mov	eax, -858993460				; ccccccccH
	rep stosd
	mov	rcx, QWORD PTR [rsp+264]
	lea	rcx, OFFSET FLAT:__8CA3E54E_pmc_inline_func@h
	call	__CheckForDebuggerJustMyCode

; 193  :         return ((u + v - 1) / v);

	mov	rax, QWORD PTR u$[rbp]
	mov	rcx, QWORD PTR v$[rbp]
	lea	rax, QWORD PTR [rax+rcx-1]
	xor	edx, edx
	div	QWORD PTR v$[rbp]

; 194  :     }

	lea	rsp, QWORD PTR [rbp+200]
	pop	rdi
	pop	rbp
	ret	0
_DIVIDE_CEILING_SIZE ENDP
_TEXT	ENDS
; Function compile flags: /Odtp /RTCsu /ZI
; File z:\sources\lunor\repos\rougemeilland\palmtree.math.core.uint\palmtree.math.core.uint\pmc_inline_func.h
;	COMDAT _COPY_MEMORY_BYTE
_TEXT	SEGMENT
d$ = 224
s$ = 232
count$ = 240
_COPY_MEMORY_BYTE PROC					; COMDAT

; 43   :     {

	mov	QWORD PTR [rsp+24], r8
	mov	QWORD PTR [rsp+16], rdx
	mov	QWORD PTR [rsp+8], rcx
	push	rbp
	push	rsi
	push	rdi
	sub	rsp, 224				; 000000e0H
	lea	rbp, QWORD PTR [rsp+32]
	mov	rdi, rsp
	mov	ecx, 56					; 00000038H
	mov	eax, -858993460				; ccccccccH
	rep stosd
	mov	rcx, QWORD PTR [rsp+264]
	lea	rcx, OFFSET FLAT:__8CA3E54E_pmc_inline_func@h
	call	__CheckForDebuggerJustMyCode

; 44   :         __movsb(d, s, count);

	mov	rdi, QWORD PTR d$[rbp]
	mov	rsi, QWORD PTR s$[rbp]
	mov	rcx, QWORD PTR count$[rbp]
	rep movsb

; 45   :     }

	lea	rsp, QWORD PTR [rbp+192]
	pop	rdi
	pop	rsi
	pop	rbp
	ret	0
_COPY_MEMORY_BYTE ENDP
_TEXT	ENDS
; Function compile flags: /Odtp /RTCsu /ZI
; File z:\sources\lunor\repos\rougemeilland\palmtree.math.core.uint\palmtree.math.core.uint\pmc_bytes.c
;	COMDAT PMC_ToByteArrayForSINT
_TEXT	SEGMENT
np$ = 8
result$ = 36
expected_abs_buffer_size$ = 72
tv76 = 280
p_sign$ = 320
p$ = 328
buffer$ = 336
buffer_size$ = 344
count$ = 352
PMC_ToByteArrayForSINT PROC				; COMDAT

; 143  : {

$LN19:
	mov	QWORD PTR [rsp+32], r9
	mov	QWORD PTR [rsp+24], r8
	mov	QWORD PTR [rsp+16], rdx
	mov	BYTE PTR [rsp+8], cl
	push	rbp
	push	rdi
	sub	rsp, 328				; 00000148H
	lea	rbp, QWORD PTR [rsp+32]
	mov	rdi, rsp
	mov	ecx, 82					; 00000052H
	mov	eax, -858993460				; ccccccccH
	rep stosd
	movzx	ecx, BYTE PTR [rsp+360]
	lea	rcx, OFFSET FLAT:__B1857B5F_pmc_bytes@c
	call	__CheckForDebuggerJustMyCode

; 144  :     if (p == NULL)

	cmp	QWORD PTR p$[rbp], 0
	jne	SHORT $LN2@PMC_ToByte

; 145  :         return (PMC_STATUS_ARGUMENT_ERROR);

	mov	eax, -1
	jmp	$LN1@PMC_ToByte
$LN2@PMC_ToByte:

; 146  :     NUMBER_HEADER* np = (NUMBER_HEADER*)p;

	mov	rax, QWORD PTR p$[rbp]
	mov	QWORD PTR np$[rbp], rax

; 147  :     PMC_STATUS_CODE result;
; 148  :     if ((result = CheckNumber(np)) != PMC_STATUS_OK)

	mov	rcx, QWORD PTR np$[rbp]
	call	CheckNumber
	mov	DWORD PTR result$[rbp], eax
	cmp	DWORD PTR result$[rbp], 0
	je	SHORT $LN3@PMC_ToByte

; 149  :         return (result);

	mov	eax, DWORD PTR result$[rbp]
	jmp	$LN1@PMC_ToByte
$LN3@PMC_ToByte:

; 150  :     size_t expected_abs_buffer_size = np->IS_ZERO ? 0 : _DIVIDE_CEILING_SIZE(np->UNIT_BIT_COUNT, 8);

	mov	rax, QWORD PTR np$[rbp]
	mov	eax, DWORD PTR [rax+40]
	shr	eax, 1
	and	eax, 1
	test	eax, eax
	je	SHORT $LN17@PMC_ToByte
	mov	QWORD PTR tv76[rbp], 0
	jmp	SHORT $LN18@PMC_ToByte
$LN17@PMC_ToByte:
	mov	edx, 8
	mov	rax, QWORD PTR np$[rbp]
	mov	rcx, QWORD PTR [rax+16]
	call	_DIVIDE_CEILING_SIZE
	mov	QWORD PTR tv76[rbp], rax
$LN18@PMC_ToByte:
	mov	rax, QWORD PTR tv76[rbp]
	mov	QWORD PTR expected_abs_buffer_size$[rbp], rax

; 151  :     if (buffer != NULL)

	cmp	QWORD PTR buffer$[rbp], 0
	je	$LN4@PMC_ToByte

; 152  :     {
; 153  :         if (8 + np->UNIT_BIT_COUNT > sizeof(*buffer) * 8 * buffer_size)

	mov	rax, QWORD PTR np$[rbp]
	mov	rax, QWORD PTR [rax+16]
	add	rax, 8
	mov	rcx, QWORD PTR buffer_size$[rbp]
	shl	rcx, 3
	cmp	rax, rcx
	jbe	SHORT $LN5@PMC_ToByte

; 154  :             return (PMC_STATUS_INSUFFICIENT_BUFFER);

	mov	eax, -4
	jmp	$LN1@PMC_ToByte
$LN5@PMC_ToByte:

; 155  :         if (p_sign == 0)

	movsx	eax, BYTE PTR p_sign$[rbp]
	test	eax, eax
	jne	SHORT $LN6@PMC_ToByte

; 156  :         {
; 157  :             if (np->IS_ZERO)

	mov	rax, QWORD PTR np$[rbp]
	mov	eax, DWORD PTR [rax+40]
	shr	eax, 1
	and	eax, 1
	test	eax, eax
	je	SHORT $LN8@PMC_ToByte

; 158  :                 buffer[0] = 0x00;

	mov	eax, 1
	imul	rax, rax, 0
	mov	rcx, QWORD PTR buffer$[rbp]
	mov	BYTE PTR [rcx+rax], 0
	jmp	SHORT $LN9@PMC_ToByte
$LN8@PMC_ToByte:

; 159  :             else
; 160  :                 return (PMC_STATUS_INTERNAL_ERROR);

	mov	eax, -256				; ffffffffffffff00H
	jmp	$LN1@PMC_ToByte
$LN9@PMC_ToByte:

; 161  :         }

	jmp	$LN7@PMC_ToByte
$LN6@PMC_ToByte:

; 162  :         else if (p_sign > 0)

	movsx	eax, BYTE PTR p_sign$[rbp]
	test	eax, eax
	jle	SHORT $LN10@PMC_ToByte

; 163  :         {
; 164  :             if (np->IS_ZERO)

	mov	rax, QWORD PTR np$[rbp]
	mov	eax, DWORD PTR [rax+40]
	shr	eax, 1
	and	eax, 1
	test	eax, eax
	je	SHORT $LN12@PMC_ToByte

; 165  :                 return (PMC_STATUS_INTERNAL_ERROR);

	mov	eax, -256				; ffffffffffffff00H
	jmp	$LN1@PMC_ToByte
	jmp	SHORT $LN13@PMC_ToByte
$LN12@PMC_ToByte:

; 166  :             else
; 167  :             {
; 168  :                 buffer[0] = 0x01;

	mov	eax, 1
	imul	rax, rax, 0
	mov	rcx, QWORD PTR buffer$[rbp]
	mov	BYTE PTR [rcx+rax], 1

; 169  :                 _COPY_MEMORY_BYTE(buffer + 1, np->BLOCK, expected_abs_buffer_size);

	mov	rax, QWORD PTR buffer$[rbp]
	inc	rax
	mov	r8, QWORD PTR expected_abs_buffer_size$[rbp]
	mov	rcx, QWORD PTR np$[rbp]
	mov	rdx, QWORD PTR [rcx+56]
	mov	rcx, rax
	call	_COPY_MEMORY_BYTE
$LN13@PMC_ToByte:

; 170  :             }
; 171  :         }

	jmp	SHORT $LN11@PMC_ToByte
$LN10@PMC_ToByte:

; 172  :         else
; 173  :         {
; 174  :             if (np->IS_ZERO)

	mov	rax, QWORD PTR np$[rbp]
	mov	eax, DWORD PTR [rax+40]
	shr	eax, 1
	and	eax, 1
	test	eax, eax
	je	SHORT $LN14@PMC_ToByte

; 175  :                 return (PMC_STATUS_INTERNAL_ERROR);

	mov	eax, -256				; ffffffffffffff00H
	jmp	SHORT $LN1@PMC_ToByte
	jmp	SHORT $LN15@PMC_ToByte
$LN14@PMC_ToByte:

; 176  :             else
; 177  :             {
; 178  :                 buffer[0] = 0x03;

	mov	eax, 1
	imul	rax, rax, 0
	mov	rcx, QWORD PTR buffer$[rbp]
	mov	BYTE PTR [rcx+rax], 3

; 179  :                 _COPY_MEMORY_BYTE(buffer + 1, np->BLOCK, expected_abs_buffer_size);

	mov	rax, QWORD PTR buffer$[rbp]
	inc	rax
	mov	r8, QWORD PTR expected_abs_buffer_size$[rbp]
	mov	rcx, QWORD PTR np$[rbp]
	mov	rdx, QWORD PTR [rcx+56]
	mov	rcx, rax
	call	_COPY_MEMORY_BYTE
$LN15@PMC_ToByte:
$LN11@PMC_ToByte:
$LN7@PMC_ToByte:
$LN4@PMC_ToByte:

; 180  :             }
; 181  :         }
; 182  :     }
; 183  :     *count = expected_abs_buffer_size + 1;

	mov	rax, QWORD PTR expected_abs_buffer_size$[rbp]
	inc	rax
	mov	rcx, QWORD PTR count$[rbp]
	mov	QWORD PTR [rcx], rax

; 184  :     return (PMC_STATUS_OK);

	xor	eax, eax
$LN1@PMC_ToByte:

; 185  : }

	lea	rsp, QWORD PTR [rbp+296]
	pop	rdi
	pop	rbp
	ret	0
PMC_ToByteArrayForSINT ENDP
_TEXT	ENDS
; Function compile flags: /Odtp /RTCsu /ZI
; File z:\sources\lunor\repos\rougemeilland\palmtree.math.core.uint\palmtree.math.core.uint\pmc_bytes.c
;	COMDAT PMC_FromByteArrayForSINT
_TEXT	SEGMENT
result$ = 4
header$ = 36
sign$ = 68
header_reserved$ = 100
bit_count$4 = 136
p$5 = 168
tv137 = 372
buffer$ = 416
count$ = 424
o_sign$ = 432
o_abs$ = 440
PMC_FromByteArrayForSINT PROC				; COMDAT

; 46   : {

$LN19:
	mov	QWORD PTR [rsp+32], r9
	mov	QWORD PTR [rsp+24], r8
	mov	QWORD PTR [rsp+16], rdx
	mov	QWORD PTR [rsp+8], rcx
	push	rbp
	push	rdi
	sub	rsp, 424				; 000001a8H
	lea	rbp, QWORD PTR [rsp+32]
	mov	rdi, rsp
	mov	ecx, 106				; 0000006aH
	mov	eax, -858993460				; ccccccccH
	rep stosd
	mov	rcx, QWORD PTR [rsp+456]
	lea	rcx, OFFSET FLAT:__B1857B5F_pmc_bytes@c
	call	__CheckForDebuggerJustMyCode

; 47   :     PMC_STATUS_CODE result;
; 48   :     if (buffer == NULL)

	cmp	QWORD PTR buffer$[rbp], 0
	jne	SHORT $LN2@PMC_FromBy

; 49   :         return (PMC_STATUS_ARGUMENT_ERROR);

	mov	eax, -1
	jmp	$LN1@PMC_FromBy
$LN2@PMC_FromBy:

; 50   :     if (count < 1)

	cmp	QWORD PTR count$[rbp], 1
	jae	SHORT $LN3@PMC_FromBy

; 51   :         return (PMC_STATUS_ARGUMENT_ERROR);

	mov	eax, -1
	jmp	$LN1@PMC_FromBy
$LN3@PMC_FromBy:

; 52   :     if (o_sign == NULL)

	cmp	QWORD PTR o_sign$[rbp], 0
	jne	SHORT $LN4@PMC_FromBy

; 53   :         return (PMC_STATUS_ARGUMENT_ERROR);

	mov	eax, -1
	jmp	$LN1@PMC_FromBy
$LN4@PMC_FromBy:

; 54   :     if (o_abs == NULL)

	cmp	QWORD PTR o_abs$[rbp], 0
	jne	SHORT $LN5@PMC_FromBy

; 55   :         return (PMC_STATUS_ARGUMENT_ERROR);

	mov	eax, -1
	jmp	$LN1@PMC_FromBy
$LN5@PMC_FromBy:

; 56   :     unsigned char header = buffer[0];

	mov	eax, 1
	imul	rax, rax, 0
	mov	rcx, QWORD PTR buffer$[rbp]
	movzx	eax, BYTE PTR [rcx+rax]
	mov	BYTE PTR header$[rbp], al

; 57   :     unsigned char sign = header & 0x03;

	movzx	eax, BYTE PTR header$[rbp]
	and	eax, 3
	mov	BYTE PTR sign$[rbp], al

; 58   :     unsigned char header_reserved = header & 0xfc;

	movzx	eax, BYTE PTR header$[rbp]
	and	eax, 252				; 000000fcH
	mov	BYTE PTR header_reserved$[rbp], al

; 59   :     if (header_reserved != 0)

	movzx	eax, BYTE PTR header_reserved$[rbp]
	test	eax, eax
	je	SHORT $LN6@PMC_FromBy

; 60   :         return (PMC_STATUS_ARGUMENT_ERROR);

	mov	eax, -1
	jmp	$LN1@PMC_FromBy
$LN6@PMC_FromBy:

; 61   :     if (sign == 0)

	movzx	eax, BYTE PTR sign$[rbp]
	test	eax, eax
	jne	SHORT $LN7@PMC_FromBy

; 62   :     {
; 63   :         if (count != 1)

	cmp	QWORD PTR count$[rbp], 1
	je	SHORT $LN9@PMC_FromBy

; 64   :             return (PMC_STATUS_ARGUMENT_ERROR);

	mov	eax, -1
	jmp	$LN1@PMC_FromBy
$LN9@PMC_FromBy:

; 65   :         *o_sign = 0;

	mov	rax, QWORD PTR o_sign$[rbp]
	mov	BYTE PTR [rax], 0

; 66   :         *o_abs = (PMC_HANDLE_UINT)&number_zero;

	mov	rax, QWORD PTR o_abs$[rbp]
	lea	rcx, OFFSET FLAT:number_zero
	mov	QWORD PTR [rax], rcx

; 67   :     }

	jmp	$LN8@PMC_FromBy
$LN7@PMC_FromBy:

; 68   :     else if (sign == 2)

	movzx	eax, BYTE PTR sign$[rbp]
	cmp	eax, 2
	jne	SHORT $LN10@PMC_FromBy

; 69   :         return (PMC_STATUS_ARGUMENT_ERROR);

	mov	eax, -1
	jmp	$LN1@PMC_FromBy
	jmp	$LN11@PMC_FromBy
$LN10@PMC_FromBy:

; 70   :     else
; 71   :     {
; 72   :         __UNIT_TYPE bit_count = CountActualBitsFromBuffer(buffer + 1, count - 1);

	mov	rax, QWORD PTR count$[rbp]
	dec	rax
	mov	rcx, QWORD PTR buffer$[rbp]
	inc	rcx
	mov	rdx, rax
	call	CountActualBitsFromBuffer
	mov	QWORD PTR bit_count$4[rbp], rax

; 73   :         if (bit_count == 0)

	cmp	QWORD PTR bit_count$4[rbp], 0
	jne	SHORT $LN12@PMC_FromBy

; 74   :         {
; 75   :             *o_sign = 0;

	mov	rax, QWORD PTR o_sign$[rbp]
	mov	BYTE PTR [rax], 0

; 76   :             *o_abs = (PMC_HANDLE_UINT)&number_zero;

	mov	rax, QWORD PTR o_abs$[rbp]
	lea	rcx, OFFSET FLAT:number_zero
	mov	QWORD PTR [rax], rcx

; 77   :         }

	jmp	$LN13@PMC_FromBy
$LN12@PMC_FromBy:

; 78   :         else
; 79   :         {
; 80   :             NUMBER_HEADER* p;
; 81   :             if ((result = AllocateNumber(&p, bit_count, NULL)) != PMC_STATUS_OK)

	xor	r8d, r8d
	mov	rdx, QWORD PTR bit_count$4[rbp]
	lea	rcx, QWORD PTR p$5[rbp]
	call	AllocateNumber
	mov	DWORD PTR result$[rbp], eax
	cmp	DWORD PTR result$[rbp], 0
	je	SHORT $LN14@PMC_FromBy

; 82   :                 return (result);

	mov	eax, DWORD PTR result$[rbp]
	jmp	$LN1@PMC_FromBy
$LN14@PMC_FromBy:

; 83   :             _COPY_MEMORY_BYTE(p->BLOCK, buffer + 1, _DIVIDE_CEILING_SIZE(bit_count, 8));

	mov	edx, 8
	mov	rcx, QWORD PTR bit_count$4[rbp]
	call	_DIVIDE_CEILING_SIZE
	mov	rcx, QWORD PTR buffer$[rbp]
	inc	rcx
	mov	r8, rax
	mov	rdx, rcx
	mov	rax, QWORD PTR p$5[rbp]
	mov	rcx, QWORD PTR [rax+56]
	call	_COPY_MEMORY_BYTE

; 84   :             CommitNumber(p);

	mov	rcx, QWORD PTR p$5[rbp]
	call	CommitNumber

; 85   :             *o_sign =  sign == 1 ? 1 : -1;

	movzx	eax, BYTE PTR sign$[rbp]
	cmp	eax, 1
	jne	SHORT $LN17@PMC_FromBy
	mov	DWORD PTR tv137[rbp], 1
	jmp	SHORT $LN18@PMC_FromBy
$LN17@PMC_FromBy:
	mov	DWORD PTR tv137[rbp], -1
$LN18@PMC_FromBy:
	mov	rax, QWORD PTR o_sign$[rbp]
	movzx	ecx, BYTE PTR tv137[rbp]
	mov	BYTE PTR [rax], cl

; 86   :             *o_abs = (PMC_HANDLE_UINT)p;

	mov	rax, QWORD PTR o_abs$[rbp]
	mov	rcx, QWORD PTR p$5[rbp]
	mov	QWORD PTR [rax], rcx
$LN13@PMC_FromBy:
$LN11@PMC_FromBy:
$LN8@PMC_FromBy:

; 87   :         }
; 88   :     }
; 89   : 
; 90   : #ifdef _DEBUG
; 91   :     if ((result = CheckNumber((NUMBER_HEADER*)*o_abs)) != PMC_STATUS_OK)

	mov	rax, QWORD PTR o_abs$[rbp]
	mov	rcx, QWORD PTR [rax]
	call	CheckNumber
	mov	DWORD PTR result$[rbp], eax
	cmp	DWORD PTR result$[rbp], 0
	je	SHORT $LN15@PMC_FromBy

; 92   :         return (result);

	mov	eax, DWORD PTR result$[rbp]
	jmp	SHORT $LN1@PMC_FromBy
$LN15@PMC_FromBy:

; 93   : #endif
; 94   :     return (PMC_STATUS_OK);

	xor	eax, eax
$LN1@PMC_FromBy:

; 95   : }

	mov	rdi, rax
	lea	rcx, QWORD PTR [rbp-32]
	lea	rdx, OFFSET FLAT:PMC_FromByteArrayForSINT$rtcFrameData
	call	_RTC_CheckStackVars
	mov	rax, rdi
	lea	rsp, QWORD PTR [rbp+392]
	pop	rdi
	pop	rbp
	ret	0
PMC_FromByteArrayForSINT ENDP
_TEXT	ENDS
; Function compile flags: /Odtp /RTCsu /ZI
; File z:\sources\lunor\repos\rougemeilland\palmtree.math.core.uint\palmtree.math.core.uint\pmc_bytes.c
;	COMDAT PMC_ToByteArray
_TEXT	SEGMENT
np$ = 8
result$ = 36
expected_abs_buffer_size$ = 72
tv76 = 280
p$ = 320
buffer$ = 328
buffer_size$ = 336
count$ = 344
PMC_ToByteArray PROC					; COMDAT

; 188  : {

$LN11:
	mov	QWORD PTR [rsp+32], r9
	mov	QWORD PTR [rsp+24], r8
	mov	QWORD PTR [rsp+16], rdx
	mov	QWORD PTR [rsp+8], rcx
	push	rbp
	push	rdi
	sub	rsp, 328				; 00000148H
	lea	rbp, QWORD PTR [rsp+32]
	mov	rdi, rsp
	mov	ecx, 82					; 00000052H
	mov	eax, -858993460				; ccccccccH
	rep stosd
	mov	rcx, QWORD PTR [rsp+360]
	lea	rcx, OFFSET FLAT:__B1857B5F_pmc_bytes@c
	call	__CheckForDebuggerJustMyCode

; 189  :     if (p == NULL)

	cmp	QWORD PTR p$[rbp], 0
	jne	SHORT $LN2@PMC_ToByte

; 190  :         return (PMC_STATUS_ARGUMENT_ERROR);

	mov	eax, -1
	jmp	$LN1@PMC_ToByte
$LN2@PMC_ToByte:

; 191  :     NUMBER_HEADER* np = (NUMBER_HEADER*)p;

	mov	rax, QWORD PTR p$[rbp]
	mov	QWORD PTR np$[rbp], rax

; 192  :     PMC_STATUS_CODE result;
; 193  :     if ((result = CheckNumber(np)) != PMC_STATUS_OK)

	mov	rcx, QWORD PTR np$[rbp]
	call	CheckNumber
	mov	DWORD PTR result$[rbp], eax
	cmp	DWORD PTR result$[rbp], 0
	je	SHORT $LN3@PMC_ToByte

; 194  :         return (result);

	mov	eax, DWORD PTR result$[rbp]
	jmp	$LN1@PMC_ToByte
$LN3@PMC_ToByte:

; 195  :     size_t expected_abs_buffer_size = np->IS_ZERO ? 0 : _DIVIDE_CEILING_SIZE(np->UNIT_BIT_COUNT, 8);

	mov	rax, QWORD PTR np$[rbp]
	mov	eax, DWORD PTR [rax+40]
	shr	eax, 1
	and	eax, 1
	test	eax, eax
	je	SHORT $LN9@PMC_ToByte
	mov	QWORD PTR tv76[rbp], 0
	jmp	SHORT $LN10@PMC_ToByte
$LN9@PMC_ToByte:
	mov	edx, 8
	mov	rax, QWORD PTR np$[rbp]
	mov	rcx, QWORD PTR [rax+16]
	call	_DIVIDE_CEILING_SIZE
	mov	QWORD PTR tv76[rbp], rax
$LN10@PMC_ToByte:
	mov	rax, QWORD PTR tv76[rbp]
	mov	QWORD PTR expected_abs_buffer_size$[rbp], rax

; 196  :     if (buffer != NULL)

	cmp	QWORD PTR buffer$[rbp], 0
	je	SHORT $LN4@PMC_ToByte

; 197  :     {
; 198  :         if (8 + np->UNIT_BIT_COUNT > sizeof(*buffer) * 8 * buffer_size)

	mov	rax, QWORD PTR np$[rbp]
	mov	rax, QWORD PTR [rax+16]
	add	rax, 8
	mov	rcx, QWORD PTR buffer_size$[rbp]
	shl	rcx, 3
	cmp	rax, rcx
	jbe	SHORT $LN5@PMC_ToByte

; 199  :             return (PMC_STATUS_INSUFFICIENT_BUFFER);

	mov	eax, -4
	jmp	SHORT $LN1@PMC_ToByte
$LN5@PMC_ToByte:

; 200  :         if (np->IS_ZERO)

	mov	rax, QWORD PTR np$[rbp]
	mov	eax, DWORD PTR [rax+40]
	shr	eax, 1
	and	eax, 1
	test	eax, eax
	je	SHORT $LN6@PMC_ToByte

; 201  :             buffer[0] = 0x00;

	mov	eax, 1
	imul	rax, rax, 0
	mov	rcx, QWORD PTR buffer$[rbp]
	mov	BYTE PTR [rcx+rax], 0
	jmp	SHORT $LN7@PMC_ToByte
$LN6@PMC_ToByte:

; 202  :         else
; 203  :         {
; 204  :             buffer[0] = 0x01;

	mov	eax, 1
	imul	rax, rax, 0
	mov	rcx, QWORD PTR buffer$[rbp]
	mov	BYTE PTR [rcx+rax], 1

; 205  :             _COPY_MEMORY_BYTE(buffer + 1, np->BLOCK, expected_abs_buffer_size);

	mov	rax, QWORD PTR buffer$[rbp]
	inc	rax
	mov	r8, QWORD PTR expected_abs_buffer_size$[rbp]
	mov	rcx, QWORD PTR np$[rbp]
	mov	rdx, QWORD PTR [rcx+56]
	mov	rcx, rax
	call	_COPY_MEMORY_BYTE
$LN7@PMC_ToByte:
$LN4@PMC_ToByte:

; 206  :         }
; 207  :     }
; 208  :     *count = expected_abs_buffer_size + 1;

	mov	rax, QWORD PTR expected_abs_buffer_size$[rbp]
	inc	rax
	mov	rcx, QWORD PTR count$[rbp]
	mov	QWORD PTR [rcx], rax

; 209  :     return (PMC_STATUS_OK);

	xor	eax, eax
$LN1@PMC_ToByte:

; 210  : }

	lea	rsp, QWORD PTR [rbp+296]
	pop	rdi
	pop	rbp
	ret	0
PMC_ToByteArray ENDP
_TEXT	ENDS
; Function compile flags: /Odtp /RTCsu /ZI
; File z:\sources\lunor\repos\rougemeilland\palmtree.math.core.uint\palmtree.math.core.uint\pmc_bytes.c
;	COMDAT PMC_FromByteArray
_TEXT	SEGMENT
result$ = 4
header$ = 36
sign$ = 68
header_reserved$ = 100
bit_count$4 = 136
p$5 = 168
buffer$ = 416
count$ = 424
o$ = 432
PMC_FromByteArray PROC					; COMDAT

; 98   : {

$LN16:
	mov	QWORD PTR [rsp+24], r8
	mov	QWORD PTR [rsp+16], rdx
	mov	QWORD PTR [rsp+8], rcx
	push	rbp
	push	rdi
	sub	rsp, 424				; 000001a8H
	lea	rbp, QWORD PTR [rsp+32]
	mov	rdi, rsp
	mov	ecx, 106				; 0000006aH
	mov	eax, -858993460				; ccccccccH
	rep stosd
	mov	rcx, QWORD PTR [rsp+456]
	lea	rcx, OFFSET FLAT:__B1857B5F_pmc_bytes@c
	call	__CheckForDebuggerJustMyCode

; 99   :     PMC_STATUS_CODE result;
; 100  :     if (buffer == NULL)

	cmp	QWORD PTR buffer$[rbp], 0
	jne	SHORT $LN2@PMC_FromBy

; 101  :         return (PMC_STATUS_ARGUMENT_ERROR);

	mov	eax, -1
	jmp	$LN1@PMC_FromBy
$LN2@PMC_FromBy:

; 102  :     if (count < 1)

	cmp	QWORD PTR count$[rbp], 1
	jae	SHORT $LN3@PMC_FromBy

; 103  :         return (PMC_STATUS_ARGUMENT_ERROR);

	mov	eax, -1
	jmp	$LN1@PMC_FromBy
$LN3@PMC_FromBy:

; 104  :     if (o == NULL)

	cmp	QWORD PTR o$[rbp], 0
	jne	SHORT $LN4@PMC_FromBy

; 105  :         return (PMC_STATUS_ARGUMENT_ERROR);

	mov	eax, -1
	jmp	$LN1@PMC_FromBy
$LN4@PMC_FromBy:

; 106  :     unsigned char header = buffer[0];

	mov	eax, 1
	imul	rax, rax, 0
	mov	rcx, QWORD PTR buffer$[rbp]
	movzx	eax, BYTE PTR [rcx+rax]
	mov	BYTE PTR header$[rbp], al

; 107  :     unsigned char sign = header & 0x03;

	movzx	eax, BYTE PTR header$[rbp]
	and	eax, 3
	mov	BYTE PTR sign$[rbp], al

; 108  :     unsigned char header_reserved = header & 0xfc;

	movzx	eax, BYTE PTR header$[rbp]
	and	eax, 252				; 000000fcH
	mov	BYTE PTR header_reserved$[rbp], al

; 109  :     if (header_reserved != 0)

	movzx	eax, BYTE PTR header_reserved$[rbp]
	test	eax, eax
	je	SHORT $LN5@PMC_FromBy

; 110  :         return (PMC_STATUS_ARGUMENT_ERROR);

	mov	eax, -1
	jmp	$LN1@PMC_FromBy
$LN5@PMC_FromBy:

; 111  :     if (sign == 0)

	movzx	eax, BYTE PTR sign$[rbp]
	test	eax, eax
	jne	SHORT $LN6@PMC_FromBy

; 112  :     {
; 113  :         if (count != 1)

	cmp	QWORD PTR count$[rbp], 1
	je	SHORT $LN8@PMC_FromBy

; 114  :             return (PMC_STATUS_ARGUMENT_ERROR);

	mov	eax, -1
	jmp	$LN1@PMC_FromBy
$LN8@PMC_FromBy:

; 115  :         *o = (PMC_HANDLE_UINT)&number_zero;

	mov	rax, QWORD PTR o$[rbp]
	lea	rcx, OFFSET FLAT:number_zero
	mov	QWORD PTR [rax], rcx

; 116  :     }

	jmp	$LN7@PMC_FromBy
$LN6@PMC_FromBy:

; 117  :     else if (sign == 1)

	movzx	eax, BYTE PTR sign$[rbp]
	cmp	eax, 1
	jne	$LN9@PMC_FromBy

; 118  :     {
; 119  :         __UNIT_TYPE bit_count = CountActualBitsFromBuffer(buffer + 1, count - 1);

	mov	rax, QWORD PTR count$[rbp]
	dec	rax
	mov	rcx, QWORD PTR buffer$[rbp]
	inc	rcx
	mov	rdx, rax
	call	CountActualBitsFromBuffer
	mov	QWORD PTR bit_count$4[rbp], rax

; 120  :         if (bit_count == 0)

	cmp	QWORD PTR bit_count$4[rbp], 0
	jne	SHORT $LN11@PMC_FromBy

; 121  :             *o = (PMC_HANDLE_UINT)&number_zero;

	mov	rax, QWORD PTR o$[rbp]
	lea	rcx, OFFSET FLAT:number_zero
	mov	QWORD PTR [rax], rcx
	jmp	SHORT $LN12@PMC_FromBy
$LN11@PMC_FromBy:

; 122  :         else
; 123  :         {
; 124  :             NUMBER_HEADER* p;
; 125  :             if ((result = AllocateNumber(&p, bit_count, NULL)) != PMC_STATUS_OK)

	xor	r8d, r8d
	mov	rdx, QWORD PTR bit_count$4[rbp]
	lea	rcx, QWORD PTR p$5[rbp]
	call	AllocateNumber
	mov	DWORD PTR result$[rbp], eax
	cmp	DWORD PTR result$[rbp], 0
	je	SHORT $LN13@PMC_FromBy

; 126  :                 return (result);

	mov	eax, DWORD PTR result$[rbp]
	jmp	SHORT $LN1@PMC_FromBy
$LN13@PMC_FromBy:

; 127  :             _COPY_MEMORY_BYTE(p->BLOCK, buffer + 1, _DIVIDE_CEILING_SIZE(bit_count, 8));

	mov	edx, 8
	mov	rcx, QWORD PTR bit_count$4[rbp]
	call	_DIVIDE_CEILING_SIZE
	mov	rcx, QWORD PTR buffer$[rbp]
	inc	rcx
	mov	r8, rax
	mov	rdx, rcx
	mov	rax, QWORD PTR p$5[rbp]
	mov	rcx, QWORD PTR [rax+56]
	call	_COPY_MEMORY_BYTE

; 128  :             CommitNumber(p);

	mov	rcx, QWORD PTR p$5[rbp]
	call	CommitNumber

; 129  :             *o = (PMC_HANDLE_UINT)p;

	mov	rax, QWORD PTR o$[rbp]
	mov	rcx, QWORD PTR p$5[rbp]
	mov	QWORD PTR [rax], rcx
$LN12@PMC_FromBy:

; 130  :         }
; 131  :     }

	jmp	SHORT $LN10@PMC_FromBy
$LN9@PMC_FromBy:

; 132  :     else
; 133  :         return (PMC_STATUS_ARGUMENT_ERROR);

	mov	eax, -1
	jmp	SHORT $LN1@PMC_FromBy
$LN10@PMC_FromBy:
$LN7@PMC_FromBy:

; 134  : 
; 135  : #ifdef _DEBUG
; 136  :     if ((result = CheckNumber((NUMBER_HEADER*)*o)) != PMC_STATUS_OK)

	mov	rax, QWORD PTR o$[rbp]
	mov	rcx, QWORD PTR [rax]
	call	CheckNumber
	mov	DWORD PTR result$[rbp], eax
	cmp	DWORD PTR result$[rbp], 0
	je	SHORT $LN14@PMC_FromBy

; 137  :         return (result);

	mov	eax, DWORD PTR result$[rbp]
	jmp	SHORT $LN1@PMC_FromBy
$LN14@PMC_FromBy:

; 138  : #endif
; 139  :     return (PMC_STATUS_OK);

	xor	eax, eax
$LN1@PMC_FromBy:

; 140  : }

	mov	rdi, rax
	lea	rcx, QWORD PTR [rbp-32]
	lea	rdx, OFFSET FLAT:PMC_FromByteArray$rtcFrameData
	call	_RTC_CheckStackVars
	mov	rax, rdi
	lea	rsp, QWORD PTR [rbp+392]
	pop	rdi
	pop	rbp
	ret	0
PMC_FromByteArray ENDP
_TEXT	ENDS
END
