; Listing generated by Microsoft (R) Optimizing Compiler Version 19.16.27026.1 

include listing.inc

INCLUDELIB MSVCRTD
INCLUDELIB OLDNAMES

msvcjmc	SEGMENT
__7B7A869E_ctype@h DB 01H
__457DD326_basetsd@h DB 01H
__4384A2D9_corecrt_memcpy_s@h DB 01H
__4E51A221_corecrt_wstring@h DB 01H
__2140C079_string@h DB 01H
__1887E595_winnt@h DB 01H
__9FC7C64B_processthreadsapi@h DB 01H
__FA470AEC_memoryapi@h DB 01H
__F37DAFF1_winerror@h DB 01H
__7A450CCC_winbase@h DB 01H
__B4B40122_winioctl@h DB 01H
__86261D59_stralign@h DB 01H
__BB6D3116_pmc_uint_internal@h DB 01H
__8CA3E54E_pmc_inline_func@h DB 01H
__ECA0974D_pmc_from@c DB 01H
msvcjmc	ENDS
PUBLIC	From_I_Imp
PUBLIC	From_L_Imp
PUBLIC	Initialize_From
PUBLIC	PMC_From_I
PUBLIC	PMC_From_L
PUBLIC	__JustMyCode_Default
EXTRN	AllocateNumber:PROC
EXTRN	CommitNumber:PROC
EXTRN	CheckNumber:PROC
EXTRN	_RTC_CheckStackVars:PROC
EXTRN	_RTC_InitBase:PROC
EXTRN	_RTC_Shutdown:PROC
EXTRN	__CheckForDebuggerJustMyCode:PROC
EXTRN	number_zero:BYTE
;	COMDAT pdata
pdata	SEGMENT
$pdata$From_I_Imp DD imagerel $LN4
	DD	imagerel $LN4+173
	DD	imagerel $unwind$From_I_Imp
pdata	ENDS
;	COMDAT pdata
pdata	SEGMENT
$pdata$From_L_Imp DD imagerel $LN12
	DD	imagerel $LN12+458
	DD	imagerel $unwind$From_L_Imp
pdata	ENDS
;	COMDAT pdata
pdata	SEGMENT
$pdata$Initialize_From DD imagerel $LN3
	DD	imagerel $LN3+66
	DD	imagerel $unwind$Initialize_From
pdata	ENDS
;	COMDAT pdata
pdata	SEGMENT
$pdata$PMC_From_I DD imagerel $LN8
	DD	imagerel $LN8+204
	DD	imagerel $unwind$PMC_From_I
pdata	ENDS
;	COMDAT pdata
pdata	SEGMENT
$pdata$PMC_From_L DD imagerel $LN8
	DD	imagerel $LN8+208
	DD	imagerel $unwind$PMC_From_L
pdata	ENDS
;	COMDAT pdata
pdata	SEGMENT
$pdata$_FROMDWORDTOWORD DD imagerel _FROMDWORDTOWORD
	DD	imagerel _FROMDWORDTOWORD+95
	DD	imagerel $unwind$_FROMDWORDTOWORD
pdata	ENDS
;	COMDAT pdata
pdata	SEGMENT
$pdata$_LZCNT_ALT_32 DD imagerel _LZCNT_ALT_32
	DD	imagerel _LZCNT_ALT_32+126
	DD	imagerel $unwind$_LZCNT_ALT_32
pdata	ENDS
;	COMDAT pdata
pdata	SEGMENT
$pdata$_LZCNT_ALT_UNIT DD imagerel _LZCNT_ALT_UNIT
	DD	imagerel _LZCNT_ALT_UNIT+131
	DD	imagerel $unwind$_LZCNT_ALT_UNIT
pdata	ENDS
;	COMDAT rtc$TMZ
rtc$TMZ	SEGMENT
_RTC_Shutdown.rtc$TMZ DQ FLAT:_RTC_Shutdown
rtc$TMZ	ENDS
;	COMDAT rtc$IMZ
rtc$IMZ	SEGMENT
_RTC_InitBase.rtc$IMZ DQ FLAT:_RTC_InitBase
rtc$IMZ	ENDS
;	COMDAT xdata
xdata	SEGMENT
$unwind$_LZCNT_ALT_UNIT DD 025052a01H
	DD	010e2313H
	DD	070070021H
	DD	05006H
xdata	ENDS
;	COMDAT CONST
CONST	SEGMENT
_LZCNT_ALT_UNIT$rtcName$0 DB 070H
	DB	06fH
	DB	073H
	DB	00H
	ORG $+12
_LZCNT_ALT_UNIT$rtcVarDesc DD 024H
	DD	04H
	DQ	FLAT:_LZCNT_ALT_UNIT$rtcName$0
	ORG $+48
_LZCNT_ALT_UNIT$rtcFrameData DD 01H
	DD	00H
	DQ	FLAT:_LZCNT_ALT_UNIT$rtcVarDesc
CONST	ENDS
;	COMDAT xdata
xdata	SEGMENT
$unwind$_LZCNT_ALT_32 DD 025052801H
	DD	010d2312H
	DD	070060021H
	DD	05005H
xdata	ENDS
;	COMDAT CONST
CONST	SEGMENT
_LZCNT_ALT_32$rtcName$0 DB 070H
	DB	06fH
	DB	073H
	DB	00H
	ORG $+12
_LZCNT_ALT_32$rtcVarDesc DD 024H
	DD	04H
	DQ	FLAT:_LZCNT_ALT_32$rtcName$0
	ORG $+48
_LZCNT_ALT_32$rtcFrameData DD 01H
	DD	00H
	DQ	FLAT:_LZCNT_ALT_32$rtcVarDesc
CONST	ENDS
;	COMDAT xdata
xdata	SEGMENT
$unwind$_FROMDWORDTOWORD DD 025052f01H
	DD	01132318H
	DD	0700c001dH
	DD	0500bH
xdata	ENDS
;	COMDAT xdata
xdata	SEGMENT
$unwind$PMC_From_L DD 025052f01H
	DD	01132318H
	DD	0700c0025H
	DD	0500bH
xdata	ENDS
;	COMDAT CONST
CONST	SEGMENT
PMC_From_L$rtcName$0 DB 070H
	DB	00H
	ORG $+14
PMC_From_L$rtcVarDesc DD 028H
	DD	08H
	DQ	FLAT:PMC_From_L$rtcName$0
	ORG $+48
PMC_From_L$rtcFrameData DD 01H
	DD	00H
	DQ	FLAT:PMC_From_L$rtcVarDesc
CONST	ENDS
;	COMDAT xdata
xdata	SEGMENT
$unwind$PMC_From_I DD 025052d01H
	DD	01122317H
	DD	0700b0025H
	DD	0500aH
xdata	ENDS
;	COMDAT CONST
CONST	SEGMENT
PMC_From_I$rtcName$0 DB 070H
	DB	00H
	ORG $+14
PMC_From_I$rtcVarDesc DD 048H
	DD	08H
	DQ	FLAT:PMC_From_I$rtcName$0
	ORG $+48
PMC_From_I$rtcFrameData DD 01H
	DD	00H
	DQ	FLAT:PMC_From_I$rtcVarDesc
CONST	ENDS
;	COMDAT xdata
xdata	SEGMENT
$unwind$Initialize_From DD 025052a01H
	DD	010e2313H
	DD	07007001dH
	DD	05006H
xdata	ENDS
;	COMDAT xdata
xdata	SEGMENT
$unwind$From_L_Imp DD 025052f01H
	DD	01132318H
	DD	0700c0035H
	DD	0500bH
xdata	ENDS
;	COMDAT CONST
CONST	SEGMENT
From_L_Imp$rtcName$0 DB 078H
	DB	05fH
	DB	068H
	DB	069H
	DB	00H
	ORG $+11
From_L_Imp$rtcVarDesc DD 044H
	DD	04H
	DQ	FLAT:From_L_Imp$rtcName$0
	ORG $+48
From_L_Imp$rtcFrameData DD 01H
	DD	00H
	DQ	FLAT:From_L_Imp$rtcVarDesc
CONST	ENDS
;	COMDAT xdata
xdata	SEGMENT
$unwind$From_I_Imp DD 025052d01H
	DD	01122317H
	DD	0700b0021H
	DD	0500aH
xdata	ENDS
; Function compile flags: /Odt
;	COMDAT __JustMyCode_Default
_TEXT	SEGMENT
__JustMyCode_Default PROC				; COMDAT
	ret	0
__JustMyCode_Default ENDP
_TEXT	ENDS
; Function compile flags: /Odtp /RTCsu /ZI
; File z:\sources\lunor\repos\rougemeilland\palmtree.math.core.uint\palmtree.math.core.uint\pmc_inline_func.h
;	COMDAT _LZCNT_ALT_UNIT
_TEXT	SEGMENT
pos$ = 4
x$ = 256
_LZCNT_ALT_UNIT PROC					; COMDAT

; 622  :     {

	mov	QWORD PTR [rsp+8], rcx
	push	rbp
	push	rdi
	sub	rsp, 264				; 00000108H
	lea	rbp, QWORD PTR [rsp+32]
	mov	rdi, rsp
	mov	ecx, 66					; 00000042H
	mov	eax, -858993460				; ccccccccH
	rep stosd
	mov	rcx, QWORD PTR [rsp+296]
	lea	rcx, OFFSET FLAT:__8CA3E54E_pmc_inline_func@h
	call	__CheckForDebuggerJustMyCode

; 623  :         if (x == 0)

	cmp	QWORD PTR x$[rbp], 0
	jne	SHORT $LN2@LZCNT_ALT_

; 624  :             return (sizeof(x) * 8);

	mov	eax, 64					; 00000040H
	jmp	SHORT $LN1@LZCNT_ALT_
$LN2@LZCNT_ALT_:

; 625  : #ifdef _M_IX86
; 626  :         _UINT32_T pos;
; 627  : #ifdef _MSC_VER
; 628  :         _BitScanReverse(&pos, x);
; 629  : #elif defined(__GNUC__)
; 630  :         __asm__("bsrl %1, %0" : "=r"(pos) : "rm"(x));
; 631  : #else
; 632  : #error unknown compiler
; 633  : #endif
; 634  : #elif defined(_M_X64)
; 635  : #ifdef _MSC_VER
; 636  :         _UINT32_T pos;
; 637  :         _BitScanReverse64(&pos, x);

	mov	rax, QWORD PTR x$[rbp]
	bsr	rax, rax
	mov	DWORD PTR pos$[rbp], eax

; 638  : #elif defined(__GNUC__)
; 639  :         _UINT64_T pos;
; 640  :         __asm__("bsrq %1, %0" : "=r"(pos) : "rm"(x));
; 641  : #else
; 642  : #error unknown compiler
; 643  : #endif
; 644  : #else
; 645  : #error unknown platform
; 646  : #endif
; 647  :         return (sizeof(x) * 8 - 1 - pos);

	mov	eax, DWORD PTR pos$[rbp]
	mov	ecx, 63					; 0000003fH
	sub	rcx, rax
	mov	rax, rcx
$LN1@LZCNT_ALT_:

; 648  :     }

	mov	rdi, rax
	lea	rcx, QWORD PTR [rbp-32]
	lea	rdx, OFFSET FLAT:_LZCNT_ALT_UNIT$rtcFrameData
	call	_RTC_CheckStackVars
	mov	rax, rdi
	lea	rsp, QWORD PTR [rbp+232]
	pop	rdi
	pop	rbp
	ret	0
_LZCNT_ALT_UNIT ENDP
_TEXT	ENDS
; Function compile flags: /Odtp /RTCsu /ZI
; File z:\sources\lunor\repos\rougemeilland\palmtree.math.core.uint\palmtree.math.core.uint\pmc_inline_func.h
;	COMDAT _LZCNT_ALT_32
_TEXT	SEGMENT
pos$ = 4
x$ = 256
_LZCNT_ALT_32 PROC					; COMDAT

; 589  :     {

	mov	DWORD PTR [rsp+8], ecx
	push	rbp
	push	rdi
	sub	rsp, 264				; 00000108H
	lea	rbp, QWORD PTR [rsp+32]
	mov	rdi, rsp
	mov	ecx, 66					; 00000042H
	mov	eax, -858993460				; ccccccccH
	rep stosd
	mov	ecx, DWORD PTR [rsp+296]
	lea	rcx, OFFSET FLAT:__8CA3E54E_pmc_inline_func@h
	call	__CheckForDebuggerJustMyCode

; 590  :         if (x == 0)

	cmp	DWORD PTR x$[rbp], 0
	jne	SHORT $LN2@LZCNT_ALT_

; 591  :             return (sizeof(x) * 8);

	mov	eax, 32					; 00000020H
	jmp	SHORT $LN1@LZCNT_ALT_
$LN2@LZCNT_ALT_:

; 592  :         _UINT32_T pos;
; 593  : #ifdef _MSC_VER
; 594  :         _BitScanReverse(&pos, x);

	mov	eax, DWORD PTR x$[rbp]
	bsr	eax, eax
	mov	DWORD PTR pos$[rbp], eax

; 595  : #elif defined(__GNUC__)
; 596  :         __asm__("bsrl %1, %0" : "=r"(pos) : "rm"(x));
; 597  : #else
; 598  : #error unknown compiler
; 599  : #endif
; 600  :         return (sizeof(x) * 8 - 1 - pos);

	mov	eax, DWORD PTR pos$[rbp]
	mov	ecx, 31
	sub	rcx, rax
	mov	rax, rcx
$LN1@LZCNT_ALT_:

; 601  :     }

	mov	rdi, rax
	lea	rcx, QWORD PTR [rbp-32]
	lea	rdx, OFFSET FLAT:_LZCNT_ALT_32$rtcFrameData
	call	_RTC_CheckStackVars
	mov	rax, rdi
	lea	rsp, QWORD PTR [rbp+232]
	pop	rdi
	pop	rbp
	ret	0
_LZCNT_ALT_32 ENDP
_TEXT	ENDS
; Function compile flags: /Odtp /RTCsu /ZI
; File z:\sources\lunor\repos\rougemeilland\palmtree.math.core.uint\palmtree.math.core.uint\pmc_inline_func.h
;	COMDAT _FROMDWORDTOWORD
_TEXT	SEGMENT
value$ = 224
result_high$ = 232
_FROMDWORDTOWORD PROC					; COMDAT

; 175  :     {

	mov	QWORD PTR [rsp+16], rdx
	mov	QWORD PTR [rsp+8], rcx
	push	rbp
	push	rdi
	sub	rsp, 232				; 000000e8H
	lea	rbp, QWORD PTR [rsp+32]
	mov	rdi, rsp
	mov	ecx, 58					; 0000003aH
	mov	eax, -858993460				; ccccccccH
	rep stosd
	mov	rcx, QWORD PTR [rsp+264]
	lea	rcx, OFFSET FLAT:__8CA3E54E_pmc_inline_func@h
	call	__CheckForDebuggerJustMyCode

; 176  :         *result_high = (_UINT32_T)(value >> 32);

	mov	rax, QWORD PTR value$[rbp]
	shr	rax, 32					; 00000020H
	mov	rcx, QWORD PTR result_high$[rbp]
	mov	DWORD PTR [rcx], eax

; 177  :         return ((_UINT32_T)value);

	mov	eax, DWORD PTR value$[rbp]

; 178  :     }

	lea	rsp, QWORD PTR [rbp+200]
	pop	rdi
	pop	rbp
	ret	0
_FROMDWORDTOWORD ENDP
_TEXT	ENDS
; Function compile flags: /Odtp /RTCsu /ZI
; File z:\sources\lunor\repos\rougemeilland\palmtree.math.core.uint\palmtree.math.core.uint\pmc_from.c
;	COMDAT PMC_From_L
_TEXT	SEGMENT
p$ = 8
result$ = 36
x$ = 288
o$ = 296
PMC_From_L PROC						; COMDAT

; 105  : {

$LN8:
	mov	QWORD PTR [rsp+16], rdx
	mov	QWORD PTR [rsp+8], rcx
	push	rbp
	push	rdi
	sub	rsp, 296				; 00000128H
	lea	rbp, QWORD PTR [rsp+32]
	mov	rdi, rsp
	mov	ecx, 74					; 0000004aH
	mov	eax, -858993460				; ccccccccH
	rep stosd
	mov	rcx, QWORD PTR [rsp+328]
	lea	rcx, OFFSET FLAT:__ECA0974D_pmc_from@c
	call	__CheckForDebuggerJustMyCode

; 106  :     NUMBER_HEADER* p;
; 107  :     PMC_STATUS_CODE result;
; 108  :     if (sizeof(__UNIT_TYPE) * 2 < sizeof(x))

	xor	eax, eax
	test	eax, eax
	je	SHORT $LN2@PMC_From_L

; 109  :     {
; 110  :         // 32bit未満のCPUには未対応
; 111  :         return (PMC_STATUS_INTERNAL_ERROR);

	mov	eax, -256				; ffffffffffffff00H
	jmp	SHORT $LN1@PMC_From_L
$LN2@PMC_From_L:

; 112  :     }
; 113  :     if (x == 0)

	cmp	QWORD PTR x$[rbp], 0
	jne	SHORT $LN3@PMC_From_L

; 114  :         *o = (PMC_HANDLE_UINT)&number_zero;

	mov	rax, QWORD PTR o$[rbp]
	lea	rcx, OFFSET FLAT:number_zero
	mov	QWORD PTR [rax], rcx
	jmp	SHORT $LN4@PMC_From_L
$LN3@PMC_From_L:

; 115  :     else
; 116  :     {
; 117  :         if ((result = From_L_Imp(x, &p)) != PMC_STATUS_OK)

	lea	rdx, QWORD PTR p$[rbp]
	mov	rcx, QWORD PTR x$[rbp]
	call	From_L_Imp
	mov	DWORD PTR result$[rbp], eax
	cmp	DWORD PTR result$[rbp], 0
	je	SHORT $LN5@PMC_From_L

; 118  :             return (result);

	mov	eax, DWORD PTR result$[rbp]
	jmp	SHORT $LN1@PMC_From_L
$LN5@PMC_From_L:

; 119  :         *o = (PMC_HANDLE_UINT)p;

	mov	rax, QWORD PTR o$[rbp]
	mov	rcx, QWORD PTR p$[rbp]
	mov	QWORD PTR [rax], rcx
$LN4@PMC_From_L:

; 120  :     }
; 121  : #ifdef _DEBUG
; 122  :     if ((result = CheckNumber((NUMBER_HEADER*)*o)) != PMC_STATUS_OK)

	mov	rax, QWORD PTR o$[rbp]
	mov	rcx, QWORD PTR [rax]
	call	CheckNumber
	mov	DWORD PTR result$[rbp], eax
	cmp	DWORD PTR result$[rbp], 0
	je	SHORT $LN6@PMC_From_L

; 123  :         return (result);

	mov	eax, DWORD PTR result$[rbp]
	jmp	SHORT $LN1@PMC_From_L
$LN6@PMC_From_L:

; 124  : #endif
; 125  :     return (PMC_STATUS_OK);

	xor	eax, eax
$LN1@PMC_From_L:

; 126  : }

	mov	rdi, rax
	lea	rcx, QWORD PTR [rbp-32]
	lea	rdx, OFFSET FLAT:PMC_From_L$rtcFrameData
	call	_RTC_CheckStackVars
	mov	rax, rdi
	lea	rsp, QWORD PTR [rbp+264]
	pop	rdi
	pop	rbp
	ret	0
PMC_From_L ENDP
_TEXT	ENDS
; Function compile flags: /Odtp /RTCsu /ZI
; File z:\sources\lunor\repos\rougemeilland\palmtree.math.core.uint\palmtree.math.core.uint\pmc_from.c
;	COMDAT PMC_From_I
_TEXT	SEGMENT
result$ = 4
p$4 = 40
x$ = 288
o$ = 296
PMC_From_I PROC						; COMDAT

; 84   : {

$LN8:
	mov	QWORD PTR [rsp+16], rdx
	mov	DWORD PTR [rsp+8], ecx
	push	rbp
	push	rdi
	sub	rsp, 296				; 00000128H
	lea	rbp, QWORD PTR [rsp+32]
	mov	rdi, rsp
	mov	ecx, 74					; 0000004aH
	mov	eax, -858993460				; ccccccccH
	rep stosd
	mov	ecx, DWORD PTR [rsp+328]
	lea	rcx, OFFSET FLAT:__ECA0974D_pmc_from@c
	call	__CheckForDebuggerJustMyCode

; 85   :     PMC_STATUS_CODE result;
; 86   :     if (sizeof(__UNIT_TYPE) < sizeof(x))

	xor	eax, eax
	test	eax, eax
	je	SHORT $LN2@PMC_From_I

; 87   :         return (PMC_STATUS_INTERNAL_ERROR);

	mov	eax, -256				; ffffffffffffff00H
	jmp	SHORT $LN1@PMC_From_I
$LN2@PMC_From_I:

; 88   :     if (x == 0)

	cmp	DWORD PTR x$[rbp], 0
	jne	SHORT $LN3@PMC_From_I

; 89   :         *o = (PMC_HANDLE_UINT)&number_zero;

	mov	rax, QWORD PTR o$[rbp]
	lea	rcx, OFFSET FLAT:number_zero
	mov	QWORD PTR [rax], rcx
	jmp	SHORT $LN4@PMC_From_I
$LN3@PMC_From_I:

; 90   :     else
; 91   :     {
; 92   :         NUMBER_HEADER* p;
; 93   :         if ((result = From_I_Imp(x, &p)) != PMC_STATUS_OK)

	lea	rdx, QWORD PTR p$4[rbp]
	mov	ecx, DWORD PTR x$[rbp]
	call	From_I_Imp
	mov	DWORD PTR result$[rbp], eax
	cmp	DWORD PTR result$[rbp], 0
	je	SHORT $LN5@PMC_From_I

; 94   :             return (result);

	mov	eax, DWORD PTR result$[rbp]
	jmp	SHORT $LN1@PMC_From_I
$LN5@PMC_From_I:

; 95   :         *o = (PMC_HANDLE_UINT)p;

	mov	rax, QWORD PTR o$[rbp]
	mov	rcx, QWORD PTR p$4[rbp]
	mov	QWORD PTR [rax], rcx
$LN4@PMC_From_I:

; 96   :     }
; 97   : #ifdef _DEBUG
; 98   :     if ((result = CheckNumber((NUMBER_HEADER*)*o)) != PMC_STATUS_OK)

	mov	rax, QWORD PTR o$[rbp]
	mov	rcx, QWORD PTR [rax]
	call	CheckNumber
	mov	DWORD PTR result$[rbp], eax
	cmp	DWORD PTR result$[rbp], 0
	je	SHORT $LN6@PMC_From_I

; 99   :         return (result);

	mov	eax, DWORD PTR result$[rbp]
	jmp	SHORT $LN1@PMC_From_I
$LN6@PMC_From_I:

; 100  : #endif
; 101  :     return (PMC_STATUS_OK);

	xor	eax, eax
$LN1@PMC_From_I:

; 102  : }

	mov	rdi, rax
	lea	rcx, QWORD PTR [rbp-32]
	lea	rdx, OFFSET FLAT:PMC_From_I$rtcFrameData
	call	_RTC_CheckStackVars
	mov	rax, rdi
	lea	rsp, QWORD PTR [rbp+264]
	pop	rdi
	pop	rbp
	ret	0
PMC_From_I ENDP
_TEXT	ENDS
; Function compile flags: /Odtp /RTCsu /ZI
; File z:\sources\lunor\repos\rougemeilland\palmtree.math.core.uint\palmtree.math.core.uint\pmc_from.c
;	COMDAT Initialize_From
_TEXT	SEGMENT
feature$ = 224
Initialize_From PROC					; COMDAT

; 129  : {

$LN3:
	mov	QWORD PTR [rsp+8], rcx
	push	rbp
	push	rdi
	sub	rsp, 232				; 000000e8H
	lea	rbp, QWORD PTR [rsp+32]
	mov	rdi, rsp
	mov	ecx, 58					; 0000003aH
	mov	eax, -858993460				; ccccccccH
	rep stosd
	mov	rcx, QWORD PTR [rsp+264]
	lea	rcx, OFFSET FLAT:__ECA0974D_pmc_from@c
	call	__CheckForDebuggerJustMyCode

; 130  :     return (PMC_STATUS_OK);

	xor	eax, eax

; 131  : }

	lea	rsp, QWORD PTR [rbp+200]
	pop	rdi
	pop	rbp
	ret	0
Initialize_From ENDP
_TEXT	ENDS
; Function compile flags: /Odtp /RTCsu /ZI
; File z:\sources\lunor\repos\rougemeilland\palmtree.math.core.uint\palmtree.math.core.uint\pmc_from.c
;	COMDAT From_L_Imp
_TEXT	SEGMENT
result$ = 4
x_hi$4 = 36
x_lo$5 = 68
x_bit_length$6 = 104
x_bit_length$7 = 136
x_bit_length$8 = 168
x$ = 416
o$ = 424
From_L_Imp PROC						; COMDAT

; 42   : {

$LN12:
	mov	QWORD PTR [rsp+16], rdx
	mov	QWORD PTR [rsp+8], rcx
	push	rbp
	push	rdi
	sub	rsp, 424				; 000001a8H
	lea	rbp, QWORD PTR [rsp+32]
	mov	rdi, rsp
	mov	ecx, 106				; 0000006aH
	mov	eax, -858993460				; ccccccccH
	rep stosd
	mov	rcx, QWORD PTR [rsp+456]
	lea	rcx, OFFSET FLAT:__ECA0974D_pmc_from@c
	call	__CheckForDebuggerJustMyCode

; 43   :     PMC_STATUS_CODE result;
; 44   :     if (sizeof(__UNIT_TYPE) * 2 < sizeof(x))

	xor	eax, eax
	test	eax, eax
	je	SHORT $LN2@From_L_Imp

; 45   :     {
; 46   :         // _UINT64_T を表現するのに 2 ワードでは不足する処理系には対応しない。
; 47   :         return (PMC_STATUS_INTERNAL_ERROR);

	mov	eax, -256				; ffffffffffffff00H
	jmp	$LN1@From_L_Imp

; 48   :     }

	jmp	$LN3@From_L_Imp
$LN2@From_L_Imp:

; 49   :     else if (sizeof(__UNIT_TYPE) < sizeof(x))

	xor	eax, eax
	test	eax, eax
	je	$LN4@From_L_Imp

; 50   :     {
; 51   :         // _UINT64_T を表現するのに 1 ワードでは不足する(ちょうど 2 ワード必要とする)処理系の場合
; 52   : 
; 53   :         _UINT32_T x_hi;
; 54   :         _UINT32_T x_lo = _FROMDWORDTOWORD(x, &x_hi);

	lea	rdx, QWORD PTR x_hi$4[rbp]
	mov	rcx, QWORD PTR x$[rbp]
	call	_FROMDWORDTOWORD
	mov	DWORD PTR x_lo$5[rbp], eax

; 55   :         if (x_hi == 0)

	cmp	DWORD PTR x_hi$4[rbp], 0
	jne	SHORT $LN6@From_L_Imp

; 56   :         {
; 57   :             __UNIT_TYPE x_bit_length = sizeof(x_lo) * 8 - _LZCNT_ALT_32(x_lo);

	mov	ecx, DWORD PTR x_lo$5[rbp]
	call	_LZCNT_ALT_32
	cdqe
	mov	ecx, 32					; 00000020H
	sub	rcx, rax
	mov	rax, rcx
	mov	QWORD PTR x_bit_length$6[rbp], rax

; 58   :             if ((result = AllocateNumber(o, x_bit_length, NULL)) != PMC_STATUS_OK)

	xor	r8d, r8d
	mov	rdx, QWORD PTR x_bit_length$6[rbp]
	mov	rcx, QWORD PTR o$[rbp]
	call	AllocateNumber
	mov	DWORD PTR result$[rbp], eax
	cmp	DWORD PTR result$[rbp], 0
	je	SHORT $LN8@From_L_Imp

; 59   :                 return (result);

	mov	eax, DWORD PTR result$[rbp]
	jmp	$LN1@From_L_Imp
$LN8@From_L_Imp:

; 60   :         }

	jmp	SHORT $LN7@From_L_Imp
$LN6@From_L_Imp:

; 61   :         else
; 62   :         {
; 63   :             __UNIT_TYPE x_bit_length = sizeof(x) * 8 - _LZCNT_ALT_32(x_hi);

	mov	ecx, DWORD PTR x_hi$4[rbp]
	call	_LZCNT_ALT_32
	cdqe
	mov	ecx, 64					; 00000040H
	sub	rcx, rax
	mov	rax, rcx
	mov	QWORD PTR x_bit_length$7[rbp], rax

; 64   :             if ((result = AllocateNumber(o, x_bit_length, NULL)) != PMC_STATUS_OK)

	xor	r8d, r8d
	mov	rdx, QWORD PTR x_bit_length$7[rbp]
	mov	rcx, QWORD PTR o$[rbp]
	call	AllocateNumber
	mov	DWORD PTR result$[rbp], eax
	cmp	DWORD PTR result$[rbp], 0
	je	SHORT $LN9@From_L_Imp

; 65   :                 return (result);

	mov	eax, DWORD PTR result$[rbp]
	jmp	$LN1@From_L_Imp
$LN9@From_L_Imp:

; 66   :             (*o)->BLOCK[1] = x_hi;

	mov	rax, QWORD PTR o$[rbp]
	mov	rax, QWORD PTR [rax]
	mov	ecx, 8
	imul	rcx, rcx, 1
	mov	rax, QWORD PTR [rax+56]
	mov	edx, DWORD PTR x_hi$4[rbp]
	mov	QWORD PTR [rcx+rax], rdx
$LN7@From_L_Imp:

; 67   :         }
; 68   :         (*o)->BLOCK[0] = x_lo;

	mov	rax, QWORD PTR o$[rbp]
	mov	rax, QWORD PTR [rax]
	mov	ecx, 8
	imul	rcx, rcx, 0
	mov	rax, QWORD PTR [rax+56]
	mov	edx, DWORD PTR x_lo$5[rbp]
	mov	QWORD PTR [rcx+rax], rdx

; 69   :     }

	jmp	SHORT $LN5@From_L_Imp
$LN4@From_L_Imp:

; 70   :     else
; 71   :     {
; 72   :         // _UINT64_T を表現するのに 1 ワードで十分である処理系の場合
; 73   : 
; 74   :         __UNIT_TYPE x_bit_length = sizeof(x) * 8 - _LZCNT_ALT_UNIT((__UNIT_TYPE)x);

	mov	rcx, QWORD PTR x$[rbp]
	call	_LZCNT_ALT_UNIT
	cdqe
	mov	ecx, 64					; 00000040H
	sub	rcx, rax
	mov	rax, rcx
	mov	QWORD PTR x_bit_length$8[rbp], rax

; 75   :         if ((result = AllocateNumber(o, x_bit_length, NULL)) != PMC_STATUS_OK)

	xor	r8d, r8d
	mov	rdx, QWORD PTR x_bit_length$8[rbp]
	mov	rcx, QWORD PTR o$[rbp]
	call	AllocateNumber
	mov	DWORD PTR result$[rbp], eax
	cmp	DWORD PTR result$[rbp], 0
	je	SHORT $LN10@From_L_Imp

; 76   :             return (result);

	mov	eax, DWORD PTR result$[rbp]
	jmp	SHORT $LN1@From_L_Imp
$LN10@From_L_Imp:

; 77   :         (*o)->BLOCK[0] = (__UNIT_TYPE)x;

	mov	rax, QWORD PTR o$[rbp]
	mov	rax, QWORD PTR [rax]
	mov	ecx, 8
	imul	rcx, rcx, 0
	mov	rax, QWORD PTR [rax+56]
	mov	rdx, QWORD PTR x$[rbp]
	mov	QWORD PTR [rcx+rax], rdx
$LN5@From_L_Imp:
$LN3@From_L_Imp:

; 78   :     }
; 79   :     CommitNumber(*o);

	mov	rax, QWORD PTR o$[rbp]
	mov	rcx, QWORD PTR [rax]
	call	CommitNumber

; 80   :     return (PMC_STATUS_OK);

	xor	eax, eax
$LN1@From_L_Imp:

; 81   : }

	mov	rdi, rax
	lea	rcx, QWORD PTR [rbp-32]
	lea	rdx, OFFSET FLAT:From_L_Imp$rtcFrameData
	call	_RTC_CheckStackVars
	mov	rax, rdi
	lea	rsp, QWORD PTR [rbp+392]
	pop	rdi
	pop	rbp
	ret	0
From_L_Imp ENDP
_TEXT	ENDS
; Function compile flags: /Odtp /RTCsu /ZI
; File z:\sources\lunor\repos\rougemeilland\palmtree.math.core.uint\palmtree.math.core.uint\pmc_from.c
;	COMDAT From_I_Imp
_TEXT	SEGMENT
result$ = 4
x$ = 256
o$ = 264
From_I_Imp PROC						; COMDAT

; 32   : {

$LN4:
	mov	QWORD PTR [rsp+16], rdx
	mov	DWORD PTR [rsp+8], ecx
	push	rbp
	push	rdi
	sub	rsp, 264				; 00000108H
	lea	rbp, QWORD PTR [rsp+32]
	mov	rdi, rsp
	mov	ecx, 66					; 00000042H
	mov	eax, -858993460				; ccccccccH
	rep stosd
	mov	ecx, DWORD PTR [rsp+296]
	lea	rcx, OFFSET FLAT:__ECA0974D_pmc_from@c
	call	__CheckForDebuggerJustMyCode

; 33   :     PMC_STATUS_CODE result;
; 34   :     if ((result = AllocateNumber(o, sizeof(x) * 8 - _LZCNT_ALT_32(x), NULL)) != PMC_STATUS_OK)

	mov	ecx, DWORD PTR x$[rbp]
	call	_LZCNT_ALT_32
	cdqe
	mov	ecx, 32					; 00000020H
	sub	rcx, rax
	mov	rax, rcx
	xor	r8d, r8d
	mov	rdx, rax
	mov	rcx, QWORD PTR o$[rbp]
	call	AllocateNumber
	mov	DWORD PTR result$[rbp], eax
	cmp	DWORD PTR result$[rbp], 0
	je	SHORT $LN2@From_I_Imp

; 35   :         return (result);

	mov	eax, DWORD PTR result$[rbp]
	jmp	SHORT $LN1@From_I_Imp
$LN2@From_I_Imp:

; 36   :     (*o)->BLOCK[0] = x;

	mov	rax, QWORD PTR o$[rbp]
	mov	rax, QWORD PTR [rax]
	mov	ecx, 8
	imul	rcx, rcx, 0
	mov	rax, QWORD PTR [rax+56]
	mov	edx, DWORD PTR x$[rbp]
	mov	QWORD PTR [rcx+rax], rdx

; 37   :     CommitNumber(*o);

	mov	rax, QWORD PTR o$[rbp]
	mov	rcx, QWORD PTR [rax]
	call	CommitNumber

; 38   :     return (PMC_STATUS_OK);

	xor	eax, eax
$LN1@From_I_Imp:

; 39   : }

	lea	rsp, QWORD PTR [rbp+232]
	pop	rdi
	pop	rbp
	ret	0
From_I_Imp ENDP
_TEXT	ENDS
END
