; Listing generated by Microsoft (R) Optimizing Compiler Version 19.16.27027.1 

include listing.inc

INCLUDELIB MSVCRTD
INCLUDELIB OLDNAMES

msvcjmc	SEGMENT
__7B7A869E_ctype@h DB 01H
__457DD326_basetsd@h DB 01H
__4384A2D9_corecrt_memcpy_s@h DB 01H
__2088847F_corecrt_memory@h DB 01H
__4E51A221_corecrt_wstring@h DB 01H
__2140C079_string@h DB 01H
__E9FFF232_guiddef@h DB 01H
__1887E595_winnt@h DB 01H
__9FC7C64B_processthreadsapi@h DB 01H
__FA470AEC_memoryapi@h DB 01H
__F37DAFF1_winerror@h DB 01H
__7A450CCC_winbase@h DB 01H
__12AD47BB_winuser@h DB 01H
__B4B40122_winioctl@h DB 01H
__A73354DD_stdlib@h DB 01H
__25F3FB34_propidl@h DB 01H
__A40E48B8_oleauto@h DB 01H
__86261D59_stralign@h DB 01H
__2CC6E67D_corecrt_stdio_config@h DB 01H
__41381B41_corecrt_wconio@h DB 01H
__F0CC4AC4_corecrt_wio@h DB 01H
__05476D76_corecrt_wstdio@h DB 01H
__C0802A2B_corecrt_wtime@h DB 01H
__A40A425D_stat@h DB 01H
__5A74375D_wchar@h DB 01H
__6BC0FD35_vcruntime_new@h DB 01H
__77F53984_cstddef DB 01H
__188180DA_corecrt_math@h DB 01H
__D23EE329_cstdlib DB 01H
__5ECFF36E_type_traits DB 01H
__331E732B_malloc@h DB 01H
__9BB4E194_vcruntime_exception@h DB 01H
__7949CB39_exception DB 01H
__802FEEC0_pmc_exception@h DB 01H
__BB6D3116_pmc_uint_internal@h DB 01H
__1AB12E38_pmc_resourceholder@h DB 01H
__8CA3E54E_pmc_inline_func@h DB 01H
__E05E7037_autogenerated_inline_func@h DB 01H
__AACDA9A0_pmc_greatestcommondivisor@cpp DB 01H
msvcjmc	ENDS
PUBLIC	??0exception@std@@QEAA@XZ			; std::exception::exception
PUBLIC	??1exception@std@@UEAA@XZ			; std::exception::~exception
PUBLIC	?what@exception@std@@UEBAPEBDXZ			; std::exception::what
PUBLIC	??_Gexception@std@@UEAAPEAXI@Z			; std::exception::`scalar deleting destructor'
PUBLIC	??0Exception@Internal@Core@Math@Palmtree@@IEAA@HPEB_W@Z ; Palmtree::Math::Core::Internal::Exception::Exception
PUBLIC	??0Exception@Internal@Core@Math@Palmtree@@IEAA@HPEB_W0@Z ; Palmtree::Math::Core::Internal::Exception::Exception
PUBLIC	??0Exception@Internal@Core@Math@Palmtree@@QEAA@AEBV01234@@Z ; Palmtree::Math::Core::Internal::Exception::Exception
PUBLIC	??1Exception@Internal@Core@Math@Palmtree@@UEAA@XZ ; Palmtree::Math::Core::Internal::Exception::~Exception
PUBLIC	??_GException@Internal@Core@Math@Palmtree@@UEAAPEAXI@Z ; Palmtree::Math::Core::Internal::Exception::`scalar deleting destructor'
PUBLIC	??0ArgumentNullException@Internal@Core@Math@Palmtree@@QEAA@PEB_W0@Z ; Palmtree::Math::Core::Internal::ArgumentNullException::ArgumentNullException
PUBLIC	??0ArgumentNullException@Internal@Core@Math@Palmtree@@QEAA@AEBV01234@@Z ; Palmtree::Math::Core::Internal::ArgumentNullException::ArgumentNullException
PUBLIC	??1ArgumentNullException@Internal@Core@Math@Palmtree@@UEAA@XZ ; Palmtree::Math::Core::Internal::ArgumentNullException::~ArgumentNullException
PUBLIC	??_GArgumentNullException@Internal@Core@Math@Palmtree@@UEAAPEAXI@Z ; Palmtree::Math::Core::Internal::ArgumentNullException::`scalar deleting destructor'
PUBLIC	??0ArithmeticException@Internal@Core@Math@Palmtree@@QEAA@PEB_W@Z ; Palmtree::Math::Core::Internal::ArithmeticException::ArithmeticException
PUBLIC	??1ArithmeticException@Internal@Core@Math@Palmtree@@UEAA@XZ ; Palmtree::Math::Core::Internal::ArithmeticException::~ArithmeticException
PUBLIC	??0ArithmeticException@Internal@Core@Math@Palmtree@@QEAA@AEBV01234@@Z ; Palmtree::Math::Core::Internal::ArithmeticException::ArithmeticException
PUBLIC	??_GArithmeticException@Internal@Core@Math@Palmtree@@UEAAPEAXI@Z ; Palmtree::Math::Core::Internal::ArithmeticException::`scalar deleting destructor'
PUBLIC	??0InternalErrorException@Internal@Core@Math@Palmtree@@QEAA@PEB_W0@Z ; Palmtree::Math::Core::Internal::InternalErrorException::InternalErrorException
PUBLIC	??0InternalErrorException@Internal@Core@Math@Palmtree@@QEAA@AEBV01234@@Z ; Palmtree::Math::Core::Internal::InternalErrorException::InternalErrorException
PUBLIC	??1InternalErrorException@Internal@Core@Math@Palmtree@@UEAA@XZ ; Palmtree::Math::Core::Internal::InternalErrorException::~InternalErrorException
PUBLIC	??_GInternalErrorException@Internal@Core@Math@Palmtree@@UEAAPEAXI@Z ; Palmtree::Math::Core::Internal::InternalErrorException::`scalar deleting destructor'
PUBLIC	?Initialize_GreatestCommonDivisor@Internal@Core@Math@Palmtree@@YAHPEAU_tag_PROCESSOR_FEATURES@1234@@Z ; Palmtree::Math::Core::Internal::Initialize_GreatestCommonDivisor
PUBLIC	?PMC_GreatestCommonDivisor_I_X@Internal@Core@Math@Palmtree@@YAPEAU__tag_PMC_HANDLE_UINT@1234@IPEAU51234@@Z ; Palmtree::Math::Core::Internal::PMC_GreatestCommonDivisor_I_X
PUBLIC	?PMC_GreatestCommonDivisor_L_X@Internal@Core@Math@Palmtree@@YAPEAU__tag_PMC_HANDLE_UINT@1234@_KPEAU51234@@Z ; Palmtree::Math::Core::Internal::PMC_GreatestCommonDivisor_L_X
PUBLIC	?PMC_GreatestCommonDivisor_X_I@Internal@Core@Math@Palmtree@@YAPEAU__tag_PMC_HANDLE_UINT@1234@PEAU51234@I@Z ; Palmtree::Math::Core::Internal::PMC_GreatestCommonDivisor_X_I
PUBLIC	?PMC_GreatestCommonDivisor_X_L@Internal@Core@Math@Palmtree@@YAPEAU__tag_PMC_HANDLE_UINT@1234@PEAU51234@_K@Z ; Palmtree::Math::Core::Internal::PMC_GreatestCommonDivisor_X_L
PUBLIC	?PMC_GreatestCommonDivisor_X_X@Internal@Core@Math@Palmtree@@YAPEAU__tag_PMC_HANDLE_UINT@1234@PEAU51234@0@Z ; Palmtree::Math::Core::Internal::PMC_GreatestCommonDivisor_X_X
PUBLIC	__JustMyCode_Default
PUBLIC	??_7exception@std@@6B@				; std::exception::`vftable'
PUBLIC	??_C@_0BC@EOODALEL@Unknown?5exception@		; `string'
PUBLIC	??_7Exception@Internal@Core@Math@Palmtree@@6B@	; Palmtree::Math::Core::Internal::Exception::`vftable'
PUBLIC	??_7ArgumentNullException@Internal@Core@Math@Palmtree@@6B@ ; Palmtree::Math::Core::Internal::ArgumentNullException::`vftable'
PUBLIC	??_7ArithmeticException@Internal@Core@Math@Palmtree@@6B@ ; Palmtree::Math::Core::Internal::ArithmeticException::`vftable'
PUBLIC	??_7InternalErrorException@Internal@Core@Math@Palmtree@@6B@ ; Palmtree::Math::Core::Internal::InternalErrorException::`vftable'
PUBLIC	_TI2?AVInternalErrorException@Internal@Core@Math@Palmtree@@
PUBLIC	_CTA2?AVInternalErrorException@Internal@Core@Math@Palmtree@@
PUBLIC	??_R0?AVInternalErrorException@Internal@Core@Math@Palmtree@@@8 ; Palmtree::Math::Core::Internal::InternalErrorException `RTTI Type Descriptor'
PUBLIC	_CT??_R0?AVInternalErrorException@Internal@Core@Math@Palmtree@@@8??0InternalErrorException@Internal@Core@Math@Palmtree@@QEAA@AEBV01234@@Z48
PUBLIC	??_R0?AVException@Internal@Core@Math@Palmtree@@@8 ; Palmtree::Math::Core::Internal::Exception `RTTI Type Descriptor'
PUBLIC	_CT??_R0?AVException@Internal@Core@Math@Palmtree@@@8??0Exception@Internal@Core@Math@Palmtree@@QEAA@AEBV01234@@Z48
PUBLIC	??_C@_1CG@CNOPPENL@?$PP?$II?$AA?$BP?$AAW?$AAf?$AAD?$AAj?$AAD?$PP?$LD?$PP?$PM?$PP?I?$AAk?$AA0?$AAT?$AAW?$AA?$HO@ ; `string'
PUBLIC	??_C@_1HE@ECAGDGPP@?$AAp?$AAm?$AAc?$AA_?$AAg?$AAr?$AAe?$AAa?$AAt?$AAe?$AAs?$AAt?$AAc?$AAo?$AAm@ ; `string'
PUBLIC	??_C@_1HK@DNJBGJKK@?$AAp?$AAm?$AAc?$AA_?$AAg?$AAr?$AAe?$AAa?$AAt?$AAe?$AAs?$AAt?$AAc?$AAo?$AAm@ ; `string'
PUBLIC	_TI2?AVArithmeticException@Internal@Core@Math@Palmtree@@
PUBLIC	_CTA2?AVArithmeticException@Internal@Core@Math@Palmtree@@
PUBLIC	??_R0?AVArithmeticException@Internal@Core@Math@Palmtree@@@8 ; Palmtree::Math::Core::Internal::ArithmeticException `RTTI Type Descriptor'
PUBLIC	_CT??_R0?AVArithmeticException@Internal@Core@Math@Palmtree@@@8??0ArithmeticException@Internal@Core@Math@Palmtree@@QEAA@AEBV01234@@Z48
PUBLIC	??_C@_1DO@NPBJHMD@?$AA?$BF?$AAp?$AAL?$AA2?$AAd?$AAh?$PP?$IC?$AA0?$AAj?$AAn?$AAg?$AAG?$AAC?$AAD?$PP?$JC@ ; `string'
PUBLIC	??_C@_1HM@ONPGCBJJ@?$AAp?$AAm?$AAc?$AA_?$AAg?$AAr?$AAe?$AAa?$AAt?$AAe?$AAs?$AAt?$AAc?$AAo?$AAm@ ; `string'
PUBLIC	_TI2?AVArgumentNullException@Internal@Core@Math@Palmtree@@
PUBLIC	_CTA2?AVArgumentNullException@Internal@Core@Math@Palmtree@@
PUBLIC	??_R0?AVArgumentNullException@Internal@Core@Math@Palmtree@@@8 ; Palmtree::Math::Core::Internal::ArgumentNullException `RTTI Type Descriptor'
PUBLIC	_CT??_R0?AVArgumentNullException@Internal@Core@Math@Palmtree@@@8??0ArgumentNullException@Internal@Core@Math@Palmtree@@QEAA@AEBV01234@@Z48
PUBLIC	??_C@_13JAOPNPKD@?$AAv@				; `string'
PUBLIC	??_C@_1CK@ECFIEPAC@?$AA?$BF?$AAp?$AAk?$AAn?$AAu?$AAl?$AAl?$AAp?$AAt?$AAr?$AAL?$AA?$AO?$AAH?$PP?$IJ?$PP?$IM@ ; `string'
PUBLIC	??_C@_1HM@MKFKLBLP@?$AAp?$AAm?$AAc?$AA_?$AAg?$AAr?$AAe?$AAa?$AAt?$AAe?$AAs?$AAt?$AAc?$AAo?$AAm@ ; `string'
PUBLIC	??_C@_13ICFKHAEN@?$AAu@				; `string'
PUBLIC	??_C@_1HM@HFFFFGIJ@?$AAp?$AAm?$AAc?$AA_?$AAg?$AAr?$AAe?$AAa?$AAt?$AAe?$AAs?$AAt?$AAc?$AAo?$AAm@ ; `string'
PUBLIC	??_C@_1HM@ICLKLPNL@?$AAp?$AAm?$AAc?$AA_?$AAg?$AAr?$AAe?$AAa?$AAt?$AAe?$AAs?$AAt?$AAc?$AAo?$AAm@ ; `string'
PUBLIC	??_R4exception@std@@6B@				; std::exception::`RTTI Complete Object Locator'
PUBLIC	??_R0?AVexception@std@@@8			; std::exception `RTTI Type Descriptor'
PUBLIC	??_R3exception@std@@8				; std::exception::`RTTI Class Hierarchy Descriptor'
PUBLIC	??_R2exception@std@@8				; std::exception::`RTTI Base Class Array'
PUBLIC	??_R1A@?0A@EA@exception@std@@8			; std::exception::`RTTI Base Class Descriptor at (0,-1,0,64)'
PUBLIC	??_R4Exception@Internal@Core@Math@Palmtree@@6B@	; Palmtree::Math::Core::Internal::Exception::`RTTI Complete Object Locator'
PUBLIC	??_R3Exception@Internal@Core@Math@Palmtree@@8	; Palmtree::Math::Core::Internal::Exception::`RTTI Class Hierarchy Descriptor'
PUBLIC	??_R2Exception@Internal@Core@Math@Palmtree@@8	; Palmtree::Math::Core::Internal::Exception::`RTTI Base Class Array'
PUBLIC	??_R1A@?0A@EA@Exception@Internal@Core@Math@Palmtree@@8 ; Palmtree::Math::Core::Internal::Exception::`RTTI Base Class Descriptor at (0,-1,0,64)'
PUBLIC	??_R1A@?0A@EN@exception@std@@8			; std::exception::`RTTI Base Class Descriptor at (0,-1,0,77)'
PUBLIC	??_R4ArgumentNullException@Internal@Core@Math@Palmtree@@6B@ ; Palmtree::Math::Core::Internal::ArgumentNullException::`RTTI Complete Object Locator'
PUBLIC	??_R3ArgumentNullException@Internal@Core@Math@Palmtree@@8 ; Palmtree::Math::Core::Internal::ArgumentNullException::`RTTI Class Hierarchy Descriptor'
PUBLIC	??_R2ArgumentNullException@Internal@Core@Math@Palmtree@@8 ; Palmtree::Math::Core::Internal::ArgumentNullException::`RTTI Base Class Array'
PUBLIC	??_R1A@?0A@EA@ArgumentNullException@Internal@Core@Math@Palmtree@@8 ; Palmtree::Math::Core::Internal::ArgumentNullException::`RTTI Base Class Descriptor at (0,-1,0,64)'
PUBLIC	??_R4ArithmeticException@Internal@Core@Math@Palmtree@@6B@ ; Palmtree::Math::Core::Internal::ArithmeticException::`RTTI Complete Object Locator'
PUBLIC	??_R3ArithmeticException@Internal@Core@Math@Palmtree@@8 ; Palmtree::Math::Core::Internal::ArithmeticException::`RTTI Class Hierarchy Descriptor'
PUBLIC	??_R2ArithmeticException@Internal@Core@Math@Palmtree@@8 ; Palmtree::Math::Core::Internal::ArithmeticException::`RTTI Base Class Array'
PUBLIC	??_R1A@?0A@EA@ArithmeticException@Internal@Core@Math@Palmtree@@8 ; Palmtree::Math::Core::Internal::ArithmeticException::`RTTI Base Class Descriptor at (0,-1,0,64)'
PUBLIC	??_R4InternalErrorException@Internal@Core@Math@Palmtree@@6B@ ; Palmtree::Math::Core::Internal::InternalErrorException::`RTTI Complete Object Locator'
PUBLIC	??_R3InternalErrorException@Internal@Core@Math@Palmtree@@8 ; Palmtree::Math::Core::Internal::InternalErrorException::`RTTI Class Hierarchy Descriptor'
PUBLIC	??_R2InternalErrorException@Internal@Core@Math@Palmtree@@8 ; Palmtree::Math::Core::Internal::InternalErrorException::`RTTI Base Class Array'
PUBLIC	??_R1A@?0A@EA@InternalErrorException@Internal@Core@Math@Palmtree@@8 ; Palmtree::Math::Core::Internal::InternalErrorException::`RTTI Base Class Descriptor at (0,-1,0,64)'
EXTRN	??3@YAXPEAX_K@Z:PROC				; operator delete
EXTRN	__std_exception_destroy:PROC
EXTRN	??_Eexception@std@@UEAAPEAXI@Z:PROC		; std::exception::`vector deleting destructor'
EXTRN	??_EException@Internal@Core@Math@Palmtree@@UEAAPEAXI@Z:PROC ; Palmtree::Math::Core::Internal::Exception::`vector deleting destructor'
EXTRN	??_EArgumentNullException@Internal@Core@Math@Palmtree@@UEAAPEAXI@Z:PROC ; Palmtree::Math::Core::Internal::ArgumentNullException::`vector deleting destructor'
EXTRN	??_EArithmeticException@Internal@Core@Math@Palmtree@@UEAAPEAXI@Z:PROC ; Palmtree::Math::Core::Internal::ArithmeticException::`vector deleting destructor'
EXTRN	??_EInternalErrorException@Internal@Core@Math@Palmtree@@UEAAPEAXI@Z:PROC ; Palmtree::Math::Core::Internal::InternalErrorException::`vector deleting destructor'
EXTRN	?CommitNumber@Internal@Core@Math@Palmtree@@YAXPEAU__tag_NUMBER_HEADER@1234@@Z:PROC ; Palmtree::Math::Core::Internal::CommitNumber
EXTRN	?CheckNumber@Internal@Core@Math@Palmtree@@YAXPEAU__tag_NUMBER_HEADER@1234@@Z:PROC ; Palmtree::Math::Core::Internal::CheckNumber
EXTRN	?DuplicateNumber@Internal@Core@Math@Palmtree@@YAPEAU__tag_NUMBER_HEADER@1234@PEAU51234@@Z:PROC ; Palmtree::Math::Core::Internal::DuplicateNumber
EXTRN	?From_I_Imp@Internal@Core@Math@Palmtree@@YAPEAU__tag_NUMBER_HEADER@1234@I@Z:PROC ; Palmtree::Math::Core::Internal::From_I_Imp
EXTRN	?From_L_Imp@Internal@Core@Math@Palmtree@@YAPEAU__tag_NUMBER_HEADER@1234@_K@Z:PROC ; Palmtree::Math::Core::Internal::From_L_Imp
EXTRN	?RightShift_Imp@Internal@Core@Math@Palmtree@@YAXPEA_K_K10H@Z:PROC ; Palmtree::Math::Core::Internal::RightShift_Imp
EXTRN	?LeftShift_Imp@Internal@Core@Math@Palmtree@@YAXPEA_K_K10H@Z:PROC ; Palmtree::Math::Core::Internal::LeftShift_Imp
EXTRN	?Subtruct_Imp@Internal@Core@Math@Palmtree@@YAXPEA_K_K0101@Z:PROC ; Palmtree::Math::Core::Internal::Subtruct_Imp
EXTRN	?Compare_Imp@Internal@Core@Math@Palmtree@@YAHPEA_K0_K@Z:PROC ; Palmtree::Math::Core::Internal::Compare_Imp
EXTRN	??0ResourceHolderUINT@Internal@Core@Math@Palmtree@@QEAA@XZ:PROC ; Palmtree::Math::Core::Internal::ResourceHolderUINT::ResourceHolderUINT
EXTRN	??1ResourceHolderUINT@Internal@Core@Math@Palmtree@@UEAA@XZ:PROC ; Palmtree::Math::Core::Internal::ResourceHolderUINT::~ResourceHolderUINT
EXTRN	?AllocateBlock@ResourceHolderUINT@Internal@Core@Math@Palmtree@@QEAAPEA_K_K@Z:PROC ; Palmtree::Math::Core::Internal::ResourceHolderUINT::AllocateBlock
EXTRN	?DeallocateBlock@ResourceHolderUINT@Internal@Core@Math@Palmtree@@QEAAXPEA_K@Z:PROC ; Palmtree::Math::Core::Internal::ResourceHolderUINT::DeallocateBlock
EXTRN	?CheckBlock@ResourceHolderUINT@Internal@Core@Math@Palmtree@@QEAAXPEA_K@Z:PROC ; Palmtree::Math::Core::Internal::ResourceHolderUINT::CheckBlock
EXTRN	?AllocateNumber@ResourceHolderUINT@Internal@Core@Math@Palmtree@@QEAAPEAU__tag_NUMBER_HEADER@2345@_K@Z:PROC ; Palmtree::Math::Core::Internal::ResourceHolderUINT::AllocateNumber
EXTRN	?HookNumber@ResourceHolderUINT@Internal@Core@Math@Palmtree@@QEAAXPEAU__tag_NUMBER_HEADER@2345@@Z:PROC ; Palmtree::Math::Core::Internal::ResourceHolderUINT::HookNumber
EXTRN	?CheckNumber@ResourceHolderUINT@Internal@Core@Math@Palmtree@@QEAAXPEAU__tag_NUMBER_HEADER@2345@@Z:PROC ; Palmtree::Math::Core::Internal::ResourceHolderUINT::CheckNumber
EXTRN	?UnlinkNumber@ResourceHolderUINT@Internal@Core@Math@Palmtree@@QEAAXPEAU__tag_NUMBER_HEADER@2345@@Z:PROC ; Palmtree::Math::Core::Internal::ResourceHolderUINT::UnlinkNumber
EXTRN	_CxxThrowException:PROC
EXTRN	_RTC_CheckStackVars:PROC
EXTRN	_RTC_InitBase:PROC
EXTRN	_RTC_Shutdown:PROC
EXTRN	__CheckForDebuggerJustMyCode:PROC
EXTRN	__CxxFrameHandler3:PROC
EXTRN	??_7type_info@@6B@:BYTE				; type_info::`vftable'
;	COMDAT pdata
pdata	SEGMENT
$pdata$??0exception@std@@QEAA@XZ DD imagerel $LN3
	DD	imagerel $LN3+123
	DD	imagerel $unwind$??0exception@std@@QEAA@XZ
pdata	ENDS
;	COMDAT pdata
pdata	SEGMENT
$pdata$??1exception@std@@UEAA@XZ DD imagerel $LN3
	DD	imagerel $LN3+113
	DD	imagerel $unwind$??1exception@std@@UEAA@XZ
pdata	ENDS
;	COMDAT pdata
pdata	SEGMENT
$pdata$?what@exception@std@@UEBAPEBDXZ DD imagerel $LN5
	DD	imagerel $LN5+119
	DD	imagerel $unwind$?what@exception@std@@UEBAPEBDXZ
pdata	ENDS
;	COMDAT pdata
pdata	SEGMENT
$pdata$??_Gexception@std@@UEAAPEAXI@Z DD imagerel $LN4
	DD	imagerel $LN4+105
	DD	imagerel $unwind$??_Gexception@std@@UEAAPEAXI@Z
pdata	ENDS
;	COMDAT pdata
pdata	SEGMENT
$pdata$??0Exception@Internal@Core@Math@Palmtree@@IEAA@HPEB_W@Z DD imagerel $LN4
	DD	imagerel $LN4+171
	DD	imagerel $unwind$??0Exception@Internal@Core@Math@Palmtree@@IEAA@HPEB_W@Z
pdata	ENDS
;	COMDAT pdata
pdata	SEGMENT
$pdata$?dtor$0@?0???0Exception@Internal@Core@Math@Palmtree@@IEAA@HPEB_W@Z@4HA DD imagerel ?dtor$0@?0???0Exception@Internal@Core@Math@Palmtree@@IEAA@HPEB_W@Z@4HA
	DD	imagerel ?dtor$0@?0???0Exception@Internal@Core@Math@Palmtree@@IEAA@HPEB_W@Z@4HA+39
	DD	imagerel $unwind$?dtor$0@?0???0Exception@Internal@Core@Math@Palmtree@@IEAA@HPEB_W@Z@4HA
pdata	ENDS
;	COMDAT pdata
pdata	SEGMENT
$pdata$??0Exception@Internal@Core@Math@Palmtree@@IEAA@HPEB_W0@Z DD imagerel $LN4
	DD	imagerel $LN4+179
	DD	imagerel $unwind$??0Exception@Internal@Core@Math@Palmtree@@IEAA@HPEB_W0@Z
pdata	ENDS
;	COMDAT pdata
pdata	SEGMENT
$pdata$?dtor$0@?0???0Exception@Internal@Core@Math@Palmtree@@IEAA@HPEB_W0@Z@4HA DD imagerel ?dtor$0@?0???0Exception@Internal@Core@Math@Palmtree@@IEAA@HPEB_W0@Z@4HA
	DD	imagerel ?dtor$0@?0???0Exception@Internal@Core@Math@Palmtree@@IEAA@HPEB_W0@Z@4HA+39
	DD	imagerel $unwind$?dtor$0@?0???0Exception@Internal@Core@Math@Palmtree@@IEAA@HPEB_W0@Z@4HA
pdata	ENDS
;	COMDAT pdata
pdata	SEGMENT
$pdata$??0Exception@Internal@Core@Math@Palmtree@@QEAA@AEBV01234@@Z DD imagerel $LN4
	DD	imagerel $LN4+182
	DD	imagerel $unwind$??0Exception@Internal@Core@Math@Palmtree@@QEAA@AEBV01234@@Z
pdata	ENDS
;	COMDAT pdata
pdata	SEGMENT
$pdata$?dtor$0@?0???0Exception@Internal@Core@Math@Palmtree@@QEAA@AEBV01234@@Z@4HA DD imagerel ?dtor$0@?0???0Exception@Internal@Core@Math@Palmtree@@QEAA@AEBV01234@@Z@4HA
	DD	imagerel ?dtor$0@?0???0Exception@Internal@Core@Math@Palmtree@@QEAA@AEBV01234@@Z@4HA+39
	DD	imagerel $unwind$?dtor$0@?0???0Exception@Internal@Core@Math@Palmtree@@QEAA@AEBV01234@@Z@4HA
pdata	ENDS
;	COMDAT pdata
pdata	SEGMENT
$pdata$??1Exception@Internal@Core@Math@Palmtree@@UEAA@XZ DD imagerel $LN4
	DD	imagerel $LN4+106
	DD	imagerel $unwind$??1Exception@Internal@Core@Math@Palmtree@@UEAA@XZ
pdata	ENDS
;	COMDAT pdata
pdata	SEGMENT
$pdata$?dtor$0@?0???1Exception@Internal@Core@Math@Palmtree@@UEAA@XZ@4HA DD imagerel ?dtor$0@?0???1Exception@Internal@Core@Math@Palmtree@@UEAA@XZ@4HA
	DD	imagerel ?dtor$0@?0???1Exception@Internal@Core@Math@Palmtree@@UEAA@XZ@4HA+39
	DD	imagerel $unwind$?dtor$0@?0???1Exception@Internal@Core@Math@Palmtree@@UEAA@XZ@4HA
pdata	ENDS
;	COMDAT pdata
pdata	SEGMENT
$pdata$??_GException@Internal@Core@Math@Palmtree@@UEAAPEAXI@Z DD imagerel $LN4
	DD	imagerel $LN4+105
	DD	imagerel $unwind$??_GException@Internal@Core@Math@Palmtree@@UEAAPEAXI@Z
pdata	ENDS
;	COMDAT pdata
pdata	SEGMENT
$pdata$??0ArgumentNullException@Internal@Core@Math@Palmtree@@QEAA@PEB_W0@Z DD imagerel $LN4
	DD	imagerel $LN4+142
	DD	imagerel $unwind$??0ArgumentNullException@Internal@Core@Math@Palmtree@@QEAA@PEB_W0@Z
pdata	ENDS
;	COMDAT pdata
pdata	SEGMENT
$pdata$?dtor$0@?0???0ArgumentNullException@Internal@Core@Math@Palmtree@@QEAA@PEB_W0@Z@4HA DD imagerel ?dtor$0@?0???0ArgumentNullException@Internal@Core@Math@Palmtree@@QEAA@PEB_W0@Z@4HA
	DD	imagerel ?dtor$0@?0???0ArgumentNullException@Internal@Core@Math@Palmtree@@QEAA@PEB_W0@Z@4HA+39
	DD	imagerel $unwind$?dtor$0@?0???0ArgumentNullException@Internal@Core@Math@Palmtree@@QEAA@PEB_W0@Z@4HA
pdata	ENDS
;	COMDAT pdata
pdata	SEGMENT
$pdata$??0ArgumentNullException@Internal@Core@Math@Palmtree@@QEAA@AEBV01234@@Z DD imagerel $LN4
	DD	imagerel $LN4+125
	DD	imagerel $unwind$??0ArgumentNullException@Internal@Core@Math@Palmtree@@QEAA@AEBV01234@@Z
pdata	ENDS
;	COMDAT pdata
pdata	SEGMENT
$pdata$?dtor$0@?0???0ArgumentNullException@Internal@Core@Math@Palmtree@@QEAA@AEBV01234@@Z@4HA DD imagerel ?dtor$0@?0???0ArgumentNullException@Internal@Core@Math@Palmtree@@QEAA@AEBV01234@@Z@4HA
	DD	imagerel ?dtor$0@?0???0ArgumentNullException@Internal@Core@Math@Palmtree@@QEAA@AEBV01234@@Z@4HA+39
	DD	imagerel $unwind$?dtor$0@?0???0ArgumentNullException@Internal@Core@Math@Palmtree@@QEAA@AEBV01234@@Z@4HA
pdata	ENDS
;	COMDAT pdata
pdata	SEGMENT
$pdata$??1ArgumentNullException@Internal@Core@Math@Palmtree@@UEAA@XZ DD imagerel $LN4
	DD	imagerel $LN4+106
	DD	imagerel $unwind$??1ArgumentNullException@Internal@Core@Math@Palmtree@@UEAA@XZ
pdata	ENDS
;	COMDAT pdata
pdata	SEGMENT
$pdata$?dtor$0@?0???1ArgumentNullException@Internal@Core@Math@Palmtree@@UEAA@XZ@4HA DD imagerel ?dtor$0@?0???1ArgumentNullException@Internal@Core@Math@Palmtree@@UEAA@XZ@4HA
	DD	imagerel ?dtor$0@?0???1ArgumentNullException@Internal@Core@Math@Palmtree@@UEAA@XZ@4HA+39
	DD	imagerel $unwind$?dtor$0@?0???1ArgumentNullException@Internal@Core@Math@Palmtree@@UEAA@XZ@4HA
pdata	ENDS
;	COMDAT pdata
pdata	SEGMENT
$pdata$??_GArgumentNullException@Internal@Core@Math@Palmtree@@UEAAPEAXI@Z DD imagerel $LN4
	DD	imagerel $LN4+105
	DD	imagerel $unwind$??_GArgumentNullException@Internal@Core@Math@Palmtree@@UEAAPEAXI@Z
pdata	ENDS
;	COMDAT pdata
pdata	SEGMENT
$pdata$??0ArithmeticException@Internal@Core@Math@Palmtree@@QEAA@PEB_W@Z DD imagerel $LN4
	DD	imagerel $LN4+130
	DD	imagerel $unwind$??0ArithmeticException@Internal@Core@Math@Palmtree@@QEAA@PEB_W@Z
pdata	ENDS
;	COMDAT pdata
pdata	SEGMENT
$pdata$?dtor$0@?0???0ArithmeticException@Internal@Core@Math@Palmtree@@QEAA@PEB_W@Z@4HA DD imagerel ?dtor$0@?0???0ArithmeticException@Internal@Core@Math@Palmtree@@QEAA@PEB_W@Z@4HA
	DD	imagerel ?dtor$0@?0???0ArithmeticException@Internal@Core@Math@Palmtree@@QEAA@PEB_W@Z@4HA+39
	DD	imagerel $unwind$?dtor$0@?0???0ArithmeticException@Internal@Core@Math@Palmtree@@QEAA@PEB_W@Z@4HA
pdata	ENDS
;	COMDAT pdata
pdata	SEGMENT
$pdata$??1ArithmeticException@Internal@Core@Math@Palmtree@@UEAA@XZ DD imagerel $LN4
	DD	imagerel $LN4+106
	DD	imagerel $unwind$??1ArithmeticException@Internal@Core@Math@Palmtree@@UEAA@XZ
pdata	ENDS
;	COMDAT pdata
pdata	SEGMENT
$pdata$?dtor$0@?0???1ArithmeticException@Internal@Core@Math@Palmtree@@UEAA@XZ@4HA DD imagerel ?dtor$0@?0???1ArithmeticException@Internal@Core@Math@Palmtree@@UEAA@XZ@4HA
	DD	imagerel ?dtor$0@?0???1ArithmeticException@Internal@Core@Math@Palmtree@@UEAA@XZ@4HA+39
	DD	imagerel $unwind$?dtor$0@?0???1ArithmeticException@Internal@Core@Math@Palmtree@@UEAA@XZ@4HA
pdata	ENDS
;	COMDAT pdata
pdata	SEGMENT
$pdata$??0ArithmeticException@Internal@Core@Math@Palmtree@@QEAA@AEBV01234@@Z DD imagerel $LN4
	DD	imagerel $LN4+112
	DD	imagerel $unwind$??0ArithmeticException@Internal@Core@Math@Palmtree@@QEAA@AEBV01234@@Z
pdata	ENDS
;	COMDAT pdata
pdata	SEGMENT
$pdata$?dtor$0@?0???0ArithmeticException@Internal@Core@Math@Palmtree@@QEAA@AEBV01234@@Z@4HA DD imagerel ?dtor$0@?0???0ArithmeticException@Internal@Core@Math@Palmtree@@QEAA@AEBV01234@@Z@4HA
	DD	imagerel ?dtor$0@?0???0ArithmeticException@Internal@Core@Math@Palmtree@@QEAA@AEBV01234@@Z@4HA+39
	DD	imagerel $unwind$?dtor$0@?0???0ArithmeticException@Internal@Core@Math@Palmtree@@QEAA@AEBV01234@@Z@4HA
pdata	ENDS
;	COMDAT pdata
pdata	SEGMENT
$pdata$??_GArithmeticException@Internal@Core@Math@Palmtree@@UEAAPEAXI@Z DD imagerel $LN4
	DD	imagerel $LN4+105
	DD	imagerel $unwind$??_GArithmeticException@Internal@Core@Math@Palmtree@@UEAAPEAXI@Z
pdata	ENDS
;	COMDAT pdata
pdata	SEGMENT
$pdata$??0InternalErrorException@Internal@Core@Math@Palmtree@@QEAA@PEB_W0@Z DD imagerel $LN4
	DD	imagerel $LN4+142
	DD	imagerel $unwind$??0InternalErrorException@Internal@Core@Math@Palmtree@@QEAA@PEB_W0@Z
pdata	ENDS
;	COMDAT pdata
pdata	SEGMENT
$pdata$?dtor$0@?0???0InternalErrorException@Internal@Core@Math@Palmtree@@QEAA@PEB_W0@Z@4HA DD imagerel ?dtor$0@?0???0InternalErrorException@Internal@Core@Math@Palmtree@@QEAA@PEB_W0@Z@4HA
	DD	imagerel ?dtor$0@?0???0InternalErrorException@Internal@Core@Math@Palmtree@@QEAA@PEB_W0@Z@4HA+39
	DD	imagerel $unwind$?dtor$0@?0???0InternalErrorException@Internal@Core@Math@Palmtree@@QEAA@PEB_W0@Z@4HA
pdata	ENDS
;	COMDAT pdata
pdata	SEGMENT
$pdata$??0InternalErrorException@Internal@Core@Math@Palmtree@@QEAA@AEBV01234@@Z DD imagerel $LN4
	DD	imagerel $LN4+125
	DD	imagerel $unwind$??0InternalErrorException@Internal@Core@Math@Palmtree@@QEAA@AEBV01234@@Z
pdata	ENDS
;	COMDAT pdata
pdata	SEGMENT
$pdata$?dtor$0@?0???0InternalErrorException@Internal@Core@Math@Palmtree@@QEAA@AEBV01234@@Z@4HA DD imagerel ?dtor$0@?0???0InternalErrorException@Internal@Core@Math@Palmtree@@QEAA@AEBV01234@@Z@4HA
	DD	imagerel ?dtor$0@?0???0InternalErrorException@Internal@Core@Math@Palmtree@@QEAA@AEBV01234@@Z@4HA+39
	DD	imagerel $unwind$?dtor$0@?0???0InternalErrorException@Internal@Core@Math@Palmtree@@QEAA@AEBV01234@@Z@4HA
pdata	ENDS
;	COMDAT pdata
pdata	SEGMENT
$pdata$??1InternalErrorException@Internal@Core@Math@Palmtree@@UEAA@XZ DD imagerel $LN4
	DD	imagerel $LN4+106
	DD	imagerel $unwind$??1InternalErrorException@Internal@Core@Math@Palmtree@@UEAA@XZ
pdata	ENDS
;	COMDAT pdata
pdata	SEGMENT
$pdata$?dtor$0@?0???1InternalErrorException@Internal@Core@Math@Palmtree@@UEAA@XZ@4HA DD imagerel ?dtor$0@?0???1InternalErrorException@Internal@Core@Math@Palmtree@@UEAA@XZ@4HA
	DD	imagerel ?dtor$0@?0???1InternalErrorException@Internal@Core@Math@Palmtree@@UEAA@XZ@4HA+39
	DD	imagerel $unwind$?dtor$0@?0???1InternalErrorException@Internal@Core@Math@Palmtree@@UEAA@XZ@4HA
pdata	ENDS
;	COMDAT pdata
pdata	SEGMENT
$pdata$??_GInternalErrorException@Internal@Core@Math@Palmtree@@UEAAPEAXI@Z DD imagerel $LN4
	DD	imagerel $LN4+105
	DD	imagerel $unwind$??_GInternalErrorException@Internal@Core@Math@Palmtree@@UEAAPEAXI@Z
pdata	ENDS
;	COMDAT pdata
pdata	SEGMENT
$pdata$?Initialize_GreatestCommonDivisor@Internal@Core@Math@Palmtree@@YAHPEAU_tag_PROCESSOR_FEATURES@1234@@Z DD imagerel $LN3
	DD	imagerel $LN3+66
	DD	imagerel $unwind$?Initialize_GreatestCommonDivisor@Internal@Core@Math@Palmtree@@YAHPEAU_tag_PROCESSOR_FEATURES@1234@@Z
pdata	ENDS
;	COMDAT pdata
pdata	SEGMENT
$pdata$?PMC_GreatestCommonDivisor_I_X@Internal@Core@Math@Palmtree@@YAPEAU__tag_PMC_HANDLE_UINT@1234@IPEAU51234@@Z DD imagerel $LN7
	DD	imagerel $LN7+312
	DD	imagerel $unwind$?PMC_GreatestCommonDivisor_I_X@Internal@Core@Math@Palmtree@@YAPEAU__tag_PMC_HANDLE_UINT@1234@IPEAU51234@@Z
pdata	ENDS
;	COMDAT pdata
pdata	SEGMENT
$pdata$?dtor$0@?0??PMC_GreatestCommonDivisor_I_X@Internal@Core@Math@Palmtree@@YAPEAU__tag_PMC_HANDLE_UINT@1234@IPEAU51234@@Z@4HA DD imagerel ?dtor$0@?0??PMC_GreatestCommonDivisor_I_X@Internal@Core@Math@Palmtree@@YAPEAU__tag_PMC_HANDLE_UINT@1234@IPEAU51234@@Z@4HA
	DD	imagerel ?dtor$0@?0??PMC_GreatestCommonDivisor_I_X@Internal@Core@Math@Palmtree@@YAPEAU__tag_PMC_HANDLE_UINT@1234@IPEAU51234@@Z@4HA+36
	DD	imagerel $unwind$?dtor$0@?0??PMC_GreatestCommonDivisor_I_X@Internal@Core@Math@Palmtree@@YAPEAU__tag_PMC_HANDLE_UINT@1234@IPEAU51234@@Z@4HA
pdata	ENDS
;	COMDAT pdata
pdata	SEGMENT
$pdata$?PMC_GreatestCommonDivisor_L_X@Internal@Core@Math@Palmtree@@YAPEAU__tag_PMC_HANDLE_UINT@1234@_KPEAU51234@@Z DD imagerel $LN7
	DD	imagerel $LN7+315
	DD	imagerel $unwind$?PMC_GreatestCommonDivisor_L_X@Internal@Core@Math@Palmtree@@YAPEAU__tag_PMC_HANDLE_UINT@1234@_KPEAU51234@@Z
pdata	ENDS
;	COMDAT pdata
pdata	SEGMENT
$pdata$?dtor$0@?0??PMC_GreatestCommonDivisor_L_X@Internal@Core@Math@Palmtree@@YAPEAU__tag_PMC_HANDLE_UINT@1234@_KPEAU51234@@Z@4HA DD imagerel ?dtor$0@?0??PMC_GreatestCommonDivisor_L_X@Internal@Core@Math@Palmtree@@YAPEAU__tag_PMC_HANDLE_UINT@1234@_KPEAU51234@@Z@4HA
	DD	imagerel ?dtor$0@?0??PMC_GreatestCommonDivisor_L_X@Internal@Core@Math@Palmtree@@YAPEAU__tag_PMC_HANDLE_UINT@1234@_KPEAU51234@@Z@4HA+36
	DD	imagerel $unwind$?dtor$0@?0??PMC_GreatestCommonDivisor_L_X@Internal@Core@Math@Palmtree@@YAPEAU__tag_PMC_HANDLE_UINT@1234@_KPEAU51234@@Z@4HA
pdata	ENDS
;	COMDAT pdata
pdata	SEGMENT
$pdata$?PMC_GreatestCommonDivisor_X_I@Internal@Core@Math@Palmtree@@YAPEAU__tag_PMC_HANDLE_UINT@1234@PEAU51234@I@Z DD imagerel $LN7
	DD	imagerel $LN7+313
	DD	imagerel $unwind$?PMC_GreatestCommonDivisor_X_I@Internal@Core@Math@Palmtree@@YAPEAU__tag_PMC_HANDLE_UINT@1234@PEAU51234@I@Z
pdata	ENDS
;	COMDAT pdata
pdata	SEGMENT
$pdata$?dtor$0@?0??PMC_GreatestCommonDivisor_X_I@Internal@Core@Math@Palmtree@@YAPEAU__tag_PMC_HANDLE_UINT@1234@PEAU51234@I@Z@4HA DD imagerel ?dtor$0@?0??PMC_GreatestCommonDivisor_X_I@Internal@Core@Math@Palmtree@@YAPEAU__tag_PMC_HANDLE_UINT@1234@PEAU51234@I@Z@4HA
	DD	imagerel ?dtor$0@?0??PMC_GreatestCommonDivisor_X_I@Internal@Core@Math@Palmtree@@YAPEAU__tag_PMC_HANDLE_UINT@1234@PEAU51234@I@Z@4HA+36
	DD	imagerel $unwind$?dtor$0@?0??PMC_GreatestCommonDivisor_X_I@Internal@Core@Math@Palmtree@@YAPEAU__tag_PMC_HANDLE_UINT@1234@PEAU51234@I@Z@4HA
pdata	ENDS
;	COMDAT pdata
pdata	SEGMENT
$pdata$?PMC_GreatestCommonDivisor_X_L@Internal@Core@Math@Palmtree@@YAPEAU__tag_PMC_HANDLE_UINT@1234@PEAU51234@_K@Z DD imagerel $LN7
	DD	imagerel $LN7+315
	DD	imagerel $unwind$?PMC_GreatestCommonDivisor_X_L@Internal@Core@Math@Palmtree@@YAPEAU__tag_PMC_HANDLE_UINT@1234@PEAU51234@_K@Z
pdata	ENDS
;	COMDAT pdata
pdata	SEGMENT
$pdata$?dtor$0@?0??PMC_GreatestCommonDivisor_X_L@Internal@Core@Math@Palmtree@@YAPEAU__tag_PMC_HANDLE_UINT@1234@PEAU51234@_K@Z@4HA DD imagerel ?dtor$0@?0??PMC_GreatestCommonDivisor_X_L@Internal@Core@Math@Palmtree@@YAPEAU__tag_PMC_HANDLE_UINT@1234@PEAU51234@_K@Z@4HA
	DD	imagerel ?dtor$0@?0??PMC_GreatestCommonDivisor_X_L@Internal@Core@Math@Palmtree@@YAPEAU__tag_PMC_HANDLE_UINT@1234@PEAU51234@_K@Z@4HA+36
	DD	imagerel $unwind$?dtor$0@?0??PMC_GreatestCommonDivisor_X_L@Internal@Core@Math@Palmtree@@YAPEAU__tag_PMC_HANDLE_UINT@1234@PEAU51234@_K@Z@4HA
pdata	ENDS
;	COMDAT pdata
pdata	SEGMENT
$pdata$?PMC_GreatestCommonDivisor_X_X@Internal@Core@Math@Palmtree@@YAPEAU__tag_PMC_HANDLE_UINT@1234@PEAU51234@0@Z DD imagerel $LN7
	DD	imagerel $LN7+356
	DD	imagerel $unwind$?PMC_GreatestCommonDivisor_X_X@Internal@Core@Math@Palmtree@@YAPEAU__tag_PMC_HANDLE_UINT@1234@PEAU51234@0@Z
pdata	ENDS
;	COMDAT pdata
pdata	SEGMENT
$pdata$?dtor$0@?0??PMC_GreatestCommonDivisor_X_X@Internal@Core@Math@Palmtree@@YAPEAU__tag_PMC_HANDLE_UINT@1234@PEAU51234@0@Z@4HA DD imagerel ?dtor$0@?0??PMC_GreatestCommonDivisor_X_X@Internal@Core@Math@Palmtree@@YAPEAU__tag_PMC_HANDLE_UINT@1234@PEAU51234@0@Z@4HA
	DD	imagerel ?dtor$0@?0??PMC_GreatestCommonDivisor_X_X@Internal@Core@Math@Palmtree@@YAPEAU__tag_PMC_HANDLE_UINT@1234@PEAU51234@0@Z@4HA+36
	DD	imagerel $unwind$?dtor$0@?0??PMC_GreatestCommonDivisor_X_X@Internal@Core@Math@Palmtree@@YAPEAU__tag_PMC_HANDLE_UINT@1234@PEAU51234@0@Z@4HA
pdata	ENDS
;	COMDAT pdata
pdata	SEGMENT
$pdata$_COPY_MEMORY_UNIT DD imagerel _COPY_MEMORY_UNIT
	DD	imagerel _COPY_MEMORY_UNIT+100
	DD	imagerel $unwind$_COPY_MEMORY_UNIT
pdata	ENDS
;	COMDAT pdata
pdata	SEGMENT
$pdata$_FROMDWORDTOWORD DD imagerel _FROMDWORDTOWORD
	DD	imagerel _FROMDWORDTOWORD+95
	DD	imagerel $unwind$_FROMDWORDTOWORD
pdata	ENDS
;	COMDAT pdata
pdata	SEGMENT
$pdata$_DIVIDE_CEILING_UNIT DD imagerel _DIVIDE_CEILING_UNIT
	DD	imagerel _DIVIDE_CEILING_UNIT+97
	DD	imagerel $unwind$_DIVIDE_CEILING_UNIT
pdata	ENDS
;	COMDAT pdata
pdata	SEGMENT
$pdata$_MAXIMUM_UNIT DD imagerel _MAXIMUM_UNIT
	DD	imagerel _MAXIMUM_UNIT+122
	DD	imagerel $unwind$_MAXIMUM_UNIT
pdata	ENDS
;	COMDAT pdata
pdata	SEGMENT
$pdata$_MINIMUM_UNIT DD imagerel _MINIMUM_UNIT
	DD	imagerel _MINIMUM_UNIT+122
	DD	imagerel $unwind$_MINIMUM_UNIT
pdata	ENDS
;	COMDAT pdata
pdata	SEGMENT
$pdata$_LZCNT_ALT_32 DD imagerel _LZCNT_ALT_32
	DD	imagerel _LZCNT_ALT_32+126
	DD	imagerel $unwind$_LZCNT_ALT_32
pdata	ENDS
;	COMDAT pdata
pdata	SEGMENT
$pdata$_LZCNT_ALT_UNIT DD imagerel _LZCNT_ALT_UNIT
	DD	imagerel _LZCNT_ALT_UNIT+131
	DD	imagerel $unwind$_LZCNT_ALT_UNIT
pdata	ENDS
;	COMDAT pdata
pdata	SEGMENT
$pdata$_TZCNT_ALT_UNIT DD imagerel _TZCNT_ALT_UNIT
	DD	imagerel _TZCNT_ALT_UNIT+120
	DD	imagerel $unwind$_TZCNT_ALT_UNIT
pdata	ENDS
;	COMDAT pdata
pdata	SEGMENT
$pdata$?GreatestCommonDivisor_Imp@Internal@Core@Math@Palmtree@@YAXPEA_K0_K00@Z DD imagerel ?GreatestCommonDivisor_Imp@Internal@Core@Math@Palmtree@@YAXPEA_K0_K00@Z
	DD	imagerel ?GreatestCommonDivisor_Imp@Internal@Core@Math@Palmtree@@YAXPEA_K0_K00@Z+529
	DD	imagerel $unwind$?GreatestCommonDivisor_Imp@Internal@Core@Math@Palmtree@@YAXPEA_K0_K00@Z
pdata	ENDS
;	COMDAT pdata
pdata	SEGMENT
$pdata$?GreatestCommonDivisor_1W_Imp@Internal@Core@Math@Palmtree@@YA_K_K0@Z DD imagerel ?GreatestCommonDivisor_1W_Imp@Internal@Core@Math@Palmtree@@YA_K_K0@Z
	DD	imagerel ?GreatestCommonDivisor_1W_Imp@Internal@Core@Math@Palmtree@@YA_K_K0@Z+436
	DD	imagerel $unwind$?GreatestCommonDivisor_1W_Imp@Internal@Core@Math@Palmtree@@YA_K_K0@Z
pdata	ENDS
;	COMDAT pdata
pdata	SEGMENT
$pdata$?PMC_GreatestCommonDivisor_X_I_Imp@Internal@Core@Math@Palmtree@@YAPEAU__tag_NUMBER_HEADER@1234@PEAU51234@I@Z DD imagerel ?PMC_GreatestCommonDivisor_X_I_Imp@Internal@Core@Math@Palmtree@@YAPEAU__tag_NUMBER_HEADER@1234@PEAU51234@I@Z
	DD	imagerel ?PMC_GreatestCommonDivisor_X_I_Imp@Internal@Core@Math@Palmtree@@YAPEAU__tag_NUMBER_HEADER@1234@PEAU51234@I@Z+1065
	DD	imagerel $unwind$?PMC_GreatestCommonDivisor_X_I_Imp@Internal@Core@Math@Palmtree@@YAPEAU__tag_NUMBER_HEADER@1234@PEAU51234@I@Z
pdata	ENDS
;	COMDAT pdata
pdata	SEGMENT
$pdata$?dtor$0@?0??PMC_GreatestCommonDivisor_X_I_Imp@Internal@Core@Math@Palmtree@@YAPEAU__tag_NUMBER_HEADER@1234@PEAU51234@I@Z@4HA DD imagerel ?dtor$0@?0??PMC_GreatestCommonDivisor_X_I_Imp@Internal@Core@Math@Palmtree@@YAPEAU__tag_NUMBER_HEADER@1234@PEAU51234@I@Z@4HA
	DD	imagerel ?dtor$0@?0??PMC_GreatestCommonDivisor_X_I_Imp@Internal@Core@Math@Palmtree@@YAPEAU__tag_NUMBER_HEADER@1234@PEAU51234@I@Z@4HA+36
	DD	imagerel $unwind$?dtor$0@?0??PMC_GreatestCommonDivisor_X_I_Imp@Internal@Core@Math@Palmtree@@YAPEAU__tag_NUMBER_HEADER@1234@PEAU51234@I@Z@4HA
pdata	ENDS
;	COMDAT pdata
pdata	SEGMENT
$pdata$?PMC_GreatestCommonDivisor_X_L_Imp@Internal@Core@Math@Palmtree@@YAPEAU__tag_NUMBER_HEADER@1234@PEAU51234@_K@Z DD imagerel ?PMC_GreatestCommonDivisor_X_L_Imp@Internal@Core@Math@Palmtree@@YAPEAU__tag_NUMBER_HEADER@1234@PEAU51234@_K@Z
	DD	imagerel ?PMC_GreatestCommonDivisor_X_L_Imp@Internal@Core@Math@Palmtree@@YAPEAU__tag_NUMBER_HEADER@1234@PEAU51234@_K@Z+2783
	DD	imagerel $unwind$?PMC_GreatestCommonDivisor_X_L_Imp@Internal@Core@Math@Palmtree@@YAPEAU__tag_NUMBER_HEADER@1234@PEAU51234@_K@Z
pdata	ENDS
;	COMDAT pdata
pdata	SEGMENT
$pdata$?dtor$0@?0??PMC_GreatestCommonDivisor_X_L_Imp@Internal@Core@Math@Palmtree@@YAPEAU__tag_NUMBER_HEADER@1234@PEAU51234@_K@Z@4HA DD imagerel ?dtor$0@?0??PMC_GreatestCommonDivisor_X_L_Imp@Internal@Core@Math@Palmtree@@YAPEAU__tag_NUMBER_HEADER@1234@PEAU51234@_K@Z@4HA
	DD	imagerel ?dtor$0@?0??PMC_GreatestCommonDivisor_X_L_Imp@Internal@Core@Math@Palmtree@@YAPEAU__tag_NUMBER_HEADER@1234@PEAU51234@_K@Z@4HA+36
	DD	imagerel $unwind$?dtor$0@?0??PMC_GreatestCommonDivisor_X_L_Imp@Internal@Core@Math@Palmtree@@YAPEAU__tag_NUMBER_HEADER@1234@PEAU51234@_K@Z@4HA
pdata	ENDS
;	COMDAT pdata
pdata	SEGMENT
$pdata$?dtor$1@?0??PMC_GreatestCommonDivisor_X_L_Imp@Internal@Core@Math@Palmtree@@YAPEAU__tag_NUMBER_HEADER@1234@PEAU51234@_K@Z@4HA DD imagerel ?dtor$1@?0??PMC_GreatestCommonDivisor_X_L_Imp@Internal@Core@Math@Palmtree@@YAPEAU__tag_NUMBER_HEADER@1234@PEAU51234@_K@Z@4HA
	DD	imagerel ?dtor$1@?0??PMC_GreatestCommonDivisor_X_L_Imp@Internal@Core@Math@Palmtree@@YAPEAU__tag_NUMBER_HEADER@1234@PEAU51234@_K@Z@4HA+39
	DD	imagerel $unwind$?dtor$1@?0??PMC_GreatestCommonDivisor_X_L_Imp@Internal@Core@Math@Palmtree@@YAPEAU__tag_NUMBER_HEADER@1234@PEAU51234@_K@Z@4HA
pdata	ENDS
;	COMDAT pdata
pdata	SEGMENT
$pdata$?dtor$2@?0??PMC_GreatestCommonDivisor_X_L_Imp@Internal@Core@Math@Palmtree@@YAPEAU__tag_NUMBER_HEADER@1234@PEAU51234@_K@Z@4HA DD imagerel ?dtor$2@?0??PMC_GreatestCommonDivisor_X_L_Imp@Internal@Core@Math@Palmtree@@YAPEAU__tag_NUMBER_HEADER@1234@PEAU51234@_K@Z@4HA
	DD	imagerel ?dtor$2@?0??PMC_GreatestCommonDivisor_X_L_Imp@Internal@Core@Math@Palmtree@@YAPEAU__tag_NUMBER_HEADER@1234@PEAU51234@_K@Z@4HA+39
	DD	imagerel $unwind$?dtor$2@?0??PMC_GreatestCommonDivisor_X_L_Imp@Internal@Core@Math@Palmtree@@YAPEAU__tag_NUMBER_HEADER@1234@PEAU51234@_K@Z@4HA
pdata	ENDS
;	COMDAT pdata
pdata	SEGMENT
$pdata$?PMC_GreatestCommonDivisor_X_X_Imp@Internal@Core@Math@Palmtree@@YAPEAU__tag_NUMBER_HEADER@1234@PEAU51234@0@Z DD imagerel ?PMC_GreatestCommonDivisor_X_X_Imp@Internal@Core@Math@Palmtree@@YAPEAU__tag_NUMBER_HEADER@1234@PEAU51234@0@Z
	DD	imagerel ?PMC_GreatestCommonDivisor_X_X_Imp@Internal@Core@Math@Palmtree@@YAPEAU__tag_NUMBER_HEADER@1234@PEAU51234@0@Z+1145
	DD	imagerel $unwind$?PMC_GreatestCommonDivisor_X_X_Imp@Internal@Core@Math@Palmtree@@YAPEAU__tag_NUMBER_HEADER@1234@PEAU51234@0@Z
pdata	ENDS
;	COMDAT pdata
pdata	SEGMENT
$pdata$?dtor$0@?0??PMC_GreatestCommonDivisor_X_X_Imp@Internal@Core@Math@Palmtree@@YAPEAU__tag_NUMBER_HEADER@1234@PEAU51234@0@Z@4HA DD imagerel ?dtor$0@?0??PMC_GreatestCommonDivisor_X_X_Imp@Internal@Core@Math@Palmtree@@YAPEAU__tag_NUMBER_HEADER@1234@PEAU51234@0@Z@4HA
	DD	imagerel ?dtor$0@?0??PMC_GreatestCommonDivisor_X_X_Imp@Internal@Core@Math@Palmtree@@YAPEAU__tag_NUMBER_HEADER@1234@PEAU51234@0@Z@4HA+36
	DD	imagerel $unwind$?dtor$0@?0??PMC_GreatestCommonDivisor_X_X_Imp@Internal@Core@Math@Palmtree@@YAPEAU__tag_NUMBER_HEADER@1234@PEAU51234@0@Z@4HA
pdata	ENDS
;	COMDAT rtc$TMZ
rtc$TMZ	SEGMENT
_RTC_Shutdown.rtc$TMZ DQ FLAT:_RTC_Shutdown
rtc$TMZ	ENDS
;	COMDAT rtc$IMZ
rtc$IMZ	SEGMENT
_RTC_InitBase.rtc$IMZ DQ FLAT:_RTC_InitBase
rtc$IMZ	ENDS
;	COMDAT ??_R1A@?0A@EA@InternalErrorException@Internal@Core@Math@Palmtree@@8
rdata$r	SEGMENT
??_R1A@?0A@EA@InternalErrorException@Internal@Core@Math@Palmtree@@8 DD imagerel ??_R0?AVInternalErrorException@Internal@Core@Math@Palmtree@@@8 ; Palmtree::Math::Core::Internal::InternalErrorException::`RTTI Base Class Descriptor at (0,-1,0,64)'
	DD	02H
	DD	00H
	DD	0ffffffffH
	DD	00H
	DD	040H
	DD	imagerel ??_R3InternalErrorException@Internal@Core@Math@Palmtree@@8
rdata$r	ENDS
;	COMDAT ??_R2InternalErrorException@Internal@Core@Math@Palmtree@@8
rdata$r	SEGMENT
??_R2InternalErrorException@Internal@Core@Math@Palmtree@@8 DD imagerel ??_R1A@?0A@EA@InternalErrorException@Internal@Core@Math@Palmtree@@8 ; Palmtree::Math::Core::Internal::InternalErrorException::`RTTI Base Class Array'
	DD	imagerel ??_R1A@?0A@EA@Exception@Internal@Core@Math@Palmtree@@8
	DD	imagerel ??_R1A@?0A@EN@exception@std@@8
	ORG $+3
rdata$r	ENDS
;	COMDAT ??_R3InternalErrorException@Internal@Core@Math@Palmtree@@8
rdata$r	SEGMENT
??_R3InternalErrorException@Internal@Core@Math@Palmtree@@8 DD 00H ; Palmtree::Math::Core::Internal::InternalErrorException::`RTTI Class Hierarchy Descriptor'
	DD	00H
	DD	03H
	DD	imagerel ??_R2InternalErrorException@Internal@Core@Math@Palmtree@@8
rdata$r	ENDS
;	COMDAT ??_R4InternalErrorException@Internal@Core@Math@Palmtree@@6B@
rdata$r	SEGMENT
??_R4InternalErrorException@Internal@Core@Math@Palmtree@@6B@ DD 01H ; Palmtree::Math::Core::Internal::InternalErrorException::`RTTI Complete Object Locator'
	DD	00H
	DD	00H
	DD	imagerel ??_R0?AVInternalErrorException@Internal@Core@Math@Palmtree@@@8
	DD	imagerel ??_R3InternalErrorException@Internal@Core@Math@Palmtree@@8
	DD	imagerel ??_R4InternalErrorException@Internal@Core@Math@Palmtree@@6B@
rdata$r	ENDS
;	COMDAT ??_R1A@?0A@EA@ArithmeticException@Internal@Core@Math@Palmtree@@8
rdata$r	SEGMENT
??_R1A@?0A@EA@ArithmeticException@Internal@Core@Math@Palmtree@@8 DD imagerel ??_R0?AVArithmeticException@Internal@Core@Math@Palmtree@@@8 ; Palmtree::Math::Core::Internal::ArithmeticException::`RTTI Base Class Descriptor at (0,-1,0,64)'
	DD	02H
	DD	00H
	DD	0ffffffffH
	DD	00H
	DD	040H
	DD	imagerel ??_R3ArithmeticException@Internal@Core@Math@Palmtree@@8
rdata$r	ENDS
;	COMDAT ??_R2ArithmeticException@Internal@Core@Math@Palmtree@@8
rdata$r	SEGMENT
??_R2ArithmeticException@Internal@Core@Math@Palmtree@@8 DD imagerel ??_R1A@?0A@EA@ArithmeticException@Internal@Core@Math@Palmtree@@8 ; Palmtree::Math::Core::Internal::ArithmeticException::`RTTI Base Class Array'
	DD	imagerel ??_R1A@?0A@EA@Exception@Internal@Core@Math@Palmtree@@8
	DD	imagerel ??_R1A@?0A@EN@exception@std@@8
	ORG $+3
rdata$r	ENDS
;	COMDAT ??_R3ArithmeticException@Internal@Core@Math@Palmtree@@8
rdata$r	SEGMENT
??_R3ArithmeticException@Internal@Core@Math@Palmtree@@8 DD 00H ; Palmtree::Math::Core::Internal::ArithmeticException::`RTTI Class Hierarchy Descriptor'
	DD	00H
	DD	03H
	DD	imagerel ??_R2ArithmeticException@Internal@Core@Math@Palmtree@@8
rdata$r	ENDS
;	COMDAT ??_R4ArithmeticException@Internal@Core@Math@Palmtree@@6B@
rdata$r	SEGMENT
??_R4ArithmeticException@Internal@Core@Math@Palmtree@@6B@ DD 01H ; Palmtree::Math::Core::Internal::ArithmeticException::`RTTI Complete Object Locator'
	DD	00H
	DD	00H
	DD	imagerel ??_R0?AVArithmeticException@Internal@Core@Math@Palmtree@@@8
	DD	imagerel ??_R3ArithmeticException@Internal@Core@Math@Palmtree@@8
	DD	imagerel ??_R4ArithmeticException@Internal@Core@Math@Palmtree@@6B@
rdata$r	ENDS
;	COMDAT ??_R1A@?0A@EA@ArgumentNullException@Internal@Core@Math@Palmtree@@8
rdata$r	SEGMENT
??_R1A@?0A@EA@ArgumentNullException@Internal@Core@Math@Palmtree@@8 DD imagerel ??_R0?AVArgumentNullException@Internal@Core@Math@Palmtree@@@8 ; Palmtree::Math::Core::Internal::ArgumentNullException::`RTTI Base Class Descriptor at (0,-1,0,64)'
	DD	02H
	DD	00H
	DD	0ffffffffH
	DD	00H
	DD	040H
	DD	imagerel ??_R3ArgumentNullException@Internal@Core@Math@Palmtree@@8
rdata$r	ENDS
;	COMDAT ??_R2ArgumentNullException@Internal@Core@Math@Palmtree@@8
rdata$r	SEGMENT
??_R2ArgumentNullException@Internal@Core@Math@Palmtree@@8 DD imagerel ??_R1A@?0A@EA@ArgumentNullException@Internal@Core@Math@Palmtree@@8 ; Palmtree::Math::Core::Internal::ArgumentNullException::`RTTI Base Class Array'
	DD	imagerel ??_R1A@?0A@EA@Exception@Internal@Core@Math@Palmtree@@8
	DD	imagerel ??_R1A@?0A@EN@exception@std@@8
	ORG $+3
rdata$r	ENDS
;	COMDAT ??_R3ArgumentNullException@Internal@Core@Math@Palmtree@@8
rdata$r	SEGMENT
??_R3ArgumentNullException@Internal@Core@Math@Palmtree@@8 DD 00H ; Palmtree::Math::Core::Internal::ArgumentNullException::`RTTI Class Hierarchy Descriptor'
	DD	00H
	DD	03H
	DD	imagerel ??_R2ArgumentNullException@Internal@Core@Math@Palmtree@@8
rdata$r	ENDS
;	COMDAT ??_R4ArgumentNullException@Internal@Core@Math@Palmtree@@6B@
rdata$r	SEGMENT
??_R4ArgumentNullException@Internal@Core@Math@Palmtree@@6B@ DD 01H ; Palmtree::Math::Core::Internal::ArgumentNullException::`RTTI Complete Object Locator'
	DD	00H
	DD	00H
	DD	imagerel ??_R0?AVArgumentNullException@Internal@Core@Math@Palmtree@@@8
	DD	imagerel ??_R3ArgumentNullException@Internal@Core@Math@Palmtree@@8
	DD	imagerel ??_R4ArgumentNullException@Internal@Core@Math@Palmtree@@6B@
rdata$r	ENDS
;	COMDAT ??_R1A@?0A@EN@exception@std@@8
rdata$r	SEGMENT
??_R1A@?0A@EN@exception@std@@8 DD imagerel ??_R0?AVexception@std@@@8 ; std::exception::`RTTI Base Class Descriptor at (0,-1,0,77)'
	DD	00H
	DD	00H
	DD	0ffffffffH
	DD	00H
	DD	04dH
	DD	imagerel ??_R3exception@std@@8
rdata$r	ENDS
;	COMDAT ??_R1A@?0A@EA@Exception@Internal@Core@Math@Palmtree@@8
rdata$r	SEGMENT
??_R1A@?0A@EA@Exception@Internal@Core@Math@Palmtree@@8 DD imagerel ??_R0?AVException@Internal@Core@Math@Palmtree@@@8 ; Palmtree::Math::Core::Internal::Exception::`RTTI Base Class Descriptor at (0,-1,0,64)'
	DD	01H
	DD	00H
	DD	0ffffffffH
	DD	00H
	DD	040H
	DD	imagerel ??_R3Exception@Internal@Core@Math@Palmtree@@8
rdata$r	ENDS
;	COMDAT ??_R2Exception@Internal@Core@Math@Palmtree@@8
rdata$r	SEGMENT
??_R2Exception@Internal@Core@Math@Palmtree@@8 DD imagerel ??_R1A@?0A@EA@Exception@Internal@Core@Math@Palmtree@@8 ; Palmtree::Math::Core::Internal::Exception::`RTTI Base Class Array'
	DD	imagerel ??_R1A@?0A@EN@exception@std@@8
	ORG $+3
rdata$r	ENDS
;	COMDAT ??_R3Exception@Internal@Core@Math@Palmtree@@8
rdata$r	SEGMENT
??_R3Exception@Internal@Core@Math@Palmtree@@8 DD 00H	; Palmtree::Math::Core::Internal::Exception::`RTTI Class Hierarchy Descriptor'
	DD	00H
	DD	02H
	DD	imagerel ??_R2Exception@Internal@Core@Math@Palmtree@@8
rdata$r	ENDS
;	COMDAT ??_R4Exception@Internal@Core@Math@Palmtree@@6B@
rdata$r	SEGMENT
??_R4Exception@Internal@Core@Math@Palmtree@@6B@ DD 01H	; Palmtree::Math::Core::Internal::Exception::`RTTI Complete Object Locator'
	DD	00H
	DD	00H
	DD	imagerel ??_R0?AVException@Internal@Core@Math@Palmtree@@@8
	DD	imagerel ??_R3Exception@Internal@Core@Math@Palmtree@@8
	DD	imagerel ??_R4Exception@Internal@Core@Math@Palmtree@@6B@
rdata$r	ENDS
;	COMDAT ??_R1A@?0A@EA@exception@std@@8
rdata$r	SEGMENT
??_R1A@?0A@EA@exception@std@@8 DD imagerel ??_R0?AVexception@std@@@8 ; std::exception::`RTTI Base Class Descriptor at (0,-1,0,64)'
	DD	00H
	DD	00H
	DD	0ffffffffH
	DD	00H
	DD	040H
	DD	imagerel ??_R3exception@std@@8
rdata$r	ENDS
;	COMDAT ??_R2exception@std@@8
rdata$r	SEGMENT
??_R2exception@std@@8 DD imagerel ??_R1A@?0A@EA@exception@std@@8 ; std::exception::`RTTI Base Class Array'
	ORG $+3
rdata$r	ENDS
;	COMDAT ??_R3exception@std@@8
rdata$r	SEGMENT
??_R3exception@std@@8 DD 00H				; std::exception::`RTTI Class Hierarchy Descriptor'
	DD	00H
	DD	01H
	DD	imagerel ??_R2exception@std@@8
rdata$r	ENDS
;	COMDAT ??_R0?AVexception@std@@@8
data$r	SEGMENT
??_R0?AVexception@std@@@8 DQ FLAT:??_7type_info@@6B@	; std::exception `RTTI Type Descriptor'
	DQ	0000000000000000H
	DB	'.?AVexception@std@@', 00H
data$r	ENDS
;	COMDAT ??_R4exception@std@@6B@
rdata$r	SEGMENT
??_R4exception@std@@6B@ DD 01H				; std::exception::`RTTI Complete Object Locator'
	DD	00H
	DD	00H
	DD	imagerel ??_R0?AVexception@std@@@8
	DD	imagerel ??_R3exception@std@@8
	DD	imagerel ??_R4exception@std@@6B@
rdata$r	ENDS
;	COMDAT ??_C@_1HM@ICLKLPNL@?$AAp?$AAm?$AAc?$AA_?$AAg?$AAr?$AAe?$AAa?$AAt?$AAe?$AAs?$AAt?$AAc?$AAo?$AAm@
CONST	SEGMENT
??_C@_1HM@ICLKLPNL@?$AAp?$AAm?$AAc?$AA_?$AAg?$AAr?$AAe?$AAa?$AAt?$AAe?$AAs?$AAt?$AAc?$AAo?$AAm@ DB 'p'
	DB	00H, 'm', 00H, 'c', 00H, '_', 00H, 'g', 00H, 'r', 00H, 'e', 00H
	DB	'a', 00H, 't', 00H, 'e', 00H, 's', 00H, 't', 00H, 'c', 00H, 'o'
	DB	00H, 'm', 00H, 'm', 00H, 'o', 00H, 'n', 00H, 'd', 00H, 'i', 00H
	DB	'v', 00H, 'i', 00H, 's', 00H, 'o', 00H, 'r', 00H, '.', 00H, 'c'
	DB	00H, 'p', 00H, 'p', 00H, ';', 00H, 'P', 00H, 'M', 00H, 'C', 00H
	DB	'_', 00H, 'G', 00H, 'r', 00H, 'e', 00H, 'a', 00H, 't', 00H, 'e'
	DB	00H, 's', 00H, 't', 00H, 'C', 00H, 'o', 00H, 'm', 00H, 'm', 00H
	DB	'o', 00H, 'n', 00H, 'D', 00H, 'i', 00H, 'v', 00H, 'i', 00H, 's'
	DB	00H, 'o', 00H, 'r', 00H, '_', 00H, 'X', 00H, '_', 00H, 'L', 00H
	DB	';', 00H, '1', 00H, 00H, 00H			; `string'
CONST	ENDS
;	COMDAT ??_C@_1HM@HFFFFGIJ@?$AAp?$AAm?$AAc?$AA_?$AAg?$AAr?$AAe?$AAa?$AAt?$AAe?$AAs?$AAt?$AAc?$AAo?$AAm@
CONST	SEGMENT
??_C@_1HM@HFFFFGIJ@?$AAp?$AAm?$AAc?$AA_?$AAg?$AAr?$AAe?$AAa?$AAt?$AAe?$AAs?$AAt?$AAc?$AAo?$AAm@ DB 'p'
	DB	00H, 'm', 00H, 'c', 00H, '_', 00H, 'g', 00H, 'r', 00H, 'e', 00H
	DB	'a', 00H, 't', 00H, 'e', 00H, 's', 00H, 't', 00H, 'c', 00H, 'o'
	DB	00H, 'm', 00H, 'm', 00H, 'o', 00H, 'n', 00H, 'd', 00H, 'i', 00H
	DB	'v', 00H, 'i', 00H, 's', 00H, 'o', 00H, 'r', 00H, '.', 00H, 'c'
	DB	00H, 'p', 00H, 'p', 00H, ';', 00H, 'P', 00H, 'M', 00H, 'C', 00H
	DB	'_', 00H, 'G', 00H, 'r', 00H, 'e', 00H, 'a', 00H, 't', 00H, 'e'
	DB	00H, 's', 00H, 't', 00H, 'C', 00H, 'o', 00H, 'm', 00H, 'm', 00H
	DB	'o', 00H, 'n', 00H, 'D', 00H, 'i', 00H, 'v', 00H, 'i', 00H, 's'
	DB	00H, 'o', 00H, 'r', 00H, '_', 00H, 'L', 00H, '_', 00H, 'X', 00H
	DB	';', 00H, '1', 00H, 00H, 00H			; `string'
CONST	ENDS
;	COMDAT ??_C@_13ICFKHAEN@?$AAu@
CONST	SEGMENT
??_C@_13ICFKHAEN@?$AAu@ DB 'u', 00H, 00H, 00H		; `string'
CONST	ENDS
;	COMDAT ??_C@_1HM@MKFKLBLP@?$AAp?$AAm?$AAc?$AA_?$AAg?$AAr?$AAe?$AAa?$AAt?$AAe?$AAs?$AAt?$AAc?$AAo?$AAm@
CONST	SEGMENT
??_C@_1HM@MKFKLBLP@?$AAp?$AAm?$AAc?$AA_?$AAg?$AAr?$AAe?$AAa?$AAt?$AAe?$AAs?$AAt?$AAc?$AAo?$AAm@ DB 'p'
	DB	00H, 'm', 00H, 'c', 00H, '_', 00H, 'g', 00H, 'r', 00H, 'e', 00H
	DB	'a', 00H, 't', 00H, 'e', 00H, 's', 00H, 't', 00H, 'c', 00H, 'o'
	DB	00H, 'm', 00H, 'm', 00H, 'o', 00H, 'n', 00H, 'd', 00H, 'i', 00H
	DB	'v', 00H, 'i', 00H, 's', 00H, 'o', 00H, 'r', 00H, '.', 00H, 'c'
	DB	00H, 'p', 00H, 'p', 00H, ';', 00H, 'P', 00H, 'M', 00H, 'C', 00H
	DB	'_', 00H, 'G', 00H, 'r', 00H, 'e', 00H, 'a', 00H, 't', 00H, 'e'
	DB	00H, 's', 00H, 't', 00H, 'C', 00H, 'o', 00H, 'm', 00H, 'm', 00H
	DB	'o', 00H, 'n', 00H, 'D', 00H, 'i', 00H, 'v', 00H, 'i', 00H, 's'
	DB	00H, 'o', 00H, 'r', 00H, '_', 00H, 'X', 00H, '_', 00H, 'I', 00H
	DB	';', 00H, '1', 00H, 00H, 00H			; `string'
CONST	ENDS
;	COMDAT ??_C@_1CK@ECFIEPAC@?$AA?$BF?$AAp?$AAk?$AAn?$AAu?$AAl?$AAl?$AAp?$AAt?$AAr?$AAL?$AA?$AO?$AAH?$PP?$IJ?$PP?$IM@
CONST	SEGMENT
??_C@_1CK@ECFIEPAC@?$AA?$BF?$AAp?$AAk?$AAn?$AAu?$AAl?$AAl?$AAp?$AAt?$AAr?$AAL?$AA?$AO?$AAH?$PP?$IJ?$PP?$IM@ DB 015H
	DB	'_pek0n', 00H, 'u', 00H, 'l', 00H, 'l', 00H, 'p', 00H, 't', 00H
	DB	'r', 00H, 'L0', 0eH, 'NH0', 089H, '0', 08cH, '0f0D0~0Y0', 02H, '0'
	DB	00H, 00H					; `string'
CONST	ENDS
;	COMDAT ??_C@_13JAOPNPKD@?$AAv@
CONST	SEGMENT
??_C@_13JAOPNPKD@?$AAv@ DB 'v', 00H, 00H, 00H		; `string'
CONST	ENDS
;	COMDAT _CT??_R0?AVArgumentNullException@Internal@Core@Math@Palmtree@@@8??0ArgumentNullException@Internal@Core@Math@Palmtree@@QEAA@AEBV01234@@Z48
xdata$x	SEGMENT
_CT??_R0?AVArgumentNullException@Internal@Core@Math@Palmtree@@@8??0ArgumentNullException@Internal@Core@Math@Palmtree@@QEAA@AEBV01234@@Z48 DD 00H
	DD	imagerel ??_R0?AVArgumentNullException@Internal@Core@Math@Palmtree@@@8
	DD	00H
	DD	0ffffffffH
	ORG $+4
	DD	030H
	DD	imagerel ??0ArgumentNullException@Internal@Core@Math@Palmtree@@QEAA@AEBV01234@@Z
xdata$x	ENDS
;	COMDAT ??_R0?AVArgumentNullException@Internal@Core@Math@Palmtree@@@8
data$r	SEGMENT
??_R0?AVArgumentNullException@Internal@Core@Math@Palmtree@@@8 DQ FLAT:??_7type_info@@6B@ ; Palmtree::Math::Core::Internal::ArgumentNullException `RTTI Type Descriptor'
	DQ	0000000000000000H
	DB	'.?AVArgumentNullException@Internal@Core@Math@Palmtree@@', 00H
data$r	ENDS
;	COMDAT _CTA2?AVArgumentNullException@Internal@Core@Math@Palmtree@@
xdata$x	SEGMENT
_CTA2?AVArgumentNullException@Internal@Core@Math@Palmtree@@ DD 02H
	DD	imagerel _CT??_R0?AVArgumentNullException@Internal@Core@Math@Palmtree@@@8??0ArgumentNullException@Internal@Core@Math@Palmtree@@QEAA@AEBV01234@@Z48
	DD	imagerel _CT??_R0?AVException@Internal@Core@Math@Palmtree@@@8??0Exception@Internal@Core@Math@Palmtree@@QEAA@AEBV01234@@Z48
xdata$x	ENDS
;	COMDAT _TI2?AVArgumentNullException@Internal@Core@Math@Palmtree@@
xdata$x	SEGMENT
_TI2?AVArgumentNullException@Internal@Core@Math@Palmtree@@ DD 00H
	DD	imagerel ??1ArgumentNullException@Internal@Core@Math@Palmtree@@UEAA@XZ
	DD	00H
	DD	imagerel _CTA2?AVArgumentNullException@Internal@Core@Math@Palmtree@@
xdata$x	ENDS
;	COMDAT ??_C@_1HM@ONPGCBJJ@?$AAp?$AAm?$AAc?$AA_?$AAg?$AAr?$AAe?$AAa?$AAt?$AAe?$AAs?$AAt?$AAc?$AAo?$AAm@
CONST	SEGMENT
??_C@_1HM@ONPGCBJJ@?$AAp?$AAm?$AAc?$AA_?$AAg?$AAr?$AAe?$AAa?$AAt?$AAe?$AAs?$AAt?$AAc?$AAo?$AAm@ DB 'p'
	DB	00H, 'm', 00H, 'c', 00H, '_', 00H, 'g', 00H, 'r', 00H, 'e', 00H
	DB	'a', 00H, 't', 00H, 'e', 00H, 's', 00H, 't', 00H, 'c', 00H, 'o'
	DB	00H, 'm', 00H, 'm', 00H, 'o', 00H, 'n', 00H, 'd', 00H, 'i', 00H
	DB	'v', 00H, 'i', 00H, 's', 00H, 'o', 00H, 'r', 00H, '.', 00H, 'c'
	DB	00H, 'p', 00H, 'p', 00H, ';', 00H, 'P', 00H, 'M', 00H, 'C', 00H
	DB	'_', 00H, 'G', 00H, 'r', 00H, 'e', 00H, 'a', 00H, 't', 00H, 'e'
	DB	00H, 's', 00H, 't', 00H, 'C', 00H, 'o', 00H, 'm', 00H, 'm', 00H
	DB	'o', 00H, 'n', 00H, 'D', 00H, 'i', 00H, 'v', 00H, 'i', 00H, 's'
	DB	00H, 'o', 00H, 'r', 00H, '_', 00H, 'I', 00H, '_', 00H, 'X', 00H
	DB	';', 00H, '1', 00H, 00H, 00H			; `string'
CONST	ENDS
;	COMDAT ??_C@_1DO@NPBJHMD@?$AA?$BF?$AAp?$AAL?$AA2?$AAd?$AAh?$PP?$IC?$AA0?$AAj?$AAn?$AAg?$AAG?$AAC?$AAD?$PP?$JC@
CONST	SEGMENT
??_C@_1DO@NPBJHMD@?$AA?$BF?$AAp?$AAL?$AA2?$AAd?$AAh?$PP?$IC?$AA0?$AAj?$AAn?$AAg?$AAG?$AAC?$AAD?$PP?$JC@ DB 015H
	DB	'_peL02', 00H, 'd0h0', 082H, '00', 00H, 'j0n0g0G', 00H, 'C', 00H
	DB	'D', 00H, 092H, '0', 00H, 'N', 0fH, 'ak0Bl', 081H, '0', 08bH, '0'
	DB	'S0h0L0g0M0~0[0', 093H, '0', 02H, '0', 00H, 00H ; `string'
CONST	ENDS
;	COMDAT _CT??_R0?AVArithmeticException@Internal@Core@Math@Palmtree@@@8??0ArithmeticException@Internal@Core@Math@Palmtree@@QEAA@AEBV01234@@Z48
xdata$x	SEGMENT
_CT??_R0?AVArithmeticException@Internal@Core@Math@Palmtree@@@8??0ArithmeticException@Internal@Core@Math@Palmtree@@QEAA@AEBV01234@@Z48 DD 00H
	DD	imagerel ??_R0?AVArithmeticException@Internal@Core@Math@Palmtree@@@8
	DD	00H
	DD	0ffffffffH
	ORG $+4
	DD	030H
	DD	imagerel ??0ArithmeticException@Internal@Core@Math@Palmtree@@QEAA@AEBV01234@@Z
xdata$x	ENDS
;	COMDAT ??_R0?AVArithmeticException@Internal@Core@Math@Palmtree@@@8
data$r	SEGMENT
??_R0?AVArithmeticException@Internal@Core@Math@Palmtree@@@8 DQ FLAT:??_7type_info@@6B@ ; Palmtree::Math::Core::Internal::ArithmeticException `RTTI Type Descriptor'
	DQ	0000000000000000H
	DB	'.?AVArithmeticException@Internal@Core@Math@Palmtree@@', 00H
data$r	ENDS
;	COMDAT _CTA2?AVArithmeticException@Internal@Core@Math@Palmtree@@
xdata$x	SEGMENT
_CTA2?AVArithmeticException@Internal@Core@Math@Palmtree@@ DD 02H
	DD	imagerel _CT??_R0?AVArithmeticException@Internal@Core@Math@Palmtree@@@8??0ArithmeticException@Internal@Core@Math@Palmtree@@QEAA@AEBV01234@@Z48
	DD	imagerel _CT??_R0?AVException@Internal@Core@Math@Palmtree@@@8??0Exception@Internal@Core@Math@Palmtree@@QEAA@AEBV01234@@Z48
xdata$x	ENDS
;	COMDAT _TI2?AVArithmeticException@Internal@Core@Math@Palmtree@@
xdata$x	SEGMENT
_TI2?AVArithmeticException@Internal@Core@Math@Palmtree@@ DD 00H
	DD	imagerel ??1ArithmeticException@Internal@Core@Math@Palmtree@@UEAA@XZ
	DD	00H
	DD	imagerel _CTA2?AVArithmeticException@Internal@Core@Math@Palmtree@@
xdata$x	ENDS
;	COMDAT ??_C@_1HK@DNJBGJKK@?$AAp?$AAm?$AAc?$AA_?$AAg?$AAr?$AAe?$AAa?$AAt?$AAe?$AAs?$AAt?$AAc?$AAo?$AAm@
CONST	SEGMENT
??_C@_1HK@DNJBGJKK@?$AAp?$AAm?$AAc?$AA_?$AAg?$AAr?$AAe?$AAa?$AAt?$AAe?$AAs?$AAt?$AAc?$AAo?$AAm@ DB 'p'
	DB	00H, 'm', 00H, 'c', 00H, '_', 00H, 'g', 00H, 'r', 00H, 'e', 00H
	DB	'a', 00H, 't', 00H, 'e', 00H, 's', 00H, 't', 00H, 'c', 00H, 'o'
	DB	00H, 'm', 00H, 'm', 00H, 'o', 00H, 'n', 00H, 'd', 00H, 'i', 00H
	DB	'v', 00H, 'i', 00H, 's', 00H, 'o', 00H, 'r', 00H, '.', 00H, 'c'
	DB	00H, 'p', 00H, 'p', 00H, ';', 00H, 'G', 00H, 'r', 00H, 'e', 00H
	DB	'a', 00H, 't', 00H, 'e', 00H, 's', 00H, 't', 00H, 'C', 00H, 'o'
	DB	00H, 'm', 00H, 'm', 00H, 'o', 00H, 'n', 00H, 'D', 00H, 'i', 00H
	DB	'v', 00H, 'i', 00H, 's', 00H, 'o', 00H, 'r', 00H, '_', 00H, '1'
	DB	00H, 'W', 00H, '_', 00H, 'I', 00H, 'm', 00H, 'p', 00H, ';', 00H
	DB	'1', 00H, 00H, 00H				; `string'
CONST	ENDS
;	COMDAT ??_C@_1HE@ECAGDGPP@?$AAp?$AAm?$AAc?$AA_?$AAg?$AAr?$AAe?$AAa?$AAt?$AAe?$AAs?$AAt?$AAc?$AAo?$AAm@
CONST	SEGMENT
??_C@_1HE@ECAGDGPP@?$AAp?$AAm?$AAc?$AA_?$AAg?$AAr?$AAe?$AAa?$AAt?$AAe?$AAs?$AAt?$AAc?$AAo?$AAm@ DB 'p'
	DB	00H, 'm', 00H, 'c', 00H, '_', 00H, 'g', 00H, 'r', 00H, 'e', 00H
	DB	'a', 00H, 't', 00H, 'e', 00H, 's', 00H, 't', 00H, 'c', 00H, 'o'
	DB	00H, 'm', 00H, 'm', 00H, 'o', 00H, 'n', 00H, 'd', 00H, 'i', 00H
	DB	'v', 00H, 'i', 00H, 's', 00H, 'o', 00H, 'r', 00H, '.', 00H, 'c'
	DB	00H, 'p', 00H, 'p', 00H, ';', 00H, 'G', 00H, 'r', 00H, 'e', 00H
	DB	'a', 00H, 't', 00H, 'e', 00H, 's', 00H, 't', 00H, 'C', 00H, 'o'
	DB	00H, 'm', 00H, 'm', 00H, 'o', 00H, 'n', 00H, 'D', 00H, 'i', 00H
	DB	'v', 00H, 'i', 00H, 's', 00H, 'o', 00H, 'r', 00H, '_', 00H, 'I'
	DB	00H, 'm', 00H, 'p', 00H, ';', 00H, '1', 00H, 00H, 00H ; `string'
CONST	ENDS
;	COMDAT ??_C@_1CG@CNOPPENL@?$PP?$II?$AA?$BP?$AAW?$AAf?$AAD?$AAj?$AAD?$PP?$LD?$PP?$PM?$PP?I?$AAk?$AA0?$AAT?$AAW?$AA?$HO@
CONST	SEGMENT
??_C@_1CG@CNOPPENL@?$PP?$II?$AA?$BP?$AAW?$AAf?$AAD?$AAj?$AAD?$PP?$LD?$PP?$PM?$PP?I?$AAk?$AA0?$AAT?$AAW?$AA?$HO@ DB 088H
	DB	'N', 01fH, 'gW0f0D0j0D0', 0b3H, '0', 0fcH, '0', 0c9H, '0k00RT', 090H
	DB	'W0~0W0_0', 02H, '0', 00H, 00H		; `string'
CONST	ENDS
;	COMDAT _CT??_R0?AVException@Internal@Core@Math@Palmtree@@@8??0Exception@Internal@Core@Math@Palmtree@@QEAA@AEBV01234@@Z48
xdata$x	SEGMENT
_CT??_R0?AVException@Internal@Core@Math@Palmtree@@@8??0Exception@Internal@Core@Math@Palmtree@@QEAA@AEBV01234@@Z48 DD 00H
	DD	imagerel ??_R0?AVException@Internal@Core@Math@Palmtree@@@8
	DD	00H
	DD	0ffffffffH
	ORG $+4
	DD	030H
	DD	imagerel ??0Exception@Internal@Core@Math@Palmtree@@QEAA@AEBV01234@@Z
xdata$x	ENDS
;	COMDAT ??_R0?AVException@Internal@Core@Math@Palmtree@@@8
data$r	SEGMENT
??_R0?AVException@Internal@Core@Math@Palmtree@@@8 DQ FLAT:??_7type_info@@6B@ ; Palmtree::Math::Core::Internal::Exception `RTTI Type Descriptor'
	DQ	0000000000000000H
	DB	'.?AVException@Internal@Core@Math@Palmtree@@', 00H
data$r	ENDS
;	COMDAT _CT??_R0?AVInternalErrorException@Internal@Core@Math@Palmtree@@@8??0InternalErrorException@Internal@Core@Math@Palmtree@@QEAA@AEBV01234@@Z48
xdata$x	SEGMENT
_CT??_R0?AVInternalErrorException@Internal@Core@Math@Palmtree@@@8??0InternalErrorException@Internal@Core@Math@Palmtree@@QEAA@AEBV01234@@Z48 DD 00H
	DD	imagerel ??_R0?AVInternalErrorException@Internal@Core@Math@Palmtree@@@8
	DD	00H
	DD	0ffffffffH
	ORG $+4
	DD	030H
	DD	imagerel ??0InternalErrorException@Internal@Core@Math@Palmtree@@QEAA@AEBV01234@@Z
xdata$x	ENDS
;	COMDAT ??_R0?AVInternalErrorException@Internal@Core@Math@Palmtree@@@8
data$r	SEGMENT
??_R0?AVInternalErrorException@Internal@Core@Math@Palmtree@@@8 DQ FLAT:??_7type_info@@6B@ ; Palmtree::Math::Core::Internal::InternalErrorException `RTTI Type Descriptor'
	DQ	0000000000000000H
	DB	'.?AVInternalErrorException@Internal@Core@Math@Palmtree@@'
	DB	00H
data$r	ENDS
;	COMDAT _CTA2?AVInternalErrorException@Internal@Core@Math@Palmtree@@
xdata$x	SEGMENT
_CTA2?AVInternalErrorException@Internal@Core@Math@Palmtree@@ DD 02H
	DD	imagerel _CT??_R0?AVInternalErrorException@Internal@Core@Math@Palmtree@@@8??0InternalErrorException@Internal@Core@Math@Palmtree@@QEAA@AEBV01234@@Z48
	DD	imagerel _CT??_R0?AVException@Internal@Core@Math@Palmtree@@@8??0Exception@Internal@Core@Math@Palmtree@@QEAA@AEBV01234@@Z48
xdata$x	ENDS
;	COMDAT _TI2?AVInternalErrorException@Internal@Core@Math@Palmtree@@
xdata$x	SEGMENT
_TI2?AVInternalErrorException@Internal@Core@Math@Palmtree@@ DD 00H
	DD	imagerel ??1InternalErrorException@Internal@Core@Math@Palmtree@@UEAA@XZ
	DD	00H
	DD	imagerel _CTA2?AVInternalErrorException@Internal@Core@Math@Palmtree@@
xdata$x	ENDS
;	COMDAT ??_7InternalErrorException@Internal@Core@Math@Palmtree@@6B@
CONST	SEGMENT
??_7InternalErrorException@Internal@Core@Math@Palmtree@@6B@ DQ FLAT:??_R4InternalErrorException@Internal@Core@Math@Palmtree@@6B@ ; Palmtree::Math::Core::Internal::InternalErrorException::`vftable'
	DQ	FLAT:??_EInternalErrorException@Internal@Core@Math@Palmtree@@UEAAPEAXI@Z
	DQ	FLAT:?what@exception@std@@UEBAPEBDXZ
CONST	ENDS
;	COMDAT ??_7ArithmeticException@Internal@Core@Math@Palmtree@@6B@
CONST	SEGMENT
??_7ArithmeticException@Internal@Core@Math@Palmtree@@6B@ DQ FLAT:??_R4ArithmeticException@Internal@Core@Math@Palmtree@@6B@ ; Palmtree::Math::Core::Internal::ArithmeticException::`vftable'
	DQ	FLAT:??_EArithmeticException@Internal@Core@Math@Palmtree@@UEAAPEAXI@Z
	DQ	FLAT:?what@exception@std@@UEBAPEBDXZ
CONST	ENDS
;	COMDAT ??_7ArgumentNullException@Internal@Core@Math@Palmtree@@6B@
CONST	SEGMENT
??_7ArgumentNullException@Internal@Core@Math@Palmtree@@6B@ DQ FLAT:??_R4ArgumentNullException@Internal@Core@Math@Palmtree@@6B@ ; Palmtree::Math::Core::Internal::ArgumentNullException::`vftable'
	DQ	FLAT:??_EArgumentNullException@Internal@Core@Math@Palmtree@@UEAAPEAXI@Z
	DQ	FLAT:?what@exception@std@@UEBAPEBDXZ
CONST	ENDS
;	COMDAT ??_7Exception@Internal@Core@Math@Palmtree@@6B@
CONST	SEGMENT
??_7Exception@Internal@Core@Math@Palmtree@@6B@ DQ FLAT:??_R4Exception@Internal@Core@Math@Palmtree@@6B@ ; Palmtree::Math::Core::Internal::Exception::`vftable'
	DQ	FLAT:??_EException@Internal@Core@Math@Palmtree@@UEAAPEAXI@Z
	DQ	FLAT:?what@exception@std@@UEBAPEBDXZ
CONST	ENDS
;	COMDAT ??_C@_0BC@EOODALEL@Unknown?5exception@
CONST	SEGMENT
??_C@_0BC@EOODALEL@Unknown?5exception@ DB 'Unknown exception', 00H ; `string'
CONST	ENDS
;	COMDAT ??_7exception@std@@6B@
CONST	SEGMENT
??_7exception@std@@6B@ DQ FLAT:??_R4exception@std@@6B@	; std::exception::`vftable'
	DQ	FLAT:??_Eexception@std@@UEAAPEAXI@Z
	DQ	FLAT:?what@exception@std@@UEBAPEBDXZ
CONST	ENDS
;	COMDAT xdata
xdata	SEGMENT
$unwind$?dtor$0@?0??PMC_GreatestCommonDivisor_X_X_Imp@Internal@Core@Math@Palmtree@@YAPEAU__tag_NUMBER_HEADER@1234@PEAU51234@0@Z@4HA DD 031001H
	DD	0700c4210H
	DD	0500bH
xdata	ENDS
;	COMDAT xdata
xdata	SEGMENT
$ip2state$?PMC_GreatestCommonDivisor_X_X_Imp@Internal@Core@Math@Palmtree@@YAPEAU__tag_NUMBER_HEADER@1234@PEAU51234@0@Z DD imagerel ?PMC_GreatestCommonDivisor_X_X_Imp@Internal@Core@Math@Palmtree@@YAPEAU__tag_NUMBER_HEADER@1234@PEAU51234@0@Z
	DD	0ffffffffH
	DD	imagerel ?PMC_GreatestCommonDivisor_X_X_Imp@Internal@Core@Math@Palmtree@@YAPEAU__tag_NUMBER_HEADER@1234@PEAU51234@0@Z+216
	DD	00H
	DD	imagerel ?PMC_GreatestCommonDivisor_X_X_Imp@Internal@Core@Math@Palmtree@@YAPEAU__tag_NUMBER_HEADER@1234@PEAU51234@0@Z+464
	DD	0ffffffffH
	DD	imagerel ?PMC_GreatestCommonDivisor_X_X_Imp@Internal@Core@Math@Palmtree@@YAPEAU__tag_NUMBER_HEADER@1234@PEAU51234@0@Z+490
	DD	00H
	DD	imagerel ?PMC_GreatestCommonDivisor_X_X_Imp@Internal@Core@Math@Palmtree@@YAPEAU__tag_NUMBER_HEADER@1234@PEAU51234@0@Z+1085
	DD	0ffffffffH
xdata	ENDS
;	COMDAT xdata
xdata	SEGMENT
$stateUnwindMap$?PMC_GreatestCommonDivisor_X_X_Imp@Internal@Core@Math@Palmtree@@YAPEAU__tag_NUMBER_HEADER@1234@PEAU51234@0@Z DD 0ffffffffH
	DD	imagerel ?dtor$0@?0??PMC_GreatestCommonDivisor_X_X_Imp@Internal@Core@Math@Palmtree@@YAPEAU__tag_NUMBER_HEADER@1234@PEAU51234@0@Z@4HA
xdata	ENDS
;	COMDAT xdata
xdata	SEGMENT
$unwind$?PMC_GreatestCommonDivisor_X_X_Imp@Internal@Core@Math@Palmtree@@YAPEAU__tag_NUMBER_HEADER@1234@PEAU51234@0@Z DD 035053a11H
	DD	01133318H
	DD	0700c0083H
	DD	0500bH
	DD	imagerel __CxxFrameHandler3
	DD	imagerel $cppxdata$?PMC_GreatestCommonDivisor_X_X_Imp@Internal@Core@Math@Palmtree@@YAPEAU__tag_NUMBER_HEADER@1234@PEAU51234@0@Z
xdata	ENDS
;	COMDAT CONST
CONST	SEGMENT
?PMC_GreatestCommonDivisor_X_X_Imp@Internal@Core@Math@Palmtree@@YAPEAU__tag_NUMBER_HEADER@1234@PEAU51234@0@Z$rtcName$0 DB 072H ; Palmtree::Math::Core::Internal::PMC_GreatestCommonDivisor_X_X_Imp
	DB	06fH
	DB	06fH
	DB	074H
	DB	00H
	ORG $+3
?PMC_GreatestCommonDivisor_X_X_Imp@Internal@Core@Math@Palmtree@@YAPEAU__tag_NUMBER_HEADER@1234@PEAU51234@0@Z$rtcName$1 DB 077H ; Palmtree::Math::Core::Internal::PMC_GreatestCommonDivisor_X_X_Imp
	DB	05fH
	DB	062H
	DB	075H
	DB	066H
	DB	05fH
	DB	063H
	DB	06fH
	DB	075H
	DB	06eH
	DB	074H
	DB	00H
	ORG $+12
?PMC_GreatestCommonDivisor_X_X_Imp@Internal@Core@Math@Palmtree@@YAPEAU__tag_NUMBER_HEADER@1234@PEAU51234@0@Z$rtcVarDesc DD 01b8H ; Palmtree::Math::Core::Internal::PMC_GreatestCommonDivisor_X_X_Imp
	DD	08H
	DQ	FLAT:?PMC_GreatestCommonDivisor_X_X_Imp@Internal@Core@Math@Palmtree@@YAPEAU__tag_NUMBER_HEADER@1234@PEAU51234@0@Z$rtcName$1
	DD	038H
	DD	020H
	DQ	FLAT:?PMC_GreatestCommonDivisor_X_X_Imp@Internal@Core@Math@Palmtree@@YAPEAU__tag_NUMBER_HEADER@1234@PEAU51234@0@Z$rtcName$0
	ORG $+96
?PMC_GreatestCommonDivisor_X_X_Imp@Internal@Core@Math@Palmtree@@YAPEAU__tag_NUMBER_HEADER@1234@PEAU51234@0@Z$rtcFrameData DD 02H ; Palmtree::Math::Core::Internal::PMC_GreatestCommonDivisor_X_X_Imp
	DD	00H
	DQ	FLAT:?PMC_GreatestCommonDivisor_X_X_Imp@Internal@Core@Math@Palmtree@@YAPEAU__tag_NUMBER_HEADER@1234@PEAU51234@0@Z$rtcVarDesc
$cppxdata$?PMC_GreatestCommonDivisor_X_X_Imp@Internal@Core@Math@Palmtree@@YAPEAU__tag_NUMBER_HEADER@1234@PEAU51234@0@Z DD 019930522H
	DD	01H
	DD	imagerel $stateUnwindMap$?PMC_GreatestCommonDivisor_X_X_Imp@Internal@Core@Math@Palmtree@@YAPEAU__tag_NUMBER_HEADER@1234@PEAU51234@0@Z
	DD	00H
	DD	00H
	DD	05H
	DD	imagerel $ip2state$?PMC_GreatestCommonDivisor_X_X_Imp@Internal@Core@Math@Palmtree@@YAPEAU__tag_NUMBER_HEADER@1234@PEAU51234@0@Z
	DD	03e8H
	DD	00H
	DD	00H
CONST	ENDS
;	COMDAT xdata
xdata	SEGMENT
$unwind$?dtor$2@?0??PMC_GreatestCommonDivisor_X_L_Imp@Internal@Core@Math@Palmtree@@YAPEAU__tag_NUMBER_HEADER@1234@PEAU51234@_K@Z@4HA DD 031001H
	DD	0700c4210H
	DD	0500bH
xdata	ENDS
;	COMDAT xdata
xdata	SEGMENT
$unwind$?dtor$1@?0??PMC_GreatestCommonDivisor_X_L_Imp@Internal@Core@Math@Palmtree@@YAPEAU__tag_NUMBER_HEADER@1234@PEAU51234@_K@Z@4HA DD 031001H
	DD	0700c4210H
	DD	0500bH
xdata	ENDS
;	COMDAT xdata
xdata	SEGMENT
$unwind$?dtor$0@?0??PMC_GreatestCommonDivisor_X_L_Imp@Internal@Core@Math@Palmtree@@YAPEAU__tag_NUMBER_HEADER@1234@PEAU51234@_K@Z@4HA DD 031001H
	DD	0700c4210H
	DD	0500bH
xdata	ENDS
;	COMDAT xdata
xdata	SEGMENT
$ip2state$?PMC_GreatestCommonDivisor_X_L_Imp@Internal@Core@Math@Palmtree@@YAPEAU__tag_NUMBER_HEADER@1234@PEAU51234@_K@Z DD imagerel ?PMC_GreatestCommonDivisor_X_L_Imp@Internal@Core@Math@Palmtree@@YAPEAU__tag_NUMBER_HEADER@1234@PEAU51234@_K@Z
	DD	0ffffffffH
	DD	imagerel ?PMC_GreatestCommonDivisor_X_L_Imp@Internal@Core@Math@Palmtree@@YAPEAU__tag_NUMBER_HEADER@1234@PEAU51234@_K@Z+256
	DD	00H
	DD	imagerel ?PMC_GreatestCommonDivisor_X_L_Imp@Internal@Core@Math@Palmtree@@YAPEAU__tag_NUMBER_HEADER@1234@PEAU51234@_K@Z+439
	DD	0ffffffffH
	DD	imagerel ?PMC_GreatestCommonDivisor_X_L_Imp@Internal@Core@Math@Palmtree@@YAPEAU__tag_NUMBER_HEADER@1234@PEAU51234@_K@Z+465
	DD	00H
	DD	imagerel ?PMC_GreatestCommonDivisor_X_L_Imp@Internal@Core@Math@Palmtree@@YAPEAU__tag_NUMBER_HEADER@1234@PEAU51234@_K@Z+1054
	DD	0ffffffffH
	DD	imagerel ?PMC_GreatestCommonDivisor_X_L_Imp@Internal@Core@Math@Palmtree@@YAPEAU__tag_NUMBER_HEADER@1234@PEAU51234@_K@Z+1102
	DD	01H
	DD	imagerel ?PMC_GreatestCommonDivisor_X_L_Imp@Internal@Core@Math@Palmtree@@YAPEAU__tag_NUMBER_HEADER@1234@PEAU51234@_K@Z+1817
	DD	0ffffffffH
	DD	imagerel ?PMC_GreatestCommonDivisor_X_L_Imp@Internal@Core@Math@Palmtree@@YAPEAU__tag_NUMBER_HEADER@1234@PEAU51234@_K@Z+1859
	DD	02H
	DD	imagerel ?PMC_GreatestCommonDivisor_X_L_Imp@Internal@Core@Math@Palmtree@@YAPEAU__tag_NUMBER_HEADER@1234@PEAU51234@_K@Z+2039
	DD	0ffffffffH
	DD	imagerel ?PMC_GreatestCommonDivisor_X_L_Imp@Internal@Core@Math@Palmtree@@YAPEAU__tag_NUMBER_HEADER@1234@PEAU51234@_K@Z+2068
	DD	02H
	DD	imagerel ?PMC_GreatestCommonDivisor_X_L_Imp@Internal@Core@Math@Palmtree@@YAPEAU__tag_NUMBER_HEADER@1234@PEAU51234@_K@Z+2717
	DD	0ffffffffH
xdata	ENDS
;	COMDAT xdata
xdata	SEGMENT
$stateUnwindMap$?PMC_GreatestCommonDivisor_X_L_Imp@Internal@Core@Math@Palmtree@@YAPEAU__tag_NUMBER_HEADER@1234@PEAU51234@_K@Z DD 0ffffffffH
	DD	imagerel ?dtor$0@?0??PMC_GreatestCommonDivisor_X_L_Imp@Internal@Core@Math@Palmtree@@YAPEAU__tag_NUMBER_HEADER@1234@PEAU51234@_K@Z@4HA
	DD	0ffffffffH
	DD	imagerel ?dtor$1@?0??PMC_GreatestCommonDivisor_X_L_Imp@Internal@Core@Math@Palmtree@@YAPEAU__tag_NUMBER_HEADER@1234@PEAU51234@_K@Z@4HA
	DD	0ffffffffH
	DD	imagerel ?dtor$2@?0??PMC_GreatestCommonDivisor_X_L_Imp@Internal@Core@Math@Palmtree@@YAPEAU__tag_NUMBER_HEADER@1234@PEAU51234@_K@Z@4HA
xdata	ENDS
;	COMDAT xdata
xdata	SEGMENT
$unwind$?PMC_GreatestCommonDivisor_X_L_Imp@Internal@Core@Math@Palmtree@@YAPEAU__tag_NUMBER_HEADER@1234@PEAU51234@_K@Z DD 035053a11H
	DD	01133318H
	DD	0700c010fH
	DD	0500bH
	DD	imagerel __CxxFrameHandler3
	DD	imagerel $cppxdata$?PMC_GreatestCommonDivisor_X_L_Imp@Internal@Core@Math@Palmtree@@YAPEAU__tag_NUMBER_HEADER@1234@PEAU51234@_K@Z
xdata	ENDS
;	COMDAT CONST
CONST	SEGMENT
?PMC_GreatestCommonDivisor_X_L_Imp@Internal@Core@Math@Palmtree@@YAPEAU__tag_NUMBER_HEADER@1234@PEAU51234@_K@Z$rtcName$0 DB 076H ; Palmtree::Math::Core::Internal::PMC_GreatestCommonDivisor_X_L_Imp
	DB	05fH
	DB	068H
	DB	069H
	DB	00H
	ORG $+3
?PMC_GreatestCommonDivisor_X_L_Imp@Internal@Core@Math@Palmtree@@YAPEAU__tag_NUMBER_HEADER@1234@PEAU51234@_K@Z$rtcName$1 DB 072H ; Palmtree::Math::Core::Internal::PMC_GreatestCommonDivisor_X_L_Imp
	DB	06fH
	DB	06fH
	DB	074H
	DB	00H
	ORG $+3
?PMC_GreatestCommonDivisor_X_L_Imp@Internal@Core@Math@Palmtree@@YAPEAU__tag_NUMBER_HEADER@1234@PEAU51234@_K@Z$rtcName$2 DB 077H ; Palmtree::Math::Core::Internal::PMC_GreatestCommonDivisor_X_L_Imp
	DB	05fH
	DB	062H
	DB	075H
	DB	066H
	DB	05fH
	DB	063H
	DB	06fH
	DB	075H
	DB	06eH
	DB	074H
	DB	00H
?PMC_GreatestCommonDivisor_X_L_Imp@Internal@Core@Math@Palmtree@@YAPEAU__tag_NUMBER_HEADER@1234@PEAU51234@_K@Z$rtcName$3 DB 072H ; Palmtree::Math::Core::Internal::PMC_GreatestCommonDivisor_X_L_Imp
	DB	06fH
	DB	06fH
	DB	074H
	DB	00H
	ORG $+7
?PMC_GreatestCommonDivisor_X_L_Imp@Internal@Core@Math@Palmtree@@YAPEAU__tag_NUMBER_HEADER@1234@PEAU51234@_K@Z$rtcName$4 DB 077H ; Palmtree::Math::Core::Internal::PMC_GreatestCommonDivisor_X_L_Imp
	DB	05fH
	DB	062H
	DB	075H
	DB	066H
	DB	05fH
	DB	063H
	DB	06fH
	DB	075H
	DB	06eH
	DB	074H
	DB	00H
?PMC_GreatestCommonDivisor_X_L_Imp@Internal@Core@Math@Palmtree@@YAPEAU__tag_NUMBER_HEADER@1234@PEAU51234@_K@Z$rtcName$5 DB 072H ; Palmtree::Math::Core::Internal::PMC_GreatestCommonDivisor_X_L_Imp
	DB	06fH
	DB	06fH
	DB	074H
	DB	00H
	ORG $+7
?PMC_GreatestCommonDivisor_X_L_Imp@Internal@Core@Math@Palmtree@@YAPEAU__tag_NUMBER_HEADER@1234@PEAU51234@_K@Z$rtcName$6 DB 077H ; Palmtree::Math::Core::Internal::PMC_GreatestCommonDivisor_X_L_Imp
	DB	05fH
	DB	062H
	DB	075H
	DB	066H
	DB	05fH
	DB	063H
	DB	06fH
	DB	075H
	DB	06eH
	DB	074H
	DB	00H
	ORG $+4
?PMC_GreatestCommonDivisor_X_L_Imp@Internal@Core@Math@Palmtree@@YAPEAU__tag_NUMBER_HEADER@1234@PEAU51234@_K@Z$rtcVarDesc DD 04f8H ; Palmtree::Math::Core::Internal::PMC_GreatestCommonDivisor_X_L_Imp
	DD	08H
	DQ	FLAT:?PMC_GreatestCommonDivisor_X_L_Imp@Internal@Core@Math@Palmtree@@YAPEAU__tag_NUMBER_HEADER@1234@PEAU51234@_K@Z$rtcName$6
	DD	0378H
	DD	020H
	DQ	FLAT:?PMC_GreatestCommonDivisor_X_L_Imp@Internal@Core@Math@Palmtree@@YAPEAU__tag_NUMBER_HEADER@1234@PEAU51234@_K@Z$rtcName$5
	DD	0358H
	DD	08H
	DQ	FLAT:?PMC_GreatestCommonDivisor_X_L_Imp@Internal@Core@Math@Palmtree@@YAPEAU__tag_NUMBER_HEADER@1234@PEAU51234@_K@Z$rtcName$4
	DD	0218H
	DD	020H
	DQ	FLAT:?PMC_GreatestCommonDivisor_X_L_Imp@Internal@Core@Math@Palmtree@@YAPEAU__tag_NUMBER_HEADER@1234@PEAU51234@_K@Z$rtcName$3
	DD	01f8H
	DD	08H
	DQ	FLAT:?PMC_GreatestCommonDivisor_X_L_Imp@Internal@Core@Math@Palmtree@@YAPEAU__tag_NUMBER_HEADER@1234@PEAU51234@_K@Z$rtcName$2
	DD	098H
	DD	020H
	DQ	FLAT:?PMC_GreatestCommonDivisor_X_L_Imp@Internal@Core@Math@Palmtree@@YAPEAU__tag_NUMBER_HEADER@1234@PEAU51234@_K@Z$rtcName$1
	DD	054H
	DD	04H
	DQ	FLAT:?PMC_GreatestCommonDivisor_X_L_Imp@Internal@Core@Math@Palmtree@@YAPEAU__tag_NUMBER_HEADER@1234@PEAU51234@_K@Z$rtcName$0
	ORG $+336
?PMC_GreatestCommonDivisor_X_L_Imp@Internal@Core@Math@Palmtree@@YAPEAU__tag_NUMBER_HEADER@1234@PEAU51234@_K@Z$rtcFrameData DD 07H ; Palmtree::Math::Core::Internal::PMC_GreatestCommonDivisor_X_L_Imp
	DD	00H
	DQ	FLAT:?PMC_GreatestCommonDivisor_X_L_Imp@Internal@Core@Math@Palmtree@@YAPEAU__tag_NUMBER_HEADER@1234@PEAU51234@_K@Z$rtcVarDesc
$cppxdata$?PMC_GreatestCommonDivisor_X_L_Imp@Internal@Core@Math@Palmtree@@YAPEAU__tag_NUMBER_HEADER@1234@PEAU51234@_K@Z DD 019930522H
	DD	03H
	DD	imagerel $stateUnwindMap$?PMC_GreatestCommonDivisor_X_L_Imp@Internal@Core@Math@Palmtree@@YAPEAU__tag_NUMBER_HEADER@1234@PEAU51234@_K@Z
	DD	00H
	DD	00H
	DD	0bH
	DD	imagerel $ip2state$?PMC_GreatestCommonDivisor_X_L_Imp@Internal@Core@Math@Palmtree@@YAPEAU__tag_NUMBER_HEADER@1234@PEAU51234@_K@Z
	DD	0848H
	DD	00H
	DD	00H
CONST	ENDS
;	COMDAT xdata
xdata	SEGMENT
$unwind$?dtor$0@?0??PMC_GreatestCommonDivisor_X_I_Imp@Internal@Core@Math@Palmtree@@YAPEAU__tag_NUMBER_HEADER@1234@PEAU51234@I@Z@4HA DD 031001H
	DD	0700c4210H
	DD	0500bH
xdata	ENDS
;	COMDAT xdata
xdata	SEGMENT
$ip2state$?PMC_GreatestCommonDivisor_X_I_Imp@Internal@Core@Math@Palmtree@@YAPEAU__tag_NUMBER_HEADER@1234@PEAU51234@I@Z DD imagerel ?PMC_GreatestCommonDivisor_X_I_Imp@Internal@Core@Math@Palmtree@@YAPEAU__tag_NUMBER_HEADER@1234@PEAU51234@I@Z
	DD	0ffffffffH
	DD	imagerel ?PMC_GreatestCommonDivisor_X_I_Imp@Internal@Core@Math@Palmtree@@YAPEAU__tag_NUMBER_HEADER@1234@PEAU51234@I@Z+198
	DD	00H
	DD	imagerel ?PMC_GreatestCommonDivisor_X_I_Imp@Internal@Core@Math@Palmtree@@YAPEAU__tag_NUMBER_HEADER@1234@PEAU51234@I@Z+366
	DD	0ffffffffH
	DD	imagerel ?PMC_GreatestCommonDivisor_X_I_Imp@Internal@Core@Math@Palmtree@@YAPEAU__tag_NUMBER_HEADER@1234@PEAU51234@I@Z+392
	DD	00H
	DD	imagerel ?PMC_GreatestCommonDivisor_X_I_Imp@Internal@Core@Math@Palmtree@@YAPEAU__tag_NUMBER_HEADER@1234@PEAU51234@I@Z+1005
	DD	0ffffffffH
xdata	ENDS
;	COMDAT xdata
xdata	SEGMENT
$stateUnwindMap$?PMC_GreatestCommonDivisor_X_I_Imp@Internal@Core@Math@Palmtree@@YAPEAU__tag_NUMBER_HEADER@1234@PEAU51234@I@Z DD 0ffffffffH
	DD	imagerel ?dtor$0@?0??PMC_GreatestCommonDivisor_X_I_Imp@Internal@Core@Math@Palmtree@@YAPEAU__tag_NUMBER_HEADER@1234@PEAU51234@I@Z@4HA
xdata	ENDS
;	COMDAT xdata
xdata	SEGMENT
$unwind$?PMC_GreatestCommonDivisor_X_I_Imp@Internal@Core@Math@Palmtree@@YAPEAU__tag_NUMBER_HEADER@1234@PEAU51234@I@Z DD 035053911H
	DD	01123317H
	DD	0700b0083H
	DD	0500aH
	DD	imagerel __CxxFrameHandler3
	DD	imagerel $cppxdata$?PMC_GreatestCommonDivisor_X_I_Imp@Internal@Core@Math@Palmtree@@YAPEAU__tag_NUMBER_HEADER@1234@PEAU51234@I@Z
xdata	ENDS
;	COMDAT CONST
CONST	SEGMENT
?PMC_GreatestCommonDivisor_X_I_Imp@Internal@Core@Math@Palmtree@@YAPEAU__tag_NUMBER_HEADER@1234@PEAU51234@I@Z$rtcName$0 DB 072H ; Palmtree::Math::Core::Internal::PMC_GreatestCommonDivisor_X_I_Imp
	DB	06fH
	DB	06fH
	DB	074H
	DB	00H
	ORG $+3
?PMC_GreatestCommonDivisor_X_I_Imp@Internal@Core@Math@Palmtree@@YAPEAU__tag_NUMBER_HEADER@1234@PEAU51234@I@Z$rtcName$1 DB 077H ; Palmtree::Math::Core::Internal::PMC_GreatestCommonDivisor_X_I_Imp
	DB	05fH
	DB	062H
	DB	075H
	DB	066H
	DB	05fH
	DB	063H
	DB	06fH
	DB	075H
	DB	06eH
	DB	074H
	DB	00H
	ORG $+12
?PMC_GreatestCommonDivisor_X_I_Imp@Internal@Core@Math@Palmtree@@YAPEAU__tag_NUMBER_HEADER@1234@PEAU51234@I@Z$rtcVarDesc DD 01b8H ; Palmtree::Math::Core::Internal::PMC_GreatestCommonDivisor_X_I_Imp
	DD	08H
	DQ	FLAT:?PMC_GreatestCommonDivisor_X_I_Imp@Internal@Core@Math@Palmtree@@YAPEAU__tag_NUMBER_HEADER@1234@PEAU51234@I@Z$rtcName$1
	DD	038H
	DD	020H
	DQ	FLAT:?PMC_GreatestCommonDivisor_X_I_Imp@Internal@Core@Math@Palmtree@@YAPEAU__tag_NUMBER_HEADER@1234@PEAU51234@I@Z$rtcName$0
	ORG $+96
?PMC_GreatestCommonDivisor_X_I_Imp@Internal@Core@Math@Palmtree@@YAPEAU__tag_NUMBER_HEADER@1234@PEAU51234@I@Z$rtcFrameData DD 02H ; Palmtree::Math::Core::Internal::PMC_GreatestCommonDivisor_X_I_Imp
	DD	00H
	DQ	FLAT:?PMC_GreatestCommonDivisor_X_I_Imp@Internal@Core@Math@Palmtree@@YAPEAU__tag_NUMBER_HEADER@1234@PEAU51234@I@Z$rtcVarDesc
$cppxdata$?PMC_GreatestCommonDivisor_X_I_Imp@Internal@Core@Math@Palmtree@@YAPEAU__tag_NUMBER_HEADER@1234@PEAU51234@I@Z DD 019930522H
	DD	01H
	DD	imagerel $stateUnwindMap$?PMC_GreatestCommonDivisor_X_I_Imp@Internal@Core@Math@Palmtree@@YAPEAU__tag_NUMBER_HEADER@1234@PEAU51234@I@Z
	DD	00H
	DD	00H
	DD	05H
	DD	imagerel $ip2state$?PMC_GreatestCommonDivisor_X_I_Imp@Internal@Core@Math@Palmtree@@YAPEAU__tag_NUMBER_HEADER@1234@PEAU51234@I@Z
	DD	03e8H
	DD	00H
	DD	00H
CONST	ENDS
;	COMDAT xdata
xdata	SEGMENT
$unwind$?GreatestCommonDivisor_1W_Imp@Internal@Core@Math@Palmtree@@YA_K_K0@Z DD 025052f01H
	DD	01132318H
	DD	0700c003bH
	DD	0500bH
xdata	ENDS
;	COMDAT xdata
xdata	SEGMENT
$unwind$?GreatestCommonDivisor_Imp@Internal@Core@Math@Palmtree@@YAXPEA_K0_K00@Z DD 035053901H
	DD	011d3322H
	DD	070160041H
	DD	05015H
xdata	ENDS
;	COMDAT xdata
xdata	SEGMENT
$unwind$_TZCNT_ALT_UNIT DD 025052a01H
	DD	010e2313H
	DD	070070021H
	DD	05006H
xdata	ENDS
;	COMDAT CONST
CONST	SEGMENT
_TZCNT_ALT_UNIT$rtcName$0 DB 070H
	DB	06fH
	DB	073H
	DB	00H
	ORG $+12
_TZCNT_ALT_UNIT$rtcVarDesc DD 024H
	DD	04H
	DQ	FLAT:_TZCNT_ALT_UNIT$rtcName$0
	ORG $+48
_TZCNT_ALT_UNIT$rtcFrameData DD 01H
	DD	00H
	DQ	FLAT:_TZCNT_ALT_UNIT$rtcVarDesc
CONST	ENDS
;	COMDAT xdata
xdata	SEGMENT
$unwind$_LZCNT_ALT_UNIT DD 025052a01H
	DD	010e2313H
	DD	070070021H
	DD	05006H
xdata	ENDS
;	COMDAT CONST
CONST	SEGMENT
_LZCNT_ALT_UNIT$rtcName$0 DB 070H
	DB	06fH
	DB	073H
	DB	00H
	ORG $+12
_LZCNT_ALT_UNIT$rtcVarDesc DD 024H
	DD	04H
	DQ	FLAT:_LZCNT_ALT_UNIT$rtcName$0
	ORG $+48
_LZCNT_ALT_UNIT$rtcFrameData DD 01H
	DD	00H
	DQ	FLAT:_LZCNT_ALT_UNIT$rtcVarDesc
CONST	ENDS
;	COMDAT xdata
xdata	SEGMENT
$unwind$_LZCNT_ALT_32 DD 025052801H
	DD	010d2312H
	DD	070060021H
	DD	05005H
xdata	ENDS
;	COMDAT CONST
CONST	SEGMENT
_LZCNT_ALT_32$rtcName$0 DB 070H
	DB	06fH
	DB	073H
	DB	00H
	ORG $+12
_LZCNT_ALT_32$rtcVarDesc DD 024H
	DD	04H
	DQ	FLAT:_LZCNT_ALT_32$rtcName$0
	ORG $+48
_LZCNT_ALT_32$rtcFrameData DD 01H
	DD	00H
	DQ	FLAT:_LZCNT_ALT_32$rtcVarDesc
CONST	ENDS
;	COMDAT xdata
xdata	SEGMENT
$unwind$_MINIMUM_UNIT DD 025052f01H
	DD	01132318H
	DD	0700c001fH
	DD	0500bH
xdata	ENDS
;	COMDAT xdata
xdata	SEGMENT
$unwind$_MAXIMUM_UNIT DD 025052f01H
	DD	01132318H
	DD	0700c001fH
	DD	0500bH
xdata	ENDS
;	COMDAT xdata
xdata	SEGMENT
$unwind$_DIVIDE_CEILING_UNIT DD 025052f01H
	DD	01132318H
	DD	0700c001dH
	DD	0500bH
xdata	ENDS
;	COMDAT xdata
xdata	SEGMENT
$unwind$_FROMDWORDTOWORD DD 025052f01H
	DD	01132318H
	DD	0700c001dH
	DD	0500bH
xdata	ENDS
;	COMDAT xdata
xdata	SEGMENT
$unwind$_COPY_MEMORY_UNIT DD 025063501H
	DD	0119231eH
	DD	07012001cH
	DD	050106011H
xdata	ENDS
;	COMDAT xdata
xdata	SEGMENT
$unwind$?dtor$0@?0??PMC_GreatestCommonDivisor_X_X@Internal@Core@Math@Palmtree@@YAPEAU__tag_PMC_HANDLE_UINT@1234@PEAU51234@0@Z@4HA DD 031001H
	DD	0700c4210H
	DD	0500bH
xdata	ENDS
;	COMDAT xdata
xdata	SEGMENT
$ip2state$?PMC_GreatestCommonDivisor_X_X@Internal@Core@Math@Palmtree@@YAPEAU__tag_PMC_HANDLE_UINT@1234@PEAU51234@0@Z DD imagerel ?PMC_GreatestCommonDivisor_X_X@Internal@Core@Math@Palmtree@@YAPEAU__tag_PMC_HANDLE_UINT@1234@PEAU51234@0@Z
	DD	0ffffffffH
	DD	imagerel ?PMC_GreatestCommonDivisor_X_X@Internal@Core@Math@Palmtree@@YAPEAU__tag_PMC_HANDLE_UINT@1234@PEAU51234@0@Z+230
	DD	00H
	DD	imagerel ?PMC_GreatestCommonDivisor_X_X@Internal@Core@Math@Palmtree@@YAPEAU__tag_PMC_HANDLE_UINT@1234@PEAU51234@0@Z+308
	DD	0ffffffffH
xdata	ENDS
;	COMDAT xdata
xdata	SEGMENT
$stateUnwindMap$?PMC_GreatestCommonDivisor_X_X@Internal@Core@Math@Palmtree@@YAPEAU__tag_PMC_HANDLE_UINT@1234@PEAU51234@0@Z DD 0ffffffffH
	DD	imagerel ?dtor$0@?0??PMC_GreatestCommonDivisor_X_X@Internal@Core@Math@Palmtree@@YAPEAU__tag_PMC_HANDLE_UINT@1234@PEAU51234@0@Z@4HA
xdata	ENDS
;	COMDAT xdata
xdata	SEGMENT
$unwind$?PMC_GreatestCommonDivisor_X_X@Internal@Core@Math@Palmtree@@YAPEAU__tag_PMC_HANDLE_UINT@1234@PEAU51234@0@Z DD 025053a11H
	DD	01132318H
	DD	0700c004dH
	DD	0500bH
	DD	imagerel __CxxFrameHandler3
	DD	imagerel $cppxdata$?PMC_GreatestCommonDivisor_X_X@Internal@Core@Math@Palmtree@@YAPEAU__tag_PMC_HANDLE_UINT@1234@PEAU51234@0@Z
xdata	ENDS
;	COMDAT CONST
CONST	SEGMENT
?PMC_GreatestCommonDivisor_X_X@Internal@Core@Math@Palmtree@@YAPEAU__tag_PMC_HANDLE_UINT@1234@PEAU51234@0@Z$rtcName$0 DB 072H ; Palmtree::Math::Core::Internal::PMC_GreatestCommonDivisor_X_X
	DB	06fH
	DB	06fH
	DB	074H
	DB	00H
	ORG $+11
?PMC_GreatestCommonDivisor_X_X@Internal@Core@Math@Palmtree@@YAPEAU__tag_PMC_HANDLE_UINT@1234@PEAU51234@0@Z$rtcVarDesc DD 068H ; Palmtree::Math::Core::Internal::PMC_GreatestCommonDivisor_X_X
	DD	020H
	DQ	FLAT:?PMC_GreatestCommonDivisor_X_X@Internal@Core@Math@Palmtree@@YAPEAU__tag_PMC_HANDLE_UINT@1234@PEAU51234@0@Z$rtcName$0
	ORG $+48
?PMC_GreatestCommonDivisor_X_X@Internal@Core@Math@Palmtree@@YAPEAU__tag_PMC_HANDLE_UINT@1234@PEAU51234@0@Z$rtcFrameData DD 01H ; Palmtree::Math::Core::Internal::PMC_GreatestCommonDivisor_X_X
	DD	00H
	DQ	FLAT:?PMC_GreatestCommonDivisor_X_X@Internal@Core@Math@Palmtree@@YAPEAU__tag_PMC_HANDLE_UINT@1234@PEAU51234@0@Z$rtcVarDesc
$cppxdata$?PMC_GreatestCommonDivisor_X_X@Internal@Core@Math@Palmtree@@YAPEAU__tag_PMC_HANDLE_UINT@1234@PEAU51234@0@Z DD 019930522H
	DD	01H
	DD	imagerel $stateUnwindMap$?PMC_GreatestCommonDivisor_X_X@Internal@Core@Math@Palmtree@@YAPEAU__tag_PMC_HANDLE_UINT@1234@PEAU51234@0@Z
	DD	00H
	DD	00H
	DD	03H
	DD	imagerel $ip2state$?PMC_GreatestCommonDivisor_X_X@Internal@Core@Math@Palmtree@@YAPEAU__tag_PMC_HANDLE_UINT@1234@PEAU51234@0@Z
	DD	0248H
	DD	00H
	DD	00H
CONST	ENDS
;	COMDAT xdata
xdata	SEGMENT
$unwind$?dtor$0@?0??PMC_GreatestCommonDivisor_X_L@Internal@Core@Math@Palmtree@@YAPEAU__tag_PMC_HANDLE_UINT@1234@PEAU51234@_K@Z@4HA DD 031001H
	DD	0700c4210H
	DD	0500bH
xdata	ENDS
;	COMDAT xdata
xdata	SEGMENT
$ip2state$?PMC_GreatestCommonDivisor_X_L@Internal@Core@Math@Palmtree@@YAPEAU__tag_PMC_HANDLE_UINT@1234@PEAU51234@_K@Z DD imagerel ?PMC_GreatestCommonDivisor_X_L@Internal@Core@Math@Palmtree@@YAPEAU__tag_PMC_HANDLE_UINT@1234@PEAU51234@_K@Z
	DD	0ffffffffH
	DD	imagerel ?PMC_GreatestCommonDivisor_X_L@Internal@Core@Math@Palmtree@@YAPEAU__tag_PMC_HANDLE_UINT@1234@PEAU51234@_K@Z+198
	DD	00H
	DD	imagerel ?PMC_GreatestCommonDivisor_X_L@Internal@Core@Math@Palmtree@@YAPEAU__tag_PMC_HANDLE_UINT@1234@PEAU51234@_K@Z+267
	DD	0ffffffffH
xdata	ENDS
;	COMDAT xdata
xdata	SEGMENT
$stateUnwindMap$?PMC_GreatestCommonDivisor_X_L@Internal@Core@Math@Palmtree@@YAPEAU__tag_PMC_HANDLE_UINT@1234@PEAU51234@_K@Z DD 0ffffffffH
	DD	imagerel ?dtor$0@?0??PMC_GreatestCommonDivisor_X_L@Internal@Core@Math@Palmtree@@YAPEAU__tag_PMC_HANDLE_UINT@1234@PEAU51234@_K@Z@4HA
xdata	ENDS
;	COMDAT xdata
xdata	SEGMENT
$unwind$?PMC_GreatestCommonDivisor_X_L@Internal@Core@Math@Palmtree@@YAPEAU__tag_PMC_HANDLE_UINT@1234@PEAU51234@_K@Z DD 025053a11H
	DD	01132318H
	DD	0700c0045H
	DD	0500bH
	DD	imagerel __CxxFrameHandler3
	DD	imagerel $cppxdata$?PMC_GreatestCommonDivisor_X_L@Internal@Core@Math@Palmtree@@YAPEAU__tag_PMC_HANDLE_UINT@1234@PEAU51234@_K@Z
xdata	ENDS
;	COMDAT CONST
CONST	SEGMENT
?PMC_GreatestCommonDivisor_X_L@Internal@Core@Math@Palmtree@@YAPEAU__tag_PMC_HANDLE_UINT@1234@PEAU51234@_K@Z$rtcName$0 DB 072H ; Palmtree::Math::Core::Internal::PMC_GreatestCommonDivisor_X_L
	DB	06fH
	DB	06fH
	DB	074H
	DB	00H
	ORG $+11
?PMC_GreatestCommonDivisor_X_L@Internal@Core@Math@Palmtree@@YAPEAU__tag_PMC_HANDLE_UINT@1234@PEAU51234@_K@Z$rtcVarDesc DD 028H ; Palmtree::Math::Core::Internal::PMC_GreatestCommonDivisor_X_L
	DD	020H
	DQ	FLAT:?PMC_GreatestCommonDivisor_X_L@Internal@Core@Math@Palmtree@@YAPEAU__tag_PMC_HANDLE_UINT@1234@PEAU51234@_K@Z$rtcName$0
	ORG $+48
?PMC_GreatestCommonDivisor_X_L@Internal@Core@Math@Palmtree@@YAPEAU__tag_PMC_HANDLE_UINT@1234@PEAU51234@_K@Z$rtcFrameData DD 01H ; Palmtree::Math::Core::Internal::PMC_GreatestCommonDivisor_X_L
	DD	00H
	DQ	FLAT:?PMC_GreatestCommonDivisor_X_L@Internal@Core@Math@Palmtree@@YAPEAU__tag_PMC_HANDLE_UINT@1234@PEAU51234@_K@Z$rtcVarDesc
$cppxdata$?PMC_GreatestCommonDivisor_X_L@Internal@Core@Math@Palmtree@@YAPEAU__tag_PMC_HANDLE_UINT@1234@PEAU51234@_K@Z DD 019930522H
	DD	01H
	DD	imagerel $stateUnwindMap$?PMC_GreatestCommonDivisor_X_L@Internal@Core@Math@Palmtree@@YAPEAU__tag_PMC_HANDLE_UINT@1234@PEAU51234@_K@Z
	DD	00H
	DD	00H
	DD	03H
	DD	imagerel $ip2state$?PMC_GreatestCommonDivisor_X_L@Internal@Core@Math@Palmtree@@YAPEAU__tag_PMC_HANDLE_UINT@1234@PEAU51234@_K@Z
	DD	0208H
	DD	00H
	DD	00H
CONST	ENDS
;	COMDAT xdata
xdata	SEGMENT
$unwind$?dtor$0@?0??PMC_GreatestCommonDivisor_X_I@Internal@Core@Math@Palmtree@@YAPEAU__tag_PMC_HANDLE_UINT@1234@PEAU51234@I@Z@4HA DD 031001H
	DD	0700c4210H
	DD	0500bH
xdata	ENDS
;	COMDAT xdata
xdata	SEGMENT
$ip2state$?PMC_GreatestCommonDivisor_X_I@Internal@Core@Math@Palmtree@@YAPEAU__tag_PMC_HANDLE_UINT@1234@PEAU51234@I@Z DD imagerel ?PMC_GreatestCommonDivisor_X_I@Internal@Core@Math@Palmtree@@YAPEAU__tag_PMC_HANDLE_UINT@1234@PEAU51234@I@Z
	DD	0ffffffffH
	DD	imagerel ?PMC_GreatestCommonDivisor_X_I@Internal@Core@Math@Palmtree@@YAPEAU__tag_PMC_HANDLE_UINT@1234@PEAU51234@I@Z+197
	DD	00H
	DD	imagerel ?PMC_GreatestCommonDivisor_X_I@Internal@Core@Math@Palmtree@@YAPEAU__tag_PMC_HANDLE_UINT@1234@PEAU51234@I@Z+265
	DD	0ffffffffH
xdata	ENDS
;	COMDAT xdata
xdata	SEGMENT
$stateUnwindMap$?PMC_GreatestCommonDivisor_X_I@Internal@Core@Math@Palmtree@@YAPEAU__tag_PMC_HANDLE_UINT@1234@PEAU51234@I@Z DD 0ffffffffH
	DD	imagerel ?dtor$0@?0??PMC_GreatestCommonDivisor_X_I@Internal@Core@Math@Palmtree@@YAPEAU__tag_PMC_HANDLE_UINT@1234@PEAU51234@I@Z@4HA
xdata	ENDS
;	COMDAT xdata
xdata	SEGMENT
$unwind$?PMC_GreatestCommonDivisor_X_I@Internal@Core@Math@Palmtree@@YAPEAU__tag_PMC_HANDLE_UINT@1234@PEAU51234@I@Z DD 025053911H
	DD	01122317H
	DD	0700b0045H
	DD	0500aH
	DD	imagerel __CxxFrameHandler3
	DD	imagerel $cppxdata$?PMC_GreatestCommonDivisor_X_I@Internal@Core@Math@Palmtree@@YAPEAU__tag_PMC_HANDLE_UINT@1234@PEAU51234@I@Z
xdata	ENDS
;	COMDAT CONST
CONST	SEGMENT
?PMC_GreatestCommonDivisor_X_I@Internal@Core@Math@Palmtree@@YAPEAU__tag_PMC_HANDLE_UINT@1234@PEAU51234@I@Z$rtcName$0 DB 072H ; Palmtree::Math::Core::Internal::PMC_GreatestCommonDivisor_X_I
	DB	06fH
	DB	06fH
	DB	074H
	DB	00H
	ORG $+11
?PMC_GreatestCommonDivisor_X_I@Internal@Core@Math@Palmtree@@YAPEAU__tag_PMC_HANDLE_UINT@1234@PEAU51234@I@Z$rtcVarDesc DD 028H ; Palmtree::Math::Core::Internal::PMC_GreatestCommonDivisor_X_I
	DD	020H
	DQ	FLAT:?PMC_GreatestCommonDivisor_X_I@Internal@Core@Math@Palmtree@@YAPEAU__tag_PMC_HANDLE_UINT@1234@PEAU51234@I@Z$rtcName$0
	ORG $+48
?PMC_GreatestCommonDivisor_X_I@Internal@Core@Math@Palmtree@@YAPEAU__tag_PMC_HANDLE_UINT@1234@PEAU51234@I@Z$rtcFrameData DD 01H ; Palmtree::Math::Core::Internal::PMC_GreatestCommonDivisor_X_I
	DD	00H
	DQ	FLAT:?PMC_GreatestCommonDivisor_X_I@Internal@Core@Math@Palmtree@@YAPEAU__tag_PMC_HANDLE_UINT@1234@PEAU51234@I@Z$rtcVarDesc
$cppxdata$?PMC_GreatestCommonDivisor_X_I@Internal@Core@Math@Palmtree@@YAPEAU__tag_PMC_HANDLE_UINT@1234@PEAU51234@I@Z DD 019930522H
	DD	01H
	DD	imagerel $stateUnwindMap$?PMC_GreatestCommonDivisor_X_I@Internal@Core@Math@Palmtree@@YAPEAU__tag_PMC_HANDLE_UINT@1234@PEAU51234@I@Z
	DD	00H
	DD	00H
	DD	03H
	DD	imagerel $ip2state$?PMC_GreatestCommonDivisor_X_I@Internal@Core@Math@Palmtree@@YAPEAU__tag_PMC_HANDLE_UINT@1234@PEAU51234@I@Z
	DD	0208H
	DD	00H
	DD	00H
CONST	ENDS
;	COMDAT xdata
xdata	SEGMENT
$unwind$?dtor$0@?0??PMC_GreatestCommonDivisor_L_X@Internal@Core@Math@Palmtree@@YAPEAU__tag_PMC_HANDLE_UINT@1234@_KPEAU51234@@Z@4HA DD 031001H
	DD	0700c4210H
	DD	0500bH
xdata	ENDS
;	COMDAT xdata
xdata	SEGMENT
$ip2state$?PMC_GreatestCommonDivisor_L_X@Internal@Core@Math@Palmtree@@YAPEAU__tag_PMC_HANDLE_UINT@1234@_KPEAU51234@@Z DD imagerel ?PMC_GreatestCommonDivisor_L_X@Internal@Core@Math@Palmtree@@YAPEAU__tag_PMC_HANDLE_UINT@1234@_KPEAU51234@@Z
	DD	0ffffffffH
	DD	imagerel ?PMC_GreatestCommonDivisor_L_X@Internal@Core@Math@Palmtree@@YAPEAU__tag_PMC_HANDLE_UINT@1234@_KPEAU51234@@Z+198
	DD	00H
	DD	imagerel ?PMC_GreatestCommonDivisor_L_X@Internal@Core@Math@Palmtree@@YAPEAU__tag_PMC_HANDLE_UINT@1234@_KPEAU51234@@Z+267
	DD	0ffffffffH
xdata	ENDS
;	COMDAT xdata
xdata	SEGMENT
$stateUnwindMap$?PMC_GreatestCommonDivisor_L_X@Internal@Core@Math@Palmtree@@YAPEAU__tag_PMC_HANDLE_UINT@1234@_KPEAU51234@@Z DD 0ffffffffH
	DD	imagerel ?dtor$0@?0??PMC_GreatestCommonDivisor_L_X@Internal@Core@Math@Palmtree@@YAPEAU__tag_PMC_HANDLE_UINT@1234@_KPEAU51234@@Z@4HA
xdata	ENDS
;	COMDAT xdata
xdata	SEGMENT
$unwind$?PMC_GreatestCommonDivisor_L_X@Internal@Core@Math@Palmtree@@YAPEAU__tag_PMC_HANDLE_UINT@1234@_KPEAU51234@@Z DD 025053a11H
	DD	01132318H
	DD	0700c0045H
	DD	0500bH
	DD	imagerel __CxxFrameHandler3
	DD	imagerel $cppxdata$?PMC_GreatestCommonDivisor_L_X@Internal@Core@Math@Palmtree@@YAPEAU__tag_PMC_HANDLE_UINT@1234@_KPEAU51234@@Z
xdata	ENDS
;	COMDAT CONST
CONST	SEGMENT
?PMC_GreatestCommonDivisor_L_X@Internal@Core@Math@Palmtree@@YAPEAU__tag_PMC_HANDLE_UINT@1234@_KPEAU51234@@Z$rtcName$0 DB 072H ; Palmtree::Math::Core::Internal::PMC_GreatestCommonDivisor_L_X
	DB	06fH
	DB	06fH
	DB	074H
	DB	00H
	ORG $+11
?PMC_GreatestCommonDivisor_L_X@Internal@Core@Math@Palmtree@@YAPEAU__tag_PMC_HANDLE_UINT@1234@_KPEAU51234@@Z$rtcVarDesc DD 028H ; Palmtree::Math::Core::Internal::PMC_GreatestCommonDivisor_L_X
	DD	020H
	DQ	FLAT:?PMC_GreatestCommonDivisor_L_X@Internal@Core@Math@Palmtree@@YAPEAU__tag_PMC_HANDLE_UINT@1234@_KPEAU51234@@Z$rtcName$0
	ORG $+48
?PMC_GreatestCommonDivisor_L_X@Internal@Core@Math@Palmtree@@YAPEAU__tag_PMC_HANDLE_UINT@1234@_KPEAU51234@@Z$rtcFrameData DD 01H ; Palmtree::Math::Core::Internal::PMC_GreatestCommonDivisor_L_X
	DD	00H
	DQ	FLAT:?PMC_GreatestCommonDivisor_L_X@Internal@Core@Math@Palmtree@@YAPEAU__tag_PMC_HANDLE_UINT@1234@_KPEAU51234@@Z$rtcVarDesc
$cppxdata$?PMC_GreatestCommonDivisor_L_X@Internal@Core@Math@Palmtree@@YAPEAU__tag_PMC_HANDLE_UINT@1234@_KPEAU51234@@Z DD 019930522H
	DD	01H
	DD	imagerel $stateUnwindMap$?PMC_GreatestCommonDivisor_L_X@Internal@Core@Math@Palmtree@@YAPEAU__tag_PMC_HANDLE_UINT@1234@_KPEAU51234@@Z
	DD	00H
	DD	00H
	DD	03H
	DD	imagerel $ip2state$?PMC_GreatestCommonDivisor_L_X@Internal@Core@Math@Palmtree@@YAPEAU__tag_PMC_HANDLE_UINT@1234@_KPEAU51234@@Z
	DD	0208H
	DD	00H
	DD	00H
CONST	ENDS
;	COMDAT xdata
xdata	SEGMENT
$unwind$?dtor$0@?0??PMC_GreatestCommonDivisor_I_X@Internal@Core@Math@Palmtree@@YAPEAU__tag_PMC_HANDLE_UINT@1234@IPEAU51234@@Z@4HA DD 031001H
	DD	0700c4210H
	DD	0500bH
xdata	ENDS
;	COMDAT xdata
xdata	SEGMENT
$ip2state$?PMC_GreatestCommonDivisor_I_X@Internal@Core@Math@Palmtree@@YAPEAU__tag_PMC_HANDLE_UINT@1234@IPEAU51234@@Z DD imagerel ?PMC_GreatestCommonDivisor_I_X@Internal@Core@Math@Palmtree@@YAPEAU__tag_PMC_HANDLE_UINT@1234@IPEAU51234@@Z
	DD	0ffffffffH
	DD	imagerel ?PMC_GreatestCommonDivisor_I_X@Internal@Core@Math@Palmtree@@YAPEAU__tag_PMC_HANDLE_UINT@1234@IPEAU51234@@Z+196
	DD	00H
	DD	imagerel ?PMC_GreatestCommonDivisor_I_X@Internal@Core@Math@Palmtree@@YAPEAU__tag_PMC_HANDLE_UINT@1234@IPEAU51234@@Z+264
	DD	0ffffffffH
xdata	ENDS
;	COMDAT xdata
xdata	SEGMENT
$stateUnwindMap$?PMC_GreatestCommonDivisor_I_X@Internal@Core@Math@Palmtree@@YAPEAU__tag_PMC_HANDLE_UINT@1234@IPEAU51234@@Z DD 0ffffffffH
	DD	imagerel ?dtor$0@?0??PMC_GreatestCommonDivisor_I_X@Internal@Core@Math@Palmtree@@YAPEAU__tag_PMC_HANDLE_UINT@1234@IPEAU51234@@Z@4HA
xdata	ENDS
;	COMDAT xdata
xdata	SEGMENT
$unwind$?PMC_GreatestCommonDivisor_I_X@Internal@Core@Math@Palmtree@@YAPEAU__tag_PMC_HANDLE_UINT@1234@IPEAU51234@@Z DD 025053811H
	DD	01122317H
	DD	0700b0045H
	DD	0500aH
	DD	imagerel __CxxFrameHandler3
	DD	imagerel $cppxdata$?PMC_GreatestCommonDivisor_I_X@Internal@Core@Math@Palmtree@@YAPEAU__tag_PMC_HANDLE_UINT@1234@IPEAU51234@@Z
xdata	ENDS
;	COMDAT CONST
CONST	SEGMENT
?PMC_GreatestCommonDivisor_I_X@Internal@Core@Math@Palmtree@@YAPEAU__tag_PMC_HANDLE_UINT@1234@IPEAU51234@@Z$rtcName$0 DB 072H ; Palmtree::Math::Core::Internal::PMC_GreatestCommonDivisor_I_X
	DB	06fH
	DB	06fH
	DB	074H
	DB	00H
	ORG $+11
?PMC_GreatestCommonDivisor_I_X@Internal@Core@Math@Palmtree@@YAPEAU__tag_PMC_HANDLE_UINT@1234@IPEAU51234@@Z$rtcVarDesc DD 028H ; Palmtree::Math::Core::Internal::PMC_GreatestCommonDivisor_I_X
	DD	020H
	DQ	FLAT:?PMC_GreatestCommonDivisor_I_X@Internal@Core@Math@Palmtree@@YAPEAU__tag_PMC_HANDLE_UINT@1234@IPEAU51234@@Z$rtcName$0
	ORG $+48
?PMC_GreatestCommonDivisor_I_X@Internal@Core@Math@Palmtree@@YAPEAU__tag_PMC_HANDLE_UINT@1234@IPEAU51234@@Z$rtcFrameData DD 01H ; Palmtree::Math::Core::Internal::PMC_GreatestCommonDivisor_I_X
	DD	00H
	DQ	FLAT:?PMC_GreatestCommonDivisor_I_X@Internal@Core@Math@Palmtree@@YAPEAU__tag_PMC_HANDLE_UINT@1234@IPEAU51234@@Z$rtcVarDesc
$cppxdata$?PMC_GreatestCommonDivisor_I_X@Internal@Core@Math@Palmtree@@YAPEAU__tag_PMC_HANDLE_UINT@1234@IPEAU51234@@Z DD 019930522H
	DD	01H
	DD	imagerel $stateUnwindMap$?PMC_GreatestCommonDivisor_I_X@Internal@Core@Math@Palmtree@@YAPEAU__tag_PMC_HANDLE_UINT@1234@IPEAU51234@@Z
	DD	00H
	DD	00H
	DD	03H
	DD	imagerel $ip2state$?PMC_GreatestCommonDivisor_I_X@Internal@Core@Math@Palmtree@@YAPEAU__tag_PMC_HANDLE_UINT@1234@IPEAU51234@@Z
	DD	0208H
	DD	00H
	DD	00H
CONST	ENDS
;	COMDAT xdata
xdata	SEGMENT
$unwind$?Initialize_GreatestCommonDivisor@Internal@Core@Math@Palmtree@@YAHPEAU_tag_PROCESSOR_FEATURES@1234@@Z DD 025052a01H
	DD	010e2313H
	DD	07007001dH
	DD	05006H
xdata	ENDS
;	COMDAT xdata
xdata	SEGMENT
$unwind$??_GInternalErrorException@Internal@Core@Math@Palmtree@@UEAAPEAXI@Z DD 025052e01H
	DD	01122317H
	DD	0700b001dH
	DD	0500aH
xdata	ENDS
;	COMDAT xdata
xdata	SEGMENT
$unwind$?dtor$0@?0???1InternalErrorException@Internal@Core@Math@Palmtree@@UEAA@XZ@4HA DD 031001H
	DD	0700c4210H
	DD	0500bH
xdata	ENDS
;	COMDAT xdata
xdata	SEGMENT
$ip2state$??1InternalErrorException@Internal@Core@Math@Palmtree@@UEAA@XZ DD imagerel ??1InternalErrorException@Internal@Core@Math@Palmtree@@UEAA@XZ
	DD	0ffffffffH
xdata	ENDS
;	COMDAT xdata
xdata	SEGMENT
$stateUnwindMap$??1InternalErrorException@Internal@Core@Math@Palmtree@@UEAA@XZ DD 0ffffffffH
	DD	imagerel ?dtor$0@?0???1InternalErrorException@Internal@Core@Math@Palmtree@@UEAA@XZ@4HA
xdata	ENDS
;	COMDAT CONST
CONST	SEGMENT
$cppxdata$??1InternalErrorException@Internal@Core@Math@Palmtree@@UEAA@XZ DD 019930522H
	DD	01H
	DD	imagerel $stateUnwindMap$??1InternalErrorException@Internal@Core@Math@Palmtree@@UEAA@XZ
	DD	00H
	DD	00H
	DD	01H
	DD	imagerel $ip2state$??1InternalErrorException@Internal@Core@Math@Palmtree@@UEAA@XZ
	DD	0e8H
	DD	00H
	DD	04H
CONST	ENDS
;	COMDAT xdata
xdata	SEGMENT
$unwind$??1InternalErrorException@Internal@Core@Math@Palmtree@@UEAA@XZ DD 025053519H
	DD	010e2313H
	DD	070070021H
	DD	05006H
	DD	imagerel __CxxFrameHandler3
	DD	imagerel $cppxdata$??1InternalErrorException@Internal@Core@Math@Palmtree@@UEAA@XZ
xdata	ENDS
;	COMDAT xdata
xdata	SEGMENT
$unwind$?dtor$0@?0???0InternalErrorException@Internal@Core@Math@Palmtree@@QEAA@AEBV01234@@Z@4HA DD 031001H
	DD	0700c4210H
	DD	0500bH
xdata	ENDS
;	COMDAT xdata
xdata	SEGMENT
$ip2state$??0InternalErrorException@Internal@Core@Math@Palmtree@@QEAA@AEBV01234@@Z DD imagerel ??0InternalErrorException@Internal@Core@Math@Palmtree@@QEAA@AEBV01234@@Z
	DD	0ffffffffH
	DD	imagerel ??0InternalErrorException@Internal@Core@Math@Palmtree@@QEAA@AEBV01234@@Z+91
	DD	00H
	DD	imagerel ??0InternalErrorException@Internal@Core@Math@Palmtree@@QEAA@AEBV01234@@Z+108
	DD	0ffffffffH
xdata	ENDS
;	COMDAT xdata
xdata	SEGMENT
$stateUnwindMap$??0InternalErrorException@Internal@Core@Math@Palmtree@@QEAA@AEBV01234@@Z DD 0ffffffffH
	DD	imagerel ?dtor$0@?0???0InternalErrorException@Internal@Core@Math@Palmtree@@QEAA@AEBV01234@@Z@4HA
xdata	ENDS
;	COMDAT CONST
CONST	SEGMENT
$cppxdata$??0InternalErrorException@Internal@Core@Math@Palmtree@@QEAA@AEBV01234@@Z DD 019930522H
	DD	01H
	DD	imagerel $stateUnwindMap$??0InternalErrorException@Internal@Core@Math@Palmtree@@QEAA@AEBV01234@@Z
	DD	00H
	DD	00H
	DD	03H
	DD	imagerel $ip2state$??0InternalErrorException@Internal@Core@Math@Palmtree@@QEAA@AEBV01234@@Z
	DD	0e8H
	DD	00H
	DD	04H
CONST	ENDS
;	COMDAT xdata
xdata	SEGMENT
$unwind$??0InternalErrorException@Internal@Core@Math@Palmtree@@QEAA@AEBV01234@@Z DD 025053a19H
	DD	01132318H
	DD	0700c0021H
	DD	0500bH
	DD	imagerel __CxxFrameHandler3
	DD	imagerel $cppxdata$??0InternalErrorException@Internal@Core@Math@Palmtree@@QEAA@AEBV01234@@Z
xdata	ENDS
;	COMDAT xdata
xdata	SEGMENT
$unwind$?dtor$0@?0???0InternalErrorException@Internal@Core@Math@Palmtree@@QEAA@PEB_W0@Z@4HA DD 031001H
	DD	0700c4210H
	DD	0500bH
xdata	ENDS
;	COMDAT xdata
xdata	SEGMENT
$ip2state$??0InternalErrorException@Internal@Core@Math@Palmtree@@QEAA@PEB_W0@Z DD imagerel ??0InternalErrorException@Internal@Core@Math@Palmtree@@QEAA@PEB_W0@Z
	DD	0ffffffffH
	DD	imagerel ??0InternalErrorException@Internal@Core@Math@Palmtree@@QEAA@PEB_W0@Z+108
	DD	00H
	DD	imagerel ??0InternalErrorException@Internal@Core@Math@Palmtree@@QEAA@PEB_W0@Z+125
	DD	0ffffffffH
xdata	ENDS
;	COMDAT xdata
xdata	SEGMENT
$stateUnwindMap$??0InternalErrorException@Internal@Core@Math@Palmtree@@QEAA@PEB_W0@Z DD 0ffffffffH
	DD	imagerel ?dtor$0@?0???0InternalErrorException@Internal@Core@Math@Palmtree@@QEAA@PEB_W0@Z@4HA
xdata	ENDS
;	COMDAT CONST
CONST	SEGMENT
$cppxdata$??0InternalErrorException@Internal@Core@Math@Palmtree@@QEAA@PEB_W0@Z DD 019930522H
	DD	01H
	DD	imagerel $stateUnwindMap$??0InternalErrorException@Internal@Core@Math@Palmtree@@QEAA@PEB_W0@Z
	DD	00H
	DD	00H
	DD	03H
	DD	imagerel $ip2state$??0InternalErrorException@Internal@Core@Math@Palmtree@@QEAA@PEB_W0@Z
	DD	0e8H
	DD	00H
	DD	04H
CONST	ENDS
;	COMDAT xdata
xdata	SEGMENT
$unwind$??0InternalErrorException@Internal@Core@Math@Palmtree@@QEAA@PEB_W0@Z DD 025053f19H
	DD	0118231dH
	DD	070110021H
	DD	05010H
	DD	imagerel __CxxFrameHandler3
	DD	imagerel $cppxdata$??0InternalErrorException@Internal@Core@Math@Palmtree@@QEAA@PEB_W0@Z
xdata	ENDS
;	COMDAT xdata
xdata	SEGMENT
$unwind$??_GArithmeticException@Internal@Core@Math@Palmtree@@UEAAPEAXI@Z DD 025052e01H
	DD	01122317H
	DD	0700b001dH
	DD	0500aH
xdata	ENDS
;	COMDAT xdata
xdata	SEGMENT
$unwind$?dtor$0@?0???0ArithmeticException@Internal@Core@Math@Palmtree@@QEAA@AEBV01234@@Z@4HA DD 031001H
	DD	0700c4210H
	DD	0500bH
xdata	ENDS
;	COMDAT xdata
xdata	SEGMENT
$ip2state$??0ArithmeticException@Internal@Core@Math@Palmtree@@QEAA@AEBV01234@@Z DD imagerel ??0ArithmeticException@Internal@Core@Math@Palmtree@@QEAA@AEBV01234@@Z
	DD	0ffffffffH
	DD	imagerel ??0ArithmeticException@Internal@Core@Math@Palmtree@@QEAA@AEBV01234@@Z+78
	DD	00H
	DD	imagerel ??0ArithmeticException@Internal@Core@Math@Palmtree@@QEAA@AEBV01234@@Z+95
	DD	0ffffffffH
xdata	ENDS
;	COMDAT xdata
xdata	SEGMENT
$stateUnwindMap$??0ArithmeticException@Internal@Core@Math@Palmtree@@QEAA@AEBV01234@@Z DD 0ffffffffH
	DD	imagerel ?dtor$0@?0???0ArithmeticException@Internal@Core@Math@Palmtree@@QEAA@AEBV01234@@Z@4HA
xdata	ENDS
;	COMDAT CONST
CONST	SEGMENT
$cppxdata$??0ArithmeticException@Internal@Core@Math@Palmtree@@QEAA@AEBV01234@@Z DD 019930522H
	DD	01H
	DD	imagerel $stateUnwindMap$??0ArithmeticException@Internal@Core@Math@Palmtree@@QEAA@AEBV01234@@Z
	DD	00H
	DD	00H
	DD	03H
	DD	imagerel $ip2state$??0ArithmeticException@Internal@Core@Math@Palmtree@@QEAA@AEBV01234@@Z
	DD	0e8H
	DD	00H
	DD	04H
CONST	ENDS
;	COMDAT xdata
xdata	SEGMENT
$unwind$??0ArithmeticException@Internal@Core@Math@Palmtree@@QEAA@AEBV01234@@Z DD 025053a11H
	DD	01132318H
	DD	0700c0021H
	DD	0500bH
	DD	imagerel __CxxFrameHandler3
	DD	imagerel $cppxdata$??0ArithmeticException@Internal@Core@Math@Palmtree@@QEAA@AEBV01234@@Z
xdata	ENDS
;	COMDAT xdata
xdata	SEGMENT
$unwind$?dtor$0@?0???1ArithmeticException@Internal@Core@Math@Palmtree@@UEAA@XZ@4HA DD 031001H
	DD	0700c4210H
	DD	0500bH
xdata	ENDS
;	COMDAT xdata
xdata	SEGMENT
$ip2state$??1ArithmeticException@Internal@Core@Math@Palmtree@@UEAA@XZ DD imagerel ??1ArithmeticException@Internal@Core@Math@Palmtree@@UEAA@XZ
	DD	0ffffffffH
xdata	ENDS
;	COMDAT xdata
xdata	SEGMENT
$stateUnwindMap$??1ArithmeticException@Internal@Core@Math@Palmtree@@UEAA@XZ DD 0ffffffffH
	DD	imagerel ?dtor$0@?0???1ArithmeticException@Internal@Core@Math@Palmtree@@UEAA@XZ@4HA
xdata	ENDS
;	COMDAT CONST
CONST	SEGMENT
$cppxdata$??1ArithmeticException@Internal@Core@Math@Palmtree@@UEAA@XZ DD 019930522H
	DD	01H
	DD	imagerel $stateUnwindMap$??1ArithmeticException@Internal@Core@Math@Palmtree@@UEAA@XZ
	DD	00H
	DD	00H
	DD	01H
	DD	imagerel $ip2state$??1ArithmeticException@Internal@Core@Math@Palmtree@@UEAA@XZ
	DD	0e8H
	DD	00H
	DD	04H
CONST	ENDS
;	COMDAT xdata
xdata	SEGMENT
$unwind$??1ArithmeticException@Internal@Core@Math@Palmtree@@UEAA@XZ DD 025053519H
	DD	010e2313H
	DD	070070021H
	DD	05006H
	DD	imagerel __CxxFrameHandler3
	DD	imagerel $cppxdata$??1ArithmeticException@Internal@Core@Math@Palmtree@@UEAA@XZ
xdata	ENDS
;	COMDAT xdata
xdata	SEGMENT
$unwind$?dtor$0@?0???0ArithmeticException@Internal@Core@Math@Palmtree@@QEAA@PEB_W@Z@4HA DD 031001H
	DD	0700c4210H
	DD	0500bH
xdata	ENDS
;	COMDAT xdata
xdata	SEGMENT
$ip2state$??0ArithmeticException@Internal@Core@Math@Palmtree@@QEAA@PEB_W@Z DD imagerel ??0ArithmeticException@Internal@Core@Math@Palmtree@@QEAA@PEB_W@Z
	DD	0ffffffffH
	DD	imagerel ??0ArithmeticException@Internal@Core@Math@Palmtree@@QEAA@PEB_W@Z+96
	DD	00H
	DD	imagerel ??0ArithmeticException@Internal@Core@Math@Palmtree@@QEAA@PEB_W@Z+113
	DD	0ffffffffH
xdata	ENDS
;	COMDAT xdata
xdata	SEGMENT
$stateUnwindMap$??0ArithmeticException@Internal@Core@Math@Palmtree@@QEAA@PEB_W@Z DD 0ffffffffH
	DD	imagerel ?dtor$0@?0???0ArithmeticException@Internal@Core@Math@Palmtree@@QEAA@PEB_W@Z@4HA
xdata	ENDS
;	COMDAT CONST
CONST	SEGMENT
$cppxdata$??0ArithmeticException@Internal@Core@Math@Palmtree@@QEAA@PEB_W@Z DD 019930522H
	DD	01H
	DD	imagerel $stateUnwindMap$??0ArithmeticException@Internal@Core@Math@Palmtree@@QEAA@PEB_W@Z
	DD	00H
	DD	00H
	DD	03H
	DD	imagerel $ip2state$??0ArithmeticException@Internal@Core@Math@Palmtree@@QEAA@PEB_W@Z
	DD	0e8H
	DD	00H
	DD	04H
CONST	ENDS
;	COMDAT xdata
xdata	SEGMENT
$unwind$??0ArithmeticException@Internal@Core@Math@Palmtree@@QEAA@PEB_W@Z DD 025053a19H
	DD	01132318H
	DD	0700c0021H
	DD	0500bH
	DD	imagerel __CxxFrameHandler3
	DD	imagerel $cppxdata$??0ArithmeticException@Internal@Core@Math@Palmtree@@QEAA@PEB_W@Z
xdata	ENDS
;	COMDAT xdata
xdata	SEGMENT
$unwind$??_GArgumentNullException@Internal@Core@Math@Palmtree@@UEAAPEAXI@Z DD 025052e01H
	DD	01122317H
	DD	0700b001dH
	DD	0500aH
xdata	ENDS
;	COMDAT xdata
xdata	SEGMENT
$unwind$?dtor$0@?0???1ArgumentNullException@Internal@Core@Math@Palmtree@@UEAA@XZ@4HA DD 031001H
	DD	0700c4210H
	DD	0500bH
xdata	ENDS
;	COMDAT xdata
xdata	SEGMENT
$ip2state$??1ArgumentNullException@Internal@Core@Math@Palmtree@@UEAA@XZ DD imagerel ??1ArgumentNullException@Internal@Core@Math@Palmtree@@UEAA@XZ
	DD	0ffffffffH
xdata	ENDS
;	COMDAT xdata
xdata	SEGMENT
$stateUnwindMap$??1ArgumentNullException@Internal@Core@Math@Palmtree@@UEAA@XZ DD 0ffffffffH
	DD	imagerel ?dtor$0@?0???1ArgumentNullException@Internal@Core@Math@Palmtree@@UEAA@XZ@4HA
xdata	ENDS
;	COMDAT CONST
CONST	SEGMENT
$cppxdata$??1ArgumentNullException@Internal@Core@Math@Palmtree@@UEAA@XZ DD 019930522H
	DD	01H
	DD	imagerel $stateUnwindMap$??1ArgumentNullException@Internal@Core@Math@Palmtree@@UEAA@XZ
	DD	00H
	DD	00H
	DD	01H
	DD	imagerel $ip2state$??1ArgumentNullException@Internal@Core@Math@Palmtree@@UEAA@XZ
	DD	0e8H
	DD	00H
	DD	04H
CONST	ENDS
;	COMDAT xdata
xdata	SEGMENT
$unwind$??1ArgumentNullException@Internal@Core@Math@Palmtree@@UEAA@XZ DD 025053519H
	DD	010e2313H
	DD	070070021H
	DD	05006H
	DD	imagerel __CxxFrameHandler3
	DD	imagerel $cppxdata$??1ArgumentNullException@Internal@Core@Math@Palmtree@@UEAA@XZ
xdata	ENDS
;	COMDAT xdata
xdata	SEGMENT
$unwind$?dtor$0@?0???0ArgumentNullException@Internal@Core@Math@Palmtree@@QEAA@AEBV01234@@Z@4HA DD 031001H
	DD	0700c4210H
	DD	0500bH
xdata	ENDS
;	COMDAT xdata
xdata	SEGMENT
$ip2state$??0ArgumentNullException@Internal@Core@Math@Palmtree@@QEAA@AEBV01234@@Z DD imagerel ??0ArgumentNullException@Internal@Core@Math@Palmtree@@QEAA@AEBV01234@@Z
	DD	0ffffffffH
	DD	imagerel ??0ArgumentNullException@Internal@Core@Math@Palmtree@@QEAA@AEBV01234@@Z+91
	DD	00H
	DD	imagerel ??0ArgumentNullException@Internal@Core@Math@Palmtree@@QEAA@AEBV01234@@Z+108
	DD	0ffffffffH
xdata	ENDS
;	COMDAT xdata
xdata	SEGMENT
$stateUnwindMap$??0ArgumentNullException@Internal@Core@Math@Palmtree@@QEAA@AEBV01234@@Z DD 0ffffffffH
	DD	imagerel ?dtor$0@?0???0ArgumentNullException@Internal@Core@Math@Palmtree@@QEAA@AEBV01234@@Z@4HA
xdata	ENDS
;	COMDAT CONST
CONST	SEGMENT
$cppxdata$??0ArgumentNullException@Internal@Core@Math@Palmtree@@QEAA@AEBV01234@@Z DD 019930522H
	DD	01H
	DD	imagerel $stateUnwindMap$??0ArgumentNullException@Internal@Core@Math@Palmtree@@QEAA@AEBV01234@@Z
	DD	00H
	DD	00H
	DD	03H
	DD	imagerel $ip2state$??0ArgumentNullException@Internal@Core@Math@Palmtree@@QEAA@AEBV01234@@Z
	DD	0e8H
	DD	00H
	DD	04H
CONST	ENDS
;	COMDAT xdata
xdata	SEGMENT
$unwind$??0ArgumentNullException@Internal@Core@Math@Palmtree@@QEAA@AEBV01234@@Z DD 025053a19H
	DD	01132318H
	DD	0700c0021H
	DD	0500bH
	DD	imagerel __CxxFrameHandler3
	DD	imagerel $cppxdata$??0ArgumentNullException@Internal@Core@Math@Palmtree@@QEAA@AEBV01234@@Z
xdata	ENDS
;	COMDAT xdata
xdata	SEGMENT
$unwind$?dtor$0@?0???0ArgumentNullException@Internal@Core@Math@Palmtree@@QEAA@PEB_W0@Z@4HA DD 031001H
	DD	0700c4210H
	DD	0500bH
xdata	ENDS
;	COMDAT xdata
xdata	SEGMENT
$ip2state$??0ArgumentNullException@Internal@Core@Math@Palmtree@@QEAA@PEB_W0@Z DD imagerel ??0ArgumentNullException@Internal@Core@Math@Palmtree@@QEAA@PEB_W0@Z
	DD	0ffffffffH
	DD	imagerel ??0ArgumentNullException@Internal@Core@Math@Palmtree@@QEAA@PEB_W0@Z+108
	DD	00H
	DD	imagerel ??0ArgumentNullException@Internal@Core@Math@Palmtree@@QEAA@PEB_W0@Z+125
	DD	0ffffffffH
xdata	ENDS
;	COMDAT xdata
xdata	SEGMENT
$stateUnwindMap$??0ArgumentNullException@Internal@Core@Math@Palmtree@@QEAA@PEB_W0@Z DD 0ffffffffH
	DD	imagerel ?dtor$0@?0???0ArgumentNullException@Internal@Core@Math@Palmtree@@QEAA@PEB_W0@Z@4HA
xdata	ENDS
;	COMDAT CONST
CONST	SEGMENT
$cppxdata$??0ArgumentNullException@Internal@Core@Math@Palmtree@@QEAA@PEB_W0@Z DD 019930522H
	DD	01H
	DD	imagerel $stateUnwindMap$??0ArgumentNullException@Internal@Core@Math@Palmtree@@QEAA@PEB_W0@Z
	DD	00H
	DD	00H
	DD	03H
	DD	imagerel $ip2state$??0ArgumentNullException@Internal@Core@Math@Palmtree@@QEAA@PEB_W0@Z
	DD	0e8H
	DD	00H
	DD	04H
CONST	ENDS
;	COMDAT xdata
xdata	SEGMENT
$unwind$??0ArgumentNullException@Internal@Core@Math@Palmtree@@QEAA@PEB_W0@Z DD 025053f19H
	DD	0118231dH
	DD	070110021H
	DD	05010H
	DD	imagerel __CxxFrameHandler3
	DD	imagerel $cppxdata$??0ArgumentNullException@Internal@Core@Math@Palmtree@@QEAA@PEB_W0@Z
xdata	ENDS
;	COMDAT xdata
xdata	SEGMENT
$unwind$??_GException@Internal@Core@Math@Palmtree@@UEAAPEAXI@Z DD 025052e01H
	DD	01122317H
	DD	0700b001dH
	DD	0500aH
xdata	ENDS
;	COMDAT xdata
xdata	SEGMENT
$unwind$?dtor$0@?0???1Exception@Internal@Core@Math@Palmtree@@UEAA@XZ@4HA DD 031001H
	DD	0700c4210H
	DD	0500bH
xdata	ENDS
;	COMDAT xdata
xdata	SEGMENT
$ip2state$??1Exception@Internal@Core@Math@Palmtree@@UEAA@XZ DD imagerel ??1Exception@Internal@Core@Math@Palmtree@@UEAA@XZ
	DD	0ffffffffH
xdata	ENDS
;	COMDAT xdata
xdata	SEGMENT
$stateUnwindMap$??1Exception@Internal@Core@Math@Palmtree@@UEAA@XZ DD 0ffffffffH
	DD	imagerel ?dtor$0@?0???1Exception@Internal@Core@Math@Palmtree@@UEAA@XZ@4HA
xdata	ENDS
;	COMDAT CONST
CONST	SEGMENT
$cppxdata$??1Exception@Internal@Core@Math@Palmtree@@UEAA@XZ DD 019930522H
	DD	01H
	DD	imagerel $stateUnwindMap$??1Exception@Internal@Core@Math@Palmtree@@UEAA@XZ
	DD	00H
	DD	00H
	DD	01H
	DD	imagerel $ip2state$??1Exception@Internal@Core@Math@Palmtree@@UEAA@XZ
	DD	0e8H
	DD	00H
	DD	04H
CONST	ENDS
;	COMDAT xdata
xdata	SEGMENT
$unwind$??1Exception@Internal@Core@Math@Palmtree@@UEAA@XZ DD 025053519H
	DD	010e2313H
	DD	070070021H
	DD	05006H
	DD	imagerel __CxxFrameHandler3
	DD	imagerel $cppxdata$??1Exception@Internal@Core@Math@Palmtree@@UEAA@XZ
xdata	ENDS
;	COMDAT xdata
xdata	SEGMENT
$unwind$?dtor$0@?0???0Exception@Internal@Core@Math@Palmtree@@QEAA@AEBV01234@@Z@4HA DD 031001H
	DD	0700c4210H
	DD	0500bH
xdata	ENDS
;	COMDAT xdata
xdata	SEGMENT
$ip2state$??0Exception@Internal@Core@Math@Palmtree@@QEAA@AEBV01234@@Z DD imagerel ??0Exception@Internal@Core@Math@Palmtree@@QEAA@AEBV01234@@Z
	DD	0ffffffffH
	DD	imagerel ??0Exception@Internal@Core@Math@Palmtree@@QEAA@AEBV01234@@Z+84
	DD	00H
	DD	imagerel ??0Exception@Internal@Core@Math@Palmtree@@QEAA@AEBV01234@@Z+165
	DD	0ffffffffH
xdata	ENDS
;	COMDAT xdata
xdata	SEGMENT
$stateUnwindMap$??0Exception@Internal@Core@Math@Palmtree@@QEAA@AEBV01234@@Z DD 0ffffffffH
	DD	imagerel ?dtor$0@?0???0Exception@Internal@Core@Math@Palmtree@@QEAA@AEBV01234@@Z@4HA
xdata	ENDS
;	COMDAT CONST
CONST	SEGMENT
$cppxdata$??0Exception@Internal@Core@Math@Palmtree@@QEAA@AEBV01234@@Z DD 019930522H
	DD	01H
	DD	imagerel $stateUnwindMap$??0Exception@Internal@Core@Math@Palmtree@@QEAA@AEBV01234@@Z
	DD	00H
	DD	00H
	DD	03H
	DD	imagerel $ip2state$??0Exception@Internal@Core@Math@Palmtree@@QEAA@AEBV01234@@Z
	DD	0e8H
	DD	00H
	DD	04H
CONST	ENDS
;	COMDAT xdata
xdata	SEGMENT
$unwind$??0Exception@Internal@Core@Math@Palmtree@@QEAA@AEBV01234@@Z DD 025053a19H
	DD	01132318H
	DD	0700c0021H
	DD	0500bH
	DD	imagerel __CxxFrameHandler3
	DD	imagerel $cppxdata$??0Exception@Internal@Core@Math@Palmtree@@QEAA@AEBV01234@@Z
xdata	ENDS
;	COMDAT xdata
xdata	SEGMENT
$unwind$?dtor$0@?0???0Exception@Internal@Core@Math@Palmtree@@IEAA@HPEB_W0@Z@4HA DD 031001H
	DD	0700c4210H
	DD	0500bH
xdata	ENDS
;	COMDAT xdata
xdata	SEGMENT
$ip2state$??0Exception@Internal@Core@Math@Palmtree@@IEAA@HPEB_W0@Z DD imagerel ??0Exception@Internal@Core@Math@Palmtree@@IEAA@HPEB_W0@Z
	DD	0ffffffffH
	DD	imagerel ??0Exception@Internal@Core@Math@Palmtree@@IEAA@HPEB_W0@Z+93
	DD	00H
	DD	imagerel ??0Exception@Internal@Core@Math@Palmtree@@IEAA@HPEB_W0@Z+162
	DD	0ffffffffH
xdata	ENDS
;	COMDAT xdata
xdata	SEGMENT
$stateUnwindMap$??0Exception@Internal@Core@Math@Palmtree@@IEAA@HPEB_W0@Z DD 0ffffffffH
	DD	imagerel ?dtor$0@?0???0Exception@Internal@Core@Math@Palmtree@@IEAA@HPEB_W0@Z@4HA
xdata	ENDS
;	COMDAT CONST
CONST	SEGMENT
$cppxdata$??0Exception@Internal@Core@Math@Palmtree@@IEAA@HPEB_W0@Z DD 019930522H
	DD	01H
	DD	imagerel $stateUnwindMap$??0Exception@Internal@Core@Math@Palmtree@@IEAA@HPEB_W0@Z
	DD	00H
	DD	00H
	DD	03H
	DD	imagerel $ip2state$??0Exception@Internal@Core@Math@Palmtree@@IEAA@HPEB_W0@Z
	DD	0e8H
	DD	00H
	DD	04H
CONST	ENDS
;	COMDAT xdata
xdata	SEGMENT
$unwind$??0Exception@Internal@Core@Math@Palmtree@@IEAA@HPEB_W0@Z DD 025054319H
	DD	011c2321H
	DD	070150021H
	DD	05014H
	DD	imagerel __CxxFrameHandler3
	DD	imagerel $cppxdata$??0Exception@Internal@Core@Math@Palmtree@@IEAA@HPEB_W0@Z
xdata	ENDS
;	COMDAT xdata
xdata	SEGMENT
$unwind$?dtor$0@?0???0Exception@Internal@Core@Math@Palmtree@@IEAA@HPEB_W@Z@4HA DD 031001H
	DD	0700c4210H
	DD	0500bH
xdata	ENDS
;	COMDAT xdata
xdata	SEGMENT
$ip2state$??0Exception@Internal@Core@Math@Palmtree@@IEAA@HPEB_W@Z DD imagerel ??0Exception@Internal@Core@Math@Palmtree@@IEAA@HPEB_W@Z
	DD	0ffffffffH
	DD	imagerel ??0Exception@Internal@Core@Math@Palmtree@@IEAA@HPEB_W@Z+88
	DD	00H
	DD	imagerel ??0Exception@Internal@Core@Math@Palmtree@@IEAA@HPEB_W@Z+154
	DD	0ffffffffH
xdata	ENDS
;	COMDAT xdata
xdata	SEGMENT
$stateUnwindMap$??0Exception@Internal@Core@Math@Palmtree@@IEAA@HPEB_W@Z DD 0ffffffffH
	DD	imagerel ?dtor$0@?0???0Exception@Internal@Core@Math@Palmtree@@IEAA@HPEB_W@Z@4HA
xdata	ENDS
;	COMDAT CONST
CONST	SEGMENT
$cppxdata$??0Exception@Internal@Core@Math@Palmtree@@IEAA@HPEB_W@Z DD 019930522H
	DD	01H
	DD	imagerel $stateUnwindMap$??0Exception@Internal@Core@Math@Palmtree@@IEAA@HPEB_W@Z
	DD	00H
	DD	00H
	DD	03H
	DD	imagerel $ip2state$??0Exception@Internal@Core@Math@Palmtree@@IEAA@HPEB_W@Z
	DD	0e8H
	DD	00H
	DD	04H
CONST	ENDS
;	COMDAT xdata
xdata	SEGMENT
$unwind$??0Exception@Internal@Core@Math@Palmtree@@IEAA@HPEB_W@Z DD 025053e19H
	DD	0117231cH
	DD	070100021H
	DD	0500fH
	DD	imagerel __CxxFrameHandler3
	DD	imagerel $cppxdata$??0Exception@Internal@Core@Math@Palmtree@@IEAA@HPEB_W@Z
xdata	ENDS
;	COMDAT xdata
xdata	SEGMENT
$unwind$??_Gexception@std@@UEAAPEAXI@Z DD 025052e01H
	DD	01122317H
	DD	0700b001dH
	DD	0500aH
xdata	ENDS
;	COMDAT xdata
xdata	SEGMENT
$unwind$?what@exception@std@@UEBAPEBDXZ DD 025052a01H
	DD	010e2313H
	DD	07007001fH
	DD	05006H
xdata	ENDS
;	COMDAT xdata
xdata	SEGMENT
$ip2state$??1exception@std@@UEAA@XZ DD imagerel ??1exception@std@@UEAA@XZ
	DD	0ffffffffH
xdata	ENDS
;	COMDAT CONST
CONST	SEGMENT
$cppxdata$??1exception@std@@UEAA@XZ DD 019930522H
	DD	00H
	DD	00H
	DD	00H
	DD	00H
	DD	01H
	DD	imagerel $ip2state$??1exception@std@@UEAA@XZ
	DD	0e8H
	DD	00H
	DD	04H
CONST	ENDS
;	COMDAT xdata
xdata	SEGMENT
$unwind$??1exception@std@@UEAA@XZ DD 025053519H
	DD	010e2313H
	DD	070070021H
	DD	05006H
	DD	imagerel __CxxFrameHandler3
	DD	imagerel $cppxdata$??1exception@std@@UEAA@XZ
xdata	ENDS
;	COMDAT xdata
xdata	SEGMENT
$ip2state$??0exception@std@@QEAA@XZ DD imagerel ??0exception@std@@QEAA@XZ
	DD	0ffffffffH
xdata	ENDS
;	COMDAT CONST
CONST	SEGMENT
$cppxdata$??0exception@std@@QEAA@XZ DD 019930522H
	DD	00H
	DD	00H
	DD	00H
	DD	00H
	DD	01H
	DD	imagerel $ip2state$??0exception@std@@QEAA@XZ
	DD	0e8H
	DD	00H
	DD	04H
CONST	ENDS
;	COMDAT xdata
xdata	SEGMENT
$unwind$??0exception@std@@QEAA@XZ DD 025053519H
	DD	010e2313H
	DD	070070021H
	DD	05006H
	DD	imagerel __CxxFrameHandler3
	DD	imagerel $cppxdata$??0exception@std@@QEAA@XZ
xdata	ENDS
; Function compile flags: /Odt
;	COMDAT __JustMyCode_Default
_TEXT	SEGMENT
__JustMyCode_Default PROC				; COMDAT
  00000	c2 00 00	 ret	 0
__JustMyCode_Default ENDP
_TEXT	ENDS
; Function compile flags: /Odtp /RTCsu /ZI
; File z:\sources\lunor\repos\rougemeilland\palmtree.math.core.uint\palmtree.math.core.uint\pmc_greatestcommondivisor.cpp
;	COMDAT ?PMC_GreatestCommonDivisor_X_X_Imp@Internal@Core@Math@Palmtree@@YAPEAU__tag_NUMBER_HEADER@1234@PEAU51234@0@Z
_TEXT	SEGMENT
root$5 = 8
u_bit_count$6 = 72
v_bit_count$7 = 104
work_bit_count$8 = 136
w$9 = 168
work_u_buf$10 = 200
work_v_buf$11 = 232
w$12 = 264
u_tzcnt$13 = 296
v_tzcnt$14 = 328
k$15 = 360
w_buf_count$16 = 392
$T17 = 808
$T18 = 888
$T19 = 920
$T20 = 952
tv196 = 968
tv134 = 968
tv194 = 976
tv138 = 976
u$ = 1024
v$ = 1032
?PMC_GreatestCommonDivisor_X_X_Imp@Internal@Core@Math@Palmtree@@YAPEAU__tag_NUMBER_HEADER@1234@PEAU51234@0@Z PROC ; Palmtree::Math::Core::Internal::PMC_GreatestCommonDivisor_X_X_Imp, COMDAT

; 395  :     {

  00000	48 89 54 24 10	 mov	 QWORD PTR [rsp+16], rdx
  00005	48 89 4c 24 08	 mov	 QWORD PTR [rsp+8], rcx
  0000a	55		 push	 rbp
  0000b	57		 push	 rdi
  0000c	48 81 ec 18 04
	00 00		 sub	 rsp, 1048		; 00000418H
  00013	48 8d 6c 24 30	 lea	 rbp, QWORD PTR [rsp+48]
  00018	48 8b fc	 mov	 rdi, rsp
  0001b	b9 06 01 00 00	 mov	 ecx, 262		; 00000106H
  00020	b8 cc cc cc cc	 mov	 eax, -858993460		; ccccccccH
  00025	f3 ab		 rep stosd
  00027	48 8b 8c 24 38
	04 00 00	 mov	 rcx, QWORD PTR [rsp+1080]
  0002f	48 c7 85 b8 03
	00 00 fe ff ff
	ff		 mov	 QWORD PTR $T20[rbp], -2
  0003a	48 8d 0d 00 00
	00 00		 lea	 rcx, OFFSET FLAT:__AACDA9A0_pmc_greatestcommondivisor@cpp
  00041	e8 00 00 00 00	 call	 __CheckForDebuggerJustMyCode

; 396  :         if (u->IS_ZERO)

  00046	48 8b 85 00 04
	00 00		 mov	 rax, QWORD PTR u$[rbp]
  0004d	8b 40 08	 mov	 eax, DWORD PTR [rax+8]
  00050	83 e0 01	 and	 eax, 1
  00053	85 c0		 test	 eax, eax
  00055	74 50		 je	 SHORT $LN2@PMC_Greate

; 397  :         {
; 398  :             // u  0 
; 399  : 
; 400  :             if (v->IS_ZERO)

  00057	48 8b 85 08 04
	00 00		 mov	 rax, QWORD PTR v$[rbp]
  0005e	8b 40 08	 mov	 eax, DWORD PTR [rax+8]
  00061	83 e0 01	 and	 eax, 1
  00064	85 c0		 test	 eax, eax
  00066	74 29		 je	 SHORT $LN4@PMC_Greate

; 401  :             {
; 402  :                 // v  0 
; 403  : 
; 404  :                 // u  v  0 GCD 
; 405  :                 throw ArithmeticException(L"20GCD");

  00068	48 8d 15 00 00
	00 00		 lea	 rdx, OFFSET FLAT:??_C@_1DO@NPBJHMD@?$AA?$BF?$AAp?$AAL?$AA2?$AAd?$AAh?$PP?$IC?$AA0?$AAj?$AAn?$AAg?$AAG?$AAC?$AAD?$PP?$JC@
  0006f	48 8d 8d 28 03
	00 00		 lea	 rcx, QWORD PTR $T17[rbp]
  00076	e8 00 00 00 00	 call	 ??0ArithmeticException@Internal@Core@Math@Palmtree@@QEAA@PEB_W@Z ; Palmtree::Math::Core::Internal::ArithmeticException::ArithmeticException
  0007b	48 8d 15 00 00
	00 00		 lea	 rdx, OFFSET FLAT:_TI2?AVArithmeticException@Internal@Core@Math@Palmtree@@
  00082	48 8d 8d 28 03
	00 00		 lea	 rcx, QWORD PTR $T17[rbp]
  00089	e8 00 00 00 00	 call	 _CxxThrowException
  0008e	90		 npad	 1

; 406  :             }
; 407  :             else

  0008f	eb 11		 jmp	 SHORT $LN5@PMC_Greate
$LN4@PMC_Greate:

; 408  :             {
; 409  :                 // v  0 
; 410  : 
; 411  :                 // GCD  v v 
; 412  :                 return (DuplicateNumber(v));

  00091	48 8b 8d 08 04
	00 00		 mov	 rcx, QWORD PTR v$[rbp]
  00098	e8 00 00 00 00	 call	 ?DuplicateNumber@Internal@Core@Math@Palmtree@@YAPEAU__tag_NUMBER_HEADER@1234@PEAU51234@@Z ; Palmtree::Math::Core::Internal::DuplicateNumber
  0009d	e9 b7 03 00 00	 jmp	 $LN14@PMC_Greate
$LN5@PMC_Greate:

; 413  :             }
; 414  :         }
; 415  :         else

  000a2	e9 b2 03 00 00	 jmp	 $LN14@PMC_Greate
$LN2@PMC_Greate:

; 416  :         {
; 417  :             // u  0 
; 418  : 
; 419  :             if (v->IS_ZERO)

  000a7	48 8b 85 08 04
	00 00		 mov	 rax, QWORD PTR v$[rbp]
  000ae	8b 40 08	 mov	 eax, DWORD PTR [rax+8]
  000b1	83 e0 01	 and	 eax, 1
  000b4	85 c0		 test	 eax, eax
  000b6	74 16		 je	 SHORT $LN6@PMC_Greate

; 420  :             {
; 421  :                 // v  0 
; 422  : 
; 423  :                 // GCD  u u 
; 424  :                 return (DuplicateNumber(u));

  000b8	48 8b 8d 00 04
	00 00		 mov	 rcx, QWORD PTR u$[rbp]
  000bf	e8 00 00 00 00	 call	 ?DuplicateNumber@Internal@Core@Math@Palmtree@@YAPEAU__tag_NUMBER_HEADER@1234@PEAU51234@@Z ; Palmtree::Math::Core::Internal::DuplicateNumber
  000c4	e9 90 03 00 00	 jmp	 $LN14@PMC_Greate

; 425  :             }
; 426  :             else

  000c9	e9 8b 03 00 00	 jmp	 $LN14@PMC_Greate
$LN6@PMC_Greate:

; 427  :             {
; 428  :                 // u  v  0 
; 429  : 
; 430  :                 // u  v  GCD 
; 431  :                 ResourceHolderUINT root;

  000ce	48 8d 4d 08	 lea	 rcx, QWORD PTR root$5[rbp]
  000d2	e8 00 00 00 00	 call	 ??0ResourceHolderUINT@Internal@Core@Math@Palmtree@@QEAA@XZ ; Palmtree::Math::Core::Internal::ResourceHolderUINT::ResourceHolderUINT
  000d7	90		 npad	 1

; 432  :                 __UNIT_TYPE u_bit_count = u->UNIT_BIT_COUNT;

  000d8	48 8b 85 00 04
	00 00		 mov	 rax, QWORD PTR u$[rbp]
  000df	48 8b 40 20	 mov	 rax, QWORD PTR [rax+32]
  000e3	48 89 45 48	 mov	 QWORD PTR u_bit_count$6[rbp], rax

; 433  :                 __UNIT_TYPE v_bit_count = v->UNIT_BIT_COUNT;

  000e7	48 8b 85 08 04
	00 00		 mov	 rax, QWORD PTR v$[rbp]
  000ee	48 8b 40 20	 mov	 rax, QWORD PTR [rax+32]
  000f2	48 89 45 68	 mov	 QWORD PTR v_bit_count$7[rbp], rax

; 434  :                 __UNIT_TYPE work_bit_count = _MAXIMUM_UNIT(u_bit_count, v_bit_count);

  000f6	48 8b 55 68	 mov	 rdx, QWORD PTR v_bit_count$7[rbp]
  000fa	48 8b 4d 48	 mov	 rcx, QWORD PTR u_bit_count$6[rbp]
  000fe	e8 00 00 00 00	 call	 _MAXIMUM_UNIT
  00103	48 89 85 88 00
	00 00		 mov	 QWORD PTR work_bit_count$8[rbp], rax

; 435  :                 if (work_bit_count <= __UNIT_TYPE_BIT_COUNT)

  0010a	48 83 bd 88 00
	00 00 40	 cmp	 QWORD PTR work_bit_count$8[rbp], 64 ; 00000040H
  00112	0f 87 d2 00 00
	00		 ja	 $LN8@PMC_Greate

; 436  :                 {
; 437  :                     // u  v  1 
; 438  :                     NUMBER_HEADER* w = root.AllocateNumber(__UNIT_TYPE_BIT_COUNT);

  00118	ba 40 00 00 00	 mov	 edx, 64			; 00000040H
  0011d	48 8d 4d 08	 lea	 rcx, QWORD PTR root$5[rbp]
  00121	e8 00 00 00 00	 call	 ?AllocateNumber@ResourceHolderUINT@Internal@Core@Math@Palmtree@@QEAAPEAU__tag_NUMBER_HEADER@2345@_K@Z ; Palmtree::Math::Core::Internal::ResourceHolderUINT::AllocateNumber
  00126	48 89 85 a8 00
	00 00		 mov	 QWORD PTR w$9[rbp], rax

; 439  :                     w->BLOCK[0] = GreatestCommonDivisor_1W_Imp(u->BLOCK[0], v->BLOCK[0]);

  0012d	b8 08 00 00 00	 mov	 eax, 8
  00132	48 6b c0 00	 imul	 rax, rax, 0
  00136	48 8b 8d 08 04
	00 00		 mov	 rcx, QWORD PTR v$[rbp]
  0013d	48 8b 49 40	 mov	 rcx, QWORD PTR [rcx+64]
  00141	ba 08 00 00 00	 mov	 edx, 8
  00146	48 6b d2 00	 imul	 rdx, rdx, 0
  0014a	48 89 95 c8 03
	00 00		 mov	 QWORD PTR tv134[rbp], rdx
  00151	4c 8b 85 00 04
	00 00		 mov	 r8, QWORD PTR u$[rbp]
  00158	4d 8b 40 40	 mov	 r8, QWORD PTR [r8+64]
  0015c	48 8b 14 01	 mov	 rdx, QWORD PTR [rcx+rax]
  00160	48 8b 85 c8 03
	00 00		 mov	 rax, QWORD PTR tv134[rbp]
  00167	49 8b 0c 00	 mov	 rcx, QWORD PTR [r8+rax]
  0016b	e8 00 00 00 00	 call	 ?GreatestCommonDivisor_1W_Imp@Internal@Core@Math@Palmtree@@YA_K_K0@Z ; Palmtree::Math::Core::Internal::GreatestCommonDivisor_1W_Imp
  00170	48 89 85 d0 03
	00 00		 mov	 QWORD PTR tv138[rbp], rax
  00177	b8 08 00 00 00	 mov	 eax, 8
  0017c	48 6b c0 00	 imul	 rax, rax, 0
  00180	48 8b 8d a8 00
	00 00		 mov	 rcx, QWORD PTR w$9[rbp]
  00187	48 8b 49 40	 mov	 rcx, QWORD PTR [rcx+64]
  0018b	48 8b 95 d0 03
	00 00		 mov	 rdx, QWORD PTR tv138[rbp]
  00192	48 89 14 08	 mov	 QWORD PTR [rax+rcx], rdx

; 440  :                     root.CheckNumber(w);

  00196	48 8b 95 a8 00
	00 00		 mov	 rdx, QWORD PTR w$9[rbp]
  0019d	48 8d 4d 08	 lea	 rcx, QWORD PTR root$5[rbp]
  001a1	e8 00 00 00 00	 call	 ?CheckNumber@ResourceHolderUINT@Internal@Core@Math@Palmtree@@QEAAXPEAU__tag_NUMBER_HEADER@2345@@Z ; Palmtree::Math::Core::Internal::ResourceHolderUINT::CheckNumber

; 441  :                     CommitNumber(w);

  001a6	48 8b 8d a8 00
	00 00		 mov	 rcx, QWORD PTR w$9[rbp]
  001ad	e8 00 00 00 00	 call	 ?CommitNumber@Internal@Core@Math@Palmtree@@YAXPEAU__tag_NUMBER_HEADER@1234@@Z ; Palmtree::Math::Core::Internal::CommitNumber

; 442  :                     root.UnlinkNumber(w);

  001b2	48 8b 95 a8 00
	00 00		 mov	 rdx, QWORD PTR w$9[rbp]
  001b9	48 8d 4d 08	 lea	 rcx, QWORD PTR root$5[rbp]
  001bd	e8 00 00 00 00	 call	 ?UnlinkNumber@ResourceHolderUINT@Internal@Core@Math@Palmtree@@QEAAXPEAU__tag_NUMBER_HEADER@2345@@Z ; Palmtree::Math::Core::Internal::ResourceHolderUINT::UnlinkNumber

; 443  :                     return (w);

  001c2	48 8b 85 a8 00
	00 00		 mov	 rax, QWORD PTR w$9[rbp]
  001c9	48 89 85 78 03
	00 00		 mov	 QWORD PTR $T18[rbp], rax
  001d0	48 8d 4d 08	 lea	 rcx, QWORD PTR root$5[rbp]
  001d4	e8 00 00 00 00	 call	 ??1ResourceHolderUINT@Internal@Core@Math@Palmtree@@UEAA@XZ ; Palmtree::Math::Core::Internal::ResourceHolderUINT::~ResourceHolderUINT
  001d9	48 8b 85 78 03
	00 00		 mov	 rax, QWORD PTR $T18[rbp]
  001e0	e9 74 02 00 00	 jmp	 $LN14@PMC_Greate

; 444  :                 }
; 445  :                 else

  001e5	e9 65 02 00 00	 jmp	 $LN9@PMC_Greate
$LN8@PMC_Greate:

; 446  :                 {
; 447  :                     // u  v  1 
; 448  :                     __UNIT_TYPE* work_u_buf = root.AllocateBlock(work_bit_count);

  001ea	48 8b 95 88 00
	00 00		 mov	 rdx, QWORD PTR work_bit_count$8[rbp]
  001f1	48 8d 4d 08	 lea	 rcx, QWORD PTR root$5[rbp]
  001f5	e8 00 00 00 00	 call	 ?AllocateBlock@ResourceHolderUINT@Internal@Core@Math@Palmtree@@QEAAPEA_K_K@Z ; Palmtree::Math::Core::Internal::ResourceHolderUINT::AllocateBlock
  001fa	48 89 85 c8 00
	00 00		 mov	 QWORD PTR work_u_buf$10[rbp], rax

; 449  :                     __UNIT_TYPE* work_v_buf = root.AllocateBlock(work_bit_count);

  00201	48 8b 95 88 00
	00 00		 mov	 rdx, QWORD PTR work_bit_count$8[rbp]
  00208	48 8d 4d 08	 lea	 rcx, QWORD PTR root$5[rbp]
  0020c	e8 00 00 00 00	 call	 ?AllocateBlock@ResourceHolderUINT@Internal@Core@Math@Palmtree@@QEAAPEA_K_K@Z ; Palmtree::Math::Core::Internal::ResourceHolderUINT::AllocateBlock
  00211	48 89 85 e8 00
	00 00		 mov	 QWORD PTR work_v_buf$11[rbp], rax

; 450  :                     NUMBER_HEADER* w = root.AllocateNumber(work_bit_count);

  00218	48 8b 95 88 00
	00 00		 mov	 rdx, QWORD PTR work_bit_count$8[rbp]
  0021f	48 8d 4d 08	 lea	 rcx, QWORD PTR root$5[rbp]
  00223	e8 00 00 00 00	 call	 ?AllocateNumber@ResourceHolderUINT@Internal@Core@Math@Palmtree@@QEAAPEAU__tag_NUMBER_HEADER@2345@_K@Z ; Palmtree::Math::Core::Internal::ResourceHolderUINT::AllocateNumber
  00228	48 89 85 08 01
	00 00		 mov	 QWORD PTR w$12[rbp], rax

; 451  : 
; 452  :                     __UNIT_TYPE u_tzcnt = u->TRAILING_ZERO_BITS_COUNT;

  0022f	48 8b 85 00 04
	00 00		 mov	 rax, QWORD PTR u$[rbp]
  00236	48 8b 40 28	 mov	 rax, QWORD PTR [rax+40]
  0023a	48 89 85 28 01
	00 00		 mov	 QWORD PTR u_tzcnt$13[rbp], rax

; 453  :                     __UNIT_TYPE v_tzcnt = v->TRAILING_ZERO_BITS_COUNT;

  00241	48 8b 85 08 04
	00 00		 mov	 rax, QWORD PTR v$[rbp]
  00248	48 8b 40 28	 mov	 rax, QWORD PTR [rax+40]
  0024c	48 89 85 48 01
	00 00		 mov	 QWORD PTR v_tzcnt$14[rbp], rax

; 454  :                     __UNIT_TYPE k = _MINIMUM_UNIT(u_tzcnt, v_tzcnt);

  00253	48 8b 95 48 01
	00 00		 mov	 rdx, QWORD PTR v_tzcnt$14[rbp]
  0025a	48 8b 8d 28 01
	00 00		 mov	 rcx, QWORD PTR u_tzcnt$13[rbp]
  00261	e8 00 00 00 00	 call	 _MINIMUM_UNIT
  00266	48 89 85 68 01
	00 00		 mov	 QWORD PTR k$15[rbp], rax

; 455  :                     if (u_tzcnt > 0)

  0026d	48 83 bd 28 01
	00 00 00	 cmp	 QWORD PTR u_tzcnt$13[rbp], 0
  00275	76 33		 jbe	 SHORT $LN10@PMC_Greate

; 456  :                         RightShift_Imp(u->BLOCK, u->UNIT_WORD_COUNT, u_tzcnt, work_u_buf, FALSE);

  00277	c7 44 24 20 00
	00 00 00	 mov	 DWORD PTR [rsp+32], 0
  0027f	4c 8b 8d c8 00
	00 00		 mov	 r9, QWORD PTR work_u_buf$10[rbp]
  00286	4c 8b 85 28 01
	00 00		 mov	 r8, QWORD PTR u_tzcnt$13[rbp]
  0028d	48 8b 85 00 04
	00 00		 mov	 rax, QWORD PTR u$[rbp]
  00294	48 8b 50 18	 mov	 rdx, QWORD PTR [rax+24]
  00298	48 8b 85 00 04
	00 00		 mov	 rax, QWORD PTR u$[rbp]
  0029f	48 8b 48 40	 mov	 rcx, QWORD PTR [rax+64]
  002a3	e8 00 00 00 00	 call	 ?RightShift_Imp@Internal@Core@Math@Palmtree@@YAXPEA_K_K10H@Z ; Palmtree::Math::Core::Internal::RightShift_Imp

; 457  :                     else

  002a8	eb 22		 jmp	 SHORT $LN11@PMC_Greate
$LN10@PMC_Greate:

; 458  :                         _COPY_MEMORY_UNIT(work_u_buf, u->BLOCK, u->UNIT_WORD_COUNT);

  002aa	48 8b 85 00 04
	00 00		 mov	 rax, QWORD PTR u$[rbp]
  002b1	4c 8b 40 18	 mov	 r8, QWORD PTR [rax+24]
  002b5	48 8b 85 00 04
	00 00		 mov	 rax, QWORD PTR u$[rbp]
  002bc	48 8b 50 40	 mov	 rdx, QWORD PTR [rax+64]
  002c0	48 8b 8d c8 00
	00 00		 mov	 rcx, QWORD PTR work_u_buf$10[rbp]
  002c7	e8 00 00 00 00	 call	 _COPY_MEMORY_UNIT
$LN11@PMC_Greate:

; 459  :                     if (v_tzcnt > 0)

  002cc	48 83 bd 48 01
	00 00 00	 cmp	 QWORD PTR v_tzcnt$14[rbp], 0
  002d4	76 33		 jbe	 SHORT $LN12@PMC_Greate

; 460  :                         RightShift_Imp(v->BLOCK, v->UNIT_WORD_COUNT, v_tzcnt, work_v_buf, FALSE);

  002d6	c7 44 24 20 00
	00 00 00	 mov	 DWORD PTR [rsp+32], 0
  002de	4c 8b 8d e8 00
	00 00		 mov	 r9, QWORD PTR work_v_buf$11[rbp]
  002e5	4c 8b 85 48 01
	00 00		 mov	 r8, QWORD PTR v_tzcnt$14[rbp]
  002ec	48 8b 85 08 04
	00 00		 mov	 rax, QWORD PTR v$[rbp]
  002f3	48 8b 50 18	 mov	 rdx, QWORD PTR [rax+24]
  002f7	48 8b 85 08 04
	00 00		 mov	 rax, QWORD PTR v$[rbp]
  002fe	48 8b 48 40	 mov	 rcx, QWORD PTR [rax+64]
  00302	e8 00 00 00 00	 call	 ?RightShift_Imp@Internal@Core@Math@Palmtree@@YAXPEA_K_K10H@Z ; Palmtree::Math::Core::Internal::RightShift_Imp

; 461  :                     else

  00307	eb 22		 jmp	 SHORT $LN13@PMC_Greate
$LN12@PMC_Greate:

; 462  :                         _COPY_MEMORY_UNIT(work_v_buf, v->BLOCK, v->UNIT_WORD_COUNT);

  00309	48 8b 85 08 04
	00 00		 mov	 rax, QWORD PTR v$[rbp]
  00310	4c 8b 40 18	 mov	 r8, QWORD PTR [rax+24]
  00314	48 8b 85 08 04
	00 00		 mov	 rax, QWORD PTR v$[rbp]
  0031b	48 8b 50 40	 mov	 rdx, QWORD PTR [rax+64]
  0031f	48 8b 8d e8 00
	00 00		 mov	 rcx, QWORD PTR work_v_buf$11[rbp]
  00326	e8 00 00 00 00	 call	 _COPY_MEMORY_UNIT
$LN13@PMC_Greate:

; 463  : 
; 464  :                     __UNIT_TYPE w_buf_count;
; 465  :                     GreatestCommonDivisor_Imp(work_u_buf, work_v_buf, _DIVIDE_CEILING_UNIT(work_bit_count, __UNIT_TYPE_BIT_COUNT), w->BLOCK, &w_buf_count);

  0032b	48 8b 85 08 01
	00 00		 mov	 rax, QWORD PTR w$12[rbp]
  00332	48 8b 40 40	 mov	 rax, QWORD PTR [rax+64]
  00336	48 89 85 c8 03
	00 00		 mov	 QWORD PTR tv196[rbp], rax
  0033d	ba 40 00 00 00	 mov	 edx, 64			; 00000040H
  00342	48 8b 8d 88 00
	00 00		 mov	 rcx, QWORD PTR work_bit_count$8[rbp]
  00349	e8 00 00 00 00	 call	 _DIVIDE_CEILING_UNIT
  0034e	48 89 85 d0 03
	00 00		 mov	 QWORD PTR tv194[rbp], rax
  00355	48 8d 85 88 01
	00 00		 lea	 rax, QWORD PTR w_buf_count$16[rbp]
  0035c	48 89 44 24 20	 mov	 QWORD PTR [rsp+32], rax
  00361	4c 8b 8d c8 03
	00 00		 mov	 r9, QWORD PTR tv196[rbp]
  00368	4c 8b 85 d0 03
	00 00		 mov	 r8, QWORD PTR tv194[rbp]
  0036f	48 8b 95 e8 00
	00 00		 mov	 rdx, QWORD PTR work_v_buf$11[rbp]
  00376	48 8b 8d c8 00
	00 00		 mov	 rcx, QWORD PTR work_u_buf$10[rbp]
  0037d	e8 00 00 00 00	 call	 ?GreatestCommonDivisor_Imp@Internal@Core@Math@Palmtree@@YAXPEA_K0_K00@Z ; Palmtree::Math::Core::Internal::GreatestCommonDivisor_Imp

; 466  :                     root.CheckBlock(work_u_buf);

  00382	48 8b 95 c8 00
	00 00		 mov	 rdx, QWORD PTR work_u_buf$10[rbp]
  00389	48 8d 4d 08	 lea	 rcx, QWORD PTR root$5[rbp]
  0038d	e8 00 00 00 00	 call	 ?CheckBlock@ResourceHolderUINT@Internal@Core@Math@Palmtree@@QEAAXPEA_K@Z ; Palmtree::Math::Core::Internal::ResourceHolderUINT::CheckBlock

; 467  :                     root.CheckBlock(work_v_buf);

  00392	48 8b 95 e8 00
	00 00		 mov	 rdx, QWORD PTR work_v_buf$11[rbp]
  00399	48 8d 4d 08	 lea	 rcx, QWORD PTR root$5[rbp]
  0039d	e8 00 00 00 00	 call	 ?CheckBlock@ResourceHolderUINT@Internal@Core@Math@Palmtree@@QEAAXPEA_K@Z ; Palmtree::Math::Core::Internal::ResourceHolderUINT::CheckBlock

; 468  :                     root.CheckNumber(w);

  003a2	48 8b 95 08 01
	00 00		 mov	 rdx, QWORD PTR w$12[rbp]
  003a9	48 8d 4d 08	 lea	 rcx, QWORD PTR root$5[rbp]
  003ad	e8 00 00 00 00	 call	 ?CheckNumber@ResourceHolderUINT@Internal@Core@Math@Palmtree@@QEAAXPEAU__tag_NUMBER_HEADER@2345@@Z ; Palmtree::Math::Core::Internal::ResourceHolderUINT::CheckNumber

; 469  :                     root.DeallocateBlock(work_v_buf);

  003b2	48 8b 95 e8 00
	00 00		 mov	 rdx, QWORD PTR work_v_buf$11[rbp]
  003b9	48 8d 4d 08	 lea	 rcx, QWORD PTR root$5[rbp]
  003bd	e8 00 00 00 00	 call	 ?DeallocateBlock@ResourceHolderUINT@Internal@Core@Math@Palmtree@@QEAAXPEA_K@Z ; Palmtree::Math::Core::Internal::ResourceHolderUINT::DeallocateBlock

; 470  :                     root.DeallocateBlock(work_u_buf);

  003c2	48 8b 95 c8 00
	00 00		 mov	 rdx, QWORD PTR work_u_buf$10[rbp]
  003c9	48 8d 4d 08	 lea	 rcx, QWORD PTR root$5[rbp]
  003cd	e8 00 00 00 00	 call	 ?DeallocateBlock@ResourceHolderUINT@Internal@Core@Math@Palmtree@@QEAAXPEA_K@Z ; Palmtree::Math::Core::Internal::ResourceHolderUINT::DeallocateBlock

; 471  : 
; 472  :                     LeftShift_Imp(w->BLOCK, w_buf_count, k, w->BLOCK, TRUE);

  003d2	c7 44 24 20 01
	00 00 00	 mov	 DWORD PTR [rsp+32], 1
  003da	48 8b 85 08 01
	00 00		 mov	 rax, QWORD PTR w$12[rbp]
  003e1	4c 8b 48 40	 mov	 r9, QWORD PTR [rax+64]
  003e5	4c 8b 85 68 01
	00 00		 mov	 r8, QWORD PTR k$15[rbp]
  003ec	48 8b 95 88 01
	00 00		 mov	 rdx, QWORD PTR w_buf_count$16[rbp]
  003f3	48 8b 85 08 01
	00 00		 mov	 rax, QWORD PTR w$12[rbp]
  003fa	48 8b 48 40	 mov	 rcx, QWORD PTR [rax+64]
  003fe	e8 00 00 00 00	 call	 ?LeftShift_Imp@Internal@Core@Math@Palmtree@@YAXPEA_K_K10H@Z ; Palmtree::Math::Core::Internal::LeftShift_Imp

; 473  :                     root.CheckNumber(w);

  00403	48 8b 95 08 01
	00 00		 mov	 rdx, QWORD PTR w$12[rbp]
  0040a	48 8d 4d 08	 lea	 rcx, QWORD PTR root$5[rbp]
  0040e	e8 00 00 00 00	 call	 ?CheckNumber@ResourceHolderUINT@Internal@Core@Math@Palmtree@@QEAAXPEAU__tag_NUMBER_HEADER@2345@@Z ; Palmtree::Math::Core::Internal::ResourceHolderUINT::CheckNumber

; 474  :                     CommitNumber(w);

  00413	48 8b 8d 08 01
	00 00		 mov	 rcx, QWORD PTR w$12[rbp]
  0041a	e8 00 00 00 00	 call	 ?CommitNumber@Internal@Core@Math@Palmtree@@YAXPEAU__tag_NUMBER_HEADER@1234@@Z ; Palmtree::Math::Core::Internal::CommitNumber

; 475  :                     root.UnlinkNumber(w);

  0041f	48 8b 95 08 01
	00 00		 mov	 rdx, QWORD PTR w$12[rbp]
  00426	48 8d 4d 08	 lea	 rcx, QWORD PTR root$5[rbp]
  0042a	e8 00 00 00 00	 call	 ?UnlinkNumber@ResourceHolderUINT@Internal@Core@Math@Palmtree@@QEAAXPEAU__tag_NUMBER_HEADER@2345@@Z ; Palmtree::Math::Core::Internal::ResourceHolderUINT::UnlinkNumber

; 476  :                     return (w);

  0042f	48 8b 85 08 01
	00 00		 mov	 rax, QWORD PTR w$12[rbp]
  00436	48 89 85 98 03
	00 00		 mov	 QWORD PTR $T19[rbp], rax
  0043d	48 8d 4d 08	 lea	 rcx, QWORD PTR root$5[rbp]
  00441	e8 00 00 00 00	 call	 ??1ResourceHolderUINT@Internal@Core@Math@Palmtree@@UEAA@XZ ; Palmtree::Math::Core::Internal::ResourceHolderUINT::~ResourceHolderUINT
  00446	48 8b 85 98 03
	00 00		 mov	 rax, QWORD PTR $T19[rbp]
  0044d	eb 0a		 jmp	 SHORT $LN14@PMC_Greate
$LN9@PMC_Greate:

; 477  :                 }
; 478  :             }

  0044f	48 8d 4d 08	 lea	 rcx, QWORD PTR root$5[rbp]
  00453	e8 00 00 00 00	 call	 ??1ResourceHolderUINT@Internal@Core@Math@Palmtree@@UEAA@XZ ; Palmtree::Math::Core::Internal::ResourceHolderUINT::~ResourceHolderUINT
  00458	90		 npad	 1
$LN14@PMC_Greate:

; 479  :         }
; 480  :     }

  00459	48 8b f8	 mov	 rdi, rax
  0045c	48 8d 4d d0	 lea	 rcx, QWORD PTR [rbp-48]
  00460	48 8d 15 00 00
	00 00		 lea	 rdx, OFFSET FLAT:?PMC_GreatestCommonDivisor_X_X_Imp@Internal@Core@Math@Palmtree@@YAPEAU__tag_NUMBER_HEADER@1234@PEAU51234@0@Z$rtcFrameData
  00467	e8 00 00 00 00	 call	 _RTC_CheckStackVars
  0046c	48 8b c7	 mov	 rax, rdi
  0046f	48 8d a5 e8 03
	00 00		 lea	 rsp, QWORD PTR [rbp+1000]
  00476	5f		 pop	 rdi
  00477	5d		 pop	 rbp
  00478	c3		 ret	 0
$LN16@PMC_Greate:
?PMC_GreatestCommonDivisor_X_X_Imp@Internal@Core@Math@Palmtree@@YAPEAU__tag_NUMBER_HEADER@1234@PEAU51234@0@Z ENDP ; Palmtree::Math::Core::Internal::PMC_GreatestCommonDivisor_X_X_Imp
_TEXT	ENDS
;	COMDAT text$x
text$x	SEGMENT
root$5 = 8
u_bit_count$6 = 72
v_bit_count$7 = 104
work_bit_count$8 = 136
w$9 = 168
work_u_buf$10 = 200
work_v_buf$11 = 232
w$12 = 264
u_tzcnt$13 = 296
v_tzcnt$14 = 328
k$15 = 360
w_buf_count$16 = 392
$T17 = 808
$T18 = 888
$T19 = 920
$T20 = 952
tv196 = 968
tv134 = 968
tv194 = 976
tv138 = 976
u$ = 1024
v$ = 1032
?dtor$0@?0??PMC_GreatestCommonDivisor_X_X_Imp@Internal@Core@Math@Palmtree@@YAPEAU__tag_NUMBER_HEADER@1234@PEAU51234@0@Z@4HA PROC ; `Palmtree::Math::Core::Internal::PMC_GreatestCommonDivisor_X_X_Imp'::`1'::dtor$0
  00000	48 89 4c 24 08	 mov	 QWORD PTR [rsp+8], rcx
  00005	48 89 54 24 10	 mov	 QWORD PTR [rsp+16], rdx
  0000a	55		 push	 rbp
  0000b	57		 push	 rdi
  0000c	48 83 ec 28	 sub	 rsp, 40			; 00000028H
  00010	48 8d 6a 30	 lea	 rbp, QWORD PTR [rdx+48]
  00014	48 8d 4d 08	 lea	 rcx, QWORD PTR root$5[rbp]
  00018	e8 00 00 00 00	 call	 ??1ResourceHolderUINT@Internal@Core@Math@Palmtree@@UEAA@XZ ; Palmtree::Math::Core::Internal::ResourceHolderUINT::~ResourceHolderUINT
  0001d	48 83 c4 28	 add	 rsp, 40			; 00000028H
  00021	5f		 pop	 rdi
  00022	5d		 pop	 rbp
  00023	c3		 ret	 0
?dtor$0@?0??PMC_GreatestCommonDivisor_X_X_Imp@Internal@Core@Math@Palmtree@@YAPEAU__tag_NUMBER_HEADER@1234@PEAU51234@0@Z@4HA ENDP ; `Palmtree::Math::Core::Internal::PMC_GreatestCommonDivisor_X_X_Imp'::`1'::dtor$0
text$x	ENDS
; Function compile flags: /Odtp /RTCsu /ZI
;	COMDAT text$x
text$x	SEGMENT
root$5 = 8
u_bit_count$6 = 72
v_bit_count$7 = 104
work_bit_count$8 = 136
w$9 = 168
work_u_buf$10 = 200
work_v_buf$11 = 232
w$12 = 264
u_tzcnt$13 = 296
v_tzcnt$14 = 328
k$15 = 360
w_buf_count$16 = 392
$T17 = 808
$T18 = 888
$T19 = 920
$T20 = 952
tv196 = 968
tv134 = 968
tv194 = 976
tv138 = 976
u$ = 1024
v$ = 1032
?dtor$0@?0??PMC_GreatestCommonDivisor_X_X_Imp@Internal@Core@Math@Palmtree@@YAPEAU__tag_NUMBER_HEADER@1234@PEAU51234@0@Z@4HA PROC ; `Palmtree::Math::Core::Internal::PMC_GreatestCommonDivisor_X_X_Imp'::`1'::dtor$0
  00000	48 89 4c 24 08	 mov	 QWORD PTR [rsp+8], rcx
  00005	48 89 54 24 10	 mov	 QWORD PTR [rsp+16], rdx
  0000a	55		 push	 rbp
  0000b	57		 push	 rdi
  0000c	48 83 ec 28	 sub	 rsp, 40			; 00000028H
  00010	48 8d 6a 30	 lea	 rbp, QWORD PTR [rdx+48]
  00014	48 8d 4d 08	 lea	 rcx, QWORD PTR root$5[rbp]
  00018	e8 00 00 00 00	 call	 ??1ResourceHolderUINT@Internal@Core@Math@Palmtree@@UEAA@XZ ; Palmtree::Math::Core::Internal::ResourceHolderUINT::~ResourceHolderUINT
  0001d	48 83 c4 28	 add	 rsp, 40			; 00000028H
  00021	5f		 pop	 rdi
  00022	5d		 pop	 rbp
  00023	c3		 ret	 0
?dtor$0@?0??PMC_GreatestCommonDivisor_X_X_Imp@Internal@Core@Math@Palmtree@@YAPEAU__tag_NUMBER_HEADER@1234@PEAU51234@0@Z@4HA ENDP ; `Palmtree::Math::Core::Internal::PMC_GreatestCommonDivisor_X_X_Imp'::`1'::dtor$0
text$x	ENDS
; Function compile flags: /Odtp /RTCsu /ZI
; File z:\sources\lunor\repos\rougemeilland\palmtree.math.core.uint\palmtree.math.core.uint\pmc_greatestcommondivisor.cpp
;	COMDAT ?PMC_GreatestCommonDivisor_X_L_Imp@Internal@Core@Math@Palmtree@@YAPEAU__tag_NUMBER_HEADER@1234@PEAU51234@_K@Z
_TEXT	SEGMENT
u_bit_count$10 = 8
v_hi$11 = 36
v_lo$12 = 68
root$13 = 104
w$14 = 168
v_bit_count$15 = 200
work_bit_count$16 = 232
work_u_buf$17 = 264
work_v_buf$18 = 296
w$19 = 328
u_tzcnt$20 = 360
v_tzcnt$21 = 392
k$22 = 424
w_buf_count$23 = 456
root$24 = 488
v_bit_count$25 = 552
work_bit_count$26 = 584
work_u_buf$27 = 616
work_v_buf$28 = 648
w$29 = 680
u_tzcnt$30 = 712
v_tzcnt$31 = 744
k$32 = 776
w_buf_count$33 = 808
root$34 = 840
w$35 = 904
u_bit_count$36 = 936
v_bit_count$37 = 968
work_bit_count$38 = 1000
work_u_buf$39 = 1032
work_v_buf$40 = 1064
w$41 = 1096
u_tzcnt$42 = 1128
v_tzcnt$43 = 1160
k$44 = 1192
w_buf_count$45 = 1224
$T46 = 1832
$T47 = 1912
$T48 = 1944
$T49 = 1976
$T50 = 2008
$T51 = 2040
$T52 = 2072
tv244 = 2084
tv449 = 2088
tv417 = 2088
tv359 = 2088
tv286 = 2088
tv193 = 2088
tv415 = 2096
tv284 = 2096
tv191 = 2096
tv134 = 2096
u$ = 2144
v$ = 2152
?PMC_GreatestCommonDivisor_X_L_Imp@Internal@Core@Math@Palmtree@@YAPEAU__tag_NUMBER_HEADER@1234@PEAU51234@_K@Z PROC ; Palmtree::Math::Core::Internal::PMC_GreatestCommonDivisor_X_L_Imp, COMDAT

; 215  :     {

  00000	48 89 54 24 10	 mov	 QWORD PTR [rsp+16], rdx
  00005	48 89 4c 24 08	 mov	 QWORD PTR [rsp+8], rcx
  0000a	55		 push	 rbp
  0000b	57		 push	 rdi
  0000c	48 81 ec 78 08
	00 00		 sub	 rsp, 2168		; 00000878H
  00013	48 8d 6c 24 30	 lea	 rbp, QWORD PTR [rsp+48]
  00018	48 8b fc	 mov	 rdi, rsp
  0001b	b9 1e 02 00 00	 mov	 ecx, 542		; 0000021eH
  00020	b8 cc cc cc cc	 mov	 eax, -858993460		; ccccccccH
  00025	f3 ab		 rep stosd
  00027	48 8b 8c 24 98
	08 00 00	 mov	 rcx, QWORD PTR [rsp+2200]
  0002f	48 c7 85 18 08
	00 00 fe ff ff
	ff		 mov	 QWORD PTR $T52[rbp], -2
  0003a	48 8d 0d 00 00
	00 00		 lea	 rcx, OFFSET FLAT:__AACDA9A0_pmc_greatestcommondivisor@cpp
  00041	e8 00 00 00 00	 call	 __CheckForDebuggerJustMyCode

; 216  :         if (u->IS_ZERO)

  00046	48 8b 85 60 08
	00 00		 mov	 rax, QWORD PTR u$[rbp]
  0004d	8b 40 08	 mov	 eax, DWORD PTR [rax+8]
  00050	83 e0 01	 and	 eax, 1
  00053	85 c0		 test	 eax, eax
  00055	74 49		 je	 SHORT $LN2@PMC_Greate

; 217  :         {
; 218  :             // u  0 
; 219  : 
; 220  :             if (v == 0)

  00057	48 83 bd 68 08
	00 00 00	 cmp	 QWORD PTR v$[rbp], 0
  0005f	75 29		 jne	 SHORT $LN4@PMC_Greate

; 221  :             {
; 222  :                 // v  0 
; 223  : 
; 224  :                 // u  v  0 GCD 
; 225  :                 throw ArithmeticException(L"20GCD");

  00061	48 8d 15 00 00
	00 00		 lea	 rdx, OFFSET FLAT:??_C@_1DO@NPBJHMD@?$AA?$BF?$AAp?$AAL?$AA2?$AAd?$AAh?$PP?$IC?$AA0?$AAj?$AAn?$AAg?$AAG?$AAC?$AAD?$PP?$JC@
  00068	48 8d 8d 28 07
	00 00		 lea	 rcx, QWORD PTR $T46[rbp]
  0006f	e8 00 00 00 00	 call	 ??0ArithmeticException@Internal@Core@Math@Palmtree@@QEAA@PEB_W@Z ; Palmtree::Math::Core::Internal::ArithmeticException::ArithmeticException
  00074	48 8d 15 00 00
	00 00		 lea	 rdx, OFFSET FLAT:_TI2?AVArithmeticException@Internal@Core@Math@Palmtree@@
  0007b	48 8d 8d 28 07
	00 00		 lea	 rcx, QWORD PTR $T46[rbp]
  00082	e8 00 00 00 00	 call	 _CxxThrowException
  00087	90		 npad	 1

; 226  :             }
; 227  :             else

  00088	eb 11		 jmp	 SHORT $LN5@PMC_Greate
$LN4@PMC_Greate:

; 228  :             {
; 229  :                 // v  0 
; 230  : 
; 231  :                 // GCD  v v 
; 232  :                 return (From_L_Imp(v));

  0008a	48 8b 8d 68 08
	00 00		 mov	 rcx, QWORD PTR v$[rbp]
  00091	e8 00 00 00 00	 call	 ?From_L_Imp@Internal@Core@Math@Palmtree@@YAPEAU__tag_NUMBER_HEADER@1234@_K@Z ; Palmtree::Math::Core::Internal::From_L_Imp
  00096	e9 24 0a 00 00	 jmp	 $LN23@PMC_Greate
$LN5@PMC_Greate:

; 233  :             }
; 234  :         }
; 235  :         else

  0009b	e9 1f 0a 00 00	 jmp	 $LN23@PMC_Greate
$LN2@PMC_Greate:

; 236  :         {
; 237  :             // u  0 
; 238  : 
; 239  :             if (v == 0)

  000a0	48 83 bd 68 08
	00 00 00	 cmp	 QWORD PTR v$[rbp], 0
  000a8	75 16		 jne	 SHORT $LN6@PMC_Greate

; 240  :             {
; 241  :                 // v  0 
; 242  : 
; 243  :                 // GCD  u u 
; 244  :                 return (DuplicateNumber(u));

  000aa	48 8b 8d 60 08
	00 00		 mov	 rcx, QWORD PTR u$[rbp]
  000b1	e8 00 00 00 00	 call	 ?DuplicateNumber@Internal@Core@Math@Palmtree@@YAPEAU__tag_NUMBER_HEADER@1234@PEAU51234@@Z ; Palmtree::Math::Core::Internal::DuplicateNumber
  000b6	e9 04 0a 00 00	 jmp	 $LN23@PMC_Greate

; 245  :             }
; 246  :             else

  000bb	e9 ff 09 00 00	 jmp	 $LN23@PMC_Greate
$LN6@PMC_Greate:

; 247  :             {
; 248  :                 // u  v  0 
; 249  : 
; 250  :                 // u  v  GCD 
; 251  :                 if (__UNIT_TYPE_BIT_COUNT < sizeof(v) * 8)

  000c0	33 c0		 xor	 eax, eax
  000c2	85 c0		 test	 eax, eax
  000c4	0f 84 6c 06 00
	00		 je	 $LN8@PMC_Greate

; 252  :                 {
; 253  :                     // _UINT64_T  1 
; 254  : 
; 255  :                     __UNIT_TYPE u_bit_count = u->UNIT_BIT_COUNT;

  000ca	48 8b 85 60 08
	00 00		 mov	 rax, QWORD PTR u$[rbp]
  000d1	48 8b 40 20	 mov	 rax, QWORD PTR [rax+32]
  000d5	48 89 45 08	 mov	 QWORD PTR u_bit_count$10[rbp], rax

; 256  :                     _UINT32_T v_hi;
; 257  :                     _UINT32_T v_lo = _FROMDWORDTOWORD(v, &v_hi);

  000d9	48 8d 55 24	 lea	 rdx, QWORD PTR v_hi$11[rbp]
  000dd	48 8b 8d 68 08
	00 00		 mov	 rcx, QWORD PTR v$[rbp]
  000e4	e8 00 00 00 00	 call	 _FROMDWORDTOWORD
  000e9	89 45 44	 mov	 DWORD PTR v_lo$12[rbp], eax

; 258  :                     if (v_hi == 0)

  000ec	83 7d 24 00	 cmp	 DWORD PTR v_hi$11[rbp], 0
  000f0	0f 85 4b 03 00
	00		 jne	 $LN10@PMC_Greate

; 259  :                     {
; 260  :                         // v  32bit 
; 261  :                         ResourceHolderUINT root;

  000f6	48 8d 4d 68	 lea	 rcx, QWORD PTR root$13[rbp]
  000fa	e8 00 00 00 00	 call	 ??0ResourceHolderUINT@Internal@Core@Math@Palmtree@@QEAA@XZ ; Palmtree::Math::Core::Internal::ResourceHolderUINT::ResourceHolderUINT
  000ff	90		 npad	 1

; 262  :                         if (u->UNIT_WORD_COUNT <= 1)

  00100	48 8b 85 60 08
	00 00		 mov	 rax, QWORD PTR u$[rbp]
  00107	48 83 78 18 01	 cmp	 QWORD PTR [rax+24], 1
  0010c	0f 87 bf 00 00
	00		 ja	 $LN12@PMC_Greate

; 263  :                         {
; 264  :                             // u  v  1 
; 265  :                             NUMBER_HEADER* w = root.AllocateNumber(__UNIT_TYPE_BIT_COUNT);

  00112	ba 40 00 00 00	 mov	 edx, 64			; 00000040H
  00117	48 8d 4d 68	 lea	 rcx, QWORD PTR root$13[rbp]
  0011b	e8 00 00 00 00	 call	 ?AllocateNumber@ResourceHolderUINT@Internal@Core@Math@Palmtree@@QEAAPEAU__tag_NUMBER_HEADER@2345@_K@Z ; Palmtree::Math::Core::Internal::ResourceHolderUINT::AllocateNumber
  00120	48 89 85 a8 00
	00 00		 mov	 QWORD PTR w$14[rbp], rax

; 266  :                             w->BLOCK[0] = GreatestCommonDivisor_1W_Imp(u->BLOCK[0], v_lo);

  00127	8b 45 44	 mov	 eax, DWORD PTR v_lo$12[rbp]
  0012a	b9 08 00 00 00	 mov	 ecx, 8
  0012f	48 6b c9 00	 imul	 rcx, rcx, 0
  00133	48 8b 95 60 08
	00 00		 mov	 rdx, QWORD PTR u$[rbp]
  0013a	48 8b 52 40	 mov	 rdx, QWORD PTR [rdx+64]
  0013e	48 89 95 28 08
	00 00		 mov	 QWORD PTR tv449[rbp], rdx
  00145	8b d0		 mov	 edx, eax
  00147	48 8b 85 28 08
	00 00		 mov	 rax, QWORD PTR tv449[rbp]
  0014e	48 8b 0c 08	 mov	 rcx, QWORD PTR [rax+rcx]
  00152	e8 00 00 00 00	 call	 ?GreatestCommonDivisor_1W_Imp@Internal@Core@Math@Palmtree@@YA_K_K0@Z ; Palmtree::Math::Core::Internal::GreatestCommonDivisor_1W_Imp
  00157	48 89 85 30 08
	00 00		 mov	 QWORD PTR tv134[rbp], rax
  0015e	b8 08 00 00 00	 mov	 eax, 8
  00163	48 6b c0 00	 imul	 rax, rax, 0
  00167	48 8b 8d a8 00
	00 00		 mov	 rcx, QWORD PTR w$14[rbp]
  0016e	48 8b 49 40	 mov	 rcx, QWORD PTR [rcx+64]
  00172	48 8b 95 30 08
	00 00		 mov	 rdx, QWORD PTR tv134[rbp]
  00179	48 89 14 08	 mov	 QWORD PTR [rax+rcx], rdx

; 267  :                             root.CheckNumber(w);

  0017d	48 8b 95 a8 00
	00 00		 mov	 rdx, QWORD PTR w$14[rbp]
  00184	48 8d 4d 68	 lea	 rcx, QWORD PTR root$13[rbp]
  00188	e8 00 00 00 00	 call	 ?CheckNumber@ResourceHolderUINT@Internal@Core@Math@Palmtree@@QEAAXPEAU__tag_NUMBER_HEADER@2345@@Z ; Palmtree::Math::Core::Internal::ResourceHolderUINT::CheckNumber

; 268  :                             CommitNumber(w);

  0018d	48 8b 8d a8 00
	00 00		 mov	 rcx, QWORD PTR w$14[rbp]
  00194	e8 00 00 00 00	 call	 ?CommitNumber@Internal@Core@Math@Palmtree@@YAXPEAU__tag_NUMBER_HEADER@1234@@Z ; Palmtree::Math::Core::Internal::CommitNumber

; 269  :                             root.UnlinkNumber(w);

  00199	48 8b 95 a8 00
	00 00		 mov	 rdx, QWORD PTR w$14[rbp]
  001a0	48 8d 4d 68	 lea	 rcx, QWORD PTR root$13[rbp]
  001a4	e8 00 00 00 00	 call	 ?UnlinkNumber@ResourceHolderUINT@Internal@Core@Math@Palmtree@@QEAAXPEAU__tag_NUMBER_HEADER@2345@@Z ; Palmtree::Math::Core::Internal::ResourceHolderUINT::UnlinkNumber

; 270  :                             return (w);

  001a9	48 8b 85 a8 00
	00 00		 mov	 rax, QWORD PTR w$14[rbp]
  001b0	48 89 85 78 07
	00 00		 mov	 QWORD PTR $T47[rbp], rax
  001b7	48 8d 4d 68	 lea	 rcx, QWORD PTR root$13[rbp]
  001bb	e8 00 00 00 00	 call	 ??1ResourceHolderUINT@Internal@Core@Math@Palmtree@@UEAA@XZ ; Palmtree::Math::Core::Internal::ResourceHolderUINT::~ResourceHolderUINT
  001c0	48 8b 85 78 07
	00 00		 mov	 rax, QWORD PTR $T47[rbp]
  001c7	e9 f3 08 00 00	 jmp	 $LN23@PMC_Greate

; 271  :                         }
; 272  :                         else

  001cc	e9 62 02 00 00	 jmp	 $LN13@PMC_Greate
$LN12@PMC_Greate:

; 273  :                         {
; 274  :                             // u  v  1 
; 275  :                             __UNIT_TYPE v_bit_count = sizeof(v_lo) * 8 - _LZCNT_ALT_32(v_lo);

  001d1	8b 4d 44	 mov	 ecx, DWORD PTR v_lo$12[rbp]
  001d4	e8 00 00 00 00	 call	 _LZCNT_ALT_32
  001d9	48 98		 cdqe
  001db	b9 20 00 00 00	 mov	 ecx, 32			; 00000020H
  001e0	48 2b c8	 sub	 rcx, rax
  001e3	48 8b c1	 mov	 rax, rcx
  001e6	48 89 85 c8 00
	00 00		 mov	 QWORD PTR v_bit_count$15[rbp], rax

; 276  :                             __UNIT_TYPE work_bit_count = _MAXIMUM_UNIT(u_bit_count, v_bit_count);

  001ed	48 8b 95 c8 00
	00 00		 mov	 rdx, QWORD PTR v_bit_count$15[rbp]
  001f4	48 8b 4d 08	 mov	 rcx, QWORD PTR u_bit_count$10[rbp]
  001f8	e8 00 00 00 00	 call	 _MAXIMUM_UNIT
  001fd	48 89 85 e8 00
	00 00		 mov	 QWORD PTR work_bit_count$16[rbp], rax

; 277  :                             __UNIT_TYPE* work_u_buf = root.AllocateBlock(work_bit_count);

  00204	48 8b 95 e8 00
	00 00		 mov	 rdx, QWORD PTR work_bit_count$16[rbp]
  0020b	48 8d 4d 68	 lea	 rcx, QWORD PTR root$13[rbp]
  0020f	e8 00 00 00 00	 call	 ?AllocateBlock@ResourceHolderUINT@Internal@Core@Math@Palmtree@@QEAAPEA_K_K@Z ; Palmtree::Math::Core::Internal::ResourceHolderUINT::AllocateBlock
  00214	48 89 85 08 01
	00 00		 mov	 QWORD PTR work_u_buf$17[rbp], rax

; 278  :                             __UNIT_TYPE* work_v_buf = root.AllocateBlock(work_bit_count);

  0021b	48 8b 95 e8 00
	00 00		 mov	 rdx, QWORD PTR work_bit_count$16[rbp]
  00222	48 8d 4d 68	 lea	 rcx, QWORD PTR root$13[rbp]
  00226	e8 00 00 00 00	 call	 ?AllocateBlock@ResourceHolderUINT@Internal@Core@Math@Palmtree@@QEAAPEA_K_K@Z ; Palmtree::Math::Core::Internal::ResourceHolderUINT::AllocateBlock
  0022b	48 89 85 28 01
	00 00		 mov	 QWORD PTR work_v_buf$18[rbp], rax

; 279  :                             NUMBER_HEADER* w = root.AllocateNumber(work_bit_count);

  00232	48 8b 95 e8 00
	00 00		 mov	 rdx, QWORD PTR work_bit_count$16[rbp]
  00239	48 8d 4d 68	 lea	 rcx, QWORD PTR root$13[rbp]
  0023d	e8 00 00 00 00	 call	 ?AllocateNumber@ResourceHolderUINT@Internal@Core@Math@Palmtree@@QEAAPEAU__tag_NUMBER_HEADER@2345@_K@Z ; Palmtree::Math::Core::Internal::ResourceHolderUINT::AllocateNumber
  00242	48 89 85 48 01
	00 00		 mov	 QWORD PTR w$19[rbp], rax

; 280  : 
; 281  :                             __UNIT_TYPE u_tzcnt = u->TRAILING_ZERO_BITS_COUNT;

  00249	48 8b 85 60 08
	00 00		 mov	 rax, QWORD PTR u$[rbp]
  00250	48 8b 40 28	 mov	 rax, QWORD PTR [rax+40]
  00254	48 89 85 68 01
	00 00		 mov	 QWORD PTR u_tzcnt$20[rbp], rax

; 282  :                             __UNIT_TYPE v_tzcnt = _TZCNT_ALT_UNIT(v_lo);

  0025b	8b 45 44	 mov	 eax, DWORD PTR v_lo$12[rbp]
  0025e	8b c8		 mov	 ecx, eax
  00260	e8 00 00 00 00	 call	 _TZCNT_ALT_UNIT
  00265	48 98		 cdqe
  00267	48 89 85 88 01
	00 00		 mov	 QWORD PTR v_tzcnt$21[rbp], rax

; 283  :                             __UNIT_TYPE k = _MINIMUM_UNIT(u_tzcnt, v_tzcnt);

  0026e	48 8b 95 88 01
	00 00		 mov	 rdx, QWORD PTR v_tzcnt$21[rbp]
  00275	48 8b 8d 68 01
	00 00		 mov	 rcx, QWORD PTR u_tzcnt$20[rbp]
  0027c	e8 00 00 00 00	 call	 _MINIMUM_UNIT
  00281	48 89 85 a8 01
	00 00		 mov	 QWORD PTR k$22[rbp], rax

; 284  :                             if (u_tzcnt > 0)

  00288	48 83 bd 68 01
	00 00 00	 cmp	 QWORD PTR u_tzcnt$20[rbp], 0
  00290	76 33		 jbe	 SHORT $LN14@PMC_Greate

; 285  :                                 RightShift_Imp(u->BLOCK, u->UNIT_WORD_COUNT, u_tzcnt, work_u_buf, FALSE);

  00292	c7 44 24 20 00
	00 00 00	 mov	 DWORD PTR [rsp+32], 0
  0029a	4c 8b 8d 08 01
	00 00		 mov	 r9, QWORD PTR work_u_buf$17[rbp]
  002a1	4c 8b 85 68 01
	00 00		 mov	 r8, QWORD PTR u_tzcnt$20[rbp]
  002a8	48 8b 85 60 08
	00 00		 mov	 rax, QWORD PTR u$[rbp]
  002af	48 8b 50 18	 mov	 rdx, QWORD PTR [rax+24]
  002b3	48 8b 85 60 08
	00 00		 mov	 rax, QWORD PTR u$[rbp]
  002ba	48 8b 48 40	 mov	 rcx, QWORD PTR [rax+64]
  002be	e8 00 00 00 00	 call	 ?RightShift_Imp@Internal@Core@Math@Palmtree@@YAXPEA_K_K10H@Z ; Palmtree::Math::Core::Internal::RightShift_Imp

; 286  :                             else

  002c3	eb 22		 jmp	 SHORT $LN15@PMC_Greate
$LN14@PMC_Greate:

; 287  :                                 _COPY_MEMORY_UNIT(work_u_buf, u->BLOCK, u->UNIT_WORD_COUNT);

  002c5	48 8b 85 60 08
	00 00		 mov	 rax, QWORD PTR u$[rbp]
  002cc	4c 8b 40 18	 mov	 r8, QWORD PTR [rax+24]
  002d0	48 8b 85 60 08
	00 00		 mov	 rax, QWORD PTR u$[rbp]
  002d7	48 8b 50 40	 mov	 rdx, QWORD PTR [rax+64]
  002db	48 8b 8d 08 01
	00 00		 mov	 rcx, QWORD PTR work_u_buf$17[rbp]
  002e2	e8 00 00 00 00	 call	 _COPY_MEMORY_UNIT
$LN15@PMC_Greate:

; 288  :                             work_v_buf[0] = v_lo >> v_tzcnt;

  002e7	48 8b 85 88 01
	00 00		 mov	 rax, QWORD PTR v_tzcnt$21[rbp]
  002ee	0f b6 c8	 movzx	 ecx, al
  002f1	8b 45 44	 mov	 eax, DWORD PTR v_lo$12[rbp]
  002f4	d3 e8		 shr	 eax, cl
  002f6	8b c0		 mov	 eax, eax
  002f8	b9 08 00 00 00	 mov	 ecx, 8
  002fd	48 6b c9 00	 imul	 rcx, rcx, 0
  00301	48 8b 95 28 01
	00 00		 mov	 rdx, QWORD PTR work_v_buf$18[rbp]
  00308	48 89 04 0a	 mov	 QWORD PTR [rdx+rcx], rax

; 289  : 
; 290  :                             __UNIT_TYPE w_buf_count;
; 291  :                             GreatestCommonDivisor_Imp(work_u_buf, work_v_buf, _DIVIDE_CEILING_UNIT(work_bit_count, __UNIT_TYPE_BIT_COUNT), w->BLOCK, &w_buf_count);

  0030c	48 8b 85 48 01
	00 00		 mov	 rax, QWORD PTR w$19[rbp]
  00313	48 8b 40 40	 mov	 rax, QWORD PTR [rax+64]
  00317	48 89 85 28 08
	00 00		 mov	 QWORD PTR tv193[rbp], rax
  0031e	ba 40 00 00 00	 mov	 edx, 64			; 00000040H
  00323	48 8b 8d e8 00
	00 00		 mov	 rcx, QWORD PTR work_bit_count$16[rbp]
  0032a	e8 00 00 00 00	 call	 _DIVIDE_CEILING_UNIT
  0032f	48 89 85 30 08
	00 00		 mov	 QWORD PTR tv191[rbp], rax
  00336	48 8d 85 c8 01
	00 00		 lea	 rax, QWORD PTR w_buf_count$23[rbp]
  0033d	48 89 44 24 20	 mov	 QWORD PTR [rsp+32], rax
  00342	4c 8b 8d 28 08
	00 00		 mov	 r9, QWORD PTR tv193[rbp]
  00349	4c 8b 85 30 08
	00 00		 mov	 r8, QWORD PTR tv191[rbp]
  00350	48 8b 95 28 01
	00 00		 mov	 rdx, QWORD PTR work_v_buf$18[rbp]
  00357	48 8b 8d 08 01
	00 00		 mov	 rcx, QWORD PTR work_u_buf$17[rbp]
  0035e	e8 00 00 00 00	 call	 ?GreatestCommonDivisor_Imp@Internal@Core@Math@Palmtree@@YAXPEA_K0_K00@Z ; Palmtree::Math::Core::Internal::GreatestCommonDivisor_Imp

; 292  :                             root.CheckBlock(work_u_buf);

  00363	48 8b 95 08 01
	00 00		 mov	 rdx, QWORD PTR work_u_buf$17[rbp]
  0036a	48 8d 4d 68	 lea	 rcx, QWORD PTR root$13[rbp]
  0036e	e8 00 00 00 00	 call	 ?CheckBlock@ResourceHolderUINT@Internal@Core@Math@Palmtree@@QEAAXPEA_K@Z ; Palmtree::Math::Core::Internal::ResourceHolderUINT::CheckBlock

; 293  :                             root.CheckBlock(work_v_buf);

  00373	48 8b 95 28 01
	00 00		 mov	 rdx, QWORD PTR work_v_buf$18[rbp]
  0037a	48 8d 4d 68	 lea	 rcx, QWORD PTR root$13[rbp]
  0037e	e8 00 00 00 00	 call	 ?CheckBlock@ResourceHolderUINT@Internal@Core@Math@Palmtree@@QEAAXPEA_K@Z ; Palmtree::Math::Core::Internal::ResourceHolderUINT::CheckBlock

; 294  :                             root.CheckNumber(w);

  00383	48 8b 95 48 01
	00 00		 mov	 rdx, QWORD PTR w$19[rbp]
  0038a	48 8d 4d 68	 lea	 rcx, QWORD PTR root$13[rbp]
  0038e	e8 00 00 00 00	 call	 ?CheckNumber@ResourceHolderUINT@Internal@Core@Math@Palmtree@@QEAAXPEAU__tag_NUMBER_HEADER@2345@@Z ; Palmtree::Math::Core::Internal::ResourceHolderUINT::CheckNumber

; 295  :                             root.DeallocateBlock(work_v_buf);

  00393	48 8b 95 28 01
	00 00		 mov	 rdx, QWORD PTR work_v_buf$18[rbp]
  0039a	48 8d 4d 68	 lea	 rcx, QWORD PTR root$13[rbp]
  0039e	e8 00 00 00 00	 call	 ?DeallocateBlock@ResourceHolderUINT@Internal@Core@Math@Palmtree@@QEAAXPEA_K@Z ; Palmtree::Math::Core::Internal::ResourceHolderUINT::DeallocateBlock

; 296  :                             root.DeallocateBlock(work_u_buf);

  003a3	48 8b 95 08 01
	00 00		 mov	 rdx, QWORD PTR work_u_buf$17[rbp]
  003aa	48 8d 4d 68	 lea	 rcx, QWORD PTR root$13[rbp]
  003ae	e8 00 00 00 00	 call	 ?DeallocateBlock@ResourceHolderUINT@Internal@Core@Math@Palmtree@@QEAAXPEA_K@Z ; Palmtree::Math::Core::Internal::ResourceHolderUINT::DeallocateBlock

; 297  : 
; 298  :                             LeftShift_Imp(w->BLOCK, w_buf_count, k, w->BLOCK, TRUE);

  003b3	c7 44 24 20 01
	00 00 00	 mov	 DWORD PTR [rsp+32], 1
  003bb	48 8b 85 48 01
	00 00		 mov	 rax, QWORD PTR w$19[rbp]
  003c2	4c 8b 48 40	 mov	 r9, QWORD PTR [rax+64]
  003c6	4c 8b 85 a8 01
	00 00		 mov	 r8, QWORD PTR k$22[rbp]
  003cd	48 8b 95 c8 01
	00 00		 mov	 rdx, QWORD PTR w_buf_count$23[rbp]
  003d4	48 8b 85 48 01
	00 00		 mov	 rax, QWORD PTR w$19[rbp]
  003db	48 8b 48 40	 mov	 rcx, QWORD PTR [rax+64]
  003df	e8 00 00 00 00	 call	 ?LeftShift_Imp@Internal@Core@Math@Palmtree@@YAXPEA_K_K10H@Z ; Palmtree::Math::Core::Internal::LeftShift_Imp

; 299  :                             root.CheckNumber(w);

  003e4	48 8b 95 48 01
	00 00		 mov	 rdx, QWORD PTR w$19[rbp]
  003eb	48 8d 4d 68	 lea	 rcx, QWORD PTR root$13[rbp]
  003ef	e8 00 00 00 00	 call	 ?CheckNumber@ResourceHolderUINT@Internal@Core@Math@Palmtree@@QEAAXPEAU__tag_NUMBER_HEADER@2345@@Z ; Palmtree::Math::Core::Internal::ResourceHolderUINT::CheckNumber

; 300  :                             CommitNumber(w);

  003f4	48 8b 8d 48 01
	00 00		 mov	 rcx, QWORD PTR w$19[rbp]
  003fb	e8 00 00 00 00	 call	 ?CommitNumber@Internal@Core@Math@Palmtree@@YAXPEAU__tag_NUMBER_HEADER@1234@@Z ; Palmtree::Math::Core::Internal::CommitNumber

; 301  :                             root.UnlinkNumber(w);

  00400	48 8b 95 48 01
	00 00		 mov	 rdx, QWORD PTR w$19[rbp]
  00407	48 8d 4d 68	 lea	 rcx, QWORD PTR root$13[rbp]
  0040b	e8 00 00 00 00	 call	 ?UnlinkNumber@ResourceHolderUINT@Internal@Core@Math@Palmtree@@QEAAXPEAU__tag_NUMBER_HEADER@2345@@Z ; Palmtree::Math::Core::Internal::ResourceHolderUINT::UnlinkNumber

; 302  :                             return (w);

  00410	48 8b 85 48 01
	00 00		 mov	 rax, QWORD PTR w$19[rbp]
  00417	48 89 85 98 07
	00 00		 mov	 QWORD PTR $T48[rbp], rax
  0041e	48 8d 4d 68	 lea	 rcx, QWORD PTR root$13[rbp]
  00422	e8 00 00 00 00	 call	 ??1ResourceHolderUINT@Internal@Core@Math@Palmtree@@UEAA@XZ ; Palmtree::Math::Core::Internal::ResourceHolderUINT::~ResourceHolderUINT
  00427	48 8b 85 98 07
	00 00		 mov	 rax, QWORD PTR $T48[rbp]
  0042e	e9 8c 06 00 00	 jmp	 $LN23@PMC_Greate
$LN13@PMC_Greate:

; 303  :                         }
; 304  :                     }

  00433	48 8d 4d 68	 lea	 rcx, QWORD PTR root$13[rbp]
  00437	e8 00 00 00 00	 call	 ??1ResourceHolderUINT@Internal@Core@Math@Palmtree@@UEAA@XZ ; Palmtree::Math::Core::Internal::ResourceHolderUINT::~ResourceHolderUINT

; 305  :                     else

  0043c	e9 f0 02 00 00	 jmp	 $LN11@PMC_Greate
$LN10@PMC_Greate:

; 306  :                     {
; 307  :                         // y  32bit 
; 308  :                         ResourceHolderUINT root;

  00441	48 8d 8d e8 01
	00 00		 lea	 rcx, QWORD PTR root$24[rbp]
  00448	e8 00 00 00 00	 call	 ??0ResourceHolderUINT@Internal@Core@Math@Palmtree@@QEAA@XZ ; Palmtree::Math::Core::Internal::ResourceHolderUINT::ResourceHolderUINT
  0044d	90		 npad	 1

; 309  :                         __UNIT_TYPE v_bit_count = sizeof(v) * 8 - _LZCNT_ALT_32(v_hi);

  0044e	8b 4d 24	 mov	 ecx, DWORD PTR v_hi$11[rbp]
  00451	e8 00 00 00 00	 call	 _LZCNT_ALT_32
  00456	48 98		 cdqe
  00458	b9 40 00 00 00	 mov	 ecx, 64			; 00000040H
  0045d	48 2b c8	 sub	 rcx, rax
  00460	48 8b c1	 mov	 rax, rcx
  00463	48 89 85 28 02
	00 00		 mov	 QWORD PTR v_bit_count$25[rbp], rax

; 310  :                         __UNIT_TYPE work_bit_count = _MAXIMUM_UNIT(u_bit_count, v_bit_count);

  0046a	48 8b 95 28 02
	00 00		 mov	 rdx, QWORD PTR v_bit_count$25[rbp]
  00471	48 8b 4d 08	 mov	 rcx, QWORD PTR u_bit_count$10[rbp]
  00475	e8 00 00 00 00	 call	 _MAXIMUM_UNIT
  0047a	48 89 85 48 02
	00 00		 mov	 QWORD PTR work_bit_count$26[rbp], rax

; 311  :                         __UNIT_TYPE* work_u_buf = root.AllocateBlock(work_bit_count);

  00481	48 8b 95 48 02
	00 00		 mov	 rdx, QWORD PTR work_bit_count$26[rbp]
  00488	48 8d 8d e8 01
	00 00		 lea	 rcx, QWORD PTR root$24[rbp]
  0048f	e8 00 00 00 00	 call	 ?AllocateBlock@ResourceHolderUINT@Internal@Core@Math@Palmtree@@QEAAPEA_K_K@Z ; Palmtree::Math::Core::Internal::ResourceHolderUINT::AllocateBlock
  00494	48 89 85 68 02
	00 00		 mov	 QWORD PTR work_u_buf$27[rbp], rax

; 312  :                         __UNIT_TYPE* work_v_buf = root.AllocateBlock(work_bit_count);

  0049b	48 8b 95 48 02
	00 00		 mov	 rdx, QWORD PTR work_bit_count$26[rbp]
  004a2	48 8d 8d e8 01
	00 00		 lea	 rcx, QWORD PTR root$24[rbp]
  004a9	e8 00 00 00 00	 call	 ?AllocateBlock@ResourceHolderUINT@Internal@Core@Math@Palmtree@@QEAAPEA_K_K@Z ; Palmtree::Math::Core::Internal::ResourceHolderUINT::AllocateBlock
  004ae	48 89 85 88 02
	00 00		 mov	 QWORD PTR work_v_buf$28[rbp], rax

; 313  :                         NUMBER_HEADER* w = root.AllocateNumber(work_bit_count);

  004b5	48 8b 95 48 02
	00 00		 mov	 rdx, QWORD PTR work_bit_count$26[rbp]
  004bc	48 8d 8d e8 01
	00 00		 lea	 rcx, QWORD PTR root$24[rbp]
  004c3	e8 00 00 00 00	 call	 ?AllocateNumber@ResourceHolderUINT@Internal@Core@Math@Palmtree@@QEAAPEAU__tag_NUMBER_HEADER@2345@_K@Z ; Palmtree::Math::Core::Internal::ResourceHolderUINT::AllocateNumber
  004c8	48 89 85 a8 02
	00 00		 mov	 QWORD PTR w$29[rbp], rax

; 314  : 
; 315  :                         __UNIT_TYPE u_tzcnt = u->TRAILING_ZERO_BITS_COUNT;

  004cf	48 8b 85 60 08
	00 00		 mov	 rax, QWORD PTR u$[rbp]
  004d6	48 8b 40 28	 mov	 rax, QWORD PTR [rax+40]
  004da	48 89 85 c8 02
	00 00		 mov	 QWORD PTR u_tzcnt$30[rbp], rax

; 316  :                         __UNIT_TYPE v_tzcnt = v_lo == 0 ? 32 + _TZCNT_ALT_UNIT(v_hi) : _TZCNT_ALT_UNIT(v_lo);

  004e1	83 7d 44 00	 cmp	 DWORD PTR v_lo$12[rbp], 0
  004e5	75 15		 jne	 SHORT $LN24@PMC_Greate
  004e7	8b 45 24	 mov	 eax, DWORD PTR v_hi$11[rbp]
  004ea	8b c8		 mov	 ecx, eax
  004ec	e8 00 00 00 00	 call	 _TZCNT_ALT_UNIT
  004f1	83 c0 20	 add	 eax, 32			; 00000020H
  004f4	89 85 24 08 00
	00		 mov	 DWORD PTR tv244[rbp], eax
  004fa	eb 10		 jmp	 SHORT $LN25@PMC_Greate
$LN24@PMC_Greate:
  004fc	8b 45 44	 mov	 eax, DWORD PTR v_lo$12[rbp]
  004ff	8b c8		 mov	 ecx, eax
  00501	e8 00 00 00 00	 call	 _TZCNT_ALT_UNIT
  00506	89 85 24 08 00
	00		 mov	 DWORD PTR tv244[rbp], eax
$LN25@PMC_Greate:
  0050c	48 63 85 24 08
	00 00		 movsxd	 rax, DWORD PTR tv244[rbp]
  00513	48 89 85 e8 02
	00 00		 mov	 QWORD PTR v_tzcnt$31[rbp], rax

; 317  :                         __UNIT_TYPE k = _MINIMUM_UNIT(u_tzcnt, v_tzcnt);

  0051a	48 8b 95 e8 02
	00 00		 mov	 rdx, QWORD PTR v_tzcnt$31[rbp]
  00521	48 8b 8d c8 02
	00 00		 mov	 rcx, QWORD PTR u_tzcnt$30[rbp]
  00528	e8 00 00 00 00	 call	 _MINIMUM_UNIT
  0052d	48 89 85 08 03
	00 00		 mov	 QWORD PTR k$32[rbp], rax

; 318  :                         if (u_tzcnt > 0)

  00534	48 83 bd c8 02
	00 00 00	 cmp	 QWORD PTR u_tzcnt$30[rbp], 0
  0053c	76 33		 jbe	 SHORT $LN16@PMC_Greate

; 319  :                             RightShift_Imp(u->BLOCK, u->UNIT_WORD_COUNT, u_tzcnt, work_u_buf, FALSE);

  0053e	c7 44 24 20 00
	00 00 00	 mov	 DWORD PTR [rsp+32], 0
  00546	4c 8b 8d 68 02
	00 00		 mov	 r9, QWORD PTR work_u_buf$27[rbp]
  0054d	4c 8b 85 c8 02
	00 00		 mov	 r8, QWORD PTR u_tzcnt$30[rbp]
  00554	48 8b 85 60 08
	00 00		 mov	 rax, QWORD PTR u$[rbp]
  0055b	48 8b 50 18	 mov	 rdx, QWORD PTR [rax+24]
  0055f	48 8b 85 60 08
	00 00		 mov	 rax, QWORD PTR u$[rbp]
  00566	48 8b 48 40	 mov	 rcx, QWORD PTR [rax+64]
  0056a	e8 00 00 00 00	 call	 ?RightShift_Imp@Internal@Core@Math@Palmtree@@YAXPEA_K_K10H@Z ; Palmtree::Math::Core::Internal::RightShift_Imp

; 320  :                         else

  0056f	eb 22		 jmp	 SHORT $LN17@PMC_Greate
$LN16@PMC_Greate:

; 321  :                             _COPY_MEMORY_UNIT(work_u_buf, u->BLOCK, u->UNIT_WORD_COUNT);

  00571	48 8b 85 60 08
	00 00		 mov	 rax, QWORD PTR u$[rbp]
  00578	4c 8b 40 18	 mov	 r8, QWORD PTR [rax+24]
  0057c	48 8b 85 60 08
	00 00		 mov	 rax, QWORD PTR u$[rbp]
  00583	48 8b 50 40	 mov	 rdx, QWORD PTR [rax+64]
  00587	48 8b 8d 68 02
	00 00		 mov	 rcx, QWORD PTR work_u_buf$27[rbp]
  0058e	e8 00 00 00 00	 call	 _COPY_MEMORY_UNIT
$LN17@PMC_Greate:

; 322  :                         work_v_buf[0] = v_lo;

  00593	8b 45 44	 mov	 eax, DWORD PTR v_lo$12[rbp]
  00596	b9 08 00 00 00	 mov	 ecx, 8
  0059b	48 6b c9 00	 imul	 rcx, rcx, 0
  0059f	48 8b 95 88 02
	00 00		 mov	 rdx, QWORD PTR work_v_buf$28[rbp]
  005a6	48 89 04 0a	 mov	 QWORD PTR [rdx+rcx], rax

; 323  :                         work_v_buf[1] = v_hi;

  005aa	8b 45 24	 mov	 eax, DWORD PTR v_hi$11[rbp]
  005ad	b9 08 00 00 00	 mov	 ecx, 8
  005b2	48 6b c9 01	 imul	 rcx, rcx, 1
  005b6	48 8b 95 88 02
	00 00		 mov	 rdx, QWORD PTR work_v_buf$28[rbp]
  005bd	48 89 04 0a	 mov	 QWORD PTR [rdx+rcx], rax

; 324  :                         if (v_tzcnt > 0)

  005c1	48 83 bd e8 02
	00 00 00	 cmp	 QWORD PTR v_tzcnt$31[rbp], 0
  005c9	76 27		 jbe	 SHORT $LN18@PMC_Greate

; 325  :                             RightShift_Imp(work_v_buf, 2, v_tzcnt, work_v_buf, TRUE);

  005cb	c7 44 24 20 01
	00 00 00	 mov	 DWORD PTR [rsp+32], 1
  005d3	4c 8b 8d 88 02
	00 00		 mov	 r9, QWORD PTR work_v_buf$28[rbp]
  005da	4c 8b 85 e8 02
	00 00		 mov	 r8, QWORD PTR v_tzcnt$31[rbp]
  005e1	ba 02 00 00 00	 mov	 edx, 2
  005e6	48 8b 8d 88 02
	00 00		 mov	 rcx, QWORD PTR work_v_buf$28[rbp]
  005ed	e8 00 00 00 00	 call	 ?RightShift_Imp@Internal@Core@Math@Palmtree@@YAXPEA_K_K10H@Z ; Palmtree::Math::Core::Internal::RightShift_Imp
$LN18@PMC_Greate:

; 326  : 
; 327  :                         __UNIT_TYPE w_buf_count;
; 328  :                         GreatestCommonDivisor_Imp(work_u_buf, work_v_buf, _DIVIDE_CEILING_UNIT(work_bit_count, __UNIT_TYPE_BIT_COUNT), w->BLOCK, &w_buf_count);

  005f2	48 8b 85 a8 02
	00 00		 mov	 rax, QWORD PTR w$29[rbp]
  005f9	48 8b 40 40	 mov	 rax, QWORD PTR [rax+64]
  005fd	48 89 85 28 08
	00 00		 mov	 QWORD PTR tv286[rbp], rax
  00604	ba 40 00 00 00	 mov	 edx, 64			; 00000040H
  00609	48 8b 8d 48 02
	00 00		 mov	 rcx, QWORD PTR work_bit_count$26[rbp]
  00610	e8 00 00 00 00	 call	 _DIVIDE_CEILING_UNIT
  00615	48 89 85 30 08
	00 00		 mov	 QWORD PTR tv284[rbp], rax
  0061c	48 8d 85 28 03
	00 00		 lea	 rax, QWORD PTR w_buf_count$33[rbp]
  00623	48 89 44 24 20	 mov	 QWORD PTR [rsp+32], rax
  00628	4c 8b 8d 28 08
	00 00		 mov	 r9, QWORD PTR tv286[rbp]
  0062f	4c 8b 85 30 08
	00 00		 mov	 r8, QWORD PTR tv284[rbp]
  00636	48 8b 95 88 02
	00 00		 mov	 rdx, QWORD PTR work_v_buf$28[rbp]
  0063d	48 8b 8d 68 02
	00 00		 mov	 rcx, QWORD PTR work_u_buf$27[rbp]
  00644	e8 00 00 00 00	 call	 ?GreatestCommonDivisor_Imp@Internal@Core@Math@Palmtree@@YAXPEA_K0_K00@Z ; Palmtree::Math::Core::Internal::GreatestCommonDivisor_Imp

; 329  :                         root.CheckBlock(work_u_buf);

  00649	48 8b 95 68 02
	00 00		 mov	 rdx, QWORD PTR work_u_buf$27[rbp]
  00650	48 8d 8d e8 01
	00 00		 lea	 rcx, QWORD PTR root$24[rbp]
  00657	e8 00 00 00 00	 call	 ?CheckBlock@ResourceHolderUINT@Internal@Core@Math@Palmtree@@QEAAXPEA_K@Z ; Palmtree::Math::Core::Internal::ResourceHolderUINT::CheckBlock

; 330  :                         root.CheckBlock(work_v_buf);

  0065c	48 8b 95 88 02
	00 00		 mov	 rdx, QWORD PTR work_v_buf$28[rbp]
  00663	48 8d 8d e8 01
	00 00		 lea	 rcx, QWORD PTR root$24[rbp]
  0066a	e8 00 00 00 00	 call	 ?CheckBlock@ResourceHolderUINT@Internal@Core@Math@Palmtree@@QEAAXPEA_K@Z ; Palmtree::Math::Core::Internal::ResourceHolderUINT::CheckBlock

; 331  :                         root.CheckNumber(w);

  0066f	48 8b 95 a8 02
	00 00		 mov	 rdx, QWORD PTR w$29[rbp]
  00676	48 8d 8d e8 01
	00 00		 lea	 rcx, QWORD PTR root$24[rbp]
  0067d	e8 00 00 00 00	 call	 ?CheckNumber@ResourceHolderUINT@Internal@Core@Math@Palmtree@@QEAAXPEAU__tag_NUMBER_HEADER@2345@@Z ; Palmtree::Math::Core::Internal::ResourceHolderUINT::CheckNumber

; 332  :                         root.DeallocateBlock(work_v_buf);

  00682	48 8b 95 88 02
	00 00		 mov	 rdx, QWORD PTR work_v_buf$28[rbp]
  00689	48 8d 8d e8 01
	00 00		 lea	 rcx, QWORD PTR root$24[rbp]
  00690	e8 00 00 00 00	 call	 ?DeallocateBlock@ResourceHolderUINT@Internal@Core@Math@Palmtree@@QEAAXPEA_K@Z ; Palmtree::Math::Core::Internal::ResourceHolderUINT::DeallocateBlock

; 333  :                         root.DeallocateBlock(work_u_buf);

  00695	48 8b 95 68 02
	00 00		 mov	 rdx, QWORD PTR work_u_buf$27[rbp]
  0069c	48 8d 8d e8 01
	00 00		 lea	 rcx, QWORD PTR root$24[rbp]
  006a3	e8 00 00 00 00	 call	 ?DeallocateBlock@ResourceHolderUINT@Internal@Core@Math@Palmtree@@QEAAXPEA_K@Z ; Palmtree::Math::Core::Internal::ResourceHolderUINT::DeallocateBlock

; 334  : 
; 335  :                         LeftShift_Imp(w->BLOCK, w_buf_count, k, w->BLOCK, TRUE);

  006a8	c7 44 24 20 01
	00 00 00	 mov	 DWORD PTR [rsp+32], 1
  006b0	48 8b 85 a8 02
	00 00		 mov	 rax, QWORD PTR w$29[rbp]
  006b7	4c 8b 48 40	 mov	 r9, QWORD PTR [rax+64]
  006bb	4c 8b 85 08 03
	00 00		 mov	 r8, QWORD PTR k$32[rbp]
  006c2	48 8b 95 28 03
	00 00		 mov	 rdx, QWORD PTR w_buf_count$33[rbp]
  006c9	48 8b 85 a8 02
	00 00		 mov	 rax, QWORD PTR w$29[rbp]
  006d0	48 8b 48 40	 mov	 rcx, QWORD PTR [rax+64]
  006d4	e8 00 00 00 00	 call	 ?LeftShift_Imp@Internal@Core@Math@Palmtree@@YAXPEA_K_K10H@Z ; Palmtree::Math::Core::Internal::LeftShift_Imp

; 336  :                         root.CheckNumber(w);

  006d9	48 8b 95 a8 02
	00 00		 mov	 rdx, QWORD PTR w$29[rbp]
  006e0	48 8d 8d e8 01
	00 00		 lea	 rcx, QWORD PTR root$24[rbp]
  006e7	e8 00 00 00 00	 call	 ?CheckNumber@ResourceHolderUINT@Internal@Core@Math@Palmtree@@QEAAXPEAU__tag_NUMBER_HEADER@2345@@Z ; Palmtree::Math::Core::Internal::ResourceHolderUINT::CheckNumber

; 337  :                         CommitNumber(w);

  006ec	48 8b 8d a8 02
	00 00		 mov	 rcx, QWORD PTR w$29[rbp]
  006f3	e8 00 00 00 00	 call	 ?CommitNumber@Internal@Core@Math@Palmtree@@YAXPEAU__tag_NUMBER_HEADER@1234@@Z ; Palmtree::Math::Core::Internal::CommitNumber

; 338  :                         root.UnlinkNumber(w);

  006f8	48 8b 95 a8 02
	00 00		 mov	 rdx, QWORD PTR w$29[rbp]
  006ff	48 8d 8d e8 01
	00 00		 lea	 rcx, QWORD PTR root$24[rbp]
  00706	e8 00 00 00 00	 call	 ?UnlinkNumber@ResourceHolderUINT@Internal@Core@Math@Palmtree@@QEAAXPEAU__tag_NUMBER_HEADER@2345@@Z ; Palmtree::Math::Core::Internal::ResourceHolderUINT::UnlinkNumber

; 339  :                         return (w);

  0070b	48 8b 85 a8 02
	00 00		 mov	 rax, QWORD PTR w$29[rbp]
  00712	48 89 85 b8 07
	00 00		 mov	 QWORD PTR $T49[rbp], rax
  00719	48 8d 8d e8 01
	00 00		 lea	 rcx, QWORD PTR root$24[rbp]
  00720	e8 00 00 00 00	 call	 ??1ResourceHolderUINT@Internal@Core@Math@Palmtree@@UEAA@XZ ; Palmtree::Math::Core::Internal::ResourceHolderUINT::~ResourceHolderUINT
  00725	48 8b 85 b8 07
	00 00		 mov	 rax, QWORD PTR $T49[rbp]
  0072c	e9 8e 03 00 00	 jmp	 $LN23@PMC_Greate
$LN11@PMC_Greate:

; 340  :                     }
; 341  :                 }
; 342  :                 else

  00731	e9 89 03 00 00	 jmp	 $LN23@PMC_Greate
$LN8@PMC_Greate:

; 343  :                 {
; 344  :                     // _UINT64_T  1 
; 345  :                     ResourceHolderUINT root;

  00736	48 8d 8d 48 03
	00 00		 lea	 rcx, QWORD PTR root$34[rbp]
  0073d	e8 00 00 00 00	 call	 ??0ResourceHolderUINT@Internal@Core@Math@Palmtree@@QEAA@XZ ; Palmtree::Math::Core::Internal::ResourceHolderUINT::ResourceHolderUINT
  00742	90		 npad	 1

; 346  :                     if (u->UNIT_WORD_COUNT <= 1)

  00743	48 8b 85 60 08
	00 00		 mov	 rax, QWORD PTR u$[rbp]
  0074a	48 83 78 18 01	 cmp	 QWORD PTR [rax+24], 1
  0074f	0f 87 bf 00 00
	00		 ja	 $LN19@PMC_Greate

; 347  :                     {
; 348  :                         // u  v  1 
; 349  :                         NUMBER_HEADER* w = root.AllocateNumber(__UNIT_TYPE_BIT_COUNT);

  00755	ba 40 00 00 00	 mov	 edx, 64			; 00000040H
  0075a	48 8d 8d 48 03
	00 00		 lea	 rcx, QWORD PTR root$34[rbp]
  00761	e8 00 00 00 00	 call	 ?AllocateNumber@ResourceHolderUINT@Internal@Core@Math@Palmtree@@QEAAPEAU__tag_NUMBER_HEADER@2345@_K@Z ; Palmtree::Math::Core::Internal::ResourceHolderUINT::AllocateNumber
  00766	48 89 85 88 03
	00 00		 mov	 QWORD PTR w$35[rbp], rax

; 350  :                         w->BLOCK[0] = GreatestCommonDivisor_1W_Imp(u->BLOCK[0], (__UNIT_TYPE)v);

  0076d	b8 08 00 00 00	 mov	 eax, 8
  00772	48 6b c0 00	 imul	 rax, rax, 0
  00776	48 8b 8d 60 08
	00 00		 mov	 rcx, QWORD PTR u$[rbp]
  0077d	48 8b 49 40	 mov	 rcx, QWORD PTR [rcx+64]
  00781	48 8b 95 68 08
	00 00		 mov	 rdx, QWORD PTR v$[rbp]
  00788	48 8b 0c 01	 mov	 rcx, QWORD PTR [rcx+rax]
  0078c	e8 00 00 00 00	 call	 ?GreatestCommonDivisor_1W_Imp@Internal@Core@Math@Palmtree@@YA_K_K0@Z ; Palmtree::Math::Core::Internal::GreatestCommonDivisor_1W_Imp
  00791	48 89 85 28 08
	00 00		 mov	 QWORD PTR tv359[rbp], rax
  00798	b8 08 00 00 00	 mov	 eax, 8
  0079d	48 6b c0 00	 imul	 rax, rax, 0
  007a1	48 8b 8d 88 03
	00 00		 mov	 rcx, QWORD PTR w$35[rbp]
  007a8	48 8b 49 40	 mov	 rcx, QWORD PTR [rcx+64]
  007ac	48 8b 95 28 08
	00 00		 mov	 rdx, QWORD PTR tv359[rbp]
  007b3	48 89 14 08	 mov	 QWORD PTR [rax+rcx], rdx

; 351  :                         root.CheckNumber(w);

  007b7	48 8b 95 88 03
	00 00		 mov	 rdx, QWORD PTR w$35[rbp]
  007be	48 8d 8d 48 03
	00 00		 lea	 rcx, QWORD PTR root$34[rbp]
  007c5	e8 00 00 00 00	 call	 ?CheckNumber@ResourceHolderUINT@Internal@Core@Math@Palmtree@@QEAAXPEAU__tag_NUMBER_HEADER@2345@@Z ; Palmtree::Math::Core::Internal::ResourceHolderUINT::CheckNumber

; 352  :                         CommitNumber(w);

  007ca	48 8b 8d 88 03
	00 00		 mov	 rcx, QWORD PTR w$35[rbp]
  007d1	e8 00 00 00 00	 call	 ?CommitNumber@Internal@Core@Math@Palmtree@@YAXPEAU__tag_NUMBER_HEADER@1234@@Z ; Palmtree::Math::Core::Internal::CommitNumber

; 353  :                         root.UnlinkNumber(w);

  007d6	48 8b 95 88 03
	00 00		 mov	 rdx, QWORD PTR w$35[rbp]
  007dd	48 8d 8d 48 03
	00 00		 lea	 rcx, QWORD PTR root$34[rbp]
  007e4	e8 00 00 00 00	 call	 ?UnlinkNumber@ResourceHolderUINT@Internal@Core@Math@Palmtree@@QEAAXPEAU__tag_NUMBER_HEADER@2345@@Z ; Palmtree::Math::Core::Internal::ResourceHolderUINT::UnlinkNumber

; 354  :                         return (w);

  007e9	48 8b 85 88 03
	00 00		 mov	 rax, QWORD PTR w$35[rbp]
  007f0	48 89 85 d8 07
	00 00		 mov	 QWORD PTR $T50[rbp], rax
  007f7	48 8d 8d 48 03
	00 00		 lea	 rcx, QWORD PTR root$34[rbp]
  007fe	e8 00 00 00 00	 call	 ??1ResourceHolderUINT@Internal@Core@Math@Palmtree@@UEAA@XZ ; Palmtree::Math::Core::Internal::ResourceHolderUINT::~ResourceHolderUINT
  00803	48 8b 85 d8 07
	00 00		 mov	 rax, QWORD PTR $T50[rbp]
  0080a	e9 b0 02 00 00	 jmp	 $LN23@PMC_Greate

; 355  :                     }
; 356  :                     else

  0080f	e9 9e 02 00 00	 jmp	 $LN20@PMC_Greate
$LN19@PMC_Greate:

; 357  :                     {
; 358  :                         // u  v  1 
; 359  :                         __UNIT_TYPE u_bit_count = u->UNIT_BIT_COUNT;

  00814	48 8b 85 60 08
	00 00		 mov	 rax, QWORD PTR u$[rbp]
  0081b	48 8b 40 20	 mov	 rax, QWORD PTR [rax+32]
  0081f	48 89 85 a8 03
	00 00		 mov	 QWORD PTR u_bit_count$36[rbp], rax

; 360  :                         __UNIT_TYPE v_bit_count = sizeof(v) * 8 - _LZCNT_ALT_UNIT((__UNIT_TYPE)v);

  00826	48 8b 8d 68 08
	00 00		 mov	 rcx, QWORD PTR v$[rbp]
  0082d	e8 00 00 00 00	 call	 _LZCNT_ALT_UNIT
  00832	48 98		 cdqe
  00834	b9 40 00 00 00	 mov	 ecx, 64			; 00000040H
  00839	48 2b c8	 sub	 rcx, rax
  0083c	48 8b c1	 mov	 rax, rcx
  0083f	48 89 85 c8 03
	00 00		 mov	 QWORD PTR v_bit_count$37[rbp], rax

; 361  :                         __UNIT_TYPE work_bit_count = _MAXIMUM_UNIT(u_bit_count, v_bit_count);

  00846	48 8b 95 c8 03
	00 00		 mov	 rdx, QWORD PTR v_bit_count$37[rbp]
  0084d	48 8b 8d a8 03
	00 00		 mov	 rcx, QWORD PTR u_bit_count$36[rbp]
  00854	e8 00 00 00 00	 call	 _MAXIMUM_UNIT
  00859	48 89 85 e8 03
	00 00		 mov	 QWORD PTR work_bit_count$38[rbp], rax

; 362  : 
; 363  :                         __UNIT_TYPE* work_u_buf = root.AllocateBlock(work_bit_count);

  00860	48 8b 95 e8 03
	00 00		 mov	 rdx, QWORD PTR work_bit_count$38[rbp]
  00867	48 8d 8d 48 03
	00 00		 lea	 rcx, QWORD PTR root$34[rbp]
  0086e	e8 00 00 00 00	 call	 ?AllocateBlock@ResourceHolderUINT@Internal@Core@Math@Palmtree@@QEAAPEA_K_K@Z ; Palmtree::Math::Core::Internal::ResourceHolderUINT::AllocateBlock
  00873	48 89 85 08 04
	00 00		 mov	 QWORD PTR work_u_buf$39[rbp], rax

; 364  :                         __UNIT_TYPE* work_v_buf = root.AllocateBlock(work_bit_count);

  0087a	48 8b 95 e8 03
	00 00		 mov	 rdx, QWORD PTR work_bit_count$38[rbp]
  00881	48 8d 8d 48 03
	00 00		 lea	 rcx, QWORD PTR root$34[rbp]
  00888	e8 00 00 00 00	 call	 ?AllocateBlock@ResourceHolderUINT@Internal@Core@Math@Palmtree@@QEAAPEA_K_K@Z ; Palmtree::Math::Core::Internal::ResourceHolderUINT::AllocateBlock
  0088d	48 89 85 28 04
	00 00		 mov	 QWORD PTR work_v_buf$40[rbp], rax

; 365  :                         NUMBER_HEADER* w = root.AllocateNumber(work_bit_count);

  00894	48 8b 95 e8 03
	00 00		 mov	 rdx, QWORD PTR work_bit_count$38[rbp]
  0089b	48 8d 8d 48 03
	00 00		 lea	 rcx, QWORD PTR root$34[rbp]
  008a2	e8 00 00 00 00	 call	 ?AllocateNumber@ResourceHolderUINT@Internal@Core@Math@Palmtree@@QEAAPEAU__tag_NUMBER_HEADER@2345@_K@Z ; Palmtree::Math::Core::Internal::ResourceHolderUINT::AllocateNumber
  008a7	48 89 85 48 04
	00 00		 mov	 QWORD PTR w$41[rbp], rax

; 366  :                         __UNIT_TYPE u_tzcnt = u->TRAILING_ZERO_BITS_COUNT;

  008ae	48 8b 85 60 08
	00 00		 mov	 rax, QWORD PTR u$[rbp]
  008b5	48 8b 40 28	 mov	 rax, QWORD PTR [rax+40]
  008b9	48 89 85 68 04
	00 00		 mov	 QWORD PTR u_tzcnt$42[rbp], rax

; 367  :                         __UNIT_TYPE v_tzcnt = _TZCNT_ALT_UNIT((__UNIT_TYPE)v);

  008c0	48 8b 8d 68 08
	00 00		 mov	 rcx, QWORD PTR v$[rbp]
  008c7	e8 00 00 00 00	 call	 _TZCNT_ALT_UNIT
  008cc	48 98		 cdqe
  008ce	48 89 85 88 04
	00 00		 mov	 QWORD PTR v_tzcnt$43[rbp], rax

; 368  :                         __UNIT_TYPE k = _MINIMUM_UNIT(u_tzcnt, v_tzcnt);

  008d5	48 8b 95 88 04
	00 00		 mov	 rdx, QWORD PTR v_tzcnt$43[rbp]
  008dc	48 8b 8d 68 04
	00 00		 mov	 rcx, QWORD PTR u_tzcnt$42[rbp]
  008e3	e8 00 00 00 00	 call	 _MINIMUM_UNIT
  008e8	48 89 85 a8 04
	00 00		 mov	 QWORD PTR k$44[rbp], rax

; 369  :                         if (u_tzcnt > 0)

  008ef	48 83 bd 68 04
	00 00 00	 cmp	 QWORD PTR u_tzcnt$42[rbp], 0
  008f7	76 33		 jbe	 SHORT $LN21@PMC_Greate

; 370  :                             RightShift_Imp(u->BLOCK, u->UNIT_WORD_COUNT, u_tzcnt, work_u_buf, FALSE);

  008f9	c7 44 24 20 00
	00 00 00	 mov	 DWORD PTR [rsp+32], 0
  00901	4c 8b 8d 08 04
	00 00		 mov	 r9, QWORD PTR work_u_buf$39[rbp]
  00908	4c 8b 85 68 04
	00 00		 mov	 r8, QWORD PTR u_tzcnt$42[rbp]
  0090f	48 8b 85 60 08
	00 00		 mov	 rax, QWORD PTR u$[rbp]
  00916	48 8b 50 18	 mov	 rdx, QWORD PTR [rax+24]
  0091a	48 8b 85 60 08
	00 00		 mov	 rax, QWORD PTR u$[rbp]
  00921	48 8b 48 40	 mov	 rcx, QWORD PTR [rax+64]
  00925	e8 00 00 00 00	 call	 ?RightShift_Imp@Internal@Core@Math@Palmtree@@YAXPEA_K_K10H@Z ; Palmtree::Math::Core::Internal::RightShift_Imp

; 371  :                         else

  0092a	eb 22		 jmp	 SHORT $LN22@PMC_Greate
$LN21@PMC_Greate:

; 372  :                             _COPY_MEMORY_UNIT(work_u_buf, u->BLOCK, u->UNIT_WORD_COUNT);

  0092c	48 8b 85 60 08
	00 00		 mov	 rax, QWORD PTR u$[rbp]
  00933	4c 8b 40 18	 mov	 r8, QWORD PTR [rax+24]
  00937	48 8b 85 60 08
	00 00		 mov	 rax, QWORD PTR u$[rbp]
  0093e	48 8b 50 40	 mov	 rdx, QWORD PTR [rax+64]
  00942	48 8b 8d 08 04
	00 00		 mov	 rcx, QWORD PTR work_u_buf$39[rbp]
  00949	e8 00 00 00 00	 call	 _COPY_MEMORY_UNIT
$LN22@PMC_Greate:

; 373  :                         work_v_buf[0] = (__UNIT_TYPE)(v >> v_tzcnt);

  0094e	48 8b 85 88 04
	00 00		 mov	 rax, QWORD PTR v_tzcnt$43[rbp]
  00955	0f b6 c8	 movzx	 ecx, al
  00958	48 8b 85 68 08
	00 00		 mov	 rax, QWORD PTR v$[rbp]
  0095f	48 d3 e8	 shr	 rax, cl
  00962	b9 08 00 00 00	 mov	 ecx, 8
  00967	48 6b c9 00	 imul	 rcx, rcx, 0
  0096b	48 8b 95 28 04
	00 00		 mov	 rdx, QWORD PTR work_v_buf$40[rbp]
  00972	48 89 04 0a	 mov	 QWORD PTR [rdx+rcx], rax

; 374  : 
; 375  :                         __UNIT_TYPE w_buf_count;
; 376  :                         GreatestCommonDivisor_Imp(work_u_buf, work_v_buf, _DIVIDE_CEILING_UNIT(work_bit_count, __UNIT_TYPE_BIT_COUNT), w->BLOCK, &w_buf_count);

  00976	48 8b 85 48 04
	00 00		 mov	 rax, QWORD PTR w$41[rbp]
  0097d	48 8b 40 40	 mov	 rax, QWORD PTR [rax+64]
  00981	48 89 85 28 08
	00 00		 mov	 QWORD PTR tv417[rbp], rax
  00988	ba 40 00 00 00	 mov	 edx, 64			; 00000040H
  0098d	48 8b 8d e8 03
	00 00		 mov	 rcx, QWORD PTR work_bit_count$38[rbp]
  00994	e8 00 00 00 00	 call	 _DIVIDE_CEILING_UNIT
  00999	48 89 85 30 08
	00 00		 mov	 QWORD PTR tv415[rbp], rax
  009a0	48 8d 85 c8 04
	00 00		 lea	 rax, QWORD PTR w_buf_count$45[rbp]
  009a7	48 89 44 24 20	 mov	 QWORD PTR [rsp+32], rax
  009ac	4c 8b 8d 28 08
	00 00		 mov	 r9, QWORD PTR tv417[rbp]
  009b3	4c 8b 85 30 08
	00 00		 mov	 r8, QWORD PTR tv415[rbp]
  009ba	48 8b 95 28 04
	00 00		 mov	 rdx, QWORD PTR work_v_buf$40[rbp]
  009c1	48 8b 8d 08 04
	00 00		 mov	 rcx, QWORD PTR work_u_buf$39[rbp]
  009c8	e8 00 00 00 00	 call	 ?GreatestCommonDivisor_Imp@Internal@Core@Math@Palmtree@@YAXPEA_K0_K00@Z ; Palmtree::Math::Core::Internal::GreatestCommonDivisor_Imp

; 377  :                         root.CheckBlock(work_u_buf);

  009cd	48 8b 95 08 04
	00 00		 mov	 rdx, QWORD PTR work_u_buf$39[rbp]
  009d4	48 8d 8d 48 03
	00 00		 lea	 rcx, QWORD PTR root$34[rbp]
  009db	e8 00 00 00 00	 call	 ?CheckBlock@ResourceHolderUINT@Internal@Core@Math@Palmtree@@QEAAXPEA_K@Z ; Palmtree::Math::Core::Internal::ResourceHolderUINT::CheckBlock

; 378  :                         root.CheckBlock(work_v_buf);

  009e0	48 8b 95 28 04
	00 00		 mov	 rdx, QWORD PTR work_v_buf$40[rbp]
  009e7	48 8d 8d 48 03
	00 00		 lea	 rcx, QWORD PTR root$34[rbp]
  009ee	e8 00 00 00 00	 call	 ?CheckBlock@ResourceHolderUINT@Internal@Core@Math@Palmtree@@QEAAXPEA_K@Z ; Palmtree::Math::Core::Internal::ResourceHolderUINT::CheckBlock

; 379  :                         root.CheckNumber(w);

  009f3	48 8b 95 48 04
	00 00		 mov	 rdx, QWORD PTR w$41[rbp]
  009fa	48 8d 8d 48 03
	00 00		 lea	 rcx, QWORD PTR root$34[rbp]
  00a01	e8 00 00 00 00	 call	 ?CheckNumber@ResourceHolderUINT@Internal@Core@Math@Palmtree@@QEAAXPEAU__tag_NUMBER_HEADER@2345@@Z ; Palmtree::Math::Core::Internal::ResourceHolderUINT::CheckNumber

; 380  :                         root.DeallocateBlock(work_v_buf);

  00a06	48 8b 95 28 04
	00 00		 mov	 rdx, QWORD PTR work_v_buf$40[rbp]
  00a0d	48 8d 8d 48 03
	00 00		 lea	 rcx, QWORD PTR root$34[rbp]
  00a14	e8 00 00 00 00	 call	 ?DeallocateBlock@ResourceHolderUINT@Internal@Core@Math@Palmtree@@QEAAXPEA_K@Z ; Palmtree::Math::Core::Internal::ResourceHolderUINT::DeallocateBlock

; 381  :                         root.DeallocateBlock(work_u_buf);

  00a19	48 8b 95 08 04
	00 00		 mov	 rdx, QWORD PTR work_u_buf$39[rbp]
  00a20	48 8d 8d 48 03
	00 00		 lea	 rcx, QWORD PTR root$34[rbp]
  00a27	e8 00 00 00 00	 call	 ?DeallocateBlock@ResourceHolderUINT@Internal@Core@Math@Palmtree@@QEAAXPEA_K@Z ; Palmtree::Math::Core::Internal::ResourceHolderUINT::DeallocateBlock

; 382  : 
; 383  :                         LeftShift_Imp(w->BLOCK, w_buf_count, k, w->BLOCK, TRUE);

  00a2c	c7 44 24 20 01
	00 00 00	 mov	 DWORD PTR [rsp+32], 1
  00a34	48 8b 85 48 04
	00 00		 mov	 rax, QWORD PTR w$41[rbp]
  00a3b	4c 8b 48 40	 mov	 r9, QWORD PTR [rax+64]
  00a3f	4c 8b 85 a8 04
	00 00		 mov	 r8, QWORD PTR k$44[rbp]
  00a46	48 8b 95 c8 04
	00 00		 mov	 rdx, QWORD PTR w_buf_count$45[rbp]
  00a4d	48 8b 85 48 04
	00 00		 mov	 rax, QWORD PTR w$41[rbp]
  00a54	48 8b 48 40	 mov	 rcx, QWORD PTR [rax+64]
  00a58	e8 00 00 00 00	 call	 ?LeftShift_Imp@Internal@Core@Math@Palmtree@@YAXPEA_K_K10H@Z ; Palmtree::Math::Core::Internal::LeftShift_Imp

; 384  :                         root.CheckNumber(w);

  00a5d	48 8b 95 48 04
	00 00		 mov	 rdx, QWORD PTR w$41[rbp]
  00a64	48 8d 8d 48 03
	00 00		 lea	 rcx, QWORD PTR root$34[rbp]
  00a6b	e8 00 00 00 00	 call	 ?CheckNumber@ResourceHolderUINT@Internal@Core@Math@Palmtree@@QEAAXPEAU__tag_NUMBER_HEADER@2345@@Z ; Palmtree::Math::Core::Internal::ResourceHolderUINT::CheckNumber

; 385  :                         CommitNumber(w);

  00a70	48 8b 8d 48 04
	00 00		 mov	 rcx, QWORD PTR w$41[rbp]
  00a77	e8 00 00 00 00	 call	 ?CommitNumber@Internal@Core@Math@Palmtree@@YAXPEAU__tag_NUMBER_HEADER@1234@@Z ; Palmtree::Math::Core::Internal::CommitNumber

; 386  :                         root.UnlinkNumber(w);

  00a7c	48 8b 95 48 04
	00 00		 mov	 rdx, QWORD PTR w$41[rbp]
  00a83	48 8d 8d 48 03
	00 00		 lea	 rcx, QWORD PTR root$34[rbp]
  00a8a	e8 00 00 00 00	 call	 ?UnlinkNumber@ResourceHolderUINT@Internal@Core@Math@Palmtree@@QEAAXPEAU__tag_NUMBER_HEADER@2345@@Z ; Palmtree::Math::Core::Internal::ResourceHolderUINT::UnlinkNumber

; 387  :                         return (w);

  00a8f	48 8b 85 48 04
	00 00		 mov	 rax, QWORD PTR w$41[rbp]
  00a96	48 89 85 f8 07
	00 00		 mov	 QWORD PTR $T51[rbp], rax
  00a9d	48 8d 8d 48 03
	00 00		 lea	 rcx, QWORD PTR root$34[rbp]
  00aa4	e8 00 00 00 00	 call	 ??1ResourceHolderUINT@Internal@Core@Math@Palmtree@@UEAA@XZ ; Palmtree::Math::Core::Internal::ResourceHolderUINT::~ResourceHolderUINT
  00aa9	48 8b 85 f8 07
	00 00		 mov	 rax, QWORD PTR $T51[rbp]
  00ab0	eb 0d		 jmp	 SHORT $LN23@PMC_Greate
$LN20@PMC_Greate:

; 388  :                     }
; 389  :                 }

  00ab2	48 8d 8d 48 03
	00 00		 lea	 rcx, QWORD PTR root$34[rbp]
  00ab9	e8 00 00 00 00	 call	 ??1ResourceHolderUINT@Internal@Core@Math@Palmtree@@UEAA@XZ ; Palmtree::Math::Core::Internal::ResourceHolderUINT::~ResourceHolderUINT
  00abe	90		 npad	 1
$LN23@PMC_Greate:

; 390  :             }
; 391  :         }
; 392  :     }

  00abf	48 8b f8	 mov	 rdi, rax
  00ac2	48 8d 4d d0	 lea	 rcx, QWORD PTR [rbp-48]
  00ac6	48 8d 15 00 00
	00 00		 lea	 rdx, OFFSET FLAT:?PMC_GreatestCommonDivisor_X_L_Imp@Internal@Core@Math@Palmtree@@YAPEAU__tag_NUMBER_HEADER@1234@PEAU51234@_K@Z$rtcFrameData
  00acd	e8 00 00 00 00	 call	 _RTC_CheckStackVars
  00ad2	48 8b c7	 mov	 rax, rdi
  00ad5	48 8d a5 48 08
	00 00		 lea	 rsp, QWORD PTR [rbp+2120]
  00adc	5f		 pop	 rdi
  00add	5d		 pop	 rbp
  00ade	c3		 ret	 0
$LN29@PMC_Greate:
?PMC_GreatestCommonDivisor_X_L_Imp@Internal@Core@Math@Palmtree@@YAPEAU__tag_NUMBER_HEADER@1234@PEAU51234@_K@Z ENDP ; Palmtree::Math::Core::Internal::PMC_GreatestCommonDivisor_X_L_Imp
_TEXT	ENDS
;	COMDAT text$x
text$x	SEGMENT
u_bit_count$10 = 8
v_hi$11 = 36
v_lo$12 = 68
root$13 = 104
w$14 = 168
v_bit_count$15 = 200
work_bit_count$16 = 232
work_u_buf$17 = 264
work_v_buf$18 = 296
w$19 = 328
u_tzcnt$20 = 360
v_tzcnt$21 = 392
k$22 = 424
w_buf_count$23 = 456
root$24 = 488
v_bit_count$25 = 552
work_bit_count$26 = 584
work_u_buf$27 = 616
work_v_buf$28 = 648
w$29 = 680
u_tzcnt$30 = 712
v_tzcnt$31 = 744
k$32 = 776
w_buf_count$33 = 808
root$34 = 840
w$35 = 904
u_bit_count$36 = 936
v_bit_count$37 = 968
work_bit_count$38 = 1000
work_u_buf$39 = 1032
work_v_buf$40 = 1064
w$41 = 1096
u_tzcnt$42 = 1128
v_tzcnt$43 = 1160
k$44 = 1192
w_buf_count$45 = 1224
$T46 = 1832
$T47 = 1912
$T48 = 1944
$T49 = 1976
$T50 = 2008
$T51 = 2040
$T52 = 2072
tv244 = 2084
tv449 = 2088
tv417 = 2088
tv359 = 2088
tv286 = 2088
tv193 = 2088
tv415 = 2096
tv284 = 2096
tv191 = 2096
tv134 = 2096
u$ = 2144
v$ = 2152
?dtor$0@?0??PMC_GreatestCommonDivisor_X_L_Imp@Internal@Core@Math@Palmtree@@YAPEAU__tag_NUMBER_HEADER@1234@PEAU51234@_K@Z@4HA PROC ; `Palmtree::Math::Core::Internal::PMC_GreatestCommonDivisor_X_L_Imp'::`1'::dtor$0
  00000	48 89 4c 24 08	 mov	 QWORD PTR [rsp+8], rcx
  00005	48 89 54 24 10	 mov	 QWORD PTR [rsp+16], rdx
  0000a	55		 push	 rbp
  0000b	57		 push	 rdi
  0000c	48 83 ec 28	 sub	 rsp, 40			; 00000028H
  00010	48 8d 6a 30	 lea	 rbp, QWORD PTR [rdx+48]
  00014	48 8d 4d 68	 lea	 rcx, QWORD PTR root$13[rbp]
  00018	e8 00 00 00 00	 call	 ??1ResourceHolderUINT@Internal@Core@Math@Palmtree@@UEAA@XZ ; Palmtree::Math::Core::Internal::ResourceHolderUINT::~ResourceHolderUINT
  0001d	48 83 c4 28	 add	 rsp, 40			; 00000028H
  00021	5f		 pop	 rdi
  00022	5d		 pop	 rbp
  00023	c3		 ret	 0
?dtor$0@?0??PMC_GreatestCommonDivisor_X_L_Imp@Internal@Core@Math@Palmtree@@YAPEAU__tag_NUMBER_HEADER@1234@PEAU51234@_K@Z@4HA ENDP ; `Palmtree::Math::Core::Internal::PMC_GreatestCommonDivisor_X_L_Imp'::`1'::dtor$0
text$x	ENDS
;	COMDAT text$x
text$x	SEGMENT
u_bit_count$10 = 8
v_hi$11 = 36
v_lo$12 = 68
root$13 = 104
w$14 = 168
v_bit_count$15 = 200
work_bit_count$16 = 232
work_u_buf$17 = 264
work_v_buf$18 = 296
w$19 = 328
u_tzcnt$20 = 360
v_tzcnt$21 = 392
k$22 = 424
w_buf_count$23 = 456
root$24 = 488
v_bit_count$25 = 552
work_bit_count$26 = 584
work_u_buf$27 = 616
work_v_buf$28 = 648
w$29 = 680
u_tzcnt$30 = 712
v_tzcnt$31 = 744
k$32 = 776
w_buf_count$33 = 808
root$34 = 840
w$35 = 904
u_bit_count$36 = 936
v_bit_count$37 = 968
work_bit_count$38 = 1000
work_u_buf$39 = 1032
work_v_buf$40 = 1064
w$41 = 1096
u_tzcnt$42 = 1128
v_tzcnt$43 = 1160
k$44 = 1192
w_buf_count$45 = 1224
$T46 = 1832
$T47 = 1912
$T48 = 1944
$T49 = 1976
$T50 = 2008
$T51 = 2040
$T52 = 2072
tv244 = 2084
tv449 = 2088
tv417 = 2088
tv359 = 2088
tv286 = 2088
tv193 = 2088
tv415 = 2096
tv284 = 2096
tv191 = 2096
tv134 = 2096
u$ = 2144
v$ = 2152
?dtor$1@?0??PMC_GreatestCommonDivisor_X_L_Imp@Internal@Core@Math@Palmtree@@YAPEAU__tag_NUMBER_HEADER@1234@PEAU51234@_K@Z@4HA PROC ; `Palmtree::Math::Core::Internal::PMC_GreatestCommonDivisor_X_L_Imp'::`1'::dtor$1
  00000	48 89 4c 24 08	 mov	 QWORD PTR [rsp+8], rcx
  00005	48 89 54 24 10	 mov	 QWORD PTR [rsp+16], rdx
  0000a	55		 push	 rbp
  0000b	57		 push	 rdi
  0000c	48 83 ec 28	 sub	 rsp, 40			; 00000028H
  00010	48 8d 6a 30	 lea	 rbp, QWORD PTR [rdx+48]
  00014	48 8d 8d e8 01
	00 00		 lea	 rcx, QWORD PTR root$24[rbp]
  0001b	e8 00 00 00 00	 call	 ??1ResourceHolderUINT@Internal@Core@Math@Palmtree@@UEAA@XZ ; Palmtree::Math::Core::Internal::ResourceHolderUINT::~ResourceHolderUINT
  00020	48 83 c4 28	 add	 rsp, 40			; 00000028H
  00024	5f		 pop	 rdi
  00025	5d		 pop	 rbp
  00026	c3		 ret	 0
?dtor$1@?0??PMC_GreatestCommonDivisor_X_L_Imp@Internal@Core@Math@Palmtree@@YAPEAU__tag_NUMBER_HEADER@1234@PEAU51234@_K@Z@4HA ENDP ; `Palmtree::Math::Core::Internal::PMC_GreatestCommonDivisor_X_L_Imp'::`1'::dtor$1
text$x	ENDS
;	COMDAT text$x
text$x	SEGMENT
u_bit_count$10 = 8
v_hi$11 = 36
v_lo$12 = 68
root$13 = 104
w$14 = 168
v_bit_count$15 = 200
work_bit_count$16 = 232
work_u_buf$17 = 264
work_v_buf$18 = 296
w$19 = 328
u_tzcnt$20 = 360
v_tzcnt$21 = 392
k$22 = 424
w_buf_count$23 = 456
root$24 = 488
v_bit_count$25 = 552
work_bit_count$26 = 584
work_u_buf$27 = 616
work_v_buf$28 = 648
w$29 = 680
u_tzcnt$30 = 712
v_tzcnt$31 = 744
k$32 = 776
w_buf_count$33 = 808
root$34 = 840
w$35 = 904
u_bit_count$36 = 936
v_bit_count$37 = 968
work_bit_count$38 = 1000
work_u_buf$39 = 1032
work_v_buf$40 = 1064
w$41 = 1096
u_tzcnt$42 = 1128
v_tzcnt$43 = 1160
k$44 = 1192
w_buf_count$45 = 1224
$T46 = 1832
$T47 = 1912
$T48 = 1944
$T49 = 1976
$T50 = 2008
$T51 = 2040
$T52 = 2072
tv244 = 2084
tv449 = 2088
tv417 = 2088
tv359 = 2088
tv286 = 2088
tv193 = 2088
tv415 = 2096
tv284 = 2096
tv191 = 2096
tv134 = 2096
u$ = 2144
v$ = 2152
?dtor$2@?0??PMC_GreatestCommonDivisor_X_L_Imp@Internal@Core@Math@Palmtree@@YAPEAU__tag_NUMBER_HEADER@1234@PEAU51234@_K@Z@4HA PROC ; `Palmtree::Math::Core::Internal::PMC_GreatestCommonDivisor_X_L_Imp'::`1'::dtor$2
  00000	48 89 4c 24 08	 mov	 QWORD PTR [rsp+8], rcx
  00005	48 89 54 24 10	 mov	 QWORD PTR [rsp+16], rdx
  0000a	55		 push	 rbp
  0000b	57		 push	 rdi
  0000c	48 83 ec 28	 sub	 rsp, 40			; 00000028H
  00010	48 8d 6a 30	 lea	 rbp, QWORD PTR [rdx+48]
  00014	48 8d 8d 48 03
	00 00		 lea	 rcx, QWORD PTR root$34[rbp]
  0001b	e8 00 00 00 00	 call	 ??1ResourceHolderUINT@Internal@Core@Math@Palmtree@@UEAA@XZ ; Palmtree::Math::Core::Internal::ResourceHolderUINT::~ResourceHolderUINT
  00020	48 83 c4 28	 add	 rsp, 40			; 00000028H
  00024	5f		 pop	 rdi
  00025	5d		 pop	 rbp
  00026	c3		 ret	 0
?dtor$2@?0??PMC_GreatestCommonDivisor_X_L_Imp@Internal@Core@Math@Palmtree@@YAPEAU__tag_NUMBER_HEADER@1234@PEAU51234@_K@Z@4HA ENDP ; `Palmtree::Math::Core::Internal::PMC_GreatestCommonDivisor_X_L_Imp'::`1'::dtor$2
text$x	ENDS
; Function compile flags: /Odtp /RTCsu /ZI
;	COMDAT text$x
text$x	SEGMENT
u_bit_count$10 = 8
v_hi$11 = 36
v_lo$12 = 68
root$13 = 104
w$14 = 168
v_bit_count$15 = 200
work_bit_count$16 = 232
work_u_buf$17 = 264
work_v_buf$18 = 296
w$19 = 328
u_tzcnt$20 = 360
v_tzcnt$21 = 392
k$22 = 424
w_buf_count$23 = 456
root$24 = 488
v_bit_count$25 = 552
work_bit_count$26 = 584
work_u_buf$27 = 616
work_v_buf$28 = 648
w$29 = 680
u_tzcnt$30 = 712
v_tzcnt$31 = 744
k$32 = 776
w_buf_count$33 = 808
root$34 = 840
w$35 = 904
u_bit_count$36 = 936
v_bit_count$37 = 968
work_bit_count$38 = 1000
work_u_buf$39 = 1032
work_v_buf$40 = 1064
w$41 = 1096
u_tzcnt$42 = 1128
v_tzcnt$43 = 1160
k$44 = 1192
w_buf_count$45 = 1224
$T46 = 1832
$T47 = 1912
$T48 = 1944
$T49 = 1976
$T50 = 2008
$T51 = 2040
$T52 = 2072
tv244 = 2084
tv449 = 2088
tv417 = 2088
tv359 = 2088
tv286 = 2088
tv193 = 2088
tv415 = 2096
tv284 = 2096
tv191 = 2096
tv134 = 2096
u$ = 2144
v$ = 2152
?dtor$0@?0??PMC_GreatestCommonDivisor_X_L_Imp@Internal@Core@Math@Palmtree@@YAPEAU__tag_NUMBER_HEADER@1234@PEAU51234@_K@Z@4HA PROC ; `Palmtree::Math::Core::Internal::PMC_GreatestCommonDivisor_X_L_Imp'::`1'::dtor$0
  00000	48 89 4c 24 08	 mov	 QWORD PTR [rsp+8], rcx
  00005	48 89 54 24 10	 mov	 QWORD PTR [rsp+16], rdx
  0000a	55		 push	 rbp
  0000b	57		 push	 rdi
  0000c	48 83 ec 28	 sub	 rsp, 40			; 00000028H
  00010	48 8d 6a 30	 lea	 rbp, QWORD PTR [rdx+48]
  00014	48 8d 4d 68	 lea	 rcx, QWORD PTR root$13[rbp]
  00018	e8 00 00 00 00	 call	 ??1ResourceHolderUINT@Internal@Core@Math@Palmtree@@UEAA@XZ ; Palmtree::Math::Core::Internal::ResourceHolderUINT::~ResourceHolderUINT
  0001d	48 83 c4 28	 add	 rsp, 40			; 00000028H
  00021	5f		 pop	 rdi
  00022	5d		 pop	 rbp
  00023	c3		 ret	 0
?dtor$0@?0??PMC_GreatestCommonDivisor_X_L_Imp@Internal@Core@Math@Palmtree@@YAPEAU__tag_NUMBER_HEADER@1234@PEAU51234@_K@Z@4HA ENDP ; `Palmtree::Math::Core::Internal::PMC_GreatestCommonDivisor_X_L_Imp'::`1'::dtor$0
text$x	ENDS
; Function compile flags: /Odtp /RTCsu /ZI
;	COMDAT text$x
text$x	SEGMENT
u_bit_count$10 = 8
v_hi$11 = 36
v_lo$12 = 68
root$13 = 104
w$14 = 168
v_bit_count$15 = 200
work_bit_count$16 = 232
work_u_buf$17 = 264
work_v_buf$18 = 296
w$19 = 328
u_tzcnt$20 = 360
v_tzcnt$21 = 392
k$22 = 424
w_buf_count$23 = 456
root$24 = 488
v_bit_count$25 = 552
work_bit_count$26 = 584
work_u_buf$27 = 616
work_v_buf$28 = 648
w$29 = 680
u_tzcnt$30 = 712
v_tzcnt$31 = 744
k$32 = 776
w_buf_count$33 = 808
root$34 = 840
w$35 = 904
u_bit_count$36 = 936
v_bit_count$37 = 968
work_bit_count$38 = 1000
work_u_buf$39 = 1032
work_v_buf$40 = 1064
w$41 = 1096
u_tzcnt$42 = 1128
v_tzcnt$43 = 1160
k$44 = 1192
w_buf_count$45 = 1224
$T46 = 1832
$T47 = 1912
$T48 = 1944
$T49 = 1976
$T50 = 2008
$T51 = 2040
$T52 = 2072
tv244 = 2084
tv449 = 2088
tv417 = 2088
tv359 = 2088
tv286 = 2088
tv193 = 2088
tv415 = 2096
tv284 = 2096
tv191 = 2096
tv134 = 2096
u$ = 2144
v$ = 2152
?dtor$1@?0??PMC_GreatestCommonDivisor_X_L_Imp@Internal@Core@Math@Palmtree@@YAPEAU__tag_NUMBER_HEADER@1234@PEAU51234@_K@Z@4HA PROC ; `Palmtree::Math::Core::Internal::PMC_GreatestCommonDivisor_X_L_Imp'::`1'::dtor$1
  00000	48 89 4c 24 08	 mov	 QWORD PTR [rsp+8], rcx
  00005	48 89 54 24 10	 mov	 QWORD PTR [rsp+16], rdx
  0000a	55		 push	 rbp
  0000b	57		 push	 rdi
  0000c	48 83 ec 28	 sub	 rsp, 40			; 00000028H
  00010	48 8d 6a 30	 lea	 rbp, QWORD PTR [rdx+48]
  00014	48 8d 8d e8 01
	00 00		 lea	 rcx, QWORD PTR root$24[rbp]
  0001b	e8 00 00 00 00	 call	 ??1ResourceHolderUINT@Internal@Core@Math@Palmtree@@UEAA@XZ ; Palmtree::Math::Core::Internal::ResourceHolderUINT::~ResourceHolderUINT
  00020	48 83 c4 28	 add	 rsp, 40			; 00000028H
  00024	5f		 pop	 rdi
  00025	5d		 pop	 rbp
  00026	c3		 ret	 0
?dtor$1@?0??PMC_GreatestCommonDivisor_X_L_Imp@Internal@Core@Math@Palmtree@@YAPEAU__tag_NUMBER_HEADER@1234@PEAU51234@_K@Z@4HA ENDP ; `Palmtree::Math::Core::Internal::PMC_GreatestCommonDivisor_X_L_Imp'::`1'::dtor$1
text$x	ENDS
; Function compile flags: /Odtp /RTCsu /ZI
;	COMDAT text$x
text$x	SEGMENT
u_bit_count$10 = 8
v_hi$11 = 36
v_lo$12 = 68
root$13 = 104
w$14 = 168
v_bit_count$15 = 200
work_bit_count$16 = 232
work_u_buf$17 = 264
work_v_buf$18 = 296
w$19 = 328
u_tzcnt$20 = 360
v_tzcnt$21 = 392
k$22 = 424
w_buf_count$23 = 456
root$24 = 488
v_bit_count$25 = 552
work_bit_count$26 = 584
work_u_buf$27 = 616
work_v_buf$28 = 648
w$29 = 680
u_tzcnt$30 = 712
v_tzcnt$31 = 744
k$32 = 776
w_buf_count$33 = 808
root$34 = 840
w$35 = 904
u_bit_count$36 = 936
v_bit_count$37 = 968
work_bit_count$38 = 1000
work_u_buf$39 = 1032
work_v_buf$40 = 1064
w$41 = 1096
u_tzcnt$42 = 1128
v_tzcnt$43 = 1160
k$44 = 1192
w_buf_count$45 = 1224
$T46 = 1832
$T47 = 1912
$T48 = 1944
$T49 = 1976
$T50 = 2008
$T51 = 2040
$T52 = 2072
tv244 = 2084
tv449 = 2088
tv417 = 2088
tv359 = 2088
tv286 = 2088
tv193 = 2088
tv415 = 2096
tv284 = 2096
tv191 = 2096
tv134 = 2096
u$ = 2144
v$ = 2152
?dtor$2@?0??PMC_GreatestCommonDivisor_X_L_Imp@Internal@Core@Math@Palmtree@@YAPEAU__tag_NUMBER_HEADER@1234@PEAU51234@_K@Z@4HA PROC ; `Palmtree::Math::Core::Internal::PMC_GreatestCommonDivisor_X_L_Imp'::`1'::dtor$2
  00000	48 89 4c 24 08	 mov	 QWORD PTR [rsp+8], rcx
  00005	48 89 54 24 10	 mov	 QWORD PTR [rsp+16], rdx
  0000a	55		 push	 rbp
  0000b	57		 push	 rdi
  0000c	48 83 ec 28	 sub	 rsp, 40			; 00000028H
  00010	48 8d 6a 30	 lea	 rbp, QWORD PTR [rdx+48]
  00014	48 8d 8d 48 03
	00 00		 lea	 rcx, QWORD PTR root$34[rbp]
  0001b	e8 00 00 00 00	 call	 ??1ResourceHolderUINT@Internal@Core@Math@Palmtree@@UEAA@XZ ; Palmtree::Math::Core::Internal::ResourceHolderUINT::~ResourceHolderUINT
  00020	48 83 c4 28	 add	 rsp, 40			; 00000028H
  00024	5f		 pop	 rdi
  00025	5d		 pop	 rbp
  00026	c3		 ret	 0
?dtor$2@?0??PMC_GreatestCommonDivisor_X_L_Imp@Internal@Core@Math@Palmtree@@YAPEAU__tag_NUMBER_HEADER@1234@PEAU51234@_K@Z@4HA ENDP ; `Palmtree::Math::Core::Internal::PMC_GreatestCommonDivisor_X_L_Imp'::`1'::dtor$2
text$x	ENDS
; Function compile flags: /Odtp /RTCsu /ZI
; File z:\sources\lunor\repos\rougemeilland\palmtree.math.core.uint\palmtree.math.core.uint\pmc_greatestcommondivisor.cpp
;	COMDAT ?PMC_GreatestCommonDivisor_X_I_Imp@Internal@Core@Math@Palmtree@@YAPEAU__tag_NUMBER_HEADER@1234@PEAU51234@I@Z
_TEXT	SEGMENT
root$5 = 8
w$6 = 72
u_bit_count$7 = 104
v_bit_count$8 = 136
work_bit_count$9 = 168
work_u_buf$10 = 200
work_v_buf$11 = 232
w$12 = 264
u_tzcnt$13 = 296
v_tzcnt$14 = 328
k$15 = 360
w_buf_count$16 = 392
$T17 = 808
$T18 = 888
$T19 = 920
$T20 = 952
tv215 = 968
tv188 = 968
tv186 = 976
tv128 = 976
u$ = 1024
v$ = 1032
?PMC_GreatestCommonDivisor_X_I_Imp@Internal@Core@Math@Palmtree@@YAPEAU__tag_NUMBER_HEADER@1234@PEAU51234@I@Z PROC ; Palmtree::Math::Core::Internal::PMC_GreatestCommonDivisor_X_I_Imp, COMDAT

; 133  :     {

  00000	89 54 24 10	 mov	 DWORD PTR [rsp+16], edx
  00004	48 89 4c 24 08	 mov	 QWORD PTR [rsp+8], rcx
  00009	55		 push	 rbp
  0000a	57		 push	 rdi
  0000b	48 81 ec 18 04
	00 00		 sub	 rsp, 1048		; 00000418H
  00012	48 8d 6c 24 30	 lea	 rbp, QWORD PTR [rsp+48]
  00017	48 8b fc	 mov	 rdi, rsp
  0001a	b9 06 01 00 00	 mov	 ecx, 262		; 00000106H
  0001f	b8 cc cc cc cc	 mov	 eax, -858993460		; ccccccccH
  00024	f3 ab		 rep stosd
  00026	48 8b 8c 24 38
	04 00 00	 mov	 rcx, QWORD PTR [rsp+1080]
  0002e	48 c7 85 b8 03
	00 00 fe ff ff
	ff		 mov	 QWORD PTR $T20[rbp], -2
  00039	48 8d 0d 00 00
	00 00		 lea	 rcx, OFFSET FLAT:__AACDA9A0_pmc_greatestcommondivisor@cpp
  00040	e8 00 00 00 00	 call	 __CheckForDebuggerJustMyCode

; 134  :         if (u->IS_ZERO)

  00045	48 8b 85 00 04
	00 00		 mov	 rax, QWORD PTR u$[rbp]
  0004c	8b 40 08	 mov	 eax, DWORD PTR [rax+8]
  0004f	83 e0 01	 and	 eax, 1
  00052	85 c0		 test	 eax, eax
  00054	74 47		 je	 SHORT $LN2@PMC_Greate

; 135  :         {
; 136  :             // u  0 
; 137  : 
; 138  :             if (v == 0)

  00056	83 bd 08 04 00
	00 00		 cmp	 DWORD PTR v$[rbp], 0
  0005d	75 29		 jne	 SHORT $LN4@PMC_Greate

; 139  :             {
; 140  :                 // v  0 
; 141  : 
; 142  :                 // u  v  0 GCD 
; 143  :                 throw ArithmeticException(L"20GCD");

  0005f	48 8d 15 00 00
	00 00		 lea	 rdx, OFFSET FLAT:??_C@_1DO@NPBJHMD@?$AA?$BF?$AAp?$AAL?$AA2?$AAd?$AAh?$PP?$IC?$AA0?$AAj?$AAn?$AAg?$AAG?$AAC?$AAD?$PP?$JC@
  00066	48 8d 8d 28 03
	00 00		 lea	 rcx, QWORD PTR $T17[rbp]
  0006d	e8 00 00 00 00	 call	 ??0ArithmeticException@Internal@Core@Math@Palmtree@@QEAA@PEB_W@Z ; Palmtree::Math::Core::Internal::ArithmeticException::ArithmeticException
  00072	48 8d 15 00 00
	00 00		 lea	 rdx, OFFSET FLAT:_TI2?AVArithmeticException@Internal@Core@Math@Palmtree@@
  00079	48 8d 8d 28 03
	00 00		 lea	 rcx, QWORD PTR $T17[rbp]
  00080	e8 00 00 00 00	 call	 _CxxThrowException
  00085	90		 npad	 1

; 144  :             }
; 145  :             else

  00086	eb 10		 jmp	 SHORT $LN5@PMC_Greate
$LN4@PMC_Greate:

; 146  :             {
; 147  :                 // v  0 
; 148  : 
; 149  :                 // GCD  v v 
; 150  :                 return (From_I_Imp(v));

  00088	8b 8d 08 04 00
	00		 mov	 ecx, DWORD PTR v$[rbp]
  0008e	e8 00 00 00 00	 call	 ?From_I_Imp@Internal@Core@Math@Palmtree@@YAPEAU__tag_NUMBER_HEADER@1234@I@Z ; Palmtree::Math::Core::Internal::From_I_Imp
  00093	e9 71 03 00 00	 jmp	 $LN12@PMC_Greate
$LN5@PMC_Greate:

; 151  :             }
; 152  :         }
; 153  :         else

  00098	e9 6c 03 00 00	 jmp	 $LN12@PMC_Greate
$LN2@PMC_Greate:

; 154  :         {
; 155  :             // u  0 
; 156  : 
; 157  :             if (v == 0)

  0009d	83 bd 08 04 00
	00 00		 cmp	 DWORD PTR v$[rbp], 0
  000a4	75 16		 jne	 SHORT $LN6@PMC_Greate

; 158  :             {
; 159  :                 // v  0 
; 160  : 
; 161  :                 // GCD  u u 
; 162  :                 return (DuplicateNumber(u));

  000a6	48 8b 8d 00 04
	00 00		 mov	 rcx, QWORD PTR u$[rbp]
  000ad	e8 00 00 00 00	 call	 ?DuplicateNumber@Internal@Core@Math@Palmtree@@YAPEAU__tag_NUMBER_HEADER@1234@PEAU51234@@Z ; Palmtree::Math::Core::Internal::DuplicateNumber
  000b2	e9 52 03 00 00	 jmp	 $LN12@PMC_Greate

; 163  :             }
; 164  :             else

  000b7	e9 4d 03 00 00	 jmp	 $LN12@PMC_Greate
$LN6@PMC_Greate:

; 165  :             {
; 166  :                 // u  v  0 
; 167  :                 // u  v  GCD 
; 168  : 
; 169  :                 ResourceHolderUINT root;

  000bc	48 8d 4d 08	 lea	 rcx, QWORD PTR root$5[rbp]
  000c0	e8 00 00 00 00	 call	 ??0ResourceHolderUINT@Internal@Core@Math@Palmtree@@QEAA@XZ ; Palmtree::Math::Core::Internal::ResourceHolderUINT::ResourceHolderUINT
  000c5	90		 npad	 1

; 170  :                 if (u->UNIT_WORD_COUNT <= 1)

  000c6	48 8b 85 00 04
	00 00		 mov	 rax, QWORD PTR u$[rbp]
  000cd	48 83 78 18 01	 cmp	 QWORD PTR [rax+24], 1
  000d2	0f 87 b0 00 00
	00		 ja	 $LN8@PMC_Greate

; 171  :                 {
; 172  :                     // u  v  1 
; 173  :                     NUMBER_HEADER* w = root.AllocateNumber(__UNIT_TYPE_BIT_COUNT);

  000d8	ba 40 00 00 00	 mov	 edx, 64			; 00000040H
  000dd	48 8d 4d 08	 lea	 rcx, QWORD PTR root$5[rbp]
  000e1	e8 00 00 00 00	 call	 ?AllocateNumber@ResourceHolderUINT@Internal@Core@Math@Palmtree@@QEAAPEAU__tag_NUMBER_HEADER@2345@_K@Z ; Palmtree::Math::Core::Internal::ResourceHolderUINT::AllocateNumber
  000e6	48 89 45 48	 mov	 QWORD PTR w$6[rbp], rax

; 174  :                     w->BLOCK[0] = GreatestCommonDivisor_1W_Imp(u->BLOCK[0], v);

  000ea	8b 85 08 04 00
	00		 mov	 eax, DWORD PTR v$[rbp]
  000f0	b9 08 00 00 00	 mov	 ecx, 8
  000f5	48 6b c9 00	 imul	 rcx, rcx, 0
  000f9	48 8b 95 00 04
	00 00		 mov	 rdx, QWORD PTR u$[rbp]
  00100	48 8b 52 40	 mov	 rdx, QWORD PTR [rdx+64]
  00104	48 89 95 c8 03
	00 00		 mov	 QWORD PTR tv215[rbp], rdx
  0010b	8b d0		 mov	 edx, eax
  0010d	48 8b 85 c8 03
	00 00		 mov	 rax, QWORD PTR tv215[rbp]
  00114	48 8b 0c 08	 mov	 rcx, QWORD PTR [rax+rcx]
  00118	e8 00 00 00 00	 call	 ?GreatestCommonDivisor_1W_Imp@Internal@Core@Math@Palmtree@@YA_K_K0@Z ; Palmtree::Math::Core::Internal::GreatestCommonDivisor_1W_Imp
  0011d	48 89 85 d0 03
	00 00		 mov	 QWORD PTR tv128[rbp], rax
  00124	b8 08 00 00 00	 mov	 eax, 8
  00129	48 6b c0 00	 imul	 rax, rax, 0
  0012d	48 8b 4d 48	 mov	 rcx, QWORD PTR w$6[rbp]
  00131	48 8b 49 40	 mov	 rcx, QWORD PTR [rcx+64]
  00135	48 8b 95 d0 03
	00 00		 mov	 rdx, QWORD PTR tv128[rbp]
  0013c	48 89 14 08	 mov	 QWORD PTR [rax+rcx], rdx

; 175  :                     root.CheckNumber(w);

  00140	48 8b 55 48	 mov	 rdx, QWORD PTR w$6[rbp]
  00144	48 8d 4d 08	 lea	 rcx, QWORD PTR root$5[rbp]
  00148	e8 00 00 00 00	 call	 ?CheckNumber@ResourceHolderUINT@Internal@Core@Math@Palmtree@@QEAAXPEAU__tag_NUMBER_HEADER@2345@@Z ; Palmtree::Math::Core::Internal::ResourceHolderUINT::CheckNumber

; 176  :                     CommitNumber(w);

  0014d	48 8b 4d 48	 mov	 rcx, QWORD PTR w$6[rbp]
  00151	e8 00 00 00 00	 call	 ?CommitNumber@Internal@Core@Math@Palmtree@@YAXPEAU__tag_NUMBER_HEADER@1234@@Z ; Palmtree::Math::Core::Internal::CommitNumber

; 177  :                     root.UnlinkNumber(w);

  00156	48 8b 55 48	 mov	 rdx, QWORD PTR w$6[rbp]
  0015a	48 8d 4d 08	 lea	 rcx, QWORD PTR root$5[rbp]
  0015e	e8 00 00 00 00	 call	 ?UnlinkNumber@ResourceHolderUINT@Internal@Core@Math@Palmtree@@QEAAXPEAU__tag_NUMBER_HEADER@2345@@Z ; Palmtree::Math::Core::Internal::ResourceHolderUINT::UnlinkNumber

; 178  :                     return (w);

  00163	48 8b 45 48	 mov	 rax, QWORD PTR w$6[rbp]
  00167	48 89 85 78 03
	00 00		 mov	 QWORD PTR $T18[rbp], rax
  0016e	48 8d 4d 08	 lea	 rcx, QWORD PTR root$5[rbp]
  00172	e8 00 00 00 00	 call	 ??1ResourceHolderUINT@Internal@Core@Math@Palmtree@@UEAA@XZ ; Palmtree::Math::Core::Internal::ResourceHolderUINT::~ResourceHolderUINT
  00177	48 8b 85 78 03
	00 00		 mov	 rax, QWORD PTR $T18[rbp]
  0017e	e9 86 02 00 00	 jmp	 $LN12@PMC_Greate

; 179  :                 }
; 180  :                 else

  00183	e9 77 02 00 00	 jmp	 $LN9@PMC_Greate
$LN8@PMC_Greate:

; 181  :                 {
; 182  :                     // u  v  1 
; 183  :                     __UNIT_TYPE u_bit_count = u->UNIT_BIT_COUNT;

  00188	48 8b 85 00 04
	00 00		 mov	 rax, QWORD PTR u$[rbp]
  0018f	48 8b 40 20	 mov	 rax, QWORD PTR [rax+32]
  00193	48 89 45 68	 mov	 QWORD PTR u_bit_count$7[rbp], rax

; 184  :                     __UNIT_TYPE v_bit_count = sizeof(v) * 8 - _LZCNT_ALT_32(v);

  00197	8b 8d 08 04 00
	00		 mov	 ecx, DWORD PTR v$[rbp]
  0019d	e8 00 00 00 00	 call	 _LZCNT_ALT_32
  001a2	48 98		 cdqe
  001a4	b9 20 00 00 00	 mov	 ecx, 32			; 00000020H
  001a9	48 2b c8	 sub	 rcx, rax
  001ac	48 8b c1	 mov	 rax, rcx
  001af	48 89 85 88 00
	00 00		 mov	 QWORD PTR v_bit_count$8[rbp], rax

; 185  :                     __UNIT_TYPE work_bit_count = _MAXIMUM_UNIT(u_bit_count, v_bit_count);

  001b6	48 8b 95 88 00
	00 00		 mov	 rdx, QWORD PTR v_bit_count$8[rbp]
  001bd	48 8b 4d 68	 mov	 rcx, QWORD PTR u_bit_count$7[rbp]
  001c1	e8 00 00 00 00	 call	 _MAXIMUM_UNIT
  001c6	48 89 85 a8 00
	00 00		 mov	 QWORD PTR work_bit_count$9[rbp], rax

; 186  :                     __UNIT_TYPE* work_u_buf = root.AllocateBlock(work_bit_count);

  001cd	48 8b 95 a8 00
	00 00		 mov	 rdx, QWORD PTR work_bit_count$9[rbp]
  001d4	48 8d 4d 08	 lea	 rcx, QWORD PTR root$5[rbp]
  001d8	e8 00 00 00 00	 call	 ?AllocateBlock@ResourceHolderUINT@Internal@Core@Math@Palmtree@@QEAAPEA_K_K@Z ; Palmtree::Math::Core::Internal::ResourceHolderUINT::AllocateBlock
  001dd	48 89 85 c8 00
	00 00		 mov	 QWORD PTR work_u_buf$10[rbp], rax

; 187  :                     __UNIT_TYPE* work_v_buf = root.AllocateBlock(work_bit_count);

  001e4	48 8b 95 a8 00
	00 00		 mov	 rdx, QWORD PTR work_bit_count$9[rbp]
  001eb	48 8d 4d 08	 lea	 rcx, QWORD PTR root$5[rbp]
  001ef	e8 00 00 00 00	 call	 ?AllocateBlock@ResourceHolderUINT@Internal@Core@Math@Palmtree@@QEAAPEA_K_K@Z ; Palmtree::Math::Core::Internal::ResourceHolderUINT::AllocateBlock
  001f4	48 89 85 e8 00
	00 00		 mov	 QWORD PTR work_v_buf$11[rbp], rax

; 188  :                     NUMBER_HEADER* w = root.AllocateNumber(work_bit_count);

  001fb	48 8b 95 a8 00
	00 00		 mov	 rdx, QWORD PTR work_bit_count$9[rbp]
  00202	48 8d 4d 08	 lea	 rcx, QWORD PTR root$5[rbp]
  00206	e8 00 00 00 00	 call	 ?AllocateNumber@ResourceHolderUINT@Internal@Core@Math@Palmtree@@QEAAPEAU__tag_NUMBER_HEADER@2345@_K@Z ; Palmtree::Math::Core::Internal::ResourceHolderUINT::AllocateNumber
  0020b	48 89 85 08 01
	00 00		 mov	 QWORD PTR w$12[rbp], rax

; 189  :                     __UNIT_TYPE u_tzcnt = u->TRAILING_ZERO_BITS_COUNT;

  00212	48 8b 85 00 04
	00 00		 mov	 rax, QWORD PTR u$[rbp]
  00219	48 8b 40 28	 mov	 rax, QWORD PTR [rax+40]
  0021d	48 89 85 28 01
	00 00		 mov	 QWORD PTR u_tzcnt$13[rbp], rax

; 190  :                     __UNIT_TYPE v_tzcnt = _TZCNT_ALT_UNIT(v);

  00224	8b 85 08 04 00
	00		 mov	 eax, DWORD PTR v$[rbp]
  0022a	8b c8		 mov	 ecx, eax
  0022c	e8 00 00 00 00	 call	 _TZCNT_ALT_UNIT
  00231	48 98		 cdqe
  00233	48 89 85 48 01
	00 00		 mov	 QWORD PTR v_tzcnt$14[rbp], rax

; 191  :                     __UNIT_TYPE k = _MINIMUM_UNIT(u_tzcnt, v_tzcnt);

  0023a	48 8b 95 48 01
	00 00		 mov	 rdx, QWORD PTR v_tzcnt$14[rbp]
  00241	48 8b 8d 28 01
	00 00		 mov	 rcx, QWORD PTR u_tzcnt$13[rbp]
  00248	e8 00 00 00 00	 call	 _MINIMUM_UNIT
  0024d	48 89 85 68 01
	00 00		 mov	 QWORD PTR k$15[rbp], rax

; 192  :                     if (u_tzcnt > 0)

  00254	48 83 bd 28 01
	00 00 00	 cmp	 QWORD PTR u_tzcnt$13[rbp], 0
  0025c	76 33		 jbe	 SHORT $LN10@PMC_Greate

; 193  :                         RightShift_Imp(u->BLOCK, u->UNIT_WORD_COUNT, u_tzcnt, work_u_buf, FALSE);

  0025e	c7 44 24 20 00
	00 00 00	 mov	 DWORD PTR [rsp+32], 0
  00266	4c 8b 8d c8 00
	00 00		 mov	 r9, QWORD PTR work_u_buf$10[rbp]
  0026d	4c 8b 85 28 01
	00 00		 mov	 r8, QWORD PTR u_tzcnt$13[rbp]
  00274	48 8b 85 00 04
	00 00		 mov	 rax, QWORD PTR u$[rbp]
  0027b	48 8b 50 18	 mov	 rdx, QWORD PTR [rax+24]
  0027f	48 8b 85 00 04
	00 00		 mov	 rax, QWORD PTR u$[rbp]
  00286	48 8b 48 40	 mov	 rcx, QWORD PTR [rax+64]
  0028a	e8 00 00 00 00	 call	 ?RightShift_Imp@Internal@Core@Math@Palmtree@@YAXPEA_K_K10H@Z ; Palmtree::Math::Core::Internal::RightShift_Imp

; 194  :                     else

  0028f	eb 22		 jmp	 SHORT $LN11@PMC_Greate
$LN10@PMC_Greate:

; 195  :                         _COPY_MEMORY_UNIT(work_u_buf, u->BLOCK, u->UNIT_WORD_COUNT);

  00291	48 8b 85 00 04
	00 00		 mov	 rax, QWORD PTR u$[rbp]
  00298	4c 8b 40 18	 mov	 r8, QWORD PTR [rax+24]
  0029c	48 8b 85 00 04
	00 00		 mov	 rax, QWORD PTR u$[rbp]
  002a3	48 8b 50 40	 mov	 rdx, QWORD PTR [rax+64]
  002a7	48 8b 8d c8 00
	00 00		 mov	 rcx, QWORD PTR work_u_buf$10[rbp]
  002ae	e8 00 00 00 00	 call	 _COPY_MEMORY_UNIT
$LN11@PMC_Greate:

; 196  :                     work_v_buf[0] = v >> v_tzcnt;

  002b3	48 8b 85 48 01
	00 00		 mov	 rax, QWORD PTR v_tzcnt$14[rbp]
  002ba	0f b6 c8	 movzx	 ecx, al
  002bd	8b 85 08 04 00
	00		 mov	 eax, DWORD PTR v$[rbp]
  002c3	d3 e8		 shr	 eax, cl
  002c5	8b c0		 mov	 eax, eax
  002c7	b9 08 00 00 00	 mov	 ecx, 8
  002cc	48 6b c9 00	 imul	 rcx, rcx, 0
  002d0	48 8b 95 e8 00
	00 00		 mov	 rdx, QWORD PTR work_v_buf$11[rbp]
  002d7	48 89 04 0a	 mov	 QWORD PTR [rdx+rcx], rax

; 197  :                     __UNIT_TYPE w_buf_count;
; 198  :                     GreatestCommonDivisor_Imp(work_u_buf, work_v_buf, _DIVIDE_CEILING_UNIT(work_bit_count, __UNIT_TYPE_BIT_COUNT), w->BLOCK, &w_buf_count);

  002db	48 8b 85 08 01
	00 00		 mov	 rax, QWORD PTR w$12[rbp]
  002e2	48 8b 40 40	 mov	 rax, QWORD PTR [rax+64]
  002e6	48 89 85 c8 03
	00 00		 mov	 QWORD PTR tv188[rbp], rax
  002ed	ba 40 00 00 00	 mov	 edx, 64			; 00000040H
  002f2	48 8b 8d a8 00
	00 00		 mov	 rcx, QWORD PTR work_bit_count$9[rbp]
  002f9	e8 00 00 00 00	 call	 _DIVIDE_CEILING_UNIT
  002fe	48 89 85 d0 03
	00 00		 mov	 QWORD PTR tv186[rbp], rax
  00305	48 8d 85 88 01
	00 00		 lea	 rax, QWORD PTR w_buf_count$16[rbp]
  0030c	48 89 44 24 20	 mov	 QWORD PTR [rsp+32], rax
  00311	4c 8b 8d c8 03
	00 00		 mov	 r9, QWORD PTR tv188[rbp]
  00318	4c 8b 85 d0 03
	00 00		 mov	 r8, QWORD PTR tv186[rbp]
  0031f	48 8b 95 e8 00
	00 00		 mov	 rdx, QWORD PTR work_v_buf$11[rbp]
  00326	48 8b 8d c8 00
	00 00		 mov	 rcx, QWORD PTR work_u_buf$10[rbp]
  0032d	e8 00 00 00 00	 call	 ?GreatestCommonDivisor_Imp@Internal@Core@Math@Palmtree@@YAXPEA_K0_K00@Z ; Palmtree::Math::Core::Internal::GreatestCommonDivisor_Imp

; 199  :                     root.CheckBlock(work_u_buf);

  00332	48 8b 95 c8 00
	00 00		 mov	 rdx, QWORD PTR work_u_buf$10[rbp]
  00339	48 8d 4d 08	 lea	 rcx, QWORD PTR root$5[rbp]
  0033d	e8 00 00 00 00	 call	 ?CheckBlock@ResourceHolderUINT@Internal@Core@Math@Palmtree@@QEAAXPEA_K@Z ; Palmtree::Math::Core::Internal::ResourceHolderUINT::CheckBlock

; 200  :                     root.CheckBlock(work_v_buf);

  00342	48 8b 95 e8 00
	00 00		 mov	 rdx, QWORD PTR work_v_buf$11[rbp]
  00349	48 8d 4d 08	 lea	 rcx, QWORD PTR root$5[rbp]
  0034d	e8 00 00 00 00	 call	 ?CheckBlock@ResourceHolderUINT@Internal@Core@Math@Palmtree@@QEAAXPEA_K@Z ; Palmtree::Math::Core::Internal::ResourceHolderUINT::CheckBlock

; 201  :                     root.CheckNumber(w);

  00352	48 8b 95 08 01
	00 00		 mov	 rdx, QWORD PTR w$12[rbp]
  00359	48 8d 4d 08	 lea	 rcx, QWORD PTR root$5[rbp]
  0035d	e8 00 00 00 00	 call	 ?CheckNumber@ResourceHolderUINT@Internal@Core@Math@Palmtree@@QEAAXPEAU__tag_NUMBER_HEADER@2345@@Z ; Palmtree::Math::Core::Internal::ResourceHolderUINT::CheckNumber

; 202  :                     root.DeallocateBlock(work_v_buf);

  00362	48 8b 95 e8 00
	00 00		 mov	 rdx, QWORD PTR work_v_buf$11[rbp]
  00369	48 8d 4d 08	 lea	 rcx, QWORD PTR root$5[rbp]
  0036d	e8 00 00 00 00	 call	 ?DeallocateBlock@ResourceHolderUINT@Internal@Core@Math@Palmtree@@QEAAXPEA_K@Z ; Palmtree::Math::Core::Internal::ResourceHolderUINT::DeallocateBlock

; 203  :                     root.DeallocateBlock(work_u_buf);

  00372	48 8b 95 c8 00
	00 00		 mov	 rdx, QWORD PTR work_u_buf$10[rbp]
  00379	48 8d 4d 08	 lea	 rcx, QWORD PTR root$5[rbp]
  0037d	e8 00 00 00 00	 call	 ?DeallocateBlock@ResourceHolderUINT@Internal@Core@Math@Palmtree@@QEAAXPEA_K@Z ; Palmtree::Math::Core::Internal::ResourceHolderUINT::DeallocateBlock

; 204  :                     LeftShift_Imp(w->BLOCK, w_buf_count, k, w->BLOCK, TRUE);

  00382	c7 44 24 20 01
	00 00 00	 mov	 DWORD PTR [rsp+32], 1
  0038a	48 8b 85 08 01
	00 00		 mov	 rax, QWORD PTR w$12[rbp]
  00391	4c 8b 48 40	 mov	 r9, QWORD PTR [rax+64]
  00395	4c 8b 85 68 01
	00 00		 mov	 r8, QWORD PTR k$15[rbp]
  0039c	48 8b 95 88 01
	00 00		 mov	 rdx, QWORD PTR w_buf_count$16[rbp]
  003a3	48 8b 85 08 01
	00 00		 mov	 rax, QWORD PTR w$12[rbp]
  003aa	48 8b 48 40	 mov	 rcx, QWORD PTR [rax+64]
  003ae	e8 00 00 00 00	 call	 ?LeftShift_Imp@Internal@Core@Math@Palmtree@@YAXPEA_K_K10H@Z ; Palmtree::Math::Core::Internal::LeftShift_Imp

; 205  :                     root.CheckNumber(w);

  003b3	48 8b 95 08 01
	00 00		 mov	 rdx, QWORD PTR w$12[rbp]
  003ba	48 8d 4d 08	 lea	 rcx, QWORD PTR root$5[rbp]
  003be	e8 00 00 00 00	 call	 ?CheckNumber@ResourceHolderUINT@Internal@Core@Math@Palmtree@@QEAAXPEAU__tag_NUMBER_HEADER@2345@@Z ; Palmtree::Math::Core::Internal::ResourceHolderUINT::CheckNumber

; 206  :                     CommitNumber(w);

  003c3	48 8b 8d 08 01
	00 00		 mov	 rcx, QWORD PTR w$12[rbp]
  003ca	e8 00 00 00 00	 call	 ?CommitNumber@Internal@Core@Math@Palmtree@@YAXPEAU__tag_NUMBER_HEADER@1234@@Z ; Palmtree::Math::Core::Internal::CommitNumber

; 207  :                     root.UnlinkNumber(w);

  003cf	48 8b 95 08 01
	00 00		 mov	 rdx, QWORD PTR w$12[rbp]
  003d6	48 8d 4d 08	 lea	 rcx, QWORD PTR root$5[rbp]
  003da	e8 00 00 00 00	 call	 ?UnlinkNumber@ResourceHolderUINT@Internal@Core@Math@Palmtree@@QEAAXPEAU__tag_NUMBER_HEADER@2345@@Z ; Palmtree::Math::Core::Internal::ResourceHolderUINT::UnlinkNumber

; 208  :                     return (w);

  003df	48 8b 85 08 01
	00 00		 mov	 rax, QWORD PTR w$12[rbp]
  003e6	48 89 85 98 03
	00 00		 mov	 QWORD PTR $T19[rbp], rax
  003ed	48 8d 4d 08	 lea	 rcx, QWORD PTR root$5[rbp]
  003f1	e8 00 00 00 00	 call	 ??1ResourceHolderUINT@Internal@Core@Math@Palmtree@@UEAA@XZ ; Palmtree::Math::Core::Internal::ResourceHolderUINT::~ResourceHolderUINT
  003f6	48 8b 85 98 03
	00 00		 mov	 rax, QWORD PTR $T19[rbp]
  003fd	eb 0a		 jmp	 SHORT $LN12@PMC_Greate
$LN9@PMC_Greate:

; 209  :                 }
; 210  :             }

  003ff	48 8d 4d 08	 lea	 rcx, QWORD PTR root$5[rbp]
  00403	e8 00 00 00 00	 call	 ??1ResourceHolderUINT@Internal@Core@Math@Palmtree@@UEAA@XZ ; Palmtree::Math::Core::Internal::ResourceHolderUINT::~ResourceHolderUINT
  00408	90		 npad	 1
$LN12@PMC_Greate:

; 211  :         }
; 212  :     }

  00409	48 8b f8	 mov	 rdi, rax
  0040c	48 8d 4d d0	 lea	 rcx, QWORD PTR [rbp-48]
  00410	48 8d 15 00 00
	00 00		 lea	 rdx, OFFSET FLAT:?PMC_GreatestCommonDivisor_X_I_Imp@Internal@Core@Math@Palmtree@@YAPEAU__tag_NUMBER_HEADER@1234@PEAU51234@I@Z$rtcFrameData
  00417	e8 00 00 00 00	 call	 _RTC_CheckStackVars
  0041c	48 8b c7	 mov	 rax, rdi
  0041f	48 8d a5 e8 03
	00 00		 lea	 rsp, QWORD PTR [rbp+1000]
  00426	5f		 pop	 rdi
  00427	5d		 pop	 rbp
  00428	c3		 ret	 0
$LN14@PMC_Greate:
?PMC_GreatestCommonDivisor_X_I_Imp@Internal@Core@Math@Palmtree@@YAPEAU__tag_NUMBER_HEADER@1234@PEAU51234@I@Z ENDP ; Palmtree::Math::Core::Internal::PMC_GreatestCommonDivisor_X_I_Imp
_TEXT	ENDS
;	COMDAT text$x
text$x	SEGMENT
root$5 = 8
w$6 = 72
u_bit_count$7 = 104
v_bit_count$8 = 136
work_bit_count$9 = 168
work_u_buf$10 = 200
work_v_buf$11 = 232
w$12 = 264
u_tzcnt$13 = 296
v_tzcnt$14 = 328
k$15 = 360
w_buf_count$16 = 392
$T17 = 808
$T18 = 888
$T19 = 920
$T20 = 952
tv215 = 968
tv188 = 968
tv186 = 976
tv128 = 976
u$ = 1024
v$ = 1032
?dtor$0@?0??PMC_GreatestCommonDivisor_X_I_Imp@Internal@Core@Math@Palmtree@@YAPEAU__tag_NUMBER_HEADER@1234@PEAU51234@I@Z@4HA PROC ; `Palmtree::Math::Core::Internal::PMC_GreatestCommonDivisor_X_I_Imp'::`1'::dtor$0
  00000	48 89 4c 24 08	 mov	 QWORD PTR [rsp+8], rcx
  00005	48 89 54 24 10	 mov	 QWORD PTR [rsp+16], rdx
  0000a	55		 push	 rbp
  0000b	57		 push	 rdi
  0000c	48 83 ec 28	 sub	 rsp, 40			; 00000028H
  00010	48 8d 6a 30	 lea	 rbp, QWORD PTR [rdx+48]
  00014	48 8d 4d 08	 lea	 rcx, QWORD PTR root$5[rbp]
  00018	e8 00 00 00 00	 call	 ??1ResourceHolderUINT@Internal@Core@Math@Palmtree@@UEAA@XZ ; Palmtree::Math::Core::Internal::ResourceHolderUINT::~ResourceHolderUINT
  0001d	48 83 c4 28	 add	 rsp, 40			; 00000028H
  00021	5f		 pop	 rdi
  00022	5d		 pop	 rbp
  00023	c3		 ret	 0
?dtor$0@?0??PMC_GreatestCommonDivisor_X_I_Imp@Internal@Core@Math@Palmtree@@YAPEAU__tag_NUMBER_HEADER@1234@PEAU51234@I@Z@4HA ENDP ; `Palmtree::Math::Core::Internal::PMC_GreatestCommonDivisor_X_I_Imp'::`1'::dtor$0
text$x	ENDS
; Function compile flags: /Odtp /RTCsu /ZI
;	COMDAT text$x
text$x	SEGMENT
root$5 = 8
w$6 = 72
u_bit_count$7 = 104
v_bit_count$8 = 136
work_bit_count$9 = 168
work_u_buf$10 = 200
work_v_buf$11 = 232
w$12 = 264
u_tzcnt$13 = 296
v_tzcnt$14 = 328
k$15 = 360
w_buf_count$16 = 392
$T17 = 808
$T18 = 888
$T19 = 920
$T20 = 952
tv215 = 968
tv188 = 968
tv186 = 976
tv128 = 976
u$ = 1024
v$ = 1032
?dtor$0@?0??PMC_GreatestCommonDivisor_X_I_Imp@Internal@Core@Math@Palmtree@@YAPEAU__tag_NUMBER_HEADER@1234@PEAU51234@I@Z@4HA PROC ; `Palmtree::Math::Core::Internal::PMC_GreatestCommonDivisor_X_I_Imp'::`1'::dtor$0
  00000	48 89 4c 24 08	 mov	 QWORD PTR [rsp+8], rcx
  00005	48 89 54 24 10	 mov	 QWORD PTR [rsp+16], rdx
  0000a	55		 push	 rbp
  0000b	57		 push	 rdi
  0000c	48 83 ec 28	 sub	 rsp, 40			; 00000028H
  00010	48 8d 6a 30	 lea	 rbp, QWORD PTR [rdx+48]
  00014	48 8d 4d 08	 lea	 rcx, QWORD PTR root$5[rbp]
  00018	e8 00 00 00 00	 call	 ??1ResourceHolderUINT@Internal@Core@Math@Palmtree@@UEAA@XZ ; Palmtree::Math::Core::Internal::ResourceHolderUINT::~ResourceHolderUINT
  0001d	48 83 c4 28	 add	 rsp, 40			; 00000028H
  00021	5f		 pop	 rdi
  00022	5d		 pop	 rbp
  00023	c3		 ret	 0
?dtor$0@?0??PMC_GreatestCommonDivisor_X_I_Imp@Internal@Core@Math@Palmtree@@YAPEAU__tag_NUMBER_HEADER@1234@PEAU51234@I@Z@4HA ENDP ; `Palmtree::Math::Core::Internal::PMC_GreatestCommonDivisor_X_I_Imp'::`1'::dtor$0
text$x	ENDS
; Function compile flags: /Odtp /RTCsu /ZI
; File z:\sources\lunor\repos\rougemeilland\palmtree.math.core.uint\palmtree.math.core.uint\pmc_greatestcommondivisor.cpp
;	COMDAT ?GreatestCommonDivisor_1W_Imp@Internal@Core@Math@Palmtree@@YA_K_K0@Z
_TEXT	SEGMENT
k$ = 4
u_tz_count$1 = 36
v_tz_count$2 = 68
tt$3 = 104
u_tz_count$4 = 132
$T5 = 360
tv69 = 420
u$ = 464
v$ = 472
?GreatestCommonDivisor_1W_Imp@Internal@Core@Math@Palmtree@@YA_K_K0@Z PROC ; Palmtree::Math::Core::Internal::GreatestCommonDivisor_1W_Imp, COMDAT

; 86   :     {

  00000	48 89 54 24 10	 mov	 QWORD PTR [rsp+16], rdx
  00005	48 89 4c 24 08	 mov	 QWORD PTR [rsp+8], rcx
  0000a	55		 push	 rbp
  0000b	57		 push	 rdi
  0000c	48 81 ec d8 01
	00 00		 sub	 rsp, 472		; 000001d8H
  00013	48 8d 6c 24 20	 lea	 rbp, QWORD PTR [rsp+32]
  00018	48 8b fc	 mov	 rdi, rsp
  0001b	b9 76 00 00 00	 mov	 ecx, 118		; 00000076H
  00020	b8 cc cc cc cc	 mov	 eax, -858993460		; ccccccccH
  00025	f3 ab		 rep stosd
  00027	48 8b 8c 24 f8
	01 00 00	 mov	 rcx, QWORD PTR [rsp+504]
  0002f	48 8d 0d 00 00
	00 00		 lea	 rcx, OFFSET FLAT:__AACDA9A0_pmc_greatestcommondivisor@cpp
  00036	e8 00 00 00 00	 call	 __CheckForDebuggerJustMyCode

; 87   :         int k;
; 88   :         {
; 89   :             int u_tz_count = _TZCNT_ALT_UNIT(u);

  0003b	48 8b 8d d0 01
	00 00		 mov	 rcx, QWORD PTR u$[rbp]
  00042	e8 00 00 00 00	 call	 _TZCNT_ALT_UNIT
  00047	89 45 24	 mov	 DWORD PTR u_tz_count$1[rbp], eax

; 90   :             int v_tz_count = _TZCNT_ALT_UNIT(v);

  0004a	48 8b 8d d8 01
	00 00		 mov	 rcx, QWORD PTR v$[rbp]
  00051	e8 00 00 00 00	 call	 _TZCNT_ALT_UNIT
  00056	89 45 44	 mov	 DWORD PTR v_tz_count$2[rbp], eax

; 91   :             k = u_tz_count < v_tz_count ? u_tz_count : v_tz_count;

  00059	8b 45 44	 mov	 eax, DWORD PTR v_tz_count$2[rbp]
  0005c	39 45 24	 cmp	 DWORD PTR u_tz_count$1[rbp], eax
  0005f	7d 0b		 jge	 SHORT $LN13@GreatestCo
  00061	8b 45 24	 mov	 eax, DWORD PTR u_tz_count$1[rbp]
  00064	89 85 a4 01 00
	00		 mov	 DWORD PTR tv69[rbp], eax
  0006a	eb 09		 jmp	 SHORT $LN14@GreatestCo
$LN13@GreatestCo:
  0006c	8b 45 44	 mov	 eax, DWORD PTR v_tz_count$2[rbp]
  0006f	89 85 a4 01 00
	00		 mov	 DWORD PTR tv69[rbp], eax
$LN14@GreatestCo:
  00075	8b 85 a4 01 00
	00		 mov	 eax, DWORD PTR tv69[rbp]
  0007b	89 45 04	 mov	 DWORD PTR k$[rbp], eax

; 92   :             if (u_tz_count > 0)

  0007e	83 7d 24 00	 cmp	 DWORD PTR u_tz_count$1[rbp], 0
  00082	7e 18		 jle	 SHORT $LN5@GreatestCo

; 93   :                 u >>= u_tz_count;

  00084	48 63 45 24	 movsxd	 rax, DWORD PTR u_tz_count$1[rbp]
  00088	0f b6 c8	 movzx	 ecx, al
  0008b	48 8b 85 d0 01
	00 00		 mov	 rax, QWORD PTR u$[rbp]
  00092	48 d3 e8	 shr	 rax, cl
  00095	48 89 85 d0 01
	00 00		 mov	 QWORD PTR u$[rbp], rax
$LN5@GreatestCo:

; 94   :             if (v_tz_count > 0)

  0009c	83 7d 44 00	 cmp	 DWORD PTR v_tz_count$2[rbp], 0
  000a0	7e 18		 jle	 SHORT $LN6@GreatestCo

; 95   :                 v >>= v_tz_count;

  000a2	48 63 45 44	 movsxd	 rax, DWORD PTR v_tz_count$2[rbp]
  000a6	0f b6 c8	 movzx	 ecx, al
  000a9	48 8b 85 d8 01
	00 00		 mov	 rax, QWORD PTR v$[rbp]
  000b0	48 d3 e8	 shr	 rax, cl
  000b3	48 89 85 d8 01
	00 00		 mov	 QWORD PTR v$[rbp], rax
$LN6@GreatestCo:
$LN2@GreatestCo:

; 96   :         }
; 97   :         for (;;)
; 98   :         {
; 99   :             if (u == 0 || v == 0)

  000ba	48 83 bd d0 01
	00 00 00	 cmp	 QWORD PTR u$[rbp], 0
  000c2	74 0a		 je	 SHORT $LN8@GreatestCo
  000c4	48 83 bd d8 01
	00 00 00	 cmp	 QWORD PTR v$[rbp], 0
  000cc	75 2d		 jne	 SHORT $LN7@GreatestCo
$LN8@GreatestCo:

; 100  :             {
; 101  :                 // 
; 102  :                 throw InternalErrorException(L"", L"pmc_greatestcommondivisor.cpp;GreatestCommonDivisor_1W_Imp;1");

  000ce	4c 8d 05 00 00
	00 00		 lea	 r8, OFFSET FLAT:??_C@_1HK@DNJBGJKK@?$AAp?$AAm?$AAc?$AA_?$AAg?$AAr?$AAe?$AAa?$AAt?$AAe?$AAs?$AAt?$AAc?$AAo?$AAm@
  000d5	48 8d 15 00 00
	00 00		 lea	 rdx, OFFSET FLAT:??_C@_1CG@CNOPPENL@?$PP?$II?$AA?$BP?$AAW?$AAf?$AAD?$AAj?$AAD?$PP?$LD?$PP?$PM?$PP?I?$AAk?$AA0?$AAT?$AAW?$AA?$HO@
  000dc	48 8d 8d 68 01
	00 00		 lea	 rcx, QWORD PTR $T5[rbp]
  000e3	e8 00 00 00 00	 call	 ??0InternalErrorException@Internal@Core@Math@Palmtree@@QEAA@PEB_W0@Z ; Palmtree::Math::Core::Internal::InternalErrorException::InternalErrorException
  000e8	48 8d 15 00 00
	00 00		 lea	 rdx, OFFSET FLAT:_TI2?AVInternalErrorException@Internal@Core@Math@Palmtree@@
  000ef	48 8d 8d 68 01
	00 00		 lea	 rcx, QWORD PTR $T5[rbp]
  000f6	e8 00 00 00 00	 call	 _CxxThrowException
$LN7@GreatestCo:

; 103  :             }
; 104  :             if (u == v)

  000fb	48 8b 85 d8 01
	00 00		 mov	 rax, QWORD PTR v$[rbp]
  00102	48 39 85 d0 01
	00 00		 cmp	 QWORD PTR u$[rbp], rax
  00109	75 15		 jne	 SHORT $LN9@GreatestCo

; 105  :             {
; 106  :                 // u == v 
; 107  : 
; 108  :                 // GCD  u 
; 109  :                 return (u << k);

  0010b	8b 45 04	 mov	 eax, DWORD PTR k$[rbp]
  0010e	0f b6 c8	 movzx	 ecx, al
  00111	48 8b 85 d0 01
	00 00		 mov	 rax, QWORD PTR u$[rbp]
  00118	48 d3 e0	 shl	 rax, cl
  0011b	e9 8a 00 00 00	 jmp	 $LN1@GreatestCo
$LN9@GreatestCo:

; 110  :             }
; 111  :             if (u < v)

  00120	48 8b 85 d8 01
	00 00		 mov	 rax, QWORD PTR v$[rbp]
  00127	48 39 85 d0 01
	00 00		 cmp	 QWORD PTR u$[rbp], rax
  0012e	73 24		 jae	 SHORT $LN10@GreatestCo

; 112  :             {
; 113  :                 __UNIT_TYPE tt = u;

  00130	48 8b 85 d0 01
	00 00		 mov	 rax, QWORD PTR u$[rbp]
  00137	48 89 45 68	 mov	 QWORD PTR tt$3[rbp], rax

; 114  :                 u = v;

  0013b	48 8b 85 d8 01
	00 00		 mov	 rax, QWORD PTR v$[rbp]
  00142	48 89 85 d0 01
	00 00		 mov	 QWORD PTR u$[rbp], rax

; 115  :                 v = tt;

  00149	48 8b 45 68	 mov	 rax, QWORD PTR tt$3[rbp]
  0014d	48 89 85 d8 01
	00 00		 mov	 QWORD PTR v$[rbp], rax
$LN10@GreatestCo:

; 116  :             }
; 117  :             //  u > v  u  v 
; 118  : 
; 119  :             u = u - v;

  00154	48 8b 85 d8 01
	00 00		 mov	 rax, QWORD PTR v$[rbp]
  0015b	48 8b 8d d0 01
	00 00		 mov	 rcx, QWORD PTR u$[rbp]
  00162	48 2b c8	 sub	 rcx, rax
  00165	48 8b c1	 mov	 rax, rcx
  00168	48 89 85 d0 01
	00 00		 mov	 QWORD PTR u$[rbp], rax

; 120  : 
; 121  :             //  u 
; 122  : 
; 123  :             // u  u 
; 124  :             {
; 125  :                 int u_tz_count = _TZCNT_ALT_UNIT(u);

  0016f	48 8b 8d d0 01
	00 00		 mov	 rcx, QWORD PTR u$[rbp]
  00176	e8 00 00 00 00	 call	 _TZCNT_ALT_UNIT
  0017b	89 85 84 00 00
	00		 mov	 DWORD PTR u_tz_count$4[rbp], eax

; 126  :                 if (u_tz_count > 0)

  00181	83 bd 84 00 00
	00 00		 cmp	 DWORD PTR u_tz_count$4[rbp], 0
  00188	7e 1b		 jle	 SHORT $LN11@GreatestCo

; 127  :                     u >>= u_tz_count;

  0018a	48 63 85 84 00
	00 00		 movsxd	 rax, DWORD PTR u_tz_count$4[rbp]
  00191	0f b6 c8	 movzx	 ecx, al
  00194	48 8b 85 d0 01
	00 00		 mov	 rax, QWORD PTR u$[rbp]
  0019b	48 d3 e8	 shr	 rax, cl
  0019e	48 89 85 d0 01
	00 00		 mov	 QWORD PTR u$[rbp], rax
$LN11@GreatestCo:

; 128  :             }
; 129  :         }

  001a5	e9 10 ff ff ff	 jmp	 $LN2@GreatestCo
$LN1@GreatestCo:
$LN12@GreatestCo:

; 130  :     }

  001aa	48 8d a5 b8 01
	00 00		 lea	 rsp, QWORD PTR [rbp+440]
  001b1	5f		 pop	 rdi
  001b2	5d		 pop	 rbp
  001b3	c3		 ret	 0
?GreatestCommonDivisor_1W_Imp@Internal@Core@Math@Palmtree@@YA_K_K0@Z ENDP ; Palmtree::Math::Core::Internal::GreatestCommonDivisor_1W_Imp
_TEXT	ENDS
; Function compile flags: /Odtp /RTCsu /ZI
; File z:\sources\lunor\repos\rougemeilland\palmtree.math.core.uint\palmtree.math.core.uint\pmc_greatestcommondivisor.cpp
;	COMDAT ?GreatestCommonDivisor_Imp@Internal@Core@Math@Palmtree@@YAXPEA_K0_K00@Z
_TEXT	SEGMENT
u$ = 8
v$ = 40
c$1 = 68
tt$2 = 104
t_ptr$3 = 136
tz_count$4 = 164
$T5 = 392
p1_buf$ = 496
p2_buf$ = 504
word_count$ = 512
w_buf$ = 520
w_buf_count$ = 528
?GreatestCommonDivisor_Imp@Internal@Core@Math@Palmtree@@YAXPEA_K0_K00@Z PROC ; Palmtree::Math::Core::Internal::GreatestCommonDivisor_Imp, COMDAT

; 37   :     {

  00000	4c 89 4c 24 20	 mov	 QWORD PTR [rsp+32], r9
  00005	4c 89 44 24 18	 mov	 QWORD PTR [rsp+24], r8
  0000a	48 89 54 24 10	 mov	 QWORD PTR [rsp+16], rdx
  0000f	48 89 4c 24 08	 mov	 QWORD PTR [rsp+8], rcx
  00014	55		 push	 rbp
  00015	57		 push	 rdi
  00016	48 81 ec 08 02
	00 00		 sub	 rsp, 520		; 00000208H
  0001d	48 8d 6c 24 30	 lea	 rbp, QWORD PTR [rsp+48]
  00022	48 8b fc	 mov	 rdi, rsp
  00025	b9 82 00 00 00	 mov	 ecx, 130		; 00000082H
  0002a	b8 cc cc cc cc	 mov	 eax, -858993460		; ccccccccH
  0002f	f3 ab		 rep stosd
  00031	48 8b 8c 24 28
	02 00 00	 mov	 rcx, QWORD PTR [rsp+552]
  00039	48 8d 0d 00 00
	00 00		 lea	 rcx, OFFSET FLAT:__AACDA9A0_pmc_greatestcommondivisor@cpp
  00040	e8 00 00 00 00	 call	 __CheckForDebuggerJustMyCode

; 38   :         __UNIT_TYPE* u = p1_buf;

  00045	48 8b 85 f0 01
	00 00		 mov	 rax, QWORD PTR p1_buf$[rbp]
  0004c	48 89 45 08	 mov	 QWORD PTR u$[rbp], rax

; 39   :         __UNIT_TYPE* v = p2_buf;

  00050	48 8b 85 f8 01
	00 00		 mov	 rax, QWORD PTR p2_buf$[rbp]
  00057	48 89 45 28	 mov	 QWORD PTR v$[rbp], rax
$LN2@GreatestCo:
$LN5@GreatestCo:

; 40   :         for (;;)
; 41   :         {
; 42   :             while (word_count > 0 && u[word_count - 1] == 0 && v[word_count - 1] == 0)

  0005b	48 83 bd 00 02
	00 00 00	 cmp	 QWORD PTR word_count$[rbp], 0
  00063	76 39		 jbe	 SHORT $LN6@GreatestCo
  00065	48 8b 45 08	 mov	 rax, QWORD PTR u$[rbp]
  00069	48 8b 8d 00 02
	00 00		 mov	 rcx, QWORD PTR word_count$[rbp]
  00070	48 83 7c c8 f8
	00		 cmp	 QWORD PTR [rax+rcx*8-8], 0
  00076	75 26		 jne	 SHORT $LN6@GreatestCo
  00078	48 8b 45 28	 mov	 rax, QWORD PTR v$[rbp]
  0007c	48 8b 8d 00 02
	00 00		 mov	 rcx, QWORD PTR word_count$[rbp]
  00083	48 83 7c c8 f8
	00		 cmp	 QWORD PTR [rax+rcx*8-8], 0
  00089	75 13		 jne	 SHORT $LN6@GreatestCo

; 43   :                 --word_count;

  0008b	48 8b 85 00 02
	00 00		 mov	 rax, QWORD PTR word_count$[rbp]
  00092	48 ff c8	 dec	 rax
  00095	48 89 85 00 02
	00 00		 mov	 QWORD PTR word_count$[rbp], rax
  0009c	eb bd		 jmp	 SHORT $LN5@GreatestCo
$LN6@GreatestCo:

; 44   :             if (word_count <= 0)

  0009e	48 83 bd 00 02
	00 00 00	 cmp	 QWORD PTR word_count$[rbp], 0
  000a6	77 2d		 ja	 SHORT $LN9@GreatestCo

; 45   :             {
; 46   :                 // 
; 47   :                 throw InternalErrorException(L"", L"pmc_greatestcommondivisor.cpp;GreatestCommonDivisor_Imp;1");

  000a8	4c 8d 05 00 00
	00 00		 lea	 r8, OFFSET FLAT:??_C@_1HE@ECAGDGPP@?$AAp?$AAm?$AAc?$AA_?$AAg?$AAr?$AAe?$AAa?$AAt?$AAe?$AAs?$AAt?$AAc?$AAo?$AAm@
  000af	48 8d 15 00 00
	00 00		 lea	 rdx, OFFSET FLAT:??_C@_1CG@CNOPPENL@?$PP?$II?$AA?$BP?$AAW?$AAf?$AAD?$AAj?$AAD?$PP?$LD?$PP?$PM?$PP?I?$AAk?$AA0?$AAT?$AAW?$AA?$HO@
  000b6	48 8d 8d 88 01
	00 00		 lea	 rcx, QWORD PTR $T5[rbp]
  000bd	e8 00 00 00 00	 call	 ??0InternalErrorException@Internal@Core@Math@Palmtree@@QEAA@PEB_W0@Z ; Palmtree::Math::Core::Internal::InternalErrorException::InternalErrorException
  000c2	48 8d 15 00 00
	00 00		 lea	 rdx, OFFSET FLAT:_TI2?AVInternalErrorException@Internal@Core@Math@Palmtree@@
  000c9	48 8d 8d 88 01
	00 00		 lea	 rcx, QWORD PTR $T5[rbp]
  000d0	e8 00 00 00 00	 call	 _CxxThrowException
$LN9@GreatestCo:

; 48   :             }
; 49   :             int c = Compare_Imp(u, v, word_count);

  000d5	4c 8b 85 00 02
	00 00		 mov	 r8, QWORD PTR word_count$[rbp]
  000dc	48 8b 55 28	 mov	 rdx, QWORD PTR v$[rbp]
  000e0	48 8b 4d 08	 mov	 rcx, QWORD PTR u$[rbp]
  000e4	e8 00 00 00 00	 call	 ?Compare_Imp@Internal@Core@Math@Palmtree@@YAHPEA_K0_K@Z ; Palmtree::Math::Core::Internal::Compare_Imp
  000e9	89 45 44	 mov	 DWORD PTR c$1[rbp], eax

; 50   :             if (c == 0)

  000ec	83 7d 44 00	 cmp	 DWORD PTR c$1[rbp], 0
  000f0	75 2d		 jne	 SHORT $LN10@GreatestCo

; 51   :             {
; 52   :                 // u == v 
; 53   : 
; 54   :                 // GCD  u 
; 55   :                 _COPY_MEMORY_UNIT(w_buf, u, word_count);

  000f2	4c 8b 85 00 02
	00 00		 mov	 r8, QWORD PTR word_count$[rbp]
  000f9	48 8b 55 08	 mov	 rdx, QWORD PTR u$[rbp]
  000fd	48 8b 8d 08 02
	00 00		 mov	 rcx, QWORD PTR w_buf$[rbp]
  00104	e8 00 00 00 00	 call	 _COPY_MEMORY_UNIT

; 56   :                 *w_buf_count = word_count;

  00109	48 8b 85 10 02
	00 00		 mov	 rax, QWORD PTR w_buf_count$[rbp]
  00110	48 8b 8d 00 02
	00 00		 mov	 rcx, QWORD PTR word_count$[rbp]
  00117	48 89 08	 mov	 QWORD PTR [rax], rcx

; 57   :                 return;

  0011a	e9 e8 00 00 00	 jmp	 $LN1@GreatestCo
$LN10@GreatestCo:

; 58   :             }
; 59   :             if (c < 0)

  0011f	83 7d 44 00	 cmp	 DWORD PTR c$1[rbp], 0
  00123	7d 18		 jge	 SHORT $LN11@GreatestCo

; 60   :             {
; 61   :                 __UNIT_TYPE* tt = u;

  00125	48 8b 45 08	 mov	 rax, QWORD PTR u$[rbp]
  00129	48 89 45 68	 mov	 QWORD PTR tt$2[rbp], rax

; 62   :                 u = v;

  0012d	48 8b 45 28	 mov	 rax, QWORD PTR v$[rbp]
  00131	48 89 45 08	 mov	 QWORD PTR u$[rbp], rax

; 63   :                 v = tt;

  00135	48 8b 45 68	 mov	 rax, QWORD PTR tt$2[rbp]
  00139	48 89 45 28	 mov	 QWORD PTR v$[rbp], rax
$LN11@GreatestCo:

; 64   :             }
; 65   :             //  u > v  u  v 
; 66   : 
; 67   :             Subtruct_Imp(u, word_count, v, word_count, u, word_count);

  0013d	48 8b 85 00 02
	00 00		 mov	 rax, QWORD PTR word_count$[rbp]
  00144	48 89 44 24 28	 mov	 QWORD PTR [rsp+40], rax
  00149	48 8b 45 08	 mov	 rax, QWORD PTR u$[rbp]
  0014d	48 89 44 24 20	 mov	 QWORD PTR [rsp+32], rax
  00152	4c 8b 8d 00 02
	00 00		 mov	 r9, QWORD PTR word_count$[rbp]
  00159	4c 8b 45 28	 mov	 r8, QWORD PTR v$[rbp]
  0015d	48 8b 95 00 02
	00 00		 mov	 rdx, QWORD PTR word_count$[rbp]
  00164	48 8b 4d 08	 mov	 rcx, QWORD PTR u$[rbp]
  00168	e8 00 00 00 00	 call	 ?Subtruct_Imp@Internal@Core@Math@Palmtree@@YAXPEA_K_K0101@Z ; Palmtree::Math::Core::Internal::Subtruct_Imp

; 68   : 
; 69   :             //  u 
; 70   : 
; 71   :             // u  u 
; 72   :             __UNIT_TYPE* t_ptr = u;

  0016d	48 8b 45 08	 mov	 rax, QWORD PTR u$[rbp]
  00171	48 89 85 88 00
	00 00		 mov	 QWORD PTR t_ptr$3[rbp], rax

; 73   :             int tz_count = 0;

  00178	c7 85 a4 00 00
	00 00 00 00 00	 mov	 DWORD PTR tz_count$4[rbp], 0
$LN7@GreatestCo:

; 74   :             while (*t_ptr == 0)

  00182	48 8b 85 88 00
	00 00		 mov	 rax, QWORD PTR t_ptr$3[rbp]
  00189	48 83 38 00	 cmp	 QWORD PTR [rax], 0
  0018d	75 25		 jne	 SHORT $LN8@GreatestCo

; 75   :             {
; 76   :                 ++t_ptr;

  0018f	48 8b 85 88 00
	00 00		 mov	 rax, QWORD PTR t_ptr$3[rbp]
  00196	48 83 c0 08	 add	 rax, 8
  0019a	48 89 85 88 00
	00 00		 mov	 QWORD PTR t_ptr$3[rbp], rax

; 77   :                 tz_count += __UNIT_TYPE_BIT_COUNT;

  001a1	48 63 85 a4 00
	00 00		 movsxd	 rax, DWORD PTR tz_count$4[rbp]
  001a8	48 83 c0 40	 add	 rax, 64			; 00000040H
  001ac	89 85 a4 00 00
	00		 mov	 DWORD PTR tz_count$4[rbp], eax

; 78   :             }

  001b2	eb ce		 jmp	 SHORT $LN7@GreatestCo
$LN8@GreatestCo:

; 79   :             tz_count += _TZCNT_ALT_UNIT(*t_ptr);

  001b4	48 8b 85 88 00
	00 00		 mov	 rax, QWORD PTR t_ptr$3[rbp]
  001bb	48 8b 08	 mov	 rcx, QWORD PTR [rax]
  001be	e8 00 00 00 00	 call	 _TZCNT_ALT_UNIT
  001c3	8b 8d a4 00 00
	00		 mov	 ecx, DWORD PTR tz_count$4[rbp]
  001c9	03 c8		 add	 ecx, eax
  001cb	8b c1		 mov	 eax, ecx
  001cd	89 85 a4 00 00
	00		 mov	 DWORD PTR tz_count$4[rbp], eax

; 80   :             if (tz_count > 0)

  001d3	83 bd a4 00 00
	00 00		 cmp	 DWORD PTR tz_count$4[rbp], 0
  001da	7e 26		 jle	 SHORT $LN12@GreatestCo

; 81   :                 RightShift_Imp(u, word_count, tz_count, u, TRUE);

  001dc	48 63 85 a4 00
	00 00		 movsxd	 rax, DWORD PTR tz_count$4[rbp]
  001e3	c7 44 24 20 01
	00 00 00	 mov	 DWORD PTR [rsp+32], 1
  001eb	4c 8b 4d 08	 mov	 r9, QWORD PTR u$[rbp]
  001ef	4c 8b c0	 mov	 r8, rax
  001f2	48 8b 95 00 02
	00 00		 mov	 rdx, QWORD PTR word_count$[rbp]
  001f9	48 8b 4d 08	 mov	 rcx, QWORD PTR u$[rbp]
  001fd	e8 00 00 00 00	 call	 ?RightShift_Imp@Internal@Core@Math@Palmtree@@YAXPEA_K_K10H@Z ; Palmtree::Math::Core::Internal::RightShift_Imp
$LN12@GreatestCo:

; 82   :         }

  00202	e9 54 fe ff ff	 jmp	 $LN2@GreatestCo
$LN1@GreatestCo:
$LN13@GreatestCo:

; 83   :     }

  00207	48 8d a5 d8 01
	00 00		 lea	 rsp, QWORD PTR [rbp+472]
  0020e	5f		 pop	 rdi
  0020f	5d		 pop	 rbp
  00210	c3		 ret	 0
?GreatestCommonDivisor_Imp@Internal@Core@Math@Palmtree@@YAXPEA_K0_K00@Z ENDP ; Palmtree::Math::Core::Internal::GreatestCommonDivisor_Imp
_TEXT	ENDS
; Function compile flags: /Odtp /RTCsu /ZI
; File z:\sources\lunor\repos\rougemeilland\palmtree.math.core.uint\palmtree.math.core.uint\pmc_inline_func.h
;	COMDAT _TZCNT_ALT_UNIT
_TEXT	SEGMENT
pos$ = 4
x$ = 256
_TZCNT_ALT_UNIT PROC					; COMDAT

; 505  :         {

  00000	48 89 4c 24 08	 mov	 QWORD PTR [rsp+8], rcx
  00005	55		 push	 rbp
  00006	57		 push	 rdi
  00007	48 81 ec 08 01
	00 00		 sub	 rsp, 264		; 00000108H
  0000e	48 8d 6c 24 20	 lea	 rbp, QWORD PTR [rsp+32]
  00013	48 8b fc	 mov	 rdi, rsp
  00016	b9 42 00 00 00	 mov	 ecx, 66			; 00000042H
  0001b	b8 cc cc cc cc	 mov	 eax, -858993460		; ccccccccH
  00020	f3 ab		 rep stosd
  00022	48 8b 8c 24 28
	01 00 00	 mov	 rcx, QWORD PTR [rsp+296]
  0002a	48 8d 0d 00 00
	00 00		 lea	 rcx, OFFSET FLAT:__8CA3E54E_pmc_inline_func@h
  00031	e8 00 00 00 00	 call	 __CheckForDebuggerJustMyCode

; 506  :             if (x == 0)

  00036	48 83 bd 00 01
	00 00 00	 cmp	 QWORD PTR x$[rbp], 0
  0003e	75 07		 jne	 SHORT $LN2@TZCNT_ALT_

; 507  :                 return (sizeof(x) * 8);

  00040	b8 40 00 00 00	 mov	 eax, 64			; 00000040H
  00045	eb 11		 jmp	 SHORT $LN1@TZCNT_ALT_
$LN2@TZCNT_ALT_:

; 508  : #ifdef _M_IX86
; 509  :             DWORD pos;
; 510  : #ifdef _MSC_VER
; 511  :             _BitScanForward(&pos, x);
; 512  : #elif defined(__GNUC__)
; 513  :             __asm__("bsfl %1, %0" : "=r"(pos) : "rm"(x));
; 514  : #else
; 515  : #error unknown compiler
; 516  : #endif
; 517  : #elif defined(_M_X64)
; 518  : #ifdef _MSC_VER
; 519  :             DWORD pos;
; 520  :             _BitScanForward64(&pos, x);

  00047	48 8b 85 00 01
	00 00		 mov	 rax, QWORD PTR x$[rbp]
  0004e	48 0f bc c0	 bsf	 rax, rax
  00052	89 45 04	 mov	 DWORD PTR pos$[rbp], eax

; 521  : #elif defined(__GNUC__)
; 522  :             _UINT64_T pos;
; 523  :             __asm__("bsfq %1, %0" : "=r"(pos) : "rm"(x));
; 524  : #else
; 525  : #error unknown compiler
; 526  : #endif
; 527  : #else
; 528  : #error unknown platform
; 529  : #endif
; 530  :             return (pos);

  00055	8b 45 04	 mov	 eax, DWORD PTR pos$[rbp]
$LN1@TZCNT_ALT_:

; 531  :         }

  00058	48 8b f8	 mov	 rdi, rax
  0005b	48 8d 4d e0	 lea	 rcx, QWORD PTR [rbp-32]
  0005f	48 8d 15 00 00
	00 00		 lea	 rdx, OFFSET FLAT:_TZCNT_ALT_UNIT$rtcFrameData
  00066	e8 00 00 00 00	 call	 _RTC_CheckStackVars
  0006b	48 8b c7	 mov	 rax, rdi
  0006e	48 8d a5 e8 00
	00 00		 lea	 rsp, QWORD PTR [rbp+232]
  00075	5f		 pop	 rdi
  00076	5d		 pop	 rbp
  00077	c3		 ret	 0
_TZCNT_ALT_UNIT ENDP
_TEXT	ENDS
; Function compile flags: /Odtp /RTCsu /ZI
; File z:\sources\lunor\repos\rougemeilland\palmtree.math.core.uint\palmtree.math.core.uint\pmc_inline_func.h
;	COMDAT _LZCNT_ALT_UNIT
_TEXT	SEGMENT
pos$ = 4
x$ = 256
_LZCNT_ALT_UNIT PROC					; COMDAT

; 454  :         {

  00000	48 89 4c 24 08	 mov	 QWORD PTR [rsp+8], rcx
  00005	55		 push	 rbp
  00006	57		 push	 rdi
  00007	48 81 ec 08 01
	00 00		 sub	 rsp, 264		; 00000108H
  0000e	48 8d 6c 24 20	 lea	 rbp, QWORD PTR [rsp+32]
  00013	48 8b fc	 mov	 rdi, rsp
  00016	b9 42 00 00 00	 mov	 ecx, 66			; 00000042H
  0001b	b8 cc cc cc cc	 mov	 eax, -858993460		; ccccccccH
  00020	f3 ab		 rep stosd
  00022	48 8b 8c 24 28
	01 00 00	 mov	 rcx, QWORD PTR [rsp+296]
  0002a	48 8d 0d 00 00
	00 00		 lea	 rcx, OFFSET FLAT:__8CA3E54E_pmc_inline_func@h
  00031	e8 00 00 00 00	 call	 __CheckForDebuggerJustMyCode

; 455  :             if (x == 0)

  00036	48 83 bd 00 01
	00 00 00	 cmp	 QWORD PTR x$[rbp], 0
  0003e	75 07		 jne	 SHORT $LN2@LZCNT_ALT_

; 456  :                 return (sizeof(x) * 8);

  00040	b8 40 00 00 00	 mov	 eax, 64			; 00000040H
  00045	eb 1c		 jmp	 SHORT $LN1@LZCNT_ALT_
$LN2@LZCNT_ALT_:

; 457  : #ifdef _M_IX86
; 458  :             DWORD pos;
; 459  : #ifdef _MSC_VER
; 460  :             _BitScanReverse(&pos, x);
; 461  : #elif defined(__GNUC__)
; 462  :             __asm__("bsrl %1, %0" : "=r"(pos) : "rm"(x));
; 463  : #else
; 464  : #error unknown compiler
; 465  : #endif
; 466  : #elif defined(_M_X64)
; 467  : #ifdef _MSC_VER
; 468  :             DWORD pos;
; 469  :             _BitScanReverse64(&pos, x);

  00047	48 8b 85 00 01
	00 00		 mov	 rax, QWORD PTR x$[rbp]
  0004e	48 0f bd c0	 bsr	 rax, rax
  00052	89 45 04	 mov	 DWORD PTR pos$[rbp], eax

; 470  : #elif defined(__GNUC__)
; 471  :             _UINT64_T pos;
; 472  :             __asm__("bsrq %1, %0" : "=r"(pos) : "rm"(x));
; 473  : #else
; 474  : #error unknown compiler
; 475  : #endif
; 476  : #else
; 477  : #error unknown platform
; 478  : #endif
; 479  :             return (sizeof(x) * 8 - 1 - pos);

  00055	8b 45 04	 mov	 eax, DWORD PTR pos$[rbp]
  00058	b9 3f 00 00 00	 mov	 ecx, 63			; 0000003fH
  0005d	48 2b c8	 sub	 rcx, rax
  00060	48 8b c1	 mov	 rax, rcx
$LN1@LZCNT_ALT_:

; 480  :         }

  00063	48 8b f8	 mov	 rdi, rax
  00066	48 8d 4d e0	 lea	 rcx, QWORD PTR [rbp-32]
  0006a	48 8d 15 00 00
	00 00		 lea	 rdx, OFFSET FLAT:_LZCNT_ALT_UNIT$rtcFrameData
  00071	e8 00 00 00 00	 call	 _RTC_CheckStackVars
  00076	48 8b c7	 mov	 rax, rdi
  00079	48 8d a5 e8 00
	00 00		 lea	 rsp, QWORD PTR [rbp+232]
  00080	5f		 pop	 rdi
  00081	5d		 pop	 rbp
  00082	c3		 ret	 0
_LZCNT_ALT_UNIT ENDP
_TEXT	ENDS
; Function compile flags: /Odtp /RTCsu /ZI
; File z:\sources\lunor\repos\rougemeilland\palmtree.math.core.uint\palmtree.math.core.uint\pmc_inline_func.h
;	COMDAT _LZCNT_ALT_32
_TEXT	SEGMENT
pos$ = 4
x$ = 256
_LZCNT_ALT_32 PROC					; COMDAT

; 421  :         {

  00000	89 4c 24 08	 mov	 DWORD PTR [rsp+8], ecx
  00004	55		 push	 rbp
  00005	57		 push	 rdi
  00006	48 81 ec 08 01
	00 00		 sub	 rsp, 264		; 00000108H
  0000d	48 8d 6c 24 20	 lea	 rbp, QWORD PTR [rsp+32]
  00012	48 8b fc	 mov	 rdi, rsp
  00015	b9 42 00 00 00	 mov	 ecx, 66			; 00000042H
  0001a	b8 cc cc cc cc	 mov	 eax, -858993460		; ccccccccH
  0001f	f3 ab		 rep stosd
  00021	8b 8c 24 28 01
	00 00		 mov	 ecx, DWORD PTR [rsp+296]
  00028	48 8d 0d 00 00
	00 00		 lea	 rcx, OFFSET FLAT:__8CA3E54E_pmc_inline_func@h
  0002f	e8 00 00 00 00	 call	 __CheckForDebuggerJustMyCode

; 422  :             if (x == 0)

  00034	83 bd 00 01 00
	00 00		 cmp	 DWORD PTR x$[rbp], 0
  0003b	75 07		 jne	 SHORT $LN2@LZCNT_ALT_

; 423  :                 return (sizeof(x) * 8);

  0003d	b8 20 00 00 00	 mov	 eax, 32			; 00000020H
  00042	eb 1a		 jmp	 SHORT $LN1@LZCNT_ALT_
$LN2@LZCNT_ALT_:

; 424  :             DWORD pos;
; 425  : #ifdef _MSC_VER
; 426  :             _BitScanReverse(&pos, x);

  00044	8b 85 00 01 00
	00		 mov	 eax, DWORD PTR x$[rbp]
  0004a	0f bd c0	 bsr	 eax, eax
  0004d	89 45 04	 mov	 DWORD PTR pos$[rbp], eax

; 427  : #elif defined(__GNUC__)
; 428  :             __asm__("bsrl %1, %0" : "=r"(pos) : "rm"(x));
; 429  : #else
; 430  : #error unknown compiler
; 431  : #endif
; 432  :             return (sizeof(x) * 8 - 1 - pos);

  00050	8b 45 04	 mov	 eax, DWORD PTR pos$[rbp]
  00053	b9 1f 00 00 00	 mov	 ecx, 31
  00058	48 2b c8	 sub	 rcx, rax
  0005b	48 8b c1	 mov	 rax, rcx
$LN1@LZCNT_ALT_:

; 433  :         }

  0005e	48 8b f8	 mov	 rdi, rax
  00061	48 8d 4d e0	 lea	 rcx, QWORD PTR [rbp-32]
  00065	48 8d 15 00 00
	00 00		 lea	 rdx, OFFSET FLAT:_LZCNT_ALT_32$rtcFrameData
  0006c	e8 00 00 00 00	 call	 _RTC_CheckStackVars
  00071	48 8b c7	 mov	 rax, rdi
  00074	48 8d a5 e8 00
	00 00		 lea	 rsp, QWORD PTR [rbp+232]
  0007b	5f		 pop	 rdi
  0007c	5d		 pop	 rbp
  0007d	c3		 ret	 0
_LZCNT_ALT_32 ENDP
_TEXT	ENDS
; Function compile flags: /Odtp /RTCsu /ZI
; File z:\sources\lunor\repos\rougemeilland\palmtree.math.core.uint\palmtree.math.core.uint\pmc_inline_func.h
;	COMDAT _MINIMUM_UNIT
_TEXT	SEGMENT
tv65 = 192
x$ = 240
y$ = 248
_MINIMUM_UNIT PROC					; COMDAT

; 171  :         {

  00000	48 89 54 24 10	 mov	 QWORD PTR [rsp+16], rdx
  00005	48 89 4c 24 08	 mov	 QWORD PTR [rsp+8], rcx
  0000a	55		 push	 rbp
  0000b	57		 push	 rdi
  0000c	48 81 ec f8 00
	00 00		 sub	 rsp, 248		; 000000f8H
  00013	48 8d 6c 24 20	 lea	 rbp, QWORD PTR [rsp+32]
  00018	48 8b fc	 mov	 rdi, rsp
  0001b	b9 3e 00 00 00	 mov	 ecx, 62			; 0000003eH
  00020	b8 cc cc cc cc	 mov	 eax, -858993460		; ccccccccH
  00025	f3 ab		 rep stosd
  00027	48 8b 8c 24 18
	01 00 00	 mov	 rcx, QWORD PTR [rsp+280]
  0002f	48 8d 0d 00 00
	00 00		 lea	 rcx, OFFSET FLAT:__8CA3E54E_pmc_inline_func@h
  00036	e8 00 00 00 00	 call	 __CheckForDebuggerJustMyCode

; 172  :             return (x <= y ? x : y);

  0003b	48 8b 85 f8 00
	00 00		 mov	 rax, QWORD PTR y$[rbp]
  00042	48 39 85 f0 00
	00 00		 cmp	 QWORD PTR x$[rbp], rax
  00049	77 10		 ja	 SHORT $LN3@MINIMUM_UN
  0004b	48 8b 85 f0 00
	00 00		 mov	 rax, QWORD PTR x$[rbp]
  00052	48 89 85 c0 00
	00 00		 mov	 QWORD PTR tv65[rbp], rax
  00059	eb 0e		 jmp	 SHORT $LN4@MINIMUM_UN
$LN3@MINIMUM_UN:
  0005b	48 8b 85 f8 00
	00 00		 mov	 rax, QWORD PTR y$[rbp]
  00062	48 89 85 c0 00
	00 00		 mov	 QWORD PTR tv65[rbp], rax
$LN4@MINIMUM_UN:
  00069	48 8b 85 c0 00
	00 00		 mov	 rax, QWORD PTR tv65[rbp]

; 173  :         }

  00070	48 8d a5 d8 00
	00 00		 lea	 rsp, QWORD PTR [rbp+216]
  00077	5f		 pop	 rdi
  00078	5d		 pop	 rbp
  00079	c3		 ret	 0
_MINIMUM_UNIT ENDP
_TEXT	ENDS
; Function compile flags: /Odtp /RTCsu /ZI
; File z:\sources\lunor\repos\rougemeilland\palmtree.math.core.uint\palmtree.math.core.uint\pmc_inline_func.h
;	COMDAT _MAXIMUM_UNIT
_TEXT	SEGMENT
tv65 = 192
x$ = 240
y$ = 248
_MAXIMUM_UNIT PROC					; COMDAT

; 166  :         {

  00000	48 89 54 24 10	 mov	 QWORD PTR [rsp+16], rdx
  00005	48 89 4c 24 08	 mov	 QWORD PTR [rsp+8], rcx
  0000a	55		 push	 rbp
  0000b	57		 push	 rdi
  0000c	48 81 ec f8 00
	00 00		 sub	 rsp, 248		; 000000f8H
  00013	48 8d 6c 24 20	 lea	 rbp, QWORD PTR [rsp+32]
  00018	48 8b fc	 mov	 rdi, rsp
  0001b	b9 3e 00 00 00	 mov	 ecx, 62			; 0000003eH
  00020	b8 cc cc cc cc	 mov	 eax, -858993460		; ccccccccH
  00025	f3 ab		 rep stosd
  00027	48 8b 8c 24 18
	01 00 00	 mov	 rcx, QWORD PTR [rsp+280]
  0002f	48 8d 0d 00 00
	00 00		 lea	 rcx, OFFSET FLAT:__8CA3E54E_pmc_inline_func@h
  00036	e8 00 00 00 00	 call	 __CheckForDebuggerJustMyCode

; 167  :             return (x >= y ? x : y);

  0003b	48 8b 85 f8 00
	00 00		 mov	 rax, QWORD PTR y$[rbp]
  00042	48 39 85 f0 00
	00 00		 cmp	 QWORD PTR x$[rbp], rax
  00049	72 10		 jb	 SHORT $LN3@MAXIMUM_UN
  0004b	48 8b 85 f0 00
	00 00		 mov	 rax, QWORD PTR x$[rbp]
  00052	48 89 85 c0 00
	00 00		 mov	 QWORD PTR tv65[rbp], rax
  00059	eb 0e		 jmp	 SHORT $LN4@MAXIMUM_UN
$LN3@MAXIMUM_UN:
  0005b	48 8b 85 f8 00
	00 00		 mov	 rax, QWORD PTR y$[rbp]
  00062	48 89 85 c0 00
	00 00		 mov	 QWORD PTR tv65[rbp], rax
$LN4@MAXIMUM_UN:
  00069	48 8b 85 c0 00
	00 00		 mov	 rax, QWORD PTR tv65[rbp]

; 168  :         }

  00070	48 8d a5 d8 00
	00 00		 lea	 rsp, QWORD PTR [rbp+216]
  00077	5f		 pop	 rdi
  00078	5d		 pop	 rbp
  00079	c3		 ret	 0
_MAXIMUM_UNIT ENDP
_TEXT	ENDS
; Function compile flags: /Odtp /RTCsu /ZI
; File z:\sources\lunor\repos\rougemeilland\palmtree.math.core.uint\palmtree.math.core.uint\pmc_inline_func.h
;	COMDAT _DIVIDE_CEILING_UNIT
_TEXT	SEGMENT
u$ = 224
v$ = 232
_DIVIDE_CEILING_UNIT PROC				; COMDAT

; 156  :         {

  00000	48 89 54 24 10	 mov	 QWORD PTR [rsp+16], rdx
  00005	48 89 4c 24 08	 mov	 QWORD PTR [rsp+8], rcx
  0000a	55		 push	 rbp
  0000b	57		 push	 rdi
  0000c	48 81 ec e8 00
	00 00		 sub	 rsp, 232		; 000000e8H
  00013	48 8d 6c 24 20	 lea	 rbp, QWORD PTR [rsp+32]
  00018	48 8b fc	 mov	 rdi, rsp
  0001b	b9 3a 00 00 00	 mov	 ecx, 58			; 0000003aH
  00020	b8 cc cc cc cc	 mov	 eax, -858993460		; ccccccccH
  00025	f3 ab		 rep stosd
  00027	48 8b 8c 24 08
	01 00 00	 mov	 rcx, QWORD PTR [rsp+264]
  0002f	48 8d 0d 00 00
	00 00		 lea	 rcx, OFFSET FLAT:__8CA3E54E_pmc_inline_func@h
  00036	e8 00 00 00 00	 call	 __CheckForDebuggerJustMyCode

; 157  :             return ((u + v - 1) / v);

  0003b	48 8b 85 e0 00
	00 00		 mov	 rax, QWORD PTR u$[rbp]
  00042	48 8b 8d e8 00
	00 00		 mov	 rcx, QWORD PTR v$[rbp]
  00049	48 8d 44 08 ff	 lea	 rax, QWORD PTR [rax+rcx-1]
  0004e	33 d2		 xor	 edx, edx
  00050	48 f7 b5 e8 00
	00 00		 div	 QWORD PTR v$[rbp]

; 158  :         }

  00057	48 8d a5 c8 00
	00 00		 lea	 rsp, QWORD PTR [rbp+200]
  0005e	5f		 pop	 rdi
  0005f	5d		 pop	 rbp
  00060	c3		 ret	 0
_DIVIDE_CEILING_UNIT ENDP
_TEXT	ENDS
; Function compile flags: /Odtp /RTCsu /ZI
; File z:\sources\lunor\repos\rougemeilland\palmtree.math.core.uint\palmtree.math.core.uint\pmc_inline_func.h
;	COMDAT _FROMDWORDTOWORD
_TEXT	SEGMENT
value$ = 224
result_high$ = 232
_FROMDWORDTOWORD PROC					; COMDAT

; 145  :         {

  00000	48 89 54 24 10	 mov	 QWORD PTR [rsp+16], rdx
  00005	48 89 4c 24 08	 mov	 QWORD PTR [rsp+8], rcx
  0000a	55		 push	 rbp
  0000b	57		 push	 rdi
  0000c	48 81 ec e8 00
	00 00		 sub	 rsp, 232		; 000000e8H
  00013	48 8d 6c 24 20	 lea	 rbp, QWORD PTR [rsp+32]
  00018	48 8b fc	 mov	 rdi, rsp
  0001b	b9 3a 00 00 00	 mov	 ecx, 58			; 0000003aH
  00020	b8 cc cc cc cc	 mov	 eax, -858993460		; ccccccccH
  00025	f3 ab		 rep stosd
  00027	48 8b 8c 24 08
	01 00 00	 mov	 rcx, QWORD PTR [rsp+264]
  0002f	48 8d 0d 00 00
	00 00		 lea	 rcx, OFFSET FLAT:__8CA3E54E_pmc_inline_func@h
  00036	e8 00 00 00 00	 call	 __CheckForDebuggerJustMyCode

; 146  :             *result_high = (_UINT32_T)(value >> 32);

  0003b	48 8b 85 e0 00
	00 00		 mov	 rax, QWORD PTR value$[rbp]
  00042	48 c1 e8 20	 shr	 rax, 32			; 00000020H
  00046	48 8b 8d e8 00
	00 00		 mov	 rcx, QWORD PTR result_high$[rbp]
  0004d	89 01		 mov	 DWORD PTR [rcx], eax

; 147  :             return ((_UINT32_T)value);

  0004f	8b 85 e0 00 00
	00		 mov	 eax, DWORD PTR value$[rbp]

; 148  :         }

  00055	48 8d a5 c8 00
	00 00		 lea	 rsp, QWORD PTR [rbp+200]
  0005c	5f		 pop	 rdi
  0005d	5d		 pop	 rbp
  0005e	c3		 ret	 0
_FROMDWORDTOWORD ENDP
_TEXT	ENDS
; Function compile flags: /Odtp /RTCsu /ZI
; File z:\sources\lunor\repos\rougemeilland\palmtree.math.core.uint\palmtree.math.core.uint\pmc_inline_func.h
;	COMDAT _COPY_MEMORY_UNIT
_TEXT	SEGMENT
d$ = 224
s$ = 232
count$ = 240
_COPY_MEMORY_UNIT PROC					; COMDAT

; 63   :         {

  00000	4c 89 44 24 18	 mov	 QWORD PTR [rsp+24], r8
  00005	48 89 54 24 10	 mov	 QWORD PTR [rsp+16], rdx
  0000a	48 89 4c 24 08	 mov	 QWORD PTR [rsp+8], rcx
  0000f	55		 push	 rbp
  00010	56		 push	 rsi
  00011	57		 push	 rdi
  00012	48 81 ec e0 00
	00 00		 sub	 rsp, 224		; 000000e0H
  00019	48 8d 6c 24 20	 lea	 rbp, QWORD PTR [rsp+32]
  0001e	48 8b fc	 mov	 rdi, rsp
  00021	b9 38 00 00 00	 mov	 ecx, 56			; 00000038H
  00026	b8 cc cc cc cc	 mov	 eax, -858993460		; ccccccccH
  0002b	f3 ab		 rep stosd
  0002d	48 8b 8c 24 08
	01 00 00	 mov	 rcx, QWORD PTR [rsp+264]
  00035	48 8d 0d 00 00
	00 00		 lea	 rcx, OFFSET FLAT:__8CA3E54E_pmc_inline_func@h
  0003c	e8 00 00 00 00	 call	 __CheckForDebuggerJustMyCode

; 64   : #ifdef _M_IX86
; 65   :             __movsd((unsigned long *)d, (unsigned long *)s, (unsigned long)count);
; 66   : #elif defined(_M_X64)
; 67   :             __movsq(d, s, count);

  00041	48 8b bd e0 00
	00 00		 mov	 rdi, QWORD PTR d$[rbp]
  00048	48 8b b5 e8 00
	00 00		 mov	 rsi, QWORD PTR s$[rbp]
  0004f	48 8b 8d f0 00
	00 00		 mov	 rcx, QWORD PTR count$[rbp]
  00056	f3 48 a5	 rep movsq

; 68   : #else
; 69   : #error unknown platform
; 70   : #endif
; 71   :         }

  00059	48 8d a5 c0 00
	00 00		 lea	 rsp, QWORD PTR [rbp+192]
  00060	5f		 pop	 rdi
  00061	5e		 pop	 rsi
  00062	5d		 pop	 rbp
  00063	c3		 ret	 0
_COPY_MEMORY_UNIT ENDP
_TEXT	ENDS
; Function compile flags: /Odtp /RTCsu /ZI
; File z:\sources\lunor\repos\rougemeilland\palmtree.math.core.uint\palmtree.math.core.uint\pmc_greatestcommondivisor.cpp
;	COMDAT ?PMC_GreatestCommonDivisor_X_X@Internal@Core@Math@Palmtree@@YAPEAU__tag_PMC_HANDLE_UINT@1234@PEAU51234@0@Z
_TEXT	SEGMENT
nu$ = 8
nv$ = 40
root$ = 72
w$ = 136
$T4 = 360
$T5 = 440
$T6 = 520
$T7 = 552
u$ = 608
v$ = 616
?PMC_GreatestCommonDivisor_X_X@Internal@Core@Math@Palmtree@@YAPEAU__tag_PMC_HANDLE_UINT@1234@PEAU51234@0@Z PROC ; Palmtree::Math::Core::Internal::PMC_GreatestCommonDivisor_X_X, COMDAT

; 563  :     {

$LN7:
  00000	48 89 54 24 10	 mov	 QWORD PTR [rsp+16], rdx
  00005	48 89 4c 24 08	 mov	 QWORD PTR [rsp+8], rcx
  0000a	55		 push	 rbp
  0000b	57		 push	 rdi
  0000c	48 81 ec 68 02
	00 00		 sub	 rsp, 616		; 00000268H
  00013	48 8d 6c 24 20	 lea	 rbp, QWORD PTR [rsp+32]
  00018	48 8b fc	 mov	 rdi, rsp
  0001b	b9 9a 00 00 00	 mov	 ecx, 154		; 0000009aH
  00020	b8 cc cc cc cc	 mov	 eax, -858993460		; ccccccccH
  00025	f3 ab		 rep stosd
  00027	48 8b 8c 24 88
	02 00 00	 mov	 rcx, QWORD PTR [rsp+648]
  0002f	48 c7 85 28 02
	00 00 fe ff ff
	ff		 mov	 QWORD PTR $T7[rbp], -2
  0003a	48 8d 0d 00 00
	00 00		 lea	 rcx, OFFSET FLAT:__AACDA9A0_pmc_greatestcommondivisor@cpp
  00041	e8 00 00 00 00	 call	 __CheckForDebuggerJustMyCode

; 564  :         if (u == nullptr)

  00046	48 83 bd 60 02
	00 00 00	 cmp	 QWORD PTR u$[rbp], 0
  0004e	75 2d		 jne	 SHORT $LN2@PMC_Greate

; 565  :             throw ArgumentNullException(L"nullptr", L"u");

  00050	4c 8d 05 00 00
	00 00		 lea	 r8, OFFSET FLAT:??_C@_13ICFKHAEN@?$AAu@
  00057	48 8d 15 00 00
	00 00		 lea	 rdx, OFFSET FLAT:??_C@_1CK@ECFIEPAC@?$AA?$BF?$AAp?$AAk?$AAn?$AAu?$AAl?$AAl?$AAp?$AAt?$AAr?$AAL?$AA?$AO?$AAH?$PP?$IJ?$PP?$IM@
  0005e	48 8d 8d 68 01
	00 00		 lea	 rcx, QWORD PTR $T4[rbp]
  00065	e8 00 00 00 00	 call	 ??0ArgumentNullException@Internal@Core@Math@Palmtree@@QEAA@PEB_W0@Z ; Palmtree::Math::Core::Internal::ArgumentNullException::ArgumentNullException
  0006a	48 8d 15 00 00
	00 00		 lea	 rdx, OFFSET FLAT:_TI2?AVArgumentNullException@Internal@Core@Math@Palmtree@@
  00071	48 8d 8d 68 01
	00 00		 lea	 rcx, QWORD PTR $T4[rbp]
  00078	e8 00 00 00 00	 call	 _CxxThrowException
$LN2@PMC_Greate:

; 566  :         if (v == nullptr)

  0007d	48 83 bd 68 02
	00 00 00	 cmp	 QWORD PTR v$[rbp], 0
  00085	75 2d		 jne	 SHORT $LN3@PMC_Greate

; 567  :             throw ArgumentNullException(L"nullptr", L"v");

  00087	4c 8d 05 00 00
	00 00		 lea	 r8, OFFSET FLAT:??_C@_13JAOPNPKD@?$AAv@
  0008e	48 8d 15 00 00
	00 00		 lea	 rdx, OFFSET FLAT:??_C@_1CK@ECFIEPAC@?$AA?$BF?$AAp?$AAk?$AAn?$AAu?$AAl?$AAl?$AAp?$AAt?$AAr?$AAL?$AA?$AO?$AAH?$PP?$IJ?$PP?$IM@
  00095	48 8d 8d b8 01
	00 00		 lea	 rcx, QWORD PTR $T5[rbp]
  0009c	e8 00 00 00 00	 call	 ??0ArgumentNullException@Internal@Core@Math@Palmtree@@QEAA@PEB_W0@Z ; Palmtree::Math::Core::Internal::ArgumentNullException::ArgumentNullException
  000a1	48 8d 15 00 00
	00 00		 lea	 rdx, OFFSET FLAT:_TI2?AVArgumentNullException@Internal@Core@Math@Palmtree@@
  000a8	48 8d 8d b8 01
