; Listing generated by Microsoft (R) Optimizing Compiler Version 19.16.27027.1 

include listing.inc

INCLUDELIB MSVCRTD
INCLUDELIB OLDNAMES

msvcjmc	SEGMENT
__4384A2D9_corecrt_memcpy_s@h DB 01H
__2CC6E67D_corecrt_stdio_config@h DB 01H
__41381B41_corecrt_wconio@h DB 01H
__F0CC4AC4_corecrt_wio@h DB 01H
__05476D76_corecrt_wstdio@h DB 01H
__4E51A221_corecrt_wstring@h DB 01H
__C0802A2B_corecrt_wtime@h DB 01H
__A40A425D_stat@h DB 01H
__5A74375D_wchar@h DB 01H
__6BC0FD35_vcruntime_new@h DB 01H
__77F53984_cstddef DB 01H
__A73354DD_stdlib@h DB 01H
__188180DA_corecrt_math@h DB 01H
__D23EE329_cstdlib DB 01H
__5ECFF36E_type_traits DB 01H
__331E732B_malloc@h DB 01H
__9BB4E194_vcruntime_exception@h DB 01H
__7949CB39_exception DB 01H
__802FEEC0_pmc_exception@h DB 01H
__7B7A869E_ctype@h DB 01H
__457DD326_basetsd@h DB 01H
__2088847F_corecrt_memory@h DB 01H
__2140C079_string@h DB 01H
__E9FFF232_guiddef@h DB 01H
__1887E595_winnt@h DB 01H
__9FC7C64B_processthreadsapi@h DB 01H
__FA470AEC_memoryapi@h DB 01H
__F37DAFF1_winerror@h DB 01H
__7A450CCC_winbase@h DB 01H
__12AD47BB_winuser@h DB 01H
__B4B40122_winioctl@h DB 01H
__25F3FB34_propidl@h DB 01H
__A40E48B8_oleauto@h DB 01H
__86261D59_stralign@h DB 01H
__BB6D3116_pmc_uint_internal@h DB 01H
__C21BA676_pmc_interface_csharp@cpp DB 01H
msvcjmc	ENDS
PUBLIC	?GetStatusCode@Exception@Internal@Core@Math@Palmtree@@QEBAHXZ ; Palmtree::Math::Core::Internal::Exception::GetStatusCode
PUBLIC	PMCCS_UINT_Initialize
PUBLIC	PMCCS_GetConfigurationSettings
PUBLIC	PMCCS_IS_EVEN
PUBLIC	PMCCS_IS_ONE
PUBLIC	PMCCS_IS_POWER_OF_TWO
PUBLIC	PMCCS_IS_ZERO
PUBLIC	PMCCS_GET_HASH_CODE
PUBLIC	PMCCS_GetStatisticsInfo
PUBLIC	PMCCS_From_I
PUBLIC	PMCCS_From_L
PUBLIC	PMCCS_Dispose
PUBLIC	PMCCS_GetConstantValue_I
PUBLIC	PMCCS_FromByteArray
PUBLIC	PMCCS_ToByteArray
PUBLIC	PMCCS_Clone_X
PUBLIC	PMCCS_GetAllocatedMemorySize
PUBLIC	PMCCS_To_X_I
PUBLIC	PMCCS_To_X_L
PUBLIC	PMCCS_ToString
PUBLIC	PMCCS_Parse
PUBLIC	PMCCS_TryParse
PUBLIC	PMCCS_Add_I_X
PUBLIC	PMCCS_Add_L_X
PUBLIC	PMCCS_Add_X_I
PUBLIC	PMCCS_Add_X_L
PUBLIC	PMCCS_Add_X_X
PUBLIC	PMCCS_Subtruct_I_X
PUBLIC	PMCCS_Subtruct_L_X
PUBLIC	PMCCS_Subtruct_X_I
PUBLIC	PMCCS_Subtruct_X_L
PUBLIC	PMCCS_Subtruct_X_X
PUBLIC	PMCCS_Multiply_I_X
PUBLIC	PMCCS_Multiply_L_X
PUBLIC	PMCCS_Multiply_X_I
PUBLIC	PMCCS_Multiply_X_L
PUBLIC	PMCCS_Multiply_X_X
PUBLIC	PMCCS_DivRem_I_X
PUBLIC	PMCCS_DivRem_L_X
PUBLIC	PMCCS_DivRem_X_I
PUBLIC	PMCCS_DivRem_X_L
PUBLIC	PMCCS_DivRem_X_X
PUBLIC	PMCCS_Remainder_I_X
PUBLIC	PMCCS_Remainder_L_X
PUBLIC	PMCCS_Remainder_X_I
PUBLIC	PMCCS_Remainder_X_L
PUBLIC	PMCCS_Remainder_X_X
PUBLIC	PMCCS_RightShift_X_I
PUBLIC	PMCCS_LeftShift_X_I
PUBLIC	PMCCS_BitwiseAnd_I_X
PUBLIC	PMCCS_BitwiseAnd_L_X
PUBLIC	PMCCS_BitwiseAnd_X_I
PUBLIC	PMCCS_BitwiseAnd_X_L
PUBLIC	PMCCS_BitwiseAnd_X_X
PUBLIC	PMCCS_BitwiseOr_I_X
PUBLIC	PMCCS_BitwiseOr_L_X
PUBLIC	PMCCS_BitwiseOr_X_I
PUBLIC	PMCCS_BitwiseOr_X_L
PUBLIC	PMCCS_BitwiseOr_X_X
PUBLIC	PMCCS_ExclusiveOr_I_X
PUBLIC	PMCCS_ExclusiveOr_L_X
PUBLIC	PMCCS_ExclusiveOr_X_I
PUBLIC	PMCCS_ExclusiveOr_X_L
PUBLIC	PMCCS_ExclusiveOr_X_X
PUBLIC	PMCCS_Compare_I_X
PUBLIC	PMCCS_Compare_L_X
PUBLIC	PMCCS_Compare_X_I
PUBLIC	PMCCS_Compare_X_L
PUBLIC	PMCCS_Compare_X_X
PUBLIC	PMCCS_Equals_I_X
PUBLIC	PMCCS_Equals_L_X
PUBLIC	PMCCS_Equals_X_I
PUBLIC	PMCCS_Equals_X_L
PUBLIC	PMCCS_Equals_X_X
PUBLIC	PMCCS_GreatestCommonDivisor_I_X
PUBLIC	PMCCS_GreatestCommonDivisor_L_X
PUBLIC	PMCCS_GreatestCommonDivisor_X_I
PUBLIC	PMCCS_GreatestCommonDivisor_X_L
PUBLIC	PMCCS_GreatestCommonDivisor_X_X
PUBLIC	PMCCS_Pow_X_I
PUBLIC	PMCCS_Pow_X_L
PUBLIC	PMCCS_ModPow_X_X_X
PUBLIC	PMCCS_TimesOfExponentOf10
PUBLIC	PMCCS_Floor_Log10
PUBLIC	__JustMyCode_Default
PUBLIC	??_R0?AVException@Internal@Core@Math@Palmtree@@@8 ; Palmtree::Math::Core::Internal::Exception `RTTI Type Descriptor'
EXTRN	PMC_UINT_Initialize:PROC
EXTRN	?PMC_GetConfigurationSettings@Internal@Core@Math@Palmtree@@YAHPEB_WPEA_WHPEAH@Z:PROC ; Palmtree::Math::Core::Internal::PMC_GetConfigurationSettings
EXTRN	?PMC_GetStatisticsInfo@Internal@Core@Math@Palmtree@@YAXPEAU__tag_PMC_STATISTICS_INFO@1234@@Z:PROC ; Palmtree::Math::Core::Internal::PMC_GetStatisticsInfo
EXTRN	?PMC_From_I@Internal@Core@Math@Palmtree@@YAPEAU__tag_PMC_HANDLE_UINT@1234@I@Z:PROC ; Palmtree::Math::Core::Internal::PMC_From_I
EXTRN	?PMC_From_L@Internal@Core@Math@Palmtree@@YAPEAU__tag_PMC_HANDLE_UINT@1234@_K@Z:PROC ; Palmtree::Math::Core::Internal::PMC_From_L
EXTRN	?PMC_Dispose@Internal@Core@Math@Palmtree@@YAXPEAU__tag_PMC_HANDLE_UINT@1234@@Z:PROC ; Palmtree::Math::Core::Internal::PMC_Dispose
EXTRN	?PMC_GetConstantValue_I@Internal@Core@Math@Palmtree@@YAPEAU__tag_PMC_HANDLE_UINT@1234@H@Z:PROC ; Palmtree::Math::Core::Internal::PMC_GetConstantValue_I
EXTRN	?PMC_FromByteArray@Internal@Core@Math@Palmtree@@YAPEAU__tag_PMC_HANDLE_UINT@1234@PEBE_K@Z:PROC ; Palmtree::Math::Core::Internal::PMC_FromByteArray
EXTRN	?PMC_ToByteArray@Internal@Core@Math@Palmtree@@YA_KPEAU__tag_PMC_HANDLE_UINT@1234@PEAE_K@Z:PROC ; Palmtree::Math::Core::Internal::PMC_ToByteArray
EXTRN	?PMC_Clone_X@Internal@Core@Math@Palmtree@@YAPEAU__tag_PMC_HANDLE_UINT@1234@PEAU51234@@Z:PROC ; Palmtree::Math::Core::Internal::PMC_Clone_X
EXTRN	?PMC_GetAllocatedMemorySize@Internal@Core@Math@Palmtree@@YA_KXZ:PROC ; Palmtree::Math::Core::Internal::PMC_GetAllocatedMemorySize
EXTRN	?PMC_To_X_I@Internal@Core@Math@Palmtree@@YAIPEAU__tag_PMC_HANDLE_UINT@1234@@Z:PROC ; Palmtree::Math::Core::Internal::PMC_To_X_I
EXTRN	?PMC_To_X_L@Internal@Core@Math@Palmtree@@YA_KPEAU__tag_PMC_HANDLE_UINT@1234@@Z:PROC ; Palmtree::Math::Core::Internal::PMC_To_X_L
EXTRN	?PMC_ToString@Internal@Core@Math@Palmtree@@YA_KPEAU__tag_PMC_HANDLE_UINT@1234@PEB_WPEBU__tag_PMC_NUMBER_FORMAT_INFO@1234@PEA_W_K@Z:PROC ; Palmtree::Math::Core::Internal::PMC_ToString
EXTRN	?PMC_TryParse@Internal@Core@Math@Palmtree@@YAHPEB_WHPEBU__tag_PMC_NUMBER_FORMAT_INFO@1234@PEAPEAU__tag_PMC_HANDLE_UINT@1234@PEAI@Z:PROC ; Palmtree::Math::Core::Internal::PMC_TryParse
EXTRN	?PMC_Add_I_X@Internal@Core@Math@Palmtree@@YAPEAU__tag_PMC_HANDLE_UINT@1234@IPEAU51234@@Z:PROC ; Palmtree::Math::Core::Internal::PMC_Add_I_X
EXTRN	?PMC_Add_L_X@Internal@Core@Math@Palmtree@@YAPEAU__tag_PMC_HANDLE_UINT@1234@_KPEAU51234@@Z:PROC ; Palmtree::Math::Core::Internal::PMC_Add_L_X
EXTRN	?PMC_Add_X_I@Internal@Core@Math@Palmtree@@YAPEAU__tag_PMC_HANDLE_UINT@1234@PEAU51234@I@Z:PROC ; Palmtree::Math::Core::Internal::PMC_Add_X_I
EXTRN	?PMC_Add_X_L@Internal@Core@Math@Palmtree@@YAPEAU__tag_PMC_HANDLE_UINT@1234@PEAU51234@_K@Z:PROC ; Palmtree::Math::Core::Internal::PMC_Add_X_L
EXTRN	?PMC_Add_X_X@Internal@Core@Math@Palmtree@@YAPEAU__tag_PMC_HANDLE_UINT@1234@PEAU51234@0@Z:PROC ; Palmtree::Math::Core::Internal::PMC_Add_X_X
EXTRN	?PMC_Subtruct_I_X@Internal@Core@Math@Palmtree@@YAIIPEAU__tag_PMC_HANDLE_UINT@1234@@Z:PROC ; Palmtree::Math::Core::Internal::PMC_Subtruct_I_X
EXTRN	?PMC_Subtruct_L_X@Internal@Core@Math@Palmtree@@YA_K_KPEAU__tag_PMC_HANDLE_UINT@1234@@Z:PROC ; Palmtree::Math::Core::Internal::PMC_Subtruct_L_X
EXTRN	?PMC_Subtruct_X_I@Internal@Core@Math@Palmtree@@YAPEAU__tag_PMC_HANDLE_UINT@1234@PEAU51234@I@Z:PROC ; Palmtree::Math::Core::Internal::PMC_Subtruct_X_I
EXTRN	?PMC_Subtruct_X_L@Internal@Core@Math@Palmtree@@YAPEAU__tag_PMC_HANDLE_UINT@1234@PEAU51234@_K@Z:PROC ; Palmtree::Math::Core::Internal::PMC_Subtruct_X_L
EXTRN	?PMC_Subtruct_X_X@Internal@Core@Math@Palmtree@@YAPEAU__tag_PMC_HANDLE_UINT@1234@PEAU51234@0@Z:PROC ; Palmtree::Math::Core::Internal::PMC_Subtruct_X_X
EXTRN	?PMC_Multiply_I_X@Internal@Core@Math@Palmtree@@YAPEAU__tag_PMC_HANDLE_UINT@1234@IPEAU51234@@Z:PROC ; Palmtree::Math::Core::Internal::PMC_Multiply_I_X
EXTRN	?PMC_Multiply_L_X@Internal@Core@Math@Palmtree@@YAPEAU__tag_PMC_HANDLE_UINT@1234@_KPEAU51234@@Z:PROC ; Palmtree::Math::Core::Internal::PMC_Multiply_L_X
EXTRN	?PMC_Multiply_X_I@Internal@Core@Math@Palmtree@@YAPEAU__tag_PMC_HANDLE_UINT@1234@PEAU51234@I@Z:PROC ; Palmtree::Math::Core::Internal::PMC_Multiply_X_I
EXTRN	?PMC_Multiply_X_L@Internal@Core@Math@Palmtree@@YAPEAU__tag_PMC_HANDLE_UINT@1234@PEAU51234@_K@Z:PROC ; Palmtree::Math::Core::Internal::PMC_Multiply_X_L
EXTRN	?PMC_Multiply_X_X@Internal@Core@Math@Palmtree@@YAPEAU__tag_PMC_HANDLE_UINT@1234@PEAU51234@0@Z:PROC ; Palmtree::Math::Core::Internal::PMC_Multiply_X_X
EXTRN	?PMC_DivRem_I_X@Internal@Core@Math@Palmtree@@YAIIPEAU__tag_PMC_HANDLE_UINT@1234@PEAI@Z:PROC ; Palmtree::Math::Core::Internal::PMC_DivRem_I_X
EXTRN	?PMC_DivRem_L_X@Internal@Core@Math@Palmtree@@YA_K_KPEAU__tag_PMC_HANDLE_UINT@1234@PEA_K@Z:PROC ; Palmtree::Math::Core::Internal::PMC_DivRem_L_X
EXTRN	?PMC_DivRem_X_I@Internal@Core@Math@Palmtree@@YAIPEAU__tag_PMC_HANDLE_UINT@1234@IPEAPEAU51234@@Z:PROC ; Palmtree::Math::Core::Internal::PMC_DivRem_X_I
EXTRN	?PMC_DivRem_X_L@Internal@Core@Math@Palmtree@@YA_KPEAU__tag_PMC_HANDLE_UINT@1234@_KPEAPEAU51234@@Z:PROC ; Palmtree::Math::Core::Internal::PMC_DivRem_X_L
EXTRN	?PMC_DivRem_X_X@Internal@Core@Math@Palmtree@@YAPEAU__tag_PMC_HANDLE_UINT@1234@PEAU51234@0PEAPEAU51234@@Z:PROC ; Palmtree::Math::Core::Internal::PMC_DivRem_X_X
EXTRN	?PMC_RightShift_X_I@Internal@Core@Math@Palmtree@@YAPEAU__tag_PMC_HANDLE_UINT@1234@PEAU51234@H@Z:PROC ; Palmtree::Math::Core::Internal::PMC_RightShift_X_I
EXTRN	?PMC_LeftShift_X_I@Internal@Core@Math@Palmtree@@YAPEAU__tag_PMC_HANDLE_UINT@1234@PEAU51234@H@Z:PROC ; Palmtree::Math::Core::Internal::PMC_LeftShift_X_I
EXTRN	?PMC_BitwiseAnd_I_X@Internal@Core@Math@Palmtree@@YAIIPEAU__tag_PMC_HANDLE_UINT@1234@@Z:PROC ; Palmtree::Math::Core::Internal::PMC_BitwiseAnd_I_X
EXTRN	?PMC_BitwiseAnd_L_X@Internal@Core@Math@Palmtree@@YA_K_KPEAU__tag_PMC_HANDLE_UINT@1234@@Z:PROC ; Palmtree::Math::Core::Internal::PMC_BitwiseAnd_L_X
EXTRN	?PMC_BitwiseAnd_X_I@Internal@Core@Math@Palmtree@@YAIPEAU__tag_PMC_HANDLE_UINT@1234@I@Z:PROC ; Palmtree::Math::Core::Internal::PMC_BitwiseAnd_X_I
EXTRN	?PMC_BitwiseAnd_X_L@Internal@Core@Math@Palmtree@@YA_KPEAU__tag_PMC_HANDLE_UINT@1234@_K@Z:PROC ; Palmtree::Math::Core::Internal::PMC_BitwiseAnd_X_L
EXTRN	?PMC_BitwiseAnd_X_X@Internal@Core@Math@Palmtree@@YAPEAU__tag_PMC_HANDLE_UINT@1234@PEAU51234@0@Z:PROC ; Palmtree::Math::Core::Internal::PMC_BitwiseAnd_X_X
EXTRN	?PMC_BitwiseOr_I_X@Internal@Core@Math@Palmtree@@YAPEAU__tag_PMC_HANDLE_UINT@1234@IPEAU51234@@Z:PROC ; Palmtree::Math::Core::Internal::PMC_BitwiseOr_I_X
EXTRN	?PMC_BitwiseOr_L_X@Internal@Core@Math@Palmtree@@YAPEAU__tag_PMC_HANDLE_UINT@1234@_KPEAU51234@@Z:PROC ; Palmtree::Math::Core::Internal::PMC_BitwiseOr_L_X
EXTRN	?PMC_BitwiseOr_X_I@Internal@Core@Math@Palmtree@@YAPEAU__tag_PMC_HANDLE_UINT@1234@PEAU51234@I@Z:PROC ; Palmtree::Math::Core::Internal::PMC_BitwiseOr_X_I
EXTRN	?PMC_BitwiseOr_X_L@Internal@Core@Math@Palmtree@@YAPEAU__tag_PMC_HANDLE_UINT@1234@PEAU51234@_K@Z:PROC ; Palmtree::Math::Core::Internal::PMC_BitwiseOr_X_L
EXTRN	?PMC_BitwiseOr_X_X@Internal@Core@Math@Palmtree@@YAPEAU__tag_PMC_HANDLE_UINT@1234@PEAU51234@0@Z:PROC ; Palmtree::Math::Core::Internal::PMC_BitwiseOr_X_X
EXTRN	?PMC_ExclusiveOr_I_X@Internal@Core@Math@Palmtree@@YAPEAU__tag_PMC_HANDLE_UINT@1234@IPEAU51234@@Z:PROC ; Palmtree::Math::Core::Internal::PMC_ExclusiveOr_I_X
EXTRN	?PMC_ExclusiveOr_L_X@Internal@Core@Math@Palmtree@@YAPEAU__tag_PMC_HANDLE_UINT@1234@_KPEAU51234@@Z:PROC ; Palmtree::Math::Core::Internal::PMC_ExclusiveOr_L_X
EXTRN	?PMC_ExclusiveOr_X_I@Internal@Core@Math@Palmtree@@YAPEAU__tag_PMC_HANDLE_UINT@1234@PEAU51234@I@Z:PROC ; Palmtree::Math::Core::Internal::PMC_ExclusiveOr_X_I
EXTRN	?PMC_ExclusiveOr_X_L@Internal@Core@Math@Palmtree@@YAPEAU__tag_PMC_HANDLE_UINT@1234@PEAU51234@_K@Z:PROC ; Palmtree::Math::Core::Internal::PMC_ExclusiveOr_X_L
EXTRN	?PMC_ExclusiveOr_X_X@Internal@Core@Math@Palmtree@@YAPEAU__tag_PMC_HANDLE_UINT@1234@PEAU51234@0@Z:PROC ; Palmtree::Math::Core::Internal::PMC_ExclusiveOr_X_X
EXTRN	?PMC_Compare_I_X@Internal@Core@Math@Palmtree@@YAHIPEAU__tag_PMC_HANDLE_UINT@1234@@Z:PROC ; Palmtree::Math::Core::Internal::PMC_Compare_I_X
EXTRN	?PMC_Compare_L_X@Internal@Core@Math@Palmtree@@YAH_KPEAU__tag_PMC_HANDLE_UINT@1234@@Z:PROC ; Palmtree::Math::Core::Internal::PMC_Compare_L_X
EXTRN	?PMC_Compare_X_I@Internal@Core@Math@Palmtree@@YAHPEAU__tag_PMC_HANDLE_UINT@1234@I@Z:PROC ; Palmtree::Math::Core::Internal::PMC_Compare_X_I
EXTRN	?PMC_Compare_X_L@Internal@Core@Math@Palmtree@@YAHPEAU__tag_PMC_HANDLE_UINT@1234@_K@Z:PROC ; Palmtree::Math::Core::Internal::PMC_Compare_X_L
EXTRN	?PMC_Compare_X_X@Internal@Core@Math@Palmtree@@YAHPEAU__tag_PMC_HANDLE_UINT@1234@0@Z:PROC ; Palmtree::Math::Core::Internal::PMC_Compare_X_X
EXTRN	?PMC_Equals_I_X@Internal@Core@Math@Palmtree@@YAIIPEAU__tag_PMC_HANDLE_UINT@1234@@Z:PROC ; Palmtree::Math::Core::Internal::PMC_Equals_I_X
EXTRN	?PMC_Equals_L_X@Internal@Core@Math@Palmtree@@YAI_KPEAU__tag_PMC_HANDLE_UINT@1234@@Z:PROC ; Palmtree::Math::Core::Internal::PMC_Equals_L_X
EXTRN	?PMC_Equals_X_I@Internal@Core@Math@Palmtree@@YAIPEAU__tag_PMC_HANDLE_UINT@1234@I@Z:PROC ; Palmtree::Math::Core::Internal::PMC_Equals_X_I
EXTRN	?PMC_Equals_X_L@Internal@Core@Math@Palmtree@@YAIPEAU__tag_PMC_HANDLE_UINT@1234@_K@Z:PROC ; Palmtree::Math::Core::Internal::PMC_Equals_X_L
EXTRN	?PMC_Equals_X_X@Internal@Core@Math@Palmtree@@YAIPEAU__tag_PMC_HANDLE_UINT@1234@0@Z:PROC ; Palmtree::Math::Core::Internal::PMC_Equals_X_X
EXTRN	?PMC_GreatestCommonDivisor_I_X@Internal@Core@Math@Palmtree@@YAPEAU__tag_PMC_HANDLE_UINT@1234@IPEAU51234@@Z:PROC ; Palmtree::Math::Core::Internal::PMC_GreatestCommonDivisor_I_X
EXTRN	?PMC_GreatestCommonDivisor_L_X@Internal@Core@Math@Palmtree@@YAPEAU__tag_PMC_HANDLE_UINT@1234@_KPEAU51234@@Z:PROC ; Palmtree::Math::Core::Internal::PMC_GreatestCommonDivisor_L_X
EXTRN	?PMC_GreatestCommonDivisor_X_I@Internal@Core@Math@Palmtree@@YAPEAU__tag_PMC_HANDLE_UINT@1234@PEAU51234@I@Z:PROC ; Palmtree::Math::Core::Internal::PMC_GreatestCommonDivisor_X_I
EXTRN	?PMC_GreatestCommonDivisor_X_L@Internal@Core@Math@Palmtree@@YAPEAU__tag_PMC_HANDLE_UINT@1234@PEAU51234@_K@Z:PROC ; Palmtree::Math::Core::Internal::PMC_GreatestCommonDivisor_X_L
EXTRN	?PMC_GreatestCommonDivisor_X_X@Internal@Core@Math@Palmtree@@YAPEAU__tag_PMC_HANDLE_UINT@1234@PEAU51234@0@Z:PROC ; Palmtree::Math::Core::Internal::PMC_GreatestCommonDivisor_X_X
EXTRN	?PMC_Pow_X_I@Internal@Core@Math@Palmtree@@YAPEAU__tag_PMC_HANDLE_UINT@1234@PEAU51234@I@Z:PROC ; Palmtree::Math::Core::Internal::PMC_Pow_X_I
EXTRN	?PMC_Pow_X_L@Internal@Core@Math@Palmtree@@YAPEAU__tag_PMC_HANDLE_UINT@1234@PEAU51234@_K@Z:PROC ; Palmtree::Math::Core::Internal::PMC_Pow_X_L
EXTRN	?PMC_ModPow_X_X_X@Internal@Core@Math@Palmtree@@YAPEAU__tag_PMC_HANDLE_UINT@1234@PEAU51234@00@Z:PROC ; Palmtree::Math::Core::Internal::PMC_ModPow_X_X_X
EXTRN	?PMC_TimesOfExponentOf10@Internal@Core@Math@Palmtree@@YAPEAU__tag_PMC_HANDLE_UINT@1234@II@Z:PROC ; Palmtree::Math::Core::Internal::PMC_TimesOfExponentOf10
EXTRN	?PMC_Floor_Log10@Internal@Core@Math@Palmtree@@YAIPEAU__tag_PMC_HANDLE_UINT@1234@@Z:PROC ; Palmtree::Math::Core::Internal::PMC_Floor_Log10
EXTRN	_RTC_CheckStackVars:PROC
EXTRN	_RTC_InitBase:PROC
EXTRN	_RTC_Shutdown:PROC
EXTRN	__CheckForDebuggerJustMyCode:PROC
EXTRN	__CxxFrameHandler3:PROC
EXTRN	??_7type_info@@6B@:BYTE				; type_info::`vftable'
;	COMDAT pdata
pdata	SEGMENT
$pdata$?GetStatusCode@Exception@Internal@Core@Math@Palmtree@@QEBAHXZ DD imagerel $LN3
	DD	imagerel $LN3+86
	DD	imagerel $unwind$?GetStatusCode@Exception@Internal@Core@Math@Palmtree@@QEBAHXZ
pdata	ENDS
;	COMDAT pdata
pdata	SEGMENT
$pdata$PMCCS_UINT_Initialize DD imagerel $LN5
	DD	imagerel $LN5+115
	DD	imagerel $unwind$PMCCS_UINT_Initialize
pdata	ENDS
;	COMDAT pdata
pdata	SEGMENT
$pdata$PMCCS_GetConfigurationSettings DD imagerel $LN3
	DD	imagerel $LN3+112
	DD	imagerel $unwind$PMCCS_GetConfigurationSettings
pdata	ENDS
;	COMDAT pdata
pdata	SEGMENT
$pdata$PMCCS_IS_EVEN DD imagerel $LN11
	DD	imagerel $LN11+174
	DD	imagerel $unwind$PMCCS_IS_EVEN
pdata	ENDS
;	COMDAT pdata
pdata	SEGMENT
$pdata$PMCCS_IS_EVEN$catch$0 DD imagerel PMCCS_IS_EVEN$catch$0
	DD	imagerel PMCCS_IS_EVEN$catch$0+59
	DD	imagerel $unwind$PMCCS_IS_EVEN$catch$0
pdata	ENDS
;	COMDAT pdata
pdata	SEGMENT
$pdata$PMCCS_IS_ONE DD imagerel $LN11
	DD	imagerel $LN11+173
	DD	imagerel $unwind$PMCCS_IS_ONE
pdata	ENDS
;	COMDAT pdata
pdata	SEGMENT
$pdata$PMCCS_IS_ONE$catch$0 DD imagerel PMCCS_IS_ONE$catch$0
	DD	imagerel PMCCS_IS_ONE$catch$0+59
	DD	imagerel $unwind$PMCCS_IS_ONE$catch$0
pdata	ENDS
;	COMDAT pdata
pdata	SEGMENT
$pdata$PMCCS_IS_POWER_OF_TWO DD imagerel $LN11
	DD	imagerel $LN11+174
	DD	imagerel $unwind$PMCCS_IS_POWER_OF_TWO
pdata	ENDS
;	COMDAT pdata
pdata	SEGMENT
$pdata$PMCCS_IS_POWER_OF_TWO$catch$0 DD imagerel PMCCS_IS_POWER_OF_TWO$catch$0
	DD	imagerel PMCCS_IS_POWER_OF_TWO$catch$0+59
	DD	imagerel $unwind$PMCCS_IS_POWER_OF_TWO$catch$0
pdata	ENDS
;	COMDAT pdata
pdata	SEGMENT
$pdata$PMCCS_IS_ZERO DD imagerel $LN11
	DD	imagerel $LN11+171
	DD	imagerel $unwind$PMCCS_IS_ZERO
pdata	ENDS
;	COMDAT pdata
pdata	SEGMENT
$pdata$PMCCS_IS_ZERO$catch$0 DD imagerel PMCCS_IS_ZERO$catch$0
	DD	imagerel PMCCS_IS_ZERO$catch$0+59
	DD	imagerel $unwind$PMCCS_IS_ZERO$catch$0
pdata	ENDS
;	COMDAT pdata
pdata	SEGMENT
$pdata$PMCCS_GET_HASH_CODE DD imagerel $LN11
	DD	imagerel $LN11+167
	DD	imagerel $unwind$PMCCS_GET_HASH_CODE
pdata	ENDS
;	COMDAT pdata
pdata	SEGMENT
$pdata$PMCCS_GET_HASH_CODE$catch$0 DD imagerel PMCCS_GET_HASH_CODE$catch$0
	DD	imagerel PMCCS_GET_HASH_CODE$catch$0+59
	DD	imagerel $unwind$PMCCS_GET_HASH_CODE$catch$0
pdata	ENDS
;	COMDAT pdata
pdata	SEGMENT
$pdata$PMCCS_GetStatisticsInfo DD imagerel $LN3
	DD	imagerel $LN3+76
	DD	imagerel $unwind$PMCCS_GetStatisticsInfo
pdata	ENDS
;	COMDAT pdata
pdata	SEGMENT
$pdata$PMCCS_From_I DD imagerel $LN10
	DD	imagerel $LN10+151
	DD	imagerel $unwind$PMCCS_From_I
pdata	ENDS
;	COMDAT pdata
pdata	SEGMENT
$pdata$PMCCS_From_I$catch$0 DD imagerel PMCCS_From_I$catch$0
	DD	imagerel PMCCS_From_I$catch$0+59
	DD	imagerel $unwind$PMCCS_From_I$catch$0
pdata	ENDS
;	COMDAT pdata
pdata	SEGMENT
$pdata$PMCCS_From_L DD imagerel $LN10
	DD	imagerel $LN10+154
	DD	imagerel $unwind$PMCCS_From_L
pdata	ENDS
;	COMDAT pdata
pdata	SEGMENT
$pdata$PMCCS_From_L$catch$0 DD imagerel PMCCS_From_L$catch$0
	DD	imagerel PMCCS_From_L$catch$0+59
	DD	imagerel $unwind$PMCCS_From_L$catch$0
pdata	ENDS
;	COMDAT pdata
pdata	SEGMENT
$pdata$PMCCS_Dispose DD imagerel $LN10
	DD	imagerel $LN10+139
	DD	imagerel $unwind$PMCCS_Dispose
pdata	ENDS
;	COMDAT pdata
pdata	SEGMENT
$pdata$PMCCS_Dispose$catch$0 DD imagerel PMCCS_Dispose$catch$0
	DD	imagerel PMCCS_Dispose$catch$0+59
	DD	imagerel $unwind$PMCCS_Dispose$catch$0
pdata	ENDS
;	COMDAT pdata
pdata	SEGMENT
$pdata$PMCCS_GetConstantValue_I DD imagerel $LN10
	DD	imagerel $LN10+151
	DD	imagerel $unwind$PMCCS_GetConstantValue_I
pdata	ENDS
;	COMDAT pdata
pdata	SEGMENT
$pdata$PMCCS_GetConstantValue_I$catch$0 DD imagerel PMCCS_GetConstantValue_I$catch$0
	DD	imagerel PMCCS_GetConstantValue_I$catch$0+59
	DD	imagerel $unwind$PMCCS_GetConstantValue_I$catch$0
pdata	ENDS
;	COMDAT pdata
pdata	SEGMENT
$pdata$PMCCS_FromByteArray DD imagerel $LN10
	DD	imagerel $LN10+168
	DD	imagerel $unwind$PMCCS_FromByteArray
pdata	ENDS
;	COMDAT pdata
pdata	SEGMENT
$pdata$PMCCS_FromByteArray$catch$0 DD imagerel PMCCS_FromByteArray$catch$0
	DD	imagerel PMCCS_FromByteArray$catch$0+59
	DD	imagerel $unwind$PMCCS_FromByteArray$catch$0
pdata	ENDS
;	COMDAT pdata
pdata	SEGMENT
$pdata$PMCCS_ToByteArray DD imagerel $LN11
	DD	imagerel $LN11+204
	DD	imagerel $unwind$PMCCS_ToByteArray
pdata	ENDS
;	COMDAT pdata
pdata	SEGMENT
$pdata$PMCCS_ToByteArray$catch$0 DD imagerel PMCCS_ToByteArray$catch$0
	DD	imagerel PMCCS_ToByteArray$catch$0+59
	DD	imagerel $unwind$PMCCS_ToByteArray$catch$0
pdata	ENDS
;	COMDAT pdata
pdata	SEGMENT
$pdata$PMCCS_Clone_X DD imagerel $LN10
	DD	imagerel $LN10+154
	DD	imagerel $unwind$PMCCS_Clone_X
pdata	ENDS
;	COMDAT pdata
pdata	SEGMENT
$pdata$PMCCS_Clone_X$catch$0 DD imagerel PMCCS_Clone_X$catch$0
	DD	imagerel PMCCS_Clone_X$catch$0+59
	DD	imagerel $unwind$PMCCS_Clone_X$catch$0
pdata	ENDS
;	COMDAT pdata
pdata	SEGMENT
$pdata$PMCCS_GetAllocatedMemorySize DD imagerel $LN10
	DD	imagerel $LN10+142
	DD	imagerel $unwind$PMCCS_GetAllocatedMemorySize
pdata	ENDS
;	COMDAT pdata
pdata	SEGMENT
$pdata$PMCCS_GetAllocatedMemorySize$catch$0 DD imagerel PMCCS_GetAllocatedMemorySize$catch$0
	DD	imagerel PMCCS_GetAllocatedMemorySize$catch$0+59
	DD	imagerel $unwind$PMCCS_GetAllocatedMemorySize$catch$0
pdata	ENDS
;	COMDAT pdata
pdata	SEGMENT
$pdata$PMCCS_To_X_I DD imagerel $LN10
	DD	imagerel $LN10+153
	DD	imagerel $unwind$PMCCS_To_X_I
pdata	ENDS
;	COMDAT pdata
pdata	SEGMENT
$pdata$PMCCS_To_X_I$catch$0 DD imagerel PMCCS_To_X_I$catch$0
	DD	imagerel PMCCS_To_X_I$catch$0+59
	DD	imagerel $unwind$PMCCS_To_X_I$catch$0
pdata	ENDS
;	COMDAT pdata
pdata	SEGMENT
$pdata$PMCCS_To_X_L DD imagerel $LN10
	DD	imagerel $LN10+154
	DD	imagerel $unwind$PMCCS_To_X_L
pdata	ENDS
;	COMDAT pdata
pdata	SEGMENT
$pdata$PMCCS_To_X_L$catch$0 DD imagerel PMCCS_To_X_L$catch$0
	DD	imagerel PMCCS_To_X_L$catch$0+59
	DD	imagerel $unwind$PMCCS_To_X_L$catch$0
pdata	ENDS
;	COMDAT pdata
pdata	SEGMENT
$pdata$PMCCS_ToString DD imagerel $LN11
	DD	imagerel $LN11+220
	DD	imagerel $unwind$PMCCS_ToString
pdata	ENDS
;	COMDAT pdata
pdata	SEGMENT
$pdata$PMCCS_ToString$catch$0 DD imagerel PMCCS_ToString$catch$0
	DD	imagerel PMCCS_ToString$catch$0+59
	DD	imagerel $unwind$PMCCS_ToString$catch$0
pdata	ENDS
;	COMDAT pdata
pdata	SEGMENT
$pdata$PMCCS_Parse DD imagerel $LN13
	DD	imagerel $LN13+244
	DD	imagerel $unwind$PMCCS_Parse
pdata	ENDS
;	COMDAT pdata
pdata	SEGMENT
$pdata$PMCCS_Parse$catch$0 DD imagerel PMCCS_Parse$catch$0
	DD	imagerel PMCCS_Parse$catch$0+59
	DD	imagerel $unwind$PMCCS_Parse$catch$0
pdata	ENDS
;	COMDAT pdata
pdata	SEGMENT
$pdata$PMCCS_TryParse DD imagerel $LN12
	DD	imagerel $LN12+228
	DD	imagerel $unwind$PMCCS_TryParse
pdata	ENDS
;	COMDAT pdata
pdata	SEGMENT
$pdata$PMCCS_TryParse$catch$0 DD imagerel PMCCS_TryParse$catch$0
	DD	imagerel PMCCS_TryParse$catch$0+59
	DD	imagerel $unwind$PMCCS_TryParse$catch$0
pdata	ENDS
;	COMDAT pdata
pdata	SEGMENT
$pdata$PMCCS_Add_I_X DD imagerel $LN10
	DD	imagerel $LN10+163
	DD	imagerel $unwind$PMCCS_Add_I_X
pdata	ENDS
;	COMDAT pdata
pdata	SEGMENT
$pdata$PMCCS_Add_I_X$catch$0 DD imagerel PMCCS_Add_I_X$catch$0
	DD	imagerel PMCCS_Add_I_X$catch$0+59
	DD	imagerel $unwind$PMCCS_Add_I_X$catch$0
pdata	ENDS
;	COMDAT pdata
pdata	SEGMENT
$pdata$PMCCS_Add_L_X DD imagerel $LN10
	DD	imagerel $LN10+166
	DD	imagerel $unwind$PMCCS_Add_L_X
pdata	ENDS
;	COMDAT pdata
pdata	SEGMENT
$pdata$PMCCS_Add_L_X$catch$0 DD imagerel PMCCS_Add_L_X$catch$0
	DD	imagerel PMCCS_Add_L_X$catch$0+59
	DD	imagerel $unwind$PMCCS_Add_L_X$catch$0
pdata	ENDS
;	COMDAT pdata
pdata	SEGMENT
$pdata$PMCCS_Add_X_I DD imagerel $LN10
	DD	imagerel $LN10+164
	DD	imagerel $unwind$PMCCS_Add_X_I
pdata	ENDS
;	COMDAT pdata
pdata	SEGMENT
$pdata$PMCCS_Add_X_I$catch$0 DD imagerel PMCCS_Add_X_I$catch$0
	DD	imagerel PMCCS_Add_X_I$catch$0+59
	DD	imagerel $unwind$PMCCS_Add_X_I$catch$0
pdata	ENDS
;	COMDAT pdata
pdata	SEGMENT
$pdata$PMCCS_Add_X_L DD imagerel $LN10
	DD	imagerel $LN10+166
	DD	imagerel $unwind$PMCCS_Add_X_L
pdata	ENDS
;	COMDAT pdata
pdata	SEGMENT
$pdata$PMCCS_Add_X_L$catch$0 DD imagerel PMCCS_Add_X_L$catch$0
	DD	imagerel PMCCS_Add_X_L$catch$0+59
	DD	imagerel $unwind$PMCCS_Add_X_L$catch$0
pdata	ENDS
;	COMDAT pdata
pdata	SEGMENT
$pdata$PMCCS_Add_X_X DD imagerel $LN10
	DD	imagerel $LN10+166
	DD	imagerel $unwind$PMCCS_Add_X_X
pdata	ENDS
;	COMDAT pdata
pdata	SEGMENT
$pdata$PMCCS_Add_X_X$catch$0 DD imagerel PMCCS_Add_X_X$catch$0
	DD	imagerel PMCCS_Add_X_X$catch$0+59
	DD	imagerel $unwind$PMCCS_Add_X_X$catch$0
pdata	ENDS
;	COMDAT pdata
pdata	SEGMENT
$pdata$PMCCS_Subtruct_I_X DD imagerel $LN10
	DD	imagerel $LN10+162
	DD	imagerel $unwind$PMCCS_Subtruct_I_X
pdata	ENDS
;	COMDAT pdata
pdata	SEGMENT
$pdata$PMCCS_Subtruct_I_X$catch$0 DD imagerel PMCCS_Subtruct_I_X$catch$0
	DD	imagerel PMCCS_Subtruct_I_X$catch$0+59
	DD	imagerel $unwind$PMCCS_Subtruct_I_X$catch$0
pdata	ENDS
;	COMDAT pdata
pdata	SEGMENT
$pdata$PMCCS_Subtruct_L_X DD imagerel $LN10
	DD	imagerel $LN10+166
	DD	imagerel $unwind$PMCCS_Subtruct_L_X
pdata	ENDS
;	COMDAT pdata
pdata	SEGMENT
$pdata$PMCCS_Subtruct_L_X$catch$0 DD imagerel PMCCS_Subtruct_L_X$catch$0
	DD	imagerel PMCCS_Subtruct_L_X$catch$0+59
	DD	imagerel $unwind$PMCCS_Subtruct_L_X$catch$0
pdata	ENDS
;	COMDAT pdata
pdata	SEGMENT
$pdata$PMCCS_Subtruct_X_I DD imagerel $LN10
	DD	imagerel $LN10+164
	DD	imagerel $unwind$PMCCS_Subtruct_X_I
pdata	ENDS
;	COMDAT pdata
pdata	SEGMENT
$pdata$PMCCS_Subtruct_X_I$catch$0 DD imagerel PMCCS_Subtruct_X_I$catch$0
	DD	imagerel PMCCS_Subtruct_X_I$catch$0+59
	DD	imagerel $unwind$PMCCS_Subtruct_X_I$catch$0
pdata	ENDS
;	COMDAT pdata
pdata	SEGMENT
$pdata$PMCCS_Subtruct_X_L DD imagerel $LN10
	DD	imagerel $LN10+166
	DD	imagerel $unwind$PMCCS_Subtruct_X_L
pdata	ENDS
;	COMDAT pdata
pdata	SEGMENT
$pdata$PMCCS_Subtruct_X_L$catch$0 DD imagerel PMCCS_Subtruct_X_L$catch$0
	DD	imagerel PMCCS_Subtruct_X_L$catch$0+59
	DD	imagerel $unwind$PMCCS_Subtruct_X_L$catch$0
pdata	ENDS
;	COMDAT pdata
pdata	SEGMENT
$pdata$PMCCS_Subtruct_X_X DD imagerel $LN10
	DD	imagerel $LN10+166
	DD	imagerel $unwind$PMCCS_Subtruct_X_X
pdata	ENDS
;	COMDAT pdata
pdata	SEGMENT
$pdata$PMCCS_Subtruct_X_X$catch$0 DD imagerel PMCCS_Subtruct_X_X$catch$0
	DD	imagerel PMCCS_Subtruct_X_X$catch$0+59
	DD	imagerel $unwind$PMCCS_Subtruct_X_X$catch$0
pdata	ENDS
;	COMDAT pdata
pdata	SEGMENT
$pdata$PMCCS_Multiply_I_X DD imagerel $LN10
	DD	imagerel $LN10+163
	DD	imagerel $unwind$PMCCS_Multiply_I_X
pdata	ENDS
;	COMDAT pdata
pdata	SEGMENT
$pdata$PMCCS_Multiply_I_X$catch$0 DD imagerel PMCCS_Multiply_I_X$catch$0
	DD	imagerel PMCCS_Multiply_I_X$catch$0+59
	DD	imagerel $unwind$PMCCS_Multiply_I_X$catch$0
pdata	ENDS
;	COMDAT pdata
pdata	SEGMENT
$pdata$PMCCS_Multiply_L_X DD imagerel $LN10
	DD	imagerel $LN10+166
	DD	imagerel $unwind$PMCCS_Multiply_L_X
pdata	ENDS
;	COMDAT pdata
pdata	SEGMENT
$pdata$PMCCS_Multiply_L_X$catch$0 DD imagerel PMCCS_Multiply_L_X$catch$0
	DD	imagerel PMCCS_Multiply_L_X$catch$0+59
	DD	imagerel $unwind$PMCCS_Multiply_L_X$catch$0
pdata	ENDS
;	COMDAT pdata
pdata	SEGMENT
$pdata$PMCCS_Multiply_X_I DD imagerel $LN10
	DD	imagerel $LN10+164
	DD	imagerel $unwind$PMCCS_Multiply_X_I
pdata	ENDS
;	COMDAT pdata
pdata	SEGMENT
$pdata$PMCCS_Multiply_X_I$catch$0 DD imagerel PMCCS_Multiply_X_I$catch$0
	DD	imagerel PMCCS_Multiply_X_I$catch$0+59
	DD	imagerel $unwind$PMCCS_Multiply_X_I$catch$0
pdata	ENDS
;	COMDAT pdata
pdata	SEGMENT
$pdata$PMCCS_Multiply_X_L DD imagerel $LN10
	DD	imagerel $LN10+166
	DD	imagerel $unwind$PMCCS_Multiply_X_L
pdata	ENDS
;	COMDAT pdata
pdata	SEGMENT
$pdata$PMCCS_Multiply_X_L$catch$0 DD imagerel PMCCS_Multiply_X_L$catch$0
	DD	imagerel PMCCS_Multiply_X_L$catch$0+59
	DD	imagerel $unwind$PMCCS_Multiply_X_L$catch$0
pdata	ENDS
;	COMDAT pdata
pdata	SEGMENT
$pdata$PMCCS_Multiply_X_X DD imagerel $LN10
	DD	imagerel $LN10+166
	DD	imagerel $unwind$PMCCS_Multiply_X_X
pdata	ENDS
;	COMDAT pdata
pdata	SEGMENT
$pdata$PMCCS_Multiply_X_X$catch$0 DD imagerel PMCCS_Multiply_X_X$catch$0
	DD	imagerel PMCCS_Multiply_X_X$catch$0+59
	DD	imagerel $unwind$PMCCS_Multiply_X_X$catch$0
pdata	ENDS
;	COMDAT pdata
pdata	SEGMENT
$pdata$PMCCS_DivRem_I_X DD imagerel $LN10
	DD	imagerel $LN10+174
	DD	imagerel $unwind$PMCCS_DivRem_I_X
pdata	ENDS
;	COMDAT pdata
pdata	SEGMENT
$pdata$PMCCS_DivRem_I_X$catch$0 DD imagerel PMCCS_DivRem_I_X$catch$0
	DD	imagerel PMCCS_DivRem_I_X$catch$0+59
	DD	imagerel $unwind$PMCCS_DivRem_I_X$catch$0
pdata	ENDS
;	COMDAT pdata
pdata	SEGMENT
$pdata$PMCCS_DivRem_L_X DD imagerel $LN10
	DD	imagerel $LN10+178
	DD	imagerel $unwind$PMCCS_DivRem_L_X
pdata	ENDS
;	COMDAT pdata
pdata	SEGMENT
$pdata$PMCCS_DivRem_L_X$catch$0 DD imagerel PMCCS_DivRem_L_X$catch$0
	DD	imagerel PMCCS_DivRem_L_X$catch$0+59
	DD	imagerel $unwind$PMCCS_DivRem_L_X$catch$0
pdata	ENDS
;	COMDAT pdata
pdata	SEGMENT
$pdata$PMCCS_DivRem_X_I DD imagerel $LN10
	DD	imagerel $LN10+175
	DD	imagerel $unwind$PMCCS_DivRem_X_I
pdata	ENDS
;	COMDAT pdata
pdata	SEGMENT
$pdata$PMCCS_DivRem_X_I$catch$0 DD imagerel PMCCS_DivRem_X_I$catch$0
	DD	imagerel PMCCS_DivRem_X_I$catch$0+59
	DD	imagerel $unwind$PMCCS_DivRem_X_I$catch$0
pdata	ENDS
;	COMDAT pdata
pdata	SEGMENT
$pdata$PMCCS_DivRem_X_L DD imagerel $LN10
	DD	imagerel $LN10+178
	DD	imagerel $unwind$PMCCS_DivRem_X_L
pdata	ENDS
;	COMDAT pdata
pdata	SEGMENT
$pdata$PMCCS_DivRem_X_L$catch$0 DD imagerel PMCCS_DivRem_X_L$catch$0
	DD	imagerel PMCCS_DivRem_X_L$catch$0+59
	DD	imagerel $unwind$PMCCS_DivRem_X_L$catch$0
pdata	ENDS
;	COMDAT pdata
pdata	SEGMENT
$pdata$PMCCS_DivRem_X_X DD imagerel $LN10
	DD	imagerel $LN10+178
	DD	imagerel $unwind$PMCCS_DivRem_X_X
pdata	ENDS
;	COMDAT pdata
pdata	SEGMENT
$pdata$PMCCS_DivRem_X_X$catch$0 DD imagerel PMCCS_DivRem_X_X$catch$0
	DD	imagerel PMCCS_DivRem_X_X$catch$0+59
	DD	imagerel $unwind$PMCCS_DivRem_X_X$catch$0
pdata	ENDS
;	COMDAT pdata
pdata	SEGMENT
$pdata$PMCCS_Remainder_I_X DD imagerel $LN10
	DD	imagerel $LN10+165
	DD	imagerel $unwind$PMCCS_Remainder_I_X
pdata	ENDS
;	COMDAT pdata
pdata	SEGMENT
$pdata$PMCCS_Remainder_I_X$catch$0 DD imagerel PMCCS_Remainder_I_X$catch$0
	DD	imagerel PMCCS_Remainder_I_X$catch$0+59
	DD	imagerel $unwind$PMCCS_Remainder_I_X$catch$0
pdata	ENDS
;	COMDAT pdata
pdata	SEGMENT
$pdata$PMCCS_Remainder_L_X DD imagerel $LN10
	DD	imagerel $LN10+169
	DD	imagerel $unwind$PMCCS_Remainder_L_X
pdata	ENDS
;	COMDAT pdata
pdata	SEGMENT
$pdata$PMCCS_Remainder_L_X$catch$0 DD imagerel PMCCS_Remainder_L_X$catch$0
	DD	imagerel PMCCS_Remainder_L_X$catch$0+59
	DD	imagerel $unwind$PMCCS_Remainder_L_X$catch$0
pdata	ENDS
;	COMDAT pdata
pdata	SEGMENT
$pdata$PMCCS_Remainder_X_I DD imagerel $LN10
	DD	imagerel $LN10+166
	DD	imagerel $unwind$PMCCS_Remainder_X_I
pdata	ENDS
;	COMDAT pdata
pdata	SEGMENT
$pdata$PMCCS_Remainder_X_I$catch$0 DD imagerel PMCCS_Remainder_X_I$catch$0
	DD	imagerel PMCCS_Remainder_X_I$catch$0+59
	DD	imagerel $unwind$PMCCS_Remainder_X_I$catch$0
pdata	ENDS
;	COMDAT pdata
pdata	SEGMENT
$pdata$PMCCS_Remainder_X_L DD imagerel $LN10
	DD	imagerel $LN10+169
	DD	imagerel $unwind$PMCCS_Remainder_X_L
pdata	ENDS
;	COMDAT pdata
pdata	SEGMENT
$pdata$PMCCS_Remainder_X_L$catch$0 DD imagerel PMCCS_Remainder_X_L$catch$0
	DD	imagerel PMCCS_Remainder_X_L$catch$0+59
	DD	imagerel $unwind$PMCCS_Remainder_X_L$catch$0
pdata	ENDS
;	COMDAT pdata
pdata	SEGMENT
$pdata$PMCCS_Remainder_X_X DD imagerel $LN10
	DD	imagerel $LN10+169
	DD	imagerel $unwind$PMCCS_Remainder_X_X
pdata	ENDS
;	COMDAT pdata
pdata	SEGMENT
$pdata$PMCCS_Remainder_X_X$catch$0 DD imagerel PMCCS_Remainder_X_X$catch$0
	DD	imagerel PMCCS_Remainder_X_X$catch$0+59
	DD	imagerel $unwind$PMCCS_Remainder_X_X$catch$0
pdata	ENDS
;	COMDAT pdata
pdata	SEGMENT
$pdata$PMCCS_RightShift_X_I DD imagerel $LN10
	DD	imagerel $LN10+164
	DD	imagerel $unwind$PMCCS_RightShift_X_I
pdata	ENDS
;	COMDAT pdata
pdata	SEGMENT
$pdata$PMCCS_RightShift_X_I$catch$0 DD imagerel PMCCS_RightShift_X_I$catch$0
	DD	imagerel PMCCS_RightShift_X_I$catch$0+59
	DD	imagerel $unwind$PMCCS_RightShift_X_I$catch$0
pdata	ENDS
;	COMDAT pdata
pdata	SEGMENT
$pdata$PMCCS_LeftShift_X_I DD imagerel $LN10
	DD	imagerel $LN10+164
	DD	imagerel $unwind$PMCCS_LeftShift_X_I
pdata	ENDS
;	COMDAT pdata
pdata	SEGMENT
$pdata$PMCCS_LeftShift_X_I$catch$0 DD imagerel PMCCS_LeftShift_X_I$catch$0
	DD	imagerel PMCCS_LeftShift_X_I$catch$0+59
	DD	imagerel $unwind$PMCCS_LeftShift_X_I$catch$0
pdata	ENDS
;	COMDAT pdata
pdata	SEGMENT
$pdata$PMCCS_BitwiseAnd_I_X DD imagerel $LN10
	DD	imagerel $LN10+162
	DD	imagerel $unwind$PMCCS_BitwiseAnd_I_X
pdata	ENDS
;	COMDAT pdata
pdata	SEGMENT
$pdata$PMCCS_BitwiseAnd_I_X$catch$0 DD imagerel PMCCS_BitwiseAnd_I_X$catch$0
	DD	imagerel PMCCS_BitwiseAnd_I_X$catch$0+59
	DD	imagerel $unwind$PMCCS_BitwiseAnd_I_X$catch$0
pdata	ENDS
;	COMDAT pdata
pdata	SEGMENT
$pdata$PMCCS_BitwiseAnd_L_X DD imagerel $LN10
	DD	imagerel $LN10+166
	DD	imagerel $unwind$PMCCS_BitwiseAnd_L_X
pdata	ENDS
;	COMDAT pdata
pdata	SEGMENT
$pdata$PMCCS_BitwiseAnd_L_X$catch$0 DD imagerel PMCCS_BitwiseAnd_L_X$catch$0
	DD	imagerel PMCCS_BitwiseAnd_L_X$catch$0+59
	DD	imagerel $unwind$PMCCS_BitwiseAnd_L_X$catch$0
pdata	ENDS
;	COMDAT pdata
pdata	SEGMENT
$pdata$PMCCS_BitwiseAnd_X_I DD imagerel $LN10
	DD	imagerel $LN10+163
	DD	imagerel $unwind$PMCCS_BitwiseAnd_X_I
pdata	ENDS
;	COMDAT pdata
pdata	SEGMENT
$pdata$PMCCS_BitwiseAnd_X_I$catch$0 DD imagerel PMCCS_BitwiseAnd_X_I$catch$0
	DD	imagerel PMCCS_BitwiseAnd_X_I$catch$0+59
	DD	imagerel $unwind$PMCCS_BitwiseAnd_X_I$catch$0
pdata	ENDS
;	COMDAT pdata
pdata	SEGMENT
$pdata$PMCCS_BitwiseAnd_X_L DD imagerel $LN10
	DD	imagerel $LN10+166
	DD	imagerel $unwind$PMCCS_BitwiseAnd_X_L
pdata	ENDS
;	COMDAT pdata
pdata	SEGMENT
$pdata$PMCCS_BitwiseAnd_X_L$catch$0 DD imagerel PMCCS_BitwiseAnd_X_L$catch$0
	DD	imagerel PMCCS_BitwiseAnd_X_L$catch$0+59
	DD	imagerel $unwind$PMCCS_BitwiseAnd_X_L$catch$0
pdata	ENDS
;	COMDAT pdata
pdata	SEGMENT
$pdata$PMCCS_BitwiseAnd_X_X DD imagerel $LN10
	DD	imagerel $LN10+166
	DD	imagerel $unwind$PMCCS_BitwiseAnd_X_X
pdata	ENDS
;	COMDAT pdata
pdata	SEGMENT
$pdata$PMCCS_BitwiseAnd_X_X$catch$0 DD imagerel PMCCS_BitwiseAnd_X_X$catch$0
	DD	imagerel PMCCS_BitwiseAnd_X_X$catch$0+59
	DD	imagerel $unwind$PMCCS_BitwiseAnd_X_X$catch$0
pdata	ENDS
;	COMDAT pdata
pdata	SEGMENT
$pdata$PMCCS_BitwiseOr_I_X DD imagerel $LN10
	DD	imagerel $LN10+163
	DD	imagerel $unwind$PMCCS_BitwiseOr_I_X
pdata	ENDS
;	COMDAT pdata
pdata	SEGMENT
$pdata$PMCCS_BitwiseOr_I_X$catch$0 DD imagerel PMCCS_BitwiseOr_I_X$catch$0
	DD	imagerel PMCCS_BitwiseOr_I_X$catch$0+59
	DD	imagerel $unwind$PMCCS_BitwiseOr_I_X$catch$0
pdata	ENDS
;	COMDAT pdata
pdata	SEGMENT
$pdata$PMCCS_BitwiseOr_L_X DD imagerel $LN10
	DD	imagerel $LN10+166
	DD	imagerel $unwind$PMCCS_BitwiseOr_L_X
pdata	ENDS
;	COMDAT pdata
pdata	SEGMENT
$pdata$PMCCS_BitwiseOr_L_X$catch$0 DD imagerel PMCCS_BitwiseOr_L_X$catch$0
	DD	imagerel PMCCS_BitwiseOr_L_X$catch$0+59
	DD	imagerel $unwind$PMCCS_BitwiseOr_L_X$catch$0
pdata	ENDS
;	COMDAT pdata
pdata	SEGMENT
$pdata$PMCCS_BitwiseOr_X_I DD imagerel $LN10
	DD	imagerel $LN10+164
	DD	imagerel $unwind$PMCCS_BitwiseOr_X_I
pdata	ENDS
;	COMDAT pdata
pdata	SEGMENT
$pdata$PMCCS_BitwiseOr_X_I$catch$0 DD imagerel PMCCS_BitwiseOr_X_I$catch$0
	DD	imagerel PMCCS_BitwiseOr_X_I$catch$0+59
	DD	imagerel $unwind$PMCCS_BitwiseOr_X_I$catch$0
pdata	ENDS
;	COMDAT pdata
pdata	SEGMENT
$pdata$PMCCS_BitwiseOr_X_L DD imagerel $LN10
	DD	imagerel $LN10+166
	DD	imagerel $unwind$PMCCS_BitwiseOr_X_L
pdata	ENDS
;	COMDAT pdata
pdata	SEGMENT
$pdata$PMCCS_BitwiseOr_X_L$catch$0 DD imagerel PMCCS_BitwiseOr_X_L$catch$0
	DD	imagerel PMCCS_BitwiseOr_X_L$catch$0+59
	DD	imagerel $unwind$PMCCS_BitwiseOr_X_L$catch$0
pdata	ENDS
;	COMDAT pdata
pdata	SEGMENT
$pdata$PMCCS_BitwiseOr_X_X DD imagerel $LN10
	DD	imagerel $LN10+166
	DD	imagerel $unwind$PMCCS_BitwiseOr_X_X
pdata	ENDS
;	COMDAT pdata
pdata	SEGMENT
$pdata$PMCCS_BitwiseOr_X_X$catch$0 DD imagerel PMCCS_BitwiseOr_X_X$catch$0
	DD	imagerel PMCCS_BitwiseOr_X_X$catch$0+59
	DD	imagerel $unwind$PMCCS_BitwiseOr_X_X$catch$0
pdata	ENDS
;	COMDAT pdata
pdata	SEGMENT
$pdata$PMCCS_ExclusiveOr_I_X DD imagerel $LN10
	DD	imagerel $LN10+163
	DD	imagerel $unwind$PMCCS_ExclusiveOr_I_X
pdata	ENDS
;	COMDAT pdata
pdata	SEGMENT
$pdata$PMCCS_ExclusiveOr_I_X$catch$0 DD imagerel PMCCS_ExclusiveOr_I_X$catch$0
	DD	imagerel PMCCS_ExclusiveOr_I_X$catch$0+59
	DD	imagerel $unwind$PMCCS_ExclusiveOr_I_X$catch$0
pdata	ENDS
;	COMDAT pdata
pdata	SEGMENT
$pdata$PMCCS_ExclusiveOr_L_X DD imagerel $LN10
	DD	imagerel $LN10+166
	DD	imagerel $unwind$PMCCS_ExclusiveOr_L_X
pdata	ENDS
;	COMDAT pdata
pdata	SEGMENT
$pdata$PMCCS_ExclusiveOr_L_X$catch$0 DD imagerel PMCCS_ExclusiveOr_L_X$catch$0
	DD	imagerel PMCCS_ExclusiveOr_L_X$catch$0+59
	DD	imagerel $unwind$PMCCS_ExclusiveOr_L_X$catch$0
pdata	ENDS
;	COMDAT pdata
pdata	SEGMENT
$pdata$PMCCS_ExclusiveOr_X_I DD imagerel $LN10
	DD	imagerel $LN10+164
	DD	imagerel $unwind$PMCCS_ExclusiveOr_X_I
pdata	ENDS
;	COMDAT pdata
pdata	SEGMENT
$pdata$PMCCS_ExclusiveOr_X_I$catch$0 DD imagerel PMCCS_ExclusiveOr_X_I$catch$0
	DD	imagerel PMCCS_ExclusiveOr_X_I$catch$0+59
	DD	imagerel $unwind$PMCCS_ExclusiveOr_X_I$catch$0
pdata	ENDS
;	COMDAT pdata
pdata	SEGMENT
$pdata$PMCCS_ExclusiveOr_X_L DD imagerel $LN10
	DD	imagerel $LN10+166
	DD	imagerel $unwind$PMCCS_ExclusiveOr_X_L
pdata	ENDS
;	COMDAT pdata
pdata	SEGMENT
$pdata$PMCCS_ExclusiveOr_X_L$catch$0 DD imagerel PMCCS_ExclusiveOr_X_L$catch$0
	DD	imagerel PMCCS_ExclusiveOr_X_L$catch$0+59
	DD	imagerel $unwind$PMCCS_ExclusiveOr_X_L$catch$0
pdata	ENDS
;	COMDAT pdata
pdata	SEGMENT
$pdata$PMCCS_ExclusiveOr_X_X DD imagerel $LN10
	DD	imagerel $LN10+166
	DD	imagerel $unwind$PMCCS_ExclusiveOr_X_X
pdata	ENDS
;	COMDAT pdata
pdata	SEGMENT
$pdata$PMCCS_ExclusiveOr_X_X$catch$0 DD imagerel PMCCS_ExclusiveOr_X_X$catch$0
	DD	imagerel PMCCS_ExclusiveOr_X_X$catch$0+59
	DD	imagerel $unwind$PMCCS_ExclusiveOr_X_X$catch$0
pdata	ENDS
;	COMDAT pdata
pdata	SEGMENT
$pdata$PMCCS_Compare_I_X DD imagerel $LN10
	DD	imagerel $LN10+162
	DD	imagerel $unwind$PMCCS_Compare_I_X
pdata	ENDS
;	COMDAT pdata
pdata	SEGMENT
$pdata$PMCCS_Compare_I_X$catch$0 DD imagerel PMCCS_Compare_I_X$catch$0
	DD	imagerel PMCCS_Compare_I_X$catch$0+59
	DD	imagerel $unwind$PMCCS_Compare_I_X$catch$0
pdata	ENDS
;	COMDAT pdata
pdata	SEGMENT
$pdata$PMCCS_Compare_L_X DD imagerel $LN10
	DD	imagerel $LN10+165
	DD	imagerel $unwind$PMCCS_Compare_L_X
pdata	ENDS
;	COMDAT pdata
pdata	SEGMENT
$pdata$PMCCS_Compare_L_X$catch$0 DD imagerel PMCCS_Compare_L_X$catch$0
	DD	imagerel PMCCS_Compare_L_X$catch$0+59
	DD	imagerel $unwind$PMCCS_Compare_L_X$catch$0
pdata	ENDS
;	COMDAT pdata
pdata	SEGMENT
$pdata$PMCCS_Compare_X_I DD imagerel $LN10
	DD	imagerel $LN10+163
	DD	imagerel $unwind$PMCCS_Compare_X_I
pdata	ENDS
;	COMDAT pdata
pdata	SEGMENT
$pdata$PMCCS_Compare_X_I$catch$0 DD imagerel PMCCS_Compare_X_I$catch$0
	DD	imagerel PMCCS_Compare_X_I$catch$0+59
	DD	imagerel $unwind$PMCCS_Compare_X_I$catch$0
pdata	ENDS
;	COMDAT pdata
pdata	SEGMENT
$pdata$PMCCS_Compare_X_L DD imagerel $LN10
	DD	imagerel $LN10+165
	DD	imagerel $unwind$PMCCS_Compare_X_L
pdata	ENDS
;	COMDAT pdata
pdata	SEGMENT
$pdata$PMCCS_Compare_X_L$catch$0 DD imagerel PMCCS_Compare_X_L$catch$0
	DD	imagerel PMCCS_Compare_X_L$catch$0+59
	DD	imagerel $unwind$PMCCS_Compare_X_L$catch$0
pdata	ENDS
;	COMDAT pdata
pdata	SEGMENT
$pdata$PMCCS_Compare_X_X DD imagerel $LN10
	DD	imagerel $LN10+165
	DD	imagerel $unwind$PMCCS_Compare_X_X
pdata	ENDS
;	COMDAT pdata
pdata	SEGMENT
$pdata$PMCCS_Compare_X_X$catch$0 DD imagerel PMCCS_Compare_X_X$catch$0
	DD	imagerel PMCCS_Compare_X_X$catch$0+59
	DD	imagerel $unwind$PMCCS_Compare_X_X$catch$0
pdata	ENDS
;	COMDAT pdata
pdata	SEGMENT
$pdata$PMCCS_Equals_I_X DD imagerel $LN10
	DD	imagerel $LN10+162
	DD	imagerel $unwind$PMCCS_Equals_I_X
pdata	ENDS
;	COMDAT pdata
pdata	SEGMENT
$pdata$PMCCS_Equals_I_X$catch$0 DD imagerel PMCCS_Equals_I_X$catch$0
	DD	imagerel PMCCS_Equals_I_X$catch$0+59
	DD	imagerel $unwind$PMCCS_Equals_I_X$catch$0
pdata	ENDS
;	COMDAT pdata
pdata	SEGMENT
$pdata$PMCCS_Equals_L_X DD imagerel $LN10
	DD	imagerel $LN10+165
	DD	imagerel $unwind$PMCCS_Equals_L_X
pdata	ENDS
;	COMDAT pdata
pdata	SEGMENT
$pdata$PMCCS_Equals_L_X$catch$0 DD imagerel PMCCS_Equals_L_X$catch$0
	DD	imagerel PMCCS_Equals_L_X$catch$0+59
	DD	imagerel $unwind$PMCCS_Equals_L_X$catch$0
pdata	ENDS
;	COMDAT pdata
pdata	SEGMENT
$pdata$PMCCS_Equals_X_I DD imagerel $LN10
	DD	imagerel $LN10+163
	DD	imagerel $unwind$PMCCS_Equals_X_I
pdata	ENDS
;	COMDAT pdata
pdata	SEGMENT
$pdata$PMCCS_Equals_X_I$catch$0 DD imagerel PMCCS_Equals_X_I$catch$0
	DD	imagerel PMCCS_Equals_X_I$catch$0+59
	DD	imagerel $unwind$PMCCS_Equals_X_I$catch$0
pdata	ENDS
;	COMDAT pdata
pdata	SEGMENT
$pdata$PMCCS_Equals_X_L DD imagerel $LN10
	DD	imagerel $LN10+165
	DD	imagerel $unwind$PMCCS_Equals_X_L
pdata	ENDS
;	COMDAT pdata
pdata	SEGMENT
$pdata$PMCCS_Equals_X_L$catch$0 DD imagerel PMCCS_Equals_X_L$catch$0
	DD	imagerel PMCCS_Equals_X_L$catch$0+59
	DD	imagerel $unwind$PMCCS_Equals_X_L$catch$0
pdata	ENDS
;	COMDAT pdata
pdata	SEGMENT
$pdata$PMCCS_Equals_X_X DD imagerel $LN10
	DD	imagerel $LN10+165
	DD	imagerel $unwind$PMCCS_Equals_X_X
pdata	ENDS
;	COMDAT pdata
pdata	SEGMENT
$pdata$PMCCS_Equals_X_X$catch$0 DD imagerel PMCCS_Equals_X_X$catch$0
	DD	imagerel PMCCS_Equals_X_X$catch$0+59
	DD	imagerel $unwind$PMCCS_Equals_X_X$catch$0
pdata	ENDS
;	COMDAT pdata
pdata	SEGMENT
$pdata$PMCCS_GreatestCommonDivisor_I_X DD imagerel $LN10
	DD	imagerel $LN10+163
	DD	imagerel $unwind$PMCCS_GreatestCommonDivisor_I_X
pdata	ENDS
;	COMDAT pdata
pdata	SEGMENT
$pdata$PMCCS_GreatestCommonDivisor_I_X$catch$0 DD imagerel PMCCS_GreatestCommonDivisor_I_X$catch$0
	DD	imagerel PMCCS_GreatestCommonDivisor_I_X$catch$0+59
	DD	imagerel $unwind$PMCCS_GreatestCommonDivisor_I_X$catch$0
pdata	ENDS
;	COMDAT pdata
pdata	SEGMENT
$pdata$PMCCS_GreatestCommonDivisor_L_X DD imagerel $LN10
	DD	imagerel $LN10+166
	DD	imagerel $unwind$PMCCS_GreatestCommonDivisor_L_X
pdata	ENDS
;	COMDAT pdata
pdata	SEGMENT
$pdata$PMCCS_GreatestCommonDivisor_L_X$catch$0 DD imagerel PMCCS_GreatestCommonDivisor_L_X$catch$0
	DD	imagerel PMCCS_GreatestCommonDivisor_L_X$catch$0+59
	DD	imagerel $unwind$PMCCS_GreatestCommonDivisor_L_X$catch$0
pdata	ENDS
;	COMDAT pdata
pdata	SEGMENT
$pdata$PMCCS_GreatestCommonDivisor_X_I DD imagerel $LN10
	DD	imagerel $LN10+164
	DD	imagerel $unwind$PMCCS_GreatestCommonDivisor_X_I
pdata	ENDS
;	COMDAT pdata
pdata	SEGMENT
$pdata$PMCCS_GreatestCommonDivisor_X_I$catch$0 DD imagerel PMCCS_GreatestCommonDivisor_X_I$catch$0
	DD	imagerel PMCCS_GreatestCommonDivisor_X_I$catch$0+59
	DD	imagerel $unwind$PMCCS_GreatestCommonDivisor_X_I$catch$0
pdata	ENDS
;	COMDAT pdata
pdata	SEGMENT
$pdata$PMCCS_GreatestCommonDivisor_X_L DD imagerel $LN10
	DD	imagerel $LN10+166
	DD	imagerel $unwind$PMCCS_GreatestCommonDivisor_X_L
pdata	ENDS
;	COMDAT pdata
pdata	SEGMENT
$pdata$PMCCS_GreatestCommonDivisor_X_L$catch$0 DD imagerel PMCCS_GreatestCommonDivisor_X_L$catch$0
	DD	imagerel PMCCS_GreatestCommonDivisor_X_L$catch$0+59
	DD	imagerel $unwind$PMCCS_GreatestCommonDivisor_X_L$catch$0
pdata	ENDS
;	COMDAT pdata
pdata	SEGMENT
$pdata$PMCCS_GreatestCommonDivisor_X_X DD imagerel $LN10
	DD	imagerel $LN10+166
	DD	imagerel $unwind$PMCCS_GreatestCommonDivisor_X_X
pdata	ENDS
;	COMDAT pdata
pdata	SEGMENT
$pdata$PMCCS_GreatestCommonDivisor_X_X$catch$0 DD imagerel PMCCS_GreatestCommonDivisor_X_X$catch$0
	DD	imagerel PMCCS_GreatestCommonDivisor_X_X$catch$0+59
	DD	imagerel $unwind$PMCCS_GreatestCommonDivisor_X_X$catch$0
pdata	ENDS
;	COMDAT pdata
pdata	SEGMENT
$pdata$PMCCS_Pow_X_I DD imagerel $LN10
	DD	imagerel $LN10+164
	DD	imagerel $unwind$PMCCS_Pow_X_I
pdata	ENDS
;	COMDAT pdata
pdata	SEGMENT
$pdata$PMCCS_Pow_X_I$catch$0 DD imagerel PMCCS_Pow_X_I$catch$0
	DD	imagerel PMCCS_Pow_X_I$catch$0+59
	DD	imagerel $unwind$PMCCS_Pow_X_I$catch$0
pdata	ENDS
;	COMDAT pdata
pdata	SEGMENT
$pdata$PMCCS_Pow_X_L DD imagerel $LN10
	DD	imagerel $LN10+166
	DD	imagerel $unwind$PMCCS_Pow_X_L
pdata	ENDS
;	COMDAT pdata
pdata	SEGMENT
$pdata$PMCCS_Pow_X_L$catch$0 DD imagerel PMCCS_Pow_X_L$catch$0
	DD	imagerel PMCCS_Pow_X_L$catch$0+59
	DD	imagerel $unwind$PMCCS_Pow_X_L$catch$0
pdata	ENDS
;	COMDAT pdata
pdata	SEGMENT
$pdata$PMCCS_ModPow_X_X_X DD imagerel $LN10
	DD	imagerel $LN10+178
	DD	imagerel $unwind$PMCCS_ModPow_X_X_X
pdata	ENDS
;	COMDAT pdata
pdata	SEGMENT
$pdata$PMCCS_ModPow_X_X_X$catch$0 DD imagerel PMCCS_ModPow_X_X_X$catch$0
	DD	imagerel PMCCS_ModPow_X_X_X$catch$0+59
	DD	imagerel $unwind$PMCCS_ModPow_X_X_X$catch$0
pdata	ENDS
;	COMDAT pdata
pdata	SEGMENT
$pdata$PMCCS_TimesOfExponentOf10 DD imagerel $LN10
	DD	imagerel $LN10+161
	DD	imagerel $unwind$PMCCS_TimesOfExponentOf10
pdata	ENDS
;	COMDAT pdata
pdata	SEGMENT
$pdata$PMCCS_TimesOfExponentOf10$catch$0 DD imagerel PMCCS_TimesOfExponentOf10$catch$0
	DD	imagerel PMCCS_TimesOfExponentOf10$catch$0+59
	DD	imagerel $unwind$PMCCS_TimesOfExponentOf10$catch$0
pdata	ENDS
;	COMDAT pdata
pdata	SEGMENT
$pdata$PMCCS_Floor_Log10 DD imagerel $LN10
	DD	imagerel $LN10+153
	DD	imagerel $unwind$PMCCS_Floor_Log10
pdata	ENDS
;	COMDAT pdata
pdata	SEGMENT
$pdata$PMCCS_Floor_Log10$catch$0 DD imagerel PMCCS_Floor_Log10$catch$0
	DD	imagerel PMCCS_Floor_Log10$catch$0+59
	DD	imagerel $unwind$PMCCS_Floor_Log10$catch$0
pdata	ENDS
;	COMDAT rtc$TMZ
rtc$TMZ	SEGMENT
_RTC_Shutdown.rtc$TMZ DQ FLAT:_RTC_Shutdown
rtc$TMZ	ENDS
;	COMDAT rtc$IMZ
rtc$IMZ	SEGMENT
_RTC_InitBase.rtc$IMZ DQ FLAT:_RTC_InitBase
rtc$IMZ	ENDS
;	COMDAT ??_R0?AVException@Internal@Core@Math@Palmtree@@@8
data$r	SEGMENT
??_R0?AVException@Internal@Core@Math@Palmtree@@@8 DQ FLAT:??_7type_info@@6B@ ; Palmtree::Math::Core::Internal::Exception `RTTI Type Descriptor'
	DQ	0000000000000000H
	DB	'.?AVException@Internal@Core@Math@Palmtree@@', 00H
data$r	ENDS
;	COMDAT xdata
xdata	SEGMENT
$unwind$PMCCS_Floor_Log10$catch$0 DD 031019H
	DD	0700c4210H
	DD	0500bH
	DD	imagerel __CxxFrameHandler3
	DD	imagerel $cppxdata$PMCCS_Floor_Log10
xdata	ENDS
;	COMDAT xdata
xdata	SEGMENT
$ip2state$PMCCS_Floor_Log10 DD imagerel PMCCS_Floor_Log10
	DD	0ffffffffH
	DD	imagerel PMCCS_Floor_Log10+87
	DD	00H
	DD	imagerel PMCCS_Floor_Log10+114
	DD	0ffffffffH
	DD	imagerel PMCCS_Floor_Log10+120
	DD	00H
	DD	imagerel PMCCS_Floor_Log10$catch$0+20
	DD	01H
	DD	imagerel PMCCS_Floor_Log10$catch$0+35
	DD	00H
xdata	ENDS
;	COMDAT xdata
xdata	SEGMENT
$handlerMap$0$PMCCS_Floor_Log10 DD 09H
	DD	imagerel ??_R0?AVException@Internal@Core@Math@Palmtree@@@8
	DD	028H
	DD	imagerel PMCCS_Floor_Log10$catch$0
	DD	048H
xdata	ENDS
;	COMDAT xdata
xdata	SEGMENT
$tryMap$PMCCS_Floor_Log10 DD 00H
	DD	00H
	DD	01H
	DD	01H
	DD	imagerel $handlerMap$0$PMCCS_Floor_Log10
xdata	ENDS
;	COMDAT xdata
xdata	SEGMENT
$stateUnwindMap$PMCCS_Floor_Log10 DD 0ffffffffH
	DD	00H
	DD	0ffffffffH
	DD	00H
xdata	ENDS
;	COMDAT xdata
xdata	SEGMENT
$unwind$PMCCS_Floor_Log10 DD 025053a19H
	DD	01132318H
	DD	0700c0029H
	DD	0500bH
	DD	imagerel __CxxFrameHandler3
	DD	imagerel $cppxdata$PMCCS_Floor_Log10
xdata	ENDS
;	COMDAT CONST
CONST	SEGMENT
PMCCS_Floor_Log10$rtcName$0 DB 065H
	DB	078H
	DB	00H
	ORG $+13
PMCCS_Floor_Log10$rtcVarDesc DD 028H
	DD	08H
	DQ	FLAT:PMCCS_Floor_Log10$rtcName$0
	ORG $+48
PMCCS_Floor_Log10$rtcFrameData DD 01H
	DD	00H
	DQ	FLAT:PMCCS_Floor_Log10$rtcVarDesc
$cppxdata$PMCCS_Floor_Log10 DD 019930522H
	DD	02H
	DD	imagerel $stateUnwindMap$PMCCS_Floor_Log10
	DD	01H
	DD	imagerel $tryMap$PMCCS_Floor_Log10
	DD	06H
	DD	imagerel $ip2state$PMCCS_Floor_Log10
	DD	0128H
	DD	00H
	DD	00H
CONST	ENDS
;	COMDAT xdata
xdata	SEGMENT
$unwind$PMCCS_TimesOfExponentOf10$catch$0 DD 031019H
	DD	0700c4210H
	DD	0500bH
	DD	imagerel __CxxFrameHandler3
	DD	imagerel $cppxdata$PMCCS_TimesOfExponentOf10
xdata	ENDS
;	COMDAT xdata
xdata	SEGMENT
$ip2state$PMCCS_TimesOfExponentOf10 DD imagerel PMCCS_TimesOfExponentOf10
	DD	0ffffffffH
	DD	imagerel PMCCS_TimesOfExponentOf10+89
	DD	00H
	DD	imagerel PMCCS_TimesOfExponentOf10+122
	DD	0ffffffffH
	DD	imagerel PMCCS_TimesOfExponentOf10+128
	DD	00H
	DD	imagerel PMCCS_TimesOfExponentOf10$catch$0+20
	DD	01H
	DD	imagerel PMCCS_TimesOfExponentOf10$catch$0+35
	DD	00H
xdata	ENDS
;	COMDAT xdata
xdata	SEGMENT
$handlerMap$0$PMCCS_TimesOfExponentOf10 DD 09H
	DD	imagerel ??_R0?AVException@Internal@Core@Math@Palmtree@@@8
	DD	028H
	DD	imagerel PMCCS_TimesOfExponentOf10$catch$0
	DD	048H
xdata	ENDS
;	COMDAT xdata
xdata	SEGMENT
$tryMap$PMCCS_TimesOfExponentOf10 DD 00H
	DD	00H
	DD	01H
	DD	01H
	DD	imagerel $handlerMap$0$PMCCS_TimesOfExponentOf10
xdata	ENDS
;	COMDAT xdata
xdata	SEGMENT
$stateUnwindMap$PMCCS_TimesOfExponentOf10 DD 0ffffffffH
	DD	00H
	DD	0ffffffffH
	DD	00H
xdata	ENDS
;	COMDAT xdata
xdata	SEGMENT
$unwind$PMCCS_TimesOfExponentOf10 DD 025053c19H
	DD	0116231bH
	DD	0700f0029H
	DD	0500eH
	DD	imagerel __CxxFrameHandler3
	DD	imagerel $cppxdata$PMCCS_TimesOfExponentOf10
xdata	ENDS
;	COMDAT CONST
CONST	SEGMENT
PMCCS_TimesOfExponentOf10$rtcName$0 DB 065H
	DB	078H
	DB	00H
	ORG $+13
PMCCS_TimesOfExponentOf10$rtcVarDesc DD 028H
	DD	08H
	DQ	FLAT:PMCCS_TimesOfExponentOf10$rtcName$0
	ORG $+48
PMCCS_TimesOfExponentOf10$rtcFrameData DD 01H
	DD	00H
	DQ	FLAT:PMCCS_TimesOfExponentOf10$rtcVarDesc
$cppxdata$PMCCS_TimesOfExponentOf10 DD 019930522H
	DD	02H
	DD	imagerel $stateUnwindMap$PMCCS_TimesOfExponentOf10
	DD	01H
	DD	imagerel $tryMap$PMCCS_TimesOfExponentOf10
	DD	06H
	DD	imagerel $ip2state$PMCCS_TimesOfExponentOf10
	DD	0128H
	DD	00H
	DD	00H
CONST	ENDS
;	COMDAT xdata
xdata	SEGMENT
$unwind$PMCCS_ModPow_X_X_X$catch$0 DD 031019H
	DD	0700c4210H
	DD	0500bH
	DD	imagerel __CxxFrameHandler3
	DD	imagerel $cppxdata$PMCCS_ModPow_X_X_X
xdata	ENDS
;	COMDAT xdata
xdata	SEGMENT
$ip2state$PMCCS_ModPow_X_X_X DD imagerel PMCCS_ModPow_X_X_X
	DD	0ffffffffH
	DD	imagerel PMCCS_ModPow_X_X_X+97
	DD	00H
	DD	imagerel PMCCS_ModPow_X_X_X+139
	DD	0ffffffffH
	DD	imagerel PMCCS_ModPow_X_X_X+145
	DD	00H
	DD	imagerel PMCCS_ModPow_X_X_X$catch$0+20
	DD	01H
	DD	imagerel PMCCS_ModPow_X_X_X$catch$0+35
	DD	00H
xdata	ENDS
;	COMDAT xdata
xdata	SEGMENT
$handlerMap$0$PMCCS_ModPow_X_X_X DD 09H
	DD	imagerel ??_R0?AVException@Internal@Core@Math@Palmtree@@@8
	DD	028H
	DD	imagerel PMCCS_ModPow_X_X_X$catch$0
	DD	048H
xdata	ENDS
;	COMDAT xdata
xdata	SEGMENT
$tryMap$PMCCS_ModPow_X_X_X DD 00H
	DD	00H
	DD	01H
	DD	01H
	DD	imagerel $handlerMap$0$PMCCS_ModPow_X_X_X
xdata	ENDS
;	COMDAT xdata
xdata	SEGMENT
$stateUnwindMap$PMCCS_ModPow_X_X_X DD 0ffffffffH
	DD	00H
	DD	0ffffffffH
	DD	00H
xdata	ENDS
;	COMDAT xdata
xdata	SEGMENT
$unwind$PMCCS_ModPow_X_X_X DD 025054419H
	DD	011d2322H
	DD	070160029H
	DD	05015H
	DD	imagerel __CxxFrameHandler3
	DD	imagerel $cppxdata$PMCCS_ModPow_X_X_X
xdata	ENDS
;	COMDAT CONST
CONST	SEGMENT
PMCCS_ModPow_X_X_X$rtcName$0 DB 065H
	DB	078H
	DB	00H
	ORG $+13
PMCCS_ModPow_X_X_X$rtcVarDesc DD 028H
	DD	08H
	DQ	FLAT:PMCCS_ModPow_X_X_X$rtcName$0
	ORG $+48
PMCCS_ModPow_X_X_X$rtcFrameData DD 01H
	DD	00H
	DQ	FLAT:PMCCS_ModPow_X_X_X$rtcVarDesc
$cppxdata$PMCCS_ModPow_X_X_X DD 019930522H
	DD	02H
	DD	imagerel $stateUnwindMap$PMCCS_ModPow_X_X_X
	DD	01H
	DD	imagerel $tryMap$PMCCS_ModPow_X_X_X
	DD	06H
	DD	imagerel $ip2state$PMCCS_ModPow_X_X_X
	DD	0128H
	DD	00H
	DD	00H
CONST	ENDS
;	COMDAT xdata
xdata	SEGMENT
$unwind$PMCCS_Pow_X_L$catch$0 DD 031019H
	DD	0700c4210H
	DD	0500bH
	DD	imagerel __CxxFrameHandler3
	DD	imagerel $cppxdata$PMCCS_Pow_X_L
xdata	ENDS
;	COMDAT xdata
xdata	SEGMENT
$ip2state$PMCCS_Pow_X_L DD imagerel PMCCS_Pow_X_L
	DD	0ffffffffH
	DD	imagerel PMCCS_Pow_X_L+92
	DD	00H
	DD	imagerel PMCCS_Pow_X_L+127
	DD	0ffffffffH
	DD	imagerel PMCCS_Pow_X_L+133
	DD	00H
	DD	imagerel PMCCS_Pow_X_L$catch$0+20
	DD	01H
	DD	imagerel PMCCS_Pow_X_L$catch$0+35
	DD	00H
xdata	ENDS
;	COMDAT xdata
xdata	SEGMENT
$handlerMap$0$PMCCS_Pow_X_L DD 09H
	DD	imagerel ??_R0?AVException@Internal@Core@Math@Palmtree@@@8
	DD	028H
	DD	imagerel PMCCS_Pow_X_L$catch$0
	DD	048H
xdata	ENDS
;	COMDAT xdata
xdata	SEGMENT
$tryMap$PMCCS_Pow_X_L DD 00H
	DD	00H
	DD	01H
	DD	01H
	DD	imagerel $handlerMap$0$PMCCS_Pow_X_L
xdata	ENDS
;	COMDAT xdata
xdata	SEGMENT
$stateUnwindMap$PMCCS_Pow_X_L DD 0ffffffffH
	DD	00H
	DD	0ffffffffH
	DD	00H
xdata	ENDS
;	COMDAT xdata
xdata	SEGMENT
$unwind$PMCCS_Pow_X_L DD 025053f19H
	DD	0118231dH
	DD	070110029H
	DD	05010H
	DD	imagerel __CxxFrameHandler3
	DD	imagerel $cppxdata$PMCCS_Pow_X_L
xdata	ENDS
;	COMDAT CONST
CONST	SEGMENT
PMCCS_Pow_X_L$rtcName$0 DB 065H
	DB	078H
	DB	00H
	ORG $+13
PMCCS_Pow_X_L$rtcVarDesc DD 028H
	DD	08H
	DQ	FLAT:PMCCS_Pow_X_L$rtcName$0
	ORG $+48
PMCCS_Pow_X_L$rtcFrameData DD 01H
	DD	00H
	DQ	FLAT:PMCCS_Pow_X_L$rtcVarDesc
$cppxdata$PMCCS_Pow_X_L DD 019930522H
	DD	02H
	DD	imagerel $stateUnwindMap$PMCCS_Pow_X_L
	DD	01H
	DD	imagerel $tryMap$PMCCS_Pow_X_L
	DD	06H
	DD	imagerel $ip2state$PMCCS_Pow_X_L
	DD	0128H
	DD	00H
	DD	00H
CONST	ENDS
;	COMDAT xdata
xdata	SEGMENT
$unwind$PMCCS_Pow_X_I$catch$0 DD 031019H
	DD	0700c4210H
	DD	0500bH
	DD	imagerel __CxxFrameHandler3
	DD	imagerel $cppxdata$PMCCS_Pow_X_I
xdata	ENDS
;	COMDAT xdata
xdata	SEGMENT
$ip2state$PMCCS_Pow_X_I DD imagerel PMCCS_Pow_X_I
	DD	0ffffffffH
	DD	imagerel PMCCS_Pow_X_I+91
	DD	00H
	DD	imagerel PMCCS_Pow_X_I+125
	DD	0ffffffffH
	DD	imagerel PMCCS_Pow_X_I+131
	DD	00H
	DD	imagerel PMCCS_Pow_X_I$catch$0+20
	DD	01H
	DD	imagerel PMCCS_Pow_X_I$catch$0+35
	DD	00H
xdata	ENDS
;	COMDAT xdata
xdata	SEGMENT
$handlerMap$0$PMCCS_Pow_X_I DD 09H
	DD	imagerel ??_R0?AVException@Internal@Core@Math@Palmtree@@@8
	DD	028H
	DD	imagerel PMCCS_Pow_X_I$catch$0
	DD	048H
xdata	ENDS
;	COMDAT xdata
xdata	SEGMENT
$tryMap$PMCCS_Pow_X_I DD 00H
	DD	00H
	DD	01H
	DD	01H
	DD	imagerel $handlerMap$0$PMCCS_Pow_X_I
xdata	ENDS
;	COMDAT xdata
xdata	SEGMENT
$stateUnwindMap$PMCCS_Pow_X_I DD 0ffffffffH
	DD	00H
	DD	0ffffffffH
	DD	00H
xdata	ENDS
;	COMDAT xdata
xdata	SEGMENT
$unwind$PMCCS_Pow_X_I DD 025053e19H
	DD	0117231cH
	DD	070100029H
	DD	0500fH
	DD	imagerel __CxxFrameHandler3
	DD	imagerel $cppxdata$PMCCS_Pow_X_I
xdata	ENDS
;	COMDAT CONST
CONST	SEGMENT
PMCCS_Pow_X_I$rtcName$0 DB 065H
	DB	078H
	DB	00H
	ORG $+13
PMCCS_Pow_X_I$rtcVarDesc DD 028H
	DD	08H
	DQ	FLAT:PMCCS_Pow_X_I$rtcName$0
	ORG $+48
PMCCS_Pow_X_I$rtcFrameData DD 01H
	DD	00H
	DQ	FLAT:PMCCS_Pow_X_I$rtcVarDesc
$cppxdata$PMCCS_Pow_X_I DD 019930522H
	DD	02H
	DD	imagerel $stateUnwindMap$PMCCS_Pow_X_I
	DD	01H
	DD	imagerel $tryMap$PMCCS_Pow_X_I
	DD	06H
	DD	imagerel $ip2state$PMCCS_Pow_X_I
	DD	0128H
	DD	00H
	DD	00H
CONST	ENDS
;	COMDAT xdata
xdata	SEGMENT
$unwind$PMCCS_GreatestCommonDivisor_X_X$catch$0 DD 031019H
	DD	0700c4210H
	DD	0500bH
	DD	imagerel __CxxFrameHandler3
	DD	imagerel $cppxdata$PMCCS_GreatestCommonDivisor_X_X
xdata	ENDS
;	COMDAT xdata
xdata	SEGMENT
$ip2state$PMCCS_GreatestCommonDivisor_X_X DD imagerel PMCCS_GreatestCommonDivisor_X_X
	DD	0ffffffffH
	DD	imagerel PMCCS_GreatestCommonDivisor_X_X+92
	DD	00H
	DD	imagerel PMCCS_GreatestCommonDivisor_X_X+127
	DD	0ffffffffH
	DD	imagerel PMCCS_GreatestCommonDivisor_X_X+133
	DD	00H
	DD	imagerel PMCCS_GreatestCommonDivisor_X_X$catch$0+20
	DD	01H
	DD	imagerel PMCCS_GreatestCommonDivisor_X_X$catch$0+35
	DD	00H
xdata	ENDS
;	COMDAT xdata
xdata	SEGMENT
$handlerMap$0$PMCCS_GreatestCommonDivisor_X_X DD 09H
	DD	imagerel ??_R0?AVException@Internal@Core@Math@Palmtree@@@8
	DD	028H
	DD	imagerel PMCCS_GreatestCommonDivisor_X_X$catch$0
	DD	048H
xdata	ENDS
;	COMDAT xdata
xdata	SEGMENT
$tryMap$PMCCS_GreatestCommonDivisor_X_X DD 00H
	DD	00H
	DD	01H
	DD	01H
	DD	imagerel $handlerMap$0$PMCCS_GreatestCommonDivisor_X_X
xdata	ENDS
;	COMDAT xdata
xdata	SEGMENT
$stateUnwindMap$PMCCS_GreatestCommonDivisor_X_X DD 0ffffffffH
	DD	00H
	DD	0ffffffffH
	DD	00H
xdata	ENDS
;	COMDAT xdata
xdata	SEGMENT
$unwind$PMCCS_GreatestCommonDivisor_X_X DD 025053f19H
	DD	0118231dH
	DD	070110029H
	DD	05010H
	DD	imagerel __CxxFrameHandler3
	DD	imagerel $cppxdata$PMCCS_GreatestCommonDivisor_X_X
xdata	ENDS
;	COMDAT CONST
CONST	SEGMENT
PMCCS_GreatestCommonDivisor_X_X$rtcName$0 DB 065H
	DB	078H
	DB	00H
	ORG $+13
PMCCS_GreatestCommonDivisor_X_X$rtcVarDesc DD 028H
	DD	08H
	DQ	FLAT:PMCCS_GreatestCommonDivisor_X_X$rtcName$0
	ORG $+48
PMCCS_GreatestCommonDivisor_X_X$rtcFrameData DD 01H
	DD	00H
	DQ	FLAT:PMCCS_GreatestCommonDivisor_X_X$rtcVarDesc
$cppxdata$PMCCS_GreatestCommonDivisor_X_X DD 019930522H
	DD	02H
	DD	imagerel $stateUnwindMap$PMCCS_GreatestCommonDivisor_X_X
	DD	01H
	DD	imagerel $tryMap$PMCCS_GreatestCommonDivisor_X_X
	DD	06H
	DD	imagerel $ip2state$PMCCS_GreatestCommonDivisor_X_X
	DD	0128H
	DD	00H
	DD	00H
CONST	ENDS
;	COMDAT xdata
xdata	SEGMENT
$unwind$PMCCS_GreatestCommonDivisor_X_L$catch$0 DD 031019H
	DD	0700c4210H
	DD	0500bH
	DD	imagerel __CxxFrameHandler3
	DD	imagerel $cppxdata$PMCCS_GreatestCommonDivisor_X_L
xdata	ENDS
;	COMDAT xdata
xdata	SEGMENT
$ip2state$PMCCS_GreatestCommonDivisor_X_L DD imagerel PMCCS_GreatestCommonDivisor_X_L
	DD	0ffffffffH
	DD	imagerel PMCCS_GreatestCommonDivisor_X_L+92
	DD	00H
	DD	imagerel PMCCS_GreatestCommonDivisor_X_L+127
	DD	0ffffffffH
	DD	imagerel PMCCS_GreatestCommonDivisor_X_L+133
	DD	00H
	DD	imagerel PMCCS_GreatestCommonDivisor_X_L$catch$0+20
	DD	01H
	DD	imagerel PMCCS_GreatestCommonDivisor_X_L$catch$0+35
	DD	00H
xdata	ENDS
;	COMDAT xdata
xdata	SEGMENT
$handlerMap$0$PMCCS_GreatestCommonDivisor_X_L DD 09H
	DD	imagerel ??_R0?AVException@Internal@Core@Math@Palmtree@@@8
	DD	028H
	DD	imagerel PMCCS_GreatestCommonDivisor_X_L$catch$0
	DD	048H
xdata	ENDS
;	COMDAT xdata
xdata	SEGMENT
$tryMap$PMCCS_GreatestCommonDivisor_X_L DD 00H
	DD	00H
	DD	01H
	DD	01H
	DD	imagerel $handlerMap$0$PMCCS_GreatestCommonDivisor_X_L
xdata	ENDS
;	COMDAT xdata
xdata	SEGMENT
$stateUnwindMap$PMCCS_GreatestCommonDivisor_X_L DD 0ffffffffH
	DD	00H
	DD	0ffffffffH
	DD	00H
xdata	ENDS
;	COMDAT xdata
xdata	SEGMENT
$unwind$PMCCS_GreatestCommonDivisor_X_L DD 025053f19H
	DD	0118231dH
	DD	070110029H
	DD	05010H
	DD	imagerel __CxxFrameHandler3
	DD	imagerel $cppxdata$PMCCS_GreatestCommonDivisor_X_L
xdata	ENDS
;	COMDAT CONST
CONST	SEGMENT
PMCCS_GreatestCommonDivisor_X_L$rtcName$0 DB 065H
	DB	078H
	DB	00H
	ORG $+13
PMCCS_GreatestCommonDivisor_X_L$rtcVarDesc DD 028H
	DD	08H
	DQ	FLAT:PMCCS_GreatestCommonDivisor_X_L$rtcName$0
	ORG $+48
PMCCS_GreatestCommonDivisor_X_L$rtcFrameData DD 01H
	DD	00H
	DQ	FLAT:PMCCS_GreatestCommonDivisor_X_L$rtcVarDesc
$cppxdata$PMCCS_GreatestCommonDivisor_X_L DD 019930522H
	DD	02H
	DD	imagerel $stateUnwindMap$PMCCS_GreatestCommonDivisor_X_L
	DD	01H
	DD	imagerel $tryMap$PMCCS_GreatestCommonDivisor_X_L
	DD	06H
	DD	imagerel $ip2state$PMCCS_GreatestCommonDivisor_X_L
	DD	0128H
	DD	00H
	DD	00H
CONST	ENDS
;	COMDAT xdata
xdata	SEGMENT
$unwind$PMCCS_GreatestCommonDivisor_X_I$catch$0 DD 031019H
	DD	0700c4210H
	DD	0500bH
	DD	imagerel __CxxFrameHandler3
	DD	imagerel $cppxdata$PMCCS_GreatestCommonDivisor_X_I
xdata	ENDS
;	COMDAT xdata
xdata	SEGMENT
$ip2state$PMCCS_GreatestCommonDivisor_X_I DD imagerel PMCCS_GreatestCommonDivisor_X_I
	DD	0ffffffffH
	DD	imagerel PMCCS_GreatestCommonDivisor_X_I+91
	DD	00H
	DD	imagerel PMCCS_GreatestCommonDivisor_X_I+125
	DD	0ffffffffH
	DD	imagerel PMCCS_GreatestCommonDivisor_X_I+131
	DD	00H
	DD	imagerel PMCCS_GreatestCommonDivisor_X_I$catch$0+20
	DD	01H
	DD	imagerel PMCCS_GreatestCommonDivisor_X_I$catch$0+35
	DD	00H
xdata	ENDS
;	COMDAT xdata
xdata	SEGMENT
$handlerMap$0$PMCCS_GreatestCommonDivisor_X_I DD 09H
	DD	imagerel ??_R0?AVException@Internal@Core@Math@Palmtree@@@8
	DD	028H
	DD	imagerel PMCCS_GreatestCommonDivisor_X_I$catch$0
	DD	048H
xdata	ENDS
;	COMDAT xdata
xdata	SEGMENT
$tryMap$PMCCS_GreatestCommonDivisor_X_I DD 00H
	DD	00H
	DD	01H
	DD	01H
	DD	imagerel $handlerMap$0$PMCCS_GreatestCommonDivisor_X_I
xdata	ENDS
;	COMDAT xdata
xdata	SEGMENT
$stateUnwindMap$PMCCS_GreatestCommonDivisor_X_I DD 0ffffffffH
	DD	00H
	DD	0ffffffffH
	DD	00H
xdata	ENDS
;	COMDAT xdata
xdata	SEGMENT
$unwind$PMCCS_GreatestCommonDivisor_X_I DD 025053e19H
	DD	0117231cH
	DD	070100029H
	DD	0500fH
	DD	imagerel __CxxFrameHandler3
	DD	imagerel $cppxdata$PMCCS_GreatestCommonDivisor_X_I
xdata	ENDS
;	COMDAT CONST
CONST	SEGMENT
PMCCS_GreatestCommonDivisor_X_I$rtcName$0 DB 065H
	DB	078H
	DB	00H
	ORG $+13
PMCCS_GreatestCommonDivisor_X_I$rtcVarDesc DD 028H
	DD	08H
	DQ	FLAT:PMCCS_GreatestCommonDivisor_X_I$rtcName$0
	ORG $+48
PMCCS_GreatestCommonDivisor_X_I$rtcFrameData DD 01H
	DD	00H
	DQ	FLAT:PMCCS_GreatestCommonDivisor_X_I$rtcVarDesc
$cppxdata$PMCCS_GreatestCommonDivisor_X_I DD 019930522H
	DD	02H
	DD	imagerel $stateUnwindMap$PMCCS_GreatestCommonDivisor_X_I
	DD	01H
	DD	imagerel $tryMap$PMCCS_GreatestCommonDivisor_X_I
	DD	06H
	DD	imagerel $ip2state$PMCCS_GreatestCommonDivisor_X_I
	DD	0128H
	DD	00H
	DD	00H
CONST	ENDS
;	COMDAT xdata
xdata	SEGMENT
$unwind$PMCCS_GreatestCommonDivisor_L_X$catch$0 DD 031019H
	DD	0700c4210H
	DD	0500bH
	DD	imagerel __CxxFrameHandler3
	DD	imagerel $cppxdata$PMCCS_GreatestCommonDivisor_L_X
xdata	ENDS
;	COMDAT xdata
xdata	SEGMENT
$ip2state$PMCCS_GreatestCommonDivisor_L_X DD imagerel PMCCS_GreatestCommonDivisor_L_X
	DD	0ffffffffH
	DD	imagerel PMCCS_GreatestCommonDivisor_L_X+92
	DD	00H
	DD	imagerel PMCCS_GreatestCommonDivisor_L_X+127
	DD	0ffffffffH
	DD	imagerel PMCCS_GreatestCommonDivisor_L_X+133
	DD	00H
	DD	imagerel PMCCS_GreatestCommonDivisor_L_X$catch$0+20
	DD	01H
	DD	imagerel PMCCS_GreatestCommonDivisor_L_X$catch$0+35
	DD	00H
xdata	ENDS
;	COMDAT xdata
xdata	SEGMENT
$handlerMap$0$PMCCS_GreatestCommonDivisor_L_X DD 09H
	DD	imagerel ??_R0?AVException@Internal@Core@Math@Palmtree@@@8
	DD	028H
	DD	imagerel PMCCS_GreatestCommonDivisor_L_X$catch$0
	DD	048H
xdata	ENDS
;	COMDAT xdata
xdata	SEGMENT
$tryMap$PMCCS_GreatestCommonDivisor_L_X DD 00H
	DD	00H
	DD	01H
	DD	01H
	DD	imagerel $handlerMap$0$PMCCS_GreatestCommonDivisor_L_X
xdata	ENDS
;	COMDAT xdata
xdata	SEGMENT
$stateUnwindMap$PMCCS_GreatestCommonDivisor_L_X DD 0ffffffffH
	DD	00H
	DD	0ffffffffH
	DD	00H
xdata	ENDS
;	COMDAT xdata
xdata	SEGMENT
$unwind$PMCCS_GreatestCommonDivisor_L_X DD 025053f19H
	DD	0118231dH
	DD	070110029H
	DD	05010H
	DD	imagerel __CxxFrameHandler3
	DD	imagerel $cppxdata$PMCCS_GreatestCommonDivisor_L_X
xdata	ENDS
;	COMDAT CONST
CONST	SEGMENT
PMCCS_GreatestCommonDivisor_L_X$rtcName$0 DB 065H
	DB	078H
	DB	00H
	ORG $+13
PMCCS_GreatestCommonDivisor_L_X$rtcVarDesc DD 028H
	DD	08H
	DQ	FLAT:PMCCS_GreatestCommonDivisor_L_X$rtcName$0
	ORG $+48
PMCCS_GreatestCommonDivisor_L_X$rtcFrameData DD 01H
	DD	00H
	DQ	FLAT:PMCCS_GreatestCommonDivisor_L_X$rtcVarDesc
$cppxdata$PMCCS_GreatestCommonDivisor_L_X DD 019930522H
	DD	02H
	DD	imagerel $stateUnwindMap$PMCCS_GreatestCommonDivisor_L_X
	DD	01H
	DD	imagerel $tryMap$PMCCS_GreatestCommonDivisor_L_X
	DD	06H
	DD	imagerel $ip2state$PMCCS_GreatestCommonDivisor_L_X
	DD	0128H
	DD	00H
	DD	00H
CONST	ENDS
;	COMDAT xdata
xdata	SEGMENT
$unwind$PMCCS_GreatestCommonDivisor_I_X$catch$0 DD 031019H
	DD	0700c4210H
	DD	0500bH
	DD	imagerel __CxxFrameHandler3
	DD	imagerel $cppxdata$PMCCS_GreatestCommonDivisor_I_X
xdata	ENDS
;	COMDAT xdata
xdata	SEGMENT
$ip2state$PMCCS_GreatestCommonDivisor_I_X DD imagerel PMCCS_GreatestCommonDivisor_I_X
	DD	0ffffffffH
	DD	imagerel PMCCS_GreatestCommonDivisor_I_X+90
	DD	00H
	DD	imagerel PMCCS_GreatestCommonDivisor_I_X+124
	DD	0ffffffffH
	DD	imagerel PMCCS_GreatestCommonDivisor_I_X+130
	DD	00H
	DD	imagerel PMCCS_GreatestCommonDivisor_I_X$catch$0+20
	DD	01H
	DD	imagerel PMCCS_GreatestCommonDivisor_I_X$catch$0+35
	DD	00H
xdata	ENDS
;	COMDAT xdata
xdata	SEGMENT
$handlerMap$0$PMCCS_GreatestCommonDivisor_I_X DD 09H
	DD	imagerel ??_R0?AVException@Internal@Core@Math@Palmtree@@@8
	DD	028H
	DD	imagerel PMCCS_GreatestCommonDivisor_I_X$catch$0
	DD	048H
xdata	ENDS
;	COMDAT xdata
xdata	SEGMENT
$tryMap$PMCCS_GreatestCommonDivisor_I_X DD 00H
	DD	00H
	DD	01H
	DD	01H
	DD	imagerel $handlerMap$0$PMCCS_GreatestCommonDivisor_I_X
xdata	ENDS
;	COMDAT xdata
xdata	SEGMENT
$stateUnwindMap$PMCCS_GreatestCommonDivisor_I_X DD 0ffffffffH
	DD	00H
	DD	0ffffffffH
	DD	00H
xdata	ENDS
;	COMDAT xdata
xdata	SEGMENT
$unwind$PMCCS_GreatestCommonDivisor_I_X DD 025053d19H
	DD	0117231cH
	DD	070100029H
	DD	0500fH
	DD	imagerel __CxxFrameHandler3
	DD	imagerel $cppxdata$PMCCS_GreatestCommonDivisor_I_X
xdata	ENDS
;	COMDAT CONST
CONST	SEGMENT
PMCCS_GreatestCommonDivisor_I_X$rtcName$0 DB 065H
	DB	078H
	DB	00H
	ORG $+13
PMCCS_GreatestCommonDivisor_I_X$rtcVarDesc DD 028H
	DD	08H
	DQ	FLAT:PMCCS_GreatestCommonDivisor_I_X$rtcName$0
	ORG $+48
PMCCS_GreatestCommonDivisor_I_X$rtcFrameData DD 01H
	DD	00H
	DQ	FLAT:PMCCS_GreatestCommonDivisor_I_X$rtcVarDesc
$cppxdata$PMCCS_GreatestCommonDivisor_I_X DD 019930522H
	DD	02H
	DD	imagerel $stateUnwindMap$PMCCS_GreatestCommonDivisor_I_X
	DD	01H
	DD	imagerel $tryMap$PMCCS_GreatestCommonDivisor_I_X
	DD	06H
	DD	imagerel $ip2state$PMCCS_GreatestCommonDivisor_I_X
	DD	0128H
	DD	00H
	DD	00H
CONST	ENDS
;	COMDAT xdata
xdata	SEGMENT
$unwind$PMCCS_Equals_X_X$catch$0 DD 031019H
	DD	0700c4210H
	DD	0500bH
	DD	imagerel __CxxFrameHandler3
	DD	imagerel $cppxdata$PMCCS_Equals_X_X
xdata	ENDS
;	COMDAT xdata
xdata	SEGMENT
$ip2state$PMCCS_Equals_X_X DD imagerel PMCCS_Equals_X_X
	DD	0ffffffffH
	DD	imagerel PMCCS_Equals_X_X+92
	DD	00H
	DD	imagerel PMCCS_Equals_X_X+126
	DD	0ffffffffH
	DD	imagerel PMCCS_Equals_X_X+132
	DD	00H
	DD	imagerel PMCCS_Equals_X_X$catch$0+20
	DD	01H
	DD	imagerel PMCCS_Equals_X_X$catch$0+35
	DD	00H
xdata	ENDS
;	COMDAT xdata
xdata	SEGMENT
$handlerMap$0$PMCCS_Equals_X_X DD 09H
	DD	imagerel ??_R0?AVException@Internal@Core@Math@Palmtree@@@8
	DD	028H
	DD	imagerel PMCCS_Equals_X_X$catch$0
	DD	048H
xdata	ENDS
;	COMDAT xdata
xdata	SEGMENT
$tryMap$PMCCS_Equals_X_X DD 00H
	DD	00H
	DD	01H
	DD	01H
	DD	imagerel $handlerMap$0$PMCCS_Equals_X_X
xdata	ENDS
;	COMDAT xdata
xdata	SEGMENT
$stateUnwindMap$PMCCS_Equals_X_X DD 0ffffffffH
	DD	00H
	DD	0ffffffffH
	DD	00H
xdata	ENDS
;	COMDAT xdata
xdata	SEGMENT
$unwind$PMCCS_Equals_X_X DD 025053f19H
	DD	0118231dH
	DD	070110029H
	DD	05010H
	DD	imagerel __CxxFrameHandler3
	DD	imagerel $cppxdata$PMCCS_Equals_X_X
xdata	ENDS
;	COMDAT CONST
CONST	SEGMENT
PMCCS_Equals_X_X$rtcName$0 DB 065H
	DB	078H
	DB	00H
	ORG $+13
PMCCS_Equals_X_X$rtcVarDesc DD 028H
	DD	08H
	DQ	FLAT:PMCCS_Equals_X_X$rtcName$0
	ORG $+48
PMCCS_Equals_X_X$rtcFrameData DD 01H
	DD	00H
	DQ	FLAT:PMCCS_Equals_X_X$rtcVarDesc
$cppxdata$PMCCS_Equals_X_X DD 019930522H
	DD	02H
	DD	imagerel $stateUnwindMap$PMCCS_Equals_X_X
	DD	01H
	DD	imagerel $tryMap$PMCCS_Equals_X_X
	DD	06H
	DD	imagerel $ip2state$PMCCS_Equals_X_X
	DD	0128H
	DD	00H
	DD	00H
CONST	ENDS
;	COMDAT xdata
xdata	SEGMENT
$unwind$PMCCS_Equals_X_L$catch$0 DD 031019H
	DD	0700c4210H
	DD	0500bH
	DD	imagerel __CxxFrameHandler3
	DD	imagerel $cppxdata$PMCCS_Equals_X_L
xdata	ENDS
;	COMDAT xdata
xdata	SEGMENT
$ip2state$PMCCS_Equals_X_L DD imagerel PMCCS_Equals_X_L
	DD	0ffffffffH
	DD	imagerel PMCCS_Equals_X_L+92
	DD	00H
	DD	imagerel PMCCS_Equals_X_L+126
	DD	0ffffffffH
	DD	imagerel PMCCS_Equals_X_L+132
	DD	00H
	DD	imagerel PMCCS_Equals_X_L$catch$0+20
	DD	01H
	DD	imagerel PMCCS_Equals_X_L$catch$0+35
	DD	00H
xdata	ENDS
;	COMDAT xdata
xdata	SEGMENT
$handlerMap$0$PMCCS_Equals_X_L DD 09H
	DD	imagerel ??_R0?AVException@Internal@Core@Math@Palmtree@@@8
	DD	028H
	DD	imagerel PMCCS_Equals_X_L$catch$0
	DD	048H
xdata	ENDS
;	COMDAT xdata
xdata	SEGMENT
$tryMap$PMCCS_Equals_X_L DD 00H
	DD	00H
	DD	01H
	DD	01H
	DD	imagerel $handlerMap$0$PMCCS_Equals_X_L
xdata	ENDS
;	COMDAT xdata
xdata	SEGMENT
$stateUnwindMap$PMCCS_Equals_X_L DD 0ffffffffH
	DD	00H
	DD	0ffffffffH
	DD	00H
xdata	ENDS
;	COMDAT xdata
xdata	SEGMENT
$unwind$PMCCS_Equals_X_L DD 025053f19H
	DD	0118231dH
	DD	070110029H
	DD	05010H
	DD	imagerel __CxxFrameHandler3
	DD	imagerel $cppxdata$PMCCS_Equals_X_L
xdata	ENDS
;	COMDAT CONST
CONST	SEGMENT
PMCCS_Equals_X_L$rtcName$0 DB 065H
	DB	078H
	DB	00H
	ORG $+13
PMCCS_Equals_X_L$rtcVarDesc DD 028H
	DD	08H
	DQ	FLAT:PMCCS_Equals_X_L$rtcName$0
	ORG $+48
PMCCS_Equals_X_L$rtcFrameData DD 01H
	DD	00H
	DQ	FLAT:PMCCS_Equals_X_L$rtcVarDesc
$cppxdata$PMCCS_Equals_X_L DD 019930522H
	DD	02H
	DD	imagerel $stateUnwindMap$PMCCS_Equals_X_L
	DD	01H
	DD	imagerel $tryMap$PMCCS_Equals_X_L
	DD	06H
	DD	imagerel $ip2state$PMCCS_Equals_X_L
	DD	0128H
	DD	00H
	DD	00H
CONST	ENDS
;	COMDAT xdata
xdata	SEGMENT
$unwind$PMCCS_Equals_X_I$catch$0 DD 031019H
	DD	0700c4210H
	DD	0500bH
	DD	imagerel __CxxFrameHandler3
	DD	imagerel $cppxdata$PMCCS_Equals_X_I
xdata	ENDS
;	COMDAT xdata
xdata	SEGMENT
$ip2state$PMCCS_Equals_X_I DD imagerel PMCCS_Equals_X_I
	DD	0ffffffffH
	DD	imagerel PMCCS_Equals_X_I+91
	DD	00H
	DD	imagerel PMCCS_Equals_X_I+124
	DD	0ffffffffH
	DD	imagerel PMCCS_Equals_X_I+130
	DD	00H
	DD	imagerel PMCCS_Equals_X_I$catch$0+20
	DD	01H
	DD	imagerel PMCCS_Equals_X_I$catch$0+35
	DD	00H
xdata	ENDS
;	COMDAT xdata
xdata	SEGMENT
$handlerMap$0$PMCCS_Equals_X_I DD 09H
	DD	imagerel ??_R0?AVException@Internal@Core@Math@Palmtree@@@8
	DD	028H
	DD	imagerel PMCCS_Equals_X_I$catch$0
	DD	048H
xdata	ENDS
;	COMDAT xdata
xdata	SEGMENT
$tryMap$PMCCS_Equals_X_I DD 00H
	DD	00H
	DD	01H
	DD	01H
	DD	imagerel $handlerMap$0$PMCCS_Equals_X_I
xdata	ENDS
;	COMDAT xdata
xdata	SEGMENT
$stateUnwindMap$PMCCS_Equals_X_I DD 0ffffffffH
	DD	00H
	DD	0ffffffffH
	DD	00H
xdata	ENDS
;	COMDAT xdata
xdata	SEGMENT
$unwind$PMCCS_Equals_X_I DD 025053e19H
	DD	0117231cH
	DD	070100029H
	DD	0500fH
	DD	imagerel __CxxFrameHandler3
	DD	imagerel $cppxdata$PMCCS_Equals_X_I
xdata	ENDS
;	COMDAT CONST
CONST	SEGMENT
PMCCS_Equals_X_I$rtcName$0 DB 065H
	DB	078H
	DB	00H
	ORG $+13
PMCCS_Equals_X_I$rtcVarDesc DD 028H
	DD	08H
	DQ	FLAT:PMCCS_Equals_X_I$rtcName$0
	ORG $+48
PMCCS_Equals_X_I$rtcFrameData DD 01H
	DD	00H
	DQ	FLAT:PMCCS_Equals_X_I$rtcVarDesc
$cppxdata$PMCCS_Equals_X_I DD 019930522H
	DD	02H
	DD	imagerel $stateUnwindMap$PMCCS_Equals_X_I
	DD	01H
	DD	imagerel $tryMap$PMCCS_Equals_X_I
	DD	06H
	DD	imagerel $ip2state$PMCCS_Equals_X_I
	DD	0128H
	DD	00H
	DD	00H
CONST	ENDS
;	COMDAT xdata
xdata	SEGMENT
$unwind$PMCCS_Equals_L_X$catch$0 DD 031019H
	DD	0700c4210H
	DD	0500bH
	DD	imagerel __CxxFrameHandler3
	DD	imagerel $cppxdata$PMCCS_Equals_L_X
xdata	ENDS
;	COMDAT xdata
xdata	SEGMENT
$ip2state$PMCCS_Equals_L_X DD imagerel PMCCS_Equals_L_X
	DD	0ffffffffH
	DD	imagerel PMCCS_Equals_L_X+92
	DD	00H
	DD	imagerel PMCCS_Equals_L_X+126
	DD	0ffffffffH
	DD	imagerel PMCCS_Equals_L_X+132
	DD	00H
	DD	imagerel PMCCS_Equals_L_X$catch$0+20
	DD	01H
	DD	imagerel PMCCS_Equals_L_X$catch$0+35
	DD	00H
xdata	ENDS
;	COMDAT xdata
xdata	SEGMENT
$handlerMap$0$PMCCS_Equals_L_X DD 09H
	DD	imagerel ??_R0?AVException@Internal@Core@Math@Palmtree@@@8
	DD	028H
	DD	imagerel PMCCS_Equals_L_X$catch$0
	DD	048H
xdata	ENDS
;	COMDAT xdata
xdata	SEGMENT
$tryMap$PMCCS_Equals_L_X DD 00H
	DD	00H
	DD	01H
	DD	01H
	DD	imagerel $handlerMap$0$PMCCS_Equals_L_X
xdata	ENDS
;	COMDAT xdata
xdata	SEGMENT
$stateUnwindMap$PMCCS_Equals_L_X DD 0ffffffffH
	DD	00H
	DD	0ffffffffH
	DD	00H
xdata	ENDS
;	COMDAT xdata
xdata	SEGMENT
$unwind$PMCCS_Equals_L_X DD 025053f19H
	DD	0118231dH
	DD	070110029H
	DD	05010H
	DD	imagerel __CxxFrameHandler3
	DD	imagerel $cppxdata$PMCCS_Equals_L_X
xdata	ENDS
;	COMDAT CONST
CONST	SEGMENT
PMCCS_Equals_L_X$rtcName$0 DB 065H
	DB	078H
	DB	00H
	ORG $+13
PMCCS_Equals_L_X$rtcVarDesc DD 028H
	DD	08H
	DQ	FLAT:PMCCS_Equals_L_X$rtcName$0
	ORG $+48
PMCCS_Equals_L_X$rtcFrameData DD 01H
	DD	00H
	DQ	FLAT:PMCCS_Equals_L_X$rtcVarDesc
$cppxdata$PMCCS_Equals_L_X DD 019930522H
	DD	02H
	DD	imagerel $stateUnwindMap$PMCCS_Equals_L_X
	DD	01H
	DD	imagerel $tryMap$PMCCS_Equals_L_X
	DD	06H
	DD	imagerel $ip2state$PMCCS_Equals_L_X
	DD	0128H
	DD	00H
	DD	00H
CONST	ENDS
;	COMDAT xdata
xdata	SEGMENT
$unwind$PMCCS_Equals_I_X$catch$0 DD 031019H
	DD	0700c4210H
	DD	0500bH
	DD	imagerel __CxxFrameHandler3
	DD	imagerel $cppxdata$PMCCS_Equals_I_X
xdata	ENDS
;	COMDAT xdata
xdata	SEGMENT
$ip2state$PMCCS_Equals_I_X DD imagerel PMCCS_Equals_I_X
	DD	0ffffffffH
	DD	imagerel PMCCS_Equals_I_X+90
	DD	00H
	DD	imagerel PMCCS_Equals_I_X+123
	DD	0ffffffffH
	DD	imagerel PMCCS_Equals_I_X+129
	DD	00H
	DD	imagerel PMCCS_Equals_I_X$catch$0+20
	DD	01H
	DD	imagerel PMCCS_Equals_I_X$catch$0+35
	DD	00H
xdata	ENDS
;	COMDAT xdata
xdata	SEGMENT
$handlerMap$0$PMCCS_Equals_I_X DD 09H
	DD	imagerel ??_R0?AVException@Internal@Core@Math@Palmtree@@@8
	DD	028H
	DD	imagerel PMCCS_Equals_I_X$catch$0
	DD	048H
xdata	ENDS
;	COMDAT xdata
xdata	SEGMENT
$tryMap$PMCCS_Equals_I_X DD 00H
	DD	00H
	DD	01H
	DD	01H
	DD	imagerel $handlerMap$0$PMCCS_Equals_I_X
xdata	ENDS
;	COMDAT xdata
xdata	SEGMENT
$stateUnwindMap$PMCCS_Equals_I_X DD 0ffffffffH
	DD	00H
	DD	0ffffffffH
	DD	00H
xdata	ENDS
;	COMDAT xdata
xdata	SEGMENT
$unwind$PMCCS_Equals_I_X DD 025053d19H
	DD	0117231cH
	DD	070100029H
	DD	0500fH
	DD	imagerel __CxxFrameHandler3
	DD	imagerel $cppxdata$PMCCS_Equals_I_X
xdata	ENDS
;	COMDAT CONST
CONST	SEGMENT
PMCCS_Equals_I_X$rtcName$0 DB 065H
	DB	078H
	DB	00H
	ORG $+13
PMCCS_Equals_I_X$rtcVarDesc DD 028H
	DD	08H
	DQ	FLAT:PMCCS_Equals_I_X$rtcName$0
	ORG $+48
PMCCS_Equals_I_X$rtcFrameData DD 01H
	DD	00H
	DQ	FLAT:PMCCS_Equals_I_X$rtcVarDesc
$cppxdata$PMCCS_Equals_I_X DD 019930522H
	DD	02H
	DD	imagerel $stateUnwindMap$PMCCS_Equals_I_X
	DD	01H
	DD	imagerel $tryMap$PMCCS_Equals_I_X
	DD	06H
	DD	imagerel $ip2state$PMCCS_Equals_I_X
	DD	0128H
	DD	00H
	DD	00H
CONST	ENDS
;	COMDAT xdata
xdata	SEGMENT
$unwind$PMCCS_Compare_X_X$catch$0 DD 031019H
	DD	0700c4210H
	DD	0500bH
	DD	imagerel __CxxFrameHandler3
	DD	imagerel $cppxdata$PMCCS_Compare_X_X
xdata	ENDS
;	COMDAT xdata
xdata	SEGMENT
$ip2state$PMCCS_Compare_X_X DD imagerel PMCCS_Compare_X_X
	DD	0ffffffffH
	DD	imagerel PMCCS_Compare_X_X+92
	DD	00H
	DD	imagerel PMCCS_Compare_X_X+126
	DD	0ffffffffH
	DD	imagerel PMCCS_Compare_X_X+132
	DD	00H
	DD	imagerel PMCCS_Compare_X_X$catch$0+20
	DD	01H
	DD	imagerel PMCCS_Compare_X_X$catch$0+35
	DD	00H
xdata	ENDS
;	COMDAT xdata
xdata	SEGMENT
$handlerMap$0$PMCCS_Compare_X_X DD 09H
	DD	imagerel ??_R0?AVException@Internal@Core@Math@Palmtree@@@8
	DD	028H
	DD	imagerel PMCCS_Compare_X_X$catch$0
	DD	048H
xdata	ENDS
;	COMDAT xdata
xdata	SEGMENT
$tryMap$PMCCS_Compare_X_X DD 00H
	DD	00H
	DD	01H
	DD	01H
	DD	imagerel $handlerMap$0$PMCCS_Compare_X_X
xdata	ENDS
;	COMDAT xdata
xdata	SEGMENT
$stateUnwindMap$PMCCS_Compare_X_X DD 0ffffffffH
	DD	00H
	DD	0ffffffffH
	DD	00H
xdata	ENDS
;	COMDAT xdata
xdata	SEGMENT
$unwind$PMCCS_Compare_X_X DD 025053f19H
	DD	0118231dH
	DD	070110029H
	DD	05010H
	DD	imagerel __CxxFrameHandler3
	DD	imagerel $cppxdata$PMCCS_Compare_X_X
xdata	ENDS
;	COMDAT CONST
CONST	SEGMENT
PMCCS_Compare_X_X$rtcName$0 DB 065H
	DB	078H
	DB	00H
	ORG $+13
PMCCS_Compare_X_X$rtcVarDesc DD 028H
	DD	08H
	DQ	FLAT:PMCCS_Compare_X_X$rtcName$0
	ORG $+48
PMCCS_Compare_X_X$rtcFrameData DD 01H
	DD	00H
	DQ	FLAT:PMCCS_Compare_X_X$rtcVarDesc
$cppxdata$PMCCS_Compare_X_X DD 019930522H
	DD	02H
	DD	imagerel $stateUnwindMap$PMCCS_Compare_X_X
	DD	01H
	DD	imagerel $tryMap$PMCCS_Compare_X_X
	DD	06H
	DD	imagerel $ip2state$PMCCS_Compare_X_X
	DD	0128H
	DD	00H
	DD	00H
CONST	ENDS
;	COMDAT xdata
xdata	SEGMENT
$unwind$PMCCS_Compare_X_L$catch$0 DD 031019H
	DD	0700c4210H
	DD	0500bH
	DD	imagerel __CxxFrameHandler3
	DD	imagerel $cppxdata$PMCCS_Compare_X_L
xdata	ENDS
;	COMDAT xdata
xdata	SEGMENT
$ip2state$PMCCS_Compare_X_L DD imagerel PMCCS_Compare_X_L
	DD	0ffffffffH
	DD	imagerel PMCCS_Compare_X_L+92
	DD	00H
	DD	imagerel PMCCS_Compare_X_L+126
	DD	0ffffffffH
	DD	imagerel PMCCS_Compare_X_L+132
	DD	00H
	DD	imagerel PMCCS_Compare_X_L$catch$0+20
	DD	01H
	DD	imagerel PMCCS_Compare_X_L$catch$0+35
	DD	00H
xdata	ENDS
;	COMDAT xdata
xdata	SEGMENT
$handlerMap$0$PMCCS_Compare_X_L DD 09H
	DD	imagerel ??_R0?AVException@Internal@Core@Math@Palmtree@@@8
	DD	028H
	DD	imagerel PMCCS_Compare_X_L$catch$0
	DD	048H
xdata	ENDS
;	COMDAT xdata
xdata	SEGMENT
$tryMap$PMCCS_Compare_X_L DD 00H
	DD	00H
	DD	01H
	DD	01H
	DD	imagerel $handlerMap$0$PMCCS_Compare_X_L
xdata	ENDS
;	COMDAT xdata
xdata	SEGMENT
$stateUnwindMap$PMCCS_Compare_X_L DD 0ffffffffH
	DD	00H
	DD	0ffffffffH
	DD	00H
xdata	ENDS
;	COMDAT xdata
xdata	SEGMENT
$unwind$PMCCS_Compare_X_L DD 025053f19H
	DD	0118231dH
	DD	070110029H
	DD	05010H
	DD	imagerel __CxxFrameHandler3
	DD	imagerel $cppxdata$PMCCS_Compare_X_L
xdata	ENDS
;	COMDAT CONST
CONST	SEGMENT
PMCCS_Compare_X_L$rtcName$0 DB 065H
	DB	078H
	DB	00H
	ORG $+13
PMCCS_Compare_X_L$rtcVarDesc DD 028H
	DD	08H
	DQ	FLAT:PMCCS_Compare_X_L$rtcName$0
	ORG $+48
PMCCS_Compare_X_L$rtcFrameData DD 01H
	DD	00H
	DQ	FLAT:PMCCS_Compare_X_L$rtcVarDesc
$cppxdata$PMCCS_Compare_X_L DD 019930522H
	DD	02H
	DD	imagerel $stateUnwindMap$PMCCS_Compare_X_L
	DD	01H
	DD	imagerel $tryMap$PMCCS_Compare_X_L
	DD	06H
	DD	imagerel $ip2state$PMCCS_Compare_X_L
	DD	0128H
	DD	00H
	DD	00H
CONST	ENDS
;	COMDAT xdata
xdata	SEGMENT
$unwind$PMCCS_Compare_X_I$catch$0 DD 031019H
	DD	0700c4210H
	DD	0500bH
	DD	imagerel __CxxFrameHandler3
	DD	imagerel $cppxdata$PMCCS_Compare_X_I
xdata	ENDS
;	COMDAT xdata
xdata	SEGMENT
$ip2state$PMCCS_Compare_X_I DD imagerel PMCCS_Compare_X_I
	DD	0ffffffffH
	DD	imagerel PMCCS_Compare_X_I+91
	DD	00H
	DD	imagerel PMCCS_Compare_X_I+124
	DD	0ffffffffH
	DD	imagerel PMCCS_Compare_X_I+130
	DD	00H
	DD	imagerel PMCCS_Compare_X_I$catch$0+20
	DD	01H
	DD	imagerel PMCCS_Compare_X_I$catch$0+35
	DD	00H
xdata	ENDS
;	COMDAT xdata
xdata	SEGMENT
$handlerMap$0$PMCCS_Compare_X_I DD 09H
	DD	imagerel ??_R0?AVException@Internal@Core@Math@Palmtree@@@8
	DD	028H
	DD	imagerel PMCCS_Compare_X_I$catch$0
	DD	048H
xdata	ENDS
;	COMDAT xdata
xdata	SEGMENT
$tryMap$PMCCS_Compare_X_I DD 00H
	DD	00H
	DD	01H
	DD	01H
	DD	imagerel $handlerMap$0$PMCCS_Compare_X_I
xdata	ENDS
;	COMDAT xdata
xdata	SEGMENT
$stateUnwindMap$PMCCS_Compare_X_I DD 0ffffffffH
	DD	00H
	DD	0ffffffffH
	DD	00H
xdata	ENDS
;	COMDAT xdata
xdata	SEGMENT
$unwind$PMCCS_Compare_X_I DD 025053e19H
	DD	0117231cH
	DD	070100029H
	DD	0500fH
	DD	imagerel __CxxFrameHandler3
	DD	imagerel $cppxdata$PMCCS_Compare_X_I
xdata	ENDS
;	COMDAT CONST
CONST	SEGMENT
PMCCS_Compare_X_I$rtcName$0 DB 065H
	DB	078H
	DB	00H
	ORG $+13
PMCCS_Compare_X_I$rtcVarDesc DD 028H
	DD	08H
	DQ	FLAT:PMCCS_Compare_X_I$rtcName$0
	ORG $+48
PMCCS_Compare_X_I$rtcFrameData DD 01H
	DD	00H
	DQ	FLAT:PMCCS_Compare_X_I$rtcVarDesc
$cppxdata$PMCCS_Compare_X_I DD 019930522H
	DD	02H
	DD	imagerel $stateUnwindMap$PMCCS_Compare_X_I
	DD	01H
	DD	imagerel $tryMap$PMCCS_Compare_X_I
	DD	06H
	DD	imagerel $ip2state$PMCCS_Compare_X_I
	DD	0128H
	DD	00H
	DD	00H
CONST	ENDS
;	COMDAT xdata
xdata	SEGMENT
$unwind$PMCCS_Compare_L_X$catch$0 DD 031019H
	DD	0700c4210H
	DD	0500bH
	DD	imagerel __CxxFrameHandler3
	DD	imagerel $cppxdata$PMCCS_Compare_L_X
xdata	ENDS
;	COMDAT xdata
xdata	SEGMENT
$ip2state$PMCCS_Compare_L_X DD imagerel PMCCS_Compare_L_X
	DD	0ffffffffH
	DD	imagerel PMCCS_Compare_L_X+92
	DD	00H
	DD	imagerel PMCCS_Compare_L_X+126
	DD	0ffffffffH
	DD	imagerel PMCCS_Compare_L_X+132
	DD	00H
	DD	imagerel PMCCS_Compare_L_X$catch$0+20
	DD	01H
	DD	imagerel PMCCS_Compare_L_X$catch$0+35
	DD	00H
xdata	ENDS
;	COMDAT xdata
xdata	SEGMENT
$handlerMap$0$PMCCS_Compare_L_X DD 09H
	DD	imagerel ??_R0?AVException@Internal@Core@Math@Palmtree@@@8
	DD	028H
	DD	imagerel PMCCS_Compare_L_X$catch$0
	DD	048H
xdata	ENDS
;	COMDAT xdata
xdata	SEGMENT
$tryMap$PMCCS_Compare_L_X DD 00H
	DD	00H
	DD	01H
	DD	01H
	DD	imagerel $handlerMap$0$PMCCS_Compare_L_X
xdata	ENDS
;	COMDAT xdata
xdata	SEGMENT
$stateUnwindMap$PMCCS_Compare_L_X DD 0ffffffffH
	DD	00H
	DD	0ffffffffH
	DD	00H
xdata	ENDS
;	COMDAT xdata
xdata	SEGMENT
$unwind$PMCCS_Compare_L_X DD 025053f19H
	DD	0118231dH
	DD	070110029H
	DD	05010H
	DD	imagerel __CxxFrameHandler3
	DD	imagerel $cppxdata$PMCCS_Compare_L_X
xdata	ENDS
;	COMDAT CONST
CONST	SEGMENT
PMCCS_Compare_L_X$rtcName$0 DB 065H
	DB	078H
	DB	00H
	ORG $+13
PMCCS_Compare_L_X$rtcVarDesc DD 028H
	DD	08H
	DQ	FLAT:PMCCS_Compare_L_X$rtcName$0
	ORG $+48
PMCCS_Compare_L_X$rtcFrameData DD 01H
	DD	00H
	DQ	FLAT:PMCCS_Compare_L_X$rtcVarDesc
$cppxdata$PMCCS_Compare_L_X DD 019930522H
	DD	02H
	DD	imagerel $stateUnwindMap$PMCCS_Compare_L_X
	DD	01H
	DD	imagerel $tryMap$PMCCS_Compare_L_X
	DD	06H
	DD	imagerel $ip2state$PMCCS_Compare_L_X
	DD	0128H
	DD	00H
	DD	00H
CONST	ENDS
;	COMDAT xdata
xdata	SEGMENT
$unwind$PMCCS_Compare_I_X$catch$0 DD 031019H
	DD	0700c4210H
	DD	0500bH
	DD	imagerel __CxxFrameHandler3
	DD	imagerel $cppxdata$PMCCS_Compare_I_X
xdata	ENDS
;	COMDAT xdata
xdata	SEGMENT
$ip2state$PMCCS_Compare_I_X DD imagerel PMCCS_Compare_I_X
	DD	0ffffffffH
	DD	imagerel PMCCS_Compare_I_X+90
	DD	00H
	DD	imagerel PMCCS_Compare_I_X+123
	DD	0ffffffffH
	DD	imagerel PMCCS_Compare_I_X+129
	DD	00H
	DD	imagerel PMCCS_Compare_I_X$catch$0+20
	DD	01H
	DD	imagerel PMCCS_Compare_I_X$catch$0+35
	DD	00H
xdata	ENDS
;	COMDAT xdata
xdata	SEGMENT
$handlerMap$0$PMCCS_Compare_I_X DD 09H
	DD	imagerel ??_R0?AVException@Internal@Core@Math@Palmtree@@@8
	DD	028H
	DD	imagerel PMCCS_Compare_I_X$catch$0
	DD	048H
xdata	ENDS
;	COMDAT xdata
xdata	SEGMENT
$tryMap$PMCCS_Compare_I_X DD 00H
	DD	00H
	DD	01H
	DD	01H
	DD	imagerel $handlerMap$0$PMCCS_Compare_I_X
xdata	ENDS
;	COMDAT xdata
xdata	SEGMENT
$stateUnwindMap$PMCCS_Compare_I_X DD 0ffffffffH
	DD	00H
	DD	0ffffffffH
	DD	00H
xdata	ENDS
;	COMDAT xdata
xdata	SEGMENT
$unwind$PMCCS_Compare_I_X DD 025053d19H
	DD	0117231cH
	DD	070100029H
	DD	0500fH
	DD	imagerel __CxxFrameHandler3
	DD	imagerel $cppxdata$PMCCS_Compare_I_X
xdata	ENDS
;	COMDAT CONST
CONST	SEGMENT
PMCCS_Compare_I_X$rtcName$0 DB 065H
	DB	078H
	DB	00H
	ORG $+13
PMCCS_Compare_I_X$rtcVarDesc DD 028H
	DD	08H
	DQ	FLAT:PMCCS_Compare_I_X$rtcName$0
	ORG $+48
PMCCS_Compare_I_X$rtcFrameData DD 01H
	DD	00H
	DQ	FLAT:PMCCS_Compare_I_X$rtcVarDesc
$cppxdata$PMCCS_Compare_I_X DD 019930522H
	DD	02H
	DD	imagerel $stateUnwindMap$PMCCS_Compare_I_X
	DD	01H
	DD	imagerel $tryMap$PMCCS_Compare_I_X
	DD	06H
	DD	imagerel $ip2state$PMCCS_Compare_I_X
	DD	0128H
	DD	00H
	DD	00H
CONST	ENDS
;	COMDAT xdata
xdata	SEGMENT
$unwind$PMCCS_ExclusiveOr_X_X$catch$0 DD 031019H
	DD	0700c4210H
	DD	0500bH
	DD	imagerel __CxxFrameHandler3
	DD	imagerel $cppxdata$PMCCS_ExclusiveOr_X_X
xdata	ENDS
;	COMDAT xdata
xdata	SEGMENT
$ip2state$PMCCS_ExclusiveOr_X_X DD imagerel PMCCS_ExclusiveOr_X_X
	DD	0ffffffffH
	DD	imagerel PMCCS_ExclusiveOr_X_X+92
	DD	00H
	DD	imagerel PMCCS_ExclusiveOr_X_X+127
	DD	0ffffffffH
	DD	imagerel PMCCS_ExclusiveOr_X_X+133
	DD	00H
	DD	imagerel PMCCS_ExclusiveOr_X_X$catch$0+20
	DD	01H
	DD	imagerel PMCCS_ExclusiveOr_X_X$catch$0+35
	DD	00H
xdata	ENDS
;	COMDAT xdata
xdata	SEGMENT
$handlerMap$0$PMCCS_ExclusiveOr_X_X DD 09H
	DD	imagerel ??_R0?AVException@Internal@Core@Math@Palmtree@@@8
	DD	028H
	DD	imagerel PMCCS_ExclusiveOr_X_X$catch$0
	DD	048H
xdata	ENDS
;	COMDAT xdata
xdata	SEGMENT
$tryMap$PMCCS_ExclusiveOr_X_X DD 00H
	DD	00H
	DD	01H
	DD	01H
	DD	imagerel $handlerMap$0$PMCCS_ExclusiveOr_X_X
xdata	ENDS
;	COMDAT xdata
xdata	SEGMENT
$stateUnwindMap$PMCCS_ExclusiveOr_X_X DD 0ffffffffH
	DD	00H
	DD	0ffffffffH
	DD	00H
xdata	ENDS
;	COMDAT xdata
xdata	SEGMENT
$unwind$PMCCS_ExclusiveOr_X_X DD 025053f19H
	DD	0118231dH
	DD	070110029H
	DD	05010H
	DD	imagerel __CxxFrameHandler3
	DD	imagerel $cppxdata$PMCCS_ExclusiveOr_X_X
xdata	ENDS
;	COMDAT CONST
CONST	SEGMENT
PMCCS_ExclusiveOr_X_X$rtcName$0 DB 065H
	DB	078H
	DB	00H
	ORG $+13
PMCCS_ExclusiveOr_X_X$rtcVarDesc DD 028H
	DD	08H
	DQ	FLAT:PMCCS_ExclusiveOr_X_X$rtcName$0
	ORG $+48
PMCCS_ExclusiveOr_X_X$rtcFrameData DD 01H
	DD	00H
	DQ	FLAT:PMCCS_ExclusiveOr_X_X$rtcVarDesc
$cppxdata$PMCCS_ExclusiveOr_X_X DD 019930522H
	DD	02H
	DD	imagerel $stateUnwindMap$PMCCS_ExclusiveOr_X_X
	DD	01H
	DD	imagerel $tryMap$PMCCS_ExclusiveOr_X_X
	DD	06H
	DD	imagerel $ip2state$PMCCS_ExclusiveOr_X_X
	DD	0128H
	DD	00H
	DD	00H
CONST	ENDS
;	COMDAT xdata
xdata	SEGMENT
$unwind$PMCCS_ExclusiveOr_X_L$catch$0 DD 031019H
	DD	0700c4210H
	DD	0500bH
	DD	imagerel __CxxFrameHandler3
	DD	imagerel $cppxdata$PMCCS_ExclusiveOr_X_L
xdata	ENDS
;	COMDAT xdata
xdata	SEGMENT
$ip2state$PMCCS_ExclusiveOr_X_L DD imagerel PMCCS_ExclusiveOr_X_L
	DD	0ffffffffH
	DD	imagerel PMCCS_ExclusiveOr_X_L+92
	DD	00H
	DD	imagerel PMCCS_ExclusiveOr_X_L+127
	DD	0ffffffffH
	DD	imagerel PMCCS_ExclusiveOr_X_L+133
	DD	00H
	DD	imagerel PMCCS_ExclusiveOr_X_L$catch$0+20
	DD	01H
	DD	imagerel PMCCS_ExclusiveOr_X_L$catch$0+35
	DD	00H
xdata	ENDS
;	COMDAT xdata
xdata	SEGMENT
$handlerMap$0$PMCCS_ExclusiveOr_X_L DD 09H
	DD	imagerel ??_R0?AVException@Internal@Core@Math@Palmtree@@@8
	DD	028H
	DD	imagerel PMCCS_ExclusiveOr_X_L$catch$0
	DD	048H
xdata	ENDS
;	COMDAT xdata
xdata	SEGMENT
$tryMap$PMCCS_ExclusiveOr_X_L DD 00H
	DD	00H
	DD	01H
	DD	01H
	DD	imagerel $handlerMap$0$PMCCS_ExclusiveOr_X_L
xdata	ENDS
;	COMDAT xdata
xdata	SEGMENT
$stateUnwindMap$PMCCS_ExclusiveOr_X_L DD 0ffffffffH
	DD	00H
	DD	0ffffffffH
	DD	00H
xdata	ENDS
;	COMDAT xdata
xdata	SEGMENT
$unwind$PMCCS_ExclusiveOr_X_L DD 025053f19H
	DD	0118231dH
	DD	070110029H
	DD	05010H
	DD	imagerel __CxxFrameHandler3
	DD	imagerel $cppxdata$PMCCS_ExclusiveOr_X_L
xdata	ENDS
;	COMDAT CONST
CONST	SEGMENT
PMCCS_ExclusiveOr_X_L$rtcName$0 DB 065H
	DB	078H
	DB	00H
	ORG $+13
PMCCS_ExclusiveOr_X_L$rtcVarDesc DD 028H
	DD	08H
	DQ	FLAT:PMCCS_ExclusiveOr_X_L$rtcName$0
	ORG $+48
PMCCS_ExclusiveOr_X_L$rtcFrameData DD 01H
	DD	00H
	DQ	FLAT:PMCCS_ExclusiveOr_X_L$rtcVarDesc
$cppxdata$PMCCS_ExclusiveOr_X_L DD 019930522H
	DD	02H
	DD	imagerel $stateUnwindMap$PMCCS_ExclusiveOr_X_L
	DD	01H
	DD	imagerel $tryMap$PMCCS_ExclusiveOr_X_L
	DD	06H
	DD	imagerel $ip2state$PMCCS_ExclusiveOr_X_L
	DD	0128H
	DD	00H
	DD	00H
CONST	ENDS
;	COMDAT xdata
xdata	SEGMENT
$unwind$PMCCS_ExclusiveOr_X_I$catch$0 DD 031019H
	DD	0700c4210H
	DD	0500bH
	DD	imagerel __CxxFrameHandler3
	DD	imagerel $cppxdata$PMCCS_ExclusiveOr_X_I
xdata	ENDS
;	COMDAT xdata
xdata	SEGMENT
$ip2state$PMCCS_ExclusiveOr_X_I DD imagerel PMCCS_ExclusiveOr_X_I
	DD	0ffffffffH
	DD	imagerel PMCCS_ExclusiveOr_X_I+91
	DD	00H
	DD	imagerel PMCCS_ExclusiveOr_X_I+125
	DD	0ffffffffH
	DD	imagerel PMCCS_ExclusiveOr_X_I+131
	DD	00H
	DD	imagerel PMCCS_ExclusiveOr_X_I$catch$0+20
	DD	01H
	DD	imagerel PMCCS_ExclusiveOr_X_I$catch$0+35
	DD	00H
xdata	ENDS
;	COMDAT xdata
xdata	SEGMENT
$handlerMap$0$PMCCS_ExclusiveOr_X_I DD 09H
	DD	imagerel ??_R0?AVException@Internal@Core@Math@Palmtree@@@8
	DD	028H
	DD	imagerel PMCCS_ExclusiveOr_X_I$catch$0
	DD	048H
xdata	ENDS
;	COMDAT xdata
xdata	SEGMENT
$tryMap$PMCCS_ExclusiveOr_X_I DD 00H
	DD	00H
	DD	01H
	DD	01H
	DD	imagerel $handlerMap$0$PMCCS_ExclusiveOr_X_I
xdata	ENDS
;	COMDAT xdata
xdata	SEGMENT
$stateUnwindMap$PMCCS_ExclusiveOr_X_I DD 0ffffffffH
	DD	00H
	DD	0ffffffffH
	DD	00H
xdata	ENDS
;	COMDAT xdata
xdata	SEGMENT
$unwind$PMCCS_ExclusiveOr_X_I DD 025053e19H
	DD	0117231cH
	DD	070100029H
	DD	0500fH
	DD	imagerel __CxxFrameHandler3
	DD	imagerel $cppxdata$PMCCS_ExclusiveOr_X_I
xdata	ENDS
;	COMDAT CONST
CONST	SEGMENT
PMCCS_ExclusiveOr_X_I$rtcName$0 DB 065H
	DB	078H
	DB	00H
	ORG $+13
PMCCS_ExclusiveOr_X_I$rtcVarDesc DD 028H
	DD	08H
	DQ	FLAT:PMCCS_ExclusiveOr_X_I$rtcName$0
	ORG $+48
PMCCS_ExclusiveOr_X_I$rtcFrameData DD 01H
	DD	00H
	DQ	FLAT:PMCCS_ExclusiveOr_X_I$rtcVarDesc
$cppxdata$PMCCS_ExclusiveOr_X_I DD 019930522H
	DD	02H
	DD	imagerel $stateUnwindMap$PMCCS_ExclusiveOr_X_I
	DD	01H
	DD	imagerel $tryMap$PMCCS_ExclusiveOr_X_I
	DD	06H
	DD	imagerel $ip2state$PMCCS_ExclusiveOr_X_I
	DD	0128H
	DD	00H
	DD	00H
CONST	ENDS
;	COMDAT xdata
xdata	SEGMENT
$unwind$PMCCS_ExclusiveOr_L_X$catch$0 DD 031019H
	DD	0700c4210H
	DD	0500bH
	DD	imagerel __CxxFrameHandler3
	DD	imagerel $cppxdata$PMCCS_ExclusiveOr_L_X
xdata	ENDS
;	COMDAT xdata
xdata	SEGMENT
$ip2state$PMCCS_ExclusiveOr_L_X DD imagerel PMCCS_ExclusiveOr_L_X
	DD	0ffffffffH
	DD	imagerel PMCCS_ExclusiveOr_L_X+92
	DD	00H
	DD	imagerel PMCCS_ExclusiveOr_L_X+127
	DD	0ffffffffH
	DD	imagerel PMCCS_ExclusiveOr_L_X+133
	DD	00H
	DD	imagerel PMCCS_ExclusiveOr_L_X$catch$0+20
	DD	01H
	DD	imagerel PMCCS_ExclusiveOr_L_X$catch$0+35
	DD	00H
xdata	ENDS
;	COMDAT xdata
xdata	SEGMENT
$handlerMap$0$PMCCS_ExclusiveOr_L_X DD 09H
	DD	imagerel ??_R0?AVException@Internal@Core@Math@Palmtree@@@8
	DD	028H
	DD	imagerel PMCCS_ExclusiveOr_L_X$catch$0
	DD	048H
xdata	ENDS
;	COMDAT xdata
xdata	SEGMENT
$tryMap$PMCCS_ExclusiveOr_L_X DD 00H
	DD	00H
	DD	01H
	DD	01H
	DD	imagerel $handlerMap$0$PMCCS_ExclusiveOr_L_X
xdata	ENDS
;	COMDAT xdata
xdata	SEGMENT
$stateUnwindMap$PMCCS_ExclusiveOr_L_X DD 0ffffffffH
	DD	00H
	DD	0ffffffffH
	DD	00H
xdata	ENDS
;	COMDAT xdata
xdata	SEGMENT
$unwind$PMCCS_ExclusiveOr_L_X DD 025053f19H
	DD	0118231dH
	DD	070110029H
	DD	05010H
	DD	imagerel __CxxFrameHandler3
	DD	imagerel $cppxdata$PMCCS_ExclusiveOr_L_X
xdata	ENDS
;	COMDAT CONST
CONST	SEGMENT
PMCCS_ExclusiveOr_L_X$rtcName$0 DB 065H
	DB	078H
	DB	00H
	ORG $+13
PMCCS_ExclusiveOr_L_X$rtcVarDesc DD 028H
	DD	08H
	DQ	FLAT:PMCCS_ExclusiveOr_L_X$rtcName$0
	ORG $+48
PMCCS_ExclusiveOr_L_X$rtcFrameData DD 01H
	DD	00H
	DQ	FLAT:PMCCS_ExclusiveOr_L_X$rtcVarDesc
$cppxdata$PMCCS_ExclusiveOr_L_X DD 019930522H
	DD	02H
	DD	imagerel $stateUnwindMap$PMCCS_ExclusiveOr_L_X
	DD	01H
	DD	imagerel $tryMap$PMCCS_ExclusiveOr_L_X
	DD	06H
	DD	imagerel $ip2state$PMCCS_ExclusiveOr_L_X
	DD	0128H
	DD	00H
	DD	00H
CONST	ENDS
;	COMDAT xdata
xdata	SEGMENT
$unwind$PMCCS_ExclusiveOr_I_X$catch$0 DD 031019H
	DD	0700c4210H
	DD	0500bH
	DD	imagerel __CxxFrameHandler3
	DD	imagerel $cppxdata$PMCCS_ExclusiveOr_I_X
xdata	ENDS
;	COMDAT xdata
xdata	SEGMENT
$ip2state$PMCCS_ExclusiveOr_I_X DD imagerel PMCCS_ExclusiveOr_I_X
	DD	0ffffffffH
	DD	imagerel PMCCS_ExclusiveOr_I_X+90
	DD	00H
	DD	imagerel PMCCS_ExclusiveOr_I_X+124
	DD	0ffffffffH
	DD	imagerel PMCCS_ExclusiveOr_I_X+130
	DD	00H
	DD	imagerel PMCCS_ExclusiveOr_I_X$catch$0+20
	DD	01H
	DD	imagerel PMCCS_ExclusiveOr_I_X$catch$0+35
	DD	00H
xdata	ENDS
;	COMDAT xdata
xdata	SEGMENT
$handlerMap$0$PMCCS_ExclusiveOr_I_X DD 09H
	DD	imagerel ??_R0?AVException@Internal@Core@Math@Palmtree@@@8
	DD	028H
	DD	imagerel PMCCS_ExclusiveOr_I_X$catch$0
	DD	048H
xdata	ENDS
;	COMDAT xdata
xdata	SEGMENT
$tryMap$PMCCS_ExclusiveOr_I_X DD 00H
	DD	00H
	DD	01H
	DD	01H
	DD	imagerel $handlerMap$0$PMCCS_ExclusiveOr_I_X
xdata	ENDS
;	COMDAT xdata
xdata	SEGMENT
$stateUnwindMap$PMCCS_ExclusiveOr_I_X DD 0ffffffffH
	DD	00H
	DD	0ffffffffH
	DD	00H
xdata	ENDS
;	COMDAT xdata
xdata	SEGMENT
$unwind$PMCCS_ExclusiveOr_I_X DD 025053d19H
	DD	0117231cH
	DD	070100029H
	DD	0500fH
	DD	imagerel __CxxFrameHandler3
	DD	imagerel $cppxdata$PMCCS_ExclusiveOr_I_X
xdata	ENDS
;	COMDAT CONST
CONST	SEGMENT
PMCCS_ExclusiveOr_I_X$rtcName$0 DB 065H
	DB	078H
	DB	00H
	ORG $+13
PMCCS_ExclusiveOr_I_X$rtcVarDesc DD 028H
	DD	08H
	DQ	FLAT:PMCCS_ExclusiveOr_I_X$rtcName$0
	ORG $+48
PMCCS_ExclusiveOr_I_X$rtcFrameData DD 01H
	DD	00H
	DQ	FLAT:PMCCS_ExclusiveOr_I_X$rtcVarDesc
$cppxdata$PMCCS_ExclusiveOr_I_X DD 019930522H
	DD	02H
	DD	imagerel $stateUnwindMap$PMCCS_ExclusiveOr_I_X
	DD	01H
	DD	imagerel $tryMap$PMCCS_ExclusiveOr_I_X
	DD	06H
	DD	imagerel $ip2state$PMCCS_ExclusiveOr_I_X
	DD	0128H
	DD	00H
	DD	00H
CONST	ENDS
;	COMDAT xdata
xdata	SEGMENT
$unwind$PMCCS_BitwiseOr_X_X$catch$0 DD 031019H
	DD	0700c4210H
	DD	0500bH
	DD	imagerel __CxxFrameHandler3
	DD	imagerel $cppxdata$PMCCS_BitwiseOr_X_X
xdata	ENDS
;	COMDAT xdata
xdata	SEGMENT
$ip2state$PMCCS_BitwiseOr_X_X DD imagerel PMCCS_BitwiseOr_X_X
	DD	0ffffffffH
	DD	imagerel PMCCS_BitwiseOr_X_X+92
	DD	00H
	DD	imagerel PMCCS_BitwiseOr_X_X+127
	DD	0ffffffffH
	DD	imagerel PMCCS_BitwiseOr_X_X+133
	DD	00H
	DD	imagerel PMCCS_BitwiseOr_X_X$catch$0+20
	DD	01H
	DD	imagerel PMCCS_BitwiseOr_X_X$catch$0+35
	DD	00H
xdata	ENDS
;	COMDAT xdata
xdata	SEGMENT
$handlerMap$0$PMCCS_BitwiseOr_X_X DD 09H
	DD	imagerel ??_R0?AVException@Internal@Core@Math@Palmtree@@@8
	DD	028H
	DD	imagerel PMCCS_BitwiseOr_X_X$catch$0
	DD	048H
xdata	ENDS
;	COMDAT xdata
xdata	SEGMENT
$tryMap$PMCCS_BitwiseOr_X_X DD 00H
	DD	00H
	DD	01H
	DD	01H
	DD	imagerel $handlerMap$0$PMCCS_BitwiseOr_X_X
xdata	ENDS
;	COMDAT xdata
xdata	SEGMENT
$stateUnwindMap$PMCCS_BitwiseOr_X_X DD 0ffffffffH
	DD	00H
	DD	0ffffffffH
	DD	00H
xdata	ENDS
;	COMDAT xdata
xdata	SEGMENT
$unwind$PMCCS_BitwiseOr_X_X DD 025053f19H
	DD	0118231dH
	DD	070110029H
	DD	05010H
	DD	imagerel __CxxFrameHandler3
	DD	imagerel $cppxdata$PMCCS_BitwiseOr_X_X
xdata	ENDS
;	COMDAT CONST
CONST	SEGMENT
PMCCS_BitwiseOr_X_X$rtcName$0 DB 065H
	DB	078H
	DB	00H
	ORG $+13
PMCCS_BitwiseOr_X_X$rtcVarDesc DD 028H
	DD	08H
	DQ	FLAT:PMCCS_BitwiseOr_X_X$rtcName$0
	ORG $+48
PMCCS_BitwiseOr_X_X$rtcFrameData DD 01H
	DD	00H
	DQ	FLAT:PMCCS_BitwiseOr_X_X$rtcVarDesc
$cppxdata$PMCCS_BitwiseOr_X_X DD 019930522H
	DD	02H
	DD	imagerel $stateUnwindMap$PMCCS_BitwiseOr_X_X
	DD	01H
	DD	imagerel $tryMap$PMCCS_BitwiseOr_X_X
	DD	06H
	DD	imagerel $ip2state$PMCCS_BitwiseOr_X_X
	DD	0128H
	DD	00H
	DD	00H
CONST	ENDS
;	COMDAT xdata
xdata	SEGMENT
$unwind$PMCCS_BitwiseOr_X_L$catch$0 DD 031019H
	DD	0700c4210H
	DD	0500bH
	DD	imagerel __CxxFrameHandler3
	DD	imagerel $cppxdata$PMCCS_BitwiseOr_X_L
xdata	ENDS
;	COMDAT xdata
xdata	SEGMENT
$ip2state$PMCCS_BitwiseOr_X_L DD imagerel PMCCS_BitwiseOr_X_L
	DD	0ffffffffH
	DD	imagerel PMCCS_BitwiseOr_X_L+92
	DD	00H
	DD	imagerel PMCCS_BitwiseOr_X_L+127
	DD	0ffffffffH
	DD	imagerel PMCCS_BitwiseOr_X_L+133
	DD	00H
	DD	imagerel PMCCS_BitwiseOr_X_L$catch$0+20
	DD	01H
	DD	imagerel PMCCS_BitwiseOr_X_L$catch$0+35
	DD	00H
xdata	ENDS
;	COMDAT xdata
xdata	SEGMENT
$handlerMap$0$PMCCS_BitwiseOr_X_L DD 09H
	DD	imagerel ??_R0?AVException@Internal@Core@Math@Palmtree@@@8
	DD	028H
	DD	imagerel PMCCS_BitwiseOr_X_L$catch$0
	DD	048H
xdata	ENDS
;	COMDAT xdata
xdata	SEGMENT
$tryMap$PMCCS_BitwiseOr_X_L DD 00H
	DD	00H
	DD	01H
	DD	01H
	DD	imagerel $handlerMap$0$PMCCS_BitwiseOr_X_L
xdata	ENDS
;	COMDAT xdata
xdata	SEGMENT
$stateUnwindMap$PMCCS_BitwiseOr_X_L DD 0ffffffffH
	DD	00H
	DD	0ffffffffH
	DD	00H
xdata	ENDS
;	COMDAT xdata
xdata	SEGMENT
$unwind$PMCCS_BitwiseOr_X_L DD 025053f19H
	DD	0118231dH
	DD	070110029H
	DD	05010H
	DD	imagerel __CxxFrameHandler3
	DD	imagerel $cppxdata$PMCCS_BitwiseOr_X_L
xdata	ENDS
;	COMDAT CONST
CONST	SEGMENT
PMCCS_BitwiseOr_X_L$rtcName$0 DB 065H
	DB	078H
	DB	00H
	ORG $+13
PMCCS_BitwiseOr_X_L$rtcVarDesc DD 028H
	DD	08H
	DQ	FLAT:PMCCS_BitwiseOr_X_L$rtcName$0
	ORG $+48
PMCCS_BitwiseOr_X_L$rtcFrameData DD 01H
	DD	00H
	DQ	FLAT:PMCCS_BitwiseOr_X_L$rtcVarDesc
$cppxdata$PMCCS_BitwiseOr_X_L DD 019930522H
	DD	02H
	DD	imagerel $stateUnwindMap$PMCCS_BitwiseOr_X_L
	DD	01H
	DD	imagerel $tryMap$PMCCS_BitwiseOr_X_L
	DD	06H
	DD	imagerel $ip2state$PMCCS_BitwiseOr_X_L
	DD	0128H
	DD	00H
	DD	00H
CONST	ENDS
;	COMDAT xdata
xdata	SEGMENT
$unwind$PMCCS_BitwiseOr_X_I$catch$0 DD 031019H
	DD	0700c4210H
	DD	0500bH
	DD	imagerel __CxxFrameHandler3
	DD	imagerel $cppxdata$PMCCS_BitwiseOr_X_I
xdata	ENDS
;	COMDAT xdata
xdata	SEGMENT
$ip2state$PMCCS_BitwiseOr_X_I DD imagerel PMCCS_BitwiseOr_X_I
	DD	0ffffffffH
	DD	imagerel PMCCS_BitwiseOr_X_I+91
	DD	00H
	DD	imagerel PMCCS_BitwiseOr_X_I+125
	DD	0ffffffffH
	DD	imagerel PMCCS_BitwiseOr_X_I+131
	DD	00H
	DD	imagerel PMCCS_BitwiseOr_X_I$catch$0+20
	DD	01H
	DD	imagerel PMCCS_BitwiseOr_X_I$catch$0+35
	DD	00H
xdata	ENDS
;	COMDAT xdata
xdata	SEGMENT
$handlerMap$0$PMCCS_BitwiseOr_X_I DD 09H
	DD	imagerel ??_R0?AVException@Internal@Core@Math@Palmtree@@@8
	DD	028H
	DD	imagerel PMCCS_BitwiseOr_X_I$catch$0
	DD	048H
xdata	ENDS
;	COMDAT xdata
xdata	SEGMENT
$tryMap$PMCCS_BitwiseOr_X_I DD 00H
	DD	00H
	DD	01H
	DD	01H
	DD	imagerel $handlerMap$0$PMCCS_BitwiseOr_X_I
xdata	ENDS
;	COMDAT xdata
xdata	SEGMENT
$stateUnwindMap$PMCCS_BitwiseOr_X_I DD 0ffffffffH
	DD	00H
	DD	0ffffffffH
	DD	00H
xdata	ENDS
;	COMDAT xdata
xdata	SEGMENT
$unwind$PMCCS_BitwiseOr_X_I DD 025053e19H
	DD	0117231cH
	DD	070100029H
	DD	0500fH
	DD	imagerel __CxxFrameHandler3
	DD	imagerel $cppxdata$PMCCS_BitwiseOr_X_I
xdata	ENDS
;	COMDAT CONST
CONST	SEGMENT
PMCCS_BitwiseOr_X_I$rtcName$0 DB 065H
	DB	078H
	DB	00H
	ORG $+13
PMCCS_BitwiseOr_X_I$rtcVarDesc DD 028H
	DD	08H
	DQ	FLAT:PMCCS_BitwiseOr_X_I$rtcName$0
	ORG $+48
PMCCS_BitwiseOr_X_I$rtcFrameData DD 01H
	DD	00H
	DQ	FLAT:PMCCS_BitwiseOr_X_I$rtcVarDesc
$cppxdata$PMCCS_BitwiseOr_X_I DD 019930522H
	DD	02H
	DD	imagerel $stateUnwindMap$PMCCS_BitwiseOr_X_I
	DD	01H
	DD	imagerel $tryMap$PMCCS_BitwiseOr_X_I
	DD	06H
	DD	imagerel $ip2state$PMCCS_BitwiseOr_X_I
	DD	0128H
	DD	00H
	DD	00H
CONST	ENDS
;	COMDAT xdata
xdata	SEGMENT
$unwind$PMCCS_BitwiseOr_L_X$catch$0 DD 031019H
	DD	0700c4210H
	DD	0500bH
	DD	imagerel __CxxFrameHandler3
	DD	imagerel $cppxdata$PMCCS_BitwiseOr_L_X
xdata	ENDS
;	COMDAT xdata
xdata	SEGMENT
$ip2state$PMCCS_BitwiseOr_L_X DD imagerel PMCCS_BitwiseOr_L_X
	DD	0ffffffffH
	DD	imagerel PMCCS_BitwiseOr_L_X+92
	DD	00H
	DD	imagerel PMCCS_BitwiseOr_L_X+127
	DD	0ffffffffH
	DD	imagerel PMCCS_BitwiseOr_L_X+133
	DD	00H
	DD	imagerel PMCCS_BitwiseOr_L_X$catch$0+20
	DD	01H
	DD	imagerel PMCCS_BitwiseOr_L_X$catch$0+35
	DD	00H
xdata	ENDS
;	COMDAT xdata
xdata	SEGMENT
$handlerMap$0$PMCCS_BitwiseOr_L_X DD 09H
	DD	imagerel ??_R0?AVException@Internal@Core@Math@Palmtree@@@8
	DD	028H
	DD	imagerel PMCCS_BitwiseOr_L_X$catch$0
	DD	048H
xdata	ENDS
;	COMDAT xdata
xdata	SEGMENT
$tryMap$PMCCS_BitwiseOr_L_X DD 00H
	DD	00H
	DD	01H
	DD	01H
	DD	imagerel $handlerMap$0$PMCCS_BitwiseOr_L_X
xdata	ENDS
;	COMDAT xdata
xdata	SEGMENT
$stateUnwindMap$PMCCS_BitwiseOr_L_X DD 0ffffffffH
	DD	00H
	DD	0ffffffffH
	DD	00H
xdata	ENDS
;	COMDAT xdata
xdata	SEGMENT
$unwind$PMCCS_BitwiseOr_L_X DD 025053f19H
	DD	0118231dH
	DD	070110029H
	DD	05010H
	DD	imagerel __CxxFrameHandler3
	DD	imagerel $cppxdata$PMCCS_BitwiseOr_L_X
xdata	ENDS
;	COMDAT CONST
CONST	SEGMENT
PMCCS_BitwiseOr_L_X$rtcName$0 DB 065H
	DB	078H
	DB	00H
	ORG $+13
PMCCS_BitwiseOr_L_X$rtcVarDesc DD 028H
	DD	08H
	DQ	FLAT:PMCCS_BitwiseOr_L_X$rtcName$0
	ORG $+48
PMCCS_BitwiseOr_L_X$rtcFrameData DD 01H
	DD	00H
	DQ	FLAT:PMCCS_BitwiseOr_L_X$rtcVarDesc
$cppxdata$PMCCS_BitwiseOr_L_X DD 019930522H
	DD	02H
	DD	imagerel $stateUnwindMap$PMCCS_BitwiseOr_L_X
	DD	01H
	DD	imagerel $tryMap$PMCCS_BitwiseOr_L_X
	DD	06H
	DD	imagerel $ip2state$PMCCS_BitwiseOr_L_X
	DD	0128H
	DD	00H
	DD	00H
CONST	ENDS
;	COMDAT xdata
xdata	SEGMENT
$unwind$PMCCS_BitwiseOr_I_X$catch$0 DD 031019H
	DD	0700c4210H
	DD	0500bH
	DD	imagerel __CxxFrameHandler3
	DD	imagerel $cppxdata$PMCCS_BitwiseOr_I_X
xdata	ENDS
;	COMDAT xdata
xdata	SEGMENT
$ip2state$PMCCS_BitwiseOr_I_X DD imagerel PMCCS_BitwiseOr_I_X
	DD	0ffffffffH
	DD	imagerel PMCCS_BitwiseOr_I_X+90
	DD	00H
	DD	imagerel PMCCS_BitwiseOr_I_X+124
	DD	0ffffffffH
	DD	imagerel PMCCS_BitwiseOr_I_X+130
	DD	00H
	DD	imagerel PMCCS_BitwiseOr_I_X$catch$0+20
	DD	01H
	DD	imagerel PMCCS_BitwiseOr_I_X$catch$0+35
	DD	00H
xdata	ENDS
;	COMDAT xdata
xdata	SEGMENT
$handlerMap$0$PMCCS_BitwiseOr_I_X DD 09H
	DD	imagerel ??_R0?AVException@Internal@Core@Math@Palmtree@@@8
	DD	028H
	DD	imagerel PMCCS_BitwiseOr_I_X$catch$0
	DD	048H
xdata	ENDS
;	COMDAT xdata
xdata	SEGMENT
$tryMap$PMCCS_BitwiseOr_I_X DD 00H
	DD	00H
	DD	01H
	DD	01H
	DD	imagerel $handlerMap$0$PMCCS_BitwiseOr_I_X
xdata	ENDS
;	COMDAT xdata
xdata	SEGMENT
$stateUnwindMap$PMCCS_BitwiseOr_I_X DD 0ffffffffH
	DD	00H
	DD	0ffffffffH
	DD	00H
xdata	ENDS
;	COMDAT xdata
xdata	SEGMENT
$unwind$PMCCS_BitwiseOr_I_X DD 025053d19H
	DD	0117231cH
	DD	070100029H
	DD	0500fH
	DD	imagerel __CxxFrameHandler3
	DD	imagerel $cppxdata$PMCCS_BitwiseOr_I_X
xdata	ENDS
;	COMDAT CONST
CONST	SEGMENT
PMCCS_BitwiseOr_I_X$rtcName$0 DB 065H
	DB	078H
	DB	00H
	ORG $+13
PMCCS_BitwiseOr_I_X$rtcVarDesc DD 028H
	DD	08H
	DQ	FLAT:PMCCS_BitwiseOr_I_X$rtcName$0
	ORG $+48
PMCCS_BitwiseOr_I_X$rtcFrameData DD 01H
	DD	00H
	DQ	FLAT:PMCCS_BitwiseOr_I_X$rtcVarDesc
$cppxdata$PMCCS_BitwiseOr_I_X DD 019930522H
	DD	02H
	DD	imagerel $stateUnwindMap$PMCCS_BitwiseOr_I_X
	DD	01H
	DD	imagerel $tryMap$PMCCS_BitwiseOr_I_X
	DD	06H
	DD	imagerel $ip2state$PMCCS_BitwiseOr_I_X
	DD	0128H
	DD	00H
	DD	00H
CONST	ENDS
;	COMDAT xdata
xdata	SEGMENT
$unwind$PMCCS_BitwiseAnd_X_X$catch$0 DD 031019H
	DD	0700c4210H
	DD	0500bH
	DD	imagerel __CxxFrameHandler3
	DD	imagerel $cppxdata$PMCCS_BitwiseAnd_X_X
xdata	ENDS
;	COMDAT xdata
xdata	SEGMENT
$ip2state$PMCCS_BitwiseAnd_X_X DD imagerel PMCCS_BitwiseAnd_X_X
	DD	0ffffffffH
	DD	imagerel PMCCS_BitwiseAnd_X_X+92
	DD	00H
	DD	imagerel PMCCS_BitwiseAnd_X_X+127
	DD	0ffffffffH
	DD	imagerel PMCCS_BitwiseAnd_X_X+133
	DD	00H
	DD	imagerel PMCCS_BitwiseAnd_X_X$catch$0+20
	DD	01H
	DD	imagerel PMCCS_BitwiseAnd_X_X$catch$0+35
	DD	00H
xdata	ENDS
;	COMDAT xdata
xdata	SEGMENT
$handlerMap$0$PMCCS_BitwiseAnd_X_X DD 09H
	DD	imagerel ??_R0?AVException@Internal@Core@Math@Palmtree@@@8
	DD	028H
	DD	imagerel PMCCS_BitwiseAnd_X_X$catch$0
	DD	048H
xdata	ENDS
;	COMDAT xdata
xdata	SEGMENT
$tryMap$PMCCS_BitwiseAnd_X_X DD 00H
	DD	00H
	DD	01H
	DD	01H
	DD	imagerel $handlerMap$0$PMCCS_BitwiseAnd_X_X
xdata	ENDS
;	COMDAT xdata
xdata	SEGMENT
$stateUnwindMap$PMCCS_BitwiseAnd_X_X DD 0ffffffffH
	DD	00H
	DD	0ffffffffH
	DD	00H
xdata	ENDS
;	COMDAT xdata
xdata	SEGMENT
$unwind$PMCCS_BitwiseAnd_X_X DD 025053f19H
	DD	0118231dH
	DD	070110029H
	DD	05010H
	DD	imagerel __CxxFrameHandler3
	DD	imagerel $cppxdata$PMCCS_BitwiseAnd_X_X
xdata	ENDS
;	COMDAT CONST
CONST	SEGMENT
PMCCS_BitwiseAnd_X_X$rtcName$0 DB 065H
	DB	078H
	DB	00H
	ORG $+13
PMCCS_BitwiseAnd_X_X$rtcVarDesc DD 028H
	DD	08H
	DQ	FLAT:PMCCS_BitwiseAnd_X_X$rtcName$0
	ORG $+48
PMCCS_BitwiseAnd_X_X$rtcFrameData DD 01H
	DD	00H
	DQ	FLAT:PMCCS_BitwiseAnd_X_X$rtcVarDesc
$cppxdata$PMCCS_BitwiseAnd_X_X DD 019930522H
	DD	02H
	DD	imagerel $stateUnwindMap$PMCCS_BitwiseAnd_X_X
	DD	01H
	DD	imagerel $tryMap$PMCCS_BitwiseAnd_X_X
	DD	06H
	DD	imagerel $ip2state$PMCCS_BitwiseAnd_X_X
	DD	0128H
	DD	00H
	DD	00H
CONST	ENDS
;	COMDAT xdata
xdata	SEGMENT
$unwind$PMCCS_BitwiseAnd_X_L$catch$0 DD 031019H
	DD	0700c4210H
	DD	0500bH
	DD	imagerel __CxxFrameHandler3
	DD	imagerel $cppxdata$PMCCS_BitwiseAnd_X_L
xdata	ENDS
;	COMDAT xdata
xdata	SEGMENT
$ip2state$PMCCS_BitwiseAnd_X_L DD imagerel PMCCS_BitwiseAnd_X_L
	DD	0ffffffffH
	DD	imagerel PMCCS_BitwiseAnd_X_L+92
	DD	00H
	DD	imagerel PMCCS_BitwiseAnd_X_L+127
	DD	0ffffffffH
	DD	imagerel PMCCS_BitwiseAnd_X_L+133
	DD	00H
	DD	imagerel PMCCS_BitwiseAnd_X_L$catch$0+20
	DD	01H
	DD	imagerel PMCCS_BitwiseAnd_X_L$catch$0+35
	DD	00H
xdata	ENDS
;	COMDAT xdata
xdata	SEGMENT
$handlerMap$0$PMCCS_BitwiseAnd_X_L DD 09H
	DD	imagerel ??_R0?AVException@Internal@Core@Math@Palmtree@@@8
	DD	028H
	DD	imagerel PMCCS_BitwiseAnd_X_L$catch$0
	DD	048H
xdata	ENDS
;	COMDAT xdata
xdata	SEGMENT
$tryMap$PMCCS_BitwiseAnd_X_L DD 00H
	DD	00H
	DD	01H
	DD	01H
	DD	imagerel $handlerMap$0$PMCCS_BitwiseAnd_X_L
xdata	ENDS
;	COMDAT xdata
xdata	SEGMENT
$stateUnwindMap$PMCCS_BitwiseAnd_X_L DD 0ffffffffH
	DD	00H
	DD	0ffffffffH
	DD	00H
xdata	ENDS
;	COMDAT xdata
xdata	SEGMENT
$unwind$PMCCS_BitwiseAnd_X_L DD 025053f19H
	DD	0118231dH
	DD	070110029H
	DD	05010H
	DD	imagerel __CxxFrameHandler3
	DD	imagerel $cppxdata$PMCCS_BitwiseAnd_X_L
xdata	ENDS
;	COMDAT CONST
CONST	SEGMENT
PMCCS_BitwiseAnd_X_L$rtcName$0 DB 065H
	DB	078H
	DB	00H
	ORG $+13
PMCCS_BitwiseAnd_X_L$rtcVarDesc DD 028H
	DD	08H
	DQ	FLAT:PMCCS_BitwiseAnd_X_L$rtcName$0
	ORG $+48
PMCCS_BitwiseAnd_X_L$rtcFrameData DD 01H
	DD	00H
	DQ	FLAT:PMCCS_BitwiseAnd_X_L$rtcVarDesc
$cppxdata$PMCCS_BitwiseAnd_X_L DD 019930522H
	DD	02H
	DD	imagerel $stateUnwindMap$PMCCS_BitwiseAnd_X_L
	DD	01H
	DD	imagerel $tryMap$PMCCS_BitwiseAnd_X_L
	DD	06H
	DD	imagerel $ip2state$PMCCS_BitwiseAnd_X_L
	DD	0128H
	DD	00H
	DD	00H
CONST	ENDS
;	COMDAT xdata
xdata	SEGMENT
$unwind$PMCCS_BitwiseAnd_X_I$catch$0 DD 031019H
	DD	0700c4210H
	DD	0500bH
	DD	imagerel __CxxFrameHandler3
	DD	imagerel $cppxdata$PMCCS_BitwiseAnd_X_I
xdata	ENDS
;	COMDAT xdata
xdata	SEGMENT
$ip2state$PMCCS_BitwiseAnd_X_I DD imagerel PMCCS_BitwiseAnd_X_I
	DD	0ffffffffH
	DD	imagerel PMCCS_BitwiseAnd_X_I+91
	DD	00H
	DD	imagerel PMCCS_BitwiseAnd_X_I+124
	DD	0ffffffffH
	DD	imagerel PMCCS_BitwiseAnd_X_I+130
	DD	00H
	DD	imagerel PMCCS_BitwiseAnd_X_I$catch$0+20
	DD	01H
	DD	imagerel PMCCS_BitwiseAnd_X_I$catch$0+35
	DD	00H
xdata	ENDS
;	COMDAT xdata
xdata	SEGMENT
$handlerMap$0$PMCCS_BitwiseAnd_X_I DD 09H
	DD	imagerel ??_R0?AVException@Internal@Core@Math@Palmtree@@@8
	DD	028H
	DD	imagerel PMCCS_BitwiseAnd_X_I$catch$0
	DD	048H
xdata	ENDS
;	COMDAT xdata
xdata	SEGMENT
$tryMap$PMCCS_BitwiseAnd_X_I DD 00H
	DD	00H
	DD	01H
	DD	01H
	DD	imagerel $handlerMap$0$PMCCS_BitwiseAnd_X_I
xdata	ENDS
;	COMDAT xdata
xdata	SEGMENT
$stateUnwindMap$PMCCS_BitwiseAnd_X_I DD 0ffffffffH
	DD	00H
	DD	0ffffffffH
	DD	00H
xdata	ENDS
;	COMDAT xdata
xdata	SEGMENT
$unwind$PMCCS_BitwiseAnd_X_I DD 025053e19H
	DD	0117231cH
	DD	070100029H
	DD	0500fH
	DD	imagerel __CxxFrameHandler3
	DD	imagerel $cppxdata$PMCCS_BitwiseAnd_X_I
xdata	ENDS
;	COMDAT CONST
CONST	SEGMENT
PMCCS_BitwiseAnd_X_I$rtcName$0 DB 065H
	DB	078H
	DB	00H
	ORG $+13
PMCCS_BitwiseAnd_X_I$rtcVarDesc DD 028H
	DD	08H
	DQ	FLAT:PMCCS_BitwiseAnd_X_I$rtcName$0
	ORG $+48
PMCCS_BitwiseAnd_X_I$rtcFrameData DD 01H
	DD	00H
	DQ	FLAT:PMCCS_BitwiseAnd_X_I$rtcVarDesc
$cppxdata$PMCCS_BitwiseAnd_X_I DD 019930522H
	DD	02H
	DD	imagerel $stateUnwindMap$PMCCS_BitwiseAnd_X_I
	DD	01H
	DD	imagerel $tryMap$PMCCS_BitwiseAnd_X_I
	DD	06H
	DD	imagerel $ip2state$PMCCS_BitwiseAnd_X_I
	DD	0128H
	DD	00H
	DD	00H
CONST	ENDS
;	COMDAT xdata
xdata	SEGMENT
$unwind$PMCCS_BitwiseAnd_L_X$catch$0 DD 031019H
	DD	0700c4210H
	DD	0500bH
	DD	imagerel __CxxFrameHandler3
	DD	imagerel $cppxdata$PMCCS_BitwiseAnd_L_X
xdata	ENDS
;	COMDAT xdata
xdata	SEGMENT
$ip2state$PMCCS_BitwiseAnd_L_X DD imagerel PMCCS_BitwiseAnd_L_X
	DD	0ffffffffH
	DD	imagerel PMCCS_BitwiseAnd_L_X+92
	DD	00H
	DD	imagerel PMCCS_BitwiseAnd_L_X+127
	DD	0ffffffffH
	DD	imagerel PMCCS_BitwiseAnd_L_X+133
	DD	00H
	DD	imagerel PMCCS_BitwiseAnd_L_X$catch$0+20
	DD	01H
	DD	imagerel PMCCS_BitwiseAnd_L_X$catch$0+35
	DD	00H
xdata	ENDS
;	COMDAT xdata
xdata	SEGMENT
$handlerMap$0$PMCCS_BitwiseAnd_L_X DD 09H
	DD	imagerel ??_R0?AVException@Internal@Core@Math@Palmtree@@@8
	DD	028H
	DD	imagerel PMCCS_BitwiseAnd_L_X$catch$0
	DD	048H
xdata	ENDS
;	COMDAT xdata
xdata	SEGMENT
$tryMap$PMCCS_BitwiseAnd_L_X DD 00H
	DD	00H
	DD	01H
	DD	01H
	DD	imagerel $handlerMap$0$PMCCS_BitwiseAnd_L_X
xdata	ENDS
;	COMDAT xdata
xdata	SEGMENT
$stateUnwindMap$PMCCS_BitwiseAnd_L_X DD 0ffffffffH
	DD	00H
	DD	0ffffffffH
	DD	00H
xdata	ENDS
;	COMDAT xdata
xdata	SEGMENT
$unwind$PMCCS_BitwiseAnd_L_X DD 025053f19H
	DD	0118231dH
	DD	070110029H
	DD	05010H
	DD	imagerel __CxxFrameHandler3
	DD	imagerel $cppxdata$PMCCS_BitwiseAnd_L_X
xdata	ENDS
;	COMDAT CONST
CONST	SEGMENT
PMCCS_BitwiseAnd_L_X$rtcName$0 DB 065H
	DB	078H
	DB	00H
	ORG $+13
PMCCS_BitwiseAnd_L_X$rtcVarDesc DD 028H
	DD	08H
	DQ	FLAT:PMCCS_BitwiseAnd_L_X$rtcName$0
	ORG $+48
PMCCS_BitwiseAnd_L_X$rtcFrameData DD 01H
	DD	00H
	DQ	FLAT:PMCCS_BitwiseAnd_L_X$rtcVarDesc
$cppxdata$PMCCS_BitwiseAnd_L_X DD 019930522H
	DD	02H
	DD	imagerel $stateUnwindMap$PMCCS_BitwiseAnd_L_X
	DD	01H
	DD	imagerel $tryMap$PMCCS_BitwiseAnd_L_X
	DD	06H
	DD	imagerel $ip2state$PMCCS_BitwiseAnd_L_X
	DD	0128H
	DD	00H
	DD	00H
CONST	ENDS
;	COMDAT xdata
xdata	SEGMENT
$unwind$PMCCS_BitwiseAnd_I_X$catch$0 DD 031019H
	DD	0700c4210H
	DD	0500bH
	DD	imagerel __CxxFrameHandler3
	DD	imagerel $cppxdata$PMCCS_BitwiseAnd_I_X
xdata	ENDS
;	COMDAT xdata
xdata	SEGMENT
$ip2state$PMCCS_BitwiseAnd_I_X DD imagerel PMCCS_BitwiseAnd_I_X
	DD	0ffffffffH
	DD	imagerel PMCCS_BitwiseAnd_I_X+90
	DD	00H
	DD	imagerel PMCCS_BitwiseAnd_I_X+123
	DD	0ffffffffH
	DD	imagerel PMCCS_BitwiseAnd_I_X+129
	DD	00H
	DD	imagerel PMCCS_BitwiseAnd_I_X$catch$0+20
	DD	01H
	DD	imagerel PMCCS_BitwiseAnd_I_X$catch$0+35
	DD	00H
xdata	ENDS
;	COMDAT xdata
xdata	SEGMENT
$handlerMap$0$PMCCS_BitwiseAnd_I_X DD 09H
	DD	imagerel ??_R0?AVException@Internal@Core@Math@Palmtree@@@8
	DD	028H
	DD	imagerel PMCCS_BitwiseAnd_I_X$catch$0
	DD	048H
xdata	ENDS
;	COMDAT xdata
xdata	SEGMENT
$tryMap$PMCCS_BitwiseAnd_I_X DD 00H
	DD	00H
	DD	01H
	DD	01H
	DD	imagerel $handlerMap$0$PMCCS_BitwiseAnd_I_X
xdata	ENDS
;	COMDAT xdata
xdata	SEGMENT
$stateUnwindMap$PMCCS_BitwiseAnd_I_X DD 0ffffffffH
	DD	00H
	DD	0ffffffffH
	DD	00H
xdata	ENDS
;	COMDAT xdata
xdata	SEGMENT
$unwind$PMCCS_BitwiseAnd_I_X DD 025053d19H
	DD	0117231cH
	DD	070100029H
	DD	0500fH
	DD	imagerel __CxxFrameHandler3
	DD	imagerel $cppxdata$PMCCS_BitwiseAnd_I_X
xdata	ENDS
;	COMDAT CONST
CONST	SEGMENT
PMCCS_BitwiseAnd_I_X$rtcName$0 DB 065H
	DB	078H
	DB	00H
	ORG $+13
PMCCS_BitwiseAnd_I_X$rtcVarDesc DD 028H
	DD	08H
	DQ	FLAT:PMCCS_BitwiseAnd_I_X$rtcName$0
	ORG $+48
PMCCS_BitwiseAnd_I_X$rtcFrameData DD 01H
	DD	00H
	DQ	FLAT:PMCCS_BitwiseAnd_I_X$rtcVarDesc
$cppxdata$PMCCS_BitwiseAnd_I_X DD 019930522H
	DD	02H
	DD	imagerel $stateUnwindMap$PMCCS_BitwiseAnd_I_X
	DD	01H
	DD	imagerel $tryMap$PMCCS_BitwiseAnd_I_X
	DD	06H
	DD	imagerel $ip2state$PMCCS_BitwiseAnd_I_X
	DD	0128H
	DD	00H
	DD	00H
CONST	ENDS
;	COMDAT xdata
xdata	SEGMENT
$unwind$PMCCS_LeftShift_X_I$catch$0 DD 031019H
	DD	0700c4210H
	DD	0500bH
	DD	imagerel __CxxFrameHandler3
	DD	imagerel $cppxdata$PMCCS_LeftShift_X_I
xdata	ENDS
;	COMDAT xdata
xdata	SEGMENT
$ip2state$PMCCS_LeftShift_X_I DD imagerel PMCCS_LeftShift_X_I
	DD	0ffffffffH
	DD	imagerel PMCCS_LeftShift_X_I+91
	DD	00H
	DD	imagerel PMCCS_LeftShift_X_I+125
	DD	0ffffffffH
	DD	imagerel PMCCS_LeftShift_X_I+131
	DD	00H
	DD	imagerel PMCCS_LeftShift_X_I$catch$0+20
	DD	01H
	DD	imagerel PMCCS_LeftShift_X_I$catch$0+35
	DD	00H
xdata	ENDS
;	COMDAT xdata
xdata	SEGMENT
$handlerMap$0$PMCCS_LeftShift_X_I DD 09H
	DD	imagerel ??_R0?AVException@Internal@Core@Math@Palmtree@@@8
	DD	028H
	DD	imagerel PMCCS_LeftShift_X_I$catch$0
	DD	048H
xdata	ENDS
;	COMDAT xdata
xdata	SEGMENT
$tryMap$PMCCS_LeftShift_X_I DD 00H
	DD	00H
	DD	01H
	DD	01H
	DD	imagerel $handlerMap$0$PMCCS_LeftShift_X_I
xdata	ENDS
;	COMDAT xdata
xdata	SEGMENT
$stateUnwindMap$PMCCS_LeftShift_X_I DD 0ffffffffH
	DD	00H
	DD	0ffffffffH
	DD	00H
xdata	ENDS
;	COMDAT xdata
xdata	SEGMENT
$unwind$PMCCS_LeftShift_X_I DD 025053e19H
	DD	0117231cH
	DD	070100029H
	DD	0500fH
	DD	imagerel __CxxFrameHandler3
	DD	imagerel $cppxdata$PMCCS_LeftShift_X_I
xdata	ENDS
;	COMDAT CONST
CONST	SEGMENT
PMCCS_LeftShift_X_I$rtcName$0 DB 065H
	DB	078H
	DB	00H
	ORG $+13
PMCCS_LeftShift_X_I$rtcVarDesc DD 028H
	DD	08H
	DQ	FLAT:PMCCS_LeftShift_X_I$rtcName$0
	ORG $+48
PMCCS_LeftShift_X_I$rtcFrameData DD 01H
	DD	00H
	DQ	FLAT:PMCCS_LeftShift_X_I$rtcVarDesc
$cppxdata$PMCCS_LeftShift_X_I DD 019930522H
	DD	02H
	DD	imagerel $stateUnwindMap$PMCCS_LeftShift_X_I
	DD	01H
	DD	imagerel $tryMap$PMCCS_LeftShift_X_I
	DD	06H
	DD	imagerel $ip2state$PMCCS_LeftShift_X_I
	DD	0128H
	DD	00H
	DD	00H
CONST	ENDS
;	COMDAT xdata
xdata	SEGMENT
$unwind$PMCCS_RightShift_X_I$catch$0 DD 031019H
	DD	0700c4210H
	DD	0500bH
	DD	imagerel __CxxFrameHandler3
	DD	imagerel $cppxdata$PMCCS_RightShift_X_I
xdata	ENDS
;	COMDAT xdata
xdata	SEGMENT
$ip2state$PMCCS_RightShift_X_I DD imagerel PMCCS_RightShift_X_I
	DD	0ffffffffH
	DD	imagerel PMCCS_RightShift_X_I+91
	DD	00H
	DD	imagerel PMCCS_RightShift_X_I+125
	DD	0ffffffffH
	DD	imagerel PMCCS_RightShift_X_I+131
	DD	00H
	DD	imagerel PMCCS_RightShift_X_I$catch$0+20
	DD	01H
	DD	imagerel PMCCS_RightShift_X_I$catch$0+35
	DD	00H
xdata	ENDS
;	COMDAT xdata
xdata	SEGMENT
$handlerMap$0$PMCCS_RightShift_X_I DD 09H
	DD	imagerel ??_R0?AVException@Internal@Core@Math@Palmtree@@@8
	DD	028H
	DD	imagerel PMCCS_RightShift_X_I$catch$0
	DD	048H
xdata	ENDS
;	COMDAT xdata
xdata	SEGMENT
$tryMap$PMCCS_RightShift_X_I DD 00H
	DD	00H
	DD	01H
	DD	01H
	DD	imagerel $handlerMap$0$PMCCS_RightShift_X_I
xdata	ENDS
;	COMDAT xdata
xdata	SEGMENT
$stateUnwindMap$PMCCS_RightShift_X_I DD 0ffffffffH
	DD	00H
	DD	0ffffffffH
	DD	00H
xdata	ENDS
;	COMDAT xdata
xdata	SEGMENT
$unwind$PMCCS_RightShift_X_I DD 025053e19H
	DD	0117231cH
	DD	070100029H
	DD	0500fH
	DD	imagerel __CxxFrameHandler3
	DD	imagerel $cppxdata$PMCCS_RightShift_X_I
xdata	ENDS
;	COMDAT CONST
CONST	SEGMENT
PMCCS_RightShift_X_I$rtcName$0 DB 065H
	DB	078H
	DB	00H
	ORG $+13
PMCCS_RightShift_X_I$rtcVarDesc DD 028H
	DD	08H
	DQ	FLAT:PMCCS_RightShift_X_I$rtcName$0
	ORG $+48
PMCCS_RightShift_X_I$rtcFrameData DD 01H
	DD	00H
	DQ	FLAT:PMCCS_RightShift_X_I$rtcVarDesc
$cppxdata$PMCCS_RightShift_X_I DD 019930522H
	DD	02H
	DD	imagerel $stateUnwindMap$PMCCS_RightShift_X_I
	DD	01H
	DD	imagerel $tryMap$PMCCS_RightShift_X_I
	DD	06H
	DD	imagerel $ip2state$PMCCS_RightShift_X_I
	DD	0128H
	DD	00H
	DD	00H
CONST	ENDS
;	COMDAT xdata
xdata	SEGMENT
$unwind$PMCCS_Remainder_X_X$catch$0 DD 031019H
	DD	0700c4210H
	DD	0500bH
	DD	imagerel __CxxFrameHandler3
	DD	imagerel $cppxdata$PMCCS_Remainder_X_X
xdata	ENDS
;	COMDAT xdata
xdata	SEGMENT
$ip2state$PMCCS_Remainder_X_X DD imagerel PMCCS_Remainder_X_X
	DD	0ffffffffH
	DD	imagerel PMCCS_Remainder_X_X+92
	DD	00H
	DD	imagerel PMCCS_Remainder_X_X+130
	DD	0ffffffffH
	DD	imagerel PMCCS_Remainder_X_X+136
	DD	00H
	DD	imagerel PMCCS_Remainder_X_X$catch$0+20
	DD	01H
	DD	imagerel PMCCS_Remainder_X_X$catch$0+35
	DD	00H
xdata	ENDS
;	COMDAT xdata
xdata	SEGMENT
$handlerMap$0$PMCCS_Remainder_X_X DD 09H
	DD	imagerel ??_R0?AVException@Internal@Core@Math@Palmtree@@@8
	DD	028H
	DD	imagerel PMCCS_Remainder_X_X$catch$0
	DD	048H
xdata	ENDS
;	COMDAT xdata
xdata	SEGMENT
$tryMap$PMCCS_Remainder_X_X DD 00H
	DD	00H
	DD	01H
	DD	01H
	DD	imagerel $handlerMap$0$PMCCS_Remainder_X_X
xdata	ENDS
;	COMDAT xdata
xdata	SEGMENT
$stateUnwindMap$PMCCS_Remainder_X_X DD 0ffffffffH
	DD	00H
	DD	0ffffffffH
	DD	00H
xdata	ENDS
;	COMDAT xdata
xdata	SEGMENT
$unwind$PMCCS_Remainder_X_X DD 025053f19H
	DD	0118231dH
	DD	070110029H
	DD	05010H
	DD	imagerel __CxxFrameHandler3
	DD	imagerel $cppxdata$PMCCS_Remainder_X_X
xdata	ENDS
;	COMDAT CONST
CONST	SEGMENT
PMCCS_Remainder_X_X$rtcName$0 DB 065H
	DB	078H
	DB	00H
	ORG $+13
PMCCS_Remainder_X_X$rtcVarDesc DD 028H
	DD	08H
	DQ	FLAT:PMCCS_Remainder_X_X$rtcName$0
	ORG $+48
PMCCS_Remainder_X_X$rtcFrameData DD 01H
	DD	00H
	DQ	FLAT:PMCCS_Remainder_X_X$rtcVarDesc
$cppxdata$PMCCS_Remainder_X_X DD 019930522H
	DD	02H
	DD	imagerel $stateUnwindMap$PMCCS_Remainder_X_X
	DD	01H
	DD	imagerel $tryMap$PMCCS_Remainder_X_X
	DD	06H
	DD	imagerel $ip2state$PMCCS_Remainder_X_X
	DD	0128H
	DD	00H
	DD	00H
CONST	ENDS
;	COMDAT xdata
xdata	SEGMENT
$unwind$PMCCS_Remainder_X_L$catch$0 DD 031019H
	DD	0700c4210H
	DD	0500bH
	DD	imagerel __CxxFrameHandler3
	DD	imagerel $cppxdata$PMCCS_Remainder_X_L
xdata	ENDS
;	COMDAT xdata
xdata	SEGMENT
$ip2state$PMCCS_Remainder_X_L DD imagerel PMCCS_Remainder_X_L
	DD	0ffffffffH
	DD	imagerel PMCCS_Remainder_X_L+92
	DD	00H
	DD	imagerel PMCCS_Remainder_X_L+130
	DD	0ffffffffH
	DD	imagerel PMCCS_Remainder_X_L+136
	DD	00H
	DD	imagerel PMCCS_Remainder_X_L$catch$0+20
	DD	01H
	DD	imagerel PMCCS_Remainder_X_L$catch$0+35
	DD	00H
xdata	ENDS
;	COMDAT xdata
xdata	SEGMENT
$handlerMap$0$PMCCS_Remainder_X_L DD 09H
	DD	imagerel ??_R0?AVException@Internal@Core@Math@Palmtree@@@8
	DD	028H
	DD	imagerel PMCCS_Remainder_X_L$catch$0
	DD	048H
xdata	ENDS
;	COMDAT xdata
xdata	SEGMENT
$tryMap$PMCCS_Remainder_X_L DD 00H
	DD	00H
	DD	01H
	DD	01H
	DD	imagerel $handlerMap$0$PMCCS_Remainder_X_L
xdata	ENDS
;	COMDAT xdata
xdata	SEGMENT
$stateUnwindMap$PMCCS_Remainder_X_L DD 0ffffffffH
	DD	00H
	DD	0ffffffffH
	DD	00H
xdata	ENDS
;	COMDAT xdata
xdata	SEGMENT
$unwind$PMCCS_Remainder_X_L DD 025053f19H
	DD	0118231dH
	DD	070110029H
	DD	05010H
	DD	imagerel __CxxFrameHandler3
	DD	imagerel $cppxdata$PMCCS_Remainder_X_L
xdata	ENDS
;	COMDAT CONST
CONST	SEGMENT
PMCCS_Remainder_X_L$rtcName$0 DB 065H
	DB	078H
	DB	00H
	ORG $+13
PMCCS_Remainder_X_L$rtcVarDesc DD 028H
	DD	08H
	DQ	FLAT:PMCCS_Remainder_X_L$rtcName$0
	ORG $+48
PMCCS_Remainder_X_L$rtcFrameData DD 01H
	DD	00H
	DQ	FLAT:PMCCS_Remainder_X_L$rtcVarDesc
$cppxdata$PMCCS_Remainder_X_L DD 019930522H
	DD	02H
	DD	imagerel $stateUnwindMap$PMCCS_Remainder_X_L
	DD	01H
	DD	imagerel $tryMap$PMCCS_Remainder_X_L
	DD	06H
	DD	imagerel $ip2state$PMCCS_Remainder_X_L
	DD	0128H
	DD	00H
	DD	00H
CONST	ENDS
;	COMDAT xdata
xdata	SEGMENT
$unwind$PMCCS_Remainder_X_I$catch$0 DD 031019H
	DD	0700c4210H
	DD	0500bH
	DD	imagerel __CxxFrameHandler3
	DD	imagerel $cppxdata$PMCCS_Remainder_X_I
xdata	ENDS
;	COMDAT xdata
xdata	SEGMENT
$ip2state$PMCCS_Remainder_X_I DD imagerel PMCCS_Remainder_X_I
	DD	0ffffffffH
	DD	imagerel PMCCS_Remainder_X_I+91
	DD	00H
	DD	imagerel PMCCS_Remainder_X_I+127
	DD	0ffffffffH
	DD	imagerel PMCCS_Remainder_X_I+133
	DD	00H
	DD	imagerel PMCCS_Remainder_X_I$catch$0+20
	DD	01H
	DD	imagerel PMCCS_Remainder_X_I$catch$0+35
	DD	00H
xdata	ENDS
;	COMDAT xdata
xdata	SEGMENT
$handlerMap$0$PMCCS_Remainder_X_I DD 09H
	DD	imagerel ??_R0?AVException@Internal@Core@Math@Palmtree@@@8
	DD	028H
	DD	imagerel PMCCS_Remainder_X_I$catch$0
	DD	048H
xdata	ENDS
;	COMDAT xdata
xdata	SEGMENT
$tryMap$PMCCS_Remainder_X_I DD 00H
	DD	00H
	DD	01H
	DD	01H
	DD	imagerel $handlerMap$0$PMCCS_Remainder_X_I
xdata	ENDS
;	COMDAT xdata
xdata	SEGMENT
$stateUnwindMap$PMCCS_Remainder_X_I DD 0ffffffffH
	DD	00H
	DD	0ffffffffH
	DD	00H
xdata	ENDS
;	COMDAT xdata
xdata	SEGMENT
$unwind$PMCCS_Remainder_X_I DD 025053e19H
	DD	0117231cH
	DD	070100029H
	DD	0500fH
	DD	imagerel __CxxFrameHandler3
	DD	imagerel $cppxdata$PMCCS_Remainder_X_I
xdata	ENDS
;	COMDAT CONST
CONST	SEGMENT
PMCCS_Remainder_X_I$rtcName$0 DB 065H
	DB	078H
	DB	00H
	ORG $+13
PMCCS_Remainder_X_I$rtcVarDesc DD 028H
	DD	08H
	DQ	FLAT:PMCCS_Remainder_X_I$rtcName$0
	ORG $+48
PMCCS_Remainder_X_I$rtcFrameData DD 01H
	DD	00H
	DQ	FLAT:PMCCS_Remainder_X_I$rtcVarDesc
$cppxdata$PMCCS_Remainder_X_I DD 019930522H
	DD	02H
	DD	imagerel $stateUnwindMap$PMCCS_Remainder_X_I
	DD	01H
	DD	imagerel $tryMap$PMCCS_Remainder_X_I
	DD	06H
	DD	imagerel $ip2state$PMCCS_Remainder_X_I
	DD	0128H
	DD	00H
	DD	00H
CONST	ENDS
;	COMDAT xdata
xdata	SEGMENT
$unwind$PMCCS_Remainder_L_X$catch$0 DD 031019H
	DD	0700c4210H
	DD	0500bH
	DD	imagerel __CxxFrameHandler3
	DD	imagerel $cppxdata$PMCCS_Remainder_L_X
xdata	ENDS
;	COMDAT xdata
xdata	SEGMENT
$ip2state$PMCCS_Remainder_L_X DD imagerel PMCCS_Remainder_L_X
	DD	0ffffffffH
	DD	imagerel PMCCS_Remainder_L_X+92
	DD	00H
	DD	imagerel PMCCS_Remainder_L_X+130
	DD	0ffffffffH
	DD	imagerel PMCCS_Remainder_L_X+136
	DD	00H
	DD	imagerel PMCCS_Remainder_L_X$catch$0+20
	DD	01H
	DD	imagerel PMCCS_Remainder_L_X$catch$0+35
	DD	00H
xdata	ENDS
;	COMDAT xdata
xdata	SEGMENT
$handlerMap$0$PMCCS_Remainder_L_X DD 09H
	DD	imagerel ??_R0?AVException@Internal@Core@Math@Palmtree@@@8
	DD	028H
	DD	imagerel PMCCS_Remainder_L_X$catch$0
	DD	048H
xdata	ENDS
;	COMDAT xdata
xdata	SEGMENT
$tryMap$PMCCS_Remainder_L_X DD 00H
	DD	00H
	DD	01H
	DD	01H
	DD	imagerel $handlerMap$0$PMCCS_Remainder_L_X
xdata	ENDS
;	COMDAT xdata
xdata	SEGMENT
$stateUnwindMap$PMCCS_Remainder_L_X DD 0ffffffffH
	DD	00H
	DD	0ffffffffH
	DD	00H
xdata	ENDS
;	COMDAT xdata
xdata	SEGMENT
$unwind$PMCCS_Remainder_L_X DD 025053f19H
	DD	0118231dH
	DD	070110029H
	DD	05010H
	DD	imagerel __CxxFrameHandler3
	DD	imagerel $cppxdata$PMCCS_Remainder_L_X
xdata	ENDS
;	COMDAT CONST
CONST	SEGMENT
PMCCS_Remainder_L_X$rtcName$0 DB 065H
	DB	078H
	DB	00H
	ORG $+13
PMCCS_Remainder_L_X$rtcVarDesc DD 028H
	DD	08H
	DQ	FLAT:PMCCS_Remainder_L_X$rtcName$0
	ORG $+48
PMCCS_Remainder_L_X$rtcFrameData DD 01H
	DD	00H
	DQ	FLAT:PMCCS_Remainder_L_X$rtcVarDesc
$cppxdata$PMCCS_Remainder_L_X DD 019930522H
	DD	02H
	DD	imagerel $stateUnwindMap$PMCCS_Remainder_L_X
	DD	01H
	DD	imagerel $tryMap$PMCCS_Remainder_L_X
	DD	06H
	DD	imagerel $ip2state$PMCCS_Remainder_L_X
	DD	0128H
	DD	00H
	DD	00H
CONST	ENDS
;	COMDAT xdata
xdata	SEGMENT
$unwind$PMCCS_Remainder_I_X$catch$0 DD 031019H
	DD	0700c4210H
	DD	0500bH
	DD	imagerel __CxxFrameHandler3
	DD	imagerel $cppxdata$PMCCS_Remainder_I_X
xdata	ENDS
;	COMDAT xdata
xdata	SEGMENT
$ip2state$PMCCS_Remainder_I_X DD imagerel PMCCS_Remainder_I_X
	DD	0ffffffffH
	DD	imagerel PMCCS_Remainder_I_X+90
	DD	00H
	DD	imagerel PMCCS_Remainder_I_X+126
	DD	0ffffffffH
	DD	imagerel PMCCS_Remainder_I_X+132
	DD	00H
	DD	imagerel PMCCS_Remainder_I_X$catch$0+20
	DD	01H
	DD	imagerel PMCCS_Remainder_I_X$catch$0+35
	DD	00H
xdata	ENDS
;	COMDAT xdata
xdata	SEGMENT
$handlerMap$0$PMCCS_Remainder_I_X DD 09H
	DD	imagerel ??_R0?AVException@Internal@Core@Math@Palmtree@@@8
	DD	028H
	DD	imagerel PMCCS_Remainder_I_X$catch$0
	DD	048H
xdata	ENDS
;	COMDAT xdata
xdata	SEGMENT
$tryMap$PMCCS_Remainder_I_X DD 00H
	DD	00H
	DD	01H
	DD	01H
	DD	imagerel $handlerMap$0$PMCCS_Remainder_I_X
xdata	ENDS
;	COMDAT xdata
xdata	SEGMENT
$stateUnwindMap$PMCCS_Remainder_I_X DD 0ffffffffH
	DD	00H
	DD	0ffffffffH
	DD	00H
xdata	ENDS
;	COMDAT xdata
xdata	SEGMENT
$unwind$PMCCS_Remainder_I_X DD 025053d19H
	DD	0117231cH
	DD	070100029H
	DD	0500fH
	DD	imagerel __CxxFrameHandler3
	DD	imagerel $cppxdata$PMCCS_Remainder_I_X
xdata	ENDS
;	COMDAT CONST
CONST	SEGMENT
PMCCS_Remainder_I_X$rtcName$0 DB 065H
	DB	078H
	DB	00H
	ORG $+13
PMCCS_Remainder_I_X$rtcVarDesc DD 028H
	DD	08H
	DQ	FLAT:PMCCS_Remainder_I_X$rtcName$0
	ORG $+48
PMCCS_Remainder_I_X$rtcFrameData DD 01H
	DD	00H
	DQ	FLAT:PMCCS_Remainder_I_X$rtcVarDesc
$cppxdata$PMCCS_Remainder_I_X DD 019930522H
	DD	02H
	DD	imagerel $stateUnwindMap$PMCCS_Remainder_I_X
	DD	01H
	DD	imagerel $tryMap$PMCCS_Remainder_I_X
	DD	06H
	DD	imagerel $ip2state$PMCCS_Remainder_I_X
	DD	0128H
	DD	00H
	DD	00H
CONST	ENDS
;	COMDAT xdata
xdata	SEGMENT
$unwind$PMCCS_DivRem_X_X$catch$0 DD 031019H
	DD	0700c4210H
	DD	0500bH
	DD	imagerel __CxxFrameHandler3
	DD	imagerel $cppxdata$PMCCS_DivRem_X_X
xdata	ENDS
;	COMDAT xdata
xdata	SEGMENT
$ip2state$PMCCS_DivRem_X_X DD imagerel PMCCS_DivRem_X_X
	DD	0ffffffffH
	DD	imagerel PMCCS_DivRem_X_X+97
	DD	00H
	DD	imagerel PMCCS_DivRem_X_X+139
	DD	0ffffffffH
	DD	imagerel PMCCS_DivRem_X_X+145
	DD	00H
	DD	imagerel PMCCS_DivRem_X_X$catch$0+20
	DD	01H
	DD	imagerel PMCCS_DivRem_X_X$catch$0+35
	DD	00H
xdata	ENDS
;	COMDAT xdata
xdata	SEGMENT
$handlerMap$0$PMCCS_DivRem_X_X DD 09H
	DD	imagerel ??_R0?AVException@Internal@Core@Math@Palmtree@@@8
	DD	028H
	DD	imagerel PMCCS_DivRem_X_X$catch$0
	DD	048H
xdata	ENDS
;	COMDAT xdata
xdata	SEGMENT
$tryMap$PMCCS_DivRem_X_X DD 00H
	DD	00H
	DD	01H
	DD	01H
	DD	imagerel $handlerMap$0$PMCCS_DivRem_X_X
xdata	ENDS
;	COMDAT xdata
xdata	SEGMENT
$stateUnwindMap$PMCCS_DivRem_X_X DD 0ffffffffH
	DD	00H
	DD	0ffffffffH
	DD	00H
xdata	ENDS
;	COMDAT xdata
xdata	SEGMENT
$unwind$PMCCS_DivRem_X_X DD 025054419H
	DD	011d2322H
	DD	070160029H
	DD	05015H
	DD	imagerel __CxxFrameHandler3
	DD	imagerel $cppxdata$PMCCS_DivRem_X_X
xdata	ENDS
;	COMDAT CONST
CONST	SEGMENT
PMCCS_DivRem_X_X$rtcName$0 DB 065H
	DB	078H
	DB	00H
	ORG $+13
PMCCS_DivRem_X_X$rtcVarDesc DD 028H
	DD	08H
	DQ	FLAT:PMCCS_DivRem_X_X$rtcName$0
	ORG $+48
PMCCS_DivRem_X_X$rtcFrameData DD 01H
	DD	00H
	DQ	FLAT:PMCCS_DivRem_X_X$rtcVarDesc
$cppxdata$PMCCS_DivRem_X_X DD 019930522H
	DD	02H
	DD	imagerel $stateUnwindMap$PMCCS_DivRem_X_X
	DD	01H
	DD	imagerel $tryMap$PMCCS_DivRem_X_X
	DD	06H
	DD	imagerel $ip2state$PMCCS_DivRem_X_X
	DD	0128H
	DD	00H
	DD	00H
CONST	ENDS
;	COMDAT xdata
xdata	SEGMENT
$unwind$PMCCS_DivRem_X_L$catch$0 DD 031019H
	DD	0700c4210H
	DD	0500bH
	DD	imagerel __CxxFrameHandler3
	DD	imagerel $cppxdata$PMCCS_DivRem_X_L
xdata	ENDS
;	COMDAT xdata
xdata	SEGMENT
$ip2state$PMCCS_DivRem_X_L DD imagerel PMCCS_DivRem_X_L
	DD	0ffffffffH
	DD	imagerel PMCCS_DivRem_X_L+97
	DD	00H
	DD	imagerel PMCCS_DivRem_X_L+139
	DD	0ffffffffH
	DD	imagerel PMCCS_DivRem_X_L+145
	DD	00H
	DD	imagerel PMCCS_DivRem_X_L$catch$0+20
	DD	01H
	DD	imagerel PMCCS_DivRem_X_L$catch$0+35
	DD	00H
xdata	ENDS
;	COMDAT xdata
xdata	SEGMENT
$handlerMap$0$PMCCS_DivRem_X_L DD 09H
	DD	imagerel ??_R0?AVException@Internal@Core@Math@Palmtree@@@8
	DD	028H
	DD	imagerel PMCCS_DivRem_X_L$catch$0
	DD	048H
xdata	ENDS
;	COMDAT xdata
xdata	SEGMENT
$tryMap$PMCCS_DivRem_X_L DD 00H
	DD	00H
	DD	01H
	DD	01H
	DD	imagerel $handlerMap$0$PMCCS_DivRem_X_L
xdata	ENDS
;	COMDAT xdata
xdata	SEGMENT
$stateUnwindMap$PMCCS_DivRem_X_L DD 0ffffffffH
	DD	00H
	DD	0ffffffffH
	DD	00H
xdata	ENDS
;	COMDAT xdata
xdata	SEGMENT
$unwind$PMCCS_DivRem_X_L DD 025054419H
	DD	011d2322H
	DD	070160029H
	DD	05015H
	DD	imagerel __CxxFrameHandler3
	DD	imagerel $cppxdata$PMCCS_DivRem_X_L
xdata	ENDS
;	COMDAT CONST
CONST	SEGMENT
PMCCS_DivRem_X_L$rtcName$0 DB 065H
	DB	078H
	DB	00H
	ORG $+13
PMCCS_DivRem_X_L$rtcVarDesc DD 028H
	DD	08H
	DQ	FLAT:PMCCS_DivRem_X_L$rtcName$0
	ORG $+48
PMCCS_DivRem_X_L$rtcFrameData DD 01H
	DD	00H
	DQ	FLAT:PMCCS_DivRem_X_L$rtcVarDesc
$cppxdata$PMCCS_DivRem_X_L DD 019930522H
	DD	02H
	DD	imagerel $stateUnwindMap$PMCCS_DivRem_X_L
	DD	01H
	DD	imagerel $tryMap$PMCCS_DivRem_X_L
	DD	06H
	DD	imagerel $ip2state$PMCCS_DivRem_X_L
	DD	0128H
	DD	00H
	DD	00H
CONST	ENDS
;	COMDAT xdata
xdata	SEGMENT
$unwind$PMCCS_DivRem_X_I$catch$0 DD 031019H
	DD	0700c4210H
	DD	0500bH
	DD	imagerel __CxxFrameHandler3
	DD	imagerel $cppxdata$PMCCS_DivRem_X_I
xdata	ENDS
;	COMDAT xdata
xdata	SEGMENT
$ip2state$PMCCS_DivRem_X_I DD imagerel PMCCS_DivRem_X_I
	DD	0ffffffffH
	DD	imagerel PMCCS_DivRem_X_I+96
	DD	00H
	DD	imagerel PMCCS_DivRem_X_I+136
	DD	0ffffffffH
	DD	imagerel PMCCS_DivRem_X_I+142
	DD	00H
	DD	imagerel PMCCS_DivRem_X_I$catch$0+20
	DD	01H
	DD	imagerel PMCCS_DivRem_X_I$catch$0+35
	DD	00H
xdata	ENDS
;	COMDAT xdata
xdata	SEGMENT
$handlerMap$0$PMCCS_DivRem_X_I DD 09H
	DD	imagerel ??_R0?AVException@Internal@Core@Math@Palmtree@@@8
	DD	028H
	DD	imagerel PMCCS_DivRem_X_I$catch$0
	DD	048H
xdata	ENDS
;	COMDAT xdata
xdata	SEGMENT
$tryMap$PMCCS_DivRem_X_I DD 00H
	DD	00H
	DD	01H
	DD	01H
	DD	imagerel $handlerMap$0$PMCCS_DivRem_X_I
xdata	ENDS
;	COMDAT xdata
xdata	SEGMENT
$stateUnwindMap$PMCCS_DivRem_X_I DD 0ffffffffH
	DD	00H
	DD	0ffffffffH
	DD	00H
xdata	ENDS
;	COMDAT xdata
xdata	SEGMENT
$unwind$PMCCS_DivRem_X_I DD 025054319H
	DD	011c2321H
	DD	070150029H
	DD	05014H
	DD	imagerel __CxxFrameHandler3
	DD	imagerel $cppxdata$PMCCS_DivRem_X_I
xdata	ENDS
;	COMDAT CONST
CONST	SEGMENT
PMCCS_DivRem_X_I$rtcName$0 DB 065H
	DB	078H
	DB	00H
	ORG $+13
PMCCS_DivRem_X_I$rtcVarDesc DD 028H
	DD	08H
	DQ	FLAT:PMCCS_DivRem_X_I$rtcName$0
	ORG $+48
PMCCS_DivRem_X_I$rtcFrameData DD 01H
	DD	00H
	DQ	FLAT:PMCCS_DivRem_X_I$rtcVarDesc
$cppxdata$PMCCS_DivRem_X_I DD 019930522H
	DD	02H
	DD	imagerel $stateUnwindMap$PMCCS_DivRem_X_I
	DD	01H
	DD	imagerel $tryMap$PMCCS_DivRem_X_I
	DD	06H
	DD	imagerel $ip2state$PMCCS_DivRem_X_I
	DD	0128H
	DD	00H
	DD	00H
CONST	ENDS
;	COMDAT xdata
xdata	SEGMENT
$unwind$PMCCS_DivRem_L_X$catch$0 DD 031019H
	DD	0700c4210H
	DD	0500bH
	DD	imagerel __CxxFrameHandler3
	DD	imagerel $cppxdata$PMCCS_DivRem_L_X
xdata	ENDS
;	COMDAT xdata
xdata	SEGMENT
$ip2state$PMCCS_DivRem_L_X DD imagerel PMCCS_DivRem_L_X
	DD	0ffffffffH
	DD	imagerel PMCCS_DivRem_L_X+97
	DD	00H
	DD	imagerel PMCCS_DivRem_L_X+139
	DD	0ffffffffH
	DD	imagerel PMCCS_DivRem_L_X+145
	DD	00H
	DD	imagerel PMCCS_DivRem_L_X$catch$0+20
	DD	01H
	DD	imagerel PMCCS_DivRem_L_X$catch$0+35
	DD	00H
xdata	ENDS
;	COMDAT xdata
xdata	SEGMENT
$handlerMap$0$PMCCS_DivRem_L_X DD 09H
	DD	imagerel ??_R0?AVException@Internal@Core@Math@Palmtree@@@8
	DD	028H
	DD	imagerel PMCCS_DivRem_L_X$catch$0
	DD	048H
xdata	ENDS
;	COMDAT xdata
xdata	SEGMENT
$tryMap$PMCCS_DivRem_L_X DD 00H
	DD	00H
	DD	01H
	DD	01H
	DD	imagerel $handlerMap$0$PMCCS_DivRem_L_X
xdata	ENDS
;	COMDAT xdata
xdata	SEGMENT
$stateUnwindMap$PMCCS_DivRem_L_X DD 0ffffffffH
	DD	00H
	DD	0ffffffffH
	DD	00H
xdata	ENDS
;	COMDAT xdata
xdata	SEGMENT
$unwind$PMCCS_DivRem_L_X DD 025054419H
	DD	011d2322H
	DD	070160029H
	DD	05015H
	DD	imagerel __CxxFrameHandler3
	DD	imagerel $cppxdata$PMCCS_DivRem_L_X
xdata	ENDS
;	COMDAT CONST
CONST	SEGMENT
PMCCS_DivRem_L_X$rtcName$0 DB 065H
	DB	078H
	DB	00H
	ORG $+13
PMCCS_DivRem_L_X$rtcVarDesc DD 028H
	DD	08H
	DQ	FLAT:PMCCS_DivRem_L_X$rtcName$0
	ORG $+48
PMCCS_DivRem_L_X$rtcFrameData DD 01H
	DD	00H
	DQ	FLAT:PMCCS_DivRem_L_X$rtcVarDesc
$cppxdata$PMCCS_DivRem_L_X DD 019930522H
	DD	02H
	DD	imagerel $stateUnwindMap$PMCCS_DivRem_L_X
	DD	01H
	DD	imagerel $tryMap$PMCCS_DivRem_L_X
	DD	06H
	DD	imagerel $ip2state$PMCCS_DivRem_L_X
	DD	0128H
	DD	00H
	DD	00H
CONST	ENDS
;	COMDAT xdata
xdata	SEGMENT
$unwind$PMCCS_DivRem_I_X$catch$0 DD 031019H
	DD	0700c4210H
	DD	0500bH
	DD	imagerel __CxxFrameHandler3
	DD	imagerel $cppxdata$PMCCS_DivRem_I_X
xdata	ENDS
;	COMDAT xdata
xdata	SEGMENT
$ip2state$PMCCS_DivRem_I_X DD imagerel PMCCS_DivRem_I_X
	DD	0ffffffffH
	DD	imagerel PMCCS_DivRem_I_X+95
	DD	00H
	DD	imagerel PMCCS_DivRem_I_X+135
	DD	0ffffffffH
	DD	imagerel PMCCS_DivRem_I_X+141
	DD	00H
	DD	imagerel PMCCS_DivRem_I_X$catch$0+20
	DD	01H
	DD	imagerel PMCCS_DivRem_I_X$catch$0+35
	DD	00H
xdata	ENDS
;	COMDAT xdata
xdata	SEGMENT
$handlerMap$0$PMCCS_DivRem_I_X DD 09H
	DD	imagerel ??_R0?AVException@Internal@Core@Math@Palmtree@@@8
	DD	028H
	DD	imagerel PMCCS_DivRem_I_X$catch$0
	DD	048H
xdata	ENDS
;	COMDAT xdata
xdata	SEGMENT
$tryMap$PMCCS_DivRem_I_X DD 00H
	DD	00H
	DD	01H
	DD	01H
	DD	imagerel $handlerMap$0$PMCCS_DivRem_I_X
xdata	ENDS
;	COMDAT xdata
xdata	SEGMENT
$stateUnwindMap$PMCCS_DivRem_I_X DD 0ffffffffH
	DD	00H
	DD	0ffffffffH
	DD	00H
xdata	ENDS
;	COMDAT xdata
xdata	SEGMENT
$unwind$PMCCS_DivRem_I_X DD 025054219H
	DD	011c2321H
	DD	070150029H
	DD	05014H
	DD	imagerel __CxxFrameHandler3
	DD	imagerel $cppxdata$PMCCS_DivRem_I_X
xdata	ENDS
;	COMDAT CONST
CONST	SEGMENT
PMCCS_DivRem_I_X$rtcName$0 DB 065H
	DB	078H
	DB	00H
	ORG $+13
PMCCS_DivRem_I_X$rtcVarDesc DD 028H
	DD	08H
	DQ	FLAT:PMCCS_DivRem_I_X$rtcName$0
	ORG $+48
PMCCS_DivRem_I_X$rtcFrameData DD 01H
	DD	00H
	DQ	FLAT:PMCCS_DivRem_I_X$rtcVarDesc
$cppxdata$PMCCS_DivRem_I_X DD 019930522H
	DD	02H
	DD	imagerel $stateUnwindMap$PMCCS_DivRem_I_X
	DD	01H
	DD	imagerel $tryMap$PMCCS_DivRem_I_X
	DD	06H
	DD	imagerel $ip2state$PMCCS_DivRem_I_X
	DD	0128H
	DD	00H
	DD	00H
CONST	ENDS
;	COMDAT xdata
xdata	SEGMENT
$unwind$PMCCS_Multiply_X_X$catch$0 DD 031019H
	DD	0700c4210H
	DD	0500bH
	DD	imagerel __CxxFrameHandler3
	DD	imagerel $cppxdata$PMCCS_Multiply_X_X
xdata	ENDS
;	COMDAT xdata
xdata	SEGMENT
$ip2state$PMCCS_Multiply_X_X DD imagerel PMCCS_Multiply_X_X
	DD	0ffffffffH
	DD	imagerel PMCCS_Multiply_X_X+92
	DD	00H
	DD	imagerel PMCCS_Multiply_X_X+127
	DD	0ffffffffH
	DD	imagerel PMCCS_Multiply_X_X+133
	DD	00H
	DD	imagerel PMCCS_Multiply_X_X$catch$0+20
	DD	01H
	DD	imagerel PMCCS_Multiply_X_X$catch$0+35
	DD	00H
xdata	ENDS
;	COMDAT xdata
xdata	SEGMENT
$handlerMap$0$PMCCS_Multiply_X_X DD 09H
	DD	imagerel ??_R0?AVException@Internal@Core@Math@Palmtree@@@8
	DD	028H
	DD	imagerel PMCCS_Multiply_X_X$catch$0
	DD	048H
xdata	ENDS
;	COMDAT xdata
xdata	SEGMENT
$tryMap$PMCCS_Multiply_X_X DD 00H
	DD	00H
	DD	01H
	DD	01H
	DD	imagerel $handlerMap$0$PMCCS_Multiply_X_X
xdata	ENDS
;	COMDAT xdata
xdata	SEGMENT
$stateUnwindMap$PMCCS_Multiply_X_X DD 0ffffffffH
	DD	00H
	DD	0ffffffffH
	DD	00H
xdata	ENDS
;	COMDAT xdata
xdata	SEGMENT
$unwind$PMCCS_Multiply_X_X DD 025053f19H
	DD	0118231dH
	DD	070110029H
	DD	05010H
	DD	imagerel __CxxFrameHandler3
	DD	imagerel $cppxdata$PMCCS_Multiply_X_X
xdata	ENDS
;	COMDAT CONST
CONST	SEGMENT
PMCCS_Multiply_X_X$rtcName$0 DB 065H
	DB	078H
	DB	00H
	ORG $+13
PMCCS_Multiply_X_X$rtcVarDesc DD 028H
	DD	08H
	DQ	FLAT:PMCCS_Multiply_X_X$rtcName$0
	ORG $+48
PMCCS_Multiply_X_X$rtcFrameData DD 01H
	DD	00H
	DQ	FLAT:PMCCS_Multiply_X_X$rtcVarDesc
$cppxdata$PMCCS_Multiply_X_X DD 019930522H
	DD	02H
	DD	imagerel $stateUnwindMap$PMCCS_Multiply_X_X
	DD	01H
	DD	imagerel $tryMap$PMCCS_Multiply_X_X
	DD	06H
	DD	imagerel $ip2state$PMCCS_Multiply_X_X
	DD	0128H
	DD	00H
	DD	00H
CONST	ENDS
;	COMDAT xdata
xdata	SEGMENT
$unwind$PMCCS_Multiply_X_L$catch$0 DD 031019H
	DD	0700c4210H
	DD	0500bH
	DD	imagerel __CxxFrameHandler3
	DD	imagerel $cppxdata$PMCCS_Multiply_X_L
xdata	ENDS
;	COMDAT xdata
xdata	SEGMENT
$ip2state$PMCCS_Multiply_X_L DD imagerel PMCCS_Multiply_X_L
	DD	0ffffffffH
	DD	imagerel PMCCS_Multiply_X_L+92
	DD	00H
	DD	imagerel PMCCS_Multiply_X_L+127
	DD	0ffffffffH
	DD	imagerel PMCCS_Multiply_X_L+133
	DD	00H
	DD	imagerel PMCCS_Multiply_X_L$catch$0+20
	DD	01H
	DD	imagerel PMCCS_Multiply_X_L$catch$0+35
	DD	00H
xdata	ENDS
;	COMDAT xdata
xdata	SEGMENT
$handlerMap$0$PMCCS_Multiply_X_L DD 09H
	DD	imagerel ??_R0?AVException@Internal@Core@Math@Palmtree@@@8
	DD	028H
	DD	imagerel PMCCS_Multiply_X_L$catch$0
	DD	048H
xdata	ENDS
;	COMDAT xdata
xdata	SEGMENT
$tryMap$PMCCS_Multiply_X_L DD 00H
	DD	00H
	DD	01H
	DD	01H
	DD	imagerel $handlerMap$0$PMCCS_Multiply_X_L
xdata	ENDS
;	COMDAT xdata
xdata	SEGMENT
$stateUnwindMap$PMCCS_Multiply_X_L DD 0ffffffffH
	DD	00H
	DD	0ffffffffH
	DD	00H
xdata	ENDS
;	COMDAT xdata
xdata	SEGMENT
$unwind$PMCCS_Multiply_X_L DD 025053f19H
	DD	0118231dH
	DD	070110029H
	DD	05010H
	DD	imagerel __CxxFrameHandler3
	DD	imagerel $cppxdata$PMCCS_Multiply_X_L
xdata	ENDS
;	COMDAT CONST
CONST	SEGMENT
PMCCS_Multiply_X_L$rtcName$0 DB 065H
	DB	078H
	DB	00H
	ORG $+13
PMCCS_Multiply_X_L$rtcVarDesc DD 028H
	DD	08H
	DQ	FLAT:PMCCS_Multiply_X_L$rtcName$0
	ORG $+48
PMCCS_Multiply_X_L$rtcFrameData DD 01H
	DD	00H
	DQ	FLAT:PMCCS_Multiply_X_L$rtcVarDesc
$cppxdata$PMCCS_Multiply_X_L DD 019930522H
	DD	02H
	DD	imagerel $stateUnwindMap$PMCCS_Multiply_X_L
	DD	01H
	DD	imagerel $tryMap$PMCCS_Multiply_X_L
	DD	06H
	DD	imagerel $ip2state$PMCCS_Multiply_X_L
	DD	0128H
	DD	00H
	DD	00H
CONST	ENDS
;	COMDAT xdata
xdata	SEGMENT
$unwind$PMCCS_Multiply_X_I$catch$0 DD 031019H
	DD	0700c4210H
	DD	0500bH
	DD	imagerel __CxxFrameHandler3
	DD	imagerel $cppxdata$PMCCS_Multiply_X_I
xdata	ENDS
;	COMDAT xdata
xdata	SEGMENT
$ip2state$PMCCS_Multiply_X_I DD imagerel PMCCS_Multiply_X_I
	DD	0ffffffffH
	DD	imagerel PMCCS_Multiply_X_I+91
	DD	00H
	DD	imagerel PMCCS_Multiply_X_I+125
	DD	0ffffffffH
	DD	imagerel PMCCS_Multiply_X_I+131
	DD	00H
	DD	imagerel PMCCS_Multiply_X_I$catch$0+20
	DD	01H
	DD	imagerel PMCCS_Multiply_X_I$catch$0+35
	DD	00H
xdata	ENDS
;	COMDAT xdata
xdata	SEGMENT
$handlerMap$0$PMCCS_Multiply_X_I DD 09H
	DD	imagerel ??_R0?AVException@Internal@Core@Math@Palmtree@@@8
	DD	028H
	DD	imagerel PMCCS_Multiply_X_I$catch$0
	DD	048H
xdata	ENDS
;	COMDAT xdata
xdata	SEGMENT
$tryMap$PMCCS_Multiply_X_I DD 00H
	DD	00H
	DD	01H
	DD	01H
	DD	imagerel $handlerMap$0$PMCCS_Multiply_X_I
xdata	ENDS
;	COMDAT xdata
xdata	SEGMENT
$stateUnwindMap$PMCCS_Multiply_X_I DD 0ffffffffH
	DD	00H
	DD	0ffffffffH
	DD	00H
xdata	ENDS
;	COMDAT xdata
xdata	SEGMENT
$unwind$PMCCS_Multiply_X_I DD 025053e19H
	DD	0117231cH
	DD	070100029H
	DD	0500fH
	DD	imagerel __CxxFrameHandler3
	DD	imagerel $cppxdata$PMCCS_Multiply_X_I
xdata	ENDS
;	COMDAT CONST
CONST	SEGMENT
PMCCS_Multiply_X_I$rtcName$0 DB 065H
	DB	078H
	DB	00H
	ORG $+13
PMCCS_Multiply_X_I$rtcVarDesc DD 028H
	DD	08H
	DQ	FLAT:PMCCS_Multiply_X_I$rtcName$0
	ORG $+48
PMCCS_Multiply_X_I$rtcFrameData DD 01H
	DD	00H
	DQ	FLAT:PMCCS_Multiply_X_I$rtcVarDesc
$cppxdata$PMCCS_Multiply_X_I DD 019930522H
	DD	02H
	DD	imagerel $stateUnwindMap$PMCCS_Multiply_X_I
	DD	01H
	DD	imagerel $tryMap$PMCCS_Multiply_X_I
	DD	06H
	DD	imagerel $ip2state$PMCCS_Multiply_X_I
	DD	0128H
	DD	00H
	DD	00H
CONST	ENDS
;	COMDAT xdata
xdata	SEGMENT
$unwind$PMCCS_Multiply_L_X$catch$0 DD 031019H
	DD	0700c4210H
	DD	0500bH
	DD	imagerel __CxxFrameHandler3
	DD	imagerel $cppxdata$PMCCS_Multiply_L_X
xdata	ENDS
;	COMDAT xdata
xdata	SEGMENT
$ip2state$PMCCS_Multiply_L_X DD imagerel PMCCS_Multiply_L_X
	DD	0ffffffffH
	DD	imagerel PMCCS_Multiply_L_X+92
	DD	00H
	DD	imagerel PMCCS_Multiply_L_X+127
	DD	0ffffffffH
	DD	imagerel PMCCS_Multiply_L_X+133
	DD	00H
	DD	imagerel PMCCS_Multiply_L_X$catch$0+20
	DD	01H
	DD	imagerel PMCCS_Multiply_L_X$catch$0+35
	DD	00H
xdata	ENDS
;	COMDAT xdata
xdata	SEGMENT
$handlerMap$0$PMCCS_Multiply_L_X DD 09H
	DD	imagerel ??_R0?AVException@Internal@Core@Math@Palmtree@@@8
	DD	028H
	DD	imagerel PMCCS_Multiply_L_X$catch$0
	DD	048H
xdata	ENDS
;	COMDAT xdata
xdata	SEGMENT
$tryMap$PMCCS_Multiply_L_X DD 00H
	DD	00H
	DD	01H
	DD	01H
	DD	imagerel $handlerMap$0$PMCCS_Multiply_L_X
xdata	ENDS
;	COMDAT xdata
xdata	SEGMENT
$stateUnwindMap$PMCCS_Multiply_L_X DD 0ffffffffH
	DD	00H
	DD	0ffffffffH
	DD	00H
xdata	ENDS
;	COMDAT xdata
xdata	SEGMENT
$unwind$PMCCS_Multiply_L_X DD 025053f19H
	DD	0118231dH
	DD	070110029H
	DD	05010H
	DD	imagerel __CxxFrameHandler3
	DD	imagerel $cppxdata$PMCCS_Multiply_L_X
xdata	ENDS
;	COMDAT CONST
CONST	SEGMENT
PMCCS_Multiply_L_X$rtcName$0 DB 065H
	DB	078H
	DB	00H
	ORG $+13
PMCCS_Multiply_L_X$rtcVarDesc DD 028H
	DD	08H
	DQ	FLAT:PMCCS_Multiply_L_X$rtcName$0
	ORG $+48
PMCCS_Multiply_L_X$rtcFrameData DD 01H
	DD	00H
	DQ	FLAT:PMCCS_Multiply_L_X$rtcVarDesc
$cppxdata$PMCCS_Multiply_L_X DD 019930522H
	DD	02H
	DD	imagerel $stateUnwindMap$PMCCS_Multiply_L_X
	DD	01H
	DD	imagerel $tryMap$PMCCS_Multiply_L_X
	DD	06H
	DD	imagerel $ip2state$PMCCS_Multiply_L_X
	DD	0128H
	DD	00H
	DD	00H
CONST	ENDS
;	COMDAT xdata
xdata	SEGMENT
$unwind$PMCCS_Multiply_I_X$catch$0 DD 031019H
	DD	0700c4210H
	DD	0500bH
	DD	imagerel __CxxFrameHandler3
	DD	imagerel $cppxdata$PMCCS_Multiply_I_X
xdata	ENDS
;	COMDAT xdata
xdata	SEGMENT
$ip2state$PMCCS_Multiply_I_X DD imagerel PMCCS_Multiply_I_X
	DD	0ffffffffH
	DD	imagerel PMCCS_Multiply_I_X+90
	DD	00H
	DD	imagerel PMCCS_Multiply_I_X+124
	DD	0ffffffffH
	DD	imagerel PMCCS_Multiply_I_X+130
	DD	00H
	DD	imagerel PMCCS_Multiply_I_X$catch$0+20
	DD	01H
	DD	imagerel PMCCS_Multiply_I_X$catch$0+35
	DD	00H
xdata	ENDS
;	COMDAT xdata
xdata	SEGMENT
$handlerMap$0$PMCCS_Multiply_I_X DD 09H
	DD	imagerel ??_R0?AVException@Internal@Core@Math@Palmtree@@@8
	DD	028H
	DD	imagerel PMCCS_Multiply_I_X$catch$0
	DD	048H
xdata	ENDS
;	COMDAT xdata
xdata	SEGMENT
$tryMap$PMCCS_Multiply_I_X DD 00H
	DD	00H
	DD	01H
	DD	01H
	DD	imagerel $handlerMap$0$PMCCS_Multiply_I_X
xdata	ENDS
;	COMDAT xdata
xdata	SEGMENT
$stateUnwindMap$PMCCS_Multiply_I_X DD 0ffffffffH
	DD	00H
	DD	0ffffffffH
	DD	00H
xdata	ENDS
;	COMDAT xdata
xdata	SEGMENT
$unwind$PMCCS_Multiply_I_X DD 025053d19H
	DD	0117231cH
	DD	070100029H
	DD	0500fH
	DD	imagerel __CxxFrameHandler3
	DD	imagerel $cppxdata$PMCCS_Multiply_I_X
xdata	ENDS
;	COMDAT CONST
CONST	SEGMENT
PMCCS_Multiply_I_X$rtcName$0 DB 065H
	DB	078H
	DB	00H
	ORG $+13
PMCCS_Multiply_I_X$rtcVarDesc DD 028H
	DD	08H
	DQ	FLAT:PMCCS_Multiply_I_X$rtcName$0
	ORG $+48
PMCCS_Multiply_I_X$rtcFrameData DD 01H
	DD	00H
	DQ	FLAT:PMCCS_Multiply_I_X$rtcVarDesc
$cppxdata$PMCCS_Multiply_I_X DD 019930522H
	DD	02H
	DD	imagerel $stateUnwindMap$PMCCS_Multiply_I_X
	DD	01H
	DD	imagerel $tryMap$PMCCS_Multiply_I_X
	DD	06H
	DD	imagerel $ip2state$PMCCS_Multiply_I_X
	DD	0128H
	DD	00H
	DD	00H
CONST	ENDS
;	COMDAT xdata
xdata	SEGMENT
$unwind$PMCCS_Subtruct_X_X$catch$0 DD 031019H
	DD	0700c4210H
	DD	0500bH
	DD	imagerel __CxxFrameHandler3
	DD	imagerel $cppxdata$PMCCS_Subtruct_X_X
xdata	ENDS
;	COMDAT xdata
xdata	SEGMENT
$ip2state$PMCCS_Subtruct_X_X DD imagerel PMCCS_Subtruct_X_X
	DD	0ffffffffH
	DD	imagerel PMCCS_Subtruct_X_X+92
	DD	00H
	DD	imagerel PMCCS_Subtruct_X_X+127
	DD	0ffffffffH
	DD	imagerel PMCCS_Subtruct_X_X+133
	DD	00H
	DD	imagerel PMCCS_Subtruct_X_X$catch$0+20
	DD	01H
	DD	imagerel PMCCS_Subtruct_X_X$catch$0+35
	DD	00H
xdata	ENDS
;	COMDAT xdata
xdata	SEGMENT
$handlerMap$0$PMCCS_Subtruct_X_X DD 09H
	DD	imagerel ??_R0?AVException@Internal@Core@Math@Palmtree@@@8
	DD	028H
	DD	imagerel PMCCS_Subtruct_X_X$catch$0
	DD	048H
xdata	ENDS
;	COMDAT xdata
xdata	SEGMENT
$tryMap$PMCCS_Subtruct_X_X DD 00H
	DD	00H
	DD	01H
	DD	01H
	DD	imagerel $handlerMap$0$PMCCS_Subtruct_X_X
xdata	ENDS
;	COMDAT xdata
xdata	SEGMENT
$stateUnwindMap$PMCCS_Subtruct_X_X DD 0ffffffffH
	DD	00H
	DD	0ffffffffH
	DD	00H
xdata	ENDS
;	COMDAT xdata
xdata	SEGMENT
$unwind$PMCCS_Subtruct_X_X DD 025053f19H
	DD	0118231dH
	DD	070110029H
	DD	05010H
	DD	imagerel __CxxFrameHandler3
	DD	imagerel $cppxdata$PMCCS_Subtruct_X_X
xdata	ENDS
;	COMDAT CONST
CONST	SEGMENT
PMCCS_Subtruct_X_X$rtcName$0 DB 065H
	DB	078H
	DB	00H
	ORG $+13
PMCCS_Subtruct_X_X$rtcVarDesc DD 028H
	DD	08H
	DQ	FLAT:PMCCS_Subtruct_X_X$rtcName$0
	ORG $+48
PMCCS_Subtruct_X_X$rtcFrameData DD 01H
	DD	00H
	DQ	FLAT:PMCCS_Subtruct_X_X$rtcVarDesc
$cppxdata$PMCCS_Subtruct_X_X DD 019930522H
	DD	02H
	DD	imagerel $stateUnwindMap$PMCCS_Subtruct_X_X
	DD	01H
	DD	imagerel $tryMap$PMCCS_Subtruct_X_X
	DD	06H
	DD	imagerel $ip2state$PMCCS_Subtruct_X_X
	DD	0128H
	DD	00H
	DD	00H
CONST	ENDS
;	COMDAT xdata
xdata	SEGMENT
$unwind$PMCCS_Subtruct_X_L$catch$0 DD 031019H
	DD	0700c4210H
	DD	0500bH
	DD	imagerel __CxxFrameHandler3
	DD	imagerel $cppxdata$PMCCS_Subtruct_X_L
xdata	ENDS
;	COMDAT xdata
xdata	SEGMENT
$ip2state$PMCCS_Subtruct_X_L DD imagerel PMCCS_Subtruct_X_L
	DD	0ffffffffH
	DD	imagerel PMCCS_Subtruct_X_L+92
	DD	00H
	DD	imagerel PMCCS_Subtruct_X_L+127
	DD	0ffffffffH
	DD	imagerel PMCCS_Subtruct_X_L+133
	DD	00H
	DD	imagerel PMCCS_Subtruct_X_L$catch$0+20
	DD	01H
	DD	imagerel PMCCS_Subtruct_X_L$catch$0+35
	DD	00H
xdata	ENDS
;	COMDAT xdata
xdata	SEGMENT
$handlerMap$0$PMCCS_Subtruct_X_L DD 09H
	DD	imagerel ??_R0?AVException@Internal@Core@Math@Palmtree@@@8
	DD	028H
	DD	imagerel PMCCS_Subtruct_X_L$catch$0
	DD	048H
xdata	ENDS
;	COMDAT xdata
xdata	SEGMENT
$tryMap$PMCCS_Subtruct_X_L DD 00H
	DD	00H
	DD	01H
	DD	01H
	DD	imagerel $handlerMap$0$PMCCS_Subtruct_X_L
xdata	ENDS
;	COMDAT xdata
xdata	SEGMENT
$stateUnwindMap$PMCCS_Subtruct_X_L DD 0ffffffffH
	DD	00H
	DD	0ffffffffH
	DD	00H
xdata	ENDS
;	COMDAT xdata
xdata	SEGMENT
$unwind$PMCCS_Subtruct_X_L DD 025053f19H
	DD	0118231dH
	DD	070110029H
	DD	05010H
	DD	imagerel __CxxFrameHandler3
	DD	imagerel $cppxdata$PMCCS_Subtruct_X_L
xdata	ENDS
;	COMDAT CONST
CONST	SEGMENT
PMCCS_Subtruct_X_L$rtcName$0 DB 065H
	DB	078H
	DB	00H
	ORG $+13
PMCCS_Subtruct_X_L$rtcVarDesc DD 028H
	DD	08H
	DQ	FLAT:PMCCS_Subtruct_X_L$rtcName$0
	ORG $+48
PMCCS_Subtruct_X_L$rtcFrameData DD 01H
	DD	00H
	DQ	FLAT:PMCCS_Subtruct_X_L$rtcVarDesc
$cppxdata$PMCCS_Subtruct_X_L DD 019930522H
	DD	02H
	DD	imagerel $stateUnwindMap$PMCCS_Subtruct_X_L
	DD	01H
	DD	imagerel $tryMap$PMCCS_Subtruct_X_L
	DD	06H
	DD	imagerel $ip2state$PMCCS_Subtruct_X_L
	DD	0128H
	DD	00H
	DD	00H
CONST	ENDS
;	COMDAT xdata
xdata	SEGMENT
$unwind$PMCCS_Subtruct_X_I$catch$0 DD 031019H
	DD	0700c4210H
	DD	0500bH
	DD	imagerel __CxxFrameHandler3
	DD	imagerel $cppxdata$PMCCS_Subtruct_X_I
xdata	ENDS
;	COMDAT xdata
xdata	SEGMENT
$ip2state$PMCCS_Subtruct_X_I DD imagerel PMCCS_Subtruct_X_I
	DD	0ffffffffH
	DD	imagerel PMCCS_Subtruct_X_I+91
	DD	00H
	DD	imagerel PMCCS_Subtruct_X_I+125
	DD	0ffffffffH
	DD	imagerel PMCCS_Subtruct_X_I+131
	DD	00H
	DD	imagerel PMCCS_Subtruct_X_I$catch$0+20
	DD	01H
	DD	imagerel PMCCS_Subtruct_X_I$catch$0+35
	DD	00H
xdata	ENDS
;	COMDAT xdata
xdata	SEGMENT
$handlerMap$0$PMCCS_Subtruct_X_I DD 09H
	DD	imagerel ??_R0?AVException@Internal@Core@Math@Palmtree@@@8
	DD	028H
	DD	imagerel PMCCS_Subtruct_X_I$catch$0
	DD	048H
xdata	ENDS
;	COMDAT xdata
xdata	SEGMENT
$tryMap$PMCCS_Subtruct_X_I DD 00H
	DD	00H
	DD	01H
	DD	01H
	DD	imagerel $handlerMap$0$PMCCS_Subtruct_X_I
xdata	ENDS
;	COMDAT xdata
xdata	SEGMENT
$stateUnwindMap$PMCCS_Subtruct_X_I DD 0ffffffffH
	DD	00H
	DD	0ffffffffH
	DD	00H
xdata	ENDS
;	COMDAT xdata
xdata	SEGMENT
$unwind$PMCCS_Subtruct_X_I DD 025053e19H
	DD	0117231cH
	DD	070100029H
	DD	0500fH
	DD	imagerel __CxxFrameHandler3
	DD	imagerel $cppxdata$PMCCS_Subtruct_X_I
xdata	ENDS
;	COMDAT CONST
CONST	SEGMENT
PMCCS_Subtruct_X_I$rtcName$0 DB 065H
	DB	078H
	DB	00H
	ORG $+13
PMCCS_Subtruct_X_I$rtcVarDesc DD 028H
	DD	08H
	DQ	FLAT:PMCCS_Subtruct_X_I$rtcName$0
	ORG $+48
PMCCS_Subtruct_X_I$rtcFrameData DD 01H
	DD	00H
	DQ	FLAT:PMCCS_Subtruct_X_I$rtcVarDesc
$cppxdata$PMCCS_Subtruct_X_I DD 019930522H
	DD	02H
	DD	imagerel $stateUnwindMap$PMCCS_Subtruct_X_I
	DD	01H
	DD	imagerel $tryMap$PMCCS_Subtruct_X_I
	DD	06H
	DD	imagerel $ip2state$PMCCS_Subtruct_X_I
	DD	0128H
	DD	00H
	DD	00H
CONST	ENDS
;	COMDAT xdata
xdata	SEGMENT
$unwind$PMCCS_Subtruct_L_X$catch$0 DD 031019H
	DD	0700c4210H
	DD	0500bH
	DD	imagerel __CxxFrameHandler3
	DD	imagerel $cppxdata$PMCCS_Subtruct_L_X
xdata	ENDS
;	COMDAT xdata
xdata	SEGMENT
$ip2state$PMCCS_Subtruct_L_X DD imagerel PMCCS_Subtruct_L_X
	DD	0ffffffffH
	DD	imagerel PMCCS_Subtruct_L_X+92
	DD	00H
	DD	imagerel PMCCS_Subtruct_L_X+127
	DD	0ffffffffH
	DD	imagerel PMCCS_Subtruct_L_X+133
	DD	00H
	DD	imagerel PMCCS_Subtruct_L_X$catch$0+20
	DD	01H
	DD	imagerel PMCCS_Subtruct_L_X$catch$0+35
	DD	00H
xdata	ENDS
;	COMDAT xdata
xdata	SEGMENT
$handlerMap$0$PMCCS_Subtruct_L_X DD 09H
	DD	imagerel ??_R0?AVException@Internal@Core@Math@Palmtree@@@8
	DD	028H
	DD	imagerel PMCCS_Subtruct_L_X$catch$0
	DD	048H
xdata	ENDS
;	COMDAT xdata
xdata	SEGMENT
$tryMap$PMCCS_Subtruct_L_X DD 00H
	DD	00H
	DD	01H
	DD	01H
	DD	imagerel $handlerMap$0$PMCCS_Subtruct_L_X
xdata	ENDS
;	COMDAT xdata
xdata	SEGMENT
$stateUnwindMap$PMCCS_Subtruct_L_X DD 0ffffffffH
	DD	00H
	DD	0ffffffffH
	DD	00H
xdata	ENDS
;	COMDAT xdata
xdata	SEGMENT
$unwind$PMCCS_Subtruct_L_X DD 025053f19H
	DD	0118231dH
	DD	070110029H
	DD	05010H
	DD	imagerel __CxxFrameHandler3
	DD	imagerel $cppxdata$PMCCS_Subtruct_L_X
xdata	ENDS
;	COMDAT CONST
CONST	SEGMENT
PMCCS_Subtruct_L_X$rtcName$0 DB 065H
	DB	078H
	DB	00H
	ORG $+13
PMCCS_Subtruct_L_X$rtcVarDesc DD 028H
	DD	08H
	DQ	FLAT:PMCCS_Subtruct_L_X$rtcName$0
	ORG $+48
PMCCS_Subtruct_L_X$rtcFrameData DD 01H
	DD	00H
	DQ	FLAT:PMCCS_Subtruct_L_X$rtcVarDesc
$cppxdata$PMCCS_Subtruct_L_X DD 019930522H
	DD	02H
	DD	imagerel $stateUnwindMap$PMCCS_Subtruct_L_X
	DD	01H
	DD	imagerel $tryMap$PMCCS_Subtruct_L_X
	DD	06H
	DD	imagerel $ip2state$PMCCS_Subtruct_L_X
	DD	0128H
	DD	00H
	DD	00H
CONST	ENDS
;	COMDAT xdata
xdata	SEGMENT
$unwind$PMCCS_Subtruct_I_X$catch$0 DD 031019H
	DD	0700c4210H
	DD	0500bH
	DD	imagerel __CxxFrameHandler3
	DD	imagerel $cppxdata$PMCCS_Subtruct_I_X
xdata	ENDS
;	COMDAT xdata
xdata	SEGMENT
$ip2state$PMCCS_Subtruct_I_X DD imagerel PMCCS_Subtruct_I_X
	DD	0ffffffffH
	DD	imagerel PMCCS_Subtruct_I_X+90
	DD	00H
	DD	imagerel PMCCS_Subtruct_I_X+123
	DD	0ffffffffH
	DD	imagerel PMCCS_Subtruct_I_X+129
	DD	00H
	DD	imagerel PMCCS_Subtruct_I_X$catch$0+20
	DD	01H
	DD	imagerel PMCCS_Subtruct_I_X$catch$0+35
	DD	00H
xdata	ENDS
;	COMDAT xdata
xdata	SEGMENT
$handlerMap$0$PMCCS_Subtruct_I_X DD 09H
	DD	imagerel ??_R0?AVException@Internal@Core@Math@Palmtree@@@8
	DD	028H
	DD	imagerel PMCCS_Subtruct_I_X$catch$0
	DD	048H
xdata	ENDS
;	COMDAT xdata
xdata	SEGMENT
$tryMap$PMCCS_Subtruct_I_X DD 00H
	DD	00H
	DD	01H
	DD	01H
	DD	imagerel $handlerMap$0$PMCCS_Subtruct_I_X
xdata	ENDS
;	COMDAT xdata
xdata	SEGMENT
$stateUnwindMap$PMCCS_Subtruct_I_X DD 0ffffffffH
	DD	00H
	DD	0ffffffffH
	DD	00H
xdata	ENDS
;	COMDAT xdata
xdata	SEGMENT
$unwind$PMCCS_Subtruct_I_X DD 025053d19H
	DD	0117231cH
	DD	070100029H
	DD	0500fH
	DD	imagerel __CxxFrameHandler3
	DD	imagerel $cppxdata$PMCCS_Subtruct_I_X
xdata	ENDS
;	COMDAT CONST
CONST	SEGMENT
PMCCS_Subtruct_I_X$rtcName$0 DB 065H
	DB	078H
	DB	00H
	ORG $+13
PMCCS_Subtruct_I_X$rtcVarDesc DD 028H
	DD	08H
	DQ	FLAT:PMCCS_Subtruct_I_X$rtcName$0
	ORG $+48
PMCCS_Subtruct_I_X$rtcFrameData DD 01H
	DD	00H
	DQ	FLAT:PMCCS_Subtruct_I_X$rtcVarDesc
$cppxdata$PMCCS_Subtruct_I_X DD 019930522H
	DD	02H
	DD	imagerel $stateUnwindMap$PMCCS_Subtruct_I_X
	DD	01H
	DD	imagerel $tryMap$PMCCS_Subtruct_I_X
	DD	06H
	DD	imagerel $ip2state$PMCCS_Subtruct_I_X
	DD	0128H
	DD	00H
	DD	00H
CONST	ENDS
;	COMDAT xdata
xdata	SEGMENT
$unwind$PMCCS_Add_X_X$catch$0 DD 031019H
	DD	0700c4210H
	DD	0500bH
	DD	imagerel __CxxFrameHandler3
	DD	imagerel $cppxdata$PMCCS_Add_X_X
xdata	ENDS
;	COMDAT xdata
xdata	SEGMENT
$ip2state$PMCCS_Add_X_X DD imagerel PMCCS_Add_X_X
	DD	0ffffffffH
	DD	imagerel PMCCS_Add_X_X+92
	DD	00H
	DD	imagerel PMCCS_Add_X_X+127
	DD	0ffffffffH
	DD	imagerel PMCCS_Add_X_X+133
	DD	00H
	DD	imagerel PMCCS_Add_X_X$catch$0+20
	DD	01H
	DD	imagerel PMCCS_Add_X_X$catch$0+35
	DD	00H
xdata	ENDS
;	COMDAT xdata
xdata	SEGMENT
$handlerMap$0$PMCCS_Add_X_X DD 09H
	DD	imagerel ??_R0?AVException@Internal@Core@Math@Palmtree@@@8
	DD	028H
	DD	imagerel PMCCS_Add_X_X$catch$0
	DD	048H
xdata	ENDS
;	COMDAT xdata
xdata	SEGMENT
$tryMap$PMCCS_Add_X_X DD 00H
	DD	00H
	DD	01H
	DD	01H
	DD	imagerel $handlerMap$0$PMCCS_Add_X_X
xdata	ENDS
;	COMDAT xdata
xdata	SEGMENT
$stateUnwindMap$PMCCS_Add_X_X DD 0ffffffffH
	DD	00H
	DD	0ffffffffH
	DD	00H
xdata	ENDS
;	COMDAT xdata
xdata	SEGMENT
$unwind$PMCCS_Add_X_X DD 025053f19H
	DD	0118231dH
	DD	070110029H
	DD	05010H
	DD	imagerel __CxxFrameHandler3
	DD	imagerel $cppxdata$PMCCS_Add_X_X
xdata	ENDS
;	COMDAT CONST
CONST	SEGMENT
PMCCS_Add_X_X$rtcName$0 DB 065H
	DB	078H
	DB	00H
	ORG $+13
PMCCS_Add_X_X$rtcVarDesc DD 028H
	DD	08H
	DQ	FLAT:PMCCS_Add_X_X$rtcName$0
	ORG $+48
PMCCS_Add_X_X$rtcFrameData DD 01H
	DD	00H
	DQ	FLAT:PMCCS_Add_X_X$rtcVarDesc
$cppxdata$PMCCS_Add_X_X DD 019930522H
	DD	02H
	DD	imagerel $stateUnwindMap$PMCCS_Add_X_X
	DD	01H
	DD	imagerel $tryMap$PMCCS_Add_X_X
	DD	06H
	DD	imagerel $ip2state$PMCCS_Add_X_X
	DD	0128H
	DD	00H
	DD	00H
CONST	ENDS
;	COMDAT xdata
xdata	SEGMENT
$unwind$PMCCS_Add_X_L$catch$0 DD 031019H
	DD	0700c4210H
	DD	0500bH
	DD	imagerel __CxxFrameHandler3
	DD	imagerel $cppxdata$PMCCS_Add_X_L
xdata	ENDS
;	COMDAT xdata
xdata	SEGMENT
$ip2state$PMCCS_Add_X_L DD imagerel PMCCS_Add_X_L
	DD	0ffffffffH
	DD	imagerel PMCCS_Add_X_L+92
	DD	00H
	DD	imagerel PMCCS_Add_X_L+127
	DD	0ffffffffH
	DD	imagerel PMCCS_Add_X_L+133
	DD	00H
	DD	imagerel PMCCS_Add_X_L$catch$0+20
	DD	01H
	DD	imagerel PMCCS_Add_X_L$catch$0+35
	DD	00H
xdata	ENDS
;	COMDAT xdata
xdata	SEGMENT
$handlerMap$0$PMCCS_Add_X_L DD 09H
	DD	imagerel ??_R0?AVException@Internal@Core@Math@Palmtree@@@8
	DD	028H
	DD	imagerel PMCCS_Add_X_L$catch$0
	DD	048H
xdata	ENDS
;	COMDAT xdata
xdata	SEGMENT
$tryMap$PMCCS_Add_X_L DD 00H
	DD	00H
	DD	01H
	DD	01H
	DD	imagerel $handlerMap$0$PMCCS_Add_X_L
xdata	ENDS
;	COMDAT xdata
xdata	SEGMENT
$stateUnwindMap$PMCCS_Add_X_L DD 0ffffffffH
	DD	00H
	DD	0ffffffffH
	DD	00H
xdata	ENDS
;	COMDAT xdata
xdata	SEGMENT
$unwind$PMCCS_Add_X_L DD 025053f19H
	DD	0118231dH
	DD	070110029H
	DD	05010H
	DD	imagerel __CxxFrameHandler3
	DD	imagerel $cppxdata$PMCCS_Add_X_L
xdata	ENDS
;	COMDAT CONST
CONST	SEGMENT
PMCCS_Add_X_L$rtcName$0 DB 065H
	DB	078H
	DB	00H
	ORG $+13
PMCCS_Add_X_L$rtcVarDesc DD 028H
	DD	08H
	DQ	FLAT:PMCCS_Add_X_L$rtcName$0
	ORG $+48
PMCCS_Add_X_L$rtcFrameData DD 01H
	DD	00H
	DQ	FLAT:PMCCS_Add_X_L$rtcVarDesc
$cppxdata$PMCCS_Add_X_L DD 019930522H
	DD	02H
	DD	imagerel $stateUnwindMap$PMCCS_Add_X_L
	DD	01H
	DD	imagerel $tryMap$PMCCS_Add_X_L
	DD	06H
	DD	imagerel $ip2state$PMCCS_Add_X_L
	DD	0128H
	DD	00H
	DD	00H
CONST	ENDS
;	COMDAT xdata
xdata	SEGMENT
$unwind$PMCCS_Add_X_I$catch$0 DD 031019H
	DD	0700c4210H
	DD	0500bH
	DD	imagerel __CxxFrameHandler3
	DD	imagerel $cppxdata$PMCCS_Add_X_I
xdata	ENDS
;	COMDAT xdata
xdata	SEGMENT
$ip2state$PMCCS_Add_X_I DD imagerel PMCCS_Add_X_I
	DD	0ffffffffH
	DD	imagerel PMCCS_Add_X_I+91
	DD	00H
	DD	imagerel PMCCS_Add_X_I+125
	DD	0ffffffffH
	DD	imagerel PMCCS_Add_X_I+131
	DD	00H
	DD	imagerel PMCCS_Add_X_I$catch$0+20
	DD	01H
	DD	imagerel PMCCS_Add_X_I$catch$0+35
	DD	00H
xdata	ENDS
;	COMDAT xdata
xdata	SEGMENT
$handlerMap$0$PMCCS_Add_X_I DD 09H
	DD	imagerel ??_R0?AVException@Internal@Core@Math@Palmtree@@@8
	DD	028H
	DD	imagerel PMCCS_Add_X_I$catch$0
	DD	048H
xdata	ENDS
;	COMDAT xdata
xdata	SEGMENT
$tryMap$PMCCS_Add_X_I DD 00H
	DD	00H
	DD	01H
	DD	01H
	DD	imagerel $handlerMap$0$PMCCS_Add_X_I
xdata	ENDS
;	COMDAT xdata
xdata	SEGMENT
$stateUnwindMap$PMCCS_Add_X_I DD 0ffffffffH
	DD	00H
	DD	0ffffffffH
	DD	00H
xdata	ENDS
;	COMDAT xdata
xdata	SEGMENT
$unwind$PMCCS_Add_X_I DD 025053e19H
	DD	0117231cH
	DD	070100029H
	DD	0500fH
	DD	imagerel __CxxFrameHandler3
	DD	imagerel $cppxdata$PMCCS_Add_X_I
xdata	ENDS
;	COMDAT CONST
CONST	SEGMENT
PMCCS_Add_X_I$rtcName$0 DB 065H
	DB	078H
	DB	00H
	ORG $+13
PMCCS_Add_X_I$rtcVarDesc DD 028H
	DD	08H
	DQ	FLAT:PMCCS_Add_X_I$rtcName$0
	ORG $+48
PMCCS_Add_X_I$rtcFrameData DD 01H
	DD	00H
	DQ	FLAT:PMCCS_Add_X_I$rtcVarDesc
$cppxdata$PMCCS_Add_X_I DD 019930522H
	DD	02H
	DD	imagerel $stateUnwindMap$PMCCS_Add_X_I
	DD	01H
	DD	imagerel $tryMap$PMCCS_Add_X_I
	DD	06H
	DD	imagerel $ip2state$PMCCS_Add_X_I
	DD	0128H
	DD	00H
	DD	00H
CONST	ENDS
;	COMDAT xdata
xdata	SEGMENT
$unwind$PMCCS_Add_L_X$catch$0 DD 031019H
	DD	0700c4210H
	DD	0500bH
	DD	imagerel __CxxFrameHandler3
	DD	imagerel $cppxdata$PMCCS_Add_L_X
xdata	ENDS
;	COMDAT xdata
xdata	SEGMENT
$ip2state$PMCCS_Add_L_X DD imagerel PMCCS_Add_L_X
	DD	0ffffffffH
	DD	imagerel PMCCS_Add_L_X+92
	DD	00H
	DD	imagerel PMCCS_Add_L_X+127
	DD	0ffffffffH
	DD	imagerel PMCCS_Add_L_X+133
	DD	00H
	DD	imagerel PMCCS_Add_L_X$catch$0+20
	DD	01H
	DD	imagerel PMCCS_Add_L_X$catch$0+35
	DD	00H
xdata	ENDS
;	COMDAT xdata
xdata	SEGMENT
$handlerMap$0$PMCCS_Add_L_X DD 09H
	DD	imagerel ??_R0?AVException@Internal@Core@Math@Palmtree@@@8
	DD	028H
	DD	imagerel PMCCS_Add_L_X$catch$0
	DD	048H
xdata	ENDS
;	COMDAT xdata
xdata	SEGMENT
$tryMap$PMCCS_Add_L_X DD 00H
	DD	00H
	DD	01H
	DD	01H
	DD	imagerel $handlerMap$0$PMCCS_Add_L_X
xdata	ENDS
;	COMDAT xdata
xdata	SEGMENT
$stateUnwindMap$PMCCS_Add_L_X DD 0ffffffffH
	DD	00H
	DD	0ffffffffH
	DD	00H
xdata	ENDS
;	COMDAT xdata
xdata	SEGMENT
$unwind$PMCCS_Add_L_X DD 025053f19H
	DD	0118231dH
	DD	070110029H
	DD	05010H
	DD	imagerel __CxxFrameHandler3
	DD	imagerel $cppxdata$PMCCS_Add_L_X
xdata	ENDS
;	COMDAT CONST
CONST	SEGMENT
PMCCS_Add_L_X$rtcName$0 DB 065H
	DB	078H
	DB	00H
	ORG $+13
PMCCS_Add_L_X$rtcVarDesc DD 028H
	DD	08H
	DQ	FLAT:PMCCS_Add_L_X$rtcName$0
	ORG $+48
PMCCS_Add_L_X$rtcFrameData DD 01H
	DD	00H
	DQ	FLAT:PMCCS_Add_L_X$rtcVarDesc
$cppxdata$PMCCS_Add_L_X DD 019930522H
	DD	02H
	DD	imagerel $stateUnwindMap$PMCCS_Add_L_X
	DD	01H
	DD	imagerel $tryMap$PMCCS_Add_L_X
	DD	06H
	DD	imagerel $ip2state$PMCCS_Add_L_X
	DD	0128H
	DD	00H
	DD	00H
CONST	ENDS
;	COMDAT xdata
xdata	SEGMENT
$unwind$PMCCS_Add_I_X$catch$0 DD 031019H
	DD	0700c4210H
	DD	0500bH
	DD	imagerel __CxxFrameHandler3
	DD	imagerel $cppxdata$PMCCS_Add_I_X
xdata	ENDS
;	COMDAT xdata
xdata	SEGMENT
$ip2state$PMCCS_Add_I_X DD imagerel PMCCS_Add_I_X
	DD	0ffffffffH
	DD	imagerel PMCCS_Add_I_X+90
	DD	00H
	DD	imagerel PMCCS_Add_I_X+124
	DD	0ffffffffH
	DD	imagerel PMCCS_Add_I_X+130
	DD	00H
	DD	imagerel PMCCS_Add_I_X$catch$0+20
	DD	01H
	DD	imagerel PMCCS_Add_I_X$catch$0+35
	DD	00H
xdata	ENDS
;	COMDAT xdata
xdata	SEGMENT
$handlerMap$0$PMCCS_Add_I_X DD 09H
	DD	imagerel ??_R0?AVException@Internal@Core@Math@Palmtree@@@8
	DD	028H
	DD	imagerel PMCCS_Add_I_X$catch$0
	DD	048H
xdata	ENDS
;	COMDAT xdata
xdata	SEGMENT
$tryMap$PMCCS_Add_I_X DD 00H
	DD	00H
	DD	01H
	DD	01H
	DD	imagerel $handlerMap$0$PMCCS_Add_I_X
xdata	ENDS
;	COMDAT xdata
xdata	SEGMENT
$stateUnwindMap$PMCCS_Add_I_X DD 0ffffffffH
	DD	00H
	DD	0ffffffffH
	DD	00H
xdata	ENDS
;	COMDAT xdata
xdata	SEGMENT
$unwind$PMCCS_Add_I_X DD 025053d19H
	DD	0117231cH
	DD	070100029H
	DD	0500fH
	DD	imagerel __CxxFrameHandler3
	DD	imagerel $cppxdata$PMCCS_Add_I_X
xdata	ENDS
;	COMDAT CONST
CONST	SEGMENT
PMCCS_Add_I_X$rtcName$0 DB 065H
	DB	078H
	DB	00H
	ORG $+13
PMCCS_Add_I_X$rtcVarDesc DD 028H
	DD	08H
	DQ	FLAT:PMCCS_Add_I_X$rtcName$0
	ORG $+48
PMCCS_Add_I_X$rtcFrameData DD 01H
	DD	00H
	DQ	FLAT:PMCCS_Add_I_X$rtcVarDesc
$cppxdata$PMCCS_Add_I_X DD 019930522H
	DD	02H
	DD	imagerel $stateUnwindMap$PMCCS_Add_I_X
	DD	01H
	DD	imagerel $tryMap$PMCCS_Add_I_X
	DD	06H
	DD	imagerel $ip2state$PMCCS_Add_I_X
	DD	0128H
	DD	00H
	DD	00H
CONST	ENDS
;	COMDAT xdata
xdata	SEGMENT
$unwind$PMCCS_TryParse$catch$0 DD 031019H
	DD	0700c6210H
	DD	0500bH
	DD	imagerel __CxxFrameHandler3
	DD	imagerel $cppxdata$PMCCS_TryParse
xdata	ENDS
;	COMDAT xdata
xdata	SEGMENT
$ip2state$PMCCS_TryParse DD imagerel PMCCS_TryParse
	DD	0ffffffffH
	DD	imagerel PMCCS_TryParse+125
	DD	00H
	DD	imagerel PMCCS_TryParse+189
	DD	0ffffffffH
	DD	imagerel PMCCS_TryParse+195
	DD	00H
	DD	imagerel PMCCS_TryParse$catch$0+20
	DD	01H
	DD	imagerel PMCCS_TryParse$catch$0+35
	DD	00H
xdata	ENDS
;	COMDAT xdata
xdata	SEGMENT
$handlerMap$0$PMCCS_TryParse DD 09H
	DD	imagerel ??_R0?AVException@Internal@Core@Math@Palmtree@@@8
	DD	078H
	DD	imagerel PMCCS_TryParse$catch$0
	DD	058H
xdata	ENDS
;	COMDAT xdata
xdata	SEGMENT
$tryMap$PMCCS_TryParse DD 00H
	DD	00H
	DD	01H
	DD	01H
	DD	imagerel $handlerMap$0$PMCCS_TryParse
xdata	ENDS
;	COMDAT xdata
xdata	SEGMENT
$stateUnwindMap$PMCCS_TryParse DD 0ffffffffH
	DD	00H
	DD	0ffffffffH
	DD	00H
xdata	ENDS
;	COMDAT xdata
xdata	SEGMENT
$unwind$PMCCS_TryParse DD 035054319H
	DD	011c3321H
	DD	070150033H
	DD	05014H
	DD	imagerel __CxxFrameHandler3
	DD	imagerel $cppxdata$PMCCS_TryParse
xdata	ENDS
;	COMDAT CONST
CONST	SEGMENT
PMCCS_TryParse$rtcName$0 DB 065H
	DB	078H
	DB	00H
	ORG $+13
PMCCS_TryParse$rtcVarDesc DD 078H
	DD	08H
	DQ	FLAT:PMCCS_TryParse$rtcName$0
	ORG $+48
PMCCS_TryParse$rtcFrameData DD 01H
	DD	00H
	DQ	FLAT:PMCCS_TryParse$rtcVarDesc
$cppxdata$PMCCS_TryParse DD 019930522H
	DD	02H
	DD	imagerel $stateUnwindMap$PMCCS_TryParse
	DD	01H
	DD	imagerel $tryMap$PMCCS_TryParse
	DD	06H
	DD	imagerel $ip2state$PMCCS_TryParse
	DD	0178H
	DD	00H
	DD	00H
CONST	ENDS
;	COMDAT xdata
xdata	SEGMENT
$unwind$PMCCS_Parse$catch$0 DD 031019H
	DD	0700c6210H
	DD	0500bH
	DD	imagerel __CxxFrameHandler3
	DD	imagerel $cppxdata$PMCCS_Parse
xdata	ENDS
;	COMDAT xdata
xdata	SEGMENT
$ip2state$PMCCS_Parse DD imagerel PMCCS_Parse
	DD	0ffffffffH
	DD	imagerel PMCCS_Parse+125
	DD	00H
	DD	imagerel PMCCS_Parse+205
	DD	0ffffffffH
	DD	imagerel PMCCS_Parse+211
	DD	00H
	DD	imagerel PMCCS_Parse$catch$0+20
	DD	01H
	DD	imagerel PMCCS_Parse$catch$0+35
	DD	00H
xdata	ENDS
;	COMDAT xdata
xdata	SEGMENT
$handlerMap$0$PMCCS_Parse DD 09H
	DD	imagerel ??_R0?AVException@Internal@Core@Math@Palmtree@@@8
	DD	098H
	DD	imagerel PMCCS_Parse$catch$0
	DD	058H
xdata	ENDS
;	COMDAT xdata
xdata	SEGMENT
$tryMap$PMCCS_Parse DD 00H
	DD	00H
	DD	01H
	DD	01H
	DD	imagerel $handlerMap$0$PMCCS_Parse
xdata	ENDS
;	COMDAT xdata
xdata	SEGMENT
$stateUnwindMap$PMCCS_Parse DD 0ffffffffH
	DD	00H
	DD	0ffffffffH
	DD	00H
xdata	ENDS
;	COMDAT xdata
xdata	SEGMENT
$unwind$PMCCS_Parse DD 035054319H
	DD	011c3321H
	DD	070150037H
	DD	05014H
	DD	imagerel __CxxFrameHandler3
	DD	imagerel $cppxdata$PMCCS_Parse
xdata	ENDS
;	COMDAT CONST
CONST	SEGMENT
PMCCS_Parse$rtcName$0 DB 072H
	DB	065H
	DB	073H
	DB	075H
	DB	06cH
	DB	074H
	DB	00H
	ORG $+1
PMCCS_Parse$rtcName$1 DB 065H
	DB	078H
	DB	00H
	ORG $+5
PMCCS_Parse$rtcVarDesc DD 098H
	DD	08H
	DQ	FLAT:PMCCS_Parse$rtcName$1
	DD	054H
	DD	04H
	DQ	FLAT:PMCCS_Parse$rtcName$0
	ORG $+96
PMCCS_Parse$rtcFrameData DD 02H
	DD	00H
	DQ	FLAT:PMCCS_Parse$rtcVarDesc
$cppxdata$PMCCS_Parse DD 019930522H
	DD	02H
	DD	imagerel $stateUnwindMap$PMCCS_Parse
	DD	01H
	DD	imagerel $tryMap$PMCCS_Parse
	DD	06H
	DD	imagerel $ip2state$PMCCS_Parse
	DD	0198H
	DD	00H
	DD	00H
CONST	ENDS
;	COMDAT xdata
xdata	SEGMENT
$unwind$PMCCS_ToString$catch$0 DD 031019H
	DD	0700c6210H
	DD	0500bH
	DD	imagerel __CxxFrameHandler3
	DD	imagerel $cppxdata$PMCCS_ToString
xdata	ENDS
;	COMDAT xdata
xdata	SEGMENT
$ip2state$PMCCS_ToString DD imagerel PMCCS_ToString
	DD	0ffffffffH
	DD	imagerel PMCCS_ToString+97
	DD	00H
	DD	imagerel PMCCS_ToString+181
	DD	0ffffffffH
	DD	imagerel PMCCS_ToString+187
	DD	00H
	DD	imagerel PMCCS_ToString$catch$0+20
	DD	01H
	DD	imagerel PMCCS_ToString$catch$0+35
	DD	00H
xdata	ENDS
;	COMDAT xdata
xdata	SEGMENT
$handlerMap$0$PMCCS_ToString DD 09H
	DD	imagerel ??_R0?AVException@Internal@Core@Math@Palmtree@@@8
	DD	058H
	DD	imagerel PMCCS_ToString$catch$0
	DD	058H
xdata	ENDS
;	COMDAT xdata
xdata	SEGMENT
$tryMap$PMCCS_ToString DD 00H
	DD	00H
	DD	01H
	DD	01H
	DD	imagerel $handlerMap$0$PMCCS_ToString
xdata	ENDS
;	COMDAT xdata
xdata	SEGMENT
$stateUnwindMap$PMCCS_ToString DD 0ffffffffH
	DD	00H
	DD	0ffffffffH
	DD	00H
xdata	ENDS
;	COMDAT xdata
xdata	SEGMENT
$unwind$PMCCS_ToString DD 035054419H
	DD	011d3322H
	DD	07016002fH
	DD	05015H
	DD	imagerel __CxxFrameHandler3
	DD	imagerel $cppxdata$PMCCS_ToString
xdata	ENDS
;	COMDAT CONST
CONST	SEGMENT
PMCCS_ToString$rtcName$0 DB 065H
	DB	078H
	DB	00H
	ORG $+13
PMCCS_ToString$rtcVarDesc DD 058H
	DD	08H
	DQ	FLAT:PMCCS_ToString$rtcName$0
	ORG $+48
PMCCS_ToString$rtcFrameData DD 01H
	DD	00H
	DQ	FLAT:PMCCS_ToString$rtcVarDesc
$cppxdata$PMCCS_ToString DD 019930522H
	DD	02H
	DD	imagerel $stateUnwindMap$PMCCS_ToString
	DD	01H
	DD	imagerel $tryMap$PMCCS_ToString
	DD	06H
	DD	imagerel $ip2state$PMCCS_ToString
	DD	0158H
	DD	00H
	DD	00H
CONST	ENDS
;	COMDAT xdata
xdata	SEGMENT
$unwind$PMCCS_To_X_L$catch$0 DD 031019H
	DD	0700c4210H
	DD	0500bH
	DD	imagerel __CxxFrameHandler3
	DD	imagerel $cppxdata$PMCCS_To_X_L
xdata	ENDS
;	COMDAT xdata
xdata	SEGMENT
$ip2state$PMCCS_To_X_L DD imagerel PMCCS_To_X_L
	DD	0ffffffffH
	DD	imagerel PMCCS_To_X_L+87
	DD	00H
	DD	imagerel PMCCS_To_X_L+115
	DD	0ffffffffH
	DD	imagerel PMCCS_To_X_L+121
	DD	00H
	DD	imagerel PMCCS_To_X_L$catch$0+20
	DD	01H
	DD	imagerel PMCCS_To_X_L$catch$0+35
	DD	00H
xdata	ENDS
;	COMDAT xdata
xdata	SEGMENT
$handlerMap$0$PMCCS_To_X_L DD 09H
	DD	imagerel ??_R0?AVException@Internal@Core@Math@Palmtree@@@8
	DD	028H
	DD	imagerel PMCCS_To_X_L$catch$0
	DD	048H
xdata	ENDS
;	COMDAT xdata
xdata	SEGMENT
$tryMap$PMCCS_To_X_L DD 00H
	DD	00H
	DD	01H
	DD	01H
	DD	imagerel $handlerMap$0$PMCCS_To_X_L
xdata	ENDS
;	COMDAT xdata
xdata	SEGMENT
$stateUnwindMap$PMCCS_To_X_L DD 0ffffffffH
	DD	00H
	DD	0ffffffffH
	DD	00H
xdata	ENDS
;	COMDAT xdata
xdata	SEGMENT
$unwind$PMCCS_To_X_L DD 025053a19H
	DD	01132318H
	DD	0700c0029H
	DD	0500bH
	DD	imagerel __CxxFrameHandler3
	DD	imagerel $cppxdata$PMCCS_To_X_L
xdata	ENDS
;	COMDAT CONST
CONST	SEGMENT
PMCCS_To_X_L$rtcName$0 DB 065H
	DB	078H
	DB	00H
	ORG $+13
PMCCS_To_X_L$rtcVarDesc DD 028H
	DD	08H
	DQ	FLAT:PMCCS_To_X_L$rtcName$0
	ORG $+48
PMCCS_To_X_L$rtcFrameData DD 01H
	DD	00H
	DQ	FLAT:PMCCS_To_X_L$rtcVarDesc
$cppxdata$PMCCS_To_X_L DD 019930522H
	DD	02H
	DD	imagerel $stateUnwindMap$PMCCS_To_X_L
	DD	01H
	DD	imagerel $tryMap$PMCCS_To_X_L
	DD	06H
	DD	imagerel $ip2state$PMCCS_To_X_L
	DD	0128H
	DD	00H
	DD	00H
CONST	ENDS
;	COMDAT xdata
xdata	SEGMENT
$unwind$PMCCS_To_X_I$catch$0 DD 031019H
	DD	0700c4210H
	DD	0500bH
	DD	imagerel __CxxFrameHandler3
	DD	imagerel $cppxdata$PMCCS_To_X_I
xdata	ENDS
;	COMDAT xdata
xdata	SEGMENT
$ip2state$PMCCS_To_X_I DD imagerel PMCCS_To_X_I
	DD	0ffffffffH
	DD	imagerel PMCCS_To_X_I+87
	DD	00H
	DD	imagerel PMCCS_To_X_I+114
	DD	0ffffffffH
	DD	imagerel PMCCS_To_X_I+120
	DD	00H
	DD	imagerel PMCCS_To_X_I$catch$0+20
	DD	01H
	DD	imagerel PMCCS_To_X_I$catch$0+35
	DD	00H
xdata	ENDS
;	COMDAT xdata
xdata	SEGMENT
$handlerMap$0$PMCCS_To_X_I DD 09H
	DD	imagerel ??_R0?AVException@Internal@Core@Math@Palmtree@@@8
	DD	028H
	DD	imagerel PMCCS_To_X_I$catch$0
	DD	048H
xdata	ENDS
;	COMDAT xdata
xdata	SEGMENT
$tryMap$PMCCS_To_X_I DD 00H
	DD	00H
	DD	01H
	DD	01H
	DD	imagerel $handlerMap$0$PMCCS_To_X_I
xdata	ENDS
;	COMDAT xdata
xdata	SEGMENT
$stateUnwindMap$PMCCS_To_X_I DD 0ffffffffH
	DD	00H
	DD	0ffffffffH
	DD	00H
xdata	ENDS
;	COMDAT xdata
xdata	SEGMENT
$unwind$PMCCS_To_X_I DD 025053a19H
	DD	01132318H
	DD	0700c0029H
	DD	0500bH
	DD	imagerel __CxxFrameHandler3
	DD	imagerel $cppxdata$PMCCS_To_X_I
xdata	ENDS
;	COMDAT CONST
CONST	SEGMENT
PMCCS_To_X_I$rtcName$0 DB 065H
	DB	078H
	DB	00H
	ORG $+13
PMCCS_To_X_I$rtcVarDesc DD 028H
	DD	08H
	DQ	FLAT:PMCCS_To_X_I$rtcName$0
	ORG $+48
PMCCS_To_X_I$rtcFrameData DD 01H
	DD	00H
	DQ	FLAT:PMCCS_To_X_I$rtcVarDesc
$cppxdata$PMCCS_To_X_I DD 019930522H
	DD	02H
	DD	imagerel $stateUnwindMap$PMCCS_To_X_I
	DD	01H
	DD	imagerel $tryMap$PMCCS_To_X_I
	DD	06H
	DD	imagerel $ip2state$PMCCS_To_X_I
	DD	0128H
	DD	00H
	DD	00H
CONST	ENDS
;	COMDAT xdata
xdata	SEGMENT
$unwind$PMCCS_GetAllocatedMemorySize$catch$0 DD 031019H
	DD	0700c4210H
	DD	0500bH
	DD	imagerel __CxxFrameHandler3
	DD	imagerel $cppxdata$PMCCS_GetAllocatedMemorySize
xdata	ENDS
;	COMDAT xdata
xdata	SEGMENT
$ip2state$PMCCS_GetAllocatedMemorySize DD imagerel PMCCS_GetAllocatedMemorySize
	DD	0ffffffffH
	DD	imagerel PMCCS_GetAllocatedMemorySize+82
	DD	00H
	DD	imagerel PMCCS_GetAllocatedMemorySize+103
	DD	0ffffffffH
	DD	imagerel PMCCS_GetAllocatedMemorySize+109
	DD	00H
	DD	imagerel PMCCS_GetAllocatedMemorySize$catch$0+20
	DD	01H
	DD	imagerel PMCCS_GetAllocatedMemorySize$catch$0+35
	DD	00H
xdata	ENDS
;	COMDAT xdata
xdata	SEGMENT
$handlerMap$0$PMCCS_GetAllocatedMemorySize DD 09H
	DD	imagerel ??_R0?AVException@Internal@Core@Math@Palmtree@@@8
	DD	028H
	DD	imagerel PMCCS_GetAllocatedMemorySize$catch$0
	DD	048H
xdata	ENDS
;	COMDAT xdata
xdata	SEGMENT
$tryMap$PMCCS_GetAllocatedMemorySize DD 00H
	DD	00H
	DD	01H
	DD	01H
	DD	imagerel $handlerMap$0$PMCCS_GetAllocatedMemorySize
xdata	ENDS
;	COMDAT xdata
xdata	SEGMENT
$stateUnwindMap$PMCCS_GetAllocatedMemorySize DD 0ffffffffH
	DD	00H
	DD	0ffffffffH
	DD	00H
xdata	ENDS
;	COMDAT xdata
xdata	SEGMENT
$unwind$PMCCS_GetAllocatedMemorySize DD 025053519H
	DD	010e2313H
	DD	070070029H
	DD	05006H
	DD	imagerel __CxxFrameHandler3
	DD	imagerel $cppxdata$PMCCS_GetAllocatedMemorySize
xdata	ENDS
;	COMDAT CONST
CONST	SEGMENT
PMCCS_GetAllocatedMemorySize$rtcName$0 DB 065H
	DB	078H
	DB	00H
	ORG $+13
PMCCS_GetAllocatedMemorySize$rtcVarDesc DD 028H
	DD	08H
	DQ	FLAT:PMCCS_GetAllocatedMemorySize$rtcName$0
	ORG $+48
PMCCS_GetAllocatedMemorySize$rtcFrameData DD 01H
	DD	00H
	DQ	FLAT:PMCCS_GetAllocatedMemorySize$rtcVarDesc
$cppxdata$PMCCS_GetAllocatedMemorySize DD 019930522H
	DD	02H
	DD	imagerel $stateUnwindMap$PMCCS_GetAllocatedMemorySize
	DD	01H
	DD	imagerel $tryMap$PMCCS_GetAllocatedMemorySize
	DD	06H
	DD	imagerel $ip2state$PMCCS_GetAllocatedMemorySize
	DD	0128H
	DD	00H
	DD	00H
CONST	ENDS
;	COMDAT xdata
xdata	SEGMENT
$unwind$PMCCS_Clone_X$catch$0 DD 031019H
	DD	0700c4210H
	DD	0500bH
	DD	imagerel __CxxFrameHandler3
	DD	imagerel $cppxdata$PMCCS_Clone_X
xdata	ENDS
;	COMDAT xdata
xdata	SEGMENT
$ip2state$PMCCS_Clone_X DD imagerel PMCCS_Clone_X
	DD	0ffffffffH
	DD	imagerel PMCCS_Clone_X+87
	DD	00H
	DD	imagerel PMCCS_Clone_X+115
	DD	0ffffffffH
	DD	imagerel PMCCS_Clone_X+121
	DD	00H
	DD	imagerel PMCCS_Clone_X$catch$0+20
	DD	01H
	DD	imagerel PMCCS_Clone_X$catch$0+35
	DD	00H
xdata	ENDS
;	COMDAT xdata
xdata	SEGMENT
$handlerMap$0$PMCCS_Clone_X DD 09H
	DD	imagerel ??_R0?AVException@Internal@Core@Math@Palmtree@@@8
	DD	028H
	DD	imagerel PMCCS_Clone_X$catch$0
	DD	048H
xdata	ENDS
;	COMDAT xdata
xdata	SEGMENT
$tryMap$PMCCS_Clone_X DD 00H
	DD	00H
	DD	01H
	DD	01H
	DD	imagerel $handlerMap$0$PMCCS_Clone_X
xdata	ENDS
;	COMDAT xdata
xdata	SEGMENT
$stateUnwindMap$PMCCS_Clone_X DD 0ffffffffH
	DD	00H
	DD	0ffffffffH
	DD	00H
xdata	ENDS
;	COMDAT xdata
xdata	SEGMENT
$unwind$PMCCS_Clone_X DD 025053a19H
	DD	01132318H
	DD	0700c0029H
	DD	0500bH
	DD	imagerel __CxxFrameHandler3
	DD	imagerel $cppxdata$PMCCS_Clone_X
xdata	ENDS
;	COMDAT CONST
CONST	SEGMENT
PMCCS_Clone_X$rtcName$0 DB 065H
	DB	078H
	DB	00H
	ORG $+13
PMCCS_Clone_X$rtcVarDesc DD 028H
	DD	08H
	DQ	FLAT:PMCCS_Clone_X$rtcName$0
	ORG $+48
PMCCS_Clone_X$rtcFrameData DD 01H
	DD	00H
	DQ	FLAT:PMCCS_Clone_X$rtcVarDesc
$cppxdata$PMCCS_Clone_X DD 019930522H
	DD	02H
	DD	imagerel $stateUnwindMap$PMCCS_Clone_X
	DD	01H
	DD	imagerel $tryMap$PMCCS_Clone_X
	DD	06H
	DD	imagerel $ip2state$PMCCS_Clone_X
	DD	0128H
	DD	00H
	DD	00H
CONST	ENDS
;	COMDAT xdata
xdata	SEGMENT
$unwind$PMCCS_ToByteArray$catch$0 DD 031019H
	DD	0700c4210H
	DD	0500bH
	DD	imagerel __CxxFrameHandler3
	DD	imagerel $cppxdata$PMCCS_ToByteArray
xdata	ENDS
;	COMDAT xdata
xdata	SEGMENT
$ip2state$PMCCS_ToByteArray DD imagerel PMCCS_ToByteArray
	DD	0ffffffffH
	DD	imagerel PMCCS_ToByteArray+97
	DD	00H
	DD	imagerel PMCCS_ToByteArray+165
	DD	0ffffffffH
	DD	imagerel PMCCS_ToByteArray+171
	DD	00H
	DD	imagerel PMCCS_ToByteArray$catch$0+20
	DD	01H
	DD	imagerel PMCCS_ToByteArray$catch$0+35
	DD	00H
xdata	ENDS
;	COMDAT xdata
xdata	SEGMENT
$handlerMap$0$PMCCS_ToByteArray DD 09H
	DD	imagerel ??_R0?AVException@Internal@Core@Math@Palmtree@@@8
	DD	048H
	DD	imagerel PMCCS_ToByteArray$catch$0
	DD	048H
xdata	ENDS
;	COMDAT xdata
xdata	SEGMENT
$tryMap$PMCCS_ToByteArray DD 00H
	DD	00H
	DD	01H
	DD	01H
	DD	imagerel $handlerMap$0$PMCCS_ToByteArray
xdata	ENDS
;	COMDAT xdata
xdata	SEGMENT
$stateUnwindMap$PMCCS_ToByteArray DD 0ffffffffH
	DD	00H
	DD	0ffffffffH
	DD	00H
xdata	ENDS
;	COMDAT xdata
xdata	SEGMENT
$unwind$PMCCS_ToByteArray DD 025054419H
	DD	011d2322H
	DD	07016002dH
	DD	05015H
	DD	imagerel __CxxFrameHandler3
	DD	imagerel $cppxdata$PMCCS_ToByteArray
xdata	ENDS
;	COMDAT CONST
CONST	SEGMENT
PMCCS_ToByteArray$rtcName$0 DB 065H
	DB	078H
	DB	00H
	ORG $+13
PMCCS_ToByteArray$rtcVarDesc DD 048H
	DD	08H
	DQ	FLAT:PMCCS_ToByteArray$rtcName$0
	ORG $+48
PMCCS_ToByteArray$rtcFrameData DD 01H
	DD	00H
	DQ	FLAT:PMCCS_ToByteArray$rtcVarDesc
$cppxdata$PMCCS_ToByteArray DD 019930522H
	DD	02H
	DD	imagerel $stateUnwindMap$PMCCS_ToByteArray
	DD	01H
	DD	imagerel $tryMap$PMCCS_ToByteArray
	DD	06H
	DD	imagerel $ip2state$PMCCS_ToByteArray
	DD	0148H
	DD	00H
	DD	00H
CONST	ENDS
;	COMDAT xdata
xdata	SEGMENT
$unwind$PMCCS_FromByteArray$catch$0 DD 031019H
	DD	0700c4210H
	DD	0500bH
	DD	imagerel __CxxFrameHandler3
	DD	imagerel $cppxdata$PMCCS_FromByteArray
xdata	ENDS
;	COMDAT xdata
xdata	SEGMENT
$ip2state$PMCCS_FromByteArray DD imagerel PMCCS_FromByteArray
	DD	0ffffffffH
	DD	imagerel PMCCS_FromByteArray+91
	DD	00H
	DD	imagerel PMCCS_FromByteArray+129
	DD	0ffffffffH
	DD	imagerel PMCCS_FromByteArray+135
	DD	00H
	DD	imagerel PMCCS_FromByteArray$catch$0+20
	DD	01H
	DD	imagerel PMCCS_FromByteArray$catch$0+35
	DD	00H
xdata	ENDS
;	COMDAT xdata
xdata	SEGMENT
$handlerMap$0$PMCCS_FromByteArray DD 09H
	DD	imagerel ??_R0?AVException@Internal@Core@Math@Palmtree@@@8
	DD	028H
	DD	imagerel PMCCS_FromByteArray$catch$0
	DD	048H
xdata	ENDS
;	COMDAT xdata
xdata	SEGMENT
$tryMap$PMCCS_FromByteArray DD 00H
	DD	00H
	DD	01H
	DD	01H
	DD	imagerel $handlerMap$0$PMCCS_FromByteArray
xdata	ENDS
;	COMDAT xdata
xdata	SEGMENT
$stateUnwindMap$PMCCS_FromByteArray DD 0ffffffffH
	DD	00H
	DD	0ffffffffH
	DD	00H
xdata	ENDS
;	COMDAT xdata
xdata	SEGMENT
$unwind$PMCCS_FromByteArray DD 025053e19H
	DD	0117231cH
	DD	070100029H
	DD	0500fH
	DD	imagerel __CxxFrameHandler3
	DD	imagerel $cppxdata$PMCCS_FromByteArray
xdata	ENDS
;	COMDAT CONST
CONST	SEGMENT
PMCCS_FromByteArray$rtcName$0 DB 065H
	DB	078H
	DB	00H
	ORG $+13
PMCCS_FromByteArray$rtcVarDesc DD 028H
	DD	08H
	DQ	FLAT:PMCCS_FromByteArray$rtcName$0
	ORG $+48
PMCCS_FromByteArray$rtcFrameData DD 01H
	DD	00H
	DQ	FLAT:PMCCS_FromByteArray$rtcVarDesc
$cppxdata$PMCCS_FromByteArray DD 019930522H
	DD	02H
	DD	imagerel $stateUnwindMap$PMCCS_FromByteArray
	DD	01H
	DD	imagerel $tryMap$PMCCS_FromByteArray
	DD	06H
	DD	imagerel $ip2state$PMCCS_FromByteArray
	DD	0128H
	DD	00H
	DD	00H
CONST	ENDS
;	COMDAT xdata
xdata	SEGMENT
$unwind$PMCCS_GetConstantValue_I$catch$0 DD 031019H
	DD	0700c4210H
	DD	0500bH
	DD	imagerel __CxxFrameHandler3
	DD	imagerel $cppxdata$PMCCS_GetConstantValue_I
xdata	ENDS
;	COMDAT xdata
xdata	SEGMENT
$ip2state$PMCCS_GetConstantValue_I DD imagerel PMCCS_GetConstantValue_I
	DD	0ffffffffH
	DD	imagerel PMCCS_GetConstantValue_I+85
	DD	00H
	DD	imagerel PMCCS_GetConstantValue_I+112
	DD	0ffffffffH
	DD	imagerel PMCCS_GetConstantValue_I+118
	DD	00H
	DD	imagerel PMCCS_GetConstantValue_I$catch$0+20
	DD	01H
	DD	imagerel PMCCS_GetConstantValue_I$catch$0+35
	DD	00H
xdata	ENDS
;	COMDAT xdata
xdata	SEGMENT
$handlerMap$0$PMCCS_GetConstantValue_I DD 09H
	DD	imagerel ??_R0?AVException@Internal@Core@Math@Palmtree@@@8
	DD	028H
	DD	imagerel PMCCS_GetConstantValue_I$catch$0
	DD	048H
xdata	ENDS
;	COMDAT xdata
xdata	SEGMENT
$tryMap$PMCCS_GetConstantValue_I DD 00H
	DD	00H
	DD	01H
	DD	01H
	DD	imagerel $handlerMap$0$PMCCS_GetConstantValue_I
xdata	ENDS
;	COMDAT xdata
xdata	SEGMENT
$stateUnwindMap$PMCCS_GetConstantValue_I DD 0ffffffffH
	DD	00H
	DD	0ffffffffH
	DD	00H
xdata	ENDS
;	COMDAT xdata
xdata	SEGMENT
$unwind$PMCCS_GetConstantValue_I DD 025053819H
	DD	01122317H
	DD	0700b0029H
	DD	0500aH
	DD	imagerel __CxxFrameHandler3
	DD	imagerel $cppxdata$PMCCS_GetConstantValue_I
xdata	ENDS
;	COMDAT CONST
CONST	SEGMENT
PMCCS_GetConstantValue_I$rtcName$0 DB 065H
	DB	078H
	DB	00H
	ORG $+13
PMCCS_GetConstantValue_I$rtcVarDesc DD 028H
	DD	08H
	DQ	FLAT:PMCCS_GetConstantValue_I$rtcName$0
	ORG $+48
PMCCS_GetConstantValue_I$rtcFrameData DD 01H
	DD	00H
	DQ	FLAT:PMCCS_GetConstantValue_I$rtcVarDesc
$cppxdata$PMCCS_GetConstantValue_I DD 019930522H
	DD	02H
	DD	imagerel $stateUnwindMap$PMCCS_GetConstantValue_I
	DD	01H
	DD	imagerel $tryMap$PMCCS_GetConstantValue_I
	DD	06H
	DD	imagerel $ip2state$PMCCS_GetConstantValue_I
	DD	0128H
	DD	00H
	DD	00H
CONST	ENDS
;	COMDAT xdata
xdata	SEGMENT
$unwind$PMCCS_Dispose$catch$0 DD 031019H
	DD	0700c4210H
	DD	0500bH
	DD	imagerel __CxxFrameHandler3
	DD	imagerel $cppxdata$PMCCS_Dispose
xdata	ENDS
;	COMDAT xdata
xdata	SEGMENT
$ip2state$PMCCS_Dispose DD imagerel PMCCS_Dispose
	DD	0ffffffffH
	DD	imagerel PMCCS_Dispose+82
	DD	00H
	DD	imagerel PMCCS_Dispose+100
	DD	0ffffffffH
	DD	imagerel PMCCS_Dispose+106
	DD	00H
	DD	imagerel PMCCS_Dispose$catch$0+20
	DD	01H
	DD	imagerel PMCCS_Dispose$catch$0+35
	DD	00H
xdata	ENDS
;	COMDAT xdata
xdata	SEGMENT
$handlerMap$0$PMCCS_Dispose DD 09H
	DD	imagerel ??_R0?AVException@Internal@Core@Math@Palmtree@@@8
	DD	028H
	DD	imagerel PMCCS_Dispose$catch$0
	DD	048H
xdata	ENDS
;	COMDAT xdata
xdata	SEGMENT
$tryMap$PMCCS_Dispose DD 00H
	DD	00H
	DD	01H
	DD	01H
	DD	imagerel $handlerMap$0$PMCCS_Dispose
xdata	ENDS
;	COMDAT xdata
xdata	SEGMENT
$stateUnwindMap$PMCCS_Dispose DD 0ffffffffH
	DD	00H
	DD	0ffffffffH
	DD	00H
xdata	ENDS
;	COMDAT xdata
xdata	SEGMENT
$unwind$PMCCS_Dispose DD 025053519H
	DD	010e2313H
	DD	070070029H
	DD	05006H
	DD	imagerel __CxxFrameHandler3
	DD	imagerel $cppxdata$PMCCS_Dispose
xdata	ENDS
;	COMDAT CONST
CONST	SEGMENT
PMCCS_Dispose$rtcName$0 DB 065H
	DB	078H
	DB	00H
	ORG $+13
PMCCS_Dispose$rtcVarDesc DD 028H
	DD	08H
	DQ	FLAT:PMCCS_Dispose$rtcName$0
	ORG $+48
PMCCS_Dispose$rtcFrameData DD 01H
	DD	00H
	DQ	FLAT:PMCCS_Dispose$rtcVarDesc
$cppxdata$PMCCS_Dispose DD 019930522H
	DD	02H
	DD	imagerel $stateUnwindMap$PMCCS_Dispose
	DD	01H
	DD	imagerel $tryMap$PMCCS_Dispose
	DD	06H
	DD	imagerel $ip2state$PMCCS_Dispose
	DD	0128H
	DD	00H
	DD	00H
CONST	ENDS
;	COMDAT xdata
xdata	SEGMENT
$unwind$PMCCS_From_L$catch$0 DD 031019H
	DD	0700c4210H
	DD	0500bH
	DD	imagerel __CxxFrameHandler3
	DD	imagerel $cppxdata$PMCCS_From_L
xdata	ENDS
;	COMDAT xdata
xdata	SEGMENT
$ip2state$PMCCS_From_L DD imagerel PMCCS_From_L
	DD	0ffffffffH
	DD	imagerel PMCCS_From_L+87
	DD	00H
	DD	imagerel PMCCS_From_L+115
	DD	0ffffffffH
	DD	imagerel PMCCS_From_L+121
	DD	00H
	DD	imagerel PMCCS_From_L$catch$0+20
	DD	01H
	DD	imagerel PMCCS_From_L$catch$0+35
	DD	00H
xdata	ENDS
;	COMDAT xdata
xdata	SEGMENT
$handlerMap$0$PMCCS_From_L DD 09H
	DD	imagerel ??_R0?AVException@Internal@Core@Math@Palmtree@@@8
	DD	028H
	DD	imagerel PMCCS_From_L$catch$0
	DD	048H
xdata	ENDS
;	COMDAT xdata
xdata	SEGMENT
$tryMap$PMCCS_From_L DD 00H
	DD	00H
	DD	01H
	DD	01H
	DD	imagerel $handlerMap$0$PMCCS_From_L
xdata	ENDS
;	COMDAT xdata
xdata	SEGMENT
$stateUnwindMap$PMCCS_From_L DD 0ffffffffH
	DD	00H
	DD	0ffffffffH
	DD	00H
xdata	ENDS
;	COMDAT xdata
xdata	SEGMENT
$unwind$PMCCS_From_L DD 025053a19H
	DD	01132318H
	DD	0700c0029H
	DD	0500bH
	DD	imagerel __CxxFrameHandler3
	DD	imagerel $cppxdata$PMCCS_From_L
xdata	ENDS
;	COMDAT CONST
CONST	SEGMENT
PMCCS_From_L$rtcName$0 DB 065H
	DB	078H
	DB	00H
	ORG $+13
PMCCS_From_L$rtcVarDesc DD 028H
	DD	08H
	DQ	FLAT:PMCCS_From_L$rtcName$0
	ORG $+48
PMCCS_From_L$rtcFrameData DD 01H
	DD	00H
	DQ	FLAT:PMCCS_From_L$rtcVarDesc
$cppxdata$PMCCS_From_L DD 019930522H
	DD	02H
	DD	imagerel $stateUnwindMap$PMCCS_From_L
	DD	01H
	DD	imagerel $tryMap$PMCCS_From_L
	DD	06H
	DD	imagerel $ip2state$PMCCS_From_L
	DD	0128H
	DD	00H
	DD	00H
CONST	ENDS
;	COMDAT xdata
xdata	SEGMENT
$unwind$PMCCS_From_I$catch$0 DD 031019H
	DD	0700c4210H
	DD	0500bH
	DD	imagerel __CxxFrameHandler3
	DD	imagerel $cppxdata$PMCCS_From_I
xdata	ENDS
;	COMDAT xdata
xdata	SEGMENT
$ip2state$PMCCS_From_I DD imagerel PMCCS_From_I
	DD	0ffffffffH
	DD	imagerel PMCCS_From_I+85
	DD	00H
	DD	imagerel PMCCS_From_I+112
	DD	0ffffffffH
	DD	imagerel PMCCS_From_I+118
	DD	00H
	DD	imagerel PMCCS_From_I$catch$0+20
	DD	01H
	DD	imagerel PMCCS_From_I$catch$0+35
	DD	00H
xdata	ENDS
;	COMDAT xdata
xdata	SEGMENT
$handlerMap$0$PMCCS_From_I DD 09H
	DD	imagerel ??_R0?AVException@Internal@Core@Math@Palmtree@@@8
	DD	028H
	DD	imagerel PMCCS_From_I$catch$0
	DD	048H
xdata	ENDS
;	COMDAT xdata
xdata	SEGMENT
$tryMap$PMCCS_From_I DD 00H
	DD	00H
	DD	01H
	DD	01H
	DD	imagerel $handlerMap$0$PMCCS_From_I
xdata	ENDS
;	COMDAT xdata
xdata	SEGMENT
$stateUnwindMap$PMCCS_From_I DD 0ffffffffH
	DD	00H
	DD	0ffffffffH
	DD	00H
xdata	ENDS
;	COMDAT xdata
xdata	SEGMENT
$unwind$PMCCS_From_I DD 025053819H
	DD	01122317H
	DD	0700b0029H
	DD	0500aH
	DD	imagerel __CxxFrameHandler3
	DD	imagerel $cppxdata$PMCCS_From_I
xdata	ENDS
;	COMDAT CONST
CONST	SEGMENT
PMCCS_From_I$rtcName$0 DB 065H
	DB	078H
	DB	00H
	ORG $+13
PMCCS_From_I$rtcVarDesc DD 028H
	DD	08H
	DQ	FLAT:PMCCS_From_I$rtcName$0
	ORG $+48
PMCCS_From_I$rtcFrameData DD 01H
	DD	00H
	DQ	FLAT:PMCCS_From_I$rtcVarDesc
$cppxdata$PMCCS_From_I DD 019930522H
	DD	02H
	DD	imagerel $stateUnwindMap$PMCCS_From_I
	DD	01H
	DD	imagerel $tryMap$PMCCS_From_I
	DD	06H
	DD	imagerel $ip2state$PMCCS_From_I
	DD	0128H
	DD	00H
	DD	00H
CONST	ENDS
;	COMDAT xdata
xdata	SEGMENT
$unwind$PMCCS_GetStatisticsInfo DD 025052a01H
	DD	010e2313H
	DD	07007001dH
	DD	05006H
xdata	ENDS
;	COMDAT xdata
xdata	SEGMENT
$unwind$PMCCS_GET_HASH_CODE$catch$0 DD 031019H
	DD	0700c4210H
	DD	0500bH
	DD	imagerel __CxxFrameHandler3
	DD	imagerel $cppxdata$PMCCS_GET_HASH_CODE
xdata	ENDS
;	COMDAT xdata
xdata	SEGMENT
$ip2state$PMCCS_GET_HASH_CODE DD imagerel PMCCS_GET_HASH_CODE
	DD	0ffffffffH
	DD	imagerel PMCCS_GET_HASH_CODE+104
	DD	00H
	DD	imagerel PMCCS_GET_HASH_CODE+128
	DD	0ffffffffH
	DD	imagerel PMCCS_GET_HASH_CODE+134
	DD	00H
	DD	imagerel PMCCS_GET_HASH_CODE$catch$0+20
	DD	01H
	DD	imagerel PMCCS_GET_HASH_CODE$catch$0+35
	DD	00H
xdata	ENDS
;	COMDAT xdata
xdata	SEGMENT
$handlerMap$0$PMCCS_GET_HASH_CODE DD 09H
	DD	imagerel ??_R0?AVException@Internal@Core@Math@Palmtree@@@8
	DD	028H
	DD	imagerel PMCCS_GET_HASH_CODE$catch$0
	DD	048H
xdata	ENDS
;	COMDAT xdata
xdata	SEGMENT
$tryMap$PMCCS_GET_HASH_CODE DD 00H
	DD	00H
	DD	01H
	DD	01H
	DD	imagerel $handlerMap$0$PMCCS_GET_HASH_CODE
xdata	ENDS
;	COMDAT xdata
xdata	SEGMENT
$stateUnwindMap$PMCCS_GET_HASH_CODE DD 0ffffffffH
	DD	00H
	DD	0ffffffffH
	DD	00H
xdata	ENDS
;	COMDAT xdata
xdata	SEGMENT
$unwind$PMCCS_GET_HASH_CODE DD 025053a19H
	DD	01132318H
	DD	0700c0029H
	DD	0500bH
	DD	imagerel __CxxFrameHandler3
	DD	imagerel $cppxdata$PMCCS_GET_HASH_CODE
xdata	ENDS
;	COMDAT CONST
CONST	SEGMENT
PMCCS_GET_HASH_CODE$rtcName$0 DB 065H
	DB	078H
	DB	00H
	ORG $+13
PMCCS_GET_HASH_CODE$rtcVarDesc DD 028H
	DD	08H
	DQ	FLAT:PMCCS_GET_HASH_CODE$rtcName$0
	ORG $+48
PMCCS_GET_HASH_CODE$rtcFrameData DD 01H
	DD	00H
	DQ	FLAT:PMCCS_GET_HASH_CODE$rtcVarDesc
$cppxdata$PMCCS_GET_HASH_CODE DD 019930522H
	DD	02H
	DD	imagerel $stateUnwindMap$PMCCS_GET_HASH_CODE
	DD	01H
	DD	imagerel $tryMap$PMCCS_GET_HASH_CODE
	DD	06H
	DD	imagerel $ip2state$PMCCS_GET_HASH_CODE
	DD	0128H
	DD	00H
	DD	00H
CONST	ENDS
;	COMDAT xdata
xdata	SEGMENT
$unwind$PMCCS_IS_ZERO$catch$0 DD 031019H
	DD	0700c4210H
	DD	0500bH
	DD	imagerel __CxxFrameHandler3
	DD	imagerel $cppxdata$PMCCS_IS_ZERO
xdata	ENDS
;	COMDAT xdata
xdata	SEGMENT
$ip2state$PMCCS_IS_ZERO DD imagerel PMCCS_IS_ZERO
	DD	0ffffffffH
	DD	imagerel PMCCS_IS_ZERO+104
	DD	00H
	DD	imagerel PMCCS_IS_ZERO+132
	DD	0ffffffffH
	DD	imagerel PMCCS_IS_ZERO+138
	DD	00H
	DD	imagerel PMCCS_IS_ZERO$catch$0+20
	DD	01H
	DD	imagerel PMCCS_IS_ZERO$catch$0+35
	DD	00H
xdata	ENDS
;	COMDAT xdata
xdata	SEGMENT
$handlerMap$0$PMCCS_IS_ZERO DD 09H
	DD	imagerel ??_R0?AVException@Internal@Core@Math@Palmtree@@@8
	DD	028H
	DD	imagerel PMCCS_IS_ZERO$catch$0
	DD	048H
xdata	ENDS
;	COMDAT xdata
xdata	SEGMENT
$tryMap$PMCCS_IS_ZERO DD 00H
	DD	00H
	DD	01H
	DD	01H
	DD	imagerel $handlerMap$0$PMCCS_IS_ZERO
xdata	ENDS
;	COMDAT xdata
xdata	SEGMENT
$stateUnwindMap$PMCCS_IS_ZERO DD 0ffffffffH
	DD	00H
	DD	0ffffffffH
	DD	00H
xdata	ENDS
;	COMDAT xdata
xdata	SEGMENT
$unwind$PMCCS_IS_ZERO DD 025053a19H
	DD	01132318H
	DD	0700c0029H
	DD	0500bH
	DD	imagerel __CxxFrameHandler3
	DD	imagerel $cppxdata$PMCCS_IS_ZERO
xdata	ENDS
;	COMDAT CONST
CONST	SEGMENT
PMCCS_IS_ZERO$rtcName$0 DB 065H
	DB	078H
	DB	00H
	ORG $+13
PMCCS_IS_ZERO$rtcVarDesc DD 028H
	DD	08H
	DQ	FLAT:PMCCS_IS_ZERO$rtcName$0
	ORG $+48
PMCCS_IS_ZERO$rtcFrameData DD 01H
	DD	00H
	DQ	FLAT:PMCCS_IS_ZERO$rtcVarDesc
$cppxdata$PMCCS_IS_ZERO DD 019930522H
	DD	02H
	DD	imagerel $stateUnwindMap$PMCCS_IS_ZERO
	DD	01H
	DD	imagerel $tryMap$PMCCS_IS_ZERO
	DD	06H
	DD	imagerel $ip2state$PMCCS_IS_ZERO
	DD	0128H
	DD	00H
	DD	00H
CONST	ENDS
;	COMDAT xdata
xdata	SEGMENT
$unwind$PMCCS_IS_POWER_OF_TWO$catch$0 DD 031019H
	DD	0700c4210H
	DD	0500bH
	DD	imagerel __CxxFrameHandler3
	DD	imagerel $cppxdata$PMCCS_IS_POWER_OF_TWO
xdata	ENDS
;	COMDAT xdata
xdata	SEGMENT
$ip2state$PMCCS_IS_POWER_OF_TWO DD imagerel PMCCS_IS_POWER_OF_TWO
	DD	0ffffffffH
	DD	imagerel PMCCS_IS_POWER_OF_TWO+104
	DD	00H
	DD	imagerel PMCCS_IS_POWER_OF_TWO+135
	DD	0ffffffffH
	DD	imagerel PMCCS_IS_POWER_OF_TWO+141
	DD	00H
	DD	imagerel PMCCS_IS_POWER_OF_TWO$catch$0+20
	DD	01H
	DD	imagerel PMCCS_IS_POWER_OF_TWO$catch$0+35
	DD	00H
xdata	ENDS
;	COMDAT xdata
xdata	SEGMENT
$handlerMap$0$PMCCS_IS_POWER_OF_TWO DD 09H
	DD	imagerel ??_R0?AVException@Internal@Core@Math@Palmtree@@@8
	DD	028H
	DD	imagerel PMCCS_IS_POWER_OF_TWO$catch$0
	DD	048H
xdata	ENDS
;	COMDAT xdata
xdata	SEGMENT
$tryMap$PMCCS_IS_POWER_OF_TWO DD 00H
	DD	00H
	DD	01H
	DD	01H
	DD	imagerel $handlerMap$0$PMCCS_IS_POWER_OF_TWO
xdata	ENDS
;	COMDAT xdata
xdata	SEGMENT
$stateUnwindMap$PMCCS_IS_POWER_OF_TWO DD 0ffffffffH
	DD	00H
	DD	0ffffffffH
	DD	00H
xdata	ENDS
;	COMDAT xdata
xdata	SEGMENT
$unwind$PMCCS_IS_POWER_OF_TWO DD 025053a19H
	DD	01132318H
	DD	0700c0029H
	DD	0500bH
	DD	imagerel __CxxFrameHandler3
	DD	imagerel $cppxdata$PMCCS_IS_POWER_OF_TWO
xdata	ENDS
;	COMDAT CONST
CONST	SEGMENT
PMCCS_IS_POWER_OF_TWO$rtcName$0 DB 065H
	DB	078H
	DB	00H
	ORG $+13
PMCCS_IS_POWER_OF_TWO$rtcVarDesc DD 028H
	DD	08H
	DQ	FLAT:PMCCS_IS_POWER_OF_TWO$rtcName$0
	ORG $+48
PMCCS_IS_POWER_OF_TWO$rtcFrameData DD 01H
	DD	00H
	DQ	FLAT:PMCCS_IS_POWER_OF_TWO$rtcVarDesc
$cppxdata$PMCCS_IS_POWER_OF_TWO DD 019930522H
	DD	02H
	DD	imagerel $stateUnwindMap$PMCCS_IS_POWER_OF_TWO
	DD	01H
	DD	imagerel $tryMap$PMCCS_IS_POWER_OF_TWO
	DD	06H
	DD	imagerel $ip2state$PMCCS_IS_POWER_OF_TWO
	DD	0128H
	DD	00H
	DD	00H
CONST	ENDS
;	COMDAT xdata
xdata	SEGMENT
$unwind$PMCCS_IS_ONE$catch$0 DD 031019H
	DD	0700c4210H
	DD	0500bH
	DD	imagerel __CxxFrameHandler3
	DD	imagerel $cppxdata$PMCCS_IS_ONE
xdata	ENDS
;	COMDAT xdata
xdata	SEGMENT
$ip2state$PMCCS_IS_ONE DD imagerel PMCCS_IS_ONE
	DD	0ffffffffH
	DD	imagerel PMCCS_IS_ONE+104
	DD	00H
	DD	imagerel PMCCS_IS_ONE+134
	DD	0ffffffffH
	DD	imagerel PMCCS_IS_ONE+140
	DD	00H
	DD	imagerel PMCCS_IS_ONE$catch$0+20
	DD	01H
	DD	imagerel PMCCS_IS_ONE$catch$0+35
	DD	00H
xdata	ENDS
;	COMDAT xdata
xdata	SEGMENT
$handlerMap$0$PMCCS_IS_ONE DD 09H
	DD	imagerel ??_R0?AVException@Internal@Core@Math@Palmtree@@@8
	DD	028H
	DD	imagerel PMCCS_IS_ONE$catch$0
	DD	048H
xdata	ENDS
;	COMDAT xdata
xdata	SEGMENT
$tryMap$PMCCS_IS_ONE DD 00H
	DD	00H
	DD	01H
	DD	01H
	DD	imagerel $handlerMap$0$PMCCS_IS_ONE
xdata	ENDS
;	COMDAT xdata
xdata	SEGMENT
$stateUnwindMap$PMCCS_IS_ONE DD 0ffffffffH
	DD	00H
	DD	0ffffffffH
	DD	00H
xdata	ENDS
;	COMDAT xdata
xdata	SEGMENT
$unwind$PMCCS_IS_ONE DD 025053a19H
	DD	01132318H
	DD	0700c0029H
	DD	0500bH
	DD	imagerel __CxxFrameHandler3
	DD	imagerel $cppxdata$PMCCS_IS_ONE
xdata	ENDS
;	COMDAT CONST
CONST	SEGMENT
PMCCS_IS_ONE$rtcName$0 DB 065H
	DB	078H
	DB	00H
	ORG $+13
PMCCS_IS_ONE$rtcVarDesc DD 028H
	DD	08H
	DQ	FLAT:PMCCS_IS_ONE$rtcName$0
	ORG $+48
PMCCS_IS_ONE$rtcFrameData DD 01H
	DD	00H
	DQ	FLAT:PMCCS_IS_ONE$rtcVarDesc
$cppxdata$PMCCS_IS_ONE DD 019930522H
	DD	02H
	DD	imagerel $stateUnwindMap$PMCCS_IS_ONE
	DD	01H
	DD	imagerel $tryMap$PMCCS_IS_ONE
	DD	06H
	DD	imagerel $ip2state$PMCCS_IS_ONE
	DD	0128H
	DD	00H
	DD	00H
CONST	ENDS
;	COMDAT xdata
xdata	SEGMENT
$unwind$PMCCS_IS_EVEN$catch$0 DD 031019H
	DD	0700c4210H
	DD	0500bH
	DD	imagerel __CxxFrameHandler3
	DD	imagerel $cppxdata$PMCCS_IS_EVEN
xdata	ENDS
;	COMDAT xdata
xdata	SEGMENT
$ip2state$PMCCS_IS_EVEN DD imagerel PMCCS_IS_EVEN
	DD	0ffffffffH
	DD	imagerel PMCCS_IS_EVEN+104
	DD	00H
	DD	imagerel PMCCS_IS_EVEN+135
	DD	0ffffffffH
	DD	imagerel PMCCS_IS_EVEN+141
	DD	00H
	DD	imagerel PMCCS_IS_EVEN$catch$0+20
	DD	01H
	DD	imagerel PMCCS_IS_EVEN$catch$0+35
	DD	00H
xdata	ENDS
;	COMDAT xdata
xdata	SEGMENT
$handlerMap$0$PMCCS_IS_EVEN DD 09H
	DD	imagerel ??_R0?AVException@Internal@Core@Math@Palmtree@@@8
	DD	028H
	DD	imagerel PMCCS_IS_EVEN$catch$0
	DD	048H
xdata	ENDS
;	COMDAT xdata
xdata	SEGMENT
$tryMap$PMCCS_IS_EVEN DD 00H
	DD	00H
	DD	01H
	DD	01H
	DD	imagerel $handlerMap$0$PMCCS_IS_EVEN
xdata	ENDS
;	COMDAT xdata
xdata	SEGMENT
$stateUnwindMap$PMCCS_IS_EVEN DD 0ffffffffH
	DD	00H
	DD	0ffffffffH
	DD	00H
xdata	ENDS
;	COMDAT xdata
xdata	SEGMENT
$unwind$PMCCS_IS_EVEN DD 025053a19H
	DD	01132318H
	DD	0700c0029H
	DD	0500bH
	DD	imagerel __CxxFrameHandler3
	DD	imagerel $cppxdata$PMCCS_IS_EVEN
xdata	ENDS
;	COMDAT CONST
CONST	SEGMENT
PMCCS_IS_EVEN$rtcName$0 DB 065H
	DB	078H
	DB	00H
	ORG $+13
PMCCS_IS_EVEN$rtcVarDesc DD 028H
	DD	08H
	DQ	FLAT:PMCCS_IS_EVEN$rtcName$0
	ORG $+48
PMCCS_IS_EVEN$rtcFrameData DD 01H
	DD	00H
	DQ	FLAT:PMCCS_IS_EVEN$rtcVarDesc
$cppxdata$PMCCS_IS_EVEN DD 019930522H
	DD	02H
	DD	imagerel $stateUnwindMap$PMCCS_IS_EVEN
	DD	01H
	DD	imagerel $tryMap$PMCCS_IS_EVEN
	DD	06H
	DD	imagerel $ip2state$PMCCS_IS_EVEN
	DD	0128H
	DD	00H
	DD	00H
CONST	ENDS
;	COMDAT xdata
xdata	SEGMENT
$unwind$PMCCS_GetConfigurationSettings DD 025053901H
	DD	011d2322H
	DD	07016001dH
	DD	05015H
xdata	ENDS
;	COMDAT xdata
xdata	SEGMENT
$unwind$PMCCS_UINT_Initialize DD 025052a01H
	DD	010e2313H
	DD	070070021H
	DD	05006H
xdata	ENDS
;	COMDAT xdata
xdata	SEGMENT
$ip2state$?GetStatusCode@Exception@Internal@Core@Math@Palmtree@@QEBAHXZ DD imagerel ?GetStatusCode@Exception@Internal@Core@Math@Palmtree@@QEBAHXZ
	DD	0ffffffffH
xdata	ENDS
;	COMDAT CONST
CONST	SEGMENT
$cppxdata$?GetStatusCode@Exception@Internal@Core@Math@Palmtree@@QEBAHXZ DD 019930522H
	DD	00H
	DD	00H
	DD	00H
	DD	00H
	DD	01H
	DD	imagerel $ip2state$?GetStatusCode@Exception@Internal@Core@Math@Palmtree@@QEBAHXZ
	DD	0e8H
	DD	00H
	DD	04H
CONST	ENDS
;	COMDAT xdata
xdata	SEGMENT
$unwind$?GetStatusCode@Exception@Internal@Core@Math@Palmtree@@QEBAHXZ DD 025053519H
	DD	010e2313H
	DD	070070021H
	DD	05006H
	DD	imagerel __CxxFrameHandler3
	DD	imagerel $cppxdata$?GetStatusCode@Exception@Internal@Core@Math@Palmtree@@QEBAHXZ
xdata	ENDS
; Function compile flags: /Odt
;	COMDAT __JustMyCode_Default
_TEXT	SEGMENT
__JustMyCode_Default PROC				; COMDAT
  00000	c2 00 00	 ret	 0
__JustMyCode_Default ENDP
_TEXT	ENDS
; Function compile flags: /Odtp /RTCsu /ZI
; File z:\sources\lunor\repos\rougemeilland\palmtree.math.core.uint\palmtree.math.core.uint\pmc_interface_csharp.cpp
;	COMDAT PMCCS_Floor_Log10
_TEXT	SEGMENT
ex$4 = 8
$T5 = 228
$T6 = 264
v$ = 320
r$ = 328
PMCCS_Floor_Log10 PROC					; COMDAT

; 1286 :     {

$LN10:
  00000	48 89 54 24 10	 mov	 QWORD PTR [rsp+16], rdx
  00005	48 89 4c 24 08	 mov	 QWORD PTR [rsp+8], rcx
  0000a	55		 push	 rbp
  0000b	57		 push	 rdi
  0000c	48 81 ec 48 01
	00 00		 sub	 rsp, 328		; 00000148H
  00013	48 8d 6c 24 20	 lea	 rbp, QWORD PTR [rsp+32]
  00018	48 8b fc	 mov	 rdi, rsp
  0001b	b9 52 00 00 00	 mov	 ecx, 82			; 00000052H
  00020	b8 cc cc cc cc	 mov	 eax, -858993460		; ccccccccH
  00025	f3 ab		 rep stosd
  00027	48 8b 8c 24 68
	01 00 00	 mov	 rcx, QWORD PTR [rsp+360]
  0002f	48 c7 85 08 01
	00 00 fe ff ff
	ff		 mov	 QWORD PTR $T6[rbp], -2
  0003a	48 8d 0d 00 00
	00 00		 lea	 rcx, OFFSET FLAT:__C21BA676_pmc_interface_csharp@cpp
  00041	e8 00 00 00 00	 call	 __CheckForDebuggerJustMyCode

; 1287 :         if (r == nullptr)

  00046	48 83 bd 48 01
	00 00 00	 cmp	 QWORD PTR r$[rbp], 0
  0004e	75 07		 jne	 SHORT $LN2@PMCCS_Floo

; 1288 :             return (PMC_STATUS_ARGUMENT_NULL_ERROR);

  00050	b8 fe ff ff ff	 mov	 eax, -2
  00055	eb 21		 jmp	 SHORT $LN1@PMCCS_Floo
$LN2@PMCCS_Floo:

; 1289 :         try
; 1290 :         {
; 1291 :             *r = PMC_Floor_Log10(v);

  00057	48 8b 8d 40 01
	00 00		 mov	 rcx, QWORD PTR v$[rbp]
  0005e	e8 00 00 00 00	 call	 ?PMC_Floor_Log10@Internal@Core@Math@Palmtree@@YAIPEAU__tag_PMC_HANDLE_UINT@1234@@Z ; Palmtree::Math::Core::Internal::PMC_Floor_Log10
  00063	48 8b 8d 48 01
	00 00		 mov	 rcx, QWORD PTR r$[rbp]
  0006a	89 01		 mov	 DWORD PTR [rcx], eax

; 1292 :             return (PMC_STATUS_OK);

  0006c	33 c0		 xor	 eax, eax
  0006e	eb 08		 jmp	 SHORT $LN1@PMCCS_Floo
__tryend$PMCCS_Floor_Log10$1:
  00070	eb 06		 jmp	 SHORT $LN1@PMCCS_Floo
$LN8@PMCCS_Floo:

; 1293 :         }
; 1294 :         catch (const Palmtree::Math::Core::Internal::Exception& ex)
; 1295 :         {
; 1296 :             return (ex.GetStatusCode());

  00072	8b 85 e4 00 00
	00		 mov	 eax, DWORD PTR $T5[rbp]
$LN1@PMCCS_Floo:

; 1297 :         }
; 1298 :     }

  00078	48 8b f8	 mov	 rdi, rax
  0007b	48 8d 4d e0	 lea	 rcx, QWORD PTR [rbp-32]
  0007f	48 8d 15 00 00
	00 00		 lea	 rdx, OFFSET FLAT:PMCCS_Floor_Log10$rtcFrameData
  00086	e8 00 00 00 00	 call	 _RTC_CheckStackVars
  0008b	48 8b c7	 mov	 rax, rdi
  0008e	48 8d a5 28 01
	00 00		 lea	 rsp, QWORD PTR [rbp+296]
  00095	5f		 pop	 rdi
  00096	5d		 pop	 rbp
  00097	c3		 ret	 0
  00098	cc		 int	 3
PMCCS_Floor_Log10 ENDP
_TEXT	ENDS
;	COMDAT text$x
text$x	SEGMENT
ex$4 = 8
$T5 = 228
$T6 = 264
v$ = 320
r$ = 328
PMCCS_Floor_Log10$catch$0 PROC

; 1293 :         }
; 1294 :         catch (const Palmtree::Math::Core::Internal::Exception& ex)
; 1295 :         {

  00000	48 89 4c 24 08	 mov	 QWORD PTR [rsp+8], rcx
  00005	48 89 54 24 10	 mov	 QWORD PTR [rsp+16], rdx
  0000a	55		 push	 rbp
  0000b	57		 push	 rdi
  0000c	48 83 ec 28	 sub	 rsp, 40			; 00000028H
  00010	48 8d 6a 20	 lea	 rbp, QWORD PTR [rdx+32]
__catch$PMCCS_Floor_Log10$0:

; 1293 :         }
; 1294 :         catch (const Palmtree::Math::Core::Internal::Exception& ex)
; 1295 :         {
; 1296 :             return (ex.GetStatusCode());

  00014	48 8b 4d 08	 mov	 rcx, QWORD PTR ex$4[rbp]
  00018	e8 00 00 00 00	 call	 ?GetStatusCode@Exception@Internal@Core@Math@Palmtree@@QEBAHXZ ; Palmtree::Math::Core::Internal::Exception::GetStatusCode
  0001d	89 85 e4 00 00
	00		 mov	 DWORD PTR $T5[rbp], eax
  00023	48 8d 05 00 00
	00 00		 lea	 rax, $LN8@PMCCS_Floo
  0002a	eb 07		 jmp	 SHORT $LN9@PMCCS_Floo

; 1297 :         }

  0002c	48 8d 05 00 00
	00 00		 lea	 rax, __tryend$PMCCS_Floor_Log10$1
$LN9@PMCCS_Floo:
  00033	48 83 c4 28	 add	 rsp, 40			; 00000028H
  00037	5f		 pop	 rdi
  00038	5d		 pop	 rbp
  00039	c3		 ret	 0
  0003a	cc		 int	 3
PMCCS_Floor_Log10$catch$0 ENDP
text$x	ENDS
; Function compile flags: /Odtp /RTCsu /ZI
;	COMDAT text$x
text$x	SEGMENT
ex$4 = 8
$T5 = 228
$T6 = 264
v$ = 320
r$ = 328
PMCCS_Floor_Log10$catch$0 PROC

; 1295 :         {

  00000	48 89 4c 24 08	 mov	 QWORD PTR [rsp+8], rcx
  00005	48 89 54 24 10	 mov	 QWORD PTR [rsp+16], rdx
  0000a	55		 push	 rbp
  0000b	57		 push	 rdi
  0000c	48 83 ec 28	 sub	 rsp, 40			; 00000028H
  00010	48 8d 6a 20	 lea	 rbp, QWORD PTR [rdx+32]
__catch$PMCCS_Floor_Log10$0:

; 1296 :             return (ex.GetStatusCode());

  00014	48 8b 4d 08	 mov	 rcx, QWORD PTR ex$4[rbp]
  00018	e8 00 00 00 00	 call	 ?GetStatusCode@Exception@Internal@Core@Math@Palmtree@@QEBAHXZ ; Palmtree::Math::Core::Internal::Exception::GetStatusCode
  0001d	89 85 e4 00 00
	00		 mov	 DWORD PTR $T5[rbp], eax
  00023	48 8d 05 00 00
	00 00		 lea	 rax, $LN8@PMCCS_Floo
  0002a	eb 07		 jmp	 SHORT $LN9@PMCCS_Floo

; 1297 :         }

  0002c	48 8d 05 00 00
	00 00		 lea	 rax, __tryend$PMCCS_Floor_Log10$1
$LN9@PMCCS_Floo:
  00033	48 83 c4 28	 add	 rsp, 40			; 00000028H
  00037	5f		 pop	 rdi
  00038	5d		 pop	 rbp
  00039	c3		 ret	 0
  0003a	cc		 int	 3
PMCCS_Floor_Log10$catch$0 ENDP
text$x	ENDS
; Function compile flags: /Odtp /RTCsu /ZI
; File z:\sources\lunor\repos\rougemeilland\palmtree.math.core.uint\palmtree.math.core.uint\pmc_interface_csharp.cpp
;	COMDAT PMCCS_TimesOfExponentOf10
_TEXT	SEGMENT
ex$4 = 8
$T5 = 228
$T6 = 264
v$ = 320
e$ = 328
r$ = 336
PMCCS_TimesOfExponentOf10 PROC				; COMDAT

; 1271 :     {

$LN10:
  00000	4c 89 44 24 18	 mov	 QWORD PTR [rsp+24], r8
  00005	89 54 24 10	 mov	 DWORD PTR [rsp+16], edx
  00009	89 4c 24 08	 mov	 DWORD PTR [rsp+8], ecx
  0000d	55		 push	 rbp
  0000e	57		 push	 rdi
  0000f	48 81 ec 48 01
	00 00		 sub	 rsp, 328		; 00000148H
  00016	48 8d 6c 24 20	 lea	 rbp, QWORD PTR [rsp+32]
  0001b	48 8b fc	 mov	 rdi, rsp
  0001e	b9 52 00 00 00	 mov	 ecx, 82			; 00000052H
  00023	b8 cc cc cc cc	 mov	 eax, -858993460		; ccccccccH
  00028	f3 ab		 rep stosd
  0002a	8b 8c 24 68 01
	00 00		 mov	 ecx, DWORD PTR [rsp+360]
  00031	48 c7 85 08 01
	00 00 fe ff ff
	ff		 mov	 QWORD PTR $T6[rbp], -2
  0003c	48 8d 0d 00 00
	00 00		 lea	 rcx, OFFSET FLAT:__C21BA676_pmc_interface_csharp@cpp
  00043	e8 00 00 00 00	 call	 __CheckForDebuggerJustMyCode

; 1272 :         if (r == nullptr)

  00048	48 83 bd 50 01
	00 00 00	 cmp	 QWORD PTR r$[rbp], 0
  00050	75 07		 jne	 SHORT $LN2@PMCCS_Time

; 1273 :             return (PMC_STATUS_ARGUMENT_NULL_ERROR);

  00052	b8 fe ff ff ff	 mov	 eax, -2
  00057	eb 27		 jmp	 SHORT $LN1@PMCCS_Time
$LN2@PMCCS_Time:

; 1274 :         try
; 1275 :         {
; 1276 :             *r = PMC_TimesOfExponentOf10(v, e);

  00059	8b 95 48 01 00
	00		 mov	 edx, DWORD PTR e$[rbp]
  0005f	8b 8d 40 01 00
	00		 mov	 ecx, DWORD PTR v$[rbp]
  00065	e8 00 00 00 00	 call	 ?PMC_TimesOfExponentOf10@Internal@Core@Math@Palmtree@@YAPEAU__tag_PMC_HANDLE_UINT@1234@II@Z ; Palmtree::Math::Core::Internal::PMC_TimesOfExponentOf10
  0006a	48 8b 8d 50 01
	00 00		 mov	 rcx, QWORD PTR r$[rbp]
  00071	48 89 01	 mov	 QWORD PTR [rcx], rax

; 1277 :             return (PMC_STATUS_OK);

  00074	33 c0		 xor	 eax, eax
  00076	eb 08		 jmp	 SHORT $LN1@PMCCS_Time
__tryend$PMCCS_TimesOfExponentOf10$1:
  00078	eb 06		 jmp	 SHORT $LN1@PMCCS_Time
$LN8@PMCCS_Time:

; 1278 :         }
; 1279 :         catch (const Palmtree::Math::Core::Internal::Exception& ex)
; 1280 :         {
; 1281 :             return (ex.GetStatusCode());

  0007a	8b 85 e4 00 00
	00		 mov	 eax, DWORD PTR $T5[rbp]
$LN1@PMCCS_Time:

; 1282 :         }
; 1283 :     }

  00080	48 8b f8	 mov	 rdi, rax
  00083	48 8d 4d e0	 lea	 rcx, QWORD PTR [rbp-32]
  00087	48 8d 15 00 00
	00 00		 lea	 rdx, OFFSET FLAT:PMCCS_TimesOfExponentOf10$rtcFrameData
  0008e	e8 00 00 00 00	 call	 _RTC_CheckStackVars
  00093	48 8b c7	 mov	 rax, rdi
  00096	48 8d a5 28 01
	00 00		 lea	 rsp, QWORD PTR [rbp+296]
  0009d	5f		 pop	 rdi
  0009e	5d		 pop	 rbp
  0009f	c3		 ret	 0
  000a0	cc		 int	 3
PMCCS_TimesOfExponentOf10 ENDP
_TEXT	ENDS
;	COMDAT text$x
text$x	SEGMENT
ex$4 = 8
$T5 = 228
$T6 = 264
v$ = 320
e$ = 328
r$ = 336
PMCCS_TimesOfExponentOf10$catch$0 PROC

; 1278 :         }
; 1279 :         catch (const Palmtree::Math::Core::Internal::Exception& ex)
; 1280 :         {

  00000	48 89 4c 24 08	 mov	 QWORD PTR [rsp+8], rcx
  00005	48 89 54 24 10	 mov	 QWORD PTR [rsp+16], rdx
  0000a	55		 push	 rbp
  0000b	57		 push	 rdi
  0000c	48 83 ec 28	 sub	 rsp, 40			; 00000028H
  00010	48 8d 6a 20	 lea	 rbp, QWORD PTR [rdx+32]
__catch$PMCCS_TimesOfExponentOf10$0:

; 1278 :         }
; 1279 :         catch (const Palmtree::Math::Core::Internal::Exception& ex)
; 1280 :         {
; 1281 :             return (ex.GetStatusCode());

  00014	48 8b 4d 08	 mov	 rcx, QWORD PTR ex$4[rbp]
  00018	e8 00 00 00 00	 call	 ?GetStatusCode@Exception@Internal@Core@Math@Palmtree@@QEBAHXZ ; Palmtree::Math::Core::Internal::Exception::GetStatusCode
  0001d	89 85 e4 00 00
	00		 mov	 DWORD PTR $T5[rbp], eax
  00023	48 8d 05 00 00
	00 00		 lea	 rax, $LN8@PMCCS_Time
  0002a	eb 07		 jmp	 SHORT $LN9@PMCCS_Time

; 1282 :         }

  0002c	48 8d 05 00 00
	00 00		 lea	 rax, __tryend$PMCCS_TimesOfExponentOf10$1
$LN9@PMCCS_Time:
  00033	48 83 c4 28	 add	 rsp, 40			; 00000028H
  00037	5f		 pop	 rdi
  00038	5d		 pop	 rbp
  00039	c3		 ret	 0
  0003a	cc		 int	 3
PMCCS_TimesOfExponentOf10$catch$0 ENDP
text$x	ENDS
; Function compile flags: /Odtp /RTCsu /ZI
;	COMDAT text$x
text$x	SEGMENT
ex$4 = 8
$T5 = 228
$T6 = 264
v$ = 320
e$ = 328
r$ = 336
PMCCS_TimesOfExponentOf10$catch$0 PROC

; 1280 :         {

  00000	48 89 4c 24 08	 mov	 QWORD PTR [rsp+8], rcx
  00005	48 89 54 24 10	 mov	 QWORD PTR [rsp+16], rdx
  0000a	55		 push	 rbp
  0000b	57		 push	 rdi
  0000c	48 83 ec 28	 sub	 rsp, 40			; 00000028H
  00010	48 8d 6a 20	 lea	 rbp, QWORD PTR [rdx+32]
__catch$PMCCS_TimesOfExponentOf10$0:

; 1281 :             return (ex.GetStatusCode());

  00014	48 8b 4d 08	 mov	 rcx, QWORD PTR ex$4[rbp]
  00018	e8 00 00 00 00	 call	 ?GetStatusCode@Exception@Internal@Core@Math@Palmtree@@QEBAHXZ ; Palmtree::Math::Core::Internal::Exception::GetStatusCode
  0001d	89 85 e4 00 00
	00		 mov	 DWORD PTR $T5[rbp], eax
  00023	48 8d 05 00 00
	00 00		 lea	 rax, $LN8@PMCCS_Time
  0002a	eb 07		 jmp	 SHORT $LN9@PMCCS_Time

; 1282 :         }

  0002c	48 8d 05 00 00
	00 00		 lea	 rax, __tryend$PMCCS_TimesOfExponentOf10$1
$LN9@PMCCS_Time:
  00033	48 83 c4 28	 add	 rsp, 40			; 00000028H
  00037	5f		 pop	 rdi
  00038	5d		 pop	 rbp
  00039	c3		 ret	 0
  0003a	cc		 int	 3
PMCCS_TimesOfExponentOf10$catch$0 ENDP
text$x	ENDS
; Function compile flags: /Odtp /RTCsu /ZI
; File z:\sources\lunor\repos\rougemeilland\palmtree.math.core.uint\palmtree.math.core.uint\pmc_interface_csharp.cpp
;	COMDAT PMCCS_ModPow_X_X_X
_TEXT	SEGMENT
ex$4 = 8
$T5 = 228
$T6 = 264
v$ = 320
e$ = 328
m$ = 336
r$ = 344
PMCCS_ModPow_X_X_X PROC					; COMDAT

; 1256 :     {

$LN10:
  00000	4c 89 4c 24 20	 mov	 QWORD PTR [rsp+32], r9
  00005	4c 89 44 24 18	 mov	 QWORD PTR [rsp+24], r8
  0000a	48 89 54 24 10	 mov	 QWORD PTR [rsp+16], rdx
  0000f	48 89 4c 24 08	 mov	 QWORD PTR [rsp+8], rcx
  00014	55		 push	 rbp
  00015	57		 push	 rdi
  00016	48 81 ec 48 01
	00 00		 sub	 rsp, 328		; 00000148H
  0001d	48 8d 6c 24 20	 lea	 rbp, QWORD PTR [rsp+32]
  00022	48 8b fc	 mov	 rdi, rsp
  00025	b9 52 00 00 00	 mov	 ecx, 82			; 00000052H
  0002a	b8 cc cc cc cc	 mov	 eax, -858993460		; ccccccccH
  0002f	f3 ab		 rep stosd
  00031	48 8b 8c 24 68
	01 00 00	 mov	 rcx, QWORD PTR [rsp+360]
  00039	48 c7 85 08 01
	00 00 fe ff ff
	ff		 mov	 QWORD PTR $T6[rbp], -2
  00044	48 8d 0d 00 00
	00 00		 lea	 rcx, OFFSET FLAT:__C21BA676_pmc_interface_csharp@cpp
  0004b	e8 00 00 00 00	 call	 __CheckForDebuggerJustMyCode

; 1257 :         if (r == nullptr)

  00050	48 83 bd 58 01
	00 00 00	 cmp	 QWORD PTR r$[rbp], 0
  00058	75 07		 jne	 SHORT $LN2@PMCCS_ModP

; 1258 :             return (PMC_STATUS_ARGUMENT_NULL_ERROR);

  0005a	b8 fe ff ff ff	 mov	 eax, -2
  0005f	eb 30		 jmp	 SHORT $LN1@PMCCS_ModP
$LN2@PMCCS_ModP:

; 1259 :         try
; 1260 :         {
; 1261 :             *r = PMC_ModPow_X_X_X(v, e, m);

  00061	4c 8b 85 50 01
	00 00		 mov	 r8, QWORD PTR m$[rbp]
  00068	48 8b 95 48 01
	00 00		 mov	 rdx, QWORD PTR e$[rbp]
  0006f	48 8b 8d 40 01
	00 00		 mov	 rcx, QWORD PTR v$[rbp]
  00076	e8 00 00 00 00	 call	 ?PMC_ModPow_X_X_X@Internal@Core@Math@Palmtree@@YAPEAU__tag_PMC_HANDLE_UINT@1234@PEAU51234@00@Z ; Palmtree::Math::Core::Internal::PMC_ModPow_X_X_X
  0007b	48 8b 8d 58 01
	00 00		 mov	 rcx, QWORD PTR r$[rbp]
  00082	48 89 01	 mov	 QWORD PTR [rcx], rax

; 1262 :             return (PMC_STATUS_OK);

  00085	33 c0		 xor	 eax, eax
  00087	eb 08		 jmp	 SHORT $LN1@PMCCS_ModP
__tryend$PMCCS_ModPow_X_X_X$1:
  00089	eb 06		 jmp	 SHORT $LN1@PMCCS_ModP
$LN8@PMCCS_ModP:

; 1263 :         }
; 1264 :         catch (const Palmtree::Math::Core::Internal::Exception& ex)
; 1265 :         {
; 1266 :             return (ex.GetStatusCode());

  0008b	8b 85 e4 00 00
	00		 mov	 eax, DWORD PTR $T5[rbp]
$LN1@PMCCS_ModP:

; 1267 :         }
; 1268 :     }

  00091	48 8b f8	 mov	 rdi, rax
  00094	48 8d 4d e0	 lea	 rcx, QWORD PTR [rbp-32]
  00098	48 8d 15 00 00
	00 00		 lea	 rdx, OFFSET FLAT:PMCCS_ModPow_X_X_X$rtcFrameData
  0009f	e8 00 00 00 00	 call	 _RTC_CheckStackVars
  000a4	48 8b c7	 mov	 rax, rdi
  000a7	48 8d a5 28 01
	00 00		 lea	 rsp, QWORD PTR [rbp+296]
  000ae	5f		 pop	 rdi
  000af	5d		 pop	 rbp
  000b0	c3		 ret	 0
  000b1	cc		 int	 3
PMCCS_ModPow_X_X_X ENDP
_TEXT	ENDS
;	COMDAT text$x
text$x	SEGMENT
ex$4 = 8
$T5 = 228
$T6 = 264
v$ = 320
e$ = 328
m$ = 336
r$ = 344
PMCCS_ModPow_X_X_X$catch$0 PROC

; 1263 :         }
; 1264 :         catch (const Palmtree::Math::Core::Internal::Exception& ex)
; 1265 :         {

  00000	48 89 4c 24 08	 mov	 QWORD PTR [rsp+8], rcx
  00005	48 89 54 24 10	 mov	 QWORD PTR [rsp+16], rdx
  0000a	55		 push	 rbp
  0000b	57		 push	 rdi
  0000c	48 83 ec 28	 sub	 rsp, 40			; 00000028H
  00010	48 8d 6a 20	 lea	 rbp, QWORD PTR [rdx+32]
__catch$PMCCS_ModPow_X_X_X$0:

; 1263 :         }
; 1264 :         catch (const Palmtree::Math::Core::Internal::Exception& ex)
; 1265 :         {
; 1266 :             return (ex.GetStatusCode());

  00014	48 8b 4d 08	 mov	 rcx, QWORD PTR ex$4[rbp]
  00018	e8 00 00 00 00	 call	 ?GetStatusCode@Exception@Internal@Core@Math@Palmtree@@QEBAHXZ ; Palmtree::Math::Core::Internal::Exception::GetStatusCode
  0001d	89 85 e4 00 00
	00		 mov	 DWORD PTR $T5[rbp], eax
  00023	48 8d 05 00 00
	00 00		 lea	 rax, $LN8@PMCCS_ModP
  0002a	eb 07		 jmp	 SHORT $LN9@PMCCS_ModP

; 1267 :         }

  0002c	48 8d 05 00 00
	00 00		 lea	 rax, __tryend$PMCCS_ModPow_X_X_X$1
$LN9@PMCCS_ModP:
  00033	48 83 c4 28	 add	 rsp, 40			; 00000028H
  00037	5f		 pop	 rdi
  00038	5d		 pop	 rbp
  00039	c3		 ret	 0
  0003a	cc		 int	 3
PMCCS_ModPow_X_X_X$catch$0 ENDP
text$x	ENDS
; Function compile flags: /Odtp /RTCsu /ZI
;	COMDAT text$x
text$x	SEGMENT
ex$4 = 8
$T5 = 228
$T6 = 264
v$ = 320
e$ = 328
m$ = 336
r$ = 344
PMCCS_ModPow_X_X_X$catch$0 PROC

; 1265 :         {

  00000	48 89 4c 24 08	 mov	 QWORD PTR [rsp+8], rcx
  00005	48 89 54 24 10	 mov	 QWORD PTR [rsp+16], rdx
  0000a	55		 push	 rbp
  0000b	57		 push	 rdi
  0000c	48 83 ec 28	 sub	 rsp, 40			; 00000028H
  00010	48 8d 6a 20	 lea	 rbp, QWORD PTR [rdx+32]
__catch$PMCCS_ModPow_X_X_X$0:

; 1266 :             return (ex.GetStatusCode());

  00014	48 8b 4d 08	 mov	 rcx, QWORD PTR ex$4[rbp]
  00018	e8 00 00 00 00	 call	 ?GetStatusCode@Exception@Internal@Core@Math@Palmtree@@QEBAHXZ ; Palmtree::Math::Core::Internal::Exception::GetStatusCode
  0001d	89 85 e4 00 00
	00		 mov	 DWORD PTR $T5[rbp], eax
  00023	48 8d 05 00 00
	00 00		 lea	 rax, $LN8@PMCCS_ModP
  0002a	eb 07		 jmp	 SHORT $LN9@PMCCS_ModP

; 1267 :         }

  0002c	48 8d 05 00 00
	00 00		 lea	 rax, __tryend$PMCCS_ModPow_X_X_X$1
$LN9@PMCCS_ModP:
  00033	48 83 c4 28	 add	 rsp, 40			; 00000028H
  00037	5f		 pop	 rdi
  00038	5d		 pop	 rbp
  00039	c3		 ret	 0
  0003a	cc		 int	 3
PMCCS_ModPow_X_X_X$catch$0 ENDP
text$x	ENDS
; Function compile flags: /Odtp /RTCsu /ZI
; File z:\sources\lunor\repos\rougemeilland\palmtree.math.core.uint\palmtree.math.core.uint\pmc_interface_csharp.cpp
;	COMDAT PMCCS_Pow_X_L
_TEXT	SEGMENT
ex$4 = 8
$T5 = 228
$T6 = 264
x$ = 320
n$ = 328
v$ = 336
PMCCS_Pow_X_L PROC					; COMDAT

; 1241 :     {

$LN10:
  00000	4c 89 44 24 18	 mov	 QWORD PTR [rsp+24], r8
  00005	48 89 54 24 10	 mov	 QWORD PTR [rsp+16], rdx
  0000a	48 89 4c 24 08	 mov	 QWORD PTR [rsp+8], rcx
  0000f	55		 push	 rbp
  00010	57		 push	 rdi
  00011	48 81 ec 48 01
	00 00		 sub	 rsp, 328		; 00000148H
  00018	48 8d 6c 24 20	 lea	 rbp, QWORD PTR [rsp+32]
  0001d	48 8b fc	 mov	 rdi, rsp
  00020	b9 52 00 00 00	 mov	 ecx, 82			; 00000052H
  00025	b8 cc cc cc cc	 mov	 eax, -858993460		; ccccccccH
  0002a	f3 ab		 rep stosd
  0002c	48 8b 8c 24 68
	01 00 00	 mov	 rcx, QWORD PTR [rsp+360]
  00034	48 c7 85 08 01
	00 00 fe ff ff
	ff		 mov	 QWORD PTR $T6[rbp], -2
  0003f	48 8d 0d 00 00
	00 00		 lea	 rcx, OFFSET FLAT:__C21BA676_pmc_interface_csharp@cpp
  00046	e8 00 00 00 00	 call	 __CheckForDebuggerJustMyCode

; 1242 :         if (v == nullptr)

  0004b	48 83 bd 50 01
	00 00 00	 cmp	 QWORD PTR v$[rbp], 0
  00053	75 07		 jne	 SHORT $LN2@PMCCS_Pow_

; 1243 :             return (PMC_STATUS_ARGUMENT_NULL_ERROR);

  00055	b8 fe ff ff ff	 mov	 eax, -2
  0005a	eb 29		 jmp	 SHORT $LN1@PMCCS_Pow_
$LN2@PMCCS_Pow_:

; 1244 :         try
; 1245 :         {
; 1246 :             *v = PMC_Pow_X_L(x, n);

  0005c	48 8b 95 48 01
	00 00		 mov	 rdx, QWORD PTR n$[rbp]
  00063	48 8b 8d 40 01
	00 00		 mov	 rcx, QWORD PTR x$[rbp]
  0006a	e8 00 00 00 00	 call	 ?PMC_Pow_X_L@Internal@Core@Math@Palmtree@@YAPEAU__tag_PMC_HANDLE_UINT@1234@PEAU51234@_K@Z ; Palmtree::Math::Core::Internal::PMC_Pow_X_L
  0006f	48 8b 8d 50 01
	00 00		 mov	 rcx, QWORD PTR v$[rbp]
  00076	48 89 01	 mov	 QWORD PTR [rcx], rax

; 1247 :             return (PMC_STATUS_OK);

  00079	33 c0		 xor	 eax, eax
  0007b	eb 08		 jmp	 SHORT $LN1@PMCCS_Pow_
__tryend$PMCCS_Pow_X_L$1:
  0007d	eb 06		 jmp	 SHORT $LN1@PMCCS_Pow_
$LN8@PMCCS_Pow_:

; 1248 :         }
; 1249 :         catch (const Palmtree::Math::Core::Internal::Exception& ex)
; 1250 :         {
; 1251 :             return (ex.GetStatusCode());

  0007f	8b 85 e4 00 00
	00		 mov	 eax, DWORD PTR $T5[rbp]
$LN1@PMCCS_Pow_:

; 1252 :         }
; 1253 :     }

  00085	48 8b f8	 mov	 rdi, rax
  00088	48 8d 4d e0	 lea	 rcx, QWORD PTR [rbp-32]
  0008c	48 8d 15 00 00
	00 00		 lea	 rdx, OFFSET FLAT:PMCCS_Pow_X_L$rtcFrameData
  00093	e8 00 00 00 00	 call	 _RTC_CheckStackVars
  00098	48 8b c7	 mov	 rax, rdi
  0009b	48 8d a5 28 01
	00 00		 lea	 rsp, QWORD PTR [rbp+296]
  000a2	5f		 pop	 rdi
  000a3	5d		 pop	 rbp
  000a4	c3		 ret	 0
  000a5	cc		 int	 3
PMCCS_Pow_X_L ENDP
_TEXT	ENDS
;	COMDAT text$x
text$x	SEGMENT
ex$4 = 8
$T5 = 228
$T6 = 264
x$ = 320
n$ = 328
v$ = 336
PMCCS_Pow_X_L$catch$0 PROC

; 1248 :         }
; 1249 :         catch (const Palmtree::Math::Core::Internal::Exception& ex)
; 1250 :         {

  00000	48 89 4c 24 08	 mov	 QWORD PTR [rsp+8], rcx
  00005	48 89 54 24 10	 mov	 QWORD PTR [rsp+16], rdx
  0000a	55		 push	 rbp
  0000b	57		 push	 rdi
  0000c	48 83 ec 28	 sub	 rsp, 40			; 00000028H
  00010	48 8d 6a 20	 lea	 rbp, QWORD PTR [rdx+32]
__catch$PMCCS_Pow_X_L$0:

; 1248 :         }
; 1249 :         catch (const Palmtree::Math::Core::Internal::Exception& ex)
; 1250 :         {
; 1251 :             return (ex.GetStatusCode());

  00014	48 8b 4d 08	 mov	 rcx, QWORD PTR ex$4[rbp]
  00018	e8 00 00 00 00	 call	 ?GetStatusCode@Exception@Internal@Core@Math@Palmtree@@QEBAHXZ ; Palmtree::Math::Core::Internal::Exception::GetStatusCode
  0001d	89 85 e4 00 00
	00		 mov	 DWORD PTR $T5[rbp], eax
  00023	48 8d 05 00 00
	00 00		 lea	 rax, $LN8@PMCCS_Pow_
  0002a	eb 07		 jmp	 SHORT $LN9@PMCCS_Pow_

; 1252 :         }

  0002c	48 8d 05 00 00
	00 00		 lea	 rax, __tryend$PMCCS_Pow_X_L$1
$LN9@PMCCS_Pow_:
  00033	48 83 c4 28	 add	 rsp, 40			; 00000028H
  00037	5f		 pop	 rdi
  00038	5d		 pop	 rbp
  00039	c3		 ret	 0
  0003a	cc		 int	 3
PMCCS_Pow_X_L$catch$0 ENDP
text$x	ENDS
; Function compile flags: /Odtp /RTCsu /ZI
;	COMDAT text$x
text$x	SEGMENT
ex$4 = 8
$T5 = 228
$T6 = 264
x$ = 320
n$ = 328
v$ = 336
PMCCS_Pow_X_L$catch$0 PROC

; 1250 :         {

  00000	48 89 4c 24 08	 mov	 QWORD PTR [rsp+8], rcx
  00005	48 89 54 24 10	 mov	 QWORD PTR [rsp+16], rdx
  0000a	55		 push	 rbp
  0000b	57		 push	 rdi
  0000c	48 83 ec 28	 sub	 rsp, 40			; 00000028H
  00010	48 8d 6a 20	 lea	 rbp, QWORD PTR [rdx+32]
__catch$PMCCS_Pow_X_L$0:

; 1251 :             return (ex.GetStatusCode());

  00014	48 8b 4d 08	 mov	 rcx, QWORD PTR ex$4[rbp]
  00018	e8 00 00 00 00	 call	 ?GetStatusCode@Exception@Internal@Core@Math@Palmtree@@QEBAHXZ ; Palmtree::Math::Core::Internal::Exception::GetStatusCode
  0001d	89 85 e4 00 00
	00		 mov	 DWORD PTR $T5[rbp], eax
  00023	48 8d 05 00 00
	00 00		 lea	 rax, $LN8@PMCCS_Pow_
  0002a	eb 07		 jmp	 SHORT $LN9@PMCCS_Pow_

; 1252 :         }

  0002c	48 8d 05 00 00
	00 00		 lea	 rax, __tryend$PMCCS_Pow_X_L$1
$LN9@PMCCS_Pow_:
  00033	48 83 c4 28	 add	 rsp, 40			; 00000028H
  00037	5f		 pop	 rdi
  00038	5d		 pop	 rbp
  00039	c3		 ret	 0
  0003a	cc		 int	 3
PMCCS_Pow_X_L$catch$0 ENDP
text$x	ENDS
; Function compile flags: /Odtp /RTCsu /ZI
; File z:\sources\lunor\repos\rougemeilland\palmtree.math.core.uint\palmtree.math.core.uint\pmc_interface_csharp.cpp
;	COMDAT PMCCS_Pow_X_I
_TEXT	SEGMENT
ex$4 = 8
$T5 = 228
$T6 = 264
x$ = 320
n$ = 328
v$ = 336
PMCCS_Pow_X_I PROC					; COMDAT

; 1226 :     {

$LN10:
  00000	4c 89 44 24 18	 mov	 QWORD PTR [rsp+24], r8
  00005	89 54 24 10	 mov	 DWORD PTR [rsp+16], edx
  00009	48 89 4c 24 08	 mov	 QWORD PTR [rsp+8], rcx
  0000e	55		 push	 rbp
  0000f	57		 push	 rdi
  00010	48 81 ec 48 01
	00 00		 sub	 rsp, 328		; 00000148H
  00017	48 8d 6c 24 20	 lea	 rbp, QWORD PTR [rsp+32]
  0001c	48 8b fc	 mov	 rdi, rsp
  0001f	b9 52 00 00 00	 mov	 ecx, 82			; 00000052H
  00024	b8 cc cc cc cc	 mov	 eax, -858993460		; ccccccccH
  00029	f3 ab		 rep stosd
  0002b	48 8b 8c 24 68
	01 00 00	 mov	 rcx, QWORD PTR [rsp+360]
  00033	48 c7 85 08 01
	00 00 fe ff ff
	ff		 mov	 QWORD PTR $T6[rbp], -2
  0003e	48 8d 0d 00 00
	00 00		 lea	 rcx, OFFSET FLAT:__C21BA676_pmc_interface_csharp@cpp
  00045	e8 00 00 00 00	 call	 __CheckForDebuggerJustMyCode

; 1227 :         if (v == nullptr)

  0004a	48 83 bd 50 01
	00 00 00	 cmp	 QWORD PTR v$[rbp], 0
  00052	75 07		 jne	 SHORT $LN2@PMCCS_Pow_

; 1228 :             return (PMC_STATUS_ARGUMENT_NULL_ERROR);

  00054	b8 fe ff ff ff	 mov	 eax, -2
  00059	eb 28		 jmp	 SHORT $LN1@PMCCS_Pow_
$LN2@PMCCS_Pow_:

; 1229 :         try
; 1230 :         {
; 1231 :             *v = PMC_Pow_X_I(x, n);

  0005b	8b 95 48 01 00
	00		 mov	 edx, DWORD PTR n$[rbp]
  00061	48 8b 8d 40 01
	00 00		 mov	 rcx, QWORD PTR x$[rbp]
  00068	e8 00 00 00 00	 call	 ?PMC_Pow_X_I@Internal@Core@Math@Palmtree@@YAPEAU__tag_PMC_HANDLE_UINT@1234@PEAU51234@I@Z ; Palmtree::Math::Core::Internal::PMC_Pow_X_I
  0006d	48 8b 8d 50 01
	00 00		 mov	 rcx, QWORD PTR v$[rbp]
  00074	48 89 01	 mov	 QWORD PTR [rcx], rax

; 1232 :             return (PMC_STATUS_OK);

  00077	33 c0		 xor	 eax, eax
  00079	eb 08		 jmp	 SHORT $LN1@PMCCS_Pow_
__tryend$PMCCS_Pow_X_I$1:
  0007b	eb 06		 jmp	 SHORT $LN1@PMCCS_Pow_
$LN8@PMCCS_Pow_:

; 1233 :         }
; 1234 :         catch (const Palmtree::Math::Core::Internal::Exception& ex)
; 1235 :         {
; 1236 :             return (ex.GetStatusCode());

  0007d	8b 85 e4 00 00
	00		 mov	 eax, DWORD PTR $T5[rbp]
$LN1@PMCCS_Pow_:

; 1237 :         }
; 1238 :     }

  00083	48 8b f8	 mov	 rdi, rax
  00086	48 8d 4d e0	 lea	 rcx, QWORD PTR [rbp-32]
  0008a	48 8d 15 00 00
	00 00		 lea	 rdx, OFFSET FLAT:PMCCS_Pow_X_I$rtcFrameData
  00091	e8 00 00 00 00	 call	 _RTC_CheckStackVars
  00096	48 8b c7	 mov	 rax, rdi
  00099	48 8d a5 28 01
	00 00		 lea	 rsp, QWORD PTR [rbp+296]
  000a0	5f		 pop	 rdi
  000a1	5d		 pop	 rbp
  000a2	c3		 ret	 0
  000a3	cc		 int	 3
PMCCS_Pow_X_I ENDP
_TEXT	ENDS
;	COMDAT text$x
text$x	SEGMENT
ex$4 = 8
$T5 = 228
$T6 = 264
x$ = 320
n$ = 328
v$ = 336
PMCCS_Pow_X_I$catch$0 PROC

; 1233 :         }
; 1234 :         catch (const Palmtree::Math::Core::Internal::Exception& ex)
; 1235 :         {

  00000	48 89 4c 24 08	 mov	 QWORD PTR [rsp+8], rcx
  00005	48 89 54 24 10	 mov	 QWORD PTR [rsp+16], rdx
  0000a	55		 push	 rbp
  0000b	57		 push	 rdi
  0000c	48 83 ec 28	 sub	 rsp, 40			; 00000028H
  00010	48 8d 6a 20	 lea	 rbp, QWORD PTR [rdx+32]
__catch$PMCCS_Pow_X_I$0:

; 1233 :         }
; 1234 :         catch (const Palmtree::Math::Core::Internal::Exception& ex)
; 1235 :         {
; 1236 :             return (ex.GetStatusCode());

  00014	48 8b 4d 08	 mov	 rcx, QWORD PTR ex$4[rbp]
  00018	e8 00 00 00 00	 call	 ?GetStatusCode@Exception@Internal@Core@Math@Palmtree@@QEBAHXZ ; Palmtree::Math::Core::Internal::Exception::GetStatusCode
  0001d	89 85 e4 00 00
	00		 mov	 DWORD PTR $T5[rbp], eax
  00023	48 8d 05 00 00
	00 00		 lea	 rax, $LN8@PMCCS_Pow_
  0002a	eb 07		 jmp	 SHORT $LN9@PMCCS_Pow_

; 1237 :         }

  0002c	48 8d 05 00 00
	00 00		 lea	 rax, __tryend$PMCCS_Pow_X_I$1
$LN9@PMCCS_Pow_:
  00033	48 83 c4 28	 add	 rsp, 40			; 00000028H
  00037	5f		 pop	 rdi
  00038	5d		 pop	 rbp
  00039	c3		 ret	 0
  0003a	cc		 int	 3
PMCCS_Pow_X_I$catch$0 ENDP
text$x	ENDS
; Function compile flags: /Odtp /RTCsu /ZI
;	COMDAT text$x
text$x	SEGMENT
ex$4 = 8
$T5 = 228
$T6 = 264
x$ = 320
n$ = 328
v$ = 336
PMCCS_Pow_X_I$catch$0 PROC

; 1235 :         {

  00000	48 89 4c 24 08	 mov	 QWORD PTR [rsp+8], rcx
  00005	48 89 54 24 10	 mov	 QWORD PTR [rsp+16], rdx
  0000a	55		 push	 rbp
  0000b	57		 push	 rdi
  0000c	48 83 ec 28	 sub	 rsp, 40			; 00000028H
  00010	48 8d 6a 20	 lea	 rbp, QWORD PTR [rdx+32]
__catch$PMCCS_Pow_X_I$0:

; 1236 :             return (ex.GetStatusCode());

  00014	48 8b 4d 08	 mov	 rcx, QWORD PTR ex$4[rbp]
  00018	e8 00 00 00 00	 call	 ?GetStatusCode@Exception@Internal@Core@Math@Palmtree@@QEBAHXZ ; Palmtree::Math::Core::Internal::Exception::GetStatusCode
  0001d	89 85 e4 00 00
	00		 mov	 DWORD PTR $T5[rbp], eax
  00023	48 8d 05 00 00
	00 00		 lea	 rax, $LN8@PMCCS_Pow_
  0002a	eb 07		 jmp	 SHORT $LN9@PMCCS_Pow_

; 1237 :         }

  0002c	48 8d 05 00 00
	00 00		 lea	 rax, __tryend$PMCCS_Pow_X_I$1
$LN9@PMCCS_Pow_:
  00033	48 83 c4 28	 add	 rsp, 40			; 00000028H
  00037	5f		 pop	 rdi
  00038	5d		 pop	 rbp
  00039	c3		 ret	 0
  0003a	cc		 int	 3
PMCCS_Pow_X_I$catch$0 ENDP
text$x	ENDS
; Function compile flags: /Odtp /RTCsu /ZI
; File z:\sources\lunor\repos\rougemeilland\palmtree.math.core.uint\palmtree.math.core.uint\pmc_interface_csharp.cpp
;	COMDAT PMCCS_GreatestCommonDivisor_X_X
_TEXT	SEGMENT
ex$4 = 8
$T5 = 228
$T6 = 264
u$ = 320
v$ = 328
w$ = 336
PMCCS_GreatestCommonDivisor_X_X PROC			; COMDAT

; 1211 :     {

$LN10:
  00000	4c 89 44 24 18	 mov	 QWORD PTR [rsp+24], r8
  00005	48 89 54 24 10	 mov	 QWORD PTR [rsp+16], rdx
  0000a	48 89 4c 24 08	 mov	 QWORD PTR [rsp+8], rcx
  0000f	55		 push	 rbp
  00010	57		 push	 rdi
  00011	48 81 ec 48 01
	00 00		 sub	 rsp, 328		; 00000148H
  00018	48 8d 6c 24 20	 lea	 rbp, QWORD PTR [rsp+32]
  0001d	48 8b fc	 mov	 rdi, rsp
  00020	b9 52 00 00 00	 mov	 ecx, 82			; 00000052H
  00025	b8 cc cc cc cc	 mov	 eax, -858993460		; ccccccccH
  0002a	f3 ab		 rep stosd
  0002c	48 8b 8c 24 68
	01 00 00	 mov	 rcx, QWORD PTR [rsp+360]
  00034	48 c7 85 08 01
	00 00 fe ff ff
	ff		 mov	 QWORD PTR $T6[rbp], -2
  0003f	48 8d 0d 00 00
	00 00		 lea	 rcx, OFFSET FLAT:__C21BA676_pmc_interface_csharp@cpp
  00046	e8 00 00 00 00	 call	 __CheckForDebuggerJustMyCode

; 1212 :         if (w == nullptr)

  0004b	48 83 bd 50 01
	00 00 00	 cmp	 QWORD PTR w$[rbp], 0
  00053	75 07		 jne	 SHORT $LN2@PMCCS_Grea

; 1213 :             return (PMC_STATUS_ARGUMENT_NULL_ERROR);

  00055	b8 fe ff ff ff	 mov	 eax, -2
  0005a	eb 29		 jmp	 SHORT $LN1@PMCCS_Grea
$LN2@PMCCS_Grea:

; 1214 :         try
; 1215 :         {
; 1216 :             *w = PMC_GreatestCommonDivisor_X_X(u, v);

  0005c	48 8b 95 48 01
	00 00		 mov	 rdx, QWORD PTR v$[rbp]
  00063	48 8b 8d 40 01
	00 00		 mov	 rcx, QWORD PTR u$[rbp]
  0006a	e8 00 00 00 00	 call	 ?PMC_GreatestCommonDivisor_X_X@Internal@Core@Math@Palmtree@@YAPEAU__tag_PMC_HANDLE_UINT@1234@PEAU51234@0@Z ; Palmtree::Math::Core::Internal::PMC_GreatestCommonDivisor_X_X
  0006f	48 8b 8d 50 01
	00 00		 mov	 rcx, QWORD PTR w$[rbp]
  00076	48 89 01	 mov	 QWORD PTR [rcx], rax

; 1217 :             return (PMC_STATUS_OK);

  00079	33 c0		 xor	 eax, eax
  0007b	eb 08		 jmp	 SHORT $LN1@PMCCS_Grea
__tryend$PMCCS_GreatestCommonDivisor_X_X$1:
  0007d	eb 06		 jmp	 SHORT $LN1@PMCCS_Grea
$LN8@PMCCS_Grea:

; 1218 :         }
; 1219 :         catch (const Palmtree::Math::Core::Internal::Exception& ex)
; 1220 :         {
; 1221 :             return (ex.GetStatusCode());

  0007f	8b 85 e4 00 00
	00		 mov	 eax, DWORD PTR $T5[rbp]
$LN1@PMCCS_Grea:

; 1222 :         }
; 1223 :     }

  00085	48 8b f8	 mov	 rdi, rax
  00088	48 8d 4d e0	 lea	 rcx, QWORD PTR [rbp-32]
  0008c	48 8d 15 00 00
	00 00		 lea	 rdx, OFFSET FLAT:PMCCS_GreatestCommonDivisor_X_X$rtcFrameData
  00093	e8 00 00 00 00	 call	 _RTC_CheckStackVars
  00098	48 8b c7	 mov	 rax, rdi
  0009b	48 8d a5 28 01
	00 00		 lea	 rsp, QWORD PTR [rbp+296]
  000a2	5f		 pop	 rdi
  000a3	5d		 pop	 rbp
  000a4	c3		 ret	 0
  000a5	cc		 int	 3
PMCCS_GreatestCommonDivisor_X_X ENDP
_TEXT	ENDS
;	COMDAT text$x
text$x	SEGMENT
ex$4 = 8
$T5 = 228
$T6 = 264
u$ = 320
v$ = 328
w$ = 336
PMCCS_GreatestCommonDivisor_X_X$catch$0 PROC

; 1218 :         }
; 1219 :         catch (const Palmtree::Math::Core::Internal::Exception& ex)
; 1220 :         {

  00000	48 89 4c 24 08	 mov	 QWORD PTR [rsp+8], rcx
  00005	48 89 54 24 10	 mov	 QWORD PTR [rsp+16], rdx
  0000a	55		 push	 rbp
  0000b	57		 push	 rdi
  0000c	48 83 ec 28	 sub	 rsp, 40			; 00000028H
  00010	48 8d 6a 20	 lea	 rbp, QWORD PTR [rdx+32]
__catch$PMCCS_GreatestCommonDivisor_X_X$0:

; 1218 :         }
; 1219 :         catch (const Palmtree::Math::Core::Internal::Exception& ex)
; 1220 :         {
; 1221 :             return (ex.GetStatusCode());

  00014	48 8b 4d 08	 mov	 rcx, QWORD PTR ex$4[rbp]
  00018	e8 00 00 00 00	 call	 ?GetStatusCode@Exception@Internal@Core@Math@Palmtree@@QEBAHXZ ; Palmtree::Math::Core::Internal::Exception::GetStatusCode
  0001d	89 85 e4 00 00
	00		 mov	 DWORD PTR $T5[rbp], eax
  00023	48 8d 05 00 00
	00 00		 lea	 rax, $LN8@PMCCS_Grea
  0002a	eb 07		 jmp	 SHORT $LN9@PMCCS_Grea

; 1222 :         }

  0002c	48 8d 05 00 00
	00 00		 lea	 rax, __tryend$PMCCS_GreatestCommonDivisor_X_X$1
$LN9@PMCCS_Grea:
  00033	48 83 c4 28	 add	 rsp, 40			; 00000028H
  00037	5f		 pop	 rdi
  00038	5d		 pop	 rbp
  00039	c3		 ret	 0
  0003a	cc		 int	 3
PMCCS_GreatestCommonDivisor_X_X$catch$0 ENDP
text$x	ENDS
; Function compile flags: /Odtp /RTCsu /ZI
;	COMDAT text$x
text$x	SEGMENT
ex$4 = 8
$T5 = 228
$T6 = 264
u$ = 320
v$ = 328
w$ = 336
PMCCS_GreatestCommonDivisor_X_X$catch$0 PROC

; 1220 :         {

  00000	48 89 4c 24 08	 mov	 QWORD PTR [rsp+8], rcx
  00005	48 89 54 24 10	 mov	 QWORD PTR [rsp+16], rdx
  0000a	55		 push	 rbp
  0000b	57		 push	 rdi
  0000c	48 83 ec 28	 sub	 rsp, 40			; 00000028H
  00010	48 8d 6a 20	 lea	 rbp, QWORD PTR [rdx+32]
__catch$PMCCS_GreatestCommonDivisor_X_X$0:

; 1221 :             return (ex.GetStatusCode());

  00014	48 8b 4d 08	 mov	 rcx, QWORD PTR ex$4[rbp]
  00018	e8 00 00 00 00	 call	 ?GetStatusCode@Exception@Internal@Core@Math@Palmtree@@QEBAHXZ ; Palmtree::Math::Core::Internal::Exception::GetStatusCode
  0001d	89 85 e4 00 00
	00		 mov	 DWORD PTR $T5[rbp], eax
  00023	48 8d 05 00 00
	00 00		 lea	 rax, $LN8@PMCCS_Grea
  0002a	eb 07		 jmp	 SHORT $LN9@PMCCS_Grea

; 1222 :         }

  0002c	48 8d 05 00 00
	00 00		 lea	 rax, __tryend$PMCCS_GreatestCommonDivisor_X_X$1
$LN9@PMCCS_Grea:
  00033	48 83 c4 28	 add	 rsp, 40			; 00000028H
  00037	5f		 pop	 rdi
  00038	5d		 pop	 rbp
  00039	c3		 ret	 0
  0003a	cc		 int	 3
PMCCS_GreatestCommonDivisor_X_X$catch$0 ENDP
text$x	ENDS
; Function compile flags: /Odtp /RTCsu /ZI
; File z:\sources\lunor\repos\rougemeilland\palmtree.math.core.uint\palmtree.math.core.uint\pmc_interface_csharp.cpp
;	COMDAT PMCCS_GreatestCommonDivisor_X_L
_TEXT	SEGMENT
ex$4 = 8
$T5 = 228
$T6 = 264
u$ = 320
v$ = 328
w$ = 336
PMCCS_GreatestCommonDivisor_X_L PROC			; COMDAT

; 1196 :     {

$LN10:
  00000	4c 89 44 24 18	 mov	 QWORD PTR [rsp+24], r8
  00005	48 89 54 24 10	 mov	 QWORD PTR [rsp+16], rdx
  0000a	48 89 4c 24 08	 mov	 QWORD PTR [rsp+8], rcx
  0000f	55		 push	 rbp
  00010	57		 push	 rdi
  00011	48 81 ec 48 01
	00 00		 sub	 rsp, 328		; 00000148H
  00018	48 8d 6c 24 20	 lea	 rbp, QWORD PTR [rsp+32]
  0001d	48 8b fc	 mov	 rdi, rsp
  00020	b9 52 00 00 00	 mov	 ecx, 82			; 00000052H
  00025	b8 cc cc cc cc	 mov	 eax, -858993460		; ccccccccH
  0002a	f3 ab		 rep stosd
  0002c	48 8b 8c 24 68
	01 00 00	 mov	 rcx, QWORD PTR [rsp+360]
  00034	48 c7 85 08 01
	00 00 fe ff ff
	ff		 mov	 QWORD PTR $T6[rbp], -2
  0003f	48 8d 0d 00 00
	00 00		 lea	 rcx, OFFSET FLAT:__C21BA676_pmc_interface_csharp@cpp
  00046	e8 00 00 00 00	 call	 __CheckForDebuggerJustMyCode

; 1197 :         if (w == nullptr)

  0004b	48 83 bd 50 01
	00 00 00	 cmp	 QWORD PTR w$[rbp], 0
  00053	75 07		 jne	 SHORT $LN2@PMCCS_Grea

; 1198 :             return (PMC_STATUS_ARGUMENT_NULL_ERROR);

  00055	b8 fe ff ff ff	 mov	 eax, -2
  0005a	eb 29		 jmp	 SHORT $LN1@PMCCS_Grea
$LN2@PMCCS_Grea:

; 1199 :         try
; 1200 :         {
; 1201 :             *w = PMC_GreatestCommonDivisor_X_L(u, v);

  0005c	48 8b 95 48 01
	00 00		 mov	 rdx, QWORD PTR v$[rbp]
  00063	48 8b 8d 40 01
	00 00		 mov	 rcx, QWORD PTR u$[rbp]
  0006a	e8 00 00 00 00	 call	 ?PMC_GreatestCommonDivisor_X_L@Internal@Core@Math@Palmtree@@YAPEAU__tag_PMC_HANDLE_UINT@1234@PEAU51234@_K@Z ; Palmtree::Math::Core::Internal::PMC_GreatestCommonDivisor_X_L
  0006f	48 8b 8d 50 01
	00 00		 mov	 rcx, QWORD PTR w$[rbp]
  00076	48 89 01	 mov	 QWORD PTR [rcx], rax

; 1202 :             return (PMC_STATUS_OK);

  00079	33 c0		 xor	 eax, eax
  0007b	eb 08		 jmp	 SHORT $LN1@PMCCS_Grea
__tryend$PMCCS_GreatestCommonDivisor_X_L$1:
  0007d	eb 06		 jmp	 SHORT $LN1@PMCCS_Grea
$LN8@PMCCS_Grea:

; 1203 :         }
; 1204 :         catch (const Palmtree::Math::Core::Internal::Exception& ex)
; 1205 :         {
; 1206 :             return (ex.GetStatusCode());

  0007f	8b 85 e4 00 00
	00		 mov	 eax, DWORD PTR $T5[rbp]
$LN1@PMCCS_Grea:

; 1207 :         }
; 1208 :     }

  00085	48 8b f8	 mov	 rdi, rax
  00088	48 8d 4d e0	 lea	 rcx, QWORD PTR [rbp-32]
  0008c	48 8d 15 00 00
	00 00		 lea	 rdx, OFFSET FLAT:PMCCS_GreatestCommonDivisor_X_L$rtcFrameData
  00093	e8 00 00 00 00	 call	 _RTC_CheckStackVars
  00098	48 8b c7	 mov	 rax, rdi
  0009b	48 8d a5 28 01
	00 00		 lea	 rsp, QWORD PTR [rbp+296]
  000a2	5f		 pop	 rdi
  000a3	5d		 pop	 rbp
  000a4	c3		 ret	 0
  000a5	cc		 int	 3
PMCCS_GreatestCommonDivisor_X_L ENDP
_TEXT	ENDS
;	COMDAT text$x
text$x	SEGMENT
ex$4 = 8
$T5 = 228
$T6 = 264
u$ = 320
v$ = 328
w$ = 336
PMCCS_GreatestCommonDivisor_X_L$catch$0 PROC

; 1203 :         }
; 1204 :         catch (const Palmtree::Math::Core::Internal::Exception& ex)
; 1205 :         {

  00000	48 89 4c 24 08	 mov	 QWORD PTR [rsp+8], rcx
  00005	48 89 54 24 10	 mov	 QWORD PTR [rsp+16], rdx
  0000a	55		 push	 rbp
  0000b	57		 push	 rdi
  0000c	48 83 ec 28	 sub	 rsp, 40			; 00000028H
  00010	48 8d 6a 20	 lea	 rbp, QWORD PTR [rdx+32]
__catch$PMCCS_GreatestCommonDivisor_X_L$0:

; 1203 :         }
; 1204 :         catch (const Palmtree::Math::Core::Internal::Exception& ex)
; 1205 :         {
; 1206 :             return (ex.GetStatusCode());

  00014	48 8b 4d 08	 mov	 rcx, QWORD PTR ex$4[rbp]
  00018	e8 00 00 00 00	 call	 ?GetStatusCode@Exception@Internal@Core@Math@Palmtree@@QEBAHXZ ; Palmtree::Math::Core::Internal::Exception::GetStatusCode
  0001d	89 85 e4 00 00
	00		 mov	 DWORD PTR $T5[rbp], eax
  00023	48 8d 05 00 00
	00 00		 lea	 rax, $LN8@PMCCS_Grea
  0002a	eb 07		 jmp	 SHORT $LN9@PMCCS_Grea

; 1207 :         }

  0002c	48 8d 05 00 00
	00 00		 lea	 rax, __tryend$PMCCS_GreatestCommonDivisor_X_L$1
$LN9@PMCCS_Grea:
  00033	48 83 c4 28	 add	 rsp, 40			; 00000028H
  00037	5f		 pop	 rdi
  00038	5d		 pop	 rbp
  00039	c3		 ret	 0
  0003a	cc		 int	 3
PMCCS_GreatestCommonDivisor_X_L$catch$0 ENDP
text$x	ENDS
; Function compile flags: /Odtp /RTCsu /ZI
;	COMDAT text$x
text$x	SEGMENT
ex$4 = 8
$T5 = 228
$T6 = 264
u$ = 320
v$ = 328
w$ = 336
PMCCS_GreatestCommonDivisor_X_L$catch$0 PROC

; 1205 :         {

  00000	48 89 4c 24 08	 mov	 QWORD PTR [rsp+8], rcx
  00005	48 89 54 24 10	 mov	 QWORD PTR [rsp+16], rdx
  0000a	55		 push	 rbp
  0000b	57		 push	 rdi
  0000c	48 83 ec 28	 sub	 rsp, 40			; 00000028H
  00010	48 8d 6a 20	 lea	 rbp, QWORD PTR [rdx+32]
__catch$PMCCS_GreatestCommonDivisor_X_L$0:

; 1206 :             return (ex.GetStatusCode());

  00014	48 8b 4d 08	 mov	 rcx, QWORD PTR ex$4[rbp]
  00018	e8 00 00 00 00	 call	 ?GetStatusCode@Exception@Internal@Core@Math@Palmtree@@QEBAHXZ ; Palmtree::Math::Core::Internal::Exception::GetStatusCode
  0001d	89 85 e4 00 00
	00		 mov	 DWORD PTR $T5[rbp], eax
  00023	48 8d 05 00 00
	00 00		 lea	 rax, $LN8@PMCCS_Grea
  0002a	eb 07		 jmp	 SHORT $LN9@PMCCS_Grea

; 1207 :         }

  0002c	48 8d 05 00 00
	00 00		 lea	 rax, __tryend$PMCCS_GreatestCommonDivisor_X_L$1
$LN9@PMCCS_Grea:
  00033	48 83 c4 28	 add	 rsp, 40			; 00000028H
  00037	5f		 pop	 rdi
  00038	5d		 pop	 rbp
  00039	c3		 ret	 0
  0003a	cc		 int	 3
PMCCS_GreatestCommonDivisor_X_L$catch$0 ENDP
text$x	ENDS
; Function compile flags: /Odtp /RTCsu /ZI
; File z:\sources\lunor\repos\rougemeilland\palmtree.math.core.uint\palmtree.math.core.uint\pmc_interface_csharp.cpp
;	COMDAT PMCCS_GreatestCommonDivisor_X_I
_TEXT	SEGMENT
ex$4 = 8
$T5 = 228
$T6 = 264
u$ = 320
v$ = 328
w$ = 336
PMCCS_GreatestCommonDivisor_X_I PROC			; COMDAT

; 1181 :     {

$LN10:
  00000	4c 89 44 24 18	 mov	 QWORD PTR [rsp+24], r8
  00005	89 54 24 10	 mov	 DWORD PTR [rsp+16], edx
  00009	48 89 4c 24 08	 mov	 QWORD PTR [rsp+8], rcx
  0000e	55		 push	 rbp
  0000f	57		 push	 rdi
  00010	48 81 ec 48 01
	00 00		 sub	 rsp, 328		; 00000148H
  00017	48 8d 6c 24 20	 lea	 rbp, QWORD PTR [rsp+32]
  0001c	48 8b fc	 mov	 rdi, rsp
  0001f	b9 52 00 00 00	 mov	 ecx, 82			; 00000052H
  00024	b8 cc cc cc cc	 mov	 eax, -858993460		; ccccccccH
  00029	f3 ab		 rep stosd
  0002b	48 8b 8c 24 68
	01 00 00	 mov	 rcx, QWORD PTR [rsp+360]
  00033	48 c7 85 08 01
	00 00 fe ff ff
	ff		 mov	 QWORD PTR $T6[rbp], -2
  0003e	48 8d 0d 00 00
	00 00		 lea	 rcx, OFFSET FLAT:__C21BA676_pmc_interface_csharp@cpp
  00045	e8 00 00 00 00	 call	 __CheckForDebuggerJustMyCode

; 1182 :         if (w == nullptr)

  0004a	48 83 bd 50 01
	00 00 00	 cmp	 QWORD PTR w$[rbp], 0
  00052	75 07		 jne	 SHORT $LN2@PMCCS_Grea

; 1183 :             return (PMC_STATUS_ARGUMENT_NULL_ERROR);

  00054	b8 fe ff ff ff	 mov	 eax, -2
  00059	eb 28		 jmp	 SHORT $LN1@PMCCS_Grea
$LN2@PMCCS_Grea:

; 1184 :         try
; 1185 :         {
; 1186 :             *w = PMC_GreatestCommonDivisor_X_I(u, v);

  0005b	8b 95 48 01 00
	00		 mov	 edx, DWORD PTR v$[rbp]
  00061	48 8b 8d 40 01
	00 00		 mov	 rcx, QWORD PTR u$[rbp]
  00068	e8 00 00 00 00	 call	 ?PMC_GreatestCommonDivisor_X_I@Internal@Core@Math@Palmtree@@YAPEAU__tag_PMC_HANDLE_UINT@1234@PEAU51234@I@Z ; Palmtree::Math::Core::Internal::PMC_GreatestCommonDivisor_X_I
  0006d	48 8b 8d 50 01
	00 00		 mov	 rcx, QWORD PTR w$[rbp]
  00074	48 89 01	 mov	 QWORD PTR [rcx], rax

; 1187 :             return (PMC_STATUS_OK);

  00077	33 c0		 xor	 eax, eax
  00079	eb 08		 jmp	 SHORT $LN1@PMCCS_Grea
__tryend$PMCCS_GreatestCommonDivisor_X_I$1:
  0007b	eb 06		 jmp	 SHORT $LN1@PMCCS_Grea
$LN8@PMCCS_Grea:

; 1188 :         }
; 1189 :         catch (const Palmtree::Math::Core::Internal::Exception& ex)
; 1190 :         {
; 1191 :             return (ex.GetStatusCode());

  0007d	8b 85 e4 00 00
	00		 mov	 eax, DWORD PTR $T5[rbp]
$LN1@PMCCS_Grea:

; 1192 :         }
; 1193 :     }

  00083	48 8b f8	 mov	 rdi, rax
  00086	48 8d 4d e0	 lea	 rcx, QWORD PTR [rbp-32]
  0008a	48 8d 15 00 00
	00 00		 lea	 rdx, OFFSET FLAT:PMCCS_GreatestCommonDivisor_X_I$rtcFrameData
  00091	e8 00 00 00 00	 call	 _RTC_CheckStackVars
  00096	48 8b c7	 mov	 rax, rdi
  00099	48 8d a5 28 01
	00 00		 lea	 rsp, QWORD PTR [rbp+296]
  000a0	5f		 pop	 rdi
  000a1	5d		 pop	 rbp
  000a2	c3		 ret	 0
  000a3	cc		 int	 3
PMCCS_GreatestCommonDivisor_X_I ENDP
_TEXT	ENDS
;	COMDAT text$x
text$x	SEGMENT
ex$4 = 8
$T5 = 228
$T6 = 264
u$ = 320
v$ = 328
w$ = 336
PMCCS_GreatestCommonDivisor_X_I$catch$0 PROC

; 1188 :         }
; 1189 :         catch (const Palmtree::Math::Core::Internal::Exception& ex)
; 1190 :         {

  00000	48 89 4c 24 08	 mov	 QWORD PTR [rsp+8], rcx
  00005	48 89 54 24 10	 mov	 QWORD PTR [rsp+16], rdx
  0000a	55		 push	 rbp
  0000b	57		 push	 rdi
  0000c	48 83 ec 28	 sub	 rsp, 40			; 00000028H
  00010	48 8d 6a 20	 lea	 rbp, QWORD PTR [rdx+32]
__catch$PMCCS_GreatestCommonDivisor_X_I$0:

; 1188 :         }
; 1189 :         catch (const Palmtree::Math::Core::Internal::Exception& ex)
; 1190 :         {
; 1191 :             return (ex.GetStatusCode());

  00014	48 8b 4d 08	 mov	 rcx, QWORD PTR ex$4[rbp]
  00018	e8 00 00 00 00	 call	 ?GetStatusCode@Exception@Internal@Core@Math@Palmtree@@QEBAHXZ ; Palmtree::Math::Core::Internal::Exception::GetStatusCode
  0001d	89 85 e4 00 00
	00		 mov	 DWORD PTR $T5[rbp], eax
  00023	48 8d 05 00 00
	00 00		 lea	 rax, $LN8@PMCCS_Grea
  0002a	eb 07		 jmp	 SHORT $LN9@PMCCS_Grea

; 1192 :         }

  0002c	48 8d 05 00 00
	00 00		 lea	 rax, __tryend$PMCCS_GreatestCommonDivisor_X_I$1
$LN9@PMCCS_Grea:
  00033	48 83 c4 28	 add	 rsp, 40			; 00000028H
  00037	5f		 pop	 rdi
  00038	5d		 pop	 rbp
  00039	c3		 ret	 0
  0003a	cc		 int	 3
PMCCS_GreatestCommonDivisor_X_I$catch$0 ENDP
text$x	ENDS
; Function compile flags: /Odtp /RTCsu /ZI
;	COMDAT text$x
text$x	SEGMENT
ex$4 = 8
$T5 = 228
$T6 = 264
u$ = 320
v$ = 328
w$ = 336
PMCCS_GreatestCommonDivisor_X_I$catch$0 PROC

; 1190 :         {

  00000	48 89 4c 24 08	 mov	 QWORD PTR [rsp+8], rcx
  00005	48 89 54 24 10	 mov	 QWORD PTR [rsp+16], rdx
  0000a	55		 push	 rbp
  0000b	57		 push	 rdi
  0000c	48 83 ec 28	 sub	 rsp, 40			; 00000028H
  00010	48 8d 6a 20	 lea	 rbp, QWORD PTR [rdx+32]
__catch$PMCCS_GreatestCommonDivisor_X_I$0:

; 1191 :             return (ex.GetStatusCode());

  00014	48 8b 4d 08	 mov	 rcx, QWORD PTR ex$4[rbp]
  00018	e8 00 00 00 00	 call	 ?GetStatusCode@Exception@Internal@Core@Math@Palmtree@@QEBAHXZ ; Palmtree::Math::Core::Internal::Exception::GetStatusCode
  0001d	89 85 e4 00 00
	00		 mov	 DWORD PTR $T5[rbp], eax
  00023	48 8d 05 00 00
	00 00		 lea	 rax, $LN8@PMCCS_Grea
  0002a	eb 07		 jmp	 SHORT $LN9@PMCCS_Grea

; 1192 :         }

  0002c	48 8d 05 00 00
	00 00		 lea	 rax, __tryend$PMCCS_GreatestCommonDivisor_X_I$1
$LN9@PMCCS_Grea:
  00033	48 83 c4 28	 add	 rsp, 40			; 00000028H
  00037	5f		 pop	 rdi
  00038	5d		 pop	 rbp
  00039	c3		 ret	 0
  0003a	cc		 int	 3
PMCCS_GreatestCommonDivisor_X_I$catch$0 ENDP
text$x	ENDS
; Function compile flags: /Odtp /RTCsu /ZI
; File z:\sources\lunor\repos\rougemeilland\palmtree.math.core.uint\palmtree.math.core.uint\pmc_interface_csharp.cpp
;	COMDAT PMCCS_GreatestCommonDivisor_L_X
_TEXT	SEGMENT
ex$4 = 8
$T5 = 228
$T6 = 264
u$ = 320
v$ = 328
w$ = 336
PMCCS_GreatestCommonDivisor_L_X PROC			; COMDAT

; 1166 :     {

$LN10:
  00000	4c 89 44 24 18	 mov	 QWORD PTR [rsp+24], r8
  00005	48 89 54 24 10	 mov	 QWORD PTR [rsp+16], rdx
  0000a	48 89 4c 24 08	 mov	 QWORD PTR [rsp+8], rcx
  0000f	55		 push	 rbp
  00010	57		 push	 rdi
  00011	48 81 ec 48 01
	00 00		 sub	 rsp, 328		; 00000148H
  00018	48 8d 6c 24 20	 lea	 rbp, QWORD PTR [rsp+32]
  0001d	48 8b fc	 mov	 rdi, rsp
  00020	b9 52 00 00 00	 mov	 ecx, 82			; 00000052H
  00025	b8 cc cc cc cc	 mov	 eax, -858993460		; ccccccccH
  0002a	f3 ab		 rep stosd
  0002c	48 8b 8c 24 68
	01 00 00	 mov	 rcx, QWORD PTR [rsp+360]
  00034	48 c7 85 08 01
	00 00 fe ff ff
	ff		 mov	 QWORD PTR $T6[rbp], -2
  0003f	48 8d 0d 00 00
	00 00		 lea	 rcx, OFFSET FLAT:__C21BA676_pmc_interface_csharp@cpp
  00046	e8 00 00 00 00	 call	 __CheckForDebuggerJustMyCode

; 1167 :         if (w == nullptr)

  0004b	48 83 bd 50 01
	00 00 00	 cmp	 QWORD PTR w$[rbp], 0
  00053	75 07		 jne	 SHORT $LN2@PMCCS_Grea

; 1168 :             return (PMC_STATUS_ARGUMENT_NULL_ERROR);

  00055	b8 fe ff ff ff	 mov	 eax, -2
  0005a	eb 29		 jmp	 SHORT $LN1@PMCCS_Grea
$LN2@PMCCS_Grea:

; 1169 :         try
; 1170 :         {
; 1171 :             *w = PMC_GreatestCommonDivisor_L_X(u, v);

  0005c	48 8b 95 48 01
	00 00		 mov	 rdx, QWORD PTR v$[rbp]
  00063	48 8b 8d 40 01
	00 00		 mov	 rcx, QWORD PTR u$[rbp]
  0006a	e8 00 00 00 00	 call	 ?PMC_GreatestCommonDivisor_L_X@Internal@Core@Math@Palmtree@@YAPEAU__tag_PMC_HANDLE_UINT@1234@_KPEAU51234@@Z ; Palmtree::Math::Core::Internal::PMC_GreatestCommonDivisor_L_X
  0006f	48 8b 8d 50 01
	00 00		 mov	 rcx, QWORD PTR w$[rbp]
  00076	48 89 01	 mov	 QWORD PTR [rcx], rax

; 1172 :             return (PMC_STATUS_OK);

  00079	33 c0		 xor	 eax, eax
  0007b	eb 08		 jmp	 SHORT $LN1@PMCCS_Grea
__tryend$PMCCS_GreatestCommonDivisor_L_X$1:
  0007d	eb 06		 jmp	 SHORT $LN1@PMCCS_Grea
$LN8@PMCCS_Grea:

; 1173 :         }
; 1174 :         catch (const Palmtree::Math::Core::Internal::Exception& ex)
; 1175 :         {
; 1176 :             return (ex.GetStatusCode());

  0007f	8b 85 e4 00 00
	00		 mov	 eax, DWORD PTR $T5[rbp]
$LN1@PMCCS_Grea:

; 1177 :         }
; 1178 :     }

  00085	48 8b f8	 mov	 rdi, rax
  00088	48 8d 4d e0	 lea	 rcx, QWORD PTR [rbp-32]
  0008c	48 8d 15 00 00
	00 00		 lea	 rdx, OFFSET FLAT:PMCCS_GreatestCommonDivisor_L_X$rtcFrameData
  00093	e8 00 00 00 00	 call	 _RTC_CheckStackVars
  00098	48 8b c7	 mov	 rax, rdi
  0009b	48 8d a5 28 01
	00 00		 lea	 rsp, QWORD PTR [rbp+296]
  000a2	5f		 pop	 rdi
  000a3	5d		 pop	 rbp
  000a4	c3		 ret	 0
  000a5	cc		 int	 3
PMCCS_GreatestCommonDivisor_L_X ENDP
_TEXT	ENDS
;	COMDAT text$x
text$x	SEGMENT
ex$4 = 8
$T5 = 228
$T6 = 264
u$ = 320
v$ = 328
w$ = 336
PMCCS_GreatestCommonDivisor_L_X$catch$0 PROC

; 1173 :         }
; 1174 :         catch (const Palmtree::Math::Core::Internal::Exception& ex)
; 1175 :         {

  00000	48 89 4c 24 08	 mov	 QWORD PTR [rsp+8], rcx
  00005	48 89 54 24 10	 mov	 QWORD PTR [rsp+16], rdx
  0000a	55		 push	 rbp
  0000b	57		 push	 rdi
  0000c	48 83 ec 28	 sub	 rsp, 40			; 00000028H
  00010	48 8d 6a 20	 lea	 rbp, QWORD PTR [rdx+32]
__catch$PMCCS_GreatestCommonDivisor_L_X$0:

; 1173 :         }
; 1174 :         catch (const Palmtree::Math::Core::Internal::Exception& ex)
; 1175 :         {
; 1176 :             return (ex.GetStatusCode());

  00014	48 8b 4d 08	 mov	 rcx, QWORD PTR ex$4[rbp]
  00018	e8 00 00 00 00	 call	 ?GetStatusCode@Exception@Internal@Core@Math@Palmtree@@QEBAHXZ ; Palmtree::Math::Core::Internal::Exception::GetStatusCode
  0001d	89 85 e4 00 00
	00		 mov	 DWORD PTR $T5[rbp], eax
  00023	48 8d 05 00 00
	00 00		 lea	 rax, $LN8@PMCCS_Grea
  0002a	eb 07		 jmp	 SHORT $LN9@PMCCS_Grea

; 1177 :         }

  0002c	48 8d 05 00 00
	00 00		 lea	 rax, __tryend$PMCCS_GreatestCommonDivisor_L_X$1
$LN9@PMCCS_Grea:
  00033	48 83 c4 28	 add	 rsp, 40			; 00000028H
  00037	5f		 pop	 rdi
  00038	5d		 pop	 rbp
  00039	c3		 ret	 0
  0003a	cc		 int	 3
PMCCS_GreatestCommonDivisor_L_X$catch$0 ENDP
text$x	ENDS
; Function compile flags: /Odtp /RTCsu /ZI
;	COMDAT text$x
text$x	SEGMENT
ex$4 = 8
$T5 = 228
$T6 = 264
u$ = 320
v$ = 328
w$ = 336
PMCCS_GreatestCommonDivisor_L_X$catch$0 PROC

; 1175 :         {

  00000	48 89 4c 24 08	 mov	 QWORD PTR [rsp+8], rcx
  00005	48 89 54 24 10	 mov	 QWORD PTR [rsp+16], rdx
  0000a	55		 push	 rbp
  0000b	57		 push	 rdi
  0000c	48 83 ec 28	 sub	 rsp, 40			; 00000028H
  00010	48 8d 6a 20	 lea	 rbp, QWORD PTR [rdx+32]
__catch$PMCCS_GreatestCommonDivisor_L_X$0:

; 1176 :             return (ex.GetStatusCode());

  00014	48 8b 4d 08	 mov	 rcx, QWORD PTR ex$4[rbp]
  00018	e8 00 00 00 00	 call	 ?GetStatusCode@Exception@Internal@Core@Math@Palmtree@@QEBAHXZ ; Palmtree::Math::Core::Internal::Exception::GetStatusCode
  0001d	89 85 e4 00 00
	00		 mov	 DWORD PTR $T5[rbp], eax
  00023	48 8d 05 00 00
	00 00		 lea	 rax, $LN8@PMCCS_Grea
  0002a	eb 07		 jmp	 SHORT $LN9@PMCCS_Grea

; 1177 :         }

  0002c	48 8d 05 00 00
	00 00		 lea	 rax, __tryend$PMCCS_GreatestCommonDivisor_L_X$1
$LN9@PMCCS_Grea:
  00033	48 83 c4 28	 add	 rsp, 40			; 00000028H
  00037	5f		 pop	 rdi
  00038	5d		 pop	 rbp
  00039	c3		 ret	 0
  0003a	cc		 int	 3
PMCCS_GreatestCommonDivisor_L_X$catch$0 ENDP
text$x	ENDS
; Function compile flags: /Odtp /RTCsu /ZI
; File z:\sources\lunor\repos\rougemeilland\palmtree.math.core.uint\palmtree.math.core.uint\pmc_interface_csharp.cpp
;	COMDAT PMCCS_GreatestCommonDivisor_I_X
_TEXT	SEGMENT
ex$4 = 8
$T5 = 228
$T6 = 264
u$ = 320
v$ = 328
w$ = 336
PMCCS_GreatestCommonDivisor_I_X PROC			; COMDAT

; 1151 :     {

$LN10:
  00000	4c 89 44 24 18	 mov	 QWORD PTR [rsp+24], r8
  00005	48 89 54 24 10	 mov	 QWORD PTR [rsp+16], rdx
  0000a	89 4c 24 08	 mov	 DWORD PTR [rsp+8], ecx
  0000e	55		 push	 rbp
  0000f	57		 push	 rdi
  00010	48 81 ec 48 01
	00 00		 sub	 rsp, 328		; 00000148H
  00017	48 8d 6c 24 20	 lea	 rbp, QWORD PTR [rsp+32]
  0001c	48 8b fc	 mov	 rdi, rsp
  0001f	b9 52 00 00 00	 mov	 ecx, 82			; 00000052H
  00024	b8 cc cc cc cc	 mov	 eax, -858993460		; ccccccccH
  00029	f3 ab		 rep stosd
  0002b	8b 8c 24 68 01
	00 00		 mov	 ecx, DWORD PTR [rsp+360]
  00032	48 c7 85 08 01
	00 00 fe ff ff
	ff		 mov	 QWORD PTR $T6[rbp], -2
  0003d	48 8d 0d 00 00
	00 00		 lea	 rcx, OFFSET FLAT:__C21BA676_pmc_interface_csharp@cpp
  00044	e8 00 00 00 00	 call	 __CheckForDebuggerJustMyCode

; 1152 :         if (w == nullptr)

  00049	48 83 bd 50 01
	00 00 00	 cmp	 QWORD PTR w$[rbp], 0
  00051	75 07		 jne	 SHORT $LN2@PMCCS_Grea

; 1153 :             return (PMC_STATUS_ARGUMENT_NULL_ERROR);

  00053	b8 fe ff ff ff	 mov	 eax, -2
  00058	eb 28		 jmp	 SHORT $LN1@PMCCS_Grea
$LN2@PMCCS_Grea:

; 1154 :         try
; 1155 :         {
; 1156 :             *w = PMC_GreatestCommonDivisor_I_X(u, v);

  0005a	48 8b 95 48 01
	00 00		 mov	 rdx, QWORD PTR v$[rbp]
  00061	8b 8d 40 01 00
	00		 mov	 ecx, DWORD PTR u$[rbp]
  00067	e8 00 00 00 00	 call	 ?PMC_GreatestCommonDivisor_I_X@Internal@Core@Math@Palmtree@@YAPEAU__tag_PMC_HANDLE_UINT@1234@IPEAU51234@@Z ; Palmtree::Math::Core::Internal::PMC_GreatestCommonDivisor_I_X
  0006c	48 8b 8d 50 01
	00 00		 mov	 rcx, QWORD PTR w$[rbp]
  00073	48 89 01	 mov	 QWORD PTR [rcx], rax

; 1157 :             return (PMC_STATUS_OK);

  00076	33 c0		 xor	 eax, eax
  00078	eb 08		 jmp	 SHORT $LN1@PMCCS_Grea
__tryend$PMCCS_GreatestCommonDivisor_I_X$1:
  0007a	eb 06		 jmp	 SHORT $LN1@PMCCS_Grea
$LN8@PMCCS_Grea:

; 1158 :         }
; 1159 :         catch (const Palmtree::Math::Core::Internal::Exception& ex)
; 1160 :         {
; 1161 :             return (ex.GetStatusCode());

  0007c	8b 85 e4 00 00
	00		 mov	 eax, DWORD PTR $T5[rbp]
$LN1@PMCCS_Grea:

; 1162 :         }
; 1163 :     }

  00082	48 8b f8	 mov	 rdi, rax
  00085	48 8d 4d e0	 lea	 rcx, QWORD PTR [rbp-32]
  00089	48 8d 15 00 00
	00 00		 lea	 rdx, OFFSET FLAT:PMCCS_GreatestCommonDivisor_I_X$rtcFrameData
  00090	e8 00 00 00 00	 call	 _RTC_CheckStackVars
  00095	48 8b c7	 mov	 rax, rdi
  00098	48 8d a5 28 01
	00 00		 lea	 rsp, QWORD PTR [rbp+296]
  0009f	5f		 pop	 rdi
  000a0	5d		 pop	 rbp
  000a1	c3		 ret	 0
  000a2	cc		 int	 3
PMCCS_GreatestCommonDivisor_I_X ENDP
_TEXT	ENDS
;	COMDAT text$x
text$x	SEGMENT
ex$4 = 8
$T5 = 228
$T6 = 264
u$ = 320
v$ = 328
w$ = 336
PMCCS_GreatestCommonDivisor_I_X$catch$0 PROC

; 1158 :         }
; 1159 :         catch (const Palmtree::Math::Core::Internal::Exception& ex)
; 1160 :         {

  00000	48 89 4c 24 08	 mov	 QWORD PTR [rsp+8], rcx
  00005	48 89 54 24 10	 mov	 QWORD PTR [rsp+16], rdx
  0000a	55		 push	 rbp
  0000b	57		 push	 rdi
  0000c	48 83 ec 28	 sub	 rsp, 40			; 00000028H
  00010	48 8d 6a 20	 lea	 rbp, QWORD PTR [rdx+32]
__catch$PMCCS_GreatestCommonDivisor_I_X$0:

; 1158 :         }
; 1159 :         catch (const Palmtree::Math::Core::Internal::Exception& ex)
; 1160 :         {
; 1161 :             return (ex.GetStatusCode());

  00014	48 8b 4d 08	 mov	 rcx, QWORD PTR ex$4[rbp]
  00018	e8 00 00 00 00	 call	 ?GetStatusCode@Exception@Internal@Core@Math@Palmtree@@QEBAHXZ ; Palmtree::Math::Core::Internal::Exception::GetStatusCode
  0001d	89 85 e4 00 00
	00		 mov	 DWORD PTR $T5[rbp], eax
  00023	48 8d 05 00 00
	00 00		 lea	 rax, $LN8@PMCCS_Grea
  0002a	eb 07		 jmp	 SHORT $LN9@PMCCS_Grea

; 1162 :         }

  0002c	48 8d 05 00 00
	00 00		 lea	 rax, __tryend$PMCCS_GreatestCommonDivisor_I_X$1
$LN9@PMCCS_Grea:
  00033	48 83 c4 28	 add	 rsp, 40			; 00000028H
  00037	5f		 pop	 rdi
  00038	5d		 pop	 rbp
  00039	c3		 ret	 0
  0003a	cc		 int	 3
PMCCS_GreatestCommonDivisor_I_X$catch$0 ENDP
text$x	ENDS
; Function compile flags: /Odtp /RTCsu /ZI
;	COMDAT text$x
text$x	SEGMENT
ex$4 = 8
$T5 = 228
$T6 = 264
u$ = 320
v$ = 328
w$ = 336
PMCCS_GreatestCommonDivisor_I_X$catch$0 PROC

; 1160 :         {

  00000	48 89 4c 24 08	 mov	 QWORD PTR [rsp+8], rcx
  00005	48 89 54 24 10	 mov	 QWORD PTR [rsp+16], rdx
  0000a	55		 push	 rbp
  0000b	57		 push	 rdi
  0000c	48 83 ec 28	 sub	 rsp, 40			; 00000028H
  00010	48 8d 6a 20	 lea	 rbp, QWORD PTR [rdx+32]
__catch$PMCCS_GreatestCommonDivisor_I_X$0:

; 1161 :             return (ex.GetStatusCode());

  00014	48 8b 4d 08	 mov	 rcx, QWORD PTR ex$4[rbp]
  00018	e8 00 00 00 00	 call	 ?GetStatusCode@Exception@Internal@Core@Math@Palmtree@@QEBAHXZ ; Palmtree::Math::Core::Internal::Exception::GetStatusCode
  0001d	89 85 e4 00 00
	00		 mov	 DWORD PTR $T5[rbp], eax
  00023	48 8d 05 00 00
	00 00		 lea	 rax, $LN8@PMCCS_Grea
  0002a	eb 07		 jmp	 SHORT $LN9@PMCCS_Grea

; 1162 :         }

  0002c	48 8d 05 00 00
	00 00		 lea	 rax, __tryend$PMCCS_GreatestCommonDivisor_I_X$1
$LN9@PMCCS_Grea:
  00033	48 83 c4 28	 add	 rsp, 40			; 00000028H
  00037	5f		 pop	 rdi
  00038	5d		 pop	 rbp
  00039	c3		 ret	 0
  0003a	cc		 int	 3
PMCCS_GreatestCommonDivisor_I_X$catch$0 ENDP
text$x	ENDS
; Function compile flags: /Odtp /RTCsu /ZI
; File z:\sources\lunor\repos\rougemeilland\palmtree.math.core.uint\palmtree.math.core.uint\pmc_interface_csharp.cpp
;	COMDAT PMCCS_Equals_X_X
_TEXT	SEGMENT
ex$4 = 8
$T5 = 228
$T6 = 264
u$ = 320
v$ = 328
w$ = 336
PMCCS_Equals_X_X PROC					; COMDAT

; 1136 :     {

$LN10:
  00000	4c 89 44 24 18	 mov	 QWORD PTR [rsp+24], r8
  00005	48 89 54 24 10	 mov	 QWORD PTR [rsp+16], rdx
  0000a	48 89 4c 24 08	 mov	 QWORD PTR [rsp+8], rcx
  0000f	55		 push	 rbp
  00010	57		 push	 rdi
  00011	48 81 ec 48 01
	00 00		 sub	 rsp, 328		; 00000148H
  00018	48 8d 6c 24 20	 lea	 rbp, QWORD PTR [rsp+32]
  0001d	48 8b fc	 mov	 rdi, rsp
  00020	b9 52 00 00 00	 mov	 ecx, 82			; 00000052H
  00025	b8 cc cc cc cc	 mov	 eax, -858993460		; ccccccccH
  0002a	f3 ab		 rep stosd
  0002c	48 8b 8c 24 68
	01 00 00	 mov	 rcx, QWORD PTR [rsp+360]
  00034	48 c7 85 08 01
	00 00 fe ff ff
	ff		 mov	 QWORD PTR $T6[rbp], -2
  0003f	48 8d 0d 00 00
	00 00		 lea	 rcx, OFFSET FLAT:__C21BA676_pmc_interface_csharp@cpp
  00046	e8 00 00 00 00	 call	 __CheckForDebuggerJustMyCode

; 1137 :         if (w == nullptr)

  0004b	48 83 bd 50 01
	00 00 00	 cmp	 QWORD PTR w$[rbp], 0
  00053	75 07		 jne	 SHORT $LN2@PMCCS_Equa

; 1138 :             return (PMC_STATUS_ARGUMENT_NULL_ERROR);

  00055	b8 fe ff ff ff	 mov	 eax, -2
  0005a	eb 28		 jmp	 SHORT $LN1@PMCCS_Equa
$LN2@PMCCS_Equa:

; 1139 :         try
; 1140 :         {
; 1141 :             *w = PMC_Equals_X_X(u, v);

  0005c	48 8b 95 48 01
	00 00		 mov	 rdx, QWORD PTR v$[rbp]
  00063	48 8b 8d 40 01
	00 00		 mov	 rcx, QWORD PTR u$[rbp]
  0006a	e8 00 00 00 00	 call	 ?PMC_Equals_X_X@Internal@Core@Math@Palmtree@@YAIPEAU__tag_PMC_HANDLE_UINT@1234@0@Z ; Palmtree::Math::Core::Internal::PMC_Equals_X_X
  0006f	48 8b 8d 50 01
	00 00		 mov	 rcx, QWORD PTR w$[rbp]
  00076	89 01		 mov	 DWORD PTR [rcx], eax

; 1142 :             return (PMC_STATUS_OK);

  00078	33 c0		 xor	 eax, eax
  0007a	eb 08		 jmp	 SHORT $LN1@PMCCS_Equa
__tryend$PMCCS_Equals_X_X$1:
  0007c	eb 06		 jmp	 SHORT $LN1@PMCCS_Equa
$LN8@PMCCS_Equa:

; 1143 :         }
; 1144 :         catch (const Palmtree::Math::Core::Internal::Exception& ex)
; 1145 :         {
; 1146 :             return (ex.GetStatusCode());

  0007e	8b 85 e4 00 00
	00		 mov	 eax, DWORD PTR $T5[rbp]
$LN1@PMCCS_Equa:

; 1147 :         }
; 1148 :     }

  00084	48 8b f8	 mov	 rdi, rax
  00087	48 8d 4d e0	 lea	 rcx, QWORD PTR [rbp-32]
  0008b	48 8d 15 00 00
	00 00		 lea	 rdx, OFFSET FLAT:PMCCS_Equals_X_X$rtcFrameData
  00092	e8 00 00 00 00	 call	 _RTC_CheckStackVars
  00097	48 8b c7	 mov	 rax, rdi
  0009a	48 8d a5 28 01
	00 00		 lea	 rsp, QWORD PTR [rbp+296]
  000a1	5f		 pop	 rdi
  000a2	5d		 pop	 rbp
  000a3	c3		 ret	 0
  000a4	cc		 int	 3
PMCCS_Equals_X_X ENDP
_TEXT	ENDS
;	COMDAT text$x
text$x	SEGMENT
ex$4 = 8
$T5 = 228
$T6 = 264
u$ = 320
v$ = 328
w$ = 336
PMCCS_Equals_X_X$catch$0 PROC

; 1143 :         }
; 1144 :         catch (const Palmtree::Math::Core::Internal::Exception& ex)
; 1145 :         {

  00000	48 89 4c 24 08	 mov	 QWORD PTR [rsp+8], rcx
  00005	48 89 54 24 10	 mov	 QWORD PTR [rsp+16], rdx
  0000a	55		 push	 rbp
  0000b	57		 push	 rdi
  0000c	48 83 ec 28	 sub	 rsp, 40			; 00000028H
  00010	48 8d 6a 20	 lea	 rbp, QWORD PTR [rdx+32]
__catch$PMCCS_Equals_X_X$0:

; 1143 :         }
; 1144 :         catch (const Palmtree::Math::Core::Internal::Exception& ex)
; 1145 :         {
; 1146 :             return (ex.GetStatusCode());

  00014	48 8b 4d 08	 mov	 rcx, QWORD PTR ex$4[rbp]
  00018	e8 00 00 00 00	 call	 ?GetStatusCode@Exception@Internal@Core@Math@Palmtree@@QEBAHXZ ; Palmtree::Math::Core::Internal::Exception::GetStatusCode
  0001d	89 85 e4 00 00
	00		 mov	 DWORD PTR $T5[rbp], eax
  00023	48 8d 05 00 00
	00 00		 lea	 rax, $LN8@PMCCS_Equa
  0002a	eb 07		 jmp	 SHORT $LN9@PMCCS_Equa

; 1147 :         }

  0002c	48 8d 05 00 00
	00 00		 lea	 rax, __tryend$PMCCS_Equals_X_X$1
$LN9@PMCCS_Equa:
  00033	48 83 c4 28	 add	 rsp, 40			; 00000028H
  00037	5f		 pop	 rdi
  00038	5d		 pop	 rbp
  00039	c3		 ret	 0
  0003a	cc		 int	 3
PMCCS_Equals_X_X$catch$0 ENDP
text$x	ENDS
; Function compile flags: /Odtp /RTCsu /ZI
;	COMDAT text$x
text$x	SEGMENT
ex$4 = 8
$T5 = 228
$T6 = 264
u$ = 320
v$ = 328
w$ = 336
PMCCS_Equals_X_X$catch$0 PROC

; 1145 :         {

  00000	48 89 4c 24 08	 mov	 QWORD PTR [rsp+8], rcx
  00005	48 89 54 24 10	 mov	 QWORD PTR [rsp+16], rdx
  0000a	55		 push	 rbp
  0000b	57		 push	 rdi
  0000c	48 83 ec 28	 sub	 rsp, 40			; 00000028H
  00010	48 8d 6a 20	 lea	 rbp, QWORD PTR [rdx+32]
__catch$PMCCS_Equals_X_X$0:

; 1146 :             return (ex.GetStatusCode());

  00014	48 8b 4d 08	 mov	 rcx, QWORD PTR ex$4[rbp]
  00018	e8 00 00 00 00	 call	 ?GetStatusCode@Exception@Internal@Core@Math@Palmtree@@QEBAHXZ ; Palmtree::Math::Core::Internal::Exception::GetStatusCode
  0001d	89 85 e4 00 00
	00		 mov	 DWORD PTR $T5[rbp], eax
  00023	48 8d 05 00 00
	00 00		 lea	 rax, $LN8@PMCCS_Equa
  0002a	eb 07		 jmp	 SHORT $LN9@PMCCS_Equa

; 1147 :         }

  0002c	48 8d 05 00 00
	00 00		 lea	 rax, __tryend$PMCCS_Equals_X_X$1
$LN9@PMCCS_Equa:
  00033	48 83 c4 28	 add	 rsp, 40			; 00000028H
  00037	5f		 pop	 rdi
  00038	5d		 pop	 rbp
  00039	c3		 ret	 0
  0003a	cc		 int	 3
PMCCS_Equals_X_X$catch$0 ENDP
text$x	ENDS
; Function compile flags: /Odtp /RTCsu /ZI
; File z:\sources\lunor\repos\rougemeilland\palmtree.math.core.uint\palmtree.math.core.uint\pmc_interface_csharp.cpp
;	COMDAT PMCCS_Equals_X_L
_TEXT	SEGMENT
ex$4 = 8
$T5 = 228
$T6 = 264
u$ = 320
v$ = 328
w$ = 336
PMCCS_Equals_X_L PROC					; COMDAT

; 1121 :     {

$LN10:
  00000	4c 89 44 24 18	 mov	 QWORD PTR [rsp+24], r8
  00005	48 89 54 24 10	 mov	 QWORD PTR [rsp+16], rdx
  0000a	48 89 4c 24 08	 mov	 QWORD PTR [rsp+8], rcx
  0000f	55		 push	 rbp
  00010	57		 push	 rdi
  00011	48 81 ec 48 01
	00 00		 sub	 rsp, 328		; 00000148H
  00018	48 8d 6c 24 20	 lea	 rbp, QWORD PTR [rsp+32]
  0001d	48 8b fc	 mov	 rdi, rsp
  00020	b9 52 00 00 00	 mov	 ecx, 82			; 00000052H
  00025	b8 cc cc cc cc	 mov	 eax, -858993460		; ccccccccH
  0002a	f3 ab		 rep stosd
  0002c	48 8b 8c 24 68
	01 00 00	 mov	 rcx, QWORD PTR [rsp+360]
  00034	48 c7 85 08 01
	00 00 fe ff ff
	ff		 mov	 QWORD PTR $T6[rbp], -2
  0003f	48 8d 0d 00 00
	00 00		 lea	 rcx, OFFSET FLAT:__C21BA676_pmc_interface_csharp@cpp
  00046	e8 00 00 00 00	 call	 __CheckForDebuggerJustMyCode

; 1122 :         if (w == nullptr)

  0004b	48 83 bd 50 01
	00 00 00	 cmp	 QWORD PTR w$[rbp], 0
  00053	75 07		 jne	 SHORT $LN2@PMCCS_Equa

; 1123 :             return (PMC_STATUS_ARGUMENT_NULL_ERROR);

  00055	b8 fe ff ff ff	 mov	 eax, -2
  0005a	eb 28		 jmp	 SHORT $LN1@PMCCS_Equa
$LN2@PMCCS_Equa:

; 1124 :         try
; 1125 :         {
; 1126 :             *w = PMC_Equals_X_L(u, v);

  0005c	48 8b 95 48 01
	00 00		 mov	 rdx, QWORD PTR v$[rbp]
  00063	48 8b 8d 40 01
	00 00		 mov	 rcx, QWORD PTR u$[rbp]
  0006a	e8 00 00 00 00	 call	 ?PMC_Equals_X_L@Internal@Core@Math@Palmtree@@YAIPEAU__tag_PMC_HANDLE_UINT@1234@_K@Z ; Palmtree::Math::Core::Internal::PMC_Equals_X_L
  0006f	48 8b 8d 50 01
	00 00		 mov	 rcx, QWORD PTR w$[rbp]
  00076	89 01		 mov	 DWORD PTR [rcx], eax

; 1127 :             return (PMC_STATUS_OK);

  00078	33 c0		 xor	 eax, eax
  0007a	eb 08		 jmp	 SHORT $LN1@PMCCS_Equa
__tryend$PMCCS_Equals_X_L$1:
  0007c	eb 06		 jmp	 SHORT $LN1@PMCCS_Equa
$LN8@PMCCS_Equa:

; 1128 :         }
; 1129 :         catch (const Palmtree::Math::Core::Internal::Exception& ex)
; 1130 :         {
; 1131 :             return (ex.GetStatusCode());

  0007e	8b 85 e4 00 00
	00		 mov	 eax, DWORD PTR $T5[rbp]
$LN1@PMCCS_Equa:

; 1132 :         }
; 1133 :     }

  00084	48 8b f8	 mov	 rdi, rax
  00087	48 8d 4d e0	 lea	 rcx, QWORD PTR [rbp-32]
  0008b	48 8d 15 00 00
	00 00		 lea	 rdx, OFFSET FLAT:PMCCS_Equals_X_L$rtcFrameData
  00092	e8 00 00 00 00	 call	 _RTC_CheckStackVars
  00097	48 8b c7	 mov	 rax, rdi
  0009a	48 8d a5 28 01
	00 00		 lea	 rsp, QWORD PTR [rbp+296]
  000a1	5f		 pop	 rdi
  000a2	5d		 pop	 rbp
  000a3	c3		 ret	 0
  000a4	cc		 int	 3
PMCCS_Equals_X_L ENDP
_TEXT	ENDS
;	COMDAT text$x
text$x	SEGMENT
ex$4 = 8
$T5 = 228
$T6 = 264
u$ = 320
v$ = 328
w$ = 336
PMCCS_Equals_X_L$catch$0 PROC

; 1128 :         }
; 1129 :         catch (const Palmtree::Math::Core::Internal::Exception& ex)
; 1130 :         {

  00000	48 89 4c 24 08	 mov	 QWORD PTR [rsp+8], rcx
  00005	48 89 54 24 10	 mov	 QWORD PTR [rsp+16], rdx
  0000a	55		 push	 rbp
  0000b	57		 push	 rdi
  0000c	48 83 ec 28	 sub	 rsp, 40			; 00000028H
  00010	48 8d 6a 20	 lea	 rbp, QWORD PTR [rdx+32]
__catch$PMCCS_Equals_X_L$0:

; 1128 :         }
; 1129 :         catch (const Palmtree::Math::Core::Internal::Exception& ex)
; 1130 :         {
; 1131 :             return (ex.GetStatusCode());

  00014	48 8b 4d 08	 mov	 rcx, QWORD PTR ex$4[rbp]
  00018	e8 00 00 00 00	 call	 ?GetStatusCode@Exception@Internal@Core@Math@Palmtree@@QEBAHXZ ; Palmtree::Math::Core::Internal::Exception::GetStatusCode
  0001d	89 85 e4 00 00
	00		 mov	 DWORD PTR $T5[rbp], eax
  00023	48 8d 05 00 00
	00 00		 lea	 rax, $LN8@PMCCS_Equa
  0002a	eb 07		 jmp	 SHORT $LN9@PMCCS_Equa

; 1132 :         }

  0002c	48 8d 05 00 00
	00 00		 lea	 rax, __tryend$PMCCS_Equals_X_L$1
$LN9@PMCCS_Equa:
  00033	48 83 c4 28	 add	 rsp, 40			; 00000028H
  00037	5f		 pop	 rdi
  00038	5d		 pop	 rbp
  00039	c3		 ret	 0
  0003a	cc		 int	 3
PMCCS_Equals_X_L$catch$0 ENDP
text$x	ENDS
; Function compile flags: /Odtp /RTCsu /ZI
;	COMDAT text$x
text$x	SEGMENT
ex$4 = 8
$T5 = 228
$T6 = 264
u$ = 320
v$ = 328
w$ = 336
PMCCS_Equals_X_L$catch$0 PROC

; 1130 :         {

  00000	48 89 4c 24 08	 mov	 QWORD PTR [rsp+8], rcx
  00005	48 89 54 24 10	 mov	 QWORD PTR [rsp+16], rdx
  0000a	55		 push	 rbp
  0000b	57		 push	 rdi
  0000c	48 83 ec 28	 sub	 rsp, 40			; 00000028H
  00010	48 8d 6a 20	 lea	 rbp, QWORD PTR [rdx+32]
__catch$PMCCS_Equals_X_L$0:

; 1131 :             return (ex.GetStatusCode());

  00014	48 8b 4d 08	 mov	 rcx, QWORD PTR ex$4[rbp]
  00018	e8 00 00 00 00	 call	 ?GetStatusCode@Exception@Internal@Core@Math@Palmtree@@QEBAHXZ ; Palmtree::Math::Core::Internal::Exception::GetStatusCode
  0001d	89 85 e4 00 00
	00		 mov	 DWORD PTR $T5[rbp], eax
  00023	48 8d 05 00 00
	00 00		 lea	 rax, $LN8@PMCCS_Equa
  0002a	eb 07		 jmp	 SHORT $LN9@PMCCS_Equa

; 1132 :         }

  0002c	48 8d 05 00 00
	00 00		 lea	 rax, __tryend$PMCCS_Equals_X_L$1
$LN9@PMCCS_Equa:
  00033	48 83 c4 28	 add	 rsp, 40			; 00000028H
  00037	5f		 pop	 rdi
  00038	5d		 pop	 rbp
  00039	c3		 ret	 0
  0003a	cc		 int	 3
PMCCS_Equals_X_L$catch$0 ENDP
text$x	ENDS
; Function compile flags: /Odtp /RTCsu /ZI
; File z:\sources\lunor\repos\rougemeilland\palmtree.math.core.uint\palmtree.math.core.uint\pmc_interface_csharp.cpp
;	COMDAT PMCCS_Equals_X_I
_TEXT	SEGMENT
ex$4 = 8
$T5 = 228
$T6 = 264
u$ = 320
v$ = 328
w$ = 336
PMCCS_Equals_X_I PROC					; COMDAT

; 1106 :     {

$LN10:
  00000	4c 89 44 24 18	 mov	 QWORD PTR [rsp+24], r8
  00005	89 54 24 10	 mov	 DWORD PTR [rsp+16], edx
  00009	48 89 4c 24 08	 mov	 QWORD PTR [rsp+8], rcx
  0000e	55		 push	 rbp
  0000f	57		 push	 rdi
  00010	48 81 ec 48 01
	00 00		 sub	 rsp, 328		; 00000148H
  00017	48 8d 6c 24 20	 lea	 rbp, QWORD PTR [rsp+32]
  0001c	48 8b fc	 mov	 rdi, rsp
  0001f	b9 52 00 00 00	 mov	 ecx, 82			; 00000052H
  00024	b8 cc cc cc cc	 mov	 eax, -858993460		; ccccccccH
  00029	f3 ab		 rep stosd
  0002b	48 8b 8c 24 68
	01 00 00	 mov	 rcx, QWORD PTR [rsp+360]
  00033	48 c7 85 08 01
	00 00 fe ff ff
	ff		 mov	 QWORD PTR $T6[rbp], -2
  0003e	48 8d 0d 00 00
	00 00		 lea	 rcx, OFFSET FLAT:__C21BA676_pmc_interface_csharp@cpp
  00045	e8 00 00 00 00	 call	 __CheckForDebuggerJustMyCode

; 1107 :         if (w == nullptr)

  0004a	48 83 bd 50 01
	00 00 00	 cmp	 QWORD PTR w$[rbp], 0
  00052	75 07		 jne	 SHORT $LN2@PMCCS_Equa

; 1108 :             return (PMC_STATUS_ARGUMENT_NULL_ERROR);

  00054	b8 fe ff ff ff	 mov	 eax, -2
  00059	eb 27		 jmp	 SHORT $LN1@PMCCS_Equa
$LN2@PMCCS_Equa:

; 1109 :         try
; 1110 :         {
; 1111 :             *w = PMC_Equals_X_I(u, v);

  0005b	8b 95 48 01 00
	00		 mov	 edx, DWORD PTR v$[rbp]
  00061	48 8b 8d 40 01
	00 00		 mov	 rcx, QWORD PTR u$[rbp]
  00068	e8 00 00 00 00	 call	 ?PMC_Equals_X_I@Internal@Core@Math@Palmtree@@YAIPEAU__tag_PMC_HANDLE_UINT@1234@I@Z ; Palmtree::Math::Core::Internal::PMC_Equals_X_I
  0006d	48 8b 8d 50 01
	00 00		 mov	 rcx, QWORD PTR w$[rbp]
  00074	89 01		 mov	 DWORD PTR [rcx], eax

; 1112 :             return (PMC_STATUS_OK);

  00076	33 c0		 xor	 eax, eax
  00078	eb 08		 jmp	 SHORT $LN1@PMCCS_Equa
__tryend$PMCCS_Equals_X_I$1:
  0007a	eb 06		 jmp	 SHORT $LN1@PMCCS_Equa
$LN8@PMCCS_Equa:

; 1113 :         }
; 1114 :         catch (const Palmtree::Math::Core::Internal::Exception& ex)
; 1115 :         {
; 1116 :             return (ex.GetStatusCode());

  0007c	8b 85 e4 00 00
	00		 mov	 eax, DWORD PTR $T5[rbp]
$LN1@PMCCS_Equa:

; 1117 :         }
; 1118 :     }

  00082	48 8b f8	 mov	 rdi, rax
  00085	48 8d 4d e0	 lea	 rcx, QWORD PTR [rbp-32]
  00089	48 8d 15 00 00
	00 00		 lea	 rdx, OFFSET FLAT:PMCCS_Equals_X_I$rtcFrameData
  00090	e8 00 00 00 00	 call	 _RTC_CheckStackVars
  00095	48 8b c7	 mov	 rax, rdi
  00098	48 8d a5 28 01
	00 00		 lea	 rsp, QWORD PTR [rbp+296]
  0009f	5f		 pop	 rdi
  000a0	5d		 pop	 rbp
  000a1	c3		 ret	 0
  000a2	cc		 int	 3
PMCCS_Equals_X_I ENDP
_TEXT	ENDS
;	COMDAT text$x
text$x	SEGMENT
ex$4 = 8
$T5 = 228
$T6 = 264
u$ = 320
v$ = 328
w$ = 336
PMCCS_Equals_X_I$catch$0 PROC

; 1113 :         }
; 1114 :         catch (const Palmtree::Math::Core::Internal::Exception& ex)
; 1115 :         {

  00000	48 89 4c 24 08	 mov	 QWORD PTR [rsp+8], rcx
  00005	48 89 54 24 10	 mov	 QWORD PTR [rsp+16], rdx
  0000a	55		 push	 rbp
  0000b	57		 push	 rdi
  0000c	48 83 ec 28	 sub	 rsp, 40			; 00000028H
  00010	48 8d 6a 20	 lea	 rbp, QWORD PTR [rdx+32]
__catch$PMCCS_Equals_X_I$0:

; 1113 :         }
; 1114 :         catch (const Palmtree::Math::Core::Internal::Exception& ex)
; 1115 :         {
; 1116 :             return (ex.GetStatusCode());

  00014	48 8b 4d 08	 mov	 rcx, QWORD PTR ex$4[rbp]
  00018	e8 00 00 00 00	 call	 ?GetStatusCode@Exception@Internal@Core@Math@Palmtree@@QEBAHXZ ; Palmtree::Math::Core::Internal::Exception::GetStatusCode
  0001d	89 85 e4 00 00
	00		 mov	 DWORD PTR $T5[rbp], eax
  00023	48 8d 05 00 00
	00 00		 lea	 rax, $LN8@PMCCS_Equa
  0002a	eb 07		 jmp	 SHORT $LN9@PMCCS_Equa

; 1117 :         }

  0002c	48 8d 05 00 00
	00 00		 lea	 rax, __tryend$PMCCS_Equals_X_I$1
$LN9@PMCCS_Equa:
  00033	48 83 c4 28	 add	 rsp, 40			; 00000028H
  00037	5f		 pop	 rdi
  00038	5d		 pop	 rbp
  00039	c3		 ret	 0
  0003a	cc		 int	 3
PMCCS_Equals_X_I$catch$0 ENDP
text$x	ENDS
; Function compile flags: /Odtp /RTCsu /ZI
;	COMDAT text$x
text$x	SEGMENT
ex$4 = 8
$T5 = 228
$T6 = 264
u$ = 320
v$ = 328
w$ = 336
PMCCS_Equals_X_I$catch$0 PROC

; 1115 :         {

  00000	48 89 4c 24 08	 mov	 QWORD PTR [rsp+8], rcx
  00005	48 89 54 24 10	 mov	 QWORD PTR [rsp+16], rdx
  0000a	55		 push	 rbp
  0000b	57		 push	 rdi
  0000c	48 83 ec 28	 sub	 rsp, 40			; 00000028H
  00010	48 8d 6a 20	 lea	 rbp, QWORD PTR [rdx+32]
__catch$PMCCS_Equals_X_I$0:

; 1116 :             return (ex.GetStatusCode());

  00014	48 8b 4d 08	 mov	 rcx, QWORD PTR ex$4[rbp]
  00018	e8 00 00 00 00	 call	 ?GetStatusCode@Exception@Internal@Core@Math@Palmtree@@QEBAHXZ ; Palmtree::Math::Core::Internal::Exception::GetStatusCode
  0001d	89 85 e4 00 00
	00		 mov	 DWORD PTR $T5[rbp], eax
  00023	48 8d 05 00 00
	00 00		 lea	 rax, $LN8@PMCCS_Equa
  0002a	eb 07		 jmp	 SHORT $LN9@PMCCS_Equa

; 1117 :         }

  0002c	48 8d 05 00 00
	00 00		 lea	 rax, __tryend$PMCCS_Equals_X_I$1
$LN9@PMCCS_Equa:
  00033	48 83 c4 28	 add	 rsp, 40			; 00000028H
  00037	5f		 pop	 rdi
  00038	5d		 pop	 rbp
  00039	c3		 ret	 0
  0003a	cc		 int	 3
PMCCS_Equals_X_I$catch$0 ENDP
text$x	ENDS
; Function compile flags: /Odtp /RTCsu /ZI
; File z:\sources\lunor\repos\rougemeilland\palmtree.math.core.uint\palmtree.math.core.uint\pmc_interface_csharp.cpp
;	COMDAT PMCCS_Equals_L_X
_TEXT	SEGMENT
ex$4 = 8
$T5 = 228
$T6 = 264
u$ = 320
v$ = 328
w$ = 336
PMCCS_Equals_L_X PROC					; COMDAT

; 1091 :     {

$LN10:
  00000	4c 89 44 24 18	 mov	 QWORD PTR [rsp+24], r8
  00005	48 89 54 24 10	 mov	 QWORD PTR [rsp+16], rdx
  0000a	48 89 4c 24 08	 mov	 QWORD PTR [rsp+8], rcx
  0000f	55		 push	 rbp
  00010	57		 push	 rdi
  00011	48 81 ec 48 01
	00 00		 sub	 rsp, 328		; 00000148H
  00018	48 8d 6c 24 20	 lea	 rbp, QWORD PTR [rsp+32]
  0001d	48 8b fc	 mov	 rdi, rsp
  00020	b9 52 00 00 00	 mov	 ecx, 82			; 00000052H
  00025	b8 cc cc cc cc	 mov	 eax, -858993460		; ccccccccH
  0002a	f3 ab		 rep stosd
  0002c	48 8b 8c 24 68
	01 00 00	 mov	 rcx, QWORD PTR [rsp+360]
  00034	48 c7 85 08 01
	00 00 fe ff ff
	ff		 mov	 QWORD PTR $T6[rbp], -2
  0003f	48 8d 0d 00 00
	00 00		 lea	 rcx, OFFSET FLAT:__C21BA676_pmc_interface_csharp@cpp
  00046	e8 00 00 00 00	 call	 __CheckForDebuggerJustMyCode

; 1092 :         if (w == nullptr)

  0004b	48 83 bd 50 01
	00 00 00	 cmp	 QWORD PTR w$[rbp], 0
  00053	75 07		 jne	 SHORT $LN2@PMCCS_Equa

; 1093 :             return (PMC_STATUS_ARGUMENT_NULL_ERROR);

  00055	b8 fe ff ff ff	 mov	 eax, -2
  0005a	eb 28		 jmp	 SHORT $LN1@PMCCS_Equa
$LN2@PMCCS_Equa:

; 1094 :         try
; 1095 :         {
; 1096 :             *w = PMC_Equals_L_X(u, v);

  0005c	48 8b 95 48 01
	00 00		 mov	 rdx, QWORD PTR v$[rbp]
  00063	48 8b 8d 40 01
	00 00		 mov	 rcx, QWORD PTR u$[rbp]
  0006a	e8 00 00 00 00	 call	 ?PMC_Equals_L_X@Internal@Core@Math@Palmtree@@YAI_KPEAU__tag_PMC_HANDLE_UINT@1234@@Z ; Palmtree::Math::Core::Internal::PMC_Equals_L_X
  0006f	48 8b 8d 50 01
	00 00		 mov	 rcx, QWORD PTR w$[rbp]
  00076	89 01		 mov	 DWORD PTR [rcx], eax

; 1097 :             return (PMC_STATUS_OK);

  00078	33 c0		 xor	 eax, eax
  0007a	eb 08		 jmp	 SHORT $LN1@PMCCS_Equa
__tryend$PMCCS_Equals_L_X$1:
  0007c	eb 06		 jmp	 SHORT $LN1@PMCCS_Equa
$LN8@PMCCS_Equa:

; 1098 :         }
; 1099 :         catch (const Palmtree::Math::Core::Internal::Exception& ex)
; 1100 :         {
; 1101 :             return (ex.GetStatusCode());

  0007e	8b 85 e4 00 00
	00		 mov	 eax, DWORD PTR $T5[rbp]
$LN1@PMCCS_Equa:

; 1102 :         }
; 1103 :     }

  00084	48 8b f8	 mov	 rdi, rax
  00087	48 8d 4d e0	 lea	 rcx, QWORD PTR [rbp-32]
  0008b	48 8d 15 00 00
	00 00		 lea	 rdx, OFFSET FLAT:PMCCS_Equals_L_X$rtcFrameData
  00092	e8 00 00 00 00	 call	 _RTC_CheckStackVars
  00097	48 8b c7	 mov	 rax, rdi
  0009a	48 8d a5 28 01
	00 00		 lea	 rsp, QWORD PTR [rbp+296]
  000a1	5f		 pop	 rdi
  000a2	5d		 pop	 rbp
  000a3	c3		 ret	 0
  000a4	cc		 int	 3
PMCCS_Equals_L_X ENDP
_TEXT	ENDS
;	COMDAT text$x
text$x	SEGMENT
ex$4 = 8
$T5 = 228
$T6 = 264
u$ = 320
v$ = 328
w$ = 336
PMCCS_Equals_L_X$catch$0 PROC

; 1098 :         }
; 1099 :         catch (const Palmtree::Math::Core::Internal::Exception& ex)
; 1100 :         {

  00000	48 89 4c 24 08	 mov	 QWORD PTR [rsp+8], rcx
  00005	48 89 54 24 10	 mov	 QWORD PTR [rsp+16], rdx
  0000a	55		 push	 rbp
  0000b	57		 push	 rdi
  0000c	48 83 ec 28	 sub	 rsp, 40			; 00000028H
  00010	48 8d 6a 20	 lea	 rbp, QWORD PTR [rdx+32]
__catch$PMCCS_Equals_L_X$0:

; 1098 :         }
; 1099 :         catch (const Palmtree::Math::Core::Internal::Exception& ex)
; 1100 :         {
; 1101 :             return (ex.GetStatusCode());

  00014	48 8b 4d 08	 mov	 rcx, QWORD PTR ex$4[rbp]
  00018	e8 00 00 00 00	 call	 ?GetStatusCode@Exception@Internal@Core@Math@Palmtree@@QEBAHXZ ; Palmtree::Math::Core::Internal::Exception::GetStatusCode
  0001d	89 85 e4 00 00
	00		 mov	 DWORD PTR $T5[rbp], eax
  00023	48 8d 05 00 00
	00 00		 lea	 rax, $LN8@PMCCS_Equa
  0002a	eb 07		 jmp	 SHORT $LN9@PMCCS_Equa

; 1102 :         }

  0002c	48 8d 05 00 00
	00 00		 lea	 rax, __tryend$PMCCS_Equals_L_X$1
$LN9@PMCCS_Equa:
  00033	48 83 c4 28	 add	 rsp, 40			; 00000028H
  00037	5f		 pop	 rdi
  00038	5d		 pop	 rbp
  00039	c3		 ret	 0
  0003a	cc		 int	 3
PMCCS_Equals_L_X$catch$0 ENDP
text$x	ENDS
; Function compile flags: /Odtp /RTCsu /ZI
;	COMDAT text$x
text$x	SEGMENT
ex$4 = 8
$T5 = 228
$T6 = 264
u$ = 320
v$ = 328
w$ = 336
PMCCS_Equals_L_X$catch$0 PROC

; 1100 :         {

  00000	48 89 4c 24 08	 mov	 QWORD PTR [rsp+8], rcx
  00005	48 89 54 24 10	 mov	 QWORD PTR [rsp+16], rdx
  0000a	55		 push	 rbp
  0000b	57		 push	 rdi
  0000c	48 83 ec 28	 sub	 rsp, 40			; 00000028H
  00010	48 8d 6a 20	 lea	 rbp, QWORD PTR [rdx+32]
__catch$PMCCS_Equals_L_X$0:

; 1101 :             return (ex.GetStatusCode());

  00014	48 8b 4d 08	 mov	 rcx, QWORD PTR ex$4[rbp]
  00018	e8 00 00 00 00	 call	 ?GetStatusCode@Exception@Internal@Core@Math@Palmtree@@QEBAHXZ ; Palmtree::Math::Core::Internal::Exception::GetStatusCode
  0001d	89 85 e4 00 00
	00		 mov	 DWORD PTR $T5[rbp], eax
  00023	48 8d 05 00 00
	00 00		 lea	 rax, $LN8@PMCCS_Equa
  0002a	eb 07		 jmp	 SHORT $LN9@PMCCS_Equa

; 1102 :         }

  0002c	48 8d 05 00 00
	00 00		 lea	 rax, __tryend$PMCCS_Equals_L_X$1
$LN9@PMCCS_Equa:
  00033	48 83 c4 28	 add	 rsp, 40			; 00000028H
  00037	5f		 pop	 rdi
  00038	5d		 pop	 rbp
  00039	c3		 ret	 0
  0003a	cc		 int	 3
PMCCS_Equals_L_X$catch$0 ENDP
text$x	ENDS
; Function compile flags: /Odtp /RTCsu /ZI
; File z:\sources\lunor\repos\rougemeilland\palmtree.math.core.uint\palmtree.math.core.uint\pmc_interface_csharp.cpp
;	COMDAT PMCCS_Equals_I_X
_TEXT	SEGMENT
ex$4 = 8
$T5 = 228
$T6 = 264
u$ = 320
v$ = 328
w$ = 336
PMCCS_Equals_I_X PROC					; COMDAT

; 1076 :     {

$LN10:
  00000	4c 89 44 24 18	 mov	 QWORD PTR [rsp+24], r8
  00005	48 89 54 24 10	 mov	 QWORD PTR [rsp+16], rdx
  0000a	89 4c 24 08	 mov	 DWORD PTR [rsp+8], ecx
  0000e	55		 push	 rbp
  0000f	57		 push	 rdi
  00010	48 81 ec 48 01
	00 00		 sub	 rsp, 328		; 00000148H
  00017	48 8d 6c 24 20	 lea	 rbp, QWORD PTR [rsp+32]
  0001c	48 8b fc	 mov	 rdi, rsp
  0001f	b9 52 00 00 00	 mov	 ecx, 82			; 00000052H
  00024	b8 cc cc cc cc	 mov	 eax, -858993460		; ccccccccH
  00029	f3 ab		 rep stosd
  0002b	8b 8c 24 68 01
	00 00		 mov	 ecx, DWORD PTR [rsp+360]
  00032	48 c7 85 08 01
	00 00 fe ff ff
	ff		 mov	 QWORD PTR $T6[rbp], -2
  0003d	48 8d 0d 00 00
	00 00		 lea	 rcx, OFFSET FLAT:__C21BA676_pmc_interface_csharp@cpp
  00044	e8 00 00 00 00	 call	 __CheckForDebuggerJustMyCode

; 1077 :         if (w == nullptr)

  00049	48 83 bd 50 01
	00 00 00	 cmp	 QWORD PTR w$[rbp], 0
  00051	75 07		 jne	 SHORT $LN2@PMCCS_Equa

; 1078 :             return (PMC_STATUS_ARGUMENT_NULL_ERROR);

  00053	b8 fe ff ff ff	 mov	 eax, -2
  00058	eb 27		 jmp	 SHORT $LN1@PMCCS_Equa
$LN2@PMCCS_Equa:

; 1079 :         try
; 1080 :         {
; 1081 :             *w = PMC_Equals_I_X(u, v);

  0005a	48 8b 95 48 01
	00 00		 mov	 rdx, QWORD PTR v$[rbp]
  00061	8b 8d 40 01 00
	00		 mov	 ecx, DWORD PTR u$[rbp]
  00067	e8 00 00 00 00	 call	 ?PMC_Equals_I_X@Internal@Core@Math@Palmtree@@YAIIPEAU__tag_PMC_HANDLE_UINT@1234@@Z ; Palmtree::Math::Core::Internal::PMC_Equals_I_X
  0006c	48 8b 8d 50 01
	00 00		 mov	 rcx, QWORD PTR w$[rbp]
  00073	89 01		 mov	 DWORD PTR [rcx], eax

; 1082 :             return (PMC_STATUS_OK);

  00075	33 c0		 xor	 eax, eax
  00077	eb 08		 jmp	 SHORT $LN1@PMCCS_Equa
__tryend$PMCCS_Equals_I_X$1:
  00079	eb 06		 jmp	 SHORT $LN1@PMCCS_Equa
$LN8@PMCCS_Equa:

; 1083 :         }
; 1084 :         catch (const Palmtree::Math::Core::Internal::Exception& ex)
; 1085 :         {
; 1086 :             return (ex.GetStatusCode());

  0007b	8b 85 e4 00 00
	00		 mov	 eax, DWORD PTR $T5[rbp]
$LN1@PMCCS_Equa:

; 1087 :         }
; 1088 :     }

  00081	48 8b f8	 mov	 rdi, rax
  00084	48 8d 4d e0	 lea	 rcx, QWORD PTR [rbp-32]
  00088	48 8d 15 00 00
	00 00		 lea	 rdx, OFFSET FLAT:PMCCS_Equals_I_X$rtcFrameData
  0008f	e8 00 00 00 00	 call	 _RTC_CheckStackVars
  00094	48 8b c7	 mov	 rax, rdi
  00097	48 8d a5 28 01
	00 00		 lea	 rsp, QWORD PTR [rbp+296]
  0009e	5f		 pop	 rdi
  0009f	5d		 pop	 rbp
  000a0	c3		 ret	 0
  000a1	cc		 int	 3
PMCCS_Equals_I_X ENDP
_TEXT	ENDS
;	COMDAT text$x
text$x	SEGMENT
ex$4 = 8
$T5 = 228
$T6 = 264
u$ = 320
v$ = 328
w$ = 336
PMCCS_Equals_I_X$catch$0 PROC

; 1083 :         }
; 1084 :         catch (const Palmtree::Math::Core::Internal::Exception& ex)
; 1085 :         {

  00000	48 89 4c 24 08	 mov	 QWORD PTR [rsp+8], rcx
  00005	48 89 54 24 10	 mov	 QWORD PTR [rsp+16], rdx
  0000a	55		 push	 rbp
  0000b	57		 push	 rdi
  0000c	48 83 ec 28	 sub	 rsp, 40			; 00000028H
  00010	48 8d 6a 20	 lea	 rbp, QWORD PTR [rdx+32]
__catch$PMCCS_Equals_I_X$0:

; 1083 :         }
; 1084 :         catch (const Palmtree::Math::Core::Internal::Exception& ex)
; 1085 :         {
; 1086 :             return (ex.GetStatusCode());

  00014	48 8b 4d 08	 mov	 rcx, QWORD PTR ex$4[rbp]
  00018	e8 00 00 00 00	 call	 ?GetStatusCode@Exception@Internal@Core@Math@Palmtree@@QEBAHXZ ; Palmtree::Math::Core::Internal::Exception::GetStatusCode
  0001d	89 85 e4 00 00
	00		 mov	 DWORD PTR $T5[rbp], eax
  00023	48 8d 05 00 00
	00 00		 lea	 rax, $LN8@PMCCS_Equa
  0002a	eb 07		 jmp	 SHORT $LN9@PMCCS_Equa

; 1087 :         }

  0002c	48 8d 05 00 00
	00 00		 lea	 rax, __tryend$PMCCS_Equals_I_X$1
$LN9@PMCCS_Equa:
  00033	48 83 c4 28	 add	 rsp, 40			; 00000028H
  00037	5f		 pop	 rdi
  00038	5d		 pop	 rbp
  00039	c3		 ret	 0
  0003a	cc		 int	 3
PMCCS_Equals_I_X$catch$0 ENDP
text$x	ENDS
; Function compile flags: /Odtp /RTCsu /ZI
;	COMDAT text$x
text$x	SEGMENT
ex$4 = 8
$T5 = 228
$T6 = 264
u$ = 320
v$ = 328
w$ = 336
PMCCS_Equals_I_X$catch$0 PROC

; 1085 :         {

  00000	48 89 4c 24 08	 mov	 QWORD PTR [rsp+8], rcx
  00005	48 89 54 24 10	 mov	 QWORD PTR [rsp+16], rdx
  0000a	55		 push	 rbp
  0000b	57		 push	 rdi
  0000c	48 83 ec 28	 sub	 rsp, 40			; 00000028H
  00010	48 8d 6a 20	 lea	 rbp, QWORD PTR [rdx+32]
__catch$PMCCS_Equals_I_X$0:

; 1086 :             return (ex.GetStatusCode());

  00014	48 8b 4d 08	 mov	 rcx, QWORD PTR ex$4[rbp]
  00018	e8 00 00 00 00	 call	 ?GetStatusCode@Exception@Internal@Core@Math@Palmtree@@QEBAHXZ ; Palmtree::Math::Core::Internal::Exception::GetStatusCode
  0001d	89 85 e4 00 00
	00		 mov	 DWORD PTR $T5[rbp], eax
  00023	48 8d 05 00 00
	00 00		 lea	 rax, $LN8@PMCCS_Equa
  0002a	eb 07		 jmp	 SHORT $LN9@PMCCS_Equa

; 1087 :         }

  0002c	48 8d 05 00 00
	00 00		 lea	 rax, __tryend$PMCCS_Equals_I_X$1
$LN9@PMCCS_Equa:
  00033	48 83 c4 28	 add	 rsp, 40			; 00000028H
  00037	5f		 pop	 rdi
  00038	5d		 pop	 rbp
  00039	c3		 ret	 0
  0003a	cc		 int	 3
PMCCS_Equals_I_X$catch$0 ENDP
text$x	ENDS
; Function compile flags: /Odtp /RTCsu /ZI
; File z:\sources\lunor\repos\rougemeilland\palmtree.math.core.uint\palmtree.math.core.uint\pmc_interface_csharp.cpp
;	COMDAT PMCCS_Compare_X_X
_TEXT	SEGMENT
ex$4 = 8
$T5 = 228
$T6 = 264
u$ = 320
v$ = 328
w$ = 336
PMCCS_Compare_X_X PROC					; COMDAT

; 1061 :     {

$LN10:
  00000	4c 89 44 24 18	 mov	 QWORD PTR [rsp+24], r8
  00005	48 89 54 24 10	 mov	 QWORD PTR [rsp+16], rdx
  0000a	48 89 4c 24 08	 mov	 QWORD PTR [rsp+8], rcx
  0000f	55		 push	 rbp
  00010	57		 push	 rdi
  00011	48 81 ec 48 01
	00 00		 sub	 rsp, 328		; 00000148H
  00018	48 8d 6c 24 20	 lea	 rbp, QWORD PTR [rsp+32]
  0001d	48 8b fc	 mov	 rdi, rsp
  00020	b9 52 00 00 00	 mov	 ecx, 82			; 00000052H
  00025	b8 cc cc cc cc	 mov	 eax, -858993460		; ccccccccH
  0002a	f3 ab		 rep stosd
  0002c	48 8b 8c 24 68
	01 00 00	 mov	 rcx, QWORD PTR [rsp+360]
  00034	48 c7 85 08 01
	00 00 fe ff ff
	ff		 mov	 QWORD PTR $T6[rbp], -2
  0003f	48 8d 0d 00 00
	00 00		 lea	 rcx, OFFSET FLAT:__C21BA676_pmc_interface_csharp@cpp
  00046	e8 00 00 00 00	 call	 __CheckForDebuggerJustMyCode

; 1062 :         if (w == nullptr)

  0004b	48 83 bd 50 01
	00 00 00	 cmp	 QWORD PTR w$[rbp], 0
  00053	75 07		 jne	 SHORT $LN2@PMCCS_Comp

; 1063 :             return (PMC_STATUS_ARGUMENT_NULL_ERROR);

  00055	b8 fe ff ff ff	 mov	 eax, -2
  0005a	eb 28		 jmp	 SHORT $LN1@PMCCS_Comp
$LN2@PMCCS_Comp:

; 1064 :         try
; 1065 :         {
; 1066 :             *w = PMC_Compare_X_X(u, v);

  0005c	48 8b 95 48 01
	00 00		 mov	 rdx, QWORD PTR v$[rbp]
  00063	48 8b 8d 40 01
	00 00		 mov	 rcx, QWORD PTR u$[rbp]
  0006a	e8 00 00 00 00	 call	 ?PMC_Compare_X_X@Internal@Core@Math@Palmtree@@YAHPEAU__tag_PMC_HANDLE_UINT@1234@0@Z ; Palmtree::Math::Core::Internal::PMC_Compare_X_X
  0006f	48 8b 8d 50 01
	00 00		 mov	 rcx, QWORD PTR w$[rbp]
  00076	89 01		 mov	 DWORD PTR [rcx], eax

; 1067 :             return (PMC_STATUS_OK);

  00078	33 c0		 xor	 eax, eax
  0007a	eb 08		 jmp	 SHORT $LN1@PMCCS_Comp
__tryend$PMCCS_Compare_X_X$1:
  0007c	eb 06		 jmp	 SHORT $LN1@PMCCS_Comp
$LN8@PMCCS_Comp:

; 1068 :         }
; 1069 :         catch (const Palmtree::Math::Core::Internal::Exception& ex)
; 1070 :         {
; 1071 :             return (ex.GetStatusCode());

  0007e	8b 85 e4 00 00
	00		 mov	 eax, DWORD PTR $T5[rbp]
$LN1@PMCCS_Comp:

; 1072 :         }
; 1073 :     }

  00084	48 8b f8	 mov	 rdi, rax
  00087	48 8d 4d e0	 lea	 rcx, QWORD PTR [rbp-32]
  0008b	48 8d 15 00 00
	00 00		 lea	 rdx, OFFSET FLAT:PMCCS_Compare_X_X$rtcFrameData
  00092	e8 00 00 00 00	 call	 _RTC_CheckStackVars
  00097	48 8b c7	 mov	 rax, rdi
  0009a	48 8d a5 28 01
	00 00		 lea	 rsp, QWORD PTR [rbp+296]
  000a1	5f		 pop	 rdi
  000a2	5d		 pop	 rbp
  000a3	c3		 ret	 0
  000a4	cc		 int	 3
PMCCS_Compare_X_X ENDP
_TEXT	ENDS
;	COMDAT text$x
text$x	SEGMENT
ex$4 = 8
$T5 = 228
$T6 = 264
u$ = 320
v$ = 328
w$ = 336
PMCCS_Compare_X_X$catch$0 PROC

; 1068 :         }
; 1069 :         catch (const Palmtree::Math::Core::Internal::Exception& ex)
; 1070 :         {

  00000	48 89 4c 24 08	 mov	 QWORD PTR [rsp+8], rcx
  00005	48 89 54 24 10	 mov	 QWORD PTR [rsp+16], rdx
  0000a	55		 push	 rbp
  0000b	57		 push	 rdi
  0000c	48 83 ec 28	 sub	 rsp, 40			; 00000028H
  00010	48 8d 6a 20	 lea	 rbp, QWORD PTR [rdx+32]
__catch$PMCCS_Compare_X_X$0:

; 1068 :         }
; 1069 :         catch (const Palmtree::Math::Core::Internal::Exception& ex)
; 1070 :         {
; 1071 :             return (ex.GetStatusCode());

  00014	48 8b 4d 08	 mov	 rcx, QWORD PTR ex$4[rbp]
  00018	e8 00 00 00 00	 call	 ?GetStatusCode@Exception@Internal@Core@Math@Palmtree@@QEBAHXZ ; Palmtree::Math::Core::Internal::Exception::GetStatusCode
  0001d	89 85 e4 00 00
	00		 mov	 DWORD PTR $T5[rbp], eax
  00023	48 8d 05 00 00
	00 00		 lea	 rax, $LN8@PMCCS_Comp
  0002a	eb 07		 jmp	 SHORT $LN9@PMCCS_Comp

; 1072 :         }

  0002c	48 8d 05 00 00
	00 00		 lea	 rax, __tryend$PMCCS_Compare_X_X$1
$LN9@PMCCS_Comp:
  00033	48 83 c4 28	 add	 rsp, 40			; 00000028H
  00037	5f		 pop	 rdi
  00038	5d		 pop	 rbp
  00039	c3		 ret	 0
  0003a	cc		 int	 3
PMCCS_Compare_X_X$catch$0 ENDP
text$x	ENDS
; Function compile flags: /Odtp /RTCsu /ZI
;	COMDAT text$x
text$x	SEGMENT
ex$4 = 8
$T5 = 228
$T6 = 264
u$ = 320
v$ = 328
w$ = 336
PMCCS_Compare_X_X$catch$0 PROC

; 1070 :         {

  00000	48 89 4c 24 08	 mov	 QWORD PTR [rsp+8], rcx
  00005	48 89 54 24 10	 mov	 QWORD PTR [rsp+16], rdx
  0000a	55		 push	 rbp
  0000b	57		 push	 rdi
  0000c	48 83 ec 28	 sub	 rsp, 40			; 00000028H
  00010	48 8d 6a 20	 lea	 rbp, QWORD PTR [rdx+32]
__catch$PMCCS_Compare_X_X$0:

; 1071 :             return (ex.GetStatusCode());

  00014	48 8b 4d 08	 mov	 rcx, QWORD PTR ex$4[rbp]
  00018	e8 00 00 00 00	 call	 ?GetStatusCode@Exception@Internal@Core@Math@Palmtree@@QEBAHXZ ; Palmtree::Math::Core::Internal::Exception::GetStatusCode
  0001d	89 85 e4 00 00
	00		 mov	 DWORD PTR $T5[rbp], eax
  00023	48 8d 05 00 00
	00 00		 lea	 rax, $LN8@PMCCS_Comp
  0002a	eb 07		 jmp	 SHORT $LN9@PMCCS_Comp

; 1072 :         }

  0002c	48 8d 05 00 00
	00 00		 lea	 rax, __tryend$PMCCS_Compare_X_X$1
$LN9@PMCCS_Comp:
  00033	48 83 c4 28	 add	 rsp, 40			; 00000028H
  00037	5f		 pop	 rdi
  00038	5d		 pop	 rbp
  00039	c3		 ret	 0
  0003a	cc		 int	 3
PMCCS_Compare_X_X$catch$0 ENDP
text$x	ENDS
; Function compile flags: /Odtp /RTCsu /ZI
; File z:\sources\lunor\repos\rougemeilland\palmtree.math.core.uint\palmtree.math.core.uint\pmc_interface_csharp.cpp
;	COMDAT PMCCS_Compare_X_L
_TEXT	SEGMENT
ex$4 = 8
$T5 = 228
$T6 = 264
u$ = 320
v$ = 328
w$ = 336
PMCCS_Compare_X_L PROC					; COMDAT

; 1046 :     {

$LN10:
  00000	4c 89 44 24 18	 mov	 QWORD PTR [rsp+24], r8
  00005	48 89 54 24 10	 mov	 QWORD PTR [rsp+16], rdx
  0000a	48 89 4c 24 08	 mov	 QWORD PTR [rsp+8], rcx
  0000f	55		 push	 rbp
  00010	57		 push	 rdi
  00011	48 81 ec 48 01
	00 00		 sub	 rsp, 328		; 00000148H
  00018	48 8d 6c 24 20	 lea	 rbp, QWORD PTR [rsp+32]
  0001d	48 8b fc	 mov	 rdi, rsp
  00020	b9 52 00 00 00	 mov	 ecx, 82			; 00000052H
  00025	b8 cc cc cc cc	 mov	 eax, -858993460		; ccccccccH
  0002a	f3 ab		 rep stosd
  0002c	48 8b 8c 24 68
	01 00 00	 mov	 rcx, QWORD PTR [rsp+360]
  00034	48 c7 85 08 01
	00 00 fe ff ff
	ff		 mov	 QWORD PTR $T6[rbp], -2
  0003f	48 8d 0d 00 00
	00 00		 lea	 rcx, OFFSET FLAT:__C21BA676_pmc_interface_csharp@cpp
  00046	e8 00 00 00 00	 call	 __CheckForDebuggerJustMyCode

; 1047 :         if (w == nullptr)

  0004b	48 83 bd 50 01
	00 00 00	 cmp	 QWORD PTR w$[rbp], 0
  00053	75 07		 jne	 SHORT $LN2@PMCCS_Comp

; 1048 :             return (PMC_STATUS_ARGUMENT_NULL_ERROR);

  00055	b8 fe ff ff ff	 mov	 eax, -2
  0005a	eb 28		 jmp	 SHORT $LN1@PMCCS_Comp
$LN2@PMCCS_Comp:

; 1049 :         try
; 1050 :         {
; 1051 :             *w = PMC_Compare_X_L(u, v);

  0005c	48 8b 95 48 01
	00 00		 mov	 rdx, QWORD PTR v$[rbp]
  00063	48 8b 8d 40 01
	00 00		 mov	 rcx, QWORD PTR u$[rbp]
  0006a	e8 00 00 00 00	 call	 ?PMC_Compare_X_L@Internal@Core@Math@Palmtree@@YAHPEAU__tag_PMC_HANDLE_UINT@1234@_K@Z ; Palmtree::Math::Core::Internal::PMC_Compare_X_L
  0006f	48 8b 8d 50 01
	00 00		 mov	 rcx, QWORD PTR w$[rbp]
  00076	89 01		 mov	 DWORD PTR [rcx], eax

; 1052 :             return (PMC_STATUS_OK);

  00078	33 c0		 xor	 eax, eax
  0007a	eb 08		 jmp	 SHORT $LN1@PMCCS_Comp
__tryend$PMCCS_Compare_X_L$1:
  0007c	eb 06		 jmp	 SHORT $LN1@PMCCS_Comp
$LN8@PMCCS_Comp:

; 1053 :         }
; 1054 :         catch (const Palmtree::Math::Core::Internal::Exception& ex)
; 1055 :         {
; 1056 :             return (ex.GetStatusCode());

  0007e	8b 85 e4 00 00
	00		 mov	 eax, DWORD PTR $T5[rbp]
$LN1@PMCCS_Comp:

; 1057 :         }
; 1058 :     }

  00084	48 8b f8	 mov	 rdi, rax
  00087	48 8d 4d e0	 lea	 rcx, QWORD PTR [rbp-32]
  0008b	48 8d 15 00 00
	00 00		 lea	 rdx, OFFSET FLAT:PMCCS_Compare_X_L$rtcFrameData
  00092	e8 00 00 00 00	 call	 _RTC_CheckStackVars
  00097	48 8b c7	 mov	 rax, rdi
  0009a	48 8d a5 28 01
	00 00		 lea	 rsp, QWORD PTR [rbp+296]
  000a1	5f		 pop	 rdi
  000a2	5d		 pop	 rbp
  000a3	c3		 ret	 0
  000a4	cc		 int	 3
PMCCS_Compare_X_L ENDP
_TEXT	ENDS
;	COMDAT text$x
text$x	SEGMENT
ex$4 = 8
$T5 = 228
$T6 = 264
u$ = 320
v$ = 328
w$ = 336
PMCCS_Compare_X_L$catch$0 PROC

; 1053 :         }
; 1054 :         catch (const Palmtree::Math::Core::Internal::Exception& ex)
; 1055 :         {

  00000	48 89 4c 24 08	 mov	 QWORD PTR [rsp+8], rcx
  00005	48 89 54 24 10	 mov	 QWORD PTR [rsp+16], rdx
  0000a	55		 push	 rbp
  0000b	57		 push	 rdi
  0000c	48 83 ec 28	 sub	 rsp, 40			; 00000028H
  00010	48 8d 6a 20	 lea	 rbp, QWORD PTR [rdx+32]
__catch$PMCCS_Compare_X_L$0:

; 1053 :         }
; 1054 :         catch (const Palmtree::Math::Core::Internal::Exception& ex)
; 1055 :         {
; 1056 :             return (ex.GetStatusCode());

  00014	48 8b 4d 08	 mov	 rcx, QWORD PTR ex$4[rbp]
  00018	e8 00 00 00 00	 call	 ?GetStatusCode@Exception@Internal@Core@Math@Palmtree@@QEBAHXZ ; Palmtree::Math::Core::Internal::Exception::GetStatusCode
  0001d	89 85 e4 00 00
	00		 mov	 DWORD PTR $T5[rbp], eax
  00023	48 8d 05 00 00
	00 00		 lea	 rax, $LN8@PMCCS_Comp
  0002a	eb 07		 jmp	 SHORT $LN9@PMCCS_Comp

; 1057 :         }

  0002c	48 8d 05 00 00
	00 00		 lea	 rax, __tryend$PMCCS_Compare_X_L$1
$LN9@PMCCS_Comp:
  00033	48 83 c4 28	 add	 rsp, 40			; 00000028H
  00037	5f		 pop	 rdi
  00038	5d		 pop	 rbp
  00039	c3		 ret	 0
  0003a	cc		 int	 3
PMCCS_Compare_X_L$catch$0 ENDP
text$x	ENDS
; Function compile flags: /Odtp /RTCsu /ZI
;	COMDAT text$x
text$x	SEGMENT
ex$4 = 8
$T5 = 228
$T6 = 264
u$ = 320
v$ = 328
w$ = 336
PMCCS_Compare_X_L$catch$0 PROC

; 1055 :         {

  00000	48 89 4c 24 08	 mov	 QWORD PTR [rsp+8], rcx
  00005	48 89 54 24 10	 mov	 QWORD PTR [rsp+16], rdx
  0000a	55		 push	 rbp
  0000b	57		 push	 rdi
  0000c	48 83 ec 28	 sub	 rsp, 40			; 00000028H
  00010	48 8d 6a 20	 lea	 rbp, QWORD PTR [rdx+32]
__catch$PMCCS_Compare_X_L$0:

; 1056 :             return (ex.GetStatusCode());

  00014	48 8b 4d 08	 mov	 rcx, QWORD PTR ex$4[rbp]
  00018	e8 00 00 00 00	 call	 ?GetStatusCode@Exception@Internal@Core@Math@Palmtree@@QEBAHXZ ; Palmtree::Math::Core::Internal::Exception::GetStatusCode
  0001d	89 85 e4 00 00
	00		 mov	 DWORD PTR $T5[rbp], eax
  00023	48 8d 05 00 00
	00 00		 lea	 rax, $LN8@PMCCS_Comp
  0002a	eb 07		 jmp	 SHORT $LN9@PMCCS_Comp

; 1057 :         }

  0002c	48 8d 05 00 00
	00 00		 lea	 rax, __tryend$PMCCS_Compare_X_L$1
$LN9@PMCCS_Comp:
  00033	48 83 c4 28	 add	 rsp, 40			; 00000028H
  00037	5f		 pop	 rdi
  00038	5d		 pop	 rbp
  00039	c3		 ret	 0
  0003a	cc		 int	 3
PMCCS_Compare_X_L$catch$0 ENDP
text$x	ENDS
; Function compile flags: /Odtp /RTCsu /ZI
; File z:\sources\lunor\repos\rougemeilland\palmtree.math.core.uint\palmtree.math.core.uint\pmc_interface_csharp.cpp
;	COMDAT PMCCS_Compare_X_I
_TEXT	SEGMENT
ex$4 = 8
$T5 = 228
$T6 = 264
u$ = 320
v$ = 328
w$ = 336
PMCCS_Compare_X_I PROC					; COMDAT

; 1031 :     {

$LN10:
  00000	4c 89 44 24 18	 mov	 QWORD PTR [rsp+24], r8
  00005	89 54 24 10	 mov	 DWORD PTR [rsp+16], edx
  00009	48 89 4c 24 08	 mov	 QWORD PTR [rsp+8], rcx
  0000e	55		 push	 rbp
  0000f	57		 push	 rdi
  00010	48 81 ec 48 01
	00 00		 sub	 rsp, 328		; 00000148H
  00017	48 8d 6c 24 20	 lea	 rbp, QWORD PTR [rsp+32]
  0001c	48 8b fc	 mov	 rdi, rsp
  0001f	b9 52 00 00 00	 mov	 ecx, 82			; 00000052H
  00024	b8 cc cc cc cc	 mov	 eax, -858993460		; ccccccccH
  00029	f3 ab		 rep stosd
  0002b	48 8b 8c 24 68
	01 00 00	 mov	 rcx, QWORD PTR [rsp+360]
  00033	48 c7 85 08 01
	00 00 fe ff ff
	ff		 mov	 QWORD PTR $T6[rbp], -2
  0003e	48 8d 0d 00 00
	00 00		 lea	 rcx, OFFSET FLAT:__C21BA676_pmc_interface_csharp@cpp
  00045	e8 00 00 00 00	 call	 __CheckForDebuggerJustMyCode

; 1032 :         if (w == nullptr)

  0004a	48 83 bd 50 01
	00 00 00	 cmp	 QWORD PTR w$[rbp], 0
  00052	75 07		 jne	 SHORT $LN2@PMCCS_Comp

; 1033 :             return (PMC_STATUS_ARGUMENT_NULL_ERROR);

  00054	b8 fe ff ff ff	 mov	 eax, -2
  00059	eb 27		 jmp	 SHORT $LN1@PMCCS_Comp
$LN2@PMCCS_Comp:

; 1034 :         try
; 1035 :         {
; 1036 :             *w = PMC_Compare_X_I(u, v);

  0005b	8b 95 48 01 00
	00		 mov	 edx, DWORD PTR v$[rbp]
  00061	48 8b 8d 40 01
	00 00		 mov	 rcx, QWORD PTR u$[rbp]
  00068	e8 00 00 00 00	 call	 ?PMC_Compare_X_I@Internal@Core@Math@Palmtree@@YAHPEAU__tag_PMC_HANDLE_UINT@1234@I@Z ; Palmtree::Math::Core::Internal::PMC_Compare_X_I
  0006d	48 8b 8d 50 01
	00 00		 mov	 rcx, QWORD PTR w$[rbp]
  00074	89 01		 mov	 DWORD PTR [rcx], eax

; 1037 :             return (PMC_STATUS_OK);

  00076	33 c0		 xor	 eax, eax
  00078	eb 08		 jmp	 SHORT $LN1@PMCCS_Comp
__tryend$PMCCS_Compare_X_I$1:
  0007a	eb 06		 jmp	 SHORT $LN1@PMCCS_Comp
$LN8@PMCCS_Comp:

; 1038 :         }
; 1039 :         catch (const Palmtree::Math::Core::Internal::Exception& ex)
; 1040 :         {
; 1041 :             return (ex.GetStatusCode());

  0007c	8b 85 e4 00 00
	00		 mov	 eax, DWORD PTR $T5[rbp]
$LN1@PMCCS_Comp:

; 1042 :         }
; 1043 :     }

  00082	48 8b f8	 mov	 rdi, rax
  00085	48 8d 4d e0	 lea	 rcx, QWORD PTR [rbp-32]
  00089	48 8d 15 00 00
	00 00		 lea	 rdx, OFFSET FLAT:PMCCS_Compare_X_I$rtcFrameData
  00090	e8 00 00 00 00	 call	 _RTC_CheckStackVars
  00095	48 8b c7	 mov	 rax, rdi
  00098	48 8d a5 28 01
	00 00		 lea	 rsp, QWORD PTR [rbp+296]
  0009f	5f		 pop	 rdi
  000a0	5d		 pop	 rbp
  000a1	c3		 ret	 0
  000a2	cc		 int	 3
PMCCS_Compare_X_I ENDP
_TEXT	ENDS
;	COMDAT text$x
text$x	SEGMENT
ex$4 = 8
$T5 = 228
$T6 = 264
u$ = 320
v$ = 328
w$ = 336
PMCCS_Compare_X_I$catch$0 PROC

; 1038 :         }
; 1039 :         catch (const Palmtree::Math::Core::Internal::Exception& ex)
; 1040 :         {

  00000	48 89 4c 24 08	 mov	 QWORD PTR [rsp+8], rcx
  00005	48 89 54 24 10	 mov	 QWORD PTR [rsp+16], rdx
  0000a	55		 push	 rbp
  0000b	57		 push	 rdi
  0000c	48 83 ec 28	 sub	 rsp, 40			; 00000028H
  00010	48 8d 6a 20	 lea	 rbp, QWORD PTR [rdx+32]
__catch$PMCCS_Compare_X_I$0:

; 1038 :         }
; 1039 :         catch (const Palmtree::Math::Core::Internal::Exception& ex)
; 1040 :         {
; 1041 :             return (ex.GetStatusCode());

  00014	48 8b 4d 08	 mov	 rcx, QWORD PTR ex$4[rbp]
  00018	e8 00 00 00 00	 call	 ?GetStatusCode@Exception@Internal@Core@Math@Palmtree@@QEBAHXZ ; Palmtree::Math::Core::Internal::Exception::GetStatusCode
  0001d	89 85 e4 00 00
	00		 mov	 DWORD PTR $T5[rbp], eax
  00023	48 8d 05 00 00
	00 00		 lea	 rax, $LN8@PMCCS_Comp
  0002a	eb 07		 jmp	 SHORT $LN9@PMCCS_Comp

; 1042 :         }

  0002c	48 8d 05 00 00
	00 00		 lea	 rax, __tryend$PMCCS_Compare_X_I$1
$LN9@PMCCS_Comp:
  00033	48 83 c4 28	 add	 rsp, 40			; 00000028H
  00037	5f		 pop	 rdi
  00038	5d		 pop	 rbp
  00039	c3		 ret	 0
  0003a	cc		 int	 3
PMCCS_Compare_X_I$catch$0 ENDP
text$x	ENDS
; Function compile flags: /Odtp /RTCsu /ZI
;	COMDAT text$x
text$x	SEGMENT
ex$4 = 8
$T5 = 228
$T6 = 264
u$ = 320
v$ = 328
w$ = 336
PMCCS_Compare_X_I$catch$0 PROC

; 1040 :         {

  00000	48 89 4c 24 08	 mov	 QWORD PTR [rsp+8], rcx
  00005	48 89 54 24 10	 mov	 QWORD PTR [rsp+16], rdx
  0000a	55		 push	 rbp
  0000b	57		 push	 rdi
  0000c	48 83 ec 28	 sub	 rsp, 40			; 00000028H
  00010	48 8d 6a 20	 lea	 rbp, QWORD PTR [rdx+32]
__catch$PMCCS_Compare_X_I$0:

; 1041 :             return (ex.GetStatusCode());

  00014	48 8b 4d 08	 mov	 rcx, QWORD PTR ex$4[rbp]
  00018	e8 00 00 00 00	 call	 ?GetStatusCode@Exception@Internal@Core@Math@Palmtree@@QEBAHXZ ; Palmtree::Math::Core::Internal::Exception::GetStatusCode
  0001d	89 85 e4 00 00
	00		 mov	 DWORD PTR $T5[rbp], eax
  00023	48 8d 05 00 00
	00 00		 lea	 rax, $LN8@PMCCS_Comp
  0002a	eb 07		 jmp	 SHORT $LN9@PMCCS_Comp

; 1042 :         }

  0002c	48 8d 05 00 00
	00 00		 lea	 rax, __tryend$PMCCS_Compare_X_I$1
$LN9@PMCCS_Comp:
  00033	48 83 c4 28	 add	 rsp, 40			; 00000028H
  00037	5f		 pop	 rdi
  00038	5d		 pop	 rbp
  00039	c3		 ret	 0
  0003a	cc		 int	 3
PMCCS_Compare_X_I$catch$0 ENDP
text$x	ENDS
; Function compile flags: /Odtp /RTCsu /ZI
; File z:\sources\lunor\repos\rougemeilland\palmtree.math.core.uint\palmtree.math.core.uint\pmc_interface_csharp.cpp
;	COMDAT PMCCS_Compare_L_X
_TEXT	SEGMENT
ex$4 = 8
$T5 = 228
$T6 = 264
u$ = 320
v$ = 328
w$ = 336
PMCCS_Compare_L_X PROC					; COMDAT

; 1016 :     {

$LN10:
  00000	4c 89 44 24 18	 mov	 QWORD PTR [rsp+24], r8
  00005	48 89 54 24 10	 mov	 QWORD PTR [rsp+16], rdx
  0000a	48 89 4c 24 08	 mov	 QWORD PTR [rsp+8], rcx
  0000f	55		 push	 rbp
  00010	57		 push	 rdi
  00011	48 81 ec 48 01
	00 00		 sub	 rsp, 328		; 00000148H
  00018	48 8d 6c 24 20	 lea	 rbp, QWORD PTR [rsp+32]
  0001d	48 8b fc	 mov	 rdi, rsp
  00020	b9 52 00 00 00	 mov	 ecx, 82			; 00000052H
  00025	b8 cc cc cc cc	 mov	 eax, -858993460		; ccccccccH
  0002a	f3 ab		 rep stosd
  0002c	48 8b 8c 24 68
	01 00 00	 mov	 rcx, QWORD PTR [rsp+360]
  00034	48 c7 85 08 01
	00 00 fe ff ff
	ff		 mov	 QWORD PTR $T6[rbp], -2
  0003f	48 8d 0d 00 00
	00 00		 lea	 rcx, OFFSET FLAT:__C21BA676_pmc_interface_csharp@cpp
  00046	e8 00 00 00 00	 call	 __CheckForDebuggerJustMyCode

; 1017 :         if (w == nullptr)

  0004b	48 83 bd 50 01
	00 00 00	 cmp	 QWORD PTR w$[rbp], 0
  00053	75 07		 jne	 SHORT $LN2@PMCCS_Comp

; 1018 :             return (PMC_STATUS_ARGUMENT_NULL_ERROR);

  00055	b8 fe ff ff ff	 mov	 eax, -2
  0005a	eb 28		 jmp	 SHORT $LN1@PMCCS_Comp
$LN2@PMCCS_Comp:

; 1019 :         try
; 1020 :         {
; 1021 :             *w = PMC_Compare_L_X(u, v);

  0005c	48 8b 95 48 01
	00 00		 mov	 rdx, QWORD PTR v$[rbp]
  00063	48 8b 8d 40 01
	00 00		 mov	 rcx, QWORD PTR u$[rbp]
  0006a	e8 00 00 00 00	 call	 ?PMC_Compare_L_X@Internal@Core@Math@Palmtree@@YAH_KPEAU__tag_PMC_HANDLE_UINT@1234@@Z ; Palmtree::Math::Core::Internal::PMC_Compare_L_X
  0006f	48 8b 8d 50 01
	00 00		 mov	 rcx, QWORD PTR w$[rbp]
  00076	89 01		 mov	 DWORD PTR [rcx], eax

; 1022 :             return (PMC_STATUS_OK);

  00078	33 c0		 xor	 eax, eax
  0007a	eb 08		 jmp	 SHORT $LN1@PMCCS_Comp
__tryend$PMCCS_Compare_L_X$1:
  0007c	eb 06		 jmp	 SHORT $LN1@PMCCS_Comp
$LN8@PMCCS_Comp:

; 1023 :         }
; 1024 :         catch (const Palmtree::Math::Core::Internal::Exception& ex)
; 1025 :         {
; 1026 :             return (ex.GetStatusCode());

  0007e	8b 85 e4 00 00
	00		 mov	 eax, DWORD PTR $T5[rbp]
$LN1@PMCCS_Comp:

; 1027 :         }
; 1028 :     }

  00084	48 8b f8	 mov	 rdi, rax
  00087	48 8d 4d e0	 lea	 rcx, QWORD PTR [rbp-32]
  0008b	48 8d 15 00 00
	00 00		 lea	 rdx, OFFSET FLAT:PMCCS_Compare_L_X$rtcFrameData
  00092	e8 00 00 00 00	 call	 _RTC_CheckStackVars
  00097	48 8b c7	 mov	 rax, rdi
  0009a	48 8d a5 28 01
	00 00		 lea	 rsp, QWORD PTR [rbp+296]
  000a1	5f		 pop	 rdi
  000a2	5d		 pop	 rbp
  000a3	c3		 ret	 0
  000a4	cc		 int	 3
PMCCS_Compare_L_X ENDP
_TEXT	ENDS
;	COMDAT text$x
text$x	SEGMENT
ex$4 = 8
$T5 = 228
$T6 = 264
u$ = 320
v$ = 328
w$ = 336
PMCCS_Compare_L_X$catch$0 PROC

; 1023 :         }
; 1024 :         catch (const Palmtree::Math::Core::Internal::Exception& ex)
; 1025 :         {

  00000	48 89 4c 24 08	 mov	 QWORD PTR [rsp+8], rcx
  00005	48 89 54 24 10	 mov	 QWORD PTR [rsp+16], rdx
  0000a	55		 push	 rbp
  0000b	57		 push	 rdi
  0000c	48 83 ec 28	 sub	 rsp, 40			; 00000028H
  00010	48 8d 6a 20	 lea	 rbp, QWORD PTR [rdx+32]
__catch$PMCCS_Compare_L_X$0:

; 1023 :         }
; 1024 :         catch (const Palmtree::Math::Core::Internal::Exception& ex)
; 1025 :         {
; 1026 :             return (ex.GetStatusCode());

  00014	48 8b 4d 08	 mov	 rcx, QWORD PTR ex$4[rbp]
  00018	e8 00 00 00 00	 call	 ?GetStatusCode@Exception@Internal@Core@Math@Palmtree@@QEBAHXZ ; Palmtree::Math::Core::Internal::Exception::GetStatusCode
  0001d	89 85 e4 00 00
	00		 mov	 DWORD PTR $T5[rbp], eax
  00023	48 8d 05 00 00
	00 00		 lea	 rax, $LN8@PMCCS_Comp
  0002a	eb 07		 jmp	 SHORT $LN9@PMCCS_Comp

; 1027 :         }

  0002c	48 8d 05 00 00
	00 00		 lea	 rax, __tryend$PMCCS_Compare_L_X$1
$LN9@PMCCS_Comp:
  00033	48 83 c4 28	 add	 rsp, 40			; 00000028H
  00037	5f		 pop	 rdi
  00038	5d		 pop	 rbp
  00039	c3		 ret	 0
  0003a	cc		 int	 3
PMCCS_Compare_L_X$catch$0 ENDP
text$x	ENDS
; Function compile flags: /Odtp /RTCsu /ZI
;	COMDAT text$x
text$x	SEGMENT
ex$4 = 8
$T5 = 228
$T6 = 264
u$ = 320
v$ = 328
w$ = 336
PMCCS_Compare_L_X$catch$0 PROC

; 1025 :         {

  00000	48 89 4c 24 08	 mov	 QWORD PTR [rsp+8], rcx
  00005	48 89 54 24 10	 mov	 QWORD PTR [rsp+16], rdx
  0000a	55		 push	 rbp
  0000b	57		 push	 rdi
  0000c	48 83 ec 28	 sub	 rsp, 40			; 00000028H
  00010	48 8d 6a 20	 lea	 rbp, QWORD PTR [rdx+32]
__catch$PMCCS_Compare_L_X$0:

; 1026 :             return (ex.GetStatusCode());

  00014	48 8b 4d 08	 mov	 rcx, QWORD PTR ex$4[rbp]
  00018	e8 00 00 00 00	 call	 ?GetStatusCode@Exception@Internal@Core@Math@Palmtree@@QEBAHXZ ; Palmtree::Math::Core::Internal::Exception::GetStatusCode
  0001d	89 85 e4 00 00
	00		 mov	 DWORD PTR $T5[rbp], eax
  00023	48 8d 05 00 00
	00 00		 lea	 rax, $LN8@PMCCS_Comp
  0002a	eb 07		 jmp	 SHORT $LN9@PMCCS_Comp

; 1027 :         }

  0002c	48 8d 05 00 00
	00 00		 lea	 rax, __tryend$PMCCS_Compare_L_X$1
$LN9@PMCCS_Comp:
  00033	48 83 c4 28	 add	 rsp, 40			; 00000028H
  00037	5f		 pop	 rdi
  00038	5d		 pop	 rbp
  00039	c3		 ret	 0
  0003a	cc		 int	 3
PMCCS_Compare_L_X$catch$0 ENDP
text$x	ENDS
; Function compile flags: /Odtp /RTCsu /ZI
; File z:\sources\lunor\repos\rougemeilland\palmtree.math.core.uint\palmtree.math.core.uint\pmc_interface_csharp.cpp
;	COMDAT PMCCS_Compare_I_X
_TEXT	SEGMENT
ex$4 = 8
$T5 = 228
$T6 = 264
u$ = 320
v$ = 328
w$ = 336
PMCCS_Compare_I_X PROC					; COMDAT

; 1001 :     {

$LN10:
  00000	4c 89 44 24 18	 mov	 QWORD PTR [rsp+24], r8
  00005	48 89 54 24 10	 mov	 QWORD PTR [rsp+16], rdx
  0000a	89 4c 24 08	 mov	 DWORD PTR [rsp+8], ecx
  0000e	55		 push	 rbp
  0000f	57		 push	 rdi
  00010	48 81 ec 48 01
	00 00		 sub	 rsp, 328		; 00000148H
  00017	48 8d 6c 24 20	 lea	 rbp, QWORD PTR [rsp+32]
  0001c	48 8b fc	 mov	 rdi, rsp
  0001f	b9 52 00 00 00	 mov	 ecx, 82			; 00000052H
  00024	b8 cc cc cc cc	 mov	 eax, -858993460		; ccccccccH
  00029	f3 ab		 rep stosd
  0002b	8b 8c 24 68 01
	00 00		 mov	 ecx, DWORD PTR [rsp+360]
  00032	48 c7 85 08 01
	00 00 fe ff ff
	ff		 mov	 QWORD PTR $T6[rbp], -2
  0003d	48 8d 0d 00 00
	00 00		 lea	 rcx, OFFSET FLAT:__C21BA676_pmc_interface_csharp@cpp
  00044	e8 00 00 00 00	 call	 __CheckForDebuggerJustMyCode

; 1002 :         if (w == nullptr)

  00049	48 83 bd 50 01
	00 00 00	 cmp	 QWORD PTR w$[rbp], 0
  00051	75 07		 jne	 SHORT $LN2@PMCCS_Comp

; 1003 :             return (PMC_STATUS_ARGUMENT_NULL_ERROR);

  00053	b8 fe ff ff ff	 mov	 eax, -2
  00058	eb 27		 jmp	 SHORT $LN1@PMCCS_Comp
$LN2@PMCCS_Comp:

; 1004 :         try
; 1005 :         {
; 1006 :             *w = PMC_Compare_I_X(u, v);

  0005a	48 8b 95 48 01
	00 00		 mov	 rdx, QWORD PTR v$[rbp]
  00061	8b 8d 40 01 00
	00		 mov	 ecx, DWORD PTR u$[rbp]
  00067	e8 00 00 00 00	 call	 ?PMC_Compare_I_X@Internal@Core@Math@Palmtree@@YAHIPEAU__tag_PMC_HANDLE_UINT@1234@@Z ; Palmtree::Math::Core::Internal::PMC_Compare_I_X
  0006c	48 8b 8d 50 01
	00 00		 mov	 rcx, QWORD PTR w$[rbp]
  00073	89 01		 mov	 DWORD PTR [rcx], eax

; 1007 :             return (PMC_STATUS_OK);

  00075	33 c0		 xor	 eax, eax
  00077	eb 08		 jmp	 SHORT $LN1@PMCCS_Comp
__tryend$PMCCS_Compare_I_X$1:
  00079	eb 06		 jmp	 SHORT $LN1@PMCCS_Comp
$LN8@PMCCS_Comp:

; 1008 :         }
; 1009 :         catch (const Palmtree::Math::Core::Internal::Exception& ex)
; 1010 :         {
; 1011 :             return (ex.GetStatusCode());

  0007b	8b 85 e4 00 00
	00		 mov	 eax, DWORD PTR $T5[rbp]
$LN1@PMCCS_Comp:

; 1012 :         }
; 1013 :     }

  00081	48 8b f8	 mov	 rdi, rax
  00084	48 8d 4d e0	 lea	 rcx, QWORD PTR [rbp-32]
  00088	48 8d 15 00 00
	00 00		 lea	 rdx, OFFSET FLAT:PMCCS_Compare_I_X$rtcFrameData
  0008f	e8 00 00 00 00	 call	 _RTC_CheckStackVars
  00094	48 8b c7	 mov	 rax, rdi
  00097	48 8d a5 28 01
	00 00		 lea	 rsp, QWORD PTR [rbp+296]
  0009e	5f		 pop	 rdi
  0009f	5d		 pop	 rbp
  000a0	c3		 ret	 0
  000a1	cc		 int	 3
PMCCS_Compare_I_X ENDP
_TEXT	ENDS
;	COMDAT text$x
text$x	SEGMENT
ex$4 = 8
$T5 = 228
$T6 = 264
u$ = 320
v$ = 328
w$ = 336
PMCCS_Compare_I_X$catch$0 PROC

; 1008 :         }
; 1009 :         catch (const Palmtree::Math::Core::Internal::Exception& ex)
; 1010 :         {

  00000	48 89 4c 24 08	 mov	 QWORD PTR [rsp+8], rcx
  00005	48 89 54 24 10	 mov	 QWORD PTR [rsp+16], rdx
  0000a	55		 push	 rbp
  0000b	57		 push	 rdi
  0000c	48 83 ec 28	 sub	 rsp, 40			; 00000028H
  00010	48 8d 6a 20	 lea	 rbp, QWORD PTR [rdx+32]
__catch$PMCCS_Compare_I_X$0:

; 1008 :         }
; 1009 :         catch (const Palmtree::Math::Core::Internal::Exception& ex)
; 1010 :         {
; 1011 :             return (ex.GetStatusCode());

  00014	48 8b 4d 08	 mov	 rcx, QWORD PTR ex$4[rbp]
  00018	e8 00 00 00 00	 call	 ?GetStatusCode@Exception@Internal@Core@Math@Palmtree@@QEBAHXZ ; Palmtree::Math::Core::Internal::Exception::GetStatusCode
  0001d	89 85 e4 00 00
	00		 mov	 DWORD PTR $T5[rbp], eax
  00023	48 8d 05 00 00
	00 00		 lea	 rax, $LN8@PMCCS_Comp
  0002a	eb 07		 jmp	 SHORT $LN9@PMCCS_Comp

; 1012 :         }

  0002c	48 8d 05 00 00
	00 00		 lea	 rax, __tryend$PMCCS_Compare_I_X$1
$LN9@PMCCS_Comp:
  00033	48 83 c4 28	 add	 rsp, 40			; 00000028H
  00037	5f		 pop	 rdi
  00038	5d		 pop	 rbp
  00039	c3		 ret	 0
  0003a	cc		 int	 3
PMCCS_Compare_I_X$catch$0 ENDP
text$x	ENDS
; Function compile flags: /Odtp /RTCsu /ZI
;	COMDAT text$x
text$x	SEGMENT
ex$4 = 8
$T5 = 228
$T6 = 264
u$ = 320
v$ = 328
w$ = 336
PMCCS_Compare_I_X$catch$0 PROC

; 1010 :         {

  00000	48 89 4c 24 08	 mov	 QWORD PTR [rsp+8], rcx
  00005	48 89 54 24 10	 mov	 QWORD PTR [rsp+16], rdx
  0000a	55		 push	 rbp
  0000b	57		 push	 rdi
  0000c	48 83 ec 28	 sub	 rsp, 40			; 00000028H
  00010	48 8d 6a 20	 lea	 rbp, QWORD PTR [rdx+32]
__catch$PMCCS_Compare_I_X$0:

; 1011 :             return (ex.GetStatusCode());

  00014	48 8b 4d 08	 mov	 rcx, QWORD PTR ex$4[rbp]
  00018	e8 00 00 00 00	 call	 ?GetStatusCode@Exception@Internal@Core@Math@Palmtree@@QEBAHXZ ; Palmtree::Math::Core::Internal::Exception::GetStatusCode
  0001d	89 85 e4 00 00
	00		 mov	 DWORD PTR $T5[rbp], eax
  00023	48 8d 05 00 00
	00 00		 lea	 rax, $LN8@PMCCS_Comp
  0002a	eb 07		 jmp	 SHORT $LN9@PMCCS_Comp

; 1012 :         }

  0002c	48 8d 05 00 00
	00 00		 lea	 rax, __tryend$PMCCS_Compare_I_X$1
$LN9@PMCCS_Comp:
  00033	48 83 c4 28	 add	 rsp, 40			; 00000028H
  00037	5f		 pop	 rdi
  00038	5d		 pop	 rbp
  00039	c3		 ret	 0
  0003a	cc		 int	 3
PMCCS_Compare_I_X$catch$0 ENDP
text$x	ENDS
; Function compile flags: /Odtp /RTCsu /ZI
; File z:\sources\lunor\repos\rougemeilland\palmtree.math.core.uint\palmtree.math.core.uint\pmc_interface_csharp.cpp
;	COMDAT PMCCS_ExclusiveOr_X_X
_TEXT	SEGMENT
ex$4 = 8
$T5 = 228
$T6 = 264
u$ = 320
v$ = 328
w$ = 336
PMCCS_ExclusiveOr_X_X PROC				; COMDAT

; 986  :     {

$LN10:
  00000	4c 89 44 24 18	 mov	 QWORD PTR [rsp+24], r8
  00005	48 89 54 24 10	 mov	 QWORD PTR [rsp+16], rdx
  0000a	48 89 4c 24 08	 mov	 QWORD PTR [rsp+8], rcx
  0000f	55		 push	 rbp
  00010	57		 push	 rdi
  00011	48 81 ec 48 01
	00 00		 sub	 rsp, 328		; 00000148H
  00018	48 8d 6c 24 20	 lea	 rbp, QWORD PTR [rsp+32]
  0001d	48 8b fc	 mov	 rdi, rsp
  00020	b9 52 00 00 00	 mov	 ecx, 82			; 00000052H
  00025	b8 cc cc cc cc	 mov	 eax, -858993460		; ccccccccH
  0002a	f3 ab		 rep stosd
  0002c	48 8b 8c 24 68
	01 00 00	 mov	 rcx, QWORD PTR [rsp+360]
  00034	48 c7 85 08 01
	00 00 fe ff ff
	ff		 mov	 QWORD PTR $T6[rbp], -2
  0003f	48 8d 0d 00 00
	00 00		 lea	 rcx, OFFSET FLAT:__C21BA676_pmc_interface_csharp@cpp
  00046	e8 00 00 00 00	 call	 __CheckForDebuggerJustMyCode

; 987  :         if (w == nullptr)

  0004b	48 83 bd 50 01
	00 00 00	 cmp	 QWORD PTR w$[rbp], 0
  00053	75 07		 jne	 SHORT $LN2@PMCCS_Excl

; 988  :             return (PMC_STATUS_ARGUMENT_NULL_ERROR);

  00055	b8 fe ff ff ff	 mov	 eax, -2
  0005a	eb 29		 jmp	 SHORT $LN1@PMCCS_Excl
$LN2@PMCCS_Excl:

; 989  :         try
; 990  :         {
; 991  :             *w = PMC_ExclusiveOr_X_X(u, v);

  0005c	48 8b 95 48 01
	00 00		 mov	 rdx, QWORD PTR v$[rbp]
  00063	48 8b 8d 40 01
	00 00		 mov	 rcx, QWORD PTR u$[rbp]
  0006a	e8 00 00 00 00	 call	 ?PMC_ExclusiveOr_X_X@Internal@Core@Math@Palmtree@@YAPEAU__tag_PMC_HANDLE_UINT@1234@PEAU51234@0@Z ; Palmtree::Math::Core::Internal::PMC_ExclusiveOr_X_X
  0006f	48 8b 8d 50 01
	00 00		 mov	 rcx, QWORD PTR w$[rbp]
  00076	48 89 01	 mov	 QWORD PTR [rcx], rax

; 992  :             return (PMC_STATUS_OK);

  00079	33 c0		 xor	 eax, eax
  0007b	eb 08		 jmp	 SHORT $LN1@PMCCS_Excl
__tryend$PMCCS_ExclusiveOr_X_X$1:
  0007d	eb 06		 jmp	 SHORT $LN1@PMCCS_Excl
$LN8@PMCCS_Excl:

; 993  :         }
; 994  :         catch (const Palmtree::Math::Core::Internal::Exception& ex)
; 995  :         {
; 996  :             return (ex.GetStatusCode());

  0007f	8b 85 e4 00 00
	00		 mov	 eax, DWORD PTR $T5[rbp]
$LN1@PMCCS_Excl:

; 997  :         }
; 998  :     }

  00085	48 8b f8	 mov	 rdi, rax
  00088	48 8d 4d e0	 lea	 rcx, QWORD PTR [rbp-32]
  0008c	48 8d 15 00 00
	00 00		 lea	 rdx, OFFSET FLAT:PMCCS_ExclusiveOr_X_X$rtcFrameData
  00093	e8 00 00 00 00	 call	 _RTC_CheckStackVars
  00098	48 8b c7	 mov	 rax, rdi
  0009b	48 8d a5 28 01
	00 00		 lea	 rsp, QWORD PTR [rbp+296]
  000a2	5f		 pop	 rdi
  000a3	5d		 pop	 rbp
  000a4	c3		 ret	 0
  000a5	cc		 int	 3
PMCCS_ExclusiveOr_X_X ENDP
_TEXT	ENDS
;	COMDAT text$x
text$x	SEGMENT
ex$4 = 8
$T5 = 228
$T6 = 264
u$ = 320
v$ = 328
w$ = 336
PMCCS_ExclusiveOr_X_X$catch$0 PROC

; 993  :         }
; 994  :         catch (const Palmtree::Math::Core::Internal::Exception& ex)
; 995  :         {

  00000	48 89 4c 24 08	 mov	 QWORD PTR [rsp+8], rcx
  00005	48 89 54 24 10	 mov	 QWORD PTR [rsp+16], rdx
  0000a	55		 push	 rbp
  0000b	57		 push	 rdi
  0000c	48 83 ec 28	 sub	 rsp, 40			; 00000028H
  00010	48 8d 6a 20	 lea	 rbp, QWORD PTR [rdx+32]
__catch$PMCCS_ExclusiveOr_X_X$0:

; 993  :         }
; 994  :         catch (const Palmtree::Math::Core::Internal::Exception& ex)
; 995  :         {
; 996  :             return (ex.GetStatusCode());

  00014	48 8b 4d 08	 mov	 rcx, QWORD PTR ex$4[rbp]
  00018	e8 00 00 00 00	 call	 ?GetStatusCode@Exception@Internal@Core@Math@Palmtree@@QEBAHXZ ; Palmtree::Math::Core::Internal::Exception::GetStatusCode
  0001d	89 85 e4 00 00
	00		 mov	 DWORD PTR $T5[rbp], eax
  00023	48 8d 05 00 00
	00 00		 lea	 rax, $LN8@PMCCS_Excl
  0002a	eb 07		 jmp	 SHORT $LN9@PMCCS_Excl

; 997  :         }

  0002c	48 8d 05 00 00
	00 00		 lea	 rax, __tryend$PMCCS_ExclusiveOr_X_X$1
$LN9@PMCCS_Excl:
  00033	48 83 c4 28	 add	 rsp, 40			; 00000028H
  00037	5f		 pop	 rdi
  00038	5d		 pop	 rbp
  00039	c3		 ret	 0
  0003a	cc		 int	 3
PMCCS_ExclusiveOr_X_X$catch$0 ENDP
text$x	ENDS
; Function compile flags: /Odtp /RTCsu /ZI
;	COMDAT text$x
text$x	SEGMENT
ex$4 = 8
$T5 = 228
$T6 = 264
u$ = 320
v$ = 328
w$ = 336
PMCCS_ExclusiveOr_X_X$catch$0 PROC

; 995  :         {

  00000	48 89 4c 24 08	 mov	 QWORD PTR [rsp+8], rcx
  00005	48 89 54 24 10	 mov	 QWORD PTR [rsp+16], rdx
  0000a	55		 push	 rbp
  0000b	57		 push	 rdi
  0000c	48 83 ec 28	 sub	 rsp, 40			; 00000028H
  00010	48 8d 6a 20	 lea	 rbp, QWORD PTR [rdx+32]
__catch$PMCCS_ExclusiveOr_X_X$0:

; 996  :             return (ex.GetStatusCode());

  00014	48 8b 4d 08	 mov	 rcx, QWORD PTR ex$4[rbp]
  00018	e8 00 00 00 00	 call	 ?GetStatusCode@Exception@Internal@Core@Math@Palmtree@@QEBAHXZ ; Palmtree::Math::Core::Internal::Exception::GetStatusCode
  0001d	89 85 e4 00 00
	00		 mov	 DWORD PTR $T5[rbp], eax
  00023	48 8d 05 00 00
	00 00		 lea	 rax, $LN8@PMCCS_Excl
  0002a	eb 07		 jmp	 SHORT $LN9@PMCCS_Excl

; 997  :         }

  0002c	48 8d 05 00 00
	00 00		 lea	 rax, __tryend$PMCCS_ExclusiveOr_X_X$1
$LN9@PMCCS_Excl:
  00033	48 83 c4 28	 add	 rsp, 40			; 00000028H
  00037	5f		 pop	 rdi
  00038	5d		 pop	 rbp
  00039	c3		 ret	 0
  0003a	cc		 int	 3
PMCCS_ExclusiveOr_X_X$catch$0 ENDP
text$x	ENDS
; Function compile flags: /Odtp /RTCsu /ZI
; File z:\sources\lunor\repos\rougemeilland\palmtree.math.core.uint\palmtree.math.core.uint\pmc_interface_csharp.cpp
;	COMDAT PMCCS_ExclusiveOr_X_L
_TEXT	SEGMENT
ex$4 = 8
$T5 = 228
$T6 = 264
u$ = 320
v$ = 328
w$ = 336
PMCCS_ExclusiveOr_X_L PROC				; COMDAT

; 971  :     {

$LN10:
  00000	4c 89 44 24 18	 mov	 QWORD PTR [rsp+24], r8
  00005	48 89 54 24 10	 mov	 QWORD PTR [rsp+16], rdx
  0000a	48 89 4c 24 08	 mov	 QWORD PTR [rsp+8], rcx
  0000f	55		 push	 rbp
  00010	57		 push	 rdi
  00011	48 81 ec 48 01
	00 00		 sub	 rsp, 328		; 00000148H
  00018	48 8d 6c 24 20	 lea	 rbp, QWORD PTR [rsp+32]
  0001d	48 8b fc	 mov	 rdi, rsp
  00020	b9 52 00 00 00	 mov	 ecx, 82			; 00000052H
  00025	b8 cc cc cc cc	 mov	 eax, -858993460		; ccccccccH
  0002a	f3 ab		 rep stosd
  0002c	48 8b 8c 24 68
	01 00 00	 mov	 rcx, QWORD PTR [rsp+360]
  00034	48 c7 85 08 01
	00 00 fe ff ff
	ff		 mov	 QWORD PTR $T6[rbp], -2
  0003f	48 8d 0d 00 00
	00 00		 lea	 rcx, OFFSET FLAT:__C21BA676_pmc_interface_csharp@cpp
  00046	e8 00 00 00 00	 call	 __CheckForDebuggerJustMyCode

; 972  :         if (w == nullptr)

  0004b	48 83 bd 50 01
	00 00 00	 cmp	 QWORD PTR w$[rbp], 0
  00053	75 07		 jne	 SHORT $LN2@PMCCS_Excl

; 973  :             return (PMC_STATUS_ARGUMENT_NULL_ERROR);

  00055	b8 fe ff ff ff	 mov	 eax, -2
  0005a	eb 29		 jmp	 SHORT $LN1@PMCCS_Excl
$LN2@PMCCS_Excl:

; 974  :         try
; 975  :         {
; 976  :             *w = PMC_ExclusiveOr_X_L(u, v);

  0005c	48 8b 95 48 01
	00 00		 mov	 rdx, QWORD PTR v$[rbp]
  00063	48 8b 8d 40 01
	00 00		 mov	 rcx, QWORD PTR u$[rbp]
  0006a	e8 00 00 00 00	 call	 ?PMC_ExclusiveOr_X_L@Internal@Core@Math@Palmtree@@YAPEAU__tag_PMC_HANDLE_UINT@1234@PEAU51234@_K@Z ; Palmtree::Math::Core::Internal::PMC_ExclusiveOr_X_L
  0006f	48 8b 8d 50 01
	00 00		 mov	 rcx, QWORD PTR w$[rbp]
  00076	48 89 01	 mov	 QWORD PTR [rcx], rax

; 977  :             return (PMC_STATUS_OK);

  00079	33 c0		 xor	 eax, eax
  0007b	eb 08		 jmp	 SHORT $LN1@PMCCS_Excl
__tryend$PMCCS_ExclusiveOr_X_L$1:
  0007d	eb 06		 jmp	 SHORT $LN1@PMCCS_Excl
$LN8@PMCCS_Excl:

; 978  :         }
; 979  :         catch (const Palmtree::Math::Core::Internal::Exception& ex)
; 980  :         {
; 981  :             return (ex.GetStatusCode());

  0007f	8b 85 e4 00 00
	00		 mov	 eax, DWORD PTR $T5[rbp]
$LN1@PMCCS_Excl:

; 982  :         }
; 983  :     }

  00085	48 8b f8	 mov	 rdi, rax
  00088	48 8d 4d e0	 lea	 rcx, QWORD PTR [rbp-32]
  0008c	48 8d 15 00 00
	00 00		 lea	 rdx, OFFSET FLAT:PMCCS_ExclusiveOr_X_L$rtcFrameData
  00093	e8 00 00 00 00	 call	 _RTC_CheckStackVars
  00098	48 8b c7	 mov	 rax, rdi
  0009b	48 8d a5 28 01
	00 00		 lea	 rsp, QWORD PTR [rbp+296]
  000a2	5f		 pop	 rdi
  000a3	5d		 pop	 rbp
  000a4	c3		 ret	 0
  000a5	cc		 int	 3
PMCCS_ExclusiveOr_X_L ENDP
_TEXT	ENDS
;	COMDAT text$x
text$x	SEGMENT
ex$4 = 8
$T5 = 228
$T6 = 264
u$ = 320
v$ = 328
w$ = 336
PMCCS_ExclusiveOr_X_L$catch$0 PROC

; 978  :         }
; 979  :         catch (const Palmtree::Math::Core::Internal::Exception& ex)
; 980  :         {

  00000	48 89 4c 24 08	 mov	 QWORD PTR [rsp+8], rcx
  00005	48 89 54 24 10	 mov	 QWORD PTR [rsp+16], rdx
  0000a	55		 push	 rbp
  0000b	57		 push	 rdi
  0000c	48 83 ec 28	 sub	 rsp, 40			; 00000028H
  00010	48 8d 6a 20	 lea	 rbp, QWORD PTR [rdx+32]
__catch$PMCCS_ExclusiveOr_X_L$0:

; 978  :         }
; 979  :         catch (const Palmtree::Math::Core::Internal::Exception& ex)
; 980  :         {
; 981  :             return (ex.GetStatusCode());

  00014	48 8b 4d 08	 mov	 rcx, QWORD PTR ex$4[rbp]
  00018	e8 00 00 00 00	 call	 ?GetStatusCode@Exception@Internal@Core@Math@Palmtree@@QEBAHXZ ; Palmtree::Math::Core::Internal::Exception::GetStatusCode
  0001d	89 85 e4 00 00
	00		 mov	 DWORD PTR $T5[rbp], eax
  00023	48 8d 05 00 00
	00 00		 lea	 rax, $LN8@PMCCS_Excl
  0002a	eb 07		 jmp	 SHORT $LN9@PMCCS_Excl

; 982  :         }

  0002c	48 8d 05 00 00
	00 00		 lea	 rax, __tryend$PMCCS_ExclusiveOr_X_L$1
$LN9@PMCCS_Excl:
  00033	48 83 c4 28	 add	 rsp, 40			; 00000028H
  00037	5f		 pop	 rdi
  00038	5d		 pop	 rbp
  00039	c3		 ret	 0
  0003a	cc		 int	 3
PMCCS_ExclusiveOr_X_L$catch$0 ENDP
text$x	ENDS
; Function compile flags: /Odtp /RTCsu /ZI
;	COMDAT text$x
text$x	SEGMENT
ex$4 = 8
$T5 = 228
$T6 = 264
u$ = 320
v$ = 328
w$ = 336
PMCCS_ExclusiveOr_X_L$catch$0 PROC

; 980  :         {

  00000	48 89 4c 24 08	 mov	 QWORD PTR [rsp+8], rcx
  00005	48 89 54 24 10	 mov	 QWORD PTR [rsp+16], rdx
  0000a	55		 push	 rbp
  0000b	57		 push	 rdi
  0000c	48 83 ec 28	 sub	 rsp, 40			; 00000028H
  00010	48 8d 6a 20	 lea	 rbp, QWORD PTR [rdx+32]
__catch$PMCCS_ExclusiveOr_X_L$0:

; 981  :             return (ex.GetStatusCode());

  00014	48 8b 4d 08	 mov	 rcx, QWORD PTR ex$4[rbp]
  00018	e8 00 00 00 00	 call	 ?GetStatusCode@Exception@Internal@Core@Math@Palmtree@@QEBAHXZ ; Palmtree::Math::Core::Internal::Exception::GetStatusCode
  0001d	89 85 e4 00 00
	00		 mov	 DWORD PTR $T5[rbp], eax
  00023	48 8d 05 00 00
	00 00		 lea	 rax, $LN8@PMCCS_Excl
  0002a	eb 07		 jmp	 SHORT $LN9@PMCCS_Excl

; 982  :         }

  0002c	48 8d 05 00 00
	00 00		 lea	 rax, __tryend$PMCCS_ExclusiveOr_X_L$1
$LN9@PMCCS_Excl:
  00033	48 83 c4 28	 add	 rsp, 40			; 00000028H
  00037	5f		 pop	 rdi
  00038	5d		 pop	 rbp
  00039	c3		 ret	 0
  0003a	cc		 int	 3
PMCCS_ExclusiveOr_X_L$catch$0 ENDP
text$x	ENDS
; Function compile flags: /Odtp /RTCsu /ZI
; File z:\sources\lunor\repos\rougemeilland\palmtree.math.core.uint\palmtree.math.core.uint\pmc_interface_csharp.cpp
;	COMDAT PMCCS_ExclusiveOr_X_I
_TEXT	SEGMENT
ex$4 = 8
$T5 = 228
$T6 = 264
u$ = 320
v$ = 328
w$ = 336
PMCCS_ExclusiveOr_X_I PROC				; COMDAT

; 956  :     {

$LN10:
  00000	4c 89 44 24 18	 mov	 QWORD PTR [rsp+24], r8
  00005	89 54 24 10	 mov	 DWORD PTR [rsp+16], edx
  00009	48 89 4c 24 08	 mov	 QWORD PTR [rsp+8], rcx
  0000e	55		 push	 rbp
  0000f	57		 push	 rdi
  00010	48 81 ec 48 01
	00 00		 sub	 rsp, 328		; 00000148H
  00017	48 8d 6c 24 20	 lea	 rbp, QWORD PTR [rsp+32]
  0001c	48 8b fc	 mov	 rdi, rsp
  0001f	b9 52 00 00 00	 mov	 ecx, 82			; 00000052H
  00024	b8 cc cc cc cc	 mov	 eax, -858993460		; ccccccccH
  00029	f3 ab		 rep stosd
  0002b	48 8b 8c 24 68
	01 00 00	 mov	 rcx, QWORD PTR [rsp+360]
  00033	48 c7 85 08 01
	00 00 fe ff ff
	ff		 mov	 QWORD PTR $T6[rbp], -2
  0003e	48 8d 0d 00 00
	00 00		 lea	 rcx, OFFSET FLAT:__C21BA676_pmc_interface_csharp@cpp
  00045	e8 00 00 00 00	 call	 __CheckForDebuggerJustMyCode

; 957  :         if (w == nullptr)

  0004a	48 83 bd 50 01
	00 00 00	 cmp	 QWORD PTR w$[rbp], 0
  00052	75 07		 jne	 SHORT $LN2@PMCCS_Excl

; 958  :             return (PMC_STATUS_ARGUMENT_NULL_ERROR);

  00054	b8 fe ff ff ff	 mov	 eax, -2
  00059	eb 28		 jmp	 SHORT $LN1@PMCCS_Excl
$LN2@PMCCS_Excl:

; 959  :         try
; 960  :         {
; 961  :             *w = PMC_ExclusiveOr_X_I(u, v);

  0005b	8b 95 48 01 00
	00		 mov	 edx, DWORD PTR v$[rbp]
  00061	48 8b 8d 40 01
	00 00		 mov	 rcx, QWORD PTR u$[rbp]
  00068	e8 00 00 00 00	 call	 ?PMC_ExclusiveOr_X_I@Internal@Core@Math@Palmtree@@YAPEAU__tag_PMC_HANDLE_UINT@1234@PEAU51234@I@Z ; Palmtree::Math::Core::Internal::PMC_ExclusiveOr_X_I
  0006d	48 8b 8d 50 01
	00 00		 mov	 rcx, QWORD PTR w$[rbp]
  00074	48 89 01	 mov	 QWORD PTR [rcx], rax

; 962  :             return (PMC_STATUS_OK);

  00077	33 c0		 xor	 eax, eax
  00079	eb 08		 jmp	 SHORT $LN1@PMCCS_Excl
__tryend$PMCCS_ExclusiveOr_X_I$1:
  0007b	eb 06		 jmp	 SHORT $LN1@PMCCS_Excl
$LN8@PMCCS_Excl:

; 963  :         }
; 964  :         catch (const Palmtree::Math::Core::Internal::Exception& ex)
; 965  :         {
; 966  :             return (ex.GetStatusCode());

  0007d	8b 85 e4 00 00
	00		 mov	 eax, DWORD PTR $T5[rbp]
$LN1@PMCCS_Excl:

; 967  :         }
; 968  :     }

  00083	48 8b f8	 mov	 rdi, rax
  00086	48 8d 4d e0	 lea	 rcx, QWORD PTR [rbp-32]
  0008a	48 8d 15 00 00
	00 00		 lea	 rdx, OFFSET FLAT:PMCCS_ExclusiveOr_X_I$rtcFrameData
  00091	e8 00 00 00 00	 call	 _RTC_CheckStackVars
  00096	48 8b c7	 mov	 rax, rdi
  00099	48 8d a5 28 01
	00 00		 lea	 rsp, QWORD PTR [rbp+296]
  000a0	5f		 pop	 rdi
  000a1	5d		 pop	 rbp
  000a2	c3		 ret	 0
  000a3	cc		 int	 3
PMCCS_ExclusiveOr_X_I ENDP
_TEXT	ENDS
;	COMDAT text$x
text$x	SEGMENT
ex$4 = 8
$T5 = 228
$T6 = 264
u$ = 320
v$ = 328
w$ = 336
PMCCS_ExclusiveOr_X_I$catch$0 PROC

; 963  :         }
; 964  :         catch (const Palmtree::Math::Core::Internal::Exception& ex)
; 965  :         {

  00000	48 89 4c 24 08	 mov	 QWORD PTR [rsp+8], rcx
  00005	48 89 54 24 10	 mov	 QWORD PTR [rsp+16], rdx
  0000a	55		 push	 rbp
  0000b	57		 push	 rdi
  0000c	48 83 ec 28	 sub	 rsp, 40			; 00000028H
  00010	48 8d 6a 20	 lea	 rbp, QWORD PTR [rdx+32]
__catch$PMCCS_ExclusiveOr_X_I$0:

; 963  :         }
; 964  :         catch (const Palmtree::Math::Core::Internal::Exception& ex)
; 965  :         {
; 966  :             return (ex.GetStatusCode());

  00014	48 8b 4d 08	 mov	 rcx, QWORD PTR ex$4[rbp]
  00018	e8 00 00 00 00	 call	 ?GetStatusCode@Exception@Internal@Core@Math@Palmtree@@QEBAHXZ ; Palmtree::Math::Core::Internal::Exception::GetStatusCode
  0001d	89 85 e4 00 00
	00		 mov	 DWORD PTR $T5[rbp], eax
  00023	48 8d 05 00 00
	00 00		 lea	 rax, $LN8@PMCCS_Excl
  0002a	eb 07		 jmp	 SHORT $LN9@PMCCS_Excl

; 967  :         }

  0002c	48 8d 05 00 00
	00 00		 lea	 rax, __tryend$PMCCS_ExclusiveOr_X_I$1
$LN9@PMCCS_Excl:
  00033	48 83 c4 28	 add	 rsp, 40			; 00000028H
  00037	5f		 pop	 rdi
  00038	5d		 pop	 rbp
  00039	c3		 ret	 0
  0003a	cc		 int	 3
PMCCS_ExclusiveOr_X_I$catch$0 ENDP
text$x	ENDS
; Function compile flags: /Odtp /RTCsu /ZI
;	COMDAT text$x
text$x	SEGMENT
ex$4 = 8
$T5 = 228
$T6 = 264
u$ = 320
v$ = 328
w$ = 336
PMCCS_ExclusiveOr_X_I$catch$0 PROC

; 965  :         {

  00000	48 89 4c 24 08	 mov	 QWORD PTR [rsp+8], rcx
  00005	48 89 54 24 10	 mov	 QWORD PTR [rsp+16], rdx
  0000a	55		 push	 rbp
  0000b	57		 push	 rdi
  0000c	48 83 ec 28	 sub	 rsp, 40			; 00000028H
  00010	48 8d 6a 20	 lea	 rbp, QWORD PTR [rdx+32]
__catch$PMCCS_ExclusiveOr_X_I$0:

; 966  :             return (ex.GetStatusCode());

  00014	48 8b 4d 08	 mov	 rcx, QWORD PTR ex$4[rbp]
  00018	e8 00 00 00 00	 call	 ?GetStatusCode@Exception@Internal@Core@Math@Palmtree@@QEBAHXZ ; Palmtree::Math::Core::Internal::Exception::GetStatusCode
  0001d	89 85 e4 00 00
	00		 mov	 DWORD PTR $T5[rbp], eax
  00023	48 8d 05 00 00
	00 00		 lea	 rax, $LN8@PMCCS_Excl
  0002a	eb 07		 jmp	 SHORT $LN9@PMCCS_Excl

; 967  :         }

  0002c	48 8d 05 00 00
	00 00		 lea	 rax, __tryend$PMCCS_ExclusiveOr_X_I$1
$LN9@PMCCS_Excl:
  00033	48 83 c4 28	 add	 rsp, 40			; 00000028H
  00037	5f		 pop	 rdi
  00038	5d		 pop	 rbp
  00039	c3		 ret	 0
  0003a	cc		 int	 3
PMCCS_ExclusiveOr_X_I$catch$0 ENDP
text$x	ENDS
; Function compile flags: /Odtp /RTCsu /ZI
; File z:\sources\lunor\repos\rougemeilland\palmtree.math.core.uint\palmtree.math.core.uint\pmc_interface_csharp.cpp
;	COMDAT PMCCS_ExclusiveOr_L_X
_TEXT	SEGMENT
ex$4 = 8
$T5 = 228
$T6 = 264
u$ = 320
v$ = 328
w$ = 336
PMCCS_ExclusiveOr_L_X PROC				; COMDAT

; 941  :     {

$LN10:
  00000	4c 89 44 24 18	 mov	 QWORD PTR [rsp+24], r8
  00005	48 89 54 24 10	 mov	 QWORD PTR [rsp+16], rdx
  0000a	48 89 4c 24 08	 mov	 QWORD PTR [rsp+8], rcx
  0000f	55		 push	 rbp
  00010	57		 push	 rdi
  00011	48 81 ec 48 01
	00 00		 sub	 rsp, 328		; 00000148H
  00018	48 8d 6c 24 20	 lea	 rbp, QWORD PTR [rsp+32]
  0001d	48 8b fc	 mov	 rdi, rsp
  00020	b9 52 00 00 00	 mov	 ecx, 82			; 00000052H
  00025	b8 cc cc cc cc	 mov	 eax, -858993460		; ccccccccH
  0002a	f3 ab		 rep stosd
  0002c	48 8b 8c 24 68
	01 00 00	 mov	 rcx, QWORD PTR [rsp+360]
  00034	48 c7 85 08 01
	00 00 fe ff ff
	ff		 mov	 QWORD PTR $T6[rbp], -2
  0003f	48 8d 0d 00 00
	00 00		 lea	 rcx, OFFSET FLAT:__C21BA676_pmc_interface_csharp@cpp
  00046	e8 00 00 00 00	 call	 __CheckForDebuggerJustMyCode

; 942  :         if (w == nullptr)

  0004b	48 83 bd 50 01
	00 00 00	 cmp	 QWORD PTR w$[rbp], 0
  00053	75 07		 jne	 SHORT $LN2@PMCCS_Excl

; 943  :             return (PMC_STATUS_ARGUMENT_NULL_ERROR);

  00055	b8 fe ff ff ff	 mov	 eax, -2
  0005a	eb 29		 jmp	 SHORT $LN1@PMCCS_Excl
$LN2@PMCCS_Excl:

; 944  :         try
; 945  :         {
; 946  :             *w = PMC_ExclusiveOr_L_X(u, v);

  0005c	48 8b 95 48 01
	00 00		 mov	 rdx, QWORD PTR v$[rbp]
  00063	48 8b 8d 40 01
	00 00		 mov	 rcx, QWORD PTR u$[rbp]
  0006a	e8 00 00 00 00	 call	 ?PMC_ExclusiveOr_L_X@Internal@Core@Math@Palmtree@@YAPEAU__tag_PMC_HANDLE_UINT@1234@_KPEAU51234@@Z ; Palmtree::Math::Core::Internal::PMC_ExclusiveOr_L_X
  0006f	48 8b 8d 50 01
	00 00		 mov	 rcx, QWORD PTR w$[rbp]
  00076	48 89 01	 mov	 QWORD PTR [rcx], rax

; 947  :             return (PMC_STATUS_OK);

  00079	33 c0		 xor	 eax, eax
  0007b	eb 08		 jmp	 SHORT $LN1@PMCCS_Excl
__tryend$PMCCS_ExclusiveOr_L_X$1:
  0007d	eb 06		 jmp	 SHORT $LN1@PMCCS_Excl
$LN8@PMCCS_Excl:

; 948  :         }
; 949  :         catch (const Palmtree::Math::Core::Internal::Exception& ex)
; 950  :         {
; 951  :             return (ex.GetStatusCode());

  0007f	8b 85 e4 00 00
	00		 mov	 eax, DWORD PTR $T5[rbp]
$LN1@PMCCS_Excl:

; 952  :         }
; 953  :     }

  00085	48 8b f8	 mov	 rdi, rax
  00088	48 8d 4d e0	 lea	 rcx, QWORD PTR [rbp-32]
  0008c	48 8d 15 00 00
	00 00		 lea	 rdx, OFFSET FLAT:PMCCS_ExclusiveOr_L_X$rtcFrameData
  00093	e8 00 00 00 00	 call	 _RTC_CheckStackVars
  00098	48 8b c7	 mov	 rax, rdi
  0009b	48 8d a5 28 01
	00 00		 lea	 rsp, QWORD PTR [rbp+296]
  000a2	5f		 pop	 rdi
  000a3	5d		 pop	 rbp
  000a4	c3		 ret	 0
  000a5	cc		 int	 3
PMCCS_ExclusiveOr_L_X ENDP
_TEXT	ENDS
;	COMDAT text$x
text$x	SEGMENT
ex$4 = 8
$T5 = 228
$T6 = 264
u$ = 320
v$ = 328
w$ = 336
PMCCS_ExclusiveOr_L_X$catch$0 PROC

; 948  :         }
; 949  :         catch (const Palmtree::Math::Core::Internal::Exception& ex)
; 950  :         {

  00000	48 89 4c 24 08	 mov	 QWORD PTR [rsp+8], rcx
  00005	48 89 54 24 10	 mov	 QWORD PTR [rsp+16], rdx
  0000a	55		 push	 rbp
  0000b	57		 push	 rdi
  0000c	48 83 ec 28	 sub	 rsp, 40			; 00000028H
  00010	48 8d 6a 20	 lea	 rbp, QWORD PTR [rdx+32]
__catch$PMCCS_ExclusiveOr_L_X$0:

; 948  :         }
; 949  :         catch (const Palmtree::Math::Core::Internal::Exception& ex)
; 950  :         {
; 951  :             return (ex.GetStatusCode());

  00014	48 8b 4d 08	 mov	 rcx, QWORD PTR ex$4[rbp]
  00018	e8 00 00 00 00	 call	 ?GetStatusCode@Exception@Internal@Core@Math@Palmtree@@QEBAHXZ ; Palmtree::Math::Core::Internal::Exception::GetStatusCode
  0001d	89 85 e4 00 00
	00		 mov	 DWORD PTR $T5[rbp], eax
  00023	48 8d 05 00 00
	00 00		 lea	 rax, $LN8@PMCCS_Excl
  0002a	eb 07		 jmp	 SHORT $LN9@PMCCS_Excl

; 952  :         }

  0002c	48 8d 05 00 00
	00 00		 lea	 rax, __tryend$PMCCS_ExclusiveOr_L_X$1
$LN9@PMCCS_Excl:
  00033	48 83 c4 28	 add	 rsp, 40			; 00000028H
  00037	5f		 pop	 rdi
  00038	5d		 pop	 rbp
  00039	c3		 ret	 0
  0003a	cc		 int	 3
PMCCS_ExclusiveOr_L_X$catch$0 ENDP
text$x	ENDS
; Function compile flags: /Odtp /RTCsu /ZI
;	COMDAT text$x
text$x	SEGMENT
ex$4 = 8
$T5 = 228
$T6 = 264
u$ = 320
v$ = 328
w$ = 336
PMCCS_ExclusiveOr_L_X$catch$0 PROC

; 950  :         {

  00000	48 89 4c 24 08	 mov	 QWORD PTR [rsp+8], rcx
  00005	48 89 54 24 10	 mov	 QWORD PTR [rsp+16], rdx
  0000a	55		 push	 rbp
  0000b	57		 push	 rdi
  0000c	48 83 ec 28	 sub	 rsp, 40			; 00000028H
  00010	48 8d 6a 20	 lea	 rbp, QWORD PTR [rdx+32]
__catch$PMCCS_ExclusiveOr_L_X$0:

; 951  :             return (ex.GetStatusCode());

  00014	48 8b 4d 08	 mov	 rcx, QWORD PTR ex$4[rbp]
  00018	e8 00 00 00 00	 call	 ?GetStatusCode@Exception@Internal@Core@Math@Palmtree@@QEBAHXZ ; Palmtree::Math::Core::Internal::Exception::GetStatusCode
  0001d	89 85 e4 00 00
	00		 mov	 DWORD PTR $T5[rbp], eax
  00023	48 8d 05 00 00
	00 00		 lea	 rax, $LN8@PMCCS_Excl
  0002a	eb 07		 jmp	 SHORT $LN9@PMCCS_Excl

; 952  :         }

  0002c	48 8d 05 00 00
	00 00		 lea	 rax, __tryend$PMCCS_ExclusiveOr_L_X$1
$LN9@PMCCS_Excl:
  00033	48 83 c4 28	 add	 rsp, 40			; 00000028H
  00037	5f		 pop	 rdi
  00038	5d		 pop	 rbp
  00039	c3		 ret	 0
  0003a	cc		 int	 3
PMCCS_ExclusiveOr_L_X$catch$0 ENDP
text$x	ENDS
; Function compile flags: /Odtp /RTCsu /ZI
; File z:\sources\lunor\repos\rougemeilland\palmtree.math.core.uint\palmtree.math.core.uint\pmc_interface_csharp.cpp
;	COMDAT PMCCS_ExclusiveOr_I_X
_TEXT	SEGMENT
ex$4 = 8
$T5 = 228
$T6 = 264
u$ = 320
v$ = 328
w$ = 336
PMCCS_ExclusiveOr_I_X PROC				; COMDAT

; 926  :     {

$LN10:
  00000	4c 89 44 24 18	 mov	 QWORD PTR [rsp+24], r8
  00005	48 89 54 24 10	 mov	 QWORD PTR [rsp+16], rdx
  0000a	89 4c 24 08	 mov	 DWORD PTR [rsp+8], ecx
  0000e	55		 push	 rbp
  0000f	57		 push	 rdi
  00010	48 81 ec 48 01
	00 00		 sub	 rsp, 328		; 00000148H
  00017	48 8d 6c 24 20	 lea	 rbp, QWORD PTR [rsp+32]
  0001c	48 8b fc	 mov	 rdi, rsp
  0001f	b9 52 00 00 00	 mov	 ecx, 82			; 00000052H
  00024	b8 cc cc cc cc	 mov	 eax, -858993460		; ccccccccH
  00029	f3 ab		 rep stosd
  0002b	8b 8c 24 68 01
	00 00		 mov	 ecx, DWORD PTR [rsp+360]
  00032	48 c7 85 08 01
	00 00 fe ff ff
	ff		 mov	 QWORD PTR $T6[rbp], -2
  0003d	48 8d 0d 00 00
	00 00		 lea	 rcx, OFFSET FLAT:__C21BA676_pmc_interface_csharp@cpp
  00044	e8 00 00 00 00	 call	 __CheckForDebuggerJustMyCode

; 927  :         if (w == nullptr)

  00049	48 83 bd 50 01
	00 00 00	 cmp	 QWORD PTR w$[rbp], 0
  00051	75 07		 jne	 SHORT $LN2@PMCCS_Excl

; 928  :             return (PMC_STATUS_ARGUMENT_NULL_ERROR);

  00053	b8 fe ff ff ff	 mov	 eax, -2
  00058	eb 28		 jmp	 SHORT $LN1@PMCCS_Excl
$LN2@PMCCS_Excl:

; 929  :         try
; 930  :         {
; 931  :             *w = PMC_ExclusiveOr_I_X(u, v);

  0005a	48 8b 95 48 01
	00 00		 mov	 rdx, QWORD PTR v$[rbp]
  00061	8b 8d 40 01 00
	00		 mov	 ecx, DWORD PTR u$[rbp]
  00067	e8 00 00 00 00	 call	 ?PMC_ExclusiveOr_I_X@Internal@Core@Math@Palmtree@@YAPEAU__tag_PMC_HANDLE_UINT@1234@IPEAU51234@@Z ; Palmtree::Math::Core::Internal::PMC_ExclusiveOr_I_X
  0006c	48 8b 8d 50 01
	00 00		 mov	 rcx, QWORD PTR w$[rbp]
  00073	48 89 01	 mov	 QWORD PTR [rcx], rax

; 932  :             return (PMC_STATUS_OK);

  00076	33 c0		 xor	 eax, eax
  00078	eb 08		 jmp	 SHORT $LN1@PMCCS_Excl
__tryend$PMCCS_ExclusiveOr_I_X$1:
  0007a	eb 06		 jmp	 SHORT $LN1@PMCCS_Excl
$LN8@PMCCS_Excl:

; 933  :         }
; 934  :         catch (const Palmtree::Math::Core::Internal::Exception& ex)
; 935  :         {
; 936  :             return (ex.GetStatusCode());

  0007c	8b 85 e4 00 00
	00		 mov	 eax, DWORD PTR $T5[rbp]
$LN1@PMCCS_Excl:

; 937  :         }
; 938  :     }

  00082	48 8b f8	 mov	 rdi, rax
  00085	48 8d 4d e0	 lea	 rcx, QWORD PTR [rbp-32]
  00089	48 8d 15 00 00
	00 00		 lea	 rdx, OFFSET FLAT:PMCCS_ExclusiveOr_I_X$rtcFrameData
  00090	e8 00 00 00 00	 call	 _RTC_CheckStackVars
  00095	48 8b c7	 mov	 rax, rdi
  00098	48 8d a5 28 01
	00 00		 lea	 rsp, QWORD PTR [rbp+296]
  0009f	5f		 pop	 rdi
  000a0	5d		 pop	 rbp
  000a1	c3		 ret	 0
  000a2	cc		 int	 3
PMCCS_ExclusiveOr_I_X ENDP
_TEXT	ENDS
;	COMDAT text$x
text$x	SEGMENT
ex$4 = 8
$T5 = 228
$T6 = 264
u$ = 320
v$ = 328
w$ = 336
PMCCS_ExclusiveOr_I_X$catch$0 PROC

; 933  :         }
; 934  :         catch (const Palmtree::Math::Core::Internal::Exception& ex)
; 935  :         {

  00000	48 89 4c 24 08	 mov	 QWORD PTR [rsp+8], rcx
  00005	48 89 54 24 10	 mov	 QWORD PTR [rsp+16], rdx
  0000a	55		 push	 rbp
  0000b	57		 push	 rdi
  0000c	48 83 ec 28	 sub	 rsp, 40			; 00000028H
  00010	48 8d 6a 20	 lea	 rbp, QWORD PTR [rdx+32]
__catch$PMCCS_ExclusiveOr_I_X$0:

; 933  :         }
; 934  :         catch (const Palmtree::Math::Core::Internal::Exception& ex)
; 935  :         {
; 936  :             return (ex.GetStatusCode());

  00014	48 8b 4d 08	 mov	 rcx, QWORD PTR ex$4[rbp]
  00018	e8 00 00 00 00	 call	 ?GetStatusCode@Exception@Internal@Core@Math@Palmtree@@QEBAHXZ ; Palmtree::Math::Core::Internal::Exception::GetStatusCode
  0001d	89 85 e4 00 00
	00		 mov	 DWORD PTR $T5[rbp], eax
  00023	48 8d 05 00 00
	00 00		 lea	 rax, $LN8@PMCCS_Excl
  0002a	eb 07		 jmp	 SHORT $LN9@PMCCS_Excl

; 937  :         }

  0002c	48 8d 05 00 00
	00 00		 lea	 rax, __tryend$PMCCS_ExclusiveOr_I_X$1
$LN9@PMCCS_Excl:
  00033	48 83 c4 28	 add	 rsp, 40			; 00000028H
  00037	5f		 pop	 rdi
  00038	5d		 pop	 rbp
  00039	c3		 ret	 0
  0003a	cc		 int	 3
PMCCS_ExclusiveOr_I_X$catch$0 ENDP
text$x	ENDS
; Function compile flags: /Odtp /RTCsu /ZI
;	COMDAT text$x
text$x	SEGMENT
ex$4 = 8
$T5 = 228
$T6 = 264
u$ = 320
v$ = 328
w$ = 336
PMCCS_ExclusiveOr_I_X$catch$0 PROC

; 935  :         {

  00000	48 89 4c 24 08	 mov	 QWORD PTR [rsp+8], rcx
  00005	48 89 54 24 10	 mov	 QWORD PTR [rsp+16], rdx
  0000a	55		 push	 rbp
  0000b	57		 push	 rdi
  0000c	48 83 ec 28	 sub	 rsp, 40			; 00000028H
  00010	48 8d 6a 20	 lea	 rbp, QWORD PTR [rdx+32]
__catch$PMCCS_ExclusiveOr_I_X$0:

; 936  :             return (ex.GetStatusCode());

  00014	48 8b 4d 08	 mov	 rcx, QWORD PTR ex$4[rbp]
  00018	e8 00 00 00 00	 call	 ?GetStatusCode@Exception@Internal@Core@Math@Palmtree@@QEBAHXZ ; Palmtree::Math::Core::Internal::Exception::GetStatusCode
  0001d	89 85 e4 00 00
	00		 mov	 DWORD PTR $T5[rbp], eax
  00023	48 8d 05 00 00
	00 00		 lea	 rax, $LN8@PMCCS_Excl
  0002a	eb 07		 jmp	 SHORT $LN9@PMCCS_Excl

; 937  :         }

  0002c	48 8d 05 00 00
	00 00		 lea	 rax, __tryend$PMCCS_ExclusiveOr_I_X$1
$LN9@PMCCS_Excl:
  00033	48 83 c4 28	 add	 rsp, 40			; 00000028H
  00037	5f		 pop	 rdi
  00038	5d		 pop	 rbp
  00039	c3		 ret	 0
  0003a	cc		 int	 3
PMCCS_ExclusiveOr_I_X$catch$0 ENDP
text$x	ENDS
; Function compile flags: /Odtp /RTCsu /ZI
; File z:\sources\lunor\repos\rougemeilland\palmtree.math.core.uint\palmtree.math.core.uint\pmc_interface_csharp.cpp
;	COMDAT PMCCS_BitwiseOr_X_X
_TEXT	SEGMENT
ex$4 = 8
$T5 = 228
$T6 = 264
u$ = 320
v$ = 328
w$ = 336
PMCCS_BitwiseOr_X_X PROC				; COMDAT

; 911  :     {

$LN10:
  00000	4c 89 44 24 18	 mov	 QWORD PTR [rsp+24], r8
  00005	48 89 54 24 10	 mov	 QWORD PTR [rsp+16], rdx
  0000a	48 89 4c 24 08	 mov	 QWORD PTR [rsp+8], rcx
  0000f	55		 push	 rbp
  00010	57		 push	 rdi
  00011	48 81 ec 48 01
	00 00		 sub	 rsp, 328		; 00000148H
  00018	48 8d 6c 24 20	 lea	 rbp, QWORD PTR [rsp+32]
  0001d	48 8b fc	 mov	 rdi, rsp
  00020	b9 52 00 00 00	 mov	 ecx, 82			; 00000052H
  00025	b8 cc cc cc cc	 mov	 eax, -858993460		; ccccccccH
  0002a	f3 ab		 rep stosd
  0002c	48 8b 8c 24 68
	01 00 00	 mov	 rcx, QWORD PTR [rsp+360]
  00034	48 c7 85 08 01
	00 00 fe ff ff
	ff		 mov	 QWORD PTR $T6[rbp], -2
  0003f	48 8d 0d 00 00
	00 00		 lea	 rcx, OFFSET FLAT:__C21BA676_pmc_interface_csharp@cpp
  00046	e8 00 00 00 00	 call	 __CheckForDebuggerJustMyCode

; 912  :         if (w == nullptr)

  0004b	48 83 bd 50 01
	00 00 00	 cmp	 QWORD PTR w$[rbp], 0
  00053	75 07		 jne	 SHORT $LN2@PMCCS_Bitw

; 913  :             return (PMC_STATUS_ARGUMENT_NULL_ERROR);

  00055	b8 fe ff ff ff	 mov	 eax, -2
  0005a	eb 29		 jmp	 SHORT $LN1@PMCCS_Bitw
$LN2@PMCCS_Bitw:

; 914  :         try
; 915  :         {
; 916  :             *w = PMC_BitwiseOr_X_X(u, v);

  0005c	48 8b 95 48 01
	00 00		 mov	 rdx, QWORD PTR v$[rbp]
  00063	48 8b 8d 40 01
	00 00		 mov	 rcx, QWORD PTR u$[rbp]
  0006a	e8 00 00 00 00	 call	 ?PMC_BitwiseOr_X_X@Internal@Core@Math@Palmtree@@YAPEAU__tag_PMC_HANDLE_UINT@1234@PEAU51234@0@Z ; Palmtree::Math::Core::Internal::PMC_BitwiseOr_X_X
  0006f	48 8b 8d 50 01
	00 00		 mov	 rcx, QWORD PTR w$[rbp]
  00076	48 89 01	 mov	 QWORD PTR [rcx], rax

; 917  :             return (PMC_STATUS_OK);

  00079	33 c0		 xor	 eax, eax
  0007b	eb 08		 jmp	 SHORT $LN1@PMCCS_Bitw
__tryend$PMCCS_BitwiseOr_X_X$1:
  0007d	eb 06		 jmp	 SHORT $LN1@PMCCS_Bitw
$LN8@PMCCS_Bitw:

; 918  :         }
; 919  :         catch (const Palmtree::Math::Core::Internal::Exception& ex)
; 920  :         {
; 921  :             return (ex.GetStatusCode());

  0007f	8b 85 e4 00 00
	00		 mov	 eax, DWORD PTR $T5[rbp]
$LN1@PMCCS_Bitw:

; 922  :         }
; 923  :     }

  00085	48 8b f8	 mov	 rdi, rax
  00088	48 8d 4d e0	 lea	 rcx, QWORD PTR [rbp-32]
  0008c	48 8d 15 00 00
	00 00		 lea	 rdx, OFFSET FLAT:PMCCS_BitwiseOr_X_X$rtcFrameData
  00093	e8 00 00 00 00	 call	 _RTC_CheckStackVars
  00098	48 8b c7	 mov	 rax, rdi
  0009b	48 8d a5 28 01
	00 00		 lea	 rsp, QWORD PTR [rbp+296]
  000a2	5f		 pop	 rdi
  000a3	5d		 pop	 rbp
  000a4	c3		 ret	 0
  000a5	cc		 int	 3
PMCCS_BitwiseOr_X_X ENDP
_TEXT	ENDS
;	COMDAT text$x
text$x	SEGMENT
ex$4 = 8
$T5 = 228
$T6 = 264
u$ = 320
v$ = 328
w$ = 336
PMCCS_BitwiseOr_X_X$catch$0 PROC

; 918  :         }
; 919  :         catch (const Palmtree::Math::Core::Internal::Exception& ex)
; 920  :         {

  00000	48 89 4c 24 08	 mov	 QWORD PTR [rsp+8], rcx
  00005	48 89 54 24 10	 mov	 QWORD PTR [rsp+16], rdx
  0000a	55		 push	 rbp
  0000b	57		 push	 rdi
  0000c	48 83 ec 28	 sub	 rsp, 40			; 00000028H
  00010	48 8d 6a 20	 lea	 rbp, QWORD PTR [rdx+32]
__catch$PMCCS_BitwiseOr_X_X$0:

; 918  :         }
; 919  :         catch (const Palmtree::Math::Core::Internal::Exception& ex)
; 920  :         {
; 921  :             return (ex.GetStatusCode());

  00014	48 8b 4d 08	 mov	 rcx, QWORD PTR ex$4[rbp]
  00018	e8 00 00 00 00	 call	 ?GetStatusCode@Exception@Internal@Core@Math@Palmtree@@QEBAHXZ ; Palmtree::Math::Core::Internal::Exception::GetStatusCode
  0001d	89 85 e4 00 00
	00		 mov	 DWORD PTR $T5[rbp], eax
  00023	48 8d 05 00 00
	00 00		 lea	 rax, $LN8@PMCCS_Bitw
  0002a	eb 07		 jmp	 SHORT $LN9@PMCCS_Bitw

; 922  :         }

  0002c	48 8d 05 00 00
	00 00		 lea	 rax, __tryend$PMCCS_BitwiseOr_X_X$1
$LN9@PMCCS_Bitw:
  00033	48 83 c4 28	 add	 rsp, 40			; 00000028H
  00037	5f		 pop	 rdi
  00038	5d		 pop	 rbp
  00039	c3		 ret	 0
  0003a	cc		 int	 3
PMCCS_BitwiseOr_X_X$catch$0 ENDP
text$x	ENDS
; Function compile flags: /Odtp /RTCsu /ZI
;	COMDAT text$x
text$x	SEGMENT
ex$4 = 8
$T5 = 228
$T6 = 264
u$ = 320
v$ = 328
w$ = 336
PMCCS_BitwiseOr_X_X$catch$0 PROC

; 920  :         {

  00000	48 89 4c 24 08	 mov	 QWORD PTR [rsp+8], rcx
  00005	48 89 54 24 10	 mov	 QWORD PTR [rsp+16], rdx
  0000a	55		 push	 rbp
  0000b	57		 push	 rdi
  0000c	48 83 ec 28	 sub	 rsp, 40			; 00000028H
  00010	48 8d 6a 20	 lea	 rbp, QWORD PTR [rdx+32]
__catch$PMCCS_BitwiseOr_X_X$0:

; 921  :             return (ex.GetStatusCode());

  00014	48 8b 4d 08	 mov	 rcx, QWORD PTR ex$4[rbp]
  00018	e8 00 00 00 00	 call	 ?GetStatusCode@Exception@Internal@Core@Math@Palmtree@@QEBAHXZ ; Palmtree::Math::Core::Internal::Exception::GetStatusCode
  0001d	89 85 e4 00 00
	00		 mov	 DWORD PTR $T5[rbp], eax
  00023	48 8d 05 00 00
	00 00		 lea	 rax, $LN8@PMCCS_Bitw
  0002a	eb 07		 jmp	 SHORT $LN9@PMCCS_Bitw

; 922  :         }

  0002c	48 8d 05 00 00
	00 00		 lea	 rax, __tryend$PMCCS_BitwiseOr_X_X$1
$LN9@PMCCS_Bitw:
  00033	48 83 c4 28	 add	 rsp, 40			; 00000028H
  00037	5f		 pop	 rdi
  00038	5d		 pop	 rbp
  00039	c3		 ret	 0
  0003a	cc		 int	 3
PMCCS_BitwiseOr_X_X$catch$0 ENDP
text$x	ENDS
; Function compile flags: /Odtp /RTCsu /ZI
; File z:\sources\lunor\repos\rougemeilland\palmtree.math.core.uint\palmtree.math.core.uint\pmc_interface_csharp.cpp
;	COMDAT PMCCS_BitwiseOr_X_L
_TEXT	SEGMENT
ex$4 = 8
$T5 = 228
$T6 = 264
u$ = 320
v$ = 328
w$ = 336
PMCCS_BitwiseOr_X_L PROC				; COMDAT

; 896  :     {

$LN10:
  00000	4c 89 44 24 18	 mov	 QWORD PTR [rsp+24], r8
  00005	48 89 54 24 10	 mov	 QWORD PTR [rsp+16], rdx
  0000a	48 89 4c 24 08	 mov	 QWORD PTR [rsp+8], rcx
  0000f	55		 push	 rbp
  00010	57		 push	 rdi
  00011	48 81 ec 48 01
	00 00		 sub	 rsp, 328		; 00000148H
  00018	48 8d 6c 24 20	 lea	 rbp, QWORD PTR [rsp+32]
  0001d	48 8b fc	 mov	 rdi, rsp
  00020	b9 52 00 00 00	 mov	 ecx, 82			; 00000052H
  00025	b8 cc cc cc cc	 mov	 eax, -858993460		; ccccccccH
  0002a	f3 ab		 rep stosd
  0002c	48 8b 8c 24 68
	01 00 00	 mov	 rcx, QWORD PTR [rsp+360]
  00034	48 c7 85 08 01
	00 00 fe ff ff
	ff		 mov	 QWORD PTR $T6[rbp], -2
  0003f	48 8d 0d 00 00
	00 00		 lea	 rcx, OFFSET FLAT:__C21BA676_pmc_interface_csharp@cpp
  00046	e8 00 00 00 00	 call	 __CheckForDebuggerJustMyCode

; 897  :         if (w == nullptr)

  0004b	48 83 bd 50 01
	00 00 00	 cmp	 QWORD PTR w$[rbp], 0
  00053	75 07		 jne	 SHORT $LN2@PMCCS_Bitw

; 898  :             return (PMC_STATUS_ARGUMENT_NULL_ERROR);

  00055	b8 fe ff ff ff	 mov	 eax, -2
  0005a	eb 29		 jmp	 SHORT $LN1@PMCCS_Bitw
$LN2@PMCCS_Bitw:

; 899  :         try
; 900  :         {
; 901  :             *w = PMC_BitwiseOr_X_L(u, v);

  0005c	48 8b 95 48 01
	00 00		 mov	 rdx, QWORD PTR v$[rbp]
  00063	48 8b 8d 40 01
	00 00		 mov	 rcx, QWORD PTR u$[rbp]
  0006a	e8 00 00 00 00	 call	 ?PMC_BitwiseOr_X_L@Internal@Core@Math@Palmtree@@YAPEAU__tag_PMC_HANDLE_UINT@1234@PEAU51234@_K@Z ; Palmtree::Math::Core::Internal::PMC_BitwiseOr_X_L
  0006f	48 8b 8d 50 01
	00 00		 mov	 rcx, QWORD PTR w$[rbp]
  00076	48 89 01	 mov	 QWORD PTR [rcx], rax

; 902  :             return (PMC_STATUS_OK);

  00079	33 c0		 xor	 eax, eax
  0007b	eb 08		 jmp	 SHORT $LN1@PMCCS_Bitw
__tryend$PMCCS_BitwiseOr_X_L$1:
  0007d	eb 06		 jmp	 SHORT $LN1@PMCCS_Bitw
$LN8@PMCCS_Bitw:

; 903  :         }
; 904  :         catch (const Palmtree::Math::Core::Internal::Exception& ex)
; 905  :         {
; 906  :             return (ex.GetStatusCode());

  0007f	8b 85 e4 00 00
	00		 mov	 eax, DWORD PTR $T5[rbp]
$LN1@PMCCS_Bitw:

; 907  :         }
; 908  :     }

  00085	48 8b f8	 mov	 rdi, rax
  00088	48 8d 4d e0	 lea	 rcx, QWORD PTR [rbp-32]
  0008c	48 8d 15 00 00
	00 00		 lea	 rdx, OFFSET FLAT:PMCCS_BitwiseOr_X_L$rtcFrameData
  00093	e8 00 00 00 00	 call	 _RTC_CheckStackVars
  00098	48 8b c7	 mov	 rax, rdi
  0009b	48 8d a5 28 01
	00 00		 lea	 rsp, QWORD PTR [rbp+296]
  000a2	5f		 pop	 rdi
  000a3	5d		 pop	 rbp
  000a4	c3		 ret	 0
  000a5	cc		 int	 3
PMCCS_BitwiseOr_X_L ENDP
_TEXT	ENDS
;	COMDAT text$x
text$x	SEGMENT
ex$4 = 8
$T5 = 228
$T6 = 264
u$ = 320
v$ = 328
w$ = 336
PMCCS_BitwiseOr_X_L$catch$0 PROC

; 903  :         }
; 904  :         catch (const Palmtree::Math::Core::Internal::Exception& ex)
; 905  :         {

  00000	48 89 4c 24 08	 mov	 QWORD PTR [rsp+8], rcx
  00005	48 89 54 24 10	 mov	 QWORD PTR [rsp+16], rdx
  0000a	55		 push	 rbp
  0000b	57		 push	 rdi
  0000c	48 83 ec 28	 sub	 rsp, 40			; 00000028H
  00010	48 8d 6a 20	 lea	 rbp, QWORD PTR [rdx+32]
__catch$PMCCS_BitwiseOr_X_L$0:

; 903  :         }
; 904  :         catch (const Palmtree::Math::Core::Internal::Exception& ex)
; 905  :         {
; 906  :             return (ex.GetStatusCode());

  00014	48 8b 4d 08	 mov	 rcx, QWORD PTR ex$4[rbp]
  00018	e8 00 00 00 00	 call	 ?GetStatusCode@Exception@Internal@Core@Math@Palmtree@@QEBAHXZ ; Palmtree::Math::Core::Internal::Exception::GetStatusCode
  0001d	89 85 e4 00 00
	00		 mov	 DWORD PTR $T5[rbp], eax
  00023	48 8d 05 00 00
	00 00		 lea	 rax, $LN8@PMCCS_Bitw
  0002a	eb 07		 jmp	 SHORT $LN9@PMCCS_Bitw

; 907  :         }

  0002c	48 8d 05 00 00
	00 00		 lea	 rax, __tryend$PMCCS_BitwiseOr_X_L$1
$LN9@PMCCS_Bitw:
  00033	48 83 c4 28	 add	 rsp, 40			; 00000028H
  00037	5f		 pop	 rdi
  00038	5d		 pop	 rbp
  00039	c3		 ret	 0
  0003a	cc		 int	 3
PMCCS_BitwiseOr_X_L$catch$0 ENDP
text$x	ENDS
; Function compile flags: /Odtp /RTCsu /ZI
;	COMDAT text$x
text$x	SEGMENT
ex$4 = 8
$T5 = 228
$T6 = 264
u$ = 320
v$ = 328
w$ = 336
PMCCS_BitwiseOr_X_L$catch$0 PROC

; 905  :         {

  00000	48 89 4c 24 08	 mov	 QWORD PTR [rsp+8], rcx
  00005	48 89 54 24 10	 mov	 QWORD PTR [rsp+16], rdx
  0000a	55		 push	 rbp
  0000b	57		 push	 rdi
  0000c	48 83 ec 28	 sub	 rsp, 40			; 00000028H
  00010	48 8d 6a 20	 lea	 rbp, QWORD PTR [rdx+32]
__catch$PMCCS_BitwiseOr_X_L$0:

; 906  :             return (ex.GetStatusCode());

  00014	48 8b 4d 08	 mov	 rcx, QWORD PTR ex$4[rbp]
  00018	e8 00 00 00 00	 call	 ?GetStatusCode@Exception@Internal@Core@Math@Palmtree@@QEBAHXZ ; Palmtree::Math::Core::Internal::Exception::GetStatusCode
  0001d	89 85 e4 00 00
	00		 mov	 DWORD PTR $T5[rbp], eax
  00023	48 8d 05 00 00
	00 00		 lea	 rax, $LN8@PMCCS_Bitw
  0002a	eb 07		 jmp	 SHORT $LN9@PMCCS_Bitw

; 907  :         }

  0002c	48 8d 05 00 00
	00 00		 lea	 rax, __tryend$PMCCS_BitwiseOr_X_L$1
$LN9@PMCCS_Bitw:
  00033	48 83 c4 28	 add	 rsp, 40			; 00000028H
  00037	5f		 pop	 rdi
  00038	5d		 pop	 rbp
  00039	c3		 ret	 0
  0003a	cc		 int	 3
PMCCS_BitwiseOr_X_L$catch$0 ENDP
text$x	ENDS
; Function compile flags: /Odtp /RTCsu /ZI
; File z:\sources\lunor\repos\rougemeilland\palmtree.math.core.uint\palmtree.math.core.uint\pmc_interface_csharp.cpp
;	COMDAT PMCCS_BitwiseOr_X_I
_TEXT	SEGMENT
ex$4 = 8
$T5 = 228
$T6 = 264
u$ = 320
v$ = 328
w$ = 336
PMCCS_BitwiseOr_X_I PROC				; COMDAT

; 881  :     {

$LN10:
  00000	4c 89 44 24 18	 mov	 QWORD PTR [rsp+24], r8
  00005	89 54 24 10	 mov	 DWORD PTR [rsp+16], edx
  00009	48 89 4c 24 08	 mov	 QWORD PTR [rsp+8], rcx
  0000e	55		 push	 rbp
  0000f	57		 push	 rdi
  00010	48 81 ec 48 01
	00 00		 sub	 rsp, 328		; 00000148H
  00017	48 8d 6c 24 20	 lea	 rbp, QWORD PTR [rsp+32]
  0001c	48 8b fc	 mov	 rdi, rsp
  0001f	b9 52 00 00 00	 mov	 ecx, 82			; 00000052H
  00024	b8 cc cc cc cc	 mov	 eax, -858993460		; ccccccccH
  00029	f3 ab		 rep stosd
  0002b	48 8b 8c 24 68
	01 00 00	 mov	 rcx, QWORD PTR [rsp+360]
  00033	48 c7 85 08 01
	00 00 fe ff ff
	ff		 mov	 QWORD PTR $T6[rbp], -2
  0003e	48 8d 0d 00 00
	00 00		 lea	 rcx, OFFSET FLAT:__C21BA676_pmc_interface_csharp@cpp
  00045	e8 00 00 00 00	 call	 __CheckForDebuggerJustMyCode

; 882  :         if (w == nullptr)

  0004a	48 83 bd 50 01
	00 00 00	 cmp	 QWORD PTR w$[rbp], 0
  00052	75 07		 jne	 SHORT $LN2@PMCCS_Bitw

; 883  :             return (PMC_STATUS_ARGUMENT_NULL_ERROR);

  00054	b8 fe ff ff ff	 mov	 eax, -2
  00059	eb 28		 jmp	 SHORT $LN1@PMCCS_Bitw
$LN2@PMCCS_Bitw:

; 884  :         try
; 885  :         {
; 886  :             *w = PMC_BitwiseOr_X_I(u, v);

  0005b	8b 95 48 01 00
	00		 mov	 edx, DWORD PTR v$[rbp]
  00061	48 8b 8d 40 01
	00 00		 mov	 rcx, QWORD PTR u$[rbp]
  00068	e8 00 00 00 00	 call	 ?PMC_BitwiseOr_X_I@Internal@Core@Math@Palmtree@@YAPEAU__tag_PMC_HANDLE_UINT@1234@PEAU51234@I@Z ; Palmtree::Math::Core::Internal::PMC_BitwiseOr_X_I
  0006d	48 8b 8d 50 01
	00 00		 mov	 rcx, QWORD PTR w$[rbp]
  00074	48 89 01	 mov	 QWORD PTR [rcx], rax

; 887  :             return (PMC_STATUS_OK);

  00077	33 c0		 xor	 eax, eax
  00079	eb 08		 jmp	 SHORT $LN1@PMCCS_Bitw
__tryend$PMCCS_BitwiseOr_X_I$1:
  0007b	eb 06		 jmp	 SHORT $LN1@PMCCS_Bitw
$LN8@PMCCS_Bitw:

; 888  :         }
; 889  :         catch (const Palmtree::Math::Core::Internal::Exception& ex)
; 890  :         {
; 891  :             return (ex.GetStatusCode());

  0007d	8b 85 e4 00 00
	00		 mov	 eax, DWORD PTR $T5[rbp]
$LN1@PMCCS_Bitw:

; 892  :         }
; 893  :     }

  00083	48 8b f8	 mov	 rdi, rax
  00086	48 8d 4d e0	 lea	 rcx, QWORD PTR [rbp-32]
  0008a	48 8d 15 00 00
	00 00		 lea	 rdx, OFFSET FLAT:PMCCS_BitwiseOr_X_I$rtcFrameData
  00091	e8 00 00 00 00	 call	 _RTC_CheckStackVars
  00096	48 8b c7	 mov	 rax, rdi
  00099	48 8d a5 28 01
	00 00		 lea	 rsp, QWORD PTR [rbp+296]
  000a0	5f		 pop	 rdi
  000a1	5d		 pop	 rbp
  000a2	c3		 ret	 0
  000a3	cc		 int	 3
PMCCS_BitwiseOr_X_I ENDP
_TEXT	ENDS
;	COMDAT text$x
text$x	SEGMENT
ex$4 = 8
$T5 = 228
$T6 = 264
u$ = 320
v$ = 328
w$ = 336
PMCCS_BitwiseOr_X_I$catch$0 PROC

; 888  :         }
; 889  :         catch (const Palmtree::Math::Core::Internal::Exception& ex)
; 890  :         {

  00000	48 89 4c 24 08	 mov	 QWORD PTR [rsp+8], rcx
  00005	48 89 54 24 10	 mov	 QWORD PTR [rsp+16], rdx
  0000a	55		 push	 rbp
  0000b	57		 push	 rdi
  0000c	48 83 ec 28	 sub	 rsp, 40			; 00000028H
  00010	48 8d 6a 20	 lea	 rbp, QWORD PTR [rdx+32]
__catch$PMCCS_BitwiseOr_X_I$0:

; 888  :         }
; 889  :         catch (const Palmtree::Math::Core::Internal::Exception& ex)
; 890  :         {
; 891  :             return (ex.GetStatusCode());

  00014	48 8b 4d 08	 mov	 rcx, QWORD PTR ex$4[rbp]
  00018	e8 00 00 00 00	 call	 ?GetStatusCode@Exception@Internal@Core@Math@Palmtree@@QEBAHXZ ; Palmtree::Math::Core::Internal::Exception::GetStatusCode
  0001d	89 85 e4 00 00
	00		 mov	 DWORD PTR $T5[rbp], eax
  00023	48 8d 05 00 00
	00 00		 lea	 rax, $LN8@PMCCS_Bitw
  0002a	eb 07		 jmp	 SHORT $LN9@PMCCS_Bitw

; 892  :         }

  0002c	48 8d 05 00 00
	00 00		 lea	 rax, __tryend$PMCCS_BitwiseOr_X_I$1
$LN9@PMCCS_Bitw:
  00033	48 83 c4 28	 add	 rsp, 40			; 00000028H
  00037	5f		 pop	 rdi
  00038	5d		 pop	 rbp
  00039	c3		 ret	 0
  0003a	cc		 int	 3
PMCCS_BitwiseOr_X_I$catch$0 ENDP
text$x	ENDS
; Function compile flags: /Odtp /RTCsu /ZI
;	COMDAT text$x
text$x	SEGMENT
ex$4 = 8
$T5 = 228
$T6 = 264
u$ = 320
v$ = 328
w$ = 336
PMCCS_BitwiseOr_X_I$catch$0 PROC

; 890  :         {

  00000	48 89 4c 24 08	 mov	 QWORD PTR [rsp+8], rcx
  00005	48 89 54 24 10	 mov	 QWORD PTR [rsp+16], rdx
  0000a	55		 push	 rbp
  0000b	57		 push	 rdi
  0000c	48 83 ec 28	 sub	 rsp, 40			; 00000028H
  00010	48 8d 6a 20	 lea	 rbp, QWORD PTR [rdx+32]
__catch$PMCCS_BitwiseOr_X_I$0:

; 891  :             return (ex.GetStatusCode());

  00014	48 8b 4d 08	 mov	 rcx, QWORD PTR ex$4[rbp]
  00018	e8 00 00 00 00	 call	 ?GetStatusCode@Exception@Internal@Core@Math@Palmtree@@QEBAHXZ ; Palmtree::Math::Core::Internal::Exception::GetStatusCode
  0001d	89 85 e4 00 00
	00		 mov	 DWORD PTR $T5[rbp], eax
  00023	48 8d 05 00 00
	00 00		 lea	 rax, $LN8@PMCCS_Bitw
  0002a	eb 07		 jmp	 SHORT $LN9@PMCCS_Bitw

; 892  :         }

  0002c	48 8d 05 00 00
	00 00		 lea	 rax, __tryend$PMCCS_BitwiseOr_X_I$1
$LN9@PMCCS_Bitw:
  00033	48 83 c4 28	 add	 rsp, 40			; 00000028H
  00037	5f		 pop	 rdi
  00038	5d		 pop	 rbp
  00039	c3		 ret	 0
  0003a	cc		 int	 3
PMCCS_BitwiseOr_X_I$catch$0 ENDP
text$x	ENDS
; Function compile flags: /Odtp /RTCsu /ZI
; File z:\sources\lunor\repos\rougemeilland\palmtree.math.core.uint\palmtree.math.core.uint\pmc_interface_csharp.cpp
;	COMDAT PMCCS_BitwiseOr_L_X
_TEXT	SEGMENT
ex$4 = 8
$T5 = 228
$T6 = 264
u$ = 320
v$ = 328
w$ = 336
PMCCS_BitwiseOr_L_X PROC				; COMDAT

; 866  :     {

$LN10:
  00000	4c 89 44 24 18	 mov	 QWORD PTR [rsp+24], r8
  00005	48 89 54 24 10	 mov	 QWORD PTR [rsp+16], rdx
  0000a	48 89 4c 24 08	 mov	 QWORD PTR [rsp+8], rcx
  0000f	55		 push	 rbp
  00010	57		 push	 rdi
  00011	48 81 ec 48 01
	00 00		 sub	 rsp, 328		; 00000148H
  00018	48 8d 6c 24 20	 lea	 rbp, QWORD PTR [rsp+32]
  0001d	48 8b fc	 mov	 rdi, rsp
  00020	b9 52 00 00 00	 mov	 ecx, 82			; 00000052H
  00025	b8 cc cc cc cc	 mov	 eax, -858993460		; ccccccccH
  0002a	f3 ab		 rep stosd
  0002c	48 8b 8c 24 68
	01 00 00	 mov	 rcx, QWORD PTR [rsp+360]
  00034	48 c7 85 08 01
	00 00 fe ff ff
	ff		 mov	 QWORD PTR $T6[rbp], -2
  0003f	48 8d 0d 00 00
	00 00		 lea	 rcx, OFFSET FLAT:__C21BA676_pmc_interface_csharp@cpp
  00046	e8 00 00 00 00	 call	 __CheckForDebuggerJustMyCode

; 867  :         if (w == nullptr)

  0004b	48 83 bd 50 01
	00 00 00	 cmp	 QWORD PTR w$[rbp], 0
  00053	75 07		 jne	 SHORT $LN2@PMCCS_Bitw

; 868  :             return (PMC_STATUS_ARGUMENT_NULL_ERROR);

  00055	b8 fe ff ff ff	 mov	 eax, -2
  0005a	eb 29		 jmp	 SHORT $LN1@PMCCS_Bitw
$LN2@PMCCS_Bitw:

; 869  :         try
; 870  :         {
; 871  :             *w = PMC_BitwiseOr_L_X(u, v);

  0005c	48 8b 95 48 01
	00 00		 mov	 rdx, QWORD PTR v$[rbp]
  00063	48 8b 8d 40 01
	00 00		 mov	 rcx, QWORD PTR u$[rbp]
  0006a	e8 00 00 00 00	 call	 ?PMC_BitwiseOr_L_X@Internal@Core@Math@Palmtree@@YAPEAU__tag_PMC_HANDLE_UINT@1234@_KPEAU51234@@Z ; Palmtree::Math::Core::Internal::PMC_BitwiseOr_L_X
  0006f	48 8b 8d 50 01
	00 00		 mov	 rcx, QWORD PTR w$[rbp]
  00076	48 89 01	 mov	 QWORD PTR [rcx], rax

; 872  :             return (PMC_STATUS_OK);

  00079	33 c0		 xor	 eax, eax
  0007b	eb 08		 jmp	 SHORT $LN1@PMCCS_Bitw
__tryend$PMCCS_BitwiseOr_L_X$1:
  0007d	eb 06		 jmp	 SHORT $LN1@PMCCS_Bitw
$LN8@PMCCS_Bitw:

; 873  :         }
; 874  :         catch (const Palmtree::Math::Core::Internal::Exception& ex)
; 875  :         {
; 876  :             return (ex.GetStatusCode());

  0007f	8b 85 e4 00 00
	00		 mov	 eax, DWORD PTR $T5[rbp]
$LN1@PMCCS_Bitw:

; 877  :         }
; 878  :     }

  00085	48 8b f8	 mov	 rdi, rax
  00088	48 8d 4d e0	 lea	 rcx, QWORD PTR [rbp-32]
  0008c	48 8d 15 00 00
	00 00		 lea	 rdx, OFFSET FLAT:PMCCS_BitwiseOr_L_X$rtcFrameData
  00093	e8 00 00 00 00	 call	 _RTC_CheckStackVars
  00098	48 8b c7	 mov	 rax, rdi
  0009b	48 8d a5 28 01
	00 00		 lea	 rsp, QWORD PTR [rbp+296]
  000a2	5f		 pop	 rdi
  000a3	5d		 pop	 rbp
  000a4	c3		 ret	 0
  000a5	cc		 int	 3
PMCCS_BitwiseOr_L_X ENDP
_TEXT	ENDS
;	COMDAT text$x
text$x	SEGMENT
ex$4 = 8
$T5 = 228
$T6 = 264
u$ = 320
v$ = 328
w$ = 336
PMCCS_BitwiseOr_L_X$catch$0 PROC

; 873  :         }
; 874  :         catch (const Palmtree::Math::Core::Internal::Exception& ex)
; 875  :         {

  00000	48 89 4c 24 08	 mov	 QWORD PTR [rsp+8], rcx
  00005	48 89 54 24 10	 mov	 QWORD PTR [rsp+16], rdx
  0000a	55		 push	 rbp
  0000b	57		 push	 rdi
  0000c	48 83 ec 28	 sub	 rsp, 40			; 00000028H
  00010	48 8d 6a 20	 lea	 rbp, QWORD PTR [rdx+32]
__catch$PMCCS_BitwiseOr_L_X$0:

; 873  :         }
; 874  :         catch (const Palmtree::Math::Core::Internal::Exception& ex)
; 875  :         {
; 876  :             return (ex.GetStatusCode());

  00014	48 8b 4d 08	 mov	 rcx, QWORD PTR ex$4[rbp]
  00018	e8 00 00 00 00	 call	 ?GetStatusCode@Exception@Internal@Core@Math@Palmtree@@QEBAHXZ ; Palmtree::Math::Core::Internal::Exception::GetStatusCode
  0001d	89 85 e4 00 00
	00		 mov	 DWORD PTR $T5[rbp], eax
  00023	48 8d 05 00 00
	00 00		 lea	 rax, $LN8@PMCCS_Bitw
  0002a	eb 07		 jmp	 SHORT $LN9@PMCCS_Bitw

; 877  :         }

  0002c	48 8d 05 00 00
	00 00		 lea	 rax, __tryend$PMCCS_BitwiseOr_L_X$1
$LN9@PMCCS_Bitw:
  00033	48 83 c4 28	 add	 rsp, 40			; 00000028H
  00037	5f		 pop	 rdi
  00038	5d		 pop	 rbp
  00039	c3		 ret	 0
  0003a	cc		 int	 3
PMCCS_BitwiseOr_L_X$catch$0 ENDP
text$x	ENDS
; Function compile flags: /Odtp /RTCsu /ZI
;	COMDAT text$x
text$x	SEGMENT
ex$4 = 8
$T5 = 228
$T6 = 264
u$ = 320
v$ = 328
w$ = 336
PMCCS_BitwiseOr_L_X$catch$0 PROC

; 875  :         {

  00000	48 89 4c 24 08	 mov	 QWORD PTR [rsp+8], rcx
  00005	48 89 54 24 10	 mov	 QWORD PTR [rsp+16], rdx
  0000a	55		 push	 rbp
  0000b	57		 push	 rdi
  0000c	48 83 ec 28	 sub	 rsp, 40			; 00000028H
  00010	48 8d 6a 20	 lea	 rbp, QWORD PTR [rdx+32]
__catch$PMCCS_BitwiseOr_L_X$0:

; 876  :             return (ex.GetStatusCode());

  00014	48 8b 4d 08	 mov	 rcx, QWORD PTR ex$4[rbp]
  00018	e8 00 00 00 00	 call	 ?GetStatusCode@Exception@Internal@Core@Math@Palmtree@@QEBAHXZ ; Palmtree::Math::Core::Internal::Exception::GetStatusCode
  0001d	89 85 e4 00 00
	00		 mov	 DWORD PTR $T5[rbp], eax
  00023	48 8d 05 00 00
	00 00		 lea	 rax, $LN8@PMCCS_Bitw
  0002a	eb 07		 jmp	 SHORT $LN9@PMCCS_Bitw

; 877  :         }

  0002c	48 8d 05 00 00
	00 00		 lea	 rax, __tryend$PMCCS_BitwiseOr_L_X$1
$LN9@PMCCS_Bitw:
  00033	48 83 c4 28	 add	 rsp, 40			; 00000028H
  00037	5f		 pop	 rdi
  00038	5d		 pop	 rbp
  00039	c3		 ret	 0
  0003a	cc		 int	 3
PMCCS_BitwiseOr_L_X$catch$0 ENDP
text$x	ENDS
; Function compile flags: /Odtp /RTCsu /ZI
; File z:\sources\lunor\repos\rougemeilland\palmtree.math.core.uint\palmtree.math.core.uint\pmc_interface_csharp.cpp
;	COMDAT PMCCS_BitwiseOr_I_X
_TEXT	SEGMENT
ex$4 = 8
$T5 = 228
$T6 = 264
u$ = 320
v$ = 328
w$ = 336
PMCCS_BitwiseOr_I_X PROC				; COMDAT

; 851  :     {

$LN10:
  00000	4c 89 44 24 18	 mov	 QWORD PTR [rsp+24], r8
  00005	48 89 54 24 10	 mov	 QWORD PTR [rsp+16], rdx
  0000a	89 4c 24 08	 mov	 DWORD PTR [rsp+8], ecx
  0000e	55		 push	 rbp
  0000f	57		 push	 rdi
  00010	48 81 ec 48 01
	00 00		 sub	 rsp, 328		; 00000148H
  00017	48 8d 6c 24 20	 lea	 rbp, QWORD PTR [rsp+32]
  0001c	48 8b fc	 mov	 rdi, rsp
  0001f	b9 52 00 00 00	 mov	 ecx, 82			; 00000052H
  00024	b8 cc cc cc cc	 mov	 eax, -858993460		; ccccccccH
  00029	f3 ab		 rep stosd
  0002b	8b 8c 24 68 01
	00 00		 mov	 ecx, DWORD PTR [rsp+360]
  00032	48 c7 85 08 01
	00 00 fe ff ff
	ff		 mov	 QWORD PTR $T6[rbp], -2
  0003d	48 8d 0d 00 00
	00 00		 lea	 rcx, OFFSET FLAT:__C21BA676_pmc_interface_csharp@cpp
  00044	e8 00 00 00 00	 call	 __CheckForDebuggerJustMyCode

; 852  :         if (w == nullptr)

  00049	48 83 bd 50 01
	00 00 00	 cmp	 QWORD PTR w$[rbp], 0
  00051	75 07		 jne	 SHORT $LN2@PMCCS_Bitw

; 853  :             return (PMC_STATUS_ARGUMENT_NULL_ERROR);

  00053	b8 fe ff ff ff	 mov	 eax, -2
  00058	eb 28		 jmp	 SHORT $LN1@PMCCS_Bitw
$LN2@PMCCS_Bitw:

; 854  :         try
; 855  :         {
; 856  :             *w = PMC_BitwiseOr_I_X(u, v);

  0005a	48 8b 95 48 01
	00 00		 mov	 rdx, QWORD PTR v$[rbp]
  00061	8b 8d 40 01 00
	00		 mov	 ecx, DWORD PTR u$[rbp]
  00067	e8 00 00 00 00	 call	 ?PMC_BitwiseOr_I_X@Internal@Core@Math@Palmtree@@YAPEAU__tag_PMC_HANDLE_UINT@1234@IPEAU51234@@Z ; Palmtree::Math::Core::Internal::PMC_BitwiseOr_I_X
  0006c	48 8b 8d 50 01
	00 00		 mov	 rcx, QWORD PTR w$[rbp]
  00073	48 89 01	 mov	 QWORD PTR [rcx], rax

; 857  :             return (PMC_STATUS_OK);

  00076	33 c0		 xor	 eax, eax
  00078	eb 08		 jmp	 SHORT $LN1@PMCCS_Bitw
__tryend$PMCCS_BitwiseOr_I_X$1:
  0007a	eb 06		 jmp	 SHORT $LN1@PMCCS_Bitw
$LN8@PMCCS_Bitw:

; 858  :         }
; 859  :         catch (const Palmtree::Math::Core::Internal::Exception& ex)
; 860  :         {
; 861  :             return (ex.GetStatusCode());

  0007c	8b 85 e4 00 00
	00		 mov	 eax, DWORD PTR $T5[rbp]
$LN1@PMCCS_Bitw:

; 862  :         }
; 863  :     }

  00082	48 8b f8	 mov	 rdi, rax
  00085	48 8d 4d e0	 lea	 rcx, QWORD PTR [rbp-32]
  00089	48 8d 15 00 00
	00 00		 lea	 rdx, OFFSET FLAT:PMCCS_BitwiseOr_I_X$rtcFrameData
  00090	e8 00 00 00 00	 call	 _RTC_CheckStackVars
  00095	48 8b c7	 mov	 rax, rdi
  00098	48 8d a5 28 01
	00 00		 lea	 rsp, QWORD PTR [rbp+296]
  0009f	5f		 pop	 rdi
  000a0	5d		 pop	 rbp
  000a1	c3		 ret	 0
  000a2	cc		 int	 3
PMCCS_BitwiseOr_I_X ENDP
_TEXT	ENDS
;	COMDAT text$x
text$x	SEGMENT
ex$4 = 8
$T5 = 228
$T6 = 264
u$ = 320
v$ = 328
w$ = 336
PMCCS_BitwiseOr_I_X$catch$0 PROC

; 858  :         }
; 859  :         catch (const Palmtree::Math::Core::Internal::Exception& ex)
; 860  :         {

  00000	48 89 4c 24 08	 mov	 QWORD PTR [rsp+8], rcx
  00005	48 89 54 24 10	 mov	 QWORD PTR [rsp+16], rdx
  0000a	55		 push	 rbp
  0000b	57		 push	 rdi
  0000c	48 83 ec 28	 sub	 rsp, 40			; 00000028H
  00010	48 8d 6a 20	 lea	 rbp, QWORD PTR [rdx+32]
__catch$PMCCS_BitwiseOr_I_X$0:

; 858  :         }
; 859  :         catch (const Palmtree::Math::Core::Internal::Exception& ex)
; 860  :         {
; 861  :             return (ex.GetStatusCode());

  00014	48 8b 4d 08	 mov	 rcx, QWORD PTR ex$4[rbp]
  00018	e8 00 00 00 00	 call	 ?GetStatusCode@Exception@Internal@Core@Math@Palmtree@@QEBAHXZ ; Palmtree::Math::Core::Internal::Exception::GetStatusCode
  0001d	89 85 e4 00 00
	00		 mov	 DWORD PTR $T5[rbp], eax
  00023	48 8d 05 00 00
	00 00		 lea	 rax, $LN8@PMCCS_Bitw
  0002a	eb 07		 jmp	 SHORT $LN9@PMCCS_Bitw

; 862  :         }

  0002c	48 8d 05 00 00
	00 00		 lea	 rax, __tryend$PMCCS_BitwiseOr_I_X$1
$LN9@PMCCS_Bitw:
  00033	48 83 c4 28	 add	 rsp, 40			; 00000028H
  00037	5f		 pop	 rdi
  00038	5d		 pop	 rbp
  00039	c3		 ret	 0
  0003a	cc		 int	 3
PMCCS_BitwiseOr_I_X$catch$0 ENDP
text$x	ENDS
; Function compile flags: /Odtp /RTCsu /ZI
;	COMDAT text$x
text$x	SEGMENT
ex$4 = 8
$T5 = 228
$T6 = 264
u$ = 320
v$ = 328
w$ = 336
PMCCS_BitwiseOr_I_X$catch$0 PROC

; 860  :         {

  00000	48 89 4c 24 08	 mov	 QWORD PTR [rsp+8], rcx
  00005	48 89 54 24 10	 mov	 QWORD PTR [rsp+16], rdx
  0000a	55		 push	 rbp
  0000b	57		 push	 rdi
  0000c	48 83 ec 28	 sub	 rsp, 40			; 00000028H
  00010	48 8d 6a 20	 lea	 rbp, QWORD PTR [rdx+32]
__catch$PMCCS_BitwiseOr_I_X$0:

; 861  :             return (ex.GetStatusCode());

  00014	48 8b 4d 08	 mov	 rcx, QWORD PTR ex$4[rbp]
  00018	e8 00 00 00 00	 call	 ?GetStatusCode@Exception@Internal@Core@Math@Palmtree@@QEBAHXZ ; Palmtree::Math::Core::Internal::Exception::GetStatusCode
  0001d	89 85 e4 00 00
	00		 mov	 DWORD PTR $T5[rbp], eax
  00023	48 8d 05 00 00
	00 00		 lea	 rax, $LN8@PMCCS_Bitw
  0002a	eb 07		 jmp	 SHORT $LN9@PMCCS_Bitw

; 862  :         }

  0002c	48 8d 05 00 00
	00 00		 lea	 rax, __tryend$PMCCS_BitwiseOr_I_X$1
$LN9@PMCCS_Bitw:
  00033	48 83 c4 28	 add	 rsp, 40			; 00000028H
  00037	5f		 pop	 rdi
  00038	5d		 pop	 rbp
  00039	c3		 ret	 0
  0003a	cc		 int	 3
PMCCS_BitwiseOr_I_X$catch$0 ENDP
text$x	ENDS
; Function compile flags: /Odtp /RTCsu /ZI
; File z:\sources\lunor\repos\rougemeilland\palmtree.math.core.uint\palmtree.math.core.uint\pmc_interface_csharp.cpp
;	COMDAT PMCCS_BitwiseAnd_X_X
_TEXT	SEGMENT
ex$4 = 8
$T5 = 228
$T6 = 264
u$ = 320
v$ = 328
w$ = 336
PMCCS_BitwiseAnd_X_X PROC				; COMDAT

; 836  :     {

$LN10:
  00000	4c 89 44 24 18	 mov	 QWORD PTR [rsp+24], r8
  00005	48 89 54 24 10	 mov	 QWORD PTR [rsp+16], rdx
  0000a	48 89 4c 24 08	 mov	 QWORD PTR [rsp+8], rcx
  0000f	55		 push	 rbp
  00010	57		 push	 rdi
  00011	48 81 ec 48 01
	00 00		 sub	 rsp, 328		; 00000148H
  00018	48 8d 6c 24 20	 lea	 rbp, QWORD PTR [rsp+32]
  0001d	48 8b fc	 mov	 rdi, rsp
  00020	b9 52 00 00 00	 mov	 ecx, 82			; 00000052H
  00025	b8 cc cc cc cc	 mov	 eax, -858993460		; ccccccccH
  0002a	f3 ab		 rep stosd
  0002c	48 8b 8c 24 68
	01 00 00	 mov	 rcx, QWORD PTR [rsp+360]
  00034	48 c7 85 08 01
	00 00 fe ff ff
	ff		 mov	 QWORD PTR $T6[rbp], -2
  0003f	48 8d 0d 00 00
	00 00		 lea	 rcx, OFFSET FLAT:__C21BA676_pmc_interface_csharp@cpp
  00046	e8 00 00 00 00	 call	 __CheckForDebuggerJustMyCode

; 837  :         if (w == nullptr)

  0004b	48 83 bd 50 01
	00 00 00	 cmp	 QWORD PTR w$[rbp], 0
  00053	75 07		 jne	 SHORT $LN2@PMCCS_Bitw

; 838  :             return (PMC_STATUS_ARGUMENT_NULL_ERROR);

  00055	b8 fe ff ff ff	 mov	 eax, -2
  0005a	eb 29		 jmp	 SHORT $LN1@PMCCS_Bitw
$LN2@PMCCS_Bitw:

; 839  :         try
; 840  :         {
; 841  :             *w = PMC_BitwiseAnd_X_X(u, v);

  0005c	48 8b 95 48 01
	00 00		 mov	 rdx, QWORD PTR v$[rbp]
  00063	48 8b 8d 40 01
	00 00		 mov	 rcx, QWORD PTR u$[rbp]
  0006a	e8 00 00 00 00	 call	 ?PMC_BitwiseAnd_X_X@Internal@Core@Math@Palmtree@@YAPEAU__tag_PMC_HANDLE_UINT@1234@PEAU51234@0@Z ; Palmtree::Math::Core::Internal::PMC_BitwiseAnd_X_X
  0006f	48 8b 8d 50 01
	00 00		 mov	 rcx, QWORD PTR w$[rbp]
  00076	48 89 01	 mov	 QWORD PTR [rcx], rax

; 842  :             return (PMC_STATUS_OK);

  00079	33 c0		 xor	 eax, eax
  0007b	eb 08		 jmp	 SHORT $LN1@PMCCS_Bitw
__tryend$PMCCS_BitwiseAnd_X_X$1:
  0007d	eb 06		 jmp	 SHORT $LN1@PMCCS_Bitw
$LN8@PMCCS_Bitw:

; 843  :         }
; 844  :         catch (const Palmtree::Math::Core::Internal::Exception& ex)
; 845  :         {
; 846  :             return (ex.GetStatusCode());

  0007f	8b 85 e4 00 00
	00		 mov	 eax, DWORD PTR $T5[rbp]
$LN1@PMCCS_Bitw:

; 847  :         }
; 848  :     }

  00085	48 8b f8	 mov	 rdi, rax
  00088	48 8d 4d e0	 lea	 rcx, QWORD PTR [rbp-32]
  0008c	48 8d 15 00 00
	00 00		 lea	 rdx, OFFSET FLAT:PMCCS_BitwiseAnd_X_X$rtcFrameData
  00093	e8 00 00 00 00	 call	 _RTC_CheckStackVars
  00098	48 8b c7	 mov	 rax, rdi
  0009b	48 8d a5 28 01
	00 00		 lea	 rsp, QWORD PTR [rbp+296]
  000a2	5f		 pop	 rdi
  000a3	5d		 pop	 rbp
  000a4	c3		 ret	 0
  000a5	cc		 int	 3
PMCCS_BitwiseAnd_X_X ENDP
_TEXT	ENDS
;	COMDAT text$x
text$x	SEGMENT
ex$4 = 8
$T5 = 228
$T6 = 264
u$ = 320
v$ = 328
w$ = 336
PMCCS_BitwiseAnd_X_X$catch$0 PROC

; 843  :         }
; 844  :         catch (const Palmtree::Math::Core::Internal::Exception& ex)
; 845  :         {

  00000	48 89 4c 24 08	 mov	 QWORD PTR [rsp+8], rcx
  00005	48 89 54 24 10	 mov	 QWORD PTR [rsp+16], rdx
  0000a	55		 push	 rbp
  0000b	57		 push	 rdi
  0000c	48 83 ec 28	 sub	 rsp, 40			; 00000028H
  00010	48 8d 6a 20	 lea	 rbp, QWORD PTR [rdx+32]
__catch$PMCCS_BitwiseAnd_X_X$0:

; 843  :         }
; 844  :         catch (const Palmtree::Math::Core::Internal::Exception& ex)
; 845  :         {
; 846  :             return (ex.GetStatusCode());

  00014	48 8b 4d 08	 mov	 rcx, QWORD PTR ex$4[rbp]
  00018	e8 00 00 00 00	 call	 ?GetStatusCode@Exception@Internal@Core@Math@Palmtree@@QEBAHXZ ; Palmtree::Math::Core::Internal::Exception::GetStatusCode
  0001d	89 85 e4 00 00
	00		 mov	 DWORD PTR $T5[rbp], eax
  00023	48 8d 05 00 00
	00 00		 lea	 rax, $LN8@PMCCS_Bitw
  0002a	eb 07		 jmp	 SHORT $LN9@PMCCS_Bitw

; 847  :         }

  0002c	48 8d 05 00 00
	00 00		 lea	 rax, __tryend$PMCCS_BitwiseAnd_X_X$1
$LN9@PMCCS_Bitw:
  00033	48 83 c4 28	 add	 rsp, 40			; 00000028H
  00037	5f		 pop	 rdi
  00038	5d		 pop	 rbp
  00039	c3		 ret	 0
  0003a	cc		 int	 3
PMCCS_BitwiseAnd_X_X$catch$0 ENDP
text$x	ENDS
; Function compile flags: /Odtp /RTCsu /ZI
;	COMDAT text$x
text$x	SEGMENT
ex$4 = 8
$T5 = 228
$T6 = 264
u$ = 320
v$ = 328
w$ = 336
PMCCS_BitwiseAnd_X_X$catch$0 PROC

; 845  :         {

  00000	48 89 4c 24 08	 mov	 QWORD PTR [rsp+8], rcx
  00005	48 89 54 24 10	 mov	 QWORD PTR [rsp+16], rdx
  0000a	55		 push	 rbp
  0000b	57		 push	 rdi
  0000c	48 83 ec 28	 sub	 rsp, 40			; 00000028H
  00010	48 8d 6a 20	 lea	 rbp, QWORD PTR [rdx+32]
__catch$PMCCS_BitwiseAnd_X_X$0:

; 846  :             return (ex.GetStatusCode());

  00014	48 8b 4d 08	 mov	 rcx, QWORD PTR ex$4[rbp]
  00018	e8 00 00 00 00	 call	 ?GetStatusCode@Exception@Internal@Core@Math@Palmtree@@QEBAHXZ ; Palmtree::Math::Core::Internal::Exception::GetStatusCode
  0001d	89 85 e4 00 00
	00		 mov	 DWORD PTR $T5[rbp], eax
  00023	48 8d 05 00 00
	00 00		 lea	 rax, $LN8@PMCCS_Bitw
  0002a	eb 07		 jmp	 SHORT $LN9@PMCCS_Bitw

; 847  :         }

  0002c	48 8d 05 00 00
	00 00		 lea	 rax, __tryend$PMCCS_BitwiseAnd_X_X$1
$LN9@PMCCS_Bitw:
  00033	48 83 c4 28	 add	 rsp, 40			; 00000028H
  00037	5f		 pop	 rdi
  00038	5d		 pop	 rbp
  00039	c3		 ret	 0
  0003a	cc		 int	 3
PMCCS_BitwiseAnd_X_X$catch$0 ENDP
text$x	ENDS
; Function compile flags: /Odtp /RTCsu /ZI
; File z:\sources\lunor\repos\rougemeilland\palmtree.math.core.uint\palmtree.math.core.uint\pmc_interface_csharp.cpp
;	COMDAT PMCCS_BitwiseAnd_X_L
_TEXT	SEGMENT
ex$4 = 8
$T5 = 228
$T6 = 264
u$ = 320
v$ = 328
w$ = 336
PMCCS_BitwiseAnd_X_L PROC				; COMDAT

; 821  :     {

$LN10:
  00000	4c 89 44 24 18	 mov	 QWORD PTR [rsp+24], r8
  00005	48 89 54 24 10	 mov	 QWORD PTR [rsp+16], rdx
  0000a	48 89 4c 24 08	 mov	 QWORD PTR [rsp+8], rcx
  0000f	55		 push	 rbp
  00010	57		 push	 rdi
  00011	48 81 ec 48 01
	00 00		 sub	 rsp, 328		; 00000148H
  00018	48 8d 6c 24 20	 lea	 rbp, QWORD PTR [rsp+32]
  0001d	48 8b fc	 mov	 rdi, rsp
  00020	b9 52 00 00 00	 mov	 ecx, 82			; 00000052H
  00025	b8 cc cc cc cc	 mov	 eax, -858993460		; ccccccccH
  0002a	f3 ab		 rep stosd
  0002c	48 8b 8c 24 68
	01 00 00	 mov	 rcx, QWORD PTR [rsp+360]
  00034	48 c7 85 08 01
	00 00 fe ff ff
	ff		 mov	 QWORD PTR $T6[rbp], -2
  0003f	48 8d 0d 00 00
	00 00		 lea	 rcx, OFFSET FLAT:__C21BA676_pmc_interface_csharp@cpp
  00046	e8 00 00 00 00	 call	 __CheckForDebuggerJustMyCode

; 822  :         if (w == nullptr)

  0004b	48 83 bd 50 01
	00 00 00	 cmp	 QWORD PTR w$[rbp], 0
  00053	75 07		 jne	 SHORT $LN2@PMCCS_Bitw

; 823  :             return (PMC_STATUS_ARGUMENT_NULL_ERROR);

  00055	b8 fe ff ff ff	 mov	 eax, -2
  0005a	eb 29		 jmp	 SHORT $LN1@PMCCS_Bitw
$LN2@PMCCS_Bitw:

; 824  :         try
; 825  :         {
; 826  :             *w = PMC_BitwiseAnd_X_L(u, v);

  0005c	48 8b 95 48 01
	00 00		 mov	 rdx, QWORD PTR v$[rbp]
  00063	48 8b 8d 40 01
	00 00		 mov	 rcx, QWORD PTR u$[rbp]
  0006a	e8 00 00 00 00	 call	 ?PMC_BitwiseAnd_X_L@Internal@Core@Math@Palmtree@@YA_KPEAU__tag_PMC_HANDLE_UINT@1234@_K@Z ; Palmtree::Math::Core::Internal::PMC_BitwiseAnd_X_L
  0006f	48 8b 8d 50 01
	00 00		 mov	 rcx, QWORD PTR w$[rbp]
  00076	48 89 01	 mov	 QWORD PTR [rcx], rax

; 827  :             return (PMC_STATUS_OK);

  00079	33 c0		 xor	 eax, eax
  0007b	eb 08		 jmp	 SHORT $LN1@PMCCS_Bitw
__tryend$PMCCS_BitwiseAnd_X_L$1:
  0007d	eb 06		 jmp	 SHORT $LN1@PMCCS_Bitw
$LN8@PMCCS_Bitw:

; 828  :         }
; 829  :         catch (const Palmtree::Math::Core::Internal::Exception& ex)
; 830  :         {
; 831  :             return (ex.GetStatusCode());

  0007f	8b 85 e4 00 00
	00		 mov	 eax, DWORD PTR $T5[rbp]
$LN1@PMCCS_Bitw:

; 832  :         }
; 833  :     }

  00085	48 8b f8	 mov	 rdi, rax
  00088	48 8d 4d e0	 lea	 rcx, QWORD PTR [rbp-32]
  0008c	48 8d 15 00 00
	00 00		 lea	 rdx, OFFSET FLAT:PMCCS_BitwiseAnd_X_L$rtcFrameData
  00093	e8 00 00 00 00	 call	 _RTC_CheckStackVars
  00098	48 8b c7	 mov	 rax, rdi
  0009b	48 8d a5 28 01
	00 00		 lea	 rsp, QWORD PTR [rbp+296]
  000a2	5f		 pop	 rdi
  000a3	5d		 pop	 rbp
  000a4	c3		 ret	 0
  000a5	cc		 int	 3
PMCCS_BitwiseAnd_X_L ENDP
_TEXT	ENDS
;	COMDAT text$x
text$x	SEGMENT
ex$4 = 8
$T5 = 228
$T6 = 264
u$ = 320
v$ = 328
w$ = 336
PMCCS_BitwiseAnd_X_L$catch$0 PROC

; 828  :         }
; 829  :         catch (const Palmtree::Math::Core::Internal::Exception& ex)
; 830  :         {

  00000	48 89 4c 24 08	 mov	 QWORD PTR [rsp+8], rcx
  00005	48 89 54 24 10	 mov	 QWORD PTR [rsp+16], rdx
  0000a	55		 push	 rbp
  0000b	57		 push	 rdi
  0000c	48 83 ec 28	 sub	 rsp, 40			; 00000028H
  00010	48 8d 6a 20	 lea	 rbp, QWORD PTR [rdx+32]
__catch$PMCCS_BitwiseAnd_X_L$0:

; 828  :         }
; 829  :         catch (const Palmtree::Math::Core::Internal::Exception& ex)
; 830  :         {
; 831  :             return (ex.GetStatusCode());

  00014	48 8b 4d 08	 mov	 rcx, QWORD PTR ex$4[rbp]
  00018	e8 00 00 00 00	 call	 ?GetStatusCode@Exception@Internal@Core@Math@Palmtree@@QEBAHXZ ; Palmtree::Math::Core::Internal::Exception::GetStatusCode
  0001d	89 85 e4 00 00
	00		 mov	 DWORD PTR $T5[rbp], eax
  00023	48 8d 05 00 00
	00 00		 lea	 rax, $LN8@PMCCS_Bitw
  0002a	eb 07		 jmp	 SHORT $LN9@PMCCS_Bitw

; 832  :         }

  0002c	48 8d 05 00 00
	00 00		 lea	 rax, __tryend$PMCCS_BitwiseAnd_X_L$1
$LN9@PMCCS_Bitw:
  00033	48 83 c4 28	 add	 rsp, 40			; 00000028H
  00037	5f		 pop	 rdi
  00038	5d		 pop	 rbp
  00039	c3		 ret	 0
  0003a	cc		 int	 3
PMCCS_BitwiseAnd_X_L$catch$0 ENDP
text$x	ENDS
; Function compile flags: /Odtp /RTCsu /ZI
;	COMDAT text$x
text$x	SEGMENT
ex$4 = 8
$T5 = 228
$T6 = 264
u$ = 320
v$ = 328
w$ = 336
PMCCS_BitwiseAnd_X_L$catch$0 PROC

; 830  :         {

  00000	48 89 4c 24 08	 mov	 QWORD PTR [rsp+8], rcx
  00005	48 89 54 24 10	 mov	 QWORD PTR [rsp+16], rdx
  0000a	55		 push	 rbp
  0000b	57		 push	 rdi
  0000c	48 83 ec 28	 sub	 rsp, 40			; 00000028H
  00010	48 8d 6a 20	 lea	 rbp, QWORD PTR [rdx+32]
__catch$PMCCS_BitwiseAnd_X_L$0:

; 831  :             return (ex.GetStatusCode());

  00014	48 8b 4d 08	 mov	 rcx, QWORD PTR ex$4[rbp]
  00018	e8 00 00 00 00	 call	 ?GetStatusCode@Exception@Internal@Core@Math@Palmtree@@QEBAHXZ ; Palmtree::Math::Core::Internal::Exception::GetStatusCode
  0001d	89 85 e4 00 00
	00		 mov	 DWORD PTR $T5[rbp], eax
  00023	48 8d 05 00 00
	00 00		 lea	 rax, $LN8@PMCCS_Bitw
  0002a	eb 07		 jmp	 SHORT $LN9@PMCCS_Bitw

; 832  :         }

  0002c	48 8d 05 00 00
	00 00		 lea	 rax, __tryend$PMCCS_BitwiseAnd_X_L$1
$LN9@PMCCS_Bitw:
  00033	48 83 c4 28	 add	 rsp, 40			; 00000028H
  00037	5f		 pop	 rdi
  00038	5d		 pop	 rbp
  00039	c3		 ret	 0
  0003a	cc		 int	 3
PMCCS_BitwiseAnd_X_L$catch$0 ENDP
text$x	ENDS
; Function compile flags: /Odtp /RTCsu /ZI
; File z:\sources\lunor\repos\rougemeilland\palmtree.math.core.uint\palmtree.math.core.uint\pmc_interface_csharp.cpp
;	COMDAT PMCCS_BitwiseAnd_X_I
_TEXT	SEGMENT
ex$4 = 8
$T5 = 228
$T6 = 264
u$ = 320
v$ = 328
w$ = 336
PMCCS_BitwiseAnd_X_I PROC				; COMDAT

; 806  :     {

$LN10:
  00000	4c 89 44 24 18	 mov	 QWORD PTR [rsp+24], r8
  00005	89 54 24 10	 mov	 DWORD PTR [rsp+16], edx
  00009	48 89 4c 24 08	 mov	 QWORD PTR [rsp+8], rcx
  0000e	55		 push	 rbp
  0000f	57		 push	 rdi
  00010	48 81 ec 48 01
	00 00		 sub	 rsp, 328		; 00000148H
  00017	48 8d 6c 24 20	 lea	 rbp, QWORD PTR [rsp+32]
  0001c	48 8b fc	 mov	 rdi, rsp
  0001f	b9 52 00 00 00	 mov	 ecx, 82			; 00000052H
  00024	b8 cc cc cc cc	 mov	 eax, -858993460		; ccccccccH
  00029	f3 ab		 rep stosd
  0002b	48 8b 8c 24 68
	01 00 00	 mov	 rcx, QWORD PTR [rsp+360]
  00033	48 c7 85 08 01
	00 00 fe ff ff
	ff		 mov	 QWORD PTR $T6[rbp], -2
  0003e	48 8d 0d 00 00
	00 00		 lea	 rcx, OFFSET FLAT:__C21BA676_pmc_interface_csharp@cpp
  00045	e8 00 00 00 00	 call	 __CheckForDebuggerJustMyCode

; 807  :         if (w == nullptr)

  0004a	48 83 bd 50 01
	00 00 00	 cmp	 QWORD PTR w$[rbp], 0
  00052	75 07		 jne	 SHORT $LN2@PMCCS_Bitw

; 808  :             return (PMC_STATUS_ARGUMENT_NULL_ERROR);

  00054	b8 fe ff ff ff	 mov	 eax, -2
  00059	eb 27		 jmp	 SHORT $LN1@PMCCS_Bitw
$LN2@PMCCS_Bitw:

; 809  :         try
; 810  :         {
; 811  :             *w = PMC_BitwiseAnd_X_I(u, v);

  0005b	8b 95 48 01 00
	00		 mov	 edx, DWORD PTR v$[rbp]
  00061	48 8b 8d 40 01
	00 00		 mov	 rcx, QWORD PTR u$[rbp]
  00068	e8 00 00 00 00	 call	 ?PMC_BitwiseAnd_X_I@Internal@Core@Math@Palmtree@@YAIPEAU__tag_PMC_HANDLE_UINT@1234@I@Z ; Palmtree::Math::Core::Internal::PMC_BitwiseAnd_X_I
  0006d	48 8b 8d 50 01
	00 00		 mov	 rcx, QWORD PTR w$[rbp]
  00074	89 01		 mov	 DWORD PTR [rcx], eax

; 812  :             return (PMC_STATUS_OK);

  00076	33 c0		 xor	 eax, eax
  00078	eb 08		 jmp	 SHORT $LN1@PMCCS_Bitw
__tryend$PMCCS_BitwiseAnd_X_I$1:
  0007a	eb 06		 jmp	 SHORT $LN1@PMCCS_Bitw
$LN8@PMCCS_Bitw:

; 813  :         }
; 814  :         catch (const Palmtree::Math::Core::Internal::Exception& ex)
; 815  :         {
; 816  :             return (ex.GetStatusCode());

  0007c	8b 85 e4 00 00
	00		 mov	 eax, DWORD PTR $T5[rbp]
$LN1@PMCCS_Bitw:

; 817  :         }
; 818  :     }

  00082	48 8b f8	 mov	 rdi, rax
  00085	48 8d 4d e0	 lea	 rcx, QWORD PTR [rbp-32]
  00089	48 8d 15 00 00
	00 00		 lea	 rdx, OFFSET FLAT:PMCCS_BitwiseAnd_X_I$rtcFrameData
  00090	e8 00 00 00 00	 call	 _RTC_CheckStackVars
  00095	48 8b c7	 mov	 rax, rdi
  00098	48 8d a5 28 01
	00 00		 lea	 rsp, QWORD PTR [rbp+296]
  0009f	5f		 pop	 rdi
  000a0	5d		 pop	 rbp
  000a1	c3		 ret	 0
  000a2	cc		 int	 3
PMCCS_BitwiseAnd_X_I ENDP
_TEXT	ENDS
;	COMDAT text$x
text$x	SEGMENT
ex$4 = 8
$T5 = 228
$T6 = 264
u$ = 320
v$ = 328
w$ = 336
PMCCS_BitwiseAnd_X_I$catch$0 PROC

; 813  :         }
; 814  :         catch (const Palmtree::Math::Core::Internal::Exception& ex)
; 815  :         {

  00000	48 89 4c 24 08	 mov	 QWORD PTR [rsp+8], rcx
  00005	48 89 54 24 10	 mov	 QWORD PTR [rsp+16], rdx
  0000a	55		 push	 rbp
  0000b	57		 push	 rdi
  0000c	48 83 ec 28	 sub	 rsp, 40			; 00000028H
  00010	48 8d 6a 20	 lea	 rbp, QWORD PTR [rdx+32]
__catch$PMCCS_BitwiseAnd_X_I$0:

; 813  :         }
; 814  :         catch (const Palmtree::Math::Core::Internal::Exception& ex)
; 815  :         {
; 816  :             return (ex.GetStatusCode());

  00014	48 8b 4d 08	 mov	 rcx, QWORD PTR ex$4[rbp]
  00018	e8 00 00 00 00	 call	 ?GetStatusCode@Exception@Internal@Core@Math@Palmtree@@QEBAHXZ ; Palmtree::Math::Core::Internal::Exception::GetStatusCode
  0001d	89 85 e4 00 00
	00		 mov	 DWORD PTR $T5[rbp], eax
  00023	48 8d 05 00 00
	00 00		 lea	 rax, $LN8@PMCCS_Bitw
  0002a	eb 07		 jmp	 SHORT $LN9@PMCCS_Bitw

; 817  :         }

  0002c	48 8d 05 00 00
	00 00		 lea	 rax, __tryend$PMCCS_BitwiseAnd_X_I$1
$LN9@PMCCS_Bitw:
  00033	48 83 c4 28	 add	 rsp, 40			; 00000028H
  00037	5f		 pop	 rdi
  00038	5d		 pop	 rbp
  00039	c3		 ret	 0
  0003a	cc		 int	 3
PMCCS_BitwiseAnd_X_I$catch$0 ENDP
text$x	ENDS
; Function compile flags: /Odtp /RTCsu /ZI
;	COMDAT text$x
text$x	SEGMENT
ex$4 = 8
$T5 = 228
$T6 = 264
u$ = 320
v$ = 328
w$ = 336
PMCCS_BitwiseAnd_X_I$catch$0 PROC

; 815  :         {

  00000	48 89 4c 24 08	 mov	 QWORD PTR [rsp+8], rcx
  00005	48 89 54 24 10	 mov	 QWORD PTR [rsp+16], rdx
  0000a	55		 push	 rbp
  0000b	57		 push	 rdi
  0000c	48 83 ec 28	 sub	 rsp, 40			; 00000028H
  00010	48 8d 6a 20	 lea	 rbp, QWORD PTR [rdx+32]
__catch$PMCCS_BitwiseAnd_X_I$0:

; 816  :             return (ex.GetStatusCode());

  00014	48 8b 4d 08	 mov	 rcx, QWORD PTR ex$4[rbp]
  00018	e8 00 00 00 00	 call	 ?GetStatusCode@Exception@Internal@Core@Math@Palmtree@@QEBAHXZ ; Palmtree::Math::Core::Internal::Exception::GetStatusCode
  0001d	89 85 e4 00 00
	00		 mov	 DWORD PTR $T5[rbp], eax
  00023	48 8d 05 00 00
	00 00		 lea	 rax, $LN8@PMCCS_Bitw
  0002a	eb 07		 jmp	 SHORT $LN9@PMCCS_Bitw

; 817  :         }

  0002c	48 8d 05 00 00
	00 00		 lea	 rax, __tryend$PMCCS_BitwiseAnd_X_I$1
$LN9@PMCCS_Bitw:
  00033	48 83 c4 28	 add	 rsp, 40			; 00000028H
  00037	5f		 pop	 rdi
  00038	5d		 pop	 rbp
  00039	c3		 ret	 0
  0003a	cc		 int	 3
PMCCS_BitwiseAnd_X_I$catch$0 ENDP
text$x	ENDS
; Function compile flags: /Odtp /RTCsu /ZI
; File z:\sources\lunor\repos\rougemeilland\palmtree.math.core.uint\palmtree.math.core.uint\pmc_interface_csharp.cpp
;	COMDAT PMCCS_BitwiseAnd_L_X
_TEXT	SEGMENT
ex$4 = 8
$T5 = 228
$T6 = 264
u$ = 320
v$ = 328
w$ = 336
PMCCS_BitwiseAnd_L_X PROC				; COMDAT

; 791  :     {

$LN10:
  00000	4c 89 44 24 18	 mov	 QWORD PTR [rsp+24], r8
  00005	48 89 54 24 10	 mov	 QWORD PTR [rsp+16], rdx
  0000a	48 89 4c 24 08	 mov	 QWORD PTR [rsp+8], rcx
  0000f	55		 push	 rbp
  00010	57		 push	 rdi
  00011	48 81 ec 48 01
	00 00		 sub	 rsp, 328		; 00000148H
  00018	48 8d 6c 24 20	 lea	 rbp, QWORD PTR [rsp+32]
  0001d	48 8b fc	 mov	 rdi, rsp
  00020	b9 52 00 00 00	 mov	 ecx, 82			; 00000052H
  00025	b8 cc cc cc cc	 mov	 eax, -858993460		; ccccccccH
  0002a	f3 ab		 rep stosd
  0002c	48 8b 8c 24 68
	01 00 00	 mov	 rcx, QWORD PTR [rsp+360]
  00034	48 c7 85 08 01
	00 00 fe ff ff
	ff		 mov	 QWORD PTR $T6[rbp], -2
  0003f	48 8d 0d 00 00
	00 00		 lea	 rcx, OFFSET FLAT:__C21BA676_pmc_interface_csharp@cpp
  00046	e8 00 00 00 00	 call	 __CheckForDebuggerJustMyCode

; 792  :         if (w == nullptr)

  0004b	48 83 bd 50 01
	00 00 00	 cmp	 QWORD PTR w$[rbp], 0
  00053	75 07		 jne	 SHORT $LN2@PMCCS_Bitw

; 793  :             return (PMC_STATUS_ARGUMENT_NULL_ERROR);

  00055	b8 fe ff ff ff	 mov	 eax, -2
  0005a	eb 29		 jmp	 SHORT $LN1@PMCCS_Bitw
$LN2@PMCCS_Bitw:

; 794  :         try
; 795  :         {
; 796  :             *w = PMC_BitwiseAnd_L_X(u, v);

  0005c	48 8b 95 48 01
	00 00		 mov	 rdx, QWORD PTR v$[rbp]
  00063	48 8b 8d 40 01
	00 00		 mov	 rcx, QWORD PTR u$[rbp]
  0006a	e8 00 00 00 00	 call	 ?PMC_BitwiseAnd_L_X@Internal@Core@Math@Palmtree@@YA_K_KPEAU__tag_PMC_HANDLE_UINT@1234@@Z ; Palmtree::Math::Core::Internal::PMC_BitwiseAnd_L_X
  0006f	48 8b 8d 50 01
	00 00		 mov	 rcx, QWORD PTR w$[rbp]
  00076	48 89 01	 mov	 QWORD PTR [rcx], rax

; 797  :             return (PMC_STATUS_OK);

  00079	33 c0		 xor	 eax, eax
  0007b	eb 08		 jmp	 SHORT $LN1@PMCCS_Bitw
__tryend$PMCCS_BitwiseAnd_L_X$1:
  0007d	eb 06		 jmp	 SHORT $LN1@PMCCS_Bitw
$LN8@PMCCS_Bitw:

; 798  :         }
; 799  :         catch (const Palmtree::Math::Core::Internal::Exception& ex)
; 800  :         {
; 801  :             return (ex.GetStatusCode());

  0007f	8b 85 e4 00 00
	00		 mov	 eax, DWORD PTR $T5[rbp]
$LN1@PMCCS_Bitw:

; 802  :         }
; 803  :     }

  00085	48 8b f8	 mov	 rdi, rax
  00088	48 8d 4d e0	 lea	 rcx, QWORD PTR [rbp-32]
  0008c	48 8d 15 00 00
	00 00		 lea	 rdx, OFFSET FLAT:PMCCS_BitwiseAnd_L_X$rtcFrameData
  00093	e8 00 00 00 00	 call	 _RTC_CheckStackVars
  00098	48 8b c7	 mov	 rax, rdi
  0009b	48 8d a5 28 01
	00 00		 lea	 rsp, QWORD PTR [rbp+296]
  000a2	5f		 pop	 rdi
  000a3	5d		 pop	 rbp
  000a4	c3		 ret	 0
  000a5	cc		 int	 3
PMCCS_BitwiseAnd_L_X ENDP
_TEXT	ENDS
;	COMDAT text$x
text$x	SEGMENT
ex$4 = 8
$T5 = 228
$T6 = 264
u$ = 320
v$ = 328
w$ = 336
PMCCS_BitwiseAnd_L_X$catch$0 PROC

; 798  :         }
; 799  :         catch (const Palmtree::Math::Core::Internal::Exception& ex)
; 800  :         {

  00000	48 89 4c 24 08	 mov	 QWORD PTR [rsp+8], rcx
  00005	48 89 54 24 10	 mov	 QWORD PTR [rsp+16], rdx
  0000a	55		 push	 rbp
  0000b	57		 push	 rdi
  0000c	48 83 ec 28	 sub	 rsp, 40			; 00000028H
  00010	48 8d 6a 20	 lea	 rbp, QWORD PTR [rdx+32]
__catch$PMCCS_BitwiseAnd_L_X$0:

; 798  :         }
; 799  :         catch (const Palmtree::Math::Core::Internal::Exception& ex)
; 800  :         {
; 801  :             return (ex.GetStatusCode());

  00014	48 8b 4d 08	 mov	 rcx, QWORD PTR ex$4[rbp]
  00018	e8 00 00 00 00	 call	 ?GetStatusCode@Exception@Internal@Core@Math@Palmtree@@QEBAHXZ ; Palmtree::Math::Core::Internal::Exception::GetStatusCode
  0001d	89 85 e4 00 00
	00		 mov	 DWORD PTR $T5[rbp], eax
  00023	48 8d 05 00 00
	00 00		 lea	 rax, $LN8@PMCCS_Bitw
  0002a	eb 07		 jmp	 SHORT $LN9@PMCCS_Bitw

; 802  :         }

  0002c	48 8d 05 00 00
	00 00		 lea	 rax, __tryend$PMCCS_BitwiseAnd_L_X$1
$LN9@PMCCS_Bitw:
  00033	48 83 c4 28	 add	 rsp, 40			; 00000028H
  00037	5f		 pop	 rdi
  00038	5d		 pop	 rbp
  00039	c3		 ret	 0
  0003a	cc		 int	 3
PMCCS_BitwiseAnd_L_X$catch$0 ENDP
text$x	ENDS
; Function compile flags: /Odtp /RTCsu /ZI
;	COMDAT text$x
text$x	SEGMENT
ex$4 = 8
$T5 = 228
$T6 = 264
u$ = 320
v$ = 328
w$ = 336
PMCCS_BitwiseAnd_L_X$catch$0 PROC

; 800  :         {

  00000	48 89 4c 24 08	 mov	 QWORD PTR [rsp+8], rcx
  00005	48 89 54 24 10	 mov	 QWORD PTR [rsp+16], rdx
  0000a	55		 push	 rbp
  0000b	57		 push	 rdi
  0000c	48 83 ec 28	 sub	 rsp, 40			; 00000028H
  00010	48 8d 6a 20	 lea	 rbp, QWORD PTR [rdx+32]
__catch$PMCCS_BitwiseAnd_L_X$0:

; 801  :             return (ex.GetStatusCode());

  00014	48 8b 4d 08	 mov	 rcx, QWORD PTR ex$4[rbp]
  00018	e8 00 00 00 00	 call	 ?GetStatusCode@Exception@Internal@Core@Math@Palmtree@@QEBAHXZ ; Palmtree::Math::Core::Internal::Exception::GetStatusCode
  0001d	89 85 e4 00 00
	00		 mov	 DWORD PTR $T5[rbp], eax
  00023	48 8d 05 00 00
	00 00		 lea	 rax, $LN8@PMCCS_Bitw
  0002a	eb 07		 jmp	 SHORT $LN9@PMCCS_Bitw

; 802  :         }

  0002c	48 8d 05 00 00
	00 00		 lea	 rax, __tryend$PMCCS_BitwiseAnd_L_X$1
$LN9@PMCCS_Bitw:
  00033	48 83 c4 28	 add	 rsp, 40			; 00000028H
  00037	5f		 pop	 rdi
  00038	5d		 pop	 rbp
  00039	c3		 ret	 0
  0003a	cc		 int	 3
PMCCS_BitwiseAnd_L_X$catch$0 ENDP
text$x	ENDS
; Function compile flags: /Odtp /RTCsu /ZI
; File z:\sources\lunor\repos\rougemeilland\palmtree.math.core.uint\palmtree.math.core.uint\pmc_interface_csharp.cpp
;	COMDAT PMCCS_BitwiseAnd_I_X
_TEXT	SEGMENT
ex$4 = 8
$T5 = 228
$T6 = 264
u$ = 320
v$ = 328
w$ = 336
PMCCS_BitwiseAnd_I_X PROC				; COMDAT

; 776  :     {

$LN10:
  00000	4c 89 44 24 18	 mov	 QWORD PTR [rsp+24], r8
  00005	48 89 54 24 10	 mov	 QWORD PTR [rsp+16], rdx
  0000a	89 4c 24 08	 mov	 DWORD PTR [rsp+8], ecx
  0000e	55		 push	 rbp
  0000f	57		 push	 rdi
  00010	48 81 ec 48 01
	00 00		 sub	 rsp, 328		; 00000148H
  00017	48 8d 6c 24 20	 lea	 rbp, QWORD PTR [rsp+32]
  0001c	48 8b fc	 mov	 rdi, rsp
  0001f	b9 52 00 00 00	 mov	 ecx, 82			; 00000052H
  00024	b8 cc cc cc cc	 mov	 eax, -858993460		; ccccccccH
  00029	f3 ab		 rep stosd
  0002b	8b 8c 24 68 01
	00 00		 mov	 ecx, DWORD PTR [rsp+360]
  00032	48 c7 85 08 01
	00 00 fe ff ff
	ff		 mov	 QWORD PTR $T6[rbp], -2
  0003d	48 8d 0d 00 00
	00 00		 lea	 rcx, OFFSET FLAT:__C21BA676_pmc_interface_csharp@cpp
  00044	e8 00 00 00 00	 call	 __CheckForDebuggerJustMyCode

; 777  :         if (w == nullptr)

  00049	48 83 bd 50 01
	00 00 00	 cmp	 QWORD PTR w$[rbp], 0
  00051	75 07		 jne	 SHORT $LN2@PMCCS_Bitw

; 778  :             return (PMC_STATUS_ARGUMENT_NULL_ERROR);

  00053	b8 fe ff ff ff	 mov	 eax, -2
  00058	eb 27		 jmp	 SHORT $LN1@PMCCS_Bitw
$LN2@PMCCS_Bitw:

; 779  :         try
; 780  :         {
; 781  :             *w = PMC_BitwiseAnd_I_X(u, v);

  0005a	48 8b 95 48 01
	00 00		 mov	 rdx, QWORD PTR v$[rbp]
  00061	8b 8d 40 01 00
	00		 mov	 ecx, DWORD PTR u$[rbp]
  00067	e8 00 00 00 00	 call	 ?PMC_BitwiseAnd_I_X@Internal@Core@Math@Palmtree@@YAIIPEAU__tag_PMC_HANDLE_UINT@1234@@Z ; Palmtree::Math::Core::Internal::PMC_BitwiseAnd_I_X
  0006c	48 8b 8d 50 01
	00 00		 mov	 rcx, QWORD PTR w$[rbp]
  00073	89 01		 mov	 DWORD PTR [rcx], eax

; 782  :             return (PMC_STATUS_OK);

  00075	33 c0		 xor	 eax, eax
  00077	eb 08		 jmp	 SHORT $LN1@PMCCS_Bitw
__tryend$PMCCS_BitwiseAnd_I_X$1:
  00079	eb 06		 jmp	 SHORT $LN1@PMCCS_Bitw
$LN8@PMCCS_Bitw:

; 783  :         }
; 784  :         catch (const Palmtree::Math::Core::Internal::Exception& ex)
; 785  :         {
; 786  :             return (ex.GetStatusCode());

  0007b	8b 85 e4 00 00
	00		 mov	 eax, DWORD PTR $T5[rbp]
$LN1@PMCCS_Bitw:

; 787  :         }
; 788  :     }

  00081	48 8b f8	 mov	 rdi, rax
  00084	48 8d 4d e0	 lea	 rcx, QWORD PTR [rbp-32]
  00088	48 8d 15 00 00
	00 00		 lea	 rdx, OFFSET FLAT:PMCCS_BitwiseAnd_I_X$rtcFrameData
  0008f	e8 00 00 00 00	 call	 _RTC_CheckStackVars
  00094	48 8b c7	 mov	 rax, rdi
  00097	48 8d a5 28 01
	00 00		 lea	 rsp, QWORD PTR [rbp+296]
  0009e	5f		 pop	 rdi
  0009f	5d		 pop	 rbp
  000a0	c3		 ret	 0
  000a1	cc		 int	 3
PMCCS_BitwiseAnd_I_X ENDP
_TEXT	ENDS
;	COMDAT text$x
text$x	SEGMENT
ex$4 = 8
$T5 = 228
$T6 = 264
u$ = 320
v$ = 328
w$ = 336
PMCCS_BitwiseAnd_I_X$catch$0 PROC

; 783  :         }
; 784  :         catch (const Palmtree::Math::Core::Internal::Exception& ex)
; 785  :         {

  00000	48 89 4c 24 08	 mov	 QWORD PTR [rsp+8], rcx
  00005	48 89 54 24 10	 mov	 QWORD PTR [rsp+16], rdx
  0000a	55		 push	 rbp
  0000b	57		 push	 rdi
  0000c	48 83 ec 28	 sub	 rsp, 40			; 00000028H
  00010	48 8d 6a 20	 lea	 rbp, QWORD PTR [rdx+32]
__catch$PMCCS_BitwiseAnd_I_X$0:

; 783  :         }
; 784  :         catch (const Palmtree::Math::Core::Internal::Exception& ex)
; 785  :         {
; 786  :             return (ex.GetStatusCode());

  00014	48 8b 4d 08	 mov	 rcx, QWORD PTR ex$4[rbp]
  00018	e8 00 00 00 00	 call	 ?GetStatusCode@Exception@Internal@Core@Math@Palmtree@@QEBAHXZ ; Palmtree::Math::Core::Internal::Exception::GetStatusCode
  0001d	89 85 e4 00 00
	00		 mov	 DWORD PTR $T5[rbp], eax
  00023	48 8d 05 00 00
	00 00		 lea	 rax, $LN8@PMCCS_Bitw
  0002a	eb 07		 jmp	 SHORT $LN9@PMCCS_Bitw

; 787  :         }

  0002c	48 8d 05 00 00
	00 00		 lea	 rax, __tryend$PMCCS_BitwiseAnd_I_X$1
$LN9@PMCCS_Bitw:
  00033	48 83 c4 28	 add	 rsp, 40			; 00000028H
  00037	5f		 pop	 rdi
  00038	5d		 pop	 rbp
  00039	c3		 ret	 0
  0003a	cc		 int	 3
PMCCS_BitwiseAnd_I_X$catch$0 ENDP
text$x	ENDS
; Function compile flags: /Odtp /RTCsu /ZI
;	COMDAT text$x
text$x	SEGMENT
ex$4 = 8
$T5 = 228
$T6 = 264
u$ = 320
v$ = 328
w$ = 336
PMCCS_BitwiseAnd_I_X$catch$0 PROC

; 785  :         {

  00000	48 89 4c 24 08	 mov	 QWORD PTR [rsp+8], rcx
  00005	48 89 54 24 10	 mov	 QWORD PTR [rsp+16], rdx
  0000a	55		 push	 rbp
  0000b	57		 push	 rdi
  0000c	48 83 ec 28	 sub	 rsp, 40			; 00000028H
  00010	48 8d 6a 20	 lea	 rbp, QWORD PTR [rdx+32]
__catch$PMCCS_BitwiseAnd_I_X$0:

; 786  :             return (ex.GetStatusCode());

  00014	48 8b 4d 08	 mov	 rcx, QWORD PTR ex$4[rbp]
  00018	e8 00 00 00 00	 call	 ?GetStatusCode@Exception@Internal@Core@Math@Palmtree@@QEBAHXZ ; Palmtree::Math::Core::Internal::Exception::GetStatusCode
  0001d	89 85 e4 00 00
	00		 mov	 DWORD PTR $T5[rbp], eax
  00023	48 8d 05 00 00
	00 00		 lea	 rax, $LN8@PMCCS_Bitw
  0002a	eb 07		 jmp	 SHORT $LN9@PMCCS_Bitw

; 787  :         }

  0002c	48 8d 05 00 00
	00 00		 lea	 rax, __tryend$PMCCS_BitwiseAnd_I_X$1
$LN9@PMCCS_Bitw:
  00033	48 83 c4 28	 add	 rsp, 40			; 00000028H
  00037	5f		 pop	 rdi
  00038	5d		 pop	 rbp
  00039	c3		 ret	 0
  0003a	cc		 int	 3
PMCCS_BitwiseAnd_I_X$catch$0 ENDP
text$x	ENDS
; Function compile flags: /Odtp /RTCsu /ZI
; File z:\sources\lunor\repos\rougemeilland\palmtree.math.core.uint\palmtree.math.core.uint\pmc_interface_csharp.cpp
;	COMDAT PMCCS_LeftShift_X_I
_TEXT	SEGMENT
ex$4 = 8
$T5 = 228
$T6 = 264
p$ = 320
n$ = 328
o$ = 336
PMCCS_LeftShift_X_I PROC				; COMDAT

; 761  :     {

$LN10:
  00000	4c 89 44 24 18	 mov	 QWORD PTR [rsp+24], r8
  00005	89 54 24 10	 mov	 DWORD PTR [rsp+16], edx
  00009	48 89 4c 24 08	 mov	 QWORD PTR [rsp+8], rcx
  0000e	55		 push	 rbp
  0000f	57		 push	 rdi
  00010	48 81 ec 48 01
	00 00		 sub	 rsp, 328		; 00000148H
  00017	48 8d 6c 24 20	 lea	 rbp, QWORD PTR [rsp+32]
  0001c	48 8b fc	 mov	 rdi, rsp
  0001f	b9 52 00 00 00	 mov	 ecx, 82			; 00000052H
  00024	b8 cc cc cc cc	 mov	 eax, -858993460		; ccccccccH
  00029	f3 ab		 rep stosd
  0002b	48 8b 8c 24 68
	01 00 00	 mov	 rcx, QWORD PTR [rsp+360]
  00033	48 c7 85 08 01
	00 00 fe ff ff
	ff		 mov	 QWORD PTR $T6[rbp], -2
  0003e	48 8d 0d 00 00
	00 00		 lea	 rcx, OFFSET FLAT:__C21BA676_pmc_interface_csharp@cpp
  00045	e8 00 00 00 00	 call	 __CheckForDebuggerJustMyCode

; 762  :         if (o == nullptr)

  0004a	48 83 bd 50 01
	00 00 00	 cmp	 QWORD PTR o$[rbp], 0
  00052	75 07		 jne	 SHORT $LN2@PMCCS_Left

; 763  :             return (PMC_STATUS_ARGUMENT_NULL_ERROR);

  00054	b8 fe ff ff ff	 mov	 eax, -2
  00059	eb 28		 jmp	 SHORT $LN1@PMCCS_Left
$LN2@PMCCS_Left:

; 764  :         try
; 765  :         {
; 766  :             *o = PMC_LeftShift_X_I(p, n);

  0005b	8b 95 48 01 00
	00		 mov	 edx, DWORD PTR n$[rbp]
  00061	48 8b 8d 40 01
	00 00		 mov	 rcx, QWORD PTR p$[rbp]
  00068	e8 00 00 00 00	 call	 ?PMC_LeftShift_X_I@Internal@Core@Math@Palmtree@@YAPEAU__tag_PMC_HANDLE_UINT@1234@PEAU51234@H@Z ; Palmtree::Math::Core::Internal::PMC_LeftShift_X_I
  0006d	48 8b 8d 50 01
	00 00		 mov	 rcx, QWORD PTR o$[rbp]
  00074	48 89 01	 mov	 QWORD PTR [rcx], rax

; 767  :             return (PMC_STATUS_OK);

  00077	33 c0		 xor	 eax, eax
  00079	eb 08		 jmp	 SHORT $LN1@PMCCS_Left
__tryend$PMCCS_LeftShift_X_I$1:
  0007b	eb 06		 jmp	 SHORT $LN1@PMCCS_Left
$LN8@PMCCS_Left:

; 768  :         }
; 769  :         catch (const Palmtree::Math::Core::Internal::Exception& ex)
; 770  :         {
; 771  :             return (ex.GetStatusCode());

  0007d	8b 85 e4 00 00
	00		 mov	 eax, DWORD PTR $T5[rbp]
$LN1@PMCCS_Left:

; 772  :         }
; 773  :     }

  00083	48 8b f8	 mov	 rdi, rax
  00086	48 8d 4d e0	 lea	 rcx, QWORD PTR [rbp-32]
  0008a	48 8d 15 00 00
	00 00		 lea	 rdx, OFFSET FLAT:PMCCS_LeftShift_X_I$rtcFrameData
  00091	e8 00 00 00 00	 call	 _RTC_CheckStackVars
  00096	48 8b c7	 mov	 rax, rdi
  00099	48 8d a5 28 01
	00 00		 lea	 rsp, QWORD PTR [rbp+296]
  000a0	5f		 pop	 rdi
  000a1	5d		 pop	 rbp
  000a2	c3		 ret	 0
  000a3	cc		 int	 3
PMCCS_LeftShift_X_I ENDP
_TEXT	ENDS
;	COMDAT text$x
text$x	SEGMENT
ex$4 = 8
$T5 = 228
$T6 = 264
p$ = 320
n$ = 328
o$ = 336
PMCCS_LeftShift_X_I$catch$0 PROC

; 768  :         }
; 769  :         catch (const Palmtree::Math::Core::Internal::Exception& ex)
; 770  :         {

  00000	48 89 4c 24 08	 mov	 QWORD PTR [rsp+8], rcx
  00005	48 89 54 24 10	 mov	 QWORD PTR [rsp+16], rdx
  0000a	55		 push	 rbp
  0000b	57		 push	 rdi
  0000c	48 83 ec 28	 sub	 rsp, 40			; 00000028H
  00010	48 8d 6a 20	 lea	 rbp, QWORD PTR [rdx+32]
__catch$PMCCS_LeftShift_X_I$0:

; 768  :         }
; 769  :         catch (const Palmtree::Math::Core::Internal::Exception& ex)
; 770  :         {
; 771  :             return (ex.GetStatusCode());

  00014	48 8b 4d 08	 mov	 rcx, QWORD PTR ex$4[rbp]
  00018	e8 00 00 00 00	 call	 ?GetStatusCode@Exception@Internal@Core@Math@Palmtree@@QEBAHXZ ; Palmtree::Math::Core::Internal::Exception::GetStatusCode
  0001d	89 85 e4 00 00
	00		 mov	 DWORD PTR $T5[rbp], eax
  00023	48 8d 05 00 00
	00 00		 lea	 rax, $LN8@PMCCS_Left
  0002a	eb 07		 jmp	 SHORT $LN9@PMCCS_Left

; 772  :         }

  0002c	48 8d 05 00 00
	00 00		 lea	 rax, __tryend$PMCCS_LeftShift_X_I$1
$LN9@PMCCS_Left:
  00033	48 83 c4 28	 add	 rsp, 40			; 00000028H
  00037	5f		 pop	 rdi
  00038	5d		 pop	 rbp
  00039	c3		 ret	 0
  0003a	cc		 int	 3
PMCCS_LeftShift_X_I$catch$0 ENDP
text$x	ENDS
; Function compile flags: /Odtp /RTCsu /ZI
;	COMDAT text$x
text$x	SEGMENT
ex$4 = 8
$T5 = 228
$T6 = 264
p$ = 320
n$ = 328
o$ = 336
PMCCS_LeftShift_X_I$catch$0 PROC

; 770  :         {

  00000	48 89 4c 24 08	 mov	 QWORD PTR [rsp+8], rcx
  00005	48 89 54 24 10	 mov	 QWORD PTR [rsp+16], rdx
  0000a	55		 push	 rbp
  0000b	57		 push	 rdi
  0000c	48 83 ec 28	 sub	 rsp, 40			; 00000028H
  00010	48 8d 6a 20	 lea	 rbp, QWORD PTR [rdx+32]
__catch$PMCCS_LeftShift_X_I$0:

; 771  :             return (ex.GetStatusCode());

  00014	48 8b 4d 08	 mov	 rcx, QWORD PTR ex$4[rbp]
  00018	e8 00 00 00 00	 call	 ?GetStatusCode@Exception@Internal@Core@Math@Palmtree@@QEBAHXZ ; Palmtree::Math::Core::Internal::Exception::GetStatusCode
  0001d	89 85 e4 00 00
	00		 mov	 DWORD PTR $T5[rbp], eax
  00023	48 8d 05 00 00
	00 00		 lea	 rax, $LN8@PMCCS_Left
  0002a	eb 07		 jmp	 SHORT $LN9@PMCCS_Left

; 772  :         }

  0002c	48 8d 05 00 00
	00 00		 lea	 rax, __tryend$PMCCS_LeftShift_X_I$1
$LN9@PMCCS_Left:
  00033	48 83 c4 28	 add	 rsp, 40			; 00000028H
  00037	5f		 pop	 rdi
  00038	5d		 pop	 rbp
  00039	c3		 ret	 0
  0003a	cc		 int	 3
PMCCS_LeftShift_X_I$catch$0 ENDP
text$x	ENDS
; Function compile flags: /Odtp /RTCsu /ZI
; File z:\sources\lunor\repos\rougemeilland\palmtree.math.core.uint\palmtree.math.core.uint\pmc_interface_csharp.cpp
;	COMDAT PMCCS_RightShift_X_I
_TEXT	SEGMENT
ex$4 = 8
$T5 = 228
$T6 = 264
p$ = 320
n$ = 328
o$ = 336
PMCCS_RightShift_X_I PROC				; COMDAT

; 746  :     {

$LN10:
  00000	4c 89 44 24 18	 mov	 QWORD PTR [rsp+24], r8
  00005	89 54 24 10	 mov	 DWORD PTR [rsp+16], edx
  00009	48 89 4c 24 08	 mov	 QWORD PTR [rsp+8], rcx
  0000e	55		 push	 rbp
  0000f	57		 push	 rdi
  00010	48 81 ec 48 01
	00 00		 sub	 rsp, 328		; 00000148H
  00017	48 8d 6c 24 20	 lea	 rbp, QWORD PTR [rsp+32]
  0001c	48 8b fc	 mov	 rdi, rsp
  0001f	b9 52 00 00 00	 mov	 ecx, 82			; 00000052H
  00024	b8 cc cc cc cc	 mov	 eax, -858993460		; ccccccccH
  00029	f3 ab		 rep stosd
  0002b	48 8b 8c 24 68
	01 00 00	 mov	 rcx, QWORD PTR [rsp+360]
  00033	48 c7 85 08 01
	00 00 fe ff ff
	ff		 mov	 QWORD PTR $T6[rbp], -2
  0003e	48 8d 0d 00 00
	00 00		 lea	 rcx, OFFSET FLAT:__C21BA676_pmc_interface_csharp@cpp
  00045	e8 00 00 00 00	 call	 __CheckForDebuggerJustMyCode

; 747  :         if (o == nullptr)

  0004a	48 83 bd 50 01
	00 00 00	 cmp	 QWORD PTR o$[rbp], 0
  00052	75 07		 jne	 SHORT $LN2@PMCCS_Righ

; 748  :             return (PMC_STATUS_ARGUMENT_NULL_ERROR);

  00054	b8 fe ff ff ff	 mov	 eax, -2
  00059	eb 28		 jmp	 SHORT $LN1@PMCCS_Righ
$LN2@PMCCS_Righ:

; 749  :         try
; 750  :         {
; 751  :             *o = PMC_RightShift_X_I(p, n);

  0005b	8b 95 48 01 00
	00		 mov	 edx, DWORD PTR n$[rbp]
  00061	48 8b 8d 40 01
	00 00		 mov	 rcx, QWORD PTR p$[rbp]
  00068	e8 00 00 00 00	 call	 ?PMC_RightShift_X_I@Internal@Core@Math@Palmtree@@YAPEAU__tag_PMC_HANDLE_UINT@1234@PEAU51234@H@Z ; Palmtree::Math::Core::Internal::PMC_RightShift_X_I
  0006d	48 8b 8d 50 01
	00 00		 mov	 rcx, QWORD PTR o$[rbp]
  00074	48 89 01	 mov	 QWORD PTR [rcx], rax

; 752  :             return (PMC_STATUS_OK);

  00077	33 c0		 xor	 eax, eax
  00079	eb 08		 jmp	 SHORT $LN1@PMCCS_Righ
__tryend$PMCCS_RightShift_X_I$1:
  0007b	eb 06		 jmp	 SHORT $LN1@PMCCS_Righ
$LN8@PMCCS_Righ:

; 753  :         }
; 754  :         catch (const Palmtree::Math::Core::Internal::Exception& ex)
; 755  :         {
; 756  :             return (ex.GetStatusCode());

  0007d	8b 85 e4 00 00
	00		 mov	 eax, DWORD PTR $T5[rbp]
$LN1@PMCCS_Righ:

; 757  :         }
; 758  :     }

  00083	48 8b f8	 mov	 rdi, rax
  00086	48 8d 4d e0	 lea	 rcx, QWORD PTR [rbp-32]
  0008a	48 8d 15 00 00
	00 00		 lea	 rdx, OFFSET FLAT:PMCCS_RightShift_X_I$rtcFrameData
  00091	e8 00 00 00 00	 call	 _RTC_CheckStackVars
  00096	48 8b c7	 mov	 rax, rdi
  00099	48 8d a5 28 01
	00 00		 lea	 rsp, QWORD PTR [rbp+296]
  000a0	5f		 pop	 rdi
  000a1	5d		 pop	 rbp
  000a2	c3		 ret	 0
  000a3	cc		 int	 3
PMCCS_RightShift_X_I ENDP
_TEXT	ENDS
;	COMDAT text$x
text$x	SEGMENT
ex$4 = 8
$T5 = 228
$T6 = 264
p$ = 320
n$ = 328
o$ = 336
PMCCS_RightShift_X_I$catch$0 PROC

; 753  :         }
; 754  :         catch (const Palmtree::Math::Core::Internal::Exception& ex)
; 755  :         {

  00000	48 89 4c 24 08	 mov	 QWORD PTR [rsp+8], rcx
  00005	48 89 54 24 10	 mov	 QWORD PTR [rsp+16], rdx
  0000a	55		 push	 rbp
  0000b	57		 push	 rdi
  0000c	48 83 ec 28	 sub	 rsp, 40			; 00000028H
  00010	48 8d 6a 20	 lea	 rbp, QWORD PTR [rdx+32]
__catch$PMCCS_RightShift_X_I$0:

; 753  :         }
; 754  :         catch (const Palmtree::Math::Core::Internal::Exception& ex)
; 755  :         {
; 756  :             return (ex.GetStatusCode());

  00014	48 8b 4d 08	 mov	 rcx, QWORD PTR ex$4[rbp]
  00018	e8 00 00 00 00	 call	 ?GetStatusCode@Exception@Internal@Core@Math@Palmtree@@QEBAHXZ ; Palmtree::Math::Core::Internal::Exception::GetStatusCode
  0001d	89 85 e4 00 00
	00		 mov	 DWORD PTR $T5[rbp], eax
  00023	48 8d 05 00 00
	00 00		 lea	 rax, $LN8@PMCCS_Righ
  0002a	eb 07		 jmp	 SHORT $LN9@PMCCS_Righ

; 757  :         }

  0002c	48 8d 05 00 00
	00 00		 lea	 rax, __tryend$PMCCS_RightShift_X_I$1
$LN9@PMCCS_Righ:
  00033	48 83 c4 28	 add	 rsp, 40			; 00000028H
  00037	5f		 pop	 rdi
  00038	5d		 pop	 rbp
  00039	c3		 ret	 0
  0003a	cc		 int	 3
PMCCS_RightShift_X_I$catch$0 ENDP
text$x	ENDS
; Function compile flags: /Odtp /RTCsu /ZI
;	COMDAT text$x
text$x	SEGMENT
ex$4 = 8
$T5 = 228
$T6 = 264
p$ = 320
n$ = 328
o$ = 336
PMCCS_RightShift_X_I$catch$0 PROC

; 755  :         {

  00000	48 89 4c 24 08	 mov	 QWORD PTR [rsp+8], rcx
  00005	48 89 54 24 10	 mov	 QWORD PTR [rsp+16], rdx
  0000a	55		 push	 rbp
  0000b	57		 push	 rdi
  0000c	48 83 ec 28	 sub	 rsp, 40			; 00000028H
  00010	48 8d 6a 20	 lea	 rbp, QWORD PTR [rdx+32]
__catch$PMCCS_RightShift_X_I$0:

; 756  :             return (ex.GetStatusCode());

  00014	48 8b 4d 08	 mov	 rcx, QWORD PTR ex$4[rbp]
  00018	e8 00 00 00 00	 call	 ?GetStatusCode@Exception@Internal@Core@Math@Palmtree@@QEBAHXZ ; Palmtree::Math::Core::Internal::Exception::GetStatusCode
  0001d	89 85 e4 00 00
	00		 mov	 DWORD PTR $T5[rbp], eax
  00023	48 8d 05 00 00
	00 00		 lea	 rax, $LN8@PMCCS_Righ
  0002a	eb 07		 jmp	 SHORT $LN9@PMCCS_Righ

; 757  :         }

  0002c	48 8d 05 00 00
	00 00		 lea	 rax, __tryend$PMCCS_RightShift_X_I$1
$LN9@PMCCS_Righ:
  00033	48 83 c4 28	 add	 rsp, 40			; 00000028H
  00037	5f		 pop	 rdi
  00038	5d		 pop	 rbp
  00039	c3		 ret	 0
  0003a	cc		 int	 3
PMCCS_RightShift_X_I$catch$0 ENDP
text$x	ENDS
; Function compile flags: /Odtp /RTCsu /ZI
; File z:\sources\lunor\repos\rougemeilland\palmtree.math.core.uint\palmtree.math.core.uint\pmc_interface_csharp.cpp
;	COMDAT PMCCS_Remainder_X_X
_TEXT	SEGMENT
ex$4 = 8
$T5 = 228
$T6 = 264
u$ = 320
v$ = 328
r$ = 336
PMCCS_Remainder_X_X PROC				; COMDAT

; 731  :     {

$LN10:
  00000	4c 89 44 24 18	 mov	 QWORD PTR [rsp+24], r8
  00005	48 89 54 24 10	 mov	 QWORD PTR [rsp+16], rdx
  0000a	48 89 4c 24 08	 mov	 QWORD PTR [rsp+8], rcx
  0000f	55		 push	 rbp
  00010	57		 push	 rdi
  00011	48 81 ec 48 01
	00 00		 sub	 rsp, 328		; 00000148H
  00018	48 8d 6c 24 20	 lea	 rbp, QWORD PTR [rsp+32]
  0001d	48 8b fc	 mov	 rdi, rsp
  00020	b9 52 00 00 00	 mov	 ecx, 82			; 00000052H
  00025	b8 cc cc cc cc	 mov	 eax, -858993460		; ccccccccH
  0002a	f3 ab		 rep stosd
  0002c	48 8b 8c 24 68
	01 00 00	 mov	 rcx, QWORD PTR [rsp+360]
  00034	48 c7 85 08 01
	00 00 fe ff ff
	ff		 mov	 QWORD PTR $T6[rbp], -2
  0003f	48 8d 0d 00 00
	00 00		 lea	 rcx, OFFSET FLAT:__C21BA676_pmc_interface_csharp@cpp
  00046	e8 00 00 00 00	 call	 __CheckForDebuggerJustMyCode

; 732  :         if (r == nullptr)

  0004b	48 83 bd 50 01
	00 00 00	 cmp	 QWORD PTR r$[rbp], 0
  00053	75 07		 jne	 SHORT $LN2@PMCCS_Rema

; 733  :             return (PMC_STATUS_ARGUMENT_NULL_ERROR);

  00055	b8 fe ff ff ff	 mov	 eax, -2
  0005a	eb 2c		 jmp	 SHORT $LN1@PMCCS_Rema
$LN2@PMCCS_Rema:

; 734  :         try
; 735  :         {
; 736  :             *r = PMC_DivRem_X_X(u, v, nullptr);

  0005c	45 33 c0	 xor	 r8d, r8d
  0005f	48 8b 95 48 01
	00 00		 mov	 rdx, QWORD PTR v$[rbp]
  00066	48 8b 8d 40 01
	00 00		 mov	 rcx, QWORD PTR u$[rbp]
  0006d	e8 00 00 00 00	 call	 ?PMC_DivRem_X_X@Internal@Core@Math@Palmtree@@YAPEAU__tag_PMC_HANDLE_UINT@1234@PEAU51234@0PEAPEAU51234@@Z ; Palmtree::Math::Core::Internal::PMC_DivRem_X_X
  00072	48 8b 8d 50 01
	00 00		 mov	 rcx, QWORD PTR r$[rbp]
  00079	48 89 01	 mov	 QWORD PTR [rcx], rax

; 737  :             return (PMC_STATUS_OK);

  0007c	33 c0		 xor	 eax, eax
  0007e	eb 08		 jmp	 SHORT $LN1@PMCCS_Rema
__tryend$PMCCS_Remainder_X_X$1:
  00080	eb 06		 jmp	 SHORT $LN1@PMCCS_Rema
$LN8@PMCCS_Rema:

; 738  :         }
; 739  :         catch (const Palmtree::Math::Core::Internal::Exception& ex)
; 740  :         {
; 741  :             return (ex.GetStatusCode());

  00082	8b 85 e4 00 00
	00		 mov	 eax, DWORD PTR $T5[rbp]
$LN1@PMCCS_Rema:

; 742  :         }
; 743  :     }

  00088	48 8b f8	 mov	 rdi, rax
  0008b	48 8d 4d e0	 lea	 rcx, QWORD PTR [rbp-32]
  0008f	48 8d 15 00 00
	00 00		 lea	 rdx, OFFSET FLAT:PMCCS_Remainder_X_X$rtcFrameData
  00096	e8 00 00 00 00	 call	 _RTC_CheckStackVars
  0009b	48 8b c7	 mov	 rax, rdi
  0009e	48 8d a5 28 01
	00 00		 lea	 rsp, QWORD PTR [rbp+296]
  000a5	5f		 pop	 rdi
  000a6	5d		 pop	 rbp
  000a7	c3		 ret	 0
  000a8	cc		 int	 3
PMCCS_Remainder_X_X ENDP
_TEXT	ENDS
;	COMDAT text$x
text$x	SEGMENT
ex$4 = 8
$T5 = 228
$T6 = 264
u$ = 320
v$ = 328
r$ = 336
PMCCS_Remainder_X_X$catch$0 PROC

; 738  :         }
; 739  :         catch (const Palmtree::Math::Core::Internal::Exception& ex)
; 740  :         {

  00000	48 89 4c 24 08	 mov	 QWORD PTR [rsp+8], rcx
  00005	48 89 54 24 10	 mov	 QWORD PTR [rsp+16], rdx
  0000a	55		 push	 rbp
  0000b	57		 push	 rdi
  0000c	48 83 ec 28	 sub	 rsp, 40			; 00000028H
  00010	48 8d 6a 20	 lea	 rbp, QWORD PTR [rdx+32]
__catch$PMCCS_Remainder_X_X$0:

; 738  :         }
; 739  :         catch (const Palmtree::Math::Core::Internal::Exception& ex)
; 740  :         {
; 741  :             return (ex.GetStatusCode());

  00014	48 8b 4d 08	 mov	 rcx, QWORD PTR ex$4[rbp]
  00018	e8 00 00 00 00	 call	 ?GetStatusCode@Exception@Internal@Core@Math@Palmtree@@QEBAHXZ ; Palmtree::Math::Core::Internal::Exception::GetStatusCode
  0001d	89 85 e4 00 00
	00		 mov	 DWORD PTR $T5[rbp], eax
  00023	48 8d 05 00 00
	00 00		 lea	 rax, $LN8@PMCCS_Rema
  0002a	eb 07		 jmp	 SHORT $LN9@PMCCS_Rema

; 742  :         }

  0002c	48 8d 05 00 00
	00 00		 lea	 rax, __tryend$PMCCS_Remainder_X_X$1
$LN9@PMCCS_Rema:
  00033	48 83 c4 28	 add	 rsp, 40			; 00000028H
  00037	5f		 pop	 rdi
  00038	5d		 pop	 rbp
  00039	c3		 ret	 0
  0003a	cc		 int	 3
PMCCS_Remainder_X_X$catch$0 ENDP
text$x	ENDS
; Function compile flags: /Odtp /RTCsu /ZI
;	COMDAT text$x
text$x	SEGMENT
ex$4 = 8
$T5 = 228
$T6 = 264
u$ = 320
v$ = 328
r$ = 336
PMCCS_Remainder_X_X$catch$0 PROC

; 740  :         {

  00000	48 89 4c 24 08	 mov	 QWORD PTR [rsp+8], rcx
  00005	48 89 54 24 10	 mov	 QWORD PTR [rsp+16], rdx
  0000a	55		 push	 rbp
  0000b	57		 push	 rdi
  0000c	48 83 ec 28	 sub	 rsp, 40			; 00000028H
  00010	48 8d 6a 20	 lea	 rbp, QWORD PTR [rdx+32]
__catch$PMCCS_Remainder_X_X$0:

; 741  :             return (ex.GetStatusCode());

  00014	48 8b 4d 08	 mov	 rcx, QWORD PTR ex$4[rbp]
  00018	e8 00 00 00 00	 call	 ?GetStatusCode@Exception@Internal@Core@Math@Palmtree@@QEBAHXZ ; Palmtree::Math::Core::Internal::Exception::GetStatusCode
  0001d	89 85 e4 00 00
	00		 mov	 DWORD PTR $T5[rbp], eax
  00023	48 8d 05 00 00
	00 00		 lea	 rax, $LN8@PMCCS_Rema
  0002a	eb 07		 jmp	 SHORT $LN9@PMCCS_Rema

; 742  :         }

  0002c	48 8d 05 00 00
	00 00		 lea	 rax, __tryend$PMCCS_Remainder_X_X$1
$LN9@PMCCS_Rema:
  00033	48 83 c4 28	 add	 rsp, 40			; 00000028H
  00037	5f		 pop	 rdi
  00038	5d		 pop	 rbp
  00039	c3		 ret	 0
  0003a	cc		 int	 3
PMCCS_Remainder_X_X$catch$0 ENDP
text$x	ENDS
; Function compile flags: /Odtp /RTCsu /ZI
; File z:\sources\lunor\repos\rougemeilland\palmtree.math.core.uint\palmtree.math.core.uint\pmc_interface_csharp.cpp
;	COMDAT PMCCS_Remainder_X_L
_TEXT	SEGMENT
ex$4 = 8
$T5 = 228
$T6 = 264
u$ = 320
v$ = 328
r$ = 336
PMCCS_Remainder_X_L PROC				; COMDAT

; 716  :     {

$LN10:
  00000	4c 89 44 24 18	 mov	 QWORD PTR [rsp+24], r8
  00005	48 89 54 24 10	 mov	 QWORD PTR [rsp+16], rdx
  0000a	48 89 4c 24 08	 mov	 QWORD PTR [rsp+8], rcx
  0000f	55		 push	 rbp
  00010	57		 push	 rdi
  00011	48 81 ec 48 01
	00 00		 sub	 rsp, 328		; 00000148H
  00018	48 8d 6c 24 20	 lea	 rbp, QWORD PTR [rsp+32]
  0001d	48 8b fc	 mov	 rdi, rsp
  00020	b9 52 00 00 00	 mov	 ecx, 82			; 00000052H
  00025	b8 cc cc cc cc	 mov	 eax, -858993460		; ccccccccH
  0002a	f3 ab		 rep stosd
  0002c	48 8b 8c 24 68
	01 00 00	 mov	 rcx, QWORD PTR [rsp+360]
  00034	48 c7 85 08 01
	00 00 fe ff ff
	ff		 mov	 QWORD PTR $T6[rbp], -2
  0003f	48 8d 0d 00 00
	00 00		 lea	 rcx, OFFSET FLAT:__C21BA676_pmc_interface_csharp@cpp
  00046	e8 00 00 00 00	 call	 __CheckForDebuggerJustMyCode

; 717  :         if (r == nullptr)

  0004b	48 83 bd 50 01
	00 00 00	 cmp	 QWORD PTR r$[rbp], 0
  00053	75 07		 jne	 SHORT $LN2@PMCCS_Rema

; 718  :             return (PMC_STATUS_ARGUMENT_NULL_ERROR);

  00055	b8 fe ff ff ff	 mov	 eax, -2
  0005a	eb 2c		 jmp	 SHORT $LN1@PMCCS_Rema
$LN2@PMCCS_Rema:

; 719  :         try
; 720  :         {
; 721  :             *r = PMC_DivRem_X_L(u, v, nullptr);

  0005c	45 33 c0	 xor	 r8d, r8d
  0005f	48 8b 95 48 01
	00 00		 mov	 rdx, QWORD PTR v$[rbp]
  00066	48 8b 8d 40 01
	00 00		 mov	 rcx, QWORD PTR u$[rbp]
  0006d	e8 00 00 00 00	 call	 ?PMC_DivRem_X_L@Internal@Core@Math@Palmtree@@YA_KPEAU__tag_PMC_HANDLE_UINT@1234@_KPEAPEAU51234@@Z ; Palmtree::Math::Core::Internal::PMC_DivRem_X_L
  00072	48 8b 8d 50 01
	00 00		 mov	 rcx, QWORD PTR r$[rbp]
  00079	48 89 01	 mov	 QWORD PTR [rcx], rax

; 722  :             return (PMC_STATUS_OK);

  0007c	33 c0		 xor	 eax, eax
  0007e	eb 08		 jmp	 SHORT $LN1@PMCCS_Rema
__tryend$PMCCS_Remainder_X_L$1:
  00080	eb 06		 jmp	 SHORT $LN1@PMCCS_Rema
$LN8@PMCCS_Rema:

; 723  :         }
; 724  :         catch (const Palmtree::Math::Core::Internal::Exception& ex)
; 725  :         {
; 726  :             return (ex.GetStatusCode());

  00082	8b 85 e4 00 00
	00		 mov	 eax, DWORD PTR $T5[rbp]
$LN1@PMCCS_Rema:

; 727  :         }
; 728  :     }

  00088	48 8b f8	 mov	 rdi, rax
  0008b	48 8d 4d e0	 lea	 rcx, QWORD PTR [rbp-32]
  0008f	48 8d 15 00 00
	00 00		 lea	 rdx, OFFSET FLAT:PMCCS_Remainder_X_L$rtcFrameData
  00096	e8 00 00 00 00	 call	 _RTC_CheckStackVars
  0009b	48 8b c7	 mov	 rax, rdi
  0009e	48 8d a5 28 01
	00 00		 lea	 rsp, QWORD PTR [rbp+296]
  000a5	5f		 pop	 rdi
  000a6	5d		 pop	 rbp
  000a7	c3		 ret	 0
  000a8	cc		 int	 3
PMCCS_Remainder_X_L ENDP
_TEXT	ENDS
;	COMDAT text$x
text$x	SEGMENT
ex$4 = 8
$T5 = 228
$T6 = 264
u$ = 320
v$ = 328
r$ = 336
PMCCS_Remainder_X_L$catch$0 PROC

; 723  :         }
; 724  :         catch (const Palmtree::Math::Core::Internal::Exception& ex)
; 725  :         {

  00000	48 89 4c 24 08	 mov	 QWORD PTR [rsp+8], rcx
  00005	48 89 54 24 10	 mov	 QWORD PTR [rsp+16], rdx
  0000a	55		 push	 rbp
  0000b	57		 push	 rdi
  0000c	48 83 ec 28	 sub	 rsp, 40			; 00000028H
  00010	48 8d 6a 20	 lea	 rbp, QWORD PTR [rdx+32]
__catch$PMCCS_Remainder_X_L$0:

; 723  :         }
; 724  :         catch (const Palmtree::Math::Core::Internal::Exception& ex)
; 725  :         {
; 726  :             return (ex.GetStatusCode());

  00014	48 8b 4d 08	 mov	 rcx, QWORD PTR ex$4[rbp]
  00018	e8 00 00 00 00	 call	 ?GetStatusCode@Exception@Internal@Core@Math@Palmtree@@QEBAHXZ ; Palmtree::Math::Core::Internal::Exception::GetStatusCode
  0001d	89 85 e4 00 00
	00		 mov	 DWORD PTR $T5[rbp], eax
  00023	48 8d 05 00 00
	00 00		 lea	 rax, $LN8@PMCCS_Rema
  0002a	eb 07		 jmp	 SHORT $LN9@PMCCS_Rema

; 727  :         }

  0002c	48 8d 05 00 00
	00 00		 lea	 rax, __tryend$PMCCS_Remainder_X_L$1
$LN9@PMCCS_Rema:
  00033	48 83 c4 28	 add	 rsp, 40			; 00000028H
  00037	5f		 pop	 rdi
  00038	5d		 pop	 rbp
  00039	c3		 ret	 0
  0003a	cc		 int	 3
PMCCS_Remainder_X_L$catch$0 ENDP
text$x	ENDS
; Function compile flags: /Odtp /RTCsu /ZI
;	COMDAT text$x
text$x	SEGMENT
ex$4 = 8
$T5 = 228
$T6 = 264
u$ = 320
v$ = 328
r$ = 336
PMCCS_Remainder_X_L$catch$0 PROC

; 725  :         {

  00000	48 89 4c 24 08	 mov	 QWORD PTR [rsp+8], rcx
  00005	48 89 54 24 10	 mov	 QWORD PTR [rsp+16], rdx
  0000a	55		 push	 rbp
  0000b	57		 push	 rdi
  0000c	48 83 ec 28	 sub	 rsp, 40			; 00000028H
  00010	48 8d 6a 20	 lea	 rbp, QWORD PTR [rdx+32]
__catch$PMCCS_Remainder_X_L$0:

; 726  :             return (ex.GetStatusCode());

  00014	48 8b 4d 08	 mov	 rcx, QWORD PTR ex$4[rbp]
  00018	e8 00 00 00 00	 call	 ?GetStatusCode@Exception@Internal@Core@Math@Palmtree@@QEBAHXZ ; Palmtree::Math::Core::Internal::Exception::GetStatusCode
  0001d	89 85 e4 00 00
	00		 mov	 DWORD PTR $T5[rbp], eax
  00023	48 8d 05 00 00
	00 00		 lea	 rax, $LN8@PMCCS_Rema
  0002a	eb 07		 jmp	 SHORT $LN9@PMCCS_Rema

; 727  :         }

  0002c	48 8d 05 00 00
	00 00		 lea	 rax, __tryend$PMCCS_Remainder_X_L$1
$LN9@PMCCS_Rema:
  00033	48 83 c4 28	 add	 rsp, 40			; 00000028H
  00037	5f		 pop	 rdi
  00038	5d		 pop	 rbp
  00039	c3		 ret	 0
  0003a	cc		 int	 3
PMCCS_Remainder_X_L$catch$0 ENDP
text$x	ENDS
; Function compile flags: /Odtp /RTCsu /ZI
; File z:\sources\lunor\repos\rougemeilland\palmtree.math.core.uint\palmtree.math.core.uint\pmc_interface_csharp.cpp
;	COMDAT PMCCS_Remainder_X_I
_TEXT	SEGMENT
ex$4 = 8
$T5 = 228
$T6 = 264
u$ = 320
v$ = 328
r$ = 336
PMCCS_Remainder_X_I PROC				; COMDAT

; 701  :     {

$LN10:
  00000	4c 89 44 24 18	 mov	 QWORD PTR [rsp+24], r8
  00005	89 54 24 10	 mov	 DWORD PTR [rsp+16], edx
  00009	48 89 4c 24 08	 mov	 QWORD PTR [rsp+8], rcx
  0000e	55		 push	 rbp
  0000f	57		 push	 rdi
  00010	48 81 ec 48 01
	00 00		 sub	 rsp, 328		; 00000148H
  00017	48 8d 6c 24 20	 lea	 rbp, QWORD PTR [rsp+32]
  0001c	48 8b fc	 mov	 rdi, rsp
  0001f	b9 52 00 00 00	 mov	 ecx, 82			; 00000052H
  00024	b8 cc cc cc cc	 mov	 eax, -858993460		; ccccccccH
  00029	f3 ab		 rep stosd
  0002b	48 8b 8c 24 68
	01 00 00	 mov	 rcx, QWORD PTR [rsp+360]
  00033	48 c7 85 08 01
	00 00 fe ff ff
	ff		 mov	 QWORD PTR $T6[rbp], -2
  0003e	48 8d 0d 00 00
	00 00		 lea	 rcx, OFFSET FLAT:__C21BA676_pmc_interface_csharp@cpp
  00045	e8 00 00 00 00	 call	 __CheckForDebuggerJustMyCode

; 702  :         if (r == nullptr)

  0004a	48 83 bd 50 01
	00 00 00	 cmp	 QWORD PTR r$[rbp], 0
  00052	75 07		 jne	 SHORT $LN2@PMCCS_Rema

; 703  :             return (PMC_STATUS_ARGUMENT_NULL_ERROR);

  00054	b8 fe ff ff ff	 mov	 eax, -2
  00059	eb 2a		 jmp	 SHORT $LN1@PMCCS_Rema
$LN2@PMCCS_Rema:

; 704  :         try
; 705  :         {
; 706  :             *r = PMC_DivRem_X_I(u, v, nullptr);

  0005b	45 33 c0	 xor	 r8d, r8d
  0005e	8b 95 48 01 00
	00		 mov	 edx, DWORD PTR v$[rbp]
  00064	48 8b 8d 40 01
	00 00		 mov	 rcx, QWORD PTR u$[rbp]
  0006b	e8 00 00 00 00	 call	 ?PMC_DivRem_X_I@Internal@Core@Math@Palmtree@@YAIPEAU__tag_PMC_HANDLE_UINT@1234@IPEAPEAU51234@@Z ; Palmtree::Math::Core::Internal::PMC_DivRem_X_I
  00070	48 8b 8d 50 01
	00 00		 mov	 rcx, QWORD PTR r$[rbp]
  00077	89 01		 mov	 DWORD PTR [rcx], eax

; 707  :             return (PMC_STATUS_OK);

  00079	33 c0		 xor	 eax, eax
  0007b	eb 08		 jmp	 SHORT $LN1@PMCCS_Rema
__tryend$PMCCS_Remainder_X_I$1:
  0007d	eb 06		 jmp	 SHORT $LN1@PMCCS_Rema
$LN8@PMCCS_Rema:

; 708  :         }
; 709  :         catch (const Palmtree::Math::Core::Internal::Exception& ex)
; 710  :         {
; 711  :             return (ex.GetStatusCode());

  0007f	8b 85 e4 00 00
	00		 mov	 eax, DWORD PTR $T5[rbp]
$LN1@PMCCS_Rema:

; 712  :         }
; 713  :     }

  00085	48 8b f8	 mov	 rdi, rax
  00088	48 8d 4d e0	 lea	 rcx, QWORD PTR [rbp-32]
  0008c	48 8d 15 00 00
	00 00		 lea	 rdx, OFFSET FLAT:PMCCS_Remainder_X_I$rtcFrameData
  00093	e8 00 00 00 00	 call	 _RTC_CheckStackVars
  00098	48 8b c7	 mov	 rax, rdi
  0009b	48 8d a5 28 01
	00 00		 lea	 rsp, QWORD PTR [rbp+296]
  000a2	5f		 pop	 rdi
  000a3	5d		 pop	 rbp
  000a4	c3		 ret	 0
  000a5	cc		 int	 3
PMCCS_Remainder_X_I ENDP
_TEXT	ENDS
;	COMDAT text$x
text$x	SEGMENT
ex$4 = 8
$T5 = 228
$T6 = 264
u$ = 320
v$ = 328
r$ = 336
PMCCS_Remainder_X_I$catch$0 PROC

; 708  :         }
; 709  :         catch (const Palmtree::Math::Core::Internal::Exception& ex)
; 710  :         {

  00000	48 89 4c 24 08	 mov	 QWORD PTR [rsp+8], rcx
  00005	48 89 54 24 10	 mov	 QWORD PTR [rsp+16], rdx
  0000a	55		 push	 rbp
  0000b	57		 push	 rdi
  0000c	48 83 ec 28	 sub	 rsp, 40			; 00000028H
  00010	48 8d 6a 20	 lea	 rbp, QWORD PTR [rdx+32]
__catch$PMCCS_Remainder_X_I$0:

; 708  :         }
; 709  :         catch (const Palmtree::Math::Core::Internal::Exception& ex)
; 710  :         {
; 711  :             return (ex.GetStatusCode());

  00014	48 8b 4d 08	 mov	 rcx, QWORD PTR ex$4[rbp]
  00018	e8 00 00 00 00	 call	 ?GetStatusCode@Exception@Internal@Core@Math@Palmtree@@QEBAHXZ ; Palmtree::Math::Core::Internal::Exception::GetStatusCode
  0001d	89 85 e4 00 00
	00		 mov	 DWORD PTR $T5[rbp], eax
  00023	48 8d 05 00 00
	00 00		 lea	 rax, $LN8@PMCCS_Rema
  0002a	eb 07		 jmp	 SHORT $LN9@PMCCS_Rema

; 712  :         }

  0002c	48 8d 05 00 00
	00 00		 lea	 rax, __tryend$PMCCS_Remainder_X_I$1
$LN9@PMCCS_Rema:
  00033	48 83 c4 28	 add	 rsp, 40			; 00000028H
  00037	5f		 pop	 rdi
  00038	5d		 pop	 rbp
  00039	c3		 ret	 0
  0003a	cc		 int	 3
PMCCS_Remainder_X_I$catch$0 ENDP
text$x	ENDS
; Function compile flags: /Odtp /RTCsu /ZI
;	COMDAT text$x
text$x	SEGMENT
ex$4 = 8
$T5 = 228
$T6 = 264
u$ = 320
v$ = 328
r$ = 336
PMCCS_Remainder_X_I$catch$0 PROC

; 710  :         {

  00000	48 89 4c 24 08	 mov	 QWORD PTR [rsp+8], rcx
  00005	48 89 54 24 10	 mov	 QWORD PTR [rsp+16], rdx
  0000a	55		 push	 rbp
  0000b	57		 push	 rdi
  0000c	48 83 ec 28	 sub	 rsp, 40			; 00000028H
  00010	48 8d 6a 20	 lea	 rbp, QWORD PTR [rdx+32]
__catch$PMCCS_Remainder_X_I$0:

; 711  :             return (ex.GetStatusCode());

  00014	48 8b 4d 08	 mov	 rcx, QWORD PTR ex$4[rbp]
  00018	e8 00 00 00 00	 call	 ?GetStatusCode@Exception@Internal@Core@Math@Palmtree@@QEBAHXZ ; Palmtree::Math::Core::Internal::Exception::GetStatusCode
  0001d	89 85 e4 00 00
	00		 mov	 DWORD PTR $T5[rbp], eax
  00023	48 8d 05 00 00
	00 00		 lea	 rax, $LN8@PMCCS_Rema
  0002a	eb 07		 jmp	 SHORT $LN9@PMCCS_Rema

; 712  :         }

  0002c	48 8d 05 00 00
	00 00		 lea	 rax, __tryend$PMCCS_Remainder_X_I$1
$LN9@PMCCS_Rema:
  00033	48 83 c4 28	 add	 rsp, 40			; 00000028H
  00037	5f		 pop	 rdi
  00038	5d		 pop	 rbp
  00039	c3		 ret	 0
  0003a	cc		 int	 3
PMCCS_Remainder_X_I$catch$0 ENDP
text$x	ENDS
; Function compile flags: /Odtp /RTCsu /ZI
; File z:\sources\lunor\repos\rougemeilland\palmtree.math.core.uint\palmtree.math.core.uint\pmc_interface_csharp.cpp
;	COMDAT PMCCS_Remainder_L_X
_TEXT	SEGMENT
ex$4 = 8
$T5 = 228
$T6 = 264
u$ = 320
v$ = 328
r$ = 336
PMCCS_Remainder_L_X PROC				; COMDAT

; 686  :     {

$LN10:
  00000	4c 89 44 24 18	 mov	 QWORD PTR [rsp+24], r8
  00005	48 89 54 24 10	 mov	 QWORD PTR [rsp+16], rdx
  0000a	48 89 4c 24 08	 mov	 QWORD PTR [rsp+8], rcx
  0000f	55		 push	 rbp
  00010	57		 push	 rdi
  00011	48 81 ec 48 01
	00 00		 sub	 rsp, 328		; 00000148H
  00018	48 8d 6c 24 20	 lea	 rbp, QWORD PTR [rsp+32]
  0001d	48 8b fc	 mov	 rdi, rsp
  00020	b9 52 00 00 00	 mov	 ecx, 82			; 00000052H
  00025	b8 cc cc cc cc	 mov	 eax, -858993460		; ccccccccH
  0002a	f3 ab		 rep stosd
  0002c	48 8b 8c 24 68
	01 00 00	 mov	 rcx, QWORD PTR [rsp+360]
  00034	48 c7 85 08 01
	00 00 fe ff ff
	ff		 mov	 QWORD PTR $T6[rbp], -2
  0003f	48 8d 0d 00 00
	00 00		 lea	 rcx, OFFSET FLAT:__C21BA676_pmc_interface_csharp@cpp
  00046	e8 00 00 00 00	 call	 __CheckForDebuggerJustMyCode

; 687  :         if (r == nullptr)

  0004b	48 83 bd 50 01
	00 00 00	 cmp	 QWORD PTR r$[rbp], 0
  00053	75 07		 jne	 SHORT $LN2@PMCCS_Rema

; 688  :             return (PMC_STATUS_ARGUMENT_NULL_ERROR);

  00055	b8 fe ff ff ff	 mov	 eax, -2
  0005a	eb 2c		 jmp	 SHORT $LN1@PMCCS_Rema
$LN2@PMCCS_Rema:

; 689  :         try
; 690  :         {
; 691  :             *r = PMC_DivRem_L_X(u, v, nullptr);

  0005c	45 33 c0	 xor	 r8d, r8d
  0005f	48 8b 95 48 01
	00 00		 mov	 rdx, QWORD PTR v$[rbp]
  00066	48 8b 8d 40 01
	00 00		 mov	 rcx, QWORD PTR u$[rbp]
  0006d	e8 00 00 00 00	 call	 ?PMC_DivRem_L_X@Internal@Core@Math@Palmtree@@YA_K_KPEAU__tag_PMC_HANDLE_UINT@1234@PEA_K@Z ; Palmtree::Math::Core::Internal::PMC_DivRem_L_X
  00072	48 8b 8d 50 01
	00 00		 mov	 rcx, QWORD PTR r$[rbp]
  00079	48 89 01	 mov	 QWORD PTR [rcx], rax

; 692  :             return (PMC_STATUS_OK);

  0007c	33 c0		 xor	 eax, eax
  0007e	eb 08		 jmp	 SHORT $LN1@PMCCS_Rema
__tryend$PMCCS_Remainder_L_X$1:
  00080	eb 06		 jmp	 SHORT $LN1@PMCCS_Rema
$LN8@PMCCS_Rema:

; 693  :         }
; 694  :         catch (const Palmtree::Math::Core::Internal::Exception& ex)
; 695  :         {
; 696  :             return (ex.GetStatusCode());

  00082	8b 85 e4 00 00
	00		 mov	 eax, DWORD PTR $T5[rbp]
$LN1@PMCCS_Rema:

; 697  :         }
; 698  :     }

  00088	48 8b f8	 mov	 rdi, rax
  0008b	48 8d 4d e0	 lea	 rcx, QWORD PTR [rbp-32]
  0008f	48 8d 15 00 00
	00 00		 lea	 rdx, OFFSET FLAT:PMCCS_Remainder_L_X$rtcFrameData
  00096	e8 00 00 00 00	 call	 _RTC_CheckStackVars
  0009b	48 8b c7	 mov	 rax, rdi
  0009e	48 8d a5 28 01
	00 00		 lea	 rsp, QWORD PTR [rbp+296]
  000a5	5f		 pop	 rdi
  000a6	5d		 pop	 rbp
  000a7	c3		 ret	 0
  000a8	cc		 int	 3
PMCCS_Remainder_L_X ENDP
_TEXT	ENDS
;	COMDAT text$x
text$x	SEGMENT
ex$4 = 8
$T5 = 228
$T6 = 264
u$ = 320
v$ = 328
r$ = 336
PMCCS_Remainder_L_X$catch$0 PROC

; 693  :         }
; 694  :         catch (const Palmtree::Math::Core::Internal::Exception& ex)
; 695  :         {

  00000	48 89 4c 24 08	 mov	 QWORD PTR [rsp+8], rcx
  00005	48 89 54 24 10	 mov	 QWORD PTR [rsp+16], rdx
  0000a	55		 push	 rbp
  0000b	57		 push	 rdi
  0000c	48 83 ec 28	 sub	 rsp, 40			; 00000028H
  00010	48 8d 6a 20	 lea	 rbp, QWORD PTR [rdx+32]
__catch$PMCCS_Remainder_L_X$0:

; 693  :         }
; 694  :         catch (const Palmtree::Math::Core::Internal::Exception& ex)
; 695  :         {
; 696  :             return (ex.GetStatusCode());

  00014	48 8b 4d 08	 mov	 rcx, QWORD PTR ex$4[rbp]
  00018	e8 00 00 00 00	 call	 ?GetStatusCode@Exception@Internal@Core@Math@Palmtree@@QEBAHXZ ; Palmtree::Math::Core::Internal::Exception::GetStatusCode
  0001d	89 85 e4 00 00
	00		 mov	 DWORD PTR $T5[rbp], eax
  00023	48 8d 05 00 00
	00 00		 lea	 rax, $LN8@PMCCS_Rema
  0002a	eb 07		 jmp	 SHORT $LN9@PMCCS_Rema

; 697  :         }

  0002c	48 8d 05 00 00
	00 00		 lea	 rax, __tryend$PMCCS_Remainder_L_X$1
$LN9@PMCCS_Rema:
  00033	48 83 c4 28	 add	 rsp, 40			; 00000028H
  00037	5f		 pop	 rdi
  00038	5d		 pop	 rbp
  00039	c3		 ret	 0
  0003a	cc		 int	 3
PMCCS_Remainder_L_X$catch$0 ENDP
text$x	ENDS
; Function compile flags: /Odtp /RTCsu /ZI
;	COMDAT text$x
text$x	SEGMENT
ex$4 = 8
$T5 = 228
$T6 = 264
u$ = 320
v$ = 328
r$ = 336
PMCCS_Remainder_L_X$catch$0 PROC

; 695  :         {

  00000	48 89 4c 24 08	 mov	 QWORD PTR [rsp+8], rcx
  00005	48 89 54 24 10	 mov	 QWORD PTR [rsp+16], rdx
  0000a	55		 push	 rbp
  0000b	57		 push	 rdi
  0000c	48 83 ec 28	 sub	 rsp, 40			; 00000028H
  00010	48 8d 6a 20	 lea	 rbp, QWORD PTR [rdx+32]
__catch$PMCCS_Remainder_L_X$0:

; 696  :             return (ex.GetStatusCode());

  00014	48 8b 4d 08	 mov	 rcx, QWORD PTR ex$4[rbp]
  00018	e8 00 00 00 00	 call	 ?GetStatusCode@Exception@Internal@Core@Math@Palmtree@@QEBAHXZ ; Palmtree::Math::Core::Internal::Exception::GetStatusCode
  0001d	89 85 e4 00 00
	00		 mov	 DWORD PTR $T5[rbp], eax
  00023	48 8d 05 00 00
	00 00		 lea	 rax, $LN8@PMCCS_Rema
  0002a	eb 07		 jmp	 SHORT $LN9@PMCCS_Rema

; 697  :         }

  0002c	48 8d 05 00 00
	00 00		 lea	 rax, __tryend$PMCCS_Remainder_L_X$1
$LN9@PMCCS_Rema:
  00033	48 83 c4 28	 add	 rsp, 40			; 00000028H
  00037	5f		 pop	 rdi
  00038	5d		 pop	 rbp
  00039	c3		 ret	 0
  0003a	cc		 int	 3
PMCCS_Remainder_L_X$catch$0 ENDP
text$x	ENDS
; Function compile flags: /Odtp /RTCsu /ZI
; File z:\sources\lunor\repos\rougemeilland\palmtree.math.core.uint\palmtree.math.core.uint\pmc_interface_csharp.cpp
;	COMDAT PMCCS_Remainder_I_X
_TEXT	SEGMENT
ex$4 = 8
$T5 = 228
$T6 = 264
u$ = 320
v$ = 328
r$ = 336
PMCCS_Remainder_I_X PROC				; COMDAT

; 671  :     {

$LN10:
  00000	4c 89 44 24 18	 mov	 QWORD PTR [rsp+24], r8
  00005	48 89 54 24 10	 mov	 QWORD PTR [rsp+16], rdx
  0000a	89 4c 24 08	 mov	 DWORD PTR [rsp+8], ecx
  0000e	55		 push	 rbp
  0000f	57		 push	 rdi
  00010	48 81 ec 48 01
	00 00		 sub	 rsp, 328		; 00000148H
  00017	48 8d 6c 24 20	 lea	 rbp, QWORD PTR [rsp+32]
  0001c	48 8b fc	 mov	 rdi, rsp
  0001f	b9 52 00 00 00	 mov	 ecx, 82			; 00000052H
  00024	b8 cc cc cc cc	 mov	 eax, -858993460		; ccccccccH
  00029	f3 ab		 rep stosd
  0002b	8b 8c 24 68 01
	00 00		 mov	 ecx, DWORD PTR [rsp+360]
  00032	48 c7 85 08 01
	00 00 fe ff ff
	ff		 mov	 QWORD PTR $T6[rbp], -2
  0003d	48 8d 0d 00 00
	00 00		 lea	 rcx, OFFSET FLAT:__C21BA676_pmc_interface_csharp@cpp
  00044	e8 00 00 00 00	 call	 __CheckForDebuggerJustMyCode

; 672  :         if (r == nullptr)

  00049	48 83 bd 50 01
	00 00 00	 cmp	 QWORD PTR r$[rbp], 0
  00051	75 07		 jne	 SHORT $LN2@PMCCS_Rema

; 673  :             return (PMC_STATUS_ARGUMENT_NULL_ERROR);

  00053	b8 fe ff ff ff	 mov	 eax, -2
  00058	eb 2a		 jmp	 SHORT $LN1@PMCCS_Rema
$LN2@PMCCS_Rema:

; 674  :         try
; 675  :         {
; 676  :             *r = PMC_DivRem_I_X(u, v, nullptr);

  0005a	45 33 c0	 xor	 r8d, r8d
  0005d	48 8b 95 48 01
	00 00		 mov	 rdx, QWORD PTR v$[rbp]
  00064	8b 8d 40 01 00
	00		 mov	 ecx, DWORD PTR u$[rbp]
  0006a	e8 00 00 00 00	 call	 ?PMC_DivRem_I_X@Internal@Core@Math@Palmtree@@YAIIPEAU__tag_PMC_HANDLE_UINT@1234@PEAI@Z ; Palmtree::Math::Core::Internal::PMC_DivRem_I_X
  0006f	48 8b 8d 50 01
	00 00		 mov	 rcx, QWORD PTR r$[rbp]
  00076	89 01		 mov	 DWORD PTR [rcx], eax

; 677  :             return (PMC_STATUS_OK);

  00078	33 c0		 xor	 eax, eax
  0007a	eb 08		 jmp	 SHORT $LN1@PMCCS_Rema
__tryend$PMCCS_Remainder_I_X$1:
  0007c	eb 06		 jmp	 SHORT $LN1@PMCCS_Rema
$LN8@PMCCS_Rema:

; 678  :         }
; 679  :         catch (const Palmtree::Math::Core::Internal::Exception& ex)
; 680  :         {
; 681  :             return (ex.GetStatusCode());

  0007e	8b 85 e4 00 00
	00		 mov	 eax, DWORD PTR $T5[rbp]
$LN1@PMCCS_Rema:

; 682  :         }
; 683  :     }

  00084	48 8b f8	 mov	 rdi, rax
  00087	48 8d 4d e0	 lea	 rcx, QWORD PTR [rbp-32]
  0008b	48 8d 15 00 00
	00 00		 lea	 rdx, OFFSET FLAT:PMCCS_Remainder_I_X$rtcFrameData
  00092	e8 00 00 00 00	 call	 _RTC_CheckStackVars
  00097	48 8b c7	 mov	 rax, rdi
  0009a	48 8d a5 28 01
	00 00		 lea	 rsp, QWORD PTR [rbp+296]
  000a1	5f		 pop	 rdi
  000a2	5d		 pop	 rbp
  000a3	c3		 ret	 0
  000a4	cc		 int	 3
PMCCS_Remainder_I_X ENDP
_TEXT	ENDS
;	COMDAT text$x
text$x	SEGMENT
ex$4 = 8
$T5 = 228
$T6 = 264
u$ = 320
v$ = 328
r$ = 336
PMCCS_Remainder_I_X$catch$0 PROC

; 678  :         }
; 679  :         catch (const Palmtree::Math::Core::Internal::Exception& ex)
; 680  :         {

  00000	48 89 4c 24 08	 mov	 QWORD PTR [rsp+8], rcx
  00005	48 89 54 24 10	 mov	 QWORD PTR [rsp+16], rdx
  0000a	55		 push	 rbp
  0000b	57		 push	 rdi
  0000c	48 83 ec 28	 sub	 rsp, 40			; 00000028H
  00010	48 8d 6a 20	 lea	 rbp, QWORD PTR [rdx+32]
__catch$PMCCS_Remainder_I_X$0:

; 678  :         }
; 679  :         catch (const Palmtree::Math::Core::Internal::Exception& ex)
; 680  :         {
; 681  :             return (ex.GetStatusCode());

  00014	48 8b 4d 08	 mov	 rcx, QWORD PTR ex$4[rbp]
  00018	e8 00 00 00 00	 call	 ?GetStatusCode@Exception@Internal@Core@Math@Palmtree@@QEBAHXZ ; Palmtree::Math::Core::Internal::Exception::GetStatusCode
  0001d	89 85 e4 00 00
	00		 mov	 DWORD PTR $T5[rbp], eax
  00023	48 8d 05 00 00
	00 00		 lea	 rax, $LN8@PMCCS_Rema
  0002a	eb 07		 jmp	 SHORT $LN9@PMCCS_Rema

; 682  :         }

  0002c	48 8d 05 00 00
	00 00		 lea	 rax, __tryend$PMCCS_Remainder_I_X$1
$LN9@PMCCS_Rema:
  00033	48 83 c4 28	 add	 rsp, 40			; 00000028H
  00037	5f		 pop	 rdi
  00038	5d		 pop	 rbp
  00039	c3		 ret	 0
  0003a	cc		 int	 3
PMCCS_Remainder_I_X$catch$0 ENDP
text$x	ENDS
; Function compile flags: /Odtp /RTCsu /ZI
;	COMDAT text$x
text$x	SEGMENT
ex$4 = 8
$T5 = 228
$T6 = 264
u$ = 320
v$ = 328
r$ = 336
PMCCS_Remainder_I_X$catch$0 PROC

; 680  :         {

  00000	48 89 4c 24 08	 mov	 QWORD PTR [rsp+8], rcx
  00005	48 89 54 24 10	 mov	 QWORD PTR [rsp+16], rdx
  0000a	55		 push	 rbp
  0000b	57		 push	 rdi
  0000c	48 83 ec 28	 sub	 rsp, 40			; 00000028H
  00010	48 8d 6a 20	 lea	 rbp, QWORD PTR [rdx+32]
__catch$PMCCS_Remainder_I_X$0:

; 681  :             return (ex.GetStatusCode());

  00014	48 8b 4d 08	 mov	 rcx, QWORD PTR ex$4[rbp]
  00018	e8 00 00 00 00	 call	 ?GetStatusCode@Exception@Internal@Core@Math@Palmtree@@QEBAHXZ ; Palmtree::Math::Core::Internal::Exception::GetStatusCode
  0001d	89 85 e4 00 00
	00		 mov	 DWORD PTR $T5[rbp], eax
  00023	48 8d 05 00 00
	00 00		 lea	 rax, $LN8@PMCCS_Rema
  0002a	eb 07		 jmp	 SHORT $LN9@PMCCS_Rema

; 682  :         }

  0002c	48 8d 05 00 00
	00 00		 lea	 rax, __tryend$PMCCS_Remainder_I_X$1
$LN9@PMCCS_Rema:
  00033	48 83 c4 28	 add	 rsp, 40			; 00000028H
  00037	5f		 pop	 rdi
  00038	5d		 pop	 rbp
  00039	c3		 ret	 0
  0003a	cc		 int	 3
PMCCS_Remainder_I_X$catch$0 ENDP
text$x	ENDS
; Function compile flags: /Odtp /RTCsu /ZI
; File z:\sources\lunor\repos\rougemeilland\palmtree.math.core.uint\palmtree.math.core.uint\pmc_interface_csharp.cpp
;	COMDAT PMCCS_DivRem_X_X
_TEXT	SEGMENT
ex$4 = 8
$T5 = 228
$T6 = 264
u$ = 320
v$ = 328
q$ = 336
r$ = 344
PMCCS_DivRem_X_X PROC					; COMDAT

; 656  :     {

$LN10:
  00000	4c 89 4c 24 20	 mov	 QWORD PTR [rsp+32], r9
  00005	4c 89 44 24 18	 mov	 QWORD PTR [rsp+24], r8
  0000a	48 89 54 24 10	 mov	 QWORD PTR [rsp+16], rdx
  0000f	48 89 4c 24 08	 mov	 QWORD PTR [rsp+8], rcx
  00014	55		 push	 rbp
  00015	57		 push	 rdi
  00016	48 81 ec 48 01
	00 00		 sub	 rsp, 328		; 00000148H
  0001d	48 8d 6c 24 20	 lea	 rbp, QWORD PTR [rsp+32]
  00022	48 8b fc	 mov	 rdi, rsp
  00025	b9 52 00 00 00	 mov	 ecx, 82			; 00000052H
  0002a	b8 cc cc cc cc	 mov	 eax, -858993460		; ccccccccH
  0002f	f3 ab		 rep stosd
  00031	48 8b 8c 24 68
	01 00 00	 mov	 rcx, QWORD PTR [rsp+360]
  00039	48 c7 85 08 01
	00 00 fe ff ff
	ff		 mov	 QWORD PTR $T6[rbp], -2
  00044	48 8d 0d 00 00
	00 00		 lea	 rcx, OFFSET FLAT:__C21BA676_pmc_interface_csharp@cpp
  0004b	e8 00 00 00 00	 call	 __CheckForDebuggerJustMyCode

; 657  :         if (r == nullptr)

  00050	48 83 bd 58 01
	00 00 00	 cmp	 QWORD PTR r$[rbp], 0
  00058	75 07		 jne	 SHORT $LN2@PMCCS_DivR

; 658  :             return (PMC_STATUS_ARGUMENT_NULL_ERROR);

  0005a	b8 fe ff ff ff	 mov	 eax, -2
  0005f	eb 30		 jmp	 SHORT $LN1@PMCCS_DivR
$LN2@PMCCS_DivR:

; 659  :         try
; 660  :         {
; 661  :             *r = PMC_DivRem_X_X(u, v, q);

  00061	4c 8b 85 50 01
	00 00		 mov	 r8, QWORD PTR q$[rbp]
  00068	48 8b 95 48 01
	00 00		 mov	 rdx, QWORD PTR v$[rbp]
  0006f	48 8b 8d 40 01
	00 00		 mov	 rcx, QWORD PTR u$[rbp]
  00076	e8 00 00 00 00	 call	 ?PMC_DivRem_X_X@Internal@Core@Math@Palmtree@@YAPEAU__tag_PMC_HANDLE_UINT@1234@PEAU51234@0PEAPEAU51234@@Z ; Palmtree::Math::Core::Internal::PMC_DivRem_X_X
  0007b	48 8b 8d 58 01
	00 00		 mov	 rcx, QWORD PTR r$[rbp]
  00082	48 89 01	 mov	 QWORD PTR [rcx], rax

; 662  :             return (PMC_STATUS_OK);

  00085	33 c0		 xor	 eax, eax
  00087	eb 08		 jmp	 SHORT $LN1@PMCCS_DivR
__tryend$PMCCS_DivRem_X_X$1:
  00089	eb 06		 jmp	 SHORT $LN1@PMCCS_DivR
$LN8@PMCCS_DivR:

; 663  :         }
; 664  :         catch (const Palmtree::Math::Core::Internal::Exception& ex)
; 665  :         {
; 666  :             return (ex.GetStatusCode());

  0008b	8b 85 e4 00 00
	00		 mov	 eax, DWORD PTR $T5[rbp]
$LN1@PMCCS_DivR:

; 667  :         }
; 668  :     }

  00091	48 8b f8	 mov	 rdi, rax
  00094	48 8d 4d e0	 lea	 rcx, QWORD PTR [rbp-32]
  00098	48 8d 15 00 00
	00 00		 lea	 rdx, OFFSET FLAT:PMCCS_DivRem_X_X$rtcFrameData
  0009f	e8 00 00 00 00	 call	 _RTC_CheckStackVars
  000a4	48 8b c7	 mov	 rax, rdi
  000a7	48 8d a5 28 01
	00 00		 lea	 rsp, QWORD PTR [rbp+296]
  000ae	5f		 pop	 rdi
  000af	5d		 pop	 rbp
  000b0	c3		 ret	 0
  000b1	cc		 int	 3
PMCCS_DivRem_X_X ENDP
_TEXT	ENDS
;	COMDAT text$x
text$x	SEGMENT
ex$4 = 8
$T5 = 228
$T6 = 264
u$ = 320
v$ = 328
q$ = 336
r$ = 344
PMCCS_DivRem_X_X$catch$0 PROC

; 663  :         }
; 664  :         catch (const Palmtree::Math::Core::Internal::Exception& ex)
; 665  :         {

  00000	48 89 4c 24 08	 mov	 QWORD PTR [rsp+8], rcx
  00005	48 89 54 24 10	 mov	 QWORD PTR [rsp+16], rdx
  0000a	55		 push	 rbp
  0000b	57		 push	 rdi
  0000c	48 83 ec 28	 sub	 rsp, 40			; 00000028H
  00010	48 8d 6a 20	 lea	 rbp, QWORD PTR [rdx+32]
__catch$PMCCS_DivRem_X_X$0:

; 663  :         }
; 664  :         catch (const Palmtree::Math::Core::Internal::Exception& ex)
; 665  :         {
; 666  :             return (ex.GetStatusCode());

  00014	48 8b 4d 08	 mov	 rcx, QWORD PTR ex$4[rbp]
  00018	e8 00 00 00 00	 call	 ?GetStatusCode@Exception@Internal@Core@Math@Palmtree@@QEBAHXZ ; Palmtree::Math::Core::Internal::Exception::GetStatusCode
  0001d	89 85 e4 00 00
	00		 mov	 DWORD PTR $T5[rbp], eax
  00023	48 8d 05 00 00
	00 00		 lea	 rax, $LN8@PMCCS_DivR
  0002a	eb 07		 jmp	 SHORT $LN9@PMCCS_DivR

; 667  :         }

  0002c	48 8d 05 00 00
	00 00		 lea	 rax, __tryend$PMCCS_DivRem_X_X$1
$LN9@PMCCS_DivR:
  00033	48 83 c4 28	 add	 rsp, 40			; 00000028H
  00037	5f		 pop	 rdi
  00038	5d		 pop	 rbp
  00039	c3		 ret	 0
  0003a	cc		 int	 3
PMCCS_DivRem_X_X$catch$0 ENDP
text$x	ENDS
; Function compile flags: /Odtp /RTCsu /ZI
;	COMDAT text$x
text$x	SEGMENT
ex$4 = 8
$T5 = 228
$T6 = 264
u$ = 320
v$ = 328
q$ = 336
r$ = 344
PMCCS_DivRem_X_X$catch$0 PROC

; 665  :         {

  00000	48 89 4c 24 08	 mov	 QWORD PTR [rsp+8], rcx
  00005	48 89 54 24 10	 mov	 QWORD PTR [rsp+16], rdx
  0000a	55		 push	 rbp
  0000b	57		 push	 rdi
  0000c	48 83 ec 28	 sub	 rsp, 40			; 00000028H
  00010	48 8d 6a 20	 lea	 rbp, QWORD PTR [rdx+32]
__catch$PMCCS_DivRem_X_X$0:

; 666  :             return (ex.GetStatusCode());

  00014	48 8b 4d 08	 mov	 rcx, QWORD PTR ex$4[rbp]
  00018	e8 00 00 00 00	 call	 ?GetStatusCode@Exception@Internal@Core@Math@Palmtree@@QEBAHXZ ; Palmtree::Math::Core::Internal::Exception::GetStatusCode
  0001d	89 85 e4 00 00
	00		 mov	 DWORD PTR $T5[rbp], eax
  00023	48 8d 05 00 00
	00 00		 lea	 rax, $LN8@PMCCS_DivR
  0002a	eb 07		 jmp	 SHORT $LN9@PMCCS_DivR

; 667  :         }

  0002c	48 8d 05 00 00
	00 00		 lea	 rax, __tryend$PMCCS_DivRem_X_X$1
$LN9@PMCCS_DivR:
  00033	48 83 c4 28	 add	 rsp, 40			; 00000028H
  00037	5f		 pop	 rdi
  00038	5d		 pop	 rbp
  00039	c3		 ret	 0
  0003a	cc		 int	 3
PMCCS_DivRem_X_X$catch$0 ENDP
text$x	ENDS
; Function compile flags: /Odtp /RTCsu /ZI
; File z:\sources\lunor\repos\rougemeilland\palmtree.math.core.uint\palmtree.math.core.uint\pmc_interface_csharp.cpp
;	COMDAT PMCCS_DivRem_X_L
_TEXT	SEGMENT
ex$4 = 8
$T5 = 228
$T6 = 264
u$ = 320
v$ = 328
q$ = 336
r$ = 344
PMCCS_DivRem_X_L PROC					; COMDAT

; 641  :     {

$LN10:
  00000	4c 89 4c 24 20	 mov	 QWORD PTR [rsp+32], r9
  00005	4c 89 44 24 18	 mov	 QWORD PTR [rsp+24], r8
  0000a	48 89 54 24 10	 mov	 QWORD PTR [rsp+16], rdx
  0000f	48 89 4c 24 08	 mov	 QWORD PTR [rsp+8], rcx
  00014	55		 push	 rbp
  00015	57		 push	 rdi
  00016	48 81 ec 48 01
	00 00		 sub	 rsp, 328		; 00000148H
  0001d	48 8d 6c 24 20	 lea	 rbp, QWORD PTR [rsp+32]
  00022	48 8b fc	 mov	 rdi, rsp
  00025	b9 52 00 00 00	 mov	 ecx, 82			; 00000052H
  0002a	b8 cc cc cc cc	 mov	 eax, -858993460		; ccccccccH
  0002f	f3 ab		 rep stosd
  00031	48 8b 8c 24 68
	01 00 00	 mov	 rcx, QWORD PTR [rsp+360]
  00039	48 c7 85 08 01
	00 00 fe ff ff
	ff		 mov	 QWORD PTR $T6[rbp], -2
  00044	48 8d 0d 00 00
	00 00		 lea	 rcx, OFFSET FLAT:__C21BA676_pmc_interface_csharp@cpp
  0004b	e8 00 00 00 00	 call	 __CheckForDebuggerJustMyCode

; 642  :         if (r == nullptr)

  00050	48 83 bd 58 01
	00 00 00	 cmp	 QWORD PTR r$[rbp], 0
  00058	75 07		 jne	 SHORT $LN2@PMCCS_DivR

; 643  :             return (PMC_STATUS_ARGUMENT_NULL_ERROR);

  0005a	b8 fe ff ff ff	 mov	 eax, -2
  0005f	eb 30		 jmp	 SHORT $LN1@PMCCS_DivR
$LN2@PMCCS_DivR:

; 644  :         try
; 645  :         {
; 646  :             *r = PMC_DivRem_X_L(u, v, q);

  00061	4c 8b 85 50 01
	00 00		 mov	 r8, QWORD PTR q$[rbp]
  00068	48 8b 95 48 01
	00 00		 mov	 rdx, QWORD PTR v$[rbp]
  0006f	48 8b 8d 40 01
	00 00		 mov	 rcx, QWORD PTR u$[rbp]
  00076	e8 00 00 00 00	 call	 ?PMC_DivRem_X_L@Internal@Core@Math@Palmtree@@YA_KPEAU__tag_PMC_HANDLE_UINT@1234@_KPEAPEAU51234@@Z ; Palmtree::Math::Core::Internal::PMC_DivRem_X_L
  0007b	48 8b 8d 58 01
	00 00		 mov	 rcx, QWORD PTR r$[rbp]
  00082	48 89 01	 mov	 QWORD PTR [rcx], rax

; 647  :             return (PMC_STATUS_OK);

  00085	33 c0		 xor	 eax, eax
  00087	eb 08		 jmp	 SHORT $LN1@PMCCS_DivR
__tryend$PMCCS_DivRem_X_L$1:
  00089	eb 06		 jmp	 SHORT $LN1@PMCCS_DivR
$LN8@PMCCS_DivR:

; 648  :         }
; 649  :         catch (const Palmtree::Math::Core::Internal::Exception& ex)
; 650  :         {
; 651  :             return (ex.GetStatusCode());

  0008b	8b 85 e4 00 00
	00		 mov	 eax, DWORD PTR $T5[rbp]
$LN1@PMCCS_DivR:

; 652  :         }
; 653  :     }

  00091	48 8b f8	 mov	 rdi, rax
  00094	48 8d 4d e0	 lea	 rcx, QWORD PTR [rbp-32]
  00098	48 8d 15 00 00
	00 00		 lea	 rdx, OFFSET FLAT:PMCCS_DivRem_X_L$rtcFrameData
  0009f	e8 00 00 00 00	 call	 _RTC_CheckStackVars
  000a4	48 8b c7	 mov	 rax, rdi
  000a7	48 8d a5 28 01
	00 00		 lea	 rsp, QWORD PTR [rbp+296]
  000ae	5f		 pop	 rdi
  000af	5d		 pop	 rbp
  000b0	c3		 ret	 0
  000b1	cc		 int	 3
PMCCS_DivRem_X_L ENDP
_TEXT	ENDS
;	COMDAT text$x
text$x	SEGMENT
ex$4 = 8
$T5 = 228
$T6 = 264
u$ = 320
v$ = 328
q$ = 336
r$ = 344
PMCCS_DivRem_X_L$catch$0 PROC

; 648  :         }
; 649  :         catch (const Palmtree::Math::Core::Internal::Exception& ex)
; 650  :         {

  00000	48 89 4c 24 08	 mov	 QWORD PTR [rsp+8], rcx
  00005	48 89 54 24 10	 mov	 QWORD PTR [rsp+16], rdx
  0000a	55		 push	 rbp
  0000b	57		 push	 rdi
  0000c	48 83 ec 28	 sub	 rsp, 40			; 00000028H
  00010	48 8d 6a 20	 lea	 rbp, QWORD PTR [rdx+32]
__catch$PMCCS_DivRem_X_L$0:

; 648  :         }
; 649  :         catch (const Palmtree::Math::Core::Internal::Exception& ex)
; 650  :         {
; 651  :             return (ex.GetStatusCode());

  00014	48 8b 4d 08	 mov	 rcx, QWORD PTR ex$4[rbp]
  00018	e8 00 00 00 00	 call	 ?GetStatusCode@Exception@Internal@Core@Math@Palmtree@@QEBAHXZ ; Palmtree::Math::Core::Internal::Exception::GetStatusCode
  0001d	89 85 e4 00 00
	00		 mov	 DWORD PTR $T5[rbp], eax
  00023	48 8d 05 00 00
	00 00		 lea	 rax, $LN8@PMCCS_DivR
  0002a	eb 07		 jmp	 SHORT $LN9@PMCCS_DivR

; 652  :         }

  0002c	48 8d 05 00 00
	00 00		 lea	 rax, __tryend$PMCCS_DivRem_X_L$1
$LN9@PMCCS_DivR:
  00033	48 83 c4 28	 add	 rsp, 40			; 00000028H
  00037	5f		 pop	 rdi
  00038	5d		 pop	 rbp
  00039	c3		 ret	 0
  0003a	cc		 int	 3
PMCCS_DivRem_X_L$catch$0 ENDP
text$x	ENDS
; Function compile flags: /Odtp /RTCsu /ZI
;	COMDAT text$x
text$x	SEGMENT
ex$4 = 8
$T5 = 228
$T6 = 264
u$ = 320
v$ = 328
q$ = 336
r$ = 344
PMCCS_DivRem_X_L$catch$0 PROC

; 650  :         {

  00000	48 89 4c 24 08	 mov	 QWORD PTR [rsp+8], rcx
  00005	48 89 54 24 10	 mov	 QWORD PTR [rsp+16], rdx
  0000a	55		 push	 rbp
  0000b	57		 push	 rdi
  0000c	48 83 ec 28	 sub	 rsp, 40			; 00000028H
  00010	48 8d 6a 20	 lea	 rbp, QWORD PTR [rdx+32]
__catch$PMCCS_DivRem_X_L$0:

; 651  :             return (ex.GetStatusCode());

  00014	48 8b 4d 08	 mov	 rcx, QWORD PTR ex$4[rbp]
  00018	e8 00 00 00 00	 call	 ?GetStatusCode@Exception@Internal@Core@Math@Palmtree@@QEBAHXZ ; Palmtree::Math::Core::Internal::Exception::GetStatusCode
  0001d	89 85 e4 00 00
	00		 mov	 DWORD PTR $T5[rbp], eax
  00023	48 8d 05 00 00
	00 00		 lea	 rax, $LN8@PMCCS_DivR
  0002a	eb 07		 jmp	 SHORT $LN9@PMCCS_DivR

; 652  :         }

  0002c	48 8d 05 00 00
	00 00		 lea	 rax, __tryend$PMCCS_DivRem_X_L$1
$LN9@PMCCS_DivR:
  00033	48 83 c4 28	 add	 rsp, 40			; 00000028H
  00037	5f		 pop	 rdi
  00038	5d		 pop	 rbp
  00039	c3		 ret	 0
  0003a	cc		 int	 3
PMCCS_DivRem_X_L$catch$0 ENDP
text$x	ENDS
; Function compile flags: /Odtp /RTCsu /ZI
; File z:\sources\lunor\repos\rougemeilland\palmtree.math.core.uint\palmtree.math.core.uint\pmc_interface_csharp.cpp
;	COMDAT PMCCS_DivRem_X_I
_TEXT	SEGMENT
ex$4 = 8
$T5 = 228
$T6 = 264
u$ = 320
v$ = 328
q$ = 336
r$ = 344
PMCCS_DivRem_X_I PROC					; COMDAT

; 626  :     {

$LN10:
  00000	4c 89 4c 24 20	 mov	 QWORD PTR [rsp+32], r9
  00005	4c 89 44 24 18	 mov	 QWORD PTR [rsp+24], r8
  0000a	89 54 24 10	 mov	 DWORD PTR [rsp+16], edx
  0000e	48 89 4c 24 08	 mov	 QWORD PTR [rsp+8], rcx
  00013	55		 push	 rbp
  00014	57		 push	 rdi
  00015	48 81 ec 48 01
	00 00		 sub	 rsp, 328		; 00000148H
  0001c	48 8d 6c 24 20	 lea	 rbp, QWORD PTR [rsp+32]
  00021	48 8b fc	 mov	 rdi, rsp
  00024	b9 52 00 00 00	 mov	 ecx, 82			; 00000052H
  00029	b8 cc cc cc cc	 mov	 eax, -858993460		; ccccccccH
  0002e	f3 ab		 rep stosd
  00030	48 8b 8c 24 68
	01 00 00	 mov	 rcx, QWORD PTR [rsp+360]
  00038	48 c7 85 08 01
	00 00 fe ff ff
	ff		 mov	 QWORD PTR $T6[rbp], -2
  00043	48 8d 0d 00 00
	00 00		 lea	 rcx, OFFSET FLAT:__C21BA676_pmc_interface_csharp@cpp
  0004a	e8 00 00 00 00	 call	 __CheckForDebuggerJustMyCode

; 627  :         if (r == nullptr)

  0004f	48 83 bd 58 01
	00 00 00	 cmp	 QWORD PTR r$[rbp], 0
  00057	75 07		 jne	 SHORT $LN2@PMCCS_DivR

; 628  :             return (PMC_STATUS_ARGUMENT_NULL_ERROR);

  00059	b8 fe ff ff ff	 mov	 eax, -2
  0005e	eb 2e		 jmp	 SHORT $LN1@PMCCS_DivR
$LN2@PMCCS_DivR:

; 629  :         try
; 630  :         {
; 631  :             *r = PMC_DivRem_X_I(u, v, q);

  00060	4c 8b 85 50 01
	00 00		 mov	 r8, QWORD PTR q$[rbp]
  00067	8b 95 48 01 00
	00		 mov	 edx, DWORD PTR v$[rbp]
  0006d	48 8b 8d 40 01
	00 00		 mov	 rcx, QWORD PTR u$[rbp]
  00074	e8 00 00 00 00	 call	 ?PMC_DivRem_X_I@Internal@Core@Math@Palmtree@@YAIPEAU__tag_PMC_HANDLE_UINT@1234@IPEAPEAU51234@@Z ; Palmtree::Math::Core::Internal::PMC_DivRem_X_I
  00079	48 8b 8d 58 01
	00 00		 mov	 rcx, QWORD PTR r$[rbp]
  00080	89 01		 mov	 DWORD PTR [rcx], eax

; 632  :             return (PMC_STATUS_OK);

  00082	33 c0		 xor	 eax, eax
  00084	eb 08		 jmp	 SHORT $LN1@PMCCS_DivR
__tryend$PMCCS_DivRem_X_I$1:
  00086	eb 06		 jmp	 SHORT $LN1@PMCCS_DivR
$LN8@PMCCS_DivR:

; 633  :         }
; 634  :         catch (const Palmtree::Math::Core::Internal::Exception& ex)
; 635  :         {
; 636  :             return (ex.GetStatusCode());

  00088	8b 85 e4 00 00
	00		 mov	 eax, DWORD PTR $T5[rbp]
$LN1@PMCCS_DivR:

; 637  :         }
; 638  :     }

  0008e	48 8b f8	 mov	 rdi, rax
  00091	48 8d 4d e0	 lea	 rcx, QWORD PTR [rbp-32]
  00095	48 8d 15 00 00
	00 00		 lea	 rdx, OFFSET FLAT:PMCCS_DivRem_X_I$rtcFrameData
  0009c	e8 00 00 00 00	 call	 _RTC_CheckStackVars
  000a1	48 8b c7	 mov	 rax, rdi
  000a4	48 8d a5 28 01
	00 00		 lea	 rsp, QWORD PTR [rbp+296]
  000ab	5f		 pop	 rdi
  000ac	5d		 pop	 rbp
  000ad	c3		 ret	 0
  000ae	cc		 int	 3
PMCCS_DivRem_X_I ENDP
_TEXT	ENDS
;	COMDAT text$x
text$x	SEGMENT
ex$4 = 8
$T5 = 228
$T6 = 264
u$ = 320
v$ = 328
q$ = 336
r$ = 344
PMCCS_DivRem_X_I$catch$0 PROC

; 633  :         }
; 634  :         catch (const Palmtree::Math::Core::Internal::Exception& ex)
; 635  :         {

  00000	48 89 4c 24 08	 mov	 QWORD PTR [rsp+8], rcx
  00005	48 89 54 24 10	 mov	 QWORD PTR [rsp+16], rdx
  0000a	55		 push	 rbp
  0000b	57		 push	 rdi
  0000c	48 83 ec 28	 sub	 rsp, 40			; 00000028H
  00010	48 8d 6a 20	 lea	 rbp, QWORD PTR [rdx+32]
__catch$PMCCS_DivRem_X_I$0:

; 633  :         }
; 634  :         catch (const Palmtree::Math::Core::Internal::Exception& ex)
; 635  :         {
; 636  :             return (ex.GetStatusCode());

  00014	48 8b 4d 08	 mov	 rcx, QWORD PTR ex$4[rbp]
  00018	e8 00 00 00 00	 call	 ?GetStatusCode@Exception@Internal@Core@Math@Palmtree@@QEBAHXZ ; Palmtree::Math::Core::Internal::Exception::GetStatusCode
  0001d	89 85 e4 00 00
	00		 mov	 DWORD PTR $T5[rbp], eax
  00023	48 8d 05 00 00
	00 00		 lea	 rax, $LN8@PMCCS_DivR
  0002a	eb 07		 jmp	 SHORT $LN9@PMCCS_DivR

; 637  :         }

  0002c	48 8d 05 00 00
	00 00		 lea	 rax, __tryend$PMCCS_DivRem_X_I$1
$LN9@PMCCS_DivR:
  00033	48 83 c4 28	 add	 rsp, 40			; 00000028H
  00037	5f		 pop	 rdi
  00038	5d		 pop	 rbp
  00039	c3		 ret	 0
  0003a	cc		 int	 3
PMCCS_DivRem_X_I$catch$0 ENDP
text$x	ENDS
; Function compile flags: /Odtp /RTCsu /ZI
;	COMDAT text$x
text$x	SEGMENT
ex$4 = 8
$T5 = 228
$T6 = 264
u$ = 320
v$ = 328
q$ = 336
r$ = 344
PMCCS_DivRem_X_I$catch$0 PROC

; 635  :         {

  00000	48 89 4c 24 08	 mov	 QWORD PTR [rsp+8], rcx
  00005	48 89 54 24 10	 mov	 QWORD PTR [rsp+16], rdx
  0000a	55		 push	 rbp
  0000b	57		 push	 rdi
  0000c	48 83 ec 28	 sub	 rsp, 40			; 00000028H
  00010	48 8d 6a 20	 lea	 rbp, QWORD PTR [rdx+32]
__catch$PMCCS_DivRem_X_I$0:

; 636  :             return (ex.GetStatusCode());

  00014	48 8b 4d 08	 mov	 rcx, QWORD PTR ex$4[rbp]
  00018	e8 00 00 00 00	 call	 ?GetStatusCode@Exception@Internal@Core@Math@Palmtree@@QEBAHXZ ; Palmtree::Math::Core::Internal::Exception::GetStatusCode
  0001d	89 85 e4 00 00
	00		 mov	 DWORD PTR $T5[rbp], eax
  00023	48 8d 05 00 00
	00 00		 lea	 rax, $LN8@PMCCS_DivR
  0002a	eb 07		 jmp	 SHORT $LN9@PMCCS_DivR

; 637  :         }

  0002c	48 8d 05 00 00
	00 00		 lea	 rax, __tryend$PMCCS_DivRem_X_I$1
$LN9@PMCCS_DivR:
  00033	48 83 c4 28	 add	 rsp, 40			; 00000028H
  00037	5f		 pop	 rdi
  00038	5d		 pop	 rbp
  00039	c3		 ret	 0
  0003a	cc		 int	 3
PMCCS_DivRem_X_I$catch$0 ENDP
text$x	ENDS
; Function compile flags: /Odtp /RTCsu /ZI
; File z:\sources\lunor\repos\rougemeilland\palmtree.math.core.uint\palmtree.math.core.uint\pmc_interface_csharp.cpp
;	COMDAT PMCCS_DivRem_L_X
_TEXT	SEGMENT
ex$4 = 8
$T5 = 228
$T6 = 264
u$ = 320
v$ = 328
q$ = 336
r$ = 344
PMCCS_DivRem_L_X PROC					; COMDAT

; 611  :     {

$LN10:
  00000	4c 89 4c 24 20	 mov	 QWORD PTR [rsp+32], r9
  00005	4c 89 44 24 18	 mov	 QWORD PTR [rsp+24], r8
  0000a	48 89 54 24 10	 mov	 QWORD PTR [rsp+16], rdx
  0000f	48 89 4c 24 08	 mov	 QWORD PTR [rsp+8], rcx
  00014	55		 push	 rbp
  00015	57		 push	 rdi
  00016	48 81 ec 48 01
	00 00		 sub	 rsp, 328		; 00000148H
  0001d	48 8d 6c 24 20	 lea	 rbp, QWORD PTR [rsp+32]
  00022	48 8b fc	 mov	 rdi, rsp
  00025	b9 52 00 00 00	 mov	 ecx, 82			; 00000052H
  0002a	b8 cc cc cc cc	 mov	 eax, -858993460		; ccccccccH
  0002f	f3 ab		 rep stosd
  00031	48 8b 8c 24 68
	01 00 00	 mov	 rcx, QWORD PTR [rsp+360]
  00039	48 c7 85 08 01
	00 00 fe ff ff
	ff		 mov	 QWORD PTR $T6[rbp], -2
  00044	48 8d 0d 00 00
	00 00		 lea	 rcx, OFFSET FLAT:__C21BA676_pmc_interface_csharp@cpp
  0004b	e8 00 00 00 00	 call	 __CheckForDebuggerJustMyCode

; 612  :         if (r == nullptr)

  00050	48 83 bd 58 01
	00 00 00	 cmp	 QWORD PTR r$[rbp], 0
  00058	75 07		 jne	 SHORT $LN2@PMCCS_DivR

; 613  :             return (PMC_STATUS_ARGUMENT_NULL_ERROR);

  0005a	b8 fe ff ff ff	 mov	 eax, -2
  0005f	eb 30		 jmp	 SHORT $LN1@PMCCS_DivR
$LN2@PMCCS_DivR:

; 614  :         try
; 615  :         {
; 616  :             *r = PMC_DivRem_L_X(u, v, q);

  00061	4c 8b 85 50 01
	00 00		 mov	 r8, QWORD PTR q$[rbp]
  00068	48 8b 95 48 01
	00 00		 mov	 rdx, QWORD PTR v$[rbp]
  0006f	48 8b 8d 40 01
	00 00		 mov	 rcx, QWORD PTR u$[rbp]
  00076	e8 00 00 00 00	 call	 ?PMC_DivRem_L_X@Internal@Core@Math@Palmtree@@YA_K_KPEAU__tag_PMC_HANDLE_UINT@1234@PEA_K@Z ; Palmtree::Math::Core::Internal::PMC_DivRem_L_X
  0007b	48 8b 8d 58 01
	00 00		 mov	 rcx, QWORD PTR r$[rbp]
  00082	48 89 01	 mov	 QWORD PTR [rcx], rax

; 617  :             return (PMC_STATUS_OK);

  00085	33 c0		 xor	 eax, eax
  00087	eb 08		 jmp	 SHORT $LN1@PMCCS_DivR
__tryend$PMCCS_DivRem_L_X$1:
  00089	eb 06		 jmp	 SHORT $LN1@PMCCS_DivR
$LN8@PMCCS_DivR:

; 618  :         }
; 619  :         catch (const Palmtree::Math::Core::Internal::Exception& ex)
; 620  :         {
; 621  :             return (ex.GetStatusCode());

  0008b	8b 85 e4 00 00
	00		 mov	 eax, DWORD PTR $T5[rbp]
$LN1@PMCCS_DivR:

; 622  :         }
; 623  :     }

  00091	48 8b f8	 mov	 rdi, rax
  00094	48 8d 4d e0	 lea	 rcx, QWORD PTR [rbp-32]
  00098	48 8d 15 00 00
	00 00		 lea	 rdx, OFFSET FLAT:PMCCS_DivRem_L_X$rtcFrameData
  0009f	e8 00 00 00 00	 call	 _RTC_CheckStackVars
  000a4	48 8b c7	 mov	 rax, rdi
  000a7	48 8d a5 28 01
	00 00		 lea	 rsp, QWORD PTR [rbp+296]
  000ae	5f		 pop	 rdi
  000af	5d		 pop	 rbp
  000b0	c3		 ret	 0
  000b1	cc		 int	 3
PMCCS_DivRem_L_X ENDP
_TEXT	ENDS
;	COMDAT text$x
text$x	SEGMENT
ex$4 = 8
$T5 = 228
$T6 = 264
u$ = 320
v$ = 328
q$ = 336
r$ = 344
PMCCS_DivRem_L_X$catch$0 PROC

; 618  :         }
; 619  :         catch (const Palmtree::Math::Core::Internal::Exception& ex)
; 620  :         {

  00000	48 89 4c 24 08	 mov	 QWORD PTR [rsp+8], rcx
  00005	48 89 54 24 10	 mov	 QWORD PTR [rsp+16], rdx
  0000a	55		 push	 rbp
  0000b	57		 push	 rdi
  0000c	48 83 ec 28	 sub	 rsp, 40			; 00000028H
  00010	48 8d 6a 20	 lea	 rbp, QWORD PTR [rdx+32]
__catch$PMCCS_DivRem_L_X$0:

; 618  :         }
; 619  :         catch (const Palmtree::Math::Core::Internal::Exception& ex)
; 620  :         {
; 621  :             return (ex.GetStatusCode());

  00014	48 8b 4d 08	 mov	 rcx, QWORD PTR ex$4[rbp]
  00018	e8 00 00 00 00	 call	 ?GetStatusCode@Exception@Internal@Core@Math@Palmtree@@QEBAHXZ ; Palmtree::Math::Core::Internal::Exception::GetStatusCode
  0001d	89 85 e4 00 00
	00		 mov	 DWORD PTR $T5[rbp], eax
  00023	48 8d 05 00 00
	00 00		 lea	 rax, $LN8@PMCCS_DivR
  0002a	eb 07		 jmp	 SHORT $LN9@PMCCS_DivR

; 622  :         }

  0002c	48 8d 05 00 00
	00 00		 lea	 rax, __tryend$PMCCS_DivRem_L_X$1
$LN9@PMCCS_DivR:
  00033	48 83 c4 28	 add	 rsp, 40			; 00000028H
  00037	5f		 pop	 rdi
  00038	5d		 pop	 rbp
  00039	c3		 ret	 0
  0003a	cc		 int	 3
PMCCS_DivRem_L_X$catch$0 ENDP
text$x	ENDS
; Function compile flags: /Odtp /RTCsu /ZI
;	COMDAT text$x
text$x	SEGMENT
ex$4 = 8
$T5 = 228
$T6 = 264
u$ = 320
v$ = 328
q$ = 336
r$ = 344
PMCCS_DivRem_L_X$catch$0 PROC

; 620  :         {

  00000	48 89 4c 24 08	 mov	 QWORD PTR [rsp+8], rcx
  00005	48 89 54 24 10	 mov	 QWORD PTR [rsp+16], rdx
  0000a	55		 push	 rbp
  0000b	57		 push	 rdi
  0000c	48 83 ec 28	 sub	 rsp, 40			; 00000028H
  00010	48 8d 6a 20	 lea	 rbp, QWORD PTR [rdx+32]
__catch$PMCCS_DivRem_L_X$0:

; 621  :             return (ex.GetStatusCode());

  00014	48 8b 4d 08	 mov	 rcx, QWORD PTR ex$4[rbp]
  00018	e8 00 00 00 00	 call	 ?GetStatusCode@Exception@Internal@Core@Math@Palmtree@@QEBAHXZ ; Palmtree::Math::Core::Internal::Exception::GetStatusCode
  0001d	89 85 e4 00 00
	00		 mov	 DWORD PTR $T5[rbp], eax
  00023	48 8d 05 00 00
	00 00		 lea	 rax, $LN8@PMCCS_DivR
  0002a	eb 07		 jmp	 SHORT $LN9@PMCCS_DivR

; 622  :         }

  0002c	48 8d 05 00 00
	00 00		 lea	 rax, __tryend$PMCCS_DivRem_L_X$1
$LN9@PMCCS_DivR:
  00033	48 83 c4 28	 add	 rsp, 40			; 00000028H
  00037	5f		 pop	 rdi
  00038	5d		 pop	 rbp
  00039	c3		 ret	 0
  0003a	cc		 int	 3
PMCCS_DivRem_L_X$catch$0 ENDP
text$x	ENDS
; Function compile flags: /Odtp /RTCsu /ZI
; File z:\sources\lunor\repos\rougemeilland\palmtree.math.core.uint\palmtree.math.core.uint\pmc_interface_csharp.cpp
;	COMDAT PMCCS_DivRem_I_X
_TEXT	SEGMENT
ex$4 = 8
$T5 = 228
$T6 = 264
u$ = 320
v$ = 328
q$ = 336
r$ = 344
PMCCS_DivRem_I_X PROC					; COMDAT

; 596  :     {

$LN10:
  00000	4c 89 4c 24 20	 mov	 QWORD PTR [rsp+32], r9
  00005	4c 89 44 24 18	 mov	 QWORD PTR [rsp+24], r8
  0000a	48 89 54 24 10	 mov	 QWORD PTR [rsp+16], rdx
  0000f	89 4c 24 08	 mov	 DWORD PTR [rsp+8], ecx
  00013	55		 push	 rbp
  00014	57		 push	 rdi
  00015	48 81 ec 48 01
	00 00		 sub	 rsp, 328		; 00000148H
  0001c	48 8d 6c 24 20	 lea	 rbp, QWORD PTR [rsp+32]
  00021	48 8b fc	 mov	 rdi, rsp
  00024	b9 52 00 00 00	 mov	 ecx, 82			; 00000052H
  00029	b8 cc cc cc cc	 mov	 eax, -858993460		; ccccccccH
  0002e	f3 ab		 rep stosd
  00030	8b 8c 24 68 01
	00 00		 mov	 ecx, DWORD PTR [rsp+360]
  00037	48 c7 85 08 01
	00 00 fe ff ff
	ff		 mov	 QWORD PTR $T6[rbp], -2
  00042	48 8d 0d 00 00
	00 00		 lea	 rcx, OFFSET FLAT:__C21BA676_pmc_interface_csharp@cpp
  00049	e8 00 00 00 00	 call	 __CheckForDebuggerJustMyCode

; 597  :         if (r == nullptr)

  0004e	48 83 bd 58 01
	00 00 00	 cmp	 QWORD PTR r$[rbp], 0
  00056	75 07		 jne	 SHORT $LN2@PMCCS_DivR

; 598  :             return (PMC_STATUS_ARGUMENT_NULL_ERROR);

  00058	b8 fe ff ff ff	 mov	 eax, -2
  0005d	eb 2e		 jmp	 SHORT $LN1@PMCCS_DivR
$LN2@PMCCS_DivR:

; 599  :         try
; 600  :         {
; 601  :             *r = PMC_DivRem_I_X(u, v, q);

  0005f	4c 8b 85 50 01
	00 00		 mov	 r8, QWORD PTR q$[rbp]
  00066	48 8b 95 48 01
	00 00		 mov	 rdx, QWORD PTR v$[rbp]
  0006d	8b 8d 40 01 00
	00		 mov	 ecx, DWORD PTR u$[rbp]
  00073	e8 00 00 00 00	 call	 ?PMC_DivRem_I_X@Internal@Core@Math@Palmtree@@YAIIPEAU__tag_PMC_HANDLE_UINT@1234@PEAI@Z ; Palmtree::Math::Core::Internal::PMC_DivRem_I_X
  00078	48 8b 8d 58 01
	00 00		 mov	 rcx, QWORD PTR r$[rbp]
  0007f	89 01		 mov	 DWORD PTR [rcx], eax

; 602  :             return (PMC_STATUS_OK);

  00081	33 c0		 xor	 eax, eax
  00083	eb 08		 jmp	 SHORT $LN1@PMCCS_DivR
__tryend$PMCCS_DivRem_I_X$1:
  00085	eb 06		 jmp	 SHORT $LN1@PMCCS_DivR
$LN8@PMCCS_DivR:

; 603  :         }
; 604  :         catch (const Palmtree::Math::Core::Internal::Exception& ex)
; 605  :         {
; 606  :             return (ex.GetStatusCode());

  00087	8b 85 e4 00 00
	00		 mov	 eax, DWORD PTR $T5[rbp]
$LN1@PMCCS_DivR:

; 607  :         }
; 608  :     }

  0008d	48 8b f8	 mov	 rdi, rax
  00090	48 8d 4d e0	 lea	 rcx, QWORD PTR [rbp-32]
  00094	48 8d 15 00 00
	00 00		 lea	 rdx, OFFSET FLAT:PMCCS_DivRem_I_X$rtcFrameData
  0009b	e8 00 00 00 00	 call	 _RTC_CheckStackVars
  000a0	48 8b c7	 mov	 rax, rdi
  000a3	48 8d a5 28 01
	00 00		 lea	 rsp, QWORD PTR [rbp+296]
  000aa	5f		 pop	 rdi
  000ab	5d		 pop	 rbp
  000ac	c3		 ret	 0
  000ad	cc		 int	 3
PMCCS_DivRem_I_X ENDP
_TEXT	ENDS
;	COMDAT text$x
text$x	SEGMENT
ex$4 = 8
$T5 = 228
$T6 = 264
u$ = 320
v$ = 328
q$ = 336
r$ = 344
PMCCS_DivRem_I_X$catch$0 PROC

; 603  :         }
; 604  :         catch (const Palmtree::Math::Core::Internal::Exception& ex)
; 605  :         {

  00000	48 89 4c 24 08	 mov	 QWORD PTR [rsp+8], rcx
  00005	48 89 54 24 10	 mov	 QWORD PTR [rsp+16], rdx
  0000a	55		 push	 rbp
  0000b	57		 push	 rdi
  0000c	48 83 ec 28	 sub	 rsp, 40			; 00000028H
  00010	48 8d 6a 20	 lea	 rbp, QWORD PTR [rdx+32]
__catch$PMCCS_DivRem_I_X$0:

; 603  :         }
; 604  :         catch (const Palmtree::Math::Core::Internal::Exception& ex)
; 605  :         {
; 606  :             return (ex.GetStatusCode());

  00014	48 8b 4d 08	 mov	 rcx, QWORD PTR ex$4[rbp]
  00018	e8 00 00 00 00	 call	 ?GetStatusCode@Exception@Internal@Core@Math@Palmtree@@QEBAHXZ ; Palmtree::Math::Core::Internal::Exception::GetStatusCode
  0001d	89 85 e4 00 00
	00		 mov	 DWORD PTR $T5[rbp], eax
  00023	48 8d 05 00 00
	00 00		 lea	 rax, $LN8@PMCCS_DivR
  0002a	eb 07		 jmp	 SHORT $LN9@PMCCS_DivR

; 607  :         }

  0002c	48 8d 05 00 00
	00 00		 lea	 rax, __tryend$PMCCS_DivRem_I_X$1
$LN9@PMCCS_DivR:
  00033	48 83 c4 28	 add	 rsp, 40			; 00000028H
  00037	5f		 pop	 rdi
  00038	5d		 pop	 rbp
  00039	c3		 ret	 0
  0003a	cc		 int	 3
PMCCS_DivRem_I_X$catch$0 ENDP
text$x	ENDS
; Function compile flags: /Odtp /RTCsu /ZI
;	COMDAT text$x
text$x	SEGMENT
ex$4 = 8
$T5 = 228
$T6 = 264
u$ = 320
v$ = 328
q$ = 336
r$ = 344
PMCCS_DivRem_I_X$catch$0 PROC

; 605  :         {

  00000	48 89 4c 24 08	 mov	 QWORD PTR [rsp+8], rcx
  00005	48 89 54 24 10	 mov	 QWORD PTR [rsp+16], rdx
  0000a	55		 push	 rbp
  0000b	57		 push	 rdi
  0000c	48 83 ec 28	 sub	 rsp, 40			; 00000028H
  00010	48 8d 6a 20	 lea	 rbp, QWORD PTR [rdx+32]
__catch$PMCCS_DivRem_I_X$0:

; 606  :             return (ex.GetStatusCode());

  00014	48 8b 4d 08	 mov	 rcx, QWORD PTR ex$4[rbp]
  00018	e8 00 00 00 00	 call	 ?GetStatusCode@Exception@Internal@Core@Math@Palmtree@@QEBAHXZ ; Palmtree::Math::Core::Internal::Exception::GetStatusCode
  0001d	89 85 e4 00 00
	00		 mov	 DWORD PTR $T5[rbp], eax
  00023	48 8d 05 00 00
	00 00		 lea	 rax, $LN8@PMCCS_DivR
  0002a	eb 07		 jmp	 SHORT $LN9@PMCCS_DivR

; 607  :         }

  0002c	48 8d 05 00 00
	00 00		 lea	 rax, __tryend$PMCCS_DivRem_I_X$1
$LN9@PMCCS_DivR:
  00033	48 83 c4 28	 add	 rsp, 40			; 00000028H
  00037	5f		 pop	 rdi
  00038	5d		 pop	 rbp
  00039	c3		 ret	 0
  0003a	cc		 int	 3
PMCCS_DivRem_I_X$catch$0 ENDP
text$x	ENDS
; Function compile flags: /Odtp /RTCsu /ZI
; File z:\sources\lunor\repos\rougemeilland\palmtree.math.core.uint\palmtree.math.core.uint\pmc_interface_csharp.cpp
;	COMDAT PMCCS_Multiply_X_X
_TEXT	SEGMENT
ex$4 = 8
$T5 = 228
$T6 = 264
u$ = 320
v$ = 328
w$ = 336
PMCCS_Multiply_X_X PROC					; COMDAT

; 581  :     {

$LN10:
  00000	4c 89 44 24 18	 mov	 QWORD PTR [rsp+24], r8
  00005	48 89 54 24 10	 mov	 QWORD PTR [rsp+16], rdx
  0000a	48 89 4c 24 08	 mov	 QWORD PTR [rsp+8], rcx
  0000f	55		 push	 rbp
  00010	57		 push	 rdi
  00011	48 81 ec 48 01
	00 00		 sub	 rsp, 328		; 00000148H
  00018	48 8d 6c 24 20	 lea	 rbp, QWORD PTR [rsp+32]
  0001d	48 8b fc	 mov	 rdi, rsp
  00020	b9 52 00 00 00	 mov	 ecx, 82			; 00000052H
  00025	b8 cc cc cc cc	 mov	 eax, -858993460		; ccccccccH
  0002a	f3 ab		 rep stosd
  0002c	48 8b 8c 24 68
	01 00 00	 mov	 rcx, QWORD PTR [rsp+360]
  00034	48 c7 85 08 01
	00 00 fe ff ff
	ff		 mov	 QWORD PTR $T6[rbp], -2
  0003f	48 8d 0d 00 00
	00 00		 lea	 rcx, OFFSET FLAT:__C21BA676_pmc_interface_csharp@cpp
  00046	e8 00 00 00 00	 call	 __CheckForDebuggerJustMyCode

; 582  :         if (w == nullptr)

  0004b	48 83 bd 50 01
	00 00 00	 cmp	 QWORD PTR w$[rbp], 0
  00053	75 07		 jne	 SHORT $LN2@PMCCS_Mult

; 583  :             return (PMC_STATUS_ARGUMENT_NULL_ERROR);

  00055	b8 fe ff ff ff	 mov	 eax, -2
  0005a	eb 29		 jmp	 SHORT $LN1@PMCCS_Mult
$LN2@PMCCS_Mult:

; 584  :         try
; 585  :         {
; 586  :             *w = PMC_Multiply_X_X(u, v);

  0005c	48 8b 95 48 01
	00 00		 mov	 rdx, QWORD PTR v$[rbp]
  00063	48 8b 8d 40 01
	00 00		 mov	 rcx, QWORD PTR u$[rbp]
  0006a	e8 00 00 00 00	 call	 ?PMC_Multiply_X_X@Internal@Core@Math@Palmtree@@YAPEAU__tag_PMC_HANDLE_UINT@1234@PEAU51234@0@Z ; Palmtree::Math::Core::Internal::PMC_Multiply_X_X
  0006f	48 8b 8d 50 01
	00 00		 mov	 rcx, QWORD PTR w$[rbp]
  00076	48 89 01	 mov	 QWORD PTR [rcx], rax

; 587  :             return (PMC_STATUS_OK);

  00079	33 c0		 xor	 eax, eax
  0007b	eb 08		 jmp	 SHORT $LN1@PMCCS_Mult
__tryend$PMCCS_Multiply_X_X$1:
  0007d	eb 06		 jmp	 SHORT $LN1@PMCCS_Mult
$LN8@PMCCS_Mult:

; 588  :         }
; 589  :         catch (const Palmtree::Math::Core::Internal::Exception& ex)
; 590  :         {
; 591  :             return (ex.GetStatusCode());

  0007f	8b 85 e4 00 00
	00		 mov	 eax, DWORD PTR $T5[rbp]
$LN1@PMCCS_Mult:

; 592  :         }
; 593  :     }

  00085	48 8b f8	 mov	 rdi, rax
  00088	48 8d 4d e0	 lea	 rcx, QWORD PTR [rbp-32]
  0008c	48 8d 15 00 00
	00 00		 lea	 rdx, OFFSET FLAT:PMCCS_Multiply_X_X$rtcFrameData
  00093	e8 00 00 00 00	 call	 _RTC_CheckStackVars
  00098	48 8b c7	 mov	 rax, rdi
  0009b	48 8d a5 28 01
	00 00		 lea	 rsp, QWORD PTR [rbp+296]
  000a2	5f		 pop	 rdi
  000a3	5d		 pop	 rbp
  000a4	c3		 ret	 0
  000a5	cc		 int	 3
PMCCS_Multiply_X_X ENDP
_TEXT	ENDS
;	COMDAT text$x
text$x	SEGMENT
ex$4 = 8
$T5 = 228
$T6 = 264
u$ = 320
v$ = 328
w$ = 336
PMCCS_Multiply_X_X$catch$0 PROC

; 588  :         }
; 589  :         catch (const Palmtree::Math::Core::Internal::Exception& ex)
; 590  :         {

  00000	48 89 4c 24 08	 mov	 QWORD PTR [rsp+8], rcx
  00005	48 89 54 24 10	 mov	 QWORD PTR [rsp+16], rdx
  0000a	55		 push	 rbp
  0000b	57		 push	 rdi
  0000c	48 83 ec 28	 sub	 rsp, 40			; 00000028H
  00010	48 8d 6a 20	 lea	 rbp, QWORD PTR [rdx+32]
__catch$PMCCS_Multiply_X_X$0:

; 588  :         }
; 589  :         catch (const Palmtree::Math::Core::Internal::Exception& ex)
; 590  :         {
; 591  :             return (ex.GetStatusCode());

  00014	48 8b 4d 08	 mov	 rcx, QWORD PTR ex$4[rbp]
  00018	e8 00 00 00 00	 call	 ?GetStatusCode@Exception@Internal@Core@Math@Palmtree@@QEBAHXZ ; Palmtree::Math::Core::Internal::Exception::GetStatusCode
  0001d	89 85 e4 00 00
	00		 mov	 DWORD PTR $T5[rbp], eax
  00023	48 8d 05 00 00
	00 00		 lea	 rax, $LN8@PMCCS_Mult
  0002a	eb 07		 jmp	 SHORT $LN9@PMCCS_Mult

; 592  :         }

  0002c	48 8d 05 00 00
	00 00		 lea	 rax, __tryend$PMCCS_Multiply_X_X$1
$LN9@PMCCS_Mult:
  00033	48 83 c4 28	 add	 rsp, 40			; 00000028H
  00037	5f		 pop	 rdi
  00038	5d		 pop	 rbp
  00039	c3		 ret	 0
  0003a	cc		 int	 3
PMCCS_Multiply_X_X$catch$0 ENDP
text$x	ENDS
; Function compile flags: /Odtp /RTCsu /ZI
;	COMDAT text$x
text$x	SEGMENT
ex$4 = 8
$T5 = 228
$T6 = 264
u$ = 320
v$ = 328
w$ = 336
PMCCS_Multiply_X_X$catch$0 PROC

; 590  :         {

  00000	48 89 4c 24 08	 mov	 QWORD PTR [rsp+8], rcx
  00005	48 89 54 24 10	 mov	 QWORD PTR [rsp+16], rdx
  0000a	55		 push	 rbp
  0000b	57		 push	 rdi
  0000c	48 83 ec 28	 sub	 rsp, 40			; 00000028H
  00010	48 8d 6a 20	 lea	 rbp, QWORD PTR [rdx+32]
__catch$PMCCS_Multiply_X_X$0:

; 591  :             return (ex.GetStatusCode());

  00014	48 8b 4d 08	 mov	 rcx, QWORD PTR ex$4[rbp]
  00018	e8 00 00 00 00	 call	 ?GetStatusCode@Exception@Internal@Core@Math@Palmtree@@QEBAHXZ ; Palmtree::Math::Core::Internal::Exception::GetStatusCode
  0001d	89 85 e4 00 00
	00		 mov	 DWORD PTR $T5[rbp], eax
  00023	48 8d 05 00 00
	00 00		 lea	 rax, $LN8@PMCCS_Mult
  0002a	eb 07		 jmp	 SHORT $LN9@PMCCS_Mult

; 592  :         }

  0002c	48 8d 05 00 00
	00 00		 lea	 rax, __tryend$PMCCS_Multiply_X_X$1
$LN9@PMCCS_Mult:
  00033	48 83 c4 28	 add	 rsp, 40			; 00000028H
  00037	5f		 pop	 rdi
  00038	5d		 pop	 rbp
  00039	c3		 ret	 0
  0003a	cc		 int	 3
PMCCS_Multiply_X_X$catch$0 ENDP
text$x	ENDS
; Function compile flags: /Odtp /RTCsu /ZI
; File z:\sources\lunor\repos\rougemeilland\palmtree.math.core.uint\palmtree.math.core.uint\pmc_interface_csharp.cpp
;	COMDAT PMCCS_Multiply_X_L
_TEXT	SEGMENT
ex$4 = 8
$T5 = 228
$T6 = 264
u$ = 320
v$ = 328
w$ = 336
PMCCS_Multiply_X_L PROC					; COMDAT

; 566  :     {

$LN10:
  00000	4c 89 44 24 18	 mov	 QWORD PTR [rsp+24], r8
  00005	48 89 54 24 10	 mov	 QWORD PTR [rsp+16], rdx
  0000a	48 89 4c 24 08	 mov	 QWORD PTR [rsp+8], rcx
  0000f	55		 push	 rbp
  00010	57		 push	 rdi
  00011	48 81 ec 48 01
	00 00		 sub	 rsp, 328		; 00000148H
  00018	48 8d 6c 24 20	 lea	 rbp, QWORD PTR [rsp+32]
  0001d	48 8b fc	 mov	 rdi, rsp
  00020	b9 52 00 00 00	 mov	 ecx, 82			; 00000052H
  00025	b8 cc cc cc cc	 mov	 eax, -858993460		; ccccccccH
  0002a	f3 ab		 rep stosd
  0002c	48 8b 8c 24 68
	01 00 00	 mov	 rcx, QWORD PTR [rsp+360]
  00034	48 c7 85 08 01
	00 00 fe ff ff
	ff		 mov	 QWORD PTR $T6[rbp], -2
  0003f	48 8d 0d 00 00
	00 00		 lea	 rcx, OFFSET FLAT:__C21BA676_pmc_interface_csharp@cpp
  00046	e8 00 00 00 00	 call	 __CheckForDebuggerJustMyCode

; 567  :         if (w == nullptr)

  0004b	48 83 bd 50 01
	00 00 00	 cmp	 QWORD PTR w$[rbp], 0
  00053	75 07		 jne	 SHORT $LN2@PMCCS_Mult

; 568  :             return (PMC_STATUS_ARGUMENT_NULL_ERROR);

  00055	b8 fe ff ff ff	 mov	 eax, -2
  0005a	eb 29		 jmp	 SHORT $LN1@PMCCS_Mult
$LN2@PMCCS_Mult:

; 569  :         try
; 570  :         {
; 571  :             *w = PMC_Multiply_X_L(u, v);

  0005c	48 8b 95 48 01
	00 00		 mov	 rdx, QWORD PTR v$[rbp]
  00063	48 8b 8d 40 01
	00 00		 mov	 rcx, QWORD PTR u$[rbp]
  0006a	e8 00 00 00 00	 call	 ?PMC_Multiply_X_L@Internal@Core@Math@Palmtree@@YAPEAU__tag_PMC_HANDLE_UINT@1234@PEAU51234@_K@Z ; Palmtree::Math::Core::Internal::PMC_Multiply_X_L
  0006f	48 8b 8d 50 01
	00 00		 mov	 rcx, QWORD PTR w$[rbp]
  00076	48 89 01	 mov	 QWORD PTR [rcx], rax

; 572  :             return (PMC_STATUS_OK);

  00079	33 c0		 xor	 eax, eax
  0007b	eb 08		 jmp	 SHORT $LN1@PMCCS_Mult
__tryend$PMCCS_Multiply_X_L$1:
  0007d	eb 06		 jmp	 SHORT $LN1@PMCCS_Mult
$LN8@PMCCS_Mult:

; 573  :         }
; 574  :         catch (const Palmtree::Math::Core::Internal::Exception& ex)
; 575  :         {
; 576  :             return (ex.GetStatusCode());

  0007f	8b 85 e4 00 00
	00		 mov	 eax, DWORD PTR $T5[rbp]
$LN1@PMCCS_Mult:

; 577  :         }
; 578  :     }

  00085	48 8b f8	 mov	 rdi, rax
  00088	48 8d 4d e0	 lea	 rcx, QWORD PTR [rbp-32]
  0008c	48 8d 15 00 00
	00 00		 lea	 rdx, OFFSET FLAT:PMCCS_Multiply_X_L$rtcFrameData
  00093	e8 00 00 00 00	 call	 _RTC_CheckStackVars
  00098	48 8b c7	 mov	 rax, rdi
  0009b	48 8d a5 28 01
	00 00		 lea	 rsp, QWORD PTR [rbp+296]
  000a2	5f		 pop	 rdi
  000a3	5d		 pop	 rbp
  000a4	c3		 ret	 0
  000a5	cc		 int	 3
PMCCS_Multiply_X_L ENDP
_TEXT	ENDS
;	COMDAT text$x
text$x	SEGMENT
ex$4 = 8
$T5 = 228
$T6 = 264
u$ = 320
v$ = 328
w$ = 336
PMCCS_Multiply_X_L$catch$0 PROC

; 573  :         }
; 574  :         catch (const Palmtree::Math::Core::Internal::Exception& ex)
; 575  :         {

  00000	48 89 4c 24 08	 mov	 QWORD PTR [rsp+8], rcx
  00005	48 89 54 24 10	 mov	 QWORD PTR [rsp+16], rdx
  0000a	55		 push	 rbp
  0000b	57		 push	 rdi
  0000c	48 83 ec 28	 sub	 rsp, 40			; 00000028H
  00010	48 8d 6a 20	 lea	 rbp, QWORD PTR [rdx+32]
__catch$PMCCS_Multiply_X_L$0:

; 573  :         }
; 574  :         catch (const Palmtree::Math::Core::Internal::Exception& ex)
; 575  :         {
; 576  :             return (ex.GetStatusCode());

  00014	48 8b 4d 08	 mov	 rcx, QWORD PTR ex$4[rbp]
  00018	e8 00 00 00 00	 call	 ?GetStatusCode@Exception@Internal@Core@Math@Palmtree@@QEBAHXZ ; Palmtree::Math::Core::Internal::Exception::GetStatusCode
  0001d	89 85 e4 00 00
	00		 mov	 DWORD PTR $T5[rbp], eax
  00023	48 8d 05 00 00
	00 00		 lea	 rax, $LN8@PMCCS_Mult
  0002a	eb 07		 jmp	 SHORT $LN9@PMCCS_Mult

; 577  :         }

  0002c	48 8d 05 00 00
	00 00		 lea	 rax, __tryend$PMCCS_Multiply_X_L$1
$LN9@PMCCS_Mult:
  00033	48 83 c4 28	 add	 rsp, 40			; 00000028H
  00037	5f		 pop	 rdi
  00038	5d		 pop	 rbp
  00039	c3		 ret	 0
  0003a	cc		 int	 3
PMCCS_Multiply_X_L$catch$0 ENDP
text$x	ENDS
; Function compile flags: /Odtp /RTCsu /ZI
;	COMDAT text$x
text$x	SEGMENT
ex$4 = 8
$T5 = 228
$T6 = 264
u$ = 320
v$ = 328
w$ = 336
PMCCS_Multiply_X_L$catch$0 PROC

; 575  :         {

  00000	48 89 4c 24 08	 mov	 QWORD PTR [rsp+8], rcx
  00005	48 89 54 24 10	 mov	 QWORD PTR [rsp+16], rdx
  0000a	55		 push	 rbp
  0000b	57		 push	 rdi
  0000c	48 83 ec 28	 sub	 rsp, 40			; 00000028H
  00010	48 8d 6a 20	 lea	 rbp, QWORD PTR [rdx+32]
__catch$PMCCS_Multiply_X_L$0:

; 576  :             return (ex.GetStatusCode());

  00014	48 8b 4d 08	 mov	 rcx, QWORD PTR ex$4[rbp]
  00018	e8 00 00 00 00	 call	 ?GetStatusCode@Exception@Internal@Core@Math@Palmtree@@QEBAHXZ ; Palmtree::Math::Core::Internal::Exception::GetStatusCode
  0001d	89 85 e4 00 00
	00		 mov	 DWORD PTR $T5[rbp], eax
  00023	48 8d 05 00 00
	00 00		 lea	 rax, $LN8@PMCCS_Mult
  0002a	eb 07		 jmp	 SHORT $LN9@PMCCS_Mult

; 577  :         }

  0002c	48 8d 05 00 00
	00 00		 lea	 rax, __tryend$PMCCS_Multiply_X_L$1
$LN9@PMCCS_Mult:
  00033	48 83 c4 28	 add	 rsp, 40			; 00000028H
  00037	5f		 pop	 rdi
  00038	5d		 pop	 rbp
  00039	c3		 ret	 0
  0003a	cc		 int	 3
PMCCS_Multiply_X_L$catch$0 ENDP
text$x	ENDS
; Function compile flags: /Odtp /RTCsu /ZI
; File z:\sources\lunor\repos\rougemeilland\palmtree.math.core.uint\palmtree.math.core.uint\pmc_interface_csharp.cpp
;	COMDAT PMCCS_Multiply_X_I
_TEXT	SEGMENT
ex$4 = 8
$T5 = 228
$T6 = 264
u$ = 320
v$ = 328
w$ = 336
PMCCS_Multiply_X_I PROC					; COMDAT

; 551  :     {

$LN10:
  00000	4c 89 44 24 18	 mov	 QWORD PTR [rsp+24], r8
  00005	89 54 24 10	 mov	 DWORD PTR [rsp+16], edx
  00009	48 89 4c 24 08	 mov	 QWORD PTR [rsp+8], rcx
  0000e	55		 push	 rbp
  0000f	57		 push	 rdi
  00010	48 81 ec 48 01
	00 00		 sub	 rsp, 328		; 00000148H
  00017	48 8d 6c 24 20	 lea	 rbp, QWORD PTR [rsp+32]
  0001c	48 8b fc	 mov	 rdi, rsp
  0001f	b9 52 00 00 00	 mov	 ecx, 82			; 00000052H
  00024	b8 cc cc cc cc	 mov	 eax, -858993460		; ccccccccH
  00029	f3 ab		 rep stosd
  0002b	48 8b 8c 24 68
	01 00 00	 mov	 rcx, QWORD PTR [rsp+360]
  00033	48 c7 85 08 01
	00 00 fe ff ff
	ff		 mov	 QWORD PTR $T6[rbp], -2
  0003e	48 8d 0d 00 00
	00 00		 lea	 rcx, OFFSET FLAT:__C21BA676_pmc_interface_csharp@cpp
  00045	e8 00 00 00 00	 call	 __CheckForDebuggerJustMyCode

; 552  :         if (w == nullptr)

  0004a	48 83 bd 50 01
	00 00 00	 cmp	 QWORD PTR w$[rbp], 0
  00052	75 07		 jne	 SHORT $LN2@PMCCS_Mult

; 553  :             return (PMC_STATUS_ARGUMENT_NULL_ERROR);

  00054	b8 fe ff ff ff	 mov	 eax, -2
  00059	eb 28		 jmp	 SHORT $LN1@PMCCS_Mult
$LN2@PMCCS_Mult:

; 554  :         try
; 555  :         {
; 556  :             *w = PMC_Multiply_X_I(u, v);

  0005b	8b 95 48 01 00
	00		 mov	 edx, DWORD PTR v$[rbp]
  00061	48 8b 8d 40 01
	00 00		 mov	 rcx, QWORD PTR u$[rbp]
  00068	e8 00 00 00 00	 call	 ?PMC_Multiply_X_I@Internal@Core@Math@Palmtree@@YAPEAU__tag_PMC_HANDLE_UINT@1234@PEAU51234@I@Z ; Palmtree::Math::Core::Internal::PMC_Multiply_X_I
  0006d	48 8b 8d 50 01
	00 00		 mov	 rcx, QWORD PTR w$[rbp]
  00074	48 89 01	 mov	 QWORD PTR [rcx], rax

; 557  :             return (PMC_STATUS_OK);

  00077	33 c0		 xor	 eax, eax
  00079	eb 08		 jmp	 SHORT $LN1@PMCCS_Mult
__tryend$PMCCS_Multiply_X_I$1:
  0007b	eb 06		 jmp	 SHORT $LN1@PMCCS_Mult
$LN8@PMCCS_Mult:

; 558  :         }
; 559  :         catch (const Palmtree::Math::Core::Internal::Exception& ex)
; 560  :         {
; 561  :             return (ex.GetStatusCode());

  0007d	8b 85 e4 00 00
	00		 mov	 eax, DWORD PTR $T5[rbp]
$LN1@PMCCS_Mult:

; 562  :         }
; 563  :     }

  00083	48 8b f8	 mov	 rdi, rax
  00086	48 8d 4d e0	 lea	 rcx, QWORD PTR [rbp-32]
  0008a	48 8d 15 00 00
	00 00		 lea	 rdx, OFFSET FLAT:PMCCS_Multiply_X_I$rtcFrameData
  00091	e8 00 00 00 00	 call	 _RTC_CheckStackVars
  00096	48 8b c7	 mov	 rax, rdi
  00099	48 8d a5 28 01
	00 00		 lea	 rsp, QWORD PTR [rbp+296]
  000a0	5f		 pop	 rdi
  000a1	5d		 pop	 rbp
  000a2	c3		 ret	 0
  000a3	cc		 int	 3
PMCCS_Multiply_X_I ENDP
_TEXT	ENDS
;	COMDAT text$x
text$x	SEGMENT
ex$4 = 8
$T5 = 228
$T6 = 264
u$ = 320
v$ = 328
w$ = 336
PMCCS_Multiply_X_I$catch$0 PROC

; 558  :         }
; 559  :         catch (const Palmtree::Math::Core::Internal::Exception& ex)
; 560  :         {

  00000	48 89 4c 24 08	 mov	 QWORD PTR [rsp+8], rcx
  00005	48 89 54 24 10	 mov	 QWORD PTR [rsp+16], rdx
  0000a	55		 push	 rbp
  0000b	57		 push	 rdi
  0000c	48 83 ec 28	 sub	 rsp, 40			; 00000028H
  00010	48 8d 6a 20	 lea	 rbp, QWORD PTR [rdx+32]
__catch$PMCCS_Multiply_X_I$0:

; 558  :         }
; 559  :         catch (const Palmtree::Math::Core::Internal::Exception& ex)
; 560  :         {
; 561  :             return (ex.GetStatusCode());

  00014	48 8b 4d 08	 mov	 rcx, QWORD PTR ex$4[rbp]
  00018	e8 00 00 00 00	 call	 ?GetStatusCode@Exception@Internal@Core@Math@Palmtree@@QEBAHXZ ; Palmtree::Math::Core::Internal::Exception::GetStatusCode
  0001d	89 85 e4 00 00
	00		 mov	 DWORD PTR $T5[rbp], eax
  00023	48 8d 05 00 00
	00 00		 lea	 rax, $LN8@PMCCS_Mult
  0002a	eb 07		 jmp	 SHORT $LN9@PMCCS_Mult

; 562  :         }

  0002c	48 8d 05 00 00
	00 00		 lea	 rax, __tryend$PMCCS_Multiply_X_I$1
$LN9@PMCCS_Mult:
  00033	48 83 c4 28	 add	 rsp, 40			; 00000028H
  00037	5f		 pop	 rdi
  00038	5d		 pop	 rbp
  00039	c3		 ret	 0
  0003a	cc		 int	 3
PMCCS_Multiply_X_I$catch$0 ENDP
text$x	ENDS
; Function compile flags: /Odtp /RTCsu /ZI
;	COMDAT text$x
text$x	SEGMENT
ex$4 = 8
$T5 = 228
$T6 = 264
u$ = 320
v$ = 328
w$ = 336
PMCCS_Multiply_X_I$catch$0 PROC

; 560  :         {

  00000	48 89 4c 24 08	 mov	 QWORD PTR [rsp+8], rcx
  00005	48 89 54 24 10	 mov	 QWORD PTR [rsp+16], rdx
  0000a	55		 push	 rbp
  0000b	57		 push	 rdi
  0000c	48 83 ec 28	 sub	 rsp, 40			; 00000028H
  00010	48 8d 6a 20	 lea	 rbp, QWORD PTR [rdx+32]
__catch$PMCCS_Multiply_X_I$0:

; 561  :             return (ex.GetStatusCode());

  00014	48 8b 4d 08	 mov	 rcx, QWORD PTR ex$4[rbp]
  00018	e8 00 00 00 00	 call	 ?GetStatusCode@Exception@Internal@Core@Math@Palmtree@@QEBAHXZ ; Palmtree::Math::Core::Internal::Exception::GetStatusCode
  0001d	89 85 e4 00 00
	00		 mov	 DWORD PTR $T5[rbp], eax
  00023	48 8d 05 00 00
	00 00		 lea	 rax, $LN8@PMCCS_Mult
  0002a	eb 07		 jmp	 SHORT $LN9@PMCCS_Mult

; 562  :         }

  0002c	48 8d 05 00 00
	00 00		 lea	 rax, __tryend$PMCCS_Multiply_X_I$1
$LN9@PMCCS_Mult:
  00033	48 83 c4 28	 add	 rsp, 40			; 00000028H
  00037	5f		 pop	 rdi
  00038	5d		 pop	 rbp
  00039	c3		 ret	 0
  0003a	cc		 int	 3
PMCCS_Multiply_X_I$catch$0 ENDP
text$x	ENDS
; Function compile flags: /Odtp /RTCsu /ZI
; File z:\sources\lunor\repos\rougemeilland\palmtree.math.core.uint\palmtree.math.core.uint\pmc_interface_csharp.cpp
;	COMDAT PMCCS_Multiply_L_X
_TEXT	SEGMENT
ex$4 = 8
$T5 = 228
$T6 = 264
u$ = 320
v$ = 328
w$ = 336
PMCCS_Multiply_L_X PROC					; COMDAT

; 536  :     {

$LN10:
  00000	4c 89 44 24 18	 mov	 QWORD PTR [rsp+24], r8
  00005	48 89 54 24 10	 mov	 QWORD PTR [rsp+16], rdx
  0000a	48 89 4c 24 08	 mov	 QWORD PTR [rsp+8], rcx
  0000f	55		 push	 rbp
  00010	57		 push	 rdi
  00011	48 81 ec 48 01
	00 00		 sub	 rsp, 328		; 00000148H
  00018	48 8d 6c 24 20	 lea	 rbp, QWORD PTR [rsp+32]
  0001d	48 8b fc	 mov	 rdi, rsp
  00020	b9 52 00 00 00	 mov	 ecx, 82			; 00000052H
  00025	b8 cc cc cc cc	 mov	 eax, -858993460		; ccccccccH
  0002a	f3 ab		 rep stosd
  0002c	48 8b 8c 24 68
	01 00 00	 mov	 rcx, QWORD PTR [rsp+360]
  00034	48 c7 85 08 01
	00 00 fe ff ff
	ff		 mov	 QWORD PTR $T6[rbp], -2
  0003f	48 8d 0d 00 00
	00 00		 lea	 rcx, OFFSET FLAT:__C21BA676_pmc_interface_csharp@cpp
  00046	e8 00 00 00 00	 call	 __CheckForDebuggerJustMyCode

; 537  :         if (w == nullptr)

  0004b	48 83 bd 50 01
	00 00 00	 cmp	 QWORD PTR w$[rbp], 0
  00053	75 07		 jne	 SHORT $LN2@PMCCS_Mult

; 538  :             return (PMC_STATUS_ARGUMENT_NULL_ERROR);

  00055	b8 fe ff ff ff	 mov	 eax, -2
  0005a	eb 29		 jmp	 SHORT $LN1@PMCCS_Mult
$LN2@PMCCS_Mult:

; 539  :         try
; 540  :         {
; 541  :             *w = PMC_Multiply_L_X(u, v);

  0005c	48 8b 95 48 01
	00 00		 mov	 rdx, QWORD PTR v$[rbp]
  00063	48 8b 8d 40 01
	00 00		 mov	 rcx, QWORD PTR u$[rbp]
  0006a	e8 00 00 00 00	 call	 ?PMC_Multiply_L_X@Internal@Core@Math@Palmtree@@YAPEAU__tag_PMC_HANDLE_UINT@1234@_KPEAU51234@@Z ; Palmtree::Math::Core::Internal::PMC_Multiply_L_X
  0006f	48 8b 8d 50 01
	00 00		 mov	 rcx, QWORD PTR w$[rbp]
  00076	48 89 01	 mov	 QWORD PTR [rcx], rax

; 542  :             return (PMC_STATUS_OK);

  00079	33 c0		 xor	 eax, eax
  0007b	eb 08		 jmp	 SHORT $LN1@PMCCS_Mult
__tryend$PMCCS_Multiply_L_X$1:
  0007d	eb 06		 jmp	 SHORT $LN1@PMCCS_Mult
$LN8@PMCCS_Mult:

; 543  :         }
; 544  :         catch (const Palmtree::Math::Core::Internal::Exception& ex)
; 545  :         {
; 546  :             return (ex.GetStatusCode());

  0007f	8b 85 e4 00 00
	00		 mov	 eax, DWORD PTR $T5[rbp]
$LN1@PMCCS_Mult:

; 547  :         }
; 548  :     }

  00085	48 8b f8	 mov	 rdi, rax
  00088	48 8d 4d e0	 lea	 rcx, QWORD PTR [rbp-32]
  0008c	48 8d 15 00 00
	00 00		 lea	 rdx, OFFSET FLAT:PMCCS_Multiply_L_X$rtcFrameData
  00093	e8 00 00 00 00	 call	 _RTC_CheckStackVars
  00098	48 8b c7	 mov	 rax, rdi
  0009b	48 8d a5 28 01
	00 00		 lea	 rsp, QWORD PTR [rbp+296]
  000a2	5f		 pop	 rdi
  000a3	5d		 pop	 rbp
  000a4	c3		 ret	 0
  000a5	cc		 int	 3
PMCCS_Multiply_L_X ENDP
_TEXT	ENDS
;	COMDAT text$x
text$x	SEGMENT
ex$4 = 8
$T5 = 228
$T6 = 264
u$ = 320
v$ = 328
w$ = 336
PMCCS_Multiply_L_X$catch$0 PROC

; 543  :         }
; 544  :         catch (const Palmtree::Math::Core::Internal::Exception& ex)
; 545  :         {

  00000	48 89 4c 24 08	 mov	 QWORD PTR [rsp+8], rcx
  00005	48 89 54 24 10	 mov	 QWORD PTR [rsp+16], rdx
  0000a	55		 push	 rbp
  0000b	57		 push	 rdi
  0000c	48 83 ec 28	 sub	 rsp, 40			; 00000028H
  00010	48 8d 6a 20	 lea	 rbp, QWORD PTR [rdx+32]
__catch$PMCCS_Multiply_L_X$0:

; 543  :         }
; 544  :         catch (const Palmtree::Math::Core::Internal::Exception& ex)
; 545  :         {
; 546  :             return (ex.GetStatusCode());

  00014	48 8b 4d 08	 mov	 rcx, QWORD PTR ex$4[rbp]
  00018	e8 00 00 00 00	 call	 ?GetStatusCode@Exception@Internal@Core@Math@Palmtree@@QEBAHXZ ; Palmtree::Math::Core::Internal::Exception::GetStatusCode
  0001d	89 85 e4 00 00
	00		 mov	 DWORD PTR $T5[rbp], eax
  00023	48 8d 05 00 00
	00 00		 lea	 rax, $LN8@PMCCS_Mult
  0002a	eb 07		 jmp	 SHORT $LN9@PMCCS_Mult

; 547  :         }

  0002c	48 8d 05 00 00
	00 00		 lea	 rax, __tryend$PMCCS_Multiply_L_X$1
$LN9@PMCCS_Mult:
  00033	48 83 c4 28	 add	 rsp, 40			; 00000028H
  00037	5f		 pop	 rdi
  00038	5d		 pop	 rbp
  00039	c3		 ret	 0
  0003a	cc		 int	 3
PMCCS_Multiply_L_X$catch$0 ENDP
text$x	ENDS
; Function compile flags: /Odtp /RTCsu /ZI
;	COMDAT text$x
text$x	SEGMENT
ex$4 = 8
$T5 = 228
$T6 = 264
u$ = 320
v$ = 328
w$ = 336
PMCCS_Multiply_L_X$catch$0 PROC

; 545  :         {

  00000	48 89 4c 24 08	 mov	 QWORD PTR [rsp+8], rcx
  00005	48 89 54 24 10	 mov	 QWORD PTR [rsp+16], rdx
  0000a	55		 push	 rbp
  0000b	57		 push	 rdi
  0000c	48 83 ec 28	 sub	 rsp, 40			; 00000028H
  00010	48 8d 6a 20	 lea	 rbp, QWORD PTR [rdx+32]
__catch$PMCCS_Multiply_L_X$0:

; 546  :             return (ex.GetStatusCode());

  00014	48 8b 4d 08	 mov	 rcx, QWORD PTR ex$4[rbp]
  00018	e8 00 00 00 00	 call	 ?GetStatusCode@Exception@Internal@Core@Math@Palmtree@@QEBAHXZ ; Palmtree::Math::Core::Internal::Exception::GetStatusCode
  0001d	89 85 e4 00 00
	00		 mov	 DWORD PTR $T5[rbp], eax
  00023	48 8d 05 00 00
	00 00		 lea	 rax, $LN8@PMCCS_Mult
  0002a	eb 07		 jmp	 SHORT $LN9@PMCCS_Mult

; 547  :         }

  0002c	48 8d 05 00 00
	00 00		 lea	 rax, __tryend$PMCCS_Multiply_L_X$1
$LN9@PMCCS_Mult:
  00033	48 83 c4 28	 add	 rsp, 40			; 00000028H
  00037	5f		 pop	 rdi
  00038	5d		 pop	 rbp
  00039	c3		 ret	 0
  0003a	cc		 int	 3
PMCCS_Multiply_L_X$catch$0 ENDP
text$x	ENDS
; Function compile flags: /Odtp /RTCsu /ZI
; File z:\sources\lunor\repos\rougemeilland\palmtree.math.core.uint\palmtree.math.core.uint\pmc_interface_csharp.cpp
;	COMDAT PMCCS_Multiply_I_X
_TEXT	SEGMENT
ex$4 = 8
$T5 = 228
$T6 = 264
u$ = 320
v$ = 328
w$ = 336
PMCCS_Multiply_I_X PROC					; COMDAT

; 521  :     {

$LN10:
  00000	4c 89 44 24 18	 mov	 QWORD PTR [rsp+24], r8
  00005	48 89 54 24 10	 mov	 QWORD PTR [rsp+16], rdx
  0000a	89 4c 24 08	 mov	 DWORD PTR [rsp+8], ecx
  0000e	55		 push	 rbp
  0000f	57		 push	 rdi
  00010	48 81 ec 48 01
	00 00		 sub	 rsp, 328		; 00000148H
  00017	48 8d 6c 24 20	 lea	 rbp, QWORD PTR [rsp+32]
  0001c	48 8b fc	 mov	 rdi, rsp
  0001f	b9 52 00 00 00	 mov	 ecx, 82			; 00000052H
  00024	b8 cc cc cc cc	 mov	 eax, -858993460		; ccccccccH
  00029	f3 ab		 rep stosd
  0002b	8b 8c 24 68 01
	00 00		 mov	 ecx, DWORD PTR [rsp+360]
  00032	48 c7 85 08 01
	00 00 fe ff ff
	ff		 mov	 QWORD PTR $T6[rbp], -2
  0003d	48 8d 0d 00 00
	00 00		 lea	 rcx, OFFSET FLAT:__C21BA676_pmc_interface_csharp@cpp
  00044	e8 00 00 00 00	 call	 __CheckForDebuggerJustMyCode

; 522  :         if (w == nullptr)

  00049	48 83 bd 50 01
	00 00 00	 cmp	 QWORD PTR w$[rbp], 0
  00051	75 07		 jne	 SHORT $LN2@PMCCS_Mult

; 523  :             return (PMC_STATUS_ARGUMENT_NULL_ERROR);

  00053	b8 fe ff ff ff	 mov	 eax, -2
  00058	eb 28		 jmp	 SHORT $LN1@PMCCS_Mult
$LN2@PMCCS_Mult:

; 524  :         try
; 525  :         {
; 526  :             *w = PMC_Multiply_I_X(u, v);

  0005a	48 8b 95 48 01
	00 00		 mov	 rdx, QWORD PTR v$[rbp]
  00061	8b 8d 40 01 00
	00		 mov	 ecx, DWORD PTR u$[rbp]
  00067	e8 00 00 00 00	 call	 ?PMC_Multiply_I_X@Internal@Core@Math@Palmtree@@YAPEAU__tag_PMC_HANDLE_UINT@1234@IPEAU51234@@Z ; Palmtree::Math::Core::Internal::PMC_Multiply_I_X
  0006c	48 8b 8d 50 01
	00 00		 mov	 rcx, QWORD PTR w$[rbp]
  00073	48 89 01	 mov	 QWORD PTR [rcx], rax

; 527  :             return (PMC_STATUS_OK);

  00076	33 c0		 xor	 eax, eax
  00078	eb 08		 jmp	 SHORT $LN1@PMCCS_Mult
__tryend$PMCCS_Multiply_I_X$1:
  0007a	eb 06		 jmp	 SHORT $LN1@PMCCS_Mult
$LN8@PMCCS_Mult:

; 528  :         }
; 529  :         catch (const Palmtree::Math::Core::Internal::Exception& ex)
; 530  :         {
; 531  :             return (ex.GetStatusCode());

  0007c	8b 85 e4 00 00
	00		 mov	 eax, DWORD PTR $T5[rbp]
$LN1@PMCCS_Mult:

; 532  :         }
; 533  :     }

  00082	48 8b f8	 mov	 rdi, rax
  00085	48 8d 4d e0	 lea	 rcx, QWORD PTR [rbp-32]
  00089	48 8d 15 00 00
	00 00		 lea	 rdx, OFFSET FLAT:PMCCS_Multiply_I_X$rtcFrameData
  00090	e8 00 00 00 00	 call	 _RTC_CheckStackVars
  00095	48 8b c7	 mov	 rax, rdi
  00098	48 8d a5 28 01
	00 00		 lea	 rsp, QWORD PTR [rbp+296]
  0009f	5f		 pop	 rdi
  000a0	5d		 pop	 rbp
  000a1	c3		 ret	 0
  000a2	cc		 int	 3
PMCCS_Multiply_I_X ENDP
_TEXT	ENDS
;	COMDAT text$x
text$x	SEGMENT
ex$4 = 8
$T5 = 228
$T6 = 264
u$ = 320
v$ = 328
w$ = 336
PMCCS_Multiply_I_X$catch$0 PROC

; 528  :         }
; 529  :         catch (const Palmtree::Math::Core::Internal::Exception& ex)
; 530  :         {

  00000	48 89 4c 24 08	 mov	 QWORD PTR [rsp+8], rcx
  00005	48 89 54 24 10	 mov	 QWORD PTR [rsp+16], rdx
  0000a	55		 push	 rbp
  0000b	57		 push	 rdi
  0000c	48 83 ec 28	 sub	 rsp, 40			; 00000028H
  00010	48 8d 6a 20	 lea	 rbp, QWORD PTR [rdx+32]
__catch$PMCCS_Multiply_I_X$0:

; 528  :         }
; 529  :         catch (const Palmtree::Math::Core::Internal::Exception& ex)
; 530  :         {
; 531  :             return (ex.GetStatusCode());

  00014	48 8b 4d 08	 mov	 rcx, QWORD PTR ex$4[rbp]
  00018	e8 00 00 00 00	 call	 ?GetStatusCode@Exception@Internal@Core@Math@Palmtree@@QEBAHXZ ; Palmtree::Math::Core::Internal::Exception::GetStatusCode
  0001d	89 85 e4 00 00
	00		 mov	 DWORD PTR $T5[rbp], eax
  00023	48 8d 05 00 00
	00 00		 lea	 rax, $LN8@PMCCS_Mult
  0002a	eb 07		 jmp	 SHORT $LN9@PMCCS_Mult

; 532  :         }

  0002c	48 8d 05 00 00
	00 00		 lea	 rax, __tryend$PMCCS_Multiply_I_X$1
$LN9@PMCCS_Mult:
  00033	48 83 c4 28	 add	 rsp, 40			; 00000028H
  00037	5f		 pop	 rdi
  00038	5d		 pop	 rbp
  00039	c3		 ret	 0
  0003a	cc		 int	 3
PMCCS_Multiply_I_X$catch$0 ENDP
text$x	ENDS
; Function compile flags: /Odtp /RTCsu /ZI
;	COMDAT text$x
text$x	SEGMENT
ex$4 = 8
$T5 = 228
$T6 = 264
u$ = 320
v$ = 328
w$ = 336
PMCCS_Multiply_I_X$catch$0 PROC

; 530  :         {

  00000	48 89 4c 24 08	 mov	 QWORD PTR [rsp+8], rcx
  00005	48 89 54 24 10	 mov	 QWORD PTR [rsp+16], rdx
  0000a	55		 push	 rbp
  0000b	57		 push	 rdi
  0000c	48 83 ec 28	 sub	 rsp, 40			; 00000028H
  00010	48 8d 6a 20	 lea	 rbp, QWORD PTR [rdx+32]
__catch$PMCCS_Multiply_I_X$0:

; 531  :             return (ex.GetStatusCode());

  00014	48 8b 4d 08	 mov	 rcx, QWORD PTR ex$4[rbp]
  00018	e8 00 00 00 00	 call	 ?GetStatusCode@Exception@Internal@Core@Math@Palmtree@@QEBAHXZ ; Palmtree::Math::Core::Internal::Exception::GetStatusCode
  0001d	89 85 e4 00 00
	00		 mov	 DWORD PTR $T5[rbp], eax
  00023	48 8d 05 00 00
	00 00		 lea	 rax, $LN8@PMCCS_Mult
  0002a	eb 07		 jmp	 SHORT $LN9@PMCCS_Mult

; 532  :         }

  0002c	48 8d 05 00 00
	00 00		 lea	 rax, __tryend$PMCCS_Multiply_I_X$1
$LN9@PMCCS_Mult:
  00033	48 83 c4 28	 add	 rsp, 40			; 00000028H
  00037	5f		 pop	 rdi
  00038	5d		 pop	 rbp
  00039	c3		 ret	 0
  0003a	cc		 int	 3
PMCCS_Multiply_I_X$catch$0 ENDP
text$x	ENDS
; Function compile flags: /Odtp /RTCsu /ZI
; File z:\sources\lunor\repos\rougemeilland\palmtree.math.core.uint\palmtree.math.core.uint\pmc_interface_csharp.cpp
;	COMDAT PMCCS_Subtruct_X_X
_TEXT	SEGMENT
ex$4 = 8
$T5 = 228
$T6 = 264
u$ = 320
v$ = 328
w$ = 336
PMCCS_Subtruct_X_X PROC					; COMDAT

; 506  :     {

$LN10:
  00000	4c 89 44 24 18	 mov	 QWORD PTR [rsp+24], r8
  00005	48 89 54 24 10	 mov	 QWORD PTR [rsp+16], rdx
  0000a	48 89 4c 24 08	 mov	 QWORD PTR [rsp+8], rcx
  0000f	55		 push	 rbp
  00010	57		 push	 rdi
  00011	48 81 ec 48 01
	00 00		 sub	 rsp, 328		; 00000148H
  00018	48 8d 6c 24 20	 lea	 rbp, QWORD PTR [rsp+32]
  0001d	48 8b fc	 mov	 rdi, rsp
  00020	b9 52 00 00 00	 mov	 ecx, 82			; 00000052H
  00025	b8 cc cc cc cc	 mov	 eax, -858993460		; ccccccccH
  0002a	f3 ab		 rep stosd
  0002c	48 8b 8c 24 68
	01 00 00	 mov	 rcx, QWORD PTR [rsp+360]
  00034	48 c7 85 08 01
	00 00 fe ff ff
	ff		 mov	 QWORD PTR $T6[rbp], -2
  0003f	48 8d 0d 00 00
	00 00		 lea	 rcx, OFFSET FLAT:__C21BA676_pmc_interface_csharp@cpp
  00046	e8 00 00 00 00	 call	 __CheckForDebuggerJustMyCode

; 507  :         if (w == nullptr)

  0004b	48 83 bd 50 01
	00 00 00	 cmp	 QWORD PTR w$[rbp], 0
  00053	75 07		 jne	 SHORT $LN2@PMCCS_Subt

; 508  :             return (PMC_STATUS_ARGUMENT_NULL_ERROR);

  00055	b8 fe ff ff ff	 mov	 eax, -2
  0005a	eb 29		 jmp	 SHORT $LN1@PMCCS_Subt
$LN2@PMCCS_Subt:

; 509  :         try
; 510  :         {
; 511  :             *w = PMC_Subtruct_X_X(u, v);

  0005c	48 8b 95 48 01
	00 00		 mov	 rdx, QWORD PTR v$[rbp]
  00063	48 8b 8d 40 01
	00 00		 mov	 rcx, QWORD PTR u$[rbp]
  0006a	e8 00 00 00 00	 call	 ?PMC_Subtruct_X_X@Internal@Core@Math@Palmtree@@YAPEAU__tag_PMC_HANDLE_UINT@1234@PEAU51234@0@Z ; Palmtree::Math::Core::Internal::PMC_Subtruct_X_X
  0006f	48 8b 8d 50 01
	00 00		 mov	 rcx, QWORD PTR w$[rbp]
  00076	48 89 01	 mov	 QWORD PTR [rcx], rax

; 512  :             return (PMC_STATUS_OK);

  00079	33 c0		 xor	 eax, eax
  0007b	eb 08		 jmp	 SHORT $LN1@PMCCS_Subt
__tryend$PMCCS_Subtruct_X_X$1:
  0007d	eb 06		 jmp	 SHORT $LN1@PMCCS_Subt
$LN8@PMCCS_Subt:

; 513  :         }
; 514  :         catch (const Palmtree::Math::Core::Internal::Exception& ex)
; 515  :         {
; 516  :             return (ex.GetStatusCode());

  0007f	8b 85 e4 00 00
	00		 mov	 eax, DWORD PTR $T5[rbp]
$LN1@PMCCS_Subt:

; 517  :         }
; 518  :     }

  00085	48 8b f8	 mov	 rdi, rax
  00088	48 8d 4d e0	 lea	 rcx, QWORD PTR [rbp-32]
  0008c	48 8d 15 00 00
	00 00		 lea	 rdx, OFFSET FLAT:PMCCS_Subtruct_X_X$rtcFrameData
  00093	e8 00 00 00 00	 call	 _RTC_CheckStackVars
  00098	48 8b c7	 mov	 rax, rdi
  0009b	48 8d a5 28 01
	00 00		 lea	 rsp, QWORD PTR [rbp+296]
  000a2	5f		 pop	 rdi
  000a3	5d		 pop	 rbp
  000a4	c3		 ret	 0
  000a5	cc		 int	 3
PMCCS_Subtruct_X_X ENDP
_TEXT	ENDS
;	COMDAT text$x
text$x	SEGMENT
ex$4 = 8
$T5 = 228
$T6 = 264
u$ = 320
v$ = 328
w$ = 336
PMCCS_Subtruct_X_X$catch$0 PROC

; 513  :         }
; 514  :         catch (const Palmtree::Math::Core::Internal::Exception& ex)
; 515  :         {

  00000	48 89 4c 24 08	 mov	 QWORD PTR [rsp+8], rcx
  00005	48 89 54 24 10	 mov	 QWORD PTR [rsp+16], rdx
  0000a	55		 push	 rbp
  0000b	57		 push	 rdi
  0000c	48 83 ec 28	 sub	 rsp, 40			; 00000028H
  00010	48 8d 6a 20	 lea	 rbp, QWORD PTR [rdx+32]
__catch$PMCCS_Subtruct_X_X$0:

; 513  :         }
; 514  :         catch (const Palmtree::Math::Core::Internal::Exception& ex)
; 515  :         {
; 516  :             return (ex.GetStatusCode());

  00014	48 8b 4d 08	 mov	 rcx, QWORD PTR ex$4[rbp]
  00018	e8 00 00 00 00	 call	 ?GetStatusCode@Exception@Internal@Core@Math@Palmtree@@QEBAHXZ ; Palmtree::Math::Core::Internal::Exception::GetStatusCode
  0001d	89 85 e4 00 00
	00		 mov	 DWORD PTR $T5[rbp], eax
  00023	48 8d 05 00 00
	00 00		 lea	 rax, $LN8@PMCCS_Subt
  0002a	eb 07		 jmp	 SHORT $LN9@PMCCS_Subt

; 517  :         }

  0002c	48 8d 05 00 00
	00 00		 lea	 rax, __tryend$PMCCS_Subtruct_X_X$1
$LN9@PMCCS_Subt:
  00033	48 83 c4 28	 add	 rsp, 40			; 00000028H
  00037	5f		 pop	 rdi
  00038	5d		 pop	 rbp
  00039	c3		 ret	 0
  0003a	cc		 int	 3
PMCCS_Subtruct_X_X$catch$0 ENDP
text$x	ENDS
; Function compile flags: /Odtp /RTCsu /ZI
;	COMDAT text$x
text$x	SEGMENT
ex$4 = 8
$T5 = 228
$T6 = 264
u$ = 320
v$ = 328
w$ = 336
PMCCS_Subtruct_X_X$catch$0 PROC

; 515  :         {

  00000	48 89 4c 24 08	 mov	 QWORD PTR [rsp+8], rcx
  00005	48 89 54 24 10	 mov	 QWORD PTR [rsp+16], rdx
  0000a	55		 push	 rbp
  0000b	57		 push	 rdi
  0000c	48 83 ec 28	 sub	 rsp, 40			; 00000028H
  00010	48 8d 6a 20	 lea	 rbp, QWORD PTR [rdx+32]
__catch$PMCCS_Subtruct_X_X$0:

; 516  :             return (ex.GetStatusCode());

  00014	48 8b 4d 08	 mov	 rcx, QWORD PTR ex$4[rbp]
  00018	e8 00 00 00 00	 call	 ?GetStatusCode@Exception@Internal@Core@Math@Palmtree@@QEBAHXZ ; Palmtree::Math::Core::Internal::Exception::GetStatusCode
  0001d	89 85 e4 00 00
	00		 mov	 DWORD PTR $T5[rbp], eax
  00023	48 8d 05 00 00
	00 00		 lea	 rax, $LN8@PMCCS_Subt
  0002a	eb 07		 jmp	 SHORT $LN9@PMCCS_Subt

; 517  :         }

  0002c	48 8d 05 00 00
	00 00		 lea	 rax, __tryend$PMCCS_Subtruct_X_X$1
$LN9@PMCCS_Subt:
  00033	48 83 c4 28	 add	 rsp, 40			; 00000028H
  00037	5f		 pop	 rdi
  00038	5d		 pop	 rbp
  00039	c3		 ret	 0
  0003a	cc		 int	 3
PMCCS_Subtruct_X_X$catch$0 ENDP
text$x	ENDS
; Function compile flags: /Odtp /RTCsu /ZI
; File z:\sources\lunor\repos\rougemeilland\palmtree.math.core.uint\palmtree.math.core.uint\pmc_interface_csharp.cpp
;	COMDAT PMCCS_Subtruct_X_L
_TEXT	SEGMENT
ex$4 = 8
$T5 = 228
$T6 = 264
u$ = 320
v$ = 328
w$ = 336
PMCCS_Subtruct_X_L PROC					; COMDAT

; 491  :     {

$LN10:
  00000	4c 89 44 24 18	 mov	 QWORD PTR [rsp+24], r8
  00005	48 89 54 24 10	 mov	 QWORD PTR [rsp+16], rdx
  0000a	48 89 4c 24 08	 mov	 QWORD PTR [rsp+8], rcx
  0000f	55		 push	 rbp
  00010	57		 push	 rdi
  00011	48 81 ec 48 01
	00 00		 sub	 rsp, 328		; 00000148H
  00018	48 8d 6c 24 20	 lea	 rbp, QWORD PTR [rsp+32]
  0001d	48 8b fc	 mov	 rdi, rsp
  00020	b9 52 00 00 00	 mov	 ecx, 82			; 00000052H
  00025	b8 cc cc cc cc	 mov	 eax, -858993460		; ccccccccH
  0002a	f3 ab		 rep stosd
  0002c	48 8b 8c 24 68
	01 00 00	 mov	 rcx, QWORD PTR [rsp+360]
  00034	48 c7 85 08 01
	00 00 fe ff ff
	ff		 mov	 QWORD PTR $T6[rbp], -2
  0003f	48 8d 0d 00 00
	00 00		 lea	 rcx, OFFSET FLAT:__C21BA676_pmc_interface_csharp@cpp
  00046	e8 00 00 00 00	 call	 __CheckForDebuggerJustMyCode

; 492  :         if (w == nullptr)

  0004b	48 83 bd 50 01
	00 00 00	 cmp	 QWORD PTR w$[rbp], 0
  00053	75 07		 jne	 SHORT $LN2@PMCCS_Subt

; 493  :             return (PMC_STATUS_ARGUMENT_NULL_ERROR);

  00055	b8 fe ff ff ff	 mov	 eax, -2
  0005a	eb 29		 jmp	 SHORT $LN1@PMCCS_Subt
$LN2@PMCCS_Subt:

; 494  :         try
; 495  :         {
; 496  :             *w = PMC_Subtruct_X_L(u, v);

  0005c	48 8b 95 48 01
	00 00		 mov	 rdx, QWORD PTR v$[rbp]
  00063	48 8b 8d 40 01
	00 00		 mov	 rcx, QWORD PTR u$[rbp]
  0006a	e8 00 00 00 00	 call	 ?PMC_Subtruct_X_L@Internal@Core@Math@Palmtree@@YAPEAU__tag_PMC_HANDLE_UINT@1234@PEAU51234@_K@Z ; Palmtree::Math::Core::Internal::PMC_Subtruct_X_L
  0006f	48 8b 8d 50 01
	00 00		 mov	 rcx, QWORD PTR w$[rbp]
  00076	48 89 01	 mov	 QWORD PTR [rcx], rax

; 497  :             return (PMC_STATUS_OK);

  00079	33 c0		 xor	 eax, eax
  0007b	eb 08		 jmp	 SHORT $LN1@PMCCS_Subt
__tryend$PMCCS_Subtruct_X_L$1:
  0007d	eb 06		 jmp	 SHORT $LN1@PMCCS_Subt
$LN8@PMCCS_Subt:

; 498  :         }
; 499  :         catch (const Palmtree::Math::Core::Internal::Exception& ex)
; 500  :         {
; 501  :             return (ex.GetStatusCode());

  0007f	8b 85 e4 00 00
	00		 mov	 eax, DWORD PTR $T5[rbp]
$LN1@PMCCS_Subt:

; 502  :         }
; 503  :     }

  00085	48 8b f8	 mov	 rdi, rax
  00088	48 8d 4d e0	 lea	 rcx, QWORD PTR [rbp-32]
  0008c	48 8d 15 00 00
	00 00		 lea	 rdx, OFFSET FLAT:PMCCS_Subtruct_X_L$rtcFrameData
  00093	e8 00 00 00 00	 call	 _RTC_CheckStackVars
  00098	48 8b c7	 mov	 rax, rdi
  0009b	48 8d a5 28 01
	00 00		 lea	 rsp, QWORD PTR [rbp+296]
  000a2	5f		 pop	 rdi
  000a3	5d		 pop	 rbp
  000a4	c3		 ret	 0
  000a5	cc		 int	 3
PMCCS_Subtruct_X_L ENDP
_TEXT	ENDS
;	COMDAT text$x
text$x	SEGMENT
ex$4 = 8
$T5 = 228
$T6 = 264
u$ = 320
v$ = 328
w$ = 336
PMCCS_Subtruct_X_L$catch$0 PROC

; 498  :         }
; 499  :         catch (const Palmtree::Math::Core::Internal::Exception& ex)
; 500  :         {

  00000	48 89 4c 24 08	 mov	 QWORD PTR [rsp+8], rcx
  00005	48 89 54 24 10	 mov	 QWORD PTR [rsp+16], rdx
  0000a	55		 push	 rbp
  0000b	57		 push	 rdi
  0000c	48 83 ec 28	 sub	 rsp, 40			; 00000028H
  00010	48 8d 6a 20	 lea	 rbp, QWORD PTR [rdx+32]
__catch$PMCCS_Subtruct_X_L$0:

; 498  :         }
; 499  :         catch (const Palmtree::Math::Core::Internal::Exception& ex)
; 500  :         {
; 501  :             return (ex.GetStatusCode());

  00014	48 8b 4d 08	 mov	 rcx, QWORD PTR ex$4[rbp]
  00018	e8 00 00 00 00	 call	 ?GetStatusCode@Exception@Internal@Core@Math@Palmtree@@QEBAHXZ ; Palmtree::Math::Core::Internal::Exception::GetStatusCode
  0001d	89 85 e4 00 00
	00		 mov	 DWORD PTR $T5[rbp], eax
  00023	48 8d 05 00 00
	00 00		 lea	 rax, $LN8@PMCCS_Subt
  0002a	eb 07		 jmp	 SHORT $LN9@PMCCS_Subt

; 502  :         }

  0002c	48 8d 05 00 00
	00 00		 lea	 rax, __tryend$PMCCS_Subtruct_X_L$1
$LN9@PMCCS_Subt:
  00033	48 83 c4 28	 add	 rsp, 40			; 00000028H
  00037	5f		 pop	 rdi
  00038	5d		 pop	 rbp
  00039	c3		 ret	 0
  0003a	cc		 int	 3
PMCCS_Subtruct_X_L$catch$0 ENDP
text$x	ENDS
; Function compile flags: /Odtp /RTCsu /ZI
;	COMDAT text$x
text$x	SEGMENT
ex$4 = 8
$T5 = 228
$T6 = 264
u$ = 320
v$ = 328
w$ = 336
PMCCS_Subtruct_X_L$catch$0 PROC

; 500  :         {

  00000	48 89 4c 24 08	 mov	 QWORD PTR [rsp+8], rcx
  00005	48 89 54 24 10	 mov	 QWORD PTR [rsp+16], rdx
  0000a	55		 push	 rbp
  0000b	57		 push	 rdi
  0000c	48 83 ec 28	 sub	 rsp, 40			; 00000028H
  00010	48 8d 6a 20	 lea	 rbp, QWORD PTR [rdx+32]
__catch$PMCCS_Subtruct_X_L$0:

; 501  :             return (ex.GetStatusCode());

  00014	48 8b 4d 08	 mov	 rcx, QWORD PTR ex$4[rbp]
  00018	e8 00 00 00 00	 call	 ?GetStatusCode@Exception@Internal@Core@Math@Palmtree@@QEBAHXZ ; Palmtree::Math::Core::Internal::Exception::GetStatusCode
  0001d	89 85 e4 00 00
	00		 mov	 DWORD PTR $T5[rbp], eax
  00023	48 8d 05 00 00
	00 00		 lea	 rax, $LN8@PMCCS_Subt
  0002a	eb 07		 jmp	 SHORT $LN9@PMCCS_Subt

; 502  :         }

  0002c	48 8d 05 00 00
	00 00		 lea	 rax, __tryend$PMCCS_Subtruct_X_L$1
$LN9@PMCCS_Subt:
  00033	48 83 c4 28	 add	 rsp, 40			; 00000028H
  00037	5f		 pop	 rdi
  00038	5d		 pop	 rbp
  00039	c3		 ret	 0
  0003a	cc		 int	 3
PMCCS_Subtruct_X_L$catch$0 ENDP
text$x	ENDS
; Function compile flags: /Odtp /RTCsu /ZI
; File z:\sources\lunor\repos\rougemeilland\palmtree.math.core.uint\palmtree.math.core.uint\pmc_interface_csharp.cpp
;	COMDAT PMCCS_Subtruct_X_I
_TEXT	SEGMENT
ex$4 = 8
$T5 = 228
$T6 = 264
u$ = 320
v$ = 328
w$ = 336
PMCCS_Subtruct_X_I PROC					; COMDAT

; 476  :     {

$LN10:
  00000	4c 89 44 24 18	 mov	 QWORD PTR [rsp+24], r8
  00005	89 54 24 10	 mov	 DWORD PTR [rsp+16], edx
  00009	48 89 4c 24 08	 mov	 QWORD PTR [rsp+8], rcx
  0000e	55		 push	 rbp
  0000f	57		 push	 rdi
  00010	48 81 ec 48 01
	00 00		 sub	 rsp, 328		; 00000148H
  00017	48 8d 6c 24 20	 lea	 rbp, QWORD PTR [rsp+32]
  0001c	48 8b fc	 mov	 rdi, rsp
  0001f	b9 52 00 00 00	 mov	 ecx, 82			; 00000052H
  00024	b8 cc cc cc cc	 mov	 eax, -858993460		; ccccccccH
  00029	f3 ab		 rep stosd
  0002b	48 8b 8c 24 68
	01 00 00	 mov	 rcx, QWORD PTR [rsp+360]
  00033	48 c7 85 08 01
	00 00 fe ff ff
	ff		 mov	 QWORD PTR $T6[rbp], -2
  0003e	48 8d 0d 00 00
	00 00		 lea	 rcx, OFFSET FLAT:__C21BA676_pmc_interface_csharp@cpp
  00045	e8 00 00 00 00	 call	 __CheckForDebuggerJustMyCode

; 477  :         if (w == nullptr)

  0004a	48 83 bd 50 01
	00 00 00	 cmp	 QWORD PTR w$[rbp], 0
  00052	75 07		 jne	 SHORT $LN2@PMCCS_Subt

; 478  :             return (PMC_STATUS_ARGUMENT_NULL_ERROR);

  00054	b8 fe ff ff ff	 mov	 eax, -2
  00059	eb 28		 jmp	 SHORT $LN1@PMCCS_Subt
$LN2@PMCCS_Subt:

; 479  :         try
; 480  :         {
; 481  :             *w = PMC_Subtruct_X_I(u, v);

  0005b	8b 95 48 01 00
	00		 mov	 edx, DWORD PTR v$[rbp]
  00061	48 8b 8d 40 01
	00 00		 mov	 rcx, QWORD PTR u$[rbp]
  00068	e8 00 00 00 00	 call	 ?PMC_Subtruct_X_I@Internal@Core@Math@Palmtree@@YAPEAU__tag_PMC_HANDLE_UINT@1234@PEAU51234@I@Z ; Palmtree::Math::Core::Internal::PMC_Subtruct_X_I
  0006d	48 8b 8d 50 01
	00 00		 mov	 rcx, QWORD PTR w$[rbp]
  00074	48 89 01	 mov	 QWORD PTR [rcx], rax

; 482  :             return (PMC_STATUS_OK);

  00077	33 c0		 xor	 eax, eax
  00079	eb 08		 jmp	 SHORT $LN1@PMCCS_Subt
__tryend$PMCCS_Subtruct_X_I$1:
  0007b	eb 06		 jmp	 SHORT $LN1@PMCCS_Subt
$LN8@PMCCS_Subt:

; 483  :         }
; 484  :         catch (const Palmtree::Math::Core::Internal::Exception& ex)
; 485  :         {
; 486  :             return (ex.GetStatusCode());

  0007d	8b 85 e4 00 00
	00		 mov	 eax, DWORD PTR $T5[rbp]
$LN1@PMCCS_Subt:

; 487  :         }
; 488  :     }

  00083	48 8b f8	 mov	 rdi, rax
  00086	48 8d 4d e0	 lea	 rcx, QWORD PTR [rbp-32]
  0008a	48 8d 15 00 00
	00 00		 lea	 rdx, OFFSET FLAT:PMCCS_Subtruct_X_I$rtcFrameData
  00091	e8 00 00 00 00	 call	 _RTC_CheckStackVars
  00096	48 8b c7	 mov	 rax, rdi
  00099	48 8d a5 28 01
	00 00		 lea	 rsp, QWORD PTR [rbp+296]
  000a0	5f		 pop	 rdi
  000a1	5d		 pop	 rbp
  000a2	c3		 ret	 0
  000a3	cc		 int	 3
PMCCS_Subtruct_X_I ENDP
_TEXT	ENDS
;	COMDAT text$x
text$x	SEGMENT
ex$4 = 8
$T5 = 228
$T6 = 264
u$ = 320
v$ = 328
w$ = 336
PMCCS_Subtruct_X_I$catch$0 PROC

; 483  :         }
; 484  :         catch (const Palmtree::Math::Core::Internal::Exception& ex)
; 485  :         {

  00000	48 89 4c 24 08	 mov	 QWORD PTR [rsp+8], rcx
  00005	48 89 54 24 10	 mov	 QWORD PTR [rsp+16], rdx
  0000a	55		 push	 rbp
  0000b	57		 push	 rdi
  0000c	48 83 ec 28	 sub	 rsp, 40			; 00000028H
  00010	48 8d 6a 20	 lea	 rbp, QWORD PTR [rdx+32]
__catch$PMCCS_Subtruct_X_I$0:

; 483  :         }
; 484  :         catch (const Palmtree::Math::Core::Internal::Exception& ex)
; 485  :         {
; 486  :             return (ex.GetStatusCode());

  00014	48 8b 4d 08	 mov	 rcx, QWORD PTR ex$4[rbp]
  00018	e8 00 00 00 00	 call	 ?GetStatusCode@Exception@Internal@Core@Math@Palmtree@@QEBAHXZ ; Palmtree::Math::Core::Internal::Exception::GetStatusCode
  0001d	89 85 e4 00 00
	00		 mov	 DWORD PTR $T5[rbp], eax
  00023	48 8d 05 00 00
	00 00		 lea	 rax, $LN8@PMCCS_Subt
  0002a	eb 07		 jmp	 SHORT $LN9@PMCCS_Subt

; 487  :         }

  0002c	48 8d 05 00 00
	00 00		 lea	 rax, __tryend$PMCCS_Subtruct_X_I$1
$LN9@PMCCS_Subt:
  00033	48 83 c4 28	 add	 rsp, 40			; 00000028H
  00037	5f		 pop	 rdi
  00038	5d		 pop	 rbp
  00039	c3		 ret	 0
  0003a	cc		 int	 3
PMCCS_Subtruct_X_I$catch$0 ENDP
text$x	ENDS
; Function compile flags: /Odtp /RTCsu /ZI
;	COMDAT text$x
text$x	SEGMENT
ex$4 = 8
$T5 = 228
$T6 = 264
u$ = 320
v$ = 328
w$ = 336
PMCCS_Subtruct_X_I$catch$0 PROC

; 485  :         {

  00000	48 89 4c 24 08	 mov	 QWORD PTR [rsp+8], rcx
  00005	48 89 54 24 10	 mov	 QWORD PTR [rsp+16], rdx
  0000a	55		 push	 rbp
  0000b	57		 push	 rdi
  0000c	48 83 ec 28	 sub	 rsp, 40			; 00000028H
  00010	48 8d 6a 20	 lea	 rbp, QWORD PTR [rdx+32]
__catch$PMCCS_Subtruct_X_I$0:

; 486  :             return (ex.GetStatusCode());

  00014	48 8b 4d 08	 mov	 rcx, QWORD PTR ex$4[rbp]
  00018	e8 00 00 00 00	 call	 ?GetStatusCode@Exception@Internal@Core@Math@Palmtree@@QEBAHXZ ; Palmtree::Math::Core::Internal::Exception::GetStatusCode
  0001d	89 85 e4 00 00
	00		 mov	 DWORD PTR $T5[rbp], eax
  00023	48 8d 05 00 00
	00 00		 lea	 rax, $LN8@PMCCS_Subt
  0002a	eb 07		 jmp	 SHORT $LN9@PMCCS_Subt

; 487  :         }

  0002c	48 8d 05 00 00
	00 00		 lea	 rax, __tryend$PMCCS_Subtruct_X_I$1
$LN9@PMCCS_Subt:
  00033	48 83 c4 28	 add	 rsp, 40			; 00000028H
  00037	5f		 pop	 rdi
  00038	5d		 pop	 rbp
  00039	c3		 ret	 0
  0003a	cc		 int	 3
PMCCS_Subtruct_X_I$catch$0 ENDP
text$x	ENDS
; Function compile flags: /Odtp /RTCsu /ZI
; File z:\sources\lunor\repos\rougemeilland\palmtree.math.core.uint\palmtree.math.core.uint\pmc_interface_csharp.cpp
;	COMDAT PMCCS_Subtruct_L_X
_TEXT	SEGMENT
ex$4 = 8
$T5 = 228
$T6 = 264
u$ = 320
v$ = 328
w$ = 336
PMCCS_Subtruct_L_X PROC					; COMDAT

; 461  :     {

$LN10:
  00000	4c 89 44 24 18	 mov	 QWORD PTR [rsp+24], r8
  00005	48 89 54 24 10	 mov	 QWORD PTR [rsp+16], rdx
  0000a	48 89 4c 24 08	 mov	 QWORD PTR [rsp+8], rcx
  0000f	55		 push	 rbp
  00010	57		 push	 rdi
  00011	48 81 ec 48 01
	00 00		 sub	 rsp, 328		; 00000148H
  00018	48 8d 6c 24 20	 lea	 rbp, QWORD PTR [rsp+32]
  0001d	48 8b fc	 mov	 rdi, rsp
  00020	b9 52 00 00 00	 mov	 ecx, 82			; 00000052H
  00025	b8 cc cc cc cc	 mov	 eax, -858993460		; ccccccccH
  0002a	f3 ab		 rep stosd
  0002c	48 8b 8c 24 68
	01 00 00	 mov	 rcx, QWORD PTR [rsp+360]
  00034	48 c7 85 08 01
	00 00 fe ff ff
	ff		 mov	 QWORD PTR $T6[rbp], -2
  0003f	48 8d 0d 00 00
	00 00		 lea	 rcx, OFFSET FLAT:__C21BA676_pmc_interface_csharp@cpp
  00046	e8 00 00 00 00	 call	 __CheckForDebuggerJustMyCode

; 462  :         if (w == nullptr)

  0004b	48 83 bd 50 01
	00 00 00	 cmp	 QWORD PTR w$[rbp], 0
  00053	75 07		 jne	 SHORT $LN2@PMCCS_Subt

; 463  :             return (PMC_STATUS_ARGUMENT_NULL_ERROR);

  00055	b8 fe ff ff ff	 mov	 eax, -2
  0005a	eb 29		 jmp	 SHORT $LN1@PMCCS_Subt
$LN2@PMCCS_Subt:

; 464  :         try
; 465  :         {
; 466  :             *w = PMC_Subtruct_L_X(u, v);

  0005c	48 8b 95 48 01
	00 00		 mov	 rdx, QWORD PTR v$[rbp]
  00063	48 8b 8d 40 01
	00 00		 mov	 rcx, QWORD PTR u$[rbp]
  0006a	e8 00 00 00 00	 call	 ?PMC_Subtruct_L_X@Internal@Core@Math@Palmtree@@YA_K_KPEAU__tag_PMC_HANDLE_UINT@1234@@Z ; Palmtree::Math::Core::Internal::PMC_Subtruct_L_X
  0006f	48 8b 8d 50 01
	00 00		 mov	 rcx, QWORD PTR w$[rbp]
  00076	48 89 01	 mov	 QWORD PTR [rcx], rax

; 467  :             return (PMC_STATUS_OK);

  00079	33 c0		 xor	 eax, eax
  0007b	eb 08		 jmp	 SHORT $LN1@PMCCS_Subt
__tryend$PMCCS_Subtruct_L_X$1:
  0007d	eb 06		 jmp	 SHORT $LN1@PMCCS_Subt
$LN8@PMCCS_Subt:

; 468  :         }
; 469  :         catch (const Palmtree::Math::Core::Internal::Exception& ex)
; 470  :         {
; 471  :             return (ex.GetStatusCode());

  0007f	8b 85 e4 00 00
	00		 mov	 eax, DWORD PTR $T5[rbp]
$LN1@PMCCS_Subt:

; 472  :         }
; 473  :     }

  00085	48 8b f8	 mov	 rdi, rax
  00088	48 8d 4d e0	 lea	 rcx, QWORD PTR [rbp-32]
  0008c	48 8d 15 00 00
	00 00		 lea	 rdx, OFFSET FLAT:PMCCS_Subtruct_L_X$rtcFrameData
  00093	e8 00 00 00 00	 call	 _RTC_CheckStackVars
  00098	48 8b c7	 mov	 rax, rdi
  0009b	48 8d a5 28 01
	00 00		 lea	 rsp, QWORD PTR [rbp+296]
  000a2	5f		 pop	 rdi
  000a3	5d		 pop	 rbp
  000a4	c3		 ret	 0
  000a5	cc		 int	 3
PMCCS_Subtruct_L_X ENDP
_TEXT	ENDS
;	COMDAT text$x
text$x	SEGMENT
ex$4 = 8
$T5 = 228
$T6 = 264
u$ = 320
v$ = 328
w$ = 336
PMCCS_Subtruct_L_X$catch$0 PROC

; 468  :         }
; 469  :         catch (const Palmtree::Math::Core::Internal::Exception& ex)
; 470  :         {

  00000	48 89 4c 24 08	 mov	 QWORD PTR [rsp+8], rcx
  00005	48 89 54 24 10	 mov	 QWORD PTR [rsp+16], rdx
  0000a	55		 push	 rbp
  0000b	57		 push	 rdi
  0000c	48 83 ec 28	 sub	 rsp, 40			; 00000028H
  00010	48 8d 6a 20	 lea	 rbp, QWORD PTR [rdx+32]
__catch$PMCCS_Subtruct_L_X$0:

; 468  :         }
; 469  :         catch (const Palmtree::Math::Core::Internal::Exception& ex)
; 470  :         {
; 471  :             return (ex.GetStatusCode());

  00014	48 8b 4d 08	 mov	 rcx, QWORD PTR ex$4[rbp]
  00018	e8 00 00 00 00	 call	 ?GetStatusCode@Exception@Internal@Core@Math@Palmtree@@QEBAHXZ ; Palmtree::Math::Core::Internal::Exception::GetStatusCode
  0001d	89 85 e4 00 00
	00		 mov	 DWORD PTR $T5[rbp], eax
  00023	48 8d 05 00 00
	00 00		 lea	 rax, $LN8@PMCCS_Subt
  0002a	eb 07		 jmp	 SHORT $LN9@PMCCS_Subt

; 472  :         }

  0002c	48 8d 05 00 00
	00 00		 lea	 rax, __tryend$PMCCS_Subtruct_L_X$1
$LN9@PMCCS_Subt:
  00033	48 83 c4 28	 add	 rsp, 40			; 00000028H
  00037	5f		 pop	 rdi
  00038	5d		 pop	 rbp
  00039	c3		 ret	 0
  0003a	cc		 int	 3
PMCCS_Subtruct_L_X$catch$0 ENDP
text$x	ENDS
; Function compile flags: /Odtp /RTCsu /ZI
;	COMDAT text$x
text$x	SEGMENT
ex$4 = 8
$T5 = 228
$T6 = 264
u$ = 320
v$ = 328
w$ = 336
PMCCS_Subtruct_L_X$catch$0 PROC

; 470  :         {

  00000	48 89 4c 24 08	 mov	 QWORD PTR [rsp+8], rcx
  00005	48 89 54 24 10	 mov	 QWORD PTR [rsp+16], rdx
  0000a	55		 push	 rbp
  0000b	57		 push	 rdi
  0000c	48 83 ec 28	 sub	 rsp, 40			; 00000028H
  00010	48 8d 6a 20	 lea	 rbp, QWORD PTR [rdx+32]
__catch$PMCCS_Subtruct_L_X$0:

; 471  :             return (ex.GetStatusCode());

  00014	48 8b 4d 08	 mov	 rcx, QWORD PTR ex$4[rbp]
  00018	e8 00 00 00 00	 call	 ?GetStatusCode@Exception@Internal@Core@Math@Palmtree@@QEBAHXZ ; Palmtree::Math::Core::Internal::Exception::GetStatusCode
  0001d	89 85 e4 00 00
	00		 mov	 DWORD PTR $T5[rbp], eax
  00023	48 8d 05 00 00
	00 00		 lea	 rax, $LN8@PMCCS_Subt
  0002a	eb 07		 jmp	 SHORT $LN9@PMCCS_Subt

; 472  :         }

  0002c	48 8d 05 00 00
	00 00		 lea	 rax, __tryend$PMCCS_Subtruct_L_X$1
$LN9@PMCCS_Subt:
  00033	48 83 c4 28	 add	 rsp, 40			; 00000028H
  00037	5f		 pop	 rdi
  00038	5d		 pop	 rbp
  00039	c3		 ret	 0
  0003a	cc		 int	 3
PMCCS_Subtruct_L_X$catch$0 ENDP
text$x	ENDS
; Function compile flags: /Odtp /RTCsu /ZI
; File z:\sources\lunor\repos\rougemeilland\palmtree.math.core.uint\palmtree.math.core.uint\pmc_interface_csharp.cpp
;	COMDAT PMCCS_Subtruct_I_X
_TEXT	SEGMENT
ex$4 = 8
$T5 = 228
$T6 = 264
u$ = 320
v$ = 328
w$ = 336
PMCCS_Subtruct_I_X PROC					; COMDAT

; 446  :     {

$LN10:
  00000	4c 89 44 24 18	 mov	 QWORD PTR [rsp+24], r8
  00005	48 89 54 24 10	 mov	 QWORD PTR [rsp+16], rdx
  0000a	89 4c 24 08	 mov	 DWORD PTR [rsp+8], ecx
  0000e	55		 push	 rbp
  0000f	57		 push	 rdi
  00010	48 81 ec 48 01
	00 00		 sub	 rsp, 328		; 00000148H
  00017	48 8d 6c 24 20	 lea	 rbp, QWORD PTR [rsp+32]
  0001c	48 8b fc	 mov	 rdi, rsp
  0001f	b9 52 00 00 00	 mov	 ecx, 82			; 00000052H
  00024	b8 cc cc cc cc	 mov	 eax, -858993460		; ccccccccH
  00029	f3 ab		 rep stosd
  0002b	8b 8c 24 68 01
	00 00		 mov	 ecx, DWORD PTR [rsp+360]
  00032	48 c7 85 08 01
	00 00 fe ff ff
	ff		 mov	 QWORD PTR $T6[rbp], -2
  0003d	48 8d 0d 00 00
	00 00		 lea	 rcx, OFFSET FLAT:__C21BA676_pmc_interface_csharp@cpp
  00044	e8 00 00 00 00	 call	 __CheckForDebuggerJustMyCode

; 447  :         if (w == nullptr)

  00049	48 83 bd 50 01
	00 00 00	 cmp	 QWORD PTR w$[rbp], 0
  00051	75 07		 jne	 SHORT $LN2@PMCCS_Subt

; 448  :             return (PMC_STATUS_ARGUMENT_NULL_ERROR);

  00053	b8 fe ff ff ff	 mov	 eax, -2
  00058	eb 27		 jmp	 SHORT $LN1@PMCCS_Subt
$LN2@PMCCS_Subt:

; 449  :         try
; 450  :         {
; 451  :             *w = PMC_Subtruct_I_X(u, v);

  0005a	48 8b 95 48 01
	00 00		 mov	 rdx, QWORD PTR v$[rbp]
  00061	8b 8d 40 01 00
	00		 mov	 ecx, DWORD PTR u$[rbp]
  00067	e8 00 00 00 00	 call	 ?PMC_Subtruct_I_X@Internal@Core@Math@Palmtree@@YAIIPEAU__tag_PMC_HANDLE_UINT@1234@@Z ; Palmtree::Math::Core::Internal::PMC_Subtruct_I_X
  0006c	48 8b 8d 50 01
	00 00		 mov	 rcx, QWORD PTR w$[rbp]
  00073	89 01		 mov	 DWORD PTR [rcx], eax

; 452  :             return (PMC_STATUS_OK);

  00075	33 c0		 xor	 eax, eax
  00077	eb 08		 jmp	 SHORT $LN1@PMCCS_Subt
__tryend$PMCCS_Subtruct_I_X$1:
  00079	eb 06		 jmp	 SHORT $LN1@PMCCS_Subt
$LN8@PMCCS_Subt:

; 453  :         }
; 454  :         catch (const Palmtree::Math::Core::Internal::Exception& ex)
; 455  :         {
; 456  :             return (ex.GetStatusCode());

  0007b	8b 85 e4 00 00
	00		 mov	 eax, DWORD PTR $T5[rbp]
$LN1@PMCCS_Subt:

; 457  :         }
; 458  :     }

  00081	48 8b f8	 mov	 rdi, rax
  00084	48 8d 4d e0	 lea	 rcx, QWORD PTR [rbp-32]
  00088	48 8d 15 00 00
	00 00		 lea	 rdx, OFFSET FLAT:PMCCS_Subtruct_I_X$rtcFrameData
  0008f	e8 00 00 00 00	 call	 _RTC_CheckStackVars
  00094	48 8b c7	 mov	 rax, rdi
  00097	48 8d a5 28 01
	00 00		 lea	 rsp, QWORD PTR [rbp+296]
  0009e	5f		 pop	 rdi
  0009f	5d		 pop	 rbp
  000a0	c3		 ret	 0
  000a1	cc		 int	 3
PMCCS_Subtruct_I_X ENDP
_TEXT	ENDS
;	COMDAT text$x
text$x	SEGMENT
ex$4 = 8
$T5 = 228
$T6 = 264
u$ = 320
v$ = 328
w$ = 336
PMCCS_Subtruct_I_X$catch$0 PROC

; 453  :         }
; 454  :         catch (const Palmtree::Math::Core::Internal::Exception& ex)
; 455  :         {

  00000	48 89 4c 24 08	 mov	 QWORD PTR [rsp+8], rcx
  00005	48 89 54 24 10	 mov	 QWORD PTR [rsp+16], rdx
  0000a	55		 push	 rbp
  0000b	57		 push	 rdi
  0000c	48 83 ec 28	 sub	 rsp, 40			; 00000028H
  00010	48 8d 6a 20	 lea	 rbp, QWORD PTR [rdx+32]
__catch$PMCCS_Subtruct_I_X$0:

; 453  :         }
; 454  :         catch (const Palmtree::Math::Core::Internal::Exception& ex)
; 455  :         {
; 456  :             return (ex.GetStatusCode());

  00014	48 8b 4d 08	 mov	 rcx, QWORD PTR ex$4[rbp]
  00018	e8 00 00 00 00	 call	 ?GetStatusCode@Exception@Internal@Core@Math@Palmtree@@QEBAHXZ ; Palmtree::Math::Core::Internal::Exception::GetStatusCode
  0001d	89 85 e4 00 00
	00		 mov	 DWORD PTR $T5[rbp], eax
  00023	48 8d 05 00 00
	00 00		 lea	 rax, $LN8@PMCCS_Subt
  0002a	eb 07		 jmp	 SHORT $LN9@PMCCS_Subt

; 457  :         }

  0002c	48 8d 05 00 00
	00 00		 lea	 rax, __tryend$PMCCS_Subtruct_I_X$1
$LN9@PMCCS_Subt:
  00033	48 83 c4 28	 add	 rsp, 40			; 00000028H
  00037	5f		 pop	 rdi
  00038	5d		 pop	 rbp
  00039	c3		 ret	 0
  0003a	cc		 int	 3
PMCCS_Subtruct_I_X$catch$0 ENDP
text$x	ENDS
; Function compile flags: /Odtp /RTCsu /ZI
;	COMDAT text$x
text$x	SEGMENT
ex$4 = 8
$T5 = 228
$T6 = 264
u$ = 320
v$ = 328
w$ = 336
PMCCS_Subtruct_I_X$catch$0 PROC

; 455  :         {

  00000	48 89 4c 24 08	 mov	 QWORD PTR [rsp+8], rcx
  00005	48 89 54 24 10	 mov	 QWORD PTR [rsp+16], rdx
  0000a	55		 push	 rbp
  0000b	57		 push	 rdi
  0000c	48 83 ec 28	 sub	 rsp, 40			; 00000028H
  00010	48 8d 6a 20	 lea	 rbp, QWORD PTR [rdx+32]
__catch$PMCCS_Subtruct_I_X$0:

; 456  :             return (ex.GetStatusCode());

  00014	48 8b 4d 08	 mov	 rcx, QWORD PTR ex$4[rbp]
  00018	e8 00 00 00 00	 call	 ?GetStatusCode@Exception@Internal@Core@Math@Palmtree@@QEBAHXZ ; Palmtree::Math::Core::Internal::Exception::GetStatusCode
  0001d	89 85 e4 00 00
	00		 mov	 DWORD PTR $T5[rbp], eax
  00023	48 8d 05 00 00
	00 00		 lea	 rax, $LN8@PMCCS_Subt
  0002a	eb 07		 jmp	 SHORT $LN9@PMCCS_Subt

; 457  :         }

  0002c	48 8d 05 00 00
	00 00		 lea	 rax, __tryend$PMCCS_Subtruct_I_X$1
$LN9@PMCCS_Subt:
  00033	48 83 c4 28	 add	 rsp, 40			; 00000028H
  00037	5f		 pop	 rdi
  00038	5d		 pop	 rbp
  00039	c3		 ret	 0
  0003a	cc		 int	 3
PMCCS_Subtruct_I_X$catch$0 ENDP
text$x	ENDS
; Function compile flags: /Odtp /RTCsu /ZI
; File z:\sources\lunor\repos\rougemeilland\palmtree.math.core.uint\palmtree.math.core.uint\pmc_interface_csharp.cpp
;	COMDAT PMCCS_Add_X_X
_TEXT	SEGMENT
ex$4 = 8
$T5 = 228
$T6 = 264
u$ = 320
v$ = 328
w$ = 336
PMCCS_Add_X_X PROC					; COMDAT

; 431  :     {

$LN10:
  00000	4c 89 44 24 18	 mov	 QWORD PTR [rsp+24], r8
  00005	48 89 54 24 10	 mov	 QWORD PTR [rsp+16], rdx
  0000a	48 89 4c 24 08	 mov	 QWORD PTR [rsp+8], rcx
  0000f	55		 push	 rbp
  00010	57		 push	 rdi
  00011	48 81 ec 48 01
	00 00		 sub	 rsp, 328		; 00000148H
  00018	48 8d 6c 24 20	 lea	 rbp, QWORD PTR [rsp+32]
  0001d	48 8b fc	 mov	 rdi, rsp
  00020	b9 52 00 00 00	 mov	 ecx, 82			; 00000052H
  00025	b8 cc cc cc cc	 mov	 eax, -858993460		; ccccccccH
  0002a	f3 ab		 rep stosd
  0002c	48 8b 8c 24 68
	01 00 00	 mov	 rcx, QWORD PTR [rsp+360]
  00034	48 c7 85 08 01
	00 00 fe ff ff
	ff		 mov	 QWORD PTR $T6[rbp], -2
  0003f	48 8d 0d 00 00
	00 00		 lea	 rcx, OFFSET FLAT:__C21BA676_pmc_interface_csharp@cpp
  00046	e8 00 00 00 00	 call	 __CheckForDebuggerJustMyCode

; 432  :         if (w == nullptr)

  0004b	48 83 bd 50 01
	00 00 00	 cmp	 QWORD PTR w$[rbp], 0
  00053	75 07		 jne	 SHORT $LN2@PMCCS_Add_

; 433  :             return (PMC_STATUS_ARGUMENT_NULL_ERROR);

  00055	b8 fe ff ff ff	 mov	 eax, -2
  0005a	eb 29		 jmp	 SHORT $LN1@PMCCS_Add_
$LN2@PMCCS_Add_:

; 434  :         try
; 435  :         {
; 436  :             *w = PMC_Add_X_X(u, v);

  0005c	48 8b 95 48 01
	00 00		 mov	 rdx, QWORD PTR v$[rbp]
  00063	48 8b 8d 40 01
	00 00		 mov	 rcx, QWORD PTR u$[rbp]
  0006a	e8 00 00 00 00	 call	 ?PMC_Add_X_X@Internal@Core@Math@Palmtree@@YAPEAU__tag_PMC_HANDLE_UINT@1234@PEAU51234@0@Z ; Palmtree::Math::Core::Internal::PMC_Add_X_X
  0006f	48 8b 8d 50 01
	00 00		 mov	 rcx, QWORD PTR w$[rbp]
  00076	48 89 01	 mov	 QWORD PTR [rcx], rax

; 437  :             return (PMC_STATUS_OK);

  00079	33 c0		 xor	 eax, eax
  0007b	eb 08		 jmp	 SHORT $LN1@PMCCS_Add_
__tryend$PMCCS_Add_X_X$1:
  0007d	eb 06		 jmp	 SHORT $LN1@PMCCS_Add_
$LN8@PMCCS_Add_:

; 438  :         }
; 439  :         catch (const Palmtree::Math::Core::Internal::Exception& ex)
; 440  :         {
; 441  :             return (ex.GetStatusCode());

  0007f	8b 85 e4 00 00
	00		 mov	 eax, DWORD PTR $T5[rbp]
$LN1@PMCCS_Add_:

; 442  :         }
; 443  :     }

  00085	48 8b f8	 mov	 rdi, rax
  00088	48 8d 4d e0	 lea	 rcx, QWORD PTR [rbp-32]
  0008c	48 8d 15 00 00
	00 00		 lea	 rdx, OFFSET FLAT:PMCCS_Add_X_X$rtcFrameData
  00093	e8 00 00 00 00	 call	 _RTC_CheckStackVars
  00098	48 8b c7	 mov	 rax, rdi
  0009b	48 8d a5 28 01
	00 00		 lea	 rsp, QWORD PTR [rbp+296]
  000a2	5f		 pop	 rdi
  000a3	5d		 pop	 rbp
  000a4	c3		 ret	 0
  000a5	cc		 int	 3
PMCCS_Add_X_X ENDP
_TEXT	ENDS
;	COMDAT text$x
text$x	SEGMENT
ex$4 = 8
$T5 = 228
$T6 = 264
u$ = 320
v$ = 328
w$ = 336
PMCCS_Add_X_X$catch$0 PROC

; 438  :         }
; 439  :         catch (const Palmtree::Math::Core::Internal::Exception& ex)
; 440  :         {

  00000	48 89 4c 24 08	 mov	 QWORD PTR [rsp+8], rcx
  00005	48 89 54 24 10	 mov	 QWORD PTR [rsp+16], rdx
  0000a	55		 push	 rbp
  0000b	57		 push	 rdi
  0000c	48 83 ec 28	 sub	 rsp, 40			; 00000028H
  00010	48 8d 6a 20	 lea	 rbp, QWORD PTR [rdx+32]
__catch$PMCCS_Add_X_X$0:

; 438  :         }
; 439  :         catch (const Palmtree::Math::Core::Internal::Exception& ex)
; 440  :         {
; 441  :             return (ex.GetStatusCode());

  00014	48 8b 4d 08	 mov	 rcx, QWORD PTR ex$4[rbp]
  00018	e8 00 00 00 00	 call	 ?GetStatusCode@Exception@Internal@Core@Math@Palmtree@@QEBAHXZ ; Palmtree::Math::Core::Internal::Exception::GetStatusCode
  0001d	89 85 e4 00 00
	00		 mov	 DWORD PTR $T5[rbp], eax
  00023	48 8d 05 00 00
	00 00		 lea	 rax, $LN8@PMCCS_Add_
  0002a	eb 07		 jmp	 SHORT $LN9@PMCCS_Add_

; 442  :         }

  0002c	48 8d 05 00 00
	00 00		 lea	 rax, __tryend$PMCCS_Add_X_X$1
$LN9@PMCCS_Add_:
  00033	48 83 c4 28	 add	 rsp, 40			; 00000028H
  00037	5f		 pop	 rdi
  00038	5d		 pop	 rbp
  00039	c3		 ret	 0
  0003a	cc		 int	 3
PMCCS_Add_X_X$catch$0 ENDP
text$x	ENDS
; Function compile flags: /Odtp /RTCsu /ZI
;	COMDAT text$x
text$x	SEGMENT
ex$4 = 8
$T5 = 228
$T6 = 264
u$ = 320
v$ = 328
w$ = 336
PMCCS_Add_X_X$catch$0 PROC

; 440  :         {

  00000	48 89 4c 24 08	 mov	 QWORD PTR [rsp+8], rcx
  00005	48 89 54 24 10	 mov	 QWORD PTR [rsp+16], rdx
  0000a	55		 push	 rbp
  0000b	57		 push	 rdi
  0000c	48 83 ec 28	 sub	 rsp, 40			; 00000028H
  00010	48 8d 6a 20	 lea	 rbp, QWORD PTR [rdx+32]
__catch$PMCCS_Add_X_X$0:

; 441  :             return (ex.GetStatusCode());

  00014	48 8b 4d 08	 mov	 rcx, QWORD PTR ex$4[rbp]
  00018	e8 00 00 00 00	 call	 ?GetStatusCode@Exception@Internal@Core@Math@Palmtree@@QEBAHXZ ; Palmtree::Math::Core::Internal::Exception::GetStatusCode
  0001d	89 85 e4 00 00
	00		 mov	 DWORD PTR $T5[rbp], eax
  00023	48 8d 05 00 00
	00 00		 lea	 rax, $LN8@PMCCS_Add_
  0002a	eb 07		 jmp	 SHORT $LN9@PMCCS_Add_

; 442  :         }

  0002c	48 8d 05 00 00
	00 00		 lea	 rax, __tryend$PMCCS_Add_X_X$1
$LN9@PMCCS_Add_:
  00033	48 83 c4 28	 add	 rsp, 40			; 00000028H
  00037	5f		 pop	 rdi
  00038	5d		 pop	 rbp
  00039	c3		 ret	 0
  0003a	cc		 int	 3
PMCCS_Add_X_X$catch$0 ENDP
text$x	ENDS
; Function compile flags: /Odtp /RTCsu /ZI
; File z:\sources\lunor\repos\rougemeilland\palmtree.math.core.uint\palmtree.math.core.uint\pmc_interface_csharp.cpp
;	COMDAT PMCCS_Add_X_L
_TEXT	SEGMENT
ex$4 = 8
$T5 = 228
$T6 = 264
u$ = 320
v$ = 328
w$ = 336
PMCCS_Add_X_L PROC					; COMDAT

; 416  :     {

$LN10:
  00000	4c 89 44 24 18	 mov	 QWORD PTR [rsp+24], r8
  00005	48 89 54 24 10	 mov	 QWORD PTR [rsp+16], rdx
  0000a	48 89 4c 24 08	 mov	 QWORD PTR [rsp+8], rcx
  0000f	55		 push	 rbp
  00010	57		 push	 rdi
  00011	48 81 ec 48 01
	00 00		 sub	 rsp, 328		; 00000148H
  00018	48 8d 6c 24 20	 lea	 rbp, QWORD PTR [rsp+32]
  0001d	48 8b fc	 mov	 rdi, rsp
  00020	b9 52 00 00 00	 mov	 ecx, 82			; 00000052H
  00025	b8 cc cc cc cc	 mov	 eax, -858993460		; ccccccccH
  0002a	f3 ab		 rep stosd
  0002c	48 8b 8c 24 68
	01 00 00	 mov	 rcx, QWORD PTR [rsp+360]
  00034	48 c7 85 08 01
	00 00 fe ff ff
	ff		 mov	 QWORD PTR $T6[rbp], -2
  0003f	48 8d 0d 00 00
	00 00		 lea	 rcx, OFFSET FLAT:__C21BA676_pmc_interface_csharp@cpp
  00046	e8 00 00 00 00	 call	 __CheckForDebuggerJustMyCode

; 417  :         if (w == nullptr)

  0004b	48 83 bd 50 01
	00 00 00	 cmp	 QWORD PTR w$[rbp], 0
  00053	75 07		 jne	 SHORT $LN2@PMCCS_Add_

; 418  :             return (PMC_STATUS_ARGUMENT_NULL_ERROR);

  00055	b8 fe ff ff ff	 mov	 eax, -2
  0005a	eb 29		 jmp	 SHORT $LN1@PMCCS_Add_
$LN2@PMCCS_Add_:

; 419  :         try
; 420  :         {
; 421  :             *w = PMC_Add_X_L(u, v);

  0005c	48 8b 95 48 01
	00 00		 mov	 rdx, QWORD PTR v$[rbp]
  00063	48 8b 8d 40 01
	00 00		 mov	 rcx, QWORD PTR u$[rbp]
  0006a	e8 00 00 00 00	 call	 ?PMC_Add_X_L@Internal@Core@Math@Palmtree@@YAPEAU__tag_PMC_HANDLE_UINT@1234@PEAU51234@_K@Z ; Palmtree::Math::Core::Internal::PMC_Add_X_L
  0006f	48 8b 8d 50 01
	00 00		 mov	 rcx, QWORD PTR w$[rbp]
  00076	48 89 01	 mov	 QWORD PTR [rcx], rax

; 422  :             return (PMC_STATUS_OK);

  00079	33 c0		 xor	 eax, eax
  0007b	eb 08		 jmp	 SHORT $LN1@PMCCS_Add_
__tryend$PMCCS_Add_X_L$1:
  0007d	eb 06		 jmp	 SHORT $LN1@PMCCS_Add_
$LN8@PMCCS_Add_:

; 423  :         }
; 424  :         catch (const Palmtree::Math::Core::Internal::Exception& ex)
; 425  :         {
; 426  :             return (ex.GetStatusCode());

  0007f	8b 85 e4 00 00
	00		 mov	 eax, DWORD PTR $T5[rbp]
$LN1@PMCCS_Add_:

; 427  :         }
; 428  :     }

  00085	48 8b f8	 mov	 rdi, rax
  00088	48 8d 4d e0	 lea	 rcx, QWORD PTR [rbp-32]
  0008c	48 8d 15 00 00
	00 00		 lea	 rdx, OFFSET FLAT:PMCCS_Add_X_L$rtcFrameData
  00093	e8 00 00 00 00	 call	 _RTC_CheckStackVars
  00098	48 8b c7	 mov	 rax, rdi
  0009b	48 8d a5 28 01
	00 00		 lea	 rsp, QWORD PTR [rbp+296]
  000a2	5f		 pop	 rdi
  000a3	5d		 pop	 rbp
  000a4	c3		 ret	 0
  000a5	cc		 int	 3
PMCCS_Add_X_L ENDP
_TEXT	ENDS
;	COMDAT text$x
text$x	SEGMENT
ex$4 = 8
$T5 = 228
$T6 = 264
u$ = 320
v$ = 328
w$ = 336
PMCCS_Add_X_L$catch$0 PROC

; 423  :         }
; 424  :         catch (const Palmtree::Math::Core::Internal::Exception& ex)
; 425  :         {

  00000	48 89 4c 24 08	 mov	 QWORD PTR [rsp+8], rcx
  00005	48 89 54 24 10	 mov	 QWORD PTR [rsp+16], rdx
  0000a	55		 push	 rbp
  0000b	57		 push	 rdi
  0000c	48 83 ec 28	 sub	 rsp, 40			; 00000028H
  00010	48 8d 6a 20	 lea	 rbp, QWORD PTR [rdx+32]
__catch$PMCCS_Add_X_L$0:

; 423  :         }
; 424  :         catch (const Palmtree::Math::Core::Internal::Exception& ex)
; 425  :         {
; 426  :             return (ex.GetStatusCode());

  00014	48 8b 4d 08	 mov	 rcx, QWORD PTR ex$4[rbp]
  00018	e8 00 00 00 00	 call	 ?GetStatusCode@Exception@Internal@Core@Math@Palmtree@@QEBAHXZ ; Palmtree::Math::Core::Internal::Exception::GetStatusCode
  0001d	89 85 e4 00 00
	00		 mov	 DWORD PTR $T5[rbp], eax
  00023	48 8d 05 00 00
	00 00		 lea	 rax, $LN8@PMCCS_Add_
  0002a	eb 07		 jmp	 SHORT $LN9@PMCCS_Add_

; 427  :         }

  0002c	48 8d 05 00 00
	00 00		 lea	 rax, __tryend$PMCCS_Add_X_L$1
$LN9@PMCCS_Add_:
  00033	48 83 c4 28	 add	 rsp, 40			; 00000028H
  00037	5f		 pop	 rdi
  00038	5d		 pop	 rbp
  00039	c3		 ret	 0
  0003a	cc		 int	 3
PMCCS_Add_X_L$catch$0 ENDP
text$x	ENDS
; Function compile flags: /Odtp /RTCsu /ZI
;	COMDAT text$x
text$x	SEGMENT
ex$4 = 8
$T5 = 228
$T6 = 264
u$ = 320
v$ = 328
w$ = 336
PMCCS_Add_X_L$catch$0 PROC

; 425  :         {

  00000	48 89 4c 24 08	 mov	 QWORD PTR [rsp+8], rcx
  00005	48 89 54 24 10	 mov	 QWORD PTR [rsp+16], rdx
  0000a	55		 push	 rbp
  0000b	57		 push	 rdi
  0000c	48 83 ec 28	 sub	 rsp, 40			; 00000028H
  00010	48 8d 6a 20	 lea	 rbp, QWORD PTR [rdx+32]
__catch$PMCCS_Add_X_L$0:

; 426  :             return (ex.GetStatusCode());

  00014	48 8b 4d 08	 mov	 rcx, QWORD PTR ex$4[rbp]
  00018	e8 00 00 00 00	 call	 ?GetStatusCode@Exception@Internal@Core@Math@Palmtree@@QEBAHXZ ; Palmtree::Math::Core::Internal::Exception::GetStatusCode
  0001d	89 85 e4 00 00
	00		 mov	 DWORD PTR $T5[rbp], eax
  00023	48 8d 05 00 00
	00 00		 lea	 rax, $LN8@PMCCS_Add_
  0002a	eb 07		 jmp	 SHORT $LN9@PMCCS_Add_

; 427  :         }

  0002c	48 8d 05 00 00
	00 00		 lea	 rax, __tryend$PMCCS_Add_X_L$1
$LN9@PMCCS_Add_:
  00033	48 83 c4 28	 add	 rsp, 40			; 00000028H
  00037	5f		 pop	 rdi
  00038	5d		 pop	 rbp
  00039	c3		 ret	 0
  0003a	cc		 int	 3
PMCCS_Add_X_L$catch$0 ENDP
text$x	ENDS
; Function compile flags: /Odtp /RTCsu /ZI
; File z:\sources\lunor\repos\rougemeilland\palmtree.math.core.uint\palmtree.math.core.uint\pmc_interface_csharp.cpp
;	COMDAT PMCCS_Add_X_I
_TEXT	SEGMENT
ex$4 = 8
$T5 = 228
$T6 = 264
u$ = 320
v$ = 328
w$ = 336
PMCCS_Add_X_I PROC					; COMDAT

; 401  :     {

$LN10:
  00000	4c 89 44 24 18	 mov	 QWORD PTR [rsp+24], r8
  00005	89 54 24 10	 mov	 DWORD PTR [rsp+16], edx
  00009	48 89 4c 24 08	 mov	 QWORD PTR [rsp+8], rcx
  0000e	55		 push	 rbp
  0000f	57		 push	 rdi
  00010	48 81 ec 48 01
	00 00		 sub	 rsp, 328		; 00000148H
  00017	48 8d 6c 24 20	 lea	 rbp, QWORD PTR [rsp+32]
  0001c	48 8b fc	 mov	 rdi, rsp
  0001f	b9 52 00 00 00	 mov	 ecx, 82			; 00000052H
  00024	b8 cc cc cc cc	 mov	 eax, -858993460		; ccccccccH
  00029	f3 ab		 rep stosd
  0002b	48 8b 8c 24 68
	01 00 00	 mov	 rcx, QWORD PTR [rsp+360]
  00033	48 c7 85 08 01
	00 00 fe ff ff
	ff		 mov	 QWORD PTR $T6[rbp], -2
  0003e	48 8d 0d 00 00
	00 00		 lea	 rcx, OFFSET FLAT:__C21BA676_pmc_interface_csharp@cpp
  00045	e8 00 00 00 00	 call	 __CheckForDebuggerJustMyCode

; 402  :         if (w == nullptr)

  0004a	48 83 bd 50 01
	00 00 00	 cmp	 QWORD PTR w$[rbp], 0
  00052	75 07		 jne	 SHORT $LN2@PMCCS_Add_

; 403  :             return (PMC_STATUS_ARGUMENT_NULL_ERROR);

  00054	b8 fe ff ff ff	 mov	 eax, -2
  00059	eb 28		 jmp	 SHORT $LN1@PMCCS_Add_
$LN2@PMCCS_Add_:

; 404  :         try
; 405  :         {
; 406  :             *w = PMC_Add_X_I(u, v);

  0005b	8b 95 48 01 00
	00		 mov	 edx, DWORD PTR v$[rbp]
  00061	48 8b 8d 40 01
	00 00		 mov	 rcx, QWORD PTR u$[rbp]
  00068	e8 00 00 00 00	 call	 ?PMC_Add_X_I@Internal@Core@Math@Palmtree@@YAPEAU__tag_PMC_HANDLE_UINT@1234@PEAU51234@I@Z ; Palmtree::Math::Core::Internal::PMC_Add_X_I
  0006d	48 8b 8d 50 01
	00 00		 mov	 rcx, QWORD PTR w$[rbp]
  00074	48 89 01	 mov	 QWORD PTR [rcx], rax

; 407  :             return (PMC_STATUS_OK);

  00077	33 c0		 xor	 eax, eax
  00079	eb 08		 jmp	 SHORT $LN1@PMCCS_Add_
__tryend$PMCCS_Add_X_I$1:
  0007b	eb 06		 jmp	 SHORT $LN1@PMCCS_Add_
$LN8@PMCCS_Add_:

; 408  :         }
; 409  :         catch (const Palmtree::Math::Core::Internal::Exception& ex)
; 410  :         {
; 411  :             return (ex.GetStatusCode());

  0007d	8b 85 e4 00 00
	00		 mov	 eax, DWORD PTR $T5[rbp]
$LN1@PMCCS_Add_:

; 412  :         }
; 413  :     }

  00083	48 8b f8	 mov	 rdi, rax
  00086	48 8d 4d e0	 lea	 rcx, QWORD PTR [rbp-32]
  0008a	48 8d 15 00 00
	00 00		 lea	 rdx, OFFSET FLAT:PMCCS_Add_X_I$rtcFrameData
  00091	e8 00 00 00 00	 call	 _RTC_CheckStackVars
  00096	48 8b c7	 mov	 rax, rdi
  00099	48 8d a5 28 01
	00 00		 lea	 rsp, QWORD PTR [rbp+296]
  000a0	5f		 pop	 rdi
  000a1	5d		 pop	 rbp
  000a2	c3		 ret	 0
  000a3	cc		 int	 3
PMCCS_Add_X_I ENDP
_TEXT	ENDS
;	COMDAT text$x
text$x	SEGMENT
ex$4 = 8
$T5 = 228
$T6 = 264
u$ = 320
v$ = 328
w$ = 336
PMCCS_Add_X_I$catch$0 PROC

; 408  :         }
; 409  :         catch (const Palmtree::Math::Core::Internal::Exception& ex)
; 410  :         {

  00000	48 89 4c 24 08	 mov	 QWORD PTR [rsp+8], rcx
  00005	48 89 54 24 10	 mov	 QWORD PTR [rsp+16], rdx
  0000a	55		 push	 rbp
  0000b	57		 push	 rdi
  0000c	48 83 ec 28	 sub	 rsp, 40			; 00000028H
  00010	48 8d 6a 20	 lea	 rbp, QWORD PTR [rdx+32]
__catch$PMCCS_Add_X_I$0:

; 408  :         }
; 409  :         catch (const Palmtree::Math::Core::Internal::Exception& ex)
; 410  :         {
; 411  :             return (ex.GetStatusCode());

  00014	48 8b 4d 08	 mov	 rcx, QWORD PTR ex$4[rbp]
  00018	e8 00 00 00 00	 call	 ?GetStatusCode@Exception@Internal@Core@Math@Palmtree@@QEBAHXZ ; Palmtree::Math::Core::Internal::Exception::GetStatusCode
  0001d	89 85 e4 00 00
	00		 mov	 DWORD PTR $T5[rbp], eax
  00023	48 8d 05 00 00
	00 00		 lea	 rax, $LN8@PMCCS_Add_
  0002a	eb 07		 jmp	 SHORT $LN9@PMCCS_Add_

; 412  :         }

  0002c	48 8d 05 00 00
	00 00		 lea	 rax, __tryend$PMCCS_Add_X_I$1
$LN9@PMCCS_Add_:
  00033	48 83 c4 28	 add	 rsp, 40			; 00000028H
  00037	5f		 pop	 rdi
  00038	5d		 pop	 rbp
  00039	c3		 ret	 0
  0003a	cc		 int	 3
PMCCS_Add_X_I$catch$0 ENDP
text$x	ENDS
; Function compile flags: /Odtp /RTCsu /ZI
;	COMDAT text$x
text$x	SEGMENT
ex$4 = 8
$T5 = 228
$T6 = 264
u$ = 320
v$ = 328
w$ = 336
PMCCS_Add_X_I$catch$0 PROC

; 410  :         {

  00000	48 89 4c 24 08	 mov	 QWORD PTR [rsp+8], rcx
  00005	48 89 54 24 10	 mov	 QWORD PTR [rsp+16], rdx
  0000a	55		 push	 rbp
  0000b	57		 push	 rdi
  0000c	48 83 ec 28	 sub	 rsp, 40			; 00000028H
  00010	48 8d 6a 20	 lea	 rbp, QWORD PTR [rdx+32]
__catch$PMCCS_Add_X_I$0:

; 411  :             return (ex.GetStatusCode());

  00014	48 8b 4d 08	 mov	 rcx, QWORD PTR ex$4[rbp]
  00018	e8 00 00 00 00	 call	 ?GetStatusCode@Exception@Internal@Core@Math@Palmtree@@QEBAHXZ ; Palmtree::Math::Core::Internal::Exception::GetStatusCode
  0001d	89 85 e4 00 00
	00		 mov	 DWORD PTR $T5[rbp], eax
  00023	48 8d 05 00 00
	00 00		 lea	 rax, $LN8@PMCCS_Add_
  0002a	eb 07		 jmp	 SHORT $LN9@PMCCS_Add_

; 412  :         }

  0002c	48 8d 05 00 00
	00 00		 lea	 rax, __tryend$PMCCS_Add_X_I$1
$LN9@PMCCS_Add_:
  00033	48 83 c4 28	 add	 rsp, 40			; 00000028H
  00037	5f		 pop	 rdi
  00038	5d		 pop	 rbp
  00039	c3		 ret	 0
  0003a	cc		 int	 3
PMCCS_Add_X_I$catch$0 ENDP
text$x	ENDS
; Function compile flags: /Odtp /RTCsu /ZI
; File z:\sources\lunor\repos\rougemeilland\palmtree.math.core.uint\palmtree.math.core.uint\pmc_interface_csharp.cpp
;	COMDAT PMCCS_Add_L_X
_TEXT	SEGMENT
ex$4 = 8
$T5 = 228
$T6 = 264
u$ = 320
v$ = 328
w$ = 336
PMCCS_Add_L_X PROC					; COMDAT

; 386  :     {

$LN10:
  00000	4c 89 44 24 18	 mov	 QWORD PTR [rsp+24], r8
  00005	48 89 54 24 10	 mov	 QWORD PTR [rsp+16], rdx
  0000a	48 89 4c 24 08	 mov	 QWORD PTR [rsp+8], rcx
  0000f	55		 push	 rbp
  00010	57		 push	 rdi
  00011	48 81 ec 48 01
	00 00		 sub	 rsp, 328		; 00000148H
  00018	48 8d 6c 24 20	 lea	 rbp, QWORD PTR [rsp+32]
  0001d	48 8b fc	 mov	 rdi, rsp
  00020	b9 52 00 00 00	 mov	 ecx, 82			; 00000052H
  00025	b8 cc cc cc cc	 mov	 eax, -858993460		; ccccccccH
  0002a	f3 ab		 rep stosd
  0002c	48 8b 8c 24 68
	01 00 00	 mov	 rcx, QWORD PTR [rsp+360]
  00034	48 c7 85 08 01
	00 00 fe ff ff
	ff		 mov	 QWORD PTR $T6[rbp], -2
  0003f	48 8d 0d 00 00
	00 00		 lea	 rcx, OFFSET FLAT:__C21BA676_pmc_interface_csharp@cpp
  00046	e8 00 00 00 00	 call	 __CheckForDebuggerJustMyCode

; 387  :         if (w == nullptr)

  0004b	48 83 bd 50 01
	00 00 00	 cmp	 QWORD PTR w$[rbp], 0
  00053	75 07		 jne	 SHORT $LN2@PMCCS_Add_

; 388  :             return (PMC_STATUS_ARGUMENT_NULL_ERROR);

  00055	b8 fe ff ff ff	 mov	 eax, -2
  0005a	eb 29		 jmp	 SHORT $LN1@PMCCS_Add_
$LN2@PMCCS_Add_:

; 389  :         try
; 390  :         {
; 391  :             *w = PMC_Add_L_X(u, v);

  0005c	48 8b 95 48 01
	00 00		 mov	 rdx, QWORD PTR v$[rbp]
  00063	48 8b 8d 40 01
	00 00		 mov	 rcx, QWORD PTR u$[rbp]
  0006a	e8 00 00 00 00	 call	 ?PMC_Add_L_X@Internal@Core@Math@Palmtree@@YAPEAU__tag_PMC_HANDLE_UINT@1234@_KPEAU51234@@Z ; Palmtree::Math::Core::Internal::PMC_Add_L_X
  0006f	48 8b 8d 50 01
	00 00		 mov	 rcx, QWORD PTR w$[rbp]
  00076	48 89 01	 mov	 QWORD PTR [rcx], rax

; 392  :             return (PMC_STATUS_OK);

  00079	33 c0		 xor	 eax, eax
  0007b	eb 08		 jmp	 SHORT $LN1@PMCCS_Add_
__tryend$PMCCS_Add_L_X$1:
  0007d	eb 06		 jmp	 SHORT $LN1@PMCCS_Add_
$LN8@PMCCS_Add_:

; 393  :         }
; 394  :         catch (const Palmtree::Math::Core::Internal::Exception& ex)
; 395  :         {
; 396  :             return (ex.GetStatusCode());

  0007f	8b 85 e4 00 00
	00		 mov	 eax, DWORD PTR $T5[rbp]
$LN1@PMCCS_Add_:

; 397  :         }
; 398  :     }

  00085	48 8b f8	 mov	 rdi, rax
  00088	48 8d 4d e0	 lea	 rcx, QWORD PTR [rbp-32]
  0008c	48 8d 15 00 00
	00 00		 lea	 rdx, OFFSET FLAT:PMCCS_Add_L_X$rtcFrameData
  00093	e8 00 00 00 00	 call	 _RTC_CheckStackVars
  00098	48 8b c7	 mov	 rax, rdi
  0009b	48 8d a5 28 01
	00 00		 lea	 rsp, QWORD PTR [rbp+296]
  000a2	5f		 pop	 rdi
  000a3	5d		 pop	 rbp
  000a4	c3		 ret	 0
  000a5	cc		 int	 3
PMCCS_Add_L_X ENDP
_TEXT	ENDS
;	COMDAT text$x
text$x	SEGMENT
ex$4 = 8
$T5 = 228
$T6 = 264
u$ = 320
v$ = 328
w$ = 336
PMCCS_Add_L_X$catch$0 PROC

; 393  :         }
; 394  :         catch (const Palmtree::Math::Core::Internal::Exception& ex)
; 395  :         {

  00000	48 89 4c 24 08	 mov	 QWORD PTR [rsp+8], rcx
  00005	48 89 54 24 10	 mov	 QWORD PTR [rsp+16], rdx
  0000a	55		 push	 rbp
  0000b	57		 push	 rdi
  0000c	48 83 ec 28	 sub	 rsp, 40			; 00000028H
  00010	48 8d 6a 20	 lea	 rbp, QWORD PTR [rdx+32]
__catch$PMCCS_Add_L_X$0:

; 393  :         }
; 394  :         catch (const Palmtree::Math::Core::Internal::Exception& ex)
; 395  :         {
; 396  :             return (ex.GetStatusCode());

  00014	48 8b 4d 08	 mov	 rcx, QWORD PTR ex$4[rbp]
  00018	e8 00 00 00 00	 call	 ?GetStatusCode@Exception@Internal@Core@Math@Palmtree@@QEBAHXZ ; Palmtree::Math::Core::Internal::Exception::GetStatusCode
  0001d	89 85 e4 00 00
	00		 mov	 DWORD PTR $T5[rbp], eax
  00023	48 8d 05 00 00
	00 00		 lea	 rax, $LN8@PMCCS_Add_
  0002a	eb 07		 jmp	 SHORT $LN9@PMCCS_Add_

; 397  :         }

  0002c	48 8d 05 00 00
	00 00		 lea	 rax, __tryend$PMCCS_Add_L_X$1
$LN9@PMCCS_Add_:
  00033	48 83 c4 28	 add	 rsp, 40			; 00000028H
  00037	5f		 pop	 rdi
  00038	5d		 pop	 rbp
  00039	c3		 ret	 0
  0003a	cc		 int	 3
PMCCS_Add_L_X$catch$0 ENDP
text$x	ENDS
; Function compile flags: /Odtp /RTCsu /ZI
;	COMDAT text$x
text$x	SEGMENT
ex$4 = 8
$T5 = 228
$T6 = 264
u$ = 320
v$ = 328
w$ = 336
PMCCS_Add_L_X$catch$0 PROC

; 395  :         {

  00000	48 89 4c 24 08	 mov	 QWORD PTR [rsp+8], rcx
  00005	48 89 54 24 10	 mov	 QWORD PTR [rsp+16], rdx
  0000a	55		 push	 rbp
  0000b	57		 push	 rdi
  0000c	48 83 ec 28	 sub	 rsp, 40			; 00000028H
  00010	48 8d 6a 20	 lea	 rbp, QWORD PTR [rdx+32]
__catch$PMCCS_Add_L_X$0:

; 396  :             return (ex.GetStatusCode());

  00014	48 8b 4d 08	 mov	 rcx, QWORD PTR ex$4[rbp]
  00018	e8 00 00 00 00	 call	 ?GetStatusCode@Exception@Internal@Core@Math@Palmtree@@QEBAHXZ ; Palmtree::Math::Core::Internal::Exception::GetStatusCode
  0001d	89 85 e4 00 00
	00		 mov	 DWORD PTR $T5[rbp], eax
  00023	48 8d 05 00 00
	00 00		 lea	 rax, $LN8@PMCCS_Add_
  0002a	eb 07		 jmp	 SHORT $LN9@PMCCS_Add_

; 397  :         }

  0002c	48 8d 05 00 00
	00 00		 lea	 rax, __tryend$PMCCS_Add_L_X$1
$LN9@PMCCS_Add_:
  00033	48 83 c4 28	 add	 rsp, 40			; 00000028H
  00037	5f		 pop	 rdi
  00038	5d		 pop	 rbp
  00039	c3		 ret	 0
  0003a	cc		 int	 3
PMCCS_Add_L_X$catch$0 ENDP
text$x	ENDS
; Function compile flags: /Odtp /RTCsu /ZI
; File z:\sources\lunor\repos\rougemeilland\palmtree.math.core.uint\palmtree.math.core.uint\pmc_interface_csharp.cpp
;	COMDAT PMCCS_Add_I_X
_TEXT	SEGMENT
ex$4 = 8
$T5 = 228
$T6 = 264
u$ = 320
v$ = 328
w$ = 336
PMCCS_Add_I_X PROC					; COMDAT

; 371  :     {

$LN10:
  00000	4c 89 44 24 18	 mov	 QWORD PTR [rsp+24], r8
  00005	48 89 54 24 10	 mov	 QWORD PTR [rsp+16], rdx
  0000a	89 4c 24 08	 mov	 DWORD PTR [rsp+8], ecx
  0000e	55		 push	 rbp
  0000f	57		 push	 rdi
  00010	48 81 ec 48 01
	00 00		 sub	 rsp, 328		; 00000148H
  00017	48 8d 6c 24 20	 lea	 rbp, QWORD PTR [rsp+32]
  0001c	48 8b fc	 mov	 rdi, rsp
  0001f	b9 52 00 00 00	 mov	 ecx, 82			; 00000052H
  00024	b8 cc cc cc cc	 mov	 eax, -858993460		; ccccccccH
  00029	f3 ab		 rep stosd
  0002b	8b 8c 24 68 01
	00 00		 mov	 ecx, DWORD PTR [rsp+360]
  00032	48 c7 85 08 01
	00 00 fe ff ff
	ff		 mov	 QWORD PTR $T6[rbp], -2
  0003d	48 8d 0d 00 00
	00 00		 lea	 rcx, OFFSET FLAT:__C21BA676_pmc_interface_csharp@cpp
  00044	e8 00 00 00 00	 call	 __CheckForDebuggerJustMyCode

; 372  :         if (w == nullptr)

  00049	48 83 bd 50 01
	00 00 00	 cmp	 QWORD PTR w$[rbp], 0
  00051	75 07		 jne	 SHORT $LN2@PMCCS_Add_

; 373  :             return (PMC_STATUS_ARGUMENT_NULL_ERROR);

  00053	b8 fe ff ff ff	 mov	 eax, -2
  00058	eb 28		 jmp	 SHORT $LN1@PMCCS_Add_
$LN2@PMCCS_Add_:

; 374  :         try
; 375  :         {
; 376  :             *w = PMC_Add_I_X(u, v);

  0005a	48 8b 95 48 01
	00 00		 mov	 rdx, QWORD PTR v$[rbp]
  00061	8b 8d 40 01 00
	00		 mov	 ecx, DWORD PTR u$[rbp]
  00067	e8 00 00 00 00	 call	 ?PMC_Add_I_X@Internal@Core@Math@Palmtree@@YAPEAU__tag_PMC_HANDLE_UINT@1234@IPEAU51234@@Z ; Palmtree::Math::Core::Internal::PMC_Add_I_X
  0006c	48 8b 8d 50 01
	00 00		 mov	 rcx, QWORD PTR w$[rbp]
  00073	48 89 01	 mov	 QWORD PTR [rcx], rax

; 377  :             return (PMC_STATUS_OK);

  00076	33 c0		 xor	 eax, eax
  00078	eb 08		 jmp	 SHORT $LN1@PMCCS_Add_
__tryend$PMCCS_Add_I_X$1:
  0007a	eb 06		 jmp	 SHORT $LN1@PMCCS_Add_
$LN8@PMCCS_Add_:

; 378  :         }
; 379  :         catch (const Palmtree::Math::Core::Internal::Exception& ex)
; 380  :         {
; 381  :             return (ex.GetStatusCode());

  0007c	8b 85 e4 00 00
	00		 mov	 eax, DWORD PTR $T5[rbp]
$LN1@PMCCS_Add_:

; 382  :         }
; 383  :     }

  00082	48 8b f8	 mov	 rdi, rax
  00085	48 8d 4d e0	 lea	 rcx, QWORD PTR [rbp-32]
  00089	48 8d 15 00 00
	00 00		 lea	 rdx, OFFSET FLAT:PMCCS_Add_I_X$rtcFrameData
  00090	e8 00 00 00 00	 call	 _RTC_CheckStackVars
  00095	48 8b c7	 mov	 rax, rdi
  00098	48 8d a5 28 01
	00 00		 lea	 rsp, QWORD PTR [rbp+296]
  0009f	5f		 pop	 rdi
  000a0	5d		 pop	 rbp
  000a1	c3		 ret	 0
  000a2	cc		 int	 3
PMCCS_Add_I_X ENDP
_TEXT	ENDS
;	COMDAT text$x
text$x	SEGMENT
ex$4 = 8
$T5 = 228
$T6 = 264
u$ = 320
v$ = 328
w$ = 336
PMCCS_Add_I_X$catch$0 PROC

; 378  :         }
; 379  :         catch (const Palmtree::Math::Core::Internal::Exception& ex)
; 380  :         {

  00000	48 89 4c 24 08	 mov	 QWORD PTR [rsp+8], rcx
  00005	48 89 54 24 10	 mov	 QWORD PTR [rsp+16], rdx
  0000a	55		 push	 rbp
  0000b	57		 push	 rdi
  0000c	48 83 ec 28	 sub	 rsp, 40			; 00000028H
  00010	48 8d 6a 20	 lea	 rbp, QWORD PTR [rdx+32]
__catch$PMCCS_Add_I_X$0:

; 378  :         }
; 379  :         catch (const Palmtree::Math::Core::Internal::Exception& ex)
; 380  :         {
; 381  :             return (ex.GetStatusCode());

  00014	48 8b 4d 08	 mov	 rcx, QWORD PTR ex$4[rbp]
  00018	e8 00 00 00 00	 call	 ?GetStatusCode@Exception@Internal@Core@Math@Palmtree@@QEBAHXZ ; Palmtree::Math::Core::Internal::Exception::GetStatusCode
  0001d	89 85 e4 00 00
	00		 mov	 DWORD PTR $T5[rbp], eax
  00023	48 8d 05 00 00
	00 00		 lea	 rax, $LN8@PMCCS_Add_
  0002a	eb 07		 jmp	 SHORT $LN9@PMCCS_Add_

; 382  :         }

  0002c	48 8d 05 00 00
	00 00		 lea	 rax, __tryend$PMCCS_Add_I_X$1
$LN9@PMCCS_Add_:
  00033	48 83 c4 28	 add	 rsp, 40			; 00000028H
  00037	5f		 pop	 rdi
  00038	5d		 pop	 rbp
  00039	c3		 ret	 0
  0003a	cc		 int	 3
PMCCS_Add_I_X$catch$0 ENDP
text$x	ENDS
; Function compile flags: /Odtp /RTCsu /ZI
;	COMDAT text$x
text$x	SEGMENT
ex$4 = 8
$T5 = 228
$T6 = 264
u$ = 320
v$ = 328
w$ = 336
PMCCS_Add_I_X$catch$0 PROC

; 380  :         {

  00000	48 89 4c 24 08	 mov	 QWORD PTR [rsp+8], rcx
  00005	48 89 54 24 10	 mov	 QWORD PTR [rsp+16], rdx
  0000a	55		 push	 rbp
  0000b	57		 push	 rdi
  0000c	48 83 ec 28	 sub	 rsp, 40			; 00000028H
  00010	48 8d 6a 20	 lea	 rbp, QWORD PTR [rdx+32]
__catch$PMCCS_Add_I_X$0:

; 381  :             return (ex.GetStatusCode());

  00014	48 8b 4d 08	 mov	 rcx, QWORD PTR ex$4[rbp]
  00018	e8 00 00 00 00	 call	 ?GetStatusCode@Exception@Internal@Core@Math@Palmtree@@QEBAHXZ ; Palmtree::Math::Core::Internal::Exception::GetStatusCode
  0001d	89 85 e4 00 00
	00		 mov	 DWORD PTR $T5[rbp], eax
  00023	48 8d 05 00 00
	00 00		 lea	 rax, $LN8@PMCCS_Add_
  0002a	eb 07		 jmp	 SHORT $LN9@PMCCS_Add_

; 382  :         }

  0002c	48 8d 05 00 00
	00 00		 lea	 rax, __tryend$PMCCS_Add_I_X$1
$LN9@PMCCS_Add_:
  00033	48 83 c4 28	 add	 rsp, 40			; 00000028H
  00037	5f		 pop	 rdi
  00038	5d		 pop	 rbp
  00039	c3		 ret	 0
  0003a	cc		 int	 3
PMCCS_Add_I_X$catch$0 ENDP
text$x	ENDS
; Function compile flags: /Odtp /RTCsu /ZI
; File z:\sources\lunor\repos\rougemeilland\palmtree.math.core.uint\palmtree.math.core.uint\pmc_interface_csharp.cpp
;	COMDAT PMCCS_TryParse
_TEXT	SEGMENT
all_styles$ = 4
err$4 = 36
ex$5 = 72
$T6 = 292
$T7 = 328
source$ = 384
number_styles$ = 392
format_option$ = 400
o$ = 408
result$ = 416
PMCCS_TryParse PROC					; COMDAT

; 342  :     {

$LN12:
  00000	4c 89 4c 24 20	 mov	 QWORD PTR [rsp+32], r9
  00005	4c 89 44 24 18	 mov	 QWORD PTR [rsp+24], r8
  0000a	89 54 24 10	 mov	 DWORD PTR [rsp+16], edx
  0000e	48 89 4c 24 08	 mov	 QWORD PTR [rsp+8], rcx
  00013	55		 push	 rbp
  00014	57		 push	 rdi
  00015	48 81 ec 98 01
	00 00		 sub	 rsp, 408		; 00000198H
  0001c	48 8d 6c 24 30	 lea	 rbp, QWORD PTR [rsp+48]
  00021	48 8b fc	 mov	 rdi, rsp
  00024	b9 66 00 00 00	 mov	 ecx, 102		; 00000066H
  00029	b8 cc cc cc cc	 mov	 eax, -858993460		; ccccccccH
  0002e	f3 ab		 rep stosd
  00030	48 8b 8c 24 b8
	01 00 00	 mov	 rcx, QWORD PTR [rsp+440]
  00038	48 c7 85 48 01
	00 00 fe ff ff
	ff		 mov	 QWORD PTR $T7[rbp], -2
  00043	48 8d 0d 00 00
	00 00		 lea	 rcx, OFFSET FLAT:__C21BA676_pmc_interface_csharp@cpp
  0004a	e8 00 00 00 00	 call	 __CheckForDebuggerJustMyCode

; 343  :         const PMC_NUMBER_STYLE_CODE all_styles =
; 344  :             PMC_NUMBER_STYLE_ALLOW_LEADING_WHITE |
; 345  :             PMC_NUMBER_STYLE_ALLOW_TRAILING_WHITE |
; 346  :             PMC_NUMBER_STYLE_ALLOW_LEADING_SIGN |
; 347  :             PMC_NUMBER_STYLE_ALLOW_TRAILING_SIGN |
; 348  :             PMC_NUMBER_STYLE_ALLOW_PARENTHESES |
; 349  :             PMC_NUMBER_STYLE_ALLOW_DECIMAL_POINT |
; 350  :             PMC_NUMBER_STYLE_ALLOW_THOUSANDS |
; 351  :             PMC_NUMBER_STYLE_ALLOW_CURRENCY_SYMBOL |

  0004f	c7 45 04 7f 03
	00 00		 mov	 DWORD PTR all_styles$[rbp], 895 ; 0000037fH

; 352  :             PMC_NUMBER_STYLE_ALLOW_HEX_SPECIFIER;
; 353  :         if (o == nullptr)

  00056	48 83 bd 98 01
	00 00 00	 cmp	 QWORD PTR o$[rbp], 0
  0005e	75 07		 jne	 SHORT $LN2@PMCCS_TryP

; 354  :             return (PMC_STATUS_ARGUMENT_NULL_ERROR);

  00060	b8 fe ff ff ff	 mov	 eax, -2
  00065	eb 5c		 jmp	 SHORT $LN1@PMCCS_TryP
$LN2@PMCCS_TryP:

; 355  :         if (number_styles & ~all_styles)

  00067	8b 85 88 01 00
	00		 mov	 eax, DWORD PTR number_styles$[rbp]
  0006d	25 80 fc ff ff	 and	 eax, -896		; fffffffffffffc80H
  00072	85 c0		 test	 eax, eax
  00074	74 07		 je	 SHORT $LN3@PMCCS_TryP

; 356  :             return (PMC_STATUS_ARGUMENT_ERROR);

  00076	b8 ff ff ff ff	 mov	 eax, -1
  0007b	eb 46		 jmp	 SHORT $LN1@PMCCS_TryP
$LN3@PMCCS_TryP:

; 357  :         try
; 358  :         {
; 359  :             PMC_STATUS_CODE err = PMC_TryParse(source, number_styles, format_option, o, result);

  0007d	48 8b 85 a0 01
	00 00		 mov	 rax, QWORD PTR result$[rbp]
  00084	48 89 44 24 20	 mov	 QWORD PTR [rsp+32], rax
  00089	4c 8b 8d 98 01
	00 00		 mov	 r9, QWORD PTR o$[rbp]
  00090	4c 8b 85 90 01
	00 00		 mov	 r8, QWORD PTR format_option$[rbp]
  00097	8b 95 88 01 00
	00		 mov	 edx, DWORD PTR number_styles$[rbp]
  0009d	48 8b 8d 80 01
	00 00		 mov	 rcx, QWORD PTR source$[rbp]
  000a4	e8 00 00 00 00	 call	 ?PMC_TryParse@Internal@Core@Math@Palmtree@@YAHPEB_WHPEBU__tag_PMC_NUMBER_FORMAT_INFO@1234@PEAPEAU__tag_PMC_HANDLE_UINT@1234@PEAI@Z ; Palmtree::Math::Core::Internal::PMC_TryParse
  000a9	89 45 24	 mov	 DWORD PTR err$4[rbp], eax

; 360  :             if (err != PMC_STATUS_OK)

  000ac	83 7d 24 00	 cmp	 DWORD PTR err$4[rbp], 0
  000b0	74 05		 je	 SHORT $LN5@PMCCS_TryP

; 361  :                 return (err);

  000b2	8b 45 24	 mov	 eax, DWORD PTR err$4[rbp]
  000b5	eb 0c		 jmp	 SHORT $LN1@PMCCS_TryP
$LN5@PMCCS_TryP:

; 362  :             return (PMC_STATUS_OK);

  000b7	33 c0		 xor	 eax, eax
  000b9	eb 08		 jmp	 SHORT $LN1@PMCCS_TryP
__tryend$PMCCS_TryParse$1:
  000bb	eb 06		 jmp	 SHORT $LN1@PMCCS_TryP
$LN10@PMCCS_TryP:

; 363  :         }
; 364  :         catch (const Palmtree::Math::Core::Internal::Exception& ex)
; 365  :         {
; 366  :             return (ex.GetStatusCode());

  000bd	8b 85 24 01 00
	00		 mov	 eax, DWORD PTR $T6[rbp]
$LN1@PMCCS_TryP:

; 367  :         }
; 368  :     }

  000c3	48 8b f8	 mov	 rdi, rax
  000c6	48 8d 4d d0	 lea	 rcx, QWORD PTR [rbp-48]
  000ca	48 8d 15 00 00
	00 00		 lea	 rdx, OFFSET FLAT:PMCCS_TryParse$rtcFrameData
  000d1	e8 00 00 00 00	 call	 _RTC_CheckStackVars
  000d6	48 8b c7	 mov	 rax, rdi
  000d9	48 8d a5 68 01
	00 00		 lea	 rsp, QWORD PTR [rbp+360]
  000e0	5f		 pop	 rdi
  000e1	5d		 pop	 rbp
  000e2	c3		 ret	 0
  000e3	cc		 int	 3
PMCCS_TryParse ENDP
_TEXT	ENDS
;	COMDAT text$x
text$x	SEGMENT
all_styles$ = 4
err$4 = 36
ex$5 = 72
$T6 = 292
$T7 = 328
source$ = 384
number_styles$ = 392
format_option$ = 400
o$ = 408
result$ = 416
PMCCS_TryParse$catch$0 PROC

; 363  :         }
; 364  :         catch (const Palmtree::Math::Core::Internal::Exception& ex)
; 365  :         {

  00000	48 89 4c 24 08	 mov	 QWORD PTR [rsp+8], rcx
  00005	48 89 54 24 10	 mov	 QWORD PTR [rsp+16], rdx
  0000a	55		 push	 rbp
  0000b	57		 push	 rdi
  0000c	48 83 ec 38	 sub	 rsp, 56			; 00000038H
  00010	48 8d 6a 30	 lea	 rbp, QWORD PTR [rdx+48]
__catch$PMCCS_TryParse$0:

; 363  :         }
; 364  :         catch (const Palmtree::Math::Core::Internal::Exception& ex)
; 365  :         {
; 366  :             return (ex.GetStatusCode());

  00014	48 8b 4d 48	 mov	 rcx, QWORD PTR ex$5[rbp]
  00018	e8 00 00 00 00	 call	 ?GetStatusCode@Exception@Internal@Core@Math@Palmtree@@QEBAHXZ ; Palmtree::Math::Core::Internal::Exception::GetStatusCode
  0001d	89 85 24 01 00
	00		 mov	 DWORD PTR $T6[rbp], eax
  00023	48 8d 05 00 00
	00 00		 lea	 rax, $LN10@PMCCS_TryP
  0002a	eb 07		 jmp	 SHORT $LN11@PMCCS_TryP

; 367  :         }

  0002c	48 8d 05 00 00
	00 00		 lea	 rax, __tryend$PMCCS_TryParse$1
$LN11@PMCCS_TryP:
  00033	48 83 c4 38	 add	 rsp, 56			; 00000038H
  00037	5f		 pop	 rdi
  00038	5d		 pop	 rbp
  00039	c3		 ret	 0
  0003a	cc		 int	 3
PMCCS_TryParse$catch$0 ENDP
text$x	ENDS
; Function compile flags: /Odtp /RTCsu /ZI
;	COMDAT text$x
text$x	SEGMENT
all_styles$ = 4
err$4 = 36
ex$5 = 72
$T6 = 292
$T7 = 328
source$ = 384
number_styles$ = 392
format_option$ = 400
o$ = 408
result$ = 416
PMCCS_TryParse$catch$0 PROC

; 365  :         {

  00000	48 89 4c 24 08	 mov	 QWORD PTR [rsp+8], rcx
  00005	48 89 54 24 10	 mov	 QWORD PTR [rsp+16], rdx
  0000a	55		 push	 rbp
  0000b	57		 push	 rdi
  0000c	48 83 ec 38	 sub	 rsp, 56			; 00000038H
  00010	48 8d 6a 30	 lea	 rbp, QWORD PTR [rdx+48]
__catch$PMCCS_TryParse$0:

; 366  :             return (ex.GetStatusCode());

  00014	48 8b 4d 48	 mov	 rcx, QWORD PTR ex$5[rbp]
  00018	e8 00 00 00 00	 call	 ?GetStatusCode@Exception@Internal@Core@Math@Palmtree@@QEBAHXZ ; Palmtree::Math::Core::Internal::Exception::GetStatusCode
  0001d	89 85 24 01 00
	00		 mov	 DWORD PTR $T6[rbp], eax
  00023	48 8d 05 00 00
	00 00		 lea	 rax, $LN10@PMCCS_TryP
  0002a	eb 07		 jmp	 SHORT $LN11@PMCCS_TryP

; 367  :         }

  0002c	48 8d 05 00 00
	00 00		 lea	 rax, __tryend$PMCCS_TryParse$1
$LN11@PMCCS_TryP:
  00033	48 83 c4 38	 add	 rsp, 56			; 00000038H
  00037	5f		 pop	 rdi
  00038	5d		 pop	 rbp
  00039	c3		 ret	 0
  0003a	cc		 int	 3
PMCCS_TryParse$catch$0 ENDP
text$x	ENDS
; Function compile flags: /Odtp /RTCsu /ZI
; File z:\sources\lunor\repos\rougemeilland\palmtree.math.core.uint\palmtree.math.core.uint\pmc_interface_csharp.cpp
;	COMDAT PMCCS_Parse
_TEXT	SEGMENT
all_styles$ = 4
result$5 = 36
err$6 = 68
ex$7 = 104
$T8 = 324
$T9 = 360
source$ = 416
number_styles$ = 424
format_option$ = 432
o$ = 440
PMCCS_Parse PROC					; COMDAT

; 307  :     {

$LN13:
  00000	4c 89 4c 24 20	 mov	 QWORD PTR [rsp+32], r9
  00005	4c 89 44 24 18	 mov	 QWORD PTR [rsp+24], r8
  0000a	89 54 24 10	 mov	 DWORD PTR [rsp+16], edx
  0000e	48 89 4c 24 08	 mov	 QWORD PTR [rsp+8], rcx
  00013	55		 push	 rbp
  00014	57		 push	 rdi
  00015	48 81 ec b8 01
	00 00		 sub	 rsp, 440		; 000001b8H
  0001c	48 8d 6c 24 30	 lea	 rbp, QWORD PTR [rsp+48]
  00021	48 8b fc	 mov	 rdi, rsp
  00024	b9 6e 00 00 00	 mov	 ecx, 110		; 0000006eH
  00029	b8 cc cc cc cc	 mov	 eax, -858993460		; ccccccccH
  0002e	f3 ab		 rep stosd
  00030	48 8b 8c 24 d8
	01 00 00	 mov	 rcx, QWORD PTR [rsp+472]
  00038	48 c7 85 68 01
	00 00 fe ff ff
	ff		 mov	 QWORD PTR $T9[rbp], -2
  00043	48 8d 0d 00 00
	00 00		 lea	 rcx, OFFSET FLAT:__C21BA676_pmc_interface_csharp@cpp
  0004a	e8 00 00 00 00	 call	 __CheckForDebuggerJustMyCode

; 308  :         const PMC_NUMBER_STYLE_CODE all_styles = 
; 309  :             PMC_NUMBER_STYLE_ALLOW_LEADING_WHITE |
; 310  :             PMC_NUMBER_STYLE_ALLOW_TRAILING_WHITE |
; 311  :             PMC_NUMBER_STYLE_ALLOW_LEADING_SIGN |
; 312  :             PMC_NUMBER_STYLE_ALLOW_TRAILING_SIGN |
; 313  :             PMC_NUMBER_STYLE_ALLOW_PARENTHESES |
; 314  :             PMC_NUMBER_STYLE_ALLOW_DECIMAL_POINT |
; 315  :             PMC_NUMBER_STYLE_ALLOW_THOUSANDS |
; 316  :             PMC_NUMBER_STYLE_ALLOW_CURRENCY_SYMBOL |

  0004f	c7 45 04 7f 03
	00 00		 mov	 DWORD PTR all_styles$[rbp], 895 ; 0000037fH

; 317  :             PMC_NUMBER_STYLE_ALLOW_HEX_SPECIFIER;
; 318  :         if (o == nullptr)

  00056	48 83 bd b8 01
	00 00 00	 cmp	 QWORD PTR o$[rbp], 0
  0005e	75 07		 jne	 SHORT $LN2@PMCCS_Pars

; 319  :             return (PMC_STATUS_ARGUMENT_NULL_ERROR);

  00060	b8 fe ff ff ff	 mov	 eax, -2
  00065	eb 6c		 jmp	 SHORT $LN1@PMCCS_Pars
$LN2@PMCCS_Pars:

; 320  :         if (number_styles & ~all_styles)

  00067	8b 85 a8 01 00
	00		 mov	 eax, DWORD PTR number_styles$[rbp]
  0006d	25 80 fc ff ff	 and	 eax, -896		; fffffffffffffc80H
  00072	85 c0		 test	 eax, eax
  00074	74 07		 je	 SHORT $LN3@PMCCS_Pars

; 321  :             return (PMC_STATUS_ARGUMENT_ERROR);

  00076	b8 ff ff ff ff	 mov	 eax, -1
  0007b	eb 56		 jmp	 SHORT $LN1@PMCCS_Pars
$LN3@PMCCS_Pars:

; 322  :         try
; 323  :         {
; 324  :             _UINT32_T result;
; 325  :             PMC_STATUS_CODE err = PMC_TryParse(source, number_styles | PMC_NUMBER_STYLE_ALLOW_EXCEPTION_THROWING, format_option, o, &result);

  0007d	8b 85 a8 01 00
	00		 mov	 eax, DWORD PTR number_styles$[rbp]
  00083	0f ba e8 19	 bts	 eax, 25
  00087	48 8d 4d 24	 lea	 rcx, QWORD PTR result$5[rbp]
  0008b	48 89 4c 24 20	 mov	 QWORD PTR [rsp+32], rcx
  00090	4c 8b 8d b8 01
	00 00		 mov	 r9, QWORD PTR o$[rbp]
  00097	4c 8b 85 b0 01
	00 00		 mov	 r8, QWORD PTR format_option$[rbp]
  0009e	8b d0		 mov	 edx, eax
  000a0	48 8b 8d a0 01
	00 00		 mov	 rcx, QWORD PTR source$[rbp]
  000a7	e8 00 00 00 00	 call	 ?PMC_TryParse@Internal@Core@Math@Palmtree@@YAHPEB_WHPEBU__tag_PMC_NUMBER_FORMAT_INFO@1234@PEAPEAU__tag_PMC_HANDLE_UINT@1234@PEAI@Z ; Palmtree::Math::Core::Internal::PMC_TryParse
  000ac	89 45 44	 mov	 DWORD PTR err$6[rbp], eax

; 326  :             if (err != PMC_STATUS_OK)

  000af	83 7d 44 00	 cmp	 DWORD PTR err$6[rbp], 0
  000b3	74 05		 je	 SHORT $LN5@PMCCS_Pars

; 327  :                 return (err);

  000b5	8b 45 44	 mov	 eax, DWORD PTR err$6[rbp]
  000b8	eb 19		 jmp	 SHORT $LN1@PMCCS_Pars
$LN5@PMCCS_Pars:

; 328  :             if (!result)

  000ba	83 7d 24 00	 cmp	 DWORD PTR result$5[rbp], 0
  000be	75 07		 jne	 SHORT $LN6@PMCCS_Pars

; 329  :             {
; 330  :                 // [gB
; 331  :                 return (PMC_STATUS_INTERNAL_ERROR);

  000c0	b8 00 ff ff ff	 mov	 eax, -256		; ffffffffffffff00H
  000c5	eb 0c		 jmp	 SHORT $LN1@PMCCS_Pars
$LN6@PMCCS_Pars:

; 332  :             }
; 333  :             return (PMC_STATUS_OK);

  000c7	33 c0		 xor	 eax, eax
  000c9	eb 08		 jmp	 SHORT $LN1@PMCCS_Pars
__tryend$PMCCS_Parse$1:
  000cb	eb 06		 jmp	 SHORT $LN1@PMCCS_Pars
$LN11@PMCCS_Pars:

; 334  :         }
; 335  :         catch (const Palmtree::Math::Core::Internal::Exception& ex)
; 336  :         {
; 337  :             return (ex.GetStatusCode());

  000cd	8b 85 44 01 00
	00		 mov	 eax, DWORD PTR $T8[rbp]
$LN1@PMCCS_Pars:

; 338  :         }
; 339  :     }

  000d3	48 8b f8	 mov	 rdi, rax
  000d6	48 8d 4d d0	 lea	 rcx, QWORD PTR [rbp-48]
  000da	48 8d 15 00 00
	00 00		 lea	 rdx, OFFSET FLAT:PMCCS_Parse$rtcFrameData
  000e1	e8 00 00 00 00	 call	 _RTC_CheckStackVars
  000e6	48 8b c7	 mov	 rax, rdi
  000e9	48 8d a5 88 01
	00 00		 lea	 rsp, QWORD PTR [rbp+392]
  000f0	5f		 pop	 rdi
  000f1	5d		 pop	 rbp
  000f2	c3		 ret	 0
  000f3	cc		 int	 3
PMCCS_Parse ENDP
_TEXT	ENDS
;	COMDAT text$x
text$x	SEGMENT
all_styles$ = 4
result$5 = 36
err$6 = 68
ex$7 = 104
$T8 = 324
$T9 = 360
source$ = 416
number_styles$ = 424
format_option$ = 432
o$ = 440
PMCCS_Parse$catch$0 PROC

; 334  :         }
; 335  :         catch (const Palmtree::Math::Core::Internal::Exception& ex)
; 336  :         {

  00000	48 89 4c 24 08	 mov	 QWORD PTR [rsp+8], rcx
  00005	48 89 54 24 10	 mov	 QWORD PTR [rsp+16], rdx
  0000a	55		 push	 rbp
  0000b	57		 push	 rdi
  0000c	48 83 ec 38	 sub	 rsp, 56			; 00000038H
  00010	48 8d 6a 30	 lea	 rbp, QWORD PTR [rdx+48]
__catch$PMCCS_Parse$0:

; 334  :         }
; 335  :         catch (const Palmtree::Math::Core::Internal::Exception& ex)
; 336  :         {
; 337  :             return (ex.GetStatusCode());

  00014	48 8b 4d 68	 mov	 rcx, QWORD PTR ex$7[rbp]
  00018	e8 00 00 00 00	 call	 ?GetStatusCode@Exception@Internal@Core@Math@Palmtree@@QEBAHXZ ; Palmtree::Math::Core::Internal::Exception::GetStatusCode
  0001d	89 85 44 01 00
	00		 mov	 DWORD PTR $T8[rbp], eax
  00023	48 8d 05 00 00
	00 00		 lea	 rax, $LN11@PMCCS_Pars
  0002a	eb 07		 jmp	 SHORT $LN12@PMCCS_Pars

; 338  :         }

  0002c	48 8d 05 00 00
	00 00		 lea	 rax, __tryend$PMCCS_Parse$1
$LN12@PMCCS_Pars:
  00033	48 83 c4 38	 add	 rsp, 56			; 00000038H
  00037	5f		 pop	 rdi
  00038	5d		 pop	 rbp
  00039	c3		 ret	 0
  0003a	cc		 int	 3
PMCCS_Parse$catch$0 ENDP
text$x	ENDS
; Function compile flags: /Odtp /RTCsu /ZI
;	COMDAT text$x
text$x	SEGMENT
all_styles$ = 4
result$5 = 36
err$6 = 68
ex$7 = 104
$T8 = 324
$T9 = 360
source$ = 416
number_styles$ = 424
format_option$ = 432
o$ = 440
PMCCS_Parse$catch$0 PROC

; 336  :         {

  00000	48 89 4c 24 08	 mov	 QWORD PTR [rsp+8], rcx
  00005	48 89 54 24 10	 mov	 QWORD PTR [rsp+16], rdx
  0000a	55		 push	 rbp
  0000b	57		 push	 rdi
  0000c	48 83 ec 38	 sub	 rsp, 56			; 00000038H
  00010	48 8d 6a 30	 lea	 rbp, QWORD PTR [rdx+48]
__catch$PMCCS_Parse$0:

; 337  :             return (ex.GetStatusCode());

  00014	48 8b 4d 68	 mov	 rcx, QWORD PTR ex$7[rbp]
  00018	e8 00 00 00 00	 call	 ?GetStatusCode@Exception@Internal@Core@Math@Palmtree@@QEBAHXZ ; Palmtree::Math::Core::Internal::Exception::GetStatusCode
  0001d	89 85 44 01 00
	00		 mov	 DWORD PTR $T8[rbp], eax
  00023	48 8d 05 00 00
	00 00		 lea	 rax, $LN11@PMCCS_Pars
  0002a	eb 07		 jmp	 SHORT $LN12@PMCCS_Pars

; 338  :         }

  0002c	48 8d 05 00 00
	00 00		 lea	 rax, __tryend$PMCCS_Parse$1
$LN12@PMCCS_Pars:
  00033	48 83 c4 38	 add	 rsp, 56			; 00000038H
  00037	5f		 pop	 rdi
  00038	5d		 pop	 rbp
  00039	c3		 ret	 0
  0003a	cc		 int	 3
PMCCS_Parse$catch$0 ENDP
text$x	ENDS
; Function compile flags: /Odtp /RTCsu /ZI
; File z:\sources\lunor\repos\rougemeilland\palmtree.math.core.uint\palmtree.math.core.uint\pmc_interface_csharp.cpp
;	COMDAT PMCCS_ToString
_TEXT	SEGMENT
r$4 = 8
ex$5 = 40
$T6 = 260
$T7 = 296
x$ = 352
format$ = 360
format_option$ = 368
buffer$ = 376
buffer_size$ = 384
size$ = 392
PMCCS_ToString PROC					; COMDAT

; 289  :     {

$LN11:
  00000	4c 89 4c 24 20	 mov	 QWORD PTR [rsp+32], r9
  00005	4c 89 44 24 18	 mov	 QWORD PTR [rsp+24], r8
  0000a	48 89 54 24 10	 mov	 QWORD PTR [rsp+16], rdx
  0000f	48 89 4c 24 08	 mov	 QWORD PTR [rsp+8], rcx
  00014	55		 push	 rbp
  00015	57		 push	 rdi
  00016	48 81 ec 78 01
	00 00		 sub	 rsp, 376		; 00000178H
  0001d	48 8d 6c 24 30	 lea	 rbp, QWORD PTR [rsp+48]
  00022	48 8b fc	 mov	 rdi, rsp
  00025	b9 5e 00 00 00	 mov	 ecx, 94			; 0000005eH
  0002a	b8 cc cc cc cc	 mov	 eax, -858993460		; ccccccccH
  0002f	f3 ab		 rep stosd
  00031	48 8b 8c 24 98
	01 00 00	 mov	 rcx, QWORD PTR [rsp+408]
  00039	48 c7 85 28 01
	00 00 fe ff ff
	ff		 mov	 QWORD PTR $T7[rbp], -2
  00044	48 8d 0d 00 00
	00 00		 lea	 rcx, OFFSET FLAT:__C21BA676_pmc_interface_csharp@cpp
  0004b	e8 00 00 00 00	 call	 __CheckForDebuggerJustMyCode

; 290  :         if (size == nullptr)

  00050	48 83 bd 88 01
	00 00 00	 cmp	 QWORD PTR size$[rbp], 0
  00058	75 07		 jne	 SHORT $LN2@PMCCS_ToSt

; 291  :             return (PMC_STATUS_ARGUMENT_NULL_ERROR);

  0005a	b8 fe ff ff ff	 mov	 eax, -2
  0005f	eb 5a		 jmp	 SHORT $LN1@PMCCS_ToSt
$LN2@PMCCS_ToSt:

; 292  :         try
; 293  :         {
; 294  :             size_t r = PMC_ToString(x, format, format_option, buffer, buffer_size);

  00061	48 63 85 80 01
	00 00		 movsxd	 rax, DWORD PTR buffer_size$[rbp]
  00068	48 89 44 24 20	 mov	 QWORD PTR [rsp+32], rax
  0006d	4c 8b 8d 78 01
	00 00		 mov	 r9, QWORD PTR buffer$[rbp]
  00074	4c 8b 85 70 01
	00 00		 mov	 r8, QWORD PTR format_option$[rbp]
  0007b	48 8b 95 68 01
	00 00		 mov	 rdx, QWORD PTR format$[rbp]
  00082	48 8b 8d 60 01
	00 00		 mov	 rcx, QWORD PTR x$[rbp]
  00089	e8 00 00 00 00	 call	 ?PMC_ToString@Internal@Core@Math@Palmtree@@YA_KPEAU__tag_PMC_HANDLE_UINT@1234@PEB_WPEBU__tag_PMC_NUMBER_FORMAT_INFO@1234@PEA_W_K@Z ; Palmtree::Math::Core::Internal::PMC_ToString
  0008e	48 89 45 08	 mov	 QWORD PTR r$4[rbp], rax

; 295  :             if (r > 0x7fffffff)

  00092	48 81 7d 08 ff
	ff ff 7f	 cmp	 QWORD PTR r$4[rbp], 2147483647 ; 7fffffffH
  0009a	76 07		 jbe	 SHORT $LN4@PMCCS_ToSt

; 296  :                 return (PMC_STATUS_NOT_ENOUGH_MEMORY);

  0009c	b8 f7 ff ff ff	 mov	 eax, -9
  000a1	eb 18		 jmp	 SHORT $LN1@PMCCS_ToSt
$LN4@PMCCS_ToSt:

; 297  :             *size = (_INT32_T)r;

  000a3	48 8b 85 88 01
	00 00		 mov	 rax, QWORD PTR size$[rbp]
  000aa	8b 4d 08	 mov	 ecx, DWORD PTR r$4[rbp]
  000ad	89 08		 mov	 DWORD PTR [rax], ecx

; 298  :             return (PMC_STATUS_OK);

  000af	33 c0		 xor	 eax, eax
  000b1	eb 08		 jmp	 SHORT $LN1@PMCCS_ToSt
__tryend$PMCCS_ToString$1:
  000b3	eb 06		 jmp	 SHORT $LN1@PMCCS_ToSt
$LN9@PMCCS_ToSt:

; 299  :         }
; 300  :         catch (const Palmtree::Math::Core::Internal::Exception& ex)
; 301  :         {
; 302  :             return (ex.GetStatusCode());

  000b5	8b 85 04 01 00
	00		 mov	 eax, DWORD PTR $T6[rbp]
$LN1@PMCCS_ToSt:

; 303  :         }
; 304  :     }

  000bb	48 8b f8	 mov	 rdi, rax
  000be	48 8d 4d d0	 lea	 rcx, QWORD PTR [rbp-48]
  000c2	48 8d 15 00 00
	00 00		 lea	 rdx, OFFSET FLAT:PMCCS_ToString$rtcFrameData
  000c9	e8 00 00 00 00	 call	 _RTC_CheckStackVars
  000ce	48 8b c7	 mov	 rax, rdi
  000d1	48 8d a5 48 01
	00 00		 lea	 rsp, QWORD PTR [rbp+328]
  000d8	5f		 pop	 rdi
  000d9	5d		 pop	 rbp
  000da	c3		 ret	 0
  000db	cc		 int	 3
PMCCS_ToString ENDP
_TEXT	ENDS
;	COMDAT text$x
text$x	SEGMENT
r$4 = 8
ex$5 = 40
$T6 = 260
$T7 = 296
x$ = 352
format$ = 360
format_option$ = 368
buffer$ = 376
buffer_size$ = 384
size$ = 392
PMCCS_ToString$catch$0 PROC

; 299  :         }
; 300  :         catch (const Palmtree::Math::Core::Internal::Exception& ex)
; 301  :         {

  00000	48 89 4c 24 08	 mov	 QWORD PTR [rsp+8], rcx
  00005	48 89 54 24 10	 mov	 QWORD PTR [rsp+16], rdx
  0000a	55		 push	 rbp
  0000b	57		 push	 rdi
  0000c	48 83 ec 38	 sub	 rsp, 56			; 00000038H
  00010	48 8d 6a 30	 lea	 rbp, QWORD PTR [rdx+48]
__catch$PMCCS_ToString$0:

; 299  :         }
; 300  :         catch (const Palmtree::Math::Core::Internal::Exception& ex)
; 301  :         {
; 302  :             return (ex.GetStatusCode());

  00014	48 8b 4d 28	 mov	 rcx, QWORD PTR ex$5[rbp]
  00018	e8 00 00 00 00	 call	 ?GetStatusCode@Exception@Internal@Core@Math@Palmtree@@QEBAHXZ ; Palmtree::Math::Core::Internal::Exception::GetStatusCode
  0001d	89 85 04 01 00
	00		 mov	 DWORD PTR $T6[rbp], eax
  00023	48 8d 05 00 00
	00 00		 lea	 rax, $LN9@PMCCS_ToSt
  0002a	eb 07		 jmp	 SHORT $LN10@PMCCS_ToSt

; 303  :         }

  0002c	48 8d 05 00 00
	00 00		 lea	 rax, __tryend$PMCCS_ToString$1
$LN10@PMCCS_ToSt:
  00033	48 83 c4 38	 add	 rsp, 56			; 00000038H
  00037	5f		 pop	 rdi
  00038	5d		 pop	 rbp
  00039	c3		 ret	 0
  0003a	cc		 int	 3
PMCCS_ToString$catch$0 ENDP
text$x	ENDS
; Function compile flags: /Odtp /RTCsu /ZI
;	COMDAT text$x
text$x	SEGMENT
r$4 = 8
ex$5 = 40
$T6 = 260
$T7 = 296
x$ = 352
format$ = 360
format_option$ = 368
buffer$ = 376
buffer_size$ = 384
size$ = 392
PMCCS_ToString$catch$0 PROC

; 301  :         {

  00000	48 89 4c 24 08	 mov	 QWORD PTR [rsp+8], rcx
  00005	48 89 54 24 10	 mov	 QWORD PTR [rsp+16], rdx
  0000a	55		 push	 rbp
  0000b	57		 push	 rdi
  0000c	48 83 ec 38	 sub	 rsp, 56			; 00000038H
  00010	48 8d 6a 30	 lea	 rbp, QWORD PTR [rdx+48]
__catch$PMCCS_ToString$0:

; 302  :             return (ex.GetStatusCode());

  00014	48 8b 4d 28	 mov	 rcx, QWORD PTR ex$5[rbp]
  00018	e8 00 00 00 00	 call	 ?GetStatusCode@Exception@Internal@Core@Math@Palmtree@@QEBAHXZ ; Palmtree::Math::Core::Internal::Exception::GetStatusCode
  0001d	89 85 04 01 00
	00		 mov	 DWORD PTR $T6[rbp], eax
  00023	48 8d 05 00 00
	00 00		 lea	 rax, $LN9@PMCCS_ToSt
  0002a	eb 07		 jmp	 SHORT $LN10@PMCCS_ToSt

; 303  :         }

  0002c	48 8d 05 00 00
	00 00		 lea	 rax, __tryend$PMCCS_ToString$1
$LN10@PMCCS_ToSt:
  00033	48 83 c4 38	 add	 rsp, 56			; 00000038H
  00037	5f		 pop	 rdi
  00038	5d		 pop	 rbp
  00039	c3		 ret	 0
  0003a	cc		 int	 3
PMCCS_ToString$catch$0 ENDP
text$x	ENDS
; Function compile flags: /Odtp /RTCsu /ZI
; File z:\sources\lunor\repos\rougemeilland\palmtree.math.core.uint\palmtree.math.core.uint\pmc_interface_csharp.cpp
;	COMDAT PMCCS_To_X_L
_TEXT	SEGMENT
ex$4 = 8
$T5 = 228
$T6 = 264
p$ = 320
o$ = 328
PMCCS_To_X_L PROC					; COMDAT

; 274  :     {

$LN10:
  00000	48 89 54 24 10	 mov	 QWORD PTR [rsp+16], rdx
  00005	48 89 4c 24 08	 mov	 QWORD PTR [rsp+8], rcx
  0000a	55		 push	 rbp
  0000b	57		 push	 rdi
  0000c	48 81 ec 48 01
	00 00		 sub	 rsp, 328		; 00000148H
  00013	48 8d 6c 24 20	 lea	 rbp, QWORD PTR [rsp+32]
  00018	48 8b fc	 mov	 rdi, rsp
  0001b	b9 52 00 00 00	 mov	 ecx, 82			; 00000052H
  00020	b8 cc cc cc cc	 mov	 eax, -858993460		; ccccccccH
  00025	f3 ab		 rep stosd
  00027	48 8b 8c 24 68
	01 00 00	 mov	 rcx, QWORD PTR [rsp+360]
  0002f	48 c7 85 08 01
	00 00 fe ff ff
	ff		 mov	 QWORD PTR $T6[rbp], -2
  0003a	48 8d 0d 00 00
	00 00		 lea	 rcx, OFFSET FLAT:__C21BA676_pmc_interface_csharp@cpp
  00041	e8 00 00 00 00	 call	 __CheckForDebuggerJustMyCode

; 275  :         if (o == nullptr)

  00046	48 83 bd 48 01
	00 00 00	 cmp	 QWORD PTR o$[rbp], 0
  0004e	75 07		 jne	 SHORT $LN2@PMCCS_To_X

; 276  :             return (PMC_STATUS_ARGUMENT_NULL_ERROR);

  00050	b8 fe ff ff ff	 mov	 eax, -2
  00055	eb 22		 jmp	 SHORT $LN1@PMCCS_To_X
$LN2@PMCCS_To_X:

; 277  :         try
; 278  :         {
; 279  :             *o = PMC_To_X_L(p);

  00057	48 8b 8d 40 01
	00 00		 mov	 rcx, QWORD PTR p$[rbp]
  0005e	e8 00 00 00 00	 call	 ?PMC_To_X_L@Internal@Core@Math@Palmtree@@YA_KPEAU__tag_PMC_HANDLE_UINT@1234@@Z ; Palmtree::Math::Core::Internal::PMC_To_X_L
  00063	48 8b 8d 48 01
	00 00		 mov	 rcx, QWORD PTR o$[rbp]
  0006a	48 89 01	 mov	 QWORD PTR [rcx], rax

; 280  :             return (PMC_STATUS_OK);

  0006d	33 c0		 xor	 eax, eax
  0006f	eb 08		 jmp	 SHORT $LN1@PMCCS_To_X
__tryend$PMCCS_To_X_L$1:
  00071	eb 06		 jmp	 SHORT $LN1@PMCCS_To_X
$LN8@PMCCS_To_X:

; 281  :         }
; 282  :         catch (const Palmtree::Math::Core::Internal::Exception& ex)
; 283  :         {
; 284  :             return (ex.GetStatusCode());

  00073	8b 85 e4 00 00
	00		 mov	 eax, DWORD PTR $T5[rbp]
$LN1@PMCCS_To_X:

; 285  :         }
; 286  :     }

  00079	48 8b f8	 mov	 rdi, rax
  0007c	48 8d 4d e0	 lea	 rcx, QWORD PTR [rbp-32]
  00080	48 8d 15 00 00
	00 00		 lea	 rdx, OFFSET FLAT:PMCCS_To_X_L$rtcFrameData
  00087	e8 00 00 00 00	 call	 _RTC_CheckStackVars
  0008c	48 8b c7	 mov	 rax, rdi
  0008f	48 8d a5 28 01
	00 00		 lea	 rsp, QWORD PTR [rbp+296]
  00096	5f		 pop	 rdi
  00097	5d		 pop	 rbp
  00098	c3		 ret	 0
  00099	cc		 int	 3
PMCCS_To_X_L ENDP
_TEXT	ENDS
;	COMDAT text$x
text$x	SEGMENT
ex$4 = 8
$T5 = 228
$T6 = 264
p$ = 320
o$ = 328
PMCCS_To_X_L$catch$0 PROC

; 281  :         }
; 282  :         catch (const Palmtree::Math::Core::Internal::Exception& ex)
; 283  :         {

  00000	48 89 4c 24 08	 mov	 QWORD PTR [rsp+8], rcx
  00005	48 89 54 24 10	 mov	 QWORD PTR [rsp+16], rdx
  0000a	55		 push	 rbp
  0000b	57		 push	 rdi
  0000c	48 83 ec 28	 sub	 rsp, 40			; 00000028H
  00010	48 8d 6a 20	 lea	 rbp, QWORD PTR [rdx+32]
__catch$PMCCS_To_X_L$0:

; 281  :         }
; 282  :         catch (const Palmtree::Math::Core::Internal::Exception& ex)
; 283  :         {
; 284  :             return (ex.GetStatusCode());

  00014	48 8b 4d 08	 mov	 rcx, QWORD PTR ex$4[rbp]
  00018	e8 00 00 00 00	 call	 ?GetStatusCode@Exception@Internal@Core@Math@Palmtree@@QEBAHXZ ; Palmtree::Math::Core::Internal::Exception::GetStatusCode
  0001d	89 85 e4 00 00
	00		 mov	 DWORD PTR $T5[rbp], eax
  00023	48 8d 05 00 00
	00 00		 lea	 rax, $LN8@PMCCS_To_X
  0002a	eb 07		 jmp	 SHORT $LN9@PMCCS_To_X

; 285  :         }

  0002c	48 8d 05 00 00
	00 00		 lea	 rax, __tryend$PMCCS_To_X_L$1
$LN9@PMCCS_To_X:
  00033	48 83 c4 28	 add	 rsp, 40			; 00000028H
  00037	5f		 pop	 rdi
  00038	5d		 pop	 rbp
  00039	c3		 ret	 0
  0003a	cc		 int	 3
PMCCS_To_X_L$catch$0 ENDP
text$x	ENDS
; Function compile flags: /Odtp /RTCsu /ZI
;	COMDAT text$x
text$x	SEGMENT
ex$4 = 8
$T5 = 228
$T6 = 264
p$ = 320
o$ = 328
PMCCS_To_X_L$catch$0 PROC

; 283  :         {

  00000	48 89 4c 24 08	 mov	 QWORD PTR [rsp+8], rcx
  00005	48 89 54 24 10	 mov	 QWORD PTR [rsp+16], rdx
  0000a	55		 push	 rbp
  0000b	57		 push	 rdi
  0000c	48 83 ec 28	 sub	 rsp, 40			; 00000028H
  00010	48 8d 6a 20	 lea	 rbp, QWORD PTR [rdx+32]
__catch$PMCCS_To_X_L$0:

; 284  :             return (ex.GetStatusCode());

  00014	48 8b 4d 08	 mov	 rcx, QWORD PTR ex$4[rbp]
  00018	e8 00 00 00 00	 call	 ?GetStatusCode@Exception@Internal@Core@Math@Palmtree@@QEBAHXZ ; Palmtree::Math::Core::Internal::Exception::GetStatusCode
  0001d	89 85 e4 00 00
	00		 mov	 DWORD PTR $T5[rbp], eax
  00023	48 8d 05 00 00
	00 00		 lea	 rax, $LN8@PMCCS_To_X
  0002a	eb 07		 jmp	 SHORT $LN9@PMCCS_To_X

; 285  :         }

  0002c	48 8d 05 00 00
	00 00		 lea	 rax, __tryend$PMCCS_To_X_L$1
$LN9@PMCCS_To_X:
  00033	48 83 c4 28	 add	 rsp, 40			; 00000028H
  00037	5f		 pop	 rdi
  00038	5d		 pop	 rbp
  00039	c3		 ret	 0
  0003a	cc		 int	 3
PMCCS_To_X_L$catch$0 ENDP
text$x	ENDS
; Function compile flags: /Odtp /RTCsu /ZI
; File z:\sources\lunor\repos\rougemeilland\palmtree.math.core.uint\palmtree.math.core.uint\pmc_interface_csharp.cpp
;	COMDAT PMCCS_To_X_I
_TEXT	SEGMENT
ex$4 = 8
$T5 = 228
$T6 = 264
p$ = 320
o$ = 328
PMCCS_To_X_I PROC					; COMDAT

; 259  :     {

$LN10:
  00000	48 89 54 24 10	 mov	 QWORD PTR [rsp+16], rdx
  00005	48 89 4c 24 08	 mov	 QWORD PTR [rsp+8], rcx
  0000a	55		 push	 rbp
  0000b	57		 push	 rdi
  0000c	48 81 ec 48 01
	00 00		 sub	 rsp, 328		; 00000148H
  00013	48 8d 6c 24 20	 lea	 rbp, QWORD PTR [rsp+32]
  00018	48 8b fc	 mov	 rdi, rsp
  0001b	b9 52 00 00 00	 mov	 ecx, 82			; 00000052H
  00020	b8 cc cc cc cc	 mov	 eax, -858993460		; ccccccccH
  00025	f3 ab		 rep stosd
  00027	48 8b 8c 24 68
	01 00 00	 mov	 rcx, QWORD PTR [rsp+360]
  0002f	48 c7 85 08 01
	00 00 fe ff ff
	ff		 mov	 QWORD PTR $T6[rbp], -2
  0003a	48 8d 0d 00 00
	00 00		 lea	 rcx, OFFSET FLAT:__C21BA676_pmc_interface_csharp@cpp
  00041	e8 00 00 00 00	 call	 __CheckForDebuggerJustMyCode

; 260  :         if (o == nullptr)

  00046	48 83 bd 48 01
	00 00 00	 cmp	 QWORD PTR o$[rbp], 0
  0004e	75 07		 jne	 SHORT $LN2@PMCCS_To_X

; 261  :             return (PMC_STATUS_ARGUMENT_NULL_ERROR);

  00050	b8 fe ff ff ff	 mov	 eax, -2
  00055	eb 21		 jmp	 SHORT $LN1@PMCCS_To_X
$LN2@PMCCS_To_X:

; 262  :         try
; 263  :         {
; 264  :             *o = PMC_To_X_I(p);

  00057	48 8b 8d 40 01
	00 00		 mov	 rcx, QWORD PTR p$[rbp]
  0005e	e8 00 00 00 00	 call	 ?PMC_To_X_I@Internal@Core@Math@Palmtree@@YAIPEAU__tag_PMC_HANDLE_UINT@1234@@Z ; Palmtree::Math::Core::Internal::PMC_To_X_I
  00063	48 8b 8d 48 01
	00 00		 mov	 rcx, QWORD PTR o$[rbp]
  0006a	89 01		 mov	 DWORD PTR [rcx], eax

; 265  :             return (PMC_STATUS_OK);

  0006c	33 c0		 xor	 eax, eax
  0006e	eb 08		 jmp	 SHORT $LN1@PMCCS_To_X
__tryend$PMCCS_To_X_I$1:
  00070	eb 06		 jmp	 SHORT $LN1@PMCCS_To_X
$LN8@PMCCS_To_X:

; 266  :         }
; 267  :         catch (const Palmtree::Math::Core::Internal::Exception& ex)
; 268  :         {
; 269  :             return (ex.GetStatusCode());

  00072	8b 85 e4 00 00
	00		 mov	 eax, DWORD PTR $T5[rbp]
$LN1@PMCCS_To_X:

; 270  :         }
; 271  :     }

  00078	48 8b f8	 mov	 rdi, rax
  0007b	48 8d 4d e0	 lea	 rcx, QWORD PTR [rbp-32]
  0007f	48 8d 15 00 00
	00 00		 lea	 rdx, OFFSET FLAT:PMCCS_To_X_I$rtcFrameData
  00086	e8 00 00 00 00	 call	 _RTC_CheckStackVars
  0008b	48 8b c7	 mov	 rax, rdi
  0008e	48 8d a5 28 01
	00 00		 lea	 rsp, QWORD PTR [rbp+296]
  00095	5f		 pop	 rdi
  00096	5d		 pop	 rbp
  00097	c3		 ret	 0
  00098	cc		 int	 3
PMCCS_To_X_I ENDP
_TEXT	ENDS
;	COMDAT text$x
text$x	SEGMENT
ex$4 = 8
$T5 = 228
$T6 = 264
p$ = 320
o$ = 328
PMCCS_To_X_I$catch$0 PROC

; 266  :         }
; 267  :         catch (const Palmtree::Math::Core::Internal::Exception& ex)
; 268  :         {

  00000	48 89 4c 24 08	 mov	 QWORD PTR [rsp+8], rcx
  00005	48 89 54 24 10	 mov	 QWORD PTR [rsp+16], rdx
  0000a	55		 push	 rbp
  0000b	57		 push	 rdi
  0000c	48 83 ec 28	 sub	 rsp, 40			; 00000028H
  00010	48 8d 6a 20	 lea	 rbp, QWORD PTR [rdx+32]
__catch$PMCCS_To_X_I$0:

; 266  :         }
; 267  :         catch (const Palmtree::Math::Core::Internal::Exception& ex)
; 268  :         {
; 269  :             return (ex.GetStatusCode());

  00014	48 8b 4d 08	 mov	 rcx, QWORD PTR ex$4[rbp]
  00018	e8 00 00 00 00	 call	 ?GetStatusCode@Exception@Internal@Core@Math@Palmtree@@QEBAHXZ ; Palmtree::Math::Core::Internal::Exception::GetStatusCode
  0001d	89 85 e4 00 00
	00		 mov	 DWORD PTR $T5[rbp], eax
  00023	48 8d 05 00 00
	00 00		 lea	 rax, $LN8@PMCCS_To_X
  0002a	eb 07		 jmp	 SHORT $LN9@PMCCS_To_X

; 270  :         }

  0002c	48 8d 05 00 00
	00 00		 lea	 rax, __tryend$PMCCS_To_X_I$1
$LN9@PMCCS_To_X:
  00033	48 83 c4 28	 add	 rsp, 40			; 00000028H
  00037	5f		 pop	 rdi
  00038	5d		 pop	 rbp
  00039	c3		 ret	 0
  0003a	cc		 int	 3
PMCCS_To_X_I$catch$0 ENDP
text$x	ENDS
; Function compile flags: /Odtp /RTCsu /ZI
;	COMDAT text$x
text$x	SEGMENT
ex$4 = 8
$T5 = 228
$T6 = 264
p$ = 320
o$ = 328
PMCCS_To_X_I$catch$0 PROC

; 268  :         {

  00000	48 89 4c 24 08	 mov	 QWORD PTR [rsp+8], rcx
  00005	48 89 54 24 10	 mov	 QWORD PTR [rsp+16], rdx
  0000a	55		 push	 rbp
  0000b	57		 push	 rdi
  0000c	48 83 ec 28	 sub	 rsp, 40			; 00000028H
  00010	48 8d 6a 20	 lea	 rbp, QWORD PTR [rdx+32]
__catch$PMCCS_To_X_I$0:

; 269  :             return (ex.GetStatusCode());

  00014	48 8b 4d 08	 mov	 rcx, QWORD PTR ex$4[rbp]
  00018	e8 00 00 00 00	 call	 ?GetStatusCode@Exception@Internal@Core@Math@Palmtree@@QEBAHXZ ; Palmtree::Math::Core::Internal::Exception::GetStatusCode
  0001d	89 85 e4 00 00
	00		 mov	 DWORD PTR $T5[rbp], eax
  00023	48 8d 05 00 00
	00 00		 lea	 rax, $LN8@PMCCS_To_X
  0002a	eb 07		 jmp	 SHORT $LN9@PMCCS_To_X

; 270  :         }

  0002c	48 8d 05 00 00
	00 00		 lea	 rax, __tryend$PMCCS_To_X_I$1
$LN9@PMCCS_To_X:
  00033	48 83 c4 28	 add	 rsp, 40			; 00000028H
  00037	5f		 pop	 rdi
  00038	5d		 pop	 rbp
  00039	c3		 ret	 0
  0003a	cc		 int	 3
PMCCS_To_X_I$catch$0 ENDP
text$x	ENDS
; Function compile flags: /Odtp /RTCsu /ZI
; File z:\sources\lunor\repos\rougemeilland\palmtree.math.core.uint\palmtree.math.core.uint\pmc_interface_csharp.cpp
;	COMDAT PMCCS_GetAllocatedMemorySize
_TEXT	SEGMENT
ex$4 = 8
$T5 = 228
$T6 = 264
size$ = 320
PMCCS_GetAllocatedMemorySize PROC			; COMDAT

; 244  :     {

$LN10:
  00000	48 89 4c 24 08	 mov	 QWORD PTR [rsp+8], rcx
  00005	55		 push	 rbp
  00006	57		 push	 rdi
  00007	48 81 ec 48 01
	00 00		 sub	 rsp, 328		; 00000148H
  0000e	48 8d 6c 24 20	 lea	 rbp, QWORD PTR [rsp+32]
  00013	48 8b fc	 mov	 rdi, rsp
  00016	b9 52 00 00 00	 mov	 ecx, 82			; 00000052H
  0001b	b8 cc cc cc cc	 mov	 eax, -858993460		; ccccccccH
  00020	f3 ab		 rep stosd
  00022	48 8b 8c 24 68
	01 00 00	 mov	 rcx, QWORD PTR [rsp+360]
  0002a	48 c7 85 08 01
	00 00 fe ff ff
	ff		 mov	 QWORD PTR $T6[rbp], -2
  00035	48 8d 0d 00 00
	00 00		 lea	 rcx, OFFSET FLAT:__C21BA676_pmc_interface_csharp@cpp
  0003c	e8 00 00 00 00	 call	 __CheckForDebuggerJustMyCode

; 245  :         if (size == nullptr)

  00041	48 83 bd 40 01
	00 00 00	 cmp	 QWORD PTR size$[rbp], 0
  00049	75 07		 jne	 SHORT $LN2@PMCCS_GetA

; 246  :             return (PMC_STATUS_ARGUMENT_NULL_ERROR);

  0004b	b8 fe ff ff ff	 mov	 eax, -2
  00050	eb 1b		 jmp	 SHORT $LN1@PMCCS_GetA
$LN2@PMCCS_GetA:

; 247  :         try
; 248  :         {
; 249  :             *size = PMC_GetAllocatedMemorySize();

  00052	e8 00 00 00 00	 call	 ?PMC_GetAllocatedMemorySize@Internal@Core@Math@Palmtree@@YA_KXZ ; Palmtree::Math::Core::Internal::PMC_GetAllocatedMemorySize
  00057	48 8b 8d 40 01
	00 00		 mov	 rcx, QWORD PTR size$[rbp]
  0005e	48 89 01	 mov	 QWORD PTR [rcx], rax

; 250  :             return (PMC_STATUS_OK);

  00061	33 c0		 xor	 eax, eax
  00063	eb 08		 jmp	 SHORT $LN1@PMCCS_GetA
__tryend$PMCCS_GetAllocatedMemorySize$1:
  00065	eb 06		 jmp	 SHORT $LN1@PMCCS_GetA
$LN8@PMCCS_GetA:

; 251  :         }
; 252  :         catch (const Palmtree::Math::Core::Internal::Exception& ex)
; 253  :         {
; 254  :             return (ex.GetStatusCode());

  00067	8b 85 e4 00 00
	00		 mov	 eax, DWORD PTR $T5[rbp]
$LN1@PMCCS_GetA:

; 255  :         }
; 256  :     }

  0006d	48 8b f8	 mov	 rdi, rax
  00070	48 8d 4d e0	 lea	 rcx, QWORD PTR [rbp-32]
  00074	48 8d 15 00 00
	00 00		 lea	 rdx, OFFSET FLAT:PMCCS_GetAllocatedMemorySize$rtcFrameData
  0007b	e8 00 00 00 00	 call	 _RTC_CheckStackVars
  00080	48 8b c7	 mov	 rax, rdi
  00083	48 8d a5 28 01
	00 00		 lea	 rsp, QWORD PTR [rbp+296]
  0008a	5f		 pop	 rdi
  0008b	5d		 pop	 rbp
  0008c	c3		 ret	 0
  0008d	cc		 int	 3
PMCCS_GetAllocatedMemorySize ENDP
_TEXT	ENDS
;	COMDAT text$x
text$x	SEGMENT
ex$4 = 8
$T5 = 228
$T6 = 264
size$ = 320
PMCCS_GetAllocatedMemorySize$catch$0 PROC

; 251  :         }
; 252  :         catch (const Palmtree::Math::Core::Internal::Exception& ex)
; 253  :         {

  00000	48 89 4c 24 08	 mov	 QWORD PTR [rsp+8], rcx
  00005	48 89 54 24 10	 mov	 QWORD PTR [rsp+16], rdx
  0000a	55		 push	 rbp
  0000b	57		 push	 rdi
  0000c	48 83 ec 28	 sub	 rsp, 40			; 00000028H
  00010	48 8d 6a 20	 lea	 rbp, QWORD PTR [rdx+32]
__catch$PMCCS_GetAllocatedMemorySize$0:

; 251  :         }
; 252  :         catch (const Palmtree::Math::Core::Internal::Exception& ex)
; 253  :         {
; 254  :             return (ex.GetStatusCode());

  00014	48 8b 4d 08	 mov	 rcx, QWORD PTR ex$4[rbp]
  00018	e8 00 00 00 00	 call	 ?GetStatusCode@Exception@Internal@Core@Math@Palmtree@@QEBAHXZ ; Palmtree::Math::Core::Internal::Exception::GetStatusCode
  0001d	89 85 e4 00 00
	00		 mov	 DWORD PTR $T5[rbp], eax
  00023	48 8d 05 00 00
	00 00		 lea	 rax, $LN8@PMCCS_GetA
  0002a	eb 07		 jmp	 SHORT $LN9@PMCCS_GetA

; 255  :         }

  0002c	48 8d 05 00 00
	00 00		 lea	 rax, __tryend$PMCCS_GetAllocatedMemorySize$1
$LN9@PMCCS_GetA:
  00033	48 83 c4 28	 add	 rsp, 40			; 00000028H
  00037	5f		 pop	 rdi
  00038	5d		 pop	 rbp
  00039	c3		 ret	 0
  0003a	cc		 int	 3
PMCCS_GetAllocatedMemorySize$catch$0 ENDP
text$x	ENDS
; Function compile flags: /Odtp /RTCsu /ZI
;	COMDAT text$x
text$x	SEGMENT
ex$4 = 8
$T5 = 228
$T6 = 264
size$ = 320
PMCCS_GetAllocatedMemorySize$catch$0 PROC

; 253  :         {

  00000	48 89 4c 24 08	 mov	 QWORD PTR [rsp+8], rcx
  00005	48 89 54 24 10	 mov	 QWORD PTR [rsp+16], rdx
  0000a	55		 push	 rbp
  0000b	57		 push	 rdi
  0000c	48 83 ec 28	 sub	 rsp, 40			; 00000028H
  00010	48 8d 6a 20	 lea	 rbp, QWORD PTR [rdx+32]
__catch$PMCCS_GetAllocatedMemorySize$0:

; 254  :             return (ex.GetStatusCode());

  00014	48 8b 4d 08	 mov	 rcx, QWORD PTR ex$4[rbp]
  00018	e8 00 00 00 00	 call	 ?GetStatusCode@Exception@Internal@Core@Math@Palmtree@@QEBAHXZ ; Palmtree::Math::Core::Internal::Exception::GetStatusCode
  0001d	89 85 e4 00 00
	00		 mov	 DWORD PTR $T5[rbp], eax
  00023	48 8d 05 00 00
	00 00		 lea	 rax, $LN8@PMCCS_GetA
  0002a	eb 07		 jmp	 SHORT $LN9@PMCCS_GetA

; 255  :         }

  0002c	48 8d 05 00 00
	00 00		 lea	 rax, __tryend$PMCCS_GetAllocatedMemorySize$1
$LN9@PMCCS_GetA:
  00033	48 83 c4 28	 add	 rsp, 40			; 00000028H
  00037	5f		 pop	 rdi
  00038	5d		 pop	 rbp
  00039	c3		 ret	 0
  0003a	cc		 int	 3
PMCCS_GetAllocatedMemorySize$catch$0 ENDP
text$x	ENDS
; Function compile flags: /Odtp /RTCsu /ZI
; File z:\sources\lunor\repos\rougemeilland\palmtree.math.core.uint\palmtree.math.core.uint\pmc_interface_csharp.cpp
;	COMDAT PMCCS_Clone_X
_TEXT	SEGMENT
ex$4 = 8
$T5 = 228
$T6 = 264
x$ = 320
o$ = 328
PMCCS_Clone_X PROC					; COMDAT

; 229  :     {

$LN10:
  00000	48 89 54 24 10	 mov	 QWORD PTR [rsp+16], rdx
  00005	48 89 4c 24 08	 mov	 QWORD PTR [rsp+8], rcx
  0000a	55		 push	 rbp
  0000b	57		 push	 rdi
  0000c	48 81 ec 48 01
	00 00		 sub	 rsp, 328		; 00000148H
  00013	48 8d 6c 24 20	 lea	 rbp, QWORD PTR [rsp+32]
  00018	48 8b fc	 mov	 rdi, rsp
  0001b	b9 52 00 00 00	 mov	 ecx, 82			; 00000052H
  00020	b8 cc cc cc cc	 mov	 eax, -858993460		; ccccccccH
  00025	f3 ab		 rep stosd
  00027	48 8b 8c 24 68
	01 00 00	 mov	 rcx, QWORD PTR [rsp+360]
  0002f	48 c7 85 08 01
	00 00 fe ff ff
	ff		 mov	 QWORD PTR $T6[rbp], -2
  0003a	48 8d 0d 00 00
	00 00		 lea	 rcx, OFFSET FLAT:__C21BA676_pmc_interface_csharp@cpp
  00041	e8 00 00 00 00	 call	 __CheckForDebuggerJustMyCode

; 230  :         if (o == nullptr)

  00046	48 83 bd 48 01
	00 00 00	 cmp	 QWORD PTR o$[rbp], 0
  0004e	75 07		 jne	 SHORT $LN2@PMCCS_Clon

; 231  :             return (PMC_STATUS_ARGUMENT_NULL_ERROR);

  00050	b8 fe ff ff ff	 mov	 eax, -2
  00055	eb 22		 jmp	 SHORT $LN1@PMCCS_Clon
$LN2@PMCCS_Clon:

; 232  :         try
; 233  :         {
; 234  :             *o = PMC_Clone_X(x);

  00057	48 8b 8d 40 01
	00 00		 mov	 rcx, QWORD PTR x$[rbp]
  0005e	e8 00 00 00 00	 call	 ?PMC_Clone_X@Internal@Core@Math@Palmtree@@YAPEAU__tag_PMC_HANDLE_UINT@1234@PEAU51234@@Z ; Palmtree::Math::Core::Internal::PMC_Clone_X
  00063	48 8b 8d 48 01
	00 00		 mov	 rcx, QWORD PTR o$[rbp]
  0006a	48 89 01	 mov	 QWORD PTR [rcx], rax

; 235  :             return (PMC_STATUS_OK);

  0006d	33 c0		 xor	 eax, eax
  0006f	eb 08		 jmp	 SHORT $LN1@PMCCS_Clon
__tryend$PMCCS_Clone_X$1:
  00071	eb 06		 jmp	 SHORT $LN1@PMCCS_Clon
$LN8@PMCCS_Clon:

; 236  :         }
; 237  :         catch (const Palmtree::Math::Core::Internal::Exception& ex)
; 238  :         {
; 239  :             return (ex.GetStatusCode());

  00073	8b 85 e4 00 00
	00		 mov	 eax, DWORD PTR $T5[rbp]
$LN1@PMCCS_Clon:

; 240  :         }
; 241  :     }

  00079	48 8b f8	 mov	 rdi, rax
  0007c	48 8d 4d e0	 lea	 rcx, QWORD PTR [rbp-32]
  00080	48 8d 15 00 00
	00 00		 lea	 rdx, OFFSET FLAT:PMCCS_Clone_X$rtcFrameData
  00087	e8 00 00 00 00	 call	 _RTC_CheckStackVars
  0008c	48 8b c7	 mov	 rax, rdi
  0008f	48 8d a5 28 01
	00 00		 lea	 rsp, QWORD PTR [rbp+296]
  00096	5f		 pop	 rdi
  00097	5d		 pop	 rbp
  00098	c3		 ret	 0
  00099	cc		 int	 3
PMCCS_Clone_X ENDP
_TEXT	ENDS
;	COMDAT text$x
text$x	SEGMENT
ex$4 = 8
$T5 = 228
$T6 = 264
x$ = 320
o$ = 328
PMCCS_Clone_X$catch$0 PROC

; 236  :         }
; 237  :         catch (const Palmtree::Math::Core::Internal::Exception& ex)
; 238  :         {

  00000	48 89 4c 24 08	 mov	 QWORD PTR [rsp+8], rcx
  00005	48 89 54 24 10	 mov	 QWORD PTR [rsp+16], rdx
  0000a	55		 push	 rbp
  0000b	57		 push	 rdi
  0000c	48 83 ec 28	 sub	 rsp, 40			; 00000028H
  00010	48 8d 6a 20	 lea	 rbp, QWORD PTR [rdx+32]
__catch$PMCCS_Clone_X$0:

; 236  :         }
; 237  :         catch (const Palmtree::Math::Core::Internal::Exception& ex)
; 238  :         {
; 239  :             return (ex.GetStatusCode());

  00014	48 8b 4d 08	 mov	 rcx, QWORD PTR ex$4[rbp]
  00018	e8 00 00 00 00	 call	 ?GetStatusCode@Exception@Internal@Core@Math@Palmtree@@QEBAHXZ ; Palmtree::Math::Core::Internal::Exception::GetStatusCode
  0001d	89 85 e4 00 00
	00		 mov	 DWORD PTR $T5[rbp], eax
  00023	48 8d 05 00 00
	00 00		 lea	 rax, $LN8@PMCCS_Clon
  0002a	eb 07		 jmp	 SHORT $LN9@PMCCS_Clon

; 240  :         }

  0002c	48 8d 05 00 00
	00 00		 lea	 rax, __tryend$PMCCS_Clone_X$1
$LN9@PMCCS_Clon:
  00033	48 83 c4 28	 add	 rsp, 40			; 00000028H
  00037	5f		 pop	 rdi
  00038	5d		 pop	 rbp
  00039	c3		 ret	 0
  0003a	cc		 int	 3
PMCCS_Clone_X$catch$0 ENDP
text$x	ENDS
; Function compile flags: /Odtp /RTCsu /ZI
;	COMDAT text$x
text$x	SEGMENT
ex$4 = 8
$T5 = 228
$T6 = 264
x$ = 320
o$ = 328
PMCCS_Clone_X$catch$0 PROC

; 238  :         {

  00000	48 89 4c 24 08	 mov	 QWORD PTR [rsp+8], rcx
  00005	48 89 54 24 10	 mov	 QWORD PTR [rsp+16], rdx
  0000a	55		 push	 rbp
  0000b	57		 push	 rdi
  0000c	48 83 ec 28	 sub	 rsp, 40			; 00000028H
  00010	48 8d 6a 20	 lea	 rbp, QWORD PTR [rdx+32]
__catch$PMCCS_Clone_X$0:

; 239  :             return (ex.GetStatusCode());

  00014	48 8b 4d 08	 mov	 rcx, QWORD PTR ex$4[rbp]
  00018	e8 00 00 00 00	 call	 ?GetStatusCode@Exception@Internal@Core@Math@Palmtree@@QEBAHXZ ; Palmtree::Math::Core::Internal::Exception::GetStatusCode
  0001d	89 85 e4 00 00
	00		 mov	 DWORD PTR $T5[rbp], eax
  00023	48 8d 05 00 00
	00 00		 lea	 rax, $LN8@PMCCS_Clon
  0002a	eb 07		 jmp	 SHORT $LN9@PMCCS_Clon

; 240  :         }

  0002c	48 8d 05 00 00
	00 00		 lea	 rax, __tryend$PMCCS_Clone_X$1
$LN9@PMCCS_Clon:
  00033	48 83 c4 28	 add	 rsp, 40			; 00000028H
  00037	5f		 pop	 rdi
  00038	5d		 pop	 rbp
  00039	c3		 ret	 0
  0003a	cc		 int	 3
PMCCS_Clone_X$catch$0 ENDP
text$x	ENDS
; Function compile flags: /Odtp /RTCsu /ZI
; File z:\sources\lunor\repos\rougemeilland\palmtree.math.core.uint\palmtree.math.core.uint\pmc_interface_csharp.cpp
;	COMDAT PMCCS_ToByteArray
_TEXT	SEGMENT
r$4 = 8
ex$5 = 40
$T6 = 260
$T7 = 296
p$ = 352
buffer$ = 360
buffer_size$ = 368
size$ = 376
PMCCS_ToByteArray PROC					; COMDAT

; 211  :     {

$LN11:
  00000	4c 89 4c 24 20	 mov	 QWORD PTR [rsp+32], r9
  00005	44 89 44 24 18	 mov	 DWORD PTR [rsp+24], r8d
  0000a	48 89 54 24 10	 mov	 QWORD PTR [rsp+16], rdx
  0000f	48 89 4c 24 08	 mov	 QWORD PTR [rsp+8], rcx
  00014	55		 push	 rbp
  00015	57		 push	 rdi
  00016	48 81 ec 68 01
	00 00		 sub	 rsp, 360		; 00000168H
  0001d	48 8d 6c 24 20	 lea	 rbp, QWORD PTR [rsp+32]
  00022	48 8b fc	 mov	 rdi, rsp
  00025	b9 5a 00 00 00	 mov	 ecx, 90			; 0000005aH
  0002a	b8 cc cc cc cc	 mov	 eax, -858993460		; ccccccccH
  0002f	f3 ab		 rep stosd
  00031	48 8b 8c 24 88
	01 00 00	 mov	 rcx, QWORD PTR [rsp+392]
  00039	48 c7 85 28 01
	00 00 fe ff ff
	ff		 mov	 QWORD PTR $T7[rbp], -2
  00044	48 8d 0d 00 00
	00 00		 lea	 rcx, OFFSET FLAT:__C21BA676_pmc_interface_csharp@cpp
  0004b	e8 00 00 00 00	 call	 __CheckForDebuggerJustMyCode

; 212  :         if (size == nullptr)

  00050	48 83 bd 78 01
	00 00 00	 cmp	 QWORD PTR size$[rbp], 0
  00058	75 07		 jne	 SHORT $LN2@PMCCS_ToBy

; 213  :             return (PMC_STATUS_ARGUMENT_NULL_ERROR);

  0005a	b8 fe ff ff ff	 mov	 eax, -2
  0005f	eb 4a		 jmp	 SHORT $LN1@PMCCS_ToBy
$LN2@PMCCS_ToBy:

; 214  :         try
; 215  :         {
; 216  :             size_t r = PMC_ToByteArray(p, buffer, buffer_size);

  00061	48 63 85 70 01
	00 00		 movsxd	 rax, DWORD PTR buffer_size$[rbp]
  00068	4c 8b c0	 mov	 r8, rax
  0006b	48 8b 95 68 01
	00 00		 mov	 rdx, QWORD PTR buffer$[rbp]
  00072	48 8b 8d 60 01
	00 00		 mov	 rcx, QWORD PTR p$[rbp]
  00079	e8 00 00 00 00	 call	 ?PMC_ToByteArray@Internal@Core@Math@Palmtree@@YA_KPEAU__tag_PMC_HANDLE_UINT@1234@PEAE_K@Z ; Palmtree::Math::Core::Internal::PMC_ToByteArray
  0007e	48 89 45 08	 mov	 QWORD PTR r$4[rbp], rax

; 217  :             if (r > 0x7fffffff)

  00082	48 81 7d 08 ff
	ff ff 7f	 cmp	 QWORD PTR r$4[rbp], 2147483647 ; 7fffffffH
  0008a	76 07		 jbe	 SHORT $LN4@PMCCS_ToBy

; 218  :                 return (PMC_STATUS_NOT_ENOUGH_MEMORY);

  0008c	b8 f7 ff ff ff	 mov	 eax, -9
  00091	eb 18		 jmp	 SHORT $LN1@PMCCS_ToBy
$LN4@PMCCS_ToBy:

; 219  :             *size = (_INT32_T)r;

  00093	48 8b 85 78 01
	00 00		 mov	 rax, QWORD PTR size$[rbp]
  0009a	8b 4d 08	 mov	 ecx, DWORD PTR r$4[rbp]
  0009d	89 08		 mov	 DWORD PTR [rax], ecx

; 220  :             return (PMC_STATUS_OK);

  0009f	33 c0		 xor	 eax, eax
  000a1	eb 08		 jmp	 SHORT $LN1@PMCCS_ToBy
__tryend$PMCCS_ToByteArray$1:
  000a3	eb 06		 jmp	 SHORT $LN1@PMCCS_ToBy
$LN9@PMCCS_ToBy:

; 221  :         }
; 222  :         catch (const Palmtree::Math::Core::Internal::Exception& ex)
; 223  :         {
; 224  :             return (ex.GetStatusCode());

  000a5	8b 85 04 01 00
	00		 mov	 eax, DWORD PTR $T6[rbp]
$LN1@PMCCS_ToBy:

; 225  :         }
; 226  :     }

  000ab	48 8b f8	 mov	 rdi, rax
  000ae	48 8d 4d e0	 lea	 rcx, QWORD PTR [rbp-32]
  000b2	48 8d 15 00 00
	00 00		 lea	 rdx, OFFSET FLAT:PMCCS_ToByteArray$rtcFrameData
  000b9	e8 00 00 00 00	 call	 _RTC_CheckStackVars
  000be	48 8b c7	 mov	 rax, rdi
  000c1	48 8d a5 48 01
	00 00		 lea	 rsp, QWORD PTR [rbp+328]
  000c8	5f		 pop	 rdi
  000c9	5d		 pop	 rbp
  000ca	c3		 ret	 0
  000cb	cc		 int	 3
PMCCS_ToByteArray ENDP
_TEXT	ENDS
;	COMDAT text$x
text$x	SEGMENT
r$4 = 8
ex$5 = 40
$T6 = 260
$T7 = 296
p$ = 352
buffer$ = 360
buffer_size$ = 368
size$ = 376
PMCCS_ToByteArray$catch$0 PROC

; 221  :         }
; 222  :         catch (const Palmtree::Math::Core::Internal::Exception& ex)
; 223  :         {

  00000	48 89 4c 24 08	 mov	 QWORD PTR [rsp+8], rcx
  00005	48 89 54 24 10	 mov	 QWORD PTR [rsp+16], rdx
  0000a	55		 push	 rbp
  0000b	57		 push	 rdi
  0000c	48 83 ec 28	 sub	 rsp, 40			; 00000028H
  00010	48 8d 6a 20	 lea	 rbp, QWORD PTR [rdx+32]
__catch$PMCCS_ToByteArray$0:

; 221  :         }
; 222  :         catch (const Palmtree::Math::Core::Internal::Exception& ex)
; 223  :         {
; 224  :             return (ex.GetStatusCode());

  00014	48 8b 4d 28	 mov	 rcx, QWORD PTR ex$5[rbp]
  00018	e8 00 00 00 00	 call	 ?GetStatusCode@Exception@Internal@Core@Math@Palmtree@@QEBAHXZ ; Palmtree::Math::Core::Internal::Exception::GetStatusCode
  0001d	89 85 04 01 00
	00		 mov	 DWORD PTR $T6[rbp], eax
  00023	48 8d 05 00 00
	00 00		 lea	 rax, $LN9@PMCCS_ToBy
  0002a	eb 07		 jmp	 SHORT $LN10@PMCCS_ToBy

; 225  :         }

  0002c	48 8d 05 00 00
	00 00		 lea	 rax, __tryend$PMCCS_ToByteArray$1
$LN10@PMCCS_ToBy:
  00033	48 83 c4 28	 add	 rsp, 40			; 00000028H
  00037	5f		 pop	 rdi
  00038	5d		 pop	 rbp
  00039	c3		 ret	 0
  0003a	cc		 int	 3
PMCCS_ToByteArray$catch$0 ENDP
text$x	ENDS
; Function compile flags: /Odtp /RTCsu /ZI
;	COMDAT text$x
text$x	SEGMENT
r$4 = 8
ex$5 = 40
$T6 = 260
$T7 = 296
p$ = 352
buffer$ = 360
buffer_size$ = 368
size$ = 376
PMCCS_ToByteArray$catch$0 PROC

; 223  :         {

  00000	48 89 4c 24 08	 mov	 QWORD PTR [rsp+8], rcx
  00005	48 89 54 24 10	 mov	 QWORD PTR [rsp+16], rdx
  0000a	55		 push	 rbp
  0000b	57		 push	 rdi
  0000c	48 83 ec 28	 sub	 rsp, 40			; 00000028H
  00010	48 8d 6a 20	 lea	 rbp, QWORD PTR [rdx+32]
__catch$PMCCS_ToByteArray$0:

; 224  :             return (ex.GetStatusCode());

  00014	48 8b 4d 28	 mov	 rcx, QWORD PTR ex$5[rbp]
  00018	e8 00 00 00 00	 call	 ?GetStatusCode@Exception@Internal@Core@Math@Palmtree@@QEBAHXZ ; Palmtree::Math::Core::Internal::Exception::GetStatusCode
  0001d	89 85 04 01 00
	00		 mov	 DWORD PTR $T6[rbp], eax
  00023	48 8d 05 00 00
	00 00		 lea	 rax, $LN9@PMCCS_ToBy
  0002a	eb 07		 jmp	 SHORT $LN10@PMCCS_ToBy

; 225  :         }

  0002c	48 8d 05 00 00
	00 00		 lea	 rax, __tryend$PMCCS_ToByteArray$1
$LN10@PMCCS_ToBy:
  00033	48 83 c4 28	 add	 rsp, 40			; 00000028H
  00037	5f		 pop	 rdi
  00038	5d		 pop	 rbp
  00039	c3		 ret	 0
  0003a	cc		 int	 3
PMCCS_ToByteArray$catch$0 ENDP
text$x	ENDS
; Function compile flags: /Odtp /RTCsu /ZI
; File z:\sources\lunor\repos\rougemeilland\palmtree.math.core.uint\palmtree.math.core.uint\pmc_interface_csharp.cpp
;	COMDAT PMCCS_FromByteArray
_TEXT	SEGMENT
ex$4 = 8
$T5 = 228
$T6 = 264
buffer$ = 320
count$ = 328
value$ = 336
PMCCS_FromByteArray PROC				; COMDAT

; 196  :     {

$LN10:
  00000	4c 89 44 24 18	 mov	 QWORD PTR [rsp+24], r8
  00005	89 54 24 10	 mov	 DWORD PTR [rsp+16], edx
  00009	48 89 4c 24 08	 mov	 QWORD PTR [rsp+8], rcx
  0000e	55		 push	 rbp
  0000f	57		 push	 rdi
  00010	48 81 ec 48 01
	00 00		 sub	 rsp, 328		; 00000148H
  00017	48 8d 6c 24 20	 lea	 rbp, QWORD PTR [rsp+32]
  0001c	48 8b fc	 mov	 rdi, rsp
  0001f	b9 52 00 00 00	 mov	 ecx, 82			; 00000052H
  00024	b8 cc cc cc cc	 mov	 eax, -858993460		; ccccccccH
  00029	f3 ab		 rep stosd
  0002b	48 8b 8c 24 68
	01 00 00	 mov	 rcx, QWORD PTR [rsp+360]
  00033	48 c7 85 08 01
	00 00 fe ff ff
	ff		 mov	 QWORD PTR $T6[rbp], -2
  0003e	48 8d 0d 00 00
	00 00		 lea	 rcx, OFFSET FLAT:__C21BA676_pmc_interface_csharp@cpp
  00045	e8 00 00 00 00	 call	 __CheckForDebuggerJustMyCode

; 197  :         if (value == nullptr)

  0004a	48 83 bd 50 01
	00 00 00	 cmp	 QWORD PTR value$[rbp], 0
  00052	75 07		 jne	 SHORT $LN2@PMCCS_From

; 198  :             return (PMC_STATUS_ARGUMENT_NULL_ERROR);

  00054	b8 fe ff ff ff	 mov	 eax, -2
  00059	eb 2c		 jmp	 SHORT $LN1@PMCCS_From
$LN2@PMCCS_From:

; 199  :         try
; 200  :         {
; 201  :             *value = PMC_FromByteArray(buffer, count);

  0005b	48 63 85 48 01
	00 00		 movsxd	 rax, DWORD PTR count$[rbp]
  00062	48 8b d0	 mov	 rdx, rax
  00065	48 8b 8d 40 01
	00 00		 mov	 rcx, QWORD PTR buffer$[rbp]
  0006c	e8 00 00 00 00	 call	 ?PMC_FromByteArray@Internal@Core@Math@Palmtree@@YAPEAU__tag_PMC_HANDLE_UINT@1234@PEBE_K@Z ; Palmtree::Math::Core::Internal::PMC_FromByteArray
  00071	48 8b 8d 50 01
	00 00		 mov	 rcx, QWORD PTR value$[rbp]
  00078	48 89 01	 mov	 QWORD PTR [rcx], rax

; 202  :             return (PMC_STATUS_OK);

  0007b	33 c0		 xor	 eax, eax
  0007d	eb 08		 jmp	 SHORT $LN1@PMCCS_From
__tryend$PMCCS_FromByteArray$1:
  0007f	eb 06		 jmp	 SHORT $LN1@PMCCS_From
$LN8@PMCCS_From:

; 203  :         }
; 204  :         catch (const Palmtree::Math::Core::Internal::Exception& ex)
; 205  :         {
; 206  :             return (ex.GetStatusCode());

  00081	8b 85 e4 00 00
	00		 mov	 eax, DWORD PTR $T5[rbp]
$LN1@PMCCS_From:

; 207  :         }
; 208  :     }

  00087	48 8b f8	 mov	 rdi, rax
  0008a	48 8d 4d e0	 lea	 rcx, QWORD PTR [rbp-32]
  0008e	48 8d 15 00 00
	00 00		 lea	 rdx, OFFSET FLAT:PMCCS_FromByteArray$rtcFrameData
  00095	e8 00 00 00 00	 call	 _RTC_CheckStackVars
  0009a	48 8b c7	 mov	 rax, rdi
  0009d	48 8d a5 28 01
	00 00		 lea	 rsp, QWORD PTR [rbp+296]
  000a4	5f		 pop	 rdi
  000a5	5d		 pop	 rbp
  000a6	c3		 ret	 0
  000a7	cc		 int	 3
PMCCS_FromByteArray ENDP
_TEXT	ENDS
;	COMDAT text$x
text$x	SEGMENT
ex$4 = 8
$T5 = 228
$T6 = 264
buffer$ = 320
count$ = 328
value$ = 336
PMCCS_FromByteArray$catch$0 PROC

; 203  :         }
; 204  :         catch (const Palmtree::Math::Core::Internal::Exception& ex)
; 205  :         {

  00000	48 89 4c 24 08	 mov	 QWORD PTR [rsp+8], rcx
  00005	48 89 54 24 10	 mov	 QWORD PTR [rsp+16], rdx
  0000a	55		 push	 rbp
  0000b	57		 push	 rdi
  0000c	48 83 ec 28	 sub	 rsp, 40			; 00000028H
  00010	48 8d 6a 20	 lea	 rbp, QWORD PTR [rdx+32]
__catch$PMCCS_FromByteArray$0:

; 203  :         }
; 204  :         catch (const Palmtree::Math::Core::Internal::Exception& ex)
; 205  :         {
; 206  :             return (ex.GetStatusCode());

  00014	48 8b 4d 08	 mov	 rcx, QWORD PTR ex$4[rbp]
  00018	e8 00 00 00 00	 call	 ?GetStatusCode@Exception@Internal@Core@Math@Palmtree@@QEBAHXZ ; Palmtree::Math::Core::Internal::Exception::GetStatusCode
  0001d	89 85 e4 00 00
	00		 mov	 DWORD PTR $T5[rbp], eax
  00023	48 8d 05 00 00
	00 00		 lea	 rax, $LN8@PMCCS_From
  0002a	eb 07		 jmp	 SHORT $LN9@PMCCS_From

; 207  :         }

  0002c	48 8d 05 00 00
	00 00		 lea	 rax, __tryend$PMCCS_FromByteArray$1
$LN9@PMCCS_From:
  00033	48 83 c4 28	 add	 rsp, 40			; 00000028H
  00037	5f		 pop	 rdi
  00038	5d		 pop	 rbp
  00039	c3		 ret	 0
  0003a	cc		 int	 3
PMCCS_FromByteArray$catch$0 ENDP
text$x	ENDS
; Function compile flags: /Odtp /RTCsu /ZI
;	COMDAT text$x
text$x	SEGMENT
ex$4 = 8
$T5 = 228
$T6 = 264
buffer$ = 320
count$ = 328
value$ = 336
PMCCS_FromByteArray$catch$0 PROC

; 205  :         {

  00000	48 89 4c 24 08	 mov	 QWORD PTR [rsp+8], rcx
  00005	48 89 54 24 10	 mov	 QWORD PTR [rsp+16], rdx
  0000a	55		 push	 rbp
  0000b	57		 push	 rdi
  0000c	48 83 ec 28	 sub	 rsp, 40			; 00000028H
  00010	48 8d 6a 20	 lea	 rbp, QWORD PTR [rdx+32]
__catch$PMCCS_FromByteArray$0:

; 206  :             return (ex.GetStatusCode());

  00014	48 8b 4d 08	 mov	 rcx, QWORD PTR ex$4[rbp]
  00018	e8 00 00 00 00	 call	 ?GetStatusCode@Exception@Internal@Core@Math@Palmtree@@QEBAHXZ ; Palmtree::Math::Core::Internal::Exception::GetStatusCode
  0001d	89 85 e4 00 00
	00		 mov	 DWORD PTR $T5[rbp], eax
  00023	48 8d 05 00 00
	00 00		 lea	 rax, $LN8@PMCCS_From
  0002a	eb 07		 jmp	 SHORT $LN9@PMCCS_From

; 207  :         }

  0002c	48 8d 05 00 00
	00 00		 lea	 rax, __tryend$PMCCS_FromByteArray$1
$LN9@PMCCS_From:
  00033	48 83 c4 28	 add	 rsp, 40			; 00000028H
  00037	5f		 pop	 rdi
  00038	5d		 pop	 rbp
  00039	c3		 ret	 0
  0003a	cc		 int	 3
PMCCS_FromByteArray$catch$0 ENDP
text$x	ENDS
; Function compile flags: /Odtp /RTCsu /ZI
; File z:\sources\lunor\repos\rougemeilland\palmtree.math.core.uint\palmtree.math.core.uint\pmc_interface_csharp.cpp
;	COMDAT PMCCS_GetConstantValue_I
_TEXT	SEGMENT
ex$4 = 8
$T5 = 228
$T6 = 264
type$ = 320
value$ = 328
PMCCS_GetConstantValue_I PROC				; COMDAT

; 181  :     {

$LN10:
  00000	48 89 54 24 10	 mov	 QWORD PTR [rsp+16], rdx
  00005	89 4c 24 08	 mov	 DWORD PTR [rsp+8], ecx
  00009	55		 push	 rbp
  0000a	57		 push	 rdi
  0000b	48 81 ec 48 01
	00 00		 sub	 rsp, 328		; 00000148H
  00012	48 8d 6c 24 20	 lea	 rbp, QWORD PTR [rsp+32]
  00017	48 8b fc	 mov	 rdi, rsp
  0001a	b9 52 00 00 00	 mov	 ecx, 82			; 00000052H
  0001f	b8 cc cc cc cc	 mov	 eax, -858993460		; ccccccccH
  00024	f3 ab		 rep stosd
  00026	8b 8c 24 68 01
	00 00		 mov	 ecx, DWORD PTR [rsp+360]
  0002d	48 c7 85 08 01
	00 00 fe ff ff
	ff		 mov	 QWORD PTR $T6[rbp], -2
  00038	48 8d 0d 00 00
	00 00		 lea	 rcx, OFFSET FLAT:__C21BA676_pmc_interface_csharp@cpp
  0003f	e8 00 00 00 00	 call	 __CheckForDebuggerJustMyCode

; 182  :         if (value == nullptr)

  00044	48 83 bd 48 01
	00 00 00	 cmp	 QWORD PTR value$[rbp], 0
  0004c	75 07		 jne	 SHORT $LN2@PMCCS_GetC

; 183  :             return (PMC_STATUS_ARGUMENT_NULL_ERROR);

  0004e	b8 fe ff ff ff	 mov	 eax, -2
  00053	eb 21		 jmp	 SHORT $LN1@PMCCS_GetC
$LN2@PMCCS_GetC:

; 184  :         try
; 185  :         {
; 186  :             *value = PMC_GetConstantValue_I(type);

  00055	8b 8d 40 01 00
	00		 mov	 ecx, DWORD PTR type$[rbp]
  0005b	e8 00 00 00 00	 call	 ?PMC_GetConstantValue_I@Internal@Core@Math@Palmtree@@YAPEAU__tag_PMC_HANDLE_UINT@1234@H@Z ; Palmtree::Math::Core::Internal::PMC_GetConstantValue_I
  00060	48 8b 8d 48 01
	00 00		 mov	 rcx, QWORD PTR value$[rbp]
  00067	48 89 01	 mov	 QWORD PTR [rcx], rax

; 187  :             return (PMC_STATUS_OK);

  0006a	33 c0		 xor	 eax, eax
  0006c	eb 08		 jmp	 SHORT $LN1@PMCCS_GetC
__tryend$PMCCS_GetConstantValue_I$1:
  0006e	eb 06		 jmp	 SHORT $LN1@PMCCS_GetC
$LN8@PMCCS_GetC:

; 188  :         }
; 189  :         catch (const Palmtree::Math::Core::Internal::Exception& ex)
; 190  :         {
; 191  :             return (ex.GetStatusCode());

  00070	8b 85 e4 00 00
	00		 mov	 eax, DWORD PTR $T5[rbp]
$LN1@PMCCS_GetC:

; 192  :         }
; 193  :     }

  00076	48 8b f8	 mov	 rdi, rax
  00079	48 8d 4d e0	 lea	 rcx, QWORD PTR [rbp-32]
  0007d	48 8d 15 00 00
	00 00		 lea	 rdx, OFFSET FLAT:PMCCS_GetConstantValue_I$rtcFrameData
  00084	e8 00 00 00 00	 call	 _RTC_CheckStackVars
  00089	48 8b c7	 mov	 rax, rdi
  0008c	48 8d a5 28 01
	00 00		 lea	 rsp, QWORD PTR [rbp+296]
  00093	5f		 pop	 rdi
  00094	5d		 pop	 rbp
  00095	c3		 ret	 0
  00096	cc		 int	 3
PMCCS_GetConstantValue_I ENDP
_TEXT	ENDS
;	COMDAT text$x
text$x	SEGMENT
ex$4 = 8
$T5 = 228
$T6 = 264
type$ = 320
value$ = 328
PMCCS_GetConstantValue_I$catch$0 PROC

; 188  :         }
; 189  :         catch (const Palmtree::Math::Core::Internal::Exception& ex)
; 190  :         {

  00000	48 89 4c 24 08	 mov	 QWORD PTR [rsp+8], rcx
  00005	48 89 54 24 10	 mov	 QWORD PTR [rsp+16], rdx
  0000a	55		 push	 rbp
  0000b	57		 push	 rdi
  0000c	48 83 ec 28	 sub	 rsp, 40			; 00000028H
  00010	48 8d 6a 20	 lea	 rbp, QWORD PTR [rdx+32]
__catch$PMCCS_GetConstantValue_I$0:

; 188  :         }
; 189  :         catch (const Palmtree::Math::Core::Internal::Exception& ex)
; 190  :         {
; 191  :             return (ex.GetStatusCode());

  00014	48 8b 4d 08	 mov	 rcx, QWORD PTR ex$4[rbp]
  00018	e8 00 00 00 00	 call	 ?GetStatusCode@Exception@Internal@Core@Math@Palmtree@@QEBAHXZ ; Palmtree::Math::Core::Internal::Exception::GetStatusCode
  0001d	89 85 e4 00 00
	00		 mov	 DWORD PTR $T5[rbp], eax
  00023	48 8d 05 00 00
	00 00		 lea	 rax, $LN8@PMCCS_GetC
  0002a	eb 07		 jmp	 SHORT $LN9@PMCCS_GetC

; 192  :         }

  0002c	48 8d 05 00 00
	00 00		 lea	 rax, __tryend$PMCCS_GetConstantValue_I$1
$LN9@PMCCS_GetC:
  00033	48 83 c4 28	 add	 rsp, 40			; 00000028H
  00037	5f		 pop	 rdi
  00038	5d		 pop	 rbp
  00039	c3		 ret	 0
  0003a	cc		 int	 3
PMCCS_GetConstantValue_I$catch$0 ENDP
text$x	ENDS
; Function compile flags: /Odtp /RTCsu /ZI
;	COMDAT text$x
text$x	SEGMENT
ex$4 = 8
$T5 = 228
$T6 = 264
type$ = 320
value$ = 328
PMCCS_GetConstantValue_I$catch$0 PROC

; 190  :         {

  00000	48 89 4c 24 08	 mov	 QWORD PTR [rsp+8], rcx
  00005	48 89 54 24 10	 mov	 QWORD PTR [rsp+16], rdx
  0000a	55		 push	 rbp
  0000b	57		 push	 rdi
  0000c	48 83 ec 28	 sub	 rsp, 40			; 00000028H
  00010	48 8d 6a 20	 lea	 rbp, QWORD PTR [rdx+32]
__catch$PMCCS_GetConstantValue_I$0:

; 191  :             return (ex.GetStatusCode());

  00014	48 8b 4d 08	 mov	 rcx, QWORD PTR ex$4[rbp]
  00018	e8 00 00 00 00	 call	 ?GetStatusCode@Exception@Internal@Core@Math@Palmtree@@QEBAHXZ ; Palmtree::Math::Core::Internal::Exception::GetStatusCode
  0001d	89 85 e4 00 00
	00		 mov	 DWORD PTR $T5[rbp], eax
  00023	48 8d 05 00 00
	00 00		 lea	 rax, $LN8@PMCCS_GetC
  0002a	eb 07		 jmp	 SHORT $LN9@PMCCS_GetC

; 192  :         }

  0002c	48 8d 05 00 00
	00 00		 lea	 rax, __tryend$PMCCS_GetConstantValue_I$1
$LN9@PMCCS_GetC:
  00033	48 83 c4 28	 add	 rsp, 40			; 00000028H
  00037	5f		 pop	 rdi
  00038	5d		 pop	 rbp
  00039	c3		 ret	 0
  0003a	cc		 int	 3
PMCCS_GetConstantValue_I$catch$0 ENDP
text$x	ENDS
; Function compile flags: /Odtp /RTCsu /ZI
; File z:\sources\lunor\repos\rougemeilland\palmtree.math.core.uint\palmtree.math.core.uint\pmc_interface_csharp.cpp
;	COMDAT PMCCS_Dispose
_TEXT	SEGMENT
ex$4 = 8
$T5 = 228
$T6 = 264
p$ = 320
PMCCS_Dispose PROC					; COMDAT

; 166  :     {

$LN10:
  00000	48 89 4c 24 08	 mov	 QWORD PTR [rsp+8], rcx
  00005	55		 push	 rbp
  00006	57		 push	 rdi
  00007	48 81 ec 48 01
	00 00		 sub	 rsp, 328		; 00000148H
  0000e	48 8d 6c 24 20	 lea	 rbp, QWORD PTR [rsp+32]
  00013	48 8b fc	 mov	 rdi, rsp
  00016	b9 52 00 00 00	 mov	 ecx, 82			; 00000052H
  0001b	b8 cc cc cc cc	 mov	 eax, -858993460		; ccccccccH
  00020	f3 ab		 rep stosd
  00022	48 8b 8c 24 68
	01 00 00	 mov	 rcx, QWORD PTR [rsp+360]
  0002a	48 c7 85 08 01
	00 00 fe ff ff
	ff		 mov	 QWORD PTR $T6[rbp], -2
  00035	48 8d 0d 00 00
	00 00		 lea	 rcx, OFFSET FLAT:__C21BA676_pmc_interface_csharp@cpp
  0003c	e8 00 00 00 00	 call	 __CheckForDebuggerJustMyCode

; 167  :         if (p == nullptr)

  00041	48 83 bd 40 01
	00 00 00	 cmp	 QWORD PTR p$[rbp], 0
  00049	75 07		 jne	 SHORT $LN2@PMCCS_Disp

; 168  :             return (PMC_STATUS_ARGUMENT_NULL_ERROR);

  0004b	b8 fe ff ff ff	 mov	 eax, -2
  00050	eb 18		 jmp	 SHORT $LN1@PMCCS_Disp
$LN2@PMCCS_Disp:

; 169  :         try
; 170  :         {
; 171  :             PMC_Dispose(p);

  00052	48 8b 8d 40 01
	00 00		 mov	 rcx, QWORD PTR p$[rbp]
  00059	e8 00 00 00 00	 call	 ?PMC_Dispose@Internal@Core@Math@Palmtree@@YAXPEAU__tag_PMC_HANDLE_UINT@1234@@Z ; Palmtree::Math::Core::Internal::PMC_Dispose

; 172  :             return (PMC_STATUS_OK);

  0005e	33 c0		 xor	 eax, eax
  00060	eb 08		 jmp	 SHORT $LN1@PMCCS_Disp
__tryend$PMCCS_Dispose$1:
  00062	eb 06		 jmp	 SHORT $LN1@PMCCS_Disp
$LN8@PMCCS_Disp:

; 173  :         }
; 174  :         catch (const Palmtree::Math::Core::Internal::Exception& ex)
; 175  :         {
; 176  :             return (ex.GetStatusCode());

  00064	8b 85 e4 00 00
	00		 mov	 eax, DWORD PTR $T5[rbp]
$LN1@PMCCS_Disp:

; 177  :         }
; 178  :     }

  0006a	48 8b f8	 mov	 rdi, rax
  0006d	48 8d 4d e0	 lea	 rcx, QWORD PTR [rbp-32]
  00071	48 8d 15 00 00
	00 00		 lea	 rdx, OFFSET FLAT:PMCCS_Dispose$rtcFrameData
  00078	e8 00 00 00 00	 call	 _RTC_CheckStackVars
  0007d	48 8b c7	 mov	 rax, rdi
  00080	48 8d a5 28 01
	00 00		 lea	 rsp, QWORD PTR [rbp+296]
  00087	5f		 pop	 rdi
  00088	5d		 pop	 rbp
  00089	c3		 ret	 0
  0008a	cc		 int	 3
PMCCS_Dispose ENDP
_TEXT	ENDS
;	COMDAT text$x
text$x	SEGMENT
ex$4 = 8
$T5 = 228
$T6 = 264
p$ = 320
PMCCS_Dispose$catch$0 PROC

; 173  :         }
; 174  :         catch (const Palmtree::Math::Core::Internal::Exception& ex)
; 175  :         {

  00000	48 89 4c 24 08	 mov	 QWORD PTR [rsp+8], rcx
  00005	48 89 54 24 10	 mov	 QWORD PTR [rsp+16], rdx
  0000a	55		 push	 rbp
  0000b	57		 push	 rdi
  0000c	48 83 ec 28	 sub	 rsp, 40			; 00000028H
  00010	48 8d 6a 20	 lea	 rbp, QWORD PTR [rdx+32]
__catch$PMCCS_Dispose$0:

; 173  :         }
; 174  :         catch (const Palmtree::Math::Core::Internal::Exception& ex)
; 175  :         {
; 176  :             return (ex.GetStatusCode());

  00014	48 8b 4d 08	 mov	 rcx, QWORD PTR ex$4[rbp]
  00018	e8 00 00 00 00	 call	 ?GetStatusCode@Exception@Internal@Core@Math@Palmtree@@QEBAHXZ ; Palmtree::Math::Core::Internal::Exception::GetStatusCode
  0001d	89 85 e4 00 00
	00		 mov	 DWORD PTR $T5[rbp], eax
  00023	48 8d 05 00 00
	00 00		 lea	 rax, $LN8@PMCCS_Disp
  0002a	eb 07		 jmp	 SHORT $LN9@PMCCS_Disp

; 177  :         }

  0002c	48 8d 05 00 00
	00 00		 lea	 rax, __tryend$PMCCS_Dispose$1
$LN9@PMCCS_Disp:
  00033	48 83 c4 28	 add	 rsp, 40			; 00000028H
  00037	5f		 pop	 rdi
  00038	5d		 pop	 rbp
  00039	c3		 ret	 0
  0003a	cc		 int	 3
PMCCS_Dispose$catch$0 ENDP
text$x	ENDS
; Function compile flags: /Odtp /RTCsu /ZI
;	COMDAT text$x
text$x	SEGMENT
ex$4 = 8
$T5 = 228
$T6 = 264
p$ = 320
PMCCS_Dispose$catch$0 PROC

; 175  :         {

  00000	48 89 4c 24 08	 mov	 QWORD PTR [rsp+8], rcx
  00005	48 89 54 24 10	 mov	 QWORD PTR [rsp+16], rdx
  0000a	55		 push	 rbp
  0000b	57		 push	 rdi
  0000c	48 83 ec 28	 sub	 rsp, 40			; 00000028H
  00010	48 8d 6a 20	 lea	 rbp, QWORD PTR [rdx+32]
__catch$PMCCS_Dispose$0:

; 176  :             return (ex.GetStatusCode());

  00014	48 8b 4d 08	 mov	 rcx, QWORD PTR ex$4[rbp]
  00018	e8 00 00 00 00	 call	 ?GetStatusCode@Exception@Internal@Core@Math@Palmtree@@QEBAHXZ ; Palmtree::Math::Core::Internal::Exception::GetStatusCode
  0001d	89 85 e4 00 00
	00		 mov	 DWORD PTR $T5[rbp], eax
  00023	48 8d 05 00 00
	00 00		 lea	 rax, $LN8@PMCCS_Disp
  0002a	eb 07		 jmp	 SHORT $LN9@PMCCS_Disp

; 177  :         }

  0002c	48 8d 05 00 00
	00 00		 lea	 rax, __tryend$PMCCS_Dispose$1
$LN9@PMCCS_Disp:
  00033	48 83 c4 28	 add	 rsp, 40			; 00000028H
  00037	5f		 pop	 rdi
  00038	5d		 pop	 rbp
  00039	c3		 ret	 0
  0003a	cc		 int	 3
PMCCS_Dispose$catch$0 ENDP
text$x	ENDS
; Function compile flags: /Odtp /RTCsu /ZI
; File z:\sources\lunor\repos\rougemeilland\palmtree.math.core.uint\palmtree.math.core.uint\pmc_interface_csharp.cpp
;	COMDAT PMCCS_From_L
_TEXT	SEGMENT
ex$4 = 8
$T5 = 228
$T6 = 264
x$ = 320
o$ = 328
PMCCS_From_L PROC					; COMDAT

; 151  :     {

$LN10:
  00000	48 89 54 24 10	 mov	 QWORD PTR [rsp+16], rdx
  00005	48 89 4c 24 08	 mov	 QWORD PTR [rsp+8], rcx
  0000a	55		 push	 rbp
  0000b	57		 push	 rdi
  0000c	48 81 ec 48 01
	00 00		 sub	 rsp, 328		; 00000148H
  00013	48 8d 6c 24 20	 lea	 rbp, QWORD PTR [rsp+32]
  00018	48 8b fc	 mov	 rdi, rsp
  0001b	b9 52 00 00 00	 mov	 ecx, 82			; 00000052H
  00020	b8 cc cc cc cc	 mov	 eax, -858993460		; ccccccccH
  00025	f3 ab		 rep stosd
  00027	48 8b 8c 24 68
	01 00 00	 mov	 rcx, QWORD PTR [rsp+360]
  0002f	48 c7 85 08 01
	00 00 fe ff ff
	ff		 mov	 QWORD PTR $T6[rbp], -2
  0003a	48 8d 0d 00 00
	00 00		 lea	 rcx, OFFSET FLAT:__C21BA676_pmc_interface_csharp@cpp
  00041	e8 00 00 00 00	 call	 __CheckForDebuggerJustMyCode

; 152  :         if (o == nullptr)

  00046	48 83 bd 48 01
	00 00 00	 cmp	 QWORD PTR o$[rbp], 0
  0004e	75 07		 jne	 SHORT $LN2@PMCCS_From

; 153  :             return (PMC_STATUS_ARGUMENT_NULL_ERROR);

  00050	b8 fe ff ff ff	 mov	 eax, -2
  00055	eb 22		 jmp	 SHORT $LN1@PMCCS_From
$LN2@PMCCS_From:

; 154  :         try
; 155  :         {
; 156  :             *o = PMC_From_L(x);

  00057	48 8b 8d 40 01
	00 00		 mov	 rcx, QWORD PTR x$[rbp]
  0005e	e8 00 00 00 00	 call	 ?PMC_From_L@Internal@Core@Math@Palmtree@@YAPEAU__tag_PMC_HANDLE_UINT@1234@_K@Z ; Palmtree::Math::Core::Internal::PMC_From_L
  00063	48 8b 8d 48 01
	00 00		 mov	 rcx, QWORD PTR o$[rbp]
  0006a	48 89 01	 mov	 QWORD PTR [rcx], rax

; 157  :             return (PMC_STATUS_OK);

  0006d	33 c0		 xor	 eax, eax
  0006f	eb 08		 jmp	 SHORT $LN1@PMCCS_From
__tryend$PMCCS_From_L$1:
  00071	eb 06		 jmp	 SHORT $LN1@PMCCS_From
$LN8@PMCCS_From:

; 158  :         }
; 159  :         catch (const Palmtree::Math::Core::Internal::Exception& ex)
; 160  :         {
; 161  :             return (ex.GetStatusCode());

  00073	8b 85 e4 00 00
	00		 mov	 eax, DWORD PTR $T5[rbp]
$LN1@PMCCS_From:

; 162  :         }
; 163  :     }

  00079	48 8b f8	 mov	 rdi, rax
  0007c	48 8d 4d e0	 lea	 rcx, QWORD PTR [rbp-32]
  00080	48 8d 15 00 00
	00 00		 lea	 rdx, OFFSET FLAT:PMCCS_From_L$rtcFrameData
  00087	e8 00 00 00 00	 call	 _RTC_CheckStackVars
  0008c	48 8b c7	 mov	 rax, rdi
  0008f	48 8d a5 28 01
	00 00		 lea	 rsp, QWORD PTR [rbp+296]
  00096	5f		 pop	 rdi
  00097	5d		 pop	 rbp
  00098	c3		 ret	 0
  00099	cc		 int	 3
PMCCS_From_L ENDP
_TEXT	ENDS
;	COMDAT text$x
text$x	SEGMENT
ex$4 = 8
$T5 = 228
$T6 = 264
x$ = 320
o$ = 328
PMCCS_From_L$catch$0 PROC

; 158  :         }
; 159  :         catch (const Palmtree::Math::Core::Internal::Exception& ex)
; 160  :         {

  00000	48 89 4c 24 08	 mov	 QWORD PTR [rsp+8], rcx
  00005	48 89 54 24 10	 mov	 QWORD PTR [rsp+16], rdx
  0000a	55		 push	 rbp
  0000b	57		 push	 rdi
  0000c	48 83 ec 28	 sub	 rsp, 40			; 00000028H
  00010	48 8d 6a 20	 lea	 rbp, QWORD PTR [rdx+32]
__catch$PMCCS_From_L$0:

; 158  :         }
; 159  :         catch (const Palmtree::Math::Core::Internal::Exception& ex)
; 160  :         {
; 161  :             return (ex.GetStatusCode());

  00014	48 8b 4d 08	 mov	 rcx, QWORD PTR ex$4[rbp]
  00018	e8 00 00 00 00	 call	 ?GetStatusCode@Exception@Internal@Core@Math@Palmtree@@QEBAHXZ ; Palmtree::Math::Core::Internal::Exception::GetStatusCode
  0001d	89 85 e4 00 00
	00		 mov	 DWORD PTR $T5[rbp], eax
  00023	48 8d 05 00 00
	00 00		 lea	 rax, $LN8@PMCCS_From
  0002a	eb 07		 jmp	 SHORT $LN9@PMCCS_From

; 162  :         }

  0002c	48 8d 05 00 00
	00 00		 lea	 rax, __tryend$PMCCS_From_L$1
$LN9@PMCCS_From:
  00033	48 83 c4 28	 add	 rsp, 40			; 00000028H
  00037	5f		 pop	 rdi
  00038	5d		 pop	 rbp
  00039	c3		 ret	 0
  0003a	cc		 int	 3
PMCCS_From_L$catch$0 ENDP
text$x	ENDS
; Function compile flags: /Odtp /RTCsu /ZI
;	COMDAT text$x
text$x	SEGMENT
ex$4 = 8
$T5 = 228
$T6 = 264
x$ = 320
o$ = 328
PMCCS_From_L$catch$0 PROC

; 160  :         {

  00000	48 89 4c 24 08	 mov	 QWORD PTR [rsp+8], rcx
  00005	48 89 54 24 10	 mov	 QWORD PTR [rsp+16], rdx
  0000a	55		 push	 rbp
  0000b	57		 push	 rdi
  0000c	48 83 ec 28	 sub	 rsp, 40			; 00000028H
  00010	48 8d 6a 20	 lea	 rbp, QWORD PTR [rdx+32]
__catch$PMCCS_From_L$0:

; 161  :             return (ex.GetStatusCode());

  00014	48 8b 4d 08	 mov	 rcx, QWORD PTR ex$4[rbp]
  00018	e8 00 00 00 00	 call	 ?GetStatusCode@Exception@Internal@Core@Math@Palmtree@@QEBAHXZ ; Palmtree::Math::Core::Internal::Exception::GetStatusCode
  0001d	89 85 e4 00 00
	00		 mov	 DWORD PTR $T5[rbp], eax
  00023	48 8d 05 00 00
	00 00		 lea	 rax, $LN8@PMCCS_From
  0002a	eb 07		 jmp	 SHORT $LN9@PMCCS_From

; 162  :         }

  0002c	48 8d 05 00 00
	00 00		 lea	 rax, __tryend$PMCCS_From_L$1
$LN9@PMCCS_From:
  00033	48 83 c4 28	 add	 rsp, 40			; 00000028H
  00037	5f		 pop	 rdi
  00038	5d		 pop	 rbp
  00039	c3		 ret	 0
  0003a	cc		 int	 3
PMCCS_From_L$catch$0 ENDP
text$x	ENDS
; Function compile flags: /Odtp /RTCsu /ZI
; File z:\sources\lunor\repos\rougemeilland\palmtree.math.core.uint\palmtree.math.core.uint\pmc_interface_csharp.cpp
;	COMDAT PMCCS_From_I
_TEXT	SEGMENT
ex$4 = 8
$T5 = 228
$T6 = 264
x$ = 320
o$ = 328
PMCCS_From_I PROC					; COMDAT

; 136  :     {

$LN10:
  00000	48 89 54 24 10	 mov	 QWORD PTR [rsp+16], rdx
  00005	89 4c 24 08	 mov	 DWORD PTR [rsp+8], ecx
  00009	55		 push	 rbp
  0000a	57		 push	 rdi
  0000b	48 81 ec 48 01
	00 00		 sub	 rsp, 328		; 00000148H
  00012	48 8d 6c 24 20	 lea	 rbp, QWORD PTR [rsp+32]
  00017	48 8b fc	 mov	 rdi, rsp
  0001a	b9 52 00 00 00	 mov	 ecx, 82			; 00000052H
  0001f	b8 cc cc cc cc	 mov	 eax, -858993460		; ccccccccH
  00024	f3 ab		 rep stosd
  00026	8b 8c 24 68 01
	00 00		 mov	 ecx, DWORD PTR [rsp+360]
  0002d	48 c7 85 08 01
	00 00 fe ff ff
	ff		 mov	 QWORD PTR $T6[rbp], -2
  00038	48 8d 0d 00 00
	00 00		 lea	 rcx, OFFSET FLAT:__C21BA676_pmc_interface_csharp@cpp
  0003f	e8 00 00 00 00	 call	 __CheckForDebuggerJustMyCode

; 137  :         if (o == nullptr)

  00044	48 83 bd 48 01
	00 00 00	 cmp	 QWORD PTR o$[rbp], 0
  0004c	75 07		 jne	 SHORT $LN2@PMCCS_From

; 138  :             return (PMC_STATUS_ARGUMENT_NULL_ERROR);

  0004e	b8 fe ff ff ff	 mov	 eax, -2
  00053	eb 21		 jmp	 SHORT $LN1@PMCCS_From
$LN2@PMCCS_From:

; 139  :         try
; 140  :         {
; 141  :             *o = PMC_From_I(x);

  00055	8b 8d 40 01 00
	00		 mov	 ecx, DWORD PTR x$[rbp]
  0005b	e8 00 00 00 00	 call	 ?PMC_From_I@Internal@Core@Math@Palmtree@@YAPEAU__tag_PMC_HANDLE_UINT@1234@I@Z ; Palmtree::Math::Core::Internal::PMC_From_I
  00060	48 8b 8d 48 01
	00 00		 mov	 rcx, QWORD PTR o$[rbp]
  00067	48 89 01	 mov	 QWORD PTR [rcx], rax

; 142  :             return (PMC_STATUS_OK);

  0006a	33 c0		 xor	 eax, eax
  0006c	eb 08		 jmp	 SHORT $LN1@PMCCS_From
__tryend$PMCCS_From_I$1:
  0006e	eb 06		 jmp	 SHORT $LN1@PMCCS_From
$LN8@PMCCS_From:

; 143  :         }
; 144  :         catch (const Palmtree::Math::Core::Internal::Exception& ex)
; 145  :         {
; 146  :             return (ex.GetStatusCode());

  00070	8b 85 e4 00 00
	00		 mov	 eax, DWORD PTR $T5[rbp]
$LN1@PMCCS_From:

; 147  :         }
; 148  :     }

  00076	48 8b f8	 mov	 rdi, rax
  00079	48 8d 4d e0	 lea	 rcx, QWORD PTR [rbp-32]
  0007d	48 8d 15 00 00
	00 00		 lea	 rdx, OFFSET FLAT:PMCCS_From_I$rtcFrameData
  00084	e8 00 00 00 00	 call	 _RTC_CheckStackVars
  00089	48 8b c7	 mov	 rax, rdi
  0008c	48 8d a5 28 01
	00 00		 lea	 rsp, QWORD PTR [rbp+296]
  00093	5f		 pop	 rdi
  00094	5d		 pop	 rbp
  00095	c3		 ret	 0
  00096	cc		 int	 3
PMCCS_From_I ENDP
_TEXT	ENDS
;	COMDAT text$x
text$x	SEGMENT
ex$4 = 8
$T5 = 228
$T6 = 264
x$ = 320
o$ = 328
PMCCS_From_I$catch$0 PROC

; 143  :         }
; 144  :         catch (const Palmtree::Math::Core::Internal::Exception& ex)
; 145  :         {

  00000	48 89 4c 24 08	 mov	 QWORD PTR [rsp+8], rcx
  00005	48 89 54 24 10	 mov	 QWORD PTR [rsp+16], rdx
  0000a	55		 push	 rbp
  0000b	57		 push	 rdi
  0000c	48 83 ec 28	 sub	 rsp, 40			; 00000028H
  00010	48 8d 6a 20	 lea	 rbp, QWORD PTR [rdx+32]
__catch$PMCCS_From_I$0:

; 143  :         }
; 144  :         catch (const Palmtree::Math::Core::Internal::Exception& ex)
; 145  :         {
; 146  :             return (ex.GetStatusCode());

  00014	48 8b 4d 08	 mov	 rcx, QWORD PTR ex$4[rbp]
  00018	e8 00 00 00 00	 call	 ?GetStatusCode@Exception@Internal@Core@Math@Palmtree@@QEBAHXZ ; Palmtree::Math::Core::Internal::Exception::GetStatusCode
  0001d	89 85 e4 00 00
	00		 mov	 DWORD PTR $T5[rbp], eax
  00023	48 8d 05 00 00
	00 00		 lea	 rax, $LN8@PMCCS_From
  0002a	eb 07		 jmp	 SHORT $LN9@PMCCS_From

; 147  :         }

  0002c	48 8d 05 00 00
	00 00		 lea	 rax, __tryend$PMCCS_From_I$1
$LN9@PMCCS_From:
  00033	48 83 c4 28	 add	 rsp, 40			; 00000028H
  00037	5f		 pop	 rdi
  00038	5d		 pop	 rbp
  00039	c3		 ret	 0
  0003a	cc		 int	 3
PMCCS_From_I$catch$0 ENDP
text$x	ENDS
; Function compile flags: /Odtp /RTCsu /ZI
;	COMDAT text$x
text$x	SEGMENT
ex$4 = 8
$T5 = 228
$T6 = 264
x$ = 320
o$ = 328
PMCCS_From_I$catch$0 PROC

; 145  :         {

  00000	48 89 4c 24 08	 mov	 QWORD PTR [rsp+8], rcx
  00005	48 89 54 24 10	 mov	 QWORD PTR [rsp+16], rdx
  0000a	55		 push	 rbp
  0000b	57		 push	 rdi
  0000c	48 83 ec 28	 sub	 rsp, 40			; 00000028H
  00010	48 8d 6a 20	 lea	 rbp, QWORD PTR [rdx+32]
__catch$PMCCS_From_I$0:

; 146  :             return (ex.GetStatusCode());

  00014	48 8b 4d 08	 mov	 rcx, QWORD PTR ex$4[rbp]
  00018	e8 00 00 00 00	 call	 ?GetStatusCode@Exception@Internal@Core@Math@Palmtree@@QEBAHXZ ; Palmtree::Math::Core::Internal::Exception::GetStatusCode
  0001d	89 85 e4 00 00
	00		 mov	 DWORD PTR $T5[rbp], eax
  00023	48 8d 05 00 00
	00 00		 lea	 rax, $LN8@PMCCS_From
  0002a	eb 07		 jmp	 SHORT $LN9@PMCCS_From

; 147  :         }

  0002c	48 8d 05 00 00
	00 00		 lea	 rax, __tryend$PMCCS_From_I$1
$LN9@PMCCS_From:
  00033	48 83 c4 28	 add	 rsp, 40			; 00000028H
  00037	5f		 pop	 rdi
  00038	5d		 pop	 rbp
  00039	c3		 ret	 0
  0003a	cc		 int	 3
PMCCS_From_I$catch$0 ENDP
text$x	ENDS
; Function compile flags: /Odtp /RTCsu /ZI
; File z:\sources\lunor\repos\rougemeilland\palmtree.math.core.uint\palmtree.math.core.uint\pmc_interface_csharp.cpp
;	COMDAT PMCCS_GetStatisticsInfo
_TEXT	SEGMENT
p$ = 224
PMCCS_GetStatisticsInfo PROC				; COMDAT

; 131  :     {

$LN3:
  00000	48 89 4c 24 08	 mov	 QWORD PTR [rsp+8], rcx
  00005	55		 push	 rbp
  00006	57		 push	 rdi
  00007	48 81 ec e8 00
	00 00		 sub	 rsp, 232		; 000000e8H
  0000e	48 8d 6c 24 20	 lea	 rbp, QWORD PTR [rsp+32]
  00013	48 8b fc	 mov	 rdi, rsp
  00016	b9 3a 00 00 00	 mov	 ecx, 58			; 0000003aH
  0001b	b8 cc cc cc cc	 mov	 eax, -858993460		; ccccccccH
  00020	f3 ab		 rep stosd
  00022	48 8b 8c 24 08
	01 00 00	 mov	 rcx, QWORD PTR [rsp+264]
  0002a	48 8d 0d 00 00
	00 00		 lea	 rcx, OFFSET FLAT:__C21BA676_pmc_interface_csharp@cpp
  00031	e8 00 00 00 00	 call	 __CheckForDebuggerJustMyCode

; 132  :         PMC_GetStatisticsInfo(p);

  00036	48 8b 8d e0 00
	00 00		 mov	 rcx, QWORD PTR p$[rbp]
  0003d	e8 00 00 00 00	 call	 ?PMC_GetStatisticsInfo@Internal@Core@Math@Palmtree@@YAXPEAU__tag_PMC_STATISTICS_INFO@1234@@Z ; Palmtree::Math::Core::Internal::PMC_GetStatisticsInfo

; 133  :     }

  00042	48 8d a5 c8 00
	00 00		 lea	 rsp, QWORD PTR [rbp+200]
  00049	5f		 pop	 rdi
  0004a	5d		 pop	 rbp
  0004b	c3		 ret	 0
PMCCS_GetStatisticsInfo ENDP
_TEXT	ENDS
; Function compile flags: /Odtp /RTCsu /ZI
; File z:\sources\lunor\repos\rougemeilland\palmtree.math.core.uint\palmtree.math.core.uint\pmc_interface_csharp.cpp
;	COMDAT PMCCS_GET_HASH_CODE
_TEXT	SEGMENT
ex$4 = 8
$T5 = 228
$T6 = 264
p$ = 320
r$ = 328
PMCCS_GET_HASH_CODE PROC				; COMDAT

; 114  :     {

$LN11:
  00000	48 89 54 24 10	 mov	 QWORD PTR [rsp+16], rdx
  00005	48 89 4c 24 08	 mov	 QWORD PTR [rsp+8], rcx
  0000a	55		 push	 rbp
  0000b	57		 push	 rdi
  0000c	48 81 ec 48 01
	00 00		 sub	 rsp, 328		; 00000148H
  00013	48 8d 6c 24 20	 lea	 rbp, QWORD PTR [rsp+32]
  00018	48 8b fc	 mov	 rdi, rsp
  0001b	b9 52 00 00 00	 mov	 ecx, 82			; 00000052H
  00020	b8 cc cc cc cc	 mov	 eax, -858993460		; ccccccccH
  00025	f3 ab		 rep stosd
  00027	48 8b 8c 24 68
	01 00 00	 mov	 rcx, QWORD PTR [rsp+360]
  0002f	48 c7 85 08 01
	00 00 fe ff ff
	ff		 mov	 QWORD PTR $T6[rbp], -2
  0003a	48 8d 0d 00 00
	00 00		 lea	 rcx, OFFSET FLAT:__C21BA676_pmc_interface_csharp@cpp
  00041	e8 00 00 00 00	 call	 __CheckForDebuggerJustMyCode

; 115  :         if (p == nullptr)

  00046	48 83 bd 40 01
	00 00 00	 cmp	 QWORD PTR p$[rbp], 0
  0004e	75 07		 jne	 SHORT $LN2@PMCCS_GET_

; 116  :             return (PMC_STATUS_ARGUMENT_NULL_ERROR);

  00050	b8 fe ff ff ff	 mov	 eax, -2
  00055	eb 2f		 jmp	 SHORT $LN1@PMCCS_GET_
$LN2@PMCCS_GET_:

; 117  :         if (r == nullptr)

  00057	48 83 bd 48 01
	00 00 00	 cmp	 QWORD PTR r$[rbp], 0
  0005f	75 07		 jne	 SHORT $LN3@PMCCS_GET_

; 118  :             return (PMC_STATUS_ARGUMENT_NULL_ERROR);

  00061	b8 fe ff ff ff	 mov	 eax, -2
  00066	eb 1e		 jmp	 SHORT $LN1@PMCCS_GET_
$LN3@PMCCS_GET_:

; 119  :         try
; 120  :         {
; 121  :             *r = (_INT32_T)p->HASH_CODE;

  00068	48 8b 85 48 01
	00 00		 mov	 rax, QWORD PTR r$[rbp]
  0006f	48 8b 8d 40 01
	00 00		 mov	 rcx, QWORD PTR p$[rbp]
  00076	8b 09		 mov	 ecx, DWORD PTR [rcx]
  00078	89 08		 mov	 DWORD PTR [rax], ecx

; 122  :             return (PMC_STATUS_OK);

  0007a	33 c0		 xor	 eax, eax
  0007c	eb 08		 jmp	 SHORT $LN1@PMCCS_GET_
__tryend$PMCCS_GET_HASH_CODE$1:
  0007e	eb 06		 jmp	 SHORT $LN1@PMCCS_GET_
$LN9@PMCCS_GET_:

; 123  :         }
; 124  :         catch (const Palmtree::Math::Core::Internal::Exception& ex)
; 125  :         {
; 126  :             return (ex.GetStatusCode());

  00080	8b 85 e4 00 00
	00		 mov	 eax, DWORD PTR $T5[rbp]
$LN1@PMCCS_GET_:

; 127  :         }
; 128  :     }

  00086	48 8b f8	 mov	 rdi, rax
  00089	48 8d 4d e0	 lea	 rcx, QWORD PTR [rbp-32]
  0008d	48 8d 15 00 00
	00 00		 lea	 rdx, OFFSET FLAT:PMCCS_GET_HASH_CODE$rtcFrameData
  00094	e8 00 00 00 00	 call	 _RTC_CheckStackVars
  00099	48 8b c7	 mov	 rax, rdi
  0009c	48 8d a5 28 01
	00 00		 lea	 rsp, QWORD PTR [rbp+296]
  000a3	5f		 pop	 rdi
  000a4	5d		 pop	 rbp
  000a5	c3		 ret	 0
  000a6	cc		 int	 3
PMCCS_GET_HASH_CODE ENDP
_TEXT	ENDS
;	COMDAT text$x
text$x	SEGMENT
ex$4 = 8
$T5 = 228
$T6 = 264
p$ = 320
r$ = 328
PMCCS_GET_HASH_CODE$catch$0 PROC

; 123  :         }
; 124  :         catch (const Palmtree::Math::Core::Internal::Exception& ex)
; 125  :         {

  00000	48 89 4c 24 08	 mov	 QWORD PTR [rsp+8], rcx
  00005	48 89 54 24 10	 mov	 QWORD PTR [rsp+16], rdx
  0000a	55		 push	 rbp
  0000b	57		 push	 rdi
  0000c	48 83 ec 28	 sub	 rsp, 40			; 00000028H
  00010	48 8d 6a 20	 lea	 rbp, QWORD PTR [rdx+32]
__catch$PMCCS_GET_HASH_CODE$0:

; 123  :         }
; 124  :         catch (const Palmtree::Math::Core::Internal::Exception& ex)
; 125  :         {
; 126  :             return (ex.GetStatusCode());

  00014	48 8b 4d 08	 mov	 rcx, QWORD PTR ex$4[rbp]
  00018	e8 00 00 00 00	 call	 ?GetStatusCode@Exception@Internal@Core@Math@Palmtree@@QEBAHXZ ; Palmtree::Math::Core::Internal::Exception::GetStatusCode
  0001d	89 85 e4 00 00
	00		 mov	 DWORD PTR $T5[rbp], eax
  00023	48 8d 05 00 00
	00 00		 lea	 rax, $LN9@PMCCS_GET_
  0002a	eb 07		 jmp	 SHORT $LN10@PMCCS_GET_

; 127  :         }

  0002c	48 8d 05 00 00
	00 00		 lea	 rax, __tryend$PMCCS_GET_HASH_CODE$1
$LN10@PMCCS_GET_:
  00033	48 83 c4 28	 add	 rsp, 40			; 00000028H
  00037	5f		 pop	 rdi
  00038	5d		 pop	 rbp
  00039	c3		 ret	 0
  0003a	cc		 int	 3
PMCCS_GET_HASH_CODE$catch$0 ENDP
text$x	ENDS
; Function compile flags: /Odtp /RTCsu /ZI
;	COMDAT text$x
text$x	SEGMENT
ex$4 = 8
$T5 = 228
$T6 = 264
p$ = 320
r$ = 328
PMCCS_GET_HASH_CODE$catch$0 PROC

; 125  :         {

  00000	48 89 4c 24 08	 mov	 QWORD PTR [rsp+8], rcx
  00005	48 89 54 24 10	 mov	 QWORD PTR [rsp+16], rdx
  0000a	55		 push	 rbp
  0000b	57		 push	 rdi
  0000c	48 83 ec 28	 sub	 rsp, 40			; 00000028H
  00010	48 8d 6a 20	 lea	 rbp, QWORD PTR [rdx+32]
__catch$PMCCS_GET_HASH_CODE$0:

; 126  :             return (ex.GetStatusCode());

  00014	48 8b 4d 08	 mov	 rcx, QWORD PTR ex$4[rbp]
  00018	e8 00 00 00 00	 call	 ?GetStatusCode@Exception@Internal@Core@Math@Palmtree@@QEBAHXZ ; Palmtree::Math::Core::Internal::Exception::GetStatusCode
  0001d	89 85 e4 00 00
	00		 mov	 DWORD PTR $T5[rbp], eax
  00023	48 8d 05 00 00
	00 00		 lea	 rax, $LN9@PMCCS_GET_
  0002a	eb 07		 jmp	 SHORT $LN10@PMCCS_GET_

; 127  :         }

  0002c	48 8d 05 00 00
	00 00		 lea	 rax, __tryend$PMCCS_GET_HASH_CODE$1
$LN10@PMCCS_GET_:
  00033	48 83 c4 28	 add	 rsp, 40			; 00000028H
  00037	5f		 pop	 rdi
  00038	5d		 pop	 rbp
  00039	c3		 ret	 0
  0003a	cc		 int	 3
PMCCS_GET_HASH_CODE$catch$0 ENDP
text$x	ENDS
; Function compile flags: /Odtp /RTCsu /ZI
; File z:\sources\lunor\repos\rougemeilland\palmtree.math.core.uint\palmtree.math.core.uint\pmc_interface_csharp.cpp
;	COMDAT PMCCS_IS_ZERO
_TEXT	SEGMENT
ex$4 = 8
$T5 = 228
$T6 = 264
p$ = 320
r$ = 328
PMCCS_IS_ZERO PROC					; COMDAT

; 97   :     {

$LN11:
  00000	48 89 54 24 10	 mov	 QWORD PTR [rsp+16], rdx
  00005	48 89 4c 24 08	 mov	 QWORD PTR [rsp+8], rcx
  0000a	55		 push	 rbp
  0000b	57		 push	 rdi
  0000c	48 81 ec 48 01
	00 00		 sub	 rsp, 328		; 00000148H
  00013	48 8d 6c 24 20	 lea	 rbp, QWORD PTR [rsp+32]
  00018	48 8b fc	 mov	 rdi, rsp
  0001b	b9 52 00 00 00	 mov	 ecx, 82			; 00000052H
  00020	b8 cc cc cc cc	 mov	 eax, -858993460		; ccccccccH
  00025	f3 ab		 rep stosd
  00027	48 8b 8c 24 68
	01 00 00	 mov	 rcx, QWORD PTR [rsp+360]
  0002f	48 c7 85 08 01
	00 00 fe ff ff
	ff		 mov	 QWORD PTR $T6[rbp], -2
  0003a	48 8d 0d 00 00
	00 00		 lea	 rcx, OFFSET FLAT:__C21BA676_pmc_interface_csharp@cpp
  00041	e8 00 00 00 00	 call	 __CheckForDebuggerJustMyCode

; 98   :         if (p == nullptr)

  00046	48 83 bd 40 01
	00 00 00	 cmp	 QWORD PTR p$[rbp], 0
  0004e	75 07		 jne	 SHORT $LN2@PMCCS_IS_Z

; 99   :             return (PMC_STATUS_ARGUMENT_NULL_ERROR);

  00050	b8 fe ff ff ff	 mov	 eax, -2
  00055	eb 33		 jmp	 SHORT $LN1@PMCCS_IS_Z
$LN2@PMCCS_IS_Z:

; 100  :         if (r == nullptr)

  00057	48 83 bd 48 01
	00 00 00	 cmp	 QWORD PTR r$[rbp], 0
  0005f	75 07		 jne	 SHORT $LN3@PMCCS_IS_Z

; 101  :             return (PMC_STATUS_ARGUMENT_NULL_ERROR);

  00061	b8 fe ff ff ff	 mov	 eax, -2
  00066	eb 22		 jmp	 SHORT $LN1@PMCCS_IS_Z
$LN3@PMCCS_IS_Z:

; 102  :         try
; 103  :         {
; 104  :             *r = p->FLAGS.IS_ZERO;

  00068	48 8b 85 40 01
	00 00		 mov	 rax, QWORD PTR p$[rbp]
  0006f	8b 40 08	 mov	 eax, DWORD PTR [rax+8]
  00072	83 e0 01	 and	 eax, 1
  00075	48 8b 8d 48 01
	00 00		 mov	 rcx, QWORD PTR r$[rbp]
  0007c	89 01		 mov	 DWORD PTR [rcx], eax

; 105  :             return (PMC_STATUS_OK);

  0007e	33 c0		 xor	 eax, eax
  00080	eb 08		 jmp	 SHORT $LN1@PMCCS_IS_Z
__tryend$PMCCS_IS_ZERO$1:
  00082	eb 06		 jmp	 SHORT $LN1@PMCCS_IS_Z
$LN9@PMCCS_IS_Z:

; 106  :         }
; 107  :         catch (const Palmtree::Math::Core::Internal::Exception& ex)
; 108  :         {
; 109  :             return (ex.GetStatusCode());

  00084	8b 85 e4 00 00
	00		 mov	 eax, DWORD PTR $T5[rbp]
$LN1@PMCCS_IS_Z:

; 110  :         }
; 111  :     }

  0008a	48 8b f8	 mov	 rdi, rax
  0008d	48 8d 4d e0	 lea	 rcx, QWORD PTR [rbp-32]
  00091	48 8d 15 00 00
	00 00		 lea	 rdx, OFFSET FLAT:PMCCS_IS_ZERO$rtcFrameData
  00098	e8 00 00 00 00	 call	 _RTC_CheckStackVars
  0009d	48 8b c7	 mov	 rax, rdi
  000a0	48 8d a5 28 01
	00 00		 lea	 rsp, QWORD PTR [rbp+296]
  000a7	5f		 pop	 rdi
  000a8	5d		 pop	 rbp
  000a9	c3		 ret	 0
  000aa	cc		 int	 3
PMCCS_IS_ZERO ENDP
_TEXT	ENDS
;	COMDAT text$x
text$x	SEGMENT
ex$4 = 8
$T5 = 228
$T6 = 264
p$ = 320
r$ = 328
PMCCS_IS_ZERO$catch$0 PROC

; 106  :         }
; 107  :         catch (const Palmtree::Math::Core::Internal::Exception& ex)
; 108  :         {

  00000	48 89 4c 24 08	 mov	 QWORD PTR [rsp+8], rcx
  00005	48 89 54 24 10	 mov	 QWORD PTR [rsp+16], rdx
  0000a	55		 push	 rbp
  0000b	57		 push	 rdi
  0000c	48 83 ec 28	 sub	 rsp, 40			; 00000028H
  00010	48 8d 6a 20	 lea	 rbp, QWORD PTR [rdx+32]
__catch$PMCCS_IS_ZERO$0:

; 106  :         }
; 107  :         catch (const Palmtree::Math::Core::Internal::Exception& ex)
; 108  :         {
; 109  :             return (ex.GetStatusCode());

  00014	48 8b 4d 08	 mov	 rcx, QWORD PTR ex$4[rbp]
  00018	e8 00 00 00 00	 call	 ?GetStatusCode@Exception@Internal@Core@Math@Palmtree@@QEBAHXZ ; Palmtree::Math::Core::Internal::Exception::GetStatusCode
  0001d	89 85 e4 00 00
	00		 mov	 DWORD PTR $T5[rbp], eax
  00023	48 8d 05 00 00
	00 00		 lea	 rax, $LN9@PMCCS_IS_Z
  0002a	eb 07		 jmp	 SHORT $LN10@PMCCS_IS_Z

; 110  :         }

  0002c	48 8d 05 00 00
	00 00		 lea	 rax, __tryend$PMCCS_IS_ZERO$1
$LN10@PMCCS_IS_Z:
  00033	48 83 c4 28	 add	 rsp, 40			; 00000028H
  00037	5f		 pop	 rdi
  00038	5d		 pop	 rbp
  00039	c3		 ret	 0
  0003a	cc		 int	 3
PMCCS_IS_ZERO$catch$0 ENDP
text$x	ENDS
; Function compile flags: /Odtp /RTCsu /ZI
;	COMDAT text$x
text$x	SEGMENT
ex$4 = 8
$T5 = 228
$T6 = 264
p$ = 320
r$ = 328
PMCCS_IS_ZERO$catch$0 PROC

; 108  :         {

  00000	48 89 4c 24 08	 mov	 QWORD PTR [rsp+8], rcx
  00005	48 89 54 24 10	 mov	 QWORD PTR [rsp+16], rdx
  0000a	55		 push	 rbp
  0000b	57		 push	 rdi
  0000c	48 83 ec 28	 sub	 rsp, 40			; 00000028H
  00010	48 8d 6a 20	 lea	 rbp, QWORD PTR [rdx+32]
__catch$PMCCS_IS_ZERO$0:

; 109  :             return (ex.GetStatusCode());

  00014	48 8b 4d 08	 mov	 rcx, QWORD PTR ex$4[rbp]
  00018	e8 00 00 00 00	 call	 ?GetStatusCode@Exception@Internal@Core@Math@Palmtree@@QEBAHXZ ; Palmtree::Math::Core::Internal::Exception::GetStatusCode
  0001d	89 85 e4 00 00
	00		 mov	 DWORD PTR $T5[rbp], eax
  00023	48 8d 05 00 00
	00 00		 lea	 rax, $LN9@PMCCS_IS_Z
  0002a	eb 07		 jmp	 SHORT $LN10@PMCCS_IS_Z

; 110  :         }

  0002c	48 8d 05 00 00
	00 00		 lea	 rax, __tryend$PMCCS_IS_ZERO$1
$LN10@PMCCS_IS_Z:
  00033	48 83 c4 28	 add	 rsp, 40			; 00000028H
  00037	5f		 pop	 rdi
  00038	5d		 pop	 rbp
  00039	c3		 ret	 0
  0003a	cc		 int	 3
PMCCS_IS_ZERO$catch$0 ENDP
text$x	ENDS
; Function compile flags: /Odtp /RTCsu /ZI
; File z:\sources\lunor\repos\rougemeilland\palmtree.math.core.uint\palmtree.math.core.uint\pmc_interface_csharp.cpp
;	COMDAT PMCCS_IS_POWER_OF_TWO
_TEXT	SEGMENT
ex$4 = 8
$T5 = 228
$T6 = 264
p$ = 320
r$ = 328
PMCCS_IS_POWER_OF_TWO PROC				; COMDAT

; 80   :     {

$LN11:
  00000	48 89 54 24 10	 mov	 QWORD PTR [rsp+16], rdx
  00005	48 89 4c 24 08	 mov	 QWORD PTR [rsp+8], rcx
  0000a	55		 push	 rbp
  0000b	57		 push	 rdi
  0000c	48 81 ec 48 01
	00 00		 sub	 rsp, 328		; 00000148H
  00013	48 8d 6c 24 20	 lea	 rbp, QWORD PTR [rsp+32]
  00018	48 8b fc	 mov	 rdi, rsp
  0001b	b9 52 00 00 00	 mov	 ecx, 82			; 00000052H
  00020	b8 cc cc cc cc	 mov	 eax, -858993460		; ccccccccH
  00025	f3 ab		 rep stosd
  00027	48 8b 8c 24 68
	01 00 00	 mov	 rcx, QWORD PTR [rsp+360]
  0002f	48 c7 85 08 01
	00 00 fe ff ff
	ff		 mov	 QWORD PTR $T6[rbp], -2
  0003a	48 8d 0d 00 00
	00 00		 lea	 rcx, OFFSET FLAT:__C21BA676_pmc_interface_csharp@cpp
  00041	e8 00 00 00 00	 call	 __CheckForDebuggerJustMyCode

; 81   :         if (p == nullptr)

  00046	48 83 bd 40 01
	00 00 00	 cmp	 QWORD PTR p$[rbp], 0
  0004e	75 07		 jne	 SHORT $LN2@PMCCS_IS_P

; 82   :             return (PMC_STATUS_ARGUMENT_NULL_ERROR);

  00050	b8 fe ff ff ff	 mov	 eax, -2
  00055	eb 36		 jmp	 SHORT $LN1@PMCCS_IS_P
$LN2@PMCCS_IS_P:

; 83   :         if (r == nullptr)

  00057	48 83 bd 48 01
	00 00 00	 cmp	 QWORD PTR r$[rbp], 0
  0005f	75 07		 jne	 SHORT $LN3@PMCCS_IS_P

; 84   :             return (PMC_STATUS_ARGUMENT_NULL_ERROR);

  00061	b8 fe ff ff ff	 mov	 eax, -2
  00066	eb 25		 jmp	 SHORT $LN1@PMCCS_IS_P
$LN3@PMCCS_IS_P:

; 85   :         try
; 86   :         {
; 87   :             *r = p->FLAGS.IS_POWER_OF_TWO;

  00068	48 8b 85 40 01
	00 00		 mov	 rax, QWORD PTR p$[rbp]
  0006f	8b 40 08	 mov	 eax, DWORD PTR [rax+8]
  00072	c1 e8 03	 shr	 eax, 3
  00075	83 e0 01	 and	 eax, 1
  00078	48 8b 8d 48 01
	00 00		 mov	 rcx, QWORD PTR r$[rbp]
  0007f	89 01		 mov	 DWORD PTR [rcx], eax

; 88   :             return (PMC_STATUS_OK);

  00081	33 c0		 xor	 eax, eax
  00083	eb 08		 jmp	 SHORT $LN1@PMCCS_IS_P
__tryend$PMCCS_IS_POWER_OF_TWO$1:
  00085	eb 06		 jmp	 SHORT $LN1@PMCCS_IS_P
$LN9@PMCCS_IS_P:

; 89   :         }
; 90   :         catch (const Palmtree::Math::Core::Internal::Exception& ex)
; 91   :         {
; 92   :             return (ex.GetStatusCode());

  00087	8b 85 e4 00 00
	00		 mov	 eax, DWORD PTR $T5[rbp]
$LN1@PMCCS_IS_P:

; 93   :         }
; 94   :     }

  0008d	48 8b f8	 mov	 rdi, rax
  00090	48 8d 4d e0	 lea	 rcx, QWORD PTR [rbp-32]
  00094	48 8d 15 00 00
	00 00		 lea	 rdx, OFFSET FLAT:PMCCS_IS_POWER_OF_TWO$rtcFrameData
  0009b	e8 00 00 00 00	 call	 _RTC_CheckStackVars
  000a0	48 8b c7	 mov	 rax, rdi
  000a3	48 8d a5 28 01
	00 00		 lea	 rsp, QWORD PTR [rbp+296]
  000aa	5f		 pop	 rdi
  000ab	5d		 pop	 rbp
  000ac	c3		 ret	 0
  000ad	cc		 int	 3
PMCCS_IS_POWER_OF_TWO ENDP
_TEXT	ENDS
;	COMDAT text$x
text$x	SEGMENT
ex$4 = 8
$T5 = 228
$T6 = 264
p$ = 320
r$ = 328
PMCCS_IS_POWER_OF_TWO$catch$0 PROC

; 89   :         }
; 90   :         catch (const Palmtree::Math::Core::Internal::Exception& ex)
; 91   :         {

  00000	48 89 4c 24 08	 mov	 QWORD PTR [rsp+8], rcx
  00005	48 89 54 24 10	 mov	 QWORD PTR [rsp+16], rdx
  0000a	55		 push	 rbp
  0000b	57		 push	 rdi
  0000c	48 83 ec 28	 sub	 rsp, 40			; 00000028H
  00010	48 8d 6a 20	 lea	 rbp, QWORD PTR [rdx+32]
__catch$PMCCS_IS_POWER_OF_TWO$0:

; 89   :         }
; 90   :         catch (const Palmtree::Math::Core::Internal::Exception& ex)
; 91   :         {
; 92   :             return (ex.GetStatusCode());

  00014	48 8b 4d 08	 mov	 rcx, QWORD PTR ex$4[rbp]
  00018	e8 00 00 00 00	 call	 ?GetStatusCode@Exception@Internal@Core@Math@Palmtree@@QEBAHXZ ; Palmtree::Math::Core::Internal::Exception::GetStatusCode
  0001d	89 85 e4 00 00
	00		 mov	 DWORD PTR $T5[rbp], eax
  00023	48 8d 05 00 00
	00 00		 lea	 rax, $LN9@PMCCS_IS_P
  0002a	eb 07		 jmp	 SHORT $LN10@PMCCS_IS_P

; 93   :         }

  0002c	48 8d 05 00 00
	00 00		 lea	 rax, __tryend$PMCCS_IS_POWER_OF_TWO$1
$LN10@PMCCS_IS_P:
  00033	48 83 c4 28	 add	 rsp, 40			; 00000028H
  00037	5f		 pop	 rdi
  00038	5d		 pop	 rbp
  00039	c3		 ret	 0
  0003a	cc		 int	 3
PMCCS_IS_POWER_OF_TWO$catch$0 ENDP
text$x	ENDS
; Function compile flags: /Odtp /RTCsu /ZI
;	COMDAT text$x
text$x	SEGMENT
ex$4 = 8
$T5 = 228
$T6 = 264
p$ = 320
r$ = 328
PMCCS_IS_POWER_OF_TWO$catch$0 PROC

; 91   :         {

  00000	48 89 4c 24 08	 mov	 QWORD PTR [rsp+8], rcx
  00005	48 89 54 24 10	 mov	 QWORD PTR [rsp+16], rdx
  0000a	55		 push	 rbp
  0000b	57		 push	 rdi
  0000c	48 83 ec 28	 sub	 rsp, 40			; 00000028H
  00010	48 8d 6a 20	 lea	 rbp, QWORD PTR [rdx+32]
__catch$PMCCS_IS_POWER_OF_TWO$0:

; 92   :             return (ex.GetStatusCode());

  00014	48 8b 4d 08	 mov	 rcx, QWORD PTR ex$4[rbp]
  00018	e8 00 00 00 00	 call	 ?GetStatusCode@Exception@Internal@Core@Math@Palmtree@@QEBAHXZ ; Palmtree::Math::Core::Internal::Exception::GetStatusCode
  0001d	89 85 e4 00 00
	00		 mov	 DWORD PTR $T5[rbp], eax
  00023	48 8d 05 00 00
	00 00		 lea	 rax, $LN9@PMCCS_IS_P
  0002a	eb 07		 jmp	 SHORT $LN10@PMCCS_IS_P

; 93   :         }

  0002c	48 8d 05 00 00
	00 00		 lea	 rax, __tryend$PMCCS_IS_POWER_OF_TWO$1
$LN10@PMCCS_IS_P:
  00033	48 83 c4 28	 add	 rsp, 40			; 00000028H
  00037	5f		 pop	 rdi
  00038	5d		 pop	 rbp
  00039	c3		 ret	 0
  0003a	cc		 int	 3
PMCCS_IS_POWER_OF_TWO$catch$0 ENDP
text$x	ENDS
; Function compile flags: /Odtp /RTCsu /ZI
; File z:\sources\lunor\repos\rougemeilland\palmtree.math.core.uint\palmtree.math.core.uint\pmc_interface_csharp.cpp
;	COMDAT PMCCS_IS_ONE
_TEXT	SEGMENT
ex$4 = 8
$T5 = 228
$T6 = 264
p$ = 320
r$ = 328
PMCCS_IS_ONE PROC					; COMDAT

; 63   :     {

$LN11:
  00000	48 89 54 24 10	 mov	 QWORD PTR [rsp+16], rdx
  00005	48 89 4c 24 08	 mov	 QWORD PTR [rsp+8], rcx
  0000a	55		 push	 rbp
  0000b	57		 push	 rdi
  0000c	48 81 ec 48 01
	00 00		 sub	 rsp, 328		; 00000148H
  00013	48 8d 6c 24 20	 lea	 rbp, QWORD PTR [rsp+32]
  00018	48 8b fc	 mov	 rdi, rsp
  0001b	b9 52 00 00 00	 mov	 ecx, 82			; 00000052H
  00020	b8 cc cc cc cc	 mov	 eax, -858993460		; ccccccccH
  00025	f3 ab		 rep stosd
  00027	48 8b 8c 24 68
	01 00 00	 mov	 rcx, QWORD PTR [rsp+360]
  0002f	48 c7 85 08 01
	00 00 fe ff ff
	ff		 mov	 QWORD PTR $T6[rbp], -2
  0003a	48 8d 0d 00 00
	00 00		 lea	 rcx, OFFSET FLAT:__C21BA676_pmc_interface_csharp@cpp
  00041	e8 00 00 00 00	 call	 __CheckForDebuggerJustMyCode

; 64   :         if (p == nullptr)

  00046	48 83 bd 40 01
	00 00 00	 cmp	 QWORD PTR p$[rbp], 0
  0004e	75 07		 jne	 SHORT $LN2@PMCCS_IS_O

; 65   :             return (PMC_STATUS_ARGUMENT_NULL_ERROR);

  00050	b8 fe ff ff ff	 mov	 eax, -2
  00055	eb 35		 jmp	 SHORT $LN1@PMCCS_IS_O
$LN2@PMCCS_IS_O:

; 66   :         if (r == nullptr)

  00057	48 83 bd 48 01
	00 00 00	 cmp	 QWORD PTR r$[rbp], 0
  0005f	75 07		 jne	 SHORT $LN3@PMCCS_IS_O

; 67   :             return (PMC_STATUS_ARGUMENT_NULL_ERROR);

  00061	b8 fe ff ff ff	 mov	 eax, -2
  00066	eb 24		 jmp	 SHORT $LN1@PMCCS_IS_O
$LN3@PMCCS_IS_O:

; 68   :         try
; 69   :         {
; 70   :             *r = p->FLAGS.IS_ONE;

  00068	48 8b 85 40 01
	00 00		 mov	 rax, QWORD PTR p$[rbp]
  0006f	8b 40 08	 mov	 eax, DWORD PTR [rax+8]
  00072	d1 e8		 shr	 eax, 1
  00074	83 e0 01	 and	 eax, 1
  00077	48 8b 8d 48 01
	00 00		 mov	 rcx, QWORD PTR r$[rbp]
  0007e	89 01		 mov	 DWORD PTR [rcx], eax

; 71   :             return (PMC_STATUS_OK);

  00080	33 c0		 xor	 eax, eax
  00082	eb 08		 jmp	 SHORT $LN1@PMCCS_IS_O
__tryend$PMCCS_IS_ONE$1:
  00084	eb 06		 jmp	 SHORT $LN1@PMCCS_IS_O
$LN9@PMCCS_IS_O:

; 72   :         }
; 73   :         catch (const Palmtree::Math::Core::Internal::Exception& ex)
; 74   :         {
; 75   :             return (ex.GetStatusCode());

  00086	8b 85 e4 00 00
	00		 mov	 eax, DWORD PTR $T5[rbp]
$LN1@PMCCS_IS_O:

; 76   :         }
; 77   :     }

  0008c	48 8b f8	 mov	 rdi, rax
  0008f	48 8d 4d e0	 lea	 rcx, QWORD PTR [rbp-32]
  00093	48 8d 15 00 00
	00 00		 lea	 rdx, OFFSET FLAT:PMCCS_IS_ONE$rtcFrameData
  0009a	e8 00 00 00 00	 call	 _RTC_CheckStackVars
  0009f	48 8b c7	 mov	 rax, rdi
  000a2	48 8d a5 28 01
	00 00		 lea	 rsp, QWORD PTR [rbp+296]
  000a9	5f		 pop	 rdi
  000aa	5d		 pop	 rbp
  000ab	c3		 ret	 0
  000ac	cc		 int	 3
PMCCS_IS_ONE ENDP
_TEXT	ENDS
;	COMDAT text$x
text$x	SEGMENT
ex$4 = 8
$T5 = 228
$T6 = 264
p$ = 320
r$ = 328
PMCCS_IS_ONE$catch$0 PROC

; 72   :         }
; 73   :         catch (const Palmtree::Math::Core::Internal::Exception& ex)
; 74   :         {

  00000	48 89 4c 24 08	 mov	 QWORD PTR [rsp+8], rcx
  00005	48 89 54 24 10	 mov	 QWORD PTR [rsp+16], rdx
  0000a	55		 push	 rbp
  0000b	57		 push	 rdi
  0000c	48 83 ec 28	 sub	 rsp, 40			; 00000028H
  00010	48 8d 6a 20	 lea	 rbp, QWORD PTR [rdx+32]
__catch$PMCCS_IS_ONE$0:

; 72   :         }
; 73   :         catch (const Palmtree::Math::Core::Internal::Exception& ex)
; 74   :         {
; 75   :             return (ex.GetStatusCode());

  00014	48 8b 4d 08	 mov	 rcx, QWORD PTR ex$4[rbp]
  00018	e8 00 00 00 00	 call	 ?GetStatusCode@Exception@Internal@Core@Math@Palmtree@@QEBAHXZ ; Palmtree::Math::Core::Internal::Exception::GetStatusCode
  0001d	89 85 e4 00 00
	00		 mov	 DWORD PTR $T5[rbp], eax
  00023	48 8d 05 00 00
	00 00		 lea	 rax, $LN9@PMCCS_IS_O
  0002a	eb 07		 jmp	 SHORT $LN10@PMCCS_IS_O

; 76   :         }

  0002c	48 8d 05 00 00
	00 00		 lea	 rax, __tryend$PMCCS_IS_ONE$1
$LN10@PMCCS_IS_O:
  00033	48 83 c4 28	 add	 rsp, 40			; 00000028H
  00037	5f		 pop	 rdi
  00038	5d		 pop	 rbp
  00039	c3		 ret	 0
  0003a	cc		 int	 3
PMCCS_IS_ONE$catch$0 ENDP
text$x	ENDS
; Function compile flags: /Odtp /RTCsu /ZI
;	COMDAT text$x
text$x	SEGMENT
ex$4 = 8
$T5 = 228
$T6 = 264
p$ = 320
r$ = 328
PMCCS_IS_ONE$catch$0 PROC

; 74   :         {

  00000	48 89 4c 24 08	 mov	 QWORD PTR [rsp+8], rcx
  00005	48 89 54 24 10	 mov	 QWORD PTR [rsp+16], rdx
  0000a	55		 push	 rbp
  0000b	57		 push	 rdi
  0000c	48 83 ec 28	 sub	 rsp, 40			; 00000028H
  00010	48 8d 6a 20	 lea	 rbp, QWORD PTR [rdx+32]
__catch$PMCCS_IS_ONE$0:

; 75   :             return (ex.GetStatusCode());

  00014	48 8b 4d 08	 mov	 rcx, QWORD PTR ex$4[rbp]
  00018	e8 00 00 00 00	 call	 ?GetStatusCode@Exception@Internal@Core@Math@Palmtree@@QEBAHXZ ; Palmtree::Math::Core::Internal::Exception::GetStatusCode
  0001d	89 85 e4 00 00
	00		 mov	 DWORD PTR $T5[rbp], eax
  00023	48 8d 05 00 00
	00 00		 lea	 rax, $LN9@PMCCS_IS_O
  0002a	eb 07		 jmp	 SHORT $LN10@PMCCS_IS_O

; 76   :         }

  0002c	48 8d 05 00 00
	00 00		 lea	 rax, __tryend$PMCCS_IS_ONE$1
$LN10@PMCCS_IS_O:
  00033	48 83 c4 28	 add	 rsp, 40			; 00000028H
  00037	5f		 pop	 rdi
  00038	5d		 pop	 rbp
  00039	c3		 ret	 0
  0003a	cc		 int	 3
PMCCS_IS_ONE$catch$0 ENDP
text$x	ENDS
; Function compile flags: /Odtp /RTCsu /ZI
; File z:\sources\lunor\repos\rougemeilland\palmtree.math.core.uint\palmtree.math.core.uint\pmc_interface_csharp.cpp
;	COMDAT PMCCS_IS_EVEN
_TEXT	SEGMENT
ex$4 = 8
$T5 = 228
$T6 = 264
p$ = 320
r$ = 328
PMCCS_IS_EVEN PROC					; COMDAT

; 46   :     {

$LN11:
  00000	48 89 54 24 10	 mov	 QWORD PTR [rsp+16], rdx
  00005	48 89 4c 24 08	 mov	 QWORD PTR [rsp+8], rcx
  0000a	55		 push	 rbp
  0000b	57		 push	 rdi
  0000c	48 81 ec 48 01
	00 00		 sub	 rsp, 328		; 00000148H
  00013	48 8d 6c 24 20	 lea	 rbp, QWORD PTR [rsp+32]
  00018	48 8b fc	 mov	 rdi, rsp
  0001b	b9 52 00 00 00	 mov	 ecx, 82			; 00000052H
  00020	b8 cc cc cc cc	 mov	 eax, -858993460		; ccccccccH
  00025	f3 ab		 rep stosd
  00027	48 8b 8c 24 68
	01 00 00	 mov	 rcx, QWORD PTR [rsp+360]
  0002f	48 c7 85 08 01
	00 00 fe ff ff
	ff		 mov	 QWORD PTR $T6[rbp], -2
  0003a	48 8d 0d 00 00
	00 00		 lea	 rcx, OFFSET FLAT:__C21BA676_pmc_interface_csharp@cpp
  00041	e8 00 00 00 00	 call	 __CheckForDebuggerJustMyCode

; 47   :         if (p == nullptr)

  00046	48 83 bd 40 01
	00 00 00	 cmp	 QWORD PTR p$[rbp], 0
  0004e	75 07		 jne	 SHORT $LN2@PMCCS_IS_E

; 48   :             return (PMC_STATUS_ARGUMENT_NULL_ERROR);

  00050	b8 fe ff ff ff	 mov	 eax, -2
  00055	eb 36		 jmp	 SHORT $LN1@PMCCS_IS_E
$LN2@PMCCS_IS_E:

; 49   :         if (r == nullptr)

  00057	48 83 bd 48 01
	00 00 00	 cmp	 QWORD PTR r$[rbp], 0
  0005f	75 07		 jne	 SHORT $LN3@PMCCS_IS_E

; 50   :             return (PMC_STATUS_ARGUMENT_NULL_ERROR);

  00061	b8 fe ff ff ff	 mov	 eax, -2
  00066	eb 25		 jmp	 SHORT $LN1@PMCCS_IS_E
$LN3@PMCCS_IS_E:

; 51   :         try
; 52   :         {
; 53   :             *r = p->FLAGS.IS_EVEN;

  00068	48 8b 85 40 01
	00 00		 mov	 rax, QWORD PTR p$[rbp]
  0006f	8b 40 08	 mov	 eax, DWORD PTR [rax+8]
  00072	c1 e8 02	 shr	 eax, 2
  00075	83 e0 01	 and	 eax, 1
  00078	48 8b 8d 48 01
	00 00		 mov	 rcx, QWORD PTR r$[rbp]
  0007f	89 01		 mov	 DWORD PTR [rcx], eax

; 54   :             return (PMC_STATUS_OK);

  00081	33 c0		 xor	 eax, eax
  00083	eb 08		 jmp	 SHORT $LN1@PMCCS_IS_E
__tryend$PMCCS_IS_EVEN$1:
  00085	eb 06		 jmp	 SHORT $LN1@PMCCS_IS_E
$LN9@PMCCS_IS_E:

; 55   :         }
; 56   :         catch (const Palmtree::Math::Core::Internal::Exception& ex)
; 57   :         {
; 58   :             return (ex.GetStatusCode());

  00087	8b 85 e4 00 00
	00		 mov	 eax, DWORD PTR $T5[rbp]
$LN1@PMCCS_IS_E:

; 59   :         }
; 60   :     }

  0008d	48 8b f8	 mov	 rdi, rax
  00090	48 8d 4d e0	 lea	 rcx, QWORD PTR [rbp-32]
  00094	48 8d 15 00 00
	00 00		 lea	 rdx, OFFSET FLAT:PMCCS_IS_EVEN$rtcFrameData
  0009b	e8 00 00 00 00	 call	 _RTC_CheckStackVars
  000a0	48 8b c7	 mov	 rax, rdi
  000a3	48 8d a5 28 01
	00 00		 lea	 rsp, QWORD PTR [rbp+296]
  000aa	5f		 pop	 rdi
  000ab	5d		 pop	 rbp
  000ac	c3		 ret	 0
  000ad	cc		 int	 3
PMCCS_IS_EVEN ENDP
_TEXT	ENDS
;	COMDAT text$x
text$x	SEGMENT
ex$4 = 8
$T5 = 228
$T6 = 264
p$ = 320
r$ = 328
PMCCS_IS_EVEN$catch$0 PROC

; 55   :         }
; 56   :         catch (const Palmtree::Math::Core::Internal::Exception& ex)
; 57   :         {

  00000	48 89 4c 24 08	 mov	 QWORD PTR [rsp+8], rcx
  00005	48 89 54 24 10	 mov	 QWORD PTR [rsp+16], rdx
  0000a	55		 push	 rbp
  0000b	57		 push	 rdi
  0000c	48 83 ec 28	 sub	 rsp, 40			; 00000028H
  00010	48 8d 6a 20	 lea	 rbp, QWORD PTR [rdx+32]
__catch$PMCCS_IS_EVEN$0:

; 55   :         }
; 56   :         catch (const Palmtree::Math::Core::Internal::Exception& ex)
; 57   :         {
; 58   :             return (ex.GetStatusCode());

  00014	48 8b 4d 08	 mov	 rcx, QWORD PTR ex$4[rbp]
  00018	e8 00 00 00 00	 call	 ?GetStatusCode@Exception@Internal@Core@Math@Palmtree@@QEBAHXZ ; Palmtree::Math::Core::Internal::Exception::GetStatusCode
  0001d	89 85 e4 00 00
	00		 mov	 DWORD PTR $T5[rbp], eax
  00023	48 8d 05 00 00
	00 00		 lea	 rax, $LN9@PMCCS_IS_E
  0002a	eb 07		 jmp	 SHORT $LN10@PMCCS_IS_E

; 59   :         }

  0002c	48 8d 05 00 00
	00 00		 lea	 rax, __tryend$PMCCS_IS_EVEN$1
$LN10@PMCCS_IS_E:
  00033	48 83 c4 28	 add	 rsp, 40			; 00000028H
  00037	5f		 pop	 rdi
  00038	5d		 pop	 rbp
  00039	c3		 ret	 0
  0003a	cc		 int	 3
PMCCS_IS_EVEN$catch$0 ENDP
text$x	ENDS
; Function compile flags: /Odtp /RTCsu /ZI
;	COMDAT text$x
text$x	SEGMENT
ex$4 = 8
$T5 = 228
$T6 = 264
p$ = 320
r$ = 328
PMCCS_IS_EVEN$catch$0 PROC

; 57   :         {

  00000	48 89 4c 24 08	 mov	 QWORD PTR [rsp+8], rcx
  00005	48 89 54 24 10	 mov	 QWORD PTR [rsp+16], rdx
  0000a	55		 push	 rbp
  0000b	57		 push	 rdi
  0000c	48 83 ec 28	 sub	 rsp, 40			; 00000028H
  00010	48 8d 6a 20	 lea	 rbp, QWORD PTR [rdx+32]
__catch$PMCCS_IS_EVEN$0:

; 58   :             return (ex.GetStatusCode());

  00014	48 8b 4d 08	 mov	 rcx, QWORD PTR ex$4[rbp]
  00018	e8 00 00 00 00	 call	 ?GetStatusCode@Exception@Internal@Core@Math@Palmtree@@QEBAHXZ ; Palmtree::Math::Core::Internal::Exception::GetStatusCode
  0001d	89 85 e4 00 00
	00		 mov	 DWORD PTR $T5[rbp], eax
  00023	48 8d 05 00 00
	00 00		 lea	 rax, $LN9@PMCCS_IS_E
  0002a	eb 07		 jmp	 SHORT $LN10@PMCCS_IS_E

; 59   :         }

  0002c	48 8d 05 00 00
	00 00		 lea	 rax, __tryend$PMCCS_IS_EVEN$1
$LN10@PMCCS_IS_E:
  00033	48 83 c4 28	 add	 rsp, 40			; 00000028H
  00037	5f		 pop	 rdi
  00038	5d		 pop	 rbp
  00039	c3		 ret	 0
  0003a	cc		 int	 3
PMCCS_IS_EVEN$catch$0 ENDP
text$x	ENDS
; Function compile flags: /Odtp /RTCsu /ZI
; File z:\sources\lunor\repos\rougemeilland\palmtree.math.core.uint\palmtree.math.core.uint\pmc_interface_csharp.cpp
;	COMDAT PMCCS_GetConfigurationSettings
_TEXT	SEGMENT
key$ = 224
value_buffer$ = 232
value_buffer_size$ = 240
count$ = 248
PMCCS_GetConfigurationSettings PROC			; COMDAT

; 41   :     {

$LN3:
  00000	4c 89 4c 24 20	 mov	 QWORD PTR [rsp+32], r9
  00005	44 89 44 24 18	 mov	 DWORD PTR [rsp+24], r8d
  0000a	48 89 54 24 10	 mov	 QWORD PTR [rsp+16], rdx
  0000f	48 89 4c 24 08	 mov	 QWORD PTR [rsp+8], rcx
  00014	55		 push	 rbp
  00015	57		 push	 rdi
  00016	48 81 ec e8 00
	00 00		 sub	 rsp, 232		; 000000e8H
  0001d	48 8d 6c 24 20	 lea	 rbp, QWORD PTR [rsp+32]
  00022	48 8b fc	 mov	 rdi, rsp
  00025	b9 3a 00 00 00	 mov	 ecx, 58			; 0000003aH
  0002a	b8 cc cc cc cc	 mov	 eax, -858993460		; ccccccccH
  0002f	f3 ab		 rep stosd
  00031	48 8b 8c 24 08
	01 00 00	 mov	 rcx, QWORD PTR [rsp+264]
  00039	48 8d 0d 00 00
	00 00		 lea	 rcx, OFFSET FLAT:__C21BA676_pmc_interface_csharp@cpp
  00040	e8 00 00 00 00	 call	 __CheckForDebuggerJustMyCode

; 42   :         return (PMC_GetConfigurationSettings(key, value_buffer, value_buffer_size, count));

  00045	4c 8b 8d f8 00
	00 00		 mov	 r9, QWORD PTR count$[rbp]
  0004c	44 8b 85 f0 00
	00 00		 mov	 r8d, DWORD PTR value_buffer_size$[rbp]
  00053	48 8b 95 e8 00
	00 00		 mov	 rdx, QWORD PTR value_buffer$[rbp]
  0005a	48 8b 8d e0 00
	00 00		 mov	 rcx, QWORD PTR key$[rbp]
  00061	e8 00 00 00 00	 call	 ?PMC_GetConfigurationSettings@Internal@Core@Math@Palmtree@@YAHPEB_WPEA_WHPEAH@Z ; Palmtree::Math::Core::Internal::PMC_GetConfigurationSettings

; 43   :     }

  00066	48 8d a5 c8 00
	00 00		 lea	 rsp, QWORD PTR [rbp+200]
  0006d	5f		 pop	 rdi
  0006e	5d		 pop	 rbp
  0006f	c3		 ret	 0
PMCCS_GetConfigurationSettings ENDP
_TEXT	ENDS
; Function compile flags: /Odtp /RTCsu /ZI
; File z:\sources\lunor\repos\rougemeilland\palmtree.math.core.uint\palmtree.math.core.uint\pmc_interface_csharp.cpp
;	COMDAT PMCCS_UINT_Initialize
_TEXT	SEGMENT
success$ = 4
tv67 = 212
conf$ = 256
PMCCS_UINT_Initialize PROC				; COMDAT

; 35   :     {

$LN5:
  00000	48 89 4c 24 08	 mov	 QWORD PTR [rsp+8], rcx
  00005	55		 push	 rbp
  00006	57		 push	 rdi
  00007	48 81 ec 08 01
	00 00		 sub	 rsp, 264		; 00000108H
  0000e	48 8d 6c 24 20	 lea	 rbp, QWORD PTR [rsp+32]
  00013	48 8b fc	 mov	 rdi, rsp
  00016	b9 42 00 00 00	 mov	 ecx, 66			; 00000042H
  0001b	b8 cc cc cc cc	 mov	 eax, -858993460		; ccccccccH
  00020	f3 ab		 rep stosd
  00022	48 8b 8c 24 28
	01 00 00	 mov	 rcx, QWORD PTR [rsp+296]
  0002a	48 8d 0d 00 00
	00 00		 lea	 rcx, OFFSET FLAT:__C21BA676_pmc_interface_csharp@cpp
  00031	e8 00 00 00 00	 call	 __CheckForDebuggerJustMyCode

; 36   :         _UINT32_T success = PMC_UINT_Initialize(conf) != nullptr ? 1 : 0;

  00036	48 8b 8d 00 01
	00 00		 mov	 rcx, QWORD PTR conf$[rbp]
  0003d	e8 00 00 00 00	 call	 PMC_UINT_Initialize
  00042	48 85 c0	 test	 rax, rax
  00045	74 0c		 je	 SHORT $LN3@PMCCS_UINT
  00047	c7 85 d4 00 00
	00 01 00 00 00	 mov	 DWORD PTR tv67[rbp], 1
  00051	eb 0a		 jmp	 SHORT $LN4@PMCCS_UINT
$LN3@PMCCS_UINT:
  00053	c7 85 d4 00 00
	00 00 00 00 00	 mov	 DWORD PTR tv67[rbp], 0
$LN4@PMCCS_UINT:
  0005d	8b 85 d4 00 00
	00		 mov	 eax, DWORD PTR tv67[rbp]
  00063	89 45 04	 mov	 DWORD PTR success$[rbp], eax

; 37   :         return (success);

  00066	8b 45 04	 mov	 eax, DWORD PTR success$[rbp]

; 38   :     }

  00069	48 8d a5 e8 00
	00 00		 lea	 rsp, QWORD PTR [rbp+232]
  00070	5f		 pop	 rdi
  00071	5d		 pop	 rbp
  00072	c3		 ret	 0
PMCCS_UINT_Initialize ENDP
_TEXT	ENDS
; Function compile flags: /Odtp /RTCsu /ZI
; File z:\sources\lunor\repos\rougemeilland\palmtree.math.core.uint\palmtree.math.core.uint\pmc_exception.h
;	COMDAT ?GetStatusCode@Exception@Internal@Core@Math@Palmtree@@QEBAHXZ
_TEXT	SEGMENT
$T1 = 200
this$ = 256
?GetStatusCode@Exception@Internal@Core@Math@Palmtree@@QEBAHXZ PROC ; Palmtree::Math::Core::Internal::Exception::GetStatusCode, COMDAT

; 74   :         {

$LN3:
  00000	48 89 4c 24 08	 mov	 QWORD PTR [rsp+8], rcx
  00005	55		 push	 rbp
  00006	57		 push	 rdi
  00007	48 81 ec 08 01
	00 00		 sub	 rsp, 264		; 00000108H
  0000e	48 8d 6c 24 20	 lea	 rbp, QWORD PTR [rsp+32]
  00013	48 8b fc	 mov	 rdi, rsp
  00016	b9 42 00 00 00	 mov	 ecx, 66			; 00000042H
  0001b	b8 cc cc cc cc	 mov	 eax, -858993460		; ccccccccH
  00020	f3 ab		 rep stosd
  00022	48 8b 8c 24 28
	01 00 00	 mov	 rcx, QWORD PTR [rsp+296]
  0002a	48 c7 85 c8 00
	00 00 fe ff ff
	ff		 mov	 QWORD PTR $T1[rbp], -2
  00035	48 8d 0d 00 00
	00 00		 lea	 rcx, OFFSET FLAT:__802FEEC0_pmc_exception@h
  0003c	e8 00 00 00 00	 call	 __CheckForDebuggerJustMyCode
  00041	90		 npad	 1

; 75   :             return (_code);

  00042	48 8b 85 00 01
	00 00		 mov	 rax, QWORD PTR this$[rbp]
  00049	8b 40 18	 mov	 eax, DWORD PTR [rax+24]

; 76   :         }

  0004c	48 8d a5 e8 00
	00 00		 lea	 rsp, QWORD PTR [rbp+232]
  00053	5f		 pop	 rdi
  00054	5d		 pop	 rbp
  00055	c3		 ret	 0
?GetStatusCode@Exception@Internal@Core@Math@Palmtree@@QEBAHXZ ENDP ; Palmtree::Math::Core::Internal::Exception::GetStatusCode
_TEXT	ENDS
END
