; Listing generated by Microsoft (R) Optimizing Compiler Version 19.16.27026.1 

include listing.inc

INCLUDELIB MSVCRTD
INCLUDELIB OLDNAMES

msvcjmc	SEGMENT
__7B7A869E_ctype@h DB 01H
__457DD326_basetsd@h DB 01H
__4384A2D9_corecrt_memcpy_s@h DB 01H
__4E51A221_corecrt_wstring@h DB 01H
__2140C079_string@h DB 01H
__1887E595_winnt@h DB 01H
__9FC7C64B_processthreadsapi@h DB 01H
__FA470AEC_memoryapi@h DB 01H
__F37DAFF1_winerror@h DB 01H
__7A450CCC_winbase@h DB 01H
__B4B40122_winioctl@h DB 01H
__86261D59_stralign@h DB 01H
__BB6D3116_pmc_uint_internal@h DB 01H
__8CA3E54E_pmc_inline_func@h DB 01H
__E05E7037_autogenerated_inline_func@h DB 01H
__3257AA0B_pmc_greatestcommondivisor@c DB 01H
msvcjmc	ENDS
PUBLIC	Initialize_GreatestCommonDivisor
PUBLIC	PMC_GreatestCommonDivisor_I_X
PUBLIC	PMC_GreatestCommonDivisor_L_X
PUBLIC	PMC_GreatestCommonDivisor_X_I
PUBLIC	PMC_GreatestCommonDivisor_X_L
PUBLIC	PMC_GreatestCommonDivisor_X_X
PUBLIC	__JustMyCode_Default
EXTRN	AllocateBlock:PROC
EXTRN	DeallocateBlock:PROC
EXTRN	CheckBlockLight:PROC
EXTRN	AllocateNumber:PROC
EXTRN	CommitNumber:PROC
EXTRN	CheckNumber:PROC
EXTRN	DuplicateNumber:PROC
EXTRN	From_I_Imp:PROC
EXTRN	From_L_Imp:PROC
EXTRN	RightShift_Imp:PROC
EXTRN	LeftShift_Imp:PROC
EXTRN	Subtruct_Imp:PROC
EXTRN	Compare_Imp:PROC
EXTRN	_RTC_CheckStackVars:PROC
EXTRN	_RTC_InitBase:PROC
EXTRN	_RTC_Shutdown:PROC
EXTRN	__CheckForDebuggerJustMyCode:PROC
;	COMDAT pdata
pdata	SEGMENT
$pdata$Initialize_GreatestCommonDivisor DD imagerel $LN3
	DD	imagerel $LN3+66
	DD	imagerel $unwind$Initialize_GreatestCommonDivisor
pdata	ENDS
;	COMDAT pdata
pdata	SEGMENT
$pdata$PMC_GreatestCommonDivisor_I_X DD imagerel $LN9
	DD	imagerel $LN9+218
	DD	imagerel $unwind$PMC_GreatestCommonDivisor_I_X
pdata	ENDS
;	COMDAT pdata
pdata	SEGMENT
$pdata$PMC_GreatestCommonDivisor_L_X DD imagerel $LN9
	DD	imagerel $LN9+221
	DD	imagerel $unwind$PMC_GreatestCommonDivisor_L_X
pdata	ENDS
;	COMDAT pdata
pdata	SEGMENT
$pdata$PMC_GreatestCommonDivisor_X_I DD imagerel $LN9
	DD	imagerel $LN9+219
	DD	imagerel $unwind$PMC_GreatestCommonDivisor_X_I
pdata	ENDS
;	COMDAT pdata
pdata	SEGMENT
$pdata$PMC_GreatestCommonDivisor_X_L DD imagerel $LN9
	DD	imagerel $LN9+221
	DD	imagerel $unwind$PMC_GreatestCommonDivisor_X_L
pdata	ENDS
;	COMDAT pdata
pdata	SEGMENT
$pdata$PMC_GreatestCommonDivisor_X_X DD imagerel $LN28
	DD	imagerel $LN28+1206
	DD	imagerel $unwind$PMC_GreatestCommonDivisor_X_X
pdata	ENDS
;	COMDAT pdata
pdata	SEGMENT
$pdata$_COPY_MEMORY_UNIT DD imagerel _COPY_MEMORY_UNIT
	DD	imagerel _COPY_MEMORY_UNIT+100
	DD	imagerel $unwind$_COPY_MEMORY_UNIT
pdata	ENDS
;	COMDAT pdata
pdata	SEGMENT
$pdata$_FROMDWORDTOWORD DD imagerel _FROMDWORDTOWORD
	DD	imagerel _FROMDWORDTOWORD+95
	DD	imagerel $unwind$_FROMDWORDTOWORD
pdata	ENDS
;	COMDAT pdata
pdata	SEGMENT
$pdata$_DIVIDE_CEILING_UNIT DD imagerel _DIVIDE_CEILING_UNIT
	DD	imagerel _DIVIDE_CEILING_UNIT+97
	DD	imagerel $unwind$_DIVIDE_CEILING_UNIT
pdata	ENDS
;	COMDAT pdata
pdata	SEGMENT
$pdata$_MAXIMUM_UNIT DD imagerel _MAXIMUM_UNIT
	DD	imagerel _MAXIMUM_UNIT+122
	DD	imagerel $unwind$_MAXIMUM_UNIT
pdata	ENDS
;	COMDAT pdata
pdata	SEGMENT
$pdata$_MINIMUM_UNIT DD imagerel _MINIMUM_UNIT
	DD	imagerel _MINIMUM_UNIT+122
	DD	imagerel $unwind$_MINIMUM_UNIT
pdata	ENDS
;	COMDAT pdata
pdata	SEGMENT
$pdata$_LZCNT_ALT_32 DD imagerel _LZCNT_ALT_32
	DD	imagerel _LZCNT_ALT_32+126
	DD	imagerel $unwind$_LZCNT_ALT_32
pdata	ENDS
;	COMDAT pdata
pdata	SEGMENT
$pdata$_LZCNT_ALT_UNIT DD imagerel _LZCNT_ALT_UNIT
	DD	imagerel _LZCNT_ALT_UNIT+131
	DD	imagerel $unwind$_LZCNT_ALT_UNIT
pdata	ENDS
;	COMDAT pdata
pdata	SEGMENT
$pdata$_TZCNT_ALT_UNIT DD imagerel _TZCNT_ALT_UNIT
	DD	imagerel _TZCNT_ALT_UNIT+120
	DD	imagerel $unwind$_TZCNT_ALT_UNIT
pdata	ENDS
;	COMDAT pdata
pdata	SEGMENT
$pdata$GreatestCommonDivisor_Imp DD imagerel GreatestCommonDivisor_Imp
	DD	imagerel GreatestCommonDivisor_Imp+425
	DD	imagerel $unwind$GreatestCommonDivisor_Imp
pdata	ENDS
;	COMDAT pdata
pdata	SEGMENT
$pdata$PMC_GreatestCommonDivisor_X_I_Imp DD imagerel PMC_GreatestCommonDivisor_X_I_Imp
	DD	imagerel PMC_GreatestCommonDivisor_X_I_Imp+1024
	DD	imagerel $unwind$PMC_GreatestCommonDivisor_X_I_Imp
pdata	ENDS
;	COMDAT pdata
pdata	SEGMENT
$pdata$PMC_GreatestCommonDivisor_X_L_Imp DD imagerel PMC_GreatestCommonDivisor_X_L_Imp
	DD	imagerel PMC_GreatestCommonDivisor_X_L_Imp+2809
	DD	imagerel $unwind$PMC_GreatestCommonDivisor_X_L_Imp
pdata	ENDS
;	COMDAT rtc$TMZ
rtc$TMZ	SEGMENT
_RTC_Shutdown.rtc$TMZ DQ FLAT:_RTC_Shutdown
rtc$TMZ	ENDS
;	COMDAT rtc$IMZ
rtc$IMZ	SEGMENT
_RTC_InitBase.rtc$IMZ DQ FLAT:_RTC_InitBase
rtc$IMZ	ENDS
;	COMDAT xdata
xdata	SEGMENT
$unwind$PMC_GreatestCommonDivisor_X_L_Imp DD 035053401H
	DD	0118331dH
	DD	0701100ffH
	DD	05010H
xdata	ENDS
;	COMDAT CONST
CONST	SEGMENT
PMC_GreatestCommonDivisor_X_L_Imp$rtcName$0 DB 076H
	DB	05fH
	DB	068H
	DB	069H
	DB	00H
	ORG $+3
PMC_GreatestCommonDivisor_X_L_Imp$rtcName$1 DB 077H
	DB	06fH
	DB	072H
	DB	06bH
	DB	05fH
	DB	075H
	DB	05fH
	DB	062H
	DB	075H
	DB	066H
	DB	05fH
	DB	063H
	DB	06fH
	DB	064H
	DB	065H
	DB	00H
PMC_GreatestCommonDivisor_X_L_Imp$rtcName$2 DB 077H
	DB	06fH
	DB	072H
	DB	06bH
	DB	05fH
	DB	075H
	DB	05fH
	DB	062H
	DB	075H
	DB	066H
	DB	05fH
	DB	077H
	DB	06fH
	DB	072H
	DB	064H
	DB	073H
	DB	00H
	ORG $+7
PMC_GreatestCommonDivisor_X_L_Imp$rtcName$3 DB 077H
	DB	06fH
	DB	072H
	DB	06bH
	DB	05fH
	DB	076H
	DB	05fH
	DB	062H
	DB	075H
	DB	066H
	DB	05fH
	DB	063H
	DB	06fH
	DB	064H
	DB	065H
	DB	00H
PMC_GreatestCommonDivisor_X_L_Imp$rtcName$4 DB 077H
	DB	06fH
	DB	072H
	DB	06bH
	DB	05fH
	DB	076H
	DB	05fH
	DB	062H
	DB	075H
	DB	066H
	DB	05fH
	DB	077H
	DB	06fH
	DB	072H
	DB	064H
	DB	073H
	DB	00H
	ORG $+7
PMC_GreatestCommonDivisor_X_L_Imp$rtcName$5 DB 06eH
	DB	077H
	DB	05fH
	DB	063H
	DB	068H
	DB	065H
	DB	063H
	DB	06bH
	DB	05fH
	DB	063H
	DB	06fH
	DB	064H
	DB	065H
	DB	00H
	ORG $+2
PMC_GreatestCommonDivisor_X_L_Imp$rtcName$6 DB 077H
	DB	05fH
	DB	062H
	DB	075H
	DB	066H
	DB	05fH
	DB	063H
	DB	06fH
	DB	075H
	DB	06eH
	DB	074H
	DB	00H
	ORG $+4
PMC_GreatestCommonDivisor_X_L_Imp$rtcName$7 DB 077H
	DB	06fH
	DB	072H
	DB	06bH
	DB	05fH
	DB	075H
	DB	05fH
	DB	062H
	DB	075H
	DB	066H
	DB	05fH
	DB	063H
	DB	06fH
	DB	064H
	DB	065H
	DB	00H
PMC_GreatestCommonDivisor_X_L_Imp$rtcName$8 DB 077H
	DB	06fH
	DB	072H
	DB	06bH
	DB	05fH
	DB	075H
	DB	05fH
	DB	062H
	DB	075H
	DB	066H
	DB	05fH
	DB	077H
	DB	06fH
	DB	072H
	DB	064H
	DB	073H
	DB	00H
	ORG $+7
PMC_GreatestCommonDivisor_X_L_Imp$rtcName$9 DB 077H
	DB	06fH
	DB	072H
	DB	06bH
	DB	05fH
	DB	076H
	DB	05fH
	DB	062H
	DB	075H
	DB	066H
	DB	05fH
	DB	063H
	DB	06fH
	DB	064H
	DB	065H
	DB	00H
PMC_GreatestCommonDivisor_X_L_Imp$rtcName$10 DB 077H
	DB	06fH
	DB	072H
	DB	06bH
	DB	05fH
	DB	076H
	DB	05fH
	DB	062H
	DB	075H
	DB	066H
	DB	05fH
	DB	077H
	DB	06fH
	DB	072H
	DB	064H
	DB	073H
	DB	00H
	ORG $+7
PMC_GreatestCommonDivisor_X_L_Imp$rtcName$11 DB 06eH
	DB	077H
	DB	05fH
	DB	063H
	DB	068H
	DB	065H
	DB	063H
	DB	06bH
	DB	05fH
	DB	063H
	DB	06fH
	DB	064H
	DB	065H
	DB	00H
	ORG $+2
PMC_GreatestCommonDivisor_X_L_Imp$rtcName$12 DB 077H
	DB	05fH
	DB	062H
	DB	075H
	DB	066H
	DB	05fH
	DB	063H
	DB	06fH
	DB	075H
	DB	06eH
	DB	074H
	DB	00H
	ORG $+4
PMC_GreatestCommonDivisor_X_L_Imp$rtcName$13 DB 077H
	DB	06fH
	DB	072H
	DB	06bH
	DB	05fH
	DB	075H
	DB	05fH
	DB	062H
	DB	075H
	DB	066H
	DB	05fH
	DB	063H
	DB	06fH
	DB	064H
	DB	065H
	DB	00H
PMC_GreatestCommonDivisor_X_L_Imp$rtcName$14 DB 077H
	DB	06fH
	DB	072H
	DB	06bH
	DB	05fH
	DB	075H
	DB	05fH
	DB	062H
	DB	075H
	DB	066H
	DB	05fH
	DB	077H
	DB	06fH
	DB	072H
	DB	064H
	DB	073H
	DB	00H
	ORG $+7
PMC_GreatestCommonDivisor_X_L_Imp$rtcName$15 DB 077H
	DB	06fH
	DB	072H
	DB	06bH
	DB	05fH
	DB	076H
	DB	05fH
	DB	062H
	DB	075H
	DB	066H
	DB	05fH
	DB	063H
	DB	06fH
	DB	064H
	DB	065H
	DB	00H
PMC_GreatestCommonDivisor_X_L_Imp$rtcName$16 DB 077H
	DB	06fH
	DB	072H
	DB	06bH
	DB	05fH
	DB	076H
	DB	05fH
	DB	062H
	DB	075H
	DB	066H
	DB	05fH
	DB	077H
	DB	06fH
	DB	072H
	DB	064H
	DB	073H
	DB	00H
	ORG $+7
PMC_GreatestCommonDivisor_X_L_Imp$rtcName$17 DB 06eH
	DB	077H
	DB	05fH
	DB	063H
	DB	068H
	DB	065H
	DB	063H
	DB	06bH
	DB	05fH
	DB	063H
	DB	06fH
	DB	064H
	DB	065H
	DB	00H
	ORG $+2
PMC_GreatestCommonDivisor_X_L_Imp$rtcName$18 DB 077H
	DB	05fH
	DB	062H
	DB	075H
	DB	066H
	DB	05fH
	DB	063H
	DB	06fH
	DB	075H
	DB	06eH
	DB	074H
	DB	00H
	ORG $+12
PMC_GreatestCommonDivisor_X_L_Imp$rtcVarDesc DD 0598H
	DD	08H
	DQ	FLAT:PMC_GreatestCommonDivisor_X_L_Imp$rtcName$18
	DD	0518H
	DD	08H
	DQ	FLAT:PMC_GreatestCommonDivisor_X_L_Imp$rtcName$17
	DD	04d8H
	DD	08H
	DQ	FLAT:PMC_GreatestCommonDivisor_X_L_Imp$rtcName$16
	DD	04b8H
	DD	08H
	DQ	FLAT:PMC_GreatestCommonDivisor_X_L_Imp$rtcName$15
	DD	0478H
	DD	08H
	DQ	FLAT:PMC_GreatestCommonDivisor_X_L_Imp$rtcName$14
	DD	0458H
	DD	08H
	DQ	FLAT:PMC_GreatestCommonDivisor_X_L_Imp$rtcName$13
	DD	03d8H
	DD	08H
	DQ	FLAT:PMC_GreatestCommonDivisor_X_L_Imp$rtcName$12
	DD	0358H
	DD	08H
	DQ	FLAT:PMC_GreatestCommonDivisor_X_L_Imp$rtcName$11
	DD	0318H
	DD	08H
	DQ	FLAT:PMC_GreatestCommonDivisor_X_L_Imp$rtcName$10
	DD	02f8H
	DD	08H
	DQ	FLAT:PMC_GreatestCommonDivisor_X_L_Imp$rtcName$9
	DD	02b8H
	DD	08H
	DQ	FLAT:PMC_GreatestCommonDivisor_X_L_Imp$rtcName$8
	DD	0298H
	DD	08H
	DQ	FLAT:PMC_GreatestCommonDivisor_X_L_Imp$rtcName$7
	DD	0238H
	DD	08H
	DQ	FLAT:PMC_GreatestCommonDivisor_X_L_Imp$rtcName$6
	DD	01b8H
	DD	08H
	DQ	FLAT:PMC_GreatestCommonDivisor_X_L_Imp$rtcName$5
	DD	0178H
	DD	08H
	DQ	FLAT:PMC_GreatestCommonDivisor_X_L_Imp$rtcName$4
	DD	0158H
	DD	08H
	DQ	FLAT:PMC_GreatestCommonDivisor_X_L_Imp$rtcName$3
	DD	0118H
	DD	08H
	DQ	FLAT:PMC_GreatestCommonDivisor_X_L_Imp$rtcName$2
	DD	0f8H
	DD	08H
	DQ	FLAT:PMC_GreatestCommonDivisor_X_L_Imp$rtcName$1
	DD	074H
	DD	04H
	DQ	FLAT:PMC_GreatestCommonDivisor_X_L_Imp$rtcName$0
	ORG $+912
PMC_GreatestCommonDivisor_X_L_Imp$rtcFrameData DD 013H
	DD	00H
	DQ	FLAT:PMC_GreatestCommonDivisor_X_L_Imp$rtcVarDesc
CONST	ENDS
;	COMDAT xdata
xdata	SEGMENT
$unwind$PMC_GreatestCommonDivisor_X_I_Imp DD 035053301H
	DD	0117331cH
	DD	07010005bH
	DD	0500fH
xdata	ENDS
;	COMDAT CONST
CONST	SEGMENT
PMC_GreatestCommonDivisor_X_I_Imp$rtcName$0 DB 077H
	DB	06fH
	DB	072H
	DB	06bH
	DB	05fH
	DB	075H
	DB	05fH
	DB	062H
	DB	075H
	DB	066H
	DB	05fH
	DB	063H
	DB	06fH
	DB	064H
	DB	065H
	DB	00H
PMC_GreatestCommonDivisor_X_I_Imp$rtcName$1 DB 077H
	DB	06fH
	DB	072H
	DB	06bH
	DB	05fH
	DB	075H
	DB	05fH
	DB	062H
	DB	075H
	DB	066H
	DB	05fH
	DB	077H
	DB	06fH
	DB	072H
	DB	064H
	DB	073H
	DB	00H
	ORG $+7
PMC_GreatestCommonDivisor_X_I_Imp$rtcName$2 DB 077H
	DB	06fH
	DB	072H
	DB	06bH
	DB	05fH
	DB	076H
	DB	05fH
	DB	062H
	DB	075H
	DB	066H
	DB	05fH
	DB	063H
	DB	06fH
	DB	064H
	DB	065H
	DB	00H
PMC_GreatestCommonDivisor_X_I_Imp$rtcName$3 DB 077H
	DB	06fH
	DB	072H
	DB	06bH
	DB	05fH
	DB	076H
	DB	05fH
	DB	062H
	DB	075H
	DB	066H
	DB	05fH
	DB	077H
	DB	06fH
	DB	072H
	DB	064H
	DB	073H
	DB	00H
	ORG $+7
PMC_GreatestCommonDivisor_X_I_Imp$rtcName$4 DB 06eH
	DB	077H
	DB	05fH
	DB	063H
	DB	068H
	DB	065H
	DB	063H
	DB	06bH
	DB	05fH
	DB	063H
	DB	06fH
	DB	064H
	DB	065H
	DB	00H
	ORG $+2
PMC_GreatestCommonDivisor_X_I_Imp$rtcName$5 DB 077H
	DB	05fH
	DB	062H
	DB	075H
	DB	066H
	DB	05fH
	DB	063H
	DB	06fH
	DB	075H
	DB	06eH
	DB	074H
	DB	00H
	ORG $+4
PMC_GreatestCommonDivisor_X_I_Imp$rtcVarDesc DD 01f8H
	DD	08H
	DQ	FLAT:PMC_GreatestCommonDivisor_X_I_Imp$rtcName$5
	DD	0178H
	DD	08H
	DQ	FLAT:PMC_GreatestCommonDivisor_X_I_Imp$rtcName$4
	DD	0138H
	DD	08H
	DQ	FLAT:PMC_GreatestCommonDivisor_X_I_Imp$rtcName$3
	DD	0118H
	DD	08H
	DQ	FLAT:PMC_GreatestCommonDivisor_X_I_Imp$rtcName$2
	DD	0d8H
	DD	08H
	DQ	FLAT:PMC_GreatestCommonDivisor_X_I_Imp$rtcName$1
	DD	0b8H
	DD	08H
	DQ	FLAT:PMC_GreatestCommonDivisor_X_I_Imp$rtcName$0
	ORG $+288
PMC_GreatestCommonDivisor_X_I_Imp$rtcFrameData DD 06H
	DD	00H
	DQ	FLAT:PMC_GreatestCommonDivisor_X_I_Imp$rtcVarDesc
CONST	ENDS
;	COMDAT xdata
xdata	SEGMENT
$unwind$GreatestCommonDivisor_Imp DD 035053901H
	DD	011d3322H
	DD	07016002fH
	DD	05015H
xdata	ENDS
;	COMDAT xdata
xdata	SEGMENT
$unwind$_TZCNT_ALT_UNIT DD 025052a01H
	DD	010e2313H
	DD	070070021H
	DD	05006H
xdata	ENDS
;	COMDAT CONST
CONST	SEGMENT
_TZCNT_ALT_UNIT$rtcName$0 DB 070H
	DB	06fH
	DB	073H
	DB	00H
	ORG $+12
_TZCNT_ALT_UNIT$rtcVarDesc DD 024H
	DD	04H
	DQ	FLAT:_TZCNT_ALT_UNIT$rtcName$0
	ORG $+48
_TZCNT_ALT_UNIT$rtcFrameData DD 01H
	DD	00H
	DQ	FLAT:_TZCNT_ALT_UNIT$rtcVarDesc
CONST	ENDS
;	COMDAT xdata
xdata	SEGMENT
$unwind$_LZCNT_ALT_UNIT DD 025052a01H
	DD	010e2313H
	DD	070070021H
	DD	05006H
xdata	ENDS
;	COMDAT CONST
CONST	SEGMENT
_LZCNT_ALT_UNIT$rtcName$0 DB 070H
	DB	06fH
	DB	073H
	DB	00H
	ORG $+12
_LZCNT_ALT_UNIT$rtcVarDesc DD 024H
	DD	04H
	DQ	FLAT:_LZCNT_ALT_UNIT$rtcName$0
	ORG $+48
_LZCNT_ALT_UNIT$rtcFrameData DD 01H
	DD	00H
	DQ	FLAT:_LZCNT_ALT_UNIT$rtcVarDesc
CONST	ENDS
;	COMDAT xdata
xdata	SEGMENT
$unwind$_LZCNT_ALT_32 DD 025052801H
	DD	010d2312H
	DD	070060021H
	DD	05005H
xdata	ENDS
;	COMDAT CONST
CONST	SEGMENT
_LZCNT_ALT_32$rtcName$0 DB 070H
	DB	06fH
	DB	073H
	DB	00H
	ORG $+12
_LZCNT_ALT_32$rtcVarDesc DD 024H
	DD	04H
	DQ	FLAT:_LZCNT_ALT_32$rtcName$0
	ORG $+48
_LZCNT_ALT_32$rtcFrameData DD 01H
	DD	00H
	DQ	FLAT:_LZCNT_ALT_32$rtcVarDesc
CONST	ENDS
;	COMDAT xdata
xdata	SEGMENT
$unwind$_MINIMUM_UNIT DD 025052f01H
	DD	01132318H
	DD	0700c001fH
	DD	0500bH
xdata	ENDS
;	COMDAT xdata
xdata	SEGMENT
$unwind$_MAXIMUM_UNIT DD 025052f01H
	DD	01132318H
	DD	0700c001fH
	DD	0500bH
xdata	ENDS
;	COMDAT xdata
xdata	SEGMENT
$unwind$_DIVIDE_CEILING_UNIT DD 025052f01H
	DD	01132318H
	DD	0700c001dH
	DD	0500bH
xdata	ENDS
;	COMDAT xdata
xdata	SEGMENT
$unwind$_FROMDWORDTOWORD DD 025052f01H
	DD	01132318H
	DD	0700c001dH
	DD	0500bH
xdata	ENDS
;	COMDAT xdata
xdata	SEGMENT
$unwind$_COPY_MEMORY_UNIT DD 025063501H
	DD	0119231eH
	DD	07012001cH
	DD	050106011H
xdata	ENDS
;	COMDAT xdata
xdata	SEGMENT
$unwind$PMC_GreatestCommonDivisor_X_X DD 035053401H
	DD	0118331dH
	DD	07011007fH
	DD	05010H
xdata	ENDS
;	COMDAT CONST
CONST	SEGMENT
PMC_GreatestCommonDivisor_X_X$rtcName$0 DB 06eH
	DB	077H
	DB	00H
	ORG $+5
PMC_GreatestCommonDivisor_X_X$rtcName$1 DB 077H
	DB	06fH
	DB	072H
	DB	06bH
	DB	05fH
	DB	075H
	DB	05fH
	DB	062H
	DB	075H
	DB	066H
	DB	05fH
	DB	063H
	DB	06fH
	DB	064H
	DB	065H
	DB	00H
PMC_GreatestCommonDivisor_X_X$rtcName$2 DB 077H
	DB	06fH
	DB	072H
	DB	06bH
	DB	05fH
	DB	075H
	DB	05fH
	DB	062H
	DB	075H
	DB	066H
	DB	05fH
	DB	077H
	DB	06fH
	DB	072H
	DB	064H
	DB	073H
	DB	00H
	ORG $+7
PMC_GreatestCommonDivisor_X_X$rtcName$3 DB 077H
	DB	06fH
	DB	072H
	DB	06bH
	DB	05fH
	DB	076H
	DB	05fH
	DB	062H
	DB	075H
	DB	066H
	DB	05fH
	DB	063H
	DB	06fH
	DB	064H
	DB	065H
	DB	00H
PMC_GreatestCommonDivisor_X_X$rtcName$4 DB 077H
	DB	06fH
	DB	072H
	DB	06bH
	DB	05fH
	DB	076H
	DB	05fH
	DB	062H
	DB	075H
	DB	066H
	DB	05fH
	DB	077H
	DB	06fH
	DB	072H
	DB	064H
	DB	073H
	DB	00H
	ORG $+7
PMC_GreatestCommonDivisor_X_X$rtcName$5 DB 06eH
	DB	077H
	DB	05fH
	DB	063H
	DB	068H
	DB	065H
	DB	063H
	DB	06bH
	DB	05fH
	DB	063H
	DB	06fH
	DB	064H
	DB	065H
	DB	00H
	ORG $+2
PMC_GreatestCommonDivisor_X_X$rtcName$6 DB 077H
	DB	05fH
	DB	062H
	DB	075H
	DB	066H
	DB	05fH
	DB	063H
	DB	06fH
	DB	075H
	DB	06eH
	DB	074H
	DB	00H
	ORG $+12
PMC_GreatestCommonDivisor_X_X$rtcVarDesc DD 0258H
	DD	08H
	DQ	FLAT:PMC_GreatestCommonDivisor_X_X$rtcName$6
	DD	01d8H
	DD	08H
	DQ	FLAT:PMC_GreatestCommonDivisor_X_X$rtcName$5
	DD	0198H
	DD	08H
	DQ	FLAT:PMC_GreatestCommonDivisor_X_X$rtcName$4
	DD	0178H
	DD	08H
	DQ	FLAT:PMC_GreatestCommonDivisor_X_X$rtcName$3
	DD	0138H
	DD	08H
	DQ	FLAT:PMC_GreatestCommonDivisor_X_X$rtcName$2
	DD	0118H
	DD	08H
	DQ	FLAT:PMC_GreatestCommonDivisor_X_X$rtcName$1
	DD	098H
	DD	08H
	DQ	FLAT:PMC_GreatestCommonDivisor_X_X$rtcName$0
	ORG $+336
PMC_GreatestCommonDivisor_X_X$rtcFrameData DD 07H
	DD	00H
	DQ	FLAT:PMC_GreatestCommonDivisor_X_X$rtcVarDesc
CONST	ENDS
;	COMDAT xdata
xdata	SEGMENT
$unwind$PMC_GreatestCommonDivisor_X_L DD 025053401H
	DD	0118231dH
	DD	070110021H
	DD	05010H
xdata	ENDS
;	COMDAT xdata
xdata	SEGMENT
$unwind$PMC_GreatestCommonDivisor_X_I DD 025053301H
	DD	0117231cH
	DD	070100021H
	DD	0500fH
xdata	ENDS
;	COMDAT xdata
xdata	SEGMENT
$unwind$PMC_GreatestCommonDivisor_L_X DD 025053401H
	DD	0118231dH
	DD	070110021H
	DD	05010H
xdata	ENDS
;	COMDAT xdata
xdata	SEGMENT
$unwind$PMC_GreatestCommonDivisor_I_X DD 025053201H
	DD	0117231cH
	DD	070100021H
	DD	0500fH
xdata	ENDS
;	COMDAT xdata
xdata	SEGMENT
$unwind$Initialize_GreatestCommonDivisor DD 025052a01H
	DD	010e2313H
	DD	07007001dH
	DD	05006H
xdata	ENDS
; Function compile flags: /Odt
;	COMDAT __JustMyCode_Default
_TEXT	SEGMENT
__JustMyCode_Default PROC				; COMDAT
	ret	0
__JustMyCode_Default ENDP
_TEXT	ENDS
; Function compile flags: /Odtp /RTCsu /ZI
; File z:\sources\lunor\repos\rougemeilland\palmtree.math.core.uint\palmtree.math.core.uint\pmc_greatestcommondivisor.c
;	COMDAT PMC_GreatestCommonDivisor_X_L_Imp
_TEXT	SEGMENT
result$ = 4
u_bit_count$22 = 40
v_hi$23 = 68
v_lo$24 = 100
v_bit_count$25 = 136
work_bit_count$26 = 168
work_u_buf_code$27 = 200
work_u_buf_words$28 = 232
work_u_buf$29 = 264
work_v_buf_code$30 = 296
work_v_buf_words$31 = 328
work_v_buf$32 = 360
nw_check_code$33 = 392
u_tzcnt$34 = 424
v_tzcnt$35 = 456
k$36 = 488
w_buf_count$37 = 520
v_bit_count$38 = 552
work_bit_count$39 = 584
work_u_buf_code$40 = 616
work_u_buf_words$41 = 648
work_u_buf$42 = 680
work_v_buf_code$43 = 712
work_v_buf_words$44 = 744
work_v_buf$45 = 776
nw_check_code$46 = 808
u_tzcnt$47 = 840
v_tzcnt$48 = 872
k$49 = 904
w_buf_count$50 = 936
u_bit_count$51 = 968
v_bit_count$52 = 1000
work_bit_count$53 = 1032
work_u_buf_code$54 = 1064
work_u_buf_words$55 = 1096
work_u_buf$56 = 1128
work_v_buf_code$57 = 1160
work_v_buf_words$58 = 1192
work_v_buf$59 = 1224
nw_check_code$60 = 1256
u_tzcnt$61 = 1288
v_tzcnt$62 = 1320
k$63 = 1352
w_buf_count$64 = 1384
tv245 = 1972
tv452 = 1976
tv447 = 1976
tv442 = 1976
u$ = 2016
v$ = 2024
w$ = 2032
PMC_GreatestCommonDivisor_X_L_Imp PROC			; COMDAT

; 222  : {

	mov	QWORD PTR [rsp+24], r8
	mov	QWORD PTR [rsp+16], rdx
	mov	QWORD PTR [rsp+8], rcx
	push	rbp
	push	rdi
	sub	rsp, 2040				; 000007f8H
	lea	rbp, QWORD PTR [rsp+48]
	mov	rdi, rsp
	mov	ecx, 510				; 000001feH
	mov	eax, -858993460				; ccccccccH
	rep stosd
	mov	rcx, QWORD PTR [rsp+2072]
	lea	rcx, OFFSET FLAT:__3257AA0B_pmc_greatestcommondivisor@c
	call	__CheckForDebuggerJustMyCode

; 223  :     PMC_STATUS_CODE result;
; 224  :     if (u->IS_ZERO)

	mov	rax, QWORD PTR u$[rbp]
	mov	eax, DWORD PTR [rax+40]
	shr	eax, 1
	and	eax, 1
	test	eax, eax
	je	SHORT $LN2@PMC_Greate

; 225  :     {
; 226  :         // u が 0 である場合
; 227  : 
; 228  :         if (v == 0)

	cmp	QWORD PTR v$[rbp], 0
	jne	SHORT $LN4@PMC_Greate

; 229  :         {
; 230  :             // v が 0 である場合
; 231  : 
; 232  :             // u と v がともに 0 であり、GCD は一意に存在しないため、エラーを返す。
; 233  :             return (PMC_STATUS_ARGUMENT_ERROR);

	mov	eax, -1
	jmp	$LN1@PMC_Greate

; 234  :         }

	jmp	SHORT $LN5@PMC_Greate
$LN4@PMC_Greate:

; 235  :         else
; 236  :         {
; 237  :             // v が 0 ではない場合
; 238  : 
; 239  :             // GCD は v そのものであるため、v を計算結果として返す。
; 240  :             if ((result = From_L_Imp(v, w)) != PMC_STATUS_OK)

	mov	rdx, QWORD PTR w$[rbp]
	mov	rcx, QWORD PTR v$[rbp]
	call	From_L_Imp
	mov	DWORD PTR result$[rbp], eax
	cmp	DWORD PTR result$[rbp], 0
	je	SHORT $LN6@PMC_Greate

; 241  :                 return (result);

	mov	eax, DWORD PTR result$[rbp]
	jmp	$LN1@PMC_Greate
$LN6@PMC_Greate:
$LN5@PMC_Greate:

; 242  :         }
; 243  :     }

	jmp	$LN3@PMC_Greate
$LN2@PMC_Greate:

; 244  :     else
; 245  :     {
; 246  :         // u が 0 ではない場合
; 247  : 
; 248  :         if (v == 0)

	cmp	QWORD PTR v$[rbp], 0
	jne	SHORT $LN7@PMC_Greate

; 249  :         {
; 250  :             // v が 0 である場合
; 251  : 
; 252  :             // GCD は u そのものであるため、u を計算結果として返す。
; 253  :             if ((result = DuplicateNumber(u, w)) != PMC_STATUS_OK)

	mov	rdx, QWORD PTR w$[rbp]
	mov	rcx, QWORD PTR u$[rbp]
	call	DuplicateNumber
	mov	DWORD PTR result$[rbp], eax
	cmp	DWORD PTR result$[rbp], 0
	je	SHORT $LN9@PMC_Greate

; 254  :                 return (result);

	mov	eax, DWORD PTR result$[rbp]
	jmp	$LN1@PMC_Greate
$LN9@PMC_Greate:

; 255  :         }

	jmp	$LN8@PMC_Greate
$LN7@PMC_Greate:

; 256  :         else
; 257  :         {
; 258  :             // u と v がともに 0 ではない場合
; 259  : 
; 260  :             // u と v の GCD を計算する
; 261  :             if (__UNIT_TYPE_BIT_COUNT < sizeof(v) * 8)

	xor	eax, eax
	test	eax, eax
	je	$LN10@PMC_Greate

; 262  :             {
; 263  :                 // _UINT64_T が 1 ワードで表現しきれない場合
; 264  : 
; 265  :                 __UNIT_TYPE u_bit_count = u->UNIT_BIT_COUNT;

	mov	rax, QWORD PTR u$[rbp]
	mov	rax, QWORD PTR [rax+16]
	mov	QWORD PTR u_bit_count$22[rbp], rax

; 266  :                 _UINT32_T v_hi;
; 267  :                 _UINT32_T v_lo = _FROMDWORDTOWORD(v, &v_hi);

	lea	rdx, QWORD PTR v_hi$23[rbp]
	mov	rcx, QWORD PTR v$[rbp]
	call	_FROMDWORDTOWORD
	mov	DWORD PTR v_lo$24[rbp], eax

; 268  :                 if (v_hi == 0)

	cmp	DWORD PTR v_hi$23[rbp], 0
	jne	$LN12@PMC_Greate

; 269  :                 {
; 270  :                     // v の値が 32bit で表現可能な場合
; 271  :                     __UNIT_TYPE v_bit_count = sizeof(v_lo) * 8 - _LZCNT_ALT_32(v_lo);

	mov	ecx, DWORD PTR v_lo$24[rbp]
	call	_LZCNT_ALT_32
	cdqe
	mov	ecx, 32					; 00000020H
	sub	rcx, rax
	mov	rax, rcx
	mov	QWORD PTR v_bit_count$25[rbp], rax

; 272  :                     __UNIT_TYPE work_bit_count = _MAXIMUM_UNIT(u_bit_count, v_bit_count);

	mov	rdx, QWORD PTR v_bit_count$25[rbp]
	mov	rcx, QWORD PTR u_bit_count$22[rbp]
	call	_MAXIMUM_UNIT
	mov	QWORD PTR work_bit_count$26[rbp], rax

; 273  : 
; 274  :                     __UNIT_TYPE work_u_buf_code;
; 275  :                     __UNIT_TYPE work_u_buf_words;
; 276  :                     __UNIT_TYPE* work_u_buf = AllocateBlock(work_bit_count, &work_u_buf_words, &work_u_buf_code);

	lea	r8, QWORD PTR work_u_buf_code$27[rbp]
	lea	rdx, QWORD PTR work_u_buf_words$28[rbp]
	mov	rcx, QWORD PTR work_bit_count$26[rbp]
	call	AllocateBlock
	mov	QWORD PTR work_u_buf$29[rbp], rax

; 277  :                     if (work_u_buf == NULL)

	cmp	QWORD PTR work_u_buf$29[rbp], 0
	jne	SHORT $LN14@PMC_Greate

; 278  :                         return (PMC_STATUS_NOT_ENOUGH_MEMORY);

	mov	eax, -5
	jmp	$LN1@PMC_Greate
$LN14@PMC_Greate:

; 279  : 
; 280  :                     __UNIT_TYPE work_v_buf_code;
; 281  :                     __UNIT_TYPE work_v_buf_words;
; 282  :                     __UNIT_TYPE* work_v_buf = AllocateBlock(work_bit_count, &work_v_buf_words, &work_v_buf_code);

	lea	r8, QWORD PTR work_v_buf_code$30[rbp]
	lea	rdx, QWORD PTR work_v_buf_words$31[rbp]
	mov	rcx, QWORD PTR work_bit_count$26[rbp]
	call	AllocateBlock
	mov	QWORD PTR work_v_buf$32[rbp], rax

; 283  :                     if (work_v_buf == NULL)

	cmp	QWORD PTR work_v_buf$32[rbp], 0
	jne	SHORT $LN15@PMC_Greate

; 284  :                     {
; 285  :                         DeallocateBlock(work_u_buf, work_u_buf_words);

	mov	rdx, QWORD PTR work_u_buf_words$28[rbp]
	mov	rcx, QWORD PTR work_u_buf$29[rbp]
	call	DeallocateBlock

; 286  :                         return (PMC_STATUS_NOT_ENOUGH_MEMORY);

	mov	eax, -5
	jmp	$LN1@PMC_Greate
$LN15@PMC_Greate:

; 287  :                     }
; 288  : 
; 289  :                     __UNIT_TYPE nw_check_code;
; 290  :                     if ((result = AllocateNumber(w, work_bit_count, &nw_check_code)) != PMC_STATUS_OK)

	lea	r8, QWORD PTR nw_check_code$33[rbp]
	mov	rdx, QWORD PTR work_bit_count$26[rbp]
	mov	rcx, QWORD PTR w$[rbp]
	call	AllocateNumber
	mov	DWORD PTR result$[rbp], eax
	cmp	DWORD PTR result$[rbp], 0
	je	SHORT $LN16@PMC_Greate

; 291  :                     {
; 292  :                         DeallocateBlock(work_v_buf, work_v_buf_words);

	mov	rdx, QWORD PTR work_v_buf_words$31[rbp]
	mov	rcx, QWORD PTR work_v_buf$32[rbp]
	call	DeallocateBlock

; 293  :                         DeallocateBlock(work_u_buf, work_u_buf_words);

	mov	rdx, QWORD PTR work_u_buf_words$28[rbp]
	mov	rcx, QWORD PTR work_u_buf$29[rbp]
	call	DeallocateBlock

; 294  :                         return (result);

	mov	eax, DWORD PTR result$[rbp]
	jmp	$LN1@PMC_Greate
$LN16@PMC_Greate:

; 295  :                     }
; 296  : 
; 297  :                     __UNIT_TYPE u_tzcnt = u->TRAILING_ZERO_BITS_COUNT;

	mov	rax, QWORD PTR u$[rbp]
	mov	rax, QWORD PTR [rax+32]
	mov	QWORD PTR u_tzcnt$34[rbp], rax

; 298  :                     __UNIT_TYPE v_tzcnt = _TZCNT_ALT_UNIT(v_lo);

	mov	eax, DWORD PTR v_lo$24[rbp]
	mov	ecx, eax
	call	_TZCNT_ALT_UNIT
	cdqe
	mov	QWORD PTR v_tzcnt$35[rbp], rax

; 299  :                     __UNIT_TYPE k = _MINIMUM_UNIT(u_tzcnt, v_tzcnt);

	mov	rdx, QWORD PTR v_tzcnt$35[rbp]
	mov	rcx, QWORD PTR u_tzcnt$34[rbp]
	call	_MINIMUM_UNIT
	mov	QWORD PTR k$36[rbp], rax

; 300  :                     if (u_tzcnt > 0)

	cmp	QWORD PTR u_tzcnt$34[rbp], 0
	jbe	SHORT $LN17@PMC_Greate

; 301  :                         RightShift_Imp(u->BLOCK, u->UNIT_WORD_COUNT, u_tzcnt, work_u_buf, FALSE);

	mov	DWORD PTR [rsp+32], 0
	mov	r9, QWORD PTR work_u_buf$29[rbp]
	mov	r8, QWORD PTR u_tzcnt$34[rbp]
	mov	rax, QWORD PTR u$[rbp]
	mov	rdx, QWORD PTR [rax+8]
	mov	rax, QWORD PTR u$[rbp]
	mov	rcx, QWORD PTR [rax+56]
	call	RightShift_Imp
	jmp	SHORT $LN18@PMC_Greate
$LN17@PMC_Greate:

; 302  :                     else
; 303  :                         _COPY_MEMORY_UNIT(work_u_buf, u->BLOCK, u->UNIT_WORD_COUNT);

	mov	rax, QWORD PTR u$[rbp]
	mov	r8, QWORD PTR [rax+8]
	mov	rax, QWORD PTR u$[rbp]
	mov	rdx, QWORD PTR [rax+56]
	mov	rcx, QWORD PTR work_u_buf$29[rbp]
	call	_COPY_MEMORY_UNIT
$LN18@PMC_Greate:

; 304  :                     work_v_buf[0] = v_lo >> v_tzcnt;

	mov	rax, QWORD PTR v_tzcnt$35[rbp]
	movzx	ecx, al
	mov	eax, DWORD PTR v_lo$24[rbp]
	shr	eax, cl
	mov	ecx, 8
	imul	rcx, rcx, 0
	mov	eax, eax
	mov	rdx, QWORD PTR work_v_buf$32[rbp]
	mov	QWORD PTR [rdx+rcx], rax

; 305  : 
; 306  :                     __UNIT_TYPE w_buf_count;
; 307  :                     GreatestCommonDivisor_Imp(work_u_buf, work_v_buf, _DIVIDE_CEILING_UNIT(work_bit_count, __UNIT_TYPE_BIT_COUNT), (*w)->BLOCK, &w_buf_count);

	mov	rax, QWORD PTR w$[rbp]
	mov	rax, QWORD PTR [rax]
	mov	QWORD PTR tv452[rbp], rax
	mov	edx, 64					; 00000040H
	mov	rcx, QWORD PTR work_bit_count$26[rbp]
	call	_DIVIDE_CEILING_UNIT
	lea	rcx, QWORD PTR w_buf_count$37[rbp]
	mov	QWORD PTR [rsp+32], rcx
	mov	rcx, QWORD PTR tv452[rbp]
	mov	r9, QWORD PTR [rcx+56]
	mov	r8, rax
	mov	rdx, QWORD PTR work_v_buf$32[rbp]
	mov	rcx, QWORD PTR work_u_buf$29[rbp]
	call	GreatestCommonDivisor_Imp

; 308  :                     if ((result = CheckBlockLight(work_u_buf, work_u_buf_code)) != PMC_STATUS_OK)

	mov	rdx, QWORD PTR work_u_buf_code$27[rbp]
	mov	rcx, QWORD PTR work_u_buf$29[rbp]
	call	CheckBlockLight
	mov	DWORD PTR result$[rbp], eax
	cmp	DWORD PTR result$[rbp], 0
	je	SHORT $LN19@PMC_Greate

; 309  :                         return (result);

	mov	eax, DWORD PTR result$[rbp]
	jmp	$LN1@PMC_Greate
$LN19@PMC_Greate:

; 310  :                     if ((result = CheckBlockLight(work_v_buf, work_v_buf_code)) != PMC_STATUS_OK)

	mov	rdx, QWORD PTR work_v_buf_code$30[rbp]
	mov	rcx, QWORD PTR work_v_buf$32[rbp]
	call	CheckBlockLight
	mov	DWORD PTR result$[rbp], eax
	cmp	DWORD PTR result$[rbp], 0
	je	SHORT $LN20@PMC_Greate

; 311  :                         return (result);

	mov	eax, DWORD PTR result$[rbp]
	jmp	$LN1@PMC_Greate
$LN20@PMC_Greate:

; 312  :                     if ((result = CheckBlockLight((*w)->BLOCK, nw_check_code)) != PMC_STATUS_OK)

	mov	rax, QWORD PTR w$[rbp]
	mov	rax, QWORD PTR [rax]
	mov	rdx, QWORD PTR nw_check_code$33[rbp]
	mov	rcx, QWORD PTR [rax+56]
	call	CheckBlockLight
	mov	DWORD PTR result$[rbp], eax
	cmp	DWORD PTR result$[rbp], 0
	je	SHORT $LN21@PMC_Greate

; 313  :                         return (result);

	mov	eax, DWORD PTR result$[rbp]
	jmp	$LN1@PMC_Greate
$LN21@PMC_Greate:

; 314  :                     DeallocateBlock(work_v_buf, work_v_buf_words);

	mov	rdx, QWORD PTR work_v_buf_words$31[rbp]
	mov	rcx, QWORD PTR work_v_buf$32[rbp]
	call	DeallocateBlock

; 315  :                     DeallocateBlock(work_u_buf, work_u_buf_words);

	mov	rdx, QWORD PTR work_u_buf_words$28[rbp]
	mov	rcx, QWORD PTR work_u_buf$29[rbp]
	call	DeallocateBlock

; 316  : 
; 317  :                     LeftShift_Imp((*w)->BLOCK, w_buf_count, k, (*w)->BLOCK, TRUE);

	mov	rax, QWORD PTR w$[rbp]
	mov	rax, QWORD PTR [rax]
	mov	rcx, QWORD PTR w$[rbp]
	mov	rcx, QWORD PTR [rcx]
	mov	DWORD PTR [rsp+32], 1
	mov	r9, QWORD PTR [rax+56]
	mov	r8, QWORD PTR k$36[rbp]
	mov	rdx, QWORD PTR w_buf_count$37[rbp]
	mov	rcx, QWORD PTR [rcx+56]
	call	LeftShift_Imp

; 318  :                     if ((result = CheckBlockLight((*w)->BLOCK, nw_check_code)) != PMC_STATUS_OK)

	mov	rax, QWORD PTR w$[rbp]
	mov	rax, QWORD PTR [rax]
	mov	rdx, QWORD PTR nw_check_code$33[rbp]
	mov	rcx, QWORD PTR [rax+56]
	call	CheckBlockLight
	mov	DWORD PTR result$[rbp], eax
	cmp	DWORD PTR result$[rbp], 0
	je	SHORT $LN22@PMC_Greate

; 319  :                         return (result);

	mov	eax, DWORD PTR result$[rbp]
	jmp	$LN1@PMC_Greate
$LN22@PMC_Greate:

; 320  :                     CommitNumber(*w);

	mov	rax, QWORD PTR w$[rbp]
	mov	rcx, QWORD PTR [rax]
	call	CommitNumber

; 321  :                 }

	jmp	$LN13@PMC_Greate
$LN12@PMC_Greate:

; 322  :                 else
; 323  :                 {
; 324  :                     // y の値が 32bit では表現できない場合
; 325  :                     __UNIT_TYPE v_bit_count = sizeof(v) * 8 - _LZCNT_ALT_32(v_hi);

	mov	ecx, DWORD PTR v_hi$23[rbp]
	call	_LZCNT_ALT_32
	cdqe
	mov	ecx, 64					; 00000040H
	sub	rcx, rax
	mov	rax, rcx
	mov	QWORD PTR v_bit_count$38[rbp], rax

; 326  :                     __UNIT_TYPE work_bit_count = _MAXIMUM_UNIT(u_bit_count, v_bit_count);

	mov	rdx, QWORD PTR v_bit_count$38[rbp]
	mov	rcx, QWORD PTR u_bit_count$22[rbp]
	call	_MAXIMUM_UNIT
	mov	QWORD PTR work_bit_count$39[rbp], rax

; 327  : 
; 328  :                     __UNIT_TYPE work_u_buf_code;
; 329  :                     __UNIT_TYPE work_u_buf_words;
; 330  :                     __UNIT_TYPE* work_u_buf = AllocateBlock(work_bit_count, &work_u_buf_words, &work_u_buf_code);

	lea	r8, QWORD PTR work_u_buf_code$40[rbp]
	lea	rdx, QWORD PTR work_u_buf_words$41[rbp]
	mov	rcx, QWORD PTR work_bit_count$39[rbp]
	call	AllocateBlock
	mov	QWORD PTR work_u_buf$42[rbp], rax

; 331  :                     if (work_u_buf == NULL)

	cmp	QWORD PTR work_u_buf$42[rbp], 0
	jne	SHORT $LN23@PMC_Greate

; 332  :                         return (PMC_STATUS_NOT_ENOUGH_MEMORY);

	mov	eax, -5
	jmp	$LN1@PMC_Greate
$LN23@PMC_Greate:

; 333  : 
; 334  :                     __UNIT_TYPE work_v_buf_code;
; 335  :                     __UNIT_TYPE work_v_buf_words;
; 336  :                     __UNIT_TYPE* work_v_buf = AllocateBlock(work_bit_count, &work_v_buf_words, &work_v_buf_code);

	lea	r8, QWORD PTR work_v_buf_code$43[rbp]
	lea	rdx, QWORD PTR work_v_buf_words$44[rbp]
	mov	rcx, QWORD PTR work_bit_count$39[rbp]
	call	AllocateBlock
	mov	QWORD PTR work_v_buf$45[rbp], rax

; 337  :                     if (work_v_buf == NULL)

	cmp	QWORD PTR work_v_buf$45[rbp], 0
	jne	SHORT $LN24@PMC_Greate

; 338  :                     {
; 339  :                         DeallocateBlock(work_u_buf, work_u_buf_words);

	mov	rdx, QWORD PTR work_u_buf_words$41[rbp]
	mov	rcx, QWORD PTR work_u_buf$42[rbp]
	call	DeallocateBlock

; 340  :                         return (PMC_STATUS_NOT_ENOUGH_MEMORY);

	mov	eax, -5
	jmp	$LN1@PMC_Greate
$LN24@PMC_Greate:

; 341  :                     }
; 342  : 
; 343  :                     __UNIT_TYPE nw_check_code;
; 344  :                     if ((result = AllocateNumber(w, work_bit_count, &nw_check_code)) != PMC_STATUS_OK)

	lea	r8, QWORD PTR nw_check_code$46[rbp]
	mov	rdx, QWORD PTR work_bit_count$39[rbp]
	mov	rcx, QWORD PTR w$[rbp]
	call	AllocateNumber
	mov	DWORD PTR result$[rbp], eax
	cmp	DWORD PTR result$[rbp], 0
	je	SHORT $LN25@PMC_Greate

; 345  :                     {
; 346  :                         DeallocateBlock(work_v_buf, work_v_buf_words);

	mov	rdx, QWORD PTR work_v_buf_words$44[rbp]
	mov	rcx, QWORD PTR work_v_buf$45[rbp]
	call	DeallocateBlock

; 347  :                         DeallocateBlock(work_u_buf, work_u_buf_words);

	mov	rdx, QWORD PTR work_u_buf_words$41[rbp]
	mov	rcx, QWORD PTR work_u_buf$42[rbp]
	call	DeallocateBlock

; 348  :                         return (result);

	mov	eax, DWORD PTR result$[rbp]
	jmp	$LN1@PMC_Greate
$LN25@PMC_Greate:

; 349  :                     }
; 350  : 
; 351  :                     __UNIT_TYPE u_tzcnt = u->TRAILING_ZERO_BITS_COUNT;

	mov	rax, QWORD PTR u$[rbp]
	mov	rax, QWORD PTR [rax+32]
	mov	QWORD PTR u_tzcnt$47[rbp], rax

; 352  :                     __UNIT_TYPE v_tzcnt = v_lo == 0 ? 32 + _TZCNT_ALT_UNIT(v_hi) : _TZCNT_ALT_UNIT(v_lo);

	cmp	DWORD PTR v_lo$24[rbp], 0
	jne	SHORT $LN43@PMC_Greate
	mov	eax, DWORD PTR v_hi$23[rbp]
	mov	ecx, eax
	call	_TZCNT_ALT_UNIT
	add	eax, 32					; 00000020H
	mov	DWORD PTR tv245[rbp], eax
	jmp	SHORT $LN44@PMC_Greate
$LN43@PMC_Greate:
	mov	eax, DWORD PTR v_lo$24[rbp]
	mov	ecx, eax
	call	_TZCNT_ALT_UNIT
	mov	DWORD PTR tv245[rbp], eax
$LN44@PMC_Greate:
	movsxd	rax, DWORD PTR tv245[rbp]
	mov	QWORD PTR v_tzcnt$48[rbp], rax

; 353  :                     __UNIT_TYPE k = _MINIMUM_UNIT(u_tzcnt, v_tzcnt);

	mov	rdx, QWORD PTR v_tzcnt$48[rbp]
	mov	rcx, QWORD PTR u_tzcnt$47[rbp]
	call	_MINIMUM_UNIT
	mov	QWORD PTR k$49[rbp], rax

; 354  :                     if (u_tzcnt > 0)

	cmp	QWORD PTR u_tzcnt$47[rbp], 0
	jbe	SHORT $LN26@PMC_Greate

; 355  :                         RightShift_Imp(u->BLOCK, u->UNIT_WORD_COUNT, u_tzcnt, work_u_buf, FALSE);

	mov	DWORD PTR [rsp+32], 0
	mov	r9, QWORD PTR work_u_buf$42[rbp]
	mov	r8, QWORD PTR u_tzcnt$47[rbp]
	mov	rax, QWORD PTR u$[rbp]
	mov	rdx, QWORD PTR [rax+8]
	mov	rax, QWORD PTR u$[rbp]
	mov	rcx, QWORD PTR [rax+56]
	call	RightShift_Imp
	jmp	SHORT $LN27@PMC_Greate
$LN26@PMC_Greate:

; 356  :                     else
; 357  :                         _COPY_MEMORY_UNIT(work_u_buf, u->BLOCK, u->UNIT_WORD_COUNT);

	mov	rax, QWORD PTR u$[rbp]
	mov	r8, QWORD PTR [rax+8]
	mov	rax, QWORD PTR u$[rbp]
	mov	rdx, QWORD PTR [rax+56]
	mov	rcx, QWORD PTR work_u_buf$42[rbp]
	call	_COPY_MEMORY_UNIT
$LN27@PMC_Greate:

; 358  :                     work_v_buf[0] = v_lo;

	mov	eax, 8
	imul	rax, rax, 0
	mov	ecx, DWORD PTR v_lo$24[rbp]
	mov	rdx, QWORD PTR work_v_buf$45[rbp]
	mov	QWORD PTR [rdx+rax], rcx

; 359  :                     work_v_buf[1] = v_hi;

	mov	eax, 8
	imul	rax, rax, 1
	mov	ecx, DWORD PTR v_hi$23[rbp]
	mov	rdx, QWORD PTR work_v_buf$45[rbp]
	mov	QWORD PTR [rdx+rax], rcx

; 360  :                     if (v_tzcnt > 0)

	cmp	QWORD PTR v_tzcnt$48[rbp], 0
	jbe	SHORT $LN28@PMC_Greate

; 361  :                         RightShift_Imp(work_v_buf, 2, v_tzcnt, work_v_buf, TRUE);

	mov	DWORD PTR [rsp+32], 1
	mov	r9, QWORD PTR work_v_buf$45[rbp]
	mov	r8, QWORD PTR v_tzcnt$48[rbp]
	mov	edx, 2
	mov	rcx, QWORD PTR work_v_buf$45[rbp]
	call	RightShift_Imp
$LN28@PMC_Greate:

; 362  : 
; 363  :                     __UNIT_TYPE w_buf_count;
; 364  :                     GreatestCommonDivisor_Imp(work_u_buf, work_v_buf, _DIVIDE_CEILING_UNIT(work_bit_count, __UNIT_TYPE_BIT_COUNT), (*w)->BLOCK, &w_buf_count);

	mov	rax, QWORD PTR w$[rbp]
	mov	rax, QWORD PTR [rax]
	mov	QWORD PTR tv447[rbp], rax
	mov	edx, 64					; 00000040H
	mov	rcx, QWORD PTR work_bit_count$39[rbp]
	call	_DIVIDE_CEILING_UNIT
	lea	rcx, QWORD PTR w_buf_count$50[rbp]
	mov	QWORD PTR [rsp+32], rcx
	mov	rcx, QWORD PTR tv447[rbp]
	mov	r9, QWORD PTR [rcx+56]
	mov	r8, rax
	mov	rdx, QWORD PTR work_v_buf$45[rbp]
	mov	rcx, QWORD PTR work_u_buf$42[rbp]
	call	GreatestCommonDivisor_Imp

; 365  :                     if ((result = CheckBlockLight(work_u_buf, work_u_buf_code)) != PMC_STATUS_OK)

	mov	rdx, QWORD PTR work_u_buf_code$40[rbp]
	mov	rcx, QWORD PTR work_u_buf$42[rbp]
	call	CheckBlockLight
	mov	DWORD PTR result$[rbp], eax
	cmp	DWORD PTR result$[rbp], 0
	je	SHORT $LN29@PMC_Greate

; 366  :                         return (result);

	mov	eax, DWORD PTR result$[rbp]
	jmp	$LN1@PMC_Greate
$LN29@PMC_Greate:

; 367  :                     if ((result = CheckBlockLight(work_v_buf, work_v_buf_code)) != PMC_STATUS_OK)

	mov	rdx, QWORD PTR work_v_buf_code$43[rbp]
	mov	rcx, QWORD PTR work_v_buf$45[rbp]
	call	CheckBlockLight
	mov	DWORD PTR result$[rbp], eax
	cmp	DWORD PTR result$[rbp], 0
	je	SHORT $LN30@PMC_Greate

; 368  :                         return (result);

	mov	eax, DWORD PTR result$[rbp]
	jmp	$LN1@PMC_Greate
$LN30@PMC_Greate:

; 369  :                     if ((result = CheckBlockLight((*w)->BLOCK, nw_check_code)) != PMC_STATUS_OK)

	mov	rax, QWORD PTR w$[rbp]
	mov	rax, QWORD PTR [rax]
	mov	rdx, QWORD PTR nw_check_code$46[rbp]
	mov	rcx, QWORD PTR [rax+56]
	call	CheckBlockLight
	mov	DWORD PTR result$[rbp], eax
	cmp	DWORD PTR result$[rbp], 0
	je	SHORT $LN31@PMC_Greate

; 370  :                         return (result);

	mov	eax, DWORD PTR result$[rbp]
	jmp	$LN1@PMC_Greate
$LN31@PMC_Greate:

; 371  :                     DeallocateBlock(work_v_buf, work_v_buf_words);

	mov	rdx, QWORD PTR work_v_buf_words$44[rbp]
	mov	rcx, QWORD PTR work_v_buf$45[rbp]
	call	DeallocateBlock

; 372  :                     DeallocateBlock(work_u_buf, work_u_buf_words);

	mov	rdx, QWORD PTR work_u_buf_words$41[rbp]
	mov	rcx, QWORD PTR work_u_buf$42[rbp]
	call	DeallocateBlock

; 373  : 
; 374  :                     LeftShift_Imp((*w)->BLOCK, w_buf_count, k, (*w)->BLOCK, TRUE);

	mov	rax, QWORD PTR w$[rbp]
	mov	rax, QWORD PTR [rax]
	mov	rcx, QWORD PTR w$[rbp]
	mov	rcx, QWORD PTR [rcx]
	mov	DWORD PTR [rsp+32], 1
	mov	r9, QWORD PTR [rax+56]
	mov	r8, QWORD PTR k$49[rbp]
	mov	rdx, QWORD PTR w_buf_count$50[rbp]
	mov	rcx, QWORD PTR [rcx+56]
	call	LeftShift_Imp

; 375  :                     if ((result = CheckBlockLight((*w)->BLOCK, nw_check_code)) != PMC_STATUS_OK)

	mov	rax, QWORD PTR w$[rbp]
	mov	rax, QWORD PTR [rax]
	mov	rdx, QWORD PTR nw_check_code$46[rbp]
	mov	rcx, QWORD PTR [rax+56]
	call	CheckBlockLight
	mov	DWORD PTR result$[rbp], eax
	cmp	DWORD PTR result$[rbp], 0
	je	SHORT $LN32@PMC_Greate

; 376  :                         return (result);

	mov	eax, DWORD PTR result$[rbp]
	jmp	$LN1@PMC_Greate
$LN32@PMC_Greate:

; 377  :                     CommitNumber(*w);

	mov	rax, QWORD PTR w$[rbp]
	mov	rcx, QWORD PTR [rax]
	call	CommitNumber
$LN13@PMC_Greate:

; 378  :                 }
; 379  :             }

	jmp	$LN11@PMC_Greate
$LN10@PMC_Greate:

; 380  :             else
; 381  :             {
; 382  :                 // _UINT64_T が 1 ワードで表現できる場合
; 383  : 
; 384  :                 __UNIT_TYPE u_bit_count = u->UNIT_BIT_COUNT;

	mov	rax, QWORD PTR u$[rbp]
	mov	rax, QWORD PTR [rax+16]
	mov	QWORD PTR u_bit_count$51[rbp], rax

; 385  :                 __UNIT_TYPE v_bit_count = sizeof(v) * 8 - _LZCNT_ALT_UNIT((__UNIT_TYPE)v);

	mov	rcx, QWORD PTR v$[rbp]
	call	_LZCNT_ALT_UNIT
	cdqe
	mov	ecx, 64					; 00000040H
	sub	rcx, rax
	mov	rax, rcx
	mov	QWORD PTR v_bit_count$52[rbp], rax

; 386  :                 __UNIT_TYPE work_bit_count = _MAXIMUM_UNIT(u_bit_count, v_bit_count);

	mov	rdx, QWORD PTR v_bit_count$52[rbp]
	mov	rcx, QWORD PTR u_bit_count$51[rbp]
	call	_MAXIMUM_UNIT
	mov	QWORD PTR work_bit_count$53[rbp], rax

; 387  : 
; 388  :                 __UNIT_TYPE work_u_buf_code;
; 389  :                 __UNIT_TYPE work_u_buf_words;
; 390  :                 __UNIT_TYPE* work_u_buf = AllocateBlock(work_bit_count, &work_u_buf_words, &work_u_buf_code);

	lea	r8, QWORD PTR work_u_buf_code$54[rbp]
	lea	rdx, QWORD PTR work_u_buf_words$55[rbp]
	mov	rcx, QWORD PTR work_bit_count$53[rbp]
	call	AllocateBlock
	mov	QWORD PTR work_u_buf$56[rbp], rax

; 391  :                 if (work_u_buf == NULL)

	cmp	QWORD PTR work_u_buf$56[rbp], 0
	jne	SHORT $LN33@PMC_Greate

; 392  :                     return (PMC_STATUS_NOT_ENOUGH_MEMORY);

	mov	eax, -5
	jmp	$LN1@PMC_Greate
$LN33@PMC_Greate:

; 393  : 
; 394  :                 __UNIT_TYPE work_v_buf_code;
; 395  :                 __UNIT_TYPE work_v_buf_words;
; 396  :                 __UNIT_TYPE* work_v_buf = AllocateBlock(work_bit_count, &work_v_buf_words, &work_v_buf_code);

	lea	r8, QWORD PTR work_v_buf_code$57[rbp]
	lea	rdx, QWORD PTR work_v_buf_words$58[rbp]
	mov	rcx, QWORD PTR work_bit_count$53[rbp]
	call	AllocateBlock
	mov	QWORD PTR work_v_buf$59[rbp], rax

; 397  :                 if (work_v_buf == NULL)

	cmp	QWORD PTR work_v_buf$59[rbp], 0
	jne	SHORT $LN34@PMC_Greate

; 398  :                 {
; 399  :                     DeallocateBlock(work_u_buf, work_u_buf_words);

	mov	rdx, QWORD PTR work_u_buf_words$55[rbp]
	mov	rcx, QWORD PTR work_u_buf$56[rbp]
	call	DeallocateBlock

; 400  :                     return (PMC_STATUS_NOT_ENOUGH_MEMORY);

	mov	eax, -5
	jmp	$LN1@PMC_Greate
$LN34@PMC_Greate:

; 401  :                 }
; 402  : 
; 403  :                 __UNIT_TYPE nw_check_code;
; 404  :                 if ((result = AllocateNumber(w, work_bit_count, &nw_check_code)) != PMC_STATUS_OK)

	lea	r8, QWORD PTR nw_check_code$60[rbp]
	mov	rdx, QWORD PTR work_bit_count$53[rbp]
	mov	rcx, QWORD PTR w$[rbp]
	call	AllocateNumber
	mov	DWORD PTR result$[rbp], eax
	cmp	DWORD PTR result$[rbp], 0
	je	SHORT $LN35@PMC_Greate

; 405  :                 {
; 406  :                     DeallocateBlock(work_v_buf, work_v_buf_words);

	mov	rdx, QWORD PTR work_v_buf_words$58[rbp]
	mov	rcx, QWORD PTR work_v_buf$59[rbp]
	call	DeallocateBlock

; 407  :                     DeallocateBlock(work_u_buf, work_u_buf_words);

	mov	rdx, QWORD PTR work_u_buf_words$55[rbp]
	mov	rcx, QWORD PTR work_u_buf$56[rbp]
	call	DeallocateBlock

; 408  :                     return (result);

	mov	eax, DWORD PTR result$[rbp]
	jmp	$LN1@PMC_Greate
$LN35@PMC_Greate:

; 409  :                 }
; 410  : 
; 411  :                 __UNIT_TYPE u_tzcnt = u->TRAILING_ZERO_BITS_COUNT;

	mov	rax, QWORD PTR u$[rbp]
	mov	rax, QWORD PTR [rax+32]
	mov	QWORD PTR u_tzcnt$61[rbp], rax

; 412  :                 __UNIT_TYPE v_tzcnt = _TZCNT_ALT_UNIT((__UNIT_TYPE)v);

	mov	rcx, QWORD PTR v$[rbp]
	call	_TZCNT_ALT_UNIT
	cdqe
	mov	QWORD PTR v_tzcnt$62[rbp], rax

; 413  :                 __UNIT_TYPE k = _MINIMUM_UNIT(u_tzcnt, v_tzcnt);

	mov	rdx, QWORD PTR v_tzcnt$62[rbp]
	mov	rcx, QWORD PTR u_tzcnt$61[rbp]
	call	_MINIMUM_UNIT
	mov	QWORD PTR k$63[rbp], rax

; 414  :                 if (u_tzcnt > 0)

	cmp	QWORD PTR u_tzcnt$61[rbp], 0
	jbe	SHORT $LN36@PMC_Greate

; 415  :                     RightShift_Imp(u->BLOCK, u->UNIT_WORD_COUNT, u_tzcnt, work_u_buf, FALSE);

	mov	DWORD PTR [rsp+32], 0
	mov	r9, QWORD PTR work_u_buf$56[rbp]
	mov	r8, QWORD PTR u_tzcnt$61[rbp]
	mov	rax, QWORD PTR u$[rbp]
	mov	rdx, QWORD PTR [rax+8]
	mov	rax, QWORD PTR u$[rbp]
	mov	rcx, QWORD PTR [rax+56]
	call	RightShift_Imp
	jmp	SHORT $LN37@PMC_Greate
$LN36@PMC_Greate:

; 416  :                 else
; 417  :                     _COPY_MEMORY_UNIT(work_u_buf, u->BLOCK, u->UNIT_WORD_COUNT);

	mov	rax, QWORD PTR u$[rbp]
	mov	r8, QWORD PTR [rax+8]
	mov	rax, QWORD PTR u$[rbp]
	mov	rdx, QWORD PTR [rax+56]
	mov	rcx, QWORD PTR work_u_buf$56[rbp]
	call	_COPY_MEMORY_UNIT
$LN37@PMC_Greate:

; 418  :                 work_v_buf[0] = (__UNIT_TYPE)(v >> v_tzcnt);

	mov	rax, QWORD PTR v_tzcnt$62[rbp]
	movzx	ecx, al
	mov	rax, QWORD PTR v$[rbp]
	shr	rax, cl
	mov	ecx, 8
	imul	rcx, rcx, 0
	mov	rdx, QWORD PTR work_v_buf$59[rbp]
	mov	QWORD PTR [rdx+rcx], rax

; 419  : 
; 420  :                 __UNIT_TYPE w_buf_count;
; 421  :                 GreatestCommonDivisor_Imp(work_u_buf, work_v_buf, _DIVIDE_CEILING_UNIT(work_bit_count, __UNIT_TYPE_BIT_COUNT), (*w)->BLOCK, &w_buf_count);

	mov	rax, QWORD PTR w$[rbp]
	mov	rax, QWORD PTR [rax]
	mov	QWORD PTR tv442[rbp], rax
	mov	edx, 64					; 00000040H
	mov	rcx, QWORD PTR work_bit_count$53[rbp]
	call	_DIVIDE_CEILING_UNIT
	lea	rcx, QWORD PTR w_buf_count$64[rbp]
	mov	QWORD PTR [rsp+32], rcx
	mov	rcx, QWORD PTR tv442[rbp]
	mov	r9, QWORD PTR [rcx+56]
	mov	r8, rax
	mov	rdx, QWORD PTR work_v_buf$59[rbp]
	mov	rcx, QWORD PTR work_u_buf$56[rbp]
	call	GreatestCommonDivisor_Imp

; 422  :                 if ((result = CheckBlockLight(work_u_buf, work_u_buf_code)) != PMC_STATUS_OK)

	mov	rdx, QWORD PTR work_u_buf_code$54[rbp]
	mov	rcx, QWORD PTR work_u_buf$56[rbp]
	call	CheckBlockLight
	mov	DWORD PTR result$[rbp], eax
	cmp	DWORD PTR result$[rbp], 0
	je	SHORT $LN38@PMC_Greate

; 423  :                     return (result);

	mov	eax, DWORD PTR result$[rbp]
	jmp	$LN1@PMC_Greate
$LN38@PMC_Greate:

; 424  :                 if ((result = CheckBlockLight(work_v_buf, work_v_buf_code)) != PMC_STATUS_OK)

	mov	rdx, QWORD PTR work_v_buf_code$57[rbp]
	mov	rcx, QWORD PTR work_v_buf$59[rbp]
	call	CheckBlockLight
	mov	DWORD PTR result$[rbp], eax
	cmp	DWORD PTR result$[rbp], 0
	je	SHORT $LN39@PMC_Greate

; 425  :                     return (result);

	mov	eax, DWORD PTR result$[rbp]
	jmp	$LN1@PMC_Greate
$LN39@PMC_Greate:

; 426  :                 if ((result = CheckBlockLight((*w)->BLOCK, nw_check_code)) != PMC_STATUS_OK)

	mov	rax, QWORD PTR w$[rbp]
	mov	rax, QWORD PTR [rax]
	mov	rdx, QWORD PTR nw_check_code$60[rbp]
	mov	rcx, QWORD PTR [rax+56]
	call	CheckBlockLight
	mov	DWORD PTR result$[rbp], eax
	cmp	DWORD PTR result$[rbp], 0
	je	SHORT $LN40@PMC_Greate

; 427  :                     return (result);

	mov	eax, DWORD PTR result$[rbp]
	jmp	$LN1@PMC_Greate
$LN40@PMC_Greate:

; 428  :                 DeallocateBlock(work_v_buf, work_v_buf_words);

	mov	rdx, QWORD PTR work_v_buf_words$58[rbp]
	mov	rcx, QWORD PTR work_v_buf$59[rbp]
	call	DeallocateBlock

; 429  :                 DeallocateBlock(work_u_buf, work_u_buf_words);

	mov	rdx, QWORD PTR work_u_buf_words$55[rbp]
	mov	rcx, QWORD PTR work_u_buf$56[rbp]
	call	DeallocateBlock

; 430  : 
; 431  :                 LeftShift_Imp((*w)->BLOCK, w_buf_count, k, (*w)->BLOCK, TRUE);

	mov	rax, QWORD PTR w$[rbp]
	mov	rax, QWORD PTR [rax]
	mov	rcx, QWORD PTR w$[rbp]
	mov	rcx, QWORD PTR [rcx]
	mov	DWORD PTR [rsp+32], 1
	mov	r9, QWORD PTR [rax+56]
	mov	r8, QWORD PTR k$63[rbp]
	mov	rdx, QWORD PTR w_buf_count$64[rbp]
	mov	rcx, QWORD PTR [rcx+56]
	call	LeftShift_Imp

; 432  :                 if ((result = CheckBlockLight((*w)->BLOCK, nw_check_code)) != PMC_STATUS_OK)

	mov	rax, QWORD PTR w$[rbp]
	mov	rax, QWORD PTR [rax]
	mov	rdx, QWORD PTR nw_check_code$60[rbp]
	mov	rcx, QWORD PTR [rax+56]
	call	CheckBlockLight
	mov	DWORD PTR result$[rbp], eax
	cmp	DWORD PTR result$[rbp], 0
	je	SHORT $LN41@PMC_Greate

; 433  :                     return (result);

	mov	eax, DWORD PTR result$[rbp]
	jmp	SHORT $LN1@PMC_Greate
$LN41@PMC_Greate:

; 434  :                 CommitNumber(*w);

	mov	rax, QWORD PTR w$[rbp]
	mov	rcx, QWORD PTR [rax]
	call	CommitNumber
$LN11@PMC_Greate:
$LN8@PMC_Greate:
$LN3@PMC_Greate:

; 435  :             }
; 436  :         }
; 437  :     }
; 438  :     return (PMC_STATUS_OK);

	xor	eax, eax
$LN1@PMC_Greate:

; 439  : }

	mov	rdi, rax
	lea	rcx, QWORD PTR [rbp-48]
	lea	rdx, OFFSET FLAT:PMC_GreatestCommonDivisor_X_L_Imp$rtcFrameData
	call	_RTC_CheckStackVars
	mov	rax, rdi
	lea	rsp, QWORD PTR [rbp+1992]
	pop	rdi
	pop	rbp
	ret	0
PMC_GreatestCommonDivisor_X_L_Imp ENDP
_TEXT	ENDS
; Function compile flags: /Odtp /RTCsu /ZI
; File z:\sources\lunor\repos\rougemeilland\palmtree.math.core.uint\palmtree.math.core.uint\pmc_greatestcommondivisor.c
;	COMDAT PMC_GreatestCommonDivisor_X_I_Imp
_TEXT	SEGMENT
result$ = 4
u_bit_count$9 = 40
v_bit_count$10 = 72
work_bit_count$11 = 104
work_u_buf_code$12 = 136
work_u_buf_words$13 = 168
work_u_buf$14 = 200
work_v_buf_code$15 = 232
work_v_buf_words$16 = 264
work_v_buf$17 = 296
nw_check_code$18 = 328
u_tzcnt$19 = 360
v_tzcnt$20 = 392
k$21 = 424
w_buf_count$22 = 456
tv208 = 664
u$ = 704
v$ = 712
w$ = 720
PMC_GreatestCommonDivisor_X_I_Imp PROC			; COMDAT

; 80   : {

	mov	QWORD PTR [rsp+24], r8
	mov	DWORD PTR [rsp+16], edx
	mov	QWORD PTR [rsp+8], rcx
	push	rbp
	push	rdi
	sub	rsp, 728				; 000002d8H
	lea	rbp, QWORD PTR [rsp+48]
	mov	rdi, rsp
	mov	ecx, 182				; 000000b6H
	mov	eax, -858993460				; ccccccccH
	rep stosd
	mov	rcx, QWORD PTR [rsp+760]
	lea	rcx, OFFSET FLAT:__3257AA0B_pmc_greatestcommondivisor@c
	call	__CheckForDebuggerJustMyCode

; 81   :     PMC_STATUS_CODE result;
; 82   :     if (u->IS_ZERO)

	mov	rax, QWORD PTR u$[rbp]
	mov	eax, DWORD PTR [rax+40]
	shr	eax, 1
	and	eax, 1
	test	eax, eax
	je	SHORT $LN2@PMC_Greate

; 83   :     {
; 84   :         // u が 0 である場合
; 85   : 
; 86   :         if (v == 0)

	cmp	DWORD PTR v$[rbp], 0
	jne	SHORT $LN4@PMC_Greate

; 87   :         {
; 88   :             // v が 0 である場合
; 89   : 
; 90   :             // u と v がともに 0 であり、GCD は一意に存在しないため、エラーを返す。
; 91   :             return (PMC_STATUS_ARGUMENT_ERROR);

	mov	eax, -1
	jmp	$LN1@PMC_Greate

; 92   :         }

	jmp	SHORT $LN5@PMC_Greate
$LN4@PMC_Greate:

; 93   :         else
; 94   :         {
; 95   :             // v が 0 ではない場合
; 96   : 
; 97   :             // GCD は v そのものであるため、v を計算結果として返す。
; 98   :             if ((result = From_I_Imp(v, w)) != PMC_STATUS_OK)

	mov	rdx, QWORD PTR w$[rbp]
	mov	ecx, DWORD PTR v$[rbp]
	call	From_I_Imp
	mov	DWORD PTR result$[rbp], eax
	cmp	DWORD PTR result$[rbp], 0
	je	SHORT $LN6@PMC_Greate

; 99   :                 return (result);

	mov	eax, DWORD PTR result$[rbp]
	jmp	$LN1@PMC_Greate
$LN6@PMC_Greate:
$LN5@PMC_Greate:

; 100  :         }
; 101  :     }

	jmp	$LN3@PMC_Greate
$LN2@PMC_Greate:

; 102  :     else
; 103  :     {
; 104  :         // u が 0 ではない場合
; 105  : 
; 106  :         if (v == 0)

	cmp	DWORD PTR v$[rbp], 0
	jne	SHORT $LN7@PMC_Greate

; 107  :         {
; 108  :             // v が 0 である場合
; 109  : 
; 110  :             // GCD は u そのものであるため、u を計算結果として返す。
; 111  :             if ((result = DuplicateNumber(u, w)) != PMC_STATUS_OK)

	mov	rdx, QWORD PTR w$[rbp]
	mov	rcx, QWORD PTR u$[rbp]
	call	DuplicateNumber
	mov	DWORD PTR result$[rbp], eax
	cmp	DWORD PTR result$[rbp], 0
	je	SHORT $LN9@PMC_Greate

; 112  :                 return (result);

	mov	eax, DWORD PTR result$[rbp]
	jmp	$LN1@PMC_Greate
$LN9@PMC_Greate:

; 113  :         }

	jmp	$LN8@PMC_Greate
$LN7@PMC_Greate:

; 114  :         else
; 115  :         {
; 116  :             // u と v がともに 0 ではない場合
; 117  : 
; 118  :             // u と v の GCD を計算する
; 119  :             __UNIT_TYPE u_bit_count = u->UNIT_BIT_COUNT;

	mov	rax, QWORD PTR u$[rbp]
	mov	rax, QWORD PTR [rax+16]
	mov	QWORD PTR u_bit_count$9[rbp], rax

; 120  :             __UNIT_TYPE v_bit_count = sizeof(v) * 8 - _LZCNT_ALT_32(v);

	mov	ecx, DWORD PTR v$[rbp]
	call	_LZCNT_ALT_32
	cdqe
	mov	ecx, 32					; 00000020H
	sub	rcx, rax
	mov	rax, rcx
	mov	QWORD PTR v_bit_count$10[rbp], rax

; 121  :             __UNIT_TYPE work_bit_count = _MAXIMUM_UNIT(u_bit_count, v_bit_count);

	mov	rdx, QWORD PTR v_bit_count$10[rbp]
	mov	rcx, QWORD PTR u_bit_count$9[rbp]
	call	_MAXIMUM_UNIT
	mov	QWORD PTR work_bit_count$11[rbp], rax

; 122  : 
; 123  :             __UNIT_TYPE work_u_buf_code;
; 124  :             __UNIT_TYPE work_u_buf_words;
; 125  :             __UNIT_TYPE* work_u_buf = AllocateBlock(work_bit_count, &work_u_buf_words, &work_u_buf_code);

	lea	r8, QWORD PTR work_u_buf_code$12[rbp]
	lea	rdx, QWORD PTR work_u_buf_words$13[rbp]
	mov	rcx, QWORD PTR work_bit_count$11[rbp]
	call	AllocateBlock
	mov	QWORD PTR work_u_buf$14[rbp], rax

; 126  :             if (work_u_buf == NULL)

	cmp	QWORD PTR work_u_buf$14[rbp], 0
	jne	SHORT $LN10@PMC_Greate

; 127  :                 return (PMC_STATUS_NOT_ENOUGH_MEMORY);

	mov	eax, -5
	jmp	$LN1@PMC_Greate
$LN10@PMC_Greate:

; 128  : 
; 129  :             __UNIT_TYPE work_v_buf_code;
; 130  :             __UNIT_TYPE work_v_buf_words;
; 131  :             __UNIT_TYPE* work_v_buf = AllocateBlock(work_bit_count, &work_v_buf_words, &work_v_buf_code);

	lea	r8, QWORD PTR work_v_buf_code$15[rbp]
	lea	rdx, QWORD PTR work_v_buf_words$16[rbp]
	mov	rcx, QWORD PTR work_bit_count$11[rbp]
	call	AllocateBlock
	mov	QWORD PTR work_v_buf$17[rbp], rax

; 132  :             if (work_v_buf == NULL)

	cmp	QWORD PTR work_v_buf$17[rbp], 0
	jne	SHORT $LN11@PMC_Greate

; 133  :             {
; 134  :                 DeallocateBlock(work_u_buf, work_u_buf_words);

	mov	rdx, QWORD PTR work_u_buf_words$13[rbp]
	mov	rcx, QWORD PTR work_u_buf$14[rbp]
	call	DeallocateBlock

; 135  :                 return (PMC_STATUS_NOT_ENOUGH_MEMORY);

	mov	eax, -5
	jmp	$LN1@PMC_Greate
$LN11@PMC_Greate:

; 136  :             }
; 137  : 
; 138  :             __UNIT_TYPE nw_check_code;
; 139  :             if ((result = AllocateNumber(w, work_bit_count, &nw_check_code)) != PMC_STATUS_OK)

	lea	r8, QWORD PTR nw_check_code$18[rbp]
	mov	rdx, QWORD PTR work_bit_count$11[rbp]
	mov	rcx, QWORD PTR w$[rbp]
	call	AllocateNumber
	mov	DWORD PTR result$[rbp], eax
	cmp	DWORD PTR result$[rbp], 0
	je	SHORT $LN12@PMC_Greate

; 140  :             {
; 141  :                 DeallocateBlock(work_v_buf, work_v_buf_words);

	mov	rdx, QWORD PTR work_v_buf_words$16[rbp]
	mov	rcx, QWORD PTR work_v_buf$17[rbp]
	call	DeallocateBlock

; 142  :                 DeallocateBlock(work_u_buf, work_u_buf_words);

	mov	rdx, QWORD PTR work_u_buf_words$13[rbp]
	mov	rcx, QWORD PTR work_u_buf$14[rbp]
	call	DeallocateBlock

; 143  :                 return (result);

	mov	eax, DWORD PTR result$[rbp]
	jmp	$LN1@PMC_Greate
$LN12@PMC_Greate:

; 144  :             }
; 145  : 
; 146  :             __UNIT_TYPE u_tzcnt = u->TRAILING_ZERO_BITS_COUNT;

	mov	rax, QWORD PTR u$[rbp]
	mov	rax, QWORD PTR [rax+32]
	mov	QWORD PTR u_tzcnt$19[rbp], rax

; 147  :             __UNIT_TYPE v_tzcnt = _TZCNT_ALT_UNIT(v);

	mov	eax, DWORD PTR v$[rbp]
	mov	ecx, eax
	call	_TZCNT_ALT_UNIT
	cdqe
	mov	QWORD PTR v_tzcnt$20[rbp], rax

; 148  :             __UNIT_TYPE k = _MINIMUM_UNIT(u_tzcnt, v_tzcnt);

	mov	rdx, QWORD PTR v_tzcnt$20[rbp]
	mov	rcx, QWORD PTR u_tzcnt$19[rbp]
	call	_MINIMUM_UNIT
	mov	QWORD PTR k$21[rbp], rax

; 149  :             if (u_tzcnt > 0)

	cmp	QWORD PTR u_tzcnt$19[rbp], 0
	jbe	SHORT $LN13@PMC_Greate

; 150  :                 RightShift_Imp(u->BLOCK, u->UNIT_WORD_COUNT, u_tzcnt, work_u_buf, FALSE);

	mov	DWORD PTR [rsp+32], 0
	mov	r9, QWORD PTR work_u_buf$14[rbp]
	mov	r8, QWORD PTR u_tzcnt$19[rbp]
	mov	rax, QWORD PTR u$[rbp]
	mov	rdx, QWORD PTR [rax+8]
	mov	rax, QWORD PTR u$[rbp]
	mov	rcx, QWORD PTR [rax+56]
	call	RightShift_Imp
	jmp	SHORT $LN14@PMC_Greate
$LN13@PMC_Greate:

; 151  :             else
; 152  :                 _COPY_MEMORY_UNIT(work_u_buf, u->BLOCK, u->UNIT_WORD_COUNT);

	mov	rax, QWORD PTR u$[rbp]
	mov	r8, QWORD PTR [rax+8]
	mov	rax, QWORD PTR u$[rbp]
	mov	rdx, QWORD PTR [rax+56]
	mov	rcx, QWORD PTR work_u_buf$14[rbp]
	call	_COPY_MEMORY_UNIT
$LN14@PMC_Greate:

; 153  :             work_v_buf[0] = v >> v_tzcnt;

	mov	rax, QWORD PTR v_tzcnt$20[rbp]
	movzx	ecx, al
	mov	eax, DWORD PTR v$[rbp]
	shr	eax, cl
	mov	ecx, 8
	imul	rcx, rcx, 0
	mov	eax, eax
	mov	rdx, QWORD PTR work_v_buf$17[rbp]
	mov	QWORD PTR [rdx+rcx], rax

; 154  : 
; 155  :             __UNIT_TYPE w_buf_count;
; 156  :             GreatestCommonDivisor_Imp(work_u_buf, work_v_buf, _DIVIDE_CEILING_UNIT(work_bit_count, __UNIT_TYPE_BIT_COUNT), (*w)->BLOCK, &w_buf_count);

	mov	rax, QWORD PTR w$[rbp]
	mov	rax, QWORD PTR [rax]
	mov	QWORD PTR tv208[rbp], rax
	mov	edx, 64					; 00000040H
	mov	rcx, QWORD PTR work_bit_count$11[rbp]
	call	_DIVIDE_CEILING_UNIT
	lea	rcx, QWORD PTR w_buf_count$22[rbp]
	mov	QWORD PTR [rsp+32], rcx
	mov	rcx, QWORD PTR tv208[rbp]
	mov	r9, QWORD PTR [rcx+56]
	mov	r8, rax
	mov	rdx, QWORD PTR work_v_buf$17[rbp]
	mov	rcx, QWORD PTR work_u_buf$14[rbp]
	call	GreatestCommonDivisor_Imp

; 157  :             if ((result = CheckBlockLight(work_u_buf, work_u_buf_code)) != PMC_STATUS_OK)

	mov	rdx, QWORD PTR work_u_buf_code$12[rbp]
	mov	rcx, QWORD PTR work_u_buf$14[rbp]
	call	CheckBlockLight
	mov	DWORD PTR result$[rbp], eax
	cmp	DWORD PTR result$[rbp], 0
	je	SHORT $LN15@PMC_Greate

; 158  :                 return (result);

	mov	eax, DWORD PTR result$[rbp]
	jmp	$LN1@PMC_Greate
$LN15@PMC_Greate:

; 159  :             if ((result = CheckBlockLight(work_v_buf, work_v_buf_code)) != PMC_STATUS_OK)

	mov	rdx, QWORD PTR work_v_buf_code$15[rbp]
	mov	rcx, QWORD PTR work_v_buf$17[rbp]
	call	CheckBlockLight
	mov	DWORD PTR result$[rbp], eax
	cmp	DWORD PTR result$[rbp], 0
	je	SHORT $LN16@PMC_Greate

; 160  :                 return (result);

	mov	eax, DWORD PTR result$[rbp]
	jmp	$LN1@PMC_Greate
$LN16@PMC_Greate:

; 161  :             if ((result = CheckBlockLight((*w)->BLOCK, nw_check_code)) != PMC_STATUS_OK)

	mov	rax, QWORD PTR w$[rbp]
	mov	rax, QWORD PTR [rax]
	mov	rdx, QWORD PTR nw_check_code$18[rbp]
	mov	rcx, QWORD PTR [rax+56]
	call	CheckBlockLight
	mov	DWORD PTR result$[rbp], eax
	cmp	DWORD PTR result$[rbp], 0
	je	SHORT $LN17@PMC_Greate

; 162  :                 return (result);

	mov	eax, DWORD PTR result$[rbp]
	jmp	$LN1@PMC_Greate
$LN17@PMC_Greate:

; 163  :             DeallocateBlock(work_v_buf, work_v_buf_words);

	mov	rdx, QWORD PTR work_v_buf_words$16[rbp]
	mov	rcx, QWORD PTR work_v_buf$17[rbp]
	call	DeallocateBlock

; 164  :             DeallocateBlock(work_u_buf, work_u_buf_words);

	mov	rdx, QWORD PTR work_u_buf_words$13[rbp]
	mov	rcx, QWORD PTR work_u_buf$14[rbp]
	call	DeallocateBlock

; 165  : 
; 166  :             LeftShift_Imp((*w)->BLOCK, w_buf_count, k, (*w)->BLOCK, TRUE);

	mov	rax, QWORD PTR w$[rbp]
	mov	rax, QWORD PTR [rax]
	mov	rcx, QWORD PTR w$[rbp]
	mov	rcx, QWORD PTR [rcx]
	mov	DWORD PTR [rsp+32], 1
	mov	r9, QWORD PTR [rax+56]
	mov	r8, QWORD PTR k$21[rbp]
	mov	rdx, QWORD PTR w_buf_count$22[rbp]
	mov	rcx, QWORD PTR [rcx+56]
	call	LeftShift_Imp

; 167  :             if ((result = CheckBlockLight((*w)->BLOCK, nw_check_code)) != PMC_STATUS_OK)

	mov	rax, QWORD PTR w$[rbp]
	mov	rax, QWORD PTR [rax]
	mov	rdx, QWORD PTR nw_check_code$18[rbp]
	mov	rcx, QWORD PTR [rax+56]
	call	CheckBlockLight
	mov	DWORD PTR result$[rbp], eax
	cmp	DWORD PTR result$[rbp], 0
	je	SHORT $LN18@PMC_Greate

; 168  :                 return (result);

	mov	eax, DWORD PTR result$[rbp]
	jmp	SHORT $LN1@PMC_Greate
$LN18@PMC_Greate:

; 169  :             CommitNumber(*w);

	mov	rax, QWORD PTR w$[rbp]
	mov	rcx, QWORD PTR [rax]
	call	CommitNumber
$LN8@PMC_Greate:
$LN3@PMC_Greate:

; 170  :         }
; 171  :     }
; 172  :     return (PMC_STATUS_OK);

	xor	eax, eax
$LN1@PMC_Greate:

; 173  : }

	mov	rdi, rax
	lea	rcx, QWORD PTR [rbp-48]
	lea	rdx, OFFSET FLAT:PMC_GreatestCommonDivisor_X_I_Imp$rtcFrameData
	call	_RTC_CheckStackVars
	mov	rax, rdi
	lea	rsp, QWORD PTR [rbp+680]
	pop	rdi
	pop	rbp
	ret	0
PMC_GreatestCommonDivisor_X_I_Imp ENDP
_TEXT	ENDS
; Function compile flags: /Odtp /RTCsu /ZI
; File z:\sources\lunor\repos\rougemeilland\palmtree.math.core.uint\palmtree.math.core.uint\pmc_greatestcommondivisor.c
;	COMDAT GreatestCommonDivisor_Imp
_TEXT	SEGMENT
u$ = 8
v$ = 40
c$1 = 68
tt$2 = 104
p1_buf$ = 352
p2_buf$ = 360
word_count$ = 368
w_buf$ = 376
w_buf_count$ = 384
GreatestCommonDivisor_Imp PROC				; COMDAT

; 39   : {

	mov	QWORD PTR [rsp+32], r9
	mov	QWORD PTR [rsp+24], r8
	mov	QWORD PTR [rsp+16], rdx
	mov	QWORD PTR [rsp+8], rcx
	push	rbp
	push	rdi
	sub	rsp, 376				; 00000178H
	lea	rbp, QWORD PTR [rsp+48]
	mov	rdi, rsp
	mov	ecx, 94					; 0000005eH
	mov	eax, -858993460				; ccccccccH
	rep stosd
	mov	rcx, QWORD PTR [rsp+408]
	lea	rcx, OFFSET FLAT:__3257AA0B_pmc_greatestcommondivisor@c
	call	__CheckForDebuggerJustMyCode

; 40   :     __UNIT_TYPE* u = p1_buf;

	mov	rax, QWORD PTR p1_buf$[rbp]
	mov	QWORD PTR u$[rbp], rax

; 41   :     __UNIT_TYPE* v = p2_buf;

	mov	rax, QWORD PTR p2_buf$[rbp]
	mov	QWORD PTR v$[rbp], rax
$LN2@GreatestCo:
$LN5@GreatestCo:

; 42   :     for (;;)
; 43   :     {
; 44   :         while (word_count > 0 && u[word_count - 1] == 0 && v[word_count - 1] == 0)

	cmp	QWORD PTR word_count$[rbp], 0
	jbe	SHORT $LN6@GreatestCo
	mov	rax, QWORD PTR u$[rbp]
	mov	rcx, QWORD PTR word_count$[rbp]
	cmp	QWORD PTR [rax+rcx*8-8], 0
	jne	SHORT $LN6@GreatestCo
	mov	rax, QWORD PTR v$[rbp]
	mov	rcx, QWORD PTR word_count$[rbp]
	cmp	QWORD PTR [rax+rcx*8-8], 0
	jne	SHORT $LN6@GreatestCo

; 45   :             --word_count;

	mov	rax, QWORD PTR word_count$[rbp]
	dec	rax
	mov	QWORD PTR word_count$[rbp], rax
	jmp	SHORT $LN5@GreatestCo
$LN6@GreatestCo:

; 46   :         if (word_count <= 0)

	cmp	QWORD PTR word_count$[rbp], 0
	ja	SHORT $LN9@GreatestCo

; 47   :         {
; 48   :             // このルートへの到達はあり得ないはず。
; 49   :             w_buf[0] = 0;

	mov	eax, 8
	imul	rax, rax, 0
	mov	rcx, QWORD PTR w_buf$[rbp]
	mov	QWORD PTR [rcx+rax], 0

; 50   :             *w_buf_count = 1;

	mov	rax, QWORD PTR w_buf_count$[rbp]
	mov	QWORD PTR [rax], 1
$LN9@GreatestCo:

; 51   :         }
; 52   :         int c = Compare_Imp(u, v, word_count);

	mov	r8, QWORD PTR word_count$[rbp]
	mov	rdx, QWORD PTR v$[rbp]
	mov	rcx, QWORD PTR u$[rbp]
	call	Compare_Imp
	mov	DWORD PTR c$1[rbp], eax

; 53   :         if (c == 0)

	cmp	DWORD PTR c$1[rbp], 0
	jne	SHORT $LN10@GreatestCo

; 54   :         {
; 55   :             // u == v の場合
; 56   : 
; 57   :             // GCD を u として復帰
; 58   :             _COPY_MEMORY_UNIT(w_buf, u, word_count);

	mov	r8, QWORD PTR word_count$[rbp]
	mov	rdx, QWORD PTR u$[rbp]
	mov	rcx, QWORD PTR w_buf$[rbp]
	call	_COPY_MEMORY_UNIT

; 59   :             *w_buf_count = word_count;

	mov	rax, QWORD PTR w_buf_count$[rbp]
	mov	rcx, QWORD PTR word_count$[rbp]
	mov	QWORD PTR [rax], rcx

; 60   :             return;

	jmp	$LN1@GreatestCo
$LN10@GreatestCo:

; 61   :         }
; 62   :         if (c < 0)

	cmp	DWORD PTR c$1[rbp], 0
	jge	SHORT $LN11@GreatestCo

; 63   :         {
; 64   :             __UNIT_TYPE* tt = u;

	mov	rax, QWORD PTR u$[rbp]
	mov	QWORD PTR tt$2[rbp], rax

; 65   :             u = v;

	mov	rax, QWORD PTR v$[rbp]
	mov	QWORD PTR u$[rbp], rax

; 66   :             v = tt;

	mov	rax, QWORD PTR tt$2[rbp]
	mov	QWORD PTR v$[rbp], rax
$LN11@GreatestCo:

; 67   :         }
; 68   :         // この時点で u > v かつ u と v はともに奇数である
; 69   : 
; 70   :         Subtruct_Imp(u, word_count, v, word_count, u, word_count);

	mov	rax, QWORD PTR word_count$[rbp]
	mov	QWORD PTR [rsp+40], rax
	mov	rax, QWORD PTR u$[rbp]
	mov	QWORD PTR [rsp+32], rax
	mov	r9, QWORD PTR word_count$[rbp]
	mov	r8, QWORD PTR v$[rbp]
	mov	rdx, QWORD PTR word_count$[rbp]
	mov	rcx, QWORD PTR u$[rbp]
	call	Subtruct_Imp
$LN7@GreatestCo:

; 71   : 
; 72   :         // この時点で u は偶数
; 73   : 
; 74   :         while ((*u & 1) == 0)

	mov	rax, QWORD PTR u$[rbp]
	mov	rax, QWORD PTR [rax]
	and	rax, 1
	test	rax, rax
	jne	SHORT $LN8@GreatestCo

; 75   :             RightShift_Imp(u, word_count, 1, u, TRUE);

	mov	DWORD PTR [rsp+32], 1
	mov	r9, QWORD PTR u$[rbp]
	mov	r8d, 1
	mov	rdx, QWORD PTR word_count$[rbp]
	mov	rcx, QWORD PTR u$[rbp]
	call	RightShift_Imp
	jmp	SHORT $LN7@GreatestCo
$LN8@GreatestCo:

; 76   :     }

	jmp	$LN2@GreatestCo
$LN1@GreatestCo:

; 77   : }

	lea	rsp, QWORD PTR [rbp+328]
	pop	rdi
	pop	rbp
	ret	0
GreatestCommonDivisor_Imp ENDP
_TEXT	ENDS
; Function compile flags: /Odtp /RTCsu /ZI
; File z:\sources\lunor\repos\rougemeilland\palmtree.math.core.uint\palmtree.math.core.uint\pmc_inline_func.h
;	COMDAT _TZCNT_ALT_UNIT
_TEXT	SEGMENT
pos$ = 4
x$ = 256
_TZCNT_ALT_UNIT PROC					; COMDAT

; 709  :     {

	mov	QWORD PTR [rsp+8], rcx
	push	rbp
	push	rdi
	sub	rsp, 264				; 00000108H
	lea	rbp, QWORD PTR [rsp+32]
	mov	rdi, rsp
	mov	ecx, 66					; 00000042H
	mov	eax, -858993460				; ccccccccH
	rep stosd
	mov	rcx, QWORD PTR [rsp+296]
	lea	rcx, OFFSET FLAT:__8CA3E54E_pmc_inline_func@h
	call	__CheckForDebuggerJustMyCode

; 710  :         if (x == 0)

	cmp	QWORD PTR x$[rbp], 0
	jne	SHORT $LN2@TZCNT_ALT_

; 711  :             return (sizeof(x) * 8);

	mov	eax, 64					; 00000040H
	jmp	SHORT $LN1@TZCNT_ALT_
$LN2@TZCNT_ALT_:

; 712  : #ifdef _M_IX86
; 713  :         _UINT32_T pos;
; 714  : #ifdef _MSC_VER
; 715  :         _BitScanForward(&pos, x);
; 716  : #elif defined(__GNUC__)
; 717  :         __asm__("bsfl %1, %0" : "=r"(pos) : "rm"(x));
; 718  : #else
; 719  : #error unknown compiler
; 720  : #endif
; 721  : #elif defined(_M_X64)
; 722  : #ifdef _MSC_VER
; 723  :         _UINT32_T pos;
; 724  :         _BitScanForward64(&pos, x);

	mov	rax, QWORD PTR x$[rbp]
	bsf	rax, rax
	mov	DWORD PTR pos$[rbp], eax

; 725  : #elif defined(__GNUC__)
; 726  :         _UINT64_T pos;
; 727  :         __asm__("bsfq %1, %0" : "=r"(pos) : "rm"(x));
; 728  : #else
; 729  : #error unknown compiler
; 730  : #endif
; 731  : #else
; 732  : #error unknown platform
; 733  : #endif
; 734  :         return (pos);

	mov	eax, DWORD PTR pos$[rbp]
$LN1@TZCNT_ALT_:

; 735  :     }

	mov	rdi, rax
	lea	rcx, QWORD PTR [rbp-32]
	lea	rdx, OFFSET FLAT:_TZCNT_ALT_UNIT$rtcFrameData
	call	_RTC_CheckStackVars
	mov	rax, rdi
	lea	rsp, QWORD PTR [rbp+232]
	pop	rdi
	pop	rbp
	ret	0
_TZCNT_ALT_UNIT ENDP
_TEXT	ENDS
; Function compile flags: /Odtp /RTCsu /ZI
; File z:\sources\lunor\repos\rougemeilland\palmtree.math.core.uint\palmtree.math.core.uint\pmc_inline_func.h
;	COMDAT _LZCNT_ALT_UNIT
_TEXT	SEGMENT
pos$ = 4
x$ = 256
_LZCNT_ALT_UNIT PROC					; COMDAT

; 629  :     {

	mov	QWORD PTR [rsp+8], rcx
	push	rbp
	push	rdi
	sub	rsp, 264				; 00000108H
	lea	rbp, QWORD PTR [rsp+32]
	mov	rdi, rsp
	mov	ecx, 66					; 00000042H
	mov	eax, -858993460				; ccccccccH
	rep stosd
	mov	rcx, QWORD PTR [rsp+296]
	lea	rcx, OFFSET FLAT:__8CA3E54E_pmc_inline_func@h
	call	__CheckForDebuggerJustMyCode

; 630  :         if (x == 0)

	cmp	QWORD PTR x$[rbp], 0
	jne	SHORT $LN2@LZCNT_ALT_

; 631  :             return (sizeof(x) * 8);

	mov	eax, 64					; 00000040H
	jmp	SHORT $LN1@LZCNT_ALT_
$LN2@LZCNT_ALT_:

; 632  : #ifdef _M_IX86
; 633  :         _UINT32_T pos;
; 634  : #ifdef _MSC_VER
; 635  :         _BitScanReverse(&pos, x);
; 636  : #elif defined(__GNUC__)
; 637  :         __asm__("bsrl %1, %0" : "=r"(pos) : "rm"(x));
; 638  : #else
; 639  : #error unknown compiler
; 640  : #endif
; 641  : #elif defined(_M_X64)
; 642  : #ifdef _MSC_VER
; 643  :         _UINT32_T pos;
; 644  :         _BitScanReverse64(&pos, x);

	mov	rax, QWORD PTR x$[rbp]
	bsr	rax, rax
	mov	DWORD PTR pos$[rbp], eax

; 645  : #elif defined(__GNUC__)
; 646  :         _UINT64_T pos;
; 647  :         __asm__("bsrq %1, %0" : "=r"(pos) : "rm"(x));
; 648  : #else
; 649  : #error unknown compiler
; 650  : #endif
; 651  : #else
; 652  : #error unknown platform
; 653  : #endif
; 654  :         return (sizeof(x) * 8 - 1 - pos);

	mov	eax, DWORD PTR pos$[rbp]
	mov	ecx, 63					; 0000003fH
	sub	rcx, rax
	mov	rax, rcx
$LN1@LZCNT_ALT_:

; 655  :     }

	mov	rdi, rax
	lea	rcx, QWORD PTR [rbp-32]
	lea	rdx, OFFSET FLAT:_LZCNT_ALT_UNIT$rtcFrameData
	call	_RTC_CheckStackVars
	mov	rax, rdi
	lea	rsp, QWORD PTR [rbp+232]
	pop	rdi
	pop	rbp
	ret	0
_LZCNT_ALT_UNIT ENDP
_TEXT	ENDS
; Function compile flags: /Odtp /RTCsu /ZI
; File z:\sources\lunor\repos\rougemeilland\palmtree.math.core.uint\palmtree.math.core.uint\pmc_inline_func.h
;	COMDAT _LZCNT_ALT_32
_TEXT	SEGMENT
pos$ = 4
x$ = 256
_LZCNT_ALT_32 PROC					; COMDAT

; 596  :     {

	mov	DWORD PTR [rsp+8], ecx
	push	rbp
	push	rdi
	sub	rsp, 264				; 00000108H
	lea	rbp, QWORD PTR [rsp+32]
	mov	rdi, rsp
	mov	ecx, 66					; 00000042H
	mov	eax, -858993460				; ccccccccH
	rep stosd
	mov	ecx, DWORD PTR [rsp+296]
	lea	rcx, OFFSET FLAT:__8CA3E54E_pmc_inline_func@h
	call	__CheckForDebuggerJustMyCode

; 597  :         if (x == 0)

	cmp	DWORD PTR x$[rbp], 0
	jne	SHORT $LN2@LZCNT_ALT_

; 598  :             return (sizeof(x) * 8);

	mov	eax, 32					; 00000020H
	jmp	SHORT $LN1@LZCNT_ALT_
$LN2@LZCNT_ALT_:

; 599  :         _UINT32_T pos;
; 600  : #ifdef _MSC_VER
; 601  :         _BitScanReverse(&pos, x);

	mov	eax, DWORD PTR x$[rbp]
	bsr	eax, eax
	mov	DWORD PTR pos$[rbp], eax

; 602  : #elif defined(__GNUC__)
; 603  :         __asm__("bsrl %1, %0" : "=r"(pos) : "rm"(x));
; 604  : #else
; 605  : #error unknown compiler
; 606  : #endif
; 607  :         return (sizeof(x) * 8 - 1 - pos);

	mov	eax, DWORD PTR pos$[rbp]
	mov	ecx, 31
	sub	rcx, rax
	mov	rax, rcx
$LN1@LZCNT_ALT_:

; 608  :     }

	mov	rdi, rax
	lea	rcx, QWORD PTR [rbp-32]
	lea	rdx, OFFSET FLAT:_LZCNT_ALT_32$rtcFrameData
	call	_RTC_CheckStackVars
	mov	rax, rdi
	lea	rsp, QWORD PTR [rbp+232]
	pop	rdi
	pop	rbp
	ret	0
_LZCNT_ALT_32 ENDP
_TEXT	ENDS
; Function compile flags: /Odtp /RTCsu /ZI
; File z:\sources\lunor\repos\rougemeilland\palmtree.math.core.uint\palmtree.math.core.uint\pmc_inline_func.h
;	COMDAT _MINIMUM_UNIT
_TEXT	SEGMENT
tv65 = 192
x$ = 240
y$ = 248
_MINIMUM_UNIT PROC					; COMDAT

; 208  :     {

	mov	QWORD PTR [rsp+16], rdx
	mov	QWORD PTR [rsp+8], rcx
	push	rbp
	push	rdi
	sub	rsp, 248				; 000000f8H
	lea	rbp, QWORD PTR [rsp+32]
	mov	rdi, rsp
	mov	ecx, 62					; 0000003eH
	mov	eax, -858993460				; ccccccccH
	rep stosd
	mov	rcx, QWORD PTR [rsp+280]
	lea	rcx, OFFSET FLAT:__8CA3E54E_pmc_inline_func@h
	call	__CheckForDebuggerJustMyCode

; 209  :         return (x <= y ? x : y);

	mov	rax, QWORD PTR y$[rbp]
	cmp	QWORD PTR x$[rbp], rax
	ja	SHORT $LN3@MINIMUM_UN
	mov	rax, QWORD PTR x$[rbp]
	mov	QWORD PTR tv65[rbp], rax
	jmp	SHORT $LN4@MINIMUM_UN
$LN3@MINIMUM_UN:
	mov	rax, QWORD PTR y$[rbp]
	mov	QWORD PTR tv65[rbp], rax
$LN4@MINIMUM_UN:
	mov	rax, QWORD PTR tv65[rbp]

; 210  :     }

	lea	rsp, QWORD PTR [rbp+216]
	pop	rdi
	pop	rbp
	ret	0
_MINIMUM_UNIT ENDP
_TEXT	ENDS
; Function compile flags: /Odtp /RTCsu /ZI
; File z:\sources\lunor\repos\rougemeilland\palmtree.math.core.uint\palmtree.math.core.uint\pmc_inline_func.h
;	COMDAT _MAXIMUM_UNIT
_TEXT	SEGMENT
tv65 = 192
x$ = 240
y$ = 248
_MAXIMUM_UNIT PROC					; COMDAT

; 203  :     {

	mov	QWORD PTR [rsp+16], rdx
	mov	QWORD PTR [rsp+8], rcx
	push	rbp
	push	rdi
	sub	rsp, 248				; 000000f8H
	lea	rbp, QWORD PTR [rsp+32]
	mov	rdi, rsp
	mov	ecx, 62					; 0000003eH
	mov	eax, -858993460				; ccccccccH
	rep stosd
	mov	rcx, QWORD PTR [rsp+280]
	lea	rcx, OFFSET FLAT:__8CA3E54E_pmc_inline_func@h
	call	__CheckForDebuggerJustMyCode

; 204  :         return (x >= y ? x : y);

	mov	rax, QWORD PTR y$[rbp]
	cmp	QWORD PTR x$[rbp], rax
	jb	SHORT $LN3@MAXIMUM_UN
	mov	rax, QWORD PTR x$[rbp]
	mov	QWORD PTR tv65[rbp], rax
	jmp	SHORT $LN4@MAXIMUM_UN
$LN3@MAXIMUM_UN:
	mov	rax, QWORD PTR y$[rbp]
	mov	QWORD PTR tv65[rbp], rax
$LN4@MAXIMUM_UN:
	mov	rax, QWORD PTR tv65[rbp]

; 205  :     }

	lea	rsp, QWORD PTR [rbp+216]
	pop	rdi
	pop	rbp
	ret	0
_MAXIMUM_UNIT ENDP
_TEXT	ENDS
; Function compile flags: /Odtp /RTCsu /ZI
; File z:\sources\lunor\repos\rougemeilland\palmtree.math.core.uint\palmtree.math.core.uint\pmc_inline_func.h
;	COMDAT _DIVIDE_CEILING_UNIT
_TEXT	SEGMENT
u$ = 224
v$ = 232
_DIVIDE_CEILING_UNIT PROC				; COMDAT

; 193  :     {

	mov	QWORD PTR [rsp+16], rdx
	mov	QWORD PTR [rsp+8], rcx
	push	rbp
	push	rdi
	sub	rsp, 232				; 000000e8H
	lea	rbp, QWORD PTR [rsp+32]
	mov	rdi, rsp
	mov	ecx, 58					; 0000003aH
	mov	eax, -858993460				; ccccccccH
	rep stosd
	mov	rcx, QWORD PTR [rsp+264]
	lea	rcx, OFFSET FLAT:__8CA3E54E_pmc_inline_func@h
	call	__CheckForDebuggerJustMyCode

; 194  :         return ((u + v - 1) / v);

	mov	rax, QWORD PTR u$[rbp]
	mov	rcx, QWORD PTR v$[rbp]
	lea	rax, QWORD PTR [rax+rcx-1]
	xor	edx, edx
	div	QWORD PTR v$[rbp]

; 195  :     }

	lea	rsp, QWORD PTR [rbp+200]
	pop	rdi
	pop	rbp
	ret	0
_DIVIDE_CEILING_UNIT ENDP
_TEXT	ENDS
; Function compile flags: /Odtp /RTCsu /ZI
; File z:\sources\lunor\repos\rougemeilland\palmtree.math.core.uint\palmtree.math.core.uint\pmc_inline_func.h
;	COMDAT _FROMDWORDTOWORD
_TEXT	SEGMENT
value$ = 224
result_high$ = 232
_FROMDWORDTOWORD PROC					; COMDAT

; 182  :     {

	mov	QWORD PTR [rsp+16], rdx
	mov	QWORD PTR [rsp+8], rcx
	push	rbp
	push	rdi
	sub	rsp, 232				; 000000e8H
	lea	rbp, QWORD PTR [rsp+32]
	mov	rdi, rsp
	mov	ecx, 58					; 0000003aH
	mov	eax, -858993460				; ccccccccH
	rep stosd
	mov	rcx, QWORD PTR [rsp+264]
	lea	rcx, OFFSET FLAT:__8CA3E54E_pmc_inline_func@h
	call	__CheckForDebuggerJustMyCode

; 183  :         *result_high = (_UINT32_T)(value >> 32);

	mov	rax, QWORD PTR value$[rbp]
	shr	rax, 32					; 00000020H
	mov	rcx, QWORD PTR result_high$[rbp]
	mov	DWORD PTR [rcx], eax

; 184  :         return ((_UINT32_T)value);

	mov	eax, DWORD PTR value$[rbp]

; 185  :     }

	lea	rsp, QWORD PTR [rbp+200]
	pop	rdi
	pop	rbp
	ret	0
_FROMDWORDTOWORD ENDP
_TEXT	ENDS
; Function compile flags: /Odtp /RTCsu /ZI
; File z:\sources\lunor\repos\rougemeilland\palmtree.math.core.uint\palmtree.math.core.uint\pmc_inline_func.h
;	COMDAT _COPY_MEMORY_UNIT
_TEXT	SEGMENT
d$ = 224
s$ = 232
count$ = 240
_COPY_MEMORY_UNIT PROC					; COMDAT

; 66   :     {

	mov	QWORD PTR [rsp+24], r8
	mov	QWORD PTR [rsp+16], rdx
	mov	QWORD PTR [rsp+8], rcx
	push	rbp
	push	rsi
	push	rdi
	sub	rsp, 224				; 000000e0H
	lea	rbp, QWORD PTR [rsp+32]
	mov	rdi, rsp
	mov	ecx, 56					; 00000038H
	mov	eax, -858993460				; ccccccccH
	rep stosd
	mov	rcx, QWORD PTR [rsp+264]
	lea	rcx, OFFSET FLAT:__8CA3E54E_pmc_inline_func@h
	call	__CheckForDebuggerJustMyCode

; 67   : #ifdef _M_IX86
; 68   :         __movsd((unsigned long *)d, (unsigned long *)s, (unsigned long)count);
; 69   : #elif defined(_M_X64)
; 70   :         __movsq(d, s, count);

	mov	rdi, QWORD PTR d$[rbp]
	mov	rsi, QWORD PTR s$[rbp]
	mov	rcx, QWORD PTR count$[rbp]
	rep movsq

; 71   : #else
; 72   : #error unknown platform
; 73   : #endif
; 74   :     }

	lea	rsp, QWORD PTR [rbp+192]
	pop	rdi
	pop	rsi
	pop	rbp
	ret	0
_COPY_MEMORY_UNIT ENDP
_TEXT	ENDS
; Function compile flags: /Odtp /RTCsu /ZI
; File z:\sources\lunor\repos\rougemeilland\palmtree.math.core.uint\palmtree.math.core.uint\pmc_greatestcommondivisor.c
;	COMDAT PMC_GreatestCommonDivisor_X_X
_TEXT	SEGMENT
nu$ = 8
nv$ = 40
result$ = 68
nw$ = 104
u_bit_count$10 = 136
v_bit_count$11 = 168
work_bit_count$12 = 200
work_u_buf_code$13 = 232
work_u_buf_words$14 = 264
work_u_buf$15 = 296
work_v_buf_code$16 = 328
work_v_buf_words$17 = 360
work_v_buf$18 = 392
nw_check_code$19 = 424
u_tzcnt$20 = 456
v_tzcnt$21 = 488
k$22 = 520
w_buf_count$23 = 552
u$ = 992
v$ = 1000
w$ = 1008
PMC_GreatestCommonDivisor_X_X PROC			; COMDAT

; 488  : {

$LN28:
	mov	QWORD PTR [rsp+24], r8
	mov	QWORD PTR [rsp+16], rdx
	mov	QWORD PTR [rsp+8], rcx
	push	rbp
	push	rdi
	sub	rsp, 1016				; 000003f8H
	lea	rbp, QWORD PTR [rsp+48]
	mov	rdi, rsp
	mov	ecx, 254				; 000000feH
	mov	eax, -858993460				; ccccccccH
	rep stosd
	mov	rcx, QWORD PTR [rsp+1048]
	lea	rcx, OFFSET FLAT:__3257AA0B_pmc_greatestcommondivisor@c
	call	__CheckForDebuggerJustMyCode

; 489  :     if (u == NULL)

	cmp	QWORD PTR u$[rbp], 0
	jne	SHORT $LN2@PMC_Greate

; 490  :         return (PMC_STATUS_ARGUMENT_ERROR);

	mov	eax, -1
	jmp	$LN1@PMC_Greate
$LN2@PMC_Greate:

; 491  :     if (v == NULL)

	cmp	QWORD PTR v$[rbp], 0
	jne	SHORT $LN3@PMC_Greate

; 492  :         return (PMC_STATUS_ARGUMENT_ERROR);

	mov	eax, -1
	jmp	$LN1@PMC_Greate
$LN3@PMC_Greate:

; 493  :     if (w == NULL)

	cmp	QWORD PTR w$[rbp], 0
	jne	SHORT $LN4@PMC_Greate

; 494  :         return (PMC_STATUS_ARGUMENT_ERROR);

	mov	eax, -1
	jmp	$LN1@PMC_Greate
$LN4@PMC_Greate:

; 495  :     NUMBER_HEADER* nu = (NUMBER_HEADER*)u;

	mov	rax, QWORD PTR u$[rbp]
	mov	QWORD PTR nu$[rbp], rax

; 496  :     NUMBER_HEADER* nv = (NUMBER_HEADER*)v;

	mov	rax, QWORD PTR v$[rbp]
	mov	QWORD PTR nv$[rbp], rax

; 497  :     PMC_STATUS_CODE result;
; 498  :     if ((result = CheckNumber(nu)) != PMC_STATUS_OK)

	mov	rcx, QWORD PTR nu$[rbp]
	call	CheckNumber
	mov	DWORD PTR result$[rbp], eax
	cmp	DWORD PTR result$[rbp], 0
	je	SHORT $LN5@PMC_Greate

; 499  :         return (result);

	mov	eax, DWORD PTR result$[rbp]
	jmp	$LN1@PMC_Greate
$LN5@PMC_Greate:

; 500  :     if ((result = CheckNumber(nv)) != PMC_STATUS_OK)

	mov	rcx, QWORD PTR nv$[rbp]
	call	CheckNumber
	mov	DWORD PTR result$[rbp], eax
	cmp	DWORD PTR result$[rbp], 0
	je	SHORT $LN6@PMC_Greate

; 501  :         return (result);

	mov	eax, DWORD PTR result$[rbp]
	jmp	$LN1@PMC_Greate
$LN6@PMC_Greate:

; 502  :     NUMBER_HEADER* nw;
; 503  :     if (nu->IS_ZERO)

	mov	rax, QWORD PTR nu$[rbp]
	mov	eax, DWORD PTR [rax+40]
	shr	eax, 1
	and	eax, 1
	test	eax, eax
	je	SHORT $LN7@PMC_Greate

; 504  :     {
; 505  :         // u が 0 である場合
; 506  : 
; 507  :         if (nv->IS_ZERO)

	mov	rax, QWORD PTR nv$[rbp]
	mov	eax, DWORD PTR [rax+40]
	shr	eax, 1
	and	eax, 1
	test	eax, eax
	je	SHORT $LN9@PMC_Greate

; 508  :         {
; 509  :             // v が 0 である場合
; 510  : 
; 511  :             // u と v がともに 0 であり、GCD は一意に存在しないため、エラーを返す。
; 512  :             return (PMC_STATUS_ARGUMENT_ERROR);

	mov	eax, -1
	jmp	$LN1@PMC_Greate

; 513  :         }

	jmp	SHORT $LN10@PMC_Greate
$LN9@PMC_Greate:

; 514  :         else
; 515  :         {
; 516  :             // v が 0 ではない場合
; 517  : 
; 518  :             // GCD は v そのものであるため、v を計算結果として返す。
; 519  :             if ((result = DuplicateNumber(nv, &nw)) != PMC_STATUS_OK)

	lea	rdx, QWORD PTR nw$[rbp]
	mov	rcx, QWORD PTR nv$[rbp]
	call	DuplicateNumber
	mov	DWORD PTR result$[rbp], eax
	cmp	DWORD PTR result$[rbp], 0
	je	SHORT $LN11@PMC_Greate

; 520  :                 return (result);

	mov	eax, DWORD PTR result$[rbp]
	jmp	$LN1@PMC_Greate
$LN11@PMC_Greate:

; 521  :             *w = nw;

	mov	rax, QWORD PTR w$[rbp]
	mov	rcx, QWORD PTR nw$[rbp]
	mov	QWORD PTR [rax], rcx
$LN10@PMC_Greate:

; 522  :         }
; 523  :     }

	jmp	$LN8@PMC_Greate
$LN7@PMC_Greate:

; 524  :     else
; 525  :     {
; 526  :         // u が 0 ではない場合
; 527  : 
; 528  :         if (nv->IS_ZERO)

	mov	rax, QWORD PTR nv$[rbp]
	mov	eax, DWORD PTR [rax+40]
	shr	eax, 1
	and	eax, 1
	test	eax, eax
	je	SHORT $LN12@PMC_Greate

; 529  :         {
; 530  :             // v が 0 である場合
; 531  : 
; 532  :             // GCD は u そのものであるため、u を計算結果として返す。
; 533  :             if ((result = DuplicateNumber(nu, &nw)) != PMC_STATUS_OK)

	lea	rdx, QWORD PTR nw$[rbp]
	mov	rcx, QWORD PTR nu$[rbp]
	call	DuplicateNumber
	mov	DWORD PTR result$[rbp], eax
	cmp	DWORD PTR result$[rbp], 0
	je	SHORT $LN14@PMC_Greate

; 534  :                 return (result);

	mov	eax, DWORD PTR result$[rbp]
	jmp	$LN1@PMC_Greate
$LN14@PMC_Greate:

; 535  :             *w = nw;

	mov	rax, QWORD PTR w$[rbp]
	mov	rcx, QWORD PTR nw$[rbp]
	mov	QWORD PTR [rax], rcx

; 536  :         }

	jmp	$LN13@PMC_Greate
$LN12@PMC_Greate:

; 537  :         else
; 538  :         {
; 539  :             // u と v がともに 0 ではない場合
; 540  : 
; 541  :             // u と v の GCD を計算する
; 542  :             __UNIT_TYPE u_bit_count = nu->UNIT_BIT_COUNT;

	mov	rax, QWORD PTR nu$[rbp]
	mov	rax, QWORD PTR [rax+16]
	mov	QWORD PTR u_bit_count$10[rbp], rax

; 543  :             __UNIT_TYPE v_bit_count = nv->UNIT_BIT_COUNT;

	mov	rax, QWORD PTR nv$[rbp]
	mov	rax, QWORD PTR [rax+16]
	mov	QWORD PTR v_bit_count$11[rbp], rax

; 544  :             __UNIT_TYPE work_bit_count = _MAXIMUM_UNIT(u_bit_count, v_bit_count);

	mov	rdx, QWORD PTR v_bit_count$11[rbp]
	mov	rcx, QWORD PTR u_bit_count$10[rbp]
	call	_MAXIMUM_UNIT
	mov	QWORD PTR work_bit_count$12[rbp], rax

; 545  : 
; 546  :             __UNIT_TYPE work_u_buf_code;
; 547  :             __UNIT_TYPE work_u_buf_words;
; 548  :             __UNIT_TYPE* work_u_buf = AllocateBlock(work_bit_count, &work_u_buf_words, &work_u_buf_code);

	lea	r8, QWORD PTR work_u_buf_code$13[rbp]
	lea	rdx, QWORD PTR work_u_buf_words$14[rbp]
	mov	rcx, QWORD PTR work_bit_count$12[rbp]
	call	AllocateBlock
	mov	QWORD PTR work_u_buf$15[rbp], rax

; 549  :             if (work_u_buf == NULL)

	cmp	QWORD PTR work_u_buf$15[rbp], 0
	jne	SHORT $LN15@PMC_Greate

; 550  :                 return (PMC_STATUS_NOT_ENOUGH_MEMORY);

	mov	eax, -5
	jmp	$LN1@PMC_Greate
$LN15@PMC_Greate:

; 551  : 
; 552  :             __UNIT_TYPE work_v_buf_code;
; 553  :             __UNIT_TYPE work_v_buf_words;
; 554  :             __UNIT_TYPE* work_v_buf = AllocateBlock(work_bit_count, &work_v_buf_words, &work_v_buf_code);

	lea	r8, QWORD PTR work_v_buf_code$16[rbp]
	lea	rdx, QWORD PTR work_v_buf_words$17[rbp]
	mov	rcx, QWORD PTR work_bit_count$12[rbp]
	call	AllocateBlock
	mov	QWORD PTR work_v_buf$18[rbp], rax

; 555  :             if (work_v_buf == NULL)

	cmp	QWORD PTR work_v_buf$18[rbp], 0
	jne	SHORT $LN16@PMC_Greate

; 556  :             {
; 557  :                 DeallocateBlock(work_u_buf, work_u_buf_words);

	mov	rdx, QWORD PTR work_u_buf_words$14[rbp]
	mov	rcx, QWORD PTR work_u_buf$15[rbp]
	call	DeallocateBlock

; 558  :                 return (PMC_STATUS_NOT_ENOUGH_MEMORY);

	mov	eax, -5
	jmp	$LN1@PMC_Greate
$LN16@PMC_Greate:

; 559  :             }
; 560  : 
; 561  :             __UNIT_TYPE nw_check_code;
; 562  :             if ((result = AllocateNumber(&nw, work_bit_count, &nw_check_code)) != PMC_STATUS_OK)

	lea	r8, QWORD PTR nw_check_code$19[rbp]
	mov	rdx, QWORD PTR work_bit_count$12[rbp]
	lea	rcx, QWORD PTR nw$[rbp]
	call	AllocateNumber
	mov	DWORD PTR result$[rbp], eax
	cmp	DWORD PTR result$[rbp], 0
	je	SHORT $LN17@PMC_Greate

; 563  :             {
; 564  :                 DeallocateBlock(work_v_buf, work_v_buf_words);

	mov	rdx, QWORD PTR work_v_buf_words$17[rbp]
	mov	rcx, QWORD PTR work_v_buf$18[rbp]
	call	DeallocateBlock

; 565  :                 DeallocateBlock(work_u_buf, work_u_buf_words);

	mov	rdx, QWORD PTR work_u_buf_words$14[rbp]
	mov	rcx, QWORD PTR work_u_buf$15[rbp]
	call	DeallocateBlock

; 566  :                 return (result);

	mov	eax, DWORD PTR result$[rbp]
	jmp	$LN1@PMC_Greate
$LN17@PMC_Greate:

; 567  :             }
; 568  : 
; 569  :             __UNIT_TYPE u_tzcnt = nu->TRAILING_ZERO_BITS_COUNT;

	mov	rax, QWORD PTR nu$[rbp]
	mov	rax, QWORD PTR [rax+32]
	mov	QWORD PTR u_tzcnt$20[rbp], rax

; 570  :             __UNIT_TYPE v_tzcnt = nv->TRAILING_ZERO_BITS_COUNT;

	mov	rax, QWORD PTR nv$[rbp]
	mov	rax, QWORD PTR [rax+32]
	mov	QWORD PTR v_tzcnt$21[rbp], rax

; 571  :             __UNIT_TYPE k = _MINIMUM_UNIT(u_tzcnt, v_tzcnt);

	mov	rdx, QWORD PTR v_tzcnt$21[rbp]
	mov	rcx, QWORD PTR u_tzcnt$20[rbp]
	call	_MINIMUM_UNIT
	mov	QWORD PTR k$22[rbp], rax

; 572  :             if (u_tzcnt > 0)

	cmp	QWORD PTR u_tzcnt$20[rbp], 0
	jbe	SHORT $LN18@PMC_Greate

; 573  :                 RightShift_Imp(nu->BLOCK, nu->UNIT_WORD_COUNT, u_tzcnt, work_u_buf, FALSE);

	mov	DWORD PTR [rsp+32], 0
	mov	r9, QWORD PTR work_u_buf$15[rbp]
	mov	r8, QWORD PTR u_tzcnt$20[rbp]
	mov	rax, QWORD PTR nu$[rbp]
	mov	rdx, QWORD PTR [rax+8]
	mov	rax, QWORD PTR nu$[rbp]
	mov	rcx, QWORD PTR [rax+56]
	call	RightShift_Imp
	jmp	SHORT $LN19@PMC_Greate
$LN18@PMC_Greate:

; 574  :             else
; 575  :                 _COPY_MEMORY_UNIT(work_u_buf, nu->BLOCK, nu->UNIT_WORD_COUNT);

	mov	rax, QWORD PTR nu$[rbp]
	mov	r8, QWORD PTR [rax+8]
	mov	rax, QWORD PTR nu$[rbp]
	mov	rdx, QWORD PTR [rax+56]
	mov	rcx, QWORD PTR work_u_buf$15[rbp]
	call	_COPY_MEMORY_UNIT
$LN19@PMC_Greate:

; 576  :             if (v_tzcnt > 0)

	cmp	QWORD PTR v_tzcnt$21[rbp], 0
	jbe	SHORT $LN20@PMC_Greate

; 577  :                 RightShift_Imp(nv->BLOCK, nv->UNIT_WORD_COUNT, v_tzcnt, work_v_buf, FALSE);

	mov	DWORD PTR [rsp+32], 0
	mov	r9, QWORD PTR work_v_buf$18[rbp]
	mov	r8, QWORD PTR v_tzcnt$21[rbp]
	mov	rax, QWORD PTR nv$[rbp]
	mov	rdx, QWORD PTR [rax+8]
	mov	rax, QWORD PTR nv$[rbp]
	mov	rcx, QWORD PTR [rax+56]
	call	RightShift_Imp
	jmp	SHORT $LN21@PMC_Greate
$LN20@PMC_Greate:

; 578  :             else
; 579  :                 _COPY_MEMORY_UNIT(work_v_buf, nv->BLOCK, nv->UNIT_WORD_COUNT);

	mov	rax, QWORD PTR nv$[rbp]
	mov	r8, QWORD PTR [rax+8]
	mov	rax, QWORD PTR nv$[rbp]
	mov	rdx, QWORD PTR [rax+56]
	mov	rcx, QWORD PTR work_v_buf$18[rbp]
	call	_COPY_MEMORY_UNIT
$LN21@PMC_Greate:

; 580  : 
; 581  :             __UNIT_TYPE w_buf_count;
; 582  :             GreatestCommonDivisor_Imp(work_u_buf, work_v_buf, _DIVIDE_CEILING_UNIT(work_bit_count, __UNIT_TYPE_BIT_COUNT), nw->BLOCK, &w_buf_count);

	mov	edx, 64					; 00000040H
	mov	rcx, QWORD PTR work_bit_count$12[rbp]
	call	_DIVIDE_CEILING_UNIT
	lea	rcx, QWORD PTR w_buf_count$23[rbp]
	mov	QWORD PTR [rsp+32], rcx
	mov	rcx, QWORD PTR nw$[rbp]
	mov	r9, QWORD PTR [rcx+56]
	mov	r8, rax
	mov	rdx, QWORD PTR work_v_buf$18[rbp]
	mov	rcx, QWORD PTR work_u_buf$15[rbp]
	call	GreatestCommonDivisor_Imp

; 583  :             if ((result = CheckBlockLight(work_u_buf, work_u_buf_code)) != PMC_STATUS_OK)

	mov	rdx, QWORD PTR work_u_buf_code$13[rbp]
	mov	rcx, QWORD PTR work_u_buf$15[rbp]
	call	CheckBlockLight
	mov	DWORD PTR result$[rbp], eax
	cmp	DWORD PTR result$[rbp], 0
	je	SHORT $LN22@PMC_Greate

; 584  :                 return (result);

	mov	eax, DWORD PTR result$[rbp]
	jmp	$LN1@PMC_Greate
$LN22@PMC_Greate:

; 585  :             if ((result = CheckBlockLight(work_v_buf, work_v_buf_code)) != PMC_STATUS_OK)

	mov	rdx, QWORD PTR work_v_buf_code$16[rbp]
	mov	rcx, QWORD PTR work_v_buf$18[rbp]
	call	CheckBlockLight
	mov	DWORD PTR result$[rbp], eax
	cmp	DWORD PTR result$[rbp], 0
	je	SHORT $LN23@PMC_Greate

; 586  :                 return (result);

	mov	eax, DWORD PTR result$[rbp]
	jmp	$LN1@PMC_Greate
$LN23@PMC_Greate:

; 587  :             if ((result = CheckBlockLight(nw->BLOCK, nw_check_code)) != PMC_STATUS_OK)

	mov	rdx, QWORD PTR nw_check_code$19[rbp]
	mov	rax, QWORD PTR nw$[rbp]
	mov	rcx, QWORD PTR [rax+56]
	call	CheckBlockLight
	mov	DWORD PTR result$[rbp], eax
	cmp	DWORD PTR result$[rbp], 0
	je	SHORT $LN24@PMC_Greate

; 588  :                 return (result);

	mov	eax, DWORD PTR result$[rbp]
	jmp	$LN1@PMC_Greate
$LN24@PMC_Greate:

; 589  :             DeallocateBlock(work_v_buf, work_v_buf_words);

	mov	rdx, QWORD PTR work_v_buf_words$17[rbp]
	mov	rcx, QWORD PTR work_v_buf$18[rbp]
	call	DeallocateBlock

; 590  :             DeallocateBlock(work_u_buf, work_u_buf_words);

	mov	rdx, QWORD PTR work_u_buf_words$14[rbp]
	mov	rcx, QWORD PTR work_u_buf$15[rbp]
	call	DeallocateBlock

; 591  : 
; 592  :             LeftShift_Imp(nw->BLOCK, w_buf_count, k, nw->BLOCK, TRUE);

	mov	DWORD PTR [rsp+32], 1
	mov	rax, QWORD PTR nw$[rbp]
	mov	r9, QWORD PTR [rax+56]
	mov	r8, QWORD PTR k$22[rbp]
	mov	rdx, QWORD PTR w_buf_count$23[rbp]
	mov	rax, QWORD PTR nw$[rbp]
	mov	rcx, QWORD PTR [rax+56]
	call	LeftShift_Imp

; 593  :             if ((result = CheckBlockLight(nw->BLOCK, nw_check_code)) != PMC_STATUS_OK)

	mov	rdx, QWORD PTR nw_check_code$19[rbp]
	mov	rax, QWORD PTR nw$[rbp]
	mov	rcx, QWORD PTR [rax+56]
	call	CheckBlockLight
	mov	DWORD PTR result$[rbp], eax
	cmp	DWORD PTR result$[rbp], 0
	je	SHORT $LN25@PMC_Greate

; 594  :                 return (result);

	mov	eax, DWORD PTR result$[rbp]
	jmp	SHORT $LN1@PMC_Greate
$LN25@PMC_Greate:

; 595  :             CommitNumber(nw);

	mov	rcx, QWORD PTR nw$[rbp]
	call	CommitNumber

; 596  :             *w = nw;

	mov	rax, QWORD PTR w$[rbp]
	mov	rcx, QWORD PTR nw$[rbp]
	mov	QWORD PTR [rax], rcx
$LN13@PMC_Greate:
$LN8@PMC_Greate:

; 597  :         }
; 598  :     }
; 599  : #ifdef _DEBUG
; 600  :     if ((result = CheckNumber(*w)) != PMC_STATUS_OK)

	mov	rax, QWORD PTR w$[rbp]
	mov	rcx, QWORD PTR [rax]
	call	CheckNumber
	mov	DWORD PTR result$[rbp], eax
	cmp	DWORD PTR result$[rbp], 0
	je	SHORT $LN26@PMC_Greate

; 601  :         return (result);

	mov	eax, DWORD PTR result$[rbp]
	jmp	SHORT $LN1@PMC_Greate
$LN26@PMC_Greate:

; 602  : #endif
; 603  :     return (PMC_STATUS_OK);

	xor	eax, eax
$LN1@PMC_Greate:

; 604  : }

	mov	rdi, rax
	lea	rcx, QWORD PTR [rbp-48]
	lea	rdx, OFFSET FLAT:PMC_GreatestCommonDivisor_X_X$rtcFrameData
	call	_RTC_CheckStackVars
	mov	rax, rdi
	lea	rsp, QWORD PTR [rbp+968]
	pop	rdi
	pop	rbp
	ret	0
PMC_GreatestCommonDivisor_X_X ENDP
_TEXT	ENDS
; Function compile flags: /Odtp /RTCsu /ZI
; File z:\sources\lunor\repos\rougemeilland\palmtree.math.core.uint\palmtree.math.core.uint\pmc_greatestcommondivisor.c
;	COMDAT PMC_GreatestCommonDivisor_X_L
_TEXT	SEGMENT
result$ = 4
u$ = 256
v$ = 264
w$ = 272
PMC_GreatestCommonDivisor_X_L PROC			; COMDAT

; 465  : {

$LN9:
	mov	QWORD PTR [rsp+24], r8
	mov	QWORD PTR [rsp+16], rdx
	mov	QWORD PTR [rsp+8], rcx
	push	rbp
	push	rdi
	sub	rsp, 264				; 00000108H
	lea	rbp, QWORD PTR [rsp+32]
	mov	rdi, rsp
	mov	ecx, 66					; 00000042H
	mov	eax, -858993460				; ccccccccH
	rep stosd
	mov	rcx, QWORD PTR [rsp+296]
	lea	rcx, OFFSET FLAT:__3257AA0B_pmc_greatestcommondivisor@c
	call	__CheckForDebuggerJustMyCode

; 466  :     if (__UNIT_TYPE_BIT_COUNT * 2 < sizeof(v) * 8)

	xor	eax, eax
	test	eax, eax
	je	SHORT $LN2@PMC_Greate

; 467  :     {
; 468  :         // _UINT64_T が 2 ワードで表現しきれない処理系には対応しない
; 469  :         return (PMC_STATUS_INTERNAL_ERROR);

	mov	eax, -256				; ffffffffffffff00H
	jmp	$LN1@PMC_Greate
$LN2@PMC_Greate:

; 470  :     }
; 471  :     if (u == NULL)

	cmp	QWORD PTR u$[rbp], 0
	jne	SHORT $LN3@PMC_Greate

; 472  :         return (PMC_STATUS_ARGUMENT_ERROR);

	mov	eax, -1
	jmp	SHORT $LN1@PMC_Greate
$LN3@PMC_Greate:

; 473  :     if (w == NULL)

	cmp	QWORD PTR w$[rbp], 0
	jne	SHORT $LN4@PMC_Greate

; 474  :         return (PMC_STATUS_ARGUMENT_ERROR);

	mov	eax, -1
	jmp	SHORT $LN1@PMC_Greate
$LN4@PMC_Greate:

; 475  :     PMC_STATUS_CODE result;
; 476  :     if ((result = CheckNumber((NUMBER_HEADER*)u)) != PMC_STATUS_OK)

	mov	rcx, QWORD PTR u$[rbp]
	call	CheckNumber
	mov	DWORD PTR result$[rbp], eax
	cmp	DWORD PTR result$[rbp], 0
	je	SHORT $LN5@PMC_Greate

; 477  :         return (result);

	mov	eax, DWORD PTR result$[rbp]
	jmp	SHORT $LN1@PMC_Greate
$LN5@PMC_Greate:

; 478  :     if ((result = PMC_GreatestCommonDivisor_X_L_Imp((NUMBER_HEADER*)u, v, (NUMBER_HEADER**)w)) != PMC_STATUS_OK)

	mov	r8, QWORD PTR w$[rbp]
	mov	rdx, QWORD PTR v$[rbp]
	mov	rcx, QWORD PTR u$[rbp]
	call	PMC_GreatestCommonDivisor_X_L_Imp
	mov	DWORD PTR result$[rbp], eax
	cmp	DWORD PTR result$[rbp], 0
	je	SHORT $LN6@PMC_Greate

; 479  :         return (result);

	mov	eax, DWORD PTR result$[rbp]
	jmp	SHORT $LN1@PMC_Greate
$LN6@PMC_Greate:

; 480  : #ifdef _DEBUG
; 481  :     if ((result = CheckNumber(*w)) != PMC_STATUS_OK)

	mov	rax, QWORD PTR w$[rbp]
	mov	rcx, QWORD PTR [rax]
	call	CheckNumber
	mov	DWORD PTR result$[rbp], eax
	cmp	DWORD PTR result$[rbp], 0
	je	SHORT $LN7@PMC_Greate

; 482  :         return (result);

	mov	eax, DWORD PTR result$[rbp]
	jmp	SHORT $LN1@PMC_Greate
$LN7@PMC_Greate:

; 483  : #endif
; 484  :     return (PMC_STATUS_OK);

	xor	eax, eax
$LN1@PMC_Greate:

; 485  : }

	lea	rsp, QWORD PTR [rbp+232]
	pop	rdi
	pop	rbp
	ret	0
PMC_GreatestCommonDivisor_X_L ENDP
_TEXT	ENDS
; Function compile flags: /Odtp /RTCsu /ZI
; File z:\sources\lunor\repos\rougemeilland\palmtree.math.core.uint\palmtree.math.core.uint\pmc_greatestcommondivisor.c
;	COMDAT PMC_GreatestCommonDivisor_X_I
_TEXT	SEGMENT
result$ = 4
u$ = 256
v$ = 264
w$ = 272
PMC_GreatestCommonDivisor_X_I PROC			; COMDAT

; 199  : {

$LN9:
	mov	QWORD PTR [rsp+24], r8
	mov	DWORD PTR [rsp+16], edx
	mov	QWORD PTR [rsp+8], rcx
	push	rbp
	push	rdi
	sub	rsp, 264				; 00000108H
	lea	rbp, QWORD PTR [rsp+32]
	mov	rdi, rsp
	mov	ecx, 66					; 00000042H
	mov	eax, -858993460				; ccccccccH
	rep stosd
	mov	rcx, QWORD PTR [rsp+296]
	lea	rcx, OFFSET FLAT:__3257AA0B_pmc_greatestcommondivisor@c
	call	__CheckForDebuggerJustMyCode

; 200  :     if (__UNIT_TYPE_BIT_COUNT < sizeof(v) * 8)

	xor	eax, eax
	test	eax, eax
	je	SHORT $LN2@PMC_Greate

; 201  :     {
; 202  :         // _UINT32_T が 1 ワードで表現しきれない処理系には対応しない
; 203  :         return (PMC_STATUS_INTERNAL_ERROR);

	mov	eax, -256				; ffffffffffffff00H
	jmp	$LN1@PMC_Greate
$LN2@PMC_Greate:

; 204  :     }
; 205  :     if (u == NULL)

	cmp	QWORD PTR u$[rbp], 0
	jne	SHORT $LN3@PMC_Greate

; 206  :         return (PMC_STATUS_ARGUMENT_ERROR);

	mov	eax, -1
	jmp	SHORT $LN1@PMC_Greate
$LN3@PMC_Greate:

; 207  :     if (w == NULL)

	cmp	QWORD PTR w$[rbp], 0
	jne	SHORT $LN4@PMC_Greate

; 208  :         return (PMC_STATUS_ARGUMENT_ERROR);

	mov	eax, -1
	jmp	SHORT $LN1@PMC_Greate
$LN4@PMC_Greate:

; 209  :     PMC_STATUS_CODE result;
; 210  :     if ((result = CheckNumber((NUMBER_HEADER*)u)) != PMC_STATUS_OK)

	mov	rcx, QWORD PTR u$[rbp]
	call	CheckNumber
	mov	DWORD PTR result$[rbp], eax
	cmp	DWORD PTR result$[rbp], 0
	je	SHORT $LN5@PMC_Greate

; 211  :         return (result);

	mov	eax, DWORD PTR result$[rbp]
	jmp	SHORT $LN1@PMC_Greate
$LN5@PMC_Greate:

; 212  :     if ((result = PMC_GreatestCommonDivisor_X_I_Imp((NUMBER_HEADER*)u, v, (NUMBER_HEADER**)w)) != PMC_STATUS_OK)

	mov	r8, QWORD PTR w$[rbp]
	mov	edx, DWORD PTR v$[rbp]
	mov	rcx, QWORD PTR u$[rbp]
	call	PMC_GreatestCommonDivisor_X_I_Imp
	mov	DWORD PTR result$[rbp], eax
	cmp	DWORD PTR result$[rbp], 0
	je	SHORT $LN6@PMC_Greate

; 213  :         return (result);

	mov	eax, DWORD PTR result$[rbp]
	jmp	SHORT $LN1@PMC_Greate
$LN6@PMC_Greate:

; 214  : #ifdef _DEBUG
; 215  :     if ((result = CheckNumber(*w)) != PMC_STATUS_OK)

	mov	rax, QWORD PTR w$[rbp]
	mov	rcx, QWORD PTR [rax]
	call	CheckNumber
	mov	DWORD PTR result$[rbp], eax
	cmp	DWORD PTR result$[rbp], 0
	je	SHORT $LN7@PMC_Greate

; 216  :         return (result);

	mov	eax, DWORD PTR result$[rbp]
	jmp	SHORT $LN1@PMC_Greate
$LN7@PMC_Greate:

; 217  : #endif
; 218  :     return (PMC_STATUS_OK);

	xor	eax, eax
$LN1@PMC_Greate:

; 219  : }

	lea	rsp, QWORD PTR [rbp+232]
	pop	rdi
	pop	rbp
	ret	0
PMC_GreatestCommonDivisor_X_I ENDP
_TEXT	ENDS
; Function compile flags: /Odtp /RTCsu /ZI
; File z:\sources\lunor\repos\rougemeilland\palmtree.math.core.uint\palmtree.math.core.uint\pmc_greatestcommondivisor.c
;	COMDAT PMC_GreatestCommonDivisor_L_X
_TEXT	SEGMENT
result$ = 4
u$ = 256
v$ = 264
w$ = 272
PMC_GreatestCommonDivisor_L_X PROC			; COMDAT

; 442  : {

$LN9:
	mov	QWORD PTR [rsp+24], r8
	mov	QWORD PTR [rsp+16], rdx
	mov	QWORD PTR [rsp+8], rcx
	push	rbp
	push	rdi
	sub	rsp, 264				; 00000108H
	lea	rbp, QWORD PTR [rsp+32]
	mov	rdi, rsp
	mov	ecx, 66					; 00000042H
	mov	eax, -858993460				; ccccccccH
	rep stosd
	mov	rcx, QWORD PTR [rsp+296]
	lea	rcx, OFFSET FLAT:__3257AA0B_pmc_greatestcommondivisor@c
	call	__CheckForDebuggerJustMyCode

; 443  :     if (__UNIT_TYPE_BIT_COUNT * 2 < sizeof(u) * 8)

	xor	eax, eax
	test	eax, eax
	je	SHORT $LN2@PMC_Greate

; 444  :     {
; 445  :         // _UINT64_T が 2 ワードで表現しきれない処理系には対応しない
; 446  :         return (PMC_STATUS_INTERNAL_ERROR);

	mov	eax, -256				; ffffffffffffff00H
	jmp	$LN1@PMC_Greate
$LN2@PMC_Greate:

; 447  :     }
; 448  :     if (v == NULL)

	cmp	QWORD PTR v$[rbp], 0
	jne	SHORT $LN3@PMC_Greate

; 449  :         return (PMC_STATUS_ARGUMENT_ERROR);

	mov	eax, -1
	jmp	SHORT $LN1@PMC_Greate
$LN3@PMC_Greate:

; 450  :     if (w == NULL)

	cmp	QWORD PTR w$[rbp], 0
	jne	SHORT $LN4@PMC_Greate

; 451  :         return (PMC_STATUS_ARGUMENT_ERROR);

	mov	eax, -1
	jmp	SHORT $LN1@PMC_Greate
$LN4@PMC_Greate:

; 452  :     PMC_STATUS_CODE result;
; 453  :     if ((result = CheckNumber((NUMBER_HEADER*)v)) != PMC_STATUS_OK)

	mov	rcx, QWORD PTR v$[rbp]
	call	CheckNumber
	mov	DWORD PTR result$[rbp], eax
	cmp	DWORD PTR result$[rbp], 0
	je	SHORT $LN5@PMC_Greate

; 454  :         return (result);

	mov	eax, DWORD PTR result$[rbp]
	jmp	SHORT $LN1@PMC_Greate
$LN5@PMC_Greate:

; 455  :     if ((result = PMC_GreatestCommonDivisor_X_L_Imp((NUMBER_HEADER*)v, u, (NUMBER_HEADER**)w)) != PMC_STATUS_OK)

	mov	r8, QWORD PTR w$[rbp]
	mov	rdx, QWORD PTR u$[rbp]
	mov	rcx, QWORD PTR v$[rbp]
	call	PMC_GreatestCommonDivisor_X_L_Imp
	mov	DWORD PTR result$[rbp], eax
	cmp	DWORD PTR result$[rbp], 0
	je	SHORT $LN6@PMC_Greate

; 456  :         return (result);

	mov	eax, DWORD PTR result$[rbp]
	jmp	SHORT $LN1@PMC_Greate
$LN6@PMC_Greate:

; 457  : #ifdef _DEBUG
; 458  :     if ((result = CheckNumber(*w)) != PMC_STATUS_OK)

	mov	rax, QWORD PTR w$[rbp]
	mov	rcx, QWORD PTR [rax]
	call	CheckNumber
	mov	DWORD PTR result$[rbp], eax
	cmp	DWORD PTR result$[rbp], 0
	je	SHORT $LN7@PMC_Greate

; 459  :         return (result);

	mov	eax, DWORD PTR result$[rbp]
	jmp	SHORT $LN1@PMC_Greate
$LN7@PMC_Greate:

; 460  : #endif
; 461  :     return (PMC_STATUS_OK);

	xor	eax, eax
$LN1@PMC_Greate:

; 462  : }

	lea	rsp, QWORD PTR [rbp+232]
	pop	rdi
	pop	rbp
	ret	0
PMC_GreatestCommonDivisor_L_X ENDP
_TEXT	ENDS
; Function compile flags: /Odtp /RTCsu /ZI
; File z:\sources\lunor\repos\rougemeilland\palmtree.math.core.uint\palmtree.math.core.uint\pmc_greatestcommondivisor.c
;	COMDAT PMC_GreatestCommonDivisor_I_X
_TEXT	SEGMENT
result$ = 4
u$ = 256
v$ = 264
w$ = 272
PMC_GreatestCommonDivisor_I_X PROC			; COMDAT

; 176  : {

$LN9:
	mov	QWORD PTR [rsp+24], r8
	mov	QWORD PTR [rsp+16], rdx
	mov	DWORD PTR [rsp+8], ecx
	push	rbp
	push	rdi
	sub	rsp, 264				; 00000108H
	lea	rbp, QWORD PTR [rsp+32]
	mov	rdi, rsp
	mov	ecx, 66					; 00000042H
	mov	eax, -858993460				; ccccccccH
	rep stosd
	mov	ecx, DWORD PTR [rsp+296]
	lea	rcx, OFFSET FLAT:__3257AA0B_pmc_greatestcommondivisor@c
	call	__CheckForDebuggerJustMyCode

; 177  :     if (__UNIT_TYPE_BIT_COUNT < sizeof(u) * 8)

	xor	eax, eax
	test	eax, eax
	je	SHORT $LN2@PMC_Greate

; 178  :     {
; 179  :         // _UINT32_T が 1 ワードで表現しきれない処理系には対応しない
; 180  :         return (PMC_STATUS_INTERNAL_ERROR);

	mov	eax, -256				; ffffffffffffff00H
	jmp	$LN1@PMC_Greate
$LN2@PMC_Greate:

; 181  :     }
; 182  :     if (v == NULL)

	cmp	QWORD PTR v$[rbp], 0
	jne	SHORT $LN3@PMC_Greate

; 183  :         return (PMC_STATUS_ARGUMENT_ERROR);

	mov	eax, -1
	jmp	SHORT $LN1@PMC_Greate
$LN3@PMC_Greate:

; 184  :     if (w == NULL)

	cmp	QWORD PTR w$[rbp], 0
	jne	SHORT $LN4@PMC_Greate

; 185  :         return (PMC_STATUS_ARGUMENT_ERROR);

	mov	eax, -1
	jmp	SHORT $LN1@PMC_Greate
$LN4@PMC_Greate:

; 186  :     PMC_STATUS_CODE result;
; 187  :     if ((result = CheckNumber((NUMBER_HEADER*)v)) != PMC_STATUS_OK)

	mov	rcx, QWORD PTR v$[rbp]
	call	CheckNumber
	mov	DWORD PTR result$[rbp], eax
	cmp	DWORD PTR result$[rbp], 0
	je	SHORT $LN5@PMC_Greate

; 188  :         return (result);

	mov	eax, DWORD PTR result$[rbp]
	jmp	SHORT $LN1@PMC_Greate
$LN5@PMC_Greate:

; 189  :     if ((result = PMC_GreatestCommonDivisor_X_I_Imp((NUMBER_HEADER*)v, u, (NUMBER_HEADER**)w)) != PMC_STATUS_OK)

	mov	r8, QWORD PTR w$[rbp]
	mov	edx, DWORD PTR u$[rbp]
	mov	rcx, QWORD PTR v$[rbp]
	call	PMC_GreatestCommonDivisor_X_I_Imp
	mov	DWORD PTR result$[rbp], eax
	cmp	DWORD PTR result$[rbp], 0
	je	SHORT $LN6@PMC_Greate

; 190  :         return (result);

	mov	eax, DWORD PTR result$[rbp]
	jmp	SHORT $LN1@PMC_Greate
$LN6@PMC_Greate:

; 191  : #ifdef _DEBUG
; 192  :     if ((result = CheckNumber(*w)) != PMC_STATUS_OK)

	mov	rax, QWORD PTR w$[rbp]
	mov	rcx, QWORD PTR [rax]
	call	CheckNumber
	mov	DWORD PTR result$[rbp], eax
	cmp	DWORD PTR result$[rbp], 0
	je	SHORT $LN7@PMC_Greate

; 193  :         return (result);

	mov	eax, DWORD PTR result$[rbp]
	jmp	SHORT $LN1@PMC_Greate
$LN7@PMC_Greate:

; 194  : #endif
; 195  :     return (PMC_STATUS_OK);

	xor	eax, eax
$LN1@PMC_Greate:

; 196  : }

	lea	rsp, QWORD PTR [rbp+232]
	pop	rdi
	pop	rbp
	ret	0
PMC_GreatestCommonDivisor_I_X ENDP
_TEXT	ENDS
; Function compile flags: /Odtp /RTCsu /ZI
; File z:\sources\lunor\repos\rougemeilland\palmtree.math.core.uint\palmtree.math.core.uint\pmc_greatestcommondivisor.c
;	COMDAT Initialize_GreatestCommonDivisor
_TEXT	SEGMENT
feature$ = 224
Initialize_GreatestCommonDivisor PROC			; COMDAT

; 607  : {

$LN3:
	mov	QWORD PTR [rsp+8], rcx
	push	rbp
	push	rdi
	sub	rsp, 232				; 000000e8H
	lea	rbp, QWORD PTR [rsp+32]
	mov	rdi, rsp
	mov	ecx, 58					; 0000003aH
	mov	eax, -858993460				; ccccccccH
	rep stosd
	mov	rcx, QWORD PTR [rsp+264]
	lea	rcx, OFFSET FLAT:__3257AA0B_pmc_greatestcommondivisor@c
	call	__CheckForDebuggerJustMyCode

; 608  :     return (PMC_STATUS_OK);

	xor	eax, eax

; 609  : }

	lea	rsp, QWORD PTR [rbp+200]
	pop	rdi
	pop	rbp
	ret	0
Initialize_GreatestCommonDivisor ENDP
_TEXT	ENDS
END
