; Listing generated by Microsoft (R) Optimizing Compiler Version 19.16.27026.1 

include listing.inc

INCLUDELIB MSVCRTD
INCLUDELIB OLDNAMES

msvcjmc	SEGMENT
__7B7A869E_ctype@h DB 01H
__457DD326_basetsd@h DB 01H
__4384A2D9_corecrt_memcpy_s@h DB 01H
__4E51A221_corecrt_wstring@h DB 01H
__2140C079_string@h DB 01H
__1887E595_winnt@h DB 01H
__9FC7C64B_processthreadsapi@h DB 01H
__FA470AEC_memoryapi@h DB 01H
__F37DAFF1_winerror@h DB 01H
__7A450CCC_winbase@h DB 01H
__B4B40122_winioctl@h DB 01H
__86261D59_stralign@h DB 01H
__95056B1C_pmc_debug@h DB 01H
__21B28967_test_op_compare@c DB 01H
msvcjmc	ENDS
PUBLIC	TEST_PMC_Compare_I_X
PUBLIC	TEST_PMC_Compare_L_X
PUBLIC	TEST_PMC_Compare_X_I
PUBLIC	TEST_PMC_Compare_X_L
PUBLIC	TEST_PMC_Compare_X_X
PUBLIC	__JustMyCode_Default
PUBLIC	??_C@_1EK@HDEICNAJ@?$AAP?$AAM?$AAC?$AA_?$AAF?$AAr?$AAo?$AAm?$AAB?$AAy?$AAt?$AAe?$AAA?$AAr?$AAr@ ; `string'
PUBLIC	??_C@_1DA@CJHAOPBE@?$AAP?$AAM?$AAC?$AA_?$AAC?$AAo?$AAm?$AAp?$AAa?$AAr?$AAe?$AA_?$AAI?$AA_?$AAX@ ; `string'
PUBLIC	??_C@_1EG@OKPJBLPK@?$AAP?$AAM?$AAC?$AA_?$AAC?$AAo?$AAm?$AAp?$AAa?$AAr?$AAe?$AA_?$AAI?$AA_?$AAX@ ; `string'
PUBLIC	??_C@_1BK@CBDJCOBM@?$PP?G?$PP?$PM?$PP?$LP?$AAn?$PP?$IF?$PP?$LJ?$AAL?$AA?$AA?$PP?t?$AAW?$AAj?$AAD@ ; `string'
PUBLIC	??_C@_1DA@MBFDBEGM@?$AAP?$AAM?$AAC?$AA_?$AAC?$AAo?$AAm?$AAp?$AAa?$AAr?$AAe?$AA_?$AAL?$AA_?$AAX@ ; `string'
PUBLIC	??_C@_1EG@LBGHOIGE@?$AAP?$AAM?$AAC?$AA_?$AAC?$AAo?$AAm?$AAp?$AAa?$AAr?$AAe?$AA_?$AAL?$AA_?$AAX@ ; `string'
PUBLIC	??_C@_1DA@FCJPGFGN@?$AAP?$AAM?$AAC?$AA_?$AAC?$AAo?$AAm?$AAp?$AAa?$AAr?$AAe?$AA_?$AAX?$AA_?$AAI@ ; `string'
PUBLIC	??_C@_1EG@LGGCMNNN@?$AAP?$AAM?$AAC?$AA_?$AAC?$AAo?$AAm?$AAp?$AAa?$AAr?$AAe?$AA_?$AAX?$AA_?$AAI@ ; `string'
PUBLIC	??_C@_1DA@HJBFLFHC@?$AAP?$AAM?$AAC?$AA_?$AAC?$AAo?$AAm?$AAp?$AAa?$AAr?$AAe?$AA_?$AAX?$AA_?$AAL@ ; `string'
PUBLIC	??_C@_1EG@POCOFAEI@?$AAP?$AAM?$AAC?$AA_?$AAC?$AAo?$AAm?$AAp?$AAa?$AAr?$AAe?$AA_?$AAX?$AA_?$AAL@ ; `string'
PUBLIC	??_C@_1DA@NHDOPFAO@?$AAP?$AAM?$AAC?$AA_?$AAC?$AAo?$AAm?$AAp?$AAa?$AAr?$AAe?$AA_?$AAX?$AA_?$AAX@ ; `string'
PUBLIC	??_C@_1EG@EGNCAFN@?$AAP?$AAM?$AAC?$AA_?$AAC?$AAo?$AAm?$AAp?$AAa?$AAr?$AAe?$AA_?$AAX?$AA_?$AAX@ ; `string'
EXTRN	TEST_Assert:PROC
EXTRN	FormatTestLabel:PROC
EXTRN	FormatTestMesssage:PROC
EXTRN	_RTC_CheckStackVars:PROC
EXTRN	_RTC_InitBase:PROC
EXTRN	_RTC_Shutdown:PROC
EXTRN	__CheckForDebuggerJustMyCode:PROC
;	COMDAT pdata
pdata	SEGMENT
$pdata$TEST_PMC_Compare_I_X DD imagerel $LN10
	DD	imagerel $LN10+474
	DD	imagerel $unwind$TEST_PMC_Compare_I_X
pdata	ENDS
;	COMDAT pdata
pdata	SEGMENT
$pdata$TEST_PMC_Compare_L_X DD imagerel $LN10
	DD	imagerel $LN10+475
	DD	imagerel $unwind$TEST_PMC_Compare_L_X
pdata	ENDS
;	COMDAT pdata
pdata	SEGMENT
$pdata$TEST_PMC_Compare_X_I DD imagerel $LN10
	DD	imagerel $LN10+474
	DD	imagerel $unwind$TEST_PMC_Compare_X_I
pdata	ENDS
;	COMDAT pdata
pdata	SEGMENT
$pdata$TEST_PMC_Compare_X_L DD imagerel $LN10
	DD	imagerel $LN10+475
	DD	imagerel $unwind$TEST_PMC_Compare_X_L
pdata	ENDS
;	COMDAT pdata
pdata	SEGMENT
$pdata$TEST_PMC_Compare_X_X DD imagerel $LN13
	DD	imagerel $LN13+653
	DD	imagerel $unwind$TEST_PMC_Compare_X_X
pdata	ENDS
;	COMDAT rtc$TMZ
rtc$TMZ	SEGMENT
_RTC_Shutdown.rtc$TMZ DQ FLAT:_RTC_Shutdown
rtc$TMZ	ENDS
;	COMDAT rtc$IMZ
rtc$IMZ	SEGMENT
_RTC_InitBase.rtc$IMZ DQ FLAT:_RTC_InitBase
rtc$IMZ	ENDS
;	COMDAT ??_C@_1EG@EGNCAFN@?$AAP?$AAM?$AAC?$AA_?$AAC?$AAo?$AAm?$AAp?$AAa?$AAr?$AAe?$AA_?$AAX?$AA_?$AAX@
CONST	SEGMENT
??_C@_1EG@EGNCAFN@?$AAP?$AAM?$AAC?$AA_?$AAC?$AAo?$AAm?$AAp?$AAa?$AAr?$AAe?$AA_?$AAX?$AA_?$AAX@ DB 'P'
	DB	00H, 'M', 00H, 'C', 00H, '_', 00H, 'C', 00H, 'o', 00H, 'm', 00H
	DB	'p', 00H, 'a', 00H, 'r', 00H, 'e', 00H, '_', 00H, 'X', 00H, '_'
	DB	00H, 'X', 00H, 'n0', 0a9H, '_0^', 0b3H, '0', 0fcH, '0', 0c9H, '0'
	DB	'L0', 01fH, 'g', 085H, '_', 01aH, 090H, 08aH, '0g0o0j0D0(', 00H
	DB	'%', 00H, 'd', 00H, ')', 00H, 00H, 00H	; `string'
CONST	ENDS
;	COMDAT ??_C@_1DA@NHDOPFAO@?$AAP?$AAM?$AAC?$AA_?$AAC?$AAo?$AAm?$AAp?$AAa?$AAr?$AAe?$AA_?$AAX?$AA_?$AAX@
CONST	SEGMENT
??_C@_1DA@NHDOPFAO@?$AAP?$AAM?$AAC?$AA_?$AAC?$AAo?$AAm?$AAp?$AAa?$AAr?$AAe?$AA_?$AAX?$AA_?$AAX@ DB 'P'
	DB	00H, 'M', 00H, 'C', 00H, '_', 00H, 'C', 00H, 'o', 00H, 'm', 00H
	DB	'p', 00H, 'a', 00H, 'r', 00H, 'e', 00H, '_', 00H, 'X', 00H, '_'
	DB	00H, 'X', 00H, ' ', 00H, '(', 00H, '%', 00H, 'd', 00H, '.', 00H
	DB	'%', 00H, 'd', 00H, ')', 00H, 00H, 00H	; `string'
CONST	ENDS
;	COMDAT ??_C@_1EG@POCOFAEI@?$AAP?$AAM?$AAC?$AA_?$AAC?$AAo?$AAm?$AAp?$AAa?$AAr?$AAe?$AA_?$AAX?$AA_?$AAL@
CONST	SEGMENT
??_C@_1EG@POCOFAEI@?$AAP?$AAM?$AAC?$AA_?$AAC?$AAo?$AAm?$AAp?$AAa?$AAr?$AAe?$AA_?$AAX?$AA_?$AAL@ DB 'P'
	DB	00H, 'M', 00H, 'C', 00H, '_', 00H, 'C', 00H, 'o', 00H, 'm', 00H
	DB	'p', 00H, 'a', 00H, 'r', 00H, 'e', 00H, '_', 00H, 'X', 00H, '_'
	DB	00H, 'L', 00H, 'n0', 0a9H, '_0^', 0b3H, '0', 0fcH, '0', 0c9H, '0'
	DB	'L0', 01fH, 'g', 085H, '_', 01aH, 090H, 08aH, '0g0o0j0D0(', 00H
	DB	'%', 00H, 'd', 00H, ')', 00H, 00H, 00H	; `string'
CONST	ENDS
;	COMDAT ??_C@_1DA@HJBFLFHC@?$AAP?$AAM?$AAC?$AA_?$AAC?$AAo?$AAm?$AAp?$AAa?$AAr?$AAe?$AA_?$AAX?$AA_?$AAL@
CONST	SEGMENT
??_C@_1DA@HJBFLFHC@?$AAP?$AAM?$AAC?$AA_?$AAC?$AAo?$AAm?$AAp?$AAa?$AAr?$AAe?$AA_?$AAX?$AA_?$AAL@ DB 'P'
	DB	00H, 'M', 00H, 'C', 00H, '_', 00H, 'C', 00H, 'o', 00H, 'm', 00H
	DB	'p', 00H, 'a', 00H, 'r', 00H, 'e', 00H, '_', 00H, 'X', 00H, '_'
	DB	00H, 'L', 00H, ' ', 00H, '(', 00H, '%', 00H, 'd', 00H, '.', 00H
	DB	'%', 00H, 'd', 00H, ')', 00H, 00H, 00H	; `string'
CONST	ENDS
;	COMDAT ??_C@_1EG@LGGCMNNN@?$AAP?$AAM?$AAC?$AA_?$AAC?$AAo?$AAm?$AAp?$AAa?$AAr?$AAe?$AA_?$AAX?$AA_?$AAI@
CONST	SEGMENT
??_C@_1EG@LGGCMNNN@?$AAP?$AAM?$AAC?$AA_?$AAC?$AAo?$AAm?$AAp?$AAa?$AAr?$AAe?$AA_?$AAX?$AA_?$AAI@ DB 'P'
	DB	00H, 'M', 00H, 'C', 00H, '_', 00H, 'C', 00H, 'o', 00H, 'm', 00H
	DB	'p', 00H, 'a', 00H, 'r', 00H, 'e', 00H, '_', 00H, 'X', 00H, '_'
	DB	00H, 'I', 00H, 'n0', 0a9H, '_0^', 0b3H, '0', 0fcH, '0', 0c9H, '0'
	DB	'L0', 01fH, 'g', 085H, '_', 01aH, 090H, 08aH, '0g0o0j0D0(', 00H
	DB	'%', 00H, 'd', 00H, ')', 00H, 00H, 00H	; `string'
CONST	ENDS
;	COMDAT ??_C@_1DA@FCJPGFGN@?$AAP?$AAM?$AAC?$AA_?$AAC?$AAo?$AAm?$AAp?$AAa?$AAr?$AAe?$AA_?$AAX?$AA_?$AAI@
CONST	SEGMENT
??_C@_1DA@FCJPGFGN@?$AAP?$AAM?$AAC?$AA_?$AAC?$AAo?$AAm?$AAp?$AAa?$AAr?$AAe?$AA_?$AAX?$AA_?$AAI@ DB 'P'
	DB	00H, 'M', 00H, 'C', 00H, '_', 00H, 'C', 00H, 'o', 00H, 'm', 00H
	DB	'p', 00H, 'a', 00H, 'r', 00H, 'e', 00H, '_', 00H, 'X', 00H, '_'
	DB	00H, 'I', 00H, ' ', 00H, '(', 00H, '%', 00H, 'd', 00H, '.', 00H
	DB	'%', 00H, 'd', 00H, ')', 00H, 00H, 00H	; `string'
CONST	ENDS
;	COMDAT ??_C@_1EG@LBGHOIGE@?$AAP?$AAM?$AAC?$AA_?$AAC?$AAo?$AAm?$AAp?$AAa?$AAr?$AAe?$AA_?$AAL?$AA_?$AAX@
CONST	SEGMENT
??_C@_1EG@LBGHOIGE@?$AAP?$AAM?$AAC?$AA_?$AAC?$AAo?$AAm?$AAp?$AAa?$AAr?$AAe?$AA_?$AAL?$AA_?$AAX@ DB 'P'
	DB	00H, 'M', 00H, 'C', 00H, '_', 00H, 'C', 00H, 'o', 00H, 'm', 00H
	DB	'p', 00H, 'a', 00H, 'r', 00H, 'e', 00H, '_', 00H, 'L', 00H, '_'
	DB	00H, 'X', 00H, 'n0', 0a9H, '_0^', 0b3H, '0', 0fcH, '0', 0c9H, '0'
	DB	'L0', 01fH, 'g', 085H, '_', 01aH, 090H, 08aH, '0g0o0j0D0(', 00H
	DB	'%', 00H, 'd', 00H, ')', 00H, 00H, 00H	; `string'
CONST	ENDS
;	COMDAT ??_C@_1DA@MBFDBEGM@?$AAP?$AAM?$AAC?$AA_?$AAC?$AAo?$AAm?$AAp?$AAa?$AAr?$AAe?$AA_?$AAL?$AA_?$AAX@
CONST	SEGMENT
??_C@_1DA@MBFDBEGM@?$AAP?$AAM?$AAC?$AA_?$AAC?$AAo?$AAm?$AAp?$AAa?$AAr?$AAe?$AA_?$AAL?$AA_?$AAX@ DB 'P'
	DB	00H, 'M', 00H, 'C', 00H, '_', 00H, 'C', 00H, 'o', 00H, 'm', 00H
	DB	'p', 00H, 'a', 00H, 'r', 00H, 'e', 00H, '_', 00H, 'L', 00H, '_'
	DB	00H, 'X', 00H, ' ', 00H, '(', 00H, '%', 00H, 'd', 00H, '.', 00H
	DB	'%', 00H, 'd', 00H, ')', 00H, 00H, 00H	; `string'
CONST	ENDS
;	COMDAT ??_C@_1BK@CBDJCOBM@?$PP?G?$PP?$PM?$PP?$LP?$AAn?$PP?$IF?$PP?$LJ?$AAL?$AA?$AA?$PP?t?$AAW?$AAj?$AAD@
CONST	SEGMENT
??_C@_1BK@CBDJCOBM@?$PP?G?$PP?$PM?$PP?$LP?$AAn?$PP?$IF?$PP?$LJ?$AAL?$AA?$AA?$PP?t?$AAW?$AAj?$AAD@ DB 0c7H
	DB	'0', 0fcH, '0', 0bfH, '0n0', 085H, 'Q', 0b9H, '[L0', 00H, 'N', 0f4H
	DB	081H, 'W0j0D0', 00H, 00H			; `string'
CONST	ENDS
;	COMDAT ??_C@_1EG@OKPJBLPK@?$AAP?$AAM?$AAC?$AA_?$AAC?$AAo?$AAm?$AAp?$AAa?$AAr?$AAe?$AA_?$AAI?$AA_?$AAX@
CONST	SEGMENT
??_C@_1EG@OKPJBLPK@?$AAP?$AAM?$AAC?$AA_?$AAC?$AAo?$AAm?$AAp?$AAa?$AAr?$AAe?$AA_?$AAI?$AA_?$AAX@ DB 'P'
	DB	00H, 'M', 00H, 'C', 00H, '_', 00H, 'C', 00H, 'o', 00H, 'm', 00H
	DB	'p', 00H, 'a', 00H, 'r', 00H, 'e', 00H, '_', 00H, 'I', 00H, '_'
	DB	00H, 'X', 00H, 'n0', 0a9H, '_0^', 0b3H, '0', 0fcH, '0', 0c9H, '0'
	DB	'L0', 01fH, 'g', 085H, '_', 01aH, 090H, 08aH, '0g0o0j0D0(', 00H
	DB	'%', 00H, 'd', 00H, ')', 00H, 00H, 00H	; `string'
CONST	ENDS
;	COMDAT ??_C@_1DA@CJHAOPBE@?$AAP?$AAM?$AAC?$AA_?$AAC?$AAo?$AAm?$AAp?$AAa?$AAr?$AAe?$AA_?$AAI?$AA_?$AAX@
CONST	SEGMENT
??_C@_1DA@CJHAOPBE@?$AAP?$AAM?$AAC?$AA_?$AAC?$AAo?$AAm?$AAp?$AAa?$AAr?$AAe?$AA_?$AAI?$AA_?$AAX@ DB 'P'
	DB	00H, 'M', 00H, 'C', 00H, '_', 00H, 'C', 00H, 'o', 00H, 'm', 00H
	DB	'p', 00H, 'a', 00H, 'r', 00H, 'e', 00H, '_', 00H, 'I', 00H, '_'
	DB	00H, 'X', 00H, ' ', 00H, '(', 00H, '%', 00H, 'd', 00H, '.', 00H
	DB	'%', 00H, 'd', 00H, ')', 00H, 00H, 00H	; `string'
CONST	ENDS
;	COMDAT ??_C@_1EK@HDEICNAJ@?$AAP?$AAM?$AAC?$AA_?$AAF?$AAr?$AAo?$AAm?$AAB?$AAy?$AAt?$AAe?$AAA?$AAr?$AAr@
CONST	SEGMENT
??_C@_1EK@HDEICNAJ@?$AAP?$AAM?$AAC?$AA_?$AAF?$AAr?$AAo?$AAm?$AAB?$AAy?$AAt?$AAe?$AAA?$AAr?$AAr@ DB 'P'
	DB	00H, 'M', 00H, 'C', 00H, '_', 00H, 'F', 00H, 'r', 00H, 'o', 00H
	DB	'm', 00H, 'B', 00H, 'y', 00H, 't', 00H, 'e', 00H, 'A', 00H, 'r'
	DB	00H, 'r', 00H, 'a', 00H, 'y', 00H, 'n0', 0a9H, '_0^', 0b3H, '0'
	DB	0fcH, '0', 0c9H, '0L0', 01fH, 'g', 085H, '_', 01aH, 090H, 08aH
	DB	'0g0o0j0D0(', 00H, '%', 00H, 'd', 00H, ')', 00H, 00H, 00H ; `string'
CONST	ENDS
;	COMDAT xdata
xdata	SEGMENT
$unwind$TEST_PMC_Compare_X_X DD 025053901H
	DD	011d2322H
	DD	070160035H
	DD	05015H
xdata	ENDS
;	COMDAT CONST
CONST	SEGMENT
TEST_PMC_Compare_X_X$rtcName$0 DB 078H
	DB	00H
	ORG $+2
TEST_PMC_Compare_X_X$rtcName$1 DB 079H
	DB	00H
	ORG $+2
TEST_PMC_Compare_X_X$rtcName$2 DB 061H
	DB	063H
	DB	074H
	DB	075H
	DB	061H
	DB	06cH
	DB	05fH
	DB	07aH
	DB	00H
	ORG $+15
TEST_PMC_Compare_X_X$rtcVarDesc DD 064H
	DD	04H
	DQ	FLAT:TEST_PMC_Compare_X_X$rtcName$2
	DD	048H
	DD	08H
	DQ	FLAT:TEST_PMC_Compare_X_X$rtcName$1
	DD	028H
	DD	08H
	DQ	FLAT:TEST_PMC_Compare_X_X$rtcName$0
	ORG $+144
TEST_PMC_Compare_X_X$rtcFrameData DD 03H
	DD	00H
	DQ	FLAT:TEST_PMC_Compare_X_X$rtcVarDesc
CONST	ENDS
;	COMDAT xdata
xdata	SEGMENT
$unwind$TEST_PMC_Compare_X_L DD 025053901H
	DD	011d2322H
	DD	07016002dH
	DD	05015H
xdata	ENDS
;	COMDAT CONST
CONST	SEGMENT
TEST_PMC_Compare_X_L$rtcName$0 DB 078H
	DB	00H
	ORG $+6
TEST_PMC_Compare_X_L$rtcName$1 DB 061H
	DB	063H
	DB	074H
	DB	075H
	DB	061H
	DB	06cH
	DB	05fH
	DB	07aH
	DB	00H
	ORG $+15
TEST_PMC_Compare_X_L$rtcVarDesc DD 044H
	DD	04H
	DQ	FLAT:TEST_PMC_Compare_X_L$rtcName$1
	DD	028H
	DD	08H
	DQ	FLAT:TEST_PMC_Compare_X_L$rtcName$0
	ORG $+96
TEST_PMC_Compare_X_L$rtcFrameData DD 02H
	DD	00H
	DQ	FLAT:TEST_PMC_Compare_X_L$rtcVarDesc
CONST	ENDS
;	COMDAT xdata
xdata	SEGMENT
$unwind$TEST_PMC_Compare_X_I DD 025053901H
	DD	011d2322H
	DD	07016002dH
	DD	05015H
xdata	ENDS
;	COMDAT CONST
CONST	SEGMENT
TEST_PMC_Compare_X_I$rtcName$0 DB 078H
	DB	00H
	ORG $+6
TEST_PMC_Compare_X_I$rtcName$1 DB 061H
	DB	063H
	DB	074H
	DB	075H
	DB	061H
	DB	06cH
	DB	05fH
	DB	07aH
	DB	00H
	ORG $+15
TEST_PMC_Compare_X_I$rtcVarDesc DD 044H
	DD	04H
	DQ	FLAT:TEST_PMC_Compare_X_I$rtcName$1
	DD	028H
	DD	08H
	DQ	FLAT:TEST_PMC_Compare_X_I$rtcName$0
	ORG $+96
TEST_PMC_Compare_X_I$rtcFrameData DD 02H
	DD	00H
	DQ	FLAT:TEST_PMC_Compare_X_I$rtcVarDesc
CONST	ENDS
;	COMDAT xdata
xdata	SEGMENT
$unwind$TEST_PMC_Compare_L_X DD 025053901H
	DD	011d2322H
	DD	07016002dH
	DD	05015H
xdata	ENDS
;	COMDAT CONST
CONST	SEGMENT
TEST_PMC_Compare_L_X$rtcName$0 DB 076H
	DB	00H
	ORG $+6
TEST_PMC_Compare_L_X$rtcName$1 DB 061H
	DB	063H
	DB	074H
	DB	075H
	DB	061H
	DB	06cH
	DB	05fH
	DB	077H
	DB	00H
	ORG $+15
TEST_PMC_Compare_L_X$rtcVarDesc DD 044H
	DD	04H
	DQ	FLAT:TEST_PMC_Compare_L_X$rtcName$1
	DD	028H
	DD	08H
	DQ	FLAT:TEST_PMC_Compare_L_X$rtcName$0
	ORG $+96
TEST_PMC_Compare_L_X$rtcFrameData DD 02H
	DD	00H
	DQ	FLAT:TEST_PMC_Compare_L_X$rtcVarDesc
CONST	ENDS
;	COMDAT xdata
xdata	SEGMENT
$unwind$TEST_PMC_Compare_I_X DD 025053901H
	DD	011d2322H
	DD	07016002dH
	DD	05015H
xdata	ENDS
;	COMDAT CONST
CONST	SEGMENT
TEST_PMC_Compare_I_X$rtcName$0 DB 076H
	DB	00H
	ORG $+6
TEST_PMC_Compare_I_X$rtcName$1 DB 061H
	DB	063H
	DB	074H
	DB	075H
	DB	061H
	DB	06cH
	DB	05fH
	DB	077H
	DB	00H
	ORG $+15
TEST_PMC_Compare_I_X$rtcVarDesc DD 044H
	DD	04H
	DQ	FLAT:TEST_PMC_Compare_I_X$rtcName$1
	DD	028H
	DD	08H
	DQ	FLAT:TEST_PMC_Compare_I_X$rtcName$0
	ORG $+96
TEST_PMC_Compare_I_X$rtcFrameData DD 02H
	DD	00H
	DQ	FLAT:TEST_PMC_Compare_I_X$rtcVarDesc
CONST	ENDS
; Function compile flags: /Odt
;	COMDAT __JustMyCode_Default
_TEXT	SEGMENT
__JustMyCode_Default PROC				; COMDAT
	ret	0
__JustMyCode_Default ENDP
_TEXT	ENDS
; Function compile flags: /Odtp /RTCsu /ZI
; File z:\sources\lunor\repos\rougemeilland\palmtree.math.core.uint\palmtree.math.core.uint\test_op_compare.c
;	COMDAT TEST_PMC_Compare_X_X
_TEXT	SEGMENT
x$ = 8
y$ = 40
actual_z$ = 68
result$ = 100
x_result$ = 132
y_result$ = 164
tv152 = 372
tv142 = 372
tv92 = 372
tv74 = 372
tv132 = 376
tv82 = 376
tv64 = 376
env$ = 416
ep$ = 424
no$ = 432
x_buf$ = 440
x_buf_size$ = 448
y_buf$ = 456
y_buf_size$ = 464
desired_z$ = 472
TEST_PMC_Compare_X_X PROC				; COMDAT

; 91   : {

$LN13:
	mov	QWORD PTR [rsp+32], r9
	mov	DWORD PTR [rsp+24], r8d
	mov	QWORD PTR [rsp+16], rdx
	mov	QWORD PTR [rsp+8], rcx
	push	rbp
	push	rdi
	sub	rsp, 424				; 000001a8H
	lea	rbp, QWORD PTR [rsp+32]
	mov	rdi, rsp
	mov	ecx, 106				; 0000006aH
	mov	eax, -858993460				; ccccccccH
	rep stosd
	mov	rcx, QWORD PTR [rsp+456]
	lea	rcx, OFFSET FLAT:__21B28967_test_op_compare@c
	call	__CheckForDebuggerJustMyCode

; 92   :     HANDLE x;
; 93   :     HANDLE y;
; 94   :     int actual_z;
; 95   :     PMC_STATUS_CODE result;
; 96   :     PMC_STATUS_CODE x_result;
; 97   :     PMC_STATUS_CODE y_result;
; 98   :     TEST_Assert(env, FormatTestLabel(L"PMC_Compare_X_X (%d.%d)", no, 1), (x_result = ep->PMC_FromByteArray(x_buf, x_buf_size, &x)) == PMC_STATUS_OK, FormatTestMesssage(L"PMC_FromByteArrayの復帰コードが期待通りではない(%d)", x_result));

	lea	r8, QWORD PTR x$[rbp]
	mov	rdx, QWORD PTR x_buf_size$[rbp]
	mov	rcx, QWORD PTR x_buf$[rbp]
	mov	rax, QWORD PTR ep$[rbp]
	call	QWORD PTR [rax+48]
	mov	DWORD PTR x_result$[rbp], eax
	cmp	DWORD PTR x_result$[rbp], 0
	jne	SHORT $LN5@TEST_PMC_C
	mov	DWORD PTR tv74[rbp], 1
	jmp	SHORT $LN6@TEST_PMC_C
$LN5@TEST_PMC_C:
	mov	DWORD PTR tv74[rbp], 0
$LN6@TEST_PMC_C:
	mov	edx, DWORD PTR x_result$[rbp]
	lea	rcx, OFFSET FLAT:??_C@_1EK@HDEICNAJ@?$AAP?$AAM?$AAC?$AA_?$AAF?$AAr?$AAo?$AAm?$AAB?$AAy?$AAt?$AAe?$AAA?$AAr?$AAr@
	call	FormatTestMesssage
	mov	QWORD PTR tv64[rbp], rax
	mov	r8d, 1
	mov	edx, DWORD PTR no$[rbp]
	lea	rcx, OFFSET FLAT:??_C@_1DA@NHDOPFAO@?$AAP?$AAM?$AAC?$AA_?$AAC?$AAo?$AAm?$AAp?$AAa?$AAr?$AAe?$AA_?$AAX?$AA_?$AAX@
	call	FormatTestLabel
	mov	rcx, QWORD PTR tv64[rbp]
	mov	r9, rcx
	mov	r8d, DWORD PTR tv74[rbp]
	mov	rdx, rax
	mov	rcx, QWORD PTR env$[rbp]
	call	TEST_Assert

; 99   :     TEST_Assert(env, FormatTestLabel(L"PMC_Compare_X_X (%d.%d)", no, 2), (y_result = ep->PMC_FromByteArray(y_buf, y_buf_size, &y)) == PMC_STATUS_OK, FormatTestMesssage(L"PMC_FromByteArrayの復帰コードが期待通りではない(%d)", y_result));

	lea	r8, QWORD PTR y$[rbp]
	mov	rdx, QWORD PTR y_buf_size$[rbp]
	mov	rcx, QWORD PTR y_buf$[rbp]
	mov	rax, QWORD PTR ep$[rbp]
	call	QWORD PTR [rax+48]
	mov	DWORD PTR y_result$[rbp], eax
	cmp	DWORD PTR y_result$[rbp], 0
	jne	SHORT $LN7@TEST_PMC_C
	mov	DWORD PTR tv92[rbp], 1
	jmp	SHORT $LN8@TEST_PMC_C
$LN7@TEST_PMC_C:
	mov	DWORD PTR tv92[rbp], 0
$LN8@TEST_PMC_C:
	mov	edx, DWORD PTR y_result$[rbp]
	lea	rcx, OFFSET FLAT:??_C@_1EK@HDEICNAJ@?$AAP?$AAM?$AAC?$AA_?$AAF?$AAr?$AAo?$AAm?$AAB?$AAy?$AAt?$AAe?$AAA?$AAr?$AAr@
	call	FormatTestMesssage
	mov	QWORD PTR tv82[rbp], rax
	mov	r8d, 2
	mov	edx, DWORD PTR no$[rbp]
	lea	rcx, OFFSET FLAT:??_C@_1DA@NHDOPFAO@?$AAP?$AAM?$AAC?$AA_?$AAC?$AAo?$AAm?$AAp?$AAa?$AAr?$AAe?$AA_?$AAX?$AA_?$AAX@
	call	FormatTestLabel
	mov	rcx, QWORD PTR tv82[rbp]
	mov	r9, rcx
	mov	r8d, DWORD PTR tv92[rbp]
	mov	rdx, rax
	mov	rcx, QWORD PTR env$[rbp]
	call	TEST_Assert

; 100  :     TEST_Assert(env, FormatTestLabel(L"PMC_Compare_X_X (%d.%d)", no, 3), (result = ep->PMC_Compare_X_X(x, y, &actual_z)) == PMC_STATUS_OK, FormatTestMesssage(L"PMC_Compare_X_Xの復帰コードが期待通りではない(%d)", result));

	lea	r8, QWORD PTR actual_z$[rbp]
	mov	rdx, QWORD PTR y$[rbp]
	mov	rcx, QWORD PTR x$[rbp]
	mov	rax, QWORD PTR ep$[rbp]
	call	QWORD PTR [rax+448]
	mov	DWORD PTR result$[rbp], eax
	cmp	DWORD PTR result$[rbp], 0
	jne	SHORT $LN9@TEST_PMC_C
	mov	DWORD PTR tv142[rbp], 1
	jmp	SHORT $LN10@TEST_PMC_C
$LN9@TEST_PMC_C:
	mov	DWORD PTR tv142[rbp], 0
$LN10@TEST_PMC_C:
	mov	edx, DWORD PTR result$[rbp]
	lea	rcx, OFFSET FLAT:??_C@_1EG@EGNCAFN@?$AAP?$AAM?$AAC?$AA_?$AAC?$AAo?$AAm?$AAp?$AAa?$AAr?$AAe?$AA_?$AAX?$AA_?$AAX@
	call	FormatTestMesssage
	mov	QWORD PTR tv132[rbp], rax
	mov	r8d, 3
	mov	edx, DWORD PTR no$[rbp]
	lea	rcx, OFFSET FLAT:??_C@_1DA@NHDOPFAO@?$AAP?$AAM?$AAC?$AA_?$AAC?$AAo?$AAm?$AAp?$AAa?$AAr?$AAe?$AA_?$AAX?$AA_?$AAX@
	call	FormatTestLabel
	mov	rcx, QWORD PTR tv132[rbp]
	mov	r9, rcx
	mov	r8d, DWORD PTR tv142[rbp]
	mov	rdx, rax
	mov	rcx, QWORD PTR env$[rbp]
	call	TEST_Assert

; 101  :     TEST_Assert(env, FormatTestLabel(L"PMC_Compare_X_I (%d.%d)", no, 4), actual_z == desired_z, L"データの内容が一致しない");

	mov	eax, DWORD PTR desired_z$[rbp]
	cmp	DWORD PTR actual_z$[rbp], eax
	jne	SHORT $LN11@TEST_PMC_C
	mov	DWORD PTR tv152[rbp], 1
	jmp	SHORT $LN12@TEST_PMC_C
$LN11@TEST_PMC_C:
	mov	DWORD PTR tv152[rbp], 0
$LN12@TEST_PMC_C:
	mov	r8d, 4
	mov	edx, DWORD PTR no$[rbp]
	lea	rcx, OFFSET FLAT:??_C@_1DA@FCJPGFGN@?$AAP?$AAM?$AAC?$AA_?$AAC?$AAo?$AAm?$AAp?$AAa?$AAr?$AAe?$AA_?$AAX?$AA_?$AAI@
	call	FormatTestLabel
	lea	r9, OFFSET FLAT:??_C@_1BK@CBDJCOBM@?$PP?G?$PP?$PM?$PP?$LP?$AAn?$PP?$IF?$PP?$LJ?$AAL?$AA?$AA?$PP?t?$AAW?$AAj?$AAD@
	mov	r8d, DWORD PTR tv152[rbp]
	mov	rdx, rax
	mov	rcx, QWORD PTR env$[rbp]
	call	TEST_Assert

; 102  :     if (y_result == PMC_STATUS_OK)

	cmp	DWORD PTR y_result$[rbp], 0
	jne	SHORT $LN2@TEST_PMC_C

; 103  :         ep->PMC_Dispose(y);

	mov	rcx, QWORD PTR y$[rbp]
	mov	rax, QWORD PTR ep$[rbp]
	call	QWORD PTR [rax+32]
$LN2@TEST_PMC_C:

; 104  :     if (x_result == PMC_STATUS_OK)

	cmp	DWORD PTR x_result$[rbp], 0
	jne	SHORT $LN3@TEST_PMC_C

; 105  :         ep->PMC_Dispose(x);

	mov	rcx, QWORD PTR x$[rbp]
	mov	rax, QWORD PTR ep$[rbp]
	call	QWORD PTR [rax+32]
$LN3@TEST_PMC_C:

; 106  : }

	lea	rcx, QWORD PTR [rbp-32]
	lea	rdx, OFFSET FLAT:TEST_PMC_Compare_X_X$rtcFrameData
	call	_RTC_CheckStackVars
	lea	rsp, QWORD PTR [rbp+392]
	pop	rdi
	pop	rbp
	ret	0
TEST_PMC_Compare_X_X ENDP
_TEXT	ENDS
; Function compile flags: /Odtp /RTCsu /ZI
; File z:\sources\lunor\repos\rougemeilland\palmtree.math.core.uint\palmtree.math.core.uint\test_op_compare.c
;	COMDAT TEST_PMC_Compare_X_L
_TEXT	SEGMENT
x$ = 8
actual_z$ = 36
result$ = 68
x_result$ = 100
tv134 = 308
tv92 = 308
tv74 = 308
tv82 = 312
tv64 = 312
env$ = 352
ep$ = 360
no$ = 368
x_buf$ = 376
x_buf_size$ = 384
y$ = 392
desired_z$ = 400
TEST_PMC_Compare_X_L PROC				; COMDAT

; 78   : {

$LN10:
	mov	QWORD PTR [rsp+32], r9
	mov	DWORD PTR [rsp+24], r8d
	mov	QWORD PTR [rsp+16], rdx
	mov	QWORD PTR [rsp+8], rcx
	push	rbp
	push	rdi
	sub	rsp, 360				; 00000168H
	lea	rbp, QWORD PTR [rsp+32]
	mov	rdi, rsp
	mov	ecx, 90					; 0000005aH
	mov	eax, -858993460				; ccccccccH
	rep stosd
	mov	rcx, QWORD PTR [rsp+392]
	lea	rcx, OFFSET FLAT:__21B28967_test_op_compare@c
	call	__CheckForDebuggerJustMyCode

; 79   :     HANDLE x;
; 80   :     int actual_z;
; 81   :     PMC_STATUS_CODE result;
; 82   :     PMC_STATUS_CODE x_result;
; 83   :     TEST_Assert(env, FormatTestLabel(L"PMC_Compare_X_L (%d.%d)", no, 1), (x_result = ep->PMC_FromByteArray(x_buf, x_buf_size, &x)) == PMC_STATUS_OK, FormatTestMesssage(L"PMC_FromByteArrayの復帰コードが期待通りではない(%d)", x_result));

	lea	r8, QWORD PTR x$[rbp]
	mov	rdx, QWORD PTR x_buf_size$[rbp]
	mov	rcx, QWORD PTR x_buf$[rbp]
	mov	rax, QWORD PTR ep$[rbp]
	call	QWORD PTR [rax+48]
	mov	DWORD PTR x_result$[rbp], eax
	cmp	DWORD PTR x_result$[rbp], 0
	jne	SHORT $LN4@TEST_PMC_C
	mov	DWORD PTR tv74[rbp], 1
	jmp	SHORT $LN5@TEST_PMC_C
$LN4@TEST_PMC_C:
	mov	DWORD PTR tv74[rbp], 0
$LN5@TEST_PMC_C:
	mov	edx, DWORD PTR x_result$[rbp]
	lea	rcx, OFFSET FLAT:??_C@_1EK@HDEICNAJ@?$AAP?$AAM?$AAC?$AA_?$AAF?$AAr?$AAo?$AAm?$AAB?$AAy?$AAt?$AAe?$AAA?$AAr?$AAr@
	call	FormatTestMesssage
	mov	QWORD PTR tv64[rbp], rax
	mov	r8d, 1
	mov	edx, DWORD PTR no$[rbp]
	lea	rcx, OFFSET FLAT:??_C@_1DA@HJBFLFHC@?$AAP?$AAM?$AAC?$AA_?$AAC?$AAo?$AAm?$AAp?$AAa?$AAr?$AAe?$AA_?$AAX?$AA_?$AAL@
	call	FormatTestLabel
	mov	rcx, QWORD PTR tv64[rbp]
	mov	r9, rcx
	mov	r8d, DWORD PTR tv74[rbp]
	mov	rdx, rax
	mov	rcx, QWORD PTR env$[rbp]
	call	TEST_Assert

; 84   :     TEST_Assert(env, FormatTestLabel(L"PMC_Compare_X_L (%d.%d)", no, 2), (result = ep->PMC_Compare_X_L(x, y, &actual_z)) == PMC_STATUS_OK, FormatTestMesssage(L"PMC_Compare_X_Lの復帰コードが期待通りではない(%d)", result));

	lea	r8, QWORD PTR actual_z$[rbp]
	mov	rdx, QWORD PTR y$[rbp]
	mov	rcx, QWORD PTR x$[rbp]
	mov	rax, QWORD PTR ep$[rbp]
	call	QWORD PTR [rax+440]
	mov	DWORD PTR result$[rbp], eax
	cmp	DWORD PTR result$[rbp], 0
	jne	SHORT $LN6@TEST_PMC_C
	mov	DWORD PTR tv92[rbp], 1
	jmp	SHORT $LN7@TEST_PMC_C
$LN6@TEST_PMC_C:
	mov	DWORD PTR tv92[rbp], 0
$LN7@TEST_PMC_C:
	mov	edx, DWORD PTR result$[rbp]
	lea	rcx, OFFSET FLAT:??_C@_1EG@POCOFAEI@?$AAP?$AAM?$AAC?$AA_?$AAC?$AAo?$AAm?$AAp?$AAa?$AAr?$AAe?$AA_?$AAX?$AA_?$AAL@
	call	FormatTestMesssage
	mov	QWORD PTR tv82[rbp], rax
	mov	r8d, 2
	mov	edx, DWORD PTR no$[rbp]
	lea	rcx, OFFSET FLAT:??_C@_1DA@HJBFLFHC@?$AAP?$AAM?$AAC?$AA_?$AAC?$AAo?$AAm?$AAp?$AAa?$AAr?$AAe?$AA_?$AAX?$AA_?$AAL@
	call	FormatTestLabel
	mov	rcx, QWORD PTR tv82[rbp]
	mov	r9, rcx
	mov	r8d, DWORD PTR tv92[rbp]
	mov	rdx, rax
	mov	rcx, QWORD PTR env$[rbp]
	call	TEST_Assert

; 85   :     TEST_Assert(env, FormatTestLabel(L"PMC_Compare_X_I (%d.%d)", no, 3), actual_z == desired_z, L"データの内容が一致しない");

	mov	eax, DWORD PTR desired_z$[rbp]
	cmp	DWORD PTR actual_z$[rbp], eax
	jne	SHORT $LN8@TEST_PMC_C
	mov	DWORD PTR tv134[rbp], 1
	jmp	SHORT $LN9@TEST_PMC_C
$LN8@TEST_PMC_C:
	mov	DWORD PTR tv134[rbp], 0
$LN9@TEST_PMC_C:
	mov	r8d, 3
	mov	edx, DWORD PTR no$[rbp]
	lea	rcx, OFFSET FLAT:??_C@_1DA@FCJPGFGN@?$AAP?$AAM?$AAC?$AA_?$AAC?$AAo?$AAm?$AAp?$AAa?$AAr?$AAe?$AA_?$AAX?$AA_?$AAI@
	call	FormatTestLabel
	lea	r9, OFFSET FLAT:??_C@_1BK@CBDJCOBM@?$PP?G?$PP?$PM?$PP?$LP?$AAn?$PP?$IF?$PP?$LJ?$AAL?$AA?$AA?$PP?t?$AAW?$AAj?$AAD@
	mov	r8d, DWORD PTR tv134[rbp]
	mov	rdx, rax
	mov	rcx, QWORD PTR env$[rbp]
	call	TEST_Assert

; 86   :     if (x_result == PMC_STATUS_OK)

	cmp	DWORD PTR x_result$[rbp], 0
	jne	SHORT $LN2@TEST_PMC_C

; 87   :         ep->PMC_Dispose(x);

	mov	rcx, QWORD PTR x$[rbp]
	mov	rax, QWORD PTR ep$[rbp]
	call	QWORD PTR [rax+32]
$LN2@TEST_PMC_C:

; 88   : }

	lea	rcx, QWORD PTR [rbp-32]
	lea	rdx, OFFSET FLAT:TEST_PMC_Compare_X_L$rtcFrameData
	call	_RTC_CheckStackVars
	lea	rsp, QWORD PTR [rbp+328]
	pop	rdi
	pop	rbp
	ret	0
TEST_PMC_Compare_X_L ENDP
_TEXT	ENDS
; Function compile flags: /Odtp /RTCsu /ZI
; File z:\sources\lunor\repos\rougemeilland\palmtree.math.core.uint\palmtree.math.core.uint\test_op_compare.c
;	COMDAT TEST_PMC_Compare_X_I
_TEXT	SEGMENT
x$ = 8
actual_z$ = 36
result$ = 68
x_result$ = 100
tv134 = 308
tv92 = 308
tv74 = 308
tv82 = 312
tv64 = 312
env$ = 352
ep$ = 360
no$ = 368
x_buf$ = 376
x_buf_size$ = 384
y$ = 392
desired_z$ = 400
TEST_PMC_Compare_X_I PROC				; COMDAT

; 65   : {

$LN10:
	mov	QWORD PTR [rsp+32], r9
	mov	DWORD PTR [rsp+24], r8d
	mov	QWORD PTR [rsp+16], rdx
	mov	QWORD PTR [rsp+8], rcx
	push	rbp
	push	rdi
	sub	rsp, 360				; 00000168H
	lea	rbp, QWORD PTR [rsp+32]
	mov	rdi, rsp
	mov	ecx, 90					; 0000005aH
	mov	eax, -858993460				; ccccccccH
	rep stosd
	mov	rcx, QWORD PTR [rsp+392]
	lea	rcx, OFFSET FLAT:__21B28967_test_op_compare@c
	call	__CheckForDebuggerJustMyCode

; 66   :     HANDLE x;
; 67   :     int actual_z;
; 68   :     PMC_STATUS_CODE result;
; 69   :     PMC_STATUS_CODE x_result;
; 70   :     TEST_Assert(env, FormatTestLabel(L"PMC_Compare_X_I (%d.%d)", no, 1), (x_result = ep->PMC_FromByteArray(x_buf, x_buf_size, &x)) == PMC_STATUS_OK, FormatTestMesssage(L"PMC_FromByteArrayの復帰コードが期待通りではない(%d)", x_result));

	lea	r8, QWORD PTR x$[rbp]
	mov	rdx, QWORD PTR x_buf_size$[rbp]
	mov	rcx, QWORD PTR x_buf$[rbp]
	mov	rax, QWORD PTR ep$[rbp]
	call	QWORD PTR [rax+48]
	mov	DWORD PTR x_result$[rbp], eax
	cmp	DWORD PTR x_result$[rbp], 0
	jne	SHORT $LN4@TEST_PMC_C
	mov	DWORD PTR tv74[rbp], 1
	jmp	SHORT $LN5@TEST_PMC_C
$LN4@TEST_PMC_C:
	mov	DWORD PTR tv74[rbp], 0
$LN5@TEST_PMC_C:
	mov	edx, DWORD PTR x_result$[rbp]
	lea	rcx, OFFSET FLAT:??_C@_1EK@HDEICNAJ@?$AAP?$AAM?$AAC?$AA_?$AAF?$AAr?$AAo?$AAm?$AAB?$AAy?$AAt?$AAe?$AAA?$AAr?$AAr@
	call	FormatTestMesssage
	mov	QWORD PTR tv64[rbp], rax
	mov	r8d, 1
	mov	edx, DWORD PTR no$[rbp]
	lea	rcx, OFFSET FLAT:??_C@_1DA@FCJPGFGN@?$AAP?$AAM?$AAC?$AA_?$AAC?$AAo?$AAm?$AAp?$AAa?$AAr?$AAe?$AA_?$AAX?$AA_?$AAI@
	call	FormatTestLabel
	mov	rcx, QWORD PTR tv64[rbp]
	mov	r9, rcx
	mov	r8d, DWORD PTR tv74[rbp]
	mov	rdx, rax
	mov	rcx, QWORD PTR env$[rbp]
	call	TEST_Assert

; 71   :     TEST_Assert(env, FormatTestLabel(L"PMC_Compare_X_I (%d.%d)", no, 2), (result = ep->PMC_Compare_X_I(x, y, &actual_z)) == PMC_STATUS_OK, FormatTestMesssage(L"PMC_Compare_X_Iの復帰コードが期待通りではない(%d)", result));

	lea	r8, QWORD PTR actual_z$[rbp]
	mov	edx, DWORD PTR y$[rbp]
	mov	rcx, QWORD PTR x$[rbp]
	mov	rax, QWORD PTR ep$[rbp]
	call	QWORD PTR [rax+432]
	mov	DWORD PTR result$[rbp], eax
	cmp	DWORD PTR result$[rbp], 0
	jne	SHORT $LN6@TEST_PMC_C
	mov	DWORD PTR tv92[rbp], 1
	jmp	SHORT $LN7@TEST_PMC_C
$LN6@TEST_PMC_C:
	mov	DWORD PTR tv92[rbp], 0
$LN7@TEST_PMC_C:
	mov	edx, DWORD PTR result$[rbp]
	lea	rcx, OFFSET FLAT:??_C@_1EG@LGGCMNNN@?$AAP?$AAM?$AAC?$AA_?$AAC?$AAo?$AAm?$AAp?$AAa?$AAr?$AAe?$AA_?$AAX?$AA_?$AAI@
	call	FormatTestMesssage
	mov	QWORD PTR tv82[rbp], rax
	mov	r8d, 2
	mov	edx, DWORD PTR no$[rbp]
	lea	rcx, OFFSET FLAT:??_C@_1DA@FCJPGFGN@?$AAP?$AAM?$AAC?$AA_?$AAC?$AAo?$AAm?$AAp?$AAa?$AAr?$AAe?$AA_?$AAX?$AA_?$AAI@
	call	FormatTestLabel
	mov	rcx, QWORD PTR tv82[rbp]
	mov	r9, rcx
	mov	r8d, DWORD PTR tv92[rbp]
	mov	rdx, rax
	mov	rcx, QWORD PTR env$[rbp]
	call	TEST_Assert

; 72   :     TEST_Assert(env, FormatTestLabel(L"PMC_Compare_X_I (%d.%d)", no, 3), actual_z == desired_z, L"データの内容が一致しない");

	mov	eax, DWORD PTR desired_z$[rbp]
	cmp	DWORD PTR actual_z$[rbp], eax
	jne	SHORT $LN8@TEST_PMC_C
	mov	DWORD PTR tv134[rbp], 1
	jmp	SHORT $LN9@TEST_PMC_C
$LN8@TEST_PMC_C:
	mov	DWORD PTR tv134[rbp], 0
$LN9@TEST_PMC_C:
	mov	r8d, 3
	mov	edx, DWORD PTR no$[rbp]
	lea	rcx, OFFSET FLAT:??_C@_1DA@FCJPGFGN@?$AAP?$AAM?$AAC?$AA_?$AAC?$AAo?$AAm?$AAp?$AAa?$AAr?$AAe?$AA_?$AAX?$AA_?$AAI@
	call	FormatTestLabel
	lea	r9, OFFSET FLAT:??_C@_1BK@CBDJCOBM@?$PP?G?$PP?$PM?$PP?$LP?$AAn?$PP?$IF?$PP?$LJ?$AAL?$AA?$AA?$PP?t?$AAW?$AAj?$AAD@
	mov	r8d, DWORD PTR tv134[rbp]
	mov	rdx, rax
	mov	rcx, QWORD PTR env$[rbp]
	call	TEST_Assert

; 73   :     if (x_result == PMC_STATUS_OK)

	cmp	DWORD PTR x_result$[rbp], 0
	jne	SHORT $LN2@TEST_PMC_C

; 74   :         ep->PMC_Dispose(x);

	mov	rcx, QWORD PTR x$[rbp]
	mov	rax, QWORD PTR ep$[rbp]
	call	QWORD PTR [rax+32]
$LN2@TEST_PMC_C:

; 75   : }

	lea	rcx, QWORD PTR [rbp-32]
	lea	rdx, OFFSET FLAT:TEST_PMC_Compare_X_I$rtcFrameData
	call	_RTC_CheckStackVars
	lea	rsp, QWORD PTR [rbp+328]
	pop	rdi
	pop	rbp
	ret	0
TEST_PMC_Compare_X_I ENDP
_TEXT	ENDS
; Function compile flags: /Odtp /RTCsu /ZI
; File z:\sources\lunor\repos\rougemeilland\palmtree.math.core.uint\palmtree.math.core.uint\test_op_compare.c
;	COMDAT TEST_PMC_Compare_L_X
_TEXT	SEGMENT
v$ = 8
actual_w$ = 36
result$ = 68
v_result$ = 100
tv134 = 308
tv92 = 308
tv74 = 308
tv82 = 312
tv64 = 312
env$ = 352
ep$ = 360
no$ = 368
u$ = 376
v_buf$ = 384
v_buf_size$ = 392
desired_w$ = 400
TEST_PMC_Compare_L_X PROC				; COMDAT

; 52   : {

$LN10:
	mov	QWORD PTR [rsp+32], r9
	mov	DWORD PTR [rsp+24], r8d
	mov	QWORD PTR [rsp+16], rdx
	mov	QWORD PTR [rsp+8], rcx
	push	rbp
	push	rdi
	sub	rsp, 360				; 00000168H
	lea	rbp, QWORD PTR [rsp+32]
	mov	rdi, rsp
	mov	ecx, 90					; 0000005aH
	mov	eax, -858993460				; ccccccccH
	rep stosd
	mov	rcx, QWORD PTR [rsp+392]
	lea	rcx, OFFSET FLAT:__21B28967_test_op_compare@c
	call	__CheckForDebuggerJustMyCode

; 53   :     HANDLE v;
; 54   :     int actual_w;
; 55   :     PMC_STATUS_CODE result;
; 56   :     PMC_STATUS_CODE v_result;
; 57   :     TEST_Assert(env, FormatTestLabel(L"PMC_Compare_L_X (%d.%d)", no, 1), (v_result = ep->PMC_FromByteArray(v_buf, v_buf_size, &v)) == PMC_STATUS_OK, FormatTestMesssage(L"PMC_FromByteArrayの復帰コードが期待通りではない(%d)", v_result));

	lea	r8, QWORD PTR v$[rbp]
	mov	rdx, QWORD PTR v_buf_size$[rbp]
	mov	rcx, QWORD PTR v_buf$[rbp]
	mov	rax, QWORD PTR ep$[rbp]
	call	QWORD PTR [rax+48]
	mov	DWORD PTR v_result$[rbp], eax
	cmp	DWORD PTR v_result$[rbp], 0
	jne	SHORT $LN4@TEST_PMC_C
	mov	DWORD PTR tv74[rbp], 1
	jmp	SHORT $LN5@TEST_PMC_C
$LN4@TEST_PMC_C:
	mov	DWORD PTR tv74[rbp], 0
$LN5@TEST_PMC_C:
	mov	edx, DWORD PTR v_result$[rbp]
	lea	rcx, OFFSET FLAT:??_C@_1EK@HDEICNAJ@?$AAP?$AAM?$AAC?$AA_?$AAF?$AAr?$AAo?$AAm?$AAB?$AAy?$AAt?$AAe?$AAA?$AAr?$AAr@
	call	FormatTestMesssage
	mov	QWORD PTR tv64[rbp], rax
	mov	r8d, 1
	mov	edx, DWORD PTR no$[rbp]
	lea	rcx, OFFSET FLAT:??_C@_1DA@MBFDBEGM@?$AAP?$AAM?$AAC?$AA_?$AAC?$AAo?$AAm?$AAp?$AAa?$AAr?$AAe?$AA_?$AAL?$AA_?$AAX@
	call	FormatTestLabel
	mov	rcx, QWORD PTR tv64[rbp]
	mov	r9, rcx
	mov	r8d, DWORD PTR tv74[rbp]
	mov	rdx, rax
	mov	rcx, QWORD PTR env$[rbp]
	call	TEST_Assert

; 58   :     TEST_Assert(env, FormatTestLabel(L"PMC_Compare_L_X (%d.%d)", no, 2), (result = ep->PMC_Compare_L_X(u, v, &actual_w)) == PMC_STATUS_OK, FormatTestMesssage(L"PMC_Compare_L_Xの復帰コードが期待通りではない(%d)", result));

	lea	r8, QWORD PTR actual_w$[rbp]
	mov	rdx, QWORD PTR v$[rbp]
	mov	rcx, QWORD PTR u$[rbp]
	mov	rax, QWORD PTR ep$[rbp]
	call	QWORD PTR [rax+424]
	mov	DWORD PTR result$[rbp], eax
	cmp	DWORD PTR result$[rbp], 0
	jne	SHORT $LN6@TEST_PMC_C
	mov	DWORD PTR tv92[rbp], 1
	jmp	SHORT $LN7@TEST_PMC_C
$LN6@TEST_PMC_C:
	mov	DWORD PTR tv92[rbp], 0
$LN7@TEST_PMC_C:
	mov	edx, DWORD PTR result$[rbp]
	lea	rcx, OFFSET FLAT:??_C@_1EG@LBGHOIGE@?$AAP?$AAM?$AAC?$AA_?$AAC?$AAo?$AAm?$AAp?$AAa?$AAr?$AAe?$AA_?$AAL?$AA_?$AAX@
	call	FormatTestMesssage
	mov	QWORD PTR tv82[rbp], rax
	mov	r8d, 2
	mov	edx, DWORD PTR no$[rbp]
	lea	rcx, OFFSET FLAT:??_C@_1DA@MBFDBEGM@?$AAP?$AAM?$AAC?$AA_?$AAC?$AAo?$AAm?$AAp?$AAa?$AAr?$AAe?$AA_?$AAL?$AA_?$AAX@
	call	FormatTestLabel
	mov	rcx, QWORD PTR tv82[rbp]
	mov	r9, rcx
	mov	r8d, DWORD PTR tv92[rbp]
	mov	rdx, rax
	mov	rcx, QWORD PTR env$[rbp]
	call	TEST_Assert

; 59   :     TEST_Assert(env, FormatTestLabel(L"PMC_Compare_L_X (%d.%d)", no, 3), actual_w == desired_w, L"データの内容が一致しない");

	mov	eax, DWORD PTR desired_w$[rbp]
	cmp	DWORD PTR actual_w$[rbp], eax
	jne	SHORT $LN8@TEST_PMC_C
	mov	DWORD PTR tv134[rbp], 1
	jmp	SHORT $LN9@TEST_PMC_C
$LN8@TEST_PMC_C:
	mov	DWORD PTR tv134[rbp], 0
$LN9@TEST_PMC_C:
	mov	r8d, 3
	mov	edx, DWORD PTR no$[rbp]
	lea	rcx, OFFSET FLAT:??_C@_1DA@MBFDBEGM@?$AAP?$AAM?$AAC?$AA_?$AAC?$AAo?$AAm?$AAp?$AAa?$AAr?$AAe?$AA_?$AAL?$AA_?$AAX@
	call	FormatTestLabel
	lea	r9, OFFSET FLAT:??_C@_1BK@CBDJCOBM@?$PP?G?$PP?$PM?$PP?$LP?$AAn?$PP?$IF?$PP?$LJ?$AAL?$AA?$AA?$PP?t?$AAW?$AAj?$AAD@
	mov	r8d, DWORD PTR tv134[rbp]
	mov	rdx, rax
	mov	rcx, QWORD PTR env$[rbp]
	call	TEST_Assert

; 60   :     if (v_result == PMC_STATUS_OK)

	cmp	DWORD PTR v_result$[rbp], 0
	jne	SHORT $LN2@TEST_PMC_C

; 61   :         ep->PMC_Dispose(v);

	mov	rcx, QWORD PTR v$[rbp]
	mov	rax, QWORD PTR ep$[rbp]
	call	QWORD PTR [rax+32]
$LN2@TEST_PMC_C:

; 62   : }

	lea	rcx, QWORD PTR [rbp-32]
	lea	rdx, OFFSET FLAT:TEST_PMC_Compare_L_X$rtcFrameData
	call	_RTC_CheckStackVars
	lea	rsp, QWORD PTR [rbp+328]
	pop	rdi
	pop	rbp
	ret	0
TEST_PMC_Compare_L_X ENDP
_TEXT	ENDS
; Function compile flags: /Odtp /RTCsu /ZI
; File z:\sources\lunor\repos\rougemeilland\palmtree.math.core.uint\palmtree.math.core.uint\test_op_compare.c
;	COMDAT TEST_PMC_Compare_I_X
_TEXT	SEGMENT
v$ = 8
actual_w$ = 36
result$ = 68
v_result$ = 100
tv134 = 308
tv92 = 308
tv74 = 308
tv82 = 312
tv64 = 312
env$ = 352
ep$ = 360
no$ = 368
u$ = 376
v_buf$ = 384
v_buf_size$ = 392
desired_w$ = 400
TEST_PMC_Compare_I_X PROC				; COMDAT

; 39   : {

$LN10:
	mov	DWORD PTR [rsp+32], r9d
	mov	DWORD PTR [rsp+24], r8d
	mov	QWORD PTR [rsp+16], rdx
	mov	QWORD PTR [rsp+8], rcx
	push	rbp
	push	rdi
	sub	rsp, 360				; 00000168H
	lea	rbp, QWORD PTR [rsp+32]
	mov	rdi, rsp
	mov	ecx, 90					; 0000005aH
	mov	eax, -858993460				; ccccccccH
	rep stosd
	mov	rcx, QWORD PTR [rsp+392]
	lea	rcx, OFFSET FLAT:__21B28967_test_op_compare@c
	call	__CheckForDebuggerJustMyCode

; 40   :     HANDLE v;
; 41   :     int actual_w;
; 42   :     PMC_STATUS_CODE result;
; 43   :     PMC_STATUS_CODE v_result;
; 44   :     TEST_Assert(env, FormatTestLabel(L"PMC_Compare_I_X (%d.%d)", no, 1), (v_result = ep->PMC_FromByteArray(v_buf, v_buf_size, &v)) == PMC_STATUS_OK, FormatTestMesssage(L"PMC_FromByteArrayの復帰コードが期待通りではない(%d)", v_result));

	lea	r8, QWORD PTR v$[rbp]
	mov	rdx, QWORD PTR v_buf_size$[rbp]
	mov	rcx, QWORD PTR v_buf$[rbp]
	mov	rax, QWORD PTR ep$[rbp]
	call	QWORD PTR [rax+48]
	mov	DWORD PTR v_result$[rbp], eax
	cmp	DWORD PTR v_result$[rbp], 0
	jne	SHORT $LN4@TEST_PMC_C
	mov	DWORD PTR tv74[rbp], 1
	jmp	SHORT $LN5@TEST_PMC_C
$LN4@TEST_PMC_C:
	mov	DWORD PTR tv74[rbp], 0
$LN5@TEST_PMC_C:
	mov	edx, DWORD PTR v_result$[rbp]
	lea	rcx, OFFSET FLAT:??_C@_1EK@HDEICNAJ@?$AAP?$AAM?$AAC?$AA_?$AAF?$AAr?$AAo?$AAm?$AAB?$AAy?$AAt?$AAe?$AAA?$AAr?$AAr@
	call	FormatTestMesssage
	mov	QWORD PTR tv64[rbp], rax
	mov	r8d, 1
	mov	edx, DWORD PTR no$[rbp]
	lea	rcx, OFFSET FLAT:??_C@_1DA@CJHAOPBE@?$AAP?$AAM?$AAC?$AA_?$AAC?$AAo?$AAm?$AAp?$AAa?$AAr?$AAe?$AA_?$AAI?$AA_?$AAX@
	call	FormatTestLabel
	mov	rcx, QWORD PTR tv64[rbp]
	mov	r9, rcx
	mov	r8d, DWORD PTR tv74[rbp]
	mov	rdx, rax
	mov	rcx, QWORD PTR env$[rbp]
	call	TEST_Assert

; 45   :     TEST_Assert(env, FormatTestLabel(L"PMC_Compare_I_X (%d.%d)", no, 2), (result = ep->PMC_Compare_I_X(u, v, &actual_w)) == PMC_STATUS_OK, FormatTestMesssage(L"PMC_Compare_I_Xの復帰コードが期待通りではない(%d)", result));

	lea	r8, QWORD PTR actual_w$[rbp]
	mov	rdx, QWORD PTR v$[rbp]
	mov	ecx, DWORD PTR u$[rbp]
	mov	rax, QWORD PTR ep$[rbp]
	call	QWORD PTR [rax+416]
	mov	DWORD PTR result$[rbp], eax
	cmp	DWORD PTR result$[rbp], 0
	jne	SHORT $LN6@TEST_PMC_C
	mov	DWORD PTR tv92[rbp], 1
	jmp	SHORT $LN7@TEST_PMC_C
$LN6@TEST_PMC_C:
	mov	DWORD PTR tv92[rbp], 0
$LN7@TEST_PMC_C:
	mov	edx, DWORD PTR result$[rbp]
	lea	rcx, OFFSET FLAT:??_C@_1EG@OKPJBLPK@?$AAP?$AAM?$AAC?$AA_?$AAC?$AAo?$AAm?$AAp?$AAa?$AAr?$AAe?$AA_?$AAI?$AA_?$AAX@
	call	FormatTestMesssage
	mov	QWORD PTR tv82[rbp], rax
	mov	r8d, 2
	mov	edx, DWORD PTR no$[rbp]
	lea	rcx, OFFSET FLAT:??_C@_1DA@CJHAOPBE@?$AAP?$AAM?$AAC?$AA_?$AAC?$AAo?$AAm?$AAp?$AAa?$AAr?$AAe?$AA_?$AAI?$AA_?$AAX@
	call	FormatTestLabel
	mov	rcx, QWORD PTR tv82[rbp]
	mov	r9, rcx
	mov	r8d, DWORD PTR tv92[rbp]
	mov	rdx, rax
	mov	rcx, QWORD PTR env$[rbp]
	call	TEST_Assert

; 46   :     TEST_Assert(env, FormatTestLabel(L"PMC_Compare_I_X (%d.%d)", no, 3), actual_w == desired_w, L"データの内容が一致しない");

	mov	eax, DWORD PTR desired_w$[rbp]
	cmp	DWORD PTR actual_w$[rbp], eax
	jne	SHORT $LN8@TEST_PMC_C
	mov	DWORD PTR tv134[rbp], 1
	jmp	SHORT $LN9@TEST_PMC_C
$LN8@TEST_PMC_C:
	mov	DWORD PTR tv134[rbp], 0
$LN9@TEST_PMC_C:
	mov	r8d, 3
	mov	edx, DWORD PTR no$[rbp]
	lea	rcx, OFFSET FLAT:??_C@_1DA@CJHAOPBE@?$AAP?$AAM?$AAC?$AA_?$AAC?$AAo?$AAm?$AAp?$AAa?$AAr?$AAe?$AA_?$AAI?$AA_?$AAX@
	call	FormatTestLabel
	lea	r9, OFFSET FLAT:??_C@_1BK@CBDJCOBM@?$PP?G?$PP?$PM?$PP?$LP?$AAn?$PP?$IF?$PP?$LJ?$AAL?$AA?$AA?$PP?t?$AAW?$AAj?$AAD@
	mov	r8d, DWORD PTR tv134[rbp]
	mov	rdx, rax
	mov	rcx, QWORD PTR env$[rbp]
	call	TEST_Assert

; 47   :     if (v_result == PMC_STATUS_OK)

	cmp	DWORD PTR v_result$[rbp], 0
	jne	SHORT $LN2@TEST_PMC_C

; 48   :         ep->PMC_Dispose(v);

	mov	rcx, QWORD PTR v$[rbp]
	mov	rax, QWORD PTR ep$[rbp]
	call	QWORD PTR [rax+32]
$LN2@TEST_PMC_C:

; 49   : }

	lea	rcx, QWORD PTR [rbp-32]
	lea	rdx, OFFSET FLAT:TEST_PMC_Compare_I_X$rtcFrameData
	call	_RTC_CheckStackVars
	lea	rsp, QWORD PTR [rbp+328]
	pop	rdi
	pop	rbp
	ret	0
TEST_PMC_Compare_I_X ENDP
_TEXT	ENDS
END
