; Listing generated by Microsoft (R) Optimizing Compiler Version 19.16.27026.1 

include listing.inc

INCLUDELIB MSVCRTD
INCLUDELIB OLDNAMES

msvcjmc	SEGMENT
__7B7A869E_ctype@h DB 01H
__457DD326_basetsd@h DB 01H
__4384A2D9_corecrt_memcpy_s@h DB 01H
__4E51A221_corecrt_wstring@h DB 01H
__2140C079_string@h DB 01H
__1887E595_winnt@h DB 01H
__9FC7C64B_processthreadsapi@h DB 01H
__FA470AEC_memoryapi@h DB 01H
__F37DAFF1_winerror@h DB 01H
__7A450CCC_winbase@h DB 01H
__B4B40122_winioctl@h DB 01H
__86261D59_stralign@h DB 01H
__630249ED_pmc_uint_debug@h DB 01H
__8843EC3E_test_op_parsex@c DB 01H
msvcjmc	ENDS
PUBLIC	TEST_PMC_ParseX
PUBLIC	__JustMyCode_Default
PUBLIC	??_C@_13DEFPDAGF@?$AA?0@			; `string'
PUBLIC	??_C@_01EKENIIDA@3@				; `string'
PUBLIC	??_C@_13JOFGPIOO@?$AA?4@			; `string'
PUBLIC	??_C@_13KJIIAINM@?$AA?$CL@			; `string'
PUBLIC	??_C@_13IMODFHAA@?$AA?9@			; `string'
PUBLIC	??_C@_1EA@BMFGEDLA@?$AAP?$AAM?$AAC?$AA_?$AAT?$AAr?$AAy?$AAP?$AAa?$AAr?$AAs?$AAe?$AAn?$PP?$KJ?$AA0@ ; `string'
PUBLIC	??_C@_1CG@MCEBDMBH@?$AAP?$AAM?$AAC?$AA_?$AAP?$AAa?$AAr?$AAs?$AAe?$AAX?$AA?5?$AA?$CI?$AA?$CF?$AAd?$AA?4@ ; `string'
PUBLIC	??_C@_1EG@MCOLJMDD@?$AAP?$AAM?$AAC?$AA_?$AAT?$AAo?$AAB?$AAy?$AAt?$AAe?$AAA?$AAr?$AAr?$AAa?$AAy@ ; `string'
PUBLIC	??_C@_1BK@CBDJCOBM@?$PP?G?$PP?$PM?$PP?$LP?$AAn?$PP?$IF?$PP?$LJ?$AAL?$AA?$AA?$PP?t?$AAW?$AAj?$AAD@ ; `string'
EXTRN	__imp_lstrcpyA:PROC
EXTRN	__imp_lstrcpyW:PROC
EXTRN	TEST_Assert:PROC
EXTRN	FormatTestLabel:PROC
EXTRN	FormatTestMesssage:PROC
EXTRN	_RTC_CheckStackVars:PROC
EXTRN	_RTC_InitBase:PROC
EXTRN	_RTC_Shutdown:PROC
EXTRN	__CheckForDebuggerJustMyCode:PROC
EXTRN	__GSHandlerCheck:PROC
EXTRN	__security_check_cookie:PROC
EXTRN	__security_cookie:QWORD
_BSS	SEGMENT
?actual_buf@?1??TEST_PMC_ParseX@@9@9 DB 0100H DUP (?)	; `TEST_PMC_ParseX'::`2'::actual_buf
?actual_buf_size@?1??TEST_PMC_ParseX@@9@9 DQ 01H DUP (?) ; `TEST_PMC_ParseX'::`2'::actual_buf_size
_BSS	ENDS
;	COMDAT pdata
pdata	SEGMENT
$pdata$TEST_PMC_ParseX DD imagerel $LN11
	DD	imagerel $LN11+655
	DD	imagerel $unwind$TEST_PMC_ParseX
pdata	ENDS
;	COMDAT pdata
pdata	SEGMENT
$pdata$_EQUALS_MEMORY DD imagerel _EQUALS_MEMORY
	DD	imagerel _EQUALS_MEMORY+198
	DD	imagerel $unwind$_EQUALS_MEMORY
pdata	ENDS
;	COMDAT rtc$TMZ
rtc$TMZ	SEGMENT
_RTC_Shutdown.rtc$TMZ DQ FLAT:_RTC_Shutdown
rtc$TMZ	ENDS
;	COMDAT rtc$IMZ
rtc$IMZ	SEGMENT
_RTC_InitBase.rtc$IMZ DQ FLAT:_RTC_InitBase
rtc$IMZ	ENDS
;	COMDAT ??_C@_1BK@CBDJCOBM@?$PP?G?$PP?$PM?$PP?$LP?$AAn?$PP?$IF?$PP?$LJ?$AAL?$AA?$AA?$PP?t?$AAW?$AAj?$AAD@
CONST	SEGMENT
??_C@_1BK@CBDJCOBM@?$PP?G?$PP?$PM?$PP?$LP?$AAn?$PP?$IF?$PP?$LJ?$AAL?$AA?$AA?$PP?t?$AAW?$AAj?$AAD@ DB 0c7H
	DB	'0', 0fcH, '0', 0bfH, '0n0', 085H, 'Q', 0b9H, '[L0', 00H, 'N', 0f4H
	DB	081H, 'W0j0D0', 00H, 00H			; `string'
CONST	ENDS
;	COMDAT ??_C@_1EG@MCOLJMDD@?$AAP?$AAM?$AAC?$AA_?$AAT?$AAo?$AAB?$AAy?$AAt?$AAe?$AAA?$AAr?$AAr?$AAa?$AAy@
CONST	SEGMENT
??_C@_1EG@MCOLJMDD@?$AAP?$AAM?$AAC?$AA_?$AAT?$AAo?$AAB?$AAy?$AAt?$AAe?$AAA?$AAr?$AAr?$AAa?$AAy@ DB 'P'
	DB	00H, 'M', 00H, 'C', 00H, '_', 00H, 'T', 00H, 'o', 00H, 'B', 00H
	DB	'y', 00H, 't', 00H, 'e', 00H, 'A', 00H, 'r', 00H, 'r', 00H, 'a'
	DB	00H, 'y', 00H, 'n0', 0a9H, '_0^', 0b3H, '0', 0fcH, '0', 0c9H, '0'
	DB	'L0', 01fH, 'g', 085H, '_', 01aH, 090H, 08aH, '0g0o0j0D0(', 00H
	DB	'%', 00H, 'd', 00H, ')', 00H, 00H, 00H	; `string'
CONST	ENDS
;	COMDAT ??_C@_1CG@MCEBDMBH@?$AAP?$AAM?$AAC?$AA_?$AAP?$AAa?$AAr?$AAs?$AAe?$AAX?$AA?5?$AA?$CI?$AA?$CF?$AAd?$AA?4@
CONST	SEGMENT
??_C@_1CG@MCEBDMBH@?$AAP?$AAM?$AAC?$AA_?$AAP?$AAa?$AAr?$AAs?$AAe?$AAX?$AA?5?$AA?$CI?$AA?$CF?$AAd?$AA?4@ DB 'P'
	DB	00H, 'M', 00H, 'C', 00H, '_', 00H, 'P', 00H, 'a', 00H, 'r', 00H
	DB	's', 00H, 'e', 00H, 'X', 00H, ' ', 00H, '(', 00H, '%', 00H, 'd'
	DB	00H, '.', 00H, '%', 00H, 'd', 00H, ')', 00H, 00H, 00H ; `string'
CONST	ENDS
;	COMDAT ??_C@_1EA@BMFGEDLA@?$AAP?$AAM?$AAC?$AA_?$AAT?$AAr?$AAy?$AAP?$AAa?$AAr?$AAs?$AAe?$AAn?$PP?$KJ?$AA0@
CONST	SEGMENT
??_C@_1EA@BMFGEDLA@?$AAP?$AAM?$AAC?$AA_?$AAT?$AAr?$AAy?$AAP?$AAa?$AAr?$AAs?$AAe?$AAn?$PP?$KJ?$AA0@ DB 'P'
	DB	00H, 'M', 00H, 'C', 00H, '_', 00H, 'T', 00H, 'r', 00H, 'y', 00H
	DB	'P', 00H, 'a', 00H, 'r', 00H, 's', 00H, 'e', 00H, 'n0', 0a9H, '_'
	DB	'0^', 0b3H, '0', 0fcH, '0', 0c9H, '0L0', 01fH, 'g', 085H, '_', 01aH
	DB	090H, 08aH, '0g0o0j0D0(', 00H, '%', 00H, 'd', 00H, ')', 00H, 00H
	DB	00H						; `string'
CONST	ENDS
;	COMDAT ??_C@_13IMODFHAA@?$AA?9@
CONST	SEGMENT
??_C@_13IMODFHAA@?$AA?9@ DB '-', 00H, 00H, 00H		; `string'
CONST	ENDS
;	COMDAT ??_C@_13KJIIAINM@?$AA?$CL@
CONST	SEGMENT
??_C@_13KJIIAINM@?$AA?$CL@ DB '+', 00H, 00H, 00H	; `string'
CONST	ENDS
;	COMDAT ??_C@_13JOFGPIOO@?$AA?4@
CONST	SEGMENT
??_C@_13JOFGPIOO@?$AA?4@ DB '.', 00H, 00H, 00H		; `string'
CONST	ENDS
;	COMDAT ??_C@_01EKENIIDA@3@
CONST	SEGMENT
??_C@_01EKENIIDA@3@ DB '3', 00H				; `string'
CONST	ENDS
;	COMDAT ??_C@_13DEFPDAGF@?$AA?0@
CONST	SEGMENT
??_C@_13DEFPDAGF@?$AA?0@ DB ',', 00H, 00H, 00H		; `string'
CONST	ENDS
;	COMDAT xdata
xdata	SEGMENT
$unwind$_EQUALS_MEMORY DD 025053901H
	DD	011d2322H
	DD	07016001dH
	DD	05015H
xdata	ENDS
;	COMDAT xdata
xdata	SEGMENT
$unwind$TEST_PMC_ParseX DD 025054a19H
	DD	011d2322H
	DD	070160033H
	DD	05015H
	DD	imagerel __GSHandlerCheck
	DD	0180H
xdata	ENDS
;	COMDAT CONST
CONST	SEGMENT
TEST_PMC_ParseX$rtcName$0 DB 078H
	DB	00H
	ORG $+2
TEST_PMC_ParseX$rtcName$1 DB 06fH
	DB	070H
	DB	074H
	DB	00H
	ORG $+8
TEST_PMC_ParseX$rtcVarDesc DD 088H
	DD	028H
	DQ	FLAT:TEST_PMC_ParseX$rtcName$1
	DD	028H
	DD	08H
	DQ	FLAT:TEST_PMC_ParseX$rtcName$0
	ORG $+96
TEST_PMC_ParseX$rtcFrameData DD 02H
	DD	00H
	DQ	FLAT:TEST_PMC_ParseX$rtcVarDesc
CONST	ENDS
; Function compile flags: /Odt
;	COMDAT __JustMyCode_Default
_TEXT	SEGMENT
__JustMyCode_Default PROC				; COMDAT
	ret	0
__JustMyCode_Default ENDP
_TEXT	ENDS
; Function compile flags: /Odtp /RTCsu /ZI
; File z:\sources\lunor\repos\rougemeilland\palmtree.math.core.uint\palmtree.math.core.uint\pmc_uint_debug.h
;	COMDAT _EQUALS_MEMORY
_TEXT	SEGMENT
buffer1$ = 224
count1$ = 232
buffer2$ = 240
count2$ = 248
_EQUALS_MEMORY PROC					; COMDAT

; 147  : {

	mov	QWORD PTR [rsp+32], r9
	mov	QWORD PTR [rsp+24], r8
	mov	QWORD PTR [rsp+16], rdx
	mov	QWORD PTR [rsp+8], rcx
	push	rbp
	push	rdi
	sub	rsp, 232				; 000000e8H
	lea	rbp, QWORD PTR [rsp+32]
	mov	rdi, rsp
	mov	ecx, 58					; 0000003aH
	mov	eax, -858993460				; ccccccccH
	rep stosd
	mov	rcx, QWORD PTR [rsp+264]
	lea	rcx, OFFSET FLAT:__630249ED_pmc_uint_debug@h
	call	__CheckForDebuggerJustMyCode

; 148  :     if (count1 != count2)

	mov	rax, QWORD PTR count2$[rbp]
	cmp	QWORD PTR count1$[rbp], rax
	je	SHORT $LN4@EQUALS_MEM

; 149  :         return (-1);

	mov	eax, -1
	jmp	SHORT $LN1@EQUALS_MEM
$LN4@EQUALS_MEM:
$LN2@EQUALS_MEM:

; 150  :     while (count1 > 0)

	cmp	QWORD PTR count1$[rbp], 0
	jbe	SHORT $LN3@EQUALS_MEM

; 151  :     {
; 152  :         if (*buffer1 != *buffer2)

	mov	rax, QWORD PTR buffer1$[rbp]
	movzx	eax, BYTE PTR [rax]
	mov	rcx, QWORD PTR buffer2$[rbp]
	movzx	ecx, BYTE PTR [rcx]
	cmp	eax, ecx
	je	SHORT $LN5@EQUALS_MEM

; 153  :             return (-1);

	mov	eax, -1
	jmp	SHORT $LN1@EQUALS_MEM
$LN5@EQUALS_MEM:

; 154  :         ++buffer1;

	mov	rax, QWORD PTR buffer1$[rbp]
	inc	rax
	mov	QWORD PTR buffer1$[rbp], rax

; 155  :         ++buffer2;

	mov	rax, QWORD PTR buffer2$[rbp]
	inc	rax
	mov	QWORD PTR buffer2$[rbp], rax

; 156  :         --count1;

	mov	rax, QWORD PTR count1$[rbp]
	dec	rax
	mov	QWORD PTR count1$[rbp], rax

; 157  :     }

	jmp	SHORT $LN2@EQUALS_MEM
$LN3@EQUALS_MEM:

; 158  :     return (0);

	xor	eax, eax
$LN1@EQUALS_MEM:

; 159  : }

	lea	rsp, QWORD PTR [rbp+200]
	pop	rdi
	pop	rbp
	ret	0
_EQUALS_MEMORY ENDP
_TEXT	ENDS
; Function compile flags: /Odtp /RTCsu /ZI
; File z:\sources\lunor\repos\rougemeilland\palmtree.math.core.uint\palmtree.math.core.uint\test_op_parsex.c
;	COMDAT TEST_PMC_ParseX
_TEXT	SEGMENT
x$ = 8
result$ = 36
x_result$ = 68
opt$ = 104
tv152 = 340
tv137 = 340
tv85 = 340
tv94 = 344
tv64 = 344
__$ArrayPad$ = 352
env$ = 400
ep$ = 408
no$ = 416
str$ = 424
styles$ = 432
desired_result_code$ = 440
desired_buf$ = 448
desired_buf_size$ = 456
TEST_PMC_ParseX PROC					; COMDAT

; 33   : {

$LN11:
	mov	QWORD PTR [rsp+32], r9
	mov	DWORD PTR [rsp+24], r8d
	mov	QWORD PTR [rsp+16], rdx
	mov	QWORD PTR [rsp+8], rcx
	push	rbp
	push	rdi
	sub	rsp, 408				; 00000198H
	lea	rbp, QWORD PTR [rsp+32]
	mov	rdi, rsp
	mov	ecx, 102				; 00000066H
	mov	eax, -858993460				; ccccccccH
	rep stosd
	mov	rcx, QWORD PTR [rsp+440]
	mov	rax, QWORD PTR __security_cookie
	xor	rax, rbp
	mov	QWORD PTR __$ArrayPad$[rbp], rax
	lea	rcx, OFFSET FLAT:__8843EC3E_test_op_parsex@c
	call	__CheckForDebuggerJustMyCode

; 34   :     PMC_HANDLE_UINT x;
; 35   :     static unsigned char actual_buf[256];
; 36   :     static size_t actual_buf_size;
; 37   :     PMC_STATUS_CODE result;
; 38   :     PMC_STATUS_CODE x_result;
; 39   :     PMC_NUMBER_FORMAT_OPTION opt;
; 40   :     lstrcpyW(opt.GroupSeparator, L",");

	lea	rdx, OFFSET FLAT:??_C@_13DEFPDAGF@?$AA?0@
	lea	rcx, QWORD PTR opt$[rbp+4]
	call	QWORD PTR __imp_lstrcpyW

; 41   :     lstrcpy(opt.GroupSizes, "3");

	lea	rdx, OFFSET FLAT:??_C@_01EKENIIDA@3@
	lea	rcx, QWORD PTR opt$[rbp+28]
	call	QWORD PTR __imp_lstrcpyA

; 42   :     lstrcpyW(opt.DecimalSeparator, L".");

	lea	rdx, OFFSET FLAT:??_C@_13JOFGPIOO@?$AA?4@
	lea	rcx, QWORD PTR opt$[rbp+10]
	call	QWORD PTR __imp_lstrcpyW

; 43   :     opt.DecimalDigits = 2;

	mov	DWORD PTR opt$[rbp], 2

; 44   :     lstrcpyW(opt.PositiveSign, L"+");

	lea	rdx, OFFSET FLAT:??_C@_13KJIIAINM@?$AA?$CL@
	lea	rcx, QWORD PTR opt$[rbp+16]
	call	QWORD PTR __imp_lstrcpyW

; 45   :     lstrcpyW(opt.NegativeSign, L"-");

	lea	rdx, OFFSET FLAT:??_C@_13IMODFHAA@?$AA?9@
	lea	rcx, QWORD PTR opt$[rbp+22]
	call	QWORD PTR __imp_lstrcpyW

; 46   :     TEST_Assert(env, FormatTestLabel(L"PMC_ParseX (%d.%d)", no, 1), (x_result = ep->TryParse(str, styles, &opt, &x)) == desired_result_code, FormatTestMesssage(L"PMC_TryParseの復帰コードが期待通りではない(%d)", x_result));

	lea	r9, QWORD PTR x$[rbp]
	lea	r8, QWORD PTR opt$[rbp]
	mov	edx, DWORD PTR styles$[rbp]
	mov	rcx, QWORD PTR str$[rbp]
	mov	rax, QWORD PTR ep$[rbp]
	call	QWORD PTR [rax+96]
	mov	DWORD PTR x_result$[rbp], eax
	mov	eax, DWORD PTR desired_result_code$[rbp]
	cmp	DWORD PTR x_result$[rbp], eax
	jne	SHORT $LN5@TEST_PMC_P
	mov	DWORD PTR tv85[rbp], 1
	jmp	SHORT $LN6@TEST_PMC_P
$LN5@TEST_PMC_P:
	mov	DWORD PTR tv85[rbp], 0
$LN6@TEST_PMC_P:
	mov	edx, DWORD PTR x_result$[rbp]
	lea	rcx, OFFSET FLAT:??_C@_1EA@BMFGEDLA@?$AAP?$AAM?$AAC?$AA_?$AAT?$AAr?$AAy?$AAP?$AAa?$AAr?$AAs?$AAe?$AAn?$PP?$KJ?$AA0@
	call	FormatTestMesssage
	mov	QWORD PTR tv64[rbp], rax
	mov	r8d, 1
	mov	edx, DWORD PTR no$[rbp]
	lea	rcx, OFFSET FLAT:??_C@_1CG@MCEBDMBH@?$AAP?$AAM?$AAC?$AA_?$AAP?$AAa?$AAr?$AAs?$AAe?$AAX?$AA?5?$AA?$CI?$AA?$CF?$AAd?$AA?4@
	call	FormatTestLabel
	mov	rcx, QWORD PTR tv64[rbp]
	mov	r9, rcx
	mov	r8d, DWORD PTR tv85[rbp]
	mov	rdx, rax
	mov	rcx, QWORD PTR env$[rbp]
	call	TEST_Assert

; 47   :     if (desired_result_code == PMC_STATUS_OK)

	cmp	DWORD PTR desired_result_code$[rbp], 0
	jne	$LN2@TEST_PMC_P

; 48   :     {
; 49   :         TEST_Assert(env, FormatTestLabel(L"PMC_ParseX (%d.%d)", no, 2), (result = ep->ToByteArray(x,  actual_buf, sizeof(actual_buf), &actual_buf_size)) == PMC_STATUS_OK, FormatTestMesssage(L"PMC_ToByteArrayの復帰コードが期待通りではない(%d)", result));

	lea	r9, OFFSET FLAT:?actual_buf_size@?1??TEST_PMC_ParseX@@9@9
	mov	r8d, 256				; 00000100H
	lea	rdx, OFFSET FLAT:?actual_buf@?1??TEST_PMC_ParseX@@9@9
	mov	rcx, QWORD PTR x$[rbp]
	mov	rax, QWORD PTR ep$[rbp]
	call	QWORD PTR [rax+56]
	mov	DWORD PTR result$[rbp], eax
	cmp	DWORD PTR result$[rbp], 0
	jne	SHORT $LN7@TEST_PMC_P
	mov	DWORD PTR tv137[rbp], 1
	jmp	SHORT $LN8@TEST_PMC_P
$LN7@TEST_PMC_P:
	mov	DWORD PTR tv137[rbp], 0
$LN8@TEST_PMC_P:
	mov	edx, DWORD PTR result$[rbp]
	lea	rcx, OFFSET FLAT:??_C@_1EG@MCOLJMDD@?$AAP?$AAM?$AAC?$AA_?$AAT?$AAo?$AAB?$AAy?$AAt?$AAe?$AAA?$AAr?$AAr?$AAa?$AAy@
	call	FormatTestMesssage
	mov	QWORD PTR tv94[rbp], rax
	mov	r8d, 2
	mov	edx, DWORD PTR no$[rbp]
	lea	rcx, OFFSET FLAT:??_C@_1CG@MCEBDMBH@?$AAP?$AAM?$AAC?$AA_?$AAP?$AAa?$AAr?$AAs?$AAe?$AAX?$AA?5?$AA?$CI?$AA?$CF?$AAd?$AA?4@
	call	FormatTestLabel
	mov	rcx, QWORD PTR tv94[rbp]
	mov	r9, rcx
	mov	r8d, DWORD PTR tv137[rbp]
	mov	rdx, rax
	mov	rcx, QWORD PTR env$[rbp]
	call	TEST_Assert

; 50   :         TEST_Assert(env, FormatTestLabel(L"PMC_ParseX (%d.%d)", no, 3), _EQUALS_MEMORY(actual_buf, actual_buf_size, desired_buf, desired_buf_size) == 0, L"データの内容が一致しない");

	mov	r9, QWORD PTR desired_buf_size$[rbp]
	mov	r8, QWORD PTR desired_buf$[rbp]
	mov	rdx, QWORD PTR ?actual_buf_size@?1??TEST_PMC_ParseX@@9@9
	lea	rcx, OFFSET FLAT:?actual_buf@?1??TEST_PMC_ParseX@@9@9
	call	_EQUALS_MEMORY
	test	eax, eax
	jne	SHORT $LN9@TEST_PMC_P
	mov	DWORD PTR tv152[rbp], 1
	jmp	SHORT $LN10@TEST_PMC_P
$LN9@TEST_PMC_P:
	mov	DWORD PTR tv152[rbp], 0
$LN10@TEST_PMC_P:
	mov	r8d, 3
	mov	edx, DWORD PTR no$[rbp]
	lea	rcx, OFFSET FLAT:??_C@_1CG@MCEBDMBH@?$AAP?$AAM?$AAC?$AA_?$AAP?$AAa?$AAr?$AAs?$AAe?$AAX?$AA?5?$AA?$CI?$AA?$CF?$AAd?$AA?4@
	call	FormatTestLabel
	lea	r9, OFFSET FLAT:??_C@_1BK@CBDJCOBM@?$PP?G?$PP?$PM?$PP?$LP?$AAn?$PP?$IF?$PP?$LJ?$AAL?$AA?$AA?$PP?t?$AAW?$AAj?$AAD@
	mov	r8d, DWORD PTR tv152[rbp]
	mov	rdx, rax
	mov	rcx, QWORD PTR env$[rbp]
	call	TEST_Assert
$LN2@TEST_PMC_P:

; 51   :     }
; 52   :     if (x_result == PMC_STATUS_OK)

	cmp	DWORD PTR x_result$[rbp], 0
	jne	SHORT $LN3@TEST_PMC_P

; 53   :         ep->Dispose(x);

	mov	rcx, QWORD PTR x$[rbp]
	mov	rax, QWORD PTR ep$[rbp]
	call	QWORD PTR [rax+32]
$LN3@TEST_PMC_P:

; 54   : }

	lea	rcx, QWORD PTR [rbp-32]
	lea	rdx, OFFSET FLAT:TEST_PMC_ParseX$rtcFrameData
	call	_RTC_CheckStackVars
	mov	rcx, QWORD PTR __$ArrayPad$[rbp]
	xor	rcx, rbp
	call	__security_check_cookie
	lea	rsp, QWORD PTR [rbp+376]
	pop	rdi
	pop	rbp
	ret	0
TEST_PMC_ParseX ENDP
_TEXT	ENDS
END
