; Listing generated by Microsoft (R) Optimizing Compiler Version 19.16.27026.1 

include listing.inc

INCLUDELIB MSVCRTD
INCLUDELIB OLDNAMES

msvcjmc	SEGMENT
__7B7A869E_ctype@h DB 01H
__457DD326_basetsd@h DB 01H
__4384A2D9_corecrt_memcpy_s@h DB 01H
__4E51A221_corecrt_wstring@h DB 01H
__2140C079_string@h DB 01H
__1887E595_winnt@h DB 01H
__9FC7C64B_processthreadsapi@h DB 01H
__FA470AEC_memoryapi@h DB 01H
__F37DAFF1_winerror@h DB 01H
__7A450CCC_winbase@h DB 01H
__B4B40122_winioctl@h DB 01H
__86261D59_stralign@h DB 01H
__630249ED_pmc_uint_debug@h DB 01H
__029660FF_test_op_subtruct@c DB 01H
msvcjmc	ENDS
PUBLIC	TEST_PMC_Subtruct_I_X
PUBLIC	TEST_PMC_Subtruct_L_X
PUBLIC	TEST_PMC_Subtruct_X_I
PUBLIC	TEST_PMC_Subtruct_X_L
PUBLIC	TEST_PMC_Subtruct_X_X
PUBLIC	__JustMyCode_Default
PUBLIC	??_C@_1EK@HDEICNAJ@?$AAP?$AAM?$AAC?$AA_?$AAF?$AAr?$AAo?$AAm?$AAB?$AAy?$AAt?$AAe?$AAA?$AAr?$AAr@ ; `string'
PUBLIC	??_C@_1DC@NJMJBENN@?$AAP?$AAM?$AAC?$AA_?$AAS?$AAu?$AAb?$AAt?$AAr?$AAu?$AAc?$AAt?$AA_?$AAI?$AA_@ ; `string'
PUBLIC	??_C@_1EI@OALHIFB@?$AAP?$AAM?$AAC?$AA_?$AAS?$AAu?$AAb?$AAt?$AAr?$AAu?$AAc?$AAt?$AA_?$AAI?$AA_@ ; `string'
PUBLIC	??_C@_1BK@CBDJCOBM@?$PP?G?$PP?$PM?$PP?$LP?$AAn?$PP?$IF?$PP?$LJ?$AAL?$AA?$AA?$PP?t?$AAW?$AAj?$AAD@ ; `string'
PUBLIC	??_C@_1DC@DBOKOPKF@?$AAP?$AAM?$AAC?$AA_?$AAS?$AAu?$AAb?$AAt?$AAr?$AAu?$AAc?$AAt?$AA_?$AAL?$AA_@ ; `string'
PUBLIC	??_C@_1EI@FFJFILMP@?$AAP?$AAM?$AAC?$AA_?$AAS?$AAu?$AAb?$AAt?$AAr?$AAu?$AAc?$AAt?$AA_?$AAL?$AA_@ ; `string'
PUBLIC	??_C@_1DC@KCCGJOKE@?$AAP?$AAM?$AAC?$AA_?$AAS?$AAu?$AAb?$AAt?$AAr?$AAu?$AAc?$AAt?$AA_?$AAX?$AA_@ ; `string'
PUBLIC	??_C@_1EI@FCJAKOHG@?$AAP?$AAM?$AAC?$AA_?$AAS?$AAu?$AAb?$AAt?$AAr?$AAu?$AAc?$AAt?$AA_?$AAX?$AA_@ ; `string'
PUBLIC	??_C@_1EG@MCOLJMDD@?$AAP?$AAM?$AAC?$AA_?$AAT?$AAo?$AAB?$AAy?$AAt?$AAe?$AAA?$AAr?$AAr?$AAa?$AAy@ ; `string'
PUBLIC	??_C@_1DC@IJKMEOLL@?$AAP?$AAM?$AAC?$AA_?$AAS?$AAu?$AAb?$AAt?$AAr?$AAu?$AAc?$AAt?$AA_?$AAX?$AA_@ ; `string'
PUBLIC	??_C@_1EI@BKNMDDOD@?$AAP?$AAM?$AAC?$AA_?$AAS?$AAu?$AAb?$AAt?$AAr?$AAu?$AAc?$AAt?$AA_?$AAX?$AA_@ ; `string'
PUBLIC	??_C@_1DC@CHIHAOMH@?$AAP?$AAM?$AAC?$AA_?$AAS?$AAu?$AAb?$AAt?$AAr?$AAu?$AAc?$AAt?$AA_?$AAX?$AA_@ ; `string'
PUBLIC	??_C@_1EI@OAJPEDPG@?$AAP?$AAM?$AAC?$AA_?$AAS?$AAu?$AAb?$AAt?$AAr?$AAu?$AAc?$AAt?$AA_?$AAX?$AA_@ ; `string'
EXTRN	TEST_Assert:PROC
EXTRN	FormatTestLabel:PROC
EXTRN	FormatTestMesssage:PROC
EXTRN	_RTC_CheckStackVars:PROC
EXTRN	_RTC_InitBase:PROC
EXTRN	_RTC_Shutdown:PROC
EXTRN	__CheckForDebuggerJustMyCode:PROC
EXTRN	__GSHandlerCheck:PROC
EXTRN	__security_check_cookie:PROC
EXTRN	__security_cookie:QWORD
;	COMDAT pdata
pdata	SEGMENT
$pdata$TEST_PMC_Subtruct_I_X DD imagerel $LN11
	DD	imagerel $LN11+488
	DD	imagerel $unwind$TEST_PMC_Subtruct_I_X
pdata	ENDS
;	COMDAT pdata
pdata	SEGMENT
$pdata$TEST_PMC_Subtruct_L_X DD imagerel $LN11
	DD	imagerel $LN11+491
	DD	imagerel $unwind$TEST_PMC_Subtruct_L_X
pdata	ENDS
;	COMDAT pdata
pdata	SEGMENT
$pdata$TEST_PMC_Subtruct_X_I DD imagerel $LN14
	DD	imagerel $LN14+740
	DD	imagerel $unwind$TEST_PMC_Subtruct_X_I
pdata	ENDS
;	COMDAT pdata
pdata	SEGMENT
$pdata$TEST_PMC_Subtruct_X_L DD imagerel $LN14
	DD	imagerel $LN14+741
	DD	imagerel $unwind$TEST_PMC_Subtruct_X_L
pdata	ENDS
;	COMDAT pdata
pdata	SEGMENT
$pdata$TEST_PMC_Subtruct_X_X DD imagerel $LN17
	DD	imagerel $LN17+907
	DD	imagerel $unwind$TEST_PMC_Subtruct_X_X
pdata	ENDS
;	COMDAT pdata
pdata	SEGMENT
$pdata$_EQUALS_MEMORY DD imagerel _EQUALS_MEMORY
	DD	imagerel _EQUALS_MEMORY+198
	DD	imagerel $unwind$_EQUALS_MEMORY
pdata	ENDS
;	COMDAT rtc$TMZ
rtc$TMZ	SEGMENT
_RTC_Shutdown.rtc$TMZ DQ FLAT:_RTC_Shutdown
rtc$TMZ	ENDS
;	COMDAT rtc$IMZ
rtc$IMZ	SEGMENT
_RTC_InitBase.rtc$IMZ DQ FLAT:_RTC_InitBase
rtc$IMZ	ENDS
;	COMDAT ??_C@_1EI@OAJPEDPG@?$AAP?$AAM?$AAC?$AA_?$AAS?$AAu?$AAb?$AAt?$AAr?$AAu?$AAc?$AAt?$AA_?$AAX?$AA_@
CONST	SEGMENT
??_C@_1EI@OAJPEDPG@?$AAP?$AAM?$AAC?$AA_?$AAS?$AAu?$AAb?$AAt?$AAr?$AAu?$AAc?$AAt?$AA_?$AAX?$AA_@ DB 'P'
	DB	00H, 'M', 00H, 'C', 00H, '_', 00H, 'S', 00H, 'u', 00H, 'b', 00H
	DB	't', 00H, 'r', 00H, 'u', 00H, 'c', 00H, 't', 00H, '_', 00H, 'X'
	DB	00H, '_', 00H, 'X', 00H, 'n0', 0a9H, '_0^', 0b3H, '0', 0fcH, '0'
	DB	0c9H, '0L0', 01fH, 'g', 085H, '_', 01aH, 090H, 08aH, '0g0o0j0D'
	DB	'0(', 00H, '%', 00H, 'd', 00H, ')', 00H, 00H, 00H ; `string'
CONST	ENDS
;	COMDAT ??_C@_1DC@CHIHAOMH@?$AAP?$AAM?$AAC?$AA_?$AAS?$AAu?$AAb?$AAt?$AAr?$AAu?$AAc?$AAt?$AA_?$AAX?$AA_@
CONST	SEGMENT
??_C@_1DC@CHIHAOMH@?$AAP?$AAM?$AAC?$AA_?$AAS?$AAu?$AAb?$AAt?$AAr?$AAu?$AAc?$AAt?$AA_?$AAX?$AA_@ DB 'P'
	DB	00H, 'M', 00H, 'C', 00H, '_', 00H, 'S', 00H, 'u', 00H, 'b', 00H
	DB	't', 00H, 'r', 00H, 'u', 00H, 'c', 00H, 't', 00H, '_', 00H, 'X'
	DB	00H, '_', 00H, 'X', 00H, ' ', 00H, '(', 00H, '%', 00H, 'd', 00H
	DB	'.', 00H, '%', 00H, 'd', 00H, ')', 00H, 00H, 00H ; `string'
CONST	ENDS
;	COMDAT ??_C@_1EI@BKNMDDOD@?$AAP?$AAM?$AAC?$AA_?$AAS?$AAu?$AAb?$AAt?$AAr?$AAu?$AAc?$AAt?$AA_?$AAX?$AA_@
CONST	SEGMENT
??_C@_1EI@BKNMDDOD@?$AAP?$AAM?$AAC?$AA_?$AAS?$AAu?$AAb?$AAt?$AAr?$AAu?$AAc?$AAt?$AA_?$AAX?$AA_@ DB 'P'
	DB	00H, 'M', 00H, 'C', 00H, '_', 00H, 'S', 00H, 'u', 00H, 'b', 00H
	DB	't', 00H, 'r', 00H, 'u', 00H, 'c', 00H, 't', 00H, '_', 00H, 'X'
	DB	00H, '_', 00H, 'L', 00H, 'n0', 0a9H, '_0^', 0b3H, '0', 0fcH, '0'
	DB	0c9H, '0L0', 01fH, 'g', 085H, '_', 01aH, 090H, 08aH, '0g0o0j0D'
	DB	'0(', 00H, '%', 00H, 'd', 00H, ')', 00H, 00H, 00H ; `string'
CONST	ENDS
;	COMDAT ??_C@_1DC@IJKMEOLL@?$AAP?$AAM?$AAC?$AA_?$AAS?$AAu?$AAb?$AAt?$AAr?$AAu?$AAc?$AAt?$AA_?$AAX?$AA_@
CONST	SEGMENT
??_C@_1DC@IJKMEOLL@?$AAP?$AAM?$AAC?$AA_?$AAS?$AAu?$AAb?$AAt?$AAr?$AAu?$AAc?$AAt?$AA_?$AAX?$AA_@ DB 'P'
	DB	00H, 'M', 00H, 'C', 00H, '_', 00H, 'S', 00H, 'u', 00H, 'b', 00H
	DB	't', 00H, 'r', 00H, 'u', 00H, 'c', 00H, 't', 00H, '_', 00H, 'X'
	DB	00H, '_', 00H, 'L', 00H, ' ', 00H, '(', 00H, '%', 00H, 'd', 00H
	DB	'.', 00H, '%', 00H, 'd', 00H, ')', 00H, 00H, 00H ; `string'
CONST	ENDS
;	COMDAT ??_C@_1EG@MCOLJMDD@?$AAP?$AAM?$AAC?$AA_?$AAT?$AAo?$AAB?$AAy?$AAt?$AAe?$AAA?$AAr?$AAr?$AAa?$AAy@
CONST	SEGMENT
??_C@_1EG@MCOLJMDD@?$AAP?$AAM?$AAC?$AA_?$AAT?$AAo?$AAB?$AAy?$AAt?$AAe?$AAA?$AAr?$AAr?$AAa?$AAy@ DB 'P'
	DB	00H, 'M', 00H, 'C', 00H, '_', 00H, 'T', 00H, 'o', 00H, 'B', 00H
	DB	'y', 00H, 't', 00H, 'e', 00H, 'A', 00H, 'r', 00H, 'r', 00H, 'a'
	DB	00H, 'y', 00H, 'n0', 0a9H, '_0^', 0b3H, '0', 0fcH, '0', 0c9H, '0'
	DB	'L0', 01fH, 'g', 085H, '_', 01aH, 090H, 08aH, '0g0o0j0D0(', 00H
	DB	'%', 00H, 'd', 00H, ')', 00H, 00H, 00H	; `string'
CONST	ENDS
;	COMDAT ??_C@_1EI@FCJAKOHG@?$AAP?$AAM?$AAC?$AA_?$AAS?$AAu?$AAb?$AAt?$AAr?$AAu?$AAc?$AAt?$AA_?$AAX?$AA_@
CONST	SEGMENT
??_C@_1EI@FCJAKOHG@?$AAP?$AAM?$AAC?$AA_?$AAS?$AAu?$AAb?$AAt?$AAr?$AAu?$AAc?$AAt?$AA_?$AAX?$AA_@ DB 'P'
	DB	00H, 'M', 00H, 'C', 00H, '_', 00H, 'S', 00H, 'u', 00H, 'b', 00H
	DB	't', 00H, 'r', 00H, 'u', 00H, 'c', 00H, 't', 00H, '_', 00H, 'X'
	DB	00H, '_', 00H, 'I', 00H, 'n0', 0a9H, '_0^', 0b3H, '0', 0fcH, '0'
	DB	0c9H, '0L0', 01fH, 'g', 085H, '_', 01aH, 090H, 08aH, '0g0o0j0D'
	DB	'0(', 00H, '%', 00H, 'd', 00H, ')', 00H, 00H, 00H ; `string'
CONST	ENDS
;	COMDAT ??_C@_1DC@KCCGJOKE@?$AAP?$AAM?$AAC?$AA_?$AAS?$AAu?$AAb?$AAt?$AAr?$AAu?$AAc?$AAt?$AA_?$AAX?$AA_@
CONST	SEGMENT
??_C@_1DC@KCCGJOKE@?$AAP?$AAM?$AAC?$AA_?$AAS?$AAu?$AAb?$AAt?$AAr?$AAu?$AAc?$AAt?$AA_?$AAX?$AA_@ DB 'P'
	DB	00H, 'M', 00H, 'C', 00H, '_', 00H, 'S', 00H, 'u', 00H, 'b', 00H
	DB	't', 00H, 'r', 00H, 'u', 00H, 'c', 00H, 't', 00H, '_', 00H, 'X'
	DB	00H, '_', 00H, 'I', 00H, ' ', 00H, '(', 00H, '%', 00H, 'd', 00H
	DB	'.', 00H, '%', 00H, 'd', 00H, ')', 00H, 00H, 00H ; `string'
CONST	ENDS
;	COMDAT ??_C@_1EI@FFJFILMP@?$AAP?$AAM?$AAC?$AA_?$AAS?$AAu?$AAb?$AAt?$AAr?$AAu?$AAc?$AAt?$AA_?$AAL?$AA_@
CONST	SEGMENT
??_C@_1EI@FFJFILMP@?$AAP?$AAM?$AAC?$AA_?$AAS?$AAu?$AAb?$AAt?$AAr?$AAu?$AAc?$AAt?$AA_?$AAL?$AA_@ DB 'P'
	DB	00H, 'M', 00H, 'C', 00H, '_', 00H, 'S', 00H, 'u', 00H, 'b', 00H
	DB	't', 00H, 'r', 00H, 'u', 00H, 'c', 00H, 't', 00H, '_', 00H, 'L'
	DB	00H, '_', 00H, 'X', 00H, 'n0', 0a9H, '_0^', 0b3H, '0', 0fcH, '0'
	DB	0c9H, '0L0', 01fH, 'g', 085H, '_', 01aH, 090H, 08aH, '0g0o0j0D'
	DB	'0(', 00H, '%', 00H, 'd', 00H, ')', 00H, 00H, 00H ; `string'
CONST	ENDS
;	COMDAT ??_C@_1DC@DBOKOPKF@?$AAP?$AAM?$AAC?$AA_?$AAS?$AAu?$AAb?$AAt?$AAr?$AAu?$AAc?$AAt?$AA_?$AAL?$AA_@
CONST	SEGMENT
??_C@_1DC@DBOKOPKF@?$AAP?$AAM?$AAC?$AA_?$AAS?$AAu?$AAb?$AAt?$AAr?$AAu?$AAc?$AAt?$AA_?$AAL?$AA_@ DB 'P'
	DB	00H, 'M', 00H, 'C', 00H, '_', 00H, 'S', 00H, 'u', 00H, 'b', 00H
	DB	't', 00H, 'r', 00H, 'u', 00H, 'c', 00H, 't', 00H, '_', 00H, 'L'
	DB	00H, '_', 00H, 'X', 00H, ' ', 00H, '(', 00H, '%', 00H, 'd', 00H
	DB	'.', 00H, '%', 00H, 'd', 00H, ')', 00H, 00H, 00H ; `string'
CONST	ENDS
;	COMDAT ??_C@_1BK@CBDJCOBM@?$PP?G?$PP?$PM?$PP?$LP?$AAn?$PP?$IF?$PP?$LJ?$AAL?$AA?$AA?$PP?t?$AAW?$AAj?$AAD@
CONST	SEGMENT
??_C@_1BK@CBDJCOBM@?$PP?G?$PP?$PM?$PP?$LP?$AAn?$PP?$IF?$PP?$LJ?$AAL?$AA?$AA?$PP?t?$AAW?$AAj?$AAD@ DB 0c7H
	DB	'0', 0fcH, '0', 0bfH, '0n0', 085H, 'Q', 0b9H, '[L0', 00H, 'N', 0f4H
	DB	081H, 'W0j0D0', 00H, 00H			; `string'
CONST	ENDS
;	COMDAT ??_C@_1EI@OALHIFB@?$AAP?$AAM?$AAC?$AA_?$AAS?$AAu?$AAb?$AAt?$AAr?$AAu?$AAc?$AAt?$AA_?$AAI?$AA_@
CONST	SEGMENT
??_C@_1EI@OALHIFB@?$AAP?$AAM?$AAC?$AA_?$AAS?$AAu?$AAb?$AAt?$AAr?$AAu?$AAc?$AAt?$AA_?$AAI?$AA_@ DB 'P'
	DB	00H, 'M', 00H, 'C', 00H, '_', 00H, 'S', 00H, 'u', 00H, 'b', 00H
	DB	't', 00H, 'r', 00H, 'u', 00H, 'c', 00H, 't', 00H, '_', 00H, 'I'
	DB	00H, '_', 00H, 'X', 00H, 'n0', 0a9H, '_0^', 0b3H, '0', 0fcH, '0'
	DB	0c9H, '0L0', 01fH, 'g', 085H, '_', 01aH, 090H, 08aH, '0g0o0j0D'
	DB	'0(', 00H, '%', 00H, 'd', 00H, ')', 00H, 00H, 00H ; `string'
CONST	ENDS
;	COMDAT ??_C@_1DC@NJMJBENN@?$AAP?$AAM?$AAC?$AA_?$AAS?$AAu?$AAb?$AAt?$AAr?$AAu?$AAc?$AAt?$AA_?$AAI?$AA_@
CONST	SEGMENT
??_C@_1DC@NJMJBENN@?$AAP?$AAM?$AAC?$AA_?$AAS?$AAu?$AAb?$AAt?$AAr?$AAu?$AAc?$AAt?$AA_?$AAI?$AA_@ DB 'P'
	DB	00H, 'M', 00H, 'C', 00H, '_', 00H, 'S', 00H, 'u', 00H, 'b', 00H
	DB	't', 00H, 'r', 00H, 'u', 00H, 'c', 00H, 't', 00H, '_', 00H, 'I'
	DB	00H, '_', 00H, 'X', 00H, ' ', 00H, '(', 00H, '%', 00H, 'd', 00H
	DB	'.', 00H, '%', 00H, 'd', 00H, ')', 00H, 00H, 00H ; `string'
CONST	ENDS
;	COMDAT ??_C@_1EK@HDEICNAJ@?$AAP?$AAM?$AAC?$AA_?$AAF?$AAr?$AAo?$AAm?$AAB?$AAy?$AAt?$AAe?$AAA?$AAr?$AAr@
CONST	SEGMENT
??_C@_1EK@HDEICNAJ@?$AAP?$AAM?$AAC?$AA_?$AAF?$AAr?$AAo?$AAm?$AAB?$AAy?$AAt?$AAe?$AAA?$AAr?$AAr@ DB 'P'
	DB	00H, 'M', 00H, 'C', 00H, '_', 00H, 'F', 00H, 'r', 00H, 'o', 00H
	DB	'm', 00H, 'B', 00H, 'y', 00H, 't', 00H, 'e', 00H, 'A', 00H, 'r'
	DB	00H, 'r', 00H, 'a', 00H, 'y', 00H, 'n0', 0a9H, '_0^', 0b3H, '0'
	DB	0fcH, '0', 0c9H, '0L0', 01fH, 'g', 085H, '_', 01aH, 090H, 08aH
	DB	'0g0o0j0D0(', 00H, '%', 00H, 'd', 00H, ')', 00H, 00H, 00H ; `string'
CONST	ENDS
;	COMDAT xdata
xdata	SEGMENT
$unwind$_EQUALS_MEMORY DD 025053901H
	DD	011d2322H
	DD	07016001dH
	DD	05015H
xdata	ENDS
;	COMDAT xdata
xdata	SEGMENT
$unwind$TEST_PMC_Subtruct_X_X DD 025054a19H
	DD	011d2322H
	DD	07016007bH
	DD	05015H
	DD	imagerel __GSHandlerCheck
	DD	03c0H
xdata	ENDS
;	COMDAT CONST
CONST	SEGMENT
TEST_PMC_Subtruct_X_X$rtcName$0 DB 078H
	DB	00H
	ORG $+2
TEST_PMC_Subtruct_X_X$rtcName$1 DB 079H
	DB	00H
	ORG $+2
TEST_PMC_Subtruct_X_X$rtcName$2 DB 07aH
	DB	00H
	ORG $+6
TEST_PMC_Subtruct_X_X$rtcName$3 DB 061H
	DB	063H
	DB	074H
	DB	075H
	DB	061H
	DB	06cH
	DB	05fH
	DB	07aH
	DB	05fH
	DB	062H
	DB	075H
	DB	066H
	DB	00H
	ORG $+3
TEST_PMC_Subtruct_X_X$rtcName$4 DB 061H
	DB	063H
	DB	074H
	DB	075H
	DB	061H
	DB	06cH
	DB	05fH
	DB	07aH
	DB	05fH
	DB	062H
	DB	075H
	DB	066H
	DB	05fH
	DB	073H
	DB	069H
	DB	07aH
	DB	065H
	DB	00H
	ORG $+14
TEST_PMC_Subtruct_X_X$rtcVarDesc DD 01a8H
	DD	08H
	DQ	FLAT:TEST_PMC_Subtruct_X_X$rtcName$4
	DD	090H
	DD	0100H
	DQ	FLAT:TEST_PMC_Subtruct_X_X$rtcName$3
	DD	068H
	DD	08H
	DQ	FLAT:TEST_PMC_Subtruct_X_X$rtcName$2
	DD	048H
	DD	08H
	DQ	FLAT:TEST_PMC_Subtruct_X_X$rtcName$1
	DD	028H
	DD	08H
	DQ	FLAT:TEST_PMC_Subtruct_X_X$rtcName$0
	ORG $+240
TEST_PMC_Subtruct_X_X$rtcFrameData DD 05H
	DD	00H
	DQ	FLAT:TEST_PMC_Subtruct_X_X$rtcVarDesc
CONST	ENDS
;	COMDAT xdata
xdata	SEGMENT
$unwind$TEST_PMC_Subtruct_X_L DD 025054a19H
	DD	011d2322H
	DD	07016005bH
	DD	05015H
	DD	imagerel __GSHandlerCheck
	DD	02c0H
xdata	ENDS
;	COMDAT CONST
CONST	SEGMENT
TEST_PMC_Subtruct_X_L$rtcName$0 DB 078H
	DB	00H
	ORG $+2
TEST_PMC_Subtruct_X_L$rtcName$1 DB 07aH
	DB	00H
	ORG $+2
TEST_PMC_Subtruct_X_L$rtcName$2 DB 061H
	DB	063H
	DB	074H
	DB	075H
	DB	061H
	DB	06cH
	DB	05fH
	DB	07aH
	DB	05fH
	DB	062H
	DB	075H
	DB	066H
	DB	00H
	ORG $+3
TEST_PMC_Subtruct_X_L$rtcName$3 DB 061H
	DB	063H
	DB	074H
	DB	075H
	DB	061H
	DB	06cH
	DB	05fH
	DB	07aH
	DB	05fH
	DB	062H
	DB	075H
	DB	066H
	DB	05fH
	DB	073H
	DB	069H
	DB	07aH
	DB	065H
	DB	00H
	ORG $+6
TEST_PMC_Subtruct_X_L$rtcVarDesc DD 0188H
	DD	08H
	DQ	FLAT:TEST_PMC_Subtruct_X_L$rtcName$3
	DD	070H
	DD	0100H
	DQ	FLAT:TEST_PMC_Subtruct_X_L$rtcName$2
	DD	048H
	DD	08H
	DQ	FLAT:TEST_PMC_Subtruct_X_L$rtcName$1
	DD	028H
	DD	08H
	DQ	FLAT:TEST_PMC_Subtruct_X_L$rtcName$0
	ORG $+192
TEST_PMC_Subtruct_X_L$rtcFrameData DD 04H
	DD	00H
	DQ	FLAT:TEST_PMC_Subtruct_X_L$rtcVarDesc
CONST	ENDS
;	COMDAT xdata
xdata	SEGMENT
$unwind$TEST_PMC_Subtruct_X_I DD 025054a19H
	DD	011d2322H
	DD	07016005bH
	DD	05015H
	DD	imagerel __GSHandlerCheck
	DD	02c0H
xdata	ENDS
;	COMDAT CONST
CONST	SEGMENT
TEST_PMC_Subtruct_X_I$rtcName$0 DB 078H
	DB	00H
	ORG $+2
TEST_PMC_Subtruct_X_I$rtcName$1 DB 07aH
	DB	00H
	ORG $+2
TEST_PMC_Subtruct_X_I$rtcName$2 DB 061H
	DB	063H
	DB	074H
	DB	075H
	DB	061H
	DB	06cH
	DB	05fH
	DB	07aH
	DB	05fH
	DB	062H
	DB	075H
	DB	066H
	DB	00H
	ORG $+3
TEST_PMC_Subtruct_X_I$rtcName$3 DB 061H
	DB	063H
	DB	074H
	DB	075H
	DB	061H
	DB	06cH
	DB	05fH
	DB	07aH
	DB	05fH
	DB	062H
	DB	075H
	DB	066H
	DB	05fH
	DB	073H
	DB	069H
	DB	07aH
	DB	065H
	DB	00H
	ORG $+6
TEST_PMC_Subtruct_X_I$rtcVarDesc DD 0188H
	DD	08H
	DQ	FLAT:TEST_PMC_Subtruct_X_I$rtcName$3
	DD	070H
	DD	0100H
	DQ	FLAT:TEST_PMC_Subtruct_X_I$rtcName$2
	DD	048H
	DD	08H
	DQ	FLAT:TEST_PMC_Subtruct_X_I$rtcName$1
	DD	028H
	DD	08H
	DQ	FLAT:TEST_PMC_Subtruct_X_I$rtcName$0
	ORG $+192
TEST_PMC_Subtruct_X_I$rtcFrameData DD 04H
	DD	00H
	DQ	FLAT:TEST_PMC_Subtruct_X_I$rtcVarDesc
CONST	ENDS
;	COMDAT xdata
xdata	SEGMENT
$unwind$TEST_PMC_Subtruct_L_X DD 025053901H
	DD	011d2322H
	DD	07016002dH
	DD	05015H
xdata	ENDS
;	COMDAT CONST
CONST	SEGMENT
TEST_PMC_Subtruct_L_X$rtcName$0 DB 076H
	DB	00H
	ORG $+6
TEST_PMC_Subtruct_L_X$rtcName$1 DB 061H
	DB	063H
	DB	074H
	DB	075H
	DB	061H
	DB	06cH
	DB	05fH
	DB	077H
	DB	00H
	ORG $+15
TEST_PMC_Subtruct_L_X$rtcVarDesc DD 048H
	DD	08H
	DQ	FLAT:TEST_PMC_Subtruct_L_X$rtcName$1
	DD	028H
	DD	08H
	DQ	FLAT:TEST_PMC_Subtruct_L_X$rtcName$0
	ORG $+96
TEST_PMC_Subtruct_L_X$rtcFrameData DD 02H
	DD	00H
	DQ	FLAT:TEST_PMC_Subtruct_L_X$rtcVarDesc
CONST	ENDS
;	COMDAT xdata
xdata	SEGMENT
$unwind$TEST_PMC_Subtruct_I_X DD 025053901H
	DD	011d2322H
	DD	07016002dH
	DD	05015H
xdata	ENDS
;	COMDAT CONST
CONST	SEGMENT
TEST_PMC_Subtruct_I_X$rtcName$0 DB 076H
	DB	00H
	ORG $+6
TEST_PMC_Subtruct_I_X$rtcName$1 DB 061H
	DB	063H
	DB	074H
	DB	075H
	DB	061H
	DB	06cH
	DB	05fH
	DB	077H
	DB	00H
	ORG $+15
TEST_PMC_Subtruct_I_X$rtcVarDesc DD 044H
	DD	04H
	DQ	FLAT:TEST_PMC_Subtruct_I_X$rtcName$1
	DD	028H
	DD	08H
	DQ	FLAT:TEST_PMC_Subtruct_I_X$rtcName$0
	ORG $+96
TEST_PMC_Subtruct_I_X$rtcFrameData DD 02H
	DD	00H
	DQ	FLAT:TEST_PMC_Subtruct_I_X$rtcVarDesc
CONST	ENDS
; Function compile flags: /Odt
;	COMDAT __JustMyCode_Default
_TEXT	SEGMENT
__JustMyCode_Default PROC				; COMDAT
	ret	0
__JustMyCode_Default ENDP
_TEXT	ENDS
; Function compile flags: /Odtp /RTCsu /ZI
; File z:\sources\lunor\repos\rougemeilland\palmtree.math.core.uint\palmtree.math.core.uint\pmc_uint_debug.h
;	COMDAT _EQUALS_MEMORY
_TEXT	SEGMENT
buffer1$ = 224
count1$ = 232
buffer2$ = 240
count2$ = 248
_EQUALS_MEMORY PROC					; COMDAT

; 155  : {

	mov	QWORD PTR [rsp+32], r9
	mov	QWORD PTR [rsp+24], r8
	mov	QWORD PTR [rsp+16], rdx
	mov	QWORD PTR [rsp+8], rcx
	push	rbp
	push	rdi
	sub	rsp, 232				; 000000e8H
	lea	rbp, QWORD PTR [rsp+32]
	mov	rdi, rsp
	mov	ecx, 58					; 0000003aH
	mov	eax, -858993460				; ccccccccH
	rep stosd
	mov	rcx, QWORD PTR [rsp+264]
	lea	rcx, OFFSET FLAT:__630249ED_pmc_uint_debug@h
	call	__CheckForDebuggerJustMyCode

; 156  :     if (count1 != count2)

	mov	rax, QWORD PTR count2$[rbp]
	cmp	QWORD PTR count1$[rbp], rax
	je	SHORT $LN4@EQUALS_MEM

; 157  :         return (-1);

	mov	eax, -1
	jmp	SHORT $LN1@EQUALS_MEM
$LN4@EQUALS_MEM:
$LN2@EQUALS_MEM:

; 158  :     while (count1 > 0)

	cmp	QWORD PTR count1$[rbp], 0
	jbe	SHORT $LN3@EQUALS_MEM

; 159  :     {
; 160  :         if (*buffer1 != *buffer2)

	mov	rax, QWORD PTR buffer1$[rbp]
	movzx	eax, BYTE PTR [rax]
	mov	rcx, QWORD PTR buffer2$[rbp]
	movzx	ecx, BYTE PTR [rcx]
	cmp	eax, ecx
	je	SHORT $LN5@EQUALS_MEM

; 161  :             return (-1);

	mov	eax, -1
	jmp	SHORT $LN1@EQUALS_MEM
$LN5@EQUALS_MEM:

; 162  :         ++buffer1;

	mov	rax, QWORD PTR buffer1$[rbp]
	inc	rax
	mov	QWORD PTR buffer1$[rbp], rax

; 163  :         ++buffer2;

	mov	rax, QWORD PTR buffer2$[rbp]
	inc	rax
	mov	QWORD PTR buffer2$[rbp], rax

; 164  :         --count1;

	mov	rax, QWORD PTR count1$[rbp]
	dec	rax
	mov	QWORD PTR count1$[rbp], rax

; 165  :     }

	jmp	SHORT $LN2@EQUALS_MEM
$LN3@EQUALS_MEM:

; 166  :     return (0);

	xor	eax, eax
$LN1@EQUALS_MEM:

; 167  : }

	lea	rsp, QWORD PTR [rbp+200]
	pop	rdi
	pop	rbp
	ret	0
_EQUALS_MEMORY ENDP
_TEXT	ENDS
; Function compile flags: /Odtp /RTCsu /ZI
; File z:\sources\lunor\repos\rougemeilland\palmtree.math.core.uint\palmtree.math.core.uint\test_op_subtruct.c
;	COMDAT TEST_PMC_Subtruct_X_X
_TEXT	SEGMENT
x$ = 8
y$ = 40
z$ = 72
actual_z_buf$ = 112
actual_z_buf_size$ = 392
result$ = 420
x_result$ = 452
y_result$ = 484
z_result$ = 516
tv177 = 916
tv162 = 916
tv142 = 916
tv92 = 916
tv74 = 916
tv151 = 920
tv132 = 920
tv82 = 920
tv64 = 920
__$ArrayPad$ = 928
env$ = 976
ep$ = 984
no$ = 992
x_buf$ = 1000
x_buf_size$ = 1008
y_buf$ = 1016
y_buf_size$ = 1024
desired_result_code$ = 1032
desired_z_buf$ = 1040
desired_z_buf_size$ = 1048
TEST_PMC_Subtruct_X_X PROC				; COMDAT

; 109  : {

$LN17:
	mov	QWORD PTR [rsp+32], r9
	mov	DWORD PTR [rsp+24], r8d
	mov	QWORD PTR [rsp+16], rdx
	mov	QWORD PTR [rsp+8], rcx
	push	rbp
	push	rdi
	sub	rsp, 984				; 000003d8H
	lea	rbp, QWORD PTR [rsp+32]
	mov	rdi, rsp
	mov	ecx, 246				; 000000f6H
	mov	eax, -858993460				; ccccccccH
	rep stosd
	mov	rcx, QWORD PTR [rsp+1016]
	mov	rax, QWORD PTR __security_cookie
	xor	rax, rbp
	mov	QWORD PTR __$ArrayPad$[rbp], rax
	lea	rcx, OFFSET FLAT:__029660FF_test_op_subtruct@c
	call	__CheckForDebuggerJustMyCode

; 110  :     PMC_HANDLE_UINT x;
; 111  :     PMC_HANDLE_UINT y;
; 112  :     PMC_HANDLE_UINT z;
; 113  :     unsigned char actual_z_buf[256];
; 114  :     size_t actual_z_buf_size;
; 115  :     PMC_STATUS_CODE result;
; 116  :     PMC_STATUS_CODE x_result;
; 117  :     PMC_STATUS_CODE y_result;
; 118  :     PMC_STATUS_CODE z_result;
; 119  :     TEST_Assert(env, FormatTestLabel(L"PMC_Subtruct_X_X (%d.%d)", no, 1), (x_result = ep->FromByteArray(x_buf, x_buf_size, &x)) == PMC_STATUS_OK, FormatTestMesssage(L"PMC_FromByteArrayの復帰コードが期待通りではない(%d)", x_result));

	lea	r8, QWORD PTR x$[rbp]
	mov	rdx, QWORD PTR x_buf_size$[rbp]
	mov	rcx, QWORD PTR x_buf$[rbp]
	mov	rax, QWORD PTR ep$[rbp]
	call	QWORD PTR [rax+48]
	mov	DWORD PTR x_result$[rbp], eax
	cmp	DWORD PTR x_result$[rbp], 0
	jne	SHORT $LN7@TEST_PMC_S
	mov	DWORD PTR tv74[rbp], 1
	jmp	SHORT $LN8@TEST_PMC_S
$LN7@TEST_PMC_S:
	mov	DWORD PTR tv74[rbp], 0
$LN8@TEST_PMC_S:
	mov	edx, DWORD PTR x_result$[rbp]
	lea	rcx, OFFSET FLAT:??_C@_1EK@HDEICNAJ@?$AAP?$AAM?$AAC?$AA_?$AAF?$AAr?$AAo?$AAm?$AAB?$AAy?$AAt?$AAe?$AAA?$AAr?$AAr@
	call	FormatTestMesssage
	mov	QWORD PTR tv64[rbp], rax
	mov	r8d, 1
	mov	edx, DWORD PTR no$[rbp]
	lea	rcx, OFFSET FLAT:??_C@_1DC@CHIHAOMH@?$AAP?$AAM?$AAC?$AA_?$AAS?$AAu?$AAb?$AAt?$AAr?$AAu?$AAc?$AAt?$AA_?$AAX?$AA_@
	call	FormatTestLabel
	mov	rcx, QWORD PTR tv64[rbp]
	mov	r9, rcx
	mov	r8d, DWORD PTR tv74[rbp]
	mov	rdx, rax
	mov	rcx, QWORD PTR env$[rbp]
	call	TEST_Assert

; 120  :     TEST_Assert(env, FormatTestLabel(L"PMC_Subtruct_X_X (%d.%d)", no, 2), (y_result = ep->FromByteArray(y_buf, y_buf_size, &y)) == PMC_STATUS_OK, FormatTestMesssage(L"PMC_FromByteArrayの復帰コードが期待通りではない(%d)", y_result));

	lea	r8, QWORD PTR y$[rbp]
	mov	rdx, QWORD PTR y_buf_size$[rbp]
	mov	rcx, QWORD PTR y_buf$[rbp]
	mov	rax, QWORD PTR ep$[rbp]
	call	QWORD PTR [rax+48]
	mov	DWORD PTR y_result$[rbp], eax
	cmp	DWORD PTR y_result$[rbp], 0
	jne	SHORT $LN9@TEST_PMC_S
	mov	DWORD PTR tv92[rbp], 1
	jmp	SHORT $LN10@TEST_PMC_S
$LN9@TEST_PMC_S:
	mov	DWORD PTR tv92[rbp], 0
$LN10@TEST_PMC_S:
	mov	edx, DWORD PTR y_result$[rbp]
	lea	rcx, OFFSET FLAT:??_C@_1EK@HDEICNAJ@?$AAP?$AAM?$AAC?$AA_?$AAF?$AAr?$AAo?$AAm?$AAB?$AAy?$AAt?$AAe?$AAA?$AAr?$AAr@
	call	FormatTestMesssage
	mov	QWORD PTR tv82[rbp], rax
	mov	r8d, 2
	mov	edx, DWORD PTR no$[rbp]
	lea	rcx, OFFSET FLAT:??_C@_1DC@CHIHAOMH@?$AAP?$AAM?$AAC?$AA_?$AAS?$AAu?$AAb?$AAt?$AAr?$AAu?$AAc?$AAt?$AA_?$AAX?$AA_@
	call	FormatTestLabel
	mov	rcx, QWORD PTR tv82[rbp]
	mov	r9, rcx
	mov	r8d, DWORD PTR tv92[rbp]
	mov	rdx, rax
	mov	rcx, QWORD PTR env$[rbp]
	call	TEST_Assert

; 121  :     TEST_Assert(env, FormatTestLabel(L"PMC_Subtruct_X_X (%d.%d)", no, 3), (z_result = ep->Subtruct_X_X(x, y, &z)) == desired_result_code, FormatTestMesssage(L"PMC_Subtruct_X_Xの復帰コードが期待通りではない(%d)", z_result));

	lea	r8, QWORD PTR z$[rbp]
	mov	rdx, QWORD PTR y$[rbp]
	mov	rcx, QWORD PTR x$[rbp]
	mov	rax, QWORD PTR ep$[rbp]
	call	QWORD PTR [rax+184]
	mov	DWORD PTR z_result$[rbp], eax
	mov	eax, DWORD PTR desired_result_code$[rbp]
	cmp	DWORD PTR z_result$[rbp], eax
	jne	SHORT $LN11@TEST_PMC_S
	mov	DWORD PTR tv142[rbp], 1
	jmp	SHORT $LN12@TEST_PMC_S
$LN11@TEST_PMC_S:
	mov	DWORD PTR tv142[rbp], 0
$LN12@TEST_PMC_S:
	mov	edx, DWORD PTR z_result$[rbp]
	lea	rcx, OFFSET FLAT:??_C@_1EI@OAJPEDPG@?$AAP?$AAM?$AAC?$AA_?$AAS?$AAu?$AAb?$AAt?$AAr?$AAu?$AAc?$AAt?$AA_?$AAX?$AA_@
	call	FormatTestMesssage
	mov	QWORD PTR tv132[rbp], rax
	mov	r8d, 3
	mov	edx, DWORD PTR no$[rbp]
	lea	rcx, OFFSET FLAT:??_C@_1DC@CHIHAOMH@?$AAP?$AAM?$AAC?$AA_?$AAS?$AAu?$AAb?$AAt?$AAr?$AAu?$AAc?$AAt?$AA_?$AAX?$AA_@
	call	FormatTestLabel
	mov	rcx, QWORD PTR tv132[rbp]
	mov	r9, rcx
	mov	r8d, DWORD PTR tv142[rbp]
	mov	rdx, rax
	mov	rcx, QWORD PTR env$[rbp]
	call	TEST_Assert

; 122  :     if (desired_result_code == PMC_STATUS_OK)

	cmp	DWORD PTR desired_result_code$[rbp], 0
	jne	$LN2@TEST_PMC_S

; 123  :     {
; 124  :         TEST_Assert(env, FormatTestLabel(L"PMC_Subtruct_X_X (%d.%d)", no, 4), (result = ep->ToByteArray(z, actual_z_buf, sizeof(actual_z_buf), &actual_z_buf_size)) == PMC_STATUS_OK, FormatTestMesssage(L"PMC_ToByteArrayの復帰コードが期待通りではない(%d)", result));

	lea	r9, QWORD PTR actual_z_buf_size$[rbp]
	mov	r8d, 256				; 00000100H
	lea	rdx, QWORD PTR actual_z_buf$[rbp]
	mov	rcx, QWORD PTR z$[rbp]
	mov	rax, QWORD PTR ep$[rbp]
	call	QWORD PTR [rax+56]
	mov	DWORD PTR result$[rbp], eax
	cmp	DWORD PTR result$[rbp], 0
	jne	SHORT $LN13@TEST_PMC_S
	mov	DWORD PTR tv162[rbp], 1
	jmp	SHORT $LN14@TEST_PMC_S
$LN13@TEST_PMC_S:
	mov	DWORD PTR tv162[rbp], 0
$LN14@TEST_PMC_S:
	mov	edx, DWORD PTR result$[rbp]
	lea	rcx, OFFSET FLAT:??_C@_1EG@MCOLJMDD@?$AAP?$AAM?$AAC?$AA_?$AAT?$AAo?$AAB?$AAy?$AAt?$AAe?$AAA?$AAr?$AAr?$AAa?$AAy@
	call	FormatTestMesssage
	mov	QWORD PTR tv151[rbp], rax
	mov	r8d, 4
	mov	edx, DWORD PTR no$[rbp]
	lea	rcx, OFFSET FLAT:??_C@_1DC@CHIHAOMH@?$AAP?$AAM?$AAC?$AA_?$AAS?$AAu?$AAb?$AAt?$AAr?$AAu?$AAc?$AAt?$AA_?$AAX?$AA_@
	call	FormatTestLabel
	mov	rcx, QWORD PTR tv151[rbp]
	mov	r9, rcx
	mov	r8d, DWORD PTR tv162[rbp]
	mov	rdx, rax
	mov	rcx, QWORD PTR env$[rbp]
	call	TEST_Assert

; 125  :         TEST_Assert(env, FormatTestLabel(L"PMC_Subtruct_X_X (%d.%d)", no, 5), _EQUALS_MEMORY(actual_z_buf, actual_z_buf_size, desired_z_buf, desired_z_buf_size) == 0, L"データの内容が一致しない");

	mov	r9, QWORD PTR desired_z_buf_size$[rbp]
	mov	r8, QWORD PTR desired_z_buf$[rbp]
	mov	rdx, QWORD PTR actual_z_buf_size$[rbp]
	lea	rcx, QWORD PTR actual_z_buf$[rbp]
	call	_EQUALS_MEMORY
	test	eax, eax
	jne	SHORT $LN15@TEST_PMC_S
	mov	DWORD PTR tv177[rbp], 1
	jmp	SHORT $LN16@TEST_PMC_S
$LN15@TEST_PMC_S:
	mov	DWORD PTR tv177[rbp], 0
$LN16@TEST_PMC_S:
	mov	r8d, 5
	mov	edx, DWORD PTR no$[rbp]
	lea	rcx, OFFSET FLAT:??_C@_1DC@CHIHAOMH@?$AAP?$AAM?$AAC?$AA_?$AAS?$AAu?$AAb?$AAt?$AAr?$AAu?$AAc?$AAt?$AA_?$AAX?$AA_@
	call	FormatTestLabel
	lea	r9, OFFSET FLAT:??_C@_1BK@CBDJCOBM@?$PP?G?$PP?$PM?$PP?$LP?$AAn?$PP?$IF?$PP?$LJ?$AAL?$AA?$AA?$PP?t?$AAW?$AAj?$AAD@
	mov	r8d, DWORD PTR tv177[rbp]
	mov	rdx, rax
	mov	rcx, QWORD PTR env$[rbp]
	call	TEST_Assert
$LN2@TEST_PMC_S:

; 126  :     }
; 127  :     if (z_result == PMC_STATUS_OK)

	cmp	DWORD PTR z_result$[rbp], 0
	jne	SHORT $LN3@TEST_PMC_S

; 128  :         ep->Dispose(z);

	mov	rcx, QWORD PTR z$[rbp]
	mov	rax, QWORD PTR ep$[rbp]
	call	QWORD PTR [rax+32]
$LN3@TEST_PMC_S:

; 129  :     if (y_result == PMC_STATUS_OK)

	cmp	DWORD PTR y_result$[rbp], 0
	jne	SHORT $LN4@TEST_PMC_S

; 130  :         ep->Dispose(y);

	mov	rcx, QWORD PTR y$[rbp]
	mov	rax, QWORD PTR ep$[rbp]
	call	QWORD PTR [rax+32]
$LN4@TEST_PMC_S:

; 131  :     if (x_result == PMC_STATUS_OK)

	cmp	DWORD PTR x_result$[rbp], 0
	jne	SHORT $LN5@TEST_PMC_S

; 132  :         ep->Dispose(x);

	mov	rcx, QWORD PTR x$[rbp]
	mov	rax, QWORD PTR ep$[rbp]
	call	QWORD PTR [rax+32]
$LN5@TEST_PMC_S:

; 133  : }

	lea	rcx, QWORD PTR [rbp-32]
	lea	rdx, OFFSET FLAT:TEST_PMC_Subtruct_X_X$rtcFrameData
	call	_RTC_CheckStackVars
	mov	rcx, QWORD PTR __$ArrayPad$[rbp]
	xor	rcx, rbp
	call	__security_check_cookie
	lea	rsp, QWORD PTR [rbp+952]
	pop	rdi
	pop	rbp
	ret	0
TEST_PMC_Subtruct_X_X ENDP
_TEXT	ENDS
; Function compile flags: /Odtp /RTCsu /ZI
; File z:\sources\lunor\repos\rougemeilland\palmtree.math.core.uint\palmtree.math.core.uint\test_op_subtruct.c
;	COMDAT TEST_PMC_Subtruct_X_L
_TEXT	SEGMENT
x$ = 8
z$ = 40
actual_z_buf$ = 80
actual_z_buf_size$ = 360
result$ = 388
x_result$ = 420
z_result$ = 452
tv159 = 660
tv144 = 660
tv92 = 660
tv74 = 660
tv133 = 664
tv82 = 664
tv64 = 664
__$ArrayPad$ = 672
env$ = 720
ep$ = 728
no$ = 736
x_buf$ = 744
x_buf_size$ = 752
y$ = 760
desired_result_code$ = 768
desired_z_buf$ = 776
desired_z_buf_size$ = 784
TEST_PMC_Subtruct_X_L PROC				; COMDAT

; 87   : {

$LN14:
	mov	QWORD PTR [rsp+32], r9
	mov	DWORD PTR [rsp+24], r8d
	mov	QWORD PTR [rsp+16], rdx
	mov	QWORD PTR [rsp+8], rcx
	push	rbp
	push	rdi
	sub	rsp, 728				; 000002d8H
	lea	rbp, QWORD PTR [rsp+32]
	mov	rdi, rsp
	mov	ecx, 182				; 000000b6H
	mov	eax, -858993460				; ccccccccH
	rep stosd
	mov	rcx, QWORD PTR [rsp+760]
	mov	rax, QWORD PTR __security_cookie
	xor	rax, rbp
	mov	QWORD PTR __$ArrayPad$[rbp], rax
	lea	rcx, OFFSET FLAT:__029660FF_test_op_subtruct@c
	call	__CheckForDebuggerJustMyCode

; 88   :     PMC_HANDLE_UINT x;
; 89   :     PMC_HANDLE_UINT z;
; 90   :     unsigned char actual_z_buf[256];
; 91   :     size_t actual_z_buf_size;
; 92   :     PMC_STATUS_CODE result;
; 93   :     PMC_STATUS_CODE x_result;
; 94   :     PMC_STATUS_CODE z_result;
; 95   :     TEST_Assert(env, FormatTestLabel(L"PMC_Subtruct_X_L (%d.%d)", no, 1), (x_result = ep->FromByteArray(x_buf, x_buf_size, &x)) == PMC_STATUS_OK, FormatTestMesssage(L"PMC_FromByteArrayの復帰コードが期待通りではない(%d)", x_result));

	lea	r8, QWORD PTR x$[rbp]
	mov	rdx, QWORD PTR x_buf_size$[rbp]
	mov	rcx, QWORD PTR x_buf$[rbp]
	mov	rax, QWORD PTR ep$[rbp]
	call	QWORD PTR [rax+48]
	mov	DWORD PTR x_result$[rbp], eax
	cmp	DWORD PTR x_result$[rbp], 0
	jne	SHORT $LN6@TEST_PMC_S
	mov	DWORD PTR tv74[rbp], 1
	jmp	SHORT $LN7@TEST_PMC_S
$LN6@TEST_PMC_S:
	mov	DWORD PTR tv74[rbp], 0
$LN7@TEST_PMC_S:
	mov	edx, DWORD PTR x_result$[rbp]
	lea	rcx, OFFSET FLAT:??_C@_1EK@HDEICNAJ@?$AAP?$AAM?$AAC?$AA_?$AAF?$AAr?$AAo?$AAm?$AAB?$AAy?$AAt?$AAe?$AAA?$AAr?$AAr@
	call	FormatTestMesssage
	mov	QWORD PTR tv64[rbp], rax
	mov	r8d, 1
	mov	edx, DWORD PTR no$[rbp]
	lea	rcx, OFFSET FLAT:??_C@_1DC@IJKMEOLL@?$AAP?$AAM?$AAC?$AA_?$AAS?$AAu?$AAb?$AAt?$AAr?$AAu?$AAc?$AAt?$AA_?$AAX?$AA_@
	call	FormatTestLabel
	mov	rcx, QWORD PTR tv64[rbp]
	mov	r9, rcx
	mov	r8d, DWORD PTR tv74[rbp]
	mov	rdx, rax
	mov	rcx, QWORD PTR env$[rbp]
	call	TEST_Assert

; 96   :     TEST_Assert(env, FormatTestLabel(L"PMC_Subtruct_X_L (%d.%d)", no, 2), (z_result = ep->Subtruct_X_L(x, y, &z)) == desired_result_code, FormatTestMesssage(L"PMC_Subtruct_X_Lの復帰コードが期待通りではない(%d)", z_result));

	lea	r8, QWORD PTR z$[rbp]
	mov	rdx, QWORD PTR y$[rbp]
	mov	rcx, QWORD PTR x$[rbp]
	mov	rax, QWORD PTR ep$[rbp]
	call	QWORD PTR [rax+176]
	mov	DWORD PTR z_result$[rbp], eax
	mov	eax, DWORD PTR desired_result_code$[rbp]
	cmp	DWORD PTR z_result$[rbp], eax
	jne	SHORT $LN8@TEST_PMC_S
	mov	DWORD PTR tv92[rbp], 1
	jmp	SHORT $LN9@TEST_PMC_S
$LN8@TEST_PMC_S:
	mov	DWORD PTR tv92[rbp], 0
$LN9@TEST_PMC_S:
	mov	edx, DWORD PTR z_result$[rbp]
	lea	rcx, OFFSET FLAT:??_C@_1EI@BKNMDDOD@?$AAP?$AAM?$AAC?$AA_?$AAS?$AAu?$AAb?$AAt?$AAr?$AAu?$AAc?$AAt?$AA_?$AAX?$AA_@
	call	FormatTestMesssage
	mov	QWORD PTR tv82[rbp], rax
	mov	r8d, 2
	mov	edx, DWORD PTR no$[rbp]
	lea	rcx, OFFSET FLAT:??_C@_1DC@IJKMEOLL@?$AAP?$AAM?$AAC?$AA_?$AAS?$AAu?$AAb?$AAt?$AAr?$AAu?$AAc?$AAt?$AA_?$AAX?$AA_@
	call	FormatTestLabel
	mov	rcx, QWORD PTR tv82[rbp]
	mov	r9, rcx
	mov	r8d, DWORD PTR tv92[rbp]
	mov	rdx, rax
	mov	rcx, QWORD PTR env$[rbp]
	call	TEST_Assert

; 97   :     if (desired_result_code == PMC_STATUS_OK)

	cmp	DWORD PTR desired_result_code$[rbp], 0
	jne	$LN2@TEST_PMC_S

; 98   :     {
; 99   :         TEST_Assert(env, FormatTestLabel(L"PMC_Subtruct_X_L (%d.%d)", no, 3), (result = ep->ToByteArray(z, actual_z_buf, sizeof(actual_z_buf), &actual_z_buf_size)) == PMC_STATUS_OK, FormatTestMesssage(L"PMC_ToByteArrayの復帰コードが期待通りではない(%d)", result));

	lea	r9, QWORD PTR actual_z_buf_size$[rbp]
	mov	r8d, 256				; 00000100H
	lea	rdx, QWORD PTR actual_z_buf$[rbp]
	mov	rcx, QWORD PTR z$[rbp]
	mov	rax, QWORD PTR ep$[rbp]
	call	QWORD PTR [rax+56]
	mov	DWORD PTR result$[rbp], eax
	cmp	DWORD PTR result$[rbp], 0
	jne	SHORT $LN10@TEST_PMC_S
	mov	DWORD PTR tv144[rbp], 1
	jmp	SHORT $LN11@TEST_PMC_S
$LN10@TEST_PMC_S:
	mov	DWORD PTR tv144[rbp], 0
$LN11@TEST_PMC_S:
	mov	edx, DWORD PTR result$[rbp]
	lea	rcx, OFFSET FLAT:??_C@_1EG@MCOLJMDD@?$AAP?$AAM?$AAC?$AA_?$AAT?$AAo?$AAB?$AAy?$AAt?$AAe?$AAA?$AAr?$AAr?$AAa?$AAy@
	call	FormatTestMesssage
	mov	QWORD PTR tv133[rbp], rax
	mov	r8d, 3
	mov	edx, DWORD PTR no$[rbp]
	lea	rcx, OFFSET FLAT:??_C@_1DC@IJKMEOLL@?$AAP?$AAM?$AAC?$AA_?$AAS?$AAu?$AAb?$AAt?$AAr?$AAu?$AAc?$AAt?$AA_?$AAX?$AA_@
	call	FormatTestLabel
	mov	rcx, QWORD PTR tv133[rbp]
	mov	r9, rcx
	mov	r8d, DWORD PTR tv144[rbp]
	mov	rdx, rax
	mov	rcx, QWORD PTR env$[rbp]
	call	TEST_Assert

; 100  :         TEST_Assert(env, FormatTestLabel(L"PMC_Subtruct_X_L (%d.%d)", no, 4), _EQUALS_MEMORY(actual_z_buf, actual_z_buf_size, desired_z_buf, desired_z_buf_size) == 0, L"データの内容が一致しない");

	mov	r9, QWORD PTR desired_z_buf_size$[rbp]
	mov	r8, QWORD PTR desired_z_buf$[rbp]
	mov	rdx, QWORD PTR actual_z_buf_size$[rbp]
	lea	rcx, QWORD PTR actual_z_buf$[rbp]
	call	_EQUALS_MEMORY
	test	eax, eax
	jne	SHORT $LN12@TEST_PMC_S
	mov	DWORD PTR tv159[rbp], 1
	jmp	SHORT $LN13@TEST_PMC_S
$LN12@TEST_PMC_S:
	mov	DWORD PTR tv159[rbp], 0
$LN13@TEST_PMC_S:
	mov	r8d, 4
	mov	edx, DWORD PTR no$[rbp]
	lea	rcx, OFFSET FLAT:??_C@_1DC@IJKMEOLL@?$AAP?$AAM?$AAC?$AA_?$AAS?$AAu?$AAb?$AAt?$AAr?$AAu?$AAc?$AAt?$AA_?$AAX?$AA_@
	call	FormatTestLabel
	lea	r9, OFFSET FLAT:??_C@_1BK@CBDJCOBM@?$PP?G?$PP?$PM?$PP?$LP?$AAn?$PP?$IF?$PP?$LJ?$AAL?$AA?$AA?$PP?t?$AAW?$AAj?$AAD@
	mov	r8d, DWORD PTR tv159[rbp]
	mov	rdx, rax
	mov	rcx, QWORD PTR env$[rbp]
	call	TEST_Assert
$LN2@TEST_PMC_S:

; 101  :     }
; 102  :     if (z_result == PMC_STATUS_OK)

	cmp	DWORD PTR z_result$[rbp], 0
	jne	SHORT $LN3@TEST_PMC_S

; 103  :         ep->Dispose(z);

	mov	rcx, QWORD PTR z$[rbp]
	mov	rax, QWORD PTR ep$[rbp]
	call	QWORD PTR [rax+32]
$LN3@TEST_PMC_S:

; 104  :     if (x_result == PMC_STATUS_OK)

	cmp	DWORD PTR x_result$[rbp], 0
	jne	SHORT $LN4@TEST_PMC_S

; 105  :         ep->Dispose(x);

	mov	rcx, QWORD PTR x$[rbp]
	mov	rax, QWORD PTR ep$[rbp]
	call	QWORD PTR [rax+32]
$LN4@TEST_PMC_S:

; 106  : }

	lea	rcx, QWORD PTR [rbp-32]
	lea	rdx, OFFSET FLAT:TEST_PMC_Subtruct_X_L$rtcFrameData
	call	_RTC_CheckStackVars
	mov	rcx, QWORD PTR __$ArrayPad$[rbp]
	xor	rcx, rbp
	call	__security_check_cookie
	lea	rsp, QWORD PTR [rbp+696]
	pop	rdi
	pop	rbp
	ret	0
TEST_PMC_Subtruct_X_L ENDP
_TEXT	ENDS
; Function compile flags: /Odtp /RTCsu /ZI
; File z:\sources\lunor\repos\rougemeilland\palmtree.math.core.uint\palmtree.math.core.uint\test_op_subtruct.c
;	COMDAT TEST_PMC_Subtruct_X_I
_TEXT	SEGMENT
x$ = 8
z$ = 40
actual_z_buf$ = 80
actual_z_buf_size$ = 360
result$ = 388
x_result$ = 420
z_result$ = 452
tv159 = 660
tv144 = 660
tv92 = 660
tv74 = 660
tv133 = 664
tv82 = 664
tv64 = 664
__$ArrayPad$ = 672
env$ = 720
ep$ = 728
no$ = 736
x_buf$ = 744
x_buf_size$ = 752
y$ = 760
desired_result_code$ = 768
desired_z_buf$ = 776
desired_z_buf_size$ = 784
TEST_PMC_Subtruct_X_I PROC				; COMDAT

; 65   : {

$LN14:
	mov	QWORD PTR [rsp+32], r9
	mov	DWORD PTR [rsp+24], r8d
	mov	QWORD PTR [rsp+16], rdx
	mov	QWORD PTR [rsp+8], rcx
	push	rbp
	push	rdi
	sub	rsp, 728				; 000002d8H
	lea	rbp, QWORD PTR [rsp+32]
	mov	rdi, rsp
	mov	ecx, 182				; 000000b6H
	mov	eax, -858993460				; ccccccccH
	rep stosd
	mov	rcx, QWORD PTR [rsp+760]
	mov	rax, QWORD PTR __security_cookie
	xor	rax, rbp
	mov	QWORD PTR __$ArrayPad$[rbp], rax
	lea	rcx, OFFSET FLAT:__029660FF_test_op_subtruct@c
	call	__CheckForDebuggerJustMyCode

; 66   :     PMC_HANDLE_UINT x;
; 67   :     PMC_HANDLE_UINT z;
; 68   :     unsigned char actual_z_buf[256];
; 69   :     size_t actual_z_buf_size;
; 70   :     PMC_STATUS_CODE result;
; 71   :     PMC_STATUS_CODE x_result;
; 72   :     PMC_STATUS_CODE z_result;
; 73   :     TEST_Assert(env, FormatTestLabel(L"PMC_Subtruct_X_I (%d.%d)", no, 1), (x_result = ep->FromByteArray(x_buf, x_buf_size, &x)) == PMC_STATUS_OK, FormatTestMesssage(L"PMC_FromByteArrayの復帰コードが期待通りではない(%d)", x_result));

	lea	r8, QWORD PTR x$[rbp]
	mov	rdx, QWORD PTR x_buf_size$[rbp]
	mov	rcx, QWORD PTR x_buf$[rbp]
	mov	rax, QWORD PTR ep$[rbp]
	call	QWORD PTR [rax+48]
	mov	DWORD PTR x_result$[rbp], eax
	cmp	DWORD PTR x_result$[rbp], 0
	jne	SHORT $LN6@TEST_PMC_S
	mov	DWORD PTR tv74[rbp], 1
	jmp	SHORT $LN7@TEST_PMC_S
$LN6@TEST_PMC_S:
	mov	DWORD PTR tv74[rbp], 0
$LN7@TEST_PMC_S:
	mov	edx, DWORD PTR x_result$[rbp]
	lea	rcx, OFFSET FLAT:??_C@_1EK@HDEICNAJ@?$AAP?$AAM?$AAC?$AA_?$AAF?$AAr?$AAo?$AAm?$AAB?$AAy?$AAt?$AAe?$AAA?$AAr?$AAr@
	call	FormatTestMesssage
	mov	QWORD PTR tv64[rbp], rax
	mov	r8d, 1
	mov	edx, DWORD PTR no$[rbp]
	lea	rcx, OFFSET FLAT:??_C@_1DC@KCCGJOKE@?$AAP?$AAM?$AAC?$AA_?$AAS?$AAu?$AAb?$AAt?$AAr?$AAu?$AAc?$AAt?$AA_?$AAX?$AA_@
	call	FormatTestLabel
	mov	rcx, QWORD PTR tv64[rbp]
	mov	r9, rcx
	mov	r8d, DWORD PTR tv74[rbp]
	mov	rdx, rax
	mov	rcx, QWORD PTR env$[rbp]
	call	TEST_Assert

; 74   :     TEST_Assert(env, FormatTestLabel(L"PMC_Subtruct_X_I (%d.%d)", no, 2), (z_result = ep->Subtruct_X_I(x, y, &z)) == desired_result_code, FormatTestMesssage(L"PMC_Subtruct_X_Iの復帰コードが期待通りではない(%d)", z_result));

	lea	r8, QWORD PTR z$[rbp]
	mov	edx, DWORD PTR y$[rbp]
	mov	rcx, QWORD PTR x$[rbp]
	mov	rax, QWORD PTR ep$[rbp]
	call	QWORD PTR [rax+168]
	mov	DWORD PTR z_result$[rbp], eax
	mov	eax, DWORD PTR desired_result_code$[rbp]
	cmp	DWORD PTR z_result$[rbp], eax
	jne	SHORT $LN8@TEST_PMC_S
	mov	DWORD PTR tv92[rbp], 1
	jmp	SHORT $LN9@TEST_PMC_S
$LN8@TEST_PMC_S:
	mov	DWORD PTR tv92[rbp], 0
$LN9@TEST_PMC_S:
	mov	edx, DWORD PTR z_result$[rbp]
	lea	rcx, OFFSET FLAT:??_C@_1EI@FCJAKOHG@?$AAP?$AAM?$AAC?$AA_?$AAS?$AAu?$AAb?$AAt?$AAr?$AAu?$AAc?$AAt?$AA_?$AAX?$AA_@
	call	FormatTestMesssage
	mov	QWORD PTR tv82[rbp], rax
	mov	r8d, 2
	mov	edx, DWORD PTR no$[rbp]
	lea	rcx, OFFSET FLAT:??_C@_1DC@KCCGJOKE@?$AAP?$AAM?$AAC?$AA_?$AAS?$AAu?$AAb?$AAt?$AAr?$AAu?$AAc?$AAt?$AA_?$AAX?$AA_@
	call	FormatTestLabel
	mov	rcx, QWORD PTR tv82[rbp]
	mov	r9, rcx
	mov	r8d, DWORD PTR tv92[rbp]
	mov	rdx, rax
	mov	rcx, QWORD PTR env$[rbp]
	call	TEST_Assert

; 75   :     if (desired_result_code == PMC_STATUS_OK)

	cmp	DWORD PTR desired_result_code$[rbp], 0
	jne	$LN2@TEST_PMC_S

; 76   :     {
; 77   :         TEST_Assert(env, FormatTestLabel(L"PMC_Subtruct_X_I (%d.%d)", no, 3), (result = ep->ToByteArray(z, actual_z_buf, sizeof(actual_z_buf), &actual_z_buf_size)) == PMC_STATUS_OK, FormatTestMesssage(L"PMC_ToByteArrayの復帰コードが期待通りではない(%d)", result));

	lea	r9, QWORD PTR actual_z_buf_size$[rbp]
	mov	r8d, 256				; 00000100H
	lea	rdx, QWORD PTR actual_z_buf$[rbp]
	mov	rcx, QWORD PTR z$[rbp]
	mov	rax, QWORD PTR ep$[rbp]
	call	QWORD PTR [rax+56]
	mov	DWORD PTR result$[rbp], eax
	cmp	DWORD PTR result$[rbp], 0
	jne	SHORT $LN10@TEST_PMC_S
	mov	DWORD PTR tv144[rbp], 1
	jmp	SHORT $LN11@TEST_PMC_S
$LN10@TEST_PMC_S:
	mov	DWORD PTR tv144[rbp], 0
$LN11@TEST_PMC_S:
	mov	edx, DWORD PTR result$[rbp]
	lea	rcx, OFFSET FLAT:??_C@_1EG@MCOLJMDD@?$AAP?$AAM?$AAC?$AA_?$AAT?$AAo?$AAB?$AAy?$AAt?$AAe?$AAA?$AAr?$AAr?$AAa?$AAy@
	call	FormatTestMesssage
	mov	QWORD PTR tv133[rbp], rax
	mov	r8d, 3
	mov	edx, DWORD PTR no$[rbp]
	lea	rcx, OFFSET FLAT:??_C@_1DC@KCCGJOKE@?$AAP?$AAM?$AAC?$AA_?$AAS?$AAu?$AAb?$AAt?$AAr?$AAu?$AAc?$AAt?$AA_?$AAX?$AA_@
	call	FormatTestLabel
	mov	rcx, QWORD PTR tv133[rbp]
	mov	r9, rcx
	mov	r8d, DWORD PTR tv144[rbp]
	mov	rdx, rax
	mov	rcx, QWORD PTR env$[rbp]
	call	TEST_Assert

; 78   :         TEST_Assert(env, FormatTestLabel(L"PMC_Subtruct_X_I (%d.%d)", no, 4), _EQUALS_MEMORY(actual_z_buf, actual_z_buf_size, desired_z_buf, desired_z_buf_size) == 0, L"データの内容が一致しない");

	mov	r9, QWORD PTR desired_z_buf_size$[rbp]
	mov	r8, QWORD PTR desired_z_buf$[rbp]
	mov	rdx, QWORD PTR actual_z_buf_size$[rbp]
	lea	rcx, QWORD PTR actual_z_buf$[rbp]
	call	_EQUALS_MEMORY
	test	eax, eax
	jne	SHORT $LN12@TEST_PMC_S
	mov	DWORD PTR tv159[rbp], 1
	jmp	SHORT $LN13@TEST_PMC_S
$LN12@TEST_PMC_S:
	mov	DWORD PTR tv159[rbp], 0
$LN13@TEST_PMC_S:
	mov	r8d, 4
	mov	edx, DWORD PTR no$[rbp]
	lea	rcx, OFFSET FLAT:??_C@_1DC@KCCGJOKE@?$AAP?$AAM?$AAC?$AA_?$AAS?$AAu?$AAb?$AAt?$AAr?$AAu?$AAc?$AAt?$AA_?$AAX?$AA_@
	call	FormatTestLabel
	lea	r9, OFFSET FLAT:??_C@_1BK@CBDJCOBM@?$PP?G?$PP?$PM?$PP?$LP?$AAn?$PP?$IF?$PP?$LJ?$AAL?$AA?$AA?$PP?t?$AAW?$AAj?$AAD@
	mov	r8d, DWORD PTR tv159[rbp]
	mov	rdx, rax
	mov	rcx, QWORD PTR env$[rbp]
	call	TEST_Assert
$LN2@TEST_PMC_S:

; 79   :     }
; 80   :     if (z_result == PMC_STATUS_OK)

	cmp	DWORD PTR z_result$[rbp], 0
	jne	SHORT $LN3@TEST_PMC_S

; 81   :         ep->Dispose(z);

	mov	rcx, QWORD PTR z$[rbp]
	mov	rax, QWORD PTR ep$[rbp]
	call	QWORD PTR [rax+32]
$LN3@TEST_PMC_S:

; 82   :     if (x_result == PMC_STATUS_OK)

	cmp	DWORD PTR x_result$[rbp], 0
	jne	SHORT $LN4@TEST_PMC_S

; 83   :         ep->Dispose(x);

	mov	rcx, QWORD PTR x$[rbp]
	mov	rax, QWORD PTR ep$[rbp]
	call	QWORD PTR [rax+32]
$LN4@TEST_PMC_S:

; 84   : }

	lea	rcx, QWORD PTR [rbp-32]
	lea	rdx, OFFSET FLAT:TEST_PMC_Subtruct_X_I$rtcFrameData
	call	_RTC_CheckStackVars
	mov	rcx, QWORD PTR __$ArrayPad$[rbp]
	xor	rcx, rbp
	call	__security_check_cookie
	lea	rsp, QWORD PTR [rbp+696]
	pop	rdi
	pop	rbp
	ret	0
TEST_PMC_Subtruct_X_I ENDP
_TEXT	ENDS
; Function compile flags: /Odtp /RTCsu /ZI
; File z:\sources\lunor\repos\rougemeilland\palmtree.math.core.uint\palmtree.math.core.uint\test_op_subtruct.c
;	COMDAT TEST_PMC_Subtruct_L_X
_TEXT	SEGMENT
v$ = 8
actual_w$ = 40
result$ = 68
v_result$ = 100
tv135 = 308
tv92 = 308
tv74 = 308
tv82 = 312
tv64 = 312
env$ = 352
ep$ = 360
no$ = 368
u$ = 376
v_buf$ = 384
v_buf_size$ = 392
desired_result_code$ = 400
desired_w$ = 408
TEST_PMC_Subtruct_L_X PROC				; COMDAT

; 49   : {

$LN11:
	mov	QWORD PTR [rsp+32], r9
	mov	DWORD PTR [rsp+24], r8d
	mov	QWORD PTR [rsp+16], rdx
	mov	QWORD PTR [rsp+8], rcx
	push	rbp
	push	rdi
	sub	rsp, 360				; 00000168H
	lea	rbp, QWORD PTR [rsp+32]
	mov	rdi, rsp
	mov	ecx, 90					; 0000005aH
	mov	eax, -858993460				; ccccccccH
	rep stosd
	mov	rcx, QWORD PTR [rsp+392]
	lea	rcx, OFFSET FLAT:__029660FF_test_op_subtruct@c
	call	__CheckForDebuggerJustMyCode

; 50   :     PMC_HANDLE_UINT v;
; 51   :     unsigned __int64 actual_w;
; 52   :     PMC_STATUS_CODE result;
; 53   :     PMC_STATUS_CODE v_result;
; 54   :     TEST_Assert(env, FormatTestLabel(L"PMC_Subtruct_L_X (%d.%d)", no, 1), (v_result = ep->FromByteArray(v_buf, v_buf_size, &v)) == PMC_STATUS_OK, FormatTestMesssage(L"PMC_FromByteArrayの復帰コードが期待通りではない(%d)", v_result));

	lea	r8, QWORD PTR v$[rbp]
	mov	rdx, QWORD PTR v_buf_size$[rbp]
	mov	rcx, QWORD PTR v_buf$[rbp]
	mov	rax, QWORD PTR ep$[rbp]
	call	QWORD PTR [rax+48]
	mov	DWORD PTR v_result$[rbp], eax
	cmp	DWORD PTR v_result$[rbp], 0
	jne	SHORT $LN5@TEST_PMC_S
	mov	DWORD PTR tv74[rbp], 1
	jmp	SHORT $LN6@TEST_PMC_S
$LN5@TEST_PMC_S:
	mov	DWORD PTR tv74[rbp], 0
$LN6@TEST_PMC_S:
	mov	edx, DWORD PTR v_result$[rbp]
	lea	rcx, OFFSET FLAT:??_C@_1EK@HDEICNAJ@?$AAP?$AAM?$AAC?$AA_?$AAF?$AAr?$AAo?$AAm?$AAB?$AAy?$AAt?$AAe?$AAA?$AAr?$AAr@
	call	FormatTestMesssage
	mov	QWORD PTR tv64[rbp], rax
	mov	r8d, 1
	mov	edx, DWORD PTR no$[rbp]
	lea	rcx, OFFSET FLAT:??_C@_1DC@DBOKOPKF@?$AAP?$AAM?$AAC?$AA_?$AAS?$AAu?$AAb?$AAt?$AAr?$AAu?$AAc?$AAt?$AA_?$AAL?$AA_@
	call	FormatTestLabel
	mov	rcx, QWORD PTR tv64[rbp]
	mov	r9, rcx
	mov	r8d, DWORD PTR tv74[rbp]
	mov	rdx, rax
	mov	rcx, QWORD PTR env$[rbp]
	call	TEST_Assert

; 55   :     TEST_Assert(env, FormatTestLabel(L"PMC_Subtruct_L_X (%d.%d)", no, 2), (result = ep->Subtruct_L_X(u, v, &actual_w)) == desired_result_code, FormatTestMesssage(L"PMC_Subtruct_L_Xの復帰コードが期待通りではない(%d)", result));

	lea	r8, QWORD PTR actual_w$[rbp]
	mov	rdx, QWORD PTR v$[rbp]
	mov	rcx, QWORD PTR u$[rbp]
	mov	rax, QWORD PTR ep$[rbp]
	call	QWORD PTR [rax+160]
	mov	DWORD PTR result$[rbp], eax
	mov	eax, DWORD PTR desired_result_code$[rbp]
	cmp	DWORD PTR result$[rbp], eax
	jne	SHORT $LN7@TEST_PMC_S
	mov	DWORD PTR tv92[rbp], 1
	jmp	SHORT $LN8@TEST_PMC_S
$LN7@TEST_PMC_S:
	mov	DWORD PTR tv92[rbp], 0
$LN8@TEST_PMC_S:
	mov	edx, DWORD PTR result$[rbp]
	lea	rcx, OFFSET FLAT:??_C@_1EI@FFJFILMP@?$AAP?$AAM?$AAC?$AA_?$AAS?$AAu?$AAb?$AAt?$AAr?$AAu?$AAc?$AAt?$AA_?$AAL?$AA_@
	call	FormatTestMesssage
	mov	QWORD PTR tv82[rbp], rax
	mov	r8d, 2
	mov	edx, DWORD PTR no$[rbp]
	lea	rcx, OFFSET FLAT:??_C@_1DC@DBOKOPKF@?$AAP?$AAM?$AAC?$AA_?$AAS?$AAu?$AAb?$AAt?$AAr?$AAu?$AAc?$AAt?$AA_?$AAL?$AA_@
	call	FormatTestLabel
	mov	rcx, QWORD PTR tv82[rbp]
	mov	r9, rcx
	mov	r8d, DWORD PTR tv92[rbp]
	mov	rdx, rax
	mov	rcx, QWORD PTR env$[rbp]
	call	TEST_Assert

; 56   :     if (desired_result_code == PMC_STATUS_OK)

	cmp	DWORD PTR desired_result_code$[rbp], 0
	jne	SHORT $LN2@TEST_PMC_S

; 57   :     {
; 58   :         TEST_Assert(env, FormatTestLabel(L"PMC_Subtruct_L_X (%d.%d)", no, 3), actual_w == desired_w, L"データの内容が一致しない");

	mov	rax, QWORD PTR desired_w$[rbp]
	cmp	QWORD PTR actual_w$[rbp], rax
	jne	SHORT $LN9@TEST_PMC_S
	mov	DWORD PTR tv135[rbp], 1
	jmp	SHORT $LN10@TEST_PMC_S
$LN9@TEST_PMC_S:
	mov	DWORD PTR tv135[rbp], 0
$LN10@TEST_PMC_S:
	mov	r8d, 3
	mov	edx, DWORD PTR no$[rbp]
	lea	rcx, OFFSET FLAT:??_C@_1DC@DBOKOPKF@?$AAP?$AAM?$AAC?$AA_?$AAS?$AAu?$AAb?$AAt?$AAr?$AAu?$AAc?$AAt?$AA_?$AAL?$AA_@
	call	FormatTestLabel
	lea	r9, OFFSET FLAT:??_C@_1BK@CBDJCOBM@?$PP?G?$PP?$PM?$PP?$LP?$AAn?$PP?$IF?$PP?$LJ?$AAL?$AA?$AA?$PP?t?$AAW?$AAj?$AAD@
	mov	r8d, DWORD PTR tv135[rbp]
	mov	rdx, rax
	mov	rcx, QWORD PTR env$[rbp]
	call	TEST_Assert
$LN2@TEST_PMC_S:

; 59   :     }
; 60   :     if (v_result == PMC_STATUS_OK)

	cmp	DWORD PTR v_result$[rbp], 0
	jne	SHORT $LN3@TEST_PMC_S

; 61   :         ep->Dispose(v);

	mov	rcx, QWORD PTR v$[rbp]
	mov	rax, QWORD PTR ep$[rbp]
	call	QWORD PTR [rax+32]
$LN3@TEST_PMC_S:

; 62   : }

	lea	rcx, QWORD PTR [rbp-32]
	lea	rdx, OFFSET FLAT:TEST_PMC_Subtruct_L_X$rtcFrameData
	call	_RTC_CheckStackVars
	lea	rsp, QWORD PTR [rbp+328]
	pop	rdi
	pop	rbp
	ret	0
TEST_PMC_Subtruct_L_X ENDP
_TEXT	ENDS
; Function compile flags: /Odtp /RTCsu /ZI
; File z:\sources\lunor\repos\rougemeilland\palmtree.math.core.uint\palmtree.math.core.uint\test_op_subtruct.c
;	COMDAT TEST_PMC_Subtruct_I_X
_TEXT	SEGMENT
v$ = 8
actual_w$ = 36
result$ = 68
v_result$ = 100
tv135 = 308
tv92 = 308
tv74 = 308
tv82 = 312
tv64 = 312
env$ = 352
ep$ = 360
no$ = 368
u$ = 376
v_buf$ = 384
v_buf_size$ = 392
desired_result_code$ = 400
desired_w$ = 408
TEST_PMC_Subtruct_I_X PROC				; COMDAT

; 33   : {

$LN11:
	mov	DWORD PTR [rsp+32], r9d
	mov	DWORD PTR [rsp+24], r8d
	mov	QWORD PTR [rsp+16], rdx
	mov	QWORD PTR [rsp+8], rcx
	push	rbp
	push	rdi
	sub	rsp, 360				; 00000168H
	lea	rbp, QWORD PTR [rsp+32]
	mov	rdi, rsp
	mov	ecx, 90					; 0000005aH
	mov	eax, -858993460				; ccccccccH
	rep stosd
	mov	rcx, QWORD PTR [rsp+392]
	lea	rcx, OFFSET FLAT:__029660FF_test_op_subtruct@c
	call	__CheckForDebuggerJustMyCode

; 34   :     PMC_HANDLE_UINT v;
; 35   :     unsigned __int32 actual_w;
; 36   :     PMC_STATUS_CODE result;
; 37   :     PMC_STATUS_CODE v_result;
; 38   :     TEST_Assert(env, FormatTestLabel(L"PMC_Subtruct_I_X (%d.%d)", no, 1), (v_result = ep->FromByteArray(v_buf, v_buf_size, &v)) == PMC_STATUS_OK, FormatTestMesssage(L"PMC_FromByteArrayの復帰コードが期待通りではない(%d)", v_result));

	lea	r8, QWORD PTR v$[rbp]
	mov	rdx, QWORD PTR v_buf_size$[rbp]
	mov	rcx, QWORD PTR v_buf$[rbp]
	mov	rax, QWORD PTR ep$[rbp]
	call	QWORD PTR [rax+48]
	mov	DWORD PTR v_result$[rbp], eax
	cmp	DWORD PTR v_result$[rbp], 0
	jne	SHORT $LN5@TEST_PMC_S
	mov	DWORD PTR tv74[rbp], 1
	jmp	SHORT $LN6@TEST_PMC_S
$LN5@TEST_PMC_S:
	mov	DWORD PTR tv74[rbp], 0
$LN6@TEST_PMC_S:
	mov	edx, DWORD PTR v_result$[rbp]
	lea	rcx, OFFSET FLAT:??_C@_1EK@HDEICNAJ@?$AAP?$AAM?$AAC?$AA_?$AAF?$AAr?$AAo?$AAm?$AAB?$AAy?$AAt?$AAe?$AAA?$AAr?$AAr@
	call	FormatTestMesssage
	mov	QWORD PTR tv64[rbp], rax
	mov	r8d, 1
	mov	edx, DWORD PTR no$[rbp]
	lea	rcx, OFFSET FLAT:??_C@_1DC@NJMJBENN@?$AAP?$AAM?$AAC?$AA_?$AAS?$AAu?$AAb?$AAt?$AAr?$AAu?$AAc?$AAt?$AA_?$AAI?$AA_@
	call	FormatTestLabel
	mov	rcx, QWORD PTR tv64[rbp]
	mov	r9, rcx
	mov	r8d, DWORD PTR tv74[rbp]
	mov	rdx, rax
	mov	rcx, QWORD PTR env$[rbp]
	call	TEST_Assert

; 39   :     TEST_Assert(env, FormatTestLabel(L"PMC_Subtruct_I_X (%d.%d)", no, 2), (result = ep->Subtruct_I_X(u, v, &actual_w)) == desired_result_code, FormatTestMesssage(L"PMC_Subtruct_I_Xの復帰コードが期待通りではない(%d)", result));

	lea	r8, QWORD PTR actual_w$[rbp]
	mov	rdx, QWORD PTR v$[rbp]
	mov	ecx, DWORD PTR u$[rbp]
	mov	rax, QWORD PTR ep$[rbp]
	call	QWORD PTR [rax+152]
	mov	DWORD PTR result$[rbp], eax
	mov	eax, DWORD PTR desired_result_code$[rbp]
	cmp	DWORD PTR result$[rbp], eax
	jne	SHORT $LN7@TEST_PMC_S
	mov	DWORD PTR tv92[rbp], 1
	jmp	SHORT $LN8@TEST_PMC_S
$LN7@TEST_PMC_S:
	mov	DWORD PTR tv92[rbp], 0
$LN8@TEST_PMC_S:
	mov	edx, DWORD PTR result$[rbp]
	lea	rcx, OFFSET FLAT:??_C@_1EI@OALHIFB@?$AAP?$AAM?$AAC?$AA_?$AAS?$AAu?$AAb?$AAt?$AAr?$AAu?$AAc?$AAt?$AA_?$AAI?$AA_@
	call	FormatTestMesssage
	mov	QWORD PTR tv82[rbp], rax
	mov	r8d, 2
	mov	edx, DWORD PTR no$[rbp]
	lea	rcx, OFFSET FLAT:??_C@_1DC@NJMJBENN@?$AAP?$AAM?$AAC?$AA_?$AAS?$AAu?$AAb?$AAt?$AAr?$AAu?$AAc?$AAt?$AA_?$AAI?$AA_@
	call	FormatTestLabel
	mov	rcx, QWORD PTR tv82[rbp]
	mov	r9, rcx
	mov	r8d, DWORD PTR tv92[rbp]
	mov	rdx, rax
	mov	rcx, QWORD PTR env$[rbp]
	call	TEST_Assert

; 40   :     if (desired_result_code == PMC_STATUS_OK)

	cmp	DWORD PTR desired_result_code$[rbp], 0
	jne	SHORT $LN2@TEST_PMC_S

; 41   :     {
; 42   :         TEST_Assert(env, FormatTestLabel(L"PMC_Subtruct_I_X (%d.%d)", no, 3), actual_w == desired_w, L"データの内容が一致しない");

	mov	eax, DWORD PTR desired_w$[rbp]
	cmp	DWORD PTR actual_w$[rbp], eax
	jne	SHORT $LN9@TEST_PMC_S
	mov	DWORD PTR tv135[rbp], 1
	jmp	SHORT $LN10@TEST_PMC_S
$LN9@TEST_PMC_S:
	mov	DWORD PTR tv135[rbp], 0
$LN10@TEST_PMC_S:
	mov	r8d, 3
	mov	edx, DWORD PTR no$[rbp]
	lea	rcx, OFFSET FLAT:??_C@_1DC@NJMJBENN@?$AAP?$AAM?$AAC?$AA_?$AAS?$AAu?$AAb?$AAt?$AAr?$AAu?$AAc?$AAt?$AA_?$AAI?$AA_@
	call	FormatTestLabel
	lea	r9, OFFSET FLAT:??_C@_1BK@CBDJCOBM@?$PP?G?$PP?$PM?$PP?$LP?$AAn?$PP?$IF?$PP?$LJ?$AAL?$AA?$AA?$PP?t?$AAW?$AAj?$AAD@
	mov	r8d, DWORD PTR tv135[rbp]
	mov	rdx, rax
	mov	rcx, QWORD PTR env$[rbp]
	call	TEST_Assert
$LN2@TEST_PMC_S:

; 43   :     }
; 44   :     if (v_result == PMC_STATUS_OK)

	cmp	DWORD PTR v_result$[rbp], 0
	jne	SHORT $LN3@TEST_PMC_S

; 45   :         ep->Dispose(v);

	mov	rcx, QWORD PTR v$[rbp]
	mov	rax, QWORD PTR ep$[rbp]
	call	QWORD PTR [rax+32]
$LN3@TEST_PMC_S:

; 46   : }

	lea	rcx, QWORD PTR [rbp-32]
	lea	rdx, OFFSET FLAT:TEST_PMC_Subtruct_I_X$rtcFrameData
	call	_RTC_CheckStackVars
	lea	rsp, QWORD PTR [rbp+328]
	pop	rdi
	pop	rbp
	ret	0
TEST_PMC_Subtruct_I_X ENDP
_TEXT	ENDS
END
