; Listing generated by Microsoft (R) Optimizing Compiler Version 19.16.27026.1 

include listing.inc

INCLUDELIB MSVCRTD
INCLUDELIB OLDNAMES

msvcjmc	SEGMENT
__7B7A869E_ctype@h DB 01H
__457DD326_basetsd@h DB 01H
__4384A2D9_corecrt_memcpy_s@h DB 01H
__4E51A221_corecrt_wstring@h DB 01H
__2140C079_string@h DB 01H
__1887E595_winnt@h DB 01H
__9FC7C64B_processthreadsapi@h DB 01H
__FA470AEC_memoryapi@h DB 01H
__F37DAFF1_winerror@h DB 01H
__7A450CCC_winbase@h DB 01H
__B4B40122_winioctl@h DB 01H
__86261D59_stralign@h DB 01H
__630249ED_pmc_uint_debug@h DB 01H
__C90C8F96_test_op_modpow@c DB 01H
msvcjmc	ENDS
PUBLIC	TEST_PMC_ModPow_X_X_X
PUBLIC	__JustMyCode_Default
PUBLIC	??_C@_1EK@HDEICNAJ@?$AAP?$AAM?$AAC?$AA_?$AAF?$AAr?$AAo?$AAm?$AAB?$AAy?$AAt?$AAe?$AAA?$AAr?$AAr@ ; `string'
PUBLIC	??_C@_1DC@MNNPJICE@?$AAP?$AAM?$AAC?$AA_?$AAM?$AAo?$AAd?$AAP?$AAo?$AAw?$AA_?$AAX?$AA_?$AAX?$AA_@ ; `string'
PUBLIC	??_C@_1EI@JPNMBAGN@?$AAP?$AAM?$AAC?$AA_?$AAM?$AAo?$AAd?$AAP?$AAo?$AAw?$AA_?$AAX?$AA_?$AAX?$AA_@ ; `string'
PUBLIC	??_C@_1EG@MCOLJMDD@?$AAP?$AAM?$AAC?$AA_?$AAT?$AAo?$AAB?$AAy?$AAt?$AAe?$AAA?$AAr?$AAr?$AAa?$AAy@ ; `string'
PUBLIC	??_C@_1BK@CBDJCOBM@?$PP?G?$PP?$PM?$PP?$LP?$AAn?$PP?$IF?$PP?$LJ?$AAL?$AA?$AA?$PP?t?$AAW?$AAj?$AAD@ ; `string'
EXTRN	TEST_Assert:PROC
EXTRN	FormatTestLabel:PROC
EXTRN	FormatTestMesssage:PROC
EXTRN	_RTC_CheckStackVars:PROC
EXTRN	_RTC_InitBase:PROC
EXTRN	_RTC_Shutdown:PROC
EXTRN	__CheckForDebuggerJustMyCode:PROC
EXTRN	__GSHandlerCheck:PROC
EXTRN	__security_check_cookie:PROC
EXTRN	__security_cookie:QWORD
;	COMDAT pdata
pdata	SEGMENT
$pdata$TEST_PMC_ModPow_X_X_X DD imagerel $LN20
	DD	imagerel $LN20+1086
	DD	imagerel $unwind$TEST_PMC_ModPow_X_X_X
pdata	ENDS
;	COMDAT pdata
pdata	SEGMENT
$pdata$_EQUALS_MEMORY DD imagerel _EQUALS_MEMORY
	DD	imagerel _EQUALS_MEMORY+198
	DD	imagerel $unwind$_EQUALS_MEMORY
pdata	ENDS
;	COMDAT rtc$TMZ
rtc$TMZ	SEGMENT
_RTC_Shutdown.rtc$TMZ DQ FLAT:_RTC_Shutdown
rtc$TMZ	ENDS
;	COMDAT rtc$IMZ
rtc$IMZ	SEGMENT
_RTC_InitBase.rtc$IMZ DQ FLAT:_RTC_InitBase
rtc$IMZ	ENDS
;	COMDAT ??_C@_1BK@CBDJCOBM@?$PP?G?$PP?$PM?$PP?$LP?$AAn?$PP?$IF?$PP?$LJ?$AAL?$AA?$AA?$PP?t?$AAW?$AAj?$AAD@
CONST	SEGMENT
??_C@_1BK@CBDJCOBM@?$PP?G?$PP?$PM?$PP?$LP?$AAn?$PP?$IF?$PP?$LJ?$AAL?$AA?$AA?$PP?t?$AAW?$AAj?$AAD@ DB 0c7H
	DB	'0', 0fcH, '0', 0bfH, '0n0', 085H, 'Q', 0b9H, '[L0', 00H, 'N', 0f4H
	DB	081H, 'W0j0D0', 00H, 00H			; `string'
CONST	ENDS
;	COMDAT ??_C@_1EG@MCOLJMDD@?$AAP?$AAM?$AAC?$AA_?$AAT?$AAo?$AAB?$AAy?$AAt?$AAe?$AAA?$AAr?$AAr?$AAa?$AAy@
CONST	SEGMENT
??_C@_1EG@MCOLJMDD@?$AAP?$AAM?$AAC?$AA_?$AAT?$AAo?$AAB?$AAy?$AAt?$AAe?$AAA?$AAr?$AAr?$AAa?$AAy@ DB 'P'
	DB	00H, 'M', 00H, 'C', 00H, '_', 00H, 'T', 00H, 'o', 00H, 'B', 00H
	DB	'y', 00H, 't', 00H, 'e', 00H, 'A', 00H, 'r', 00H, 'r', 00H, 'a'
	DB	00H, 'y', 00H, 'n0', 0a9H, '_0^', 0b3H, '0', 0fcH, '0', 0c9H, '0'
	DB	'L0', 01fH, 'g', 085H, '_', 01aH, 090H, 08aH, '0g0o0j0D0(', 00H
	DB	'%', 00H, 'd', 00H, ')', 00H, 00H, 00H	; `string'
CONST	ENDS
;	COMDAT ??_C@_1EI@JPNMBAGN@?$AAP?$AAM?$AAC?$AA_?$AAM?$AAo?$AAd?$AAP?$AAo?$AAw?$AA_?$AAX?$AA_?$AAX?$AA_@
CONST	SEGMENT
??_C@_1EI@JPNMBAGN@?$AAP?$AAM?$AAC?$AA_?$AAM?$AAo?$AAd?$AAP?$AAo?$AAw?$AA_?$AAX?$AA_?$AAX?$AA_@ DB 'P'
	DB	00H, 'M', 00H, 'C', 00H, '_', 00H, 'M', 00H, 'o', 00H, 'd', 00H
	DB	'P', 00H, 'o', 00H, 'w', 00H, '_', 00H, 'X', 00H, '_', 00H, 'X'
	DB	00H, '_', 00H, 'X', 00H, 'n0', 0a9H, '_0^', 0b3H, '0', 0fcH, '0'
	DB	0c9H, '0L0', 01fH, 'g', 085H, '_', 01aH, 090H, 08aH, '0g0o0j0D'
	DB	'0(', 00H, '%', 00H, 'd', 00H, ')', 00H, 00H, 00H ; `string'
CONST	ENDS
;	COMDAT ??_C@_1DC@MNNPJICE@?$AAP?$AAM?$AAC?$AA_?$AAM?$AAo?$AAd?$AAP?$AAo?$AAw?$AA_?$AAX?$AA_?$AAX?$AA_@
CONST	SEGMENT
??_C@_1DC@MNNPJICE@?$AAP?$AAM?$AAC?$AA_?$AAM?$AAo?$AAd?$AAP?$AAo?$AAw?$AA_?$AAX?$AA_?$AAX?$AA_@ DB 'P'
	DB	00H, 'M', 00H, 'C', 00H, '_', 00H, 'M', 00H, 'o', 00H, 'd', 00H
	DB	'P', 00H, 'o', 00H, 'w', 00H, '_', 00H, 'X', 00H, '_', 00H, 'X'
	DB	00H, '_', 00H, 'X', 00H, ' ', 00H, '(', 00H, '%', 00H, 'd', 00H
	DB	'.', 00H, '%', 00H, 'd', 00H, ')', 00H, 00H, 00H ; `string'
CONST	ENDS
;	COMDAT ??_C@_1EK@HDEICNAJ@?$AAP?$AAM?$AAC?$AA_?$AAF?$AAr?$AAo?$AAm?$AAB?$AAy?$AAt?$AAe?$AAA?$AAr?$AAr@
CONST	SEGMENT
??_C@_1EK@HDEICNAJ@?$AAP?$AAM?$AAC?$AA_?$AAF?$AAr?$AAo?$AAm?$AAB?$AAy?$AAt?$AAe?$AAA?$AAr?$AAr@ DB 'P'
	DB	00H, 'M', 00H, 'C', 00H, '_', 00H, 'F', 00H, 'r', 00H, 'o', 00H
	DB	'm', 00H, 'B', 00H, 'y', 00H, 't', 00H, 'e', 00H, 'A', 00H, 'r'
	DB	00H, 'r', 00H, 'a', 00H, 'y', 00H, 'n0', 0a9H, '_0^', 0b3H, '0'
	DB	0fcH, '0', 0c9H, '0L0', 01fH, 'g', 085H, '_', 01aH, 090H, 08aH
	DB	'0g0o0j0D0(', 00H, '%', 00H, 'd', 00H, ')', 00H, 00H, 00H ; `string'
CONST	ENDS
;	COMDAT xdata
xdata	SEGMENT
$unwind$_EQUALS_MEMORY DD 025053901H
	DD	011d2322H
	DD	07016001dH
	DD	05015H
xdata	ENDS
;	COMDAT xdata
xdata	SEGMENT
$unwind$TEST_PMC_ModPow_X_X_X DD 025054a19H
	DD	011d2322H
	DD	070160083H
	DD	05015H
	DD	imagerel __GSHandlerCheck
	DD	0400H
xdata	ENDS
;	COMDAT CONST
CONST	SEGMENT
TEST_PMC_ModPow_X_X_X$rtcName$0 DB 076H
	DB	00H
	ORG $+2
TEST_PMC_ModPow_X_X_X$rtcName$1 DB 065H
	DB	00H
	ORG $+2
TEST_PMC_ModPow_X_X_X$rtcName$2 DB 06dH
	DB	00H
	ORG $+2
TEST_PMC_ModPow_X_X_X$rtcName$3 DB 072H
	DB	00H
	ORG $+2
TEST_PMC_ModPow_X_X_X$rtcName$4 DB 061H
	DB	063H
	DB	074H
	DB	075H
	DB	061H
	DB	06cH
	DB	05fH
	DB	072H
	DB	05fH
	DB	062H
	DB	075H
	DB	066H
	DB	00H
	ORG $+3
TEST_PMC_ModPow_X_X_X$rtcName$5 DB 061H
	DB	063H
	DB	074H
	DB	075H
	DB	061H
	DB	06cH
	DB	05fH
	DB	072H
	DB	05fH
	DB	062H
	DB	075H
	DB	066H
	DB	05fH
	DB	073H
	DB	069H
	DB	07aH
	DB	065H
	DB	00H
	ORG $+6
TEST_PMC_ModPow_X_X_X$rtcFrameData DD 06H
	DD	00H
	DQ	FLAT:TEST_PMC_ModPow_X_X_X$rtcVarDesc
	ORG $+8
TEST_PMC_ModPow_X_X_X$rtcVarDesc DD 01c8H
	DD	08H
	DQ	FLAT:TEST_PMC_ModPow_X_X_X$rtcName$5
	DD	0b0H
	DD	0100H
	DQ	FLAT:TEST_PMC_ModPow_X_X_X$rtcName$4
	DD	088H
	DD	08H
	DQ	FLAT:TEST_PMC_ModPow_X_X_X$rtcName$3
	DD	068H
	DD	08H
	DQ	FLAT:TEST_PMC_ModPow_X_X_X$rtcName$2
	DD	048H
	DD	08H
	DQ	FLAT:TEST_PMC_ModPow_X_X_X$rtcName$1
	DD	028H
	DD	08H
	DQ	FLAT:TEST_PMC_ModPow_X_X_X$rtcName$0
CONST	ENDS
; Function compile flags: /Odt
;	COMDAT __JustMyCode_Default
_TEXT	SEGMENT
__JustMyCode_Default PROC				; COMDAT
	ret	0
__JustMyCode_Default ENDP
_TEXT	ENDS
; Function compile flags: /Odtp /RTCsu /ZI
; File z:\sources\lunor\repos\rougemeilland\palmtree.math.core.uint\palmtree.math.core.uint\pmc_uint_debug.h
;	COMDAT _EQUALS_MEMORY
_TEXT	SEGMENT
buffer1$ = 224
count1$ = 232
buffer2$ = 240
count2$ = 248
_EQUALS_MEMORY PROC					; COMDAT

; 153  : {

	mov	QWORD PTR [rsp+32], r9
	mov	QWORD PTR [rsp+24], r8
	mov	QWORD PTR [rsp+16], rdx
	mov	QWORD PTR [rsp+8], rcx
	push	rbp
	push	rdi
	sub	rsp, 232				; 000000e8H
	lea	rbp, QWORD PTR [rsp+32]
	mov	rdi, rsp
	mov	ecx, 58					; 0000003aH
	mov	eax, -858993460				; ccccccccH
	rep stosd
	mov	rcx, QWORD PTR [rsp+264]
	lea	rcx, OFFSET FLAT:__630249ED_pmc_uint_debug@h
	call	__CheckForDebuggerJustMyCode

; 154  :     if (count1 != count2)

	mov	rax, QWORD PTR count2$[rbp]
	cmp	QWORD PTR count1$[rbp], rax
	je	SHORT $LN4@EQUALS_MEM

; 155  :         return (-1);

	mov	eax, -1
	jmp	SHORT $LN1@EQUALS_MEM
$LN4@EQUALS_MEM:
$LN2@EQUALS_MEM:

; 156  :     while (count1 > 0)

	cmp	QWORD PTR count1$[rbp], 0
	jbe	SHORT $LN3@EQUALS_MEM

; 157  :     {
; 158  :         if (*buffer1 != *buffer2)

	mov	rax, QWORD PTR buffer1$[rbp]
	movzx	eax, BYTE PTR [rax]
	mov	rcx, QWORD PTR buffer2$[rbp]
	movzx	ecx, BYTE PTR [rcx]
	cmp	eax, ecx
	je	SHORT $LN5@EQUALS_MEM

; 159  :             return (-1);

	mov	eax, -1
	jmp	SHORT $LN1@EQUALS_MEM
$LN5@EQUALS_MEM:

; 160  :         ++buffer1;

	mov	rax, QWORD PTR buffer1$[rbp]
	inc	rax
	mov	QWORD PTR buffer1$[rbp], rax

; 161  :         ++buffer2;

	mov	rax, QWORD PTR buffer2$[rbp]
	inc	rax
	mov	QWORD PTR buffer2$[rbp], rax

; 162  :         --count1;

	mov	rax, QWORD PTR count1$[rbp]
	dec	rax
	mov	QWORD PTR count1$[rbp], rax

; 163  :     }

	jmp	SHORT $LN2@EQUALS_MEM
$LN3@EQUALS_MEM:

; 164  :     return (0);

	xor	eax, eax
$LN1@EQUALS_MEM:

; 165  : }

	lea	rsp, QWORD PTR [rbp+200]
	pop	rdi
	pop	rbp
	ret	0
_EQUALS_MEMORY ENDP
_TEXT	ENDS
; Function compile flags: /Odtp /RTCsu /ZI
; File z:\sources\lunor\repos\rougemeilland\palmtree.math.core.uint\palmtree.math.core.uint\test_op_modpow.c
;	COMDAT TEST_PMC_ModPow_X_X_X
_TEXT	SEGMENT
v$ = 8
e$ = 40
m$ = 72
r$ = 104
actual_r_buf$ = 144
actual_r_buf_size$ = 424
result$ = 452
v_result$ = 484
e_result$ = 516
m_result$ = 548
r_result$ = 580
tv196 = 980
tv181 = 980
tv161 = 980
tv142 = 980
tv92 = 980
tv74 = 980
tv170 = 984
tv150 = 984
tv132 = 984
tv82 = 984
tv64 = 984
__$ArrayPad$ = 992
env$ = 1040
ep$ = 1048
no$ = 1056
v_buf$ = 1064
v_buf_size$ = 1072
e_buf$ = 1080
e_buf_size$ = 1088
m_buf$ = 1096
m_buf_size$ = 1104
desired_result_code$ = 1112
desired_r_buf$ = 1120
desired_r_buf_size$ = 1128
TEST_PMC_ModPow_X_X_X PROC				; COMDAT

; 33   : {

$LN20:
	mov	QWORD PTR [rsp+32], r9
	mov	DWORD PTR [rsp+24], r8d
	mov	QWORD PTR [rsp+16], rdx
	mov	QWORD PTR [rsp+8], rcx
	push	rbp
	push	rdi
	sub	rsp, 1048				; 00000418H
	lea	rbp, QWORD PTR [rsp+32]
	mov	rdi, rsp
	mov	ecx, 262				; 00000106H
	mov	eax, -858993460				; ccccccccH
	rep stosd
	mov	rcx, QWORD PTR [rsp+1080]
	mov	rax, QWORD PTR __security_cookie
	xor	rax, rbp
	mov	QWORD PTR __$ArrayPad$[rbp], rax
	lea	rcx, OFFSET FLAT:__C90C8F96_test_op_modpow@c
	call	__CheckForDebuggerJustMyCode

; 34   :     PMC_HANDLE_UINT v;
; 35   :     PMC_HANDLE_UINT e;
; 36   :     PMC_HANDLE_UINT m;
; 37   :     PMC_HANDLE_UINT r;
; 38   :     unsigned char actual_r_buf[256];
; 39   :     size_t actual_r_buf_size;
; 40   :     PMC_STATUS_CODE result;
; 41   :     PMC_STATUS_CODE v_result;
; 42   :     PMC_STATUS_CODE e_result;
; 43   :     PMC_STATUS_CODE m_result;
; 44   :     PMC_STATUS_CODE r_result;
; 45   :     TEST_Assert(env, FormatTestLabel(L"PMC_ModPow_X_X_X (%d.%d)", no, 1), (v_result = ep->FromByteArray(v_buf, v_buf_size, &v)) == PMC_STATUS_OK, FormatTestMesssage(L"PMC_FromByteArrayの復帰コードが期待通りではない(%d)", v_result));

	lea	r8, QWORD PTR v$[rbp]
	mov	rdx, QWORD PTR v_buf_size$[rbp]
	mov	rcx, QWORD PTR v_buf$[rbp]
	mov	rax, QWORD PTR ep$[rbp]
	call	QWORD PTR [rax+48]
	mov	DWORD PTR v_result$[rbp], eax
	cmp	DWORD PTR v_result$[rbp], 0
	jne	SHORT $LN8@TEST_PMC_M
	mov	DWORD PTR tv74[rbp], 1
	jmp	SHORT $LN9@TEST_PMC_M
$LN8@TEST_PMC_M:
	mov	DWORD PTR tv74[rbp], 0
$LN9@TEST_PMC_M:
	mov	edx, DWORD PTR v_result$[rbp]
	lea	rcx, OFFSET FLAT:??_C@_1EK@HDEICNAJ@?$AAP?$AAM?$AAC?$AA_?$AAF?$AAr?$AAo?$AAm?$AAB?$AAy?$AAt?$AAe?$AAA?$AAr?$AAr@
	call	FormatTestMesssage
	mov	QWORD PTR tv64[rbp], rax
	mov	r8d, 1
	mov	edx, DWORD PTR no$[rbp]
	lea	rcx, OFFSET FLAT:??_C@_1DC@MNNPJICE@?$AAP?$AAM?$AAC?$AA_?$AAM?$AAo?$AAd?$AAP?$AAo?$AAw?$AA_?$AAX?$AA_?$AAX?$AA_@
	call	FormatTestLabel
	mov	rcx, QWORD PTR tv64[rbp]
	mov	r9, rcx
	mov	r8d, DWORD PTR tv74[rbp]
	mov	rdx, rax
	mov	rcx, QWORD PTR env$[rbp]
	call	TEST_Assert

; 46   :     TEST_Assert(env, FormatTestLabel(L"PMC_ModPow_X_X_X (%d.%d)", no, 2), (e_result = ep->FromByteArray(e_buf, e_buf_size, &e)) == PMC_STATUS_OK, FormatTestMesssage(L"PMC_FromByteArrayの復帰コードが期待通りではない(%d)", e_result));

	lea	r8, QWORD PTR e$[rbp]
	mov	rdx, QWORD PTR e_buf_size$[rbp]
	mov	rcx, QWORD PTR e_buf$[rbp]
	mov	rax, QWORD PTR ep$[rbp]
	call	QWORD PTR [rax+48]
	mov	DWORD PTR e_result$[rbp], eax
	cmp	DWORD PTR e_result$[rbp], 0
	jne	SHORT $LN10@TEST_PMC_M
	mov	DWORD PTR tv92[rbp], 1
	jmp	SHORT $LN11@TEST_PMC_M
$LN10@TEST_PMC_M:
	mov	DWORD PTR tv92[rbp], 0
$LN11@TEST_PMC_M:
	mov	edx, DWORD PTR e_result$[rbp]
	lea	rcx, OFFSET FLAT:??_C@_1EK@HDEICNAJ@?$AAP?$AAM?$AAC?$AA_?$AAF?$AAr?$AAo?$AAm?$AAB?$AAy?$AAt?$AAe?$AAA?$AAr?$AAr@
	call	FormatTestMesssage
	mov	QWORD PTR tv82[rbp], rax
	mov	r8d, 2
	mov	edx, DWORD PTR no$[rbp]
	lea	rcx, OFFSET FLAT:??_C@_1DC@MNNPJICE@?$AAP?$AAM?$AAC?$AA_?$AAM?$AAo?$AAd?$AAP?$AAo?$AAw?$AA_?$AAX?$AA_?$AAX?$AA_@
	call	FormatTestLabel
	mov	rcx, QWORD PTR tv82[rbp]
	mov	r9, rcx
	mov	r8d, DWORD PTR tv92[rbp]
	mov	rdx, rax
	mov	rcx, QWORD PTR env$[rbp]
	call	TEST_Assert

; 47   :     TEST_Assert(env, FormatTestLabel(L"PMC_ModPow_X_X_X (%d.%d)", no, 3), (m_result = ep->FromByteArray(m_buf, m_buf_size, &m)) == PMC_STATUS_OK, FormatTestMesssage(L"PMC_FromByteArrayの復帰コードが期待通りではない(%d)", m_result));

	lea	r8, QWORD PTR m$[rbp]
	mov	rdx, QWORD PTR m_buf_size$[rbp]
	mov	rcx, QWORD PTR m_buf$[rbp]
	mov	rax, QWORD PTR ep$[rbp]
	call	QWORD PTR [rax+48]
	mov	DWORD PTR m_result$[rbp], eax
	cmp	DWORD PTR m_result$[rbp], 0
	jne	SHORT $LN12@TEST_PMC_M
	mov	DWORD PTR tv142[rbp], 1
	jmp	SHORT $LN13@TEST_PMC_M
$LN12@TEST_PMC_M:
	mov	DWORD PTR tv142[rbp], 0
$LN13@TEST_PMC_M:
	mov	edx, DWORD PTR m_result$[rbp]
	lea	rcx, OFFSET FLAT:??_C@_1EK@HDEICNAJ@?$AAP?$AAM?$AAC?$AA_?$AAF?$AAr?$AAo?$AAm?$AAB?$AAy?$AAt?$AAe?$AAA?$AAr?$AAr@
	call	FormatTestMesssage
	mov	QWORD PTR tv132[rbp], rax
	mov	r8d, 3
	mov	edx, DWORD PTR no$[rbp]
	lea	rcx, OFFSET FLAT:??_C@_1DC@MNNPJICE@?$AAP?$AAM?$AAC?$AA_?$AAM?$AAo?$AAd?$AAP?$AAo?$AAw?$AA_?$AAX?$AA_?$AAX?$AA_@
	call	FormatTestLabel
	mov	rcx, QWORD PTR tv132[rbp]
	mov	r9, rcx
	mov	r8d, DWORD PTR tv142[rbp]
	mov	rdx, rax
	mov	rcx, QWORD PTR env$[rbp]
	call	TEST_Assert

; 48   :     TEST_Assert(env, FormatTestLabel(L"PMC_ModPow_X_X_X (%d.%d)", no, 4), (r_result = ep->ModPow_X_X_X(v, e, m, &r)) == desired_result_code, FormatTestMesssage(L"PMC_ModPow_X_X_Xの復帰コードが期待通りではない(%d)", r_result));

	lea	r9, QWORD PTR r$[rbp]
	mov	r8, QWORD PTR m$[rbp]
	mov	rdx, QWORD PTR e$[rbp]
	mov	rcx, QWORD PTR v$[rbp]
	mov	rax, QWORD PTR ep$[rbp]
	call	QWORD PTR [rax+528]
	mov	DWORD PTR r_result$[rbp], eax
	mov	eax, DWORD PTR desired_result_code$[rbp]
	cmp	DWORD PTR r_result$[rbp], eax
	jne	SHORT $LN14@TEST_PMC_M
	mov	DWORD PTR tv161[rbp], 1
	jmp	SHORT $LN15@TEST_PMC_M
$LN14@TEST_PMC_M:
	mov	DWORD PTR tv161[rbp], 0
$LN15@TEST_PMC_M:
	mov	edx, DWORD PTR r_result$[rbp]
	lea	rcx, OFFSET FLAT:??_C@_1EI@JPNMBAGN@?$AAP?$AAM?$AAC?$AA_?$AAM?$AAo?$AAd?$AAP?$AAo?$AAw?$AA_?$AAX?$AA_?$AAX?$AA_@
	call	FormatTestMesssage
	mov	QWORD PTR tv150[rbp], rax
	mov	r8d, 4
	mov	edx, DWORD PTR no$[rbp]
	lea	rcx, OFFSET FLAT:??_C@_1DC@MNNPJICE@?$AAP?$AAM?$AAC?$AA_?$AAM?$AAo?$AAd?$AAP?$AAo?$AAw?$AA_?$AAX?$AA_?$AAX?$AA_@
	call	FormatTestLabel
	mov	rcx, QWORD PTR tv150[rbp]
	mov	r9, rcx
	mov	r8d, DWORD PTR tv161[rbp]
	mov	rdx, rax
	mov	rcx, QWORD PTR env$[rbp]
	call	TEST_Assert

; 49   :     if (desired_result_code == PMC_STATUS_OK)

	cmp	DWORD PTR desired_result_code$[rbp], 0
	jne	$LN2@TEST_PMC_M

; 50   :     {
; 51   :         TEST_Assert(env, FormatTestLabel(L"PMC_ModPow_X_X_X (%d.%d)", no, 5), (result = ep->ToByteArray(r, actual_r_buf, sizeof(actual_r_buf), &actual_r_buf_size)) == PMC_STATUS_OK, FormatTestMesssage(L"PMC_ToByteArrayの復帰コードが期待通りではない(%d)", result));

	lea	r9, QWORD PTR actual_r_buf_size$[rbp]
	mov	r8d, 256				; 00000100H
	lea	rdx, QWORD PTR actual_r_buf$[rbp]
	mov	rcx, QWORD PTR r$[rbp]
	mov	rax, QWORD PTR ep$[rbp]
	call	QWORD PTR [rax+56]
	mov	DWORD PTR result$[rbp], eax
	cmp	DWORD PTR result$[rbp], 0
	jne	SHORT $LN16@TEST_PMC_M
	mov	DWORD PTR tv181[rbp], 1
	jmp	SHORT $LN17@TEST_PMC_M
$LN16@TEST_PMC_M:
	mov	DWORD PTR tv181[rbp], 0
$LN17@TEST_PMC_M:
	mov	edx, DWORD PTR result$[rbp]
	lea	rcx, OFFSET FLAT:??_C@_1EG@MCOLJMDD@?$AAP?$AAM?$AAC?$AA_?$AAT?$AAo?$AAB?$AAy?$AAt?$AAe?$AAA?$AAr?$AAr?$AAa?$AAy@
	call	FormatTestMesssage
	mov	QWORD PTR tv170[rbp], rax
	mov	r8d, 5
	mov	edx, DWORD PTR no$[rbp]
	lea	rcx, OFFSET FLAT:??_C@_1DC@MNNPJICE@?$AAP?$AAM?$AAC?$AA_?$AAM?$AAo?$AAd?$AAP?$AAo?$AAw?$AA_?$AAX?$AA_?$AAX?$AA_@
	call	FormatTestLabel
	mov	rcx, QWORD PTR tv170[rbp]
	mov	r9, rcx
	mov	r8d, DWORD PTR tv181[rbp]
	mov	rdx, rax
	mov	rcx, QWORD PTR env$[rbp]
	call	TEST_Assert

; 52   :         TEST_Assert(env, FormatTestLabel(L"PMC_ModPow_X_X_X (%d.%d)", no, 6), _EQUALS_MEMORY(actual_r_buf, actual_r_buf_size, desired_r_buf, desired_r_buf_size) == 0, L"データの内容が一致しない");

	mov	r9, QWORD PTR desired_r_buf_size$[rbp]
	mov	r8, QWORD PTR desired_r_buf$[rbp]
	mov	rdx, QWORD PTR actual_r_buf_size$[rbp]
	lea	rcx, QWORD PTR actual_r_buf$[rbp]
	call	_EQUALS_MEMORY
	test	eax, eax
	jne	SHORT $LN18@TEST_PMC_M
	mov	DWORD PTR tv196[rbp], 1
	jmp	SHORT $LN19@TEST_PMC_M
$LN18@TEST_PMC_M:
	mov	DWORD PTR tv196[rbp], 0
$LN19@TEST_PMC_M:
	mov	r8d, 6
	mov	edx, DWORD PTR no$[rbp]
	lea	rcx, OFFSET FLAT:??_C@_1DC@MNNPJICE@?$AAP?$AAM?$AAC?$AA_?$AAM?$AAo?$AAd?$AAP?$AAo?$AAw?$AA_?$AAX?$AA_?$AAX?$AA_@
	call	FormatTestLabel
	lea	r9, OFFSET FLAT:??_C@_1BK@CBDJCOBM@?$PP?G?$PP?$PM?$PP?$LP?$AAn?$PP?$IF?$PP?$LJ?$AAL?$AA?$AA?$PP?t?$AAW?$AAj?$AAD@
	mov	r8d, DWORD PTR tv196[rbp]
	mov	rdx, rax
	mov	rcx, QWORD PTR env$[rbp]
	call	TEST_Assert
$LN2@TEST_PMC_M:

; 53   :     }
; 54   :     if (r_result == PMC_STATUS_OK)

	cmp	DWORD PTR r_result$[rbp], 0
	jne	SHORT $LN3@TEST_PMC_M

; 55   :         ep->Dispose(r);

	mov	rcx, QWORD PTR r$[rbp]
	mov	rax, QWORD PTR ep$[rbp]
	call	QWORD PTR [rax+32]
$LN3@TEST_PMC_M:

; 56   :     if (m_result == PMC_STATUS_OK)

	cmp	DWORD PTR m_result$[rbp], 0
	jne	SHORT $LN4@TEST_PMC_M

; 57   :         ep->Dispose(m);

	mov	rcx, QWORD PTR m$[rbp]
	mov	rax, QWORD PTR ep$[rbp]
	call	QWORD PTR [rax+32]
$LN4@TEST_PMC_M:

; 58   :     if (e_result == PMC_STATUS_OK)

	cmp	DWORD PTR e_result$[rbp], 0
	jne	SHORT $LN5@TEST_PMC_M

; 59   :         ep->Dispose(e);

	mov	rcx, QWORD PTR e$[rbp]
	mov	rax, QWORD PTR ep$[rbp]
	call	QWORD PTR [rax+32]
$LN5@TEST_PMC_M:

; 60   :     if (v_result == PMC_STATUS_OK)

	cmp	DWORD PTR v_result$[rbp], 0
	jne	SHORT $LN6@TEST_PMC_M

; 61   :         ep->Dispose(v);

	mov	rcx, QWORD PTR v$[rbp]
	mov	rax, QWORD PTR ep$[rbp]
	call	QWORD PTR [rax+32]
$LN6@TEST_PMC_M:

; 62   : }

	lea	rcx, QWORD PTR [rbp-32]
	lea	rdx, OFFSET FLAT:TEST_PMC_ModPow_X_X_X$rtcFrameData
	call	_RTC_CheckStackVars
	mov	rcx, QWORD PTR __$ArrayPad$[rbp]
	xor	rcx, rbp
	call	__security_check_cookie
	lea	rsp, QWORD PTR [rbp+1016]
	pop	rdi
	pop	rbp
	ret	0
TEST_PMC_ModPow_X_X_X ENDP
_TEXT	ENDS
END
