	.file	"pmc_parse.c"
	.text
.Ltext0:
	.cfi_sections	.debug_frame
	.def	IncrementMULTI64Counter;	.scl	3;	.type	32;	.endef
	.seh_proc	IncrementMULTI64Counter
IncrementMULTI64Counter:
.LFB4276:
	.file 1 "../pmc_uint_internal.h"
	.loc 1 366 5
	.cfi_startproc
	pushq	%rbp
	.seh_pushreg	%rbp
	.cfi_def_cfa_offset 16
	.cfi_offset 6, -16
	movq	%rsp, %rbp
	.seh_setframe	%rbp, 0
	.cfi_def_cfa_register 6
	subq	$16, %rsp
	.seh_stackalloc	16
	.seh_endprologue
	movq	.refptr.statistics_info(%rip), %rax
	movq	%rax, -8(%rbp)
.LBB14:
.LBB15:
	.file 2 "C:/GNU/MINGW64/x86_64-8.1.0-win32-seh-rt_v6-rev0/mingw64/x86_64-w64-mingw32/include/psdk_inc/intrin-impl.h"
	.loc 2 1343 11
	movq	-8(%rbp), %rax
	movl	$1, %edx
	lock xaddl	%edx, (%rax)
.LBE15:
.LBE14:
	.loc 1 368 5
	nop
	addq	$16, %rsp
	popq	%rbp
	.cfi_restore 6
	.cfi_def_cfa 7, 8
	ret
	.cfi_endproc
.LFE4276:
	.seh_endproc
	.def	AddToMULTI64Counter;	.scl	3;	.type	32;	.endef
	.seh_proc	AddToMULTI64Counter
AddToMULTI64Counter:
.LFB4280:
	.loc 1 389 5
	.cfi_startproc
	pushq	%rbp
	.seh_pushreg	%rbp
	.cfi_def_cfa_offset 16
	.cfi_offset 6, -16
	movq	%rsp, %rbp
	.seh_setframe	%rbp, 0
	.cfi_def_cfa_register 6
	subq	$16, %rsp
	.seh_stackalloc	16
	.seh_endprologue
	movl	%ecx, 16(%rbp)
	movq	.refptr.statistics_info(%rip), %rax
	movq	%rax, -8(%rbp)
	movl	16(%rbp), %eax
	movl	%eax, -12(%rbp)
.LBB16:
.LBB17:
	.loc 2 1321 12
	movl	-12(%rbp), %edx
	movq	-8(%rbp), %rax
	lock xaddl	%edx, (%rax)
.LBE17:
.LBE16:
	.loc 1 391 5
	nop
	addq	$16, %rsp
	popq	%rbp
	.cfi_restore 6
	.cfi_def_cfa 7, 8
	ret
	.cfi_endproc
.LFE4280:
	.seh_endproc
	.def	_COPY_MEMORY_UNIT;	.scl	3;	.type	32;	.endef
	.seh_proc	_COPY_MEMORY_UNIT
_COPY_MEMORY_UNIT:
.LFB4321:
	.file 3 "../pmc_inline_func.h"
	.loc 3 60 5
	.cfi_startproc
	pushq	%rbp
	.seh_pushreg	%rbp
	.cfi_def_cfa_offset 16
	.cfi_offset 6, -16
	pushq	%rdi
	.seh_pushreg	%rdi
	.cfi_def_cfa_offset 24
	.cfi_offset 5, -24
	pushq	%rsi
	.seh_pushreg	%rsi
	.cfi_def_cfa_offset 32
	.cfi_offset 4, -32
	movq	%rsp, %rbp
	.seh_setframe	%rbp, 0
	.cfi_def_cfa_register 6
	subq	$32, %rsp
	.seh_stackalloc	32
	.seh_endprologue
	movq	%rcx, 32(%rbp)
	movq	%rdx, 40(%rbp)
	movq	%r8, 48(%rbp)
	movq	32(%rbp), %rax
	movq	%rax, -8(%rbp)
	movq	40(%rbp), %rax
	movq	%rax, -16(%rbp)
	movq	48(%rbp), %rax
	movq	%rax, -24(%rbp)
.LBB18:
.LBB19:
	.loc 2 952 97
	movq	-8(%rbp), %rcx
	movq	-16(%rbp), %rdx
	movq	-24(%rbp), %rax
	movq	%rcx, %r8
	movq	%r8, %rdi
	movq	%rdx, %rsi
	movq	%rax, %rcx
/APP
 # 952 "C:/GNU/MINGW64/x86_64-8.1.0-win32-seh-rt_v6-rev0/mingw64/x86_64-w64-mingw32/include/psdk_inc/intrin-impl.h" 1
	rep movsq
 # 0 "" 2
/NO_APP
	movq	%rcx, %rax
	movq	%rsi, %rdx
	movq	%rdi, %r8
	movq	%r8, -8(%rbp)
	movq	%rdx, -16(%rbp)
	movq	%rax, -24(%rbp)
.LBE19:
.LBE18:
	.loc 3 68 5
	nop
	addq	$32, %rsp
	popq	%rsi
	.cfi_restore 4
	popq	%rdi
	.cfi_restore 5
	popq	%rbp
	.cfi_restore 6
	.cfi_def_cfa 7, 24
	ret
	.cfi_endproc
.LFE4321:
	.seh_endproc
	.def	_DIVIDE_CEILING_UNIT;	.scl	3;	.type	32;	.endef
	.seh_proc	_DIVIDE_CEILING_UNIT
_DIVIDE_CEILING_UNIT:
.LFB4337:
	.loc 3 187 5
	.cfi_startproc
	pushq	%rbp
	.seh_pushreg	%rbp
	.cfi_def_cfa_offset 16
	.cfi_offset 6, -16
	movq	%rsp, %rbp
	.seh_setframe	%rbp, 0
	.cfi_def_cfa_register 6
	.seh_endprologue
	movq	%rcx, 16(%rbp)
	movq	%rdx, 24(%rbp)
	.loc 3 188 20
	movq	16(%rbp), %rdx
	movq	24(%rbp), %rax
	addq	%rdx, %rax
	.loc 3 188 24
	subq	$1, %rax
	.loc 3 188 29
	movl	$0, %edx
	divq	24(%rbp)
	.loc 3 189 5
	popq	%rbp
	.cfi_restore 6
	.cfi_def_cfa 7, 8
	ret
	.cfi_endproc
.LFE4337:
	.seh_endproc
	.def	_DIVIDE_CEILING_SIZE;	.scl	3;	.type	32;	.endef
	.seh_proc	_DIVIDE_CEILING_SIZE
_DIVIDE_CEILING_SIZE:
.LFB4338:
	.loc 3 192 5
	.cfi_startproc
	pushq	%rbp
	.seh_pushreg	%rbp
	.cfi_def_cfa_offset 16
	.cfi_offset 6, -16
	movq	%rsp, %rbp
	.seh_setframe	%rbp, 0
	.cfi_def_cfa_register 6
	.seh_endprologue
	movq	%rcx, 16(%rbp)
	movq	%rdx, 24(%rbp)
	.loc 3 193 20
	movq	16(%rbp), %rdx
	movq	24(%rbp), %rax
	addq	%rdx, %rax
	.loc 3 193 24
	subq	$1, %rax
	.loc 3 193 29
	movl	$0, %edx
	divq	24(%rbp)
	.loc 3 194 5
	popq	%rbp
	.cfi_restore 6
	.cfi_def_cfa 7, 8
	ret
	.cfi_endproc
.LFE4338:
	.seh_endproc
	.def	_ADD_UNIT;	.scl	3;	.type	32;	.endef
	.seh_proc	_ADD_UNIT
_ADD_UNIT:
.LFB4341:
	.loc 3 207 5
	.cfi_startproc
	pushq	%rbp
	.seh_pushreg	%rbp
	.cfi_def_cfa_offset 16
	.cfi_offset 6, -16
	movq	%rsp, %rbp
	.seh_setframe	%rbp, 0
	.cfi_def_cfa_register 6
	subq	$32, %rsp
	.seh_stackalloc	32
	.seh_endprologue
	movl	%ecx, %eax
	movq	%rdx, 24(%rbp)
	movq	%r8, 32(%rbp)
	movq	%r9, 40(%rbp)
	movb	%al, 16(%rbp)
	.loc 3 211 17
	movzbl	16(%rbp), %eax
	movzbl	%al, %eax
	movb	%al, -1(%rbp)
	movq	24(%rbp), %rax
	movq	%rax, -16(%rbp)
	movq	32(%rbp), %rax
	movq	%rax, -24(%rbp)
	movq	40(%rbp), %rax
	movq	%rax, -32(%rbp)
.LBB20:
.LBB21:
	.file 4 "C:/GNU/MINGW64/x86_64-8.1.0-win32-seh-rt_v6-rev0/mingw64/lib/gcc/x86_64-w64-mingw32/8.1.0/include/adxintrin.h"
	.loc 4 69 10
	movzbl	-1(%rbp), %eax
	movl	%eax, %r8d
	movq	-16(%rbp), %rcx
	movq	-24(%rbp), %rax
	movq	-32(%rbp), %rdx
	addb	$-1, %r8b
	adcq	%rcx, %rax
	setc	%cl
	movq	%rax, (%rdx)
.LBE21:
.LBE20:
	.loc 3 211 17
	movl	%ecx, %eax
	.loc 3 215 5
	addq	$32, %rsp
	popq	%rbp
	.cfi_restore 6
	.cfi_def_cfa 7, 8
	ret
	.cfi_endproc
.LFE4341:
	.seh_endproc
	.def	_ADDX_UNIT;	.scl	3;	.type	32;	.endef
	.seh_proc	_ADDX_UNIT
_ADDX_UNIT:
.LFB4343:
	.loc 3 235 5
	.cfi_startproc
	pushq	%rbp
	.seh_pushreg	%rbp
	.cfi_def_cfa_offset 16
	.cfi_offset 6, -16
	movq	%rsp, %rbp
	.seh_setframe	%rbp, 0
	.cfi_def_cfa_register 6
	subq	$32, %rsp
	.seh_stackalloc	32
	.seh_endprologue
	movl	%ecx, %eax
	movq	%rdx, 24(%rbp)
	movq	%r8, 32(%rbp)
	movq	%r9, 40(%rbp)
	movb	%al, 16(%rbp)
	.loc 3 239 17
	movzbl	16(%rbp), %eax
	movzbl	%al, %eax
	movb	%al, -1(%rbp)
	movq	24(%rbp), %rax
	movq	%rax, -16(%rbp)
	movq	32(%rbp), %rax
	movq	%rax, -24(%rbp)
	movq	40(%rbp), %rax
	movq	%rax, -32(%rbp)
.LBB22:
.LBB23:
	.loc 4 77 10
	movzbl	-1(%rbp), %eax
	movl	%eax, %r8d
	movq	-16(%rbp), %rcx
	movq	-24(%rbp), %rax
	movq	-32(%rbp), %rdx
	addb	$-1, %r8b
	adcq	%rcx, %rax
	setc	%cl
	movq	%rax, (%rdx)
.LBE23:
.LBE22:
	.loc 3 239 17
	movl	%ecx, %eax
	.loc 3 243 5
	addq	$32, %rsp
	popq	%rbp
	.cfi_restore 6
	.cfi_def_cfa 7, 8
	ret
	.cfi_endproc
.LFE4343:
	.seh_endproc
	.def	_MULTIPLY_UNIT;	.scl	3;	.type	32;	.endef
	.seh_proc	_MULTIPLY_UNIT
_MULTIPLY_UNIT:
.LFB4347:
	.loc 3 291 5
	.cfi_startproc
	pushq	%rbp
	.seh_pushreg	%rbp
	.cfi_def_cfa_offset 16
	.cfi_offset 6, -16
	pushq	%r12
	.seh_pushreg	%r12
	.cfi_def_cfa_offset 24
	.cfi_offset 12, -24
	subq	$56, %rsp
	.seh_stackalloc	56
	.cfi_def_cfa_offset 80
	leaq	128(%rsp), %rbp
	.seh_setframe	%rbp, 128
	.cfi_def_cfa 6, -48
	.seh_endprologue
	movq	%rcx, -48(%rbp)
	movq	%rdx, -40(%rbp)
	movq	%r8, -32(%rbp)
	movq	-48(%rbp), %rax
	movq	%rax, -88(%rbp)
	movq	-40(%rbp), %rax
	movq	%rax, -96(%rbp)
	movq	-32(%rbp), %rax
	movq	%rax, -104(%rbp)
.LBB24:
.LBB25:
	.loc 2 964 10
	movq	-88(%rbp), %rax
	movq	%rax, %r11
	movl	$0, %r12d
	movq	%r11, -128(%rbp)
	movq	%r12, -120(%rbp)
	.loc 2 965 10
	movq	-128(%rbp), %rax
	movq	-120(%rbp), %rdx
	movq	-96(%rbp), %rcx
	movq	%rcx, %r9
	movl	$0, %r10d
	movq	%rdx, %r8
	imulq	%r9, %r8
	movq	%r10, %rcx
	imulq	%rax, %rcx
	addq	%r8, %rcx
	mulq	%r9
	addq	%rdx, %rcx
	movq	%rcx, %rdx
	movq	%rax, -128(%rbp)
	movq	%rdx, -120(%rbp)
	.loc 2 966 7
	cmpq	$0, -104(%rbp)
	je	.L17
	.loc 2 966 24
	movq	-120(%rbp), %rdx
	.loc 2 966 16
	movq	-104(%rbp), %rax
	movq	%rdx, (%rax)
.L17:
	.loc 2 967 17
	movq	-128(%rbp), %rax
.LBE25:
.LBE24:
	.loc 3 307 5
	addq	$56, %rsp
	popq	%r12
	.cfi_restore 12
	popq	%rbp
	.cfi_restore 6
	.cfi_def_cfa 7, -40
	ret
	.cfi_endproc
.LFE4347:
	.seh_endproc
	.def	_MULTIPLYX_UNIT;	.scl	3;	.type	32;	.endef
	.seh_proc	_MULTIPLYX_UNIT
_MULTIPLYX_UNIT:
.LFB4349:
	.loc 3 329 5
	.cfi_startproc
	pushq	%rbp
	.seh_pushreg	%rbp
	.cfi_def_cfa_offset 16
	.cfi_offset 6, -16
	movq	%rsp, %rbp
	.seh_setframe	%rbp, 0
	.cfi_def_cfa_register 6
	subq	$16, %rsp
	.seh_stackalloc	16
	.seh_endprologue
	movq	%rcx, 16(%rbp)
	movq	%rdx, 24(%rbp)
	movq	%r8, 32(%rbp)
	.loc 3 345 9
	movq	16(%rbp), %rax
	movq	%rax, %rdx
/APP
 # 345 "../pmc_inline_func.h" 1
	mulxq 24(%rbp), %r8, %rcx
 # 0 "" 2
/NO_APP
	movq	%rdx, %rax
	movq	%r8, -8(%rbp)
	movq	32(%rbp), %rdx
	movq	%rcx, (%rdx)
	movq	%rax, 16(%rbp)
	.loc 3 346 16
	movq	-8(%rbp), %rax
	.loc 3 353 5
	addq	$16, %rsp
	popq	%rbp
	.cfi_restore 6
	.cfi_def_cfa 7, 8
	ret
	.cfi_endproc
.LFE4349:
	.seh_endproc
.lcomm default_number_format_option,176,32
.lcomm fp_MultiplyAndAdd,8,8
	.def	StartsWith;	.scl	3;	.type	32;	.endef
	.seh_proc	StartsWith
StartsWith:
.LFB4375:
	.file 5 "../pmc_parse.c"
	.loc 5 57 1
	.cfi_startproc
	pushq	%rbp
	.seh_pushreg	%rbp
	.cfi_def_cfa_offset 16
	.cfi_offset 6, -16
	movq	%rsp, %rbp
	.seh_setframe	%rbp, 0
	.cfi_def_cfa_register 6
	.seh_endprologue
	movq	%rcx, 16(%rbp)
	movq	%rdx, 24(%rbp)
	.loc 5 58 11
	jmp	.L23
.L26:
	.loc 5 60 13
	movq	16(%rbp), %rax
	movzwl	(%rax), %edx
	.loc 5 60 19
	movq	24(%rbp), %rax
	movzwl	(%rax), %eax
	.loc 5 60 12
	cmpw	%ax, %dx
	je	.L24
	.loc 5 61 20
	movl	$0, %eax
	jmp	.L25
.L24:
	.loc 5 62 9
	addq	$2, 16(%rbp)
	.loc 5 63 9
	addq	$2, 24(%rbp)
.L23:
	.loc 5 58 12
	movq	24(%rbp), %rax
	movzwl	(%rax), %eax
	.loc 5 58 11
	testw	%ax, %ax
	jne	.L26
	.loc 5 65 12
	movl	$1, %eax
.L25:
	.loc 5 66 1
	popq	%rbp
	.cfi_restore 6
	.cfi_def_cfa 7, 8
	ret
	.cfi_endproc
.LFE4375:
	.seh_endproc
	.def	InitializeParserState;	.scl	3;	.type	32;	.endef
	.seh_proc	InitializeParserState
InitializeParserState:
.LFB4376:
	.loc 5 69 1
	.cfi_startproc
	pushq	%rbp
	.seh_pushreg	%rbp
	.cfi_def_cfa_offset 16
	.cfi_offset 6, -16
	movq	%rsp, %rbp
	.seh_setframe	%rbp, 0
	.cfi_def_cfa_register 6
	subq	$32, %rsp
	.seh_stackalloc	32
	.seh_endprologue
	movq	%rcx, 16(%rbp)
	movq	%rdx, 24(%rbp)
	movl	%r8d, 32(%rbp)
	movq	%r9, 40(%rbp)
	.loc 5 70 19
	movq	16(%rbp), %rax
	movq	24(%rbp), %rdx
	movq	%rdx, (%rax)
	.loc 5 71 26
	movq	16(%rbp), %rax
	movl	32(%rbp), %edx
	movl	%edx, 8(%rax)
	.loc 5 72 17
	movq	16(%rbp), %rax
	movb	$0, 12(%rax)
	.loc 5 73 51
	movq	40(%rbp), %rax
	leaq	144(%rax), %rdx
	.loc 5 73 19
	movq	16(%rbp), %rax
	addq	$14, %rax
	.loc 5 73 5
	movq	%rax, %rcx
	movq	__imp_lstrcpyW(%rip), %rax
	call	*%rax
.LVL0:
	.loc 5 74 51
	movq	16(%rbp), %rax
	addq	$14, %rax
	.loc 5 74 37
	movq	%rax, %rcx
	movq	__imp_lstrlenW(%rip), %rax
	call	*%rax
.LVL1:
	movl	%eax, %edx
	.loc 5 74 35
	movq	16(%rbp), %rax
	movl	%edx, 20(%rax)
	.loc 5 75 49
	movq	40(%rbp), %rax
	leaq	156(%rax), %rdx
	.loc 5 75 19
	movq	16(%rbp), %rax
	addq	$24, %rax
	.loc 5 75 5
	movq	%rax, %rcx
	movq	__imp_lstrcpyW(%rip), %rax
	call	*%rax
.LVL2:
	.loc 5 76 49
	movq	16(%rbp), %rax
	addq	$24, %rax
	.loc 5 76 35
	movq	%rax, %rcx
	movq	__imp_lstrlenW(%rip), %rax
	call	*%rax
.LVL3:
	movl	%eax, %edx
	.loc 5 76 33
	movq	16(%rbp), %rax
	movl	%edx, 32(%rax)
	.loc 5 77 49
	movq	40(%rbp), %rax
	leaq	150(%rax), %rdx
	.loc 5 77 19
	movq	16(%rbp), %rax
	addq	$36, %rax
	.loc 5 77 5
	movq	%rax, %rcx
	movq	__imp_lstrcpyW(%rip), %rax
	call	*%rax
.LVL4:
	.loc 5 78 49
	movq	16(%rbp), %rax
	addq	$36, %rax
	.loc 5 78 35
	movq	%rax, %rcx
	movq	__imp_lstrlenW(%rip), %rax
	call	*%rax
.LVL5:
	movl	%eax, %edx
	.loc 5 78 33
	movq	16(%rbp), %rax
	movl	%edx, 44(%rax)
	.loc 5 79 54
	movl	32(%rbp), %eax
	andl	$256, %eax
	.loc 5 79 5
	testl	%eax, %eax
	je	.L28
	.loc 5 79 5 is_stmt 0 discriminator 1
	movq	40(%rbp), %rax
	addq	$4, %rax
	jmp	.L29
.L28:
	.loc 5 79 5 discriminator 2
	movq	40(%rbp), %rax
	addq	$52, %rax
.L29:
	.loc 5 79 19 is_stmt 1 discriminator 4
	movq	16(%rbp), %rdx
	leaq	48(%rdx), %rcx
	.loc 5 79 5 discriminator 4
	movq	%rax, %rdx
	movq	__imp_lstrcpyW(%rip), %rax
	call	*%rax
.LVL6:
	.loc 5 80 53 discriminator 4
	movq	16(%rbp), %rax
	addq	$48, %rax
	.loc 5 80 39 discriminator 4
	movq	%rax, %rcx
	movq	__imp_lstrlenW(%rip), %rax
	call	*%rax
.LVL7:
	movl	%eax, %edx
	.loc 5 80 37 discriminator 4
	movq	16(%rbp), %rax
	movl	%edx, 56(%rax)
	.loc 5 81 52 discriminator 4
	movl	32(%rbp), %eax
	andl	$256, %eax
	.loc 5 81 5 discriminator 4
	testl	%eax, %eax
	je	.L30
	.loc 5 81 5 is_stmt 0 discriminator 1
	movq	40(%rbp), %rax
	addq	$10, %rax
	jmp	.L31
.L30:
	.loc 5 81 5 discriminator 2
	movq	40(%rbp), %rax
	addq	$58, %rax
.L31:
	.loc 5 81 19 is_stmt 1 discriminator 4
	movq	16(%rbp), %rdx
	leaq	60(%rdx), %rcx
	.loc 5 81 5 discriminator 4
	movq	%rax, %rdx
	movq	__imp_lstrcpyW(%rip), %rax
	call	*%rax
.LVL8:
	.loc 5 82 51 discriminator 4
	movq	16(%rbp), %rax
	addq	$60, %rax
	.loc 5 82 37 discriminator 4
	movq	%rax, %rcx
	movq	__imp_lstrlenW(%rip), %rax
	call	*%rax
.LVL9:
	movl	%eax, %edx
	.loc 5 82 35 discriminator 4
	movq	16(%rbp), %rax
	movl	%edx, 68(%rax)
	.loc 5 83 31 discriminator 4
	movq	16(%rbp), %rax
	movzwl	60(%rax), %eax
	.loc 5 83 8 discriminator 4
	cmpw	$160, %ax
	jne	.L32
	.loc 5 83 71 discriminator 1
	movq	16(%rbp), %rax
	movzwl	62(%rax), %eax
	.loc 5 83 46 discriminator 1
	testw	%ax, %ax
	jne	.L32
	.loc 5 85 45
	movq	16(%rbp), %rax
	movw	$32, 72(%rax)
	.loc 5 86 45
	movq	16(%rbp), %rax
	movw	$0, 74(%rax)
	.loc 5 87 49
	movq	16(%rbp), %rax
	movl	$1, 80(%rax)
	jmp	.L33
.L32:
	.loc 5 91 45
	movq	16(%rbp), %rax
	movw	$0, 72(%rax)
	.loc 5 92 49
	movq	16(%rbp), %rax
	movl	$0, 80(%rax)
.L33:
	.loc 5 94 25
	movq	16(%rbp), %rax
	movq	48(%rbp), %rdx
	movq	%rdx, 88(%rax)
	.loc 5 95 26
	movq	16(%rbp), %rax
	movq	56(%rbp), %rdx
	movq	%rdx, 96(%rax)
	.loc 5 96 1
	nop
	addq	$32, %rsp
	popq	%rbp
	.cfi_restore 6
	.cfi_def_cfa 7, 8
	ret
	.cfi_endproc
.LFE4376:
	.seh_endproc
	.def	FinalizeParserState;	.scl	3;	.type	32;	.endef
	.seh_proc	FinalizeParserState
FinalizeParserState:
.LFB4377:
	.loc 5 99 1
	.cfi_startproc
	pushq	%rbp
	.seh_pushreg	%rbp
	.cfi_def_cfa_offset 16
	.cfi_offset 6, -16
	movq	%rsp, %rbp
	.seh_setframe	%rbp, 0
	.cfi_def_cfa_register 6
	.seh_endprologue
	movq	%rcx, 16(%rbp)
	.loc 5 100 11
	movq	16(%rbp), %rax
	movq	88(%rax), %rax
	.loc 5 100 26
	movw	$0, (%rax)
	.loc 5 101 14
	movq	16(%rbp), %rax
	movl	8(%rax), %eax
	.loc 5 101 30
	andl	$32, %eax
	.loc 5 101 8
	testl	%eax, %eax
	je	.L36
	.loc 5 102 15
	movq	16(%rbp), %rax
	movq	96(%rax), %rax
	.loc 5 102 31
	movw	$0, (%rax)
.L36:
	.loc 5 103 1
	nop
	popq	%rbp
	.cfi_restore 6
	.cfi_def_cfa 7, 8
	ret
	.cfi_endproc
.LFE4377:
	.seh_endproc
	.def	SkipSpace;	.scl	3;	.type	32;	.endef
	.seh_proc	SkipSpace
SkipSpace:
.LFB4378:
	.loc 5 107 1
	.cfi_startproc
	pushq	%rbp
	.seh_pushreg	%rbp
	.cfi_def_cfa_offset 16
	.cfi_offset 6, -16
	movq	%rsp, %rbp
	.seh_setframe	%rbp, 0
	.cfi_def_cfa_register 6
	.seh_endprologue
	movq	%rcx, 16(%rbp)
.L42:
	.loc 5 110 23
	movq	16(%rbp), %rax
	movq	(%rax), %rax
	.loc 5 110 17
	movzwl	(%rax), %eax
	movzwl	%ax, %eax
	cmpl	$9, %eax
	jl	.L43
	cmpl	$13, %eax
	jle	.L44
	cmpl	$32, %eax
	jne	.L43
.L44:
	.loc 5 118 13
	nop
	.loc 5 123 23
	movq	16(%rbp), %rax
	movq	(%rax), %rax
	leaq	2(%rax), %rdx
	movq	16(%rbp), %rax
	movq	%rdx, (%rax)
	.loc 5 110 9
	jmp	.L42
.L43:
	.loc 5 121 13
	nop
	.loc 5 125 1
	popq	%rbp
	.cfi_restore 6
	.cfi_def_cfa 7, 8
	ret
	.cfi_endproc
.LFE4378:
	.seh_endproc
	.def	ParseDecimalDigit;	.scl	3;	.type	32;	.endef
	.seh_proc	ParseDecimalDigit
ParseDecimalDigit:
.LFB4379:
	.loc 5 128 1
	.cfi_startproc
	pushq	%rbp
	.seh_pushreg	%rbp
	.cfi_def_cfa_offset 16
	.cfi_offset 6, -16
	movq	%rsp, %rbp
	.seh_setframe	%rbp, 0
	.cfi_def_cfa_register 6
	.seh_endprologue
	movl	%ecx, %eax
	movw	%ax, 16(%rbp)
	.loc 5 129 8
	cmpw	$47, 16(%rbp)
	jbe	.L46
	.loc 5 129 19 discriminator 1
	cmpw	$57, 16(%rbp)
	ja	.L46
	.loc 5 130 19
	movzwl	16(%rbp), %eax
	subl	$48, %eax
	jmp	.L47
.L46:
	.loc 5 131 12
	movl	$-1, %eax
.L47:
	.loc 5 132 1
	popq	%rbp
	.cfi_restore 6
	.cfi_def_cfa 7, 8
	ret
	.cfi_endproc
.LFE4379:
	.seh_endproc
	.def	ParseHexDigit;	.scl	3;	.type	32;	.endef
	.seh_proc	ParseHexDigit
ParseHexDigit:
.LFB4380:
	.loc 5 135 1
	.cfi_startproc
	pushq	%rbp
	.seh_pushreg	%rbp
	.cfi_def_cfa_offset 16
	.cfi_offset 6, -16
	movq	%rsp, %rbp
	.seh_setframe	%rbp, 0
	.cfi_def_cfa_register 6
	.seh_endprologue
	movl	%ecx, %eax
	movw	%ax, 16(%rbp)
	.loc 5 136 8
	cmpw	$47, 16(%rbp)
	jbe	.L49
	.loc 5 136 19 discriminator 1
	cmpw	$57, 16(%rbp)
	ja	.L49
	.loc 5 137 19
	movzwl	16(%rbp), %eax
	subl	$48, %eax
	jmp	.L50
.L49:
	.loc 5 139 8
	cmpw	$96, 16(%rbp)
	jbe	.L51
	.loc 5 139 19 discriminator 1
	cmpw	$102, 16(%rbp)
	ja	.L51
	.loc 5 140 26
	movzwl	16(%rbp), %eax
	subl	$87, %eax
	jmp	.L50
.L51:
	.loc 5 142 8
	cmpw	$64, 16(%rbp)
	jbe	.L52
	.loc 5 142 19 discriminator 1
	cmpw	$70, 16(%rbp)
	ja	.L52
	.loc 5 143 26
	movzwl	16(%rbp), %eax
	subl	$55, %eax
	jmp	.L50
.L52:
	.loc 5 144 12
	movl	$-1, %eax
.L50:
	.loc 5 145 1
	popq	%rbp
	.cfi_restore 6
	.cfi_def_cfa 7, 8
	ret
	.cfi_endproc
.LFE4380:
	.seh_endproc
	.def	ParseAsIntegerPartNumberSequence;	.scl	3;	.type	32;	.endef
	.seh_proc	ParseAsIntegerPartNumberSequence
ParseAsIntegerPartNumberSequence:
.LFB4381:
	.loc 5 148 1
	.cfi_startproc
	pushq	%rbp
	.seh_pushreg	%rbp
	.cfi_def_cfa_offset 16
	.cfi_offset 6, -16
	movq	%rsp, %rbp
	.seh_setframe	%rbp, 0
	.cfi_def_cfa_register 6
	subq	$32, %rsp
	.seh_stackalloc	32
	.seh_endprologue
	movq	%rcx, 16(%rbp)
.L59:
	.loc 5 151 37
	movq	16(%rbp), %rax
	movq	(%rax), %rax
	.loc 5 151 31
	movzwl	(%rax), %eax
	.loc 5 151 13
	movzwl	%ax, %eax
	movl	%eax, %ecx
	call	ParseDecimalDigit
	.loc 5 151 12
	testl	%eax, %eax
	js	.L54
	.loc 5 153 42
	movq	16(%rbp), %rax
	movq	(%rax), %rdx
	.loc 5 153 19
	movq	16(%rbp), %rax
	movq	88(%rax), %rax
	.loc 5 153 36
	movzwl	(%rdx), %edx
	.loc 5 153 34
	movw	%dx, (%rax)
	.loc 5 154 33
	movq	16(%rbp), %rax
	movq	88(%rax), %rax
	leaq	2(%rax), %rdx
	movq	16(%rbp), %rax
	movq	%rdx, 88(%rax)
	.loc 5 155 27
	movq	16(%rbp), %rax
	movq	(%rax), %rax
	leaq	2(%rax), %rdx
	movq	16(%rbp), %rax
	movq	%rdx, (%rax)
	jmp	.L59
.L54:
	.loc 5 157 23
	movq	16(%rbp), %rax
	movl	8(%rax), %eax
	.loc 5 157 39
	andl	$512, %eax
	.loc 5 157 17
	testl	%eax, %eax
	je	.L56
	.loc 5 157 73 discriminator 1
	movq	16(%rbp), %rax
	movq	(%rax), %rax
	.loc 5 157 67 discriminator 1
	movzwl	(%rax), %eax
	.loc 5 157 53 discriminator 1
	movzwl	%ax, %eax
	movl	%eax, %ecx
	call	ParseHexDigit
	.loc 5 157 50 discriminator 1
	testl	%eax, %eax
	js	.L56
	.loc 5 159 42
	movq	16(%rbp), %rax
	movq	(%rax), %rdx
	.loc 5 159 19
	movq	16(%rbp), %rax
	movq	88(%rax), %rax
	.loc 5 159 36
	movzwl	(%rdx), %edx
	.loc 5 159 34
	movw	%dx, (%rax)
	.loc 5 160 33
	movq	16(%rbp), %rax
	movq	88(%rax), %rax
	leaq	2(%rax), %rdx
	movq	16(%rbp), %rax
	movq	%rdx, 88(%rax)
	.loc 5 161 27
	movq	16(%rbp), %rax
	movq	(%rax), %rax
	leaq	2(%rax), %rdx
	movq	16(%rbp), %rax
	movq	%rdx, (%rax)
	jmp	.L55
.L56:
	.loc 5 163 23
	movq	16(%rbp), %rax
	movl	8(%rax), %eax
	.loc 5 163 39
	andl	$64, %eax
	.loc 5 163 17
	testl	%eax, %eax
	je	.L57
	.loc 5 163 84 discriminator 1
	movq	16(%rbp), %rax
	leaq	60(%rax), %rdx
	.loc 5 163 53 discriminator 1
	movq	16(%rbp), %rax
	movq	(%rax), %rax
	movq	%rax, %rcx
	call	StartsWith
	.loc 5 163 50 discriminator 1
	testl	%eax, %eax
	je	.L57
	.loc 5 164 27
	movq	16(%rbp), %rax
	movq	(%rax), %rdx
	.loc 5 164 35
	movq	16(%rbp), %rax
	movl	68(%rax), %eax
	cltq
	.loc 5 164 27
	addq	%rax, %rax
	addq	%rax, %rdx
	movq	16(%rbp), %rax
	movq	%rdx, (%rax)
	jmp	.L55
.L57:
	.loc 5 165 23
	movq	16(%rbp), %rax
	movl	8(%rax), %eax
	.loc 5 165 39
	andl	$64, %eax
	.loc 5 165 17
	testl	%eax, %eax
	je	.L60
	.loc 5 165 58 discriminator 1
	movq	16(%rbp), %rax
	movl	80(%rax), %eax
	.loc 5 165 50 discriminator 1
	testl	%eax, %eax
	jle	.L60
	.loc 5 165 131 discriminator 2
	movq	16(%rbp), %rax
	leaq	72(%rax), %rdx
	.loc 5 165 100 discriminator 2
	movq	16(%rbp), %rax
	movq	(%rax), %rax
	movq	%rax, %rcx
	call	StartsWith
	.loc 5 165 97 discriminator 2
	testl	%eax, %eax
	je	.L60
	.loc 5 166 27
	movq	16(%rbp), %rax
	movq	(%rax), %rdx
	.loc 5 166 35
	movq	16(%rbp), %rax
	movl	80(%rax), %eax
	cltq
	.loc 5 166 27
	addq	%rax, %rax
	addq	%rax, %rdx
	movq	16(%rbp), %rax
	movq	%rdx, (%rax)
.L55:
	.loc 5 151 12
	jmp	.L59
.L60:
	.loc 5 170 1
	nop
	addq	$32, %rsp
	popq	%rbp
	.cfi_restore 6
	.cfi_def_cfa 7, 8
	ret
	.cfi_endproc
.LFE4381:
	.seh_endproc
	.def	ParseAsFractionPartNumberSequence;	.scl	3;	.type	32;	.endef
	.seh_proc	ParseAsFractionPartNumberSequence
ParseAsFractionPartNumberSequence:
.LFB4382:
	.loc 5 173 1
	.cfi_startproc
	pushq	%rbp
	.seh_pushreg	%rbp
	.cfi_def_cfa_offset 16
	.cfi_offset 6, -16
	movq	%rsp, %rbp
	.seh_setframe	%rbp, 0
	.cfi_def_cfa_register 6
	subq	$32, %rsp
	.seh_stackalloc	32
	.seh_endprologue
	movq	%rcx, 16(%rbp)
.L65:
	.loc 5 176 37
	movq	16(%rbp), %rax
	movq	(%rax), %rax
	.loc 5 176 31
	movzwl	(%rax), %eax
	.loc 5 176 13
	movzwl	%ax, %eax
	movl	%eax, %ecx
	call	ParseDecimalDigit
	.loc 5 176 12
	testl	%eax, %eax
	js	.L62
	.loc 5 178 43
	movq	16(%rbp), %rax
	movq	(%rax), %rdx
	.loc 5 178 19
	movq	16(%rbp), %rax
	movq	96(%rax), %rax
	.loc 5 178 37
	movzwl	(%rdx), %edx
	.loc 5 178 35
	movw	%dx, (%rax)
	.loc 5 179 34
	movq	16(%rbp), %rax
	movq	96(%rax), %rax
	leaq	2(%rax), %rdx
	movq	16(%rbp), %rax
	movq	%rdx, 96(%rax)
	.loc 5 180 27
	movq	16(%rbp), %rax
	movq	(%rax), %rax
	leaq	2(%rax), %rdx
	movq	16(%rbp), %rax
	movq	%rdx, (%rax)
	jmp	.L65
.L62:
	.loc 5 182 23
	movq	16(%rbp), %rax
	movl	8(%rax), %eax
	.loc 5 182 39
	andl	$512, %eax
	.loc 5 182 17
	testl	%eax, %eax
	je	.L66
	.loc 5 182 74 discriminator 1
	movq	16(%rbp), %rax
	movq	(%rax), %rax
	.loc 5 182 68 discriminator 1
	movzwl	(%rax), %eax
	.loc 5 182 53 discriminator 1
	movzwl	%ax, %eax
	movl	%eax, %ecx
	call	ParseHexDigit
	.loc 5 182 50 discriminator 1
	testl	%eax, %eax
	js	.L66
	.loc 5 184 43
	movq	16(%rbp), %rax
	movq	(%rax), %rdx
	.loc 5 184 19
	movq	16(%rbp), %rax
	movq	96(%rax), %rax
	.loc 5 184 37
	movzwl	(%rdx), %edx
	.loc 5 184 35
	movw	%dx, (%rax)
	.loc 5 185 34
	movq	16(%rbp), %rax
	movq	96(%rax), %rax
	leaq	2(%rax), %rdx
	movq	16(%rbp), %rax
	movq	%rdx, 96(%rax)
	.loc 5 186 27
	movq	16(%rbp), %rax
	movq	(%rax), %rax
	leaq	2(%rax), %rdx
	movq	16(%rbp), %rax
	movq	%rdx, (%rax)
	.loc 5 176 12
	jmp	.L65
.L66:
	.loc 5 191 1
	nop
	addq	$32, %rsp
	popq	%rbp
	.cfi_restore 6
	.cfi_def_cfa 7, 8
	ret
	.cfi_endproc
.LFE4382:
	.seh_endproc
	.def	ParseAsDecimalNumberString;	.scl	3;	.type	32;	.endef
	.seh_proc	ParseAsDecimalNumberString
ParseAsDecimalNumberString:
.LFB4383:
	.loc 5 195 1
	.cfi_startproc
	pushq	%rbp
	.seh_pushreg	%rbp
	.cfi_def_cfa_offset 16
	.cfi_offset 6, -16
	movq	%rsp, %rbp
	.seh_setframe	%rbp, 0
	.cfi_def_cfa_register 6
	subq	$160, %rsp
	.seh_stackalloc	160
	.seh_endprologue
	movq	%rcx, 16(%rbp)
	movl	%edx, 24(%rbp)
	movq	%r8, 32(%rbp)
	movq	%r9, 40(%rbp)
	.loc 5 222 5
	movq	32(%rbp), %r8
	movl	24(%rbp), %ecx
	leaq	-112(%rbp), %rax
	movq	56(%rbp), %rdx
	movq	%rdx, 40(%rsp)
	movq	48(%rbp), %rdx
	movq	%rdx, 32(%rsp)
	movq	%r8, %r9
	movl	%ecx, %r8d
	movq	16(%rbp), %rdx
	movq	%rax, %rcx
	call	InitializeParserState
	.loc 5 223 23
	movl	24(%rbp), %eax
	andl	$1, %eax
	.loc 5 223 8
	testl	%eax, %eax
	je	.L68
	.loc 5 224 9
	leaq	-112(%rbp), %rax
	movq	%rax, %rcx
	call	SkipSpace
.L68:
	.loc 5 225 24
	movl	24(%rbp), %eax
	andl	$256, %eax
	.loc 5 225 8
	testl	%eax, %eax
	je	.L69
	.loc 5 225 39 discriminator 1
	movq	-112(%rbp), %rax
	leaq	-112(%rbp), %rdx
	addq	$14, %rdx
	movq	%rax, %rcx
	call	StartsWith
	.loc 5 225 36 discriminator 1
	testl	%eax, %eax
	je	.L69
	.loc 5 227 22
	movq	-112(%rbp), %rdx
	.loc 5 227 30
	movl	-92(%rbp), %eax
	cltq
	.loc 5 227 22
	addq	%rax, %rax
	addq	%rdx, %rax
	movq	%rax, -112(%rbp)
	.loc 5 228 28
	movl	24(%rbp), %eax
	andl	$1, %eax
	.loc 5 228 12
	testl	%eax, %eax
	je	.L70
	.loc 5 228 49 discriminator 1
	movq	-112(%rbp), %rax
	.loc 5 228 43 discriminator 1
	movzwl	(%rax), %eax
	.loc 5 228 40 discriminator 1
	cmpw	$32, %ax
	jne	.L70
	.loc 5 229 26
	movq	-112(%rbp), %rax
	addq	$2, %rax
	movq	%rax, -112(%rbp)
.L70:
	.loc 5 230 28
	movl	24(%rbp), %eax
	andl	$4, %eax
	.loc 5 230 12
	testl	%eax, %eax
	je	.L71
	.loc 5 230 43 discriminator 1
	movq	-112(%rbp), %rax
	leaq	-112(%rbp), %rdx
	addq	$24, %rdx
	movq	%rax, %rcx
	call	StartsWith
	.loc 5 230 40 discriminator 1
	testl	%eax, %eax
	je	.L71
	.loc 5 232 24
	movb	$1, -100(%rbp)
	.loc 5 233 26
	movq	-112(%rbp), %rdx
	.loc 5 233 34
	movl	-80(%rbp), %eax
	cltq
	.loc 5 233 26
	addq	%rax, %rax
	addq	%rdx, %rax
	movq	%rax, -112(%rbp)
	.loc 5 234 41
	movq	-112(%rbp), %rax
	.loc 5 234 35
	movzwl	(%rax), %eax
	.loc 5 234 17
	movzwl	%ax, %eax
	movl	%eax, %ecx
	call	ParseDecimalDigit
	.loc 5 234 16
	testl	%eax, %eax
	js	.L72
	.loc 5 235 17
	leaq	-112(%rbp), %rax
	movq	%rax, %rcx
	call	ParseAsIntegerPartNumberSequence
.L72:
	.loc 5 236 32
	movl	24(%rbp), %eax
	andl	$32, %eax
	.loc 5 236 16
	testl	%eax, %eax
	je	.L146
	.loc 5 236 47 discriminator 1
	movq	-112(%rbp), %rax
	leaq	-112(%rbp), %rdx
	addq	$48, %rdx
	movq	%rax, %rcx
	call	StartsWith
	.loc 5 236 44 discriminator 1
	testl	%eax, %eax
	je	.L146
	.loc 5 238 30
	movq	-112(%rbp), %rdx
	.loc 5 238 38
	movl	-56(%rbp), %eax
	cltq
	.loc 5 238 30
	addq	%rax, %rax
	addq	%rdx, %rax
	movq	%rax, -112(%rbp)
	.loc 5 239 17
	leaq	-112(%rbp), %rax
	movq	%rax, %rcx
	call	ParseAsFractionPartNumberSequence
	.loc 5 236 16
	jmp	.L146
.L71:
	.loc 5 242 33
	movl	24(%rbp), %eax
	andl	$4, %eax
	.loc 5 242 17
	testl	%eax, %eax
	je	.L75
	.loc 5 242 48 discriminator 1
	movq	-112(%rbp), %rax
	leaq	-112(%rbp), %rdx
	addq	$36, %rdx
	movq	%rax, %rcx
	call	StartsWith
	.loc 5 242 45 discriminator 1
	testl	%eax, %eax
	je	.L75
	.loc 5 244 24
	movb	$-1, -100(%rbp)
	.loc 5 245 26
	movq	-112(%rbp), %rdx
	.loc 5 245 34
	movl	-68(%rbp), %eax
	cltq
	.loc 5 245 26
	addq	%rax, %rax
	addq	%rdx, %rax
	movq	%rax, -112(%rbp)
	.loc 5 246 41
	movq	-112(%rbp), %rax
	.loc 5 246 35
	movzwl	(%rax), %eax
	.loc 5 246 17
	movzwl	%ax, %eax
	movl	%eax, %ecx
	call	ParseDecimalDigit
	.loc 5 246 16
	testl	%eax, %eax
	js	.L76
	.loc 5 247 17
	leaq	-112(%rbp), %rax
	movq	%rax, %rcx
	call	ParseAsIntegerPartNumberSequence
.L76:
	.loc 5 248 32
	movl	24(%rbp), %eax
	andl	$32, %eax
	.loc 5 248 16
	testl	%eax, %eax
	je	.L147
	.loc 5 248 47 discriminator 1
	movq	-112(%rbp), %rax
	leaq	-112(%rbp), %rdx
	addq	$48, %rdx
	movq	%rax, %rcx
	call	StartsWith
	.loc 5 248 44 discriminator 1
	testl	%eax, %eax
	je	.L147
	.loc 5 250 30
	movq	-112(%rbp), %rdx
	.loc 5 250 38
	movl	-56(%rbp), %eax
	cltq
	.loc 5 250 30
	addq	%rax, %rax
	addq	%rdx, %rax
	movq	%rax, -112(%rbp)
	.loc 5 251 17
	leaq	-112(%rbp), %rax
	movq	%rax, %rcx
	call	ParseAsFractionPartNumberSequence
	.loc 5 248 16
	jmp	.L147
.L75:
	.loc 5 256 41
	movq	-112(%rbp), %rax
	.loc 5 256 35
	movzwl	(%rax), %eax
	.loc 5 256 17
	movzwl	%ax, %eax
	movl	%eax, %ecx
	call	ParseDecimalDigit
	.loc 5 256 16
	testl	%eax, %eax
	js	.L78
	.loc 5 257 17
	leaq	-112(%rbp), %rax
	movq	%rax, %rcx
	call	ParseAsIntegerPartNumberSequence
.L78:
	.loc 5 258 32
	movl	24(%rbp), %eax
	andl	$32, %eax
	.loc 5 258 16
	testl	%eax, %eax
	je	.L79
	.loc 5 258 47 discriminator 1
	movq	-112(%rbp), %rax
	leaq	-112(%rbp), %rdx
	addq	$48, %rdx
	movq	%rax, %rcx
	call	StartsWith
	.loc 5 258 44 discriminator 1
	testl	%eax, %eax
	je	.L79
	.loc 5 260 30
	movq	-112(%rbp), %rdx
	.loc 5 260 38
	movl	-56(%rbp), %eax
	cltq
	.loc 5 260 30
	addq	%rax, %rax
	addq	%rdx, %rax
	movq	%rax, -112(%rbp)
	.loc 5 261 17
	leaq	-112(%rbp), %rax
	movq	%rax, %rcx
	call	ParseAsFractionPartNumberSequence
.L79:
	.loc 5 263 32
	movl	24(%rbp), %eax
	andl	$8, %eax
	.loc 5 263 16
	testl	%eax, %eax
	je	.L80
	.loc 5 263 47 discriminator 1
	movq	-112(%rbp), %rax
	leaq	-112(%rbp), %rdx
	addq	$24, %rdx
	movq	%rax, %rcx
	call	StartsWith
	.loc 5 263 44 discriminator 1
	testl	%eax, %eax
	je	.L80
	.loc 5 265 28
	movb	$1, -100(%rbp)
	.loc 5 266 30
	movq	-112(%rbp), %rdx
	.loc 5 266 38
	movl	-80(%rbp), %eax
	cltq
	.loc 5 266 30
	addq	%rax, %rax
	addq	%rdx, %rax
	movq	%rax, -112(%rbp)
	jmp	.L74
.L80:
	.loc 5 268 37
	movl	24(%rbp), %eax
	andl	$8, %eax
	.loc 5 268 21
	testl	%eax, %eax
	je	.L148
	.loc 5 268 52 discriminator 1
	movq	-112(%rbp), %rax
	leaq	-112(%rbp), %rdx
	addq	$36, %rdx
	movq	%rax, %rcx
	call	StartsWith
	.loc 5 268 49 discriminator 1
	testl	%eax, %eax
	je	.L148
	.loc 5 270 28
	movb	$-1, -100(%rbp)
	.loc 5 271 30
	movq	-112(%rbp), %rdx
	.loc 5 271 38
	movl	-68(%rbp), %eax
	cltq
	.loc 5 271 30
	addq	%rax, %rax
	addq	%rdx, %rax
	movq	%rax, -112(%rbp)
	.loc 5 230 12
	jmp	.L148
.L146:
	.loc 5 236 16
	nop
	jmp	.L148
.L147:
	.loc 5 248 16
	nop
.L74:
	.loc 5 230 12 discriminator 1
	jmp	.L148
.L69:
	.loc 5 278 29
	movl	24(%rbp), %eax
	andl	$16, %eax
	.loc 5 278 13
	testl	%eax, %eax
	je	.L82
	.loc 5 278 50 discriminator 1
	movq	-112(%rbp), %rax
	.loc 5 278 44 discriminator 1
	movzwl	(%rax), %eax
	.loc 5 278 41 discriminator 1
	cmpw	$40, %ax
	jne	.L82
	.loc 5 280 20
	movb	$-1, -100(%rbp)
	.loc 5 281 22
	movq	-112(%rbp), %rax
	addq	$2, %rax
	movq	%rax, -112(%rbp)
	.loc 5 283 28
	movl	24(%rbp), %eax
	andl	$256, %eax
	.loc 5 283 12
	testl	%eax, %eax
	je	.L83
	.loc 5 283 43 discriminator 1
	movq	-112(%rbp), %rax
	leaq	-112(%rbp), %rdx
	addq	$14, %rdx
	movq	%rax, %rcx
	call	StartsWith
	.loc 5 283 40 discriminator 1
	testl	%eax, %eax
	je	.L83
	.loc 5 285 26
	movq	-112(%rbp), %rdx
	.loc 5 285 34
	movl	-92(%rbp), %eax
	cltq
	.loc 5 285 26
	addq	%rax, %rax
	addq	%rdx, %rax
	movq	%rax, -112(%rbp)
	.loc 5 286 32
	movl	24(%rbp), %eax
	andl	$1, %eax
	.loc 5 286 16
	testl	%eax, %eax
	je	.L84
	.loc 5 286 53 discriminator 1
	movq	-112(%rbp), %rax
	.loc 5 286 47 discriminator 1
	movzwl	(%rax), %eax
	.loc 5 286 44 discriminator 1
	cmpw	$32, %ax
	jne	.L84
	.loc 5 287 30
	movq	-112(%rbp), %rax
	addq	$2, %rax
	movq	%rax, -112(%rbp)
.L84:
	.loc 5 288 41
	movq	-112(%rbp), %rax
	.loc 5 288 35
	movzwl	(%rax), %eax
	.loc 5 288 17
	movzwl	%ax, %eax
	movl	%eax, %ecx
	call	ParseDecimalDigit
	.loc 5 288 16
	testl	%eax, %eax
	js	.L85
	.loc 5 289 17
	leaq	-112(%rbp), %rax
	movq	%rax, %rcx
	call	ParseAsIntegerPartNumberSequence
.L85:
	.loc 5 290 32
	movl	24(%rbp), %eax
	andl	$32, %eax
	.loc 5 290 16
	testl	%eax, %eax
	je	.L149
	.loc 5 290 47 discriminator 1
	movq	-112(%rbp), %rax
	leaq	-112(%rbp), %rdx
	addq	$48, %rdx
	movq	%rax, %rcx
	call	StartsWith
	.loc 5 290 44 discriminator 1
	testl	%eax, %eax
	je	.L149
	.loc 5 292 30
	movq	-112(%rbp), %rdx
	.loc 5 292 38
	movl	-56(%rbp), %eax
	cltq
	.loc 5 292 30
	addq	%rax, %rax
	addq	%rdx, %rax
	movq	%rax, -112(%rbp)
	.loc 5 293 17
	leaq	-112(%rbp), %rax
	movq	%rax, %rcx
	call	ParseAsFractionPartNumberSequence
	.loc 5 290 16
	jmp	.L149
.L83:
	.loc 5 298 41
	movq	-112(%rbp), %rax
	.loc 5 298 35
	movzwl	(%rax), %eax
	.loc 5 298 17
	movzwl	%ax, %eax
	movl	%eax, %ecx
	call	ParseDecimalDigit
	.loc 5 298 16
	testl	%eax, %eax
	js	.L88
	.loc 5 299 17
	leaq	-112(%rbp), %rax
	movq	%rax, %rcx
	call	ParseAsIntegerPartNumberSequence
.L88:
	.loc 5 300 32
	movl	24(%rbp), %eax
	andl	$32, %eax
	.loc 5 300 16
	testl	%eax, %eax
	je	.L89
	.loc 5 300 47 discriminator 1
	movq	-112(%rbp), %rax
	leaq	-112(%rbp), %rdx
	addq	$48, %rdx
	movq	%rax, %rcx
	call	StartsWith
	.loc 5 300 44 discriminator 1
	testl	%eax, %eax
	je	.L89
	.loc 5 302 30
	movq	-112(%rbp), %rdx
	.loc 5 302 38
	movl	-56(%rbp), %eax
	cltq
	.loc 5 302 30
	addq	%rax, %rax
	addq	%rdx, %rax
	movq	%rax, -112(%rbp)
	.loc 5 303 17
	leaq	-112(%rbp), %rax
	movq	%rax, %rcx
	call	ParseAsFractionPartNumberSequence
.L89:
	.loc 5 305 32
	movl	24(%rbp), %eax
	andl	$2, %eax
	.loc 5 305 16
	testl	%eax, %eax
	je	.L87
	.loc 5 305 53 discriminator 1
	movq	-112(%rbp), %rax
	.loc 5 305 47 discriminator 1
	movzwl	(%rax), %eax
	.loc 5 305 44 discriminator 1
	cmpw	$32, %ax
	jne	.L87
	.loc 5 307 30
	movq	-112(%rbp), %rax
	addq	$2, %rax
	movq	%rax, -112(%rbp)
	.loc 5 308 36
	movl	24(%rbp), %eax
	andl	$256, %eax
	.loc 5 308 20
	testl	%eax, %eax
	je	.L87
	.loc 5 308 51 discriminator 1
	movq	-112(%rbp), %rax
	leaq	-112(%rbp), %rdx
	addq	$14, %rdx
	movq	%rax, %rcx
	call	StartsWith
	.loc 5 308 48 discriminator 1
	testl	%eax, %eax
	je	.L87
	.loc 5 309 34
	movq	-112(%rbp), %rdx
	.loc 5 309 42
	movl	-92(%rbp), %eax
	cltq
	.loc 5 309 34
	addq	%rax, %rax
	addq	%rdx, %rax
	movq	%rax, -112(%rbp)
	jmp	.L87
.L149:
	.loc 5 290 16
	nop
.L87:
	.loc 5 312 19
	movq	-112(%rbp), %rax
	.loc 5 312 13
	movzwl	(%rax), %eax
	.loc 5 312 12
	cmpw	$41, %ax
	je	.L90
	.loc 5 313 20
	movl	$0, %eax
	jmp	.L145
.L90:
	.loc 5 314 22
	movq	-112(%rbp), %rax
	addq	$2, %rax
	movq	%rax, -112(%rbp)
	jmp	.L81
.L82:
	.loc 5 316 29
	movl	24(%rbp), %eax
	andl	$4, %eax
	.loc 5 316 13
	testl	%eax, %eax
	je	.L92
	.loc 5 316 44 discriminator 1
	movq	-112(%rbp), %rax
	leaq	-112(%rbp), %rdx
	addq	$24, %rdx
	movq	%rax, %rcx
	call	StartsWith
	.loc 5 316 41 discriminator 1
	testl	%eax, %eax
	je	.L92
	.loc 5 318 20
	movb	$1, -100(%rbp)
	.loc 5 319 22
	movq	-112(%rbp), %rdx
	.loc 5 319 30
	movl	-80(%rbp), %eax
	cltq
	.loc 5 319 22
	addq	%rax, %rax
	addq	%rdx, %rax
	movq	%rax, -112(%rbp)
	.loc 5 320 28
	movl	24(%rbp), %eax
	andl	$256, %eax
	.loc 5 320 12
	testl	%eax, %eax
	je	.L93
	.loc 5 320 43 discriminator 1
	movq	-112(%rbp), %rax
	leaq	-112(%rbp), %rdx
	addq	$14, %rdx
	movq	%rax, %rcx
	call	StartsWith
	.loc 5 320 40 discriminator 1
	testl	%eax, %eax
	je	.L93
	.loc 5 322 26
	movq	-112(%rbp), %rdx
	.loc 5 322 34
	movl	-92(%rbp), %eax
	cltq
	.loc 5 322 26
	addq	%rax, %rax
	addq	%rdx, %rax
	movq	%rax, -112(%rbp)
	.loc 5 323 32
	movl	24(%rbp), %eax
	andl	$1, %eax
	.loc 5 323 16
	testl	%eax, %eax
	je	.L94
	.loc 5 323 53 discriminator 1
	movq	-112(%rbp), %rax
	.loc 5 323 47 discriminator 1
	movzwl	(%rax), %eax
	.loc 5 323 44 discriminator 1
	cmpw	$32, %ax
	jne	.L94
	.loc 5 324 30
	movq	-112(%rbp), %rax
	addq	$2, %rax
	movq	%rax, -112(%rbp)
.L94:
	.loc 5 325 41
	movq	-112(%rbp), %rax
	.loc 5 325 35
	movzwl	(%rax), %eax
	.loc 5 325 17
	movzwl	%ax, %eax
	movl	%eax, %ecx
	call	ParseDecimalDigit
	.loc 5 325 16
	testl	%eax, %eax
	js	.L95
	.loc 5 326 17
	leaq	-112(%rbp), %rax
	movq	%rax, %rcx
	call	ParseAsIntegerPartNumberSequence
.L95:
	.loc 5 327 32
	movl	24(%rbp), %eax
	andl	$32, %eax
	.loc 5 327 16
	testl	%eax, %eax
	je	.L150
	.loc 5 327 47 discriminator 1
	movq	-112(%rbp), %rax
	leaq	-112(%rbp), %rdx
	addq	$48, %rdx
	movq	%rax, %rcx
	call	StartsWith
	.loc 5 327 44 discriminator 1
	testl	%eax, %eax
	je	.L150
	.loc 5 329 30
	movq	-112(%rbp), %rdx
	.loc 5 329 38
	movl	-56(%rbp), %eax
	cltq
	.loc 5 329 30
	addq	%rax, %rax
	addq	%rdx, %rax
	movq	%rax, -112(%rbp)
	.loc 5 330 17
	leaq	-112(%rbp), %rax
	movq	%rax, %rcx
	call	ParseAsFractionPartNumberSequence
	.loc 5 327 16
	jmp	.L150
.L93:
	.loc 5 335 41
	movq	-112(%rbp), %rax
	.loc 5 335 35
	movzwl	(%rax), %eax
	.loc 5 335 17
	movzwl	%ax, %eax
	movl	%eax, %ecx
	call	ParseDecimalDigit
	.loc 5 335 16
	testl	%eax, %eax
	js	.L98
	.loc 5 336 17
	leaq	-112(%rbp), %rax
	movq	%rax, %rcx
	call	ParseAsIntegerPartNumberSequence
.L98:
	.loc 5 337 32
	movl	24(%rbp), %eax
	andl	$32, %eax
	.loc 5 337 16
	testl	%eax, %eax
	je	.L99
	.loc 5 337 47 discriminator 1
	movq	-112(%rbp), %rax
	leaq	-112(%rbp), %rdx
	addq	$48, %rdx
	movq	%rax, %rcx
	call	StartsWith
	.loc 5 337 44 discriminator 1
	testl	%eax, %eax
	je	.L99
	.loc 5 339 30
	movq	-112(%rbp), %rdx
	.loc 5 339 38
	movl	-56(%rbp), %eax
	cltq
	.loc 5 339 30
	addq	%rax, %rax
	addq	%rdx, %rax
	movq	%rax, -112(%rbp)
	.loc 5 340 17
	leaq	-112(%rbp), %rax
	movq	%rax, %rcx
	call	ParseAsFractionPartNumberSequence
.L99:
	.loc 5 342 32
	movl	24(%rbp), %eax
	andl	$2, %eax
	.loc 5 342 16
	testl	%eax, %eax
	je	.L100
	.loc 5 342 53 discriminator 1
	movq	-112(%rbp), %rax
	.loc 5 342 47 discriminator 1
	movzwl	(%rax), %eax
	.loc 5 342 44 discriminator 1
	cmpw	$32, %ax
	jne	.L100
	.loc 5 344 30
	movq	-112(%rbp), %rax
	addq	$2, %rax
	movq	%rax, -112(%rbp)
	.loc 5 345 36
	movl	24(%rbp), %eax
	andl	$256, %eax
	.loc 5 345 20
	testl	%eax, %eax
	je	.L151
	.loc 5 345 51 discriminator 1
	movq	-112(%rbp), %rax
	leaq	-112(%rbp), %rdx
	addq	$14, %rdx
	movq	%rax, %rcx
	call	StartsWith
	.loc 5 345 48 discriminator 1
	testl	%eax, %eax
	je	.L151
	.loc 5 346 34
	movq	-112(%rbp), %rdx
	.loc 5 346 42
	movl	-92(%rbp), %eax
	cltq
	.loc 5 346 34
	addq	%rax, %rax
	addq	%rdx, %rax
	movq	%rax, -112(%rbp)
	.loc 5 345 20
	jmp	.L151
.L100:
	.loc 5 348 37
	movl	24(%rbp), %eax
	andl	$256, %eax
	.loc 5 348 21
	testl	%eax, %eax
	je	.L152
	.loc 5 348 52 discriminator 1
	movq	-112(%rbp), %rax
	leaq	-112(%rbp), %rdx
	addq	$14, %rdx
	movq	%rax, %rcx
	call	StartsWith
	.loc 5 348 49 discriminator 1
	testl	%eax, %eax
	je	.L152
	.loc 5 349 30
	movq	-112(%rbp), %rdx
	.loc 5 349 38
	movl	-92(%rbp), %eax
	cltq
	.loc 5 349 30
	addq	%rax, %rax
	addq	%rdx, %rax
	movq	%rax, -112(%rbp)
	.loc 5 320 12
	jmp	.L152
.L150:
	.loc 5 327 16
	nop
	jmp	.L152
.L151:
	.loc 5 345 20
	nop
	.loc 5 320 12
	jmp	.L152
.L92:
	.loc 5 355 29
	movl	24(%rbp), %eax
	andl	$4, %eax
	.loc 5 355 13
	testl	%eax, %eax
	je	.L102
	.loc 5 355 44 discriminator 1
	movq	-112(%rbp), %rax
	leaq	-112(%rbp), %rdx
	addq	$36, %rdx
	movq	%rax, %rcx
	call	StartsWith
	.loc 5 355 41 discriminator 1
	testl	%eax, %eax
	je	.L102
	.loc 5 357 20
	movb	$-1, -100(%rbp)
	.loc 5 358 22
	movq	-112(%rbp), %rdx
	.loc 5 358 30
	movl	-80(%rbp), %eax
	cltq
	.loc 5 358 22
	addq	%rax, %rax
	addq	%rdx, %rax
	movq	%rax, -112(%rbp)
	.loc 5 359 28
	movl	24(%rbp), %eax
	andl	$256, %eax
	.loc 5 359 12
	testl	%eax, %eax
	je	.L103
	.loc 5 359 43 discriminator 1
	movq	-112(%rbp), %rax
	leaq	-112(%rbp), %rdx
	addq	$14, %rdx
	movq	%rax, %rcx
	call	StartsWith
	.loc 5 359 40 discriminator 1
	testl	%eax, %eax
	je	.L103
	.loc 5 361 26
	movq	-112(%rbp), %rdx
	.loc 5 361 34
	movl	-92(%rbp), %eax
	cltq
	.loc 5 361 26
	addq	%rax, %rax
	addq	%rdx, %rax
	movq	%rax, -112(%rbp)
	.loc 5 362 32
	movl	24(%rbp), %eax
	andl	$1, %eax
	.loc 5 362 16
	testl	%eax, %eax
	je	.L104
	.loc 5 362 53 discriminator 1
	movq	-112(%rbp), %rax
	.loc 5 362 47 discriminator 1
	movzwl	(%rax), %eax
	.loc 5 362 44 discriminator 1
	cmpw	$32, %ax
	jne	.L104
	.loc 5 363 30
	movq	-112(%rbp), %rax
	addq	$2, %rax
	movq	%rax, -112(%rbp)
.L104:
	.loc 5 364 41
	movq	-112(%rbp), %rax
	.loc 5 364 35
	movzwl	(%rax), %eax
	.loc 5 364 17
	movzwl	%ax, %eax
	movl	%eax, %ecx
	call	ParseDecimalDigit
	.loc 5 364 16
	testl	%eax, %eax
	js	.L105
	.loc 5 365 17
	leaq	-112(%rbp), %rax
	movq	%rax, %rcx
	call	ParseAsIntegerPartNumberSequence
.L105:
	.loc 5 366 32
	movl	24(%rbp), %eax
	andl	$32, %eax
	.loc 5 366 16
	testl	%eax, %eax
	je	.L153
	.loc 5 366 47 discriminator 1
	movq	-112(%rbp), %rax
	leaq	-112(%rbp), %rdx
	addq	$48, %rdx
	movq	%rax, %rcx
	call	StartsWith
	.loc 5 366 44 discriminator 1
	testl	%eax, %eax
	je	.L153
	.loc 5 368 30
	movq	-112(%rbp), %rdx
	.loc 5 368 38
	movl	-56(%rbp), %eax
	cltq
	.loc 5 368 30
	addq	%rax, %rax
	addq	%rdx, %rax
	movq	%rax, -112(%rbp)
	.loc 5 369 17
	leaq	-112(%rbp), %rax
	movq	%rax, %rcx
	call	ParseAsFractionPartNumberSequence
	.loc 5 366 16
	jmp	.L153
.L103:
	.loc 5 374 41
	movq	-112(%rbp), %rax
	.loc 5 374 35
	movzwl	(%rax), %eax
	.loc 5 374 17
	movzwl	%ax, %eax
	movl	%eax, %ecx
	call	ParseDecimalDigit
	.loc 5 374 16
	testl	%eax, %eax
	js	.L108
	.loc 5 375 17
	leaq	-112(%rbp), %rax
	movq	%rax, %rcx
	call	ParseAsIntegerPartNumberSequence
.L108:
	.loc 5 376 32
	movl	24(%rbp), %eax
	andl	$32, %eax
	.loc 5 376 16
	testl	%eax, %eax
	je	.L109
	.loc 5 376 47 discriminator 1
	movq	-112(%rbp), %rax
	leaq	-112(%rbp), %rdx
	addq	$48, %rdx
	movq	%rax, %rcx
	call	StartsWith
	.loc 5 376 44 discriminator 1
	testl	%eax, %eax
	je	.L109
	.loc 5 378 30
	movq	-112(%rbp), %rdx
	.loc 5 378 38
	movl	-56(%rbp), %eax
	cltq
	.loc 5 378 30
	addq	%rax, %rax
	addq	%rdx, %rax
	movq	%rax, -112(%rbp)
	.loc 5 379 17
	leaq	-112(%rbp), %rax
	movq	%rax, %rcx
	call	ParseAsFractionPartNumberSequence
.L109:
	.loc 5 381 32
	movl	24(%rbp), %eax
	andl	$2, %eax
	.loc 5 381 16
	testl	%eax, %eax
	je	.L110
	.loc 5 381 53 discriminator 1
	movq	-112(%rbp), %rax
	.loc 5 381 47 discriminator 1
	movzwl	(%rax), %eax
	.loc 5 381 44 discriminator 1
	cmpw	$32, %ax
	jne	.L110
	.loc 5 383 30
	movq	-112(%rbp), %rax
	addq	$2, %rax
	movq	%rax, -112(%rbp)
	.loc 5 384 36
	movl	24(%rbp), %eax
	andl	$256, %eax
	.loc 5 384 20
	testl	%eax, %eax
	je	.L154
	.loc 5 384 51 discriminator 1
	movq	-112(%rbp), %rax
	leaq	-112(%rbp), %rdx
	addq	$14, %rdx
	movq	%rax, %rcx
	call	StartsWith
	.loc 5 384 48 discriminator 1
	testl	%eax, %eax
	je	.L154
	.loc 5 385 34
	movq	-112(%rbp), %rdx
	.loc 5 385 42
	movl	-92(%rbp), %eax
	cltq
	.loc 5 385 34
	addq	%rax, %rax
	addq	%rdx, %rax
	movq	%rax, -112(%rbp)
	.loc 5 384 20
	jmp	.L154
.L110:
	.loc 5 387 37
	movl	24(%rbp), %eax
	andl	$256, %eax
	.loc 5 387 21
	testl	%eax, %eax
	je	.L155
	.loc 5 387 52 discriminator 1
	movq	-112(%rbp), %rax
	leaq	-112(%rbp), %rdx
	addq	$14, %rdx
	movq	%rax, %rcx
	call	StartsWith
	.loc 5 387 49 discriminator 1
	testl	%eax, %eax
	je	.L155
	.loc 5 388 30
	movq	-112(%rbp), %rdx
	.loc 5 388 38
	movl	-92(%rbp), %eax
	cltq
	.loc 5 388 30
	addq	%rax, %rax
	addq	%rdx, %rax
	movq	%rax, -112(%rbp)
	.loc 5 359 12
	jmp	.L155
.L153:
	.loc 5 366 16
	nop
	jmp	.L155
.L154:
	.loc 5 384 20
	nop
	.loc 5 359 12
	jmp	.L155
.L102:
	.loc 5 394 38
	movq	-112(%rbp), %rax
	.loc 5 394 32
	movzwl	(%rax), %eax
	.loc 5 394 14
	movzwl	%ax, %eax
	movl	%eax, %ecx
	call	ParseDecimalDigit
	.loc 5 394 13
	testl	%eax, %eax
	js	.L112
	.loc 5 396 9
	leaq	-112(%rbp), %rax
	movq	%rax, %rcx
	call	ParseAsIntegerPartNumberSequence
	.loc 5 397 28
	movl	24(%rbp), %eax
	andl	$32, %eax
	.loc 5 397 12
	testl	%eax, %eax
	je	.L113
	.loc 5 397 43 discriminator 1
	movq	-112(%rbp), %rax
	leaq	-112(%rbp), %rdx
	addq	$48, %rdx
	movq	%rax, %rcx
	call	StartsWith
	.loc 5 397 40 discriminator 1
	testl	%eax, %eax
	je	.L113
	.loc 5 399 26
	movq	-112(%rbp), %rdx
	.loc 5 399 34
	movl	-56(%rbp), %eax
	cltq
	.loc 5 399 26
	addq	%rax, %rax
	addq	%rdx, %rax
	movq	%rax, -112(%rbp)
	.loc 5 400 13
	leaq	-112(%rbp), %rax
	movq	%rax, %rcx
	call	ParseAsFractionPartNumberSequence
.L113:
	.loc 5 402 28
	movl	24(%rbp), %eax
	andl	$2, %eax
	.loc 5 402 12
	testl	%eax, %eax
	je	.L114
	.loc 5 402 49 discriminator 1
	movq	-112(%rbp), %rax
	.loc 5 402 43 discriminator 1
	movzwl	(%rax), %eax
	.loc 5 402 40 discriminator 1
	cmpw	$32, %ax
	jne	.L114
	.loc 5 404 26
	movq	-112(%rbp), %rax
	addq	$2, %rax
	movq	%rax, -112(%rbp)
	.loc 5 405 32
	movl	24(%rbp), %eax
	andl	$256, %eax
	.loc 5 405 16
	testl	%eax, %eax
	je	.L115
	.loc 5 405 47 discriminator 1
	movq	-112(%rbp), %rax
	leaq	-112(%rbp), %rdx
	addq	$14, %rdx
	movq	%rax, %rcx
	call	StartsWith
	.loc 5 405 44 discriminator 1
	testl	%eax, %eax
	je	.L115
	.loc 5 407 30
	movq	-112(%rbp), %rdx
	.loc 5 407 38
	movl	-92(%rbp), %eax
	cltq
	.loc 5 407 30
	addq	%rax, %rax
	addq	%rdx, %rax
	movq	%rax, -112(%rbp)
	.loc 5 408 36
	movl	24(%rbp), %eax
	andl	$8, %eax
	.loc 5 408 20
	testl	%eax, %eax
	je	.L116
	.loc 5 408 51 discriminator 1
	movq	-112(%rbp), %rax
	leaq	-112(%rbp), %rdx
	addq	$24, %rdx
	movq	%rax, %rcx
	call	StartsWith
	.loc 5 408 48 discriminator 1
	testl	%eax, %eax
	je	.L116
	.loc 5 410 32
	movb	$1, -100(%rbp)
	.loc 5 411 34
	movq	-112(%rbp), %rdx
	.loc 5 411 42
	movl	-80(%rbp), %eax
	cltq
	.loc 5 411 34
	addq	%rax, %rax
	addq	%rdx, %rax
	movq	%rax, -112(%rbp)
	.loc 5 408 20
	jmp	.L156
.L116:
	.loc 5 413 41
	movl	24(%rbp), %eax
	andl	$8, %eax
	.loc 5 413 25
	testl	%eax, %eax
	je	.L156
	.loc 5 413 56 discriminator 1
	movq	-112(%rbp), %rax
	leaq	-112(%rbp), %rdx
	addq	$36, %rdx
	movq	%rax, %rcx
	call	StartsWith
	.loc 5 413 53 discriminator 1
	testl	%eax, %eax
	je	.L156
	.loc 5 415 32
	movb	$-1, -100(%rbp)
	.loc 5 416 34
	movq	-112(%rbp), %rdx
	.loc 5 416 42
	movl	-68(%rbp), %eax
	cltq
	.loc 5 416 34
	addq	%rax, %rax
	addq	%rdx, %rax
	movq	%rax, -112(%rbp)
	.loc 5 408 20
	jmp	.L156
.L115:
	.loc 5 424 36
	movl	24(%rbp), %eax
	andl	$8, %eax
	.loc 5 424 20
	testl	%eax, %eax
	je	.L119
	.loc 5 424 51 discriminator 1
	movq	-112(%rbp), %rax
	leaq	-112(%rbp), %rdx
	addq	$24, %rdx
	movq	%rax, %rcx
	call	StartsWith
	.loc 5 424 48 discriminator 1
	testl	%eax, %eax
	je	.L119
	.loc 5 426 32
	movb	$1, -100(%rbp)
	.loc 5 427 34
	movq	-112(%rbp), %rdx
	.loc 5 427 42
	movl	-80(%rbp), %eax
	cltq
	.loc 5 427 34
	addq	%rax, %rax
	addq	%rdx, %rax
	movq	%rax, -112(%rbp)
	jmp	.L118
.L119:
	.loc 5 429 41
	movl	24(%rbp), %eax
	andl	$8, %eax
	.loc 5 429 25
	testl	%eax, %eax
	je	.L157
	.loc 5 429 56 discriminator 1
	movq	-112(%rbp), %rax
	leaq	-112(%rbp), %rdx
	addq	$36, %rdx
	movq	%rax, %rcx
	call	StartsWith
	.loc 5 429 53 discriminator 1
	testl	%eax, %eax
	je	.L157
	.loc 5 431 32
	movb	$-1, -100(%rbp)
	.loc 5 432 34
	movq	-112(%rbp), %rdx
	.loc 5 432 42
	movl	-68(%rbp), %eax
	cltq
	.loc 5 432 34
	addq	%rax, %rax
	addq	%rdx, %rax
	movq	%rax, -112(%rbp)
	.loc 5 405 16
	jmp	.L157
.L156:
	.loc 5 408 20
	nop
.L118:
	.loc 5 405 16 discriminator 7
	jmp	.L157
.L114:
	.loc 5 439 33
	movl	24(%rbp), %eax
	andl	$256, %eax
	.loc 5 439 17
	testl	%eax, %eax
	je	.L121
	.loc 5 439 48 discriminator 1
	movq	-112(%rbp), %rax
	leaq	-112(%rbp), %rdx
	addq	$14, %rdx
	movq	%rax, %rcx
	call	StartsWith
	.loc 5 439 45 discriminator 1
	testl	%eax, %eax
	je	.L121
	.loc 5 441 26
	movq	-112(%rbp), %rdx
	.loc 5 441 34
	movl	-92(%rbp), %eax
	cltq
	.loc 5 441 26
	addq	%rax, %rax
	addq	%rdx, %rax
	movq	%rax, -112(%rbp)
	.loc 5 442 32
	movl	24(%rbp), %eax
	andl	$8, %eax
	.loc 5 442 16
	testl	%eax, %eax
	je	.L122
	.loc 5 442 47 discriminator 1
	movq	-112(%rbp), %rax
	leaq	-112(%rbp), %rdx
	addq	$24, %rdx
	movq	%rax, %rcx
	call	StartsWith
	.loc 5 442 44 discriminator 1
	testl	%eax, %eax
	je	.L122
	.loc 5 444 28
	movb	$1, -100(%rbp)
	.loc 5 445 30
	movq	-112(%rbp), %rdx
	.loc 5 445 38
	movl	-80(%rbp), %eax
	cltq
	.loc 5 445 30
	addq	%rax, %rax
	addq	%rdx, %rax
	movq	%rax, -112(%rbp)
	.loc 5 442 16
	jmp	.L158
.L122:
	.loc 5 447 37
	movl	24(%rbp), %eax
	andl	$8, %eax
	.loc 5 447 21
	testl	%eax, %eax
	je	.L158
	.loc 5 447 52 discriminator 1
	movq	-112(%rbp), %rax
	leaq	-112(%rbp), %rdx
	addq	$36, %rdx
	movq	%rax, %rcx
	call	StartsWith
	.loc 5 447 49 discriminator 1
	testl	%eax, %eax
	je	.L158
	.loc 5 449 28
	movb	$-1, -100(%rbp)
	.loc 5 450 30
	movq	-112(%rbp), %rdx
	.loc 5 450 38
	movl	-68(%rbp), %eax
	cltq
	.loc 5 450 30
	addq	%rax, %rax
	addq	%rdx, %rax
	movq	%rax, -112(%rbp)
	.loc 5 442 16
	jmp	.L158
.L121:
	.loc 5 456 33
	movl	24(%rbp), %eax
	andl	$8, %eax
	.loc 5 456 17
	testl	%eax, %eax
	je	.L124
	.loc 5 456 48 discriminator 1
	movq	-112(%rbp), %rax
	leaq	-112(%rbp), %rdx
	addq	$24, %rdx
	movq	%rax, %rcx
	call	StartsWith
	.loc 5 456 45 discriminator 1
	testl	%eax, %eax
	je	.L124
	.loc 5 458 24
	movb	$1, -100(%rbp)
	.loc 5 459 26
	movq	-112(%rbp), %rdx
	.loc 5 459 34
	movl	-80(%rbp), %eax
	cltq
	.loc 5 459 26
	addq	%rax, %rax
	addq	%rdx, %rax
	movq	%rax, -112(%rbp)
	.loc 5 460 32
	movl	24(%rbp), %eax
	andl	$256, %eax
	.loc 5 460 16
	testl	%eax, %eax
	je	.L159
	.loc 5 460 47 discriminator 1
	movq	-112(%rbp), %rax
	leaq	-112(%rbp), %rdx
	addq	$14, %rdx
	movq	%rax, %rcx
	call	StartsWith
	.loc 5 460 44 discriminator 1
	testl	%eax, %eax
	je	.L159
	.loc 5 461 30
	movq	-112(%rbp), %rdx
	.loc 5 461 38
	movl	-92(%rbp), %eax
	cltq
	.loc 5 461 30
	addq	%rax, %rax
	addq	%rdx, %rax
	movq	%rax, -112(%rbp)
	.loc 5 460 16
	jmp	.L159
.L124:
	.loc 5 463 33
	movl	24(%rbp), %eax
	andl	$8, %eax
	.loc 5 463 17
	testl	%eax, %eax
	je	.L81
	.loc 5 463 48 discriminator 1
	movq	-112(%rbp), %rax
	leaq	-112(%rbp), %rdx
	addq	$36, %rdx
	movq	%rax, %rcx
	call	StartsWith
	.loc 5 463 45 discriminator 1
	testl	%eax, %eax
	je	.L81
	.loc 5 465 24
	movb	$-1, -100(%rbp)
	.loc 5 466 26
	movq	-112(%rbp), %rdx
	.loc 5 466 34
	movl	-68(%rbp), %eax
	cltq
	.loc 5 466 26
	addq	%rax, %rax
	addq	%rdx, %rax
	movq	%rax, -112(%rbp)
	.loc 5 467 32
	movl	24(%rbp), %eax
	andl	$256, %eax
	.loc 5 467 16
	testl	%eax, %eax
	je	.L81
	.loc 5 467 47 discriminator 1
	movq	-112(%rbp), %rax
	leaq	-112(%rbp), %rdx
	addq	$14, %rdx
	movq	%rax, %rcx
	call	StartsWith
	.loc 5 467 44 discriminator 1
	testl	%eax, %eax
	je	.L81
	.loc 5 468 30
	movq	-112(%rbp), %rdx
	.loc 5 468 38
	movl	-92(%rbp), %eax
	cltq
	.loc 5 468 30
	addq	%rax, %rax
	addq	%rdx, %rax
	movq	%rax, -112(%rbp)
	jmp	.L81
.L112:
	.loc 5 474 29
	movl	24(%rbp), %eax
	andl	$32, %eax
	.loc 5 474 13
	testl	%eax, %eax
	je	.L127
	.loc 5 474 44 discriminator 1
	movq	-112(%rbp), %rax
	leaq	-112(%rbp), %rdx
	addq	$48, %rdx
	movq	%rax, %rcx
	call	StartsWith
	.loc 5 474 41 discriminator 1
	testl	%eax, %eax
	je	.L127
	.loc 5 476 22
	movq	-112(%rbp), %rdx
	.loc 5 476 30
	movl	-56(%rbp), %eax
	cltq
	.loc 5 476 22
	addq	%rax, %rax
	addq	%rdx, %rax
	movq	%rax, -112(%rbp)
	.loc 5 477 9
	leaq	-112(%rbp), %rax
	movq	%rax, %rcx
	call	ParseAsFractionPartNumberSequence
	.loc 5 478 28
	movl	24(%rbp), %eax
	andl	$2, %eax
	.loc 5 478 12
	testl	%eax, %eax
	je	.L128
	.loc 5 478 49 discriminator 1
	movq	-112(%rbp), %rax
	.loc 5 478 43 discriminator 1
	movzwl	(%rax), %eax
	.loc 5 478 40 discriminator 1
	cmpw	$32, %ax
	jne	.L128
	.loc 5 480 26
	movq	-112(%rbp), %rax
	addq	$2, %rax
	movq	%rax, -112(%rbp)
	.loc 5 481 32
	movl	24(%rbp), %eax
	andl	$256, %eax
	.loc 5 481 16
	testl	%eax, %eax
	je	.L129
	.loc 5 481 47 discriminator 1
	movq	-112(%rbp), %rax
	leaq	-112(%rbp), %rdx
	addq	$14, %rdx
	movq	%rax, %rcx
	call	StartsWith
	.loc 5 481 44 discriminator 1
	testl	%eax, %eax
	je	.L129
	.loc 5 483 30
	movq	-112(%rbp), %rdx
	.loc 5 483 38
	movl	-92(%rbp), %eax
	cltq
	.loc 5 483 30
	addq	%rax, %rax
	addq	%rdx, %rax
	movq	%rax, -112(%rbp)
	.loc 5 484 36
	movl	24(%rbp), %eax
	andl	$8, %eax
	.loc 5 484 20
	testl	%eax, %eax
	je	.L130
	.loc 5 484 51 discriminator 1
	movq	-112(%rbp), %rax
	leaq	-112(%rbp), %rdx
	addq	$24, %rdx
	movq	%rax, %rcx
	call	StartsWith
	.loc 5 484 48 discriminator 1
	testl	%eax, %eax
	je	.L130
	.loc 5 486 32
	movb	$1, -100(%rbp)
	.loc 5 487 34
	movq	-112(%rbp), %rdx
	.loc 5 487 42
	movl	-80(%rbp), %eax
	cltq
	.loc 5 487 34
	addq	%rax, %rax
	addq	%rdx, %rax
	movq	%rax, -112(%rbp)
	.loc 5 484 20
	jmp	.L160
.L130:
	.loc 5 489 41
	movl	24(%rbp), %eax
	andl	$8, %eax
	.loc 5 489 25
	testl	%eax, %eax
	je	.L160
	.loc 5 489 56 discriminator 1
	movq	-112(%rbp), %rax
	leaq	-112(%rbp), %rdx
	addq	$36, %rdx
	movq	%rax, %rcx
	call	StartsWith
	.loc 5 489 53 discriminator 1
	testl	%eax, %eax
	je	.L160
	.loc 5 491 32
	movb	$-1, -100(%rbp)
	.loc 5 492 34
	movq	-112(%rbp), %rdx
	.loc 5 492 42
	movl	-68(%rbp), %eax
	cltq
	.loc 5 492 34
	addq	%rax, %rax
	addq	%rdx, %rax
	movq	%rax, -112(%rbp)
	.loc 5 484 20
	jmp	.L160
.L129:
	.loc 5 500 36
	movl	24(%rbp), %eax
	andl	$8, %eax
	.loc 5 500 20
	testl	%eax, %eax
	je	.L133
	.loc 5 500 51 discriminator 1
	movq	-112(%rbp), %rax
	leaq	-112(%rbp), %rdx
	addq	$24, %rdx
	movq	%rax, %rcx
	call	StartsWith
	.loc 5 500 48 discriminator 1
	testl	%eax, %eax
	je	.L133
	.loc 5 502 32
	movb	$1, -100(%rbp)
	.loc 5 503 34
	movq	-112(%rbp), %rdx
	.loc 5 503 42
	movl	-80(%rbp), %eax
	cltq
	.loc 5 503 34
	addq	%rax, %rax
	addq	%rdx, %rax
	movq	%rax, -112(%rbp)
	jmp	.L132
.L133:
	.loc 5 505 41
	movl	24(%rbp), %eax
	andl	$8, %eax
	.loc 5 505 25
	testl	%eax, %eax
	je	.L161
	.loc 5 505 56 discriminator 1
	movq	-112(%rbp), %rax
	leaq	-112(%rbp), %rdx
	addq	$36, %rdx
	movq	%rax, %rcx
	call	StartsWith
	.loc 5 505 53 discriminator 1
	testl	%eax, %eax
	je	.L161
	.loc 5 507 32
	movb	$-1, -100(%rbp)
	.loc 5 508 34
	movq	-112(%rbp), %rdx
	.loc 5 508 42
	movl	-68(%rbp), %eax
	cltq
	.loc 5 508 34
	addq	%rax, %rax
	addq	%rdx, %rax
	movq	%rax, -112(%rbp)
	.loc 5 481 16
	jmp	.L161
.L160:
	.loc 5 484 20
	nop
.L132:
	.loc 5 481 16 discriminator 12
	jmp	.L161
.L128:
	.loc 5 515 33
	movl	24(%rbp), %eax
	andl	$256, %eax
	.loc 5 515 17
	testl	%eax, %eax
	je	.L135
	.loc 5 515 48 discriminator 1
	movq	-112(%rbp), %rax
	leaq	-112(%rbp), %rdx
	addq	$14, %rdx
	movq	%rax, %rcx
	call	StartsWith
	.loc 5 515 45 discriminator 1
	testl	%eax, %eax
	je	.L135
	.loc 5 517 26
	movq	-112(%rbp), %rdx
	.loc 5 517 34
	movl	-92(%rbp), %eax
	cltq
	.loc 5 517 26
	addq	%rax, %rax
	addq	%rdx, %rax
	movq	%rax, -112(%rbp)
	.loc 5 518 32
	movl	24(%rbp), %eax
	andl	$8, %eax
	.loc 5 518 16
	testl	%eax, %eax
	je	.L136
	.loc 5 518 47 discriminator 1
	movq	-112(%rbp), %rax
	leaq	-112(%rbp), %rdx
	addq	$24, %rdx
	movq	%rax, %rcx
	call	StartsWith
	.loc 5 518 44 discriminator 1
	testl	%eax, %eax
	je	.L136
	.loc 5 520 28
	movb	$1, -100(%rbp)
	.loc 5 521 30
	movq	-112(%rbp), %rdx
	.loc 5 521 38
	movl	-80(%rbp), %eax
	cltq
	.loc 5 521 30
	addq	%rax, %rax
	addq	%rdx, %rax
	movq	%rax, -112(%rbp)
	.loc 5 518 16
	jmp	.L162
.L136:
	.loc 5 523 37
	movl	24(%rbp), %eax
	andl	$8, %eax
	.loc 5 523 21
	testl	%eax, %eax
	je	.L162
	.loc 5 523 52 discriminator 1
	movq	-112(%rbp), %rax
	leaq	-112(%rbp), %rdx
	addq	$36, %rdx
	movq	%rax, %rcx
	call	StartsWith
	.loc 5 523 49 discriminator 1
	testl	%eax, %eax
	je	.L162
	.loc 5 525 28
	movb	$-1, -100(%rbp)
	.loc 5 526 30
	movq	-112(%rbp), %rdx
	.loc 5 526 38
	movl	-68(%rbp), %eax
	cltq
	.loc 5 526 30
	addq	%rax, %rax
	addq	%rdx, %rax
	movq	%rax, -112(%rbp)
	.loc 5 518 16
	jmp	.L162
.L135:
	.loc 5 532 33
	movl	24(%rbp), %eax
	andl	$8, %eax
	.loc 5 532 17
	testl	%eax, %eax
	je	.L138
	.loc 5 532 48 discriminator 1
	movq	-112(%rbp), %rax
	leaq	-112(%rbp), %rdx
	addq	$24, %rdx
	movq	%rax, %rcx
	call	StartsWith
	.loc 5 532 45 discriminator 1
	testl	%eax, %eax
	je	.L138
	.loc 5 534 24
	movb	$1, -100(%rbp)
	.loc 5 535 26
	movq	-112(%rbp), %rdx
	.loc 5 535 34
	movl	-80(%rbp), %eax
	cltq
	.loc 5 535 26
	addq	%rax, %rax
	addq	%rdx, %rax
	movq	%rax, -112(%rbp)
	.loc 5 536 32
	movl	24(%rbp), %eax
	andl	$256, %eax
	.loc 5 536 16
	testl	%eax, %eax
	je	.L163
	.loc 5 536 47 discriminator 1
	movq	-112(%rbp), %rax
	leaq	-112(%rbp), %rdx
	addq	$14, %rdx
	movq	%rax, %rcx
	call	StartsWith
	.loc 5 536 44 discriminator 1
	testl	%eax, %eax
	je	.L163
	.loc 5 537 30
	movq	-112(%rbp), %rdx
	.loc 5 537 38
	movl	-92(%rbp), %eax
	cltq
	.loc 5 537 30
	addq	%rax, %rax
	addq	%rdx, %rax
	movq	%rax, -112(%rbp)
	.loc 5 536 16
	jmp	.L163
.L138:
	.loc 5 539 33
	movl	24(%rbp), %eax
	andl	$8, %eax
	.loc 5 539 17
	testl	%eax, %eax
	je	.L164
	.loc 5 539 48 discriminator 1
	movq	-112(%rbp), %rax
	leaq	-112(%rbp), %rdx
	addq	$36, %rdx
	movq	%rax, %rcx
	call	StartsWith
	.loc 5 539 45 discriminator 1
	testl	%eax, %eax
	je	.L164
	.loc 5 541 24
	movb	$-1, -100(%rbp)
	.loc 5 542 26
	movq	-112(%rbp), %rdx
	.loc 5 542 34
	movl	-68(%rbp), %eax
	cltq
	.loc 5 542 26
	addq	%rax, %rax
	addq	%rdx, %rax
	movq	%rax, -112(%rbp)
	.loc 5 543 32
	movl	24(%rbp), %eax
	andl	$256, %eax
	.loc 5 543 16
	testl	%eax, %eax
	je	.L164
	.loc 5 543 47 discriminator 1
	movq	-112(%rbp), %rax
	leaq	-112(%rbp), %rdx
	addq	$14, %rdx
	movq	%rax, %rcx
	call	StartsWith
	.loc 5 543 44 discriminator 1
	testl	%eax, %eax
	je	.L164
	.loc 5 544 30
	movq	-112(%rbp), %rdx
	.loc 5 544 38
	movl	-92(%rbp), %eax
	cltq
	.loc 5 544 30
	addq	%rax, %rax
	addq	%rdx, %rax
	movq	%rax, -112(%rbp)
	.loc 5 478 12
	jmp	.L164
.L161:
	.loc 5 481 16
	nop
	jmp	.L164
.L162:
	.loc 5 518 16
	nop
	jmp	.L164
.L163:
	.loc 5 536 16
	nop
	.loc 5 478 12
	jmp	.L164
.L127:
	.loc 5 551 16
	movl	$0, %eax
	jmp	.L145
.L148:
	.loc 5 230 12
	nop
	jmp	.L81
.L152:
	.loc 5 320 12
	nop
	jmp	.L81
.L155:
	.loc 5 359 12
	nop
	jmp	.L81
.L157:
	.loc 5 405 16
	nop
	jmp	.L81
.L158:
	.loc 5 442 16
	nop
	jmp	.L81
.L159:
	.loc 5 460 16
	nop
	jmp	.L81
.L164:
	.loc 5 478 12
	nop
.L81:
	.loc 5 552 23
	movl	24(%rbp), %eax
	andl	$2, %eax
	.loc 5 552 8
	testl	%eax, %eax
	je	.L141
	.loc 5 553 9
	leaq	-112(%rbp), %rax
	movq	%rax, %rcx
	call	SkipSpace
.L141:
	.loc 5 554 15
	movq	-112(%rbp), %rax
	.loc 5 554 9
	movzwl	(%rax), %eax
	.loc 5 554 8
	testw	%ax, %ax
	je	.L142
	.loc 5 555 16
	movl	$0, %eax
	jmp	.L145
.L142:
	.loc 5 556 5
	leaq	-112(%rbp), %rax
	movq	%rax, %rcx
	call	FinalizeParserState
	.loc 5 558 18
	movzbl	-100(%rbp), %eax
	.loc 5 558 11
	testb	%al, %al
	jns	.L143
	.loc 5 558 11 is_stmt 0 discriminator 1
	movl	$-1, %edx
	jmp	.L144
.L143:
	.loc 5 558 11 discriminator 2
	movl	$1, %edx
.L144:
	.loc 5 558 11 discriminator 4
	movq	40(%rbp), %rax
	movb	%dl, (%rax)
	.loc 5 559 12 is_stmt 1 discriminator 4
	movl	$1, %eax
.L145:
	.loc 5 560 1 discriminator 17
	addq	$160, %rsp
	popq	%rbp
	.cfi_restore 6
	.cfi_def_cfa 7, 8
	ret
	.cfi_endproc
.LFE4383:
	.seh_endproc
	.def	ParseAsHexNumberString;	.scl	3;	.type	32;	.endef
	.seh_proc	ParseAsHexNumberString
ParseAsHexNumberString:
.LFB4384:
	.loc 5 564 1
	.cfi_startproc
	pushq	%rbp
	.seh_pushreg	%rbp
	.cfi_def_cfa_offset 16
	.cfi_offset 6, -16
	movq	%rsp, %rbp
	.seh_setframe	%rbp, 0
	.cfi_def_cfa_register 6
	subq	$160, %rsp
	.seh_stackalloc	160
	.seh_endprologue
	movq	%rcx, 16(%rbp)
	movl	%edx, 24(%rbp)
	movq	%r8, 32(%rbp)
	movq	%r9, 40(%rbp)
	.loc 5 566 5
	movq	32(%rbp), %r8
	movl	24(%rbp), %ecx
	leaq	-112(%rbp), %rax
	movq	$0, 40(%rsp)
	movq	40(%rbp), %rdx
	movq	%rdx, 32(%rsp)
	movq	%r8, %r9
	movl	%ecx, %r8d
	movq	16(%rbp), %rdx
	movq	%rax, %rcx
	call	InitializeParserState
	.loc 5 567 23
	movl	24(%rbp), %eax
	andl	$1, %eax
	.loc 5 567 8
	testl	%eax, %eax
	je	.L166
	.loc 5 568 9
	leaq	-112(%rbp), %rax
	movq	%rax, %rcx
	call	SkipSpace
.L166:
	.loc 5 569 5
	leaq	-112(%rbp), %rax
	movq	%rax, %rcx
	call	ParseAsIntegerPartNumberSequence
	.loc 5 570 23
	movl	24(%rbp), %eax
	andl	$2, %eax
	.loc 5 570 8
	testl	%eax, %eax
	je	.L167
	.loc 5 571 9
	leaq	-112(%rbp), %rax
	movq	%rax, %rcx
	call	SkipSpace
.L167:
	.loc 5 572 15
	movq	-112(%rbp), %rax
	.loc 5 572 9
	movzwl	(%rax), %eax
	.loc 5 572 8
	testw	%ax, %ax
	je	.L168
	.loc 5 573 16
	movl	$0, %eax
	jmp	.L170
.L168:
	.loc 5 574 5
	leaq	-112(%rbp), %rax
	movq	%rax, %rcx
	call	FinalizeParserState
	.loc 5 575 12
	movl	$1, %eax
.L170:
	.loc 5 576 1 discriminator 1
	addq	$160, %rsp
	popq	%rbp
	.cfi_restore 6
	.cfi_def_cfa 7, 8
	ret
	.cfi_endproc
.LFE4384:
	.seh_endproc
	.def	BuildLeading1WordFromDecimalString;	.scl	3;	.type	32;	.endef
	.seh_proc	BuildLeading1WordFromDecimalString
BuildLeading1WordFromDecimalString:
.LFB4385:
	.loc 5 579 1
	.cfi_startproc
	pushq	%rbp
	.seh_pushreg	%rbp
	.cfi_def_cfa_offset 16
	.cfi_offset 6, -16
	pushq	%rbx
	.seh_pushreg	%rbx
	.cfi_def_cfa_offset 24
	.cfi_offset 3, -24
	subq	$56, %rsp
	.seh_stackalloc	56
	.cfi_def_cfa_offset 80
	leaq	128(%rsp), %rbp
	.seh_setframe	%rbp, 128
	.cfi_def_cfa 6, -48
	.seh_endprologue
	movq	%rcx, -48(%rbp)
	movq	%rdx, -40(%rbp)
	.loc 5 580 17
	movq	$0, -88(%rbp)
	.loc 5 581 11
	jmp	.L172
.L173:
	.loc 5 583 15
	movq	-88(%rbp), %rdx
	movq	%rdx, %rax
	salq	$2, %rax
	addq	%rdx, %rax
	addq	%rax, %rax
	movq	%rax, %rbx
	.loc 5 583 47
	movq	-48(%rbp), %rax
	leaq	2(%rax), %rdx
	movq	%rdx, -48(%rbp)
	.loc 5 583 40
	movzwl	(%rax), %eax
	.loc 5 583 22
	movzwl	%ax, %eax
	movl	%eax, %ecx
	call	ParseDecimalDigit
	cltq
	.loc 5 583 11
	addq	%rbx, %rax
	movq	%rax, -88(%rbp)
	.loc 5 584 9
	subq	$1, -40(%rbp)
.L172:
	.loc 5 581 11
	cmpq	$0, -40(%rbp)
	jne	.L173
	.loc 5 586 12
	movq	-88(%rbp), %rax
	.loc 5 587 1
	addq	$56, %rsp
	popq	%rbx
	.cfi_restore 3
	popq	%rbp
	.cfi_restore 6
	.cfi_def_cfa 7, -40
	ret
	.cfi_endproc
.LFE4385:
	.seh_endproc
	.def	Build1WordFromDecimalString;	.scl	3;	.type	32;	.endef
	.seh_proc	Build1WordFromDecimalString
Build1WordFromDecimalString:
.LFB4386:
	.loc 5 590 1
	.cfi_startproc
	pushq	%rbp
	.seh_pushreg	%rbp
	.cfi_def_cfa_offset 16
	.cfi_offset 6, -16
	pushq	%rbx
	.seh_pushreg	%rbx
	.cfi_def_cfa_offset 24
	.cfi_offset 3, -24
	subq	$56, %rsp
	.seh_stackalloc	56
	.cfi_def_cfa_offset 80
	leaq	128(%rsp), %rbp
	.seh_setframe	%rbp, 128
	.cfi_def_cfa 6, -48
	.seh_endprologue
	movq	%rcx, -48(%rbp)
	.loc 5 591 46
	movq	-48(%rbp), %rax
	leaq	2(%rax), %rdx
	movq	%rdx, -48(%rbp)
	.loc 5 591 39
	movzwl	(%rax), %eax
	.loc 5 591 21
	movzwl	%ax, %eax
	movl	%eax, %ecx
	call	ParseDecimalDigit
	.loc 5 591 17
	cltq
	movq	%rax, -88(%rbp)
	.loc 5 594 15
	movq	-88(%rbp), %rdx
	movq	%rdx, %rax
	salq	$2, %rax
	addq	%rdx, %rax
	addq	%rax, %rax
	movq	%rax, %rbx
	.loc 5 594 47
	movq	-48(%rbp), %rax
	leaq	2(%rax), %rdx
	movq	%rdx, -48(%rbp)
	.loc 5 594 40
	movzwl	(%rax), %eax
	.loc 5 594 22
	movzwl	%ax, %eax
	movl	%eax, %ecx
	call	ParseDecimalDigit
	cltq
	.loc 5 594 11
	addq	%rbx, %rax
	movq	%rax, -88(%rbp)
	.loc 5 595 15
	movq	-88(%rbp), %rdx
	movq	%rdx, %rax
	salq	$2, %rax
	addq	%rdx, %rax
	addq	%rax, %rax
	movq	%rax, %rbx
	.loc 5 595 47
	movq	-48(%rbp), %rax
	leaq	2(%rax), %rdx
	movq	%rdx, -48(%rbp)
	.loc 5 595 40
	movzwl	(%rax), %eax
	.loc 5 595 22
	movzwl	%ax, %eax
	movl	%eax, %ecx
	call	ParseDecimalDigit
	cltq
	.loc 5 595 11
	addq	%rbx, %rax
	movq	%rax, -88(%rbp)
	.loc 5 596 15
	movq	-88(%rbp), %rdx
	movq	%rdx, %rax
	salq	$2, %rax
	addq	%rdx, %rax
	addq	%rax, %rax
	movq	%rax, %rbx
	.loc 5 596 47
	movq	-48(%rbp), %rax
	leaq	2(%rax), %rdx
	movq	%rdx, -48(%rbp)
	.loc 5 596 40
	movzwl	(%rax), %eax
	.loc 5 596 22
	movzwl	%ax, %eax
	movl	%eax, %ecx
	call	ParseDecimalDigit
	cltq
	.loc 5 596 11
	addq	%rbx, %rax
	movq	%rax, -88(%rbp)
	.loc 5 597 15
	movq	-88(%rbp), %rdx
	movq	%rdx, %rax
	salq	$2, %rax
	addq	%rdx, %rax
	addq	%rax, %rax
	movq	%rax, %rbx
	.loc 5 597 47
	movq	-48(%rbp), %rax
	leaq	2(%rax), %rdx
	movq	%rdx, -48(%rbp)
	.loc 5 597 40
	movzwl	(%rax), %eax
	.loc 5 597 22
	movzwl	%ax, %eax
	movl	%eax, %ecx
	call	ParseDecimalDigit
	cltq
	.loc 5 597 11
	addq	%rbx, %rax
	movq	%rax, -88(%rbp)
	.loc 5 598 15
	movq	-88(%rbp), %rdx
	movq	%rdx, %rax
	salq	$2, %rax
	addq	%rdx, %rax
	addq	%rax, %rax
	movq	%rax, %rbx
	.loc 5 598 47
	movq	-48(%rbp), %rax
	leaq	2(%rax), %rdx
	movq	%rdx, -48(%rbp)
	.loc 5 598 40
	movzwl	(%rax), %eax
	.loc 5 598 22
	movzwl	%ax, %eax
	movl	%eax, %ecx
	call	ParseDecimalDigit
	cltq
	.loc 5 598 11
	addq	%rbx, %rax
	movq	%rax, -88(%rbp)
	.loc 5 599 15
	movq	-88(%rbp), %rdx
	movq	%rdx, %rax
	salq	$2, %rax
	addq	%rdx, %rax
	addq	%rax, %rax
	movq	%rax, %rbx
	.loc 5 599 47
	movq	-48(%rbp), %rax
	leaq	2(%rax), %rdx
	movq	%rdx, -48(%rbp)
	.loc 5 599 40
	movzwl	(%rax), %eax
	.loc 5 599 22
	movzwl	%ax, %eax
	movl	%eax, %ecx
	call	ParseDecimalDigit
	cltq
	.loc 5 599 11
	addq	%rbx, %rax
	movq	%rax, -88(%rbp)
	.loc 5 600 15
	movq	-88(%rbp), %rdx
	movq	%rdx, %rax
	salq	$2, %rax
	addq	%rdx, %rax
	addq	%rax, %rax
	movq	%rax, %rbx
	.loc 5 600 47
	movq	-48(%rbp), %rax
	leaq	2(%rax), %rdx
	movq	%rdx, -48(%rbp)
	.loc 5 600 40
	movzwl	(%rax), %eax
	.loc 5 600 22
	movzwl	%ax, %eax
	movl	%eax, %ecx
	call	ParseDecimalDigit
	cltq
	.loc 5 600 11
	addq	%rbx, %rax
	movq	%rax, -88(%rbp)
	.loc 5 601 15
	movq	-88(%rbp), %rdx
	movq	%rdx, %rax
	salq	$2, %rax
	addq	%rdx, %rax
	addq	%rax, %rax
	movq	%rax, %rbx
	.loc 5 601 47
	movq	-48(%rbp), %rax
	leaq	2(%rax), %rdx
	movq	%rdx, -48(%rbp)
	.loc 5 601 40
	movzwl	(%rax), %eax
	.loc 5 601 22
	movzwl	%ax, %eax
	movl	%eax, %ecx
	call	ParseDecimalDigit
	cltq
	.loc 5 601 11
	addq	%rbx, %rax
	movq	%rax, -88(%rbp)
	.loc 5 602 15
	movq	-88(%rbp), %rdx
	movq	%rdx, %rax
	salq	$2, %rax
	addq	%rdx, %rax
	addq	%rax, %rax
	movq	%rax, %rbx
	.loc 5 602 47
	movq	-48(%rbp), %rax
	leaq	2(%rax), %rdx
	movq	%rdx, -48(%rbp)
	.loc 5 602 40
	movzwl	(%rax), %eax
	.loc 5 602 22
	movzwl	%ax, %eax
	movl	%eax, %ecx
	call	ParseDecimalDigit
	cltq
	.loc 5 602 11
	addq	%rbx, %rax
	movq	%rax, -88(%rbp)
	.loc 5 603 15
	movq	-88(%rbp), %rdx
	movq	%rdx, %rax
	salq	$2, %rax
	addq	%rdx, %rax
	addq	%rax, %rax
	movq	%rax, %rbx
	.loc 5 603 47
	movq	-48(%rbp), %rax
	leaq	2(%rax), %rdx
	movq	%rdx, -48(%rbp)
	.loc 5 603 40
	movzwl	(%rax), %eax
	.loc 5 603 22
	movzwl	%ax, %eax
	movl	%eax, %ecx
	call	ParseDecimalDigit
	cltq
	.loc 5 603 11
	addq	%rbx, %rax
	movq	%rax, -88(%rbp)
	.loc 5 607 15
	movq	-88(%rbp), %rdx
	movq	%rdx, %rax
	salq	$2, %rax
	addq	%rdx, %rax
	addq	%rax, %rax
	movq	%rax, %rbx
	.loc 5 607 47
	movq	-48(%rbp), %rax
	leaq	2(%rax), %rdx
	movq	%rdx, -48(%rbp)
	.loc 5 607 40
	movzwl	(%rax), %eax
	.loc 5 607 22
	movzwl	%ax, %eax
	movl	%eax, %ecx
	call	ParseDecimalDigit
	cltq
	.loc 5 607 11
	addq	%rbx, %rax
	movq	%rax, -88(%rbp)
	.loc 5 608 15
	movq	-88(%rbp), %rdx
	movq	%rdx, %rax
	salq	$2, %rax
	addq	%rdx, %rax
	addq	%rax, %rax
	movq	%rax, %rbx
	.loc 5 608 47
	movq	-48(%rbp), %rax
	leaq	2(%rax), %rdx
	movq	%rdx, -48(%rbp)
	.loc 5 608 40
	movzwl	(%rax), %eax
	.loc 5 608 22
	movzwl	%ax, %eax
	movl	%eax, %ecx
	call	ParseDecimalDigit
	cltq
	.loc 5 608 11
	addq	%rbx, %rax
	movq	%rax, -88(%rbp)
	.loc 5 609 15
	movq	-88(%rbp), %rdx
	movq	%rdx, %rax
	salq	$2, %rax
	addq	%rdx, %rax
	addq	%rax, %rax
	movq	%rax, %rbx
	.loc 5 609 47
	movq	-48(%rbp), %rax
	leaq	2(%rax), %rdx
	movq	%rdx, -48(%rbp)
	.loc 5 609 40
	movzwl	(%rax), %eax
	.loc 5 609 22
	movzwl	%ax, %eax
	movl	%eax, %ecx
	call	ParseDecimalDigit
	cltq
	.loc 5 609 11
	addq	%rbx, %rax
	movq	%rax, -88(%rbp)
	.loc 5 610 15
	movq	-88(%rbp), %rdx
	movq	%rdx, %rax
	salq	$2, %rax
	addq	%rdx, %rax
	addq	%rax, %rax
	movq	%rax, %rbx
	.loc 5 610 47
	movq	-48(%rbp), %rax
	leaq	2(%rax), %rdx
	movq	%rdx, -48(%rbp)
	.loc 5 610 40
	movzwl	(%rax), %eax
	.loc 5 610 22
	movzwl	%ax, %eax
	movl	%eax, %ecx
	call	ParseDecimalDigit
	cltq
	.loc 5 610 11
	addq	%rbx, %rax
	movq	%rax, -88(%rbp)
	.loc 5 611 15
	movq	-88(%rbp), %rdx
	movq	%rdx, %rax
	salq	$2, %rax
	addq	%rdx, %rax
	addq	%rax, %rax
	movq	%rax, %rbx
	.loc 5 611 47
	movq	-48(%rbp), %rax
	leaq	2(%rax), %rdx
	movq	%rdx, -48(%rbp)
	.loc 5 611 40
	movzwl	(%rax), %eax
	.loc 5 611 22
	movzwl	%ax, %eax
	movl	%eax, %ecx
	call	ParseDecimalDigit
	cltq
	.loc 5 611 11
	addq	%rbx, %rax
	movq	%rax, -88(%rbp)
	.loc 5 615 15
	movq	-88(%rbp), %rdx
	movq	%rdx, %rax
	salq	$2, %rax
	addq	%rdx, %rax
	addq	%rax, %rax
	movq	%rax, %rbx
	.loc 5 615 47
	movq	-48(%rbp), %rax
	leaq	2(%rax), %rdx
	movq	%rdx, -48(%rbp)
	.loc 5 615 40
	movzwl	(%rax), %eax
	.loc 5 615 22
	movzwl	%ax, %eax
	movl	%eax, %ecx
	call	ParseDecimalDigit
	cltq
	.loc 5 615 11
	addq	%rbx, %rax
	movq	%rax, -88(%rbp)
	.loc 5 616 15
	movq	-88(%rbp), %rdx
	movq	%rdx, %rax
	salq	$2, %rax
	addq	%rdx, %rax
	addq	%rax, %rax
	movq	%rax, %rbx
	.loc 5 616 47
	movq	-48(%rbp), %rax
	leaq	2(%rax), %rdx
	movq	%rdx, -48(%rbp)
	.loc 5 616 40
	movzwl	(%rax), %eax
	.loc 5 616 22
	movzwl	%ax, %eax
	movl	%eax, %ecx
	call	ParseDecimalDigit
	cltq
	.loc 5 616 11
	addq	%rbx, %rax
	movq	%rax, -88(%rbp)
	.loc 5 620 15
	movq	-88(%rbp), %rdx
	movq	%rdx, %rax
	salq	$2, %rax
	addq	%rdx, %rax
	addq	%rax, %rax
	movq	%rax, %rbx
	.loc 5 620 47
	movq	-48(%rbp), %rax
	leaq	2(%rax), %rdx
	movq	%rdx, -48(%rbp)
	.loc 5 620 40
	movzwl	(%rax), %eax
	.loc 5 620 22
	movzwl	%ax, %eax
	movl	%eax, %ecx
	call	ParseDecimalDigit
	cltq
	.loc 5 620 11
	addq	%rbx, %rax
	movq	%rax, -88(%rbp)
	.loc 5 622 12
	movq	-88(%rbp), %rax
	.loc 5 623 1
	addq	$56, %rsp
	popq	%rbx
	.cfi_restore 3
	popq	%rbp
	.cfi_restore 6
	.cfi_def_cfa 7, -40
	ret
	.cfi_endproc
.LFE4386:
	.seh_endproc
	.def	BuildBinaryFromDecimalString;	.scl	3;	.type	32;	.endef
	.seh_proc	BuildBinaryFromDecimalString
BuildBinaryFromDecimalString:
.LFB4387:
	.loc 5 627 1
	.cfi_startproc
	pushq	%rbp
	.seh_pushreg	%rbp
	.cfi_def_cfa_offset 16
	.cfi_offset 6, -16
	pushq	%rbx
	.seh_pushreg	%rbx
	.cfi_def_cfa_offset 24
	.cfi_offset 3, -24
	subq	$72, %rsp
	.seh_stackalloc	72
	.cfi_def_cfa_offset 96
	leaq	128(%rsp), %rbp
	.seh_setframe	%rbp, 128
	.cfi_def_cfa 6, -32
	.seh_endprologue
	movq	%rcx, -32(%rbp)
	movq	%rdx, -24(%rbp)
	movq	%r8, -16(%rbp)
	.loc 5 631 9
	movl	$19, -92(%rbp)
	.loc 5 635 14
	movq	-32(%rbp), %rax
	movq	%rax, -72(%rbp)
	.loc 5 636 18
	movq	-24(%rbp), %rax
	movq	%rax, -80(%rbp)
	.loc 5 637 32
	movq	-32(%rbp), %rcx
	movq	__imp_lstrlenW(%rip), %rax
	call	*%rax
.LVL10:
	.loc 5 637 17
	cltq
	movq	%rax, -88(%rbp)
	.loc 5 638 26
	movl	-92(%rbp), %eax
	movslq	%eax, %rcx
	movq	-88(%rbp), %rax
	movl	$0, %edx
	divq	%rcx
	movq	%rdx, %rax
	.loc 5 638 9
	movl	%eax, -96(%rbp)
	.loc 5 639 8
	cmpl	$0, -96(%rbp)
	jle	.L179
	.loc 5 641 22
	movl	-96(%rbp), %eax
	cltq
	.loc 5 641 17
	movq	-80(%rbp), %rbx
	leaq	8(%rbx), %rdx
	movq	%rdx, -80(%rbp)
	.loc 5 641 22
	movq	-72(%rbp), %rcx
	movq	%rax, %rdx
	call	BuildLeading1WordFromDecimalString
	.loc 5 641 20
	movq	%rax, (%rbx)
	.loc 5 642 16
	movl	-96(%rbp), %eax
	cltq
	addq	%rax, %rax
	addq	%rax, -72(%rbp)
	.loc 5 643 22
	movl	-96(%rbp), %eax
	cltq
	subq	%rax, -88(%rbp)
	.loc 5 645 11
	jmp	.L179
.L180:
	.loc 5 647 17
	movq	-80(%rbp), %rbx
	leaq	8(%rbx), %rax
	movq	%rax, -80(%rbp)
	.loc 5 647 22
	movq	-72(%rbp), %rax
	movq	%rax, %rcx
	call	Build1WordFromDecimalString
	.loc 5 647 20
	movq	%rax, (%rbx)
	.loc 5 648 16
	movl	-92(%rbp), %eax
	cltq
	addq	%rax, %rax
	addq	%rax, -72(%rbp)
	.loc 5 649 22
	movl	-92(%rbp), %eax
	cltq
	subq	%rax, -88(%rbp)
.L179:
	.loc 5 645 11
	cmpq	$0, -88(%rbp)
	jne	.L180
	.loc 5 651 30
	movq	-80(%rbp), %rax
	subq	-24(%rbp), %rax
	sarq	$3, %rax
	movq	%rax, %rdx
	.loc 5 651 20
	movq	-16(%rbp), %rax
	movq	%rdx, (%rax)
	.loc 5 652 1
	nop
	addq	$72, %rsp
	popq	%rbx
	.cfi_restore 3
	popq	%rbp
	.cfi_restore 6
	.cfi_def_cfa 7, -56
	ret
	.cfi_endproc
.LFE4387:
	.seh_endproc
	.def	MultiplyAndAdd1Word_using_ADC_MUL;	.scl	3;	.type	32;	.endef
	.seh_proc	MultiplyAndAdd1Word_using_ADC_MUL
MultiplyAndAdd1Word_using_ADC_MUL:
.LFB4388:
	.loc 5 655 1
	.cfi_startproc
	pushq	%rbp
	.seh_pushreg	%rbp
	.cfi_def_cfa_offset 16
	.cfi_offset 6, -16
	pushq	%rbx
	.seh_pushreg	%rbx
	.cfi_def_cfa_offset 24
	.cfi_offset 3, -24
	subq	$72, %rsp
	.seh_stackalloc	72
	.cfi_def_cfa_offset 96
	leaq	128(%rsp), %rbp
	.seh_setframe	%rbp, 128
	.cfi_def_cfa 6, -32
	.seh_endprologue
	movq	%rcx, -32(%rbp)
	movq	%rdx, -24(%rbp)
	movq	%r8, -16(%rbp)
	.loc 5 659 17
	movabsq	$-8446744073709551616, %rax
	movq	%rax, -72(%rbp)
	.loc 5 664 24
	leaq	-88(%rbp), %rcx
	movq	-72(%rbp), %rdx
	movq	-24(%rbp), %rax
	movq	%rcx, %r8
	movq	%rax, %rcx
	call	_MULTIPLY_UNIT
	movq	%rax, -80(%rbp)
	.loc 5 665 5
	movq	-88(%rbp), %rbx
	.loc 5 665 15
	movq	-32(%rbp), %rdx
	movq	-16(%rbp), %rcx
	movq	-80(%rbp), %rax
	movq	%rcx, %r9
	movq	%rdx, %r8
	movq	%rax, %rdx
	movl	$0, %ecx
	call	_ADD_UNIT
	.loc 5 665 5
	movsbl	%al, %eax
	leaq	-32(%rbp), %r9
	movl	$0, %r8d
	movq	%rbx, %rdx
	movl	%eax, %ecx
	call	_ADD_UNIT
	.loc 5 666 12
	movq	-32(%rbp), %rax
	.loc 5 667 1
	addq	$72, %rsp
	popq	%rbx
	.cfi_restore 3
	popq	%rbp
	.cfi_restore 6
	.cfi_def_cfa 7, -56
	ret
	.cfi_endproc
.LFE4388:
	.seh_endproc
	.def	MultiplyAndAdd1Word_using_ADCX_MULX;	.scl	3;	.type	32;	.endef
	.seh_proc	MultiplyAndAdd1Word_using_ADCX_MULX
MultiplyAndAdd1Word_using_ADCX_MULX:
.LFB4389:
	.loc 5 670 1
	.cfi_startproc
	pushq	%rbp
	.seh_pushreg	%rbp
	.cfi_def_cfa_offset 16
	.cfi_offset 6, -16
	pushq	%rbx
	.seh_pushreg	%rbx
	.cfi_def_cfa_offset 24
	.cfi_offset 3, -24
	subq	$72, %rsp
	.seh_stackalloc	72
	.cfi_def_cfa_offset 96
	leaq	128(%rsp), %rbp
	.seh_setframe	%rbp, 128
	.cfi_def_cfa 6, -32
	.seh_endprologue
	movq	%rcx, -32(%rbp)
	movq	%rdx, -24(%rbp)
	movq	%r8, -16(%rbp)
	.loc 5 674 17
	movabsq	$-8446744073709551616, %rax
	movq	%rax, -72(%rbp)
	.loc 5 679 24
	leaq	-88(%rbp), %rcx
	movq	-72(%rbp), %rdx
	movq	-24(%rbp), %rax
	movq	%rcx, %r8
	movq	%rax, %rcx
	call	_MULTIPLYX_UNIT
	movq	%rax, -80(%rbp)
	.loc 5 680 5
	movq	-88(%rbp), %rbx
	.loc 5 680 16
	movq	-32(%rbp), %rdx
	movq	-16(%rbp), %rcx
	movq	-80(%rbp), %rax
	movq	%rcx, %r9
	movq	%rdx, %r8
	movq	%rax, %rdx
	movl	$0, %ecx
	call	_ADDX_UNIT
	.loc 5 680 5
	movsbl	%al, %eax
	leaq	-32(%rbp), %r9
	movl	$0, %r8d
	movq	%rbx, %rdx
	movl	%eax, %ecx
	call	_ADDX_UNIT
	.loc 5 681 12
	movq	-32(%rbp), %rax
	.loc 5 682 1
	addq	$72, %rsp
	popq	%rbx
	.cfi_restore 3
	popq	%rbp
	.cfi_restore 6
	.cfi_def_cfa 7, -56
	ret
	.cfi_endproc
.LFE4389:
	.seh_endproc
	.def	MultiplyAndAdd_using_ADC_MUL;	.scl	3;	.type	32;	.endef
	.seh_proc	MultiplyAndAdd_using_ADC_MUL
MultiplyAndAdd_using_ADC_MUL:
.LFB4390:
	.loc 5 685 1
	.cfi_startproc
	pushq	%rbp
	.seh_pushreg	%rbp
	.cfi_def_cfa_offset 16
	.cfi_offset 6, -16
	movq	%rsp, %rbp
	.seh_setframe	%rbp, 0
	.cfi_def_cfa_register 6
	subq	$48, %rsp
	.seh_stackalloc	48
	.seh_endprologue
	movq	%rcx, 16(%rbp)
	movq	%rdx, 24(%rbp)
	movq	%r8, 32(%rbp)
	.loc 5 686 17
	movq	32(%rbp), %rax
	movq	%rax, -8(%rbp)
	.loc 5 687 17
	movq	24(%rbp), %rax
	shrq	$5, %rax
	movq	%rax, -16(%rbp)
	.loc 5 688 11
	jmp	.L186
.L187:
	.loc 5 690 13
	movq	16(%rbp), %rax
	movq	(%rax), %rdx
	movq	-8(%rbp), %rax
	movq	16(%rbp), %r8
	movq	%rax, %rcx
	call	MultiplyAndAdd1Word_using_ADC_MUL
	movq	%rax, -8(%rbp)
	.loc 5 691 13
	movq	16(%rbp), %rax
	leaq	8(%rax), %rcx
	.loc 5 691 55
	movq	16(%rbp), %rax
	addq	$8, %rax
	.loc 5 691 13
	movq	(%rax), %rdx
	movq	-8(%rbp), %rax
	movq	%rcx, %r8
	movq	%rax, %rcx
	call	MultiplyAndAdd1Word_using_ADC_MUL
	movq	%rax, -8(%rbp)
	.loc 5 692 13
	movq	16(%rbp), %rax
	leaq	16(%rax), %rcx
	.loc 5 692 55
	movq	16(%rbp), %rax
	addq	$16, %rax
	.loc 5 692 13
	movq	(%rax), %rdx
	movq	-8(%rbp), %rax
	movq	%rcx, %r8
	movq	%rax, %rcx
	call	MultiplyAndAdd1Word_using_ADC_MUL
	movq	%rax, -8(%rbp)
	.loc 5 693 13
	movq	16(%rbp), %rax
	leaq	24(%rax), %rcx
	.loc 5 693 55
	movq	16(%rbp), %rax
	addq	$24, %rax
	.loc 5 693 13
	movq	(%rax), %rdx
	movq	-8(%rbp), %rax
	movq	%rcx, %r8
	movq	%rax, %rcx
	call	MultiplyAndAdd1Word_using_ADC_MUL
	movq	%rax, -8(%rbp)
	.loc 5 694 13
	movq	16(%rbp), %rax
	leaq	32(%rax), %rcx
	.loc 5 694 55
	movq	16(%rbp), %rax
	addq	$32, %rax
	.loc 5 694 13
	movq	(%rax), %rdx
	movq	-8(%rbp), %rax
	movq	%rcx, %r8
	movq	%rax, %rcx
	call	MultiplyAndAdd1Word_using_ADC_MUL
	movq	%rax, -8(%rbp)
	.loc 5 695 13
	movq	16(%rbp), %rax
	leaq	40(%rax), %rcx
	.loc 5 695 55
	movq	16(%rbp), %rax
	addq	$40, %rax
	.loc 5 695 13
	movq	(%rax), %rdx
	movq	-8(%rbp), %rax
	movq	%rcx, %r8
	movq	%rax, %rcx
	call	MultiplyAndAdd1Word_using_ADC_MUL
	movq	%rax, -8(%rbp)
	.loc 5 696 13
	movq	16(%rbp), %rax
	leaq	48(%rax), %rcx
	.loc 5 696 55
	movq	16(%rbp), %rax
	addq	$48, %rax
	.loc 5 696 13
	movq	(%rax), %rdx
	movq	-8(%rbp), %rax
	movq	%rcx, %r8
	movq	%rax, %rcx
	call	MultiplyAndAdd1Word_using_ADC_MUL
	movq	%rax, -8(%rbp)
	.loc 5 697 13
	movq	16(%rbp), %rax
	leaq	56(%rax), %rcx
	.loc 5 697 55
	movq	16(%rbp), %rax
	addq	$56, %rax
	.loc 5 697 13
	movq	(%rax), %rdx
	movq	-8(%rbp), %rax
	movq	%rcx, %r8
	movq	%rax, %rcx
	call	MultiplyAndAdd1Word_using_ADC_MUL
	movq	%rax, -8(%rbp)
	.loc 5 698 13
	movq	16(%rbp), %rax
	leaq	64(%rax), %rcx
	.loc 5 698 55
	movq	16(%rbp), %rax
	addq	$64, %rax
	.loc 5 698 13
	movq	(%rax), %rdx
	movq	-8(%rbp), %rax
	movq	%rcx, %r8
	movq	%rax, %rcx
	call	MultiplyAndAdd1Word_using_ADC_MUL
	movq	%rax, -8(%rbp)
	.loc 5 699 13
	movq	16(%rbp), %rax
	leaq	72(%rax), %rcx
	.loc 5 699 55
	movq	16(%rbp), %rax
	addq	$72, %rax
	.loc 5 699 13
	movq	(%rax), %rdx
	movq	-8(%rbp), %rax
	movq	%rcx, %r8
	movq	%rax, %rcx
	call	MultiplyAndAdd1Word_using_ADC_MUL
	movq	%rax, -8(%rbp)
	.loc 5 700 13
	movq	16(%rbp), %rax
	leaq	80(%rax), %rcx
	.loc 5 700 55
	movq	16(%rbp), %rax
	addq	$80, %rax
	.loc 5 700 13
	movq	(%rax), %rdx
	movq	-8(%rbp), %rax
	movq	%rcx, %r8
	movq	%rax, %rcx
	call	MultiplyAndAdd1Word_using_ADC_MUL
	movq	%rax, -8(%rbp)
	.loc 5 701 13
	movq	16(%rbp), %rax
	leaq	88(%rax), %rcx
	.loc 5 701 55
	movq	16(%rbp), %rax
	addq	$88, %rax
	.loc 5 701 13
	movq	(%rax), %rdx
	movq	-8(%rbp), %rax
	movq	%rcx, %r8
	movq	%rax, %rcx
	call	MultiplyAndAdd1Word_using_ADC_MUL
	movq	%rax, -8(%rbp)
	.loc 5 702 13
	movq	16(%rbp), %rax
	leaq	96(%rax), %rcx
	.loc 5 702 55
	movq	16(%rbp), %rax
	addq	$96, %rax
	.loc 5 702 13
	movq	(%rax), %rdx
	movq	-8(%rbp), %rax
	movq	%rcx, %r8
	movq	%rax, %rcx
	call	MultiplyAndAdd1Word_using_ADC_MUL
	movq	%rax, -8(%rbp)
	.loc 5 703 13
	movq	16(%rbp), %rax
	leaq	104(%rax), %rcx
	.loc 5 703 55
	movq	16(%rbp), %rax
	addq	$104, %rax
	.loc 5 703 13
	movq	(%rax), %rdx
	movq	-8(%rbp), %rax
	movq	%rcx, %r8
	movq	%rax, %rcx
	call	MultiplyAndAdd1Word_using_ADC_MUL
	movq	%rax, -8(%rbp)
	.loc 5 704 13
	movq	16(%rbp), %rax
	leaq	112(%rax), %rcx
	.loc 5 704 55
	movq	16(%rbp), %rax
	addq	$112, %rax
	.loc 5 704 13
	movq	(%rax), %rdx
	movq	-8(%rbp), %rax
	movq	%rcx, %r8
	movq	%rax, %rcx
	call	MultiplyAndAdd1Word_using_ADC_MUL
	movq	%rax, -8(%rbp)
	.loc 5 705 13
	movq	16(%rbp), %rax
	leaq	120(%rax), %rcx
	.loc 5 705 55
	movq	16(%rbp), %rax
	addq	$120, %rax
	.loc 5 705 13
	movq	(%rax), %rdx
	movq	-8(%rbp), %rax
	movq	%rcx, %r8
	movq	%rax, %rcx
	call	MultiplyAndAdd1Word_using_ADC_MUL
	movq	%rax, -8(%rbp)
	.loc 5 706 13
	movq	16(%rbp), %rax
	leaq	128(%rax), %rcx
	.loc 5 706 55
	movq	16(%rbp), %rax
	subq	$-128, %rax
	.loc 5 706 13
	movq	(%rax), %rdx
	movq	-8(%rbp), %rax
	movq	%rcx, %r8
	movq	%rax, %rcx
	call	MultiplyAndAdd1Word_using_ADC_MUL
	movq	%rax, -8(%rbp)
	.loc 5 707 13
	movq	16(%rbp), %rax
	leaq	136(%rax), %rcx
	.loc 5 707 55
	movq	16(%rbp), %rax
	addq	$136, %rax
	.loc 5 707 13
	movq	(%rax), %rdx
	movq	-8(%rbp), %rax
	movq	%rcx, %r8
	movq	%rax, %rcx
	call	MultiplyAndAdd1Word_using_ADC_MUL
	movq	%rax, -8(%rbp)
	.loc 5 708 13
	movq	16(%rbp), %rax
	leaq	144(%rax), %rcx
	.loc 5 708 55
	movq	16(%rbp), %rax
	addq	$144, %rax
	.loc 5 708 13
	movq	(%rax), %rdx
	movq	-8(%rbp), %rax
	movq	%rcx, %r8
	movq	%rax, %rcx
	call	MultiplyAndAdd1Word_using_ADC_MUL
	movq	%rax, -8(%rbp)
	.loc 5 709 13
	movq	16(%rbp), %rax
	leaq	152(%rax), %rcx
	.loc 5 709 55
	movq	16(%rbp), %rax
	addq	$152, %rax
	.loc 5 709 13
	movq	(%rax), %rdx
	movq	-8(%rbp), %rax
	movq	%rcx, %r8
	movq	%rax, %rcx
	call	MultiplyAndAdd1Word_using_ADC_MUL
	movq	%rax, -8(%rbp)
	.loc 5 710 13
	movq	16(%rbp), %rax
	leaq	160(%rax), %rcx
	.loc 5 710 55
	movq	16(%rbp), %rax
	addq	$160, %rax
	.loc 5 710 13
	movq	(%rax), %rdx
	movq	-8(%rbp), %rax
	movq	%rcx, %r8
	movq	%rax, %rcx
	call	MultiplyAndAdd1Word_using_ADC_MUL
	movq	%rax, -8(%rbp)
	.loc 5 711 13
	movq	16(%rbp), %rax
	leaq	168(%rax), %rcx
	.loc 5 711 55
	movq	16(%rbp), %rax
	addq	$168, %rax
	.loc 5 711 13
	movq	(%rax), %rdx
	movq	-8(%rbp), %rax
	movq	%rcx, %r8
	movq	%rax, %rcx
	call	MultiplyAndAdd1Word_using_ADC_MUL
	movq	%rax, -8(%rbp)
	.loc 5 712 13
	movq	16(%rbp), %rax
	leaq	176(%rax), %rcx
	.loc 5 712 55
	movq	16(%rbp), %rax
	addq	$176, %rax
	.loc 5 712 13
	movq	(%rax), %rdx
	movq	-8(%rbp), %rax
	movq	%rcx, %r8
	movq	%rax, %rcx
	call	MultiplyAndAdd1Word_using_ADC_MUL
	movq	%rax, -8(%rbp)
	.loc 5 713 13
	movq	16(%rbp), %rax
	leaq	184(%rax), %rcx
	.loc 5 713 55
	movq	16(%rbp), %rax
	addq	$184, %rax
	.loc 5 713 13
	movq	(%rax), %rdx
	movq	-8(%rbp), %rax
	movq	%rcx, %r8
	movq	%rax, %rcx
	call	MultiplyAndAdd1Word_using_ADC_MUL
	movq	%rax, -8(%rbp)
	.loc 5 714 13
	movq	16(%rbp), %rax
	leaq	192(%rax), %rcx
	.loc 5 714 55
	movq	16(%rbp), %rax
	addq	$192, %rax
	.loc 5 714 13
	movq	(%rax), %rdx
	movq	-8(%rbp), %rax
	movq	%rcx, %r8
	movq	%rax, %rcx
	call	MultiplyAndAdd1Word_using_ADC_MUL
	movq	%rax, -8(%rbp)
	.loc 5 715 13
	movq	16(%rbp), %rax
	leaq	200(%rax), %rcx
	.loc 5 715 55
	movq	16(%rbp), %rax
	addq	$200, %rax
	.loc 5 715 13
	movq	(%rax), %rdx
	movq	-8(%rbp), %rax
	movq	%rcx, %r8
	movq	%rax, %rcx
	call	MultiplyAndAdd1Word_using_ADC_MUL
	movq	%rax, -8(%rbp)
	.loc 5 716 13
	movq	16(%rbp), %rax
	leaq	208(%rax), %rcx
	.loc 5 716 55
	movq	16(%rbp), %rax
	addq	$208, %rax
	.loc 5 716 13
	movq	(%rax), %rdx
	movq	-8(%rbp), %rax
	movq	%rcx, %r8
	movq	%rax, %rcx
	call	MultiplyAndAdd1Word_using_ADC_MUL
	movq	%rax, -8(%rbp)
	.loc 5 717 13
	movq	16(%rbp), %rax
	leaq	216(%rax), %rcx
	.loc 5 717 55
	movq	16(%rbp), %rax
	addq	$216, %rax
	.loc 5 717 13
	movq	(%rax), %rdx
	movq	-8(%rbp), %rax
	movq	%rcx, %r8
	movq	%rax, %rcx
	call	MultiplyAndAdd1Word_using_ADC_MUL
	movq	%rax, -8(%rbp)
	.loc 5 718 13
	movq	16(%rbp), %rax
	leaq	224(%rax), %rcx
	.loc 5 718 55
	movq	16(%rbp), %rax
	addq	$224, %rax
	.loc 5 718 13
	movq	(%rax), %rdx
	movq	-8(%rbp), %rax
	movq	%rcx, %r8
	movq	%rax, %rcx
	call	MultiplyAndAdd1Word_using_ADC_MUL
	movq	%rax, -8(%rbp)
	.loc 5 719 13
	movq	16(%rbp), %rax
	leaq	232(%rax), %rcx
	.loc 5 719 55
	movq	16(%rbp), %rax
	addq	$232, %rax
	.loc 5 719 13
	movq	(%rax), %rdx
	movq	-8(%rbp), %rax
	movq	%rcx, %r8
	movq	%rax, %rcx
	call	MultiplyAndAdd1Word_using_ADC_MUL
	movq	%rax, -8(%rbp)
	.loc 5 720 13
	movq	16(%rbp), %rax
	leaq	240(%rax), %rcx
	.loc 5 720 55
	movq	16(%rbp), %rax
	addq	$240, %rax
	.loc 5 720 13
	movq	(%rax), %rdx
	movq	-8(%rbp), %rax
	movq	%rcx, %r8
	movq	%rax, %rcx
	call	MultiplyAndAdd1Word_using_ADC_MUL
	movq	%rax, -8(%rbp)
	.loc 5 721 13
	movq	16(%rbp), %rax
	leaq	248(%rax), %rcx
	.loc 5 721 55
	movq	16(%rbp), %rax
	addq	$248, %rax
	.loc 5 721 13
	movq	(%rax), %rdx
	movq	-8(%rbp), %rax
	movq	%rcx, %r8
	movq	%rax, %rcx
	call	MultiplyAndAdd1Word_using_ADC_MUL
	movq	%rax, -8(%rbp)
	.loc 5 722 15
	addq	$256, 16(%rbp)
	.loc 5 723 9
	subq	$1, -16(%rbp)
	.loc 5 728 13
	movl	$32, %ecx
	call	AddToMULTI64Counter
.L186:
	.loc 5 688 11
	cmpq	$0, -16(%rbp)
	jne	.L187
	.loc 5 732 17
	movq	24(%rbp), %rax
	andl	$16, %eax
	.loc 5 732 8
	testq	%rax, %rax
	je	.L188
	.loc 5 734 13
	movq	16(%rbp), %rax
	movq	(%rax), %rdx
	movq	-8(%rbp), %rax
	movq	16(%rbp), %r8
	movq	%rax, %rcx
	call	MultiplyAndAdd1Word_using_ADC_MUL
	movq	%rax, -8(%rbp)
	.loc 5 735 13
	movq	16(%rbp), %rax
	leaq	8(%rax), %rcx
	.loc 5 735 55
	movq	16(%rbp), %rax
	addq	$8, %rax
	.loc 5 735 13
	movq	(%rax), %rdx
	movq	-8(%rbp), %rax
	movq	%rcx, %r8
	movq	%rax, %rcx
	call	MultiplyAndAdd1Word_using_ADC_MUL
	movq	%rax, -8(%rbp)
	.loc 5 736 13
	movq	16(%rbp), %rax
	leaq	16(%rax), %rcx
	.loc 5 736 55
	movq	16(%rbp), %rax
	addq	$16, %rax
	.loc 5 736 13
	movq	(%rax), %rdx
	movq	-8(%rbp), %rax
	movq	%rcx, %r8
	movq	%rax, %rcx
	call	MultiplyAndAdd1Word_using_ADC_MUL
	movq	%rax, -8(%rbp)
	.loc 5 737 13
	movq	16(%rbp), %rax
	leaq	24(%rax), %rcx
	.loc 5 737 55
	movq	16(%rbp), %rax
	addq	$24, %rax
	.loc 5 737 13
	movq	(%rax), %rdx
	movq	-8(%rbp), %rax
	movq	%rcx, %r8
	movq	%rax, %rcx
	call	MultiplyAndAdd1Word_using_ADC_MUL
	movq	%rax, -8(%rbp)
	.loc 5 738 13
	movq	16(%rbp), %rax
	leaq	32(%rax), %rcx
	.loc 5 738 55
	movq	16(%rbp), %rax
	addq	$32, %rax
	.loc 5 738 13
	movq	(%rax), %rdx
	movq	-8(%rbp), %rax
	movq	%rcx, %r8
	movq	%rax, %rcx
	call	MultiplyAndAdd1Word_using_ADC_MUL
	movq	%rax, -8(%rbp)
	.loc 5 739 13
	movq	16(%rbp), %rax
	leaq	40(%rax), %rcx
	.loc 5 739 55
	movq	16(%rbp), %rax
	addq	$40, %rax
	.loc 5 739 13
	movq	(%rax), %rdx
	movq	-8(%rbp), %rax
	movq	%rcx, %r8
	movq	%rax, %rcx
	call	MultiplyAndAdd1Word_using_ADC_MUL
	movq	%rax, -8(%rbp)
	.loc 5 740 13
	movq	16(%rbp), %rax
	leaq	48(%rax), %rcx
	.loc 5 740 55
	movq	16(%rbp), %rax
	addq	$48, %rax
	.loc 5 740 13
	movq	(%rax), %rdx
	movq	-8(%rbp), %rax
	movq	%rcx, %r8
	movq	%rax, %rcx
	call	MultiplyAndAdd1Word_using_ADC_MUL
	movq	%rax, -8(%rbp)
	.loc 5 741 13
	movq	16(%rbp), %rax
	leaq	56(%rax), %rcx
	.loc 5 741 55
	movq	16(%rbp), %rax
	addq	$56, %rax
	.loc 5 741 13
	movq	(%rax), %rdx
	movq	-8(%rbp), %rax
	movq	%rcx, %r8
	movq	%rax, %rcx
	call	MultiplyAndAdd1Word_using_ADC_MUL
	movq	%rax, -8(%rbp)
	.loc 5 742 13
	movq	16(%rbp), %rax
	leaq	64(%rax), %rcx
	.loc 5 742 55
	movq	16(%rbp), %rax
	addq	$64, %rax
	.loc 5 742 13
	movq	(%rax), %rdx
	movq	-8(%rbp), %rax
	movq	%rcx, %r8
	movq	%rax, %rcx
	call	MultiplyAndAdd1Word_using_ADC_MUL
	movq	%rax, -8(%rbp)
	.loc 5 743 13
	movq	16(%rbp), %rax
	leaq	72(%rax), %rcx
	.loc 5 743 55
	movq	16(%rbp), %rax
	addq	$72, %rax
	.loc 5 743 13
	movq	(%rax), %rdx
	movq	-8(%rbp), %rax
	movq	%rcx, %r8
	movq	%rax, %rcx
	call	MultiplyAndAdd1Word_using_ADC_MUL
	movq	%rax, -8(%rbp)
	.loc 5 744 13
	movq	16(%rbp), %rax
	leaq	80(%rax), %rcx
	.loc 5 744 55
	movq	16(%rbp), %rax
	addq	$80, %rax
	.loc 5 744 13
	movq	(%rax), %rdx
	movq	-8(%rbp), %rax
	movq	%rcx, %r8
	movq	%rax, %rcx
	call	MultiplyAndAdd1Word_using_ADC_MUL
	movq	%rax, -8(%rbp)
	.loc 5 745 13
	movq	16(%rbp), %rax
	leaq	88(%rax), %rcx
	.loc 5 745 55
	movq	16(%rbp), %rax
	addq	$88, %rax
	.loc 5 745 13
	movq	(%rax), %rdx
	movq	-8(%rbp), %rax
	movq	%rcx, %r8
	movq	%rax, %rcx
	call	MultiplyAndAdd1Word_using_ADC_MUL
	movq	%rax, -8(%rbp)
	.loc 5 746 13
	movq	16(%rbp), %rax
	leaq	96(%rax), %rcx
	.loc 5 746 55
	movq	16(%rbp), %rax
	addq	$96, %rax
	.loc 5 746 13
	movq	(%rax), %rdx
	movq	-8(%rbp), %rax
	movq	%rcx, %r8
	movq	%rax, %rcx
	call	MultiplyAndAdd1Word_using_ADC_MUL
	movq	%rax, -8(%rbp)
	.loc 5 747 13
	movq	16(%rbp), %rax
	leaq	104(%rax), %rcx
	.loc 5 747 55
	movq	16(%rbp), %rax
	addq	$104, %rax
	.loc 5 747 13
	movq	(%rax), %rdx
	movq	-8(%rbp), %rax
	movq	%rcx, %r8
	movq	%rax, %rcx
	call	MultiplyAndAdd1Word_using_ADC_MUL
	movq	%rax, -8(%rbp)
	.loc 5 748 13
	movq	16(%rbp), %rax
	leaq	112(%rax), %rcx
	.loc 5 748 55
	movq	16(%rbp), %rax
	addq	$112, %rax
	.loc 5 748 13
	movq	(%rax), %rdx
	movq	-8(%rbp), %rax
	movq	%rcx, %r8
	movq	%rax, %rcx
	call	MultiplyAndAdd1Word_using_ADC_MUL
	movq	%rax, -8(%rbp)
	.loc 5 749 13
	movq	16(%rbp), %rax
	leaq	120(%rax), %rcx
	.loc 5 749 55
	movq	16(%rbp), %rax
	addq	$120, %rax
	.loc 5 749 13
	movq	(%rax), %rdx
	movq	-8(%rbp), %rax
	movq	%rcx, %r8
	movq	%rax, %rcx
	call	MultiplyAndAdd1Word_using_ADC_MUL
	movq	%rax, -8(%rbp)
	.loc 5 750 15
	subq	$-128, 16(%rbp)
	.loc 5 755 13
	movl	$16, %ecx
	call	AddToMULTI64Counter
.L188:
	.loc 5 759 17
	movq	24(%rbp), %rax
	andl	$8, %eax
	.loc 5 759 8
	testq	%rax, %rax
	je	.L189
	.loc 5 761 13
	movq	16(%rbp), %rax
	movq	(%rax), %rdx
	movq	-8(%rbp), %rax
	movq	16(%rbp), %r8
	movq	%rax, %rcx
	call	MultiplyAndAdd1Word_using_ADC_MUL
	movq	%rax, -8(%rbp)
	.loc 5 762 13
	movq	16(%rbp), %rax
	leaq	8(%rax), %rcx
	.loc 5 762 55
	movq	16(%rbp), %rax
	addq	$8, %rax
	.loc 5 762 13
	movq	(%rax), %rdx
	movq	-8(%rbp), %rax
	movq	%rcx, %r8
	movq	%rax, %rcx
	call	MultiplyAndAdd1Word_using_ADC_MUL
	movq	%rax, -8(%rbp)
	.loc 5 763 13
	movq	16(%rbp), %rax
	leaq	16(%rax), %rcx
	.loc 5 763 55
	movq	16(%rbp), %rax
	addq	$16, %rax
	.loc 5 763 13
	movq	(%rax), %rdx
	movq	-8(%rbp), %rax
	movq	%rcx, %r8
	movq	%rax, %rcx
	call	MultiplyAndAdd1Word_using_ADC_MUL
	movq	%rax, -8(%rbp)
	.loc 5 764 13
	movq	16(%rbp), %rax
	leaq	24(%rax), %rcx
	.loc 5 764 55
	movq	16(%rbp), %rax
	addq	$24, %rax
	.loc 5 764 13
	movq	(%rax), %rdx
	movq	-8(%rbp), %rax
	movq	%rcx, %r8
	movq	%rax, %rcx
	call	MultiplyAndAdd1Word_using_ADC_MUL
	movq	%rax, -8(%rbp)
	.loc 5 765 13
	movq	16(%rbp), %rax
	leaq	32(%rax), %rcx
	.loc 5 765 55
	movq	16(%rbp), %rax
	addq	$32, %rax
	.loc 5 765 13
	movq	(%rax), %rdx
	movq	-8(%rbp), %rax
	movq	%rcx, %r8
	movq	%rax, %rcx
	call	MultiplyAndAdd1Word_using_ADC_MUL
	movq	%rax, -8(%rbp)
	.loc 5 766 13
	movq	16(%rbp), %rax
	leaq	40(%rax), %rcx
	.loc 5 766 55
	movq	16(%rbp), %rax
	addq	$40, %rax
	.loc 5 766 13
	movq	(%rax), %rdx
	movq	-8(%rbp), %rax
	movq	%rcx, %r8
	movq	%rax, %rcx
	call	MultiplyAndAdd1Word_using_ADC_MUL
	movq	%rax, -8(%rbp)
	.loc 5 767 13
	movq	16(%rbp), %rax
	leaq	48(%rax), %rcx
	.loc 5 767 55
	movq	16(%rbp), %rax
	addq	$48, %rax
	.loc 5 767 13
	movq	(%rax), %rdx
	movq	-8(%rbp), %rax
	movq	%rcx, %r8
	movq	%rax, %rcx
	call	MultiplyAndAdd1Word_using_ADC_MUL
	movq	%rax, -8(%rbp)
	.loc 5 768 13
	movq	16(%rbp), %rax
	leaq	56(%rax), %rcx
	.loc 5 768 55
	movq	16(%rbp), %rax
	addq	$56, %rax
	.loc 5 768 13
	movq	(%rax), %rdx
	movq	-8(%rbp), %rax
	movq	%rcx, %r8
	movq	%rax, %rcx
	call	MultiplyAndAdd1Word_using_ADC_MUL
	movq	%rax, -8(%rbp)
	.loc 5 769 15
	addq	$64, 16(%rbp)
	.loc 5 774 13
	movl	$8, %ecx
	call	AddToMULTI64Counter
.L189:
	.loc 5 778 17
	movq	24(%rbp), %rax
	andl	$4, %eax
	.loc 5 778 8
	testq	%rax, %rax
	je	.L190
	.loc 5 780 13
	movq	16(%rbp), %rax
	movq	(%rax), %rdx
	movq	-8(%rbp), %rax
	movq	16(%rbp), %r8
	movq	%rax, %rcx
	call	MultiplyAndAdd1Word_using_ADC_MUL
	movq	%rax, -8(%rbp)
	.loc 5 781 13
	movq	16(%rbp), %rax
	leaq	8(%rax), %rcx
	.loc 5 781 55
	movq	16(%rbp), %rax
	addq	$8, %rax
	.loc 5 781 13
	movq	(%rax), %rdx
	movq	-8(%rbp), %rax
	movq	%rcx, %r8
	movq	%rax, %rcx
	call	MultiplyAndAdd1Word_using_ADC_MUL
	movq	%rax, -8(%rbp)
	.loc 5 782 13
	movq	16(%rbp), %rax
	leaq	16(%rax), %rcx
	.loc 5 782 55
	movq	16(%rbp), %rax
	addq	$16, %rax
	.loc 5 782 13
	movq	(%rax), %rdx
	movq	-8(%rbp), %rax
	movq	%rcx, %r8
	movq	%rax, %rcx
	call	MultiplyAndAdd1Word_using_ADC_MUL
	movq	%rax, -8(%rbp)
	.loc 5 783 13
	movq	16(%rbp), %rax
	leaq	24(%rax), %rcx
	.loc 5 783 55
	movq	16(%rbp), %rax
	addq	$24, %rax
	.loc 5 783 13
	movq	(%rax), %rdx
	movq	-8(%rbp), %rax
	movq	%rcx, %r8
	movq	%rax, %rcx
	call	MultiplyAndAdd1Word_using_ADC_MUL
	movq	%rax, -8(%rbp)
	.loc 5 784 15
	addq	$32, 16(%rbp)
	.loc 5 789 13
	movl	$4, %ecx
	call	AddToMULTI64Counter
.L190:
	.loc 5 793 17
	movq	24(%rbp), %rax
	andl	$2, %eax
	.loc 5 793 8
	testq	%rax, %rax
	je	.L191
	.loc 5 795 13
	movq	16(%rbp), %rax
	movq	(%rax), %rdx
	movq	-8(%rbp), %rax
	movq	16(%rbp), %r8
	movq	%rax, %rcx
	call	MultiplyAndAdd1Word_using_ADC_MUL
	movq	%rax, -8(%rbp)
	.loc 5 796 13
	movq	16(%rbp), %rax
	leaq	8(%rax), %rcx
	.loc 5 796 55
	movq	16(%rbp), %rax
	addq	$8, %rax
	.loc 5 796 13
	movq	(%rax), %rdx
	movq	-8(%rbp), %rax
	movq	%rcx, %r8
	movq	%rax, %rcx
	call	MultiplyAndAdd1Word_using_ADC_MUL
	movq	%rax, -8(%rbp)
	.loc 5 797 15
	addq	$16, 16(%rbp)
	.loc 5 802 13
	movl	$2, %ecx
	call	AddToMULTI64Counter
.L191:
	.loc 5 806 17
	movq	24(%rbp), %rax
	andl	$1, %eax
	.loc 5 806 8
	testq	%rax, %rax
	je	.L192
	.loc 5 808 13
	movq	16(%rbp), %rax
	movq	(%rax), %rdx
	movq	-8(%rbp), %rax
	movq	16(%rbp), %r8
	movq	%rax, %rcx
	call	MultiplyAndAdd1Word_using_ADC_MUL
	movq	%rax, -8(%rbp)
	.loc 5 809 15
	addq	$8, 16(%rbp)
	.loc 5 814 13
	call	IncrementMULTI64Counter
.L192:
	.loc 5 818 8
	cmpq	$0, -8(%rbp)
	je	.L193
	.loc 5 820 18
	movq	16(%rbp), %rax
	movq	-8(%rbp), %rdx
	movq	%rdx, (%rax)
	.loc 5 821 15
	addq	$8, 16(%rbp)
.L193:
	.loc 5 824 12
	movq	16(%rbp), %rax
	.loc 5 825 1
	addq	$48, %rsp
	popq	%rbp
	.cfi_restore 6
	.cfi_def_cfa 7, 8
	ret
	.cfi_endproc
.LFE4390:
	.seh_endproc
	.def	MultiplyAndAdd_using_ADCX_MULX;	.scl	3;	.type	32;	.endef
	.seh_proc	MultiplyAndAdd_using_ADCX_MULX
MultiplyAndAdd_using_ADCX_MULX:
.LFB4391:
	.loc 5 828 1
	.cfi_startproc
	pushq	%rbp
	.seh_pushreg	%rbp
	.cfi_def_cfa_offset 16
	.cfi_offset 6, -16
	movq	%rsp, %rbp
	.seh_setframe	%rbp, 0
	.cfi_def_cfa_register 6
	subq	$48, %rsp
	.seh_stackalloc	48
	.seh_endprologue
	movq	%rcx, 16(%rbp)
	movq	%rdx, 24(%rbp)
	movq	%r8, 32(%rbp)
	.loc 5 829 17
	movq	32(%rbp), %rax
	movq	%rax, -8(%rbp)
	.loc 5 830 17
	movq	24(%rbp), %rax
	shrq	$5, %rax
	movq	%rax, -16(%rbp)
	.loc 5 831 11
	jmp	.L196
.L197:
	.loc 5 833 13
	movq	16(%rbp), %rax
	movq	(%rax), %rdx
	movq	-8(%rbp), %rax
	movq	16(%rbp), %r8
	movq	%rax, %rcx
	call	MultiplyAndAdd1Word_using_ADCX_MULX
	movq	%rax, -8(%rbp)
	.loc 5 834 13
	movq	16(%rbp), %rax
	leaq	8(%rax), %rcx
	.loc 5 834 57
	movq	16(%rbp), %rax
	addq	$8, %rax
	.loc 5 834 13
	movq	(%rax), %rdx
	movq	-8(%rbp), %rax
	movq	%rcx, %r8
	movq	%rax, %rcx
	call	MultiplyAndAdd1Word_using_ADCX_MULX
	movq	%rax, -8(%rbp)
	.loc 5 835 13
	movq	16(%rbp), %rax
	leaq	16(%rax), %rcx
	.loc 5 835 57
	movq	16(%rbp), %rax
	addq	$16, %rax
	.loc 5 835 13
	movq	(%rax), %rdx
	movq	-8(%rbp), %rax
	movq	%rcx, %r8
	movq	%rax, %rcx
	call	MultiplyAndAdd1Word_using_ADCX_MULX
	movq	%rax, -8(%rbp)
	.loc 5 836 13
	movq	16(%rbp), %rax
	leaq	24(%rax), %rcx
	.loc 5 836 57
	movq	16(%rbp), %rax
	addq	$24, %rax
	.loc 5 836 13
	movq	(%rax), %rdx
	movq	-8(%rbp), %rax
	movq	%rcx, %r8
	movq	%rax, %rcx
	call	MultiplyAndAdd1Word_using_ADCX_MULX
	movq	%rax, -8(%rbp)
	.loc 5 837 13
	movq	16(%rbp), %rax
	leaq	32(%rax), %rcx
	.loc 5 837 57
	movq	16(%rbp), %rax
	addq	$32, %rax
	.loc 5 837 13
	movq	(%rax), %rdx
	movq	-8(%rbp), %rax
	movq	%rcx, %r8
	movq	%rax, %rcx
	call	MultiplyAndAdd1Word_using_ADCX_MULX
	movq	%rax, -8(%rbp)
	.loc 5 838 13
	movq	16(%rbp), %rax
	leaq	40(%rax), %rcx
	.loc 5 838 57
	movq	16(%rbp), %rax
	addq	$40, %rax
	.loc 5 838 13
	movq	(%rax), %rdx
	movq	-8(%rbp), %rax
	movq	%rcx, %r8
	movq	%rax, %rcx
	call	MultiplyAndAdd1Word_using_ADCX_MULX
	movq	%rax, -8(%rbp)
	.loc 5 839 13
	movq	16(%rbp), %rax
	leaq	48(%rax), %rcx
	.loc 5 839 57
	movq	16(%rbp), %rax
	addq	$48, %rax
	.loc 5 839 13
	movq	(%rax), %rdx
	movq	-8(%rbp), %rax
	movq	%rcx, %r8
	movq	%rax, %rcx
	call	MultiplyAndAdd1Word_using_ADCX_MULX
	movq	%rax, -8(%rbp)
	.loc 5 840 13
	movq	16(%rbp), %rax
	leaq	56(%rax), %rcx
	.loc 5 840 57
	movq	16(%rbp), %rax
	addq	$56, %rax
	.loc 5 840 13
	movq	(%rax), %rdx
	movq	-8(%rbp), %rax
	movq	%rcx, %r8
	movq	%rax, %rcx
	call	MultiplyAndAdd1Word_using_ADCX_MULX
	movq	%rax, -8(%rbp)
	.loc 5 841 13
	movq	16(%rbp), %rax
	leaq	64(%rax), %rcx
	.loc 5 841 57
	movq	16(%rbp), %rax
	addq	$64, %rax
	.loc 5 841 13
	movq	(%rax), %rdx
	movq	-8(%rbp), %rax
	movq	%rcx, %r8
	movq	%rax, %rcx
	call	MultiplyAndAdd1Word_using_ADCX_MULX
	movq	%rax, -8(%rbp)
	.loc 5 842 13
	movq	16(%rbp), %rax
	leaq	72(%rax), %rcx
	.loc 5 842 57
	movq	16(%rbp), %rax
	addq	$72, %rax
	.loc 5 842 13
	movq	(%rax), %rdx
	movq	-8(%rbp), %rax
	movq	%rcx, %r8
	movq	%rax, %rcx
	call	MultiplyAndAdd1Word_using_ADCX_MULX
	movq	%rax, -8(%rbp)
	.loc 5 843 13
	movq	16(%rbp), %rax
	leaq	80(%rax), %rcx
	.loc 5 843 57
	movq	16(%rbp), %rax
	addq	$80, %rax
	.loc 5 843 13
	movq	(%rax), %rdx
	movq	-8(%rbp), %rax
	movq	%rcx, %r8
	movq	%rax, %rcx
	call	MultiplyAndAdd1Word_using_ADCX_MULX
	movq	%rax, -8(%rbp)
	.loc 5 844 13
	movq	16(%rbp), %rax
	leaq	88(%rax), %rcx
	.loc 5 844 57
	movq	16(%rbp), %rax
	addq	$88, %rax
	.loc 5 844 13
	movq	(%rax), %rdx
	movq	-8(%rbp), %rax
	movq	%rcx, %r8
	movq	%rax, %rcx
	call	MultiplyAndAdd1Word_using_ADCX_MULX
	movq	%rax, -8(%rbp)
	.loc 5 845 13
	movq	16(%rbp), %rax
	leaq	96(%rax), %rcx
	.loc 5 845 57
	movq	16(%rbp), %rax
	addq	$96, %rax
	.loc 5 845 13
	movq	(%rax), %rdx
	movq	-8(%rbp), %rax
	movq	%rcx, %r8
	movq	%rax, %rcx
	call	MultiplyAndAdd1Word_using_ADCX_MULX
	movq	%rax, -8(%rbp)
	.loc 5 846 13
	movq	16(%rbp), %rax
	leaq	104(%rax), %rcx
	.loc 5 846 57
	movq	16(%rbp), %rax
	addq	$104, %rax
	.loc 5 846 13
	movq	(%rax), %rdx
	movq	-8(%rbp), %rax
	movq	%rcx, %r8
	movq	%rax, %rcx
	call	MultiplyAndAdd1Word_using_ADCX_MULX
	movq	%rax, -8(%rbp)
	.loc 5 847 13
	movq	16(%rbp), %rax
	leaq	112(%rax), %rcx
	.loc 5 847 57
	movq	16(%rbp), %rax
	addq	$112, %rax
	.loc 5 847 13
	movq	(%rax), %rdx
	movq	-8(%rbp), %rax
	movq	%rcx, %r8
	movq	%rax, %rcx
	call	MultiplyAndAdd1Word_using_ADCX_MULX
	movq	%rax, -8(%rbp)
	.loc 5 848 13
	movq	16(%rbp), %rax
	leaq	120(%rax), %rcx
	.loc 5 848 57
	movq	16(%rbp), %rax
	addq	$120, %rax
	.loc 5 848 13
	movq	(%rax), %rdx
	movq	-8(%rbp), %rax
	movq	%rcx, %r8
	movq	%rax, %rcx
	call	MultiplyAndAdd1Word_using_ADCX_MULX
	movq	%rax, -8(%rbp)
	.loc 5 849 13
	movq	16(%rbp), %rax
	leaq	128(%rax), %rcx
	.loc 5 849 57
	movq	16(%rbp), %rax
	subq	$-128, %rax
	.loc 5 849 13
	movq	(%rax), %rdx
	movq	-8(%rbp), %rax
	movq	%rcx, %r8
	movq	%rax, %rcx
	call	MultiplyAndAdd1Word_using_ADCX_MULX
	movq	%rax, -8(%rbp)
	.loc 5 850 13
	movq	16(%rbp), %rax
	leaq	136(%rax), %rcx
	.loc 5 850 57
	movq	16(%rbp), %rax
	addq	$136, %rax
	.loc 5 850 13
	movq	(%rax), %rdx
	movq	-8(%rbp), %rax
	movq	%rcx, %r8
	movq	%rax, %rcx
	call	MultiplyAndAdd1Word_using_ADCX_MULX
	movq	%rax, -8(%rbp)
	.loc 5 851 13
	movq	16(%rbp), %rax
	leaq	144(%rax), %rcx
	.loc 5 851 57
	movq	16(%rbp), %rax
	addq	$144, %rax
	.loc 5 851 13
	movq	(%rax), %rdx
	movq	-8(%rbp), %rax
	movq	%rcx, %r8
	movq	%rax, %rcx
	call	MultiplyAndAdd1Word_using_ADCX_MULX
	movq	%rax, -8(%rbp)
	.loc 5 852 13
	movq	16(%rbp), %rax
	leaq	152(%rax), %rcx
	.loc 5 852 57
	movq	16(%rbp), %rax
	addq	$152, %rax
	.loc 5 852 13
	movq	(%rax), %rdx
	movq	-8(%rbp), %rax
	movq	%rcx, %r8
	movq	%rax, %rcx
	call	MultiplyAndAdd1Word_using_ADCX_MULX
	movq	%rax, -8(%rbp)
	.loc 5 853 13
	movq	16(%rbp), %rax
	leaq	160(%rax), %rcx
	.loc 5 853 57
	movq	16(%rbp), %rax
	addq	$160, %rax
	.loc 5 853 13
	movq	(%rax), %rdx
	movq	-8(%rbp), %rax
	movq	%rcx, %r8
	movq	%rax, %rcx
	call	MultiplyAndAdd1Word_using_ADCX_MULX
	movq	%rax, -8(%rbp)
	.loc 5 854 13
	movq	16(%rbp), %rax
	leaq	168(%rax), %rcx
	.loc 5 854 57
	movq	16(%rbp), %rax
	addq	$168, %rax
	.loc 5 854 13
	movq	(%rax), %rdx
	movq	-8(%rbp), %rax
	movq	%rcx, %r8
	movq	%rax, %rcx
	call	MultiplyAndAdd1Word_using_ADCX_MULX
	movq	%rax, -8(%rbp)
	.loc 5 855 13
	movq	16(%rbp), %rax
	leaq	176(%rax), %rcx
	.loc 5 855 57
	movq	16(%rbp), %rax
	addq	$176, %rax
	.loc 5 855 13
	movq	(%rax), %rdx
	movq	-8(%rbp), %rax
	movq	%rcx, %r8
	movq	%rax, %rcx
	call	MultiplyAndAdd1Word_using_ADCX_MULX
	movq	%rax, -8(%rbp)
	.loc 5 856 13
	movq	16(%rbp), %rax
	leaq	184(%rax), %rcx
	.loc 5 856 57
	movq	16(%rbp), %rax
	addq	$184, %rax
	.loc 5 856 13
	movq	(%rax), %rdx
	movq	-8(%rbp), %rax
	movq	%rcx, %r8
	movq	%rax, %rcx
	call	MultiplyAndAdd1Word_using_ADCX_MULX
	movq	%rax, -8(%rbp)
	.loc 5 857 13
	movq	16(%rbp), %rax
	leaq	192(%rax), %rcx
	.loc 5 857 57
	movq	16(%rbp), %rax
	addq	$192, %rax
	.loc 5 857 13
	movq	(%rax), %rdx
	movq	-8(%rbp), %rax
	movq	%rcx, %r8
	movq	%rax, %rcx
	call	MultiplyAndAdd1Word_using_ADCX_MULX
	movq	%rax, -8(%rbp)
	.loc 5 858 13
	movq	16(%rbp), %rax
	leaq	200(%rax), %rcx
	.loc 5 858 57
	movq	16(%rbp), %rax
	addq	$200, %rax
	.loc 5 858 13
	movq	(%rax), %rdx
	movq	-8(%rbp), %rax
	movq	%rcx, %r8
	movq	%rax, %rcx
	call	MultiplyAndAdd1Word_using_ADCX_MULX
	movq	%rax, -8(%rbp)
	.loc 5 859 13
	movq	16(%rbp), %rax
	leaq	208(%rax), %rcx
	.loc 5 859 57
	movq	16(%rbp), %rax
	addq	$208, %rax
	.loc 5 859 13
	movq	(%rax), %rdx
	movq	-8(%rbp), %rax
	movq	%rcx, %r8
	movq	%rax, %rcx
	call	MultiplyAndAdd1Word_using_ADCX_MULX
	movq	%rax, -8(%rbp)
	.loc 5 860 13
	movq	16(%rbp), %rax
	leaq	216(%rax), %rcx
	.loc 5 860 57
	movq	16(%rbp), %rax
	addq	$216, %rax
	.loc 5 860 13
	movq	(%rax), %rdx
	movq	-8(%rbp), %rax
	movq	%rcx, %r8
	movq	%rax, %rcx
	call	MultiplyAndAdd1Word_using_ADCX_MULX
	movq	%rax, -8(%rbp)
	.loc 5 861 13
	movq	16(%rbp), %rax
	leaq	224(%rax), %rcx
	.loc 5 861 57
	movq	16(%rbp), %rax
	addq	$224, %rax
	.loc 5 861 13
	movq	(%rax), %rdx
	movq	-8(%rbp), %rax
	movq	%rcx, %r8
	movq	%rax, %rcx
	call	MultiplyAndAdd1Word_using_ADCX_MULX
	movq	%rax, -8(%rbp)
	.loc 5 862 13
	movq	16(%rbp), %rax
	leaq	232(%rax), %rcx
	.loc 5 862 57
	movq	16(%rbp), %rax
	addq	$232, %rax
	.loc 5 862 13
	movq	(%rax), %rdx
	movq	-8(%rbp), %rax
	movq	%rcx, %r8
	movq	%rax, %rcx
	call	MultiplyAndAdd1Word_using_ADCX_MULX
	movq	%rax, -8(%rbp)
	.loc 5 863 13
	movq	16(%rbp), %rax
	leaq	240(%rax), %rcx
	.loc 5 863 57
	movq	16(%rbp), %rax
	addq	$240, %rax
	.loc 5 863 13
	movq	(%rax), %rdx
	movq	-8(%rbp), %rax
	movq	%rcx, %r8
	movq	%rax, %rcx
	call	MultiplyAndAdd1Word_using_ADCX_MULX
	movq	%rax, -8(%rbp)
	.loc 5 864 13
	movq	16(%rbp), %rax
	leaq	248(%rax), %rcx
	.loc 5 864 57
	movq	16(%rbp), %rax
	addq	$248, %rax
	.loc 5 864 13
	movq	(%rax), %rdx
	movq	-8(%rbp), %rax
	movq	%rcx, %r8
	movq	%rax, %rcx
	call	MultiplyAndAdd1Word_using_ADCX_MULX
	movq	%rax, -8(%rbp)
	.loc 5 865 15
	addq	$256, 16(%rbp)
	.loc 5 866 9
	subq	$1, -16(%rbp)
	.loc 5 871 13
	movl	$32, %ecx
	call	AddToMULTI64Counter
.L196:
	.loc 5 831 11
	cmpq	$0, -16(%rbp)
	jne	.L197
	.loc 5 875 17
	movq	24(%rbp), %rax
	andl	$16, %eax
	.loc 5 875 8
	testq	%rax, %rax
	je	.L198
	.loc 5 877 13
	movq	16(%rbp), %rax
	movq	(%rax), %rdx
	movq	-8(%rbp), %rax
	movq	16(%rbp), %r8
	movq	%rax, %rcx
	call	MultiplyAndAdd1Word_using_ADCX_MULX
	movq	%rax, -8(%rbp)
	.loc 5 878 13
	movq	16(%rbp), %rax
	leaq	8(%rax), %rcx
	.loc 5 878 57
	movq	16(%rbp), %rax
	addq	$8, %rax
	.loc 5 878 13
	movq	(%rax), %rdx
	movq	-8(%rbp), %rax
	movq	%rcx, %r8
	movq	%rax, %rcx
	call	MultiplyAndAdd1Word_using_ADCX_MULX
	movq	%rax, -8(%rbp)
	.loc 5 879 13
	movq	16(%rbp), %rax
	leaq	16(%rax), %rcx
	.loc 5 879 57
	movq	16(%rbp), %rax
	addq	$16, %rax
	.loc 5 879 13
	movq	(%rax), %rdx
	movq	-8(%rbp), %rax
	movq	%rcx, %r8
	movq	%rax, %rcx
	call	MultiplyAndAdd1Word_using_ADCX_MULX
	movq	%rax, -8(%rbp)
	.loc 5 880 13
	movq	16(%rbp), %rax
	leaq	24(%rax), %rcx
	.loc 5 880 57
	movq	16(%rbp), %rax
	addq	$24, %rax
	.loc 5 880 13
	movq	(%rax), %rdx
	movq	-8(%rbp), %rax
	movq	%rcx, %r8
	movq	%rax, %rcx
	call	MultiplyAndAdd1Word_using_ADCX_MULX
	movq	%rax, -8(%rbp)
	.loc 5 881 13
	movq	16(%rbp), %rax
	leaq	32(%rax), %rcx
	.loc 5 881 57
	movq	16(%rbp), %rax
	addq	$32, %rax
	.loc 5 881 13
	movq	(%rax), %rdx
	movq	-8(%rbp), %rax
	movq	%rcx, %r8
	movq	%rax, %rcx
	call	MultiplyAndAdd1Word_using_ADCX_MULX
	movq	%rax, -8(%rbp)
	.loc 5 882 13
	movq	16(%rbp), %rax
	leaq	40(%rax), %rcx
	.loc 5 882 57
	movq	16(%rbp), %rax
	addq	$40, %rax
	.loc 5 882 13
	movq	(%rax), %rdx
	movq	-8(%rbp), %rax
	movq	%rcx, %r8
	movq	%rax, %rcx
	call	MultiplyAndAdd1Word_using_ADCX_MULX
	movq	%rax, -8(%rbp)
	.loc 5 883 13
	movq	16(%rbp), %rax
	leaq	48(%rax), %rcx
	.loc 5 883 57
	movq	16(%rbp), %rax
	addq	$48, %rax
	.loc 5 883 13
	movq	(%rax), %rdx
	movq	-8(%rbp), %rax
	movq	%rcx, %r8
	movq	%rax, %rcx
	call	MultiplyAndAdd1Word_using_ADCX_MULX
	movq	%rax, -8(%rbp)
	.loc 5 884 13
	movq	16(%rbp), %rax
	leaq	56(%rax), %rcx
	.loc 5 884 57
	movq	16(%rbp), %rax
	addq	$56, %rax
	.loc 5 884 13
	movq	(%rax), %rdx
	movq	-8(%rbp), %rax
	movq	%rcx, %r8
	movq	%rax, %rcx
	call	MultiplyAndAdd1Word_using_ADCX_MULX
	movq	%rax, -8(%rbp)
	.loc 5 885 13
	movq	16(%rbp), %rax
	leaq	64(%rax), %rcx
	.loc 5 885 57
	movq	16(%rbp), %rax
	addq	$64, %rax
	.loc 5 885 13
	movq	(%rax), %rdx
	movq	-8(%rbp), %rax
	movq	%rcx, %r8
	movq	%rax, %rcx
	call	MultiplyAndAdd1Word_using_ADCX_MULX
	movq	%rax, -8(%rbp)
	.loc 5 886 13
	movq	16(%rbp), %rax
	leaq	72(%rax), %rcx
	.loc 5 886 57
	movq	16(%rbp), %rax
	addq	$72, %rax
	.loc 5 886 13
	movq	(%rax), %rdx
	movq	-8(%rbp), %rax
	movq	%rcx, %r8
	movq	%rax, %rcx
	call	MultiplyAndAdd1Word_using_ADCX_MULX
	movq	%rax, -8(%rbp)
	.loc 5 887 13
	movq	16(%rbp), %rax
	leaq	80(%rax), %rcx
	.loc 5 887 57
	movq	16(%rbp), %rax
	addq	$80, %rax
	.loc 5 887 13
	movq	(%rax), %rdx
	movq	-8(%rbp), %rax
	movq	%rcx, %r8
	movq	%rax, %rcx
	call	MultiplyAndAdd1Word_using_ADCX_MULX
	movq	%rax, -8(%rbp)
	.loc 5 888 13
	movq	16(%rbp), %rax
	leaq	88(%rax), %rcx
	.loc 5 888 57
	movq	16(%rbp), %rax
	addq	$88, %rax
	.loc 5 888 13
	movq	(%rax), %rdx
	movq	-8(%rbp), %rax
	movq	%rcx, %r8
	movq	%rax, %rcx
	call	MultiplyAndAdd1Word_using_ADCX_MULX
	movq	%rax, -8(%rbp)
	.loc 5 889 13
	movq	16(%rbp), %rax
	leaq	96(%rax), %rcx
	.loc 5 889 57
	movq	16(%rbp), %rax
	addq	$96, %rax
	.loc 5 889 13
	movq	(%rax), %rdx
	movq	-8(%rbp), %rax
	movq	%rcx, %r8
	movq	%rax, %rcx
	call	MultiplyAndAdd1Word_using_ADCX_MULX
	movq	%rax, -8(%rbp)
	.loc 5 890 13
	movq	16(%rbp), %rax
	leaq	104(%rax), %rcx
	.loc 5 890 57
	movq	16(%rbp), %rax
	addq	$104, %rax
	.loc 5 890 13
	movq	(%rax), %rdx
	movq	-8(%rbp), %rax
	movq	%rcx, %r8
	movq	%rax, %rcx
	call	MultiplyAndAdd1Word_using_ADCX_MULX
	movq	%rax, -8(%rbp)
	.loc 5 891 13
	movq	16(%rbp), %rax
	leaq	112(%rax), %rcx
	.loc 5 891 57
	movq	16(%rbp), %rax
	addq	$112, %rax
	.loc 5 891 13
	movq	(%rax), %rdx
	movq	-8(%rbp), %rax
	movq	%rcx, %r8
	movq	%rax, %rcx
	call	MultiplyAndAdd1Word_using_ADCX_MULX
	movq	%rax, -8(%rbp)
	.loc 5 892 13
	movq	16(%rbp), %rax
	leaq	120(%rax), %rcx
	.loc 5 892 57
	movq	16(%rbp), %rax
	addq	$120, %rax
	.loc 5 892 13
	movq	(%rax), %rdx
	movq	-8(%rbp), %rax
	movq	%rcx, %r8
	movq	%rax, %rcx
	call	MultiplyAndAdd1Word_using_ADCX_MULX
	movq	%rax, -8(%rbp)
	.loc 5 893 15
	subq	$-128, 16(%rbp)
	.loc 5 898 13
	movl	$16, %ecx
	call	AddToMULTI64Counter
.L198:
	.loc 5 902 17
	movq	24(%rbp), %rax
	andl	$8, %eax
	.loc 5 902 8
	testq	%rax, %rax
	je	.L199
	.loc 5 904 13
	movq	16(%rbp), %rax
	movq	(%rax), %rdx
	movq	-8(%rbp), %rax
	movq	16(%rbp), %r8
	movq	%rax, %rcx
	call	MultiplyAndAdd1Word_using_ADCX_MULX
	movq	%rax, -8(%rbp)
	.loc 5 905 13
	movq	16(%rbp), %rax
	leaq	8(%rax), %rcx
	.loc 5 905 57
	movq	16(%rbp), %rax
	addq	$8, %rax
	.loc 5 905 13
	movq	(%rax), %rdx
	movq	-8(%rbp), %rax
	movq	%rcx, %r8
	movq	%rax, %rcx
	call	MultiplyAndAdd1Word_using_ADCX_MULX
	movq	%rax, -8(%rbp)
	.loc 5 906 13
	movq	16(%rbp), %rax
	leaq	16(%rax), %rcx
	.loc 5 906 57
	movq	16(%rbp), %rax
	addq	$16, %rax
	.loc 5 906 13
	movq	(%rax), %rdx
	movq	-8(%rbp), %rax
	movq	%rcx, %r8
	movq	%rax, %rcx
	call	MultiplyAndAdd1Word_using_ADCX_MULX
	movq	%rax, -8(%rbp)
	.loc 5 907 13
	movq	16(%rbp), %rax
	leaq	24(%rax), %rcx
	.loc 5 907 57
	movq	16(%rbp), %rax
	addq	$24, %rax
	.loc 5 907 13
	movq	(%rax), %rdx
	movq	-8(%rbp), %rax
	movq	%rcx, %r8
	movq	%rax, %rcx
	call	MultiplyAndAdd1Word_using_ADCX_MULX
	movq	%rax, -8(%rbp)
	.loc 5 908 13
	movq	16(%rbp), %rax
	leaq	32(%rax), %rcx
	.loc 5 908 57
	movq	16(%rbp), %rax
	addq	$32, %rax
	.loc 5 908 13
	movq	(%rax), %rdx
	movq	-8(%rbp), %rax
	movq	%rcx, %r8
	movq	%rax, %rcx
	call	MultiplyAndAdd1Word_using_ADCX_MULX
	movq	%rax, -8(%rbp)
	.loc 5 909 13
	movq	16(%rbp), %rax
	leaq	40(%rax), %rcx
	.loc 5 909 57
	movq	16(%rbp), %rax
	addq	$40, %rax
	.loc 5 909 13
	movq	(%rax), %rdx
	movq	-8(%rbp), %rax
	movq	%rcx, %r8
	movq	%rax, %rcx
	call	MultiplyAndAdd1Word_using_ADCX_MULX
	movq	%rax, -8(%rbp)
	.loc 5 910 13
	movq	16(%rbp), %rax
	leaq	48(%rax), %rcx
	.loc 5 910 57
	movq	16(%rbp), %rax
	addq	$48, %rax
	.loc 5 910 13
	movq	(%rax), %rdx
	movq	-8(%rbp), %rax
	movq	%rcx, %r8
	movq	%rax, %rcx
	call	MultiplyAndAdd1Word_using_ADCX_MULX
	movq	%rax, -8(%rbp)
	.loc 5 911 13
	movq	16(%rbp), %rax
	leaq	56(%rax), %rcx
	.loc 5 911 57
	movq	16(%rbp), %rax
	addq	$56, %rax
	.loc 5 911 13
	movq	(%rax), %rdx
	movq	-8(%rbp), %rax
	movq	%rcx, %r8
	movq	%rax, %rcx
	call	MultiplyAndAdd1Word_using_ADCX_MULX
	movq	%rax, -8(%rbp)
	.loc 5 912 15
	addq	$64, 16(%rbp)
	.loc 5 917 13
	movl	$8, %ecx
	call	AddToMULTI64Counter
.L199:
	.loc 5 921 17
	movq	24(%rbp), %rax
	andl	$4, %eax
	.loc 5 921 8
	testq	%rax, %rax
	je	.L200
	.loc 5 923 13
	movq	16(%rbp), %rax
	movq	(%rax), %rdx
	movq	-8(%rbp), %rax
	movq	16(%rbp), %r8
	movq	%rax, %rcx
	call	MultiplyAndAdd1Word_using_ADCX_MULX
	movq	%rax, -8(%rbp)
	.loc 5 924 13
	movq	16(%rbp), %rax
	leaq	8(%rax), %rcx
	.loc 5 924 57
	movq	16(%rbp), %rax
	addq	$8, %rax
	.loc 5 924 13
	movq	(%rax), %rdx
	movq	-8(%rbp), %rax
	movq	%rcx, %r8
	movq	%rax, %rcx
	call	MultiplyAndAdd1Word_using_ADCX_MULX
	movq	%rax, -8(%rbp)
	.loc 5 925 13
	movq	16(%rbp), %rax
	leaq	16(%rax), %rcx
	.loc 5 925 57
	movq	16(%rbp), %rax
	addq	$16, %rax
	.loc 5 925 13
	movq	(%rax), %rdx
	movq	-8(%rbp), %rax
	movq	%rcx, %r8
	movq	%rax, %rcx
	call	MultiplyAndAdd1Word_using_ADCX_MULX
	movq	%rax, -8(%rbp)
	.loc 5 926 13
	movq	16(%rbp), %rax
	leaq	24(%rax), %rcx
	.loc 5 926 57
	movq	16(%rbp), %rax
	addq	$24, %rax
	.loc 5 926 13
	movq	(%rax), %rdx
	movq	-8(%rbp), %rax
	movq	%rcx, %r8
	movq	%rax, %rcx
	call	MultiplyAndAdd1Word_using_ADCX_MULX
	movq	%rax, -8(%rbp)
	.loc 5 927 15
	addq	$32, 16(%rbp)
	.loc 5 932 13
	movl	$4, %ecx
	call	AddToMULTI64Counter
.L200:
	.loc 5 936 17
	movq	24(%rbp), %rax
	andl	$2, %eax
	.loc 5 936 8
	testq	%rax, %rax
	je	.L201
	.loc 5 938 13
	movq	16(%rbp), %rax
	movq	(%rax), %rdx
	movq	-8(%rbp), %rax
	movq	16(%rbp), %r8
	movq	%rax, %rcx
	call	MultiplyAndAdd1Word_using_ADCX_MULX
	movq	%rax, -8(%rbp)
	.loc 5 939 13
	movq	16(%rbp), %rax
	leaq	8(%rax), %rcx
	.loc 5 939 57
	movq	16(%rbp), %rax
	addq	$8, %rax
	.loc 5 939 13
	movq	(%rax), %rdx
	movq	-8(%rbp), %rax
	movq	%rcx, %r8
	movq	%rax, %rcx
	call	MultiplyAndAdd1Word_using_ADCX_MULX
	movq	%rax, -8(%rbp)
	.loc 5 940 15
	addq	$16, 16(%rbp)
	.loc 5 945 13
	movl	$2, %ecx
	call	AddToMULTI64Counter
.L201:
	.loc 5 949 17
	movq	24(%rbp), %rax
	andl	$1, %eax
	.loc 5 949 8
	testq	%rax, %rax
	je	.L202
	.loc 5 951 13
	movq	16(%rbp), %rax
	movq	(%rax), %rdx
	movq	-8(%rbp), %rax
	movq	16(%rbp), %r8
	movq	%rax, %rcx
	call	MultiplyAndAdd1Word_using_ADCX_MULX
	movq	%rax, -8(%rbp)
	.loc 5 952 15
	addq	$8, 16(%rbp)
	.loc 5 957 13
	call	IncrementMULTI64Counter
.L202:
	.loc 5 961 8
	cmpq	$0, -8(%rbp)
	je	.L203
	.loc 5 963 18
	movq	16(%rbp), %rax
	movq	-8(%rbp), %rdx
	movq	%rdx, (%rax)
	.loc 5 964 15
	addq	$8, 16(%rbp)
.L203:
	.loc 5 967 12
	movq	16(%rbp), %rax
	.loc 5 968 1
	addq	$48, %rsp
	popq	%rbp
	.cfi_restore 6
	.cfi_def_cfa 7, 8
	ret
	.cfi_endproc
.LFE4391:
	.seh_endproc
	.def	ConvertCardinalNumber;	.scl	3;	.type	32;	.endef
	.seh_proc	ConvertCardinalNumber
ConvertCardinalNumber:
.LFB4392:
	.loc 5 971 1
	.cfi_startproc
	pushq	%rbp
	.seh_pushreg	%rbp
	.cfi_def_cfa_offset 16
	.cfi_offset 6, -16
	movq	%rsp, %rbp
	.seh_setframe	%rbp, 0
	.cfi_def_cfa_register 6
	subq	$80, %rsp
	.seh_stackalloc	80
	.seh_endprologue
	movq	%rcx, 16(%rbp)
	movq	%rdx, 24(%rbp)
	movq	%r8, 32(%rbp)
	.loc 5 975 29
	movq	24(%rbp), %rax
	addq	$1, %rax
	salq	$6, %rax
	movq	%rax, %rcx
	leaq	-40(%rbp), %rdx
	leaq	-48(%rbp), %rax
	movq	%rdx, %r8
	movq	%rax, %rdx
	call	AllocateBlock
	movq	%rax, -16(%rbp)
	.loc 5 976 8
	cmpq	$0, -16(%rbp)
	jne	.L206
	.loc 5 977 16
	movl	$-6, %eax
	jmp	.L211
.L206:
	.loc 5 979 17
	movq	$1, -8(%rbp)
	.loc 5 980 25
	movq	16(%rbp), %rax
	movq	(%rax), %rdx
	.loc 5 980 17
	movq	-16(%rbp), %rax
	movq	%rdx, (%rax)
	.loc 5 981 5
	addq	$8, 16(%rbp)
	.loc 5 982 5
	subq	$1, 24(%rbp)
	.loc 5 984 11
	jmp	.L208
.L209:
.LBB26:
	.loc 5 986 32
	movq	fp_MultiplyAndAdd(%rip), %rax
	movq	16(%rbp), %rdx
	movq	(%rdx), %r8
	movq	-8(%rbp), %rdx
	movq	-16(%rbp), %rcx
	call	*%rax
.LVL11:
	movq	%rax, -24(%rbp)
	.loc 5 987 33
	movq	-24(%rbp), %rax
	subq	-16(%rbp), %rax
	sarq	$3, %rax
	.loc 5 987 24
	movq	%rax, -8(%rbp)
	.loc 5 988 9
	addq	$8, 16(%rbp)
	.loc 5 989 9
	subq	$1, 24(%rbp)
.L208:
.LBE26:
	.loc 5 984 11
	cmpq	$0, 24(%rbp)
	jne	.L209
	.loc 5 991 19
	movq	-40(%rbp), %rdx
	movq	-16(%rbp), %rax
	movq	%rax, %rcx
	call	CheckBlockLight
	movl	%eax, -28(%rbp)
	.loc 5 991 8
	cmpl	$0, -28(%rbp)
	je	.L210
	.loc 5 992 16
	movl	-28(%rbp), %eax
	jmp	.L211
.L210:
	.loc 5 993 5
	movq	-8(%rbp), %rcx
	movq	-16(%rbp), %rdx
	movq	32(%rbp), %rax
	movq	%rcx, %r8
	movq	%rax, %rcx
	call	_COPY_MEMORY_UNIT
	.loc 5 994 5
	movq	-48(%rbp), %rdx
	movq	-16(%rbp), %rax
	movq	%rax, %rcx
	call	DeallocateBlock
	.loc 5 995 12
	movl	$0, %eax
.L211:
	.loc 5 996 1 discriminator 1
	addq	$80, %rsp
	popq	%rbp
	.cfi_restore 6
	.cfi_def_cfa 7, 8
	ret
	.cfi_endproc
.LFE4392:
	.seh_endproc
	.def	TryParseDN;	.scl	3;	.type	32;	.endef
	.seh_proc	TryParseDN
TryParseDN:
.LFB4393:
	.loc 5 999 1
	.cfi_startproc
	pushq	%rbp
	.seh_pushreg	%rbp
	.cfi_def_cfa_offset 16
	.cfi_offset 6, -16
	pushq	%rbx
	.seh_pushreg	%rbx
	.cfi_def_cfa_offset 24
	.cfi_offset 3, -24
	subq	$200, %rsp
	.seh_stackalloc	200
	.cfi_def_cfa_offset 224
	leaq	128(%rsp), %rbp
	.seh_setframe	%rbp, 128
	.cfi_def_cfa 6, 96
	.seh_endprologue
	movq	%rcx, 96(%rbp)
	movl	%edx, 104(%rbp)
	movq	%r8, 112(%rbp)
	movq	%r9, 120(%rbp)
	.loc 5 1004 9
	movl	$19, 36(%rbp)
	.loc 5 1008 30
	movq	96(%rbp), %rcx
	movq	__imp_lstrlenW(%rip), %rax
	call	*%rax
.LVL12:
	.loc 5 1008 17
	cltq
	movq	%rax, 24(%rbp)
	.loc 5 1012 39
	movq	24(%rbp), %rax
	addq	$1, %rax
	salq	$4, %rax
	movq	%rax, %rcx
	leaq	-24(%rbp), %rdx
	leaq	-32(%rbp), %rax
	movq	%rdx, %r8
	movq	%rax, %rdx
	call	AllocateBlock
	movq	%rax, 16(%rbp)
	.loc 5 1013 8
	cmpq	$0, 16(%rbp)
	jne	.L213
	.loc 5 1014 16
	movl	$-6, %eax
	jmp	.L239
.L213:
	.loc 5 1018 40
	movq	24(%rbp), %rax
	addq	$1, %rax
	salq	$4, %rax
	movq	%rax, %rcx
	leaq	-40(%rbp), %rdx
	leaq	-48(%rbp), %rax
	movq	%rdx, %r8
	movq	%rax, %rdx
	call	AllocateBlock
	movq	%rax, 8(%rbp)
	.loc 5 1019 8
	cmpq	$0, 8(%rbp)
	jne	.L215
	.loc 5 1021 9
	movq	-32(%rbp), %rdx
	movq	16(%rbp), %rax
	movq	%rax, %rcx
	call	DeallocateBlock
	.loc 5 1022 16
	movl	$-6, %eax
	jmp	.L239
.L215:
	.loc 5 1024 26
	movq	120(%rbp), %r8
	movq	112(%rbp), %rcx
	movl	104(%rbp), %eax
	movq	8(%rbp), %rdx
	movq	%rdx, 40(%rsp)
	movq	16(%rbp), %rdx
	movq	%rdx, 32(%rsp)
	movq	%r8, %r9
	movq	%rcx, %r8
	movl	%eax, %edx
	movq	96(%rbp), %rcx
	call	ParseAsDecimalNumberString
	movl	%eax, 4(%rbp)
	.loc 5 1025 19
	movq	-24(%rbp), %rdx
	movq	16(%rbp), %rax
	movq	%rax, %rcx
	call	CheckBlockLight
	movl	%eax, 0(%rbp)
	.loc 5 1025 8
	cmpl	$0, 0(%rbp)
	je	.L216
	.loc 5 1026 16
	movl	0(%rbp), %eax
	jmp	.L239
.L216:
	.loc 5 1027 19
	movq	-40(%rbp), %rdx
	movq	8(%rbp), %rax
	movq	%rax, %rcx
	call	CheckBlockLight
	movl	%eax, 0(%rbp)
	.loc 5 1027 8
	cmpl	$0, 0(%rbp)
	je	.L217
	.loc 5 1028 16
	movl	0(%rbp), %eax
	jmp	.L239
.L217:
	.loc 5 1029 8
	cmpl	$0, 4(%rbp)
	jne	.L218
	.loc 5 1031 9
	movq	-48(%rbp), %rdx
	movq	8(%rbp), %rax
	movq	%rax, %rcx
	call	DeallocateBlock
	.loc 5 1032 9
	movq	-32(%rbp), %rdx
	movq	16(%rbp), %rax
	movq	%rax, %rcx
	call	DeallocateBlock
	.loc 5 1033 16
	movl	$1, %eax
	jmp	.L239
.L218:
	.loc 5 1036 21
	movq	16(%rbp), %rax
	movzwl	(%rax), %eax
	.loc 5 1036 8
	testw	%ax, %ax
	jne	.L219
	.loc 5 1036 50 discriminator 1
	movq	8(%rbp), %rax
	movzwl	(%rax), %eax
	.loc 5 1036 34 discriminator 1
	testw	%ax, %ax
	jne	.L219
	.loc 5 1038 9
	movq	-48(%rbp), %rdx
	movq	8(%rbp), %rax
	movq	%rax, %rcx
	call	DeallocateBlock
	.loc 5 1039 9
	movq	-32(%rbp), %rdx
	movq	16(%rbp), %rax
	movq	%rax, %rcx
	call	DeallocateBlock
	.loc 5 1040 16
	movl	$1, %eax
	jmp	.L239
.L219:
	.loc 5 1043 21
	movq	16(%rbp), %rax
	movzwl	(%rax), %eax
	.loc 5 1043 8
	cmpw	$48, %ax
	jne	.L220
.LBB27:
	.loc 5 1046 18
	movq	16(%rbp), %rax
	movq	%rax, 56(%rbp)
	.loc 5 1047 18
	movq	16(%rbp), %rax
	movq	%rax, 48(%rbp)
	.loc 5 1048 15
	jmp	.L221
.L222:
	.loc 5 1049 13
	addq	$2, 56(%rbp)
.L221:
	.loc 5 1048 16
	movq	56(%rbp), %rax
	movzwl	(%rax), %eax
	.loc 5 1048 15
	cmpw	$48, %ax
	je	.L222
.L224:
	.loc 5 1052 22
	movq	56(%rbp), %rax
	movzwl	(%rax), %edx
	.loc 5 1052 20
	movq	48(%rbp), %rax
	movw	%dx, (%rax)
	.loc 5 1053 17
	movq	56(%rbp), %rax
	movzwl	(%rax), %eax
	.loc 5 1053 16
	testw	%ax, %ax
	je	.L240
	.loc 5 1055 13
	addq	$2, 56(%rbp)
	.loc 5 1056 13
	addq	$2, 48(%rbp)
	.loc 5 1052 20
	jmp	.L224
.L240:
	.loc 5 1054 17
	nop
.L220:
.LBE27:
	.loc 5 1061 41
	movq	8(%rbp), %rax
	movq	%rax, %rcx
	movq	__imp_lstrlenW(%rip), %rax
	call	*%rax
.LVL13:
	cltq
	.loc 5 1061 39
	leaq	(%rax,%rax), %rdx
	.loc 5 1061 14
	movq	8(%rbp), %rax
	addq	%rdx, %rax
	movq	%rax, 40(%rbp)
	.loc 5 1062 11
	jmp	.L225
.L227:
	.loc 5 1063 9
	subq	$2, 40(%rbp)
.L225:
	.loc 5 1062 11
	movq	40(%rbp), %rax
	cmpq	8(%rbp), %rax
	jbe	.L226
	.loc 5 1062 48 discriminator 1
	movq	40(%rbp), %rax
	subq	$2, %rax
	movzwl	(%rax), %eax
	.loc 5 1062 37 discriminator 1
	cmpw	$48, %ax
	je	.L227
.L226:
	.loc 5 1064 15
	movq	40(%rbp), %rax
	movw	$0, (%rax)
	.loc 5 1067 22
	movq	8(%rbp), %rax
	movzwl	(%rax), %eax
	.loc 5 1067 8
	testw	%ax, %ax
	je	.L228
	.loc 5 1069 9
	movq	-48(%rbp), %rdx
	movq	8(%rbp), %rax
	movq	%rax, %rcx
	call	DeallocateBlock
	.loc 5 1070 9
	movq	-32(%rbp), %rdx
	movq	16(%rbp), %rax
	movq	%rax, %rcx
	call	DeallocateBlock
	.loc 5 1071 16
	movl	$1, %eax
	jmp	.L239
.L228:
	.loc 5 1074 21
	movq	16(%rbp), %rax
	movzwl	(%rax), %eax
	.loc 5 1074 8
	testw	%ax, %ax
	jne	.L229
	.loc 5 1079 17
	movq	120(%rbp), %rax
	movb	$0, (%rax)
	.loc 5 1082 25
	movq	16(%rbp), %rax
	movw	$48, (%rax)
	.loc 5 1083 21
	movq	16(%rbp), %rax
	addq	$2, %rax
	.loc 5 1083 25
	movw	$0, (%rax)
.L229:
	.loc 5 1087 5
	movq	-48(%rbp), %rdx
	movq	8(%rbp), %rax
	movq	%rax, %rcx
	call	DeallocateBlock
	.loc 5 1091 42
	movl	36(%rbp), %eax
	movslq	%eax, %rbx
	.loc 5 1091 63
	movq	16(%rbp), %rax
	movq	%rax, %rcx
	movq	__imp_lstrlenW(%rip), %rax
	call	*%rax
.LVL14:
	.loc 5 1091 42
	cltq
	movq	%rbx, %rdx
	movq	%rax, %rcx
	call	_DIVIDE_CEILING_SIZE
	.loc 5 1091 28
	salq	$6, %rax
	movq	%rax, %rcx
	leaq	-56(%rbp), %rdx
	leaq	-64(%rbp), %rax
	movq	%rdx, %r8
	movq	%rax, %rdx
	call	AllocateBlock
	movq	%rax, -8(%rbp)
	.loc 5 1092 8
	cmpq	$0, -8(%rbp)
	jne	.L230
	.loc 5 1094 9
	movq	-32(%rbp), %rdx
	movq	16(%rbp), %rax
	movq	%rax, %rcx
	call	DeallocateBlock
	.loc 5 1095 16
	movl	$-6, %eax
	jmp	.L239
.L230:
	.loc 5 1098 5
	leaq	-72(%rbp), %rcx
	movq	-8(%rbp), %rdx
	movq	16(%rbp), %rax
	movq	%rcx, %r8
	movq	%rax, %rcx
	call	BuildBinaryFromDecimalString
	.loc 5 1099 19
	movq	-56(%rbp), %rdx
	movq	-8(%rbp), %rax
	movq	%rax, %rcx
	call	CheckBlockLight
	movl	%eax, 0(%rbp)
	.loc 5 1099 8
	cmpl	$0, 0(%rbp)
	je	.L231
	.loc 5 1100 16
	movl	0(%rbp), %eax
	jmp	.L239
.L231:
	.loc 5 1101 5
	movq	-32(%rbp), %rdx
	movq	16(%rbp), %rax
	movq	%rax, %rcx
	call	DeallocateBlock
	.loc 5 1103 45
	movq	-72(%rbp), %rax
	.loc 5 1103 17
	salq	$6, %rax
	movq	%rax, -16(%rbp)
	.loc 5 1105 19
	leaq	-80(%rbp), %rcx
	movq	-16(%rbp), %rdx
	movq	128(%rbp), %rax
	movq	%rcx, %r8
	movq	%rax, %rcx
	call	AllocateNumber
	movl	%eax, 0(%rbp)
	.loc 5 1105 8
	cmpl	$0, 0(%rbp)
	je	.L232
	.loc 5 1107 9
	movq	-64(%rbp), %rdx
	movq	-8(%rbp), %rax
	movq	%rax, %rcx
	call	DeallocateBlock
	.loc 5 1108 16
	movl	0(%rbp), %eax
	jmp	.L239
.L232:
	.loc 5 1111 66
	movq	128(%rbp), %rax
	movq	(%rax), %rax
	.loc 5 1111 19
	movq	64(%rax), %rcx
	movq	-72(%rbp), %rdx
	movq	-8(%rbp), %rax
	movq	%rcx, %r8
	movq	%rax, %rcx
	call	ConvertCardinalNumber
	movl	%eax, 0(%rbp)
	.loc 5 1111 8
	cmpl	$0, 0(%rbp)
	je	.L233
	.loc 5 1113 9
	movq	128(%rbp), %rax
	movq	(%rax), %rax
	movq	%rax, %rcx
	call	DeallocateNumber
	.loc 5 1114 9
	movq	-64(%rbp), %rdx
	movq	-8(%rbp), %rax
	movq	%rax, %rcx
	call	DeallocateBlock
	.loc 5 1115 16
	movl	0(%rbp), %eax
	jmp	.L239
.L233:
	.loc 5 1117 19
	movq	-80(%rbp), %rdx
	.loc 5 1117 36
	movq	128(%rbp), %rax
	movq	(%rax), %rax
	.loc 5 1117 19
	movq	64(%rax), %rax
	movq	%rax, %rcx
	call	CheckBlockLight
	movl	%eax, 0(%rbp)
	.loc 5 1117 8
	cmpl	$0, 0(%rbp)
	je	.L234
	.loc 5 1118 16
	movl	0(%rbp), %eax
	jmp	.L239
.L234:
	.loc 5 1119 5
	movq	-64(%rbp), %rdx
	movq	-8(%rbp), %rax
	movq	%rax, %rcx
	call	DeallocateBlock
	.loc 5 1120 5
	movq	128(%rbp), %rax
	movq	(%rax), %rax
	movq	%rax, %rcx
	call	CommitNumber
	.loc 5 1121 10
	movq	128(%rbp), %rax
	movq	(%rax), %rax
	.loc 5 1121 9
	movzbl	(%rax), %eax
	andl	$1, %eax
	.loc 5 1121 8
	testb	%al, %al
	je	.L235
	.loc 5 1123 9
	movq	128(%rbp), %rax
	movq	(%rax), %rax
	movq	%rax, %rcx
	call	DeallocateNumber
	.loc 5 1124 16
	movq	128(%rbp), %rax
	movq	.refptr.number_zero(%rip), %rdx
	movq	%rdx, (%rax)
.L235:
	.loc 5 1127 9
	movq	120(%rbp), %rax
	movzbl	(%rax), %eax
	.loc 5 1127 8
	testb	%al, %al
	je	.L236
	.loc 5 1127 25 discriminator 1
	movq	120(%rbp), %rax
	movzbl	(%rax), %eax
	.loc 5 1127 22 discriminator 1
	cmpb	$1, %al
	je	.L236
	.loc 5 1127 41 discriminator 2
	movq	120(%rbp), %rax
	movzbl	(%rax), %eax
	.loc 5 1127 38 discriminator 2
	cmpb	$-1, %al
	je	.L236
	.loc 5 1128 16
	movl	$-256, %eax
	jmp	.L239
.L236:
	.loc 5 1129 9
	movq	120(%rbp), %rax
	movzbl	(%rax), %eax
	.loc 5 1129 8
	testb	%al, %al
	jne	.L237
	.loc 5 1129 27 discriminator 1
	movq	128(%rbp), %rax
	movq	(%rax), %rax
	.loc 5 1129 25 discriminator 1
	movzbl	(%rax), %eax
	andl	$1, %eax
	.loc 5 1129 22 discriminator 1
	testb	%al, %al
	jne	.L237
	.loc 5 1130 16
	movl	$-256, %eax
	jmp	.L239
.L237:
	.loc 5 1131 9
	movq	120(%rbp), %rax
	movzbl	(%rax), %eax
	.loc 5 1131 8
	testb	%al, %al
	je	.L238
	.loc 5 1131 26 discriminator 1
	movq	128(%rbp), %rax
	movq	(%rax), %rax
	.loc 5 1131 22 discriminator 1
	movzbl	(%rax), %eax
	andl	$1, %eax
	testb	%al, %al
	je	.L238
	.loc 5 1132 16
	movl	$-256, %eax
	jmp	.L239
.L238:
	.loc 5 1134 12
	movl	$0, %eax
.L239:
	.loc 5 1135 1 discriminator 1
	addq	$200, %rsp
	popq	%rbx
	.cfi_restore 3
	popq	%rbp
	.cfi_restore 6
	.cfi_def_cfa 7, -184
	ret
	.cfi_endproc
.LFE4393:
	.seh_endproc
	.def	BuildLeading1WordFromHexString;	.scl	3;	.type	32;	.endef
	.seh_proc	BuildLeading1WordFromHexString
BuildLeading1WordFromHexString:
.LFB4394:
	.loc 5 1138 1
	.cfi_startproc
	pushq	%rbp
	.seh_pushreg	%rbp
	.cfi_def_cfa_offset 16
	.cfi_offset 6, -16
	pushq	%rbx
	.seh_pushreg	%rbx
	.cfi_def_cfa_offset 24
	.cfi_offset 3, -24
	subq	$56, %rsp
	.seh_stackalloc	56
	.cfi_def_cfa_offset 80
	leaq	128(%rsp), %rbp
	.seh_setframe	%rbp, 128
	.cfi_def_cfa 6, -48
	.seh_endprologue
	movq	%rcx, -48(%rbp)
	movq	%rdx, -40(%rbp)
	.loc 5 1139 35
	movq	-48(%rbp), %rax
	movzwl	(%rax), %eax
	.loc 5 1139 21
	movzwl	%ax, %eax
	movl	%eax, %ecx
	call	ParseHexDigit
	.loc 5 1139 17
	cltq
	movq	%rax, -88(%rbp)
	.loc 5 1140 5
	addq	$2, -48(%rbp)
	.loc 5 1141 5
	subq	$1, -40(%rbp)
	.loc 5 1142 11
	jmp	.L242
.L243:
	.loc 5 1144 15
	movq	-88(%rbp), %rax
	salq	$4, %rax
	movq	%rax, %rbx
	.loc 5 1144 36
	movq	-48(%rbp), %rax
	movzwl	(%rax), %eax
	.loc 5 1144 22
	movzwl	%ax, %eax
	movl	%eax, %ecx
	call	ParseHexDigit
	cltq
	.loc 5 1144 11
	addq	%rbx, %rax
	movq	%rax, -88(%rbp)
	.loc 5 1145 9
	addq	$2, -48(%rbp)
	.loc 5 1146 9
	subq	$1, -40(%rbp)
.L242:
	.loc 5 1142 11
	cmpq	$0, -40(%rbp)
	jne	.L243
	.loc 5 1148 12
	movq	-88(%rbp), %rax
	.loc 5 1149 1
	addq	$56, %rsp
	popq	%rbx
	.cfi_restore 3
	popq	%rbp
	.cfi_restore 6
	.cfi_def_cfa 7, -40
	ret
	.cfi_endproc
.LFE4394:
	.seh_endproc
	.def	Build1WordFromHexString;	.scl	3;	.type	32;	.endef
	.seh_proc	Build1WordFromHexString
Build1WordFromHexString:
.LFB4395:
	.loc 5 1152 1
	.cfi_startproc
	pushq	%rbp
	.seh_pushreg	%rbp
	.cfi_def_cfa_offset 16
	.cfi_offset 6, -16
	pushq	%rbx
	.seh_pushreg	%rbx
	.cfi_def_cfa_offset 24
	.cfi_offset 3, -24
	subq	$56, %rsp
	.seh_stackalloc	56
	.cfi_def_cfa_offset 80
	leaq	128(%rsp), %rbp
	.seh_setframe	%rbp, 128
	.cfi_def_cfa 6, -48
	.seh_endprologue
	movq	%rcx, -48(%rbp)
	.loc 5 1153 42
	movq	-48(%rbp), %rax
	leaq	2(%rax), %rdx
	movq	%rdx, -48(%rbp)
	.loc 5 1153 35
	movzwl	(%rax), %eax
	.loc 5 1153 21
	movzwl	%ax, %eax
	movl	%eax, %ecx
	call	ParseHexDigit
	.loc 5 1153 17
	cltq
	movq	%rax, -88(%rbp)
	.loc 5 1156 15
	movq	-88(%rbp), %rax
	salq	$4, %rax
	movq	%rax, %rbx
	.loc 5 1156 43
	movq	-48(%rbp), %rax
	leaq	2(%rax), %rdx
	movq	%rdx, -48(%rbp)
	.loc 5 1156 36
	movzwl	(%rax), %eax
	.loc 5 1156 22
	movzwl	%ax, %eax
	movl	%eax, %ecx
	call	ParseHexDigit
	cltq
	.loc 5 1156 11
	addq	%rbx, %rax
	movq	%rax, -88(%rbp)
	.loc 5 1157 15
	movq	-88(%rbp), %rax
	salq	$4, %rax
	movq	%rax, %rbx
	.loc 5 1157 43
	movq	-48(%rbp), %rax
	leaq	2(%rax), %rdx
	movq	%rdx, -48(%rbp)
	.loc 5 1157 36
	movzwl	(%rax), %eax
	.loc 5 1157 22
	movzwl	%ax, %eax
	movl	%eax, %ecx
	call	ParseHexDigit
	cltq
	.loc 5 1157 11
	addq	%rbx, %rax
	movq	%rax, -88(%rbp)
	.loc 5 1158 15
	movq	-88(%rbp), %rax
	salq	$4, %rax
	movq	%rax, %rbx
	.loc 5 1158 43
	movq	-48(%rbp), %rax
	leaq	2(%rax), %rdx
	movq	%rdx, -48(%rbp)
	.loc 5 1158 36
	movzwl	(%rax), %eax
	.loc 5 1158 22
	movzwl	%ax, %eax
	movl	%eax, %ecx
	call	ParseHexDigit
	cltq
	.loc 5 1158 11
	addq	%rbx, %rax
	movq	%rax, -88(%rbp)
	.loc 5 1159 15
	movq	-88(%rbp), %rax
	salq	$4, %rax
	movq	%rax, %rbx
	.loc 5 1159 43
	movq	-48(%rbp), %rax
	leaq	2(%rax), %rdx
	movq	%rdx, -48(%rbp)
	.loc 5 1159 36
	movzwl	(%rax), %eax
	.loc 5 1159 22
	movzwl	%ax, %eax
	movl	%eax, %ecx
	call	ParseHexDigit
	cltq
	.loc 5 1159 11
	addq	%rbx, %rax
	movq	%rax, -88(%rbp)
	.loc 5 1160 15
	movq	-88(%rbp), %rax
	salq	$4, %rax
	movq	%rax, %rbx
	.loc 5 1160 43
	movq	-48(%rbp), %rax
	leaq	2(%rax), %rdx
	movq	%rdx, -48(%rbp)
	.loc 5 1160 36
	movzwl	(%rax), %eax
	.loc 5 1160 22
	movzwl	%ax, %eax
	movl	%eax, %ecx
	call	ParseHexDigit
	cltq
	.loc 5 1160 11
	addq	%rbx, %rax
	movq	%rax, -88(%rbp)
	.loc 5 1161 15
	movq	-88(%rbp), %rax
	salq	$4, %rax
	movq	%rax, %rbx
	.loc 5 1161 43
	movq	-48(%rbp), %rax
	leaq	2(%rax), %rdx
	movq	%rdx, -48(%rbp)
	.loc 5 1161 36
	movzwl	(%rax), %eax
	.loc 5 1161 22
	movzwl	%ax, %eax
	movl	%eax, %ecx
	call	ParseHexDigit
	cltq
	.loc 5 1161 11
	addq	%rbx, %rax
	movq	%rax, -88(%rbp)
	.loc 5 1162 15
	movq	-88(%rbp), %rax
	salq	$4, %rax
	movq	%rax, %rbx
	.loc 5 1162 43
	movq	-48(%rbp), %rax
	leaq	2(%rax), %rdx
	movq	%rdx, -48(%rbp)
	.loc 5 1162 36
	movzwl	(%rax), %eax
	.loc 5 1162 22
	movzwl	%ax, %eax
	movl	%eax, %ecx
	call	ParseHexDigit
	cltq
	.loc 5 1162 11
	addq	%rbx, %rax
	movq	%rax, -88(%rbp)
	.loc 5 1163 15
	movq	-88(%rbp), %rax
	salq	$4, %rax
	movq	%rax, %rbx
	.loc 5 1163 43
	movq	-48(%rbp), %rax
	leaq	2(%rax), %rdx
	movq	%rdx, -48(%rbp)
	.loc 5 1163 36
	movzwl	(%rax), %eax
	.loc 5 1163 22
	movzwl	%ax, %eax
	movl	%eax, %ecx
	call	ParseHexDigit
	cltq
	.loc 5 1163 11
	addq	%rbx, %rax
	movq	%rax, -88(%rbp)
	.loc 5 1167 15
	movq	-88(%rbp), %rax
	salq	$4, %rax
	movq	%rax, %rbx
	.loc 5 1167 43
	movq	-48(%rbp), %rax
	leaq	2(%rax), %rdx
	movq	%rdx, -48(%rbp)
	.loc 5 1167 36
	movzwl	(%rax), %eax
	.loc 5 1167 22
	movzwl	%ax, %eax
	movl	%eax, %ecx
	call	ParseHexDigit
	cltq
	.loc 5 1167 11
	addq	%rbx, %rax
	movq	%rax, -88(%rbp)
	.loc 5 1168 15
	movq	-88(%rbp), %rax
	salq	$4, %rax
	movq	%rax, %rbx
	.loc 5 1168 43
	movq	-48(%rbp), %rax
	leaq	2(%rax), %rdx
	movq	%rdx, -48(%rbp)
	.loc 5 1168 36
	movzwl	(%rax), %eax
	.loc 5 1168 22
	movzwl	%ax, %eax
	movl	%eax, %ecx
	call	ParseHexDigit
	cltq
	.loc 5 1168 11
	addq	%rbx, %rax
	movq	%rax, -88(%rbp)
	.loc 5 1169 15
	movq	-88(%rbp), %rax
	salq	$4, %rax
	movq	%rax, %rbx
	.loc 5 1169 43
	movq	-48(%rbp), %rax
	leaq	2(%rax), %rdx
	movq	%rdx, -48(%rbp)
	.loc 5 1169 36
	movzwl	(%rax), %eax
	.loc 5 1169 22
	movzwl	%ax, %eax
	movl	%eax, %ecx
	call	ParseHexDigit
	cltq
	.loc 5 1169 11
	addq	%rbx, %rax
	movq	%rax, -88(%rbp)
	.loc 5 1170 15
	movq	-88(%rbp), %rax
	salq	$4, %rax
	movq	%rax, %rbx
	.loc 5 1170 43
	movq	-48(%rbp), %rax
	leaq	2(%rax), %rdx
	movq	%rdx, -48(%rbp)
	.loc 5 1170 36
	movzwl	(%rax), %eax
	.loc 5 1170 22
	movzwl	%ax, %eax
	movl	%eax, %ecx
	call	ParseHexDigit
	cltq
	.loc 5 1170 11
	addq	%rbx, %rax
	movq	%rax, -88(%rbp)
	.loc 5 1174 15
	movq	-88(%rbp), %rax
	salq	$4, %rax
	movq	%rax, %rbx
	.loc 5 1174 43
	movq	-48(%rbp), %rax
	leaq	2(%rax), %rdx
	movq	%rdx, -48(%rbp)
	.loc 5 1174 36
	movzwl	(%rax), %eax
	.loc 5 1174 22
	movzwl	%ax, %eax
	movl	%eax, %ecx
	call	ParseHexDigit
	cltq
	.loc 5 1174 11
	addq	%rbx, %rax
	movq	%rax, -88(%rbp)
	.loc 5 1175 15
	movq	-88(%rbp), %rax
	salq	$4, %rax
	movq	%rax, %rbx
	.loc 5 1175 43
	movq	-48(%rbp), %rax
	leaq	2(%rax), %rdx
	movq	%rdx, -48(%rbp)
	.loc 5 1175 36
	movzwl	(%rax), %eax
	.loc 5 1175 22
	movzwl	%ax, %eax
	movl	%eax, %ecx
	call	ParseHexDigit
	cltq
	.loc 5 1175 11
	addq	%rbx, %rax
	movq	%rax, -88(%rbp)
	.loc 5 1179 15
	movq	-88(%rbp), %rax
	salq	$4, %rax
	movq	%rax, %rbx
	.loc 5 1179 43
	movq	-48(%rbp), %rax
	leaq	2(%rax), %rdx
	movq	%rdx, -48(%rbp)
	.loc 5 1179 36
	movzwl	(%rax), %eax
	.loc 5 1179 22
	movzwl	%ax, %eax
	movl	%eax, %ecx
	call	ParseHexDigit
	cltq
	.loc 5 1179 11
	addq	%rbx, %rax
	movq	%rax, -88(%rbp)
	.loc 5 1181 12
	movq	-88(%rbp), %rax
	.loc 5 1182 1
	addq	$56, %rsp
	popq	%rbx
	.cfi_restore 3
	popq	%rbp
	.cfi_restore 6
	.cfi_def_cfa 7, -40
	ret
	.cfi_endproc
.LFE4395:
	.seh_endproc
	.def	BuildBinaryFromHexString;	.scl	3;	.type	32;	.endef
	.seh_proc	BuildBinaryFromHexString
BuildBinaryFromHexString:
.LFB4396:
	.loc 5 1185 1
	.cfi_startproc
	pushq	%rbp
	.seh_pushreg	%rbp
	.cfi_def_cfa_offset 16
	.cfi_offset 6, -16
	pushq	%rbx
	.seh_pushreg	%rbx
	.cfi_def_cfa_offset 24
	.cfi_offset 3, -24
	subq	$72, %rsp
	.seh_stackalloc	72
	.cfi_def_cfa_offset 96
	leaq	128(%rsp), %rbp
	.seh_setframe	%rbp, 128
	.cfi_def_cfa 6, -32
	.seh_endprologue
	movq	%rcx, -32(%rbp)
	movq	%rdx, -24(%rbp)
	.loc 5 1186 9
	movl	$16, -92(%rbp)
	.loc 5 1187 32
	movq	-32(%rbp), %rcx
	movq	__imp_lstrlenW(%rip), %rax
	call	*%rax
.LVL15:
	.loc 5 1187 17
	cltq
	movq	%rax, -72(%rbp)
	.loc 5 1188 14
	movq	-32(%rbp), %rax
	movq	%rax, -80(%rbp)
	.loc 5 1189 38
	movl	-92(%rbp), %eax
	cltq
	movq	-72(%rbp), %rcx
	movq	%rax, %rdx
	call	_DIVIDE_CEILING_UNIT
	.loc 5 1189 36
	salq	$3, %rax
	.loc 5 1189 91
	leaq	-8(%rax), %rdx
	.loc 5 1189 18
	movq	-24(%rbp), %rax
	addq	%rdx, %rax
	movq	%rax, -88(%rbp)
	.loc 5 1190 26
	movl	-92(%rbp), %eax
	movslq	%eax, %rcx
	movq	-72(%rbp), %rax
	movl	$0, %edx
	divq	%rcx
	movq	%rdx, %rax
	.loc 5 1190 9
	movl	%eax, -96(%rbp)
	.loc 5 1191 8
	cmpl	$0, -96(%rbp)
	jle	.L249
	.loc 5 1193 22
	movl	-96(%rbp), %eax
	cltq
	.loc 5 1193 17
	movq	-88(%rbp), %rbx
	leaq	-8(%rbx), %rdx
	movq	%rdx, -88(%rbp)
	.loc 5 1193 22
	movq	-80(%rbp), %rcx
	movq	%rax, %rdx
	call	BuildLeading1WordFromHexString
	.loc 5 1193 20
	movq	%rax, (%rbx)
	.loc 5 1194 16
	movl	-96(%rbp), %eax
	cltq
	addq	%rax, %rax
	addq	%rax, -80(%rbp)
	.loc 5 1195 22
	movl	-96(%rbp), %eax
	cltq
	subq	%rax, -72(%rbp)
	.loc 5 1197 11
	jmp	.L249
.L250:
	.loc 5 1199 17
	movq	-88(%rbp), %rbx
	leaq	-8(%rbx), %rax
	movq	%rax, -88(%rbp)
	.loc 5 1199 22
	movq	-80(%rbp), %rax
	movq	%rax, %rcx
	call	Build1WordFromHexString
	.loc 5 1199 20
	movq	%rax, (%rbx)
	.loc 5 1200 16
	movl	-92(%rbp), %eax
	cltq
	addq	%rax, %rax
	addq	%rax, -80(%rbp)
	.loc 5 1201 22
	movl	-92(%rbp), %eax
	cltq
	subq	%rax, -72(%rbp)
.L249:
	.loc 5 1197 11
	cmpq	$0, -72(%rbp)
	jne	.L250
	.loc 5 1203 1
	nop
	addq	$72, %rsp
	popq	%rbx
	.cfi_restore 3
	popq	%rbp
	.cfi_restore 6
	.cfi_def_cfa 7, -56
	ret
	.cfi_endproc
.LFE4396:
	.seh_endproc
	.def	TryParseX;	.scl	3;	.type	32;	.endef
	.seh_proc	TryParseX
TryParseX:
.LFB4397:
	.loc 5 1206 1
	.cfi_startproc
	pushq	%rbp
	.seh_pushreg	%rbp
	.cfi_def_cfa_offset 16
	.cfi_offset 6, -16
	movq	%rsp, %rbp
	.seh_setframe	%rbp, 0
	.cfi_def_cfa_register 6
	addq	$-128, %rsp
	.seh_stackalloc	128
	.seh_endprologue
	movq	%rcx, 16(%rbp)
	movl	%edx, 24(%rbp)
	movq	%r8, 32(%rbp)
	movq	%r9, 40(%rbp)
	.loc 5 1208 30
	movq	16(%rbp), %rcx
	movq	__imp_lstrlenW(%rip), %rax
	call	*%rax
.LVL16:
	.loc 5 1208 17
	cltq
	movq	%rax, -32(%rbp)
	.loc 5 1211 39
	movq	-32(%rbp), %rax
	addq	$1, %rax
	salq	$4, %rax
	movq	%rax, %rcx
	leaq	-80(%rbp), %rdx
	leaq	-88(%rbp), %rax
	movq	%rdx, %r8
	movq	%rax, %rdx
	call	AllocateBlock
	movq	%rax, -40(%rbp)
	.loc 5 1212 8
	cmpq	$0, -40(%rbp)
	jne	.L252
	.loc 5 1213 16
	movl	$-6, %eax
	jmp	.L266
.L252:
	.loc 5 1214 26
	movq	-40(%rbp), %rcx
	movq	32(%rbp), %rdx
	movl	24(%rbp), %eax
	movq	%rcx, %r9
	movq	%rdx, %r8
	movl	%eax, %edx
	movq	16(%rbp), %rcx
	call	ParseAsHexNumberString
	movl	%eax, -44(%rbp)
	.loc 5 1215 19
	movq	-80(%rbp), %rdx
	movq	-40(%rbp), %rax
	movq	%rax, %rcx
	call	CheckBlockLight
	movl	%eax, -48(%rbp)
	.loc 5 1215 8
	cmpl	$0, -48(%rbp)
	je	.L254
	.loc 5 1216 16
	movl	-48(%rbp), %eax
	jmp	.L266
.L254:
	.loc 5 1217 8
	cmpl	$0, -44(%rbp)
	je	.L255
	.loc 5 1217 40 discriminator 1
	movq	-40(%rbp), %rax
	movzwl	(%rax), %eax
	.loc 5 1217 25 discriminator 1
	testw	%ax, %ax
	jne	.L256
.L255:
	.loc 5 1219 9
	movq	-88(%rbp), %rdx
	movq	-40(%rbp), %rax
	movq	%rax, %rcx
	call	DeallocateBlock
	.loc 5 1220 16
	movl	$1, %eax
	jmp	.L266
.L256:
	.loc 5 1224 41
	movq	-40(%rbp), %rax
	movzwl	(%rax), %eax
	.loc 5 1224 15
	movzwl	%ax, %eax
	movl	%eax, %ecx
	call	ParseHexDigit
	.loc 5 1224 13
	cmpl	$7, %eax
	jle	.L257
	.loc 5 1224 13 is_stmt 0 discriminator 1
	movl	$-1, %edx
	jmp	.L258
.L257:
	.loc 5 1224 13 discriminator 2
	movl	$1, %edx
.L258:
	.loc 5 1224 13 discriminator 4
	movq	40(%rbp), %rax
	movb	%dl, (%rax)
	.loc 5 1226 31 is_stmt 1 discriminator 4
	movq	-40(%rbp), %rax
	movq	%rax, %rcx
	movq	__imp_lstrlenW(%rip), %rax
	call	*%rax
.LVL17:
	.loc 5 1226 54 discriminator 4
	sall	$2, %eax
	.loc 5 1226 17 discriminator 4
	cltq
	movq	%rax, -56(%rbp)
	.loc 5 1228 19 discriminator 4
	leaq	-96(%rbp), %rcx
	movq	-56(%rbp), %rdx
	movq	48(%rbp), %rax
	movq	%rcx, %r8
	movq	%rax, %rcx
	call	AllocateNumber
	movl	%eax, -48(%rbp)
	.loc 5 1228 8 discriminator 4
	cmpl	$0, -48(%rbp)
	je	.L259
	.loc 5 1230 9
	movq	-88(%rbp), %rdx
	movq	-40(%rbp), %rax
	movq	%rax, %rcx
	call	DeallocateBlock
	.loc 5 1231 16
	movl	-48(%rbp), %eax
	jmp	.L266
.L259:
	.loc 5 1233 45
	movq	48(%rbp), %rax
	movq	(%rax), %rax
	.loc 5 1233 5
	movq	64(%rax), %rdx
	movq	-40(%rbp), %rax
	movq	%rax, %rcx
	call	BuildBinaryFromHexString
	.loc 5 1234 19
	movq	-96(%rbp), %rdx
	.loc 5 1234 36
	movq	48(%rbp), %rax
	movq	(%rax), %rax
	.loc 5 1234 19
	movq	64(%rax), %rax
	movq	%rax, %rcx
	call	CheckBlockLight
	movl	%eax, -48(%rbp)
	.loc 5 1234 8
	cmpl	$0, -48(%rbp)
	je	.L260
	.loc 5 1235 16
	movl	-48(%rbp), %eax
	jmp	.L266
.L260:
	.loc 5 1236 5
	movq	-88(%rbp), %rdx
	movq	-40(%rbp), %rax
	movq	%rax, %rcx
	call	DeallocateBlock
	.loc 5 1237 9
	movq	40(%rbp), %rax
	movzbl	(%rax), %eax
	.loc 5 1237 8
	testb	%al, %al
	jns	.L261
.LBB28:
	.loc 5 1241 33
	movq	-56(%rbp), %rax
	.loc 5 1241 13
	andl	$63, %eax
	movl	%eax, -60(%rbp)
	.loc 5 1242 12
	cmpl	$0, -60(%rbp)
	je	.L262
.LBB29:
	.loc 5 1244 25
	movl	-60(%rbp), %eax
	movq	$-1, %rdx
	movl	%eax, %ecx
	salq	%cl, %rdx
	movq	%rdx, %rax
	movq	%rax, -72(%rbp)
	.loc 5 1245 14
	movq	48(%rbp), %rax
	movq	(%rax), %rax
	.loc 5 1245 21
	movq	64(%rax), %rdx
	.loc 5 1245 30
	movq	48(%rbp), %rax
	movq	(%rax), %rax
	.loc 5 1245 37
	movq	56(%rax), %rax
	.loc 5 1245 56
	salq	$3, %rax
	subq	$8, %rax
	addq	%rdx, %rax
	movq	(%rax), %rax
	.loc 5 1245 14
	movq	48(%rbp), %rdx
	movq	(%rdx), %rdx
	.loc 5 1245 21
	movq	64(%rdx), %rcx
	.loc 5 1245 30
	movq	48(%rbp), %rdx
	movq	(%rdx), %rdx
	.loc 5 1245 37
	movq	56(%rdx), %rdx
	.loc 5 1245 56
	salq	$3, %rdx
	subq	$8, %rdx
	addq	%rcx, %rdx
	orq	-72(%rbp), %rax
	movq	%rax, (%rdx)
.L262:
.LBE29:
	.loc 5 1249 14
	movb	$1, -1(%rbp)
	.loc 5 1250 27
	movq	48(%rbp), %rax
	movq	(%rax), %rax
	.loc 5 1250 22
	movq	64(%rax), %rax
	movq	%rax, -16(%rbp)
	.loc 5 1251 30
	movq	48(%rbp), %rax
	movq	(%rax), %rax
	.loc 5 1251 21
	movq	56(%rax), %rax
	movq	%rax, -24(%rbp)
	.loc 5 1252 15
	jmp	.L263
.L264:
	.loc 5 1254 39
	movq	-16(%rbp), %rax
	movq	(%rax), %rax
	.loc 5 1254 21
	notq	%rax
	movq	%rax, %rdx
	movsbl	-1(%rbp), %eax
	movq	-16(%rbp), %rcx
	movq	%rcx, %r9
	movl	$0, %r8d
	movl	%eax, %ecx
	call	_ADD_UNIT
	movb	%al, -1(%rbp)
	.loc 5 1255 13
	addq	$8, -16(%rbp)
	.loc 5 1256 13
	subq	$1, -24(%rbp)
.L263:
	.loc 5 1252 15
	cmpq	$0, -24(%rbp)
	jne	.L264
.L261:
.LBE28:
	.loc 5 1259 5
	movq	48(%rbp), %rax
	movq	(%rax), %rax
	movq	%rax, %rcx
	call	CommitNumber
	.loc 5 1260 10
	movq	48(%rbp), %rax
	movq	(%rax), %rax
	.loc 5 1260 9
	movzbl	(%rax), %eax
	andl	$1, %eax
	.loc 5 1260 8
	testb	%al, %al
	je	.L265
	.loc 5 1262 9
	movq	48(%rbp), %rax
	movq	(%rax), %rax
	movq	%rax, %rcx
	call	DeallocateNumber
	.loc 5 1263 17
	movq	40(%rbp), %rax
	movb	$0, (%rax)
	.loc 5 1264 16
	movq	48(%rbp), %rax
	movq	.refptr.number_zero(%rip), %rdx
	movq	%rdx, (%rax)
.L265:
	.loc 5 1266 12
	movl	$0, %eax
.L266:
	.loc 5 1267 1 discriminator 1
	subq	$-128, %rsp
	popq	%rbp
	.cfi_restore 6
	.cfi_def_cfa 7, 8
	ret
	.cfi_endproc
.LFE4397:
	.seh_endproc
	.def	PMC_TryParse_Imp;	.scl	3;	.type	32;	.endef
	.seh_proc	PMC_TryParse_Imp
PMC_TryParse_Imp:
.LFB4398:
	.loc 5 1270 1
	.cfi_startproc
	pushq	%rbp
	.seh_pushreg	%rbp
	.cfi_def_cfa_offset 16
	.cfi_offset 6, -16
	movq	%rsp, %rbp
	.seh_setframe	%rbp, 0
	.cfi_def_cfa_register 6
	subq	$64, %rsp
	.seh_stackalloc	64
	.seh_endprologue
	movq	%rcx, 16(%rbp)
	movl	%edx, 24(%rbp)
	movq	%r8, 32(%rbp)
	movq	%r9, 40(%rbp)
	.loc 5 1272 23
	movl	24(%rbp), %eax
	andl	$512, %eax
	.loc 5 1272 8
	testl	%eax, %eax
	je	.L268
.LBB30:
	.loc 5 1277 19
	movl	$515, -4(%rbp)
	.loc 5 1280 29
	movl	-4(%rbp), %eax
	notl	%eax
	movl	%eax, %edx
	.loc 5 1280 27
	movl	24(%rbp), %eax
	andl	%edx, %eax
	.loc 5 1280 12
	testl	%eax, %eax
	je	.L269
	.loc 5 1281 20
	movl	$-1, %eax
	jmp	.L270
.L269:
	.loc 5 1283 23
	movl	24(%rbp), %eax
	movq	40(%rbp), %r8
	movq	32(%rbp), %rcx
	movq	48(%rbp), %rdx
	movq	%rdx, 32(%rsp)
	movq	%r8, %r9
	movq	%rcx, %r8
	movl	%eax, %edx
	movq	16(%rbp), %rcx
	call	TryParseX
	movl	%eax, -8(%rbp)
	.loc 5 1283 12
	cmpl	$0, -8(%rbp)
	je	.L272
	.loc 5 1284 20
	movl	-8(%rbp), %eax
	jmp	.L270
.L268:
.LBE30:
	.loc 5 1289 23
	movl	24(%rbp), %eax
	movq	40(%rbp), %r8
	movq	32(%rbp), %rcx
	movq	48(%rbp), %rdx
	movq	%rdx, 32(%rsp)
	movq	%r8, %r9
	movq	%rcx, %r8
	movl	%eax, %edx
	movq	16(%rbp), %rcx
	call	TryParseDN
	movl	%eax, -8(%rbp)
	.loc 5 1289 12
	cmpl	$0, -8(%rbp)
	je	.L272
	.loc 5 1290 20
	movl	-8(%rbp), %eax
	jmp	.L270
.L272:
	.loc 5 1293 19
	movq	48(%rbp), %rax
	movq	(%rax), %rax
	movq	%rax, %rcx
	call	CheckNumber
	movl	%eax, -8(%rbp)
	.loc 5 1293 8
	cmpl	$0, -8(%rbp)
	je	.L273
	.loc 5 1294 16
	movl	-8(%rbp), %eax
	jmp	.L270
.L273:
	.loc 5 1296 12
	movl	$0, %eax
.L270:
	.loc 5 1297 1
	addq	$64, %rsp
	popq	%rbp
	.cfi_restore 6
	.cfi_def_cfa 7, 8
	ret
	.cfi_endproc
.LFE4398:
	.seh_endproc
	.globl	PMC_TryParse
	.def	PMC_TryParse;	.scl	2;	.type	32;	.endef
	.seh_proc	PMC_TryParse
PMC_TryParse:
.LFB4399:
	.loc 5 1300 1
	.cfi_startproc
	pushq	%rbp
	.seh_pushreg	%rbp
	.cfi_def_cfa_offset 16
	.cfi_offset 6, -16
	movq	%rsp, %rbp
	.seh_setframe	%rbp, 0
	.cfi_def_cfa_register 6
	subq	$64, %rsp
	.seh_stackalloc	64
	.seh_endprologue
	movq	%rcx, 16(%rbp)
	movl	%edx, 24(%rbp)
	movq	%r8, 32(%rbp)
	movq	%r9, 40(%rbp)
	.loc 5 1302 8
	cmpq	$0, 16(%rbp)
	jne	.L275
	.loc 5 1303 16
	movl	$-1, %eax
	jmp	.L281
.L275:
	.loc 5 1304 8
	cmpq	$0, 40(%rbp)
	jne	.L277
	.loc 5 1305 16
	movl	$-1, %eax
	jmp	.L281
.L277:
	.loc 5 1306 8
	cmpq	$0, 32(%rbp)
	jne	.L278
	.loc 5 1307 23
	leaq	default_number_format_option(%rip), %rax
	movq	%rax, 32(%rbp)
.L278:
	.loc 5 1310 19
	leaq	-5(%rbp), %rcx
	movq	32(%rbp), %r8
	movl	24(%rbp), %edx
	leaq	-16(%rbp), %rax
	movq	%rax, 32(%rsp)
	movq	%rcx, %r9
	movq	16(%rbp), %rcx
	call	PMC_TryParse_Imp
	movl	%eax, -4(%rbp)
	.loc 5 1310 8
	cmpl	$0, -4(%rbp)
	je	.L279
	.loc 5 1311 16
	movl	-4(%rbp), %eax
	jmp	.L281
.L279:
	.loc 5 1312 16
	movzbl	-5(%rbp), %eax
	.loc 5 1312 8
	testb	%al, %al
	jns	.L280
	.loc 5 1315 9
	movq	-16(%rbp), %rax
	movq	%rax, %rcx
	call	DeallocateNumber
	.loc 5 1316 16
	movl	$-2, %eax
	jmp	.L281
.L280:
	.loc 5 1318 8
	movq	-16(%rbp), %rdx
	movq	40(%rbp), %rax
	movq	%rdx, (%rax)
	.loc 5 1319 12
	movl	$0, %eax
.L281:
	.loc 5 1320 1 discriminator 1
	addq	$64, %rsp
	popq	%rbp
	.cfi_restore 6
	.cfi_def_cfa 7, 8
	ret
	.cfi_endproc
.LFE4399:
	.seh_endproc
	.globl	PMC_TryParseForSINT
	.def	PMC_TryParseForSINT;	.scl	2;	.type	32;	.endef
	.seh_proc	PMC_TryParseForSINT
PMC_TryParseForSINT:
.LFB4400:
	.loc 5 1323 1
	.cfi_startproc
	pushq	%rbp
	.seh_pushreg	%rbp
	.cfi_def_cfa_offset 16
	.cfi_offset 6, -16
	movq	%rsp, %rbp
	.seh_setframe	%rbp, 0
	.cfi_def_cfa_register 6
	subq	$64, %rsp
	.seh_stackalloc	64
	.seh_endprologue
	movq	%rcx, 16(%rbp)
	movl	%edx, 24(%rbp)
	movq	%r8, 32(%rbp)
	movq	%r9, 40(%rbp)
	.loc 5 1325 8
	cmpq	$0, 16(%rbp)
	jne	.L283
	.loc 5 1326 16
	movl	$-1, %eax
	jmp	.L289
.L283:
	.loc 5 1327 8
	cmpq	$0, 40(%rbp)
	jne	.L285
	.loc 5 1328 16
	movl	$-1, %eax
	jmp	.L289
.L285:
	.loc 5 1329 8
	cmpq	$0, 48(%rbp)
	jne	.L286
	.loc 5 1330 16
	movl	$-1, %eax
	jmp	.L289
.L286:
	.loc 5 1331 8
	cmpq	$0, 32(%rbp)
	jne	.L287
	.loc 5 1332 23
	leaq	default_number_format_option(%rip), %rax
	movq	%rax, 32(%rbp)
.L287:
	.loc 5 1334 19
	movq	40(%rbp), %r8
	movq	32(%rbp), %rcx
	movl	24(%rbp), %edx
	leaq	-16(%rbp), %rax
	movq	%rax, 32(%rsp)
	movq	%r8, %r9
	movq	%rcx, %r8
	movq	16(%rbp), %rcx
	call	PMC_TryParse_Imp
	movl	%eax, -4(%rbp)
	.loc 5 1334 8
	cmpl	$0, -4(%rbp)
	je	.L288
	.loc 5 1335 16
	movl	-4(%rbp), %eax
	jmp	.L289
.L288:
	.loc 5 1336 12
	movq	-16(%rbp), %rdx
	movq	48(%rbp), %rax
	movq	%rdx, (%rax)
	.loc 5 1337 12
	movl	$0, %eax
.L289:
	.loc 5 1338 1 discriminator 1
	addq	$64, %rsp
	popq	%rbp
	.cfi_restore 6
	.cfi_def_cfa 7, 8
	ret
	.cfi_endproc
.LFE4400:
	.seh_endproc
	.globl	Initialize_Parse
	.def	Initialize_Parse;	.scl	2;	.type	32;	.endef
	.seh_proc	Initialize_Parse
Initialize_Parse:
.LFB4401:
	.loc 5 1341 1
	.cfi_startproc
	pushq	%rbp
	.seh_pushreg	%rbp
	.cfi_def_cfa_offset 16
	.cfi_offset 6, -16
	movq	%rsp, %rbp
	.seh_setframe	%rbp, 0
	.cfi_def_cfa_register 6
	subq	$32, %rsp
	.seh_stackalloc	32
	.seh_endprologue
	movq	%rcx, 16(%rbp)
	.loc 5 1342 5
	leaq	default_number_format_option(%rip), %rcx
	call	InitializeNumberFormatoInfo
	.loc 5 1344 9
	movq	16(%rbp), %rax
	movzbl	(%rax), %eax
	andl	$2, %eax
	.loc 5 1344 8
	testb	%al, %al
	je	.L291
	.loc 5 1344 40 discriminator 1
	movq	16(%rbp), %rax
	movzbl	(%rax), %eax
	andl	$8, %eax
	testb	%al, %al
	je	.L291
	.loc 5 1345 27
	leaq	MultiplyAndAdd_using_ADCX_MULX(%rip), %rax
	movq	%rax, fp_MultiplyAndAdd(%rip)
	jmp	.L292
.L291:
	.loc 5 1347 27
	leaq	MultiplyAndAdd_using_ADC_MUL(%rip), %rax
	movq	%rax, fp_MultiplyAndAdd(%rip)
.L292:
	.loc 5 1349 12
	movl	$0, %eax
	.loc 5 1350 1
	addq	$32, %rsp
	popq	%rbp
	.cfi_restore 6
	.cfi_def_cfa 7, 8
	ret
	.cfi_endproc
.LFE4401:
	.seh_endproc
.Letext0:
	.file 6 "C:/GNU/MINGW64/x86_64-8.1.0-win32-seh-rt_v6-rev0/mingw64/x86_64-w64-mingw32/include/crtdefs.h"
	.file 7 "C:/GNU/MINGW64/x86_64-8.1.0-win32-seh-rt_v6-rev0/mingw64/x86_64-w64-mingw32/include/excpt.h"
	.file 8 "C:/GNU/MINGW64/x86_64-8.1.0-win32-seh-rt_v6-rev0/mingw64/x86_64-w64-mingw32/include/minwindef.h"
	.file 9 "C:/GNU/MINGW64/x86_64-8.1.0-win32-seh-rt_v6-rev0/mingw64/x86_64-w64-mingw32/include/ctype.h"
	.file 10 "C:/GNU/MINGW64/x86_64-8.1.0-win32-seh-rt_v6-rev0/mingw64/x86_64-w64-mingw32/include/guiddef.h"
	.file 11 "C:/GNU/MINGW64/x86_64-8.1.0-win32-seh-rt_v6-rev0/mingw64/x86_64-w64-mingw32/include/stdlib.h"
	.file 12 "C:/GNU/MINGW64/x86_64-8.1.0-win32-seh-rt_v6-rev0/mingw64/x86_64-w64-mingw32/include/malloc.h"
	.file 13 "C:/GNU/MINGW64/x86_64-8.1.0-win32-seh-rt_v6-rev0/mingw64/x86_64-w64-mingw32/include/winnt.h"
	.file 14 "C:/GNU/MINGW64/x86_64-8.1.0-win32-seh-rt_v6-rev0/mingw64/x86_64-w64-mingw32/include/rpcdce.h"
	.file 15 "C:/GNU/MINGW64/x86_64-8.1.0-win32-seh-rt_v6-rev0/mingw64/x86_64-w64-mingw32/include/wtypesbase.h"
	.file 16 "C:/GNU/MINGW64/x86_64-8.1.0-win32-seh-rt_v6-rev0/mingw64/x86_64-w64-mingw32/include/unknwnbase.h"
	.file 17 "C:/GNU/MINGW64/x86_64-8.1.0-win32-seh-rt_v6-rev0/mingw64/x86_64-w64-mingw32/include/objidlbase.h"
	.file 18 "C:/GNU/MINGW64/x86_64-8.1.0-win32-seh-rt_v6-rev0/mingw64/x86_64-w64-mingw32/include/cguid.h"
	.file 19 "C:/GNU/MINGW64/x86_64-8.1.0-win32-seh-rt_v6-rev0/mingw64/x86_64-w64-mingw32/include/wtypes.h"
	.file 20 "C:/GNU/MINGW64/x86_64-8.1.0-win32-seh-rt_v6-rev0/mingw64/x86_64-w64-mingw32/include/combaseapi.h"
	.file 21 "C:/GNU/MINGW64/x86_64-8.1.0-win32-seh-rt_v6-rev0/mingw64/x86_64-w64-mingw32/include/objidl.h"
	.file 22 "C:/GNU/MINGW64/x86_64-8.1.0-win32-seh-rt_v6-rev0/mingw64/x86_64-w64-mingw32/include/oleidl.h"
	.file 23 "C:/GNU/MINGW64/x86_64-8.1.0-win32-seh-rt_v6-rev0/mingw64/x86_64-w64-mingw32/include/servprov.h"
	.file 24 "C:/GNU/MINGW64/x86_64-8.1.0-win32-seh-rt_v6-rev0/mingw64/x86_64-w64-mingw32/include/oaidl.h"
	.file 25 "C:/GNU/MINGW64/x86_64-8.1.0-win32-seh-rt_v6-rev0/mingw64/x86_64-w64-mingw32/include/msxml.h"
	.file 26 "C:/GNU/MINGW64/x86_64-8.1.0-win32-seh-rt_v6-rev0/mingw64/x86_64-w64-mingw32/include/urlmon.h"
	.file 27 "C:/GNU/MINGW64/x86_64-8.1.0-win32-seh-rt_v6-rev0/mingw64/x86_64-w64-mingw32/include/propidl.h"
	.file 28 "C:/GNU/MINGW64/x86_64-8.1.0-win32-seh-rt_v6-rev0/mingw64/x86_64-w64-mingw32/include/oleauto.h"
	.file 29 "C:/GNU/MINGW64/x86_64-8.1.0-win32-seh-rt_v6-rev0/mingw64/x86_64-w64-mingw32/include/winioctl.h"
	.file 30 "C:/GNU/MINGW64/x86_64-8.1.0-win32-seh-rt_v6-rev0/mingw64/x86_64-w64-mingw32/include/winsmcrd.h"
	.file 31 "C:/GNU/MINGW64/x86_64-8.1.0-win32-seh-rt_v6-rev0/mingw64/x86_64-w64-mingw32/include/winscard.h"
	.file 32 "C:/GNU/MINGW64/x86_64-8.1.0-win32-seh-rt_v6-rev0/mingw64/x86_64-w64-mingw32/include/commdlg.h"
	.file 33 "C:/GNU/MINGW64/x86_64-8.1.0-win32-seh-rt_v6-rev0/mingw64/x86_64-w64-mingw32/include/stdint.h"
	.file 34 "../pmc.h"
	.file 35 "../pmc_uint.h"
	.file 36 "../pmc_cpuid.h"
	.file 37 "../pmc_internal.h"
	.file 38 "C:/GNU/MINGW64/x86_64-8.1.0-win32-seh-rt_v6-rev0/mingw64/x86_64-w64-mingw32/include/winbase.h"
	.section	.rdata$.refptr.number_zero, "dr"
	.globl	.refptr.number_zero
	.linkonce	discard
.refptr.number_zero:
	.quad	number_zero
	.section	.rdata$.refptr.statistics_info, "dr"
	.globl	.refptr.statistics_info
	.linkonce	discard
.refptr.statistics_info:
	.quad	statistics_info
