	.file	"pmc_subtruct.c"
	.text
.Ltext0:
	.cfi_sections	.debug_frame
	.def	_SUBTRUCT_UNIT;	.scl	3;	.type	32;	.endef
	.seh_proc	_SUBTRUCT_UNIT
_SUBTRUCT_UNIT:
.LFB4345:
	.file 1 "../pmc_inline_func.h"
	.loc 1 263 5
	.cfi_startproc
	pushq	%rbp
	.seh_pushreg	%rbp
	.cfi_def_cfa_offset 16
	.cfi_offset 6, -16
	movq	%rsp, %rbp
	.seh_setframe	%rbp, 0
	.cfi_def_cfa_register 6
	subq	$32, %rsp
	.seh_stackalloc	32
	.seh_endprologue
	movl	%ecx, %eax
	movq	%rdx, 24(%rbp)
	movq	%r8, 32(%rbp)
	movq	%r9, 40(%rbp)
	movb	%al, 16(%rbp)
	.loc 1 267 17
	movzbl	16(%rbp), %eax
	movzbl	%al, %eax
	movb	%al, -1(%rbp)
	movq	24(%rbp), %rax
	movq	%rax, -16(%rbp)
	movq	32(%rbp), %rax
	movq	%rax, -24(%rbp)
	movq	40(%rbp), %rax
	movq	%rax, -32(%rbp)
.LBB4:
.LBB5:
	.file 2 "C:/GNU/MINGW64/x86_64-8.1.0-win32-seh-rt_v6-rev0/mingw64/lib/gcc/x86_64-w64-mingw32/8.1.0/include/adxintrin.h"
	.loc 2 61 10
	movzbl	-1(%rbp), %eax
	movl	%eax, %r8d
	movq	-16(%rbp), %rax
	movq	-24(%rbp), %rcx
	movq	-32(%rbp), %rdx
	addb	$-1, %r8b
	sbbq	%rcx, %rax
	setc	%cl
	movq	%rax, (%rdx)
.LBE5:
.LBE4:
	.loc 1 267 17
	movl	%ecx, %eax
	.loc 1 271 5
	addq	$32, %rsp
	popq	%rbp
	.cfi_restore 6
	.cfi_def_cfa 7, 8
	ret
	.cfi_endproc
.LFE4345:
	.seh_endproc
	.def	_LZCNT_ALT_32;	.scl	3;	.type	32;	.endef
	.seh_proc	_LZCNT_ALT_32
_LZCNT_ALT_32:
.LFB4363:
	.loc 1 590 5
	.cfi_startproc
	pushq	%rbp
	.seh_pushreg	%rbp
	.cfi_def_cfa_offset 16
	.cfi_offset 6, -16
	movq	%rsp, %rbp
	.seh_setframe	%rbp, 0
	.cfi_def_cfa_register 6
	subq	$16, %rsp
	.seh_stackalloc	16
	.seh_endprologue
	movl	%ecx, 16(%rbp)
	.loc 1 591 12
	cmpl	$0, 16(%rbp)
	jne	.L5
	.loc 1 592 20
	movl	$32, %eax
	jmp	.L6
.L5:
	.loc 1 597 9
/APP
 # 597 "../pmc_inline_func.h" 1
	bsrl 16(%rbp), %eax
 # 0 "" 2
/NO_APP
	movl	%eax, -4(%rbp)
	.loc 1 601 35
	movl	$31, %eax
	subl	-4(%rbp), %eax
.L6:
	.loc 1 602 5
	addq	$16, %rsp
	popq	%rbp
	.cfi_restore 6
	.cfi_def_cfa 7, 8
	ret
	.cfi_endproc
.LFE4363:
	.seh_endproc
	.def	_LZCNT_ALT_UNIT;	.scl	3;	.type	32;	.endef
	.seh_proc	_LZCNT_ALT_UNIT
_LZCNT_ALT_UNIT:
.LFB4365:
	.loc 1 623 5
	.cfi_startproc
	pushq	%rbp
	.seh_pushreg	%rbp
	.cfi_def_cfa_offset 16
	.cfi_offset 6, -16
	movq	%rsp, %rbp
	.seh_setframe	%rbp, 0
	.cfi_def_cfa_register 6
	subq	$16, %rsp
	.seh_stackalloc	16
	.seh_endprologue
	movq	%rcx, 16(%rbp)
	.loc 1 624 12
	cmpq	$0, 16(%rbp)
	jne	.L8
	.loc 1 625 20
	movl	$64, %eax
	jmp	.L9
.L8:
	.loc 1 641 9
/APP
 # 641 "../pmc_inline_func.h" 1
	bsrq 16(%rbp), %rax
 # 0 "" 2
/NO_APP
	movq	%rax, -8(%rbp)
	.loc 1 648 35
	movq	-8(%rbp), %rax
	movl	$63, %edx
	subl	%eax, %edx
	movl	%edx, %eax
.L9:
	.loc 1 649 5
	addq	$16, %rsp
	popq	%rbp
	.cfi_restore 6
	.cfi_def_cfa 7, 8
	ret
	.cfi_endproc
.LFE4365:
	.seh_endproc
	.def	_SUBTRUCT_32WORDS_SBB;	.scl	3;	.type	32;	.endef
	.seh_proc	_SUBTRUCT_32WORDS_SBB
_SUBTRUCT_32WORDS_SBB:
.LFB4378:
	.file 3 "../autogenerated_inline_func.h"
	.loc 3 799 1
	.cfi_startproc
	pushq	%rbp
	.seh_pushreg	%rbp
	.cfi_def_cfa_offset 16
	.cfi_offset 6, -16
	movq	%rsp, %rbp
	.seh_setframe	%rbp, 0
	.cfi_def_cfa_register 6
	.seh_endprologue
	movl	%ecx, %eax
	movq	%rdx, 24(%rbp)
	movq	%r8, 32(%rbp)
	movq	%r9, 40(%rbp)
	movb	%al, 16(%rbp)
	.loc 3 939 5
	movzbl	16(%rbp), %eax
	movq	24(%rbp), %r8
	movq	32(%rbp), %rcx
	movq	40(%rbp), %rdx
	movq	%r8, %r9
	movq	%rcx, %r8
/APP
 # 939 "../autogenerated_inline_func.h" 1
	addb	$-1, %al
	movq	(%r9), %rcx
	sbbq	(%r8), %rcx
	movq	%rcx, (%rdx)
	movq	8(%r9), %rcx
	sbbq	8(%r8), %rcx
	movq	%rcx, 8(%rdx)
	movq	16(%r9), %rcx
	sbbq	16(%r8), %rcx
	movq	%rcx, 16(%rdx)
	movq	24(%r9), %rcx
	sbbq	24(%r8), %rcx
	movq	%rcx, 24(%rdx)
	movq	32(%r9), %rcx
	sbbq	32(%r8), %rcx
	movq	%rcx, 32(%rdx)
	movq	40(%r9), %rcx
	sbbq	40(%r8), %rcx
	movq	%rcx, 40(%rdx)
	movq	48(%r9), %rcx
	sbbq	48(%r8), %rcx
	movq	%rcx, 48(%rdx)
	movq	56(%r9), %rcx
	sbbq	56(%r8), %rcx
	movq	%rcx, 56(%rdx)
	movq	64(%r9), %rcx
	sbbq	64(%r8), %rcx
	movq	%rcx, 64(%rdx)
	movq	72(%r9), %rcx
	sbbq	72(%r8), %rcx
	movq	%rcx, 72(%rdx)
	movq	80(%r9), %rcx
	sbbq	80(%r8), %rcx
	movq	%rcx, 80(%rdx)
	movq	88(%r9), %rcx
	sbbq	88(%r8), %rcx
	movq	%rcx, 88(%rdx)
	movq	96(%r9), %rcx
	sbbq	96(%r8), %rcx
	movq	%rcx, 96(%rdx)
	movq	104(%r9), %rcx
	sbbq	104(%r8), %rcx
	movq	%rcx, 104(%rdx)
	movq	112(%r9), %rcx
	sbbq	112(%r8), %rcx
	movq	%rcx, 112(%rdx)
	movq	120(%r9), %rcx
	sbbq	120(%r8), %rcx
	movq	%rcx, 120(%rdx)
	movq	128(%r9), %rcx
	sbbq	128(%r8), %rcx
	movq	%rcx, 128(%rdx)
	movq	136(%r9), %rcx
	sbbq	136(%r8), %rcx
	movq	%rcx, 136(%rdx)
	movq	144(%r9), %rcx
	sbbq	144(%r8), %rcx
	movq	%rcx, 144(%rdx)
	movq	152(%r9), %rcx
	sbbq	152(%r8), %rcx
	movq	%rcx, 152(%rdx)
	movq	160(%r9), %rcx
	sbbq	160(%r8), %rcx
	movq	%rcx, 160(%rdx)
	movq	168(%r9), %rcx
	sbbq	168(%r8), %rcx
	movq	%rcx, 168(%rdx)
	movq	176(%r9), %rcx
	sbbq	176(%r8), %rcx
	movq	%rcx, 176(%rdx)
	movq	184(%r9), %rcx
	sbbq	184(%r8), %rcx
	movq	%rcx, 184(%rdx)
	movq	192(%r9), %rcx
	sbbq	192(%r8), %rcx
	movq	%rcx, 192(%rdx)
	movq	200(%r9), %rcx
	sbbq	200(%r8), %rcx
	movq	%rcx, 200(%rdx)
	movq	208(%r9), %rcx
	sbbq	208(%r8), %rcx
	movq	%rcx, 208(%rdx)
	movq	216(%r9), %rcx
	sbbq	216(%r8), %rcx
	movq	%rcx, 216(%rdx)
	movq	224(%r9), %rcx
	sbbq	224(%r8), %rcx
	movq	%rcx, 224(%rdx)
	movq	232(%r9), %rcx
	sbbq	232(%r8), %rcx
	movq	%rcx, 232(%rdx)
	movq	240(%r9), %rcx
	sbbq	240(%r8), %rcx
	movq	%rcx, 240(%rdx)
	movq	248(%r9), %rcx
	sbbq	248(%r8), %rcx
	movq	%rcx, 248(%rdx)
	setc	%al
 # 0 "" 2
/NO_APP
	movb	%al, 16(%rbp)
	movq	%r9, 24(%rbp)
	movq	%r8, 32(%rbp)
	movq	%rdx, 40(%rbp)
	.loc 3 1048 12
	movzbl	16(%rbp), %eax
	.loc 3 1049 1
	popq	%rbp
	.cfi_restore 6
	.cfi_def_cfa 7, 8
	ret
	.cfi_endproc
.LFE4378:
	.seh_endproc
	.def	_SUBTRUCT_16WORDS_SBB;	.scl	3;	.type	32;	.endef
	.seh_proc	_SUBTRUCT_16WORDS_SBB
_SUBTRUCT_16WORDS_SBB:
.LFB4386:
	.loc 3 2487 1
	.cfi_startproc
	pushq	%rbp
	.seh_pushreg	%rbp
	.cfi_def_cfa_offset 16
	.cfi_offset 6, -16
	movq	%rsp, %rbp
	.seh_setframe	%rbp, 0
	.cfi_def_cfa_register 6
	.seh_endprologue
	movl	%ecx, %eax
	movq	%rdx, 24(%rbp)
	movq	%r8, 32(%rbp)
	movq	%r9, 40(%rbp)
	movb	%al, 16(%rbp)
	.loc 3 2563 5
	movzbl	16(%rbp), %eax
	movq	24(%rbp), %r8
	movq	32(%rbp), %rcx
	movq	40(%rbp), %rdx
	movq	%r8, %r9
	movq	%rcx, %r8
/APP
 # 2563 "../autogenerated_inline_func.h" 1
	addb	$-1, %al
	movq	(%r9), %rcx
	sbbq	(%r8), %rcx
	movq	%rcx, (%rdx)
	movq	8(%r9), %rcx
	sbbq	8(%r8), %rcx
	movq	%rcx, 8(%rdx)
	movq	16(%r9), %rcx
	sbbq	16(%r8), %rcx
	movq	%rcx, 16(%rdx)
	movq	24(%r9), %rcx
	sbbq	24(%r8), %rcx
	movq	%rcx, 24(%rdx)
	movq	32(%r9), %rcx
	sbbq	32(%r8), %rcx
	movq	%rcx, 32(%rdx)
	movq	40(%r9), %rcx
	sbbq	40(%r8), %rcx
	movq	%rcx, 40(%rdx)
	movq	48(%r9), %rcx
	sbbq	48(%r8), %rcx
	movq	%rcx, 48(%rdx)
	movq	56(%r9), %rcx
	sbbq	56(%r8), %rcx
	movq	%rcx, 56(%rdx)
	movq	64(%r9), %rcx
	sbbq	64(%r8), %rcx
	movq	%rcx, 64(%rdx)
	movq	72(%r9), %rcx
	sbbq	72(%r8), %rcx
	movq	%rcx, 72(%rdx)
	movq	80(%r9), %rcx
	sbbq	80(%r8), %rcx
	movq	%rcx, 80(%rdx)
	movq	88(%r9), %rcx
	sbbq	88(%r8), %rcx
	movq	%rcx, 88(%rdx)
	movq	96(%r9), %rcx
	sbbq	96(%r8), %rcx
	movq	%rcx, 96(%rdx)
	movq	104(%r9), %rcx
	sbbq	104(%r8), %rcx
	movq	%rcx, 104(%rdx)
	movq	112(%r9), %rcx
	sbbq	112(%r8), %rcx
	movq	%rcx, 112(%rdx)
	movq	120(%r9), %rcx
	sbbq	120(%r8), %rcx
	movq	%rcx, 120(%rdx)
	setc	%al
 # 0 "" 2
/NO_APP
	movb	%al, 16(%rbp)
	movq	%r9, 24(%rbp)
	movq	%r8, 32(%rbp)
	movq	%rdx, 40(%rbp)
	.loc 3 2624 12
	movzbl	16(%rbp), %eax
	.loc 3 2625 1
	popq	%rbp
	.cfi_restore 6
	.cfi_def_cfa 7, 8
	ret
	.cfi_endproc
.LFE4386:
	.seh_endproc
	.def	_SUBTRUCT_8WORDS_SBB;	.scl	3;	.type	32;	.endef
	.seh_proc	_SUBTRUCT_8WORDS_SBB
_SUBTRUCT_8WORDS_SBB:
.LFB4394:
	.loc 3 3447 1
	.cfi_startproc
	pushq	%rbp
	.seh_pushreg	%rbp
	.cfi_def_cfa_offset 16
	.cfi_offset 6, -16
	movq	%rsp, %rbp
	.seh_setframe	%rbp, 0
	.cfi_def_cfa_register 6
	.seh_endprologue
	movl	%ecx, %eax
	movq	%rdx, 24(%rbp)
	movq	%r8, 32(%rbp)
	movq	%r9, 40(%rbp)
	movb	%al, 16(%rbp)
	.loc 3 3491 5
	movzbl	16(%rbp), %eax
	movq	24(%rbp), %r8
	movq	32(%rbp), %rcx
	movq	40(%rbp), %rdx
	movq	%r8, %r9
	movq	%rcx, %r8
/APP
 # 3491 "../autogenerated_inline_func.h" 1
	addb	$-1, %al
	movq	(%r9), %rcx
	sbbq	(%r8), %rcx
	movq	%rcx, (%rdx)
	movq	8(%r9), %rcx
	sbbq	8(%r8), %rcx
	movq	%rcx, 8(%rdx)
	movq	16(%r9), %rcx
	sbbq	16(%r8), %rcx
	movq	%rcx, 16(%rdx)
	movq	24(%r9), %rcx
	sbbq	24(%r8), %rcx
	movq	%rcx, 24(%rdx)
	movq	32(%r9), %rcx
	sbbq	32(%r8), %rcx
	movq	%rcx, 32(%rdx)
	movq	40(%r9), %rcx
	sbbq	40(%r8), %rcx
	movq	%rcx, 40(%rdx)
	movq	48(%r9), %rcx
	sbbq	48(%r8), %rcx
	movq	%rcx, 48(%rdx)
	movq	56(%r9), %rcx
	sbbq	56(%r8), %rcx
	movq	%rcx, 56(%rdx)
	setc	%al
 # 0 "" 2
/NO_APP
	movb	%al, 16(%rbp)
	movq	%r9, 24(%rbp)
	movq	%r8, 32(%rbp)
	movq	%rdx, 40(%rbp)
	.loc 3 3528 12
	movzbl	16(%rbp), %eax
	.loc 3 3529 1
	popq	%rbp
	.cfi_restore 6
	.cfi_def_cfa 7, 8
	ret
	.cfi_endproc
.LFE4394:
	.seh_endproc
	.def	_SUBTRUCT_4WORDS_SBB;	.scl	3;	.type	32;	.endef
	.seh_proc	_SUBTRUCT_4WORDS_SBB
_SUBTRUCT_4WORDS_SBB:
.LFB4402:
	.loc 3 4043 1
	.cfi_startproc
	pushq	%rbp
	.seh_pushreg	%rbp
	.cfi_def_cfa_offset 16
	.cfi_offset 6, -16
	movq	%rsp, %rbp
	.seh_setframe	%rbp, 0
	.cfi_def_cfa_register 6
	.seh_endprologue
	movl	%ecx, %eax
	movq	%rdx, 24(%rbp)
	movq	%r8, 32(%rbp)
	movq	%r9, 40(%rbp)
	movb	%al, 16(%rbp)
	.loc 3 4071 5
	movzbl	16(%rbp), %eax
	movq	24(%rbp), %r8
	movq	32(%rbp), %rcx
	movq	40(%rbp), %rdx
	movq	%r8, %r9
	movq	%rcx, %r8
/APP
 # 4071 "../autogenerated_inline_func.h" 1
	addb	$-1, %al
	movq	(%r9), %rcx
	sbbq	(%r8), %rcx
	movq	%rcx, (%rdx)
	movq	8(%r9), %rcx
	sbbq	8(%r8), %rcx
	movq	%rcx, 8(%rdx)
	movq	16(%r9), %rcx
	sbbq	16(%r8), %rcx
	movq	%rcx, 16(%rdx)
	movq	24(%r9), %rcx
	sbbq	24(%r8), %rcx
	movq	%rcx, 24(%rdx)
	setc	%al
 # 0 "" 2
/NO_APP
	movb	%al, 16(%rbp)
	movq	%r9, 24(%rbp)
	movq	%r8, 32(%rbp)
	movq	%rdx, 40(%rbp)
	.loc 3 4096 12
	movzbl	16(%rbp), %eax
	.loc 3 4097 1
	popq	%rbp
	.cfi_restore 6
	.cfi_def_cfa 7, 8
	ret
	.cfi_endproc
.LFE4402:
	.seh_endproc
	.def	_SUBTRUCT_2WORDS_SBB;	.scl	3;	.type	32;	.endef
	.seh_proc	_SUBTRUCT_2WORDS_SBB
_SUBTRUCT_2WORDS_SBB:
.LFB4410:
	.loc 3 4457 1
	.cfi_startproc
	pushq	%rbp
	.seh_pushreg	%rbp
	.cfi_def_cfa_offset 16
	.cfi_offset 6, -16
	movq	%rsp, %rbp
	.seh_setframe	%rbp, 0
	.cfi_def_cfa_register 6
	.seh_endprologue
	movl	%ecx, %eax
	movq	%rdx, 24(%rbp)
	movq	%r8, 32(%rbp)
	movq	%r9, 40(%rbp)
	movb	%al, 16(%rbp)
	.loc 3 4477 5
	movzbl	16(%rbp), %eax
	movq	24(%rbp), %r8
	movq	32(%rbp), %rcx
	movq	40(%rbp), %rdx
	movq	%r8, %r9
	movq	%rcx, %r8
/APP
 # 4477 "../autogenerated_inline_func.h" 1
	addb	$-1, %al
	movq	(%r9), %rcx
	sbbq	(%r8), %rcx
	movq	%rcx, (%rdx)
	movq	8(%r9), %rcx
	sbbq	8(%r8), %rcx
	movq	%rcx, 8(%rdx)
	setc	%al
 # 0 "" 2
/NO_APP
	movb	%al, 16(%rbp)
	movq	%r9, 24(%rbp)
	movq	%r8, 32(%rbp)
	movq	%rdx, 40(%rbp)
	.loc 3 4496 12
	movzbl	16(%rbp), %eax
	.loc 3 4497 1
	popq	%rbp
	.cfi_restore 6
	.cfi_def_cfa 7, 8
	ret
	.cfi_endproc
.LFE4410:
	.seh_endproc
	.def	DoBorrow;	.scl	3;	.type	32;	.endef
	.seh_proc	DoBorrow
DoBorrow:
.LFB4415:
	.file 4 "../pmc_subtruct.c"
	.loc 4 33 1
	.cfi_startproc
	pushq	%rbp
	.seh_pushreg	%rbp
	.cfi_def_cfa_offset 16
	.cfi_offset 6, -16
	movq	%rsp, %rbp
	.seh_setframe	%rbp, 0
	.cfi_def_cfa_register 6
	subq	$32, %rsp
	.seh_stackalloc	32
	.seh_endprologue
	movl	%ecx, %eax
	movq	%rdx, 24(%rbp)
	movq	%r8, 32(%rbp)
	movq	%r9, 40(%rbp)
	movb	%al, 16(%rbp)
.L28:
	.loc 4 37 12
	cmpq	$0, 32(%rbp)
	jne	.L21
	.loc 4 41 16
	cmpb	$0, 16(%rbp)
	je	.L22
	.loc 4 46 24
	movl	$-258, %eax
	jmp	.L23
.L22:
	.loc 4 51 20
	movl	$0, %eax
	jmp	.L23
.L21:
	.loc 4 53 17
	cmpb	$0, 16(%rbp)
	je	.L26
	.loc 4 58 17
	movq	40(%rbp), %rdx
	leaq	8(%rdx), %rax
	movq	%rax, 40(%rbp)
	.loc 4 58 38
	movq	24(%rbp), %rax
	leaq	8(%rax), %rcx
	movq	%rcx, 24(%rbp)
	.loc 4 58 17
	movq	(%rax), %rcx
	movsbl	16(%rbp), %eax
	movq	%rdx, %r9
	movl	$0, %r8d
	movq	%rcx, %rdx
	movl	%eax, %ecx
	call	_SUBTRUCT_UNIT
	movb	%al, 16(%rbp)
	.loc 4 59 13
	subq	$1, 32(%rbp)
	.loc 4 60 13
	subq	$1, 48(%rbp)
	jmp	.L28
.L27:
	.loc 4 69 28
	movq	24(%rbp), %rdx
	leaq	8(%rdx), %rax
	movq	%rax, 24(%rbp)
	.loc 4 69 20
	movq	40(%rbp), %rax
	leaq	8(%rax), %rcx
	movq	%rcx, 40(%rbp)
	.loc 4 69 25
	movq	(%rdx), %rdx
	.loc 4 69 23
	movq	%rdx, (%rax)
	.loc 4 70 17
	subq	$1, 32(%rbp)
	.loc 4 71 17
	subq	$1, 48(%rbp)
.L26:
	.loc 4 67 19
	cmpq	$0, 32(%rbp)
	jne	.L27
	.loc 4 73 20
	movl	$0, %eax
.L23:
	.loc 4 76 1
	addq	$32, %rsp
	popq	%rbp
	.cfi_restore 6
	.cfi_def_cfa 7, 8
	ret
	.cfi_endproc
.LFE4415:
	.seh_endproc
	.def	Subtruct_X_1W;	.scl	3;	.type	32;	.endef
	.seh_proc	Subtruct_X_1W
Subtruct_X_1W:
.LFB4416:
	.loc 4 79 1
	.cfi_startproc
	pushq	%rbp
	.seh_pushreg	%rbp
	.cfi_def_cfa_offset 16
	.cfi_offset 6, -16
	movq	%rsp, %rbp
	.seh_setframe	%rbp, 0
	.cfi_def_cfa_register 6
	subq	$64, %rsp
	.seh_stackalloc	64
	.seh_endprologue
	movq	%rcx, 16(%rbp)
	movq	%rdx, 24(%rbp)
	movq	%r8, 32(%rbp)
	movq	%r9, 40(%rbp)
	.loc 4 81 14
	movq	40(%rbp), %rdx
	leaq	8(%rdx), %rax
	movq	%rax, 40(%rbp)
	.loc 4 81 35
	movq	16(%rbp), %rax
	leaq	8(%rax), %rcx
	movq	%rcx, 16(%rbp)
	.loc 4 81 14
	movq	(%rax), %rax
	movq	32(%rbp), %rcx
	movq	%rdx, %r9
	movq	%rcx, %r8
	movq	%rax, %rdx
	movl	$0, %ecx
	call	_SUBTRUCT_UNIT
	movb	%al, -1(%rbp)
	.loc 4 82 5
	subq	$1, 24(%rbp)
	.loc 4 83 5
	subq	$1, 48(%rbp)
	.loc 4 86 13
	movsbl	-1(%rbp), %eax
	movq	40(%rbp), %r8
	movq	24(%rbp), %rcx
	movq	48(%rbp), %rdx
	movq	%rdx, 32(%rsp)
	movq	%r8, %r9
	movq	%rcx, %r8
	movq	16(%rbp), %rdx
	movl	%eax, %ecx
	call	DoBorrow
	.loc 4 87 1
	addq	$64, %rsp
	popq	%rbp
	.cfi_restore 6
	.cfi_def_cfa 7, 8
	ret
	.cfi_endproc
.LFE4416:
	.seh_endproc
	.def	Subtruct_X_2W;	.scl	3;	.type	32;	.endef
	.seh_proc	Subtruct_X_2W
Subtruct_X_2W:
.LFB4417:
	.loc 4 91 1
	.cfi_startproc
	pushq	%rbp
	.seh_pushreg	%rbp
	.cfi_def_cfa_offset 16
	.cfi_offset 6, -16
	movq	%rsp, %rbp
	.seh_setframe	%rbp, 0
	.cfi_def_cfa_register 6
	subq	$64, %rsp
	.seh_stackalloc	64
	.seh_endprologue
	movq	%rcx, 16(%rbp)
	movq	%rdx, 24(%rbp)
	movq	%r8, 32(%rbp)
	movq	%r9, 40(%rbp)
	.loc 4 92 8
	cmpq	$1, 24(%rbp)
	ja	.L33
	.loc 4 97 16
	movl	$-258, %eax
	jmp	.L34
.L33:
.LBB6:
	.loc 4 104 18
	movq	48(%rbp), %rdx
	leaq	8(%rdx), %rax
	movq	%rax, 48(%rbp)
	.loc 4 104 39
	movq	16(%rbp), %rax
	leaq	8(%rax), %rcx
	movq	%rcx, 16(%rbp)
	.loc 4 104 18
	movq	(%rax), %rax
	movq	40(%rbp), %rcx
	movq	%rdx, %r9
	movq	%rcx, %r8
	movq	%rax, %rdx
	movl	$0, %ecx
	call	_SUBTRUCT_UNIT
	movb	%al, -1(%rbp)
	.loc 4 107 13
	movq	48(%rbp), %rdx
	leaq	8(%rdx), %rax
	movq	%rax, 48(%rbp)
	.loc 4 107 34
	movq	16(%rbp), %rax
	leaq	8(%rax), %rcx
	movq	%rcx, 16(%rbp)
	.loc 4 107 13
	movq	(%rax), %rcx
	movsbl	-1(%rbp), %eax
	movq	32(%rbp), %r8
	movq	%rdx, %r9
	movq	%rcx, %rdx
	movl	%eax, %ecx
	call	_SUBTRUCT_UNIT
	movb	%al, -1(%rbp)
	.loc 4 108 17
	subq	$2, 24(%rbp)
	.loc 4 109 17
	subq	$2, 56(%rbp)
	.loc 4 112 17
	movsbl	-1(%rbp), %eax
	movq	48(%rbp), %r8
	movq	24(%rbp), %rcx
	movq	56(%rbp), %rdx
	movq	%rdx, 32(%rsp)
	movq	%r8, %r9
	movq	%rcx, %r8
	movq	16(%rbp), %rdx
	movl	%eax, %ecx
	call	DoBorrow
.L34:
.LBE6:
	.loc 4 114 1
	addq	$64, %rsp
	popq	%rbp
	.cfi_restore 6
	.cfi_def_cfa 7, 8
	ret
	.cfi_endproc
.LFE4417:
	.seh_endproc
	.globl	Subtruct_Imp
	.def	Subtruct_Imp;	.scl	2;	.type	32;	.endef
	.seh_proc	Subtruct_Imp
Subtruct_Imp:
.LFB4418:
	.loc 4 118 1
	.cfi_startproc
	pushq	%rbp
	.seh_pushreg	%rbp
	.cfi_def_cfa_offset 16
	.cfi_offset 6, -16
	movq	%rsp, %rbp
	.seh_setframe	%rbp, 0
	.cfi_def_cfa_register 6
	subq	$64, %rsp
	.seh_stackalloc	64
	.seh_endprologue
	movq	%rcx, 16(%rbp)
	movq	%rdx, 24(%rbp)
	movq	%r8, 32(%rbp)
	movq	%r9, 40(%rbp)
	.loc 4 119 10
	movb	$0, -1(%rbp)
	.loc 4 122 17
	movq	40(%rbp), %rax
	shrq	$5, %rax
	movq	%rax, -16(%rbp)
	.loc 4 123 11
	jmp	.L36
.L37:
	.loc 4 125 12
	movsbl	-1(%rbp), %eax
	movq	48(%rbp), %rcx
	movq	32(%rbp), %rdx
	movq	%rcx, %r9
	movq	%rdx, %r8
	movq	16(%rbp), %rdx
	movl	%eax, %ecx
	call	_SUBTRUCT_32WORDS_SBB
	movb	%al, -1(%rbp)
	.loc 4 126 12
	addq	$256, 16(%rbp)
	.loc 4 127 12
	addq	$256, 32(%rbp)
	.loc 4 128 12
	addq	$256, 48(%rbp)
	.loc 4 129 9
	subq	$1, -16(%rbp)
.L36:
	.loc 4 123 11
	cmpq	$0, -16(%rbp)
	jne	.L37
	.loc 4 134 17
	movq	40(%rbp), %rax
	andl	$16, %eax
	.loc 4 134 8
	testq	%rax, %rax
	je	.L38
	.loc 4 136 13
	movsbl	-1(%rbp), %eax
	movq	48(%rbp), %rcx
	movq	32(%rbp), %rdx
	movq	%rcx, %r9
	movq	%rdx, %r8
	movq	16(%rbp), %rdx
	movl	%eax, %ecx
	call	_SUBTRUCT_16WORDS_SBB
	movb	%al, -1(%rbp)
	.loc 4 137 12
	subq	$-128, 16(%rbp)
	.loc 4 138 12
	subq	$-128, 32(%rbp)
	.loc 4 139 12
	subq	$-128, 48(%rbp)
.L38:
	.loc 4 144 17
	movq	40(%rbp), %rax
	andl	$8, %eax
	.loc 4 144 8
	testq	%rax, %rax
	je	.L39
	.loc 4 146 13
	movsbl	-1(%rbp), %eax
	movq	48(%rbp), %rcx
	movq	32(%rbp), %rdx
	movq	%rcx, %r9
	movq	%rdx, %r8
	movq	16(%rbp), %rdx
	movl	%eax, %ecx
	call	_SUBTRUCT_8WORDS_SBB
	movb	%al, -1(%rbp)
	.loc 4 147 12
	addq	$64, 16(%rbp)
	.loc 4 148 12
	addq	$64, 32(%rbp)
	.loc 4 149 12
	addq	$64, 48(%rbp)
.L39:
	.loc 4 154 17
	movq	40(%rbp), %rax
	andl	$4, %eax
	.loc 4 154 8
	testq	%rax, %rax
	je	.L40
	.loc 4 156 13
	movsbl	-1(%rbp), %eax
	movq	48(%rbp), %rcx
	movq	32(%rbp), %rdx
	movq	%rcx, %r9
	movq	%rdx, %r8
	movq	16(%rbp), %rdx
	movl	%eax, %ecx
	call	_SUBTRUCT_4WORDS_SBB
	movb	%al, -1(%rbp)
	.loc 4 157 12
	addq	$32, 16(%rbp)
	.loc 4 158 12
	addq	$32, 32(%rbp)
	.loc 4 159 12
	addq	$32, 48(%rbp)
.L40:
	.loc 4 164 17
	movq	40(%rbp), %rax
	andl	$2, %eax
	.loc 4 164 8
	testq	%rax, %rax
	je	.L41
	.loc 4 166 13
	movsbl	-1(%rbp), %eax
	movq	48(%rbp), %rcx
	movq	32(%rbp), %rdx
	movq	%rcx, %r9
	movq	%rdx, %r8
	movq	16(%rbp), %rdx
	movl	%eax, %ecx
	call	_SUBTRUCT_2WORDS_SBB
	movb	%al, -1(%rbp)
	.loc 4 167 12
	addq	$16, 16(%rbp)
	.loc 4 168 12
	addq	$16, 32(%rbp)
	.loc 4 169 12
	addq	$16, 48(%rbp)
.L41:
	.loc 4 174 17
	movq	40(%rbp), %rax
	andl	$1, %eax
	.loc 4 174 8
	testq	%rax, %rax
	je	.L42
	.loc 4 175 13
	movq	48(%rbp), %rdx
	leaq	8(%rdx), %rax
	movq	%rax, 48(%rbp)
	.loc 4 175 41
	movq	32(%rbp), %rax
	leaq	8(%rax), %rcx
	movq	%rcx, 32(%rbp)
	.loc 4 175 13
	movq	(%rax), %r8
	.loc 4 175 34
	movq	16(%rbp), %rax
	leaq	8(%rax), %rcx
	movq	%rcx, 16(%rbp)
	.loc 4 175 13
	movq	(%rax), %rcx
	movsbl	-1(%rbp), %eax
	movq	%rdx, %r9
	movq	%rcx, %rdx
	movl	%eax, %ecx
	call	_SUBTRUCT_UNIT
	movb	%al, -1(%rbp)
.L42:
	.loc 4 178 13
	movq	56(%rbp), %rax
	subq	40(%rbp), %rax
	movq	%rax, %rdx
	movq	24(%rbp), %rax
	subq	40(%rbp), %rax
	movq	%rax, %rcx
	movsbl	-1(%rbp), %eax
	movq	48(%rbp), %r8
	movq	%rdx, 32(%rsp)
	movq	%r8, %r9
	movq	%rcx, %r8
	movq	16(%rbp), %rdx
	movl	%eax, %ecx
	call	DoBorrow
	.loc 4 179 1
	addq	$64, %rsp
	popq	%rbp
	.cfi_restore 6
	.cfi_def_cfa 7, 8
	ret
	.cfi_endproc
.LFE4418:
	.seh_endproc
	.globl	PMC_Subtruct_I_X
	.def	PMC_Subtruct_I_X;	.scl	2;	.type	32;	.endef
	.seh_proc	PMC_Subtruct_I_X
PMC_Subtruct_I_X:
.LFB4419:
	.loc 4 182 1
	.cfi_startproc
	pushq	%rbp
	.seh_pushreg	%rbp
	.cfi_def_cfa_offset 16
	.cfi_offset 6, -16
	movq	%rsp, %rbp
	.seh_setframe	%rbp, 0
	.cfi_def_cfa_register 6
	subq	$80, %rsp
	.seh_stackalloc	80
	.seh_endprologue
	movl	%ecx, 16(%rbp)
	movq	%rdx, 24(%rbp)
	movq	%r8, 32(%rbp)
	.loc 4 188 8
	cmpq	$0, 24(%rbp)
	jne	.L45
	.loc 4 189 16
	movl	$-1, %eax
	jmp	.L46
.L45:
	.loc 4 190 8
	cmpq	$0, 32(%rbp)
	jne	.L47
	.loc 4 191 16
	movl	$-1, %eax
	jmp	.L46
.L47:
	.loc 4 192 20
	movq	24(%rbp), %rax
	movq	%rax, -8(%rbp)
	.loc 4 194 19
	movq	-8(%rbp), %rax
	movq	%rax, %rcx
	call	CheckNumber
	movl	%eax, -12(%rbp)
	.loc 4 194 8
	cmpl	$0, -12(%rbp)
	je	.L48
	.loc 4 195 16
	movl	-12(%rbp), %eax
	jmp	.L46
.L48:
	.loc 4 196 8
	cmpl	$0, 16(%rbp)
	jne	.L49
	.loc 4 200 13
	movq	-8(%rbp), %rax
	movzbl	40(%rax), %eax
	andl	$2, %eax
	.loc 4 200 12
	testb	%al, %al
	je	.L50
	.loc 4 205 16
	movq	32(%rbp), %rax
	movl	$0, (%rax)
	jmp	.L51
.L50:
	.loc 4 212 20
	movl	$-2, %eax
	jmp	.L46
.L49:
	.loc 4 219 13
	movq	-8(%rbp), %rax
	movzbl	40(%rax), %eax
	andl	$2, %eax
	.loc 4 219 12
	testb	%al, %al
	je	.L52
	.loc 4 224 16
	movq	32(%rbp), %rax
	movl	16(%rbp), %edx
	movl	%edx, (%rax)
	jmp	.L51
.L52:
.LBB7:
	.loc 4 231 55
	movl	16(%rbp), %ecx
	call	_LZCNT_ALT_32
	cltq
	.loc 4 231 25
	movl	$32, %edx
	subq	%rax, %rdx
	movq	%rdx, %rax
	movq	%rax, -24(%rbp)
	.loc 4 232 25
	movq	-8(%rbp), %rax
	movq	16(%rax), %rax
	movq	%rax, -32(%rbp)
	.loc 4 233 16
	movq	-24(%rbp), %rax
	cmpq	-32(%rbp), %rax
	jnb	.L53
	.loc 4 237 24
	movl	$-2, %eax
	jmp	.L46
.L53:
.LBB8:
	.loc 4 245 54
	movq	-8(%rbp), %rax
	movq	56(%rax), %rax
	.loc 4 245 31
	movq	(%rax), %rcx
	movl	16(%rbp), %eax
	leaq	-48(%rbp), %rdx
	movq	%rdx, %r9
	movq	%rcx, %r8
	movq	%rax, %rdx
	movl	$0, %ecx
	call	_SUBTRUCT_UNIT
	movb	%al, -33(%rbp)
	.loc 4 246 20
	cmpb	$0, -33(%rbp)
	je	.L54
	.loc 4 249 28
	movl	$-2, %eax
	jmp	.L46
.L54:
	.loc 4 253 26
	movq	-48(%rbp), %rax
	movl	%eax, %edx
	.loc 4 253 24
	movq	32(%rbp), %rax
	movl	%edx, (%rax)
.L51:
.LBE8:
.LBE7:
	.loc 4 258 12
	movl	$0, %eax
.L46:
	.loc 4 259 1
	addq	$80, %rsp
	popq	%rbp
	.cfi_restore 6
	.cfi_def_cfa 7, 8
	ret
	.cfi_endproc
.LFE4419:
	.seh_endproc
	.globl	PMC_Subtruct_X_I
	.def	PMC_Subtruct_X_I;	.scl	2;	.type	32;	.endef
	.seh_proc	PMC_Subtruct_X_I
PMC_Subtruct_X_I:
.LFB4420:
	.loc 4 262 1
	.cfi_startproc
	pushq	%rbp
	.seh_pushreg	%rbp
	.cfi_def_cfa_offset 16
	.cfi_offset 6, -16
	movq	%rsp, %rbp
	.seh_setframe	%rbp, 0
	.cfi_def_cfa_register 6
	subq	$112, %rsp
	.seh_stackalloc	112
	.seh_endprologue
	movq	%rcx, 16(%rbp)
	movl	%edx, 24(%rbp)
	movq	%r8, 32(%rbp)
	.loc 4 268 8
	cmpq	$0, 16(%rbp)
	jne	.L56
	.loc 4 269 16
	movl	$-1, %eax
	jmp	.L74
.L56:
	.loc 4 270 8
	cmpq	$0, 32(%rbp)
	jne	.L58
	.loc 4 271 16
	movl	$-1, %eax
	jmp	.L74
.L58:
	.loc 4 272 20
	movq	16(%rbp), %rax
	movq	%rax, -8(%rbp)
	.loc 4 274 19
	movq	-8(%rbp), %rax
	movq	%rax, %rcx
	call	CheckNumber
	movl	%eax, -12(%rbp)
	.loc 4 274 8
	cmpl	$0, -12(%rbp)
	je	.L59
	.loc 4 275 16
	movl	-12(%rbp), %eax
	jmp	.L74
.L59:
	.loc 4 277 9
	movq	-8(%rbp), %rax
	movzbl	40(%rax), %eax
	andl	$2, %eax
	.loc 4 277 8
	testb	%al, %al
	je	.L60
	.loc 4 281 12
	cmpl	$0, 24(%rbp)
	jne	.L61
	.loc 4 286 16
	movq	32(%rbp), %rax
	movq	.refptr.number_zero(%rip), %rdx
	movq	%rdx, (%rax)
	jmp	.L62
.L61:
	.loc 4 293 20
	movl	$-2, %eax
	jmp	.L74
.L60:
	.loc 4 300 12
	cmpl	$0, 24(%rbp)
	jne	.L63
	.loc 4 305 27
	leaq	-48(%rbp), %rax
	movq	-8(%rbp), %rcx
	movq	%rax, %rdx
	call	DuplicateNumber
	movl	%eax, -12(%rbp)
	.loc 4 305 16
	cmpl	$0, -12(%rbp)
	je	.L64
	.loc 4 306 24
	movl	-12(%rbp), %eax
	jmp	.L74
.L63:
.LBB9:
	.loc 4 313 25
	movq	-8(%rbp), %rax
	movq	16(%rax), %rax
	movq	%rax, -24(%rbp)
	.loc 4 314 55
	movl	24(%rbp), %eax
	movl	%eax, %ecx
	call	_LZCNT_ALT_32
	cltq
	.loc 4 314 25
	movl	$32, %edx
	subq	%rax, %rdx
	movq	%rdx, %rax
	movq	%rax, -32(%rbp)
	.loc 4 315 16
	movq	-24(%rbp), %rax
	cmpq	-32(%rbp), %rax
	jnb	.L65
	.loc 4 318 24
	movl	$-2, %eax
	jmp	.L74
.L65:
	.loc 4 320 25
	movq	-24(%rbp), %rax
	movq	%rax, -40(%rbp)
	.loc 4 322 27
	leaq	-56(%rbp), %rcx
	movq	-40(%rbp), %rdx
	leaq	-48(%rbp), %rax
	movq	%rcx, %r8
	movq	%rax, %rcx
	call	AllocateNumber
	movl	%eax, -12(%rbp)
	.loc 4 322 16
	cmpl	$0, -12(%rbp)
	je	.L67
	.loc 4 323 24
	movl	-12(%rbp), %eax
	jmp	.L74
.L67:
	.loc 4 324 89
	movq	-48(%rbp), %rax
	.loc 4 324 27
	movq	48(%rax), %r8
	.loc 4 324 78
	movq	-48(%rbp), %rax
	.loc 4 324 27
	movq	56(%rax), %r9
	movl	24(%rbp), %ecx
	movq	-8(%rbp), %rax
	movq	8(%rax), %rdx
	movq	-8(%rbp), %rax
	movq	56(%rax), %rax
	movq	%r8, 32(%rsp)
	movq	%rcx, %r8
	movq	%rax, %rcx
	call	Subtruct_X_1W
	movl	%eax, -12(%rbp)
	.loc 4 324 16
	cmpl	$0, -12(%rbp)
	je	.L68
	.loc 4 326 17
	movq	-48(%rbp), %rax
	movq	%rax, %rcx
	call	DeallocateNumber
	.loc 4 327 49
	cmpl	$-258, -12(%rbp)
	je	.L69
	.loc 4 327 49 is_stmt 0 discriminator 1
	movl	-12(%rbp), %eax
	jmp	.L74
.L69:
	.loc 4 327 49 discriminator 2
	movl	$-2, %eax
	jmp	.L74
.L68:
	.loc 4 329 27 is_stmt 1
	movq	-56(%rbp), %rdx
	.loc 4 329 45
	movq	-48(%rbp), %rax
	.loc 4 329 27
	movq	56(%rax), %rax
	movq	%rax, %rcx
	call	CheckBlockLight
	movl	%eax, -12(%rbp)
	.loc 4 329 16
	cmpl	$0, -12(%rbp)
	je	.L71
	.loc 4 330 24
	movl	-12(%rbp), %eax
	jmp	.L74
.L71:
	.loc 4 331 13
	movq	-48(%rbp), %rax
	movq	%rax, %rcx
	call	CommitNumber
	.loc 4 332 19
	movq	-48(%rbp), %rax
	.loc 4 332 17
	movzbl	40(%rax), %eax
	andl	$2, %eax
	.loc 4 332 16
	testb	%al, %al
	je	.L64
	.loc 4 334 17
	movq	-48(%rbp), %rax
	movq	%rax, %rcx
	call	DeallocateNumber
	.loc 4 335 20
	movq	.refptr.number_zero(%rip), %rax
	movq	%rax, -48(%rbp)
.L64:
.LBE9:
	.loc 4 338 12
	movq	-48(%rbp), %rdx
	movq	32(%rbp), %rax
	movq	%rdx, (%rax)
.L62:
	.loc 4 341 19
	movq	32(%rbp), %rax
	movq	(%rax), %rax
	movq	%rax, %rcx
	call	CheckNumber
	movl	%eax, -12(%rbp)
	.loc 4 341 8
	cmpl	$0, -12(%rbp)
	je	.L73
	.loc 4 342 16
	movl	-12(%rbp), %eax
	jmp	.L74
.L73:
	.loc 4 344 12
	movl	$0, %eax
.L74:
	.loc 4 345 1 discriminator 1
	addq	$112, %rsp
	popq	%rbp
	.cfi_restore 6
	.cfi_def_cfa 7, 8
	ret
	.cfi_endproc
.LFE4420:
	.seh_endproc
	.globl	PMC_Subtruct_L_X
	.def	PMC_Subtruct_L_X;	.scl	2;	.type	32;	.endef
	.seh_proc	PMC_Subtruct_L_X
PMC_Subtruct_L_X:
.LFB4421:
	.loc 4 348 1
	.cfi_startproc
	pushq	%rbp
	.seh_pushreg	%rbp
	.cfi_def_cfa_offset 16
	.cfi_offset 6, -16
	movq	%rsp, %rbp
	.seh_setframe	%rbp, 0
	.cfi_def_cfa_register 6
	subq	$112, %rsp
	.seh_stackalloc	112
	.seh_endprologue
	movq	%rcx, 16(%rbp)
	movq	%rdx, 24(%rbp)
	movq	%r8, 32(%rbp)
	.loc 4 354 8
	cmpq	$0, 24(%rbp)
	jne	.L76
	.loc 4 355 16
	movl	$-1, %eax
	jmp	.L77
.L76:
	.loc 4 356 8
	cmpq	$0, 32(%rbp)
	jne	.L78
	.loc 4 357 16
	movl	$-1, %eax
	jmp	.L77
.L78:
	.loc 4 358 20
	movq	24(%rbp), %rax
	movq	%rax, -16(%rbp)
	.loc 4 360 19
	movq	-16(%rbp), %rax
	movq	%rax, %rcx
	call	CheckNumber
	movl	%eax, -4(%rbp)
	.loc 4 360 8
	cmpl	$0, -4(%rbp)
	je	.L79
	.loc 4 361 16
	movl	-4(%rbp), %eax
	jmp	.L77
.L79:
	.loc 4 362 8
	cmpq	$0, 16(%rbp)
	jne	.L80
	.loc 4 366 13
	movq	-16(%rbp), %rax
	movzbl	40(%rax), %eax
	andl	$2, %eax
	.loc 4 366 12
	testb	%al, %al
	je	.L81
	.loc 4 371 16
	movq	32(%rbp), %rax
	movq	$0, (%rax)
	jmp	.L82
.L81:
	.loc 4 378 20
	movl	$-2, %eax
	jmp	.L77
.L80:
	.loc 4 385 13
	movq	-16(%rbp), %rax
	movzbl	40(%rax), %eax
	andl	$2, %eax
	.loc 4 385 12
	testb	%al, %al
	je	.L83
	.loc 4 390 16
	movq	32(%rbp), %rax
	movq	16(%rbp), %rdx
	movq	%rdx, (%rax)
	jmp	.L82
.L83:
.LBB10:
	.loc 4 483 59
	movq	16(%rbp), %rcx
	call	_LZCNT_ALT_UNIT
	cltq
	.loc 4 483 29
	movl	$64, %edx
	subq	%rax, %rdx
	movq	%rdx, %rax
	movq	%rax, -32(%rbp)
	.loc 4 484 29
	movq	-16(%rbp), %rax
	movq	16(%rax), %rax
	movq	%rax, -40(%rbp)
	.loc 4 485 20
	movq	-32(%rbp), %rax
	cmpq	-40(%rbp), %rax
	jnb	.L84
	.loc 4 490 28
	movl	$-2, %eax
	jmp	.L77
.L84:
.LBB11:
	.loc 4 499 71
	movq	-16(%rbp), %rax
	movq	56(%rax), %rax
	.loc 4 499 35
	movq	(%rax), %rdx
	leaq	-80(%rbp), %rax
	movq	%rax, %r9
	movq	%rdx, %r8
	movq	16(%rbp), %rdx
	movl	$0, %ecx
	call	_SUBTRUCT_UNIT
	movb	%al, -17(%rbp)
	.loc 4 500 24
	cmpb	$0, -17(%rbp)
	je	.L85
	.loc 4 503 32
	movl	$-2, %eax
	jmp	.L77
.L85:
	.loc 4 507 28
	movq	-80(%rbp), %rdx
	movq	32(%rbp), %rax
	movq	%rdx, (%rax)
.L82:
.LBE11:
.LBE10:
	.loc 4 513 12
	movl	$0, %eax
.L77:
	.loc 4 514 1
	addq	$112, %rsp
	popq	%rbp
	.cfi_restore 6
	.cfi_def_cfa 7, 8
	ret
	.cfi_endproc
.LFE4421:
	.seh_endproc
	.globl	PMC_Subtruct_X_L
	.def	PMC_Subtruct_X_L;	.scl	2;	.type	32;	.endef
	.seh_proc	PMC_Subtruct_X_L
PMC_Subtruct_X_L:
.LFB4422:
	.loc 4 517 1
	.cfi_startproc
	pushq	%rbp
	.seh_pushreg	%rbp
	.cfi_def_cfa_offset 16
	.cfi_offset 6, -16
	movq	%rsp, %rbp
	.seh_setframe	%rbp, 0
	.cfi_def_cfa_register 6
	addq	$-128, %rsp
	.seh_stackalloc	128
	.seh_endprologue
	movq	%rcx, 16(%rbp)
	movq	%rdx, 24(%rbp)
	movq	%r8, 32(%rbp)
	.loc 4 523 8
	cmpq	$0, 16(%rbp)
	jne	.L87
	.loc 4 524 16
	movl	$-1, %eax
	jmp	.L105
.L87:
	.loc 4 525 8
	cmpq	$0, 32(%rbp)
	jne	.L89
	.loc 4 526 16
	movl	$-1, %eax
	jmp	.L105
.L89:
	.loc 4 527 20
	movq	16(%rbp), %rax
	movq	%rax, -24(%rbp)
	.loc 4 529 19
	movq	-24(%rbp), %rax
	movq	%rax, %rcx
	call	CheckNumber
	movl	%eax, -4(%rbp)
	.loc 4 529 8
	cmpl	$0, -4(%rbp)
	je	.L90
	.loc 4 530 16
	movl	-4(%rbp), %eax
	jmp	.L105
.L90:
	.loc 4 532 9
	movq	-24(%rbp), %rax
	movzbl	40(%rax), %eax
	andl	$2, %eax
	.loc 4 532 8
	testb	%al, %al
	je	.L91
	.loc 4 536 12
	cmpq	$0, 24(%rbp)
	jne	.L92
	.loc 4 541 16
	movq	32(%rbp), %rax
	movq	.refptr.number_zero(%rip), %rdx
	movq	%rdx, (%rax)
	jmp	.L93
.L92:
	.loc 4 548 20
	movl	$-2, %eax
	jmp	.L105
.L91:
	.loc 4 555 12
	cmpq	$0, 24(%rbp)
	jne	.L94
	.loc 4 560 27
	leaq	-48(%rbp), %rax
	movq	-24(%rbp), %rcx
	movq	%rax, %rdx
	call	DuplicateNumber
	movl	%eax, -4(%rbp)
	.loc 4 560 16
	cmpl	$0, -4(%rbp)
	je	.L95
	.loc 4 561 24
	movl	-4(%rbp), %eax
	jmp	.L105
.L94:
.LBB12:
	.loc 4 622 29
	movq	-24(%rbp), %rax
	movq	16(%rax), %rax
	movq	%rax, -32(%rbp)
	.loc 4 623 59
	movq	24(%rbp), %rax
	movq	%rax, %rcx
	call	_LZCNT_ALT_UNIT
	cltq
	.loc 4 623 29
	movl	$64, %edx
	subq	%rax, %rdx
	movq	%rdx, %rax
	movq	%rax, -40(%rbp)
	.loc 4 624 20
	movq	-32(%rbp), %rax
	cmpq	-40(%rbp), %rax
	jnb	.L96
	.loc 4 627 28
	movl	$-2, %eax
	jmp	.L105
.L96:
	.loc 4 629 29
	movq	-32(%rbp), %rax
	movq	%rax, -16(%rbp)
	.loc 4 631 31
	leaq	-80(%rbp), %rcx
	movq	-16(%rbp), %rdx
	leaq	-48(%rbp), %rax
	movq	%rcx, %r8
	movq	%rax, %rcx
	call	AllocateNumber
	movl	%eax, -4(%rbp)
	.loc 4 631 20
	cmpl	$0, -4(%rbp)
	je	.L98
	.loc 4 632 28
	movl	-4(%rbp), %eax
	jmp	.L105
.L98:
	.loc 4 633 106
	movq	-48(%rbp), %rax
	.loc 4 633 31
	movq	48(%rax), %rcx
	.loc 4 633 95
	movq	-48(%rbp), %rax
	.loc 4 633 31
	movq	56(%rax), %r9
	movq	-24(%rbp), %rax
	movq	8(%rax), %rdx
	movq	-24(%rbp), %rax
	movq	56(%rax), %rax
	movq	24(%rbp), %r8
	movq	%rcx, 32(%rsp)
	movq	%rax, %rcx
	call	Subtruct_X_1W
	movl	%eax, -4(%rbp)
	.loc 4 633 20
	cmpl	$0, -4(%rbp)
	je	.L99
	.loc 4 635 21
	movq	-48(%rbp), %rax
	movq	%rax, %rcx
	call	DeallocateNumber
	.loc 4 636 53
	cmpl	$-258, -4(%rbp)
	je	.L100
	.loc 4 636 53 is_stmt 0 discriminator 1
	movl	-4(%rbp), %eax
	jmp	.L105
.L100:
	.loc 4 636 53 discriminator 2
	movl	$-2, %eax
	jmp	.L105
.L99:
	.loc 4 638 31 is_stmt 1
	movq	-80(%rbp), %rdx
	.loc 4 638 49
	movq	-48(%rbp), %rax
	.loc 4 638 31
	movq	56(%rax), %rax
	movq	%rax, %rcx
	call	CheckBlockLight
	movl	%eax, -4(%rbp)
	.loc 4 638 20
	cmpl	$0, -4(%rbp)
	je	.L102
	.loc 4 639 28
	movl	-4(%rbp), %eax
	jmp	.L105
.L102:
.LBE12:
	.loc 4 641 13
	movq	-48(%rbp), %rax
	movq	%rax, %rcx
	call	CommitNumber
	.loc 4 642 19
	movq	-48(%rbp), %rax
	.loc 4 642 17
	movzbl	40(%rax), %eax
	andl	$2, %eax
	.loc 4 642 16
	testb	%al, %al
	je	.L95
	.loc 4 644 17
	movq	-48(%rbp), %rax
	movq	%rax, %rcx
	call	DeallocateNumber
	.loc 4 645 20
	movq	.refptr.number_zero(%rip), %rax
	movq	%rax, -48(%rbp)
.L95:
	.loc 4 648 12
	movq	-48(%rbp), %rdx
	movq	32(%rbp), %rax
	movq	%rdx, (%rax)
.L93:
	.loc 4 651 19
	movq	32(%rbp), %rax
	movq	(%rax), %rax
	movq	%rax, %rcx
	call	CheckNumber
	movl	%eax, -4(%rbp)
	.loc 4 651 8
	cmpl	$0, -4(%rbp)
	je	.L104
	.loc 4 652 16
	movl	-4(%rbp), %eax
	jmp	.L105
.L104:
	.loc 4 654 12
	movl	$0, %eax
.L105:
	.loc 4 655 1 discriminator 5
	subq	$-128, %rsp
	popq	%rbp
	.cfi_restore 6
	.cfi_def_cfa 7, 8
	ret
	.cfi_endproc
.LFE4422:
	.seh_endproc
	.globl	PMC_Subtruct_X_X
	.def	PMC_Subtruct_X_X;	.scl	2;	.type	32;	.endef
	.seh_proc	PMC_Subtruct_X_X
PMC_Subtruct_X_X:
.LFB4423:
	.loc 4 658 1
	.cfi_startproc
	pushq	%rbp
	.seh_pushreg	%rbp
	.cfi_def_cfa_offset 16
	.cfi_offset 6, -16
	movq	%rsp, %rbp
	.seh_setframe	%rbp, 0
	.cfi_def_cfa_register 6
	subq	$112, %rsp
	.seh_stackalloc	112
	.seh_endprologue
	movq	%rcx, 16(%rbp)
	movq	%rdx, 24(%rbp)
	movq	%r8, 32(%rbp)
	.loc 4 659 8
	cmpq	$0, 16(%rbp)
	jne	.L107
	.loc 4 660 16
	movl	$-1, %eax
	jmp	.L126
.L107:
	.loc 4 661 8
	cmpq	$0, 24(%rbp)
	jne	.L109
	.loc 4 662 16
	movl	$-1, %eax
	jmp	.L126
.L109:
	.loc 4 663 8
	cmpq	$0, 32(%rbp)
	jne	.L110
	.loc 4 664 16
	movl	$-1, %eax
	jmp	.L126
.L110:
	.loc 4 665 20
	movq	16(%rbp), %rax
	movq	%rax, -8(%rbp)
	.loc 4 666 20
	movq	24(%rbp), %rax
	movq	%rax, -16(%rbp)
	.loc 4 668 19
	movq	-8(%rbp), %rax
	movq	%rax, %rcx
	call	CheckNumber
	movl	%eax, -20(%rbp)
	.loc 4 668 8
	cmpl	$0, -20(%rbp)
	je	.L111
	.loc 4 669 16
	movl	-20(%rbp), %eax
	jmp	.L126
.L111:
	.loc 4 670 19
	movq	-16(%rbp), %rax
	movq	%rax, %rcx
	call	CheckNumber
	movl	%eax, -20(%rbp)
	.loc 4 670 8
	cmpl	$0, -20(%rbp)
	je	.L112
	.loc 4 671 16
	movl	-20(%rbp), %eax
	jmp	.L126
.L112:
	.loc 4 673 9
	movq	-8(%rbp), %rax
	movzbl	40(%rax), %eax
	andl	$2, %eax
	.loc 4 673 8
	testb	%al, %al
	je	.L113
	.loc 4 675 13
	movq	-16(%rbp), %rax
	movzbl	40(%rax), %eax
	andl	$2, %eax
	.loc 4 675 12
	testb	%al, %al
	je	.L114
	.loc 4 680 16
	movq	32(%rbp), %rax
	movq	.refptr.number_zero(%rip), %rdx
	movq	%rdx, (%rax)
	jmp	.L115
.L114:
	.loc 4 687 20
	movl	$-2, %eax
	jmp	.L126
.L113:
	.loc 4 694 13
	movq	-16(%rbp), %rax
	movzbl	40(%rax), %eax
	andl	$2, %eax
	.loc 4 694 12
	testb	%al, %al
	je	.L116
	.loc 4 699 27
	leaq	-56(%rbp), %rax
	movq	-8(%rbp), %rcx
	movq	%rax, %rdx
	call	DuplicateNumber
	movl	%eax, -20(%rbp)
	.loc 4 699 16
	cmpl	$0, -20(%rbp)
	je	.L117
	.loc 4 700 24
	movl	-20(%rbp), %eax
	jmp	.L126
.L116:
.LBB13:
	.loc 4 707 25
	movq	-8(%rbp), %rax
	movq	16(%rax), %rax
	movq	%rax, -32(%rbp)
	.loc 4 708 25
	movq	-16(%rbp), %rax
	movq	16(%rax), %rax
	movq	%rax, -40(%rbp)
	.loc 4 709 16
	movq	-32(%rbp), %rax
	cmpq	-40(%rbp), %rax
	jnb	.L118
	.loc 4 712 24
	movl	$-2, %eax
	jmp	.L126
.L118:
	.loc 4 714 25
	movq	-32(%rbp), %rax
	movq	%rax, -48(%rbp)
	.loc 4 716 27
	leaq	-64(%rbp), %rcx
	movq	-48(%rbp), %rdx
	leaq	-56(%rbp), %rax
	movq	%rcx, %r8
	movq	%rax, %rcx
	call	AllocateNumber
	movl	%eax, -20(%rbp)
	.loc 4 716 16
	cmpl	$0, -20(%rbp)
	je	.L120
	.loc 4 717 24
	movl	-20(%rbp), %eax
	jmp	.L126
.L120:
	.loc 4 718 117
	movq	-56(%rbp), %rax
	.loc 4 718 27
	movq	48(%rax), %r8
	.loc 4 718 106
	movq	-56(%rbp), %rax
	.loc 4 718 27
	movq	56(%rax), %rcx
	movq	-16(%rbp), %rax
	movq	8(%rax), %r9
	movq	-16(%rbp), %rax
	movq	56(%rax), %r10
	movq	-8(%rbp), %rax
	movq	8(%rax), %rdx
	movq	-8(%rbp), %rax
	movq	56(%rax), %rax
	movq	%r8, 40(%rsp)
	movq	%rcx, 32(%rsp)
	movq	%r10, %r8
	movq	%rax, %rcx
	call	Subtruct_Imp
	movl	%eax, -20(%rbp)
	.loc 4 718 16
	cmpl	$0, -20(%rbp)
	je	.L121
	.loc 4 720 17
	movq	-56(%rbp), %rax
	movq	%rax, %rcx
	call	DeallocateNumber
	.loc 4 721 49
	cmpl	$-258, -20(%rbp)
	je	.L122
	.loc 4 721 49 is_stmt 0 discriminator 1
	movl	-20(%rbp), %eax
	jmp	.L126
.L122:
	.loc 4 721 49 discriminator 2
	movl	$-2, %eax
	jmp	.L126
.L121:
	.loc 4 723 27 is_stmt 1
	movq	-64(%rbp), %rdx
	.loc 4 723 45
	movq	-56(%rbp), %rax
	.loc 4 723 27
	movq	56(%rax), %rax
	movq	%rax, %rcx
	call	CheckBlockLight
	movl	%eax, -20(%rbp)
	.loc 4 723 16
	cmpl	$0, -20(%rbp)
	je	.L124
	.loc 4 724 24
	movl	-20(%rbp), %eax
	jmp	.L126
.L124:
	.loc 4 725 13
	movq	-56(%rbp), %rax
	movq	%rax, %rcx
	call	CommitNumber
.L117:
.LBE13:
	.loc 4 727 12
	movq	-56(%rbp), %rdx
	movq	32(%rbp), %rax
	movq	%rdx, (%rax)
.L115:
	.loc 4 730 19
	movq	32(%rbp), %rax
	movq	(%rax), %rax
	movq	%rax, %rcx
	call	CheckNumber
	movl	%eax, -20(%rbp)
	.loc 4 730 8
	cmpl	$0, -20(%rbp)
	je	.L125
	.loc 4 731 16
	movl	-20(%rbp), %eax
	jmp	.L126
.L125:
	.loc 4 733 12
	movl	$0, %eax
.L126:
	.loc 4 734 1 discriminator 1
	addq	$112, %rsp
	popq	%rbp
	.cfi_restore 6
	.cfi_def_cfa 7, 8
	ret
	.cfi_endproc
.LFE4423:
	.seh_endproc
	.globl	Initialize_Subtruct
	.def	Initialize_Subtruct;	.scl	2;	.type	32;	.endef
	.seh_proc	Initialize_Subtruct
Initialize_Subtruct:
.LFB4424:
	.loc 4 737 1
	.cfi_startproc
	pushq	%rbp
	.seh_pushreg	%rbp
	.cfi_def_cfa_offset 16
	.cfi_offset 6, -16
	movq	%rsp, %rbp
	.seh_setframe	%rbp, 0
	.cfi_def_cfa_register 6
	.seh_endprologue
	movq	%rcx, 16(%rbp)
	.loc 4 738 12
	movl	$0, %eax
	.loc 4 739 1
	popq	%rbp
	.cfi_restore 6
	.cfi_def_cfa 7, 8
	ret
	.cfi_endproc
.LFE4424:
	.seh_endproc
.Letext0:
	.file 5 "C:/GNU/MINGW64/x86_64-8.1.0-win32-seh-rt_v6-rev0/mingw64/x86_64-w64-mingw32/include/crtdefs.h"
	.file 6 "C:/GNU/MINGW64/x86_64-8.1.0-win32-seh-rt_v6-rev0/mingw64/x86_64-w64-mingw32/include/excpt.h"
	.file 7 "C:/GNU/MINGW64/x86_64-8.1.0-win32-seh-rt_v6-rev0/mingw64/x86_64-w64-mingw32/include/minwindef.h"
	.file 8 "C:/GNU/MINGW64/x86_64-8.1.0-win32-seh-rt_v6-rev0/mingw64/x86_64-w64-mingw32/include/ctype.h"
	.file 9 "C:/GNU/MINGW64/x86_64-8.1.0-win32-seh-rt_v6-rev0/mingw64/x86_64-w64-mingw32/include/guiddef.h"
	.file 10 "C:/GNU/MINGW64/x86_64-8.1.0-win32-seh-rt_v6-rev0/mingw64/x86_64-w64-mingw32/include/stdlib.h"
	.file 11 "C:/GNU/MINGW64/x86_64-8.1.0-win32-seh-rt_v6-rev0/mingw64/x86_64-w64-mingw32/include/malloc.h"
	.file 12 "C:/GNU/MINGW64/x86_64-8.1.0-win32-seh-rt_v6-rev0/mingw64/x86_64-w64-mingw32/include/winnt.h"
	.file 13 "C:/GNU/MINGW64/x86_64-8.1.0-win32-seh-rt_v6-rev0/mingw64/x86_64-w64-mingw32/include/rpcdce.h"
	.file 14 "C:/GNU/MINGW64/x86_64-8.1.0-win32-seh-rt_v6-rev0/mingw64/x86_64-w64-mingw32/include/wtypesbase.h"
	.file 15 "C:/GNU/MINGW64/x86_64-8.1.0-win32-seh-rt_v6-rev0/mingw64/x86_64-w64-mingw32/include/unknwnbase.h"
	.file 16 "C:/GNU/MINGW64/x86_64-8.1.0-win32-seh-rt_v6-rev0/mingw64/x86_64-w64-mingw32/include/objidlbase.h"
	.file 17 "C:/GNU/MINGW64/x86_64-8.1.0-win32-seh-rt_v6-rev0/mingw64/x86_64-w64-mingw32/include/cguid.h"
	.file 18 "C:/GNU/MINGW64/x86_64-8.1.0-win32-seh-rt_v6-rev0/mingw64/x86_64-w64-mingw32/include/wtypes.h"
	.file 19 "C:/GNU/MINGW64/x86_64-8.1.0-win32-seh-rt_v6-rev0/mingw64/x86_64-w64-mingw32/include/objidl.h"
	.file 20 "C:/GNU/MINGW64/x86_64-8.1.0-win32-seh-rt_v6-rev0/mingw64/x86_64-w64-mingw32/include/oleidl.h"
	.file 21 "C:/GNU/MINGW64/x86_64-8.1.0-win32-seh-rt_v6-rev0/mingw64/x86_64-w64-mingw32/include/servprov.h"
	.file 22 "C:/GNU/MINGW64/x86_64-8.1.0-win32-seh-rt_v6-rev0/mingw64/x86_64-w64-mingw32/include/oaidl.h"
	.file 23 "C:/GNU/MINGW64/x86_64-8.1.0-win32-seh-rt_v6-rev0/mingw64/x86_64-w64-mingw32/include/msxml.h"
	.file 24 "C:/GNU/MINGW64/x86_64-8.1.0-win32-seh-rt_v6-rev0/mingw64/x86_64-w64-mingw32/include/urlmon.h"
	.file 25 "C:/GNU/MINGW64/x86_64-8.1.0-win32-seh-rt_v6-rev0/mingw64/x86_64-w64-mingw32/include/propidl.h"
	.file 26 "C:/GNU/MINGW64/x86_64-8.1.0-win32-seh-rt_v6-rev0/mingw64/x86_64-w64-mingw32/include/oleauto.h"
	.file 27 "C:/GNU/MINGW64/x86_64-8.1.0-win32-seh-rt_v6-rev0/mingw64/x86_64-w64-mingw32/include/winioctl.h"
	.file 28 "C:/GNU/MINGW64/x86_64-8.1.0-win32-seh-rt_v6-rev0/mingw64/x86_64-w64-mingw32/include/winsmcrd.h"
	.file 29 "C:/GNU/MINGW64/x86_64-8.1.0-win32-seh-rt_v6-rev0/mingw64/x86_64-w64-mingw32/include/winscard.h"
	.file 30 "C:/GNU/MINGW64/x86_64-8.1.0-win32-seh-rt_v6-rev0/mingw64/x86_64-w64-mingw32/include/commdlg.h"
	.file 31 "C:/GNU/MINGW64/x86_64-8.1.0-win32-seh-rt_v6-rev0/mingw64/x86_64-w64-mingw32/include/stdint.h"
	.file 32 "../pmc.h"
	.file 33 "../pmc_cpuid.h"
	.file 34 "../pmc_internal.h"
	.file 35 "../pmc_uint_internal.h"
	.section	.rdata$.refptr.number_zero, "dr"
	.globl	.refptr.number_zero
	.linkonce	discard
.refptr.number_zero:
	.quad	number_zero
