	.file	"pmc_divrem.cpp"
	.text
.Ltext0:
	.cfi_sections	.debug_frame
	.section	.text$_ZNSt9exceptionC2Ev,"x"
	.linkonce discard
	.align 2
	.globl	_ZNSt9exceptionC2Ev
	.def	_ZNSt9exceptionC2Ev;	.scl	2;	.type	32;	.endef
	.seh_proc	_ZNSt9exceptionC2Ev
_ZNSt9exceptionC2Ev:
.LFB4717:
	.file 1 "C:/GNU/MINGW64/x86_64-8.1.0-win32-seh-rt_v6-rev0/mingw64/lib/gcc/x86_64-w64-mingw32/8.1.0/include/c++/bits/exception.h"
	.loc 1 63 5
	.cfi_startproc
	pushq	%rbp
	.seh_pushreg	%rbp
	.cfi_def_cfa_offset 16
	.cfi_offset 6, -16
	movq	%rsp, %rbp
	.seh_setframe	%rbp, 0
	.cfi_def_cfa_register 6
	.seh_endprologue
	movq	%rcx, 16(%rbp)
.LBB22:
	.loc 1 63 26
	movq	.refptr._ZTVSt9exception(%rip), %rax
	leaq	16(%rax), %rdx
	movq	16(%rbp), %rax
	movq	%rdx, (%rax)
.LBE22:
	.loc 1 63 28
	nop
	popq	%rbp
	.cfi_restore 6
	.cfi_def_cfa 7, 8
	ret
	.cfi_endproc
.LFE4717:
	.seh_endproc
	.section	.text$_ZN8Palmtree4Math4Core8Internal9ExceptionC2EiPKw,"x"
	.linkonce discard
	.align 2
	.globl	_ZN8Palmtree4Math4Core8Internal9ExceptionC2EiPKw
	.def	_ZN8Palmtree4Math4Core8Internal9ExceptionC2EiPKw;	.scl	2;	.type	32;	.endef
	.seh_proc	_ZN8Palmtree4Math4Core8Internal9ExceptionC2EiPKw
_ZN8Palmtree4Math4Core8Internal9ExceptionC2EiPKw:
.LFB4786:
	.file 2 "../pmc_exception.h"
	.loc 2 47 9
	.cfi_startproc
	pushq	%rbp
	.seh_pushreg	%rbp
	.cfi_def_cfa_offset 16
	.cfi_offset 6, -16
	movq	%rsp, %rbp
	.seh_setframe	%rbp, 0
	.cfi_def_cfa_register 6
	subq	$32, %rsp
	.seh_stackalloc	32
	.seh_endprologue
	movq	%rcx, 16(%rbp)
	movl	%edx, 24(%rbp)
	movq	%r8, 32(%rbp)
.LBB23:
	.loc 2 48 9
	movq	16(%rbp), %rax
	movq	%rax, %rcx
	call	_ZNSt9exceptionC2Ev
	leaq	16+_ZTVN8Palmtree4Math4Core8Internal9ExceptionE(%rip), %rdx
	movq	16(%rbp), %rax
	movq	%rdx, (%rax)
	.loc 2 49 19
	movq	16(%rbp), %rax
	movl	24(%rbp), %edx
	movl	%edx, 8(%rax)
	.loc 2 50 22
	movq	16(%rbp), %rax
	movq	32(%rbp), %rdx
	movq	%rdx, 16(%rax)
	.loc 2 51 19
	movq	16(%rbp), %rax
	movq	$0, 24(%rax)
.LBE23:
	.loc 2 52 9
	nop
	addq	$32, %rsp
	popq	%rbp
	.cfi_restore 6
	.cfi_def_cfa 7, 8
	ret
	.cfi_endproc
.LFE4786:
	.seh_endproc
	.section	.text$_ZN8Palmtree4Math4Core8Internal9ExceptionC2EiPKwS5_,"x"
	.linkonce discard
	.align 2
	.globl	_ZN8Palmtree4Math4Core8Internal9ExceptionC2EiPKwS5_
	.def	_ZN8Palmtree4Math4Core8Internal9ExceptionC2EiPKwS5_;	.scl	2;	.type	32;	.endef
	.seh_proc	_ZN8Palmtree4Math4Core8Internal9ExceptionC2EiPKwS5_
_ZN8Palmtree4Math4Core8Internal9ExceptionC2EiPKwS5_:
.LFB4789:
	.loc 2 54 9
	.cfi_startproc
	pushq	%rbp
	.seh_pushreg	%rbp
	.cfi_def_cfa_offset 16
	.cfi_offset 6, -16
	movq	%rsp, %rbp
	.seh_setframe	%rbp, 0
	.cfi_def_cfa_register 6
	subq	$32, %rsp
	.seh_stackalloc	32
	.seh_endprologue
	movq	%rcx, 16(%rbp)
	movl	%edx, 24(%rbp)
	movq	%r8, 32(%rbp)
	movq	%r9, 40(%rbp)
.LBB24:
	.loc 2 55 9
	movq	16(%rbp), %rax
	movq	%rax, %rcx
	call	_ZNSt9exceptionC2Ev
	leaq	16+_ZTVN8Palmtree4Math4Core8Internal9ExceptionE(%rip), %rdx
	movq	16(%rbp), %rax
	movq	%rdx, (%rax)
	.loc 2 56 19
	movq	16(%rbp), %rax
	movl	24(%rbp), %edx
	movl	%edx, 8(%rax)
	.loc 2 57 22
	movq	16(%rbp), %rax
	movq	32(%rbp), %rdx
	movq	%rdx, 16(%rax)
	.loc 2 58 19
	movq	16(%rbp), %rax
	movq	40(%rbp), %rdx
	movq	%rdx, 24(%rax)
.LBE24:
	.loc 2 59 9
	nop
	addq	$32, %rsp
	popq	%rbp
	.cfi_restore 6
	.cfi_def_cfa 7, 8
	ret
	.cfi_endproc
.LFE4789:
	.seh_endproc
	.section	.text$_ZN8Palmtree4Math4Core8Internal9ExceptionD2Ev,"x"
	.linkonce discard
	.align 2
	.globl	_ZN8Palmtree4Math4Core8Internal9ExceptionD2Ev
	.def	_ZN8Palmtree4Math4Core8Internal9ExceptionD2Ev;	.scl	2;	.type	32;	.endef
	.seh_proc	_ZN8Palmtree4Math4Core8Internal9ExceptionD2Ev
_ZN8Palmtree4Math4Core8Internal9ExceptionD2Ev:
.LFB4795:
	.loc 2 69 17
	.cfi_startproc
	pushq	%rbp
	.seh_pushreg	%rbp
	.cfi_def_cfa_offset 16
	.cfi_offset 6, -16
	movq	%rsp, %rbp
	.seh_setframe	%rbp, 0
	.cfi_def_cfa_register 6
	subq	$32, %rsp
	.seh_stackalloc	32
	.seh_endprologue
	movq	%rcx, 16(%rbp)
.LBB25:
	.loc 2 70 9
	leaq	16+_ZTVN8Palmtree4Math4Core8Internal9ExceptionE(%rip), %rdx
	movq	16(%rbp), %rax
	movq	%rdx, (%rax)
	movq	16(%rbp), %rax
	movq	%rax, %rcx
	call	_ZNSt9exceptionD2Ev
.LBE25:
	.loc 2 71 9
	nop
	addq	$32, %rsp
	popq	%rbp
	.cfi_restore 6
	.cfi_def_cfa 7, 8
	ret
	.cfi_endproc
.LFE4795:
	.seh_endproc
	.section	.text$_ZN8Palmtree4Math4Core8Internal9ExceptionD1Ev,"x"
	.linkonce discard
	.align 2
	.globl	_ZN8Palmtree4Math4Core8Internal9ExceptionD1Ev
	.def	_ZN8Palmtree4Math4Core8Internal9ExceptionD1Ev;	.scl	2;	.type	32;	.endef
	.seh_proc	_ZN8Palmtree4Math4Core8Internal9ExceptionD1Ev
_ZN8Palmtree4Math4Core8Internal9ExceptionD1Ev:
.LFB4796:
	.loc 2 69 17
	.cfi_startproc
	pushq	%rbp
	.seh_pushreg	%rbp
	.cfi_def_cfa_offset 16
	.cfi_offset 6, -16
	movq	%rsp, %rbp
	.seh_setframe	%rbp, 0
	.cfi_def_cfa_register 6
	subq	$32, %rsp
	.seh_stackalloc	32
	.seh_endprologue
	movq	%rcx, 16(%rbp)
.LBB26:
	.loc 2 70 9
	leaq	16+_ZTVN8Palmtree4Math4Core8Internal9ExceptionE(%rip), %rdx
	movq	16(%rbp), %rax
	movq	%rdx, (%rax)
	movq	16(%rbp), %rax
	movq	%rax, %rcx
	call	_ZNSt9exceptionD2Ev
.LBE26:
	.loc 2 71 9
	nop
	addq	$32, %rsp
	popq	%rbp
	.cfi_restore 6
	.cfi_def_cfa 7, 8
	ret
	.cfi_endproc
.LFE4796:
	.seh_endproc
	.section	.text$_ZN8Palmtree4Math4Core8Internal9ExceptionD0Ev,"x"
	.linkonce discard
	.align 2
	.globl	_ZN8Palmtree4Math4Core8Internal9ExceptionD0Ev
	.def	_ZN8Palmtree4Math4Core8Internal9ExceptionD0Ev;	.scl	2;	.type	32;	.endef
	.seh_proc	_ZN8Palmtree4Math4Core8Internal9ExceptionD0Ev
_ZN8Palmtree4Math4Core8Internal9ExceptionD0Ev:
.LFB4797:
	.loc 2 69 17
	.cfi_startproc
	pushq	%rbp
	.seh_pushreg	%rbp
	.cfi_def_cfa_offset 16
	.cfi_offset 6, -16
	movq	%rsp, %rbp
	.seh_setframe	%rbp, 0
	.cfi_def_cfa_register 6
	subq	$32, %rsp
	.seh_stackalloc	32
	.seh_endprologue
	movq	%rcx, 16(%rbp)
	.loc 2 71 9
	movq	16(%rbp), %rcx
	call	_ZN8Palmtree4Math4Core8Internal9ExceptionD1Ev
	movl	$32, %edx
	movq	16(%rbp), %rcx
	call	_ZdlPvy
	nop
	addq	$32, %rsp
	popq	%rbp
	.cfi_restore 6
	.cfi_def_cfa 7, 8
	ret
	.cfi_endproc
.LFE4797:
	.seh_endproc
	.section	.text$_ZN8Palmtree4Math4Core8Internal21ArgumentNullExceptionC1EPKwS5_,"x"
	.linkonce discard
	.align 2
	.globl	_ZN8Palmtree4Math4Core8Internal21ArgumentNullExceptionC1EPKwS5_
	.def	_ZN8Palmtree4Math4Core8Internal21ArgumentNullExceptionC1EPKwS5_;	.scl	2;	.type	32;	.endef
	.seh_proc	_ZN8Palmtree4Math4Core8Internal21ArgumentNullExceptionC1EPKwS5_
_ZN8Palmtree4Math4Core8Internal21ArgumentNullExceptionC1EPKwS5_:
.LFB4813:
	.loc 2 113 9
	.cfi_startproc
	pushq	%rbp
	.seh_pushreg	%rbp
	.cfi_def_cfa_offset 16
	.cfi_offset 6, -16
	movq	%rsp, %rbp
	.seh_setframe	%rbp, 0
	.cfi_def_cfa_register 6
	subq	$32, %rsp
	.seh_stackalloc	32
	.seh_endprologue
	movq	%rcx, 16(%rbp)
	movq	%rdx, 24(%rbp)
	movq	%r8, 32(%rbp)
.LBB27:
	.loc 2 114 50
	movq	16(%rbp), %rax
	movq	32(%rbp), %rcx
	movq	24(%rbp), %rdx
	movq	%rcx, %r9
	movq	%rdx, %r8
	movl	$-2, %edx
	movq	%rax, %rcx
	call	_ZN8Palmtree4Math4Core8Internal9ExceptionC2EiPKwS5_
	leaq	16+_ZTVN8Palmtree4Math4Core8Internal21ArgumentNullExceptionE(%rip), %rdx
	movq	16(%rbp), %rax
	movq	%rdx, (%rax)
.LBE27:
	.loc 2 116 9
	nop
	addq	$32, %rsp
	popq	%rbp
	.cfi_restore 6
	.cfi_def_cfa 7, 8
	ret
	.cfi_endproc
.LFE4813:
	.seh_endproc
	.section	.text$_ZN8Palmtree4Math4Core8Internal21ArgumentNullExceptionD1Ev,"x"
	.linkonce discard
	.align 2
	.globl	_ZN8Palmtree4Math4Core8Internal21ArgumentNullExceptionD1Ev
	.def	_ZN8Palmtree4Math4Core8Internal21ArgumentNullExceptionD1Ev;	.scl	2;	.type	32;	.endef
	.seh_proc	_ZN8Palmtree4Math4Core8Internal21ArgumentNullExceptionD1Ev
_ZN8Palmtree4Math4Core8Internal21ArgumentNullExceptionD1Ev:
.LFB4819:
	.loc 2 123 17
	.cfi_startproc
	pushq	%rbp
	.seh_pushreg	%rbp
	.cfi_def_cfa_offset 16
	.cfi_offset 6, -16
	movq	%rsp, %rbp
	.seh_setframe	%rbp, 0
	.cfi_def_cfa_register 6
	subq	$32, %rsp
	.seh_stackalloc	32
	.seh_endprologue
	movq	%rcx, 16(%rbp)
.LBB28:
	.loc 2 124 9
	leaq	16+_ZTVN8Palmtree4Math4Core8Internal21ArgumentNullExceptionE(%rip), %rdx
	movq	16(%rbp), %rax
	movq	%rdx, (%rax)
	movq	16(%rbp), %rax
	movq	%rax, %rcx
	call	_ZN8Palmtree4Math4Core8Internal9ExceptionD2Ev
.LBE28:
	.loc 2 125 9
	nop
	addq	$32, %rsp
	popq	%rbp
	.cfi_restore 6
	.cfi_def_cfa 7, 8
	ret
	.cfi_endproc
.LFE4819:
	.seh_endproc
	.section	.text$_ZN8Palmtree4Math4Core8Internal21ArgumentNullExceptionD0Ev,"x"
	.linkonce discard
	.align 2
	.globl	_ZN8Palmtree4Math4Core8Internal21ArgumentNullExceptionD0Ev
	.def	_ZN8Palmtree4Math4Core8Internal21ArgumentNullExceptionD0Ev;	.scl	2;	.type	32;	.endef
	.seh_proc	_ZN8Palmtree4Math4Core8Internal21ArgumentNullExceptionD0Ev
_ZN8Palmtree4Math4Core8Internal21ArgumentNullExceptionD0Ev:
.LFB4820:
	.loc 2 123 17
	.cfi_startproc
	pushq	%rbp
	.seh_pushreg	%rbp
	.cfi_def_cfa_offset 16
	.cfi_offset 6, -16
	movq	%rsp, %rbp
	.seh_setframe	%rbp, 0
	.cfi_def_cfa_register 6
	subq	$32, %rsp
	.seh_stackalloc	32
	.seh_endprologue
	movq	%rcx, 16(%rbp)
	.loc 2 125 9
	movq	16(%rbp), %rcx
	call	_ZN8Palmtree4Math4Core8Internal21ArgumentNullExceptionD1Ev
	movl	$32, %edx
	movq	16(%rbp), %rcx
	call	_ZdlPvy
	nop
	addq	$32, %rsp
	popq	%rbp
	.cfi_restore 6
	.cfi_def_cfa 7, 8
	ret
	.cfi_endproc
.LFE4820:
	.seh_endproc
	.section	.text$_ZN8Palmtree4Math4Core8Internal23DivisionByZeroExceptionC1EPKw,"x"
	.linkonce discard
	.align 2
	.globl	_ZN8Palmtree4Math4Core8Internal23DivisionByZeroExceptionC1EPKw
	.def	_ZN8Palmtree4Math4Core8Internal23DivisionByZeroExceptionC1EPKw;	.scl	2;	.type	32;	.endef
	.seh_proc	_ZN8Palmtree4Math4Core8Internal23DivisionByZeroExceptionC1EPKw
_ZN8Palmtree4Math4Core8Internal23DivisionByZeroExceptionC1EPKw:
.LFB4843:
	.loc 2 170 9
	.cfi_startproc
	pushq	%rbp
	.seh_pushreg	%rbp
	.cfi_def_cfa_offset 16
	.cfi_offset 6, -16
	movq	%rsp, %rbp
	.seh_setframe	%rbp, 0
	.cfi_def_cfa_register 6
	subq	$32, %rsp
	.seh_stackalloc	32
	.seh_endprologue
	movq	%rcx, 16(%rbp)
	movq	%rdx, 24(%rbp)
.LBB29:
	.loc 2 171 38
	movq	16(%rbp), %rax
	movq	24(%rbp), %rdx
	movq	%rdx, %r8
	movl	$-5, %edx
	movq	%rax, %rcx
	call	_ZN8Palmtree4Math4Core8Internal9ExceptionC2EiPKw
	leaq	16+_ZTVN8Palmtree4Math4Core8Internal23DivisionByZeroExceptionE(%rip), %rdx
	movq	16(%rbp), %rax
	movq	%rdx, (%rax)
.LBE29:
	.loc 2 173 9
	nop
	addq	$32, %rsp
	popq	%rbp
	.cfi_restore 6
	.cfi_def_cfa 7, 8
	ret
	.cfi_endproc
.LFE4843:
	.seh_endproc
	.section	.text$_ZN8Palmtree4Math4Core8Internal23DivisionByZeroExceptionD1Ev,"x"
	.linkonce discard
	.align 2
	.globl	_ZN8Palmtree4Math4Core8Internal23DivisionByZeroExceptionD1Ev
	.def	_ZN8Palmtree4Math4Core8Internal23DivisionByZeroExceptionD1Ev;	.scl	2;	.type	32;	.endef
	.seh_proc	_ZN8Palmtree4Math4Core8Internal23DivisionByZeroExceptionD1Ev
_ZN8Palmtree4Math4Core8Internal23DivisionByZeroExceptionD1Ev:
.LFB4849:
	.loc 2 180 17
	.cfi_startproc
	pushq	%rbp
	.seh_pushreg	%rbp
	.cfi_def_cfa_offset 16
	.cfi_offset 6, -16
	movq	%rsp, %rbp
	.seh_setframe	%rbp, 0
	.cfi_def_cfa_register 6
	subq	$32, %rsp
	.seh_stackalloc	32
	.seh_endprologue
	movq	%rcx, 16(%rbp)
.LBB30:
	.loc 2 181 9
	leaq	16+_ZTVN8Palmtree4Math4Core8Internal23DivisionByZeroExceptionE(%rip), %rdx
	movq	16(%rbp), %rax
	movq	%rdx, (%rax)
	movq	16(%rbp), %rax
	movq	%rax, %rcx
	call	_ZN8Palmtree4Math4Core8Internal9ExceptionD2Ev
.LBE30:
	.loc 2 182 9
	nop
	addq	$32, %rsp
	popq	%rbp
	.cfi_restore 6
	.cfi_def_cfa 7, 8
	ret
	.cfi_endproc
.LFE4849:
	.seh_endproc
	.section	.text$_ZN8Palmtree4Math4Core8Internal23DivisionByZeroExceptionD0Ev,"x"
	.linkonce discard
	.align 2
	.globl	_ZN8Palmtree4Math4Core8Internal23DivisionByZeroExceptionD0Ev
	.def	_ZN8Palmtree4Math4Core8Internal23DivisionByZeroExceptionD0Ev;	.scl	2;	.type	32;	.endef
	.seh_proc	_ZN8Palmtree4Math4Core8Internal23DivisionByZeroExceptionD0Ev
_ZN8Palmtree4Math4Core8Internal23DivisionByZeroExceptionD0Ev:
.LFB4850:
	.loc 2 180 17
	.cfi_startproc
	pushq	%rbp
	.seh_pushreg	%rbp
	.cfi_def_cfa_offset 16
	.cfi_offset 6, -16
	movq	%rsp, %rbp
	.seh_setframe	%rbp, 0
	.cfi_def_cfa_register 6
	subq	$32, %rsp
	.seh_stackalloc	32
	.seh_endprologue
	movq	%rcx, 16(%rbp)
	.loc 2 182 9
	movq	16(%rbp), %rcx
	call	_ZN8Palmtree4Math4Core8Internal23DivisionByZeroExceptionD1Ev
	movl	$32, %edx
	movq	16(%rbp), %rcx
	call	_ZdlPvy
	nop
	addq	$32, %rsp
	popq	%rbp
	.cfi_restore 6
	.cfi_def_cfa 7, 8
	ret
	.cfi_endproc
.LFE4850:
	.seh_endproc
	.text
	.def	_ZN8Palmtree4Math4Core8InternalL21IncrementDIV32CounterEv;	.scl	3;	.type	32;	.endef
	.seh_proc	_ZN8Palmtree4Math4Core8InternalL21IncrementDIV32CounterEv
_ZN8Palmtree4Math4Core8InternalL21IncrementDIV32CounterEv:
.LFB4931:
	.file 3 "../pmc_uint_internal.h"
	.loc 3 318 5
	.cfi_startproc
	pushq	%rbp
	.seh_pushreg	%rbp
	.cfi_def_cfa_offset 16
	.cfi_offset 6, -16
	movq	%rsp, %rbp
	.seh_setframe	%rbp, 0
	.cfi_def_cfa_register 6
	subq	$16, %rsp
	.seh_stackalloc	16
	.seh_endprologue
	movq	.refptr._ZN8Palmtree4Math4Core8Internal15statistics_infoE(%rip), %rax
	addq	$12, %rax
	movq	%rax, -8(%rbp)
.LBB31:
.LBB32:
	.file 4 "C:/GNU/MINGW64/x86_64-8.1.0-win32-seh-rt_v6-rev0/mingw64/x86_64-w64-mingw32/include/psdk_inc/intrin-impl.h"
	.loc 4 1343 41
	movq	-8(%rbp), %rax
	movl	$1, %edx
	lock xaddl	%edx, (%rax)
.LBE32:
.LBE31:
	.loc 3 320 5
	nop
	addq	$16, %rsp
	popq	%rbp
	.cfi_restore 6
	.cfi_def_cfa 7, 8
	ret
	.cfi_endproc
.LFE4931:
	.seh_endproc
	.def	_ZN8Palmtree4Math4Core8InternalL21IncrementDIV64CounterEv;	.scl	3;	.type	32;	.endef
	.seh_proc	_ZN8Palmtree4Math4Core8InternalL21IncrementDIV64CounterEv
_ZN8Palmtree4Math4Core8InternalL21IncrementDIV64CounterEv:
.LFB4932:
	.loc 3 324 5
	.cfi_startproc
	pushq	%rbp
	.seh_pushreg	%rbp
	.cfi_def_cfa_offset 16
	.cfi_offset 6, -16
	movq	%rsp, %rbp
	.seh_setframe	%rbp, 0
	.cfi_def_cfa_register 6
	subq	$16, %rsp
	.seh_stackalloc	16
	.seh_endprologue
	movq	.refptr._ZN8Palmtree4Math4Core8Internal15statistics_infoE(%rip), %rax
	addq	$8, %rax
	movq	%rax, -8(%rbp)
.LBB33:
.LBB34:
	.loc 4 1343 41
	movq	-8(%rbp), %rax
	movl	$1, %edx
	lock xaddl	%edx, (%rax)
.LBE34:
.LBE33:
	.loc 3 326 5
	nop
	addq	$16, %rsp
	popq	%rbp
	.cfi_restore 6
	.cfi_def_cfa 7, 8
	ret
	.cfi_endproc
.LFE4932:
	.seh_endproc
	.def	_ZN8Palmtree4Math4Core8InternalL23IncrementMULTI64CounterEv;	.scl	3;	.type	32;	.endef
	.seh_proc	_ZN8Palmtree4Math4Core8InternalL23IncrementMULTI64CounterEv
_ZN8Palmtree4Math4Core8InternalL23IncrementMULTI64CounterEv:
.LFB4934:
	.loc 3 336 5
	.cfi_startproc
	pushq	%rbp
	.seh_pushreg	%rbp
	.cfi_def_cfa_offset 16
	.cfi_offset 6, -16
	movq	%rsp, %rbp
	.seh_setframe	%rbp, 0
	.cfi_def_cfa_register 6
	subq	$16, %rsp
	.seh_stackalloc	16
	.seh_endprologue
	movq	.refptr._ZN8Palmtree4Math4Core8Internal15statistics_infoE(%rip), %rax
	movq	%rax, -8(%rbp)
.LBB35:
.LBB36:
	.loc 4 1343 41
	movq	-8(%rbp), %rax
	movl	$1, %edx
	lock xaddl	%edx, (%rax)
.LBE36:
.LBE35:
	.loc 3 338 5
	nop
	addq	$16, %rsp
	popq	%rbp
	.cfi_restore 6
	.cfi_def_cfa 7, 8
	ret
	.cfi_endproc
.LFE4934:
	.seh_endproc
	.def	_ZN8Palmtree4Math4Core8InternalL17AddToDIV64CounterEi;	.scl	3;	.type	32;	.endef
	.seh_proc	_ZN8Palmtree4Math4Core8InternalL17AddToDIV64CounterEi
_ZN8Palmtree4Math4Core8InternalL17AddToDIV64CounterEi:
.LFB4936:
	.loc 3 347 5
	.cfi_startproc
	pushq	%rbp
	.seh_pushreg	%rbp
	.cfi_def_cfa_offset 16
	.cfi_offset 6, -16
	movq	%rsp, %rbp
	.seh_setframe	%rbp, 0
	.cfi_def_cfa_register 6
	subq	$16, %rsp
	.seh_stackalloc	16
	.seh_endprologue
	movl	%ecx, 16(%rbp)
	movq	.refptr._ZN8Palmtree4Math4Core8Internal15statistics_infoE(%rip), %rax
	addq	$8, %rax
	movq	%rax, -8(%rbp)
	movl	16(%rbp), %eax
	movl	%eax, -12(%rbp)
.LBB37:
.LBB38:
	.loc 4 1321 46
	movl	-12(%rbp), %edx
	movq	-8(%rbp), %rax
	lock xaddl	%edx, (%rax)
.LBE38:
.LBE37:
	.loc 3 349 5
	nop
	addq	$16, %rsp
	popq	%rbp
	.cfi_restore 6
	.cfi_def_cfa 7, 8
	ret
	.cfi_endproc
.LFE4936:
	.seh_endproc
	.def	_ZN8Palmtree4Math4Core8InternalL19AddToMULTI64CounterEi;	.scl	3;	.type	32;	.endef
	.seh_proc	_ZN8Palmtree4Math4Core8InternalL19AddToMULTI64CounterEi
_ZN8Palmtree4Math4Core8InternalL19AddToMULTI64CounterEi:
.LFB4938:
	.loc 3 359 5
	.cfi_startproc
	pushq	%rbp
	.seh_pushreg	%rbp
	.cfi_def_cfa_offset 16
	.cfi_offset 6, -16
	movq	%rsp, %rbp
	.seh_setframe	%rbp, 0
	.cfi_def_cfa_register 6
	subq	$16, %rsp
	.seh_stackalloc	16
	.seh_endprologue
	movl	%ecx, 16(%rbp)
	movq	.refptr._ZN8Palmtree4Math4Core8Internal15statistics_infoE(%rip), %rax
	movq	%rax, -8(%rbp)
	movl	16(%rbp), %eax
	movl	%eax, -12(%rbp)
.LBB39:
.LBB40:
	.loc 4 1321 46
	movl	-12(%rbp), %edx
	movq	-8(%rbp), %rax
	lock xaddl	%edx, (%rax)
.LBE40:
.LBE39:
	.loc 3 361 5
	nop
	addq	$16, %rsp
	popq	%rbp
	.cfi_restore 6
	.cfi_def_cfa 7, 8
	ret
	.cfi_endproc
.LFE4938:
	.seh_endproc
	.def	_COPY_MEMORY_UNIT;	.scl	3;	.type	32;	.endef
	.seh_proc	_COPY_MEMORY_UNIT
_COPY_MEMORY_UNIT:
.LFB5007:
	.file 5 "../pmc_inline_func.h"
	.loc 5 63 9
	.cfi_startproc
	pushq	%rbp
	.seh_pushreg	%rbp
	.cfi_def_cfa_offset 16
	.cfi_offset 6, -16
	pushq	%rdi
	.seh_pushreg	%rdi
	.cfi_def_cfa_offset 24
	.cfi_offset 5, -24
	pushq	%rsi
	.seh_pushreg	%rsi
	.cfi_def_cfa_offset 32
	.cfi_offset 4, -32
	movq	%rsp, %rbp
	.seh_setframe	%rbp, 0
	.cfi_def_cfa_register 6
	subq	$32, %rsp
	.seh_stackalloc	32
	.seh_endprologue
	movq	%rcx, 32(%rbp)
	movq	%rdx, 40(%rbp)
	movq	%r8, 48(%rbp)
	movq	32(%rbp), %rax
	movq	%rax, -8(%rbp)
	movq	40(%rbp), %rax
	movq	%rax, -16(%rbp)
	movq	48(%rbp), %rax
	movq	%rax, -24(%rbp)
.LBB41:
.LBB42:
	.loc 4 952 243
	movq	-8(%rbp), %rcx
	movq	-16(%rbp), %rdx
	movq	-24(%rbp), %rax
	movq	%rcx, %r8
	movq	%r8, %rdi
	movq	%rdx, %rsi
	movq	%rax, %rcx
/APP
 # 952 "C:/GNU/MINGW64/x86_64-8.1.0-win32-seh-rt_v6-rev0/mingw64/x86_64-w64-mingw32/include/psdk_inc/intrin-impl.h" 1
	rep movsq
 # 0 "" 2
/NO_APP
	movq	%rcx, %rax
	movq	%rsi, %rdx
	movq	%rdi, %r8
	movq	%r8, -8(%rbp)
	movq	%rdx, -16(%rbp)
	movq	%rax, -24(%rbp)
.LBE42:
.LBE41:
	.loc 5 71 9
	nop
	addq	$32, %rsp
	popq	%rsi
	.cfi_restore 4
	popq	%rdi
	.cfi_restore 5
	popq	%rbp
	.cfi_restore 6
	.cfi_def_cfa 7, 24
	ret
	.cfi_endproc
.LFE5007:
	.seh_endproc
	.def	_ADD_UNIT;	.scl	3;	.type	32;	.endef
	.seh_proc	_ADD_UNIT
_ADD_UNIT:
.LFB5025:
	.loc 5 176 9
	.cfi_startproc
	pushq	%rbp
	.seh_pushreg	%rbp
	.cfi_def_cfa_offset 16
	.cfi_offset 6, -16
	movq	%rsp, %rbp
	.seh_setframe	%rbp, 0
	.cfi_def_cfa_register 6
	subq	$32, %rsp
	.seh_stackalloc	32
	.seh_endprologue
	movl	%ecx, %eax
	movq	%rdx, 24(%rbp)
	movq	%r8, 32(%rbp)
	movq	%r9, 40(%rbp)
	movb	%al, 16(%rbp)
	.loc 5 180 35
	movzbl	16(%rbp), %eax
	.loc 5 180 34
	movzbl	%al, %eax
	movb	%al, -1(%rbp)
	movq	24(%rbp), %rax
	movq	%rax, -16(%rbp)
	movq	32(%rbp), %rax
	movq	%rax, -24(%rbp)
	movq	40(%rbp), %rax
	movq	%rax, -32(%rbp)
.LBB43:
.LBB44:
	.file 6 "C:/GNU/MINGW64/x86_64-8.1.0-win32-seh-rt_v6-rev0/mingw64/lib/gcc/x86_64-w64-mingw32/8.1.0/include/adxintrin.h"
	.loc 6 69 39
	movzbl	-1(%rbp), %eax
	movl	%eax, %r8d
	movq	-16(%rbp), %rcx
	movq	-24(%rbp), %rax
	movq	-32(%rbp), %rdx
	addb	$-1, %r8b
	adcq	%rcx, %rax
	setc	%cl
	movq	%rax, (%rdx)
.LBE44:
.LBE43:
	.loc 5 180 50
	movl	%ecx, %eax
	.loc 5 184 9
	addq	$32, %rsp
	popq	%rbp
	.cfi_restore 6
	.cfi_def_cfa 7, 8
	ret
	.cfi_endproc
.LFE5025:
	.seh_endproc
	.def	_ADDX_UNIT;	.scl	3;	.type	32;	.endef
	.seh_proc	_ADDX_UNIT
_ADDX_UNIT:
.LFB5026:
	.loc 5 187 9
	.cfi_startproc
	pushq	%rbp
	.seh_pushreg	%rbp
	.cfi_def_cfa_offset 16
	.cfi_offset 6, -16
	movq	%rsp, %rbp
	.seh_setframe	%rbp, 0
	.cfi_def_cfa_register 6
	subq	$32, %rsp
	.seh_stackalloc	32
	.seh_endprologue
	movl	%ecx, %eax
	movq	%rdx, 24(%rbp)
	movq	%r8, 32(%rbp)
	movq	%r9, 40(%rbp)
	movb	%al, 16(%rbp)
	.loc 5 191 36
	movzbl	16(%rbp), %eax
	.loc 5 191 35
	movzbl	%al, %eax
	movb	%al, -1(%rbp)
	movq	24(%rbp), %rax
	movq	%rax, -16(%rbp)
	movq	32(%rbp), %rax
	movq	%rax, -24(%rbp)
	movq	40(%rbp), %rax
	movq	%rax, -32(%rbp)
.LBB45:
.LBB46:
	.loc 6 77 39
	movzbl	-1(%rbp), %eax
	movl	%eax, %r8d
	movq	-16(%rbp), %rcx
	movq	-24(%rbp), %rax
	movq	-32(%rbp), %rdx
	addb	$-1, %r8b
	adcq	%rcx, %rax
	setc	%cl
	movq	%rax, (%rdx)
.LBE46:
.LBE45:
	.loc 5 191 51
	movl	%ecx, %eax
	.loc 5 195 9
	addq	$32, %rsp
	popq	%rbp
	.cfi_restore 6
	.cfi_def_cfa 7, 8
	ret
	.cfi_endproc
.LFE5026:
	.seh_endproc
	.def	_SUBTRUCT_UNIT;	.scl	3;	.type	32;	.endef
	.seh_proc	_SUBTRUCT_UNIT
_SUBTRUCT_UNIT:
.LFB5027:
	.loc 5 198 9
	.cfi_startproc
	pushq	%rbp
	.seh_pushreg	%rbp
	.cfi_def_cfa_offset 16
	.cfi_offset 6, -16
	movq	%rsp, %rbp
	.seh_setframe	%rbp, 0
	.cfi_def_cfa_register 6
	subq	$32, %rsp
	.seh_stackalloc	32
	.seh_endprologue
	movl	%ecx, %eax
	movq	%rdx, 24(%rbp)
	movq	%r8, 32(%rbp)
	movq	%r9, 40(%rbp)
	movb	%al, 16(%rbp)
	.loc 5 202 36
	movzbl	16(%rbp), %eax
	.loc 5 202 35
	movzbl	%al, %eax
	movb	%al, -1(%rbp)
	movq	24(%rbp), %rax
	movq	%rax, -16(%rbp)
	movq	32(%rbp), %rax
	movq	%rax, -24(%rbp)
	movq	40(%rbp), %rax
	movq	%rax, -32(%rbp)
.LBB47:
.LBB48:
	.loc 6 61 33
	movzbl	-1(%rbp), %eax
	movl	%eax, %r8d
	movq	-16(%rbp), %rax
	movq	-24(%rbp), %rcx
	movq	-32(%rbp), %rdx
	addb	$-1, %r8b
	sbbq	%rcx, %rax
	setc	%cl
	movq	%rax, (%rdx)
.LBE48:
.LBE47:
	.loc 5 202 52
	movl	%ecx, %eax
	.loc 5 206 9
	addq	$32, %rsp
	popq	%rbp
	.cfi_restore 6
	.cfi_def_cfa 7, 8
	ret
	.cfi_endproc
.LFE5027:
	.seh_endproc
	.def	_MULTIPLY_UNIT;	.scl	3;	.type	32;	.endef
	.seh_proc	_MULTIPLY_UNIT
_MULTIPLY_UNIT:
.LFB5028:
	.loc 5 209 9
	.cfi_startproc
	pushq	%rbp
	.seh_pushreg	%rbp
	.cfi_def_cfa_offset 16
	.cfi_offset 6, -16
	pushq	%r12
	.seh_pushreg	%r12
	.cfi_def_cfa_offset 24
	.cfi_offset 12, -24
	subq	$56, %rsp
	.seh_stackalloc	56
	.cfi_def_cfa_offset 80
	leaq	128(%rsp), %rbp
	.seh_setframe	%rbp, 128
	.cfi_def_cfa 6, -48
	.seh_endprologue
	movq	%rcx, -48(%rbp)
	movq	%rdx, -40(%rbp)
	movq	%r8, -32(%rbp)
	movq	-48(%rbp), %rax
	movq	%rax, -88(%rbp)
	movq	-40(%rbp), %rax
	movq	%rax, -96(%rbp)
	movq	-32(%rbp), %rax
	movq	%rax, -104(%rbp)
.LBB49:
.LBB50:
	.loc 4 964 10
	movq	-88(%rbp), %rax
	movq	%rax, %r11
	movl	$0, %r12d
	movq	%r11, -128(%rbp)
	movq	%r12, -120(%rbp)
	.loc 4 965 10
	movq	-128(%rbp), %rax
	movq	-120(%rbp), %rdx
	movq	-96(%rbp), %rcx
	movq	%rcx, %r9
	movl	$0, %r10d
	movq	%rdx, %r8
	imulq	%r9, %r8
	movq	%r10, %rcx
	imulq	%rax, %rcx
	addq	%r8, %rcx
	mulq	%r9
	addq	%rdx, %rcx
	movq	%rcx, %rdx
	movq	%rax, -128(%rbp)
	movq	%rdx, -120(%rbp)
	.loc 4 966 4
	cmpq	$0, -104(%rbp)
	je	.L34
	.loc 4 966 26
	movq	-120(%rbp), %rdx
	.loc 4 966 16
	movq	-104(%rbp), %rax
	movq	%rdx, (%rax)
.L34:
	.loc 4 967 19
	movq	-128(%rbp), %rax
.LBE50:
.LBE49:
	.loc 5 225 9
	addq	$56, %rsp
	popq	%r12
	.cfi_restore 12
	popq	%rbp
	.cfi_restore 6
	.cfi_def_cfa 7, -40
	ret
	.cfi_endproc
.LFE5028:
	.seh_endproc
	.def	_MULTIPLYX_UNIT;	.scl	3;	.type	32;	.endef
	.seh_proc	_MULTIPLYX_UNIT
_MULTIPLYX_UNIT:
.LFB5029:
	.loc 5 228 9
	.cfi_startproc
	pushq	%rbp
	.seh_pushreg	%rbp
	.cfi_def_cfa_offset 16
	.cfi_offset 6, -16
	movq	%rsp, %rbp
	.seh_setframe	%rbp, 0
	.cfi_def_cfa_register 6
	subq	$16, %rsp
	.seh_stackalloc	16
	.seh_endprologue
	movq	%rcx, 16(%rbp)
	movq	%rdx, 24(%rbp)
	movq	%r8, 32(%rbp)
	.loc 5 244 85
	movq	16(%rbp), %rax
	movq	%rax, %rdx
/APP
 # 244 "../pmc_inline_func.h" 1
	mulxq 24(%rbp), %r8, %rcx
 # 0 "" 2
/NO_APP
	movq	%rdx, %rax
	movq	%r8, -8(%rbp)
	movq	32(%rbp), %rdx
	movq	%rcx, (%rdx)
	movq	%rax, 16(%rbp)
	.loc 5 245 25
	movq	-8(%rbp), %rax
	.loc 5 252 9
	addq	$16, %rsp
	popq	%rbp
	.cfi_restore 6
	.cfi_def_cfa 7, 8
	ret
	.cfi_endproc
.LFE5029:
	.seh_endproc
	.def	_DIVREM_UNIT;	.scl	3;	.type	32;	.endef
	.seh_proc	_DIVREM_UNIT
_DIVREM_UNIT:
.LFB5030:
	.loc 5 271 9
	.cfi_startproc
	pushq	%rbp
	.seh_pushreg	%rbp
	.cfi_def_cfa_offset 16
	.cfi_offset 6, -16
	movq	%rsp, %rbp
	.seh_setframe	%rbp, 0
	.cfi_def_cfa_register 6
	subq	$16, %rsp
	.seh_stackalloc	16
	.seh_endprologue
	movq	%rcx, 16(%rbp)
	movq	%rdx, 24(%rbp)
	movq	%r8, 32(%rbp)
	movq	%r9, 40(%rbp)
	.loc 5 276 85
	movq	24(%rbp), %rax
	movq	16(%rbp), %rdx
/APP
 # 276 "../pmc_inline_func.h" 1
	divq 32(%rbp)
 # 0 "" 2
/NO_APP
	movq	%rax, -8(%rbp)
	movq	40(%rbp), %rax
	movq	%rdx, (%rax)
	.loc 5 280 22
	movq	-8(%rbp), %rax
	.loc 5 281 9
	addq	$16, %rsp
	popq	%rbp
	.cfi_restore 6
	.cfi_def_cfa 7, 8
	ret
	.cfi_endproc
.LFE5030:
	.seh_endproc
	.def	_DIVREM_SINGLE_UNIT;	.scl	3;	.type	32;	.endef
	.seh_proc	_DIVREM_SINGLE_UNIT
_DIVREM_SINGLE_UNIT:
.LFB5031:
	.loc 5 303 9
	.cfi_startproc
	pushq	%rbp
	.seh_pushreg	%rbp
	.cfi_def_cfa_offset 16
	.cfi_offset 6, -16
	movq	%rsp, %rbp
	.seh_setframe	%rbp, 0
	.cfi_def_cfa_register 6
	.seh_endprologue
	movq	%rcx, 16(%rbp)
	movq	%rdx, 24(%rbp)
	movq	%r8, 32(%rbp)
	movq	%r9, 40(%rbp)
	.loc 5 307 76
	movq	16(%rbp), %rdx
	movq	24(%rbp), %rax
/APP
 # 307 "../pmc_inline_func.h" 1
	divq 32(%rbp)
 # 0 "" 2
/NO_APP
	movq	40(%rbp), %rcx
	movq	%rax, (%rcx)
	movq	%rdx, 16(%rbp)
	.loc 5 311 22
	movq	16(%rbp), %rax
	.loc 5 312 9
	popq	%rbp
	.cfi_restore 6
	.cfi_def_cfa 7, 8
	ret
	.cfi_endproc
.LFE5031:
	.seh_endproc
	.def	_LZCNT_ALT_32;	.scl	3;	.type	32;	.endef
	.seh_proc	_LZCNT_ALT_32
_LZCNT_ALT_32:
.LFB5041:
	.loc 5 421 9
	.cfi_startproc
	pushq	%rbp
	.seh_pushreg	%rbp
	.cfi_def_cfa_offset 16
	.cfi_offset 6, -16
	movq	%rsp, %rbp
	.seh_setframe	%rbp, 0
	.cfi_def_cfa_register 6
	subq	$16, %rsp
	.seh_stackalloc	16
	.seh_endprologue
	movl	%ecx, 16(%rbp)
	.loc 5 422 13
	cmpl	$0, 16(%rbp)
	jne	.L44
	.loc 5 423 38
	movl	$32, %eax
	jmp	.L45
.L44:
	.loc 5 428 57
/APP
 # 428 "../pmc_inline_func.h" 1
	bsrl 16(%rbp), %eax
 # 0 "" 2
/NO_APP
	movl	%eax, -4(%rbp)
	.loc 5 432 39
	movl	$31, %eax
	subl	-4(%rbp), %eax
.L45:
	.loc 5 433 9
	addq	$16, %rsp
	popq	%rbp
	.cfi_restore 6
	.cfi_def_cfa 7, 8
	ret
	.cfi_endproc
.LFE5041:
	.seh_endproc
	.def	_LZCNT_ALT_UNIT;	.scl	3;	.type	32;	.endef
	.seh_proc	_LZCNT_ALT_UNIT
_LZCNT_ALT_UNIT:
.LFB5043:
	.loc 5 454 9
	.cfi_startproc
	pushq	%rbp
	.seh_pushreg	%rbp
	.cfi_def_cfa_offset 16
	.cfi_offset 6, -16
	movq	%rsp, %rbp
	.seh_setframe	%rbp, 0
	.cfi_def_cfa_register 6
	subq	$16, %rsp
	.seh_stackalloc	16
	.seh_endprologue
	movq	%rcx, 16(%rbp)
	.loc 5 455 13
	cmpq	$0, 16(%rbp)
	jne	.L47
	.loc 5 456 38
	movl	$64, %eax
	jmp	.L48
.L47:
	.loc 5 472 57
/APP
 # 472 "../pmc_inline_func.h" 1
	bsrq 16(%rbp), %rax
 # 0 "" 2
/NO_APP
	movq	%rax, -8(%rbp)
	.loc 5 479 39
	movq	-8(%rbp), %rax
	movl	$63, %edx
	subl	%eax, %edx
	movl	%edx, %eax
.L48:
	.loc 5 480 9
	addq	$16, %rsp
	popq	%rbp
	.cfi_restore 6
	.cfi_def_cfa 7, 8
	ret
	.cfi_endproc
.LFE5043:
	.seh_endproc
	.def	_ADD_32WORDS_ADC;	.scl	3;	.type	32;	.endef
	.seh_proc	_ADD_32WORDS_ADC
_ADD_32WORDS_ADC:
.LFB5052:
	.file 7 "../autogenerated_inline_func.h"
	.loc 7 41 1
	.cfi_startproc
	pushq	%rbp
	.seh_pushreg	%rbp
	.cfi_def_cfa_offset 16
	.cfi_offset 6, -16
	movq	%rsp, %rbp
	.seh_setframe	%rbp, 0
	.cfi_def_cfa_register 6
	.seh_endprologue
	movl	%ecx, %eax
	movq	%rdx, 24(%rbp)
	movq	%r8, 32(%rbp)
	movq	%r9, 40(%rbp)
	movb	%al, 16(%rbp)
	.loc 7 283 2
	movzbl	16(%rbp), %eax
	movq	24(%rbp), %r8
	movq	32(%rbp), %rcx
	movq	40(%rbp), %rdx
	movq	%r8, %r9
	movq	%rcx, %r8
/APP
 # 283 "../autogenerated_inline_func.h" 1
	addb	$-1, %al
	movq	(%r9), %rcx
	adcq	(%r8), %rcx
	movq	%rcx, (%rdx)
	movq	8(%r9), %rcx
	adcq	8(%r8), %rcx
	movq	%rcx, 8(%rdx)
	movq	16(%r9), %rcx
	adcq	16(%r8), %rcx
	movq	%rcx, 16(%rdx)
	movq	24(%r9), %rcx
	adcq	24(%r8), %rcx
	movq	%rcx, 24(%rdx)
	movq	32(%r9), %rcx
	adcq	32(%r8), %rcx
	movq	%rcx, 32(%rdx)
	movq	40(%r9), %rcx
	adcq	40(%r8), %rcx
	movq	%rcx, 40(%rdx)
	movq	48(%r9), %rcx
	adcq	48(%r8), %rcx
	movq	%rcx, 48(%rdx)
	movq	56(%r9), %rcx
	adcq	56(%r8), %rcx
	movq	%rcx, 56(%rdx)
	movq	64(%r9), %rcx
	adcq	64(%r8), %rcx
	movq	%rcx, 64(%rdx)
	movq	72(%r9), %rcx
	adcq	72(%r8), %rcx
	movq	%rcx, 72(%rdx)
	movq	80(%r9), %rcx
	adcq	80(%r8), %rcx
	movq	%rcx, 80(%rdx)
	movq	88(%r9), %rcx
	adcq	88(%r8), %rcx
	movq	%rcx, 88(%rdx)
	movq	96(%r9), %rcx
	adcq	96(%r8), %rcx
	movq	%rcx, 96(%rdx)
	movq	104(%r9), %rcx
	adcq	104(%r8), %rcx
	movq	%rcx, 104(%rdx)
	movq	112(%r9), %rcx
	adcq	112(%r8), %rcx
	movq	%rcx, 112(%rdx)
	movq	120(%r9), %rcx
	adcq	120(%r8), %rcx
	movq	%rcx, 120(%rdx)
	movq	128(%r9), %rcx
	adcq	128(%r8), %rcx
	movq	%rcx, 128(%rdx)
	movq	136(%r9), %rcx
	adcq	136(%r8), %rcx
	movq	%rcx, 136(%rdx)
	movq	144(%r9), %rcx
	adcq	144(%r8), %rcx
	movq	%rcx, 144(%rdx)
	movq	152(%r9), %rcx
	adcq	152(%r8), %rcx
	movq	%rcx, 152(%rdx)
	movq	160(%r9), %rcx
	adcq	160(%r8), %rcx
	movq	%rcx, 160(%rdx)
	movq	168(%r9), %rcx
	adcq	168(%r8), %rcx
	movq	%rcx, 168(%rdx)
	movq	176(%r9), %rcx
	adcq	176(%r8), %rcx
	movq	%rcx, 176(%rdx)
	movq	184(%r9), %rcx
	adcq	184(%r8), %rcx
	movq	%rcx, 184(%rdx)
	movq	192(%r9), %rcx
	adcq	192(%r8), %rcx
	movq	%rcx, 192(%rdx)
	movq	200(%r9), %rcx
	adcq	200(%r8), %rcx
	movq	%rcx, 200(%rdx)
	movq	208(%r9), %rcx
	adcq	208(%r8), %rcx
	movq	%rcx, 208(%rdx)
	movq	216(%r9), %rcx
	adcq	216(%r8), %rcx
	movq	%rcx, 216(%rdx)
	movq	224(%r9), %rcx
	adcq	224(%r8), %rcx
	movq	%rcx, 224(%rdx)
	movq	232(%r9), %rcx
	adcq	232(%r8), %rcx
	movq	%rcx, 232(%rdx)
	movq	240(%r9), %rcx
	adcq	240(%r8), %rcx
	movq	%rcx, 240(%rdx)
	movq	248(%r9), %rcx
	adcq	248(%r8), %rcx
	movq	%rcx, 248(%rdx)
	setc	%al
 # 0 "" 2
/NO_APP
	movb	%al, 16(%rbp)
	movq	%r9, 24(%rbp)
	movq	%r8, 32(%rbp)
	movq	%rdx, 40(%rbp)
	.loc 7 290 14
	movzbl	16(%rbp), %eax
	.loc 7 291 1
	popq	%rbp
	.cfi_restore 6
	.cfi_def_cfa 7, 8
	ret
	.cfi_endproc
.LFE5052:
	.seh_endproc
	.def	_ADD_32WORDS_ADCX;	.scl	3;	.type	32;	.endef
	.seh_proc	_ADD_32WORDS_ADCX
_ADD_32WORDS_ADCX:
.LFB5053:
	.loc 7 294 1
	.cfi_startproc
	pushq	%rbp
	.seh_pushreg	%rbp
	.cfi_def_cfa_offset 16
	.cfi_offset 6, -16
	movq	%rsp, %rbp
	.seh_setframe	%rbp, 0
	.cfi_def_cfa_register 6
	.seh_endprologue
	movl	%ecx, %eax
	movq	%rdx, 24(%rbp)
	movq	%r8, 32(%rbp)
	movq	%r9, 40(%rbp)
	movb	%al, 16(%rbp)
	.loc 7 536 2
	movzbl	16(%rbp), %eax
	movq	24(%rbp), %r8
	movq	32(%rbp), %rcx
	movq	40(%rbp), %rdx
	movq	%r8, %r9
	movq	%rcx, %r8
/APP
 # 536 "../autogenerated_inline_func.h" 1
	addb	$-1, %al
	movq	(%r9), %rcx
	adcxq	(%r8), %rcx
	movq	%rcx, (%rdx)
	movq	8(%r9), %rcx
	adcxq	8(%r8), %rcx
	movq	%rcx, 8(%rdx)
	movq	16(%r9), %rcx
	adcxq	16(%r8), %rcx
	movq	%rcx, 16(%rdx)
	movq	24(%r9), %rcx
	adcxq	24(%r8), %rcx
	movq	%rcx, 24(%rdx)
	movq	32(%r9), %rcx
	adcxq	32(%r8), %rcx
	movq	%rcx, 32(%rdx)
	movq	40(%r9), %rcx
	adcxq	40(%r8), %rcx
	movq	%rcx, 40(%rdx)
	movq	48(%r9), %rcx
	adcxq	48(%r8), %rcx
	movq	%rcx, 48(%rdx)
	movq	56(%r9), %rcx
	adcxq	56(%r8), %rcx
	movq	%rcx, 56(%rdx)
	movq	64(%r9), %rcx
	adcxq	64(%r8), %rcx
	movq	%rcx, 64(%rdx)
	movq	72(%r9), %rcx
	adcxq	72(%r8), %rcx
	movq	%rcx, 72(%rdx)
	movq	80(%r9), %rcx
	adcxq	80(%r8), %rcx
	movq	%rcx, 80(%rdx)
	movq	88(%r9), %rcx
	adcxq	88(%r8), %rcx
	movq	%rcx, 88(%rdx)
	movq	96(%r9), %rcx
	adcxq	96(%r8), %rcx
	movq	%rcx, 96(%rdx)
	movq	104(%r9), %rcx
	adcxq	104(%r8), %rcx
	movq	%rcx, 104(%rdx)
	movq	112(%r9), %rcx
	adcxq	112(%r8), %rcx
	movq	%rcx, 112(%rdx)
	movq	120(%r9), %rcx
	adcxq	120(%r8), %rcx
	movq	%rcx, 120(%rdx)
	movq	128(%r9), %rcx
	adcxq	128(%r8), %rcx
	movq	%rcx, 128(%rdx)
	movq	136(%r9), %rcx
	adcxq	136(%r8), %rcx
	movq	%rcx, 136(%rdx)
	movq	144(%r9), %rcx
	adcxq	144(%r8), %rcx
	movq	%rcx, 144(%rdx)
	movq	152(%r9), %rcx
	adcxq	152(%r8), %rcx
	movq	%rcx, 152(%rdx)
	movq	160(%r9), %rcx
	adcxq	160(%r8), %rcx
	movq	%rcx, 160(%rdx)
	movq	168(%r9), %rcx
	adcxq	168(%r8), %rcx
	movq	%rcx, 168(%rdx)
	movq	176(%r9), %rcx
	adcxq	176(%r8), %rcx
	movq	%rcx, 176(%rdx)
	movq	184(%r9), %rcx
	adcxq	184(%r8), %rcx
	movq	%rcx, 184(%rdx)
	movq	192(%r9), %rcx
	adcxq	192(%r8), %rcx
	movq	%rcx, 192(%rdx)
	movq	200(%r9), %rcx
	adcxq	200(%r8), %rcx
	movq	%rcx, 200(%rdx)
	movq	208(%r9), %rcx
	adcxq	208(%r8), %rcx
	movq	%rcx, 208(%rdx)
	movq	216(%r9), %rcx
	adcxq	216(%r8), %rcx
	movq	%rcx, 216(%rdx)
	movq	224(%r9), %rcx
	adcxq	224(%r8), %rcx
	movq	%rcx, 224(%rdx)
	movq	232(%r9), %rcx
	adcxq	232(%r8), %rcx
	movq	%rcx, 232(%rdx)
	movq	240(%r9), %rcx
	adcxq	240(%r8), %rcx
	movq	%rcx, 240(%rdx)
	movq	248(%r9), %rcx
	adcxq	248(%r8), %rcx
	movq	%rcx, 248(%rdx)
	setc	%al
 # 0 "" 2
/NO_APP
	movb	%al, 16(%rbp)
	movq	%r9, 24(%rbp)
	movq	%r8, 32(%rbp)
	movq	%rdx, 40(%rbp)
	.loc 7 543 14
	movzbl	16(%rbp), %eax
	.loc 7 544 1
	popq	%rbp
	.cfi_restore 6
	.cfi_def_cfa 7, 8
	ret
	.cfi_endproc
.LFE5053:
	.seh_endproc
	.def	_ADD_16WORDS_ADC;	.scl	3;	.type	32;	.endef
	.seh_proc	_ADD_16WORDS_ADC
_ADD_16WORDS_ADC:
.LFB5056:
	.loc 7 1053 1
	.cfi_startproc
	pushq	%rbp
	.seh_pushreg	%rbp
	.cfi_def_cfa_offset 16
	.cfi_offset 6, -16
	movq	%rsp, %rbp
	.seh_setframe	%rbp, 0
	.cfi_def_cfa_register 6
	.seh_endprologue
	movl	%ecx, %eax
	movq	%rdx, 24(%rbp)
	movq	%r8, 32(%rbp)
	movq	%r9, 40(%rbp)
	movb	%al, 16(%rbp)
	.loc 7 1183 2
	movzbl	16(%rbp), %eax
	movq	24(%rbp), %r8
	movq	32(%rbp), %rcx
	movq	40(%rbp), %rdx
	movq	%r8, %r9
	movq	%rcx, %r8
/APP
 # 1183 "../autogenerated_inline_func.h" 1
	addb	$-1, %al
	movq	(%r9), %rcx
	adcq	(%r8), %rcx
	movq	%rcx, (%rdx)
	movq	8(%r9), %rcx
	adcq	8(%r8), %rcx
	movq	%rcx, 8(%rdx)
	movq	16(%r9), %rcx
	adcq	16(%r8), %rcx
	movq	%rcx, 16(%rdx)
	movq	24(%r9), %rcx
	adcq	24(%r8), %rcx
	movq	%rcx, 24(%rdx)
	movq	32(%r9), %rcx
	adcq	32(%r8), %rcx
	movq	%rcx, 32(%rdx)
	movq	40(%r9), %rcx
	adcq	40(%r8), %rcx
	movq	%rcx, 40(%rdx)
	movq	48(%r9), %rcx
	adcq	48(%r8), %rcx
	movq	%rcx, 48(%rdx)
	movq	56(%r9), %rcx
	adcq	56(%r8), %rcx
	movq	%rcx, 56(%rdx)
	movq	64(%r9), %rcx
	adcq	64(%r8), %rcx
	movq	%rcx, 64(%rdx)
	movq	72(%r9), %rcx
	adcq	72(%r8), %rcx
	movq	%rcx, 72(%rdx)
	movq	80(%r9), %rcx
	adcq	80(%r8), %rcx
	movq	%rcx, 80(%rdx)
	movq	88(%r9), %rcx
	adcq	88(%r8), %rcx
	movq	%rcx, 88(%rdx)
	movq	96(%r9), %rcx
	adcq	96(%r8), %rcx
	movq	%rcx, 96(%rdx)
	movq	104(%r9), %rcx
	adcq	104(%r8), %rcx
	movq	%rcx, 104(%rdx)
	movq	112(%r9), %rcx
	adcq	112(%r8), %rcx
	movq	%rcx, 112(%rdx)
	movq	120(%r9), %rcx
	adcq	120(%r8), %rcx
	movq	%rcx, 120(%rdx)
	setc	%al
 # 0 "" 2
/NO_APP
	movb	%al, 16(%rbp)
	movq	%r9, 24(%rbp)
	movq	%r8, 32(%rbp)
	movq	%rdx, 40(%rbp)
	.loc 7 1190 14
	movzbl	16(%rbp), %eax
	.loc 7 1191 1
	popq	%rbp
	.cfi_restore 6
	.cfi_def_cfa 7, 8
	ret
	.cfi_endproc
.LFE5056:
	.seh_endproc
	.def	_ADD_16WORDS_ADCX;	.scl	3;	.type	32;	.endef
	.seh_proc	_ADD_16WORDS_ADCX
_ADD_16WORDS_ADCX:
.LFB5057:
	.loc 7 1194 1
	.cfi_startproc
	pushq	%rbp
	.seh_pushreg	%rbp
	.cfi_def_cfa_offset 16
	.cfi_offset 6, -16
	movq	%rsp, %rbp
	.seh_setframe	%rbp, 0
	.cfi_def_cfa_register 6
	.seh_endprologue
	movl	%ecx, %eax
	movq	%rdx, 24(%rbp)
	movq	%r8, 32(%rbp)
	movq	%r9, 40(%rbp)
	movb	%al, 16(%rbp)
	.loc 7 1324 2
	movzbl	16(%rbp), %eax
	movq	24(%rbp), %r8
	movq	32(%rbp), %rcx
	movq	40(%rbp), %rdx
	movq	%r8, %r9
	movq	%rcx, %r8
/APP
 # 1324 "../autogenerated_inline_func.h" 1
	addb	$-1, %al
	movq	(%r9), %rcx
	adcxq	(%r8), %rcx
	movq	%rcx, (%rdx)
	movq	8(%r9), %rcx
	adcxq	8(%r8), %rcx
	movq	%rcx, 8(%rdx)
	movq	16(%r9), %rcx
	adcxq	16(%r8), %rcx
	movq	%rcx, 16(%rdx)
	movq	24(%r9), %rcx
	adcxq	24(%r8), %rcx
	movq	%rcx, 24(%rdx)
	movq	32(%r9), %rcx
	adcxq	32(%r8), %rcx
	movq	%rcx, 32(%rdx)
	movq	40(%r9), %rcx
	adcxq	40(%r8), %rcx
	movq	%rcx, 40(%rdx)
	movq	48(%r9), %rcx
	adcxq	48(%r8), %rcx
	movq	%rcx, 48(%rdx)
	movq	56(%r9), %rcx
	adcxq	56(%r8), %rcx
	movq	%rcx, 56(%rdx)
	movq	64(%r9), %rcx
	adcxq	64(%r8), %rcx
	movq	%rcx, 64(%rdx)
	movq	72(%r9), %rcx
	adcxq	72(%r8), %rcx
	movq	%rcx, 72(%rdx)
	movq	80(%r9), %rcx
	adcxq	80(%r8), %rcx
	movq	%rcx, 80(%rdx)
	movq	88(%r9), %rcx
	adcxq	88(%r8), %rcx
	movq	%rcx, 88(%rdx)
	movq	96(%r9), %rcx
	adcxq	96(%r8), %rcx
	movq	%rcx, 96(%rdx)
	movq	104(%r9), %rcx
	adcxq	104(%r8), %rcx
	movq	%rcx, 104(%rdx)
	movq	112(%r9), %rcx
	adcxq	112(%r8), %rcx
	movq	%rcx, 112(%rdx)
	movq	120(%r9), %rcx
	adcxq	120(%r8), %rcx
	movq	%rcx, 120(%rdx)
	setc	%al
 # 0 "" 2
/NO_APP
	movb	%al, 16(%rbp)
	movq	%r9, 24(%rbp)
	movq	%r8, 32(%rbp)
	movq	%rdx, 40(%rbp)
	.loc 7 1331 14
	movzbl	16(%rbp), %eax
	.loc 7 1332 1
	popq	%rbp
	.cfi_restore 6
	.cfi_def_cfa 7, 8
	ret
	.cfi_endproc
.LFE5057:
	.seh_endproc
	.def	_ADD_8WORDS_ADC;	.scl	3;	.type	32;	.endef
	.seh_proc	_ADD_8WORDS_ADC
_ADD_8WORDS_ADC:
.LFB5060:
	.loc 7 1617 1
	.cfi_startproc
	pushq	%rbp
	.seh_pushreg	%rbp
	.cfi_def_cfa_offset 16
	.cfi_offset 6, -16
	movq	%rsp, %rbp
	.seh_setframe	%rbp, 0
	.cfi_def_cfa_register 6
	.seh_endprologue
	movl	%ecx, %eax
	movq	%rdx, 24(%rbp)
	movq	%r8, 32(%rbp)
	movq	%r9, 40(%rbp)
	movb	%al, 16(%rbp)
	.loc 7 1691 2
	movzbl	16(%rbp), %eax
	movq	24(%rbp), %r8
	movq	32(%rbp), %rcx
	movq	40(%rbp), %rdx
	movq	%r8, %r9
	movq	%rcx, %r8
/APP
 # 1691 "../autogenerated_inline_func.h" 1
	addb	$-1, %al
	movq	(%r9), %rcx
	adcq	(%r8), %rcx
	movq	%rcx, (%rdx)
	movq	8(%r9), %rcx
	adcq	8(%r8), %rcx
	movq	%rcx, 8(%rdx)
	movq	16(%r9), %rcx
	adcq	16(%r8), %rcx
	movq	%rcx, 16(%rdx)
	movq	24(%r9), %rcx
	adcq	24(%r8), %rcx
	movq	%rcx, 24(%rdx)
	movq	32(%r9), %rcx
	adcq	32(%r8), %rcx
	movq	%rcx, 32(%rdx)
	movq	40(%r9), %rcx
	adcq	40(%r8), %rcx
	movq	%rcx, 40(%rdx)
	movq	48(%r9), %rcx
	adcq	48(%r8), %rcx
	movq	%rcx, 48(%rdx)
	movq	56(%r9), %rcx
	adcq	56(%r8), %rcx
	movq	%rcx, 56(%rdx)
	setc	%al
 # 0 "" 2
/NO_APP
	movb	%al, 16(%rbp)
	movq	%r9, 24(%rbp)
	movq	%r8, 32(%rbp)
	movq	%rdx, 40(%rbp)
	.loc 7 1698 14
	movzbl	16(%rbp), %eax
	.loc 7 1699 1
	popq	%rbp
	.cfi_restore 6
	.cfi_def_cfa 7, 8
	ret
	.cfi_endproc
.LFE5060:
	.seh_endproc
	.def	_ADD_8WORDS_ADCX;	.scl	3;	.type	32;	.endef
	.seh_proc	_ADD_8WORDS_ADCX
_ADD_8WORDS_ADCX:
.LFB5061:
	.loc 7 1702 1
	.cfi_startproc
	pushq	%rbp
	.seh_pushreg	%rbp
	.cfi_def_cfa_offset 16
	.cfi_offset 6, -16
	movq	%rsp, %rbp
	.seh_setframe	%rbp, 0
	.cfi_def_cfa_register 6
	.seh_endprologue
	movl	%ecx, %eax
	movq	%rdx, 24(%rbp)
	movq	%r8, 32(%rbp)
	movq	%r9, 40(%rbp)
	movb	%al, 16(%rbp)
	.loc 7 1776 2
	movzbl	16(%rbp), %eax
	movq	24(%rbp), %r8
	movq	32(%rbp), %rcx
	movq	40(%rbp), %rdx
	movq	%r8, %r9
	movq	%rcx, %r8
/APP
 # 1776 "../autogenerated_inline_func.h" 1
	addb	$-1, %al
	movq	(%r9), %rcx
	adcxq	(%r8), %rcx
	movq	%rcx, (%rdx)
	movq	8(%r9), %rcx
	adcxq	8(%r8), %rcx
	movq	%rcx, 8(%rdx)
	movq	16(%r9), %rcx
	adcxq	16(%r8), %rcx
	movq	%rcx, 16(%rdx)
	movq	24(%r9), %rcx
	adcxq	24(%r8), %rcx
	movq	%rcx, 24(%rdx)
	movq	32(%r9), %rcx
	adcxq	32(%r8), %rcx
	movq	%rcx, 32(%rdx)
	movq	40(%r9), %rcx
	adcxq	40(%r8), %rcx
	movq	%rcx, 40(%rdx)
	movq	48(%r9), %rcx
	adcxq	48(%r8), %rcx
	movq	%rcx, 48(%rdx)
	movq	56(%r9), %rcx
	adcxq	56(%r8), %rcx
	movq	%rcx, 56(%rdx)
	setc	%al
 # 0 "" 2
/NO_APP
	movb	%al, 16(%rbp)
	movq	%r9, 24(%rbp)
	movq	%r8, 32(%rbp)
	movq	%rdx, 40(%rbp)
	.loc 7 1783 14
	movzbl	16(%rbp), %eax
	.loc 7 1784 1
	popq	%rbp
	.cfi_restore 6
	.cfi_def_cfa 7, 8
	ret
	.cfi_endproc
.LFE5061:
	.seh_endproc
	.def	_ADD_4WORDS_ADC;	.scl	3;	.type	32;	.endef
	.seh_proc	_ADD_4WORDS_ADC
_ADD_4WORDS_ADC:
.LFB5064:
	.loc 7 1957 1
	.cfi_startproc
	pushq	%rbp
	.seh_pushreg	%rbp
	.cfi_def_cfa_offset 16
	.cfi_offset 6, -16
	movq	%rsp, %rbp
	.seh_setframe	%rbp, 0
	.cfi_def_cfa_register 6
	.seh_endprologue
	movl	%ecx, %eax
	movq	%rdx, 24(%rbp)
	movq	%r8, 32(%rbp)
	movq	%r9, 40(%rbp)
	movb	%al, 16(%rbp)
	.loc 7 2003 2
	movzbl	16(%rbp), %eax
	movq	24(%rbp), %r8
	movq	32(%rbp), %rcx
	movq	40(%rbp), %rdx
	movq	%r8, %r9
	movq	%rcx, %r8
/APP
 # 2003 "../autogenerated_inline_func.h" 1
	addb	$-1, %al
	movq	(%r9), %rcx
	adcq	(%r8), %rcx
	movq	%rcx, (%rdx)
	movq	8(%r9), %rcx
	adcq	8(%r8), %rcx
	movq	%rcx, 8(%rdx)
	movq	16(%r9), %rcx
	adcq	16(%r8), %rcx
	movq	%rcx, 16(%rdx)
	movq	24(%r9), %rcx
	adcq	24(%r8), %rcx
	movq	%rcx, 24(%rdx)
	setc	%al
 # 0 "" 2
/NO_APP
	movb	%al, 16(%rbp)
	movq	%r9, 24(%rbp)
	movq	%r8, 32(%rbp)
	movq	%rdx, 40(%rbp)
	.loc 7 2010 14
	movzbl	16(%rbp), %eax
	.loc 7 2011 1
	popq	%rbp
	.cfi_restore 6
	.cfi_def_cfa 7, 8
	ret
	.cfi_endproc
.LFE5064:
	.seh_endproc
	.def	_ADD_4WORDS_ADCX;	.scl	3;	.type	32;	.endef
	.seh_proc	_ADD_4WORDS_ADCX
_ADD_4WORDS_ADCX:
.LFB5065:
	.loc 7 2014 1
	.cfi_startproc
	pushq	%rbp
	.seh_pushreg	%rbp
	.cfi_def_cfa_offset 16
	.cfi_offset 6, -16
	movq	%rsp, %rbp
	.seh_setframe	%rbp, 0
	.cfi_def_cfa_register 6
	.seh_endprologue
	movl	%ecx, %eax
	movq	%rdx, 24(%rbp)
	movq	%r8, 32(%rbp)
	movq	%r9, 40(%rbp)
	movb	%al, 16(%rbp)
	.loc 7 2060 2
	movzbl	16(%rbp), %eax
	movq	24(%rbp), %r8
	movq	32(%rbp), %rcx
	movq	40(%rbp), %rdx
	movq	%r8, %r9
	movq	%rcx, %r8
/APP
 # 2060 "../autogenerated_inline_func.h" 1
	addb	$-1, %al
	movq	(%r9), %rcx
	adcxq	(%r8), %rcx
	movq	%rcx, (%rdx)
	movq	8(%r9), %rcx
	adcxq	8(%r8), %rcx
	movq	%rcx, 8(%rdx)
	movq	16(%r9), %rcx
	adcxq	16(%r8), %rcx
	movq	%rcx, 16(%rdx)
	movq	24(%r9), %rcx
	adcxq	24(%r8), %rcx
	movq	%rcx, 24(%rdx)
	setc	%al
 # 0 "" 2
/NO_APP
	movb	%al, 16(%rbp)
	movq	%r9, 24(%rbp)
	movq	%r8, 32(%rbp)
	movq	%rdx, 40(%rbp)
	.loc 7 2067 14
	movzbl	16(%rbp), %eax
	.loc 7 2068 1
	popq	%rbp
	.cfi_restore 6
	.cfi_def_cfa 7, 8
	ret
	.cfi_endproc
.LFE5065:
	.seh_endproc
	.def	_ADD_2WORDS_ADC;	.scl	3;	.type	32;	.endef
	.seh_proc	_ADD_2WORDS_ADC
_ADD_2WORDS_ADC:
.LFB5068:
	.loc 7 2185 1
	.cfi_startproc
	pushq	%rbp
	.seh_pushreg	%rbp
	.cfi_def_cfa_offset 16
	.cfi_offset 6, -16
	movq	%rsp, %rbp
	.seh_setframe	%rbp, 0
	.cfi_def_cfa_register 6
	.seh_endprologue
	movl	%ecx, %eax
	movq	%rdx, 24(%rbp)
	movq	%r8, 32(%rbp)
	movq	%r9, 40(%rbp)
	movb	%al, 16(%rbp)
	.loc 7 2217 2
	movzbl	16(%rbp), %eax
	movq	24(%rbp), %r8
	movq	32(%rbp), %rcx
	movq	40(%rbp), %rdx
	movq	%r8, %r9
	movq	%rcx, %r8
/APP
 # 2217 "../autogenerated_inline_func.h" 1
	addb	$-1, %al
	movq	(%r9), %rcx
	adcq	(%r8), %rcx
	movq	%rcx, (%rdx)
	movq	8(%r9), %rcx
	adcq	8(%r8), %rcx
	movq	%rcx, 8(%rdx)
	setc	%al
 # 0 "" 2
/NO_APP
	movb	%al, 16(%rbp)
	movq	%r9, 24(%rbp)
	movq	%r8, 32(%rbp)
	movq	%rdx, 40(%rbp)
	.loc 7 2224 14
	movzbl	16(%rbp), %eax
	.loc 7 2225 1
	popq	%rbp
	.cfi_restore 6
	.cfi_def_cfa 7, 8
	ret
	.cfi_endproc
.LFE5068:
	.seh_endproc
	.def	_ADD_2WORDS_ADCX;	.scl	3;	.type	32;	.endef
	.seh_proc	_ADD_2WORDS_ADCX
_ADD_2WORDS_ADCX:
.LFB5069:
	.loc 7 2228 1
	.cfi_startproc
	pushq	%rbp
	.seh_pushreg	%rbp
	.cfi_def_cfa_offset 16
	.cfi_offset 6, -16
	movq	%rsp, %rbp
	.seh_setframe	%rbp, 0
	.cfi_def_cfa_register 6
	.seh_endprologue
	movl	%ecx, %eax
	movq	%rdx, 24(%rbp)
	movq	%r8, 32(%rbp)
	movq	%r9, 40(%rbp)
	movb	%al, 16(%rbp)
	.loc 7 2260 2
	movzbl	16(%rbp), %eax
	movq	24(%rbp), %r8
	movq	32(%rbp), %rcx
	movq	40(%rbp), %rdx
	movq	%r8, %r9
	movq	%rcx, %r8
/APP
 # 2260 "../autogenerated_inline_func.h" 1
	addb	$-1, %al
	movq	(%r9), %rcx
	adcxq	(%r8), %rcx
	movq	%rcx, (%rdx)
	movq	8(%r9), %rcx
	adcxq	8(%r8), %rcx
	movq	%rcx, 8(%rdx)
	setc	%al
 # 0 "" 2
/NO_APP
	movb	%al, 16(%rbp)
	movq	%r9, 24(%rbp)
	movq	%r8, 32(%rbp)
	movq	%rdx, 40(%rbp)
	.loc 7 2267 14
	movzbl	16(%rbp), %eax
	.loc 7 2268 1
	popq	%rbp
	.cfi_restore 6
	.cfi_def_cfa 7, 8
	ret
	.cfi_endproc
.LFE5069:
	.seh_endproc
.lcomm _ZN8Palmtree4Math4Core8InternalL13fp_DivRem_X_XE,8,8
	.globl	_ZN8Palmtree4Math4Core8Internal10DivRem_X_XEPyyS3_yS3_S3_S3_
	.def	_ZN8Palmtree4Math4Core8Internal10DivRem_X_XEPyyS3_yS3_S3_S3_;	.scl	2;	.type	32;	.endef
	.seh_proc	_ZN8Palmtree4Math4Core8Internal10DivRem_X_XEPyyS3_yS3_S3_S3_
_ZN8Palmtree4Math4Core8Internal10DivRem_X_XEPyyS3_yS3_S3_S3_:
.LFB5072:
	.file 8 "../pmc_divrem.cpp"
	.loc 8 352 5
	.cfi_startproc
	pushq	%rbp
	.seh_pushreg	%rbp
	.cfi_def_cfa_offset 16
	.cfi_offset 6, -16
	movq	%rsp, %rbp
	.seh_setframe	%rbp, 0
	.cfi_def_cfa_register 6
	addq	$-128, %rsp
	.seh_stackalloc	128
	.seh_endprologue
	movq	%rcx, 16(%rbp)
	movq	%rdx, 24(%rbp)
	movq	%r8, 32(%rbp)
	movq	%r9, 40(%rbp)
	.loc 8 353 22
	movq	16(%rbp), %rax
	movq	%rax, -8(%rbp)
	.loc 8 354 21
	movq	24(%rbp), %rax
	movq	%rax, -16(%rbp)
	.loc 8 355 22
	movq	32(%rbp), %rax
	movq	%rax, -24(%rbp)
	.loc 8 356 21
	movq	40(%rbp), %rax
	movq	%rax, -32(%rbp)
.LBB51:
	.loc 8 357 9
	cmpq	$1, -32(%rbp)
	jne	.L70
.LBB52:
.LBB53:
	.loc 8 359 13
	cmpq	$1, -16(%rbp)
	jne	.L71
.LBB54:
	.loc 8 362 45
	movq	-24(%rbp), %rax
	movq	(%rax), %rcx
	movq	-8(%rbp), %rax
	movq	(%rax), %rax
	leaq	-48(%rbp), %rdx
	movq	%rdx, %r9
	movq	%rcx, %r8
	movq	%rax, %rdx
	movl	$0, %ecx
	call	_DIVREM_UNIT
	movq	%rax, -40(%rbp)
	.loc 8 363 17
	cmpq	$0, 56(%rbp)
	je	.L72
	.loc 8 364 30
	movq	56(%rbp), %rax
	movq	-40(%rbp), %rdx
	movq	%rdx, (%rax)
.L72:
	.loc 8 365 26
	movq	-48(%rbp), %rdx
	movq	64(%rbp), %rax
	movq	%rdx, (%rax)
	.loc 8 368 42
	call	_ZN8Palmtree4Math4Core8InternalL21IncrementDIV64CounterEv
.LBE54:
.LBE53:
.LBE52:
.LBE51:
	.loc 8 396 5
	jmp	.L78
.L71:
.LBB64:
.LBB62:
.LBB60:
.LBB55:
.LBB56:
	.loc 8 375 17
	cmpq	$0, 56(%rbp)
	je	.L74
.LBB57:
	.loc 8 378 32
	movq	-24(%rbp), %rax
	movq	(%rax), %r8
	movq	56(%rbp), %r9
	movq	-16(%rbp), %rdx
	movq	-8(%rbp), %rcx
	leaq	-56(%rbp), %rax
	movq	%rax, 32(%rsp)
	call	_ZN8Palmtree4Math4Core8Internal11DivRem_X_1WEPyyyS3_S3_
	.loc 8 379 30
	movq	-56(%rbp), %rdx
	movq	64(%rbp), %rax
	movq	%rdx, (%rax)
.LBE57:
.LBE56:
.LBE55:
.LBE60:
.LBE62:
.LBE64:
	.loc 8 396 5
	jmp	.L78
.L74:
.LBB65:
.LBB63:
.LBB61:
.LBB59:
.LBB58:
	.loc 8 382 40
	movq	-24(%rbp), %rax
	movq	(%rax), %rcx
	movq	-16(%rbp), %rdx
	movq	-8(%rbp), %rax
	movq	%rcx, %r8
	movq	%rax, %rcx
	call	_ZN8Palmtree4Math4Core8Internal8Rem_X_1WEPyyy
	movq	%rax, %rdx
	.loc 8 382 30
	movq	64(%rbp), %rax
	movq	%rdx, (%rax)
.LBE58:
.LBE59:
.LBE61:
.LBE63:
.LBE65:
	.loc 8 396 5
	jmp	.L78
.L70:
.LBB66:
	.loc 8 387 13
	movq	-16(%rbp), %rax
	cmpq	-32(%rbp), %rax
	jnb	.L76
	.loc 8 389 17
	cmpq	$0, 56(%rbp)
	je	.L77
	.loc 8 390 30
	movq	56(%rbp), %rax
	movq	$0, (%rax)
.L77:
	.loc 8 391 34
	movq	24(%rbp), %rdx
	movq	64(%rbp), %rax
	movq	%rdx, %r8
	movq	16(%rbp), %rdx
	movq	%rax, %rcx
	call	_COPY_MEMORY_UNIT
.LBE66:
	.loc 8 396 5
	jmp	.L78
.L76:
.LBB67:
	.loc 8 394 33
	movq	_ZN8Palmtree4Math4Core8InternalL13fp_DivRem_X_XE(%rip), %rax
	movq	-32(%rbp), %r9
	movq	-24(%rbp), %r10
	movq	-16(%rbp), %rdx
	movq	-8(%rbp), %rcx
	movq	64(%rbp), %r8
	movq	%r8, 48(%rsp)
	movq	56(%rbp), %r8
	movq	%r8, 40(%rsp)
	movq	48(%rbp), %r8
	movq	%r8, 32(%rsp)
	movq	%r10, %r8
	call	*%rax
.LVL0:
.L78:
.LBE67:
	.loc 8 396 5
	nop
	subq	$-128, %rsp
	popq	%rbp
	.cfi_restore 6
	.cfi_def_cfa 7, 8
	ret
	.cfi_endproc
.LFE5072:
	.seh_endproc
	.globl	_ZN8Palmtree4Math4Core8Internal8Rem_X_1WEPyyy
	.def	_ZN8Palmtree4Math4Core8Internal8Rem_X_1WEPyyy;	.scl	2;	.type	32;	.endef
	.seh_proc	_ZN8Palmtree4Math4Core8Internal8Rem_X_1WEPyyy
_ZN8Palmtree4Math4Core8Internal8Rem_X_1WEPyyy:
.LFB5073:
	.loc 8 399 5
	.cfi_startproc
	pushq	%rbp
	.seh_pushreg	%rbp
	.cfi_def_cfa_offset 16
	.cfi_offset 6, -16
	movq	%rsp, %rbp
	.seh_setframe	%rbp, 0
	.cfi_def_cfa_register 6
	subq	$80, %rsp
	.seh_stackalloc	80
	.seh_endprologue
	movq	%rcx, 16(%rbp)
	movq	%rdx, 24(%rbp)
	movq	%r8, 32(%rbp)
	.loc 8 401 33
	movq	24(%rbp), %rax
	salq	$3, %rax
	.loc 8 401 45
	leaq	-8(%rax), %rdx
	.loc 8 401 22
	movq	16(%rbp), %rax
	addq	%rdx, %rax
	movq	%rax, -8(%rbp)
	.loc 8 402 21
	movq	24(%rbp), %rax
	movq	%rax, -24(%rbp)
	.loc 8 404 21
	movq	$0, -40(%rbp)
	.loc 8 405 21
	movq	-24(%rbp), %rax
	shrq	$5, %rax
	movq	%rax, -16(%rbp)
.L81:
	.loc 8 406 22
	cmpq	$0, -16(%rbp)
	je	.L80
	.loc 8 408 36
	movq	-8(%rbp), %rax
	movq	(%rax), %rdx
	movq	-40(%rbp), %rax
	leaq	-32(%rbp), %rcx
	movq	32(%rbp), %r8
	movq	%rcx, %r9
	movq	%rax, %rcx
	call	_DIVREM_SINGLE_UNIT
	.loc 8 408 15
	movq	%rax, -40(%rbp)
	.loc 8 409 45
	movq	-8(%rbp), %rax
	subq	$8, %rax
	.loc 8 409 36
	movq	(%rax), %rdx
	movq	-40(%rbp), %rax
	leaq	-32(%rbp), %rcx
	movq	32(%rbp), %r8
	movq	%rcx, %r9
	movq	%rax, %rcx
	call	_DIVREM_SINGLE_UNIT
	.loc 8 409 15
	movq	%rax, -40(%rbp)
	.loc 8 410 45
	movq	-8(%rbp), %rax
	subq	$16, %rax
	.loc 8 410 36
	movq	(%rax), %rdx
	movq	-40(%rbp), %rax
	leaq	-32(%rbp), %rcx
	movq	32(%rbp), %r8
	movq	%rcx, %r9
	movq	%rax, %rcx
	call	_DIVREM_SINGLE_UNIT
	.loc 8 410 15
	movq	%rax, -40(%rbp)
	.loc 8 411 45
	movq	-8(%rbp), %rax
	subq	$24, %rax
	.loc 8 411 36
	movq	(%rax), %rdx
	movq	-40(%rbp), %rax
	leaq	-32(%rbp), %rcx
	movq	32(%rbp), %r8
	movq	%rcx, %r9
	movq	%rax, %rcx
	call	_DIVREM_SINGLE_UNIT
	.loc 8 411 15
	movq	%rax, -40(%rbp)
	.loc 8 412 45
	movq	-8(%rbp), %rax
	subq	$32, %rax
	.loc 8 412 36
	movq	(%rax), %rdx
	movq	-40(%rbp), %rax
	leaq	-32(%rbp), %rcx
	movq	32(%rbp), %r8
	movq	%rcx, %r9
	movq	%rax, %rcx
	call	_DIVREM_SINGLE_UNIT
	.loc 8 412 15
	movq	%rax, -40(%rbp)
	.loc 8 413 45
	movq	-8(%rbp), %rax
	subq	$40, %rax
	.loc 8 413 36
	movq	(%rax), %rdx
	movq	-40(%rbp), %rax
	leaq	-32(%rbp), %rcx
	movq	32(%rbp), %r8
	movq	%rcx, %r9
	movq	%rax, %rcx
	call	_DIVREM_SINGLE_UNIT
	.loc 8 413 15
	movq	%rax, -40(%rbp)
	.loc 8 414 45
	movq	-8(%rbp), %rax
	subq	$48, %rax
	.loc 8 414 36
	movq	(%rax), %rdx
	movq	-40(%rbp), %rax
	leaq	-32(%rbp), %rcx
	movq	32(%rbp), %r8
	movq	%rcx, %r9
	movq	%rax, %rcx
	call	_DIVREM_SINGLE_UNIT
	.loc 8 414 15
	movq	%rax, -40(%rbp)
	.loc 8 415 45
	movq	-8(%rbp), %rax
	subq	$56, %rax
	.loc 8 415 36
	movq	(%rax), %rdx
	movq	-40(%rbp), %rax
	leaq	-32(%rbp), %rcx
	movq	32(%rbp), %r8
	movq	%rcx, %r9
	movq	%rax, %rcx
	call	_DIVREM_SINGLE_UNIT
	.loc 8 415 15
	movq	%rax, -40(%rbp)
	.loc 8 416 45
	movq	-8(%rbp), %rax
	subq	$64, %rax
	.loc 8 416 36
	movq	(%rax), %rdx
	movq	-40(%rbp), %rax
	leaq	-32(%rbp), %rcx
	movq	32(%rbp), %r8
	movq	%rcx, %r9
	movq	%rax, %rcx
	call	_DIVREM_SINGLE_UNIT
	.loc 8 416 15
	movq	%rax, -40(%rbp)
	.loc 8 417 45
	movq	-8(%rbp), %rax
	subq	$72, %rax
	.loc 8 417 36
	movq	(%rax), %rdx
	movq	-40(%rbp), %rax
	leaq	-32(%rbp), %rcx
	movq	32(%rbp), %r8
	movq	%rcx, %r9
	movq	%rax, %rcx
	call	_DIVREM_SINGLE_UNIT
	.loc 8 417 15
	movq	%rax, -40(%rbp)
	.loc 8 418 46
	movq	-8(%rbp), %rax
	subq	$80, %rax
	.loc 8 418 36
	movq	(%rax), %rdx
	movq	-40(%rbp), %rax
	leaq	-32(%rbp), %rcx
	movq	32(%rbp), %r8
	movq	%rcx, %r9
	movq	%rax, %rcx
	call	_DIVREM_SINGLE_UNIT
	.loc 8 418 15
	movq	%rax, -40(%rbp)
	.loc 8 419 46
	movq	-8(%rbp), %rax
	subq	$88, %rax
	.loc 8 419 36
	movq	(%rax), %rdx
	movq	-40(%rbp), %rax
	leaq	-32(%rbp), %rcx
	movq	32(%rbp), %r8
	movq	%rcx, %r9
	movq	%rax, %rcx
	call	_DIVREM_SINGLE_UNIT
	.loc 8 419 15
	movq	%rax, -40(%rbp)
	.loc 8 420 46
	movq	-8(%rbp), %rax
	subq	$96, %rax
	.loc 8 420 36
	movq	(%rax), %rdx
	movq	-40(%rbp), %rax
	leaq	-32(%rbp), %rcx
	movq	32(%rbp), %r8
	movq	%rcx, %r9
	movq	%rax, %rcx
	call	_DIVREM_SINGLE_UNIT
	.loc 8 420 15
	movq	%rax, -40(%rbp)
	.loc 8 421 46
	movq	-8(%rbp), %rax
	subq	$104, %rax
	.loc 8 421 36
	movq	(%rax), %rdx
	movq	-40(%rbp), %rax
	leaq	-32(%rbp), %rcx
	movq	32(%rbp), %r8
	movq	%rcx, %r9
	movq	%rax, %rcx
	call	_DIVREM_SINGLE_UNIT
	.loc 8 421 15
	movq	%rax, -40(%rbp)
	.loc 8 422 46
	movq	-8(%rbp), %rax
	subq	$112, %rax
	.loc 8 422 36
	movq	(%rax), %rdx
	movq	-40(%rbp), %rax
	leaq	-32(%rbp), %rcx
	movq	32(%rbp), %r8
	movq	%rcx, %r9
	movq	%rax, %rcx
	call	_DIVREM_SINGLE_UNIT
	.loc 8 422 15
	movq	%rax, -40(%rbp)
	.loc 8 423 46
	movq	-8(%rbp), %rax
	subq	$120, %rax
	.loc 8 423 36
	movq	(%rax), %rdx
	movq	-40(%rbp), %rax
	leaq	-32(%rbp), %rcx
	movq	32(%rbp), %r8
	movq	%rcx, %r9
	movq	%rax, %rcx
	call	_DIVREM_SINGLE_UNIT
	.loc 8 423 15
	movq	%rax, -40(%rbp)
	.loc 8 424 46
	movq	-8(%rbp), %rax
	addq	$-128, %rax
	.loc 8 424 36
	movq	(%rax), %rdx
	movq	-40(%rbp), %rax
	leaq	-32(%rbp), %rcx
	movq	32(%rbp), %r8
	movq	%rcx, %r9
	movq	%rax, %rcx
	call	_DIVREM_SINGLE_UNIT
	.loc 8 424 15
	movq	%rax, -40(%rbp)
	.loc 8 425 46
	movq	-8(%rbp), %rax
	subq	$136, %rax
	.loc 8 425 36
	movq	(%rax), %rdx
	movq	-40(%rbp), %rax
	leaq	-32(%rbp), %rcx
	movq	32(%rbp), %r8
	movq	%rcx, %r9
	movq	%rax, %rcx
	call	_DIVREM_SINGLE_UNIT
	.loc 8 425 15
	movq	%rax, -40(%rbp)
	.loc 8 426 46
	movq	-8(%rbp), %rax
	subq	$144, %rax
	.loc 8 426 36
	movq	(%rax), %rdx
	movq	-40(%rbp), %rax
	leaq	-32(%rbp), %rcx
	movq	32(%rbp), %r8
	movq	%rcx, %r9
	movq	%rax, %rcx
	call	_DIVREM_SINGLE_UNIT
	.loc 8 426 15
	movq	%rax, -40(%rbp)
	.loc 8 427 46
	movq	-8(%rbp), %rax
	subq	$152, %rax
	.loc 8 427 36
	movq	(%rax), %rdx
	movq	-40(%rbp), %rax
	leaq	-32(%rbp), %rcx
	movq	32(%rbp), %r8
	movq	%rcx, %r9
	movq	%rax, %rcx
	call	_DIVREM_SINGLE_UNIT
	.loc 8 427 15
	movq	%rax, -40(%rbp)
	.loc 8 428 46
	movq	-8(%rbp), %rax
	subq	$160, %rax
	.loc 8 428 36
	movq	(%rax), %rdx
	movq	-40(%rbp), %rax
	leaq	-32(%rbp), %rcx
	movq	32(%rbp), %r8
	movq	%rcx, %r9
	movq	%rax, %rcx
	call	_DIVREM_SINGLE_UNIT
	.loc 8 428 15
	movq	%rax, -40(%rbp)
	.loc 8 429 46
	movq	-8(%rbp), %rax
	subq	$168, %rax
	.loc 8 429 36
	movq	(%rax), %rdx
	movq	-40(%rbp), %rax
	leaq	-32(%rbp), %rcx
	movq	32(%rbp), %r8
	movq	%rcx, %r9
	movq	%rax, %rcx
	call	_DIVREM_SINGLE_UNIT
	.loc 8 429 15
	movq	%rax, -40(%rbp)
	.loc 8 430 46
	movq	-8(%rbp), %rax
	subq	$176, %rax
	.loc 8 430 36
	movq	(%rax), %rdx
	movq	-40(%rbp), %rax
	leaq	-32(%rbp), %rcx
	movq	32(%rbp), %r8
	movq	%rcx, %r9
	movq	%rax, %rcx
	call	_DIVREM_SINGLE_UNIT
	.loc 8 430 15
	movq	%rax, -40(%rbp)
	.loc 8 431 46
	movq	-8(%rbp), %rax
	subq	$184, %rax
	.loc 8 431 36
	movq	(%rax), %rdx
	movq	-40(%rbp), %rax
	leaq	-32(%rbp), %rcx
	movq	32(%rbp), %r8
	movq	%rcx, %r9
	movq	%rax, %rcx
	call	_DIVREM_SINGLE_UNIT
	.loc 8 431 15
	movq	%rax, -40(%rbp)
	.loc 8 432 46
	movq	-8(%rbp), %rax
	subq	$192, %rax
	.loc 8 432 36
	movq	(%rax), %rdx
	movq	-40(%rbp), %rax
	leaq	-32(%rbp), %rcx
	movq	32(%rbp), %r8
	movq	%rcx, %r9
	movq	%rax, %rcx
	call	_DIVREM_SINGLE_UNIT
	.loc 8 432 15
	movq	%rax, -40(%rbp)
	.loc 8 433 46
	movq	-8(%rbp), %rax
	subq	$200, %rax
	.loc 8 433 36
	movq	(%rax), %rdx
	movq	-40(%rbp), %rax
	leaq	-32(%rbp), %rcx
	movq	32(%rbp), %r8
	movq	%rcx, %r9
	movq	%rax, %rcx
	call	_DIVREM_SINGLE_UNIT
	.loc 8 433 15
	movq	%rax, -40(%rbp)
	.loc 8 434 46
	movq	-8(%rbp), %rax
	subq	$208, %rax
	.loc 8 434 36
	movq	(%rax), %rdx
	movq	-40(%rbp), %rax
	leaq	-32(%rbp), %rcx
	movq	32(%rbp), %r8
	movq	%rcx, %r9
	movq	%rax, %rcx
	call	_DIVREM_SINGLE_UNIT
	.loc 8 434 15
	movq	%rax, -40(%rbp)
	.loc 8 435 46
	movq	-8(%rbp), %rax
	subq	$216, %rax
	.loc 8 435 36
	movq	(%rax), %rdx
	movq	-40(%rbp), %rax
	leaq	-32(%rbp), %rcx
	movq	32(%rbp), %r8
	movq	%rcx, %r9
	movq	%rax, %rcx
	call	_DIVREM_SINGLE_UNIT
	.loc 8 435 15
	movq	%rax, -40(%rbp)
	.loc 8 436 46
	movq	-8(%rbp), %rax
	subq	$224, %rax
	.loc 8 436 36
	movq	(%rax), %rdx
	movq	-40(%rbp), %rax
	leaq	-32(%rbp), %rcx
	movq	32(%rbp), %r8
	movq	%rcx, %r9
	movq	%rax, %rcx
	call	_DIVREM_SINGLE_UNIT
	.loc 8 436 15
	movq	%rax, -40(%rbp)
	.loc 8 437 46
	movq	-8(%rbp), %rax
	subq	$232, %rax
	.loc 8 437 36
	movq	(%rax), %rdx
	movq	-40(%rbp), %rax
	leaq	-32(%rbp), %rcx
	movq	32(%rbp), %r8
	movq	%rcx, %r9
	movq	%rax, %rcx
	call	_DIVREM_SINGLE_UNIT
	.loc 8 437 15
	movq	%rax, -40(%rbp)
	.loc 8 438 46
	movq	-8(%rbp), %rax
	subq	$240, %rax
	.loc 8 438 36
	movq	(%rax), %rdx
	movq	-40(%rbp), %rax
	leaq	-32(%rbp), %rcx
	movq	32(%rbp), %r8
	movq	%rcx, %r9
	movq	%rax, %rcx
	call	_DIVREM_SINGLE_UNIT
	.loc 8 438 15
	movq	%rax, -40(%rbp)
	.loc 8 439 46
	movq	-8(%rbp), %rax
	subq	$248, %rax
	.loc 8 439 36
	movq	(%rax), %rdx
	movq	-40(%rbp), %rax
	leaq	-32(%rbp), %rcx
	movq	32(%rbp), %r8
	movq	%rcx, %r9
	movq	%rax, %rcx
	call	_DIVREM_SINGLE_UNIT
	.loc 8 439 15
	movq	%rax, -40(%rbp)
	.loc 8 440 16
	subq	$256, -8(%rbp)
	.loc 8 441 13
	subq	$1, -16(%rbp)
	.loc 8 444 34
	movl	$32, %ecx
	call	_ZN8Palmtree4Math4Core8InternalL17AddToDIV64CounterEi
	.loc 8 406 9
	jmp	.L81
.L80:
	.loc 8 450 21
	movq	-24(%rbp), %rax
	andl	$16, %eax
	.loc 8 450 9
	testq	%rax, %rax
	je	.L82
	.loc 8 452 36
	movq	-8(%rbp), %rax
	movq	(%rax), %rdx
	movq	-40(%rbp), %rax
	leaq	-32(%rbp), %rcx
	movq	32(%rbp), %r8
	movq	%rcx, %r9
	movq	%rax, %rcx
	call	_DIVREM_SINGLE_UNIT
	.loc 8 452 15
	movq	%rax, -40(%rbp)
	.loc 8 453 45
	movq	-8(%rbp), %rax
	subq	$8, %rax
	.loc 8 453 36
	movq	(%rax), %rdx
	movq	-40(%rbp), %rax
	leaq	-32(%rbp), %rcx
	movq	32(%rbp), %r8
	movq	%rcx, %r9
	movq	%rax, %rcx
	call	_DIVREM_SINGLE_UNIT
	.loc 8 453 15
	movq	%rax, -40(%rbp)
	.loc 8 454 45
	movq	-8(%rbp), %rax
	subq	$16, %rax
	.loc 8 454 36
	movq	(%rax), %rdx
	movq	-40(%rbp), %rax
	leaq	-32(%rbp), %rcx
	movq	32(%rbp), %r8
	movq	%rcx, %r9
	movq	%rax, %rcx
	call	_DIVREM_SINGLE_UNIT
	.loc 8 454 15
	movq	%rax, -40(%rbp)
	.loc 8 455 45
	movq	-8(%rbp), %rax
	subq	$24, %rax
	.loc 8 455 36
	movq	(%rax), %rdx
	movq	-40(%rbp), %rax
	leaq	-32(%rbp), %rcx
	movq	32(%rbp), %r8
	movq	%rcx, %r9
	movq	%rax, %rcx
	call	_DIVREM_SINGLE_UNIT
	.loc 8 455 15
	movq	%rax, -40(%rbp)
	.loc 8 456 45
	movq	-8(%rbp), %rax
	subq	$32, %rax
	.loc 8 456 36
	movq	(%rax), %rdx
	movq	-40(%rbp), %rax
	leaq	-32(%rbp), %rcx
	movq	32(%rbp), %r8
	movq	%rcx, %r9
	movq	%rax, %rcx
	call	_DIVREM_SINGLE_UNIT
	.loc 8 456 15
	movq	%rax, -40(%rbp)
	.loc 8 457 45
	movq	-8(%rbp), %rax
	subq	$40, %rax
	.loc 8 457 36
	movq	(%rax), %rdx
	movq	-40(%rbp), %rax
	leaq	-32(%rbp), %rcx
	movq	32(%rbp), %r8
	movq	%rcx, %r9
	movq	%rax, %rcx
	call	_DIVREM_SINGLE_UNIT
	.loc 8 457 15
	movq	%rax, -40(%rbp)
	.loc 8 458 45
	movq	-8(%rbp), %rax
	subq	$48, %rax
	.loc 8 458 36
	movq	(%rax), %rdx
	movq	-40(%rbp), %rax
	leaq	-32(%rbp), %rcx
	movq	32(%rbp), %r8
	movq	%rcx, %r9
	movq	%rax, %rcx
	call	_DIVREM_SINGLE_UNIT
	.loc 8 458 15
	movq	%rax, -40(%rbp)
	.loc 8 459 45
	movq	-8(%rbp), %rax
	subq	$56, %rax
	.loc 8 459 36
	movq	(%rax), %rdx
	movq	-40(%rbp), %rax
	leaq	-32(%rbp), %rcx
	movq	32(%rbp), %r8
	movq	%rcx, %r9
	movq	%rax, %rcx
	call	_DIVREM_SINGLE_UNIT
	.loc 8 459 15
	movq	%rax, -40(%rbp)
	.loc 8 460 45
	movq	-8(%rbp), %rax
	subq	$64, %rax
	.loc 8 460 36
	movq	(%rax), %rdx
	movq	-40(%rbp), %rax
	leaq	-32(%rbp), %rcx
	movq	32(%rbp), %r8
	movq	%rcx, %r9
	movq	%rax, %rcx
	call	_DIVREM_SINGLE_UNIT
	.loc 8 460 15
	movq	%rax, -40(%rbp)
	.loc 8 461 45
	movq	-8(%rbp), %rax
	subq	$72, %rax
	.loc 8 461 36
	movq	(%rax), %rdx
	movq	-40(%rbp), %rax
	leaq	-32(%rbp), %rcx
	movq	32(%rbp), %r8
	movq	%rcx, %r9
	movq	%rax, %rcx
	call	_DIVREM_SINGLE_UNIT
	.loc 8 461 15
	movq	%rax, -40(%rbp)
	.loc 8 462 46
	movq	-8(%rbp), %rax
	subq	$80, %rax
	.loc 8 462 36
	movq	(%rax), %rdx
	movq	-40(%rbp), %rax
	leaq	-32(%rbp), %rcx
	movq	32(%rbp), %r8
	movq	%rcx, %r9
	movq	%rax, %rcx
	call	_DIVREM_SINGLE_UNIT
	.loc 8 462 15
	movq	%rax, -40(%rbp)
	.loc 8 463 46
	movq	-8(%rbp), %rax
	subq	$88, %rax
	.loc 8 463 36
	movq	(%rax), %rdx
	movq	-40(%rbp), %rax
	leaq	-32(%rbp), %rcx
	movq	32(%rbp), %r8
	movq	%rcx, %r9
	movq	%rax, %rcx
	call	_DIVREM_SINGLE_UNIT
	.loc 8 463 15
	movq	%rax, -40(%rbp)
	.loc 8 464 46
	movq	-8(%rbp), %rax
	subq	$96, %rax
	.loc 8 464 36
	movq	(%rax), %rdx
	movq	-40(%rbp), %rax
	leaq	-32(%rbp), %rcx
	movq	32(%rbp), %r8
	movq	%rcx, %r9
	movq	%rax, %rcx
	call	_DIVREM_SINGLE_UNIT
	.loc 8 464 15
	movq	%rax, -40(%rbp)
	.loc 8 465 46
	movq	-8(%rbp), %rax
	subq	$104, %rax
	.loc 8 465 36
	movq	(%rax), %rdx
	movq	-40(%rbp), %rax
	leaq	-32(%rbp), %rcx
	movq	32(%rbp), %r8
	movq	%rcx, %r9
	movq	%rax, %rcx
	call	_DIVREM_SINGLE_UNIT
	.loc 8 465 15
	movq	%rax, -40(%rbp)
	.loc 8 466 46
	movq	-8(%rbp), %rax
	subq	$112, %rax
	.loc 8 466 36
	movq	(%rax), %rdx
	movq	-40(%rbp), %rax
	leaq	-32(%rbp), %rcx
	movq	32(%rbp), %r8
	movq	%rcx, %r9
	movq	%rax, %rcx
	call	_DIVREM_SINGLE_UNIT
	.loc 8 466 15
	movq	%rax, -40(%rbp)
	.loc 8 467 46
	movq	-8(%rbp), %rax
	subq	$120, %rax
	.loc 8 467 36
	movq	(%rax), %rdx
	movq	-40(%rbp), %rax
	leaq	-32(%rbp), %rcx
	movq	32(%rbp), %r8
	movq	%rcx, %r9
	movq	%rax, %rcx
	call	_DIVREM_SINGLE_UNIT
	.loc 8 467 15
	movq	%rax, -40(%rbp)
	.loc 8 468 16
	addq	$-128, -8(%rbp)
	.loc 8 471 34
	movl	$16, %ecx
	call	_ZN8Palmtree4Math4Core8InternalL17AddToDIV64CounterEi
.L82:
	.loc 8 477 21
	movq	-24(%rbp), %rax
	andl	$8, %eax
	.loc 8 477 9
	testq	%rax, %rax
	je	.L83
	.loc 8 479 36
	movq	-8(%rbp), %rax
	movq	(%rax), %rdx
	movq	-40(%rbp), %rax
	leaq	-32(%rbp), %rcx
	movq	32(%rbp), %r8
	movq	%rcx, %r9
	movq	%rax, %rcx
	call	_DIVREM_SINGLE_UNIT
	.loc 8 479 15
	movq	%rax, -40(%rbp)
	.loc 8 480 45
	movq	-8(%rbp), %rax
	subq	$8, %rax
	.loc 8 480 36
	movq	(%rax), %rdx
	movq	-40(%rbp), %rax
	leaq	-32(%rbp), %rcx
	movq	32(%rbp), %r8
	movq	%rcx, %r9
	movq	%rax, %rcx
	call	_DIVREM_SINGLE_UNIT
	.loc 8 480 15
	movq	%rax, -40(%rbp)
	.loc 8 481 45
	movq	-8(%rbp), %rax
	subq	$16, %rax
	.loc 8 481 36
	movq	(%rax), %rdx
	movq	-40(%rbp), %rax
	leaq	-32(%rbp), %rcx
	movq	32(%rbp), %r8
	movq	%rcx, %r9
	movq	%rax, %rcx
	call	_DIVREM_SINGLE_UNIT
	.loc 8 481 15
	movq	%rax, -40(%rbp)
	.loc 8 482 45
	movq	-8(%rbp), %rax
	subq	$24, %rax
	.loc 8 482 36
	movq	(%rax), %rdx
	movq	-40(%rbp), %rax
	leaq	-32(%rbp), %rcx
	movq	32(%rbp), %r8
	movq	%rcx, %r9
	movq	%rax, %rcx
	call	_DIVREM_SINGLE_UNIT
	.loc 8 482 15
	movq	%rax, -40(%rbp)
	.loc 8 483 45
	movq	-8(%rbp), %rax
	subq	$32, %rax
	.loc 8 483 36
	movq	(%rax), %rdx
	movq	-40(%rbp), %rax
	leaq	-32(%rbp), %rcx
	movq	32(%rbp), %r8
	movq	%rcx, %r9
	movq	%rax, %rcx
	call	_DIVREM_SINGLE_UNIT
	.loc 8 483 15
	movq	%rax, -40(%rbp)
	.loc 8 484 45
	movq	-8(%rbp), %rax
	subq	$40, %rax
	.loc 8 484 36
	movq	(%rax), %rdx
	movq	-40(%rbp), %rax
	leaq	-32(%rbp), %rcx
	movq	32(%rbp), %r8
	movq	%rcx, %r9
	movq	%rax, %rcx
	call	_DIVREM_SINGLE_UNIT
	.loc 8 484 15
	movq	%rax, -40(%rbp)
	.loc 8 485 45
	movq	-8(%rbp), %rax
	subq	$48, %rax
	.loc 8 485 36
	movq	(%rax), %rdx
	movq	-40(%rbp), %rax
	leaq	-32(%rbp), %rcx
	movq	32(%rbp), %r8
	movq	%rcx, %r9
	movq	%rax, %rcx
	call	_DIVREM_SINGLE_UNIT
	.loc 8 485 15
	movq	%rax, -40(%rbp)
	.loc 8 486 45
	movq	-8(%rbp), %rax
	subq	$56, %rax
	.loc 8 486 36
	movq	(%rax), %rdx
	movq	-40(%rbp), %rax
	leaq	-32(%rbp), %rcx
	movq	32(%rbp), %r8
	movq	%rcx, %r9
	movq	%rax, %rcx
	call	_DIVREM_SINGLE_UNIT
	.loc 8 486 15
	movq	%rax, -40(%rbp)
	.loc 8 487 16
	subq	$64, -8(%rbp)
	.loc 8 490 34
	movl	$8, %ecx
	call	_ZN8Palmtree4Math4Core8InternalL17AddToDIV64CounterEi
.L83:
	.loc 8 496 21
	movq	-24(%rbp), %rax
	andl	$4, %eax
	.loc 8 496 9
	testq	%rax, %rax
	je	.L84
	.loc 8 498 36
	movq	-8(%rbp), %rax
	movq	(%rax), %rdx
	movq	-40(%rbp), %rax
	leaq	-32(%rbp), %rcx
	movq	32(%rbp), %r8
	movq	%rcx, %r9
	movq	%rax, %rcx
	call	_DIVREM_SINGLE_UNIT
	.loc 8 498 15
	movq	%rax, -40(%rbp)
	.loc 8 499 45
	movq	-8(%rbp), %rax
	subq	$8, %rax
	.loc 8 499 36
	movq	(%rax), %rdx
	movq	-40(%rbp), %rax
	leaq	-32(%rbp), %rcx
	movq	32(%rbp), %r8
	movq	%rcx, %r9
	movq	%rax, %rcx
	call	_DIVREM_SINGLE_UNIT
	.loc 8 499 15
	movq	%rax, -40(%rbp)
	.loc 8 500 45
	movq	-8(%rbp), %rax
	subq	$16, %rax
	.loc 8 500 36
	movq	(%rax), %rdx
	movq	-40(%rbp), %rax
	leaq	-32(%rbp), %rcx
	movq	32(%rbp), %r8
	movq	%rcx, %r9
	movq	%rax, %rcx
	call	_DIVREM_SINGLE_UNIT
	.loc 8 500 15
	movq	%rax, -40(%rbp)
	.loc 8 501 45
	movq	-8(%rbp), %rax
	subq	$24, %rax
	.loc 8 501 36
	movq	(%rax), %rdx
	movq	-40(%rbp), %rax
	leaq	-32(%rbp), %rcx
	movq	32(%rbp), %r8
	movq	%rcx, %r9
	movq	%rax, %rcx
	call	_DIVREM_SINGLE_UNIT
	.loc 8 501 15
	movq	%rax, -40(%rbp)
	.loc 8 502 16
	subq	$32, -8(%rbp)
	.loc 8 505 34
	movl	$4, %ecx
	call	_ZN8Palmtree4Math4Core8InternalL17AddToDIV64CounterEi
.L84:
	.loc 8 511 21
	movq	-24(%rbp), %rax
	andl	$2, %eax
	.loc 8 511 9
	testq	%rax, %rax
	je	.L85
	.loc 8 513 36
	movq	-8(%rbp), %rax
	movq	(%rax), %rdx
	movq	-40(%rbp), %rax
	leaq	-32(%rbp), %rcx
	movq	32(%rbp), %r8
	movq	%rcx, %r9
	movq	%rax, %rcx
	call	_DIVREM_SINGLE_UNIT
	.loc 8 513 15
	movq	%rax, -40(%rbp)
	.loc 8 514 45
	movq	-8(%rbp), %rax
	subq	$8, %rax
	.loc 8 514 36
	movq	(%rax), %rdx
	movq	-40(%rbp), %rax
	leaq	-32(%rbp), %rcx
	movq	32(%rbp), %r8
	movq	%rcx, %r9
	movq	%rax, %rcx
	call	_DIVREM_SINGLE_UNIT
	.loc 8 514 15
	movq	%rax, -40(%rbp)
	.loc 8 515 16
	subq	$16, -8(%rbp)
	.loc 8 518 34
	movl	$2, %ecx
	call	_ZN8Palmtree4Math4Core8InternalL17AddToDIV64CounterEi
.L85:
	.loc 8 524 21
	movq	-24(%rbp), %rax
	andl	$1, %eax
	.loc 8 524 9
	testq	%rax, %rax
	je	.L86
	.loc 8 526 36
	movq	-8(%rbp), %rax
	movq	(%rax), %rdx
	movq	-40(%rbp), %rax
	leaq	-32(%rbp), %rcx
	movq	32(%rbp), %r8
	movq	%rcx, %r9
	movq	%rax, %rcx
	call	_DIVREM_SINGLE_UNIT
	.loc 8 526 15
	movq	%rax, -40(%rbp)
	.loc 8 527 16
	subq	$8, -8(%rbp)
	.loc 8 530 38
	call	_ZN8Palmtree4Math4Core8InternalL21IncrementDIV64CounterEv
.L86:
	.loc 8 536 18
	movq	-40(%rbp), %rax
	.loc 8 537 5
	addq	$80, %rsp
	popq	%rbp
	.cfi_restore 6
	.cfi_def_cfa 7, 8
	ret
	.cfi_endproc
.LFE5073:
	.seh_endproc
	.globl	_ZN8Palmtree4Math4Core8Internal11DivRem_X_1WEPyyyS3_S3_
	.def	_ZN8Palmtree4Math4Core8Internal11DivRem_X_1WEPyyyS3_S3_;	.scl	2;	.type	32;	.endef
	.seh_proc	_ZN8Palmtree4Math4Core8Internal11DivRem_X_1WEPyyyS3_S3_
_ZN8Palmtree4Math4Core8Internal11DivRem_X_1WEPyyyS3_S3_:
.LFB5074:
	.loc 8 540 5
	.cfi_startproc
	pushq	%rbp
	.seh_pushreg	%rbp
	.cfi_def_cfa_offset 16
	.cfi_offset 6, -16
	movq	%rsp, %rbp
	.seh_setframe	%rbp, 0
	.cfi_def_cfa_register 6
	subq	$80, %rsp
	.seh_stackalloc	80
	.seh_endprologue
	movq	%rcx, 16(%rbp)
	movq	%rdx, 24(%rbp)
	movq	%r8, 32(%rbp)
	movq	%r9, 40(%rbp)
	.loc 8 542 33
	movq	24(%rbp), %rax
	salq	$3, %rax
	.loc 8 542 45
	leaq	-8(%rax), %rdx
	.loc 8 542 22
	movq	16(%rbp), %rax
	addq	%rdx, %rax
	movq	%rax, -8(%rbp)
	.loc 8 543 33
	movq	24(%rbp), %rax
	salq	$3, %rax
	.loc 8 543 45
	leaq	-8(%rax), %rdx
	.loc 8 543 22
	movq	40(%rbp), %rax
	addq	%rdx, %rax
	movq	%rax, -16(%rbp)
	.loc 8 544 21
	movq	24(%rbp), %rax
	movq	%rax, -40(%rbp)
	.loc 8 554 21
	movq	$0, -24(%rbp)
	.loc 8 555 21
	movq	-40(%rbp), %rax
	shrq	$5, %rax
	movq	%rax, -32(%rbp)
.L90:
	.loc 8 556 22
	cmpq	$0, -32(%rbp)
	je	.L89
	.loc 8 558 36
	movq	-8(%rbp), %rax
	movq	(%rax), %rdx
	movq	-16(%rbp), %r8
	movq	32(%rbp), %rcx
	movq	-24(%rbp), %rax
	movq	%r8, %r9
	movq	%rcx, %r8
	movq	%rax, %rcx
	call	_DIVREM_SINGLE_UNIT
	movq	%rax, -24(%rbp)
	.loc 8 559 36
	movq	-16(%rbp), %rax
	leaq	-8(%rax), %r8
	.loc 8 559 45
	movq	-8(%rbp), %rax
	subq	$8, %rax
	.loc 8 559 36
	movq	(%rax), %rdx
	movq	32(%rbp), %rcx
	movq	-24(%rbp), %rax
	movq	%r8, %r9
	movq	%rcx, %r8
	movq	%rax, %rcx
	call	_DIVREM_SINGLE_UNIT
	movq	%rax, -24(%rbp)
	.loc 8 560 36
	movq	-16(%rbp), %rax
	leaq	-16(%rax), %r8
	.loc 8 560 45
	movq	-8(%rbp), %rax
	subq	$16, %rax
	.loc 8 560 36
	movq	(%rax), %rdx
	movq	32(%rbp), %rcx
	movq	-24(%rbp), %rax
	movq	%r8, %r9
	movq	%rcx, %r8
	movq	%rax, %rcx
	call	_DIVREM_SINGLE_UNIT
	movq	%rax, -24(%rbp)
	.loc 8 561 36
	movq	-16(%rbp), %rax
	leaq	-24(%rax), %r8
	.loc 8 561 45
	movq	-8(%rbp), %rax
	subq	$24, %rax
	.loc 8 561 36
	movq	(%rax), %rdx
	movq	32(%rbp), %rcx
	movq	-24(%rbp), %rax
	movq	%r8, %r9
	movq	%rcx, %r8
	movq	%rax, %rcx
	call	_DIVREM_SINGLE_UNIT
	movq	%rax, -24(%rbp)
	.loc 8 562 36
	movq	-16(%rbp), %rax
	leaq	-32(%rax), %r8
	.loc 8 562 45
	movq	-8(%rbp), %rax
	subq	$32, %rax
	.loc 8 562 36
	movq	(%rax), %rdx
	movq	32(%rbp), %rcx
	movq	-24(%rbp), %rax
	movq	%r8, %r9
	movq	%rcx, %r8
	movq	%rax, %rcx
	call	_DIVREM_SINGLE_UNIT
	movq	%rax, -24(%rbp)
	.loc 8 563 36
	movq	-16(%rbp), %rax
	leaq	-40(%rax), %r8
	.loc 8 563 45
	movq	-8(%rbp), %rax
	subq	$40, %rax
	.loc 8 563 36
	movq	(%rax), %rdx
	movq	32(%rbp), %rcx
	movq	-24(%rbp), %rax
	movq	%r8, %r9
	movq	%rcx, %r8
	movq	%rax, %rcx
	call	_DIVREM_SINGLE_UNIT
	movq	%rax, -24(%rbp)
	.loc 8 564 36
	movq	-16(%rbp), %rax
	leaq	-48(%rax), %r8
	.loc 8 564 45
	movq	-8(%rbp), %rax
	subq	$48, %rax
	.loc 8 564 36
	movq	(%rax), %rdx
	movq	32(%rbp), %rcx
	movq	-24(%rbp), %rax
	movq	%r8, %r9
	movq	%rcx, %r8
	movq	%rax, %rcx
	call	_DIVREM_SINGLE_UNIT
	movq	%rax, -24(%rbp)
	.loc 8 565 36
	movq	-16(%rbp), %rax
	leaq	-56(%rax), %r8
	.loc 8 565 45
	movq	-8(%rbp), %rax
	subq	$56, %rax
	.loc 8 565 36
	movq	(%rax), %rdx
	movq	32(%rbp), %rcx
	movq	-24(%rbp), %rax
	movq	%r8, %r9
	movq	%rcx, %r8
	movq	%rax, %rcx
	call	_DIVREM_SINGLE_UNIT
	movq	%rax, -24(%rbp)
	.loc 8 566 36
	movq	-16(%rbp), %rax
	leaq	-64(%rax), %r8
	.loc 8 566 45
	movq	-8(%rbp), %rax
	subq	$64, %rax
	.loc 8 566 36
	movq	(%rax), %rdx
	movq	32(%rbp), %rcx
	movq	-24(%rbp), %rax
	movq	%r8, %r9
	movq	%rcx, %r8
	movq	%rax, %rcx
	call	_DIVREM_SINGLE_UNIT
	movq	%rax, -24(%rbp)
	.loc 8 567 36
	movq	-16(%rbp), %rax
	leaq	-72(%rax), %r8
	.loc 8 567 45
	movq	-8(%rbp), %rax
	subq	$72, %rax
	.loc 8 567 36
	movq	(%rax), %rdx
	movq	32(%rbp), %rcx
	movq	-24(%rbp), %rax
	movq	%r8, %r9
	movq	%rcx, %r8
	movq	%rax, %rcx
	call	_DIVREM_SINGLE_UNIT
	movq	%rax, -24(%rbp)
	.loc 8 568 36
	movq	-16(%rbp), %rax
	leaq	-80(%rax), %r8
	.loc 8 568 46
	movq	-8(%rbp), %rax
	subq	$80, %rax
	.loc 8 568 36
	movq	(%rax), %rdx
	movq	32(%rbp), %rcx
	movq	-24(%rbp), %rax
	movq	%r8, %r9
	movq	%rcx, %r8
	movq	%rax, %rcx
	call	_DIVREM_SINGLE_UNIT
	movq	%rax, -24(%rbp)
	.loc 8 569 36
	movq	-16(%rbp), %rax
	leaq	-88(%rax), %r8
	.loc 8 569 46
	movq	-8(%rbp), %rax
	subq	$88, %rax
	.loc 8 569 36
	movq	(%rax), %rdx
	movq	32(%rbp), %rcx
	movq	-24(%rbp), %rax
	movq	%r8, %r9
	movq	%rcx, %r8
	movq	%rax, %rcx
	call	_DIVREM_SINGLE_UNIT
	movq	%rax, -24(%rbp)
	.loc 8 570 36
	movq	-16(%rbp), %rax
	leaq	-96(%rax), %r8
	.loc 8 570 46
	movq	-8(%rbp), %rax
	subq	$96, %rax
	.loc 8 570 36
	movq	(%rax), %rdx
	movq	32(%rbp), %rcx
	movq	-24(%rbp), %rax
	movq	%r8, %r9
	movq	%rcx, %r8
	movq	%rax, %rcx
	call	_DIVREM_SINGLE_UNIT
	movq	%rax, -24(%rbp)
	.loc 8 571 36
	movq	-16(%rbp), %rax
	leaq	-104(%rax), %r8
	.loc 8 571 46
	movq	-8(%rbp), %rax
	subq	$104, %rax
	.loc 8 571 36
	movq	(%rax), %rdx
	movq	32(%rbp), %rcx
	movq	-24(%rbp), %rax
	movq	%r8, %r9
	movq	%rcx, %r8
	movq	%rax, %rcx
	call	_DIVREM_SINGLE_UNIT
	movq	%rax, -24(%rbp)
	.loc 8 572 36
	movq	-16(%rbp), %rax
	leaq	-112(%rax), %r8
	.loc 8 572 46
	movq	-8(%rbp), %rax
	subq	$112, %rax
	.loc 8 572 36
	movq	(%rax), %rdx
	movq	32(%rbp), %rcx
	movq	-24(%rbp), %rax
	movq	%r8, %r9
	movq	%rcx, %r8
	movq	%rax, %rcx
	call	_DIVREM_SINGLE_UNIT
	movq	%rax, -24(%rbp)
	.loc 8 573 36
	movq	-16(%rbp), %rax
	leaq	-120(%rax), %r8
	.loc 8 573 46
	movq	-8(%rbp), %rax
	subq	$120, %rax
	.loc 8 573 36
	movq	(%rax), %rdx
	movq	32(%rbp), %rcx
	movq	-24(%rbp), %rax
	movq	%r8, %r9
	movq	%rcx, %r8
	movq	%rax, %rcx
	call	_DIVREM_SINGLE_UNIT
	movq	%rax, -24(%rbp)
	.loc 8 574 36
	movq	-16(%rbp), %rax
	leaq	-128(%rax), %r8
	.loc 8 574 46
	movq	-8(%rbp), %rax
	addq	$-128, %rax
	.loc 8 574 36
	movq	(%rax), %rdx
	movq	32(%rbp), %rcx
	movq	-24(%rbp), %rax
	movq	%r8, %r9
	movq	%rcx, %r8
	movq	%rax, %rcx
	call	_DIVREM_SINGLE_UNIT
	movq	%rax, -24(%rbp)
	.loc 8 575 36
	movq	-16(%rbp), %rax
	leaq	-136(%rax), %r8
	.loc 8 575 46
	movq	-8(%rbp), %rax
	subq	$136, %rax
	.loc 8 575 36
	movq	(%rax), %rdx
	movq	32(%rbp), %rcx
	movq	-24(%rbp), %rax
	movq	%r8, %r9
	movq	%rcx, %r8
	movq	%rax, %rcx
	call	_DIVREM_SINGLE_UNIT
	movq	%rax, -24(%rbp)
	.loc 8 576 36
	movq	-16(%rbp), %rax
	leaq	-144(%rax), %r8
	.loc 8 576 46
	movq	-8(%rbp), %rax
	subq	$144, %rax
	.loc 8 576 36
	movq	(%rax), %rdx
	movq	32(%rbp), %rcx
	movq	-24(%rbp), %rax
	movq	%r8, %r9
	movq	%rcx, %r8
	movq	%rax, %rcx
	call	_DIVREM_SINGLE_UNIT
	movq	%rax, -24(%rbp)
	.loc 8 577 36
	movq	-16(%rbp), %rax
	leaq	-152(%rax), %r8
	.loc 8 577 46
	movq	-8(%rbp), %rax
	subq	$152, %rax
	.loc 8 577 36
	movq	(%rax), %rdx
	movq	32(%rbp), %rcx
	movq	-24(%rbp), %rax
	movq	%r8, %r9
	movq	%rcx, %r8
	movq	%rax, %rcx
	call	_DIVREM_SINGLE_UNIT
	movq	%rax, -24(%rbp)
	.loc 8 578 36
	movq	-16(%rbp), %rax
	leaq	-160(%rax), %r8
	.loc 8 578 46
	movq	-8(%rbp), %rax
	subq	$160, %rax
	.loc 8 578 36
	movq	(%rax), %rdx
	movq	32(%rbp), %rcx
	movq	-24(%rbp), %rax
	movq	%r8, %r9
	movq	%rcx, %r8
	movq	%rax, %rcx
	call	_DIVREM_SINGLE_UNIT
	movq	%rax, -24(%rbp)
	.loc 8 579 36
	movq	-16(%rbp), %rax
	leaq	-168(%rax), %r8
	.loc 8 579 46
	movq	-8(%rbp), %rax
	subq	$168, %rax
	.loc 8 579 36
	movq	(%rax), %rdx
	movq	32(%rbp), %rcx
	movq	-24(%rbp), %rax
	movq	%r8, %r9
	movq	%rcx, %r8
	movq	%rax, %rcx
	call	_DIVREM_SINGLE_UNIT
	movq	%rax, -24(%rbp)
	.loc 8 580 36
	movq	-16(%rbp), %rax
	leaq	-176(%rax), %r8
	.loc 8 580 46
	movq	-8(%rbp), %rax
	subq	$176, %rax
	.loc 8 580 36
	movq	(%rax), %rdx
	movq	32(%rbp), %rcx
	movq	-24(%rbp), %rax
	movq	%r8, %r9
	movq	%rcx, %r8
	movq	%rax, %rcx
	call	_DIVREM_SINGLE_UNIT
	movq	%rax, -24(%rbp)
	.loc 8 581 36
	movq	-16(%rbp), %rax
	leaq	-184(%rax), %r8
	.loc 8 581 46
	movq	-8(%rbp), %rax
	subq	$184, %rax
	.loc 8 581 36
	movq	(%rax), %rdx
	movq	32(%rbp), %rcx
	movq	-24(%rbp), %rax
	movq	%r8, %r9
	movq	%rcx, %r8
	movq	%rax, %rcx
	call	_DIVREM_SINGLE_UNIT
	movq	%rax, -24(%rbp)
	.loc 8 582 36
	movq	-16(%rbp), %rax
	leaq	-192(%rax), %r8
	.loc 8 582 46
	movq	-8(%rbp), %rax
	subq	$192, %rax
	.loc 8 582 36
	movq	(%rax), %rdx
	movq	32(%rbp), %rcx
	movq	-24(%rbp), %rax
	movq	%r8, %r9
	movq	%rcx, %r8
	movq	%rax, %rcx
	call	_DIVREM_SINGLE_UNIT
	movq	%rax, -24(%rbp)
	.loc 8 583 36
	movq	-16(%rbp), %rax
	leaq	-200(%rax), %r8
	.loc 8 583 46
	movq	-8(%rbp), %rax
	subq	$200, %rax
	.loc 8 583 36
	movq	(%rax), %rdx
	movq	32(%rbp), %rcx
	movq	-24(%rbp), %rax
	movq	%r8, %r9
	movq	%rcx, %r8
	movq	%rax, %rcx
	call	_DIVREM_SINGLE_UNIT
	movq	%rax, -24(%rbp)
	.loc 8 584 36
	movq	-16(%rbp), %rax
	leaq	-208(%rax), %r8
	.loc 8 584 46
	movq	-8(%rbp), %rax
	subq	$208, %rax
	.loc 8 584 36
	movq	(%rax), %rdx
	movq	32(%rbp), %rcx
	movq	-24(%rbp), %rax
	movq	%r8, %r9
	movq	%rcx, %r8
	movq	%rax, %rcx
	call	_DIVREM_SINGLE_UNIT
	movq	%rax, -24(%rbp)
	.loc 8 585 36
	movq	-16(%rbp), %rax
	leaq	-216(%rax), %r8
	.loc 8 585 46
	movq	-8(%rbp), %rax
	subq	$216, %rax
	.loc 8 585 36
	movq	(%rax), %rdx
	movq	32(%rbp), %rcx
	movq	-24(%rbp), %rax
	movq	%r8, %r9
	movq	%rcx, %r8
	movq	%rax, %rcx
	call	_DIVREM_SINGLE_UNIT
	movq	%rax, -24(%rbp)
	.loc 8 586 36
	movq	-16(%rbp), %rax
	leaq	-224(%rax), %r8
	.loc 8 586 46
	movq	-8(%rbp), %rax
	subq	$224, %rax
	.loc 8 586 36
	movq	(%rax), %rdx
	movq	32(%rbp), %rcx
	movq	-24(%rbp), %rax
	movq	%r8, %r9
	movq	%rcx, %r8
	movq	%rax, %rcx
	call	_DIVREM_SINGLE_UNIT
	movq	%rax, -24(%rbp)
	.loc 8 587 36
	movq	-16(%rbp), %rax
	leaq	-232(%rax), %r8
	.loc 8 587 46
	movq	-8(%rbp), %rax
	subq	$232, %rax
	.loc 8 587 36
	movq	(%rax), %rdx
	movq	32(%rbp), %rcx
	movq	-24(%rbp), %rax
	movq	%r8, %r9
	movq	%rcx, %r8
	movq	%rax, %rcx
	call	_DIVREM_SINGLE_UNIT
	movq	%rax, -24(%rbp)
	.loc 8 588 36
	movq	-16(%rbp), %rax
	leaq	-240(%rax), %r8
	.loc 8 588 46
	movq	-8(%rbp), %rax
	subq	$240, %rax
	.loc 8 588 36
	movq	(%rax), %rdx
	movq	32(%rbp), %rcx
	movq	-24(%rbp), %rax
	movq	%r8, %r9
	movq	%rcx, %r8
	movq	%rax, %rcx
	call	_DIVREM_SINGLE_UNIT
	movq	%rax, -24(%rbp)
	.loc 8 589 36
	movq	-16(%rbp), %rax
	leaq	-248(%rax), %r8
	.loc 8 589 46
	movq	-8(%rbp), %rax
	subq	$248, %rax
	.loc 8 589 36
	movq	(%rax), %rdx
	movq	32(%rbp), %rcx
	movq	-24(%rbp), %rax
	movq	%r8, %r9
	movq	%rcx, %r8
	movq	%rax, %rcx
	call	_DIVREM_SINGLE_UNIT
	movq	%rax, -24(%rbp)
	.loc 8 590 16
	subq	$256, -8(%rbp)
	.loc 8 591 16
	subq	$256, -16(%rbp)
	.loc 8 592 13
	subq	$1, -32(%rbp)
	.loc 8 595 34
	movl	$32, %ecx
	call	_ZN8Palmtree4Math4Core8InternalL17AddToDIV64CounterEi
	.loc 8 556 9
	jmp	.L90
.L89:
	.loc 8 601 21
	movq	-40(%rbp), %rax
	andl	$16, %eax
	.loc 8 601 9
	testq	%rax, %rax
	je	.L91
	.loc 8 603 36
	movq	-8(%rbp), %rax
	movq	(%rax), %rdx
	movq	-16(%rbp), %r8
	movq	32(%rbp), %rcx
	movq	-24(%rbp), %rax
	movq	%r8, %r9
	movq	%rcx, %r8
	movq	%rax, %rcx
	call	_DIVREM_SINGLE_UNIT
	movq	%rax, -24(%rbp)
	.loc 8 604 36
	movq	-16(%rbp), %rax
	leaq	-8(%rax), %r8
	.loc 8 604 45
	movq	-8(%rbp), %rax
	subq	$8, %rax
	.loc 8 604 36
	movq	(%rax), %rdx
	movq	32(%rbp), %rcx
	movq	-24(%rbp), %rax
	movq	%r8, %r9
	movq	%rcx, %r8
	movq	%rax, %rcx
	call	_DIVREM_SINGLE_UNIT
	movq	%rax, -24(%rbp)
	.loc 8 605 36
	movq	-16(%rbp), %rax
	leaq	-16(%rax), %r8
	.loc 8 605 45
	movq	-8(%rbp), %rax
	subq	$16, %rax
	.loc 8 605 36
	movq	(%rax), %rdx
	movq	32(%rbp), %rcx
	movq	-24(%rbp), %rax
	movq	%r8, %r9
	movq	%rcx, %r8
	movq	%rax, %rcx
	call	_DIVREM_SINGLE_UNIT
	movq	%rax, -24(%rbp)
	.loc 8 606 36
	movq	-16(%rbp), %rax
	leaq	-24(%rax), %r8
	.loc 8 606 45
	movq	-8(%rbp), %rax
	subq	$24, %rax
	.loc 8 606 36
	movq	(%rax), %rdx
	movq	32(%rbp), %rcx
	movq	-24(%rbp), %rax
	movq	%r8, %r9
	movq	%rcx, %r8
	movq	%rax, %rcx
	call	_DIVREM_SINGLE_UNIT
	movq	%rax, -24(%rbp)
	.loc 8 607 36
	movq	-16(%rbp), %rax
	leaq	-32(%rax), %r8
	.loc 8 607 45
	movq	-8(%rbp), %rax
	subq	$32, %rax
	.loc 8 607 36
	movq	(%rax), %rdx
	movq	32(%rbp), %rcx
	movq	-24(%rbp), %rax
	movq	%r8, %r9
	movq	%rcx, %r8
	movq	%rax, %rcx
	call	_DIVREM_SINGLE_UNIT
	movq	%rax, -24(%rbp)
	.loc 8 608 36
	movq	-16(%rbp), %rax
	leaq	-40(%rax), %r8
	.loc 8 608 45
	movq	-8(%rbp), %rax
	subq	$40, %rax
	.loc 8 608 36
	movq	(%rax), %rdx
	movq	32(%rbp), %rcx
	movq	-24(%rbp), %rax
	movq	%r8, %r9
	movq	%rcx, %r8
	movq	%rax, %rcx
	call	_DIVREM_SINGLE_UNIT
	movq	%rax, -24(%rbp)
	.loc 8 609 36
	movq	-16(%rbp), %rax
	leaq	-48(%rax), %r8
	.loc 8 609 45
	movq	-8(%rbp), %rax
	subq	$48, %rax
	.loc 8 609 36
	movq	(%rax), %rdx
	movq	32(%rbp), %rcx
	movq	-24(%rbp), %rax
	movq	%r8, %r9
	movq	%rcx, %r8
	movq	%rax, %rcx
	call	_DIVREM_SINGLE_UNIT
	movq	%rax, -24(%rbp)
	.loc 8 610 36
	movq	-16(%rbp), %rax
	leaq	-56(%rax), %r8
	.loc 8 610 45
	movq	-8(%rbp), %rax
	subq	$56, %rax
	.loc 8 610 36
	movq	(%rax), %rdx
	movq	32(%rbp), %rcx
	movq	-24(%rbp), %rax
	movq	%r8, %r9
	movq	%rcx, %r8
	movq	%rax, %rcx
	call	_DIVREM_SINGLE_UNIT
	movq	%rax, -24(%rbp)
	.loc 8 611 36
	movq	-16(%rbp), %rax
	leaq	-64(%rax), %r8
	.loc 8 611 45
	movq	-8(%rbp), %rax
	subq	$64, %rax
	.loc 8 611 36
	movq	(%rax), %rdx
	movq	32(%rbp), %rcx
	movq	-24(%rbp), %rax
	movq	%r8, %r9
	movq	%rcx, %r8
	movq	%rax, %rcx
	call	_DIVREM_SINGLE_UNIT
	movq	%rax, -24(%rbp)
	.loc 8 612 36
	movq	-16(%rbp), %rax
	leaq	-72(%rax), %r8
	.loc 8 612 45
	movq	-8(%rbp), %rax
	subq	$72, %rax
	.loc 8 612 36
	movq	(%rax), %rdx
	movq	32(%rbp), %rcx
	movq	-24(%rbp), %rax
	movq	%r8, %r9
	movq	%rcx, %r8
	movq	%rax, %rcx
	call	_DIVREM_SINGLE_UNIT
	movq	%rax, -24(%rbp)
	.loc 8 613 36
	movq	-16(%rbp), %rax
	leaq	-80(%rax), %r8
	.loc 8 613 46
	movq	-8(%rbp), %rax
	subq	$80, %rax
	.loc 8 613 36
	movq	(%rax), %rdx
	movq	32(%rbp), %rcx
	movq	-24(%rbp), %rax
	movq	%r8, %r9
	movq	%rcx, %r8
	movq	%rax, %rcx
	call	_DIVREM_SINGLE_UNIT
	movq	%rax, -24(%rbp)
	.loc 8 614 36
	movq	-16(%rbp), %rax
	leaq	-88(%rax), %r8
	.loc 8 614 46
	movq	-8(%rbp), %rax
	subq	$88, %rax
	.loc 8 614 36
	movq	(%rax), %rdx
	movq	32(%rbp), %rcx
	movq	-24(%rbp), %rax
	movq	%r8, %r9
	movq	%rcx, %r8
	movq	%rax, %rcx
	call	_DIVREM_SINGLE_UNIT
	movq	%rax, -24(%rbp)
	.loc 8 615 36
	movq	-16(%rbp), %rax
	leaq	-96(%rax), %r8
	.loc 8 615 46
	movq	-8(%rbp), %rax
	subq	$96, %rax
	.loc 8 615 36
	movq	(%rax), %rdx
	movq	32(%rbp), %rcx
	movq	-24(%rbp), %rax
	movq	%r8, %r9
	movq	%rcx, %r8
	movq	%rax, %rcx
	call	_DIVREM_SINGLE_UNIT
	movq	%rax, -24(%rbp)
	.loc 8 616 36
	movq	-16(%rbp), %rax
	leaq	-104(%rax), %r8
	.loc 8 616 46
	movq	-8(%rbp), %rax
	subq	$104, %rax
	.loc 8 616 36
	movq	(%rax), %rdx
	movq	32(%rbp), %rcx
	movq	-24(%rbp), %rax
	movq	%r8, %r9
	movq	%rcx, %r8
	movq	%rax, %rcx
	call	_DIVREM_SINGLE_UNIT
	movq	%rax, -24(%rbp)
	.loc 8 617 36
	movq	-16(%rbp), %rax
	leaq	-112(%rax), %r8
	.loc 8 617 46
	movq	-8(%rbp), %rax
	subq	$112, %rax
	.loc 8 617 36
	movq	(%rax), %rdx
	movq	32(%rbp), %rcx
	movq	-24(%rbp), %rax
	movq	%r8, %r9
	movq	%rcx, %r8
	movq	%rax, %rcx
	call	_DIVREM_SINGLE_UNIT
	movq	%rax, -24(%rbp)
	.loc 8 618 36
	movq	-16(%rbp), %rax
	leaq	-120(%rax), %r8
	.loc 8 618 46
	movq	-8(%rbp), %rax
	subq	$120, %rax
	.loc 8 618 36
	movq	(%rax), %rdx
	movq	32(%rbp), %rcx
	movq	-24(%rbp), %rax
	movq	%r8, %r9
	movq	%rcx, %r8
	movq	%rax, %rcx
	call	_DIVREM_SINGLE_UNIT
	movq	%rax, -24(%rbp)
	.loc 8 619 16
	addq	$-128, -8(%rbp)
	.loc 8 620 16
	addq	$-128, -16(%rbp)
	.loc 8 623 34
	movl	$16, %ecx
	call	_ZN8Palmtree4Math4Core8InternalL17AddToDIV64CounterEi
.L91:
	.loc 8 629 21
	movq	-40(%rbp), %rax
	andl	$8, %eax
	.loc 8 629 9
	testq	%rax, %rax
	je	.L92
	.loc 8 631 36
	movq	-8(%rbp), %rax
	movq	(%rax), %rdx
	movq	-16(%rbp), %r8
	movq	32(%rbp), %rcx
	movq	-24(%rbp), %rax
	movq	%r8, %r9
	movq	%rcx, %r8
	movq	%rax, %rcx
	call	_DIVREM_SINGLE_UNIT
	movq	%rax, -24(%rbp)
	.loc 8 632 36
	movq	-16(%rbp), %rax
	leaq	-8(%rax), %r8
	.loc 8 632 45
	movq	-8(%rbp), %rax
	subq	$8, %rax
	.loc 8 632 36
	movq	(%rax), %rdx
	movq	32(%rbp), %rcx
	movq	-24(%rbp), %rax
	movq	%r8, %r9
	movq	%rcx, %r8
	movq	%rax, %rcx
	call	_DIVREM_SINGLE_UNIT
	movq	%rax, -24(%rbp)
	.loc 8 633 36
	movq	-16(%rbp), %rax
	leaq	-16(%rax), %r8
	.loc 8 633 45
	movq	-8(%rbp), %rax
	subq	$16, %rax
	.loc 8 633 36
	movq	(%rax), %rdx
	movq	32(%rbp), %rcx
	movq	-24(%rbp), %rax
	movq	%r8, %r9
	movq	%rcx, %r8
	movq	%rax, %rcx
	call	_DIVREM_SINGLE_UNIT
	movq	%rax, -24(%rbp)
	.loc 8 634 36
	movq	-16(%rbp), %rax
	leaq	-24(%rax), %r8
	.loc 8 634 45
	movq	-8(%rbp), %rax
	subq	$24, %rax
	.loc 8 634 36
	movq	(%rax), %rdx
	movq	32(%rbp), %rcx
	movq	-24(%rbp), %rax
	movq	%r8, %r9
	movq	%rcx, %r8
	movq	%rax, %rcx
	call	_DIVREM_SINGLE_UNIT
	movq	%rax, -24(%rbp)
	.loc 8 635 36
	movq	-16(%rbp), %rax
	leaq	-32(%rax), %r8
	.loc 8 635 45
	movq	-8(%rbp), %rax
	subq	$32, %rax
	.loc 8 635 36
	movq	(%rax), %rdx
	movq	32(%rbp), %rcx
	movq	-24(%rbp), %rax
	movq	%r8, %r9
	movq	%rcx, %r8
	movq	%rax, %rcx
	call	_DIVREM_SINGLE_UNIT
	movq	%rax, -24(%rbp)
	.loc 8 636 36
	movq	-16(%rbp), %rax
	leaq	-40(%rax), %r8
	.loc 8 636 45
	movq	-8(%rbp), %rax
	subq	$40, %rax
	.loc 8 636 36
	movq	(%rax), %rdx
	movq	32(%rbp), %rcx
	movq	-24(%rbp), %rax
	movq	%r8, %r9
	movq	%rcx, %r8
	movq	%rax, %rcx
	call	_DIVREM_SINGLE_UNIT
	movq	%rax, -24(%rbp)
	.loc 8 637 36
	movq	-16(%rbp), %rax
	leaq	-48(%rax), %r8
	.loc 8 637 45
	movq	-8(%rbp), %rax
	subq	$48, %rax
	.loc 8 637 36
	movq	(%rax), %rdx
	movq	32(%rbp), %rcx
	movq	-24(%rbp), %rax
	movq	%r8, %r9
	movq	%rcx, %r8
	movq	%rax, %rcx
	call	_DIVREM_SINGLE_UNIT
	movq	%rax, -24(%rbp)
	.loc 8 638 36
	movq	-16(%rbp), %rax
	leaq	-56(%rax), %r8
	.loc 8 638 45
	movq	-8(%rbp), %rax
	subq	$56, %rax
	.loc 8 638 36
	movq	(%rax), %rdx
	movq	32(%rbp), %rcx
	movq	-24(%rbp), %rax
	movq	%r8, %r9
	movq	%rcx, %r8
	movq	%rax, %rcx
	call	_DIVREM_SINGLE_UNIT
	movq	%rax, -24(%rbp)
	.loc 8 639 16
	subq	$64, -8(%rbp)
	.loc 8 640 16
	subq	$64, -16(%rbp)
	.loc 8 643 34
	movl	$8, %ecx
	call	_ZN8Palmtree4Math4Core8InternalL17AddToDIV64CounterEi
.L92:
	.loc 8 649 21
	movq	-40(%rbp), %rax
	andl	$4, %eax
	.loc 8 649 9
	testq	%rax, %rax
	je	.L93
	.loc 8 651 36
	movq	-8(%rbp), %rax
	movq	(%rax), %rdx
	movq	-16(%rbp), %r8
	movq	32(%rbp), %rcx
	movq	-24(%rbp), %rax
	movq	%r8, %r9
	movq	%rcx, %r8
	movq	%rax, %rcx
	call	_DIVREM_SINGLE_UNIT
	movq	%rax, -24(%rbp)
	.loc 8 652 36
	movq	-16(%rbp), %rax
	leaq	-8(%rax), %r8
	.loc 8 652 45
	movq	-8(%rbp), %rax
	subq	$8, %rax
	.loc 8 652 36
	movq	(%rax), %rdx
	movq	32(%rbp), %rcx
	movq	-24(%rbp), %rax
	movq	%r8, %r9
	movq	%rcx, %r8
	movq	%rax, %rcx
	call	_DIVREM_SINGLE_UNIT
	movq	%rax, -24(%rbp)
	.loc 8 653 36
	movq	-16(%rbp), %rax
	leaq	-16(%rax), %r8
	.loc 8 653 45
	movq	-8(%rbp), %rax
	subq	$16, %rax
	.loc 8 653 36
	movq	(%rax), %rdx
	movq	32(%rbp), %rcx
	movq	-24(%rbp), %rax
	movq	%r8, %r9
	movq	%rcx, %r8
	movq	%rax, %rcx
	call	_DIVREM_SINGLE_UNIT
	movq	%rax, -24(%rbp)
	.loc 8 654 36
	movq	-16(%rbp), %rax
	leaq	-24(%rax), %r8
	.loc 8 654 45
	movq	-8(%rbp), %rax
	subq	$24, %rax
	.loc 8 654 36
	movq	(%rax), %rdx
	movq	32(%rbp), %rcx
	movq	-24(%rbp), %rax
	movq	%r8, %r9
	movq	%rcx, %r8
	movq	%rax, %rcx
	call	_DIVREM_SINGLE_UNIT
	movq	%rax, -24(%rbp)
	.loc 8 655 16
	subq	$32, -8(%rbp)
	.loc 8 656 16
	subq	$32, -16(%rbp)
	.loc 8 659 34
	movl	$4, %ecx
	call	_ZN8Palmtree4Math4Core8InternalL17AddToDIV64CounterEi
.L93:
	.loc 8 665 21
	movq	-40(%rbp), %rax
	andl	$2, %eax
	.loc 8 665 9
	testq	%rax, %rax
	je	.L94
	.loc 8 667 36
	movq	-8(%rbp), %rax
	movq	(%rax), %rdx
	movq	-16(%rbp), %r8
	movq	32(%rbp), %rcx
	movq	-24(%rbp), %rax
	movq	%r8, %r9
	movq	%rcx, %r8
	movq	%rax, %rcx
	call	_DIVREM_SINGLE_UNIT
	movq	%rax, -24(%rbp)
	.loc 8 668 36
	movq	-16(%rbp), %rax
	leaq	-8(%rax), %r8
	.loc 8 668 45
	movq	-8(%rbp), %rax
	subq	$8, %rax
	.loc 8 668 36
	movq	(%rax), %rdx
	movq	32(%rbp), %rcx
	movq	-24(%rbp), %rax
	movq	%r8, %r9
	movq	%rcx, %r8
	movq	%rax, %rcx
	call	_DIVREM_SINGLE_UNIT
	movq	%rax, -24(%rbp)
	.loc 8 669 16
	subq	$16, -8(%rbp)
	.loc 8 670 16
	subq	$16, -16(%rbp)
	.loc 8 673 34
	movl	$2, %ecx
	call	_ZN8Palmtree4Math4Core8InternalL17AddToDIV64CounterEi
.L94:
	.loc 8 679 21
	movq	-40(%rbp), %rax
	andl	$1, %eax
	.loc 8 679 9
	testq	%rax, %rax
	je	.L95
	.loc 8 681 36
	movq	-8(%rbp), %rax
	movq	(%rax), %rdx
	movq	-16(%rbp), %r8
	movq	32(%rbp), %rcx
	movq	-24(%rbp), %rax
	movq	%r8, %r9
	movq	%rcx, %r8
	movq	%rax, %rcx
	call	_DIVREM_SINGLE_UNIT
	movq	%rax, -24(%rbp)
	.loc 8 682 16
	subq	$8, -8(%rbp)
	.loc 8 683 16
	subq	$8, -16(%rbp)
	.loc 8 686 38
	call	_ZN8Palmtree4Math4Core8InternalL21IncrementDIV64CounterEv
.L95:
	.loc 8 692 16
	movq	48(%rbp), %rax
	movq	-24(%rbp), %rdx
	movq	%rdx, (%rax)
	.loc 8 693 5
	nop
	addq	$80, %rsp
	popq	%rbp
	.cfi_restore 6
	.cfi_def_cfa 7, 8
	ret
	.cfi_endproc
.LFE5074:
	.seh_endproc
	.def	_ZN8Palmtree4Math4Core8InternalL7AsumeQ_Eyyy;	.scl	3;	.type	32;	.endef
	.seh_proc	_ZN8Palmtree4Math4Core8InternalL7AsumeQ_Eyyy
_ZN8Palmtree4Math4Core8InternalL7AsumeQ_Eyyy:
.LFB5075:
	.loc 8 696 5
	.cfi_startproc
	pushq	%rbp
	.seh_pushreg	%rbp
	.cfi_def_cfa_offset 16
	.cfi_offset 6, -16
	movq	%rsp, %rbp
	.seh_setframe	%rbp, 0
	.cfi_def_cfa_register 6
	subq	$48, %rsp
	.seh_stackalloc	48
	.seh_endprologue
	movq	%rcx, 16(%rbp)
	movq	%rdx, 24(%rbp)
	movq	%r8, 32(%rbp)
	.loc 8 697 9
	movq	16(%rbp), %rax
	cmpq	32(%rbp), %rax
	jne	.L97
	.loc 8 698 23
	movq	$-1, %rax
	jmp	.L99
.L97:
	.loc 8 700 37
	leaq	-8(%rbp), %rdx
	movq	32(%rbp), %rcx
	movq	24(%rbp), %rax
	movq	%rdx, %r9
	movq	%rcx, %r8
	movq	%rax, %rdx
	movq	16(%rbp), %rcx
	call	_DIVREM_UNIT
	.loc 8 700 54
	movq	%rax, -16(%rbp)
	.loc 8 703 34
	call	_ZN8Palmtree4Math4Core8InternalL21IncrementDIV64CounterEv
	.loc 8 707 18
	movq	-16(%rbp), %rax
.L99:
	.loc 8 708 5 discriminator 1
	addq	$48, %rsp
	popq	%rbp
	.cfi_restore 6
	.cfi_def_cfa 7, 8
	ret
	.cfi_endproc
.LFE5075:
	.seh_endproc
	.def	_ZN8Palmtree4Math4Core8InternalL7CheckQ_Eyyyyyy;	.scl	3;	.type	32;	.endef
	.seh_proc	_ZN8Palmtree4Math4Core8InternalL7CheckQ_Eyyyyyy
_ZN8Palmtree4Math4Core8InternalL7CheckQ_Eyyyyyy:
.LFB5076:
	.loc 8 711 5
	.cfi_startproc
	pushq	%rbp
	.seh_pushreg	%rbp
	.cfi_def_cfa_offset 16
	.cfi_offset 6, -16
	pushq	%rbx
	.seh_pushreg	%rbx
	.cfi_def_cfa_offset 24
	.cfi_offset 3, -24
	subq	$104, %rsp
	.seh_stackalloc	104
	.cfi_def_cfa_offset 128
	leaq	128(%rsp), %rbp
	.seh_setframe	%rbp, 128
	.cfi_def_cfa 6, 0
	.seh_endprologue
	movq	%rcx, 0(%rbp)
	movq	%rdx, 8(%rbp)
	movq	%r8, 16(%rbp)
	movq	%r9, 24(%rbp)
	.loc 8 713 43
	leaq	-64(%rbp), %rdx
	movq	40(%rbp), %rax
	movq	%rdx, %r8
	movq	0(%rbp), %rdx
	movq	%rax, %rcx
	call	_MULTIPLY_UNIT
	movq	%rax, -40(%rbp)
	.loc 8 716 21
	movq	24(%rbp), %rax
	movq	%rax, -48(%rbp)
	.loc 8 718 42
	leaq	-88(%rbp), %rdx
	movq	32(%rbp), %rax
	movq	%rdx, %r8
	movq	%rax, %rdx
	movq	0(%rbp), %rcx
	call	_MULTIPLY_UNIT
	movq	%rax, -56(%rbp)
	.loc 8 719 23
	movq	-88(%rbp), %rbx
	.loc 8 719 38
	leaq	-80(%rbp), %rdx
	movq	-56(%rbp), %rcx
	movq	16(%rbp), %rax
	movq	%rdx, %r9
	movq	%rcx, %r8
	movq	%rax, %rdx
	movl	$0, %ecx
	call	_SUBTRUCT_UNIT
	.loc 8 719 23
	movsbl	%al, %eax
	leaq	-72(%rbp), %rcx
	movq	8(%rbp), %rdx
	movq	%rcx, %r9
	movq	%rbx, %r8
	movl	%eax, %ecx
	call	_SUBTRUCT_UNIT
	.loc 8 723 32
	movl	$2, %ecx
	call	_ZN8Palmtree4Math4Core8InternalL19AddToMULTI64CounterEi
	.loc 8 727 19
	movq	-72(%rbp), %rax
	.loc 8 727 9
	testq	%rax, %rax
	je	.L101
	.loc 8 728 25
	movl	$0, %eax
	jmp	.L105
.L101:
	.loc 8 729 24
	movq	-64(%rbp), %rdx
	movq	-80(%rbp), %rax
	.loc 8 729 14
	cmpq	%rax, %rdx
	jbe	.L103
	.loc 8 730 24
	movl	$1, %eax
	jmp	.L105
.L103:
	.loc 8 731 24
	movq	-64(%rbp), %rdx
	movq	-80(%rbp), %rax
	.loc 8 731 14
	cmpq	%rax, %rdx
	jnb	.L104
	.loc 8 732 25
	movl	$0, %eax
	jmp	.L105
.L104:
	.loc 8 734 27
	movq	-40(%rbp), %rax
	cmpq	-48(%rbp), %rax
	seta	%al
	.loc 8 734 34
	movzbl	%al, %eax
.L105:
	.loc 8 735 5 discriminator 1
	addq	$104, %rsp
	popq	%rbx
	.cfi_restore 3
	popq	%rbp
	.cfi_restore 6
	.cfi_def_cfa 7, -88
	ret
	.cfi_endproc
.LFE5076:
	.seh_endproc
	.def	_ZN8Palmtree4Math4Core8InternalL8CheckQ_XEyyyyyy;	.scl	3;	.type	32;	.endef
	.seh_proc	_ZN8Palmtree4Math4Core8InternalL8CheckQ_XEyyyyyy
_ZN8Palmtree4Math4Core8InternalL8CheckQ_XEyyyyyy:
.LFB5077:
	.loc 8 738 5
	.cfi_startproc
	pushq	%rbp
	.seh_pushreg	%rbp
	.cfi_def_cfa_offset 16
	.cfi_offset 6, -16
	pushq	%rbx
	.seh_pushreg	%rbx
	.cfi_def_cfa_offset 24
	.cfi_offset 3, -24
	subq	$104, %rsp
	.seh_stackalloc	104
	.cfi_def_cfa_offset 128
	leaq	128(%rsp), %rbp
	.seh_setframe	%rbp, 128
	.cfi_def_cfa 6, 0
	.seh_endprologue
	movq	%rcx, 0(%rbp)
	movq	%rdx, 8(%rbp)
	movq	%r8, 16(%rbp)
	movq	%r9, 24(%rbp)
	.loc 8 740 44
	leaq	-64(%rbp), %rdx
	movq	40(%rbp), %rax
	movq	%rdx, %r8
	movq	0(%rbp), %rdx
	movq	%rax, %rcx
	call	_MULTIPLYX_UNIT
	movq	%rax, -40(%rbp)
	.loc 8 743 21
	movq	24(%rbp), %rax
	movq	%rax, -48(%rbp)
	.loc 8 745 43
	leaq	-88(%rbp), %rdx
	movq	32(%rbp), %rax
	movq	%rdx, %r8
	movq	%rax, %rdx
	movq	0(%rbp), %rcx
	call	_MULTIPLYX_UNIT
	movq	%rax, -56(%rbp)
	.loc 8 747 23
	movq	-88(%rbp), %rbx
	.loc 8 747 38
	leaq	-80(%rbp), %rdx
	movq	-56(%rbp), %rcx
	movq	16(%rbp), %rax
	movq	%rdx, %r9
	movq	%rcx, %r8
	movq	%rax, %rdx
	movl	$0, %ecx
	call	_SUBTRUCT_UNIT
	.loc 8 747 23
	movsbl	%al, %eax
	leaq	-72(%rbp), %rcx
	movq	8(%rbp), %rdx
	movq	%rcx, %r9
	movq	%rbx, %r8
	movl	%eax, %ecx
	call	_SUBTRUCT_UNIT
	.loc 8 751 32
	movl	$2, %ecx
	call	_ZN8Palmtree4Math4Core8InternalL19AddToMULTI64CounterEi
	.loc 8 755 19
	movq	-72(%rbp), %rax
	.loc 8 755 9
	testq	%rax, %rax
	je	.L107
	.loc 8 757 25
	movl	$0, %eax
	jmp	.L111
.L107:
	.loc 8 759 24
	movq	-64(%rbp), %rdx
	movq	-80(%rbp), %rax
	.loc 8 759 14
	cmpq	%rax, %rdx
	jbe	.L109
	.loc 8 761 24
	movl	$1, %eax
	jmp	.L111
.L109:
	.loc 8 763 24
	movq	-64(%rbp), %rdx
	movq	-80(%rbp), %rax
	.loc 8 763 14
	cmpq	%rax, %rdx
	jnb	.L110
	.loc 8 765 25
	movl	$0, %eax
	jmp	.L111
.L110:
	.loc 8 769 27
	movq	-40(%rbp), %rax
	cmpq	-48(%rbp), %rax
	seta	%al
	.loc 8 769 34
	movzbl	%al, %eax
.L111:
	.loc 8 771 5 discriminator 1
	addq	$104, %rsp
	popq	%rbx
	.cfi_restore 3
	popq	%rbp
	.cfi_restore 6
	.cfi_def_cfa 7, -88
	ret
	.cfi_endproc
.LFE5077:
	.seh_endproc
	.def	_ZN8Palmtree4Math4Core8InternalL11CalculateQ_EPyS3_yy;	.scl	3;	.type	32;	.endef
	.seh_proc	_ZN8Palmtree4Math4Core8InternalL11CalculateQ_EPyS3_yy
_ZN8Palmtree4Math4Core8InternalL11CalculateQ_EPyS3_yy:
.LFB5078:
	.loc 8 774 5
	.cfi_startproc
	pushq	%rbp
	.seh_pushreg	%rbp
	.cfi_def_cfa_offset 16
	.cfi_offset 6, -16
	movq	%rsp, %rbp
	.seh_setframe	%rbp, 0
	.cfi_def_cfa_register 6
	subq	$112, %rsp
	.seh_stackalloc	112
	.seh_endprologue
	movq	%rcx, 16(%rbp)
	movq	%rdx, 24(%rbp)
	movq	%r8, 32(%rbp)
	movq	%r9, 40(%rbp)
	.loc 8 775 21
	movq	40(%rbp), %rdx
	movq	32(%rbp), %rax
	addq	%rdx, %rax
	movq	%rax, -8(%rbp)
	.loc 8 776 39
	movq	-8(%rbp), %rax
	leaq	0(,%rax,8), %rdx
	movq	16(%rbp), %rax
	addq	%rdx, %rax
	.loc 8 776 21
	movq	(%rax), %rax
	movq	%rax, -16(%rbp)
	.loc 8 777 45
	movq	-8(%rbp), %rax
	salq	$3, %rax
	leaq	-8(%rax), %rdx
	movq	16(%rbp), %rax
	addq	%rdx, %rax
	.loc 8 777 21
	movq	(%rax), %rax
	movq	%rax, -24(%rbp)
	.loc 8 778 45
	movq	-8(%rbp), %rax
	salq	$3, %rax
	leaq	-16(%rax), %rdx
	movq	16(%rbp), %rax
	addq	%rdx, %rax
	.loc 8 778 21
	movq	(%rax), %rax
	movq	%rax, -32(%rbp)
	.loc 8 779 45
	movq	32(%rbp), %rax
	salq	$3, %rax
	leaq	-8(%rax), %rdx
	movq	24(%rbp), %rax
	addq	%rdx, %rax
	.loc 8 779 21
	movq	(%rax), %rax
	movq	%rax, -40(%rbp)
	.loc 8 780 45
	movq	32(%rbp), %rax
	salq	$3, %rax
	leaq	-16(%rax), %rdx
	movq	24(%rbp), %rax
	addq	%rdx, %rax
	.loc 8 780 21
	movq	(%rax), %rax
	movq	%rax, -48(%rbp)
	.loc 8 781 33
	movq	-40(%rbp), %rcx
	movq	-24(%rbp), %rdx
	movq	-16(%rbp), %rax
	movq	%rcx, %r8
	movq	%rax, %rcx
	call	_ZN8Palmtree4Math4Core8InternalL7AsumeQ_Eyyy
	.loc 8 781 46
	movq	%rax, -56(%rbp)
	.loc 8 782 21
	movq	-56(%rbp), %rax
	movq	-32(%rbp), %r9
	movq	-24(%rbp), %r8
	movq	-16(%rbp), %rdx
	movq	-48(%rbp), %rcx
	movq	%rcx, 40(%rsp)
	movq	-40(%rbp), %rcx
	movq	%rcx, 32(%rsp)
	movq	%rax, %rcx
	call	_ZN8Palmtree4Math4Core8InternalL7CheckQ_Eyyyyyy
	.loc 8 782 13
	testl	%eax, %eax
	sete	%al
	.loc 8 782 9
	testb	%al, %al
	je	.L113
	.loc 8 783 23
	movq	-56(%rbp), %rax
	jmp	.L116
.L113:
	.loc 8 784 9
	movq	-56(%rbp), %rax
	subq	$1, %rax
	movq	%rax, -56(%rbp)
	.loc 8 785 21
	movq	-56(%rbp), %rax
	movq	-32(%rbp), %r9
	movq	-24(%rbp), %r8
	movq	-16(%rbp), %rdx
	movq	-48(%rbp), %rcx
	movq	%rcx, 40(%rsp)
	movq	-40(%rbp), %rcx
	movq	%rcx, 32(%rsp)
	movq	%rax, %rcx
	call	_ZN8Palmtree4Math4Core8InternalL7CheckQ_Eyyyyyy
	.loc 8 785 13
	testl	%eax, %eax
	sete	%al
	.loc 8 785 9
	testb	%al, %al
	je	.L115
	.loc 8 786 23
	movq	-56(%rbp), %rax
	jmp	.L116
.L115:
	.loc 8 787 9
	movq	-56(%rbp), %rax
	subq	$1, %rax
	movq	%rax, -56(%rbp)
	.loc 8 788 19
	movq	-56(%rbp), %rax
.L116:
	.loc 8 789 5 discriminator 1
	addq	$112, %rsp
	popq	%rbp
	.cfi_restore 6
	.cfi_def_cfa 7, 8
	ret
	.cfi_endproc
.LFE5078:
	.seh_endproc
	.def	_ZN8Palmtree4Math4Core8InternalL12CalculateQ_XEPyS3_yy;	.scl	3;	.type	32;	.endef
	.seh_proc	_ZN8Palmtree4Math4Core8InternalL12CalculateQ_XEPyS3_yy
_ZN8Palmtree4Math4Core8InternalL12CalculateQ_XEPyS3_yy:
.LFB5079:
	.loc 8 792 5
	.cfi_startproc
	pushq	%rbp
	.seh_pushreg	%rbp
	.cfi_def_cfa_offset 16
	.cfi_offset 6, -16
	movq	%rsp, %rbp
	.seh_setframe	%rbp, 0
	.cfi_def_cfa_register 6
	subq	$112, %rsp
	.seh_stackalloc	112
	.seh_endprologue
	movq	%rcx, 16(%rbp)
	movq	%rdx, 24(%rbp)
	movq	%r8, 32(%rbp)
	movq	%r9, 40(%rbp)
	.loc 8 793 21
	movq	40(%rbp), %rdx
	movq	32(%rbp), %rax
	addq	%rdx, %rax
	movq	%rax, -8(%rbp)
	.loc 8 794 39
	movq	-8(%rbp), %rax
	leaq	0(,%rax,8), %rdx
	movq	16(%rbp), %rax
	addq	%rdx, %rax
	.loc 8 794 21
	movq	(%rax), %rax
	movq	%rax, -16(%rbp)
	.loc 8 795 45
	movq	-8(%rbp), %rax
	salq	$3, %rax
	leaq	-8(%rax), %rdx
	movq	16(%rbp), %rax
	addq	%rdx, %rax
	.loc 8 795 21
	movq	(%rax), %rax
	movq	%rax, -24(%rbp)
	.loc 8 796 45
	movq	-8(%rbp), %rax
	salq	$3, %rax
	leaq	-16(%rax), %rdx
	movq	16(%rbp), %rax
	addq	%rdx, %rax
	.loc 8 796 21
	movq	(%rax), %rax
	movq	%rax, -32(%rbp)
	.loc 8 797 45
	movq	32(%rbp), %rax
	salq	$3, %rax
	leaq	-8(%rax), %rdx
	movq	24(%rbp), %rax
	addq	%rdx, %rax
	.loc 8 797 21
	movq	(%rax), %rax
	movq	%rax, -40(%rbp)
	.loc 8 798 45
	movq	32(%rbp), %rax
	salq	$3, %rax
	leaq	-16(%rax), %rdx
	movq	24(%rbp), %rax
	addq	%rdx, %rax
	.loc 8 798 21
	movq	(%rax), %rax
	movq	%rax, -48(%rbp)
	.loc 8 799 33
	movq	-40(%rbp), %rcx
	movq	-24(%rbp), %rdx
	movq	-16(%rbp), %rax
	movq	%rcx, %r8
	movq	%rax, %rcx
	call	_ZN8Palmtree4Math4Core8InternalL7AsumeQ_Eyyy
	.loc 8 799 46
	movq	%rax, -56(%rbp)
	.loc 8 800 22
	movq	-56(%rbp), %rax
	movq	-32(%rbp), %r9
	movq	-24(%rbp), %r8
	movq	-16(%rbp), %rdx
	movq	-48(%rbp), %rcx
	movq	%rcx, 40(%rsp)
	movq	-40(%rbp), %rcx
	movq	%rcx, 32(%rsp)
	movq	%rax, %rcx
	call	_ZN8Palmtree4Math4Core8InternalL8CheckQ_XEyyyyyy
	.loc 8 800 13
	testl	%eax, %eax
	sete	%al
	.loc 8 800 9
	testb	%al, %al
	je	.L118
	.loc 8 801 23
	movq	-56(%rbp), %rax
	jmp	.L121
.L118:
	.loc 8 802 9
	movq	-56(%rbp), %rax
	subq	$1, %rax
	movq	%rax, -56(%rbp)
	.loc 8 803 22
	movq	-56(%rbp), %rax
	movq	-32(%rbp), %r9
	movq	-24(%rbp), %r8
	movq	-16(%rbp), %rdx
	movq	-48(%rbp), %rcx
	movq	%rcx, 40(%rsp)
	movq	-40(%rbp), %rcx
	movq	%rcx, 32(%rsp)
	movq	%rax, %rcx
	call	_ZN8Palmtree4Math4Core8InternalL8CheckQ_XEyyyyyy
	.loc 8 803 13
	testl	%eax, %eax
	sete	%al
	.loc 8 803 9
	testb	%al, %al
	je	.L120
	.loc 8 804 23
	movq	-56(%rbp), %rax
	jmp	.L121
.L120:
	.loc 8 805 9
	movq	-56(%rbp), %rax
	subq	$1, %rax
	movq	%rax, -56(%rbp)
	.loc 8 806 19
	movq	-56(%rbp), %rax
.L121:
	.loc 8 807 5 discriminator 1
	addq	$112, %rsp
	popq	%rbp
	.cfi_restore 6
	.cfi_def_cfa 7, 8
	ret
	.cfi_endproc
.LFE5079:
	.seh_endproc
	.def	_ZN8Palmtree4Math4Core8InternalL8DoBorrowEcPyy;	.scl	3;	.type	32;	.endef
	.seh_proc	_ZN8Palmtree4Math4Core8InternalL8DoBorrowEcPyy
_ZN8Palmtree4Math4Core8InternalL8DoBorrowEcPyy:
.LFB5080:
	.loc 8 810 5
	.cfi_startproc
	pushq	%rbp
	.seh_pushreg	%rbp
	.cfi_def_cfa_offset 16
	.cfi_offset 6, -16
	movq	%rsp, %rbp
	.seh_setframe	%rbp, 0
	.cfi_def_cfa_register 6
	subq	$32, %rsp
	.seh_stackalloc	32
	.seh_endprologue
	movl	%ecx, %eax
	movq	%rdx, 24(%rbp)
	movq	%r8, 32(%rbp)
	movb	%al, 16(%rbp)
.L128:
	.loc 8 814 13
	cmpq	$0, 32(%rbp)
	jne	.L123
	.loc 8 818 17
	cmpb	$0, 16(%rbp)
	je	.L124
	.loc 8 823 32
	movl	$1, %eax
	jmp	.L125
.L124:
	.loc 8 828 29
	movl	$0, %eax
	jmp	.L125
.L123:
	.loc 8 830 18
	cmpb	$0, 16(%rbp)
	je	.L126
	.loc 8 835 35
	movq	24(%rbp), %rax
	movq	(%rax), %rdx
	movsbl	16(%rbp), %eax
	movq	24(%rbp), %rcx
	movq	%rcx, %r9
	movl	$0, %r8d
	movl	%eax, %ecx
	call	_SUBTRUCT_UNIT
	movb	%al, 16(%rbp)
	.loc 8 836 17
	addq	$8, 24(%rbp)
	.loc 8 837 17
	subq	$1, 32(%rbp)
	jmp	.L128
.L126:
	.loc 8 844 29
	movl	$0, %eax
.L125:
	.loc 8 847 5
	addq	$32, %rsp
	popq	%rbp
	.cfi_restore 6
	.cfi_def_cfa 7, 8
	ret
	.cfi_endproc
.LFE5080:
	.seh_endproc
	.def	_ZN8Palmtree4Math4Core8InternalL20_MULTIPLY_DIGIT_UNITEcPyS3_yS3_;	.scl	3;	.type	32;	.endef
	.seh_proc	_ZN8Palmtree4Math4Core8InternalL20_MULTIPLY_DIGIT_UNITEcPyS3_yS3_
_ZN8Palmtree4Math4Core8InternalL20_MULTIPLY_DIGIT_UNITEcPyS3_yS3_:
.LFB5081:
	.loc 8 850 5
	.cfi_startproc
	pushq	%rbp
	.seh_pushreg	%rbp
	.cfi_def_cfa_offset 16
	.cfi_offset 6, -16
	pushq	%rbx
	.seh_pushreg	%rbx
	.cfi_def_cfa_offset 24
	.cfi_offset 3, -24
	subq	$56, %rsp
	.seh_stackalloc	56
	.cfi_def_cfa_offset 80
	leaq	128(%rsp), %rbp
	.seh_setframe	%rbp, 128
	.cfi_def_cfa 6, -48
	.seh_endprologue
	movl	%ecx, %eax
	movq	%rdx, -40(%rbp)
	movq	%r8, -32(%rbp)
	movq	%r9, -24(%rbp)
	movb	%al, -48(%rbp)
	.loc 8 853 30
	movq	-32(%rbp), %rax
	movq	(%rax), %rax
	leaq	-88(%rbp), %rcx
	movq	-24(%rbp), %rdx
	movq	%rcx, %r8
	movq	%rax, %rcx
	call	_MULTIPLY_UNIT
	.loc 8 853 14
	movq	%rax, -96(%rbp)
	.loc 8 854 18
	movq	-88(%rbp), %rbx
	.loc 8 854 28
	movq	-40(%rbp), %rax
	movq	(%rax), %rcx
	movq	-96(%rbp), %rax
	leaq	-96(%rbp), %rdx
	movq	%rdx, %r9
	movq	%rcx, %r8
	movq	%rax, %rdx
	movl	$0, %ecx
	call	_ADD_UNIT
	.loc 8 854 18
	movsbl	%al, %eax
	leaq	-88(%rbp), %rdx
	movq	%rdx, %r9
	movl	$0, %r8d
	movq	%rbx, %rdx
	movl	%eax, %ecx
	call	_ADD_UNIT
	.loc 8 855 27
	movq	-96(%rbp), %rcx
	movq	-16(%rbp), %rax
	movq	(%rax), %rdx
	movzbl	-48(%rbp), %eax
	movsbl	%al, %eax
	movq	-16(%rbp), %r8
	movq	%r8, %r9
	movq	%rcx, %r8
	movl	%eax, %ecx
	call	_SUBTRUCT_UNIT
	.loc 8 855 11
	movb	%al, -48(%rbp)
	.loc 8 856 12
	movq	-88(%rbp), %rdx
	movq	-40(%rbp), %rax
	movq	%rdx, (%rax)
	.loc 8 857 18
	movzbl	-48(%rbp), %eax
	.loc 8 858 5
	addq	$56, %rsp
	popq	%rbx
	.cfi_restore 3
	popq	%rbp
	.cfi_restore 6
	.cfi_def_cfa 7, -40
	ret
	.cfi_endproc
.LFE5081:
	.seh_endproc
	.def	_ZN8Palmtree4Math4Core8InternalL25_MULTIPLYX_DIGIT_UNIT_DIVEcPyS3_yS3_;	.scl	3;	.type	32;	.endef
	.seh_proc	_ZN8Palmtree4Math4Core8InternalL25_MULTIPLYX_DIGIT_UNIT_DIVEcPyS3_yS3_
_ZN8Palmtree4Math4Core8InternalL25_MULTIPLYX_DIGIT_UNIT_DIVEcPyS3_yS3_:
.LFB5082:
	.loc 8 861 5
	.cfi_startproc
	pushq	%rbp
	.seh_pushreg	%rbp
	.cfi_def_cfa_offset 16
	.cfi_offset 6, -16
	pushq	%rbx
	.seh_pushreg	%rbx
	.cfi_def_cfa_offset 24
	.cfi_offset 3, -24
	subq	$56, %rsp
	.seh_stackalloc	56
	.cfi_def_cfa_offset 80
	leaq	128(%rsp), %rbp
	.seh_setframe	%rbp, 128
	.cfi_def_cfa 6, -48
	.seh_endprologue
	movl	%ecx, %eax
	movq	%rdx, -40(%rbp)
	movq	%r8, -32(%rbp)
	movq	%r9, -24(%rbp)
	movb	%al, -48(%rbp)
	.loc 8 864 31
	movq	-32(%rbp), %rax
	movq	(%rax), %rax
	leaq	-88(%rbp), %rcx
	movq	-24(%rbp), %rdx
	movq	%rcx, %r8
	movq	%rax, %rcx
	call	_MULTIPLYX_UNIT
	.loc 8 864 14
	movq	%rax, -96(%rbp)
	.loc 8 865 19
	movq	-88(%rbp), %rbx
	.loc 8 865 30
	movq	-40(%rbp), %rax
	movq	(%rax), %rcx
	movq	-96(%rbp), %rax
	leaq	-96(%rbp), %rdx
	movq	%rdx, %r9
	movq	%rcx, %r8
	movq	%rax, %rdx
	movl	$0, %ecx
	call	_ADDX_UNIT
	.loc 8 865 19
	movsbl	%al, %eax
	leaq	-88(%rbp), %rdx
	movq	%rdx, %r9
	movl	$0, %r8d
	movq	%rbx, %rdx
	movl	%eax, %ecx
	call	_ADDX_UNIT
	.loc 8 866 27
	movq	-96(%rbp), %rcx
	movq	-16(%rbp), %rax
	movq	(%rax), %rdx
	movzbl	-48(%rbp), %eax
	movsbl	%al, %eax
	movq	-16(%rbp), %r8
	movq	%r8, %r9
	movq	%rcx, %r8
	movl	%eax, %ecx
	call	_SUBTRUCT_UNIT
	.loc 8 866 11
	movb	%al, -48(%rbp)
	.loc 8 867 12
	movq	-88(%rbp), %rdx
	movq	-40(%rbp), %rax
	movq	%rdx, (%rax)
	.loc 8 868 18
	movzbl	-48(%rbp), %eax
	.loc 8 869 5
	addq	$56, %rsp
	popq	%rbx
	.cfi_restore 3
	popq	%rbp
	.cfi_restore 6
	.cfi_def_cfa 7, -40
	ret
	.cfi_endproc
.LFE5082:
	.seh_endproc
	.def	_ZN8Palmtree4Math4Core8InternalL15SubtructOneLineEPyyS3_yyy;	.scl	3;	.type	32;	.endef
	.seh_proc	_ZN8Palmtree4Math4Core8InternalL15SubtructOneLineEPyyS3_yyy
_ZN8Palmtree4Math4Core8InternalL15SubtructOneLineEPyyS3_yyy:
.LFB5083:
	.loc 8 872 5
	.cfi_startproc
	pushq	%rbp
	.seh_pushreg	%rbp
	.cfi_def_cfa_offset 16
	.cfi_offset 6, -16
	movq	%rsp, %rbp
	.seh_setframe	%rbp, 0
	.cfi_def_cfa_register 6
	subq	$96, %rsp
	.seh_stackalloc	96
	.seh_endprologue
	movq	%rcx, 16(%rbp)
	movq	%rdx, 24(%rbp)
	movq	%r8, 32(%rbp)
	movq	%r9, 40(%rbp)
	.loc 8 873 44
	movq	48(%rbp), %rax
	leaq	0(,%rax,8), %rdx
	.loc 8 873 22
	movq	16(%rbp), %rax
	addq	%rdx, %rax
	movq	%rax, -8(%rbp)
	.loc 8 874 22
	movq	32(%rbp), %rax
	movq	%rax, -16(%rbp)
	.loc 8 875 21
	movq	40(%rbp), %rax
	movq	%rax, -40(%rbp)
	.loc 8 876 21
	movq	$0, -48(%rbp)
	.loc 8 877 14
	movb	$0, -17(%rbp)
	.loc 8 879 21
	movq	-40(%rbp), %rax
	shrq	$5, %rax
	movq	%rax, -32(%rbp)
.L136:
	.loc 8 880 22
	cmpq	$0, -32(%rbp)
	je	.L135
	.loc 8 882 37
	movsbl	-17(%rbp), %eax
	movq	56(%rbp), %r9
	movq	-16(%rbp), %r8
	leaq	-48(%rbp), %rdx
	movq	-8(%rbp), %rcx
	movq	%rcx, 32(%rsp)
	movl	%eax, %ecx
	call	_ZN8Palmtree4Math4Core8InternalL20_MULTIPLY_DIGIT_UNITEcPyS3_yS3_
	movb	%al, -17(%rbp)
	.loc 8 883 37
	movq	-8(%rbp), %rax
	leaq	8(%rax), %rcx
	movq	-16(%rbp), %rax
	leaq	8(%rax), %r8
	movsbl	-17(%rbp), %eax
	movq	56(%rbp), %r9
	leaq	-48(%rbp), %rdx
	movq	%rcx, 32(%rsp)
	movl	%eax, %ecx
	call	_ZN8Palmtree4Math4Core8InternalL20_MULTIPLY_DIGIT_UNITEcPyS3_yS3_
	movb	%al, -17(%rbp)
	.loc 8 884 37
	movq	-8(%rbp), %rax
	leaq	16(%rax), %rcx
	movq	-16(%rbp), %rax
	leaq	16(%rax), %r8
	movsbl	-17(%rbp), %eax
	movq	56(%rbp), %r9
	leaq	-48(%rbp), %rdx
	movq	%rcx, 32(%rsp)
	movl	%eax, %ecx
	call	_ZN8Palmtree4Math4Core8InternalL20_MULTIPLY_DIGIT_UNITEcPyS3_yS3_
	movb	%al, -17(%rbp)
	.loc 8 885 37
	movq	-8(%rbp), %rax
	leaq	24(%rax), %rcx
	movq	-16(%rbp), %rax
	leaq	24(%rax), %r8
	movsbl	-17(%rbp), %eax
	movq	56(%rbp), %r9
	leaq	-48(%rbp), %rdx
	movq	%rcx, 32(%rsp)
	movl	%eax, %ecx
	call	_ZN8Palmtree4Math4Core8InternalL20_MULTIPLY_DIGIT_UNITEcPyS3_yS3_
	movb	%al, -17(%rbp)
	.loc 8 886 37
	movq	-8(%rbp), %rax
	leaq	32(%rax), %rcx
	movq	-16(%rbp), %rax
	leaq	32(%rax), %r8
	movsbl	-17(%rbp), %eax
	movq	56(%rbp), %r9
	leaq	-48(%rbp), %rdx
	movq	%rcx, 32(%rsp)
	movl	%eax, %ecx
	call	_ZN8Palmtree4Math4Core8InternalL20_MULTIPLY_DIGIT_UNITEcPyS3_yS3_
	movb	%al, -17(%rbp)
	.loc 8 887 37
	movq	-8(%rbp), %rax
	leaq	40(%rax), %rcx
	movq	-16(%rbp), %rax
	leaq	40(%rax), %r8
	movsbl	-17(%rbp), %eax
	movq	56(%rbp), %r9
	leaq	-48(%rbp), %rdx
	movq	%rcx, 32(%rsp)
	movl	%eax, %ecx
	call	_ZN8Palmtree4Math4Core8InternalL20_MULTIPLY_DIGIT_UNITEcPyS3_yS3_
	movb	%al, -17(%rbp)
	.loc 8 888 37
	movq	-8(%rbp), %rax
	leaq	48(%rax), %rcx
	movq	-16(%rbp), %rax
	leaq	48(%rax), %r8
	movsbl	-17(%rbp), %eax
	movq	56(%rbp), %r9
	leaq	-48(%rbp), %rdx
	movq	%rcx, 32(%rsp)
	movl	%eax, %ecx
	call	_ZN8Palmtree4Math4Core8InternalL20_MULTIPLY_DIGIT_UNITEcPyS3_yS3_
	movb	%al, -17(%rbp)
	.loc 8 889 37
	movq	-8(%rbp), %rax
	leaq	56(%rax), %rcx
	movq	-16(%rbp), %rax
	leaq	56(%rax), %r8
	movsbl	-17(%rbp), %eax
	movq	56(%rbp), %r9
	leaq	-48(%rbp), %rdx
	movq	%rcx, 32(%rsp)
	movl	%eax, %ecx
	call	_ZN8Palmtree4Math4Core8InternalL20_MULTIPLY_DIGIT_UNITEcPyS3_yS3_
	movb	%al, -17(%rbp)
	.loc 8 890 37
	movq	-8(%rbp), %rax
	leaq	64(%rax), %rcx
	movq	-16(%rbp), %rax
	leaq	64(%rax), %r8
	movsbl	-17(%rbp), %eax
	movq	56(%rbp), %r9
	leaq	-48(%rbp), %rdx
	movq	%rcx, 32(%rsp)
	movl	%eax, %ecx
	call	_ZN8Palmtree4Math4Core8InternalL20_MULTIPLY_DIGIT_UNITEcPyS3_yS3_
	movb	%al, -17(%rbp)
	.loc 8 891 37
	movq	-8(%rbp), %rax
	leaq	72(%rax), %rcx
	movq	-16(%rbp), %rax
	leaq	72(%rax), %r8
	movsbl	-17(%rbp), %eax
	movq	56(%rbp), %r9
	leaq	-48(%rbp), %rdx
	movq	%rcx, 32(%rsp)
	movl	%eax, %ecx
	call	_ZN8Palmtree4Math4Core8InternalL20_MULTIPLY_DIGIT_UNITEcPyS3_yS3_
	movb	%al, -17(%rbp)
	.loc 8 892 37
	movq	-8(%rbp), %rax
	leaq	80(%rax), %rcx
	movq	-16(%rbp), %rax
	leaq	80(%rax), %r8
	movsbl	-17(%rbp), %eax
	movq	56(%rbp), %r9
	leaq	-48(%rbp), %rdx
	movq	%rcx, 32(%rsp)
	movl	%eax, %ecx
	call	_ZN8Palmtree4Math4Core8InternalL20_MULTIPLY_DIGIT_UNITEcPyS3_yS3_
	movb	%al, -17(%rbp)
	.loc 8 893 37
	movq	-8(%rbp), %rax
	leaq	88(%rax), %rcx
	movq	-16(%rbp), %rax
	leaq	88(%rax), %r8
	movsbl	-17(%rbp), %eax
	movq	56(%rbp), %r9
	leaq	-48(%rbp), %rdx
	movq	%rcx, 32(%rsp)
	movl	%eax, %ecx
	call	_ZN8Palmtree4Math4Core8InternalL20_MULTIPLY_DIGIT_UNITEcPyS3_yS3_
	movb	%al, -17(%rbp)
	.loc 8 894 37
	movq	-8(%rbp), %rax
	leaq	96(%rax), %rcx
	movq	-16(%rbp), %rax
	leaq	96(%rax), %r8
	movsbl	-17(%rbp), %eax
	movq	56(%rbp), %r9
	leaq	-48(%rbp), %rdx
	movq	%rcx, 32(%rsp)
	movl	%eax, %ecx
	call	_ZN8Palmtree4Math4Core8InternalL20_MULTIPLY_DIGIT_UNITEcPyS3_yS3_
	movb	%al, -17(%rbp)
	.loc 8 895 37
	movq	-8(%rbp), %rax
	leaq	104(%rax), %rcx
	movq	-16(%rbp), %rax
	leaq	104(%rax), %r8
	movsbl	-17(%rbp), %eax
	movq	56(%rbp), %r9
	leaq	-48(%rbp), %rdx
	movq	%rcx, 32(%rsp)
	movl	%eax, %ecx
	call	_ZN8Palmtree4Math4Core8InternalL20_MULTIPLY_DIGIT_UNITEcPyS3_yS3_
	movb	%al, -17(%rbp)
	.loc 8 896 37
	movq	-8(%rbp), %rax
	leaq	112(%rax), %rcx
	movq	-16(%rbp), %rax
	leaq	112(%rax), %r8
	movsbl	-17(%rbp), %eax
	movq	56(%rbp), %r9
	leaq	-48(%rbp), %rdx
	movq	%rcx, 32(%rsp)
	movl	%eax, %ecx
	call	_ZN8Palmtree4Math4Core8InternalL20_MULTIPLY_DIGIT_UNITEcPyS3_yS3_
	movb	%al, -17(%rbp)
	.loc 8 897 37
	movq	-8(%rbp), %rax
	leaq	120(%rax), %rcx
	movq	-16(%rbp), %rax
	leaq	120(%rax), %r8
	movsbl	-17(%rbp), %eax
	movq	56(%rbp), %r9
	leaq	-48(%rbp), %rdx
	movq	%rcx, 32(%rsp)
	movl	%eax, %ecx
	call	_ZN8Palmtree4Math4Core8InternalL20_MULTIPLY_DIGIT_UNITEcPyS3_yS3_
	movb	%al, -17(%rbp)
	.loc 8 898 37
	movq	-8(%rbp), %rax
	leaq	128(%rax), %rcx
	movq	-16(%rbp), %rax
	leaq	128(%rax), %r8
	movsbl	-17(%rbp), %eax
	movq	56(%rbp), %r9
	leaq	-48(%rbp), %rdx
	movq	%rcx, 32(%rsp)
	movl	%eax, %ecx
	call	_ZN8Palmtree4Math4Core8InternalL20_MULTIPLY_DIGIT_UNITEcPyS3_yS3_
	movb	%al, -17(%rbp)
	.loc 8 899 37
	movq	-8(%rbp), %rax
	leaq	136(%rax), %rcx
	movq	-16(%rbp), %rax
	leaq	136(%rax), %r8
	movsbl	-17(%rbp), %eax
	movq	56(%rbp), %r9
	leaq	-48(%rbp), %rdx
	movq	%rcx, 32(%rsp)
	movl	%eax, %ecx
	call	_ZN8Palmtree4Math4Core8InternalL20_MULTIPLY_DIGIT_UNITEcPyS3_yS3_
	movb	%al, -17(%rbp)
	.loc 8 900 37
	movq	-8(%rbp), %rax
	leaq	144(%rax), %rcx
	movq	-16(%rbp), %rax
	leaq	144(%rax), %r8
	movsbl	-17(%rbp), %eax
	movq	56(%rbp), %r9
	leaq	-48(%rbp), %rdx
	movq	%rcx, 32(%rsp)
	movl	%eax, %ecx
	call	_ZN8Palmtree4Math4Core8InternalL20_MULTIPLY_DIGIT_UNITEcPyS3_yS3_
	movb	%al, -17(%rbp)
	.loc 8 901 37
	movq	-8(%rbp), %rax
	leaq	152(%rax), %rcx
	movq	-16(%rbp), %rax
	leaq	152(%rax), %r8
	movsbl	-17(%rbp), %eax
	movq	56(%rbp), %r9
	leaq	-48(%rbp), %rdx
	movq	%rcx, 32(%rsp)
	movl	%eax, %ecx
	call	_ZN8Palmtree4Math4Core8InternalL20_MULTIPLY_DIGIT_UNITEcPyS3_yS3_
	movb	%al, -17(%rbp)
	.loc 8 902 37
	movq	-8(%rbp), %rax
	leaq	160(%rax), %rcx
	movq	-16(%rbp), %rax
	leaq	160(%rax), %r8
	movsbl	-17(%rbp), %eax
	movq	56(%rbp), %r9
	leaq	-48(%rbp), %rdx
	movq	%rcx, 32(%rsp)
	movl	%eax, %ecx
	call	_ZN8Palmtree4Math4Core8InternalL20_MULTIPLY_DIGIT_UNITEcPyS3_yS3_
	movb	%al, -17(%rbp)
	.loc 8 903 37
	movq	-8(%rbp), %rax
	leaq	168(%rax), %rcx
	movq	-16(%rbp), %rax
	leaq	168(%rax), %r8
	movsbl	-17(%rbp), %eax
	movq	56(%rbp), %r9
	leaq	-48(%rbp), %rdx
	movq	%rcx, 32(%rsp)
	movl	%eax, %ecx
	call	_ZN8Palmtree4Math4Core8InternalL20_MULTIPLY_DIGIT_UNITEcPyS3_yS3_
	movb	%al, -17(%rbp)
	.loc 8 904 37
	movq	-8(%rbp), %rax
	leaq	176(%rax), %rcx
	movq	-16(%rbp), %rax
	leaq	176(%rax), %r8
	movsbl	-17(%rbp), %eax
	movq	56(%rbp), %r9
	leaq	-48(%rbp), %rdx
	movq	%rcx, 32(%rsp)
	movl	%eax, %ecx
	call	_ZN8Palmtree4Math4Core8InternalL20_MULTIPLY_DIGIT_UNITEcPyS3_yS3_
	movb	%al, -17(%rbp)
	.loc 8 905 37
	movq	-8(%rbp), %rax
	leaq	184(%rax), %rcx
	movq	-16(%rbp), %rax
	leaq	184(%rax), %r8
	movsbl	-17(%rbp), %eax
	movq	56(%rbp), %r9
	leaq	-48(%rbp), %rdx
	movq	%rcx, 32(%rsp)
	movl	%eax, %ecx
	call	_ZN8Palmtree4Math4Core8InternalL20_MULTIPLY_DIGIT_UNITEcPyS3_yS3_
	movb	%al, -17(%rbp)
	.loc 8 906 37
	movq	-8(%rbp), %rax
	leaq	192(%rax), %rcx
	movq	-16(%rbp), %rax
	leaq	192(%rax), %r8
	movsbl	-17(%rbp), %eax
	movq	56(%rbp), %r9
	leaq	-48(%rbp), %rdx
	movq	%rcx, 32(%rsp)
	movl	%eax, %ecx
	call	_ZN8Palmtree4Math4Core8InternalL20_MULTIPLY_DIGIT_UNITEcPyS3_yS3_
	movb	%al, -17(%rbp)
	.loc 8 907 37
	movq	-8(%rbp), %rax
	leaq	200(%rax), %rcx
	movq	-16(%rbp), %rax
	leaq	200(%rax), %r8
	movsbl	-17(%rbp), %eax
	movq	56(%rbp), %r9
	leaq	-48(%rbp), %rdx
	movq	%rcx, 32(%rsp)
	movl	%eax, %ecx
	call	_ZN8Palmtree4Math4Core8InternalL20_MULTIPLY_DIGIT_UNITEcPyS3_yS3_
	movb	%al, -17(%rbp)
	.loc 8 908 37
	movq	-8(%rbp), %rax
	leaq	208(%rax), %rcx
	movq	-16(%rbp), %rax
	leaq	208(%rax), %r8
	movsbl	-17(%rbp), %eax
	movq	56(%rbp), %r9
	leaq	-48(%rbp), %rdx
	movq	%rcx, 32(%rsp)
	movl	%eax, %ecx
	call	_ZN8Palmtree4Math4Core8InternalL20_MULTIPLY_DIGIT_UNITEcPyS3_yS3_
	movb	%al, -17(%rbp)
	.loc 8 909 37
	movq	-8(%rbp), %rax
	leaq	216(%rax), %rcx
	movq	-16(%rbp), %rax
	leaq	216(%rax), %r8
	movsbl	-17(%rbp), %eax
	movq	56(%rbp), %r9
	leaq	-48(%rbp), %rdx
	movq	%rcx, 32(%rsp)
	movl	%eax, %ecx
	call	_ZN8Palmtree4Math4Core8InternalL20_MULTIPLY_DIGIT_UNITEcPyS3_yS3_
	movb	%al, -17(%rbp)
	.loc 8 910 37
	movq	-8(%rbp), %rax
	leaq	224(%rax), %rcx
	movq	-16(%rbp), %rax
	leaq	224(%rax), %r8
	movsbl	-17(%rbp), %eax
	movq	56(%rbp), %r9
	leaq	-48(%rbp), %rdx
	movq	%rcx, 32(%rsp)
	movl	%eax, %ecx
	call	_ZN8Palmtree4Math4Core8InternalL20_MULTIPLY_DIGIT_UNITEcPyS3_yS3_
	movb	%al, -17(%rbp)
	.loc 8 911 37
	movq	-8(%rbp), %rax
	leaq	232(%rax), %rcx
	movq	-16(%rbp), %rax
	leaq	232(%rax), %r8
	movsbl	-17(%rbp), %eax
	movq	56(%rbp), %r9
	leaq	-48(%rbp), %rdx
	movq	%rcx, 32(%rsp)
	movl	%eax, %ecx
	call	_ZN8Palmtree4Math4Core8InternalL20_MULTIPLY_DIGIT_UNITEcPyS3_yS3_
	movb	%al, -17(%rbp)
	.loc 8 912 37
	movq	-8(%rbp), %rax
	leaq	240(%rax), %rcx
	movq	-16(%rbp), %rax
	leaq	240(%rax), %r8
	movsbl	-17(%rbp), %eax
	movq	56(%rbp), %r9
	leaq	-48(%rbp), %rdx
	movq	%rcx, 32(%rsp)
	movl	%eax, %ecx
	call	_ZN8Palmtree4Math4Core8InternalL20_MULTIPLY_DIGIT_UNITEcPyS3_yS3_
	movb	%al, -17(%rbp)
	.loc 8 913 37
	movq	-8(%rbp), %rax
	leaq	248(%rax), %rcx
	movq	-16(%rbp), %rax
	leaq	248(%rax), %r8
	movsbl	-17(%rbp), %eax
	movq	56(%rbp), %r9
	leaq	-48(%rbp), %rdx
	movq	%rcx, 32(%rsp)
	movl	%eax, %ecx
	call	_ZN8Palmtree4Math4Core8InternalL20_MULTIPLY_DIGIT_UNITEcPyS3_yS3_
	movb	%al, -17(%rbp)
	.loc 8 914 19
	addq	$256, -8(%rbp)
	.loc 8 915 19
	addq	$256, -16(%rbp)
	.loc 8 916 13
	subq	$1, -32(%rbp)
	.loc 8 919 36
	movl	$32, %ecx
	call	_ZN8Palmtree4Math4Core8InternalL19AddToMULTI64CounterEi
	.loc 8 880 9
	jmp	.L136
.L135:
	.loc 8 925 21
	movq	-40(%rbp), %rax
	andl	$16, %eax
	.loc 8 925 9
	testq	%rax, %rax
	je	.L137
	.loc 8 927 37
	movsbl	-17(%rbp), %eax
	movq	56(%rbp), %r9
	movq	-16(%rbp), %r8
	leaq	-48(%rbp), %rdx
	movq	-8(%rbp), %rcx
	movq	%rcx, 32(%rsp)
	movl	%eax, %ecx
	call	_ZN8Palmtree4Math4Core8InternalL20_MULTIPLY_DIGIT_UNITEcPyS3_yS3_
	movb	%al, -17(%rbp)
	.loc 8 928 37
	movq	-8(%rbp), %rax
	leaq	8(%rax), %rcx
	movq	-16(%rbp), %rax
	leaq	8(%rax), %r8
	movsbl	-17(%rbp), %eax
	movq	56(%rbp), %r9
	leaq	-48(%rbp), %rdx
	movq	%rcx, 32(%rsp)
	movl	%eax, %ecx
	call	_ZN8Palmtree4Math4Core8InternalL20_MULTIPLY_DIGIT_UNITEcPyS3_yS3_
	movb	%al, -17(%rbp)
	.loc 8 929 37
	movq	-8(%rbp), %rax
	leaq	16(%rax), %rcx
	movq	-16(%rbp), %rax
	leaq	16(%rax), %r8
	movsbl	-17(%rbp), %eax
	movq	56(%rbp), %r9
	leaq	-48(%rbp), %rdx
	movq	%rcx, 32(%rsp)
	movl	%eax, %ecx
	call	_ZN8Palmtree4Math4Core8InternalL20_MULTIPLY_DIGIT_UNITEcPyS3_yS3_
	movb	%al, -17(%rbp)
	.loc 8 930 37
	movq	-8(%rbp), %rax
	leaq	24(%rax), %rcx
	movq	-16(%rbp), %rax
	leaq	24(%rax), %r8
	movsbl	-17(%rbp), %eax
	movq	56(%rbp), %r9
	leaq	-48(%rbp), %rdx
	movq	%rcx, 32(%rsp)
	movl	%eax, %ecx
	call	_ZN8Palmtree4Math4Core8InternalL20_MULTIPLY_DIGIT_UNITEcPyS3_yS3_
	movb	%al, -17(%rbp)
	.loc 8 931 37
	movq	-8(%rbp), %rax
	leaq	32(%rax), %rcx
	movq	-16(%rbp), %rax
	leaq	32(%rax), %r8
	movsbl	-17(%rbp), %eax
	movq	56(%rbp), %r9
	leaq	-48(%rbp), %rdx
	movq	%rcx, 32(%rsp)
	movl	%eax, %ecx
	call	_ZN8Palmtree4Math4Core8InternalL20_MULTIPLY_DIGIT_UNITEcPyS3_yS3_
	movb	%al, -17(%rbp)
	.loc 8 932 37
	movq	-8(%rbp), %rax
	leaq	40(%rax), %rcx
	movq	-16(%rbp), %rax
	leaq	40(%rax), %r8
	movsbl	-17(%rbp), %eax
	movq	56(%rbp), %r9
	leaq	-48(%rbp), %rdx
	movq	%rcx, 32(%rsp)
	movl	%eax, %ecx
	call	_ZN8Palmtree4Math4Core8InternalL20_MULTIPLY_DIGIT_UNITEcPyS3_yS3_
	movb	%al, -17(%rbp)
	.loc 8 933 37
	movq	-8(%rbp), %rax
	leaq	48(%rax), %rcx
	movq	-16(%rbp), %rax
	leaq	48(%rax), %r8
	movsbl	-17(%rbp), %eax
	movq	56(%rbp), %r9
	leaq	-48(%rbp), %rdx
	movq	%rcx, 32(%rsp)
	movl	%eax, %ecx
	call	_ZN8Palmtree4Math4Core8InternalL20_MULTIPLY_DIGIT_UNITEcPyS3_yS3_
	movb	%al, -17(%rbp)
	.loc 8 934 37
	movq	-8(%rbp), %rax
	leaq	56(%rax), %rcx
	movq	-16(%rbp), %rax
	leaq	56(%rax), %r8
	movsbl	-17(%rbp), %eax
	movq	56(%rbp), %r9
	leaq	-48(%rbp), %rdx
	movq	%rcx, 32(%rsp)
	movl	%eax, %ecx
	call	_ZN8Palmtree4Math4Core8InternalL20_MULTIPLY_DIGIT_UNITEcPyS3_yS3_
	movb	%al, -17(%rbp)
	.loc 8 935 37
	movq	-8(%rbp), %rax
	leaq	64(%rax), %rcx
	movq	-16(%rbp), %rax
	leaq	64(%rax), %r8
	movsbl	-17(%rbp), %eax
	movq	56(%rbp), %r9
	leaq	-48(%rbp), %rdx
	movq	%rcx, 32(%rsp)
	movl	%eax, %ecx
	call	_ZN8Palmtree4Math4Core8InternalL20_MULTIPLY_DIGIT_UNITEcPyS3_yS3_
	movb	%al, -17(%rbp)
	.loc 8 936 37
	movq	-8(%rbp), %rax
	leaq	72(%rax), %rcx
	movq	-16(%rbp), %rax
	leaq	72(%rax), %r8
	movsbl	-17(%rbp), %eax
	movq	56(%rbp), %r9
	leaq	-48(%rbp), %rdx
	movq	%rcx, 32(%rsp)
	movl	%eax, %ecx
	call	_ZN8Palmtree4Math4Core8InternalL20_MULTIPLY_DIGIT_UNITEcPyS3_yS3_
	movb	%al, -17(%rbp)
	.loc 8 937 37
	movq	-8(%rbp), %rax
	leaq	80(%rax), %rcx
	movq	-16(%rbp), %rax
	leaq	80(%rax), %r8
	movsbl	-17(%rbp), %eax
	movq	56(%rbp), %r9
	leaq	-48(%rbp), %rdx
	movq	%rcx, 32(%rsp)
	movl	%eax, %ecx
	call	_ZN8Palmtree4Math4Core8InternalL20_MULTIPLY_DIGIT_UNITEcPyS3_yS3_
	movb	%al, -17(%rbp)
	.loc 8 938 37
	movq	-8(%rbp), %rax
	leaq	88(%rax), %rcx
	movq	-16(%rbp), %rax
	leaq	88(%rax), %r8
	movsbl	-17(%rbp), %eax
	movq	56(%rbp), %r9
	leaq	-48(%rbp), %rdx
	movq	%rcx, 32(%rsp)
	movl	%eax, %ecx
	call	_ZN8Palmtree4Math4Core8InternalL20_MULTIPLY_DIGIT_UNITEcPyS3_yS3_
	movb	%al, -17(%rbp)
	.loc 8 939 37
	movq	-8(%rbp), %rax
	leaq	96(%rax), %rcx
	movq	-16(%rbp), %rax
	leaq	96(%rax), %r8
	movsbl	-17(%rbp), %eax
	movq	56(%rbp), %r9
	leaq	-48(%rbp), %rdx
	movq	%rcx, 32(%rsp)
	movl	%eax, %ecx
	call	_ZN8Palmtree4Math4Core8InternalL20_MULTIPLY_DIGIT_UNITEcPyS3_yS3_
	movb	%al, -17(%rbp)
	.loc 8 940 37
	movq	-8(%rbp), %rax
	leaq	104(%rax), %rcx
	movq	-16(%rbp), %rax
	leaq	104(%rax), %r8
	movsbl	-17(%rbp), %eax
	movq	56(%rbp), %r9
	leaq	-48(%rbp), %rdx
	movq	%rcx, 32(%rsp)
	movl	%eax, %ecx
	call	_ZN8Palmtree4Math4Core8InternalL20_MULTIPLY_DIGIT_UNITEcPyS3_yS3_
	movb	%al, -17(%rbp)
	.loc 8 941 37
	movq	-8(%rbp), %rax
	leaq	112(%rax), %rcx
	movq	-16(%rbp), %rax
	leaq	112(%rax), %r8
	movsbl	-17(%rbp), %eax
	movq	56(%rbp), %r9
	leaq	-48(%rbp), %rdx
	movq	%rcx, 32(%rsp)
	movl	%eax, %ecx
	call	_ZN8Palmtree4Math4Core8InternalL20_MULTIPLY_DIGIT_UNITEcPyS3_yS3_
	movb	%al, -17(%rbp)
	.loc 8 942 37
	movq	-8(%rbp), %rax
	leaq	120(%rax), %rcx
	movq	-16(%rbp), %rax
	leaq	120(%rax), %r8
	movsbl	-17(%rbp), %eax
	movq	56(%rbp), %r9
	leaq	-48(%rbp), %rdx
	movq	%rcx, 32(%rsp)
	movl	%eax, %ecx
	call	_ZN8Palmtree4Math4Core8InternalL20_MULTIPLY_DIGIT_UNITEcPyS3_yS3_
	movb	%al, -17(%rbp)
	.loc 8 943 19
	subq	$-128, -8(%rbp)
	.loc 8 944 19
	subq	$-128, -16(%rbp)
	.loc 8 947 36
	movl	$16, %ecx
	call	_ZN8Palmtree4Math4Core8InternalL19AddToMULTI64CounterEi
.L137:
	.loc 8 953 21
	movq	-40(%rbp), %rax
	andl	$8, %eax
	.loc 8 953 9
	testq	%rax, %rax
	je	.L138
	.loc 8 955 37
	movsbl	-17(%rbp), %eax
	movq	56(%rbp), %r9
	movq	-16(%rbp), %r8
	leaq	-48(%rbp), %rdx
	movq	-8(%rbp), %rcx
	movq	%rcx, 32(%rsp)
	movl	%eax, %ecx
	call	_ZN8Palmtree4Math4Core8InternalL20_MULTIPLY_DIGIT_UNITEcPyS3_yS3_
	movb	%al, -17(%rbp)
	.loc 8 956 37
	movq	-8(%rbp), %rax
	leaq	8(%rax), %rcx
	movq	-16(%rbp), %rax
	leaq	8(%rax), %r8
	movsbl	-17(%rbp), %eax
	movq	56(%rbp), %r9
	leaq	-48(%rbp), %rdx
	movq	%rcx, 32(%rsp)
	movl	%eax, %ecx
	call	_ZN8Palmtree4Math4Core8InternalL20_MULTIPLY_DIGIT_UNITEcPyS3_yS3_
	movb	%al, -17(%rbp)
	.loc 8 957 37
	movq	-8(%rbp), %rax
	leaq	16(%rax), %rcx
	movq	-16(%rbp), %rax
	leaq	16(%rax), %r8
	movsbl	-17(%rbp), %eax
	movq	56(%rbp), %r9
	leaq	-48(%rbp), %rdx
	movq	%rcx, 32(%rsp)
	movl	%eax, %ecx
	call	_ZN8Palmtree4Math4Core8InternalL20_MULTIPLY_DIGIT_UNITEcPyS3_yS3_
	movb	%al, -17(%rbp)
	.loc 8 958 37
	movq	-8(%rbp), %rax
	leaq	24(%rax), %rcx
	movq	-16(%rbp), %rax
	leaq	24(%rax), %r8
	movsbl	-17(%rbp), %eax
	movq	56(%rbp), %r9
	leaq	-48(%rbp), %rdx
	movq	%rcx, 32(%rsp)
	movl	%eax, %ecx
	call	_ZN8Palmtree4Math4Core8InternalL20_MULTIPLY_DIGIT_UNITEcPyS3_yS3_
	movb	%al, -17(%rbp)
	.loc 8 959 37
	movq	-8(%rbp), %rax
	leaq	32(%rax), %rcx
	movq	-16(%rbp), %rax
	leaq	32(%rax), %r8
	movsbl	-17(%rbp), %eax
	movq	56(%rbp), %r9
	leaq	-48(%rbp), %rdx
	movq	%rcx, 32(%rsp)
	movl	%eax, %ecx
	call	_ZN8Palmtree4Math4Core8InternalL20_MULTIPLY_DIGIT_UNITEcPyS3_yS3_
	movb	%al, -17(%rbp)
	.loc 8 960 37
	movq	-8(%rbp), %rax
	leaq	40(%rax), %rcx
	movq	-16(%rbp), %rax
	leaq	40(%rax), %r8
	movsbl	-17(%rbp), %eax
	movq	56(%rbp), %r9
	leaq	-48(%rbp), %rdx
	movq	%rcx, 32(%rsp)
	movl	%eax, %ecx
	call	_ZN8Palmtree4Math4Core8InternalL20_MULTIPLY_DIGIT_UNITEcPyS3_yS3_
	movb	%al, -17(%rbp)
	.loc 8 961 37
	movq	-8(%rbp), %rax
	leaq	48(%rax), %rcx
	movq	-16(%rbp), %rax
	leaq	48(%rax), %r8
	movsbl	-17(%rbp), %eax
	movq	56(%rbp), %r9
	leaq	-48(%rbp), %rdx
	movq	%rcx, 32(%rsp)
	movl	%eax, %ecx
	call	_ZN8Palmtree4Math4Core8InternalL20_MULTIPLY_DIGIT_UNITEcPyS3_yS3_
	movb	%al, -17(%rbp)
	.loc 8 962 37
	movq	-8(%rbp), %rax
	leaq	56(%rax), %rcx
	movq	-16(%rbp), %rax
	leaq	56(%rax), %r8
	movsbl	-17(%rbp), %eax
	movq	56(%rbp), %r9
	leaq	-48(%rbp), %rdx
	movq	%rcx, 32(%rsp)
	movl	%eax, %ecx
	call	_ZN8Palmtree4Math4Core8InternalL20_MULTIPLY_DIGIT_UNITEcPyS3_yS3_
	movb	%al, -17(%rbp)
	.loc 8 963 19
	addq	$64, -8(%rbp)
	.loc 8 964 19
	addq	$64, -16(%rbp)
	.loc 8 967 36
	movl	$8, %ecx
	call	_ZN8Palmtree4Math4Core8InternalL19AddToMULTI64CounterEi
.L138:
	.loc 8 973 21
	movq	-40(%rbp), %rax
	andl	$4, %eax
	.loc 8 973 9
	testq	%rax, %rax
	je	.L139
	.loc 8 975 37
	movsbl	-17(%rbp), %eax
	movq	56(%rbp), %r9
	movq	-16(%rbp), %r8
	leaq	-48(%rbp), %rdx
	movq	-8(%rbp), %rcx
	movq	%rcx, 32(%rsp)
	movl	%eax, %ecx
	call	_ZN8Palmtree4Math4Core8InternalL20_MULTIPLY_DIGIT_UNITEcPyS3_yS3_
	movb	%al, -17(%rbp)
	.loc 8 976 37
	movq	-8(%rbp), %rax
	leaq	8(%rax), %rcx
	movq	-16(%rbp), %rax
	leaq	8(%rax), %r8
	movsbl	-17(%rbp), %eax
	movq	56(%rbp), %r9
	leaq	-48(%rbp), %rdx
	movq	%rcx, 32(%rsp)
	movl	%eax, %ecx
	call	_ZN8Palmtree4Math4Core8InternalL20_MULTIPLY_DIGIT_UNITEcPyS3_yS3_
	movb	%al, -17(%rbp)
	.loc 8 977 37
	movq	-8(%rbp), %rax
	leaq	16(%rax), %rcx
	movq	-16(%rbp), %rax
	leaq	16(%rax), %r8
	movsbl	-17(%rbp), %eax
	movq	56(%rbp), %r9
	leaq	-48(%rbp), %rdx
	movq	%rcx, 32(%rsp)
	movl	%eax, %ecx
	call	_ZN8Palmtree4Math4Core8InternalL20_MULTIPLY_DIGIT_UNITEcPyS3_yS3_
	movb	%al, -17(%rbp)
	.loc 8 978 37
	movq	-8(%rbp), %rax
	leaq	24(%rax), %rcx
	movq	-16(%rbp), %rax
	leaq	24(%rax), %r8
	movsbl	-17(%rbp), %eax
	movq	56(%rbp), %r9
	leaq	-48(%rbp), %rdx
	movq	%rcx, 32(%rsp)
	movl	%eax, %ecx
	call	_ZN8Palmtree4Math4Core8InternalL20_MULTIPLY_DIGIT_UNITEcPyS3_yS3_
	movb	%al, -17(%rbp)
	.loc 8 979 19
	addq	$32, -8(%rbp)
	.loc 8 980 19
	addq	$32, -16(%rbp)
	.loc 8 983 36
	movl	$4, %ecx
	call	_ZN8Palmtree4Math4Core8InternalL19AddToMULTI64CounterEi
.L139:
	.loc 8 989 21
	movq	-40(%rbp), %rax
	andl	$2, %eax
	.loc 8 989 9
	testq	%rax, %rax
	je	.L140
	.loc 8 991 37
	movsbl	-17(%rbp), %eax
	movq	56(%rbp), %r9
	movq	-16(%rbp), %r8
	leaq	-48(%rbp), %rdx
	movq	-8(%rbp), %rcx
	movq	%rcx, 32(%rsp)
	movl	%eax, %ecx
	call	_ZN8Palmtree4Math4Core8InternalL20_MULTIPLY_DIGIT_UNITEcPyS3_yS3_
	movb	%al, -17(%rbp)
	.loc 8 992 37
	movq	-8(%rbp), %rax
	leaq	8(%rax), %rcx
	movq	-16(%rbp), %rax
	leaq	8(%rax), %r8
	movsbl	-17(%rbp), %eax
	movq	56(%rbp), %r9
	leaq	-48(%rbp), %rdx
	movq	%rcx, 32(%rsp)
	movl	%eax, %ecx
	call	_ZN8Palmtree4Math4Core8InternalL20_MULTIPLY_DIGIT_UNITEcPyS3_yS3_
	movb	%al, -17(%rbp)
	.loc 8 993 19
	addq	$16, -8(%rbp)
	.loc 8 994 19
	addq	$16, -16(%rbp)
	.loc 8 997 36
	movl	$2, %ecx
	call	_ZN8Palmtree4Math4Core8InternalL19AddToMULTI64CounterEi
.L140:
	.loc 8 1003 21
	movq	-40(%rbp), %rax
	andl	$1, %eax
	.loc 8 1003 9
	testq	%rax, %rax
	je	.L141
	.loc 8 1005 37
	movsbl	-17(%rbp), %eax
	movq	56(%rbp), %r9
	movq	-16(%rbp), %r8
	leaq	-48(%rbp), %rdx
	movq	-8(%rbp), %rcx
	movq	%rcx, 32(%rsp)
	movl	%eax, %ecx
	call	_ZN8Palmtree4Math4Core8InternalL20_MULTIPLY_DIGIT_UNITEcPyS3_yS3_
	movb	%al, -17(%rbp)
	.loc 8 1006 19
	addq	$8, -8(%rbp)
	.loc 8 1007 19
	addq	$8, -16(%rbp)
	.loc 8 1010 40
	call	_ZN8Palmtree4Math4Core8InternalL23IncrementMULTI64CounterEv
.L141:
	.loc 8 1016 27
	movq	-48(%rbp), %rcx
	movq	-8(%rbp), %rax
	movq	(%rax), %rdx
	movsbl	-17(%rbp), %eax
	movq	-8(%rbp), %r8
	movq	%r8, %r9
	movq	%rcx, %r8
	movl	%eax, %ecx
	call	_SUBTRUCT_UNIT
	movb	%al, -17(%rbp)
	.loc 8 1017 15
	addq	$8, -8(%rbp)
	.loc 8 1019 54
	movq	24(%rbp), %rax
	addq	$1, %rax
	leaq	0(,%rax,8), %rdx
	movq	16(%rbp), %rax
	addq	%rdx, %rax
	.loc 8 1019 58
	subq	-8(%rbp), %rax
	sarq	$3, %rax
	.loc 8 1019 25
	movq	%rax, %rcx
	movsbl	-17(%rbp), %eax
	movq	-8(%rbp), %rdx
	movq	%rcx, %r8
	movl	%eax, %ecx
	call	_ZN8Palmtree4Math4Core8InternalL8DoBorrowEcPyy
	.loc 8 1019 66
	nop
	.loc 8 1020 5
	addq	$96, %rsp
	popq	%rbp
	.cfi_restore 6
	.cfi_def_cfa 7, 8
	ret
	.cfi_endproc
.LFE5083:
	.seh_endproc
	.def	_ZN8Palmtree4Math4Core8InternalL16SubtructOneLineXEPyyS3_yyy;	.scl	3;	.type	32;	.endef
	.seh_proc	_ZN8Palmtree4Math4Core8InternalL16SubtructOneLineXEPyyS3_yyy
_ZN8Palmtree4Math4Core8InternalL16SubtructOneLineXEPyyS3_yyy:
.LFB5084:
	.loc 8 1023 5
	.cfi_startproc
	pushq	%rbp
	.seh_pushreg	%rbp
	.cfi_def_cfa_offset 16
	.cfi_offset 6, -16
	movq	%rsp, %rbp
	.seh_setframe	%rbp, 0
	.cfi_def_cfa_register 6
	subq	$96, %rsp
	.seh_stackalloc	96
	.seh_endprologue
	movq	%rcx, 16(%rbp)
	movq	%rdx, 24(%rbp)
	movq	%r8, 32(%rbp)
	movq	%r9, 40(%rbp)
	.loc 8 1024 44
	movq	48(%rbp), %rax
	leaq	0(,%rax,8), %rdx
	.loc 8 1024 22
	movq	16(%rbp), %rax
	addq	%rdx, %rax
	movq	%rax, -8(%rbp)
	.loc 8 1025 22
	movq	32(%rbp), %rax
	movq	%rax, -16(%rbp)
	.loc 8 1026 21
	movq	40(%rbp), %rax
	movq	%rax, -40(%rbp)
	.loc 8 1027 21
	movq	$0, -48(%rbp)
	.loc 8 1028 14
	movb	$0, -17(%rbp)
	.loc 8 1030 21
	movq	-40(%rbp), %rax
	shrq	$5, %rax
	movq	%rax, -32(%rbp)
.L145:
	.loc 8 1031 22
	cmpq	$0, -32(%rbp)
	je	.L144
	.loc 8 1033 42
	movsbl	-17(%rbp), %eax
	movq	56(%rbp), %r9
	movq	-16(%rbp), %r8
	leaq	-48(%rbp), %rdx
	movq	-8(%rbp), %rcx
	movq	%rcx, 32(%rsp)
	movl	%eax, %ecx
	call	_ZN8Palmtree4Math4Core8InternalL25_MULTIPLYX_DIGIT_UNIT_DIVEcPyS3_yS3_
	movb	%al, -17(%rbp)
	.loc 8 1034 42
	movq	-8(%rbp), %rax
	leaq	8(%rax), %rcx
	movq	-16(%rbp), %rax
	leaq	8(%rax), %r8
	movsbl	-17(%rbp), %eax
	movq	56(%rbp), %r9
	leaq	-48(%rbp), %rdx
	movq	%rcx, 32(%rsp)
	movl	%eax, %ecx
	call	_ZN8Palmtree4Math4Core8InternalL25_MULTIPLYX_DIGIT_UNIT_DIVEcPyS3_yS3_
	movb	%al, -17(%rbp)
	.loc 8 1035 42
	movq	-8(%rbp), %rax
	leaq	16(%rax), %rcx
	movq	-16(%rbp), %rax
	leaq	16(%rax), %r8
	movsbl	-17(%rbp), %eax
	movq	56(%rbp), %r9
	leaq	-48(%rbp), %rdx
	movq	%rcx, 32(%rsp)
	movl	%eax, %ecx
	call	_ZN8Palmtree4Math4Core8InternalL25_MULTIPLYX_DIGIT_UNIT_DIVEcPyS3_yS3_
	movb	%al, -17(%rbp)
	.loc 8 1036 42
	movq	-8(%rbp), %rax
	leaq	24(%rax), %rcx
	movq	-16(%rbp), %rax
	leaq	24(%rax), %r8
	movsbl	-17(%rbp), %eax
	movq	56(%rbp), %r9
	leaq	-48(%rbp), %rdx
	movq	%rcx, 32(%rsp)
	movl	%eax, %ecx
	call	_ZN8Palmtree4Math4Core8InternalL25_MULTIPLYX_DIGIT_UNIT_DIVEcPyS3_yS3_
	movb	%al, -17(%rbp)
	.loc 8 1037 42
	movq	-8(%rbp), %rax
	leaq	32(%rax), %rcx
	movq	-16(%rbp), %rax
	leaq	32(%rax), %r8
	movsbl	-17(%rbp), %eax
	movq	56(%rbp), %r9
	leaq	-48(%rbp), %rdx
	movq	%rcx, 32(%rsp)
	movl	%eax, %ecx
	call	_ZN8Palmtree4Math4Core8InternalL25_MULTIPLYX_DIGIT_UNIT_DIVEcPyS3_yS3_
	movb	%al, -17(%rbp)
	.loc 8 1038 42
	movq	-8(%rbp), %rax
	leaq	40(%rax), %rcx
	movq	-16(%rbp), %rax
	leaq	40(%rax), %r8
	movsbl	-17(%rbp), %eax
	movq	56(%rbp), %r9
	leaq	-48(%rbp), %rdx
	movq	%rcx, 32(%rsp)
	movl	%eax, %ecx
	call	_ZN8Palmtree4Math4Core8InternalL25_MULTIPLYX_DIGIT_UNIT_DIVEcPyS3_yS3_
	movb	%al, -17(%rbp)
	.loc 8 1039 42
	movq	-8(%rbp), %rax
	leaq	48(%rax), %rcx
	movq	-16(%rbp), %rax
	leaq	48(%rax), %r8
	movsbl	-17(%rbp), %eax
	movq	56(%rbp), %r9
	leaq	-48(%rbp), %rdx
	movq	%rcx, 32(%rsp)
	movl	%eax, %ecx
	call	_ZN8Palmtree4Math4Core8InternalL25_MULTIPLYX_DIGIT_UNIT_DIVEcPyS3_yS3_
	movb	%al, -17(%rbp)
	.loc 8 1040 42
	movq	-8(%rbp), %rax
	leaq	56(%rax), %rcx
	movq	-16(%rbp), %rax
	leaq	56(%rax), %r8
	movsbl	-17(%rbp), %eax
	movq	56(%rbp), %r9
	leaq	-48(%rbp), %rdx
	movq	%rcx, 32(%rsp)
	movl	%eax, %ecx
	call	_ZN8Palmtree4Math4Core8InternalL25_MULTIPLYX_DIGIT_UNIT_DIVEcPyS3_yS3_
	movb	%al, -17(%rbp)
	.loc 8 1041 42
	movq	-8(%rbp), %rax
	leaq	64(%rax), %rcx
	movq	-16(%rbp), %rax
	leaq	64(%rax), %r8
	movsbl	-17(%rbp), %eax
	movq	56(%rbp), %r9
	leaq	-48(%rbp), %rdx
	movq	%rcx, 32(%rsp)
	movl	%eax, %ecx
	call	_ZN8Palmtree4Math4Core8InternalL25_MULTIPLYX_DIGIT_UNIT_DIVEcPyS3_yS3_
	movb	%al, -17(%rbp)
	.loc 8 1042 42
	movq	-8(%rbp), %rax
	leaq	72(%rax), %rcx
	movq	-16(%rbp), %rax
	leaq	72(%rax), %r8
	movsbl	-17(%rbp), %eax
	movq	56(%rbp), %r9
	leaq	-48(%rbp), %rdx
	movq	%rcx, 32(%rsp)
	movl	%eax, %ecx
	call	_ZN8Palmtree4Math4Core8InternalL25_MULTIPLYX_DIGIT_UNIT_DIVEcPyS3_yS3_
	movb	%al, -17(%rbp)
	.loc 8 1043 42
	movq	-8(%rbp), %rax
	leaq	80(%rax), %rcx
	movq	-16(%rbp), %rax
	leaq	80(%rax), %r8
	movsbl	-17(%rbp), %eax
	movq	56(%rbp), %r9
	leaq	-48(%rbp), %rdx
	movq	%rcx, 32(%rsp)
	movl	%eax, %ecx
	call	_ZN8Palmtree4Math4Core8InternalL25_MULTIPLYX_DIGIT_UNIT_DIVEcPyS3_yS3_
	movb	%al, -17(%rbp)
	.loc 8 1044 42
	movq	-8(%rbp), %rax
	leaq	88(%rax), %rcx
	movq	-16(%rbp), %rax
	leaq	88(%rax), %r8
	movsbl	-17(%rbp), %eax
	movq	56(%rbp), %r9
	leaq	-48(%rbp), %rdx
	movq	%rcx, 32(%rsp)
	movl	%eax, %ecx
	call	_ZN8Palmtree4Math4Core8InternalL25_MULTIPLYX_DIGIT_UNIT_DIVEcPyS3_yS3_
	movb	%al, -17(%rbp)
	.loc 8 1045 42
	movq	-8(%rbp), %rax
	leaq	96(%rax), %rcx
	movq	-16(%rbp), %rax
	leaq	96(%rax), %r8
	movsbl	-17(%rbp), %eax
	movq	56(%rbp), %r9
	leaq	-48(%rbp), %rdx
	movq	%rcx, 32(%rsp)
	movl	%eax, %ecx
	call	_ZN8Palmtree4Math4Core8InternalL25_MULTIPLYX_DIGIT_UNIT_DIVEcPyS3_yS3_
	movb	%al, -17(%rbp)
	.loc 8 1046 42
	movq	-8(%rbp), %rax
	leaq	104(%rax), %rcx
	movq	-16(%rbp), %rax
	leaq	104(%rax), %r8
	movsbl	-17(%rbp), %eax
	movq	56(%rbp), %r9
	leaq	-48(%rbp), %rdx
	movq	%rcx, 32(%rsp)
	movl	%eax, %ecx
	call	_ZN8Palmtree4Math4Core8InternalL25_MULTIPLYX_DIGIT_UNIT_DIVEcPyS3_yS3_
	movb	%al, -17(%rbp)
	.loc 8 1047 42
	movq	-8(%rbp), %rax
	leaq	112(%rax), %rcx
	movq	-16(%rbp), %rax
	leaq	112(%rax), %r8
	movsbl	-17(%rbp), %eax
	movq	56(%rbp), %r9
	leaq	-48(%rbp), %rdx
	movq	%rcx, 32(%rsp)
	movl	%eax, %ecx
	call	_ZN8Palmtree4Math4Core8InternalL25_MULTIPLYX_DIGIT_UNIT_DIVEcPyS3_yS3_
	movb	%al, -17(%rbp)
	.loc 8 1048 42
	movq	-8(%rbp), %rax
	leaq	120(%rax), %rcx
	movq	-16(%rbp), %rax
	leaq	120(%rax), %r8
	movsbl	-17(%rbp), %eax
	movq	56(%rbp), %r9
	leaq	-48(%rbp), %rdx
	movq	%rcx, 32(%rsp)
	movl	%eax, %ecx
	call	_ZN8Palmtree4Math4Core8InternalL25_MULTIPLYX_DIGIT_UNIT_DIVEcPyS3_yS3_
	movb	%al, -17(%rbp)
	.loc 8 1049 42
	movq	-8(%rbp), %rax
	leaq	128(%rax), %rcx
	movq	-16(%rbp), %rax
	leaq	128(%rax), %r8
	movsbl	-17(%rbp), %eax
	movq	56(%rbp), %r9
	leaq	-48(%rbp), %rdx
	movq	%rcx, 32(%rsp)
	movl	%eax, %ecx
	call	_ZN8Palmtree4Math4Core8InternalL25_MULTIPLYX_DIGIT_UNIT_DIVEcPyS3_yS3_
	movb	%al, -17(%rbp)
	.loc 8 1050 42
	movq	-8(%rbp), %rax
	leaq	136(%rax), %rcx
	movq	-16(%rbp), %rax
	leaq	136(%rax), %r8
	movsbl	-17(%rbp), %eax
	movq	56(%rbp), %r9
	leaq	-48(%rbp), %rdx
	movq	%rcx, 32(%rsp)
	movl	%eax, %ecx
	call	_ZN8Palmtree4Math4Core8InternalL25_MULTIPLYX_DIGIT_UNIT_DIVEcPyS3_yS3_
	movb	%al, -17(%rbp)
	.loc 8 1051 42
	movq	-8(%rbp), %rax
	leaq	144(%rax), %rcx
	movq	-16(%rbp), %rax
	leaq	144(%rax), %r8
	movsbl	-17(%rbp), %eax
	movq	56(%rbp), %r9
	leaq	-48(%rbp), %rdx
	movq	%rcx, 32(%rsp)
	movl	%eax, %ecx
	call	_ZN8Palmtree4Math4Core8InternalL25_MULTIPLYX_DIGIT_UNIT_DIVEcPyS3_yS3_
	movb	%al, -17(%rbp)
	.loc 8 1052 42
	movq	-8(%rbp), %rax
	leaq	152(%rax), %rcx
	movq	-16(%rbp), %rax
	leaq	152(%rax), %r8
	movsbl	-17(%rbp), %eax
	movq	56(%rbp), %r9
	leaq	-48(%rbp), %rdx
	movq	%rcx, 32(%rsp)
	movl	%eax, %ecx
	call	_ZN8Palmtree4Math4Core8InternalL25_MULTIPLYX_DIGIT_UNIT_DIVEcPyS3_yS3_
	movb	%al, -17(%rbp)
	.loc 8 1053 42
	movq	-8(%rbp), %rax
	leaq	160(%rax), %rcx
	movq	-16(%rbp), %rax
	leaq	160(%rax), %r8
	movsbl	-17(%rbp), %eax
	movq	56(%rbp), %r9
	leaq	-48(%rbp), %rdx
	movq	%rcx, 32(%rsp)
	movl	%eax, %ecx
	call	_ZN8Palmtree4Math4Core8InternalL25_MULTIPLYX_DIGIT_UNIT_DIVEcPyS3_yS3_
	movb	%al, -17(%rbp)
	.loc 8 1054 42
	movq	-8(%rbp), %rax
	leaq	168(%rax), %rcx
	movq	-16(%rbp), %rax
	leaq	168(%rax), %r8
	movsbl	-17(%rbp), %eax
	movq	56(%rbp), %r9
	leaq	-48(%rbp), %rdx
	movq	%rcx, 32(%rsp)
	movl	%eax, %ecx
	call	_ZN8Palmtree4Math4Core8InternalL25_MULTIPLYX_DIGIT_UNIT_DIVEcPyS3_yS3_
	movb	%al, -17(%rbp)
	.loc 8 1055 42
	movq	-8(%rbp), %rax
	leaq	176(%rax), %rcx
	movq	-16(%rbp), %rax
	leaq	176(%rax), %r8
	movsbl	-17(%rbp), %eax
	movq	56(%rbp), %r9
	leaq	-48(%rbp), %rdx
	movq	%rcx, 32(%rsp)
	movl	%eax, %ecx
	call	_ZN8Palmtree4Math4Core8InternalL25_MULTIPLYX_DIGIT_UNIT_DIVEcPyS3_yS3_
	movb	%al, -17(%rbp)
	.loc 8 1056 42
	movq	-8(%rbp), %rax
	leaq	184(%rax), %rcx
	movq	-16(%rbp), %rax
	leaq	184(%rax), %r8
	movsbl	-17(%rbp), %eax
	movq	56(%rbp), %r9
	leaq	-48(%rbp), %rdx
	movq	%rcx, 32(%rsp)
	movl	%eax, %ecx
	call	_ZN8Palmtree4Math4Core8InternalL25_MULTIPLYX_DIGIT_UNIT_DIVEcPyS3_yS3_
	movb	%al, -17(%rbp)
	.loc 8 1057 42
	movq	-8(%rbp), %rax
	leaq	192(%rax), %rcx
	movq	-16(%rbp), %rax
	leaq	192(%rax), %r8
	movsbl	-17(%rbp), %eax
	movq	56(%rbp), %r9
	leaq	-48(%rbp), %rdx
	movq	%rcx, 32(%rsp)
	movl	%eax, %ecx
	call	_ZN8Palmtree4Math4Core8InternalL25_MULTIPLYX_DIGIT_UNIT_DIVEcPyS3_yS3_
	movb	%al, -17(%rbp)
	.loc 8 1058 42
	movq	-8(%rbp), %rax
	leaq	200(%rax), %rcx
	movq	-16(%rbp), %rax
	leaq	200(%rax), %r8
	movsbl	-17(%rbp), %eax
	movq	56(%rbp), %r9
	leaq	-48(%rbp), %rdx
	movq	%rcx, 32(%rsp)
	movl	%eax, %ecx
	call	_ZN8Palmtree4Math4Core8InternalL25_MULTIPLYX_DIGIT_UNIT_DIVEcPyS3_yS3_
	movb	%al, -17(%rbp)
	.loc 8 1059 42
	movq	-8(%rbp), %rax
	leaq	208(%rax), %rcx
	movq	-16(%rbp), %rax
	leaq	208(%rax), %r8
	movsbl	-17(%rbp), %eax
	movq	56(%rbp), %r9
	leaq	-48(%rbp), %rdx
	movq	%rcx, 32(%rsp)
	movl	%eax, %ecx
	call	_ZN8Palmtree4Math4Core8InternalL25_MULTIPLYX_DIGIT_UNIT_DIVEcPyS3_yS3_
	movb	%al, -17(%rbp)
	.loc 8 1060 42
	movq	-8(%rbp), %rax
	leaq	216(%rax), %rcx
	movq	-16(%rbp), %rax
	leaq	216(%rax), %r8
	movsbl	-17(%rbp), %eax
	movq	56(%rbp), %r9
	leaq	-48(%rbp), %rdx
	movq	%rcx, 32(%rsp)
	movl	%eax, %ecx
	call	_ZN8Palmtree4Math4Core8InternalL25_MULTIPLYX_DIGIT_UNIT_DIVEcPyS3_yS3_
	movb	%al, -17(%rbp)
	.loc 8 1061 42
	movq	-8(%rbp), %rax
	leaq	224(%rax), %rcx
	movq	-16(%rbp), %rax
	leaq	224(%rax), %r8
	movsbl	-17(%rbp), %eax
	movq	56(%rbp), %r9
	leaq	-48(%rbp), %rdx
	movq	%rcx, 32(%rsp)
	movl	%eax, %ecx
	call	_ZN8Palmtree4Math4Core8InternalL25_MULTIPLYX_DIGIT_UNIT_DIVEcPyS3_yS3_
	movb	%al, -17(%rbp)
	.loc 8 1062 42
	movq	-8(%rbp), %rax
	leaq	232(%rax), %rcx
	movq	-16(%rbp), %rax
	leaq	232(%rax), %r8
	movsbl	-17(%rbp), %eax
	movq	56(%rbp), %r9
	leaq	-48(%rbp), %rdx
	movq	%rcx, 32(%rsp)
	movl	%eax, %ecx
	call	_ZN8Palmtree4Math4Core8InternalL25_MULTIPLYX_DIGIT_UNIT_DIVEcPyS3_yS3_
	movb	%al, -17(%rbp)
	.loc 8 1063 42
	movq	-8(%rbp), %rax
	leaq	240(%rax), %rcx
	movq	-16(%rbp), %rax
	leaq	240(%rax), %r8
	movsbl	-17(%rbp), %eax
	movq	56(%rbp), %r9
	leaq	-48(%rbp), %rdx
	movq	%rcx, 32(%rsp)
	movl	%eax, %ecx
	call	_ZN8Palmtree4Math4Core8InternalL25_MULTIPLYX_DIGIT_UNIT_DIVEcPyS3_yS3_
	movb	%al, -17(%rbp)
	.loc 8 1064 42
	movq	-8(%rbp), %rax
	leaq	248(%rax), %rcx
	movq	-16(%rbp), %rax
	leaq	248(%rax), %r8
	movsbl	-17(%rbp), %eax
	movq	56(%rbp), %r9
	leaq	-48(%rbp), %rdx
	movq	%rcx, 32(%rsp)
	movl	%eax, %ecx
	call	_ZN8Palmtree4Math4Core8InternalL25_MULTIPLYX_DIGIT_UNIT_DIVEcPyS3_yS3_
	movb	%al, -17(%rbp)
	.loc 8 1065 19
	addq	$256, -8(%rbp)
	.loc 8 1066 19
	addq	$256, -16(%rbp)
	.loc 8 1067 13
	subq	$1, -32(%rbp)
	.loc 8 1070 36
	movl	$32, %ecx
	call	_ZN8Palmtree4Math4Core8InternalL19AddToMULTI64CounterEi
	.loc 8 1031 9
	jmp	.L145
.L144:
	.loc 8 1076 21
	movq	-40(%rbp), %rax
	andl	$16, %eax
	.loc 8 1076 9
	testq	%rax, %rax
	je	.L146
	.loc 8 1078 42
	movsbl	-17(%rbp), %eax
	movq	56(%rbp), %r9
	movq	-16(%rbp), %r8
	leaq	-48(%rbp), %rdx
	movq	-8(%rbp), %rcx
	movq	%rcx, 32(%rsp)
	movl	%eax, %ecx
	call	_ZN8Palmtree4Math4Core8InternalL25_MULTIPLYX_DIGIT_UNIT_DIVEcPyS3_yS3_
	movb	%al, -17(%rbp)
	.loc 8 1079 42
	movq	-8(%rbp), %rax
	leaq	8(%rax), %rcx
	movq	-16(%rbp), %rax
	leaq	8(%rax), %r8
	movsbl	-17(%rbp), %eax
	movq	56(%rbp), %r9
	leaq	-48(%rbp), %rdx
	movq	%rcx, 32(%rsp)
	movl	%eax, %ecx
	call	_ZN8Palmtree4Math4Core8InternalL25_MULTIPLYX_DIGIT_UNIT_DIVEcPyS3_yS3_
	movb	%al, -17(%rbp)
	.loc 8 1080 42
	movq	-8(%rbp), %rax
	leaq	16(%rax), %rcx
	movq	-16(%rbp), %rax
	leaq	16(%rax), %r8
	movsbl	-17(%rbp), %eax
	movq	56(%rbp), %r9
	leaq	-48(%rbp), %rdx
	movq	%rcx, 32(%rsp)
	movl	%eax, %ecx
	call	_ZN8Palmtree4Math4Core8InternalL25_MULTIPLYX_DIGIT_UNIT_DIVEcPyS3_yS3_
	movb	%al, -17(%rbp)
	.loc 8 1081 42
	movq	-8(%rbp), %rax
	leaq	24(%rax), %rcx
	movq	-16(%rbp), %rax
	leaq	24(%rax), %r8
	movsbl	-17(%rbp), %eax
	movq	56(%rbp), %r9
	leaq	-48(%rbp), %rdx
	movq	%rcx, 32(%rsp)
	movl	%eax, %ecx
	call	_ZN8Palmtree4Math4Core8InternalL25_MULTIPLYX_DIGIT_UNIT_DIVEcPyS3_yS3_
	movb	%al, -17(%rbp)
	.loc 8 1082 42
	movq	-8(%rbp), %rax
	leaq	32(%rax), %rcx
	movq	-16(%rbp), %rax
	leaq	32(%rax), %r8
	movsbl	-17(%rbp), %eax
	movq	56(%rbp), %r9
	leaq	-48(%rbp), %rdx
	movq	%rcx, 32(%rsp)
	movl	%eax, %ecx
	call	_ZN8Palmtree4Math4Core8InternalL25_MULTIPLYX_DIGIT_UNIT_DIVEcPyS3_yS3_
	movb	%al, -17(%rbp)
	.loc 8 1083 42
	movq	-8(%rbp), %rax
	leaq	40(%rax), %rcx
	movq	-16(%rbp), %rax
	leaq	40(%rax), %r8
	movsbl	-17(%rbp), %eax
	movq	56(%rbp), %r9
	leaq	-48(%rbp), %rdx
	movq	%rcx, 32(%rsp)
	movl	%eax, %ecx
	call	_ZN8Palmtree4Math4Core8InternalL25_MULTIPLYX_DIGIT_UNIT_DIVEcPyS3_yS3_
	movb	%al, -17(%rbp)
	.loc 8 1084 42
	movq	-8(%rbp), %rax
	leaq	48(%rax), %rcx
	movq	-16(%rbp), %rax
	leaq	48(%rax), %r8
	movsbl	-17(%rbp), %eax
	movq	56(%rbp), %r9
	leaq	-48(%rbp), %rdx
	movq	%rcx, 32(%rsp)
	movl	%eax, %ecx
	call	_ZN8Palmtree4Math4Core8InternalL25_MULTIPLYX_DIGIT_UNIT_DIVEcPyS3_yS3_
	movb	%al, -17(%rbp)
	.loc 8 1085 42
	movq	-8(%rbp), %rax
	leaq	56(%rax), %rcx
	movq	-16(%rbp), %rax
	leaq	56(%rax), %r8
	movsbl	-17(%rbp), %eax
	movq	56(%rbp), %r9
	leaq	-48(%rbp), %rdx
	movq	%rcx, 32(%rsp)
	movl	%eax, %ecx
	call	_ZN8Palmtree4Math4Core8InternalL25_MULTIPLYX_DIGIT_UNIT_DIVEcPyS3_yS3_
	movb	%al, -17(%rbp)
	.loc 8 1086 42
	movq	-8(%rbp), %rax
	leaq	64(%rax), %rcx
	movq	-16(%rbp), %rax
	leaq	64(%rax), %r8
	movsbl	-17(%rbp), %eax
	movq	56(%rbp), %r9
	leaq	-48(%rbp), %rdx
	movq	%rcx, 32(%rsp)
	movl	%eax, %ecx
	call	_ZN8Palmtree4Math4Core8InternalL25_MULTIPLYX_DIGIT_UNIT_DIVEcPyS3_yS3_
	movb	%al, -17(%rbp)
	.loc 8 1087 42
	movq	-8(%rbp), %rax
	leaq	72(%rax), %rcx
	movq	-16(%rbp), %rax
	leaq	72(%rax), %r8
	movsbl	-17(%rbp), %eax
	movq	56(%rbp), %r9
	leaq	-48(%rbp), %rdx
	movq	%rcx, 32(%rsp)
	movl	%eax, %ecx
	call	_ZN8Palmtree4Math4Core8InternalL25_MULTIPLYX_DIGIT_UNIT_DIVEcPyS3_yS3_
	movb	%al, -17(%rbp)
	.loc 8 1088 42
	movq	-8(%rbp), %rax
	leaq	80(%rax), %rcx
	movq	-16(%rbp), %rax
	leaq	80(%rax), %r8
	movsbl	-17(%rbp), %eax
	movq	56(%rbp), %r9
	leaq	-48(%rbp), %rdx
	movq	%rcx, 32(%rsp)
	movl	%eax, %ecx
	call	_ZN8Palmtree4Math4Core8InternalL25_MULTIPLYX_DIGIT_UNIT_DIVEcPyS3_yS3_
	movb	%al, -17(%rbp)
	.loc 8 1089 42
	movq	-8(%rbp), %rax
	leaq	88(%rax), %rcx
	movq	-16(%rbp), %rax
	leaq	88(%rax), %r8
	movsbl	-17(%rbp), %eax
	movq	56(%rbp), %r9
	leaq	-48(%rbp), %rdx
	movq	%rcx, 32(%rsp)
	movl	%eax, %ecx
	call	_ZN8Palmtree4Math4Core8InternalL25_MULTIPLYX_DIGIT_UNIT_DIVEcPyS3_yS3_
	movb	%al, -17(%rbp)
	.loc 8 1090 42
	movq	-8(%rbp), %rax
	leaq	96(%rax), %rcx
	movq	-16(%rbp), %rax
	leaq	96(%rax), %r8
	movsbl	-17(%rbp), %eax
	movq	56(%rbp), %r9
	leaq	-48(%rbp), %rdx
	movq	%rcx, 32(%rsp)
	movl	%eax, %ecx
	call	_ZN8Palmtree4Math4Core8InternalL25_MULTIPLYX_DIGIT_UNIT_DIVEcPyS3_yS3_
	movb	%al, -17(%rbp)
	.loc 8 1091 42
	movq	-8(%rbp), %rax
	leaq	104(%rax), %rcx
	movq	-16(%rbp), %rax
	leaq	104(%rax), %r8
	movsbl	-17(%rbp), %eax
	movq	56(%rbp), %r9
	leaq	-48(%rbp), %rdx
	movq	%rcx, 32(%rsp)
	movl	%eax, %ecx
	call	_ZN8Palmtree4Math4Core8InternalL25_MULTIPLYX_DIGIT_UNIT_DIVEcPyS3_yS3_
	movb	%al, -17(%rbp)
	.loc 8 1092 42
	movq	-8(%rbp), %rax
	leaq	112(%rax), %rcx
	movq	-16(%rbp), %rax
	leaq	112(%rax), %r8
	movsbl	-17(%rbp), %eax
	movq	56(%rbp), %r9
	leaq	-48(%rbp), %rdx
	movq	%rcx, 32(%rsp)
	movl	%eax, %ecx
	call	_ZN8Palmtree4Math4Core8InternalL25_MULTIPLYX_DIGIT_UNIT_DIVEcPyS3_yS3_
	movb	%al, -17(%rbp)
	.loc 8 1093 42
	movq	-8(%rbp), %rax
	leaq	120(%rax), %rcx
	movq	-16(%rbp), %rax
	leaq	120(%rax), %r8
	movsbl	-17(%rbp), %eax
	movq	56(%rbp), %r9
	leaq	-48(%rbp), %rdx
	movq	%rcx, 32(%rsp)
	movl	%eax, %ecx
	call	_ZN8Palmtree4Math4Core8InternalL25_MULTIPLYX_DIGIT_UNIT_DIVEcPyS3_yS3_
	movb	%al, -17(%rbp)
	.loc 8 1094 19
	subq	$-128, -8(%rbp)
	.loc 8 1095 19
	subq	$-128, -16(%rbp)
	.loc 8 1098 36
	movl	$16, %ecx
	call	_ZN8Palmtree4Math4Core8InternalL19AddToMULTI64CounterEi
.L146:
	.loc 8 1104 21
	movq	-40(%rbp), %rax
	andl	$8, %eax
	.loc 8 1104 9
	testq	%rax, %rax
	je	.L147
	.loc 8 1106 42
	movsbl	-17(%rbp), %eax
	movq	56(%rbp), %r9
	movq	-16(%rbp), %r8
	leaq	-48(%rbp), %rdx
	movq	-8(%rbp), %rcx
	movq	%rcx, 32(%rsp)
	movl	%eax, %ecx
	call	_ZN8Palmtree4Math4Core8InternalL25_MULTIPLYX_DIGIT_UNIT_DIVEcPyS3_yS3_
	movb	%al, -17(%rbp)
	.loc 8 1107 42
	movq	-8(%rbp), %rax
	leaq	8(%rax), %rcx
	movq	-16(%rbp), %rax
	leaq	8(%rax), %r8
	movsbl	-17(%rbp), %eax
	movq	56(%rbp), %r9
	leaq	-48(%rbp), %rdx
	movq	%rcx, 32(%rsp)
	movl	%eax, %ecx
	call	_ZN8Palmtree4Math4Core8InternalL25_MULTIPLYX_DIGIT_UNIT_DIVEcPyS3_yS3_
	movb	%al, -17(%rbp)
	.loc 8 1108 42
	movq	-8(%rbp), %rax
	leaq	16(%rax), %rcx
	movq	-16(%rbp), %rax
	leaq	16(%rax), %r8
	movsbl	-17(%rbp), %eax
	movq	56(%rbp), %r9
	leaq	-48(%rbp), %rdx
	movq	%rcx, 32(%rsp)
	movl	%eax, %ecx
	call	_ZN8Palmtree4Math4Core8InternalL25_MULTIPLYX_DIGIT_UNIT_DIVEcPyS3_yS3_
	movb	%al, -17(%rbp)
	.loc 8 1109 42
	movq	-8(%rbp), %rax
	leaq	24(%rax), %rcx
	movq	-16(%rbp), %rax
	leaq	24(%rax), %r8
	movsbl	-17(%rbp), %eax
	movq	56(%rbp), %r9
	leaq	-48(%rbp), %rdx
	movq	%rcx, 32(%rsp)
	movl	%eax, %ecx
	call	_ZN8Palmtree4Math4Core8InternalL25_MULTIPLYX_DIGIT_UNIT_DIVEcPyS3_yS3_
	movb	%al, -17(%rbp)
	.loc 8 1110 42
	movq	-8(%rbp), %rax
	leaq	32(%rax), %rcx
	movq	-16(%rbp), %rax
	leaq	32(%rax), %r8
	movsbl	-17(%rbp), %eax
	movq	56(%rbp), %r9
	leaq	-48(%rbp), %rdx
	movq	%rcx, 32(%rsp)
	movl	%eax, %ecx
	call	_ZN8Palmtree4Math4Core8InternalL25_MULTIPLYX_DIGIT_UNIT_DIVEcPyS3_yS3_
	movb	%al, -17(%rbp)
	.loc 8 1111 42
	movq	-8(%rbp), %rax
	leaq	40(%rax), %rcx
	movq	-16(%rbp), %rax
	leaq	40(%rax), %r8
	movsbl	-17(%rbp), %eax
	movq	56(%rbp), %r9
	leaq	-48(%rbp), %rdx
	movq	%rcx, 32(%rsp)
	movl	%eax, %ecx
	call	_ZN8Palmtree4Math4Core8InternalL25_MULTIPLYX_DIGIT_UNIT_DIVEcPyS3_yS3_
	movb	%al, -17(%rbp)
	.loc 8 1112 42
	movq	-8(%rbp), %rax
	leaq	48(%rax), %rcx
	movq	-16(%rbp), %rax
	leaq	48(%rax), %r8
	movsbl	-17(%rbp), %eax
	movq	56(%rbp), %r9
	leaq	-48(%rbp), %rdx
	movq	%rcx, 32(%rsp)
	movl	%eax, %ecx
	call	_ZN8Palmtree4Math4Core8InternalL25_MULTIPLYX_DIGIT_UNIT_DIVEcPyS3_yS3_
	movb	%al, -17(%rbp)
	.loc 8 1113 42
	movq	-8(%rbp), %rax
	leaq	56(%rax), %rcx
	movq	-16(%rbp), %rax
	leaq	56(%rax), %r8
	movsbl	-17(%rbp), %eax
	movq	56(%rbp), %r9
	leaq	-48(%rbp), %rdx
	movq	%rcx, 32(%rsp)
	movl	%eax, %ecx
	call	_ZN8Palmtree4Math4Core8InternalL25_MULTIPLYX_DIGIT_UNIT_DIVEcPyS3_yS3_
	movb	%al, -17(%rbp)
	.loc 8 1114 19
	addq	$64, -8(%rbp)
	.loc 8 1115 19
	addq	$64, -16(%rbp)
	.loc 8 1118 36
	movl	$8, %ecx
	call	_ZN8Palmtree4Math4Core8InternalL19AddToMULTI64CounterEi
.L147:
	.loc 8 1124 21
	movq	-40(%rbp), %rax
	andl	$4, %eax
	.loc 8 1124 9
	testq	%rax, %rax
	je	.L148
	.loc 8 1126 42
	movsbl	-17(%rbp), %eax
	movq	56(%rbp), %r9
	movq	-16(%rbp), %r8
	leaq	-48(%rbp), %rdx
	movq	-8(%rbp), %rcx
	movq	%rcx, 32(%rsp)
	movl	%eax, %ecx
	call	_ZN8Palmtree4Math4Core8InternalL25_MULTIPLYX_DIGIT_UNIT_DIVEcPyS3_yS3_
	movb	%al, -17(%rbp)
	.loc 8 1127 42
	movq	-8(%rbp), %rax
	leaq	8(%rax), %rcx
	movq	-16(%rbp), %rax
	leaq	8(%rax), %r8
	movsbl	-17(%rbp), %eax
	movq	56(%rbp), %r9
	leaq	-48(%rbp), %rdx
	movq	%rcx, 32(%rsp)
	movl	%eax, %ecx
	call	_ZN8Palmtree4Math4Core8InternalL25_MULTIPLYX_DIGIT_UNIT_DIVEcPyS3_yS3_
	movb	%al, -17(%rbp)
	.loc 8 1128 42
	movq	-8(%rbp), %rax
	leaq	16(%rax), %rcx
	movq	-16(%rbp), %rax
	leaq	16(%rax), %r8
	movsbl	-17(%rbp), %eax
	movq	56(%rbp), %r9
	leaq	-48(%rbp), %rdx
	movq	%rcx, 32(%rsp)
	movl	%eax, %ecx
	call	_ZN8Palmtree4Math4Core8InternalL25_MULTIPLYX_DIGIT_UNIT_DIVEcPyS3_yS3_
	movb	%al, -17(%rbp)
	.loc 8 1129 42
	movq	-8(%rbp), %rax
	leaq	24(%rax), %rcx
	movq	-16(%rbp), %rax
	leaq	24(%rax), %r8
	movsbl	-17(%rbp), %eax
	movq	56(%rbp), %r9
	leaq	-48(%rbp), %rdx
	movq	%rcx, 32(%rsp)
	movl	%eax, %ecx
	call	_ZN8Palmtree4Math4Core8InternalL25_MULTIPLYX_DIGIT_UNIT_DIVEcPyS3_yS3_
	movb	%al, -17(%rbp)
	.loc 8 1130 19
	addq	$32, -8(%rbp)
	.loc 8 1131 19
	addq	$32, -16(%rbp)
	.loc 8 1134 36
	movl	$4, %ecx
	call	_ZN8Palmtree4Math4Core8InternalL19AddToMULTI64CounterEi
.L148:
	.loc 8 1140 21
	movq	-40(%rbp), %rax
	andl	$2, %eax
	.loc 8 1140 9
	testq	%rax, %rax
	je	.L149
	.loc 8 1142 42
	movsbl	-17(%rbp), %eax
	movq	56(%rbp), %r9
	movq	-16(%rbp), %r8
	leaq	-48(%rbp), %rdx
	movq	-8(%rbp), %rcx
	movq	%rcx, 32(%rsp)
	movl	%eax, %ecx
	call	_ZN8Palmtree4Math4Core8InternalL25_MULTIPLYX_DIGIT_UNIT_DIVEcPyS3_yS3_
	movb	%al, -17(%rbp)
	.loc 8 1143 42
	movq	-8(%rbp), %rax
	leaq	8(%rax), %rcx
	movq	-16(%rbp), %rax
	leaq	8(%rax), %r8
	movsbl	-17(%rbp), %eax
	movq	56(%rbp), %r9
	leaq	-48(%rbp), %rdx
	movq	%rcx, 32(%rsp)
	movl	%eax, %ecx
	call	_ZN8Palmtree4Math4Core8InternalL25_MULTIPLYX_DIGIT_UNIT_DIVEcPyS3_yS3_
	movb	%al, -17(%rbp)
	.loc 8 1144 19
	addq	$16, -8(%rbp)
	.loc 8 1145 19
	addq	$16, -16(%rbp)
	.loc 8 1148 36
	movl	$2, %ecx
	call	_ZN8Palmtree4Math4Core8InternalL19AddToMULTI64CounterEi
.L149:
	.loc 8 1154 21
	movq	-40(%rbp), %rax
	andl	$1, %eax
	.loc 8 1154 9
	testq	%rax, %rax
	je	.L150
	.loc 8 1156 42
	movsbl	-17(%rbp), %eax
	movq	56(%rbp), %r9
	movq	-16(%rbp), %r8
	leaq	-48(%rbp), %rdx
	movq	-8(%rbp), %rcx
	movq	%rcx, 32(%rsp)
	movl	%eax, %ecx
	call	_ZN8Palmtree4Math4Core8InternalL25_MULTIPLYX_DIGIT_UNIT_DIVEcPyS3_yS3_
	movb	%al, -17(%rbp)
	.loc 8 1157 19
	addq	$8, -8(%rbp)
	.loc 8 1158 19
	addq	$8, -16(%rbp)
	.loc 8 1161 40
	call	_ZN8Palmtree4Math4Core8InternalL23IncrementMULTI64CounterEv
.L150:
	.loc 8 1167 27
	movq	-48(%rbp), %rcx
	movq	-8(%rbp), %rax
	movq	(%rax), %rdx
	movsbl	-17(%rbp), %eax
	movq	-8(%rbp), %r8
	movq	%r8, %r9
	movq	%rcx, %r8
	movl	%eax, %ecx
	call	_SUBTRUCT_UNIT
	movb	%al, -17(%rbp)
	.loc 8 1168 15
	addq	$8, -8(%rbp)
	.loc 8 1170 54
	movq	24(%rbp), %rax
	addq	$1, %rax
	leaq	0(,%rax,8), %rdx
	movq	16(%rbp), %rax
	addq	%rdx, %rax
	.loc 8 1170 58
	subq	-8(%rbp), %rax
	sarq	$3, %rax
	.loc 8 1170 25
	movq	%rax, %rcx
	movsbl	-17(%rbp), %eax
	movq	-8(%rbp), %rdx
	movq	%rcx, %r8
	movl	%eax, %ecx
	call	_ZN8Palmtree4Math4Core8InternalL8DoBorrowEcPyy
	.loc 8 1170 66
	nop
	.loc 8 1171 5
	addq	$96, %rsp
	popq	%rbp
	.cfi_restore 6
	.cfi_def_cfa 7, 8
	ret
	.cfi_endproc
.LFE5084:
	.seh_endproc
	.def	_ZN8Palmtree4Math4Core8InternalL7DoCarryEcPyy;	.scl	3;	.type	32;	.endef
	.seh_proc	_ZN8Palmtree4Math4Core8InternalL7DoCarryEcPyy
_ZN8Palmtree4Math4Core8InternalL7DoCarryEcPyy:
.LFB5085:
	.loc 8 1174 5
	.cfi_startproc
	pushq	%rbp
	.seh_pushreg	%rbp
	.cfi_def_cfa_offset 16
	.cfi_offset 6, -16
	movq	%rsp, %rbp
	.seh_setframe	%rbp, 0
	.cfi_def_cfa_register 6
	subq	$32, %rsp
	.seh_stackalloc	32
	.seh_endprologue
	movl	%ecx, %eax
	movq	%rdx, 24(%rbp)
	movq	%r8, 32(%rbp)
	movb	%al, 16(%rbp)
.L157:
	.loc 8 1178 13
	cmpq	$0, 32(%rbp)
	je	.L158
	.loc 8 1183 18
	cmpb	$0, 16(%rbp)
	je	.L159
	.loc 8 1188 30
	movq	24(%rbp), %rax
	movq	(%rax), %rdx
	movsbl	16(%rbp), %eax
	movq	24(%rbp), %rcx
	movq	%rcx, %r9
	movl	$0, %r8d
	movl	%eax, %ecx
	call	_ADD_UNIT
	movb	%al, 16(%rbp)
	.loc 8 1189 17
	addq	$8, 24(%rbp)
	.loc 8 1190 17
	subq	$1, 32(%rbp)
	.loc 8 1178 13
	jmp	.L157
.L158:
	.loc 8 1181 17
	nop
	jmp	.L152
.L159:
	.loc 8 1197 17
	nop
.L152:
	.loc 8 1200 5
	addq	$32, %rsp
	popq	%rbp
	.cfi_restore 6
	.cfi_def_cfa 7, 8
	ret
	.cfi_endproc
.LFE5085:
	.seh_endproc
	.def	_ZN8Palmtree4Math4Core8InternalL10AddOneLineEPyyS3_yy;	.scl	3;	.type	32;	.endef
	.seh_proc	_ZN8Palmtree4Math4Core8InternalL10AddOneLineEPyyS3_yy
_ZN8Palmtree4Math4Core8InternalL10AddOneLineEPyyS3_yy:
.LFB5086:
	.loc 8 1203 5
	.cfi_startproc
	pushq	%rbp
	.seh_pushreg	%rbp
	.cfi_def_cfa_offset 16
	.cfi_offset 6, -16
	movq	%rsp, %rbp
	.seh_setframe	%rbp, 0
	.cfi_def_cfa_register 6
	subq	$80, %rsp
	.seh_stackalloc	80
	.seh_endprologue
	movq	%rcx, 16(%rbp)
	movq	%rdx, 24(%rbp)
	movq	%r8, 32(%rbp)
	movq	%r9, 40(%rbp)
	.loc 8 1204 44
	movq	48(%rbp), %rax
	leaq	0(,%rax,8), %rdx
	.loc 8 1204 22
	movq	16(%rbp), %rax
	addq	%rdx, %rax
	movq	%rax, -8(%rbp)
	.loc 8 1205 22
	movq	32(%rbp), %rax
	movq	%rax, -16(%rbp)
	.loc 8 1206 21
	movq	40(%rbp), %rax
	movq	%rax, -40(%rbp)
	.loc 8 1207 14
	movb	$0, -17(%rbp)
	.loc 8 1210 21
	movq	-40(%rbp), %rax
	shrq	$5, %rax
	movq	%rax, -32(%rbp)
.L162:
	.loc 8 1211 22
	cmpq	$0, -32(%rbp)
	je	.L161
	.loc 8 1213 33
	movsbl	-17(%rbp), %eax
	movq	-8(%rbp), %r8
	movq	-16(%rbp), %rcx
	movq	-8(%rbp), %rdx
	movq	%r8, %r9
	movq	%rcx, %r8
	movl	%eax, %ecx
	call	_ADD_32WORDS_ADC
	movb	%al, -17(%rbp)
	.loc 8 1214 19
	addq	$256, -8(%rbp)
	.loc 8 1215 19
	addq	$256, -16(%rbp)
	.loc 8 1216 13
	subq	$1, -32(%rbp)
	.loc 8 1211 9
	jmp	.L162
.L161:
	.loc 8 1221 21
	movq	-40(%rbp), %rax
	andl	$16, %eax
	.loc 8 1221 9
	testq	%rax, %rax
	je	.L163
	.loc 8 1223 33
	movsbl	-17(%rbp), %eax
	movq	-8(%rbp), %r8
	movq	-16(%rbp), %rcx
	movq	-8(%rbp), %rdx
	movq	%r8, %r9
	movq	%rcx, %r8
	movl	%eax, %ecx
	call	_ADD_16WORDS_ADC
	movb	%al, -17(%rbp)
	.loc 8 1224 19
	subq	$-128, -8(%rbp)
	.loc 8 1225 19
	subq	$-128, -16(%rbp)
.L163:
	.loc 8 1230 21
	movq	-40(%rbp), %rax
	andl	$8, %eax
	.loc 8 1230 9
	testq	%rax, %rax
	je	.L164
	.loc 8 1232 32
	movsbl	-17(%rbp), %eax
	movq	-8(%rbp), %r8
	movq	-16(%rbp), %rcx
	movq	-8(%rbp), %rdx
	movq	%r8, %r9
	movq	%rcx, %r8
	movl	%eax, %ecx
	call	_ADD_8WORDS_ADC
	movb	%al, -17(%rbp)
	.loc 8 1233 19
	addq	$64, -8(%rbp)
	.loc 8 1234 19
	addq	$64, -16(%rbp)
.L164:
	.loc 8 1239 21
	movq	-40(%rbp), %rax
	andl	$4, %eax
	.loc 8 1239 9
	testq	%rax, %rax
	je	.L165
	.loc 8 1241 32
	movsbl	-17(%rbp), %eax
	movq	-8(%rbp), %r8
	movq	-16(%rbp), %rcx
	movq	-8(%rbp), %rdx
	movq	%r8, %r9
	movq	%rcx, %r8
	movl	%eax, %ecx
	call	_ADD_4WORDS_ADC
	movb	%al, -17(%rbp)
	.loc 8 1242 19
	addq	$32, -8(%rbp)
	.loc 8 1243 19
	addq	$32, -16(%rbp)
.L165:
	.loc 8 1248 21
	movq	-40(%rbp), %rax
	andl	$2, %eax
	.loc 8 1248 9
	testq	%rax, %rax
	je	.L166
	.loc 8 1250 32
	movsbl	-17(%rbp), %eax
	movq	-8(%rbp), %r8
	movq	-16(%rbp), %rcx
	movq	-8(%rbp), %rdx
	movq	%r8, %r9
	movq	%rcx, %r8
	movl	%eax, %ecx
	call	_ADD_2WORDS_ADC
	movb	%al, -17(%rbp)
	.loc 8 1251 19
	addq	$16, -8(%rbp)
	.loc 8 1252 19
	addq	$16, -16(%rbp)
.L166:
	.loc 8 1257 21
	movq	-40(%rbp), %rax
	andl	$1, %eax
	.loc 8 1257 9
	testq	%rax, %rax
	je	.L167
	.loc 8 1259 26
	movq	-16(%rbp), %rax
	movq	(%rax), %rcx
	movq	-8(%rbp), %rax
	movq	(%rax), %rdx
	movsbl	-17(%rbp), %eax
	movq	-8(%rbp), %r8
	movq	%r8, %r9
	movq	%rcx, %r8
	movl	%eax, %ecx
	call	_ADD_UNIT
	movb	%al, -17(%rbp)
	.loc 8 1260 13
	addq	$8, -8(%rbp)
	.loc 8 1261 13
	addq	$8, -16(%rbp)
.L167:
	.loc 8 1265 45
	movq	24(%rbp), %rax
	addq	$1, %rax
	leaq	0(,%rax,8), %rdx
	movq	16(%rbp), %rax
	addq	%rdx, %rax
	.loc 8 1265 49
	subq	-8(%rbp), %rax
	sarq	$3, %rax
	.loc 8 1265 16
	movq	%rax, %rcx
	movsbl	-17(%rbp), %eax
	movq	-8(%rbp), %rdx
	movq	%rcx, %r8
	movl	%eax, %ecx
	call	_ZN8Palmtree4Math4Core8InternalL7DoCarryEcPyy
	.loc 8 1266 5
	nop
	addq	$80, %rsp
	popq	%rbp
	.cfi_restore 6
	.cfi_def_cfa 7, 8
	ret
	.cfi_endproc
.LFE5086:
	.seh_endproc
	.def	_ZN8Palmtree4Math4Core8InternalL11AddOneLineXEPyyS3_yy;	.scl	3;	.type	32;	.endef
	.seh_proc	_ZN8Palmtree4Math4Core8InternalL11AddOneLineXEPyyS3_yy
_ZN8Palmtree4Math4Core8InternalL11AddOneLineXEPyyS3_yy:
.LFB5087:
	.loc 8 1269 5
	.cfi_startproc
	pushq	%rbp
	.seh_pushreg	%rbp
	.cfi_def_cfa_offset 16
	.cfi_offset 6, -16
	movq	%rsp, %rbp
	.seh_setframe	%rbp, 0
	.cfi_def_cfa_register 6
	subq	$80, %rsp
	.seh_stackalloc	80
	.seh_endprologue
	movq	%rcx, 16(%rbp)
	movq	%rdx, 24(%rbp)
	movq	%r8, 32(%rbp)
	movq	%r9, 40(%rbp)
	.loc 8 1270 44
	movq	48(%rbp), %rax
	leaq	0(,%rax,8), %rdx
	.loc 8 1270 22
	movq	16(%rbp), %rax
	addq	%rdx, %rax
	movq	%rax, -8(%rbp)
	.loc 8 1271 22
	movq	32(%rbp), %rax
	movq	%rax, -16(%rbp)
	.loc 8 1272 21
	movq	40(%rbp), %rax
	movq	%rax, -40(%rbp)
	.loc 8 1273 14
	movb	$0, -17(%rbp)
	.loc 8 1276 21
	movq	-40(%rbp), %rax
	shrq	$5, %rax
	movq	%rax, -32(%rbp)
.L170:
	.loc 8 1277 22
	cmpq	$0, -32(%rbp)
	je	.L169
	.loc 8 1279 34
	movsbl	-17(%rbp), %eax
	movq	-8(%rbp), %r8
	movq	-16(%rbp), %rcx
	movq	-8(%rbp), %rdx
	movq	%r8, %r9
	movq	%rcx, %r8
	movl	%eax, %ecx
	call	_ADD_32WORDS_ADCX
	movb	%al, -17(%rbp)
	.loc 8 1280 19
	addq	$256, -8(%rbp)
	.loc 8 1281 19
	addq	$256, -16(%rbp)
	.loc 8 1282 13
	subq	$1, -32(%rbp)
	.loc 8 1277 9
	jmp	.L170
.L169:
	.loc 8 1287 21
	movq	-40(%rbp), %rax
	andl	$16, %eax
	.loc 8 1287 9
	testq	%rax, %rax
	je	.L171
	.loc 8 1289 34
	movsbl	-17(%rbp), %eax
	movq	-8(%rbp), %r8
	movq	-16(%rbp), %rcx
	movq	-8(%rbp), %rdx
	movq	%r8, %r9
	movq	%rcx, %r8
	movl	%eax, %ecx
	call	_ADD_16WORDS_ADCX
	movb	%al, -17(%rbp)
	.loc 8 1290 19
	subq	$-128, -8(%rbp)
	.loc 8 1291 19
	subq	$-128, -16(%rbp)
.L171:
	.loc 8 1296 21
	movq	-40(%rbp), %rax
	andl	$8, %eax
	.loc 8 1296 9
	testq	%rax, %rax
	je	.L172
	.loc 8 1298 33
	movsbl	-17(%rbp), %eax
	movq	-8(%rbp), %r8
	movq	-16(%rbp), %rcx
	movq	-8(%rbp), %rdx
	movq	%r8, %r9
	movq	%rcx, %r8
	movl	%eax, %ecx
	call	_ADD_8WORDS_ADCX
	movb	%al, -17(%rbp)
	.loc 8 1299 19
	addq	$64, -8(%rbp)
	.loc 8 1300 19
	addq	$64, -16(%rbp)
.L172:
	.loc 8 1305 21
	movq	-40(%rbp), %rax
	andl	$4, %eax
	.loc 8 1305 9
	testq	%rax, %rax
	je	.L173
	.loc 8 1307 33
	movsbl	-17(%rbp), %eax
	movq	-8(%rbp), %r8
	movq	-16(%rbp), %rcx
	movq	-8(%rbp), %rdx
	movq	%r8, %r9
	movq	%rcx, %r8
	movl	%eax, %ecx
	call	_ADD_4WORDS_ADCX
	movb	%al, -17(%rbp)
	.loc 8 1308 19
	addq	$32, -8(%rbp)
	.loc 8 1309 19
	addq	$32, -16(%rbp)
.L173:
	.loc 8 1314 21
	movq	-40(%rbp), %rax
	andl	$2, %eax
	.loc 8 1314 9
	testq	%rax, %rax
	je	.L174
	.loc 8 1316 33
	movsbl	-17(%rbp), %eax
	movq	-8(%rbp), %r8
	movq	-16(%rbp), %rcx
	movq	-8(%rbp), %rdx
	movq	%r8, %r9
	movq	%rcx, %r8
	movl	%eax, %ecx
	call	_ADD_2WORDS_ADCX
	movb	%al, -17(%rbp)
	.loc 8 1317 19
	addq	$16, -8(%rbp)
	.loc 8 1318 19
	addq	$16, -16(%rbp)
.L174:
	.loc 8 1323 21
	movq	-40(%rbp), %rax
	andl	$1, %eax
	.loc 8 1323 9
	testq	%rax, %rax
	je	.L175
	.loc 8 1325 26
	movq	-16(%rbp), %rax
	movq	(%rax), %rcx
	movq	-8(%rbp), %rax
	movq	(%rax), %rdx
	movsbl	-17(%rbp), %eax
	movq	-8(%rbp), %r8
	movq	%r8, %r9
	movq	%rcx, %r8
	movl	%eax, %ecx
	call	_ADD_UNIT
	movb	%al, -17(%rbp)
	.loc 8 1326 13
	addq	$8, -8(%rbp)
	.loc 8 1327 13
	addq	$8, -16(%rbp)
.L175:
	.loc 8 1331 45
	movq	24(%rbp), %rax
	addq	$1, %rax
	leaq	0(,%rax,8), %rdx
	movq	16(%rbp), %rax
	addq	%rdx, %rax
	.loc 8 1331 49
	subq	-8(%rbp), %rax
	sarq	$3, %rax
	.loc 8 1331 16
	movq	%rax, %rcx
	movsbl	-17(%rbp), %eax
	movq	-8(%rbp), %rdx
	movq	%rcx, %r8
	movl	%eax, %ecx
	call	_ZN8Palmtree4Math4Core8InternalL7DoCarryEcPyy
	.loc 8 1332 5
	nop
	addq	$80, %rsp
	popq	%rbp
	.cfi_restore 6
	.cfi_def_cfa 7, 8
	ret
	.cfi_endproc
.LFE5087:
	.seh_endproc
	.def	_ZN8Palmtree4Math4Core8InternalL24DivRem_X_X_using_ADC_MULEPyyS3_yS3_S3_S3_;	.scl	3;	.type	32;	.endef
	.seh_proc	_ZN8Palmtree4Math4Core8InternalL24DivRem_X_X_using_ADC_MULEPyyS3_yS3_S3_S3_
_ZN8Palmtree4Math4Core8InternalL24DivRem_X_X_using_ADC_MULEPyyS3_yS3_S3_S3_:
.LFB5088:
	.loc 8 1335 5
	.cfi_startproc
	pushq	%rbp
	.seh_pushreg	%rbp
	.cfi_def_cfa_offset 16
	.cfi_offset 6, -16
	movq	%rsp, %rbp
	.seh_setframe	%rbp, 0
	.cfi_def_cfa_register 6
	subq	$80, %rsp
	.seh_stackalloc	80
	.seh_endprologue
	movq	%rcx, 16(%rbp)
	movq	%rdx, 24(%rbp)
	movq	%r8, 32(%rbp)
	movq	%r9, 40(%rbp)
	.loc 8 1352 67
	movq	40(%rbp), %rax
	salq	$3, %rax
	leaq	-8(%rax), %rdx
	movq	32(%rbp), %rax
	addq	%rdx, %rax
	.loc 8 1352 47
	movq	(%rax), %rax
	movq	%rax, %rcx
	call	_LZCNT_ALT_UNIT
	.loc 8 1352 68
	cltq
	movq	%rax, -24(%rbp)
	.loc 8 1353 9
	cmpq	$0, -24(%rbp)
	jne	.L177
	.loc 8 1355 30
	movq	24(%rbp), %rdx
	movq	64(%rbp), %rax
	movq	%rdx, %r8
	movq	16(%rbp), %rdx
	movq	%rax, %rcx
	call	_COPY_MEMORY_UNIT
	.loc 8 1356 30
	movq	40(%rbp), %rcx
	movq	32(%rbp), %rdx
	movq	48(%rbp), %rax
	movq	%rcx, %r8
	movq	%rax, %rcx
	call	_COPY_MEMORY_UNIT
	.loc 8 1357 28
	movq	24(%rbp), %rax
	leaq	0(,%rax,8), %rdx
	movq	64(%rbp), %rax
	addq	%rdx, %rax
	.loc 8 1357 30
	movq	$0, (%rax)
	jmp	.L178
.L177:
	.loc 8 1361 26
	movq	64(%rbp), %rcx
	movq	-24(%rbp), %rdx
	movq	24(%rbp), %rax
	movl	$0, 32(%rsp)
	movq	%rcx, %r9
	movq	%rdx, %r8
	movq	%rax, %rdx
	movq	16(%rbp), %rcx
	call	_ZN8Palmtree4Math4Core8Internal13LeftShift_ImpEPyyyS3_i
	.loc 8 1362 26
	movq	48(%rbp), %r8
	movq	-24(%rbp), %rcx
	movq	40(%rbp), %rdx
	movq	32(%rbp), %rax
	movl	$0, 32(%rsp)
	movq	%r8, %r9
	movq	%rcx, %r8
	movq	%rax, %rcx
	call	_ZN8Palmtree4Math4Core8Internal13LeftShift_ImpEPyyyS3_i
.L178:
	.loc 8 1365 22
	movq	64(%rbp), %rax
	movq	%rax, -32(%rbp)
	.loc 8 1366 21
	movq	24(%rbp), %rax
	subq	40(%rbp), %rax
	movq	%rax, -8(%rbp)
.L183:
.LBB68:
.LBB69:
	.loc 8 1370 41
	movq	-8(%rbp), %r8
	movq	40(%rbp), %rcx
	movq	48(%rbp), %rdx
	movq	-32(%rbp), %rax
	movq	%r8, %r9
	movq	%rcx, %r8
	movq	%rax, %rcx
	call	_ZN8Palmtree4Math4Core8InternalL11CalculateQ_EPyS3_yy
	movq	%rax, -16(%rbp)
	.loc 8 1373 32
	movq	40(%rbp), %r9
	movq	48(%rbp), %r8
	movq	24(%rbp), %rdx
	movq	-32(%rbp), %rax
	movq	-16(%rbp), %rcx
	movq	%rcx, 40(%rsp)
	movq	-8(%rbp), %rcx
	movq	%rcx, 32(%rsp)
	movq	%rax, %rcx
	call	_ZN8Palmtree4Math4Core8InternalL15SubtructOneLineEPyyS3_yyy
	.loc 8 1373 91
	testl	%eax, %eax
	setne	%al
	.loc 8 1373 13
	testb	%al, %al
	je	.L179
	.loc 8 1376 17
	subq	$1, -16(%rbp)
	.loc 8 1377 27
	movq	40(%rbp), %r9
	movq	48(%rbp), %r8
	movq	24(%rbp), %rdx
	movq	-32(%rbp), %rax
	movq	-8(%rbp), %rcx
	movq	%rcx, 32(%rsp)
	movq	%rax, %rcx
	call	_ZN8Palmtree4Math4Core8InternalL10AddOneLineEPyyS3_yy
.L179:
	.loc 8 1380 13
	cmpq	$0, 56(%rbp)
	je	.L180
	.loc 8 1381 30
	movq	-8(%rbp), %rax
	leaq	0(,%rax,8), %rdx
	movq	56(%rbp), %rax
	addq	%rdx, %rax
	.loc 8 1381 32
	movq	-16(%rbp), %rdx
	movq	%rdx, (%rax)
.L180:
	.loc 8 1382 13
	cmpq	$0, -8(%rbp)
	je	.L186
	.loc 8 1384 13
	subq	$1, -8(%rbp)
.LBE69:
	.loc 8 1385 9
	jmp	.L183
.L186:
.LBB70:
	.loc 8 1383 17
	nop
.LBE70:
.LBE68:
	.loc 8 1387 9
	cmpq	$0, -24(%rbp)
	je	.L187
	.loc 8 1388 27
	movq	24(%rbp), %rax
	leaq	1(%rax), %rdx
	movq	-32(%rbp), %r8
	movq	-24(%rbp), %rcx
	movq	-32(%rbp), %rax
	movl	$0, 32(%rsp)
	movq	%r8, %r9
	movq	%rcx, %r8
	movq	%rax, %rcx
	call	_ZN8Palmtree4Math4Core8Internal14RightShift_ImpEPyyyS3_i
.L187:
	.loc 8 1389 5
	nop
	addq	$80, %rsp
	popq	%rbp
	.cfi_restore 6
	.cfi_def_cfa 7, 8
	ret
	.cfi_endproc
.LFE5088:
	.seh_endproc
	.def	_ZN8Palmtree4Math4Core8InternalL25DivRem_X_X_using_ADX_MULXEPyyS3_yS3_S3_S3_;	.scl	3;	.type	32;	.endef
	.seh_proc	_ZN8Palmtree4Math4Core8InternalL25DivRem_X_X_using_ADX_MULXEPyyS3_yS3_S3_S3_
_ZN8Palmtree4Math4Core8InternalL25DivRem_X_X_using_ADX_MULXEPyyS3_yS3_S3_S3_:
.LFB5089:
	.loc 8 1392 5
	.cfi_startproc
	pushq	%rbp
	.seh_pushreg	%rbp
	.cfi_def_cfa_offset 16
	.cfi_offset 6, -16
	movq	%rsp, %rbp
	.seh_setframe	%rbp, 0
	.cfi_def_cfa_register 6
	subq	$80, %rsp
	.seh_stackalloc	80
	.seh_endprologue
	movq	%rcx, 16(%rbp)
	movq	%rdx, 24(%rbp)
	movq	%r8, 32(%rbp)
	movq	%r9, 40(%rbp)
	.loc 8 1402 67
	movq	40(%rbp), %rax
	salq	$3, %rax
	leaq	-8(%rax), %rdx
	movq	32(%rbp), %rax
	addq	%rdx, %rax
	.loc 8 1402 47
	movq	(%rax), %rax
	movq	%rax, %rcx
	call	_LZCNT_ALT_UNIT
	.loc 8 1402 68
	cltq
	movq	%rax, -24(%rbp)
	.loc 8 1403 9
	cmpq	$0, -24(%rbp)
	jne	.L189
	.loc 8 1405 30
	movq	24(%rbp), %rdx
	movq	64(%rbp), %rax
	movq	%rdx, %r8
	movq	16(%rbp), %rdx
	movq	%rax, %rcx
	call	_COPY_MEMORY_UNIT
	.loc 8 1406 30
	movq	40(%rbp), %rcx
	movq	32(%rbp), %rdx
	movq	48(%rbp), %rax
	movq	%rcx, %r8
	movq	%rax, %rcx
	call	_COPY_MEMORY_UNIT
	.loc 8 1407 28
	movq	24(%rbp), %rax
	leaq	0(,%rax,8), %rdx
	movq	64(%rbp), %rax
	addq	%rdx, %rax
	.loc 8 1407 30
	movq	$0, (%rax)
	jmp	.L190
.L189:
	.loc 8 1411 26
	movq	64(%rbp), %rcx
	movq	-24(%rbp), %rdx
	movq	24(%rbp), %rax
	movl	$0, 32(%rsp)
	movq	%rcx, %r9
	movq	%rdx, %r8
	movq	%rax, %rdx
	movq	16(%rbp), %rcx
	call	_ZN8Palmtree4Math4Core8Internal13LeftShift_ImpEPyyyS3_i
	.loc 8 1412 26
	movq	48(%rbp), %r8
	movq	-24(%rbp), %rcx
	movq	40(%rbp), %rdx
	movq	32(%rbp), %rax
	movl	$0, 32(%rsp)
	movq	%r8, %r9
	movq	%rcx, %r8
	movq	%rax, %rcx
	call	_ZN8Palmtree4Math4Core8Internal13LeftShift_ImpEPyyyS3_i
.L190:
	.loc 8 1415 22
	movq	64(%rbp), %rax
	movq	%rax, -32(%rbp)
	.loc 8 1416 21
	movq	24(%rbp), %rax
	subq	40(%rbp), %rax
	movq	%rax, -8(%rbp)
.L195:
.LBB71:
.LBB72:
	.loc 8 1420 42
	movq	-8(%rbp), %r8
	movq	40(%rbp), %rcx
	movq	48(%rbp), %rdx
	movq	-32(%rbp), %rax
	movq	%r8, %r9
	movq	%rcx, %r8
	movq	%rax, %rcx
	call	_ZN8Palmtree4Math4Core8InternalL12CalculateQ_XEPyS3_yy
	movq	%rax, -16(%rbp)
	.loc 8 1422 33
	movq	40(%rbp), %r9
	movq	48(%rbp), %r8
	movq	24(%rbp), %rdx
	movq	-32(%rbp), %rax
	movq	-16(%rbp), %rcx
	movq	%rcx, 40(%rsp)
	movq	-8(%rbp), %rcx
	movq	%rcx, 32(%rsp)
	movq	%rax, %rcx
	call	_ZN8Palmtree4Math4Core8InternalL16SubtructOneLineXEPyyS3_yyy
	.loc 8 1422 92
	testl	%eax, %eax
	setne	%al
	.loc 8 1422 13
	testb	%al, %al
	je	.L191
	.loc 8 1426 17
	subq	$1, -16(%rbp)
	.loc 8 1427 28
	movq	40(%rbp), %r9
	movq	48(%rbp), %r8
	movq	24(%rbp), %rdx
	movq	-32(%rbp), %rax
	movq	-8(%rbp), %rcx
	movq	%rcx, 32(%rsp)
	movq	%rax, %rcx
	call	_ZN8Palmtree4Math4Core8InternalL11AddOneLineXEPyyS3_yy
.L191:
	.loc 8 1430 13
	cmpq	$0, 56(%rbp)
	je	.L192
	.loc 8 1431 30
	movq	-8(%rbp), %rax
	leaq	0(,%rax,8), %rdx
	movq	56(%rbp), %rax
	addq	%rdx, %rax
	.loc 8 1431 32
	movq	-16(%rbp), %rdx
	movq	%rdx, (%rax)
.L192:
	.loc 8 1434 13
	cmpq	$0, -8(%rbp)
	je	.L198
	.loc 8 1436 13
	subq	$1, -8(%rbp)
.LBE72:
	.loc 8 1437 9
	jmp	.L195
.L198:
.LBB73:
	.loc 8 1435 17
	nop
.LBE73:
.LBE71:
	.loc 8 1439 9
	cmpq	$0, -24(%rbp)
	je	.L199
	.loc 8 1440 27
	movq	24(%rbp), %rax
	leaq	1(%rax), %rdx
	movq	-32(%rbp), %r8
	movq	-24(%rbp), %rcx
	movq	-32(%rbp), %rax
	movl	$0, 32(%rsp)
	movq	%r8, %r9
	movq	%rcx, %r8
	movq	%rax, %rcx
	call	_ZN8Palmtree4Math4Core8Internal14RightShift_ImpEPyyyS3_i
.L199:
	.loc 8 1441 5
	nop
	addq	$80, %rsp
	popq	%rbp
	.cfi_restore 6
	.cfi_def_cfa 7, 8
	ret
	.cfi_endproc
.LFE5089:
	.seh_endproc
	.section .rdata,"dr"
	.align 2
.LC0:
	.ascii "v\0\0\0"
	.align 8
.LC1:
	.ascii "\25_pek0n\0u\0l\0l\0p\0t\0r\0L0\16NH0\211"
	.ascii "0\214"
	.ascii "0f0D0~0Y0\2"
	.ascii "0\0\0"
	.align 8
.LC2:
	.ascii "0\0k0\210"
	.ascii "0\213"
	.ascii "0d\226\227{L0L\210\217"
	.ascii "0\214"
	.ascii "0\210"
	.ascii "0F0h0W0~0W0_0\2"
	.ascii "0\0\0"
	.text
	.globl	_ZN8Palmtree4Math4Core8Internal14PMC_DivRem_I_XEjPNS2_21__tag_PMC_HANDLE_UINTEPj
	.def	_ZN8Palmtree4Math4Core8Internal14PMC_DivRem_I_XEjPNS2_21__tag_PMC_HANDLE_UINTEPj;	.scl	2;	.type	32;	.endef
	.seh_proc	_ZN8Palmtree4Math4Core8Internal14PMC_DivRem_I_XEjPNS2_21__tag_PMC_HANDLE_UINTEPj
_ZN8Palmtree4Math4Core8Internal14PMC_DivRem_I_XEjPNS2_21__tag_PMC_HANDLE_UINTEPj:
.LFB5090:
	.loc 8 1444 5
	.cfi_startproc
	pushq	%rbp
	.seh_pushreg	%rbp
	.cfi_def_cfa_offset 16
	.cfi_offset 6, -16
	pushq	%rbx
	.seh_pushreg	%rbx
	.cfi_def_cfa_offset 24
	.cfi_offset 3, -24
	subq	$88, %rsp
	.seh_stackalloc	88
	.cfi_def_cfa_offset 112
	leaq	128(%rsp), %rbp
	.seh_setframe	%rbp, 128
	.cfi_def_cfa 6, -16
	.seh_endprologue
	movl	%ecx, -16(%rbp)
	movq	%rdx, -8(%rbp)
	movq	%r8, 0(%rbp)
	.loc 8 1450 9
	cmpq	$0, -8(%rbp)
	jne	.L201
	.loc 8 1451 96
	movl	$32, %ecx
	call	__cxa_allocate_exception
	movq	%rax, %rbx
	leaq	.LC0(%rip), %r8
	leaq	.LC1(%rip), %rdx
	movq	%rbx, %rcx
	call	_ZN8Palmtree4Math4Core8Internal21ArgumentNullExceptionC1EPKwS5_
	leaq	_ZN8Palmtree4Math4Core8Internal21ArgumentNullExceptionD1Ev(%rip), %rax
	movq	%rax, %r8
	leaq	_ZTIN8Palmtree4Math4Core8Internal21ArgumentNullExceptionE(%rip), %rdx
	movq	%rbx, %rcx
	call	__cxa_throw
.L201:
	.loc 8 1452 24
	movq	-8(%rbp), %rax
	movq	%rax, -56(%rbp)
	.loc 8 1453 20
	movq	-56(%rbp), %rax
	movq	%rax, %rcx
	call	_ZN8Palmtree4Math4Core8Internal11CheckNumberEPNS2_19__tag_NUMBER_HEADERE
	.loc 8 1454 24
	movq	-56(%rbp), %rax
	movzbl	8(%rax), %eax
	andl	$1, %eax
	.loc 8 1454 9
	testb	%al, %al
	je	.L202
	.loc 8 1459 98
	movl	$32, %ecx
	call	__cxa_allocate_exception
	movq	%rax, %rbx
	leaq	.LC2(%rip), %rdx
	movq	%rbx, %rcx
	call	_ZN8Palmtree4Math4Core8Internal23DivisionByZeroExceptionC1EPKw
	leaq	_ZN8Palmtree4Math4Core8Internal23DivisionByZeroExceptionD1Ev(%rip), %rax
	movq	%rax, %r8
	leaq	_ZTIN8Palmtree4Math4Core8Internal23DivisionByZeroExceptionE(%rip), %rdx
	movq	%rbx, %rcx
	call	__cxa_throw
.L202:
.LBB74:
	.loc 8 1461 15
	movl	-16(%rbp), %eax
	.loc 8 1461 9
	testl	%eax, %eax
	jne	.L203
	.loc 8 1466 13
	cmpq	$0, 0(%rbp)
	je	.L204
	.loc 8 1467 20
	movq	0(%rbp), %rax
	movl	$0, (%rax)
.L204:
	.loc 8 1468 22
	movl	$0, %eax
	jmp	.L205
.L203:
.LBB75:
.LBB76:
	.loc 8 1474 27
	movq	-56(%rbp), %rax
	movzbl	8(%rax), %eax
	andl	$2, %eax
	.loc 8 1474 13
	testb	%al, %al
	je	.L206
	.loc 8 1479 17
	cmpq	$0, 0(%rbp)
	je	.L207
	.loc 8 1480 24
	movl	-16(%rbp), %edx
	movq	0(%rbp), %rax
	movl	%edx, (%rax)
.L207:
	.loc 8 1481 26
	movl	$0, %eax
	jmp	.L205
.L206:
.LBB77:
	.loc 8 1488 72
	movl	-16(%rbp), %eax
	movl	%eax, %ecx
	call	_LZCNT_ALT_32
	cltq
	.loc 8 1488 74
	movl	$32, %edx
	subq	%rax, %rdx
	movq	%rdx, %rax
	movq	%rax, -64(%rbp)
	.loc 8 1489 29
	movq	-56(%rbp), %rax
	movq	32(%rax), %rax
	movq	%rax, -72(%rbp)
.LBB78:
	.loc 8 1490 17
	movq	-64(%rbp), %rax
	cmpq	-72(%rbp), %rax
	jnb	.L208
	.loc 8 1495 21
	cmpq	$0, 0(%rbp)
	je	.L209
	.loc 8 1496 28
	movq	0(%rbp), %rax
	movl	$0, (%rax)
.L209:
	.loc 8 1497 30
	movl	-16(%rbp), %eax
	jmp	.L205
.L208:
.LBB79:
	.loc 8 1505 78
	movq	-56(%rbp), %rax
	movq	64(%rax), %rax
	.loc 8 1505 54
	movq	(%rax), %rdx
	movl	-16(%rbp), %eax
	movl	%eax, %ecx
	leaq	-88(%rbp), %rax
	movq	%rax, %r9
	movq	%rdx, %r8
	movq	%rcx, %rdx
	movl	$0, %ecx
	call	_DIVREM_UNIT
	movq	%rax, -80(%rbp)
	.loc 8 1506 21
	cmpq	$0, 0(%rbp)
	je	.L210
	.loc 8 1507 28
	movq	-80(%rbp), %rax
	movl	%eax, %edx
	movq	0(%rbp), %rax
	movl	%edx, (%rax)
.L210:
	.loc 8 1512 46
	call	_ZN8Palmtree4Math4Core8InternalL21IncrementDIV32CounterEv
	.loc 8 1514 46
	movq	-88(%rbp), %rax
.L205:
.LBE79:
.LBE78:
.LBE77:
.LBE76:
.LBE75:
.LBE74:
	.loc 8 1518 5 discriminator 1
	addq	$88, %rsp
	popq	%rbx
	.cfi_restore 3
	popq	%rbp
	.cfi_restore 6
	.cfi_def_cfa 7, -72
	ret
	.cfi_endproc
.LFE5090:
	.seh_endproc
	.def	_ZN8Palmtree4Math4Core8InternalL18PMC_DivRem_X_I_ImpEPNS2_19__tag_NUMBER_HEADEREjPS4_;	.scl	3;	.type	32;	.endef
	.seh_proc	_ZN8Palmtree4Math4Core8InternalL18PMC_DivRem_X_I_ImpEPNS2_19__tag_NUMBER_HEADEREjPS4_
_ZN8Palmtree4Math4Core8InternalL18PMC_DivRem_X_I_ImpEPNS2_19__tag_NUMBER_HEADEREjPS4_:
.LFB5091:
	.loc 8 1521 5
	.cfi_startproc
	pushq	%rbp
	.seh_pushreg	%rbp
	.cfi_def_cfa_offset 16
	.cfi_offset 6, -16
	pushq	%rbx
	.seh_pushreg	%rbx
	.cfi_def_cfa_offset 24
	.cfi_offset 3, -24
	subq	$136, %rsp
	.seh_stackalloc	136
	.cfi_def_cfa_offset 160
	leaq	128(%rsp), %rbp
	.seh_setframe	%rbp, 128
	.cfi_def_cfa 6, 32
	.seh_endprologue
	movq	%rcx, 32(%rbp)
	movl	%edx, 40(%rbp)
	movq	%r8, 48(%rbp)
	.loc 8 1522 9
	cmpl	$0, 40(%rbp)
	jne	.L212
	.loc 8 1527 98
	movl	$32, %ecx
	call	__cxa_allocate_exception
	movq	%rax, %rbx
	leaq	.LC2(%rip), %rdx
	movq	%rbx, %rcx
	call	_ZN8Palmtree4Math4Core8Internal23DivisionByZeroExceptionC1EPKw
	leaq	_ZN8Palmtree4Math4Core8Internal23DivisionByZeroExceptionD1Ev(%rip), %rax
	movq	%rax, %r8
	leaq	_ZTIN8Palmtree4Math4Core8Internal23DivisionByZeroExceptionE(%rip), %rdx
	movq	%rbx, %rcx
.LEHB0:
	call	__cxa_throw
.L212:
.LBB80:
	.loc 8 1529 23
	movq	32(%rbp), %rax
	movzbl	8(%rax), %eax
	andl	$1, %eax
	.loc 8 1529 9
	testb	%al, %al
	je	.L213
	.loc 8 1535 13
	cmpq	$0, 48(%rbp)
	je	.L214
	.loc 8 1536 20
	movq	48(%rbp), %rax
	movq	.refptr._ZN8Palmtree4Math4Core8Internal11number_zeroE(%rip), %rdx
	movq	%rdx, (%rax)
.L214:
	.loc 8 1537 22
	movl	$0, %ebx
	jmp	.L215
.L213:
.LBB81:
.LBB82:
	.loc 8 1543 13
	cmpl	$1, 40(%rbp)
	jne	.L216
	.loc 8 1548 17
	cmpq	$0, 48(%rbp)
	je	.L217
	.loc 8 1549 41
	movq	32(%rbp), %rcx
	call	_ZN8Palmtree4Math4Core8Internal15DuplicateNumberEPNS2_19__tag_NUMBER_HEADERE
	movq	%rax, %rdx
	.loc 8 1549 24
	movq	48(%rbp), %rax
	movq	%rdx, (%rax)
.L217:
	.loc 8 1550 26
	movl	$0, %ebx
	jmp	.L215
.L216:
.LBB83:
	.loc 8 1557 29
	movq	32(%rbp), %rax
	movq	32(%rax), %rax
	movq	%rax, -8(%rbp)
	.loc 8 1558 72
	movl	40(%rbp), %eax
	movl	%eax, %ecx
	call	_LZCNT_ALT_32
	cltq
	.loc 8 1558 74
	movl	$32, %edx
	subq	%rax, %rdx
	movq	%rdx, %rax
	movq	%rax, -16(%rbp)
.LBB84:
	.loc 8 1559 17
	movq	-8(%rbp), %rax
	cmpq	-16(%rbp), %rax
	jnb	.L218
	.loc 8 1564 21
	cmpq	$0, 48(%rbp)
	je	.L219
	.loc 8 1565 28
	movq	48(%rbp), %rax
	movq	.refptr._ZN8Palmtree4Math4Core8Internal11number_zeroE(%rip), %rdx
	movq	%rdx, (%rax)
.L219:
	.loc 8 1566 43
	movq	32(%rbp), %rax
	movq	64(%rax), %rax
	.loc 8 1566 50
	movq	(%rax), %rax
	.loc 8 1566 51
	movl	%eax, %ebx
	jmp	.L215
.L218:
.LBB85:
.LBB86:
	.loc 8 1570 21
	cmpq	$0, 48(%rbp)
	je	.L220
.LBB87:
	.loc 8 1572 44
	leaq	-80(%rbp), %rax
	movq	%rax, %rcx
	call	_ZN8Palmtree4Math4Core8Internal18ResourceHolderUINTC1Ev
.LEHE0:
	.loc 8 1573 63
	movq	-8(%rbp), %rax
	subq	-16(%rbp), %rax
	.loc 8 1573 37
	addq	$65, %rax
	movq	%rax, -24(%rbp)
	.loc 8 1574 49
	movq	-24(%rbp), %rdx
	leaq	-80(%rbp), %rax
	movq	%rax, %rcx
.LEHB1:
	call	_ZN8Palmtree4Math4Core8Internal18ResourceHolderUINT14AllocateNumberEy
	movq	%rax, %rdx
	.loc 8 1574 28
	movq	48(%rbp), %rax
	movq	%rdx, (%rax)
	.loc 8 1575 37
	movq	$0, -40(%rbp)
	.loc 8 1576 71
	movq	48(%rbp), %rax
	movq	(%rax), %rax
	.loc 8 1576 36
	movq	64(%rax), %r9
	movl	40(%rbp), %r8d
	movq	32(%rbp), %rax
	movq	24(%rax), %rdx
	movq	32(%rbp), %rax
	movq	64(%rax), %rcx
	leaq	-40(%rbp), %rax
	movq	%rax, 32(%rsp)
	call	_ZN8Palmtree4Math4Core8Internal11DivRem_X_1WEPyyyS3_S3_
	.loc 8 1577 41
	movq	48(%rbp), %rax
	movq	(%rax), %rdx
	leaq	-80(%rbp), %rax
	movq	%rax, %rcx
	call	_ZN8Palmtree4Math4Core8Internal18ResourceHolderUINT11CheckNumberEPNS2_19__tag_NUMBER_HEADERE
	.loc 8 1578 37
	movq	48(%rbp), %rax
	movq	(%rax), %rax
	movq	%rax, %rcx
	call	_ZN8Palmtree4Math4Core8Internal12CommitNumberEPNS2_19__tag_NUMBER_HEADERE
	.loc 8 1579 30
	movq	48(%rbp), %rax
	movq	(%rax), %rax
	.loc 8 1579 42
	movzbl	8(%rax), %eax
	andl	$1, %eax
	.loc 8 1579 25
	testb	%al, %al
	je	.L221
	.loc 8 1581 50
	movq	48(%rbp), %rax
	movq	(%rax), %rdx
	leaq	-80(%rbp), %rax
	movq	%rax, %rcx
	call	_ZN8Palmtree4Math4Core8Internal18ResourceHolderUINT16DeallocateNumberEPNS2_19__tag_NUMBER_HEADERE
	.loc 8 1582 32
	movq	48(%rbp), %rax
	movq	.refptr._ZN8Palmtree4Math4Core8Internal11number_zeroE(%rip), %rdx
	movq	%rdx, (%rax)
	jmp	.L222
.L221:
	.loc 8 1585 46
	movq	48(%rbp), %rax
	movq	(%rax), %rdx
	leaq	-80(%rbp), %rax
	movq	%rax, %rcx
	call	_ZN8Palmtree4Math4Core8Internal18ResourceHolderUINT12UnlinkNumberEPNS2_19__tag_NUMBER_HEADERE
.LEHE1:
.L222:
	.loc 8 1586 49
	movq	-40(%rbp), %rax
	movl	%eax, %ebx
	.loc 8 1572 44
	leaq	-80(%rbp), %rax
	movq	%rax, %rcx
	call	_ZN8Palmtree4Math4Core8Internal18ResourceHolderUINTD1Ev
	jmp	.L215
.L220:
.LBE87:
.LBB88:
	.loc 8 1590 53
	movl	40(%rbp), %ecx
	movq	32(%rbp), %rax
	movq	24(%rax), %rdx
	movq	32(%rbp), %rax
	movq	64(%rax), %rax
	movq	%rcx, %r8
	movq	%rax, %rcx
	call	_ZN8Palmtree4Math4Core8Internal8Rem_X_1WEPyyy
	movq	%rax, -32(%rbp)
	.loc 8 1591 49
	movq	-32(%rbp), %rax
	movl	%eax, %ebx
.L215:
	movl	%ebx, %eax
	jmp	.L225
.L224:
	movq	%rax, %rbx
.LBE88:
.LBB89:
	.loc 8 1572 44
	leaq	-80(%rbp), %rax
	movq	%rax, %rcx
	call	_ZN8Palmtree4Math4Core8Internal18ResourceHolderUINTD1Ev
	movq	%rbx, %rax
	movq	%rax, %rcx
.LEHB2:
	call	_Unwind_Resume
.LEHE2:
.L225:
.LBE89:
.LBE86:
.LBE85:
.LBE84:
.LBE83:
.LBE82:
.LBE81:
.LBE80:
	.loc 8 1596 5
	addq	$136, %rsp
	popq	%rbx
	.cfi_restore 3
	popq	%rbp
	.cfi_restore 6
	.cfi_def_cfa 7, -120
	ret
	.cfi_endproc
.LFE5091:
	.def	__gxx_personality_seh0;	.scl	2;	.type	32;	.endef
	.seh_handler	__gxx_personality_seh0, @unwind, @except
	.seh_handlerdata
.LLSDA5091:
	.byte	0xff
	.byte	0xff
	.byte	0x1
	.uleb128 .LLSDACSE5091-.LLSDACSB5091
.LLSDACSB5091:
	.uleb128 .LEHB0-.LFB5091
	.uleb128 .LEHE0-.LEHB0
	.uleb128 0
	.uleb128 0
	.uleb128 .LEHB1-.LFB5091
	.uleb128 .LEHE1-.LEHB1
	.uleb128 .L224-.LFB5091
	.uleb128 0
	.uleb128 .LEHB2-.LFB5091
	.uleb128 .LEHE2-.LEHB2
	.uleb128 0
	.uleb128 0
.LLSDACSE5091:
	.text
	.seh_endproc
	.section .rdata,"dr"
	.align 2
.LC3:
	.ascii "u\0\0\0"
	.text
	.globl	_ZN8Palmtree4Math4Core8Internal14PMC_DivRem_X_IEPNS2_21__tag_PMC_HANDLE_UINTEjPS4_
	.def	_ZN8Palmtree4Math4Core8Internal14PMC_DivRem_X_IEPNS2_21__tag_PMC_HANDLE_UINTEjPS4_;	.scl	2;	.type	32;	.endef
	.seh_proc	_ZN8Palmtree4Math4Core8Internal14PMC_DivRem_X_IEPNS2_21__tag_PMC_HANDLE_UINTEjPS4_
_ZN8Palmtree4Math4Core8Internal14PMC_DivRem_X_IEPNS2_21__tag_PMC_HANDLE_UINTEjPS4_:
.LFB5092:
	.loc 8 1599 5
	.cfi_startproc
	pushq	%rbp
	.seh_pushreg	%rbp
	.cfi_def_cfa_offset 16
	.cfi_offset 6, -16
	pushq	%rbx
	.seh_pushreg	%rbx
	.cfi_def_cfa_offset 24
	.cfi_offset 3, -24
	subq	$104, %rsp
	.seh_stackalloc	104
	.cfi_def_cfa_offset 128
	leaq	128(%rsp), %rbp
	.seh_setframe	%rbp, 128
	.cfi_def_cfa 6, 0
	.seh_endprologue
	movq	%rcx, 0(%rbp)
	movl	%edx, 8(%rbp)
	movq	%r8, 16(%rbp)
	.loc 8 1605 9
	cmpq	$0, 0(%rbp)
	jne	.L227
	.loc 8 1606 96
	movl	$32, %ecx
	call	__cxa_allocate_exception
	movq	%rax, %rbx
	leaq	.LC3(%rip), %r8
	leaq	.LC1(%rip), %rdx
	movq	%rbx, %rcx
	call	_ZN8Palmtree4Math4Core8Internal21ArgumentNullExceptionC1EPKwS5_
	leaq	_ZN8Palmtree4Math4Core8Internal21ArgumentNullExceptionD1Ev(%rip), %rax
	movq	%rax, %r8
	leaq	_ZTIN8Palmtree4Math4Core8Internal21ArgumentNullExceptionE(%rip), %rdx
	movq	%rbx, %rcx
.LEHB3:
	call	__cxa_throw
.L227:
	.loc 8 1607 24
	movq	0(%rbp), %rax
	movq	%rax, -40(%rbp)
	.loc 8 1608 20
	movq	-40(%rbp), %rax
	movq	%rax, %rcx
	call	_ZN8Palmtree4Math4Core8Internal11CheckNumberEPNS2_19__tag_NUMBER_HEADERE
	.loc 8 1609 28
	leaq	-80(%rbp), %rax
	movq	%rax, %rcx
	call	_ZN8Palmtree4Math4Core8Internal18ResourceHolderUINTC1Ev
.LEHE3:
.LBB90:
	.loc 8 1611 9
	cmpq	$0, 16(%rbp)
	je	.L228
.LBB91:
	.loc 8 1613 45
	leaq	-88(%rbp), %rcx
	movl	8(%rbp), %edx
	movq	-40(%rbp), %rax
	movq	%rcx, %r8
	movq	%rax, %rcx
.LEHB4:
	call	_ZN8Palmtree4Math4Core8InternalL18PMC_DivRem_X_I_ImpEPNS2_19__tag_NUMBER_HEADEREjPS4_
	.loc 8 1613 56
	movl	%eax, -92(%rbp)
	.loc 8 1614 28
	movq	-88(%rbp), %rdx
	leaq	-80(%rbp), %rax
	movq	%rax, %rcx
	call	_ZN8Palmtree4Math4Core8Internal18ResourceHolderUINT10HookNumberEPNS2_19__tag_NUMBER_HEADERE
	.loc 8 1616 24
	movq	-88(%rbp), %rax
	movq	%rax, %rcx
	call	_ZN8Palmtree4Math4Core8Internal11CheckNumberEPNS2_19__tag_NUMBER_HEADERE
	.loc 8 1618 16
	movq	-88(%rbp), %rdx
	movq	16(%rbp), %rax
	movq	%rdx, (%rax)
	.loc 8 1619 30
	movq	-88(%rbp), %rdx
	leaq	-80(%rbp), %rax
	movq	%rax, %rcx
	call	_ZN8Palmtree4Math4Core8Internal18ResourceHolderUINT12UnlinkNumberEPNS2_19__tag_NUMBER_HEADERE
	.loc 8 1620 22
	movl	-92(%rbp), %ebx
	jmp	.L229
.L228:
.LBE91:
.LBB92:
	.loc 8 1624 45
	movl	8(%rbp), %edx
	movq	-40(%rbp), %rax
	movl	$0, %r8d
	movq	%rax, %rcx
	call	_ZN8Palmtree4Math4Core8InternalL18PMC_DivRem_X_I_ImpEPNS2_19__tag_NUMBER_HEADEREjPS4_
.LEHE4:
	.loc 8 1624 60
	movl	%eax, -96(%rbp)
	.loc 8 1625 22
	movl	-96(%rbp), %ebx
.L229:
.LBE92:
.LBE90:
	.loc 8 1609 28
	leaq	-80(%rbp), %rax
	movq	%rax, %rcx
	call	_ZN8Palmtree4Math4Core8Internal18ResourceHolderUINTD1Ev
	movl	%ebx, %eax
	jmp	.L233
.L232:
	movq	%rax, %rbx
	leaq	-80(%rbp), %rax
	movq	%rax, %rcx
	call	_ZN8Palmtree4Math4Core8Internal18ResourceHolderUINTD1Ev
	movq	%rbx, %rax
	movq	%rax, %rcx
.LEHB5:
	call	_Unwind_Resume
.LEHE5:
.L233:
	.loc 8 1627 5
	addq	$104, %rsp
	popq	%rbx
	.cfi_restore 3
	popq	%rbp
	.cfi_restore 6
	.cfi_def_cfa 7, -88
	ret
	.cfi_endproc
.LFE5092:
	.seh_handler	__gxx_personality_seh0, @unwind, @except
	.seh_handlerdata
.LLSDA5092:
	.byte	0xff
	.byte	0xff
	.byte	0x1
	.uleb128 .LLSDACSE5092-.LLSDACSB5092
.LLSDACSB5092:
	.uleb128 .LEHB3-.LFB5092
	.uleb128 .LEHE3-.LEHB3
	.uleb128 0
	.uleb128 0
	.uleb128 .LEHB4-.LFB5092
	.uleb128 .LEHE4-.LEHB4
	.uleb128 .L232-.LFB5092
	.uleb128 0
	.uleb128 .LEHB5-.LFB5092
	.uleb128 .LEHE5-.LEHB5
	.uleb128 0
	.uleb128 0
.LLSDACSE5092:
	.text
	.seh_endproc
	.globl	_ZN8Palmtree4Math4Core8Internal14PMC_DivRem_L_XEyPNS2_21__tag_PMC_HANDLE_UINTEPy
	.def	_ZN8Palmtree4Math4Core8Internal14PMC_DivRem_L_XEyPNS2_21__tag_PMC_HANDLE_UINTEPy;	.scl	2;	.type	32;	.endef
	.seh_proc	_ZN8Palmtree4Math4Core8Internal14PMC_DivRem_L_XEyPNS2_21__tag_PMC_HANDLE_UINTEPy
_ZN8Palmtree4Math4Core8Internal14PMC_DivRem_L_XEyPNS2_21__tag_PMC_HANDLE_UINTEPy:
.LFB5093:
	.loc 8 1630 5
	.cfi_startproc
	pushq	%rbp
	.seh_pushreg	%rbp
	.cfi_def_cfa_offset 16
	.cfi_offset 6, -16
	pushq	%rbx
	.seh_pushreg	%rbx
	.cfi_def_cfa_offset 24
	.cfi_offset 3, -24
	subq	$360, %rsp
	.seh_stackalloc	360
	.cfi_def_cfa_offset 384
	leaq	128(%rsp), %rbp
	.seh_setframe	%rbp, 128
	.cfi_def_cfa 6, 256
	.seh_endprologue
	movq	%rcx, 256(%rbp)
	movq	%rdx, 264(%rbp)
	movq	%r8, 272(%rbp)
	.loc 8 1636 9
	cmpq	$0, 264(%rbp)
	jne	.L235
	.loc 8 1637 96
	movl	$32, %ecx
	call	__cxa_allocate_exception
	movq	%rax, %rbx
	leaq	.LC0(%rip), %r8
	leaq	.LC1(%rip), %rdx
	movq	%rbx, %rcx
	call	_ZN8Palmtree4Math4Core8Internal21ArgumentNullExceptionC1EPKwS5_
	leaq	_ZN8Palmtree4Math4Core8Internal21ArgumentNullExceptionD1Ev(%rip), %rax
	movq	%rax, %r8
	leaq	_ZTIN8Palmtree4Math4Core8Internal21ArgumentNullExceptionE(%rip), %rdx
	movq	%rbx, %rcx
	call	__cxa_throw
.L235:
	.loc 8 1638 24
	movq	264(%rbp), %rax
	movq	%rax, 216(%rbp)
	.loc 8 1639 20
	movq	216(%rbp), %rax
	movq	%rax, %rcx
	call	_ZN8Palmtree4Math4Core8Internal11CheckNumberEPNS2_19__tag_NUMBER_HEADERE
	.loc 8 1640 24
	movq	216(%rbp), %rax
	movzbl	8(%rax), %eax
	andl	$1, %eax
	.loc 8 1640 9
	testb	%al, %al
	je	.L236
	.loc 8 1645 98
	movl	$32, %ecx
	call	__cxa_allocate_exception
	movq	%rax, %rbx
	leaq	.LC2(%rip), %rdx
	movq	%rbx, %rcx
	call	_ZN8Palmtree4Math4Core8Internal23DivisionByZeroExceptionC1EPKw
	leaq	_ZN8Palmtree4Math4Core8Internal23DivisionByZeroExceptionD1Ev(%rip), %rax
	movq	%rax, %r8
	leaq	_ZTIN8Palmtree4Math4Core8Internal23DivisionByZeroExceptionE(%rip), %rdx
	movq	%rbx, %rcx
	call	__cxa_throw
.L236:
.LBB93:
	.loc 8 1647 15
	movq	256(%rbp), %rax
	.loc 8 1647 9
	testq	%rax, %rax
	jne	.L237
	.loc 8 1652 13
	cmpq	$0, 272(%rbp)
	je	.L238
	.loc 8 1653 20
	movq	272(%rbp), %rax
	movq	$0, (%rax)
.L238:
	.loc 8 1654 22
	movl	$0, %eax
	jmp	.L239
.L237:
.LBB94:
.LBB95:
	.loc 8 1660 27
	movq	216(%rbp), %rax
	movzbl	8(%rax), %eax
	andl	$2, %eax
	.loc 8 1660 13
	testb	%al, %al
	je	.L245
	.loc 8 1665 17
	cmpq	$0, 272(%rbp)
	je	.L241
	.loc 8 1666 24
	movq	256(%rbp), %rdx
	movq	272(%rbp), %rax
	movq	%rdx, (%rax)
.L241:
	.loc 8 1667 26
	movl	$0, %eax
	jmp	.L239
.L245:
.LBB96:
.LBB97:
.LBB98:
	.loc 8 1783 78
	movq	256(%rbp), %rax
	movq	%rax, %rcx
	call	_LZCNT_ALT_UNIT
	cltq
	.loc 8 1783 93
	movl	$64, %edx
	subq	%rax, %rdx
	movq	%rdx, %rax
	movq	%rax, 200(%rbp)
	.loc 8 1784 33
	movq	216(%rbp), %rax
	movq	32(%rax), %rax
	movq	%rax, 192(%rbp)
.LBB99:
	.loc 8 1785 21
	movq	200(%rbp), %rax
	cmpq	192(%rbp), %rax
	jnb	.L242
	.loc 8 1790 25
	cmpq	$0, 272(%rbp)
	je	.L243
	.loc 8 1791 32
	movq	272(%rbp), %rax
	movq	$0, (%rax)
.L243:
	.loc 8 1792 34
	movq	256(%rbp), %rax
	jmp	.L239
.L242:
.LBB100:
	.loc 8 1800 95
	movq	216(%rbp), %rax
	movq	64(%rax), %rax
	.loc 8 1800 58
	movq	(%rax), %rcx
	movq	256(%rbp), %rax
	leaq	-88(%rbp), %rdx
	movq	%rdx, %r9
	movq	%rcx, %r8
	movq	%rax, %rdx
	movl	$0, %ecx
	call	_DIVREM_UNIT
	movq	%rax, 208(%rbp)
	.loc 8 1803 50
	call	_ZN8Palmtree4Math4Core8InternalL21IncrementDIV64CounterEv
	.loc 8 1807 25
	cmpq	$0, 272(%rbp)
	je	.L244
	.loc 8 1808 32
	movq	272(%rbp), %rax
	movq	208(%rbp), %rdx
	movq	%rdx, (%rax)
.L244:
	.loc 8 1809 39
	movq	-88(%rbp), %rax
.L239:
.LBE100:
.LBE99:
.LBE98:
.LBE97:
.LBE96:
.LBE95:
.LBE94:
.LBE93:
	.loc 8 1815 5 discriminator 6
	addq	$360, %rsp
	popq	%rbx
	.cfi_restore 3
	popq	%rbp
	.cfi_restore 6
	.cfi_def_cfa 7, -344
	ret
	.cfi_endproc
.LFE5093:
	.seh_endproc
	.def	_ZN8Palmtree4Math4Core8InternalL18PMC_DivRem_X_L_ImpEPNS2_19__tag_NUMBER_HEADEREyPS4_;	.scl	3;	.type	32;	.endef
	.seh_proc	_ZN8Palmtree4Math4Core8InternalL18PMC_DivRem_X_L_ImpEPNS2_19__tag_NUMBER_HEADEREyPS4_
_ZN8Palmtree4Math4Core8InternalL18PMC_DivRem_X_L_ImpEPNS2_19__tag_NUMBER_HEADEREyPS4_:
.LFB5094:
	.loc 8 1818 5
	.cfi_startproc
	pushq	%rbp
	.seh_pushreg	%rbp
	.cfi_def_cfa_offset 16
	.cfi_offset 6, -16
	pushq	%rbx
	.seh_pushreg	%rbx
	.cfi_def_cfa_offset 24
	.cfi_offset 3, -24
	subq	$248, %rsp
	.seh_stackalloc	248
	.cfi_def_cfa_offset 272
	leaq	128(%rsp), %rbp
	.seh_setframe	%rbp, 128
	.cfi_def_cfa 6, 144
	.seh_endprologue
	movq	%rcx, 144(%rbp)
	movq	%rdx, 152(%rbp)
	movq	%r8, 160(%rbp)
	.loc 8 1819 9
	cmpq	$0, 152(%rbp)
	jne	.L247
	.loc 8 1824 98
	movl	$32, %ecx
	call	__cxa_allocate_exception
	movq	%rax, %rbx
	leaq	.LC2(%rip), %rdx
	movq	%rbx, %rcx
	call	_ZN8Palmtree4Math4Core8Internal23DivisionByZeroExceptionC1EPKw
	leaq	_ZN8Palmtree4Math4Core8Internal23DivisionByZeroExceptionD1Ev(%rip), %rax
	movq	%rax, %r8
	leaq	_ZTIN8Palmtree4Math4Core8Internal23DivisionByZeroExceptionE(%rip), %rdx
	movq	%rbx, %rcx
.LEHB6:
	call	__cxa_throw
.L247:
.LBB101:
	.loc 8 1826 23
	movq	144(%rbp), %rax
	movzbl	8(%rax), %eax
	andl	$1, %eax
	.loc 8 1826 9
	testb	%al, %al
	je	.L248
	.loc 8 1831 13
	cmpq	$0, 160(%rbp)
	je	.L249
	.loc 8 1832 20
	movq	160(%rbp), %rax
	movq	.refptr._ZN8Palmtree4Math4Core8Internal11number_zeroE(%rip), %rdx
	movq	%rdx, (%rax)
.L249:
	.loc 8 1833 22
	movl	$0, %ebx
	jmp	.L250
.L248:
.LBB102:
.LBB103:
	.loc 8 1839 13
	cmpq	$1, 152(%rbp)
	jne	.L251
	.loc 8 1844 17
	cmpq	$0, 160(%rbp)
	je	.L252
	.loc 8 1845 41
	movq	144(%rbp), %rcx
	call	_ZN8Palmtree4Math4Core8Internal15DuplicateNumberEPNS2_19__tag_NUMBER_HEADERE
	movq	%rax, %rdx
	.loc 8 1845 24
	movq	160(%rbp), %rax
	movq	%rdx, (%rax)
.L252:
	.loc 8 1846 26
	movl	$0, %ebx
	jmp	.L250
.L251:
.LBB104:
	.loc 8 1853 29
	movq	144(%rbp), %rax
	movq	32(%rax), %rax
	movq	%rax, 96(%rbp)
.LBB105:
.LBB106:
	.loc 8 1964 33
	movq	144(%rbp), %rax
	movq	32(%rax), %rax
	movq	%rax, 88(%rbp)
	.loc 8 1965 78
	movq	152(%rbp), %rax
	movq	%rax, %rcx
	call	_LZCNT_ALT_UNIT
	cltq
	.loc 8 1965 93
	movl	$64, %edx
	subq	%rax, %rdx
	movq	%rdx, %rax
	movq	%rax, 80(%rbp)
.LBB107:
	.loc 8 1966 21
	movq	88(%rbp), %rax
	cmpq	80(%rbp), %rax
	jnb	.L253
	.loc 8 1971 25
	cmpq	$0, 160(%rbp)
	je	.L254
	.loc 8 1972 32
	movq	160(%rbp), %rax
	movq	.refptr._ZN8Palmtree4Math4Core8Internal11number_zeroE(%rip), %rdx
	movq	%rdx, (%rax)
.L254:
	.loc 8 1973 36
	movq	144(%rbp), %rax
	movq	64(%rax), %rax
	.loc 8 1973 44
	movq	(%rax), %rbx
	jmp	.L250
.L253:
.LBB108:
.LBB109:
	.loc 8 1977 25
	cmpq	$0, 160(%rbp)
	je	.L255
.LBB110:
	.loc 8 1979 48
	leaq	-80(%rbp), %rax
	movq	%rax, %rcx
	call	_ZN8Palmtree4Math4Core8Internal18ResourceHolderUINTC1Ev
.LEHE6:
	.loc 8 1980 67
	movq	88(%rbp), %rax
	subq	80(%rbp), %rax
	.loc 8 1980 41
	addq	$65, %rax
	movq	%rax, 104(%rbp)
	.loc 8 1981 53
	movq	104(%rbp), %rdx
	leaq	-80(%rbp), %rax
	movq	%rax, %rcx
.LEHB7:
	call	_ZN8Palmtree4Math4Core8Internal18ResourceHolderUINT14AllocateNumberEy
	movq	%rax, %rdx
	.loc 8 1981 32
	movq	160(%rbp), %rax
	movq	%rdx, (%rax)
	.loc 8 1982 41
	movq	$0, -32(%rbp)
	.loc 8 1983 88
	movq	160(%rbp), %rax
	movq	(%rax), %rax
	.loc 8 1983 40
	movq	64(%rax), %r9
	movq	144(%rbp), %rax
	movq	24(%rax), %rdx
	movq	144(%rbp), %rax
	movq	64(%rax), %rcx
	movq	152(%rbp), %r8
	leaq	-32(%rbp), %rax
	movq	%rax, 32(%rsp)
	call	_ZN8Palmtree4Math4Core8Internal11DivRem_X_1WEPyyyS3_S3_
	.loc 8 1984 45
	movq	160(%rbp), %rax
	movq	(%rax), %rdx
	leaq	-80(%rbp), %rax
	movq	%rax, %rcx
	call	_ZN8Palmtree4Math4Core8Internal18ResourceHolderUINT11CheckNumberEPNS2_19__tag_NUMBER_HEADERE
	.loc 8 1985 41
	movq	160(%rbp), %rax
	movq	(%rax), %rax
	movq	%rax, %rcx
	call	_ZN8Palmtree4Math4Core8Internal12CommitNumberEPNS2_19__tag_NUMBER_HEADERE
	.loc 8 1986 34
	movq	160(%rbp), %rax
	movq	(%rax), %rax
	.loc 8 1986 46
	movzbl	8(%rax), %eax
	andl	$1, %eax
	.loc 8 1986 29
	testb	%al, %al
	je	.L256
	.loc 8 1988 54
	movq	160(%rbp), %rax
	movq	(%rax), %rdx
	leaq	-80(%rbp), %rax
	movq	%rax, %rcx
	call	_ZN8Palmtree4Math4Core8Internal18ResourceHolderUINT16DeallocateNumberEPNS2_19__tag_NUMBER_HEADERE
	.loc 8 1989 36
	movq	160(%rbp), %rax
	movq	.refptr._ZN8Palmtree4Math4Core8Internal11number_zeroE(%rip), %rdx
	movq	%rdx, (%rax)
	jmp	.L257
.L256:
	.loc 8 1992 50
	movq	160(%rbp), %rax
	movq	(%rax), %rdx
	leaq	-80(%rbp), %rax
	movq	%rax, %rcx
	call	_ZN8Palmtree4Math4Core8Internal18ResourceHolderUINT12UnlinkNumberEPNS2_19__tag_NUMBER_HEADERE
.LEHE7:
.L257:
	.loc 8 1993 42
	movq	-32(%rbp), %rbx
	.loc 8 1979 48
	leaq	-80(%rbp), %rax
	movq	%rax, %rcx
	call	_ZN8Palmtree4Math4Core8Internal18ResourceHolderUINTD1Ev
	jmp	.L250
.L255:
.LBE110:
.LBB111:
	.loc 8 1997 57
	movq	144(%rbp), %rax
	movq	24(%rax), %rdx
	movq	144(%rbp), %rax
	movq	64(%rax), %rax
	movq	152(%rbp), %rcx
	movq	%rcx, %r8
	movq	%rax, %rcx
	call	_ZN8Palmtree4Math4Core8Internal8Rem_X_1WEPyyy
	.loc 8 1997 102
	movq	%rax, -40(%rbp)
	.loc 8 1998 42
	movq	-40(%rbp), %rbx
.L250:
	movq	%rbx, %rax
	jmp	.L260
.L259:
	movq	%rax, %rbx
.LBE111:
.LBB112:
	.loc 8 1979 48
	leaq	-80(%rbp), %rax
	movq	%rax, %rcx
	call	_ZN8Palmtree4Math4Core8Internal18ResourceHolderUINTD1Ev
	movq	%rbx, %rax
	movq	%rax, %rcx
.LEHB8:
	call	_Unwind_Resume
.LEHE8:
.L260:
.LBE112:
.LBE109:
.LBE108:
.LBE107:
.LBE106:
.LBE105:
.LBE104:
.LBE103:
.LBE102:
.LBE101:
	.loc 8 2005 5
	addq	$248, %rsp
	popq	%rbx
	.cfi_restore 3
	popq	%rbp
	.cfi_restore 6
	.cfi_def_cfa 7, -232
	ret
	.cfi_endproc
.LFE5094:
	.seh_handler	__gxx_personality_seh0, @unwind, @except
	.seh_handlerdata
.LLSDA5094:
	.byte	0xff
	.byte	0xff
	.byte	0x1
	.uleb128 .LLSDACSE5094-.LLSDACSB5094
.LLSDACSB5094:
	.uleb128 .LEHB6-.LFB5094
	.uleb128 .LEHE6-.LEHB6
	.uleb128 0
	.uleb128 0
	.uleb128 .LEHB7-.LFB5094
	.uleb128 .LEHE7-.LEHB7
	.uleb128 .L259-.LFB5094
	.uleb128 0
	.uleb128 .LEHB8-.LFB5094
	.uleb128 .LEHE8-.LEHB8
	.uleb128 0
	.uleb128 0
.LLSDACSE5094:
	.text
	.seh_endproc
	.globl	_ZN8Palmtree4Math4Core8Internal14PMC_DivRem_X_LEPNS2_21__tag_PMC_HANDLE_UINTEyPS4_
	.def	_ZN8Palmtree4Math4Core8Internal14PMC_DivRem_X_LEPNS2_21__tag_PMC_HANDLE_UINTEyPS4_;	.scl	2;	.type	32;	.endef
	.seh_proc	_ZN8Palmtree4Math4Core8Internal14PMC_DivRem_X_LEPNS2_21__tag_PMC_HANDLE_UINTEyPS4_
_ZN8Palmtree4Math4Core8Internal14PMC_DivRem_X_LEPNS2_21__tag_PMC_HANDLE_UINTEyPS4_:
.LFB5095:
	.loc 8 2008 5
	.cfi_startproc
	pushq	%rbp
	.seh_pushreg	%rbp
	.cfi_def_cfa_offset 16
	.cfi_offset 6, -16
	pushq	%rbx
	.seh_pushreg	%rbx
	.cfi_def_cfa_offset 24
	.cfi_offset 3, -24
	subq	$120, %rsp
	.seh_stackalloc	120
	.cfi_def_cfa_offset 144
	leaq	128(%rsp), %rbp
	.seh_setframe	%rbp, 128
	.cfi_def_cfa 6, 16
	.seh_endprologue
	movq	%rcx, 16(%rbp)
	movq	%rdx, 24(%rbp)
	movq	%r8, 32(%rbp)
	.loc 8 2014 9
	cmpq	$0, 16(%rbp)
	jne	.L262
	.loc 8 2015 96
	movl	$32, %ecx
	call	__cxa_allocate_exception
	movq	%rax, %rbx
	leaq	.LC3(%rip), %r8
	leaq	.LC1(%rip), %rdx
	movq	%rbx, %rcx
	call	_ZN8Palmtree4Math4Core8Internal21ArgumentNullExceptionC1EPKwS5_
	leaq	_ZN8Palmtree4Math4Core8Internal21ArgumentNullExceptionD1Ev(%rip), %rax
	movq	%rax, %r8
	leaq	_ZTIN8Palmtree4Math4Core8Internal21ArgumentNullExceptionE(%rip), %rdx
	movq	%rbx, %rcx
.LEHB9:
	call	__cxa_throw
.L262:
	.loc 8 2016 24
	movq	16(%rbp), %rax
	movq	%rax, -24(%rbp)
	.loc 8 2017 20
	movq	-24(%rbp), %rax
	movq	%rax, %rcx
	call	_ZN8Palmtree4Math4Core8Internal11CheckNumberEPNS2_19__tag_NUMBER_HEADERE
	.loc 8 2018 28
	leaq	-64(%rbp), %rax
	movq	%rax, %rcx
	call	_ZN8Palmtree4Math4Core8Internal18ResourceHolderUINTC1Ev
.LEHE9:
.LBB113:
	.loc 8 2020 9
	cmpq	$0, 32(%rbp)
	je	.L263
.LBB114:
	.loc 8 2022 45
	leaq	-72(%rbp), %rcx
	movq	24(%rbp), %rdx
	movq	-24(%rbp), %rax
	movq	%rcx, %r8
	movq	%rax, %rcx
.LEHB10:
	call	_ZN8Palmtree4Math4Core8InternalL18PMC_DivRem_X_L_ImpEPNS2_19__tag_NUMBER_HEADEREyPS4_
	.loc 8 2022 56
	movq	%rax, -80(%rbp)
	.loc 8 2023 28
	movq	-72(%rbp), %rdx
	leaq	-64(%rbp), %rax
	movq	%rax, %rcx
	call	_ZN8Palmtree4Math4Core8Internal18ResourceHolderUINT10HookNumberEPNS2_19__tag_NUMBER_HEADERE
	.loc 8 2025 24
	movq	-72(%rbp), %rax
	movq	%rax, %rcx
	call	_ZN8Palmtree4Math4Core8Internal11CheckNumberEPNS2_19__tag_NUMBER_HEADERE
	.loc 8 2027 16
	movq	-72(%rbp), %rdx
	movq	32(%rbp), %rax
	movq	%rdx, (%rax)
	.loc 8 2028 30
	movq	-72(%rbp), %rdx
	leaq	-64(%rbp), %rax
	movq	%rax, %rcx
	call	_ZN8Palmtree4Math4Core8Internal18ResourceHolderUINT12UnlinkNumberEPNS2_19__tag_NUMBER_HEADERE
	.loc 8 2029 22
	movq	-80(%rbp), %rbx
	jmp	.L264
.L263:
.LBE114:
.LBB115:
	.loc 8 2033 45
	movq	24(%rbp), %rdx
	movq	-24(%rbp), %rax
	movl	$0, %r8d
	movq	%rax, %rcx
	call	_ZN8Palmtree4Math4Core8InternalL18PMC_DivRem_X_L_ImpEPNS2_19__tag_NUMBER_HEADEREyPS4_
.LEHE10:
	.loc 8 2033 60
	movq	%rax, -88(%rbp)
	.loc 8 2034 22
	movq	-88(%rbp), %rbx
.L264:
.LBE115:
.LBE113:
	.loc 8 2018 28
	leaq	-64(%rbp), %rax
	movq	%rax, %rcx
	call	_ZN8Palmtree4Math4Core8Internal18ResourceHolderUINTD1Ev
	movq	%rbx, %rax
	jmp	.L268
.L267:
	movq	%rax, %rbx
	leaq	-64(%rbp), %rax
	movq	%rax, %rcx
	call	_ZN8Palmtree4Math4Core8Internal18ResourceHolderUINTD1Ev
	movq	%rbx, %rax
	movq	%rax, %rcx
.LEHB11:
	call	_Unwind_Resume
.LEHE11:
.L268:
	.loc 8 2036 5
	addq	$120, %rsp
	popq	%rbx
	.cfi_restore 3
	popq	%rbp
	.cfi_restore 6
	.cfi_def_cfa 7, -104
	ret
	.cfi_endproc
.LFE5095:
	.seh_handler	__gxx_personality_seh0, @unwind, @except
	.seh_handlerdata
.LLSDA5095:
	.byte	0xff
	.byte	0xff
	.byte	0x1
	.uleb128 .LLSDACSE5095-.LLSDACSB5095
.LLSDACSB5095:
	.uleb128 .LEHB9-.LFB5095
	.uleb128 .LEHE9-.LEHB9
	.uleb128 0
	.uleb128 0
	.uleb128 .LEHB10-.LFB5095
	.uleb128 .LEHE10-.LEHB10
	.uleb128 .L267-.LFB5095
	.uleb128 0
	.uleb128 .LEHB11-.LFB5095
	.uleb128 .LEHE11-.LEHB11
	.uleb128 0
	.uleb128 0
.LLSDACSE5095:
	.text
	.seh_endproc
	.def	_ZN8Palmtree4Math4Core8InternalL18PMC_DivRem_X_X_ImpEPNS2_19__tag_NUMBER_HEADERES4_PS4_;	.scl	3;	.type	32;	.endef
	.seh_proc	_ZN8Palmtree4Math4Core8InternalL18PMC_DivRem_X_X_ImpEPNS2_19__tag_NUMBER_HEADERES4_PS4_
_ZN8Palmtree4Math4Core8InternalL18PMC_DivRem_X_X_ImpEPNS2_19__tag_NUMBER_HEADERES4_PS4_:
.LFB5096:
	.loc 8 2039 5
	.cfi_startproc
	pushq	%rbp
	.seh_pushreg	%rbp
	.cfi_def_cfa_offset 16
	.cfi_offset 6, -16
	pushq	%rbx
	.seh_pushreg	%rbx
	.cfi_def_cfa_offset 24
	.cfi_offset 3, -24
	subq	$216, %rsp
	.seh_stackalloc	216
	.cfi_def_cfa_offset 240
	leaq	128(%rsp), %rbp
	.seh_setframe	%rbp, 128
	.cfi_def_cfa 6, 112
	.seh_endprologue
	movq	%rcx, 112(%rbp)
	movq	%rdx, 120(%rbp)
	movq	%r8, 128(%rbp)
.LBB116:
	.loc 8 2040 23
	movq	112(%rbp), %rax
	movzbl	8(%rax), %eax
	andl	$1, %eax
	.loc 8 2040 9
	testb	%al, %al
	je	.L270
	.loc 8 2045 13
	cmpq	$0, 128(%rbp)
	je	.L271
	.loc 8 2046 20
	movq	128(%rbp), %rax
	movq	.refptr._ZN8Palmtree4Math4Core8Internal11number_zeroE(%rip), %rdx
	movq	%rdx, (%rax)
.L271:
	.loc 8 2047 33
	movq	.refptr._ZN8Palmtree4Math4Core8Internal11number_zeroE(%rip), %rbx
	jmp	.L272
.L270:
.LBB117:
.LBB118:
	.loc 8 2053 26
	movq	120(%rbp), %rax
	movzbl	8(%rax), %eax
	andl	$2, %eax
	.loc 8 2053 13
	testb	%al, %al
	je	.L273
	.loc 8 2058 17
	cmpq	$0, 128(%rbp)
	je	.L274
	.loc 8 2059 41
	movq	112(%rbp), %rcx
.LEHB12:
	call	_ZN8Palmtree4Math4Core8Internal15DuplicateNumberEPNS2_19__tag_NUMBER_HEADERE
	movq	%rax, %rdx
	.loc 8 2059 24
	movq	128(%rbp), %rax
	movq	%rdx, (%rax)
.L274:
	.loc 8 2060 37
	movq	.refptr._ZN8Palmtree4Math4Core8Internal11number_zeroE(%rip), %rbx
	jmp	.L272
.L273:
.LBB119:
	.loc 8 2067 29
	movq	112(%rbp), %rax
	movq	32(%rax), %rax
	movq	%rax, 72(%rbp)
	.loc 8 2068 29
	movq	120(%rbp), %rax
	movq	32(%rax), %rax
	movq	%rax, 64(%rbp)
.LBB120:
	.loc 8 2069 17
	movq	72(%rbp), %rax
	cmpq	64(%rbp), %rax
	jnb	.L275
	.loc 8 2074 21
	cmpq	$0, 128(%rbp)
	je	.L276
	.loc 8 2075 28
	movq	128(%rbp), %rax
	movq	.refptr._ZN8Palmtree4Math4Core8Internal11number_zeroE(%rip), %rdx
	movq	%rdx, (%rax)
.L276:
	.loc 8 2076 44
	movq	112(%rbp), %rcx
	call	_ZN8Palmtree4Math4Core8Internal15DuplicateNumberEPNS2_19__tag_NUMBER_HEADERE
	movq	%rax, %rbx
	.loc 8 2076 47
	jmp	.L272
.L275:
.LBB121:
.LBB122:
	.loc 8 2078 22
	cmpq	$64, 64(%rbp)
	ja	.L277
.LBB123:
.LBB124:
	.loc 8 2082 21
	cmpq	$0, 128(%rbp)
	je	.L278
.LBB125:
	.loc 8 2084 44
	leaq	-64(%rbp), %rax
	movq	%rax, %rcx
	call	_ZN8Palmtree4Math4Core8Internal18ResourceHolderUINTC1Ev
.LEHE12:
	.loc 8 2085 63
	movq	72(%rbp), %rax
	subq	64(%rbp), %rax
	.loc 8 2085 37
	addq	$65, %rax
	movq	%rax, 56(%rbp)
	.loc 8 2086 49
	movq	56(%rbp), %rdx
	leaq	-64(%rbp), %rax
	movq	%rax, %rcx
.LEHB13:
	call	_ZN8Palmtree4Math4Core8Internal18ResourceHolderUINT14AllocateNumberEy
	movq	%rax, %rdx
	.loc 8 2086 28
	movq	128(%rbp), %rax
	movq	%rdx, (%rax)
	.loc 8 2087 37
	movq	$64, 48(%rbp)
	.loc 8 2088 63
	movq	48(%rbp), %rdx
	leaq	-64(%rbp), %rax
	movq	%rax, %rcx
	call	_ZN8Palmtree4Math4Core8Internal18ResourceHolderUINT14AllocateNumberEy
	.loc 8 2088 75 discriminator 1
	movq	%rax, -8(%rbp)
	.loc 8 2089 36 discriminator 1
	movq	-8(%rbp), %rax
	movq	64(%rax), %rcx
	.loc 8 2089 94 discriminator 1
	movq	128(%rbp), %rax
	movq	(%rax), %rax
	.loc 8 2089 36 discriminator 1
	movq	64(%rax), %r9
	.loc 8 2089 83 discriminator 1
	movq	120(%rbp), %rax
	movq	64(%rax), %rax
	.loc 8 2089 36 discriminator 1
	movq	(%rax), %r8
	movq	112(%rbp), %rax
	movq	24(%rax), %rdx
	movq	112(%rbp), %rax
	movq	64(%rax), %rax
	movq	%rcx, 32(%rsp)
	movq	%rax, %rcx
	call	_ZN8Palmtree4Math4Core8Internal11DivRem_X_1WEPyyyS3_S3_
	.loc 8 2090 41 discriminator 1
	movq	128(%rbp), %rax
	movq	(%rax), %rdx
	leaq	-64(%rbp), %rax
	movq	%rax, %rcx
	call	_ZN8Palmtree4Math4Core8Internal18ResourceHolderUINT11CheckNumberEPNS2_19__tag_NUMBER_HEADERE
	.loc 8 2091 41
	movq	-8(%rbp), %rdx
	leaq	-64(%rbp), %rax
	movq	%rax, %rcx
	call	_ZN8Palmtree4Math4Core8Internal18ResourceHolderUINT11CheckNumberEPNS2_19__tag_NUMBER_HEADERE
	.loc 8 2092 37
	movq	128(%rbp), %rax
	movq	(%rax), %rax
	movq	%rax, %rcx
	call	_ZN8Palmtree4Math4Core8Internal12CommitNumberEPNS2_19__tag_NUMBER_HEADERE
	.loc 8 2093 37
	movq	-8(%rbp), %rax
	movq	%rax, %rcx
	call	_ZN8Palmtree4Math4Core8Internal12CommitNumberEPNS2_19__tag_NUMBER_HEADERE
	.loc 8 2094 30
	movq	128(%rbp), %rax
	movq	(%rax), %rax
	.loc 8 2094 42
	movzbl	8(%rax), %eax
	andl	$1, %eax
	.loc 8 2094 25
	testb	%al, %al
	je	.L279
	.loc 8 2096 50
	movq	128(%rbp), %rax
	movq	(%rax), %rdx
	leaq	-64(%rbp), %rax
	movq	%rax, %rcx
	call	_ZN8Palmtree4Math4Core8Internal18ResourceHolderUINT16DeallocateNumberEPNS2_19__tag_NUMBER_HEADERE
	.loc 8 2097 32
	movq	128(%rbp), %rax
	movq	.refptr._ZN8Palmtree4Math4Core8Internal11number_zeroE(%rip), %rdx
	movq	%rdx, (%rax)
	jmp	.L280
.L279:
	.loc 8 2100 46
	movq	128(%rbp), %rax
	movq	(%rax), %rdx
	leaq	-64(%rbp), %rax
	movq	%rax, %rcx
	call	_ZN8Palmtree4Math4Core8Internal18ResourceHolderUINT12UnlinkNumberEPNS2_19__tag_NUMBER_HEADERE
.L280:
	.loc 8 2101 39
	movq	-8(%rbp), %rax
	movzbl	8(%rax), %eax
	andl	$1, %eax
	.loc 8 2101 25
	testb	%al, %al
	je	.L281
	.loc 8 2103 50
	movq	-8(%rbp), %rdx
	leaq	-64(%rbp), %rax
	movq	%rax, %rcx
	call	_ZN8Palmtree4Math4Core8Internal18ResourceHolderUINT16DeallocateNumberEPNS2_19__tag_NUMBER_HEADERE
	.loc 8 2104 31
	movq	.refptr._ZN8Palmtree4Math4Core8Internal11number_zeroE(%rip), %rax
	movq	%rax, -8(%rbp)
	jmp	.L282
.L281:
	.loc 8 2107 46
	movq	-8(%rbp), %rdx
	leaq	-64(%rbp), %rax
	movq	%rax, %rcx
	call	_ZN8Palmtree4Math4Core8Internal18ResourceHolderUINT12UnlinkNumberEPNS2_19__tag_NUMBER_HEADERE
.LEHE13:
.L282:
	.loc 8 2108 34
	movq	-8(%rbp), %rbx
	.loc 8 2084 44
	leaq	-64(%rbp), %rax
	movq	%rax, %rcx
	call	_ZN8Palmtree4Math4Core8Internal18ResourceHolderUINTD1Ev
	jmp	.L272
.L278:
.LBE125:
.LBB126:
	.loc 8 2112 44
	leaq	-64(%rbp), %rax
	movq	%rax, %rcx
.LEHB14:
	call	_ZN8Palmtree4Math4Core8Internal18ResourceHolderUINTC1Ev
.LEHE14:
	.loc 8 2113 37
	movq	$64, 40(%rbp)
	.loc 8 2114 63
	movq	40(%rbp), %rdx
	leaq	-64(%rbp), %rax
	movq	%rax, %rcx
.LEHB15:
	call	_ZN8Palmtree4Math4Core8Internal18ResourceHolderUINT14AllocateNumberEy
	.loc 8 2114 75
	movq	%rax, -16(%rbp)
	.loc 8 2115 94
	movq	120(%rbp), %rax
	movq	64(%rax), %rax
	.loc 8 2115 47
	movq	(%rax), %r8
	movq	112(%rbp), %rax
	movq	24(%rax), %rdx
	movq	112(%rbp), %rax
	movq	64(%rax), %rax
	.loc 8 2115 35
	movq	-16(%rbp), %rcx
	.loc 8 2115 28
	movq	64(%rcx), %rbx
	.loc 8 2115 47
	movq	%rax, %rcx
	call	_ZN8Palmtree4Math4Core8Internal8Rem_X_1WEPyyy
	.loc 8 2115 37
	movq	%rax, (%rbx)
	.loc 8 2116 41
	movq	-16(%rbp), %rdx
	leaq	-64(%rbp), %rax
	movq	%rax, %rcx
	call	_ZN8Palmtree4Math4Core8Internal18ResourceHolderUINT11CheckNumberEPNS2_19__tag_NUMBER_HEADERE
	.loc 8 2117 37
	movq	-16(%rbp), %rax
	movq	%rax, %rcx
	call	_ZN8Palmtree4Math4Core8Internal12CommitNumberEPNS2_19__tag_NUMBER_HEADERE
	.loc 8 2118 39
	movq	-16(%rbp), %rax
	movzbl	8(%rax), %eax
	andl	$1, %eax
	.loc 8 2118 25
	testb	%al, %al
	je	.L283
	.loc 8 2120 50
	movq	-16(%rbp), %rdx
	leaq	-64(%rbp), %rax
	movq	%rax, %rcx
	call	_ZN8Palmtree4Math4Core8Internal18ResourceHolderUINT16DeallocateNumberEPNS2_19__tag_NUMBER_HEADERE
	.loc 8 2121 31
	movq	.refptr._ZN8Palmtree4Math4Core8Internal11number_zeroE(%rip), %rax
	movq	%rax, -16(%rbp)
	jmp	.L284
.L283:
	.loc 8 2124 46
	movq	-16(%rbp), %rdx
	leaq	-64(%rbp), %rax
	movq	%rax, %rcx
	call	_ZN8Palmtree4Math4Core8Internal18ResourceHolderUINT12UnlinkNumberEPNS2_19__tag_NUMBER_HEADERE
.LEHE15:
.L284:
	.loc 8 2125 34
	movq	-16(%rbp), %rbx
	.loc 8 2112 44
	leaq	-64(%rbp), %rax
	movq	%rax, %rcx
	call	_ZN8Palmtree4Math4Core8Internal18ResourceHolderUINTD1Ev
	jmp	.L272
.L277:
.LBE126:
.LBE124:
.LBE123:
.LBB130:
.LBB131:
	.loc 8 2131 21
	cmpq	$0, 128(%rbp)
	je	.L285
.LBB132:
	.loc 8 2133 44
	leaq	-64(%rbp), %rax
	movq	%rax, %rcx
.LEHB16:
	call	_ZN8Palmtree4Math4Core8Internal18ResourceHolderUINTC1Ev
.LEHE16:
	.loc 8 2134 63
	movq	72(%rbp), %rax
	subq	64(%rbp), %rax
	.loc 8 2134 37
	addq	$65, %rax
	movq	%rax, 32(%rbp)
	.loc 8 2135 37
	movq	72(%rbp), %rax
	addq	$64, %rax
	movq	%rax, 24(%rbp)
	.loc 8 2136 49
	movq	32(%rbp), %rdx
	leaq	-64(%rbp), %rax
	movq	%rax, %rcx
.LEHB17:
	call	_ZN8Palmtree4Math4Core8Internal18ResourceHolderUINT14AllocateNumberEy
	movq	%rax, %rdx
	.loc 8 2136 28
	movq	128(%rbp), %rax
	movq	%rdx, (%rax)
	.loc 8 2137 63
	movq	24(%rbp), %rdx
	leaq	-64(%rbp), %rax
	movq	%rax, %rcx
	call	_ZN8Palmtree4Math4Core8Internal18ResourceHolderUINT14AllocateNumberEy
	.loc 8 2137 75 discriminator 1
	movq	%rax, -24(%rbp)
	.loc 8 2138 74 discriminator 1
	movq	120(%rbp), %rax
	movq	24(%rax), %rax
	.loc 8 2138 70 discriminator 1
	salq	$6, %rax
	movq	%rax, %rdx
	leaq	-64(%rbp), %rax
	movq	%rax, %rcx
	call	_ZN8Palmtree4Math4Core8Internal18ResourceHolderUINT13AllocateBlockEy
	movq	%rax, 16(%rbp)
	.loc 8 2139 41 discriminator 1
	movq	_ZN8Palmtree4Math4Core8InternalL13fp_DivRem_X_XE(%rip), %rax
	movq	-24(%rbp), %rdx
	movq	64(%rdx), %r9
	.loc 8 2139 115 discriminator 1
	movq	128(%rbp), %rdx
	movq	(%rdx), %rdx
	.loc 8 2139 41 discriminator 1
	movq	64(%rdx), %r8
	movq	120(%rbp), %rdx
	movq	24(%rdx), %r11
	movq	120(%rbp), %rdx
	movq	64(%rdx), %r10
	movq	112(%rbp), %rdx
	movq	24(%rdx), %rdx
	movq	112(%rbp), %rcx
	movq	64(%rcx), %rcx
	movq	%r9, 48(%rsp)
	movq	%r8, 40(%rsp)
	movq	16(%rbp), %r8
	movq	%r8, 32(%rsp)
	movq	%r11, %r9
	movq	%r10, %r8
	call	*%rax
.LVL1:
	.loc 8 2140 40
	movq	16(%rbp), %rdx
	leaq	-64(%rbp), %rax
	movq	%rax, %rcx
	call	_ZN8Palmtree4Math4Core8Internal18ResourceHolderUINT10CheckBlockEPy
	.loc 8 2141 41
	movq	128(%rbp), %rax
	movq	(%rax), %rdx
	leaq	-64(%rbp), %rax
	movq	%rax, %rcx
	call	_ZN8Palmtree4Math4Core8Internal18ResourceHolderUINT11CheckNumberEPNS2_19__tag_NUMBER_HEADERE
	.loc 8 2142 41
	movq	-24(%rbp), %rdx
	leaq	-64(%rbp), %rax
	movq	%rax, %rcx
	call	_ZN8Palmtree4Math4Core8Internal18ResourceHolderUINT11CheckNumberEPNS2_19__tag_NUMBER_HEADERE
	.loc 8 2143 45
	movq	16(%rbp), %rdx
	leaq	-64(%rbp), %rax
	movq	%rax, %rcx
	call	_ZN8Palmtree4Math4Core8Internal18ResourceHolderUINT15DeallocateBlockEPy
	.loc 8 2144 37
	movq	128(%rbp), %rax
	movq	(%rax), %rax
	movq	%rax, %rcx
	call	_ZN8Palmtree4Math4Core8Internal12CommitNumberEPNS2_19__tag_NUMBER_HEADERE
	.loc 8 2145 37
	movq	-24(%rbp), %rax
	movq	%rax, %rcx
	call	_ZN8Palmtree4Math4Core8Internal12CommitNumberEPNS2_19__tag_NUMBER_HEADERE
	.loc 8 2146 30
	movq	128(%rbp), %rax
	movq	(%rax), %rax
	.loc 8 2146 42
	movzbl	8(%rax), %eax
	andl	$1, %eax
	.loc 8 2146 25
	testb	%al, %al
	je	.L286
	.loc 8 2148 50
	movq	128(%rbp), %rax
	movq	(%rax), %rdx
	leaq	-64(%rbp), %rax
	movq	%rax, %rcx
	call	_ZN8Palmtree4Math4Core8Internal18ResourceHolderUINT16DeallocateNumberEPNS2_19__tag_NUMBER_HEADERE
	.loc 8 2149 32
	movq	128(%rbp), %rax
	movq	.refptr._ZN8Palmtree4Math4Core8Internal11number_zeroE(%rip), %rdx
	movq	%rdx, (%rax)
	jmp	.L287
.L286:
	.loc 8 2152 46
	movq	128(%rbp), %rax
	movq	(%rax), %rdx
	leaq	-64(%rbp), %rax
	movq	%rax, %rcx
	call	_ZN8Palmtree4Math4Core8Internal18ResourceHolderUINT12UnlinkNumberEPNS2_19__tag_NUMBER_HEADERE
.L287:
	.loc 8 2153 39
	movq	-24(%rbp), %rax
	movzbl	8(%rax), %eax
	andl	$1, %eax
	.loc 8 2153 25
	testb	%al, %al
	je	.L288
	.loc 8 2155 50
	movq	-24(%rbp), %rdx
	leaq	-64(%rbp), %rax
	movq	%rax, %rcx
	call	_ZN8Palmtree4Math4Core8Internal18ResourceHolderUINT16DeallocateNumberEPNS2_19__tag_NUMBER_HEADERE
	.loc 8 2156 31
	movq	.refptr._ZN8Palmtree4Math4Core8Internal11number_zeroE(%rip), %rax
	movq	%rax, -24(%rbp)
	jmp	.L289
.L288:
	.loc 8 2159 46
	movq	-24(%rbp), %rdx
	leaq	-64(%rbp), %rax
	movq	%rax, %rcx
	call	_ZN8Palmtree4Math4Core8Internal18ResourceHolderUINT12UnlinkNumberEPNS2_19__tag_NUMBER_HEADERE
.LEHE17:
.L289:
	.loc 8 2160 34
	movq	-24(%rbp), %rbx
	.loc 8 2133 44
	leaq	-64(%rbp), %rax
	movq	%rax, %rcx
	call	_ZN8Palmtree4Math4Core8Internal18ResourceHolderUINTD1Ev
	jmp	.L272
.L285:
.LBE132:
.LBB133:
	.loc 8 2164 44
	leaq	-64(%rbp), %rax
	movq	%rax, %rcx
.LEHB18:
	call	_ZN8Palmtree4Math4Core8Internal18ResourceHolderUINTC1Ev
.LEHE18:
	.loc 8 2165 37
	movq	72(%rbp), %rax
	addq	$64, %rax
	movq	%rax, 8(%rbp)
	.loc 8 2166 63
	movq	8(%rbp), %rdx
	leaq	-64(%rbp), %rax
	movq	%rax, %rcx
.LEHB19:
	call	_ZN8Palmtree4Math4Core8Internal18ResourceHolderUINT14AllocateNumberEy
	.loc 8 2166 75
	movq	%rax, -32(%rbp)
	.loc 8 2167 73
	movq	120(%rbp), %rax
	movq	24(%rax), %rax
	.loc 8 2167 69
	salq	$6, %rax
	movq	%rax, %rdx
	leaq	-64(%rbp), %rax
	movq	%rax, %rcx
	call	_ZN8Palmtree4Math4Core8Internal18ResourceHolderUINT13AllocateBlockEy
	.loc 8 2167 69 is_stmt 0 discriminator 1
	movq	%rax, 0(%rbp)
	.loc 8 2168 41 is_stmt 1 discriminator 1
	movq	_ZN8Palmtree4Math4Core8InternalL13fp_DivRem_X_XE(%rip), %rax
	movq	-32(%rbp), %rdx
	movq	64(%rdx), %r8
	movq	120(%rbp), %rdx
	movq	24(%rdx), %r9
	movq	120(%rbp), %rdx
	movq	64(%rdx), %r10
	movq	112(%rbp), %rdx
	movq	24(%rdx), %rdx
	movq	112(%rbp), %rcx
	movq	64(%rcx), %rcx
	movq	%r8, 48(%rsp)
	movq	$0, 40(%rsp)
	movq	0(%rbp), %r8
	movq	%r8, 32(%rsp)
	movq	%r10, %r8
	call	*%rax
.LVL2:
	.loc 8 2169 40
	movq	0(%rbp), %rdx
	leaq	-64(%rbp), %rax
	movq	%rax, %rcx
	call	_ZN8Palmtree4Math4Core8Internal18ResourceHolderUINT10CheckBlockEPy
	.loc 8 2170 41
	movq	-32(%rbp), %rdx
	leaq	-64(%rbp), %rax
	movq	%rax, %rcx
	call	_ZN8Palmtree4Math4Core8Internal18ResourceHolderUINT11CheckNumberEPNS2_19__tag_NUMBER_HEADERE
	.loc 8 2171 45
	movq	0(%rbp), %rdx
	leaq	-64(%rbp), %rax
	movq	%rax, %rcx
	call	_ZN8Palmtree4Math4Core8Internal18ResourceHolderUINT15DeallocateBlockEPy
	.loc 8 2172 37
	movq	-32(%rbp), %rax
	movq	%rax, %rcx
	call	_ZN8Palmtree4Math4Core8Internal12CommitNumberEPNS2_19__tag_NUMBER_HEADERE
	.loc 8 2173 39
	movq	-32(%rbp), %rax
	movzbl	8(%rax), %eax
	andl	$1, %eax
	.loc 8 2173 25
	testb	%al, %al
	je	.L290
	.loc 8 2175 50
	movq	-32(%rbp), %rdx
	leaq	-64(%rbp), %rax
	movq	%rax, %rcx
	call	_ZN8Palmtree4Math4Core8Internal18ResourceHolderUINT16DeallocateNumberEPNS2_19__tag_NUMBER_HEADERE
	.loc 8 2176 31
	movq	.refptr._ZN8Palmtree4Math4Core8Internal11number_zeroE(%rip), %rax
	movq	%rax, -32(%rbp)
	jmp	.L291
.L290:
	.loc 8 2179 46
	movq	-32(%rbp), %rdx
	leaq	-64(%rbp), %rax
	movq	%rax, %rcx
	call	_ZN8Palmtree4Math4Core8Internal18ResourceHolderUINT12UnlinkNumberEPNS2_19__tag_NUMBER_HEADERE
.LEHE19:
.L291:
	.loc 8 2180 34
	movq	-32(%rbp), %rbx
	.loc 8 2164 44
	leaq	-64(%rbp), %rax
	movq	%rax, %rcx
	call	_ZN8Palmtree4Math4Core8Internal18ResourceHolderUINTD1Ev
.L272:
	movq	%rbx, %rax
	jmp	.L300
.L296:
	movq	%rax, %rbx
.LBE133:
.LBE131:
.LBE130:
.LBB137:
.LBB129:
.LBB127:
	.loc 8 2084 44
	leaq	-64(%rbp), %rax
	movq	%rax, %rcx
	call	_ZN8Palmtree4Math4Core8Internal18ResourceHolderUINTD1Ev
	movq	%rbx, %rax
	movq	%rax, %rcx
.LEHB20:
	call	_Unwind_Resume
.L297:
	movq	%rax, %rbx
.LBE127:
.LBB128:
	.loc 8 2112 44
	leaq	-64(%rbp), %rax
	movq	%rax, %rcx
	call	_ZN8Palmtree4Math4Core8Internal18ResourceHolderUINTD1Ev
	movq	%rbx, %rax
	movq	%rax, %rcx
	call	_Unwind_Resume
.L298:
	movq	%rax, %rbx
.LBE128:
.LBE129:
.LBE137:
.LBB138:
.LBB136:
.LBB134:
	.loc 8 2133 44
	leaq	-64(%rbp), %rax
	movq	%rax, %rcx
	call	_ZN8Palmtree4Math4Core8Internal18ResourceHolderUINTD1Ev
	movq	%rbx, %rax
	movq	%rax, %rcx
	call	_Unwind_Resume
.L299:
	movq	%rax, %rbx
.LBE134:
.LBB135:
	.loc 8 2164 44
	leaq	-64(%rbp), %rax
	movq	%rax, %rcx
	call	_ZN8Palmtree4Math4Core8Internal18ResourceHolderUINTD1Ev
	movq	%rbx, %rax
	movq	%rax, %rcx
	call	_Unwind_Resume
.LEHE20:
.L300:
.LBE135:
.LBE136:
.LBE138:
.LBE122:
.LBE121:
.LBE120:
.LBE119:
.LBE118:
.LBE117:
.LBE116:
	.loc 8 2185 5
	addq	$216, %rsp
	popq	%rbx
	.cfi_restore 3
	popq	%rbp
	.cfi_restore 6
	.cfi_def_cfa 7, -200
	ret
	.cfi_endproc
.LFE5096:
	.seh_handler	__gxx_personality_seh0, @unwind, @except
	.seh_handlerdata
.LLSDA5096:
	.byte	0xff
	.byte	0xff
	.byte	0x1
	.uleb128 .LLSDACSE5096-.LLSDACSB5096
.LLSDACSB5096:
	.uleb128 .LEHB12-.LFB5096
	.uleb128 .LEHE12-.LEHB12
	.uleb128 0
	.uleb128 0
	.uleb128 .LEHB13-.LFB5096
	.uleb128 .LEHE13-.LEHB13
	.uleb128 .L296-.LFB5096
	.uleb128 0
	.uleb128 .LEHB14-.LFB5096
	.uleb128 .LEHE14-.LEHB14
	.uleb128 0
	.uleb128 0
	.uleb128 .LEHB15-.LFB5096
	.uleb128 .LEHE15-.LEHB15
	.uleb128 .L297-.LFB5096
	.uleb128 0
	.uleb128 .LEHB16-.LFB5096
	.uleb128 .LEHE16-.LEHB16
	.uleb128 0
	.uleb128 0
	.uleb128 .LEHB17-.LFB5096
	.uleb128 .LEHE17-.LEHB17
	.uleb128 .L298-.LFB5096
	.uleb128 0
	.uleb128 .LEHB18-.LFB5096
	.uleb128 .LEHE18-.LEHB18
	.uleb128 0
	.uleb128 0
	.uleb128 .LEHB19-.LFB5096
	.uleb128 .LEHE19-.LEHB19
	.uleb128 .L299-.LFB5096
	.uleb128 0
	.uleb128 .LEHB20-.LFB5096
	.uleb128 .LEHE20-.LEHB20
	.uleb128 0
	.uleb128 0
.LLSDACSE5096:
	.text
	.seh_endproc
	.globl	_ZN8Palmtree4Math4Core8Internal14PMC_DivRem_X_XEPNS2_21__tag_PMC_HANDLE_UINTES4_PS4_
	.def	_ZN8Palmtree4Math4Core8Internal14PMC_DivRem_X_XEPNS2_21__tag_PMC_HANDLE_UINTES4_PS4_;	.scl	2;	.type	32;	.endef
	.seh_proc	_ZN8Palmtree4Math4Core8Internal14PMC_DivRem_X_XEPNS2_21__tag_PMC_HANDLE_UINTES4_PS4_
_ZN8Palmtree4Math4Core8Internal14PMC_DivRem_X_XEPNS2_21__tag_PMC_HANDLE_UINTES4_PS4_:
.LFB5097:
	.loc 8 2188 5
	.cfi_startproc
	pushq	%rbp
	.seh_pushreg	%rbp
	.cfi_def_cfa_offset 16
	.cfi_offset 6, -16
	pushq	%rbx
	.seh_pushreg	%rbx
	.cfi_def_cfa_offset 24
	.cfi_offset 3, -24
	subq	$120, %rsp
	.seh_stackalloc	120
	.cfi_def_cfa_offset 144
	leaq	128(%rsp), %rbp
	.seh_setframe	%rbp, 128
	.cfi_def_cfa 6, 16
	.seh_endprologue
	movq	%rcx, 16(%rbp)
	movq	%rdx, 24(%rbp)
	movq	%r8, 32(%rbp)
	.loc 8 2189 9
	cmpq	$0, 16(%rbp)
	jne	.L302
	.loc 8 2190 96
	movl	$32, %ecx
	call	__cxa_allocate_exception
	movq	%rax, %rbx
	leaq	.LC3(%rip), %r8
	leaq	.LC1(%rip), %rdx
	movq	%rbx, %rcx
	call	_ZN8Palmtree4Math4Core8Internal21ArgumentNullExceptionC1EPKwS5_
	leaq	_ZN8Palmtree4Math4Core8Internal21ArgumentNullExceptionD1Ev(%rip), %rax
	movq	%rax, %r8
	leaq	_ZTIN8Palmtree4Math4Core8Internal21ArgumentNullExceptionE(%rip), %rdx
	movq	%rbx, %rcx
.LEHB21:
	call	__cxa_throw
.L302:
	.loc 8 2191 9
	cmpq	$0, 24(%rbp)
	jne	.L303
	.loc 8 2192 96
	movl	$32, %ecx
	call	__cxa_allocate_exception
	movq	%rax, %rbx
	leaq	.LC0(%rip), %r8
	leaq	.LC1(%rip), %rdx
	movq	%rbx, %rcx
	call	_ZN8Palmtree4Math4Core8Internal21ArgumentNullExceptionC1EPKwS5_
	leaq	_ZN8Palmtree4Math4Core8Internal21ArgumentNullExceptionD1Ev(%rip), %rax
	movq	%rax, %r8
	leaq	_ZTIN8Palmtree4Math4Core8Internal21ArgumentNullExceptionE(%rip), %rdx
	movq	%rbx, %rcx
	call	__cxa_throw
.L303:
	.loc 8 2193 24
	movq	16(%rbp), %rax
	movq	%rax, -32(%rbp)
	.loc 8 2194 24
	movq	24(%rbp), %rax
	movq	%rax, -40(%rbp)
	.loc 8 2195 20
	movq	-32(%rbp), %rax
	movq	%rax, %rcx
	call	_ZN8Palmtree4Math4Core8Internal11CheckNumberEPNS2_19__tag_NUMBER_HEADERE
	.loc 8 2196 20
	movq	-40(%rbp), %rax
	movq	%rax, %rcx
	call	_ZN8Palmtree4Math4Core8Internal11CheckNumberEPNS2_19__tag_NUMBER_HEADERE
	.loc 8 2197 24
	movq	-40(%rbp), %rax
	movzbl	8(%rax), %eax
	andl	$1, %eax
	.loc 8 2197 9
	testb	%al, %al
	je	.L304
	.loc 8 2202 98
	movl	$32, %ecx
	call	__cxa_allocate_exception
	movq	%rax, %rbx
	leaq	.LC2(%rip), %rdx
	movq	%rbx, %rcx
	call	_ZN8Palmtree4Math4Core8Internal23DivisionByZeroExceptionC1EPKw
	leaq	_ZN8Palmtree4Math4Core8Internal23DivisionByZeroExceptionD1Ev(%rip), %rax
	movq	%rax, %r8
	leaq	_ZTIN8Palmtree4Math4Core8Internal23DivisionByZeroExceptionE(%rip), %rdx
	movq	%rbx, %rcx
	call	__cxa_throw
.L304:
	.loc 8 2204 28
	leaq	-80(%rbp), %rax
	movq	%rax, %rcx
	call	_ZN8Palmtree4Math4Core8Internal18ResourceHolderUINTC1Ev
.LEHE21:
	.loc 8 2208 9
	cmpq	$0, 32(%rbp)
	je	.L305
	.loc 8 2210 36
	leaq	-88(%rbp), %rcx
	movq	-40(%rbp), %rdx
	movq	-32(%rbp), %rax
	movq	%rcx, %r8
	movq	%rax, %rcx
.LEHB22:
	call	_ZN8Palmtree4Math4Core8InternalL18PMC_DivRem_X_X_ImpEPNS2_19__tag_NUMBER_HEADERES4_PS4_
	movq	%rax, -24(%rbp)
	.loc 8 2211 28
	movq	-88(%rbp), %rdx
	leaq	-80(%rbp), %rax
	movq	%rax, %rcx
	call	_ZN8Palmtree4Math4Core8Internal18ResourceHolderUINT10HookNumberEPNS2_19__tag_NUMBER_HEADERE
	.loc 8 2212 28
	movq	-24(%rbp), %rdx
	leaq	-80(%rbp), %rax
	movq	%rax, %rcx
	call	_ZN8Palmtree4Math4Core8Internal18ResourceHolderUINT10HookNumberEPNS2_19__tag_NUMBER_HEADERE
	.loc 8 2214 24
	movq	-88(%rbp), %rax
	movq	%rax, %rcx
	call	_ZN8Palmtree4Math4Core8Internal11CheckNumberEPNS2_19__tag_NUMBER_HEADERE
	.loc 8 2215 24
	movq	-24(%rbp), %rax
	movq	%rax, %rcx
	call	_ZN8Palmtree4Math4Core8Internal11CheckNumberEPNS2_19__tag_NUMBER_HEADERE
	.loc 8 2217 30
	movq	-88(%rbp), %rdx
	leaq	-80(%rbp), %rax
	movq	%rax, %rcx
	call	_ZN8Palmtree4Math4Core8Internal18ResourceHolderUINT12UnlinkNumberEPNS2_19__tag_NUMBER_HEADERE
	.loc 8 2218 16
	movq	-88(%rbp), %rdx
	movq	32(%rbp), %rax
	movq	%rdx, (%rax)
	.loc 8 2219 30
	movq	-24(%rbp), %rdx
	leaq	-80(%rbp), %rax
	movq	%rax, %rcx
	call	_ZN8Palmtree4Math4Core8Internal18ResourceHolderUINT12UnlinkNumberEPNS2_19__tag_NUMBER_HEADERE
	jmp	.L306
.L305:
	.loc 8 2223 36
	movq	-40(%rbp), %rdx
	movq	-32(%rbp), %rax
	movl	$0, %r8d
	movq	%rax, %rcx
	call	_ZN8Palmtree4Math4Core8InternalL18PMC_DivRem_X_X_ImpEPNS2_19__tag_NUMBER_HEADERES4_PS4_
	movq	%rax, -24(%rbp)
	.loc 8 2224 28
	movq	-24(%rbp), %rdx
	leaq	-80(%rbp), %rax
	movq	%rax, %rcx
	call	_ZN8Palmtree4Math4Core8Internal18ResourceHolderUINT10HookNumberEPNS2_19__tag_NUMBER_HEADERE
	.loc 8 2226 24
	movq	-24(%rbp), %rax
	movq	%rax, %rcx
	call	_ZN8Palmtree4Math4Core8Internal11CheckNumberEPNS2_19__tag_NUMBER_HEADERE
	.loc 8 2228 30
	movq	-24(%rbp), %rdx
	leaq	-80(%rbp), %rax
	movq	%rax, %rcx
	call	_ZN8Palmtree4Math4Core8Internal18ResourceHolderUINT12UnlinkNumberEPNS2_19__tag_NUMBER_HEADERE
.LEHE22:
.L306:
	.loc 8 2231 36
	movq	-24(%rbp), %rbx
	.loc 8 2204 28
	leaq	-80(%rbp), %rax
	movq	%rax, %rcx
	call	_ZN8Palmtree4Math4Core8Internal18ResourceHolderUINTD1Ev
	.loc 8 2231 36
	movq	%rbx, %rax
	jmp	.L310
.L309:
	movq	%rax, %rbx
	.loc 8 2204 28
	leaq	-80(%rbp), %rax
	movq	%rax, %rcx
	call	_ZN8Palmtree4Math4Core8Internal18ResourceHolderUINTD1Ev
	movq	%rbx, %rax
	movq	%rax, %rcx
.LEHB23:
	call	_Unwind_Resume
.LEHE23:
.L310:
	.loc 8 2232 5
	addq	$120, %rsp
	popq	%rbx
	.cfi_restore 3
	popq	%rbp
	.cfi_restore 6
	.cfi_def_cfa 7, -104
	ret
	.cfi_endproc
.LFE5097:
	.seh_handler	__gxx_personality_seh0, @unwind, @except
	.seh_handlerdata
.LLSDA5097:
	.byte	0xff
	.byte	0xff
	.byte	0x1
	.uleb128 .LLSDACSE5097-.LLSDACSB5097
.LLSDACSB5097:
	.uleb128 .LEHB21-.LFB5097
	.uleb128 .LEHE21-.LEHB21
	.uleb128 0
	.uleb128 0
	.uleb128 .LEHB22-.LFB5097
	.uleb128 .LEHE22-.LEHB22
	.uleb128 .L309-.LFB5097
	.uleb128 0
	.uleb128 .LEHB23-.LFB5097
	.uleb128 .LEHE23-.LEHB23
	.uleb128 0
	.uleb128 0
.LLSDACSE5097:
	.text
	.seh_endproc
	.globl	_ZN8Palmtree4Math4Core8Internal17Initialize_DivRemEPNS2_23_tag_PROCESSOR_FEATURESE
	.def	_ZN8Palmtree4Math4Core8Internal17Initialize_DivRemEPNS2_23_tag_PROCESSOR_FEATURESE;	.scl	2;	.type	32;	.endef
	.seh_proc	_ZN8Palmtree4Math4Core8Internal17Initialize_DivRemEPNS2_23_tag_PROCESSOR_FEATURESE
_ZN8Palmtree4Math4Core8Internal17Initialize_DivRemEPNS2_23_tag_PROCESSOR_FEATURESE:
.LFB5098:
	.loc 8 2235 5
	.cfi_startproc
	pushq	%rbp
	.seh_pushreg	%rbp
	.cfi_def_cfa_offset 16
	.cfi_offset 6, -16
	movq	%rsp, %rbp
	.seh_setframe	%rbp, 0
	.cfi_def_cfa_register 6
	.seh_endprologue
	movq	%rcx, 16(%rbp)
	.loc 8 2236 68
	movq	16(%rbp), %rax
	movzbl	(%rax), %eax
	andl	$2, %eax
	.loc 8 2236 91
	testb	%al, %al
	je	.L312
	.loc 8 2236 68 discriminator 1
	movq	16(%rbp), %rax
	movzbl	(%rax), %eax
	andl	$8, %eax
	.loc 8 2236 56 discriminator 1
	testb	%al, %al
	je	.L312
	.loc 8 2236 91 discriminator 3
	leaq	_ZN8Palmtree4Math4Core8InternalL25DivRem_X_X_using_ADX_MULXEPyyS3_yS3_S3_S3_(%rip), %rax
	jmp	.L313
.L312:
	.loc 8 2236 91 is_stmt 0 discriminator 4
	leaq	_ZN8Palmtree4Math4Core8InternalL24DivRem_X_X_using_ADC_MULEPyyS3_yS3_S3_S3_(%rip), %rax
.L313:
	.loc 8 2236 23 is_stmt 1 discriminator 6
	movq	%rax, _ZN8Palmtree4Math4Core8InternalL13fp_DivRem_X_XE(%rip)
	.loc 8 2237 20 discriminator 6
	movl	$0, %eax
	.loc 8 2238 5 discriminator 6
	popq	%rbp
	.cfi_restore 6
	.cfi_def_cfa 7, 8
	ret
	.cfi_endproc
.LFE5098:
	.seh_endproc
	.globl	_ZTVN8Palmtree4Math4Core8Internal23DivisionByZeroExceptionE
	.section	.rdata$_ZTVN8Palmtree4Math4Core8Internal23DivisionByZeroExceptionE,"dr"
	.linkonce same_size
	.align 8
_ZTVN8Palmtree4Math4Core8Internal23DivisionByZeroExceptionE:
	.quad	0
	.quad	_ZTIN8Palmtree4Math4Core8Internal23DivisionByZeroExceptionE
	.quad	_ZN8Palmtree4Math4Core8Internal23DivisionByZeroExceptionD1Ev
	.quad	_ZN8Palmtree4Math4Core8Internal23DivisionByZeroExceptionD0Ev
	.quad	_ZNKSt9exception4whatEv
	.globl	_ZTVN8Palmtree4Math4Core8Internal21ArgumentNullExceptionE
	.section	.rdata$_ZTVN8Palmtree4Math4Core8Internal21ArgumentNullExceptionE,"dr"
	.linkonce same_size
	.align 8
_ZTVN8Palmtree4Math4Core8Internal21ArgumentNullExceptionE:
	.quad	0
	.quad	_ZTIN8Palmtree4Math4Core8Internal21ArgumentNullExceptionE
	.quad	_ZN8Palmtree4Math4Core8Internal21ArgumentNullExceptionD1Ev
	.quad	_ZN8Palmtree4Math4Core8Internal21ArgumentNullExceptionD0Ev
	.quad	_ZNKSt9exception4whatEv
	.globl	_ZTVN8Palmtree4Math4Core8Internal9ExceptionE
	.section	.rdata$_ZTVN8Palmtree4Math4Core8Internal9ExceptionE,"dr"
	.linkonce same_size
	.align 8
_ZTVN8Palmtree4Math4Core8Internal9ExceptionE:
	.quad	0
	.quad	_ZTIN8Palmtree4Math4Core8Internal9ExceptionE
	.quad	_ZN8Palmtree4Math4Core8Internal9ExceptionD1Ev
	.quad	_ZN8Palmtree4Math4Core8Internal9ExceptionD0Ev
	.quad	_ZNKSt9exception4whatEv
	.globl	_ZTIN8Palmtree4Math4Core8Internal23DivisionByZeroExceptionE
	.section	.rdata$_ZTIN8Palmtree4Math4Core8Internal23DivisionByZeroExceptionE,"dr"
	.linkonce same_size
	.align 8
_ZTIN8Palmtree4Math4Core8Internal23DivisionByZeroExceptionE:
	.quad	_ZTVN10__cxxabiv120__si_class_type_infoE+16
	.quad	_ZTSN8Palmtree4Math4Core8Internal23DivisionByZeroExceptionE
	.quad	_ZTIN8Palmtree4Math4Core8Internal9ExceptionE
	.globl	_ZTSN8Palmtree4Math4Core8Internal23DivisionByZeroExceptionE
	.section	.rdata$_ZTSN8Palmtree4Math4Core8Internal23DivisionByZeroExceptionE,"dr"
	.linkonce same_size
	.align 32
_ZTSN8Palmtree4Math4Core8Internal23DivisionByZeroExceptionE:
	.ascii "N8Palmtree4Math4Core8Internal23DivisionByZeroExceptionE\0"
	.globl	_ZTIN8Palmtree4Math4Core8Internal21ArgumentNullExceptionE
	.section	.rdata$_ZTIN8Palmtree4Math4Core8Internal21ArgumentNullExceptionE,"dr"
	.linkonce same_size
	.align 8
_ZTIN8Palmtree4Math4Core8Internal21ArgumentNullExceptionE:
	.quad	_ZTVN10__cxxabiv120__si_class_type_infoE+16
	.quad	_ZTSN8Palmtree4Math4Core8Internal21ArgumentNullExceptionE
	.quad	_ZTIN8Palmtree4Math4Core8Internal9ExceptionE
	.globl	_ZTSN8Palmtree4Math4Core8Internal21ArgumentNullExceptionE
	.section	.rdata$_ZTSN8Palmtree4Math4Core8Internal21ArgumentNullExceptionE,"dr"
	.linkonce same_size
	.align 32
_ZTSN8Palmtree4Math4Core8Internal21ArgumentNullExceptionE:
	.ascii "N8Palmtree4Math4Core8Internal21ArgumentNullExceptionE\0"
	.globl	_ZTIN8Palmtree4Math4Core8Internal9ExceptionE
	.section	.rdata$_ZTIN8Palmtree4Math4Core8Internal9ExceptionE,"dr"
	.linkonce same_size
	.align 8
_ZTIN8Palmtree4Math4Core8Internal9ExceptionE:
	.quad	_ZTVN10__cxxabiv121__vmi_class_type_infoE+16
	.quad	_ZTSN8Palmtree4Math4Core8Internal9ExceptionE
	.long	0
	.long	1
	.quad	_ZTISt9exception
	.quad	0
	.globl	_ZTSN8Palmtree4Math4Core8Internal9ExceptionE
	.section	.rdata$_ZTSN8Palmtree4Math4Core8Internal9ExceptionE,"dr"
	.linkonce same_size
	.align 32
_ZTSN8Palmtree4Math4Core8Internal9ExceptionE:
	.ascii "N8Palmtree4Math4Core8Internal9ExceptionE\0"
	.globl	_ZTISt9exception
	.section	.rdata$_ZTISt9exception,"dr"
	.linkonce same_size
	.align 8
_ZTISt9exception:
	.quad	_ZTVN10__cxxabiv117__class_type_infoE+16
	.quad	_ZTSSt9exception
	.globl	_ZTSSt9exception
	.section	.rdata$_ZTSSt9exception,"dr"
	.linkonce same_size
	.align 8
_ZTSSt9exception:
	.ascii "St9exception\0"
	.text
.Letext0:
	.file 9 "C:/GNU/MINGW64/x86_64-8.1.0-win32-seh-rt_v6-rev0/mingw64/x86_64-w64-mingw32/include/crtdefs.h"
	.file 10 "C:/GNU/MINGW64/x86_64-8.1.0-win32-seh-rt_v6-rev0/mingw64/x86_64-w64-mingw32/include/excpt.h"
	.file 11 "C:/GNU/MINGW64/x86_64-8.1.0-win32-seh-rt_v6-rev0/mingw64/x86_64-w64-mingw32/include/minwindef.h"
	.file 12 "C:/GNU/MINGW64/x86_64-8.1.0-win32-seh-rt_v6-rev0/mingw64/x86_64-w64-mingw32/include/ctype.h"
	.file 13 "C:/GNU/MINGW64/x86_64-8.1.0-win32-seh-rt_v6-rev0/mingw64/x86_64-w64-mingw32/include/guiddef.h"
	.file 14 "C:/GNU/MINGW64/x86_64-8.1.0-win32-seh-rt_v6-rev0/mingw64/lib/gcc/x86_64-w64-mingw32/8.1.0/include/c++/cstdlib"
	.file 15 "C:/GNU/MINGW64/x86_64-8.1.0-win32-seh-rt_v6-rev0/mingw64/lib/gcc/x86_64-w64-mingw32/8.1.0/include/c++/bits/std_abs.h"
	.file 16 "C:/GNU/MINGW64/x86_64-8.1.0-win32-seh-rt_v6-rev0/mingw64/lib/gcc/x86_64-w64-mingw32/8.1.0/include/c++/bits/exception_ptr.h"
	.file 17 "C:/GNU/MINGW64/x86_64-8.1.0-win32-seh-rt_v6-rev0/mingw64/lib/gcc/x86_64-w64-mingw32/8.1.0/include/c++/new"
	.file 18 "C:/GNU/MINGW64/x86_64-8.1.0-win32-seh-rt_v6-rev0/mingw64/lib/gcc/x86_64-w64-mingw32/8.1.0/include/c++/x86_64-w64-mingw32/bits/c++config.h"
	.file 19 "C:/GNU/MINGW64/x86_64-8.1.0-win32-seh-rt_v6-rev0/mingw64/lib/gcc/x86_64-w64-mingw32/8.1.0/include/c++/type_traits"
	.file 20 "C:/GNU/MINGW64/x86_64-8.1.0-win32-seh-rt_v6-rev0/mingw64/x86_64-w64-mingw32/include/stdlib.h"
	.file 21 "C:/GNU/MINGW64/x86_64-8.1.0-win32-seh-rt_v6-rev0/mingw64/x86_64-w64-mingw32/include/malloc.h"
	.file 22 "C:/GNU/MINGW64/x86_64-8.1.0-win32-seh-rt_v6-rev0/mingw64/lib/gcc/x86_64-w64-mingw32/8.1.0/include/c++/stdlib.h"
	.file 23 "C:/GNU/MINGW64/x86_64-8.1.0-win32-seh-rt_v6-rev0/mingw64/x86_64-w64-mingw32/include/winnt.h"
	.file 24 "C:/GNU/MINGW64/x86_64-8.1.0-win32-seh-rt_v6-rev0/mingw64/x86_64-w64-mingw32/include/rpcdce.h"
	.file 25 "C:/GNU/MINGW64/x86_64-8.1.0-win32-seh-rt_v6-rev0/mingw64/x86_64-w64-mingw32/include/wtypesbase.h"
	.file 26 "C:/GNU/MINGW64/x86_64-8.1.0-win32-seh-rt_v6-rev0/mingw64/x86_64-w64-mingw32/include/unknwnbase.h"
	.file 27 "C:/GNU/MINGW64/x86_64-8.1.0-win32-seh-rt_v6-rev0/mingw64/x86_64-w64-mingw32/include/objidlbase.h"
	.file 28 "C:/GNU/MINGW64/x86_64-8.1.0-win32-seh-rt_v6-rev0/mingw64/x86_64-w64-mingw32/include/cguid.h"
	.file 29 "C:/GNU/MINGW64/x86_64-8.1.0-win32-seh-rt_v6-rev0/mingw64/x86_64-w64-mingw32/include/wtypes.h"
	.file 30 "C:/GNU/MINGW64/x86_64-8.1.0-win32-seh-rt_v6-rev0/mingw64/x86_64-w64-mingw32/include/objidl.h"
	.file 31 "C:/GNU/MINGW64/x86_64-8.1.0-win32-seh-rt_v6-rev0/mingw64/x86_64-w64-mingw32/include/oleidl.h"
	.file 32 "C:/GNU/MINGW64/x86_64-8.1.0-win32-seh-rt_v6-rev0/mingw64/x86_64-w64-mingw32/include/servprov.h"
	.file 33 "C:/GNU/MINGW64/x86_64-8.1.0-win32-seh-rt_v6-rev0/mingw64/x86_64-w64-mingw32/include/oaidl.h"
	.file 34 "C:/GNU/MINGW64/x86_64-8.1.0-win32-seh-rt_v6-rev0/mingw64/x86_64-w64-mingw32/include/msxml.h"
	.file 35 "C:/GNU/MINGW64/x86_64-8.1.0-win32-seh-rt_v6-rev0/mingw64/x86_64-w64-mingw32/include/urlmon.h"
	.file 36 "C:/GNU/MINGW64/x86_64-8.1.0-win32-seh-rt_v6-rev0/mingw64/x86_64-w64-mingw32/include/propidl.h"
	.file 37 "C:/GNU/MINGW64/x86_64-8.1.0-win32-seh-rt_v6-rev0/mingw64/x86_64-w64-mingw32/include/oleauto.h"
	.file 38 "C:/GNU/MINGW64/x86_64-8.1.0-win32-seh-rt_v6-rev0/mingw64/x86_64-w64-mingw32/include/winioctl.h"
	.file 39 "C:/GNU/MINGW64/x86_64-8.1.0-win32-seh-rt_v6-rev0/mingw64/x86_64-w64-mingw32/include/winsmcrd.h"
	.file 40 "C:/GNU/MINGW64/x86_64-8.1.0-win32-seh-rt_v6-rev0/mingw64/x86_64-w64-mingw32/include/winscard.h"
	.file 41 "C:/GNU/MINGW64/x86_64-8.1.0-win32-seh-rt_v6-rev0/mingw64/x86_64-w64-mingw32/include/commdlg.h"
	.file 42 "C:/GNU/MINGW64/x86_64-8.1.0-win32-seh-rt_v6-rev0/mingw64/x86_64-w64-mingw32/include/stdint.h"
	.file 43 "../pmc.h"
	.file 44 "<built-in>"
	.file 45 "../pmc_uint.h"
	.file 46 "../pmc_cpuid.h"
	.file 47 "../pmc_internal.h"
	.section	.rdata$.refptr._ZN8Palmtree4Math4Core8Internal11number_zeroE, "dr"
	.globl	.refptr._ZN8Palmtree4Math4Core8Internal11number_zeroE
	.linkonce	discard
.refptr._ZN8Palmtree4Math4Core8Internal11number_zeroE:
	.quad	_ZN8Palmtree4Math4Core8Internal11number_zeroE
	.section	.rdata$.refptr._ZN8Palmtree4Math4Core8Internal15statistics_infoE, "dr"
	.globl	.refptr._ZN8Palmtree4Math4Core8Internal15statistics_infoE
	.linkonce	discard
.refptr._ZN8Palmtree4Math4Core8Internal15statistics_infoE:
	.quad	_ZN8Palmtree4Math4Core8Internal15statistics_infoE
	.section	.rdata$.refptr._ZTVSt9exception, "dr"
	.globl	.refptr._ZTVSt9exception
	.linkonce	discard
.refptr._ZTVSt9exception:
	.quad	_ZTVSt9exception
