	.file	"pmc_memory.cpp"
	.text
.Ltext0:
	.cfi_sections	.debug_frame
	.section	.text$_ZNSt9exceptionC2Ev,"x"
	.linkonce discard
	.align 2
	.globl	_ZNSt9exceptionC2Ev
	.def	_ZNSt9exceptionC2Ev;	.scl	2;	.type	32;	.endef
	.seh_proc	_ZNSt9exceptionC2Ev
_ZNSt9exceptionC2Ev:
.LFB4717:
	.file 1 "C:/GNU/MINGW64/x86_64-8.1.0-win32-seh-rt_v6-rev0/mingw64/lib/gcc/x86_64-w64-mingw32/8.1.0/include/c++/bits/exception.h"
	.loc 1 63 5
	.cfi_startproc
	pushq	%rbp
	.seh_pushreg	%rbp
	.cfi_def_cfa_offset 16
	.cfi_offset 6, -16
	movq	%rsp, %rbp
	.seh_setframe	%rbp, 0
	.cfi_def_cfa_register 6
	.seh_endprologue
	movq	%rcx, 16(%rbp)
.LBB10:
	.loc 1 63 26
	movq	.refptr._ZTVSt9exception(%rip), %rax
	leaq	16(%rax), %rdx
	movq	16(%rbp), %rax
	movq	%rdx, (%rax)
.LBE10:
	.loc 1 63 28
	nop
	popq	%rbp
	.cfi_restore 6
	.cfi_def_cfa 7, 8
	ret
	.cfi_endproc
.LFE4717:
	.seh_endproc
	.section	.text$_ZN8Palmtree4Math4Core8Internal9ExceptionC2EiPKw,"x"
	.linkonce discard
	.align 2
	.globl	_ZN8Palmtree4Math4Core8Internal9ExceptionC2EiPKw
	.def	_ZN8Palmtree4Math4Core8Internal9ExceptionC2EiPKw;	.scl	2;	.type	32;	.endef
	.seh_proc	_ZN8Palmtree4Math4Core8Internal9ExceptionC2EiPKw
_ZN8Palmtree4Math4Core8Internal9ExceptionC2EiPKw:
.LFB4786:
	.file 2 "../pmc_exception.h"
	.loc 2 47 9
	.cfi_startproc
	pushq	%rbp
	.seh_pushreg	%rbp
	.cfi_def_cfa_offset 16
	.cfi_offset 6, -16
	movq	%rsp, %rbp
	.seh_setframe	%rbp, 0
	.cfi_def_cfa_register 6
	subq	$32, %rsp
	.seh_stackalloc	32
	.seh_endprologue
	movq	%rcx, 16(%rbp)
	movl	%edx, 24(%rbp)
	movq	%r8, 32(%rbp)
.LBB11:
	.loc 2 48 9
	movq	16(%rbp), %rax
	movq	%rax, %rcx
	call	_ZNSt9exceptionC2Ev
	leaq	16+_ZTVN8Palmtree4Math4Core8Internal9ExceptionE(%rip), %rdx
	movq	16(%rbp), %rax
	movq	%rdx, (%rax)
	.loc 2 49 19
	movq	16(%rbp), %rax
	movl	24(%rbp), %edx
	movl	%edx, 8(%rax)
	.loc 2 50 22
	movq	16(%rbp), %rax
	movq	32(%rbp), %rdx
	movq	%rdx, 16(%rax)
	.loc 2 51 19
	movq	16(%rbp), %rax
	movq	$0, 24(%rax)
.LBE11:
	.loc 2 52 9
	nop
	addq	$32, %rsp
	popq	%rbp
	.cfi_restore 6
	.cfi_def_cfa 7, 8
	ret
	.cfi_endproc
.LFE4786:
	.seh_endproc
	.section	.text$_ZN8Palmtree4Math4Core8Internal9ExceptionC2EiPKwS5_,"x"
	.linkonce discard
	.align 2
	.globl	_ZN8Palmtree4Math4Core8Internal9ExceptionC2EiPKwS5_
	.def	_ZN8Palmtree4Math4Core8Internal9ExceptionC2EiPKwS5_;	.scl	2;	.type	32;	.endef
	.seh_proc	_ZN8Palmtree4Math4Core8Internal9ExceptionC2EiPKwS5_
_ZN8Palmtree4Math4Core8Internal9ExceptionC2EiPKwS5_:
.LFB4789:
	.loc 2 54 9
	.cfi_startproc
	pushq	%rbp
	.seh_pushreg	%rbp
	.cfi_def_cfa_offset 16
	.cfi_offset 6, -16
	movq	%rsp, %rbp
	.seh_setframe	%rbp, 0
	.cfi_def_cfa_register 6
	subq	$32, %rsp
	.seh_stackalloc	32
	.seh_endprologue
	movq	%rcx, 16(%rbp)
	movl	%edx, 24(%rbp)
	movq	%r8, 32(%rbp)
	movq	%r9, 40(%rbp)
.LBB12:
	.loc 2 55 9
	movq	16(%rbp), %rax
	movq	%rax, %rcx
	call	_ZNSt9exceptionC2Ev
	leaq	16+_ZTVN8Palmtree4Math4Core8Internal9ExceptionE(%rip), %rdx
	movq	16(%rbp), %rax
	movq	%rdx, (%rax)
	.loc 2 56 19
	movq	16(%rbp), %rax
	movl	24(%rbp), %edx
	movl	%edx, 8(%rax)
	.loc 2 57 22
	movq	16(%rbp), %rax
	movq	32(%rbp), %rdx
	movq	%rdx, 16(%rax)
	.loc 2 58 19
	movq	16(%rbp), %rax
	movq	40(%rbp), %rdx
	movq	%rdx, 24(%rax)
.LBE12:
	.loc 2 59 9
	nop
	addq	$32, %rsp
	popq	%rbp
	.cfi_restore 6
	.cfi_def_cfa 7, 8
	ret
	.cfi_endproc
.LFE4789:
	.seh_endproc
	.section	.text$_ZN8Palmtree4Math4Core8Internal9ExceptionD2Ev,"x"
	.linkonce discard
	.align 2
	.globl	_ZN8Palmtree4Math4Core8Internal9ExceptionD2Ev
	.def	_ZN8Palmtree4Math4Core8Internal9ExceptionD2Ev;	.scl	2;	.type	32;	.endef
	.seh_proc	_ZN8Palmtree4Math4Core8Internal9ExceptionD2Ev
_ZN8Palmtree4Math4Core8Internal9ExceptionD2Ev:
.LFB4795:
	.loc 2 69 17
	.cfi_startproc
	pushq	%rbp
	.seh_pushreg	%rbp
	.cfi_def_cfa_offset 16
	.cfi_offset 6, -16
	movq	%rsp, %rbp
	.seh_setframe	%rbp, 0
	.cfi_def_cfa_register 6
	subq	$32, %rsp
	.seh_stackalloc	32
	.seh_endprologue
	movq	%rcx, 16(%rbp)
.LBB13:
	.loc 2 70 9
	leaq	16+_ZTVN8Palmtree4Math4Core8Internal9ExceptionE(%rip), %rdx
	movq	16(%rbp), %rax
	movq	%rdx, (%rax)
	movq	16(%rbp), %rax
	movq	%rax, %rcx
	call	_ZNSt9exceptionD2Ev
.LBE13:
	.loc 2 71 9
	nop
	addq	$32, %rsp
	popq	%rbp
	.cfi_restore 6
	.cfi_def_cfa 7, 8
	ret
	.cfi_endproc
.LFE4795:
	.seh_endproc
	.section	.text$_ZN8Palmtree4Math4Core8Internal9ExceptionD1Ev,"x"
	.linkonce discard
	.align 2
	.globl	_ZN8Palmtree4Math4Core8Internal9ExceptionD1Ev
	.def	_ZN8Palmtree4Math4Core8Internal9ExceptionD1Ev;	.scl	2;	.type	32;	.endef
	.seh_proc	_ZN8Palmtree4Math4Core8Internal9ExceptionD1Ev
_ZN8Palmtree4Math4Core8Internal9ExceptionD1Ev:
.LFB4796:
	.loc 2 69 17
	.cfi_startproc
	pushq	%rbp
	.seh_pushreg	%rbp
	.cfi_def_cfa_offset 16
	.cfi_offset 6, -16
	movq	%rsp, %rbp
	.seh_setframe	%rbp, 0
	.cfi_def_cfa_register 6
	subq	$32, %rsp
	.seh_stackalloc	32
	.seh_endprologue
	movq	%rcx, 16(%rbp)
.LBB14:
	.loc 2 70 9
	leaq	16+_ZTVN8Palmtree4Math4Core8Internal9ExceptionE(%rip), %rdx
	movq	16(%rbp), %rax
	movq	%rdx, (%rax)
	movq	16(%rbp), %rax
	movq	%rax, %rcx
	call	_ZNSt9exceptionD2Ev
.LBE14:
	.loc 2 71 9
	nop
	addq	$32, %rsp
	popq	%rbp
	.cfi_restore 6
	.cfi_def_cfa 7, 8
	ret
	.cfi_endproc
.LFE4796:
	.seh_endproc
	.section	.text$_ZN8Palmtree4Math4Core8Internal9ExceptionD0Ev,"x"
	.linkonce discard
	.align 2
	.globl	_ZN8Palmtree4Math4Core8Internal9ExceptionD0Ev
	.def	_ZN8Palmtree4Math4Core8Internal9ExceptionD0Ev;	.scl	2;	.type	32;	.endef
	.seh_proc	_ZN8Palmtree4Math4Core8Internal9ExceptionD0Ev
_ZN8Palmtree4Math4Core8Internal9ExceptionD0Ev:
.LFB4797:
	.loc 2 69 17
	.cfi_startproc
	pushq	%rbp
	.seh_pushreg	%rbp
	.cfi_def_cfa_offset 16
	.cfi_offset 6, -16
	movq	%rsp, %rbp
	.seh_setframe	%rbp, 0
	.cfi_def_cfa_register 6
	subq	$32, %rsp
	.seh_stackalloc	32
	.seh_endprologue
	movq	%rcx, 16(%rbp)
	.loc 2 71 9
	movq	16(%rbp), %rcx
	call	_ZN8Palmtree4Math4Core8Internal9ExceptionD1Ev
	movl	$32, %edx
	movq	16(%rbp), %rcx
	call	_ZdlPvy
	nop
	addq	$32, %rsp
	popq	%rbp
	.cfi_restore 6
	.cfi_def_cfa 7, 8
	ret
	.cfi_endproc
.LFE4797:
	.seh_endproc
	.section	.text$_ZNK8Palmtree4Math4Core8Internal9Exception13GetStatusCodeEv,"x"
	.linkonce discard
	.align 2
	.globl	_ZNK8Palmtree4Math4Core8Internal9Exception13GetStatusCodeEv
	.def	_ZNK8Palmtree4Math4Core8Internal9Exception13GetStatusCodeEv;	.scl	2;	.type	32;	.endef
	.seh_proc	_ZNK8Palmtree4Math4Core8Internal9Exception13GetStatusCodeEv
_ZNK8Palmtree4Math4Core8Internal9Exception13GetStatusCodeEv:
.LFB4798:
	.loc 2 73 25
	.cfi_startproc
	pushq	%rbp
	.seh_pushreg	%rbp
	.cfi_def_cfa_offset 16
	.cfi_offset 6, -16
	movq	%rsp, %rbp
	.seh_setframe	%rbp, 0
	.cfi_def_cfa_register 6
	.seh_endprologue
	movq	%rcx, 16(%rbp)
	.loc 2 75 26
	movq	16(%rbp), %rax
	movl	8(%rax), %eax
	.loc 2 76 9
	popq	%rbp
	.cfi_restore 6
	.cfi_def_cfa 7, 8
	ret
	.cfi_endproc
.LFE4798:
	.seh_endproc
	.section	.text$_ZN8Palmtree4Math4Core8Internal17ArgumentExceptionC1EPKw,"x"
	.linkonce discard
	.align 2
	.globl	_ZN8Palmtree4Math4Core8Internal17ArgumentExceptionC1EPKw
	.def	_ZN8Palmtree4Math4Core8Internal17ArgumentExceptionC1EPKw;	.scl	2;	.type	32;	.endef
	.seh_proc	_ZN8Palmtree4Math4Core8Internal17ArgumentExceptionC1EPKw
_ZN8Palmtree4Math4Core8Internal17ArgumentExceptionC1EPKw:
.LFB4803:
	.loc 2 94 9
	.cfi_startproc
	pushq	%rbp
	.seh_pushreg	%rbp
	.cfi_def_cfa_offset 16
	.cfi_offset 6, -16
	movq	%rsp, %rbp
	.seh_setframe	%rbp, 0
	.cfi_def_cfa_register 6
	subq	$32, %rsp
	.seh_stackalloc	32
	.seh_endprologue
	movq	%rcx, 16(%rbp)
	movq	%rdx, 24(%rbp)
.LBB15:
	.loc 2 95 38
	movq	16(%rbp), %rax
	movq	24(%rbp), %rdx
	movq	%rdx, %r8
	movl	$-1, %edx
	movq	%rax, %rcx
	call	_ZN8Palmtree4Math4Core8Internal9ExceptionC2EiPKw
	leaq	16+_ZTVN8Palmtree4Math4Core8Internal17ArgumentExceptionE(%rip), %rdx
	movq	16(%rbp), %rax
	movq	%rdx, (%rax)
.LBE15:
	.loc 2 97 9
	nop
	addq	$32, %rsp
	popq	%rbp
	.cfi_restore 6
	.cfi_def_cfa 7, 8
	ret
	.cfi_endproc
.LFE4803:
	.seh_endproc
	.section	.text$_ZN8Palmtree4Math4Core8Internal17ArgumentExceptionD1Ev,"x"
	.linkonce discard
	.align 2
	.globl	_ZN8Palmtree4Math4Core8Internal17ArgumentExceptionD1Ev
	.def	_ZN8Palmtree4Math4Core8Internal17ArgumentExceptionD1Ev;	.scl	2;	.type	32;	.endef
	.seh_proc	_ZN8Palmtree4Math4Core8Internal17ArgumentExceptionD1Ev
_ZN8Palmtree4Math4Core8Internal17ArgumentExceptionD1Ev:
.LFB4809:
	.loc 2 104 17
	.cfi_startproc
	pushq	%rbp
	.seh_pushreg	%rbp
	.cfi_def_cfa_offset 16
	.cfi_offset 6, -16
	movq	%rsp, %rbp
	.seh_setframe	%rbp, 0
	.cfi_def_cfa_register 6
	subq	$32, %rsp
	.seh_stackalloc	32
	.seh_endprologue
	movq	%rcx, 16(%rbp)
.LBB16:
	.loc 2 105 9
	leaq	16+_ZTVN8Palmtree4Math4Core8Internal17ArgumentExceptionE(%rip), %rdx
	movq	16(%rbp), %rax
	movq	%rdx, (%rax)
	movq	16(%rbp), %rax
	movq	%rax, %rcx
	call	_ZN8Palmtree4Math4Core8Internal9ExceptionD2Ev
.LBE16:
	.loc 2 106 9
	nop
	addq	$32, %rsp
	popq	%rbp
	.cfi_restore 6
	.cfi_def_cfa 7, 8
	ret
	.cfi_endproc
.LFE4809:
	.seh_endproc
	.section	.text$_ZN8Palmtree4Math4Core8Internal17ArgumentExceptionD0Ev,"x"
	.linkonce discard
	.align 2
	.globl	_ZN8Palmtree4Math4Core8Internal17ArgumentExceptionD0Ev
	.def	_ZN8Palmtree4Math4Core8Internal17ArgumentExceptionD0Ev;	.scl	2;	.type	32;	.endef
	.seh_proc	_ZN8Palmtree4Math4Core8Internal17ArgumentExceptionD0Ev
_ZN8Palmtree4Math4Core8Internal17ArgumentExceptionD0Ev:
.LFB4810:
	.loc 2 104 17
	.cfi_startproc
	pushq	%rbp
	.seh_pushreg	%rbp
	.cfi_def_cfa_offset 16
	.cfi_offset 6, -16
	movq	%rsp, %rbp
	.seh_setframe	%rbp, 0
	.cfi_def_cfa_register 6
	subq	$32, %rsp
	.seh_stackalloc	32
	.seh_endprologue
	movq	%rcx, 16(%rbp)
	.loc 2 106 9
	movq	16(%rbp), %rcx
	call	_ZN8Palmtree4Math4Core8Internal17ArgumentExceptionD1Ev
	movl	$32, %edx
	movq	16(%rbp), %rcx
	call	_ZdlPvy
	nop
	addq	$32, %rsp
	popq	%rbp
	.cfi_restore 6
	.cfi_def_cfa 7, 8
	ret
	.cfi_endproc
.LFE4810:
	.seh_endproc
	.section	.text$_ZN8Palmtree4Math4Core8Internal21ArgumentNullExceptionC1EPKwS5_,"x"
	.linkonce discard
	.align 2
	.globl	_ZN8Palmtree4Math4Core8Internal21ArgumentNullExceptionC1EPKwS5_
	.def	_ZN8Palmtree4Math4Core8Internal21ArgumentNullExceptionC1EPKwS5_;	.scl	2;	.type	32;	.endef
	.seh_proc	_ZN8Palmtree4Math4Core8Internal21ArgumentNullExceptionC1EPKwS5_
_ZN8Palmtree4Math4Core8Internal21ArgumentNullExceptionC1EPKwS5_:
.LFB4813:
	.loc 2 113 9
	.cfi_startproc
	pushq	%rbp
	.seh_pushreg	%rbp
	.cfi_def_cfa_offset 16
	.cfi_offset 6, -16
	movq	%rsp, %rbp
	.seh_setframe	%rbp, 0
	.cfi_def_cfa_register 6
	subq	$32, %rsp
	.seh_stackalloc	32
	.seh_endprologue
	movq	%rcx, 16(%rbp)
	movq	%rdx, 24(%rbp)
	movq	%r8, 32(%rbp)
.LBB17:
	.loc 2 114 50
	movq	16(%rbp), %rax
	movq	32(%rbp), %rcx
	movq	24(%rbp), %rdx
	movq	%rcx, %r9
	movq	%rdx, %r8
	movl	$-2, %edx
	movq	%rax, %rcx
	call	_ZN8Palmtree4Math4Core8Internal9ExceptionC2EiPKwS5_
	leaq	16+_ZTVN8Palmtree4Math4Core8Internal21ArgumentNullExceptionE(%rip), %rdx
	movq	16(%rbp), %rax
	movq	%rdx, (%rax)
.LBE17:
	.loc 2 116 9
	nop
	addq	$32, %rsp
	popq	%rbp
	.cfi_restore 6
	.cfi_def_cfa 7, 8
	ret
	.cfi_endproc
.LFE4813:
	.seh_endproc
	.section	.text$_ZN8Palmtree4Math4Core8Internal21ArgumentNullExceptionD1Ev,"x"
	.linkonce discard
	.align 2
	.globl	_ZN8Palmtree4Math4Core8Internal21ArgumentNullExceptionD1Ev
	.def	_ZN8Palmtree4Math4Core8Internal21ArgumentNullExceptionD1Ev;	.scl	2;	.type	32;	.endef
	.seh_proc	_ZN8Palmtree4Math4Core8Internal21ArgumentNullExceptionD1Ev
_ZN8Palmtree4Math4Core8Internal21ArgumentNullExceptionD1Ev:
.LFB4819:
	.loc 2 123 17
	.cfi_startproc
	pushq	%rbp
	.seh_pushreg	%rbp
	.cfi_def_cfa_offset 16
	.cfi_offset 6, -16
	movq	%rsp, %rbp
	.seh_setframe	%rbp, 0
	.cfi_def_cfa_register 6
	subq	$32, %rsp
	.seh_stackalloc	32
	.seh_endprologue
	movq	%rcx, 16(%rbp)
.LBB18:
	.loc 2 124 9
	leaq	16+_ZTVN8Palmtree4Math4Core8Internal21ArgumentNullExceptionE(%rip), %rdx
	movq	16(%rbp), %rax
	movq	%rdx, (%rax)
	movq	16(%rbp), %rax
	movq	%rax, %rcx
	call	_ZN8Palmtree4Math4Core8Internal9ExceptionD2Ev
.LBE18:
	.loc 2 125 9
	nop
	addq	$32, %rsp
	popq	%rbp
	.cfi_restore 6
	.cfi_def_cfa 7, 8
	ret
	.cfi_endproc
.LFE4819:
	.seh_endproc
	.section	.text$_ZN8Palmtree4Math4Core8Internal21ArgumentNullExceptionD0Ev,"x"
	.linkonce discard
	.align 2
	.globl	_ZN8Palmtree4Math4Core8Internal21ArgumentNullExceptionD0Ev
	.def	_ZN8Palmtree4Math4Core8Internal21ArgumentNullExceptionD0Ev;	.scl	2;	.type	32;	.endef
	.seh_proc	_ZN8Palmtree4Math4Core8Internal21ArgumentNullExceptionD0Ev
_ZN8Palmtree4Math4Core8Internal21ArgumentNullExceptionD0Ev:
.LFB4820:
	.loc 2 123 17
	.cfi_startproc
	pushq	%rbp
	.seh_pushreg	%rbp
	.cfi_def_cfa_offset 16
	.cfi_offset 6, -16
	movq	%rsp, %rbp
	.seh_setframe	%rbp, 0
	.cfi_def_cfa_register 6
	subq	$32, %rsp
	.seh_stackalloc	32
	.seh_endprologue
	movq	%rcx, 16(%rbp)
	.loc 2 125 9
	movq	16(%rbp), %rcx
	call	_ZN8Palmtree4Math4Core8Internal21ArgumentNullExceptionD1Ev
	movl	$32, %edx
	movq	16(%rbp), %rcx
	call	_ZdlPvy
	nop
	addq	$32, %rsp
	popq	%rbp
	.cfi_restore 6
	.cfi_def_cfa 7, 8
	ret
	.cfi_endproc
.LFE4820:
	.seh_endproc
	.section	.text$_ZN8Palmtree4Math4Core8Internal24NotEnoughMemoryExceptionC1EPKw,"x"
	.linkonce discard
	.align 2
	.globl	_ZN8Palmtree4Math4Core8Internal24NotEnoughMemoryExceptionC1EPKw
	.def	_ZN8Palmtree4Math4Core8Internal24NotEnoughMemoryExceptionC1EPKw;	.scl	2;	.type	32;	.endef
	.seh_proc	_ZN8Palmtree4Math4Core8Internal24NotEnoughMemoryExceptionC1EPKw
_ZN8Palmtree4Math4Core8Internal24NotEnoughMemoryExceptionC1EPKw:
.LFB4883:
	.loc 2 246 9
	.cfi_startproc
	pushq	%rbp
	.seh_pushreg	%rbp
	.cfi_def_cfa_offset 16
	.cfi_offset 6, -16
	movq	%rsp, %rbp
	.seh_setframe	%rbp, 0
	.cfi_def_cfa_register 6
	subq	$32, %rsp
	.seh_stackalloc	32
	.seh_endprologue
	movq	%rcx, 16(%rbp)
	movq	%rdx, 24(%rbp)
.LBB19:
	.loc 2 247 38
	movq	16(%rbp), %rax
	movq	24(%rbp), %rdx
	movq	%rdx, %r8
	movl	$-9, %edx
	movq	%rax, %rcx
	call	_ZN8Palmtree4Math4Core8Internal9ExceptionC2EiPKw
	leaq	16+_ZTVN8Palmtree4Math4Core8Internal24NotEnoughMemoryExceptionE(%rip), %rdx
	movq	16(%rbp), %rax
	movq	%rdx, (%rax)
.LBE19:
	.loc 2 249 9
	nop
	addq	$32, %rsp
	popq	%rbp
	.cfi_restore 6
	.cfi_def_cfa 7, 8
	ret
	.cfi_endproc
.LFE4883:
	.seh_endproc
	.section	.text$_ZN8Palmtree4Math4Core8Internal24NotEnoughMemoryExceptionD1Ev,"x"
	.linkonce discard
	.align 2
	.globl	_ZN8Palmtree4Math4Core8Internal24NotEnoughMemoryExceptionD1Ev
	.def	_ZN8Palmtree4Math4Core8Internal24NotEnoughMemoryExceptionD1Ev;	.scl	2;	.type	32;	.endef
	.seh_proc	_ZN8Palmtree4Math4Core8Internal24NotEnoughMemoryExceptionD1Ev
_ZN8Palmtree4Math4Core8Internal24NotEnoughMemoryExceptionD1Ev:
.LFB4889:
	.loc 2 256 17
	.cfi_startproc
	pushq	%rbp
	.seh_pushreg	%rbp
	.cfi_def_cfa_offset 16
	.cfi_offset 6, -16
	movq	%rsp, %rbp
	.seh_setframe	%rbp, 0
	.cfi_def_cfa_register 6
	subq	$32, %rsp
	.seh_stackalloc	32
	.seh_endprologue
	movq	%rcx, 16(%rbp)
.LBB20:
	.loc 2 257 9
	leaq	16+_ZTVN8Palmtree4Math4Core8Internal24NotEnoughMemoryExceptionE(%rip), %rdx
	movq	16(%rbp), %rax
	movq	%rdx, (%rax)
	movq	16(%rbp), %rax
	movq	%rax, %rcx
	call	_ZN8Palmtree4Math4Core8Internal9ExceptionD2Ev
.LBE20:
	.loc 2 258 9
	nop
	addq	$32, %rsp
	popq	%rbp
	.cfi_restore 6
	.cfi_def_cfa 7, 8
	ret
	.cfi_endproc
.LFE4889:
	.seh_endproc
	.section	.text$_ZN8Palmtree4Math4Core8Internal24NotEnoughMemoryExceptionD0Ev,"x"
	.linkonce discard
	.align 2
	.globl	_ZN8Palmtree4Math4Core8Internal24NotEnoughMemoryExceptionD0Ev
	.def	_ZN8Palmtree4Math4Core8Internal24NotEnoughMemoryExceptionD0Ev;	.scl	2;	.type	32;	.endef
	.seh_proc	_ZN8Palmtree4Math4Core8Internal24NotEnoughMemoryExceptionD0Ev
_ZN8Palmtree4Math4Core8Internal24NotEnoughMemoryExceptionD0Ev:
.LFB4890:
	.loc 2 256 17
	.cfi_startproc
	pushq	%rbp
	.seh_pushreg	%rbp
	.cfi_def_cfa_offset 16
	.cfi_offset 6, -16
	movq	%rsp, %rbp
	.seh_setframe	%rbp, 0
	.cfi_def_cfa_register 6
	subq	$32, %rsp
	.seh_stackalloc	32
	.seh_endprologue
	movq	%rcx, 16(%rbp)
	.loc 2 258 9
	movq	16(%rbp), %rcx
	call	_ZN8Palmtree4Math4Core8Internal24NotEnoughMemoryExceptionD1Ev
	movl	$32, %edx
	movq	16(%rbp), %rcx
	call	_ZdlPvy
	nop
	addq	$32, %rsp
	popq	%rbp
	.cfi_restore 6
	.cfi_def_cfa 7, 8
	ret
	.cfi_endproc
.LFE4890:
	.seh_endproc
	.section	.text$_ZN8Palmtree4Math4Core8Internal22InternalErrorExceptionC1EPKwS5_,"x"
	.linkonce discard
	.align 2
	.globl	_ZN8Palmtree4Math4Core8Internal22InternalErrorExceptionC1EPKwS5_
	.def	_ZN8Palmtree4Math4Core8Internal22InternalErrorExceptionC1EPKwS5_;	.scl	2;	.type	32;	.endef
	.seh_proc	_ZN8Palmtree4Math4Core8Internal22InternalErrorExceptionC1EPKwS5_
_ZN8Palmtree4Math4Core8Internal22InternalErrorExceptionC1EPKwS5_:
.LFB4903:
	.loc 2 284 9
	.cfi_startproc
	pushq	%rbp
	.seh_pushreg	%rbp
	.cfi_def_cfa_offset 16
	.cfi_offset 6, -16
	movq	%rsp, %rbp
	.seh_setframe	%rbp, 0
	.cfi_def_cfa_register 6
	subq	$32, %rsp
	.seh_stackalloc	32
	.seh_endprologue
	movq	%rcx, 16(%rbp)
	movq	%rdx, 24(%rbp)
	movq	%r8, 32(%rbp)
.LBB21:
	.loc 2 285 46
	movq	16(%rbp), %rax
	movq	32(%rbp), %rcx
	movq	24(%rbp), %rdx
	movq	%rcx, %r9
	movq	%rdx, %r8
	movl	$-256, %edx
	movq	%rax, %rcx
	call	_ZN8Palmtree4Math4Core8Internal9ExceptionC2EiPKwS5_
	leaq	16+_ZTVN8Palmtree4Math4Core8Internal22InternalErrorExceptionE(%rip), %rdx
	movq	16(%rbp), %rax
	movq	%rdx, (%rax)
.LBE21:
	.loc 2 287 9
	nop
	addq	$32, %rsp
	popq	%rbp
	.cfi_restore 6
	.cfi_def_cfa 7, 8
	ret
	.cfi_endproc
.LFE4903:
	.seh_endproc
	.section	.text$_ZN8Palmtree4Math4Core8Internal22InternalErrorExceptionD1Ev,"x"
	.linkonce discard
	.align 2
	.globl	_ZN8Palmtree4Math4Core8Internal22InternalErrorExceptionD1Ev
	.def	_ZN8Palmtree4Math4Core8Internal22InternalErrorExceptionD1Ev;	.scl	2;	.type	32;	.endef
	.seh_proc	_ZN8Palmtree4Math4Core8Internal22InternalErrorExceptionD1Ev
_ZN8Palmtree4Math4Core8Internal22InternalErrorExceptionD1Ev:
.LFB4909:
	.loc 2 294 17
	.cfi_startproc
	pushq	%rbp
	.seh_pushreg	%rbp
	.cfi_def_cfa_offset 16
	.cfi_offset 6, -16
	movq	%rsp, %rbp
	.seh_setframe	%rbp, 0
	.cfi_def_cfa_register 6
	subq	$32, %rsp
	.seh_stackalloc	32
	.seh_endprologue
	movq	%rcx, 16(%rbp)
.LBB22:
	.loc 2 295 9
	leaq	16+_ZTVN8Palmtree4Math4Core8Internal22InternalErrorExceptionE(%rip), %rdx
	movq	16(%rbp), %rax
	movq	%rdx, (%rax)
	movq	16(%rbp), %rax
	movq	%rax, %rcx
	call	_ZN8Palmtree4Math4Core8Internal9ExceptionD2Ev
.LBE22:
	.loc 2 296 9
	nop
	addq	$32, %rsp
	popq	%rbp
	.cfi_restore 6
	.cfi_def_cfa 7, 8
	ret
	.cfi_endproc
.LFE4909:
	.seh_endproc
	.section	.text$_ZN8Palmtree4Math4Core8Internal22InternalErrorExceptionD0Ev,"x"
	.linkonce discard
	.align 2
	.globl	_ZN8Palmtree4Math4Core8Internal22InternalErrorExceptionD0Ev
	.def	_ZN8Palmtree4Math4Core8Internal22InternalErrorExceptionD0Ev;	.scl	2;	.type	32;	.endef
	.seh_proc	_ZN8Palmtree4Math4Core8Internal22InternalErrorExceptionD0Ev
_ZN8Palmtree4Math4Core8Internal22InternalErrorExceptionD0Ev:
.LFB4910:
	.loc 2 294 17
	.cfi_startproc
	pushq	%rbp
	.seh_pushreg	%rbp
	.cfi_def_cfa_offset 16
	.cfi_offset 6, -16
	movq	%rsp, %rbp
	.seh_setframe	%rbp, 0
	.cfi_def_cfa_register 6
	subq	$32, %rsp
	.seh_stackalloc	32
	.seh_endprologue
	movq	%rcx, 16(%rbp)
	.loc 2 296 9
	movq	16(%rbp), %rcx
	call	_ZN8Palmtree4Math4Core8Internal22InternalErrorExceptionD1Ev
	movl	$32, %edx
	movq	16(%rbp), %rcx
	call	_ZdlPvy
	nop
	addq	$32, %rsp
	popq	%rbp
	.cfi_restore 6
	.cfi_def_cfa 7, 8
	ret
	.cfi_endproc
.LFE4910:
	.seh_endproc
	.section	.text$_ZN8Palmtree4Math4Core8Internal18BadBufferExceptionC1EPKwS5_,"x"
	.linkonce discard
	.align 2
	.globl	_ZN8Palmtree4Math4Core8Internal18BadBufferExceptionC1EPKwS5_
	.def	_ZN8Palmtree4Math4Core8Internal18BadBufferExceptionC1EPKwS5_;	.scl	2;	.type	32;	.endef
	.seh_proc	_ZN8Palmtree4Math4Core8Internal18BadBufferExceptionC1EPKwS5_
_ZN8Palmtree4Math4Core8Internal18BadBufferExceptionC1EPKwS5_:
.LFB4913:
	.loc 2 305 9
	.cfi_startproc
	pushq	%rbp
	.seh_pushreg	%rbp
	.cfi_def_cfa_offset 16
	.cfi_offset 6, -16
	movq	%rsp, %rbp
	.seh_setframe	%rbp, 0
	.cfi_def_cfa_register 6
	subq	$32, %rsp
	.seh_stackalloc	32
	.seh_endprologue
	movq	%rcx, 16(%rbp)
	movq	%rdx, 24(%rbp)
	movq	%r8, 32(%rbp)
.LBB23:
	.loc 2 306 46
	movq	16(%rbp), %rax
	movq	32(%rbp), %rcx
	movq	24(%rbp), %rdx
	movq	%rcx, %r9
	movq	%rdx, %r8
	movl	$-257, %edx
	movq	%rax, %rcx
	call	_ZN8Palmtree4Math4Core8Internal9ExceptionC2EiPKwS5_
	leaq	16+_ZTVN8Palmtree4Math4Core8Internal18BadBufferExceptionE(%rip), %rdx
	movq	16(%rbp), %rax
	movq	%rdx, (%rax)
.LBE23:
	.loc 2 308 9
	nop
	addq	$32, %rsp
	popq	%rbp
	.cfi_restore 6
	.cfi_def_cfa 7, 8
	ret
	.cfi_endproc
.LFE4913:
	.seh_endproc
	.section	.text$_ZN8Palmtree4Math4Core8Internal18BadBufferExceptionD1Ev,"x"
	.linkonce discard
	.align 2
	.globl	_ZN8Palmtree4Math4Core8Internal18BadBufferExceptionD1Ev
	.def	_ZN8Palmtree4Math4Core8Internal18BadBufferExceptionD1Ev;	.scl	2;	.type	32;	.endef
	.seh_proc	_ZN8Palmtree4Math4Core8Internal18BadBufferExceptionD1Ev
_ZN8Palmtree4Math4Core8Internal18BadBufferExceptionD1Ev:
.LFB4919:
	.loc 2 315 17
	.cfi_startproc
	pushq	%rbp
	.seh_pushreg	%rbp
	.cfi_def_cfa_offset 16
	.cfi_offset 6, -16
	movq	%rsp, %rbp
	.seh_setframe	%rbp, 0
	.cfi_def_cfa_register 6
	subq	$32, %rsp
	.seh_stackalloc	32
	.seh_endprologue
	movq	%rcx, 16(%rbp)
.LBB24:
	.loc 2 316 9
	leaq	16+_ZTVN8Palmtree4Math4Core8Internal18BadBufferExceptionE(%rip), %rdx
	movq	16(%rbp), %rax
	movq	%rdx, (%rax)
	movq	16(%rbp), %rax
	movq	%rax, %rcx
	call	_ZN8Palmtree4Math4Core8Internal9ExceptionD2Ev
.LBE24:
	.loc 2 317 9
	nop
	addq	$32, %rsp
	popq	%rbp
	.cfi_restore 6
	.cfi_def_cfa 7, 8
	ret
	.cfi_endproc
.LFE4919:
	.seh_endproc
	.section	.text$_ZN8Palmtree4Math4Core8Internal18BadBufferExceptionD0Ev,"x"
	.linkonce discard
	.align 2
	.globl	_ZN8Palmtree4Math4Core8Internal18BadBufferExceptionD0Ev
	.def	_ZN8Palmtree4Math4Core8Internal18BadBufferExceptionD0Ev;	.scl	2;	.type	32;	.endef
	.seh_proc	_ZN8Palmtree4Math4Core8Internal18BadBufferExceptionD0Ev
_ZN8Palmtree4Math4Core8Internal18BadBufferExceptionD0Ev:
.LFB4920:
	.loc 2 315 17
	.cfi_startproc
	pushq	%rbp
	.seh_pushreg	%rbp
	.cfi_def_cfa_offset 16
	.cfi_offset 6, -16
	movq	%rsp, %rbp
	.seh_setframe	%rbp, 0
	.cfi_def_cfa_register 6
	subq	$32, %rsp
	.seh_stackalloc	32
	.seh_endprologue
	movq	%rcx, 16(%rbp)
	.loc 2 317 9
	movq	16(%rbp), %rcx
	call	_ZN8Palmtree4Math4Core8Internal18BadBufferExceptionD1Ev
	movl	$40, %edx
	movq	16(%rbp), %rcx
	call	_ZdlPvy
	nop
	addq	$32, %rsp
	popq	%rbp
	.cfi_restore 6
	.cfi_def_cfa 7, 8
	ret
	.cfi_endproc
.LFE4920:
	.seh_endproc
	.section	.text$_ZN8Palmtree4Math4Core8Internal14ResourceHolder16__ChainBufferTagC2Ev,"x"
	.linkonce discard
	.align 2
	.globl	_ZN8Palmtree4Math4Core8Internal14ResourceHolder16__ChainBufferTagC2Ev
	.def	_ZN8Palmtree4Math4Core8Internal14ResourceHolder16__ChainBufferTagC2Ev;	.scl	2;	.type	32;	.endef
	.seh_proc	_ZN8Palmtree4Math4Core8Internal14ResourceHolder16__ChainBufferTagC2Ev
_ZN8Palmtree4Math4Core8Internal14ResourceHolder16__ChainBufferTagC2Ev:
.LFB4940:
	.file 3 "../pmc_resourceholder.h"
	.loc 3 57 13
	.cfi_startproc
	pushq	%rbp
	.seh_pushreg	%rbp
	.cfi_def_cfa_offset 16
	.cfi_offset 6, -16
	movq	%rsp, %rbp
	.seh_setframe	%rbp, 0
	.cfi_def_cfa_register 6
	.seh_endprologue
	movq	%rcx, 16(%rbp)
.LBB25:
	.loc 3 58 13
	leaq	16+_ZTVN8Palmtree4Math4Core8Internal14ResourceHolder16__ChainBufferTagE(%rip), %rdx
	movq	16(%rbp), %rax
	movq	%rdx, (%rax)
	.loc 3 59 23
	movq	16(%rbp), %rax
	movq	16(%rbp), %rdx
	movq	%rdx, 8(%rax)
	.loc 3 60 23
	movq	16(%rbp), %rax
	movq	16(%rbp), %rdx
	movq	%rdx, 16(%rax)
.LBE25:
	.loc 3 61 13
	nop
	popq	%rbp
	.cfi_restore 6
	.cfi_def_cfa 7, 8
	ret
	.cfi_endproc
.LFE4940:
	.seh_endproc
	.section	.text$_ZN8Palmtree4Math4Core8Internal14ResourceHolder16__ChainBufferTagD2Ev,"x"
	.linkonce discard
	.align 2
	.globl	_ZN8Palmtree4Math4Core8Internal14ResourceHolder16__ChainBufferTagD2Ev
	.def	_ZN8Palmtree4Math4Core8Internal14ResourceHolder16__ChainBufferTagD2Ev;	.scl	2;	.type	32;	.endef
	.seh_proc	_ZN8Palmtree4Math4Core8Internal14ResourceHolder16__ChainBufferTagD2Ev
_ZN8Palmtree4Math4Core8Internal14ResourceHolder16__ChainBufferTagD2Ev:
.LFB4943:
	.loc 3 63 21
	.cfi_startproc
	pushq	%rbp
	.seh_pushreg	%rbp
	.cfi_def_cfa_offset 16
	.cfi_offset 6, -16
	movq	%rsp, %rbp
	.seh_setframe	%rbp, 0
	.cfi_def_cfa_register 6
	subq	$32, %rsp
	.seh_stackalloc	32
	.seh_endprologue
	movq	%rcx, 16(%rbp)
.LBB26:
	.loc 3 64 13
	leaq	16+_ZTVN8Palmtree4Math4Core8Internal14ResourceHolder16__ChainBufferTagE(%rip), %rdx
	movq	16(%rbp), %rax
	movq	%rdx, (%rax)
	.loc 3 65 23
	movq	16(%rbp), %rcx
	call	_ZN8Palmtree4Math4Core8Internal14ResourceHolder16__ChainBufferTag6UnlinkEv
.LBE26:
	.loc 3 66 13
	nop
	addq	$32, %rsp
	popq	%rbp
	.cfi_restore 6
	.cfi_def_cfa 7, 8
	ret
	.cfi_endproc
.LFE4943:
	.seh_endproc
	.section	.text$_ZN8Palmtree4Math4Core8Internal14ResourceHolder16__ChainBufferTag4LinkEPS4_,"x"
	.linkonce discard
	.align 2
	.globl	_ZN8Palmtree4Math4Core8Internal14ResourceHolder16__ChainBufferTag4LinkEPS4_
	.def	_ZN8Palmtree4Math4Core8Internal14ResourceHolder16__ChainBufferTag4LinkEPS4_;	.scl	2;	.type	32;	.endef
	.seh_proc	_ZN8Palmtree4Math4Core8Internal14ResourceHolder16__ChainBufferTag4LinkEPS4_
_ZN8Palmtree4Math4Core8Internal14ResourceHolder16__ChainBufferTag4LinkEPS4_:
.LFB4946:
	.loc 3 68 18
	.cfi_startproc
	pushq	%rbp
	.seh_pushreg	%rbp
	.cfi_def_cfa_offset 16
	.cfi_offset 6, -16
	movq	%rsp, %rbp
	.seh_setframe	%rbp, 0
	.cfi_def_cfa_register 6
	.seh_endprologue
	movq	%rcx, 16(%rbp)
	movq	%rdx, 24(%rbp)
	.loc 3 70 30
	movq	16(%rbp), %rax
	movq	8(%rax), %rdx
	.loc 3 70 28
	movq	24(%rbp), %rax
	movq	%rdx, 8(%rax)
	.loc 3 71 28
	movq	24(%rbp), %rax
	movq	16(%rbp), %rdx
	movq	%rdx, 16(%rax)
	.loc 3 72 22
	movq	24(%rbp), %rax
	movq	8(%rax), %rax
	.loc 3 72 35
	movq	24(%rbp), %rdx
	movq	%rdx, 16(%rax)
	.loc 3 73 22
	movq	24(%rbp), %rax
	movq	16(%rax), %rax
	.loc 3 73 35
	movq	24(%rbp), %rdx
	movq	%rdx, 8(%rax)
	.loc 3 74 13
	nop
	popq	%rbp
	.cfi_restore 6
	.cfi_def_cfa 7, 8
	ret
	.cfi_endproc
.LFE4946:
	.seh_endproc
	.section	.text$_ZN8Palmtree4Math4Core8Internal14ResourceHolder16__ChainBufferTag6UnlinkEv,"x"
	.linkonce discard
	.align 2
	.globl	_ZN8Palmtree4Math4Core8Internal14ResourceHolder16__ChainBufferTag6UnlinkEv
	.def	_ZN8Palmtree4Math4Core8Internal14ResourceHolder16__ChainBufferTag6UnlinkEv;	.scl	2;	.type	32;	.endef
	.seh_proc	_ZN8Palmtree4Math4Core8Internal14ResourceHolder16__ChainBufferTag6UnlinkEv
_ZN8Palmtree4Math4Core8Internal14ResourceHolder16__ChainBufferTag6UnlinkEv:
.LFB4947:
	.loc 3 76 18
	.cfi_startproc
	pushq	%rbp
	.seh_pushreg	%rbp
	.cfi_def_cfa_offset 16
	.cfi_offset 6, -16
	movq	%rsp, %rbp
	.seh_setframe	%rbp, 0
	.cfi_def_cfa_register 6
	.seh_endprologue
	movq	%rcx, 16(%rbp)
	.loc 3 78 21
	movq	16(%rbp), %rax
	movq	8(%rax), %rax
	.loc 3 78 17
	cmpq	%rax, 16(%rbp)
	je	.L29
	.loc 3 80 21
	movq	16(%rbp), %rax
	movq	8(%rax), %rax
	.loc 3 80 36
	movq	16(%rbp), %rdx
	movq	16(%rdx), %rdx
	.loc 3 80 34
	movq	%rdx, 16(%rax)
	.loc 3 81 21
	movq	16(%rbp), %rax
	movq	16(%rax), %rax
	.loc 3 81 36
	movq	16(%rbp), %rdx
	movq	8(%rdx), %rdx
	.loc 3 81 34
	movq	%rdx, 8(%rax)
	.loc 3 82 27
	movq	16(%rbp), %rax
	movq	16(%rbp), %rdx
	movq	%rdx, 8(%rax)
	.loc 3 83 27
	movq	16(%rbp), %rax
	movq	16(%rbp), %rdx
	movq	%rdx, 16(%rax)
.L29:
	.loc 3 85 13
	nop
	popq	%rbp
	.cfi_restore 6
	.cfi_def_cfa 7, 8
	ret
	.cfi_endproc
.LFE4947:
	.seh_endproc
	.section	.text$_ZN8Palmtree4Math4Core8Internal14ResourceHolder16__ChainBufferTag4NextEv,"x"
	.linkonce discard
	.align 2
	.globl	_ZN8Palmtree4Math4Core8Internal14ResourceHolder16__ChainBufferTag4NextEv
	.def	_ZN8Palmtree4Math4Core8Internal14ResourceHolder16__ChainBufferTag4NextEv;	.scl	2;	.type	32;	.endef
	.seh_proc	_ZN8Palmtree4Math4Core8Internal14ResourceHolder16__ChainBufferTag4NextEv
_ZN8Palmtree4Math4Core8Internal14ResourceHolder16__ChainBufferTag4NextEv:
.LFB4948:
	.loc 3 87 31
	.cfi_startproc
	pushq	%rbp
	.seh_pushreg	%rbp
	.cfi_def_cfa_offset 16
	.cfi_offset 6, -16
	movq	%rsp, %rbp
	.seh_setframe	%rbp, 0
	.cfi_def_cfa_register 6
	.seh_endprologue
	movq	%rcx, 16(%rbp)
	.loc 3 89 30
	movq	16(%rbp), %rax
	movq	8(%rax), %rax
	.loc 3 90 13
	popq	%rbp
	.cfi_restore 6
	.cfi_def_cfa 7, 8
	ret
	.cfi_endproc
.LFE4948:
	.seh_endproc
	.section	.text$_ZN8Palmtree4Math4Core8Internal14ResourceHolder16__ChainBufferTag5ClearEv,"x"
	.linkonce discard
	.align 2
	.globl	_ZN8Palmtree4Math4Core8Internal14ResourceHolder16__ChainBufferTag5ClearEv
	.def	_ZN8Palmtree4Math4Core8Internal14ResourceHolder16__ChainBufferTag5ClearEv;	.scl	2;	.type	32;	.endef
	.seh_proc	_ZN8Palmtree4Math4Core8Internal14ResourceHolder16__ChainBufferTag5ClearEv
_ZN8Palmtree4Math4Core8Internal14ResourceHolder16__ChainBufferTag5ClearEv:
.LFB4950:
	.loc 3 99 26
	.cfi_startproc
	pushq	%rbp
	.seh_pushreg	%rbp
	.cfi_def_cfa_offset 16
	.cfi_offset 6, -16
	movq	%rsp, %rbp
	.seh_setframe	%rbp, 0
	.cfi_def_cfa_register 6
	.seh_endprologue
	movq	%rcx, 16(%rbp)
	.loc 3 101 13
	nop
	popq	%rbp
	.cfi_restore 6
	.cfi_def_cfa 7, 8
	ret
	.cfi_endproc
.LFE4950:
	.seh_endproc
	.section	.text$_ZN8Palmtree4Math4Core8Internal14ResourceHolder16__ChainBufferTag5CheckEv,"x"
	.linkonce discard
	.align 2
	.globl	_ZN8Palmtree4Math4Core8Internal14ResourceHolder16__ChainBufferTag5CheckEv
	.def	_ZN8Palmtree4Math4Core8Internal14ResourceHolder16__ChainBufferTag5CheckEv;	.scl	2;	.type	32;	.endef
	.seh_proc	_ZN8Palmtree4Math4Core8Internal14ResourceHolder16__ChainBufferTag5CheckEv
_ZN8Palmtree4Math4Core8Internal14ResourceHolder16__ChainBufferTag5CheckEv:
.LFB4951:
	.loc 3 103 26
	.cfi_startproc
	pushq	%rbp
	.seh_pushreg	%rbp
	.cfi_def_cfa_offset 16
	.cfi_offset 6, -16
	movq	%rsp, %rbp
	.seh_setframe	%rbp, 0
	.cfi_def_cfa_register 6
	.seh_endprologue
	movq	%rcx, 16(%rbp)
	.loc 3 105 13
	nop
	popq	%rbp
	.cfi_restore 6
	.cfi_def_cfa 7, 8
	ret
	.cfi_endproc
.LFE4951:
	.seh_endproc
	.section	.text$_ZN8Palmtree4Math4Core8Internal14ResourceHolder9__RootTagC1Ev,"x"
	.linkonce discard
	.align 2
	.globl	_ZN8Palmtree4Math4Core8Internal14ResourceHolder9__RootTagC1Ev
	.def	_ZN8Palmtree4Math4Core8Internal14ResourceHolder9__RootTagC1Ev;	.scl	2;	.type	32;	.endef
	.seh_proc	_ZN8Palmtree4Math4Core8Internal14ResourceHolder9__RootTagC1Ev
_ZN8Palmtree4Math4Core8Internal14ResourceHolder9__RootTagC1Ev:
.LFB4954:
	.loc 3 114 13
	.cfi_startproc
	pushq	%rbp
	.seh_pushreg	%rbp
	.cfi_def_cfa_offset 16
	.cfi_offset 6, -16
	movq	%rsp, %rbp
	.seh_setframe	%rbp, 0
	.cfi_def_cfa_register 6
	subq	$32, %rsp
	.seh_stackalloc	32
	.seh_endprologue
	movq	%rcx, 16(%rbp)
.LBB27:
	.loc 3 115 13
	movq	16(%rbp), %rax
	movq	%rax, %rcx
	call	_ZN8Palmtree4Math4Core8Internal14ResourceHolder16__ChainBufferTagC2Ev
	leaq	16+_ZTVN8Palmtree4Math4Core8Internal14ResourceHolder9__RootTagE(%rip), %rdx
	movq	16(%rbp), %rax
	movq	%rdx, (%rax)
.LBE27:
	.loc 3 116 13
	nop
	addq	$32, %rsp
	popq	%rbp
	.cfi_restore 6
	.cfi_def_cfa 7, 8
	ret
	.cfi_endproc
.LFE4954:
	.seh_endproc
	.section	.text$_ZN8Palmtree4Math4Core8Internal14ResourceHolder9__RootTagD1Ev,"x"
	.linkonce discard
	.align 2
	.globl	_ZN8Palmtree4Math4Core8Internal14ResourceHolder9__RootTagD1Ev
	.def	_ZN8Palmtree4Math4Core8Internal14ResourceHolder9__RootTagD1Ev;	.scl	2;	.type	32;	.endef
	.seh_proc	_ZN8Palmtree4Math4Core8Internal14ResourceHolder9__RootTagD1Ev
_ZN8Palmtree4Math4Core8Internal14ResourceHolder9__RootTagD1Ev:
.LFB4957:
	.loc 3 118 21
	.cfi_startproc
	pushq	%rbp
	.seh_pushreg	%rbp
	.cfi_def_cfa_offset 16
	.cfi_offset 6, -16
	movq	%rsp, %rbp
	.seh_setframe	%rbp, 0
	.cfi_def_cfa_register 6
	subq	$32, %rsp
	.seh_stackalloc	32
	.seh_endprologue
	movq	%rcx, 16(%rbp)
.LBB28:
	.loc 3 119 13
	leaq	16+_ZTVN8Palmtree4Math4Core8Internal14ResourceHolder9__RootTagE(%rip), %rdx
	movq	16(%rbp), %rax
	movq	%rdx, (%rax)
	movq	16(%rbp), %rax
	movq	%rax, %rcx
	call	_ZN8Palmtree4Math4Core8Internal14ResourceHolder16__ChainBufferTagD2Ev
.LBE28:
	.loc 3 120 13
	nop
	addq	$32, %rsp
	popq	%rbp
	.cfi_restore 6
	.cfi_def_cfa 7, 8
	ret
	.cfi_endproc
.LFE4957:
	.seh_endproc
	.section	.text$_ZN8Palmtree4Math4Core8Internal14ResourceHolder9__RootTagD0Ev,"x"
	.linkonce discard
	.align 2
	.globl	_ZN8Palmtree4Math4Core8Internal14ResourceHolder9__RootTagD0Ev
	.def	_ZN8Palmtree4Math4Core8Internal14ResourceHolder9__RootTagD0Ev;	.scl	2;	.type	32;	.endef
	.seh_proc	_ZN8Palmtree4Math4Core8Internal14ResourceHolder9__RootTagD0Ev
_ZN8Palmtree4Math4Core8Internal14ResourceHolder9__RootTagD0Ev:
.LFB4958:
	.loc 3 118 21
	.cfi_startproc
	pushq	%rbp
	.seh_pushreg	%rbp
	.cfi_def_cfa_offset 16
	.cfi_offset 6, -16
	movq	%rsp, %rbp
	.seh_setframe	%rbp, 0
	.cfi_def_cfa_register 6
	subq	$32, %rsp
	.seh_stackalloc	32
	.seh_endprologue
	movq	%rcx, 16(%rbp)
	.loc 3 120 13
	movq	16(%rbp), %rcx
	call	_ZN8Palmtree4Math4Core8Internal14ResourceHolder9__RootTagD1Ev
	movl	$24, %edx
	movq	16(%rbp), %rcx
	call	_ZdlPvy
	nop
	addq	$32, %rsp
	popq	%rbp
	.cfi_restore 6
	.cfi_def_cfa 7, 8
	ret
	.cfi_endproc
.LFE4958:
	.seh_endproc
	.section .rdata,"dr"
	.align 8
.LC0:
	.ascii "p\0m\0c\0_\0r\0e\0s\0o\0u\0r\0c\0e\0h\0o\0l\0d\0e\0r\0.\0h\0;\0R\0e\0s\0o\0u\0r\0c\0e\0H\0o\0l\0d\0e\0r\0:\0:\0_\0_\0R\0o\0o\0t\0T\0a\0g\0:\0:\0E\0q\0u\0a\0l\0s\0B\0u\0f\0f\0e\0r\0A\0d\0d\0r\0e\0s\0s\0;\0"
	.ascii "1\0\0\0"
	.align 8
.LC1:
	.ascii "\210N\37gW0f0D0j0D0\263"
	.ascii "0\374"
	.ascii "0\311"
	.ascii "0k00RT\220W0~0W0_0\2"
	.ascii "0\0\0"
	.section	.text$_ZN8Palmtree4Math4Core8Internal14ResourceHolder9__RootTag19EqualsBufferAddressEPv,"x"
	.linkonce discard
	.align 2
	.globl	_ZN8Palmtree4Math4Core8Internal14ResourceHolder9__RootTag19EqualsBufferAddressEPv
	.def	_ZN8Palmtree4Math4Core8Internal14ResourceHolder9__RootTag19EqualsBufferAddressEPv;	.scl	2;	.type	32;	.endef
	.seh_proc	_ZN8Palmtree4Math4Core8Internal14ResourceHolder9__RootTag19EqualsBufferAddressEPv
_ZN8Palmtree4Math4Core8Internal14ResourceHolder9__RootTag19EqualsBufferAddressEPv:
.LFB4959:
	.loc 3 122 26
	.cfi_startproc
	pushq	%rbp
	.seh_pushreg	%rbp
	.cfi_def_cfa_offset 16
	.cfi_offset 6, -16
	pushq	%rbx
	.seh_pushreg	%rbx
	.cfi_def_cfa_offset 24
	.cfi_offset 3, -24
	subq	$40, %rsp
	.seh_stackalloc	40
	.cfi_def_cfa_offset 64
	leaq	128(%rsp), %rbp
	.seh_setframe	%rbp, 128
	.cfi_def_cfa 6, -64
	.seh_endprologue
	movq	%rcx, -64(%rbp)
	movq	%rdx, -56(%rbp)
	.loc 3 124 177
	movl	$32, %ecx
	call	__cxa_allocate_exception
	movq	%rax, %rbx
	leaq	.LC0(%rip), %r8
	leaq	.LC1(%rip), %rdx
	movq	%rbx, %rcx
	call	_ZN8Palmtree4Math4Core8Internal22InternalErrorExceptionC1EPKwS5_
	leaq	_ZN8Palmtree4Math4Core8Internal22InternalErrorExceptionD1Ev(%rip), %rax
	movq	%rax, %r8
	leaq	_ZTIN8Palmtree4Math4Core8Internal22InternalErrorExceptionE(%rip), %rdx
	movq	%rbx, %rcx
	call	__cxa_throw
	nop
	.cfi_endproc
.LFE4959:
	.seh_endproc
	.section	.text$_ZN8Palmtree4Math4Core8Internal14ResourceHolder9__RootTag8DestructEv,"x"
	.linkonce discard
	.align 2
	.globl	_ZN8Palmtree4Math4Core8Internal14ResourceHolder9__RootTag8DestructEv
	.def	_ZN8Palmtree4Math4Core8Internal14ResourceHolder9__RootTag8DestructEv;	.scl	2;	.type	32;	.endef
	.seh_proc	_ZN8Palmtree4Math4Core8Internal14ResourceHolder9__RootTag8DestructEv
_ZN8Palmtree4Math4Core8Internal14ResourceHolder9__RootTag8DestructEv:
.LFB4960:
	.loc 3 127 26
	.cfi_startproc
	pushq	%rbp
	.seh_pushreg	%rbp
	.cfi_def_cfa_offset 16
	.cfi_offset 6, -16
	movq	%rsp, %rbp
	.seh_setframe	%rbp, 0
	.cfi_def_cfa_register 6
	.seh_endprologue
	movq	%rcx, 16(%rbp)
	.loc 3 129 13
	nop
	popq	%rbp
	.cfi_restore 6
	.cfi_def_cfa 7, 8
	ret
	.cfi_endproc
.LFE4960:
	.seh_endproc
	.section	.text$_ZN8Palmtree4Math4Core8Internal14ResourceHolderC2Ev,"x"
	.linkonce discard
	.align 2
	.globl	_ZN8Palmtree4Math4Core8Internal14ResourceHolderC2Ev
	.def	_ZN8Palmtree4Math4Core8Internal14ResourceHolderC2Ev;	.scl	2;	.type	32;	.endef
	.seh_proc	_ZN8Palmtree4Math4Core8Internal14ResourceHolderC2Ev
_ZN8Palmtree4Math4Core8Internal14ResourceHolderC2Ev:
.LFB4962:
	.loc 3 136 9
	.cfi_startproc
	pushq	%rbp
	.seh_pushreg	%rbp
	.cfi_def_cfa_offset 16
	.cfi_offset 6, -16
	movq	%rsp, %rbp
	.seh_setframe	%rbp, 0
	.cfi_def_cfa_register 6
	subq	$32, %rsp
	.seh_stackalloc	32
	.seh_endprologue
	movq	%rcx, 16(%rbp)
.LBB29:
	.loc 3 137 9
	leaq	16+_ZTVN8Palmtree4Math4Core8Internal14ResourceHolderE(%rip), %rdx
	movq	16(%rbp), %rax
	movq	%rdx, (%rax)
	movq	16(%rbp), %rax
	addq	$8, %rax
	movq	%rax, %rcx
	call	_ZN8Palmtree4Math4Core8Internal14ResourceHolder9__RootTagC1Ev
.LBE29:
	.loc 3 138 9
	nop
	addq	$32, %rsp
	popq	%rbp
	.cfi_restore 6
	.cfi_def_cfa 7, 8
	ret
	.cfi_endproc
.LFE4962:
	.seh_endproc
	.section	.text$_ZN8Palmtree4Math4Core8Internal14ResourceHolderD2Ev,"x"
	.linkonce discard
	.align 2
	.globl	_ZN8Palmtree4Math4Core8Internal14ResourceHolderD2Ev
	.def	_ZN8Palmtree4Math4Core8Internal14ResourceHolderD2Ev;	.scl	2;	.type	32;	.endef
	.seh_proc	_ZN8Palmtree4Math4Core8Internal14ResourceHolderD2Ev
_ZN8Palmtree4Math4Core8Internal14ResourceHolderD2Ev:
.LFB4965:
	.loc 3 141 17
	.cfi_startproc
	pushq	%rbp
	.seh_pushreg	%rbp
	.cfi_def_cfa_offset 16
	.cfi_offset 6, -16
	movq	%rsp, %rbp
	.seh_setframe	%rbp, 0
	.cfi_def_cfa_register 6
	subq	$48, %rsp
	.seh_stackalloc	48
	.seh_endprologue
	movq	%rcx, 16(%rbp)
.LBB30:
	.loc 3 142 9
	leaq	16+_ZTVN8Palmtree4Math4Core8Internal14ResourceHolderE(%rip), %rdx
	movq	16(%rbp), %rax
	movq	%rdx, (%rax)
.LBB31:
	.loc 3 143 18
	leaq	-9(%rbp), %rax
	movq	%rax, %rcx
	call	_ZN8Palmtree4Math4Core8Internal4LockC1Ev
.L43:
	.loc 3 144 34
	movq	16(%rbp), %rax
	addq	$8, %rax
	movq	%rax, %rcx
	call	_ZN8Palmtree4Math4Core8Internal14ResourceHolder16__ChainBufferTag4NextEv
	movq	%rax, %rdx
	.loc 3 144 37
	movq	16(%rbp), %rax
	addq	$8, %rax
	cmpq	%rax, %rdx
	setne	%al
	testb	%al, %al
	je	.L41
.LBB32:
	.loc 3 146 55
	movq	16(%rbp), %rax
	addq	$8, %rax
	movq	%rax, %rcx
	call	_ZN8Palmtree4Math4Core8Internal14ResourceHolder16__ChainBufferTag4NextEv
	movq	%rax, -8(%rbp)
	.loc 3 147 28
	movq	-8(%rbp), %rax
	movq	%rax, %rcx
	call	_ZN8Palmtree4Math4Core8Internal14ResourceHolder16__ChainBufferTag6UnlinkEv
	.loc 3 148 31
	movq	-8(%rbp), %rax
	movq	(%rax), %rax
	addq	$40, %rax
	movq	(%rax), %rax
	.loc 3 148 30
	movq	-8(%rbp), %rdx
	movq	%rdx, %rcx
	call	*%rax
.LVL0:
	.loc 3 149 27
	cmpq	$0, -8(%rbp)
	je	.L43
	.loc 3 149 24 discriminator 1
	movq	-8(%rbp), %rax
	movq	(%rax), %rax
	addq	$8, %rax
	movq	(%rax), %rax
	movq	-8(%rbp), %rdx
	movq	%rdx, %rcx
	call	*%rax
.LVL1:
.LBE32:
	.loc 3 144 13 discriminator 1
	jmp	.L43
.L41:
	.loc 3 143 18
	leaq	-9(%rbp), %rax
	movq	%rax, %rcx
	call	_ZN8Palmtree4Math4Core8Internal4LockD1Ev
.LBE31:
	.loc 3 142 9
	movq	16(%rbp), %rax
	addq	$8, %rax
	movq	%rax, %rcx
	call	_ZN8Palmtree4Math4Core8Internal14ResourceHolder9__RootTagD1Ev
.LBE30:
	.loc 3 151 9
	nop
	addq	$48, %rsp
	popq	%rbp
	.cfi_restore 6
	.cfi_def_cfa 7, 8
	ret
	.cfi_endproc
.LFE4965:
	.def	__gxx_personality_seh0;	.scl	2;	.type	32;	.endef
	.seh_handler	__gxx_personality_seh0, @unwind, @except
	.seh_handlerdata
.LLSDA4965:
	.byte	0xff
	.byte	0xff
	.byte	0x1
	.uleb128 .LLSDACSE4965-.LLSDACSB4965
.LLSDACSB4965:
.LLSDACSE4965:
	.section	.text$_ZN8Palmtree4Math4Core8Internal14ResourceHolderD2Ev,"x"
	.linkonce discard
	.seh_endproc
	.section	.text$_ZN8Palmtree4Math4Core8Internal14ResourceHolderD1Ev,"x"
	.linkonce discard
	.align 2
	.globl	_ZN8Palmtree4Math4Core8Internal14ResourceHolderD1Ev
	.def	_ZN8Palmtree4Math4Core8Internal14ResourceHolderD1Ev;	.scl	2;	.type	32;	.endef
	.seh_proc	_ZN8Palmtree4Math4Core8Internal14ResourceHolderD1Ev
_ZN8Palmtree4Math4Core8Internal14ResourceHolderD1Ev:
.LFB4966:
	.loc 3 141 17
	.cfi_startproc
	pushq	%rbp
	.seh_pushreg	%rbp
	.cfi_def_cfa_offset 16
	.cfi_offset 6, -16
	movq	%rsp, %rbp
	.seh_setframe	%rbp, 0
	.cfi_def_cfa_register 6
	subq	$48, %rsp
	.seh_stackalloc	48
	.seh_endprologue
	movq	%rcx, 16(%rbp)
.LBB33:
	.loc 3 142 9
	leaq	16+_ZTVN8Palmtree4Math4Core8Internal14ResourceHolderE(%rip), %rdx
	movq	16(%rbp), %rax
	movq	%rdx, (%rax)
.LBB34:
	.loc 3 143 18
	leaq	-9(%rbp), %rax
	movq	%rax, %rcx
	call	_ZN8Palmtree4Math4Core8Internal4LockC1Ev
.L47:
	.loc 3 144 34
	movq	16(%rbp), %rax
	addq	$8, %rax
	movq	%rax, %rcx
	call	_ZN8Palmtree4Math4Core8Internal14ResourceHolder16__ChainBufferTag4NextEv
	movq	%rax, %rdx
	.loc 3 144 37
	movq	16(%rbp), %rax
	addq	$8, %rax
	cmpq	%rax, %rdx
	setne	%al
	testb	%al, %al
	je	.L45
.LBB35:
	.loc 3 146 55
	movq	16(%rbp), %rax
	addq	$8, %rax
	movq	%rax, %rcx
	call	_ZN8Palmtree4Math4Core8Internal14ResourceHolder16__ChainBufferTag4NextEv
	movq	%rax, -8(%rbp)
	.loc 3 147 28
	movq	-8(%rbp), %rax
	movq	%rax, %rcx
	call	_ZN8Palmtree4Math4Core8Internal14ResourceHolder16__ChainBufferTag6UnlinkEv
	.loc 3 148 31
	movq	-8(%rbp), %rax
	movq	(%rax), %rax
	addq	$40, %rax
	movq	(%rax), %rax
	.loc 3 148 30
	movq	-8(%rbp), %rdx
	movq	%rdx, %rcx
	call	*%rax
.LVL2:
	.loc 3 149 27
	cmpq	$0, -8(%rbp)
	je	.L47
	.loc 3 149 24 discriminator 1
	movq	-8(%rbp), %rax
	movq	(%rax), %rax
	addq	$8, %rax
	movq	(%rax), %rax
	movq	-8(%rbp), %rdx
	movq	%rdx, %rcx
	call	*%rax
.LVL3:
.LBE35:
	.loc 3 144 13 discriminator 1
	jmp	.L47
.L45:
	.loc 3 143 18
	leaq	-9(%rbp), %rax
	movq	%rax, %rcx
	call	_ZN8Palmtree4Math4Core8Internal4LockD1Ev
.LBE34:
	.loc 3 142 9
	movq	16(%rbp), %rax
	addq	$8, %rax
	movq	%rax, %rcx
	call	_ZN8Palmtree4Math4Core8Internal14ResourceHolder9__RootTagD1Ev
.LBE33:
	.loc 3 151 9
	nop
	addq	$48, %rsp
	popq	%rbp
	.cfi_restore 6
	.cfi_def_cfa 7, 8
	ret
	.cfi_endproc
.LFE4966:
	.seh_handler	__gxx_personality_seh0, @unwind, @except
	.seh_handlerdata
.LLSDA4966:
	.byte	0xff
	.byte	0xff
	.byte	0x1
	.uleb128 .LLSDACSE4966-.LLSDACSB4966
.LLSDACSB4966:
.LLSDACSE4966:
	.section	.text$_ZN8Palmtree4Math4Core8Internal14ResourceHolderD1Ev,"x"
	.linkonce discard
	.seh_endproc
	.section	.text$_ZN8Palmtree4Math4Core8Internal14ResourceHolderD0Ev,"x"
	.linkonce discard
	.align 2
	.globl	_ZN8Palmtree4Math4Core8Internal14ResourceHolderD0Ev
	.def	_ZN8Palmtree4Math4Core8Internal14ResourceHolderD0Ev;	.scl	2;	.type	32;	.endef
	.seh_proc	_ZN8Palmtree4Math4Core8Internal14ResourceHolderD0Ev
_ZN8Palmtree4Math4Core8Internal14ResourceHolderD0Ev:
.LFB4967:
	.loc 3 141 17
	.cfi_startproc
	pushq	%rbp
	.seh_pushreg	%rbp
	.cfi_def_cfa_offset 16
	.cfi_offset 6, -16
	movq	%rsp, %rbp
	.seh_setframe	%rbp, 0
	.cfi_def_cfa_register 6
	subq	$32, %rsp
	.seh_stackalloc	32
	.seh_endprologue
	movq	%rcx, 16(%rbp)
	.loc 3 151 9
	movq	16(%rbp), %rcx
	call	_ZN8Palmtree4Math4Core8Internal14ResourceHolderD1Ev
	movl	$32, %edx
	movq	16(%rbp), %rcx
	call	_ZdlPvy
	nop
	addq	$32, %rsp
	popq	%rbp
	.cfi_restore 6
	.cfi_def_cfa 7, 8
	ret
	.cfi_endproc
.LFE4967:
	.seh_endproc
	.section	.text$_ZN8Palmtree4Math4Core8Internal14ResourceHolder7LinkTagEPNS3_16__ChainBufferTagE,"x"
	.linkonce discard
	.align 2
	.globl	_ZN8Palmtree4Math4Core8Internal14ResourceHolder7LinkTagEPNS3_16__ChainBufferTagE
	.def	_ZN8Palmtree4Math4Core8Internal14ResourceHolder7LinkTagEPNS3_16__ChainBufferTagE;	.scl	2;	.type	32;	.endef
	.seh_proc	_ZN8Palmtree4Math4Core8Internal14ResourceHolder7LinkTagEPNS3_16__ChainBufferTagE
_ZN8Palmtree4Math4Core8Internal14ResourceHolder7LinkTagEPNS3_16__ChainBufferTagE:
.LFB4968:
	.loc 3 154 14
	.cfi_startproc
	pushq	%rbp
	.seh_pushreg	%rbp
	.cfi_def_cfa_offset 16
	.cfi_offset 6, -16
	movq	%rsp, %rbp
	.seh_setframe	%rbp, 0
	.cfi_def_cfa_register 6
	subq	$32, %rsp
	.seh_stackalloc	32
	.seh_endprologue
	movq	%rcx, 16(%rbp)
	movq	%rdx, 24(%rbp)
	.loc 3 156 27
	movq	16(%rbp), %rax
	addq	$8, %rax
	movq	24(%rbp), %rdx
	movq	%rax, %rcx
	call	_ZN8Palmtree4Math4Core8Internal14ResourceHolder16__ChainBufferTag4LinkEPS4_
	.loc 3 157 9
	nop
	addq	$32, %rsp
	popq	%rbp
	.cfi_restore 6
	.cfi_def_cfa 7, 8
	ret
	.cfi_endproc
.LFE4968:
	.seh_endproc
	.section	.text$_ZN8Palmtree4Math4Core8Internal14ResourceHolder7FindTagEPv,"x"
	.linkonce discard
	.align 2
	.globl	_ZN8Palmtree4Math4Core8Internal14ResourceHolder7FindTagEPv
	.def	_ZN8Palmtree4Math4Core8Internal14ResourceHolder7FindTagEPv;	.scl	2;	.type	32;	.endef
	.seh_proc	_ZN8Palmtree4Math4Core8Internal14ResourceHolder7FindTagEPv
_ZN8Palmtree4Math4Core8Internal14ResourceHolder7FindTagEPv:
.LFB4969:
	.loc 3 159 27
	.cfi_startproc
	pushq	%rbp
	.seh_pushreg	%rbp
	.cfi_def_cfa_offset 16
	.cfi_offset 6, -16
	movq	%rsp, %rbp
	.seh_setframe	%rbp, 0
	.cfi_def_cfa_register 6
	subq	$48, %rsp
	.seh_stackalloc	48
	.seh_endprologue
	movq	%rcx, 16(%rbp)
	movq	%rdx, 24(%rbp)
.LBB36:
	.loc 3 161 56
	movq	16(%rbp), %rax
	addq	$8, %rax
	movq	%rax, %rcx
	call	_ZN8Palmtree4Math4Core8Internal14ResourceHolder16__ChainBufferTag4NextEv
	.loc 3 161 57
	movq	%rax, -8(%rbp)
.L54:
	.loc 3 161 64 discriminator 1
	movq	16(%rbp), %rax
	leaq	8(%rax), %rdx
	movq	-8(%rbp), %rax
	cmpq	%rax, %rdx
	je	.L51
	.loc 3 163 45
	movq	-8(%rbp), %rcx
	.loc 3 163 52
	movq	-8(%rbp), %rax
	movq	(%rax), %rax
	addq	$16, %rax
	movq	(%rax), %rax
	.loc 3 163 45
	movq	24(%rbp), %rdx
	call	*%rax
.LVL4:
	.loc 3 163 53
	testl	%eax, %eax
	setne	%al
	.loc 3 163 17
	testb	%al, %al
	je	.L52
	.loc 3 164 32
	movq	-8(%rbp), %rax
	jmp	.L53
.L52:
	.loc 3 161 94 discriminator 2
	movq	-8(%rbp), %rax
	movq	%rax, %rcx
	call	_ZN8Palmtree4Math4Core8Internal14ResourceHolder16__ChainBufferTag4NextEv
	.loc 3 161 83 discriminator 2
	movq	%rax, -8(%rbp)
	.loc 3 161 13 discriminator 2
	jmp	.L54
.L51:
.LBE36:
	.loc 3 166 28
	movl	$0, %eax
.L53:
	.loc 3 167 9
	addq	$48, %rsp
	popq	%rbp
	.cfi_restore 6
	.cfi_def_cfa 7, 8
	ret
	.cfi_endproc
.LFE4969:
	.seh_endproc
	.text
	.def	_COPY_MEMORY_UNIT;	.scl	3;	.type	32;	.endef
	.seh_proc	_COPY_MEMORY_UNIT
_COPY_MEMORY_UNIT:
.LFB5007:
	.file 4 "../pmc_inline_func.h"
	.loc 4 63 9
	.cfi_startproc
	pushq	%rbp
	.seh_pushreg	%rbp
	.cfi_def_cfa_offset 16
	.cfi_offset 6, -16
	pushq	%rdi
	.seh_pushreg	%rdi
	.cfi_def_cfa_offset 24
	.cfi_offset 5, -24
	pushq	%rsi
	.seh_pushreg	%rsi
	.cfi_def_cfa_offset 32
	.cfi_offset 4, -32
	movq	%rsp, %rbp
	.seh_setframe	%rbp, 0
	.cfi_def_cfa_register 6
	subq	$32, %rsp
	.seh_stackalloc	32
	.seh_endprologue
	movq	%rcx, 32(%rbp)
	movq	%rdx, 40(%rbp)
	movq	%r8, 48(%rbp)
	movq	32(%rbp), %rax
	movq	%rax, -8(%rbp)
	movq	40(%rbp), %rax
	movq	%rax, -16(%rbp)
	movq	48(%rbp), %rax
	movq	%rax, -24(%rbp)
.LBB37:
.LBB38:
	.file 5 "C:/GNU/MINGW64/x86_64-8.1.0-win32-seh-rt_v6-rev0/mingw64/x86_64-w64-mingw32/include/psdk_inc/intrin-impl.h"
	.loc 5 952 243
	movq	-8(%rbp), %rcx
	movq	-16(%rbp), %rdx
	movq	-24(%rbp), %rax
	movq	%rcx, %r8
	movq	%r8, %rdi
	movq	%rdx, %rsi
	movq	%rax, %rcx
/APP
 # 952 "C:/GNU/MINGW64/x86_64-8.1.0-win32-seh-rt_v6-rev0/mingw64/x86_64-w64-mingw32/include/psdk_inc/intrin-impl.h" 1
	rep movsq
 # 0 "" 2
/NO_APP
	movq	%rcx, %rax
	movq	%rsi, %rdx
	movq	%rdi, %r8
	movq	%r8, -8(%rbp)
	movq	%rdx, -16(%rbp)
	movq	%rax, -24(%rbp)
.LBE38:
.LBE37:
	.loc 4 71 9
	nop
	addq	$32, %rsp
	popq	%rsi
	.cfi_restore 4
	popq	%rdi
	.cfi_restore 5
	popq	%rbp
	.cfi_restore 6
	.cfi_def_cfa 7, 24
	ret
	.cfi_endproc
.LFE5007:
	.seh_endproc
	.def	_ZERO_MEMORY_UNIT;	.scl	3;	.type	32;	.endef
	.seh_proc	_ZERO_MEMORY_UNIT
_ZERO_MEMORY_UNIT:
.LFB5012:
	.loc 4 96 9
	.cfi_startproc
	pushq	%rbp
	.seh_pushreg	%rbp
	.cfi_def_cfa_offset 16
	.cfi_offset 6, -16
	pushq	%rdi
	.seh_pushreg	%rdi
	.cfi_def_cfa_offset 24
	.cfi_offset 5, -24
	subq	$40, %rsp
	.seh_stackalloc	40
	.cfi_def_cfa_offset 64
	leaq	128(%rsp), %rbp
	.seh_setframe	%rbp, 128
	.cfi_def_cfa 6, -64
	.seh_endprologue
	movq	%rcx, -64(%rbp)
	movq	%rdx, -56(%rbp)
	movq	-64(%rbp), %rax
	movq	%rax, -104(%rbp)
	movq	$0, -112(%rbp)
	movq	-56(%rbp), %rax
	movq	%rax, -120(%rbp)
.LBB39:
.LBB40:
	.loc 5 611 184
	movq	-112(%rbp), %rax
	movq	-104(%rbp), %rcx
	movq	-120(%rbp), %rdx
	movq	%rcx, %r8
	movq	%r8, %rdi
	movq	%rdx, %rcx
/APP
 # 611 "C:/GNU/MINGW64/x86_64-8.1.0-win32-seh-rt_v6-rev0/mingw64/x86_64-w64-mingw32/include/psdk_inc/intrin-impl.h" 1
	rep stosq
 # 0 "" 2
/NO_APP
	movq	%rcx, %rdx
	movq	%rdi, %r8
	movq	%r8, -104(%rbp)
	movq	%rdx, -120(%rbp)
.LBE40:
.LBE39:
	.loc 4 104 9
	nop
	addq	$40, %rsp
	popq	%rdi
	.cfi_restore 5
	popq	%rbp
	.cfi_restore 6
	.cfi_def_cfa 7, -24
	ret
	.cfi_endproc
.LFE5012:
	.seh_endproc
	.def	_FILL_MEMORY_UNIT;	.scl	3;	.type	32;	.endef
	.seh_proc	_FILL_MEMORY_UNIT
_FILL_MEMORY_UNIT:
.LFB5017:
	.loc 4 129 9
	.cfi_startproc
	pushq	%rbp
	.seh_pushreg	%rbp
	.cfi_def_cfa_offset 16
	.cfi_offset 6, -16
	pushq	%rdi
	.seh_pushreg	%rdi
	.cfi_def_cfa_offset 24
	.cfi_offset 5, -24
	subq	$40, %rsp
	.seh_stackalloc	40
	.cfi_def_cfa_offset 64
	leaq	128(%rsp), %rbp
	.seh_setframe	%rbp, 128
	.cfi_def_cfa 6, -64
	.seh_endprologue
	movq	%rcx, -64(%rbp)
	movq	%rdx, -56(%rbp)
	movq	%r8, -48(%rbp)
	movq	-64(%rbp), %rax
	movq	%rax, -104(%rbp)
	movq	-56(%rbp), %rax
	movq	%rax, -112(%rbp)
	movq	-48(%rbp), %rax
	movq	%rax, -120(%rbp)
.LBB41:
.LBB42:
	.loc 5 611 184
	movq	-112(%rbp), %rax
	movq	-104(%rbp), %rcx
	movq	-120(%rbp), %rdx
	movq	%rcx, %r8
	movq	%r8, %rdi
	movq	%rdx, %rcx
/APP
 # 611 "C:/GNU/MINGW64/x86_64-8.1.0-win32-seh-rt_v6-rev0/mingw64/x86_64-w64-mingw32/include/psdk_inc/intrin-impl.h" 1
	rep stosq
 # 0 "" 2
/NO_APP
	movq	%rcx, %rdx
	movq	%rdi, %r8
	movq	%r8, -104(%rbp)
	movq	%rdx, -120(%rbp)
.LBE42:
.LBE41:
	.loc 4 137 9
	nop
	addq	$40, %rsp
	popq	%rdi
	.cfi_restore 5
	popq	%rbp
	.cfi_restore 6
	.cfi_def_cfa 7, -24
	ret
	.cfi_endproc
.LFE5017:
	.seh_endproc
	.def	_FROMWORDTODWORD;	.scl	3;	.type	32;	.endef
	.seh_proc	_FROMWORDTODWORD
_FROMWORDTODWORD:
.LFB5018:
	.loc 4 140 9
	.cfi_startproc
	pushq	%rbp
	.seh_pushreg	%rbp
	.cfi_def_cfa_offset 16
	.cfi_offset 6, -16
	movq	%rsp, %rbp
	.seh_setframe	%rbp, 0
	.cfi_def_cfa_register 6
	.seh_endprologue
	movl	%ecx, 16(%rbp)
	movl	%edx, 24(%rbp)
	.loc 4 141 22
	movl	16(%rbp), %eax
	.loc 4 141 44
	salq	$32, %rax
	movq	%rax, %rdx
	.loc 4 141 51
	movl	24(%rbp), %eax
	.loc 4 141 62
	orq	%rdx, %rax
	.loc 4 142 9
	popq	%rbp
	.cfi_restore 6
	.cfi_def_cfa 7, 8
	ret
	.cfi_endproc
.LFE5018:
	.seh_endproc
	.def	_DIVIDE_CEILING_UNIT;	.scl	3;	.type	32;	.endef
	.seh_proc	_DIVIDE_CEILING_UNIT
_DIVIDE_CEILING_UNIT:
.LFB5021:
	.loc 4 156 9
	.cfi_startproc
	pushq	%rbp
	.seh_pushreg	%rbp
	.cfi_def_cfa_offset 16
	.cfi_offset 6, -16
	movq	%rsp, %rbp
	.seh_setframe	%rbp, 0
	.cfi_def_cfa_register 6
	.seh_endprologue
	movq	%rcx, 16(%rbp)
	movq	%rdx, 24(%rbp)
	.loc 4 157 24
	movq	16(%rbp), %rdx
	movq	24(%rbp), %rax
	addq	%rdx, %rax
	.loc 4 157 28
	subq	$1, %rax
	.loc 4 157 36
	movl	$0, %edx
	divq	24(%rbp)
	.loc 4 158 9
	popq	%rbp
	.cfi_restore 6
	.cfi_def_cfa 7, 8
	ret
	.cfi_endproc
.LFE5021:
	.seh_endproc
	.def	_ROTATE_L_UNIT;	.scl	3;	.type	32;	.endef
	.seh_proc	_ROTATE_L_UNIT
_ROTATE_L_UNIT:
.LFB5033:
	.loc 4 329 9
	.cfi_startproc
	pushq	%rbp
	.seh_pushreg	%rbp
	.cfi_def_cfa_offset 16
	.cfi_offset 6, -16
	movq	%rsp, %rbp
	.seh_setframe	%rbp, 0
	.cfi_def_cfa_register 6
	subq	$16, %rsp
	.seh_stackalloc	16
	.seh_endprologue
	movq	%rcx, 16(%rbp)
	movl	%edx, 24(%rbp)
	movq	16(%rbp), %rax
	movq	%rax, -8(%rbp)
	movl	24(%rbp), %eax
	movl	%eax, -12(%rbp)
.LBB43:
.LBB44:
	.file 6 "C:/GNU/MINGW64/x86_64-8.1.0-win32-seh-rt_v6-rev0/mingw64/lib/gcc/x86_64-w64-mingw32/8.1.0/include/ia32intrin.h"
	.loc 6 244 7
	andl	$63, -12(%rbp)
	.loc 6 245 44
	movl	-12(%rbp), %eax
	movq	-8(%rbp), %rdx
	movl	%eax, %ecx
	rolq	%cl, %rdx
	movq	%rdx, %rax
.LBE44:
.LBE43:
	.loc 4 333 37
	nop
	.loc 4 337 9
	addq	$16, %rsp
	popq	%rbp
	.cfi_restore 6
	.cfi_def_cfa 7, 8
	ret
	.cfi_endproc
.LFE5033:
	.seh_endproc
	.def	_LZCNT_ALT_UNIT;	.scl	3;	.type	32;	.endef
	.seh_proc	_LZCNT_ALT_UNIT
_LZCNT_ALT_UNIT:
.LFB5043:
	.loc 4 454 9
	.cfi_startproc
	pushq	%rbp
	.seh_pushreg	%rbp
	.cfi_def_cfa_offset 16
	.cfi_offset 6, -16
	movq	%rsp, %rbp
	.seh_setframe	%rbp, 0
	.cfi_def_cfa_register 6
	subq	$16, %rsp
	.seh_stackalloc	16
	.seh_endprologue
	movq	%rcx, 16(%rbp)
	.loc 4 455 13
	cmpq	$0, 16(%rbp)
	jne	.L66
	.loc 4 456 38
	movl	$64, %eax
	jmp	.L67
.L66:
	.loc 4 472 57
/APP
 # 472 "../pmc_inline_func.h" 1
	bsrq 16(%rbp), %rax
 # 0 "" 2
/NO_APP
	movq	%rax, -8(%rbp)
	.loc 4 479 39
	movq	-8(%rbp), %rax
	movl	$63, %edx
	subl	%eax, %edx
	movl	%edx, %eax
.L67:
	.loc 4 480 9
	addq	$16, %rsp
	popq	%rbp
	.cfi_restore 6
	.cfi_def_cfa 7, 8
	ret
	.cfi_endproc
.LFE5043:
	.seh_endproc
	.def	_TZCNT_ALT_UNIT;	.scl	3;	.type	32;	.endef
	.seh_proc	_TZCNT_ALT_UNIT
_TZCNT_ALT_UNIT:
.LFB5046:
	.loc 4 505 9
	.cfi_startproc
	pushq	%rbp
	.seh_pushreg	%rbp
	.cfi_def_cfa_offset 16
	.cfi_offset 6, -16
	movq	%rsp, %rbp
	.seh_setframe	%rbp, 0
	.cfi_def_cfa_register 6
	subq	$16, %rsp
	.seh_stackalloc	16
	.seh_endprologue
	movq	%rcx, 16(%rbp)
	.loc 4 506 13
	cmpq	$0, 16(%rbp)
	jne	.L69
	.loc 4 507 38
	movl	$64, %eax
	jmp	.L71
.L69:
	.loc 4 523 57
/APP
 # 523 "../pmc_inline_func.h" 1
	bsfq 16(%rbp), %rax
 # 0 "" 2
/NO_APP
	movq	%rax, -8(%rbp)
	.loc 4 530 24
	movq	-8(%rbp), %rax
.L71:
	.loc 4 531 9 discriminator 1
	addq	$16, %rsp
	popq	%rbp
	.cfi_restore 6
	.cfi_def_cfa 7, 8
	ret
	.cfi_endproc
.LFE5046:
	.seh_endproc
	.globl	_ZN8Palmtree4Math4Core8Internal10hLocalHeapE
	.bss
	.align 8
_ZN8Palmtree4Math4Core8Internal10hLocalHeapE:
	.space 8
	.globl	_ZN8Palmtree4Math4Core8Internal11number_zeroE
	.align 32
_ZN8Palmtree4Math4Core8Internal11number_zeroE:
	.space 80
	.globl	_ZN8Palmtree4Math4Core8Internal10number_oneE
	.align 32
_ZN8Palmtree4Math4Core8Internal10number_oneE:
	.space 80
	.globl	_ZN8Palmtree4Math4Core8Internal3mcsE
	.align 32
_ZN8Palmtree4Math4Core8Internal3mcsE:
	.space 40
	.text
	.def	_ZN8Palmtree4Math4Core8InternalL17CalculateHashCodeEPyy;	.scl	3;	.type	32;	.endef
	.seh_proc	_ZN8Palmtree4Math4Core8InternalL17CalculateHashCodeEPyy
_ZN8Palmtree4Math4Core8InternalL17CalculateHashCodeEPyy:
.LFB5052:
	.file 7 "../pmc_memory.cpp"
	.loc 7 59 5
	.cfi_startproc
	pushq	%rbp
	.seh_pushreg	%rbp
	.cfi_def_cfa_offset 16
	.cfi_offset 6, -16
	movq	%rsp, %rbp
	.seh_setframe	%rbp, 0
	.cfi_def_cfa_register 6
	subq	$48, %rsp
	.seh_stackalloc	48
	.seh_endprologue
	movq	%rcx, 16(%rbp)
	movq	%rdx, 24(%rbp)
	.loc 7 60 21
	movabsq	$-8897841259083430780, %rax
	movq	%rax, -16(%rbp)
	.loc 7 62 21
	movq	24(%rbp), %rax
	shrq	$5, %rax
	movq	%rax, -8(%rbp)
.L74:
	.loc 7 63 22
	cmpq	$0, -8(%rbp)
	je	.L73
	.loc 7 65 34
	movq	-16(%rbp), %rax
	movl	$3, %edx
	movq	%rax, %rcx
	call	_ROTATE_L_UNIT
	movq	%rax, %rdx
	.loc 7 65 49
	movq	16(%rbp), %rax
	movq	(%rax), %rax
	.loc 7 65 44
	xorq	%rdx, %rax
	.loc 7 65 18
	movq	%rax, -16(%rbp)
	.loc 7 66 34
	movq	-16(%rbp), %rax
	movl	$3, %edx
	movq	%rax, %rcx
	call	_ROTATE_L_UNIT
	movq	%rax, %rdx
	.loc 7 66 49
	movq	16(%rbp), %rax
	addq	$8, %rax
	movq	(%rax), %rax
	.loc 7 66 44
	xorq	%rdx, %rax
	.loc 7 66 18
	movq	%rax, -16(%rbp)
	.loc 7 67 34
	movq	-16(%rbp), %rax
	movl	$3, %edx
	movq	%rax, %rcx
	call	_ROTATE_L_UNIT
	movq	%rax, %rdx
	.loc 7 67 49
	movq	16(%rbp), %rax
	addq	$16, %rax
	movq	(%rax), %rax
	.loc 7 67 44
	xorq	%rdx, %rax
	.loc 7 67 18
	movq	%rax, -16(%rbp)
	.loc 7 68 34
	movq	-16(%rbp), %rax
	movl	$3, %edx
	movq	%rax, %rcx
	call	_ROTATE_L_UNIT
	movq	%rax, %rdx
	.loc 7 68 49
	movq	16(%rbp), %rax
	addq	$24, %rax
	movq	(%rax), %rax
	.loc 7 68 44
	xorq	%rdx, %rax
	.loc 7 68 18
	movq	%rax, -16(%rbp)
	.loc 7 69 34
	movq	-16(%rbp), %rax
	movl	$3, %edx
	movq	%rax, %rcx
	call	_ROTATE_L_UNIT
	movq	%rax, %rdx
	.loc 7 69 49
	movq	16(%rbp), %rax
	addq	$32, %rax
	movq	(%rax), %rax
	.loc 7 69 44
	xorq	%rdx, %rax
	.loc 7 69 18
	movq	%rax, -16(%rbp)
	.loc 7 70 34
	movq	-16(%rbp), %rax
	movl	$3, %edx
	movq	%rax, %rcx
	call	_ROTATE_L_UNIT
	movq	%rax, %rdx
	.loc 7 70 49
	movq	16(%rbp), %rax
	addq	$40, %rax
	movq	(%rax), %rax
	.loc 7 70 44
	xorq	%rdx, %rax
	.loc 7 70 18
	movq	%rax, -16(%rbp)
	.loc 7 71 34
	movq	-16(%rbp), %rax
	movl	$3, %edx
	movq	%rax, %rcx
	call	_ROTATE_L_UNIT
	movq	%rax, %rdx
	.loc 7 71 49
	movq	16(%rbp), %rax
	addq	$48, %rax
	movq	(%rax), %rax
	.loc 7 71 44
	xorq	%rdx, %rax
	.loc 7 71 18
	movq	%rax, -16(%rbp)
	.loc 7 72 34
	movq	-16(%rbp), %rax
	movl	$3, %edx
	movq	%rax, %rcx
	call	_ROTATE_L_UNIT
	movq	%rax, %rdx
	.loc 7 72 49
	movq	16(%rbp), %rax
	addq	$56, %rax
	movq	(%rax), %rax
	.loc 7 72 44
	xorq	%rdx, %rax
	.loc 7 72 18
	movq	%rax, -16(%rbp)
	.loc 7 73 34
	movq	-16(%rbp), %rax
	movl	$3, %edx
	movq	%rax, %rcx
	call	_ROTATE_L_UNIT
	movq	%rax, %rdx
	.loc 7 73 49
	movq	16(%rbp), %rax
	addq	$64, %rax
	movq	(%rax), %rax
	.loc 7 73 44
	xorq	%rdx, %rax
	.loc 7 73 18
	movq	%rax, -16(%rbp)
	.loc 7 74 34
	movq	-16(%rbp), %rax
	movl	$3, %edx
	movq	%rax, %rcx
	call	_ROTATE_L_UNIT
	movq	%rax, %rdx
	.loc 7 74 49
	movq	16(%rbp), %rax
	addq	$72, %rax
	movq	(%rax), %rax
	.loc 7 74 44
	xorq	%rdx, %rax
	.loc 7 74 18
	movq	%rax, -16(%rbp)
	.loc 7 75 34
	movq	-16(%rbp), %rax
	movl	$3, %edx
	movq	%rax, %rcx
	call	_ROTATE_L_UNIT
	movq	%rax, %rdx
	.loc 7 75 50
	movq	16(%rbp), %rax
	addq	$80, %rax
	movq	(%rax), %rax
	.loc 7 75 44
	xorq	%rdx, %rax
	.loc 7 75 18
	movq	%rax, -16(%rbp)
	.loc 7 76 34
	movq	-16(%rbp), %rax
	movl	$3, %edx
	movq	%rax, %rcx
	call	_ROTATE_L_UNIT
	movq	%rax, %rdx
	.loc 7 76 50
	movq	16(%rbp), %rax
	addq	$88, %rax
	movq	(%rax), %rax
	.loc 7 76 44
	xorq	%rdx, %rax
	.loc 7 76 18
	movq	%rax, -16(%rbp)
	.loc 7 77 34
	movq	-16(%rbp), %rax
	movl	$3, %edx
	movq	%rax, %rcx
	call	_ROTATE_L_UNIT
	movq	%rax, %rdx
	.loc 7 77 50
	movq	16(%rbp), %rax
	addq	$96, %rax
	movq	(%rax), %rax
	.loc 7 77 44
	xorq	%rdx, %rax
	.loc 7 77 18
	movq	%rax, -16(%rbp)
	.loc 7 78 34
	movq	-16(%rbp), %rax
	movl	$3, %edx
	movq	%rax, %rcx
	call	_ROTATE_L_UNIT
	movq	%rax, %rdx
	.loc 7 78 50
	movq	16(%rbp), %rax
	addq	$104, %rax
	movq	(%rax), %rax
	.loc 7 78 44
	xorq	%rdx, %rax
	.loc 7 78 18
	movq	%rax, -16(%rbp)
	.loc 7 79 34
	movq	-16(%rbp), %rax
	movl	$3, %edx
	movq	%rax, %rcx
	call	_ROTATE_L_UNIT
	movq	%rax, %rdx
	.loc 7 79 50
	movq	16(%rbp), %rax
	addq	$112, %rax
	movq	(%rax), %rax
	.loc 7 79 44
	xorq	%rdx, %rax
	.loc 7 79 18
	movq	%rax, -16(%rbp)
	.loc 7 80 34
	movq	-16(%rbp), %rax
	movl	$3, %edx
	movq	%rax, %rcx
	call	_ROTATE_L_UNIT
	movq	%rax, %rdx
	.loc 7 80 50
	movq	16(%rbp), %rax
	addq	$120, %rax
	movq	(%rax), %rax
	.loc 7 80 44
	xorq	%rdx, %rax
	.loc 7 80 18
	movq	%rax, -16(%rbp)
	.loc 7 81 34
	movq	-16(%rbp), %rax
	movl	$3, %edx
	movq	%rax, %rcx
	call	_ROTATE_L_UNIT
	movq	%rax, %rdx
	.loc 7 81 50
	movq	16(%rbp), %rax
	subq	$-128, %rax
	movq	(%rax), %rax
	.loc 7 81 44
	xorq	%rdx, %rax
	.loc 7 81 18
	movq	%rax, -16(%rbp)
	.loc 7 82 34
	movq	-16(%rbp), %rax
	movl	$3, %edx
	movq	%rax, %rcx
	call	_ROTATE_L_UNIT
	movq	%rax, %rdx
	.loc 7 82 50
	movq	16(%rbp), %rax
	addq	$136, %rax
	movq	(%rax), %rax
	.loc 7 82 44
	xorq	%rdx, %rax
	.loc 7 82 18
	movq	%rax, -16(%rbp)
	.loc 7 83 34
	movq	-16(%rbp), %rax
	movl	$3, %edx
	movq	%rax, %rcx
	call	_ROTATE_L_UNIT
	movq	%rax, %rdx
	.loc 7 83 50
	movq	16(%rbp), %rax
	addq	$144, %rax
	movq	(%rax), %rax
	.loc 7 83 44
	xorq	%rdx, %rax
	.loc 7 83 18
	movq	%rax, -16(%rbp)
	.loc 7 84 34
	movq	-16(%rbp), %rax
	movl	$3, %edx
	movq	%rax, %rcx
	call	_ROTATE_L_UNIT
	movq	%rax, %rdx
	.loc 7 84 50
	movq	16(%rbp), %rax
	addq	$152, %rax
	movq	(%rax), %rax
	.loc 7 84 44
	xorq	%rdx, %rax
	.loc 7 84 18
	movq	%rax, -16(%rbp)
	.loc 7 85 34
	movq	-16(%rbp), %rax
	movl	$3, %edx
	movq	%rax, %rcx
	call	_ROTATE_L_UNIT
	movq	%rax, %rdx
	.loc 7 85 50
	movq	16(%rbp), %rax
	addq	$160, %rax
	movq	(%rax), %rax
	.loc 7 85 44
	xorq	%rdx, %rax
	.loc 7 85 18
	movq	%rax, -16(%rbp)
	.loc 7 86 34
	movq	-16(%rbp), %rax
	movl	$3, %edx
	movq	%rax, %rcx
	call	_ROTATE_L_UNIT
	movq	%rax, %rdx
	.loc 7 86 50
	movq	16(%rbp), %rax
	addq	$168, %rax
	movq	(%rax), %rax
	.loc 7 86 44
	xorq	%rdx, %rax
	.loc 7 86 18
	movq	%rax, -16(%rbp)
	.loc 7 87 34
	movq	-16(%rbp), %rax
	movl	$3, %edx
	movq	%rax, %rcx
	call	_ROTATE_L_UNIT
	movq	%rax, %rdx
	.loc 7 87 50
	movq	16(%rbp), %rax
	addq	$176, %rax
	movq	(%rax), %rax
	.loc 7 87 44
	xorq	%rdx, %rax
	.loc 7 87 18
	movq	%rax, -16(%rbp)
	.loc 7 88 34
	movq	-16(%rbp), %rax
	movl	$3, %edx
	movq	%rax, %rcx
	call	_ROTATE_L_UNIT
	movq	%rax, %rdx
	.loc 7 88 50
	movq	16(%rbp), %rax
	addq	$184, %rax
	movq	(%rax), %rax
	.loc 7 88 44
	xorq	%rdx, %rax
	.loc 7 88 18
	movq	%rax, -16(%rbp)
	.loc 7 89 34
	movq	-16(%rbp), %rax
	movl	$3, %edx
	movq	%rax, %rcx
	call	_ROTATE_L_UNIT
	movq	%rax, %rdx
	.loc 7 89 50
	movq	16(%rbp), %rax
	addq	$192, %rax
	movq	(%rax), %rax
	.loc 7 89 44
	xorq	%rdx, %rax
	.loc 7 89 18
	movq	%rax, -16(%rbp)
	.loc 7 90 34
	movq	-16(%rbp), %rax
	movl	$3, %edx
	movq	%rax, %rcx
	call	_ROTATE_L_UNIT
	movq	%rax, %rdx
	.loc 7 90 50
	movq	16(%rbp), %rax
	addq	$200, %rax
	movq	(%rax), %rax
	.loc 7 90 44
	xorq	%rdx, %rax
	.loc 7 90 18
	movq	%rax, -16(%rbp)
	.loc 7 91 34
	movq	-16(%rbp), %rax
	movl	$3, %edx
	movq	%rax, %rcx
	call	_ROTATE_L_UNIT
	movq	%rax, %rdx
	.loc 7 91 50
	movq	16(%rbp), %rax
	addq	$208, %rax
	movq	(%rax), %rax
	.loc 7 91 44
	xorq	%rdx, %rax
	.loc 7 91 18
	movq	%rax, -16(%rbp)
	.loc 7 92 34
	movq	-16(%rbp), %rax
	movl	$3, %edx
	movq	%rax, %rcx
	call	_ROTATE_L_UNIT
	movq	%rax, %rdx
	.loc 7 92 50
	movq	16(%rbp), %rax
	addq	$216, %rax
	movq	(%rax), %rax
	.loc 7 92 44
	xorq	%rdx, %rax
	.loc 7 92 18
	movq	%rax, -16(%rbp)
	.loc 7 93 34
	movq	-16(%rbp), %rax
	movl	$3, %edx
	movq	%rax, %rcx
	call	_ROTATE_L_UNIT
	movq	%rax, %rdx
	.loc 7 93 50
	movq	16(%rbp), %rax
	addq	$224, %rax
	movq	(%rax), %rax
	.loc 7 93 44
	xorq	%rdx, %rax
	.loc 7 93 18
	movq	%rax, -16(%rbp)
	.loc 7 94 34
	movq	-16(%rbp), %rax
	movl	$3, %edx
	movq	%rax, %rcx
	call	_ROTATE_L_UNIT
	movq	%rax, %rdx
	.loc 7 94 50
	movq	16(%rbp), %rax
	addq	$232, %rax
	movq	(%rax), %rax
	.loc 7 94 44
	xorq	%rdx, %rax
	.loc 7 94 18
	movq	%rax, -16(%rbp)
	.loc 7 95 34
	movq	-16(%rbp), %rax
	movl	$3, %edx
	movq	%rax, %rcx
	call	_ROTATE_L_UNIT
	movq	%rax, %rdx
	.loc 7 95 50
	movq	16(%rbp), %rax
	addq	$240, %rax
	movq	(%rax), %rax
	.loc 7 95 44
	xorq	%rdx, %rax
	.loc 7 95 18
	movq	%rax, -16(%rbp)
	.loc 7 96 34
	movq	-16(%rbp), %rax
	movl	$3, %edx
	movq	%rax, %rcx
	call	_ROTATE_L_UNIT
	movq	%rax, %rdx
	.loc 7 96 50
	movq	16(%rbp), %rax
	addq	$248, %rax
	movq	(%rax), %rax
	.loc 7 96 44
	xorq	%rdx, %rax
	.loc 7 96 18
	movq	%rax, -16(%rbp)
	.loc 7 97 15
	addq	$256, 16(%rbp)
	.loc 7 98 13
	subq	$1, -8(%rbp)
	.loc 7 63 9
	jmp	.L74
.L73:
	.loc 7 101 19
	movq	24(%rbp), %rax
	andl	$16, %eax
	.loc 7 101 9
	testq	%rax, %rax
	je	.L75
	.loc 7 103 34
	movq	-16(%rbp), %rax
	movl	$3, %edx
	movq	%rax, %rcx
	call	_ROTATE_L_UNIT
	movq	%rax, %rdx
	.loc 7 103 49
	movq	16(%rbp), %rax
	movq	(%rax), %rax
	.loc 7 103 44
	xorq	%rdx, %rax
	.loc 7 103 18
	movq	%rax, -16(%rbp)
	.loc 7 104 34
	movq	-16(%rbp), %rax
	movl	$3, %edx
	movq	%rax, %rcx
	call	_ROTATE_L_UNIT
	movq	%rax, %rdx
	.loc 7 104 49
	movq	16(%rbp), %rax
	addq	$8, %rax
	movq	(%rax), %rax
	.loc 7 104 44
	xorq	%rdx, %rax
	.loc 7 104 18
	movq	%rax, -16(%rbp)
	.loc 7 105 34
	movq	-16(%rbp), %rax
	movl	$3, %edx
	movq	%rax, %rcx
	call	_ROTATE_L_UNIT
	movq	%rax, %rdx
	.loc 7 105 49
	movq	16(%rbp), %rax
	addq	$16, %rax
	movq	(%rax), %rax
	.loc 7 105 44
	xorq	%rdx, %rax
	.loc 7 105 18
	movq	%rax, -16(%rbp)
	.loc 7 106 34
	movq	-16(%rbp), %rax
	movl	$3, %edx
	movq	%rax, %rcx
	call	_ROTATE_L_UNIT
	movq	%rax, %rdx
	.loc 7 106 49
	movq	16(%rbp), %rax
	addq	$24, %rax
	movq	(%rax), %rax
	.loc 7 106 44
	xorq	%rdx, %rax
	.loc 7 106 18
	movq	%rax, -16(%rbp)
	.loc 7 107 34
	movq	-16(%rbp), %rax
	movl	$3, %edx
	movq	%rax, %rcx
	call	_ROTATE_L_UNIT
	movq	%rax, %rdx
	.loc 7 107 49
	movq	16(%rbp), %rax
	addq	$32, %rax
	movq	(%rax), %rax
	.loc 7 107 44
	xorq	%rdx, %rax
	.loc 7 107 18
	movq	%rax, -16(%rbp)
	.loc 7 108 34
	movq	-16(%rbp), %rax
	movl	$3, %edx
	movq	%rax, %rcx
	call	_ROTATE_L_UNIT
	movq	%rax, %rdx
	.loc 7 108 49
	movq	16(%rbp), %rax
	addq	$40, %rax
	movq	(%rax), %rax
	.loc 7 108 44
	xorq	%rdx, %rax
	.loc 7 108 18
	movq	%rax, -16(%rbp)
	.loc 7 109 34
	movq	-16(%rbp), %rax
	movl	$3, %edx
	movq	%rax, %rcx
	call	_ROTATE_L_UNIT
	movq	%rax, %rdx
	.loc 7 109 49
	movq	16(%rbp), %rax
	addq	$48, %rax
	movq	(%rax), %rax
	.loc 7 109 44
	xorq	%rdx, %rax
	.loc 7 109 18
	movq	%rax, -16(%rbp)
	.loc 7 110 34
	movq	-16(%rbp), %rax
	movl	$3, %edx
	movq	%rax, %rcx
	call	_ROTATE_L_UNIT
	movq	%rax, %rdx
	.loc 7 110 49
	movq	16(%rbp), %rax
	addq	$56, %rax
	movq	(%rax), %rax
	.loc 7 110 44
	xorq	%rdx, %rax
	.loc 7 110 18
	movq	%rax, -16(%rbp)
	.loc 7 111 34
	movq	-16(%rbp), %rax
	movl	$3, %edx
	movq	%rax, %rcx
	call	_ROTATE_L_UNIT
	movq	%rax, %rdx
	.loc 7 111 49
	movq	16(%rbp), %rax
	addq	$64, %rax
	movq	(%rax), %rax
	.loc 7 111 44
	xorq	%rdx, %rax
	.loc 7 111 18
	movq	%rax, -16(%rbp)
	.loc 7 112 34
	movq	-16(%rbp), %rax
	movl	$3, %edx
	movq	%rax, %rcx
	call	_ROTATE_L_UNIT
	movq	%rax, %rdx
	.loc 7 112 49
	movq	16(%rbp), %rax
	addq	$72, %rax
	movq	(%rax), %rax
	.loc 7 112 44
	xorq	%rdx, %rax
	.loc 7 112 18
	movq	%rax, -16(%rbp)
	.loc 7 113 34
	movq	-16(%rbp), %rax
	movl	$3, %edx
	movq	%rax, %rcx
	call	_ROTATE_L_UNIT
	movq	%rax, %rdx
	.loc 7 113 50
	movq	16(%rbp), %rax
	addq	$80, %rax
	movq	(%rax), %rax
	.loc 7 113 44
	xorq	%rdx, %rax
	.loc 7 113 18
	movq	%rax, -16(%rbp)
	.loc 7 114 34
	movq	-16(%rbp), %rax
	movl	$3, %edx
	movq	%rax, %rcx
	call	_ROTATE_L_UNIT
	movq	%rax, %rdx
	.loc 7 114 50
	movq	16(%rbp), %rax
	addq	$88, %rax
	movq	(%rax), %rax
	.loc 7 114 44
	xorq	%rdx, %rax
	.loc 7 114 18
	movq	%rax, -16(%rbp)
	.loc 7 115 34
	movq	-16(%rbp), %rax
	movl	$3, %edx
	movq	%rax, %rcx
	call	_ROTATE_L_UNIT
	movq	%rax, %rdx
	.loc 7 115 50
	movq	16(%rbp), %rax
	addq	$96, %rax
	movq	(%rax), %rax
	.loc 7 115 44
	xorq	%rdx, %rax
	.loc 7 115 18
	movq	%rax, -16(%rbp)
	.loc 7 116 34
	movq	-16(%rbp), %rax
	movl	$3, %edx
	movq	%rax, %rcx
	call	_ROTATE_L_UNIT
	movq	%rax, %rdx
	.loc 7 116 50
	movq	16(%rbp), %rax
	addq	$104, %rax
	movq	(%rax), %rax
	.loc 7 116 44
	xorq	%rdx, %rax
	.loc 7 116 18
	movq	%rax, -16(%rbp)
	.loc 7 117 34
	movq	-16(%rbp), %rax
	movl	$3, %edx
	movq	%rax, %rcx
	call	_ROTATE_L_UNIT
	movq	%rax, %rdx
	.loc 7 117 50
	movq	16(%rbp), %rax
	addq	$112, %rax
	movq	(%rax), %rax
	.loc 7 117 44
	xorq	%rdx, %rax
	.loc 7 117 18
	movq	%rax, -16(%rbp)
	.loc 7 118 34
	movq	-16(%rbp), %rax
	movl	$3, %edx
	movq	%rax, %rcx
	call	_ROTATE_L_UNIT
	movq	%rax, %rdx
	.loc 7 118 50
	movq	16(%rbp), %rax
	addq	$120, %rax
	movq	(%rax), %rax
	.loc 7 118 44
	xorq	%rdx, %rax
	.loc 7 118 18
	movq	%rax, -16(%rbp)
	.loc 7 119 15
	subq	$-128, 16(%rbp)
.L75:
	.loc 7 122 19
	movq	24(%rbp), %rax
	andl	$8, %eax
	.loc 7 122 9
	testq	%rax, %rax
	je	.L76
	.loc 7 124 34
	movq	-16(%rbp), %rax
	movl	$3, %edx
	movq	%rax, %rcx
	call	_ROTATE_L_UNIT
	movq	%rax, %rdx
	.loc 7 124 49
	movq	16(%rbp), %rax
	movq	(%rax), %rax
	.loc 7 124 44
	xorq	%rdx, %rax
	.loc 7 124 18
	movq	%rax, -16(%rbp)
	.loc 7 125 34
	movq	-16(%rbp), %rax
	movl	$3, %edx
	movq	%rax, %rcx
	call	_ROTATE_L_UNIT
	movq	%rax, %rdx
	.loc 7 125 49
	movq	16(%rbp), %rax
	addq	$8, %rax
	movq	(%rax), %rax
	.loc 7 125 44
	xorq	%rdx, %rax
	.loc 7 125 18
	movq	%rax, -16(%rbp)
	.loc 7 126 34
	movq	-16(%rbp), %rax
	movl	$3, %edx
	movq	%rax, %rcx
	call	_ROTATE_L_UNIT
	movq	%rax, %rdx
	.loc 7 126 49
	movq	16(%rbp), %rax
	addq	$16, %rax
	movq	(%rax), %rax
	.loc 7 126 44
	xorq	%rdx, %rax
	.loc 7 126 18
	movq	%rax, -16(%rbp)
	.loc 7 127 34
	movq	-16(%rbp), %rax
	movl	$3, %edx
	movq	%rax, %rcx
	call	_ROTATE_L_UNIT
	movq	%rax, %rdx
	.loc 7 127 49
	movq	16(%rbp), %rax
	addq	$24, %rax
	movq	(%rax), %rax
	.loc 7 127 44
	xorq	%rdx, %rax
	.loc 7 127 18
	movq	%rax, -16(%rbp)
	.loc 7 128 34
	movq	-16(%rbp), %rax
	movl	$3, %edx
	movq	%rax, %rcx
	call	_ROTATE_L_UNIT
	movq	%rax, %rdx
	.loc 7 128 49
	movq	16(%rbp), %rax
	addq	$32, %rax
	movq	(%rax), %rax
	.loc 7 128 44
	xorq	%rdx, %rax
	.loc 7 128 18
	movq	%rax, -16(%rbp)
	.loc 7 129 34
	movq	-16(%rbp), %rax
	movl	$3, %edx
	movq	%rax, %rcx
	call	_ROTATE_L_UNIT
	movq	%rax, %rdx
	.loc 7 129 49
	movq	16(%rbp), %rax
	addq	$40, %rax
	movq	(%rax), %rax
	.loc 7 129 44
	xorq	%rdx, %rax
	.loc 7 129 18
	movq	%rax, -16(%rbp)
	.loc 7 130 34
	movq	-16(%rbp), %rax
	movl	$3, %edx
	movq	%rax, %rcx
	call	_ROTATE_L_UNIT
	movq	%rax, %rdx
	.loc 7 130 49
	movq	16(%rbp), %rax
	addq	$48, %rax
	movq	(%rax), %rax
	.loc 7 130 44
	xorq	%rdx, %rax
	.loc 7 130 18
	movq	%rax, -16(%rbp)
	.loc 7 131 34
	movq	-16(%rbp), %rax
	movl	$3, %edx
	movq	%rax, %rcx
	call	_ROTATE_L_UNIT
	movq	%rax, %rdx
	.loc 7 131 49
	movq	16(%rbp), %rax
	addq	$56, %rax
	movq	(%rax), %rax
	.loc 7 131 44
	xorq	%rdx, %rax
	.loc 7 131 18
	movq	%rax, -16(%rbp)
	.loc 7 132 15
	addq	$64, 16(%rbp)
.L76:
	.loc 7 135 19
	movq	24(%rbp), %rax
	andl	$4, %eax
	.loc 7 135 9
	testq	%rax, %rax
	je	.L77
	.loc 7 137 34
	movq	-16(%rbp), %rax
	movl	$3, %edx
	movq	%rax, %rcx
	call	_ROTATE_L_UNIT
	movq	%rax, %rdx
	.loc 7 137 49
	movq	16(%rbp), %rax
	movq	(%rax), %rax
	.loc 7 137 44
	xorq	%rdx, %rax
	.loc 7 137 18
	movq	%rax, -16(%rbp)
	.loc 7 138 34
	movq	-16(%rbp), %rax
	movl	$3, %edx
	movq	%rax, %rcx
	call	_ROTATE_L_UNIT
	movq	%rax, %rdx
	.loc 7 138 49
	movq	16(%rbp), %rax
	addq	$8, %rax
	movq	(%rax), %rax
	.loc 7 138 44
	xorq	%rdx, %rax
	.loc 7 138 18
	movq	%rax, -16(%rbp)
	.loc 7 139 34
	movq	-16(%rbp), %rax
	movl	$3, %edx
	movq	%rax, %rcx
	call	_ROTATE_L_UNIT
	movq	%rax, %rdx
	.loc 7 139 49
	movq	16(%rbp), %rax
	addq	$16, %rax
	movq	(%rax), %rax
	.loc 7 139 44
	xorq	%rdx, %rax
	.loc 7 139 18
	movq	%rax, -16(%rbp)
	.loc 7 140 34
	movq	-16(%rbp), %rax
	movl	$3, %edx
	movq	%rax, %rcx
	call	_ROTATE_L_UNIT
	movq	%rax, %rdx
	.loc 7 140 49
	movq	16(%rbp), %rax
	addq	$24, %rax
	movq	(%rax), %rax
	.loc 7 140 44
	xorq	%rdx, %rax
	.loc 7 140 18
	movq	%rax, -16(%rbp)
	.loc 7 141 15
	addq	$32, 16(%rbp)
.L77:
	.loc 7 144 19
	movq	24(%rbp), %rax
	andl	$2, %eax
	.loc 7 144 9
	testq	%rax, %rax
	je	.L78
	.loc 7 146 34
	movq	-16(%rbp), %rax
	movl	$3, %edx
	movq	%rax, %rcx
	call	_ROTATE_L_UNIT
	movq	%rax, %rdx
	.loc 7 146 49
	movq	16(%rbp), %rax
	movq	(%rax), %rax
	.loc 7 146 44
	xorq	%rdx, %rax
	.loc 7 146 18
	movq	%rax, -16(%rbp)
	.loc 7 147 34
	movq	-16(%rbp), %rax
	movl	$3, %edx
	movq	%rax, %rcx
	call	_ROTATE_L_UNIT
	movq	%rax, %rdx
	.loc 7 147 49
	movq	16(%rbp), %rax
	addq	$8, %rax
	movq	(%rax), %rax
	.loc 7 147 44
	xorq	%rdx, %rax
	.loc 7 147 18
	movq	%rax, -16(%rbp)
	.loc 7 148 15
	addq	$16, 16(%rbp)
.L78:
	.loc 7 151 19
	movq	24(%rbp), %rax
	andl	$1, %eax
	.loc 7 151 9
	testq	%rax, %rax
	je	.L79
	.loc 7 152 34
	movq	-16(%rbp), %rax
	movl	$3, %edx
	movq	%rax, %rcx
	call	_ROTATE_L_UNIT
	movq	%rax, %rdx
	.loc 7 152 49
	movq	16(%rbp), %rax
	movq	(%rax), %rax
	.loc 7 152 44
	xorq	%rdx, %rax
	.loc 7 152 18
	movq	%rax, -16(%rbp)
.L79:
	.loc 7 154 21
	movq	-16(%rbp), %rax
	.loc 7 155 5
	addq	$48, %rsp
	popq	%rbp
	.cfi_restore 6
	.cfi_def_cfa 7, 8
	ret
	.cfi_endproc
.LFE5052:
	.seh_endproc
	.section .rdata,"dr"
	.align 8
.LC2:
	.ascii "\322"
	.ascii "0\374"
	.ascii "0\327"
	.ascii "0\341"
	.ascii "0\342"
	.ascii "0\352"
	.ascii "0\30\230\337WL0\15N\263\215W0f0D0~0Y0\2"
	.ascii "0\0\0"
	.text
	.def	_ZN8Palmtree4Math4Core8InternalL13AllocateBlockEyPyS3_;	.scl	3;	.type	32;	.endef
	.seh_proc	_ZN8Palmtree4Math4Core8InternalL13AllocateBlockEyPyS3_
_ZN8Palmtree4Math4Core8InternalL13AllocateBlockEyPyS3_:
.LFB5053:
	.loc 7 163 5
	.cfi_startproc
	pushq	%rbp
	.seh_pushreg	%rbp
	.cfi_def_cfa_offset 16
	.cfi_offset 6, -16
	pushq	%rbx
	.seh_pushreg	%rbx
	.cfi_def_cfa_offset 24
	.cfi_offset 3, -24
	subq	$104, %rsp
	.seh_stackalloc	104
	.cfi_def_cfa_offset 128
	leaq	128(%rsp), %rbp
	.seh_setframe	%rbp, 128
	.cfi_def_cfa 6, 0
	.seh_endprologue
	movq	%rcx, 0(%rbp)
	movq	%rdx, 8(%rbp)
	movq	%r8, 16(%rbp)
	.loc 7 168 50
	movl	$64, %edx
	movq	0(%rbp), %rcx
	call	_DIVIDE_CEILING_UNIT
	movq	%rax, -40(%rbp)
	.loc 7 169 21
	movq	-40(%rbp), %rax
	addq	$2, %rax
	movq	%rax, -48(%rbp)
	.loc 7 170 21
	movq	-48(%rbp), %rax
	salq	$3, %rax
	movq	%rax, -56(%rbp)
	.loc 7 171 54
	movq	_ZN8Palmtree4Math4Core8Internal10hLocalHeapE(%rip), %rax
	movq	-56(%rbp), %rdx
	movq	%rdx, %r8
	movl	$8, %edx
	movq	%rax, %rcx
	movq	__imp_HeapAlloc(%rip), %rax
	call	*%rax
.LVL5:
	movq	%rax, -64(%rbp)
	.loc 7 172 9
	cmpq	$0, -64(%rbp)
	jne	.L82
	.loc 7 173 98
	movl	$32, %ecx
	call	__cxa_allocate_exception
	movq	%rax, %rbx
	leaq	.LC2(%rip), %rdx
	movq	%rbx, %rcx
	call	_ZN8Palmtree4Math4Core8Internal24NotEnoughMemoryExceptionC1EPKw
	leaq	_ZN8Palmtree4Math4Core8Internal24NotEnoughMemoryExceptionD1Ev(%rip), %rax
	movq	%rax, %r8
	leaq	_ZTIN8Palmtree4Math4Core8Internal24NotEnoughMemoryExceptionE(%rip), %rdx
	movq	%rbx, %rcx
	call	__cxa_throw
.L82:
	.loc 7 179 19
	movq	-64(%rbp), %rax
	movq	-40(%rbp), %rdx
	movq	%rdx, (%rax)
	.loc 7 180 32
	movq	8(%rbp), %rax
	movq	-40(%rbp), %rdx
	movq	%rdx, (%rax)
	.loc 7 189 38
	movq	__imp_GetTickCount(%rip), %rax
	call	*%rax
.LVL6:
	movl	%eax, -68(%rbp)
	.loc 7 190 41
	movl	-68(%rbp), %edx
	movl	-68(%rbp), %eax
	movl	%eax, %ecx
	call	_FROMWORDTODWORD
	movq	%rax, -80(%rbp)
	.loc 7 197 21
	movabsq	$-8897841259083430780, %rax
	orq	-80(%rbp), %rax
	movq	%rax, -88(%rbp)
	.loc 7 201 26
	movq	-40(%rbp), %rax
	addq	$1, %rax
	leaq	0(,%rax,8), %rdx
	movq	-64(%rbp), %rax
	addq	%rdx, %rax
	.loc 7 201 28
	movq	-88(%rbp), %rdx
	movq	%rdx, (%rax)
	.loc 7 202 15
	movq	16(%rbp), %rax
	movq	-88(%rbp), %rdx
	movq	%rdx, (%rax)
	.loc 7 203 27
	movq	-64(%rbp), %rax
	addq	$8, %rax
	.loc 7 204 5
	addq	$104, %rsp
	popq	%rbx
	.cfi_restore 3
	popq	%rbp
	.cfi_restore 6
	.cfi_def_cfa 7, -88
	ret
	.cfi_endproc
.LFE5053:
	.seh_endproc
	.section .rdata,"dr"
	.align 8
.LC3:
	.ascii "p\0m\0c\0_\0m\0e\0m\0o\0r\0y\0.\0c\0p\0p\0;\0D\0e\0a\0l\0l\0o\0c\0a\0t\0e\0B\0l\0o\0c\0k\0;\0"
	.ascii "1\0\0\0"
	.align 8
.LC4:
	.ascii "\341"
	.ascii "0\342"
	.ascii "0\352"
	.ascii "0\30\230\337Wn0\15Nte\10T\222"
	.ascii "0\34i\372QW0~0W0_0\2"
	.ascii "0\0\0"
	.align 8
.LC5:
	.ascii "p\0m\0c\0_\0m\0e\0m\0o\0r\0y\0.\0c\0p\0p\0;\0D\0e\0a\0l\0l\0o\0c\0a\0t\0e\0B\0l\0o\0c\0k\0;\0"
	.ascii "2\0\0\0"
	.text
	.def	_ZN8Palmtree4Math4Core8InternalL15DeallocateBlockEPyyy;	.scl	3;	.type	32;	.endef
	.seh_proc	_ZN8Palmtree4Math4Core8InternalL15DeallocateBlockEPyyy
_ZN8Palmtree4Math4Core8InternalL15DeallocateBlockEPyyy:
.LFB5054:
	.loc 7 209 5
	.cfi_startproc
	pushq	%rbp
	.seh_pushreg	%rbp
	.cfi_def_cfa_offset 16
	.cfi_offset 6, -16
	pushq	%rbx
	.seh_pushreg	%rbx
	.cfi_def_cfa_offset 24
	.cfi_offset 3, -24
	subq	$56, %rsp
	.seh_stackalloc	56
	.cfi_def_cfa_offset 80
	leaq	128(%rsp), %rbp
	.seh_setframe	%rbp, 128
	.cfi_def_cfa 6, -48
	.seh_endprologue
	movq	%rcx, -48(%rbp)
	movq	%rdx, -40(%rbp)
	movq	%r8, -32(%rbp)
	.loc 7 210 9
	cmpq	$0, -48(%rbp)
	je	.L89
	.loc 7 212 22
	movq	-48(%rbp), %rax
	subq	$8, %rax
	movq	%rax, -88(%rbp)
	.loc 7 214 13
	movq	-88(%rbp), %rax
	movq	(%rax), %rax
	.loc 7 214 9
	cmpq	%rax, -40(%rbp)
	je	.L87
	.loc 7 215 129
	movl	$40, %ecx
	call	__cxa_allocate_exception
	movq	%rax, %rbx
	leaq	.LC3(%rip), %r8
	leaq	.LC4(%rip), %rdx
	movq	%rbx, %rcx
	call	_ZN8Palmtree4Math4Core8Internal18BadBufferExceptionC1EPKwS5_
	leaq	_ZN8Palmtree4Math4Core8Internal18BadBufferExceptionD1Ev(%rip), %rax
	movq	%rax, %r8
	leaq	_ZTIN8Palmtree4Math4Core8Internal18BadBufferExceptionE(%rip), %rdx
	movq	%rbx, %rcx
	call	__cxa_throw
.L87:
	.loc 7 216 29
	movq	-40(%rbp), %rax
	addq	$1, %rax
	leaq	0(,%rax,8), %rdx
	movq	-88(%rbp), %rax
	addq	%rdx, %rax
	movq	(%rax), %rax
	.loc 7 216 9
	cmpq	%rax, -32(%rbp)
	je	.L88
	.loc 7 217 129
	movl	$40, %ecx
	call	__cxa_allocate_exception
	movq	%rax, %rbx
	leaq	.LC5(%rip), %r8
	leaq	.LC4(%rip), %rdx
	movq	%rbx, %rcx
	call	_ZN8Palmtree4Math4Core8Internal18BadBufferExceptionC1EPKwS5_
	leaq	_ZN8Palmtree4Math4Core8Internal18BadBufferExceptionD1Ev(%rip), %rax
	movq	%rax, %r8
	leaq	_ZTIN8Palmtree4Math4Core8Internal18BadBufferExceptionE(%rip), %rdx
	movq	%rbx, %rcx
	call	__cxa_throw
.L88:
	.loc 7 220 26
	movq	-40(%rbp), %rax
	leaq	2(%rax), %rdx
	movq	-88(%rbp), %rax
	movq	%rdx, %r8
	movabsq	$-3689348814741910324, %rdx
	movq	%rax, %rcx
	call	_FILL_MEMORY_UNIT
	.loc 7 222 17
	movq	_ZN8Palmtree4Math4Core8Internal10hLocalHeapE(%rip), %rax
	movq	-88(%rbp), %rdx
	movq	%rdx, %r8
	movl	$0, %edx
	movq	%rax, %rcx
	movq	__imp_HeapFree(%rip), %rax
	call	*%rax
.LVL7:
	jmp	.L84
.L89:
	.loc 7 211 13
	nop
.L84:
	.loc 7 228 5
	addq	$56, %rsp
	popq	%rbx
	.cfi_restore 3
	popq	%rbp
	.cfi_restore 6
	.cfi_def_cfa 7, -40
	ret
	.cfi_endproc
.LFE5054:
	.seh_endproc
	.section .rdata,"dr"
	.align 8
.LC6:
	.ascii "p\0m\0c\0_\0m\0e\0m\0o\0r\0y\0.\0c\0p\0p\0;\0C\0h\0e\0c\0k\0B\0l\0o\0c\0k\0L\0i\0g\0h\0t\0;\0"
	.ascii "1\0\0\0"
	.align 8
.LC7:
	.ascii "p\0m\0c\0_\0m\0e\0m\0o\0r\0y\0.\0c\0p\0p\0;\0C\0h\0e\0c\0k\0B\0l\0o\0c\0k\0L\0i\0g\0h\0t\0;\0"
	.ascii "2\0\0\0"
	.text
	.def	_ZN8Palmtree4Math4Core8InternalL10CheckBlockEPyyy;	.scl	3;	.type	32;	.endef
	.seh_proc	_ZN8Palmtree4Math4Core8InternalL10CheckBlockEPyyy
_ZN8Palmtree4Math4Core8InternalL10CheckBlockEPyyy:
.LFB5055:
	.loc 7 232 5
	.cfi_startproc
	pushq	%rbp
	.seh_pushreg	%rbp
	.cfi_def_cfa_offset 16
	.cfi_offset 6, -16
	pushq	%rbx
	.seh_pushreg	%rbx
	.cfi_def_cfa_offset 24
	.cfi_offset 3, -24
	subq	$72, %rsp
	.seh_stackalloc	72
	.cfi_def_cfa_offset 96
	leaq	128(%rsp), %rbp
	.seh_setframe	%rbp, 128
	.cfi_def_cfa 6, -32
	.seh_endprologue
	movq	%rcx, -32(%rbp)
	movq	%rdx, -24(%rbp)
	movq	%r8, -16(%rbp)
	.loc 7 234 9
	cmpq	$0, -32(%rbp)
	je	.L94
	.loc 7 236 9
	subq	$8, -32(%rbp)
	.loc 7 237 21
	movq	-32(%rbp), %rax
	movq	(%rax), %rax
	movq	%rax, -72(%rbp)
	.loc 7 238 9
	movq	-72(%rbp), %rax
	cmpq	-24(%rbp), %rax
	je	.L93
	.loc 7 239 129
	movl	$40, %ecx
	call	__cxa_allocate_exception
	movq	%rax, %rbx
	leaq	.LC6(%rip), %r8
	leaq	.LC4(%rip), %rdx
	movq	%rbx, %rcx
	call	_ZN8Palmtree4Math4Core8Internal18BadBufferExceptionC1EPKwS5_
	leaq	_ZN8Palmtree4Math4Core8Internal18BadBufferExceptionD1Ev(%rip), %rax
	movq	%rax, %r8
	leaq	_ZTIN8Palmtree4Math4Core8Internal18BadBufferExceptionE(%rip), %rdx
	movq	%rbx, %rcx
	call	__cxa_throw
.L93:
	.loc 7 240 51
	movq	-72(%rbp), %rax
	addq	$1, %rax
	leaq	0(,%rax,8), %rdx
	movq	-32(%rbp), %rax
	addq	%rdx, %rax
	.loc 7 240 21
	movq	(%rax), %rax
	movq	%rax, -80(%rbp)
	.loc 7 241 21
	movq	-16(%rbp), %rax
	movq	%rax, -88(%rbp)
	.loc 7 242 9
	movq	-88(%rbp), %rax
	cmpq	-80(%rbp), %rax
	je	.L90
	.loc 7 243 129
	movl	$40, %ecx
	call	__cxa_allocate_exception
	movq	%rax, %rbx
	leaq	.LC7(%rip), %r8
	leaq	.LC4(%rip), %rdx
	movq	%rbx, %rcx
	call	_ZN8Palmtree4Math4Core8Internal18BadBufferExceptionC1EPKwS5_
	leaq	_ZN8Palmtree4Math4Core8Internal18BadBufferExceptionD1Ev(%rip), %rax
	movq	%rax, %r8
	leaq	_ZTIN8Palmtree4Math4Core8Internal18BadBufferExceptionE(%rip), %rdx
	movq	%rbx, %rcx
	call	__cxa_throw
.L94:
	.loc 7 235 13
	nop
.L90:
	.loc 7 247 5
	addq	$72, %rsp
	popq	%rbx
	.cfi_restore 3
	popq	%rbp
	.cfi_restore 6
	.cfi_def_cfa 7, -56
	ret
	.cfi_endproc
.LFE5055:
	.seh_endproc
	.def	_ZN8Palmtree4Math4Core8InternalL17ClearNumberHeaderEPNS2_19__tag_NUMBER_HEADERE;	.scl	3;	.type	32;	.endef
	.seh_proc	_ZN8Palmtree4Math4Core8InternalL17ClearNumberHeaderEPNS2_19__tag_NUMBER_HEADERE
_ZN8Palmtree4Math4Core8InternalL17ClearNumberHeaderEPNS2_19__tag_NUMBER_HEADERE:
.LFB5056:
	.loc 7 250 5
	.cfi_startproc
	pushq	%rbp
	.seh_pushreg	%rbp
	.cfi_def_cfa_offset 16
	.cfi_offset 6, -16
	movq	%rsp, %rbp
	.seh_setframe	%rbp, 0
	.cfi_def_cfa_register 6
	subq	$16, %rsp
	.seh_stackalloc	16
	.seh_endprologue
	movq	%rcx, 16(%rbp)
.LBB45:
.LBB46:
	.loc 7 254 24
	movq	16(%rbp), %rax
	movq	%rax, -8(%rbp)
	.loc 7 255 20
	movq	-8(%rbp), %rax
	movq	$0, (%rax)
	.loc 7 256 18
	movq	-8(%rbp), %rax
	addq	$8, %rax
	.loc 7 256 20
	movq	$0, (%rax)
	.loc 7 257 18
	movq	-8(%rbp), %rax
	addq	$16, %rax
	.loc 7 257 20
	movq	$0, (%rax)
	.loc 7 258 18
	movq	-8(%rbp), %rax
	addq	$24, %rax
	.loc 7 258 20
	movq	$0, (%rax)
	.loc 7 259 18
	movq	-8(%rbp), %rax
	addq	$32, %rax
	.loc 7 259 20
	movq	$0, (%rax)
	.loc 7 260 18
	movq	-8(%rbp), %rax
	addq	$40, %rax
	.loc 7 260 20
	movq	$0, (%rax)
	.loc 7 261 18
	movq	-8(%rbp), %rax
	addq	$48, %rax
	.loc 7 261 20
	movq	$0, (%rax)
	.loc 7 262 18
	movq	-8(%rbp), %rax
	addq	$56, %rax
	.loc 7 262 20
	movq	$0, (%rax)
	.loc 7 263 18
	movq	-8(%rbp), %rax
	addq	$64, %rax
	.loc 7 263 20
	movq	$0, (%rax)
	.loc 7 264 18
	movq	-8(%rbp), %rax
	addq	$72, %rax
	.loc 7 264 20
	movq	$0, (%rax)
.LBE46:
.LBE45:
	.loc 7 297 5
	nop
	addq	$16, %rsp
	popq	%rbp
	.cfi_restore 6
	.cfi_def_cfa 7, 8
	ret
	.cfi_endproc
.LFE5056:
	.seh_endproc
	.def	_ZN8Palmtree4Math4Core8InternalL16FillNumberHeaderEPNS2_19__tag_NUMBER_HEADERE;	.scl	3;	.type	32;	.endef
	.seh_proc	_ZN8Palmtree4Math4Core8InternalL16FillNumberHeaderEPNS2_19__tag_NUMBER_HEADERE
_ZN8Palmtree4Math4Core8InternalL16FillNumberHeaderEPNS2_19__tag_NUMBER_HEADERE:
.LFB5057:
	.loc 7 300 5
	.cfi_startproc
	pushq	%rbp
	.seh_pushreg	%rbp
	.cfi_def_cfa_offset 16
	.cfi_offset 6, -16
	movq	%rsp, %rbp
	.seh_setframe	%rbp, 0
	.cfi_def_cfa_register 6
	subq	$16, %rsp
	.seh_stackalloc	16
	.seh_endprologue
	movq	%rcx, 16(%rbp)
.LBB47:
.LBB48:
	.loc 7 304 24
	movq	16(%rbp), %rax
	movq	%rax, -8(%rbp)
	.loc 7 305 20
	movq	-8(%rbp), %rax
	movabsq	$-3689348814741910324, %rdx
	movq	%rdx, (%rax)
	.loc 7 306 18
	movq	-8(%rbp), %rax
	addq	$8, %rax
	.loc 7 306 20
	movq	%rdx, (%rax)
	.loc 7 307 18
	movq	-8(%rbp), %rax
	addq	$16, %rax
	.loc 7 307 20
	movq	%rdx, (%rax)
	.loc 7 308 18
	movq	-8(%rbp), %rax
	addq	$24, %rax
	.loc 7 308 20
	movq	%rdx, (%rax)
	.loc 7 309 18
	movq	-8(%rbp), %rax
	addq	$32, %rax
	.loc 7 309 20
	movq	%rdx, (%rax)
	.loc 7 310 18
	movq	-8(%rbp), %rax
	addq	$40, %rax
	.loc 7 310 20
	movq	%rdx, (%rax)
	.loc 7 311 18
	movq	-8(%rbp), %rax
	addq	$48, %rax
	.loc 7 311 20
	movq	%rdx, (%rax)
	.loc 7 312 18
	movq	-8(%rbp), %rax
	addq	$56, %rax
	.loc 7 312 20
	movq	%rdx, (%rax)
	.loc 7 313 18
	movq	-8(%rbp), %rax
	addq	$64, %rax
	.loc 7 313 20
	movq	%rdx, (%rax)
	.loc 7 314 18
	movq	-8(%rbp), %rax
	addq	$72, %rax
	.loc 7 314 20
	movq	%rdx, (%rax)
.LBE48:
.LBE47:
	.loc 7 347 5
	nop
	addq	$16, %rsp
	popq	%rbp
	.cfi_restore 6
	.cfi_def_cfa 7, 8
	ret
	.cfi_endproc
.LFE5057:
	.seh_endproc
	.def	_ZN8Palmtree4Math4Core8InternalL16InitializeNumberEPNS2_19__tag_NUMBER_HEADEREy;	.scl	3;	.type	32;	.endef
	.seh_proc	_ZN8Palmtree4Math4Core8InternalL16InitializeNumberEPNS2_19__tag_NUMBER_HEADEREy
_ZN8Palmtree4Math4Core8InternalL16InitializeNumberEPNS2_19__tag_NUMBER_HEADEREy:
.LFB5058:
	.loc 7 350 5
	.cfi_startproc
	pushq	%rbp
	.seh_pushreg	%rbp
	.cfi_def_cfa_offset 16
	.cfi_offset 6, -16
	movq	%rsp, %rbp
	.seh_setframe	%rbp, 0
	.cfi_def_cfa_register 6
	subq	$64, %rsp
	.seh_stackalloc	64
	.seh_endprologue
	movq	%rcx, 16(%rbp)
	movq	%rdx, 24(%rbp)
.LBB49:
	.loc 7 351 9
	cmpq	$0, 24(%rbp)
	je	.L98
.LBB50:
	.loc 7 355 47
	leaq	-24(%rbp), %rdx
	leaq	-16(%rbp), %rax
	movq	24(%rbp), %rcx
	movq	%rdx, %r8
	movq	%rax, %rdx
	call	_ZN8Palmtree4Math4Core8InternalL13AllocateBlockEyPyS3_
	movq	%rax, -8(%rbp)
	.loc 7 356 30
	movq	16(%rbp), %rcx
	call	_ZN8Palmtree4Math4Core8InternalL17ClearNumberHeaderEPNS2_19__tag_NUMBER_HEADERE
	.loc 7 357 27
	movq	16(%rbp), %rax
	movl	$1231244656, 12(%rax)
	.loc 7 358 27
	movq	16(%rbp), %rax
	movl	$1416522069, 16(%rax)
	.loc 7 359 31
	movq	16(%rbp), %rax
	movq	24(%rbp), %rdx
	movq	%rdx, 32(%rax)
	.loc 7 360 28
	movq	-16(%rbp), %rdx
	movq	16(%rbp), %rax
	movq	%rdx, 56(%rax)
	.loc 7 361 22
	movq	16(%rbp), %rax
	movq	-8(%rbp), %rdx
	movq	%rdx, 64(%rax)
	.loc 7 362 33
	movq	-24(%rbp), %rdx
	movq	16(%rbp), %rax
	movq	%rdx, 72(%rax)
	.loc 7 363 29
	movq	16(%rbp), %rax
	movzbl	48(%rax), %edx
	andl	$-3, %edx
	movb	%dl, 48(%rax)
.LBE50:
.LBE49:
	.loc 7 382 5
	jmp	.L100
.L98:
.LBB51:
	.loc 7 373 30
	movq	16(%rbp), %rcx
	call	_ZN8Palmtree4Math4Core8InternalL17ClearNumberHeaderEPNS2_19__tag_NUMBER_HEADERE
	.loc 7 374 27
	movq	16(%rbp), %rax
	movl	$1231244656, 12(%rax)
	.loc 7 375 27
	movq	16(%rbp), %rax
	movl	$1416522069, 16(%rax)
	.loc 7 376 31
	movq	16(%rbp), %rax
	movq	$0, 32(%rax)
	.loc 7 377 28
	movq	16(%rbp), %rax
	movq	$0, 56(%rax)
	.loc 7 378 22
	movq	16(%rbp), %rax
	movq	$0, 64(%rax)
	.loc 7 379 33
	movq	16(%rbp), %rax
	movq	$0, 72(%rax)
	.loc 7 380 29
	movq	16(%rbp), %rax
	movzbl	48(%rax), %edx
	andl	$-3, %edx
	movb	%dl, 48(%rax)
.L100:
.LBE51:
	.loc 7 382 5
	nop
	addq	$64, %rsp
	popq	%rbp
	.cfi_restore 6
	.cfi_def_cfa 7, 8
	ret
	.cfi_endproc
.LFE5058:
	.seh_endproc
	.def	_ZN8Palmtree4Math4Core8InternalL13CleanUpNumberEPNS2_19__tag_NUMBER_HEADERE;	.scl	3;	.type	32;	.endef
	.seh_proc	_ZN8Palmtree4Math4Core8InternalL13CleanUpNumberEPNS2_19__tag_NUMBER_HEADERE
_ZN8Palmtree4Math4Core8InternalL13CleanUpNumberEPNS2_19__tag_NUMBER_HEADERE:
.LFB5059:
	.loc 7 385 5
	.cfi_startproc
	pushq	%rbp
	.seh_pushreg	%rbp
	.cfi_def_cfa_offset 16
	.cfi_offset 6, -16
	movq	%rsp, %rbp
	.seh_setframe	%rbp, 0
	.cfi_def_cfa_register 6
	subq	$64, %rsp
	.seh_stackalloc	64
	.seh_endprologue
	movq	%rcx, 16(%rbp)
.LBB52:
	.loc 7 386 16
	movq	16(%rbp), %rax
	movq	64(%rax), %rax
	.loc 7 386 9
	testq	%rax, %rax
	je	.L103
.LBB53:
	.loc 7 388 26
	movq	16(%rbp), %rax
	movq	64(%rax), %rax
	movq	%rax, -8(%rbp)
	.loc 7 389 25
	movq	16(%rbp), %rax
	movq	56(%rax), %rax
	movq	%rax, -16(%rbp)
	.loc 7 390 25
	movq	16(%rbp), %rax
	movq	72(%rax), %rax
	movq	%rax, -24(%rbp)
	.loc 7 391 22
	movq	16(%rbp), %rax
	movq	$0, 64(%rax)
	.loc 7 397 28
	movq	-24(%rbp), %rcx
	movq	-16(%rbp), %rdx
	movq	-8(%rbp), %rax
	movq	%rcx, %r8
	movq	%rax, %rcx
	call	_ZN8Palmtree4Math4Core8InternalL15DeallocateBlockEPyyy
.L103:
.LBE53:
.LBE52:
	.loc 7 398 5
	nop
	addq	$64, %rsp
	popq	%rbp
	.cfi_restore 6
	.cfi_def_cfa 7, 8
	ret
	.cfi_endproc
.LFE5059:
	.seh_endproc
	.def	_ZN8Palmtree4Math4Core8InternalL13AttatchNumberEPNS2_19__tag_NUMBER_HEADEREy;	.scl	3;	.type	32;	.endef
	.seh_proc	_ZN8Palmtree4Math4Core8InternalL13AttatchNumberEPNS2_19__tag_NUMBER_HEADEREy
_ZN8Palmtree4Math4Core8InternalL13AttatchNumberEPNS2_19__tag_NUMBER_HEADEREy:
.LFB5060:
	.loc 7 401 5
	.cfi_startproc
	pushq	%rbp
	.seh_pushreg	%rbp
	.cfi_def_cfa_offset 16
	.cfi_offset 6, -16
	movq	%rsp, %rbp
	.seh_setframe	%rbp, 0
	.cfi_def_cfa_register 6
	subq	$32, %rsp
	.seh_stackalloc	32
	.seh_endprologue
	movq	%rcx, 16(%rbp)
	movq	%rdx, 24(%rbp)
	.loc 7 402 25
	movq	24(%rbp), %rax
	movq	%rax, %rdx
	movq	16(%rbp), %rcx
	call	_ZN8Palmtree4Math4Core8InternalL16InitializeNumberEPNS2_19__tag_NUMBER_HEADEREy
	.loc 7 403 22
	movq	16(%rbp), %rax
	movzbl	48(%rax), %edx
	orl	$1, %edx
	movb	%dl, 48(%rax)
	.loc 7 404 5
	nop
	addq	$32, %rsp
	popq	%rbp
	.cfi_restore 6
	.cfi_def_cfa 7, 8
	ret
	.cfi_endproc
.LFE5060:
	.seh_endproc
	.def	_ZN8Palmtree4Math4Core8InternalL14AllocateNumberEy;	.scl	3;	.type	32;	.endef
	.seh_proc	_ZN8Palmtree4Math4Core8InternalL14AllocateNumberEy
_ZN8Palmtree4Math4Core8InternalL14AllocateNumberEy:
.LFB5061:
	.loc 7 407 5
	.cfi_startproc
	pushq	%rbp
	.seh_pushreg	%rbp
	.cfi_def_cfa_offset 16
	.cfi_offset 6, -16
	pushq	%rbx
	.seh_pushreg	%rbx
	.cfi_def_cfa_offset 24
	.cfi_offset 3, -24
	subq	$88, %rsp
	.seh_stackalloc	88
	.cfi_def_cfa_offset 112
	leaq	128(%rsp), %rbp
	.seh_setframe	%rbp, 128
	.cfi_def_cfa 6, -16
	.seh_endprologue
	movq	%rcx, -16(%rbp)
	.loc 7 408 28
	leaq	-80(%rbp), %rax
	movq	%rax, %rcx
	call	_ZN8Palmtree4Math4Core8Internal18ResourceHolderUINTC1Ev
	.loc 7 409 62
	leaq	-80(%rbp), %rax
	movl	$80, %edx
	movq	%rax, %rcx
.LEHB0:
	call	_ZN8Palmtree4Math4Core8Internal18ResourceHolderUINT13AllocateBytesEy
	.loc 7 409 84
	movq	%rax, -88(%rbp)
	.loc 7 410 25
	movq	-88(%rbp), %rax
	movq	-16(%rbp), %rdx
	movq	%rax, %rcx
	call	_ZN8Palmtree4Math4Core8InternalL16InitializeNumberEPNS2_19__tag_NUMBER_HEADEREy
	.loc 7 411 12
	movq	-88(%rbp), %rax
	.loc 7 411 22
	movzbl	48(%rax), %edx
	andl	$-2, %edx
	movb	%dl, 48(%rax)
	.loc 7 412 25
	movq	-88(%rbp), %rdx
	leaq	-80(%rbp), %rax
	movq	%rax, %rcx
	call	_ZN8Palmtree4Math4Core8Internal18ResourceHolderUINT11UnlinkBytesEPv
.LEHE0:
	.loc 7 413 18
	movq	-88(%rbp), %rbx
	.loc 7 408 28
	leaq	-80(%rbp), %rax
	movq	%rax, %rcx
	call	_ZN8Palmtree4Math4Core8Internal18ResourceHolderUINTD1Ev
	.loc 7 413 18
	movq	%rbx, %rax
	jmp	.L109
.L108:
	movq	%rax, %rbx
	.loc 7 408 28
	leaq	-80(%rbp), %rax
	movq	%rax, %rcx
	call	_ZN8Palmtree4Math4Core8Internal18ResourceHolderUINTD1Ev
	movq	%rbx, %rax
	movq	%rax, %rcx
.LEHB1:
	call	_Unwind_Resume
.LEHE1:
.L109:
	.loc 7 414 5
	addq	$88, %rsp
	popq	%rbx
	.cfi_restore 3
	popq	%rbp
	.cfi_restore 6
	.cfi_def_cfa 7, -72
	ret
	.cfi_endproc
.LFE5061:
	.seh_handler	__gxx_personality_seh0, @unwind, @except
	.seh_handlerdata
.LLSDA5061:
	.byte	0xff
	.byte	0xff
	.byte	0x1
	.uleb128 .LLSDACSE5061-.LLSDACSB5061
.LLSDACSB5061:
	.uleb128 .LEHB0-.LFB5061
	.uleb128 .LEHE0-.LEHB0
	.uleb128 .L108-.LFB5061
	.uleb128 0
	.uleb128 .LEHB1-.LFB5061
	.uleb128 .LEHE1-.LEHB1
	.uleb128 0
	.uleb128 0
.LLSDACSE5061:
	.text
	.seh_endproc
	.def	_ZN8Palmtree4Math4Core8InternalL13DetatchNumberEPNS2_19__tag_NUMBER_HEADERE;	.scl	3;	.type	32;	.endef
	.seh_proc	_ZN8Palmtree4Math4Core8InternalL13DetatchNumberEPNS2_19__tag_NUMBER_HEADERE
_ZN8Palmtree4Math4Core8InternalL13DetatchNumberEPNS2_19__tag_NUMBER_HEADERE:
.LFB5062:
	.loc 7 417 5
	.cfi_startproc
	pushq	%rbp
	.seh_pushreg	%rbp
	.cfi_def_cfa_offset 16
	.cfi_offset 6, -16
	movq	%rsp, %rbp
	.seh_setframe	%rbp, 0
	.cfi_def_cfa_register 6
	subq	$32, %rsp
	.seh_stackalloc	32
	.seh_endprologue
	movq	%rcx, 16(%rbp)
	.loc 7 418 9
	cmpq	$0, 16(%rbp)
	je	.L112
	.loc 7 418 32 discriminator 1
	movq	16(%rbp), %rax
	movzbl	48(%rax), %eax
	andl	$1, %eax
	.loc 7 418 26 discriminator 1
	testb	%al, %al
	je	.L112
	.loc 7 419 26
	movq	16(%rbp), %rcx
	call	_ZN8Palmtree4Math4Core8InternalL13CleanUpNumberEPNS2_19__tag_NUMBER_HEADERE
.L112:
	.loc 7 420 5
	nop
	addq	$32, %rsp
	popq	%rbp
	.cfi_restore 6
	.cfi_def_cfa 7, 8
	ret
	.cfi_endproc
.LFE5062:
	.seh_endproc
	.def	_ZN8Palmtree4Math4Core8InternalL16DeallocateNumberEPNS2_19__tag_NUMBER_HEADERE;	.scl	3;	.type	32;	.endef
	.seh_proc	_ZN8Palmtree4Math4Core8InternalL16DeallocateNumberEPNS2_19__tag_NUMBER_HEADERE
_ZN8Palmtree4Math4Core8InternalL16DeallocateNumberEPNS2_19__tag_NUMBER_HEADERE:
.LFB5063:
	.loc 7 423 5
	.cfi_startproc
	pushq	%rbp
	.seh_pushreg	%rbp
	.cfi_def_cfa_offset 16
	.cfi_offset 6, -16
	movq	%rsp, %rbp
	.seh_setframe	%rbp, 0
	.cfi_def_cfa_register 6
	subq	$32, %rsp
	.seh_stackalloc	32
	.seh_endprologue
	movq	%rcx, 16(%rbp)
	.loc 7 424 9
	cmpq	$0, 16(%rbp)
	je	.L115
	.loc 7 424 29 discriminator 1
	movq	16(%rbp), %rax
	movzbl	48(%rax), %eax
	andl	$1, %eax
	.loc 7 424 26 discriminator 1
	testb	%al, %al
	jne	.L115
	.loc 7 426 26
	movq	16(%rbp), %rcx
	call	_ZN8Palmtree4Math4Core8InternalL13CleanUpNumberEPNS2_19__tag_NUMBER_HEADERE
	.loc 7 427 29
	movq	16(%rbp), %rcx
	call	_ZN8Palmtree4Math4Core8InternalL16FillNumberHeaderEPNS2_19__tag_NUMBER_HEADERE
	.loc 7 428 21
	movq	_ZN8Palmtree4Math4Core8Internal10hLocalHeapE(%rip), %rax
	movq	16(%rbp), %r8
	movl	$0, %edx
	movq	%rax, %rcx
	movq	__imp_HeapFree(%rip), %rax
	call	*%rax
.LVL8:
.L115:
	.loc 7 435 5
	nop
	addq	$32, %rsp
	popq	%rbp
	.cfi_restore 6
	.cfi_def_cfa 7, 8
	ret
	.cfi_endproc
.LFE5063:
	.seh_endproc
	.def	_ZN8Palmtree4Math4Core8InternalL21GetEffectiveBitLengthEPyyS3_;	.scl	3;	.type	32;	.endef
	.seh_proc	_ZN8Palmtree4Math4Core8InternalL21GetEffectiveBitLengthEPyyS3_
_ZN8Palmtree4Math4Core8InternalL21GetEffectiveBitLengthEPyyS3_:
.LFB5064:
	.loc 7 438 5
	.cfi_startproc
	pushq	%rbp
	.seh_pushreg	%rbp
	.cfi_def_cfa_offset 16
	.cfi_offset 6, -16
	pushq	%rbx
	.seh_pushreg	%rbx
	.cfi_def_cfa_offset 24
	.cfi_offset 3, -24
	subq	$40, %rsp
	.seh_stackalloc	40
	.cfi_def_cfa_offset 64
	leaq	128(%rsp), %rbp
	.seh_setframe	%rbp, 128
	.cfi_def_cfa 6, -64
	.seh_endprologue
	movq	%rcx, -64(%rbp)
	movq	%rdx, -56(%rbp)
	movq	%r8, -48(%rbp)
	.loc 7 439 9
	cmpq	$0, -64(%rbp)
	jne	.L117
	.loc 7 441 35
	movq	-48(%rbp), %rax
	movq	$0, (%rax)
	.loc 7 442 22
	movl	$0, %eax
	jmp	.L118
.L117:
	.loc 7 444 11
	movq	-56(%rbp), %rax
	salq	$3, %rax
	addq	%rax, -64(%rbp)
.L121:
	.loc 7 445 27
	cmpq	$0, -56(%rbp)
	je	.L119
	.loc 7 447 13
	subq	$8, -64(%rbp)
	.loc 7 448 17
	movq	-64(%rbp), %rax
	movq	(%rax), %rax
	.loc 7 448 13
	testq	%rax, %rax
	je	.L120
	.loc 7 450 39
	movq	-48(%rbp), %rax
	movq	-56(%rbp), %rdx
	movq	%rdx, (%rax)
	.loc 7 451 36
	movq	-56(%rbp), %rax
	salq	$6, %rax
	movq	%rax, %rbx
	.loc 7 451 81
	movq	-64(%rbp), %rax
	movq	(%rax), %rax
	movq	%rax, %rcx
	call	_LZCNT_ALT_UNIT
	cltq
	.loc 7 451 85
	subq	%rax, %rbx
	movq	%rbx, %rax
	jmp	.L118
.L120:
	.loc 7 453 13
	subq	$1, -56(%rbp)
	.loc 7 445 9
	jmp	.L121
.L119:
	.loc 7 455 31
	movq	-48(%rbp), %rax
	movq	$0, (%rax)
	.loc 7 456 18
	movl	$0, %eax
.L118:
	.loc 7 457 5
	addq	$40, %rsp
	popq	%rbx
	.cfi_restore 3
	popq	%rbp
	.cfi_restore 6
	.cfi_def_cfa 7, -24
	ret
	.cfi_endproc
.LFE5064:
	.seh_endproc
	.def	_ZN8Palmtree4Math4Core8InternalL23GetTrailingZeroBitCountEPyy;	.scl	3;	.type	32;	.endef
	.seh_proc	_ZN8Palmtree4Math4Core8InternalL23GetTrailingZeroBitCountEPyy
_ZN8Palmtree4Math4Core8InternalL23GetTrailingZeroBitCountEPyy:
.LFB5065:
	.loc 7 460 5
	.cfi_startproc
	pushq	%rbp
	.seh_pushreg	%rbp
	.cfi_def_cfa_offset 16
	.cfi_offset 6, -16
	movq	%rsp, %rbp
	.seh_setframe	%rbp, 0
	.cfi_def_cfa_register 6
	subq	$48, %rsp
	.seh_stackalloc	48
	.seh_endprologue
	movq	%rcx, 16(%rbp)
	movq	%rdx, 24(%rbp)
	.loc 7 461 21
	movq	$0, -8(%rbp)
.L126:
	.loc 7 462 27
	cmpq	$0, 24(%rbp)
	je	.L123
	.loc 7 464 13
	subq	$1, 24(%rbp)
	.loc 7 465 17
	movq	16(%rbp), %rax
	movq	(%rax), %rax
	.loc 7 465 13
	testq	%rax, %rax
	je	.L124
	.loc 7 466 52
	movq	16(%rbp), %rax
	movq	(%rax), %rax
	movq	%rax, %rcx
	call	_TZCNT_ALT_UNIT
	cltq
	.loc 7 466 56
	movq	-8(%rbp), %rdx
	addq	%rdx, %rax
	jmp	.L125
.L124:
	.loc 7 467 23
	addq	$64, -8(%rbp)
	.loc 7 468 13
	addq	$8, 16(%rbp)
	.loc 7 462 9
	jmp	.L126
.L123:
	.loc 7 471 18
	movl	$0, %eax
.L125:
	.loc 7 472 5
	addq	$48, %rsp
	popq	%rbp
	.cfi_restore 6
	.cfi_def_cfa 7, 8
	ret
	.cfi_endproc
.LFE5065:
	.seh_endproc
	.globl	_ZN8Palmtree4Math4Core8Internal12CommitNumberEPNS2_19__tag_NUMBER_HEADERE
	.def	_ZN8Palmtree4Math4Core8Internal12CommitNumberEPNS2_19__tag_NUMBER_HEADERE;	.scl	2;	.type	32;	.endef
	.seh_proc	_ZN8Palmtree4Math4Core8Internal12CommitNumberEPNS2_19__tag_NUMBER_HEADERE
_ZN8Palmtree4Math4Core8Internal12CommitNumberEPNS2_19__tag_NUMBER_HEADERE:
.LFB5066:
	.loc 7 475 5
	.cfi_startproc
	pushq	%rbp
	.seh_pushreg	%rbp
	.cfi_def_cfa_offset 16
	.cfi_offset 6, -16
	movq	%rsp, %rbp
	.seh_setframe	%rbp, 0
	.cfi_def_cfa_register 6
	subq	$32, %rsp
	.seh_stackalloc	32
	.seh_endprologue
	movq	%rcx, 16(%rbp)
	.loc 7 476 50
	movq	16(%rbp), %rax
	leaq	24(%rax), %rcx
	movq	16(%rbp), %rax
	movq	56(%rax), %rdx
	movq	16(%rbp), %rax
	movq	64(%rax), %rax
	movq	%rcx, %r8
	movq	%rax, %rcx
	call	_ZN8Palmtree4Math4Core8InternalL21GetEffectiveBitLengthEPyyS3_
	movq	%rax, %rdx
	.loc 7 476 27
	movq	16(%rbp), %rax
	movq	%rdx, 32(%rax)
	.loc 7 477 16
	movq	16(%rbp), %rax
	movq	32(%rax), %rax
	.loc 7 477 9
	testq	%rax, %rax
	jne	.L128
	.loc 7 479 26
	movq	16(%rbp), %rax
	movq	$0, (%rax)
	.loc 7 480 24
	movq	16(%rbp), %rax
	movzbl	8(%rax), %edx
	orl	$1, %edx
	movb	%dl, 8(%rax)
	.loc 7 481 23
	movq	16(%rbp), %rax
	movzbl	8(%rax), %edx
	andl	$-3, %edx
	movb	%dl, 8(%rax)
	.loc 7 482 24
	movq	16(%rbp), %rax
	movzbl	8(%rax), %edx
	orl	$4, %edx
	movb	%dl, 8(%rax)
	.loc 7 483 41
	movq	16(%rbp), %rax
	movq	$0, 40(%rax)
	.loc 7 484 32
	movq	16(%rbp), %rax
	movzbl	8(%rax), %edx
	andl	$-9, %edx
	movb	%dl, 8(%rax)
	.loc 7 485 29
	movq	16(%rbp), %rax
	movzbl	48(%rax), %edx
	orl	$2, %edx
	movb	%dl, 48(%rax)
	.loc 7 507 5
	jmp	.L131
.L128:
	.loc 7 487 21
	movq	16(%rbp), %rax
	movq	32(%rax), %rax
	.loc 7 487 14
	cmpq	$1, %rax
	jne	.L130
	.loc 7 489 45
	movq	16(%rbp), %rax
	movq	24(%rax), %rdx
	movq	16(%rbp), %rax
	movq	64(%rax), %rax
	movq	%rax, %rcx
	call	_ZN8Palmtree4Math4Core8InternalL17CalculateHashCodeEPyy
	movq	%rax, %rdx
	.loc 7 489 26
	movq	16(%rbp), %rax
	movq	%rdx, (%rax)
	.loc 7 490 24
	movq	16(%rbp), %rax
	movzbl	8(%rax), %edx
	andl	$-2, %edx
	movb	%dl, 8(%rax)
	.loc 7 491 28
	movq	16(%rbp), %rax
	movq	64(%rax), %rax
	.loc 7 491 35
	movq	(%rax), %rax
	.loc 7 491 37
	cmpq	$1, %rax
	sete	%dl
	.loc 7 491 23
	movq	16(%rbp), %rax
	andl	$1, %edx
	leal	(%rdx,%rdx), %ecx
	movzbl	8(%rax), %edx
	andl	$-3, %edx
	orl	%ecx, %edx
	movb	%dl, 8(%rax)
	.loc 7 492 31
	movq	16(%rbp), %rax
	movq	64(%rax), %rax
	.loc 7 492 38
	movq	(%rax), %rax
	.loc 7 492 40
	andl	$1, %eax
	.loc 7 492 26
	testq	%rax, %rax
	sete	%dl
	.loc 7 492 24
	movq	16(%rbp), %rax
	andl	$1, %edx
	leal	0(,%rdx,4), %ecx
	movzbl	8(%rax), %edx
	andl	$-5, %edx
	orl	%ecx, %edx
	movb	%dl, 8(%rax)
	.loc 7 493 41
	movq	16(%rbp), %rax
	movq	$0, 40(%rax)
	.loc 7 494 32
	movq	16(%rbp), %rax
	movzbl	8(%rax), %edx
	orl	$8, %edx
	movb	%dl, 8(%rax)
	.loc 7 495 29
	movq	16(%rbp), %rax
	movzbl	48(%rax), %edx
	orl	$2, %edx
	movb	%dl, 48(%rax)
	.loc 7 507 5
	jmp	.L131
.L130:
	.loc 7 499 45
	movq	16(%rbp), %rax
	movq	24(%rax), %rdx
	movq	16(%rbp), %rax
	movq	64(%rax), %rax
	movq	%rax, %rcx
	call	_ZN8Palmtree4Math4Core8InternalL17CalculateHashCodeEPyy
	movq	%rax, %rdx
	.loc 7 499 26
	movq	16(%rbp), %rax
	movq	%rdx, (%rax)
	.loc 7 500 24
	movq	16(%rbp), %rax
	movzbl	8(%rax), %edx
	andl	$-2, %edx
	movb	%dl, 8(%rax)
	.loc 7 501 23
	movq	16(%rbp), %rax
	movzbl	8(%rax), %edx
	andl	$-3, %edx
	movb	%dl, 8(%rax)
	.loc 7 502 31
	movq	16(%rbp), %rax
	movq	64(%rax), %rax
	.loc 7 502 38
	movq	(%rax), %rax
	.loc 7 502 40
	andl	$1, %eax
	.loc 7 502 26
	testq	%rax, %rax
	sete	%dl
	.loc 7 502 24
	movq	16(%rbp), %rax
	andl	$1, %edx
	leal	0(,%rdx,4), %ecx
	movzbl	8(%rax), %edx
	andl	$-5, %edx
	orl	%ecx, %edx
	movb	%dl, 8(%rax)
	.loc 7 503 66
	movq	16(%rbp), %rax
	movq	24(%rax), %rdx
	movq	16(%rbp), %rax
	movq	64(%rax), %rax
	movq	%rax, %rcx
	call	_ZN8Palmtree4Math4Core8InternalL23GetTrailingZeroBitCountEPyy
	movq	%rax, %rdx
	.loc 7 503 41
	movq	16(%rbp), %rax
	movq	%rdx, 40(%rax)
	.loc 7 504 37
	movq	16(%rbp), %rax
	movq	40(%rax), %rax
	.loc 7 504 62
	leaq	1(%rax), %rdx
	.loc 7 504 72
	movq	16(%rbp), %rax
	movq	32(%rax), %rax
	.loc 7 504 66
	cmpq	%rax, %rdx
	sete	%dl
	.loc 7 504 32
	movq	16(%rbp), %rax
	andl	$1, %edx
	leal	0(,%rdx,8), %ecx
	movzbl	8(%rax), %edx
	andl	$-9, %edx
	orl	%ecx, %edx
	movb	%dl, 8(%rax)
	.loc 7 505 29
	movq	16(%rbp), %rax
	movzbl	48(%rax), %edx
	orl	$2, %edx
	movb	%dl, 48(%rax)
.L131:
	.loc 7 507 5
	nop
	addq	$32, %rsp
	popq	%rbp
	.cfi_restore 6
	.cfi_def_cfa 7, 8
	ret
	.cfi_endproc
.LFE5066:
	.seh_endproc
	.section .rdata,"dr"
	.align 8
.LC8:
	.ascii "p\0m\0c\0_\0m\0e\0m\0o\0r\0y\0.\0c\0p\0p\0;\0C\0h\0e\0c\0k\0N\0u\0m\0b\0e\0r\0;\0"
	.ascii "1\0\0\0"
	.align 8
.LC9:
	.ascii "p\0m\0c\0_\0m\0e\0m\0o\0r\0y\0.\0c\0p\0p\0;\0C\0h\0e\0c\0k\0N\0u\0m\0b\0e\0r\0;\0"
	.ascii "2\0\0\0"
	.text
	.globl	_ZN8Palmtree4Math4Core8Internal11CheckNumberEPNS2_19__tag_NUMBER_HEADERE
	.def	_ZN8Palmtree4Math4Core8Internal11CheckNumberEPNS2_19__tag_NUMBER_HEADERE;	.scl	2;	.type	32;	.endef
	.seh_proc	_ZN8Palmtree4Math4Core8Internal11CheckNumberEPNS2_19__tag_NUMBER_HEADERE
_ZN8Palmtree4Math4Core8Internal11CheckNumberEPNS2_19__tag_NUMBER_HEADERE:
.LFB5067:
	.loc 7 510 5
	.cfi_startproc
	pushq	%rbp
	.seh_pushreg	%rbp
	.cfi_def_cfa_offset 16
	.cfi_offset 6, -16
	pushq	%rbx
	.seh_pushreg	%rbx
	.cfi_def_cfa_offset 24
	.cfi_offset 3, -24
	subq	$56, %rsp
	.seh_stackalloc	56
	.cfi_def_cfa_offset 80
	leaq	128(%rsp), %rbp
	.seh_setframe	%rbp, 128
	.cfi_def_cfa 6, -48
	.seh_endprologue
	movq	%rcx, -48(%rbp)
	.loc 7 511 16
	movq	-48(%rbp), %rax
	movl	12(%rax), %eax
	.loc 7 511 9
	cmpl	$1231244656, %eax
	jne	.L133
	.loc 7 511 127 discriminator 1
	movq	-48(%rbp), %rax
	movl	16(%rax), %eax
	.loc 7 511 121 discriminator 1
	cmpl	$1416522069, %eax
	je	.L134
.L133:
	.loc 7 512 125
	movl	$40, %ecx
	call	__cxa_allocate_exception
	movq	%rax, %rbx
	leaq	.LC8(%rip), %r8
	leaq	.LC4(%rip), %rdx
	movq	%rbx, %rcx
	call	_ZN8Palmtree4Math4Core8Internal18BadBufferExceptionC1EPKwS5_
	leaq	_ZN8Palmtree4Math4Core8Internal18BadBufferExceptionD1Ev(%rip), %rax
	movq	%rax, %r8
	leaq	_ZTIN8Palmtree4Math4Core8Internal18BadBufferExceptionE(%rip), %rdx
	movq	%rbx, %rcx
	call	__cxa_throw
.L134:
.LBB54:
	.loc 7 513 13
	movq	-48(%rbp), %rax
	movzbl	8(%rax), %eax
	andl	$1, %eax
	.loc 7 513 9
	testb	%al, %al
	jne	.L138
.LBB55:
	.loc 7 515 23
	movq	-48(%rbp), %rax
	movq	72(%rax), %rcx
	movq	-48(%rbp), %rax
	movq	56(%rax), %rdx
	movq	-48(%rbp), %rax
	movq	64(%rax), %rax
	movq	%rcx, %r8
	movq	%rax, %rcx
	call	_ZN8Palmtree4Math4Core8InternalL10CheckBlockEPyyy
.LBB56:
	.loc 7 517 32
	movq	-48(%rbp), %rax
	movzbl	48(%rax), %eax
	andl	$2, %eax
	.loc 7 517 13
	testb	%al, %al
	je	.L138
.LBB57:
	.loc 7 519 65
	movq	-48(%rbp), %rax
	movq	24(%rax), %rdx
	movq	-48(%rbp), %rax
	movq	64(%rax), %rax
	movq	%rax, %rcx
	call	_ZN8Palmtree4Math4Core8InternalL17CalculateHashCodeEPyy
	movq	%rax, -88(%rbp)
	.loc 7 520 29
	movq	-48(%rbp), %rax
	movq	(%rax), %rax
	movq	%rax, -96(%rbp)
	.loc 7 521 17
	movq	-88(%rbp), %rax
	cmpq	-96(%rbp), %rax
	je	.L138
	.loc 7 522 133
	movl	$40, %ecx
	call	__cxa_allocate_exception
	movq	%rax, %rbx
	leaq	.LC9(%rip), %r8
	leaq	.LC4(%rip), %rdx
	movq	%rbx, %rcx
	call	_ZN8Palmtree4Math4Core8Internal18BadBufferExceptionC1EPKwS5_
	leaq	_ZN8Palmtree4Math4Core8Internal18BadBufferExceptionD1Ev(%rip), %rax
	movq	%rax, %r8
	leaq	_ZTIN8Palmtree4Math4Core8Internal18BadBufferExceptionE(%rip), %rdx
	movq	%rbx, %rcx
	call	__cxa_throw
.L138:
.LBE57:
.LBE56:
.LBE55:
.LBE54:
	.loc 7 526 5
	nop
	addq	$56, %rsp
	popq	%rbx
	.cfi_restore 3
	popq	%rbp
	.cfi_restore 6
	.cfi_def_cfa 7, -40
	ret
	.cfi_endproc
.LFE5067:
	.seh_endproc
	.globl	_ZN8Palmtree4Math4Core8Internal15DuplicateNumberEPNS2_19__tag_NUMBER_HEADERE
	.def	_ZN8Palmtree4Math4Core8Internal15DuplicateNumberEPNS2_19__tag_NUMBER_HEADERE;	.scl	2;	.type	32;	.endef
	.seh_proc	_ZN8Palmtree4Math4Core8Internal15DuplicateNumberEPNS2_19__tag_NUMBER_HEADERE
_ZN8Palmtree4Math4Core8Internal15DuplicateNumberEPNS2_19__tag_NUMBER_HEADERE:
.LFB5068:
	.loc 7 529 5
	.cfi_startproc
	pushq	%rbp
	.seh_pushreg	%rbp
	.cfi_def_cfa_offset 16
	.cfi_offset 6, -16
	movq	%rsp, %rbp
	.seh_setframe	%rbp, 0
	.cfi_def_cfa_register 6
	subq	$48, %rsp
	.seh_stackalloc	48
	.seh_endprologue
	movq	%rcx, 16(%rbp)
	.loc 7 530 25
	movq	16(%rbp), %rax
	movzbl	48(%rax), %eax
	andl	$1, %eax
	.loc 7 530 9
	testb	%al, %al
	je	.L140
	.loc 7 531 22
	movq	16(%rbp), %rax
	jmp	.L143
.L140:
	.loc 7 532 23
	movq	16(%rbp), %rax
	movzbl	8(%rax), %eax
	andl	$1, %eax
	.loc 7 532 9
	testb	%al, %al
	je	.L142
	.loc 7 533 33
	leaq	_ZN8Palmtree4Math4Core8Internal11number_zeroE(%rip), %rax
	jmp	.L143
.L142:
	.loc 7 534 38
	movq	16(%rbp), %rax
	.loc 7 534 21
	movq	32(%rax), %rax
	movq	%rax, -8(%rbp)
	.loc 7 535 42
	movq	-8(%rbp), %rax
	movq	%rax, %rcx
	call	_ZN8Palmtree4Math4Core8InternalL14AllocateNumberEy
	.loc 7 535 54
	movq	%rax, -16(%rbp)
	.loc 7 536 26
	movq	-16(%rbp), %rax
	movq	56(%rax), %rcx
	movq	16(%rbp), %rax
	.loc 7 536 40
	movq	64(%rax), %rdx
	.loc 7 536 26
	movq	-16(%rbp), %rax
	movq	64(%rax), %rax
	movq	%rcx, %r8
	movq	%rax, %rcx
	call	_COPY_MEMORY_UNIT
	.loc 7 537 21
	movq	-16(%rbp), %rax
	movq	%rax, %rcx
	call	_ZN8Palmtree4Math4Core8Internal12CommitNumberEPNS2_19__tag_NUMBER_HEADERE
	.loc 7 538 18
	movq	-16(%rbp), %rax
.L143:
	.loc 7 539 5 discriminator 1
	addq	$48, %rsp
	popq	%rbp
	.cfi_restore 6
	.cfi_def_cfa 7, 8
	ret
	.cfi_endproc
.LFE5068:
	.seh_endproc
	.section .rdata,"dr"
	.align 2
.LC10:
	.ascii "\25_pet\0y\0p\0e\0L0*g\345wn0$Pg0Y0\2"
	.ascii "0\0\0"
	.text
	.globl	_ZN8Palmtree4Math4Core8Internal22PMC_GetConstantValue_IEi
	.def	_ZN8Palmtree4Math4Core8Internal22PMC_GetConstantValue_IEi;	.scl	2;	.type	32;	.endef
	.seh_proc	_ZN8Palmtree4Math4Core8Internal22PMC_GetConstantValue_IEi
_ZN8Palmtree4Math4Core8Internal22PMC_GetConstantValue_IEi:
.LFB5069:
	.loc 7 542 5
	.cfi_startproc
	pushq	%rbp
	.seh_pushreg	%rbp
	.cfi_def_cfa_offset 16
	.cfi_offset 6, -16
	pushq	%rbx
	.seh_pushreg	%rbx
	.cfi_def_cfa_offset 24
	.cfi_offset 3, -24
	subq	$40, %rsp
	.seh_stackalloc	40
	.cfi_def_cfa_offset 64
	leaq	128(%rsp), %rbp
	.seh_setframe	%rbp, 128
	.cfi_def_cfa 6, -64
	.seh_endprologue
	movl	%ecx, -64(%rbp)
	cmpl	$1, -64(%rbp)
	je	.L145
	cmpl	$2, -64(%rbp)
	je	.L146
	jmp	.L149
.L145:
	.loc 7 546 50
	leaq	_ZN8Palmtree4Math4Core8Internal11number_zeroE(%rip), %rax
	jmp	.L148
.L146:
	.loc 7 548 49
	leaq	_ZN8Palmtree4Math4Core8Internal10number_oneE(%rip), %rax
	jmp	.L148
.L149:
	.loc 7 550 74
	movl	$32, %ecx
	call	__cxa_allocate_exception
	movq	%rax, %rbx
	leaq	.LC10(%rip), %rdx
	movq	%rbx, %rcx
	call	_ZN8Palmtree4Math4Core8Internal17ArgumentExceptionC1EPKw
	leaq	_ZN8Palmtree4Math4Core8Internal17ArgumentExceptionD1Ev(%rip), %rax
	movq	%rax, %r8
	leaq	_ZTIN8Palmtree4Math4Core8Internal17ArgumentExceptionE(%rip), %rdx
	movq	%rbx, %rcx
	call	__cxa_throw
.L148:
	.loc 7 552 5
	addq	$40, %rsp
	popq	%rbx
	.cfi_restore 3
	popq	%rbp
	.cfi_restore 6
	.cfi_def_cfa 7, -24
	ret
	.cfi_endproc
.LFE5069:
	.seh_endproc
	.globl	_ZN8Palmtree4Math4Core8Internal11PMC_DisposeEPNS2_21__tag_PMC_HANDLE_UINTE
	.def	_ZN8Palmtree4Math4Core8Internal11PMC_DisposeEPNS2_21__tag_PMC_HANDLE_UINTE;	.scl	2;	.type	32;	.endef
	.seh_proc	_ZN8Palmtree4Math4Core8Internal11PMC_DisposeEPNS2_21__tag_PMC_HANDLE_UINTE
_ZN8Palmtree4Math4Core8Internal11PMC_DisposeEPNS2_21__tag_PMC_HANDLE_UINTE:
.LFB5070:
	.loc 7 555 5
	.cfi_startproc
	pushq	%rbp
	.seh_pushreg	%rbp
	.cfi_def_cfa_offset 16
	.cfi_offset 6, -16
	movq	%rsp, %rbp
	.seh_setframe	%rbp, 0
	.cfi_def_cfa_register 6
	subq	$48, %rsp
	.seh_stackalloc	48
	.seh_endprologue
	movq	%rcx, 16(%rbp)
	.loc 7 556 24
	movq	16(%rbp), %rax
	movq	%rax, -8(%rbp)
	.loc 7 557 20
	movq	-8(%rbp), %rax
	movq	%rax, %rcx
	call	_ZN8Palmtree4Math4Core8Internal11CheckNumberEPNS2_19__tag_NUMBER_HEADERE
	.loc 7 558 25
	movq	-8(%rbp), %rax
	movq	%rax, %rcx
	call	_ZN8Palmtree4Math4Core8InternalL16DeallocateNumberEPNS2_19__tag_NUMBER_HEADERE
	.loc 7 559 5
	nop
	addq	$48, %rsp
	popq	%rbp
	.cfi_restore 6
	.cfi_def_cfa 7, 8
	ret
	.cfi_endproc
.LFE5070:
	.seh_endproc
	.section .rdata,"dr"
	.align 2
.LC11:
	.ascii "x\0\0\0"
	.align 8
.LC12:
	.ascii "\25_pek0n\0u\0l\0l\0p\0t\0r\0L0\16NH0\211"
	.ascii "0\214"
	.ascii "0f0D0~0Y0\2"
	.ascii "0\0\0"
	.text
	.globl	_ZN8Palmtree4Math4Core8Internal11PMC_Clone_XEPNS2_21__tag_PMC_HANDLE_UINTE
	.def	_ZN8Palmtree4Math4Core8Internal11PMC_Clone_XEPNS2_21__tag_PMC_HANDLE_UINTE;	.scl	2;	.type	32;	.endef
	.seh_proc	_ZN8Palmtree4Math4Core8Internal11PMC_Clone_XEPNS2_21__tag_PMC_HANDLE_UINTE
_ZN8Palmtree4Math4Core8Internal11PMC_Clone_XEPNS2_21__tag_PMC_HANDLE_UINTE:
.LFB5071:
	.loc 7 562 5
	.cfi_startproc
	pushq	%rbp
	.seh_pushreg	%rbp
	.cfi_def_cfa_offset 16
	.cfi_offset 6, -16
	pushq	%rbx
	.seh_pushreg	%rbx
	.cfi_def_cfa_offset 24
	.cfi_offset 3, -24
	subq	$88, %rsp
	.seh_stackalloc	88
	.cfi_def_cfa_offset 112
	leaq	128(%rsp), %rbp
	.seh_setframe	%rbp, 128
	.cfi_def_cfa 6, -16
	.seh_endprologue
	movq	%rcx, -16(%rbp)
	.loc 7 563 9
	cmpq	$0, -16(%rbp)
	jne	.L152
	.loc 7 564 96
	movl	$32, %ecx
	call	__cxa_allocate_exception
	movq	%rax, %rbx
	leaq	.LC11(%rip), %r8
	leaq	.LC12(%rip), %rdx
	movq	%rbx, %rcx
	call	_ZN8Palmtree4Math4Core8Internal21ArgumentNullExceptionC1EPKwS5_
	leaq	_ZN8Palmtree4Math4Core8Internal21ArgumentNullExceptionD1Ev(%rip), %rax
	movq	%rax, %r8
	leaq	_ZTIN8Palmtree4Math4Core8Internal21ArgumentNullExceptionE(%rip), %rdx
	movq	%rbx, %rcx
.LEHB2:
	call	__cxa_throw
.L152:
	.loc 7 565 24
	movq	-16(%rbp), %rax
	movq	%rax, -64(%rbp)
	.loc 7 566 20
	movq	-64(%rbp), %rax
	movq	%rax, %rcx
	call	_ZN8Palmtree4Math4Core8Internal11CheckNumberEPNS2_19__tag_NUMBER_HEADERE
.LEHE2:
	.loc 7 567 28
	leaq	-96(%rbp), %rax
	movq	%rax, %rcx
	call	_ZN8Palmtree4Math4Core8Internal18ResourceHolderUINTC1Ev
	.loc 7 569 24
	movq	-64(%rbp), %rax
	movzbl	8(%rax), %eax
	andl	$1, %eax
	.loc 7 569 9
	testb	%al, %al
	je	.L153
	.loc 7 570 16
	leaq	_ZN8Palmtree4Math4Core8Internal11number_zeroE(%rip), %rax
	movq	%rax, -56(%rbp)
	jmp	.L154
.L153:
	.loc 7 572 33
	movq	-64(%rbp), %rax
	movq	%rax, %rcx
.LEHB3:
	call	_ZN8Palmtree4Math4Core8Internal15DuplicateNumberEPNS2_19__tag_NUMBER_HEADERE
	movq	%rax, -56(%rbp)
.L154:
	.loc 7 573 24
	movq	-56(%rbp), %rdx
	leaq	-96(%rbp), %rax
	movq	%rax, %rcx
	call	_ZN8Palmtree4Math4Core8Internal18ResourceHolderUINT10HookNumberEPNS2_19__tag_NUMBER_HEADERE
	.loc 7 575 20
	movq	-56(%rbp), %rax
	movq	%rax, %rcx
	call	_ZN8Palmtree4Math4Core8Internal11CheckNumberEPNS2_19__tag_NUMBER_HEADERE
	.loc 7 577 26
	movq	-56(%rbp), %rdx
	leaq	-96(%rbp), %rax
	movq	%rax, %rcx
	call	_ZN8Palmtree4Math4Core8Internal18ResourceHolderUINT12UnlinkNumberEPNS2_19__tag_NUMBER_HEADERE
.LEHE3:
	.loc 7 578 36
	movq	-56(%rbp), %rbx
	.loc 7 567 28
	leaq	-96(%rbp), %rax
	movq	%rax, %rcx
	call	_ZN8Palmtree4Math4Core8Internal18ResourceHolderUINTD1Ev
	.loc 7 578 36
	movq	%rbx, %rax
	jmp	.L158
.L157:
	movq	%rax, %rbx
	.loc 7 567 28
	leaq	-96(%rbp), %rax
	movq	%rax, %rcx
	call	_ZN8Palmtree4Math4Core8Internal18ResourceHolderUINTD1Ev
	movq	%rbx, %rax
	movq	%rax, %rcx
.LEHB4:
	call	_Unwind_Resume
.LEHE4:
.L158:
	.loc 7 579 5
	addq	$88, %rsp
	popq	%rbx
	.cfi_restore 3
	popq	%rbp
	.cfi_restore 6
	.cfi_def_cfa 7, -72
	ret
	.cfi_endproc
.LFE5071:
	.seh_handler	__gxx_personality_seh0, @unwind, @except
	.seh_handlerdata
.LLSDA5071:
	.byte	0xff
	.byte	0xff
	.byte	0x1
	.uleb128 .LLSDACSE5071-.LLSDACSB5071
.LLSDACSB5071:
	.uleb128 .LEHB2-.LFB5071
	.uleb128 .LEHE2-.LEHB2
	.uleb128 0
	.uleb128 0
	.uleb128 .LEHB3-.LFB5071
	.uleb128 .LEHE3-.LEHB3
	.uleb128 .L157-.LFB5071
	.uleb128 0
	.uleb128 .LEHB4-.LFB5071
	.uleb128 .LEHE4-.LEHB4
	.uleb128 0
	.uleb128 0
.LLSDACSE5071:
	.text
	.seh_endproc
	.align 2
	.globl	_ZN8Palmtree4Math4Core8Internal4LockC2Ev
	.def	_ZN8Palmtree4Math4Core8Internal4LockC2Ev;	.scl	2;	.type	32;	.endef
	.seh_proc	_ZN8Palmtree4Math4Core8Internal4LockC2Ev
_ZN8Palmtree4Math4Core8Internal4LockC2Ev:
.LFB5073:
	.loc 7 584 5
	.cfi_startproc
	pushq	%rbp
	.seh_pushreg	%rbp
	.cfi_def_cfa_offset 16
	.cfi_offset 6, -16
	movq	%rsp, %rbp
	.seh_setframe	%rbp, 0
	.cfi_def_cfa_register 6
	subq	$32, %rsp
	.seh_stackalloc	32
	.seh_endprologue
	movq	%rcx, 16(%rbp)
.LBB58:
	.loc 7 586 29
	leaq	_ZN8Palmtree4Math4Core8Internal3mcsE(%rip), %rcx
	movq	__imp_EnterCriticalSection(%rip), %rax
	call	*%rax
.LVL9:
.LBE58:
	.loc 7 587 5
	nop
	addq	$32, %rsp
	popq	%rbp
	.cfi_restore 6
	.cfi_def_cfa 7, 8
	ret
	.cfi_endproc
.LFE5073:
	.seh_endproc
	.globl	_ZN8Palmtree4Math4Core8Internal4LockC1Ev
	.def	_ZN8Palmtree4Math4Core8Internal4LockC1Ev;	.scl	2;	.type	32;	.endef
	.set	_ZN8Palmtree4Math4Core8Internal4LockC1Ev,_ZN8Palmtree4Math4Core8Internal4LockC2Ev
	.align 2
	.globl	_ZN8Palmtree4Math4Core8Internal4LockD2Ev
	.def	_ZN8Palmtree4Math4Core8Internal4LockD2Ev;	.scl	2;	.type	32;	.endef
	.seh_proc	_ZN8Palmtree4Math4Core8Internal4LockD2Ev
_ZN8Palmtree4Math4Core8Internal4LockD2Ev:
.LFB5076:
	.loc 7 589 5
	.cfi_startproc
	pushq	%rbp
	.seh_pushreg	%rbp
	.cfi_def_cfa_offset 16
	.cfi_offset 6, -16
	movq	%rsp, %rbp
	.seh_setframe	%rbp, 0
	.cfi_def_cfa_register 6
	subq	$32, %rsp
	.seh_stackalloc	32
	.seh_endprologue
	movq	%rcx, 16(%rbp)
.LBB59:
	.loc 7 591 29
	leaq	_ZN8Palmtree4Math4Core8Internal3mcsE(%rip), %rcx
	movq	__imp_LeaveCriticalSection(%rip), %rax
	call	*%rax
.LVL10:
.LBE59:
	.loc 7 592 5
	nop
	addq	$32, %rsp
	popq	%rbp
	.cfi_restore 6
	.cfi_def_cfa 7, 8
	ret
	.cfi_endproc
.LFE5076:
	.seh_handler	__gxx_personality_seh0, @unwind, @except
	.seh_handlerdata
.LLSDA5076:
	.byte	0xff
	.byte	0xff
	.byte	0x1
	.uleb128 .LLSDACSE5076-.LLSDACSB5076
.LLSDACSB5076:
.LLSDACSE5076:
	.text
	.seh_endproc
	.globl	_ZN8Palmtree4Math4Core8Internal4LockD1Ev
	.def	_ZN8Palmtree4Math4Core8Internal4LockD1Ev;	.scl	2;	.type	32;	.endef
	.set	_ZN8Palmtree4Math4Core8Internal4LockD1Ev,_ZN8Palmtree4Math4Core8Internal4LockD2Ev
	.align 2
	.globl	_ZN8Palmtree4Math4Core8Internal18ResourceHolderUINT23__GenericChainBufferTagC2EPv
	.def	_ZN8Palmtree4Math4Core8Internal18ResourceHolderUINT23__GenericChainBufferTagC2EPv;	.scl	2;	.type	32;	.endef
	.seh_proc	_ZN8Palmtree4Math4Core8Internal18ResourceHolderUINT23__GenericChainBufferTagC2EPv
_ZN8Palmtree4Math4Core8Internal18ResourceHolderUINT23__GenericChainBufferTagC2EPv:
.LFB5079:
	.loc 7 594 5
	.cfi_startproc
	pushq	%rbp
	.seh_pushreg	%rbp
	.cfi_def_cfa_offset 16
	.cfi_offset 6, -16
	movq	%rsp, %rbp
	.seh_setframe	%rbp, 0
	.cfi_def_cfa_register 6
	subq	$32, %rsp
	.seh_stackalloc	32
	.seh_endprologue
	movq	%rcx, 16(%rbp)
	movq	%rdx, 24(%rbp)
.LBB60:
	.loc 7 594 87
	movq	16(%rbp), %rax
	movq	%rax, %rcx
	call	_ZN8Palmtree4Math4Core8Internal14ResourceHolder16__ChainBufferTagC2Ev
	leaq	16+_ZTVN8Palmtree4Math4Core8Internal18ResourceHolderUINT23__GenericChainBufferTagE(%rip), %rdx
	movq	16(%rbp), %rax
	movq	%rdx, (%rax)
	.loc 7 596 17
	movq	16(%rbp), %rax
	movq	24(%rbp), %rdx
	movq	%rdx, 24(%rax)
.LBE60:
	.loc 7 597 5
	nop
	addq	$32, %rsp
	popq	%rbp
	.cfi_restore 6
	.cfi_def_cfa 7, 8
	ret
	.cfi_endproc
.LFE5079:
	.seh_endproc
	.globl	_ZN8Palmtree4Math4Core8Internal18ResourceHolderUINT23__GenericChainBufferTagC1EPv
	.def	_ZN8Palmtree4Math4Core8Internal18ResourceHolderUINT23__GenericChainBufferTagC1EPv;	.scl	2;	.type	32;	.endef
	.set	_ZN8Palmtree4Math4Core8Internal18ResourceHolderUINT23__GenericChainBufferTagC1EPv,_ZN8Palmtree4Math4Core8Internal18ResourceHolderUINT23__GenericChainBufferTagC2EPv
	.align 2
	.globl	_ZN8Palmtree4Math4Core8Internal18ResourceHolderUINT23__GenericChainBufferTagD2Ev
	.def	_ZN8Palmtree4Math4Core8Internal18ResourceHolderUINT23__GenericChainBufferTagD2Ev;	.scl	2;	.type	32;	.endef
	.seh_proc	_ZN8Palmtree4Math4Core8Internal18ResourceHolderUINT23__GenericChainBufferTagD2Ev
_ZN8Palmtree4Math4Core8Internal18ResourceHolderUINT23__GenericChainBufferTagD2Ev:
.LFB5082:
	.loc 7 599 5
	.cfi_startproc
	pushq	%rbp
	.seh_pushreg	%rbp
	.cfi_def_cfa_offset 16
	.cfi_offset 6, -16
	movq	%rsp, %rbp
	.seh_setframe	%rbp, 0
	.cfi_def_cfa_register 6
	subq	$32, %rsp
	.seh_stackalloc	32
	.seh_endprologue
	movq	%rcx, 16(%rbp)
.LBB61:
	.loc 7 599 75
	leaq	16+_ZTVN8Palmtree4Math4Core8Internal18ResourceHolderUINT23__GenericChainBufferTagE(%rip), %rdx
	movq	16(%rbp), %rax
	movq	%rdx, (%rax)
	movq	16(%rbp), %rax
	movq	%rax, %rcx
	call	_ZN8Palmtree4Math4Core8Internal14ResourceHolder16__ChainBufferTagD2Ev
.LBE61:
	.loc 7 601 5
	nop
	addq	$32, %rsp
	popq	%rbp
	.cfi_restore 6
	.cfi_def_cfa 7, 8
	ret
	.cfi_endproc
.LFE5082:
	.seh_endproc
	.globl	_ZN8Palmtree4Math4Core8Internal18ResourceHolderUINT23__GenericChainBufferTagD1Ev
	.def	_ZN8Palmtree4Math4Core8Internal18ResourceHolderUINT23__GenericChainBufferTagD1Ev;	.scl	2;	.type	32;	.endef
	.set	_ZN8Palmtree4Math4Core8Internal18ResourceHolderUINT23__GenericChainBufferTagD1Ev,_ZN8Palmtree4Math4Core8Internal18ResourceHolderUINT23__GenericChainBufferTagD2Ev
	.align 2
	.globl	_ZN8Palmtree4Math4Core8Internal18ResourceHolderUINT23__GenericChainBufferTagD0Ev
	.def	_ZN8Palmtree4Math4Core8Internal18ResourceHolderUINT23__GenericChainBufferTagD0Ev;	.scl	2;	.type	32;	.endef
	.seh_proc	_ZN8Palmtree4Math4Core8Internal18ResourceHolderUINT23__GenericChainBufferTagD0Ev
_ZN8Palmtree4Math4Core8Internal18ResourceHolderUINT23__GenericChainBufferTagD0Ev:
.LFB5084:
	.loc 7 599 5
	.cfi_startproc
	pushq	%rbp
	.seh_pushreg	%rbp
	.cfi_def_cfa_offset 16
	.cfi_offset 6, -16
	movq	%rsp, %rbp
	.seh_setframe	%rbp, 0
	.cfi_def_cfa_register 6
	subq	$32, %rsp
	.seh_stackalloc	32
	.seh_endprologue
	movq	%rcx, 16(%rbp)
	.loc 7 601 5
	movq	16(%rbp), %rcx
	call	_ZN8Palmtree4Math4Core8Internal18ResourceHolderUINT23__GenericChainBufferTagD1Ev
	movl	$32, %edx
	movq	16(%rbp), %rcx
	call	_ZdlPvy
	nop
	addq	$32, %rsp
	popq	%rbp
	.cfi_restore 6
	.cfi_def_cfa 7, 8
	ret
	.cfi_endproc
.LFE5084:
	.seh_endproc
	.align 2
	.globl	_ZN8Palmtree4Math4Core8Internal18ResourceHolderUINT23__GenericChainBufferTag19EqualsBufferAddressEPv
	.def	_ZN8Palmtree4Math4Core8Internal18ResourceHolderUINT23__GenericChainBufferTag19EqualsBufferAddressEPv;	.scl	2;	.type	32;	.endef
	.seh_proc	_ZN8Palmtree4Math4Core8Internal18ResourceHolderUINT23__GenericChainBufferTag19EqualsBufferAddressEPv
_ZN8Palmtree4Math4Core8Internal18ResourceHolderUINT23__GenericChainBufferTag19EqualsBufferAddressEPv:
.LFB5085:
	.loc 7 604 5
	.cfi_startproc
	pushq	%rbp
	.seh_pushreg	%rbp
	.cfi_def_cfa_offset 16
	.cfi_offset 6, -16
	movq	%rsp, %rbp
	.seh_setframe	%rbp, 0
	.cfi_def_cfa_register 6
	.seh_endprologue
	movq	%rcx, 16(%rbp)
	movq	%rdx, 24(%rbp)
	.loc 7 605 24
	movq	16(%rbp), %rax
	movq	24(%rax), %rax
	.loc 7 605 32
	cmpq	%rax, 24(%rbp)
	sete	%al
	.loc 7 605 41
	movzbl	%al, %eax
	.loc 7 606 5
	popq	%rbp
	.cfi_restore 6
	.cfi_def_cfa 7, 8
	ret
	.cfi_endproc
.LFE5085:
	.seh_endproc
	.align 2
	.globl	_ZN8Palmtree4Math4Core8Internal18ResourceHolderUINT23__GenericChainBufferTag8DestructEv
	.def	_ZN8Palmtree4Math4Core8Internal18ResourceHolderUINT23__GenericChainBufferTag8DestructEv;	.scl	2;	.type	32;	.endef
	.seh_proc	_ZN8Palmtree4Math4Core8Internal18ResourceHolderUINT23__GenericChainBufferTag8DestructEv
_ZN8Palmtree4Math4Core8Internal18ResourceHolderUINT23__GenericChainBufferTag8DestructEv:
.LFB5086:
	.loc 7 609 5
	.cfi_startproc
	pushq	%rbp
	.seh_pushreg	%rbp
	.cfi_def_cfa_offset 16
	.cfi_offset 6, -16
	movq	%rsp, %rbp
	.seh_setframe	%rbp, 0
	.cfi_def_cfa_register 6
	subq	$32, %rsp
	.seh_stackalloc	32
	.seh_endprologue
	movq	%rcx, 16(%rbp)
	.loc 7 610 17
	movq	16(%rbp), %rax
	movq	24(%rax), %rdx
	movq	_ZN8Palmtree4Math4Core8Internal10hLocalHeapE(%rip), %rax
	movq	%rdx, %r8
	movl	$0, %edx
	movq	%rax, %rcx
	movq	__imp_HeapFree(%rip), %rax
	call	*%rax
.LVL11:
	.loc 7 616 5
	nop
	addq	$32, %rsp
	popq	%rbp
	.cfi_restore 6
	.cfi_def_cfa 7, 8
	ret
	.cfi_endproc
.LFE5086:
	.seh_endproc
	.align 2
	.globl	_ZN8Palmtree4Math4Core8Internal18ResourceHolderUINT34____UNIT_TYPE_Array_ChainBufferTagC2EPyyy
	.def	_ZN8Palmtree4Math4Core8Internal18ResourceHolderUINT34____UNIT_TYPE_Array_ChainBufferTagC2EPyyy;	.scl	2;	.type	32;	.endef
	.seh_proc	_ZN8Palmtree4Math4Core8Internal18ResourceHolderUINT34____UNIT_TYPE_Array_ChainBufferTagC2EPyyy
_ZN8Palmtree4Math4Core8Internal18ResourceHolderUINT34____UNIT_TYPE_Array_ChainBufferTagC2EPyyy:
.LFB5088:
	.loc 7 618 5
	.cfi_startproc
	pushq	%rbp
	.seh_pushreg	%rbp
	.cfi_def_cfa_offset 16
	.cfi_offset 6, -16
	movq	%rsp, %rbp
	.seh_setframe	%rbp, 0
	.cfi_def_cfa_register 6
	subq	$32, %rsp
	.seh_stackalloc	32
	.seh_endprologue
	movq	%rcx, 16(%rbp)
	movq	%rdx, 24(%rbp)
	movq	%r8, 32(%rbp)
	movq	%r9, 40(%rbp)
.LBB62:
	.loc 7 618 164
	movq	16(%rbp), %rax
	movq	%rax, %rcx
	call	_ZN8Palmtree4Math4Core8Internal14ResourceHolder16__ChainBufferTagC2Ev
	leaq	16+_ZTVN8Palmtree4Math4Core8Internal18ResourceHolderUINT34____UNIT_TYPE_Array_ChainBufferTagE(%rip), %rdx
	movq	16(%rbp), %rax
	movq	%rdx, (%rax)
	.loc 7 620 17
	movq	16(%rbp), %rax
	movq	24(%rbp), %rdx
	movq	%rdx, 24(%rax)
	.loc 7 621 21
	movq	16(%rbp), %rax
	movq	32(%rbp), %rdx
	movq	%rdx, 32(%rax)
	.loc 7 622 21
	movq	16(%rbp), %rax
	movq	40(%rbp), %rdx
	movq	%rdx, 40(%rax)
.LBE62:
	.loc 7 623 5
	nop
	addq	$32, %rsp
	popq	%rbp
	.cfi_restore 6
	.cfi_def_cfa 7, 8
	ret
	.cfi_endproc
.LFE5088:
	.seh_endproc
	.globl	_ZN8Palmtree4Math4Core8Internal18ResourceHolderUINT34____UNIT_TYPE_Array_ChainBufferTagC1EPyyy
	.def	_ZN8Palmtree4Math4Core8Internal18ResourceHolderUINT34____UNIT_TYPE_Array_ChainBufferTagC1EPyyy;	.scl	2;	.type	32;	.endef
	.set	_ZN8Palmtree4Math4Core8Internal18ResourceHolderUINT34____UNIT_TYPE_Array_ChainBufferTagC1EPyyy,_ZN8Palmtree4Math4Core8Internal18ResourceHolderUINT34____UNIT_TYPE_Array_ChainBufferTagC2EPyyy
	.align 2
	.globl	_ZN8Palmtree4Math4Core8Internal18ResourceHolderUINT34____UNIT_TYPE_Array_ChainBufferTagD2Ev
	.def	_ZN8Palmtree4Math4Core8Internal18ResourceHolderUINT34____UNIT_TYPE_Array_ChainBufferTagD2Ev;	.scl	2;	.type	32;	.endef
	.seh_proc	_ZN8Palmtree4Math4Core8Internal18ResourceHolderUINT34____UNIT_TYPE_Array_ChainBufferTagD2Ev
_ZN8Palmtree4Math4Core8Internal18ResourceHolderUINT34____UNIT_TYPE_Array_ChainBufferTagD2Ev:
.LFB5091:
	.loc 7 625 5
	.cfi_startproc
	pushq	%rbp
	.seh_pushreg	%rbp
	.cfi_def_cfa_offset 16
	.cfi_offset 6, -16
	movq	%rsp, %rbp
	.seh_setframe	%rbp, 0
	.cfi_def_cfa_register 6
	subq	$32, %rsp
	.seh_stackalloc	32
	.seh_endprologue
	movq	%rcx, 16(%rbp)
.LBB63:
	.loc 7 625 97
	leaq	16+_ZTVN8Palmtree4Math4Core8Internal18ResourceHolderUINT34____UNIT_TYPE_Array_ChainBufferTagE(%rip), %rdx
	movq	16(%rbp), %rax
	movq	%rdx, (%rax)
	movq	16(%rbp), %rax
	movq	%rax, %rcx
	call	_ZN8Palmtree4Math4Core8Internal14ResourceHolder16__ChainBufferTagD2Ev
.LBE63:
	.loc 7 627 5
	nop
	addq	$32, %rsp
	popq	%rbp
	.cfi_restore 6
	.cfi_def_cfa 7, 8
	ret
	.cfi_endproc
.LFE5091:
	.seh_endproc
	.globl	_ZN8Palmtree4Math4Core8Internal18ResourceHolderUINT34____UNIT_TYPE_Array_ChainBufferTagD1Ev
	.def	_ZN8Palmtree4Math4Core8Internal18ResourceHolderUINT34____UNIT_TYPE_Array_ChainBufferTagD1Ev;	.scl	2;	.type	32;	.endef
	.set	_ZN8Palmtree4Math4Core8Internal18ResourceHolderUINT34____UNIT_TYPE_Array_ChainBufferTagD1Ev,_ZN8Palmtree4Math4Core8Internal18ResourceHolderUINT34____UNIT_TYPE_Array_ChainBufferTagD2Ev
	.align 2
	.globl	_ZN8Palmtree4Math4Core8Internal18ResourceHolderUINT34____UNIT_TYPE_Array_ChainBufferTagD0Ev
	.def	_ZN8Palmtree4Math4Core8Internal18ResourceHolderUINT34____UNIT_TYPE_Array_ChainBufferTagD0Ev;	.scl	2;	.type	32;	.endef
	.seh_proc	_ZN8Palmtree4Math4Core8Internal18ResourceHolderUINT34____UNIT_TYPE_Array_ChainBufferTagD0Ev
_ZN8Palmtree4Math4Core8Internal18ResourceHolderUINT34____UNIT_TYPE_Array_ChainBufferTagD0Ev:
.LFB5093:
	.loc 7 625 5
	.cfi_startproc
	pushq	%rbp
	.seh_pushreg	%rbp
	.cfi_def_cfa_offset 16
	.cfi_offset 6, -16
	movq	%rsp, %rbp
	.seh_setframe	%rbp, 0
	.cfi_def_cfa_register 6
	subq	$32, %rsp
	.seh_stackalloc	32
	.seh_endprologue
	movq	%rcx, 16(%rbp)
	.loc 7 627 5
	movq	16(%rbp), %rcx
	call	_ZN8Palmtree4Math4Core8Internal18ResourceHolderUINT34____UNIT_TYPE_Array_ChainBufferTagD1Ev
	movl	$48, %edx
	movq	16(%rbp), %rcx
	call	_ZdlPvy
	nop
	addq	$32, %rsp
	popq	%rbp
	.cfi_restore 6
	.cfi_def_cfa 7, 8
	ret
	.cfi_endproc
.LFE5093:
	.seh_endproc
	.align 2
	.globl	_ZN8Palmtree4Math4Core8Internal18ResourceHolderUINT34____UNIT_TYPE_Array_ChainBufferTag19EqualsBufferAddressEPv
	.def	_ZN8Palmtree4Math4Core8Internal18ResourceHolderUINT34____UNIT_TYPE_Array_ChainBufferTag19EqualsBufferAddressEPv;	.scl	2;	.type	32;	.endef
	.seh_proc	_ZN8Palmtree4Math4Core8Internal18ResourceHolderUINT34____UNIT_TYPE_Array_ChainBufferTag19EqualsBufferAddressEPv
_ZN8Palmtree4Math4Core8Internal18ResourceHolderUINT34____UNIT_TYPE_Array_ChainBufferTag19EqualsBufferAddressEPv:
.LFB5094:
	.loc 7 630 5
	.cfi_startproc
	pushq	%rbp
	.seh_pushreg	%rbp
	.cfi_def_cfa_offset 16
	.cfi_offset 6, -16
	movq	%rsp, %rbp
	.seh_setframe	%rbp, 0
	.cfi_def_cfa_register 6
	.seh_endprologue
	movq	%rcx, 16(%rbp)
	movq	%rdx, 24(%rbp)
	.loc 7 631 24
	movq	16(%rbp), %rax
	movq	24(%rax), %rax
	.loc 7 631 32
	cmpq	%rax, 24(%rbp)
	sete	%al
	.loc 7 631 41
	movzbl	%al, %eax
	.loc 7 632 5
	popq	%rbp
	.cfi_restore 6
	.cfi_def_cfa 7, 8
	ret
	.cfi_endproc
.LFE5094:
	.seh_endproc
	.align 2
	.globl	_ZN8Palmtree4Math4Core8Internal18ResourceHolderUINT34____UNIT_TYPE_Array_ChainBufferTag5ClearEv
	.def	_ZN8Palmtree4Math4Core8Internal18ResourceHolderUINT34____UNIT_TYPE_Array_ChainBufferTag5ClearEv;	.scl	2;	.type	32;	.endef
	.seh_proc	_ZN8Palmtree4Math4Core8Internal18ResourceHolderUINT34____UNIT_TYPE_Array_ChainBufferTag5ClearEv
_ZN8Palmtree4Math4Core8Internal18ResourceHolderUINT34____UNIT_TYPE_Array_ChainBufferTag5ClearEv:
.LFB5095:
	.loc 7 635 5
	.cfi_startproc
	pushq	%rbp
	.seh_pushreg	%rbp
	.cfi_def_cfa_offset 16
	.cfi_offset 6, -16
	movq	%rsp, %rbp
	.seh_setframe	%rbp, 0
	.cfi_def_cfa_register 6
	subq	$32, %rsp
	.seh_stackalloc	32
	.seh_endprologue
	movq	%rcx, 16(%rbp)
	.loc 7 636 26
	movq	16(%rbp), %rax
	movq	32(%rax), %rdx
	movq	16(%rbp), %rax
	movq	24(%rax), %rax
	movq	%rax, %rcx
	call	_ZERO_MEMORY_UNIT
	.loc 7 637 5
	nop
	addq	$32, %rsp
	popq	%rbp
	.cfi_restore 6
	.cfi_def_cfa 7, 8
	ret
	.cfi_endproc
.LFE5095:
	.seh_endproc
	.align 2
	.globl	_ZN8Palmtree4Math4Core8Internal18ResourceHolderUINT34____UNIT_TYPE_Array_ChainBufferTag5CheckEv
	.def	_ZN8Palmtree4Math4Core8Internal18ResourceHolderUINT34____UNIT_TYPE_Array_ChainBufferTag5CheckEv;	.scl	2;	.type	32;	.endef
	.seh_proc	_ZN8Palmtree4Math4Core8Internal18ResourceHolderUINT34____UNIT_TYPE_Array_ChainBufferTag5CheckEv
_ZN8Palmtree4Math4Core8Internal18ResourceHolderUINT34____UNIT_TYPE_Array_ChainBufferTag5CheckEv:
.LFB5096:
	.loc 7 640 5
	.cfi_startproc
	pushq	%rbp
	.seh_pushreg	%rbp
	.cfi_def_cfa_offset 16
	.cfi_offset 6, -16
	movq	%rsp, %rbp
	.seh_setframe	%rbp, 0
	.cfi_def_cfa_register 6
	subq	$32, %rsp
	.seh_stackalloc	32
	.seh_endprologue
	movq	%rcx, 16(%rbp)
	.loc 7 641 51
	movq	16(%rbp), %rax
	movq	40(%rax), %rcx
	movq	16(%rbp), %rax
	movq	32(%rax), %rdx
	movq	16(%rbp), %rax
	movq	24(%rax), %rax
	movq	%rcx, %r8
	movq	%rax, %rcx
	call	_ZN8Palmtree4Math4Core8InternalL10CheckBlockEPyyy
	.loc 7 642 5
	nop
	addq	$32, %rsp
	popq	%rbp
	.cfi_restore 6
	.cfi_def_cfa 7, 8
	ret
	.cfi_endproc
.LFE5096:
	.seh_endproc
	.align 2
	.globl	_ZN8Palmtree4Math4Core8Internal18ResourceHolderUINT34____UNIT_TYPE_Array_ChainBufferTag8DestructEv
	.def	_ZN8Palmtree4Math4Core8Internal18ResourceHolderUINT34____UNIT_TYPE_Array_ChainBufferTag8DestructEv;	.scl	2;	.type	32;	.endef
	.seh_proc	_ZN8Palmtree4Math4Core8Internal18ResourceHolderUINT34____UNIT_TYPE_Array_ChainBufferTag8DestructEv
_ZN8Palmtree4Math4Core8Internal18ResourceHolderUINT34____UNIT_TYPE_Array_ChainBufferTag8DestructEv:
.LFB5097:
	.loc 7 645 5
	.cfi_startproc
	pushq	%rbp
	.seh_pushreg	%rbp
	.cfi_def_cfa_offset 16
	.cfi_offset 6, -16
	movq	%rsp, %rbp
	.seh_setframe	%rbp, 0
	.cfi_def_cfa_register 6
	subq	$32, %rsp
	.seh_stackalloc	32
	.seh_endprologue
	movq	%rcx, 16(%rbp)
	.loc 7 646 56
	movq	16(%rbp), %rax
	movq	40(%rax), %rcx
	movq	16(%rbp), %rax
	movq	32(%rax), %rdx
	movq	16(%rbp), %rax
	movq	24(%rax), %rax
	movq	%rcx, %r8
	movq	%rax, %rcx
	call	_ZN8Palmtree4Math4Core8InternalL15DeallocateBlockEPyyy
	.loc 7 647 5
	nop
	addq	$32, %rsp
	popq	%rbp
	.cfi_restore 6
	.cfi_def_cfa 7, 8
	ret
	.cfi_endproc
.LFE5097:
	.seh_endproc
	.align 2
	.globl	_ZN8Palmtree4Math4Core8Internal18ResourceHolderUINT22__StringChainBufferTagC2EPyyy
	.def	_ZN8Palmtree4Math4Core8Internal18ResourceHolderUINT22__StringChainBufferTagC2EPyyy;	.scl	2;	.type	32;	.endef
	.seh_proc	_ZN8Palmtree4Math4Core8Internal18ResourceHolderUINT22__StringChainBufferTagC2EPyyy
_ZN8Palmtree4Math4Core8Internal18ResourceHolderUINT22__StringChainBufferTagC2EPyyy:
.LFB5099:
	.loc 7 649 5
	.cfi_startproc
	pushq	%rbp
	.seh_pushreg	%rbp
	.cfi_def_cfa_offset 16
	.cfi_offset 6, -16
	movq	%rsp, %rbp
	.seh_setframe	%rbp, 0
	.cfi_def_cfa_register 6
	subq	$32, %rsp
	.seh_stackalloc	32
	.seh_endprologue
	movq	%rcx, 16(%rbp)
	movq	%rdx, 24(%rbp)
	movq	%r8, 32(%rbp)
	movq	%r9, 40(%rbp)
.LBB64:
	.loc 7 649 140
	movq	16(%rbp), %rax
	movq	%rax, %rcx
	call	_ZN8Palmtree4Math4Core8Internal14ResourceHolder16__ChainBufferTagC2Ev
	leaq	16+_ZTVN8Palmtree4Math4Core8Internal18ResourceHolderUINT22__StringChainBufferTagE(%rip), %rdx
	movq	16(%rbp), %rax
	movq	%rdx, (%rax)
	.loc 7 651 17
	movq	16(%rbp), %rax
	movq	24(%rbp), %rdx
	movq	%rdx, 24(%rax)
	.loc 7 652 21
	movq	16(%rbp), %rax
	movq	32(%rbp), %rdx
	movq	%rdx, 32(%rax)
	.loc 7 653 21
	movq	16(%rbp), %rax
	movq	40(%rbp), %rdx
	movq	%rdx, 40(%rax)
.LBE64:
	.loc 7 654 5
	nop
	addq	$32, %rsp
	popq	%rbp
	.cfi_restore 6
	.cfi_def_cfa 7, 8
	ret
	.cfi_endproc
.LFE5099:
	.seh_endproc
	.globl	_ZN8Palmtree4Math4Core8Internal18ResourceHolderUINT22__StringChainBufferTagC1EPyyy
	.def	_ZN8Palmtree4Math4Core8Internal18ResourceHolderUINT22__StringChainBufferTagC1EPyyy;	.scl	2;	.type	32;	.endef
	.set	_ZN8Palmtree4Math4Core8Internal18ResourceHolderUINT22__StringChainBufferTagC1EPyyy,_ZN8Palmtree4Math4Core8Internal18ResourceHolderUINT22__StringChainBufferTagC2EPyyy
	.align 2
	.globl	_ZN8Palmtree4Math4Core8Internal18ResourceHolderUINT22__StringChainBufferTagD2Ev
	.def	_ZN8Palmtree4Math4Core8Internal18ResourceHolderUINT22__StringChainBufferTagD2Ev;	.scl	2;	.type	32;	.endef
	.seh_proc	_ZN8Palmtree4Math4Core8Internal18ResourceHolderUINT22__StringChainBufferTagD2Ev
_ZN8Palmtree4Math4Core8Internal18ResourceHolderUINT22__StringChainBufferTagD2Ev:
.LFB5102:
	.loc 7 656 5
	.cfi_startproc
	pushq	%rbp
	.seh_pushreg	%rbp
	.cfi_def_cfa_offset 16
	.cfi_offset 6, -16
	movq	%rsp, %rbp
	.seh_setframe	%rbp, 0
	.cfi_def_cfa_register 6
	subq	$32, %rsp
	.seh_stackalloc	32
	.seh_endprologue
	movq	%rcx, 16(%rbp)
.LBB65:
	.loc 7 656 73
	leaq	16+_ZTVN8Palmtree4Math4Core8Internal18ResourceHolderUINT22__StringChainBufferTagE(%rip), %rdx
	movq	16(%rbp), %rax
	movq	%rdx, (%rax)
	movq	16(%rbp), %rax
	movq	%rax, %rcx
	call	_ZN8Palmtree4Math4Core8Internal14ResourceHolder16__ChainBufferTagD2Ev
.LBE65:
	.loc 7 658 5
	nop
	addq	$32, %rsp
	popq	%rbp
	.cfi_restore 6
	.cfi_def_cfa 7, 8
	ret
	.cfi_endproc
.LFE5102:
	.seh_endproc
	.globl	_ZN8Palmtree4Math4Core8Internal18ResourceHolderUINT22__StringChainBufferTagD1Ev
	.def	_ZN8Palmtree4Math4Core8Internal18ResourceHolderUINT22__StringChainBufferTagD1Ev;	.scl	2;	.type	32;	.endef
	.set	_ZN8Palmtree4Math4Core8Internal18ResourceHolderUINT22__StringChainBufferTagD1Ev,_ZN8Palmtree4Math4Core8Internal18ResourceHolderUINT22__StringChainBufferTagD2Ev
	.align 2
	.globl	_ZN8Palmtree4Math4Core8Internal18ResourceHolderUINT22__StringChainBufferTagD0Ev
	.def	_ZN8Palmtree4Math4Core8Internal18ResourceHolderUINT22__StringChainBufferTagD0Ev;	.scl	2;	.type	32;	.endef
	.seh_proc	_ZN8Palmtree4Math4Core8Internal18ResourceHolderUINT22__StringChainBufferTagD0Ev
_ZN8Palmtree4Math4Core8Internal18ResourceHolderUINT22__StringChainBufferTagD0Ev:
.LFB5104:
	.loc 7 656 5
	.cfi_startproc
	pushq	%rbp
	.seh_pushreg	%rbp
	.cfi_def_cfa_offset 16
	.cfi_offset 6, -16
	movq	%rsp, %rbp
	.seh_setframe	%rbp, 0
	.cfi_def_cfa_register 6
	subq	$32, %rsp
	.seh_stackalloc	32
	.seh_endprologue
	movq	%rcx, 16(%rbp)
	.loc 7 658 5
	movq	16(%rbp), %rcx
	call	_ZN8Palmtree4Math4Core8Internal18ResourceHolderUINT22__StringChainBufferTagD1Ev
	movl	$48, %edx
	movq	16(%rbp), %rcx
	call	_ZdlPvy
	nop
	addq	$32, %rsp
	popq	%rbp
	.cfi_restore 6
	.cfi_def_cfa 7, 8
	ret
	.cfi_endproc
.LFE5104:
	.seh_endproc
	.align 2
	.globl	_ZN8Palmtree4Math4Core8Internal18ResourceHolderUINT22__StringChainBufferTag19EqualsBufferAddressEPv
	.def	_ZN8Palmtree4Math4Core8Internal18ResourceHolderUINT22__StringChainBufferTag19EqualsBufferAddressEPv;	.scl	2;	.type	32;	.endef
	.seh_proc	_ZN8Palmtree4Math4Core8Internal18ResourceHolderUINT22__StringChainBufferTag19EqualsBufferAddressEPv
_ZN8Palmtree4Math4Core8Internal18ResourceHolderUINT22__StringChainBufferTag19EqualsBufferAddressEPv:
.LFB5105:
	.loc 7 661 5
	.cfi_startproc
	pushq	%rbp
	.seh_pushreg	%rbp
	.cfi_def_cfa_offset 16
	.cfi_offset 6, -16
	movq	%rsp, %rbp
	.seh_setframe	%rbp, 0
	.cfi_def_cfa_register 6
	.seh_endprologue
	movq	%rcx, 16(%rbp)
	movq	%rdx, 24(%rbp)
	.loc 7 662 24
	movq	16(%rbp), %rax
	movq	24(%rax), %rax
	.loc 7 662 32
	cmpq	%rax, 24(%rbp)
	sete	%al
	.loc 7 662 41
	movzbl	%al, %eax
	.loc 7 663 5
	popq	%rbp
	.cfi_restore 6
	.cfi_def_cfa 7, 8
	ret
	.cfi_endproc
.LFE5105:
	.seh_endproc
	.align 2
	.globl	_ZN8Palmtree4Math4Core8Internal18ResourceHolderUINT22__StringChainBufferTag5ClearEv
	.def	_ZN8Palmtree4Math4Core8Internal18ResourceHolderUINT22__StringChainBufferTag5ClearEv;	.scl	2;	.type	32;	.endef
	.seh_proc	_ZN8Palmtree4Math4Core8Internal18ResourceHolderUINT22__StringChainBufferTag5ClearEv
_ZN8Palmtree4Math4Core8Internal18ResourceHolderUINT22__StringChainBufferTag5ClearEv:
.LFB5106:
	.loc 7 666 5
	.cfi_startproc
	pushq	%rbp
	.seh_pushreg	%rbp
	.cfi_def_cfa_offset 16
	.cfi_offset 6, -16
	movq	%rsp, %rbp
	.seh_setframe	%rbp, 0
	.cfi_def_cfa_register 6
	subq	$32, %rsp
	.seh_stackalloc	32
	.seh_endprologue
	movq	%rcx, 16(%rbp)
	.loc 7 667 26
	movq	16(%rbp), %rax
	movq	32(%rax), %rdx
	movq	16(%rbp), %rax
	movq	24(%rax), %rax
	movq	%rax, %rcx
	call	_ZERO_MEMORY_UNIT
	.loc 7 668 5
	nop
	addq	$32, %rsp
	popq	%rbp
	.cfi_restore 6
	.cfi_def_cfa 7, 8
	ret
	.cfi_endproc
.LFE5106:
	.seh_endproc
	.align 2
	.globl	_ZN8Palmtree4Math4Core8Internal18ResourceHolderUINT22__StringChainBufferTag5CheckEv
	.def	_ZN8Palmtree4Math4Core8Internal18ResourceHolderUINT22__StringChainBufferTag5CheckEv;	.scl	2;	.type	32;	.endef
	.seh_proc	_ZN8Palmtree4Math4Core8Internal18ResourceHolderUINT22__StringChainBufferTag5CheckEv
_ZN8Palmtree4Math4Core8Internal18ResourceHolderUINT22__StringChainBufferTag5CheckEv:
.LFB5107:
	.loc 7 671 5
	.cfi_startproc
	pushq	%rbp
	.seh_pushreg	%rbp
	.cfi_def_cfa_offset 16
	.cfi_offset 6, -16
	movq	%rsp, %rbp
	.seh_setframe	%rbp, 0
	.cfi_def_cfa_register 6
	subq	$32, %rsp
	.seh_stackalloc	32
	.seh_endprologue
	movq	%rcx, 16(%rbp)
	.loc 7 672 51
	movq	16(%rbp), %rax
	movq	40(%rax), %rcx
	movq	16(%rbp), %rax
	movq	32(%rax), %rdx
	movq	16(%rbp), %rax
	movq	24(%rax), %rax
	movq	%rcx, %r8
	movq	%rax, %rcx
	call	_ZN8Palmtree4Math4Core8InternalL10CheckBlockEPyyy
	.loc 7 673 5
	nop
	addq	$32, %rsp
	popq	%rbp
	.cfi_restore 6
	.cfi_def_cfa 7, 8
	ret
	.cfi_endproc
.LFE5107:
	.seh_endproc
	.align 2
	.globl	_ZN8Palmtree4Math4Core8Internal18ResourceHolderUINT22__StringChainBufferTag8DestructEv
	.def	_ZN8Palmtree4Math4Core8Internal18ResourceHolderUINT22__StringChainBufferTag8DestructEv;	.scl	2;	.type	32;	.endef
	.seh_proc	_ZN8Palmtree4Math4Core8Internal18ResourceHolderUINT22__StringChainBufferTag8DestructEv
_ZN8Palmtree4Math4Core8Internal18ResourceHolderUINT22__StringChainBufferTag8DestructEv:
.LFB5108:
	.loc 7 676 5
	.cfi_startproc
	pushq	%rbp
	.seh_pushreg	%rbp
	.cfi_def_cfa_offset 16
	.cfi_offset 6, -16
	movq	%rsp, %rbp
	.seh_setframe	%rbp, 0
	.cfi_def_cfa_register 6
	subq	$32, %rsp
	.seh_stackalloc	32
	.seh_endprologue
	movq	%rcx, 16(%rbp)
	.loc 7 677 56
	movq	16(%rbp), %rax
	movq	40(%rax), %rcx
	movq	16(%rbp), %rax
	movq	32(%rax), %rdx
	movq	16(%rbp), %rax
	movq	24(%rax), %rax
	movq	%rcx, %r8
	movq	%rax, %rcx
	call	_ZN8Palmtree4Math4Core8InternalL15DeallocateBlockEPyyy
	.loc 7 678 5
	nop
	addq	$32, %rsp
	popq	%rbp
	.cfi_restore 6
	.cfi_def_cfa 7, 8
	ret
	.cfi_endproc
.LFE5108:
	.seh_endproc
	.align 2
	.globl	_ZN8Palmtree4Math4Core8Internal18ResourceHolderUINT29__DynamicNumberChainBufferTagC2EPNS2_19__tag_NUMBER_HEADERE
	.def	_ZN8Palmtree4Math4Core8Internal18ResourceHolderUINT29__DynamicNumberChainBufferTagC2EPNS2_19__tag_NUMBER_HEADERE;	.scl	2;	.type	32;	.endef
	.seh_proc	_ZN8Palmtree4Math4Core8Internal18ResourceHolderUINT29__DynamicNumberChainBufferTagC2EPNS2_19__tag_NUMBER_HEADERE
_ZN8Palmtree4Math4Core8Internal18ResourceHolderUINT29__DynamicNumberChainBufferTagC2EPNS2_19__tag_NUMBER_HEADERE:
.LFB5110:
	.loc 7 680 5
	.cfi_startproc
	pushq	%rbp
	.seh_pushreg	%rbp
	.cfi_def_cfa_offset 16
	.cfi_offset 6, -16
	movq	%rsp, %rbp
	.seh_setframe	%rbp, 0
	.cfi_def_cfa_register 6
	subq	$32, %rsp
	.seh_stackalloc	32
	.seh_endprologue
	movq	%rcx, 16(%rbp)
	movq	%rdx, 24(%rbp)
.LBB66:
	.loc 7 680 108
	movq	16(%rbp), %rax
	movq	%rax, %rcx
	call	_ZN8Palmtree4Math4Core8Internal14ResourceHolder16__ChainBufferTagC2Ev
	leaq	16+_ZTVN8Palmtree4Math4Core8Internal18ResourceHolderUINT29__DynamicNumberChainBufferTagE(%rip), %rdx
	movq	16(%rbp), %rax
	movq	%rdx, (%rax)
	.loc 7 682 17
	movq	16(%rbp), %rax
	movq	24(%rbp), %rdx
	movq	%rdx, 24(%rax)
.LBE66:
	.loc 7 683 5
	nop
	addq	$32, %rsp
	popq	%rbp
	.cfi_restore 6
	.cfi_def_cfa 7, 8
	ret
	.cfi_endproc
.LFE5110:
	.seh_endproc
	.globl	_ZN8Palmtree4Math4Core8Internal18ResourceHolderUINT29__DynamicNumberChainBufferTagC1EPNS2_19__tag_NUMBER_HEADERE
	.def	_ZN8Palmtree4Math4Core8Internal18ResourceHolderUINT29__DynamicNumberChainBufferTagC1EPNS2_19__tag_NUMBER_HEADERE;	.scl	2;	.type	32;	.endef
	.set	_ZN8Palmtree4Math4Core8Internal18ResourceHolderUINT29__DynamicNumberChainBufferTagC1EPNS2_19__tag_NUMBER_HEADERE,_ZN8Palmtree4Math4Core8Internal18ResourceHolderUINT29__DynamicNumberChainBufferTagC2EPNS2_19__tag_NUMBER_HEADERE
	.align 2
	.globl	_ZN8Palmtree4Math4Core8Internal18ResourceHolderUINT29__DynamicNumberChainBufferTagD2Ev
	.def	_ZN8Palmtree4Math4Core8Internal18ResourceHolderUINT29__DynamicNumberChainBufferTagD2Ev;	.scl	2;	.type	32;	.endef
	.seh_proc	_ZN8Palmtree4Math4Core8Internal18ResourceHolderUINT29__DynamicNumberChainBufferTagD2Ev
_ZN8Palmtree4Math4Core8Internal18ResourceHolderUINT29__DynamicNumberChainBufferTagD2Ev:
.LFB5113:
	.loc 7 685 5
	.cfi_startproc
	pushq	%rbp
	.seh_pushreg	%rbp
	.cfi_def_cfa_offset 16
	.cfi_offset 6, -16
	movq	%rsp, %rbp
	.seh_setframe	%rbp, 0
	.cfi_def_cfa_register 6
	subq	$32, %rsp
	.seh_stackalloc	32
	.seh_endprologue
	movq	%rcx, 16(%rbp)
.LBB67:
	.loc 7 685 87
	leaq	16+_ZTVN8Palmtree4Math4Core8Internal18ResourceHolderUINT29__DynamicNumberChainBufferTagE(%rip), %rdx
	movq	16(%rbp), %rax
	movq	%rdx, (%rax)
	movq	16(%rbp), %rax
	movq	%rax, %rcx
	call	_ZN8Palmtree4Math4Core8Internal14ResourceHolder16__ChainBufferTagD2Ev
.LBE67:
	.loc 7 687 5
	nop
	addq	$32, %rsp
	popq	%rbp
	.cfi_restore 6
	.cfi_def_cfa 7, 8
	ret
	.cfi_endproc
.LFE5113:
	.seh_endproc
	.globl	_ZN8Palmtree4Math4Core8Internal18ResourceHolderUINT29__DynamicNumberChainBufferTagD1Ev
	.def	_ZN8Palmtree4Math4Core8Internal18ResourceHolderUINT29__DynamicNumberChainBufferTagD1Ev;	.scl	2;	.type	32;	.endef
	.set	_ZN8Palmtree4Math4Core8Internal18ResourceHolderUINT29__DynamicNumberChainBufferTagD1Ev,_ZN8Palmtree4Math4Core8Internal18ResourceHolderUINT29__DynamicNumberChainBufferTagD2Ev
	.align 2
	.globl	_ZN8Palmtree4Math4Core8Internal18ResourceHolderUINT29__DynamicNumberChainBufferTagD0Ev
	.def	_ZN8Palmtree4Math4Core8Internal18ResourceHolderUINT29__DynamicNumberChainBufferTagD0Ev;	.scl	2;	.type	32;	.endef
	.seh_proc	_ZN8Palmtree4Math4Core8Internal18ResourceHolderUINT29__DynamicNumberChainBufferTagD0Ev
_ZN8Palmtree4Math4Core8Internal18ResourceHolderUINT29__DynamicNumberChainBufferTagD0Ev:
.LFB5115:
	.loc 7 685 5
	.cfi_startproc
	pushq	%rbp
	.seh_pushreg	%rbp
	.cfi_def_cfa_offset 16
	.cfi_offset 6, -16
	movq	%rsp, %rbp
	.seh_setframe	%rbp, 0
	.cfi_def_cfa_register 6
	subq	$32, %rsp
	.seh_stackalloc	32
	.seh_endprologue
	movq	%rcx, 16(%rbp)
	.loc 7 687 5
	movq	16(%rbp), %rcx
	call	_ZN8Palmtree4Math4Core8Internal18ResourceHolderUINT29__DynamicNumberChainBufferTagD1Ev
	movl	$32, %edx
	movq	16(%rbp), %rcx
	call	_ZdlPvy
	nop
	addq	$32, %rsp
	popq	%rbp
	.cfi_restore 6
	.cfi_def_cfa 7, 8
	ret
	.cfi_endproc
.LFE5115:
	.seh_endproc
	.align 2
	.globl	_ZN8Palmtree4Math4Core8Internal18ResourceHolderUINT29__DynamicNumberChainBufferTag19EqualsBufferAddressEPv
	.def	_ZN8Palmtree4Math4Core8Internal18ResourceHolderUINT29__DynamicNumberChainBufferTag19EqualsBufferAddressEPv;	.scl	2;	.type	32;	.endef
	.seh_proc	_ZN8Palmtree4Math4Core8Internal18ResourceHolderUINT29__DynamicNumberChainBufferTag19EqualsBufferAddressEPv
_ZN8Palmtree4Math4Core8Internal18ResourceHolderUINT29__DynamicNumberChainBufferTag19EqualsBufferAddressEPv:
.LFB5116:
	.loc 7 690 5
	.cfi_startproc
	pushq	%rbp
	.seh_pushreg	%rbp
	.cfi_def_cfa_offset 16
	.cfi_offset 6, -16
	movq	%rsp, %rbp
	.seh_setframe	%rbp, 0
	.cfi_def_cfa_register 6
	.seh_endprologue
	movq	%rcx, 16(%rbp)
	movq	%rdx, 24(%rbp)
	.loc 7 691 24
	movq	16(%rbp), %rax
	movq	24(%rax), %rax
	.loc 7 691 32
	cmpq	%rax, 24(%rbp)
	sete	%al
	.loc 7 691 41
	movzbl	%al, %eax
	.loc 7 692 5
	popq	%rbp
	.cfi_restore 6
	.cfi_def_cfa 7, 8
	ret
	.cfi_endproc
.LFE5116:
	.seh_endproc
	.align 2
	.globl	_ZN8Palmtree4Math4Core8Internal18ResourceHolderUINT29__DynamicNumberChainBufferTag5CheckEv
	.def	_ZN8Palmtree4Math4Core8Internal18ResourceHolderUINT29__DynamicNumberChainBufferTag5CheckEv;	.scl	2;	.type	32;	.endef
	.seh_proc	_ZN8Palmtree4Math4Core8Internal18ResourceHolderUINT29__DynamicNumberChainBufferTag5CheckEv
_ZN8Palmtree4Math4Core8Internal18ResourceHolderUINT29__DynamicNumberChainBufferTag5CheckEv:
.LFB5117:
	.loc 7 695 5
	.cfi_startproc
	pushq	%rbp
	.seh_pushreg	%rbp
	.cfi_def_cfa_offset 16
	.cfi_offset 6, -16
	movq	%rsp, %rbp
	.seh_setframe	%rbp, 0
	.cfi_def_cfa_register 6
	subq	$32, %rsp
	.seh_stackalloc	32
	.seh_endprologue
	movq	%rcx, 16(%rbp)
	.loc 7 696 52
	movq	16(%rbp), %rax
	movq	24(%rax), %rax
	movq	%rax, %rcx
	call	_ZN8Palmtree4Math4Core8Internal11CheckNumberEPNS2_19__tag_NUMBER_HEADERE
	.loc 7 697 5
	nop
	addq	$32, %rsp
	popq	%rbp
	.cfi_restore 6
	.cfi_def_cfa 7, 8
	ret
	.cfi_endproc
.LFE5117:
	.seh_endproc
	.align 2
	.globl	_ZN8Palmtree4Math4Core8Internal18ResourceHolderUINT29__DynamicNumberChainBufferTag8DestructEv
	.def	_ZN8Palmtree4Math4Core8Internal18ResourceHolderUINT29__DynamicNumberChainBufferTag8DestructEv;	.scl	2;	.type	32;	.endef
	.seh_proc	_ZN8Palmtree4Math4Core8Internal18ResourceHolderUINT29__DynamicNumberChainBufferTag8DestructEv
_ZN8Palmtree4Math4Core8Internal18ResourceHolderUINT29__DynamicNumberChainBufferTag8DestructEv:
.LFB5118:
	.loc 7 700 5
	.cfi_startproc
	pushq	%rbp
	.seh_pushreg	%rbp
	.cfi_def_cfa_offset 16
	.cfi_offset 6, -16
	movq	%rsp, %rbp
	.seh_setframe	%rbp, 0
	.cfi_def_cfa_register 6
	subq	$32, %rsp
	.seh_stackalloc	32
	.seh_endprologue
	movq	%rcx, 16(%rbp)
	.loc 7 701 57
	movq	16(%rbp), %rax
	movq	24(%rax), %rax
	movq	%rax, %rcx
	call	_ZN8Palmtree4Math4Core8InternalL16DeallocateNumberEPNS2_19__tag_NUMBER_HEADERE
	.loc 7 702 5
	nop
	addq	$32, %rsp
	popq	%rbp
	.cfi_restore 6
	.cfi_def_cfa 7, 8
	ret
	.cfi_endproc
.LFE5118:
	.seh_endproc
	.align 2
	.globl	_ZN8Palmtree4Math4Core8Internal18ResourceHolderUINT35__NumberHandleHookingChainBufferTagC2EPNS2_19__tag_NUMBER_HEADERE
	.def	_ZN8Palmtree4Math4Core8Internal18ResourceHolderUINT35__NumberHandleHookingChainBufferTagC2EPNS2_19__tag_NUMBER_HEADERE;	.scl	2;	.type	32;	.endef
	.seh_proc	_ZN8Palmtree4Math4Core8Internal18ResourceHolderUINT35__NumberHandleHookingChainBufferTagC2EPNS2_19__tag_NUMBER_HEADERE
_ZN8Palmtree4Math4Core8Internal18ResourceHolderUINT35__NumberHandleHookingChainBufferTagC2EPNS2_19__tag_NUMBER_HEADERE:
.LFB5120:
	.loc 7 704 5
	.cfi_startproc
	pushq	%rbp
	.seh_pushreg	%rbp
	.cfi_def_cfa_offset 16
	.cfi_offset 6, -16
	movq	%rsp, %rbp
	.seh_setframe	%rbp, 0
	.cfi_def_cfa_register 6
	subq	$32, %rsp
	.seh_stackalloc	32
	.seh_endprologue
	movq	%rcx, 16(%rbp)
	movq	%rdx, 24(%rbp)
.LBB68:
	.loc 7 704 120
	movq	16(%rbp), %rax
	movq	%rax, %rcx
	call	_ZN8Palmtree4Math4Core8Internal14ResourceHolder16__ChainBufferTagC2Ev
	leaq	16+_ZTVN8Palmtree4Math4Core8Internal18ResourceHolderUINT35__NumberHandleHookingChainBufferTagE(%rip), %rdx
	movq	16(%rbp), %rax
	movq	%rdx, (%rax)
	.loc 7 706 17
	movq	16(%rbp), %rax
	movq	24(%rbp), %rdx
	movq	%rdx, 24(%rax)
.LBE68:
	.loc 7 707 5
	nop
	addq	$32, %rsp
	popq	%rbp
	.cfi_restore 6
	.cfi_def_cfa 7, 8
	ret
	.cfi_endproc
.LFE5120:
	.seh_endproc
	.globl	_ZN8Palmtree4Math4Core8Internal18ResourceHolderUINT35__NumberHandleHookingChainBufferTagC1EPNS2_19__tag_NUMBER_HEADERE
	.def	_ZN8Palmtree4Math4Core8Internal18ResourceHolderUINT35__NumberHandleHookingChainBufferTagC1EPNS2_19__tag_NUMBER_HEADERE;	.scl	2;	.type	32;	.endef
	.set	_ZN8Palmtree4Math4Core8Internal18ResourceHolderUINT35__NumberHandleHookingChainBufferTagC1EPNS2_19__tag_NUMBER_HEADERE,_ZN8Palmtree4Math4Core8Internal18ResourceHolderUINT35__NumberHandleHookingChainBufferTagC2EPNS2_19__tag_NUMBER_HEADERE
	.align 2
	.globl	_ZN8Palmtree4Math4Core8Internal18ResourceHolderUINT35__NumberHandleHookingChainBufferTagD2Ev
	.def	_ZN8Palmtree4Math4Core8Internal18ResourceHolderUINT35__NumberHandleHookingChainBufferTagD2Ev;	.scl	2;	.type	32;	.endef
	.seh_proc	_ZN8Palmtree4Math4Core8Internal18ResourceHolderUINT35__NumberHandleHookingChainBufferTagD2Ev
_ZN8Palmtree4Math4Core8Internal18ResourceHolderUINT35__NumberHandleHookingChainBufferTagD2Ev:
.LFB5123:
	.loc 7 709 5
	.cfi_startproc
	pushq	%rbp
	.seh_pushreg	%rbp
	.cfi_def_cfa_offset 16
	.cfi_offset 6, -16
	movq	%rsp, %rbp
	.seh_setframe	%rbp, 0
	.cfi_def_cfa_register 6
	subq	$32, %rsp
	.seh_stackalloc	32
	.seh_endprologue
	movq	%rcx, 16(%rbp)
.LBB69:
	.loc 7 709 99
	leaq	16+_ZTVN8Palmtree4Math4Core8Internal18ResourceHolderUINT35__NumberHandleHookingChainBufferTagE(%rip), %rdx
	movq	16(%rbp), %rax
	movq	%rdx, (%rax)
	movq	16(%rbp), %rax
	movq	%rax, %rcx
	call	_ZN8Palmtree4Math4Core8Internal14ResourceHolder16__ChainBufferTagD2Ev
.LBE69:
	.loc 7 711 5
	nop
	addq	$32, %rsp
	popq	%rbp
	.cfi_restore 6
	.cfi_def_cfa 7, 8
	ret
	.cfi_endproc
.LFE5123:
	.seh_endproc
	.globl	_ZN8Palmtree4Math4Core8Internal18ResourceHolderUINT35__NumberHandleHookingChainBufferTagD1Ev
	.def	_ZN8Palmtree4Math4Core8Internal18ResourceHolderUINT35__NumberHandleHookingChainBufferTagD1Ev;	.scl	2;	.type	32;	.endef
	.set	_ZN8Palmtree4Math4Core8Internal18ResourceHolderUINT35__NumberHandleHookingChainBufferTagD1Ev,_ZN8Palmtree4Math4Core8Internal18ResourceHolderUINT35__NumberHandleHookingChainBufferTagD2Ev
	.align 2
	.globl	_ZN8Palmtree4Math4Core8Internal18ResourceHolderUINT35__NumberHandleHookingChainBufferTagD0Ev
	.def	_ZN8Palmtree4Math4Core8Internal18ResourceHolderUINT35__NumberHandleHookingChainBufferTagD0Ev;	.scl	2;	.type	32;	.endef
	.seh_proc	_ZN8Palmtree4Math4Core8Internal18ResourceHolderUINT35__NumberHandleHookingChainBufferTagD0Ev
_ZN8Palmtree4Math4Core8Internal18ResourceHolderUINT35__NumberHandleHookingChainBufferTagD0Ev:
.LFB5125:
	.loc 7 709 5
	.cfi_startproc
	pushq	%rbp
	.seh_pushreg	%rbp
	.cfi_def_cfa_offset 16
	.cfi_offset 6, -16
	movq	%rsp, %rbp
	.seh_setframe	%rbp, 0
	.cfi_def_cfa_register 6
	subq	$32, %rsp
	.seh_stackalloc	32
	.seh_endprologue
	movq	%rcx, 16(%rbp)
	.loc 7 711 5
	movq	16(%rbp), %rcx
	call	_ZN8Palmtree4Math4Core8Internal18ResourceHolderUINT35__NumberHandleHookingChainBufferTagD1Ev
	movl	$32, %edx
	movq	16(%rbp), %rcx
	call	_ZdlPvy
	nop
	addq	$32, %rsp
	popq	%rbp
	.cfi_restore 6
	.cfi_def_cfa 7, 8
	ret
	.cfi_endproc
.LFE5125:
	.seh_endproc
	.align 2
	.globl	_ZN8Palmtree4Math4Core8Internal18ResourceHolderUINT35__NumberHandleHookingChainBufferTag19EqualsBufferAddressEPv
	.def	_ZN8Palmtree4Math4Core8Internal18ResourceHolderUINT35__NumberHandleHookingChainBufferTag19EqualsBufferAddressEPv;	.scl	2;	.type	32;	.endef
	.seh_proc	_ZN8Palmtree4Math4Core8Internal18ResourceHolderUINT35__NumberHandleHookingChainBufferTag19EqualsBufferAddressEPv
_ZN8Palmtree4Math4Core8Internal18ResourceHolderUINT35__NumberHandleHookingChainBufferTag19EqualsBufferAddressEPv:
.LFB5126:
	.loc 7 714 5
	.cfi_startproc
	pushq	%rbp
	.seh_pushreg	%rbp
	.cfi_def_cfa_offset 16
	.cfi_offset 6, -16
	movq	%rsp, %rbp
	.seh_setframe	%rbp, 0
	.cfi_def_cfa_register 6
	.seh_endprologue
	movq	%rcx, 16(%rbp)
	movq	%rdx, 24(%rbp)
	.loc 7 715 24
	movq	16(%rbp), %rax
	movq	24(%rax), %rax
	.loc 7 715 32
	cmpq	%rax, 24(%rbp)
	sete	%al
	.loc 7 715 41
	movzbl	%al, %eax
	.loc 7 716 5
	popq	%rbp
	.cfi_restore 6
	.cfi_def_cfa 7, 8
	ret
	.cfi_endproc
.LFE5126:
	.seh_endproc
	.align 2
	.globl	_ZN8Palmtree4Math4Core8Internal18ResourceHolderUINT35__NumberHandleHookingChainBufferTag5CheckEv
	.def	_ZN8Palmtree4Math4Core8Internal18ResourceHolderUINT35__NumberHandleHookingChainBufferTag5CheckEv;	.scl	2;	.type	32;	.endef
	.seh_proc	_ZN8Palmtree4Math4Core8Internal18ResourceHolderUINT35__NumberHandleHookingChainBufferTag5CheckEv
_ZN8Palmtree4Math4Core8Internal18ResourceHolderUINT35__NumberHandleHookingChainBufferTag5CheckEv:
.LFB5127:
	.loc 7 719 5
	.cfi_startproc
	pushq	%rbp
	.seh_pushreg	%rbp
	.cfi_def_cfa_offset 16
	.cfi_offset 6, -16
	movq	%rsp, %rbp
	.seh_setframe	%rbp, 0
	.cfi_def_cfa_register 6
	.seh_endprologue
	movq	%rcx, 16(%rbp)
	.loc 7 720 5
	nop
	popq	%rbp
	.cfi_restore 6
	.cfi_def_cfa 7, 8
	ret
	.cfi_endproc
.LFE5127:
	.seh_endproc
	.align 2
	.globl	_ZN8Palmtree4Math4Core8Internal18ResourceHolderUINT35__NumberHandleHookingChainBufferTag8DestructEv
	.def	_ZN8Palmtree4Math4Core8Internal18ResourceHolderUINT35__NumberHandleHookingChainBufferTag8DestructEv;	.scl	2;	.type	32;	.endef
	.seh_proc	_ZN8Palmtree4Math4Core8Internal18ResourceHolderUINT35__NumberHandleHookingChainBufferTag8DestructEv
_ZN8Palmtree4Math4Core8Internal18ResourceHolderUINT35__NumberHandleHookingChainBufferTag8DestructEv:
.LFB5128:
	.loc 7 723 5
	.cfi_startproc
	pushq	%rbp
	.seh_pushreg	%rbp
	.cfi_def_cfa_offset 16
	.cfi_offset 6, -16
	movq	%rsp, %rbp
	.seh_setframe	%rbp, 0
	.cfi_def_cfa_register 6
	subq	$32, %rsp
	.seh_stackalloc	32
	.seh_endprologue
	movq	%rcx, 16(%rbp)
	.loc 7 724 56
	movq	16(%rbp), %rax
	movq	24(%rax), %rax
	movq	%rax, %rcx
	call	_ZN8Palmtree4Math4Core8InternalL16DeallocateNumberEPNS2_19__tag_NUMBER_HEADERE
	.loc 7 725 5
	nop
	addq	$32, %rsp
	popq	%rbp
	.cfi_restore 6
	.cfi_def_cfa 7, 8
	ret
	.cfi_endproc
.LFE5128:
	.seh_endproc
	.align 2
	.globl	_ZN8Palmtree4Math4Core8Internal18ResourceHolderUINT28__StaticNumberChainBufferTagC2EPNS2_19__tag_NUMBER_HEADERE
	.def	_ZN8Palmtree4Math4Core8Internal18ResourceHolderUINT28__StaticNumberChainBufferTagC2EPNS2_19__tag_NUMBER_HEADERE;	.scl	2;	.type	32;	.endef
	.seh_proc	_ZN8Palmtree4Math4Core8Internal18ResourceHolderUINT28__StaticNumberChainBufferTagC2EPNS2_19__tag_NUMBER_HEADERE
_ZN8Palmtree4Math4Core8Internal18ResourceHolderUINT28__StaticNumberChainBufferTagC2EPNS2_19__tag_NUMBER_HEADERE:
.LFB5130:
	.loc 7 727 5
	.cfi_startproc
	pushq	%rbp
	.seh_pushreg	%rbp
	.cfi_def_cfa_offset 16
	.cfi_offset 6, -16
	movq	%rsp, %rbp
	.seh_setframe	%rbp, 0
	.cfi_def_cfa_register 6
	subq	$32, %rsp
	.seh_stackalloc	32
	.seh_endprologue
	movq	%rcx, 16(%rbp)
	movq	%rdx, 24(%rbp)
.LBB70:
	.loc 7 727 106
	movq	16(%rbp), %rax
	movq	%rax, %rcx
	call	_ZN8Palmtree4Math4Core8Internal14ResourceHolder16__ChainBufferTagC2Ev
	leaq	16+_ZTVN8Palmtree4Math4Core8Internal18ResourceHolderUINT28__StaticNumberChainBufferTagE(%rip), %rdx
	movq	16(%rbp), %rax
	movq	%rdx, (%rax)
	.loc 7 729 17
	movq	16(%rbp), %rax
	movq	24(%rbp), %rdx
	movq	%rdx, 24(%rax)
.LBE70:
	.loc 7 730 5
	nop
	addq	$32, %rsp
	popq	%rbp
	.cfi_restore 6
	.cfi_def_cfa 7, 8
	ret
	.cfi_endproc
.LFE5130:
	.seh_endproc
	.globl	_ZN8Palmtree4Math4Core8Internal18ResourceHolderUINT28__StaticNumberChainBufferTagC1EPNS2_19__tag_NUMBER_HEADERE
	.def	_ZN8Palmtree4Math4Core8Internal18ResourceHolderUINT28__StaticNumberChainBufferTagC1EPNS2_19__tag_NUMBER_HEADERE;	.scl	2;	.type	32;	.endef
	.set	_ZN8Palmtree4Math4Core8Internal18ResourceHolderUINT28__StaticNumberChainBufferTagC1EPNS2_19__tag_NUMBER_HEADERE,_ZN8Palmtree4Math4Core8Internal18ResourceHolderUINT28__StaticNumberChainBufferTagC2EPNS2_19__tag_NUMBER_HEADERE
	.align 2
	.globl	_ZN8Palmtree4Math4Core8Internal18ResourceHolderUINT28__StaticNumberChainBufferTagD2Ev
	.def	_ZN8Palmtree4Math4Core8Internal18ResourceHolderUINT28__StaticNumberChainBufferTagD2Ev;	.scl	2;	.type	32;	.endef
	.seh_proc	_ZN8Palmtree4Math4Core8Internal18ResourceHolderUINT28__StaticNumberChainBufferTagD2Ev
_ZN8Palmtree4Math4Core8Internal18ResourceHolderUINT28__StaticNumberChainBufferTagD2Ev:
.LFB5133:
	.loc 7 732 5
	.cfi_startproc
	pushq	%rbp
	.seh_pushreg	%rbp
	.cfi_def_cfa_offset 16
	.cfi_offset 6, -16
	movq	%rsp, %rbp
	.seh_setframe	%rbp, 0
	.cfi_def_cfa_register 6
	subq	$32, %rsp
	.seh_stackalloc	32
	.seh_endprologue
	movq	%rcx, 16(%rbp)
.LBB71:
	.loc 7 732 85
	leaq	16+_ZTVN8Palmtree4Math4Core8Internal18ResourceHolderUINT28__StaticNumberChainBufferTagE(%rip), %rdx
	movq	16(%rbp), %rax
	movq	%rdx, (%rax)
	movq	16(%rbp), %rax
	movq	%rax, %rcx
	call	_ZN8Palmtree4Math4Core8Internal14ResourceHolder16__ChainBufferTagD2Ev
.LBE71:
	.loc 7 734 5
	nop
	addq	$32, %rsp
	popq	%rbp
	.cfi_restore 6
	.cfi_def_cfa 7, 8
	ret
	.cfi_endproc
.LFE5133:
	.seh_endproc
	.globl	_ZN8Palmtree4Math4Core8Internal18ResourceHolderUINT28__StaticNumberChainBufferTagD1Ev
	.def	_ZN8Palmtree4Math4Core8Internal18ResourceHolderUINT28__StaticNumberChainBufferTagD1Ev;	.scl	2;	.type	32;	.endef
	.set	_ZN8Palmtree4Math4Core8Internal18ResourceHolderUINT28__StaticNumberChainBufferTagD1Ev,_ZN8Palmtree4Math4Core8Internal18ResourceHolderUINT28__StaticNumberChainBufferTagD2Ev
	.align 2
	.globl	_ZN8Palmtree4Math4Core8Internal18ResourceHolderUINT28__StaticNumberChainBufferTagD0Ev
	.def	_ZN8Palmtree4Math4Core8Internal18ResourceHolderUINT28__StaticNumberChainBufferTagD0Ev;	.scl	2;	.type	32;	.endef
	.seh_proc	_ZN8Palmtree4Math4Core8Internal18ResourceHolderUINT28__StaticNumberChainBufferTagD0Ev
_ZN8Palmtree4Math4Core8Internal18ResourceHolderUINT28__StaticNumberChainBufferTagD0Ev:
.LFB5135:
	.loc 7 732 5
	.cfi_startproc
	pushq	%rbp
	.seh_pushreg	%rbp
	.cfi_def_cfa_offset 16
	.cfi_offset 6, -16
	movq	%rsp, %rbp
	.seh_setframe	%rbp, 0
	.cfi_def_cfa_register 6
	subq	$32, %rsp
	.seh_stackalloc	32
	.seh_endprologue
	movq	%rcx, 16(%rbp)
	.loc 7 734 5
	movq	16(%rbp), %rcx
	call	_ZN8Palmtree4Math4Core8Internal18ResourceHolderUINT28__StaticNumberChainBufferTagD1Ev
	movl	$32, %edx
	movq	16(%rbp), %rcx
	call	_ZdlPvy
	nop
	addq	$32, %rsp
	popq	%rbp
	.cfi_restore 6
	.cfi_def_cfa 7, 8
	ret
	.cfi_endproc
.LFE5135:
	.seh_endproc
	.align 2
	.globl	_ZN8Palmtree4Math4Core8Internal18ResourceHolderUINT28__StaticNumberChainBufferTag19EqualsBufferAddressEPv
	.def	_ZN8Palmtree4Math4Core8Internal18ResourceHolderUINT28__StaticNumberChainBufferTag19EqualsBufferAddressEPv;	.scl	2;	.type	32;	.endef
	.seh_proc	_ZN8Palmtree4Math4Core8Internal18ResourceHolderUINT28__StaticNumberChainBufferTag19EqualsBufferAddressEPv
_ZN8Palmtree4Math4Core8Internal18ResourceHolderUINT28__StaticNumberChainBufferTag19EqualsBufferAddressEPv:
.LFB5136:
	.loc 7 737 5
	.cfi_startproc
	pushq	%rbp
	.seh_pushreg	%rbp
	.cfi_def_cfa_offset 16
	.cfi_offset 6, -16
	movq	%rsp, %rbp
	.seh_setframe	%rbp, 0
	.cfi_def_cfa_register 6
	.seh_endprologue
	movq	%rcx, 16(%rbp)
	movq	%rdx, 24(%rbp)
	.loc 7 738 24
	movq	16(%rbp), %rax
	movq	24(%rax), %rax
	.loc 7 738 32
	cmpq	%rax, 24(%rbp)
	sete	%al
	.loc 7 738 41
	movzbl	%al, %eax
	.loc 7 739 5
	popq	%rbp
	.cfi_restore 6
	.cfi_def_cfa 7, 8
	ret
	.cfi_endproc
.LFE5136:
	.seh_endproc
	.align 2
	.globl	_ZN8Palmtree4Math4Core8Internal18ResourceHolderUINT28__StaticNumberChainBufferTag5CheckEv
	.def	_ZN8Palmtree4Math4Core8Internal18ResourceHolderUINT28__StaticNumberChainBufferTag5CheckEv;	.scl	2;	.type	32;	.endef
	.seh_proc	_ZN8Palmtree4Math4Core8Internal18ResourceHolderUINT28__StaticNumberChainBufferTag5CheckEv
_ZN8Palmtree4Math4Core8Internal18ResourceHolderUINT28__StaticNumberChainBufferTag5CheckEv:
.LFB5137:
	.loc 7 742 5
	.cfi_startproc
	pushq	%rbp
	.seh_pushreg	%rbp
	.cfi_def_cfa_offset 16
	.cfi_offset 6, -16
	movq	%rsp, %rbp
	.seh_setframe	%rbp, 0
	.cfi_def_cfa_register 6
	.seh_endprologue
	movq	%rcx, 16(%rbp)
	.loc 7 743 5
	nop
	popq	%rbp
	.cfi_restore 6
	.cfi_def_cfa 7, 8
	ret
	.cfi_endproc
.LFE5137:
	.seh_endproc
	.align 2
	.globl	_ZN8Palmtree4Math4Core8Internal18ResourceHolderUINT28__StaticNumberChainBufferTag8DestructEv
	.def	_ZN8Palmtree4Math4Core8Internal18ResourceHolderUINT28__StaticNumberChainBufferTag8DestructEv;	.scl	2;	.type	32;	.endef
	.seh_proc	_ZN8Palmtree4Math4Core8Internal18ResourceHolderUINT28__StaticNumberChainBufferTag8DestructEv
_ZN8Palmtree4Math4Core8Internal18ResourceHolderUINT28__StaticNumberChainBufferTag8DestructEv:
.LFB5138:
	.loc 7 746 5
	.cfi_startproc
	pushq	%rbp
	.seh_pushreg	%rbp
	.cfi_def_cfa_offset 16
	.cfi_offset 6, -16
	movq	%rsp, %rbp
	.seh_setframe	%rbp, 0
	.cfi_def_cfa_register 6
	subq	$32, %rsp
	.seh_stackalloc	32
	.seh_endprologue
	movq	%rcx, 16(%rbp)
	.loc 7 747 22
	movq	16(%rbp), %rax
	movq	24(%rax), %rax
	movq	%rax, %rcx
	call	_ZN8Palmtree4Math4Core8InternalL13DetatchNumberEPNS2_19__tag_NUMBER_HEADERE
	.loc 7 748 5
	nop
	addq	$32, %rsp
	popq	%rbp
	.cfi_restore 6
	.cfi_def_cfa 7, 8
	ret
	.cfi_endproc
.LFE5138:
	.seh_endproc
	.align 2
	.globl	_ZN8Palmtree4Math4Core8Internal18ResourceHolderUINTC2Ev
	.def	_ZN8Palmtree4Math4Core8Internal18ResourceHolderUINTC2Ev;	.scl	2;	.type	32;	.endef
	.seh_proc	_ZN8Palmtree4Math4Core8Internal18ResourceHolderUINTC2Ev
_ZN8Palmtree4Math4Core8Internal18ResourceHolderUINTC2Ev:
.LFB5140:
	.loc 7 750 5
	.cfi_startproc
	pushq	%rbp
	.seh_pushreg	%rbp
	.cfi_def_cfa_offset 16
	.cfi_offset 6, -16
	movq	%rsp, %rbp
	.seh_setframe	%rbp, 0
	.cfi_def_cfa_register 6
	subq	$32, %rsp
	.seh_stackalloc	32
	.seh_endprologue
	movq	%rcx, 16(%rbp)
.LBB72:
	.loc 7 750 44
	movq	16(%rbp), %rax
	movq	%rax, %rcx
	call	_ZN8Palmtree4Math4Core8Internal14ResourceHolderC2Ev
	leaq	16+_ZTVN8Palmtree4Math4Core8Internal18ResourceHolderUINTE(%rip), %rdx
	movq	16(%rbp), %rax
	movq	%rdx, (%rax)
.LBE72:
	.loc 7 752 5
	nop
	addq	$32, %rsp
	popq	%rbp
	.cfi_restore 6
	.cfi_def_cfa 7, 8
	ret
	.cfi_endproc
.LFE5140:
	.seh_endproc
	.globl	_ZN8Palmtree4Math4Core8Internal18ResourceHolderUINTC1Ev
	.def	_ZN8Palmtree4Math4Core8Internal18ResourceHolderUINTC1Ev;	.scl	2;	.type	32;	.endef
	.set	_ZN8Palmtree4Math4Core8Internal18ResourceHolderUINTC1Ev,_ZN8Palmtree4Math4Core8Internal18ResourceHolderUINTC2Ev
	.align 2
	.globl	_ZN8Palmtree4Math4Core8Internal18ResourceHolderUINTD2Ev
	.def	_ZN8Palmtree4Math4Core8Internal18ResourceHolderUINTD2Ev;	.scl	2;	.type	32;	.endef
	.seh_proc	_ZN8Palmtree4Math4Core8Internal18ResourceHolderUINTD2Ev
_ZN8Palmtree4Math4Core8Internal18ResourceHolderUINTD2Ev:
.LFB5143:
	.loc 7 754 5
	.cfi_startproc
	pushq	%rbp
	.seh_pushreg	%rbp
	.cfi_def_cfa_offset 16
	.cfi_offset 6, -16
	movq	%rsp, %rbp
	.seh_setframe	%rbp, 0
	.cfi_def_cfa_register 6
	subq	$32, %rsp
	.seh_stackalloc	32
	.seh_endprologue
	movq	%rcx, 16(%rbp)
.LBB73:
	.loc 7 754 45
	leaq	16+_ZTVN8Palmtree4Math4Core8Internal18ResourceHolderUINTE(%rip), %rdx
	movq	16(%rbp), %rax
	movq	%rdx, (%rax)
	movq	16(%rbp), %rax
	movq	%rax, %rcx
	call	_ZN8Palmtree4Math4Core8Internal14ResourceHolderD2Ev
.LBE73:
	.loc 7 756 5
	nop
	addq	$32, %rsp
	popq	%rbp
	.cfi_restore 6
	.cfi_def_cfa 7, 8
	ret
	.cfi_endproc
.LFE5143:
	.seh_endproc
	.globl	_ZN8Palmtree4Math4Core8Internal18ResourceHolderUINTD1Ev
	.def	_ZN8Palmtree4Math4Core8Internal18ResourceHolderUINTD1Ev;	.scl	2;	.type	32;	.endef
	.set	_ZN8Palmtree4Math4Core8Internal18ResourceHolderUINTD1Ev,_ZN8Palmtree4Math4Core8Internal18ResourceHolderUINTD2Ev
	.align 2
	.globl	_ZN8Palmtree4Math4Core8Internal18ResourceHolderUINTD0Ev
	.def	_ZN8Palmtree4Math4Core8Internal18ResourceHolderUINTD0Ev;	.scl	2;	.type	32;	.endef
	.seh_proc	_ZN8Palmtree4Math4Core8Internal18ResourceHolderUINTD0Ev
_ZN8Palmtree4Math4Core8Internal18ResourceHolderUINTD0Ev:
.LFB5145:
	.loc 7 754 5
	.cfi_startproc
	pushq	%rbp
	.seh_pushreg	%rbp
	.cfi_def_cfa_offset 16
	.cfi_offset 6, -16
	movq	%rsp, %rbp
	.seh_setframe	%rbp, 0
	.cfi_def_cfa_register 6
	subq	$32, %rsp
	.seh_stackalloc	32
	.seh_endprologue
	movq	%rcx, 16(%rbp)
	.loc 7 756 5
	movq	16(%rbp), %rcx
	call	_ZN8Palmtree4Math4Core8Internal18ResourceHolderUINTD1Ev
	movl	$32, %edx
	movq	16(%rbp), %rcx
	call	_ZdlPvy
	nop
	addq	$32, %rsp
	popq	%rbp
	.cfi_restore 6
	.cfi_def_cfa 7, 8
	ret
	.cfi_endproc
.LFE5145:
	.seh_endproc
	.align 2
	.globl	_ZN8Palmtree4Math4Core8Internal18ResourceHolderUINT13AllocateBytesEy
	.def	_ZN8Palmtree4Math4Core8Internal18ResourceHolderUINT13AllocateBytesEy;	.scl	2;	.type	32;	.endef
	.seh_proc	_ZN8Palmtree4Math4Core8Internal18ResourceHolderUINT13AllocateBytesEy
_ZN8Palmtree4Math4Core8Internal18ResourceHolderUINT13AllocateBytesEy:
.LFB5146:
	.loc 7 759 5
	.cfi_startproc
	pushq	%rbp
	.seh_pushreg	%rbp
	.cfi_def_cfa_offset 16
	.cfi_offset 6, -16
	pushq	%rbx
	.seh_pushreg	%rbx
	.cfi_def_cfa_offset 24
	.cfi_offset 3, -24
	subq	$72, %rsp
	.seh_stackalloc	72
	.cfi_def_cfa_offset 96
	leaq	128(%rsp), %rbp
	.seh_setframe	%rbp, 128
	.cfi_def_cfa 6, -32
	.seh_endprologue
	movq	%rcx, -32(%rbp)
	movq	%rdx, -24(%rbp)
	.loc 7 760 14
	leaq	-73(%rbp), %rax
	movq	%rax, %rcx
.LEHB5:
	call	_ZN8Palmtree4Math4Core8Internal4LockC1Ev
.LEHE5:
	.loc 7 761 33
	movq	_ZN8Palmtree4Math4Core8Internal10hLocalHeapE(%rip), %rax
	movq	-24(%rbp), %rdx
	movq	%rdx, %r8
	movl	$8, %edx
	movq	%rax, %rcx
	movq	__imp_HeapAlloc(%rip), %rax
.LEHB6:
	call	*%rax
.LVL12:
	.loc 7 761 67
	movq	%rax, -88(%rbp)
	.loc 7 762 20
	movq	-88(%rbp), %rax
	.loc 7 762 9
	testq	%rax, %rax
	jne	.L208
	.loc 7 763 98
	movl	$32, %ecx
	call	__cxa_allocate_exception
	movq	%rax, %rbx
	leaq	.LC2(%rip), %rdx
	movq	%rbx, %rcx
	call	_ZN8Palmtree4Math4Core8Internal24NotEnoughMemoryExceptionC1EPKw
	leaq	_ZN8Palmtree4Math4Core8Internal24NotEnoughMemoryExceptionD1Ev(%rip), %rax
	movq	%rax, %r8
	leaq	_ZTIN8Palmtree4Math4Core8Internal24NotEnoughMemoryExceptionE(%rip), %rdx
	movq	%rbx, %rcx
	call	__cxa_throw
.L208:
	.loc 7 769 67
	movl	$32, %ecx
	call	_Znwy
.LEHE6:
	movq	%rax, %rbx
	movq	-88(%rbp), %rax
	movq	%rax, %rdx
	movq	%rbx, %rcx
	call	_ZN8Palmtree4Math4Core8Internal18ResourceHolderUINT23__GenericChainBufferTagC1EPv
	movq	%rbx, -72(%rbp)
	.loc 7 770 16
	movq	-32(%rbp), %rax
	movq	-72(%rbp), %rdx
	movq	%rax, %rcx
	call	_ZN8Palmtree4Math4Core8Internal14ResourceHolder7LinkTagEPNS3_16__ChainBufferTagE
	.loc 7 771 23
	movq	-88(%rbp), %rbx
	.loc 7 760 14
	leaq	-73(%rbp), %rax
	movq	%rax, %rcx
	call	_ZN8Palmtree4Math4Core8Internal4LockD1Ev
	.loc 7 771 23
	movq	%rbx, %rax
	jmp	.L212
.L211:
	movq	%rax, %rbx
	.loc 7 760 14
	leaq	-73(%rbp), %rax
	movq	%rax, %rcx
	call	_ZN8Palmtree4Math4Core8Internal4LockD1Ev
	movq	%rbx, %rax
	movq	%rax, %rcx
.LEHB7:
	call	_Unwind_Resume
.LEHE7:
.L212:
	.loc 7 772 5
	addq	$72, %rsp
	popq	%rbx
	.cfi_restore 3
	popq	%rbp
	.cfi_restore 6
	.cfi_def_cfa 7, -56
	ret
	.cfi_endproc
.LFE5146:
	.seh_handler	__gxx_personality_seh0, @unwind, @except
	.seh_handlerdata
.LLSDA5146:
	.byte	0xff
	.byte	0xff
	.byte	0x1
	.uleb128 .LLSDACSE5146-.LLSDACSB5146
.LLSDACSB5146:
	.uleb128 .LEHB5-.LFB5146
	.uleb128 .LEHE5-.LEHB5
	.uleb128 0
	.uleb128 0
	.uleb128 .LEHB6-.LFB5146
	.uleb128 .LEHE6-.LEHB6
	.uleb128 .L211-.LFB5146
	.uleb128 0
	.uleb128 .LEHB7-.LFB5146
	.uleb128 .LEHE7-.LEHB7
	.uleb128 0
	.uleb128 0
.LLSDACSE5146:
	.text
	.seh_endproc
	.align 2
	.globl	_ZN8Palmtree4Math4Core8Internal18ResourceHolderUINT15DeallocateBytesEPv
	.def	_ZN8Palmtree4Math4Core8Internal18ResourceHolderUINT15DeallocateBytesEPv;	.scl	2;	.type	32;	.endef
	.seh_proc	_ZN8Palmtree4Math4Core8Internal18ResourceHolderUINT15DeallocateBytesEPv
_ZN8Palmtree4Math4Core8Internal18ResourceHolderUINT15DeallocateBytesEPv:
.LFB5147:
	.loc 7 775 5
	.cfi_startproc
	pushq	%rbp
	.seh_pushreg	%rbp
	.cfi_def_cfa_offset 16
	.cfi_offset 6, -16
	pushq	%rbx
	.seh_pushreg	%rbx
	.cfi_def_cfa_offset 24
	.cfi_offset 3, -24
	subq	$56, %rsp
	.seh_stackalloc	56
	.cfi_def_cfa_offset 80
	leaq	128(%rsp), %rbp
	.seh_setframe	%rbp, 128
	.cfi_def_cfa 6, -48
	.seh_endprologue
	movq	%rcx, -48(%rbp)
	movq	%rdx, -40(%rbp)
	.loc 7 776 14
	leaq	-89(%rbp), %rax
	movq	%rax, %rcx
.LEHB8:
	call	_ZN8Palmtree4Math4Core8Internal4LockC1Ev
.LEHE8:
	.loc 7 777 40
	movq	-48(%rbp), %rax
	movq	-40(%rbp), %rdx
	movq	%rax, %rcx
.LEHB9:
	call	_ZN8Palmtree4Math4Core8Internal14ResourceHolder7FindTagEPv
	movq	%rax, -88(%rbp)
	.loc 7 778 9
	cmpq	$0, -88(%rbp)
	je	.L214
	.loc 7 780 24
	movq	-88(%rbp), %rax
	movq	%rax, %rcx
	call	_ZN8Palmtree4Math4Core8Internal14ResourceHolder16__ChainBufferTag6UnlinkEv
	.loc 7 781 27
	movq	-88(%rbp), %rax
	movq	(%rax), %rax
	addq	$40, %rax
	movq	(%rax), %rax
	.loc 7 781 26
	movq	-88(%rbp), %rdx
	movq	%rdx, %rcx
	call	*%rax
.LVL13:
.LEHE9:
	.loc 7 782 23
	cmpq	$0, -88(%rbp)
	je	.L214
	.loc 7 782 20 discriminator 1
	movq	-88(%rbp), %rax
	movq	(%rax), %rax
	addq	$8, %rax
	movq	(%rax), %rax
	movq	-88(%rbp), %rdx
	movq	%rdx, %rcx
	call	*%rax
.LVL14:
.L214:
	.loc 7 776 14
	leaq	-89(%rbp), %rax
	movq	%rax, %rcx
	call	_ZN8Palmtree4Math4Core8Internal4LockD1Ev
	.loc 7 784 5
	jmp	.L217
.L216:
	movq	%rax, %rbx
	.loc 7 776 14
	leaq	-89(%rbp), %rax
	movq	%rax, %rcx
	call	_ZN8Palmtree4Math4Core8Internal4LockD1Ev
	movq	%rbx, %rax
	movq	%rax, %rcx
.LEHB10:
	call	_Unwind_Resume
	nop
.LEHE10:
.L217:
	.loc 7 784 5
	addq	$56, %rsp
	popq	%rbx
	.cfi_restore 3
	popq	%rbp
	.cfi_restore 6
	.cfi_def_cfa 7, -40
	ret
	.cfi_endproc
.LFE5147:
	.seh_handler	__gxx_personality_seh0, @unwind, @except
	.seh_handlerdata
.LLSDA5147:
	.byte	0xff
	.byte	0xff
	.byte	0x1
	.uleb128 .LLSDACSE5147-.LLSDACSB5147
.LLSDACSB5147:
	.uleb128 .LEHB8-.LFB5147
	.uleb128 .LEHE8-.LEHB8
	.uleb128 0
	.uleb128 0
	.uleb128 .LEHB9-.LFB5147
	.uleb128 .LEHE9-.LEHB9
	.uleb128 .L216-.LFB5147
	.uleb128 0
	.uleb128 .LEHB10-.LFB5147
	.uleb128 .LEHE10-.LEHB10
	.uleb128 0
	.uleb128 0
.LLSDACSE5147:
	.text
	.seh_endproc
	.section .rdata,"dr"
	.align 8
.LC13:
	.ascii "p\0m\0c\0_\0m\0e\0m\0o\0r\0y\0.\0c\0p\0p\0;\0R\0e\0s\0o\0u\0r\0c\0e\0H\0o\0l\0d\0e\0r\0U\0I\0N\0T\0:\0:\0U\0n\0l\0i\0n\0k\0B\0y\0t\0e\0s\0;\0"
	.ascii "1\0\0\0"
	.text
	.align 2
	.globl	_ZN8Palmtree4Math4Core8Internal18ResourceHolderUINT11UnlinkBytesEPv
	.def	_ZN8Palmtree4Math4Core8Internal18ResourceHolderUINT11UnlinkBytesEPv;	.scl	2;	.type	32;	.endef
	.seh_proc	_ZN8Palmtree4Math4Core8Internal18ResourceHolderUINT11UnlinkBytesEPv
_ZN8Palmtree4Math4Core8Internal18ResourceHolderUINT11UnlinkBytesEPv:
.LFB5148:
	.loc 7 787 5
	.cfi_startproc
	pushq	%rbp
	.seh_pushreg	%rbp
	.cfi_def_cfa_offset 16
	.cfi_offset 6, -16
	pushq	%rbx
	.seh_pushreg	%rbx
	.cfi_def_cfa_offset 24
	.cfi_offset 3, -24
	subq	$56, %rsp
	.seh_stackalloc	56
	.cfi_def_cfa_offset 80
	leaq	128(%rsp), %rbp
	.seh_setframe	%rbp, 128
	.cfi_def_cfa 6, -48
	.seh_endprologue
	movq	%rcx, -48(%rbp)
	movq	%rdx, -40(%rbp)
	.loc 7 788 14
	leaq	-89(%rbp), %rax
	movq	%rax, %rcx
.LEHB11:
	call	_ZN8Palmtree4Math4Core8Internal4LockC1Ev
.LEHE11:
	.loc 7 789 40
	movq	-48(%rbp), %rax
	movq	-40(%rbp), %rdx
	movq	%rax, %rcx
.LEHB12:
	call	_ZN8Palmtree4Math4Core8Internal14ResourceHolder7FindTagEPv
	movq	%rax, -88(%rbp)
	.loc 7 790 9
	cmpq	$0, -88(%rbp)
	jne	.L219
	.loc 7 791 145
	movl	$40, %ecx
	call	__cxa_allocate_exception
	movq	%rax, %rbx
	leaq	.LC13(%rip), %r8
	leaq	.LC4(%rip), %rdx
	movq	%rbx, %rcx
	call	_ZN8Palmtree4Math4Core8Internal18BadBufferExceptionC1EPKwS5_
	leaq	_ZN8Palmtree4Math4Core8Internal18BadBufferExceptionD1Ev(%rip), %rax
	movq	%rax, %r8
	leaq	_ZTIN8Palmtree4Math4Core8Internal18BadBufferExceptionE(%rip), %rdx
	movq	%rbx, %rcx
	call	__cxa_throw
.LEHE12:
.L219:
	.loc 7 792 20
	movq	-88(%rbp), %rax
	movq	%rax, %rcx
	call	_ZN8Palmtree4Math4Core8Internal14ResourceHolder16__ChainBufferTag6UnlinkEv
	.loc 7 788 14
	leaq	-89(%rbp), %rax
	movq	%rax, %rcx
	call	_ZN8Palmtree4Math4Core8Internal4LockD1Ev
	.loc 7 793 5
	jmp	.L222
.L221:
	movq	%rax, %rbx
	.loc 7 788 14
	leaq	-89(%rbp), %rax
	movq	%rax, %rcx
	call	_ZN8Palmtree4Math4Core8Internal4LockD1Ev
	movq	%rbx, %rax
	movq	%rax, %rcx
.LEHB13:
	call	_Unwind_Resume
	nop
.LEHE13:
.L222:
	.loc 7 793 5
	addq	$56, %rsp
	popq	%rbx
	.cfi_restore 3
	popq	%rbp
	.cfi_restore 6
	.cfi_def_cfa 7, -40
	ret
	.cfi_endproc
.LFE5148:
	.seh_handler	__gxx_personality_seh0, @unwind, @except
	.seh_handlerdata
.LLSDA5148:
	.byte	0xff
	.byte	0xff
	.byte	0x1
	.uleb128 .LLSDACSE5148-.LLSDACSB5148
.LLSDACSB5148:
	.uleb128 .LEHB11-.LFB5148
	.uleb128 .LEHE11-.LEHB11
	.uleb128 0
	.uleb128 0
	.uleb128 .LEHB12-.LFB5148
	.uleb128 .LEHE12-.LEHB12
	.uleb128 .L221-.LFB5148
	.uleb128 0
	.uleb128 .LEHB13-.LFB5148
	.uleb128 .LEHE13-.LEHB13
	.uleb128 0
	.uleb128 0
.LLSDACSE5148:
	.text
	.seh_endproc
	.align 2
	.globl	_ZN8Palmtree4Math4Core8Internal18ResourceHolderUINT13AllocateBlockEy
	.def	_ZN8Palmtree4Math4Core8Internal18ResourceHolderUINT13AllocateBlockEy;	.scl	2;	.type	32;	.endef
	.seh_proc	_ZN8Palmtree4Math4Core8Internal18ResourceHolderUINT13AllocateBlockEy
_ZN8Palmtree4Math4Core8Internal18ResourceHolderUINT13AllocateBlockEy:
.LFB5149:
	.loc 7 796 5
	.cfi_startproc
	pushq	%rbp
	.seh_pushreg	%rbp
	.cfi_def_cfa_offset 16
	.cfi_offset 6, -16
	pushq	%rbx
	.seh_pushreg	%rbx
	.cfi_def_cfa_offset 24
	.cfi_offset 3, -24
	subq	$88, %rsp
	.seh_stackalloc	88
	.cfi_def_cfa_offset 112
	leaq	128(%rsp), %rbp
	.seh_setframe	%rbp, 128
	.cfi_def_cfa 6, -16
	.seh_endprologue
	movq	%rcx, -16(%rbp)
	movq	%rdx, -8(%rbp)
	.loc 7 797 14
	leaq	-57(%rbp), %rax
	movq	%rax, %rcx
.LEHB14:
	call	_ZN8Palmtree4Math4Core8Internal4LockC1Ev
.LEHE14:
	.loc 7 800 76
	leaq	-80(%rbp), %rdx
	leaq	-72(%rbp), %rax
	movq	-8(%rbp), %rcx
	movq	%rdx, %r8
	movq	%rax, %rdx
.LEHB15:
	call	_ZN8Palmtree4Math4Core8InternalL13AllocateBlockEyPyS3_
	.loc 7 800 112
	movq	%rax, -88(%rbp)
	.loc 7 801 102
	movl	$48, %ecx
	call	_Znwy
.LEHE15:
	.loc 7 801 102 is_stmt 0 discriminator 1
	movq	%rax, %rbx
	movq	-80(%rbp), %rcx
	movq	-72(%rbp), %rdx
	movq	-88(%rbp), %rax
	movq	%rcx, %r9
	movq	%rdx, %r8
	movq	%rax, %rdx
	movq	%rbx, %rcx
	call	_ZN8Palmtree4Math4Core8Internal18ResourceHolderUINT34____UNIT_TYPE_Array_ChainBufferTagC1EPyyy
	movq	%rbx, -56(%rbp)
	.loc 7 802 16 is_stmt 1 discriminator 1
	movq	-16(%rbp), %rax
	movq	-56(%rbp), %rdx
	movq	%rax, %rcx
	call	_ZN8Palmtree4Math4Core8Internal14ResourceHolder7LinkTagEPNS3_16__ChainBufferTagE
	.loc 7 803 23 discriminator 1
	movq	-88(%rbp), %rbx
	.loc 7 797 14 discriminator 1
	leaq	-57(%rbp), %rax
	movq	%rax, %rcx
	call	_ZN8Palmtree4Math4Core8Internal4LockD1Ev
	.loc 7 803 23 discriminator 1
	movq	%rbx, %rax
	jmp	.L227
.L226:
	movq	%rax, %rbx
	.loc 7 797 14
	leaq	-57(%rbp), %rax
	movq	%rax, %rcx
	call	_ZN8Palmtree4Math4Core8Internal4LockD1Ev
	movq	%rbx, %rax
	movq	%rax, %rcx
.LEHB16:
	call	_Unwind_Resume
.LEHE16:
.L227:
	.loc 7 804 5
	addq	$88, %rsp
	popq	%rbx
	.cfi_restore 3
	popq	%rbp
	.cfi_restore 6
	.cfi_def_cfa 7, -72
	ret
	.cfi_endproc
.LFE5149:
	.seh_handler	__gxx_personality_seh0, @unwind, @except
	.seh_handlerdata
.LLSDA5149:
	.byte	0xff
	.byte	0xff
	.byte	0x1
	.uleb128 .LLSDACSE5149-.LLSDACSB5149
.LLSDACSB5149:
	.uleb128 .LEHB14-.LFB5149
	.uleb128 .LEHE14-.LEHB14
	.uleb128 0
	.uleb128 0
	.uleb128 .LEHB15-.LFB5149
	.uleb128 .LEHE15-.LEHB15
	.uleb128 .L226-.LFB5149
	.uleb128 0
	.uleb128 .LEHB16-.LFB5149
	.uleb128 .LEHE16-.LEHB16
	.uleb128 0
	.uleb128 0
.LLSDACSE5149:
	.text
	.seh_endproc
	.section .rdata,"dr"
	.align 8
.LC14:
	.ascii "p\0m\0c\0_\0m\0e\0m\0o\0r\0y\0.\0c\0p\0p\0;\0R\0e\0s\0o\0u\0r\0c\0e\0H\0o\0l\0d\0e\0r\0U\0I\0N\0T\0:\0:\0C\0l\0e\0a\0r\0B\0l\0o\0c\0k\0;\0"
	.ascii "1\0\0\0"
	.text
	.align 2
	.globl	_ZN8Palmtree4Math4Core8Internal18ResourceHolderUINT10ClearBlockEPy
	.def	_ZN8Palmtree4Math4Core8Internal18ResourceHolderUINT10ClearBlockEPy;	.scl	2;	.type	32;	.endef
	.seh_proc	_ZN8Palmtree4Math4Core8Internal18ResourceHolderUINT10ClearBlockEPy
_ZN8Palmtree4Math4Core8Internal18ResourceHolderUINT10ClearBlockEPy:
.LFB5150:
	.loc 7 807 5
	.cfi_startproc
	pushq	%rbp
	.seh_pushreg	%rbp
	.cfi_def_cfa_offset 16
	.cfi_offset 6, -16
	pushq	%rbx
	.seh_pushreg	%rbx
	.cfi_def_cfa_offset 24
	.cfi_offset 3, -24
	subq	$56, %rsp
	.seh_stackalloc	56
	.cfi_def_cfa_offset 80
	leaq	128(%rsp), %rbp
	.seh_setframe	%rbp, 128
	.cfi_def_cfa 6, -48
	.seh_endprologue
	movq	%rcx, -48(%rbp)
	movq	%rdx, -40(%rbp)
	.loc 7 808 14
	leaq	-89(%rbp), %rax
	movq	%rax, %rcx
.LEHB17:
	call	_ZN8Palmtree4Math4Core8Internal4LockC1Ev
.LEHE17:
	.loc 7 809 40
	movq	-48(%rbp), %rax
	movq	-40(%rbp), %rdx
	movq	%rax, %rcx
.LEHB18:
	call	_ZN8Palmtree4Math4Core8Internal14ResourceHolder7FindTagEPv
	movq	%rax, -88(%rbp)
	.loc 7 810 9
	cmpq	$0, -88(%rbp)
	jne	.L229
	.loc 7 811 144
	movl	$40, %ecx
	call	__cxa_allocate_exception
	movq	%rax, %rbx
	leaq	.LC14(%rip), %r8
	leaq	.LC4(%rip), %rdx
	movq	%rbx, %rcx
	call	_ZN8Palmtree4Math4Core8Internal18BadBufferExceptionC1EPKwS5_
	leaq	_ZN8Palmtree4Math4Core8Internal18BadBufferExceptionD1Ev(%rip), %rax
	movq	%rax, %r8
	leaq	_ZTIN8Palmtree4Math4Core8Internal18BadBufferExceptionE(%rip), %rdx
	movq	%rbx, %rcx
	call	__cxa_throw
.L229:
	.loc 7 812 20
	movq	-88(%rbp), %rax
	movq	(%rax), %rax
	addq	$24, %rax
	movq	(%rax), %rax
	.loc 7 812 19
	movq	-88(%rbp), %rdx
	movq	%rdx, %rcx
	call	*%rax
.LVL15:
.LEHE18:
	.loc 7 808 14
	leaq	-89(%rbp), %rax
	movq	%rax, %rcx
	call	_ZN8Palmtree4Math4Core8Internal4LockD1Ev
	.loc 7 813 5
	jmp	.L232
.L231:
	movq	%rax, %rbx
	.loc 7 808 14
	leaq	-89(%rbp), %rax
	movq	%rax, %rcx
	call	_ZN8Palmtree4Math4Core8Internal4LockD1Ev
	movq	%rbx, %rax
	movq	%rax, %rcx
.LEHB19:
	call	_Unwind_Resume
	nop
.LEHE19:
.L232:
	.loc 7 813 5
	addq	$56, %rsp
	popq	%rbx
	.cfi_restore 3
	popq	%rbp
	.cfi_restore 6
	.cfi_def_cfa 7, -40
	ret
	.cfi_endproc
.LFE5150:
	.seh_handler	__gxx_personality_seh0, @unwind, @except
	.seh_handlerdata
.LLSDA5150:
	.byte	0xff
	.byte	0xff
	.byte	0x1
	.uleb128 .LLSDACSE5150-.LLSDACSB5150
.LLSDACSB5150:
	.uleb128 .LEHB17-.LFB5150
	.uleb128 .LEHE17-.LEHB17
	.uleb128 0
	.uleb128 0
	.uleb128 .LEHB18-.LFB5150
	.uleb128 .LEHE18-.LEHB18
	.uleb128 .L231-.LFB5150
	.uleb128 0
	.uleb128 .LEHB19-.LFB5150
	.uleb128 .LEHE19-.LEHB19
	.uleb128 0
	.uleb128 0
.LLSDACSE5150:
	.text
	.seh_endproc
	.align 2
	.globl	_ZN8Palmtree4Math4Core8Internal18ResourceHolderUINT15DeallocateBlockEPy
	.def	_ZN8Palmtree4Math4Core8Internal18ResourceHolderUINT15DeallocateBlockEPy;	.scl	2;	.type	32;	.endef
	.seh_proc	_ZN8Palmtree4Math4Core8Internal18ResourceHolderUINT15DeallocateBlockEPy
_ZN8Palmtree4Math4Core8Internal18ResourceHolderUINT15DeallocateBlockEPy:
.LFB5151:
	.loc 7 816 5
	.cfi_startproc
	pushq	%rbp
	.seh_pushreg	%rbp
	.cfi_def_cfa_offset 16
	.cfi_offset 6, -16
	pushq	%rbx
	.seh_pushreg	%rbx
	.cfi_def_cfa_offset 24
	.cfi_offset 3, -24
	subq	$56, %rsp
	.seh_stackalloc	56
	.cfi_def_cfa_offset 80
	leaq	128(%rsp), %rbp
	.seh_setframe	%rbp, 128
	.cfi_def_cfa 6, -48
	.seh_endprologue
	movq	%rcx, -48(%rbp)
	movq	%rdx, -40(%rbp)
	.loc 7 817 14
	leaq	-89(%rbp), %rax
	movq	%rax, %rcx
.LEHB20:
	call	_ZN8Palmtree4Math4Core8Internal4LockC1Ev
.LEHE20:
	.loc 7 818 40
	movq	-48(%rbp), %rax
	movq	-40(%rbp), %rdx
	movq	%rax, %rcx
.LEHB21:
	call	_ZN8Palmtree4Math4Core8Internal14ResourceHolder7FindTagEPv
	movq	%rax, -88(%rbp)
	.loc 7 819 9
	cmpq	$0, -88(%rbp)
	je	.L234
	.loc 7 821 24
	movq	-88(%rbp), %rax
	movq	%rax, %rcx
	call	_ZN8Palmtree4Math4Core8Internal14ResourceHolder16__ChainBufferTag6UnlinkEv
	.loc 7 822 27
	movq	-88(%rbp), %rax
	movq	(%rax), %rax
	addq	$40, %rax
	movq	(%rax), %rax
	.loc 7 822 26
	movq	-88(%rbp), %rdx
	movq	%rdx, %rcx
	call	*%rax
.LVL16:
.LEHE21:
	.loc 7 823 23
	cmpq	$0, -88(%rbp)
	je	.L234
	.loc 7 823 20 discriminator 1
	movq	-88(%rbp), %rax
	movq	(%rax), %rax
	addq	$8, %rax
	movq	(%rax), %rax
	movq	-88(%rbp), %rdx
	movq	%rdx, %rcx
	call	*%rax
.LVL17:
.L234:
	.loc 7 817 14
	leaq	-89(%rbp), %rax
	movq	%rax, %rcx
	call	_ZN8Palmtree4Math4Core8Internal4LockD1Ev
	.loc 7 825 5
	jmp	.L237
.L236:
	movq	%rax, %rbx
	.loc 7 817 14
	leaq	-89(%rbp), %rax
	movq	%rax, %rcx
	call	_ZN8Palmtree4Math4Core8Internal4LockD1Ev
	movq	%rbx, %rax
	movq	%rax, %rcx
.LEHB22:
	call	_Unwind_Resume
	nop
.LEHE22:
.L237:
	.loc 7 825 5
	addq	$56, %rsp
	popq	%rbx
	.cfi_restore 3
	popq	%rbp
	.cfi_restore 6
	.cfi_def_cfa 7, -40
	ret
	.cfi_endproc
.LFE5151:
	.seh_handler	__gxx_personality_seh0, @unwind, @except
	.seh_handlerdata
.LLSDA5151:
	.byte	0xff
	.byte	0xff
	.byte	0x1
	.uleb128 .LLSDACSE5151-.LLSDACSB5151
.LLSDACSB5151:
	.uleb128 .LEHB20-.LFB5151
	.uleb128 .LEHE20-.LEHB20
	.uleb128 0
	.uleb128 0
	.uleb128 .LEHB21-.LFB5151
	.uleb128 .LEHE21-.LEHB21
	.uleb128 .L236-.LFB5151
	.uleb128 0
	.uleb128 .LEHB22-.LFB5151
	.uleb128 .LEHE22-.LEHB22
	.uleb128 0
	.uleb128 0
.LLSDACSE5151:
	.text
	.seh_endproc
	.section .rdata,"dr"
	.align 8
.LC15:
	.ascii "p\0m\0c\0_\0m\0e\0m\0o\0r\0y\0.\0c\0p\0p\0;\0R\0e\0s\0o\0u\0r\0c\0e\0H\0o\0l\0d\0e\0r\0U\0I\0N\0T\0:\0:\0C\0h\0e\0c\0k\0B\0l\0o\0c\0k\0;\0"
	.ascii "1\0\0\0"
	.text
	.align 2
	.globl	_ZN8Palmtree4Math4Core8Internal18ResourceHolderUINT10CheckBlockEPy
	.def	_ZN8Palmtree4Math4Core8Internal18ResourceHolderUINT10CheckBlockEPy;	.scl	2;	.type	32;	.endef
	.seh_proc	_ZN8Palmtree4Math4Core8Internal18ResourceHolderUINT10CheckBlockEPy
_ZN8Palmtree4Math4Core8Internal18ResourceHolderUINT10CheckBlockEPy:
.LFB5152:
	.loc 7 828 5
	.cfi_startproc
	pushq	%rbp
	.seh_pushreg	%rbp
	.cfi_def_cfa_offset 16
	.cfi_offset 6, -16
	pushq	%rbx
	.seh_pushreg	%rbx
	.cfi_def_cfa_offset 24
	.cfi_offset 3, -24
	subq	$56, %rsp
	.seh_stackalloc	56
	.cfi_def_cfa_offset 80
	leaq	128(%rsp), %rbp
	.seh_setframe	%rbp, 128
	.cfi_def_cfa 6, -48
	.seh_endprologue
	movq	%rcx, -48(%rbp)
	movq	%rdx, -40(%rbp)
	.loc 7 830 14
	leaq	-89(%rbp), %rax
	movq	%rax, %rcx
.LEHB23:
	call	_ZN8Palmtree4Math4Core8Internal4LockC1Ev
.LEHE23:
	.loc 7 831 40
	movq	-48(%rbp), %rax
	movq	-40(%rbp), %rdx
	movq	%rax, %rcx
.LEHB24:
	call	_ZN8Palmtree4Math4Core8Internal14ResourceHolder7FindTagEPv
	movq	%rax, -88(%rbp)
	.loc 7 832 9
	cmpq	$0, -88(%rbp)
	jne	.L239
	.loc 7 833 144
	movl	$40, %ecx
	call	__cxa_allocate_exception
	movq	%rax, %rbx
	leaq	.LC15(%rip), %r8
	leaq	.LC4(%rip), %rdx
	movq	%rbx, %rcx
	call	_ZN8Palmtree4Math4Core8Internal18BadBufferExceptionC1EPKwS5_
	leaq	_ZN8Palmtree4Math4Core8Internal18BadBufferExceptionD1Ev(%rip), %rax
	movq	%rax, %r8
	leaq	_ZTIN8Palmtree4Math4Core8Internal18BadBufferExceptionE(%rip), %rdx
	movq	%rbx, %rcx
	call	__cxa_throw
.L239:
	.loc 7 834 20
	movq	-88(%rbp), %rax
	movq	(%rax), %rax
	addq	$32, %rax
	movq	(%rax), %rax
	.loc 7 834 19
	movq	-88(%rbp), %rdx
	movq	%rdx, %rcx
	call	*%rax
.LVL18:
.LEHE24:
	.loc 7 830 14
	leaq	-89(%rbp), %rax
	movq	%rax, %rcx
	call	_ZN8Palmtree4Math4Core8Internal4LockD1Ev
	.loc 7 836 5
	jmp	.L242
.L241:
	movq	%rax, %rbx
	.loc 7 830 14
	leaq	-89(%rbp), %rax
	movq	%rax, %rcx
	call	_ZN8Palmtree4Math4Core8Internal4LockD1Ev
	movq	%rbx, %rax
	movq	%rax, %rcx
.LEHB25:
	call	_Unwind_Resume
	nop
.LEHE25:
.L242:
	.loc 7 836 5
	addq	$56, %rsp
	popq	%rbx
	.cfi_restore 3
	popq	%rbp
	.cfi_restore 6
	.cfi_def_cfa 7, -40
	ret
	.cfi_endproc
.LFE5152:
	.seh_handler	__gxx_personality_seh0, @unwind, @except
	.seh_handlerdata
.LLSDA5152:
	.byte	0xff
	.byte	0xff
	.byte	0x1
	.uleb128 .LLSDACSE5152-.LLSDACSB5152
.LLSDACSB5152:
	.uleb128 .LEHB23-.LFB5152
	.uleb128 .LEHE23-.LEHB23
	.uleb128 0
	.uleb128 0
	.uleb128 .LEHB24-.LFB5152
	.uleb128 .LEHE24-.LEHB24
	.uleb128 .L241-.LFB5152
	.uleb128 0
	.uleb128 .LEHB25-.LFB5152
	.uleb128 .LEHE25-.LEHB25
	.uleb128 0
	.uleb128 0
.LLSDACSE5152:
	.text
	.seh_endproc
	.section .rdata,"dr"
	.align 8
.LC16:
	.ascii "p\0m\0c\0_\0m\0e\0m\0o\0r\0y\0.\0c\0p\0p\0;\0R\0e\0s\0o\0u\0r\0c\0e\0H\0o\0l\0d\0e\0r\0U\0I\0N\0T\0:\0:\0U\0n\0l\0i\0n\0k\0B\0l\0o\0c\0k\0;\0"
	.ascii "1\0\0\0"
	.text
	.align 2
	.globl	_ZN8Palmtree4Math4Core8Internal18ResourceHolderUINT11UnlinkBlockEPy
	.def	_ZN8Palmtree4Math4Core8Internal18ResourceHolderUINT11UnlinkBlockEPy;	.scl	2;	.type	32;	.endef
	.seh_proc	_ZN8Palmtree4Math4Core8Internal18ResourceHolderUINT11UnlinkBlockEPy
_ZN8Palmtree4Math4Core8Internal18ResourceHolderUINT11UnlinkBlockEPy:
.LFB5153:
	.loc 7 839 5
	.cfi_startproc
	pushq	%rbp
	.seh_pushreg	%rbp
	.cfi_def_cfa_offset 16
	.cfi_offset 6, -16
	pushq	%rbx
	.seh_pushreg	%rbx
	.cfi_def_cfa_offset 24
	.cfi_offset 3, -24
	subq	$56, %rsp
	.seh_stackalloc	56
	.cfi_def_cfa_offset 80
	leaq	128(%rsp), %rbp
	.seh_setframe	%rbp, 128
	.cfi_def_cfa 6, -48
	.seh_endprologue
	movq	%rcx, -48(%rbp)
	movq	%rdx, -40(%rbp)
	.loc 7 840 14
	leaq	-89(%rbp), %rax
	movq	%rax, %rcx
.LEHB26:
	call	_ZN8Palmtree4Math4Core8Internal4LockC1Ev
.LEHE26:
	.loc 7 841 40
	movq	-48(%rbp), %rax
	movq	-40(%rbp), %rdx
	movq	%rax, %rcx
.LEHB27:
	call	_ZN8Palmtree4Math4Core8Internal14ResourceHolder7FindTagEPv
	movq	%rax, -88(%rbp)
	.loc 7 842 9
	cmpq	$0, -88(%rbp)
	jne	.L244
	.loc 7 843 145
	movl	$40, %ecx
	call	__cxa_allocate_exception
	movq	%rax, %rbx
	leaq	.LC16(%rip), %r8
	leaq	.LC4(%rip), %rdx
	movq	%rbx, %rcx
	call	_ZN8Palmtree4Math4Core8Internal18BadBufferExceptionC1EPKwS5_
	leaq	_ZN8Palmtree4Math4Core8Internal18BadBufferExceptionD1Ev(%rip), %rax
	movq	%rax, %r8
	leaq	_ZTIN8Palmtree4Math4Core8Internal18BadBufferExceptionE(%rip), %rdx
	movq	%rbx, %rcx
	call	__cxa_throw
.LEHE27:
.L244:
	.loc 7 844 20
	movq	-88(%rbp), %rax
	movq	%rax, %rcx
	call	_ZN8Palmtree4Math4Core8Internal14ResourceHolder16__ChainBufferTag6UnlinkEv
	.loc 7 840 14
	leaq	-89(%rbp), %rax
	movq	%rax, %rcx
	call	_ZN8Palmtree4Math4Core8Internal4LockD1Ev
	.loc 7 845 5
	jmp	.L247
.L246:
	movq	%rax, %rbx
	.loc 7 840 14
	leaq	-89(%rbp), %rax
	movq	%rax, %rcx
	call	_ZN8Palmtree4Math4Core8Internal4LockD1Ev
	movq	%rbx, %rax
	movq	%rax, %rcx
.LEHB28:
	call	_Unwind_Resume
	nop
.LEHE28:
.L247:
	.loc 7 845 5
	addq	$56, %rsp
	popq	%rbx
	.cfi_restore 3
	popq	%rbp
	.cfi_restore 6
	.cfi_def_cfa 7, -40
	ret
	.cfi_endproc
.LFE5153:
	.seh_handler	__gxx_personality_seh0, @unwind, @except
	.seh_handlerdata
.LLSDA5153:
	.byte	0xff
	.byte	0xff
	.byte	0x1
	.uleb128 .LLSDACSE5153-.LLSDACSB5153
.LLSDACSB5153:
	.uleb128 .LEHB26-.LFB5153
	.uleb128 .LEHE26-.LEHB26
	.uleb128 0
	.uleb128 0
	.uleb128 .LEHB27-.LFB5153
	.uleb128 .LEHE27-.LEHB27
	.uleb128 .L246-.LFB5153
	.uleb128 0
	.uleb128 .LEHB28-.LFB5153
	.uleb128 .LEHE28-.LEHB28
	.uleb128 0
	.uleb128 0
.LLSDACSE5153:
	.text
	.seh_endproc
	.align 2
	.globl	_ZN8Palmtree4Math4Core8Internal18ResourceHolderUINT14AllocateStringEy
	.def	_ZN8Palmtree4Math4Core8Internal18ResourceHolderUINT14AllocateStringEy;	.scl	2;	.type	32;	.endef
	.seh_proc	_ZN8Palmtree4Math4Core8Internal18ResourceHolderUINT14AllocateStringEy
_ZN8Palmtree4Math4Core8Internal18ResourceHolderUINT14AllocateStringEy:
.LFB5154:
	.loc 7 848 5
	.cfi_startproc
	pushq	%rbp
	.seh_pushreg	%rbp
	.cfi_def_cfa_offset 16
	.cfi_offset 6, -16
	pushq	%rbx
	.seh_pushreg	%rbx
	.cfi_def_cfa_offset 24
	.cfi_offset 3, -24
	subq	$88, %rsp
	.seh_stackalloc	88
	.cfi_def_cfa_offset 112
	leaq	128(%rsp), %rbp
	.seh_setframe	%rbp, 128
	.cfi_def_cfa 6, -16
	.seh_endprologue
	movq	%rcx, -16(%rbp)
	movq	%rdx, -8(%rbp)
	.loc 7 849 14
	leaq	-65(%rbp), %rax
	movq	%rax, %rcx
.LEHB29:
	call	_ZN8Palmtree4Math4Core8Internal4LockC1Ev
.LEHE29:
	.loc 7 852 76
	movq	-8(%rbp), %rax
	salq	$6, %rax
	movq	%rax, %rcx
	leaq	-88(%rbp), %rdx
	leaq	-80(%rbp), %rax
	movq	%rdx, %r8
	movq	%rax, %rdx
.LEHB30:
	call	_ZN8Palmtree4Math4Core8InternalL13AllocateBlockEyPyS3_
	movq	%rax, -56(%rbp)
	.loc 7 853 102
	movl	$48, %ecx
	call	_Znwy
.LEHE30:
	.loc 7 853 102 is_stmt 0 discriminator 1
	movq	%rax, %rbx
	movq	-88(%rbp), %rcx
	movq	-80(%rbp), %rdx
	movq	-56(%rbp), %rax
	movq	%rcx, %r9
	movq	%rdx, %r8
	movq	%rax, %rdx
	movq	%rbx, %rcx
	call	_ZN8Palmtree4Math4Core8Internal18ResourceHolderUINT34____UNIT_TYPE_Array_ChainBufferTagC1EPyyy
	movq	%rbx, -64(%rbp)
	.loc 7 854 16 is_stmt 1 discriminator 1
	movq	-16(%rbp), %rax
	movq	-64(%rbp), %rdx
	movq	%rax, %rcx
	call	_ZN8Palmtree4Math4Core8Internal14ResourceHolder7LinkTagEPNS3_16__ChainBufferTagE
	.loc 7 855 33 discriminator 1
	movq	-56(%rbp), %rbx
	.loc 7 849 14 discriminator 1
	leaq	-65(%rbp), %rax
	movq	%rax, %rcx
	call	_ZN8Palmtree4Math4Core8Internal4LockD1Ev
	.loc 7 855 33 discriminator 1
	movq	%rbx, %rax
	jmp	.L252
.L251:
	movq	%rax, %rbx
	.loc 7 849 14
	leaq	-65(%rbp), %rax
	movq	%rax, %rcx
	call	_ZN8Palmtree4Math4Core8Internal4LockD1Ev
	movq	%rbx, %rax
	movq	%rax, %rcx
.LEHB31:
	call	_Unwind_Resume
.LEHE31:
.L252:
	.loc 7 856 5
	addq	$88, %rsp
	popq	%rbx
	.cfi_restore 3
	popq	%rbp
	.cfi_restore 6
	.cfi_def_cfa 7, -72
	ret
	.cfi_endproc
.LFE5154:
	.seh_handler	__gxx_personality_seh0, @unwind, @except
	.seh_handlerdata
.LLSDA5154:
	.byte	0xff
	.byte	0xff
	.byte	0x1
	.uleb128 .LLSDACSE5154-.LLSDACSB5154
.LLSDACSB5154:
	.uleb128 .LEHB29-.LFB5154
	.uleb128 .LEHE29-.LEHB29
	.uleb128 0
	.uleb128 0
	.uleb128 .LEHB30-.LFB5154
	.uleb128 .LEHE30-.LEHB30
	.uleb128 .L251-.LFB5154
	.uleb128 0
	.uleb128 .LEHB31-.LFB5154
	.uleb128 .LEHE31-.LEHB31
	.uleb128 0
	.uleb128 0
.LLSDACSE5154:
	.text
	.seh_endproc
	.section .rdata,"dr"
	.align 8
.LC17:
	.ascii "p\0m\0c\0_\0m\0e\0m\0o\0r\0y\0.\0c\0p\0p\0;\0R\0e\0s\0o\0u\0r\0c\0e\0H\0o\0l\0d\0e\0r\0U\0I\0N\0T\0:\0:\0C\0l\0e\0a\0r\0S\0t\0r\0i\0n\0g\0;\0"
	.ascii "1\0\0\0"
	.text
	.align 2
	.globl	_ZN8Palmtree4Math4Core8Internal18ResourceHolderUINT11ClearStringEPw
	.def	_ZN8Palmtree4Math4Core8Internal18ResourceHolderUINT11ClearStringEPw;	.scl	2;	.type	32;	.endef
	.seh_proc	_ZN8Palmtree4Math4Core8Internal18ResourceHolderUINT11ClearStringEPw
_ZN8Palmtree4Math4Core8Internal18ResourceHolderUINT11ClearStringEPw:
.LFB5155:
	.loc 7 859 5
	.cfi_startproc
	pushq	%rbp
	.seh_pushreg	%rbp
	.cfi_def_cfa_offset 16
	.cfi_offset 6, -16
	pushq	%rbx
	.seh_pushreg	%rbx
	.cfi_def_cfa_offset 24
	.cfi_offset 3, -24
	subq	$56, %rsp
	.seh_stackalloc	56
	.cfi_def_cfa_offset 80
	leaq	128(%rsp), %rbp
	.seh_setframe	%rbp, 128
	.cfi_def_cfa 6, -48
	.seh_endprologue
	movq	%rcx, -48(%rbp)
	movq	%rdx, -40(%rbp)
	.loc 7 860 14
	leaq	-89(%rbp), %rax
	movq	%rax, %rcx
.LEHB32:
	call	_ZN8Palmtree4Math4Core8Internal4LockC1Ev
.LEHE32:
	.loc 7 861 40
	movq	-48(%rbp), %rax
	movq	-40(%rbp), %rdx
	movq	%rax, %rcx
.LEHB33:
	call	_ZN8Palmtree4Math4Core8Internal14ResourceHolder7FindTagEPv
	movq	%rax, -88(%rbp)
	.loc 7 862 9
	cmpq	$0, -88(%rbp)
	jne	.L254
	.loc 7 863 145
	movl	$40, %ecx
	call	__cxa_allocate_exception
	movq	%rax, %rbx
	leaq	.LC17(%rip), %r8
	leaq	.LC4(%rip), %rdx
	movq	%rbx, %rcx
	call	_ZN8Palmtree4Math4Core8Internal18BadBufferExceptionC1EPKwS5_
	leaq	_ZN8Palmtree4Math4Core8Internal18BadBufferExceptionD1Ev(%rip), %rax
	movq	%rax, %r8
	leaq	_ZTIN8Palmtree4Math4Core8Internal18BadBufferExceptionE(%rip), %rdx
	movq	%rbx, %rcx
	call	__cxa_throw
.L254:
	.loc 7 864 20
	movq	-88(%rbp), %rax
	movq	(%rax), %rax
	addq	$24, %rax
	movq	(%rax), %rax
	.loc 7 864 19
	movq	-88(%rbp), %rdx
	movq	%rdx, %rcx
	call	*%rax
.LVL19:
.LEHE33:
	.loc 7 860 14
	leaq	-89(%rbp), %rax
	movq	%rax, %rcx
	call	_ZN8Palmtree4Math4Core8Internal4LockD1Ev
	.loc 7 865 5
	jmp	.L257
.L256:
	movq	%rax, %rbx
	.loc 7 860 14
	leaq	-89(%rbp), %rax
	movq	%rax, %rcx
	call	_ZN8Palmtree4Math4Core8Internal4LockD1Ev
	movq	%rbx, %rax
	movq	%rax, %rcx
.LEHB34:
	call	_Unwind_Resume
	nop
.LEHE34:
.L257:
	.loc 7 865 5
	addq	$56, %rsp
	popq	%rbx
	.cfi_restore 3
	popq	%rbp
	.cfi_restore 6
	.cfi_def_cfa 7, -40
	ret
	.cfi_endproc
.LFE5155:
	.seh_handler	__gxx_personality_seh0, @unwind, @except
	.seh_handlerdata
.LLSDA5155:
	.byte	0xff
	.byte	0xff
	.byte	0x1
	.uleb128 .LLSDACSE5155-.LLSDACSB5155
.LLSDACSB5155:
	.uleb128 .LEHB32-.LFB5155
	.uleb128 .LEHE32-.LEHB32
	.uleb128 0
	.uleb128 0
	.uleb128 .LEHB33-.LFB5155
	.uleb128 .LEHE33-.LEHB33
	.uleb128 .L256-.LFB5155
	.uleb128 0
	.uleb128 .LEHB34-.LFB5155
	.uleb128 .LEHE34-.LEHB34
	.uleb128 0
	.uleb128 0
.LLSDACSE5155:
	.text
	.seh_endproc
	.align 2
	.globl	_ZN8Palmtree4Math4Core8Internal18ResourceHolderUINT16DeallocateStringEPw
	.def	_ZN8Palmtree4Math4Core8Internal18ResourceHolderUINT16DeallocateStringEPw;	.scl	2;	.type	32;	.endef
	.seh_proc	_ZN8Palmtree4Math4Core8Internal18ResourceHolderUINT16DeallocateStringEPw
_ZN8Palmtree4Math4Core8Internal18ResourceHolderUINT16DeallocateStringEPw:
.LFB5156:
	.loc 7 868 5
	.cfi_startproc
	pushq	%rbp
	.seh_pushreg	%rbp
	.cfi_def_cfa_offset 16
	.cfi_offset 6, -16
	pushq	%rbx
	.seh_pushreg	%rbx
	.cfi_def_cfa_offset 24
	.cfi_offset 3, -24
	subq	$56, %rsp
	.seh_stackalloc	56
	.cfi_def_cfa_offset 80
	leaq	128(%rsp), %rbp
	.seh_setframe	%rbp, 128
	.cfi_def_cfa 6, -48
	.seh_endprologue
	movq	%rcx, -48(%rbp)
	movq	%rdx, -40(%rbp)
	.loc 7 869 14
	leaq	-89(%rbp), %rax
	movq	%rax, %rcx
.LEHB35:
	call	_ZN8Palmtree4Math4Core8Internal4LockC1Ev
.LEHE35:
	.loc 7 870 40
	movq	-48(%rbp), %rax
	movq	-40(%rbp), %rdx
	movq	%rax, %rcx
.LEHB36:
	call	_ZN8Palmtree4Math4Core8Internal14ResourceHolder7FindTagEPv
	movq	%rax, -88(%rbp)
	.loc 7 871 9
	cmpq	$0, -88(%rbp)
	je	.L259
	.loc 7 873 24
	movq	-88(%rbp), %rax
	movq	%rax, %rcx
	call	_ZN8Palmtree4Math4Core8Internal14ResourceHolder16__ChainBufferTag6UnlinkEv
	.loc 7 874 27
	movq	-88(%rbp), %rax
	movq	(%rax), %rax
	addq	$40, %rax
	movq	(%rax), %rax
	.loc 7 874 26
	movq	-88(%rbp), %rdx
	movq	%rdx, %rcx
	call	*%rax
.LVL20:
.LEHE36:
	.loc 7 875 23
	cmpq	$0, -88(%rbp)
	je	.L259
	.loc 7 875 20 discriminator 1
	movq	-88(%rbp), %rax
	movq	(%rax), %rax
	addq	$8, %rax
	movq	(%rax), %rax
	movq	-88(%rbp), %rdx
	movq	%rdx, %rcx
	call	*%rax
.LVL21:
.L259:
	.loc 7 869 14
	leaq	-89(%rbp), %rax
	movq	%rax, %rcx
	call	_ZN8Palmtree4Math4Core8Internal4LockD1Ev
	.loc 7 877 5
	jmp	.L262
.L261:
	movq	%rax, %rbx
	.loc 7 869 14
	leaq	-89(%rbp), %rax
	movq	%rax, %rcx
	call	_ZN8Palmtree4Math4Core8Internal4LockD1Ev
	movq	%rbx, %rax
	movq	%rax, %rcx
.LEHB37:
	call	_Unwind_Resume
	nop
.LEHE37:
.L262:
	.loc 7 877 5
	addq	$56, %rsp
	popq	%rbx
	.cfi_restore 3
	popq	%rbp
	.cfi_restore 6
	.cfi_def_cfa 7, -40
	ret
	.cfi_endproc
.LFE5156:
	.seh_handler	__gxx_personality_seh0, @unwind, @except
	.seh_handlerdata
.LLSDA5156:
	.byte	0xff
	.byte	0xff
	.byte	0x1
	.uleb128 .LLSDACSE5156-.LLSDACSB5156
.LLSDACSB5156:
	.uleb128 .LEHB35-.LFB5156
	.uleb128 .LEHE35-.LEHB35
	.uleb128 0
	.uleb128 0
	.uleb128 .LEHB36-.LFB5156
	.uleb128 .LEHE36-.LEHB36
	.uleb128 .L261-.LFB5156
	.uleb128 0
	.uleb128 .LEHB37-.LFB5156
	.uleb128 .LEHE37-.LEHB37
	.uleb128 0
	.uleb128 0
.LLSDACSE5156:
	.text
	.seh_endproc
	.section .rdata,"dr"
	.align 8
.LC18:
	.ascii "p\0m\0c\0_\0m\0e\0m\0o\0r\0y\0.\0c\0p\0p\0;\0R\0e\0s\0o\0u\0r\0c\0e\0H\0o\0l\0d\0e\0r\0U\0I\0N\0T\0:\0:\0C\0h\0e\0c\0k\0S\0t\0r\0i\0n\0g\0;\0"
	.ascii "1\0\0\0"
	.text
	.align 2
	.globl	_ZN8Palmtree4Math4Core8Internal18ResourceHolderUINT11CheckStringEPw
	.def	_ZN8Palmtree4Math4Core8Internal18ResourceHolderUINT11CheckStringEPw;	.scl	2;	.type	32;	.endef
	.seh_proc	_ZN8Palmtree4Math4Core8Internal18ResourceHolderUINT11CheckStringEPw
_ZN8Palmtree4Math4Core8Internal18ResourceHolderUINT11CheckStringEPw:
.LFB5157:
	.loc 7 880 5
	.cfi_startproc
	pushq	%rbp
	.seh_pushreg	%rbp
	.cfi_def_cfa_offset 16
	.cfi_offset 6, -16
	pushq	%rbx
	.seh_pushreg	%rbx
	.cfi_def_cfa_offset 24
	.cfi_offset 3, -24
	subq	$56, %rsp
	.seh_stackalloc	56
	.cfi_def_cfa_offset 80
	leaq	128(%rsp), %rbp
	.seh_setframe	%rbp, 128
	.cfi_def_cfa 6, -48
	.seh_endprologue
	movq	%rcx, -48(%rbp)
	movq	%rdx, -40(%rbp)
	.loc 7 882 14
	leaq	-89(%rbp), %rax
	movq	%rax, %rcx
.LEHB38:
	call	_ZN8Palmtree4Math4Core8Internal4LockC1Ev
.LEHE38:
	.loc 7 883 40
	movq	-48(%rbp), %rax
	movq	-40(%rbp), %rdx
	movq	%rax, %rcx
.LEHB39:
	call	_ZN8Palmtree4Math4Core8Internal14ResourceHolder7FindTagEPv
	movq	%rax, -88(%rbp)
	.loc 7 884 9
	cmpq	$0, -88(%rbp)
	jne	.L264
	.loc 7 885 145
	movl	$40, %ecx
	call	__cxa_allocate_exception
	movq	%rax, %rbx
	leaq	.LC18(%rip), %r8
	leaq	.LC4(%rip), %rdx
	movq	%rbx, %rcx
	call	_ZN8Palmtree4Math4Core8Internal18BadBufferExceptionC1EPKwS5_
	leaq	_ZN8Palmtree4Math4Core8Internal18BadBufferExceptionD1Ev(%rip), %rax
	movq	%rax, %r8
	leaq	_ZTIN8Palmtree4Math4Core8Internal18BadBufferExceptionE(%rip), %rdx
	movq	%rbx, %rcx
	call	__cxa_throw
.L264:
	.loc 7 886 20
	movq	-88(%rbp), %rax
	movq	(%rax), %rax
	addq	$32, %rax
	movq	(%rax), %rax
	.loc 7 886 19
	movq	-88(%rbp), %rdx
	movq	%rdx, %rcx
	call	*%rax
.LVL22:
.LEHE39:
	.loc 7 882 14
	leaq	-89(%rbp), %rax
	movq	%rax, %rcx
	call	_ZN8Palmtree4Math4Core8Internal4LockD1Ev
	.loc 7 888 5
	jmp	.L267
.L266:
	movq	%rax, %rbx
	.loc 7 882 14
	leaq	-89(%rbp), %rax
	movq	%rax, %rcx
	call	_ZN8Palmtree4Math4Core8Internal4LockD1Ev
	movq	%rbx, %rax
	movq	%rax, %rcx
.LEHB40:
	call	_Unwind_Resume
	nop
.LEHE40:
.L267:
	.loc 7 888 5
	addq	$56, %rsp
	popq	%rbx
	.cfi_restore 3
	popq	%rbp
	.cfi_restore 6
	.cfi_def_cfa 7, -40
	ret
	.cfi_endproc
.LFE5157:
	.seh_handler	__gxx_personality_seh0, @unwind, @except
	.seh_handlerdata
.LLSDA5157:
	.byte	0xff
	.byte	0xff
	.byte	0x1
	.uleb128 .LLSDACSE5157-.LLSDACSB5157
.LLSDACSB5157:
	.uleb128 .LEHB38-.LFB5157
	.uleb128 .LEHE38-.LEHB38
	.uleb128 0
	.uleb128 0
	.uleb128 .LEHB39-.LFB5157
	.uleb128 .LEHE39-.LEHB39
	.uleb128 .L266-.LFB5157
	.uleb128 0
	.uleb128 .LEHB40-.LFB5157
	.uleb128 .LEHE40-.LEHB40
	.uleb128 0
	.uleb128 0
.LLSDACSE5157:
	.text
	.seh_endproc
	.align 2
	.globl	_ZN8Palmtree4Math4Core8Internal18ResourceHolderUINT12UnlinkStringEPw
	.def	_ZN8Palmtree4Math4Core8Internal18ResourceHolderUINT12UnlinkStringEPw;	.scl	2;	.type	32;	.endef
	.seh_proc	_ZN8Palmtree4Math4Core8Internal18ResourceHolderUINT12UnlinkStringEPw
_ZN8Palmtree4Math4Core8Internal18ResourceHolderUINT12UnlinkStringEPw:
.LFB5158:
	.loc 7 891 5
	.cfi_startproc
	pushq	%rbp
	.seh_pushreg	%rbp
	.cfi_def_cfa_offset 16
	.cfi_offset 6, -16
	pushq	%rbx
	.seh_pushreg	%rbx
	.cfi_def_cfa_offset 24
	.cfi_offset 3, -24
	subq	$56, %rsp
	.seh_stackalloc	56
	.cfi_def_cfa_offset 80
	leaq	128(%rsp), %rbp
	.seh_setframe	%rbp, 128
	.cfi_def_cfa 6, -48
	.seh_endprologue
	movq	%rcx, -48(%rbp)
	movq	%rdx, -40(%rbp)
	.loc 7 892 14
	leaq	-89(%rbp), %rax
	movq	%rax, %rcx
.LEHB41:
	call	_ZN8Palmtree4Math4Core8Internal4LockC1Ev
.LEHE41:
	.loc 7 893 40
	movq	-48(%rbp), %rax
	movq	-40(%rbp), %rdx
	movq	%rax, %rcx
.LEHB42:
	call	_ZN8Palmtree4Math4Core8Internal14ResourceHolder7FindTagEPv
	movq	%rax, -88(%rbp)
	.loc 7 894 9
	cmpq	$0, -88(%rbp)
	jne	.L269
	.loc 7 895 145
	movl	$40, %ecx
	call	__cxa_allocate_exception
	movq	%rax, %rbx
	leaq	.LC16(%rip), %r8
	leaq	.LC4(%rip), %rdx
	movq	%rbx, %rcx
	call	_ZN8Palmtree4Math4Core8Internal18BadBufferExceptionC1EPKwS5_
	leaq	_ZN8Palmtree4Math4Core8Internal18BadBufferExceptionD1Ev(%rip), %rax
	movq	%rax, %r8
	leaq	_ZTIN8Palmtree4Math4Core8Internal18BadBufferExceptionE(%rip), %rdx
	movq	%rbx, %rcx
	call	__cxa_throw
.LEHE42:
.L269:
	.loc 7 896 20
	movq	-88(%rbp), %rax
	movq	%rax, %rcx
	call	_ZN8Palmtree4Math4Core8Internal14ResourceHolder16__ChainBufferTag6UnlinkEv
	.loc 7 892 14
	leaq	-89(%rbp), %rax
	movq	%rax, %rcx
	call	_ZN8Palmtree4Math4Core8Internal4LockD1Ev
	.loc 7 897 5
	jmp	.L272
.L271:
	movq	%rax, %rbx
	.loc 7 892 14
	leaq	-89(%rbp), %rax
	movq	%rax, %rcx
	call	_ZN8Palmtree4Math4Core8Internal4LockD1Ev
	movq	%rbx, %rax
	movq	%rax, %rcx
.LEHB43:
	call	_Unwind_Resume
	nop
.LEHE43:
.L272:
	.loc 7 897 5
	addq	$56, %rsp
	popq	%rbx
	.cfi_restore 3
	popq	%rbp
	.cfi_restore 6
	.cfi_def_cfa 7, -40
	ret
	.cfi_endproc
.LFE5158:
	.seh_handler	__gxx_personality_seh0, @unwind, @except
	.seh_handlerdata
.LLSDA5158:
	.byte	0xff
	.byte	0xff
	.byte	0x1
	.uleb128 .LLSDACSE5158-.LLSDACSB5158
.LLSDACSB5158:
	.uleb128 .LEHB41-.LFB5158
	.uleb128 .LEHE41-.LEHB41
	.uleb128 0
	.uleb128 0
	.uleb128 .LEHB42-.LFB5158
	.uleb128 .LEHE42-.LEHB42
	.uleb128 .L271-.LFB5158
	.uleb128 0
	.uleb128 .LEHB43-.LFB5158
	.uleb128 .LEHE43-.LEHB43
	.uleb128 0
	.uleb128 0
.LLSDACSE5158:
	.text
	.seh_endproc
	.align 2
	.globl	_ZN8Palmtree4Math4Core8Internal18ResourceHolderUINT14AllocateNumberEy
	.def	_ZN8Palmtree4Math4Core8Internal18ResourceHolderUINT14AllocateNumberEy;	.scl	2;	.type	32;	.endef
	.seh_proc	_ZN8Palmtree4Math4Core8Internal18ResourceHolderUINT14AllocateNumberEy
_ZN8Palmtree4Math4Core8Internal18ResourceHolderUINT14AllocateNumberEy:
.LFB5159:
	.loc 7 900 5
	.cfi_startproc
	pushq	%rbp
	.seh_pushreg	%rbp
	.cfi_def_cfa_offset 16
	.cfi_offset 6, -16
	pushq	%rbx
	.seh_pushreg	%rbx
	.cfi_def_cfa_offset 24
	.cfi_offset 3, -24
	subq	$72, %rsp
	.seh_stackalloc	72
	.cfi_def_cfa_offset 96
	leaq	128(%rsp), %rbp
	.seh_setframe	%rbp, 128
	.cfi_def_cfa 6, -32
	.seh_endprologue
	movq	%rcx, -32(%rbp)
	movq	%rdx, -24(%rbp)
	.loc 7 901 14
	leaq	-73(%rbp), %rax
	movq	%rax, %rcx
.LEHB44:
	call	_ZN8Palmtree4Math4Core8Internal4LockC1Ev
.LEHE44:
	.loc 7 902 79
	movq	-24(%rbp), %rax
	movq	%rax, %rcx
.LEHB45:
	call	_ZN8Palmtree4Math4Core8InternalL14AllocateNumberEy
	.loc 7 902 89
	movq	%rax, -88(%rbp)
	.loc 7 903 73
	movl	$32, %ecx
	call	_Znwy
.LEHE45:
	.loc 7 903 73 is_stmt 0 discriminator 1
	movq	%rax, %rbx
	movq	-88(%rbp), %rax
	movq	%rax, %rdx
	movq	%rbx, %rcx
	call	_ZN8Palmtree4Math4Core8Internal18ResourceHolderUINT29__DynamicNumberChainBufferTagC1EPNS2_19__tag_NUMBER_HEADERE
	movq	%rbx, -72(%rbp)
	.loc 7 904 16 is_stmt 1 discriminator 1
	movq	-32(%rbp), %rax
	movq	-72(%rbp), %rdx
	movq	%rax, %rcx
	call	_ZN8Palmtree4Math4Core8Internal14ResourceHolder7LinkTagEPNS3_16__ChainBufferTagE
	.loc 7 905 23 discriminator 1
	movq	-88(%rbp), %rbx
	.loc 7 901 14 discriminator 1
	leaq	-73(%rbp), %rax
	movq	%rax, %rcx
	call	_ZN8Palmtree4Math4Core8Internal4LockD1Ev
	.loc 7 905 23 discriminator 1
	movq	%rbx, %rax
	jmp	.L277
.L276:
	movq	%rax, %rbx
	.loc 7 901 14
	leaq	-73(%rbp), %rax
	movq	%rax, %rcx
	call	_ZN8Palmtree4Math4Core8Internal4LockD1Ev
	movq	%rbx, %rax
	movq	%rax, %rcx
.LEHB46:
	call	_Unwind_Resume
.LEHE46:
.L277:
	.loc 7 906 5
	addq	$72, %rsp
	popq	%rbx
	.cfi_restore 3
	popq	%rbp
	.cfi_restore 6
	.cfi_def_cfa 7, -56
	ret
	.cfi_endproc
.LFE5159:
	.seh_handler	__gxx_personality_seh0, @unwind, @except
	.seh_handlerdata
.LLSDA5159:
	.byte	0xff
	.byte	0xff
	.byte	0x1
	.uleb128 .LLSDACSE5159-.LLSDACSB5159
.LLSDACSB5159:
	.uleb128 .LEHB44-.LFB5159
	.uleb128 .LEHE44-.LEHB44
	.uleb128 0
	.uleb128 0
	.uleb128 .LEHB45-.LFB5159
	.uleb128 .LEHE45-.LEHB45
	.uleb128 .L276-.LFB5159
	.uleb128 0
	.uleb128 .LEHB46-.LFB5159
	.uleb128 .LEHE46-.LEHB46
	.uleb128 0
	.uleb128 0
.LLSDACSE5159:
	.text
	.seh_endproc
	.align 2
	.globl	_ZN8Palmtree4Math4Core8Internal18ResourceHolderUINT10HookNumberEPNS2_19__tag_NUMBER_HEADERE
	.def	_ZN8Palmtree4Math4Core8Internal18ResourceHolderUINT10HookNumberEPNS2_19__tag_NUMBER_HEADERE;	.scl	2;	.type	32;	.endef
	.seh_proc	_ZN8Palmtree4Math4Core8Internal18ResourceHolderUINT10HookNumberEPNS2_19__tag_NUMBER_HEADERE
_ZN8Palmtree4Math4Core8Internal18ResourceHolderUINT10HookNumberEPNS2_19__tag_NUMBER_HEADERE:
.LFB5160:
	.loc 7 909 5
	.cfi_startproc
	pushq	%rbp
	.seh_pushreg	%rbp
	.cfi_def_cfa_offset 16
	.cfi_offset 6, -16
	pushq	%rbx
	.seh_pushreg	%rbx
	.cfi_def_cfa_offset 24
	.cfi_offset 3, -24
	subq	$56, %rsp
	.seh_stackalloc	56
	.cfi_def_cfa_offset 80
	leaq	128(%rsp), %rbp
	.seh_setframe	%rbp, 128
	.cfi_def_cfa 6, -48
	.seh_endprologue
	movq	%rcx, -48(%rbp)
	movq	%rdx, -40(%rbp)
	.loc 7 910 14
	leaq	-89(%rbp), %rax
	movq	%rax, %rcx
.LEHB47:
	call	_ZN8Palmtree4Math4Core8Internal4LockC1Ev
.LEHE47:
	.loc 7 911 79
	movl	$32, %ecx
.LEHB48:
	call	_Znwy
.LEHE48:
	movq	%rax, %rbx
	movq	-40(%rbp), %rax
	movq	%rax, %rdx
	movq	%rbx, %rcx
	call	_ZN8Palmtree4Math4Core8Internal18ResourceHolderUINT35__NumberHandleHookingChainBufferTagC1EPNS2_19__tag_NUMBER_HEADERE
	movq	%rbx, -88(%rbp)
	.loc 7 912 16
	movq	-48(%rbp), %rax
	movq	-88(%rbp), %rdx
	movq	%rax, %rcx
	call	_ZN8Palmtree4Math4Core8Internal14ResourceHolder7LinkTagEPNS3_16__ChainBufferTagE
	.loc 7 910 14
	leaq	-89(%rbp), %rax
	movq	%rax, %rcx
	call	_ZN8Palmtree4Math4Core8Internal4LockD1Ev
	.loc 7 913 5
	jmp	.L281
.L280:
	movq	%rax, %rbx
	.loc 7 910 14
	leaq	-89(%rbp), %rax
	movq	%rax, %rcx
	call	_ZN8Palmtree4Math4Core8Internal4LockD1Ev
	movq	%rbx, %rax
	movq	%rax, %rcx
.LEHB49:
	call	_Unwind_Resume
	nop
.LEHE49:
.L281:
	.loc 7 913 5
	addq	$56, %rsp
	popq	%rbx
	.cfi_restore 3
	popq	%rbp
	.cfi_restore 6
	.cfi_def_cfa 7, -40
	ret
	.cfi_endproc
.LFE5160:
	.seh_handler	__gxx_personality_seh0, @unwind, @except
	.seh_handlerdata
.LLSDA5160:
	.byte	0xff
	.byte	0xff
	.byte	0x1
	.uleb128 .LLSDACSE5160-.LLSDACSB5160
.LLSDACSB5160:
	.uleb128 .LEHB47-.LFB5160
	.uleb128 .LEHE47-.LEHB47
	.uleb128 0
	.uleb128 0
	.uleb128 .LEHB48-.LFB5160
	.uleb128 .LEHE48-.LEHB48
	.uleb128 .L280-.LFB5160
	.uleb128 0
	.uleb128 .LEHB49-.LFB5160
	.uleb128 .LEHE49-.LEHB49
	.uleb128 0
	.uleb128 0
.LLSDACSE5160:
	.text
	.seh_endproc
	.align 2
	.globl	_ZN8Palmtree4Math4Core8Internal18ResourceHolderUINT16DeallocateNumberEPNS2_19__tag_NUMBER_HEADERE
	.def	_ZN8Palmtree4Math4Core8Internal18ResourceHolderUINT16DeallocateNumberEPNS2_19__tag_NUMBER_HEADERE;	.scl	2;	.type	32;	.endef
	.seh_proc	_ZN8Palmtree4Math4Core8Internal18ResourceHolderUINT16DeallocateNumberEPNS2_19__tag_NUMBER_HEADERE
_ZN8Palmtree4Math4Core8Internal18ResourceHolderUINT16DeallocateNumberEPNS2_19__tag_NUMBER_HEADERE:
.LFB5161:
	.loc 7 916 5
	.cfi_startproc
	pushq	%rbp
	.seh_pushreg	%rbp
	.cfi_def_cfa_offset 16
	.cfi_offset 6, -16
	pushq	%rbx
	.seh_pushreg	%rbx
	.cfi_def_cfa_offset 24
	.cfi_offset 3, -24
	subq	$56, %rsp
	.seh_stackalloc	56
	.cfi_def_cfa_offset 80
	leaq	128(%rsp), %rbp
	.seh_setframe	%rbp, 128
	.cfi_def_cfa 6, -48
	.seh_endprologue
	movq	%rcx, -48(%rbp)
	movq	%rdx, -40(%rbp)
	.loc 7 917 14
	leaq	-89(%rbp), %rax
	movq	%rax, %rcx
.LEHB50:
	call	_ZN8Palmtree4Math4Core8Internal4LockC1Ev
.LEHE50:
	.loc 7 918 40
	movq	-48(%rbp), %rax
	movq	-40(%rbp), %rdx
	movq	%rax, %rcx
.LEHB51:
	call	_ZN8Palmtree4Math4Core8Internal14ResourceHolder7FindTagEPv
	movq	%rax, -88(%rbp)
	.loc 7 919 9
	cmpq	$0, -88(%rbp)
	je	.L283
	.loc 7 921 24
	movq	-88(%rbp), %rax
	movq	%rax, %rcx
	call	_ZN8Palmtree4Math4Core8Internal14ResourceHolder16__ChainBufferTag6UnlinkEv
	.loc 7 922 27
	movq	-88(%rbp), %rax
	movq	(%rax), %rax
	addq	$40, %rax
	movq	(%rax), %rax
	.loc 7 922 26
	movq	-88(%rbp), %rdx
	movq	%rdx, %rcx
	call	*%rax
.LVL23:
.LEHE51:
	.loc 7 923 23
	cmpq	$0, -88(%rbp)
	je	.L283
	.loc 7 923 20 discriminator 1
	movq	-88(%rbp), %rax
	movq	(%rax), %rax
	addq	$8, %rax
	movq	(%rax), %rax
	movq	-88(%rbp), %rdx
	movq	%rdx, %rcx
	call	*%rax
.LVL24:
.L283:
	.loc 7 917 14
	leaq	-89(%rbp), %rax
	movq	%rax, %rcx
	call	_ZN8Palmtree4Math4Core8Internal4LockD1Ev
	.loc 7 925 5
	jmp	.L286
.L285:
	movq	%rax, %rbx
	.loc 7 917 14
	leaq	-89(%rbp), %rax
	movq	%rax, %rcx
	call	_ZN8Palmtree4Math4Core8Internal4LockD1Ev
	movq	%rbx, %rax
	movq	%rax, %rcx
.LEHB52:
	call	_Unwind_Resume
	nop
.LEHE52:
.L286:
	.loc 7 925 5
	addq	$56, %rsp
	popq	%rbx
	.cfi_restore 3
	popq	%rbp
	.cfi_restore 6
	.cfi_def_cfa 7, -40
	ret
	.cfi_endproc
.LFE5161:
	.seh_handler	__gxx_personality_seh0, @unwind, @except
	.seh_handlerdata
.LLSDA5161:
	.byte	0xff
	.byte	0xff
	.byte	0x1
	.uleb128 .LLSDACSE5161-.LLSDACSB5161
.LLSDACSB5161:
	.uleb128 .LEHB50-.LFB5161
	.uleb128 .LEHE50-.LEHB50
	.uleb128 0
	.uleb128 0
	.uleb128 .LEHB51-.LFB5161
	.uleb128 .LEHE51-.LEHB51
	.uleb128 .L285-.LFB5161
	.uleb128 0
	.uleb128 .LEHB52-.LFB5161
	.uleb128 .LEHE52-.LEHB52
	.uleb128 0
	.uleb128 0
.LLSDACSE5161:
	.text
	.seh_endproc
	.section .rdata,"dr"
	.align 8
.LC19:
	.ascii "p\0m\0c\0_\0m\0e\0m\0o\0r\0y\0.\0c\0p\0p\0;\0R\0e\0s\0o\0u\0r\0c\0e\0H\0o\0l\0d\0e\0r\0U\0I\0N\0T\0:\0:\0C\0h\0e\0c\0k\0N\0u\0m\0b\0e\0r\0;\0"
	.ascii "1\0\0\0"
	.text
	.align 2
	.globl	_ZN8Palmtree4Math4Core8Internal18ResourceHolderUINT11CheckNumberEPNS2_19__tag_NUMBER_HEADERE
	.def	_ZN8Palmtree4Math4Core8Internal18ResourceHolderUINT11CheckNumberEPNS2_19__tag_NUMBER_HEADERE;	.scl	2;	.type	32;	.endef
	.seh_proc	_ZN8Palmtree4Math4Core8Internal18ResourceHolderUINT11CheckNumberEPNS2_19__tag_NUMBER_HEADERE
_ZN8Palmtree4Math4Core8Internal18ResourceHolderUINT11CheckNumberEPNS2_19__tag_NUMBER_HEADERE:
.LFB5162:
	.loc 7 928 5
	.cfi_startproc
	pushq	%rbp
	.seh_pushreg	%rbp
	.cfi_def_cfa_offset 16
	.cfi_offset 6, -16
	pushq	%rbx
	.seh_pushreg	%rbx
	.cfi_def_cfa_offset 24
	.cfi_offset 3, -24
	subq	$56, %rsp
	.seh_stackalloc	56
	.cfi_def_cfa_offset 80
	leaq	128(%rsp), %rbp
	.seh_setframe	%rbp, 128
	.cfi_def_cfa 6, -48
	.seh_endprologue
	movq	%rcx, -48(%rbp)
	movq	%rdx, -40(%rbp)
	.loc 7 930 14
	leaq	-89(%rbp), %rax
	movq	%rax, %rcx
.LEHB53:
	call	_ZN8Palmtree4Math4Core8Internal4LockC1Ev
.LEHE53:
	.loc 7 931 40
	movq	-48(%rbp), %rax
	movq	-40(%rbp), %rdx
	movq	%rax, %rcx
.LEHB54:
	call	_ZN8Palmtree4Math4Core8Internal14ResourceHolder7FindTagEPv
	movq	%rax, -88(%rbp)
	.loc 7 932 9
	cmpq	$0, -88(%rbp)
	jne	.L288
	.loc 7 933 145
	movl	$40, %ecx
	call	__cxa_allocate_exception
	movq	%rax, %rbx
	leaq	.LC19(%rip), %r8
	leaq	.LC4(%rip), %rdx
	movq	%rbx, %rcx
	call	_ZN8Palmtree4Math4Core8Internal18BadBufferExceptionC1EPKwS5_
	leaq	_ZN8Palmtree4Math4Core8Internal18BadBufferExceptionD1Ev(%rip), %rax
	movq	%rax, %r8
	leaq	_ZTIN8Palmtree4Math4Core8Internal18BadBufferExceptionE(%rip), %rdx
	movq	%rbx, %rcx
	call	__cxa_throw
.L288:
	.loc 7 934 20
	movq	-88(%rbp), %rax
	movq	(%rax), %rax
	addq	$32, %rax
	movq	(%rax), %rax
	.loc 7 934 19
	movq	-88(%rbp), %rdx
	movq	%rdx, %rcx
	call	*%rax
.LVL25:
.LEHE54:
	.loc 7 930 14
	leaq	-89(%rbp), %rax
	movq	%rax, %rcx
	call	_ZN8Palmtree4Math4Core8Internal4LockD1Ev
	.loc 7 936 5
	jmp	.L291
.L290:
	movq	%rax, %rbx
	.loc 7 930 14
	leaq	-89(%rbp), %rax
	movq	%rax, %rcx
	call	_ZN8Palmtree4Math4Core8Internal4LockD1Ev
	movq	%rbx, %rax
	movq	%rax, %rcx
.LEHB55:
	call	_Unwind_Resume
	nop
.LEHE55:
.L291:
	.loc 7 936 5
	addq	$56, %rsp
	popq	%rbx
	.cfi_restore 3
	popq	%rbp
	.cfi_restore 6
	.cfi_def_cfa 7, -40
	ret
	.cfi_endproc
.LFE5162:
	.seh_handler	__gxx_personality_seh0, @unwind, @except
	.seh_handlerdata
.LLSDA5162:
	.byte	0xff
	.byte	0xff
	.byte	0x1
	.uleb128 .LLSDACSE5162-.LLSDACSB5162
.LLSDACSB5162:
	.uleb128 .LEHB53-.LFB5162
	.uleb128 .LEHE53-.LEHB53
	.uleb128 0
	.uleb128 0
	.uleb128 .LEHB54-.LFB5162
	.uleb128 .LEHE54-.LEHB54
	.uleb128 .L290-.LFB5162
	.uleb128 0
	.uleb128 .LEHB55-.LFB5162
	.uleb128 .LEHE55-.LEHB55
	.uleb128 0
	.uleb128 0
.LLSDACSE5162:
	.text
	.seh_endproc
	.section .rdata,"dr"
	.align 8
.LC20:
	.ascii "p\0m\0c\0_\0m\0e\0m\0o\0r\0y\0.\0c\0p\0p\0;\0R\0e\0s\0o\0u\0r\0c\0e\0H\0o\0l\0d\0e\0r\0U\0I\0N\0T\0:\0:\0U\0n\0l\0i\0n\0k\0N\0u\0m\0b\0e\0r\0;\0"
	.ascii "1\0\0\0"
	.text
	.align 2
	.globl	_ZN8Palmtree4Math4Core8Internal18ResourceHolderUINT12UnlinkNumberEPNS2_19__tag_NUMBER_HEADERE
	.def	_ZN8Palmtree4Math4Core8Internal18ResourceHolderUINT12UnlinkNumberEPNS2_19__tag_NUMBER_HEADERE;	.scl	2;	.type	32;	.endef
	.seh_proc	_ZN8Palmtree4Math4Core8Internal18ResourceHolderUINT12UnlinkNumberEPNS2_19__tag_NUMBER_HEADERE
_ZN8Palmtree4Math4Core8Internal18ResourceHolderUINT12UnlinkNumberEPNS2_19__tag_NUMBER_HEADERE:
.LFB5163:
	.loc 7 939 5
	.cfi_startproc
	pushq	%rbp
	.seh_pushreg	%rbp
	.cfi_def_cfa_offset 16
	.cfi_offset 6, -16
	pushq	%rbx
	.seh_pushreg	%rbx
	.cfi_def_cfa_offset 24
	.cfi_offset 3, -24
	subq	$56, %rsp
	.seh_stackalloc	56
	.cfi_def_cfa_offset 80
	leaq	128(%rsp), %rbp
	.seh_setframe	%rbp, 128
	.cfi_def_cfa 6, -48
	.seh_endprologue
	movq	%rcx, -48(%rbp)
	movq	%rdx, -40(%rbp)
	.loc 7 940 14
	leaq	-89(%rbp), %rax
	movq	%rax, %rcx
.LEHB56:
	call	_ZN8Palmtree4Math4Core8Internal4LockC1Ev
.LEHE56:
	.loc 7 941 40
	movq	-48(%rbp), %rax
	movq	-40(%rbp), %rdx
	movq	%rax, %rcx
.LEHB57:
	call	_ZN8Palmtree4Math4Core8Internal14ResourceHolder7FindTagEPv
	movq	%rax, -88(%rbp)
	.loc 7 942 9
	cmpq	$0, -88(%rbp)
	jne	.L293
	.loc 7 943 146
	movl	$40, %ecx
	call	__cxa_allocate_exception
	movq	%rax, %rbx
	leaq	.LC20(%rip), %r8
	leaq	.LC4(%rip), %rdx
	movq	%rbx, %rcx
	call	_ZN8Palmtree4Math4Core8Internal18BadBufferExceptionC1EPKwS5_
	leaq	_ZN8Palmtree4Math4Core8Internal18BadBufferExceptionD1Ev(%rip), %rax
	movq	%rax, %r8
	leaq	_ZTIN8Palmtree4Math4Core8Internal18BadBufferExceptionE(%rip), %rdx
	movq	%rbx, %rcx
	call	__cxa_throw
.LEHE57:
.L293:
	.loc 7 944 20
	movq	-88(%rbp), %rax
	movq	%rax, %rcx
	call	_ZN8Palmtree4Math4Core8Internal14ResourceHolder16__ChainBufferTag6UnlinkEv
	.loc 7 940 14
	leaq	-89(%rbp), %rax
	movq	%rax, %rcx
	call	_ZN8Palmtree4Math4Core8Internal4LockD1Ev
	.loc 7 945 5
	jmp	.L296
.L295:
	movq	%rax, %rbx
	.loc 7 940 14
	leaq	-89(%rbp), %rax
	movq	%rax, %rcx
	call	_ZN8Palmtree4Math4Core8Internal4LockD1Ev
	movq	%rbx, %rax
	movq	%rax, %rcx
.LEHB58:
	call	_Unwind_Resume
	nop
.LEHE58:
.L296:
	.loc 7 945 5
	addq	$56, %rsp
	popq	%rbx
	.cfi_restore 3
	popq	%rbp
	.cfi_restore 6
	.cfi_def_cfa 7, -40
	ret
	.cfi_endproc
.LFE5163:
	.seh_handler	__gxx_personality_seh0, @unwind, @except
	.seh_handlerdata
.LLSDA5163:
	.byte	0xff
	.byte	0xff
	.byte	0x1
	.uleb128 .LLSDACSE5163-.LLSDACSB5163
.LLSDACSB5163:
	.uleb128 .LEHB56-.LFB5163
	.uleb128 .LEHE56-.LEHB56
	.uleb128 0
	.uleb128 0
	.uleb128 .LEHB57-.LFB5163
	.uleb128 .LEHE57-.LEHB57
	.uleb128 .L295-.LFB5163
	.uleb128 0
	.uleb128 .LEHB58-.LFB5163
	.uleb128 .LEHE58-.LEHB58
	.uleb128 0
	.uleb128 0
.LLSDACSE5163:
	.text
	.seh_endproc
	.align 2
	.globl	_ZN8Palmtree4Math4Core8Internal18ResourceHolderUINT19AttatchStaticNumberEPNS2_19__tag_NUMBER_HEADEREy
	.def	_ZN8Palmtree4Math4Core8Internal18ResourceHolderUINT19AttatchStaticNumberEPNS2_19__tag_NUMBER_HEADEREy;	.scl	2;	.type	32;	.endef
	.seh_proc	_ZN8Palmtree4Math4Core8Internal18ResourceHolderUINT19AttatchStaticNumberEPNS2_19__tag_NUMBER_HEADEREy
_ZN8Palmtree4Math4Core8Internal18ResourceHolderUINT19AttatchStaticNumberEPNS2_19__tag_NUMBER_HEADEREy:
.LFB5164:
	.loc 7 948 5
	.cfi_startproc
	pushq	%rbp
	.seh_pushreg	%rbp
	.cfi_def_cfa_offset 16
	.cfi_offset 6, -16
	pushq	%rbx
	.seh_pushreg	%rbx
	.cfi_def_cfa_offset 24
	.cfi_offset 3, -24
	subq	$56, %rsp
	.seh_stackalloc	56
	.cfi_def_cfa_offset 80
	leaq	128(%rsp), %rbp
	.seh_setframe	%rbp, 128
	.cfi_def_cfa 6, -48
	.seh_endprologue
	movq	%rcx, -48(%rbp)
	movq	%rdx, -40(%rbp)
	movq	%r8, -32(%rbp)
	.loc 7 949 14
	leaq	-89(%rbp), %rax
	movq	%rax, %rcx
.LEHB59:
	call	_ZN8Palmtree4Math4Core8Internal4LockC1Ev
.LEHE59:
	.loc 7 950 54
	movq	-32(%rbp), %rdx
	movq	-40(%rbp), %rax
	movq	%rax, %rcx
.LEHB60:
	call	_ZN8Palmtree4Math4Core8InternalL13AttatchNumberEPNS2_19__tag_NUMBER_HEADEREy
	.loc 7 951 67
	movl	$32, %ecx
	call	_Znwy
.LEHE60:
	movq	%rax, %rbx
	movq	-40(%rbp), %rax
	movq	%rax, %rdx
	movq	%rbx, %rcx
	call	_ZN8Palmtree4Math4Core8Internal18ResourceHolderUINT28__StaticNumberChainBufferTagC1EPNS2_19__tag_NUMBER_HEADERE
	movq	%rbx, -88(%rbp)
	.loc 7 952 16
	movq	-48(%rbp), %rax
	movq	-88(%rbp), %rdx
	movq	%rax, %rcx
	call	_ZN8Palmtree4Math4Core8Internal14ResourceHolder7LinkTagEPNS3_16__ChainBufferTagE
	.loc 7 949 14
	leaq	-89(%rbp), %rax
	movq	%rax, %rcx
	call	_ZN8Palmtree4Math4Core8Internal4LockD1Ev
	.loc 7 953 5
	jmp	.L300
.L299:
	movq	%rax, %rbx
	.loc 7 949 14
	leaq	-89(%rbp), %rax
	movq	%rax, %rcx
	call	_ZN8Palmtree4Math4Core8Internal4LockD1Ev
	movq	%rbx, %rax
	movq	%rax, %rcx
.LEHB61:
	call	_Unwind_Resume
	nop
.LEHE61:
.L300:
	.loc 7 953 5
	addq	$56, %rsp
	popq	%rbx
	.cfi_restore 3
	popq	%rbp
	.cfi_restore 6
	.cfi_def_cfa 7, -40
	ret
	.cfi_endproc
.LFE5164:
	.seh_handler	__gxx_personality_seh0, @unwind, @except
	.seh_handlerdata
.LLSDA5164:
	.byte	0xff
	.byte	0xff
	.byte	0x1
	.uleb128 .LLSDACSE5164-.LLSDACSB5164
.LLSDACSB5164:
	.uleb128 .LEHB59-.LFB5164
	.uleb128 .LEHE59-.LEHB59
	.uleb128 0
	.uleb128 0
	.uleb128 .LEHB60-.LFB5164
	.uleb128 .LEHE60-.LEHB60
	.uleb128 .L299-.LFB5164
	.uleb128 0
	.uleb128 .LEHB61-.LFB5164
	.uleb128 .LEHE61-.LEHB61
	.uleb128 0
	.uleb128 0
.LLSDACSE5164:
	.text
	.seh_endproc
	.align 2
	.globl	_ZN8Palmtree4Math4Core8Internal18ResourceHolderUINT19DetatchStaticNumberEPNS2_19__tag_NUMBER_HEADERE
	.def	_ZN8Palmtree4Math4Core8Internal18ResourceHolderUINT19DetatchStaticNumberEPNS2_19__tag_NUMBER_HEADERE;	.scl	2;	.type	32;	.endef
	.seh_proc	_ZN8Palmtree4Math4Core8Internal18ResourceHolderUINT19DetatchStaticNumberEPNS2_19__tag_NUMBER_HEADERE
_ZN8Palmtree4Math4Core8Internal18ResourceHolderUINT19DetatchStaticNumberEPNS2_19__tag_NUMBER_HEADERE:
.LFB5165:
	.loc 7 956 5
	.cfi_startproc
	pushq	%rbp
	.seh_pushreg	%rbp
	.cfi_def_cfa_offset 16
	.cfi_offset 6, -16
	pushq	%rbx
	.seh_pushreg	%rbx
	.cfi_def_cfa_offset 24
	.cfi_offset 3, -24
	subq	$56, %rsp
	.seh_stackalloc	56
	.cfi_def_cfa_offset 80
	leaq	128(%rsp), %rbp
	.seh_setframe	%rbp, 128
	.cfi_def_cfa 6, -48
	.seh_endprologue
	movq	%rcx, -48(%rbp)
	movq	%rdx, -40(%rbp)
	.loc 7 957 14
	leaq	-89(%rbp), %rax
	movq	%rax, %rcx
.LEHB62:
	call	_ZN8Palmtree4Math4Core8Internal4LockC1Ev
.LEHE62:
	.loc 7 958 40
	movq	-48(%rbp), %rax
	movq	-40(%rbp), %rdx
	movq	%rax, %rcx
.LEHB63:
	call	_ZN8Palmtree4Math4Core8Internal14ResourceHolder7FindTagEPv
	movq	%rax, -88(%rbp)
	.loc 7 959 9
	cmpq	$0, -88(%rbp)
	je	.L302
	.loc 7 961 24
	movq	-88(%rbp), %rax
	movq	%rax, %rcx
	call	_ZN8Palmtree4Math4Core8Internal14ResourceHolder16__ChainBufferTag6UnlinkEv
	.loc 7 962 27
	movq	-88(%rbp), %rax
	movq	(%rax), %rax
	addq	$40, %rax
	movq	(%rax), %rax
	.loc 7 962 26
	movq	-88(%rbp), %rdx
	movq	%rdx, %rcx
	call	*%rax
.LVL26:
.LEHE63:
	.loc 7 963 23
	cmpq	$0, -88(%rbp)
	je	.L302
	.loc 7 963 20 discriminator 1
	movq	-88(%rbp), %rax
	movq	(%rax), %rax
	addq	$8, %rax
	movq	(%rax), %rax
	movq	-88(%rbp), %rdx
	movq	%rdx, %rcx
	call	*%rax
.LVL27:
.L302:
	.loc 7 957 14
	leaq	-89(%rbp), %rax
	movq	%rax, %rcx
	call	_ZN8Palmtree4Math4Core8Internal4LockD1Ev
	.loc 7 965 5
	jmp	.L305
.L304:
	movq	%rax, %rbx
	.loc 7 957 14
	leaq	-89(%rbp), %rax
	movq	%rax, %rcx
	call	_ZN8Palmtree4Math4Core8Internal4LockD1Ev
	movq	%rbx, %rax
	movq	%rax, %rcx
.LEHB64:
	call	_Unwind_Resume
	nop
.LEHE64:
.L305:
	.loc 7 965 5
	addq	$56, %rsp
	popq	%rbx
	.cfi_restore 3
	popq	%rbp
	.cfi_restore 6
	.cfi_def_cfa 7, -40
	ret
	.cfi_endproc
.LFE5165:
	.seh_handler	__gxx_personality_seh0, @unwind, @except
	.seh_handlerdata
.LLSDA5165:
	.byte	0xff
	.byte	0xff
	.byte	0x1
	.uleb128 .LLSDACSE5165-.LLSDACSB5165
.LLSDACSB5165:
	.uleb128 .LEHB62-.LFB5165
	.uleb128 .LEHE62-.LEHB62
	.uleb128 0
	.uleb128 0
	.uleb128 .LEHB63-.LFB5165
	.uleb128 .LEHE63-.LEHB63
	.uleb128 .L304-.LFB5165
	.uleb128 0
	.uleb128 .LEHB64-.LFB5165
	.uleb128 .LEHE64-.LEHB64
	.uleb128 0
	.uleb128 0
.LLSDACSE5165:
	.text
	.seh_endproc
	.section .rdata,"dr"
	.align 8
.LC21:
	.ascii "p\0m\0c\0_\0m\0e\0m\0o\0r\0y\0.\0c\0p\0p\0;\0R\0e\0s\0o\0u\0r\0c\0e\0H\0o\0l\0d\0e\0r\0U\0I\0N\0T\0:\0:\0U\0n\0l\0i\0n\0k\0S\0t\0a\0t\0i\0c\0k\0N\0u\0m\0b\0e\0r\0;\0"
	.ascii "1\0\0\0"
	.text
	.align 2
	.globl	_ZN8Palmtree4Math4Core8Internal18ResourceHolderUINT19UnlinkStatickNumberEPNS2_19__tag_NUMBER_HEADERE
	.def	_ZN8Palmtree4Math4Core8Internal18ResourceHolderUINT19UnlinkStatickNumberEPNS2_19__tag_NUMBER_HEADERE;	.scl	2;	.type	32;	.endef
	.seh_proc	_ZN8Palmtree4Math4Core8Internal18ResourceHolderUINT19UnlinkStatickNumberEPNS2_19__tag_NUMBER_HEADERE
_ZN8Palmtree4Math4Core8Internal18ResourceHolderUINT19UnlinkStatickNumberEPNS2_19__tag_NUMBER_HEADERE:
.LFB5166:
	.loc 7 968 5
	.cfi_startproc
	pushq	%rbp
	.seh_pushreg	%rbp
	.cfi_def_cfa_offset 16
	.cfi_offset 6, -16
	pushq	%rbx
	.seh_pushreg	%rbx
	.cfi_def_cfa_offset 24
	.cfi_offset 3, -24
	subq	$56, %rsp
	.seh_stackalloc	56
	.cfi_def_cfa_offset 80
	leaq	128(%rsp), %rbp
	.seh_setframe	%rbp, 128
	.cfi_def_cfa 6, -48
	.seh_endprologue
	movq	%rcx, -48(%rbp)
	movq	%rdx, -40(%rbp)
	.loc 7 969 14
	leaq	-89(%rbp), %rax
	movq	%rax, %rcx
.LEHB65:
	call	_ZN8Palmtree4Math4Core8Internal4LockC1Ev
.LEHE65:
	.loc 7 970 40
	movq	-48(%rbp), %rax
	movq	-40(%rbp), %rdx
	movq	%rax, %rcx
.LEHB66:
	call	_ZN8Palmtree4Math4Core8Internal14ResourceHolder7FindTagEPv
	movq	%rax, -88(%rbp)
	.loc 7 971 9
	cmpq	$0, -88(%rbp)
	jne	.L307
	.loc 7 972 153
	movl	$40, %ecx
	call	__cxa_allocate_exception
	movq	%rax, %rbx
	leaq	.LC21(%rip), %r8
	leaq	.LC4(%rip), %rdx
	movq	%rbx, %rcx
	call	_ZN8Palmtree4Math4Core8Internal18BadBufferExceptionC1EPKwS5_
	leaq	_ZN8Palmtree4Math4Core8Internal18BadBufferExceptionD1Ev(%rip), %rax
	movq	%rax, %r8
	leaq	_ZTIN8Palmtree4Math4Core8Internal18BadBufferExceptionE(%rip), %rdx
	movq	%rbx, %rcx
	call	__cxa_throw
.LEHE66:
.L307:
	.loc 7 973 20
	movq	-88(%rbp), %rax
	movq	%rax, %rcx
	call	_ZN8Palmtree4Math4Core8Internal14ResourceHolder16__ChainBufferTag6UnlinkEv
	.loc 7 969 14
	leaq	-89(%rbp), %rax
	movq	%rax, %rcx
	call	_ZN8Palmtree4Math4Core8Internal4LockD1Ev
	.loc 7 974 5
	jmp	.L310
.L309:
	movq	%rax, %rbx
	.loc 7 969 14
	leaq	-89(%rbp), %rax
	movq	%rax, %rcx
	call	_ZN8Palmtree4Math4Core8Internal4LockD1Ev
	movq	%rbx, %rax
	movq	%rax, %rcx
.LEHB67:
	call	_Unwind_Resume
	nop
.LEHE67:
.L310:
	.loc 7 974 5
	addq	$56, %rsp
	popq	%rbx
	.cfi_restore 3
	popq	%rbp
	.cfi_restore 6
	.cfi_def_cfa 7, -40
	ret
	.cfi_endproc
.LFE5166:
	.seh_handler	__gxx_personality_seh0, @unwind, @except
	.seh_handlerdata
.LLSDA5166:
	.byte	0xff
	.byte	0xff
	.byte	0x1
	.uleb128 .LLSDACSE5166-.LLSDACSB5166
.LLSDACSB5166:
	.uleb128 .LEHB65-.LFB5166
	.uleb128 .LEHE65-.LEHB65
	.uleb128 0
	.uleb128 0
	.uleb128 .LEHB66-.LFB5166
	.uleb128 .LEHE66-.LEHB66
	.uleb128 .L309-.LFB5166
	.uleb128 0
	.uleb128 .LEHB67-.LFB5166
	.uleb128 .LEHE67-.LEHB67
	.uleb128 0
	.uleb128 0
.LLSDACSE5166:
	.text
	.seh_endproc
	.def	_ZN8Palmtree4Math4Core8InternalL26GetAllocatedMemorySize_ImpEPy;	.scl	3;	.type	32;	.endef
	.seh_proc	_ZN8Palmtree4Math4Core8InternalL26GetAllocatedMemorySize_ImpEPy
_ZN8Palmtree4Math4Core8InternalL26GetAllocatedMemorySize_ImpEPy:
.LFB5167:
	.loc 7 980 5
	.cfi_startproc
	pushq	%rbp
	.seh_pushreg	%rbp
	.cfi_def_cfa_offset 16
	.cfi_offset 6, -16
	movq	%rsp, %rbp
	.seh_setframe	%rbp, 0
	.cfi_def_cfa_register 6
	subq	$80, %rsp
	.seh_stackalloc	80
	.seh_endprologue
	movq	%rcx, 16(%rbp)
	.loc 7 981 15
	movq	16(%rbp), %rax
	movq	$0, (%rax)
	.loc 7 984 22
	movq	$0, -48(%rbp)
.L316:
	.loc 7 985 24
	movq	_ZN8Palmtree4Math4Core8Internal10hLocalHeapE(%rip), %rcx
	leaq	-48(%rbp), %rax
	movq	%rax, %rdx
	movq	__imp_HeapWalk(%rip), %rax
	call	*%rax
.LVL28:
	.loc 7 985 43
	testl	%eax, %eax
	setne	%al
	testb	%al, %al
	je	.L312
.LBB74:
	.loc 7 987 18
	movl	$0, -4(%rbp)
	.loc 7 988 24
	movzwl	-34(%rbp), %eax
	.loc 7 988 31
	movzwl	%ax, %eax
	andl	$4, %eax
	.loc 7 988 13
	testl	%eax, %eax
	je	.L313
	.loc 7 991 30
	movl	$1, -4(%rbp)
	jmp	.L314
.L313:
	.loc 7 1003 29
	movzwl	-34(%rbp), %eax
	.loc 7 1003 36
	movzwl	%ax, %eax
	andl	$1, %eax
	.loc 7 1003 18
	testl	%eax, %eax
.L314:
	.loc 7 1028 13
	cmpl	$0, -4(%rbp)
	je	.L316
	.loc 7 1029 23
	movq	16(%rbp), %rax
	movq	(%rax), %rax
	.loc 7 1029 32
	movl	-40(%rbp), %edx
	movl	%edx, %edx
	.loc 7 1029 23
	addq	%rax, %rdx
	movq	16(%rbp), %rax
	movq	%rdx, (%rax)
.LBE74:
	.loc 7 985 9
	jmp	.L316
.L312:
	.loc 7 1031 33
	movq	__imp_GetLastError(%rip), %rax
	call	*%rax
.LVL29:
	movl	%eax, -8(%rbp)
	.loc 7 1032 9
	cmpl	$259, -8(%rbp)
	je	.L317
	.loc 7 1035 25
	movl	$0, %eax
	jmp	.L319
.L317:
	.loc 7 1037 20
	movl	$1, %eax
.L319:
	.loc 7 1038 5 discriminator 2
	addq	$80, %rsp
	popq	%rbp
	.cfi_restore 6
	.cfi_def_cfa 7, 8
	ret
	.cfi_endproc
.LFE5167:
	.seh_endproc
	.section .rdata,"dr"
	.align 8
.LC22:
	.ascii "p\0m\0c\0_\0m\0e\0m\0o\0r\0y\0.\0c\0p\0p\0;\0G\0e\0t\0A\0l\0l\0o\0c\0a\0t\0e\0d\0M\0e\0m\0o\0r\0y\0S\0i\0z\0e\0;\0"
	.ascii "1\0\0\0"
	.align 2
.LC23:
	.ascii "\205Q\350\220\250"
	.ascii "0\351"
	.ascii "0\374"
	.ascii "0L0zv\37uW0~0W0_0\2"
	.ascii "0\0\0"
	.align 8
.LC24:
	.ascii "p\0m\0c\0_\0m\0e\0m\0o\0r\0y\0.\0c\0p\0p\0;\0G\0e\0t\0A\0l\0l\0o\0c\0a\0t\0e\0d\0M\0e\0m\0o\0r\0y\0S\0i\0z\0e\0;\0"
	.ascii "2\0\0\0"
	.align 8
.LC25:
	.ascii "p\0m\0c\0_\0m\0e\0m\0o\0r\0y\0.\0c\0p\0p\0;\0G\0e\0t\0A\0l\0l\0o\0c\0a\0t\0e\0d\0M\0e\0m\0o\0r\0y\0S\0i\0z\0e\0;\0"
	.ascii "3\0\0\0"
	.text
	.globl	_ZN8Palmtree4Math4Core8Internal26PMC_GetAllocatedMemorySizeEv
	.def	_ZN8Palmtree4Math4Core8Internal26PMC_GetAllocatedMemorySizeEv;	.scl	2;	.type	32;	.endef
	.seh_proc	_ZN8Palmtree4Math4Core8Internal26PMC_GetAllocatedMemorySizeEv
_ZN8Palmtree4Math4Core8Internal26PMC_GetAllocatedMemorySizeEv:
.LFB5168:
	.loc 7 1041 5
	.cfi_startproc
	pushq	%rbp
	.seh_pushreg	%rbp
	.cfi_def_cfa_offset 16
	.cfi_offset 6, -16
	pushq	%rbx
	.seh_pushreg	%rbx
	.cfi_def_cfa_offset 24
	.cfi_offset 3, -24
	subq	$56, %rsp
	.seh_stackalloc	56
	.cfi_def_cfa_offset 80
	leaq	128(%rsp), %rbp
	.seh_setframe	%rbp, 128
	.cfi_def_cfa 6, -48
	.seh_endprologue
	.loc 7 1042 22
	movq	_ZN8Palmtree4Math4Core8Internal10hLocalHeapE(%rip), %rax
	movq	%rax, %rcx
	movq	__imp_HeapLock(%rip), %rax
	call	*%rax
.LVL30:
	.loc 7 1042 13
	testl	%eax, %eax
	sete	%al
	.loc 7 1042 9
	testb	%al, %al
	je	.L321
	.loc 7 1043 128
	movl	$32, %ecx
	call	__cxa_allocate_exception
	movq	%rax, %rbx
	leaq	.LC22(%rip), %r8
	leaq	.LC23(%rip), %rdx
	movq	%rbx, %rcx
	call	_ZN8Palmtree4Math4Core8Internal22InternalErrorExceptionC1EPKwS5_
	leaq	_ZN8Palmtree4Math4Core8Internal22InternalErrorExceptionD1Ev(%rip), %rax
	movq	%rax, %r8
	leaq	_ZTIN8Palmtree4Math4Core8Internal22InternalErrorExceptionE(%rip), %rdx
	movq	%rbx, %rcx
	call	__cxa_throw
.L321:
	.loc 7 1045 49
	leaq	-96(%rbp), %rax
	movq	%rax, %rcx
	call	_ZN8Palmtree4Math4Core8InternalL26GetAllocatedMemorySize_ImpEPy
	movl	%eax, -84(%rbp)
	.loc 7 1046 24
	movq	_ZN8Palmtree4Math4Core8Internal10hLocalHeapE(%rip), %rax
	movq	%rax, %rcx
	movq	__imp_HeapUnlock(%rip), %rax
	call	*%rax
.LVL31:
	.loc 7 1046 13
	testl	%eax, %eax
	sete	%al
	.loc 7 1046 9
	testb	%al, %al
	je	.L322
	.loc 7 1047 128
	movl	$32, %ecx
	call	__cxa_allocate_exception
	movq	%rax, %rbx
	leaq	.LC24(%rip), %r8
	leaq	.LC23(%rip), %rdx
	movq	%rbx, %rcx
	call	_ZN8Palmtree4Math4Core8Internal22InternalErrorExceptionC1EPKwS5_
	leaq	_ZN8Palmtree4Math4Core8Internal22InternalErrorExceptionD1Ev(%rip), %rax
	movq	%rax, %r8
	leaq	_ZTIN8Palmtree4Math4Core8Internal22InternalErrorExceptionE(%rip), %rdx
	movq	%rbx, %rcx
	call	__cxa_throw
.L322:
	.loc 7 1048 9
	cmpl	$0, -84(%rbp)
	jne	.L323
	.loc 7 1049 128
	movl	$32, %ecx
	call	__cxa_allocate_exception
	movq	%rax, %rbx
	leaq	.LC25(%rip), %r8
	leaq	.LC23(%rip), %rdx
	movq	%rbx, %rcx
	call	_ZN8Palmtree4Math4Core8Internal22InternalErrorExceptionC1EPKwS5_
	leaq	_ZN8Palmtree4Math4Core8Internal22InternalErrorExceptionD1Ev(%rip), %rax
	movq	%rax, %r8
	leaq	_ZTIN8Palmtree4Math4Core8Internal22InternalErrorExceptionE(%rip), %rdx
	movq	%rbx, %rcx
	call	__cxa_throw
.L323:
	.loc 7 1050 21
	movq	-96(%rbp), %rax
	.loc 7 1051 5
	addq	$56, %rsp
	popq	%rbx
	.cfi_restore 3
	popq	%rbp
	.cfi_restore 6
	.cfi_def_cfa 7, -40
	ret
	.cfi_endproc
.LFE5168:
	.seh_endproc
	.globl	_ZN8Palmtree4Math4Core8Internal17Initialize_MemoryEPNS2_23_tag_PROCESSOR_FEATURESE
	.def	_ZN8Palmtree4Math4Core8Internal17Initialize_MemoryEPNS2_23_tag_PROCESSOR_FEATURESE;	.scl	2;	.type	32;	.endef
	.seh_proc	_ZN8Palmtree4Math4Core8Internal17Initialize_MemoryEPNS2_23_tag_PROCESSOR_FEATURESE
_ZN8Palmtree4Math4Core8Internal17Initialize_MemoryEPNS2_23_tag_PROCESSOR_FEATURESE:
.LFB5169:
	.loc 7 1056 5
	.cfi_startproc
	pushq	%rbp
	.seh_pushreg	%rbp
	.cfi_def_cfa_offset 16
	.cfi_offset 6, -16
	pushq	%rbx
	.seh_pushreg	%rbx
	.cfi_def_cfa_offset 24
	.cfi_offset 3, -24
	subq	$88, %rsp
	.seh_stackalloc	88
	.cfi_def_cfa_offset 112
	leaq	128(%rsp), %rbp
	.seh_setframe	%rbp, 128
	.cfi_def_cfa 6, -16
	.seh_endprologue
	movq	%rcx, -16(%rbp)
	.loc 7 1057 34
	leaq	_ZN8Palmtree4Math4Core8Internal3mcsE(%rip), %rcx
	movq	__imp_InitializeCriticalSection(%rip), %rax
.LEHB68:
	call	*%rax
.LVL32:
.LEHE68:
	.loc 7 1059 28
	leaq	-96(%rbp), %rax
	movq	%rax, %rcx
	call	_ZN8Palmtree4Math4Core8Internal18ResourceHolderUINTC1Ev
	.loc 7 1063 37
	leaq	-96(%rbp), %rax
	movl	$0, %r8d
	leaq	_ZN8Palmtree4Math4Core8Internal11number_zeroE(%rip), %rdx
	movq	%rax, %rcx
.LEHB69:
	call	_ZN8Palmtree4Math4Core8Internal18ResourceHolderUINT19AttatchStaticNumberEPNS2_19__tag_NUMBER_HEADEREy
	.loc 7 1064 25
	leaq	_ZN8Palmtree4Math4Core8Internal11number_zeroE(%rip), %rcx
	call	_ZN8Palmtree4Math4Core8Internal12CommitNumberEPNS2_19__tag_NUMBER_HEADERE
	.loc 7 1066 37
	leaq	-96(%rbp), %rax
	movl	$1, %r8d
	leaq	_ZN8Palmtree4Math4Core8Internal10number_oneE(%rip), %rdx
	movq	%rax, %rcx
	call	_ZN8Palmtree4Math4Core8Internal18ResourceHolderUINT19AttatchStaticNumberEPNS2_19__tag_NUMBER_HEADEREy
	.loc 7 1067 24
	movq	64+_ZN8Palmtree4Math4Core8Internal10number_oneE(%rip), %rax
	.loc 7 1067 33
	movq	$1, (%rax)
	.loc 7 1068 25
	leaq	_ZN8Palmtree4Math4Core8Internal10number_oneE(%rip), %rcx
	call	_ZN8Palmtree4Math4Core8Internal12CommitNumberEPNS2_19__tag_NUMBER_HEADERE
	.loc 7 1070 37
	leaq	-96(%rbp), %rax
	leaq	_ZN8Palmtree4Math4Core8Internal11number_zeroE(%rip), %rdx
	movq	%rax, %rcx
	call	_ZN8Palmtree4Math4Core8Internal18ResourceHolderUINT19UnlinkStatickNumberEPNS2_19__tag_NUMBER_HEADERE
	.loc 7 1071 37
	leaq	-96(%rbp), %rax
	leaq	_ZN8Palmtree4Math4Core8Internal10number_oneE(%rip), %rdx
	movq	%rax, %rcx
	call	_ZN8Palmtree4Math4Core8Internal18ResourceHolderUINT19UnlinkStatickNumberEPNS2_19__tag_NUMBER_HEADERE
.LEHE69:
	.loc 7 1072 24
	movl	$0, %ebx
.L329:
	.loc 7 1059 28
	leaq	-96(%rbp), %rax
	movq	%rax, %rcx
	call	_ZN8Palmtree4Math4Core8Internal18ResourceHolderUINTD1Ev
	movl	%ebx, %eax
	jmp	.L331
.L330:
	cmpq	$1, %rdx
	je	.L328
	movq	%rax, %rbx
	leaq	-96(%rbp), %rax
	movq	%rax, %rcx
	call	_ZN8Palmtree4Math4Core8Internal18ResourceHolderUINTD1Ev
	movq	%rbx, %rax
	movq	%rax, %rcx
.LEHB70:
	call	_Unwind_Resume
.LEHE70:
.L328:
.LBB75:
	.loc 7 1074 33
	movq	%rax, %rcx
	call	__cxa_begin_catch
	movq	%rax, -56(%rbp)
	.loc 7 1076 37
	movq	-56(%rbp), %rax
	movq	%rax, %rcx
	call	_ZNK8Palmtree4Math4Core8Internal9Exception13GetStatusCodeEv
	movl	%eax, %ebx
	.loc 7 1076 39
	nop
	.loc 7 1074 33
	call	__cxa_end_catch
	jmp	.L329
.L331:
.LBE75:
	.loc 7 1078 5
	addq	$88, %rsp
	popq	%rbx
	.cfi_restore 3
	popq	%rbp
	.cfi_restore 6
	.cfi_def_cfa 7, -72
	ret
	.cfi_endproc
.LFE5169:
	.seh_handler	__gxx_personality_seh0, @unwind, @except
	.seh_handlerdata
	.align 4
.LLSDA5169:
	.byte	0xff
	.byte	0x9b
	.uleb128 .LLSDATT5169-.LLSDATTD5169
.LLSDATTD5169:
	.byte	0x1
	.uleb128 .LLSDACSE5169-.LLSDACSB5169
.LLSDACSB5169:
	.uleb128 .LEHB68-.LFB5169
	.uleb128 .LEHE68-.LEHB68
	.uleb128 0
	.uleb128 0
	.uleb128 .LEHB69-.LFB5169
	.uleb128 .LEHE69-.LEHB69
	.uleb128 .L330-.LFB5169
	.uleb128 0x3
	.uleb128 .LEHB70-.LFB5169
	.uleb128 .LEHE70-.LEHB70
	.uleb128 0
	.uleb128 0
.LLSDACSE5169:
	.byte	0
	.byte	0
	.byte	0x1
	.byte	0x7d
	.align 4
	.long	.LDFCM0-.
.LLSDATT5169:
	.text
	.seh_endproc
	.globl	_ZN8Palmtree4Math4Core8Internal16AllocateHeapAreaEv
	.def	_ZN8Palmtree4Math4Core8Internal16AllocateHeapAreaEv;	.scl	2;	.type	32;	.endef
	.seh_proc	_ZN8Palmtree4Math4Core8Internal16AllocateHeapAreaEv
_ZN8Palmtree4Math4Core8Internal16AllocateHeapAreaEv:
.LFB5170:
	.loc 7 1081 5
	.cfi_startproc
	pushq	%rbp
	.seh_pushreg	%rbp
	.cfi_def_cfa_offset 16
	.cfi_offset 6, -16
	movq	%rsp, %rbp
	.seh_setframe	%rbp, 0
	.cfi_def_cfa_register 6
	subq	$32, %rsp
	.seh_stackalloc	32
	.seh_endprologue
	.loc 7 1082 32
	movl	$0, %r8d
	movl	$4096, %edx
	movl	$0, %ecx
	movq	__imp_HeapCreate(%rip), %rax
	call	*%rax
.LVL33:
	.loc 7 1082 20
	movq	%rax, _ZN8Palmtree4Math4Core8Internal10hLocalHeapE(%rip)
	.loc 7 1083 24
	movq	_ZN8Palmtree4Math4Core8Internal10hLocalHeapE(%rip), %rax
	.loc 7 1083 9
	testq	%rax, %rax
	jne	.L333
	.loc 7 1084 25
	movl	$0, %eax
	jmp	.L334
.L333:
	.loc 7 1085 20
	movl	$1, %eax
.L334:
	.loc 7 1086 5
	addq	$32, %rsp
	popq	%rbp
	.cfi_restore 6
	.cfi_def_cfa 7, 8
	ret
	.cfi_endproc
.LFE5170:
	.seh_handler	__gxx_personality_seh0, @unwind, @except
	.seh_handlerdata
.LLSDA5170:
	.byte	0xff
	.byte	0xff
	.byte	0x1
	.uleb128 .LLSDACSE5170-.LLSDACSB5170
.LLSDACSB5170:
.LLSDACSE5170:
	.text
	.seh_endproc
	.globl	_ZN8Palmtree4Math4Core8Internal18DeallocateHeapAreaEv
	.def	_ZN8Palmtree4Math4Core8Internal18DeallocateHeapAreaEv;	.scl	2;	.type	32;	.endef
	.seh_proc	_ZN8Palmtree4Math4Core8Internal18DeallocateHeapAreaEv
_ZN8Palmtree4Math4Core8Internal18DeallocateHeapAreaEv:
.LFB5171:
	.loc 7 1089 5
	.cfi_startproc
	pushq	%rbp
	.seh_pushreg	%rbp
	.cfi_def_cfa_offset 16
	.cfi_offset 6, -16
	movq	%rsp, %rbp
	.seh_setframe	%rbp, 0
	.cfi_def_cfa_register 6
	subq	$32, %rsp
	.seh_stackalloc	32
	.seh_endprologue
	.loc 7 1090 24
	movq	_ZN8Palmtree4Math4Core8Internal10hLocalHeapE(%rip), %rax
	.loc 7 1090 9
	testq	%rax, %rax
	je	.L337
	.loc 7 1092 24
	movq	_ZN8Palmtree4Math4Core8Internal10hLocalHeapE(%rip), %rax
	movq	%rax, %rcx
	movq	__imp_HeapDestroy(%rip), %rax
	call	*%rax
.LVL34:
	.loc 7 1093 24
	movq	$0, _ZN8Palmtree4Math4Core8Internal10hLocalHeapE(%rip)
.L337:
	.loc 7 1095 5
	nop
	addq	$32, %rsp
	popq	%rbp
	.cfi_restore 6
	.cfi_def_cfa 7, 8
	ret
	.cfi_endproc
.LFE5171:
	.seh_handler	__gxx_personality_seh0, @unwind, @except
	.seh_handlerdata
.LLSDA5171:
	.byte	0xff
	.byte	0xff
	.byte	0x1
	.uleb128 .LLSDACSE5171-.LLSDACSB5171
.LLSDACSB5171:
.LLSDACSE5171:
	.text
	.seh_endproc
	.globl	_ZTVN8Palmtree4Math4Core8Internal18ResourceHolderUINTE
	.section	.rdata$_ZTVN8Palmtree4Math4Core8Internal18ResourceHolderUINTE,"dr"
	.linkonce same_size
	.align 8
_ZTVN8Palmtree4Math4Core8Internal18ResourceHolderUINTE:
	.quad	0
	.quad	_ZTIN8Palmtree4Math4Core8Internal18ResourceHolderUINTE
	.quad	_ZN8Palmtree4Math4Core8Internal18ResourceHolderUINTD1Ev
	.quad	_ZN8Palmtree4Math4Core8Internal18ResourceHolderUINTD0Ev
	.globl	_ZTVN8Palmtree4Math4Core8Internal18ResourceHolderUINT28__StaticNumberChainBufferTagE
	.section	.rdata$_ZTVN8Palmtree4Math4Core8Internal18ResourceHolderUINT28__StaticNumberChainBufferTagE,"dr"
	.linkonce same_size
	.align 8
_ZTVN8Palmtree4Math4Core8Internal18ResourceHolderUINT28__StaticNumberChainBufferTagE:
	.quad	0
	.quad	_ZTIN8Palmtree4Math4Core8Internal18ResourceHolderUINT28__StaticNumberChainBufferTagE
	.quad	_ZN8Palmtree4Math4Core8Internal18ResourceHolderUINT28__StaticNumberChainBufferTagD1Ev
	.quad	_ZN8Palmtree4Math4Core8Internal18ResourceHolderUINT28__StaticNumberChainBufferTagD0Ev
	.quad	_ZN8Palmtree4Math4Core8Internal18ResourceHolderUINT28__StaticNumberChainBufferTag19EqualsBufferAddressEPv
	.quad	_ZN8Palmtree4Math4Core8Internal14ResourceHolder16__ChainBufferTag5ClearEv
	.quad	_ZN8Palmtree4Math4Core8Internal18ResourceHolderUINT28__StaticNumberChainBufferTag5CheckEv
	.quad	_ZN8Palmtree4Math4Core8Internal18ResourceHolderUINT28__StaticNumberChainBufferTag8DestructEv
	.globl	_ZTVN8Palmtree4Math4Core8Internal18ResourceHolderUINT35__NumberHandleHookingChainBufferTagE
	.section	.rdata$_ZTVN8Palmtree4Math4Core8Internal18ResourceHolderUINT35__NumberHandleHookingChainBufferTagE,"dr"
	.linkonce same_size
	.align 8
_ZTVN8Palmtree4Math4Core8Internal18ResourceHolderUINT35__NumberHandleHookingChainBufferTagE:
	.quad	0
	.quad	_ZTIN8Palmtree4Math4Core8Internal18ResourceHolderUINT35__NumberHandleHookingChainBufferTagE
	.quad	_ZN8Palmtree4Math4Core8Internal18ResourceHolderUINT35__NumberHandleHookingChainBufferTagD1Ev
	.quad	_ZN8Palmtree4Math4Core8Internal18ResourceHolderUINT35__NumberHandleHookingChainBufferTagD0Ev
	.quad	_ZN8Palmtree4Math4Core8Internal18ResourceHolderUINT35__NumberHandleHookingChainBufferTag19EqualsBufferAddressEPv
	.quad	_ZN8Palmtree4Math4Core8Internal14ResourceHolder16__ChainBufferTag5ClearEv
	.quad	_ZN8Palmtree4Math4Core8Internal18ResourceHolderUINT35__NumberHandleHookingChainBufferTag5CheckEv
	.quad	_ZN8Palmtree4Math4Core8Internal18ResourceHolderUINT35__NumberHandleHookingChainBufferTag8DestructEv
	.globl	_ZTVN8Palmtree4Math4Core8Internal18ResourceHolderUINT29__DynamicNumberChainBufferTagE
	.section	.rdata$_ZTVN8Palmtree4Math4Core8Internal18ResourceHolderUINT29__DynamicNumberChainBufferTagE,"dr"
	.linkonce same_size
	.align 8
_ZTVN8Palmtree4Math4Core8Internal18ResourceHolderUINT29__DynamicNumberChainBufferTagE:
	.quad	0
	.quad	_ZTIN8Palmtree4Math4Core8Internal18ResourceHolderUINT29__DynamicNumberChainBufferTagE
	.quad	_ZN8Palmtree4Math4Core8Internal18ResourceHolderUINT29__DynamicNumberChainBufferTagD1Ev
	.quad	_ZN8Palmtree4Math4Core8Internal18ResourceHolderUINT29__DynamicNumberChainBufferTagD0Ev
	.quad	_ZN8Palmtree4Math4Core8Internal18ResourceHolderUINT29__DynamicNumberChainBufferTag19EqualsBufferAddressEPv
	.quad	_ZN8Palmtree4Math4Core8Internal14ResourceHolder16__ChainBufferTag5ClearEv
	.quad	_ZN8Palmtree4Math4Core8Internal18ResourceHolderUINT29__DynamicNumberChainBufferTag5CheckEv
	.quad	_ZN8Palmtree4Math4Core8Internal18ResourceHolderUINT29__DynamicNumberChainBufferTag8DestructEv
	.globl	_ZTVN8Palmtree4Math4Core8Internal18ResourceHolderUINT22__StringChainBufferTagE
	.section	.rdata$_ZTVN8Palmtree4Math4Core8Internal18ResourceHolderUINT22__StringChainBufferTagE,"dr"
	.linkonce same_size
	.align 8
_ZTVN8Palmtree4Math4Core8Internal18ResourceHolderUINT22__StringChainBufferTagE:
	.quad	0
	.quad	_ZTIN8Palmtree4Math4Core8Internal18ResourceHolderUINT22__StringChainBufferTagE
	.quad	_ZN8Palmtree4Math4Core8Internal18ResourceHolderUINT22__StringChainBufferTagD1Ev
	.quad	_ZN8Palmtree4Math4Core8Internal18ResourceHolderUINT22__StringChainBufferTagD0Ev
	.quad	_ZN8Palmtree4Math4Core8Internal18ResourceHolderUINT22__StringChainBufferTag19EqualsBufferAddressEPv
	.quad	_ZN8Palmtree4Math4Core8Internal18ResourceHolderUINT22__StringChainBufferTag5ClearEv
	.quad	_ZN8Palmtree4Math4Core8Internal18ResourceHolderUINT22__StringChainBufferTag5CheckEv
	.quad	_ZN8Palmtree4Math4Core8Internal18ResourceHolderUINT22__StringChainBufferTag8DestructEv
	.globl	_ZTVN8Palmtree4Math4Core8Internal18ResourceHolderUINT34____UNIT_TYPE_Array_ChainBufferTagE
	.section	.rdata$_ZTVN8Palmtree4Math4Core8Internal18ResourceHolderUINT34____UNIT_TYPE_Array_ChainBufferTagE,"dr"
	.linkonce same_size
	.align 8
_ZTVN8Palmtree4Math4Core8Internal18ResourceHolderUINT34____UNIT_TYPE_Array_ChainBufferTagE:
	.quad	0
	.quad	_ZTIN8Palmtree4Math4Core8Internal18ResourceHolderUINT34____UNIT_TYPE_Array_ChainBufferTagE
	.quad	_ZN8Palmtree4Math4Core8Internal18ResourceHolderUINT34____UNIT_TYPE_Array_ChainBufferTagD1Ev
	.quad	_ZN8Palmtree4Math4Core8Internal18ResourceHolderUINT34____UNIT_TYPE_Array_ChainBufferTagD0Ev
	.quad	_ZN8Palmtree4Math4Core8Internal18ResourceHolderUINT34____UNIT_TYPE_Array_ChainBufferTag19EqualsBufferAddressEPv
	.quad	_ZN8Palmtree4Math4Core8Internal18ResourceHolderUINT34____UNIT_TYPE_Array_ChainBufferTag5ClearEv
	.quad	_ZN8Palmtree4Math4Core8Internal18ResourceHolderUINT34____UNIT_TYPE_Array_ChainBufferTag5CheckEv
	.quad	_ZN8Palmtree4Math4Core8Internal18ResourceHolderUINT34____UNIT_TYPE_Array_ChainBufferTag8DestructEv
	.globl	_ZTVN8Palmtree4Math4Core8Internal18ResourceHolderUINT23__GenericChainBufferTagE
	.section	.rdata$_ZTVN8Palmtree4Math4Core8Internal18ResourceHolderUINT23__GenericChainBufferTagE,"dr"
	.linkonce same_size
	.align 8
_ZTVN8Palmtree4Math4Core8Internal18ResourceHolderUINT23__GenericChainBufferTagE:
	.quad	0
	.quad	_ZTIN8Palmtree4Math4Core8Internal18ResourceHolderUINT23__GenericChainBufferTagE
	.quad	_ZN8Palmtree4Math4Core8Internal18ResourceHolderUINT23__GenericChainBufferTagD1Ev
	.quad	_ZN8Palmtree4Math4Core8Internal18ResourceHolderUINT23__GenericChainBufferTagD0Ev
	.quad	_ZN8Palmtree4Math4Core8Internal18ResourceHolderUINT23__GenericChainBufferTag19EqualsBufferAddressEPv
	.quad	_ZN8Palmtree4Math4Core8Internal14ResourceHolder16__ChainBufferTag5ClearEv
	.quad	_ZN8Palmtree4Math4Core8Internal14ResourceHolder16__ChainBufferTag5CheckEv
	.quad	_ZN8Palmtree4Math4Core8Internal18ResourceHolderUINT23__GenericChainBufferTag8DestructEv
	.globl	_ZTVN8Palmtree4Math4Core8Internal14ResourceHolderE
	.section	.rdata$_ZTVN8Palmtree4Math4Core8Internal14ResourceHolderE,"dr"
	.linkonce same_size
	.align 8
_ZTVN8Palmtree4Math4Core8Internal14ResourceHolderE:
	.quad	0
	.quad	_ZTIN8Palmtree4Math4Core8Internal14ResourceHolderE
	.quad	_ZN8Palmtree4Math4Core8Internal14ResourceHolderD1Ev
	.quad	_ZN8Palmtree4Math4Core8Internal14ResourceHolderD0Ev
	.globl	_ZTVN8Palmtree4Math4Core8Internal14ResourceHolder9__RootTagE
	.section	.rdata$_ZTVN8Palmtree4Math4Core8Internal14ResourceHolder9__RootTagE,"dr"
	.linkonce same_size
	.align 8
_ZTVN8Palmtree4Math4Core8Internal14ResourceHolder9__RootTagE:
	.quad	0
	.quad	_ZTIN8Palmtree4Math4Core8Internal14ResourceHolder9__RootTagE
	.quad	_ZN8Palmtree4Math4Core8Internal14ResourceHolder9__RootTagD1Ev
	.quad	_ZN8Palmtree4Math4Core8Internal14ResourceHolder9__RootTagD0Ev
	.quad	_ZN8Palmtree4Math4Core8Internal14ResourceHolder9__RootTag19EqualsBufferAddressEPv
	.quad	_ZN8Palmtree4Math4Core8Internal14ResourceHolder16__ChainBufferTag5ClearEv
	.quad	_ZN8Palmtree4Math4Core8Internal14ResourceHolder16__ChainBufferTag5CheckEv
	.quad	_ZN8Palmtree4Math4Core8Internal14ResourceHolder9__RootTag8DestructEv
	.globl	_ZTVN8Palmtree4Math4Core8Internal14ResourceHolder16__ChainBufferTagE
	.section	.rdata$_ZTVN8Palmtree4Math4Core8Internal14ResourceHolder16__ChainBufferTagE,"dr"
	.linkonce same_size
	.align 8
_ZTVN8Palmtree4Math4Core8Internal14ResourceHolder16__ChainBufferTagE:
	.quad	0
	.quad	_ZTIN8Palmtree4Math4Core8Internal14ResourceHolder16__ChainBufferTagE
	.quad	0
	.quad	0
	.quad	__cxa_pure_virtual
	.quad	_ZN8Palmtree4Math4Core8Internal14ResourceHolder16__ChainBufferTag5ClearEv
	.quad	_ZN8Palmtree4Math4Core8Internal14ResourceHolder16__ChainBufferTag5CheckEv
	.quad	__cxa_pure_virtual
	.globl	_ZTVN8Palmtree4Math4Core8Internal18BadBufferExceptionE
	.section	.rdata$_ZTVN8Palmtree4Math4Core8Internal18BadBufferExceptionE,"dr"
	.linkonce same_size
	.align 8
_ZTVN8Palmtree4Math4Core8Internal18BadBufferExceptionE:
	.quad	0
	.quad	_ZTIN8Palmtree4Math4Core8Internal18BadBufferExceptionE
	.quad	_ZN8Palmtree4Math4Core8Internal18BadBufferExceptionD1Ev
	.quad	_ZN8Palmtree4Math4Core8Internal18BadBufferExceptionD0Ev
	.quad	_ZNKSt9exception4whatEv
	.globl	_ZTVN8Palmtree4Math4Core8Internal22InternalErrorExceptionE
	.section	.rdata$_ZTVN8Palmtree4Math4Core8Internal22InternalErrorExceptionE,"dr"
	.linkonce same_size
	.align 8
_ZTVN8Palmtree4Math4Core8Internal22InternalErrorExceptionE:
	.quad	0
	.quad	_ZTIN8Palmtree4Math4Core8Internal22InternalErrorExceptionE
	.quad	_ZN8Palmtree4Math4Core8Internal22InternalErrorExceptionD1Ev
	.quad	_ZN8Palmtree4Math4Core8Internal22InternalErrorExceptionD0Ev
	.quad	_ZNKSt9exception4whatEv
	.globl	_ZTVN8Palmtree4Math4Core8Internal24NotEnoughMemoryExceptionE
	.section	.rdata$_ZTVN8Palmtree4Math4Core8Internal24NotEnoughMemoryExceptionE,"dr"
	.linkonce same_size
	.align 8
_ZTVN8Palmtree4Math4Core8Internal24NotEnoughMemoryExceptionE:
	.quad	0
	.quad	_ZTIN8Palmtree4Math4Core8Internal24NotEnoughMemoryExceptionE
	.quad	_ZN8Palmtree4Math4Core8Internal24NotEnoughMemoryExceptionD1Ev
	.quad	_ZN8Palmtree4Math4Core8Internal24NotEnoughMemoryExceptionD0Ev
	.quad	_ZNKSt9exception4whatEv
	.globl	_ZTVN8Palmtree4Math4Core8Internal21ArgumentNullExceptionE
	.section	.rdata$_ZTVN8Palmtree4Math4Core8Internal21ArgumentNullExceptionE,"dr"
	.linkonce same_size
	.align 8
_ZTVN8Palmtree4Math4Core8Internal21ArgumentNullExceptionE:
	.quad	0
	.quad	_ZTIN8Palmtree4Math4Core8Internal21ArgumentNullExceptionE
	.quad	_ZN8Palmtree4Math4Core8Internal21ArgumentNullExceptionD1Ev
	.quad	_ZN8Palmtree4Math4Core8Internal21ArgumentNullExceptionD0Ev
	.quad	_ZNKSt9exception4whatEv
	.globl	_ZTVN8Palmtree4Math4Core8Internal17ArgumentExceptionE
	.section	.rdata$_ZTVN8Palmtree4Math4Core8Internal17ArgumentExceptionE,"dr"
	.linkonce same_size
	.align 8
_ZTVN8Palmtree4Math4Core8Internal17ArgumentExceptionE:
	.quad	0
	.quad	_ZTIN8Palmtree4Math4Core8Internal17ArgumentExceptionE
	.quad	_ZN8Palmtree4Math4Core8Internal17ArgumentExceptionD1Ev
	.quad	_ZN8Palmtree4Math4Core8Internal17ArgumentExceptionD0Ev
	.quad	_ZNKSt9exception4whatEv
	.globl	_ZTVN8Palmtree4Math4Core8Internal9ExceptionE
	.section	.rdata$_ZTVN8Palmtree4Math4Core8Internal9ExceptionE,"dr"
	.linkonce same_size
	.align 8
_ZTVN8Palmtree4Math4Core8Internal9ExceptionE:
	.quad	0
	.quad	_ZTIN8Palmtree4Math4Core8Internal9ExceptionE
	.quad	_ZN8Palmtree4Math4Core8Internal9ExceptionD1Ev
	.quad	_ZN8Palmtree4Math4Core8Internal9ExceptionD0Ev
	.quad	_ZNKSt9exception4whatEv
	.globl	_ZTIN8Palmtree4Math4Core8Internal18ResourceHolderUINTE
	.section	.rdata$_ZTIN8Palmtree4Math4Core8Internal18ResourceHolderUINTE,"dr"
	.linkonce same_size
	.align 8
_ZTIN8Palmtree4Math4Core8Internal18ResourceHolderUINTE:
	.quad	_ZTVN10__cxxabiv121__vmi_class_type_infoE+16
	.quad	_ZTSN8Palmtree4Math4Core8Internal18ResourceHolderUINTE
	.long	0
	.long	1
	.quad	_ZTIN8Palmtree4Math4Core8Internal14ResourceHolderE
	.quad	0
	.globl	_ZTSN8Palmtree4Math4Core8Internal18ResourceHolderUINTE
	.section	.rdata$_ZTSN8Palmtree4Math4Core8Internal18ResourceHolderUINTE,"dr"
	.linkonce same_size
	.align 32
_ZTSN8Palmtree4Math4Core8Internal18ResourceHolderUINTE:
	.ascii "N8Palmtree4Math4Core8Internal18ResourceHolderUINTE\0"
	.globl	_ZTIN8Palmtree4Math4Core8Internal18ResourceHolderUINT28__StaticNumberChainBufferTagE
	.section	.rdata$_ZTIN8Palmtree4Math4Core8Internal18ResourceHolderUINT28__StaticNumberChainBufferTagE,"dr"
	.linkonce same_size
	.align 8
_ZTIN8Palmtree4Math4Core8Internal18ResourceHolderUINT28__StaticNumberChainBufferTagE:
	.quad	_ZTVN10__cxxabiv120__si_class_type_infoE+16
	.quad	_ZTSN8Palmtree4Math4Core8Internal18ResourceHolderUINT28__StaticNumberChainBufferTagE
	.quad	_ZTIN8Palmtree4Math4Core8Internal14ResourceHolder16__ChainBufferTagE
	.globl	_ZTSN8Palmtree4Math4Core8Internal18ResourceHolderUINT28__StaticNumberChainBufferTagE
	.section	.rdata$_ZTSN8Palmtree4Math4Core8Internal18ResourceHolderUINT28__StaticNumberChainBufferTagE,"dr"
	.linkonce same_size
	.align 32
_ZTSN8Palmtree4Math4Core8Internal18ResourceHolderUINT28__StaticNumberChainBufferTagE:
	.ascii "N8Palmtree4Math4Core8Internal18ResourceHolderUINT28__StaticNumberChainBufferTagE\0"
	.globl	_ZTIN8Palmtree4Math4Core8Internal18ResourceHolderUINT35__NumberHandleHookingChainBufferTagE
	.section	.rdata$_ZTIN8Palmtree4Math4Core8Internal18ResourceHolderUINT35__NumberHandleHookingChainBufferTagE,"dr"
	.linkonce same_size
	.align 8
_ZTIN8Palmtree4Math4Core8Internal18ResourceHolderUINT35__NumberHandleHookingChainBufferTagE:
	.quad	_ZTVN10__cxxabiv120__si_class_type_infoE+16
	.quad	_ZTSN8Palmtree4Math4Core8Internal18ResourceHolderUINT35__NumberHandleHookingChainBufferTagE
	.quad	_ZTIN8Palmtree4Math4Core8Internal14ResourceHolder16__ChainBufferTagE
	.globl	_ZTSN8Palmtree4Math4Core8Internal18ResourceHolderUINT35__NumberHandleHookingChainBufferTagE
	.section	.rdata$_ZTSN8Palmtree4Math4Core8Internal18ResourceHolderUINT35__NumberHandleHookingChainBufferTagE,"dr"
	.linkonce same_size
	.align 32
_ZTSN8Palmtree4Math4Core8Internal18ResourceHolderUINT35__NumberHandleHookingChainBufferTagE:
	.ascii "N8Palmtree4Math4Core8Internal18ResourceHolderUINT35__NumberHandleHookingChainBufferTagE\0"
	.globl	_ZTIN8Palmtree4Math4Core8Internal18ResourceHolderUINT29__DynamicNumberChainBufferTagE
	.section	.rdata$_ZTIN8Palmtree4Math4Core8Internal18ResourceHolderUINT29__DynamicNumberChainBufferTagE,"dr"
	.linkonce same_size
	.align 8
_ZTIN8Palmtree4Math4Core8Internal18ResourceHolderUINT29__DynamicNumberChainBufferTagE:
	.quad	_ZTVN10__cxxabiv120__si_class_type_infoE+16
	.quad	_ZTSN8Palmtree4Math4Core8Internal18ResourceHolderUINT29__DynamicNumberChainBufferTagE
	.quad	_ZTIN8Palmtree4Math4Core8Internal14ResourceHolder16__ChainBufferTagE
	.globl	_ZTSN8Palmtree4Math4Core8Internal18ResourceHolderUINT29__DynamicNumberChainBufferTagE
	.section	.rdata$_ZTSN8Palmtree4Math4Core8Internal18ResourceHolderUINT29__DynamicNumberChainBufferTagE,"dr"
	.linkonce same_size
	.align 32
_ZTSN8Palmtree4Math4Core8Internal18ResourceHolderUINT29__DynamicNumberChainBufferTagE:
	.ascii "N8Palmtree4Math4Core8Internal18ResourceHolderUINT29__DynamicNumberChainBufferTagE\0"
	.globl	_ZTIN8Palmtree4Math4Core8Internal18ResourceHolderUINT22__StringChainBufferTagE
	.section	.rdata$_ZTIN8Palmtree4Math4Core8Internal18ResourceHolderUINT22__StringChainBufferTagE,"dr"
	.linkonce same_size
	.align 8
_ZTIN8Palmtree4Math4Core8Internal18ResourceHolderUINT22__StringChainBufferTagE:
	.quad	_ZTVN10__cxxabiv120__si_class_type_infoE+16
	.quad	_ZTSN8Palmtree4Math4Core8Internal18ResourceHolderUINT22__StringChainBufferTagE
	.quad	_ZTIN8Palmtree4Math4Core8Internal14ResourceHolder16__ChainBufferTagE
	.globl	_ZTSN8Palmtree4Math4Core8Internal18ResourceHolderUINT22__StringChainBufferTagE
	.section	.rdata$_ZTSN8Palmtree4Math4Core8Internal18ResourceHolderUINT22__StringChainBufferTagE,"dr"
	.linkonce same_size
	.align 32
_ZTSN8Palmtree4Math4Core8Internal18ResourceHolderUINT22__StringChainBufferTagE:
	.ascii "N8Palmtree4Math4Core8Internal18ResourceHolderUINT22__StringChainBufferTagE\0"
	.globl	_ZTIN8Palmtree4Math4Core8Internal18ResourceHolderUINT34____UNIT_TYPE_Array_ChainBufferTagE
	.section	.rdata$_ZTIN8Palmtree4Math4Core8Internal18ResourceHolderUINT34____UNIT_TYPE_Array_ChainBufferTagE,"dr"
	.linkonce same_size
	.align 8
_ZTIN8Palmtree4Math4Core8Internal18ResourceHolderUINT34____UNIT_TYPE_Array_ChainBufferTagE:
	.quad	_ZTVN10__cxxabiv120__si_class_type_infoE+16
	.quad	_ZTSN8Palmtree4Math4Core8Internal18ResourceHolderUINT34____UNIT_TYPE_Array_ChainBufferTagE
	.quad	_ZTIN8Palmtree4Math4Core8Internal14ResourceHolder16__ChainBufferTagE
	.globl	_ZTSN8Palmtree4Math4Core8Internal18ResourceHolderUINT34____UNIT_TYPE_Array_ChainBufferTagE
	.section	.rdata$_ZTSN8Palmtree4Math4Core8Internal18ResourceHolderUINT34____UNIT_TYPE_Array_ChainBufferTagE,"dr"
	.linkonce same_size
	.align 32
_ZTSN8Palmtree4Math4Core8Internal18ResourceHolderUINT34____UNIT_TYPE_Array_ChainBufferTagE:
	.ascii "N8Palmtree4Math4Core8Internal18ResourceHolderUINT34____UNIT_TYPE_Array_ChainBufferTagE\0"
	.globl	_ZTIN8Palmtree4Math4Core8Internal18ResourceHolderUINT23__GenericChainBufferTagE
	.section	.rdata$_ZTIN8Palmtree4Math4Core8Internal18ResourceHolderUINT23__GenericChainBufferTagE,"dr"
	.linkonce same_size
	.align 8
_ZTIN8Palmtree4Math4Core8Internal18ResourceHolderUINT23__GenericChainBufferTagE:
	.quad	_ZTVN10__cxxabiv120__si_class_type_infoE+16
	.quad	_ZTSN8Palmtree4Math4Core8Internal18ResourceHolderUINT23__GenericChainBufferTagE
	.quad	_ZTIN8Palmtree4Math4Core8Internal14ResourceHolder16__ChainBufferTagE
	.globl	_ZTSN8Palmtree4Math4Core8Internal18ResourceHolderUINT23__GenericChainBufferTagE
	.section	.rdata$_ZTSN8Palmtree4Math4Core8Internal18ResourceHolderUINT23__GenericChainBufferTagE,"dr"
	.linkonce same_size
	.align 32
_ZTSN8Palmtree4Math4Core8Internal18ResourceHolderUINT23__GenericChainBufferTagE:
	.ascii "N8Palmtree4Math4Core8Internal18ResourceHolderUINT23__GenericChainBufferTagE\0"
	.globl	_ZTIN8Palmtree4Math4Core8Internal14ResourceHolderE
	.section	.rdata$_ZTIN8Palmtree4Math4Core8Internal14ResourceHolderE,"dr"
	.linkonce same_size
	.align 8
_ZTIN8Palmtree4Math4Core8Internal14ResourceHolderE:
	.quad	_ZTVN10__cxxabiv117__class_type_infoE+16
	.quad	_ZTSN8Palmtree4Math4Core8Internal14ResourceHolderE
	.globl	_ZTSN8Palmtree4Math4Core8Internal14ResourceHolderE
	.section	.rdata$_ZTSN8Palmtree4Math4Core8Internal14ResourceHolderE,"dr"
	.linkonce same_size
	.align 32
_ZTSN8Palmtree4Math4Core8Internal14ResourceHolderE:
	.ascii "N8Palmtree4Math4Core8Internal14ResourceHolderE\0"
	.globl	_ZTIN8Palmtree4Math4Core8Internal14ResourceHolder9__RootTagE
	.section	.rdata$_ZTIN8Palmtree4Math4Core8Internal14ResourceHolder9__RootTagE,"dr"
	.linkonce same_size
	.align 8
_ZTIN8Palmtree4Math4Core8Internal14ResourceHolder9__RootTagE:
	.quad	_ZTVN10__cxxabiv120__si_class_type_infoE+16
	.quad	_ZTSN8Palmtree4Math4Core8Internal14ResourceHolder9__RootTagE
	.quad	_ZTIN8Palmtree4Math4Core8Internal14ResourceHolder16__ChainBufferTagE
	.globl	_ZTSN8Palmtree4Math4Core8Internal14ResourceHolder9__RootTagE
	.section	.rdata$_ZTSN8Palmtree4Math4Core8Internal14ResourceHolder9__RootTagE,"dr"
	.linkonce same_size
	.align 32
_ZTSN8Palmtree4Math4Core8Internal14ResourceHolder9__RootTagE:
	.ascii "N8Palmtree4Math4Core8Internal14ResourceHolder9__RootTagE\0"
	.globl	_ZTIN8Palmtree4Math4Core8Internal14ResourceHolder16__ChainBufferTagE
	.section	.rdata$_ZTIN8Palmtree4Math4Core8Internal14ResourceHolder16__ChainBufferTagE,"dr"
	.linkonce same_size
	.align 8
_ZTIN8Palmtree4Math4Core8Internal14ResourceHolder16__ChainBufferTagE:
	.quad	_ZTVN10__cxxabiv117__class_type_infoE+16
	.quad	_ZTSN8Palmtree4Math4Core8Internal14ResourceHolder16__ChainBufferTagE
	.globl	_ZTSN8Palmtree4Math4Core8Internal14ResourceHolder16__ChainBufferTagE
	.section	.rdata$_ZTSN8Palmtree4Math4Core8Internal14ResourceHolder16__ChainBufferTagE,"dr"
	.linkonce same_size
	.align 32
_ZTSN8Palmtree4Math4Core8Internal14ResourceHolder16__ChainBufferTagE:
	.ascii "N8Palmtree4Math4Core8Internal14ResourceHolder16__ChainBufferTagE\0"
	.globl	_ZTIN8Palmtree4Math4Core8Internal18BadBufferExceptionE
	.section	.rdata$_ZTIN8Palmtree4Math4Core8Internal18BadBufferExceptionE,"dr"
	.linkonce same_size
	.align 8
_ZTIN8Palmtree4Math4Core8Internal18BadBufferExceptionE:
	.quad	_ZTVN10__cxxabiv120__si_class_type_infoE+16
	.quad	_ZTSN8Palmtree4Math4Core8Internal18BadBufferExceptionE
	.quad	_ZTIN8Palmtree4Math4Core8Internal9ExceptionE
	.globl	_ZTSN8Palmtree4Math4Core8Internal18BadBufferExceptionE
	.section	.rdata$_ZTSN8Palmtree4Math4Core8Internal18BadBufferExceptionE,"dr"
	.linkonce same_size
	.align 32
_ZTSN8Palmtree4Math4Core8Internal18BadBufferExceptionE:
	.ascii "N8Palmtree4Math4Core8Internal18BadBufferExceptionE\0"
	.globl	_ZTIN8Palmtree4Math4Core8Internal22InternalErrorExceptionE
	.section	.rdata$_ZTIN8Palmtree4Math4Core8Internal22InternalErrorExceptionE,"dr"
	.linkonce same_size
	.align 8
_ZTIN8Palmtree4Math4Core8Internal22InternalErrorExceptionE:
	.quad	_ZTVN10__cxxabiv120__si_class_type_infoE+16
	.quad	_ZTSN8Palmtree4Math4Core8Internal22InternalErrorExceptionE
	.quad	_ZTIN8Palmtree4Math4Core8Internal9ExceptionE
	.globl	_ZTSN8Palmtree4Math4Core8Internal22InternalErrorExceptionE
	.section	.rdata$_ZTSN8Palmtree4Math4Core8Internal22InternalErrorExceptionE,"dr"
	.linkonce same_size
	.align 32
_ZTSN8Palmtree4Math4Core8Internal22InternalErrorExceptionE:
	.ascii "N8Palmtree4Math4Core8Internal22InternalErrorExceptionE\0"
	.globl	_ZTIN8Palmtree4Math4Core8Internal24NotEnoughMemoryExceptionE
	.section	.rdata$_ZTIN8Palmtree4Math4Core8Internal24NotEnoughMemoryExceptionE,"dr"
	.linkonce same_size
	.align 8
_ZTIN8Palmtree4Math4Core8Internal24NotEnoughMemoryExceptionE:
	.quad	_ZTVN10__cxxabiv120__si_class_type_infoE+16
	.quad	_ZTSN8Palmtree4Math4Core8Internal24NotEnoughMemoryExceptionE
	.quad	_ZTIN8Palmtree4Math4Core8Internal9ExceptionE
	.globl	_ZTSN8Palmtree4Math4Core8Internal24NotEnoughMemoryExceptionE
	.section	.rdata$_ZTSN8Palmtree4Math4Core8Internal24NotEnoughMemoryExceptionE,"dr"
	.linkonce same_size
	.align 32
_ZTSN8Palmtree4Math4Core8Internal24NotEnoughMemoryExceptionE:
	.ascii "N8Palmtree4Math4Core8Internal24NotEnoughMemoryExceptionE\0"
	.globl	_ZTIN8Palmtree4Math4Core8Internal21ArgumentNullExceptionE
	.section	.rdata$_ZTIN8Palmtree4Math4Core8Internal21ArgumentNullExceptionE,"dr"
	.linkonce same_size
	.align 8
_ZTIN8Palmtree4Math4Core8Internal21ArgumentNullExceptionE:
	.quad	_ZTVN10__cxxabiv120__si_class_type_infoE+16
	.quad	_ZTSN8Palmtree4Math4Core8Internal21ArgumentNullExceptionE
	.quad	_ZTIN8Palmtree4Math4Core8Internal9ExceptionE
	.globl	_ZTSN8Palmtree4Math4Core8Internal21ArgumentNullExceptionE
	.section	.rdata$_ZTSN8Palmtree4Math4Core8Internal21ArgumentNullExceptionE,"dr"
	.linkonce same_size
	.align 32
_ZTSN8Palmtree4Math4Core8Internal21ArgumentNullExceptionE:
	.ascii "N8Palmtree4Math4Core8Internal21ArgumentNullExceptionE\0"
	.globl	_ZTIN8Palmtree4Math4Core8Internal17ArgumentExceptionE
	.section	.rdata$_ZTIN8Palmtree4Math4Core8Internal17ArgumentExceptionE,"dr"
	.linkonce same_size
	.align 8
_ZTIN8Palmtree4Math4Core8Internal17ArgumentExceptionE:
	.quad	_ZTVN10__cxxabiv120__si_class_type_infoE+16
	.quad	_ZTSN8Palmtree4Math4Core8Internal17ArgumentExceptionE
	.quad	_ZTIN8Palmtree4Math4Core8Internal9ExceptionE
	.globl	_ZTSN8Palmtree4Math4Core8Internal17ArgumentExceptionE
	.section	.rdata$_ZTSN8Palmtree4Math4Core8Internal17ArgumentExceptionE,"dr"
	.linkonce same_size
	.align 32
_ZTSN8Palmtree4Math4Core8Internal17ArgumentExceptionE:
	.ascii "N8Palmtree4Math4Core8Internal17ArgumentExceptionE\0"
	.globl	_ZTIN8Palmtree4Math4Core8Internal9ExceptionE
	.section	.rdata$_ZTIN8Palmtree4Math4Core8Internal9ExceptionE,"dr"
	.linkonce same_size
	.align 8
_ZTIN8Palmtree4Math4Core8Internal9ExceptionE:
	.quad	_ZTVN10__cxxabiv121__vmi_class_type_infoE+16
	.quad	_ZTSN8Palmtree4Math4Core8Internal9ExceptionE
	.long	0
	.long	1
	.quad	_ZTISt9exception
	.quad	0
	.globl	_ZTSN8Palmtree4Math4Core8Internal9ExceptionE
	.section	.rdata$_ZTSN8Palmtree4Math4Core8Internal9ExceptionE,"dr"
	.linkonce same_size
	.align 32
_ZTSN8Palmtree4Math4Core8Internal9ExceptionE:
	.ascii "N8Palmtree4Math4Core8Internal9ExceptionE\0"
	.globl	_ZTISt9exception
	.section	.rdata$_ZTISt9exception,"dr"
	.linkonce same_size
	.align 8
_ZTISt9exception:
	.quad	_ZTVN10__cxxabiv117__class_type_infoE+16
	.quad	_ZTSSt9exception
	.globl	_ZTSSt9exception
	.section	.rdata$_ZTSSt9exception,"dr"
	.linkonce same_size
	.align 8
_ZTSSt9exception:
	.ascii "St9exception\0"
	.text
.Letext0:
	.file 8 "C:/GNU/MINGW64/x86_64-8.1.0-win32-seh-rt_v6-rev0/mingw64/x86_64-w64-mingw32/include/crtdefs.h"
	.file 9 "C:/GNU/MINGW64/x86_64-8.1.0-win32-seh-rt_v6-rev0/mingw64/x86_64-w64-mingw32/include/excpt.h"
	.file 10 "C:/GNU/MINGW64/x86_64-8.1.0-win32-seh-rt_v6-rev0/mingw64/x86_64-w64-mingw32/include/minwindef.h"
	.file 11 "C:/GNU/MINGW64/x86_64-8.1.0-win32-seh-rt_v6-rev0/mingw64/x86_64-w64-mingw32/include/ctype.h"
	.file 12 "C:/GNU/MINGW64/x86_64-8.1.0-win32-seh-rt_v6-rev0/mingw64/x86_64-w64-mingw32/include/basetsd.h"
	.file 13 "C:/GNU/MINGW64/x86_64-8.1.0-win32-seh-rt_v6-rev0/mingw64/x86_64-w64-mingw32/include/winnt.h"
	.file 14 "C:/GNU/MINGW64/x86_64-8.1.0-win32-seh-rt_v6-rev0/mingw64/x86_64-w64-mingw32/include/guiddef.h"
	.file 15 "C:/GNU/MINGW64/x86_64-8.1.0-win32-seh-rt_v6-rev0/mingw64/lib/gcc/x86_64-w64-mingw32/8.1.0/include/c++/cstdlib"
	.file 16 "C:/GNU/MINGW64/x86_64-8.1.0-win32-seh-rt_v6-rev0/mingw64/lib/gcc/x86_64-w64-mingw32/8.1.0/include/c++/bits/std_abs.h"
	.file 17 "C:/GNU/MINGW64/x86_64-8.1.0-win32-seh-rt_v6-rev0/mingw64/lib/gcc/x86_64-w64-mingw32/8.1.0/include/c++/bits/exception_ptr.h"
	.file 18 "C:/GNU/MINGW64/x86_64-8.1.0-win32-seh-rt_v6-rev0/mingw64/lib/gcc/x86_64-w64-mingw32/8.1.0/include/c++/new"
	.file 19 "C:/GNU/MINGW64/x86_64-8.1.0-win32-seh-rt_v6-rev0/mingw64/lib/gcc/x86_64-w64-mingw32/8.1.0/include/c++/x86_64-w64-mingw32/bits/c++config.h"
	.file 20 "C:/GNU/MINGW64/x86_64-8.1.0-win32-seh-rt_v6-rev0/mingw64/lib/gcc/x86_64-w64-mingw32/8.1.0/include/c++/type_traits"
	.file 21 "C:/GNU/MINGW64/x86_64-8.1.0-win32-seh-rt_v6-rev0/mingw64/x86_64-w64-mingw32/include/stdlib.h"
	.file 22 "C:/GNU/MINGW64/x86_64-8.1.0-win32-seh-rt_v6-rev0/mingw64/x86_64-w64-mingw32/include/malloc.h"
	.file 23 "C:/GNU/MINGW64/x86_64-8.1.0-win32-seh-rt_v6-rev0/mingw64/lib/gcc/x86_64-w64-mingw32/8.1.0/include/c++/stdlib.h"
	.file 24 "C:/GNU/MINGW64/x86_64-8.1.0-win32-seh-rt_v6-rev0/mingw64/x86_64-w64-mingw32/include/minwinbase.h"
	.file 25 "C:/GNU/MINGW64/x86_64-8.1.0-win32-seh-rt_v6-rev0/mingw64/x86_64-w64-mingw32/include/rpcdce.h"
	.file 26 "C:/GNU/MINGW64/x86_64-8.1.0-win32-seh-rt_v6-rev0/mingw64/x86_64-w64-mingw32/include/wtypesbase.h"
