	.file	"pmc_subtruct.cpp"
	.text
	.section	.text$_ZN8Palmtree4Math4Core8Internal9ExceptionD1Ev,"x"
	.linkonce discard
	.align 2
	.p2align 4,,15
	.globl	__ZN8Palmtree4Math4Core8Internal9ExceptionD1Ev
	.def	__ZN8Palmtree4Math4Core8Internal9ExceptionD1Ev;	.scl	2;	.type	32;	.endef
__ZN8Palmtree4Math4Core8Internal9ExceptionD1Ev:
LFB617:
	.cfi_startproc
	movl	$__ZTVN8Palmtree4Math4Core8Internal9ExceptionE+8, (%ecx)
	jmp	__ZNSt9exceptionD2Ev
	.cfi_endproc
LFE617:
	.section	.text$_ZN8Palmtree4Math4Core8Internal9ExceptionD0Ev,"x"
	.linkonce discard
	.align 2
	.p2align 4,,15
	.globl	__ZN8Palmtree4Math4Core8Internal9ExceptionD0Ev
	.def	__ZN8Palmtree4Math4Core8Internal9ExceptionD0Ev;	.scl	2;	.type	32;	.endef
__ZN8Palmtree4Math4Core8Internal9ExceptionD0Ev:
LFB618:
	.cfi_startproc
	pushl	%ebx
	.cfi_def_cfa_offset 8
	.cfi_offset 3, -8
	movl	%ecx, %ebx
	subl	$24, %esp
	.cfi_def_cfa_offset 32
	movl	$__ZTVN8Palmtree4Math4Core8Internal9ExceptionE+8, (%ecx)
	call	__ZNSt9exceptionD2Ev
	movl	%ebx, (%esp)
	movl	$16, 4(%esp)
	call	__ZdlPvj
	addl	$24, %esp
	.cfi_def_cfa_offset 8
	popl	%ebx
	.cfi_restore 3
	.cfi_def_cfa_offset 4
	ret
	.cfi_endproc
LFE618:
	.section	.text$_ZN8Palmtree4Math4Core8Internal17OverflowExceptionD1Ev,"x"
	.linkonce discard
	.align 2
	.p2align 4,,15
	.globl	__ZN8Palmtree4Math4Core8Internal17OverflowExceptionD1Ev
	.def	__ZN8Palmtree4Math4Core8Internal17OverflowExceptionD1Ev;	.scl	2;	.type	32;	.endef
__ZN8Palmtree4Math4Core8Internal17OverflowExceptionD1Ev:
LFB660:
	.cfi_startproc
	movl	$__ZTVN8Palmtree4Math4Core8Internal9ExceptionE+8, (%ecx)
	jmp	__ZNSt9exceptionD2Ev
	.cfi_endproc
LFE660:
	.section	.text$_ZN8Palmtree4Math4Core8Internal17OverflowExceptionD0Ev,"x"
	.linkonce discard
	.align 2
	.p2align 4,,15
	.globl	__ZN8Palmtree4Math4Core8Internal17OverflowExceptionD0Ev
	.def	__ZN8Palmtree4Math4Core8Internal17OverflowExceptionD0Ev;	.scl	2;	.type	32;	.endef
__ZN8Palmtree4Math4Core8Internal17OverflowExceptionD0Ev:
LFB661:
	.cfi_startproc
	pushl	%ebx
	.cfi_def_cfa_offset 8
	.cfi_offset 3, -8
	movl	%ecx, %ebx
	subl	$24, %esp
	.cfi_def_cfa_offset 32
	movl	$__ZTVN8Palmtree4Math4Core8Internal9ExceptionE+8, (%ecx)
	call	__ZNSt9exceptionD2Ev
	movl	%ebx, (%esp)
	movl	$16, 4(%esp)
	call	__ZdlPvj
	addl	$24, %esp
	.cfi_def_cfa_offset 8
	popl	%ebx
	.cfi_restore 3
	.cfi_def_cfa_offset 4
	ret
	.cfi_endproc
LFE661:
	.section	.text$_ZN8Palmtree4Math4Core8Internal21ArgumentNullExceptionD1Ev,"x"
	.linkonce discard
	.align 2
	.p2align 4,,15
	.globl	__ZN8Palmtree4Math4Core8Internal21ArgumentNullExceptionD1Ev
	.def	__ZN8Palmtree4Math4Core8Internal21ArgumentNullExceptionD1Ev;	.scl	2;	.type	32;	.endef
__ZN8Palmtree4Math4Core8Internal21ArgumentNullExceptionD1Ev:
LFB640:
	.cfi_startproc
	movl	$__ZTVN8Palmtree4Math4Core8Internal9ExceptionE+8, (%ecx)
	jmp	__ZNSt9exceptionD2Ev
	.cfi_endproc
LFE640:
	.section	.text$_ZN8Palmtree4Math4Core8Internal21ArgumentNullExceptionD0Ev,"x"
	.linkonce discard
	.align 2
	.p2align 4,,15
	.globl	__ZN8Palmtree4Math4Core8Internal21ArgumentNullExceptionD0Ev
	.def	__ZN8Palmtree4Math4Core8Internal21ArgumentNullExceptionD0Ev;	.scl	2;	.type	32;	.endef
__ZN8Palmtree4Math4Core8Internal21ArgumentNullExceptionD0Ev:
LFB641:
	.cfi_startproc
	pushl	%ebx
	.cfi_def_cfa_offset 8
	.cfi_offset 3, -8
	movl	%ecx, %ebx
	subl	$24, %esp
	.cfi_def_cfa_offset 32
	movl	$__ZTVN8Palmtree4Math4Core8Internal9ExceptionE+8, (%ecx)
	call	__ZNSt9exceptionD2Ev
	movl	%ebx, (%esp)
	movl	$16, 4(%esp)
	call	__ZdlPvj
	addl	$24, %esp
	.cfi_def_cfa_offset 8
	popl	%ebx
	.cfi_restore 3
	.cfi_def_cfa_offset 4
	ret
	.cfi_endproc
LFE641:
	.section .rdata,"dr"
	.align 4
LC0:
	.ascii "\33n\227{k0\210"
	.ascii "0\212"
	.ascii "0\252"
	.ascii "0\374"
	.ascii "0\320"
	.ascii "0\374"
	.ascii "0\325"
	.ascii "0\355"
	.ascii "0\374"
	.ascii "0L0zv\37uW0~0W0_0\2"
	.ascii "0\0\0"
	.text
	.p2align 4,,15
	.def	__ZN8Palmtree4Math4Core8InternalL8DoBorrowEcPjjS3_j.constprop.1;	.scl	3;	.type	32;	.endef
__ZN8Palmtree4Math4Core8InternalL8DoBorrowEcPjjS3_j.constprop.1:
LFB6214:
	.cfi_startproc
	pushl	%ebp
	.cfi_def_cfa_offset 8
	.cfi_offset 5, -8
	pushl	%edi
	.cfi_def_cfa_offset 12
	.cfi_offset 7, -12
	pushl	%esi
	.cfi_def_cfa_offset 16
	.cfi_offset 6, -16
	movl	%edx, %esi
	movl	%eax, %edx
	pushl	%ebx
	.cfi_def_cfa_offset 20
	.cfi_offset 3, -20
	subl	$28, %esp
	.cfi_def_cfa_offset 48
	movl	48(%esp), %ebx
	testl	%ecx, %ecx
	je	L12
	xorl	%ebp, %ebp
	movl	%ebx, %edi
	testb	%al, %al
	jne	L13
	jmp	L17
	.p2align 4,,10
L32:
	movl	%edi, %ebx
	testb	%dl, %dl
	je	L17
L13:
	addl	$4, %esi
	movl	-4(%esi), %eax
	addb	$-1, %dl
	leal	4(%ebx), %edi
	sbbl	%ebp, %eax
	movl	%eax, (%ebx)
	setc	%dl
	subl	$1, %ecx
	jne	L32
L12:
	testb	%dl, %dl
	jne	L35
L11:
	addl	$28, %esp
	.cfi_remember_state
	.cfi_def_cfa_offset 20
	popl	%ebx
	.cfi_restore 3
	.cfi_def_cfa_offset 16
	popl	%esi
	.cfi_restore 6
	.cfi_def_cfa_offset 12
	popl	%edi
	.cfi_restore 7
	.cfi_def_cfa_offset 8
	popl	%ebp
	.cfi_restore 5
	.cfi_def_cfa_offset 4
	ret
	.p2align 4,,10
L17:
	.cfi_restore_state
	movsl
	subl	$1, %ecx
	je	L11
	movsl
	subl	$1, %ecx
	jne	L17
	jmp	L11
L35:
	movl	$16, (%esp)
	call	___cxa_allocate_exception
	movl	$-4, 4(%eax)
	movl	$LC0, 8(%eax)
	movl	$0, 12(%eax)
	movl	$__ZTVN8Palmtree4Math4Core8Internal17OverflowExceptionE+8, (%eax)
	movl	$__ZN8Palmtree4Math4Core8Internal17OverflowExceptionD1Ev, 8(%esp)
	movl	$__ZTIN8Palmtree4Math4Core8Internal17OverflowExceptionE, 4(%esp)
	movl	%eax, (%esp)
	call	___cxa_throw
	.cfi_endproc
LFE6214:
	.p2align 4,,15
	.globl	__ZN8Palmtree4Math4Core8Internal12Subtruct_ImpEPjjS3_jS3_j
	.def	__ZN8Palmtree4Math4Core8Internal12Subtruct_ImpEPjjS3_jS3_j;	.scl	2;	.type	32;	.endef
__ZN8Palmtree4Math4Core8Internal12Subtruct_ImpEPjjS3_jS3_j:
LFB6203:
	.cfi_startproc
	pushl	%ebp
	.cfi_def_cfa_offset 8
	.cfi_offset 5, -8
	pushl	%edi
	.cfi_def_cfa_offset 12
	.cfi_offset 7, -12
	pushl	%esi
	.cfi_def_cfa_offset 16
	.cfi_offset 6, -16
	pushl	%ebx
	.cfi_def_cfa_offset 20
	.cfi_offset 3, -20
	subl	$44, %esp
	.cfi_def_cfa_offset 64
	movl	68(%esp), %eax
	movl	64(%esp), %esi
	movl	72(%esp), %edi
	movl	80(%esp), %ebp
	movl	%eax, 24(%esp)
	movl	76(%esp), %eax
	movl	%esi, 8(%esp)
	movl	%eax, 16(%esp)
	shrl	$5, %eax
	movl	%edi, 20(%esp)
	movl	%ebp, 12(%esp)
	movl	%eax, 28(%esp)
	je	L44
	movl	%esi, (%esp)
	movl	%eax, 4(%esp)
	xorl	%eax, %eax
	.p2align 4,,10
L38:
	movl	(%esp), %edx
	movl	%edi, %ebx
	movl	%ebp, %esi
/APP
 # 938 "../autogenerated_inline_func.h" 1
	addb	$-1, %al
	movl	(%edx), %ecx
	sbbl	(%ebx), %ecx
	movl	%ecx, (%esi)
	movl	4(%edx), %ecx
	sbbl	4(%ebx), %ecx
	movl	%ecx, 4(%esi)
	movl	8(%edx), %ecx
	sbbl	8(%ebx), %ecx
	movl	%ecx, 8(%esi)
	movl	12(%edx), %ecx
	sbbl	12(%ebx), %ecx
	movl	%ecx, 12(%esi)
	movl	16(%edx), %ecx
	sbbl	16(%ebx), %ecx
	movl	%ecx, 16(%esi)
	movl	20(%edx), %ecx
	sbbl	20(%ebx), %ecx
	movl	%ecx, 20(%esi)
	movl	24(%edx), %ecx
	sbbl	24(%ebx), %ecx
	movl	%ecx, 24(%esi)
	movl	28(%edx), %ecx
	sbbl	28(%ebx), %ecx
	movl	%ecx, 28(%esi)
	movl	32(%edx), %ecx
	sbbl	32(%ebx), %ecx
	movl	%ecx, 32(%esi)
	movl	36(%edx), %ecx
	sbbl	36(%ebx), %ecx
	movl	%ecx, 36(%esi)
	movl	40(%edx), %ecx
	sbbl	40(%ebx), %ecx
	movl	%ecx, 40(%esi)
	movl	44(%edx), %ecx
	sbbl	44(%ebx), %ecx
	movl	%ecx, 44(%esi)
	movl	48(%edx), %ecx
	sbbl	48(%ebx), %ecx
	movl	%ecx, 48(%esi)
	movl	52(%edx), %ecx
	sbbl	52(%ebx), %ecx
	movl	%ecx, 52(%esi)
	movl	56(%edx), %ecx
	sbbl	56(%ebx), %ecx
	movl	%ecx, 56(%esi)
	movl	60(%edx), %ecx
	sbbl	60(%ebx), %ecx
	movl	%ecx, 60(%esi)
	movl	64(%edx), %ecx
	sbbl	64(%ebx), %ecx
	movl	%ecx, 64(%esi)
	movl	68(%edx), %ecx
	sbbl	68(%ebx), %ecx
	movl	%ecx, 68(%esi)
	movl	72(%edx), %ecx
	sbbl	72(%ebx), %ecx
	movl	%ecx, 72(%esi)
	movl	76(%edx), %ecx
	sbbl	76(%ebx), %ecx
	movl	%ecx, 76(%esi)
	movl	80(%edx), %ecx
	sbbl	80(%ebx), %ecx
	movl	%ecx, 80(%esi)
	movl	84(%edx), %ecx
	sbbl	84(%ebx), %ecx
	movl	%ecx, 84(%esi)
	movl	88(%edx), %ecx
	sbbl	88(%ebx), %ecx
	movl	%ecx, 88(%esi)
	movl	92(%edx), %ecx
	sbbl	92(%ebx), %ecx
	movl	%ecx, 92(%esi)
	movl	96(%edx), %ecx
	sbbl	96(%ebx), %ecx
	movl	%ecx, 96(%esi)
	movl	100(%edx), %ecx
	sbbl	100(%ebx), %ecx
	movl	%ecx, 100(%esi)
	movl	104(%edx), %ecx
	sbbl	104(%ebx), %ecx
	movl	%ecx, 104(%esi)
	movl	108(%edx), %ecx
	sbbl	108(%ebx), %ecx
	movl	%ecx, 108(%esi)
	movl	112(%edx), %ecx
	sbbl	112(%ebx), %ecx
	movl	%ecx, 112(%esi)
	movl	116(%edx), %ecx
	sbbl	116(%ebx), %ecx
	movl	%ecx, 116(%esi)
	movl	120(%edx), %ecx
	sbbl	120(%ebx), %ecx
	movl	%ecx, 120(%esi)
	movl	124(%edx), %ecx
	sbbl	124(%ebx), %ecx
	movl	%ecx, 124(%esi)
	setc	%al
 # 0 "" 2
/NO_APP
	subl	$-128, (%esp)
	subl	$-128, %edi
	subl	$-128, %ebp
	subl	$1, 4(%esp)
	jne	L38
	movl	28(%esp), %edx
	sall	$7, %edx
	addl	%edx, 8(%esp)
	addl	%edx, 20(%esp)
	addl	%edx, 12(%esp)
L37:
	testb	$16, 16(%esp)
	jne	L62
	testb	$8, 16(%esp)
	jne	L63
L40:
	testb	$4, 16(%esp)
	je	L41
	movl	8(%esp), %edi
	movl	20(%esp), %ebp
	movl	12(%esp), %esi
	movl	%edi, %edx
	movl	%ebp, %ebx
/APP
 # 2154 "../autogenerated_inline_func.h" 1
	addb	$-1, %al
	movl	(%edx), %ecx
	sbbl	(%ebx), %ecx
	movl	%ecx, (%esi)
	movl	4(%edx), %ecx
	sbbl	4(%ebx), %ecx
	movl	%ecx, 4(%esi)
	movl	8(%edx), %ecx
	sbbl	8(%ebx), %ecx
	movl	%ecx, 8(%esi)
	movl	12(%edx), %ecx
	sbbl	12(%ebx), %ecx
	movl	%ecx, 12(%esi)
	setc	%al
 # 0 "" 2
/NO_APP
	addl	$16, %edi
	addl	$16, %ebp
	addl	$16, 12(%esp)
	movl	%edi, 8(%esp)
	movl	%ebp, 20(%esp)
L41:
	testb	$2, 16(%esp)
	je	L42
	movl	8(%esp), %edi
	movl	20(%esp), %ebp
	movl	12(%esp), %esi
	movl	%edi, %edx
	movl	%ebp, %ebx
/APP
 # 2332 "../autogenerated_inline_func.h" 1
	addb	$-1, %al
	movl	(%edx), %ecx
	sbbl	(%ebx), %ecx
	movl	%ecx, (%esi)
	movl	4(%edx), %ecx
	sbbl	4(%ebx), %ecx
	movl	%ecx, 4(%esi)
	setc	%al
 # 0 "" 2
/NO_APP
	addl	$8, %edi
	addl	$8, %ebp
	addl	$8, 12(%esp)
	movl	%edi, 8(%esp)
	movl	%ebp, 20(%esp)
L42:
	testb	$1, 16(%esp)
	je	L43
	movl	8(%esp), %esi
	movl	20(%esp), %ecx
	addb	$-1, %al
	movl	(%ecx), %ecx
	movl	(%esi), %edx
	sbbl	%ecx, %edx
	movl	12(%esp), %ecx
	setc	%al
	movl	%edx, (%ecx)
	leal	4(%ecx), %edx
	movl	%edx, 12(%esp)
	leal	4(%esi), %edx
	movl	%edx, 8(%esp)
L43:
	movl	12(%esp), %edx
	movl	24(%esp), %ecx
	movsbl	%al, %eax
	subl	16(%esp), %ecx
	movl	%edx, 64(%esp)
	movl	8(%esp), %edx
	addl	$44, %esp
	.cfi_remember_state
	.cfi_def_cfa_offset 20
	popl	%ebx
	.cfi_restore 3
	.cfi_def_cfa_offset 16
	popl	%esi
	.cfi_restore 6
	.cfi_def_cfa_offset 12
	popl	%edi
	.cfi_restore 7
	.cfi_def_cfa_offset 8
	popl	%ebp
	.cfi_restore 5
	.cfi_def_cfa_offset 4
	jmp	__ZN8Palmtree4Math4Core8InternalL8DoBorrowEcPjjS3_j.constprop.1
	.p2align 4,,10
L62:
	.cfi_restore_state
	movl	8(%esp), %edi
	movl	20(%esp), %ebp
	movl	12(%esp), %esi
	movl	%edi, %edx
	movl	%ebp, %ebx
/APP
 # 1550 "../autogenerated_inline_func.h" 1
	addb	$-1, %al
	movl	(%edx), %ecx
	sbbl	(%ebx), %ecx
	movl	%ecx, (%esi)
	movl	4(%edx), %ecx
	sbbl	4(%ebx), %ecx
	movl	%ecx, 4(%esi)
	movl	8(%edx), %ecx
	sbbl	8(%ebx), %ecx
	movl	%ecx, 8(%esi)
	movl	12(%edx), %ecx
	sbbl	12(%ebx), %ecx
	movl	%ecx, 12(%esi)
	movl	16(%edx), %ecx
	sbbl	16(%ebx), %ecx
	movl	%ecx, 16(%esi)
	movl	20(%edx), %ecx
	sbbl	20(%ebx), %ecx
	movl	%ecx, 20(%esi)
	movl	24(%edx), %ecx
	sbbl	24(%ebx), %ecx
	movl	%ecx, 24(%esi)
	movl	28(%edx), %ecx
	sbbl	28(%ebx), %ecx
	movl	%ecx, 28(%esi)
	movl	32(%edx), %ecx
	sbbl	32(%ebx), %ecx
	movl	%ecx, 32(%esi)
	movl	36(%edx), %ecx
	sbbl	36(%ebx), %ecx
	movl	%ecx, 36(%esi)
	movl	40(%edx), %ecx
	sbbl	40(%ebx), %ecx
	movl	%ecx, 40(%esi)
	movl	44(%edx), %ecx
	sbbl	44(%ebx), %ecx
	movl	%ecx, 44(%esi)
	movl	48(%edx), %ecx
	sbbl	48(%ebx), %ecx
	movl	%ecx, 48(%esi)
	movl	52(%edx), %ecx
	sbbl	52(%ebx), %ecx
	movl	%ecx, 52(%esi)
	movl	56(%edx), %ecx
	sbbl	56(%ebx), %ecx
	movl	%ecx, 56(%esi)
	movl	60(%edx), %ecx
	sbbl	60(%ebx), %ecx
	movl	%ecx, 60(%esi)
	setc	%al
 # 0 "" 2
/NO_APP
	addl	$64, %edi
	addl	$64, %ebp
	addl	$64, 12(%esp)
	movl	%edi, 8(%esp)
	movl	%ebp, 20(%esp)
	testb	$8, 16(%esp)
	je	L40
L63:
	movl	8(%esp), %edi
	movl	20(%esp), %ebp
	movl	12(%esp), %esi
	movl	%edi, %edx
	movl	%ebp, %ebx
/APP
 # 1914 "../autogenerated_inline_func.h" 1
	addb	$-1, %al
	movl	(%edx), %ecx
	sbbl	(%ebx), %ecx
	movl	%ecx, (%esi)
	movl	4(%edx), %ecx
	sbbl	4(%ebx), %ecx
	movl	%ecx, 4(%esi)
	movl	8(%edx), %ecx
	sbbl	8(%ebx), %ecx
	movl	%ecx, 8(%esi)
	movl	12(%edx), %ecx
	sbbl	12(%ebx), %ecx
	movl	%ecx, 12(%esi)
	movl	16(%edx), %ecx
	sbbl	16(%ebx), %ecx
	movl	%ecx, 16(%esi)
	movl	20(%edx), %ecx
	sbbl	20(%ebx), %ecx
	movl	%ecx, 20(%esi)
	movl	24(%edx), %ecx
	sbbl	24(%ebx), %ecx
	movl	%ecx, 24(%esi)
	movl	28(%edx), %ecx
	sbbl	28(%ebx), %ecx
	movl	%ecx, 28(%esi)
	setc	%al
 # 0 "" 2
/NO_APP
	addl	$32, %edi
	addl	$32, %ebp
	addl	$32, 12(%esp)
	movl	%edi, 8(%esp)
	movl	%ebp, 20(%esp)
	jmp	L40
	.p2align 4,,10
L44:
	xorl	%eax, %eax
	jmp	L37
	.cfi_endproc
LFE6203:
	.section .rdata,"dr"
	.align 4
LC1:
	.ascii "\25_pek0n\0u\0l\0l\0p\0t\0r\0L0\16NH0\211"
	.ascii "0\214"
	.ascii "0f0D0~0Y0\2"
	.ascii "0\0\0"
	.align 2
LC2:
	.ascii "v\0\0\0"
	.text
	.p2align 4,,15
	.globl	__ZN8Palmtree4Math4Core8Internal16PMC_Subtruct_I_XEjPNS2_21__tag_PMC_HANDLE_UINTE@8
	.def	__ZN8Palmtree4Math4Core8Internal16PMC_Subtruct_I_XEjPNS2_21__tag_PMC_HANDLE_UINTE@8;	.scl	2;	.type	32;	.endef
__ZN8Palmtree4Math4Core8Internal16PMC_Subtruct_I_XEjPNS2_21__tag_PMC_HANDLE_UINTE@8:
LFB6204:
	.cfi_startproc
	pushl	%esi
	.cfi_def_cfa_offset 8
	.cfi_offset 6, -8
	pushl	%ebx
	.cfi_def_cfa_offset 12
	.cfi_offset 3, -12
	subl	$36, %esp
	.cfi_def_cfa_offset 48
	movl	52(%esp), %esi
	movl	48(%esp), %ebx
	testl	%esi, %esi
	je	L73
	movl	%esi, (%esp)
	call	__ZN8Palmtree4Math4Core8Internal11CheckNumberEPNS2_19__tag_NUMBER_HEADERE
	testl	%ebx, %ebx
	je	L74
	testb	$1, 4(%esi)
	jne	L67
/APP
 # 428 "../pmc_inline_func.h" 1
	bsrl %ebx, %eax
 # 0 "" 2
/NO_APP
	addl	$1, %eax
	cmpl	20(%esi), %eax
	jb	L72
	movl	36(%esi), %eax
	subl	(%eax), %ebx
	movl	%ebx, 28(%esp)
	jb	L72
L67:
	addl	$36, %esp
	.cfi_remember_state
	.cfi_def_cfa_offset 12
	movl	%ebx, %eax
	popl	%ebx
	.cfi_restore 3
	.cfi_def_cfa_offset 8
	popl	%esi
	.cfi_restore 6
	.cfi_def_cfa_offset 4
	ret	$8
	.p2align 4,,10
L74:
	.cfi_restore_state
	testb	$1, 4(%esi)
	jne	L67
L72:
	movl	$16, (%esp)
	call	___cxa_allocate_exception
	movl	$-4, 4(%eax)
	movl	$LC0, 8(%eax)
	movl	$0, 12(%eax)
	movl	$__ZTVN8Palmtree4Math4Core8Internal17OverflowExceptionE+8, (%eax)
	movl	$__ZN8Palmtree4Math4Core8Internal17OverflowExceptionD1Ev, 8(%esp)
	movl	$__ZTIN8Palmtree4Math4Core8Internal17OverflowExceptionE, 4(%esp)
	movl	%eax, (%esp)
	call	___cxa_throw
L73:
	movl	$16, (%esp)
	call	___cxa_allocate_exception
	movl	$-2, 4(%eax)
	movl	$LC1, 8(%eax)
	movl	$LC2, 12(%eax)
	movl	$__ZTVN8Palmtree4Math4Core8Internal21ArgumentNullExceptionE+8, (%eax)
	movl	$__ZN8Palmtree4Math4Core8Internal21ArgumentNullExceptionD1Ev, 8(%esp)
	movl	$__ZTIN8Palmtree4Math4Core8Internal21ArgumentNullExceptionE, 4(%esp)
	movl	%eax, (%esp)
	call	___cxa_throw
	.cfi_endproc
LFE6204:
	.p2align 4,,15
	.globl	__ZN8Palmtree4Math4Core8Internal16PMC_Subtruct_L_XEyPNS2_21__tag_PMC_HANDLE_UINTE@12
	.def	__ZN8Palmtree4Math4Core8Internal16PMC_Subtruct_L_XEyPNS2_21__tag_PMC_HANDLE_UINTE@12;	.scl	2;	.type	32;	.endef
__ZN8Palmtree4Math4Core8Internal16PMC_Subtruct_L_XEyPNS2_21__tag_PMC_HANDLE_UINTE@12:
LFB6207:
	.cfi_startproc
	pushl	%ebp
	.cfi_def_cfa_offset 8
	.cfi_offset 5, -8
	pushl	%edi
	.cfi_def_cfa_offset 12
	.cfi_offset 7, -12
	pushl	%esi
	.cfi_def_cfa_offset 16
	.cfi_offset 6, -16
	pushl	%ebx
	.cfi_def_cfa_offset 20
	.cfi_offset 3, -20
	subl	$60, %esp
	.cfi_def_cfa_offset 80
	movl	88(%esp), %ebx
	movl	80(%esp), %eax
	movl	84(%esp), %edx
	testl	%ebx, %ebx
	je	L93
	movl	%ebx, (%esp)
	movl	%eax, 24(%esp)
	movl	%edx, 28(%esp)
	call	__ZN8Palmtree4Math4Core8Internal11CheckNumberEPNS2_19__tag_NUMBER_HEADERE
	movl	28(%esp), %edx
	movl	24(%esp), %eax
	movl	%edx, %ecx
	movl	%eax, %esi
	movl	%edx, 24(%esp)
	orl	%eax, %ecx
	jne	L77
	testb	$1, 4(%ebx)
	je	L92
L78:
	addl	$60, %esp
	.cfi_remember_state
	.cfi_def_cfa_offset 20
	popl	%ebx
	.cfi_restore 3
	.cfi_def_cfa_offset 16
	popl	%esi
	.cfi_restore 6
	.cfi_def_cfa_offset 12
	popl	%edi
	.cfi_restore 7
	.cfi_def_cfa_offset 8
	popl	%ebp
	.cfi_restore 5
	.cfi_def_cfa_offset 4
	ret	$12
	.p2align 4,,10
L77:
	.cfi_restore_state
	testb	$1, 4(%ebx)
	jne	L78
	movl	%eax, %edi
	movl	24(%esp), %eax
	movl	20(%ebx), %ebp
	testl	%eax, %eax
	jne	L79
	xorl	%eax, %eax
	testl	%esi, %esi
	je	L80
/APP
 # 428 "../pmc_inline_func.h" 1
	bsrl %esi, %eax
 # 0 "" 2
/NO_APP
	addl	$1, %eax
L80:
	cmpl	%eax, %ebp
	ja	L92
	movl	36(%ebx), %eax
	subl	(%eax), %edi
	movl	%edi, 44(%esp)
	jb	L92
	movl	44(%esp), %eax
	addl	$60, %esp
	.cfi_remember_state
	.cfi_def_cfa_offset 20
	xorl	%edx, %edx
	popl	%ebx
	.cfi_restore 3
	.cfi_def_cfa_offset 16
	popl	%esi
	.cfi_restore 6
	.cfi_def_cfa_offset 12
	popl	%edi
	.cfi_restore 7
	.cfi_def_cfa_offset 8
	popl	%ebp
	.cfi_restore 5
	.cfi_def_cfa_offset 4
	ret	$12
	.p2align 4,,10
L79:
	.cfi_restore_state
/APP
 # 428 "../pmc_inline_func.h" 1
	bsrl 24(%esp), %edi
 # 0 "" 2
/NO_APP
	addl	$33, %edi
	cmpl	%ebp, %edi
	jb	L92
	movl	36(%ebx), %edi
	subl	(%edi), %esi
	setb	%cl
	movl	%esi, 44(%esp)
	cmpl	$1, 16(%ebx)
	jbe	L94
	movl	4(%edi), %ebx
L90:
	addb	$-1, %cl
	movl	24(%esp), %ecx
	sbbl	%ebx, %ecx
	movl	%ecx, 40(%esp)
	setc	%cl
	testb	%cl, %cl
	jne	L92
	movl	44(%esp), %eax
	movl	40(%esp), %edx
	addl	$60, %esp
	.cfi_remember_state
	.cfi_def_cfa_offset 20
	popl	%ebx
	.cfi_restore 3
	.cfi_def_cfa_offset 16
	popl	%esi
	.cfi_restore 6
	.cfi_def_cfa_offset 12
	popl	%edi
	.cfi_restore 7
	.cfi_def_cfa_offset 8
	popl	%ebp
	.cfi_restore 5
	.cfi_def_cfa_offset 4
	ret	$12
	.p2align 4,,10
L94:
	.cfi_restore_state
	xorl	%ebx, %ebx
	jmp	L90
L92:
	movl	$16, (%esp)
	call	___cxa_allocate_exception
	movl	$-4, 4(%eax)
	movl	$LC0, 8(%eax)
	movl	$0, 12(%eax)
	movl	$__ZTVN8Palmtree4Math4Core8Internal17OverflowExceptionE+8, (%eax)
	movl	$__ZN8Palmtree4Math4Core8Internal17OverflowExceptionD1Ev, 8(%esp)
	movl	$__ZTIN8Palmtree4Math4Core8Internal17OverflowExceptionE, 4(%esp)
	movl	%eax, (%esp)
	call	___cxa_throw
L93:
	movl	$16, (%esp)
	call	___cxa_allocate_exception
	movl	$-2, 4(%eax)
	movl	$LC1, 8(%eax)
	movl	$LC2, 12(%eax)
	movl	$__ZTVN8Palmtree4Math4Core8Internal21ArgumentNullExceptionE+8, (%eax)
	movl	$__ZN8Palmtree4Math4Core8Internal21ArgumentNullExceptionD1Ev, 8(%esp)
	movl	$__ZTIN8Palmtree4Math4Core8Internal21ArgumentNullExceptionE, 4(%esp)
	movl	%eax, (%esp)
	call	___cxa_throw
	.cfi_endproc
LFE6207:
	.p2align 4,,15
	.globl	__ZN8Palmtree4Math4Core8Internal19Initialize_SubtructEPNS2_23_tag_PROCESSOR_FEATURESE
	.def	__ZN8Palmtree4Math4Core8Internal19Initialize_SubtructEPNS2_23_tag_PROCESSOR_FEATURESE;	.scl	2;	.type	32;	.endef
__ZN8Palmtree4Math4Core8Internal19Initialize_SubtructEPNS2_23_tag_PROCESSOR_FEATURESE:
LFB6212:
	.cfi_startproc
	xorl	%eax, %eax
	ret
	.cfi_endproc
LFE6212:
	.section .rdata,"dr"
	.align 2
LC3:
	.ascii "u\0\0\0"
	.section	.text.unlikely,"x"
LCOLDB4:
	.text
LHOTB4:
	.p2align 4,,15
	.globl	__ZN8Palmtree4Math4Core8Internal16PMC_Subtruct_X_IEPNS2_21__tag_PMC_HANDLE_UINTEj@8
	.def	__ZN8Palmtree4Math4Core8Internal16PMC_Subtruct_X_IEPNS2_21__tag_PMC_HANDLE_UINTEj@8;	.scl	2;	.type	32;	.endef
__ZN8Palmtree4Math4Core8Internal16PMC_Subtruct_X_IEPNS2_21__tag_PMC_HANDLE_UINTEj@8:
LFB6206:
	.cfi_startproc
	.cfi_personality 0,___gxx_personality_v0
	.cfi_lsda 0,LLSDA6206
	pushl	%ebp
	.cfi_def_cfa_offset 8
	.cfi_offset 5, -8
	movl	%esp, %ebp
	.cfi_def_cfa_register 5
	pushl	%edi
	pushl	%esi
	pushl	%ebx
	subl	$76, %esp
	.cfi_offset 7, -12
	.cfi_offset 6, -16
	.cfi_offset 3, -20
	movl	8(%ebp), %esi
	movl	12(%ebp), %edi
	testl	%esi, %esi
	je	L114
	movl	%esi, (%esp)
LEHB0:
	call	__ZN8Palmtree4Math4Core8Internal11CheckNumberEPNS2_19__tag_NUMBER_HEADERE
	leal	-56(%ebp), %ecx
	call	__ZN8Palmtree4Math4Core8Internal18ResourceHolderUINTC1Ev
LEHE0:
	testb	$1, 4(%esi)
	jne	L115
	testl	%edi, %edi
	je	L116
	movl	20(%esi), %ebx
/APP
 # 428 "../pmc_inline_func.h" 1
	bsrl %edi, %eax
 # 0 "" 2
/NO_APP
	addl	$1, %eax
	cmpl	%eax, %ebx
	jb	L117
	leal	-40(%ebp), %ecx
LEHB1:
	call	__ZN8Palmtree4Math4Core8Internal18ResourceHolderUINTC1Ev
LEHE1:
	movl	%ebx, (%esp)
	leal	-40(%ebp), %ecx
LEHB2:
	call	__ZN8Palmtree4Math4Core8Internal18ResourceHolderUINT14AllocateNumberEj
	movl	%eax, %ebx
	movl	36(%esi), %eax
	movl	16(%esi), %ecx
	subl	$4, %esp
	movl	36(%ebx), %edx
	leal	4(%edx), %esi
	leal	4(%eax), %edx
	movl	(%eax), %eax
	movl	%edx, -60(%ebp)
	subl	%edi, %eax
	movl	%eax, %edx
	setb	%al
	subl	$1, %ecx
	movl	%eax, %edi
	movl	36(%ebx), %eax
	movl	%edx, (%eax)
	movl	%edi, %eax
	movl	-60(%ebp), %edx
	movl	%esi, (%esp)
	movsbl	%al, %eax
	call	__ZN8Palmtree4Math4Core8InternalL8DoBorrowEcPjjS3_j.constprop.1
	movl	%ebx, (%esp)
	leal	-40(%ebp), %ecx
	call	__ZN8Palmtree4Math4Core8Internal18ResourceHolderUINT11CheckNumberEPNS2_19__tag_NUMBER_HEADERE
	subl	$4, %esp
	movl	%ebx, (%esp)
	call	__ZN8Palmtree4Math4Core8Internal12CommitNumberEPNS2_19__tag_NUMBER_HEADERE
	testb	$1, 4(%ebx)
	leal	-40(%ebp), %ecx
	movl	%ebx, (%esp)
	jne	L118
	call	__ZN8Palmtree4Math4Core8Internal18ResourceHolderUINT12UnlinkNumberEPNS2_19__tag_NUMBER_HEADERE
LEHE2:
	subl	$4, %esp
L103:
	leal	-40(%ebp), %ecx
	call	__ZN8Palmtree4Math4Core8Internal18ResourceHolderUINTD1Ev
	jmp	L99
	.p2align 4,,10
L115:
	testl	%edi, %edi
	jne	L119
	movl	$__ZN8Palmtree4Math4Core8Internal11number_zeroE, %ebx
L99:
	movl	%ebx, (%esp)
	leal	-56(%ebp), %ecx
LEHB3:
	call	__ZN8Palmtree4Math4Core8Internal18ResourceHolderUINT10HookNumberEPNS2_19__tag_NUMBER_HEADERE
	subl	$4, %esp
	leal	-56(%ebp), %ecx
	movl	%ebx, (%esp)
	call	__ZN8Palmtree4Math4Core8Internal18ResourceHolderUINT12UnlinkNumberEPNS2_19__tag_NUMBER_HEADERE
LEHE3:
	subl	$4, %esp
	leal	-56(%ebp), %ecx
	call	__ZN8Palmtree4Math4Core8Internal18ResourceHolderUINTD1Ev
	leal	-12(%ebp), %esp
	movl	%ebx, %eax
	popl	%ebx
	.cfi_remember_state
	.cfi_restore 3
	popl	%esi
	.cfi_restore 6
	popl	%edi
	.cfi_restore 7
	popl	%ebp
	.cfi_restore 5
	.cfi_def_cfa 4, 4
	ret	$8
	.p2align 4,,10
L118:
	.cfi_restore_state
LEHB4:
	call	__ZN8Palmtree4Math4Core8Internal18ResourceHolderUINT16DeallocateNumberEPNS2_19__tag_NUMBER_HEADERE
LEHE4:
	subl	$4, %esp
	movl	$__ZN8Palmtree4Math4Core8Internal11number_zeroE, %ebx
	jmp	L103
	.p2align 4,,10
L116:
	movl	%esi, (%esp)
LEHB5:
	call	__ZN8Palmtree4Math4Core8Internal15DuplicateNumberEPNS2_19__tag_NUMBER_HEADERE
LEHE5:
	movl	%eax, %ebx
	jmp	L99
L114:
	movl	$16, (%esp)
	call	___cxa_allocate_exception
	movl	$-2, 4(%eax)
	movl	$LC1, 8(%eax)
	movl	$LC3, 12(%eax)
	movl	$__ZTVN8Palmtree4Math4Core8Internal21ArgumentNullExceptionE+8, (%eax)
	movl	$__ZN8Palmtree4Math4Core8Internal21ArgumentNullExceptionD1Ev, 8(%esp)
	movl	$__ZTIN8Palmtree4Math4Core8Internal21ArgumentNullExceptionE, 4(%esp)
	movl	%eax, (%esp)
LEHB6:
	call	___cxa_throw
LEHE6:
L119:
	movl	$16, (%esp)
	call	___cxa_allocate_exception
	movl	$-4, 4(%eax)
	movl	$LC0, 8(%eax)
	movl	$0, 12(%eax)
	movl	$__ZTVN8Palmtree4Math4Core8Internal17OverflowExceptionE+8, (%eax)
	movl	$__ZN8Palmtree4Math4Core8Internal17OverflowExceptionD1Ev, 8(%esp)
	movl	$__ZTIN8Palmtree4Math4Core8Internal17OverflowExceptionE, 4(%esp)
	movl	%eax, (%esp)
LEHB7:
	call	___cxa_throw
L117:
	movl	$16, (%esp)
	call	___cxa_allocate_exception
	movl	$-4, 4(%eax)
	movl	$LC0, 8(%eax)
	movl	$0, 12(%eax)
	movl	$__ZTVN8Palmtree4Math4Core8Internal17OverflowExceptionE+8, (%eax)
	movl	$__ZN8Palmtree4Math4Core8Internal17OverflowExceptionD1Ev, 8(%esp)
	movl	$__ZTIN8Palmtree4Math4Core8Internal17OverflowExceptionE, 4(%esp)
	movl	%eax, (%esp)
	call	___cxa_throw
LEHE7:
L109:
	movl	%eax, %ebx
	jmp	L106
L110:
	movl	%eax, %ebx
	jmp	L105
	.def	___gxx_personality_v0;	.scl	2;	.type	32;	.endef
	.section	.gcc_except_table,"w"
LLSDA6206:
	.byte	0xff
	.byte	0xff
	.byte	0x1
	.uleb128 LLSDACSE6206-LLSDACSB6206
LLSDACSB6206:
	.uleb128 LEHB0-LFB6206
	.uleb128 LEHE0-LEHB0
	.uleb128 0
	.uleb128 0
	.uleb128 LEHB1-LFB6206
	.uleb128 LEHE1-LEHB1
	.uleb128 L109-LFB6206
	.uleb128 0
	.uleb128 LEHB2-LFB6206
	.uleb128 LEHE2-LEHB2
	.uleb128 L110-LFB6206
	.uleb128 0
	.uleb128 LEHB3-LFB6206
	.uleb128 LEHE3-LEHB3
	.uleb128 L109-LFB6206
	.uleb128 0
	.uleb128 LEHB4-LFB6206
	.uleb128 LEHE4-LEHB4
	.uleb128 L110-LFB6206
	.uleb128 0
	.uleb128 LEHB5-LFB6206
	.uleb128 LEHE5-LEHB5
	.uleb128 L109-LFB6206
	.uleb128 0
	.uleb128 LEHB6-LFB6206
	.uleb128 LEHE6-LEHB6
	.uleb128 0
	.uleb128 0
	.uleb128 LEHB7-LFB6206
	.uleb128 LEHE7-LEHB7
	.uleb128 L109-LFB6206
	.uleb128 0
LLSDACSE6206:
	.text
	.cfi_endproc
	.section	.text.unlikely,"x"
	.cfi_startproc
	.cfi_personality 0,___gxx_personality_v0
	.cfi_lsda 0,LLSDAC6206
	.def	__ZN8Palmtree4Math4Core8Internal16PMC_Subtruct_X_IEPNS2_21__tag_PMC_HANDLE_UINTEj@8.cold.2;	.scl	3;	.type	32;	.endef
__ZN8Palmtree4Math4Core8Internal16PMC_Subtruct_X_IEPNS2_21__tag_PMC_HANDLE_UINTEj@8.cold.2:
L105:
	.cfi_def_cfa 5, 8
	.cfi_offset 3, -20
	.cfi_offset 5, -8
	.cfi_offset 6, -16
	.cfi_offset 7, -12
	leal	-40(%ebp), %ecx
	call	__ZN8Palmtree4Math4Core8Internal18ResourceHolderUINTD1Ev
L106:
	leal	-56(%ebp), %ecx
	call	__ZN8Palmtree4Math4Core8Internal18ResourceHolderUINTD1Ev
	movl	%ebx, (%esp)
LEHB8:
	call	__Unwind_Resume
LEHE8:
	.cfi_endproc
LFE6206:
	.section	.gcc_except_table,"w"
LLSDAC6206:
	.byte	0xff
	.byte	0xff
	.byte	0x1
	.uleb128 LLSDACSEC6206-LLSDACSBC6206
LLSDACSBC6206:
	.uleb128 LEHB8-LCOLDB4
	.uleb128 LEHE8-LEHB8
	.uleb128 0
	.uleb128 0
LLSDACSEC6206:
	.section	.text.unlikely,"x"
	.text
	.section	.text.unlikely,"x"
LCOLDE4:
	.text
LHOTE4:
	.section	.text.unlikely,"x"
LCOLDB5:
	.text
LHOTB5:
	.p2align 4,,15
	.globl	__ZN8Palmtree4Math4Core8Internal16PMC_Subtruct_X_LEPNS2_21__tag_PMC_HANDLE_UINTEy@12
	.def	__ZN8Palmtree4Math4Core8Internal16PMC_Subtruct_X_LEPNS2_21__tag_PMC_HANDLE_UINTEy@12;	.scl	2;	.type	32;	.endef
__ZN8Palmtree4Math4Core8Internal16PMC_Subtruct_X_LEPNS2_21__tag_PMC_HANDLE_UINTEy@12:
LFB6209:
	.cfi_startproc
	.cfi_personality 0,___gxx_personality_v0
	.cfi_lsda 0,LLSDA6209
	pushl	%ebp
	.cfi_def_cfa_offset 8
	.cfi_offset 5, -8
	movl	%esp, %ebp
	.cfi_def_cfa_register 5
	pushl	%edi
	pushl	%esi
	pushl	%ebx
	subl	$92, %esp
	.cfi_offset 7, -12
	.cfi_offset 6, -16
	.cfi_offset 3, -20
	movl	16(%ebp), %eax
	movl	8(%ebp), %esi
	movl	12(%ebp), %edi
	movl	%eax, -76(%ebp)
	testl	%esi, %esi
	je	L149
	movl	%esi, (%esp)
LEHB9:
	call	__ZN8Palmtree4Math4Core8Internal11CheckNumberEPNS2_19__tag_NUMBER_HEADERE
	leal	-72(%ebp), %ecx
	call	__ZN8Palmtree4Math4Core8Internal18ResourceHolderUINTC1Ev
LEHE9:
	movl	-76(%ebp), %eax
	testb	$1, 4(%esi)
	je	L122
	orl	%edi, %eax
	jne	L150
	movl	$__ZN8Palmtree4Math4Core8Internal11number_zeroE, %ebx
L123:
	movl	%ebx, (%esp)
	leal	-72(%ebp), %ecx
LEHB10:
	call	__ZN8Palmtree4Math4Core8Internal18ResourceHolderUINT10HookNumberEPNS2_19__tag_NUMBER_HEADERE
	subl	$4, %esp
	leal	-72(%ebp), %ecx
	movl	%ebx, (%esp)
	call	__ZN8Palmtree4Math4Core8Internal18ResourceHolderUINT12UnlinkNumberEPNS2_19__tag_NUMBER_HEADERE
	subl	$4, %esp
	leal	-72(%ebp), %ecx
	call	__ZN8Palmtree4Math4Core8Internal18ResourceHolderUINTD1Ev
	leal	-12(%ebp), %esp
	movl	%ebx, %eax
	popl	%ebx
	.cfi_remember_state
	.cfi_restore 3
	popl	%esi
	.cfi_restore 6
	popl	%edi
	.cfi_restore 7
	popl	%ebp
	.cfi_restore 5
	.cfi_def_cfa 4, 4
	ret	$12
	.p2align 4,,10
L122:
	.cfi_restore_state
	orl	%edi, %eax
	je	L151
	movl	-76(%ebp), %eax
	movl	20(%esi), %ebx
	testl	%eax, %eax
	jne	L125
	testl	%edi, %edi
	je	L126
/APP
 # 428 "../pmc_inline_func.h" 1
	bsrl %edi, %eax
 # 0 "" 2
/NO_APP
	addl	$1, %eax
	cmpl	%eax, %ebx
	jb	L152
L126:
	leal	-56(%ebp), %ecx
	call	__ZN8Palmtree4Math4Core8Internal18ResourceHolderUINTC1Ev
LEHE10:
	movl	%ebx, (%esp)
	leal	-56(%ebp), %ecx
LEHB11:
	call	__ZN8Palmtree4Math4Core8Internal18ResourceHolderUINT14AllocateNumberEj
	movl	%eax, %ebx
	movl	36(%esi), %eax
	movl	16(%esi), %ecx
	subl	$4, %esp
	movl	36(%ebx), %edx
	leal	4(%edx), %esi
	leal	4(%eax), %edx
	movl	(%eax), %eax
	movl	%edx, -76(%ebp)
	subl	%edi, %eax
	movl	%eax, %edx
	setb	%al
	subl	$1, %ecx
	movl	%eax, %edi
	movl	36(%ebx), %eax
	movl	%edx, (%eax)
	movl	%edi, %eax
	movl	-76(%ebp), %edx
	movl	%esi, (%esp)
	movsbl	%al, %eax
	call	__ZN8Palmtree4Math4Core8InternalL8DoBorrowEcPjjS3_j.constprop.1
	movl	%ebx, (%esp)
	leal	-56(%ebp), %ecx
	call	__ZN8Palmtree4Math4Core8Internal18ResourceHolderUINT11CheckNumberEPNS2_19__tag_NUMBER_HEADERE
	subl	$4, %esp
	movl	%ebx, (%esp)
	call	__ZN8Palmtree4Math4Core8Internal12CommitNumberEPNS2_19__tag_NUMBER_HEADERE
	testb	$1, 4(%ebx)
	leal	-56(%ebp), %ecx
	movl	%ebx, (%esp)
	jne	L153
	call	__ZN8Palmtree4Math4Core8Internal18ResourceHolderUINT12UnlinkNumberEPNS2_19__tag_NUMBER_HEADERE
	subl	$4, %esp
L128:
	leal	-56(%ebp), %ecx
	call	__ZN8Palmtree4Math4Core8Internal18ResourceHolderUINTD1Ev
	jmp	L123
	.p2align 4,,10
L153:
	call	__ZN8Palmtree4Math4Core8Internal18ResourceHolderUINT16DeallocateNumberEPNS2_19__tag_NUMBER_HEADERE
LEHE11:
	subl	$4, %esp
	movl	$__ZN8Palmtree4Math4Core8Internal11number_zeroE, %ebx
	jmp	L128
	.p2align 4,,10
L151:
	movl	%esi, (%esp)
LEHB12:
	call	__ZN8Palmtree4Math4Core8Internal15DuplicateNumberEPNS2_19__tag_NUMBER_HEADERE
	movl	%eax, %ebx
	jmp	L123
	.p2align 4,,10
L125:
	leal	-40(%ebp), %ecx
	call	__ZN8Palmtree4Math4Core8Internal18ResourceHolderUINTC1Ev
LEHE12:
/APP
 # 428 "../pmc_inline_func.h" 1
	bsrl -76(%ebp), %eax
 # 0 "" 2
/NO_APP
	addl	$33, %eax
	cmpl	%eax, %ebx
	jb	L154
	movl	%ebx, (%esp)
	leal	-40(%ebp), %ecx
LEHB13:
	call	__ZN8Palmtree4Math4Core8Internal18ResourceHolderUINT14AllocateNumberEj
	movl	16(%esi), %edx
	movl	%eax, %ebx
	subl	$4, %esp
	movl	36(%eax), %eax
	movl	36(%esi), %esi
	movl	%edx, -80(%ebp)
	cmpl	$1, %edx
	jbe	L155
	movl	(%esi), %edx
	subl	%edi, %edx
	leal	8(%eax), %edi
	setb	%cl
	movl	%edx, (%eax)
	leal	8(%esi), %edx
	movl	4(%esi), %esi
	addb	$-1, %cl
	sbbl	-76(%ebp), %esi
	setc	-76(%ebp)
	movl	%esi, 4(%eax)
	movl	-80(%ebp), %esi
	movl	%edi, (%esp)
	movsbl	-76(%ebp), %eax
	subl	$2, %esi
	movl	%esi, %ecx
	call	__ZN8Palmtree4Math4Core8InternalL8DoBorrowEcPjjS3_j.constprop.1
	movl	%ebx, (%esp)
	leal	-40(%ebp), %ecx
	call	__ZN8Palmtree4Math4Core8Internal18ResourceHolderUINT11CheckNumberEPNS2_19__tag_NUMBER_HEADERE
	subl	$4, %esp
	movl	%ebx, (%esp)
	call	__ZN8Palmtree4Math4Core8Internal12CommitNumberEPNS2_19__tag_NUMBER_HEADERE
	testb	$1, 4(%ebx)
	leal	-40(%ebp), %ecx
	movl	%ebx, (%esp)
	je	L131
	call	__ZN8Palmtree4Math4Core8Internal18ResourceHolderUINT16DeallocateNumberEPNS2_19__tag_NUMBER_HEADERE
	subl	$4, %esp
	movl	$__ZN8Palmtree4Math4Core8Internal11number_zeroE, %ebx
L132:
	leal	-40(%ebp), %ecx
	call	__ZN8Palmtree4Math4Core8Internal18ResourceHolderUINTD1Ev
	jmp	L123
	.p2align 4,,10
L131:
	call	__ZN8Palmtree4Math4Core8Internal18ResourceHolderUINT12UnlinkNumberEPNS2_19__tag_NUMBER_HEADERE
LEHE13:
	subl	$4, %esp
	jmp	L132
L152:
	movl	$16, (%esp)
	call	___cxa_allocate_exception
	movl	$-4, 4(%eax)
	movl	$LC0, 8(%eax)
	movl	$0, 12(%eax)
	movl	$__ZTVN8Palmtree4Math4Core8Internal17OverflowExceptionE+8, (%eax)
	movl	$__ZN8Palmtree4Math4Core8Internal17OverflowExceptionD1Ev, 8(%esp)
	movl	$__ZTIN8Palmtree4Math4Core8Internal17OverflowExceptionE, 4(%esp)
	movl	%eax, (%esp)
LEHB14:
	call	___cxa_throw
LEHE14:
L149:
	movl	$16, (%esp)
	call	___cxa_allocate_exception
	movl	$-2, 4(%eax)
	movl	$LC1, 8(%eax)
	movl	$LC2, 12(%eax)
	movl	$__ZTVN8Palmtree4Math4Core8Internal21ArgumentNullExceptionE+8, (%eax)
	movl	$__ZN8Palmtree4Math4Core8Internal21ArgumentNullExceptionD1Ev, 8(%esp)
	movl	$__ZTIN8Palmtree4Math4Core8Internal21ArgumentNullExceptionE, 4(%esp)
	movl	%eax, (%esp)
LEHB15:
	call	___cxa_throw
LEHE15:
L150:
	movl	$16, (%esp)
	call	___cxa_allocate_exception
	movl	$-4, 4(%eax)
	movl	$LC0, 8(%eax)
	movl	$0, 12(%eax)
	movl	$__ZTVN8Palmtree4Math4Core8Internal17OverflowExceptionE+8, (%eax)
	movl	$__ZN8Palmtree4Math4Core8Internal17OverflowExceptionD1Ev, 8(%esp)
	movl	$__ZTIN8Palmtree4Math4Core8Internal17OverflowExceptionE, 4(%esp)
	movl	%eax, (%esp)
LEHB16:
	call	___cxa_throw
LEHE16:
L155:
	movl	$16, (%esp)
	call	___cxa_allocate_exception
	movl	$-4, 4(%eax)
	movl	$LC0, 8(%eax)
	movl	$0, 12(%eax)
	movl	$__ZTVN8Palmtree4Math4Core8Internal17OverflowExceptionE+8, (%eax)
	movl	$__ZN8Palmtree4Math4Core8Internal17OverflowExceptionD1Ev, 8(%esp)
	movl	$__ZTIN8Palmtree4Math4Core8Internal17OverflowExceptionE, 4(%esp)
	movl	%eax, (%esp)
LEHB17:
	call	___cxa_throw
L154:
	movl	$16, (%esp)
	call	___cxa_allocate_exception
	movl	$-4, 4(%eax)
	movl	$LC0, 8(%eax)
	movl	$0, 12(%eax)
	movl	$__ZTVN8Palmtree4Math4Core8Internal17OverflowExceptionE+8, (%eax)
	movl	$__ZN8Palmtree4Math4Core8Internal17OverflowExceptionD1Ev, 8(%esp)
	movl	$__ZTIN8Palmtree4Math4Core8Internal17OverflowExceptionE, 4(%esp)
	movl	%eax, (%esp)
	call	___cxa_throw
LEHE17:
L141:
	movl	%eax, %ebx
	jmp	L136
L142:
	movl	%eax, %ebx
	jmp	L134
L140:
	movl	%eax, %ebx
	jmp	L135
	.section	.gcc_except_table,"w"
LLSDA6209:
	.byte	0xff
	.byte	0xff
	.byte	0x1
	.uleb128 LLSDACSE6209-LLSDACSB6209
LLSDACSB6209:
	.uleb128 LEHB9-LFB6209
	.uleb128 LEHE9-LEHB9
	.uleb128 0
	.uleb128 0
	.uleb128 LEHB10-LFB6209
	.uleb128 LEHE10-LEHB10
	.uleb128 L140-LFB6209
	.uleb128 0
	.uleb128 LEHB11-LFB6209
	.uleb128 LEHE11-LEHB11
	.uleb128 L142-LFB6209
	.uleb128 0
	.uleb128 LEHB12-LFB6209
	.uleb128 LEHE12-LEHB12
	.uleb128 L140-LFB6209
	.uleb128 0
	.uleb128 LEHB13-LFB6209
	.uleb128 LEHE13-LEHB13
	.uleb128 L141-LFB6209
	.uleb128 0
	.uleb128 LEHB14-LFB6209
	.uleb128 LEHE14-LEHB14
	.uleb128 L140-LFB6209
	.uleb128 0
	.uleb128 LEHB15-LFB6209
	.uleb128 LEHE15-LEHB15
	.uleb128 0
	.uleb128 0
	.uleb128 LEHB16-LFB6209
	.uleb128 LEHE16-LEHB16
	.uleb128 L140-LFB6209
	.uleb128 0
	.uleb128 LEHB17-LFB6209
	.uleb128 LEHE17-LEHB17
	.uleb128 L141-LFB6209
	.uleb128 0
LLSDACSE6209:
	.text
	.cfi_endproc
	.section	.text.unlikely,"x"
	.cfi_startproc
	.cfi_personality 0,___gxx_personality_v0
	.cfi_lsda 0,LLSDAC6209
	.def	__ZN8Palmtree4Math4Core8Internal16PMC_Subtruct_X_LEPNS2_21__tag_PMC_HANDLE_UINTEy@12.cold.3;	.scl	3;	.type	32;	.endef
__ZN8Palmtree4Math4Core8Internal16PMC_Subtruct_X_LEPNS2_21__tag_PMC_HANDLE_UINTEy@12.cold.3:
L136:
	.cfi_def_cfa 5, 8
	.cfi_offset 3, -20
	.cfi_offset 5, -8
	.cfi_offset 6, -16
	.cfi_offset 7, -12
	leal	-40(%ebp), %ecx
	call	__ZN8Palmtree4Math4Core8Internal18ResourceHolderUINTD1Ev
L135:
	leal	-72(%ebp), %ecx
	call	__ZN8Palmtree4Math4Core8Internal18ResourceHolderUINTD1Ev
	movl	%ebx, (%esp)
LEHB18:
	call	__Unwind_Resume
LEHE18:
L134:
	leal	-56(%ebp), %ecx
	call	__ZN8Palmtree4Math4Core8Internal18ResourceHolderUINTD1Ev
	jmp	L135
	.cfi_endproc
LFE6209:
	.section	.gcc_except_table,"w"
LLSDAC6209:
	.byte	0xff
	.byte	0xff
	.byte	0x1
	.uleb128 LLSDACSEC6209-LLSDACSBC6209
LLSDACSBC6209:
	.uleb128 LEHB18-LCOLDB5
	.uleb128 LEHE18-LEHB18
	.uleb128 0
	.uleb128 0
LLSDACSEC6209:
	.section	.text.unlikely,"x"
	.text
	.section	.text.unlikely,"x"
LCOLDE5:
	.text
LHOTE5:
	.section	.text.unlikely,"x"
LCOLDB6:
	.text
LHOTB6:
	.p2align 4,,15
	.globl	__ZN8Palmtree4Math4Core8Internal16PMC_Subtruct_X_XEPNS2_21__tag_PMC_HANDLE_UINTES4_@8
	.def	__ZN8Palmtree4Math4Core8Internal16PMC_Subtruct_X_XEPNS2_21__tag_PMC_HANDLE_UINTES4_@8;	.scl	2;	.type	32;	.endef
__ZN8Palmtree4Math4Core8Internal16PMC_Subtruct_X_XEPNS2_21__tag_PMC_HANDLE_UINTES4_@8:
LFB6211:
	.cfi_startproc
	.cfi_personality 0,___gxx_personality_v0
	.cfi_lsda 0,LLSDA6211
	pushl	%ebp
	.cfi_def_cfa_offset 8
	.cfi_offset 5, -8
	movl	%esp, %ebp
	.cfi_def_cfa_register 5
	pushl	%edi
	pushl	%esi
	pushl	%ebx
	subl	$76, %esp
	.cfi_offset 7, -12
	.cfi_offset 6, -16
	.cfi_offset 3, -20
	movl	8(%ebp), %esi
	movl	12(%ebp), %edi
	testl	%esi, %esi
	je	L176
	testl	%edi, %edi
	je	L177
	movl	%esi, (%esp)
LEHB19:
	call	__ZN8Palmtree4Math4Core8Internal11CheckNumberEPNS2_19__tag_NUMBER_HEADERE
	movl	%edi, (%esp)
	call	__ZN8Palmtree4Math4Core8Internal11CheckNumberEPNS2_19__tag_NUMBER_HEADERE
	leal	-56(%ebp), %ecx
	call	__ZN8Palmtree4Math4Core8Internal18ResourceHolderUINTC1Ev
LEHE19:
	testb	$1, 4(%esi)
	jne	L178
	testb	$1, 4(%edi)
	je	L161
	movl	%esi, (%esp)
LEHB20:
	call	__ZN8Palmtree4Math4Core8Internal15DuplicateNumberEPNS2_19__tag_NUMBER_HEADERE
	movl	%eax, %ebx
L160:
	movl	%ebx, (%esp)
	leal	-56(%ebp), %ecx
	call	__ZN8Palmtree4Math4Core8Internal18ResourceHolderUINT10HookNumberEPNS2_19__tag_NUMBER_HEADERE
	subl	$4, %esp
	leal	-56(%ebp), %ecx
	movl	%ebx, (%esp)
	call	__ZN8Palmtree4Math4Core8Internal18ResourceHolderUINT12UnlinkNumberEPNS2_19__tag_NUMBER_HEADERE
	subl	$4, %esp
	leal	-56(%ebp), %ecx
	call	__ZN8Palmtree4Math4Core8Internal18ResourceHolderUINTD1Ev
	leal	-12(%ebp), %esp
	movl	%ebx, %eax
	popl	%ebx
	.cfi_remember_state
	.cfi_restore 3
	popl	%esi
	.cfi_restore 6
	popl	%edi
	.cfi_restore 7
	popl	%ebp
	.cfi_restore 5
	.cfi_def_cfa 4, 4
	ret	$8
	.p2align 4,,10
L178:
	.cfi_restore_state
	testb	$1, 4(%edi)
	je	L179
	movl	$__ZN8Palmtree4Math4Core8Internal11number_zeroE, %ebx
	jmp	L160
	.p2align 4,,10
L161:
	leal	-40(%ebp), %ecx
	call	__ZN8Palmtree4Math4Core8Internal18ResourceHolderUINTC1Ev
LEHE20:
	movl	20(%esi), %eax
	cmpl	20(%edi), %eax
	jb	L180
	movl	%eax, (%esp)
	leal	-40(%ebp), %ecx
LEHB21:
	call	__ZN8Palmtree4Math4Core8Internal18ResourceHolderUINT14AllocateNumberEj
	movl	%eax, %ebx
	movl	32(%eax), %eax
	subl	$4, %esp
	movl	%eax, 20(%esp)
	movl	36(%ebx), %eax
	movl	%eax, 16(%esp)
	movl	16(%edi), %eax
	movl	%eax, 12(%esp)
	movl	36(%edi), %eax
	movl	%eax, 8(%esp)
	movl	16(%esi), %eax
	movl	%eax, 4(%esp)
	movl	36(%esi), %eax
	movl	%eax, (%esp)
	call	__ZN8Palmtree4Math4Core8Internal12Subtruct_ImpEPjjS3_jS3_j
	movl	%ebx, (%esp)
	leal	-40(%ebp), %ecx
	call	__ZN8Palmtree4Math4Core8Internal18ResourceHolderUINT11CheckNumberEPNS2_19__tag_NUMBER_HEADERE
	subl	$4, %esp
	movl	%ebx, (%esp)
	call	__ZN8Palmtree4Math4Core8Internal12CommitNumberEPNS2_19__tag_NUMBER_HEADERE
	movl	%ebx, (%esp)
	call	__ZN8Palmtree4Math4Core8Internal12CommitNumberEPNS2_19__tag_NUMBER_HEADERE
	testb	$1, 4(%ebx)
	leal	-40(%ebp), %ecx
	movl	%ebx, (%esp)
	jne	L181
	call	__ZN8Palmtree4Math4Core8Internal18ResourceHolderUINT12UnlinkNumberEPNS2_19__tag_NUMBER_HEADERE
	subl	$4, %esp
L164:
	leal	-40(%ebp), %ecx
	call	__ZN8Palmtree4Math4Core8Internal18ResourceHolderUINTD1Ev
	jmp	L160
	.p2align 4,,10
L181:
	call	__ZN8Palmtree4Math4Core8Internal18ResourceHolderUINT16DeallocateNumberEPNS2_19__tag_NUMBER_HEADERE
LEHE21:
	subl	$4, %esp
	movl	$__ZN8Palmtree4Math4Core8Internal11number_zeroE, %ebx
	jmp	L164
L176:
	movl	$16, (%esp)
	call	___cxa_allocate_exception
	movl	$-2, 4(%eax)
	movl	$LC1, 8(%eax)
	movl	$LC3, 12(%eax)
L175:
	movl	$__ZTVN8Palmtree4Math4Core8Internal21ArgumentNullExceptionE+8, (%eax)
	movl	$__ZN8Palmtree4Math4Core8Internal21ArgumentNullExceptionD1Ev, 8(%esp)
	movl	$__ZTIN8Palmtree4Math4Core8Internal21ArgumentNullExceptionE, 4(%esp)
	movl	%eax, (%esp)
LEHB22:
	call	___cxa_throw
LEHE22:
L177:
	movl	$16, (%esp)
	call	___cxa_allocate_exception
	movl	$-2, 4(%eax)
	movl	$LC1, 8(%eax)
	movl	$LC2, 12(%eax)
	jmp	L175
L179:
	movl	$16, (%esp)
	call	___cxa_allocate_exception
	movl	$-4, 4(%eax)
	movl	$LC0, 8(%eax)
	movl	$0, 12(%eax)
	movl	$__ZTVN8Palmtree4Math4Core8Internal17OverflowExceptionE+8, (%eax)
	movl	$__ZN8Palmtree4Math4Core8Internal17OverflowExceptionD1Ev, 8(%esp)
	movl	$__ZTIN8Palmtree4Math4Core8Internal17OverflowExceptionE, 4(%esp)
	movl	%eax, (%esp)
LEHB23:
	call	___cxa_throw
LEHE23:
L180:
	movl	$16, (%esp)
	call	___cxa_allocate_exception
	movl	$-4, 4(%eax)
	movl	$LC0, 8(%eax)
	movl	$0, 12(%eax)
	movl	$__ZTVN8Palmtree4Math4Core8Internal17OverflowExceptionE+8, (%eax)
	movl	$__ZN8Palmtree4Math4Core8Internal17OverflowExceptionD1Ev, 8(%esp)
	movl	$__ZTIN8Palmtree4Math4Core8Internal17OverflowExceptionE, 4(%esp)
	movl	%eax, (%esp)
LEHB24:
	call	___cxa_throw
LEHE24:
L171:
	movl	%eax, %ebx
	jmp	L166
L170:
	movl	%eax, %ebx
	jmp	L167
	.section	.gcc_except_table,"w"
LLSDA6211:
	.byte	0xff
	.byte	0xff
	.byte	0x1
	.uleb128 LLSDACSE6211-LLSDACSB6211
LLSDACSB6211:
	.uleb128 LEHB19-LFB6211
	.uleb128 LEHE19-LEHB19
	.uleb128 0
	.uleb128 0
	.uleb128 LEHB20-LFB6211
	.uleb128 LEHE20-LEHB20
	.uleb128 L170-LFB6211
	.uleb128 0
	.uleb128 LEHB21-LFB6211
	.uleb128 LEHE21-LEHB21
	.uleb128 L171-LFB6211
	.uleb128 0
	.uleb128 LEHB22-LFB6211
	.uleb128 LEHE22-LEHB22
	.uleb128 0
	.uleb128 0
	.uleb128 LEHB23-LFB6211
	.uleb128 LEHE23-LEHB23
	.uleb128 L170-LFB6211
	.uleb128 0
	.uleb128 LEHB24-LFB6211
	.uleb128 LEHE24-LEHB24
	.uleb128 L171-LFB6211
	.uleb128 0
LLSDACSE6211:
	.text
	.cfi_endproc
	.section	.text.unlikely,"x"
	.cfi_startproc
	.cfi_personality 0,___gxx_personality_v0
	.cfi_lsda 0,LLSDAC6211
	.def	__ZN8Palmtree4Math4Core8Internal16PMC_Subtruct_X_XEPNS2_21__tag_PMC_HANDLE_UINTES4_@8.cold.4;	.scl	3;	.type	32;	.endef
__ZN8Palmtree4Math4Core8Internal16PMC_Subtruct_X_XEPNS2_21__tag_PMC_HANDLE_UINTES4_@8.cold.4:
L166:
	.cfi_def_cfa 5, 8
	.cfi_offset 3, -20
	.cfi_offset 5, -8
	.cfi_offset 6, -16
	.cfi_offset 7, -12
	leal	-40(%ebp), %ecx
	call	__ZN8Palmtree4Math4Core8Internal18ResourceHolderUINTD1Ev
L167:
	leal	-56(%ebp), %ecx
	call	__ZN8Palmtree4Math4Core8Internal18ResourceHolderUINTD1Ev
	movl	%ebx, (%esp)
LEHB25:
	call	__Unwind_Resume
LEHE25:
	.cfi_endproc
LFE6211:
	.section	.gcc_except_table,"w"
LLSDAC6211:
	.byte	0xff
	.byte	0xff
	.byte	0x1
	.uleb128 LLSDACSEC6211-LLSDACSBC6211
LLSDACSBC6211:
	.uleb128 LEHB25-LCOLDB6
	.uleb128 LEHE25-LEHB25
	.uleb128 0
	.uleb128 0
LLSDACSEC6211:
	.section	.text.unlikely,"x"
	.text
	.section	.text.unlikely,"x"
LCOLDE6:
	.text
LHOTE6:
	.globl	__ZTSSt9exception
	.section	.rdata$_ZTSSt9exception,"dr"
	.linkonce same_size
	.align 4
__ZTSSt9exception:
	.ascii "St9exception\0"
	.globl	__ZTISt9exception
	.section	.rdata$_ZTISt9exception,"dr"
	.linkonce same_size
	.align 4
__ZTISt9exception:
	.long	__ZTVN10__cxxabiv117__class_type_infoE+8
	.long	__ZTSSt9exception
	.globl	__ZTSN8Palmtree4Math4Core8Internal9ExceptionE
	.section	.rdata$_ZTSN8Palmtree4Math4Core8Internal9ExceptionE,"dr"
	.linkonce same_size
	.align 32
__ZTSN8Palmtree4Math4Core8Internal9ExceptionE:
	.ascii "N8Palmtree4Math4Core8Internal9ExceptionE\0"
	.globl	__ZTIN8Palmtree4Math4Core8Internal9ExceptionE
	.section	.rdata$_ZTIN8Palmtree4Math4Core8Internal9ExceptionE,"dr"
	.linkonce same_size
	.align 4
__ZTIN8Palmtree4Math4Core8Internal9ExceptionE:
	.long	__ZTVN10__cxxabiv121__vmi_class_type_infoE+8
	.long	__ZTSN8Palmtree4Math4Core8Internal9ExceptionE
	.long	0
	.long	1
	.long	__ZTISt9exception
	.long	0
	.globl	__ZTSN8Palmtree4Math4Core8Internal21ArgumentNullExceptionE
	.section	.rdata$_ZTSN8Palmtree4Math4Core8Internal21ArgumentNullExceptionE,"dr"
	.linkonce same_size
	.align 32
__ZTSN8Palmtree4Math4Core8Internal21ArgumentNullExceptionE:
	.ascii "N8Palmtree4Math4Core8Internal21ArgumentNullExceptionE\0"
	.globl	__ZTIN8Palmtree4Math4Core8Internal21ArgumentNullExceptionE
	.section	.rdata$_ZTIN8Palmtree4Math4Core8Internal21ArgumentNullExceptionE,"dr"
	.linkonce same_size
	.align 4
__ZTIN8Palmtree4Math4Core8Internal21ArgumentNullExceptionE:
	.long	__ZTVN10__cxxabiv120__si_class_type_infoE+8
	.long	__ZTSN8Palmtree4Math4Core8Internal21ArgumentNullExceptionE
	.long	__ZTIN8Palmtree4Math4Core8Internal9ExceptionE
	.globl	__ZTSN8Palmtree4Math4Core8Internal17OverflowExceptionE
	.section	.rdata$_ZTSN8Palmtree4Math4Core8Internal17OverflowExceptionE,"dr"
	.linkonce same_size
	.align 32
__ZTSN8Palmtree4Math4Core8Internal17OverflowExceptionE:
	.ascii "N8Palmtree4Math4Core8Internal17OverflowExceptionE\0"
	.globl	__ZTIN8Palmtree4Math4Core8Internal17OverflowExceptionE
	.section	.rdata$_ZTIN8Palmtree4Math4Core8Internal17OverflowExceptionE,"dr"
	.linkonce same_size
	.align 4
__ZTIN8Palmtree4Math4Core8Internal17OverflowExceptionE:
	.long	__ZTVN10__cxxabiv120__si_class_type_infoE+8
	.long	__ZTSN8Palmtree4Math4Core8Internal17OverflowExceptionE
	.long	__ZTIN8Palmtree4Math4Core8Internal9ExceptionE
	.globl	__ZTVN8Palmtree4Math4Core8Internal9ExceptionE
	.section	.rdata$_ZTVN8Palmtree4Math4Core8Internal9ExceptionE,"dr"
	.linkonce same_size
	.align 4
__ZTVN8Palmtree4Math4Core8Internal9ExceptionE:
	.long	0
	.long	__ZTIN8Palmtree4Math4Core8Internal9ExceptionE
	.long	__ZN8Palmtree4Math4Core8Internal9ExceptionD1Ev
	.long	__ZN8Palmtree4Math4Core8Internal9ExceptionD0Ev
	.long	__ZNKSt9exception4whatEv
	.globl	__ZTVN8Palmtree4Math4Core8Internal21ArgumentNullExceptionE
	.section	.rdata$_ZTVN8Palmtree4Math4Core8Internal21ArgumentNullExceptionE,"dr"
	.linkonce same_size
	.align 4
__ZTVN8Palmtree4Math4Core8Internal21ArgumentNullExceptionE:
	.long	0
	.long	__ZTIN8Palmtree4Math4Core8Internal21ArgumentNullExceptionE
	.long	__ZN8Palmtree4Math4Core8Internal21ArgumentNullExceptionD1Ev
	.long	__ZN8Palmtree4Math4Core8Internal21ArgumentNullExceptionD0Ev
	.long	__ZNKSt9exception4whatEv
	.globl	__ZTVN8Palmtree4Math4Core8Internal17OverflowExceptionE
	.section	.rdata$_ZTVN8Palmtree4Math4Core8Internal17OverflowExceptionE,"dr"
	.linkonce same_size
	.align 4
__ZTVN8Palmtree4Math4Core8Internal17OverflowExceptionE:
	.long	0
	.long	__ZTIN8Palmtree4Math4Core8Internal17OverflowExceptionE
	.long	__ZN8Palmtree4Math4Core8Internal17OverflowExceptionD1Ev
	.long	__ZN8Palmtree4Math4Core8Internal17OverflowExceptionD0Ev
	.long	__ZNKSt9exception4whatEv
	.ident	"GCC: (i686-win32-dwarf-rev0, Built by MinGW-W64 project) 8.1.0"
	.def	__ZNSt9exceptionD2Ev;	.scl	2;	.type	32;	.endef
	.def	__ZdlPvj;	.scl	2;	.type	32;	.endef
	.def	___cxa_allocate_exception;	.scl	2;	.type	32;	.endef
	.def	___cxa_throw;	.scl	2;	.type	32;	.endef
	.def	__ZN8Palmtree4Math4Core8Internal11CheckNumberEPNS2_19__tag_NUMBER_HEADERE;	.scl	2;	.type	32;	.endef
	.def	__ZN8Palmtree4Math4Core8Internal18ResourceHolderUINTC1Ev;	.scl	2;	.type	32;	.endef
	.def	__ZN8Palmtree4Math4Core8Internal18ResourceHolderUINT14AllocateNumberEj;	.scl	2;	.type	32;	.endef
	.def	__ZN8Palmtree4Math4Core8Internal18ResourceHolderUINT11CheckNumberEPNS2_19__tag_NUMBER_HEADERE;	.scl	2;	.type	32;	.endef
	.def	__ZN8Palmtree4Math4Core8Internal12CommitNumberEPNS2_19__tag_NUMBER_HEADERE;	.scl	2;	.type	32;	.endef
	.def	__ZN8Palmtree4Math4Core8Internal18ResourceHolderUINT12UnlinkNumberEPNS2_19__tag_NUMBER_HEADERE;	.scl	2;	.type	32;	.endef
	.def	__ZN8Palmtree4Math4Core8Internal18ResourceHolderUINTD1Ev;	.scl	2;	.type	32;	.endef
	.def	__ZN8Palmtree4Math4Core8Internal18ResourceHolderUINT10HookNumberEPNS2_19__tag_NUMBER_HEADERE;	.scl	2;	.type	32;	.endef
	.def	__ZN8Palmtree4Math4Core8Internal18ResourceHolderUINT16DeallocateNumberEPNS2_19__tag_NUMBER_HEADERE;	.scl	2;	.type	32;	.endef
	.def	__ZN8Palmtree4Math4Core8Internal15DuplicateNumberEPNS2_19__tag_NUMBER_HEADERE;	.scl	2;	.type	32;	.endef
	.def	__Unwind_Resume;	.scl	2;	.type	32;	.endef
	.def	__ZNKSt9exception4whatEv;	.scl	2;	.type	32;	.endef
