	.file	"pmc_log.cpp"
	.text
	.section	.text$_ZN8Palmtree4Math4Core8Internal9ExceptionD1Ev,"x"
	.linkonce discard
	.align 2
	.p2align 4,,15
	.globl	__ZN8Palmtree4Math4Core8Internal9ExceptionD1Ev
	.def	__ZN8Palmtree4Math4Core8Internal9ExceptionD1Ev;	.scl	2;	.type	32;	.endef
__ZN8Palmtree4Math4Core8Internal9ExceptionD1Ev:
LFB858:
	.cfi_startproc
	movl	$__ZTVN8Palmtree4Math4Core8Internal9ExceptionE+8, (%ecx)
	jmp	__ZNSt9exceptionD2Ev
	.cfi_endproc
LFE858:
	.section	.text$_ZN8Palmtree4Math4Core8Internal9ExceptionD0Ev,"x"
	.linkonce discard
	.align 2
	.p2align 4,,15
	.globl	__ZN8Palmtree4Math4Core8Internal9ExceptionD0Ev
	.def	__ZN8Palmtree4Math4Core8Internal9ExceptionD0Ev;	.scl	2;	.type	32;	.endef
__ZN8Palmtree4Math4Core8Internal9ExceptionD0Ev:
LFB859:
	.cfi_startproc
	pushl	%ebx
	.cfi_def_cfa_offset 8
	.cfi_offset 3, -8
	movl	%ecx, %ebx
	subl	$24, %esp
	.cfi_def_cfa_offset 32
	movl	$__ZTVN8Palmtree4Math4Core8Internal9ExceptionE+8, (%ecx)
	call	__ZNSt9exceptionD2Ev
	movl	%ebx, (%esp)
	movl	$16, 4(%esp)
	call	__ZdlPvj
	addl	$24, %esp
	.cfi_def_cfa_offset 8
	popl	%ebx
	.cfi_restore 3
	.cfi_def_cfa_offset 4
	ret
	.cfi_endproc
LFE859:
	.section	.text$_ZN8Palmtree4Math4Core8Internal19ArithmeticExceptionD1Ev,"x"
	.linkonce discard
	.align 2
	.p2align 4,,15
	.globl	__ZN8Palmtree4Math4Core8Internal19ArithmeticExceptionD1Ev
	.def	__ZN8Palmtree4Math4Core8Internal19ArithmeticExceptionD1Ev;	.scl	2;	.type	32;	.endef
__ZN8Palmtree4Math4Core8Internal19ArithmeticExceptionD1Ev:
LFB921:
	.cfi_startproc
	movl	$__ZTVN8Palmtree4Math4Core8Internal9ExceptionE+8, (%ecx)
	jmp	__ZNSt9exceptionD2Ev
	.cfi_endproc
LFE921:
	.section	.text$_ZN8Palmtree4Math4Core8Internal19ArithmeticExceptionD0Ev,"x"
	.linkonce discard
	.align 2
	.p2align 4,,15
	.globl	__ZN8Palmtree4Math4Core8Internal19ArithmeticExceptionD0Ev
	.def	__ZN8Palmtree4Math4Core8Internal19ArithmeticExceptionD0Ev;	.scl	2;	.type	32;	.endef
__ZN8Palmtree4Math4Core8Internal19ArithmeticExceptionD0Ev:
LFB922:
	.cfi_startproc
	pushl	%ebx
	.cfi_def_cfa_offset 8
	.cfi_offset 3, -8
	movl	%ecx, %ebx
	subl	$24, %esp
	.cfi_def_cfa_offset 32
	movl	$__ZTVN8Palmtree4Math4Core8Internal9ExceptionE+8, (%ecx)
	call	__ZNSt9exceptionD2Ev
	movl	%ebx, (%esp)
	movl	$16, 4(%esp)
	call	__ZdlPvj
	addl	$24, %esp
	.cfi_def_cfa_offset 8
	popl	%ebx
	.cfi_restore 3
	.cfi_def_cfa_offset 4
	ret
	.cfi_endproc
LFE922:
	.section	.text$_ZN8Palmtree4Math4Core8Internal21ArgumentNullExceptionD1Ev,"x"
	.linkonce discard
	.align 2
	.p2align 4,,15
	.globl	__ZN8Palmtree4Math4Core8Internal21ArgumentNullExceptionD1Ev
	.def	__ZN8Palmtree4Math4Core8Internal21ArgumentNullExceptionD1Ev;	.scl	2;	.type	32;	.endef
__ZN8Palmtree4Math4Core8Internal21ArgumentNullExceptionD1Ev:
LFB881:
	.cfi_startproc
	movl	$__ZTVN8Palmtree4Math4Core8Internal9ExceptionE+8, (%ecx)
	jmp	__ZNSt9exceptionD2Ev
	.cfi_endproc
LFE881:
	.section	.text$_ZN8Palmtree4Math4Core8Internal21ArgumentNullExceptionD0Ev,"x"
	.linkonce discard
	.align 2
	.p2align 4,,15
	.globl	__ZN8Palmtree4Math4Core8Internal21ArgumentNullExceptionD0Ev
	.def	__ZN8Palmtree4Math4Core8Internal21ArgumentNullExceptionD0Ev;	.scl	2;	.type	32;	.endef
__ZN8Palmtree4Math4Core8Internal21ArgumentNullExceptionD0Ev:
LFB882:
	.cfi_startproc
	pushl	%ebx
	.cfi_def_cfa_offset 8
	.cfi_offset 3, -8
	movl	%ecx, %ebx
	subl	$24, %esp
	.cfi_def_cfa_offset 32
	movl	$__ZTVN8Palmtree4Math4Core8Internal9ExceptionE+8, (%ecx)
	call	__ZNSt9exceptionD2Ev
	movl	%ebx, (%esp)
	movl	$16, 4(%esp)
	call	__ZdlPvj
	addl	$24, %esp
	.cfi_def_cfa_offset 8
	popl	%ebx
	.cfi_restore 3
	.cfi_def_cfa_offset 4
	ret
	.cfi_endproc
LFE882:
	.text
	.p2align 4,,15
	.globl	__ZN8Palmtree4Math4Core8Internal14Initialize_LogEPNS2_23_tag_PROCESSOR_FEATURESE
	.def	__ZN8Palmtree4Math4Core8Internal14Initialize_LogEPNS2_23_tag_PROCESSOR_FEATURESE;	.scl	2;	.type	32;	.endef
__ZN8Palmtree4Math4Core8Internal14Initialize_LogEPNS2_23_tag_PROCESSOR_FEATURESE:
LFB1037:
	.cfi_startproc
	movl	$1352628735, __ZN8Palmtree4Math4Core8InternalL7log10_2E
	xorl	%eax, %eax
	movl	$1070810131, __ZN8Palmtree4Math4Core8InternalL7log10_2E+4
	ret
	.cfi_endproc
LFE1037:
	.section .rdata,"dr"
	.align 2
LC1:
	.ascii "0\0n0\376[peo0*g\232[\251\177g0Y0\2"
	.ascii "0\0\0"
	.section	.text.unlikely,"x"
LCOLDB3:
	.text
LHOTB3:
	.p2align 4,,15
	.globl	__ZN8Palmtree4Math4Core8Internal19PMC_Floor_Log10_ImpEPNS2_19__tag_NUMBER_HEADERE
	.def	__ZN8Palmtree4Math4Core8Internal19PMC_Floor_Log10_ImpEPNS2_19__tag_NUMBER_HEADERE;	.scl	2;	.type	32;	.endef
__ZN8Palmtree4Math4Core8Internal19PMC_Floor_Log10_ImpEPNS2_19__tag_NUMBER_HEADERE:
LFB1032:
	.cfi_startproc
	.cfi_personality 0,___gxx_personality_v0
	.cfi_lsda 0,LLSDA1032
	pushl	%ebp
	.cfi_def_cfa_offset 8
	.cfi_offset 5, -8
	movl	%esp, %ebp
	.cfi_def_cfa_register 5
	pushl	%edi
	pushl	%esi
	pushl	%ebx
	subl	$76, %esp
	.cfi_offset 7, -12
	.cfi_offset 6, -16
	.cfi_offset 3, -20
	movl	8(%ebp), %eax
	testb	$1, 4(%eax)
	jne	L22
	leal	-40(%ebp), %ecx
LEHB0:
	call	__ZN8Palmtree4Math4Core8Internal18ResourceHolderUINTC1Ev
LEHE0:
	movl	8(%ebp), %eax
	movl	$0, -68(%ebp)
	movl	20(%eax), %eax
	movl	$1, (%esp)
	fnstcw	-50(%ebp)
	subl	$1, %eax
	movl	%eax, -72(%ebp)
	movzwl	-50(%ebp), %eax
	fildq	-72(%ebp)
	fmull	__ZN8Palmtree4Math4Core8InternalL7log10_2E
	andb	$-13, %ah
	orb	$4, %ah
	movw	%ax, -52(%ebp)
	movzwl	-50(%ebp), %eax
	fldcw	-52(%ebp)
	frndint
	fldcw	-50(%ebp)
	orb	$12, %ah
	movw	%ax, -54(%ebp)
	fldcw	-54(%ebp)
	fistpq	-64(%ebp)
	fldcw	-50(%ebp)
	movl	-64(%ebp), %eax
	movl	%eax, 4(%esp)
	movl	%eax, %edi
LEHB1:
	call	__ZN8Palmtree4Math4Core8Internal27PMC_TimesOfExponentOf10_ImpEjj
	movl	%eax, (%esp)
	leal	-40(%ebp), %ecx
	movl	%eax, %esi
	call	__ZN8Palmtree4Math4Core8Internal18ResourceHolderUINT10HookNumberEPNS2_19__tag_NUMBER_HEADERE
	subl	$4, %esp
	jmp	L15
	.p2align 4,,10
L23:
	addl	$1, %edi
	movl	%ebx, %esi
	testl	%eax, %eax
	je	L14
L15:
	movl	$10, 4(%esp)
	movl	%esi, (%esp)
	call	__ZN8Palmtree4Math4Core8Internal20PMC_Multiply_X_I_ImpEPNS2_19__tag_NUMBER_HEADEREj
	movl	%eax, (%esp)
	leal	-40(%ebp), %ecx
	movl	%eax, %ebx
	call	__ZN8Palmtree4Math4Core8Internal18ResourceHolderUINT10HookNumberEPNS2_19__tag_NUMBER_HEADERE
	subl	$4, %esp
	leal	-40(%ebp), %ecx
	movl	%esi, (%esp)
	call	__ZN8Palmtree4Math4Core8Internal18ResourceHolderUINT16DeallocateNumberEPNS2_19__tag_NUMBER_HEADERE
	movl	8(%ebp), %eax
	subl	$4, %esp
	movl	%ebx, (%esp)
	movl	%eax, 4(%esp)
	call	__ZN8Palmtree4Math4Core8Internal19PMC_Compare_X_X_ImpEPNS2_19__tag_NUMBER_HEADERES4_
LEHE1:
	testl	%eax, %eax
	jle	L23
L14:
	leal	-40(%ebp), %ecx
	call	__ZN8Palmtree4Math4Core8Internal18ResourceHolderUINTD1Ev
	leal	-12(%ebp), %esp
	movl	%edi, %eax
	popl	%ebx
	.cfi_remember_state
	.cfi_restore 3
	popl	%esi
	.cfi_restore 6
	popl	%edi
	.cfi_restore 7
	popl	%ebp
	.cfi_restore 5
	.cfi_def_cfa 4, 4
	ret
L22:
	.cfi_restore_state
	movl	$16, (%esp)
	call	___cxa_allocate_exception
	movl	$-6, 4(%eax)
	movl	$LC1, 8(%eax)
	movl	$0, 12(%eax)
	movl	$__ZTVN8Palmtree4Math4Core8Internal19ArithmeticExceptionE+8, (%eax)
	movl	$__ZN8Palmtree4Math4Core8Internal19ArithmeticExceptionD1Ev, 8(%esp)
	movl	$__ZTIN8Palmtree4Math4Core8Internal19ArithmeticExceptionE, 4(%esp)
	movl	%eax, (%esp)
LEHB2:
	call	___cxa_throw
LEHE2:
L17:
	movl	%eax, %ebx
	jmp	L16
	.def	___gxx_personality_v0;	.scl	2;	.type	32;	.endef
	.section	.gcc_except_table,"w"
LLSDA1032:
	.byte	0xff
	.byte	0xff
	.byte	0x1
	.uleb128 LLSDACSE1032-LLSDACSB1032
LLSDACSB1032:
	.uleb128 LEHB0-LFB1032
	.uleb128 LEHE0-LEHB0
	.uleb128 0
	.uleb128 0
	.uleb128 LEHB1-LFB1032
	.uleb128 LEHE1-LEHB1
	.uleb128 L17-LFB1032
	.uleb128 0
	.uleb128 LEHB2-LFB1032
	.uleb128 LEHE2-LEHB2
	.uleb128 0
	.uleb128 0
LLSDACSE1032:
	.text
	.cfi_endproc
	.section	.text.unlikely,"x"
	.cfi_startproc
	.cfi_personality 0,___gxx_personality_v0
	.cfi_lsda 0,LLSDAC1032
	.def	__ZN8Palmtree4Math4Core8Internal19PMC_Floor_Log10_ImpEPNS2_19__tag_NUMBER_HEADERE.cold.0;	.scl	3;	.type	32;	.endef
__ZN8Palmtree4Math4Core8Internal19PMC_Floor_Log10_ImpEPNS2_19__tag_NUMBER_HEADERE.cold.0:
L16:
	.cfi_def_cfa 5, 8
	.cfi_offset 3, -20
	.cfi_offset 5, -8
	.cfi_offset 6, -16
	.cfi_offset 7, -12
	leal	-40(%ebp), %ecx
	call	__ZN8Palmtree4Math4Core8Internal18ResourceHolderUINTD1Ev
	movl	%ebx, (%esp)
LEHB3:
	call	__Unwind_Resume
LEHE3:
	.cfi_endproc
LFE1032:
	.section	.gcc_except_table,"w"
LLSDAC1032:
	.byte	0xff
	.byte	0xff
	.byte	0x1
	.uleb128 LLSDACSEC1032-LLSDACSBC1032
LLSDACSBC1032:
	.uleb128 LEHB3-LCOLDB3
	.uleb128 LEHE3-LEHB3
	.uleb128 0
	.uleb128 0
LLSDACSEC1032:
	.section	.text.unlikely,"x"
	.text
	.section	.text.unlikely,"x"
LCOLDE3:
	.text
LHOTE3:
	.section .rdata,"dr"
	.align 4
LC4:
	.ascii "\25_pek0n\0u\0l\0l\0p\0t\0r\0L0\16NH0\211"
	.ascii "0\214"
	.ascii "0f0D0~0Y0\2"
	.ascii "0\0\0"
	.align 2
LC5:
	.ascii "v\0\0\0"
	.text
	.p2align 4,,15
	.globl	__ZN8Palmtree4Math4Core8Internal15PMC_Floor_Log10EPNS2_21__tag_PMC_HANDLE_UINTE@4
	.def	__ZN8Palmtree4Math4Core8Internal15PMC_Floor_Log10EPNS2_21__tag_PMC_HANDLE_UINTE@4;	.scl	2;	.type	32;	.endef
__ZN8Palmtree4Math4Core8Internal15PMC_Floor_Log10EPNS2_21__tag_PMC_HANDLE_UINTE@4:
LFB1036:
	.cfi_startproc
	pushl	%ebx
	.cfi_def_cfa_offset 8
	.cfi_offset 3, -8
	subl	$24, %esp
	.cfi_def_cfa_offset 32
	movl	32(%esp), %ebx
	testl	%ebx, %ebx
	je	L27
	movl	%ebx, (%esp)
	call	__ZN8Palmtree4Math4Core8Internal11CheckNumberEPNS2_19__tag_NUMBER_HEADERE
	movl	%ebx, (%esp)
	call	__ZN8Palmtree4Math4Core8Internal19PMC_Floor_Log10_ImpEPNS2_19__tag_NUMBER_HEADERE
	addl	$24, %esp
	.cfi_remember_state
	.cfi_def_cfa_offset 8
	popl	%ebx
	.cfi_restore 3
	.cfi_def_cfa_offset 4
	ret	$4
L27:
	.cfi_restore_state
	movl	$16, (%esp)
	call	___cxa_allocate_exception
	movl	$-2, 4(%eax)
	movl	$LC4, 8(%eax)
	movl	$LC5, 12(%eax)
	movl	$__ZTVN8Palmtree4Math4Core8Internal21ArgumentNullExceptionE+8, (%eax)
	movl	$__ZN8Palmtree4Math4Core8Internal21ArgumentNullExceptionD1Ev, 8(%esp)
	movl	$__ZTIN8Palmtree4Math4Core8Internal21ArgumentNullExceptionE, 4(%esp)
	movl	%eax, (%esp)
	call	___cxa_throw
	.cfi_endproc
LFE1036:
	.globl	__ZTSSt9exception
	.section	.rdata$_ZTSSt9exception,"dr"
	.linkonce same_size
	.align 4
__ZTSSt9exception:
	.ascii "St9exception\0"
	.globl	__ZTISt9exception
	.section	.rdata$_ZTISt9exception,"dr"
	.linkonce same_size
	.align 4
__ZTISt9exception:
	.long	__ZTVN10__cxxabiv117__class_type_infoE+8
	.long	__ZTSSt9exception
	.globl	__ZTSN8Palmtree4Math4Core8Internal9ExceptionE
	.section	.rdata$_ZTSN8Palmtree4Math4Core8Internal9ExceptionE,"dr"
	.linkonce same_size
	.align 32
__ZTSN8Palmtree4Math4Core8Internal9ExceptionE:
	.ascii "N8Palmtree4Math4Core8Internal9ExceptionE\0"
	.globl	__ZTIN8Palmtree4Math4Core8Internal9ExceptionE
	.section	.rdata$_ZTIN8Palmtree4Math4Core8Internal9ExceptionE,"dr"
	.linkonce same_size
	.align 4
__ZTIN8Palmtree4Math4Core8Internal9ExceptionE:
	.long	__ZTVN10__cxxabiv121__vmi_class_type_infoE+8
	.long	__ZTSN8Palmtree4Math4Core8Internal9ExceptionE
	.long	0
	.long	1
	.long	__ZTISt9exception
	.long	0
	.globl	__ZTSN8Palmtree4Math4Core8Internal21ArgumentNullExceptionE
	.section	.rdata$_ZTSN8Palmtree4Math4Core8Internal21ArgumentNullExceptionE,"dr"
	.linkonce same_size
	.align 32
__ZTSN8Palmtree4Math4Core8Internal21ArgumentNullExceptionE:
	.ascii "N8Palmtree4Math4Core8Internal21ArgumentNullExceptionE\0"
	.globl	__ZTIN8Palmtree4Math4Core8Internal21ArgumentNullExceptionE
	.section	.rdata$_ZTIN8Palmtree4Math4Core8Internal21ArgumentNullExceptionE,"dr"
	.linkonce same_size
	.align 4
__ZTIN8Palmtree4Math4Core8Internal21ArgumentNullExceptionE:
	.long	__ZTVN10__cxxabiv120__si_class_type_infoE+8
	.long	__ZTSN8Palmtree4Math4Core8Internal21ArgumentNullExceptionE
	.long	__ZTIN8Palmtree4Math4Core8Internal9ExceptionE
	.globl	__ZTSN8Palmtree4Math4Core8Internal19ArithmeticExceptionE
	.section	.rdata$_ZTSN8Palmtree4Math4Core8Internal19ArithmeticExceptionE,"dr"
	.linkonce same_size
	.align 32
__ZTSN8Palmtree4Math4Core8Internal19ArithmeticExceptionE:
	.ascii "N8Palmtree4Math4Core8Internal19ArithmeticExceptionE\0"
	.globl	__ZTIN8Palmtree4Math4Core8Internal19ArithmeticExceptionE
	.section	.rdata$_ZTIN8Palmtree4Math4Core8Internal19ArithmeticExceptionE,"dr"
	.linkonce same_size
	.align 4
__ZTIN8Palmtree4Math4Core8Internal19ArithmeticExceptionE:
	.long	__ZTVN10__cxxabiv120__si_class_type_infoE+8
	.long	__ZTSN8Palmtree4Math4Core8Internal19ArithmeticExceptionE
	.long	__ZTIN8Palmtree4Math4Core8Internal9ExceptionE
	.globl	__ZTVN8Palmtree4Math4Core8Internal9ExceptionE
	.section	.rdata$_ZTVN8Palmtree4Math4Core8Internal9ExceptionE,"dr"
	.linkonce same_size
	.align 4
__ZTVN8Palmtree4Math4Core8Internal9ExceptionE:
	.long	0
	.long	__ZTIN8Palmtree4Math4Core8Internal9ExceptionE
	.long	__ZN8Palmtree4Math4Core8Internal9ExceptionD1Ev
	.long	__ZN8Palmtree4Math4Core8Internal9ExceptionD0Ev
	.long	__ZNKSt9exception4whatEv
	.globl	__ZTVN8Palmtree4Math4Core8Internal21ArgumentNullExceptionE
	.section	.rdata$_ZTVN8Palmtree4Math4Core8Internal21ArgumentNullExceptionE,"dr"
	.linkonce same_size
	.align 4
__ZTVN8Palmtree4Math4Core8Internal21ArgumentNullExceptionE:
	.long	0
	.long	__ZTIN8Palmtree4Math4Core8Internal21ArgumentNullExceptionE
	.long	__ZN8Palmtree4Math4Core8Internal21ArgumentNullExceptionD1Ev
	.long	__ZN8Palmtree4Math4Core8Internal21ArgumentNullExceptionD0Ev
	.long	__ZNKSt9exception4whatEv
	.globl	__ZTVN8Palmtree4Math4Core8Internal19ArithmeticExceptionE
	.section	.rdata$_ZTVN8Palmtree4Math4Core8Internal19ArithmeticExceptionE,"dr"
	.linkonce same_size
	.align 4
__ZTVN8Palmtree4Math4Core8Internal19ArithmeticExceptionE:
	.long	0
	.long	__ZTIN8Palmtree4Math4Core8Internal19ArithmeticExceptionE
	.long	__ZN8Palmtree4Math4Core8Internal19ArithmeticExceptionD1Ev
	.long	__ZN8Palmtree4Math4Core8Internal19ArithmeticExceptionD0Ev
	.long	__ZNKSt9exception4whatEv
.lcomm __ZN8Palmtree4Math4Core8InternalL7log10_2E,8,8
	.ident	"GCC: (i686-win32-dwarf-rev0, Built by MinGW-W64 project) 8.1.0"
	.def	__ZNSt9exceptionD2Ev;	.scl	2;	.type	32;	.endef
	.def	__ZdlPvj;	.scl	2;	.type	32;	.endef
	.def	__ZN8Palmtree4Math4Core8Internal18ResourceHolderUINTC1Ev;	.scl	2;	.type	32;	.endef
	.def	__ZN8Palmtree4Math4Core8Internal27PMC_TimesOfExponentOf10_ImpEjj;	.scl	2;	.type	32;	.endef
	.def	__ZN8Palmtree4Math4Core8Internal18ResourceHolderUINT10HookNumberEPNS2_19__tag_NUMBER_HEADERE;	.scl	2;	.type	32;	.endef
	.def	__ZN8Palmtree4Math4Core8Internal20PMC_Multiply_X_I_ImpEPNS2_19__tag_NUMBER_HEADEREj;	.scl	2;	.type	32;	.endef
	.def	__ZN8Palmtree4Math4Core8Internal18ResourceHolderUINT16DeallocateNumberEPNS2_19__tag_NUMBER_HEADERE;	.scl	2;	.type	32;	.endef
	.def	__ZN8Palmtree4Math4Core8Internal19PMC_Compare_X_X_ImpEPNS2_19__tag_NUMBER_HEADERES4_;	.scl	2;	.type	32;	.endef
	.def	__ZN8Palmtree4Math4Core8Internal18ResourceHolderUINTD1Ev;	.scl	2;	.type	32;	.endef
	.def	___cxa_allocate_exception;	.scl	2;	.type	32;	.endef
	.def	___cxa_throw;	.scl	2;	.type	32;	.endef
	.def	__Unwind_Resume;	.scl	2;	.type	32;	.endef
	.def	__ZN8Palmtree4Math4Core8Internal11CheckNumberEPNS2_19__tag_NUMBER_HEADERE;	.scl	2;	.type	32;	.endef
	.def	__ZNKSt9exception4whatEv;	.scl	2;	.type	32;	.endef
