	.file	"pmc_add.c"
	.text
	.p2align 4,,15
	.def	_DoCarry;	.scl	3;	.type	32;	.endef
_DoCarry:
LFB5532:
	.cfi_startproc
	pushl	%ebp
	.cfi_def_cfa_offset 8
	.cfi_offset 5, -8
	pushl	%edi
	.cfi_def_cfa_offset 12
	.cfi_offset 7, -12
	pushl	%esi
	.cfi_def_cfa_offset 16
	.cfi_offset 6, -16
	movl	%edx, %esi
	movl	%eax, %edx
	pushl	%ebx
	.cfi_def_cfa_offset 20
	.cfi_offset 3, -20
	movl	20(%esp), %ebp
	testl	%ecx, %ecx
	je	L9
	movl	%ecx, %ebx
	movl	%ebp, %edi
	testb	%al, %al
	jne	L3
	jmp	L8
	.p2align 4,,10
L23:
	movl	%edi, %ebp
	testb	%dl, %dl
	je	L8
L3:
	addl	$4, %esi
	movl	-4(%esi), %eax
	addb	$-1, %dl
	movl	$0, %edx
	leal	4(%ebp), %edi
	adcl	%edx, %eax
	movl	%eax, 0(%ebp)
	movl	24(%esp), %eax
	setc	%dl
	subl	$1, %ebx
	addl	%ebx, %eax
	subl	%ecx, %eax
	testl	%ebx, %ebx
	jne	L23
L2:
	testb	%dl, %dl
	je	L5
	testl	%eax, %eax
	je	L11
	movl	$1, (%edi)
	xorl	%eax, %eax
	popl	%ebx
	.cfi_remember_state
	.cfi_restore 3
	.cfi_def_cfa_offset 16
	popl	%esi
	.cfi_restore 6
	.cfi_def_cfa_offset 12
	popl	%edi
	.cfi_restore 7
	.cfi_def_cfa_offset 8
	popl	%ebp
	.cfi_restore 5
	.cfi_def_cfa_offset 4
	ret
	.p2align 4,,10
L8:
	.cfi_restore_state
	movsl
	subl	$1, %ebx
	jne	L8
L5:
	xorl	%eax, %eax
L1:
	popl	%ebx
	.cfi_remember_state
	.cfi_restore 3
	.cfi_def_cfa_offset 16
	popl	%esi
	.cfi_restore 6
	.cfi_def_cfa_offset 12
	popl	%edi
	.cfi_restore 7
	.cfi_def_cfa_offset 8
	popl	%ebp
	.cfi_restore 5
	.cfi_def_cfa_offset 4
	ret
L9:
	.cfi_restore_state
	movl	24(%esp), %eax
	movl	%ebp, %edi
	jmp	L2
L11:
	movl	$-256, %eax
	jmp	L1
	.cfi_endproc
LFE5532:
	.p2align 4,,15
	.def	_Add_Imp_using_ADC;	.scl	3;	.type	32;	.endef
_Add_Imp_using_ADC:
LFB5535:
	.cfi_startproc
	pushl	%ebp
	.cfi_def_cfa_offset 8
	.cfi_offset 5, -8
	pushl	%edi
	.cfi_def_cfa_offset 12
	.cfi_offset 7, -12
	pushl	%esi
	.cfi_def_cfa_offset 16
	.cfi_offset 6, -16
	pushl	%ebx
	.cfi_def_cfa_offset 20
	.cfi_offset 3, -20
	subl	$36, %esp
	.cfi_def_cfa_offset 56
	movl	72(%esp), %eax
	movl	56(%esp), %edx
	movl	60(%esp), %edi
	movl	64(%esp), %ecx
	movl	68(%esp), %esi
	movl	%eax, 16(%esp)
	movl	76(%esp), %eax
	movl	%edx, 8(%esp)
	movl	%edi, 24(%esp)
	movl	%ecx, 20(%esp)
	movl	%esi, 12(%esp)
	movl	%eax, 28(%esp)
	cmpl	%esi, %edi
	jnb	L29
	movl	%esi, 24(%esp)
	movl	%edi, 12(%esp)
	movl	%ecx, 8(%esp)
	movl	%edx, 20(%esp)
L29:
	movl	12(%esp), %eax
	shrl	$5, %eax
	movl	%eax, 32(%esp)
	je	L37
	movl	16(%esp), %ebp
	movl	20(%esp), %edi
	movl	%eax, 4(%esp)
	movl	8(%esp), %eax
	movl	%eax, (%esp)
	xorl	%eax, %eax
	.p2align 4,,10
L31:
	movl	(%esp), %edx
	movl	%edi, %ebx
	movl	%ebp, %esi
/APP
 # 76 "../autogenerated_inline_func.h" 1
	addb	$-1, %al
	movl	(%edx), %ecx
	adcl	(%ebx), %ecx
	movl	%ecx, (%esi)
	movl	4(%edx), %ecx
	adcl	4(%ebx), %ecx
	movl	%ecx, 4(%esi)
	movl	8(%edx), %ecx
	adcl	8(%ebx), %ecx
	movl	%ecx, 8(%esi)
	movl	12(%edx), %ecx
	adcl	12(%ebx), %ecx
	movl	%ecx, 12(%esi)
	movl	16(%edx), %ecx
	adcl	16(%ebx), %ecx
	movl	%ecx, 16(%esi)
	movl	20(%edx), %ecx
	adcl	20(%ebx), %ecx
	movl	%ecx, 20(%esi)
	movl	24(%edx), %ecx
	adcl	24(%ebx), %ecx
	movl	%ecx, 24(%esi)
	movl	28(%edx), %ecx
	adcl	28(%ebx), %ecx
	movl	%ecx, 28(%esi)
	movl	32(%edx), %ecx
	adcl	32(%ebx), %ecx
	movl	%ecx, 32(%esi)
	movl	36(%edx), %ecx
	adcl	36(%ebx), %ecx
	movl	%ecx, 36(%esi)
	movl	40(%edx), %ecx
	adcl	40(%ebx), %ecx
	movl	%ecx, 40(%esi)
	movl	44(%edx), %ecx
	adcl	44(%ebx), %ecx
	movl	%ecx, 44(%esi)
	movl	48(%edx), %ecx
	adcl	48(%ebx), %ecx
	movl	%ecx, 48(%esi)
	movl	52(%edx), %ecx
	adcl	52(%ebx), %ecx
	movl	%ecx, 52(%esi)
	movl	56(%edx), %ecx
	adcl	56(%ebx), %ecx
	movl	%ecx, 56(%esi)
	movl	60(%edx), %ecx
	adcl	60(%ebx), %ecx
	movl	%ecx, 60(%esi)
	movl	64(%edx), %ecx
	adcl	64(%ebx), %ecx
	movl	%ecx, 64(%esi)
	movl	68(%edx), %ecx
	adcl	68(%ebx), %ecx
	movl	%ecx, 68(%esi)
	movl	72(%edx), %ecx
	adcl	72(%ebx), %ecx
	movl	%ecx, 72(%esi)
	movl	76(%edx), %ecx
	adcl	76(%ebx), %ecx
	movl	%ecx, 76(%esi)
	movl	80(%edx), %ecx
	adcl	80(%ebx), %ecx
	movl	%ecx, 80(%esi)
	movl	84(%edx), %ecx
	adcl	84(%ebx), %ecx
	movl	%ecx, 84(%esi)
	movl	88(%edx), %ecx
	adcl	88(%ebx), %ecx
	movl	%ecx, 88(%esi)
	movl	92(%edx), %ecx
	adcl	92(%ebx), %ecx
	movl	%ecx, 92(%esi)
	movl	96(%edx), %ecx
	adcl	96(%ebx), %ecx
	movl	%ecx, 96(%esi)
	movl	100(%edx), %ecx
	adcl	100(%ebx), %ecx
	movl	%ecx, 100(%esi)
	movl	104(%edx), %ecx
	adcl	104(%ebx), %ecx
	movl	%ecx, 104(%esi)
	movl	108(%edx), %ecx
	adcl	108(%ebx), %ecx
	movl	%ecx, 108(%esi)
	movl	112(%edx), %ecx
	adcl	112(%ebx), %ecx
	movl	%ecx, 112(%esi)
	movl	116(%edx), %ecx
	adcl	116(%ebx), %ecx
	movl	%ecx, 116(%esi)
	movl	120(%edx), %ecx
	adcl	120(%ebx), %ecx
	movl	%ecx, 120(%esi)
	movl	124(%edx), %ecx
	adcl	124(%ebx), %ecx
	movl	%ecx, 124(%esi)
	setc	%al
 # 0 "" 2
/NO_APP
	subl	$-128, (%esp)
	subl	$-128, %edi
	subl	$-128, %ebp
	subl	$1, 4(%esp)
	jne	L31
	movl	32(%esp), %edx
	sall	$7, %edx
	addl	%edx, 8(%esp)
	addl	%edx, 20(%esp)
	addl	%edx, 16(%esp)
L30:
	testb	$16, 12(%esp)
	jne	L55
	testb	$8, 12(%esp)
	jne	L56
L33:
	testb	$4, 12(%esp)
	je	L34
	movl	8(%esp), %edi
	movl	20(%esp), %ebp
	movl	16(%esp), %esi
	movl	%edi, %edx
	movl	%ebp, %ebx
/APP
 # 3880 "../autogenerated_inline_func.h" 1
	addb	$-1, %al
	movl	(%edx), %ecx
	adcl	(%ebx), %ecx
	movl	%ecx, (%esi)
	movl	4(%edx), %ecx
	adcl	4(%ebx), %ecx
	movl	%ecx, 4(%esi)
	movl	8(%edx), %ecx
	adcl	8(%ebx), %ecx
	movl	%ecx, 8(%esi)
	movl	12(%edx), %ecx
	adcl	12(%ebx), %ecx
	movl	%ecx, 12(%esi)
	setc	%al
 # 0 "" 2
/NO_APP
	addl	$16, %edi
	addl	$16, %ebp
	addl	$16, 16(%esp)
	movl	%edi, 8(%esp)
	movl	%ebp, 20(%esp)
L34:
	testb	$2, 12(%esp)
	je	L35
	movl	8(%esp), %edi
	movl	20(%esp), %ebp
	movl	16(%esp), %esi
	movl	%edi, %edx
	movl	%ebp, %ebx
/APP
 # 4334 "../autogenerated_inline_func.h" 1
	addb	$-1, %al
	movl	(%edx), %ecx
	adcl	(%ebx), %ecx
	movl	%ecx, (%esi)
	movl	4(%edx), %ecx
	adcl	4(%ebx), %ecx
	movl	%ecx, 4(%esi)
	setc	%al
 # 0 "" 2
/NO_APP
	addl	$8, %edi
	addl	$8, %ebp
	addl	$8, 16(%esp)
	movl	%edi, 8(%esp)
	movl	%ebp, 20(%esp)
L35:
	testb	$1, 12(%esp)
	je	L36
	movl	8(%esp), %ecx
	movl	20(%esp), %esi
	addb	$-1, %al
	movl	(%ecx), %ebx
	movl	(%esi), %edx
	movl	%ebx, %eax
	movl	%ebx, (%esp)
	adcl	%edx, %eax
	movl	16(%esp), %edx
	movl	%eax, (%edx)
	setc	%al
	addl	$4, %edx
	addl	$4, %ecx
	movl	%edx, 16(%esp)
	movl	%ecx, 8(%esp)
L36:
	movl	12(%esp), %edi
	movl	28(%esp), %edx
	movsbl	%al, %eax
	movl	16(%esp), %esi
	movl	24(%esp), %ecx
	subl	%edi, %edx
	movl	%edx, 60(%esp)
	movl	8(%esp), %edx
	subl	%edi, %ecx
	movl	%esi, 56(%esp)
	addl	$36, %esp
	.cfi_remember_state
	.cfi_def_cfa_offset 20
	popl	%ebx
	.cfi_restore 3
	.cfi_def_cfa_offset 16
	popl	%esi
	.cfi_restore 6
	.cfi_def_cfa_offset 12
	popl	%edi
	.cfi_restore 7
	.cfi_def_cfa_offset 8
	popl	%ebp
	.cfi_restore 5
	.cfi_def_cfa_offset 4
	jmp	_DoCarry
	.p2align 4,,10
L55:
	.cfi_restore_state
	movl	8(%esp), %edi
	movl	20(%esp), %ebp
	movl	16(%esp), %esi
	movl	%edi, %edx
	movl	%ebp, %ebx
/APP
 # 2084 "../autogenerated_inline_func.h" 1
	addb	$-1, %al
	movl	(%edx), %ecx
	adcl	(%ebx), %ecx
	movl	%ecx, (%esi)
	movl	4(%edx), %ecx
	adcl	4(%ebx), %ecx
	movl	%ecx, 4(%esi)
	movl	8(%edx), %ecx
	adcl	8(%ebx), %ecx
	movl	%ecx, 8(%esi)
	movl	12(%edx), %ecx
	adcl	12(%ebx), %ecx
	movl	%ecx, 12(%esi)
	movl	16(%edx), %ecx
	adcl	16(%ebx), %ecx
	movl	%ecx, 16(%esi)
	movl	20(%edx), %ecx
	adcl	20(%ebx), %ecx
	movl	%ecx, 20(%esi)
	movl	24(%edx), %ecx
	adcl	24(%ebx), %ecx
	movl	%ecx, 24(%esi)
	movl	28(%edx), %ecx
	adcl	28(%ebx), %ecx
	movl	%ecx, 28(%esi)
	movl	32(%edx), %ecx
	adcl	32(%ebx), %ecx
	movl	%ecx, 32(%esi)
	movl	36(%edx), %ecx
	adcl	36(%ebx), %ecx
	movl	%ecx, 36(%esi)
	movl	40(%edx), %ecx
	adcl	40(%ebx), %ecx
	movl	%ecx, 40(%esi)
	movl	44(%edx), %ecx
	adcl	44(%ebx), %ecx
	movl	%ecx, 44(%esi)
	movl	48(%edx), %ecx
	adcl	48(%ebx), %ecx
	movl	%ecx, 48(%esi)
	movl	52(%edx), %ecx
	adcl	52(%ebx), %ecx
	movl	%ecx, 52(%esi)
	movl	56(%edx), %ecx
	adcl	56(%ebx), %ecx
	movl	%ecx, 56(%esi)
	movl	60(%edx), %ecx
	adcl	60(%ebx), %ecx
	movl	%ecx, 60(%esi)
	setc	%al
 # 0 "" 2
/NO_APP
	addl	$64, %edi
	addl	$64, %ebp
	addl	$64, 16(%esp)
	movl	%edi, 8(%esp)
	movl	%ebp, 20(%esp)
	testb	$8, 12(%esp)
	je	L33
L56:
	movl	8(%esp), %edi
	movl	20(%esp), %ebp
	movl	16(%esp), %esi
	movl	%edi, %edx
	movl	%ebp, %ebx
/APP
 # 3204 "../autogenerated_inline_func.h" 1
	addb	$-1, %al
	movl	(%edx), %ecx
	adcl	(%ebx), %ecx
	movl	%ecx, (%esi)
	movl	4(%edx), %ecx
	adcl	4(%ebx), %ecx
	movl	%ecx, 4(%esi)
	movl	8(%edx), %ecx
	adcl	8(%ebx), %ecx
	movl	%ecx, 8(%esi)
	movl	12(%edx), %ecx
	adcl	12(%ebx), %ecx
	movl	%ecx, 12(%esi)
	movl	16(%edx), %ecx
	adcl	16(%ebx), %ecx
	movl	%ecx, 16(%esi)
	movl	20(%edx), %ecx
	adcl	20(%ebx), %ecx
	movl	%ecx, 20(%esi)
	movl	24(%edx), %ecx
	adcl	24(%ebx), %ecx
	movl	%ecx, 24(%esi)
	movl	28(%edx), %ecx
	adcl	28(%ebx), %ecx
	movl	%ecx, 28(%esi)
	setc	%al
 # 0 "" 2
/NO_APP
	addl	$32, %edi
	addl	$32, %ebp
	addl	$32, 16(%esp)
	movl	%edi, 8(%esp)
	movl	%ebp, 20(%esp)
	jmp	L33
	.p2align 4,,10
L37:
	xorl	%eax, %eax
	jmp	L30
	.cfi_endproc
LFE5535:
	.p2align 4,,15
	.def	_Add_Imp_using_ADCX;	.scl	3;	.type	32;	.endef
_Add_Imp_using_ADCX:
LFB5536:
	.cfi_startproc
	pushl	%ebp
	.cfi_def_cfa_offset 8
	.cfi_offset 5, -8
	pushl	%edi
	.cfi_def_cfa_offset 12
	.cfi_offset 7, -12
	pushl	%esi
	.cfi_def_cfa_offset 16
	.cfi_offset 6, -16
	pushl	%ebx
	.cfi_def_cfa_offset 20
	.cfi_offset 3, -20
	subl	$36, %esp
	.cfi_def_cfa_offset 56
	movl	72(%esp), %eax
	movl	56(%esp), %edx
	movl	60(%esp), %edi
	movl	64(%esp), %ecx
	movl	68(%esp), %esi
	movl	%eax, 16(%esp)
	movl	76(%esp), %eax
	movl	%edx, 8(%esp)
	movl	%edi, 24(%esp)
	movl	%ecx, 20(%esp)
	movl	%esi, 12(%esp)
	movl	%eax, 28(%esp)
	cmpl	%esi, %edi
	jnb	L58
	movl	%esi, 24(%esp)
	movl	%edi, 12(%esp)
	movl	%ecx, 8(%esp)
	movl	%edx, 20(%esp)
L58:
	movl	12(%esp), %eax
	shrl	$5, %eax
	movl	%eax, 32(%esp)
	je	L66
	movl	16(%esp), %ebp
	movl	20(%esp), %edi
	movl	%eax, 4(%esp)
	movl	8(%esp), %eax
	movl	%eax, (%esp)
	xorl	%eax, %eax
	.p2align 4,,10
L60:
	movl	(%esp), %edx
	movl	%edi, %ebx
	movl	%ebp, %esi
/APP
 # 329 "../autogenerated_inline_func.h" 1
	addb	$-1, %al
	movl	(%edx), %ecx
	adcxl	(%ebx), %ecx
	movl	%ecx, (%esi)
	movl	4(%edx), %ecx
	adcxl	4(%ebx), %ecx
	movl	%ecx, 4(%esi)
	movl	8(%edx), %ecx
	adcxl	8(%ebx), %ecx
	movl	%ecx, 8(%esi)
	movl	12(%edx), %ecx
	adcxl	12(%ebx), %ecx
	movl	%ecx, 12(%esi)
	movl	16(%edx), %ecx
	adcxl	16(%ebx), %ecx
	movl	%ecx, 16(%esi)
	movl	20(%edx), %ecx
	adcxl	20(%ebx), %ecx
	movl	%ecx, 20(%esi)
	movl	24(%edx), %ecx
	adcxl	24(%ebx), %ecx
	movl	%ecx, 24(%esi)
	movl	28(%edx), %ecx
	adcxl	28(%ebx), %ecx
	movl	%ecx, 28(%esi)
	movl	32(%edx), %ecx
	adcxl	32(%ebx), %ecx
	movl	%ecx, 32(%esi)
	movl	36(%edx), %ecx
	adcxl	36(%ebx), %ecx
	movl	%ecx, 36(%esi)
	movl	40(%edx), %ecx
	adcxl	40(%ebx), %ecx
	movl	%ecx, 40(%esi)
	movl	44(%edx), %ecx
	adcxl	44(%ebx), %ecx
	movl	%ecx, 44(%esi)
	movl	48(%edx), %ecx
	adcxl	48(%ebx), %ecx
	movl	%ecx, 48(%esi)
	movl	52(%edx), %ecx
	adcxl	52(%ebx), %ecx
	movl	%ecx, 52(%esi)
	movl	56(%edx), %ecx
	adcxl	56(%ebx), %ecx
	movl	%ecx, 56(%esi)
	movl	60(%edx), %ecx
	adcxl	60(%ebx), %ecx
	movl	%ecx, 60(%esi)
	movl	64(%edx), %ecx
	adcxl	64(%ebx), %ecx
	movl	%ecx, 64(%esi)
	movl	68(%edx), %ecx
	adcxl	68(%ebx), %ecx
	movl	%ecx, 68(%esi)
	movl	72(%edx), %ecx
	adcxl	72(%ebx), %ecx
	movl	%ecx, 72(%esi)
	movl	76(%edx), %ecx
	adcxl	76(%ebx), %ecx
	movl	%ecx, 76(%esi)
	movl	80(%edx), %ecx
	adcxl	80(%ebx), %ecx
	movl	%ecx, 80(%esi)
	movl	84(%edx), %ecx
	adcxl	84(%ebx), %ecx
	movl	%ecx, 84(%esi)
	movl	88(%edx), %ecx
	adcxl	88(%ebx), %ecx
	movl	%ecx, 88(%esi)
	movl	92(%edx), %ecx
	adcxl	92(%ebx), %ecx
	movl	%ecx, 92(%esi)
	movl	96(%edx), %ecx
	adcxl	96(%ebx), %ecx
	movl	%ecx, 96(%esi)
	movl	100(%edx), %ecx
	adcxl	100(%ebx), %ecx
	movl	%ecx, 100(%esi)
	movl	104(%edx), %ecx
	adcxl	104(%ebx), %ecx
	movl	%ecx, 104(%esi)
	movl	108(%edx), %ecx
	adcxl	108(%ebx), %ecx
	movl	%ecx, 108(%esi)
	movl	112(%edx), %ecx
	adcxl	112(%ebx), %ecx
	movl	%ecx, 112(%esi)
	movl	116(%edx), %ecx
	adcxl	116(%ebx), %ecx
	movl	%ecx, 116(%esi)
	movl	120(%edx), %ecx
	adcxl	120(%ebx), %ecx
	movl	%ecx, 120(%esi)
	movl	124(%edx), %ecx
	adcxl	124(%ebx), %ecx
	movl	%ecx, 124(%esi)
	setc	%al
 # 0 "" 2
/NO_APP
	subl	$-128, (%esp)
	subl	$-128, %edi
	subl	$-128, %ebp
	subl	$1, 4(%esp)
	jne	L60
	movl	32(%esp), %edx
	sall	$7, %edx
	addl	%edx, 8(%esp)
	addl	%edx, 20(%esp)
	addl	%edx, 16(%esp)
L59:
	testb	$16, 12(%esp)
	jne	L84
	testb	$8, 12(%esp)
	jne	L85
L62:
	testb	$4, 12(%esp)
	je	L63
	movl	8(%esp), %edi
	movl	20(%esp), %ebp
	movl	16(%esp), %esi
	movl	%edi, %edx
	movl	%ebp, %ebx
/APP
 # 3937 "../autogenerated_inline_func.h" 1
	addb	$-1, %al
	movl	(%edx), %ecx
	adcxl	(%ebx), %ecx
	movl	%ecx, (%esi)
	movl	4(%edx), %ecx
	adcxl	4(%ebx), %ecx
	movl	%ecx, 4(%esi)
	movl	8(%edx), %ecx
	adcxl	8(%ebx), %ecx
	movl	%ecx, 8(%esi)
	movl	12(%edx), %ecx
	adcxl	12(%ebx), %ecx
	movl	%ecx, 12(%esi)
	setc	%al
 # 0 "" 2
/NO_APP
	addl	$16, %edi
	addl	$16, %ebp
	addl	$16, 16(%esp)
	movl	%edi, 8(%esp)
	movl	%ebp, 20(%esp)
L63:
	testb	$2, 12(%esp)
	je	L64
	movl	8(%esp), %edi
	movl	20(%esp), %ebp
	movl	16(%esp), %esi
	movl	%edi, %edx
	movl	%ebp, %ebx
/APP
 # 4377 "../autogenerated_inline_func.h" 1
	addb	$-1, %al
	movl	(%edx), %ecx
	adcxl	(%ebx), %ecx
	movl	%ecx, (%esi)
	movl	4(%edx), %ecx
	adcxl	4(%ebx), %ecx
	movl	%ecx, 4(%esi)
	setc	%al
 # 0 "" 2
/NO_APP
	addl	$8, %edi
	addl	$8, %ebp
	addl	$8, 16(%esp)
	movl	%edi, 8(%esp)
	movl	%ebp, 20(%esp)
L64:
	testb	$1, 12(%esp)
	je	L65
	movl	8(%esp), %ecx
	movl	20(%esp), %esi
	addb	$-1, %al
	movl	(%ecx), %ebx
	movl	(%esi), %edx
	movl	%ebx, %eax
	movl	%ebx, (%esp)
	adcl	%edx, %eax
	movl	16(%esp), %edx
	movl	%eax, (%edx)
	setc	%al
	addl	$4, %edx
	addl	$4, %ecx
	movl	%edx, 16(%esp)
	movl	%ecx, 8(%esp)
L65:
	movl	12(%esp), %edi
	movl	28(%esp), %edx
	movsbl	%al, %eax
	movl	16(%esp), %esi
	movl	24(%esp), %ecx
	subl	%edi, %edx
	movl	%edx, 60(%esp)
	movl	8(%esp), %edx
	subl	%edi, %ecx
	movl	%esi, 56(%esp)
	addl	$36, %esp
	.cfi_remember_state
	.cfi_def_cfa_offset 20
	popl	%ebx
	.cfi_restore 3
	.cfi_def_cfa_offset 16
	popl	%esi
	.cfi_restore 6
	.cfi_def_cfa_offset 12
	popl	%edi
	.cfi_restore 7
	.cfi_def_cfa_offset 8
	popl	%ebp
	.cfi_restore 5
	.cfi_def_cfa_offset 4
	jmp	_DoCarry
	.p2align 4,,10
L84:
	.cfi_restore_state
	movl	8(%esp), %edi
	movl	20(%esp), %ebp
	movl	16(%esp), %esi
	movl	%edi, %edx
	movl	%ebp, %ebx
/APP
 # 2225 "../autogenerated_inline_func.h" 1
	addb	$-1, %al
	movl	(%edx), %ecx
	adcxl	(%ebx), %ecx
	movl	%ecx, (%esi)
	movl	4(%edx), %ecx
	adcxl	4(%ebx), %ecx
	movl	%ecx, 4(%esi)
	movl	8(%edx), %ecx
	adcxl	8(%ebx), %ecx
	movl	%ecx, 8(%esi)
	movl	12(%edx), %ecx
	adcxl	12(%ebx), %ecx
	movl	%ecx, 12(%esi)
	movl	16(%edx), %ecx
	adcxl	16(%ebx), %ecx
	movl	%ecx, 16(%esi)
	movl	20(%edx), %ecx
	adcxl	20(%ebx), %ecx
	movl	%ecx, 20(%esi)
	movl	24(%edx), %ecx
	adcxl	24(%ebx), %ecx
	movl	%ecx, 24(%esi)
	movl	28(%edx), %ecx
	adcxl	28(%ebx), %ecx
	movl	%ecx, 28(%esi)
	movl	32(%edx), %ecx
	adcxl	32(%ebx), %ecx
	movl	%ecx, 32(%esi)
	movl	36(%edx), %ecx
	adcxl	36(%ebx), %ecx
	movl	%ecx, 36(%esi)
	movl	40(%edx), %ecx
	adcxl	40(%ebx), %ecx
	movl	%ecx, 40(%esi)
	movl	44(%edx), %ecx
	adcxl	44(%ebx), %ecx
	movl	%ecx, 44(%esi)
	movl	48(%edx), %ecx
	adcxl	48(%ebx), %ecx
	movl	%ecx, 48(%esi)
	movl	52(%edx), %ecx
	adcxl	52(%ebx), %ecx
	movl	%ecx, 52(%esi)
	movl	56(%edx), %ecx
	adcxl	56(%ebx), %ecx
	movl	%ecx, 56(%esi)
	movl	60(%edx), %ecx
	adcxl	60(%ebx), %ecx
	movl	%ecx, 60(%esi)
	setc	%al
 # 0 "" 2
/NO_APP
	addl	$64, %edi
	addl	$64, %ebp
	addl	$64, 16(%esp)
	movl	%edi, 8(%esp)
	movl	%ebp, 20(%esp)
	testb	$8, 12(%esp)
	je	L62
L85:
	movl	8(%esp), %edi
	movl	20(%esp), %ebp
	movl	16(%esp), %esi
	movl	%edi, %edx
	movl	%ebp, %ebx
/APP
 # 3289 "../autogenerated_inline_func.h" 1
	addb	$-1, %al
	movl	(%edx), %ecx
	adcxl	(%ebx), %ecx
	movl	%ecx, (%esi)
	movl	4(%edx), %ecx
	adcxl	4(%ebx), %ecx
	movl	%ecx, 4(%esi)
	movl	8(%edx), %ecx
	adcxl	8(%ebx), %ecx
	movl	%ecx, 8(%esi)
	movl	12(%edx), %ecx
	adcxl	12(%ebx), %ecx
	movl	%ecx, 12(%esi)
	movl	16(%edx), %ecx
	adcxl	16(%ebx), %ecx
	movl	%ecx, 16(%esi)
	movl	20(%edx), %ecx
	adcxl	20(%ebx), %ecx
	movl	%ecx, 20(%esi)
	movl	24(%edx), %ecx
	adcxl	24(%ebx), %ecx
	movl	%ecx, 24(%esi)
	movl	28(%edx), %ecx
	adcxl	28(%ebx), %ecx
	movl	%ecx, 28(%esi)
	setc	%al
 # 0 "" 2
/NO_APP
	addl	$32, %edi
	addl	$32, %ebp
	addl	$32, 16(%esp)
	movl	%edi, 8(%esp)
	movl	%ebp, 20(%esp)
	jmp	L62
	.p2align 4,,10
L66:
	xorl	%eax, %eax
	jmp	L59
	.cfi_endproc
LFE5536:
	.p2align 4,,15
	.def	_PMC_Add_X_I_Imp;	.scl	3;	.type	32;	.endef
_PMC_Add_X_I_Imp:
LFB5537:
	.cfi_startproc
	pushl	%ebp
	.cfi_def_cfa_offset 8
	.cfi_offset 5, -8
	pushl	%edi
	.cfi_def_cfa_offset 12
	.cfi_offset 7, -12
	pushl	%esi
	.cfi_def_cfa_offset 16
	.cfi_offset 6, -16
	movl	%ecx, %esi
	pushl	%ebx
	.cfi_def_cfa_offset 20
	.cfi_offset 3, -20
	subl	$60, %esp
	.cfi_def_cfa_offset 80
	testb	$2, 24(%eax)
	je	L87
	testl	%edx, %edx
	jne	L88
	movl	$_number_zero, (%ecx)
	xorl	%eax, %eax
L86:
	addl	$60, %esp
	.cfi_remember_state
	.cfi_def_cfa_offset 20
	popl	%ebx
	.cfi_restore 3
	.cfi_def_cfa_offset 16
	popl	%esi
	.cfi_restore 6
	.cfi_def_cfa_offset 12
	popl	%edi
	.cfi_restore 7
	.cfi_def_cfa_offset 8
	popl	%ebp
	.cfi_restore 5
	.cfi_def_cfa_offset 4
	ret
	.p2align 4,,10
L87:
	.cfi_restore_state
	movl	%eax, %ebx
	testl	%edx, %edx
	jne	L90
	movl	%ecx, 4(%esp)
	movl	%eax, (%esp)
	call	_DuplicateNumber
	addl	$60, %esp
	.cfi_remember_state
	.cfi_def_cfa_offset 20
	popl	%ebx
	.cfi_restore 3
	.cfi_def_cfa_offset 16
	popl	%esi
	.cfi_restore 6
	.cfi_def_cfa_offset 12
	popl	%edi
	.cfi_restore 7
	.cfi_def_cfa_offset 8
	popl	%ebp
	.cfi_restore 5
	.cfi_def_cfa_offset 4
	ret
	.p2align 4,,10
L90:
	.cfi_restore_state
	leal	44(%esp), %ecx
	movl	%edx, 28(%esp)
/APP
 # 597 "../pmc_inline_func.h" 1
	bsrl %edx, %eax
 # 0 "" 2
/NO_APP
	movl	%ecx, 8(%esp)
	addl	$1, %eax
	cmpl	%eax, 12(%ebx)
	cmovnb	12(%ebx), %eax
	movl	%esi, (%esp)
	addl	$1, %eax
	movl	%eax, 4(%esp)
	call	_AllocateNumber
	testl	%eax, %eax
	jne	L86
	movl	(%esi), %eax
	movl	28(%esp), %edx
	movl	8(%ebx), %ecx
	movl	28(%eax), %ebp
	movl	32(%eax), %edi
	movl	32(%ebx), %eax
	addl	(%eax), %edx
	setc	%bl
	movl	%edx, (%edi)
	subl	$1, %ebp
	addl	$4, %edi
	movl	%ebp, 4(%esp)
	subl	$1, %ecx
	leal	4(%eax), %edx
	movsbl	%bl, %eax
	movl	%edi, (%esp)
	call	_DoCarry
	testl	%eax, %eax
	jne	L94
	movl	44(%esp), %eax
	movl	%eax, 4(%esp)
	movl	(%esi), %eax
	movl	32(%eax), %eax
	movl	%eax, (%esp)
	call	_CheckBlockLight
	testl	%eax, %eax
	jne	L86
	movl	(%esi), %edx
	movl	%eax, 28(%esp)
	movl	%edx, (%esp)
	call	_CommitNumber
	movl	28(%esp), %eax
	jmp	L86
	.p2align 4,,10
L88:
	movl	%ecx, 4(%esp)
	movl	%edx, (%esp)
	call	_From_I_Imp
	addl	$60, %esp
	.cfi_remember_state
	.cfi_def_cfa_offset 20
	popl	%ebx
	.cfi_restore 3
	.cfi_def_cfa_offset 16
	popl	%esi
	.cfi_restore 6
	.cfi_def_cfa_offset 12
	popl	%edi
	.cfi_restore 7
	.cfi_def_cfa_offset 8
	popl	%ebp
	.cfi_restore 5
	.cfi_def_cfa_offset 4
	ret
	.p2align 4,,10
L94:
	.cfi_restore_state
	movl	(%esi), %edx
	movl	%eax, 28(%esp)
	movl	%edx, (%esp)
	call	_DeallocateNumber
	movl	28(%esp), %eax
	jmp	L86
	.cfi_endproc
LFE5537:
	.p2align 4,,15
	.def	_PMC_Add_X_L_Imp;	.scl	3;	.type	32;	.endef
_PMC_Add_X_L_Imp:
LFB5540:
	.cfi_startproc
	pushl	%ebp
	.cfi_def_cfa_offset 8
	.cfi_offset 5, -8
	pushl	%edi
	.cfi_def_cfa_offset 12
	.cfi_offset 7, -12
	pushl	%esi
	.cfi_def_cfa_offset 16
	.cfi_offset 6, -16
	pushl	%ebx
	.cfi_def_cfa_offset 20
	.cfi_offset 3, -20
	movl	%edx, %ebx
	subl	$60, %esp
	.cfi_def_cfa_offset 80
	movl	80(%esp), %ebp
	testb	$2, 24(%eax)
	je	L96
	movl	%ecx, %eax
	orl	%edx, %eax
	jne	L97
	movl	$_number_zero, 0(%ebp)
	xorl	%eax, %eax
L95:
	addl	$60, %esp
	.cfi_remember_state
	.cfi_def_cfa_offset 20
	popl	%ebx
	.cfi_restore 3
	.cfi_def_cfa_offset 16
	popl	%esi
	.cfi_restore 6
	.cfi_def_cfa_offset 12
	popl	%edi
	.cfi_restore 7
	.cfi_def_cfa_offset 8
	popl	%ebp
	.cfi_restore 5
	.cfi_def_cfa_offset 4
	ret
	.p2align 4,,10
L96:
	.cfi_restore_state
	movl	%eax, %esi
	movl	%ecx, %eax
	orl	%edx, %eax
	je	L119
	movl	12(%esi), %eax
	testl	%ecx, %ecx
	jne	L100
	testl	%edx, %edx
	je	L101
/APP
 # 597 "../pmc_inline_func.h" 1
	bsrl %edx, %edx
 # 0 "" 2
/NO_APP
	addl	$1, %edx
	cmpl	%edx, %eax
	cmovb	%edx, %eax
L101:
	addl	$1, %eax
	leal	44(%esp), %edx
	movl	%ebp, (%esp)
	movl	%edx, 8(%esp)
	movl	%eax, 4(%esp)
	call	_AllocateNumber
	testl	%eax, %eax
	jne	L95
	movl	0(%ebp), %eax
	movl	32(%esi), %edx
	movl	8(%esi), %ecx
	movl	28(%eax), %edi
	addl	(%edx), %ebx
	movl	%edi, 20(%esp)
	movl	32(%eax), %edi
	setc	%al
	subl	$1, %ecx
	addl	$4, %edx
	movsbl	%al, %eax
	movl	%ebx, (%edi)
	movl	20(%esp), %esi
	addl	$4, %edi
	movl	%edi, (%esp)
	leal	-1(%esi), %ebx
	movl	%ebx, 4(%esp)
	call	_DoCarry
	testl	%eax, %eax
	jne	L120
L108:
	movl	44(%esp), %eax
	movl	%eax, 4(%esp)
	movl	0(%ebp), %eax
	movl	32(%eax), %eax
	movl	%eax, (%esp)
	call	_CheckBlockLight
	testl	%eax, %eax
	jne	L95
	movl	0(%ebp), %eax
	movl	%eax, (%esp)
	call	_CommitNumber
	xorl	%eax, %eax
	jmp	L95
	.p2align 4,,10
L97:
	movl	%ebp, 8(%esp)
	movl	%edx, (%esp)
	movl	%ecx, 4(%esp)
	call	_From_L_Imp
	addl	$60, %esp
	.cfi_remember_state
	.cfi_def_cfa_offset 20
	popl	%ebx
	.cfi_restore 3
	.cfi_def_cfa_offset 16
	popl	%esi
	.cfi_restore 6
	.cfi_def_cfa_offset 12
	popl	%edi
	.cfi_restore 7
	.cfi_def_cfa_offset 8
	popl	%ebp
	.cfi_restore 5
	.cfi_def_cfa_offset 4
	ret
	.p2align 4,,10
L119:
	.cfi_restore_state
	movl	%ebp, 4(%esp)
	movl	%esi, (%esp)
	call	_DuplicateNumber
	addl	$60, %esp
	.cfi_remember_state
	.cfi_def_cfa_offset 20
	popl	%ebx
	.cfi_restore 3
	.cfi_def_cfa_offset 16
	popl	%esi
	.cfi_restore 6
	.cfi_def_cfa_offset 12
	popl	%edi
	.cfi_restore 7
	.cfi_def_cfa_offset 8
	popl	%ebp
	.cfi_restore 5
	.cfi_def_cfa_offset 4
	ret
	.p2align 4,,10
L100:
	.cfi_restore_state
/APP
 # 597 "../pmc_inline_func.h" 1
	bsrl %ecx, %edx
 # 0 "" 2
/NO_APP
	addl	$33, %edx
	leal	44(%esp), %edi
	movl	%ebp, (%esp)
	cmpl	%eax, %edx
	movl	%edi, 8(%esp)
	cmovnb	%edx, %eax
	movl	%ecx, 20(%esp)
	addl	$1, %eax
	movl	%eax, 4(%esp)
	call	_AllocateNumber
	testl	%eax, %eax
	jne	L95
	movl	8(%esi), %ecx
	movl	0(%ebp), %edi
	movl	32(%esi), %edx
	cmpl	$1, %ecx
	movl	%edi, 24(%esp)
	movl	32(%edi), %edi
	movl	%ecx, 28(%esp)
	movl	(%edx), %esi
	movl	20(%esp), %ecx
	ja	L106
	addl	%esi, %ebx
	setc	%dl
	movl	%ebx, (%edi)
	addb	$-1, %dl
	adcl	%ecx, %eax
	movl	%eax, 4(%edi)
	jnc	L108
	movl	$1, 8(%edi)
	jmp	L108
	.p2align 4,,10
L106:
	movl	24(%esp), %eax
	addl	%esi, %ebx
	movl	28(%eax), %eax
	movl	%eax, 20(%esp)
	setc	%al
	movl	%ebx, (%edi)
	addb	$-1, %al
	adcl	4(%edx), %ecx
	movl	%ecx, 4(%edi)
	movl	20(%esp), %esi
	setc	%al
	addl	$8, %edi
	movl	28(%esp), %ecx
	movl	%edi, (%esp)
	addl	$8, %edx
	movsbl	%al, %eax
	leal	-2(%esi), %ebx
	movl	%ebx, 4(%esp)
	subl	$2, %ecx
	call	_DoCarry
	testl	%eax, %eax
	movl	%eax, 20(%esp)
	je	L108
	movl	0(%ebp), %edx
	movl	%edx, (%esp)
	call	_DeallocateNumber
	movl	20(%esp), %eax
	jmp	L95
	.p2align 4,,10
L120:
	movl	0(%ebp), %edx
	movl	%eax, 20(%esp)
	movl	%edx, (%esp)
	call	_DeallocateNumber
	movl	20(%esp), %eax
	jmp	L95
	.cfi_endproc
LFE5540:
	.p2align 4,,15
	.globl	_PMC_Add_I_X@12
	.def	_PMC_Add_I_X@12;	.scl	2;	.type	32;	.endef
_PMC_Add_I_X@12:
LFB5538:
	.cfi_startproc
	pushl	%esi
	.cfi_def_cfa_offset 8
	.cfi_offset 6, -8
	pushl	%ebx
	.cfi_def_cfa_offset 12
	.cfi_offset 3, -12
	subl	$20, %esp
	.cfi_def_cfa_offset 32
	movl	40(%esp), %esi
	movl	36(%esp), %ebx
	testl	%esi, %esi
	je	L123
	testl	%ebx, %ebx
	je	L123
	movl	%ebx, (%esp)
	call	_CheckNumber
	testl	%eax, %eax
	jne	L121
	movl	32(%esp), %edx
	movl	%esi, %ecx
	movl	%ebx, %eax
	call	_PMC_Add_X_I_Imp
L121:
	addl	$20, %esp
	.cfi_remember_state
	.cfi_def_cfa_offset 12
	popl	%ebx
	.cfi_restore 3
	.cfi_def_cfa_offset 8
	popl	%esi
	.cfi_restore 6
	.cfi_def_cfa_offset 4
	ret	$12
	.p2align 4,,10
L123:
	.cfi_restore_state
	movl	$-1, %eax
	jmp	L121
	.cfi_endproc
LFE5538:
	.p2align 4,,15
	.globl	_PMC_Add_X_I@12
	.def	_PMC_Add_X_I@12;	.scl	2;	.type	32;	.endef
_PMC_Add_X_I@12:
LFB5539:
	.cfi_startproc
	pushl	%esi
	.cfi_def_cfa_offset 8
	.cfi_offset 6, -8
	pushl	%ebx
	.cfi_def_cfa_offset 12
	.cfi_offset 3, -12
	subl	$20, %esp
	.cfi_def_cfa_offset 32
	movl	40(%esp), %esi
	movl	32(%esp), %ebx
	testl	%esi, %esi
	je	L127
	testl	%ebx, %ebx
	je	L127
	movl	%ebx, (%esp)
	call	_CheckNumber
	testl	%eax, %eax
	jne	L125
	movl	36(%esp), %edx
	movl	%esi, %ecx
	movl	%ebx, %eax
	call	_PMC_Add_X_I_Imp
L125:
	addl	$20, %esp
	.cfi_remember_state
	.cfi_def_cfa_offset 12
	popl	%ebx
	.cfi_restore 3
	.cfi_def_cfa_offset 8
	popl	%esi
	.cfi_restore 6
	.cfi_def_cfa_offset 4
	ret	$12
	.p2align 4,,10
L127:
	.cfi_restore_state
	movl	$-1, %eax
	jmp	L125
	.cfi_endproc
LFE5539:
	.p2align 4,,15
	.globl	_PMC_Add_L_X@16
	.def	_PMC_Add_L_X@16;	.scl	2;	.type	32;	.endef
_PMC_Add_L_X@16:
LFB5541:
	.cfi_startproc
	pushl	%esi
	.cfi_def_cfa_offset 8
	.cfi_offset 6, -8
	pushl	%ebx
	.cfi_def_cfa_offset 12
	.cfi_offset 3, -12
	subl	$36, %esp
	.cfi_def_cfa_offset 48
	movl	48(%esp), %edx
	movl	52(%esp), %ecx
	movl	60(%esp), %esi
	movl	56(%esp), %ebx
	movl	%edx, 24(%esp)
	movl	%ecx, 28(%esp)
	testl	%esi, %esi
	je	L131
	testl	%ebx, %ebx
	je	L131
	movl	%ebx, (%esp)
	call	_CheckNumber
	testl	%eax, %eax
	jne	L129
	movl	24(%esp), %edx
	movl	28(%esp), %ecx
	movl	%esi, (%esp)
	movl	%ebx, %eax
	call	_PMC_Add_X_L_Imp
L129:
	addl	$36, %esp
	.cfi_remember_state
	.cfi_def_cfa_offset 12
	popl	%ebx
	.cfi_restore 3
	.cfi_def_cfa_offset 8
	popl	%esi
	.cfi_restore 6
	.cfi_def_cfa_offset 4
	ret	$16
	.p2align 4,,10
L131:
	.cfi_restore_state
	movl	$-1, %eax
	jmp	L129
	.cfi_endproc
LFE5541:
	.p2align 4,,15
	.globl	_PMC_Add_X_L@16
	.def	_PMC_Add_X_L@16;	.scl	2;	.type	32;	.endef
_PMC_Add_X_L@16:
LFB5542:
	.cfi_startproc
	pushl	%esi
	.cfi_def_cfa_offset 8
	.cfi_offset 6, -8
	pushl	%ebx
	.cfi_def_cfa_offset 12
	.cfi_offset 3, -12
	subl	$36, %esp
	.cfi_def_cfa_offset 48
	movl	52(%esp), %edx
	movl	56(%esp), %ecx
	movl	60(%esp), %esi
	movl	48(%esp), %ebx
	movl	%edx, 24(%esp)
	movl	%ecx, 28(%esp)
	testl	%esi, %esi
	je	L135
	testl	%ebx, %ebx
	je	L135
	movl	%ebx, (%esp)
	call	_CheckNumber
	testl	%eax, %eax
	jne	L133
	movl	24(%esp), %edx
	movl	28(%esp), %ecx
	movl	%esi, (%esp)
	movl	%ebx, %eax
	call	_PMC_Add_X_L_Imp
L133:
	addl	$36, %esp
	.cfi_remember_state
	.cfi_def_cfa_offset 12
	popl	%ebx
	.cfi_restore 3
	.cfi_def_cfa_offset 8
	popl	%esi
	.cfi_restore 6
	.cfi_def_cfa_offset 4
	ret	$16
	.p2align 4,,10
L135:
	.cfi_restore_state
	movl	$-1, %eax
	jmp	L133
	.cfi_endproc
LFE5542:
	.p2align 4,,15
	.globl	_PMC_Add_X_X@12
	.def	_PMC_Add_X_X@12;	.scl	2;	.type	32;	.endef
_PMC_Add_X_X@12:
LFB5543:
	.cfi_startproc
	pushl	%ebp
	.cfi_def_cfa_offset 8
	.cfi_offset 5, -8
	pushl	%edi
	.cfi_def_cfa_offset 12
	.cfi_offset 7, -12
	pushl	%esi
	.cfi_def_cfa_offset 16
	.cfi_offset 6, -16
	pushl	%ebx
	.cfi_def_cfa_offset 20
	.cfi_offset 3, -20
	subl	$60, %esp
	.cfi_def_cfa_offset 80
	movl	84(%esp), %edi
	movl	88(%esp), %ebp
	movl	80(%esp), %esi
	testl	%edi, %edi
	sete	%dl
	testl	%ebp, %ebp
	sete	%al
	orb	%al, %dl
	jne	L145
	testl	%esi, %esi
	je	L145
	movl	%esi, (%esp)
	call	_CheckNumber
	movl	%eax, %ebx
	testl	%eax, %eax
	je	L153
L137:
	addl	$60, %esp
	.cfi_remember_state
	.cfi_def_cfa_offset 20
	movl	%ebx, %eax
	popl	%ebx
	.cfi_restore 3
	.cfi_def_cfa_offset 16
	popl	%esi
	.cfi_restore 6
	.cfi_def_cfa_offset 12
	popl	%edi
	.cfi_restore 7
	.cfi_def_cfa_offset 8
	popl	%ebp
	.cfi_restore 5
	.cfi_def_cfa_offset 4
	ret	$12
	.p2align 4,,10
L153:
	.cfi_restore_state
	movl	%edi, (%esp)
	call	_CheckNumber
	movl	%eax, %ebx
	testl	%eax, %eax
	jne	L137
	movzbl	24(%edi), %eax
	andl	$2, %eax
	testb	$2, 24(%esi)
	jne	L154
	testb	%al, %al
	je	L142
	leal	40(%esp), %eax
	movl	%esi, (%esp)
	movl	%eax, 4(%esp)
	call	_DuplicateNumber
	testl	%eax, %eax
	jne	L148
L151:
	movl	40(%esp), %edx
L140:
	movl	%edx, 0(%ebp)
	addl	$60, %esp
	.cfi_remember_state
	.cfi_def_cfa_offset 20
	movl	%ebx, %eax
	popl	%ebx
	.cfi_restore 3
	.cfi_def_cfa_offset 16
	popl	%esi
	.cfi_restore 6
	.cfi_def_cfa_offset 12
	popl	%edi
	.cfi_restore 7
	.cfi_def_cfa_offset 8
	popl	%ebp
	.cfi_restore 5
	.cfi_def_cfa_offset 4
	ret	$12
	.p2align 4,,10
L154:
	.cfi_restore_state
	movl	$_number_zero, %edx
	testb	%al, %al
	jne	L140
	leal	40(%esp), %eax
	movl	%edi, (%esp)
	movl	%eax, 4(%esp)
	call	_DuplicateNumber
	testl	%eax, %eax
	je	L151
	.p2align 4,,10
L148:
	movl	%eax, %ebx
	jmp	L137
	.p2align 4,,10
L142:
	leal	44(%esp), %eax
	movl	%eax, 8(%esp)
	movl	12(%edi), %eax
	cmpl	%eax, 12(%esi)
	cmovnb	12(%esi), %eax
	addl	$1, %eax
	movl	%eax, 4(%esp)
	leal	40(%esp), %eax
	movl	%eax, (%esp)
	call	_AllocateNumber
	testl	%eax, %eax
	jne	L148
	movl	40(%esp), %eax
	movl	28(%eax), %edx
	movl	%edx, 20(%esp)
	movl	32(%eax), %eax
	movl	%eax, 16(%esp)
	movl	8(%edi), %eax
	movl	%eax, 12(%esp)
	movl	32(%edi), %eax
	movl	%eax, 8(%esp)
	movl	8(%esi), %eax
	movl	%eax, 4(%esp)
	movl	32(%esi), %eax
	movl	%eax, (%esp)
	call	*_fp_Add_Imp
	movl	%eax, %esi
	testl	%eax, %eax
	jne	L155
	movl	44(%esp), %eax
	movl	%eax, 4(%esp)
	movl	40(%esp), %eax
	movl	32(%eax), %eax
	movl	%eax, (%esp)
	call	_CheckBlockLight
	testl	%eax, %eax
	jne	L148
	movl	40(%esp), %eax
	movl	%eax, (%esp)
	call	_CommitNumber
	movl	40(%esp), %edx
	jmp	L140
	.p2align 4,,10
L155:
	movl	40(%esp), %eax
	movl	%esi, %ebx
	movl	%eax, (%esp)
	call	_DeallocateNumber
	jmp	L137
	.p2align 4,,10
L145:
	movl	$-1, %ebx
	jmp	L137
	.cfi_endproc
LFE5543:
	.p2align 4,,15
	.globl	_Initialize_Add
	.def	_Initialize_Add;	.scl	2;	.type	32;	.endef
_Initialize_Add:
LFB5544:
	.cfi_startproc
	movl	4(%esp), %eax
	movl	$_Add_Imp_using_ADC, %edx
	testb	$2, (%eax)
	movl	$_Add_Imp_using_ADCX, %eax
	cmove	%edx, %eax
	movl	%eax, _fp_Add_Imp
	xorl	%eax, %eax
	ret
	.cfi_endproc
LFE5544:
.lcomm _fp_Add_Imp,4,4
	.ident	"GCC: (i686-win32-dwarf-rev0, Built by MinGW-W64 project) 8.1.0"
	.def	_DuplicateNumber;	.scl	2;	.type	32;	.endef
	.def	_AllocateNumber;	.scl	2;	.type	32;	.endef
	.def	_CheckBlockLight;	.scl	2;	.type	32;	.endef
	.def	_CommitNumber;	.scl	2;	.type	32;	.endef
	.def	_From_I_Imp;	.scl	2;	.type	32;	.endef
	.def	_DeallocateNumber;	.scl	2;	.type	32;	.endef
	.def	_From_L_Imp;	.scl	2;	.type	32;	.endef
	.def	_CheckNumber;	.scl	2;	.type	32;	.endef
