	.file	"pmc_divrem.cpp"
	.text
	.section	.text$_ZN8Palmtree4Math4Core8Internal9ExceptionD1Ev,"x"
	.linkonce discard
	.align 2
	.p2align 4,,15
	.globl	__ZN8Palmtree4Math4Core8Internal9ExceptionD1Ev
	.def	__ZN8Palmtree4Math4Core8Internal9ExceptionD1Ev;	.scl	2;	.type	32;	.endef
__ZN8Palmtree4Math4Core8Internal9ExceptionD1Ev:
LFB617:
	.cfi_startproc
	movl	$__ZTVN8Palmtree4Math4Core8Internal9ExceptionE+8, (%ecx)
	jmp	__ZNSt9exceptionD2Ev
	.cfi_endproc
LFE617:
	.section	.text$_ZN8Palmtree4Math4Core8Internal9ExceptionD0Ev,"x"
	.linkonce discard
	.align 2
	.p2align 4,,15
	.globl	__ZN8Palmtree4Math4Core8Internal9ExceptionD0Ev
	.def	__ZN8Palmtree4Math4Core8Internal9ExceptionD0Ev;	.scl	2;	.type	32;	.endef
__ZN8Palmtree4Math4Core8Internal9ExceptionD0Ev:
LFB618:
	.cfi_startproc
	pushl	%ebx
	.cfi_def_cfa_offset 8
	.cfi_offset 3, -8
	movl	%ecx, %ebx
	subl	$24, %esp
	.cfi_def_cfa_offset 32
	movl	$__ZTVN8Palmtree4Math4Core8Internal9ExceptionE+8, (%ecx)
	call	__ZNSt9exceptionD2Ev
	movl	%ebx, (%esp)
	movl	$16, 4(%esp)
	call	__ZdlPvj
	addl	$24, %esp
	.cfi_def_cfa_offset 8
	popl	%ebx
	.cfi_restore 3
	.cfi_def_cfa_offset 4
	ret
	.cfi_endproc
LFE618:
	.section	.text$_ZN8Palmtree4Math4Core8Internal23DivisionByZeroExceptionD1Ev,"x"
	.linkonce discard
	.align 2
	.p2align 4,,15
	.globl	__ZN8Palmtree4Math4Core8Internal23DivisionByZeroExceptionD1Ev
	.def	__ZN8Palmtree4Math4Core8Internal23DivisionByZeroExceptionD1Ev;	.scl	2;	.type	32;	.endef
__ZN8Palmtree4Math4Core8Internal23DivisionByZeroExceptionD1Ev:
LFB670:
	.cfi_startproc
	movl	$__ZTVN8Palmtree4Math4Core8Internal9ExceptionE+8, (%ecx)
	jmp	__ZNSt9exceptionD2Ev
	.cfi_endproc
LFE670:
	.section	.text$_ZN8Palmtree4Math4Core8Internal23DivisionByZeroExceptionD0Ev,"x"
	.linkonce discard
	.align 2
	.p2align 4,,15
	.globl	__ZN8Palmtree4Math4Core8Internal23DivisionByZeroExceptionD0Ev
	.def	__ZN8Palmtree4Math4Core8Internal23DivisionByZeroExceptionD0Ev;	.scl	2;	.type	32;	.endef
__ZN8Palmtree4Math4Core8Internal23DivisionByZeroExceptionD0Ev:
LFB671:
	.cfi_startproc
	pushl	%ebx
	.cfi_def_cfa_offset 8
	.cfi_offset 3, -8
	movl	%ecx, %ebx
	subl	$24, %esp
	.cfi_def_cfa_offset 32
	movl	$__ZTVN8Palmtree4Math4Core8Internal9ExceptionE+8, (%ecx)
	call	__ZNSt9exceptionD2Ev
	movl	%ebx, (%esp)
	movl	$16, 4(%esp)
	call	__ZdlPvj
	addl	$24, %esp
	.cfi_def_cfa_offset 8
	popl	%ebx
	.cfi_restore 3
	.cfi_def_cfa_offset 4
	ret
	.cfi_endproc
LFE671:
	.section	.text$_ZN8Palmtree4Math4Core8Internal21ArgumentNullExceptionD1Ev,"x"
	.linkonce discard
	.align 2
	.p2align 4,,15
	.globl	__ZN8Palmtree4Math4Core8Internal21ArgumentNullExceptionD1Ev
	.def	__ZN8Palmtree4Math4Core8Internal21ArgumentNullExceptionD1Ev;	.scl	2;	.type	32;	.endef
__ZN8Palmtree4Math4Core8Internal21ArgumentNullExceptionD1Ev:
LFB640:
	.cfi_startproc
	movl	$__ZTVN8Palmtree4Math4Core8Internal9ExceptionE+8, (%ecx)
	jmp	__ZNSt9exceptionD2Ev
	.cfi_endproc
LFE640:
	.section	.text$_ZN8Palmtree4Math4Core8Internal21ArgumentNullExceptionD0Ev,"x"
	.linkonce discard
	.align 2
	.p2align 4,,15
	.globl	__ZN8Palmtree4Math4Core8Internal21ArgumentNullExceptionD0Ev
	.def	__ZN8Palmtree4Math4Core8Internal21ArgumentNullExceptionD0Ev;	.scl	2;	.type	32;	.endef
__ZN8Palmtree4Math4Core8Internal21ArgumentNullExceptionD0Ev:
LFB641:
	.cfi_startproc
	pushl	%ebx
	.cfi_def_cfa_offset 8
	.cfi_offset 3, -8
	movl	%ecx, %ebx
	subl	$24, %esp
	.cfi_def_cfa_offset 32
	movl	$__ZTVN8Palmtree4Math4Core8Internal9ExceptionE+8, (%ecx)
	call	__ZNSt9exceptionD2Ev
	movl	%ebx, (%esp)
	movl	$16, 4(%esp)
	call	__ZdlPvj
	addl	$24, %esp
	.cfi_def_cfa_offset 8
	popl	%ebx
	.cfi_restore 3
	.cfi_def_cfa_offset 4
	ret
	.cfi_endproc
LFE641:
	.text
	.p2align 4,,15
	.def	__ZN8Palmtree4Math4Core8InternalL15SubtructOneLineEPjjS3_jjj;	.scl	3;	.type	32;	.endef
__ZN8Palmtree4Math4Core8InternalL15SubtructOneLineEPjjS3_jjj:
LFB6211:
	.cfi_startproc
	pushl	%ebp
	.cfi_def_cfa_offset 8
	.cfi_offset 5, -8
	pushl	%edi
	.cfi_def_cfa_offset 12
	.cfi_offset 7, -12
	pushl	%esi
	.cfi_def_cfa_offset 16
	.cfi_offset 6, -16
	pushl	%ebx
	.cfi_def_cfa_offset 20
	.cfi_offset 3, -20
	movl	%eax, %ebx
	subl	$40, %esp
	.cfi_def_cfa_offset 60
	movl	%eax, 12(%esp)
	movl	64(%esp), %eax
	movl	%edx, 16(%esp)
	leal	(%ebx,%eax,4), %ebx
	movl	60(%esp), %eax
	movl	%ecx, 8(%esp)
	movl	%ebx, 4(%esp)
	shrl	$5, %eax
	movl	%eax, 20(%esp)
	je	L24
	movl	%eax, (%esp)
	movl	%ecx, %esi
	xorl	%edi, %edi
	xorl	%ebp, %ebp
	.p2align 4,,10
L13:
	movl	(%esi), %eax
/APP
 # 215 "../pmc_inline_func.h" 1
	mull 68(%esp)
 # 0 "" 2
/NO_APP
	addl	%edi, %eax
	setc	%cl
	movl	%eax, 36(%esp)
	movl	%ecx, %eax
	movl	%ebp, %ecx
	addb	$-1, %al
	movl	$0, %eax
	adcl	%eax, %edx
	addb	$-1, %cl
	movl	%edx, 32(%esp)
	movl	(%ebx), %eax
	sbbl	36(%esp), %eax
	movl	%eax, (%ebx)
	setc	%cl
	movl	4(%esi), %eax
/APP
 # 215 "../pmc_inline_func.h" 1
	mull 68(%esp)
 # 0 "" 2
/NO_APP
	addl	32(%esp), %eax
	movl	%ecx, %edi
	setc	%cl
	movl	%eax, 36(%esp)
	movl	%ecx, %eax
	movl	%edi, %ecx
	addb	$-1, %al
	movl	$0, %eax
	adcl	%eax, %edx
	addb	$-1, %cl
	movl	%edx, 32(%esp)
	movl	4(%ebx), %eax
	sbbl	36(%esp), %eax
	movl	%eax, 4(%ebx)
	setc	%cl
	movl	8(%esi), %eax
/APP
 # 215 "../pmc_inline_func.h" 1
	mull 68(%esp)
 # 0 "" 2
/NO_APP
	addl	32(%esp), %eax
	movl	%ecx, %edi
	setc	%cl
	movl	%eax, 36(%esp)
	movl	%ecx, %eax
	movl	%edi, %ecx
	addb	$-1, %al
	movl	$0, %eax
	adcl	%eax, %edx
	addb	$-1, %cl
	movl	%edx, 32(%esp)
	movl	8(%ebx), %eax
	sbbl	36(%esp), %eax
	setc	%cl
	movl	%eax, 8(%ebx)
	movl	12(%esi), %eax
/APP
 # 215 "../pmc_inline_func.h" 1
	mull 68(%esp)
 # 0 "" 2
/NO_APP
	addl	32(%esp), %eax
	movl	%ecx, %edi
	setc	%cl
	movl	%eax, 36(%esp)
	movl	%ecx, %eax
	movl	%edi, %ecx
	addb	$-1, %al
	movl	$0, %eax
	adcl	%eax, %edx
	addb	$-1, %cl
	movl	%edx, 32(%esp)
	movl	12(%ebx), %eax
	sbbl	36(%esp), %eax
	movl	%eax, 12(%ebx)
	setc	%cl
	movl	16(%esi), %eax
/APP
 # 215 "../pmc_inline_func.h" 1
	mull 68(%esp)
 # 0 "" 2
/NO_APP
	addl	32(%esp), %eax
	movl	%ecx, %edi
	setc	%cl
	movl	%eax, 36(%esp)
	movl	%ecx, %eax
	movl	%edi, %ecx
	addb	$-1, %al
	movl	$0, %eax
	adcl	%eax, %edx
	addb	$-1, %cl
	movl	%edx, 32(%esp)
	movl	16(%ebx), %eax
	sbbl	36(%esp), %eax
	movl	%eax, 16(%ebx)
	setc	%cl
	movl	20(%esi), %eax
/APP
 # 215 "../pmc_inline_func.h" 1
	mull 68(%esp)
 # 0 "" 2
/NO_APP
	addl	32(%esp), %eax
	movl	%ecx, %edi
	setc	%cl
	movl	%eax, 36(%esp)
	movl	%ecx, %eax
	movl	%edi, %ecx
	addb	$-1, %al
	movl	$0, %eax
	adcl	%eax, %edx
	addb	$-1, %cl
	movl	%edx, 32(%esp)
	movl	20(%ebx), %eax
	sbbl	36(%esp), %eax
	setc	%cl
	movl	%eax, 20(%ebx)
	movl	24(%esi), %eax
/APP
 # 215 "../pmc_inline_func.h" 1
	mull 68(%esp)
 # 0 "" 2
/NO_APP
	addl	32(%esp), %eax
	movl	%ecx, %edi
	setc	%cl
	movl	%eax, 36(%esp)
	movl	%ecx, %eax
	movl	%edi, %ecx
	addb	$-1, %al
	movl	$0, %eax
	adcl	%eax, %edx
	addb	$-1, %cl
	movl	%edx, 32(%esp)
	movl	24(%ebx), %eax
	sbbl	36(%esp), %eax
	movl	%eax, 24(%ebx)
	setc	%cl
	movl	28(%esi), %eax
/APP
 # 215 "../pmc_inline_func.h" 1
	mull 68(%esp)
 # 0 "" 2
/NO_APP
	addl	32(%esp), %eax
	movl	%ecx, %edi
	setc	%cl
	movl	%eax, 36(%esp)
	movl	%ecx, %eax
	movl	%edi, %ecx
	addb	$-1, %al
	movl	$0, %eax
	adcl	%eax, %edx
	addb	$-1, %cl
	movl	%edx, 32(%esp)
	movl	28(%ebx), %eax
	sbbl	36(%esp), %eax
	movl	%eax, 28(%ebx)
	setc	%cl
	movl	32(%esi), %eax
/APP
 # 215 "../pmc_inline_func.h" 1
	mull 68(%esp)
 # 0 "" 2
/NO_APP
	addl	32(%esp), %eax
	movl	%ecx, %edi
	setc	%cl
	movl	%eax, 36(%esp)
	movl	%ecx, %eax
	movl	%edi, %ecx
	addb	$-1, %al
	movl	$0, %eax
	adcl	%eax, %edx
	addb	$-1, %cl
	movl	%edx, 32(%esp)
	movl	32(%ebx), %eax
	sbbl	36(%esp), %eax
	movl	%eax, 32(%ebx)
	setc	%cl
	movl	36(%esi), %eax
/APP
 # 215 "../pmc_inline_func.h" 1
	mull 68(%esp)
 # 0 "" 2
/NO_APP
	addl	32(%esp), %eax
	movl	%ecx, %edi
	setc	%cl
	movl	%eax, 36(%esp)
	movl	%ecx, %eax
	movl	%edi, %ecx
	addb	$-1, %al
	movl	$0, %eax
	adcl	%eax, %edx
	addb	$-1, %cl
	movl	%edx, 32(%esp)
	movl	36(%ebx), %eax
	sbbl	36(%esp), %eax
	movl	%eax, 36(%ebx)
	setc	%cl
	movl	40(%esi), %eax
/APP
 # 215 "../pmc_inline_func.h" 1
	mull 68(%esp)
 # 0 "" 2
/NO_APP
	addl	32(%esp), %eax
	movl	%ecx, %edi
	setc	%cl
	movl	%eax, 36(%esp)
	movl	%ecx, %eax
	movl	%edi, %ecx
	addb	$-1, %al
	movl	$0, %eax
	adcl	%eax, %edx
	addb	$-1, %cl
	movl	%edx, 32(%esp)
	movl	40(%ebx), %eax
	sbbl	36(%esp), %eax
	movl	%eax, 40(%ebx)
	setc	%cl
	movl	44(%esi), %eax
/APP
 # 215 "../pmc_inline_func.h" 1
	mull 68(%esp)
 # 0 "" 2
/NO_APP
	addl	32(%esp), %eax
	movl	%ecx, %edi
	setc	%cl
	movl	%eax, 36(%esp)
	movl	%ecx, %eax
	movl	%edi, %ecx
	addb	$-1, %al
	movl	$0, %eax
	adcl	%eax, %edx
	addb	$-1, %cl
	movl	%edx, 32(%esp)
	movl	44(%ebx), %eax
	sbbl	36(%esp), %eax
	movl	%eax, 44(%ebx)
	setc	%cl
	movl	48(%esi), %eax
/APP
 # 215 "../pmc_inline_func.h" 1
	mull 68(%esp)
 # 0 "" 2
/NO_APP
	addl	32(%esp), %eax
	movl	%ecx, %edi
	setc	%cl
	movl	%eax, 36(%esp)
	movl	%ecx, %eax
	movl	%edi, %ecx
	addb	$-1, %al
	movl	$0, %eax
	adcl	%eax, %edx
	addb	$-1, %cl
	movl	%edx, 32(%esp)
	movl	48(%ebx), %eax
	sbbl	36(%esp), %eax
	movl	%eax, 48(%ebx)
	setc	%cl
	movl	52(%esi), %eax
/APP
 # 215 "../pmc_inline_func.h" 1
	mull 68(%esp)
 # 0 "" 2
/NO_APP
	addl	32(%esp), %eax
	movl	%ecx, %edi
	setc	%cl
	movl	%eax, 36(%esp)
	movl	%ecx, %eax
	movl	%edi, %ecx
	addb	$-1, %al
	movl	$0, %eax
	adcl	%eax, %edx
	addb	$-1, %cl
	movl	%edx, 32(%esp)
	movl	52(%ebx), %eax
	sbbl	36(%esp), %eax
	movl	%eax, 52(%ebx)
	setc	%cl
	movl	56(%esi), %eax
/APP
 # 215 "../pmc_inline_func.h" 1
	mull 68(%esp)
 # 0 "" 2
/NO_APP
	addl	32(%esp), %eax
	movl	%ecx, %edi
	setc	%cl
	movl	%eax, 36(%esp)
	movl	%ecx, %eax
	movl	%edi, %ecx
	addb	$-1, %al
	movl	$0, %eax
	adcl	%eax, %edx
	addb	$-1, %cl
	movl	%edx, 32(%esp)
	movl	56(%ebx), %eax
	sbbl	36(%esp), %eax
	movl	%eax, 56(%ebx)
	setc	%cl
	movl	60(%esi), %eax
/APP
 # 215 "../pmc_inline_func.h" 1
	mull 68(%esp)
 # 0 "" 2
/NO_APP
	addl	32(%esp), %eax
	movl	%ecx, %edi
	setc	%cl
	movl	%eax, 36(%esp)
	movl	%ecx, %eax
	movl	%edi, %ecx
	addb	$-1, %al
	movl	$0, %eax
	adcl	%eax, %edx
	addb	$-1, %cl
	movl	%edx, 32(%esp)
	movl	60(%ebx), %eax
	sbbl	36(%esp), %eax
	movl	%eax, 60(%ebx)
	setc	%cl
	movl	64(%esi), %eax
/APP
 # 215 "../pmc_inline_func.h" 1
	mull 68(%esp)
 # 0 "" 2
/NO_APP
	addl	32(%esp), %eax
	movl	%ecx, %edi
	setc	%cl
	movl	%eax, 36(%esp)
	movl	%ecx, %eax
	movl	%edi, %ecx
	addb	$-1, %al
	movl	$0, %eax
	adcl	%eax, %edx
	addb	$-1, %cl
	movl	%edx, 32(%esp)
	movl	64(%ebx), %eax
	sbbl	36(%esp), %eax
	movl	%eax, 64(%ebx)
	setc	%cl
	movl	68(%esi), %eax
/APP
 # 215 "../pmc_inline_func.h" 1
	mull 68(%esp)
 # 0 "" 2
/NO_APP
	addl	32(%esp), %eax
	movl	%ecx, %edi
	setc	%cl
	movl	%eax, 36(%esp)
	movl	%ecx, %eax
	movl	%edi, %ecx
	addb	$-1, %al
	movl	$0, %eax
	adcl	%eax, %edx
	addb	$-1, %cl
	movl	%edx, 32(%esp)
	movl	68(%ebx), %eax
	sbbl	36(%esp), %eax
	movl	%eax, 68(%ebx)
	setc	%cl
	movl	72(%esi), %eax
/APP
 # 215 "../pmc_inline_func.h" 1
	mull 68(%esp)
 # 0 "" 2
/NO_APP
	addl	32(%esp), %eax
	movl	%ecx, %edi
	setc	%cl
	movl	%eax, 36(%esp)
	movl	%ecx, %eax
	movl	%edi, %ecx
	addb	$-1, %al
	movl	$0, %eax
	adcl	%eax, %edx
	addb	$-1, %cl
	movl	%edx, 32(%esp)
	movl	72(%ebx), %eax
	sbbl	36(%esp), %eax
	movl	%eax, 72(%ebx)
	setc	%cl
	movl	76(%esi), %eax
/APP
 # 215 "../pmc_inline_func.h" 1
	mull 68(%esp)
 # 0 "" 2
/NO_APP
	addl	32(%esp), %eax
	movl	%ecx, %edi
	setc	%cl
	movl	%eax, 36(%esp)
	movl	%ecx, %eax
	movl	%edi, %ecx
	addb	$-1, %al
	movl	$0, %eax
	adcl	%eax, %edx
	addb	$-1, %cl
	movl	%edx, 32(%esp)
	movl	76(%ebx), %eax
	sbbl	36(%esp), %eax
	movl	%eax, 76(%ebx)
	setc	%cl
	movl	80(%esi), %eax
/APP
 # 215 "../pmc_inline_func.h" 1
	mull 68(%esp)
 # 0 "" 2
/NO_APP
	addl	32(%esp), %eax
	movl	%ecx, %edi
	setc	%cl
	movl	%eax, 36(%esp)
	movl	%ecx, %eax
	movl	%edi, %ecx
	addb	$-1, %al
	movl	$0, %eax
	adcl	%eax, %edx
	addb	$-1, %cl
	movl	%edx, 32(%esp)
	movl	80(%ebx), %eax
	sbbl	36(%esp), %eax
	movl	%eax, 80(%ebx)
	setc	%cl
	movl	84(%esi), %eax
/APP
 # 215 "../pmc_inline_func.h" 1
	mull 68(%esp)
 # 0 "" 2
/NO_APP
	addl	32(%esp), %eax
	movl	%ecx, %edi
	setc	%cl
	movl	%eax, 36(%esp)
	movl	%ecx, %eax
	movl	%edi, %ecx
	addb	$-1, %al
	movl	$0, %eax
	adcl	%eax, %edx
	addb	$-1, %cl
	movl	%edx, 32(%esp)
	movl	84(%ebx), %eax
	sbbl	36(%esp), %eax
	movl	%eax, 84(%ebx)
	setc	%cl
	movl	88(%esi), %eax
/APP
 # 215 "../pmc_inline_func.h" 1
	mull 68(%esp)
 # 0 "" 2
/NO_APP
	addl	32(%esp), %eax
	movl	%ecx, %edi
	setc	%cl
	movl	%eax, 36(%esp)
	movl	%ecx, %eax
	movl	%edi, %ecx
	addb	$-1, %al
	movl	$0, %eax
	adcl	%eax, %edx
	addb	$-1, %cl
	movl	%edx, 32(%esp)
	movl	88(%ebx), %eax
	sbbl	36(%esp), %eax
	movl	%eax, 88(%ebx)
	setc	%cl
	movl	92(%esi), %eax
/APP
 # 215 "../pmc_inline_func.h" 1
	mull 68(%esp)
 # 0 "" 2
/NO_APP
	addl	32(%esp), %eax
	movl	%ecx, %edi
	setc	%cl
	movl	%eax, 36(%esp)
	movl	%ecx, %eax
	addb	$-1, %al
	movl	$0, %eax
	adcl	%eax, %edx
	movl	%edx, 32(%esp)
	movl	%edi, %edx
	movl	92(%ebx), %eax
	addb	$-1, %dl
	sbbl	36(%esp), %eax
	movl	%eax, 92(%ebx)
	setc	%cl
	movl	96(%esi), %eax
/APP
 # 215 "../pmc_inline_func.h" 1
	mull 68(%esp)
 # 0 "" 2
/NO_APP
	addl	32(%esp), %eax
	movl	%ecx, %edi
	setc	%cl
	movl	%eax, 36(%esp)
	movl	%ecx, %eax
	addb	$-1, %al
	movl	$0, %eax
	adcl	%eax, %edx
	movl	%edx, 32(%esp)
	movl	%edi, %edx
	movl	96(%ebx), %eax
	addb	$-1, %dl
	sbbl	36(%esp), %eax
	setc	%dl
	movl	%eax, 96(%ebx)
	movl	100(%esi), %eax
	movl	%edx, %edi
/APP
 # 215 "../pmc_inline_func.h" 1
	mull 68(%esp)
 # 0 "" 2
/NO_APP
	addl	32(%esp), %eax
	setc	%cl
	movl	%eax, 36(%esp)
	movl	%ecx, %eax
	addb	$-1, %al
	movl	$0, %eax
	adcl	%eax, %edx
	movl	%edx, 32(%esp)
	movl	%edi, %edx
	movl	100(%ebx), %eax
	addb	$-1, %dl
	sbbl	36(%esp), %eax
	movl	%eax, 100(%ebx)
	setc	%cl
	movl	104(%esi), %eax
/APP
 # 215 "../pmc_inline_func.h" 1
	mull 68(%esp)
 # 0 "" 2
/NO_APP
	addl	32(%esp), %eax
	movl	%ecx, %edi
	setc	%cl
	movl	%eax, 36(%esp)
	movl	%ecx, %eax
	addb	$-1, %al
	movl	$0, %eax
	adcl	%eax, %edx
	movl	%edx, 32(%esp)
	movl	%edi, %edx
	movl	104(%ebx), %eax
	addb	$-1, %dl
	sbbl	36(%esp), %eax
	setc	%dl
	movl	%eax, 104(%ebx)
	movl	108(%esi), %eax
	movl	%edx, %edi
/APP
 # 215 "../pmc_inline_func.h" 1
	mull 68(%esp)
 # 0 "" 2
/NO_APP
	addl	32(%esp), %eax
	setc	%cl
	movl	%eax, 36(%esp)
	movl	%ecx, %eax
	addb	$-1, %al
	movl	$0, %eax
	adcl	%eax, %edx
	movl	%edx, 32(%esp)
	movl	%edi, %edx
	movl	108(%ebx), %eax
	addb	$-1, %dl
	sbbl	36(%esp), %eax
	movl	%eax, 108(%ebx)
	setc	%cl
	movl	112(%esi), %eax
/APP
 # 215 "../pmc_inline_func.h" 1
	mull 68(%esp)
 # 0 "" 2
/NO_APP
	addl	32(%esp), %eax
	movl	%ecx, %edi
	setc	%cl
	movl	%eax, 36(%esp)
	movl	%ecx, %eax
	addb	$-1, %al
	movl	$0, %eax
	adcl	%eax, %edx
	movl	%edx, 32(%esp)
	movl	%edi, %edx
	movl	112(%ebx), %eax
	addb	$-1, %dl
	sbbl	36(%esp), %eax
	setc	%dl
	movl	%eax, 112(%ebx)
	movl	116(%esi), %eax
	movl	%edx, %edi
/APP
 # 215 "../pmc_inline_func.h" 1
	mull 68(%esp)
 # 0 "" 2
/NO_APP
	addl	32(%esp), %eax
	setc	%cl
	movl	%eax, 36(%esp)
	movl	%ecx, %eax
	addb	$-1, %al
	movl	$0, %eax
	adcl	%eax, %edx
	movl	%edx, 32(%esp)
	movl	%edi, %edx
	movl	116(%ebx), %eax
	addb	$-1, %dl
	sbbl	36(%esp), %eax
	movl	%eax, 116(%ebx)
	setc	%cl
	movl	120(%esi), %eax
/APP
 # 215 "../pmc_inline_func.h" 1
	mull 68(%esp)
 # 0 "" 2
/NO_APP
	addl	32(%esp), %eax
	movl	%ecx, %edi
	setc	%cl
	movl	%eax, 36(%esp)
	movl	%ecx, %eax
	addb	$-1, %al
	movl	$0, %eax
	adcl	%eax, %edx
	movl	%edx, 32(%esp)
	movl	%edi, %edx
	movl	120(%ebx), %eax
	addb	$-1, %dl
	sbbl	36(%esp), %eax
	setc	%dl
	movl	%eax, 120(%ebx)
	movl	124(%esi), %eax
	movl	%edx, %edi
/APP
 # 215 "../pmc_inline_func.h" 1
	mull 68(%esp)
 # 0 "" 2
/NO_APP
	addl	32(%esp), %eax
	setc	%cl
	movl	%eax, 36(%esp)
	movl	%ecx, %eax
	addb	$-1, %al
	movl	$0, %eax
	adcl	%eax, %edx
	movl	%edx, 32(%esp)
	movl	%edi, %edx
	movl	124(%ebx), %eax
	addb	$-1, %dl
	sbbl	36(%esp), %eax
	movl	%eax, 124(%ebx)
	setc	%dl
	movl	32(%esp), %edi
	subl	$-128, %ebx
	subl	$1, (%esp)
	movl	(%esp), %eax
	subl	$-128, %esi
	lock addl	$32, __ZN8Palmtree4Math4Core8Internal15statistics_infoE+4
	movl	%edx, %ebp
	testl	%eax, %eax
	jne	L13
	movl	20(%esp), %eax
	movzbl	%dl, %ebx
	sall	$7, %eax
	addl	%eax, 4(%esp)
	addl	%eax, 8(%esp)
L12:
	movl	4(%esp), %eax
	addl	$4, %eax
	movl	%eax, (%esp)
	testb	$16, 60(%esp)
	jne	L54
L14:
	testb	$8, 60(%esp)
	jne	L55
L15:
	testb	$4, 60(%esp)
	jne	L56
L16:
	testb	$2, 60(%esp)
	jne	L57
L17:
	testb	$1, 60(%esp)
	jne	L58
L18:
	movl	4(%esp), %esi
	addb	$-1, %bl
	movl	(%esi), %eax
	sbbl	%edi, %eax
	movl	%eax, (%esi)
	movl	12(%esp), %esi
	setc	%al
	movl	16(%esp), %edi
	leal	4(%esi,%edi,4), %ebx
	subl	(%esp), %ebx
	sarl	$2, %ebx
	je	L19
	xorl	%esi, %esi
	movl	(%esp), %ecx
	testb	%al, %al
	jne	L20
	jmp	L21
	.p2align 4,,10
L51:
	testb	%al, %al
	je	L21
L20:
	movl	(%ecx), %edx
	addb	$-1, %al
	sbbl	%esi, %edx
	movl	%edx, (%ecx)
	setc	%al
	addl	$4, %ecx
	subl	$1, %ebx
	jne	L51
L19:
	addl	$40, %esp
	.cfi_remember_state
	.cfi_def_cfa_offset 20
	andl	$1, %eax
	popl	%ebx
	.cfi_restore 3
	.cfi_def_cfa_offset 16
	popl	%esi
	.cfi_restore 6
	.cfi_def_cfa_offset 12
	popl	%edi
	.cfi_restore 7
	.cfi_def_cfa_offset 8
	popl	%ebp
	.cfi_restore 5
	.cfi_def_cfa_offset 4
	ret
	.p2align 4,,10
L21:
	.cfi_restore_state
	addl	$40, %esp
	.cfi_remember_state
	.cfi_def_cfa_offset 20
	xorl	%eax, %eax
	popl	%ebx
	.cfi_restore 3
	.cfi_def_cfa_offset 16
	popl	%esi
	.cfi_restore 6
	.cfi_def_cfa_offset 12
	popl	%edi
	.cfi_restore 7
	.cfi_def_cfa_offset 8
	popl	%ebp
	.cfi_restore 5
	.cfi_def_cfa_offset 4
	ret
	.p2align 4,,10
L58:
	.cfi_restore_state
	movl	8(%esp), %eax
	movl	4(%esp), %esi
	movl	(%eax), %eax
/APP
 # 215 "../pmc_inline_func.h" 1
	mull 68(%esp)
 # 0 "" 2
/NO_APP
	addl	%edi, %eax
	setc	%cl
	movl	%eax, 36(%esp)
	addb	$-1, %cl
	adcl	$0, %edx
	addb	$-1, %bl
	movl	%edx, 32(%esp)
	movl	(%esi), %edx
	sbbl	%eax, %edx
	movl	%edx, (%esi)
	movl	32(%esp), %edi
	setc	%bl
	lock addl	$1, __ZN8Palmtree4Math4Core8Internal15statistics_infoE+4
	movl	(%esp), %eax
	movl	%eax, 4(%esp)
	addl	$4, %eax
	movzbl	%bl, %ebx
	movl	%eax, (%esp)
	jmp	L18
	.p2align 4,,10
L57:
	movl	8(%esp), %eax
	movl	4(%esp), %ebp
	movl	(%eax), %edx
	movl	%edx, 20(%esp)
	movl	%edx, %eax
/APP
 # 215 "../pmc_inline_func.h" 1
	mull 68(%esp)
 # 0 "" 2
/NO_APP
	addl	%edi, %eax
	setc	%cl
	xorl	%esi, %esi
	movl	%eax, 36(%esp)
	addb	$-1, %cl
	adcl	%esi, %edx
	addb	$-1, %bl
	movl	%edx, 32(%esp)
	movl	0(%ebp), %edx
	sbbl	%eax, %edx
	movl	%edx, 0(%ebp)
	movl	8(%esp), %eax
	setc	%bl
	movl	4(%eax), %edi
	movl	%edi, %eax
	movl	%edi, 4(%esp)
/APP
 # 215 "../pmc_inline_func.h" 1
	mull 68(%esp)
 # 0 "" 2
/NO_APP
	addl	32(%esp), %eax
	setc	%cl
	movl	%eax, 36(%esp)
	addb	$-1, %cl
	adcl	%esi, %edx
	addb	$-1, %bl
	movl	%edx, 32(%esp)
	movl	4(%ebp), %edx
	sbbl	%eax, %edx
	movl	(%esp), %eax
	setc	%bl
	movl	%edx, (%eax)
	movl	32(%esp), %edi
	leal	8(%ebp), %eax
	addl	$8, 8(%esp)
	lock addl	$2, __ZN8Palmtree4Math4Core8Internal15statistics_infoE+4
	leal	12(%ebp), %esi
	movzbl	%bl, %ebx
	movl	%eax, 4(%esp)
	movl	%esi, (%esp)
	jmp	L17
	.p2align 4,,10
L56:
	movl	8(%esp), %ebp
	movl	0(%ebp), %esi
	movl	4(%esp), %ebp
	movl	%esi, %eax
	movl	%esi, 20(%esp)
/APP
 # 215 "../pmc_inline_func.h" 1
	mull 68(%esp)
 # 0 "" 2
/NO_APP
	addl	%edi, %eax
	setc	%cl
	xorl	%edi, %edi
	movl	%eax, 36(%esp)
	addb	$-1, %cl
	adcl	%edi, %edx
	addb	$-1, %bl
	movl	%edx, 32(%esp)
	movl	0(%ebp), %edx
	sbbl	%eax, %edx
	movl	%edx, 0(%ebp)
	movl	8(%esp), %eax
	setc	%bl
	movl	4(%eax), %esi
	movl	%esi, %eax
	movl	%esi, 4(%esp)
	movl	%ebp, %esi
/APP
 # 215 "../pmc_inline_func.h" 1
	mull 68(%esp)
 # 0 "" 2
/NO_APP
	addl	32(%esp), %eax
	setc	%cl
	movl	%eax, 36(%esp)
	addb	$-1, %cl
	adcl	%edi, %edx
	addb	$-1, %bl
	movl	%edx, 32(%esp)
	movl	4(%ebp), %edx
	sbbl	%eax, %edx
	movl	(%esp), %eax
	setc	%bl
	movl	%edx, (%eax)
	movl	8(%esp), %ebp
	movl	8(%ebp), %eax
/APP
 # 215 "../pmc_inline_func.h" 1
	mull 68(%esp)
 # 0 "" 2
/NO_APP
	addl	32(%esp), %eax
	setc	%cl
	movl	%eax, 36(%esp)
	addb	$-1, %cl
	adcl	%edi, %edx
	addb	$-1, %bl
	movl	%edx, 32(%esp)
	movl	8(%esi), %edx
	sbbl	%eax, %edx
	movl	%edx, 8(%esi)
	movl	12(%ebp), %eax
	setc	%cl
	movl	%eax, (%esp)
/APP
 # 215 "../pmc_inline_func.h" 1
	mull 68(%esp)
 # 0 "" 2
/NO_APP
	addl	32(%esp), %eax
	setc	%bl
	movl	%eax, 36(%esp)
	addb	$-1, %bl
	adcl	%edi, %edx
	addb	$-1, %cl
	movl	%edx, 32(%esp)
	movl	12(%esi), %edx
	sbbl	%eax, %edx
	leal	16(%esi), %eax
	movl	%edx, 12(%esi)
	movl	32(%esp), %edi
	setc	%bl
	addl	$16, %ebp
	movl	%ebp, 8(%esp)
	lock addl	$4, __ZN8Palmtree4Math4Core8Internal15statistics_infoE+4
	addl	$20, %esi
	movzbl	%bl, %ebx
	movl	%eax, 4(%esp)
	movl	%esi, (%esp)
	jmp	L16
	.p2align 4,,10
L55:
	movl	8(%esp), %ebp
	movl	0(%ebp), %esi
	movl	4(%esp), %ebp
	movl	%esi, %eax
	movl	%esi, 20(%esp)
/APP
 # 215 "../pmc_inline_func.h" 1
	mull 68(%esp)
 # 0 "" 2
/NO_APP
	addl	%edi, %eax
	setc	%cl
	xorl	%edi, %edi
	movl	%eax, 36(%esp)
	addb	$-1, %cl
	adcl	%edi, %edx
	addb	$-1, %bl
	movl	%edx, 32(%esp)
	movl	0(%ebp), %edx
	sbbl	%eax, %edx
	movl	%edx, 0(%ebp)
	movl	8(%esp), %eax
	setc	%bl
	movl	4(%eax), %esi
	movl	%esi, %eax
	movl	%esi, 4(%esp)
	movl	%ebp, %esi
/APP
 # 215 "../pmc_inline_func.h" 1
	mull 68(%esp)
 # 0 "" 2
/NO_APP
	addl	32(%esp), %eax
	setc	%cl
	movl	%eax, 36(%esp)
	addb	$-1, %cl
	adcl	%edi, %edx
	addb	$-1, %bl
	movl	%edx, 32(%esp)
	movl	4(%ebp), %edx
	sbbl	%eax, %edx
	movl	(%esp), %eax
	setc	%bl
	movl	%edx, (%eax)
	movl	8(%esp), %ebp
	movl	8(%ebp), %eax
/APP
 # 215 "../pmc_inline_func.h" 1
	mull 68(%esp)
 # 0 "" 2
/NO_APP
	addl	32(%esp), %eax
	setc	%cl
	movl	%eax, 36(%esp)
	addb	$-1, %cl
	adcl	%edi, %edx
	addb	$-1, %bl
	movl	%edx, 32(%esp)
	movl	8(%esi), %edx
	sbbl	%eax, %edx
	setc	%cl
	movl	%edx, 8(%esi)
	movl	12(%ebp), %eax
/APP
 # 215 "../pmc_inline_func.h" 1
	mull 68(%esp)
 # 0 "" 2
/NO_APP
	addl	32(%esp), %eax
	setc	%bl
	movl	%eax, 36(%esp)
	addb	$-1, %bl
	adcl	%edi, %edx
	addb	$-1, %cl
	movl	%edx, 32(%esp)
	movl	12(%esi), %edx
	sbbl	%eax, %edx
	movl	%edx, 12(%esi)
	setc	%cl
	movl	16(%ebp), %eax
/APP
 # 215 "../pmc_inline_func.h" 1
	mull 68(%esp)
 # 0 "" 2
/NO_APP
	addl	32(%esp), %eax
	setc	%bl
	movl	%eax, 36(%esp)
	addb	$-1, %bl
	adcl	%edi, %edx
	addb	$-1, %cl
	movl	%edx, 32(%esp)
	movl	16(%esi), %edx
	sbbl	%eax, %edx
	movl	%edx, 16(%esi)
	setc	%cl
	movl	20(%ebp), %eax
/APP
 # 215 "../pmc_inline_func.h" 1
	mull 68(%esp)
 # 0 "" 2
/NO_APP
	addl	32(%esp), %eax
	setc	%bl
	movl	%eax, 36(%esp)
	addb	$-1, %bl
	adcl	%edi, %edx
	addb	$-1, %cl
	movl	%edx, 32(%esp)
	movl	20(%esi), %edx
	sbbl	%eax, %edx
	movl	%edx, 20(%esi)
	setc	%cl
	movl	24(%ebp), %eax
/APP
 # 215 "../pmc_inline_func.h" 1
	mull 68(%esp)
 # 0 "" 2
/NO_APP
	addl	32(%esp), %eax
	setc	%bl
	movl	%eax, 36(%esp)
	addb	$-1, %bl
	adcl	%edi, %edx
	addb	$-1, %cl
	movl	%edx, 32(%esp)
	movl	24(%esi), %edx
	sbbl	%eax, %edx
	movl	%edx, 24(%esi)
	movl	28(%ebp), %eax
	setc	%cl
	movl	%eax, (%esp)
/APP
 # 215 "../pmc_inline_func.h" 1
	mull 68(%esp)
 # 0 "" 2
/NO_APP
	addl	32(%esp), %eax
	setc	%bl
	movl	%eax, 36(%esp)
	addb	$-1, %bl
	adcl	%edi, %edx
	addb	$-1, %cl
	movl	%edx, 32(%esp)
	movl	28(%esi), %edx
	sbbl	%eax, %edx
	leal	32(%esi), %eax
	movl	%edx, 28(%esi)
	movl	32(%esp), %edi
	setc	%bl
	addl	$32, %ebp
	movl	%ebp, 8(%esp)
	lock addl	$8, __ZN8Palmtree4Math4Core8Internal15statistics_infoE+4
	addl	$36, %esi
	movzbl	%bl, %ebx
	movl	%eax, 4(%esp)
	movl	%esi, (%esp)
	jmp	L15
	.p2align 4,,10
L54:
	movl	8(%esp), %ebp
	movl	0(%ebp), %eax
/APP
 # 215 "../pmc_inline_func.h" 1
	mull 68(%esp)
 # 0 "" 2
/NO_APP
	addl	%edi, %eax
	movl	4(%esp), %edi
	setc	%cl
	xorl	%esi, %esi
	movl	%eax, 36(%esp)
	addb	$-1, %cl
	adcl	%esi, %edx
	addb	$-1, %bl
	movl	%edx, 32(%esp)
	movl	(%edi), %edx
	sbbl	%eax, %edx
	movl	%edx, (%edi)
	setc	%cl
	movl	4(%ebp), %eax
/APP
 # 215 "../pmc_inline_func.h" 1
	mull 68(%esp)
 # 0 "" 2
/NO_APP
	addl	32(%esp), %eax
	setc	%bl
	movl	%eax, 36(%esp)
	addb	$-1, %bl
	adcl	%esi, %edx
	addb	$-1, %cl
	movl	%edx, 32(%esp)
	movl	4(%edi), %edx
	sbbl	%eax, %edx
	movl	%edx, 4(%edi)
	setc	%cl
	movl	8(%ebp), %eax
/APP
 # 215 "../pmc_inline_func.h" 1
	mull 68(%esp)
 # 0 "" 2
/NO_APP
	addl	32(%esp), %eax
	setc	%bl
	movl	%eax, 36(%esp)
	addb	$-1, %bl
	adcl	%esi, %edx
	addb	$-1, %cl
	movl	%edx, 32(%esp)
	movl	8(%edi), %edx
	sbbl	%eax, %edx
	movl	%edx, 8(%edi)
	setc	%cl
	movl	12(%ebp), %eax
/APP
 # 215 "../pmc_inline_func.h" 1
	mull 68(%esp)
 # 0 "" 2
/NO_APP
	addl	32(%esp), %eax
	setc	%bl
	movl	%eax, 36(%esp)
	addb	$-1, %bl
	adcl	%esi, %edx
	addb	$-1, %cl
	movl	%edx, 32(%esp)
	movl	12(%edi), %edx
	sbbl	%eax, %edx
	movl	%edx, 12(%edi)
	setc	%cl
	movl	16(%ebp), %eax
/APP
 # 215 "../pmc_inline_func.h" 1
	mull 68(%esp)
 # 0 "" 2
/NO_APP
	addl	32(%esp), %eax
	setc	%bl
	movl	%eax, 36(%esp)
	addb	$-1, %bl
	adcl	%esi, %edx
	addb	$-1, %cl
	movl	%edx, 32(%esp)
	movl	16(%edi), %edx
	sbbl	%eax, %edx
	movl	%edx, 16(%edi)
	setc	%cl
	movl	20(%ebp), %eax
/APP
 # 215 "../pmc_inline_func.h" 1
	mull 68(%esp)
 # 0 "" 2
/NO_APP
	addl	32(%esp), %eax
	setc	%bl
	movl	%eax, 36(%esp)
	addb	$-1, %bl
	adcl	%esi, %edx
	addb	$-1, %cl
	movl	%edx, 32(%esp)
	movl	20(%edi), %edx
	sbbl	%eax, %edx
	movl	%edx, 20(%edi)
	setc	%cl
	movl	24(%ebp), %eax
/APP
 # 215 "../pmc_inline_func.h" 1
	mull 68(%esp)
 # 0 "" 2
/NO_APP
	addl	32(%esp), %eax
	setc	%bl
	movl	%eax, 36(%esp)
	addb	$-1, %bl
	adcl	%esi, %edx
	addb	$-1, %cl
	movl	%edx, 32(%esp)
	movl	24(%edi), %edx
	sbbl	%eax, %edx
	setc	%cl
	movl	%edx, 24(%edi)
	movl	28(%ebp), %eax
/APP
 # 215 "../pmc_inline_func.h" 1
	mull 68(%esp)
 # 0 "" 2
/NO_APP
	addl	32(%esp), %eax
	setc	%bl
	movl	%eax, 36(%esp)
	addb	$-1, %bl
	adcl	%esi, %edx
	addb	$-1, %cl
	movl	%edx, 32(%esp)
	movl	28(%edi), %edx
	sbbl	%eax, %edx
	movl	%edx, 28(%edi)
	setc	%cl
	movl	32(%ebp), %eax
/APP
 # 215 "../pmc_inline_func.h" 1
	mull 68(%esp)
 # 0 "" 2
/NO_APP
	addl	32(%esp), %eax
	setc	%bl
	movl	%eax, 36(%esp)
	addb	$-1, %bl
	adcl	%esi, %edx
	addb	$-1, %cl
	movl	%edx, 32(%esp)
	movl	32(%edi), %edx
	sbbl	%eax, %edx
	movl	%edx, 32(%edi)
	setc	%cl
	movl	36(%ebp), %eax
/APP
 # 215 "../pmc_inline_func.h" 1
	mull 68(%esp)
 # 0 "" 2
/NO_APP
	addl	32(%esp), %eax
	setc	%bl
	movl	%eax, 36(%esp)
	addb	$-1, %bl
	adcl	%esi, %edx
	addb	$-1, %cl
	movl	%edx, 32(%esp)
	movl	36(%edi), %edx
	sbbl	%eax, %edx
	movl	%edx, 36(%edi)
	setc	%cl
	movl	40(%ebp), %eax
/APP
 # 215 "../pmc_inline_func.h" 1
	mull 68(%esp)
 # 0 "" 2
/NO_APP
	addl	32(%esp), %eax
	setc	%bl
	movl	%eax, 36(%esp)
	addb	$-1, %bl
	adcl	%esi, %edx
	addb	$-1, %cl
	movl	%edx, 32(%esp)
	movl	40(%edi), %edx
	sbbl	%eax, %edx
	movl	%edx, 40(%edi)
	setc	%cl
	movl	44(%ebp), %eax
/APP
 # 215 "../pmc_inline_func.h" 1
	mull 68(%esp)
 # 0 "" 2
/NO_APP
	addl	32(%esp), %eax
	setc	%bl
	movl	%eax, 36(%esp)
	addb	$-1, %bl
	adcl	%esi, %edx
	addb	$-1, %cl
	movl	%edx, 32(%esp)
	movl	44(%edi), %edx
	sbbl	%eax, %edx
	movl	%edx, 44(%edi)
	setc	%cl
	movl	48(%ebp), %eax
/APP
 # 215 "../pmc_inline_func.h" 1
	mull 68(%esp)
 # 0 "" 2
/NO_APP
	addl	32(%esp), %eax
	setc	%bl
	movl	%eax, 36(%esp)
	addb	$-1, %bl
	adcl	%esi, %edx
	addb	$-1, %cl
	movl	%edx, 32(%esp)
	movl	48(%edi), %edx
	sbbl	%eax, %edx
	movl	%edx, 48(%edi)
	setc	%cl
	movl	52(%ebp), %eax
/APP
 # 215 "../pmc_inline_func.h" 1
	mull 68(%esp)
 # 0 "" 2
/NO_APP
	addl	32(%esp), %eax
	setc	%bl
	movl	%eax, 36(%esp)
	addb	$-1, %bl
	adcl	%esi, %edx
	addb	$-1, %cl
	movl	%edx, 32(%esp)
	movl	52(%edi), %edx
	sbbl	%eax, %edx
	setc	%cl
	movl	%edx, 52(%edi)
	movl	56(%ebp), %eax
/APP
 # 215 "../pmc_inline_func.h" 1
	mull 68(%esp)
 # 0 "" 2
/NO_APP
	addl	32(%esp), %eax
	setc	%bl
	movl	%eax, 36(%esp)
	addb	$-1, %bl
	adcl	%esi, %edx
	addb	$-1, %cl
	movl	%edx, 32(%esp)
	movl	56(%edi), %edx
	sbbl	%eax, %edx
	movl	%edx, 56(%edi)
	movl	60(%ebp), %eax
	setc	%cl
	movl	%eax, (%esp)
/APP
 # 215 "../pmc_inline_func.h" 1
	mull 68(%esp)
 # 0 "" 2
/NO_APP
	addl	32(%esp), %eax
	setc	%bl
	movl	%eax, 36(%esp)
	addb	$-1, %bl
	adcl	%esi, %edx
	addb	$-1, %cl
	movl	%edi, %esi
	movl	%edx, 32(%esp)
	movl	60(%edi), %edx
	sbbl	%eax, %edx
	leal	64(%esi), %eax
	movl	%edx, 60(%edi)
	movl	32(%esp), %edi
	setc	%bl
	addl	$64, %ebp
	movl	%ebp, 8(%esp)
	lock addl	$16, __ZN8Palmtree4Math4Core8Internal15statistics_infoE+4
	addl	$68, %esi
	movzbl	%bl, %ebx
	movl	%eax, 4(%esp)
	movl	%esi, (%esp)
	jmp	L14
	.p2align 4,,10
L24:
	xorl	%edi, %edi
	xorl	%ebx, %ebx
	jmp	L12
	.cfi_endproc
LFE6211:
	.p2align 4,,15
	.def	__ZN8Palmtree4Math4Core8InternalL16SubtructOneLineXEPjjS3_jjj;	.scl	3;	.type	32;	.endef
__ZN8Palmtree4Math4Core8InternalL16SubtructOneLineXEPjjS3_jjj:
LFB6212:
	.cfi_startproc
	pushl	%ebp
	.cfi_def_cfa_offset 8
	.cfi_offset 5, -8
	pushl	%edi
	.cfi_def_cfa_offset 12
	.cfi_offset 7, -12
	pushl	%esi
	.cfi_def_cfa_offset 16
	.cfi_offset 6, -16
	movl	%eax, %esi
	pushl	%ebx
	.cfi_def_cfa_offset 20
	.cfi_offset 3, -20
	subl	$44, %esp
	.cfi_def_cfa_offset 64
	movl	%eax, 16(%esp)
	movl	68(%esp), %eax
	movl	%edx, 20(%esp)
	leal	(%esi,%eax,4), %esi
	movl	64(%esp), %eax
	movl	%ecx, 12(%esp)
	movl	%esi, 8(%esp)
	shrl	$5, %eax
	movl	%eax, 24(%esp)
	je	L72
	movl	%eax, (%esp)
	movl	%ecx, %ebx
	movl	%esi, %ecx
	xorl	%esi, %esi
	movb	$0, 7(%esp)
	.p2align 4,,10
L61:
	movl	(%ebx), %edx
	movl	$0, %eax
/APP
 # 240 "../pmc_inline_func.h" 1
	mulxl 72(%esp), %edi, %ebp
 # 0 "" 2
/NO_APP
	addl	%esi, %edi
	setc	%dl
	movl	%edi, 40(%esp)
	addb	$-1, %dl
	adcl	%eax, %ebp
	movzbl	7(%esp), %eax
	movl	%ebp, 36(%esp)
	movl	(%ecx), %edx
	addb	$-1, %al
	sbbl	%edi, %edx
	movl	%edx, (%ecx)
	setc	%al
	movl	4(%ebx), %edx
/APP
 # 240 "../pmc_inline_func.h" 1
	mulxl 72(%esp), %esi, %edi
 # 0 "" 2
/NO_APP
	addl	36(%esp), %esi
	movl	%eax, %ebp
	movl	$0, %eax
	setc	%dl
	movl	%esi, 40(%esp)
	addb	$-1, %dl
	adcl	%eax, %edi
	movl	%ebp, %eax
	movl	%edi, 36(%esp)
	movl	4(%ecx), %edx
	addb	$-1, %al
	sbbl	%esi, %edx
	movl	%edx, 4(%ecx)
	setc	%al
	movl	8(%ebx), %edx
/APP
 # 240 "../pmc_inline_func.h" 1
	mulxl 72(%esp), %esi, %edi
 # 0 "" 2
/NO_APP
	addl	36(%esp), %esi
	movl	%eax, %ebp
	movl	$0, %eax
	setc	%dl
	movl	%esi, 40(%esp)
	addb	$-1, %dl
	adcl	%eax, %edi
	movl	%ebp, %eax
	movl	%edi, 36(%esp)
	movl	8(%ecx), %edx
	addb	$-1, %al
	sbbl	%esi, %edx
	setc	%al
	movl	%edx, 8(%ecx)
	movl	12(%ebx), %edx
/APP
 # 240 "../pmc_inline_func.h" 1
	mulxl 72(%esp), %esi, %edi
 # 0 "" 2
/NO_APP
	addl	36(%esp), %esi
	movl	%eax, %ebp
	movl	$0, %eax
	setc	%dl
	movl	%esi, 40(%esp)
	addb	$-1, %dl
	adcl	%eax, %edi
	movl	%ebp, %eax
	movl	%edi, 36(%esp)
	movl	12(%ecx), %edx
	addb	$-1, %al
	sbbl	%esi, %edx
	movl	%edx, 12(%ecx)
	setc	%al
	movl	16(%ebx), %edx
/APP
 # 240 "../pmc_inline_func.h" 1
	mulxl 72(%esp), %esi, %edi
 # 0 "" 2
/NO_APP
	addl	36(%esp), %esi
	movl	%eax, %ebp
	movl	$0, %eax
	setc	%dl
	movl	%esi, 40(%esp)
	addb	$-1, %dl
	adcl	%eax, %edi
	movl	%ebp, %eax
	movl	%edi, 36(%esp)
	movl	16(%ecx), %edx
	addb	$-1, %al
	sbbl	%esi, %edx
	movl	%edx, 16(%ecx)
	setc	%al
	movl	20(%ebx), %edx
/APP
 # 240 "../pmc_inline_func.h" 1
	mulxl 72(%esp), %esi, %edi
 # 0 "" 2
/NO_APP
	addl	36(%esp), %esi
	movl	%eax, %ebp
	movl	$0, %eax
	setc	%dl
	movl	%esi, 40(%esp)
	addb	$-1, %dl
	adcl	%eax, %edi
	movl	%ebp, %eax
	movl	%edi, 36(%esp)
	movl	20(%ecx), %edx
	addb	$-1, %al
	sbbl	%esi, %edx
	movl	%edx, 20(%ecx)
	setc	%al
	movl	24(%ebx), %edx
/APP
 # 240 "../pmc_inline_func.h" 1
	mulxl 72(%esp), %esi, %edi
 # 0 "" 2
/NO_APP
	addl	36(%esp), %esi
	movl	%eax, %ebp
	movl	$0, %eax
	setc	%dl
	movl	%esi, 40(%esp)
	addb	$-1, %dl
	adcl	%eax, %edi
	movl	%ebp, %eax
	movl	%edi, 36(%esp)
	movl	24(%ecx), %edx
	addb	$-1, %al
	sbbl	%esi, %edx
	movl	%edx, 24(%ecx)
	setc	%al
	movl	28(%ebx), %edx
/APP
 # 240 "../pmc_inline_func.h" 1
	mulxl 72(%esp), %esi, %edi
 # 0 "" 2
/NO_APP
	addl	36(%esp), %esi
	movl	%eax, %ebp
	movl	$0, %eax
	setc	%dl
	movl	%esi, 40(%esp)
	addb	$-1, %dl
	adcl	%eax, %edi
	movl	%ebp, %eax
	movl	%edi, 36(%esp)
	movl	28(%ecx), %edx
	addb	$-1, %al
	sbbl	%esi, %edx
	movl	%edx, 28(%ecx)
	setc	%al
	movl	32(%ebx), %edx
/APP
 # 240 "../pmc_inline_func.h" 1
	mulxl 72(%esp), %esi, %edi
 # 0 "" 2
/NO_APP
	addl	36(%esp), %esi
	movl	%eax, %ebp
	movl	$0, %eax
	setc	%dl
	movl	%esi, 40(%esp)
	addb	$-1, %dl
	adcl	%eax, %edi
	movl	%ebp, %eax
	movl	%edi, 36(%esp)
	movl	32(%ecx), %edx
	addb	$-1, %al
	sbbl	%esi, %edx
	movl	%edx, 32(%ecx)
	setc	%al
	movl	36(%ebx), %edx
/APP
 # 240 "../pmc_inline_func.h" 1
	mulxl 72(%esp), %esi, %edi
 # 0 "" 2
/NO_APP
	addl	36(%esp), %esi
	movl	%eax, %ebp
	movl	$0, %eax
	setc	%dl
	movl	%esi, 40(%esp)
	addb	$-1, %dl
	adcl	%eax, %edi
	movl	%ebp, %eax
	movl	%edi, 36(%esp)
	movl	36(%ecx), %edx
	addb	$-1, %al
	sbbl	%esi, %edx
	movl	%edx, 36(%ecx)
	setc	%al
	movl	40(%ebx), %edx
/APP
 # 240 "../pmc_inline_func.h" 1
	mulxl 72(%esp), %esi, %edi
 # 0 "" 2
/NO_APP
	addl	36(%esp), %esi
	movl	%eax, %ebp
	movl	$0, %eax
	setc	%dl
	movl	%esi, 40(%esp)
	addb	$-1, %dl
	adcl	%eax, %edi
	movl	%ebp, %eax
	movl	%edi, 36(%esp)
	movl	40(%ecx), %edx
	addb	$-1, %al
	sbbl	%esi, %edx
	movl	%edx, 40(%ecx)
	setc	%al
	movl	44(%ebx), %edx
/APP
 # 240 "../pmc_inline_func.h" 1
	mulxl 72(%esp), %esi, %edi
 # 0 "" 2
/NO_APP
	addl	36(%esp), %esi
	movl	%eax, %ebp
	movl	$0, %eax
	setc	%dl
	movl	%esi, 40(%esp)
	addb	$-1, %dl
	adcl	%eax, %edi
	movl	%ebp, %eax
	movl	%edi, 36(%esp)
	movl	44(%ecx), %edx
	addb	$-1, %al
	sbbl	%esi, %edx
	movl	%edx, 44(%ecx)
	setc	%al
	movl	48(%ebx), %edx
/APP
 # 240 "../pmc_inline_func.h" 1
	mulxl 72(%esp), %esi, %edi
 # 0 "" 2
/NO_APP
	addl	36(%esp), %esi
	movl	%eax, %ebp
	movl	$0, %eax
	setc	%dl
	movl	%esi, 40(%esp)
	addb	$-1, %dl
	adcl	%eax, %edi
	movl	%ebp, %eax
	movl	%edi, 36(%esp)
	movl	48(%ecx), %edx
	addb	$-1, %al
	sbbl	%esi, %edx
	setc	%al
	movl	%edx, 48(%ecx)
	movl	52(%ebx), %edx
/APP
 # 240 "../pmc_inline_func.h" 1
	mulxl 72(%esp), %esi, %edi
 # 0 "" 2
/NO_APP
	addl	36(%esp), %esi
	movl	%eax, %ebp
	movl	$0, %eax
	setc	%dl
	movl	%esi, 40(%esp)
	addb	$-1, %dl
	adcl	%eax, %edi
	movl	%ebp, %eax
	movl	%edi, 36(%esp)
	movl	52(%ecx), %edx
	addb	$-1, %al
	sbbl	%esi, %edx
	movl	%edx, 52(%ecx)
	setc	%al
	movl	56(%ebx), %edx
/APP
 # 240 "../pmc_inline_func.h" 1
	mulxl 72(%esp), %esi, %edi
 # 0 "" 2
/NO_APP
	addl	36(%esp), %esi
	movl	%eax, %ebp
	movl	$0, %eax
	setc	%dl
	movl	%esi, 40(%esp)
	addb	$-1, %dl
	adcl	%eax, %edi
	movl	%ebp, %eax
	movl	%edi, 36(%esp)
	movl	56(%ecx), %edx
	addb	$-1, %al
	sbbl	%esi, %edx
	movl	%edx, 56(%ecx)
	setc	%al
	movl	60(%ebx), %edx
/APP
 # 240 "../pmc_inline_func.h" 1
	mulxl 72(%esp), %esi, %edi
 # 0 "" 2
/NO_APP
	addl	36(%esp), %esi
	movl	%eax, %ebp
	movl	$0, %eax
	setc	%dl
	movl	%esi, 40(%esp)
	addb	$-1, %dl
	adcl	%eax, %edi
	movl	%ebp, %eax
	movl	%edi, 36(%esp)
	movl	60(%ecx), %edx
	addb	$-1, %al
	sbbl	%esi, %edx
	setc	%al
	movl	%edx, 60(%ecx)
	movl	64(%ebx), %edx
/APP
 # 240 "../pmc_inline_func.h" 1
	mulxl 72(%esp), %esi, %edi
 # 0 "" 2
/NO_APP
	addl	36(%esp), %esi
	movl	%eax, %ebp
	movl	$0, %eax
	setc	%dl
	movl	%esi, 40(%esp)
	addb	$-1, %dl
	adcl	%eax, %edi
	movl	%ebp, %eax
	movl	%edi, 36(%esp)
	movl	64(%ecx), %edx
	addb	$-1, %al
	sbbl	%esi, %edx
	movl	%edx, 64(%ecx)
	setc	%al
	movl	68(%ebx), %edx
/APP
 # 240 "../pmc_inline_func.h" 1
	mulxl 72(%esp), %esi, %edi
 # 0 "" 2
/NO_APP
	addl	36(%esp), %esi
	movl	%eax, %ebp
	movl	$0, %eax
	setc	%dl
	movl	%esi, 40(%esp)
	addb	$-1, %dl
	adcl	%eax, %edi
	movl	%ebp, %eax
	movl	%edi, 36(%esp)
	movl	68(%ecx), %edx
	addb	$-1, %al
	sbbl	%esi, %edx
	movl	%edx, 68(%ecx)
	setc	%al
	movl	72(%ebx), %edx
/APP
 # 240 "../pmc_inline_func.h" 1
	mulxl 72(%esp), %esi, %edi
 # 0 "" 2
/NO_APP
	addl	36(%esp), %esi
	movl	%eax, %ebp
	movl	$0, %eax
	setc	%dl
	movl	%esi, 40(%esp)
	addb	$-1, %dl
	adcl	%eax, %edi
	movl	%ebp, %eax
	movl	%edi, 36(%esp)
	movl	72(%ecx), %edx
	addb	$-1, %al
	sbbl	%esi, %edx
	movl	%edx, 72(%ecx)
	setc	%al
	movl	76(%ebx), %edx
/APP
 # 240 "../pmc_inline_func.h" 1
	mulxl 72(%esp), %esi, %edi
 # 0 "" 2
/NO_APP
	addl	36(%esp), %esi
	movl	%eax, %ebp
	movl	$0, %eax
	setc	%dl
	movl	%esi, 40(%esp)
	addb	$-1, %dl
	adcl	%eax, %edi
	movl	%ebp, %eax
	movl	%edi, 36(%esp)
	movl	76(%ecx), %edx
	addb	$-1, %al
	sbbl	%esi, %edx
	movl	%edx, 76(%ecx)
	setc	%al
	movl	80(%ebx), %edx
/APP
 # 240 "../pmc_inline_func.h" 1
	mulxl 72(%esp), %esi, %edi
 # 0 "" 2
/NO_APP
	addl	36(%esp), %esi
	movl	%eax, %ebp
	movl	$0, %eax
	setc	%dl
	movl	%esi, 40(%esp)
	addb	$-1, %dl
	adcl	%eax, %edi
	movl	%ebp, %eax
	movl	%edi, 36(%esp)
	movl	80(%ecx), %edx
	addb	$-1, %al
	sbbl	%esi, %edx
	movl	%edx, 80(%ecx)
	setc	%al
	movl	84(%ebx), %edx
/APP
 # 240 "../pmc_inline_func.h" 1
	mulxl 72(%esp), %esi, %edi
 # 0 "" 2
/NO_APP
	addl	36(%esp), %esi
	movl	%eax, %ebp
	movl	$0, %eax
	setc	%dl
	movl	%esi, 40(%esp)
	addb	$-1, %dl
	adcl	%eax, %edi
	movl	%ebp, %eax
	movl	%edi, 36(%esp)
	movl	84(%ecx), %edx
	addb	$-1, %al
	sbbl	%esi, %edx
	movl	%edx, 84(%ecx)
	setc	%al
	movl	88(%ebx), %edx
/APP
 # 240 "../pmc_inline_func.h" 1
	mulxl 72(%esp), %esi, %edi
 # 0 "" 2
/NO_APP
	addl	36(%esp), %esi
	movl	%eax, %ebp
	movl	$0, %eax
	setc	%dl
	movl	%esi, 40(%esp)
	addb	$-1, %dl
	adcl	%eax, %edi
	movl	%ebp, %eax
	movl	%edi, 36(%esp)
	movl	88(%ecx), %edx
	addb	$-1, %al
	sbbl	%esi, %edx
	movl	%edx, 88(%ecx)
	setc	%al
	movl	92(%ebx), %edx
/APP
 # 240 "../pmc_inline_func.h" 1
	mulxl 72(%esp), %esi, %edi
 # 0 "" 2
/NO_APP
	addl	36(%esp), %esi
	movl	%eax, %ebp
	movl	$0, %eax
	setc	%dl
	movl	%esi, 40(%esp)
	addb	$-1, %dl
	adcl	%eax, %edi
	movl	%ebp, %eax
	movl	%edi, 36(%esp)
	movl	92(%ecx), %edx
	addb	$-1, %al
	sbbl	%esi, %edx
	movl	%edx, 92(%ecx)
	setc	%al
	movl	96(%ebx), %edx
/APP
 # 240 "../pmc_inline_func.h" 1
	mulxl 72(%esp), %esi, %edi
 # 0 "" 2
/NO_APP
	addl	36(%esp), %esi
	movl	%eax, %ebp
	movl	$0, %eax
	setc	%dl
	movl	%esi, 40(%esp)
	addb	$-1, %dl
	adcl	%eax, %edi
	movl	%ebp, %eax
	movl	%edi, 36(%esp)
	movl	96(%ecx), %edx
	addb	$-1, %al
	sbbl	%esi, %edx
	movl	%edx, 96(%ecx)
	setc	%al
	movl	100(%ebx), %edx
/APP
 # 240 "../pmc_inline_func.h" 1
	mulxl 72(%esp), %esi, %edi
 # 0 "" 2
/NO_APP
	addl	36(%esp), %esi
	movl	%eax, %ebp
	movl	$0, %eax
	setc	%dl
	movl	%esi, 40(%esp)
	addb	$-1, %dl
	adcl	%eax, %edi
	movl	%ebp, %eax
	movl	%edi, 36(%esp)
	movl	100(%ecx), %edx
	addb	$-1, %al
	sbbl	%esi, %edx
	movl	%edx, 100(%ecx)
	setc	%al
	movl	104(%ebx), %edx
/APP
 # 240 "../pmc_inline_func.h" 1
	mulxl 72(%esp), %esi, %edi
 # 0 "" 2
/NO_APP
	addl	36(%esp), %esi
	movl	%eax, %ebp
	movl	$0, %eax
	setc	%dl
	movl	%esi, 40(%esp)
	addb	$-1, %dl
	adcl	%eax, %edi
	movl	%ebp, %eax
	movl	%edi, 36(%esp)
	movl	104(%ecx), %edx
	addb	$-1, %al
	sbbl	%esi, %edx
	movl	%edx, 104(%ecx)
	setc	%al
	movl	108(%ebx), %edx
/APP
 # 240 "../pmc_inline_func.h" 1
	mulxl 72(%esp), %esi, %edi
 # 0 "" 2
/NO_APP
	addl	36(%esp), %esi
	movl	%eax, %ebp
	movl	$0, %eax
	setc	%dl
	movl	%esi, 40(%esp)
	addb	$-1, %dl
	adcl	%eax, %edi
	movl	%ebp, %eax
	movl	%edi, 36(%esp)
	movl	108(%ecx), %edx
	addb	$-1, %al
	sbbl	%esi, %edx
	movl	%edx, 108(%ecx)
	setc	%al
	movl	112(%ebx), %edx
/APP
 # 240 "../pmc_inline_func.h" 1
	mulxl 72(%esp), %esi, %edi
 # 0 "" 2
/NO_APP
	addl	36(%esp), %esi
	movl	%eax, %ebp
	movl	$0, %eax
	setc	%dl
	movl	%esi, 40(%esp)
	addb	$-1, %dl
	adcl	%eax, %edi
	movl	%ebp, %eax
	movl	%edi, 36(%esp)
	movl	112(%ecx), %edx
	addb	$-1, %al
	sbbl	%esi, %edx
	setc	%al
	movl	%edx, 112(%ecx)
	movl	116(%ebx), %edx
/APP
 # 240 "../pmc_inline_func.h" 1
	mulxl 72(%esp), %esi, %edi
 # 0 "" 2
/NO_APP
	addl	36(%esp), %esi
	movl	%eax, %ebp
	movl	$0, %eax
	setc	%dl
	movl	%esi, 40(%esp)
	addb	$-1, %dl
	adcl	%eax, %edi
	movl	%ebp, %eax
	movl	%edi, 36(%esp)
	movl	116(%ecx), %edx
	addb	$-1, %al
	sbbl	%esi, %edx
	movl	%edx, 116(%ecx)
	setc	%al
	movl	120(%ebx), %edx
/APP
 # 240 "../pmc_inline_func.h" 1
	mulxl 72(%esp), %esi, %edi
 # 0 "" 2
/NO_APP
	addl	36(%esp), %esi
	movl	%eax, %ebp
	movl	$0, %eax
	setc	%dl
	movl	%esi, 40(%esp)
	addb	$-1, %dl
	adcl	%eax, %edi
	movl	%ebp, %eax
	movl	%edi, 36(%esp)
	movl	120(%ecx), %edx
	addb	$-1, %al
	sbbl	%esi, %edx
	movl	%edx, 120(%ecx)
	setc	%al
	movl	124(%ebx), %edx
/APP
 # 240 "../pmc_inline_func.h" 1
	mulxl 72(%esp), %esi, %edi
 # 0 "" 2
/NO_APP
	addl	36(%esp), %esi
	movl	%eax, %ebp
	movl	$0, %eax
	setc	%dl
	movl	%esi, 40(%esp)
	addb	$-1, %dl
	adcl	%eax, %edi
	movl	%ebp, %eax
	movl	%edi, 36(%esp)
	movl	124(%ecx), %edx
	addb	$-1, %al
	movl	%edx, %esi
	sbbl	40(%esp), %esi
	setc	%dl
	movl	%esi, 124(%ecx)
	movl	36(%esp), %esi
	subl	$-128, %ecx
	subl	$1, (%esp)
	movl	(%esp), %eax
	subl	$-128, %ebx
	lock addl	$32, __ZN8Palmtree4Math4Core8Internal15statistics_infoE+4
	movb	%dl, 7(%esp)
	testl	%eax, %eax
	jne	L61
	movl	24(%esp), %eax
	sall	$7, %eax
	addl	%eax, 8(%esp)
	addl	%eax, 12(%esp)
	movzbl	%dl, %eax
L60:
	movl	8(%esp), %ebx
	leal	4(%ebx), %ecx
	testb	$16, 64(%esp)
	jne	L102
L62:
	testb	$8, 64(%esp)
	jne	L103
L63:
	testb	$4, 64(%esp)
	jne	L104
L64:
	testb	$2, 64(%esp)
	jne	L105
L65:
	testb	$1, 64(%esp)
	jne	L106
L66:
	movl	8(%esp), %ebx
	addb	$-1, %al
	movl	(%ebx), %edx
	sbbl	%esi, %edx
	movl	%edx, (%ebx)
	movl	16(%esp), %ebx
	setc	%al
	movl	20(%esp), %esi
	leal	4(%ebx,%esi,4), %ebx
	subl	%ecx, %ebx
	sarl	$2, %ebx
	je	L67
	xorl	%esi, %esi
	testb	%al, %al
	jne	L68
	jmp	L69
	.p2align 4,,10
L99:
	testb	%al, %al
	je	L69
L68:
	movl	(%ecx), %edx
	addb	$-1, %al
	sbbl	%esi, %edx
	movl	%edx, (%ecx)
	setc	%al
	addl	$4, %ecx
	subl	$1, %ebx
	jne	L99
L67:
	addl	$44, %esp
	.cfi_remember_state
	.cfi_def_cfa_offset 20
	andl	$1, %eax
	popl	%ebx
	.cfi_restore 3
	.cfi_def_cfa_offset 16
	popl	%esi
	.cfi_restore 6
	.cfi_def_cfa_offset 12
	popl	%edi
	.cfi_restore 7
	.cfi_def_cfa_offset 8
	popl	%ebp
	.cfi_restore 5
	.cfi_def_cfa_offset 4
	ret
	.p2align 4,,10
L69:
	.cfi_restore_state
	addl	$44, %esp
	.cfi_remember_state
	.cfi_def_cfa_offset 20
	xorl	%eax, %eax
	popl	%ebx
	.cfi_restore 3
	.cfi_def_cfa_offset 16
	popl	%esi
	.cfi_restore 6
	.cfi_def_cfa_offset 12
	popl	%edi
	.cfi_restore 7
	.cfi_def_cfa_offset 8
	popl	%ebp
	.cfi_restore 5
	.cfi_def_cfa_offset 4
	ret
	.p2align 4,,10
L106:
	.cfi_restore_state
	movl	12(%esp), %ebx
	movl	(%ebx), %edx
/APP
 # 240 "../pmc_inline_func.h" 1
	mulxl 72(%esp), %edi, %ebx
 # 0 "" 2
/NO_APP
	addl	%esi, %edi
	setc	%dl
	movl	%edi, 40(%esp)
	addb	$-1, %dl
	adcl	$0, %ebx
	addb	$-1, %al
	movl	%ebx, 36(%esp)
	movl	8(%esp), %ebx
	movl	(%ebx), %edx
	sbbl	%edi, %edx
	movl	%edx, (%ebx)
	movl	36(%esp), %esi
	setc	%al
	lock addl	$1, __ZN8Palmtree4Math4Core8Internal15statistics_infoE+4
	movl	%ecx, 8(%esp)
	movzbl	%al, %eax
	addl	$4, %ecx
	jmp	L66
	.p2align 4,,10
L105:
	movl	12(%esp), %ebx
	movl	(%ebx), %edi
	movl	%edi, %edx
/APP
 # 240 "../pmc_inline_func.h" 1
	mulxl 72(%esp), %edi, %ebp
 # 0 "" 2
/NO_APP
	addl	%esi, %edi
	movl	%ebp, %esi
	movl	8(%esp), %ebp
	setc	%dl
	xorl	%ebx, %ebx
	movl	%edi, 40(%esp)
	addb	$-1, %dl
	adcl	%ebx, %esi
	addb	$-1, %al
	movl	%esi, 36(%esp)
	movl	0(%ebp), %edx
	sbbl	%edi, %edx
	setc	%al
	movl	%edx, 0(%ebp)
	movl	%eax, %edi
	movl	12(%esp), %eax
	movl	4(%eax), %esi
	movl	%esi, (%esp)
	movl	%esi, %edx
/APP
 # 240 "../pmc_inline_func.h" 1
	mulxl 72(%esp), %eax, %esi
 # 0 "" 2
/NO_APP
	addl	36(%esp), %eax
	setc	%dl
	movl	%eax, 40(%esp)
	addb	$-1, %dl
	adcl	%esi, %ebx
	movl	%ebx, 36(%esp)
	movl	%edi, %ebx
	movl	4(%ebp), %edx
	addb	$-1, %bl
	sbbl	%eax, %edx
	movl	%edx, (%ecx)
	setc	%al
	movl	36(%esp), %esi
	leal	8(%ebp), %edx
	addl	$8, 12(%esp)
	lock addl	$2, __ZN8Palmtree4Math4Core8Internal15statistics_infoE+4
	leal	12(%ebp), %ecx
	movzbl	%al, %eax
	movl	%edx, 8(%esp)
	jmp	L65
	.p2align 4,,10
L104:
	movl	12(%esp), %ebx
	movl	(%ebx), %edi
	movl	%edi, %edx
/APP
 # 240 "../pmc_inline_func.h" 1
	mulxl 72(%esp), %edi, %ebx
 # 0 "" 2
/NO_APP
	addl	%esi, %edi
	setc	%dl
	xorl	%ebp, %ebp
	movl	%edi, 40(%esp)
	addb	$-1, %dl
	adcl	%ebp, %ebx
	addb	$-1, %al
	movl	%ebx, 36(%esp)
	movl	8(%esp), %ebx
	movl	(%ebx), %edx
	sbbl	%edi, %edx
	movl	%ebx, %edi
	movl	%edx, (%ebx)
	movl	12(%esp), %ebx
	setc	%al
	movl	%eax, %esi
	movl	4(%ebx), %eax
	movl	%eax, %edx
/APP
 # 240 "../pmc_inline_func.h" 1
	mulxl 72(%esp), %eax, %ebx
 # 0 "" 2
/NO_APP
	addl	36(%esp), %eax
	setc	%dl
	movl	%eax, 40(%esp)
	addb	$-1, %dl
	adcl	%ebp, %ebx
	movl	%ebx, 36(%esp)
	movl	%esi, %ebx
	movl	4(%edi), %edx
	addb	$-1, %bl
	sbbl	%eax, %edx
	movl	%edx, (%ecx)
	movl	12(%esp), %esi
	setc	%bl
	movl	8(%esi), %eax
	movl	%eax, %edx
/APP
 # 240 "../pmc_inline_func.h" 1
	mulxl 72(%esp), %eax, %ecx
 # 0 "" 2
/NO_APP
	addl	36(%esp), %eax
	setc	%dl
	movl	%eax, 40(%esp)
	addb	$-1, %dl
	adcl	%ebp, %ecx
	addb	$-1, %bl
	movl	%ecx, 36(%esp)
	movl	8(%edi), %edx
	sbbl	%eax, %edx
	movl	%edx, 8(%edi)
	setc	%bl
	movl	%esi, 12(%esp)
	movl	12(%esi), %eax
	movl	%eax, (%esp)
	movl	%eax, %edx
/APP
 # 240 "../pmc_inline_func.h" 1
	mulxl 72(%esp), %eax, %ecx
 # 0 "" 2
/NO_APP
	addl	36(%esp), %eax
	setc	%dl
	movl	%eax, 40(%esp)
	addb	$-1, %dl
	adcl	%ecx, %ebp
	addb	$-1, %bl
	movl	%ebp, 36(%esp)
	movl	12(%edi), %edx
	sbbl	%eax, %edx
	movl	%edx, 12(%edi)
	setc	%al
	movl	36(%esp), %esi
	leal	16(%edi), %edx
	addl	$16, 12(%esp)
	lock addl	$4, __ZN8Palmtree4Math4Core8Internal15statistics_infoE+4
	leal	20(%edi), %ecx
	movzbl	%al, %eax
	movl	%edx, 8(%esp)
	jmp	L64
	.p2align 4,,10
L103:
	movl	12(%esp), %edi
	movl	(%edi), %ebx
	movl	%ebx, %edx
/APP
 # 240 "../pmc_inline_func.h" 1
	mulxl 72(%esp), %edi, %ebx
 # 0 "" 2
/NO_APP
	addl	%esi, %edi
	setc	%dl
	xorl	%ebp, %ebp
	movl	%edi, 40(%esp)
	addb	$-1, %dl
	adcl	%ebp, %ebx
	addb	$-1, %al
	movl	%ebx, 36(%esp)
	movl	8(%esp), %ebx
	movl	(%ebx), %edx
	sbbl	%edi, %edx
	movl	%ebx, %edi
	setc	%al
	movl	%edx, (%ebx)
	movl	%eax, %esi
	movl	12(%esp), %eax
	movl	4(%eax), %ebx
	movl	%ebx, %edx
/APP
 # 240 "../pmc_inline_func.h" 1
	mulxl 72(%esp), %eax, %ebx
 # 0 "" 2
/NO_APP
	addl	36(%esp), %eax
	setc	%dl
	movl	%eax, 40(%esp)
	addb	$-1, %dl
	adcl	%ebp, %ebx
	movl	%ebx, 36(%esp)
	movl	%esi, %ebx
	movl	4(%edi), %edx
	movl	%edi, %esi
	addb	$-1, %bl
	sbbl	%eax, %edx
	movl	%edx, (%ecx)
	movl	12(%esp), %eax
	setc	%bl
	movl	8(%eax), %ecx
	movl	%ecx, %edx
/APP
 # 240 "../pmc_inline_func.h" 1
	mulxl 72(%esp), %eax, %ecx
 # 0 "" 2
/NO_APP
	addl	36(%esp), %eax
	setc	%dl
	movl	%eax, 40(%esp)
	addb	$-1, %dl
	adcl	%ebp, %ecx
	addb	$-1, %bl
	movl	%ecx, 36(%esp)
	movl	8(%edi), %edx
	sbbl	%eax, %edx
	movl	%edx, 8(%edi)
	movl	12(%esp), %edi
	setc	%bl
	movl	12(%edi), %eax
	movl	%eax, %edx
/APP
 # 240 "../pmc_inline_func.h" 1
	mulxl 72(%esp), %eax, %ecx
 # 0 "" 2
/NO_APP
	addl	36(%esp), %eax
	setc	%dl
	movl	%eax, 40(%esp)
	addb	$-1, %dl
	adcl	%ebp, %ecx
	addb	$-1, %bl
	movl	%ecx, 36(%esp)
	movl	12(%esi), %edx
	sbbl	%eax, %edx
	movl	%edx, 12(%esi)
	movl	16(%edi), %eax
	setc	%bl
	movl	%eax, %edx
/APP
 # 240 "../pmc_inline_func.h" 1
	mulxl 72(%esp), %eax, %ecx
 # 0 "" 2
/NO_APP
	addl	36(%esp), %eax
	setc	%dl
	movl	%eax, 40(%esp)
	addb	$-1, %dl
	adcl	%ebp, %ecx
	addb	$-1, %bl
	movl	%ecx, 36(%esp)
	movl	16(%esi), %edx
	sbbl	%eax, %edx
	movl	%edx, 16(%esi)
	movl	20(%edi), %eax
	setc	%bl
	movl	%eax, %edx
/APP
 # 240 "../pmc_inline_func.h" 1
	mulxl 72(%esp), %eax, %ecx
 # 0 "" 2
/NO_APP
	addl	36(%esp), %eax
	setc	%dl
	movl	%eax, 40(%esp)
	addb	$-1, %dl
	adcl	%ebp, %ecx
	addb	$-1, %bl
	movl	%ecx, 36(%esp)
	movl	20(%esi), %edx
	sbbl	%eax, %edx
	movl	%edx, 20(%esi)
	movl	24(%edi), %eax
	setc	%bl
	movl	%eax, %edx
/APP
 # 240 "../pmc_inline_func.h" 1
	mulxl 72(%esp), %eax, %ecx
 # 0 "" 2
/NO_APP
	addl	36(%esp), %eax
	setc	%dl
	movl	%eax, 40(%esp)
	addb	$-1, %dl
	adcl	%ebp, %ecx
	addb	$-1, %bl
	movl	%ecx, 36(%esp)
	movl	24(%esi), %edx
	sbbl	%eax, %edx
	movl	%edx, 24(%esi)
	movl	28(%edi), %eax
	setc	%bl
	movl	%eax, (%esp)
	movl	%eax, %edx
/APP
 # 240 "../pmc_inline_func.h" 1
	mulxl 72(%esp), %eax, %ecx
 # 0 "" 2
/NO_APP
	addl	36(%esp), %eax
	setc	%dl
	movl	%eax, 40(%esp)
	addb	$-1, %dl
	adcl	%ebp, %ecx
	addb	$-1, %bl
	movl	%esi, %ebx
	movl	%ecx, 36(%esp)
	movl	28(%esi), %edx
	sbbl	%eax, %edx
	movl	%edx, 28(%esi)
	movl	36(%esp), %esi
	setc	%al
	leal	32(%ebx), %edx
	addl	$32, %edi
	movl	%edi, 12(%esp)
	lock addl	$8, __ZN8Palmtree4Math4Core8Internal15statistics_infoE+4
	leal	36(%ebx), %ecx
	movzbl	%al, %eax
	movl	%edx, 8(%esp)
	jmp	L63
	.p2align 4,,10
L102:
	movl	12(%esp), %ebp
	movl	0(%ebp), %ebx
	movl	%ebx, %edx
/APP
 # 240 "../pmc_inline_func.h" 1
	mulxl 72(%esp), %edi, %ecx
 # 0 "" 2
/NO_APP
	addl	%esi, %edi
	setc	%dl
	xorl	%esi, %esi
	movl	%edi, 40(%esp)
	addb	$-1, %dl
	adcl	%esi, %ecx
	addb	$-1, %al
	movl	%ecx, 36(%esp)
	movl	8(%esp), %ecx
	movl	(%ecx), %edx
	sbbl	%edi, %edx
	movl	%ecx, %edi
	movl	%edx, (%ecx)
	movl	4(%ebp), %eax
	setc	%bl
	movl	%eax, %edx
/APP
 # 240 "../pmc_inline_func.h" 1
	mulxl 72(%esp), %eax, %ecx
 # 0 "" 2
/NO_APP
	addl	36(%esp), %eax
	setc	%dl
	movl	%eax, 40(%esp)
	addb	$-1, %dl
	adcl	%esi, %ecx
	addb	$-1, %bl
	movl	%ecx, 36(%esp)
	movl	4(%edi), %edx
	sbbl	%eax, %edx
	movl	%edx, 4(%edi)
	movl	8(%ebp), %eax
	setc	%bl
	movl	%eax, %edx
/APP
 # 240 "../pmc_inline_func.h" 1
	mulxl 72(%esp), %eax, %ecx
 # 0 "" 2
/NO_APP
	addl	36(%esp), %eax
	setc	%dl
	movl	%eax, 40(%esp)
	addb	$-1, %dl
	adcl	%esi, %ecx
	addb	$-1, %bl
	movl	%ecx, 36(%esp)
	movl	8(%edi), %edx
	sbbl	%eax, %edx
	movl	%edx, 8(%edi)
	movl	12(%ebp), %eax
	setc	%bl
	movl	%eax, %edx
/APP
 # 240 "../pmc_inline_func.h" 1
	mulxl 72(%esp), %eax, %ecx
 # 0 "" 2
/NO_APP
	addl	36(%esp), %eax
	setc	%dl
	movl	%eax, 40(%esp)
	addb	$-1, %dl
	adcl	%esi, %ecx
	addb	$-1, %bl
	movl	%ecx, 36(%esp)
	movl	12(%edi), %edx
	sbbl	%eax, %edx
	movl	%edx, 12(%edi)
	movl	16(%ebp), %eax
	setc	%bl
	movl	%eax, %edx
/APP
 # 240 "../pmc_inline_func.h" 1
	mulxl 72(%esp), %eax, %ecx
 # 0 "" 2
/NO_APP
	addl	36(%esp), %eax
	setc	%dl
	movl	%eax, 40(%esp)
	addb	$-1, %dl
	adcl	%esi, %ecx
	addb	$-1, %bl
	movl	%ecx, 36(%esp)
	movl	16(%edi), %edx
	sbbl	%eax, %edx
	movl	%edx, 16(%edi)
	movl	20(%ebp), %eax
	setc	%bl
	movl	%eax, %edx
/APP
 # 240 "../pmc_inline_func.h" 1
	mulxl 72(%esp), %eax, %ecx
 # 0 "" 2
/NO_APP
	addl	36(%esp), %eax
	setc	%dl
	movl	%eax, 40(%esp)
	addb	$-1, %dl
	adcl	%esi, %ecx
	addb	$-1, %bl
	movl	%ecx, 36(%esp)
	movl	20(%edi), %edx
	sbbl	%eax, %edx
	movl	%edx, 20(%edi)
	movl	24(%ebp), %eax
	setc	%bl
	movl	%eax, %edx
/APP
 # 240 "../pmc_inline_func.h" 1
	mulxl 72(%esp), %eax, %ecx
 # 0 "" 2
/NO_APP
	addl	36(%esp), %eax
	setc	%dl
	movl	%eax, 40(%esp)
	addb	$-1, %dl
	adcl	%esi, %ecx
	addb	$-1, %bl
	movl	%ecx, 36(%esp)
	movl	24(%edi), %edx
	sbbl	%eax, %edx
	movl	%edx, 24(%edi)
	movl	28(%ebp), %eax
	setc	%bl
	movl	%eax, %edx
/APP
 # 240 "../pmc_inline_func.h" 1
	mulxl 72(%esp), %eax, %ecx
 # 0 "" 2
/NO_APP
	addl	36(%esp), %eax
	setc	%dl
	movl	%eax, 40(%esp)
	addb	$-1, %dl
	adcl	%esi, %ecx
	addb	$-1, %bl
	movl	%ecx, 36(%esp)
	movl	28(%edi), %edx
	sbbl	%eax, %edx
	movl	%edx, 28(%edi)
	movl	32(%ebp), %eax
	setc	%bl
	movl	%eax, %edx
/APP
 # 240 "../pmc_inline_func.h" 1
	mulxl 72(%esp), %eax, %ecx
 # 0 "" 2
/NO_APP
	addl	36(%esp), %eax
	setc	%dl
	movl	%eax, 40(%esp)
	addb	$-1, %dl
	adcl	%esi, %ecx
	addb	$-1, %bl
	movl	%ecx, 36(%esp)
	movl	32(%edi), %edx
	sbbl	%eax, %edx
	movl	%edx, 32(%edi)
	movl	36(%ebp), %eax
	setc	%bl
	movl	%eax, %edx
/APP
 # 240 "../pmc_inline_func.h" 1
	mulxl 72(%esp), %eax, %ecx
 # 0 "" 2
/NO_APP
	addl	36(%esp), %eax
	setc	%dl
	movl	%eax, 40(%esp)
	addb	$-1, %dl
	adcl	%esi, %ecx
	addb	$-1, %bl
	movl	%ecx, 36(%esp)
	movl	36(%edi), %edx
	sbbl	%eax, %edx
	movl	%edx, 36(%edi)
	movl	40(%ebp), %eax
	setc	%bl
	movl	%eax, %edx
/APP
 # 240 "../pmc_inline_func.h" 1
	mulxl 72(%esp), %eax, %ecx
 # 0 "" 2
/NO_APP
	addl	36(%esp), %eax
	setc	%dl
	movl	%eax, 40(%esp)
	addb	$-1, %dl
	adcl	%esi, %ecx
	addb	$-1, %bl
	movl	%ecx, 36(%esp)
	movl	40(%edi), %edx
	sbbl	%eax, %edx
	movl	%edx, 40(%edi)
	movl	44(%ebp), %eax
	setc	%bl
	movl	%eax, %edx
/APP
 # 240 "../pmc_inline_func.h" 1
	mulxl 72(%esp), %eax, %ecx
 # 0 "" 2
/NO_APP
	addl	36(%esp), %eax
	setc	%dl
	movl	%eax, 40(%esp)
	addb	$-1, %dl
	adcl	%esi, %ecx
	addb	$-1, %bl
	movl	%ecx, 36(%esp)
	movl	44(%edi), %edx
	sbbl	%eax, %edx
	movl	%edx, 44(%edi)
	movl	48(%ebp), %eax
	setc	%bl
	movl	%eax, %edx
/APP
 # 240 "../pmc_inline_func.h" 1
	mulxl 72(%esp), %eax, %ecx
 # 0 "" 2
/NO_APP
	addl	36(%esp), %eax
	setc	%dl
	movl	%eax, 40(%esp)
	addb	$-1, %dl
	adcl	%esi, %ecx
	addb	$-1, %bl
	movl	%ecx, 36(%esp)
	movl	48(%edi), %edx
	sbbl	%eax, %edx
	movl	%edx, 48(%edi)
	movl	52(%ebp), %eax
	setc	%bl
	movl	%eax, %edx
/APP
 # 240 "../pmc_inline_func.h" 1
	mulxl 72(%esp), %eax, %ecx
 # 0 "" 2
/NO_APP
	addl	36(%esp), %eax
	setc	%dl
	movl	%eax, 40(%esp)
	addb	$-1, %dl
	adcl	%esi, %ecx
	addb	$-1, %bl
	movl	%ecx, 36(%esp)
	movl	52(%edi), %edx
	sbbl	%eax, %edx
	movl	%edx, 52(%edi)
	movl	56(%ebp), %eax
	setc	%bl
	movl	%eax, %edx
/APP
 # 240 "../pmc_inline_func.h" 1
	mulxl 72(%esp), %eax, %ecx
 # 0 "" 2
/NO_APP
	addl	36(%esp), %eax
	setc	%dl
	movl	%eax, 40(%esp)
	addb	$-1, %dl
	adcl	%esi, %ecx
	addb	$-1, %bl
	movl	%ecx, 36(%esp)
	movl	56(%edi), %edx
	sbbl	%eax, %edx
	movl	%edx, 56(%edi)
	movl	60(%ebp), %eax
	setc	%bl
	movl	%eax, (%esp)
	movl	%eax, %edx
/APP
 # 240 "../pmc_inline_func.h" 1
	mulxl 72(%esp), %eax, %ecx
 # 0 "" 2
/NO_APP
	addl	36(%esp), %eax
	setc	%dl
	movl	%eax, 40(%esp)
	addb	$-1, %dl
	adcl	%esi, %ecx
	addb	$-1, %bl
	movl	%ecx, 36(%esp)
	movl	60(%edi), %edx
	sbbl	%eax, %edx
	movl	%edx, 60(%edi)
	movl	36(%esp), %esi
	setc	%al
	leal	64(%edi), %edx
	addl	$64, %ebp
	movl	%ebp, 12(%esp)
	lock addl	$16, __ZN8Palmtree4Math4Core8Internal15statistics_infoE+4
	leal	68(%edi), %ecx
	movzbl	%al, %eax
	movl	%edx, 8(%esp)
	jmp	L62
	.p2align 4,,10
L72:
	xorl	%esi, %esi
	xorl	%eax, %eax
	jmp	L60
	.cfi_endproc
LFE6212:
	.p2align 4,,15
	.def	__ZN8Palmtree4Math4Core8InternalL25DivRem_X_X_using_ADX_MULXEPjjS3_jS3_S3_S3_;	.scl	3;	.type	32;	.endef
__ZN8Palmtree4Math4Core8InternalL25DivRem_X_X_using_ADX_MULXEPjjS3_jS3_S3_S3_:
LFB6217:
	.cfi_startproc
	pushl	%ebp
	.cfi_def_cfa_offset 8
	.cfi_offset 5, -8
	pushl	%edi
	.cfi_def_cfa_offset 12
	.cfi_offset 7, -12
	pushl	%esi
	.cfi_def_cfa_offset 16
	.cfi_offset 6, -16
	pushl	%ebx
	.cfi_def_cfa_offset 20
	.cfi_offset 3, -20
	subl	$124, %esp
	.cfi_def_cfa_offset 144
	movl	156(%esp), %eax
	movl	152(%esp), %esi
	addl	$1073741823, %eax
	leal	0(,%eax,4), %ebp
	movl	(%esi,%eax,4), %edx
	movl	148(%esp), %eax
	leal	0(,%eax,4), %ebx
	movl	168(%esp), %eax
	addl	%ebx, %eax
	testl	%edx, %edx
	je	L133
	movl	$31, %ecx
/APP
 # 462 "../pmc_inline_func.h" 1
	bsrl %edx, %edx
 # 0 "" 2
/NO_APP
	subl	%edx, %ecx
	movl	%ecx, %edx
	jne	L134
	movl	168(%esp), %edi
	movl	144(%esp), %esi
	movl	148(%esp), %ecx
/APP
 # 1773 "C:/GNU/MINGW64/i686-8.1.0-win32-dwarf-rt_v6-rev0/mingw32/i686-w64-mingw32/include/psdk_inc/intrin-impl.h" 1
	rep movsd
 # 0 "" 2
/NO_APP
	movl	160(%esp), %edi
	movl	152(%esp), %esi
	movl	156(%esp), %ecx
/APP
 # 1773 "C:/GNU/MINGW64/i686-8.1.0-win32-dwarf-rt_v6-rev0/mingw32/i686-w64-mingw32/include/psdk_inc/intrin-impl.h" 1
	rep movsd
 # 0 "" 2
/NO_APP
	movl	$0, (%eax)
	movl	$0, 88(%esp)
L109:
	movl	148(%esp), %esi
	movl	148(%esp), %eax
	subl	156(%esp), %eax
	movl	148(%esp), %edi
	addl	$1, %esi
	movl	%eax, 36(%esp)
	movl	160(%esp), %eax
	movl	%esi, 92(%esp)
	movl	168(%esp), %esi
	leal	-4(%eax,%ebp), %eax
	addl	160(%esp), %ebp
	leal	4(%esi,%ebx), %esi
	movl	%eax, 56(%esp)
	movl	156(%esp), %eax
	movl	%edx, %ebx
	movl	%esi, 68(%esp)
	movl	168(%esp), %esi
	shrl	$5, %eax
	movl	%ebp, 60(%esp)
	leal	(%esi,%edi,4), %esi
	movl	%eax, 64(%esp)
	sall	$7, %eax
	movl	%esi, 32(%esp)
	movl	168(%esp), %esi
	addl	%eax, %esi
	addl	160(%esp), %eax
	movl	%eax, 80(%esp)
	movl	156(%esp), %eax
	movl	%esi, 84(%esp)
	andl	$16, %eax
	movl	%eax, 72(%esp)
	movl	156(%esp), %eax
	andl	$8, %eax
	movl	%eax, 76(%esp)
	jmp	L131
	.p2align 4,,10
L120:
	movl	164(%esp), %edx
	testl	%edx, %edx
	je	L129
	movl	164(%esp), %eax
	movl	36(%esp), %ebx
	movl	%ebp, (%eax,%ebx,4)
L129:
	movl	36(%esp), %ecx
	subl	$4, 32(%esp)
	movl	32(%esp), %eax
	testl	%ecx, %ecx
	je	L130
	subl	$1, %ecx
	movl	(%eax), %ebx
	movl	%ecx, 36(%esp)
L131:
	movl	32(%esp), %eax
	movl	$-1, %ebp
	movl	-4(%eax), %edi
	movl	-8(%eax), %eax
	movl	%eax, 48(%esp)
	movl	60(%esp), %eax
	movl	%edi, 40(%esp)
	movl	(%eax), %ecx
	movl	56(%esp), %eax
	movl	(%eax), %eax
	movl	%eax, %esi
	cmpl	%ebx, %ecx
	je	L110
	movl	%edi, %eax
	movl	%ebx, %edx
/APP
 # 274 "../pmc_inline_func.h" 1
	divl %ecx
 # 0 "" 2
/NO_APP
	movl	%eax, %ebp
	lock addl	$1, __ZN8Palmtree4Math4Core8Internal15statistics_infoE+12
L110:
	movl	%esi, %edx
/APP
 # 240 "../pmc_inline_func.h" 1
	mulxl %ebp, %edi, %eax
 # 0 "" 2
/NO_APP
	movl	%ebp, %edx
	movl	%eax, 44(%esp)
	movl	%edi, 52(%esp)
/APP
 # 240 "../pmc_inline_func.h" 1
	mulxl %ecx, %edi, %eax
 # 0 "" 2
/NO_APP
	movl	40(%esp), %edx
	subl	%edi, %edx
	movl	%edx, %edi
	setb	%dl
	movl	%edi, 108(%esp)
	addb	$-1, %dl
	movl	%ebx, %edi
	sbbl	%eax, %edi
	movl	%edi, 104(%esp)
	lock addl	$2, __ZN8Palmtree4Math4Core8Internal15statistics_infoE+4
	movl	104(%esp), %edi
	testl	%edi, %edi
	jne	L112
	movl	44(%esp), %eax
	cmpl	108(%esp), %eax
	ja	L114
	jb	L112
	movl	52(%esp), %edi
	cmpl	%edi, 48(%esp)
	jnb	L112
L114:
	leal	-1(%ebp), %eax
	movl	%esi, %edx
/APP
 # 240 "../pmc_inline_func.h" 1
	mulxl %eax, %edi, %esi
 # 0 "" 2
/NO_APP
	movl	%esi, 44(%esp)
	movl	40(%esp), %esi
	movl	%eax, %edx
	movl	%edi, 52(%esp)
/APP
 # 240 "../pmc_inline_func.h" 1
	mulxl %ecx, %ecx, %edi
 # 0 "" 2
/NO_APP
	subl	%ecx, %esi
	setb	%dl
	movl	%esi, 108(%esp)
	addb	$-1, %dl
	sbbl	%edi, %ebx
	movl	%ebx, 104(%esp)
	lock addl	$2, __ZN8Palmtree4Math4Core8Internal15statistics_infoE+4
	movl	104(%esp), %esi
	testl	%esi, %esi
	jne	L136
	movl	44(%esp), %esi
	cmpl	108(%esp), %esi
	ja	L118
	jb	L136
	movl	52(%esp), %edi
	cmpl	%edi, 48(%esp)
	jnb	L136
L118:
	subl	$2, %ebp
L112:
	movl	36(%esp), %eax
	movl	%ebp, 8(%esp)
	movl	160(%esp), %ecx
	movl	148(%esp), %edx
	movl	%eax, 4(%esp)
	movl	156(%esp), %eax
	movl	%eax, (%esp)
	movl	168(%esp), %eax
	call	__ZN8Palmtree4Math4Core8InternalL16SubtructOneLineXEPjjS3_jjj
	testl	%eax, %eax
	je	L120
	movl	36(%esp), %eax
	movl	168(%esp), %esi
	subl	$1, %ebp
	movl	64(%esp), %ebx
	sall	$2, %eax
	movl	%eax, 44(%esp)
	addl	%eax, %esi
	testl	%ebx, %ebx
	je	L137
	movl	%ebp, 48(%esp)
	movl	160(%esp), %edi
	xorl	%eax, %eax
	movl	%ebx, 40(%esp)
	.p2align 4,,10
L122:
	movl	%esi, %edx
	movl	%edi, %ebx
	movl	%esi, %ebp
/APP
 # 432 "../autogenerated_inline_func.h" 1
	addb	$-1, %al
	movl	(%edx), %ecx
	adcxl	(%ebx), %ecx
	movl	%ecx, (%ebp)
	movl	4(%edx), %ecx
	adcxl	4(%ebx), %ecx
	movl	%ecx, 4(%ebp)
	movl	8(%edx), %ecx
	adcxl	8(%ebx), %ecx
	movl	%ecx, 8(%ebp)
	movl	12(%edx), %ecx
	adcxl	12(%ebx), %ecx
	movl	%ecx, 12(%ebp)
	movl	16(%edx), %ecx
	adcxl	16(%ebx), %ecx
	movl	%ecx, 16(%ebp)
	movl	20(%edx), %ecx
	adcxl	20(%ebx), %ecx
	movl	%ecx, 20(%ebp)
	movl	24(%edx), %ecx
	adcxl	24(%ebx), %ecx
	movl	%ecx, 24(%ebp)
	movl	28(%edx), %ecx
	adcxl	28(%ebx), %ecx
	movl	%ecx, 28(%ebp)
	movl	32(%edx), %ecx
	adcxl	32(%ebx), %ecx
	movl	%ecx, 32(%ebp)
	movl	36(%edx), %ecx
	adcxl	36(%ebx), %ecx
	movl	%ecx, 36(%ebp)
	movl	40(%edx), %ecx
	adcxl	40(%ebx), %ecx
	movl	%ecx, 40(%ebp)
	movl	44(%edx), %ecx
	adcxl	44(%ebx), %ecx
	movl	%ecx, 44(%ebp)
	movl	48(%edx), %ecx
	adcxl	48(%ebx), %ecx
	movl	%ecx, 48(%ebp)
	movl	52(%edx), %ecx
	adcxl	52(%ebx), %ecx
	movl	%ecx, 52(%ebp)
	movl	56(%edx), %ecx
	adcxl	56(%ebx), %ecx
	movl	%ecx, 56(%ebp)
	movl	60(%edx), %ecx
	adcxl	60(%ebx), %ecx
	movl	%ecx, 60(%ebp)
	movl	64(%edx), %ecx
	adcxl	64(%ebx), %ecx
	movl	%ecx, 64(%ebp)
	movl	68(%edx), %ecx
	adcxl	68(%ebx), %ecx
	movl	%ecx, 68(%ebp)
	movl	72(%edx), %ecx
	adcxl	72(%ebx), %ecx
	movl	%ecx, 72(%ebp)
	movl	76(%edx), %ecx
	adcxl	76(%ebx), %ecx
	movl	%ecx, 76(%ebp)
	movl	80(%edx), %ecx
	adcxl	80(%ebx), %ecx
	movl	%ecx, 80(%ebp)
	movl	84(%edx), %ecx
	adcxl	84(%ebx), %ecx
	movl	%ecx, 84(%ebp)
	movl	88(%edx), %ecx
	adcxl	88(%ebx), %ecx
	movl	%ecx, 88(%ebp)
	movl	92(%edx), %ecx
	adcxl	92(%ebx), %ecx
	movl	%ecx, 92(%ebp)
	movl	96(%edx), %ecx
	adcxl	96(%ebx), %ecx
	movl	%ecx, 96(%ebp)
	movl	100(%edx), %ecx
	adcxl	100(%ebx), %ecx
	movl	%ecx, 100(%ebp)
	movl	104(%edx), %ecx
	adcxl	104(%ebx), %ecx
	movl	%ecx, 104(%ebp)
	movl	108(%edx), %ecx
	adcxl	108(%ebx), %ecx
	movl	%ecx, 108(%ebp)
	movl	112(%edx), %ecx
	adcxl	112(%ebx), %ecx
	movl	%ecx, 112(%ebp)
	movl	116(%edx), %ecx
	adcxl	116(%ebx), %ecx
	movl	%ecx, 116(%ebp)
	movl	120(%edx), %ecx
	adcxl	120(%ebx), %ecx
	movl	%ecx, 120(%ebp)
	movl	124(%edx), %ecx
	adcxl	124(%ebx), %ecx
	movl	%ecx, 124(%ebp)
	setc	%al
 # 0 "" 2
/NO_APP
	subl	$-128, %esi
	subl	$-128, %edi
	subl	$1, 40(%esp)
	jne	L122
	movl	80(%esp), %ebx
	movl	48(%esp), %ebp
	movl	44(%esp), %esi
	addl	84(%esp), %esi
	movl	%ebx, 40(%esp)
L121:
	movl	72(%esp), %ebx
	testl	%ebx, %ebx
	jne	L171
L123:
	movl	76(%esp), %ecx
	testl	%ecx, %ecx
	jne	L172
L124:
	testb	$4, 156(%esp)
	je	L125
	movl	%esi, %edx
	movl	40(%esp), %ebx
	movl	%esi, %edi
/APP
 # 2040 "../autogenerated_inline_func.h" 1
	addb	$-1, %al
	movl	(%edx), %ecx
	adcxl	(%ebx), %ecx
	movl	%ecx, (%edi)
	movl	4(%edx), %ecx
	adcxl	4(%ebx), %ecx
	movl	%ecx, 4(%edi)
	movl	8(%edx), %ecx
	adcxl	8(%ebx), %ecx
	movl	%ecx, 8(%edi)
	movl	12(%edx), %ecx
	adcxl	12(%ebx), %ecx
	movl	%ecx, 12(%edi)
	setc	%al
 # 0 "" 2
/NO_APP
	addl	$16, 40(%esp)
	addl	$16, %esi
L125:
	testb	$2, 156(%esp)
	je	L126
	movl	%esi, %edx
	movl	40(%esp), %ebx
	movl	%esi, %edi
/APP
 # 2246 "../autogenerated_inline_func.h" 1
	addb	$-1, %al
	movl	(%edx), %ecx
	adcxl	(%ebx), %ecx
	movl	%ecx, (%edi)
	movl	4(%edx), %ecx
	adcxl	4(%ebx), %ecx
	movl	%ecx, 4(%edi)
	setc	%al
 # 0 "" 2
/NO_APP
	addl	$8, 40(%esp)
	addl	$8, %esi
L126:
	testb	$1, 156(%esp)
	je	L127
	movl	40(%esp), %ecx
	addb	$-1, %al
	movl	(%ecx), %edx
	movl	%edx, %eax
	adcl	(%esi), %eax
	movl	%eax, (%esi)
	setc	%al
	addl	$4, %esi
L127:
	movl	68(%esp), %ecx
	subl	%esi, %ecx
	sarl	$2, %ecx
	je	L120
	testb	%al, %al
	je	L120
	xorl	%ebx, %ebx
	.p2align 4,,10
L128:
	movl	(%esi), %edx
	addb	$-1, %al
	adcl	%ebx, %edx
	movl	%edx, (%esi)
	setc	%al
	addl	$4, %esi
	subl	$1, %ecx
	setne	%dl
	testb	%al, %dl
	jne	L128
	jmp	L120
	.p2align 4,,10
L136:
	movl	%eax, %ebp
	jmp	L112
	.p2align 4,,10
L130:
	movl	88(%esp), %eax
	testl	%eax, %eax
	jne	L173
	addl	$124, %esp
	.cfi_remember_state
	.cfi_def_cfa_offset 20
	popl	%ebx
	.cfi_restore 3
	.cfi_def_cfa_offset 16
	popl	%esi
	.cfi_restore 6
	.cfi_def_cfa_offset 12
	popl	%edi
	.cfi_restore 7
	.cfi_def_cfa_offset 8
	popl	%ebp
	.cfi_restore 5
	.cfi_def_cfa_offset 4
	ret
	.p2align 4,,10
L172:
	.cfi_restore_state
	movl	%esi, %edx
	movl	40(%esp), %ebx
	movl	%esi, %edi
/APP
 # 1744 "../autogenerated_inline_func.h" 1
	addb	$-1, %al
	movl	(%edx), %ecx
	adcxl	(%ebx), %ecx
	movl	%ecx, (%edi)
	movl	4(%edx), %ecx
	adcxl	4(%ebx), %ecx
	movl	%ecx, 4(%edi)
	movl	8(%edx), %ecx
	adcxl	8(%ebx), %ecx
	movl	%ecx, 8(%edi)
	movl	12(%edx), %ecx
	adcxl	12(%ebx), %ecx
	movl	%ecx, 12(%edi)
	movl	16(%edx), %ecx
	adcxl	16(%ebx), %ecx
	movl	%ecx, 16(%edi)
	movl	20(%edx), %ecx
	adcxl	20(%ebx), %ecx
	movl	%ecx, 20(%edi)
	movl	24(%edx), %ecx
	adcxl	24(%ebx), %ecx
	movl	%ecx, 24(%edi)
	movl	28(%edx), %ecx
	adcxl	28(%ebx), %ecx
	movl	%ecx, 28(%edi)
	setc	%al
 # 0 "" 2
/NO_APP
	addl	$32, %esi
	addl	$32, 40(%esp)
	jmp	L124
	.p2align 4,,10
L171:
	movl	%esi, %edx
	movl	40(%esp), %ebx
	movl	%esi, %edi
/APP
 # 1268 "../autogenerated_inline_func.h" 1
	addb	$-1, %al
	movl	(%edx), %ecx
	adcxl	(%ebx), %ecx
	movl	%ecx, (%edi)
	movl	4(%edx), %ecx
	adcxl	4(%ebx), %ecx
	movl	%ecx, 4(%edi)
	movl	8(%edx), %ecx
	adcxl	8(%ebx), %ecx
	movl	%ecx, 8(%edi)
	movl	12(%edx), %ecx
	adcxl	12(%ebx), %ecx
	movl	%ecx, 12(%edi)
	movl	16(%edx), %ecx
	adcxl	16(%ebx), %ecx
	movl	%ecx, 16(%edi)
	movl	20(%edx), %ecx
	adcxl	20(%ebx), %ecx
	movl	%ecx, 20(%edi)
	movl	24(%edx), %ecx
	adcxl	24(%ebx), %ecx
	movl	%ecx, 24(%edi)
	movl	28(%edx), %ecx
	adcxl	28(%ebx), %ecx
	movl	%ecx, 28(%edi)
	movl	32(%edx), %ecx
	adcxl	32(%ebx), %ecx
	movl	%ecx, 32(%edi)
	movl	36(%edx), %ecx
	adcxl	36(%ebx), %ecx
	movl	%ecx, 36(%edi)
	movl	40(%edx), %ecx
	adcxl	40(%ebx), %ecx
	movl	%ecx, 40(%edi)
	movl	44(%edx), %ecx
	adcxl	44(%ebx), %ecx
	movl	%ecx, 44(%edi)
	movl	48(%edx), %ecx
	adcxl	48(%ebx), %ecx
	movl	%ecx, 48(%edi)
	movl	52(%edx), %ecx
	adcxl	52(%ebx), %ecx
	movl	%ecx, 52(%edi)
	movl	56(%edx), %ecx
	adcxl	56(%ebx), %ecx
	movl	%ecx, 56(%edi)
	movl	60(%edx), %ecx
	adcxl	60(%ebx), %ecx
	movl	%ecx, 60(%edi)
	setc	%al
 # 0 "" 2
/NO_APP
	addl	$64, %esi
	addl	$64, 40(%esp)
	jmp	L123
	.p2align 4,,10
L137:
	movl	160(%esp), %eax
	movl	%eax, 40(%esp)
	xorl	%eax, %eax
	jmp	L121
	.p2align 4,,10
L173:
	movl	168(%esp), %eax
	movl	$0, 16(%esp)
	movl	%eax, 12(%esp)
	movl	88(%esp), %eax
	movl	%eax, 8(%esp)
	movl	92(%esp), %eax
	movl	%eax, 4(%esp)
	movl	168(%esp), %eax
	movl	%eax, (%esp)
	call	__ZN8Palmtree4Math4Core8Internal14RightShift_ImpEPjjjS3_i
	addl	$124, %esp
	.cfi_remember_state
	.cfi_def_cfa_offset 20
	popl	%ebx
	.cfi_restore 3
	.cfi_def_cfa_offset 16
	popl	%esi
	.cfi_restore 6
	.cfi_def_cfa_offset 12
	popl	%edi
	.cfi_restore 7
	.cfi_def_cfa_offset 8
	popl	%ebp
	.cfi_restore 5
	.cfi_def_cfa_offset 4
	ret
	.p2align 4,,10
L133:
	.cfi_restore_state
	movl	$32, 88(%esp)
L108:
	movl	%eax, 32(%esp)
	movl	168(%esp), %eax
	movl	88(%esp), %esi
	movl	$0, 16(%esp)
	movl	%eax, 12(%esp)
	movl	148(%esp), %eax
	movl	%esi, 8(%esp)
	movl	%eax, 4(%esp)
	movl	144(%esp), %eax
	movl	%eax, (%esp)
	call	__ZN8Palmtree4Math4Core8Internal13LeftShift_ImpEPjjjS3_i
	movl	160(%esp), %eax
	movl	%esi, 8(%esp)
	movl	$0, 16(%esp)
	movl	%eax, 12(%esp)
	movl	156(%esp), %eax
	movl	%eax, 4(%esp)
	movl	152(%esp), %eax
	movl	%eax, (%esp)
	call	__ZN8Palmtree4Math4Core8Internal13LeftShift_ImpEPjjjS3_i
	movl	32(%esp), %eax
	movl	(%eax), %eax
	movl	%eax, %edx
	jmp	L109
	.p2align 4,,10
L134:
	movl	%ecx, 88(%esp)
	jmp	L108
	.cfi_endproc
LFE6217:
	.p2align 4,,15
	.def	__ZN8Palmtree4Math4Core8InternalL24DivRem_X_X_using_ADC_MULEPjjS3_jS3_S3_S3_;	.scl	3;	.type	32;	.endef
__ZN8Palmtree4Math4Core8InternalL24DivRem_X_X_using_ADC_MULEPjjS3_jS3_S3_S3_:
LFB6216:
	.cfi_startproc
	pushl	%ebp
	.cfi_def_cfa_offset 8
	.cfi_offset 5, -8
	pushl	%edi
	.cfi_def_cfa_offset 12
	.cfi_offset 7, -12
	pushl	%esi
	.cfi_def_cfa_offset 16
	.cfi_offset 6, -16
	pushl	%ebx
	.cfi_def_cfa_offset 20
	.cfi_offset 3, -20
	subl	$124, %esp
	.cfi_def_cfa_offset 144
	movl	156(%esp), %eax
	movl	152(%esp), %ebx
	addl	$1073741823, %eax
	movl	(%ebx,%eax,4), %edx
	leal	0(,%eax,4), %ebp
	movl	148(%esp), %eax
	leal	0(,%eax,4), %ebx
	movl	168(%esp), %eax
	addl	%ebx, %eax
	testl	%edx, %edx
	je	L200
	movl	$31, %ecx
/APP
 # 462 "../pmc_inline_func.h" 1
	bsrl %edx, %edx
 # 0 "" 2
/NO_APP
	subl	%edx, %ecx
	movl	%ecx, %edx
	jne	L201
	movl	168(%esp), %edi
	movl	144(%esp), %esi
	movl	148(%esp), %ecx
/APP
 # 1773 "C:/GNU/MINGW64/i686-8.1.0-win32-dwarf-rt_v6-rev0/mingw32/i686-w64-mingw32/include/psdk_inc/intrin-impl.h" 1
	rep movsd
 # 0 "" 2
/NO_APP
	movl	160(%esp), %edi
	movl	152(%esp), %esi
	movl	156(%esp), %ecx
/APP
 # 1773 "C:/GNU/MINGW64/i686-8.1.0-win32-dwarf-rt_v6-rev0/mingw32/i686-w64-mingw32/include/psdk_inc/intrin-impl.h" 1
	rep movsd
 # 0 "" 2
/NO_APP
	movl	$0, (%eax)
	movl	$0, 88(%esp)
L176:
	movl	148(%esp), %ecx
	movl	148(%esp), %eax
	subl	156(%esp), %eax
	addl	$1, %ecx
	movl	%eax, 36(%esp)
	movl	160(%esp), %eax
	movl	%ecx, 92(%esp)
	movl	168(%esp), %ecx
	leal	-4(%eax,%ebp), %eax
	addl	160(%esp), %ebp
	leal	4(%ecx,%ebx), %ebx
	movl	%eax, 56(%esp)
	movl	156(%esp), %eax
	movl	%ebx, 68(%esp)
	movl	%ecx, %ebx
	movl	148(%esp), %ecx
	shrl	$5, %eax
	movl	%ebp, 60(%esp)
	leal	(%ebx,%ecx,4), %ebx
	movl	%eax, 64(%esp)
	sall	$7, %eax
	movl	%ebx, 32(%esp)
	movl	168(%esp), %ebx
	addl	%eax, %ebx
	addl	160(%esp), %eax
	movl	%eax, 80(%esp)
	movl	156(%esp), %eax
	movl	%ebx, 84(%esp)
	movl	%edx, %ebx
	andl	$16, %eax
	movl	%eax, 72(%esp)
	movl	156(%esp), %eax
	andl	$8, %eax
	movl	%eax, 76(%esp)
	jmp	L198
	.p2align 4,,10
L187:
	movl	164(%esp), %edx
	testl	%edx, %edx
	je	L196
	movl	164(%esp), %eax
	movl	36(%esp), %ebx
	movl	%ebp, (%eax,%ebx,4)
L196:
	movl	36(%esp), %edi
	subl	$4, 32(%esp)
	movl	32(%esp), %eax
	testl	%edi, %edi
	je	L197
	subl	$1, %edi
	movl	(%eax), %ebx
	movl	%edi, 36(%esp)
L198:
	movl	32(%esp), %eax
	movl	$-1, %ebp
	movl	-4(%eax), %edi
	movl	-8(%eax), %eax
	movl	%eax, 48(%esp)
	movl	60(%esp), %eax
	movl	(%eax), %ecx
	movl	56(%esp), %eax
	movl	(%eax), %eax
	movl	%eax, 40(%esp)
	cmpl	%ebx, %ecx
	je	L177
	movl	%edi, %eax
	movl	%ebx, %edx
/APP
 # 274 "../pmc_inline_func.h" 1
	divl %ecx
 # 0 "" 2
/NO_APP
	movl	%eax, %ebp
	lock addl	$1, __ZN8Palmtree4Math4Core8Internal15statistics_infoE+12
L177:
	movl	%edi, %esi
	movl	40(%esp), %eax
/APP
 # 215 "../pmc_inline_func.h" 1
	mull %ebp
 # 0 "" 2
/NO_APP
	movl	%edx, 44(%esp)
	movl	%eax, 52(%esp)
	movl	%ebp, %eax
/APP
 # 215 "../pmc_inline_func.h" 1
	mull %ecx
 # 0 "" 2
/NO_APP
	subl	%eax, %esi
	setb	%al
	movl	%esi, 108(%esp)
	addb	$-1, %al
	movl	%ebx, %eax
	sbbl	%edx, %eax
	movl	%eax, 104(%esp)
	lock addl	$2, __ZN8Palmtree4Math4Core8Internal15statistics_infoE+4
	movl	104(%esp), %eax
	testl	%eax, %eax
	jne	L179
	movl	44(%esp), %edx
	cmpl	108(%esp), %edx
	ja	L181
	jb	L179
	movl	52(%esp), %esi
	cmpl	%esi, 48(%esp)
	jnb	L179
L181:
	leal	-1(%ebp), %esi
	movl	40(%esp), %eax
/APP
 # 215 "../pmc_inline_func.h" 1
	mull %esi
 # 0 "" 2
/NO_APP
	movl	%edx, 40(%esp)
	movl	%eax, 44(%esp)
	movl	%esi, %eax
/APP
 # 215 "../pmc_inline_func.h" 1
	mull %ecx
 # 0 "" 2
/NO_APP
	subl	%eax, %edi
	setb	%cl
	movl	%edi, 108(%esp)
	addb	$-1, %cl
	sbbl	%edx, %ebx
	movl	%ebx, 104(%esp)
	lock addl	$2, __ZN8Palmtree4Math4Core8Internal15statistics_infoE+4
	movl	104(%esp), %edi
	testl	%edi, %edi
	jne	L203
	movl	40(%esp), %eax
	cmpl	108(%esp), %eax
	ja	L185
	jb	L203
	movl	44(%esp), %ebx
	cmpl	%ebx, 48(%esp)
	jnb	L203
L185:
	subl	$2, %ebp
L179:
	movl	36(%esp), %eax
	movl	%ebp, 8(%esp)
	movl	160(%esp), %ecx
	movl	148(%esp), %edx
	movl	%eax, 4(%esp)
	movl	156(%esp), %eax
	movl	%eax, (%esp)
	movl	168(%esp), %eax
	call	__ZN8Palmtree4Math4Core8InternalL15SubtructOneLineEPjjS3_jjj
	testl	%eax, %eax
	je	L187
	movl	36(%esp), %eax
	movl	168(%esp), %esi
	subl	$1, %ebp
	movl	64(%esp), %ecx
	sall	$2, %eax
	movl	%eax, 44(%esp)
	addl	%eax, %esi
	testl	%ecx, %ecx
	je	L204
	movl	%ebp, 48(%esp)
	movl	160(%esp), %edi
	xorl	%eax, %eax
	movl	%ecx, 40(%esp)
	.p2align 4,,10
L189:
	movl	%esi, %edx
	movl	%edi, %ebx
	movl	%esi, %ebp
/APP
 # 179 "../autogenerated_inline_func.h" 1
	addb	$-1, %al
	movl	(%edx), %ecx
	adcl	(%ebx), %ecx
	movl	%ecx, (%ebp)
	movl	4(%edx), %ecx
	adcl	4(%ebx), %ecx
	movl	%ecx, 4(%ebp)
	movl	8(%edx), %ecx
	adcl	8(%ebx), %ecx
	movl	%ecx, 8(%ebp)
	movl	12(%edx), %ecx
	adcl	12(%ebx), %ecx
	movl	%ecx, 12(%ebp)
	movl	16(%edx), %ecx
	adcl	16(%ebx), %ecx
	movl	%ecx, 16(%ebp)
	movl	20(%edx), %ecx
	adcl	20(%ebx), %ecx
	movl	%ecx, 20(%ebp)
	movl	24(%edx), %ecx
	adcl	24(%ebx), %ecx
	movl	%ecx, 24(%ebp)
	movl	28(%edx), %ecx
	adcl	28(%ebx), %ecx
	movl	%ecx, 28(%ebp)
	movl	32(%edx), %ecx
	adcl	32(%ebx), %ecx
	movl	%ecx, 32(%ebp)
	movl	36(%edx), %ecx
	adcl	36(%ebx), %ecx
	movl	%ecx, 36(%ebp)
	movl	40(%edx), %ecx
	adcl	40(%ebx), %ecx
	movl	%ecx, 40(%ebp)
	movl	44(%edx), %ecx
	adcl	44(%ebx), %ecx
	movl	%ecx, 44(%ebp)
	movl	48(%edx), %ecx
	adcl	48(%ebx), %ecx
	movl	%ecx, 48(%ebp)
	movl	52(%edx), %ecx
	adcl	52(%ebx), %ecx
	movl	%ecx, 52(%ebp)
	movl	56(%edx), %ecx
	adcl	56(%ebx), %ecx
	movl	%ecx, 56(%ebp)
	movl	60(%edx), %ecx
	adcl	60(%ebx), %ecx
	movl	%ecx, 60(%ebp)
	movl	64(%edx), %ecx
	adcl	64(%ebx), %ecx
	movl	%ecx, 64(%ebp)
	movl	68(%edx), %ecx
	adcl	68(%ebx), %ecx
	movl	%ecx, 68(%ebp)
	movl	72(%edx), %ecx
	adcl	72(%ebx), %ecx
	movl	%ecx, 72(%ebp)
	movl	76(%edx), %ecx
	adcl	76(%ebx), %ecx
	movl	%ecx, 76(%ebp)
	movl	80(%edx), %ecx
	adcl	80(%ebx), %ecx
	movl	%ecx, 80(%ebp)
	movl	84(%edx), %ecx
	adcl	84(%ebx), %ecx
	movl	%ecx, 84(%ebp)
	movl	88(%edx), %ecx
	adcl	88(%ebx), %ecx
	movl	%ecx, 88(%ebp)
	movl	92(%edx), %ecx
	adcl	92(%ebx), %ecx
	movl	%ecx, 92(%ebp)
	movl	96(%edx), %ecx
	adcl	96(%ebx), %ecx
	movl	%ecx, 96(%ebp)
	movl	100(%edx), %ecx
	adcl	100(%ebx), %ecx
	movl	%ecx, 100(%ebp)
	movl	104(%edx), %ecx
	adcl	104(%ebx), %ecx
	movl	%ecx, 104(%ebp)
	movl	108(%edx), %ecx
	adcl	108(%ebx), %ecx
	movl	%ecx, 108(%ebp)
	movl	112(%edx), %ecx
	adcl	112(%ebx), %ecx
	movl	%ecx, 112(%ebp)
	movl	116(%edx), %ecx
	adcl	116(%ebx), %ecx
	movl	%ecx, 116(%ebp)
	movl	120(%edx), %ecx
	adcl	120(%ebx), %ecx
	movl	%ecx, 120(%ebp)
	movl	124(%edx), %ecx
	adcl	124(%ebx), %ecx
	movl	%ecx, 124(%ebp)
	setc	%al
 # 0 "" 2
/NO_APP
	subl	$-128, %esi
	subl	$-128, %edi
	subl	$1, 40(%esp)
	jne	L189
	movl	80(%esp), %edi
	movl	48(%esp), %ebp
	movl	44(%esp), %esi
	addl	84(%esp), %esi
	movl	%edi, 40(%esp)
L188:
	movl	72(%esp), %ebx
	testl	%ebx, %ebx
	jne	L238
L190:
	movl	76(%esp), %ecx
	testl	%ecx, %ecx
	jne	L239
L191:
	testb	$4, 156(%esp)
	je	L192
	movl	%esi, %edx
	movl	40(%esp), %ebx
	movl	%esi, %edi
/APP
 # 1983 "../autogenerated_inline_func.h" 1
	addb	$-1, %al
	movl	(%edx), %ecx
	adcl	(%ebx), %ecx
	movl	%ecx, (%edi)
	movl	4(%edx), %ecx
	adcl	4(%ebx), %ecx
	movl	%ecx, 4(%edi)
	movl	8(%edx), %ecx
	adcl	8(%ebx), %ecx
	movl	%ecx, 8(%edi)
	movl	12(%edx), %ecx
	adcl	12(%ebx), %ecx
	movl	%ecx, 12(%edi)
	setc	%al
 # 0 "" 2
/NO_APP
	addl	$16, 40(%esp)
	addl	$16, %esi
L192:
	testb	$2, 156(%esp)
	je	L193
	movl	%esi, %edx
	movl	40(%esp), %ebx
	movl	%esi, %edi
/APP
 # 2203 "../autogenerated_inline_func.h" 1
	addb	$-1, %al
	movl	(%edx), %ecx
	adcl	(%ebx), %ecx
	movl	%ecx, (%edi)
	movl	4(%edx), %ecx
	adcl	4(%ebx), %ecx
	movl	%ecx, 4(%edi)
	setc	%al
 # 0 "" 2
/NO_APP
	addl	$8, 40(%esp)
	addl	$8, %esi
L193:
	testb	$1, 156(%esp)
	je	L194
	movl	40(%esp), %ecx
	addb	$-1, %al
	movl	(%ecx), %edx
	movl	%edx, %eax
	adcl	(%esi), %eax
	movl	%eax, (%esi)
	setc	%al
	addl	$4, %esi
L194:
	movl	68(%esp), %ecx
	subl	%esi, %ecx
	sarl	$2, %ecx
	je	L187
	testb	%al, %al
	je	L187
	xorl	%ebx, %ebx
	.p2align 4,,10
L195:
	movl	(%esi), %edx
	addb	$-1, %al
	adcl	%ebx, %edx
	movl	%edx, (%esi)
	setc	%al
	addl	$4, %esi
	subl	$1, %ecx
	setne	%dl
	testb	%al, %dl
	jne	L195
	jmp	L187
	.p2align 4,,10
L203:
	movl	%esi, %ebp
	jmp	L179
	.p2align 4,,10
L197:
	movl	88(%esp), %eax
	testl	%eax, %eax
	jne	L240
	addl	$124, %esp
	.cfi_remember_state
	.cfi_def_cfa_offset 20
	popl	%ebx
	.cfi_restore 3
	.cfi_def_cfa_offset 16
	popl	%esi
	.cfi_restore 6
	.cfi_def_cfa_offset 12
	popl	%edi
	.cfi_restore 7
	.cfi_def_cfa_offset 8
	popl	%ebp
	.cfi_restore 5
	.cfi_def_cfa_offset 4
	ret
	.p2align 4,,10
L239:
	.cfi_restore_state
	movl	%esi, %edx
	movl	40(%esp), %ebx
	movl	%esi, %edi
/APP
 # 1659 "../autogenerated_inline_func.h" 1
	addb	$-1, %al
	movl	(%edx), %ecx
	adcl	(%ebx), %ecx
	movl	%ecx, (%edi)
	movl	4(%edx), %ecx
	adcl	4(%ebx), %ecx
	movl	%ecx, 4(%edi)
	movl	8(%edx), %ecx
	adcl	8(%ebx), %ecx
	movl	%ecx, 8(%edi)
	movl	12(%edx), %ecx
	adcl	12(%ebx), %ecx
	movl	%ecx, 12(%edi)
	movl	16(%edx), %ecx
	adcl	16(%ebx), %ecx
	movl	%ecx, 16(%edi)
	movl	20(%edx), %ecx
	adcl	20(%ebx), %ecx
	movl	%ecx, 20(%edi)
	movl	24(%edx), %ecx
	adcl	24(%ebx), %ecx
	movl	%ecx, 24(%edi)
	movl	28(%edx), %ecx
	adcl	28(%ebx), %ecx
	movl	%ecx, 28(%edi)
	setc	%al
 # 0 "" 2
/NO_APP
	addl	$32, %esi
	addl	$32, 40(%esp)
	jmp	L191
	.p2align 4,,10
L238:
	movl	%esi, %edx
	movl	40(%esp), %ebx
	movl	%esi, %edi
/APP
 # 1127 "../autogenerated_inline_func.h" 1
	addb	$-1, %al
	movl	(%edx), %ecx
	adcl	(%ebx), %ecx
	movl	%ecx, (%edi)
	movl	4(%edx), %ecx
	adcl	4(%ebx), %ecx
	movl	%ecx, 4(%edi)
	movl	8(%edx), %ecx
	adcl	8(%ebx), %ecx
	movl	%ecx, 8(%edi)
	movl	12(%edx), %ecx
	adcl	12(%ebx), %ecx
	movl	%ecx, 12(%edi)
	movl	16(%edx), %ecx
	adcl	16(%ebx), %ecx
	movl	%ecx, 16(%edi)
	movl	20(%edx), %ecx
	adcl	20(%ebx), %ecx
	movl	%ecx, 20(%edi)
	movl	24(%edx), %ecx
	adcl	24(%ebx), %ecx
	movl	%ecx, 24(%edi)
	movl	28(%edx), %ecx
	adcl	28(%ebx), %ecx
	movl	%ecx, 28(%edi)
	movl	32(%edx), %ecx
	adcl	32(%ebx), %ecx
	movl	%ecx, 32(%edi)
	movl	36(%edx), %ecx
	adcl	36(%ebx), %ecx
	movl	%ecx, 36(%edi)
	movl	40(%edx), %ecx
	adcl	40(%ebx), %ecx
	movl	%ecx, 40(%edi)
	movl	44(%edx), %ecx
	adcl	44(%ebx), %ecx
	movl	%ecx, 44(%edi)
	movl	48(%edx), %ecx
	adcl	48(%ebx), %ecx
	movl	%ecx, 48(%edi)
	movl	52(%edx), %ecx
	adcl	52(%ebx), %ecx
	movl	%ecx, 52(%edi)
	movl	56(%edx), %ecx
	adcl	56(%ebx), %ecx
	movl	%ecx, 56(%edi)
	movl	60(%edx), %ecx
	adcl	60(%ebx), %ecx
	movl	%ecx, 60(%edi)
	setc	%al
 # 0 "" 2
/NO_APP
	addl	$64, %esi
	addl	$64, 40(%esp)
	jmp	L190
	.p2align 4,,10
L204:
	movl	160(%esp), %eax
	movl	%eax, 40(%esp)
	xorl	%eax, %eax
	jmp	L188
	.p2align 4,,10
L240:
	movl	168(%esp), %eax
	movl	$0, 16(%esp)
	movl	%eax, 12(%esp)
	movl	88(%esp), %eax
	movl	%eax, 8(%esp)
	movl	92(%esp), %eax
	movl	%eax, 4(%esp)
	movl	168(%esp), %eax
	movl	%eax, (%esp)
	call	__ZN8Palmtree4Math4Core8Internal14RightShift_ImpEPjjjS3_i
	addl	$124, %esp
	.cfi_remember_state
	.cfi_def_cfa_offset 20
	popl	%ebx
	.cfi_restore 3
	.cfi_def_cfa_offset 16
	popl	%esi
	.cfi_restore 6
	.cfi_def_cfa_offset 12
	popl	%edi
	.cfi_restore 7
	.cfi_def_cfa_offset 8
	popl	%ebp
	.cfi_restore 5
	.cfi_def_cfa_offset 4
	ret
	.p2align 4,,10
L200:
	.cfi_restore_state
	movl	$32, 88(%esp)
L175:
	movl	%eax, 32(%esp)
	movl	168(%esp), %eax
	movl	88(%esp), %edi
	movl	$0, 16(%esp)
	movl	%eax, 12(%esp)
	movl	148(%esp), %eax
	movl	%edi, 8(%esp)
	movl	%eax, 4(%esp)
	movl	144(%esp), %eax
	movl	%eax, (%esp)
	call	__ZN8Palmtree4Math4Core8Internal13LeftShift_ImpEPjjjS3_i
	movl	160(%esp), %eax
	movl	%edi, 8(%esp)
	movl	$0, 16(%esp)
	movl	%eax, 12(%esp)
	movl	156(%esp), %eax
	movl	%eax, 4(%esp)
	movl	152(%esp), %eax
	movl	%eax, (%esp)
	call	__ZN8Palmtree4Math4Core8Internal13LeftShift_ImpEPjjjS3_i
	movl	32(%esp), %eax
	movl	(%eax), %eax
	movl	%eax, %edx
	jmp	L176
	.p2align 4,,10
L201:
	movl	%ecx, 88(%esp)
	jmp	L175
	.cfi_endproc
LFE6216:
	.p2align 4,,15
	.globl	__ZN8Palmtree4Math4Core8Internal8Rem_X_1WEPjjj
	.def	__ZN8Palmtree4Math4Core8Internal8Rem_X_1WEPjjj;	.scl	2;	.type	32;	.endef
__ZN8Palmtree4Math4Core8Internal8Rem_X_1WEPjjj:
LFB6201:
	.cfi_startproc
	pushl	%ebp
	.cfi_def_cfa_offset 8
	.cfi_offset 5, -8
	pushl	%edi
	.cfi_def_cfa_offset 12
	.cfi_offset 7, -12
	pushl	%esi
	.cfi_def_cfa_offset 16
	.cfi_offset 6, -16
	pushl	%ebx
	.cfi_def_cfa_offset 20
	.cfi_offset 3, -20
	subl	$4, %esp
	.cfi_def_cfa_offset 24
	movl	28(%esp), %ebp
	movl	32(%esp), %ecx
	movl	%ebp, %esi
	leal	-4(,%ebp,4), %edi
	addl	24(%esp), %edi
	shrl	$5, %esi
	movl	%esi, (%esp)
	je	L249
	movl	%edi, %ebx
	xorl	%edx, %edx
	.p2align 4,,10
L243:
	movl	(%ebx), %eax
/APP
 # 305 "../pmc_inline_func.h" 1
	divl %ecx
 # 0 "" 2
/NO_APP
	movl	-4(%ebx), %eax
/APP
 # 305 "../pmc_inline_func.h" 1
	divl %ecx
 # 0 "" 2
/NO_APP
	movl	-8(%ebx), %eax
/APP
 # 305 "../pmc_inline_func.h" 1
	divl %ecx
 # 0 "" 2
/NO_APP
	movl	-12(%ebx), %eax
/APP
 # 305 "../pmc_inline_func.h" 1
	divl %ecx
 # 0 "" 2
/NO_APP
	movl	-16(%ebx), %eax
/APP
 # 305 "../pmc_inline_func.h" 1
	divl %ecx
 # 0 "" 2
/NO_APP
	movl	-20(%ebx), %eax
/APP
 # 305 "../pmc_inline_func.h" 1
	divl %ecx
 # 0 "" 2
/NO_APP
	movl	-24(%ebx), %eax
/APP
 # 305 "../pmc_inline_func.h" 1
	divl %ecx
 # 0 "" 2
/NO_APP
	movl	-28(%ebx), %eax
/APP
 # 305 "../pmc_inline_func.h" 1
	divl %ecx
 # 0 "" 2
/NO_APP
	movl	-32(%ebx), %eax
/APP
 # 305 "../pmc_inline_func.h" 1
	divl %ecx
 # 0 "" 2
/NO_APP
	movl	-36(%ebx), %eax
/APP
 # 305 "../pmc_inline_func.h" 1
	divl %ecx
 # 0 "" 2
/NO_APP
	movl	-40(%ebx), %eax
/APP
 # 305 "../pmc_inline_func.h" 1
	divl %ecx
 # 0 "" 2
/NO_APP
	movl	-44(%ebx), %eax
/APP
 # 305 "../pmc_inline_func.h" 1
	divl %ecx
 # 0 "" 2
/NO_APP
	movl	-48(%ebx), %eax
/APP
 # 305 "../pmc_inline_func.h" 1
	divl %ecx
 # 0 "" 2
/NO_APP
	movl	-52(%ebx), %eax
/APP
 # 305 "../pmc_inline_func.h" 1
	divl %ecx
 # 0 "" 2
/NO_APP
	movl	-56(%ebx), %eax
/APP
 # 305 "../pmc_inline_func.h" 1
	divl %ecx
 # 0 "" 2
/NO_APP
	movl	-60(%ebx), %eax
/APP
 # 305 "../pmc_inline_func.h" 1
	divl %ecx
 # 0 "" 2
/NO_APP
	movl	-64(%ebx), %eax
/APP
 # 305 "../pmc_inline_func.h" 1
	divl %ecx
 # 0 "" 2
/NO_APP
	movl	-68(%ebx), %eax
/APP
 # 305 "../pmc_inline_func.h" 1
	divl %ecx
 # 0 "" 2
/NO_APP
	movl	-72(%ebx), %eax
/APP
 # 305 "../pmc_inline_func.h" 1
	divl %ecx
 # 0 "" 2
/NO_APP
	movl	-76(%ebx), %eax
/APP
 # 305 "../pmc_inline_func.h" 1
	divl %ecx
 # 0 "" 2
/NO_APP
	movl	-80(%ebx), %eax
/APP
 # 305 "../pmc_inline_func.h" 1
	divl %ecx
 # 0 "" 2
/NO_APP
	movl	-84(%ebx), %eax
/APP
 # 305 "../pmc_inline_func.h" 1
	divl %ecx
 # 0 "" 2
/NO_APP
	movl	-88(%ebx), %eax
/APP
 # 305 "../pmc_inline_func.h" 1
	divl %ecx
 # 0 "" 2
/NO_APP
	movl	-92(%ebx), %eax
/APP
 # 305 "../pmc_inline_func.h" 1
	divl %ecx
 # 0 "" 2
/NO_APP
	movl	-96(%ebx), %eax
/APP
 # 305 "../pmc_inline_func.h" 1
	divl %ecx
 # 0 "" 2
/NO_APP
	movl	-100(%ebx), %eax
/APP
 # 305 "../pmc_inline_func.h" 1
	divl %ecx
 # 0 "" 2
/NO_APP
	movl	-104(%ebx), %eax
/APP
 # 305 "../pmc_inline_func.h" 1
	divl %ecx
 # 0 "" 2
/NO_APP
	movl	-108(%ebx), %eax
/APP
 # 305 "../pmc_inline_func.h" 1
	divl %ecx
 # 0 "" 2
/NO_APP
	movl	-112(%ebx), %eax
/APP
 # 305 "../pmc_inline_func.h" 1
	divl %ecx
 # 0 "" 2
/NO_APP
	movl	-116(%ebx), %eax
/APP
 # 305 "../pmc_inline_func.h" 1
	divl %ecx
 # 0 "" 2
/NO_APP
	movl	-120(%ebx), %eax
/APP
 # 305 "../pmc_inline_func.h" 1
	divl %ecx
 # 0 "" 2
/NO_APP
	movl	-124(%ebx), %eax
/APP
 # 305 "../pmc_inline_func.h" 1
	divl %ecx
 # 0 "" 2
/NO_APP
	addl	$-128, %ebx
	subl	$1, %esi
	lock addl	$32, __ZN8Palmtree4Math4Core8Internal15statistics_infoE+12
	testl	%esi, %esi
	jne	L243
	movl	(%esp), %eax
	sall	$7, %eax
	subl	%eax, %edi
L242:
	testl	$16, %ebp
	jne	L267
	testl	$8, %ebp
	jne	L268
L245:
	testl	$4, %ebp
	jne	L269
L246:
	testl	$2, %ebp
	jne	L270
L247:
	andl	$1, %ebp
	jne	L271
L241:
	addl	$4, %esp
	.cfi_remember_state
	.cfi_def_cfa_offset 20
	movl	%edx, %eax
	popl	%ebx
	.cfi_restore 3
	.cfi_def_cfa_offset 16
	popl	%esi
	.cfi_restore 6
	.cfi_def_cfa_offset 12
	popl	%edi
	.cfi_restore 7
	.cfi_def_cfa_offset 8
	popl	%ebp
	.cfi_restore 5
	.cfi_def_cfa_offset 4
	ret
	.p2align 4,,10
L267:
	.cfi_restore_state
	movl	(%edi), %eax
	subl	$64, %edi
/APP
 # 305 "../pmc_inline_func.h" 1
	divl %ecx
 # 0 "" 2
/NO_APP
	movl	60(%edi), %eax
/APP
 # 305 "../pmc_inline_func.h" 1
	divl %ecx
 # 0 "" 2
/NO_APP
	movl	56(%edi), %eax
/APP
 # 305 "../pmc_inline_func.h" 1
	divl %ecx
 # 0 "" 2
/NO_APP
	movl	52(%edi), %eax
/APP
 # 305 "../pmc_inline_func.h" 1
	divl %ecx
 # 0 "" 2
/NO_APP
	movl	48(%edi), %eax
/APP
 # 305 "../pmc_inline_func.h" 1
	divl %ecx
 # 0 "" 2
/NO_APP
	movl	44(%edi), %eax
/APP
 # 305 "../pmc_inline_func.h" 1
	divl %ecx
 # 0 "" 2
/NO_APP
	movl	40(%edi), %eax
/APP
 # 305 "../pmc_inline_func.h" 1
	divl %ecx
 # 0 "" 2
/NO_APP
	movl	36(%edi), %eax
/APP
 # 305 "../pmc_inline_func.h" 1
	divl %ecx
 # 0 "" 2
/NO_APP
	movl	32(%edi), %eax
/APP
 # 305 "../pmc_inline_func.h" 1
	divl %ecx
 # 0 "" 2
/NO_APP
	movl	28(%edi), %eax
/APP
 # 305 "../pmc_inline_func.h" 1
	divl %ecx
 # 0 "" 2
/NO_APP
	movl	24(%edi), %eax
/APP
 # 305 "../pmc_inline_func.h" 1
	divl %ecx
 # 0 "" 2
/NO_APP
	movl	20(%edi), %eax
/APP
 # 305 "../pmc_inline_func.h" 1
	divl %ecx
 # 0 "" 2
/NO_APP
	movl	16(%edi), %eax
/APP
 # 305 "../pmc_inline_func.h" 1
	divl %ecx
 # 0 "" 2
/NO_APP
	movl	12(%edi), %eax
/APP
 # 305 "../pmc_inline_func.h" 1
	divl %ecx
 # 0 "" 2
/NO_APP
	movl	8(%edi), %eax
/APP
 # 305 "../pmc_inline_func.h" 1
	divl %ecx
 # 0 "" 2
/NO_APP
	movl	4(%edi), %eax
/APP
 # 305 "../pmc_inline_func.h" 1
	divl %ecx
 # 0 "" 2
/NO_APP
	lock addl	$16, __ZN8Palmtree4Math4Core8Internal15statistics_infoE+12
	testl	$8, %ebp
	je	L245
L268:
	movl	(%edi), %eax
	subl	$32, %edi
/APP
 # 305 "../pmc_inline_func.h" 1
	divl %ecx
 # 0 "" 2
/NO_APP
	movl	28(%edi), %eax
/APP
 # 305 "../pmc_inline_func.h" 1
	divl %ecx
 # 0 "" 2
/NO_APP
	movl	24(%edi), %eax
/APP
 # 305 "../pmc_inline_func.h" 1
	divl %ecx
 # 0 "" 2
/NO_APP
	movl	20(%edi), %eax
/APP
 # 305 "../pmc_inline_func.h" 1
	divl %ecx
 # 0 "" 2
/NO_APP
	movl	16(%edi), %eax
/APP
 # 305 "../pmc_inline_func.h" 1
	divl %ecx
 # 0 "" 2
/NO_APP
	movl	12(%edi), %eax
/APP
 # 305 "../pmc_inline_func.h" 1
	divl %ecx
 # 0 "" 2
/NO_APP
	movl	8(%edi), %eax
/APP
 # 305 "../pmc_inline_func.h" 1
	divl %ecx
 # 0 "" 2
/NO_APP
	movl	4(%edi), %eax
/APP
 # 305 "../pmc_inline_func.h" 1
	divl %ecx
 # 0 "" 2
/NO_APP
	lock addl	$8, __ZN8Palmtree4Math4Core8Internal15statistics_infoE+12
	testl	$4, %ebp
	je	L246
L269:
	movl	(%edi), %eax
	subl	$16, %edi
/APP
 # 305 "../pmc_inline_func.h" 1
	divl %ecx
 # 0 "" 2
/NO_APP
	movl	12(%edi), %eax
/APP
 # 305 "../pmc_inline_func.h" 1
	divl %ecx
 # 0 "" 2
/NO_APP
	movl	8(%edi), %eax
/APP
 # 305 "../pmc_inline_func.h" 1
	divl %ecx
 # 0 "" 2
/NO_APP
	movl	4(%edi), %eax
/APP
 # 305 "../pmc_inline_func.h" 1
	divl %ecx
 # 0 "" 2
/NO_APP
	lock addl	$4, __ZN8Palmtree4Math4Core8Internal15statistics_infoE+12
	testl	$2, %ebp
	je	L247
L270:
	movl	(%edi), %eax
	subl	$8, %edi
/APP
 # 305 "../pmc_inline_func.h" 1
	divl %ecx
 # 0 "" 2
/NO_APP
	movl	4(%edi), %eax
/APP
 # 305 "../pmc_inline_func.h" 1
	divl %ecx
 # 0 "" 2
/NO_APP
	lock addl	$2, __ZN8Palmtree4Math4Core8Internal15statistics_infoE+12
	andl	$1, %ebp
	je	L241
L271:
	movl	(%edi), %eax
/APP
 # 305 "../pmc_inline_func.h" 1
	divl %ecx
 # 0 "" 2
/NO_APP
	lock addl	$1, __ZN8Palmtree4Math4Core8Internal15statistics_infoE+12
	addl	$4, %esp
	.cfi_remember_state
	.cfi_def_cfa_offset 20
	movl	%edx, %eax
	popl	%ebx
	.cfi_restore 3
	.cfi_def_cfa_offset 16
	popl	%esi
	.cfi_restore 6
	.cfi_def_cfa_offset 12
	popl	%edi
	.cfi_restore 7
	.cfi_def_cfa_offset 8
	popl	%ebp
	.cfi_restore 5
	.cfi_def_cfa_offset 4
	ret
	.p2align 4,,10
L249:
	.cfi_restore_state
	xorl	%edx, %edx
	jmp	L242
	.cfi_endproc
LFE6201:
	.p2align 4,,15
	.globl	__ZN8Palmtree4Math4Core8Internal11DivRem_X_1WEPjjjS3_S3_
	.def	__ZN8Palmtree4Math4Core8Internal11DivRem_X_1WEPjjjS3_S3_;	.scl	2;	.type	32;	.endef
__ZN8Palmtree4Math4Core8Internal11DivRem_X_1WEPjjjS3_S3_:
LFB6202:
	.cfi_startproc
	pushl	%ebp
	.cfi_def_cfa_offset 8
	.cfi_offset 5, -8
	pushl	%edi
	.cfi_def_cfa_offset 12
	.cfi_offset 7, -12
	pushl	%esi
	.cfi_def_cfa_offset 16
	.cfi_offset 6, -16
	pushl	%ebx
	.cfi_def_cfa_offset 20
	.cfi_offset 3, -20
	subl	$8, %esp
	.cfi_def_cfa_offset 28
	movl	32(%esp), %eax
	movl	28(%esp), %ebp
	movl	32(%esp), %edi
	movl	36(%esp), %ecx
	leal	-4(,%eax,4), %eax
	addl	%eax, %ebp
	addl	40(%esp), %eax
	shrl	$5, %edi
	movl	%eax, (%esp)
	movl	%edi, 4(%esp)
	je	L280
	movl	%eax, %esi
	movl	%ebp, %ebx
	xorl	%edx, %edx
	.p2align 4,,10
L274:
	movl	(%ebx), %eax
/APP
 # 305 "../pmc_inline_func.h" 1
	divl %ecx
 # 0 "" 2
/NO_APP
	movl	%eax, (%esi)
	movl	-4(%ebx), %eax
/APP
 # 305 "../pmc_inline_func.h" 1
	divl %ecx
 # 0 "" 2
/NO_APP
	movl	%eax, -4(%esi)
	movl	-8(%ebx), %eax
/APP
 # 305 "../pmc_inline_func.h" 1
	divl %ecx
 # 0 "" 2
/NO_APP
	movl	%eax, -8(%esi)
	movl	-12(%ebx), %eax
/APP
 # 305 "../pmc_inline_func.h" 1
	divl %ecx
 # 0 "" 2
/NO_APP
	movl	%eax, -12(%esi)
	movl	-16(%ebx), %eax
/APP
 # 305 "../pmc_inline_func.h" 1
	divl %ecx
 # 0 "" 2
/NO_APP
	movl	%eax, -16(%esi)
	movl	-20(%ebx), %eax
/APP
 # 305 "../pmc_inline_func.h" 1
	divl %ecx
 # 0 "" 2
/NO_APP
	movl	%eax, -20(%esi)
	movl	-24(%ebx), %eax
/APP
 # 305 "../pmc_inline_func.h" 1
	divl %ecx
 # 0 "" 2
/NO_APP
	movl	%eax, -24(%esi)
	movl	-28(%ebx), %eax
/APP
 # 305 "../pmc_inline_func.h" 1
	divl %ecx
 # 0 "" 2
/NO_APP
	movl	%eax, -28(%esi)
	movl	-32(%ebx), %eax
/APP
 # 305 "../pmc_inline_func.h" 1
	divl %ecx
 # 0 "" 2
/NO_APP
	movl	%eax, -32(%esi)
	movl	-36(%ebx), %eax
/APP
 # 305 "../pmc_inline_func.h" 1
	divl %ecx
 # 0 "" 2
/NO_APP
	movl	%eax, -36(%esi)
	movl	-40(%ebx), %eax
/APP
 # 305 "../pmc_inline_func.h" 1
	divl %ecx
 # 0 "" 2
/NO_APP
	movl	%eax, -40(%esi)
	movl	-44(%ebx), %eax
/APP
 # 305 "../pmc_inline_func.h" 1
	divl %ecx
 # 0 "" 2
/NO_APP
	movl	%eax, -44(%esi)
	movl	-48(%ebx), %eax
/APP
 # 305 "../pmc_inline_func.h" 1
	divl %ecx
 # 0 "" 2
/NO_APP
	movl	%eax, -48(%esi)
	movl	-52(%ebx), %eax
/APP
 # 305 "../pmc_inline_func.h" 1
	divl %ecx
 # 0 "" 2
/NO_APP
	movl	%eax, -52(%esi)
	movl	-56(%ebx), %eax
/APP
 # 305 "../pmc_inline_func.h" 1
	divl %ecx
 # 0 "" 2
/NO_APP
	movl	%eax, -56(%esi)
	movl	-60(%ebx), %eax
/APP
 # 305 "../pmc_inline_func.h" 1
	divl %ecx
 # 0 "" 2
/NO_APP
	movl	%eax, -60(%esi)
	movl	-64(%ebx), %eax
/APP
 # 305 "../pmc_inline_func.h" 1
	divl %ecx
 # 0 "" 2
/NO_APP
	movl	%eax, -64(%esi)
	movl	-68(%ebx), %eax
/APP
 # 305 "../pmc_inline_func.h" 1
	divl %ecx
 # 0 "" 2
/NO_APP
	movl	%eax, -68(%esi)
	movl	-72(%ebx), %eax
/APP
 # 305 "../pmc_inline_func.h" 1
	divl %ecx
 # 0 "" 2
/NO_APP
	movl	%eax, -72(%esi)
	movl	-76(%ebx), %eax
/APP
 # 305 "../pmc_inline_func.h" 1
	divl %ecx
 # 0 "" 2
/NO_APP
	movl	%eax, -76(%esi)
	movl	-80(%ebx), %eax
/APP
 # 305 "../pmc_inline_func.h" 1
	divl %ecx
 # 0 "" 2
/NO_APP
	movl	%eax, -80(%esi)
	movl	-84(%ebx), %eax
/APP
 # 305 "../pmc_inline_func.h" 1
	divl %ecx
 # 0 "" 2
/NO_APP
	movl	%eax, -84(%esi)
	movl	-88(%ebx), %eax
/APP
 # 305 "../pmc_inline_func.h" 1
	divl %ecx
 # 0 "" 2
/NO_APP
	movl	%eax, -88(%esi)
	movl	-92(%ebx), %eax
/APP
 # 305 "../pmc_inline_func.h" 1
	divl %ecx
 # 0 "" 2
/NO_APP
	movl	%eax, -92(%esi)
	movl	-96(%ebx), %eax
/APP
 # 305 "../pmc_inline_func.h" 1
	divl %ecx
 # 0 "" 2
/NO_APP
	movl	%eax, -96(%esi)
	movl	-100(%ebx), %eax
/APP
 # 305 "../pmc_inline_func.h" 1
	divl %ecx
 # 0 "" 2
/NO_APP
	movl	%eax, -100(%esi)
	movl	-104(%ebx), %eax
/APP
 # 305 "../pmc_inline_func.h" 1
	divl %ecx
 # 0 "" 2
/NO_APP
	movl	%eax, -104(%esi)
	movl	-108(%ebx), %eax
/APP
 # 305 "../pmc_inline_func.h" 1
	divl %ecx
 # 0 "" 2
/NO_APP
	movl	%eax, -108(%esi)
	movl	-112(%ebx), %eax
/APP
 # 305 "../pmc_inline_func.h" 1
	divl %ecx
 # 0 "" 2
/NO_APP
	movl	%eax, -112(%esi)
	movl	-116(%ebx), %eax
/APP
 # 305 "../pmc_inline_func.h" 1
	divl %ecx
 # 0 "" 2
/NO_APP
	movl	%eax, -116(%esi)
	movl	-120(%ebx), %eax
/APP
 # 305 "../pmc_inline_func.h" 1
	divl %ecx
 # 0 "" 2
/NO_APP
	movl	%eax, -120(%esi)
	movl	-124(%ebx), %eax
/APP
 # 305 "../pmc_inline_func.h" 1
	divl %ecx
 # 0 "" 2
/NO_APP
	addl	$-128, %ebx
	movl	%eax, -124(%esi)
	subl	$1, %edi
	addl	$-128, %esi
	lock addl	$32, __ZN8Palmtree4Math4Core8Internal15statistics_infoE+12
	testl	%edi, %edi
	jne	L274
	movl	4(%esp), %eax
	sall	$7, %eax
	negl	%eax
	addl	%eax, (%esp)
	addl	%eax, %ebp
L273:
	testb	$16, 32(%esp)
	jne	L298
	testb	$8, 32(%esp)
	jne	L299
L276:
	testb	$4, 32(%esp)
	jne	L300
L277:
	testb	$2, 32(%esp)
	jne	L301
L278:
	testb	$1, 32(%esp)
	jne	L302
L279:
	movl	44(%esp), %eax
	movl	%edx, (%eax)
	addl	$8, %esp
	.cfi_remember_state
	.cfi_def_cfa_offset 20
	popl	%ebx
	.cfi_restore 3
	.cfi_def_cfa_offset 16
	popl	%esi
	.cfi_restore 6
	.cfi_def_cfa_offset 12
	popl	%edi
	.cfi_restore 7
	.cfi_def_cfa_offset 8
	popl	%ebp
	.cfi_restore 5
	.cfi_def_cfa_offset 4
	ret
	.p2align 4,,10
L298:
	.cfi_restore_state
	movl	(%esp), %edi
	movl	0(%ebp), %eax
	subl	$64, %ebp
/APP
 # 305 "../pmc_inline_func.h" 1
	divl %ecx
 # 0 "" 2
/NO_APP
	subl	$64, %edi
	movl	%eax, 64(%edi)
	movl	60(%ebp), %eax
/APP
 # 305 "../pmc_inline_func.h" 1
	divl %ecx
 # 0 "" 2
/NO_APP
	movl	%eax, 60(%edi)
	movl	56(%ebp), %eax
/APP
 # 305 "../pmc_inline_func.h" 1
	divl %ecx
 # 0 "" 2
/NO_APP
	movl	%eax, 56(%edi)
	movl	52(%ebp), %eax
/APP
 # 305 "../pmc_inline_func.h" 1
	divl %ecx
 # 0 "" 2
/NO_APP
	movl	%eax, 52(%edi)
	movl	48(%ebp), %eax
/APP
 # 305 "../pmc_inline_func.h" 1
	divl %ecx
 # 0 "" 2
/NO_APP
	movl	%eax, 48(%edi)
	movl	44(%ebp), %eax
/APP
 # 305 "../pmc_inline_func.h" 1
	divl %ecx
 # 0 "" 2
/NO_APP
	movl	%eax, 44(%edi)
	movl	40(%ebp), %eax
/APP
 # 305 "../pmc_inline_func.h" 1
	divl %ecx
 # 0 "" 2
/NO_APP
	movl	%eax, 40(%edi)
	movl	36(%ebp), %eax
/APP
 # 305 "../pmc_inline_func.h" 1
	divl %ecx
 # 0 "" 2
/NO_APP
	movl	%eax, 36(%edi)
	movl	32(%ebp), %eax
/APP
 # 305 "../pmc_inline_func.h" 1
	divl %ecx
 # 0 "" 2
/NO_APP
	movl	%eax, 32(%edi)
	movl	28(%ebp), %eax
/APP
 # 305 "../pmc_inline_func.h" 1
	divl %ecx
 # 0 "" 2
/NO_APP
	movl	%eax, 28(%edi)
	movl	24(%ebp), %eax
/APP
 # 305 "../pmc_inline_func.h" 1
	divl %ecx
 # 0 "" 2
/NO_APP
	movl	%eax, 24(%edi)
	movl	20(%ebp), %eax
/APP
 # 305 "../pmc_inline_func.h" 1
	divl %ecx
 # 0 "" 2
/NO_APP
	movl	%eax, 20(%edi)
	movl	16(%ebp), %eax
/APP
 # 305 "../pmc_inline_func.h" 1
	divl %ecx
 # 0 "" 2
/NO_APP
	movl	%eax, 16(%edi)
	movl	12(%ebp), %eax
/APP
 # 305 "../pmc_inline_func.h" 1
	divl %ecx
 # 0 "" 2
/NO_APP
	movl	%eax, 12(%edi)
	movl	8(%ebp), %eax
/APP
 # 305 "../pmc_inline_func.h" 1
	divl %ecx
 # 0 "" 2
/NO_APP
	movl	%eax, 8(%edi)
	movl	4(%ebp), %eax
/APP
 # 305 "../pmc_inline_func.h" 1
	divl %ecx
 # 0 "" 2
/NO_APP
	movl	%eax, 4(%edi)
	movl	%edi, (%esp)
	lock addl	$16, __ZN8Palmtree4Math4Core8Internal15statistics_infoE+12
	testb	$8, 32(%esp)
	je	L276
L299:
	movl	(%esp), %edi
	movl	0(%ebp), %eax
	subl	$32, %ebp
/APP
 # 305 "../pmc_inline_func.h" 1
	divl %ecx
 # 0 "" 2
/NO_APP
	subl	$32, %edi
	movl	%eax, 32(%edi)
	movl	28(%ebp), %eax
/APP
 # 305 "../pmc_inline_func.h" 1
	divl %ecx
 # 0 "" 2
/NO_APP
	movl	%eax, 28(%edi)
	movl	24(%ebp), %eax
/APP
 # 305 "../pmc_inline_func.h" 1
	divl %ecx
 # 0 "" 2
/NO_APP
	movl	%eax, 24(%edi)
	movl	20(%ebp), %eax
/APP
 # 305 "../pmc_inline_func.h" 1
	divl %ecx
 # 0 "" 2
/NO_APP
	movl	%eax, 20(%edi)
	movl	16(%ebp), %eax
/APP
 # 305 "../pmc_inline_func.h" 1
	divl %ecx
 # 0 "" 2
/NO_APP
	movl	%eax, 16(%edi)
	movl	12(%ebp), %eax
/APP
 # 305 "../pmc_inline_func.h" 1
	divl %ecx
 # 0 "" 2
/NO_APP
	movl	%eax, 12(%edi)
	movl	8(%ebp), %eax
/APP
 # 305 "../pmc_inline_func.h" 1
	divl %ecx
 # 0 "" 2
/NO_APP
	movl	%eax, 8(%edi)
	movl	4(%ebp), %eax
/APP
 # 305 "../pmc_inline_func.h" 1
	divl %ecx
 # 0 "" 2
/NO_APP
	movl	%eax, 4(%edi)
	movl	%edi, (%esp)
	lock addl	$8, __ZN8Palmtree4Math4Core8Internal15statistics_infoE+12
	testb	$4, 32(%esp)
	je	L277
L300:
	movl	(%esp), %edi
	movl	0(%ebp), %eax
	subl	$16, %ebp
/APP
 # 305 "../pmc_inline_func.h" 1
	divl %ecx
 # 0 "" 2
/NO_APP
	subl	$16, %edi
	movl	%eax, 16(%edi)
	movl	12(%ebp), %eax
/APP
 # 305 "../pmc_inline_func.h" 1
	divl %ecx
 # 0 "" 2
/NO_APP
	movl	%eax, 12(%edi)
	movl	8(%ebp), %eax
/APP
 # 305 "../pmc_inline_func.h" 1
	divl %ecx
 # 0 "" 2
/NO_APP
	movl	%eax, 8(%edi)
	movl	4(%ebp), %eax
/APP
 # 305 "../pmc_inline_func.h" 1
	divl %ecx
 # 0 "" 2
/NO_APP
	movl	%eax, 4(%edi)
	movl	%edi, (%esp)
	lock addl	$4, __ZN8Palmtree4Math4Core8Internal15statistics_infoE+12
	testb	$2, 32(%esp)
	je	L278
L301:
	movl	(%esp), %edi
	movl	0(%ebp), %eax
	subl	$8, %ebp
/APP
 # 305 "../pmc_inline_func.h" 1
	divl %ecx
 # 0 "" 2
/NO_APP
	subl	$8, %edi
	movl	%eax, 8(%edi)
	movl	4(%ebp), %eax
/APP
 # 305 "../pmc_inline_func.h" 1
	divl %ecx
 # 0 "" 2
/NO_APP
	movl	%eax, 4(%edi)
	movl	%edi, (%esp)
	lock addl	$2, __ZN8Palmtree4Math4Core8Internal15statistics_infoE+12
	testb	$1, 32(%esp)
	je	L279
L302:
	movl	(%esp), %edi
	movl	0(%ebp), %eax
/APP
 # 305 "../pmc_inline_func.h" 1
	divl %ecx
 # 0 "" 2
/NO_APP
	movl	%eax, (%edi)
	lock addl	$1, __ZN8Palmtree4Math4Core8Internal15statistics_infoE+12
	movl	44(%esp), %eax
	movl	%edx, (%eax)
	addl	$8, %esp
	.cfi_remember_state
	.cfi_def_cfa_offset 20
	popl	%ebx
	.cfi_restore 3
	.cfi_def_cfa_offset 16
	popl	%esi
	.cfi_restore 6
	.cfi_def_cfa_offset 12
	popl	%edi
	.cfi_restore 7
	.cfi_def_cfa_offset 8
	popl	%ebp
	.cfi_restore 5
	.cfi_def_cfa_offset 4
	ret
	.p2align 4,,10
L280:
	.cfi_restore_state
	xorl	%edx, %edx
	jmp	L273
	.cfi_endproc
LFE6202:
	.p2align 4,,15
	.globl	__ZN8Palmtree4Math4Core8Internal10DivRem_X_XEPjjS3_jS3_S3_S3_
	.def	__ZN8Palmtree4Math4Core8Internal10DivRem_X_XEPjjS3_jS3_S3_S3_;	.scl	2;	.type	32;	.endef
__ZN8Palmtree4Math4Core8Internal10DivRem_X_XEPjjS3_jS3_S3_S3_:
LFB6200:
	.cfi_startproc
	pushl	%edi
	.cfi_def_cfa_offset 8
	.cfi_offset 7, -8
	pushl	%esi
	.cfi_def_cfa_offset 12
	.cfi_offset 6, -12
	subl	$52, %esp
	.cfi_def_cfa_offset 64
	movl	76(%esp), %eax
	movl	68(%esp), %ecx
	movl	84(%esp), %esi
	cmpl	$1, %eax
	je	L318
	cmpl	%eax, %ecx
	jnb	L309
	testl	%esi, %esi
	je	L310
	movl	$0, (%esi)
L310:
	movl	88(%esp), %edi
	movl	64(%esp), %esi
/APP
 # 1773 "C:/GNU/MINGW64/i686-8.1.0-win32-dwarf-rt_v6-rev0/mingw32/i686-w64-mingw32/include/psdk_inc/intrin-impl.h" 1
	rep movsd
 # 0 "" 2
/NO_APP
	addl	$52, %esp
	.cfi_remember_state
	.cfi_def_cfa_offset 12
	popl	%esi
	.cfi_restore 6
	.cfi_def_cfa_offset 8
	popl	%edi
	.cfi_restore 7
	.cfi_def_cfa_offset 4
	ret
	.p2align 4,,10
L309:
	.cfi_restore_state
	movl	88(%esp), %edx
	movl	%eax, 12(%esp)
	movl	72(%esp), %eax
	movl	%esi, 20(%esp)
	movl	%edx, 24(%esp)
	movl	80(%esp), %edx
	movl	%eax, 8(%esp)
	movl	64(%esp), %eax
	movl	%edx, 16(%esp)
	movl	%ecx, 4(%esp)
	movl	%eax, (%esp)
	call	*__ZN8Palmtree4Math4Core8InternalL13fp_DivRem_X_XE
L303:
	addl	$52, %esp
	.cfi_remember_state
	.cfi_def_cfa_offset 12
	popl	%esi
	.cfi_restore 6
	.cfi_def_cfa_offset 8
	popl	%edi
	.cfi_restore 7
	.cfi_def_cfa_offset 4
	ret
	.p2align 4,,10
L318:
	.cfi_restore_state
	movl	72(%esp), %eax
	movl	(%eax), %edi
	cmpl	$1, %ecx
	je	L319
	testl	%esi, %esi
	je	L308
	leal	44(%esp), %eax
	movl	%esi, 12(%esp)
	movl	%eax, 16(%esp)
	movl	64(%esp), %eax
	movl	%edi, 8(%esp)
	movl	%eax, (%esp)
	movl	%ecx, 4(%esp)
	call	__ZN8Palmtree4Math4Core8Internal11DivRem_X_1WEPjjjS3_S3_
	movl	88(%esp), %edi
	movl	44(%esp), %eax
	movl	%eax, (%edi)
	addl	$52, %esp
	.cfi_remember_state
	.cfi_def_cfa_offset 12
	popl	%esi
	.cfi_restore 6
	.cfi_def_cfa_offset 8
	popl	%edi
	.cfi_restore 7
	.cfi_def_cfa_offset 4
	ret
	.p2align 4,,10
L308:
	.cfi_restore_state
	movl	64(%esp), %eax
	movl	%edi, 8(%esp)
	movl	%ecx, 4(%esp)
	movl	%eax, (%esp)
	call	__ZN8Palmtree4Math4Core8Internal8Rem_X_1WEPjjj
	movl	88(%esp), %edi
	movl	%eax, (%edi)
	jmp	L303
	.p2align 4,,10
L319:
	movl	64(%esp), %eax
	xorl	%edx, %edx
	movl	(%eax), %eax
/APP
 # 274 "../pmc_inline_func.h" 1
	divl %edi
 # 0 "" 2
/NO_APP
	testl	%esi, %esi
	je	L306
	movl	%eax, (%esi)
L306:
	movl	88(%esp), %eax
	movl	%edx, (%eax)
	lock addl	$1, __ZN8Palmtree4Math4Core8Internal15statistics_infoE+12
	addl	$52, %esp
	.cfi_def_cfa_offset 12
	popl	%esi
	.cfi_restore 6
	.cfi_def_cfa_offset 8
	popl	%edi
	.cfi_restore 7
	.cfi_def_cfa_offset 4
	ret
	.cfi_endproc
LFE6200:
	.section .rdata,"dr"
	.align 4
LC0:
	.ascii "\25_pek0n\0u\0l\0l\0p\0t\0r\0L0\16NH0\211"
	.ascii "0\214"
	.ascii "0f0D0~0Y0\2"
	.ascii "0\0\0"
	.align 2
LC1:
	.ascii "v\0\0\0"
	.align 4
LC2:
	.ascii "0\0k0\210"
	.ascii "0\213"
	.ascii "0d\226\227{L0L\210\217"
	.ascii "0\214"
	.ascii "0\210"
	.ascii "0F0h0W0~0W0_0\2"
	.ascii "0\0\0"
	.text
	.p2align 4,,15
	.globl	__ZN8Palmtree4Math4Core8Internal14PMC_DivRem_I_XEjPNS2_21__tag_PMC_HANDLE_UINTEPj@12
	.def	__ZN8Palmtree4Math4Core8Internal14PMC_DivRem_I_XEjPNS2_21__tag_PMC_HANDLE_UINTEPj@12;	.scl	2;	.type	32;	.endef
__ZN8Palmtree4Math4Core8Internal14PMC_DivRem_I_XEjPNS2_21__tag_PMC_HANDLE_UINTEPj@12:
LFB6218:
	.cfi_startproc
	pushl	%edi
	.cfi_def_cfa_offset 8
	.cfi_offset 7, -8
	pushl	%esi
	.cfi_def_cfa_offset 12
	.cfi_offset 6, -12
	pushl	%ebx
	.cfi_def_cfa_offset 16
	.cfi_offset 3, -16
	subl	$16, %esp
	.cfi_def_cfa_offset 32
	movl	36(%esp), %ebx
	movl	32(%esp), %esi
	movl	40(%esp), %edi
	testl	%ebx, %ebx
	je	L340
	movl	%ebx, (%esp)
	call	__ZN8Palmtree4Math4Core8Internal11CheckNumberEPNS2_19__tag_NUMBER_HEADERE
	movzbl	4(%ebx), %eax
	testb	$1, %al
	jne	L341
	testl	%esi, %esi
	je	L342
	testb	$2, %al
	jne	L343
/APP
 # 428 "../pmc_inline_func.h" 1
	bsrl %esi, %eax
 # 0 "" 2
/NO_APP
	addl	$1, %eax
	cmpl	20(%ebx), %eax
	jnb	L326
	movl	%esi, %eax
	testl	%edi, %edi
	je	L320
L338:
	movl	$0, (%edi)
L320:
	addl	$16, %esp
	.cfi_remember_state
	.cfi_def_cfa_offset 16
	popl	%ebx
	.cfi_restore 3
	.cfi_def_cfa_offset 12
	popl	%esi
	.cfi_restore 6
	.cfi_def_cfa_offset 8
	popl	%edi
	.cfi_restore 7
	.cfi_def_cfa_offset 4
	ret	$12
	.p2align 4,,10
L343:
	.cfi_restore_state
	xorl	%eax, %eax
	testl	%edi, %edi
	je	L320
	movl	%esi, (%edi)
	addl	$16, %esp
	.cfi_remember_state
	.cfi_def_cfa_offset 16
	popl	%ebx
	.cfi_restore 3
	.cfi_def_cfa_offset 12
	popl	%esi
	.cfi_restore 6
	.cfi_def_cfa_offset 8
	popl	%edi
	.cfi_restore 7
	.cfi_def_cfa_offset 4
	ret	$12
	.p2align 4,,10
L342:
	.cfi_restore_state
	xorl	%eax, %eax
	testl	%edi, %edi
	jne	L338
	addl	$16, %esp
	.cfi_remember_state
	.cfi_def_cfa_offset 16
	popl	%ebx
	.cfi_restore 3
	.cfi_def_cfa_offset 12
	popl	%esi
	.cfi_restore 6
	.cfi_def_cfa_offset 8
	popl	%edi
	.cfi_restore 7
	.cfi_def_cfa_offset 4
	ret	$12
	.p2align 4,,10
L326:
	.cfi_restore_state
	movl	%esi, %eax
	movl	36(%ebx), %ecx
	xorl	%edx, %edx
/APP
 # 274 "../pmc_inline_func.h" 1
	divl (%ecx)
 # 0 "" 2
/NO_APP
	movl	%eax, %esi
	movl	%edx, %eax
	testl	%edi, %edi
	je	L327
	movl	%esi, (%edi)
L327:
	lock addl	$1, __ZN8Palmtree4Math4Core8Internal15statistics_infoE+12
	addl	$16, %esp
	.cfi_remember_state
	.cfi_def_cfa_offset 16
	popl	%ebx
	.cfi_restore 3
	.cfi_def_cfa_offset 12
	popl	%esi
	.cfi_restore 6
	.cfi_def_cfa_offset 8
	popl	%edi
	.cfi_restore 7
	.cfi_def_cfa_offset 4
	ret	$12
L340:
	.cfi_restore_state
	movl	$16, (%esp)
	call	___cxa_allocate_exception
	movl	$-2, 4(%eax)
	movl	$LC0, 8(%eax)
	movl	$LC1, 12(%eax)
	movl	$__ZTVN8Palmtree4Math4Core8Internal21ArgumentNullExceptionE+8, (%eax)
	movl	$__ZN8Palmtree4Math4Core8Internal21ArgumentNullExceptionD1Ev, 8(%esp)
	movl	$__ZTIN8Palmtree4Math4Core8Internal21ArgumentNullExceptionE, 4(%esp)
	movl	%eax, (%esp)
	call	___cxa_throw
L341:
	movl	$16, (%esp)
	call	___cxa_allocate_exception
	movl	$-5, 4(%eax)
	movl	$LC2, 8(%eax)
	movl	$0, 12(%eax)
	movl	$__ZTVN8Palmtree4Math4Core8Internal23DivisionByZeroExceptionE+8, (%eax)
	movl	$__ZN8Palmtree4Math4Core8Internal23DivisionByZeroExceptionD1Ev, 8(%esp)
	movl	$__ZTIN8Palmtree4Math4Core8Internal23DivisionByZeroExceptionE, 4(%esp)
	movl	%eax, (%esp)
	call	___cxa_throw
	.cfi_endproc
LFE6218:
	.p2align 4,,15
	.globl	__ZN8Palmtree4Math4Core8Internal14PMC_DivRem_L_XEyPNS2_21__tag_PMC_HANDLE_UINTEPy@16
	.def	__ZN8Palmtree4Math4Core8Internal14PMC_DivRem_L_XEyPNS2_21__tag_PMC_HANDLE_UINTEPy@16;	.scl	2;	.type	32;	.endef
__ZN8Palmtree4Math4Core8Internal14PMC_DivRem_L_XEyPNS2_21__tag_PMC_HANDLE_UINTEPy@16:
LFB6221:
	.cfi_startproc
	pushl	%ebp
	.cfi_def_cfa_offset 8
	.cfi_offset 5, -8
	pushl	%edi
	.cfi_def_cfa_offset 12
	.cfi_offset 7, -12
	pushl	%esi
	.cfi_def_cfa_offset 16
	.cfi_offset 6, -16
	pushl	%ebx
	.cfi_def_cfa_offset 20
	.cfi_offset 3, -20
	subl	$92, %esp
	.cfi_def_cfa_offset 112
	movl	120(%esp), %ebx
	movl	112(%esp), %esi
	movl	116(%esp), %ebp
	movl	124(%esp), %edi
	testl	%ebx, %ebx
	je	L375
	movl	%ebx, (%esp)
	call	__ZN8Palmtree4Math4Core8Internal11CheckNumberEPNS2_19__tag_NUMBER_HEADERE
	movzbl	4(%ebx), %eax
	testb	$1, %al
	jne	L376
	movl	%ebp, %ecx
	orl	%esi, %ecx
	je	L374
	testb	$2, %al
	jne	L377
	movl	20(%ebx), %eax
	testl	%ebp, %ebp
	jne	L350
	xorl	%edx, %edx
	testl	%esi, %esi
	je	L351
/APP
 # 428 "../pmc_inline_func.h" 1
	bsrl %esi, %edx
 # 0 "" 2
/NO_APP
	addl	$1, %edx
L351:
	cmpl	%eax, %edx
	jnb	L352
	testl	%edi, %edi
	je	L353
	movl	$0, (%edi)
	movl	$0, 4(%edi)
L353:
	movl	%esi, %eax
	xorl	%edx, %edx
L344:
	addl	$92, %esp
	.cfi_remember_state
	.cfi_def_cfa_offset 20
	popl	%ebx
	.cfi_restore 3
	.cfi_def_cfa_offset 16
	popl	%esi
	.cfi_restore 6
	.cfi_def_cfa_offset 12
	popl	%edi
	.cfi_restore 7
	.cfi_def_cfa_offset 8
	popl	%ebp
	.cfi_restore 5
	.cfi_def_cfa_offset 4
	ret	$16
	.p2align 4,,10
L377:
	.cfi_restore_state
	xorl	%eax, %eax
	xorl	%edx, %edx
	testl	%edi, %edi
	je	L344
	movl	%esi, (%edi)
	movl	%ebp, 4(%edi)
	addl	$92, %esp
	.cfi_remember_state
	.cfi_def_cfa_offset 20
	popl	%ebx
	.cfi_restore 3
	.cfi_def_cfa_offset 16
	popl	%esi
	.cfi_restore 6
	.cfi_def_cfa_offset 12
	popl	%edi
	.cfi_restore 7
	.cfi_def_cfa_offset 8
	popl	%ebp
	.cfi_restore 5
	.cfi_def_cfa_offset 4
	ret	$16
	.p2align 4,,10
L350:
	.cfi_restore_state
/APP
 # 428 "../pmc_inline_func.h" 1
	bsrl %ebp, %edx
 # 0 "" 2
/NO_APP
	addl	$33, %edx
	cmpl	%eax, %edx
	jnb	L355
	.p2align 4,,10
L374:
	testl	%edi, %edi
	je	L362
	movl	$0, (%edi)
	movl	%esi, %eax
	movl	%ebp, %edx
	movl	$0, 4(%edi)
	addl	$92, %esp
	.cfi_remember_state
	.cfi_def_cfa_offset 20
	popl	%ebx
	.cfi_restore 3
	.cfi_def_cfa_offset 16
	popl	%esi
	.cfi_restore 6
	.cfi_def_cfa_offset 12
	popl	%edi
	.cfi_restore 7
	.cfi_def_cfa_offset 8
	popl	%ebp
	.cfi_restore 5
	.cfi_def_cfa_offset 4
	ret	$16
	.p2align 4,,10
L355:
	.cfi_restore_state
	movl	36(%ebx), %edx
	cmpl	$32, %eax
	ja	L356
	testl	%edi, %edi
	je	L357
	leal	48(%esp), %eax
	movl	%esi, 56(%esp)
	movl	%eax, 16(%esp)
	leal	68(%esp), %eax
	movl	%ebp, 60(%esp)
	movl	$0, 68(%esp)
	movl	$0, 72(%esp)
	movl	$0, 76(%esp)
	movl	%eax, 12(%esp)
	movl	(%edx), %eax
	movl	$2, 4(%esp)
	movl	%eax, 8(%esp)
	leal	56(%esp), %eax
	movl	%eax, (%esp)
	call	__ZN8Palmtree4Math4Core8Internal11DivRem_X_1WEPjjjS3_S3_
	movl	68(%esp), %eax
	movl	72(%esp), %edx
	movl	%eax, (%edi)
	movl	48(%esp), %eax
	movl	%edx, 4(%edi)
	xorl	%edx, %edx
	jmp	L344
	.p2align 4,,10
L352:
	movl	36(%ebx), %ecx
	xorl	%edx, %edx
	movl	%esi, %eax
/APP
 # 274 "../pmc_inline_func.h" 1
	divl (%ecx)
 # 0 "" 2
/NO_APP
	lock addl	$1, __ZN8Palmtree4Math4Core8Internal15statistics_infoE+12
	testl	%edi, %edi
	je	L354
	movl	%eax, (%edi)
	movl	$0, 4(%edi)
L354:
	movl	%edx, %eax
	xorl	%edx, %edx
	jmp	L344
	.p2align 4,,10
L362:
	addl	$92, %esp
	.cfi_remember_state
	.cfi_def_cfa_offset 20
	movl	%esi, %eax
	movl	%ebp, %edx
	popl	%ebx
	.cfi_restore 3
	.cfi_def_cfa_offset 16
	popl	%esi
	.cfi_restore 6
	.cfi_def_cfa_offset 12
	popl	%edi
	.cfi_restore 7
	.cfi_def_cfa_offset 8
	popl	%ebp
	.cfi_restore 5
	.cfi_def_cfa_offset 4
	ret	$16
	.p2align 4,,10
L356:
	.cfi_restore_state
	movl	__ZN8Palmtree4Math4Core8InternalL13fp_DivRem_X_XE, %eax
	movl	16(%ebx), %ecx
	testl	%edi, %edi
	je	L358
	leal	68(%esp), %ebx
	movl	%edx, 8(%esp)
	leal	40(%esp), %edx
	movl	%ebx, 24(%esp)
	leal	56(%esp), %ebx
	movl	%ebx, 20(%esp)
	leal	48(%esp), %ebx
	movl	%edx, (%esp)
	movl	%esi, 40(%esp)
	movl	%ebp, 44(%esp)
	movl	$0, 56(%esp)
	movl	$0, 60(%esp)
	movl	$0, 64(%esp)
	movl	$0, 68(%esp)
	movl	$0, 72(%esp)
	movl	$0, 76(%esp)
	movl	$0, 48(%esp)
	movl	$0, 52(%esp)
	movl	%ebx, 16(%esp)
	movl	%ecx, 12(%esp)
	movl	$2, 4(%esp)
	call	*%eax
	movl	56(%esp), %eax
	movl	60(%esp), %edx
	movl	%eax, (%edi)
	movl	68(%esp), %eax
	movl	%edx, 4(%edi)
	movl	72(%esp), %edx
	jmp	L344
	.p2align 4,,10
L357:
	movl	%esi, 68(%esp)
	movl	%ebp, 72(%esp)
	movl	(%edx), %eax
	movl	$2, 4(%esp)
	movl	%eax, 8(%esp)
	leal	68(%esp), %eax
	movl	%eax, (%esp)
	call	__ZN8Palmtree4Math4Core8Internal8Rem_X_1WEPjjj
	xorl	%edx, %edx
	jmp	L344
	.p2align 4,,10
L358:
	leal	68(%esp), %ebx
	movl	%edx, 8(%esp)
	leal	48(%esp), %edx
	movl	%ebx, 24(%esp)
	leal	56(%esp), %ebx
	movl	%edx, (%esp)
	movl	%esi, 48(%esp)
	movl	%ebp, 52(%esp)
	movl	$0, 68(%esp)
	movl	$0, 72(%esp)
	movl	$0, 76(%esp)
	movl	$0, 56(%esp)
	movl	$0, 60(%esp)
	movl	$0, 20(%esp)
	movl	%ebx, 16(%esp)
	movl	%ecx, 12(%esp)
	movl	$2, 4(%esp)
	call	*%eax
	movl	68(%esp), %eax
	movl	72(%esp), %edx
	jmp	L344
L376:
	movl	$16, (%esp)
	call	___cxa_allocate_exception
	movl	$-5, 4(%eax)
	movl	$LC2, 8(%eax)
	movl	$0, 12(%eax)
	movl	$__ZTVN8Palmtree4Math4Core8Internal23DivisionByZeroExceptionE+8, (%eax)
	movl	$__ZN8Palmtree4Math4Core8Internal23DivisionByZeroExceptionD1Ev, 8(%esp)
	movl	$__ZTIN8Palmtree4Math4Core8Internal23DivisionByZeroExceptionE, 4(%esp)
	movl	%eax, (%esp)
	call	___cxa_throw
L375:
	movl	$16, (%esp)
	call	___cxa_allocate_exception
	movl	$-2, 4(%eax)
	movl	$LC0, 8(%eax)
	movl	$LC1, 12(%eax)
	movl	$__ZTVN8Palmtree4Math4Core8Internal21ArgumentNullExceptionE+8, (%eax)
	movl	$__ZN8Palmtree4Math4Core8Internal21ArgumentNullExceptionD1Ev, 8(%esp)
	movl	$__ZTIN8Palmtree4Math4Core8Internal21ArgumentNullExceptionE, 4(%esp)
	movl	%eax, (%esp)
	call	___cxa_throw
	.cfi_endproc
LFE6221:
	.p2align 4,,15
	.globl	__ZN8Palmtree4Math4Core8Internal17Initialize_DivRemEPNS2_23_tag_PROCESSOR_FEATURESE
	.def	__ZN8Palmtree4Math4Core8Internal17Initialize_DivRemEPNS2_23_tag_PROCESSOR_FEATURESE;	.scl	2;	.type	32;	.endef
__ZN8Palmtree4Math4Core8Internal17Initialize_DivRemEPNS2_23_tag_PROCESSOR_FEATURESE:
LFB6226:
	.cfi_startproc
	movl	4(%esp), %eax
	movl	$__ZN8Palmtree4Math4Core8InternalL24DivRem_X_X_using_ADC_MULEPjjS3_jS3_S3_S3_, %edx
	movzbl	(%eax), %eax
	andl	$10, %eax
	cmpb	$10, %al
	movl	$__ZN8Palmtree4Math4Core8InternalL25DivRem_X_X_using_ADX_MULXEPjjS3_jS3_S3_S3_, %eax
	cmovne	%edx, %eax
	movl	%eax, __ZN8Palmtree4Math4Core8InternalL13fp_DivRem_X_XE
	xorl	%eax, %eax
	ret
	.cfi_endproc
LFE6226:
	.section	.text.unlikely,"x"
LCOLDB3:
	.text
LHOTB3:
	.p2align 4,,15
	.def	__ZN8Palmtree4Math4Core8InternalL18PMC_DivRem_X_I_ImpEPNS2_19__tag_NUMBER_HEADEREjPS4_;	.scl	3;	.type	32;	.endef
__ZN8Palmtree4Math4Core8InternalL18PMC_DivRem_X_I_ImpEPNS2_19__tag_NUMBER_HEADEREjPS4_:
LFB6219:
	.cfi_startproc
	.cfi_personality 0,___gxx_personality_v0
	.cfi_lsda 0,LLSDA6219
	pushl	%ebp
	.cfi_def_cfa_offset 8
	.cfi_offset 5, -8
	movl	%esp, %ebp
	.cfi_def_cfa_register 5
	pushl	%edi
	pushl	%esi
	pushl	%ebx
	subl	$92, %esp
	.cfi_offset 7, -12
	.cfi_offset 6, -16
	.cfi_offset 3, -20
	testl	%edx, %edx
	je	L401
	movl	%eax, %edi
	movl	%ecx, %ebx
	testb	$1, 4(%eax)
	jne	L402
	movl	%edx, %esi
	cmpl	$1, %edx
	je	L403
	movl	20(%eax), %eax
/APP
 # 428 "../pmc_inline_func.h" 1
	bsrl %edx, %ecx
 # 0 "" 2
/NO_APP
	leal	1(%ecx), %edx
	movl	%ecx, -60(%ebp)
	cmpl	%edx, %eax
	jb	L404
	movl	%eax, -64(%ebp)
	testl	%ebx, %ebx
	je	L388
	leal	-40(%ebp), %ecx
LEHB0:
	call	__ZN8Palmtree4Math4Core8Internal18ResourceHolderUINTC1Ev
LEHE0:
	movl	-60(%ebp), %edx
	movl	-64(%ebp), %eax
	leal	-40(%ebp), %ecx
	notl	%edx
	leal	33(%eax,%edx), %eax
	movl	%eax, (%esp)
LEHB1:
	call	__ZN8Palmtree4Math4Core8Internal18ResourceHolderUINT14AllocateNumberEj
	subl	$4, %esp
	leal	-44(%ebp), %edx
	movl	%eax, (%ebx)
	movl	%edx, 16(%esp)
	movl	36(%eax), %eax
	movl	%esi, 8(%esp)
	movl	%eax, 12(%esp)
	movl	16(%edi), %eax
	movl	$0, -44(%ebp)
	movl	%eax, 4(%esp)
	movl	36(%edi), %eax
	movl	%eax, (%esp)
	call	__ZN8Palmtree4Math4Core8Internal11DivRem_X_1WEPjjjS3_S3_
	movl	(%ebx), %eax
	leal	-40(%ebp), %ecx
	movl	%eax, (%esp)
	call	__ZN8Palmtree4Math4Core8Internal18ResourceHolderUINT11CheckNumberEPNS2_19__tag_NUMBER_HEADERE
	movl	(%ebx), %eax
	subl	$4, %esp
	movl	%eax, (%esp)
	call	__ZN8Palmtree4Math4Core8Internal12CommitNumberEPNS2_19__tag_NUMBER_HEADERE
	movl	(%ebx), %eax
	leal	-40(%ebp), %ecx
	testb	$1, 4(%eax)
	movl	%eax, (%esp)
	jne	L405
	call	__ZN8Palmtree4Math4Core8Internal18ResourceHolderUINT12UnlinkNumberEPNS2_19__tag_NUMBER_HEADERE
	subl	$4, %esp
L390:
	movl	-44(%ebp), %esi
	leal	-40(%ebp), %ecx
	call	__ZN8Palmtree4Math4Core8Internal18ResourceHolderUINTD1Ev
	leal	-12(%ebp), %esp
	popl	%ebx
	.cfi_remember_state
	.cfi_restore 3
	movl	%esi, %eax
	popl	%esi
	.cfi_restore 6
	popl	%edi
	.cfi_restore 7
	popl	%ebp
	.cfi_restore 5
	.cfi_def_cfa 4, 4
	ret
	.p2align 4,,10
L402:
	.cfi_restore_state
	xorl	%esi, %esi
	testl	%ecx, %ecx
	je	L381
	movl	$__ZN8Palmtree4Math4Core8Internal11number_zeroE, (%ecx)
L381:
	leal	-12(%ebp), %esp
	movl	%esi, %eax
	popl	%ebx
	.cfi_remember_state
	.cfi_restore 3
	popl	%esi
	.cfi_restore 6
	popl	%edi
	.cfi_restore 7
	popl	%ebp
	.cfi_restore 5
	.cfi_def_cfa 4, 4
	ret
	.p2align 4,,10
L404:
	.cfi_restore_state
	testl	%ebx, %ebx
	je	L387
	movl	$__ZN8Palmtree4Math4Core8Internal11number_zeroE, (%ebx)
L387:
	movl	36(%edi), %eax
	movl	(%eax), %esi
	leal	-12(%ebp), %esp
	popl	%ebx
	.cfi_remember_state
	.cfi_restore 3
	movl	%esi, %eax
	popl	%esi
	.cfi_restore 6
	popl	%edi
	.cfi_restore 7
	popl	%ebp
	.cfi_restore 5
	.cfi_def_cfa 4, 4
	ret
	.p2align 4,,10
L405:
	.cfi_restore_state
	call	__ZN8Palmtree4Math4Core8Internal18ResourceHolderUINT16DeallocateNumberEPNS2_19__tag_NUMBER_HEADERE
LEHE1:
	subl	$4, %esp
	movl	$__ZN8Palmtree4Math4Core8Internal11number_zeroE, (%ebx)
	jmp	L390
	.p2align 4,,10
L403:
	xorl	%esi, %esi
	testl	%ecx, %ecx
	je	L381
	movl	%eax, (%esp)
LEHB2:
	call	__ZN8Palmtree4Math4Core8Internal15DuplicateNumberEPNS2_19__tag_NUMBER_HEADERE
	movl	%eax, (%ebx)
	jmp	L381
	.p2align 4,,10
L388:
	movl	%esi, 8(%esp)
	movl	16(%edi), %eax
	movl	%eax, 4(%esp)
	movl	36(%edi), %eax
	movl	%eax, (%esp)
	call	__ZN8Palmtree4Math4Core8Internal8Rem_X_1WEPjjj
	movl	%eax, %esi
	jmp	L381
L401:
	movl	$16, (%esp)
	call	___cxa_allocate_exception
	movl	$-5, 4(%eax)
	movl	$LC2, 8(%eax)
	movl	$0, 12(%eax)
	movl	$__ZTVN8Palmtree4Math4Core8Internal23DivisionByZeroExceptionE+8, (%eax)
	movl	$__ZN8Palmtree4Math4Core8Internal23DivisionByZeroExceptionD1Ev, 8(%esp)
	movl	$__ZTIN8Palmtree4Math4Core8Internal23DivisionByZeroExceptionE, 4(%esp)
	movl	%eax, (%esp)
	call	___cxa_throw
LEHE2:
L394:
	movl	%eax, %ebx
	jmp	L391
	.def	___gxx_personality_v0;	.scl	2;	.type	32;	.endef
	.section	.gcc_except_table,"w"
LLSDA6219:
	.byte	0xff
	.byte	0xff
	.byte	0x1
	.uleb128 LLSDACSE6219-LLSDACSB6219
LLSDACSB6219:
	.uleb128 LEHB0-LFB6219
	.uleb128 LEHE0-LEHB0
	.uleb128 0
	.uleb128 0
	.uleb128 LEHB1-LFB6219
	.uleb128 LEHE1-LEHB1
	.uleb128 L394-LFB6219
	.uleb128 0
	.uleb128 LEHB2-LFB6219
	.uleb128 LEHE2-LEHB2
	.uleb128 0
	.uleb128 0
LLSDACSE6219:
	.text
	.cfi_endproc
	.section	.text.unlikely,"x"
	.cfi_startproc
	.cfi_personality 0,___gxx_personality_v0
	.cfi_lsda 0,LLSDAC6219
	.def	__ZN8Palmtree4Math4Core8InternalL18PMC_DivRem_X_I_ImpEPNS2_19__tag_NUMBER_HEADEREjPS4_.cold.0;	.scl	3;	.type	32;	.endef
__ZN8Palmtree4Math4Core8InternalL18PMC_DivRem_X_I_ImpEPNS2_19__tag_NUMBER_HEADEREjPS4_.cold.0:
L391:
	.cfi_def_cfa 5, 8
	.cfi_offset 3, -20
	.cfi_offset 5, -8
	.cfi_offset 6, -16
	.cfi_offset 7, -12
	leal	-40(%ebp), %ecx
	call	__ZN8Palmtree4Math4Core8Internal18ResourceHolderUINTD1Ev
	movl	%ebx, (%esp)
LEHB3:
	call	__Unwind_Resume
LEHE3:
	.cfi_endproc
LFE6219:
	.section	.gcc_except_table,"w"
LLSDAC6219:
	.byte	0xff
	.byte	0xff
	.byte	0x1
	.uleb128 LLSDACSEC6219-LLSDACSBC6219
LLSDACSBC6219:
	.uleb128 LEHB3-LCOLDB3
	.uleb128 LEHE3-LEHB3
	.uleb128 0
	.uleb128 0
LLSDACSEC6219:
	.section	.text.unlikely,"x"
	.text
	.section	.text.unlikely,"x"
LCOLDE3:
	.text
LHOTE3:
	.section .rdata,"dr"
	.align 2
LC4:
	.ascii "u\0\0\0"
	.section	.text.unlikely,"x"
LCOLDB5:
	.text
LHOTB5:
	.p2align 4,,15
	.globl	__ZN8Palmtree4Math4Core8Internal14PMC_DivRem_X_IEPNS2_21__tag_PMC_HANDLE_UINTEjPS4_@12
	.def	__ZN8Palmtree4Math4Core8Internal14PMC_DivRem_X_IEPNS2_21__tag_PMC_HANDLE_UINTEjPS4_@12;	.scl	2;	.type	32;	.endef
__ZN8Palmtree4Math4Core8Internal14PMC_DivRem_X_IEPNS2_21__tag_PMC_HANDLE_UINTEjPS4_@12:
LFB6220:
	.cfi_startproc
	.cfi_personality 0,___gxx_personality_v0
	.cfi_lsda 0,LLSDA6220
	pushl	%ebp
	.cfi_def_cfa_offset 8
	.cfi_offset 5, -8
	movl	%esp, %ebp
	.cfi_def_cfa_register 5
	pushl	%esi
	pushl	%ebx
	subl	$48, %esp
	.cfi_offset 6, -12
	.cfi_offset 3, -16
	movl	8(%ebp), %ebx
	movl	16(%ebp), %esi
	testl	%ebx, %ebx
	je	L414
	movl	%ebx, (%esp)
LEHB4:
	call	__ZN8Palmtree4Math4Core8Internal11CheckNumberEPNS2_19__tag_NUMBER_HEADERE
	leal	-24(%ebp), %ecx
	call	__ZN8Palmtree4Math4Core8Internal18ResourceHolderUINTC1Ev
LEHE4:
	testl	%esi, %esi
	je	L408
	movl	12(%ebp), %edx
	leal	-28(%ebp), %ecx
	movl	%ebx, %eax
LEHB5:
	call	__ZN8Palmtree4Math4Core8InternalL18PMC_DivRem_X_I_ImpEPNS2_19__tag_NUMBER_HEADEREjPS4_
	movl	%eax, %ebx
	movl	-28(%ebp), %eax
	leal	-24(%ebp), %ecx
	movl	%eax, (%esp)
	call	__ZN8Palmtree4Math4Core8Internal18ResourceHolderUINT10HookNumberEPNS2_19__tag_NUMBER_HEADERE
	movl	-28(%ebp), %eax
	subl	$4, %esp
	leal	-24(%ebp), %ecx
	movl	%eax, (%esi)
	movl	%eax, (%esp)
	call	__ZN8Palmtree4Math4Core8Internal18ResourceHolderUINT12UnlinkNumberEPNS2_19__tag_NUMBER_HEADERE
	subl	$4, %esp
L409:
	leal	-24(%ebp), %ecx
	call	__ZN8Palmtree4Math4Core8Internal18ResourceHolderUINTD1Ev
	leal	-8(%ebp), %esp
	movl	%ebx, %eax
	popl	%ebx
	.cfi_remember_state
	.cfi_restore 3
	popl	%esi
	.cfi_restore 6
	popl	%ebp
	.cfi_restore 5
	.cfi_def_cfa 4, 4
	ret	$12
	.p2align 4,,10
L408:
	.cfi_restore_state
	movl	12(%ebp), %edx
	xorl	%ecx, %ecx
	movl	%ebx, %eax
	call	__ZN8Palmtree4Math4Core8InternalL18PMC_DivRem_X_I_ImpEPNS2_19__tag_NUMBER_HEADEREjPS4_
LEHE5:
	movl	%eax, %ebx
	jmp	L409
L414:
	movl	$16, (%esp)
	call	___cxa_allocate_exception
	movl	$-2, 4(%eax)
	movl	$LC0, 8(%eax)
	movl	$LC4, 12(%eax)
	movl	$__ZTVN8Palmtree4Math4Core8Internal21ArgumentNullExceptionE+8, (%eax)
	movl	$__ZN8Palmtree4Math4Core8Internal21ArgumentNullExceptionD1Ev, 8(%esp)
	movl	$__ZTIN8Palmtree4Math4Core8Internal21ArgumentNullExceptionE, 4(%esp)
	movl	%eax, (%esp)
LEHB6:
	call	___cxa_throw
LEHE6:
L411:
	movl	%eax, %ebx
	jmp	L410
	.section	.gcc_except_table,"w"
LLSDA6220:
	.byte	0xff
	.byte	0xff
	.byte	0x1
	.uleb128 LLSDACSE6220-LLSDACSB6220
LLSDACSB6220:
	.uleb128 LEHB4-LFB6220
	.uleb128 LEHE4-LEHB4
	.uleb128 0
	.uleb128 0
	.uleb128 LEHB5-LFB6220
	.uleb128 LEHE5-LEHB5
	.uleb128 L411-LFB6220
	.uleb128 0
	.uleb128 LEHB6-LFB6220
	.uleb128 LEHE6-LEHB6
	.uleb128 0
	.uleb128 0
LLSDACSE6220:
	.text
	.cfi_endproc
	.section	.text.unlikely,"x"
	.cfi_startproc
	.cfi_personality 0,___gxx_personality_v0
	.cfi_lsda 0,LLSDAC6220
	.def	__ZN8Palmtree4Math4Core8Internal14PMC_DivRem_X_IEPNS2_21__tag_PMC_HANDLE_UINTEjPS4_@12.cold.1;	.scl	3;	.type	32;	.endef
__ZN8Palmtree4Math4Core8Internal14PMC_DivRem_X_IEPNS2_21__tag_PMC_HANDLE_UINTEjPS4_@12.cold.1:
L410:
	.cfi_def_cfa 5, 8
	.cfi_offset 3, -16
	.cfi_offset 5, -8
	.cfi_offset 6, -12
	leal	-24(%ebp), %ecx
	call	__ZN8Palmtree4Math4Core8Internal18ResourceHolderUINTD1Ev
	movl	%ebx, (%esp)
LEHB7:
	call	__Unwind_Resume
LEHE7:
	.cfi_endproc
LFE6220:
	.section	.gcc_except_table,"w"
LLSDAC6220:
	.byte	0xff
	.byte	0xff
	.byte	0x1
	.uleb128 LLSDACSEC6220-LLSDACSBC6220
LLSDACSBC6220:
	.uleb128 LEHB7-LCOLDB5
	.uleb128 LEHE7-LEHB7
	.uleb128 0
	.uleb128 0
LLSDACSEC6220:
	.section	.text.unlikely,"x"
	.text
	.section	.text.unlikely,"x"
LCOLDE5:
	.text
LHOTE5:
	.section	.text.unlikely,"x"
LCOLDB6:
	.text
LHOTB6:
	.p2align 4,,15
	.def	__ZN8Palmtree4Math4Core8InternalL18PMC_DivRem_X_L_ImpEPNS2_19__tag_NUMBER_HEADEREyPS4_;	.scl	3;	.type	32;	.endef
__ZN8Palmtree4Math4Core8InternalL18PMC_DivRem_X_L_ImpEPNS2_19__tag_NUMBER_HEADEREyPS4_:
LFB6222:
	.cfi_startproc
	.cfi_personality 0,___gxx_personality_v0
	.cfi_lsda 0,LLSDA6222
	pushl	%ebp
	.cfi_def_cfa_offset 8
	.cfi_offset 5, -8
	movl	%esp, %ebp
	.cfi_def_cfa_register 5
	pushl	%edi
	pushl	%esi
	pushl	%ebx
	subl	$108, %esp
	.cfi_offset 7, -12
	.cfi_offset 6, -16
	.cfi_offset 3, -20
	movl	%eax, -60(%ebp)
	movl	%ecx, %eax
	movl	8(%ebp), %ebx
	orl	%edx, %eax
	je	L452
	movl	-60(%ebp), %eax
	testb	$1, 4(%eax)
	jne	L453
	movl	%edx, %eax
	movl	%edx, %edi
	movl	%ecx, %esi
	xorl	$1, %eax
	orl	%ecx, %eax
	je	L454
	movl	-60(%ebp), %eax
	movl	20(%eax), %eax
	testl	%ecx, %ecx
	jne	L420
	testl	%edx, %edx
	je	L438
/APP
 # 428 "../pmc_inline_func.h" 1
	bsrl %edx, %edx
 # 0 "" 2
/NO_APP
	leal	1(%edx), %ecx
	cmpl	%ecx, %eax
	jb	L422
	movl	$31, %esi
	subl	%edx, %esi
L421:
	movl	%eax, -68(%ebp)
	testl	%ebx, %ebx
	je	L424
	leal	-40(%ebp), %eax
	movl	%eax, %ecx
	movl	%eax, -64(%ebp)
LEHB8:
	call	__ZN8Palmtree4Math4Core8Internal18ResourceHolderUINTC1Ev
LEHE8:
	movl	-68(%ebp), %eax
	leal	1(%eax,%esi), %eax
	movl	-64(%ebp), %esi
	movl	%eax, (%esp)
	movl	%esi, %ecx
LEHB9:
	call	__ZN8Palmtree4Math4Core8Internal18ResourceHolderUINT14AllocateNumberEj
	subl	$4, %esp
	leal	-48(%ebp), %edx
	movl	%eax, (%ebx)
	movl	%edx, 16(%esp)
	movl	-60(%ebp), %edx
	movl	36(%eax), %eax
	movl	%edi, 8(%esp)
	movl	$0, -48(%ebp)
	movl	%eax, 12(%esp)
	movl	16(%edx), %eax
	movl	%eax, 4(%esp)
	movl	36(%edx), %eax
	movl	%eax, (%esp)
	call	__ZN8Palmtree4Math4Core8Internal11DivRem_X_1WEPjjjS3_S3_
	movl	(%ebx), %eax
	movl	%esi, %ecx
	movl	%eax, (%esp)
	call	__ZN8Palmtree4Math4Core8Internal18ResourceHolderUINT11CheckNumberEPNS2_19__tag_NUMBER_HEADERE
	movl	(%ebx), %eax
	subl	$4, %esp
	movl	%eax, (%esp)
	call	__ZN8Palmtree4Math4Core8Internal12CommitNumberEPNS2_19__tag_NUMBER_HEADERE
	movl	(%ebx), %eax
	testb	$1, 4(%eax)
	movl	%eax, (%esp)
	je	L425
	movl	%esi, %ecx
	call	__ZN8Palmtree4Math4Core8Internal18ResourceHolderUINT16DeallocateNumberEPNS2_19__tag_NUMBER_HEADERE
LEHE9:
	movl	$__ZN8Palmtree4Math4Core8Internal11number_zeroE, (%ebx)
	subl	$4, %esp
L426:
	movl	-64(%ebp), %ecx
	movl	-48(%ebp), %esi
	xorl	%edi, %edi
	call	__ZN8Palmtree4Math4Core8Internal18ResourceHolderUINTD1Ev
	leal	-12(%ebp), %esp
	movl	%esi, %eax
	movl	%edi, %edx
	popl	%ebx
	.cfi_remember_state
	.cfi_restore 3
	popl	%esi
	.cfi_restore 6
	popl	%edi
	.cfi_restore 7
	popl	%ebp
	.cfi_restore 5
	.cfi_def_cfa 4, 4
	ret
	.p2align 4,,10
L420:
	.cfi_restore_state
/APP
 # 428 "../pmc_inline_func.h" 1
	bsrl %ecx, %edx
 # 0 "" 2
/NO_APP
	leal	33(%edx), %ecx
	cmpl	%ecx, %eax
	jb	L455
	leal	32(%eax), %ecx
	movl	%edx, -76(%ebp)
	movl	%eax, -72(%ebp)
	movl	%ecx, -68(%ebp)
	testl	%ebx, %ebx
	je	L430
	leal	-40(%ebp), %eax
	movl	%eax, %ecx
	movl	%eax, -64(%ebp)
LEHB10:
	call	__ZN8Palmtree4Math4Core8Internal18ResourceHolderUINTC1Ev
LEHE10:
	movl	-72(%ebp), %eax
	movl	-76(%ebp), %edx
	movl	-64(%ebp), %ecx
	subl	%edx, %eax
	movl	%eax, (%esp)
LEHB11:
	call	__ZN8Palmtree4Math4Core8Internal18ResourceHolderUINT14AllocateNumberEj
	movl	-68(%ebp), %ecx
	subl	$4, %esp
	movl	%eax, (%ebx)
	movl	%edi, -56(%ebp)
	movl	-64(%ebp), %edi
	movl	%ecx, (%esp)
	movl	%edi, %ecx
	movl	%esi, -52(%ebp)
	movl	$0, -48(%ebp)
	movl	$0, -44(%ebp)
	call	__ZN8Palmtree4Math4Core8Internal18ResourceHolderUINT13AllocateBlockEj
	subl	$4, %esp
	movl	%eax, %esi
	movl	-60(%ebp), %edx
	movl	%eax, 24(%esp)
	movl	(%ebx), %eax
	movl	36(%eax), %eax
	movl	$2, 12(%esp)
	movl	%eax, 20(%esp)
	leal	-48(%ebp), %eax
	movl	%eax, 16(%esp)
	leal	-56(%ebp), %eax
	movl	%eax, 8(%esp)
	movl	16(%edx), %eax
	movl	%eax, 4(%esp)
	movl	36(%edx), %eax
	movl	%eax, (%esp)
	call	*__ZN8Palmtree4Math4Core8InternalL13fp_DivRem_X_XE
	movl	(%ebx), %eax
	movl	%edi, %ecx
	movl	%eax, (%esp)
	call	__ZN8Palmtree4Math4Core8Internal18ResourceHolderUINT11CheckNumberEPNS2_19__tag_NUMBER_HEADERE
	subl	$4, %esp
	movl	%edi, %ecx
	movl	%esi, (%esp)
	call	__ZN8Palmtree4Math4Core8Internal18ResourceHolderUINT10CheckBlockEPj
	movl	(%ebx), %eax
	subl	$4, %esp
	movl	%eax, (%esp)
	call	__ZN8Palmtree4Math4Core8Internal12CommitNumberEPNS2_19__tag_NUMBER_HEADERE
	movl	(%ebx), %eax
	testb	$1, 4(%eax)
	movl	%eax, (%esp)
	je	L431
	movl	%edi, %ecx
	call	__ZN8Palmtree4Math4Core8Internal18ResourceHolderUINT16DeallocateNumberEPNS2_19__tag_NUMBER_HEADERE
LEHE11:
	movl	$__ZN8Palmtree4Math4Core8Internal11number_zeroE, (%ebx)
	subl	$4, %esp
L432:
	movl	-64(%ebp), %ecx
	movl	4(%esi), %edi
	movl	(%esi), %esi
	call	__ZN8Palmtree4Math4Core8Internal18ResourceHolderUINTD1Ev
	leal	-12(%ebp), %esp
	movl	%edi, %edx
	popl	%ebx
	.cfi_remember_state
	.cfi_restore 3
	movl	%esi, %eax
	popl	%esi
	.cfi_restore 6
	popl	%edi
	.cfi_restore 7
	popl	%ebp
	.cfi_restore 5
	.cfi_def_cfa 4, 4
	ret
	.p2align 4,,10
L453:
	.cfi_restore_state
	xorl	%esi, %esi
	xorl	%edi, %edi
	testl	%ebx, %ebx
	je	L415
	movl	$__ZN8Palmtree4Math4Core8Internal11number_zeroE, (%ebx)
L415:
	leal	-12(%ebp), %esp
	movl	%esi, %eax
	movl	%edi, %edx
	popl	%ebx
	.cfi_remember_state
	.cfi_restore 3
	popl	%esi
	.cfi_restore 6
	popl	%edi
	.cfi_restore 7
	popl	%ebp
	.cfi_restore 5
	.cfi_def_cfa 4, 4
	ret
	.p2align 4,,10
L455:
	.cfi_restore_state
	testl	%ebx, %ebx
	je	L428
	movl	$__ZN8Palmtree4Math4Core8Internal11number_zeroE, (%ebx)
L428:
	movl	-60(%ebp), %ebx
	xorl	%eax, %eax
	movl	36(%ebx), %edx
	cmpl	$1, 16(%ebx)
	movl	(%edx), %ecx
	jbe	L429
	movl	4(%edx), %eax
L429:
	leal	-12(%ebp), %esp
	movl	%eax, %edi
	movl	%ecx, %esi
	popl	%ebx
	.cfi_remember_state
	.cfi_restore 3
	movl	%esi, %eax
	movl	%edi, %edx
	popl	%esi
	.cfi_restore 6
	popl	%edi
	.cfi_restore 7
	popl	%ebp
	.cfi_restore 5
	.cfi_def_cfa 4, 4
	ret
	.p2align 4,,10
L422:
	.cfi_restore_state
	testl	%ebx, %ebx
	je	L423
	movl	$__ZN8Palmtree4Math4Core8Internal11number_zeroE, (%ebx)
L423:
	movl	-60(%ebp), %eax
	xorl	%edi, %edi
	movl	36(%eax), %eax
	movl	(%eax), %esi
	jmp	L415
	.p2align 4,,10
L454:
	xorl	%esi, %esi
	xorl	%edi, %edi
	testl	%ebx, %ebx
	je	L415
	movl	-60(%ebp), %eax
	movl	%eax, (%esp)
LEHB12:
	call	__ZN8Palmtree4Math4Core8Internal15DuplicateNumberEPNS2_19__tag_NUMBER_HEADERE
LEHE12:
	movl	%eax, (%ebx)
	jmp	L415
	.p2align 4,,10
L425:
	movl	-64(%ebp), %ecx
LEHB13:
	call	__ZN8Palmtree4Math4Core8Internal18ResourceHolderUINT12UnlinkNumberEPNS2_19__tag_NUMBER_HEADERE
LEHE13:
	subl	$4, %esp
	jmp	L426
	.p2align 4,,10
L438:
	movl	$32, %esi
	jmp	L421
	.p2align 4,,10
L431:
	movl	-64(%ebp), %ecx
LEHB14:
	call	__ZN8Palmtree4Math4Core8Internal18ResourceHolderUINT12UnlinkNumberEPNS2_19__tag_NUMBER_HEADERE
LEHE14:
	subl	$4, %esp
	jmp	L432
	.p2align 4,,10
L424:
	movl	-60(%ebp), %ecx
	movl	%edi, 8(%esp)
	xorl	%edi, %edi
	movl	16(%ecx), %eax
	movl	%eax, 4(%esp)
	movl	36(%ecx), %eax
	movl	%eax, (%esp)
	call	__ZN8Palmtree4Math4Core8Internal8Rem_X_1WEPjjj
	movl	%eax, %esi
	jmp	L415
	.p2align 4,,10
L430:
	leal	-40(%ebp), %ebx
	movl	%ebx, %ecx
	movl	%ebx, -64(%ebp)
LEHB15:
	call	__ZN8Palmtree4Math4Core8Internal18ResourceHolderUINTC1Ev
LEHE15:
	movl	-68(%ebp), %eax
	movl	%ebx, %ecx
	movl	%edi, -56(%ebp)
	movl	%esi, -52(%ebp)
	movl	%ebx, %edi
	movl	%eax, (%esp)
	movl	$0, -48(%ebp)
	movl	$0, -44(%ebp)
LEHB16:
	call	__ZN8Palmtree4Math4Core8Internal18ResourceHolderUINT13AllocateBlockEj
	subl	$4, %esp
	movl	-60(%ebp), %ecx
	movl	%eax, %ebx
	movl	%eax, 24(%esp)
	leal	-48(%ebp), %eax
	movl	%eax, 16(%esp)
	leal	-56(%ebp), %eax
	movl	$0, 20(%esp)
	movl	$2, 12(%esp)
	movl	%eax, 8(%esp)
	movl	16(%ecx), %eax
	movl	%eax, 4(%esp)
	movl	36(%ecx), %eax
	movl	%eax, (%esp)
	call	*__ZN8Palmtree4Math4Core8InternalL13fp_DivRem_X_XE
	movl	%ebx, (%esp)
	movl	%edi, %ecx
	movl	%edi, -64(%ebp)
	call	__ZN8Palmtree4Math4Core8Internal18ResourceHolderUINT10CheckBlockEPj
	subl	$4, %esp
	movl	(%ebx), %esi
	movl	4(%ebx), %edi
	movl	%ebx, (%esp)
	movl	-64(%ebp), %ebx
	movl	%ebx, %ecx
	call	__ZN8Palmtree4Math4Core8Internal18ResourceHolderUINT15DeallocateBlockEPj
LEHE16:
	subl	$4, %esp
	movl	%ebx, %ecx
	call	__ZN8Palmtree4Math4Core8Internal18ResourceHolderUINTD1Ev
	jmp	L415
L452:
	movl	$16, (%esp)
	call	___cxa_allocate_exception
	movl	$-5, 4(%eax)
	movl	$LC2, 8(%eax)
	movl	$0, 12(%eax)
	movl	$__ZTVN8Palmtree4Math4Core8Internal23DivisionByZeroExceptionE+8, (%eax)
	movl	$__ZN8Palmtree4Math4Core8Internal23DivisionByZeroExceptionD1Ev, 8(%esp)
	movl	$__ZTIN8Palmtree4Math4Core8Internal23DivisionByZeroExceptionE, 4(%esp)
	movl	%eax, (%esp)
LEHB17:
	call	___cxa_throw
LEHE17:
L441:
	movl	%eax, %ebx
	jmp	L435
L440:
	movl	%eax, %ebx
	jmp	L435
L442:
	movl	%eax, %ebx
	jmp	L435
	.section	.gcc_except_table,"w"
LLSDA6222:
	.byte	0xff
	.byte	0xff
	.byte	0x1
	.uleb128 LLSDACSE6222-LLSDACSB6222
LLSDACSB6222:
	.uleb128 LEHB8-LFB6222
	.uleb128 LEHE8-LEHB8
	.uleb128 0
	.uleb128 0
	.uleb128 LEHB9-LFB6222
	.uleb128 LEHE9-LEHB9
	.uleb128 L440-LFB6222
	.uleb128 0
	.uleb128 LEHB10-LFB6222
	.uleb128 LEHE10-LEHB10
	.uleb128 0
	.uleb128 0
	.uleb128 LEHB11-LFB6222
	.uleb128 LEHE11-LEHB11
	.uleb128 L441-LFB6222
	.uleb128 0
	.uleb128 LEHB12-LFB6222
	.uleb128 LEHE12-LEHB12
	.uleb128 0
	.uleb128 0
	.uleb128 LEHB13-LFB6222
	.uleb128 LEHE13-LEHB13
	.uleb128 L440-LFB6222
	.uleb128 0
	.uleb128 LEHB14-LFB6222
	.uleb128 LEHE14-LEHB14
	.uleb128 L441-LFB6222
	.uleb128 0
	.uleb128 LEHB15-LFB6222
	.uleb128 LEHE15-LEHB15
	.uleb128 0
	.uleb128 0
	.uleb128 LEHB16-LFB6222
	.uleb128 LEHE16-LEHB16
	.uleb128 L442-LFB6222
	.uleb128 0
	.uleb128 LEHB17-LFB6222
	.uleb128 LEHE17-LEHB17
	.uleb128 0
	.uleb128 0
LLSDACSE6222:
	.text
	.cfi_endproc
	.section	.text.unlikely,"x"
	.cfi_startproc
	.cfi_personality 0,___gxx_personality_v0
	.cfi_lsda 0,LLSDAC6222
	.def	__ZN8Palmtree4Math4Core8InternalL18PMC_DivRem_X_L_ImpEPNS2_19__tag_NUMBER_HEADEREyPS4_.cold.2;	.scl	3;	.type	32;	.endef
__ZN8Palmtree4Math4Core8InternalL18PMC_DivRem_X_L_ImpEPNS2_19__tag_NUMBER_HEADEREyPS4_.cold.2:
L435:
	.cfi_def_cfa 5, 8
	.cfi_offset 3, -20
	.cfi_offset 5, -8
	.cfi_offset 6, -16
	.cfi_offset 7, -12
	movl	-64(%ebp), %ecx
	call	__ZN8Palmtree4Math4Core8Internal18ResourceHolderUINTD1Ev
	movl	%ebx, (%esp)
LEHB18:
	call	__Unwind_Resume
LEHE18:
	.cfi_endproc
LFE6222:
	.section	.gcc_except_table,"w"
LLSDAC6222:
	.byte	0xff
	.byte	0xff
	.byte	0x1
	.uleb128 LLSDACSEC6222-LLSDACSBC6222
LLSDACSBC6222:
	.uleb128 LEHB18-LCOLDB6
	.uleb128 LEHE18-LEHB18
	.uleb128 0
	.uleb128 0
LLSDACSEC6222:
	.section	.text.unlikely,"x"
	.text
	.section	.text.unlikely,"x"
LCOLDE6:
	.text
LHOTE6:
	.section	.text.unlikely,"x"
LCOLDB7:
	.text
LHOTB7:
	.p2align 4,,15
	.globl	__ZN8Palmtree4Math4Core8Internal14PMC_DivRem_X_LEPNS2_21__tag_PMC_HANDLE_UINTEyPS4_@16
	.def	__ZN8Palmtree4Math4Core8Internal14PMC_DivRem_X_LEPNS2_21__tag_PMC_HANDLE_UINTEyPS4_@16;	.scl	2;	.type	32;	.endef
__ZN8Palmtree4Math4Core8Internal14PMC_DivRem_X_LEPNS2_21__tag_PMC_HANDLE_UINTEyPS4_@16:
LFB6223:
	.cfi_startproc
	.cfi_personality 0,___gxx_personality_v0
	.cfi_lsda 0,LLSDA6223
	pushl	%ebp
	.cfi_def_cfa_offset 8
	.cfi_offset 5, -8
	movl	%esp, %ebp
	.cfi_def_cfa_register 5
	pushl	%edi
	pushl	%esi
	pushl	%ebx
	subl	$60, %esp
	.cfi_offset 7, -12
	.cfi_offset 6, -16
	.cfi_offset 3, -20
	movl	8(%ebp), %ebx
	movl	12(%ebp), %esi
	movl	16(%ebp), %edi
	testl	%ebx, %ebx
	je	L464
	movl	%ebx, (%esp)
LEHB19:
	call	__ZN8Palmtree4Math4Core8Internal11CheckNumberEPNS2_19__tag_NUMBER_HEADERE
	leal	-40(%ebp), %ecx
	call	__ZN8Palmtree4Math4Core8Internal18ResourceHolderUINTC1Ev
LEHE19:
	movl	20(%ebp), %eax
	testl	%eax, %eax
	je	L458
	leal	-44(%ebp), %eax
	movl	%esi, %edx
	movl	%edi, %ecx
	movl	%eax, (%esp)
	movl	%ebx, %eax
LEHB20:
	call	__ZN8Palmtree4Math4Core8InternalL18PMC_DivRem_X_L_ImpEPNS2_19__tag_NUMBER_HEADEREyPS4_
	movl	%eax, %esi
	movl	-44(%ebp), %eax
	leal	-40(%ebp), %ecx
	movl	%edx, %edi
	movl	%eax, (%esp)
	call	__ZN8Palmtree4Math4Core8Internal18ResourceHolderUINT10HookNumberEPNS2_19__tag_NUMBER_HEADERE
	movl	-44(%ebp), %eax
	movl	20(%ebp), %edx
	subl	$4, %esp
	leal	-40(%ebp), %ecx
	movl	%eax, (%edx)
	movl	%eax, (%esp)
	call	__ZN8Palmtree4Math4Core8Internal18ResourceHolderUINT12UnlinkNumberEPNS2_19__tag_NUMBER_HEADERE
	subl	$4, %esp
L459:
	leal	-40(%ebp), %ecx
	call	__ZN8Palmtree4Math4Core8Internal18ResourceHolderUINTD1Ev
	leal	-12(%ebp), %esp
	movl	%esi, %eax
	movl	%edi, %edx
	popl	%ebx
	.cfi_remember_state
	.cfi_restore 3
	popl	%esi
	.cfi_restore 6
	popl	%edi
	.cfi_restore 7
	popl	%ebp
	.cfi_restore 5
	.cfi_def_cfa 4, 4
	ret	$16
	.p2align 4,,10
L458:
	.cfi_restore_state
	movl	$0, (%esp)
	movl	%esi, %edx
	movl	%edi, %ecx
	movl	%ebx, %eax
	call	__ZN8Palmtree4Math4Core8InternalL18PMC_DivRem_X_L_ImpEPNS2_19__tag_NUMBER_HEADEREyPS4_
LEHE20:
	movl	%eax, %esi
	movl	%edx, %edi
	jmp	L459
L464:
	movl	$16, (%esp)
	call	___cxa_allocate_exception
	movl	$-2, 4(%eax)
	movl	$LC0, 8(%eax)
	movl	$LC4, 12(%eax)
	movl	$__ZTVN8Palmtree4Math4Core8Internal21ArgumentNullExceptionE+8, (%eax)
	movl	$__ZN8Palmtree4Math4Core8Internal21ArgumentNullExceptionD1Ev, 8(%esp)
	movl	$__ZTIN8Palmtree4Math4Core8Internal21ArgumentNullExceptionE, 4(%esp)
	movl	%eax, (%esp)
LEHB21:
	call	___cxa_throw
LEHE21:
L461:
	movl	%eax, %ebx
	jmp	L460
	.section	.gcc_except_table,"w"
LLSDA6223:
	.byte	0xff
	.byte	0xff
	.byte	0x1
	.uleb128 LLSDACSE6223-LLSDACSB6223
LLSDACSB6223:
	.uleb128 LEHB19-LFB6223
	.uleb128 LEHE19-LEHB19
	.uleb128 0
	.uleb128 0
	.uleb128 LEHB20-LFB6223
	.uleb128 LEHE20-LEHB20
	.uleb128 L461-LFB6223
	.uleb128 0
	.uleb128 LEHB21-LFB6223
	.uleb128 LEHE21-LEHB21
	.uleb128 0
	.uleb128 0
LLSDACSE6223:
	.text
	.cfi_endproc
	.section	.text.unlikely,"x"
	.cfi_startproc
	.cfi_personality 0,___gxx_personality_v0
	.cfi_lsda 0,LLSDAC6223
	.def	__ZN8Palmtree4Math4Core8Internal14PMC_DivRem_X_LEPNS2_21__tag_PMC_HANDLE_UINTEyPS4_@16.cold.3;	.scl	3;	.type	32;	.endef
__ZN8Palmtree4Math4Core8Internal14PMC_DivRem_X_LEPNS2_21__tag_PMC_HANDLE_UINTEyPS4_@16.cold.3:
L460:
	.cfi_def_cfa 5, 8
	.cfi_offset 3, -20
	.cfi_offset 5, -8
	.cfi_offset 6, -16
	.cfi_offset 7, -12
	leal	-40(%ebp), %ecx
	call	__ZN8Palmtree4Math4Core8Internal18ResourceHolderUINTD1Ev
	movl	%ebx, (%esp)
LEHB22:
	call	__Unwind_Resume
LEHE22:
	.cfi_endproc
LFE6223:
	.section	.gcc_except_table,"w"
LLSDAC6223:
	.byte	0xff
	.byte	0xff
	.byte	0x1
	.uleb128 LLSDACSEC6223-LLSDACSBC6223
LLSDACSBC6223:
	.uleb128 LEHB22-LCOLDB7
	.uleb128 LEHE22-LEHB22
	.uleb128 0
	.uleb128 0
LLSDACSEC6223:
	.section	.text.unlikely,"x"
	.text
	.section	.text.unlikely,"x"
LCOLDE7:
	.text
LHOTE7:
	.section	.text.unlikely,"x"
LCOLDB8:
	.text
LHOTB8:
	.p2align 4,,15
	.def	__ZN8Palmtree4Math4Core8InternalL18PMC_DivRem_X_X_ImpEPNS2_19__tag_NUMBER_HEADERES4_PS4_;	.scl	3;	.type	32;	.endef
__ZN8Palmtree4Math4Core8InternalL18PMC_DivRem_X_X_ImpEPNS2_19__tag_NUMBER_HEADERES4_PS4_:
LFB6224:
	.cfi_startproc
	.cfi_personality 0,___gxx_personality_v0
	.cfi_lsda 0,LLSDA6224
	pushl	%ebp
	.cfi_def_cfa_offset 8
	.cfi_offset 5, -8
	movl	%esp, %ebp
	.cfi_def_cfa_register 5
	pushl	%edi
	pushl	%esi
	pushl	%ebx
	subl	$76, %esp
	.cfi_offset 7, -12
	.cfi_offset 6, -16
	.cfi_offset 3, -20
	testb	$1, 4(%eax)
	jne	L508
	movl	%ecx, %ebx
	movl	%edx, %edi
	movl	%eax, %esi
	testb	$2, 4(%edx)
	jne	L509
	movl	20(%edx), %edx
	movl	20(%eax), %eax
	movl	%edx, -44(%ebp)
	cmpl	%edx, %eax
	jnb	L469
	testl	%ecx, %ecx
	je	L470
	movl	$__ZN8Palmtree4Math4Core8Internal11number_zeroE, (%ecx)
L470:
	movl	%esi, (%esp)
LEHB23:
	call	__ZN8Palmtree4Math4Core8Internal15DuplicateNumberEPNS2_19__tag_NUMBER_HEADERE
	movl	%eax, -44(%ebp)
L465:
	movl	-44(%ebp), %eax
	leal	-12(%ebp), %esp
	popl	%ebx
	.cfi_remember_state
	.cfi_restore 3
	popl	%esi
	.cfi_restore 6
	popl	%edi
	.cfi_restore 7
	popl	%ebp
	.cfi_restore 5
	.cfi_def_cfa 4, 4
	ret
	.p2align 4,,10
L509:
	.cfi_restore_state
	movl	$__ZN8Palmtree4Math4Core8Internal11number_zeroE, -44(%ebp)
	testl	%ecx, %ecx
	je	L465
	movl	%eax, (%esp)
	call	__ZN8Palmtree4Math4Core8Internal15DuplicateNumberEPNS2_19__tag_NUMBER_HEADERE
	movl	%eax, (%ebx)
	movl	-44(%ebp), %eax
	leal	-12(%ebp), %esp
	popl	%ebx
	.cfi_remember_state
	.cfi_restore 3
	popl	%esi
	.cfi_restore 6
	popl	%edi
	.cfi_restore 7
	popl	%ebp
	.cfi_restore 5
	.cfi_def_cfa 4, 4
	ret
	.p2align 4,,10
L508:
	.cfi_restore_state
	movl	$__ZN8Palmtree4Math4Core8Internal11number_zeroE, -44(%ebp)
	testl	%ecx, %ecx
	je	L465
	movl	$__ZN8Palmtree4Math4Core8Internal11number_zeroE, (%ecx)
	movl	-44(%ebp), %eax
	leal	-12(%ebp), %esp
	popl	%ebx
	.cfi_remember_state
	.cfi_restore 3
	popl	%esi
	.cfi_restore 6
	popl	%edi
	.cfi_restore 7
	popl	%ebp
	.cfi_restore 5
	.cfi_def_cfa 4, 4
	ret
	.p2align 4,,10
L469:
	.cfi_restore_state
	cmpl	$32, -44(%ebp)
	jbe	L510
	leal	32(%eax), %edx
	movl	%eax, -56(%ebp)
	movl	%edx, -52(%ebp)
	testl	%ecx, %ecx
	je	L479
	leal	-40(%ebp), %eax
	movl	%eax, %ecx
	movl	%eax, -48(%ebp)
	call	__ZN8Palmtree4Math4Core8Internal18ResourceHolderUINTC1Ev
LEHE23:
	movl	-56(%ebp), %eax
	subl	-44(%ebp), %eax
	addl	$33, %eax
	movl	-48(%ebp), %ecx
	movl	%eax, (%esp)
LEHB24:
	call	__ZN8Palmtree4Math4Core8Internal18ResourceHolderUINT14AllocateNumberEj
	movl	-52(%ebp), %edx
	subl	$4, %esp
	movl	-48(%ebp), %ecx
	movl	%eax, (%ebx)
	movl	%edx, (%esp)
	call	__ZN8Palmtree4Math4Core8Internal18ResourceHolderUINT14AllocateNumberEj
	movl	16(%edi), %edx
	subl	$4, %esp
	movl	-48(%ebp), %ecx
	movl	%eax, -44(%ebp)
	sall	$5, %edx
	movl	%edx, (%esp)
	call	__ZN8Palmtree4Math4Core8Internal18ResourceHolderUINT13AllocateBlockEj
	movl	-44(%ebp), %edx
	movl	%eax, %ecx
	subl	$4, %esp
	movl	%ecx, -52(%ebp)
	movl	36(%edx), %eax
	movl	%eax, 24(%esp)
	movl	(%ebx), %eax
	movl	36(%eax), %eax
	movl	%ecx, 16(%esp)
	movl	%eax, 20(%esp)
	movl	16(%edi), %eax
	movl	%eax, 12(%esp)
	movl	36(%edi), %eax
	movl	%eax, 8(%esp)
	movl	16(%esi), %eax
	movl	%eax, 4(%esp)
	movl	36(%esi), %eax
	movl	%eax, (%esp)
	call	*__ZN8Palmtree4Math4Core8InternalL13fp_DivRem_X_XE
	movl	-52(%ebp), %ecx
	movl	-48(%ebp), %esi
	movl	%ecx, (%esp)
	movl	%esi, %ecx
	call	__ZN8Palmtree4Math4Core8Internal18ResourceHolderUINT10CheckBlockEPj
	movl	(%ebx), %eax
	subl	$4, %esp
	movl	%esi, %ecx
	movl	%eax, (%esp)
	call	__ZN8Palmtree4Math4Core8Internal18ResourceHolderUINT11CheckNumberEPNS2_19__tag_NUMBER_HEADERE
	movl	-44(%ebp), %edi
	subl	$4, %esp
	movl	%esi, %ecx
	movl	%edi, (%esp)
	call	__ZN8Palmtree4Math4Core8Internal18ResourceHolderUINT11CheckNumberEPNS2_19__tag_NUMBER_HEADERE
	movl	-52(%ebp), %ecx
	subl	$4, %esp
	movl	%ecx, (%esp)
	movl	%esi, %ecx
	call	__ZN8Palmtree4Math4Core8Internal18ResourceHolderUINT15DeallocateBlockEPj
	movl	(%ebx), %eax
	subl	$4, %esp
	movl	%eax, (%esp)
	call	__ZN8Palmtree4Math4Core8Internal12CommitNumberEPNS2_19__tag_NUMBER_HEADERE
	movl	%edi, (%esp)
	call	__ZN8Palmtree4Math4Core8Internal12CommitNumberEPNS2_19__tag_NUMBER_HEADERE
	movl	(%ebx), %eax
	testb	$1, 4(%eax)
	movl	%eax, (%esp)
	jne	L511
	movl	-48(%ebp), %ecx
	call	__ZN8Palmtree4Math4Core8Internal18ResourceHolderUINT12UnlinkNumberEPNS2_19__tag_NUMBER_HEADERE
	subl	$4, %esp
L481:
	movl	-44(%ebp), %eax
	testb	$1, 4(%eax)
	je	L482
	movl	%eax, (%esp)
	movl	-48(%ebp), %ecx
	call	__ZN8Palmtree4Math4Core8Internal18ResourceHolderUINT16DeallocateNumberEPNS2_19__tag_NUMBER_HEADERE
LEHE24:
	jmp	L507
	.p2align 4,,10
L510:
	movl	%eax, -52(%ebp)
	leal	-40(%ebp), %eax
	testl	%ecx, %ecx
	je	L472
	movl	%eax, %ecx
	movl	%eax, -48(%ebp)
LEHB25:
	call	__ZN8Palmtree4Math4Core8Internal18ResourceHolderUINTC1Ev
LEHE25:
	movl	-52(%ebp), %eax
	subl	-44(%ebp), %eax
	addl	$33, %eax
	movl	-48(%ebp), %ecx
	movl	%eax, (%esp)
LEHB26:
	call	__ZN8Palmtree4Math4Core8Internal18ResourceHolderUINT14AllocateNumberEj
	subl	$4, %esp
	movl	%eax, (%ebx)
	movl	-48(%ebp), %ecx
	movl	$32, (%esp)
	call	__ZN8Palmtree4Math4Core8Internal18ResourceHolderUINT14AllocateNumberEj
	movl	%eax, -44(%ebp)
	movl	36(%eax), %eax
	subl	$4, %esp
	movl	%eax, 16(%esp)
	movl	(%ebx), %eax
	movl	36(%eax), %eax
	movl	%eax, 12(%esp)
	movl	36(%edi), %eax
	movl	(%eax), %eax
	movl	%eax, 8(%esp)
	movl	16(%esi), %eax
	movl	%eax, 4(%esp)
	movl	36(%esi), %eax
	movl	%eax, (%esp)
	call	__ZN8Palmtree4Math4Core8Internal11DivRem_X_1WEPjjjS3_S3_
	movl	(%ebx), %eax
	movl	-48(%ebp), %edi
	movl	%eax, (%esp)
	movl	%edi, %ecx
	call	__ZN8Palmtree4Math4Core8Internal18ResourceHolderUINT11CheckNumberEPNS2_19__tag_NUMBER_HEADERE
	movl	-44(%ebp), %esi
	subl	$4, %esp
	movl	%edi, %ecx
	movl	%esi, (%esp)
	call	__ZN8Palmtree4Math4Core8Internal18ResourceHolderUINT11CheckNumberEPNS2_19__tag_NUMBER_HEADERE
	movl	(%ebx), %eax
	subl	$4, %esp
	movl	%eax, (%esp)
	call	__ZN8Palmtree4Math4Core8Internal12CommitNumberEPNS2_19__tag_NUMBER_HEADERE
	movl	%esi, (%esp)
	call	__ZN8Palmtree4Math4Core8Internal12CommitNumberEPNS2_19__tag_NUMBER_HEADERE
	movl	(%ebx), %eax
	testb	$1, 4(%eax)
	movl	%eax, (%esp)
	jne	L512
	movl	-48(%ebp), %ecx
	call	__ZN8Palmtree4Math4Core8Internal18ResourceHolderUINT12UnlinkNumberEPNS2_19__tag_NUMBER_HEADERE
	subl	$4, %esp
L474:
	movl	-44(%ebp), %eax
	testb	$1, 4(%eax)
	je	L475
	movl	%eax, (%esp)
	movl	-48(%ebp), %ecx
	call	__ZN8Palmtree4Math4Core8Internal18ResourceHolderUINT16DeallocateNumberEPNS2_19__tag_NUMBER_HEADERE
L507:
	movl	$__ZN8Palmtree4Math4Core8Internal11number_zeroE, -44(%ebp)
	subl	$4, %esp
L485:
	movl	-48(%ebp), %ecx
	call	__ZN8Palmtree4Math4Core8Internal18ResourceHolderUINTD1Ev
	movl	-44(%ebp), %eax
	leal	-12(%ebp), %esp
	popl	%ebx
	.cfi_remember_state
	.cfi_restore 3
	popl	%esi
	.cfi_restore 6
	popl	%edi
	.cfi_restore 7
	popl	%ebp
	.cfi_restore 5
	.cfi_def_cfa 4, 4
	ret
	.p2align 4,,10
L512:
	.cfi_restore_state
	movl	%edi, %ecx
	call	__ZN8Palmtree4Math4Core8Internal18ResourceHolderUINT16DeallocateNumberEPNS2_19__tag_NUMBER_HEADERE
LEHE26:
	subl	$4, %esp
	movl	$__ZN8Palmtree4Math4Core8Internal11number_zeroE, (%ebx)
	jmp	L474
	.p2align 4,,10
L511:
	movl	%esi, %ecx
LEHB27:
	call	__ZN8Palmtree4Math4Core8Internal18ResourceHolderUINT16DeallocateNumberEPNS2_19__tag_NUMBER_HEADERE
LEHE27:
	subl	$4, %esp
	movl	$__ZN8Palmtree4Math4Core8Internal11number_zeroE, (%ebx)
	jmp	L481
	.p2align 4,,10
L475:
	movl	-44(%ebp), %eax
	movl	-48(%ebp), %ecx
	movl	%eax, (%esp)
LEHB28:
	call	__ZN8Palmtree4Math4Core8Internal18ResourceHolderUINT12UnlinkNumberEPNS2_19__tag_NUMBER_HEADERE
LEHE28:
L506:
	subl	$4, %esp
	jmp	L485
	.p2align 4,,10
L482:
	movl	-44(%ebp), %eax
	movl	-48(%ebp), %ecx
	movl	%eax, (%esp)
LEHB29:
	call	__ZN8Palmtree4Math4Core8Internal18ResourceHolderUINT12UnlinkNumberEPNS2_19__tag_NUMBER_HEADERE
LEHE29:
	jmp	L506
	.p2align 4,,10
L472:
	movl	%eax, %ecx
	movl	%eax, %ebx
LEHB30:
	call	__ZN8Palmtree4Math4Core8Internal18ResourceHolderUINTC1Ev
LEHE30:
	movl	$32, (%esp)
	movl	%ebx, %ecx
	movl	%ebx, -48(%ebp)
LEHB31:
	call	__ZN8Palmtree4Math4Core8Internal18ResourceHolderUINT14AllocateNumberEj
	movl	36(%eax), %ebx
	movl	%eax, -44(%ebp)
	subl	$4, %esp
	movl	36(%edi), %eax
	movl	(%eax), %eax
	movl	%eax, 8(%esp)
	movl	16(%esi), %eax
	movl	%eax, 4(%esp)
	movl	36(%esi), %eax
	movl	%eax, (%esp)
	call	__ZN8Palmtree4Math4Core8Internal8Rem_X_1WEPjjj
	movl	-48(%ebp), %edi
	movl	%eax, (%ebx)
	movl	-44(%ebp), %ebx
	movl	%edi, %ecx
	movl	%ebx, (%esp)
	call	__ZN8Palmtree4Math4Core8Internal18ResourceHolderUINT11CheckNumberEPNS2_19__tag_NUMBER_HEADERE
	subl	$4, %esp
	movl	%ebx, (%esp)
	call	__ZN8Palmtree4Math4Core8Internal12CommitNumberEPNS2_19__tag_NUMBER_HEADERE
	testb	$1, 4(%ebx)
	je	L477
	movl	%ebx, (%esp)
	movl	%edi, %ecx
	call	__ZN8Palmtree4Math4Core8Internal18ResourceHolderUINT16DeallocateNumberEPNS2_19__tag_NUMBER_HEADERE
LEHE31:
	jmp	L507
	.p2align 4,,10
L479:
	leal	-40(%ebp), %ebx
	movl	%ebx, %ecx
	movl	%ebx, -48(%ebp)
LEHB32:
	call	__ZN8Palmtree4Math4Core8Internal18ResourceHolderUINTC1Ev
LEHE32:
	movl	-52(%ebp), %eax
	movl	%ebx, %ecx
	movl	%eax, (%esp)
LEHB33:
	call	__ZN8Palmtree4Math4Core8Internal18ResourceHolderUINT14AllocateNumberEj
	movl	16(%edi), %edx
	subl	$4, %esp
	movl	%ebx, %ecx
	movl	%eax, -44(%ebp)
	movl	%ebx, -48(%ebp)
	sall	$5, %edx
	movl	%edx, (%esp)
	call	__ZN8Palmtree4Math4Core8Internal18ResourceHolderUINT13AllocateBlockEj
	movl	%eax, %ebx
	movl	-44(%ebp), %eax
	subl	$4, %esp
	movl	36(%eax), %eax
	movl	$0, 20(%esp)
	movl	%ebx, 16(%esp)
	movl	%eax, 24(%esp)
	movl	16(%edi), %eax
	movl	%eax, 12(%esp)
	movl	36(%edi), %eax
	movl	%eax, 8(%esp)
	movl	16(%esi), %eax
	movl	%eax, 4(%esp)
	movl	36(%esi), %eax
	movl	%eax, (%esp)
	call	*__ZN8Palmtree4Math4Core8InternalL13fp_DivRem_X_XE
	movl	-48(%ebp), %edi
	movl	%ebx, (%esp)
	movl	%edi, %ecx
	call	__ZN8Palmtree4Math4Core8Internal18ResourceHolderUINT10CheckBlockEPj
	movl	-44(%ebp), %esi
	subl	$4, %esp
	movl	%edi, %ecx
	movl	%esi, (%esp)
	call	__ZN8Palmtree4Math4Core8Internal18ResourceHolderUINT11CheckNumberEPNS2_19__tag_NUMBER_HEADERE
	subl	$4, %esp
	movl	%edi, %ecx
	movl	%ebx, (%esp)
	call	__ZN8Palmtree4Math4Core8Internal18ResourceHolderUINT15DeallocateBlockEPj
	subl	$4, %esp
	movl	%esi, (%esp)
	call	__ZN8Palmtree4Math4Core8Internal12CommitNumberEPNS2_19__tag_NUMBER_HEADERE
	testb	$1, 4(%esi)
	je	L484
	movl	%esi, (%esp)
	movl	%edi, %ecx
	call	__ZN8Palmtree4Math4Core8Internal18ResourceHolderUINT16DeallocateNumberEPNS2_19__tag_NUMBER_HEADERE
LEHE33:
	jmp	L507
	.p2align 4,,10
L477:
	movl	-44(%ebp), %eax
	movl	-48(%ebp), %ecx
	movl	%eax, (%esp)
LEHB34:
	call	__ZN8Palmtree4Math4Core8Internal18ResourceHolderUINT12UnlinkNumberEPNS2_19__tag_NUMBER_HEADERE
LEHE34:
	jmp	L506
	.p2align 4,,10
L484:
	movl	-44(%ebp), %eax
	movl	-48(%ebp), %ecx
	movl	%eax, (%esp)
LEHB35:
	call	__ZN8Palmtree4Math4Core8Internal18ResourceHolderUINT12UnlinkNumberEPNS2_19__tag_NUMBER_HEADERE
LEHE35:
	jmp	L506
L497:
	movl	%eax, %ebx
	jmp	L487
L499:
	movl	%eax, %ebx
	jmp	L489
L496:
	movl	%eax, %ebx
	jmp	L486
L498:
	movl	%eax, %ebx
	jmp	L488
	.section	.gcc_except_table,"w"
LLSDA6224:
	.byte	0xff
	.byte	0xff
	.byte	0x1
	.uleb128 LLSDACSE6224-LLSDACSB6224
LLSDACSB6224:
	.uleb128 LEHB23-LFB6224
	.uleb128 LEHE23-LEHB23
	.uleb128 0
	.uleb128 0
	.uleb128 LEHB24-LFB6224
	.uleb128 LEHE24-LEHB24
	.uleb128 L498-LFB6224
	.uleb128 0
	.uleb128 LEHB25-LFB6224
	.uleb128 LEHE25-LEHB25
	.uleb128 0
	.uleb128 0
	.uleb128 LEHB26-LFB6224
	.uleb128 LEHE26-LEHB26
	.uleb128 L496-LFB6224
	.uleb128 0
	.uleb128 LEHB27-LFB6224
	.uleb128 LEHE27-LEHB27
	.uleb128 L498-LFB6224
	.uleb128 0
	.uleb128 LEHB28-LFB6224
	.uleb128 LEHE28-LEHB28
	.uleb128 L496-LFB6224
	.uleb128 0
	.uleb128 LEHB29-LFB6224
	.uleb128 LEHE29-LEHB29
	.uleb128 L498-LFB6224
	.uleb128 0
	.uleb128 LEHB30-LFB6224
	.uleb128 LEHE30-LEHB30
	.uleb128 0
	.uleb128 0
	.uleb128 LEHB31-LFB6224
	.uleb128 LEHE31-LEHB31
	.uleb128 L497-LFB6224
	.uleb128 0
	.uleb128 LEHB32-LFB6224
	.uleb128 LEHE32-LEHB32
	.uleb128 0
	.uleb128 0
	.uleb128 LEHB33-LFB6224
	.uleb128 LEHE33-LEHB33
	.uleb128 L499-LFB6224
	.uleb128 0
	.uleb128 LEHB34-LFB6224
	.uleb128 LEHE34-LEHB34
	.uleb128 L497-LFB6224
	.uleb128 0
	.uleb128 LEHB35-LFB6224
	.uleb128 LEHE35-LEHB35
	.uleb128 L499-LFB6224
	.uleb128 0
LLSDACSE6224:
	.text
	.cfi_endproc
	.section	.text.unlikely,"x"
	.cfi_startproc
	.cfi_personality 0,___gxx_personality_v0
	.cfi_lsda 0,LLSDAC6224
	.def	__ZN8Palmtree4Math4Core8InternalL18PMC_DivRem_X_X_ImpEPNS2_19__tag_NUMBER_HEADERES4_PS4_.cold.4;	.scl	3;	.type	32;	.endef
__ZN8Palmtree4Math4Core8InternalL18PMC_DivRem_X_X_ImpEPNS2_19__tag_NUMBER_HEADERES4_PS4_.cold.4:
L487:
	.cfi_def_cfa 5, 8
	.cfi_offset 3, -20
	.cfi_offset 5, -8
	.cfi_offset 6, -16
	.cfi_offset 7, -12
	movl	-48(%ebp), %ecx
	call	__ZN8Palmtree4Math4Core8Internal18ResourceHolderUINTD1Ev
	movl	%ebx, (%esp)
LEHB36:
	call	__Unwind_Resume
L489:
	movl	-48(%ebp), %ecx
	call	__ZN8Palmtree4Math4Core8Internal18ResourceHolderUINTD1Ev
	movl	%ebx, (%esp)
	call	__Unwind_Resume
L486:
	movl	-48(%ebp), %ecx
	call	__ZN8Palmtree4Math4Core8Internal18ResourceHolderUINTD1Ev
	movl	%ebx, (%esp)
	call	__Unwind_Resume
L488:
	movl	-48(%ebp), %ecx
	call	__ZN8Palmtree4Math4Core8Internal18ResourceHolderUINTD1Ev
	movl	%ebx, (%esp)
	call	__Unwind_Resume
LEHE36:
	.cfi_endproc
LFE6224:
	.section	.gcc_except_table,"w"
LLSDAC6224:
	.byte	0xff
	.byte	0xff
	.byte	0x1
	.uleb128 LLSDACSEC6224-LLSDACSBC6224
LLSDACSBC6224:
	.uleb128 LEHB36-LCOLDB8
	.uleb128 LEHE36-LEHB36
	.uleb128 0
	.uleb128 0
LLSDACSEC6224:
	.section	.text.unlikely,"x"
	.text
	.section	.text.unlikely,"x"
LCOLDE8:
	.text
LHOTE8:
	.section	.text.unlikely,"x"
LCOLDB9:
	.text
LHOTB9:
	.p2align 4,,15
	.globl	__ZN8Palmtree4Math4Core8Internal14PMC_DivRem_X_XEPNS2_21__tag_PMC_HANDLE_UINTES4_PS4_@12
	.def	__ZN8Palmtree4Math4Core8Internal14PMC_DivRem_X_XEPNS2_21__tag_PMC_HANDLE_UINTES4_PS4_@12;	.scl	2;	.type	32;	.endef
__ZN8Palmtree4Math4Core8Internal14PMC_DivRem_X_XEPNS2_21__tag_PMC_HANDLE_UINTES4_PS4_@12:
LFB6225:
	.cfi_startproc
	.cfi_personality 0,___gxx_personality_v0
	.cfi_lsda 0,LLSDA6225
	pushl	%ebp
	.cfi_def_cfa_offset 8
	.cfi_offset 5, -8
	movl	%esp, %ebp
	.cfi_def_cfa_register 5
	pushl	%edi
	pushl	%esi
	pushl	%ebx
	subl	$60, %esp
	.cfi_offset 7, -12
	.cfi_offset 6, -16
	.cfi_offset 3, -20
	movl	8(%ebp), %esi
	movl	12(%ebp), %ebx
	movl	16(%ebp), %edi
	testl	%esi, %esi
	je	L525
	testl	%ebx, %ebx
	je	L526
	movl	%esi, (%esp)
LEHB37:
	call	__ZN8Palmtree4Math4Core8Internal11CheckNumberEPNS2_19__tag_NUMBER_HEADERE
	movl	%ebx, (%esp)
	call	__ZN8Palmtree4Math4Core8Internal11CheckNumberEPNS2_19__tag_NUMBER_HEADERE
	testb	$1, 4(%ebx)
	jne	L527
	leal	-40(%ebp), %ecx
	call	__ZN8Palmtree4Math4Core8Internal18ResourceHolderUINTC1Ev
LEHE37:
	testl	%edi, %edi
	je	L517
	leal	-44(%ebp), %ecx
	movl	%ebx, %edx
	movl	%esi, %eax
LEHB38:
	call	__ZN8Palmtree4Math4Core8InternalL18PMC_DivRem_X_X_ImpEPNS2_19__tag_NUMBER_HEADERES4_PS4_
	movl	%eax, %ebx
	movl	-44(%ebp), %eax
	leal	-40(%ebp), %ecx
	movl	%eax, (%esp)
	call	__ZN8Palmtree4Math4Core8Internal18ResourceHolderUINT10HookNumberEPNS2_19__tag_NUMBER_HEADERE
	subl	$4, %esp
	leal	-40(%ebp), %ecx
	movl	%ebx, (%esp)
	call	__ZN8Palmtree4Math4Core8Internal18ResourceHolderUINT10HookNumberEPNS2_19__tag_NUMBER_HEADERE
	movl	-44(%ebp), %eax
	subl	$4, %esp
	leal	-40(%ebp), %ecx
	movl	%eax, (%esp)
	call	__ZN8Palmtree4Math4Core8Internal18ResourceHolderUINT12UnlinkNumberEPNS2_19__tag_NUMBER_HEADERE
	movl	-44(%ebp), %eax
	subl	$4, %esp
	leal	-40(%ebp), %ecx
	movl	%eax, (%edi)
	movl	%ebx, (%esp)
	call	__ZN8Palmtree4Math4Core8Internal18ResourceHolderUINT12UnlinkNumberEPNS2_19__tag_NUMBER_HEADERE
L523:
	subl	$4, %esp
	leal	-40(%ebp), %ecx
	call	__ZN8Palmtree4Math4Core8Internal18ResourceHolderUINTD1Ev
	leal	-12(%ebp), %esp
	movl	%ebx, %eax
	popl	%ebx
	.cfi_remember_state
	.cfi_restore 3
	popl	%esi
	.cfi_restore 6
	popl	%edi
	.cfi_restore 7
	popl	%ebp
	.cfi_restore 5
	.cfi_def_cfa 4, 4
	ret	$12
	.p2align 4,,10
L517:
	.cfi_restore_state
	xorl	%ecx, %ecx
	movl	%ebx, %edx
	movl	%esi, %eax
	call	__ZN8Palmtree4Math4Core8InternalL18PMC_DivRem_X_X_ImpEPNS2_19__tag_NUMBER_HEADERES4_PS4_
	movl	%eax, (%esp)
	leal	-40(%ebp), %ecx
	movl	%eax, %ebx
	call	__ZN8Palmtree4Math4Core8Internal18ResourceHolderUINT10HookNumberEPNS2_19__tag_NUMBER_HEADERE
	subl	$4, %esp
	leal	-40(%ebp), %ecx
	movl	%ebx, (%esp)
	call	__ZN8Palmtree4Math4Core8Internal18ResourceHolderUINT12UnlinkNumberEPNS2_19__tag_NUMBER_HEADERE
LEHE38:
	jmp	L523
L527:
	movl	$16, (%esp)
	call	___cxa_allocate_exception
	movl	$-5, 4(%eax)
	movl	$LC2, 8(%eax)
	movl	$0, 12(%eax)
	movl	$__ZTVN8Palmtree4Math4Core8Internal23DivisionByZeroExceptionE+8, (%eax)
	movl	$__ZN8Palmtree4Math4Core8Internal23DivisionByZeroExceptionD1Ev, 8(%esp)
	movl	$__ZTIN8Palmtree4Math4Core8Internal23DivisionByZeroExceptionE, 4(%esp)
	movl	%eax, (%esp)
LEHB39:
	call	___cxa_throw
L526:
	movl	$16, (%esp)
	call	___cxa_allocate_exception
	movl	$-2, 4(%eax)
	movl	$LC0, 8(%eax)
	movl	$LC1, 12(%eax)
L524:
	movl	$__ZTVN8Palmtree4Math4Core8Internal21ArgumentNullExceptionE+8, (%eax)
	movl	$__ZN8Palmtree4Math4Core8Internal21ArgumentNullExceptionD1Ev, 8(%esp)
	movl	$__ZTIN8Palmtree4Math4Core8Internal21ArgumentNullExceptionE, 4(%esp)
	movl	%eax, (%esp)
	call	___cxa_throw
LEHE39:
L525:
	movl	$16, (%esp)
	call	___cxa_allocate_exception
	movl	$-2, 4(%eax)
	movl	$LC0, 8(%eax)
	movl	$LC4, 12(%eax)
	jmp	L524
L520:
	movl	%eax, %ebx
	jmp	L519
	.section	.gcc_except_table,"w"
LLSDA6225:
	.byte	0xff
	.byte	0xff
	.byte	0x1
	.uleb128 LLSDACSE6225-LLSDACSB6225
LLSDACSB6225:
	.uleb128 LEHB37-LFB6225
	.uleb128 LEHE37-LEHB37
	.uleb128 0
	.uleb128 0
	.uleb128 LEHB38-LFB6225
	.uleb128 LEHE38-LEHB38
	.uleb128 L520-LFB6225
	.uleb128 0
	.uleb128 LEHB39-LFB6225
	.uleb128 LEHE39-LEHB39
	.uleb128 0
	.uleb128 0
LLSDACSE6225:
	.text
	.cfi_endproc
	.section	.text.unlikely,"x"
	.cfi_startproc
	.cfi_personality 0,___gxx_personality_v0
	.cfi_lsda 0,LLSDAC6225
	.def	__ZN8Palmtree4Math4Core8Internal14PMC_DivRem_X_XEPNS2_21__tag_PMC_HANDLE_UINTES4_PS4_@12.cold.5;	.scl	3;	.type	32;	.endef
__ZN8Palmtree4Math4Core8Internal14PMC_DivRem_X_XEPNS2_21__tag_PMC_HANDLE_UINTES4_PS4_@12.cold.5:
L519:
	.cfi_def_cfa 5, 8
	.cfi_offset 3, -20
	.cfi_offset 5, -8
	.cfi_offset 6, -16
	.cfi_offset 7, -12
	leal	-40(%ebp), %ecx
	call	__ZN8Palmtree4Math4Core8Internal18ResourceHolderUINTD1Ev
	movl	%ebx, (%esp)
LEHB40:
	call	__Unwind_Resume
LEHE40:
	.cfi_endproc
LFE6225:
	.section	.gcc_except_table,"w"
LLSDAC6225:
	.byte	0xff
	.byte	0xff
	.byte	0x1
	.uleb128 LLSDACSEC6225-LLSDACSBC6225
LLSDACSBC6225:
	.uleb128 LEHB40-LCOLDB9
	.uleb128 LEHE40-LEHB40
	.uleb128 0
	.uleb128 0
LLSDACSEC6225:
	.section	.text.unlikely,"x"
	.text
	.section	.text.unlikely,"x"
LCOLDE9:
	.text
LHOTE9:
	.globl	__ZTSSt9exception
	.section	.rdata$_ZTSSt9exception,"dr"
	.linkonce same_size
	.align 4
__ZTSSt9exception:
	.ascii "St9exception\0"
	.globl	__ZTISt9exception
	.section	.rdata$_ZTISt9exception,"dr"
	.linkonce same_size
	.align 4
__ZTISt9exception:
	.long	__ZTVN10__cxxabiv117__class_type_infoE+8
	.long	__ZTSSt9exception
	.globl	__ZTSN8Palmtree4Math4Core8Internal9ExceptionE
	.section	.rdata$_ZTSN8Palmtree4Math4Core8Internal9ExceptionE,"dr"
	.linkonce same_size
	.align 32
__ZTSN8Palmtree4Math4Core8Internal9ExceptionE:
	.ascii "N8Palmtree4Math4Core8Internal9ExceptionE\0"
	.globl	__ZTIN8Palmtree4Math4Core8Internal9ExceptionE
	.section	.rdata$_ZTIN8Palmtree4Math4Core8Internal9ExceptionE,"dr"
	.linkonce same_size
	.align 4
__ZTIN8Palmtree4Math4Core8Internal9ExceptionE:
	.long	__ZTVN10__cxxabiv121__vmi_class_type_infoE+8
	.long	__ZTSN8Palmtree4Math4Core8Internal9ExceptionE
	.long	0
	.long	1
	.long	__ZTISt9exception
	.long	0
	.globl	__ZTSN8Palmtree4Math4Core8Internal21ArgumentNullExceptionE
	.section	.rdata$_ZTSN8Palmtree4Math4Core8Internal21ArgumentNullExceptionE,"dr"
	.linkonce same_size
	.align 32
__ZTSN8Palmtree4Math4Core8Internal21ArgumentNullExceptionE:
	.ascii "N8Palmtree4Math4Core8Internal21ArgumentNullExceptionE\0"
	.globl	__ZTIN8Palmtree4Math4Core8Internal21ArgumentNullExceptionE
	.section	.rdata$_ZTIN8Palmtree4Math4Core8Internal21ArgumentNullExceptionE,"dr"
	.linkonce same_size
	.align 4
__ZTIN8Palmtree4Math4Core8Internal21ArgumentNullExceptionE:
	.long	__ZTVN10__cxxabiv120__si_class_type_infoE+8
	.long	__ZTSN8Palmtree4Math4Core8Internal21ArgumentNullExceptionE
	.long	__ZTIN8Palmtree4Math4Core8Internal9ExceptionE
	.globl	__ZTSN8Palmtree4Math4Core8Internal23DivisionByZeroExceptionE
	.section	.rdata$_ZTSN8Palmtree4Math4Core8Internal23DivisionByZeroExceptionE,"dr"
	.linkonce same_size
	.align 32
__ZTSN8Palmtree4Math4Core8Internal23DivisionByZeroExceptionE:
	.ascii "N8Palmtree4Math4Core8Internal23DivisionByZeroExceptionE\0"
	.globl	__ZTIN8Palmtree4Math4Core8Internal23DivisionByZeroExceptionE
	.section	.rdata$_ZTIN8Palmtree4Math4Core8Internal23DivisionByZeroExceptionE,"dr"
	.linkonce same_size
	.align 4
__ZTIN8Palmtree4Math4Core8Internal23DivisionByZeroExceptionE:
	.long	__ZTVN10__cxxabiv120__si_class_type_infoE+8
	.long	__ZTSN8Palmtree4Math4Core8Internal23DivisionByZeroExceptionE
	.long	__ZTIN8Palmtree4Math4Core8Internal9ExceptionE
	.globl	__ZTVN8Palmtree4Math4Core8Internal9ExceptionE
	.section	.rdata$_ZTVN8Palmtree4Math4Core8Internal9ExceptionE,"dr"
	.linkonce same_size
	.align 4
__ZTVN8Palmtree4Math4Core8Internal9ExceptionE:
	.long	0
	.long	__ZTIN8Palmtree4Math4Core8Internal9ExceptionE
	.long	__ZN8Palmtree4Math4Core8Internal9ExceptionD1Ev
	.long	__ZN8Palmtree4Math4Core8Internal9ExceptionD0Ev
	.long	__ZNKSt9exception4whatEv
	.globl	__ZTVN8Palmtree4Math4Core8Internal21ArgumentNullExceptionE
	.section	.rdata$_ZTVN8Palmtree4Math4Core8Internal21ArgumentNullExceptionE,"dr"
	.linkonce same_size
	.align 4
__ZTVN8Palmtree4Math4Core8Internal21ArgumentNullExceptionE:
	.long	0
	.long	__ZTIN8Palmtree4Math4Core8Internal21ArgumentNullExceptionE
	.long	__ZN8Palmtree4Math4Core8Internal21ArgumentNullExceptionD1Ev
	.long	__ZN8Palmtree4Math4Core8Internal21ArgumentNullExceptionD0Ev
	.long	__ZNKSt9exception4whatEv
	.globl	__ZTVN8Palmtree4Math4Core8Internal23DivisionByZeroExceptionE
	.section	.rdata$_ZTVN8Palmtree4Math4Core8Internal23DivisionByZeroExceptionE,"dr"
	.linkonce same_size
	.align 4
__ZTVN8Palmtree4Math4Core8Internal23DivisionByZeroExceptionE:
	.long	0
	.long	__ZTIN8Palmtree4Math4Core8Internal23DivisionByZeroExceptionE
	.long	__ZN8Palmtree4Math4Core8Internal23DivisionByZeroExceptionD1Ev
	.long	__ZN8Palmtree4Math4Core8Internal23DivisionByZeroExceptionD0Ev
	.long	__ZNKSt9exception4whatEv
.lcomm __ZN8Palmtree4Math4Core8InternalL13fp_DivRem_X_XE,4,4
	.ident	"GCC: (i686-win32-dwarf-rev0, Built by MinGW-W64 project) 8.1.0"
	.def	__ZNSt9exceptionD2Ev;	.scl	2;	.type	32;	.endef
	.def	__ZdlPvj;	.scl	2;	.type	32;	.endef
	.def	__ZN8Palmtree4Math4Core8Internal14RightShift_ImpEPjjjS3_i;	.scl	2;	.type	32;	.endef
	.def	__ZN8Palmtree4Math4Core8Internal13LeftShift_ImpEPjjjS3_i;	.scl	2;	.type	32;	.endef
	.def	__ZN8Palmtree4Math4Core8Internal11CheckNumberEPNS2_19__tag_NUMBER_HEADERE;	.scl	2;	.type	32;	.endef
	.def	___cxa_allocate_exception;	.scl	2;	.type	32;	.endef
	.def	___cxa_throw;	.scl	2;	.type	32;	.endef
	.def	__ZN8Palmtree4Math4Core8Internal18ResourceHolderUINTC1Ev;	.scl	2;	.type	32;	.endef
	.def	__ZN8Palmtree4Math4Core8Internal18ResourceHolderUINT14AllocateNumberEj;	.scl	2;	.type	32;	.endef
	.def	__ZN8Palmtree4Math4Core8Internal18ResourceHolderUINT11CheckNumberEPNS2_19__tag_NUMBER_HEADERE;	.scl	2;	.type	32;	.endef
	.def	__ZN8Palmtree4Math4Core8Internal12CommitNumberEPNS2_19__tag_NUMBER_HEADERE;	.scl	2;	.type	32;	.endef
	.def	__ZN8Palmtree4Math4Core8Internal18ResourceHolderUINT12UnlinkNumberEPNS2_19__tag_NUMBER_HEADERE;	.scl	2;	.type	32;	.endef
	.def	__ZN8Palmtree4Math4Core8Internal18ResourceHolderUINTD1Ev;	.scl	2;	.type	32;	.endef
	.def	__ZN8Palmtree4Math4Core8Internal18ResourceHolderUINT16DeallocateNumberEPNS2_19__tag_NUMBER_HEADERE;	.scl	2;	.type	32;	.endef
	.def	__ZN8Palmtree4Math4Core8Internal15DuplicateNumberEPNS2_19__tag_NUMBER_HEADERE;	.scl	2;	.type	32;	.endef
	.def	__Unwind_Resume;	.scl	2;	.type	32;	.endef
	.def	__ZN8Palmtree4Math4Core8Internal18ResourceHolderUINT10HookNumberEPNS2_19__tag_NUMBER_HEADERE;	.scl	2;	.type	32;	.endef
	.def	__ZN8Palmtree4Math4Core8Internal18ResourceHolderUINT13AllocateBlockEj;	.scl	2;	.type	32;	.endef
	.def	__ZN8Palmtree4Math4Core8Internal18ResourceHolderUINT10CheckBlockEPj;	.scl	2;	.type	32;	.endef
	.def	__ZN8Palmtree4Math4Core8Internal18ResourceHolderUINT15DeallocateBlockEPj;	.scl	2;	.type	32;	.endef
	.def	__ZNKSt9exception4whatEv;	.scl	2;	.type	32;	.endef
