	.file	"pmc_modpow.cpp"
	.text
	.section	.text$_ZN8Palmtree4Math4Core8Internal9ExceptionD1Ev,"x"
	.linkonce discard
	.align 2
	.p2align 4,,15
	.globl	__ZN8Palmtree4Math4Core8Internal9ExceptionD1Ev
	.def	__ZN8Palmtree4Math4Core8Internal9ExceptionD1Ev;	.scl	2;	.type	32;	.endef
__ZN8Palmtree4Math4Core8Internal9ExceptionD1Ev:
LFB617:
	.cfi_startproc
	movl	$__ZTVN8Palmtree4Math4Core8Internal9ExceptionE+8, (%ecx)
	jmp	__ZNSt9exceptionD2Ev
	.cfi_endproc
LFE617:
	.section	.text$_ZN8Palmtree4Math4Core8Internal9ExceptionD0Ev,"x"
	.linkonce discard
	.align 2
	.p2align 4,,15
	.globl	__ZN8Palmtree4Math4Core8Internal9ExceptionD0Ev
	.def	__ZN8Palmtree4Math4Core8Internal9ExceptionD0Ev;	.scl	2;	.type	32;	.endef
__ZN8Palmtree4Math4Core8Internal9ExceptionD0Ev:
LFB618:
	.cfi_startproc
	pushl	%ebx
	.cfi_def_cfa_offset 8
	.cfi_offset 3, -8
	movl	%ecx, %ebx
	subl	$24, %esp
	.cfi_def_cfa_offset 32
	movl	$__ZTVN8Palmtree4Math4Core8Internal9ExceptionE+8, (%ecx)
	call	__ZNSt9exceptionD2Ev
	movl	%ebx, (%esp)
	movl	$16, 4(%esp)
	call	__ZdlPvj
	addl	$24, %esp
	.cfi_def_cfa_offset 8
	popl	%ebx
	.cfi_restore 3
	.cfi_def_cfa_offset 4
	ret
	.cfi_endproc
LFE618:
	.section	.text$_ZN8Palmtree4Math4Core8Internal21ArgumentNullExceptionD1Ev,"x"
	.linkonce discard
	.align 2
	.p2align 4,,15
	.globl	__ZN8Palmtree4Math4Core8Internal21ArgumentNullExceptionD1Ev
	.def	__ZN8Palmtree4Math4Core8Internal21ArgumentNullExceptionD1Ev;	.scl	2;	.type	32;	.endef
__ZN8Palmtree4Math4Core8Internal21ArgumentNullExceptionD1Ev:
LFB640:
	.cfi_startproc
	movl	$__ZTVN8Palmtree4Math4Core8Internal9ExceptionE+8, (%ecx)
	jmp	__ZNSt9exceptionD2Ev
	.cfi_endproc
LFE640:
	.section	.text$_ZN8Palmtree4Math4Core8Internal21ArgumentNullExceptionD0Ev,"x"
	.linkonce discard
	.align 2
	.p2align 4,,15
	.globl	__ZN8Palmtree4Math4Core8Internal21ArgumentNullExceptionD0Ev
	.def	__ZN8Palmtree4Math4Core8Internal21ArgumentNullExceptionD0Ev;	.scl	2;	.type	32;	.endef
__ZN8Palmtree4Math4Core8Internal21ArgumentNullExceptionD0Ev:
LFB641:
	.cfi_startproc
	pushl	%ebx
	.cfi_def_cfa_offset 8
	.cfi_offset 3, -8
	movl	%ecx, %ebx
	subl	$24, %esp
	.cfi_def_cfa_offset 32
	movl	$__ZTVN8Palmtree4Math4Core8Internal9ExceptionE+8, (%ecx)
	call	__ZNSt9exceptionD2Ev
	movl	%ebx, (%esp)
	movl	$16, 4(%esp)
	call	__ZdlPvj
	addl	$24, %esp
	.cfi_def_cfa_offset 8
	popl	%ebx
	.cfi_restore 3
	.cfi_def_cfa_offset 4
	ret
	.cfi_endproc
LFE641:
	.section	.text$_ZN8Palmtree4Math4Core8Internal19ArithmeticExceptionD1Ev,"x"
	.linkonce discard
	.align 2
	.p2align 4,,15
	.globl	__ZN8Palmtree4Math4Core8Internal19ArithmeticExceptionD1Ev
	.def	__ZN8Palmtree4Math4Core8Internal19ArithmeticExceptionD1Ev;	.scl	2;	.type	32;	.endef
__ZN8Palmtree4Math4Core8Internal19ArithmeticExceptionD1Ev:
LFB680:
	.cfi_startproc
	movl	$__ZTVN8Palmtree4Math4Core8Internal9ExceptionE+8, (%ecx)
	jmp	__ZNSt9exceptionD2Ev
	.cfi_endproc
LFE680:
	.section	.text$_ZN8Palmtree4Math4Core8Internal19ArithmeticExceptionD0Ev,"x"
	.linkonce discard
	.align 2
	.p2align 4,,15
	.globl	__ZN8Palmtree4Math4Core8Internal19ArithmeticExceptionD0Ev
	.def	__ZN8Palmtree4Math4Core8Internal19ArithmeticExceptionD0Ev;	.scl	2;	.type	32;	.endef
__ZN8Palmtree4Math4Core8Internal19ArithmeticExceptionD0Ev:
LFB681:
	.cfi_startproc
	pushl	%ebx
	.cfi_def_cfa_offset 8
	.cfi_offset 3, -8
	movl	%ecx, %ebx
	subl	$24, %esp
	.cfi_def_cfa_offset 32
	movl	$__ZTVN8Palmtree4Math4Core8Internal9ExceptionE+8, (%ecx)
	call	__ZNSt9exceptionD2Ev
	movl	%ebx, (%esp)
	movl	$16, 4(%esp)
	call	__ZdlPvj
	addl	$24, %esp
	.cfi_def_cfa_offset 8
	popl	%ebx
	.cfi_restore 3
	.cfi_def_cfa_offset 4
	ret
	.cfi_endproc
LFE681:
	.section	.text$_ZN8Palmtree4Math4Core8Internal23DivisionByZeroExceptionD1Ev,"x"
	.linkonce discard
	.align 2
	.p2align 4,,15
	.globl	__ZN8Palmtree4Math4Core8Internal23DivisionByZeroExceptionD1Ev
	.def	__ZN8Palmtree4Math4Core8Internal23DivisionByZeroExceptionD1Ev;	.scl	2;	.type	32;	.endef
__ZN8Palmtree4Math4Core8Internal23DivisionByZeroExceptionD1Ev:
LFB670:
	.cfi_startproc
	movl	$__ZTVN8Palmtree4Math4Core8Internal9ExceptionE+8, (%ecx)
	jmp	__ZNSt9exceptionD2Ev
	.cfi_endproc
LFE670:
	.section	.text$_ZN8Palmtree4Math4Core8Internal23DivisionByZeroExceptionD0Ev,"x"
	.linkonce discard
	.align 2
	.p2align 4,,15
	.globl	__ZN8Palmtree4Math4Core8Internal23DivisionByZeroExceptionD0Ev
	.def	__ZN8Palmtree4Math4Core8Internal23DivisionByZeroExceptionD0Ev;	.scl	2;	.type	32;	.endef
__ZN8Palmtree4Math4Core8Internal23DivisionByZeroExceptionD0Ev:
LFB671:
	.cfi_startproc
	pushl	%ebx
	.cfi_def_cfa_offset 8
	.cfi_offset 3, -8
	movl	%ecx, %ebx
	subl	$24, %esp
	.cfi_def_cfa_offset 32
	movl	$__ZTVN8Palmtree4Math4Core8Internal9ExceptionE+8, (%ecx)
	call	__ZNSt9exceptionD2Ev
	movl	%ebx, (%esp)
	movl	$16, 4(%esp)
	call	__ZdlPvj
	addl	$24, %esp
	.cfi_def_cfa_offset 8
	popl	%ebx
	.cfi_restore 3
	.cfi_def_cfa_offset 4
	ret
	.cfi_endproc
LFE671:
	.text
	.p2align 4,,15
	.globl	__ZN8Palmtree4Math4Core8Internal16exception_filterEm
	.def	__ZN8Palmtree4Math4Core8Internal16exception_filterEm;	.scl	2;	.type	32;	.endef
__ZN8Palmtree4Math4Core8Internal16exception_filterEm:
LFB6183:
	.cfi_startproc
	xorl	%eax, %eax
	cmpl	$-1073741819, 4(%esp)
	sete	%al
	ret
	.cfi_endproc
LFE6183:
	.p2align 4,,15
	.globl	__ZN8Palmtree4Math4Core8Internal17Initialize_ModPowEPNS2_23_tag_PROCESSOR_FEATURESE
	.def	__ZN8Palmtree4Math4Core8Internal17Initialize_ModPowEPNS2_23_tag_PROCESSOR_FEATURESE;	.scl	2;	.type	32;	.endef
__ZN8Palmtree4Math4Core8Internal17Initialize_ModPowEPNS2_23_tag_PROCESSOR_FEATURESE:
LFB6190:
	.cfi_startproc
	xorl	%eax, %eax
	ret
	.cfi_endproc
LFE6190:
	.section .rdata,"dr"
	.align 4
LC0:
	.ascii "\25_pek0n\0u\0l\0l\0p\0t\0r\0L0\16NH0\211"
	.ascii "0\214"
	.ascii "0f0D0~0Y0\2"
	.ascii "0\0\0"
	.align 2
LC1:
	.ascii "v\0\0\0"
	.align 2
LC2:
	.ascii "e\0\0\0"
	.align 2
LC3:
	.ascii "m\0\0\0"
	.align 4
LC4:
	.ascii "0\0k0\210"
	.ascii "0\213"
	.ascii "0d\226\227{L0L\210\217"
	.ascii "0\214"
	.ascii "0\210"
	.ascii "0F0h0W0~0W0_0\2"
	.ascii "0\0\0"
	.align 2
LC5:
	.ascii "0\0n00\0WNn0$Po0*g\232[\251\177g0Y0\2"
	.ascii "0\0\0"
	.section	.text.unlikely,"x"
LCOLDB6:
	.text
LHOTB6:
	.p2align 4,,15
	.globl	__ZN8Palmtree4Math4Core8Internal16PMC_ModPow_X_X_XEPNS2_21__tag_PMC_HANDLE_UINTES4_S4_@12
	.def	__ZN8Palmtree4Math4Core8Internal16PMC_ModPow_X_X_XEPNS2_21__tag_PMC_HANDLE_UINTES4_S4_@12;	.scl	2;	.type	32;	.endef
__ZN8Palmtree4Math4Core8Internal16PMC_ModPow_X_X_XEPNS2_21__tag_PMC_HANDLE_UINTES4_S4_@12:
LFB6189:
	.cfi_startproc
	.cfi_personality 0,___gxx_personality_v0
	.cfi_lsda 0,LLSDA6189
	pushl	%ebp
	.cfi_def_cfa_offset 8
	.cfi_offset 5, -8
	movl	%esp, %ebp
	.cfi_def_cfa_register 5
	pushl	%edi
	pushl	%esi
	pushl	%ebx
	subl	$140, %esp
	.cfi_offset 7, -12
	.cfi_offset 6, -16
	.cfi_offset 3, -20
	movl	8(%ebp), %ebx
	movl	16(%ebp), %esi
	testl	%ebx, %ebx
	je	L103
	movl	12(%ebp), %eax
	testl	%eax, %eax
	je	L104
	testl	%esi, %esi
	je	L105
	movl	%ebx, (%esp)
LEHB0:
	call	__ZN8Palmtree4Math4Core8Internal11CheckNumberEPNS2_19__tag_NUMBER_HEADERE
	movl	12(%ebp), %eax
	movl	%eax, (%esp)
	call	__ZN8Palmtree4Math4Core8Internal11CheckNumberEPNS2_19__tag_NUMBER_HEADERE
	movl	%esi, (%esp)
	call	__ZN8Palmtree4Math4Core8Internal11CheckNumberEPNS2_19__tag_NUMBER_HEADERE
	leal	-72(%ebp), %ecx
	call	__ZN8Palmtree4Math4Core8Internal18ResourceHolderUINTC1Ev
LEHE0:
	movzbl	4(%esi), %eax
	testb	$1, %al
	jne	L106
	movzbl	4(%ebx), %edx
	movl	%edx, %ecx
	andl	$1, %ecx
	testb	$2, %al
	jne	L107
	testb	%cl, %cl
	je	L23
	movl	12(%ebp), %eax
	testb	$1, 4(%eax)
	jne	L108
L52:
	movl	$__ZN8Palmtree4Math4Core8Internal11number_zeroE, -76(%ebp)
L22:
	movl	-76(%ebp), %edi
	leal	-72(%ebp), %ecx
	movl	%edi, (%esp)
LEHB1:
	call	__ZN8Palmtree4Math4Core8Internal18ResourceHolderUINT10HookNumberEPNS2_19__tag_NUMBER_HEADERE
	subl	$4, %esp
	leal	-72(%ebp), %ecx
	movl	%edi, (%esp)
	call	__ZN8Palmtree4Math4Core8Internal18ResourceHolderUINT12UnlinkNumberEPNS2_19__tag_NUMBER_HEADERE
	subl	$4, %esp
	leal	-72(%ebp), %ecx
	call	__ZN8Palmtree4Math4Core8Internal18ResourceHolderUINTD1Ev
	movl	-76(%ebp), %eax
	leal	-12(%ebp), %esp
	popl	%ebx
	.cfi_remember_state
	.cfi_restore 3
	popl	%esi
	.cfi_restore 6
	popl	%edi
	.cfi_restore 7
	popl	%ebp
	.cfi_restore 5
	.cfi_def_cfa 4, 4
	ret	$12
	.p2align 4,,10
L107:
	.cfi_restore_state
	testb	%cl, %cl
	je	L52
	movl	12(%ebp), %eax
	testb	$1, 4(%eax)
	je	L52
	movl	$16, (%esp)
	call	___cxa_allocate_exception
	movl	$-6, 4(%eax)
	movl	$LC5, 8(%eax)
	movl	$0, 12(%eax)
	movl	$__ZTVN8Palmtree4Math4Core8Internal19ArithmeticExceptionE+8, (%eax)
	movl	$__ZN8Palmtree4Math4Core8Internal19ArithmeticExceptionD1Ev, 8(%esp)
	movl	$__ZTIN8Palmtree4Math4Core8Internal19ArithmeticExceptionE, 4(%esp)
	movl	%eax, (%esp)
	call	___cxa_throw
	.p2align 4,,10
L23:
	andl	$2, %edx
	jne	L54
	movl	12(%ebp), %eax
	movzbl	4(%eax), %eax
	testb	$1, %al
	jne	L54
	testb	$2, %al
	je	L24
	movl	20(%esi), %eax
	cmpl	%eax, 20(%ebx)
	jb	L109
	leal	-56(%ebp), %ecx
	call	__ZN8Palmtree4Math4Core8Internal18ResourceHolderUINTC1Ev
LEHE1:
	movl	20(%esi), %eax
	leal	-56(%ebp), %ecx
	movl	%eax, (%esp)
LEHB2:
	call	__ZN8Palmtree4Math4Core8Internal18ResourceHolderUINT13AllocateBlockEj
	movl	%eax, -80(%ebp)
	movl	20(%ebx), %eax
	subl	$4, %esp
	leal	-56(%ebp), %ecx
	addl	$32, %eax
	movl	%eax, (%esp)
	call	__ZN8Palmtree4Math4Core8Internal18ResourceHolderUINT14AllocateNumberEj
	movl	16(%ebx), %ecx
	movl	16(%esi), %edx
	movl	%eax, -76(%ebp)
	subl	$4, %esp
	movl	36(%eax), %edi
	movl	36(%ebx), %eax
	cmpl	%edx, %ecx
	jnb	L26
	movl	%eax, %esi
/APP
 # 1773 "C:/GNU/MINGW64/i686-8.1.0-win32-dwarf-rt_v6-rev0/mingw32/i686-w64-mingw32/include/psdk_inc/intrin-impl.h" 1
	rep movsd
 # 0 "" 2
/NO_APP
L27:
	movl	-80(%ebp), %eax
	leal	-56(%ebp), %ecx
	movl	%eax, (%esp)
	call	__ZN8Palmtree4Math4Core8Internal18ResourceHolderUINT15DeallocateBlockEPj
	movl	-76(%ebp), %esi
	subl	$4, %esp
	movl	%esi, (%esp)
	call	__ZN8Palmtree4Math4Core8Internal12CommitNumberEPNS2_19__tag_NUMBER_HEADERE
	movl	%esi, (%esp)
	leal	-56(%ebp), %ecx
	call	__ZN8Palmtree4Math4Core8Internal18ResourceHolderUINT12UnlinkNumberEPNS2_19__tag_NUMBER_HEADERE
LEHE2:
	subl	$4, %esp
	leal	-56(%ebp), %ecx
	call	__ZN8Palmtree4Math4Core8Internal18ResourceHolderUINTD1Ev
	jmp	L22
	.p2align 4,,10
L54:
	movl	$__ZN8Palmtree4Math4Core8Internal10number_oneE, -76(%ebp)
	jmp	L22
	.p2align 4,,10
L24:
	leal	-40(%ebp), %ecx
LEHB3:
	call	__ZN8Palmtree4Math4Core8Internal18ResourceHolderUINTC1Ev
LEHE3:
	movl	36(%esi), %eax
	movl	16(%ebx), %edx
	leal	-40(%ebp), %ecx
	movl	16(%esi), %edi
	movl	%eax, -112(%ebp)
	leal	1(%edx), %eax
	sall	$5, %eax
	movl	%eax, (%esp)
LEHB4:
	call	__ZN8Palmtree4Math4Core8Internal18ResourceHolderUINT13AllocateBlockEj
	movl	%eax, -108(%ebp)
	movl	%edi, %eax
	subl	$4, %esp
	leal	-40(%ebp), %ecx
	sall	$6, %eax
	movl	%edi, -84(%ebp)
	movl	%eax, %edi
	addl	$32, %edi
	movl	%edi, (%esp)
	call	__ZN8Palmtree4Math4Core8Internal18ResourceHolderUINT13AllocateBlockEj
	subl	$4, %esp
	leal	-40(%ebp), %ecx
	movl	%eax, -88(%ebp)
	movl	%edi, (%esp)
	call	__ZN8Palmtree4Math4Core8Internal18ResourceHolderUINT13AllocateBlockEj
	movl	-84(%ebp), %edi
	movl	%eax, -92(%ebp)
	subl	$4, %esp
	leal	-40(%ebp), %ecx
	movl	%edi, %eax
	sall	$5, %eax
	movl	%eax, (%esp)
	call	__ZN8Palmtree4Math4Core8Internal18ResourceHolderUINT13AllocateBlockEj
	movl	%eax, -104(%ebp)
	movl	20(%esi), %eax
	subl	$4, %esp
	leal	-40(%ebp), %ecx
	movl	%eax, (%esp)
	call	__ZN8Palmtree4Math4Core8Internal18ResourceHolderUINT14AllocateNumberEj
	movl	16(%ebx), %ecx
	subl	$4, %esp
	movl	36(%ebx), %esi
	movl	%eax, -76(%ebp)
	cmpl	%ecx, %edi
	jb	L30
	ja	L31
	movl	-112(%ebp), %eax
	movl	%ecx, 8(%esp)
	movl	%esi, (%esp)
	movl	%eax, 4(%esp)
	call	__ZN8Palmtree4Math4Core8Internal11Compare_ImpEPjS3_j
	testl	%eax, %eax
	je	L32
	movl	16(%ebx), %ecx
	movl	36(%ebx), %esi
	jg	L30
L31:
	movl	-108(%ebp), %edi
/APP
 # 1773 "C:/GNU/MINGW64/i686-8.1.0-win32-dwarf-rt_v6-rev0/mingw32/i686-w64-mingw32/include/psdk_inc/intrin-impl.h" 1
	rep movsd
 # 0 "" 2
/NO_APP
	movl	16(%ebx), %eax
	movl	%eax, -100(%ebp)
L33:
	movl	12(%ebp), %eax
	movl	16(%eax), %edx
	movl	36(%eax), %eax
	movl	-4(%eax,%edx,4), %eax
	movl	%edx, -96(%ebp)
	movl	%eax, -80(%ebp)
	testl	%eax, %eax
	je	L36
	movl	$31, %ecx
/APP
 # 462 "../pmc_inline_func.h" 1
	bsrl %eax, %eax
 # 0 "" 2
/NO_APP
	subl	%eax, %ecx
	movl	$-2147483648, %eax
	shrl	%cl, %eax
	movl	%eax, -80(%ebp)
L36:
	movl	-88(%ebp), %edx
	movl	-84(%ebp), %eax
	movl	-108(%ebp), %esi
	movl	%edx, %edi
	movl	%eax, %ecx
/APP
 # 1773 "C:/GNU/MINGW64/i686-8.1.0-win32-dwarf-rt_v6-rev0/mingw32/i686-w64-mingw32/include/psdk_inc/intrin-impl.h" 1
	rep movsd
 # 0 "" 2
/NO_APP
	movl	-96(%ebp), %ebx
	testl	%ebx, %ebx
	je	L56
	leal	-4(,%eax,4), %eax
	movl	-100(%ebp), %ebx
	movl	%edx, %esi
	movl	-92(%ebp), %edi
	movl	%eax, -116(%ebp)
	jmp	L49
	.p2align 4,,10
L43:
	movl	%edi, %eax
	movl	%esi, %edi
	movl	%eax, %esi
L49:
	shrl	-80(%ebp)
	jne	L38
	subl	$1, -96(%ebp)
	je	L37
	movl	$-2147483648, -80(%ebp)
L38:
	movl	%edi, (%esp)
	leal	-40(%ebp), %ecx
	call	__ZN8Palmtree4Math4Core8Internal18ResourceHolderUINT10ClearBlockEPj
	subl	$4, %esp
	movl	%edi, 16(%esp)
	movl	%ebx, 12(%esp)
	movl	%esi, 8(%esp)
	movl	%ebx, 4(%esp)
	movl	%esi, (%esp)
	call	__ZN8Palmtree4Math4Core8Internal16Multiply_X_X_ImpEPjjS3_jS3_
	movl	-88(%ebp), %eax
	leal	-40(%ebp), %ecx
	movl	%eax, (%esp)
	call	__ZN8Palmtree4Math4Core8Internal18ResourceHolderUINT10CheckBlockEPj
	movl	-92(%ebp), %eax
	subl	$4, %esp
	leal	-40(%ebp), %ecx
	movl	%eax, (%esp)
	call	__ZN8Palmtree4Math4Core8Internal18ResourceHolderUINT10CheckBlockEPj
	addl	%ebx, %ebx
	subl	$4, %esp
	leal	1073741823(%ebx), %eax
	cmpl	$1, (%edi,%eax,4)
	sbbl	$0, %ebx
	cmpl	%ebx, -84(%ebp)
	jbe	L110
L40:
	movl	12(%ebp), %eax
	movl	-96(%ebp), %edx
	movl	-80(%ebp), %ecx
	movl	36(%eax), %eax
	testl	%ecx, -4(%eax,%edx,4)
	je	L43
	movl	%esi, (%esp)
	leal	-40(%ebp), %ecx
	call	__ZN8Palmtree4Math4Core8Internal18ResourceHolderUINT10ClearBlockEPj
	movl	-100(%ebp), %eax
	movl	-108(%ebp), %edx
	subl	$4, %esp
	movl	%esi, 16(%esp)
	movl	%eax, 12(%esp)
	movl	%edx, 8(%esp)
	movl	%ebx, 4(%esp)
	movl	%edi, (%esp)
	call	__ZN8Palmtree4Math4Core8Internal16Multiply_X_X_ImpEPjjS3_jS3_
	movl	-88(%ebp), %edx
	leal	-40(%ebp), %ecx
	movl	%edx, (%esp)
	call	__ZN8Palmtree4Math4Core8Internal18ResourceHolderUINT10CheckBlockEPj
	movl	-92(%ebp), %edx
	subl	$4, %esp
	leal	-40(%ebp), %ecx
	movl	%edx, (%esp)
	call	__ZN8Palmtree4Math4Core8Internal18ResourceHolderUINT10CheckBlockEPj
LEHE4:
	addl	-100(%ebp), %ebx
	subl	$4, %esp
	leal	1073741823(%ebx), %eax
	cmpl	$1, (%esi,%eax,4)
	sbbl	$0, %ebx
	cmpl	%ebx, -84(%ebp)
	jbe	L111
	movl	%edi, %eax
	movl	%esi, %edi
	movl	%eax, %esi
	jmp	L43
	.p2align 4,,10
L109:
	movl	%ebx, (%esp)
LEHB5:
	call	__ZN8Palmtree4Math4Core8Internal15DuplicateNumberEPNS2_19__tag_NUMBER_HEADERE
LEHE5:
	movl	%eax, -76(%ebp)
	jmp	L22
	.p2align 4,,10
L30:
	movl	-108(%ebp), %ebx
	movl	-104(%ebp), %eax
	movl	%ecx, 4(%esp)
	movl	-84(%ebp), %edi
	movl	-112(%ebp), %edx
	movl	$0, 20(%esp)
	movl	%ebx, 24(%esp)
	movl	%eax, 16(%esp)
	movl	%edi, 12(%esp)
	movl	%edx, 8(%esp)
	movl	%esi, (%esp)
LEHB6:
	call	__ZN8Palmtree4Math4Core8Internal10DivRem_X_XEPjjS3_jS3_S3_S3_
	movl	-104(%ebp), %eax
	leal	-40(%ebp), %ecx
	movl	%eax, (%esp)
	call	__ZN8Palmtree4Math4Core8Internal18ResourceHolderUINT10CheckBlockEPj
	subl	$4, %esp
	leal	-40(%ebp), %ecx
	movl	%ebx, (%esp)
	call	__ZN8Palmtree4Math4Core8Internal18ResourceHolderUINT10CheckBlockEPj
	subl	$4, %esp
	testl	%edi, %edi
	je	L32
	movl	-4(%ebx,%edi,4), %eax
	movl	%ebx, %edx
	testl	%eax, %eax
	jne	L55
	movl	%edi, %eax
	movl	-76(%ebp), %esi
	jmp	L34
	.p2align 4,,10
L94:
	movl	-4(%edx,%eax,4), %edi
	testl	%edi, %edi
	jne	L98
L34:
	subl	$1, %eax
	jne	L94
	.p2align 4,,10
L32:
	movl	$__ZN8Palmtree4Math4Core8Internal11number_zeroE, -76(%ebp)
L47:
	leal	-40(%ebp), %ecx
	call	__ZN8Palmtree4Math4Core8Internal18ResourceHolderUINTD1Ev
	jmp	L22
	.p2align 4,,10
L110:
	movl	-104(%ebp), %eax
	leal	-40(%ebp), %ecx
	movl	%eax, (%esp)
	call	__ZN8Palmtree4Math4Core8Internal18ResourceHolderUINT10ClearBlockEPj
	subl	$4, %esp
	leal	-40(%ebp), %ecx
	movl	%esi, (%esp)
	call	__ZN8Palmtree4Math4Core8Internal18ResourceHolderUINT10ClearBlockEPj
	movl	-104(%ebp), %eax
	movl	-84(%ebp), %edx
	subl	$4, %esp
	movl	-112(%ebp), %ecx
	movl	%esi, 24(%esp)
	movl	$0, 20(%esp)
	movl	%eax, 16(%esp)
	movl	%edx, 12(%esp)
	movl	%ecx, 8(%esp)
	movl	%ebx, 4(%esp)
	movl	%edi, (%esp)
	call	__ZN8Palmtree4Math4Core8Internal10DivRem_X_XEPjjS3_jS3_S3_S3_
	movl	-104(%ebp), %eax
	leal	-40(%ebp), %ecx
	movl	%eax, (%esp)
	call	__ZN8Palmtree4Math4Core8Internal18ResourceHolderUINT10CheckBlockEPj
	movl	-88(%ebp), %eax
	subl	$4, %esp
	leal	-40(%ebp), %ecx
	movl	%eax, (%esp)
	call	__ZN8Palmtree4Math4Core8Internal18ResourceHolderUINT10CheckBlockEPj
	movl	-92(%ebp), %eax
	subl	$4, %esp
	leal	-40(%ebp), %ecx
	movl	%eax, (%esp)
	call	__ZN8Palmtree4Math4Core8Internal18ResourceHolderUINT10CheckBlockEPj
	movl	-84(%ebp), %ebx
	subl	$4, %esp
	testl	%ebx, %ebx
	je	L32
	movl	-116(%ebp), %eax
	movl	(%esi,%eax), %ecx
	testl	%ecx, %ecx
	jne	L57
	movl	-76(%ebp), %eax
	jmp	L41
	.p2align 4,,10
L95:
	movl	-4(%esi,%ebx,4), %edx
	testl	%edx, %edx
	jne	L58
L41:
	subl	$1, %ebx
	jne	L95
	jmp	L32
	.p2align 4,,10
L58:
	movl	%eax, -76(%ebp)
	movl	%edi, %eax
	movl	%esi, %edi
	movl	%eax, %esi
	jmp	L40
L56:
	movl	-100(%ebp), %ebx
	movl	-88(%ebp), %esi
	.p2align 4,,10
L37:
	movl	-76(%ebp), %eax
	movl	%ebx, %ecx
	movl	36(%eax), %edx
	movl	%edx, -80(%ebp)
	movl	%edx, %edi
/APP
 # 1773 "C:/GNU/MINGW64/i686-8.1.0-win32-dwarf-rt_v6-rev0/mingw32/i686-w64-mingw32/include/psdk_inc/intrin-impl.h" 1
	rep movsd
 # 0 "" 2
/NO_APP
	movl	%eax, (%esp)
	leal	-40(%ebp), %ecx
	movl	%eax, %esi
	call	__ZN8Palmtree4Math4Core8Internal18ResourceHolderUINT11CheckNumberEPNS2_19__tag_NUMBER_HEADERE
	subl	$4, %esp
	movl	%esi, (%esp)
	call	__ZN8Palmtree4Math4Core8Internal12CommitNumberEPNS2_19__tag_NUMBER_HEADERE
	movl	%esi, (%esp)
	leal	-40(%ebp), %ecx
	call	__ZN8Palmtree4Math4Core8Internal18ResourceHolderUINT12UnlinkNumberEPNS2_19__tag_NUMBER_HEADERE
	subl	$4, %esp
	jmp	L47
	.p2align 4,,10
L111:
	movl	-104(%ebp), %eax
	leal	-40(%ebp), %ecx
	movl	%eax, (%esp)
	call	__ZN8Palmtree4Math4Core8Internal18ResourceHolderUINT10ClearBlockEPj
	subl	$4, %esp
	leal	-40(%ebp), %ecx
	movl	%edi, (%esp)
	call	__ZN8Palmtree4Math4Core8Internal18ResourceHolderUINT10ClearBlockEPj
	movl	-104(%ebp), %eax
	movl	-84(%ebp), %edx
	subl	$4, %esp
	movl	-112(%ebp), %ecx
	movl	%edi, 24(%esp)
	movl	$0, 20(%esp)
	movl	%eax, 16(%esp)
	movl	%edx, 12(%esp)
	movl	%ecx, 8(%esp)
	movl	%ebx, 4(%esp)
	movl	%esi, (%esp)
	call	__ZN8Palmtree4Math4Core8Internal10DivRem_X_XEPjjS3_jS3_S3_S3_
	movl	-104(%ebp), %eax
	leal	-40(%ebp), %ecx
	movl	%eax, (%esp)
	call	__ZN8Palmtree4Math4Core8Internal18ResourceHolderUINT10CheckBlockEPj
	movl	-88(%ebp), %eax
	subl	$4, %esp
	leal	-40(%ebp), %ecx
	movl	%eax, (%esp)
	call	__ZN8Palmtree4Math4Core8Internal18ResourceHolderUINT10CheckBlockEPj
	movl	-92(%ebp), %eax
	subl	$4, %esp
	leal	-40(%ebp), %ecx
	movl	%eax, (%esp)
	call	__ZN8Palmtree4Math4Core8Internal18ResourceHolderUINT10CheckBlockEPj
LEHE6:
	movl	-84(%ebp), %ebx
	subl	$4, %esp
	testl	%ebx, %ebx
	je	L32
	movl	-116(%ebp), %eax
	movl	(%edi,%eax), %ecx
	testl	%ecx, %ecx
	jne	L60
	movl	-76(%ebp), %eax
	jmp	L45
	.p2align 4,,10
L96:
	movl	-4(%edi,%ebx,4), %edx
	testl	%edx, %edx
	jne	L99
L45:
	subl	$1, %ebx
	jne	L96
	jmp	L32
	.p2align 4,,10
L99:
	movl	%eax, -76(%ebp)
	jmp	L43
L26:
	movl	-80(%ebp), %ebx
	movl	%edi, 24(%esp)
	movl	$0, 20(%esp)
	movl	%ebx, 16(%esp)
	movl	%edx, 12(%esp)
	movl	36(%esi), %edx
	movl	%ecx, 4(%esp)
	movl	%edx, 8(%esp)
	movl	%eax, (%esp)
LEHB7:
	call	__ZN8Palmtree4Math4Core8Internal10DivRem_X_XEPjjS3_jS3_S3_S3_
	movl	%ebx, (%esp)
	leal	-56(%ebp), %ecx
	call	__ZN8Palmtree4Math4Core8Internal18ResourceHolderUINT10CheckBlockEPj
	movl	-76(%ebp), %eax
	subl	$4, %esp
	leal	-56(%ebp), %ecx
	movl	%eax, (%esp)
	call	__ZN8Palmtree4Math4Core8Internal18ResourceHolderUINT11CheckNumberEPNS2_19__tag_NUMBER_HEADERE
LEHE7:
	subl	$4, %esp
	jmp	L27
L98:
	movl	%eax, -100(%ebp)
	movl	%esi, -76(%ebp)
	jmp	L33
L57:
	movl	%edi, %eax
	movl	-84(%ebp), %ebx
	movl	%esi, %edi
	movl	%eax, %esi
	jmp	L40
L60:
	movl	-84(%ebp), %ebx
	jmp	L43
L55:
	movl	-84(%ebp), %eax
	movl	%eax, -100(%ebp)
	jmp	L33
L106:
	movl	$16, (%esp)
	call	___cxa_allocate_exception
	movl	$-5, 4(%eax)
	movl	$LC4, 8(%eax)
	movl	$0, 12(%eax)
	movl	$__ZTVN8Palmtree4Math4Core8Internal23DivisionByZeroExceptionE+8, (%eax)
	movl	$__ZN8Palmtree4Math4Core8Internal23DivisionByZeroExceptionD1Ev, 8(%esp)
	movl	$__ZTIN8Palmtree4Math4Core8Internal23DivisionByZeroExceptionE, 4(%esp)
	movl	%eax, (%esp)
LEHB8:
	call	___cxa_throw
LEHE8:
L105:
	movl	$16, (%esp)
	call	___cxa_allocate_exception
	movl	$-2, 4(%eax)
	movl	$LC0, 8(%eax)
	movl	$LC3, 12(%eax)
L102:
	movl	$__ZTVN8Palmtree4Math4Core8Internal21ArgumentNullExceptionE+8, (%eax)
	movl	$__ZN8Palmtree4Math4Core8Internal21ArgumentNullExceptionD1Ev, 8(%esp)
	movl	$__ZTIN8Palmtree4Math4Core8Internal21ArgumentNullExceptionE, 4(%esp)
	movl	%eax, (%esp)
LEHB9:
	call	___cxa_throw
LEHE9:
L104:
	movl	$16, (%esp)
	call	___cxa_allocate_exception
	movl	$-2, 4(%eax)
	movl	$LC0, 8(%eax)
	movl	$LC2, 12(%eax)
	jmp	L102
L103:
	movl	$16, (%esp)
	call	___cxa_allocate_exception
	movl	$-2, 4(%eax)
	movl	$LC0, 8(%eax)
	movl	$LC1, 12(%eax)
	jmp	L102
L108:
	movl	$16, (%esp)
	call	___cxa_allocate_exception
	movl	$-6, 4(%eax)
	movl	$LC5, 8(%eax)
	movl	$0, 12(%eax)
	movl	$__ZTVN8Palmtree4Math4Core8Internal19ArithmeticExceptionE+8, (%eax)
	movl	$__ZN8Palmtree4Math4Core8Internal19ArithmeticExceptionD1Ev, 8(%esp)
	movl	$__ZTIN8Palmtree4Math4Core8Internal19ArithmeticExceptionE, 4(%esp)
	movl	%eax, (%esp)
LEHB10:
	call	___cxa_throw
LEHE10:
L61:
	movl	%eax, %ebx
	jmp	L29
L63:
	movl	%eax, %ebx
	jmp	L48
L62:
	movl	%eax, %ebx
	jmp	L28
	.def	___gxx_personality_v0;	.scl	2;	.type	32;	.endef
	.section	.gcc_except_table,"w"
LLSDA6189:
	.byte	0xff
	.byte	0xff
	.byte	0x1
	.uleb128 LLSDACSE6189-LLSDACSB6189
LLSDACSB6189:
	.uleb128 LEHB0-LFB6189
	.uleb128 LEHE0-LEHB0
	.uleb128 0
	.uleb128 0
	.uleb128 LEHB1-LFB6189
	.uleb128 LEHE1-LEHB1
	.uleb128 L61-LFB6189
	.uleb128 0
	.uleb128 LEHB2-LFB6189
	.uleb128 LEHE2-LEHB2
	.uleb128 L62-LFB6189
	.uleb128 0
	.uleb128 LEHB3-LFB6189
	.uleb128 LEHE3-LEHB3
	.uleb128 L61-LFB6189
	.uleb128 0
	.uleb128 LEHB4-LFB6189
	.uleb128 LEHE4-LEHB4
	.uleb128 L63-LFB6189
	.uleb128 0
	.uleb128 LEHB5-LFB6189
	.uleb128 LEHE5-LEHB5
	.uleb128 L61-LFB6189
	.uleb128 0
	.uleb128 LEHB6-LFB6189
	.uleb128 LEHE6-LEHB6
	.uleb128 L63-LFB6189
	.uleb128 0
	.uleb128 LEHB7-LFB6189
	.uleb128 LEHE7-LEHB7
	.uleb128 L62-LFB6189
	.uleb128 0
	.uleb128 LEHB8-LFB6189
	.uleb128 LEHE8-LEHB8
	.uleb128 L61-LFB6189
	.uleb128 0
	.uleb128 LEHB9-LFB6189
	.uleb128 LEHE9-LEHB9
	.uleb128 0
	.uleb128 0
	.uleb128 LEHB10-LFB6189
	.uleb128 LEHE10-LEHB10
	.uleb128 L61-LFB6189
	.uleb128 0
LLSDACSE6189:
	.text
	.cfi_endproc
	.section	.text.unlikely,"x"
	.cfi_startproc
	.cfi_personality 0,___gxx_personality_v0
	.cfi_lsda 0,LLSDAC6189
	.def	__ZN8Palmtree4Math4Core8Internal16PMC_ModPow_X_X_XEPNS2_21__tag_PMC_HANDLE_UINTES4_S4_@12.cold.1;	.scl	3;	.type	32;	.endef
__ZN8Palmtree4Math4Core8Internal16PMC_ModPow_X_X_XEPNS2_21__tag_PMC_HANDLE_UINTES4_S4_@12.cold.1:
L28:
	.cfi_def_cfa 5, 8
	.cfi_offset 3, -20
	.cfi_offset 5, -8
	.cfi_offset 6, -16
	.cfi_offset 7, -12
	leal	-56(%ebp), %ecx
	call	__ZN8Palmtree4Math4Core8Internal18ResourceHolderUINTD1Ev
L29:
	leal	-72(%ebp), %ecx
	call	__ZN8Palmtree4Math4Core8Internal18ResourceHolderUINTD1Ev
	movl	%ebx, (%esp)
LEHB11:
	call	__Unwind_Resume
LEHE11:
L48:
	leal	-40(%ebp), %ecx
	call	__ZN8Palmtree4Math4Core8Internal18ResourceHolderUINTD1Ev
	jmp	L29
	.cfi_endproc
LFE6189:
	.section	.gcc_except_table,"w"
LLSDAC6189:
	.byte	0xff
	.byte	0xff
	.byte	0x1
	.uleb128 LLSDACSEC6189-LLSDACSBC6189
LLSDACSBC6189:
	.uleb128 LEHB11-LCOLDB6
	.uleb128 LEHE11-LEHB11
	.uleb128 0
	.uleb128 0
LLSDACSEC6189:
	.section	.text.unlikely,"x"
	.text
	.section	.text.unlikely,"x"
LCOLDE6:
	.text
LHOTE6:
	.globl	__ZTSSt9exception
	.section	.rdata$_ZTSSt9exception,"dr"
	.linkonce same_size
	.align 4
__ZTSSt9exception:
	.ascii "St9exception\0"
	.globl	__ZTISt9exception
	.section	.rdata$_ZTISt9exception,"dr"
	.linkonce same_size
	.align 4
__ZTISt9exception:
	.long	__ZTVN10__cxxabiv117__class_type_infoE+8
	.long	__ZTSSt9exception
	.globl	__ZTSN8Palmtree4Math4Core8Internal9ExceptionE
	.section	.rdata$_ZTSN8Palmtree4Math4Core8Internal9ExceptionE,"dr"
	.linkonce same_size
	.align 32
__ZTSN8Palmtree4Math4Core8Internal9ExceptionE:
	.ascii "N8Palmtree4Math4Core8Internal9ExceptionE\0"
	.globl	__ZTIN8Palmtree4Math4Core8Internal9ExceptionE
	.section	.rdata$_ZTIN8Palmtree4Math4Core8Internal9ExceptionE,"dr"
	.linkonce same_size
	.align 4
__ZTIN8Palmtree4Math4Core8Internal9ExceptionE:
	.long	__ZTVN10__cxxabiv121__vmi_class_type_infoE+8
	.long	__ZTSN8Palmtree4Math4Core8Internal9ExceptionE
	.long	0
	.long	1
	.long	__ZTISt9exception
	.long	0
	.globl	__ZTSN8Palmtree4Math4Core8Internal21ArgumentNullExceptionE
	.section	.rdata$_ZTSN8Palmtree4Math4Core8Internal21ArgumentNullExceptionE,"dr"
	.linkonce same_size
	.align 32
__ZTSN8Palmtree4Math4Core8Internal21ArgumentNullExceptionE:
	.ascii "N8Palmtree4Math4Core8Internal21ArgumentNullExceptionE\0"
	.globl	__ZTIN8Palmtree4Math4Core8Internal21ArgumentNullExceptionE
	.section	.rdata$_ZTIN8Palmtree4Math4Core8Internal21ArgumentNullExceptionE,"dr"
	.linkonce same_size
	.align 4
__ZTIN8Palmtree4Math4Core8Internal21ArgumentNullExceptionE:
	.long	__ZTVN10__cxxabiv120__si_class_type_infoE+8
	.long	__ZTSN8Palmtree4Math4Core8Internal21ArgumentNullExceptionE
	.long	__ZTIN8Palmtree4Math4Core8Internal9ExceptionE
	.globl	__ZTSN8Palmtree4Math4Core8Internal23DivisionByZeroExceptionE
	.section	.rdata$_ZTSN8Palmtree4Math4Core8Internal23DivisionByZeroExceptionE,"dr"
	.linkonce same_size
	.align 32
__ZTSN8Palmtree4Math4Core8Internal23DivisionByZeroExceptionE:
	.ascii "N8Palmtree4Math4Core8Internal23DivisionByZeroExceptionE\0"
	.globl	__ZTIN8Palmtree4Math4Core8Internal23DivisionByZeroExceptionE
	.section	.rdata$_ZTIN8Palmtree4Math4Core8Internal23DivisionByZeroExceptionE,"dr"
	.linkonce same_size
	.align 4
__ZTIN8Palmtree4Math4Core8Internal23DivisionByZeroExceptionE:
	.long	__ZTVN10__cxxabiv120__si_class_type_infoE+8
	.long	__ZTSN8Palmtree4Math4Core8Internal23DivisionByZeroExceptionE
	.long	__ZTIN8Palmtree4Math4Core8Internal9ExceptionE
	.globl	__ZTSN8Palmtree4Math4Core8Internal19ArithmeticExceptionE
	.section	.rdata$_ZTSN8Palmtree4Math4Core8Internal19ArithmeticExceptionE,"dr"
	.linkonce same_size
	.align 32
__ZTSN8Palmtree4Math4Core8Internal19ArithmeticExceptionE:
	.ascii "N8Palmtree4Math4Core8Internal19ArithmeticExceptionE\0"
	.globl	__ZTIN8Palmtree4Math4Core8Internal19ArithmeticExceptionE
	.section	.rdata$_ZTIN8Palmtree4Math4Core8Internal19ArithmeticExceptionE,"dr"
	.linkonce same_size
	.align 4
__ZTIN8Palmtree4Math4Core8Internal19ArithmeticExceptionE:
	.long	__ZTVN10__cxxabiv120__si_class_type_infoE+8
	.long	__ZTSN8Palmtree4Math4Core8Internal19ArithmeticExceptionE
	.long	__ZTIN8Palmtree4Math4Core8Internal9ExceptionE
	.globl	__ZTVN8Palmtree4Math4Core8Internal9ExceptionE
	.section	.rdata$_ZTVN8Palmtree4Math4Core8Internal9ExceptionE,"dr"
	.linkonce same_size
	.align 4
__ZTVN8Palmtree4Math4Core8Internal9ExceptionE:
	.long	0
	.long	__ZTIN8Palmtree4Math4Core8Internal9ExceptionE
	.long	__ZN8Palmtree4Math4Core8Internal9ExceptionD1Ev
	.long	__ZN8Palmtree4Math4Core8Internal9ExceptionD0Ev
	.long	__ZNKSt9exception4whatEv
	.globl	__ZTVN8Palmtree4Math4Core8Internal21ArgumentNullExceptionE
	.section	.rdata$_ZTVN8Palmtree4Math4Core8Internal21ArgumentNullExceptionE,"dr"
	.linkonce same_size
	.align 4
__ZTVN8Palmtree4Math4Core8Internal21ArgumentNullExceptionE:
	.long	0
	.long	__ZTIN8Palmtree4Math4Core8Internal21ArgumentNullExceptionE
	.long	__ZN8Palmtree4Math4Core8Internal21ArgumentNullExceptionD1Ev
	.long	__ZN8Palmtree4Math4Core8Internal21ArgumentNullExceptionD0Ev
	.long	__ZNKSt9exception4whatEv
	.globl	__ZTVN8Palmtree4Math4Core8Internal23DivisionByZeroExceptionE
	.section	.rdata$_ZTVN8Palmtree4Math4Core8Internal23DivisionByZeroExceptionE,"dr"
	.linkonce same_size
	.align 4
__ZTVN8Palmtree4Math4Core8Internal23DivisionByZeroExceptionE:
	.long	0
	.long	__ZTIN8Palmtree4Math4Core8Internal23DivisionByZeroExceptionE
	.long	__ZN8Palmtree4Math4Core8Internal23DivisionByZeroExceptionD1Ev
	.long	__ZN8Palmtree4Math4Core8Internal23DivisionByZeroExceptionD0Ev
	.long	__ZNKSt9exception4whatEv
	.globl	__ZTVN8Palmtree4Math4Core8Internal19ArithmeticExceptionE
	.section	.rdata$_ZTVN8Palmtree4Math4Core8Internal19ArithmeticExceptionE,"dr"
	.linkonce same_size
	.align 4
__ZTVN8Palmtree4Math4Core8Internal19ArithmeticExceptionE:
	.long	0
	.long	__ZTIN8Palmtree4Math4Core8Internal19ArithmeticExceptionE
	.long	__ZN8Palmtree4Math4Core8Internal19ArithmeticExceptionD1Ev
	.long	__ZN8Palmtree4Math4Core8Internal19ArithmeticExceptionD0Ev
	.long	__ZNKSt9exception4whatEv
	.ident	"GCC: (i686-win32-dwarf-rev0, Built by MinGW-W64 project) 8.1.0"
	.def	__ZNSt9exceptionD2Ev;	.scl	2;	.type	32;	.endef
	.def	__ZdlPvj;	.scl	2;	.type	32;	.endef
	.def	__ZN8Palmtree4Math4Core8Internal11CheckNumberEPNS2_19__tag_NUMBER_HEADERE;	.scl	2;	.type	32;	.endef
	.def	__ZN8Palmtree4Math4Core8Internal18ResourceHolderUINTC1Ev;	.scl	2;	.type	32;	.endef
	.def	__ZN8Palmtree4Math4Core8Internal18ResourceHolderUINT10HookNumberEPNS2_19__tag_NUMBER_HEADERE;	.scl	2;	.type	32;	.endef
	.def	__ZN8Palmtree4Math4Core8Internal18ResourceHolderUINT12UnlinkNumberEPNS2_19__tag_NUMBER_HEADERE;	.scl	2;	.type	32;	.endef
	.def	__ZN8Palmtree4Math4Core8Internal18ResourceHolderUINTD1Ev;	.scl	2;	.type	32;	.endef
	.def	___cxa_allocate_exception;	.scl	2;	.type	32;	.endef
	.def	___cxa_throw;	.scl	2;	.type	32;	.endef
	.def	__ZN8Palmtree4Math4Core8Internal18ResourceHolderUINT13AllocateBlockEj;	.scl	2;	.type	32;	.endef
	.def	__ZN8Palmtree4Math4Core8Internal18ResourceHolderUINT14AllocateNumberEj;	.scl	2;	.type	32;	.endef
	.def	__ZN8Palmtree4Math4Core8Internal18ResourceHolderUINT15DeallocateBlockEPj;	.scl	2;	.type	32;	.endef
	.def	__ZN8Palmtree4Math4Core8Internal12CommitNumberEPNS2_19__tag_NUMBER_HEADERE;	.scl	2;	.type	32;	.endef
	.def	__ZN8Palmtree4Math4Core8Internal11Compare_ImpEPjS3_j;	.scl	2;	.type	32;	.endef
	.def	__ZN8Palmtree4Math4Core8Internal18ResourceHolderUINT10ClearBlockEPj;	.scl	2;	.type	32;	.endef
	.def	__ZN8Palmtree4Math4Core8Internal16Multiply_X_X_ImpEPjjS3_jS3_;	.scl	2;	.type	32;	.endef
	.def	__ZN8Palmtree4Math4Core8Internal18ResourceHolderUINT10CheckBlockEPj;	.scl	2;	.type	32;	.endef
	.def	__ZN8Palmtree4Math4Core8Internal15DuplicateNumberEPNS2_19__tag_NUMBER_HEADERE;	.scl	2;	.type	32;	.endef
	.def	__ZN8Palmtree4Math4Core8Internal10DivRem_X_XEPjjS3_jS3_S3_S3_;	.scl	2;	.type	32;	.endef
	.def	__ZN8Palmtree4Math4Core8Internal18ResourceHolderUINT11CheckNumberEPNS2_19__tag_NUMBER_HEADERE;	.scl	2;	.type	32;	.endef
	.def	__Unwind_Resume;	.scl	2;	.type	32;	.endef
	.def	__ZNKSt9exception4whatEv;	.scl	2;	.type	32;	.endef
