	.file	"pmc_greatestcommondivisor.cpp"
	.text
	.section	.text$_ZN8Palmtree4Math4Core8Internal9ExceptionD1Ev,"x"
	.linkonce discard
	.align 2
	.p2align 4,,15
	.globl	__ZN8Palmtree4Math4Core8Internal9ExceptionD1Ev
	.def	__ZN8Palmtree4Math4Core8Internal9ExceptionD1Ev;	.scl	2;	.type	32;	.endef
__ZN8Palmtree4Math4Core8Internal9ExceptionD1Ev:
LFB617:
	.cfi_startproc
	movl	$__ZTVN8Palmtree4Math4Core8Internal9ExceptionE+8, (%ecx)
	jmp	__ZNSt9exceptionD2Ev
	.cfi_endproc
LFE617:
	.section	.text$_ZN8Palmtree4Math4Core8Internal9ExceptionD0Ev,"x"
	.linkonce discard
	.align 2
	.p2align 4,,15
	.globl	__ZN8Palmtree4Math4Core8Internal9ExceptionD0Ev
	.def	__ZN8Palmtree4Math4Core8Internal9ExceptionD0Ev;	.scl	2;	.type	32;	.endef
__ZN8Palmtree4Math4Core8Internal9ExceptionD0Ev:
LFB618:
	.cfi_startproc
	pushl	%ebx
	.cfi_def_cfa_offset 8
	.cfi_offset 3, -8
	movl	%ecx, %ebx
	subl	$24, %esp
	.cfi_def_cfa_offset 32
	movl	$__ZTVN8Palmtree4Math4Core8Internal9ExceptionE+8, (%ecx)
	call	__ZNSt9exceptionD2Ev
	movl	%ebx, (%esp)
	movl	$16, 4(%esp)
	call	__ZdlPvj
	addl	$24, %esp
	.cfi_def_cfa_offset 8
	popl	%ebx
	.cfi_restore 3
	.cfi_def_cfa_offset 4
	ret
	.cfi_endproc
LFE618:
	.section	.text$_ZN8Palmtree4Math4Core8Internal21ArgumentNullExceptionD1Ev,"x"
	.linkonce discard
	.align 2
	.p2align 4,,15
	.globl	__ZN8Palmtree4Math4Core8Internal21ArgumentNullExceptionD1Ev
	.def	__ZN8Palmtree4Math4Core8Internal21ArgumentNullExceptionD1Ev;	.scl	2;	.type	32;	.endef
__ZN8Palmtree4Math4Core8Internal21ArgumentNullExceptionD1Ev:
LFB640:
	.cfi_startproc
	movl	$__ZTVN8Palmtree4Math4Core8Internal9ExceptionE+8, (%ecx)
	jmp	__ZNSt9exceptionD2Ev
	.cfi_endproc
LFE640:
	.section	.text$_ZN8Palmtree4Math4Core8Internal21ArgumentNullExceptionD0Ev,"x"
	.linkonce discard
	.align 2
	.p2align 4,,15
	.globl	__ZN8Palmtree4Math4Core8Internal21ArgumentNullExceptionD0Ev
	.def	__ZN8Palmtree4Math4Core8Internal21ArgumentNullExceptionD0Ev;	.scl	2;	.type	32;	.endef
__ZN8Palmtree4Math4Core8Internal21ArgumentNullExceptionD0Ev:
LFB641:
	.cfi_startproc
	pushl	%ebx
	.cfi_def_cfa_offset 8
	.cfi_offset 3, -8
	movl	%ecx, %ebx
	subl	$24, %esp
	.cfi_def_cfa_offset 32
	movl	$__ZTVN8Palmtree4Math4Core8Internal9ExceptionE+8, (%ecx)
	call	__ZNSt9exceptionD2Ev
	movl	%ebx, (%esp)
	movl	$16, 4(%esp)
	call	__ZdlPvj
	addl	$24, %esp
	.cfi_def_cfa_offset 8
	popl	%ebx
	.cfi_restore 3
	.cfi_def_cfa_offset 4
	ret
	.cfi_endproc
LFE641:
	.section	.text$_ZN8Palmtree4Math4Core8Internal19ArithmeticExceptionD1Ev,"x"
	.linkonce discard
	.align 2
	.p2align 4,,15
	.globl	__ZN8Palmtree4Math4Core8Internal19ArithmeticExceptionD1Ev
	.def	__ZN8Palmtree4Math4Core8Internal19ArithmeticExceptionD1Ev;	.scl	2;	.type	32;	.endef
__ZN8Palmtree4Math4Core8Internal19ArithmeticExceptionD1Ev:
LFB680:
	.cfi_startproc
	movl	$__ZTVN8Palmtree4Math4Core8Internal9ExceptionE+8, (%ecx)
	jmp	__ZNSt9exceptionD2Ev
	.cfi_endproc
LFE680:
	.section	.text$_ZN8Palmtree4Math4Core8Internal19ArithmeticExceptionD0Ev,"x"
	.linkonce discard
	.align 2
	.p2align 4,,15
	.globl	__ZN8Palmtree4Math4Core8Internal19ArithmeticExceptionD0Ev
	.def	__ZN8Palmtree4Math4Core8Internal19ArithmeticExceptionD0Ev;	.scl	2;	.type	32;	.endef
__ZN8Palmtree4Math4Core8Internal19ArithmeticExceptionD0Ev:
LFB681:
	.cfi_startproc
	pushl	%ebx
	.cfi_def_cfa_offset 8
	.cfi_offset 3, -8
	movl	%ecx, %ebx
	subl	$24, %esp
	.cfi_def_cfa_offset 32
	movl	$__ZTVN8Palmtree4Math4Core8Internal9ExceptionE+8, (%ecx)
	call	__ZNSt9exceptionD2Ev
	movl	%ebx, (%esp)
	movl	$16, 4(%esp)
	call	__ZdlPvj
	addl	$24, %esp
	.cfi_def_cfa_offset 8
	popl	%ebx
	.cfi_restore 3
	.cfi_def_cfa_offset 4
	ret
	.cfi_endproc
LFE681:
	.section	.text$_ZN8Palmtree4Math4Core8Internal22InternalErrorExceptionD1Ev,"x"
	.linkonce discard
	.align 2
	.p2align 4,,15
	.globl	__ZN8Palmtree4Math4Core8Internal22InternalErrorExceptionD1Ev
	.def	__ZN8Palmtree4Math4Core8Internal22InternalErrorExceptionD1Ev;	.scl	2;	.type	32;	.endef
__ZN8Palmtree4Math4Core8Internal22InternalErrorExceptionD1Ev:
LFB730:
	.cfi_startproc
	movl	$__ZTVN8Palmtree4Math4Core8Internal9ExceptionE+8, (%ecx)
	jmp	__ZNSt9exceptionD2Ev
	.cfi_endproc
LFE730:
	.section	.text$_ZN8Palmtree4Math4Core8Internal22InternalErrorExceptionD0Ev,"x"
	.linkonce discard
	.align 2
	.p2align 4,,15
	.globl	__ZN8Palmtree4Math4Core8Internal22InternalErrorExceptionD0Ev
	.def	__ZN8Palmtree4Math4Core8Internal22InternalErrorExceptionD0Ev;	.scl	2;	.type	32;	.endef
__ZN8Palmtree4Math4Core8Internal22InternalErrorExceptionD0Ev:
LFB731:
	.cfi_startproc
	pushl	%ebx
	.cfi_def_cfa_offset 8
	.cfi_offset 3, -8
	movl	%ecx, %ebx
	subl	$24, %esp
	.cfi_def_cfa_offset 32
	movl	$__ZTVN8Palmtree4Math4Core8Internal9ExceptionE+8, (%ecx)
	call	__ZNSt9exceptionD2Ev
	movl	%ebx, (%esp)
	movl	$16, 4(%esp)
	call	__ZdlPvj
	addl	$24, %esp
	.cfi_def_cfa_offset 8
	popl	%ebx
	.cfi_restore 3
	.cfi_def_cfa_offset 4
	ret
	.cfi_endproc
LFE731:
	.section .rdata,"dr"
	.align 4
LC0:
	.ascii "\210N\37gW0f0D0j0D0\263"
	.ascii "0\374"
	.ascii "0\311"
	.ascii "0k00RT\220W0~0W0_0\2"
	.ascii "0\0\0"
	.align 4
LC1:
	.ascii "p\0m\0c\0_\0g\0r\0e\0a\0t\0e\0s\0t\0c\0o\0m\0m\0o\0n\0d\0i\0v\0i\0s\0o\0r\0.\0c\0p\0p\0;\0G\0r\0e\0a\0t\0e\0s\0t\0C\0o\0m\0m\0o\0n\0D\0i\0v\0i\0s\0o\0r\0_\0I\0m\0p\0;\0"
	.ascii "1\0\0\0"
	.text
	.p2align 4,,15
	.def	__ZN8Palmtree4Math4Core8InternalL25GreatestCommonDivisor_ImpEPjS3_jS3_S3_;	.scl	3;	.type	32;	.endef
__ZN8Palmtree4Math4Core8InternalL25GreatestCommonDivisor_ImpEPjS3_jS3_S3_:
LFB6200:
	.cfi_startproc
	pushl	%ebp
	.cfi_def_cfa_offset 8
	.cfi_offset 5, -8
	pushl	%edi
	.cfi_def_cfa_offset 12
	.cfi_offset 7, -12
	pushl	%esi
	.cfi_def_cfa_offset 16
	.cfi_offset 6, -16
	pushl	%ebx
	.cfi_def_cfa_offset 20
	.cfi_offset 3, -20
	subl	$44, %esp
	.cfi_def_cfa_offset 64
	testl	%ecx, %ecx
	je	L15
	movl	%eax, %esi
	movl	%edx, %edi
	movl	%ecx, %ebx
L33:
	leal	1073741823(%ebx), %ebp
	.p2align 4,,10
L16:
	movl	(%esi,%ebp,4), %edx
	testl	%edx, %edx
	jne	L17
	movl	(%edi,%ebp,4), %eax
	testl	%eax, %eax
	jne	L17
	subl	$1, %ebx
	jne	L33
L15:
	movl	$16, (%esp)
	call	___cxa_allocate_exception
	movl	$-256, 4(%eax)
	movl	$LC0, 8(%eax)
	movl	$LC1, 12(%eax)
	movl	$__ZTVN8Palmtree4Math4Core8Internal22InternalErrorExceptionE+8, (%eax)
	movl	$__ZN8Palmtree4Math4Core8Internal22InternalErrorExceptionD1Ev, 8(%esp)
	movl	$__ZTIN8Palmtree4Math4Core8Internal22InternalErrorExceptionE, 4(%esp)
	movl	%eax, (%esp)
	call	___cxa_throw
	.p2align 4,,10
L17:
	movl	%ebx, 8(%esp)
	movl	%edi, 4(%esp)
	movl	%esi, (%esp)
	call	__ZN8Palmtree4Math4Core8Internal11Compare_ImpEPjS3_j
	testl	%eax, %eax
	je	L34
	jns	L20
	movl	%esi, %eax
	movl	%edi, %esi
	movl	%eax, %edi
L20:
	movl	%ebx, 20(%esp)
	movl	%esi, 16(%esp)
	movl	%ebx, 12(%esp)
	movl	%edi, 8(%esp)
	movl	%ebx, 4(%esp)
	movl	%esi, (%esp)
	call	__ZN8Palmtree4Math4Core8Internal12Subtruct_ImpEPjjS3_jS3_j
	movl	(%esi), %edx
	testl	%edx, %edx
	jne	L24
	movl	%esi, %eax
	xorl	%ecx, %ecx
	.p2align 4,,10
L22:
	addl	$4, %eax
	movl	(%eax), %edx
	addl	$32, %ecx
	testl	%edx, %edx
	je	L22
L21:
/APP
 # 513 "../pmc_inline_func.h" 1
	bsfl %edx, %edx
 # 0 "" 2
/NO_APP
	addl	%ecx, %edx
	testl	%edx, %edx
	jle	L16
	movl	$1, 16(%esp)
	movl	%esi, 12(%esp)
	movl	%edx, 8(%esp)
	movl	%ebx, 4(%esp)
	movl	%esi, (%esp)
	call	__ZN8Palmtree4Math4Core8Internal14RightShift_ImpEPjjjS3_i
	jmp	L16
	.p2align 4,,10
L24:
	xorl	%ecx, %ecx
	jmp	L21
L34:
	movl	64(%esp), %edi
	movl	%ebx, %ecx
/APP
 # 1773 "C:/GNU/MINGW64/i686-8.1.0-win32-dwarf-rt_v6-rev0/mingw32/i686-w64-mingw32/include/psdk_inc/intrin-impl.h" 1
	rep movsd
 # 0 "" 2
/NO_APP
	movl	68(%esp), %eax
	movl	%ebx, (%eax)
	addl	$44, %esp
	.cfi_def_cfa_offset 20
	popl	%ebx
	.cfi_restore 3
	.cfi_def_cfa_offset 16
	popl	%esi
	.cfi_restore 6
	.cfi_def_cfa_offset 12
	popl	%edi
	.cfi_restore 7
	.cfi_def_cfa_offset 8
	popl	%ebp
	.cfi_restore 5
	.cfi_def_cfa_offset 4
	ret
	.cfi_endproc
LFE6200:
	.section .rdata,"dr"
	.align 4
LC2:
	.ascii "p\0m\0c\0_\0g\0r\0e\0a\0t\0e\0s\0t\0c\0o\0m\0m\0o\0n\0d\0i\0v\0i\0s\0o\0r\0.\0c\0p\0p\0;\0G\0r\0e\0a\0t\0e\0s\0t\0C\0o\0m\0m\0o\0n\0D\0i\0v\0i\0s\0o\0r\0_\0"
	.ascii "1\0W\0_\0I\0m\0p\0;\0"
	.ascii "1\0\0\0"
	.text
	.p2align 4,,15
	.def	__ZN8Palmtree4Math4Core8InternalL28GreatestCommonDivisor_1W_ImpEjj;	.scl	3;	.type	32;	.endef
__ZN8Palmtree4Math4Core8InternalL28GreatestCommonDivisor_1W_ImpEjj:
LFB6201:
	.cfi_startproc
	pushl	%esi
	.cfi_def_cfa_offset 8
	.cfi_offset 6, -8
	pushl	%ebx
	.cfi_def_cfa_offset 12
	.cfi_offset 3, -12
	subl	$20, %esp
	.cfi_def_cfa_offset 32
	testl	%eax, %eax
	je	L57
/APP
 # 513 "../pmc_inline_func.h" 1
	bsfl %eax, %ecx
 # 0 "" 2
/NO_APP
	testl	%edx, %edx
	je	L39
/APP
 # 513 "../pmc_inline_func.h" 1
	bsfl %edx, %esi
 # 0 "" 2
/NO_APP
	movl	%ecx, %ebx
	cmpl	%ecx, %esi
	cmovle	%esi, %ebx
	testl	%ecx, %ecx
	jg	L38
	testl	%esi, %esi
	jg	L49
	.p2align 4,,10
L42:
	testl	%eax, %eax
	je	L53
	testl	%edx, %edx
	je	L53
	cmpl	%edx, %eax
	je	L55
	jnb	L46
	movl	%eax, %ecx
	movl	%edx, %eax
	movl	%ecx, %edx
L46:
	subl	%edx, %eax
	je	L51
/APP
 # 513 "../pmc_inline_func.h" 1
	bsfl %eax, %ecx
 # 0 "" 2
/NO_APP
	testl	%ecx, %ecx
	jle	L42
	shrl	%cl, %eax
	jmp	L42
L39:
	cmpl	$32, %ecx
	movl	$32, %ebx
	movl	$32, %esi
	cmovle	%ecx, %ebx
	testl	%ecx, %ecx
	jle	L49
L37:
	shrl	%cl, %eax
	movl	$32, %esi
L49:
	movl	%esi, %ecx
	shrl	%cl, %edx
	jmp	L42
	.p2align 4,,10
L51:
	movl	$32, %ecx
	shrl	%cl, %eax
	jmp	L42
	.p2align 4,,10
L55:
	movl	%ebx, %ecx
	addl	$20, %esp
	.cfi_remember_state
	.cfi_def_cfa_offset 12
	sall	%cl, %eax
	popl	%ebx
	.cfi_restore 3
	.cfi_def_cfa_offset 8
	popl	%esi
	.cfi_restore 6
	.cfi_def_cfa_offset 4
	ret
	.p2align 4,,10
L57:
	.cfi_restore_state
	testl	%edx, %edx
	je	L50
/APP
 # 513 "../pmc_inline_func.h" 1
	bsfl %edx, %esi
 # 0 "" 2
/NO_APP
	movl	$32, %ebx
	cmpl	$32, %esi
	movl	$32, %ecx
	cmovle	%esi, %ebx
L38:
	shrl	%cl, %eax
	testl	%esi, %esi
	jle	L42
	jmp	L49
L50:
	movl	$32, %ebx
	movl	$32, %ecx
	jmp	L37
L53:
	movl	$16, (%esp)
	call	___cxa_allocate_exception
	movl	$-256, 4(%eax)
	movl	$LC0, 8(%eax)
	movl	$LC2, 12(%eax)
	movl	$__ZTVN8Palmtree4Math4Core8Internal22InternalErrorExceptionE+8, (%eax)
	movl	$__ZN8Palmtree4Math4Core8Internal22InternalErrorExceptionD1Ev, 8(%esp)
	movl	$__ZTIN8Palmtree4Math4Core8Internal22InternalErrorExceptionE, 4(%esp)
	movl	%eax, (%esp)
	call	___cxa_throw
	.cfi_endproc
LFE6201:
	.p2align 4,,15
	.globl	__ZN8Palmtree4Math4Core8Internal32Initialize_GreatestCommonDivisorEPNS2_23_tag_PROCESSOR_FEATURESE
	.def	__ZN8Palmtree4Math4Core8Internal32Initialize_GreatestCommonDivisorEPNS2_23_tag_PROCESSOR_FEATURESE;	.scl	2;	.type	32;	.endef
__ZN8Palmtree4Math4Core8Internal32Initialize_GreatestCommonDivisorEPNS2_23_tag_PROCESSOR_FEATURESE:
LFB6213:
	.cfi_startproc
	xorl	%eax, %eax
	ret
	.cfi_endproc
LFE6213:
	.section .rdata,"dr"
	.align 4
LC3:
	.ascii "\25_peL02\0d0h0\202"
	.ascii "00\0j0n0g0G\0C\0D\0\222"
	.ascii "0\0N\17ak0Bl\201"
	.ascii "0\213"
	.ascii "0S0h0L0g0M0~0[0\223"
	.ascii "0\2"
	.ascii "0\0\0"
	.section	.text.unlikely,"x"
LCOLDB4:
	.text
LHOTB4:
	.p2align 4,,15
	.def	__ZN8Palmtree4Math4Core8InternalL33PMC_GreatestCommonDivisor_X_I_ImpEPNS2_19__tag_NUMBER_HEADEREj;	.scl	3;	.type	32;	.endef
__ZN8Palmtree4Math4Core8InternalL33PMC_GreatestCommonDivisor_X_I_ImpEPNS2_19__tag_NUMBER_HEADEREj:
LFB6202:
	.cfi_startproc
	.cfi_personality 0,___gxx_personality_v0
	.cfi_lsda 0,LLSDA6202
	pushl	%ebp
	.cfi_def_cfa_offset 8
	.cfi_offset 5, -8
	movl	%esp, %ebp
	.cfi_def_cfa_register 5
	pushl	%edi
	pushl	%esi
	pushl	%ebx
	.cfi_offset 7, -12
	.cfi_offset 6, -16
	.cfi_offset 3, -20
	movl	%edx, %ebx
	subl	$108, %esp
	testb	$1, 4(%eax)
	je	L60
	testl	%edx, %edx
	je	L72
	movl	%edx, (%esp)
LEHB0:
	call	__ZN8Palmtree4Math4Core8Internal10From_I_ImpEj
	movl	%eax, -60(%ebp)
	movl	-60(%ebp), %eax
	leal	-12(%ebp), %esp
	popl	%ebx
	.cfi_remember_state
	.cfi_restore 3
	popl	%esi
	.cfi_restore 6
	popl	%edi
	.cfi_restore 7
	popl	%ebp
	.cfi_restore 5
	.cfi_def_cfa 4, 4
	ret
	.p2align 4,,10
L60:
	.cfi_restore_state
	movl	%eax, %esi
	testl	%edx, %edx
	jne	L63
	movl	%eax, (%esp)
	call	__ZN8Palmtree4Math4Core8Internal15DuplicateNumberEPNS2_19__tag_NUMBER_HEADERE
	movl	%eax, -60(%ebp)
	movl	-60(%ebp), %eax
	leal	-12(%ebp), %esp
	popl	%ebx
	.cfi_remember_state
	.cfi_restore 3
	popl	%esi
	.cfi_restore 6
	popl	%edi
	.cfi_restore 7
	popl	%ebp
	.cfi_restore 5
	.cfi_def_cfa 4, 4
	ret
	.p2align 4,,10
L63:
	.cfi_restore_state
	leal	-40(%ebp), %ecx
	call	__ZN8Palmtree4Math4Core8Internal18ResourceHolderUINTC1Ev
LEHE0:
	cmpl	$1, 16(%esi)
	jbe	L73
/APP
 # 428 "../pmc_inline_func.h" 1
	bsrl %ebx, %ecx
 # 0 "" 2
/NO_APP
	addl	$1, %ecx
	cmpl	%ecx, 20(%esi)
	cmovnb	20(%esi), %ecx
	movl	%ecx, (%esp)
	movl	%ecx, %edi
	movl	%ecx, -68(%ebp)
	leal	-40(%ebp), %ecx
LEHB1:
	call	__ZN8Palmtree4Math4Core8Internal18ResourceHolderUINT13AllocateBlockEj
	subl	$4, %esp
	leal	-40(%ebp), %ecx
	movl	%eax, -64(%ebp)
	movl	%edi, (%esp)
	call	__ZN8Palmtree4Math4Core8Internal18ResourceHolderUINT13AllocateBlockEj
	subl	$4, %esp
	leal	-40(%ebp), %ecx
	movl	%eax, -72(%ebp)
	movl	%edi, (%esp)
	call	__ZN8Palmtree4Math4Core8Internal18ResourceHolderUINT14AllocateNumberEj
	movl	%eax, -60(%ebp)
	movl	24(%esi), %eax
	subl	$4, %esp
/APP
 # 513 "../pmc_inline_func.h" 1
	bsfl %ebx, %edx
 # 0 "" 2
/NO_APP
	cmpl	%edx, %eax
	movl	%edx, -80(%ebp)
	movl	16(%esi), %ecx
	cmovbe	%eax, %edx
	movl	36(%esi), %esi
	movl	%edx, -76(%ebp)
	testl	%eax, %eax
	jne	L74
	movl	-64(%ebp), %edi
/APP
 # 1773 "C:/GNU/MINGW64/i686-8.1.0-win32-dwarf-rt_v6-rev0/mingw32/i686-w64-mingw32/include/psdk_inc/intrin-impl.h" 1
	rep movsd
 # 0 "" 2
/NO_APP
L67:
	movzbl	-80(%ebp), %ecx
	movl	-72(%ebp), %esi
	leal	-44(%ebp), %eax
	movl	-60(%ebp), %edi
	shrl	%cl, %ebx
	movl	-68(%ebp), %ecx
	movl	%esi, %edx
	movl	%ebx, (%esi)
	movl	-64(%ebp), %ebx
	movl	%eax, 4(%esp)
	movl	36(%edi), %eax
	addl	$31, %ecx
	shrl	$5, %ecx
	movl	%eax, (%esp)
	movl	%ebx, %eax
	call	__ZN8Palmtree4Math4Core8InternalL25GreatestCommonDivisor_ImpEPjS3_jS3_S3_
	movl	%ebx, (%esp)
	leal	-40(%ebp), %ecx
	call	__ZN8Palmtree4Math4Core8Internal18ResourceHolderUINT10CheckBlockEPj
	subl	$4, %esp
	leal	-40(%ebp), %ecx
	movl	%esi, (%esp)
	call	__ZN8Palmtree4Math4Core8Internal18ResourceHolderUINT10CheckBlockEPj
	subl	$4, %esp
	leal	-40(%ebp), %ecx
	movl	%edi, (%esp)
	call	__ZN8Palmtree4Math4Core8Internal18ResourceHolderUINT11CheckNumberEPNS2_19__tag_NUMBER_HEADERE
	subl	$4, %esp
	leal	-40(%ebp), %ecx
	movl	%esi, (%esp)
	call	__ZN8Palmtree4Math4Core8Internal18ResourceHolderUINT15DeallocateBlockEPj
	subl	$4, %esp
	leal	-40(%ebp), %ecx
	movl	%ebx, (%esp)
	call	__ZN8Palmtree4Math4Core8Internal18ResourceHolderUINT15DeallocateBlockEPj
	movl	-76(%ebp), %edx
	subl	$4, %esp
	movl	36(%edi), %eax
	movl	$1, 16(%esp)
	movl	%edx, 8(%esp)
	movl	-44(%ebp), %edx
	movl	%eax, 12(%esp)
	movl	%edx, 4(%esp)
	movl	%eax, (%esp)
	call	__ZN8Palmtree4Math4Core8Internal13LeftShift_ImpEPjjjS3_i
	movl	%edi, (%esp)
	leal	-40(%ebp), %ecx
	call	__ZN8Palmtree4Math4Core8Internal18ResourceHolderUINT11CheckNumberEPNS2_19__tag_NUMBER_HEADERE
	subl	$4, %esp
	movl	%edi, (%esp)
	call	__ZN8Palmtree4Math4Core8Internal12CommitNumberEPNS2_19__tag_NUMBER_HEADERE
	movl	%edi, (%esp)
	leal	-40(%ebp), %ecx
	call	__ZN8Palmtree4Math4Core8Internal18ResourceHolderUINT12UnlinkNumberEPNS2_19__tag_NUMBER_HEADERE
L71:
	subl	$4, %esp
	leal	-40(%ebp), %ecx
	call	__ZN8Palmtree4Math4Core8Internal18ResourceHolderUINTD1Ev
	movl	-60(%ebp), %eax
	leal	-12(%ebp), %esp
	popl	%ebx
	.cfi_remember_state
	.cfi_restore 3
	popl	%esi
	.cfi_restore 6
	popl	%edi
	.cfi_restore 7
	popl	%ebp
	.cfi_restore 5
	.cfi_def_cfa 4, 4
	ret
	.p2align 4,,10
L74:
	.cfi_restore_state
	movl	-64(%ebp), %edx
	movl	$0, 16(%esp)
	movl	%eax, 8(%esp)
	movl	%edx, 12(%esp)
	movl	%ecx, 4(%esp)
	movl	%esi, (%esp)
	call	__ZN8Palmtree4Math4Core8Internal14RightShift_ImpEPjjjS3_i
LEHE1:
	jmp	L67
L72:
	movl	$16, (%esp)
	call	___cxa_allocate_exception
	movl	$-6, 4(%eax)
	movl	$LC3, 8(%eax)
	movl	$0, 12(%eax)
	movl	$__ZTVN8Palmtree4Math4Core8Internal19ArithmeticExceptionE+8, (%eax)
	movl	$__ZN8Palmtree4Math4Core8Internal19ArithmeticExceptionD1Ev, 8(%esp)
	movl	$__ZTIN8Palmtree4Math4Core8Internal19ArithmeticExceptionE, 4(%esp)
	movl	%eax, (%esp)
LEHB2:
	call	___cxa_throw
LEHE2:
	.p2align 4,,10
L73:
	movl	$32, (%esp)
	leal	-40(%ebp), %ecx
LEHB3:
	call	__ZN8Palmtree4Math4Core8Internal18ResourceHolderUINT14AllocateNumberEj
	movl	%eax, -60(%ebp)
	movl	36(%eax), %edi
	subl	$4, %esp
	movl	%ebx, %edx
	movl	36(%esi), %eax
	movl	(%eax), %eax
	call	__ZN8Palmtree4Math4Core8InternalL28GreatestCommonDivisor_1W_ImpEjj
	movl	-60(%ebp), %ebx
	movl	%eax, (%edi)
	leal	-40(%ebp), %ecx
	movl	%ebx, (%esp)
	call	__ZN8Palmtree4Math4Core8Internal18ResourceHolderUINT11CheckNumberEPNS2_19__tag_NUMBER_HEADERE
	subl	$4, %esp
	movl	%ebx, (%esp)
	call	__ZN8Palmtree4Math4Core8Internal12CommitNumberEPNS2_19__tag_NUMBER_HEADERE
	movl	%ebx, (%esp)
	leal	-40(%ebp), %ecx
	call	__ZN8Palmtree4Math4Core8Internal18ResourceHolderUINT12UnlinkNumberEPNS2_19__tag_NUMBER_HEADERE
LEHE3:
	jmp	L71
L69:
	movl	%eax, %ebx
	jmp	L68
	.def	___gxx_personality_v0;	.scl	2;	.type	32;	.endef
	.section	.gcc_except_table,"w"
LLSDA6202:
	.byte	0xff
	.byte	0xff
	.byte	0x1
	.uleb128 LLSDACSE6202-LLSDACSB6202
LLSDACSB6202:
	.uleb128 LEHB0-LFB6202
	.uleb128 LEHE0-LEHB0
	.uleb128 0
	.uleb128 0
	.uleb128 LEHB1-LFB6202
	.uleb128 LEHE1-LEHB1
	.uleb128 L69-LFB6202
	.uleb128 0
	.uleb128 LEHB2-LFB6202
	.uleb128 LEHE2-LEHB2
	.uleb128 0
	.uleb128 0
	.uleb128 LEHB3-LFB6202
	.uleb128 LEHE3-LEHB3
	.uleb128 L69-LFB6202
	.uleb128 0
LLSDACSE6202:
	.text
	.cfi_endproc
	.section	.text.unlikely,"x"
	.cfi_startproc
	.cfi_personality 0,___gxx_personality_v0
	.cfi_lsda 0,LLSDAC6202
	.def	__ZN8Palmtree4Math4Core8InternalL33PMC_GreatestCommonDivisor_X_I_ImpEPNS2_19__tag_NUMBER_HEADEREj.cold.1;	.scl	3;	.type	32;	.endef
__ZN8Palmtree4Math4Core8InternalL33PMC_GreatestCommonDivisor_X_I_ImpEPNS2_19__tag_NUMBER_HEADEREj.cold.1:
L68:
	.cfi_def_cfa 5, 8
	.cfi_offset 3, -20
	.cfi_offset 5, -8
	.cfi_offset 6, -16
	.cfi_offset 7, -12
	leal	-40(%ebp), %ecx
	call	__ZN8Palmtree4Math4Core8Internal18ResourceHolderUINTD1Ev
	movl	%ebx, (%esp)
LEHB4:
	call	__Unwind_Resume
LEHE4:
	.cfi_endproc
LFE6202:
	.section	.gcc_except_table,"w"
LLSDAC6202:
	.byte	0xff
	.byte	0xff
	.byte	0x1
	.uleb128 LLSDACSEC6202-LLSDACSBC6202
LLSDACSBC6202:
	.uleb128 LEHB4-LCOLDB4
	.uleb128 LEHE4-LEHB4
	.uleb128 0
	.uleb128 0
LLSDACSEC6202:
	.section	.text.unlikely,"x"
	.text
	.section	.text.unlikely,"x"
LCOLDE4:
	.text
LHOTE4:
	.section .rdata,"dr"
	.align 4
LC5:
	.ascii "\25_pek0n\0u\0l\0l\0p\0t\0r\0L0\16NH0\211"
	.ascii "0\214"
	.ascii "0f0D0~0Y0\2"
	.ascii "0\0\0"
	.align 2
LC6:
	.ascii "v\0\0\0"
	.section	.text.unlikely,"x"
LCOLDB7:
	.text
LHOTB7:
	.p2align 4,,15
	.globl	__ZN8Palmtree4Math4Core8Internal29PMC_GreatestCommonDivisor_I_XEjPNS2_21__tag_PMC_HANDLE_UINTE@8
	.def	__ZN8Palmtree4Math4Core8Internal29PMC_GreatestCommonDivisor_I_XEjPNS2_21__tag_PMC_HANDLE_UINTE@8;	.scl	2;	.type	32;	.endef
__ZN8Palmtree4Math4Core8Internal29PMC_GreatestCommonDivisor_I_XEjPNS2_21__tag_PMC_HANDLE_UINTE@8:
LFB6208:
	.cfi_startproc
	.cfi_personality 0,___gxx_personality_v0
	.cfi_lsda 0,LLSDA6208
	pushl	%ebp
	.cfi_def_cfa_offset 8
	.cfi_offset 5, -8
	movl	%esp, %ebp
	.cfi_def_cfa_register 5
	pushl	%ebx
	subl	$36, %esp
	.cfi_offset 3, -12
	movl	12(%ebp), %ebx
	testl	%ebx, %ebx
	je	L82
	movl	%ebx, (%esp)
LEHB5:
	call	__ZN8Palmtree4Math4Core8Internal11CheckNumberEPNS2_19__tag_NUMBER_HEADERE
	leal	-24(%ebp), %ecx
	call	__ZN8Palmtree4Math4Core8Internal18ResourceHolderUINTC1Ev
LEHE5:
	movl	8(%ebp), %edx
	movl	%ebx, %eax
LEHB6:
	call	__ZN8Palmtree4Math4Core8InternalL33PMC_GreatestCommonDivisor_X_I_ImpEPNS2_19__tag_NUMBER_HEADEREj
	movl	%eax, (%esp)
	leal	-24(%ebp), %ecx
	movl	%eax, %ebx
	call	__ZN8Palmtree4Math4Core8Internal18ResourceHolderUINT10HookNumberEPNS2_19__tag_NUMBER_HEADERE
	subl	$4, %esp
	leal	-24(%ebp), %ecx
	movl	%ebx, (%esp)
	call	__ZN8Palmtree4Math4Core8Internal18ResourceHolderUINT12UnlinkNumberEPNS2_19__tag_NUMBER_HEADERE
LEHE6:
	subl	$4, %esp
	leal	-24(%ebp), %ecx
	call	__ZN8Palmtree4Math4Core8Internal18ResourceHolderUINTD1Ev
	movl	%ebx, %eax
	movl	-4(%ebp), %ebx
	leave
	.cfi_remember_state
	.cfi_restore 5
	.cfi_restore 3
	.cfi_def_cfa 4, 4
	ret	$8
L82:
	.cfi_restore_state
	movl	$16, (%esp)
	call	___cxa_allocate_exception
	movl	$-2, 4(%eax)
	movl	$LC5, 8(%eax)
	movl	$LC6, 12(%eax)
	movl	$__ZTVN8Palmtree4Math4Core8Internal21ArgumentNullExceptionE+8, (%eax)
	movl	$__ZN8Palmtree4Math4Core8Internal21ArgumentNullExceptionD1Ev, 8(%esp)
	movl	$__ZTIN8Palmtree4Math4Core8Internal21ArgumentNullExceptionE, 4(%esp)
	movl	%eax, (%esp)
LEHB7:
	call	___cxa_throw
LEHE7:
L78:
	movl	%eax, %ebx
	jmp	L77
	.section	.gcc_except_table,"w"
LLSDA6208:
	.byte	0xff
	.byte	0xff
	.byte	0x1
	.uleb128 LLSDACSE6208-LLSDACSB6208
LLSDACSB6208:
	.uleb128 LEHB5-LFB6208
	.uleb128 LEHE5-LEHB5
	.uleb128 0
	.uleb128 0
	.uleb128 LEHB6-LFB6208
	.uleb128 LEHE6-LEHB6
	.uleb128 L78-LFB6208
	.uleb128 0
	.uleb128 LEHB7-LFB6208
	.uleb128 LEHE7-LEHB7
	.uleb128 0
	.uleb128 0
LLSDACSE6208:
	.text
	.cfi_endproc
	.section	.text.unlikely,"x"
	.cfi_startproc
	.cfi_personality 0,___gxx_personality_v0
	.cfi_lsda 0,LLSDAC6208
	.def	__ZN8Palmtree4Math4Core8Internal29PMC_GreatestCommonDivisor_I_XEjPNS2_21__tag_PMC_HANDLE_UINTE@8.cold.2;	.scl	3;	.type	32;	.endef
__ZN8Palmtree4Math4Core8Internal29PMC_GreatestCommonDivisor_I_XEjPNS2_21__tag_PMC_HANDLE_UINTE@8.cold.2:
L77:
	.cfi_def_cfa 5, 8
	.cfi_offset 3, -12
	.cfi_offset 5, -8
	leal	-24(%ebp), %ecx
	call	__ZN8Palmtree4Math4Core8Internal18ResourceHolderUINTD1Ev
	movl	%ebx, (%esp)
LEHB8:
	call	__Unwind_Resume
LEHE8:
	.cfi_endproc
LFE6208:
	.section	.gcc_except_table,"w"
LLSDAC6208:
	.byte	0xff
	.byte	0xff
	.byte	0x1
	.uleb128 LLSDACSEC6208-LLSDACSBC6208
LLSDACSBC6208:
	.uleb128 LEHB8-LCOLDB7
	.uleb128 LEHE8-LEHB8
	.uleb128 0
	.uleb128 0
LLSDACSEC6208:
	.section	.text.unlikely,"x"
	.text
	.section	.text.unlikely,"x"
LCOLDE7:
	.text
LHOTE7:
	.section .rdata,"dr"
	.align 2
LC8:
	.ascii "u\0\0\0"
	.section	.text.unlikely,"x"
LCOLDB9:
	.text
LHOTB9:
	.p2align 4,,15
	.globl	__ZN8Palmtree4Math4Core8Internal29PMC_GreatestCommonDivisor_X_IEPNS2_21__tag_PMC_HANDLE_UINTEj@8
	.def	__ZN8Palmtree4Math4Core8Internal29PMC_GreatestCommonDivisor_X_IEPNS2_21__tag_PMC_HANDLE_UINTEj@8;	.scl	2;	.type	32;	.endef
__ZN8Palmtree4Math4Core8Internal29PMC_GreatestCommonDivisor_X_IEPNS2_21__tag_PMC_HANDLE_UINTEj@8:
LFB6209:
	.cfi_startproc
	.cfi_personality 0,___gxx_personality_v0
	.cfi_lsda 0,LLSDA6209
	pushl	%ebp
	.cfi_def_cfa_offset 8
	.cfi_offset 5, -8
	movl	%esp, %ebp
	.cfi_def_cfa_register 5
	pushl	%ebx
	subl	$36, %esp
	.cfi_offset 3, -12
	movl	8(%ebp), %ebx
	testl	%ebx, %ebx
	je	L90
	movl	%ebx, (%esp)
LEHB9:
	call	__ZN8Palmtree4Math4Core8Internal11CheckNumberEPNS2_19__tag_NUMBER_HEADERE
	leal	-24(%ebp), %ecx
	call	__ZN8Palmtree4Math4Core8Internal18ResourceHolderUINTC1Ev
LEHE9:
	movl	12(%ebp), %edx
	movl	%ebx, %eax
LEHB10:
	call	__ZN8Palmtree4Math4Core8InternalL33PMC_GreatestCommonDivisor_X_I_ImpEPNS2_19__tag_NUMBER_HEADEREj
	movl	%eax, (%esp)
	leal	-24(%ebp), %ecx
	movl	%eax, %ebx
	call	__ZN8Palmtree4Math4Core8Internal18ResourceHolderUINT10HookNumberEPNS2_19__tag_NUMBER_HEADERE
	subl	$4, %esp
	leal	-24(%ebp), %ecx
	movl	%ebx, (%esp)
	call	__ZN8Palmtree4Math4Core8Internal18ResourceHolderUINT12UnlinkNumberEPNS2_19__tag_NUMBER_HEADERE
LEHE10:
	subl	$4, %esp
	leal	-24(%ebp), %ecx
	call	__ZN8Palmtree4Math4Core8Internal18ResourceHolderUINTD1Ev
	movl	%ebx, %eax
	movl	-4(%ebp), %ebx
	leave
	.cfi_remember_state
	.cfi_restore 5
	.cfi_restore 3
	.cfi_def_cfa 4, 4
	ret	$8
L90:
	.cfi_restore_state
	movl	$16, (%esp)
	call	___cxa_allocate_exception
	movl	$-2, 4(%eax)
	movl	$LC5, 8(%eax)
	movl	$LC8, 12(%eax)
	movl	$__ZTVN8Palmtree4Math4Core8Internal21ArgumentNullExceptionE+8, (%eax)
	movl	$__ZN8Palmtree4Math4Core8Internal21ArgumentNullExceptionD1Ev, 8(%esp)
	movl	$__ZTIN8Palmtree4Math4Core8Internal21ArgumentNullExceptionE, 4(%esp)
	movl	%eax, (%esp)
LEHB11:
	call	___cxa_throw
LEHE11:
L86:
	movl	%eax, %ebx
	jmp	L85
	.section	.gcc_except_table,"w"
LLSDA6209:
	.byte	0xff
	.byte	0xff
	.byte	0x1
	.uleb128 LLSDACSE6209-LLSDACSB6209
LLSDACSB6209:
	.uleb128 LEHB9-LFB6209
	.uleb128 LEHE9-LEHB9
	.uleb128 0
	.uleb128 0
	.uleb128 LEHB10-LFB6209
	.uleb128 LEHE10-LEHB10
	.uleb128 L86-LFB6209
	.uleb128 0
	.uleb128 LEHB11-LFB6209
	.uleb128 LEHE11-LEHB11
	.uleb128 0
	.uleb128 0
LLSDACSE6209:
	.text
	.cfi_endproc
	.section	.text.unlikely,"x"
	.cfi_startproc
	.cfi_personality 0,___gxx_personality_v0
	.cfi_lsda 0,LLSDAC6209
	.def	__ZN8Palmtree4Math4Core8Internal29PMC_GreatestCommonDivisor_X_IEPNS2_21__tag_PMC_HANDLE_UINTEj@8.cold.3;	.scl	3;	.type	32;	.endef
__ZN8Palmtree4Math4Core8Internal29PMC_GreatestCommonDivisor_X_IEPNS2_21__tag_PMC_HANDLE_UINTEj@8.cold.3:
L85:
	.cfi_def_cfa 5, 8
	.cfi_offset 3, -12
	.cfi_offset 5, -8
	leal	-24(%ebp), %ecx
	call	__ZN8Palmtree4Math4Core8Internal18ResourceHolderUINTD1Ev
	movl	%ebx, (%esp)
LEHB12:
	call	__Unwind_Resume
LEHE12:
	.cfi_endproc
LFE6209:
	.section	.gcc_except_table,"w"
LLSDAC6209:
	.byte	0xff
	.byte	0xff
	.byte	0x1
	.uleb128 LLSDACSEC6209-LLSDACSBC6209
LLSDACSBC6209:
	.uleb128 LEHB12-LCOLDB9
	.uleb128 LEHE12-LEHB12
	.uleb128 0
	.uleb128 0
LLSDACSEC6209:
	.section	.text.unlikely,"x"
	.text
	.section	.text.unlikely,"x"
LCOLDE9:
	.text
LHOTE9:
	.section	.text.unlikely,"x"
LCOLDB10:
	.text
LHOTB10:
	.p2align 4,,15
	.def	__ZN8Palmtree4Math4Core8InternalL33PMC_GreatestCommonDivisor_X_L_ImpEPNS2_19__tag_NUMBER_HEADEREy;	.scl	3;	.type	32;	.endef
__ZN8Palmtree4Math4Core8InternalL33PMC_GreatestCommonDivisor_X_L_ImpEPNS2_19__tag_NUMBER_HEADEREy:
LFB6206:
	.cfi_startproc
	.cfi_personality 0,___gxx_personality_v0
	.cfi_lsda 0,LLSDA6206
	pushl	%ebp
	.cfi_def_cfa_offset 8
	.cfi_offset 5, -8
	movl	%esp, %ebp
	.cfi_def_cfa_register 5
	pushl	%edi
	pushl	%esi
	pushl	%ebx
	subl	$108, %esp
	.cfi_offset 7, -12
	.cfi_offset 6, -16
	.cfi_offset 3, -20
	movl	%edx, -60(%ebp)
	movl	%ecx, -64(%ebp)
	testb	$1, 4(%eax)
	je	L92
	movl	%ecx, %eax
	orl	%edx, %eax
	je	L126
	movl	-60(%ebp), %eax
	movl	%eax, (%esp)
	movl	-64(%ebp), %eax
	movl	%eax, 4(%esp)
LEHB13:
	call	__ZN8Palmtree4Math4Core8Internal10From_L_ImpEy
	leal	-12(%ebp), %esp
	movl	%eax, %ebx
	movl	%ebx, %eax
	popl	%ebx
	.cfi_remember_state
	.cfi_restore 3
	popl	%esi
	.cfi_restore 6
	popl	%edi
	.cfi_restore 7
	popl	%ebp
	.cfi_restore 5
	.cfi_def_cfa 4, 4
	ret
	.p2align 4,,10
L92:
	.cfi_restore_state
	movl	%eax, %esi
	movl	-64(%ebp), %eax
	orl	-60(%ebp), %eax
	je	L127
	movl	20(%esi), %eax
	movl	-64(%ebp), %ecx
	movl	%eax, -68(%ebp)
	testl	%ecx, %ecx
	je	L128
	leal	-40(%ebp), %ebx
	movl	%ebx, %ecx
	movl	%ebx, -72(%ebp)
	call	__ZN8Palmtree4Math4Core8Internal18ResourceHolderUINTC1Ev
LEHE13:
	movl	-68(%ebp), %eax
/APP
 # 428 "../pmc_inline_func.h" 1
	bsrl -64(%ebp), %ecx
 # 0 "" 2
/NO_APP
	addl	$33, %ecx
	cmpl	%eax, %ecx
	cmovb	%eax, %ecx
	movl	%ecx, (%esp)
	movl	%ecx, %edi
	movl	%ecx, -84(%ebp)
	movl	%ebx, %ecx
LEHB14:
	call	__ZN8Palmtree4Math4Core8Internal18ResourceHolderUINT13AllocateBlockEj
	subl	$4, %esp
	movl	%ebx, %ecx
	movl	%eax, -76(%ebp)
	movl	%edi, (%esp)
	call	__ZN8Palmtree4Math4Core8Internal18ResourceHolderUINT13AllocateBlockEj
	subl	$4, %esp
	movl	%ebx, %ecx
	movl	%eax, -68(%ebp)
	movl	%edi, (%esp)
	call	__ZN8Palmtree4Math4Core8Internal18ResourceHolderUINT14AllocateNumberEj
	movl	-60(%ebp), %edx
	movl	%eax, %ebx
	subl	$4, %esp
	movl	24(%esi), %eax
	testl	%edx, %edx
	jne	L104
/APP
 # 513 "../pmc_inline_func.h" 1
	bsfl -64(%ebp), %edx
 # 0 "" 2
/NO_APP
	addl	$32, %edx
	movl	%edx, -80(%ebp)
L105:
	movl	-80(%ebp), %edx
	movl	16(%esi), %ecx
	movl	36(%esi), %esi
	cmpl	%eax, %edx
	cmova	%eax, %edx
	movl	%edx, -88(%ebp)
	testl	%eax, %eax
	jne	L129
	movl	-76(%ebp), %edi
/APP
 # 1773 "C:/GNU/MINGW64/i686-8.1.0-win32-dwarf-rt_v6-rev0/mingw32/i686-w64-mingw32/include/psdk_inc/intrin-impl.h" 1
	rep movsd
 # 0 "" 2
/NO_APP
L107:
	movl	-68(%ebp), %eax
	movl	-60(%ebp), %esi
	movl	-80(%ebp), %edx
	movl	%esi, (%eax)
	movl	-64(%ebp), %esi
	movl	%esi, 4(%eax)
	testl	%edx, %edx
	je	L108
	movl	$1, 16(%esp)
	movl	%eax, 12(%esp)
	movl	%edx, 8(%esp)
	movl	$2, 4(%esp)
	movl	%eax, (%esp)
	call	__ZN8Palmtree4Math4Core8Internal14RightShift_ImpEPjjjS3_i
L108:
	leal	-44(%ebp), %eax
	movl	-84(%ebp), %ecx
	movl	-76(%ebp), %esi
	movl	%eax, 4(%esp)
	movl	36(%ebx), %eax
	addl	$31, %ecx
	movl	-68(%ebp), %edx
	movl	%eax, (%esp)
	shrl	$5, %ecx
	movl	%esi, %eax
	call	__ZN8Palmtree4Math4Core8InternalL25GreatestCommonDivisor_ImpEPjS3_jS3_S3_
	movl	-72(%ebp), %edi
	movl	%esi, (%esp)
	movl	%edi, %ecx
	call	__ZN8Palmtree4Math4Core8Internal18ResourceHolderUINT10CheckBlockEPj
	movl	-68(%ebp), %eax
	subl	$4, %esp
	movl	%edi, %ecx
	movl	%eax, (%esp)
	call	__ZN8Palmtree4Math4Core8Internal18ResourceHolderUINT10CheckBlockEPj
	subl	$4, %esp
	movl	%edi, %ecx
	movl	%ebx, (%esp)
	call	__ZN8Palmtree4Math4Core8Internal18ResourceHolderUINT11CheckNumberEPNS2_19__tag_NUMBER_HEADERE
	movl	-68(%ebp), %eax
	subl	$4, %esp
	movl	%edi, %ecx
	movl	%eax, (%esp)
	call	__ZN8Palmtree4Math4Core8Internal18ResourceHolderUINT15DeallocateBlockEPj
	subl	$4, %esp
	movl	%edi, %ecx
	movl	%esi, (%esp)
	call	__ZN8Palmtree4Math4Core8Internal18ResourceHolderUINT15DeallocateBlockEPj
	movl	36(%ebx), %eax
	movl	-88(%ebp), %esi
	subl	$4, %esp
	movl	-44(%ebp), %edx
	movl	$1, 16(%esp)
	movl	%eax, 12(%esp)
	movl	%esi, 8(%esp)
	movl	%edx, 4(%esp)
	movl	%eax, (%esp)
	call	__ZN8Palmtree4Math4Core8Internal13LeftShift_ImpEPjjjS3_i
	movl	%ebx, (%esp)
	movl	%edi, %ecx
	call	__ZN8Palmtree4Math4Core8Internal18ResourceHolderUINT11CheckNumberEPNS2_19__tag_NUMBER_HEADERE
	subl	$4, %esp
	movl	%ebx, (%esp)
	call	__ZN8Palmtree4Math4Core8Internal12CommitNumberEPNS2_19__tag_NUMBER_HEADERE
	movl	%ebx, (%esp)
	movl	%edi, %ecx
	call	__ZN8Palmtree4Math4Core8Internal18ResourceHolderUINT12UnlinkNumberEPNS2_19__tag_NUMBER_HEADERE
LEHE14:
	subl	$4, %esp
	movl	%edi, %ecx
	call	__ZN8Palmtree4Math4Core8Internal18ResourceHolderUINTD1Ev
	leal	-12(%ebp), %esp
	movl	%ebx, %eax
	popl	%ebx
	.cfi_remember_state
	.cfi_restore 3
	popl	%esi
	.cfi_restore 6
	popl	%edi
	.cfi_restore 7
	popl	%ebp
	.cfi_restore 5
	.cfi_def_cfa 4, 4
	ret
	.p2align 4,,10
L128:
	.cfi_restore_state
	leal	-40(%ebp), %eax
	movl	%eax, %ecx
	movl	%eax, -72(%ebp)
LEHB15:
	call	__ZN8Palmtree4Math4Core8Internal18ResourceHolderUINTC1Ev
LEHE15:
	cmpl	$1, 16(%esi)
	jbe	L130
	movl	-60(%ebp), %eax
	testl	%eax, %eax
	je	L99
	movl	-68(%ebp), %ebx
/APP
 # 428 "../pmc_inline_func.h" 1
	bsrl %eax, %eax
 # 0 "" 2
/NO_APP
	addl	$1, %eax
	cmpl	%eax, %ebx
	cmovnb	%ebx, %eax
	movl	%eax, -68(%ebp)
L99:
	movl	-68(%ebp), %ebx
	movl	-72(%ebp), %edi
	movl	%ebx, (%esp)
	movl	%edi, %ecx
LEHB16:
	call	__ZN8Palmtree4Math4Core8Internal18ResourceHolderUINT13AllocateBlockEj
	subl	$4, %esp
	movl	%edi, %ecx
	movl	%eax, -64(%ebp)
	movl	%ebx, (%esp)
	call	__ZN8Palmtree4Math4Core8Internal18ResourceHolderUINT13AllocateBlockEj
	subl	$4, %esp
	movl	%edi, %ecx
	movl	%eax, -84(%ebp)
	movl	%ebx, (%esp)
	call	__ZN8Palmtree4Math4Core8Internal18ResourceHolderUINT14AllocateNumberEj
	movl	%eax, %ebx
	movl	24(%esi), %eax
	subl	$4, %esp
	movl	$32, -76(%ebp)
	movl	%eax, -80(%ebp)
	movl	-60(%ebp), %eax
	testl	%eax, %eax
	je	L100
/APP
 # 513 "../pmc_inline_func.h" 1
	bsfl %eax, %eax
 # 0 "" 2
/NO_APP
	movl	%eax, -76(%ebp)
L100:
	movl	-80(%ebp), %eax
	movl	-76(%ebp), %edx
	movl	16(%esi), %ecx
	movl	36(%esi), %esi
	cmpl	%edx, %eax
	jbe	L131
	movl	-76(%ebp), %edi
L101:
	movl	-64(%ebp), %eax
	movl	$0, 16(%esp)
	movl	%ecx, 4(%esp)
	movl	%eax, 12(%esp)
	movl	-80(%ebp), %eax
	movl	%esi, (%esp)
	movl	%eax, 8(%esp)
	call	__ZN8Palmtree4Math4Core8Internal14RightShift_ImpEPjjjS3_i
	movl	%edi, -80(%ebp)
L103:
	movzbl	-76(%ebp), %ecx
	movl	-60(%ebp), %eax
	movl	-84(%ebp), %esi
	movl	-64(%ebp), %edi
	shrl	%cl, %eax
	movl	-68(%ebp), %ecx
	movl	%eax, (%esi)
	leal	-44(%ebp), %eax
	movl	%esi, %edx
	movl	%eax, 4(%esp)
	movl	36(%ebx), %eax
	addl	$31, %ecx
	shrl	$5, %ecx
	movl	%eax, (%esp)
	movl	%edi, %eax
	call	__ZN8Palmtree4Math4Core8InternalL25GreatestCommonDivisor_ImpEPjS3_jS3_S3_
	movl	%edi, -64(%ebp)
	movl	%edi, (%esp)
	movl	-72(%ebp), %edi
	movl	%edi, %ecx
	call	__ZN8Palmtree4Math4Core8Internal18ResourceHolderUINT10CheckBlockEPj
	subl	$4, %esp
	movl	%edi, %ecx
	movl	%esi, (%esp)
	call	__ZN8Palmtree4Math4Core8Internal18ResourceHolderUINT10CheckBlockEPj
	subl	$4, %esp
	movl	%edi, %ecx
	movl	%ebx, (%esp)
	call	__ZN8Palmtree4Math4Core8Internal18ResourceHolderUINT11CheckNumberEPNS2_19__tag_NUMBER_HEADERE
	subl	$4, %esp
	movl	%edi, %ecx
	movl	%esi, (%esp)
	call	__ZN8Palmtree4Math4Core8Internal18ResourceHolderUINT15DeallocateBlockEPj
	movl	-64(%ebp), %eax
	subl	$4, %esp
	movl	%edi, %ecx
	movl	%eax, (%esp)
	call	__ZN8Palmtree4Math4Core8Internal18ResourceHolderUINT15DeallocateBlockEPj
	movl	36(%ebx), %eax
	movl	-80(%ebp), %esi
	subl	$4, %esp
	movl	-44(%ebp), %edx
	movl	$1, 16(%esp)
	movl	%eax, 12(%esp)
	movl	%esi, 8(%esp)
	movl	%edx, 4(%esp)
	movl	%eax, (%esp)
	call	__ZN8Palmtree4Math4Core8Internal13LeftShift_ImpEPjjjS3_i
	movl	%ebx, (%esp)
	movl	%edi, %ecx
	call	__ZN8Palmtree4Math4Core8Internal18ResourceHolderUINT11CheckNumberEPNS2_19__tag_NUMBER_HEADERE
	subl	$4, %esp
	movl	%ebx, (%esp)
	call	__ZN8Palmtree4Math4Core8Internal12CommitNumberEPNS2_19__tag_NUMBER_HEADERE
	movl	%ebx, (%esp)
	movl	%edi, %ecx
	call	__ZN8Palmtree4Math4Core8Internal18ResourceHolderUINT12UnlinkNumberEPNS2_19__tag_NUMBER_HEADERE
LEHE16:
L125:
	movl	-72(%ebp), %ecx
	subl	$4, %esp
	call	__ZN8Palmtree4Math4Core8Internal18ResourceHolderUINTD1Ev
	leal	-12(%ebp), %esp
	movl	%ebx, %eax
	popl	%ebx
	.cfi_remember_state
	.cfi_restore 3
	popl	%esi
	.cfi_restore 6
	popl	%edi
	.cfi_restore 7
	popl	%ebp
	.cfi_restore 5
	.cfi_def_cfa 4, 4
	ret
	.p2align 4,,10
L127:
	.cfi_restore_state
	movl	%esi, (%esp)
LEHB17:
	call	__ZN8Palmtree4Math4Core8Internal15DuplicateNumberEPNS2_19__tag_NUMBER_HEADERE
LEHE17:
	leal	-12(%ebp), %esp
	movl	%eax, %ebx
	movl	%ebx, %eax
	popl	%ebx
	.cfi_remember_state
	.cfi_restore 3
	popl	%esi
	.cfi_restore 6
	popl	%edi
	.cfi_restore 7
	popl	%ebp
	.cfi_restore 5
	.cfi_def_cfa 4, 4
	ret
	.p2align 4,,10
L131:
	.cfi_restore_state
	testl	%eax, %eax
	jne	L132
	movl	-64(%ebp), %edi
/APP
 # 1773 "C:/GNU/MINGW64/i686-8.1.0-win32-dwarf-rt_v6-rev0/mingw32/i686-w64-mingw32/include/psdk_inc/intrin-impl.h" 1
	rep movsd
 # 0 "" 2
/NO_APP
	jmp	L103
	.p2align 4,,10
L104:
/APP
 # 513 "../pmc_inline_func.h" 1
	bsfl -60(%ebp), %edx
 # 0 "" 2
/NO_APP
	movl	%edx, -80(%ebp)
	jmp	L105
	.p2align 4,,10
L129:
	movl	-76(%ebp), %edx
	movl	$0, 16(%esp)
	movl	%eax, 8(%esp)
	movl	%edx, 12(%esp)
	movl	%ecx, 4(%esp)
	movl	%esi, (%esp)
LEHB18:
	call	__ZN8Palmtree4Math4Core8Internal14RightShift_ImpEPjjjS3_i
LEHE18:
	jmp	L107
L126:
	movl	$16, (%esp)
	call	___cxa_allocate_exception
	movl	$-6, 4(%eax)
	movl	$LC3, 8(%eax)
	movl	$0, 12(%eax)
	movl	$__ZTVN8Palmtree4Math4Core8Internal19ArithmeticExceptionE+8, (%eax)
	movl	$__ZN8Palmtree4Math4Core8Internal19ArithmeticExceptionD1Ev, 8(%esp)
	movl	$__ZTIN8Palmtree4Math4Core8Internal19ArithmeticExceptionE, 4(%esp)
	movl	%eax, (%esp)
LEHB19:
	call	___cxa_throw
LEHE19:
	.p2align 4,,10
L130:
	movl	$32, (%esp)
	movl	-72(%ebp), %ecx
LEHB20:
	call	__ZN8Palmtree4Math4Core8Internal18ResourceHolderUINT14AllocateNumberEj
	movl	%eax, %ebx
	movl	36(%eax), %edi
	movl	36(%esi), %eax
	subl	$4, %esp
	movl	-60(%ebp), %edx
	movl	(%eax), %eax
	call	__ZN8Palmtree4Math4Core8InternalL28GreatestCommonDivisor_1W_ImpEjj
	movl	%eax, (%edi)
	movl	-72(%ebp), %esi
	movl	%ebx, (%esp)
	movl	%esi, %ecx
	call	__ZN8Palmtree4Math4Core8Internal18ResourceHolderUINT11CheckNumberEPNS2_19__tag_NUMBER_HEADERE
	subl	$4, %esp
	movl	%ebx, (%esp)
	call	__ZN8Palmtree4Math4Core8Internal12CommitNumberEPNS2_19__tag_NUMBER_HEADERE
	movl	%ebx, (%esp)
	movl	%esi, %ecx
	call	__ZN8Palmtree4Math4Core8Internal18ResourceHolderUINT12UnlinkNumberEPNS2_19__tag_NUMBER_HEADERE
LEHE20:
	jmp	L125
L132:
	movl	%eax, %edi
	jmp	L101
L114:
	movl	%eax, %ebx
	jmp	L110
L115:
	movl	%eax, %ebx
	jmp	L110
	.section	.gcc_except_table,"w"
LLSDA6206:
	.byte	0xff
	.byte	0xff
	.byte	0x1
	.uleb128 LLSDACSE6206-LLSDACSB6206
LLSDACSB6206:
	.uleb128 LEHB13-LFB6206
	.uleb128 LEHE13-LEHB13
	.uleb128 0
	.uleb128 0
	.uleb128 LEHB14-LFB6206
	.uleb128 LEHE14-LEHB14
	.uleb128 L115-LFB6206
	.uleb128 0
	.uleb128 LEHB15-LFB6206
	.uleb128 LEHE15-LEHB15
	.uleb128 0
	.uleb128 0
	.uleb128 LEHB16-LFB6206
	.uleb128 LEHE16-LEHB16
	.uleb128 L114-LFB6206
	.uleb128 0
	.uleb128 LEHB17-LFB6206
	.uleb128 LEHE17-LEHB17
	.uleb128 0
	.uleb128 0
	.uleb128 LEHB18-LFB6206
	.uleb128 LEHE18-LEHB18
	.uleb128 L115-LFB6206
	.uleb128 0
	.uleb128 LEHB19-LFB6206
	.uleb128 LEHE19-LEHB19
	.uleb128 0
	.uleb128 0
	.uleb128 LEHB20-LFB6206
	.uleb128 LEHE20-LEHB20
	.uleb128 L114-LFB6206
	.uleb128 0
LLSDACSE6206:
	.text
	.cfi_endproc
	.section	.text.unlikely,"x"
	.cfi_startproc
	.cfi_personality 0,___gxx_personality_v0
	.cfi_lsda 0,LLSDAC6206
	.def	__ZN8Palmtree4Math4Core8InternalL33PMC_GreatestCommonDivisor_X_L_ImpEPNS2_19__tag_NUMBER_HEADEREy.cold.4;	.scl	3;	.type	32;	.endef
__ZN8Palmtree4Math4Core8InternalL33PMC_GreatestCommonDivisor_X_L_ImpEPNS2_19__tag_NUMBER_HEADEREy.cold.4:
L110:
	.cfi_def_cfa 5, 8
	.cfi_offset 3, -20
	.cfi_offset 5, -8
	.cfi_offset 6, -16
	.cfi_offset 7, -12
	movl	-72(%ebp), %ecx
	call	__ZN8Palmtree4Math4Core8Internal18ResourceHolderUINTD1Ev
	movl	%ebx, (%esp)
LEHB21:
	call	__Unwind_Resume
LEHE21:
	.cfi_endproc
LFE6206:
	.section	.gcc_except_table,"w"
LLSDAC6206:
	.byte	0xff
	.byte	0xff
	.byte	0x1
	.uleb128 LLSDACSEC6206-LLSDACSBC6206
LLSDACSBC6206:
	.uleb128 LEHB21-LCOLDB10
	.uleb128 LEHE21-LEHB21
	.uleb128 0
	.uleb128 0
LLSDACSEC6206:
	.section	.text.unlikely,"x"
	.text
	.section	.text.unlikely,"x"
LCOLDE10:
	.text
LHOTE10:
	.section	.text.unlikely,"x"
LCOLDB11:
	.text
LHOTB11:
	.p2align 4,,15
	.globl	__ZN8Palmtree4Math4Core8Internal29PMC_GreatestCommonDivisor_L_XEyPNS2_21__tag_PMC_HANDLE_UINTE@12
	.def	__ZN8Palmtree4Math4Core8Internal29PMC_GreatestCommonDivisor_L_XEyPNS2_21__tag_PMC_HANDLE_UINTE@12;	.scl	2;	.type	32;	.endef
__ZN8Palmtree4Math4Core8Internal29PMC_GreatestCommonDivisor_L_XEyPNS2_21__tag_PMC_HANDLE_UINTE@12:
LFB6210:
	.cfi_startproc
	.cfi_personality 0,___gxx_personality_v0
	.cfi_lsda 0,LLSDA6210
	pushl	%ebp
	.cfi_def_cfa_offset 8
	.cfi_offset 5, -8
	movl	%esp, %ebp
	.cfi_def_cfa_register 5
	pushl	%edi
	pushl	%esi
	pushl	%ebx
	subl	$44, %esp
	.cfi_offset 7, -12
	.cfi_offset 6, -16
	.cfi_offset 3, -20
	movl	16(%ebp), %ebx
	movl	8(%ebp), %esi
	movl	12(%ebp), %edi
	testl	%ebx, %ebx
	je	L140
	movl	%ebx, (%esp)
LEHB22:
	call	__ZN8Palmtree4Math4Core8Internal11CheckNumberEPNS2_19__tag_NUMBER_HEADERE
	leal	-40(%ebp), %ecx
	call	__ZN8Palmtree4Math4Core8Internal18ResourceHolderUINTC1Ev
LEHE22:
	movl	%esi, %edx
	movl	%edi, %ecx
	movl	%ebx, %eax
LEHB23:
	call	__ZN8Palmtree4Math4Core8InternalL33PMC_GreatestCommonDivisor_X_L_ImpEPNS2_19__tag_NUMBER_HEADEREy
	movl	%eax, (%esp)
	leal	-40(%ebp), %ecx
	movl	%eax, %ebx
	call	__ZN8Palmtree4Math4Core8Internal18ResourceHolderUINT10HookNumberEPNS2_19__tag_NUMBER_HEADERE
	subl	$4, %esp
	leal	-40(%ebp), %ecx
	movl	%ebx, (%esp)
	call	__ZN8Palmtree4Math4Core8Internal18ResourceHolderUINT12UnlinkNumberEPNS2_19__tag_NUMBER_HEADERE
LEHE23:
	subl	$4, %esp
	leal	-40(%ebp), %ecx
	call	__ZN8Palmtree4Math4Core8Internal18ResourceHolderUINTD1Ev
	leal	-12(%ebp), %esp
	movl	%ebx, %eax
	popl	%ebx
	.cfi_remember_state
	.cfi_restore 3
	popl	%esi
	.cfi_restore 6
	popl	%edi
	.cfi_restore 7
	popl	%ebp
	.cfi_restore 5
	.cfi_def_cfa 4, 4
	ret	$12
L140:
	.cfi_restore_state
	movl	$16, (%esp)
	call	___cxa_allocate_exception
	movl	$-2, 4(%eax)
	movl	$LC5, 8(%eax)
	movl	$LC6, 12(%eax)
	movl	$__ZTVN8Palmtree4Math4Core8Internal21ArgumentNullExceptionE+8, (%eax)
	movl	$__ZN8Palmtree4Math4Core8Internal21ArgumentNullExceptionD1Ev, 8(%esp)
	movl	$__ZTIN8Palmtree4Math4Core8Internal21ArgumentNullExceptionE, 4(%esp)
	movl	%eax, (%esp)
LEHB24:
	call	___cxa_throw
LEHE24:
L136:
	movl	%eax, %ebx
	jmp	L135
	.section	.gcc_except_table,"w"
LLSDA6210:
	.byte	0xff
	.byte	0xff
	.byte	0x1
	.uleb128 LLSDACSE6210-LLSDACSB6210
LLSDACSB6210:
	.uleb128 LEHB22-LFB6210
	.uleb128 LEHE22-LEHB22
	.uleb128 0
	.uleb128 0
	.uleb128 LEHB23-LFB6210
	.uleb128 LEHE23-LEHB23
	.uleb128 L136-LFB6210
	.uleb128 0
	.uleb128 LEHB24-LFB6210
	.uleb128 LEHE24-LEHB24
	.uleb128 0
	.uleb128 0
LLSDACSE6210:
	.text
	.cfi_endproc
	.section	.text.unlikely,"x"
	.cfi_startproc
	.cfi_personality 0,___gxx_personality_v0
	.cfi_lsda 0,LLSDAC6210
	.def	__ZN8Palmtree4Math4Core8Internal29PMC_GreatestCommonDivisor_L_XEyPNS2_21__tag_PMC_HANDLE_UINTE@12.cold.5;	.scl	3;	.type	32;	.endef
__ZN8Palmtree4Math4Core8Internal29PMC_GreatestCommonDivisor_L_XEyPNS2_21__tag_PMC_HANDLE_UINTE@12.cold.5:
L135:
	.cfi_def_cfa 5, 8
	.cfi_offset 3, -20
	.cfi_offset 5, -8
	.cfi_offset 6, -16
	.cfi_offset 7, -12
	leal	-40(%ebp), %ecx
	call	__ZN8Palmtree4Math4Core8Internal18ResourceHolderUINTD1Ev
	movl	%ebx, (%esp)
LEHB25:
	call	__Unwind_Resume
LEHE25:
	.cfi_endproc
LFE6210:
	.section	.gcc_except_table,"w"
LLSDAC6210:
	.byte	0xff
	.byte	0xff
	.byte	0x1
	.uleb128 LLSDACSEC6210-LLSDACSBC6210
LLSDACSBC6210:
	.uleb128 LEHB25-LCOLDB11
	.uleb128 LEHE25-LEHB25
	.uleb128 0
	.uleb128 0
LLSDACSEC6210:
	.section	.text.unlikely,"x"
	.text
	.section	.text.unlikely,"x"
LCOLDE11:
	.text
LHOTE11:
	.section	.text.unlikely,"x"
LCOLDB12:
	.text
LHOTB12:
	.p2align 4,,15
	.globl	__ZN8Palmtree4Math4Core8Internal29PMC_GreatestCommonDivisor_X_LEPNS2_21__tag_PMC_HANDLE_UINTEy@12
	.def	__ZN8Palmtree4Math4Core8Internal29PMC_GreatestCommonDivisor_X_LEPNS2_21__tag_PMC_HANDLE_UINTEy@12;	.scl	2;	.type	32;	.endef
__ZN8Palmtree4Math4Core8Internal29PMC_GreatestCommonDivisor_X_LEPNS2_21__tag_PMC_HANDLE_UINTEy@12:
LFB6211:
	.cfi_startproc
	.cfi_personality 0,___gxx_personality_v0
	.cfi_lsda 0,LLSDA6211
	pushl	%ebp
	.cfi_def_cfa_offset 8
	.cfi_offset 5, -8
	movl	%esp, %ebp
	.cfi_def_cfa_register 5
	pushl	%edi
	pushl	%esi
	pushl	%ebx
	subl	$44, %esp
	.cfi_offset 7, -12
	.cfi_offset 6, -16
	.cfi_offset 3, -20
	movl	8(%ebp), %ebx
	movl	12(%ebp), %esi
	movl	16(%ebp), %edi
	testl	%ebx, %ebx
	je	L148
	movl	%ebx, (%esp)
LEHB26:
	call	__ZN8Palmtree4Math4Core8Internal11CheckNumberEPNS2_19__tag_NUMBER_HEADERE
	leal	-40(%ebp), %ecx
	call	__ZN8Palmtree4Math4Core8Internal18ResourceHolderUINTC1Ev
LEHE26:
	movl	%esi, %edx
	movl	%edi, %ecx
	movl	%ebx, %eax
LEHB27:
	call	__ZN8Palmtree4Math4Core8InternalL33PMC_GreatestCommonDivisor_X_L_ImpEPNS2_19__tag_NUMBER_HEADEREy
	movl	%eax, (%esp)
	leal	-40(%ebp), %ecx
	movl	%eax, %ebx
	call	__ZN8Palmtree4Math4Core8Internal18ResourceHolderUINT10HookNumberEPNS2_19__tag_NUMBER_HEADERE
	subl	$4, %esp
	leal	-40(%ebp), %ecx
	movl	%ebx, (%esp)
	call	__ZN8Palmtree4Math4Core8Internal18ResourceHolderUINT12UnlinkNumberEPNS2_19__tag_NUMBER_HEADERE
LEHE27:
	subl	$4, %esp
	leal	-40(%ebp), %ecx
	call	__ZN8Palmtree4Math4Core8Internal18ResourceHolderUINTD1Ev
	leal	-12(%ebp), %esp
	movl	%ebx, %eax
	popl	%ebx
	.cfi_remember_state
	.cfi_restore 3
	popl	%esi
	.cfi_restore 6
	popl	%edi
	.cfi_restore 7
	popl	%ebp
	.cfi_restore 5
	.cfi_def_cfa 4, 4
	ret	$12
L148:
	.cfi_restore_state
	movl	$16, (%esp)
	call	___cxa_allocate_exception
	movl	$-2, 4(%eax)
	movl	$LC5, 8(%eax)
	movl	$LC8, 12(%eax)
	movl	$__ZTVN8Palmtree4Math4Core8Internal21ArgumentNullExceptionE+8, (%eax)
	movl	$__ZN8Palmtree4Math4Core8Internal21ArgumentNullExceptionD1Ev, 8(%esp)
	movl	$__ZTIN8Palmtree4Math4Core8Internal21ArgumentNullExceptionE, 4(%esp)
	movl	%eax, (%esp)
LEHB28:
	call	___cxa_throw
LEHE28:
L144:
	movl	%eax, %ebx
	jmp	L143
	.section	.gcc_except_table,"w"
LLSDA6211:
	.byte	0xff
	.byte	0xff
	.byte	0x1
	.uleb128 LLSDACSE6211-LLSDACSB6211
LLSDACSB6211:
	.uleb128 LEHB26-LFB6211
	.uleb128 LEHE26-LEHB26
	.uleb128 0
	.uleb128 0
	.uleb128 LEHB27-LFB6211
	.uleb128 LEHE27-LEHB27
	.uleb128 L144-LFB6211
	.uleb128 0
	.uleb128 LEHB28-LFB6211
	.uleb128 LEHE28-LEHB28
	.uleb128 0
	.uleb128 0
LLSDACSE6211:
	.text
	.cfi_endproc
	.section	.text.unlikely,"x"
	.cfi_startproc
	.cfi_personality 0,___gxx_personality_v0
	.cfi_lsda 0,LLSDAC6211
	.def	__ZN8Palmtree4Math4Core8Internal29PMC_GreatestCommonDivisor_X_LEPNS2_21__tag_PMC_HANDLE_UINTEy@12.cold.6;	.scl	3;	.type	32;	.endef
__ZN8Palmtree4Math4Core8Internal29PMC_GreatestCommonDivisor_X_LEPNS2_21__tag_PMC_HANDLE_UINTEy@12.cold.6:
L143:
	.cfi_def_cfa 5, 8
	.cfi_offset 3, -20
	.cfi_offset 5, -8
	.cfi_offset 6, -16
	.cfi_offset 7, -12
	leal	-40(%ebp), %ecx
	call	__ZN8Palmtree4Math4Core8Internal18ResourceHolderUINTD1Ev
	movl	%ebx, (%esp)
LEHB29:
	call	__Unwind_Resume
LEHE29:
	.cfi_endproc
LFE6211:
	.section	.gcc_except_table,"w"
LLSDAC6211:
	.byte	0xff
	.byte	0xff
	.byte	0x1
	.uleb128 LLSDACSEC6211-LLSDACSBC6211
LLSDACSBC6211:
	.uleb128 LEHB29-LCOLDB12
	.uleb128 LEHE29-LEHB29
	.uleb128 0
	.uleb128 0
LLSDACSEC6211:
	.section	.text.unlikely,"x"
	.text
	.section	.text.unlikely,"x"
LCOLDE12:
	.text
LHOTE12:
	.section	.text.unlikely,"x"
LCOLDB13:
	.text
LHOTB13:
	.p2align 4,,15
	.globl	__ZN8Palmtree4Math4Core8Internal29PMC_GreatestCommonDivisor_X_XEPNS2_21__tag_PMC_HANDLE_UINTES4_@8
	.def	__ZN8Palmtree4Math4Core8Internal29PMC_GreatestCommonDivisor_X_XEPNS2_21__tag_PMC_HANDLE_UINTES4_@8;	.scl	2;	.type	32;	.endef
__ZN8Palmtree4Math4Core8Internal29PMC_GreatestCommonDivisor_X_XEPNS2_21__tag_PMC_HANDLE_UINTES4_@8:
LFB6212:
	.cfi_startproc
	.cfi_personality 0,___gxx_personality_v0
	.cfi_lsda 0,LLSDA6212
	pushl	%ebp
	.cfi_def_cfa_offset 8
	.cfi_offset 5, -8
	movl	%esp, %ebp
	.cfi_def_cfa_register 5
	pushl	%edi
	pushl	%esi
	pushl	%ebx
	subl	$124, %esp
	.cfi_offset 7, -12
	.cfi_offset 6, -16
	.cfi_offset 3, -20
	movl	8(%ebp), %esi
	movl	12(%ebp), %ebx
	testl	%esi, %esi
	je	L173
	testl	%ebx, %ebx
	je	L174
	movl	%esi, (%esp)
LEHB30:
	call	__ZN8Palmtree4Math4Core8Internal11CheckNumberEPNS2_19__tag_NUMBER_HEADERE
	movl	%ebx, (%esp)
	call	__ZN8Palmtree4Math4Core8Internal11CheckNumberEPNS2_19__tag_NUMBER_HEADERE
	leal	-56(%ebp), %ecx
	call	__ZN8Palmtree4Math4Core8Internal18ResourceHolderUINTC1Ev
LEHE30:
	testb	$1, 4(%esi)
	jne	L175
	testb	$1, 4(%ebx)
	je	L155
	movl	%esi, (%esp)
LEHB31:
	call	__ZN8Palmtree4Math4Core8Internal15DuplicateNumberEPNS2_19__tag_NUMBER_HEADERE
L171:
	movl	%eax, -76(%ebp)
L154:
	movl	-76(%ebp), %edi
	leal	-56(%ebp), %ecx
	movl	%edi, (%esp)
	call	__ZN8Palmtree4Math4Core8Internal18ResourceHolderUINT10HookNumberEPNS2_19__tag_NUMBER_HEADERE
	subl	$4, %esp
	leal	-56(%ebp), %ecx
	movl	%edi, (%esp)
	call	__ZN8Palmtree4Math4Core8Internal18ResourceHolderUINT12UnlinkNumberEPNS2_19__tag_NUMBER_HEADERE
	subl	$4, %esp
	leal	-56(%ebp), %ecx
	call	__ZN8Palmtree4Math4Core8Internal18ResourceHolderUINTD1Ev
	movl	-76(%ebp), %eax
	leal	-12(%ebp), %esp
	popl	%ebx
	.cfi_remember_state
	.cfi_restore 3
	popl	%esi
	.cfi_restore 6
	popl	%edi
	.cfi_restore 7
	popl	%ebp
	.cfi_restore 5
	.cfi_def_cfa 4, 4
	ret	$8
	.p2align 4,,10
L175:
	.cfi_restore_state
	testb	$1, 4(%ebx)
	jne	L176
	movl	%ebx, (%esp)
	call	__ZN8Palmtree4Math4Core8Internal15DuplicateNumberEPNS2_19__tag_NUMBER_HEADERE
	jmp	L171
	.p2align 4,,10
L155:
	leal	-40(%ebp), %ecx
	call	__ZN8Palmtree4Math4Core8Internal18ResourceHolderUINTC1Ev
LEHE31:
	movl	20(%ebx), %ecx
	cmpl	%ecx, 20(%esi)
	cmovnb	20(%esi), %ecx
	movl	%ecx, -80(%ebp)
	cmpl	$32, %ecx
	jbe	L177
	movl	-80(%ebp), %edi
	leal	-40(%ebp), %ecx
	movl	%edi, (%esp)
LEHB32:
	call	__ZN8Palmtree4Math4Core8Internal18ResourceHolderUINT13AllocateBlockEj
	subl	$4, %esp
	leal	-40(%ebp), %ecx
	movl	%eax, -84(%ebp)
	movl	%edi, (%esp)
	call	__ZN8Palmtree4Math4Core8Internal18ResourceHolderUINT13AllocateBlockEj
	subl	$4, %esp
	leal	-40(%ebp), %ecx
	movl	%eax, -88(%ebp)
	movl	%edi, (%esp)
	call	__ZN8Palmtree4Math4Core8Internal18ResourceHolderUINT14AllocateNumberEj
	movl	24(%ebx), %edx
	subl	$4, %esp
	movl	16(%esi), %ecx
	movl	%eax, -76(%ebp)
	movl	24(%esi), %eax
	movl	36(%esi), %esi
	movl	%edx, -92(%ebp)
	cmpl	%edx, %eax
	cmovbe	%eax, %edx
	movl	%edx, -96(%ebp)
	testl	%eax, %eax
	jne	L178
	movl	-84(%ebp), %edi
/APP
 # 1773 "C:/GNU/MINGW64/i686-8.1.0-win32-dwarf-rt_v6-rev0/mingw32/i686-w64-mingw32/include/psdk_inc/intrin-impl.h" 1
	rep movsd
 # 0 "" 2
/NO_APP
L159:
	movl	-92(%ebp), %eax
	movl	16(%ebx), %ecx
	movl	36(%ebx), %esi
	testl	%eax, %eax
	jne	L179
	movl	-88(%ebp), %edi
/APP
 # 1773 "C:/GNU/MINGW64/i686-8.1.0-win32-dwarf-rt_v6-rev0/mingw32/i686-w64-mingw32/include/psdk_inc/intrin-impl.h" 1
	rep movsd
 # 0 "" 2
/NO_APP
L161:
	movl	-76(%ebp), %ebx
	leal	-60(%ebp), %eax
	movl	-80(%ebp), %ecx
	movl	-88(%ebp), %edi
	movl	-84(%ebp), %esi
	movl	%eax, 4(%esp)
	movl	36(%ebx), %eax
	addl	$31, %ecx
	shrl	$5, %ecx
	movl	%edi, %edx
	movl	%eax, (%esp)
	movl	%esi, %eax
	call	__ZN8Palmtree4Math4Core8InternalL25GreatestCommonDivisor_ImpEPjS3_jS3_S3_
	movl	%esi, (%esp)
	leal	-40(%ebp), %ecx
	call	__ZN8Palmtree4Math4Core8Internal18ResourceHolderUINT10CheckBlockEPj
	subl	$4, %esp
	leal	-40(%ebp), %ecx
	movl	%edi, (%esp)
	call	__ZN8Palmtree4Math4Core8Internal18ResourceHolderUINT10CheckBlockEPj
	subl	$4, %esp
	leal	-40(%ebp), %ecx
	movl	%ebx, (%esp)
	call	__ZN8Palmtree4Math4Core8Internal18ResourceHolderUINT11CheckNumberEPNS2_19__tag_NUMBER_HEADERE
	subl	$4, %esp
	leal	-40(%ebp), %ecx
	movl	%edi, (%esp)
	call	__ZN8Palmtree4Math4Core8Internal18ResourceHolderUINT15DeallocateBlockEPj
	subl	$4, %esp
	leal	-40(%ebp), %ecx
	movl	%esi, (%esp)
	call	__ZN8Palmtree4Math4Core8Internal18ResourceHolderUINT15DeallocateBlockEPj
	movl	-96(%ebp), %edx
	subl	$4, %esp
	movl	36(%ebx), %eax
	movl	$1, 16(%esp)
	movl	%edx, 8(%esp)
	movl	-60(%ebp), %edx
	movl	%eax, 12(%esp)
	movl	%edx, 4(%esp)
	movl	%eax, (%esp)
	call	__ZN8Palmtree4Math4Core8Internal13LeftShift_ImpEPjjjS3_i
	movl	%ebx, (%esp)
	leal	-40(%ebp), %ecx
	call	__ZN8Palmtree4Math4Core8Internal18ResourceHolderUINT11CheckNumberEPNS2_19__tag_NUMBER_HEADERE
	subl	$4, %esp
	movl	%ebx, (%esp)
	call	__ZN8Palmtree4Math4Core8Internal12CommitNumberEPNS2_19__tag_NUMBER_HEADERE
	movl	%ebx, (%esp)
	leal	-40(%ebp), %ecx
	call	__ZN8Palmtree4Math4Core8Internal18ResourceHolderUINT12UnlinkNumberEPNS2_19__tag_NUMBER_HEADERE
L170:
	subl	$4, %esp
	leal	-40(%ebp), %ecx
	call	__ZN8Palmtree4Math4Core8Internal18ResourceHolderUINTD1Ev
	jmp	L154
	.p2align 4,,10
L177:
	movl	$32, (%esp)
	leal	-40(%ebp), %ecx
	call	__ZN8Palmtree4Math4Core8Internal18ResourceHolderUINT14AllocateNumberEj
	movl	36(%eax), %edi
	movl	36(%ebx), %edx
	movl	%eax, -76(%ebp)
	subl	$4, %esp
	movl	36(%esi), %eax
	movl	(%edx), %edx
	movl	(%eax), %eax
	call	__ZN8Palmtree4Math4Core8InternalL28GreatestCommonDivisor_1W_ImpEjj
	movl	-76(%ebp), %esi
	movl	%eax, (%edi)
	leal	-40(%ebp), %ecx
	movl	%esi, (%esp)
	call	__ZN8Palmtree4Math4Core8Internal18ResourceHolderUINT11CheckNumberEPNS2_19__tag_NUMBER_HEADERE
	subl	$4, %esp
	movl	%esi, (%esp)
	call	__ZN8Palmtree4Math4Core8Internal12CommitNumberEPNS2_19__tag_NUMBER_HEADERE
	movl	%esi, (%esp)
	leal	-40(%ebp), %ecx
	call	__ZN8Palmtree4Math4Core8Internal18ResourceHolderUINT12UnlinkNumberEPNS2_19__tag_NUMBER_HEADERE
	jmp	L170
	.p2align 4,,10
L179:
	movl	-88(%ebp), %eax
	movl	$0, 16(%esp)
	movl	%ecx, 4(%esp)
	movl	%eax, 12(%esp)
	movl	-92(%ebp), %eax
	movl	%esi, (%esp)
	movl	%eax, 8(%esp)
	call	__ZN8Palmtree4Math4Core8Internal14RightShift_ImpEPjjjS3_i
	jmp	L161
	.p2align 4,,10
L178:
	movl	-84(%ebp), %edx
	movl	$0, 16(%esp)
	movl	%eax, 8(%esp)
	movl	%edx, 12(%esp)
	movl	%ecx, 4(%esp)
	movl	%esi, (%esp)
	call	__ZN8Palmtree4Math4Core8Internal14RightShift_ImpEPjjjS3_i
LEHE32:
	jmp	L159
L173:
	movl	$16, (%esp)
	call	___cxa_allocate_exception
	movl	$-2, 4(%eax)
	movl	$LC5, 8(%eax)
	movl	$LC8, 12(%eax)
L172:
	movl	$__ZTVN8Palmtree4Math4Core8Internal21ArgumentNullExceptionE+8, (%eax)
	movl	$__ZN8Palmtree4Math4Core8Internal21ArgumentNullExceptionD1Ev, 8(%esp)
	movl	$__ZTIN8Palmtree4Math4Core8Internal21ArgumentNullExceptionE, 4(%esp)
	movl	%eax, (%esp)
LEHB33:
	call	___cxa_throw
LEHE33:
L174:
	movl	$16, (%esp)
	call	___cxa_allocate_exception
	movl	$-2, 4(%eax)
	movl	$LC5, 8(%eax)
	movl	$LC6, 12(%eax)
	jmp	L172
L176:
	movl	$16, (%esp)
	call	___cxa_allocate_exception
	movl	$-6, 4(%eax)
	movl	$LC3, 8(%eax)
	movl	$0, 12(%eax)
	movl	$__ZTVN8Palmtree4Math4Core8Internal19ArithmeticExceptionE+8, (%eax)
	movl	$__ZN8Palmtree4Math4Core8Internal19ArithmeticExceptionD1Ev, 8(%esp)
	movl	$__ZTIN8Palmtree4Math4Core8Internal19ArithmeticExceptionE, 4(%esp)
	movl	%eax, (%esp)
LEHB34:
	call	___cxa_throw
LEHE34:
L166:
	movl	%eax, %ebx
	jmp	L163
L165:
	movl	%eax, %ebx
	jmp	L164
	.section	.gcc_except_table,"w"
LLSDA6212:
	.byte	0xff
	.byte	0xff
	.byte	0x1
	.uleb128 LLSDACSE6212-LLSDACSB6212
LLSDACSB6212:
	.uleb128 LEHB30-LFB6212
	.uleb128 LEHE30-LEHB30
	.uleb128 0
	.uleb128 0
	.uleb128 LEHB31-LFB6212
	.uleb128 LEHE31-LEHB31
	.uleb128 L165-LFB6212
	.uleb128 0
	.uleb128 LEHB32-LFB6212
	.uleb128 LEHE32-LEHB32
	.uleb128 L166-LFB6212
	.uleb128 0
	.uleb128 LEHB33-LFB6212
	.uleb128 LEHE33-LEHB33
	.uleb128 0
	.uleb128 0
	.uleb128 LEHB34-LFB6212
	.uleb128 LEHE34-LEHB34
	.uleb128 L165-LFB6212
	.uleb128 0
LLSDACSE6212:
	.text
	.cfi_endproc
	.section	.text.unlikely,"x"
	.cfi_startproc
	.cfi_personality 0,___gxx_personality_v0
	.cfi_lsda 0,LLSDAC6212
	.def	__ZN8Palmtree4Math4Core8Internal29PMC_GreatestCommonDivisor_X_XEPNS2_21__tag_PMC_HANDLE_UINTES4_@8.cold.7;	.scl	3;	.type	32;	.endef
__ZN8Palmtree4Math4Core8Internal29PMC_GreatestCommonDivisor_X_XEPNS2_21__tag_PMC_HANDLE_UINTES4_@8.cold.7:
L163:
	.cfi_def_cfa 5, 8
	.cfi_offset 3, -20
	.cfi_offset 5, -8
	.cfi_offset 6, -16
	.cfi_offset 7, -12
	leal	-40(%ebp), %ecx
	call	__ZN8Palmtree4Math4Core8Internal18ResourceHolderUINTD1Ev
L164:
	leal	-56(%ebp), %ecx
	call	__ZN8Palmtree4Math4Core8Internal18ResourceHolderUINTD1Ev
	movl	%ebx, (%esp)
LEHB35:
	call	__Unwind_Resume
LEHE35:
	.cfi_endproc
LFE6212:
	.section	.gcc_except_table,"w"
LLSDAC6212:
	.byte	0xff
	.byte	0xff
	.byte	0x1
	.uleb128 LLSDACSEC6212-LLSDACSBC6212
LLSDACSBC6212:
	.uleb128 LEHB35-LCOLDB13
	.uleb128 LEHE35-LEHB35
	.uleb128 0
	.uleb128 0
LLSDACSEC6212:
	.section	.text.unlikely,"x"
	.text
	.section	.text.unlikely,"x"
LCOLDE13:
	.text
LHOTE13:
	.globl	__ZTSSt9exception
	.section	.rdata$_ZTSSt9exception,"dr"
	.linkonce same_size
	.align 4
__ZTSSt9exception:
	.ascii "St9exception\0"
	.globl	__ZTISt9exception
	.section	.rdata$_ZTISt9exception,"dr"
	.linkonce same_size
	.align 4
__ZTISt9exception:
	.long	__ZTVN10__cxxabiv117__class_type_infoE+8
	.long	__ZTSSt9exception
	.globl	__ZTSN8Palmtree4Math4Core8Internal9ExceptionE
	.section	.rdata$_ZTSN8Palmtree4Math4Core8Internal9ExceptionE,"dr"
	.linkonce same_size
	.align 32
__ZTSN8Palmtree4Math4Core8Internal9ExceptionE:
	.ascii "N8Palmtree4Math4Core8Internal9ExceptionE\0"
	.globl	__ZTIN8Palmtree4Math4Core8Internal9ExceptionE
	.section	.rdata$_ZTIN8Palmtree4Math4Core8Internal9ExceptionE,"dr"
	.linkonce same_size
	.align 4
__ZTIN8Palmtree4Math4Core8Internal9ExceptionE:
	.long	__ZTVN10__cxxabiv121__vmi_class_type_infoE+8
	.long	__ZTSN8Palmtree4Math4Core8Internal9ExceptionE
	.long	0
	.long	1
	.long	__ZTISt9exception
	.long	0
	.globl	__ZTSN8Palmtree4Math4Core8Internal21ArgumentNullExceptionE
	.section	.rdata$_ZTSN8Palmtree4Math4Core8Internal21ArgumentNullExceptionE,"dr"
	.linkonce same_size
	.align 32
__ZTSN8Palmtree4Math4Core8Internal21ArgumentNullExceptionE:
	.ascii "N8Palmtree4Math4Core8Internal21ArgumentNullExceptionE\0"
	.globl	__ZTIN8Palmtree4Math4Core8Internal21ArgumentNullExceptionE
	.section	.rdata$_ZTIN8Palmtree4Math4Core8Internal21ArgumentNullExceptionE,"dr"
	.linkonce same_size
	.align 4
__ZTIN8Palmtree4Math4Core8Internal21ArgumentNullExceptionE:
	.long	__ZTVN10__cxxabiv120__si_class_type_infoE+8
	.long	__ZTSN8Palmtree4Math4Core8Internal21ArgumentNullExceptionE
	.long	__ZTIN8Palmtree4Math4Core8Internal9ExceptionE
	.globl	__ZTSN8Palmtree4Math4Core8Internal19ArithmeticExceptionE
	.section	.rdata$_ZTSN8Palmtree4Math4Core8Internal19ArithmeticExceptionE,"dr"
	.linkonce same_size
	.align 32
__ZTSN8Palmtree4Math4Core8Internal19ArithmeticExceptionE:
	.ascii "N8Palmtree4Math4Core8Internal19ArithmeticExceptionE\0"
	.globl	__ZTIN8Palmtree4Math4Core8Internal19ArithmeticExceptionE
	.section	.rdata$_ZTIN8Palmtree4Math4Core8Internal19ArithmeticExceptionE,"dr"
	.linkonce same_size
	.align 4
__ZTIN8Palmtree4Math4Core8Internal19ArithmeticExceptionE:
	.long	__ZTVN10__cxxabiv120__si_class_type_infoE+8
	.long	__ZTSN8Palmtree4Math4Core8Internal19ArithmeticExceptionE
	.long	__ZTIN8Palmtree4Math4Core8Internal9ExceptionE
	.globl	__ZTSN8Palmtree4Math4Core8Internal22InternalErrorExceptionE
	.section	.rdata$_ZTSN8Palmtree4Math4Core8Internal22InternalErrorExceptionE,"dr"
	.linkonce same_size
	.align 32
__ZTSN8Palmtree4Math4Core8Internal22InternalErrorExceptionE:
	.ascii "N8Palmtree4Math4Core8Internal22InternalErrorExceptionE\0"
	.globl	__ZTIN8Palmtree4Math4Core8Internal22InternalErrorExceptionE
	.section	.rdata$_ZTIN8Palmtree4Math4Core8Internal22InternalErrorExceptionE,"dr"
	.linkonce same_size
	.align 4
__ZTIN8Palmtree4Math4Core8Internal22InternalErrorExceptionE:
	.long	__ZTVN10__cxxabiv120__si_class_type_infoE+8
	.long	__ZTSN8Palmtree4Math4Core8Internal22InternalErrorExceptionE
	.long	__ZTIN8Palmtree4Math4Core8Internal9ExceptionE
	.globl	__ZTVN8Palmtree4Math4Core8Internal9ExceptionE
	.section	.rdata$_ZTVN8Palmtree4Math4Core8Internal9ExceptionE,"dr"
	.linkonce same_size
	.align 4
__ZTVN8Palmtree4Math4Core8Internal9ExceptionE:
	.long	0
	.long	__ZTIN8Palmtree4Math4Core8Internal9ExceptionE
	.long	__ZN8Palmtree4Math4Core8Internal9ExceptionD1Ev
	.long	__ZN8Palmtree4Math4Core8Internal9ExceptionD0Ev
	.long	__ZNKSt9exception4whatEv
	.globl	__ZTVN8Palmtree4Math4Core8Internal21ArgumentNullExceptionE
	.section	.rdata$_ZTVN8Palmtree4Math4Core8Internal21ArgumentNullExceptionE,"dr"
	.linkonce same_size
	.align 4
__ZTVN8Palmtree4Math4Core8Internal21ArgumentNullExceptionE:
	.long	0
	.long	__ZTIN8Palmtree4Math4Core8Internal21ArgumentNullExceptionE
	.long	__ZN8Palmtree4Math4Core8Internal21ArgumentNullExceptionD1Ev
	.long	__ZN8Palmtree4Math4Core8Internal21ArgumentNullExceptionD0Ev
	.long	__ZNKSt9exception4whatEv
	.globl	__ZTVN8Palmtree4Math4Core8Internal19ArithmeticExceptionE
	.section	.rdata$_ZTVN8Palmtree4Math4Core8Internal19ArithmeticExceptionE,"dr"
	.linkonce same_size
	.align 4
__ZTVN8Palmtree4Math4Core8Internal19ArithmeticExceptionE:
	.long	0
	.long	__ZTIN8Palmtree4Math4Core8Internal19ArithmeticExceptionE
	.long	__ZN8Palmtree4Math4Core8Internal19ArithmeticExceptionD1Ev
	.long	__ZN8Palmtree4Math4Core8Internal19ArithmeticExceptionD0Ev
	.long	__ZNKSt9exception4whatEv
	.globl	__ZTVN8Palmtree4Math4Core8Internal22InternalErrorExceptionE
	.section	.rdata$_ZTVN8Palmtree4Math4Core8Internal22InternalErrorExceptionE,"dr"
	.linkonce same_size
	.align 4
__ZTVN8Palmtree4Math4Core8Internal22InternalErrorExceptionE:
	.long	0
	.long	__ZTIN8Palmtree4Math4Core8Internal22InternalErrorExceptionE
	.long	__ZN8Palmtree4Math4Core8Internal22InternalErrorExceptionD1Ev
	.long	__ZN8Palmtree4Math4Core8Internal22InternalErrorExceptionD0Ev
	.long	__ZNKSt9exception4whatEv
	.ident	"GCC: (i686-win32-dwarf-rev0, Built by MinGW-W64 project) 8.1.0"
	.def	__ZNSt9exceptionD2Ev;	.scl	2;	.type	32;	.endef
	.def	__ZdlPvj;	.scl	2;	.type	32;	.endef
	.def	___cxa_allocate_exception;	.scl	2;	.type	32;	.endef
	.def	___cxa_throw;	.scl	2;	.type	32;	.endef
	.def	__ZN8Palmtree4Math4Core8Internal11Compare_ImpEPjS3_j;	.scl	2;	.type	32;	.endef
	.def	__ZN8Palmtree4Math4Core8Internal12Subtruct_ImpEPjjS3_jS3_j;	.scl	2;	.type	32;	.endef
	.def	__ZN8Palmtree4Math4Core8Internal14RightShift_ImpEPjjjS3_i;	.scl	2;	.type	32;	.endef
	.def	__ZN8Palmtree4Math4Core8Internal10From_I_ImpEj;	.scl	2;	.type	32;	.endef
	.def	__ZN8Palmtree4Math4Core8Internal15DuplicateNumberEPNS2_19__tag_NUMBER_HEADERE;	.scl	2;	.type	32;	.endef
	.def	__ZN8Palmtree4Math4Core8Internal18ResourceHolderUINTC1Ev;	.scl	2;	.type	32;	.endef
	.def	__ZN8Palmtree4Math4Core8Internal18ResourceHolderUINT13AllocateBlockEj;	.scl	2;	.type	32;	.endef
	.def	__ZN8Palmtree4Math4Core8Internal18ResourceHolderUINT14AllocateNumberEj;	.scl	2;	.type	32;	.endef
	.def	__ZN8Palmtree4Math4Core8Internal18ResourceHolderUINT10CheckBlockEPj;	.scl	2;	.type	32;	.endef
	.def	__ZN8Palmtree4Math4Core8Internal18ResourceHolderUINT11CheckNumberEPNS2_19__tag_NUMBER_HEADERE;	.scl	2;	.type	32;	.endef
	.def	__ZN8Palmtree4Math4Core8Internal18ResourceHolderUINT15DeallocateBlockEPj;	.scl	2;	.type	32;	.endef
	.def	__ZN8Palmtree4Math4Core8Internal13LeftShift_ImpEPjjjS3_i;	.scl	2;	.type	32;	.endef
	.def	__ZN8Palmtree4Math4Core8Internal12CommitNumberEPNS2_19__tag_NUMBER_HEADERE;	.scl	2;	.type	32;	.endef
	.def	__ZN8Palmtree4Math4Core8Internal18ResourceHolderUINT12UnlinkNumberEPNS2_19__tag_NUMBER_HEADERE;	.scl	2;	.type	32;	.endef
	.def	__ZN8Palmtree4Math4Core8Internal18ResourceHolderUINTD1Ev;	.scl	2;	.type	32;	.endef
	.def	__Unwind_Resume;	.scl	2;	.type	32;	.endef
	.def	__ZN8Palmtree4Math4Core8Internal11CheckNumberEPNS2_19__tag_NUMBER_HEADERE;	.scl	2;	.type	32;	.endef
	.def	__ZN8Palmtree4Math4Core8Internal18ResourceHolderUINT10HookNumberEPNS2_19__tag_NUMBER_HEADERE;	.scl	2;	.type	32;	.endef
	.def	__ZN8Palmtree4Math4Core8Internal10From_L_ImpEy;	.scl	2;	.type	32;	.endef
	.def	__ZNKSt9exception4whatEv;	.scl	2;	.type	32;	.endef
