; Listing generated by Microsoft (R) Optimizing Compiler Version 19.16.27027.1 

include listing.inc

INCLUDELIB MSVCRT
INCLUDELIB OLDNAMES

PUBLIC	PMCCS_UINT_Initialize
PUBLIC	PMCCS_GetConfigurationSettings
PUBLIC	PMCCS_IS_EVEN
PUBLIC	PMCCS_IS_ONE
PUBLIC	PMCCS_IS_POWER_OF_TWO
PUBLIC	PMCCS_IS_ZERO
PUBLIC	PMCCS_GET_HASH_CODE
PUBLIC	PMCCS_GetStatisticsInfo
PUBLIC	PMCCS_From_I
PUBLIC	PMCCS_From_L
PUBLIC	PMCCS_Dispose
PUBLIC	PMCCS_GetConstantValue_I
PUBLIC	PMCCS_FromByteArray
PUBLIC	PMCCS_ToByteArray
PUBLIC	PMCCS_Clone_X
PUBLIC	PMCCS_GetAllocatedMemorySize
PUBLIC	PMCCS_To_X_I
PUBLIC	PMCCS_To_X_L
PUBLIC	PMCCS_ToString
PUBLIC	PMCCS_Parse
PUBLIC	PMCCS_TryParse
PUBLIC	PMCCS_Add_I_X
PUBLIC	PMCCS_Add_L_X
PUBLIC	PMCCS_Add_X_I
PUBLIC	PMCCS_Add_X_L
PUBLIC	PMCCS_Add_X_X
PUBLIC	PMCCS_Subtruct_I_X
PUBLIC	PMCCS_Subtruct_L_X
PUBLIC	PMCCS_Subtruct_X_I
PUBLIC	PMCCS_Subtruct_X_L
PUBLIC	PMCCS_Subtruct_X_X
PUBLIC	PMCCS_Multiply_I_X
PUBLIC	PMCCS_Multiply_L_X
PUBLIC	PMCCS_Multiply_X_I
PUBLIC	PMCCS_Multiply_X_L
PUBLIC	PMCCS_Multiply_X_X
PUBLIC	PMCCS_DivRem_I_X
PUBLIC	PMCCS_DivRem_L_X
PUBLIC	PMCCS_DivRem_X_I
PUBLIC	PMCCS_DivRem_X_L
PUBLIC	PMCCS_DivRem_X_X
PUBLIC	PMCCS_Remainder_I_X
PUBLIC	PMCCS_Remainder_L_X
PUBLIC	PMCCS_Remainder_X_I
PUBLIC	PMCCS_Remainder_X_L
PUBLIC	PMCCS_Remainder_X_X
PUBLIC	PMCCS_RightShift_X_I
PUBLIC	PMCCS_LeftShift_X_I
PUBLIC	PMCCS_BitwiseAnd_I_X
PUBLIC	PMCCS_BitwiseAnd_L_X
PUBLIC	PMCCS_BitwiseAnd_X_I
PUBLIC	PMCCS_BitwiseAnd_X_L
PUBLIC	PMCCS_BitwiseAnd_X_X
PUBLIC	PMCCS_BitwiseOr_I_X
PUBLIC	PMCCS_BitwiseOr_L_X
PUBLIC	PMCCS_BitwiseOr_X_I
PUBLIC	PMCCS_BitwiseOr_X_L
PUBLIC	PMCCS_BitwiseOr_X_X
PUBLIC	PMCCS_ExclusiveOr_I_X
PUBLIC	PMCCS_ExclusiveOr_L_X
PUBLIC	PMCCS_ExclusiveOr_X_I
PUBLIC	PMCCS_ExclusiveOr_X_L
PUBLIC	PMCCS_ExclusiveOr_X_X
PUBLIC	PMCCS_Compare_I_X
PUBLIC	PMCCS_Compare_L_X
PUBLIC	PMCCS_Compare_X_I
PUBLIC	PMCCS_Compare_X_L
PUBLIC	PMCCS_Compare_X_X
PUBLIC	PMCCS_Equals_I_X
PUBLIC	PMCCS_Equals_L_X
PUBLIC	PMCCS_Equals_X_I
PUBLIC	PMCCS_Equals_X_L
PUBLIC	PMCCS_Equals_X_X
PUBLIC	PMCCS_GreatestCommonDivisor_I_X
PUBLIC	PMCCS_GreatestCommonDivisor_L_X
PUBLIC	PMCCS_GreatestCommonDivisor_X_I
PUBLIC	PMCCS_GreatestCommonDivisor_X_L
PUBLIC	PMCCS_GreatestCommonDivisor_X_X
PUBLIC	PMCCS_Pow_X_I
PUBLIC	PMCCS_Pow_X_L
PUBLIC	PMCCS_ModPow_X_X_X
PUBLIC	??_R0?AVException@Internal@Core@Math@Palmtree@@@8 ; Palmtree::Math::Core::Internal::Exception `RTTI Type Descriptor'
EXTRN	PMC_UINT_Initialize:PROC
EXTRN	?PMC_GetConfigurationSettings@Internal@Core@Math@Palmtree@@YAHPEB_WPEA_WHPEAH@Z:PROC ; Palmtree::Math::Core::Internal::PMC_GetConfigurationSettings
EXTRN	?PMC_GetStatisticsInfo@Internal@Core@Math@Palmtree@@YAXPEAU__tag_PMC_STATISTICS_INFO@1234@@Z:PROC ; Palmtree::Math::Core::Internal::PMC_GetStatisticsInfo
EXTRN	?PMC_From_I@Internal@Core@Math@Palmtree@@YAPEAU__tag_PMC_HANDLE_UINT@1234@I@Z:PROC ; Palmtree::Math::Core::Internal::PMC_From_I
EXTRN	?PMC_From_L@Internal@Core@Math@Palmtree@@YAPEAU__tag_PMC_HANDLE_UINT@1234@_K@Z:PROC ; Palmtree::Math::Core::Internal::PMC_From_L
EXTRN	?PMC_Dispose@Internal@Core@Math@Palmtree@@YAXPEAU__tag_PMC_HANDLE_UINT@1234@@Z:PROC ; Palmtree::Math::Core::Internal::PMC_Dispose
EXTRN	?PMC_GetConstantValue_I@Internal@Core@Math@Palmtree@@YAPEAU__tag_PMC_HANDLE_UINT@1234@H@Z:PROC ; Palmtree::Math::Core::Internal::PMC_GetConstantValue_I
EXTRN	?PMC_FromByteArray@Internal@Core@Math@Palmtree@@YAPEAU__tag_PMC_HANDLE_UINT@1234@PEBE_K@Z:PROC ; Palmtree::Math::Core::Internal::PMC_FromByteArray
EXTRN	?PMC_ToByteArray@Internal@Core@Math@Palmtree@@YA_KPEAU__tag_PMC_HANDLE_UINT@1234@PEAE_K@Z:PROC ; Palmtree::Math::Core::Internal::PMC_ToByteArray
EXTRN	?PMC_Clone_X@Internal@Core@Math@Palmtree@@YAPEAU__tag_PMC_HANDLE_UINT@1234@PEAU51234@@Z:PROC ; Palmtree::Math::Core::Internal::PMC_Clone_X
EXTRN	?PMC_GetAllocatedMemorySize@Internal@Core@Math@Palmtree@@YA_KXZ:PROC ; Palmtree::Math::Core::Internal::PMC_GetAllocatedMemorySize
EXTRN	?PMC_To_X_I@Internal@Core@Math@Palmtree@@YAIPEAU__tag_PMC_HANDLE_UINT@1234@@Z:PROC ; Palmtree::Math::Core::Internal::PMC_To_X_I
EXTRN	?PMC_To_X_L@Internal@Core@Math@Palmtree@@YA_KPEAU__tag_PMC_HANDLE_UINT@1234@@Z:PROC ; Palmtree::Math::Core::Internal::PMC_To_X_L
EXTRN	?PMC_ToString@Internal@Core@Math@Palmtree@@YA_KPEAU__tag_PMC_HANDLE_UINT@1234@PEB_WPEBU__tag_PMC_NUMBER_FORMAT_INFO@1234@PEA_W_K@Z:PROC ; Palmtree::Math::Core::Internal::PMC_ToString
EXTRN	?PMC_TryParse@Internal@Core@Math@Palmtree@@YAHPEB_WHPEBU__tag_PMC_NUMBER_FORMAT_INFO@1234@PEAPEAU__tag_PMC_HANDLE_UINT@1234@PEAI@Z:PROC ; Palmtree::Math::Core::Internal::PMC_TryParse
EXTRN	?PMC_Add_I_X@Internal@Core@Math@Palmtree@@YAPEAU__tag_PMC_HANDLE_UINT@1234@IPEAU51234@@Z:PROC ; Palmtree::Math::Core::Internal::PMC_Add_I_X
EXTRN	?PMC_Add_L_X@Internal@Core@Math@Palmtree@@YAPEAU__tag_PMC_HANDLE_UINT@1234@_KPEAU51234@@Z:PROC ; Palmtree::Math::Core::Internal::PMC_Add_L_X
EXTRN	?PMC_Add_X_I@Internal@Core@Math@Palmtree@@YAPEAU__tag_PMC_HANDLE_UINT@1234@PEAU51234@I@Z:PROC ; Palmtree::Math::Core::Internal::PMC_Add_X_I
EXTRN	?PMC_Add_X_L@Internal@Core@Math@Palmtree@@YAPEAU__tag_PMC_HANDLE_UINT@1234@PEAU51234@_K@Z:PROC ; Palmtree::Math::Core::Internal::PMC_Add_X_L
EXTRN	?PMC_Add_X_X@Internal@Core@Math@Palmtree@@YAPEAU__tag_PMC_HANDLE_UINT@1234@PEAU51234@0@Z:PROC ; Palmtree::Math::Core::Internal::PMC_Add_X_X
EXTRN	?PMC_Subtruct_I_X@Internal@Core@Math@Palmtree@@YAIIPEAU__tag_PMC_HANDLE_UINT@1234@@Z:PROC ; Palmtree::Math::Core::Internal::PMC_Subtruct_I_X
EXTRN	?PMC_Subtruct_L_X@Internal@Core@Math@Palmtree@@YA_K_KPEAU__tag_PMC_HANDLE_UINT@1234@@Z:PROC ; Palmtree::Math::Core::Internal::PMC_Subtruct_L_X
EXTRN	?PMC_Subtruct_X_I@Internal@Core@Math@Palmtree@@YAPEAU__tag_PMC_HANDLE_UINT@1234@PEAU51234@I@Z:PROC ; Palmtree::Math::Core::Internal::PMC_Subtruct_X_I
EXTRN	?PMC_Subtruct_X_L@Internal@Core@Math@Palmtree@@YAPEAU__tag_PMC_HANDLE_UINT@1234@PEAU51234@_K@Z:PROC ; Palmtree::Math::Core::Internal::PMC_Subtruct_X_L
EXTRN	?PMC_Subtruct_X_X@Internal@Core@Math@Palmtree@@YAPEAU__tag_PMC_HANDLE_UINT@1234@PEAU51234@0@Z:PROC ; Palmtree::Math::Core::Internal::PMC_Subtruct_X_X
EXTRN	?PMC_Multiply_I_X@Internal@Core@Math@Palmtree@@YAPEAU__tag_PMC_HANDLE_UINT@1234@IPEAU51234@@Z:PROC ; Palmtree::Math::Core::Internal::PMC_Multiply_I_X
EXTRN	?PMC_Multiply_L_X@Internal@Core@Math@Palmtree@@YAPEAU__tag_PMC_HANDLE_UINT@1234@_KPEAU51234@@Z:PROC ; Palmtree::Math::Core::Internal::PMC_Multiply_L_X
EXTRN	?PMC_Multiply_X_I@Internal@Core@Math@Palmtree@@YAPEAU__tag_PMC_HANDLE_UINT@1234@PEAU51234@I@Z:PROC ; Palmtree::Math::Core::Internal::PMC_Multiply_X_I
EXTRN	?PMC_Multiply_X_L@Internal@Core@Math@Palmtree@@YAPEAU__tag_PMC_HANDLE_UINT@1234@PEAU51234@_K@Z:PROC ; Palmtree::Math::Core::Internal::PMC_Multiply_X_L
EXTRN	?PMC_Multiply_X_X@Internal@Core@Math@Palmtree@@YAPEAU__tag_PMC_HANDLE_UINT@1234@PEAU51234@0@Z:PROC ; Palmtree::Math::Core::Internal::PMC_Multiply_X_X
EXTRN	?PMC_DivRem_I_X@Internal@Core@Math@Palmtree@@YAIIPEAU__tag_PMC_HANDLE_UINT@1234@PEAI@Z:PROC ; Palmtree::Math::Core::Internal::PMC_DivRem_I_X
EXTRN	?PMC_DivRem_L_X@Internal@Core@Math@Palmtree@@YA_K_KPEAU__tag_PMC_HANDLE_UINT@1234@PEA_K@Z:PROC ; Palmtree::Math::Core::Internal::PMC_DivRem_L_X
EXTRN	?PMC_DivRem_X_I@Internal@Core@Math@Palmtree@@YAIPEAU__tag_PMC_HANDLE_UINT@1234@IPEAPEAU51234@@Z:PROC ; Palmtree::Math::Core::Internal::PMC_DivRem_X_I
EXTRN	?PMC_DivRem_X_L@Internal@Core@Math@Palmtree@@YA_KPEAU__tag_PMC_HANDLE_UINT@1234@_KPEAPEAU51234@@Z:PROC ; Palmtree::Math::Core::Internal::PMC_DivRem_X_L
EXTRN	?PMC_DivRem_X_X@Internal@Core@Math@Palmtree@@YAPEAU__tag_PMC_HANDLE_UINT@1234@PEAU51234@0PEAPEAU51234@@Z:PROC ; Palmtree::Math::Core::Internal::PMC_DivRem_X_X
EXTRN	?PMC_RightShift_X_I@Internal@Core@Math@Palmtree@@YAPEAU__tag_PMC_HANDLE_UINT@1234@PEAU51234@H@Z:PROC ; Palmtree::Math::Core::Internal::PMC_RightShift_X_I
EXTRN	?PMC_LeftShift_X_I@Internal@Core@Math@Palmtree@@YAPEAU__tag_PMC_HANDLE_UINT@1234@PEAU51234@H@Z:PROC ; Palmtree::Math::Core::Internal::PMC_LeftShift_X_I
EXTRN	?PMC_BitwiseAnd_I_X@Internal@Core@Math@Palmtree@@YAIIPEAU__tag_PMC_HANDLE_UINT@1234@@Z:PROC ; Palmtree::Math::Core::Internal::PMC_BitwiseAnd_I_X
EXTRN	?PMC_BitwiseAnd_L_X@Internal@Core@Math@Palmtree@@YA_K_KPEAU__tag_PMC_HANDLE_UINT@1234@@Z:PROC ; Palmtree::Math::Core::Internal::PMC_BitwiseAnd_L_X
EXTRN	?PMC_BitwiseAnd_X_I@Internal@Core@Math@Palmtree@@YAIPEAU__tag_PMC_HANDLE_UINT@1234@I@Z:PROC ; Palmtree::Math::Core::Internal::PMC_BitwiseAnd_X_I
EXTRN	?PMC_BitwiseAnd_X_L@Internal@Core@Math@Palmtree@@YA_KPEAU__tag_PMC_HANDLE_UINT@1234@_K@Z:PROC ; Palmtree::Math::Core::Internal::PMC_BitwiseAnd_X_L
EXTRN	?PMC_BitwiseAnd_X_X@Internal@Core@Math@Palmtree@@YAPEAU__tag_PMC_HANDLE_UINT@1234@PEAU51234@0@Z:PROC ; Palmtree::Math::Core::Internal::PMC_BitwiseAnd_X_X
EXTRN	?PMC_BitwiseOr_I_X@Internal@Core@Math@Palmtree@@YAPEAU__tag_PMC_HANDLE_UINT@1234@IPEAU51234@@Z:PROC ; Palmtree::Math::Core::Internal::PMC_BitwiseOr_I_X
EXTRN	?PMC_BitwiseOr_L_X@Internal@Core@Math@Palmtree@@YAPEAU__tag_PMC_HANDLE_UINT@1234@_KPEAU51234@@Z:PROC ; Palmtree::Math::Core::Internal::PMC_BitwiseOr_L_X
EXTRN	?PMC_BitwiseOr_X_I@Internal@Core@Math@Palmtree@@YAPEAU__tag_PMC_HANDLE_UINT@1234@PEAU51234@I@Z:PROC ; Palmtree::Math::Core::Internal::PMC_BitwiseOr_X_I
EXTRN	?PMC_BitwiseOr_X_L@Internal@Core@Math@Palmtree@@YAPEAU__tag_PMC_HANDLE_UINT@1234@PEAU51234@_K@Z:PROC ; Palmtree::Math::Core::Internal::PMC_BitwiseOr_X_L
EXTRN	?PMC_BitwiseOr_X_X@Internal@Core@Math@Palmtree@@YAPEAU__tag_PMC_HANDLE_UINT@1234@PEAU51234@0@Z:PROC ; Palmtree::Math::Core::Internal::PMC_BitwiseOr_X_X
EXTRN	?PMC_ExclusiveOr_I_X@Internal@Core@Math@Palmtree@@YAPEAU__tag_PMC_HANDLE_UINT@1234@IPEAU51234@@Z:PROC ; Palmtree::Math::Core::Internal::PMC_ExclusiveOr_I_X
EXTRN	?PMC_ExclusiveOr_L_X@Internal@Core@Math@Palmtree@@YAPEAU__tag_PMC_HANDLE_UINT@1234@_KPEAU51234@@Z:PROC ; Palmtree::Math::Core::Internal::PMC_ExclusiveOr_L_X
EXTRN	?PMC_ExclusiveOr_X_I@Internal@Core@Math@Palmtree@@YAPEAU__tag_PMC_HANDLE_UINT@1234@PEAU51234@I@Z:PROC ; Palmtree::Math::Core::Internal::PMC_ExclusiveOr_X_I
EXTRN	?PMC_ExclusiveOr_X_L@Internal@Core@Math@Palmtree@@YAPEAU__tag_PMC_HANDLE_UINT@1234@PEAU51234@_K@Z:PROC ; Palmtree::Math::Core::Internal::PMC_ExclusiveOr_X_L
EXTRN	?PMC_ExclusiveOr_X_X@Internal@Core@Math@Palmtree@@YAPEAU__tag_PMC_HANDLE_UINT@1234@PEAU51234@0@Z:PROC ; Palmtree::Math::Core::Internal::PMC_ExclusiveOr_X_X
EXTRN	?PMC_Compare_I_X@Internal@Core@Math@Palmtree@@YAHIPEAU__tag_PMC_HANDLE_UINT@1234@@Z:PROC ; Palmtree::Math::Core::Internal::PMC_Compare_I_X
EXTRN	?PMC_Compare_L_X@Internal@Core@Math@Palmtree@@YAH_KPEAU__tag_PMC_HANDLE_UINT@1234@@Z:PROC ; Palmtree::Math::Core::Internal::PMC_Compare_L_X
EXTRN	?PMC_Compare_X_I@Internal@Core@Math@Palmtree@@YAHPEAU__tag_PMC_HANDLE_UINT@1234@I@Z:PROC ; Palmtree::Math::Core::Internal::PMC_Compare_X_I
EXTRN	?PMC_Compare_X_L@Internal@Core@Math@Palmtree@@YAHPEAU__tag_PMC_HANDLE_UINT@1234@_K@Z:PROC ; Palmtree::Math::Core::Internal::PMC_Compare_X_L
EXTRN	?PMC_Compare_X_X@Internal@Core@Math@Palmtree@@YAHPEAU__tag_PMC_HANDLE_UINT@1234@0@Z:PROC ; Palmtree::Math::Core::Internal::PMC_Compare_X_X
EXTRN	?PMC_Equals_I_X@Internal@Core@Math@Palmtree@@YAIIPEAU__tag_PMC_HANDLE_UINT@1234@@Z:PROC ; Palmtree::Math::Core::Internal::PMC_Equals_I_X
EXTRN	?PMC_Equals_L_X@Internal@Core@Math@Palmtree@@YAI_KPEAU__tag_PMC_HANDLE_UINT@1234@@Z:PROC ; Palmtree::Math::Core::Internal::PMC_Equals_L_X
EXTRN	?PMC_Equals_X_I@Internal@Core@Math@Palmtree@@YAIPEAU__tag_PMC_HANDLE_UINT@1234@I@Z:PROC ; Palmtree::Math::Core::Internal::PMC_Equals_X_I
EXTRN	?PMC_Equals_X_L@Internal@Core@Math@Palmtree@@YAIPEAU__tag_PMC_HANDLE_UINT@1234@_K@Z:PROC ; Palmtree::Math::Core::Internal::PMC_Equals_X_L
EXTRN	?PMC_Equals_X_X@Internal@Core@Math@Palmtree@@YAIPEAU__tag_PMC_HANDLE_UINT@1234@0@Z:PROC ; Palmtree::Math::Core::Internal::PMC_Equals_X_X
EXTRN	?PMC_GreatestCommonDivisor_I_X@Internal@Core@Math@Palmtree@@YAPEAU__tag_PMC_HANDLE_UINT@1234@IPEAU51234@@Z:PROC ; Palmtree::Math::Core::Internal::PMC_GreatestCommonDivisor_I_X
EXTRN	?PMC_GreatestCommonDivisor_L_X@Internal@Core@Math@Palmtree@@YAPEAU__tag_PMC_HANDLE_UINT@1234@_KPEAU51234@@Z:PROC ; Palmtree::Math::Core::Internal::PMC_GreatestCommonDivisor_L_X
EXTRN	?PMC_GreatestCommonDivisor_X_I@Internal@Core@Math@Palmtree@@YAPEAU__tag_PMC_HANDLE_UINT@1234@PEAU51234@I@Z:PROC ; Palmtree::Math::Core::Internal::PMC_GreatestCommonDivisor_X_I
EXTRN	?PMC_GreatestCommonDivisor_X_L@Internal@Core@Math@Palmtree@@YAPEAU__tag_PMC_HANDLE_UINT@1234@PEAU51234@_K@Z:PROC ; Palmtree::Math::Core::Internal::PMC_GreatestCommonDivisor_X_L
EXTRN	?PMC_GreatestCommonDivisor_X_X@Internal@Core@Math@Palmtree@@YAPEAU__tag_PMC_HANDLE_UINT@1234@PEAU51234@0@Z:PROC ; Palmtree::Math::Core::Internal::PMC_GreatestCommonDivisor_X_X
EXTRN	?PMC_Pow_X_I@Internal@Core@Math@Palmtree@@YAPEAU__tag_PMC_HANDLE_UINT@1234@PEAU51234@I@Z:PROC ; Palmtree::Math::Core::Internal::PMC_Pow_X_I
EXTRN	?PMC_Pow_X_L@Internal@Core@Math@Palmtree@@YAPEAU__tag_PMC_HANDLE_UINT@1234@PEAU51234@_K@Z:PROC ; Palmtree::Math::Core::Internal::PMC_Pow_X_L
EXTRN	?PMC_ModPow_X_X_X@Internal@Core@Math@Palmtree@@YAPEAU__tag_PMC_HANDLE_UINT@1234@PEAU51234@00@Z:PROC ; Palmtree::Math::Core::Internal::PMC_ModPow_X_X_X
EXTRN	__CxxFrameHandler3:PROC
EXTRN	??_7type_info@@6B@:BYTE				; type_info::`vftable'
;	COMDAT pdata
pdata	SEGMENT
$pdata$PMCCS_UINT_Initialize DD imagerel $LN4
	DD	imagerel $LN4+24
	DD	imagerel $unwind$PMCCS_UINT_Initialize
pdata	ENDS
;	COMDAT pdata
pdata	SEGMENT
$pdata$PMCCS_IS_EVEN DD imagerel $LN15
	DD	imagerel $LN15+57
	DD	imagerel $unwind$PMCCS_IS_EVEN
pdata	ENDS
;	COMDAT pdata
pdata	SEGMENT
$pdata$PMCCS_IS_EVEN$catch$0 DD imagerel PMCCS_IS_EVEN$catch$0
	DD	imagerel PMCCS_IS_EVEN$catch$0+29
	DD	imagerel $unwind$PMCCS_IS_EVEN$catch$0
pdata	ENDS
;	COMDAT pdata
pdata	SEGMENT
$pdata$PMCCS_IS_ONE DD imagerel $LN15
	DD	imagerel $LN15+56
	DD	imagerel $unwind$PMCCS_IS_ONE
pdata	ENDS
;	COMDAT pdata
pdata	SEGMENT
$pdata$PMCCS_IS_ONE$catch$0 DD imagerel PMCCS_IS_ONE$catch$0
	DD	imagerel PMCCS_IS_ONE$catch$0+29
	DD	imagerel $unwind$PMCCS_IS_ONE$catch$0
pdata	ENDS
;	COMDAT pdata
pdata	SEGMENT
$pdata$PMCCS_IS_POWER_OF_TWO DD imagerel $LN15
	DD	imagerel $LN15+57
	DD	imagerel $unwind$PMCCS_IS_POWER_OF_TWO
pdata	ENDS
;	COMDAT pdata
pdata	SEGMENT
$pdata$PMCCS_IS_POWER_OF_TWO$catch$0 DD imagerel PMCCS_IS_POWER_OF_TWO$catch$0
	DD	imagerel PMCCS_IS_POWER_OF_TWO$catch$0+29
	DD	imagerel $unwind$PMCCS_IS_POWER_OF_TWO$catch$0
pdata	ENDS
;	COMDAT pdata
pdata	SEGMENT
$pdata$PMCCS_IS_ZERO DD imagerel $LN15
	DD	imagerel $LN15+54
	DD	imagerel $unwind$PMCCS_IS_ZERO
pdata	ENDS
;	COMDAT pdata
pdata	SEGMENT
$pdata$PMCCS_IS_ZERO$catch$0 DD imagerel PMCCS_IS_ZERO$catch$0
	DD	imagerel PMCCS_IS_ZERO$catch$0+29
	DD	imagerel $unwind$PMCCS_IS_ZERO$catch$0
pdata	ENDS
;	COMDAT pdata
pdata	SEGMENT
$pdata$PMCCS_GET_HASH_CODE DD imagerel $LN15
	DD	imagerel $LN15+50
	DD	imagerel $unwind$PMCCS_GET_HASH_CODE
pdata	ENDS
;	COMDAT pdata
pdata	SEGMENT
$pdata$PMCCS_GET_HASH_CODE$catch$0 DD imagerel PMCCS_GET_HASH_CODE$catch$0
	DD	imagerel PMCCS_GET_HASH_CODE$catch$0+29
	DD	imagerel $unwind$PMCCS_GET_HASH_CODE$catch$0
pdata	ENDS
;	COMDAT pdata
pdata	SEGMENT
$pdata$PMCCS_From_I DD imagerel $LN13
	DD	imagerel $LN13+55
	DD	imagerel $unwind$PMCCS_From_I
pdata	ENDS
;	COMDAT pdata
pdata	SEGMENT
$pdata$PMCCS_From_I$catch$0 DD imagerel PMCCS_From_I$catch$0
	DD	imagerel PMCCS_From_I$catch$0+37
	DD	imagerel $unwind$PMCCS_From_I$catch$0
pdata	ENDS
;	COMDAT pdata
pdata	SEGMENT
$pdata$PMCCS_From_L DD imagerel $LN13
	DD	imagerel $LN13+55
	DD	imagerel $unwind$PMCCS_From_L
pdata	ENDS
;	COMDAT pdata
pdata	SEGMENT
$pdata$PMCCS_From_L$catch$0 DD imagerel PMCCS_From_L$catch$0
	DD	imagerel PMCCS_From_L$catch$0+37
	DD	imagerel $unwind$PMCCS_From_L$catch$0
pdata	ENDS
;	COMDAT pdata
pdata	SEGMENT
$pdata$PMCCS_Dispose DD imagerel $LN13
	DD	imagerel $LN13+45
	DD	imagerel $unwind$PMCCS_Dispose
pdata	ENDS
;	COMDAT pdata
pdata	SEGMENT
$pdata$PMCCS_Dispose$catch$0 DD imagerel PMCCS_Dispose$catch$0
	DD	imagerel PMCCS_Dispose$catch$0+37
	DD	imagerel $unwind$PMCCS_Dispose$catch$0
pdata	ENDS
;	COMDAT pdata
pdata	SEGMENT
$pdata$PMCCS_GetConstantValue_I DD imagerel $LN13
	DD	imagerel $LN13+55
	DD	imagerel $unwind$PMCCS_GetConstantValue_I
pdata	ENDS
;	COMDAT pdata
pdata	SEGMENT
$pdata$PMCCS_GetConstantValue_I$catch$0 DD imagerel PMCCS_GetConstantValue_I$catch$0
	DD	imagerel PMCCS_GetConstantValue_I$catch$0+37
	DD	imagerel $unwind$PMCCS_GetConstantValue_I$catch$0
pdata	ENDS
;	COMDAT pdata
pdata	SEGMENT
$pdata$PMCCS_FromByteArray DD imagerel $LN13
	DD	imagerel $LN13+59
	DD	imagerel $unwind$PMCCS_FromByteArray
pdata	ENDS
;	COMDAT pdata
pdata	SEGMENT
$pdata$PMCCS_FromByteArray$catch$0 DD imagerel PMCCS_FromByteArray$catch$0
	DD	imagerel PMCCS_FromByteArray$catch$0+37
	DD	imagerel $unwind$PMCCS_FromByteArray$catch$0
pdata	ENDS
;	COMDAT pdata
pdata	SEGMENT
$pdata$PMCCS_ToByteArray DD imagerel $LN14
	DD	imagerel $LN14+78
	DD	imagerel $unwind$PMCCS_ToByteArray
pdata	ENDS
;	COMDAT pdata
pdata	SEGMENT
$pdata$PMCCS_ToByteArray$catch$0 DD imagerel PMCCS_ToByteArray$catch$0
	DD	imagerel PMCCS_ToByteArray$catch$0+37
	DD	imagerel $unwind$PMCCS_ToByteArray$catch$0
pdata	ENDS
;	COMDAT pdata
pdata	SEGMENT
$pdata$PMCCS_Clone_X DD imagerel $LN13
	DD	imagerel $LN13+55
	DD	imagerel $unwind$PMCCS_Clone_X
pdata	ENDS
;	COMDAT pdata
pdata	SEGMENT
$pdata$PMCCS_Clone_X$catch$0 DD imagerel PMCCS_Clone_X$catch$0
	DD	imagerel PMCCS_Clone_X$catch$0+37
	DD	imagerel $unwind$PMCCS_Clone_X$catch$0
pdata	ENDS
;	COMDAT pdata
pdata	SEGMENT
$pdata$PMCCS_GetAllocatedMemorySize DD imagerel $LN13
	DD	imagerel $LN13+55
	DD	imagerel $unwind$PMCCS_GetAllocatedMemorySize
pdata	ENDS
;	COMDAT pdata
pdata	SEGMENT
$pdata$PMCCS_GetAllocatedMemorySize$catch$0 DD imagerel PMCCS_GetAllocatedMemorySize$catch$0
	DD	imagerel PMCCS_GetAllocatedMemorySize$catch$0+37
	DD	imagerel $unwind$PMCCS_GetAllocatedMemorySize$catch$0
pdata	ENDS
;	COMDAT pdata
pdata	SEGMENT
$pdata$PMCCS_To_X_I DD imagerel $LN13
	DD	imagerel $LN13+54
	DD	imagerel $unwind$PMCCS_To_X_I
pdata	ENDS
;	COMDAT pdata
pdata	SEGMENT
$pdata$PMCCS_To_X_I$catch$0 DD imagerel PMCCS_To_X_I$catch$0
	DD	imagerel PMCCS_To_X_I$catch$0+37
	DD	imagerel $unwind$PMCCS_To_X_I$catch$0
pdata	ENDS
;	COMDAT pdata
pdata	SEGMENT
$pdata$PMCCS_To_X_L DD imagerel $LN13
	DD	imagerel $LN13+55
	DD	imagerel $unwind$PMCCS_To_X_L
pdata	ENDS
;	COMDAT pdata
pdata	SEGMENT
$pdata$PMCCS_To_X_L$catch$0 DD imagerel PMCCS_To_X_L$catch$0
	DD	imagerel PMCCS_To_X_L$catch$0+37
	DD	imagerel $unwind$PMCCS_To_X_L$catch$0
pdata	ENDS
;	COMDAT pdata
pdata	SEGMENT
$pdata$PMCCS_ToString DD imagerel $LN14
	DD	imagerel $LN14+86
	DD	imagerel $unwind$PMCCS_ToString
pdata	ENDS
;	COMDAT pdata
pdata	SEGMENT
$pdata$PMCCS_ToString$catch$0 DD imagerel PMCCS_ToString$catch$0
	DD	imagerel PMCCS_ToString$catch$0+37
	DD	imagerel $unwind$PMCCS_ToString$catch$0
pdata	ENDS
;	COMDAT pdata
pdata	SEGMENT
$pdata$PMCCS_Parse DD imagerel $LN15
	DD	imagerel $LN15+78
	DD	imagerel $unwind$PMCCS_Parse
pdata	ENDS
;	COMDAT pdata
pdata	SEGMENT
$pdata$PMCCS_Parse$catch$0 DD imagerel PMCCS_Parse$catch$0
	DD	imagerel PMCCS_Parse$catch$0+37
	DD	imagerel $unwind$PMCCS_Parse$catch$0
pdata	ENDS
;	COMDAT pdata
pdata	SEGMENT
$pdata$PMCCS_TryParse DD imagerel $LN14
	DD	imagerel $LN14+60
	DD	imagerel $unwind$PMCCS_TryParse
pdata	ENDS
;	COMDAT pdata
pdata	SEGMENT
$pdata$PMCCS_TryParse$catch$0 DD imagerel PMCCS_TryParse$catch$0
	DD	imagerel PMCCS_TryParse$catch$0+37
	DD	imagerel $unwind$PMCCS_TryParse$catch$0
pdata	ENDS
;	COMDAT pdata
pdata	SEGMENT
$pdata$PMCCS_Add_I_X DD imagerel $LN13
	DD	imagerel $LN13+56
	DD	imagerel $unwind$PMCCS_Add_I_X
pdata	ENDS
;	COMDAT pdata
pdata	SEGMENT
$pdata$PMCCS_Add_I_X$catch$0 DD imagerel PMCCS_Add_I_X$catch$0
	DD	imagerel PMCCS_Add_I_X$catch$0+37
	DD	imagerel $unwind$PMCCS_Add_I_X$catch$0
pdata	ENDS
;	COMDAT pdata
pdata	SEGMENT
$pdata$PMCCS_Add_L_X DD imagerel $LN13
	DD	imagerel $LN13+56
	DD	imagerel $unwind$PMCCS_Add_L_X
pdata	ENDS
;	COMDAT pdata
pdata	SEGMENT
$pdata$PMCCS_Add_L_X$catch$0 DD imagerel PMCCS_Add_L_X$catch$0
	DD	imagerel PMCCS_Add_L_X$catch$0+37
	DD	imagerel $unwind$PMCCS_Add_L_X$catch$0
pdata	ENDS
;	COMDAT pdata
pdata	SEGMENT
$pdata$PMCCS_Add_X_I DD imagerel $LN13
	DD	imagerel $LN13+56
	DD	imagerel $unwind$PMCCS_Add_X_I
pdata	ENDS
;	COMDAT pdata
pdata	SEGMENT
$pdata$PMCCS_Add_X_I$catch$0 DD imagerel PMCCS_Add_X_I$catch$0
	DD	imagerel PMCCS_Add_X_I$catch$0+37
	DD	imagerel $unwind$PMCCS_Add_X_I$catch$0
pdata	ENDS
;	COMDAT pdata
pdata	SEGMENT
$pdata$PMCCS_Add_X_L DD imagerel $LN13
	DD	imagerel $LN13+56
	DD	imagerel $unwind$PMCCS_Add_X_L
pdata	ENDS
;	COMDAT pdata
pdata	SEGMENT
$pdata$PMCCS_Add_X_L$catch$0 DD imagerel PMCCS_Add_X_L$catch$0
	DD	imagerel PMCCS_Add_X_L$catch$0+37
	DD	imagerel $unwind$PMCCS_Add_X_L$catch$0
pdata	ENDS
;	COMDAT pdata
pdata	SEGMENT
$pdata$PMCCS_Add_X_X DD imagerel $LN13
	DD	imagerel $LN13+56
	DD	imagerel $unwind$PMCCS_Add_X_X
pdata	ENDS
;	COMDAT pdata
pdata	SEGMENT
$pdata$PMCCS_Add_X_X$catch$0 DD imagerel PMCCS_Add_X_X$catch$0
	DD	imagerel PMCCS_Add_X_X$catch$0+37
	DD	imagerel $unwind$PMCCS_Add_X_X$catch$0
pdata	ENDS
;	COMDAT pdata
pdata	SEGMENT
$pdata$PMCCS_Subtruct_I_X DD imagerel $LN13
	DD	imagerel $LN13+55
	DD	imagerel $unwind$PMCCS_Subtruct_I_X
pdata	ENDS
;	COMDAT pdata
pdata	SEGMENT
$pdata$PMCCS_Subtruct_I_X$catch$0 DD imagerel PMCCS_Subtruct_I_X$catch$0
	DD	imagerel PMCCS_Subtruct_I_X$catch$0+37
	DD	imagerel $unwind$PMCCS_Subtruct_I_X$catch$0
pdata	ENDS
;	COMDAT pdata
pdata	SEGMENT
$pdata$PMCCS_Subtruct_L_X DD imagerel $LN13
	DD	imagerel $LN13+56
	DD	imagerel $unwind$PMCCS_Subtruct_L_X
pdata	ENDS
;	COMDAT pdata
pdata	SEGMENT
$pdata$PMCCS_Subtruct_L_X$catch$0 DD imagerel PMCCS_Subtruct_L_X$catch$0
	DD	imagerel PMCCS_Subtruct_L_X$catch$0+37
	DD	imagerel $unwind$PMCCS_Subtruct_L_X$catch$0
pdata	ENDS
;	COMDAT pdata
pdata	SEGMENT
$pdata$PMCCS_Subtruct_X_I DD imagerel $LN13
	DD	imagerel $LN13+56
	DD	imagerel $unwind$PMCCS_Subtruct_X_I
pdata	ENDS
;	COMDAT pdata
pdata	SEGMENT
$pdata$PMCCS_Subtruct_X_I$catch$0 DD imagerel PMCCS_Subtruct_X_I$catch$0
	DD	imagerel PMCCS_Subtruct_X_I$catch$0+37
	DD	imagerel $unwind$PMCCS_Subtruct_X_I$catch$0
pdata	ENDS
;	COMDAT pdata
pdata	SEGMENT
$pdata$PMCCS_Subtruct_X_L DD imagerel $LN13
	DD	imagerel $LN13+56
	DD	imagerel $unwind$PMCCS_Subtruct_X_L
pdata	ENDS
;	COMDAT pdata
pdata	SEGMENT
$pdata$PMCCS_Subtruct_X_L$catch$0 DD imagerel PMCCS_Subtruct_X_L$catch$0
	DD	imagerel PMCCS_Subtruct_X_L$catch$0+37
	DD	imagerel $unwind$PMCCS_Subtruct_X_L$catch$0
pdata	ENDS
;	COMDAT pdata
pdata	SEGMENT
$pdata$PMCCS_Subtruct_X_X DD imagerel $LN13
	DD	imagerel $LN13+56
	DD	imagerel $unwind$PMCCS_Subtruct_X_X
pdata	ENDS
;	COMDAT pdata
pdata	SEGMENT
$pdata$PMCCS_Subtruct_X_X$catch$0 DD imagerel PMCCS_Subtruct_X_X$catch$0
	DD	imagerel PMCCS_Subtruct_X_X$catch$0+37
	DD	imagerel $unwind$PMCCS_Subtruct_X_X$catch$0
pdata	ENDS
;	COMDAT pdata
pdata	SEGMENT
$pdata$PMCCS_Multiply_I_X DD imagerel $LN13
	DD	imagerel $LN13+56
	DD	imagerel $unwind$PMCCS_Multiply_I_X
pdata	ENDS
;	COMDAT pdata
pdata	SEGMENT
$pdata$PMCCS_Multiply_I_X$catch$0 DD imagerel PMCCS_Multiply_I_X$catch$0
	DD	imagerel PMCCS_Multiply_I_X$catch$0+37
	DD	imagerel $unwind$PMCCS_Multiply_I_X$catch$0
pdata	ENDS
;	COMDAT pdata
pdata	SEGMENT
$pdata$PMCCS_Multiply_L_X DD imagerel $LN13
	DD	imagerel $LN13+56
	DD	imagerel $unwind$PMCCS_Multiply_L_X
pdata	ENDS
;	COMDAT pdata
pdata	SEGMENT
$pdata$PMCCS_Multiply_L_X$catch$0 DD imagerel PMCCS_Multiply_L_X$catch$0
	DD	imagerel PMCCS_Multiply_L_X$catch$0+37
	DD	imagerel $unwind$PMCCS_Multiply_L_X$catch$0
pdata	ENDS
;	COMDAT pdata
pdata	SEGMENT
$pdata$PMCCS_Multiply_X_I DD imagerel $LN13
	DD	imagerel $LN13+56
	DD	imagerel $unwind$PMCCS_Multiply_X_I
pdata	ENDS
;	COMDAT pdata
pdata	SEGMENT
$pdata$PMCCS_Multiply_X_I$catch$0 DD imagerel PMCCS_Multiply_X_I$catch$0
	DD	imagerel PMCCS_Multiply_X_I$catch$0+37
	DD	imagerel $unwind$PMCCS_Multiply_X_I$catch$0
pdata	ENDS
;	COMDAT pdata
pdata	SEGMENT
$pdata$PMCCS_Multiply_X_L DD imagerel $LN13
	DD	imagerel $LN13+56
	DD	imagerel $unwind$PMCCS_Multiply_X_L
pdata	ENDS
;	COMDAT pdata
pdata	SEGMENT
$pdata$PMCCS_Multiply_X_L$catch$0 DD imagerel PMCCS_Multiply_X_L$catch$0
	DD	imagerel PMCCS_Multiply_X_L$catch$0+37
	DD	imagerel $unwind$PMCCS_Multiply_X_L$catch$0
pdata	ENDS
;	COMDAT pdata
pdata	SEGMENT
$pdata$PMCCS_Multiply_X_X DD imagerel $LN13
	DD	imagerel $LN13+56
	DD	imagerel $unwind$PMCCS_Multiply_X_X
pdata	ENDS
;	COMDAT pdata
pdata	SEGMENT
$pdata$PMCCS_Multiply_X_X$catch$0 DD imagerel PMCCS_Multiply_X_X$catch$0
	DD	imagerel PMCCS_Multiply_X_X$catch$0+37
	DD	imagerel $unwind$PMCCS_Multiply_X_X$catch$0
pdata	ENDS
;	COMDAT pdata
pdata	SEGMENT
$pdata$PMCCS_DivRem_I_X DD imagerel $LN13
	DD	imagerel $LN13+55
	DD	imagerel $unwind$PMCCS_DivRem_I_X
pdata	ENDS
;	COMDAT pdata
pdata	SEGMENT
$pdata$PMCCS_DivRem_I_X$catch$0 DD imagerel PMCCS_DivRem_I_X$catch$0
	DD	imagerel PMCCS_DivRem_I_X$catch$0+37
	DD	imagerel $unwind$PMCCS_DivRem_I_X$catch$0
pdata	ENDS
;	COMDAT pdata
pdata	SEGMENT
$pdata$PMCCS_DivRem_L_X DD imagerel $LN13
	DD	imagerel $LN13+56
	DD	imagerel $unwind$PMCCS_DivRem_L_X
pdata	ENDS
;	COMDAT pdata
pdata	SEGMENT
$pdata$PMCCS_DivRem_L_X$catch$0 DD imagerel PMCCS_DivRem_L_X$catch$0
	DD	imagerel PMCCS_DivRem_L_X$catch$0+37
	DD	imagerel $unwind$PMCCS_DivRem_L_X$catch$0
pdata	ENDS
;	COMDAT pdata
pdata	SEGMENT
$pdata$PMCCS_DivRem_X_I DD imagerel $LN13
	DD	imagerel $LN13+55
	DD	imagerel $unwind$PMCCS_DivRem_X_I
pdata	ENDS
;	COMDAT pdata
pdata	SEGMENT
$pdata$PMCCS_DivRem_X_I$catch$0 DD imagerel PMCCS_DivRem_X_I$catch$0
	DD	imagerel PMCCS_DivRem_X_I$catch$0+37
	DD	imagerel $unwind$PMCCS_DivRem_X_I$catch$0
pdata	ENDS
;	COMDAT pdata
pdata	SEGMENT
$pdata$PMCCS_DivRem_X_L DD imagerel $LN13
	DD	imagerel $LN13+56
	DD	imagerel $unwind$PMCCS_DivRem_X_L
pdata	ENDS
;	COMDAT pdata
pdata	SEGMENT
$pdata$PMCCS_DivRem_X_L$catch$0 DD imagerel PMCCS_DivRem_X_L$catch$0
	DD	imagerel PMCCS_DivRem_X_L$catch$0+37
	DD	imagerel $unwind$PMCCS_DivRem_X_L$catch$0
pdata	ENDS
;	COMDAT pdata
pdata	SEGMENT
$pdata$PMCCS_DivRem_X_X DD imagerel $LN13
	DD	imagerel $LN13+56
	DD	imagerel $unwind$PMCCS_DivRem_X_X
pdata	ENDS
;	COMDAT pdata
pdata	SEGMENT
$pdata$PMCCS_DivRem_X_X$catch$0 DD imagerel PMCCS_DivRem_X_X$catch$0
	DD	imagerel PMCCS_DivRem_X_X$catch$0+37
	DD	imagerel $unwind$PMCCS_DivRem_X_X$catch$0
pdata	ENDS
;	COMDAT pdata
pdata	SEGMENT
$pdata$PMCCS_Remainder_I_X DD imagerel $LN13
	DD	imagerel $LN13+58
	DD	imagerel $unwind$PMCCS_Remainder_I_X
pdata	ENDS
;	COMDAT pdata
pdata	SEGMENT
$pdata$PMCCS_Remainder_I_X$catch$0 DD imagerel PMCCS_Remainder_I_X$catch$0
	DD	imagerel PMCCS_Remainder_I_X$catch$0+37
	DD	imagerel $unwind$PMCCS_Remainder_I_X$catch$0
pdata	ENDS
;	COMDAT pdata
pdata	SEGMENT
$pdata$PMCCS_Remainder_L_X DD imagerel $LN13
	DD	imagerel $LN13+59
	DD	imagerel $unwind$PMCCS_Remainder_L_X
pdata	ENDS
;	COMDAT pdata
pdata	SEGMENT
$pdata$PMCCS_Remainder_L_X$catch$0 DD imagerel PMCCS_Remainder_L_X$catch$0
	DD	imagerel PMCCS_Remainder_L_X$catch$0+37
	DD	imagerel $unwind$PMCCS_Remainder_L_X$catch$0
pdata	ENDS
;	COMDAT pdata
pdata	SEGMENT
$pdata$PMCCS_Remainder_X_I DD imagerel $LN13
	DD	imagerel $LN13+58
	DD	imagerel $unwind$PMCCS_Remainder_X_I
pdata	ENDS
;	COMDAT pdata
pdata	SEGMENT
$pdata$PMCCS_Remainder_X_I$catch$0 DD imagerel PMCCS_Remainder_X_I$catch$0
	DD	imagerel PMCCS_Remainder_X_I$catch$0+37
	DD	imagerel $unwind$PMCCS_Remainder_X_I$catch$0
pdata	ENDS
;	COMDAT pdata
pdata	SEGMENT
$pdata$PMCCS_Remainder_X_L DD imagerel $LN13
	DD	imagerel $LN13+59
	DD	imagerel $unwind$PMCCS_Remainder_X_L
pdata	ENDS
;	COMDAT pdata
pdata	SEGMENT
$pdata$PMCCS_Remainder_X_L$catch$0 DD imagerel PMCCS_Remainder_X_L$catch$0
	DD	imagerel PMCCS_Remainder_X_L$catch$0+37
	DD	imagerel $unwind$PMCCS_Remainder_X_L$catch$0
pdata	ENDS
;	COMDAT pdata
pdata	SEGMENT
$pdata$PMCCS_Remainder_X_X DD imagerel $LN13
	DD	imagerel $LN13+59
	DD	imagerel $unwind$PMCCS_Remainder_X_X
pdata	ENDS
;	COMDAT pdata
pdata	SEGMENT
$pdata$PMCCS_Remainder_X_X$catch$0 DD imagerel PMCCS_Remainder_X_X$catch$0
	DD	imagerel PMCCS_Remainder_X_X$catch$0+37
	DD	imagerel $unwind$PMCCS_Remainder_X_X$catch$0
pdata	ENDS
;	COMDAT pdata
pdata	SEGMENT
$pdata$PMCCS_RightShift_X_I DD imagerel $LN13
	DD	imagerel $LN13+56
	DD	imagerel $unwind$PMCCS_RightShift_X_I
pdata	ENDS
;	COMDAT pdata
pdata	SEGMENT
$pdata$PMCCS_RightShift_X_I$catch$0 DD imagerel PMCCS_RightShift_X_I$catch$0
	DD	imagerel PMCCS_RightShift_X_I$catch$0+37
	DD	imagerel $unwind$PMCCS_RightShift_X_I$catch$0
pdata	ENDS
;	COMDAT pdata
pdata	SEGMENT
$pdata$PMCCS_LeftShift_X_I DD imagerel $LN13
	DD	imagerel $LN13+56
	DD	imagerel $unwind$PMCCS_LeftShift_X_I
pdata	ENDS
;	COMDAT pdata
pdata	SEGMENT
$pdata$PMCCS_LeftShift_X_I$catch$0 DD imagerel PMCCS_LeftShift_X_I$catch$0
	DD	imagerel PMCCS_LeftShift_X_I$catch$0+37
	DD	imagerel $unwind$PMCCS_LeftShift_X_I$catch$0
pdata	ENDS
;	COMDAT pdata
pdata	SEGMENT
$pdata$PMCCS_BitwiseAnd_I_X DD imagerel $LN13
	DD	imagerel $LN13+55
	DD	imagerel $unwind$PMCCS_BitwiseAnd_I_X
pdata	ENDS
;	COMDAT pdata
pdata	SEGMENT
$pdata$PMCCS_BitwiseAnd_I_X$catch$0 DD imagerel PMCCS_BitwiseAnd_I_X$catch$0
	DD	imagerel PMCCS_BitwiseAnd_I_X$catch$0+37
	DD	imagerel $unwind$PMCCS_BitwiseAnd_I_X$catch$0
pdata	ENDS
;	COMDAT pdata
pdata	SEGMENT
$pdata$PMCCS_BitwiseAnd_L_X DD imagerel $LN13
	DD	imagerel $LN13+56
	DD	imagerel $unwind$PMCCS_BitwiseAnd_L_X
pdata	ENDS
;	COMDAT pdata
pdata	SEGMENT
$pdata$PMCCS_BitwiseAnd_L_X$catch$0 DD imagerel PMCCS_BitwiseAnd_L_X$catch$0
	DD	imagerel PMCCS_BitwiseAnd_L_X$catch$0+37
	DD	imagerel $unwind$PMCCS_BitwiseAnd_L_X$catch$0
pdata	ENDS
;	COMDAT pdata
pdata	SEGMENT
$pdata$PMCCS_BitwiseAnd_X_I DD imagerel $LN13
	DD	imagerel $LN13+55
	DD	imagerel $unwind$PMCCS_BitwiseAnd_X_I
pdata	ENDS
;	COMDAT pdata
pdata	SEGMENT
$pdata$PMCCS_BitwiseAnd_X_I$catch$0 DD imagerel PMCCS_BitwiseAnd_X_I$catch$0
	DD	imagerel PMCCS_BitwiseAnd_X_I$catch$0+37
	DD	imagerel $unwind$PMCCS_BitwiseAnd_X_I$catch$0
pdata	ENDS
;	COMDAT pdata
pdata	SEGMENT
$pdata$PMCCS_BitwiseAnd_X_L DD imagerel $LN13
	DD	imagerel $LN13+56
	DD	imagerel $unwind$PMCCS_BitwiseAnd_X_L
pdata	ENDS
;	COMDAT pdata
pdata	SEGMENT
$pdata$PMCCS_BitwiseAnd_X_L$catch$0 DD imagerel PMCCS_BitwiseAnd_X_L$catch$0
	DD	imagerel PMCCS_BitwiseAnd_X_L$catch$0+37
	DD	imagerel $unwind$PMCCS_BitwiseAnd_X_L$catch$0
pdata	ENDS
;	COMDAT pdata
pdata	SEGMENT
$pdata$PMCCS_BitwiseAnd_X_X DD imagerel $LN13
	DD	imagerel $LN13+56
	DD	imagerel $unwind$PMCCS_BitwiseAnd_X_X
pdata	ENDS
;	COMDAT pdata
pdata	SEGMENT
$pdata$PMCCS_BitwiseAnd_X_X$catch$0 DD imagerel PMCCS_BitwiseAnd_X_X$catch$0
	DD	imagerel PMCCS_BitwiseAnd_X_X$catch$0+37
	DD	imagerel $unwind$PMCCS_BitwiseAnd_X_X$catch$0
pdata	ENDS
;	COMDAT pdata
pdata	SEGMENT
$pdata$PMCCS_BitwiseOr_I_X DD imagerel $LN13
	DD	imagerel $LN13+56
	DD	imagerel $unwind$PMCCS_BitwiseOr_I_X
pdata	ENDS
;	COMDAT pdata
pdata	SEGMENT
$pdata$PMCCS_BitwiseOr_I_X$catch$0 DD imagerel PMCCS_BitwiseOr_I_X$catch$0
	DD	imagerel PMCCS_BitwiseOr_I_X$catch$0+37
	DD	imagerel $unwind$PMCCS_BitwiseOr_I_X$catch$0
pdata	ENDS
;	COMDAT pdata
pdata	SEGMENT
$pdata$PMCCS_BitwiseOr_L_X DD imagerel $LN13
	DD	imagerel $LN13+56
	DD	imagerel $unwind$PMCCS_BitwiseOr_L_X
pdata	ENDS
;	COMDAT pdata
pdata	SEGMENT
$pdata$PMCCS_BitwiseOr_L_X$catch$0 DD imagerel PMCCS_BitwiseOr_L_X$catch$0
	DD	imagerel PMCCS_BitwiseOr_L_X$catch$0+37
	DD	imagerel $unwind$PMCCS_BitwiseOr_L_X$catch$0
pdata	ENDS
;	COMDAT pdata
pdata	SEGMENT
$pdata$PMCCS_BitwiseOr_X_I DD imagerel $LN13
	DD	imagerel $LN13+56
	DD	imagerel $unwind$PMCCS_BitwiseOr_X_I
pdata	ENDS
;	COMDAT pdata
pdata	SEGMENT
$pdata$PMCCS_BitwiseOr_X_I$catch$0 DD imagerel PMCCS_BitwiseOr_X_I$catch$0
	DD	imagerel PMCCS_BitwiseOr_X_I$catch$0+37
	DD	imagerel $unwind$PMCCS_BitwiseOr_X_I$catch$0
pdata	ENDS
;	COMDAT pdata
pdata	SEGMENT
$pdata$PMCCS_BitwiseOr_X_L DD imagerel $LN13
	DD	imagerel $LN13+56
	DD	imagerel $unwind$PMCCS_BitwiseOr_X_L
pdata	ENDS
;	COMDAT pdata
pdata	SEGMENT
$pdata$PMCCS_BitwiseOr_X_L$catch$0 DD imagerel PMCCS_BitwiseOr_X_L$catch$0
	DD	imagerel PMCCS_BitwiseOr_X_L$catch$0+37
	DD	imagerel $unwind$PMCCS_BitwiseOr_X_L$catch$0
pdata	ENDS
;	COMDAT pdata
pdata	SEGMENT
$pdata$PMCCS_BitwiseOr_X_X DD imagerel $LN13
	DD	imagerel $LN13+56
	DD	imagerel $unwind$PMCCS_BitwiseOr_X_X
pdata	ENDS
;	COMDAT pdata
pdata	SEGMENT
$pdata$PMCCS_BitwiseOr_X_X$catch$0 DD imagerel PMCCS_BitwiseOr_X_X$catch$0
	DD	imagerel PMCCS_BitwiseOr_X_X$catch$0+37
	DD	imagerel $unwind$PMCCS_BitwiseOr_X_X$catch$0
pdata	ENDS
;	COMDAT pdata
pdata	SEGMENT
$pdata$PMCCS_ExclusiveOr_I_X DD imagerel $LN13
	DD	imagerel $LN13+56
	DD	imagerel $unwind$PMCCS_ExclusiveOr_I_X
pdata	ENDS
;	COMDAT pdata
pdata	SEGMENT
$pdata$PMCCS_ExclusiveOr_I_X$catch$0 DD imagerel PMCCS_ExclusiveOr_I_X$catch$0
	DD	imagerel PMCCS_ExclusiveOr_I_X$catch$0+37
	DD	imagerel $unwind$PMCCS_ExclusiveOr_I_X$catch$0
pdata	ENDS
;	COMDAT pdata
pdata	SEGMENT
$pdata$PMCCS_ExclusiveOr_L_X DD imagerel $LN13
	DD	imagerel $LN13+56
	DD	imagerel $unwind$PMCCS_ExclusiveOr_L_X
pdata	ENDS
;	COMDAT pdata
pdata	SEGMENT
$pdata$PMCCS_ExclusiveOr_L_X$catch$0 DD imagerel PMCCS_ExclusiveOr_L_X$catch$0
	DD	imagerel PMCCS_ExclusiveOr_L_X$catch$0+37
	DD	imagerel $unwind$PMCCS_ExclusiveOr_L_X$catch$0
pdata	ENDS
;	COMDAT pdata
pdata	SEGMENT
$pdata$PMCCS_ExclusiveOr_X_I DD imagerel $LN13
	DD	imagerel $LN13+56
	DD	imagerel $unwind$PMCCS_ExclusiveOr_X_I
pdata	ENDS
;	COMDAT pdata
pdata	SEGMENT
$pdata$PMCCS_ExclusiveOr_X_I$catch$0 DD imagerel PMCCS_ExclusiveOr_X_I$catch$0
	DD	imagerel PMCCS_ExclusiveOr_X_I$catch$0+37
	DD	imagerel $unwind$PMCCS_ExclusiveOr_X_I$catch$0
pdata	ENDS
;	COMDAT pdata
pdata	SEGMENT
$pdata$PMCCS_ExclusiveOr_X_L DD imagerel $LN13
	DD	imagerel $LN13+56
	DD	imagerel $unwind$PMCCS_ExclusiveOr_X_L
pdata	ENDS
;	COMDAT pdata
pdata	SEGMENT
$pdata$PMCCS_ExclusiveOr_X_L$catch$0 DD imagerel PMCCS_ExclusiveOr_X_L$catch$0
	DD	imagerel PMCCS_ExclusiveOr_X_L$catch$0+37
	DD	imagerel $unwind$PMCCS_ExclusiveOr_X_L$catch$0
pdata	ENDS
;	COMDAT pdata
pdata	SEGMENT
$pdata$PMCCS_ExclusiveOr_X_X DD imagerel $LN13
	DD	imagerel $LN13+56
	DD	imagerel $unwind$PMCCS_ExclusiveOr_X_X
pdata	ENDS
;	COMDAT pdata
pdata	SEGMENT
$pdata$PMCCS_ExclusiveOr_X_X$catch$0 DD imagerel PMCCS_ExclusiveOr_X_X$catch$0
	DD	imagerel PMCCS_ExclusiveOr_X_X$catch$0+37
	DD	imagerel $unwind$PMCCS_ExclusiveOr_X_X$catch$0
pdata	ENDS
;	COMDAT pdata
pdata	SEGMENT
$pdata$PMCCS_Compare_I_X DD imagerel $LN13
	DD	imagerel $LN13+55
	DD	imagerel $unwind$PMCCS_Compare_I_X
pdata	ENDS
;	COMDAT pdata
pdata	SEGMENT
$pdata$PMCCS_Compare_I_X$catch$0 DD imagerel PMCCS_Compare_I_X$catch$0
	DD	imagerel PMCCS_Compare_I_X$catch$0+37
	DD	imagerel $unwind$PMCCS_Compare_I_X$catch$0
pdata	ENDS
;	COMDAT pdata
pdata	SEGMENT
$pdata$PMCCS_Compare_L_X DD imagerel $LN13
	DD	imagerel $LN13+55
	DD	imagerel $unwind$PMCCS_Compare_L_X
pdata	ENDS
;	COMDAT pdata
pdata	SEGMENT
$pdata$PMCCS_Compare_L_X$catch$0 DD imagerel PMCCS_Compare_L_X$catch$0
	DD	imagerel PMCCS_Compare_L_X$catch$0+37
	DD	imagerel $unwind$PMCCS_Compare_L_X$catch$0
pdata	ENDS
;	COMDAT pdata
pdata	SEGMENT
$pdata$PMCCS_Compare_X_I DD imagerel $LN13
	DD	imagerel $LN13+55
	DD	imagerel $unwind$PMCCS_Compare_X_I
pdata	ENDS
;	COMDAT pdata
pdata	SEGMENT
$pdata$PMCCS_Compare_X_I$catch$0 DD imagerel PMCCS_Compare_X_I$catch$0
	DD	imagerel PMCCS_Compare_X_I$catch$0+37
	DD	imagerel $unwind$PMCCS_Compare_X_I$catch$0
pdata	ENDS
;	COMDAT pdata
pdata	SEGMENT
$pdata$PMCCS_Compare_X_L DD imagerel $LN13
	DD	imagerel $LN13+55
	DD	imagerel $unwind$PMCCS_Compare_X_L
pdata	ENDS
;	COMDAT pdata
pdata	SEGMENT
$pdata$PMCCS_Compare_X_L$catch$0 DD imagerel PMCCS_Compare_X_L$catch$0
	DD	imagerel PMCCS_Compare_X_L$catch$0+37
	DD	imagerel $unwind$PMCCS_Compare_X_L$catch$0
pdata	ENDS
;	COMDAT pdata
pdata	SEGMENT
$pdata$PMCCS_Compare_X_X DD imagerel $LN13
	DD	imagerel $LN13+55
	DD	imagerel $unwind$PMCCS_Compare_X_X
pdata	ENDS
;	COMDAT pdata
pdata	SEGMENT
$pdata$PMCCS_Compare_X_X$catch$0 DD imagerel PMCCS_Compare_X_X$catch$0
	DD	imagerel PMCCS_Compare_X_X$catch$0+37
	DD	imagerel $unwind$PMCCS_Compare_X_X$catch$0
pdata	ENDS
;	COMDAT pdata
pdata	SEGMENT
$pdata$PMCCS_Equals_I_X DD imagerel $LN13
	DD	imagerel $LN13+55
	DD	imagerel $unwind$PMCCS_Equals_I_X
pdata	ENDS
;	COMDAT pdata
pdata	SEGMENT
$pdata$PMCCS_Equals_I_X$catch$0 DD imagerel PMCCS_Equals_I_X$catch$0
	DD	imagerel PMCCS_Equals_I_X$catch$0+37
	DD	imagerel $unwind$PMCCS_Equals_I_X$catch$0
pdata	ENDS
;	COMDAT pdata
pdata	SEGMENT
$pdata$PMCCS_Equals_L_X DD imagerel $LN13
	DD	imagerel $LN13+55
	DD	imagerel $unwind$PMCCS_Equals_L_X
pdata	ENDS
;	COMDAT pdata
pdata	SEGMENT
$pdata$PMCCS_Equals_L_X$catch$0 DD imagerel PMCCS_Equals_L_X$catch$0
	DD	imagerel PMCCS_Equals_L_X$catch$0+37
	DD	imagerel $unwind$PMCCS_Equals_L_X$catch$0
pdata	ENDS
;	COMDAT pdata
pdata	SEGMENT
$pdata$PMCCS_Equals_X_I DD imagerel $LN13
	DD	imagerel $LN13+55
	DD	imagerel $unwind$PMCCS_Equals_X_I
pdata	ENDS
;	COMDAT pdata
pdata	SEGMENT
$pdata$PMCCS_Equals_X_I$catch$0 DD imagerel PMCCS_Equals_X_I$catch$0
	DD	imagerel PMCCS_Equals_X_I$catch$0+37
	DD	imagerel $unwind$PMCCS_Equals_X_I$catch$0
pdata	ENDS
;	COMDAT pdata
pdata	SEGMENT
$pdata$PMCCS_Equals_X_L DD imagerel $LN13
	DD	imagerel $LN13+55
	DD	imagerel $unwind$PMCCS_Equals_X_L
pdata	ENDS
;	COMDAT pdata
pdata	SEGMENT
$pdata$PMCCS_Equals_X_L$catch$0 DD imagerel PMCCS_Equals_X_L$catch$0
	DD	imagerel PMCCS_Equals_X_L$catch$0+37
	DD	imagerel $unwind$PMCCS_Equals_X_L$catch$0
pdata	ENDS
;	COMDAT pdata
pdata	SEGMENT
$pdata$PMCCS_Equals_X_X DD imagerel $LN13
	DD	imagerel $LN13+55
	DD	imagerel $unwind$PMCCS_Equals_X_X
pdata	ENDS
;	COMDAT pdata
pdata	SEGMENT
$pdata$PMCCS_Equals_X_X$catch$0 DD imagerel PMCCS_Equals_X_X$catch$0
	DD	imagerel PMCCS_Equals_X_X$catch$0+37
	DD	imagerel $unwind$PMCCS_Equals_X_X$catch$0
pdata	ENDS
;	COMDAT pdata
pdata	SEGMENT
$pdata$PMCCS_GreatestCommonDivisor_I_X DD imagerel $LN13
	DD	imagerel $LN13+56
	DD	imagerel $unwind$PMCCS_GreatestCommonDivisor_I_X
pdata	ENDS
;	COMDAT pdata
pdata	SEGMENT
$pdata$PMCCS_GreatestCommonDivisor_I_X$catch$0 DD imagerel PMCCS_GreatestCommonDivisor_I_X$catch$0
	DD	imagerel PMCCS_GreatestCommonDivisor_I_X$catch$0+37
	DD	imagerel $unwind$PMCCS_GreatestCommonDivisor_I_X$catch$0
pdata	ENDS
;	COMDAT pdata
pdata	SEGMENT
$pdata$PMCCS_GreatestCommonDivisor_L_X DD imagerel $LN13
	DD	imagerel $LN13+56
	DD	imagerel $unwind$PMCCS_GreatestCommonDivisor_L_X
pdata	ENDS
;	COMDAT pdata
pdata	SEGMENT
$pdata$PMCCS_GreatestCommonDivisor_L_X$catch$0 DD imagerel PMCCS_GreatestCommonDivisor_L_X$catch$0
	DD	imagerel PMCCS_GreatestCommonDivisor_L_X$catch$0+37
	DD	imagerel $unwind$PMCCS_GreatestCommonDivisor_L_X$catch$0
pdata	ENDS
;	COMDAT pdata
pdata	SEGMENT
$pdata$PMCCS_GreatestCommonDivisor_X_I DD imagerel $LN13
	DD	imagerel $LN13+56
	DD	imagerel $unwind$PMCCS_GreatestCommonDivisor_X_I
pdata	ENDS
;	COMDAT pdata
pdata	SEGMENT
$pdata$PMCCS_GreatestCommonDivisor_X_I$catch$0 DD imagerel PMCCS_GreatestCommonDivisor_X_I$catch$0
	DD	imagerel PMCCS_GreatestCommonDivisor_X_I$catch$0+37
	DD	imagerel $unwind$PMCCS_GreatestCommonDivisor_X_I$catch$0
pdata	ENDS
;	COMDAT pdata
pdata	SEGMENT
$pdata$PMCCS_GreatestCommonDivisor_X_L DD imagerel $LN13
	DD	imagerel $LN13+56
	DD	imagerel $unwind$PMCCS_GreatestCommonDivisor_X_L
pdata	ENDS
;	COMDAT pdata
pdata	SEGMENT
$pdata$PMCCS_GreatestCommonDivisor_X_L$catch$0 DD imagerel PMCCS_GreatestCommonDivisor_X_L$catch$0
	DD	imagerel PMCCS_GreatestCommonDivisor_X_L$catch$0+37
	DD	imagerel $unwind$PMCCS_GreatestCommonDivisor_X_L$catch$0
pdata	ENDS
;	COMDAT pdata
pdata	SEGMENT
$pdata$PMCCS_GreatestCommonDivisor_X_X DD imagerel $LN13
	DD	imagerel $LN13+56
	DD	imagerel $unwind$PMCCS_GreatestCommonDivisor_X_X
pdata	ENDS
;	COMDAT pdata
pdata	SEGMENT
$pdata$PMCCS_GreatestCommonDivisor_X_X$catch$0 DD imagerel PMCCS_GreatestCommonDivisor_X_X$catch$0
	DD	imagerel PMCCS_GreatestCommonDivisor_X_X$catch$0+37
	DD	imagerel $unwind$PMCCS_GreatestCommonDivisor_X_X$catch$0
pdata	ENDS
;	COMDAT pdata
pdata	SEGMENT
$pdata$PMCCS_Pow_X_I DD imagerel $LN13
	DD	imagerel $LN13+56
	DD	imagerel $unwind$PMCCS_Pow_X_I
pdata	ENDS
;	COMDAT pdata
pdata	SEGMENT
$pdata$PMCCS_Pow_X_I$catch$0 DD imagerel PMCCS_Pow_X_I$catch$0
	DD	imagerel PMCCS_Pow_X_I$catch$0+37
	DD	imagerel $unwind$PMCCS_Pow_X_I$catch$0
pdata	ENDS
;	COMDAT pdata
pdata	SEGMENT
$pdata$PMCCS_Pow_X_L DD imagerel $LN13
	DD	imagerel $LN13+56
	DD	imagerel $unwind$PMCCS_Pow_X_L
pdata	ENDS
;	COMDAT pdata
pdata	SEGMENT
$pdata$PMCCS_Pow_X_L$catch$0 DD imagerel PMCCS_Pow_X_L$catch$0
	DD	imagerel PMCCS_Pow_X_L$catch$0+37
	DD	imagerel $unwind$PMCCS_Pow_X_L$catch$0
pdata	ENDS
;	COMDAT pdata
pdata	SEGMENT
$pdata$PMCCS_ModPow_X_X_X DD imagerel $LN13
	DD	imagerel $LN13+56
	DD	imagerel $unwind$PMCCS_ModPow_X_X_X
pdata	ENDS
;	COMDAT pdata
pdata	SEGMENT
$pdata$PMCCS_ModPow_X_X_X$catch$0 DD imagerel PMCCS_ModPow_X_X_X$catch$0
	DD	imagerel PMCCS_ModPow_X_X_X$catch$0+37
	DD	imagerel $unwind$PMCCS_ModPow_X_X_X$catch$0
pdata	ENDS
;	COMDAT ??_R0?AVException@Internal@Core@Math@Palmtree@@@8
data$r	SEGMENT
??_R0?AVException@Internal@Core@Math@Palmtree@@@8 DQ FLAT:??_7type_info@@6B@ ; Palmtree::Math::Core::Internal::Exception `RTTI Type Descriptor'
	DQ	0000000000000000H
	DB	'.?AVException@Internal@Core@Math@Palmtree@@', 00H
data$r	ENDS
;	COMDAT xdata
xdata	SEGMENT
$unwind$PMCCS_ModPow_X_X_X$catch$0 DD 020a19H
	DD	05006320aH
	DD	imagerel __CxxFrameHandler3
	DD	imagerel $cppxdata$PMCCS_ModPow_X_X_X
xdata	ENDS
;	COMDAT xdata
xdata	SEGMENT
$ip2state$PMCCS_ModPow_X_X_X DD imagerel PMCCS_ModPow_X_X_X
	DD	0ffffffffH
	DD	imagerel PMCCS_ModPow_X_X_X+33
	DD	00H
	DD	imagerel PMCCS_ModPow_X_X_X+45
	DD	0ffffffffH
	DD	imagerel PMCCS_ModPow_X_X_X+49
	DD	00H
	DD	imagerel PMCCS_ModPow_X_X_X$catch$0+13
	DD	01H
	DD	imagerel PMCCS_ModPow_X_X_X$catch$0+23
	DD	00H
xdata	ENDS
;	COMDAT xdata
xdata	SEGMENT
$handlerMap$0$PMCCS_ModPow_X_X_X DD 09H
	DD	imagerel ??_R0?AVException@Internal@Core@Math@Palmtree@@@8
	DD	028H
	DD	imagerel PMCCS_ModPow_X_X_X$catch$0
	DD	038H
xdata	ENDS
;	COMDAT xdata
xdata	SEGMENT
$tryMap$PMCCS_ModPow_X_X_X DD 00H
	DD	00H
	DD	01H
	DD	01H
	DD	imagerel $handlerMap$0$PMCCS_ModPow_X_X_X
xdata	ENDS
;	COMDAT xdata
xdata	SEGMENT
$stateUnwindMap$PMCCS_ModPow_X_X_X DD 0ffffffffH
	DD	00H
	DD	0ffffffffH
	DD	00H
xdata	ENDS
;	COMDAT CONST
CONST	SEGMENT
$cppxdata$PMCCS_ModPow_X_X_X DD 019930522H
	DD	02H
	DD	imagerel $stateUnwindMap$PMCCS_ModPow_X_X_X
	DD	01H
	DD	imagerel $tryMap$PMCCS_ModPow_X_X_X
	DD	06H
	DD	imagerel $ip2state$PMCCS_ModPow_X_X_X
	DD	020H
	DD	00H
	DD	00H
CONST	ENDS
;	COMDAT xdata
xdata	SEGMENT
$unwind$PMCCS_ModPow_X_X_X DD 020f19H
	DD	030025206H
	DD	imagerel __CxxFrameHandler3
	DD	imagerel $cppxdata$PMCCS_ModPow_X_X_X
xdata	ENDS
;	COMDAT xdata
xdata	SEGMENT
$unwind$PMCCS_Pow_X_L$catch$0 DD 020a19H
	DD	05006320aH
	DD	imagerel __CxxFrameHandler3
	DD	imagerel $cppxdata$PMCCS_Pow_X_L
xdata	ENDS
;	COMDAT xdata
xdata	SEGMENT
$ip2state$PMCCS_Pow_X_L DD imagerel PMCCS_Pow_X_L
	DD	0ffffffffH
	DD	imagerel PMCCS_Pow_X_L+33
	DD	00H
	DD	imagerel PMCCS_Pow_X_L+45
	DD	0ffffffffH
	DD	imagerel PMCCS_Pow_X_L+49
	DD	00H
	DD	imagerel PMCCS_Pow_X_L$catch$0+13
	DD	01H
	DD	imagerel PMCCS_Pow_X_L$catch$0+23
	DD	00H
xdata	ENDS
;	COMDAT xdata
xdata	SEGMENT
$handlerMap$0$PMCCS_Pow_X_L DD 09H
	DD	imagerel ??_R0?AVException@Internal@Core@Math@Palmtree@@@8
	DD	028H
	DD	imagerel PMCCS_Pow_X_L$catch$0
	DD	038H
xdata	ENDS
;	COMDAT xdata
xdata	SEGMENT
$tryMap$PMCCS_Pow_X_L DD 00H
	DD	00H
	DD	01H
	DD	01H
	DD	imagerel $handlerMap$0$PMCCS_Pow_X_L
xdata	ENDS
;	COMDAT xdata
xdata	SEGMENT
$stateUnwindMap$PMCCS_Pow_X_L DD 0ffffffffH
	DD	00H
	DD	0ffffffffH
	DD	00H
xdata	ENDS
;	COMDAT CONST
CONST	SEGMENT
$cppxdata$PMCCS_Pow_X_L DD 019930522H
	DD	02H
	DD	imagerel $stateUnwindMap$PMCCS_Pow_X_L
	DD	01H
	DD	imagerel $tryMap$PMCCS_Pow_X_L
	DD	06H
	DD	imagerel $ip2state$PMCCS_Pow_X_L
	DD	020H
	DD	00H
	DD	00H
CONST	ENDS
;	COMDAT xdata
xdata	SEGMENT
$unwind$PMCCS_Pow_X_L DD 020f19H
	DD	030025206H
	DD	imagerel __CxxFrameHandler3
	DD	imagerel $cppxdata$PMCCS_Pow_X_L
xdata	ENDS
;	COMDAT xdata
xdata	SEGMENT
$unwind$PMCCS_Pow_X_I$catch$0 DD 020a19H
	DD	05006320aH
	DD	imagerel __CxxFrameHandler3
	DD	imagerel $cppxdata$PMCCS_Pow_X_I
xdata	ENDS
;	COMDAT xdata
xdata	SEGMENT
$ip2state$PMCCS_Pow_X_I DD imagerel PMCCS_Pow_X_I
	DD	0ffffffffH
	DD	imagerel PMCCS_Pow_X_I+33
	DD	00H
	DD	imagerel PMCCS_Pow_X_I+45
	DD	0ffffffffH
	DD	imagerel PMCCS_Pow_X_I+49
	DD	00H
	DD	imagerel PMCCS_Pow_X_I$catch$0+13
	DD	01H
	DD	imagerel PMCCS_Pow_X_I$catch$0+23
	DD	00H
xdata	ENDS
;	COMDAT xdata
xdata	SEGMENT
$handlerMap$0$PMCCS_Pow_X_I DD 09H
	DD	imagerel ??_R0?AVException@Internal@Core@Math@Palmtree@@@8
	DD	028H
	DD	imagerel PMCCS_Pow_X_I$catch$0
	DD	038H
xdata	ENDS
;	COMDAT xdata
xdata	SEGMENT
$tryMap$PMCCS_Pow_X_I DD 00H
	DD	00H
	DD	01H
	DD	01H
	DD	imagerel $handlerMap$0$PMCCS_Pow_X_I
xdata	ENDS
;	COMDAT xdata
xdata	SEGMENT
$stateUnwindMap$PMCCS_Pow_X_I DD 0ffffffffH
	DD	00H
	DD	0ffffffffH
	DD	00H
xdata	ENDS
;	COMDAT CONST
CONST	SEGMENT
$cppxdata$PMCCS_Pow_X_I DD 019930522H
	DD	02H
	DD	imagerel $stateUnwindMap$PMCCS_Pow_X_I
	DD	01H
	DD	imagerel $tryMap$PMCCS_Pow_X_I
	DD	06H
	DD	imagerel $ip2state$PMCCS_Pow_X_I
	DD	020H
	DD	00H
	DD	00H
CONST	ENDS
;	COMDAT xdata
xdata	SEGMENT
$unwind$PMCCS_Pow_X_I DD 020f19H
	DD	030025206H
	DD	imagerel __CxxFrameHandler3
	DD	imagerel $cppxdata$PMCCS_Pow_X_I
xdata	ENDS
;	COMDAT xdata
xdata	SEGMENT
$unwind$PMCCS_GreatestCommonDivisor_X_X$catch$0 DD 020a19H
	DD	05006320aH
	DD	imagerel __CxxFrameHandler3
	DD	imagerel $cppxdata$PMCCS_GreatestCommonDivisor_X_X
xdata	ENDS
;	COMDAT xdata
xdata	SEGMENT
$ip2state$PMCCS_GreatestCommonDivisor_X_X DD imagerel PMCCS_GreatestCommonDivisor_X_X
	DD	0ffffffffH
	DD	imagerel PMCCS_GreatestCommonDivisor_X_X+33
	DD	00H
	DD	imagerel PMCCS_GreatestCommonDivisor_X_X+45
	DD	0ffffffffH
	DD	imagerel PMCCS_GreatestCommonDivisor_X_X+49
	DD	00H
	DD	imagerel PMCCS_GreatestCommonDivisor_X_X$catch$0+13
	DD	01H
	DD	imagerel PMCCS_GreatestCommonDivisor_X_X$catch$0+23
	DD	00H
xdata	ENDS
;	COMDAT xdata
xdata	SEGMENT
$handlerMap$0$PMCCS_GreatestCommonDivisor_X_X DD 09H
	DD	imagerel ??_R0?AVException@Internal@Core@Math@Palmtree@@@8
	DD	028H
	DD	imagerel PMCCS_GreatestCommonDivisor_X_X$catch$0
	DD	038H
xdata	ENDS
;	COMDAT xdata
xdata	SEGMENT
$tryMap$PMCCS_GreatestCommonDivisor_X_X DD 00H
	DD	00H
	DD	01H
	DD	01H
	DD	imagerel $handlerMap$0$PMCCS_GreatestCommonDivisor_X_X
xdata	ENDS
;	COMDAT xdata
xdata	SEGMENT
$stateUnwindMap$PMCCS_GreatestCommonDivisor_X_X DD 0ffffffffH
	DD	00H
	DD	0ffffffffH
	DD	00H
xdata	ENDS
;	COMDAT CONST
CONST	SEGMENT
$cppxdata$PMCCS_GreatestCommonDivisor_X_X DD 019930522H
	DD	02H
	DD	imagerel $stateUnwindMap$PMCCS_GreatestCommonDivisor_X_X
	DD	01H
	DD	imagerel $tryMap$PMCCS_GreatestCommonDivisor_X_X
	DD	06H
	DD	imagerel $ip2state$PMCCS_GreatestCommonDivisor_X_X
	DD	020H
	DD	00H
	DD	00H
CONST	ENDS
;	COMDAT xdata
xdata	SEGMENT
$unwind$PMCCS_GreatestCommonDivisor_X_X DD 020f19H
	DD	030025206H
	DD	imagerel __CxxFrameHandler3
	DD	imagerel $cppxdata$PMCCS_GreatestCommonDivisor_X_X
xdata	ENDS
;	COMDAT xdata
xdata	SEGMENT
$unwind$PMCCS_GreatestCommonDivisor_X_L$catch$0 DD 020a19H
	DD	05006320aH
	DD	imagerel __CxxFrameHandler3
	DD	imagerel $cppxdata$PMCCS_GreatestCommonDivisor_X_L
xdata	ENDS
;	COMDAT xdata
xdata	SEGMENT
$ip2state$PMCCS_GreatestCommonDivisor_X_L DD imagerel PMCCS_GreatestCommonDivisor_X_L
	DD	0ffffffffH
	DD	imagerel PMCCS_GreatestCommonDivisor_X_L+33
	DD	00H
	DD	imagerel PMCCS_GreatestCommonDivisor_X_L+45
	DD	0ffffffffH
	DD	imagerel PMCCS_GreatestCommonDivisor_X_L+49
	DD	00H
	DD	imagerel PMCCS_GreatestCommonDivisor_X_L$catch$0+13
	DD	01H
	DD	imagerel PMCCS_GreatestCommonDivisor_X_L$catch$0+23
	DD	00H
xdata	ENDS
;	COMDAT xdata
xdata	SEGMENT
$handlerMap$0$PMCCS_GreatestCommonDivisor_X_L DD 09H
	DD	imagerel ??_R0?AVException@Internal@Core@Math@Palmtree@@@8
	DD	028H
	DD	imagerel PMCCS_GreatestCommonDivisor_X_L$catch$0
	DD	038H
xdata	ENDS
;	COMDAT xdata
xdata	SEGMENT
$tryMap$PMCCS_GreatestCommonDivisor_X_L DD 00H
	DD	00H
	DD	01H
	DD	01H
	DD	imagerel $handlerMap$0$PMCCS_GreatestCommonDivisor_X_L
xdata	ENDS
;	COMDAT xdata
xdata	SEGMENT
$stateUnwindMap$PMCCS_GreatestCommonDivisor_X_L DD 0ffffffffH
	DD	00H
	DD	0ffffffffH
	DD	00H
xdata	ENDS
;	COMDAT CONST
CONST	SEGMENT
$cppxdata$PMCCS_GreatestCommonDivisor_X_L DD 019930522H
	DD	02H
	DD	imagerel $stateUnwindMap$PMCCS_GreatestCommonDivisor_X_L
	DD	01H
	DD	imagerel $tryMap$PMCCS_GreatestCommonDivisor_X_L
	DD	06H
	DD	imagerel $ip2state$PMCCS_GreatestCommonDivisor_X_L
	DD	020H
	DD	00H
	DD	00H
CONST	ENDS
;	COMDAT xdata
xdata	SEGMENT
$unwind$PMCCS_GreatestCommonDivisor_X_L DD 020f19H
	DD	030025206H
	DD	imagerel __CxxFrameHandler3
	DD	imagerel $cppxdata$PMCCS_GreatestCommonDivisor_X_L
xdata	ENDS
;	COMDAT xdata
xdata	SEGMENT
$unwind$PMCCS_GreatestCommonDivisor_X_I$catch$0 DD 020a19H
	DD	05006320aH
	DD	imagerel __CxxFrameHandler3
	DD	imagerel $cppxdata$PMCCS_GreatestCommonDivisor_X_I
xdata	ENDS
;	COMDAT xdata
xdata	SEGMENT
$ip2state$PMCCS_GreatestCommonDivisor_X_I DD imagerel PMCCS_GreatestCommonDivisor_X_I
	DD	0ffffffffH
	DD	imagerel PMCCS_GreatestCommonDivisor_X_I+33
	DD	00H
	DD	imagerel PMCCS_GreatestCommonDivisor_X_I+45
	DD	0ffffffffH
	DD	imagerel PMCCS_GreatestCommonDivisor_X_I+49
	DD	00H
	DD	imagerel PMCCS_GreatestCommonDivisor_X_I$catch$0+13
	DD	01H
	DD	imagerel PMCCS_GreatestCommonDivisor_X_I$catch$0+23
	DD	00H
xdata	ENDS
;	COMDAT xdata
xdata	SEGMENT
$handlerMap$0$PMCCS_GreatestCommonDivisor_X_I DD 09H
	DD	imagerel ??_R0?AVException@Internal@Core@Math@Palmtree@@@8
	DD	028H
	DD	imagerel PMCCS_GreatestCommonDivisor_X_I$catch$0
	DD	038H
xdata	ENDS
;	COMDAT xdata
xdata	SEGMENT
$tryMap$PMCCS_GreatestCommonDivisor_X_I DD 00H
	DD	00H
	DD	01H
	DD	01H
	DD	imagerel $handlerMap$0$PMCCS_GreatestCommonDivisor_X_I
xdata	ENDS
;	COMDAT xdata
xdata	SEGMENT
$stateUnwindMap$PMCCS_GreatestCommonDivisor_X_I DD 0ffffffffH
	DD	00H
	DD	0ffffffffH
	DD	00H
xdata	ENDS
;	COMDAT CONST
CONST	SEGMENT
$cppxdata$PMCCS_GreatestCommonDivisor_X_I DD 019930522H
	DD	02H
	DD	imagerel $stateUnwindMap$PMCCS_GreatestCommonDivisor_X_I
	DD	01H
	DD	imagerel $tryMap$PMCCS_GreatestCommonDivisor_X_I
	DD	06H
	DD	imagerel $ip2state$PMCCS_GreatestCommonDivisor_X_I
	DD	020H
	DD	00H
	DD	00H
CONST	ENDS
;	COMDAT xdata
xdata	SEGMENT
$unwind$PMCCS_GreatestCommonDivisor_X_I DD 020f19H
	DD	030025206H
	DD	imagerel __CxxFrameHandler3
	DD	imagerel $cppxdata$PMCCS_GreatestCommonDivisor_X_I
xdata	ENDS
;	COMDAT xdata
xdata	SEGMENT
$unwind$PMCCS_GreatestCommonDivisor_L_X$catch$0 DD 020a19H
	DD	05006320aH
	DD	imagerel __CxxFrameHandler3
	DD	imagerel $cppxdata$PMCCS_GreatestCommonDivisor_L_X
xdata	ENDS
;	COMDAT xdata
xdata	SEGMENT
$ip2state$PMCCS_GreatestCommonDivisor_L_X DD imagerel PMCCS_GreatestCommonDivisor_L_X
	DD	0ffffffffH
	DD	imagerel PMCCS_GreatestCommonDivisor_L_X+33
	DD	00H
	DD	imagerel PMCCS_GreatestCommonDivisor_L_X+45
	DD	0ffffffffH
	DD	imagerel PMCCS_GreatestCommonDivisor_L_X+49
	DD	00H
	DD	imagerel PMCCS_GreatestCommonDivisor_L_X$catch$0+13
	DD	01H
	DD	imagerel PMCCS_GreatestCommonDivisor_L_X$catch$0+23
	DD	00H
xdata	ENDS
;	COMDAT xdata
xdata	SEGMENT
$handlerMap$0$PMCCS_GreatestCommonDivisor_L_X DD 09H
	DD	imagerel ??_R0?AVException@Internal@Core@Math@Palmtree@@@8
	DD	028H
	DD	imagerel PMCCS_GreatestCommonDivisor_L_X$catch$0
	DD	038H
xdata	ENDS
;	COMDAT xdata
xdata	SEGMENT
$tryMap$PMCCS_GreatestCommonDivisor_L_X DD 00H
	DD	00H
	DD	01H
	DD	01H
	DD	imagerel $handlerMap$0$PMCCS_GreatestCommonDivisor_L_X
xdata	ENDS
;	COMDAT xdata
xdata	SEGMENT
$stateUnwindMap$PMCCS_GreatestCommonDivisor_L_X DD 0ffffffffH
	DD	00H
	DD	0ffffffffH
	DD	00H
xdata	ENDS
;	COMDAT CONST
CONST	SEGMENT
$cppxdata$PMCCS_GreatestCommonDivisor_L_X DD 019930522H
	DD	02H
	DD	imagerel $stateUnwindMap$PMCCS_GreatestCommonDivisor_L_X
	DD	01H
	DD	imagerel $tryMap$PMCCS_GreatestCommonDivisor_L_X
	DD	06H
	DD	imagerel $ip2state$PMCCS_GreatestCommonDivisor_L_X
	DD	020H
	DD	00H
	DD	00H
CONST	ENDS
;	COMDAT xdata
xdata	SEGMENT
$unwind$PMCCS_GreatestCommonDivisor_L_X DD 020f19H
	DD	030025206H
	DD	imagerel __CxxFrameHandler3
	DD	imagerel $cppxdata$PMCCS_GreatestCommonDivisor_L_X
xdata	ENDS
;	COMDAT xdata
xdata	SEGMENT
$unwind$PMCCS_GreatestCommonDivisor_I_X$catch$0 DD 020a19H
	DD	05006320aH
	DD	imagerel __CxxFrameHandler3
	DD	imagerel $cppxdata$PMCCS_GreatestCommonDivisor_I_X
xdata	ENDS
;	COMDAT xdata
xdata	SEGMENT
$ip2state$PMCCS_GreatestCommonDivisor_I_X DD imagerel PMCCS_GreatestCommonDivisor_I_X
	DD	0ffffffffH
	DD	imagerel PMCCS_GreatestCommonDivisor_I_X+33
	DD	00H
	DD	imagerel PMCCS_GreatestCommonDivisor_I_X+45
	DD	0ffffffffH
	DD	imagerel PMCCS_GreatestCommonDivisor_I_X+49
	DD	00H
	DD	imagerel PMCCS_GreatestCommonDivisor_I_X$catch$0+13
	DD	01H
	DD	imagerel PMCCS_GreatestCommonDivisor_I_X$catch$0+23
	DD	00H
xdata	ENDS
;	COMDAT xdata
xdata	SEGMENT
$handlerMap$0$PMCCS_GreatestCommonDivisor_I_X DD 09H
	DD	imagerel ??_R0?AVException@Internal@Core@Math@Palmtree@@@8
	DD	028H
	DD	imagerel PMCCS_GreatestCommonDivisor_I_X$catch$0
	DD	038H
xdata	ENDS
;	COMDAT xdata
xdata	SEGMENT
$tryMap$PMCCS_GreatestCommonDivisor_I_X DD 00H
	DD	00H
	DD	01H
	DD	01H
	DD	imagerel $handlerMap$0$PMCCS_GreatestCommonDivisor_I_X
xdata	ENDS
;	COMDAT xdata
xdata	SEGMENT
$stateUnwindMap$PMCCS_GreatestCommonDivisor_I_X DD 0ffffffffH
	DD	00H
	DD	0ffffffffH
	DD	00H
xdata	ENDS
;	COMDAT CONST
CONST	SEGMENT
$cppxdata$PMCCS_GreatestCommonDivisor_I_X DD 019930522H
	DD	02H
	DD	imagerel $stateUnwindMap$PMCCS_GreatestCommonDivisor_I_X
	DD	01H
	DD	imagerel $tryMap$PMCCS_GreatestCommonDivisor_I_X
	DD	06H
	DD	imagerel $ip2state$PMCCS_GreatestCommonDivisor_I_X
	DD	020H
	DD	00H
	DD	00H
CONST	ENDS
;	COMDAT xdata
xdata	SEGMENT
$unwind$PMCCS_GreatestCommonDivisor_I_X DD 020f19H
	DD	030025206H
	DD	imagerel __CxxFrameHandler3
	DD	imagerel $cppxdata$PMCCS_GreatestCommonDivisor_I_X
xdata	ENDS
;	COMDAT xdata
xdata	SEGMENT
$unwind$PMCCS_Equals_X_X$catch$0 DD 020a19H
	DD	05006320aH
	DD	imagerel __CxxFrameHandler3
	DD	imagerel $cppxdata$PMCCS_Equals_X_X
xdata	ENDS
;	COMDAT xdata
xdata	SEGMENT
$ip2state$PMCCS_Equals_X_X DD imagerel PMCCS_Equals_X_X
	DD	0ffffffffH
	DD	imagerel PMCCS_Equals_X_X+33
	DD	00H
	DD	imagerel PMCCS_Equals_X_X+44
	DD	0ffffffffH
	DD	imagerel PMCCS_Equals_X_X+48
	DD	00H
	DD	imagerel PMCCS_Equals_X_X$catch$0+13
	DD	01H
	DD	imagerel PMCCS_Equals_X_X$catch$0+23
	DD	00H
xdata	ENDS
;	COMDAT xdata
xdata	SEGMENT
$handlerMap$0$PMCCS_Equals_X_X DD 09H
	DD	imagerel ??_R0?AVException@Internal@Core@Math@Palmtree@@@8
	DD	028H
	DD	imagerel PMCCS_Equals_X_X$catch$0
	DD	038H
xdata	ENDS
;	COMDAT xdata
xdata	SEGMENT
$tryMap$PMCCS_Equals_X_X DD 00H
	DD	00H
	DD	01H
	DD	01H
	DD	imagerel $handlerMap$0$PMCCS_Equals_X_X
xdata	ENDS
;	COMDAT xdata
xdata	SEGMENT
$stateUnwindMap$PMCCS_Equals_X_X DD 0ffffffffH
	DD	00H
	DD	0ffffffffH
	DD	00H
xdata	ENDS
;	COMDAT CONST
CONST	SEGMENT
$cppxdata$PMCCS_Equals_X_X DD 019930522H
	DD	02H
	DD	imagerel $stateUnwindMap$PMCCS_Equals_X_X
	DD	01H
	DD	imagerel $tryMap$PMCCS_Equals_X_X
	DD	06H
	DD	imagerel $ip2state$PMCCS_Equals_X_X
	DD	020H
	DD	00H
	DD	00H
CONST	ENDS
;	COMDAT xdata
xdata	SEGMENT
$unwind$PMCCS_Equals_X_X DD 020f19H
	DD	030025206H
	DD	imagerel __CxxFrameHandler3
	DD	imagerel $cppxdata$PMCCS_Equals_X_X
xdata	ENDS
;	COMDAT xdata
xdata	SEGMENT
$unwind$PMCCS_Equals_X_L$catch$0 DD 020a19H
	DD	05006320aH
	DD	imagerel __CxxFrameHandler3
	DD	imagerel $cppxdata$PMCCS_Equals_X_L
xdata	ENDS
;	COMDAT xdata
xdata	SEGMENT
$ip2state$PMCCS_Equals_X_L DD imagerel PMCCS_Equals_X_L
	DD	0ffffffffH
	DD	imagerel PMCCS_Equals_X_L+33
	DD	00H
	DD	imagerel PMCCS_Equals_X_L+44
	DD	0ffffffffH
	DD	imagerel PMCCS_Equals_X_L+48
	DD	00H
	DD	imagerel PMCCS_Equals_X_L$catch$0+13
	DD	01H
	DD	imagerel PMCCS_Equals_X_L$catch$0+23
	DD	00H
xdata	ENDS
;	COMDAT xdata
xdata	SEGMENT
$handlerMap$0$PMCCS_Equals_X_L DD 09H
	DD	imagerel ??_R0?AVException@Internal@Core@Math@Palmtree@@@8
	DD	028H
	DD	imagerel PMCCS_Equals_X_L$catch$0
	DD	038H
xdata	ENDS
;	COMDAT xdata
xdata	SEGMENT
$tryMap$PMCCS_Equals_X_L DD 00H
	DD	00H
	DD	01H
	DD	01H
	DD	imagerel $handlerMap$0$PMCCS_Equals_X_L
xdata	ENDS
;	COMDAT xdata
xdata	SEGMENT
$stateUnwindMap$PMCCS_Equals_X_L DD 0ffffffffH
	DD	00H
	DD	0ffffffffH
	DD	00H
xdata	ENDS
;	COMDAT CONST
CONST	SEGMENT
$cppxdata$PMCCS_Equals_X_L DD 019930522H
	DD	02H
	DD	imagerel $stateUnwindMap$PMCCS_Equals_X_L
	DD	01H
	DD	imagerel $tryMap$PMCCS_Equals_X_L
	DD	06H
	DD	imagerel $ip2state$PMCCS_Equals_X_L
	DD	020H
	DD	00H
	DD	00H
CONST	ENDS
;	COMDAT xdata
xdata	SEGMENT
$unwind$PMCCS_Equals_X_L DD 020f19H
	DD	030025206H
	DD	imagerel __CxxFrameHandler3
	DD	imagerel $cppxdata$PMCCS_Equals_X_L
xdata	ENDS
;	COMDAT xdata
xdata	SEGMENT
$unwind$PMCCS_Equals_X_I$catch$0 DD 020a19H
	DD	05006320aH
	DD	imagerel __CxxFrameHandler3
	DD	imagerel $cppxdata$PMCCS_Equals_X_I
xdata	ENDS
;	COMDAT xdata
xdata	SEGMENT
$ip2state$PMCCS_Equals_X_I DD imagerel PMCCS_Equals_X_I
	DD	0ffffffffH
	DD	imagerel PMCCS_Equals_X_I+33
	DD	00H
	DD	imagerel PMCCS_Equals_X_I+44
	DD	0ffffffffH
	DD	imagerel PMCCS_Equals_X_I+48
	DD	00H
	DD	imagerel PMCCS_Equals_X_I$catch$0+13
	DD	01H
	DD	imagerel PMCCS_Equals_X_I$catch$0+23
	DD	00H
xdata	ENDS
;	COMDAT xdata
xdata	SEGMENT
$handlerMap$0$PMCCS_Equals_X_I DD 09H
	DD	imagerel ??_R0?AVException@Internal@Core@Math@Palmtree@@@8
	DD	028H
	DD	imagerel PMCCS_Equals_X_I$catch$0
	DD	038H
xdata	ENDS
;	COMDAT xdata
xdata	SEGMENT
$tryMap$PMCCS_Equals_X_I DD 00H
	DD	00H
	DD	01H
	DD	01H
	DD	imagerel $handlerMap$0$PMCCS_Equals_X_I
xdata	ENDS
;	COMDAT xdata
xdata	SEGMENT
$stateUnwindMap$PMCCS_Equals_X_I DD 0ffffffffH
	DD	00H
	DD	0ffffffffH
	DD	00H
xdata	ENDS
;	COMDAT CONST
CONST	SEGMENT
$cppxdata$PMCCS_Equals_X_I DD 019930522H
	DD	02H
	DD	imagerel $stateUnwindMap$PMCCS_Equals_X_I
	DD	01H
	DD	imagerel $tryMap$PMCCS_Equals_X_I
	DD	06H
	DD	imagerel $ip2state$PMCCS_Equals_X_I
	DD	020H
	DD	00H
	DD	00H
CONST	ENDS
;	COMDAT xdata
xdata	SEGMENT
$unwind$PMCCS_Equals_X_I DD 020f19H
	DD	030025206H
	DD	imagerel __CxxFrameHandler3
	DD	imagerel $cppxdata$PMCCS_Equals_X_I
xdata	ENDS
;	COMDAT xdata
xdata	SEGMENT
$unwind$PMCCS_Equals_L_X$catch$0 DD 020a19H
	DD	05006320aH
	DD	imagerel __CxxFrameHandler3
	DD	imagerel $cppxdata$PMCCS_Equals_L_X
xdata	ENDS
;	COMDAT xdata
xdata	SEGMENT
$ip2state$PMCCS_Equals_L_X DD imagerel PMCCS_Equals_L_X
	DD	0ffffffffH
	DD	imagerel PMCCS_Equals_L_X+33
	DD	00H
	DD	imagerel PMCCS_Equals_L_X+44
	DD	0ffffffffH
	DD	imagerel PMCCS_Equals_L_X+48
	DD	00H
	DD	imagerel PMCCS_Equals_L_X$catch$0+13
	DD	01H
	DD	imagerel PMCCS_Equals_L_X$catch$0+23
	DD	00H
xdata	ENDS
;	COMDAT xdata
xdata	SEGMENT
$handlerMap$0$PMCCS_Equals_L_X DD 09H
	DD	imagerel ??_R0?AVException@Internal@Core@Math@Palmtree@@@8
	DD	028H
	DD	imagerel PMCCS_Equals_L_X$catch$0
	DD	038H
xdata	ENDS
;	COMDAT xdata
xdata	SEGMENT
$tryMap$PMCCS_Equals_L_X DD 00H
	DD	00H
	DD	01H
	DD	01H
	DD	imagerel $handlerMap$0$PMCCS_Equals_L_X
xdata	ENDS
;	COMDAT xdata
xdata	SEGMENT
$stateUnwindMap$PMCCS_Equals_L_X DD 0ffffffffH
	DD	00H
	DD	0ffffffffH
	DD	00H
xdata	ENDS
;	COMDAT CONST
CONST	SEGMENT
$cppxdata$PMCCS_Equals_L_X DD 019930522H
	DD	02H
	DD	imagerel $stateUnwindMap$PMCCS_Equals_L_X
	DD	01H
	DD	imagerel $tryMap$PMCCS_Equals_L_X
	DD	06H
	DD	imagerel $ip2state$PMCCS_Equals_L_X
	DD	020H
	DD	00H
	DD	00H
CONST	ENDS
;	COMDAT xdata
xdata	SEGMENT
$unwind$PMCCS_Equals_L_X DD 020f19H
	DD	030025206H
	DD	imagerel __CxxFrameHandler3
	DD	imagerel $cppxdata$PMCCS_Equals_L_X
xdata	ENDS
;	COMDAT xdata
xdata	SEGMENT
$unwind$PMCCS_Equals_I_X$catch$0 DD 020a19H
	DD	05006320aH
	DD	imagerel __CxxFrameHandler3
	DD	imagerel $cppxdata$PMCCS_Equals_I_X
xdata	ENDS
;	COMDAT xdata
xdata	SEGMENT
$ip2state$PMCCS_Equals_I_X DD imagerel PMCCS_Equals_I_X
	DD	0ffffffffH
	DD	imagerel PMCCS_Equals_I_X+33
	DD	00H
	DD	imagerel PMCCS_Equals_I_X+44
	DD	0ffffffffH
	DD	imagerel PMCCS_Equals_I_X+48
	DD	00H
	DD	imagerel PMCCS_Equals_I_X$catch$0+13
	DD	01H
	DD	imagerel PMCCS_Equals_I_X$catch$0+23
	DD	00H
xdata	ENDS
;	COMDAT xdata
xdata	SEGMENT
$handlerMap$0$PMCCS_Equals_I_X DD 09H
	DD	imagerel ??_R0?AVException@Internal@Core@Math@Palmtree@@@8
	DD	028H
	DD	imagerel PMCCS_Equals_I_X$catch$0
	DD	038H
xdata	ENDS
;	COMDAT xdata
xdata	SEGMENT
$tryMap$PMCCS_Equals_I_X DD 00H
	DD	00H
	DD	01H
	DD	01H
	DD	imagerel $handlerMap$0$PMCCS_Equals_I_X
xdata	ENDS
;	COMDAT xdata
xdata	SEGMENT
$stateUnwindMap$PMCCS_Equals_I_X DD 0ffffffffH
	DD	00H
	DD	0ffffffffH
	DD	00H
xdata	ENDS
;	COMDAT CONST
CONST	SEGMENT
$cppxdata$PMCCS_Equals_I_X DD 019930522H
	DD	02H
	DD	imagerel $stateUnwindMap$PMCCS_Equals_I_X
	DD	01H
	DD	imagerel $tryMap$PMCCS_Equals_I_X
	DD	06H
	DD	imagerel $ip2state$PMCCS_Equals_I_X
	DD	020H
	DD	00H
	DD	00H
CONST	ENDS
;	COMDAT xdata
xdata	SEGMENT
$unwind$PMCCS_Equals_I_X DD 020f19H
	DD	030025206H
	DD	imagerel __CxxFrameHandler3
	DD	imagerel $cppxdata$PMCCS_Equals_I_X
xdata	ENDS
;	COMDAT xdata
xdata	SEGMENT
$unwind$PMCCS_Compare_X_X$catch$0 DD 020a19H
	DD	05006320aH
	DD	imagerel __CxxFrameHandler3
	DD	imagerel $cppxdata$PMCCS_Compare_X_X
xdata	ENDS
;	COMDAT xdata
xdata	SEGMENT
$ip2state$PMCCS_Compare_X_X DD imagerel PMCCS_Compare_X_X
	DD	0ffffffffH
	DD	imagerel PMCCS_Compare_X_X+33
	DD	00H
	DD	imagerel PMCCS_Compare_X_X+44
	DD	0ffffffffH
	DD	imagerel PMCCS_Compare_X_X+48
	DD	00H
	DD	imagerel PMCCS_Compare_X_X$catch$0+13
	DD	01H
	DD	imagerel PMCCS_Compare_X_X$catch$0+23
	DD	00H
xdata	ENDS
;	COMDAT xdata
xdata	SEGMENT
$handlerMap$0$PMCCS_Compare_X_X DD 09H
	DD	imagerel ??_R0?AVException@Internal@Core@Math@Palmtree@@@8
	DD	028H
	DD	imagerel PMCCS_Compare_X_X$catch$0
	DD	038H
xdata	ENDS
;	COMDAT xdata
xdata	SEGMENT
$tryMap$PMCCS_Compare_X_X DD 00H
	DD	00H
	DD	01H
	DD	01H
	DD	imagerel $handlerMap$0$PMCCS_Compare_X_X
xdata	ENDS
;	COMDAT xdata
xdata	SEGMENT
$stateUnwindMap$PMCCS_Compare_X_X DD 0ffffffffH
	DD	00H
	DD	0ffffffffH
	DD	00H
xdata	ENDS
;	COMDAT CONST
CONST	SEGMENT
$cppxdata$PMCCS_Compare_X_X DD 019930522H
	DD	02H
	DD	imagerel $stateUnwindMap$PMCCS_Compare_X_X
	DD	01H
	DD	imagerel $tryMap$PMCCS_Compare_X_X
	DD	06H
	DD	imagerel $ip2state$PMCCS_Compare_X_X
	DD	020H
	DD	00H
	DD	00H
CONST	ENDS
;	COMDAT xdata
xdata	SEGMENT
$unwind$PMCCS_Compare_X_X DD 020f19H
	DD	030025206H
	DD	imagerel __CxxFrameHandler3
	DD	imagerel $cppxdata$PMCCS_Compare_X_X
xdata	ENDS
;	COMDAT xdata
xdata	SEGMENT
$unwind$PMCCS_Compare_X_L$catch$0 DD 020a19H
	DD	05006320aH
	DD	imagerel __CxxFrameHandler3
	DD	imagerel $cppxdata$PMCCS_Compare_X_L
xdata	ENDS
;	COMDAT xdata
xdata	SEGMENT
$ip2state$PMCCS_Compare_X_L DD imagerel PMCCS_Compare_X_L
	DD	0ffffffffH
	DD	imagerel PMCCS_Compare_X_L+33
	DD	00H
	DD	imagerel PMCCS_Compare_X_L+44
	DD	0ffffffffH
	DD	imagerel PMCCS_Compare_X_L+48
	DD	00H
	DD	imagerel PMCCS_Compare_X_L$catch$0+13
	DD	01H
	DD	imagerel PMCCS_Compare_X_L$catch$0+23
	DD	00H
xdata	ENDS
;	COMDAT xdata
xdata	SEGMENT
$handlerMap$0$PMCCS_Compare_X_L DD 09H
	DD	imagerel ??_R0?AVException@Internal@Core@Math@Palmtree@@@8
	DD	028H
	DD	imagerel PMCCS_Compare_X_L$catch$0
	DD	038H
xdata	ENDS
;	COMDAT xdata
xdata	SEGMENT
$tryMap$PMCCS_Compare_X_L DD 00H
	DD	00H
	DD	01H
	DD	01H
	DD	imagerel $handlerMap$0$PMCCS_Compare_X_L
xdata	ENDS
;	COMDAT xdata
xdata	SEGMENT
$stateUnwindMap$PMCCS_Compare_X_L DD 0ffffffffH
	DD	00H
	DD	0ffffffffH
	DD	00H
xdata	ENDS
;	COMDAT CONST
CONST	SEGMENT
$cppxdata$PMCCS_Compare_X_L DD 019930522H
	DD	02H
	DD	imagerel $stateUnwindMap$PMCCS_Compare_X_L
	DD	01H
	DD	imagerel $tryMap$PMCCS_Compare_X_L
	DD	06H
	DD	imagerel $ip2state$PMCCS_Compare_X_L
	DD	020H
	DD	00H
	DD	00H
CONST	ENDS
;	COMDAT xdata
xdata	SEGMENT
$unwind$PMCCS_Compare_X_L DD 020f19H
	DD	030025206H
	DD	imagerel __CxxFrameHandler3
	DD	imagerel $cppxdata$PMCCS_Compare_X_L
xdata	ENDS
;	COMDAT xdata
xdata	SEGMENT
$unwind$PMCCS_Compare_X_I$catch$0 DD 020a19H
	DD	05006320aH
	DD	imagerel __CxxFrameHandler3
	DD	imagerel $cppxdata$PMCCS_Compare_X_I
xdata	ENDS
;	COMDAT xdata
xdata	SEGMENT
$ip2state$PMCCS_Compare_X_I DD imagerel PMCCS_Compare_X_I
	DD	0ffffffffH
	DD	imagerel PMCCS_Compare_X_I+33
	DD	00H
	DD	imagerel PMCCS_Compare_X_I+44
	DD	0ffffffffH
	DD	imagerel PMCCS_Compare_X_I+48
	DD	00H
	DD	imagerel PMCCS_Compare_X_I$catch$0+13
	DD	01H
	DD	imagerel PMCCS_Compare_X_I$catch$0+23
	DD	00H
xdata	ENDS
;	COMDAT xdata
xdata	SEGMENT
$handlerMap$0$PMCCS_Compare_X_I DD 09H
	DD	imagerel ??_R0?AVException@Internal@Core@Math@Palmtree@@@8
	DD	028H
	DD	imagerel PMCCS_Compare_X_I$catch$0
	DD	038H
xdata	ENDS
;	COMDAT xdata
xdata	SEGMENT
$tryMap$PMCCS_Compare_X_I DD 00H
	DD	00H
	DD	01H
	DD	01H
	DD	imagerel $handlerMap$0$PMCCS_Compare_X_I
xdata	ENDS
;	COMDAT xdata
xdata	SEGMENT
$stateUnwindMap$PMCCS_Compare_X_I DD 0ffffffffH
	DD	00H
	DD	0ffffffffH
	DD	00H
xdata	ENDS
;	COMDAT CONST
CONST	SEGMENT
$cppxdata$PMCCS_Compare_X_I DD 019930522H
	DD	02H
	DD	imagerel $stateUnwindMap$PMCCS_Compare_X_I
	DD	01H
	DD	imagerel $tryMap$PMCCS_Compare_X_I
	DD	06H
	DD	imagerel $ip2state$PMCCS_Compare_X_I
	DD	020H
	DD	00H
	DD	00H
CONST	ENDS
;	COMDAT xdata
xdata	SEGMENT
$unwind$PMCCS_Compare_X_I DD 020f19H
	DD	030025206H
	DD	imagerel __CxxFrameHandler3
	DD	imagerel $cppxdata$PMCCS_Compare_X_I
xdata	ENDS
;	COMDAT xdata
xdata	SEGMENT
$unwind$PMCCS_Compare_L_X$catch$0 DD 020a19H
	DD	05006320aH
	DD	imagerel __CxxFrameHandler3
	DD	imagerel $cppxdata$PMCCS_Compare_L_X
xdata	ENDS
;	COMDAT xdata
xdata	SEGMENT
$ip2state$PMCCS_Compare_L_X DD imagerel PMCCS_Compare_L_X
	DD	0ffffffffH
	DD	imagerel PMCCS_Compare_L_X+33
	DD	00H
	DD	imagerel PMCCS_Compare_L_X+44
	DD	0ffffffffH
	DD	imagerel PMCCS_Compare_L_X+48
	DD	00H
	DD	imagerel PMCCS_Compare_L_X$catch$0+13
	DD	01H
	DD	imagerel PMCCS_Compare_L_X$catch$0+23
	DD	00H
xdata	ENDS
;	COMDAT xdata
xdata	SEGMENT
$handlerMap$0$PMCCS_Compare_L_X DD 09H
	DD	imagerel ??_R0?AVException@Internal@Core@Math@Palmtree@@@8
	DD	028H
	DD	imagerel PMCCS_Compare_L_X$catch$0
	DD	038H
xdata	ENDS
;	COMDAT xdata
xdata	SEGMENT
$tryMap$PMCCS_Compare_L_X DD 00H
	DD	00H
	DD	01H
	DD	01H
	DD	imagerel $handlerMap$0$PMCCS_Compare_L_X
xdata	ENDS
;	COMDAT xdata
xdata	SEGMENT
$stateUnwindMap$PMCCS_Compare_L_X DD 0ffffffffH
	DD	00H
	DD	0ffffffffH
	DD	00H
xdata	ENDS
;	COMDAT CONST
CONST	SEGMENT
$cppxdata$PMCCS_Compare_L_X DD 019930522H
	DD	02H
	DD	imagerel $stateUnwindMap$PMCCS_Compare_L_X
	DD	01H
	DD	imagerel $tryMap$PMCCS_Compare_L_X
	DD	06H
	DD	imagerel $ip2state$PMCCS_Compare_L_X
	DD	020H
	DD	00H
	DD	00H
CONST	ENDS
;	COMDAT xdata
xdata	SEGMENT
$unwind$PMCCS_Compare_L_X DD 020f19H
	DD	030025206H
	DD	imagerel __CxxFrameHandler3
	DD	imagerel $cppxdata$PMCCS_Compare_L_X
xdata	ENDS
;	COMDAT xdata
xdata	SEGMENT
$unwind$PMCCS_Compare_I_X$catch$0 DD 020a19H
	DD	05006320aH
	DD	imagerel __CxxFrameHandler3
	DD	imagerel $cppxdata$PMCCS_Compare_I_X
xdata	ENDS
;	COMDAT xdata
xdata	SEGMENT
$ip2state$PMCCS_Compare_I_X DD imagerel PMCCS_Compare_I_X
	DD	0ffffffffH
	DD	imagerel PMCCS_Compare_I_X+33
	DD	00H
	DD	imagerel PMCCS_Compare_I_X+44
	DD	0ffffffffH
	DD	imagerel PMCCS_Compare_I_X+48
	DD	00H
	DD	imagerel PMCCS_Compare_I_X$catch$0+13
	DD	01H
	DD	imagerel PMCCS_Compare_I_X$catch$0+23
	DD	00H
xdata	ENDS
;	COMDAT xdata
xdata	SEGMENT
$handlerMap$0$PMCCS_Compare_I_X DD 09H
	DD	imagerel ??_R0?AVException@Internal@Core@Math@Palmtree@@@8
	DD	028H
	DD	imagerel PMCCS_Compare_I_X$catch$0
	DD	038H
xdata	ENDS
;	COMDAT xdata
xdata	SEGMENT
$tryMap$PMCCS_Compare_I_X DD 00H
	DD	00H
	DD	01H
	DD	01H
	DD	imagerel $handlerMap$0$PMCCS_Compare_I_X
xdata	ENDS
;	COMDAT xdata
xdata	SEGMENT
$stateUnwindMap$PMCCS_Compare_I_X DD 0ffffffffH
	DD	00H
	DD	0ffffffffH
	DD	00H
xdata	ENDS
;	COMDAT CONST
CONST	SEGMENT
$cppxdata$PMCCS_Compare_I_X DD 019930522H
	DD	02H
	DD	imagerel $stateUnwindMap$PMCCS_Compare_I_X
	DD	01H
	DD	imagerel $tryMap$PMCCS_Compare_I_X
	DD	06H
	DD	imagerel $ip2state$PMCCS_Compare_I_X
	DD	020H
	DD	00H
	DD	00H
CONST	ENDS
;	COMDAT xdata
xdata	SEGMENT
$unwind$PMCCS_Compare_I_X DD 020f19H
	DD	030025206H
	DD	imagerel __CxxFrameHandler3
	DD	imagerel $cppxdata$PMCCS_Compare_I_X
xdata	ENDS
;	COMDAT xdata
xdata	SEGMENT
$unwind$PMCCS_ExclusiveOr_X_X$catch$0 DD 020a19H
	DD	05006320aH
	DD	imagerel __CxxFrameHandler3
	DD	imagerel $cppxdata$PMCCS_ExclusiveOr_X_X
xdata	ENDS
;	COMDAT xdata
xdata	SEGMENT
$ip2state$PMCCS_ExclusiveOr_X_X DD imagerel PMCCS_ExclusiveOr_X_X
	DD	0ffffffffH
	DD	imagerel PMCCS_ExclusiveOr_X_X+33
	DD	00H
	DD	imagerel PMCCS_ExclusiveOr_X_X+45
	DD	0ffffffffH
	DD	imagerel PMCCS_ExclusiveOr_X_X+49
	DD	00H
	DD	imagerel PMCCS_ExclusiveOr_X_X$catch$0+13
	DD	01H
	DD	imagerel PMCCS_ExclusiveOr_X_X$catch$0+23
	DD	00H
xdata	ENDS
;	COMDAT xdata
xdata	SEGMENT
$handlerMap$0$PMCCS_ExclusiveOr_X_X DD 09H
	DD	imagerel ??_R0?AVException@Internal@Core@Math@Palmtree@@@8
	DD	028H
	DD	imagerel PMCCS_ExclusiveOr_X_X$catch$0
	DD	038H
xdata	ENDS
;	COMDAT xdata
xdata	SEGMENT
$tryMap$PMCCS_ExclusiveOr_X_X DD 00H
	DD	00H
	DD	01H
	DD	01H
	DD	imagerel $handlerMap$0$PMCCS_ExclusiveOr_X_X
xdata	ENDS
;	COMDAT xdata
xdata	SEGMENT
$stateUnwindMap$PMCCS_ExclusiveOr_X_X DD 0ffffffffH
	DD	00H
	DD	0ffffffffH
	DD	00H
xdata	ENDS
;	COMDAT CONST
CONST	SEGMENT
$cppxdata$PMCCS_ExclusiveOr_X_X DD 019930522H
	DD	02H
	DD	imagerel $stateUnwindMap$PMCCS_ExclusiveOr_X_X
	DD	01H
	DD	imagerel $tryMap$PMCCS_ExclusiveOr_X_X
	DD	06H
	DD	imagerel $ip2state$PMCCS_ExclusiveOr_X_X
	DD	020H
	DD	00H
	DD	00H
CONST	ENDS
;	COMDAT xdata
xdata	SEGMENT
$unwind$PMCCS_ExclusiveOr_X_X DD 020f19H
	DD	030025206H
	DD	imagerel __CxxFrameHandler3
	DD	imagerel $cppxdata$PMCCS_ExclusiveOr_X_X
xdata	ENDS
;	COMDAT xdata
xdata	SEGMENT
$unwind$PMCCS_ExclusiveOr_X_L$catch$0 DD 020a19H
	DD	05006320aH
	DD	imagerel __CxxFrameHandler3
	DD	imagerel $cppxdata$PMCCS_ExclusiveOr_X_L
xdata	ENDS
;	COMDAT xdata
xdata	SEGMENT
$ip2state$PMCCS_ExclusiveOr_X_L DD imagerel PMCCS_ExclusiveOr_X_L
	DD	0ffffffffH
	DD	imagerel PMCCS_ExclusiveOr_X_L+33
	DD	00H
	DD	imagerel PMCCS_ExclusiveOr_X_L+45
	DD	0ffffffffH
	DD	imagerel PMCCS_ExclusiveOr_X_L+49
	DD	00H
	DD	imagerel PMCCS_ExclusiveOr_X_L$catch$0+13
	DD	01H
	DD	imagerel PMCCS_ExclusiveOr_X_L$catch$0+23
	DD	00H
xdata	ENDS
;	COMDAT xdata
xdata	SEGMENT
$handlerMap$0$PMCCS_ExclusiveOr_X_L DD 09H
	DD	imagerel ??_R0?AVException@Internal@Core@Math@Palmtree@@@8
	DD	028H
	DD	imagerel PMCCS_ExclusiveOr_X_L$catch$0
	DD	038H
xdata	ENDS
;	COMDAT xdata
xdata	SEGMENT
$tryMap$PMCCS_ExclusiveOr_X_L DD 00H
	DD	00H
	DD	01H
	DD	01H
	DD	imagerel $handlerMap$0$PMCCS_ExclusiveOr_X_L
xdata	ENDS
;	COMDAT xdata
xdata	SEGMENT
$stateUnwindMap$PMCCS_ExclusiveOr_X_L DD 0ffffffffH
	DD	00H
	DD	0ffffffffH
	DD	00H
xdata	ENDS
;	COMDAT CONST
CONST	SEGMENT
$cppxdata$PMCCS_ExclusiveOr_X_L DD 019930522H
	DD	02H
	DD	imagerel $stateUnwindMap$PMCCS_ExclusiveOr_X_L
	DD	01H
	DD	imagerel $tryMap$PMCCS_ExclusiveOr_X_L
	DD	06H
	DD	imagerel $ip2state$PMCCS_ExclusiveOr_X_L
	DD	020H
	DD	00H
	DD	00H
CONST	ENDS
;	COMDAT xdata
xdata	SEGMENT
$unwind$PMCCS_ExclusiveOr_X_L DD 020f19H
	DD	030025206H
	DD	imagerel __CxxFrameHandler3
	DD	imagerel $cppxdata$PMCCS_ExclusiveOr_X_L
xdata	ENDS
;	COMDAT xdata
xdata	SEGMENT
$unwind$PMCCS_ExclusiveOr_X_I$catch$0 DD 020a19H
	DD	05006320aH
	DD	imagerel __CxxFrameHandler3
	DD	imagerel $cppxdata$PMCCS_ExclusiveOr_X_I
xdata	ENDS
;	COMDAT xdata
xdata	SEGMENT
$ip2state$PMCCS_ExclusiveOr_X_I DD imagerel PMCCS_ExclusiveOr_X_I
	DD	0ffffffffH
	DD	imagerel PMCCS_ExclusiveOr_X_I+33
	DD	00H
	DD	imagerel PMCCS_ExclusiveOr_X_I+45
	DD	0ffffffffH
	DD	imagerel PMCCS_ExclusiveOr_X_I+49
	DD	00H
	DD	imagerel PMCCS_ExclusiveOr_X_I$catch$0+13
	DD	01H
	DD	imagerel PMCCS_ExclusiveOr_X_I$catch$0+23
	DD	00H
xdata	ENDS
;	COMDAT xdata
xdata	SEGMENT
$handlerMap$0$PMCCS_ExclusiveOr_X_I DD 09H
	DD	imagerel ??_R0?AVException@Internal@Core@Math@Palmtree@@@8
	DD	028H
	DD	imagerel PMCCS_ExclusiveOr_X_I$catch$0
	DD	038H
xdata	ENDS
;	COMDAT xdata
xdata	SEGMENT
$tryMap$PMCCS_ExclusiveOr_X_I DD 00H
	DD	00H
	DD	01H
	DD	01H
	DD	imagerel $handlerMap$0$PMCCS_ExclusiveOr_X_I
xdata	ENDS
;	COMDAT xdata
xdata	SEGMENT
$stateUnwindMap$PMCCS_ExclusiveOr_X_I DD 0ffffffffH
	DD	00H
	DD	0ffffffffH
	DD	00H
xdata	ENDS
;	COMDAT CONST
CONST	SEGMENT
$cppxdata$PMCCS_ExclusiveOr_X_I DD 019930522H
	DD	02H
	DD	imagerel $stateUnwindMap$PMCCS_ExclusiveOr_X_I
	DD	01H
	DD	imagerel $tryMap$PMCCS_ExclusiveOr_X_I
	DD	06H
	DD	imagerel $ip2state$PMCCS_ExclusiveOr_X_I
	DD	020H
	DD	00H
	DD	00H
CONST	ENDS
;	COMDAT xdata
xdata	SEGMENT
$unwind$PMCCS_ExclusiveOr_X_I DD 020f19H
	DD	030025206H
	DD	imagerel __CxxFrameHandler3
	DD	imagerel $cppxdata$PMCCS_ExclusiveOr_X_I
xdata	ENDS
;	COMDAT xdata
xdata	SEGMENT
$unwind$PMCCS_ExclusiveOr_L_X$catch$0 DD 020a19H
	DD	05006320aH
	DD	imagerel __CxxFrameHandler3
	DD	imagerel $cppxdata$PMCCS_ExclusiveOr_L_X
xdata	ENDS
;	COMDAT xdata
xdata	SEGMENT
$ip2state$PMCCS_ExclusiveOr_L_X DD imagerel PMCCS_ExclusiveOr_L_X
	DD	0ffffffffH
	DD	imagerel PMCCS_ExclusiveOr_L_X+33
	DD	00H
	DD	imagerel PMCCS_ExclusiveOr_L_X+45
	DD	0ffffffffH
	DD	imagerel PMCCS_ExclusiveOr_L_X+49
	DD	00H
	DD	imagerel PMCCS_ExclusiveOr_L_X$catch$0+13
	DD	01H
	DD	imagerel PMCCS_ExclusiveOr_L_X$catch$0+23
	DD	00H
xdata	ENDS
;	COMDAT xdata
xdata	SEGMENT
$handlerMap$0$PMCCS_ExclusiveOr_L_X DD 09H
	DD	imagerel ??_R0?AVException@Internal@Core@Math@Palmtree@@@8
	DD	028H
	DD	imagerel PMCCS_ExclusiveOr_L_X$catch$0
	DD	038H
xdata	ENDS
;	COMDAT xdata
xdata	SEGMENT
$tryMap$PMCCS_ExclusiveOr_L_X DD 00H
	DD	00H
	DD	01H
	DD	01H
	DD	imagerel $handlerMap$0$PMCCS_ExclusiveOr_L_X
xdata	ENDS
;	COMDAT xdata
xdata	SEGMENT
$stateUnwindMap$PMCCS_ExclusiveOr_L_X DD 0ffffffffH
	DD	00H
	DD	0ffffffffH
	DD	00H
xdata	ENDS
;	COMDAT CONST
CONST	SEGMENT
$cppxdata$PMCCS_ExclusiveOr_L_X DD 019930522H
	DD	02H
	DD	imagerel $stateUnwindMap$PMCCS_ExclusiveOr_L_X
	DD	01H
	DD	imagerel $tryMap$PMCCS_ExclusiveOr_L_X
	DD	06H
	DD	imagerel $ip2state$PMCCS_ExclusiveOr_L_X
	DD	020H
	DD	00H
	DD	00H
CONST	ENDS
;	COMDAT xdata
xdata	SEGMENT
$unwind$PMCCS_ExclusiveOr_L_X DD 020f19H
	DD	030025206H
	DD	imagerel __CxxFrameHandler3
	DD	imagerel $cppxdata$PMCCS_ExclusiveOr_L_X
xdata	ENDS
;	COMDAT xdata
xdata	SEGMENT
$unwind$PMCCS_ExclusiveOr_I_X$catch$0 DD 020a19H
	DD	05006320aH
	DD	imagerel __CxxFrameHandler3
	DD	imagerel $cppxdata$PMCCS_ExclusiveOr_I_X
xdata	ENDS
;	COMDAT xdata
xdata	SEGMENT
$ip2state$PMCCS_ExclusiveOr_I_X DD imagerel PMCCS_ExclusiveOr_I_X
	DD	0ffffffffH
	DD	imagerel PMCCS_ExclusiveOr_I_X+33
	DD	00H
	DD	imagerel PMCCS_ExclusiveOr_I_X+45
	DD	0ffffffffH
	DD	imagerel PMCCS_ExclusiveOr_I_X+49
	DD	00H
	DD	imagerel PMCCS_ExclusiveOr_I_X$catch$0+13
	DD	01H
	DD	imagerel PMCCS_ExclusiveOr_I_X$catch$0+23
	DD	00H
xdata	ENDS
;	COMDAT xdata
xdata	SEGMENT
$handlerMap$0$PMCCS_ExclusiveOr_I_X DD 09H
	DD	imagerel ??_R0?AVException@Internal@Core@Math@Palmtree@@@8
	DD	028H
	DD	imagerel PMCCS_ExclusiveOr_I_X$catch$0
	DD	038H
xdata	ENDS
;	COMDAT xdata
xdata	SEGMENT
$tryMap$PMCCS_ExclusiveOr_I_X DD 00H
	DD	00H
	DD	01H
	DD	01H
	DD	imagerel $handlerMap$0$PMCCS_ExclusiveOr_I_X
xdata	ENDS
;	COMDAT xdata
xdata	SEGMENT
$stateUnwindMap$PMCCS_ExclusiveOr_I_X DD 0ffffffffH
	DD	00H
	DD	0ffffffffH
	DD	00H
xdata	ENDS
;	COMDAT CONST
CONST	SEGMENT
$cppxdata$PMCCS_ExclusiveOr_I_X DD 019930522H
	DD	02H
	DD	imagerel $stateUnwindMap$PMCCS_ExclusiveOr_I_X
	DD	01H
	DD	imagerel $tryMap$PMCCS_ExclusiveOr_I_X
	DD	06H
	DD	imagerel $ip2state$PMCCS_ExclusiveOr_I_X
	DD	020H
	DD	00H
	DD	00H
CONST	ENDS
;	COMDAT xdata
xdata	SEGMENT
$unwind$PMCCS_ExclusiveOr_I_X DD 020f19H
	DD	030025206H
	DD	imagerel __CxxFrameHandler3
	DD	imagerel $cppxdata$PMCCS_ExclusiveOr_I_X
xdata	ENDS
;	COMDAT xdata
xdata	SEGMENT
$unwind$PMCCS_BitwiseOr_X_X$catch$0 DD 020a19H
	DD	05006320aH
	DD	imagerel __CxxFrameHandler3
	DD	imagerel $cppxdata$PMCCS_BitwiseOr_X_X
xdata	ENDS
;	COMDAT xdata
xdata	SEGMENT
$ip2state$PMCCS_BitwiseOr_X_X DD imagerel PMCCS_BitwiseOr_X_X
	DD	0ffffffffH
	DD	imagerel PMCCS_BitwiseOr_X_X+33
	DD	00H
	DD	imagerel PMCCS_BitwiseOr_X_X+45
	DD	0ffffffffH
	DD	imagerel PMCCS_BitwiseOr_X_X+49
	DD	00H
	DD	imagerel PMCCS_BitwiseOr_X_X$catch$0+13
	DD	01H
	DD	imagerel PMCCS_BitwiseOr_X_X$catch$0+23
	DD	00H
xdata	ENDS
;	COMDAT xdata
xdata	SEGMENT
$handlerMap$0$PMCCS_BitwiseOr_X_X DD 09H
	DD	imagerel ??_R0?AVException@Internal@Core@Math@Palmtree@@@8
	DD	028H
	DD	imagerel PMCCS_BitwiseOr_X_X$catch$0
	DD	038H
xdata	ENDS
;	COMDAT xdata
xdata	SEGMENT
$tryMap$PMCCS_BitwiseOr_X_X DD 00H
	DD	00H
	DD	01H
	DD	01H
	DD	imagerel $handlerMap$0$PMCCS_BitwiseOr_X_X
xdata	ENDS
;	COMDAT xdata
xdata	SEGMENT
$stateUnwindMap$PMCCS_BitwiseOr_X_X DD 0ffffffffH
	DD	00H
	DD	0ffffffffH
	DD	00H
xdata	ENDS
;	COMDAT CONST
CONST	SEGMENT
$cppxdata$PMCCS_BitwiseOr_X_X DD 019930522H
	DD	02H
	DD	imagerel $stateUnwindMap$PMCCS_BitwiseOr_X_X
	DD	01H
	DD	imagerel $tryMap$PMCCS_BitwiseOr_X_X
	DD	06H
	DD	imagerel $ip2state$PMCCS_BitwiseOr_X_X
	DD	020H
	DD	00H
	DD	00H
CONST	ENDS
;	COMDAT xdata
xdata	SEGMENT
$unwind$PMCCS_BitwiseOr_X_X DD 020f19H
	DD	030025206H
	DD	imagerel __CxxFrameHandler3
	DD	imagerel $cppxdata$PMCCS_BitwiseOr_X_X
xdata	ENDS
;	COMDAT xdata
xdata	SEGMENT
$unwind$PMCCS_BitwiseOr_X_L$catch$0 DD 020a19H
	DD	05006320aH
	DD	imagerel __CxxFrameHandler3
	DD	imagerel $cppxdata$PMCCS_BitwiseOr_X_L
xdata	ENDS
;	COMDAT xdata
xdata	SEGMENT
$ip2state$PMCCS_BitwiseOr_X_L DD imagerel PMCCS_BitwiseOr_X_L
	DD	0ffffffffH
	DD	imagerel PMCCS_BitwiseOr_X_L+33
	DD	00H
	DD	imagerel PMCCS_BitwiseOr_X_L+45
	DD	0ffffffffH
	DD	imagerel PMCCS_BitwiseOr_X_L+49
	DD	00H
	DD	imagerel PMCCS_BitwiseOr_X_L$catch$0+13
	DD	01H
	DD	imagerel PMCCS_BitwiseOr_X_L$catch$0+23
	DD	00H
xdata	ENDS
;	COMDAT xdata
xdata	SEGMENT
$handlerMap$0$PMCCS_BitwiseOr_X_L DD 09H
	DD	imagerel ??_R0?AVException@Internal@Core@Math@Palmtree@@@8
	DD	028H
	DD	imagerel PMCCS_BitwiseOr_X_L$catch$0
	DD	038H
xdata	ENDS
;	COMDAT xdata
xdata	SEGMENT
$tryMap$PMCCS_BitwiseOr_X_L DD 00H
	DD	00H
	DD	01H
	DD	01H
	DD	imagerel $handlerMap$0$PMCCS_BitwiseOr_X_L
xdata	ENDS
;	COMDAT xdata
xdata	SEGMENT
$stateUnwindMap$PMCCS_BitwiseOr_X_L DD 0ffffffffH
	DD	00H
	DD	0ffffffffH
	DD	00H
xdata	ENDS
;	COMDAT CONST
CONST	SEGMENT
$cppxdata$PMCCS_BitwiseOr_X_L DD 019930522H
	DD	02H
	DD	imagerel $stateUnwindMap$PMCCS_BitwiseOr_X_L
	DD	01H
	DD	imagerel $tryMap$PMCCS_BitwiseOr_X_L
	DD	06H
	DD	imagerel $ip2state$PMCCS_BitwiseOr_X_L
	DD	020H
	DD	00H
	DD	00H
CONST	ENDS
;	COMDAT xdata
xdata	SEGMENT
$unwind$PMCCS_BitwiseOr_X_L DD 020f19H
	DD	030025206H
	DD	imagerel __CxxFrameHandler3
	DD	imagerel $cppxdata$PMCCS_BitwiseOr_X_L
xdata	ENDS
;	COMDAT xdata
xdata	SEGMENT
$unwind$PMCCS_BitwiseOr_X_I$catch$0 DD 020a19H
	DD	05006320aH
	DD	imagerel __CxxFrameHandler3
	DD	imagerel $cppxdata$PMCCS_BitwiseOr_X_I
xdata	ENDS
;	COMDAT xdata
xdata	SEGMENT
$ip2state$PMCCS_BitwiseOr_X_I DD imagerel PMCCS_BitwiseOr_X_I
	DD	0ffffffffH
	DD	imagerel PMCCS_BitwiseOr_X_I+33
	DD	00H
	DD	imagerel PMCCS_BitwiseOr_X_I+45
	DD	0ffffffffH
	DD	imagerel PMCCS_BitwiseOr_X_I+49
	DD	00H
	DD	imagerel PMCCS_BitwiseOr_X_I$catch$0+13
	DD	01H
	DD	imagerel PMCCS_BitwiseOr_X_I$catch$0+23
	DD	00H
xdata	ENDS
;	COMDAT xdata
xdata	SEGMENT
$handlerMap$0$PMCCS_BitwiseOr_X_I DD 09H
	DD	imagerel ??_R0?AVException@Internal@Core@Math@Palmtree@@@8
	DD	028H
	DD	imagerel PMCCS_BitwiseOr_X_I$catch$0
	DD	038H
xdata	ENDS
;	COMDAT xdata
xdata	SEGMENT
$tryMap$PMCCS_BitwiseOr_X_I DD 00H
	DD	00H
	DD	01H
	DD	01H
	DD	imagerel $handlerMap$0$PMCCS_BitwiseOr_X_I
xdata	ENDS
;	COMDAT xdata
xdata	SEGMENT
$stateUnwindMap$PMCCS_BitwiseOr_X_I DD 0ffffffffH
	DD	00H
	DD	0ffffffffH
	DD	00H
xdata	ENDS
;	COMDAT CONST
CONST	SEGMENT
$cppxdata$PMCCS_BitwiseOr_X_I DD 019930522H
	DD	02H
	DD	imagerel $stateUnwindMap$PMCCS_BitwiseOr_X_I
	DD	01H
	DD	imagerel $tryMap$PMCCS_BitwiseOr_X_I
	DD	06H
	DD	imagerel $ip2state$PMCCS_BitwiseOr_X_I
	DD	020H
	DD	00H
	DD	00H
CONST	ENDS
;	COMDAT xdata
xdata	SEGMENT
$unwind$PMCCS_BitwiseOr_X_I DD 020f19H
	DD	030025206H
	DD	imagerel __CxxFrameHandler3
	DD	imagerel $cppxdata$PMCCS_BitwiseOr_X_I
xdata	ENDS
;	COMDAT xdata
xdata	SEGMENT
$unwind$PMCCS_BitwiseOr_L_X$catch$0 DD 020a19H
	DD	05006320aH
	DD	imagerel __CxxFrameHandler3
	DD	imagerel $cppxdata$PMCCS_BitwiseOr_L_X
xdata	ENDS
;	COMDAT xdata
xdata	SEGMENT
$ip2state$PMCCS_BitwiseOr_L_X DD imagerel PMCCS_BitwiseOr_L_X
	DD	0ffffffffH
	DD	imagerel PMCCS_BitwiseOr_L_X+33
	DD	00H
	DD	imagerel PMCCS_BitwiseOr_L_X+45
	DD	0ffffffffH
	DD	imagerel PMCCS_BitwiseOr_L_X+49
	DD	00H
	DD	imagerel PMCCS_BitwiseOr_L_X$catch$0+13
	DD	01H
	DD	imagerel PMCCS_BitwiseOr_L_X$catch$0+23
	DD	00H
xdata	ENDS
;	COMDAT xdata
xdata	SEGMENT
$handlerMap$0$PMCCS_BitwiseOr_L_X DD 09H
	DD	imagerel ??_R0?AVException@Internal@Core@Math@Palmtree@@@8
	DD	028H
	DD	imagerel PMCCS_BitwiseOr_L_X$catch$0
	DD	038H
xdata	ENDS
;	COMDAT xdata
xdata	SEGMENT
$tryMap$PMCCS_BitwiseOr_L_X DD 00H
	DD	00H
	DD	01H
	DD	01H
	DD	imagerel $handlerMap$0$PMCCS_BitwiseOr_L_X
xdata	ENDS
;	COMDAT xdata
xdata	SEGMENT
$stateUnwindMap$PMCCS_BitwiseOr_L_X DD 0ffffffffH
	DD	00H
	DD	0ffffffffH
	DD	00H
xdata	ENDS
;	COMDAT CONST
CONST	SEGMENT
$cppxdata$PMCCS_BitwiseOr_L_X DD 019930522H
	DD	02H
	DD	imagerel $stateUnwindMap$PMCCS_BitwiseOr_L_X
	DD	01H
	DD	imagerel $tryMap$PMCCS_BitwiseOr_L_X
	DD	06H
	DD	imagerel $ip2state$PMCCS_BitwiseOr_L_X
	DD	020H
	DD	00H
	DD	00H
CONST	ENDS
;	COMDAT xdata
xdata	SEGMENT
$unwind$PMCCS_BitwiseOr_L_X DD 020f19H
	DD	030025206H
	DD	imagerel __CxxFrameHandler3
	DD	imagerel $cppxdata$PMCCS_BitwiseOr_L_X
xdata	ENDS
;	COMDAT xdata
xdata	SEGMENT
$unwind$PMCCS_BitwiseOr_I_X$catch$0 DD 020a19H
	DD	05006320aH
	DD	imagerel __CxxFrameHandler3
	DD	imagerel $cppxdata$PMCCS_BitwiseOr_I_X
xdata	ENDS
;	COMDAT xdata
xdata	SEGMENT
$ip2state$PMCCS_BitwiseOr_I_X DD imagerel PMCCS_BitwiseOr_I_X
	DD	0ffffffffH
	DD	imagerel PMCCS_BitwiseOr_I_X+33
	DD	00H
	DD	imagerel PMCCS_BitwiseOr_I_X+45
	DD	0ffffffffH
	DD	imagerel PMCCS_BitwiseOr_I_X+49
	DD	00H
	DD	imagerel PMCCS_BitwiseOr_I_X$catch$0+13
	DD	01H
	DD	imagerel PMCCS_BitwiseOr_I_X$catch$0+23
	DD	00H
xdata	ENDS
;	COMDAT xdata
xdata	SEGMENT
$handlerMap$0$PMCCS_BitwiseOr_I_X DD 09H
	DD	imagerel ??_R0?AVException@Internal@Core@Math@Palmtree@@@8
	DD	028H
	DD	imagerel PMCCS_BitwiseOr_I_X$catch$0
	DD	038H
xdata	ENDS
;	COMDAT xdata
xdata	SEGMENT
$tryMap$PMCCS_BitwiseOr_I_X DD 00H
	DD	00H
	DD	01H
	DD	01H
	DD	imagerel $handlerMap$0$PMCCS_BitwiseOr_I_X
xdata	ENDS
;	COMDAT xdata
xdata	SEGMENT
$stateUnwindMap$PMCCS_BitwiseOr_I_X DD 0ffffffffH
	DD	00H
	DD	0ffffffffH
	DD	00H
xdata	ENDS
;	COMDAT CONST
CONST	SEGMENT
$cppxdata$PMCCS_BitwiseOr_I_X DD 019930522H
	DD	02H
	DD	imagerel $stateUnwindMap$PMCCS_BitwiseOr_I_X
	DD	01H
	DD	imagerel $tryMap$PMCCS_BitwiseOr_I_X
	DD	06H
	DD	imagerel $ip2state$PMCCS_BitwiseOr_I_X
	DD	020H
	DD	00H
	DD	00H
CONST	ENDS
;	COMDAT xdata
xdata	SEGMENT
$unwind$PMCCS_BitwiseOr_I_X DD 020f19H
	DD	030025206H
	DD	imagerel __CxxFrameHandler3
	DD	imagerel $cppxdata$PMCCS_BitwiseOr_I_X
xdata	ENDS
;	COMDAT xdata
xdata	SEGMENT
$unwind$PMCCS_BitwiseAnd_X_X$catch$0 DD 020a19H
	DD	05006320aH
	DD	imagerel __CxxFrameHandler3
	DD	imagerel $cppxdata$PMCCS_BitwiseAnd_X_X
xdata	ENDS
;	COMDAT xdata
xdata	SEGMENT
$ip2state$PMCCS_BitwiseAnd_X_X DD imagerel PMCCS_BitwiseAnd_X_X
	DD	0ffffffffH
	DD	imagerel PMCCS_BitwiseAnd_X_X+33
	DD	00H
	DD	imagerel PMCCS_BitwiseAnd_X_X+45
	DD	0ffffffffH
	DD	imagerel PMCCS_BitwiseAnd_X_X+49
	DD	00H
	DD	imagerel PMCCS_BitwiseAnd_X_X$catch$0+13
	DD	01H
	DD	imagerel PMCCS_BitwiseAnd_X_X$catch$0+23
	DD	00H
xdata	ENDS
;	COMDAT xdata
xdata	SEGMENT
$handlerMap$0$PMCCS_BitwiseAnd_X_X DD 09H
	DD	imagerel ??_R0?AVException@Internal@Core@Math@Palmtree@@@8
	DD	028H
	DD	imagerel PMCCS_BitwiseAnd_X_X$catch$0
	DD	038H
xdata	ENDS
;	COMDAT xdata
xdata	SEGMENT
$tryMap$PMCCS_BitwiseAnd_X_X DD 00H
	DD	00H
	DD	01H
	DD	01H
	DD	imagerel $handlerMap$0$PMCCS_BitwiseAnd_X_X
xdata	ENDS
;	COMDAT xdata
xdata	SEGMENT
$stateUnwindMap$PMCCS_BitwiseAnd_X_X DD 0ffffffffH
	DD	00H
	DD	0ffffffffH
	DD	00H
xdata	ENDS
;	COMDAT CONST
CONST	SEGMENT
$cppxdata$PMCCS_BitwiseAnd_X_X DD 019930522H
	DD	02H
	DD	imagerel $stateUnwindMap$PMCCS_BitwiseAnd_X_X
	DD	01H
	DD	imagerel $tryMap$PMCCS_BitwiseAnd_X_X
	DD	06H
	DD	imagerel $ip2state$PMCCS_BitwiseAnd_X_X
	DD	020H
	DD	00H
	DD	00H
CONST	ENDS
;	COMDAT xdata
xdata	SEGMENT
$unwind$PMCCS_BitwiseAnd_X_X DD 020f19H
	DD	030025206H
	DD	imagerel __CxxFrameHandler3
	DD	imagerel $cppxdata$PMCCS_BitwiseAnd_X_X
xdata	ENDS
;	COMDAT xdata
xdata	SEGMENT
$unwind$PMCCS_BitwiseAnd_X_L$catch$0 DD 020a19H
	DD	05006320aH
	DD	imagerel __CxxFrameHandler3
	DD	imagerel $cppxdata$PMCCS_BitwiseAnd_X_L
xdata	ENDS
;	COMDAT xdata
xdata	SEGMENT
$ip2state$PMCCS_BitwiseAnd_X_L DD imagerel PMCCS_BitwiseAnd_X_L
	DD	0ffffffffH
	DD	imagerel PMCCS_BitwiseAnd_X_L+33
	DD	00H
	DD	imagerel PMCCS_BitwiseAnd_X_L+45
	DD	0ffffffffH
	DD	imagerel PMCCS_BitwiseAnd_X_L+49
	DD	00H
	DD	imagerel PMCCS_BitwiseAnd_X_L$catch$0+13
	DD	01H
	DD	imagerel PMCCS_BitwiseAnd_X_L$catch$0+23
	DD	00H
xdata	ENDS
;	COMDAT xdata
xdata	SEGMENT
$handlerMap$0$PMCCS_BitwiseAnd_X_L DD 09H
	DD	imagerel ??_R0?AVException@Internal@Core@Math@Palmtree@@@8
	DD	028H
	DD	imagerel PMCCS_BitwiseAnd_X_L$catch$0
	DD	038H
xdata	ENDS
;	COMDAT xdata
xdata	SEGMENT
$tryMap$PMCCS_BitwiseAnd_X_L DD 00H
	DD	00H
	DD	01H
	DD	01H
	DD	imagerel $handlerMap$0$PMCCS_BitwiseAnd_X_L
xdata	ENDS
;	COMDAT xdata
xdata	SEGMENT
$stateUnwindMap$PMCCS_BitwiseAnd_X_L DD 0ffffffffH
	DD	00H
	DD	0ffffffffH
	DD	00H
xdata	ENDS
;	COMDAT CONST
CONST	SEGMENT
$cppxdata$PMCCS_BitwiseAnd_X_L DD 019930522H
	DD	02H
	DD	imagerel $stateUnwindMap$PMCCS_BitwiseAnd_X_L
	DD	01H
	DD	imagerel $tryMap$PMCCS_BitwiseAnd_X_L
	DD	06H
	DD	imagerel $ip2state$PMCCS_BitwiseAnd_X_L
	DD	020H
	DD	00H
	DD	00H
CONST	ENDS
;	COMDAT xdata
xdata	SEGMENT
$unwind$PMCCS_BitwiseAnd_X_L DD 020f19H
	DD	030025206H
	DD	imagerel __CxxFrameHandler3
	DD	imagerel $cppxdata$PMCCS_BitwiseAnd_X_L
xdata	ENDS
;	COMDAT xdata
xdata	SEGMENT
$unwind$PMCCS_BitwiseAnd_X_I$catch$0 DD 020a19H
	DD	05006320aH
	DD	imagerel __CxxFrameHandler3
	DD	imagerel $cppxdata$PMCCS_BitwiseAnd_X_I
xdata	ENDS
;	COMDAT xdata
xdata	SEGMENT
$ip2state$PMCCS_BitwiseAnd_X_I DD imagerel PMCCS_BitwiseAnd_X_I
	DD	0ffffffffH
	DD	imagerel PMCCS_BitwiseAnd_X_I+33
	DD	00H
	DD	imagerel PMCCS_BitwiseAnd_X_I+44
	DD	0ffffffffH
	DD	imagerel PMCCS_BitwiseAnd_X_I+48
	DD	00H
	DD	imagerel PMCCS_BitwiseAnd_X_I$catch$0+13
	DD	01H
	DD	imagerel PMCCS_BitwiseAnd_X_I$catch$0+23
	DD	00H
xdata	ENDS
;	COMDAT xdata
xdata	SEGMENT
$handlerMap$0$PMCCS_BitwiseAnd_X_I DD 09H
	DD	imagerel ??_R0?AVException@Internal@Core@Math@Palmtree@@@8
	DD	028H
	DD	imagerel PMCCS_BitwiseAnd_X_I$catch$0
	DD	038H
xdata	ENDS
;	COMDAT xdata
xdata	SEGMENT
$tryMap$PMCCS_BitwiseAnd_X_I DD 00H
	DD	00H
	DD	01H
	DD	01H
	DD	imagerel $handlerMap$0$PMCCS_BitwiseAnd_X_I
xdata	ENDS
;	COMDAT xdata
xdata	SEGMENT
$stateUnwindMap$PMCCS_BitwiseAnd_X_I DD 0ffffffffH
	DD	00H
	DD	0ffffffffH
	DD	00H
xdata	ENDS
;	COMDAT CONST
CONST	SEGMENT
$cppxdata$PMCCS_BitwiseAnd_X_I DD 019930522H
	DD	02H
	DD	imagerel $stateUnwindMap$PMCCS_BitwiseAnd_X_I
	DD	01H
	DD	imagerel $tryMap$PMCCS_BitwiseAnd_X_I
	DD	06H
	DD	imagerel $ip2state$PMCCS_BitwiseAnd_X_I
	DD	020H
	DD	00H
	DD	00H
CONST	ENDS
;	COMDAT xdata
xdata	SEGMENT
$unwind$PMCCS_BitwiseAnd_X_I DD 020f19H
	DD	030025206H
	DD	imagerel __CxxFrameHandler3
	DD	imagerel $cppxdata$PMCCS_BitwiseAnd_X_I
xdata	ENDS
;	COMDAT xdata
xdata	SEGMENT
$unwind$PMCCS_BitwiseAnd_L_X$catch$0 DD 020a19H
	DD	05006320aH
	DD	imagerel __CxxFrameHandler3
	DD	imagerel $cppxdata$PMCCS_BitwiseAnd_L_X
xdata	ENDS
;	COMDAT xdata
xdata	SEGMENT
$ip2state$PMCCS_BitwiseAnd_L_X DD imagerel PMCCS_BitwiseAnd_L_X
	DD	0ffffffffH
	DD	imagerel PMCCS_BitwiseAnd_L_X+33
	DD	00H
	DD	imagerel PMCCS_BitwiseAnd_L_X+45
	DD	0ffffffffH
	DD	imagerel PMCCS_BitwiseAnd_L_X+49
	DD	00H
	DD	imagerel PMCCS_BitwiseAnd_L_X$catch$0+13
	DD	01H
	DD	imagerel PMCCS_BitwiseAnd_L_X$catch$0+23
	DD	00H
xdata	ENDS
;	COMDAT xdata
xdata	SEGMENT
$handlerMap$0$PMCCS_BitwiseAnd_L_X DD 09H
	DD	imagerel ??_R0?AVException@Internal@Core@Math@Palmtree@@@8
	DD	028H
	DD	imagerel PMCCS_BitwiseAnd_L_X$catch$0
	DD	038H
xdata	ENDS
;	COMDAT xdata
xdata	SEGMENT
$tryMap$PMCCS_BitwiseAnd_L_X DD 00H
	DD	00H
	DD	01H
	DD	01H
	DD	imagerel $handlerMap$0$PMCCS_BitwiseAnd_L_X
xdata	ENDS
;	COMDAT xdata
xdata	SEGMENT
$stateUnwindMap$PMCCS_BitwiseAnd_L_X DD 0ffffffffH
	DD	00H
	DD	0ffffffffH
	DD	00H
xdata	ENDS
;	COMDAT CONST
CONST	SEGMENT
$cppxdata$PMCCS_BitwiseAnd_L_X DD 019930522H
	DD	02H
	DD	imagerel $stateUnwindMap$PMCCS_BitwiseAnd_L_X
	DD	01H
	DD	imagerel $tryMap$PMCCS_BitwiseAnd_L_X
	DD	06H
	DD	imagerel $ip2state$PMCCS_BitwiseAnd_L_X
	DD	020H
	DD	00H
	DD	00H
CONST	ENDS
;	COMDAT xdata
xdata	SEGMENT
$unwind$PMCCS_BitwiseAnd_L_X DD 020f19H
	DD	030025206H
	DD	imagerel __CxxFrameHandler3
	DD	imagerel $cppxdata$PMCCS_BitwiseAnd_L_X
xdata	ENDS
;	COMDAT xdata
xdata	SEGMENT
$unwind$PMCCS_BitwiseAnd_I_X$catch$0 DD 020a19H
	DD	05006320aH
	DD	imagerel __CxxFrameHandler3
	DD	imagerel $cppxdata$PMCCS_BitwiseAnd_I_X
xdata	ENDS
;	COMDAT xdata
xdata	SEGMENT
$ip2state$PMCCS_BitwiseAnd_I_X DD imagerel PMCCS_BitwiseAnd_I_X
	DD	0ffffffffH
	DD	imagerel PMCCS_BitwiseAnd_I_X+33
	DD	00H
	DD	imagerel PMCCS_BitwiseAnd_I_X+44
	DD	0ffffffffH
	DD	imagerel PMCCS_BitwiseAnd_I_X+48
	DD	00H
	DD	imagerel PMCCS_BitwiseAnd_I_X$catch$0+13
	DD	01H
	DD	imagerel PMCCS_BitwiseAnd_I_X$catch$0+23
	DD	00H
xdata	ENDS
;	COMDAT xdata
xdata	SEGMENT
$handlerMap$0$PMCCS_BitwiseAnd_I_X DD 09H
	DD	imagerel ??_R0?AVException@Internal@Core@Math@Palmtree@@@8
	DD	028H
	DD	imagerel PMCCS_BitwiseAnd_I_X$catch$0
	DD	038H
xdata	ENDS
;	COMDAT xdata
xdata	SEGMENT
$tryMap$PMCCS_BitwiseAnd_I_X DD 00H
	DD	00H
	DD	01H
	DD	01H
	DD	imagerel $handlerMap$0$PMCCS_BitwiseAnd_I_X
xdata	ENDS
;	COMDAT xdata
xdata	SEGMENT
$stateUnwindMap$PMCCS_BitwiseAnd_I_X DD 0ffffffffH
	DD	00H
	DD	0ffffffffH
	DD	00H
xdata	ENDS
;	COMDAT CONST
CONST	SEGMENT
$cppxdata$PMCCS_BitwiseAnd_I_X DD 019930522H
	DD	02H
	DD	imagerel $stateUnwindMap$PMCCS_BitwiseAnd_I_X
	DD	01H
	DD	imagerel $tryMap$PMCCS_BitwiseAnd_I_X
	DD	06H
	DD	imagerel $ip2state$PMCCS_BitwiseAnd_I_X
	DD	020H
	DD	00H
	DD	00H
CONST	ENDS
;	COMDAT xdata
xdata	SEGMENT
$unwind$PMCCS_BitwiseAnd_I_X DD 020f19H
	DD	030025206H
	DD	imagerel __CxxFrameHandler3
	DD	imagerel $cppxdata$PMCCS_BitwiseAnd_I_X
xdata	ENDS
;	COMDAT xdata
xdata	SEGMENT
$unwind$PMCCS_LeftShift_X_I$catch$0 DD 020a19H
	DD	05006320aH
	DD	imagerel __CxxFrameHandler3
	DD	imagerel $cppxdata$PMCCS_LeftShift_X_I
xdata	ENDS
;	COMDAT xdata
xdata	SEGMENT
$ip2state$PMCCS_LeftShift_X_I DD imagerel PMCCS_LeftShift_X_I
	DD	0ffffffffH
	DD	imagerel PMCCS_LeftShift_X_I+33
	DD	00H
	DD	imagerel PMCCS_LeftShift_X_I+45
	DD	0ffffffffH
	DD	imagerel PMCCS_LeftShift_X_I+49
	DD	00H
	DD	imagerel PMCCS_LeftShift_X_I$catch$0+13
	DD	01H
	DD	imagerel PMCCS_LeftShift_X_I$catch$0+23
	DD	00H
xdata	ENDS
;	COMDAT xdata
xdata	SEGMENT
$handlerMap$0$PMCCS_LeftShift_X_I DD 09H
	DD	imagerel ??_R0?AVException@Internal@Core@Math@Palmtree@@@8
	DD	028H
	DD	imagerel PMCCS_LeftShift_X_I$catch$0
	DD	038H
xdata	ENDS
;	COMDAT xdata
xdata	SEGMENT
$tryMap$PMCCS_LeftShift_X_I DD 00H
	DD	00H
	DD	01H
	DD	01H
	DD	imagerel $handlerMap$0$PMCCS_LeftShift_X_I
xdata	ENDS
;	COMDAT xdata
xdata	SEGMENT
$stateUnwindMap$PMCCS_LeftShift_X_I DD 0ffffffffH
	DD	00H
	DD	0ffffffffH
	DD	00H
xdata	ENDS
;	COMDAT CONST
CONST	SEGMENT
$cppxdata$PMCCS_LeftShift_X_I DD 019930522H
	DD	02H
	DD	imagerel $stateUnwindMap$PMCCS_LeftShift_X_I
	DD	01H
	DD	imagerel $tryMap$PMCCS_LeftShift_X_I
	DD	06H
	DD	imagerel $ip2state$PMCCS_LeftShift_X_I
	DD	020H
	DD	00H
	DD	00H
CONST	ENDS
;	COMDAT xdata
xdata	SEGMENT
$unwind$PMCCS_LeftShift_X_I DD 020f19H
	DD	030025206H
	DD	imagerel __CxxFrameHandler3
	DD	imagerel $cppxdata$PMCCS_LeftShift_X_I
xdata	ENDS
;	COMDAT xdata
xdata	SEGMENT
$unwind$PMCCS_RightShift_X_I$catch$0 DD 020a19H
	DD	05006320aH
	DD	imagerel __CxxFrameHandler3
	DD	imagerel $cppxdata$PMCCS_RightShift_X_I
xdata	ENDS
;	COMDAT xdata
xdata	SEGMENT
$ip2state$PMCCS_RightShift_X_I DD imagerel PMCCS_RightShift_X_I
	DD	0ffffffffH
	DD	imagerel PMCCS_RightShift_X_I+33
	DD	00H
	DD	imagerel PMCCS_RightShift_X_I+45
	DD	0ffffffffH
	DD	imagerel PMCCS_RightShift_X_I+49
	DD	00H
	DD	imagerel PMCCS_RightShift_X_I$catch$0+13
	DD	01H
	DD	imagerel PMCCS_RightShift_X_I$catch$0+23
	DD	00H
xdata	ENDS
;	COMDAT xdata
xdata	SEGMENT
$handlerMap$0$PMCCS_RightShift_X_I DD 09H
	DD	imagerel ??_R0?AVException@Internal@Core@Math@Palmtree@@@8
	DD	028H
	DD	imagerel PMCCS_RightShift_X_I$catch$0
	DD	038H
xdata	ENDS
;	COMDAT xdata
xdata	SEGMENT
$tryMap$PMCCS_RightShift_X_I DD 00H
	DD	00H
	DD	01H
	DD	01H
	DD	imagerel $handlerMap$0$PMCCS_RightShift_X_I
xdata	ENDS
;	COMDAT xdata
xdata	SEGMENT
$stateUnwindMap$PMCCS_RightShift_X_I DD 0ffffffffH
	DD	00H
	DD	0ffffffffH
	DD	00H
xdata	ENDS
;	COMDAT CONST
CONST	SEGMENT
$cppxdata$PMCCS_RightShift_X_I DD 019930522H
	DD	02H
	DD	imagerel $stateUnwindMap$PMCCS_RightShift_X_I
	DD	01H
	DD	imagerel $tryMap$PMCCS_RightShift_X_I
	DD	06H
	DD	imagerel $ip2state$PMCCS_RightShift_X_I
	DD	020H
	DD	00H
	DD	00H
CONST	ENDS
;	COMDAT xdata
xdata	SEGMENT
$unwind$PMCCS_RightShift_X_I DD 020f19H
	DD	030025206H
	DD	imagerel __CxxFrameHandler3
	DD	imagerel $cppxdata$PMCCS_RightShift_X_I
xdata	ENDS
;	COMDAT xdata
xdata	SEGMENT
$unwind$PMCCS_Remainder_X_X$catch$0 DD 020a19H
	DD	05006320aH
	DD	imagerel __CxxFrameHandler3
	DD	imagerel $cppxdata$PMCCS_Remainder_X_X
xdata	ENDS
;	COMDAT xdata
xdata	SEGMENT
$ip2state$PMCCS_Remainder_X_X DD imagerel PMCCS_Remainder_X_X
	DD	0ffffffffH
	DD	imagerel PMCCS_Remainder_X_X+33
	DD	00H
	DD	imagerel PMCCS_Remainder_X_X+48
	DD	0ffffffffH
	DD	imagerel PMCCS_Remainder_X_X+52
	DD	00H
	DD	imagerel PMCCS_Remainder_X_X$catch$0+13
	DD	01H
	DD	imagerel PMCCS_Remainder_X_X$catch$0+23
	DD	00H
xdata	ENDS
;	COMDAT xdata
xdata	SEGMENT
$handlerMap$0$PMCCS_Remainder_X_X DD 09H
	DD	imagerel ??_R0?AVException@Internal@Core@Math@Palmtree@@@8
	DD	028H
	DD	imagerel PMCCS_Remainder_X_X$catch$0
	DD	038H
xdata	ENDS
;	COMDAT xdata
xdata	SEGMENT
$tryMap$PMCCS_Remainder_X_X DD 00H
	DD	00H
	DD	01H
	DD	01H
	DD	imagerel $handlerMap$0$PMCCS_Remainder_X_X
xdata	ENDS
;	COMDAT xdata
xdata	SEGMENT
$stateUnwindMap$PMCCS_Remainder_X_X DD 0ffffffffH
	DD	00H
	DD	0ffffffffH
	DD	00H
xdata	ENDS
;	COMDAT CONST
CONST	SEGMENT
$cppxdata$PMCCS_Remainder_X_X DD 019930522H
	DD	02H
	DD	imagerel $stateUnwindMap$PMCCS_Remainder_X_X
	DD	01H
	DD	imagerel $tryMap$PMCCS_Remainder_X_X
	DD	06H
	DD	imagerel $ip2state$PMCCS_Remainder_X_X
	DD	020H
	DD	00H
	DD	00H
CONST	ENDS
;	COMDAT xdata
xdata	SEGMENT
$unwind$PMCCS_Remainder_X_X DD 020f19H
	DD	030025206H
	DD	imagerel __CxxFrameHandler3
	DD	imagerel $cppxdata$PMCCS_Remainder_X_X
xdata	ENDS
;	COMDAT xdata
xdata	SEGMENT
$unwind$PMCCS_Remainder_X_L$catch$0 DD 020a19H
	DD	05006320aH
	DD	imagerel __CxxFrameHandler3
	DD	imagerel $cppxdata$PMCCS_Remainder_X_L
xdata	ENDS
;	COMDAT xdata
xdata	SEGMENT
$ip2state$PMCCS_Remainder_X_L DD imagerel PMCCS_Remainder_X_L
	DD	0ffffffffH
	DD	imagerel PMCCS_Remainder_X_L+33
	DD	00H
	DD	imagerel PMCCS_Remainder_X_L+48
	DD	0ffffffffH
	DD	imagerel PMCCS_Remainder_X_L+52
	DD	00H
	DD	imagerel PMCCS_Remainder_X_L$catch$0+13
	DD	01H
	DD	imagerel PMCCS_Remainder_X_L$catch$0+23
	DD	00H
xdata	ENDS
;	COMDAT xdata
xdata	SEGMENT
$handlerMap$0$PMCCS_Remainder_X_L DD 09H
	DD	imagerel ??_R0?AVException@Internal@Core@Math@Palmtree@@@8
	DD	028H
	DD	imagerel PMCCS_Remainder_X_L$catch$0
	DD	038H
xdata	ENDS
;	COMDAT xdata
xdata	SEGMENT
$tryMap$PMCCS_Remainder_X_L DD 00H
	DD	00H
	DD	01H
	DD	01H
	DD	imagerel $handlerMap$0$PMCCS_Remainder_X_L
xdata	ENDS
;	COMDAT xdata
xdata	SEGMENT
$stateUnwindMap$PMCCS_Remainder_X_L DD 0ffffffffH
	DD	00H
	DD	0ffffffffH
	DD	00H
xdata	ENDS
;	COMDAT CONST
CONST	SEGMENT
$cppxdata$PMCCS_Remainder_X_L DD 019930522H
	DD	02H
	DD	imagerel $stateUnwindMap$PMCCS_Remainder_X_L
	DD	01H
	DD	imagerel $tryMap$PMCCS_Remainder_X_L
	DD	06H
	DD	imagerel $ip2state$PMCCS_Remainder_X_L
	DD	020H
	DD	00H
	DD	00H
CONST	ENDS
;	COMDAT xdata
xdata	SEGMENT
$unwind$PMCCS_Remainder_X_L DD 020f19H
	DD	030025206H
	DD	imagerel __CxxFrameHandler3
	DD	imagerel $cppxdata$PMCCS_Remainder_X_L
xdata	ENDS
;	COMDAT xdata
xdata	SEGMENT
$unwind$PMCCS_Remainder_X_I$catch$0 DD 020a19H
	DD	05006320aH
	DD	imagerel __CxxFrameHandler3
	DD	imagerel $cppxdata$PMCCS_Remainder_X_I
xdata	ENDS
;	COMDAT xdata
xdata	SEGMENT
$ip2state$PMCCS_Remainder_X_I DD imagerel PMCCS_Remainder_X_I
	DD	0ffffffffH
	DD	imagerel PMCCS_Remainder_X_I+33
	DD	00H
	DD	imagerel PMCCS_Remainder_X_I+47
	DD	0ffffffffH
	DD	imagerel PMCCS_Remainder_X_I+51
	DD	00H
	DD	imagerel PMCCS_Remainder_X_I$catch$0+13
	DD	01H
	DD	imagerel PMCCS_Remainder_X_I$catch$0+23
	DD	00H
xdata	ENDS
;	COMDAT xdata
xdata	SEGMENT
$handlerMap$0$PMCCS_Remainder_X_I DD 09H
	DD	imagerel ??_R0?AVException@Internal@Core@Math@Palmtree@@@8
	DD	028H
	DD	imagerel PMCCS_Remainder_X_I$catch$0
	DD	038H
xdata	ENDS
;	COMDAT xdata
xdata	SEGMENT
$tryMap$PMCCS_Remainder_X_I DD 00H
	DD	00H
	DD	01H
	DD	01H
	DD	imagerel $handlerMap$0$PMCCS_Remainder_X_I
xdata	ENDS
;	COMDAT xdata
xdata	SEGMENT
$stateUnwindMap$PMCCS_Remainder_X_I DD 0ffffffffH
	DD	00H
	DD	0ffffffffH
	DD	00H
xdata	ENDS
;	COMDAT CONST
CONST	SEGMENT
$cppxdata$PMCCS_Remainder_X_I DD 019930522H
	DD	02H
	DD	imagerel $stateUnwindMap$PMCCS_Remainder_X_I
	DD	01H
	DD	imagerel $tryMap$PMCCS_Remainder_X_I
	DD	06H
	DD	imagerel $ip2state$PMCCS_Remainder_X_I
	DD	020H
	DD	00H
	DD	00H
CONST	ENDS
;	COMDAT xdata
xdata	SEGMENT
$unwind$PMCCS_Remainder_X_I DD 020f19H
	DD	030025206H
	DD	imagerel __CxxFrameHandler3
	DD	imagerel $cppxdata$PMCCS_Remainder_X_I
xdata	ENDS
;	COMDAT xdata
xdata	SEGMENT
$unwind$PMCCS_Remainder_L_X$catch$0 DD 020a19H
	DD	05006320aH
	DD	imagerel __CxxFrameHandler3
	DD	imagerel $cppxdata$PMCCS_Remainder_L_X
xdata	ENDS
;	COMDAT xdata
xdata	SEGMENT
$ip2state$PMCCS_Remainder_L_X DD imagerel PMCCS_Remainder_L_X
	DD	0ffffffffH
	DD	imagerel PMCCS_Remainder_L_X+33
	DD	00H
	DD	imagerel PMCCS_Remainder_L_X+48
	DD	0ffffffffH
	DD	imagerel PMCCS_Remainder_L_X+52
	DD	00H
	DD	imagerel PMCCS_Remainder_L_X$catch$0+13
	DD	01H
	DD	imagerel PMCCS_Remainder_L_X$catch$0+23
	DD	00H
xdata	ENDS
;	COMDAT xdata
xdata	SEGMENT
$handlerMap$0$PMCCS_Remainder_L_X DD 09H
	DD	imagerel ??_R0?AVException@Internal@Core@Math@Palmtree@@@8
	DD	028H
	DD	imagerel PMCCS_Remainder_L_X$catch$0
	DD	038H
xdata	ENDS
;	COMDAT xdata
xdata	SEGMENT
$tryMap$PMCCS_Remainder_L_X DD 00H
	DD	00H
	DD	01H
	DD	01H
	DD	imagerel $handlerMap$0$PMCCS_Remainder_L_X
xdata	ENDS
;	COMDAT xdata
xdata	SEGMENT
$stateUnwindMap$PMCCS_Remainder_L_X DD 0ffffffffH
	DD	00H
	DD	0ffffffffH
	DD	00H
xdata	ENDS
;	COMDAT CONST
CONST	SEGMENT
$cppxdata$PMCCS_Remainder_L_X DD 019930522H
	DD	02H
	DD	imagerel $stateUnwindMap$PMCCS_Remainder_L_X
	DD	01H
	DD	imagerel $tryMap$PMCCS_Remainder_L_X
	DD	06H
	DD	imagerel $ip2state$PMCCS_Remainder_L_X
	DD	020H
	DD	00H
	DD	00H
CONST	ENDS
;	COMDAT xdata
xdata	SEGMENT
$unwind$PMCCS_Remainder_L_X DD 020f19H
	DD	030025206H
	DD	imagerel __CxxFrameHandler3
	DD	imagerel $cppxdata$PMCCS_Remainder_L_X
xdata	ENDS
;	COMDAT xdata
xdata	SEGMENT
$unwind$PMCCS_Remainder_I_X$catch$0 DD 020a19H
	DD	05006320aH
	DD	imagerel __CxxFrameHandler3
	DD	imagerel $cppxdata$PMCCS_Remainder_I_X
xdata	ENDS
;	COMDAT xdata
xdata	SEGMENT
$ip2state$PMCCS_Remainder_I_X DD imagerel PMCCS_Remainder_I_X
	DD	0ffffffffH
	DD	imagerel PMCCS_Remainder_I_X+33
	DD	00H
	DD	imagerel PMCCS_Remainder_I_X+47
	DD	0ffffffffH
	DD	imagerel PMCCS_Remainder_I_X+51
	DD	00H
	DD	imagerel PMCCS_Remainder_I_X$catch$0+13
	DD	01H
	DD	imagerel PMCCS_Remainder_I_X$catch$0+23
	DD	00H
xdata	ENDS
;	COMDAT xdata
xdata	SEGMENT
$handlerMap$0$PMCCS_Remainder_I_X DD 09H
	DD	imagerel ??_R0?AVException@Internal@Core@Math@Palmtree@@@8
	DD	028H
	DD	imagerel PMCCS_Remainder_I_X$catch$0
	DD	038H
xdata	ENDS
;	COMDAT xdata
xdata	SEGMENT
$tryMap$PMCCS_Remainder_I_X DD 00H
	DD	00H
	DD	01H
	DD	01H
	DD	imagerel $handlerMap$0$PMCCS_Remainder_I_X
xdata	ENDS
;	COMDAT xdata
xdata	SEGMENT
$stateUnwindMap$PMCCS_Remainder_I_X DD 0ffffffffH
	DD	00H
	DD	0ffffffffH
	DD	00H
xdata	ENDS
;	COMDAT CONST
CONST	SEGMENT
$cppxdata$PMCCS_Remainder_I_X DD 019930522H
	DD	02H
	DD	imagerel $stateUnwindMap$PMCCS_Remainder_I_X
	DD	01H
	DD	imagerel $tryMap$PMCCS_Remainder_I_X
	DD	06H
	DD	imagerel $ip2state$PMCCS_Remainder_I_X
	DD	020H
	DD	00H
	DD	00H
CONST	ENDS
;	COMDAT xdata
xdata	SEGMENT
$unwind$PMCCS_Remainder_I_X DD 020f19H
	DD	030025206H
	DD	imagerel __CxxFrameHandler3
	DD	imagerel $cppxdata$PMCCS_Remainder_I_X
xdata	ENDS
;	COMDAT xdata
xdata	SEGMENT
$unwind$PMCCS_DivRem_X_X$catch$0 DD 020a19H
	DD	05006320aH
	DD	imagerel __CxxFrameHandler3
	DD	imagerel $cppxdata$PMCCS_DivRem_X_X
xdata	ENDS
;	COMDAT xdata
xdata	SEGMENT
$ip2state$PMCCS_DivRem_X_X DD imagerel PMCCS_DivRem_X_X
	DD	0ffffffffH
	DD	imagerel PMCCS_DivRem_X_X+33
	DD	00H
	DD	imagerel PMCCS_DivRem_X_X+45
	DD	0ffffffffH
	DD	imagerel PMCCS_DivRem_X_X+49
	DD	00H
	DD	imagerel PMCCS_DivRem_X_X$catch$0+13
	DD	01H
	DD	imagerel PMCCS_DivRem_X_X$catch$0+23
	DD	00H
xdata	ENDS
;	COMDAT xdata
xdata	SEGMENT
$handlerMap$0$PMCCS_DivRem_X_X DD 09H
	DD	imagerel ??_R0?AVException@Internal@Core@Math@Palmtree@@@8
	DD	028H
	DD	imagerel PMCCS_DivRem_X_X$catch$0
	DD	038H
xdata	ENDS
;	COMDAT xdata
xdata	SEGMENT
$tryMap$PMCCS_DivRem_X_X DD 00H
	DD	00H
	DD	01H
	DD	01H
	DD	imagerel $handlerMap$0$PMCCS_DivRem_X_X
xdata	ENDS
;	COMDAT xdata
xdata	SEGMENT
$stateUnwindMap$PMCCS_DivRem_X_X DD 0ffffffffH
	DD	00H
	DD	0ffffffffH
	DD	00H
xdata	ENDS
;	COMDAT CONST
CONST	SEGMENT
$cppxdata$PMCCS_DivRem_X_X DD 019930522H
	DD	02H
	DD	imagerel $stateUnwindMap$PMCCS_DivRem_X_X
	DD	01H
	DD	imagerel $tryMap$PMCCS_DivRem_X_X
	DD	06H
	DD	imagerel $ip2state$PMCCS_DivRem_X_X
	DD	020H
	DD	00H
	DD	00H
CONST	ENDS
;	COMDAT xdata
xdata	SEGMENT
$unwind$PMCCS_DivRem_X_X DD 020f19H
	DD	030025206H
	DD	imagerel __CxxFrameHandler3
	DD	imagerel $cppxdata$PMCCS_DivRem_X_X
xdata	ENDS
;	COMDAT xdata
xdata	SEGMENT
$unwind$PMCCS_DivRem_X_L$catch$0 DD 020a19H
	DD	05006320aH
	DD	imagerel __CxxFrameHandler3
	DD	imagerel $cppxdata$PMCCS_DivRem_X_L
xdata	ENDS
;	COMDAT xdata
xdata	SEGMENT
$ip2state$PMCCS_DivRem_X_L DD imagerel PMCCS_DivRem_X_L
	DD	0ffffffffH
	DD	imagerel PMCCS_DivRem_X_L+33
	DD	00H
	DD	imagerel PMCCS_DivRem_X_L+45
	DD	0ffffffffH
	DD	imagerel PMCCS_DivRem_X_L+49
	DD	00H
	DD	imagerel PMCCS_DivRem_X_L$catch$0+13
	DD	01H
	DD	imagerel PMCCS_DivRem_X_L$catch$0+23
	DD	00H
xdata	ENDS
;	COMDAT xdata
xdata	SEGMENT
$handlerMap$0$PMCCS_DivRem_X_L DD 09H
	DD	imagerel ??_R0?AVException@Internal@Core@Math@Palmtree@@@8
	DD	028H
	DD	imagerel PMCCS_DivRem_X_L$catch$0
	DD	038H
xdata	ENDS
;	COMDAT xdata
xdata	SEGMENT
$tryMap$PMCCS_DivRem_X_L DD 00H
	DD	00H
	DD	01H
	DD	01H
	DD	imagerel $handlerMap$0$PMCCS_DivRem_X_L
xdata	ENDS
;	COMDAT xdata
xdata	SEGMENT
$stateUnwindMap$PMCCS_DivRem_X_L DD 0ffffffffH
	DD	00H
	DD	0ffffffffH
	DD	00H
xdata	ENDS
;	COMDAT CONST
CONST	SEGMENT
$cppxdata$PMCCS_DivRem_X_L DD 019930522H
	DD	02H
	DD	imagerel $stateUnwindMap$PMCCS_DivRem_X_L
	DD	01H
	DD	imagerel $tryMap$PMCCS_DivRem_X_L
	DD	06H
	DD	imagerel $ip2state$PMCCS_DivRem_X_L
	DD	020H
	DD	00H
	DD	00H
CONST	ENDS
;	COMDAT xdata
xdata	SEGMENT
$unwind$PMCCS_DivRem_X_L DD 020f19H
	DD	030025206H
	DD	imagerel __CxxFrameHandler3
	DD	imagerel $cppxdata$PMCCS_DivRem_X_L
xdata	ENDS
;	COMDAT xdata
xdata	SEGMENT
$unwind$PMCCS_DivRem_X_I$catch$0 DD 020a19H
	DD	05006320aH
	DD	imagerel __CxxFrameHandler3
	DD	imagerel $cppxdata$PMCCS_DivRem_X_I
xdata	ENDS
;	COMDAT xdata
xdata	SEGMENT
$ip2state$PMCCS_DivRem_X_I DD imagerel PMCCS_DivRem_X_I
	DD	0ffffffffH
	DD	imagerel PMCCS_DivRem_X_I+33
	DD	00H
	DD	imagerel PMCCS_DivRem_X_I+44
	DD	0ffffffffH
	DD	imagerel PMCCS_DivRem_X_I+48
	DD	00H
	DD	imagerel PMCCS_DivRem_X_I$catch$0+13
	DD	01H
	DD	imagerel PMCCS_DivRem_X_I$catch$0+23
	DD	00H
xdata	ENDS
;	COMDAT xdata
xdata	SEGMENT
$handlerMap$0$PMCCS_DivRem_X_I DD 09H
	DD	imagerel ??_R0?AVException@Internal@Core@Math@Palmtree@@@8
	DD	028H
	DD	imagerel PMCCS_DivRem_X_I$catch$0
	DD	038H
xdata	ENDS
;	COMDAT xdata
xdata	SEGMENT
$tryMap$PMCCS_DivRem_X_I DD 00H
	DD	00H
	DD	01H
	DD	01H
	DD	imagerel $handlerMap$0$PMCCS_DivRem_X_I
xdata	ENDS
;	COMDAT xdata
xdata	SEGMENT
$stateUnwindMap$PMCCS_DivRem_X_I DD 0ffffffffH
	DD	00H
	DD	0ffffffffH
	DD	00H
xdata	ENDS
;	COMDAT CONST
CONST	SEGMENT
$cppxdata$PMCCS_DivRem_X_I DD 019930522H
	DD	02H
	DD	imagerel $stateUnwindMap$PMCCS_DivRem_X_I
	DD	01H
	DD	imagerel $tryMap$PMCCS_DivRem_X_I
	DD	06H
	DD	imagerel $ip2state$PMCCS_DivRem_X_I
	DD	020H
	DD	00H
	DD	00H
CONST	ENDS
;	COMDAT xdata
xdata	SEGMENT
$unwind$PMCCS_DivRem_X_I DD 020f19H
	DD	030025206H
	DD	imagerel __CxxFrameHandler3
	DD	imagerel $cppxdata$PMCCS_DivRem_X_I
xdata	ENDS
;	COMDAT xdata
xdata	SEGMENT
$unwind$PMCCS_DivRem_L_X$catch$0 DD 020a19H
	DD	05006320aH
	DD	imagerel __CxxFrameHandler3
	DD	imagerel $cppxdata$PMCCS_DivRem_L_X
xdata	ENDS
;	COMDAT xdata
xdata	SEGMENT
$ip2state$PMCCS_DivRem_L_X DD imagerel PMCCS_DivRem_L_X
	DD	0ffffffffH
	DD	imagerel PMCCS_DivRem_L_X+33
	DD	00H
	DD	imagerel PMCCS_DivRem_L_X+45
	DD	0ffffffffH
	DD	imagerel PMCCS_DivRem_L_X+49
	DD	00H
	DD	imagerel PMCCS_DivRem_L_X$catch$0+13
	DD	01H
	DD	imagerel PMCCS_DivRem_L_X$catch$0+23
	DD	00H
xdata	ENDS
;	COMDAT xdata
xdata	SEGMENT
$handlerMap$0$PMCCS_DivRem_L_X DD 09H
	DD	imagerel ??_R0?AVException@Internal@Core@Math@Palmtree@@@8
	DD	028H
	DD	imagerel PMCCS_DivRem_L_X$catch$0
	DD	038H
xdata	ENDS
;	COMDAT xdata
xdata	SEGMENT
$tryMap$PMCCS_DivRem_L_X DD 00H
	DD	00H
	DD	01H
	DD	01H
	DD	imagerel $handlerMap$0$PMCCS_DivRem_L_X
xdata	ENDS
;	COMDAT xdata
xdata	SEGMENT
$stateUnwindMap$PMCCS_DivRem_L_X DD 0ffffffffH
	DD	00H
	DD	0ffffffffH
	DD	00H
xdata	ENDS
;	COMDAT CONST
CONST	SEGMENT
$cppxdata$PMCCS_DivRem_L_X DD 019930522H
	DD	02H
	DD	imagerel $stateUnwindMap$PMCCS_DivRem_L_X
	DD	01H
	DD	imagerel $tryMap$PMCCS_DivRem_L_X
	DD	06H
	DD	imagerel $ip2state$PMCCS_DivRem_L_X
	DD	020H
	DD	00H
	DD	00H
CONST	ENDS
;	COMDAT xdata
xdata	SEGMENT
$unwind$PMCCS_DivRem_L_X DD 020f19H
	DD	030025206H
	DD	imagerel __CxxFrameHandler3
	DD	imagerel $cppxdata$PMCCS_DivRem_L_X
xdata	ENDS
;	COMDAT xdata
xdata	SEGMENT
$unwind$PMCCS_DivRem_I_X$catch$0 DD 020a19H
	DD	05006320aH
	DD	imagerel __CxxFrameHandler3
	DD	imagerel $cppxdata$PMCCS_DivRem_I_X
xdata	ENDS
;	COMDAT xdata
xdata	SEGMENT
$ip2state$PMCCS_DivRem_I_X DD imagerel PMCCS_DivRem_I_X
	DD	0ffffffffH
	DD	imagerel PMCCS_DivRem_I_X+33
	DD	00H
	DD	imagerel PMCCS_DivRem_I_X+44
	DD	0ffffffffH
	DD	imagerel PMCCS_DivRem_I_X+48
	DD	00H
	DD	imagerel PMCCS_DivRem_I_X$catch$0+13
	DD	01H
	DD	imagerel PMCCS_DivRem_I_X$catch$0+23
	DD	00H
xdata	ENDS
;	COMDAT xdata
xdata	SEGMENT
$handlerMap$0$PMCCS_DivRem_I_X DD 09H
	DD	imagerel ??_R0?AVException@Internal@Core@Math@Palmtree@@@8
	DD	028H
	DD	imagerel PMCCS_DivRem_I_X$catch$0
	DD	038H
xdata	ENDS
;	COMDAT xdata
xdata	SEGMENT
$tryMap$PMCCS_DivRem_I_X DD 00H
	DD	00H
	DD	01H
	DD	01H
	DD	imagerel $handlerMap$0$PMCCS_DivRem_I_X
xdata	ENDS
;	COMDAT xdata
xdata	SEGMENT
$stateUnwindMap$PMCCS_DivRem_I_X DD 0ffffffffH
	DD	00H
	DD	0ffffffffH
	DD	00H
xdata	ENDS
;	COMDAT CONST
CONST	SEGMENT
$cppxdata$PMCCS_DivRem_I_X DD 019930522H
	DD	02H
	DD	imagerel $stateUnwindMap$PMCCS_DivRem_I_X
	DD	01H
	DD	imagerel $tryMap$PMCCS_DivRem_I_X
	DD	06H
	DD	imagerel $ip2state$PMCCS_DivRem_I_X
	DD	020H
	DD	00H
	DD	00H
CONST	ENDS
;	COMDAT xdata
xdata	SEGMENT
$unwind$PMCCS_DivRem_I_X DD 020f19H
	DD	030025206H
	DD	imagerel __CxxFrameHandler3
	DD	imagerel $cppxdata$PMCCS_DivRem_I_X
xdata	ENDS
;	COMDAT xdata
xdata	SEGMENT
$unwind$PMCCS_Multiply_X_X$catch$0 DD 020a19H
	DD	05006320aH
	DD	imagerel __CxxFrameHandler3
	DD	imagerel $cppxdata$PMCCS_Multiply_X_X
xdata	ENDS
;	COMDAT xdata
xdata	SEGMENT
$ip2state$PMCCS_Multiply_X_X DD imagerel PMCCS_Multiply_X_X
	DD	0ffffffffH
	DD	imagerel PMCCS_Multiply_X_X+33
	DD	00H
	DD	imagerel PMCCS_Multiply_X_X+45
	DD	0ffffffffH
	DD	imagerel PMCCS_Multiply_X_X+49
	DD	00H
	DD	imagerel PMCCS_Multiply_X_X$catch$0+13
	DD	01H
	DD	imagerel PMCCS_Multiply_X_X$catch$0+23
	DD	00H
xdata	ENDS
;	COMDAT xdata
xdata	SEGMENT
$handlerMap$0$PMCCS_Multiply_X_X DD 09H
	DD	imagerel ??_R0?AVException@Internal@Core@Math@Palmtree@@@8
	DD	028H
	DD	imagerel PMCCS_Multiply_X_X$catch$0
	DD	038H
xdata	ENDS
;	COMDAT xdata
xdata	SEGMENT
$tryMap$PMCCS_Multiply_X_X DD 00H
	DD	00H
	DD	01H
	DD	01H
	DD	imagerel $handlerMap$0$PMCCS_Multiply_X_X
xdata	ENDS
;	COMDAT xdata
xdata	SEGMENT
$stateUnwindMap$PMCCS_Multiply_X_X DD 0ffffffffH
	DD	00H
	DD	0ffffffffH
	DD	00H
xdata	ENDS
;	COMDAT CONST
CONST	SEGMENT
$cppxdata$PMCCS_Multiply_X_X DD 019930522H
	DD	02H
	DD	imagerel $stateUnwindMap$PMCCS_Multiply_X_X
	DD	01H
	DD	imagerel $tryMap$PMCCS_Multiply_X_X
	DD	06H
	DD	imagerel $ip2state$PMCCS_Multiply_X_X
	DD	020H
	DD	00H
	DD	00H
CONST	ENDS
;	COMDAT xdata
xdata	SEGMENT
$unwind$PMCCS_Multiply_X_X DD 020f19H
	DD	030025206H
	DD	imagerel __CxxFrameHandler3
	DD	imagerel $cppxdata$PMCCS_Multiply_X_X
xdata	ENDS
;	COMDAT xdata
xdata	SEGMENT
$unwind$PMCCS_Multiply_X_L$catch$0 DD 020a19H
	DD	05006320aH
	DD	imagerel __CxxFrameHandler3
	DD	imagerel $cppxdata$PMCCS_Multiply_X_L
xdata	ENDS
;	COMDAT xdata
xdata	SEGMENT
$ip2state$PMCCS_Multiply_X_L DD imagerel PMCCS_Multiply_X_L
	DD	0ffffffffH
	DD	imagerel PMCCS_Multiply_X_L+33
	DD	00H
	DD	imagerel PMCCS_Multiply_X_L+45
	DD	0ffffffffH
	DD	imagerel PMCCS_Multiply_X_L+49
	DD	00H
	DD	imagerel PMCCS_Multiply_X_L$catch$0+13
	DD	01H
	DD	imagerel PMCCS_Multiply_X_L$catch$0+23
	DD	00H
xdata	ENDS
;	COMDAT xdata
xdata	SEGMENT
$handlerMap$0$PMCCS_Multiply_X_L DD 09H
	DD	imagerel ??_R0?AVException@Internal@Core@Math@Palmtree@@@8
	DD	028H
	DD	imagerel PMCCS_Multiply_X_L$catch$0
	DD	038H
xdata	ENDS
;	COMDAT xdata
xdata	SEGMENT
$tryMap$PMCCS_Multiply_X_L DD 00H
	DD	00H
	DD	01H
	DD	01H
	DD	imagerel $handlerMap$0$PMCCS_Multiply_X_L
xdata	ENDS
;	COMDAT xdata
xdata	SEGMENT
$stateUnwindMap$PMCCS_Multiply_X_L DD 0ffffffffH
	DD	00H
	DD	0ffffffffH
	DD	00H
xdata	ENDS
;	COMDAT CONST
CONST	SEGMENT
$cppxdata$PMCCS_Multiply_X_L DD 019930522H
	DD	02H
	DD	imagerel $stateUnwindMap$PMCCS_Multiply_X_L
	DD	01H
	DD	imagerel $tryMap$PMCCS_Multiply_X_L
	DD	06H
	DD	imagerel $ip2state$PMCCS_Multiply_X_L
	DD	020H
	DD	00H
	DD	00H
CONST	ENDS
;	COMDAT xdata
xdata	SEGMENT
$unwind$PMCCS_Multiply_X_L DD 020f19H
	DD	030025206H
	DD	imagerel __CxxFrameHandler3
	DD	imagerel $cppxdata$PMCCS_Multiply_X_L
xdata	ENDS
;	COMDAT xdata
xdata	SEGMENT
$unwind$PMCCS_Multiply_X_I$catch$0 DD 020a19H
	DD	05006320aH
	DD	imagerel __CxxFrameHandler3
	DD	imagerel $cppxdata$PMCCS_Multiply_X_I
xdata	ENDS
;	COMDAT xdata
xdata	SEGMENT
$ip2state$PMCCS_Multiply_X_I DD imagerel PMCCS_Multiply_X_I
	DD	0ffffffffH
	DD	imagerel PMCCS_Multiply_X_I+33
	DD	00H
	DD	imagerel PMCCS_Multiply_X_I+45
	DD	0ffffffffH
	DD	imagerel PMCCS_Multiply_X_I+49
	DD	00H
	DD	imagerel PMCCS_Multiply_X_I$catch$0+13
	DD	01H
	DD	imagerel PMCCS_Multiply_X_I$catch$0+23
	DD	00H
xdata	ENDS
;	COMDAT xdata
xdata	SEGMENT
$handlerMap$0$PMCCS_Multiply_X_I DD 09H
	DD	imagerel ??_R0?AVException@Internal@Core@Math@Palmtree@@@8
	DD	028H
	DD	imagerel PMCCS_Multiply_X_I$catch$0
	DD	038H
xdata	ENDS
;	COMDAT xdata
xdata	SEGMENT
$tryMap$PMCCS_Multiply_X_I DD 00H
	DD	00H
	DD	01H
	DD	01H
	DD	imagerel $handlerMap$0$PMCCS_Multiply_X_I
xdata	ENDS
;	COMDAT xdata
xdata	SEGMENT
$stateUnwindMap$PMCCS_Multiply_X_I DD 0ffffffffH
	DD	00H
	DD	0ffffffffH
	DD	00H
xdata	ENDS
;	COMDAT CONST
CONST	SEGMENT
$cppxdata$PMCCS_Multiply_X_I DD 019930522H
	DD	02H
	DD	imagerel $stateUnwindMap$PMCCS_Multiply_X_I
	DD	01H
	DD	imagerel $tryMap$PMCCS_Multiply_X_I
	DD	06H
	DD	imagerel $ip2state$PMCCS_Multiply_X_I
	DD	020H
	DD	00H
	DD	00H
CONST	ENDS
;	COMDAT xdata
xdata	SEGMENT
$unwind$PMCCS_Multiply_X_I DD 020f19H
	DD	030025206H
	DD	imagerel __CxxFrameHandler3
	DD	imagerel $cppxdata$PMCCS_Multiply_X_I
xdata	ENDS
;	COMDAT xdata
xdata	SEGMENT
$unwind$PMCCS_Multiply_L_X$catch$0 DD 020a19H
	DD	05006320aH
	DD	imagerel __CxxFrameHandler3
	DD	imagerel $cppxdata$PMCCS_Multiply_L_X
xdata	ENDS
;	COMDAT xdata
xdata	SEGMENT
$ip2state$PMCCS_Multiply_L_X DD imagerel PMCCS_Multiply_L_X
	DD	0ffffffffH
	DD	imagerel PMCCS_Multiply_L_X+33
	DD	00H
	DD	imagerel PMCCS_Multiply_L_X+45
	DD	0ffffffffH
	DD	imagerel PMCCS_Multiply_L_X+49
	DD	00H
	DD	imagerel PMCCS_Multiply_L_X$catch$0+13
	DD	01H
	DD	imagerel PMCCS_Multiply_L_X$catch$0+23
	DD	00H
xdata	ENDS
;	COMDAT xdata
xdata	SEGMENT
$handlerMap$0$PMCCS_Multiply_L_X DD 09H
	DD	imagerel ??_R0?AVException@Internal@Core@Math@Palmtree@@@8
	DD	028H
	DD	imagerel PMCCS_Multiply_L_X$catch$0
	DD	038H
xdata	ENDS
;	COMDAT xdata
xdata	SEGMENT
$tryMap$PMCCS_Multiply_L_X DD 00H
	DD	00H
	DD	01H
	DD	01H
	DD	imagerel $handlerMap$0$PMCCS_Multiply_L_X
xdata	ENDS
;	COMDAT xdata
xdata	SEGMENT
$stateUnwindMap$PMCCS_Multiply_L_X DD 0ffffffffH
	DD	00H
	DD	0ffffffffH
	DD	00H
xdata	ENDS
;	COMDAT CONST
CONST	SEGMENT
$cppxdata$PMCCS_Multiply_L_X DD 019930522H
	DD	02H
	DD	imagerel $stateUnwindMap$PMCCS_Multiply_L_X
	DD	01H
	DD	imagerel $tryMap$PMCCS_Multiply_L_X
	DD	06H
	DD	imagerel $ip2state$PMCCS_Multiply_L_X
	DD	020H
	DD	00H
	DD	00H
CONST	ENDS
;	COMDAT xdata
xdata	SEGMENT
$unwind$PMCCS_Multiply_L_X DD 020f19H
	DD	030025206H
	DD	imagerel __CxxFrameHandler3
	DD	imagerel $cppxdata$PMCCS_Multiply_L_X
xdata	ENDS
;	COMDAT xdata
xdata	SEGMENT
$unwind$PMCCS_Multiply_I_X$catch$0 DD 020a19H
	DD	05006320aH
	DD	imagerel __CxxFrameHandler3
	DD	imagerel $cppxdata$PMCCS_Multiply_I_X
xdata	ENDS
;	COMDAT xdata
xdata	SEGMENT
$ip2state$PMCCS_Multiply_I_X DD imagerel PMCCS_Multiply_I_X
	DD	0ffffffffH
	DD	imagerel PMCCS_Multiply_I_X+33
	DD	00H
	DD	imagerel PMCCS_Multiply_I_X+45
	DD	0ffffffffH
	DD	imagerel PMCCS_Multiply_I_X+49
	DD	00H
	DD	imagerel PMCCS_Multiply_I_X$catch$0+13
	DD	01H
	DD	imagerel PMCCS_Multiply_I_X$catch$0+23
	DD	00H
xdata	ENDS
;	COMDAT xdata
xdata	SEGMENT
$handlerMap$0$PMCCS_Multiply_I_X DD 09H
	DD	imagerel ??_R0?AVException@Internal@Core@Math@Palmtree@@@8
	DD	028H
	DD	imagerel PMCCS_Multiply_I_X$catch$0
	DD	038H
xdata	ENDS
;	COMDAT xdata
xdata	SEGMENT
$tryMap$PMCCS_Multiply_I_X DD 00H
	DD	00H
	DD	01H
	DD	01H
	DD	imagerel $handlerMap$0$PMCCS_Multiply_I_X
xdata	ENDS
;	COMDAT xdata
xdata	SEGMENT
$stateUnwindMap$PMCCS_Multiply_I_X DD 0ffffffffH
	DD	00H
	DD	0ffffffffH
	DD	00H
xdata	ENDS
;	COMDAT CONST
CONST	SEGMENT
$cppxdata$PMCCS_Multiply_I_X DD 019930522H
	DD	02H
	DD	imagerel $stateUnwindMap$PMCCS_Multiply_I_X
	DD	01H
	DD	imagerel $tryMap$PMCCS_Multiply_I_X
	DD	06H
	DD	imagerel $ip2state$PMCCS_Multiply_I_X
	DD	020H
	DD	00H
	DD	00H
CONST	ENDS
;	COMDAT xdata
xdata	SEGMENT
$unwind$PMCCS_Multiply_I_X DD 020f19H
	DD	030025206H
	DD	imagerel __CxxFrameHandler3
	DD	imagerel $cppxdata$PMCCS_Multiply_I_X
xdata	ENDS
;	COMDAT xdata
xdata	SEGMENT
$unwind$PMCCS_Subtruct_X_X$catch$0 DD 020a19H
	DD	05006320aH
	DD	imagerel __CxxFrameHandler3
	DD	imagerel $cppxdata$PMCCS_Subtruct_X_X
xdata	ENDS
;	COMDAT xdata
xdata	SEGMENT
$ip2state$PMCCS_Subtruct_X_X DD imagerel PMCCS_Subtruct_X_X
	DD	0ffffffffH
	DD	imagerel PMCCS_Subtruct_X_X+33
	DD	00H
	DD	imagerel PMCCS_Subtruct_X_X+45
	DD	0ffffffffH
	DD	imagerel PMCCS_Subtruct_X_X+49
	DD	00H
	DD	imagerel PMCCS_Subtruct_X_X$catch$0+13
	DD	01H
	DD	imagerel PMCCS_Subtruct_X_X$catch$0+23
	DD	00H
xdata	ENDS
;	COMDAT xdata
xdata	SEGMENT
$handlerMap$0$PMCCS_Subtruct_X_X DD 09H
	DD	imagerel ??_R0?AVException@Internal@Core@Math@Palmtree@@@8
	DD	028H
	DD	imagerel PMCCS_Subtruct_X_X$catch$0
	DD	038H
xdata	ENDS
;	COMDAT xdata
xdata	SEGMENT
$tryMap$PMCCS_Subtruct_X_X DD 00H
	DD	00H
	DD	01H
	DD	01H
	DD	imagerel $handlerMap$0$PMCCS_Subtruct_X_X
xdata	ENDS
;	COMDAT xdata
xdata	SEGMENT
$stateUnwindMap$PMCCS_Subtruct_X_X DD 0ffffffffH
	DD	00H
	DD	0ffffffffH
	DD	00H
xdata	ENDS
;	COMDAT CONST
CONST	SEGMENT
$cppxdata$PMCCS_Subtruct_X_X DD 019930522H
	DD	02H
	DD	imagerel $stateUnwindMap$PMCCS_Subtruct_X_X
	DD	01H
	DD	imagerel $tryMap$PMCCS_Subtruct_X_X
	DD	06H
	DD	imagerel $ip2state$PMCCS_Subtruct_X_X
	DD	020H
	DD	00H
	DD	00H
CONST	ENDS
;	COMDAT xdata
xdata	SEGMENT
$unwind$PMCCS_Subtruct_X_X DD 020f19H
	DD	030025206H
	DD	imagerel __CxxFrameHandler3
	DD	imagerel $cppxdata$PMCCS_Subtruct_X_X
xdata	ENDS
;	COMDAT xdata
xdata	SEGMENT
$unwind$PMCCS_Subtruct_X_L$catch$0 DD 020a19H
	DD	05006320aH
	DD	imagerel __CxxFrameHandler3
	DD	imagerel $cppxdata$PMCCS_Subtruct_X_L
xdata	ENDS
;	COMDAT xdata
xdata	SEGMENT
$ip2state$PMCCS_Subtruct_X_L DD imagerel PMCCS_Subtruct_X_L
	DD	0ffffffffH
	DD	imagerel PMCCS_Subtruct_X_L+33
	DD	00H
	DD	imagerel PMCCS_Subtruct_X_L+45
	DD	0ffffffffH
	DD	imagerel PMCCS_Subtruct_X_L+49
	DD	00H
	DD	imagerel PMCCS_Subtruct_X_L$catch$0+13
	DD	01H
	DD	imagerel PMCCS_Subtruct_X_L$catch$0+23
	DD	00H
xdata	ENDS
;	COMDAT xdata
xdata	SEGMENT
$handlerMap$0$PMCCS_Subtruct_X_L DD 09H
	DD	imagerel ??_R0?AVException@Internal@Core@Math@Palmtree@@@8
	DD	028H
	DD	imagerel PMCCS_Subtruct_X_L$catch$0
	DD	038H
xdata	ENDS
;	COMDAT xdata
xdata	SEGMENT
$tryMap$PMCCS_Subtruct_X_L DD 00H
	DD	00H
	DD	01H
	DD	01H
	DD	imagerel $handlerMap$0$PMCCS_Subtruct_X_L
xdata	ENDS
;	COMDAT xdata
xdata	SEGMENT
$stateUnwindMap$PMCCS_Subtruct_X_L DD 0ffffffffH
	DD	00H
	DD	0ffffffffH
	DD	00H
xdata	ENDS
;	COMDAT CONST
CONST	SEGMENT
$cppxdata$PMCCS_Subtruct_X_L DD 019930522H
	DD	02H
	DD	imagerel $stateUnwindMap$PMCCS_Subtruct_X_L
	DD	01H
	DD	imagerel $tryMap$PMCCS_Subtruct_X_L
	DD	06H
	DD	imagerel $ip2state$PMCCS_Subtruct_X_L
	DD	020H
	DD	00H
	DD	00H
CONST	ENDS
;	COMDAT xdata
xdata	SEGMENT
$unwind$PMCCS_Subtruct_X_L DD 020f19H
	DD	030025206H
	DD	imagerel __CxxFrameHandler3
	DD	imagerel $cppxdata$PMCCS_Subtruct_X_L
xdata	ENDS
;	COMDAT xdata
xdata	SEGMENT
$unwind$PMCCS_Subtruct_X_I$catch$0 DD 020a19H
	DD	05006320aH
	DD	imagerel __CxxFrameHandler3
	DD	imagerel $cppxdata$PMCCS_Subtruct_X_I
xdata	ENDS
;	COMDAT xdata
xdata	SEGMENT
$ip2state$PMCCS_Subtruct_X_I DD imagerel PMCCS_Subtruct_X_I
	DD	0ffffffffH
	DD	imagerel PMCCS_Subtruct_X_I+33
	DD	00H
	DD	imagerel PMCCS_Subtruct_X_I+45
	DD	0ffffffffH
	DD	imagerel PMCCS_Subtruct_X_I+49
	DD	00H
	DD	imagerel PMCCS_Subtruct_X_I$catch$0+13
	DD	01H
	DD	imagerel PMCCS_Subtruct_X_I$catch$0+23
	DD	00H
xdata	ENDS
;	COMDAT xdata
xdata	SEGMENT
$handlerMap$0$PMCCS_Subtruct_X_I DD 09H
	DD	imagerel ??_R0?AVException@Internal@Core@Math@Palmtree@@@8
	DD	028H
	DD	imagerel PMCCS_Subtruct_X_I$catch$0
	DD	038H
xdata	ENDS
;	COMDAT xdata
xdata	SEGMENT
$tryMap$PMCCS_Subtruct_X_I DD 00H
	DD	00H
	DD	01H
	DD	01H
	DD	imagerel $handlerMap$0$PMCCS_Subtruct_X_I
xdata	ENDS
;	COMDAT xdata
xdata	SEGMENT
$stateUnwindMap$PMCCS_Subtruct_X_I DD 0ffffffffH
	DD	00H
	DD	0ffffffffH
	DD	00H
xdata	ENDS
;	COMDAT CONST
CONST	SEGMENT
$cppxdata$PMCCS_Subtruct_X_I DD 019930522H
	DD	02H
	DD	imagerel $stateUnwindMap$PMCCS_Subtruct_X_I
	DD	01H
	DD	imagerel $tryMap$PMCCS_Subtruct_X_I
	DD	06H
	DD	imagerel $ip2state$PMCCS_Subtruct_X_I
	DD	020H
	DD	00H
	DD	00H
CONST	ENDS
;	COMDAT xdata
xdata	SEGMENT
$unwind$PMCCS_Subtruct_X_I DD 020f19H
	DD	030025206H
	DD	imagerel __CxxFrameHandler3
	DD	imagerel $cppxdata$PMCCS_Subtruct_X_I
xdata	ENDS
;	COMDAT xdata
xdata	SEGMENT
$unwind$PMCCS_Subtruct_L_X$catch$0 DD 020a19H
	DD	05006320aH
	DD	imagerel __CxxFrameHandler3
	DD	imagerel $cppxdata$PMCCS_Subtruct_L_X
xdata	ENDS
;	COMDAT xdata
xdata	SEGMENT
$ip2state$PMCCS_Subtruct_L_X DD imagerel PMCCS_Subtruct_L_X
	DD	0ffffffffH
	DD	imagerel PMCCS_Subtruct_L_X+33
	DD	00H
	DD	imagerel PMCCS_Subtruct_L_X+45
	DD	0ffffffffH
	DD	imagerel PMCCS_Subtruct_L_X+49
	DD	00H
	DD	imagerel PMCCS_Subtruct_L_X$catch$0+13
	DD	01H
	DD	imagerel PMCCS_Subtruct_L_X$catch$0+23
	DD	00H
xdata	ENDS
;	COMDAT xdata
xdata	SEGMENT
$handlerMap$0$PMCCS_Subtruct_L_X DD 09H
	DD	imagerel ??_R0?AVException@Internal@Core@Math@Palmtree@@@8
	DD	028H
	DD	imagerel PMCCS_Subtruct_L_X$catch$0
	DD	038H
xdata	ENDS
;	COMDAT xdata
xdata	SEGMENT
$tryMap$PMCCS_Subtruct_L_X DD 00H
	DD	00H
	DD	01H
	DD	01H
	DD	imagerel $handlerMap$0$PMCCS_Subtruct_L_X
xdata	ENDS
;	COMDAT xdata
xdata	SEGMENT
$stateUnwindMap$PMCCS_Subtruct_L_X DD 0ffffffffH
	DD	00H
	DD	0ffffffffH
	DD	00H
xdata	ENDS
;	COMDAT CONST
CONST	SEGMENT
$cppxdata$PMCCS_Subtruct_L_X DD 019930522H
	DD	02H
	DD	imagerel $stateUnwindMap$PMCCS_Subtruct_L_X
	DD	01H
	DD	imagerel $tryMap$PMCCS_Subtruct_L_X
	DD	06H
	DD	imagerel $ip2state$PMCCS_Subtruct_L_X
	DD	020H
	DD	00H
	DD	00H
CONST	ENDS
;	COMDAT xdata
xdata	SEGMENT
$unwind$PMCCS_Subtruct_L_X DD 020f19H
	DD	030025206H
	DD	imagerel __CxxFrameHandler3
	DD	imagerel $cppxdata$PMCCS_Subtruct_L_X
xdata	ENDS
;	COMDAT xdata
xdata	SEGMENT
$unwind$PMCCS_Subtruct_I_X$catch$0 DD 020a19H
	DD	05006320aH
	DD	imagerel __CxxFrameHandler3
	DD	imagerel $cppxdata$PMCCS_Subtruct_I_X
xdata	ENDS
;	COMDAT xdata
xdata	SEGMENT
$ip2state$PMCCS_Subtruct_I_X DD imagerel PMCCS_Subtruct_I_X
	DD	0ffffffffH
	DD	imagerel PMCCS_Subtruct_I_X+33
	DD	00H
	DD	imagerel PMCCS_Subtruct_I_X+44
	DD	0ffffffffH
	DD	imagerel PMCCS_Subtruct_I_X+48
	DD	00H
	DD	imagerel PMCCS_Subtruct_I_X$catch$0+13
	DD	01H
	DD	imagerel PMCCS_Subtruct_I_X$catch$0+23
	DD	00H
xdata	ENDS
;	COMDAT xdata
xdata	SEGMENT
$handlerMap$0$PMCCS_Subtruct_I_X DD 09H
	DD	imagerel ??_R0?AVException@Internal@Core@Math@Palmtree@@@8
	DD	028H
	DD	imagerel PMCCS_Subtruct_I_X$catch$0
	DD	038H
xdata	ENDS
;	COMDAT xdata
xdata	SEGMENT
$tryMap$PMCCS_Subtruct_I_X DD 00H
	DD	00H
	DD	01H
	DD	01H
	DD	imagerel $handlerMap$0$PMCCS_Subtruct_I_X
xdata	ENDS
;	COMDAT xdata
xdata	SEGMENT
$stateUnwindMap$PMCCS_Subtruct_I_X DD 0ffffffffH
	DD	00H
	DD	0ffffffffH
	DD	00H
xdata	ENDS
;	COMDAT CONST
CONST	SEGMENT
$cppxdata$PMCCS_Subtruct_I_X DD 019930522H
	DD	02H
	DD	imagerel $stateUnwindMap$PMCCS_Subtruct_I_X
	DD	01H
	DD	imagerel $tryMap$PMCCS_Subtruct_I_X
	DD	06H
	DD	imagerel $ip2state$PMCCS_Subtruct_I_X
	DD	020H
	DD	00H
	DD	00H
CONST	ENDS
;	COMDAT xdata
xdata	SEGMENT
$unwind$PMCCS_Subtruct_I_X DD 020f19H
	DD	030025206H
	DD	imagerel __CxxFrameHandler3
	DD	imagerel $cppxdata$PMCCS_Subtruct_I_X
xdata	ENDS
;	COMDAT xdata
xdata	SEGMENT
$unwind$PMCCS_Add_X_X$catch$0 DD 020a19H
	DD	05006320aH
	DD	imagerel __CxxFrameHandler3
	DD	imagerel $cppxdata$PMCCS_Add_X_X
xdata	ENDS
;	COMDAT xdata
xdata	SEGMENT
$ip2state$PMCCS_Add_X_X DD imagerel PMCCS_Add_X_X
	DD	0ffffffffH
	DD	imagerel PMCCS_Add_X_X+33
	DD	00H
	DD	imagerel PMCCS_Add_X_X+45
	DD	0ffffffffH
	DD	imagerel PMCCS_Add_X_X+49
	DD	00H
	DD	imagerel PMCCS_Add_X_X$catch$0+13
	DD	01H
	DD	imagerel PMCCS_Add_X_X$catch$0+23
	DD	00H
xdata	ENDS
;	COMDAT xdata
xdata	SEGMENT
$handlerMap$0$PMCCS_Add_X_X DD 09H
	DD	imagerel ??_R0?AVException@Internal@Core@Math@Palmtree@@@8
	DD	028H
	DD	imagerel PMCCS_Add_X_X$catch$0
	DD	038H
xdata	ENDS
;	COMDAT xdata
xdata	SEGMENT
$tryMap$PMCCS_Add_X_X DD 00H
	DD	00H
	DD	01H
	DD	01H
	DD	imagerel $handlerMap$0$PMCCS_Add_X_X
xdata	ENDS
;	COMDAT xdata
xdata	SEGMENT
$stateUnwindMap$PMCCS_Add_X_X DD 0ffffffffH
	DD	00H
	DD	0ffffffffH
	DD	00H
xdata	ENDS
;	COMDAT CONST
CONST	SEGMENT
$cppxdata$PMCCS_Add_X_X DD 019930522H
	DD	02H
	DD	imagerel $stateUnwindMap$PMCCS_Add_X_X
	DD	01H
	DD	imagerel $tryMap$PMCCS_Add_X_X
	DD	06H
	DD	imagerel $ip2state$PMCCS_Add_X_X
	DD	020H
	DD	00H
	DD	00H
CONST	ENDS
;	COMDAT xdata
xdata	SEGMENT
$unwind$PMCCS_Add_X_X DD 020f19H
	DD	030025206H
	DD	imagerel __CxxFrameHandler3
	DD	imagerel $cppxdata$PMCCS_Add_X_X
xdata	ENDS
;	COMDAT xdata
xdata	SEGMENT
$unwind$PMCCS_Add_X_L$catch$0 DD 020a19H
	DD	05006320aH
	DD	imagerel __CxxFrameHandler3
	DD	imagerel $cppxdata$PMCCS_Add_X_L
xdata	ENDS
;	COMDAT xdata
xdata	SEGMENT
$ip2state$PMCCS_Add_X_L DD imagerel PMCCS_Add_X_L
	DD	0ffffffffH
	DD	imagerel PMCCS_Add_X_L+33
	DD	00H
	DD	imagerel PMCCS_Add_X_L+45
	DD	0ffffffffH
	DD	imagerel PMCCS_Add_X_L+49
	DD	00H
	DD	imagerel PMCCS_Add_X_L$catch$0+13
	DD	01H
	DD	imagerel PMCCS_Add_X_L$catch$0+23
	DD	00H
xdata	ENDS
;	COMDAT xdata
xdata	SEGMENT
$handlerMap$0$PMCCS_Add_X_L DD 09H
	DD	imagerel ??_R0?AVException@Internal@Core@Math@Palmtree@@@8
	DD	028H
	DD	imagerel PMCCS_Add_X_L$catch$0
	DD	038H
xdata	ENDS
;	COMDAT xdata
xdata	SEGMENT
$tryMap$PMCCS_Add_X_L DD 00H
	DD	00H
	DD	01H
	DD	01H
	DD	imagerel $handlerMap$0$PMCCS_Add_X_L
xdata	ENDS
;	COMDAT xdata
xdata	SEGMENT
$stateUnwindMap$PMCCS_Add_X_L DD 0ffffffffH
	DD	00H
	DD	0ffffffffH
	DD	00H
xdata	ENDS
;	COMDAT CONST
CONST	SEGMENT
$cppxdata$PMCCS_Add_X_L DD 019930522H
	DD	02H
	DD	imagerel $stateUnwindMap$PMCCS_Add_X_L
	DD	01H
	DD	imagerel $tryMap$PMCCS_Add_X_L
	DD	06H
	DD	imagerel $ip2state$PMCCS_Add_X_L
	DD	020H
	DD	00H
	DD	00H
CONST	ENDS
;	COMDAT xdata
xdata	SEGMENT
$unwind$PMCCS_Add_X_L DD 020f19H
	DD	030025206H
	DD	imagerel __CxxFrameHandler3
	DD	imagerel $cppxdata$PMCCS_Add_X_L
xdata	ENDS
;	COMDAT xdata
xdata	SEGMENT
$unwind$PMCCS_Add_X_I$catch$0 DD 020a19H
	DD	05006320aH
	DD	imagerel __CxxFrameHandler3
	DD	imagerel $cppxdata$PMCCS_Add_X_I
xdata	ENDS
;	COMDAT xdata
xdata	SEGMENT
$ip2state$PMCCS_Add_X_I DD imagerel PMCCS_Add_X_I
	DD	0ffffffffH
	DD	imagerel PMCCS_Add_X_I+33
	DD	00H
	DD	imagerel PMCCS_Add_X_I+45
	DD	0ffffffffH
	DD	imagerel PMCCS_Add_X_I+49
	DD	00H
	DD	imagerel PMCCS_Add_X_I$catch$0+13
	DD	01H
	DD	imagerel PMCCS_Add_X_I$catch$0+23
	DD	00H
xdata	ENDS
;	COMDAT xdata
xdata	SEGMENT
$handlerMap$0$PMCCS_Add_X_I DD 09H
	DD	imagerel ??_R0?AVException@Internal@Core@Math@Palmtree@@@8
	DD	028H
	DD	imagerel PMCCS_Add_X_I$catch$0
	DD	038H
xdata	ENDS
;	COMDAT xdata
xdata	SEGMENT
$tryMap$PMCCS_Add_X_I DD 00H
	DD	00H
	DD	01H
	DD	01H
	DD	imagerel $handlerMap$0$PMCCS_Add_X_I
xdata	ENDS
;	COMDAT xdata
xdata	SEGMENT
$stateUnwindMap$PMCCS_Add_X_I DD 0ffffffffH
	DD	00H
	DD	0ffffffffH
	DD	00H
xdata	ENDS
;	COMDAT CONST
CONST	SEGMENT
$cppxdata$PMCCS_Add_X_I DD 019930522H
	DD	02H
	DD	imagerel $stateUnwindMap$PMCCS_Add_X_I
	DD	01H
	DD	imagerel $tryMap$PMCCS_Add_X_I
	DD	06H
	DD	imagerel $ip2state$PMCCS_Add_X_I
	DD	020H
	DD	00H
	DD	00H
CONST	ENDS
;	COMDAT xdata
xdata	SEGMENT
$unwind$PMCCS_Add_X_I DD 020f19H
	DD	030025206H
	DD	imagerel __CxxFrameHandler3
	DD	imagerel $cppxdata$PMCCS_Add_X_I
xdata	ENDS
;	COMDAT xdata
xdata	SEGMENT
$unwind$PMCCS_Add_L_X$catch$0 DD 020a19H
	DD	05006320aH
	DD	imagerel __CxxFrameHandler3
	DD	imagerel $cppxdata$PMCCS_Add_L_X
xdata	ENDS
;	COMDAT xdata
xdata	SEGMENT
$ip2state$PMCCS_Add_L_X DD imagerel PMCCS_Add_L_X
	DD	0ffffffffH
	DD	imagerel PMCCS_Add_L_X+33
	DD	00H
	DD	imagerel PMCCS_Add_L_X+45
	DD	0ffffffffH
	DD	imagerel PMCCS_Add_L_X+49
	DD	00H
	DD	imagerel PMCCS_Add_L_X$catch$0+13
	DD	01H
	DD	imagerel PMCCS_Add_L_X$catch$0+23
	DD	00H
xdata	ENDS
;	COMDAT xdata
xdata	SEGMENT
$handlerMap$0$PMCCS_Add_L_X DD 09H
	DD	imagerel ??_R0?AVException@Internal@Core@Math@Palmtree@@@8
	DD	028H
	DD	imagerel PMCCS_Add_L_X$catch$0
	DD	038H
xdata	ENDS
;	COMDAT xdata
xdata	SEGMENT
$tryMap$PMCCS_Add_L_X DD 00H
	DD	00H
	DD	01H
	DD	01H
	DD	imagerel $handlerMap$0$PMCCS_Add_L_X
xdata	ENDS
;	COMDAT xdata
xdata	SEGMENT
$stateUnwindMap$PMCCS_Add_L_X DD 0ffffffffH
	DD	00H
	DD	0ffffffffH
	DD	00H
xdata	ENDS
;	COMDAT CONST
CONST	SEGMENT
$cppxdata$PMCCS_Add_L_X DD 019930522H
	DD	02H
	DD	imagerel $stateUnwindMap$PMCCS_Add_L_X
	DD	01H
	DD	imagerel $tryMap$PMCCS_Add_L_X
	DD	06H
	DD	imagerel $ip2state$PMCCS_Add_L_X
	DD	020H
	DD	00H
	DD	00H
CONST	ENDS
;	COMDAT xdata
xdata	SEGMENT
$unwind$PMCCS_Add_L_X DD 020f19H
	DD	030025206H
	DD	imagerel __CxxFrameHandler3
	DD	imagerel $cppxdata$PMCCS_Add_L_X
xdata	ENDS
;	COMDAT xdata
xdata	SEGMENT
$unwind$PMCCS_Add_I_X$catch$0 DD 020a19H
	DD	05006320aH
	DD	imagerel __CxxFrameHandler3
	DD	imagerel $cppxdata$PMCCS_Add_I_X
xdata	ENDS
;	COMDAT xdata
xdata	SEGMENT
$ip2state$PMCCS_Add_I_X DD imagerel PMCCS_Add_I_X
	DD	0ffffffffH
	DD	imagerel PMCCS_Add_I_X+33
	DD	00H
	DD	imagerel PMCCS_Add_I_X+45
	DD	0ffffffffH
	DD	imagerel PMCCS_Add_I_X+49
	DD	00H
	DD	imagerel PMCCS_Add_I_X$catch$0+13
	DD	01H
	DD	imagerel PMCCS_Add_I_X$catch$0+23
	DD	00H
xdata	ENDS
;	COMDAT xdata
xdata	SEGMENT
$handlerMap$0$PMCCS_Add_I_X DD 09H
	DD	imagerel ??_R0?AVException@Internal@Core@Math@Palmtree@@@8
	DD	028H
	DD	imagerel PMCCS_Add_I_X$catch$0
	DD	038H
xdata	ENDS
;	COMDAT xdata
xdata	SEGMENT
$tryMap$PMCCS_Add_I_X DD 00H
	DD	00H
	DD	01H
	DD	01H
	DD	imagerel $handlerMap$0$PMCCS_Add_I_X
xdata	ENDS
;	COMDAT xdata
xdata	SEGMENT
$stateUnwindMap$PMCCS_Add_I_X DD 0ffffffffH
	DD	00H
	DD	0ffffffffH
	DD	00H
xdata	ENDS
;	COMDAT CONST
CONST	SEGMENT
$cppxdata$PMCCS_Add_I_X DD 019930522H
	DD	02H
	DD	imagerel $stateUnwindMap$PMCCS_Add_I_X
	DD	01H
	DD	imagerel $tryMap$PMCCS_Add_I_X
	DD	06H
	DD	imagerel $ip2state$PMCCS_Add_I_X
	DD	020H
	DD	00H
	DD	00H
CONST	ENDS
;	COMDAT xdata
xdata	SEGMENT
$unwind$PMCCS_Add_I_X DD 020f19H
	DD	030025206H
	DD	imagerel __CxxFrameHandler3
	DD	imagerel $cppxdata$PMCCS_Add_I_X
xdata	ENDS
;	COMDAT xdata
xdata	SEGMENT
$unwind$PMCCS_TryParse$catch$0 DD 020a19H
	DD	05006520aH
	DD	imagerel __CxxFrameHandler3
	DD	imagerel $cppxdata$PMCCS_TryParse
xdata	ENDS
;	COMDAT xdata
xdata	SEGMENT
$ip2state$PMCCS_TryParse DD imagerel PMCCS_TryParse
	DD	0ffffffffH
	DD	imagerel PMCCS_TryParse+27
	DD	00H
	DD	imagerel PMCCS_TryParse+50
	DD	0ffffffffH
	DD	imagerel PMCCS_TryParse+54
	DD	00H
	DD	imagerel PMCCS_TryParse$catch$0+13
	DD	01H
	DD	imagerel PMCCS_TryParse$catch$0+23
	DD	00H
xdata	ENDS
;	COMDAT xdata
xdata	SEGMENT
$handlerMap$0$PMCCS_TryParse DD 09H
	DD	imagerel ??_R0?AVException@Internal@Core@Math@Palmtree@@@8
	DD	038H
	DD	imagerel PMCCS_TryParse$catch$0
	DD	048H
xdata	ENDS
;	COMDAT xdata
xdata	SEGMENT
$tryMap$PMCCS_TryParse DD 00H
	DD	00H
	DD	01H
	DD	01H
	DD	imagerel $handlerMap$0$PMCCS_TryParse
xdata	ENDS
;	COMDAT xdata
xdata	SEGMENT
$stateUnwindMap$PMCCS_TryParse DD 0ffffffffH
	DD	00H
	DD	0ffffffffH
	DD	00H
xdata	ENDS
;	COMDAT CONST
CONST	SEGMENT
$cppxdata$PMCCS_TryParse DD 019930522H
	DD	02H
	DD	imagerel $stateUnwindMap$PMCCS_TryParse
	DD	01H
	DD	imagerel $tryMap$PMCCS_TryParse
	DD	06H
	DD	imagerel $ip2state$PMCCS_TryParse
	DD	030H
	DD	00H
	DD	00H
CONST	ENDS
;	COMDAT xdata
xdata	SEGMENT
$unwind$PMCCS_TryParse DD 010d19H
	DD	08204H
	DD	imagerel __CxxFrameHandler3
	DD	imagerel $cppxdata$PMCCS_TryParse
xdata	ENDS
;	COMDAT xdata
xdata	SEGMENT
$unwind$PMCCS_Parse$catch$0 DD 020a19H
	DD	05006520aH
	DD	imagerel __CxxFrameHandler3
	DD	imagerel $cppxdata$PMCCS_Parse
xdata	ENDS
;	COMDAT xdata
xdata	SEGMENT
$ip2state$PMCCS_Parse DD imagerel PMCCS_Parse
	DD	0ffffffffH
	DD	imagerel PMCCS_Parse+27
	DD	00H
	DD	imagerel PMCCS_Parse+68
	DD	0ffffffffH
	DD	imagerel PMCCS_Parse+72
	DD	00H
	DD	imagerel PMCCS_Parse$catch$0+13
	DD	01H
	DD	imagerel PMCCS_Parse$catch$0+23
	DD	00H
xdata	ENDS
;	COMDAT xdata
xdata	SEGMENT
$handlerMap$0$PMCCS_Parse DD 09H
	DD	imagerel ??_R0?AVException@Internal@Core@Math@Palmtree@@@8
	DD	038H
	DD	imagerel PMCCS_Parse$catch$0
	DD	048H
xdata	ENDS
;	COMDAT xdata
xdata	SEGMENT
$tryMap$PMCCS_Parse DD 00H
	DD	00H
	DD	01H
	DD	01H
	DD	imagerel $handlerMap$0$PMCCS_Parse
xdata	ENDS
;	COMDAT xdata
xdata	SEGMENT
$stateUnwindMap$PMCCS_Parse DD 0ffffffffH
	DD	00H
	DD	0ffffffffH
	DD	00H
xdata	ENDS
;	COMDAT CONST
CONST	SEGMENT
$cppxdata$PMCCS_Parse DD 019930522H
	DD	02H
	DD	imagerel $stateUnwindMap$PMCCS_Parse
	DD	01H
	DD	imagerel $tryMap$PMCCS_Parse
	DD	06H
	DD	imagerel $ip2state$PMCCS_Parse
	DD	030H
	DD	00H
	DD	00H
CONST	ENDS
;	COMDAT xdata
xdata	SEGMENT
$unwind$PMCCS_Parse DD 010d19H
	DD	08204H
	DD	imagerel __CxxFrameHandler3
	DD	imagerel $cppxdata$PMCCS_Parse
xdata	ENDS
;	COMDAT xdata
xdata	SEGMENT
$unwind$PMCCS_ToString$catch$0 DD 020a19H
	DD	05006520aH
	DD	imagerel __CxxFrameHandler3
	DD	imagerel $cppxdata$PMCCS_ToString
xdata	ENDS
;	COMDAT xdata
xdata	SEGMENT
$ip2state$PMCCS_ToString DD imagerel PMCCS_ToString
	DD	0ffffffffH
	DD	imagerel PMCCS_ToString+34
	DD	00H
	DD	imagerel PMCCS_ToString+75
	DD	0ffffffffH
	DD	imagerel PMCCS_ToString+79
	DD	00H
	DD	imagerel PMCCS_ToString$catch$0+13
	DD	01H
	DD	imagerel PMCCS_ToString$catch$0+23
	DD	00H
xdata	ENDS
;	COMDAT xdata
xdata	SEGMENT
$handlerMap$0$PMCCS_ToString DD 09H
	DD	imagerel ??_R0?AVException@Internal@Core@Math@Palmtree@@@8
	DD	038H
	DD	imagerel PMCCS_ToString$catch$0
	DD	048H
xdata	ENDS
;	COMDAT xdata
xdata	SEGMENT
$tryMap$PMCCS_ToString DD 00H
	DD	00H
	DD	01H
	DD	01H
	DD	imagerel $handlerMap$0$PMCCS_ToString
xdata	ENDS
;	COMDAT xdata
xdata	SEGMENT
$stateUnwindMap$PMCCS_ToString DD 0ffffffffH
	DD	00H
	DD	0ffffffffH
	DD	00H
xdata	ENDS
;	COMDAT CONST
CONST	SEGMENT
$cppxdata$PMCCS_ToString DD 019930522H
	DD	02H
	DD	imagerel $stateUnwindMap$PMCCS_ToString
	DD	01H
	DD	imagerel $tryMap$PMCCS_ToString
	DD	06H
	DD	imagerel $ip2state$PMCCS_ToString
	DD	030H
	DD	00H
	DD	00H
CONST	ENDS
;	COMDAT xdata
xdata	SEGMENT
$unwind$PMCCS_ToString DD 020f19H
	DD	030027206H
	DD	imagerel __CxxFrameHandler3
	DD	imagerel $cppxdata$PMCCS_ToString
xdata	ENDS
;	COMDAT xdata
xdata	SEGMENT
$unwind$PMCCS_To_X_L$catch$0 DD 020a19H
	DD	05006320aH
	DD	imagerel __CxxFrameHandler3
	DD	imagerel $cppxdata$PMCCS_To_X_L
xdata	ENDS
;	COMDAT xdata
xdata	SEGMENT
$ip2state$PMCCS_To_X_L DD imagerel PMCCS_To_X_L
	DD	0ffffffffH
	DD	imagerel PMCCS_To_X_L+32
	DD	00H
	DD	imagerel PMCCS_To_X_L+44
	DD	0ffffffffH
	DD	imagerel PMCCS_To_X_L+48
	DD	00H
	DD	imagerel PMCCS_To_X_L$catch$0+13
	DD	01H
	DD	imagerel PMCCS_To_X_L$catch$0+23
	DD	00H
xdata	ENDS
;	COMDAT xdata
xdata	SEGMENT
$handlerMap$0$PMCCS_To_X_L DD 09H
	DD	imagerel ??_R0?AVException@Internal@Core@Math@Palmtree@@@8
	DD	028H
	DD	imagerel PMCCS_To_X_L$catch$0
	DD	038H
xdata	ENDS
;	COMDAT xdata
xdata	SEGMENT
$tryMap$PMCCS_To_X_L DD 00H
	DD	00H
	DD	01H
	DD	01H
	DD	imagerel $handlerMap$0$PMCCS_To_X_L
xdata	ENDS
;	COMDAT xdata
xdata	SEGMENT
$stateUnwindMap$PMCCS_To_X_L DD 0ffffffffH
	DD	00H
	DD	0ffffffffH
	DD	00H
xdata	ENDS
;	COMDAT CONST
CONST	SEGMENT
$cppxdata$PMCCS_To_X_L DD 019930522H
	DD	02H
	DD	imagerel $stateUnwindMap$PMCCS_To_X_L
	DD	01H
	DD	imagerel $tryMap$PMCCS_To_X_L
	DD	06H
	DD	imagerel $ip2state$PMCCS_To_X_L
	DD	020H
	DD	00H
	DD	00H
CONST	ENDS
;	COMDAT xdata
xdata	SEGMENT
$unwind$PMCCS_To_X_L DD 020f19H
	DD	030025206H
	DD	imagerel __CxxFrameHandler3
	DD	imagerel $cppxdata$PMCCS_To_X_L
xdata	ENDS
;	COMDAT xdata
xdata	SEGMENT
$unwind$PMCCS_To_X_I$catch$0 DD 020a19H
	DD	05006320aH
	DD	imagerel __CxxFrameHandler3
	DD	imagerel $cppxdata$PMCCS_To_X_I
xdata	ENDS
;	COMDAT xdata
xdata	SEGMENT
$ip2state$PMCCS_To_X_I DD imagerel PMCCS_To_X_I
	DD	0ffffffffH
	DD	imagerel PMCCS_To_X_I+32
	DD	00H
	DD	imagerel PMCCS_To_X_I+43
	DD	0ffffffffH
	DD	imagerel PMCCS_To_X_I+47
	DD	00H
	DD	imagerel PMCCS_To_X_I$catch$0+13
	DD	01H
	DD	imagerel PMCCS_To_X_I$catch$0+23
	DD	00H
xdata	ENDS
;	COMDAT xdata
xdata	SEGMENT
$handlerMap$0$PMCCS_To_X_I DD 09H
	DD	imagerel ??_R0?AVException@Internal@Core@Math@Palmtree@@@8
	DD	028H
	DD	imagerel PMCCS_To_X_I$catch$0
	DD	038H
xdata	ENDS
;	COMDAT xdata
xdata	SEGMENT
$tryMap$PMCCS_To_X_I DD 00H
	DD	00H
	DD	01H
	DD	01H
	DD	imagerel $handlerMap$0$PMCCS_To_X_I
xdata	ENDS
;	COMDAT xdata
xdata	SEGMENT
$stateUnwindMap$PMCCS_To_X_I DD 0ffffffffH
	DD	00H
	DD	0ffffffffH
	DD	00H
xdata	ENDS
;	COMDAT CONST
CONST	SEGMENT
$cppxdata$PMCCS_To_X_I DD 019930522H
	DD	02H
	DD	imagerel $stateUnwindMap$PMCCS_To_X_I
	DD	01H
	DD	imagerel $tryMap$PMCCS_To_X_I
	DD	06H
	DD	imagerel $ip2state$PMCCS_To_X_I
	DD	020H
	DD	00H
	DD	00H
CONST	ENDS
;	COMDAT xdata
xdata	SEGMENT
$unwind$PMCCS_To_X_I DD 020f19H
	DD	030025206H
	DD	imagerel __CxxFrameHandler3
	DD	imagerel $cppxdata$PMCCS_To_X_I
xdata	ENDS
;	COMDAT xdata
xdata	SEGMENT
$unwind$PMCCS_GetAllocatedMemorySize$catch$0 DD 020a19H
	DD	05006320aH
	DD	imagerel __CxxFrameHandler3
	DD	imagerel $cppxdata$PMCCS_GetAllocatedMemorySize
xdata	ENDS
;	COMDAT xdata
xdata	SEGMENT
$ip2state$PMCCS_GetAllocatedMemorySize DD imagerel PMCCS_GetAllocatedMemorySize
	DD	0ffffffffH
	DD	imagerel PMCCS_GetAllocatedMemorySize+32
	DD	00H
	DD	imagerel PMCCS_GetAllocatedMemorySize+44
	DD	0ffffffffH
	DD	imagerel PMCCS_GetAllocatedMemorySize+48
	DD	00H
	DD	imagerel PMCCS_GetAllocatedMemorySize$catch$0+13
	DD	01H
	DD	imagerel PMCCS_GetAllocatedMemorySize$catch$0+23
	DD	00H
xdata	ENDS
;	COMDAT xdata
xdata	SEGMENT
$handlerMap$0$PMCCS_GetAllocatedMemorySize DD 09H
	DD	imagerel ??_R0?AVException@Internal@Core@Math@Palmtree@@@8
	DD	028H
	DD	imagerel PMCCS_GetAllocatedMemorySize$catch$0
	DD	038H
xdata	ENDS
;	COMDAT xdata
xdata	SEGMENT
$tryMap$PMCCS_GetAllocatedMemorySize DD 00H
	DD	00H
	DD	01H
	DD	01H
	DD	imagerel $handlerMap$0$PMCCS_GetAllocatedMemorySize
xdata	ENDS
;	COMDAT xdata
xdata	SEGMENT
$stateUnwindMap$PMCCS_GetAllocatedMemorySize DD 0ffffffffH
	DD	00H
	DD	0ffffffffH
	DD	00H
xdata	ENDS
;	COMDAT CONST
CONST	SEGMENT
$cppxdata$PMCCS_GetAllocatedMemorySize DD 019930522H
	DD	02H
	DD	imagerel $stateUnwindMap$PMCCS_GetAllocatedMemorySize
	DD	01H
	DD	imagerel $tryMap$PMCCS_GetAllocatedMemorySize
	DD	06H
	DD	imagerel $ip2state$PMCCS_GetAllocatedMemorySize
	DD	020H
	DD	00H
	DD	00H
CONST	ENDS
;	COMDAT xdata
xdata	SEGMENT
$unwind$PMCCS_GetAllocatedMemorySize DD 020f19H
	DD	030025206H
	DD	imagerel __CxxFrameHandler3
	DD	imagerel $cppxdata$PMCCS_GetAllocatedMemorySize
xdata	ENDS
;	COMDAT xdata
xdata	SEGMENT
$unwind$PMCCS_Clone_X$catch$0 DD 020a19H
	DD	05006320aH
	DD	imagerel __CxxFrameHandler3
	DD	imagerel $cppxdata$PMCCS_Clone_X
xdata	ENDS
;	COMDAT xdata
xdata	SEGMENT
$ip2state$PMCCS_Clone_X DD imagerel PMCCS_Clone_X
	DD	0ffffffffH
	DD	imagerel PMCCS_Clone_X+32
	DD	00H
	DD	imagerel PMCCS_Clone_X+44
	DD	0ffffffffH
	DD	imagerel PMCCS_Clone_X+48
	DD	00H
	DD	imagerel PMCCS_Clone_X$catch$0+13
	DD	01H
	DD	imagerel PMCCS_Clone_X$catch$0+23
	DD	00H
xdata	ENDS
;	COMDAT xdata
xdata	SEGMENT
$handlerMap$0$PMCCS_Clone_X DD 09H
	DD	imagerel ??_R0?AVException@Internal@Core@Math@Palmtree@@@8
	DD	028H
	DD	imagerel PMCCS_Clone_X$catch$0
	DD	038H
xdata	ENDS
;	COMDAT xdata
xdata	SEGMENT
$tryMap$PMCCS_Clone_X DD 00H
	DD	00H
	DD	01H
	DD	01H
	DD	imagerel $handlerMap$0$PMCCS_Clone_X
xdata	ENDS
;	COMDAT xdata
xdata	SEGMENT
$stateUnwindMap$PMCCS_Clone_X DD 0ffffffffH
	DD	00H
	DD	0ffffffffH
	DD	00H
xdata	ENDS
;	COMDAT CONST
CONST	SEGMENT
$cppxdata$PMCCS_Clone_X DD 019930522H
	DD	02H
	DD	imagerel $stateUnwindMap$PMCCS_Clone_X
	DD	01H
	DD	imagerel $tryMap$PMCCS_Clone_X
	DD	06H
	DD	imagerel $ip2state$PMCCS_Clone_X
	DD	020H
	DD	00H
	DD	00H
CONST	ENDS
;	COMDAT xdata
xdata	SEGMENT
$unwind$PMCCS_Clone_X DD 020f19H
	DD	030025206H
	DD	imagerel __CxxFrameHandler3
	DD	imagerel $cppxdata$PMCCS_Clone_X
xdata	ENDS
;	COMDAT xdata
xdata	SEGMENT
$unwind$PMCCS_ToByteArray$catch$0 DD 020a19H
	DD	05006320aH
	DD	imagerel __CxxFrameHandler3
	DD	imagerel $cppxdata$PMCCS_ToByteArray
xdata	ENDS
;	COMDAT xdata
xdata	SEGMENT
$ip2state$PMCCS_ToByteArray DD imagerel PMCCS_ToByteArray
	DD	0ffffffffH
	DD	imagerel PMCCS_ToByteArray+33
	DD	00H
	DD	imagerel PMCCS_ToByteArray+67
	DD	0ffffffffH
	DD	imagerel PMCCS_ToByteArray+71
	DD	00H
	DD	imagerel PMCCS_ToByteArray$catch$0+13
	DD	01H
	DD	imagerel PMCCS_ToByteArray$catch$0+23
	DD	00H
xdata	ENDS
;	COMDAT xdata
xdata	SEGMENT
$handlerMap$0$PMCCS_ToByteArray DD 09H
	DD	imagerel ??_R0?AVException@Internal@Core@Math@Palmtree@@@8
	DD	028H
	DD	imagerel PMCCS_ToByteArray$catch$0
	DD	038H
xdata	ENDS
;	COMDAT xdata
xdata	SEGMENT
$tryMap$PMCCS_ToByteArray DD 00H
	DD	00H
	DD	01H
	DD	01H
	DD	imagerel $handlerMap$0$PMCCS_ToByteArray
xdata	ENDS
;	COMDAT xdata
xdata	SEGMENT
$stateUnwindMap$PMCCS_ToByteArray DD 0ffffffffH
	DD	00H
	DD	0ffffffffH
	DD	00H
xdata	ENDS
;	COMDAT CONST
CONST	SEGMENT
$cppxdata$PMCCS_ToByteArray DD 019930522H
	DD	02H
	DD	imagerel $stateUnwindMap$PMCCS_ToByteArray
	DD	01H
	DD	imagerel $tryMap$PMCCS_ToByteArray
	DD	06H
	DD	imagerel $ip2state$PMCCS_ToByteArray
	DD	020H
	DD	00H
	DD	00H
CONST	ENDS
;	COMDAT xdata
xdata	SEGMENT
$unwind$PMCCS_ToByteArray DD 020f19H
	DD	030025206H
	DD	imagerel __CxxFrameHandler3
	DD	imagerel $cppxdata$PMCCS_ToByteArray
xdata	ENDS
;	COMDAT xdata
xdata	SEGMENT
$unwind$PMCCS_FromByteArray$catch$0 DD 020a19H
	DD	05006320aH
	DD	imagerel __CxxFrameHandler3
	DD	imagerel $cppxdata$PMCCS_FromByteArray
xdata	ENDS
;	COMDAT xdata
xdata	SEGMENT
$ip2state$PMCCS_FromByteArray DD imagerel PMCCS_FromByteArray
	DD	0ffffffffH
	DD	imagerel PMCCS_FromByteArray+33
	DD	00H
	DD	imagerel PMCCS_FromByteArray+48
	DD	0ffffffffH
	DD	imagerel PMCCS_FromByteArray+52
	DD	00H
	DD	imagerel PMCCS_FromByteArray$catch$0+13
	DD	01H
	DD	imagerel PMCCS_FromByteArray$catch$0+23
	DD	00H
xdata	ENDS
;	COMDAT xdata
xdata	SEGMENT
$handlerMap$0$PMCCS_FromByteArray DD 09H
	DD	imagerel ??_R0?AVException@Internal@Core@Math@Palmtree@@@8
	DD	028H
	DD	imagerel PMCCS_FromByteArray$catch$0
	DD	038H
xdata	ENDS
;	COMDAT xdata
xdata	SEGMENT
$tryMap$PMCCS_FromByteArray DD 00H
	DD	00H
	DD	01H
	DD	01H
	DD	imagerel $handlerMap$0$PMCCS_FromByteArray
xdata	ENDS
;	COMDAT xdata
xdata	SEGMENT
$stateUnwindMap$PMCCS_FromByteArray DD 0ffffffffH
	DD	00H
	DD	0ffffffffH
	DD	00H
xdata	ENDS
;	COMDAT CONST
CONST	SEGMENT
$cppxdata$PMCCS_FromByteArray DD 019930522H
	DD	02H
	DD	imagerel $stateUnwindMap$PMCCS_FromByteArray
	DD	01H
	DD	imagerel $tryMap$PMCCS_FromByteArray
	DD	06H
	DD	imagerel $ip2state$PMCCS_FromByteArray
	DD	020H
	DD	00H
	DD	00H
CONST	ENDS
;	COMDAT xdata
xdata	SEGMENT
$unwind$PMCCS_FromByteArray DD 020f19H
	DD	030025206H
	DD	imagerel __CxxFrameHandler3
	DD	imagerel $cppxdata$PMCCS_FromByteArray
xdata	ENDS
;	COMDAT xdata
xdata	SEGMENT
$unwind$PMCCS_GetConstantValue_I$catch$0 DD 020a19H
	DD	05006320aH
	DD	imagerel __CxxFrameHandler3
	DD	imagerel $cppxdata$PMCCS_GetConstantValue_I
xdata	ENDS
;	COMDAT xdata
xdata	SEGMENT
$ip2state$PMCCS_GetConstantValue_I DD imagerel PMCCS_GetConstantValue_I
	DD	0ffffffffH
	DD	imagerel PMCCS_GetConstantValue_I+32
	DD	00H
	DD	imagerel PMCCS_GetConstantValue_I+44
	DD	0ffffffffH
	DD	imagerel PMCCS_GetConstantValue_I+48
	DD	00H
	DD	imagerel PMCCS_GetConstantValue_I$catch$0+13
	DD	01H
	DD	imagerel PMCCS_GetConstantValue_I$catch$0+23
	DD	00H
xdata	ENDS
;	COMDAT xdata
xdata	SEGMENT
$handlerMap$0$PMCCS_GetConstantValue_I DD 09H
	DD	imagerel ??_R0?AVException@Internal@Core@Math@Palmtree@@@8
	DD	028H
	DD	imagerel PMCCS_GetConstantValue_I$catch$0
	DD	038H
xdata	ENDS
;	COMDAT xdata
xdata	SEGMENT
$tryMap$PMCCS_GetConstantValue_I DD 00H
	DD	00H
	DD	01H
	DD	01H
	DD	imagerel $handlerMap$0$PMCCS_GetConstantValue_I
xdata	ENDS
;	COMDAT xdata
xdata	SEGMENT
$stateUnwindMap$PMCCS_GetConstantValue_I DD 0ffffffffH
	DD	00H
	DD	0ffffffffH
	DD	00H
xdata	ENDS
;	COMDAT CONST
CONST	SEGMENT
$cppxdata$PMCCS_GetConstantValue_I DD 019930522H
	DD	02H
	DD	imagerel $stateUnwindMap$PMCCS_GetConstantValue_I
	DD	01H
	DD	imagerel $tryMap$PMCCS_GetConstantValue_I
	DD	06H
	DD	imagerel $ip2state$PMCCS_GetConstantValue_I
	DD	020H
	DD	00H
	DD	00H
CONST	ENDS
;	COMDAT xdata
xdata	SEGMENT
$unwind$PMCCS_GetConstantValue_I DD 020f19H
	DD	030025206H
	DD	imagerel __CxxFrameHandler3
	DD	imagerel $cppxdata$PMCCS_GetConstantValue_I
xdata	ENDS
;	COMDAT xdata
xdata	SEGMENT
$unwind$PMCCS_Dispose$catch$0 DD 020a19H
	DD	05006320aH
	DD	imagerel __CxxFrameHandler3
	DD	imagerel $cppxdata$PMCCS_Dispose
xdata	ENDS
;	COMDAT xdata
xdata	SEGMENT
$ip2state$PMCCS_Dispose DD imagerel PMCCS_Dispose
	DD	0ffffffffH
	DD	imagerel PMCCS_Dispose+26
	DD	00H
	DD	imagerel PMCCS_Dispose+35
	DD	0ffffffffH
	DD	imagerel PMCCS_Dispose+39
	DD	00H
	DD	imagerel PMCCS_Dispose$catch$0+13
	DD	01H
	DD	imagerel PMCCS_Dispose$catch$0+23
	DD	00H
xdata	ENDS
;	COMDAT xdata
xdata	SEGMENT
$handlerMap$0$PMCCS_Dispose DD 09H
	DD	imagerel ??_R0?AVException@Internal@Core@Math@Palmtree@@@8
	DD	028H
	DD	imagerel PMCCS_Dispose$catch$0
	DD	038H
xdata	ENDS
;	COMDAT xdata
xdata	SEGMENT
$tryMap$PMCCS_Dispose DD 00H
	DD	00H
	DD	01H
	DD	01H
	DD	imagerel $handlerMap$0$PMCCS_Dispose
xdata	ENDS
;	COMDAT xdata
xdata	SEGMENT
$stateUnwindMap$PMCCS_Dispose DD 0ffffffffH
	DD	00H
	DD	0ffffffffH
	DD	00H
xdata	ENDS
;	COMDAT CONST
CONST	SEGMENT
$cppxdata$PMCCS_Dispose DD 019930522H
	DD	02H
	DD	imagerel $stateUnwindMap$PMCCS_Dispose
	DD	01H
	DD	imagerel $tryMap$PMCCS_Dispose
	DD	06H
	DD	imagerel $ip2state$PMCCS_Dispose
	DD	020H
	DD	00H
	DD	00H
CONST	ENDS
;	COMDAT xdata
xdata	SEGMENT
$unwind$PMCCS_Dispose DD 010d19H
	DD	06204H
	DD	imagerel __CxxFrameHandler3
	DD	imagerel $cppxdata$PMCCS_Dispose
xdata	ENDS
;	COMDAT xdata
xdata	SEGMENT
$unwind$PMCCS_From_L$catch$0 DD 020a19H
	DD	05006320aH
	DD	imagerel __CxxFrameHandler3
	DD	imagerel $cppxdata$PMCCS_From_L
xdata	ENDS
;	COMDAT xdata
xdata	SEGMENT
$ip2state$PMCCS_From_L DD imagerel PMCCS_From_L
	DD	0ffffffffH
	DD	imagerel PMCCS_From_L+32
	DD	00H
	DD	imagerel PMCCS_From_L+44
	DD	0ffffffffH
	DD	imagerel PMCCS_From_L+48
	DD	00H
	DD	imagerel PMCCS_From_L$catch$0+13
	DD	01H
	DD	imagerel PMCCS_From_L$catch$0+23
	DD	00H
xdata	ENDS
;	COMDAT xdata
xdata	SEGMENT
$handlerMap$0$PMCCS_From_L DD 09H
	DD	imagerel ??_R0?AVException@Internal@Core@Math@Palmtree@@@8
	DD	028H
	DD	imagerel PMCCS_From_L$catch$0
	DD	038H
xdata	ENDS
;	COMDAT xdata
xdata	SEGMENT
$tryMap$PMCCS_From_L DD 00H
	DD	00H
	DD	01H
	DD	01H
	DD	imagerel $handlerMap$0$PMCCS_From_L
xdata	ENDS
;	COMDAT xdata
xdata	SEGMENT
$stateUnwindMap$PMCCS_From_L DD 0ffffffffH
	DD	00H
	DD	0ffffffffH
	DD	00H
xdata	ENDS
;	COMDAT CONST
CONST	SEGMENT
$cppxdata$PMCCS_From_L DD 019930522H
	DD	02H
	DD	imagerel $stateUnwindMap$PMCCS_From_L
	DD	01H
	DD	imagerel $tryMap$PMCCS_From_L
	DD	06H
	DD	imagerel $ip2state$PMCCS_From_L
	DD	020H
	DD	00H
	DD	00H
CONST	ENDS
;	COMDAT xdata
xdata	SEGMENT
$unwind$PMCCS_From_L DD 020f19H
	DD	030025206H
	DD	imagerel __CxxFrameHandler3
	DD	imagerel $cppxdata$PMCCS_From_L
xdata	ENDS
;	COMDAT xdata
xdata	SEGMENT
$unwind$PMCCS_From_I$catch$0 DD 020a19H
	DD	05006320aH
	DD	imagerel __CxxFrameHandler3
	DD	imagerel $cppxdata$PMCCS_From_I
xdata	ENDS
;	COMDAT xdata
xdata	SEGMENT
$ip2state$PMCCS_From_I DD imagerel PMCCS_From_I
	DD	0ffffffffH
	DD	imagerel PMCCS_From_I+32
	DD	00H
	DD	imagerel PMCCS_From_I+44
	DD	0ffffffffH
	DD	imagerel PMCCS_From_I+48
	DD	00H
	DD	imagerel PMCCS_From_I$catch$0+13
	DD	01H
	DD	imagerel PMCCS_From_I$catch$0+23
	DD	00H
xdata	ENDS
;	COMDAT xdata
xdata	SEGMENT
$handlerMap$0$PMCCS_From_I DD 09H
	DD	imagerel ??_R0?AVException@Internal@Core@Math@Palmtree@@@8
	DD	028H
	DD	imagerel PMCCS_From_I$catch$0
	DD	038H
xdata	ENDS
;	COMDAT xdata
xdata	SEGMENT
$tryMap$PMCCS_From_I DD 00H
	DD	00H
	DD	01H
	DD	01H
	DD	imagerel $handlerMap$0$PMCCS_From_I
xdata	ENDS
;	COMDAT xdata
xdata	SEGMENT
$stateUnwindMap$PMCCS_From_I DD 0ffffffffH
	DD	00H
	DD	0ffffffffH
	DD	00H
xdata	ENDS
;	COMDAT CONST
CONST	SEGMENT
$cppxdata$PMCCS_From_I DD 019930522H
	DD	02H
	DD	imagerel $stateUnwindMap$PMCCS_From_I
	DD	01H
	DD	imagerel $tryMap$PMCCS_From_I
	DD	06H
	DD	imagerel $ip2state$PMCCS_From_I
	DD	020H
	DD	00H
	DD	00H
CONST	ENDS
;	COMDAT xdata
xdata	SEGMENT
$unwind$PMCCS_From_I DD 020f19H
	DD	030025206H
	DD	imagerel __CxxFrameHandler3
	DD	imagerel $cppxdata$PMCCS_From_I
xdata	ENDS
;	COMDAT xdata
xdata	SEGMENT
$unwind$PMCCS_GET_HASH_CODE$catch$0 DD 010619H
	DD	05006H
	DD	imagerel __CxxFrameHandler3
	DD	imagerel $cppxdata$PMCCS_GET_HASH_CODE
xdata	ENDS
;	COMDAT xdata
xdata	SEGMENT
$ip2state$PMCCS_GET_HASH_CODE DD imagerel PMCCS_GET_HASH_CODE
	DD	0ffffffffH
	DD	imagerel PMCCS_GET_HASH_CODE+32
	DD	00H
	DD	imagerel PMCCS_GET_HASH_CODE+40
	DD	0ffffffffH
	DD	imagerel PMCCS_GET_HASH_CODE+44
	DD	00H
	DD	imagerel PMCCS_GET_HASH_CODE$catch$0+9
	DD	01H
	DD	imagerel PMCCS_GET_HASH_CODE$catch$0+19
	DD	00H
xdata	ENDS
;	COMDAT xdata
xdata	SEGMENT
$handlerMap$0$PMCCS_GET_HASH_CODE DD 09H
	DD	imagerel ??_R0?AVException@Internal@Core@Math@Palmtree@@@8
	DD	08H
	DD	imagerel PMCCS_GET_HASH_CODE$catch$0
	DD	018H
xdata	ENDS
;	COMDAT xdata
xdata	SEGMENT
$tryMap$PMCCS_GET_HASH_CODE DD 00H
	DD	00H
	DD	01H
	DD	01H
	DD	imagerel $handlerMap$0$PMCCS_GET_HASH_CODE
xdata	ENDS
;	COMDAT xdata
xdata	SEGMENT
$stateUnwindMap$PMCCS_GET_HASH_CODE DD 0ffffffffH
	DD	00H
	DD	0ffffffffH
	DD	00H
xdata	ENDS
;	COMDAT CONST
CONST	SEGMENT
$cppxdata$PMCCS_GET_HASH_CODE DD 019930522H
	DD	02H
	DD	imagerel $stateUnwindMap$PMCCS_GET_HASH_CODE
	DD	01H
	DD	imagerel $tryMap$PMCCS_GET_HASH_CODE
	DD	06H
	DD	imagerel $ip2state$PMCCS_GET_HASH_CODE
	DD	00H
	DD	00H
	DD	00H
CONST	ENDS
;	COMDAT xdata
xdata	SEGMENT
$unwind$PMCCS_GET_HASH_CODE DD 010c19H
	DD	02204H
	DD	imagerel __CxxFrameHandler3
	DD	imagerel $cppxdata$PMCCS_GET_HASH_CODE
xdata	ENDS
;	COMDAT xdata
xdata	SEGMENT
$unwind$PMCCS_IS_ZERO$catch$0 DD 010619H
	DD	05006H
	DD	imagerel __CxxFrameHandler3
	DD	imagerel $cppxdata$PMCCS_IS_ZERO
xdata	ENDS
;	COMDAT xdata
xdata	SEGMENT
$ip2state$PMCCS_IS_ZERO DD imagerel PMCCS_IS_ZERO
	DD	0ffffffffH
	DD	imagerel PMCCS_IS_ZERO+32
	DD	00H
	DD	imagerel PMCCS_IS_ZERO+44
	DD	0ffffffffH
	DD	imagerel PMCCS_IS_ZERO+48
	DD	00H
	DD	imagerel PMCCS_IS_ZERO$catch$0+9
	DD	01H
	DD	imagerel PMCCS_IS_ZERO$catch$0+19
	DD	00H
xdata	ENDS
;	COMDAT xdata
xdata	SEGMENT
$handlerMap$0$PMCCS_IS_ZERO DD 09H
	DD	imagerel ??_R0?AVException@Internal@Core@Math@Palmtree@@@8
	DD	08H
	DD	imagerel PMCCS_IS_ZERO$catch$0
	DD	018H
xdata	ENDS
;	COMDAT xdata
xdata	SEGMENT
$tryMap$PMCCS_IS_ZERO DD 00H
	DD	00H
	DD	01H
	DD	01H
	DD	imagerel $handlerMap$0$PMCCS_IS_ZERO
xdata	ENDS
;	COMDAT xdata
xdata	SEGMENT
$stateUnwindMap$PMCCS_IS_ZERO DD 0ffffffffH
	DD	00H
	DD	0ffffffffH
	DD	00H
xdata	ENDS
;	COMDAT CONST
CONST	SEGMENT
$cppxdata$PMCCS_IS_ZERO DD 019930522H
	DD	02H
	DD	imagerel $stateUnwindMap$PMCCS_IS_ZERO
	DD	01H
	DD	imagerel $tryMap$PMCCS_IS_ZERO
	DD	06H
	DD	imagerel $ip2state$PMCCS_IS_ZERO
	DD	00H
	DD	00H
	DD	00H
CONST	ENDS
;	COMDAT xdata
xdata	SEGMENT
$unwind$PMCCS_IS_ZERO DD 010c19H
	DD	02204H
	DD	imagerel __CxxFrameHandler3
	DD	imagerel $cppxdata$PMCCS_IS_ZERO
xdata	ENDS
;	COMDAT xdata
xdata	SEGMENT
$unwind$PMCCS_IS_POWER_OF_TWO$catch$0 DD 010619H
	DD	05006H
	DD	imagerel __CxxFrameHandler3
	DD	imagerel $cppxdata$PMCCS_IS_POWER_OF_TWO
xdata	ENDS
;	COMDAT xdata
xdata	SEGMENT
$ip2state$PMCCS_IS_POWER_OF_TWO DD imagerel PMCCS_IS_POWER_OF_TWO
	DD	0ffffffffH
	DD	imagerel PMCCS_IS_POWER_OF_TWO+32
	DD	00H
	DD	imagerel PMCCS_IS_POWER_OF_TWO+47
	DD	0ffffffffH
	DD	imagerel PMCCS_IS_POWER_OF_TWO+51
	DD	00H
	DD	imagerel PMCCS_IS_POWER_OF_TWO$catch$0+9
	DD	01H
	DD	imagerel PMCCS_IS_POWER_OF_TWO$catch$0+19
	DD	00H
xdata	ENDS
;	COMDAT xdata
xdata	SEGMENT
$handlerMap$0$PMCCS_IS_POWER_OF_TWO DD 09H
	DD	imagerel ??_R0?AVException@Internal@Core@Math@Palmtree@@@8
	DD	08H
	DD	imagerel PMCCS_IS_POWER_OF_TWO$catch$0
	DD	018H
xdata	ENDS
;	COMDAT xdata
xdata	SEGMENT
$tryMap$PMCCS_IS_POWER_OF_TWO DD 00H
	DD	00H
	DD	01H
	DD	01H
	DD	imagerel $handlerMap$0$PMCCS_IS_POWER_OF_TWO
xdata	ENDS
;	COMDAT xdata
xdata	SEGMENT
$stateUnwindMap$PMCCS_IS_POWER_OF_TWO DD 0ffffffffH
	DD	00H
	DD	0ffffffffH
	DD	00H
xdata	ENDS
;	COMDAT CONST
CONST	SEGMENT
$cppxdata$PMCCS_IS_POWER_OF_TWO DD 019930522H
	DD	02H
	DD	imagerel $stateUnwindMap$PMCCS_IS_POWER_OF_TWO
	DD	01H
	DD	imagerel $tryMap$PMCCS_IS_POWER_OF_TWO
	DD	06H
	DD	imagerel $ip2state$PMCCS_IS_POWER_OF_TWO
	DD	00H
	DD	00H
	DD	00H
CONST	ENDS
;	COMDAT xdata
xdata	SEGMENT
$unwind$PMCCS_IS_POWER_OF_TWO DD 010c19H
	DD	02204H
	DD	imagerel __CxxFrameHandler3
	DD	imagerel $cppxdata$PMCCS_IS_POWER_OF_TWO
xdata	ENDS
;	COMDAT xdata
xdata	SEGMENT
$unwind$PMCCS_IS_ONE$catch$0 DD 010619H
	DD	05006H
	DD	imagerel __CxxFrameHandler3
	DD	imagerel $cppxdata$PMCCS_IS_ONE
xdata	ENDS
;	COMDAT xdata
xdata	SEGMENT
$ip2state$PMCCS_IS_ONE DD imagerel PMCCS_IS_ONE
	DD	0ffffffffH
	DD	imagerel PMCCS_IS_ONE+32
	DD	00H
	DD	imagerel PMCCS_IS_ONE+46
	DD	0ffffffffH
	DD	imagerel PMCCS_IS_ONE+50
	DD	00H
	DD	imagerel PMCCS_IS_ONE$catch$0+9
	DD	01H
	DD	imagerel PMCCS_IS_ONE$catch$0+19
	DD	00H
xdata	ENDS
;	COMDAT xdata
xdata	SEGMENT
$handlerMap$0$PMCCS_IS_ONE DD 09H
	DD	imagerel ??_R0?AVException@Internal@Core@Math@Palmtree@@@8
	DD	08H
	DD	imagerel PMCCS_IS_ONE$catch$0
	DD	018H
xdata	ENDS
;	COMDAT xdata
xdata	SEGMENT
$tryMap$PMCCS_IS_ONE DD 00H
	DD	00H
	DD	01H
	DD	01H
	DD	imagerel $handlerMap$0$PMCCS_IS_ONE
xdata	ENDS
;	COMDAT xdata
xdata	SEGMENT
$stateUnwindMap$PMCCS_IS_ONE DD 0ffffffffH
	DD	00H
	DD	0ffffffffH
	DD	00H
xdata	ENDS
;	COMDAT CONST
CONST	SEGMENT
$cppxdata$PMCCS_IS_ONE DD 019930522H
	DD	02H
	DD	imagerel $stateUnwindMap$PMCCS_IS_ONE
	DD	01H
	DD	imagerel $tryMap$PMCCS_IS_ONE
	DD	06H
	DD	imagerel $ip2state$PMCCS_IS_ONE
	DD	00H
	DD	00H
	DD	00H
CONST	ENDS
;	COMDAT xdata
xdata	SEGMENT
$unwind$PMCCS_IS_ONE DD 010c19H
	DD	02204H
	DD	imagerel __CxxFrameHandler3
	DD	imagerel $cppxdata$PMCCS_IS_ONE
xdata	ENDS
;	COMDAT xdata
xdata	SEGMENT
$unwind$PMCCS_IS_EVEN$catch$0 DD 010619H
	DD	05006H
	DD	imagerel __CxxFrameHandler3
	DD	imagerel $cppxdata$PMCCS_IS_EVEN
xdata	ENDS
;	COMDAT xdata
xdata	SEGMENT
$ip2state$PMCCS_IS_EVEN DD imagerel PMCCS_IS_EVEN
	DD	0ffffffffH
	DD	imagerel PMCCS_IS_EVEN+32
	DD	00H
	DD	imagerel PMCCS_IS_EVEN+47
	DD	0ffffffffH
	DD	imagerel PMCCS_IS_EVEN+51
	DD	00H
	DD	imagerel PMCCS_IS_EVEN$catch$0+9
	DD	01H
	DD	imagerel PMCCS_IS_EVEN$catch$0+19
	DD	00H
xdata	ENDS
;	COMDAT xdata
xdata	SEGMENT
$handlerMap$0$PMCCS_IS_EVEN DD 09H
	DD	imagerel ??_R0?AVException@Internal@Core@Math@Palmtree@@@8
	DD	08H
	DD	imagerel PMCCS_IS_EVEN$catch$0
	DD	018H
xdata	ENDS
;	COMDAT xdata
xdata	SEGMENT
$tryMap$PMCCS_IS_EVEN DD 00H
	DD	00H
	DD	01H
	DD	01H
	DD	imagerel $handlerMap$0$PMCCS_IS_EVEN
xdata	ENDS
;	COMDAT xdata
xdata	SEGMENT
$stateUnwindMap$PMCCS_IS_EVEN DD 0ffffffffH
	DD	00H
	DD	0ffffffffH
	DD	00H
xdata	ENDS
;	COMDAT CONST
CONST	SEGMENT
$cppxdata$PMCCS_IS_EVEN DD 019930522H
	DD	02H
	DD	imagerel $stateUnwindMap$PMCCS_IS_EVEN
	DD	01H
	DD	imagerel $tryMap$PMCCS_IS_EVEN
	DD	06H
	DD	imagerel $ip2state$PMCCS_IS_EVEN
	DD	00H
	DD	00H
	DD	00H
CONST	ENDS
;	COMDAT xdata
xdata	SEGMENT
$unwind$PMCCS_IS_EVEN DD 010c19H
	DD	02204H
	DD	imagerel __CxxFrameHandler3
	DD	imagerel $cppxdata$PMCCS_IS_EVEN
xdata	ENDS
;	COMDAT xdata
xdata	SEGMENT
$unwind$PMCCS_UINT_Initialize DD 010401H
	DD	04204H
xdata	ENDS
; Function compile flags: /Ogtpy
; File z:\sources\lunor\repos\rougemeilland\palmtree.math.core.uint\palmtree.math.core.uint\pmc_interface_csharp.cpp
;	COMDAT PMCCS_ModPow_X_X_X
_TEXT	SEGMENT
$T1 = 32
ex$2 = 40
v$ = 64
e$ = 72
m$ = 80
$T3 = 88
r$ = 88
PMCCS_ModPow_X_X_X PROC					; COMDAT

; 1232 :     {

$LN13:
  00000	40 53		 push	 rbx
  00002	48 83 ec 30	 sub	 rsp, 48			; 00000030H
  00006	48 c7 44 24 20
	fe ff ff ff	 mov	 QWORD PTR $T1[rsp], -2
  0000f	49 8b d9	 mov	 rbx, r9

; 1233 :         if (r == nullptr)

  00012	4d 85 c9	 test	 r9, r9
  00015	75 0a		 jne	 SHORT $LN2@PMCCS_ModP

; 1234 :             return (PMC_STATUS_ARGUMENT_NULL_ERROR);

  00017	41 8d 41 fe	 lea	 eax, QWORD PTR [r9-2]

; 1243 :         }
; 1244 :     }

  0001b	48 83 c4 30	 add	 rsp, 48			; 00000030H
  0001f	5b		 pop	 rbx
  00020	c3		 ret	 0
$LN2@PMCCS_ModP:

; 1235 :         try
; 1236 :         {
; 1237 :             *r = PMC_ModPow_X_X_X(v, e, m);

  00021	e8 00 00 00 00	 call	 ?PMC_ModPow_X_X_X@Internal@Core@Math@Palmtree@@YAPEAU__tag_PMC_HANDLE_UINT@1234@PEAU51234@00@Z ; Palmtree::Math::Core::Internal::PMC_ModPow_X_X_X
  00026	48 89 03	 mov	 QWORD PTR [rbx], rax

; 1238 :             return (PMC_STATUS_OK);

  00029	33 c0		 xor	 eax, eax
  0002b	eb 04		 jmp	 SHORT $LN7@PMCCS_ModP
$LN8@PMCCS_ModP:

; 1239 :         }
; 1240 :         catch (const Palmtree::Math::Core::Internal::Exception& ex)
; 1241 :         {
; 1242 :             return (ex.GetStatusCode());

  0002d	8b 44 24 58	 mov	 eax, DWORD PTR $T3[rsp]
$LN7@PMCCS_ModP:

; 1243 :         }
; 1244 :     }

  00031	48 83 c4 30	 add	 rsp, 48			; 00000030H
  00035	5b		 pop	 rbx
  00036	c3		 ret	 0
  00037	cc		 int	 3
PMCCS_ModPow_X_X_X ENDP
_TEXT	ENDS
;	COMDAT text$x
text$x	SEGMENT
$T1 = 32
ex$2 = 40
v$ = 64
e$ = 72
m$ = 80
$T3 = 88
r$ = 88
PMCCS_ModPow_X_X_X$catch$0 PROC

; 1239 :         }
; 1240 :         catch (const Palmtree::Math::Core::Internal::Exception& ex)
; 1241 :         {

  00000	48 89 54 24 10	 mov	 QWORD PTR [rsp+16], rdx
  00005	55		 push	 rbp
  00006	48 83 ec 20	 sub	 rsp, 32			; 00000020H
  0000a	48 8b ea	 mov	 rbp, rdx
__catch$PMCCS_ModPow_X_X_X$0:
; File z:\sources\lunor\repos\rougemeilland\palmtree.math.core.uint\palmtree.math.core.uint\pmc_exception.h

; 75   :             return (_code);

  0000d	48 8b 45 28	 mov	 rax, QWORD PTR ex$2[rbp]
  00011	8b 48 18	 mov	 ecx, DWORD PTR [rax+24]
  00014	89 4d 58	 mov	 DWORD PTR $T3[rbp], ecx
; File z:\sources\lunor\repos\rougemeilland\palmtree.math.core.uint\palmtree.math.core.uint\pmc_interface_csharp.cpp

; 1239 :         }
; 1240 :         catch (const Palmtree::Math::Core::Internal::Exception& ex)
; 1241 :         {
; 1242 :             return (ex.GetStatusCode());

  00017	48 8d 05 00 00
	00 00		 lea	 rax, $LN8@PMCCS_ModP
  0001e	48 83 c4 20	 add	 rsp, 32			; 00000020H
  00022	5d		 pop	 rbp
  00023	c3		 ret	 0
  00024	cc		 int	 3
PMCCS_ModPow_X_X_X$catch$0 ENDP
text$x	ENDS
; Function compile flags: /Ogtpy
; File z:\sources\lunor\repos\rougemeilland\palmtree.math.core.uint\palmtree.math.core.uint\pmc_exception.h
; File z:\sources\lunor\repos\rougemeilland\palmtree.math.core.uint\palmtree.math.core.uint\pmc_interface_csharp.cpp
;	COMDAT text$x
text$x	SEGMENT
$T1 = 32
ex$2 = 40
v$ = 64
e$ = 72
m$ = 80
$T3 = 88
r$ = 88
PMCCS_ModPow_X_X_X$catch$0 PROC

; 1241 :         {

  00000	48 89 54 24 10	 mov	 QWORD PTR [rsp+16], rdx
  00005	55		 push	 rbp
  00006	48 83 ec 20	 sub	 rsp, 32			; 00000020H
  0000a	48 8b ea	 mov	 rbp, rdx
__catch$PMCCS_ModPow_X_X_X$0:
; File z:\sources\lunor\repos\rougemeilland\palmtree.math.core.uint\palmtree.math.core.uint\pmc_exception.h

; 75   :             return (_code);

  0000d	48 8b 45 28	 mov	 rax, QWORD PTR ex$2[rbp]
  00011	8b 48 18	 mov	 ecx, DWORD PTR [rax+24]
  00014	89 4d 58	 mov	 DWORD PTR $T3[rbp], ecx
; File z:\sources\lunor\repos\rougemeilland\palmtree.math.core.uint\palmtree.math.core.uint\pmc_interface_csharp.cpp

; 1242 :             return (ex.GetStatusCode());

  00017	48 8d 05 00 00
	00 00		 lea	 rax, $LN8@PMCCS_ModP
  0001e	48 83 c4 20	 add	 rsp, 32			; 00000020H
  00022	5d		 pop	 rbp
  00023	c3		 ret	 0
  00024	cc		 int	 3
PMCCS_ModPow_X_X_X$catch$0 ENDP
text$x	ENDS
; Function compile flags: /Ogtpy
; File z:\sources\lunor\repos\rougemeilland\palmtree.math.core.uint\palmtree.math.core.uint\pmc_interface_csharp.cpp
;	COMDAT PMCCS_Pow_X_L
_TEXT	SEGMENT
$T1 = 32
ex$2 = 40
x$ = 64
n$ = 72
$T3 = 80
v$ = 80
PMCCS_Pow_X_L PROC					; COMDAT

; 1217 :     {

$LN13:
  00000	40 53		 push	 rbx
  00002	48 83 ec 30	 sub	 rsp, 48			; 00000030H
  00006	48 c7 44 24 20
	fe ff ff ff	 mov	 QWORD PTR $T1[rsp], -2
  0000f	49 8b d8	 mov	 rbx, r8

; 1218 :         if (v == nullptr)

  00012	4d 85 c0	 test	 r8, r8
  00015	75 0a		 jne	 SHORT $LN2@PMCCS_Pow_

; 1219 :             return (PMC_STATUS_ARGUMENT_NULL_ERROR);

  00017	41 8d 40 fe	 lea	 eax, QWORD PTR [r8-2]

; 1228 :         }
; 1229 :     }

  0001b	48 83 c4 30	 add	 rsp, 48			; 00000030H
  0001f	5b		 pop	 rbx
  00020	c3		 ret	 0
$LN2@PMCCS_Pow_:

; 1220 :         try
; 1221 :         {
; 1222 :             *v = PMC_Pow_X_L(x, n);

  00021	e8 00 00 00 00	 call	 ?PMC_Pow_X_L@Internal@Core@Math@Palmtree@@YAPEAU__tag_PMC_HANDLE_UINT@1234@PEAU51234@_K@Z ; Palmtree::Math::Core::Internal::PMC_Pow_X_L
  00026	48 89 03	 mov	 QWORD PTR [rbx], rax

; 1223 :             return (PMC_STATUS_OK);

  00029	33 c0		 xor	 eax, eax
  0002b	eb 04		 jmp	 SHORT $LN7@PMCCS_Pow_
$LN8@PMCCS_Pow_:

; 1224 :         }
; 1225 :         catch (const Palmtree::Math::Core::Internal::Exception& ex)
; 1226 :         {
; 1227 :             return (ex.GetStatusCode());

  0002d	8b 44 24 50	 mov	 eax, DWORD PTR $T3[rsp]
$LN7@PMCCS_Pow_:

; 1228 :         }
; 1229 :     }

  00031	48 83 c4 30	 add	 rsp, 48			; 00000030H
  00035	5b		 pop	 rbx
  00036	c3		 ret	 0
  00037	cc		 int	 3
PMCCS_Pow_X_L ENDP
_TEXT	ENDS
;	COMDAT text$x
text$x	SEGMENT
$T1 = 32
ex$2 = 40
x$ = 64
n$ = 72
$T3 = 80
v$ = 80
PMCCS_Pow_X_L$catch$0 PROC

; 1224 :         }
; 1225 :         catch (const Palmtree::Math::Core::Internal::Exception& ex)
; 1226 :         {

  00000	48 89 54 24 10	 mov	 QWORD PTR [rsp+16], rdx
  00005	55		 push	 rbp
  00006	48 83 ec 20	 sub	 rsp, 32			; 00000020H
  0000a	48 8b ea	 mov	 rbp, rdx
__catch$PMCCS_Pow_X_L$0:
; File z:\sources\lunor\repos\rougemeilland\palmtree.math.core.uint\palmtree.math.core.uint\pmc_exception.h

; 75   :             return (_code);

  0000d	48 8b 45 28	 mov	 rax, QWORD PTR ex$2[rbp]
  00011	8b 48 18	 mov	 ecx, DWORD PTR [rax+24]
  00014	89 4d 50	 mov	 DWORD PTR $T3[rbp], ecx
; File z:\sources\lunor\repos\rougemeilland\palmtree.math.core.uint\palmtree.math.core.uint\pmc_interface_csharp.cpp

; 1224 :         }
; 1225 :         catch (const Palmtree::Math::Core::Internal::Exception& ex)
; 1226 :         {
; 1227 :             return (ex.GetStatusCode());

  00017	48 8d 05 00 00
	00 00		 lea	 rax, $LN8@PMCCS_Pow_
  0001e	48 83 c4 20	 add	 rsp, 32			; 00000020H
  00022	5d		 pop	 rbp
  00023	c3		 ret	 0
  00024	cc		 int	 3
PMCCS_Pow_X_L$catch$0 ENDP
text$x	ENDS
; Function compile flags: /Ogtpy
; File z:\sources\lunor\repos\rougemeilland\palmtree.math.core.uint\palmtree.math.core.uint\pmc_exception.h
; File z:\sources\lunor\repos\rougemeilland\palmtree.math.core.uint\palmtree.math.core.uint\pmc_interface_csharp.cpp
;	COMDAT text$x
text$x	SEGMENT
$T1 = 32
ex$2 = 40
x$ = 64
n$ = 72
$T3 = 80
v$ = 80
PMCCS_Pow_X_L$catch$0 PROC

; 1226 :         {

  00000	48 89 54 24 10	 mov	 QWORD PTR [rsp+16], rdx
  00005	55		 push	 rbp
  00006	48 83 ec 20	 sub	 rsp, 32			; 00000020H
  0000a	48 8b ea	 mov	 rbp, rdx
__catch$PMCCS_Pow_X_L$0:
; File z:\sources\lunor\repos\rougemeilland\palmtree.math.core.uint\palmtree.math.core.uint\pmc_exception.h

; 75   :             return (_code);

  0000d	48 8b 45 28	 mov	 rax, QWORD PTR ex$2[rbp]
  00011	8b 48 18	 mov	 ecx, DWORD PTR [rax+24]
  00014	89 4d 50	 mov	 DWORD PTR $T3[rbp], ecx
; File z:\sources\lunor\repos\rougemeilland\palmtree.math.core.uint\palmtree.math.core.uint\pmc_interface_csharp.cpp

; 1227 :             return (ex.GetStatusCode());

  00017	48 8d 05 00 00
	00 00		 lea	 rax, $LN8@PMCCS_Pow_
  0001e	48 83 c4 20	 add	 rsp, 32			; 00000020H
  00022	5d		 pop	 rbp
  00023	c3		 ret	 0
  00024	cc		 int	 3
PMCCS_Pow_X_L$catch$0 ENDP
text$x	ENDS
; Function compile flags: /Ogtpy
; File z:\sources\lunor\repos\rougemeilland\palmtree.math.core.uint\palmtree.math.core.uint\pmc_interface_csharp.cpp
;	COMDAT PMCCS_Pow_X_I
_TEXT	SEGMENT
$T1 = 32
ex$2 = 40
x$ = 64
n$ = 72
$T3 = 80
v$ = 80
PMCCS_Pow_X_I PROC					; COMDAT

; 1202 :     {

$LN13:
  00000	40 53		 push	 rbx
  00002	48 83 ec 30	 sub	 rsp, 48			; 00000030H
  00006	48 c7 44 24 20
	fe ff ff ff	 mov	 QWORD PTR $T1[rsp], -2
  0000f	49 8b d8	 mov	 rbx, r8

; 1203 :         if (v == nullptr)

  00012	4d 85 c0	 test	 r8, r8
  00015	75 0a		 jne	 SHORT $LN2@PMCCS_Pow_

; 1204 :             return (PMC_STATUS_ARGUMENT_NULL_ERROR);

  00017	41 8d 40 fe	 lea	 eax, QWORD PTR [r8-2]

; 1213 :         }
; 1214 :     }

  0001b	48 83 c4 30	 add	 rsp, 48			; 00000030H
  0001f	5b		 pop	 rbx
  00020	c3		 ret	 0
$LN2@PMCCS_Pow_:

; 1205 :         try
; 1206 :         {
; 1207 :             *v = PMC_Pow_X_I(x, n);

  00021	e8 00 00 00 00	 call	 ?PMC_Pow_X_I@Internal@Core@Math@Palmtree@@YAPEAU__tag_PMC_HANDLE_UINT@1234@PEAU51234@I@Z ; Palmtree::Math::Core::Internal::PMC_Pow_X_I
  00026	48 89 03	 mov	 QWORD PTR [rbx], rax

; 1208 :             return (PMC_STATUS_OK);

  00029	33 c0		 xor	 eax, eax
  0002b	eb 04		 jmp	 SHORT $LN7@PMCCS_Pow_
$LN8@PMCCS_Pow_:

; 1209 :         }
; 1210 :         catch (const Palmtree::Math::Core::Internal::Exception& ex)
; 1211 :         {
; 1212 :             return (ex.GetStatusCode());

  0002d	8b 44 24 50	 mov	 eax, DWORD PTR $T3[rsp]
$LN7@PMCCS_Pow_:

; 1213 :         }
; 1214 :     }

  00031	48 83 c4 30	 add	 rsp, 48			; 00000030H
  00035	5b		 pop	 rbx
  00036	c3		 ret	 0
  00037	cc		 int	 3
PMCCS_Pow_X_I ENDP
_TEXT	ENDS
;	COMDAT text$x
text$x	SEGMENT
$T1 = 32
ex$2 = 40
x$ = 64
n$ = 72
$T3 = 80
v$ = 80
PMCCS_Pow_X_I$catch$0 PROC

; 1209 :         }
; 1210 :         catch (const Palmtree::Math::Core::Internal::Exception& ex)
; 1211 :         {

  00000	48 89 54 24 10	 mov	 QWORD PTR [rsp+16], rdx
  00005	55		 push	 rbp
  00006	48 83 ec 20	 sub	 rsp, 32			; 00000020H
  0000a	48 8b ea	 mov	 rbp, rdx
__catch$PMCCS_Pow_X_I$0:
; File z:\sources\lunor\repos\rougemeilland\palmtree.math.core.uint\palmtree.math.core.uint\pmc_exception.h

; 75   :             return (_code);

  0000d	48 8b 45 28	 mov	 rax, QWORD PTR ex$2[rbp]
  00011	8b 48 18	 mov	 ecx, DWORD PTR [rax+24]
  00014	89 4d 50	 mov	 DWORD PTR $T3[rbp], ecx
; File z:\sources\lunor\repos\rougemeilland\palmtree.math.core.uint\palmtree.math.core.uint\pmc_interface_csharp.cpp

; 1209 :         }
; 1210 :         catch (const Palmtree::Math::Core::Internal::Exception& ex)
; 1211 :         {
; 1212 :             return (ex.GetStatusCode());

  00017	48 8d 05 00 00
	00 00		 lea	 rax, $LN8@PMCCS_Pow_
  0001e	48 83 c4 20	 add	 rsp, 32			; 00000020H
  00022	5d		 pop	 rbp
  00023	c3		 ret	 0
  00024	cc		 int	 3
PMCCS_Pow_X_I$catch$0 ENDP
text$x	ENDS
; Function compile flags: /Ogtpy
; File z:\sources\lunor\repos\rougemeilland\palmtree.math.core.uint\palmtree.math.core.uint\pmc_exception.h
; File z:\sources\lunor\repos\rougemeilland\palmtree.math.core.uint\palmtree.math.core.uint\pmc_interface_csharp.cpp
;	COMDAT text$x
text$x	SEGMENT
$T1 = 32
ex$2 = 40
x$ = 64
n$ = 72
$T3 = 80
v$ = 80
PMCCS_Pow_X_I$catch$0 PROC

; 1211 :         {

  00000	48 89 54 24 10	 mov	 QWORD PTR [rsp+16], rdx
  00005	55		 push	 rbp
  00006	48 83 ec 20	 sub	 rsp, 32			; 00000020H
  0000a	48 8b ea	 mov	 rbp, rdx
__catch$PMCCS_Pow_X_I$0:
; File z:\sources\lunor\repos\rougemeilland\palmtree.math.core.uint\palmtree.math.core.uint\pmc_exception.h

; 75   :             return (_code);

  0000d	48 8b 45 28	 mov	 rax, QWORD PTR ex$2[rbp]
  00011	8b 48 18	 mov	 ecx, DWORD PTR [rax+24]
  00014	89 4d 50	 mov	 DWORD PTR $T3[rbp], ecx
; File z:\sources\lunor\repos\rougemeilland\palmtree.math.core.uint\palmtree.math.core.uint\pmc_interface_csharp.cpp

; 1212 :             return (ex.GetStatusCode());

  00017	48 8d 05 00 00
	00 00		 lea	 rax, $LN8@PMCCS_Pow_
  0001e	48 83 c4 20	 add	 rsp, 32			; 00000020H
  00022	5d		 pop	 rbp
  00023	c3		 ret	 0
  00024	cc		 int	 3
PMCCS_Pow_X_I$catch$0 ENDP
text$x	ENDS
; Function compile flags: /Ogtpy
; File z:\sources\lunor\repos\rougemeilland\palmtree.math.core.uint\palmtree.math.core.uint\pmc_interface_csharp.cpp
;	COMDAT PMCCS_GreatestCommonDivisor_X_X
_TEXT	SEGMENT
$T1 = 32
ex$2 = 40
u$ = 64
v$ = 72
$T3 = 80
w$ = 80
PMCCS_GreatestCommonDivisor_X_X PROC			; COMDAT

; 1187 :     {

$LN13:
  00000	40 53		 push	 rbx
  00002	48 83 ec 30	 sub	 rsp, 48			; 00000030H
  00006	48 c7 44 24 20
	fe ff ff ff	 mov	 QWORD PTR $T1[rsp], -2
  0000f	49 8b d8	 mov	 rbx, r8

; 1188 :         if (w == nullptr)

  00012	4d 85 c0	 test	 r8, r8
  00015	75 0a		 jne	 SHORT $LN2@PMCCS_Grea

; 1189 :             return (PMC_STATUS_ARGUMENT_NULL_ERROR);

  00017	41 8d 40 fe	 lea	 eax, QWORD PTR [r8-2]

; 1198 :         }
; 1199 :     }

  0001b	48 83 c4 30	 add	 rsp, 48			; 00000030H
  0001f	5b		 pop	 rbx
  00020	c3		 ret	 0
$LN2@PMCCS_Grea:

; 1190 :         try
; 1191 :         {
; 1192 :             *w = PMC_GreatestCommonDivisor_X_X(u, v);

  00021	e8 00 00 00 00	 call	 ?PMC_GreatestCommonDivisor_X_X@Internal@Core@Math@Palmtree@@YAPEAU__tag_PMC_HANDLE_UINT@1234@PEAU51234@0@Z ; Palmtree::Math::Core::Internal::PMC_GreatestCommonDivisor_X_X
  00026	48 89 03	 mov	 QWORD PTR [rbx], rax

; 1193 :             return (PMC_STATUS_OK);

  00029	33 c0		 xor	 eax, eax
  0002b	eb 04		 jmp	 SHORT $LN7@PMCCS_Grea
$LN8@PMCCS_Grea:

; 1194 :         }
; 1195 :         catch (const Palmtree::Math::Core::Internal::Exception& ex)
; 1196 :         {
; 1197 :             return (ex.GetStatusCode());

  0002d	8b 44 24 50	 mov	 eax, DWORD PTR $T3[rsp]
$LN7@PMCCS_Grea:

; 1198 :         }
; 1199 :     }

  00031	48 83 c4 30	 add	 rsp, 48			; 00000030H
  00035	5b		 pop	 rbx
  00036	c3		 ret	 0
  00037	cc		 int	 3
PMCCS_GreatestCommonDivisor_X_X ENDP
_TEXT	ENDS
;	COMDAT text$x
text$x	SEGMENT
$T1 = 32
ex$2 = 40
u$ = 64
v$ = 72
$T3 = 80
w$ = 80
PMCCS_GreatestCommonDivisor_X_X$catch$0 PROC

; 1194 :         }
; 1195 :         catch (const Palmtree::Math::Core::Internal::Exception& ex)
; 1196 :         {

  00000	48 89 54 24 10	 mov	 QWORD PTR [rsp+16], rdx
  00005	55		 push	 rbp
  00006	48 83 ec 20	 sub	 rsp, 32			; 00000020H
  0000a	48 8b ea	 mov	 rbp, rdx
__catch$PMCCS_GreatestCommonDivisor_X_X$0:
; File z:\sources\lunor\repos\rougemeilland\palmtree.math.core.uint\palmtree.math.core.uint\pmc_exception.h

; 75   :             return (_code);

  0000d	48 8b 45 28	 mov	 rax, QWORD PTR ex$2[rbp]
  00011	8b 48 18	 mov	 ecx, DWORD PTR [rax+24]
  00014	89 4d 50	 mov	 DWORD PTR $T3[rbp], ecx
; File z:\sources\lunor\repos\rougemeilland\palmtree.math.core.uint\palmtree.math.core.uint\pmc_interface_csharp.cpp

; 1194 :         }
; 1195 :         catch (const Palmtree::Math::Core::Internal::Exception& ex)
; 1196 :         {
; 1197 :             return (ex.GetStatusCode());

  00017	48 8d 05 00 00
	00 00		 lea	 rax, $LN8@PMCCS_Grea
  0001e	48 83 c4 20	 add	 rsp, 32			; 00000020H
  00022	5d		 pop	 rbp
  00023	c3		 ret	 0
  00024	cc		 int	 3
PMCCS_GreatestCommonDivisor_X_X$catch$0 ENDP
text$x	ENDS
; Function compile flags: /Ogtpy
; File z:\sources\lunor\repos\rougemeilland\palmtree.math.core.uint\palmtree.math.core.uint\pmc_exception.h
; File z:\sources\lunor\repos\rougemeilland\palmtree.math.core.uint\palmtree.math.core.uint\pmc_interface_csharp.cpp
;	COMDAT text$x
text$x	SEGMENT
$T1 = 32
ex$2 = 40
u$ = 64
v$ = 72
$T3 = 80
w$ = 80
PMCCS_GreatestCommonDivisor_X_X$catch$0 PROC

; 1196 :         {

  00000	48 89 54 24 10	 mov	 QWORD PTR [rsp+16], rdx
  00005	55		 push	 rbp
  00006	48 83 ec 20	 sub	 rsp, 32			; 00000020H
  0000a	48 8b ea	 mov	 rbp, rdx
__catch$PMCCS_GreatestCommonDivisor_X_X$0:
; File z:\sources\lunor\repos\rougemeilland\palmtree.math.core.uint\palmtree.math.core.uint\pmc_exception.h

; 75   :             return (_code);

  0000d	48 8b 45 28	 mov	 rax, QWORD PTR ex$2[rbp]
  00011	8b 48 18	 mov	 ecx, DWORD PTR [rax+24]
  00014	89 4d 50	 mov	 DWORD PTR $T3[rbp], ecx
; File z:\sources\lunor\repos\rougemeilland\palmtree.math.core.uint\palmtree.math.core.uint\pmc_interface_csharp.cpp

; 1197 :             return (ex.GetStatusCode());

  00017	48 8d 05 00 00
	00 00		 lea	 rax, $LN8@PMCCS_Grea
  0001e	48 83 c4 20	 add	 rsp, 32			; 00000020H
  00022	5d		 pop	 rbp
  00023	c3		 ret	 0
  00024	cc		 int	 3
PMCCS_GreatestCommonDivisor_X_X$catch$0 ENDP
text$x	ENDS
; Function compile flags: /Ogtpy
; File z:\sources\lunor\repos\rougemeilland\palmtree.math.core.uint\palmtree.math.core.uint\pmc_interface_csharp.cpp
;	COMDAT PMCCS_GreatestCommonDivisor_X_L
_TEXT	SEGMENT
$T1 = 32
ex$2 = 40
u$ = 64
v$ = 72
$T3 = 80
w$ = 80
PMCCS_GreatestCommonDivisor_X_L PROC			; COMDAT

; 1172 :     {

$LN13:
  00000	40 53		 push	 rbx
  00002	48 83 ec 30	 sub	 rsp, 48			; 00000030H
  00006	48 c7 44 24 20
	fe ff ff ff	 mov	 QWORD PTR $T1[rsp], -2
  0000f	49 8b d8	 mov	 rbx, r8

; 1173 :         if (w == nullptr)

  00012	4d 85 c0	 test	 r8, r8
  00015	75 0a		 jne	 SHORT $LN2@PMCCS_Grea

; 1174 :             return (PMC_STATUS_ARGUMENT_NULL_ERROR);

  00017	41 8d 40 fe	 lea	 eax, QWORD PTR [r8-2]

; 1183 :         }
; 1184 :     }

  0001b	48 83 c4 30	 add	 rsp, 48			; 00000030H
  0001f	5b		 pop	 rbx
  00020	c3		 ret	 0
$LN2@PMCCS_Grea:

; 1175 :         try
; 1176 :         {
; 1177 :             *w = PMC_GreatestCommonDivisor_X_L(u, v);

  00021	e8 00 00 00 00	 call	 ?PMC_GreatestCommonDivisor_X_L@Internal@Core@Math@Palmtree@@YAPEAU__tag_PMC_HANDLE_UINT@1234@PEAU51234@_K@Z ; Palmtree::Math::Core::Internal::PMC_GreatestCommonDivisor_X_L
  00026	48 89 03	 mov	 QWORD PTR [rbx], rax

; 1178 :             return (PMC_STATUS_OK);

  00029	33 c0		 xor	 eax, eax
  0002b	eb 04		 jmp	 SHORT $LN7@PMCCS_Grea
$LN8@PMCCS_Grea:

; 1179 :         }
; 1180 :         catch (const Palmtree::Math::Core::Internal::Exception& ex)
; 1181 :         {
; 1182 :             return (ex.GetStatusCode());

  0002d	8b 44 24 50	 mov	 eax, DWORD PTR $T3[rsp]
$LN7@PMCCS_Grea:

; 1183 :         }
; 1184 :     }

  00031	48 83 c4 30	 add	 rsp, 48			; 00000030H
  00035	5b		 pop	 rbx
  00036	c3		 ret	 0
  00037	cc		 int	 3
PMCCS_GreatestCommonDivisor_X_L ENDP
_TEXT	ENDS
;	COMDAT text$x
text$x	SEGMENT
$T1 = 32
ex$2 = 40
u$ = 64
v$ = 72
$T3 = 80
w$ = 80
PMCCS_GreatestCommonDivisor_X_L$catch$0 PROC

; 1179 :         }
; 1180 :         catch (const Palmtree::Math::Core::Internal::Exception& ex)
; 1181 :         {

  00000	48 89 54 24 10	 mov	 QWORD PTR [rsp+16], rdx
  00005	55		 push	 rbp
  00006	48 83 ec 20	 sub	 rsp, 32			; 00000020H
  0000a	48 8b ea	 mov	 rbp, rdx
__catch$PMCCS_GreatestCommonDivisor_X_L$0:
; File z:\sources\lunor\repos\rougemeilland\palmtree.math.core.uint\palmtree.math.core.uint\pmc_exception.h

; 75   :             return (_code);

  0000d	48 8b 45 28	 mov	 rax, QWORD PTR ex$2[rbp]
  00011	8b 48 18	 mov	 ecx, DWORD PTR [rax+24]
  00014	89 4d 50	 mov	 DWORD PTR $T3[rbp], ecx
; File z:\sources\lunor\repos\rougemeilland\palmtree.math.core.uint\palmtree.math.core.uint\pmc_interface_csharp.cpp

; 1179 :         }
; 1180 :         catch (const Palmtree::Math::Core::Internal::Exception& ex)
; 1181 :         {
; 1182 :             return (ex.GetStatusCode());

  00017	48 8d 05 00 00
	00 00		 lea	 rax, $LN8@PMCCS_Grea
  0001e	48 83 c4 20	 add	 rsp, 32			; 00000020H
  00022	5d		 pop	 rbp
  00023	c3		 ret	 0
  00024	cc		 int	 3
PMCCS_GreatestCommonDivisor_X_L$catch$0 ENDP
text$x	ENDS
; Function compile flags: /Ogtpy
; File z:\sources\lunor\repos\rougemeilland\palmtree.math.core.uint\palmtree.math.core.uint\pmc_exception.h
; File z:\sources\lunor\repos\rougemeilland\palmtree.math.core.uint\palmtree.math.core.uint\pmc_interface_csharp.cpp
;	COMDAT text$x
text$x	SEGMENT
$T1 = 32
ex$2 = 40
u$ = 64
v$ = 72
$T3 = 80
w$ = 80
PMCCS_GreatestCommonDivisor_X_L$catch$0 PROC

; 1181 :         {

  00000	48 89 54 24 10	 mov	 QWORD PTR [rsp+16], rdx
  00005	55		 push	 rbp
  00006	48 83 ec 20	 sub	 rsp, 32			; 00000020H
  0000a	48 8b ea	 mov	 rbp, rdx
__catch$PMCCS_GreatestCommonDivisor_X_L$0:
; File z:\sources\lunor\repos\rougemeilland\palmtree.math.core.uint\palmtree.math.core.uint\pmc_exception.h

; 75   :             return (_code);

  0000d	48 8b 45 28	 mov	 rax, QWORD PTR ex$2[rbp]
  00011	8b 48 18	 mov	 ecx, DWORD PTR [rax+24]
  00014	89 4d 50	 mov	 DWORD PTR $T3[rbp], ecx
; File z:\sources\lunor\repos\rougemeilland\palmtree.math.core.uint\palmtree.math.core.uint\pmc_interface_csharp.cpp

; 1182 :             return (ex.GetStatusCode());

  00017	48 8d 05 00 00
	00 00		 lea	 rax, $LN8@PMCCS_Grea
  0001e	48 83 c4 20	 add	 rsp, 32			; 00000020H
  00022	5d		 pop	 rbp
  00023	c3		 ret	 0
  00024	cc		 int	 3
PMCCS_GreatestCommonDivisor_X_L$catch$0 ENDP
text$x	ENDS
; Function compile flags: /Ogtpy
; File z:\sources\lunor\repos\rougemeilland\palmtree.math.core.uint\palmtree.math.core.uint\pmc_interface_csharp.cpp
;	COMDAT PMCCS_GreatestCommonDivisor_X_I
_TEXT	SEGMENT
$T1 = 32
ex$2 = 40
u$ = 64
v$ = 72
$T3 = 80
w$ = 80
PMCCS_GreatestCommonDivisor_X_I PROC			; COMDAT

; 1157 :     {

$LN13:
  00000	40 53		 push	 rbx
  00002	48 83 ec 30	 sub	 rsp, 48			; 00000030H
  00006	48 c7 44 24 20
	fe ff ff ff	 mov	 QWORD PTR $T1[rsp], -2
  0000f	49 8b d8	 mov	 rbx, r8

; 1158 :         if (w == nullptr)

  00012	4d 85 c0	 test	 r8, r8
  00015	75 0a		 jne	 SHORT $LN2@PMCCS_Grea

; 1159 :             return (PMC_STATUS_ARGUMENT_NULL_ERROR);

  00017	41 8d 40 fe	 lea	 eax, QWORD PTR [r8-2]

; 1168 :         }
; 1169 :     }

  0001b	48 83 c4 30	 add	 rsp, 48			; 00000030H
  0001f	5b		 pop	 rbx
  00020	c3		 ret	 0
$LN2@PMCCS_Grea:

; 1160 :         try
; 1161 :         {
; 1162 :             *w = PMC_GreatestCommonDivisor_X_I(u, v);

  00021	e8 00 00 00 00	 call	 ?PMC_GreatestCommonDivisor_X_I@Internal@Core@Math@Palmtree@@YAPEAU__tag_PMC_HANDLE_UINT@1234@PEAU51234@I@Z ; Palmtree::Math::Core::Internal::PMC_GreatestCommonDivisor_X_I
  00026	48 89 03	 mov	 QWORD PTR [rbx], rax

; 1163 :             return (PMC_STATUS_OK);

  00029	33 c0		 xor	 eax, eax
  0002b	eb 04		 jmp	 SHORT $LN7@PMCCS_Grea
$LN8@PMCCS_Grea:

; 1164 :         }
; 1165 :         catch (const Palmtree::Math::Core::Internal::Exception& ex)
; 1166 :         {
; 1167 :             return (ex.GetStatusCode());

  0002d	8b 44 24 50	 mov	 eax, DWORD PTR $T3[rsp]
$LN7@PMCCS_Grea:

; 1168 :         }
; 1169 :     }

  00031	48 83 c4 30	 add	 rsp, 48			; 00000030H
  00035	5b		 pop	 rbx
  00036	c3		 ret	 0
  00037	cc		 int	 3
PMCCS_GreatestCommonDivisor_X_I ENDP
_TEXT	ENDS
;	COMDAT text$x
text$x	SEGMENT
$T1 = 32
ex$2 = 40
u$ = 64
v$ = 72
$T3 = 80
w$ = 80
PMCCS_GreatestCommonDivisor_X_I$catch$0 PROC

; 1164 :         }
; 1165 :         catch (const Palmtree::Math::Core::Internal::Exception& ex)
; 1166 :         {

  00000	48 89 54 24 10	 mov	 QWORD PTR [rsp+16], rdx
  00005	55		 push	 rbp
  00006	48 83 ec 20	 sub	 rsp, 32			; 00000020H
  0000a	48 8b ea	 mov	 rbp, rdx
__catch$PMCCS_GreatestCommonDivisor_X_I$0:
; File z:\sources\lunor\repos\rougemeilland\palmtree.math.core.uint\palmtree.math.core.uint\pmc_exception.h

; 75   :             return (_code);

  0000d	48 8b 45 28	 mov	 rax, QWORD PTR ex$2[rbp]
  00011	8b 48 18	 mov	 ecx, DWORD PTR [rax+24]
  00014	89 4d 50	 mov	 DWORD PTR $T3[rbp], ecx
; File z:\sources\lunor\repos\rougemeilland\palmtree.math.core.uint\palmtree.math.core.uint\pmc_interface_csharp.cpp

; 1164 :         }
; 1165 :         catch (const Palmtree::Math::Core::Internal::Exception& ex)
; 1166 :         {
; 1167 :             return (ex.GetStatusCode());

  00017	48 8d 05 00 00
	00 00		 lea	 rax, $LN8@PMCCS_Grea
  0001e	48 83 c4 20	 add	 rsp, 32			; 00000020H
  00022	5d		 pop	 rbp
  00023	c3		 ret	 0
  00024	cc		 int	 3
PMCCS_GreatestCommonDivisor_X_I$catch$0 ENDP
text$x	ENDS
; Function compile flags: /Ogtpy
; File z:\sources\lunor\repos\rougemeilland\palmtree.math.core.uint\palmtree.math.core.uint\pmc_exception.h
; File z:\sources\lunor\repos\rougemeilland\palmtree.math.core.uint\palmtree.math.core.uint\pmc_interface_csharp.cpp
;	COMDAT text$x
text$x	SEGMENT
$T1 = 32
ex$2 = 40
u$ = 64
v$ = 72
$T3 = 80
w$ = 80
PMCCS_GreatestCommonDivisor_X_I$catch$0 PROC

; 1166 :         {

  00000	48 89 54 24 10	 mov	 QWORD PTR [rsp+16], rdx
  00005	55		 push	 rbp
  00006	48 83 ec 20	 sub	 rsp, 32			; 00000020H
  0000a	48 8b ea	 mov	 rbp, rdx
__catch$PMCCS_GreatestCommonDivisor_X_I$0:
; File z:\sources\lunor\repos\rougemeilland\palmtree.math.core.uint\palmtree.math.core.uint\pmc_exception.h

; 75   :             return (_code);

  0000d	48 8b 45 28	 mov	 rax, QWORD PTR ex$2[rbp]
  00011	8b 48 18	 mov	 ecx, DWORD PTR [rax+24]
  00014	89 4d 50	 mov	 DWORD PTR $T3[rbp], ecx
; File z:\sources\lunor\repos\rougemeilland\palmtree.math.core.uint\palmtree.math.core.uint\pmc_interface_csharp.cpp

; 1167 :             return (ex.GetStatusCode());

  00017	48 8d 05 00 00
	00 00		 lea	 rax, $LN8@PMCCS_Grea
  0001e	48 83 c4 20	 add	 rsp, 32			; 00000020H
  00022	5d		 pop	 rbp
  00023	c3		 ret	 0
  00024	cc		 int	 3
PMCCS_GreatestCommonDivisor_X_I$catch$0 ENDP
text$x	ENDS
; Function compile flags: /Ogtpy
; File z:\sources\lunor\repos\rougemeilland\palmtree.math.core.uint\palmtree.math.core.uint\pmc_interface_csharp.cpp
;	COMDAT PMCCS_GreatestCommonDivisor_L_X
_TEXT	SEGMENT
$T1 = 32
ex$2 = 40
u$ = 64
v$ = 72
$T3 = 80
w$ = 80
PMCCS_GreatestCommonDivisor_L_X PROC			; COMDAT

; 1142 :     {

$LN13:
  00000	40 53		 push	 rbx
  00002	48 83 ec 30	 sub	 rsp, 48			; 00000030H
  00006	48 c7 44 24 20
	fe ff ff ff	 mov	 QWORD PTR $T1[rsp], -2
  0000f	49 8b d8	 mov	 rbx, r8

; 1143 :         if (w == nullptr)

  00012	4d 85 c0	 test	 r8, r8
  00015	75 0a		 jne	 SHORT $LN2@PMCCS_Grea

; 1144 :             return (PMC_STATUS_ARGUMENT_NULL_ERROR);

  00017	41 8d 40 fe	 lea	 eax, QWORD PTR [r8-2]

; 1153 :         }
; 1154 :     }

  0001b	48 83 c4 30	 add	 rsp, 48			; 00000030H
  0001f	5b		 pop	 rbx
  00020	c3		 ret	 0
$LN2@PMCCS_Grea:

; 1145 :         try
; 1146 :         {
; 1147 :             *w = PMC_GreatestCommonDivisor_L_X(u, v);

  00021	e8 00 00 00 00	 call	 ?PMC_GreatestCommonDivisor_L_X@Internal@Core@Math@Palmtree@@YAPEAU__tag_PMC_HANDLE_UINT@1234@_KPEAU51234@@Z ; Palmtree::Math::Core::Internal::PMC_GreatestCommonDivisor_L_X
  00026	48 89 03	 mov	 QWORD PTR [rbx], rax

; 1148 :             return (PMC_STATUS_OK);

  00029	33 c0		 xor	 eax, eax
  0002b	eb 04		 jmp	 SHORT $LN7@PMCCS_Grea
$LN8@PMCCS_Grea:

; 1149 :         }
; 1150 :         catch (const Palmtree::Math::Core::Internal::Exception& ex)
; 1151 :         {
; 1152 :             return (ex.GetStatusCode());

  0002d	8b 44 24 50	 mov	 eax, DWORD PTR $T3[rsp]
$LN7@PMCCS_Grea:

; 1153 :         }
; 1154 :     }

  00031	48 83 c4 30	 add	 rsp, 48			; 00000030H
  00035	5b		 pop	 rbx
  00036	c3		 ret	 0
  00037	cc		 int	 3
PMCCS_GreatestCommonDivisor_L_X ENDP
_TEXT	ENDS
;	COMDAT text$x
text$x	SEGMENT
$T1 = 32
ex$2 = 40
u$ = 64
v$ = 72
$T3 = 80
w$ = 80
PMCCS_GreatestCommonDivisor_L_X$catch$0 PROC

; 1149 :         }
; 1150 :         catch (const Palmtree::Math::Core::Internal::Exception& ex)
; 1151 :         {

  00000	48 89 54 24 10	 mov	 QWORD PTR [rsp+16], rdx
  00005	55		 push	 rbp
  00006	48 83 ec 20	 sub	 rsp, 32			; 00000020H
  0000a	48 8b ea	 mov	 rbp, rdx
__catch$PMCCS_GreatestCommonDivisor_L_X$0:
; File z:\sources\lunor\repos\rougemeilland\palmtree.math.core.uint\palmtree.math.core.uint\pmc_exception.h

; 75   :             return (_code);

  0000d	48 8b 45 28	 mov	 rax, QWORD PTR ex$2[rbp]
  00011	8b 48 18	 mov	 ecx, DWORD PTR [rax+24]
  00014	89 4d 50	 mov	 DWORD PTR $T3[rbp], ecx
; File z:\sources\lunor\repos\rougemeilland\palmtree.math.core.uint\palmtree.math.core.uint\pmc_interface_csharp.cpp

; 1149 :         }
; 1150 :         catch (const Palmtree::Math::Core::Internal::Exception& ex)
; 1151 :         {
; 1152 :             return (ex.GetStatusCode());

  00017	48 8d 05 00 00
	00 00		 lea	 rax, $LN8@PMCCS_Grea
  0001e	48 83 c4 20	 add	 rsp, 32			; 00000020H
  00022	5d		 pop	 rbp
  00023	c3		 ret	 0
  00024	cc		 int	 3
PMCCS_GreatestCommonDivisor_L_X$catch$0 ENDP
text$x	ENDS
; Function compile flags: /Ogtpy
; File z:\sources\lunor\repos\rougemeilland\palmtree.math.core.uint\palmtree.math.core.uint\pmc_exception.h
; File z:\sources\lunor\repos\rougemeilland\palmtree.math.core.uint\palmtree.math.core.uint\pmc_interface_csharp.cpp
;	COMDAT text$x
text$x	SEGMENT
$T1 = 32
ex$2 = 40
u$ = 64
v$ = 72
$T3 = 80
w$ = 80
PMCCS_GreatestCommonDivisor_L_X$catch$0 PROC

; 1151 :         {

  00000	48 89 54 24 10	 mov	 QWORD PTR [rsp+16], rdx
  00005	55		 push	 rbp
  00006	48 83 ec 20	 sub	 rsp, 32			; 00000020H
  0000a	48 8b ea	 mov	 rbp, rdx
__catch$PMCCS_GreatestCommonDivisor_L_X$0:
; File z:\sources\lunor\repos\rougemeilland\palmtree.math.core.uint\palmtree.math.core.uint\pmc_exception.h

; 75   :             return (_code);

  0000d	48 8b 45 28	 mov	 rax, QWORD PTR ex$2[rbp]
  00011	8b 48 18	 mov	 ecx, DWORD PTR [rax+24]
  00014	89 4d 50	 mov	 DWORD PTR $T3[rbp], ecx
; File z:\sources\lunor\repos\rougemeilland\palmtree.math.core.uint\palmtree.math.core.uint\pmc_interface_csharp.cpp

; 1152 :             return (ex.GetStatusCode());

  00017	48 8d 05 00 00
	00 00		 lea	 rax, $LN8@PMCCS_Grea
  0001e	48 83 c4 20	 add	 rsp, 32			; 00000020H
  00022	5d		 pop	 rbp
  00023	c3		 ret	 0
  00024	cc		 int	 3
PMCCS_GreatestCommonDivisor_L_X$catch$0 ENDP
text$x	ENDS
; Function compile flags: /Ogtpy
; File z:\sources\lunor\repos\rougemeilland\palmtree.math.core.uint\palmtree.math.core.uint\pmc_interface_csharp.cpp
;	COMDAT PMCCS_GreatestCommonDivisor_I_X
_TEXT	SEGMENT
$T1 = 32
ex$2 = 40
u$ = 64
v$ = 72
$T3 = 80
w$ = 80
PMCCS_GreatestCommonDivisor_I_X PROC			; COMDAT

; 1127 :     {

$LN13:
  00000	40 53		 push	 rbx
  00002	48 83 ec 30	 sub	 rsp, 48			; 00000030H
  00006	48 c7 44 24 20
	fe ff ff ff	 mov	 QWORD PTR $T1[rsp], -2
  0000f	49 8b d8	 mov	 rbx, r8

; 1128 :         if (w == nullptr)

  00012	4d 85 c0	 test	 r8, r8
  00015	75 0a		 jne	 SHORT $LN2@PMCCS_Grea

; 1129 :             return (PMC_STATUS_ARGUMENT_NULL_ERROR);

  00017	41 8d 40 fe	 lea	 eax, QWORD PTR [r8-2]

; 1138 :         }
; 1139 :     }

  0001b	48 83 c4 30	 add	 rsp, 48			; 00000030H
  0001f	5b		 pop	 rbx
  00020	c3		 ret	 0
$LN2@PMCCS_Grea:

; 1130 :         try
; 1131 :         {
; 1132 :             *w = PMC_GreatestCommonDivisor_I_X(u, v);

  00021	e8 00 00 00 00	 call	 ?PMC_GreatestCommonDivisor_I_X@Internal@Core@Math@Palmtree@@YAPEAU__tag_PMC_HANDLE_UINT@1234@IPEAU51234@@Z ; Palmtree::Math::Core::Internal::PMC_GreatestCommonDivisor_I_X
  00026	48 89 03	 mov	 QWORD PTR [rbx], rax

; 1133 :             return (PMC_STATUS_OK);

  00029	33 c0		 xor	 eax, eax
  0002b	eb 04		 jmp	 SHORT $LN7@PMCCS_Grea
$LN8@PMCCS_Grea:

; 1134 :         }
; 1135 :         catch (const Palmtree::Math::Core::Internal::Exception& ex)
; 1136 :         {
; 1137 :             return (ex.GetStatusCode());

  0002d	8b 44 24 50	 mov	 eax, DWORD PTR $T3[rsp]
$LN7@PMCCS_Grea:

; 1138 :         }
; 1139 :     }

  00031	48 83 c4 30	 add	 rsp, 48			; 00000030H
  00035	5b		 pop	 rbx
  00036	c3		 ret	 0
  00037	cc		 int	 3
PMCCS_GreatestCommonDivisor_I_X ENDP
_TEXT	ENDS
;	COMDAT text$x
text$x	SEGMENT
$T1 = 32
ex$2 = 40
u$ = 64
v$ = 72
$T3 = 80
w$ = 80
PMCCS_GreatestCommonDivisor_I_X$catch$0 PROC

; 1134 :         }
; 1135 :         catch (const Palmtree::Math::Core::Internal::Exception& ex)
; 1136 :         {

  00000	48 89 54 24 10	 mov	 QWORD PTR [rsp+16], rdx
  00005	55		 push	 rbp
  00006	48 83 ec 20	 sub	 rsp, 32			; 00000020H
  0000a	48 8b ea	 mov	 rbp, rdx
__catch$PMCCS_GreatestCommonDivisor_I_X$0:
; File z:\sources\lunor\repos\rougemeilland\palmtree.math.core.uint\palmtree.math.core.uint\pmc_exception.h

; 75   :             return (_code);

  0000d	48 8b 45 28	 mov	 rax, QWORD PTR ex$2[rbp]
  00011	8b 48 18	 mov	 ecx, DWORD PTR [rax+24]
  00014	89 4d 50	 mov	 DWORD PTR $T3[rbp], ecx
; File z:\sources\lunor\repos\rougemeilland\palmtree.math.core.uint\palmtree.math.core.uint\pmc_interface_csharp.cpp

; 1134 :         }
; 1135 :         catch (const Palmtree::Math::Core::Internal::Exception& ex)
; 1136 :         {
; 1137 :             return (ex.GetStatusCode());

  00017	48 8d 05 00 00
	00 00		 lea	 rax, $LN8@PMCCS_Grea
  0001e	48 83 c4 20	 add	 rsp, 32			; 00000020H
  00022	5d		 pop	 rbp
  00023	c3		 ret	 0
  00024	cc		 int	 3
PMCCS_GreatestCommonDivisor_I_X$catch$0 ENDP
text$x	ENDS
; Function compile flags: /Ogtpy
; File z:\sources\lunor\repos\rougemeilland\palmtree.math.core.uint\palmtree.math.core.uint\pmc_exception.h
; File z:\sources\lunor\repos\rougemeilland\palmtree.math.core.uint\palmtree.math.core.uint\pmc_interface_csharp.cpp
;	COMDAT text$x
text$x	SEGMENT
$T1 = 32
ex$2 = 40
u$ = 64
v$ = 72
$T3 = 80
w$ = 80
PMCCS_GreatestCommonDivisor_I_X$catch$0 PROC

; 1136 :         {

  00000	48 89 54 24 10	 mov	 QWORD PTR [rsp+16], rdx
  00005	55		 push	 rbp
  00006	48 83 ec 20	 sub	 rsp, 32			; 00000020H
  0000a	48 8b ea	 mov	 rbp, rdx
__catch$PMCCS_GreatestCommonDivisor_I_X$0:
; File z:\sources\lunor\repos\rougemeilland\palmtree.math.core.uint\palmtree.math.core.uint\pmc_exception.h

; 75   :             return (_code);

  0000d	48 8b 45 28	 mov	 rax, QWORD PTR ex$2[rbp]
  00011	8b 48 18	 mov	 ecx, DWORD PTR [rax+24]
  00014	89 4d 50	 mov	 DWORD PTR $T3[rbp], ecx
; File z:\sources\lunor\repos\rougemeilland\palmtree.math.core.uint\palmtree.math.core.uint\pmc_interface_csharp.cpp

; 1137 :             return (ex.GetStatusCode());

  00017	48 8d 05 00 00
	00 00		 lea	 rax, $LN8@PMCCS_Grea
  0001e	48 83 c4 20	 add	 rsp, 32			; 00000020H
  00022	5d		 pop	 rbp
  00023	c3		 ret	 0
  00024	cc		 int	 3
PMCCS_GreatestCommonDivisor_I_X$catch$0 ENDP
text$x	ENDS
; Function compile flags: /Ogtpy
; File z:\sources\lunor\repos\rougemeilland\palmtree.math.core.uint\palmtree.math.core.uint\pmc_interface_csharp.cpp
;	COMDAT PMCCS_Equals_X_X
_TEXT	SEGMENT
$T1 = 32
ex$2 = 40
u$ = 64
v$ = 72
$T3 = 80
w$ = 80
PMCCS_Equals_X_X PROC					; COMDAT

; 1112 :     {

$LN13:
  00000	40 53		 push	 rbx
  00002	48 83 ec 30	 sub	 rsp, 48			; 00000030H
  00006	48 c7 44 24 20
	fe ff ff ff	 mov	 QWORD PTR $T1[rsp], -2
  0000f	49 8b d8	 mov	 rbx, r8

; 1113 :         if (w == nullptr)

  00012	4d 85 c0	 test	 r8, r8
  00015	75 0a		 jne	 SHORT $LN2@PMCCS_Equa

; 1114 :             return (PMC_STATUS_ARGUMENT_NULL_ERROR);

  00017	41 8d 40 fe	 lea	 eax, QWORD PTR [r8-2]

; 1123 :         }
; 1124 :     }

  0001b	48 83 c4 30	 add	 rsp, 48			; 00000030H
  0001f	5b		 pop	 rbx
  00020	c3		 ret	 0
$LN2@PMCCS_Equa:

; 1115 :         try
; 1116 :         {
; 1117 :             *w = PMC_Equals_X_X(u, v);

  00021	e8 00 00 00 00	 call	 ?PMC_Equals_X_X@Internal@Core@Math@Palmtree@@YAIPEAU__tag_PMC_HANDLE_UINT@1234@0@Z ; Palmtree::Math::Core::Internal::PMC_Equals_X_X
  00026	89 03		 mov	 DWORD PTR [rbx], eax

; 1118 :             return (PMC_STATUS_OK);

  00028	33 c0		 xor	 eax, eax
  0002a	eb 04		 jmp	 SHORT $LN7@PMCCS_Equa
$LN8@PMCCS_Equa:

; 1119 :         }
; 1120 :         catch (const Palmtree::Math::Core::Internal::Exception& ex)
; 1121 :         {
; 1122 :             return (ex.GetStatusCode());

  0002c	8b 44 24 50	 mov	 eax, DWORD PTR $T3[rsp]
$LN7@PMCCS_Equa:

; 1123 :         }
; 1124 :     }

  00030	48 83 c4 30	 add	 rsp, 48			; 00000030H
  00034	5b		 pop	 rbx
  00035	c3		 ret	 0
  00036	cc		 int	 3
PMCCS_Equals_X_X ENDP
_TEXT	ENDS
;	COMDAT text$x
text$x	SEGMENT
$T1 = 32
ex$2 = 40
u$ = 64
v$ = 72
$T3 = 80
w$ = 80
PMCCS_Equals_X_X$catch$0 PROC

; 1119 :         }
; 1120 :         catch (const Palmtree::Math::Core::Internal::Exception& ex)
; 1121 :         {

  00000	48 89 54 24 10	 mov	 QWORD PTR [rsp+16], rdx
  00005	55		 push	 rbp
  00006	48 83 ec 20	 sub	 rsp, 32			; 00000020H
  0000a	48 8b ea	 mov	 rbp, rdx
__catch$PMCCS_Equals_X_X$0:
; File z:\sources\lunor\repos\rougemeilland\palmtree.math.core.uint\palmtree.math.core.uint\pmc_exception.h

; 75   :             return (_code);

  0000d	48 8b 45 28	 mov	 rax, QWORD PTR ex$2[rbp]
  00011	8b 48 18	 mov	 ecx, DWORD PTR [rax+24]
  00014	89 4d 50	 mov	 DWORD PTR $T3[rbp], ecx
; File z:\sources\lunor\repos\rougemeilland\palmtree.math.core.uint\palmtree.math.core.uint\pmc_interface_csharp.cpp

; 1119 :         }
; 1120 :         catch (const Palmtree::Math::Core::Internal::Exception& ex)
; 1121 :         {
; 1122 :             return (ex.GetStatusCode());

  00017	48 8d 05 00 00
	00 00		 lea	 rax, $LN8@PMCCS_Equa
  0001e	48 83 c4 20	 add	 rsp, 32			; 00000020H
  00022	5d		 pop	 rbp
  00023	c3		 ret	 0
  00024	cc		 int	 3
PMCCS_Equals_X_X$catch$0 ENDP
text$x	ENDS
; Function compile flags: /Ogtpy
; File z:\sources\lunor\repos\rougemeilland\palmtree.math.core.uint\palmtree.math.core.uint\pmc_exception.h
; File z:\sources\lunor\repos\rougemeilland\palmtree.math.core.uint\palmtree.math.core.uint\pmc_interface_csharp.cpp
;	COMDAT text$x
text$x	SEGMENT
$T1 = 32
ex$2 = 40
u$ = 64
v$ = 72
$T3 = 80
w$ = 80
PMCCS_Equals_X_X$catch$0 PROC

; 1121 :         {

  00000	48 89 54 24 10	 mov	 QWORD PTR [rsp+16], rdx
  00005	55		 push	 rbp
  00006	48 83 ec 20	 sub	 rsp, 32			; 00000020H
  0000a	48 8b ea	 mov	 rbp, rdx
__catch$PMCCS_Equals_X_X$0:
; File z:\sources\lunor\repos\rougemeilland\palmtree.math.core.uint\palmtree.math.core.uint\pmc_exception.h

; 75   :             return (_code);

  0000d	48 8b 45 28	 mov	 rax, QWORD PTR ex$2[rbp]
  00011	8b 48 18	 mov	 ecx, DWORD PTR [rax+24]
  00014	89 4d 50	 mov	 DWORD PTR $T3[rbp], ecx
; File z:\sources\lunor\repos\rougemeilland\palmtree.math.core.uint\palmtree.math.core.uint\pmc_interface_csharp.cpp

; 1122 :             return (ex.GetStatusCode());

  00017	48 8d 05 00 00
	00 00		 lea	 rax, $LN8@PMCCS_Equa
  0001e	48 83 c4 20	 add	 rsp, 32			; 00000020H
  00022	5d		 pop	 rbp
  00023	c3		 ret	 0
  00024	cc		 int	 3
PMCCS_Equals_X_X$catch$0 ENDP
text$x	ENDS
; Function compile flags: /Ogtpy
; File z:\sources\lunor\repos\rougemeilland\palmtree.math.core.uint\palmtree.math.core.uint\pmc_interface_csharp.cpp
;	COMDAT PMCCS_Equals_X_L
_TEXT	SEGMENT
$T1 = 32
ex$2 = 40
u$ = 64
v$ = 72
$T3 = 80
w$ = 80
PMCCS_Equals_X_L PROC					; COMDAT

; 1097 :     {

$LN13:
  00000	40 53		 push	 rbx
  00002	48 83 ec 30	 sub	 rsp, 48			; 00000030H
  00006	48 c7 44 24 20
	fe ff ff ff	 mov	 QWORD PTR $T1[rsp], -2
  0000f	49 8b d8	 mov	 rbx, r8

; 1098 :         if (w == nullptr)

  00012	4d 85 c0	 test	 r8, r8
  00015	75 0a		 jne	 SHORT $LN2@PMCCS_Equa

; 1099 :             return (PMC_STATUS_ARGUMENT_NULL_ERROR);

  00017	41 8d 40 fe	 lea	 eax, QWORD PTR [r8-2]

; 1108 :         }
; 1109 :     }

  0001b	48 83 c4 30	 add	 rsp, 48			; 00000030H
  0001f	5b		 pop	 rbx
  00020	c3		 ret	 0
$LN2@PMCCS_Equa:

; 1100 :         try
; 1101 :         {
; 1102 :             *w = PMC_Equals_X_L(u, v);

  00021	e8 00 00 00 00	 call	 ?PMC_Equals_X_L@Internal@Core@Math@Palmtree@@YAIPEAU__tag_PMC_HANDLE_UINT@1234@_K@Z ; Palmtree::Math::Core::Internal::PMC_Equals_X_L
  00026	89 03		 mov	 DWORD PTR [rbx], eax

; 1103 :             return (PMC_STATUS_OK);

  00028	33 c0		 xor	 eax, eax
  0002a	eb 04		 jmp	 SHORT $LN7@PMCCS_Equa
$LN8@PMCCS_Equa:

; 1104 :         }
; 1105 :         catch (const Palmtree::Math::Core::Internal::Exception& ex)
; 1106 :         {
; 1107 :             return (ex.GetStatusCode());

  0002c	8b 44 24 50	 mov	 eax, DWORD PTR $T3[rsp]
$LN7@PMCCS_Equa:

; 1108 :         }
; 1109 :     }

  00030	48 83 c4 30	 add	 rsp, 48			; 00000030H
  00034	5b		 pop	 rbx
  00035	c3		 ret	 0
  00036	cc		 int	 3
PMCCS_Equals_X_L ENDP
_TEXT	ENDS
;	COMDAT text$x
text$x	SEGMENT
$T1 = 32
ex$2 = 40
u$ = 64
v$ = 72
$T3 = 80
w$ = 80
PMCCS_Equals_X_L$catch$0 PROC

; 1104 :         }
; 1105 :         catch (const Palmtree::Math::Core::Internal::Exception& ex)
; 1106 :         {

  00000	48 89 54 24 10	 mov	 QWORD PTR [rsp+16], rdx
  00005	55		 push	 rbp
  00006	48 83 ec 20	 sub	 rsp, 32			; 00000020H
  0000a	48 8b ea	 mov	 rbp, rdx
__catch$PMCCS_Equals_X_L$0:
; File z:\sources\lunor\repos\rougemeilland\palmtree.math.core.uint\palmtree.math.core.uint\pmc_exception.h

; 75   :             return (_code);

  0000d	48 8b 45 28	 mov	 rax, QWORD PTR ex$2[rbp]
  00011	8b 48 18	 mov	 ecx, DWORD PTR [rax+24]
  00014	89 4d 50	 mov	 DWORD PTR $T3[rbp], ecx
; File z:\sources\lunor\repos\rougemeilland\palmtree.math.core.uint\palmtree.math.core.uint\pmc_interface_csharp.cpp

; 1104 :         }
; 1105 :         catch (const Palmtree::Math::Core::Internal::Exception& ex)
; 1106 :         {
; 1107 :             return (ex.GetStatusCode());

  00017	48 8d 05 00 00
	00 00		 lea	 rax, $LN8@PMCCS_Equa
  0001e	48 83 c4 20	 add	 rsp, 32			; 00000020H
  00022	5d		 pop	 rbp
  00023	c3		 ret	 0
  00024	cc		 int	 3
PMCCS_Equals_X_L$catch$0 ENDP
text$x	ENDS
; Function compile flags: /Ogtpy
; File z:\sources\lunor\repos\rougemeilland\palmtree.math.core.uint\palmtree.math.core.uint\pmc_exception.h
; File z:\sources\lunor\repos\rougemeilland\palmtree.math.core.uint\palmtree.math.core.uint\pmc_interface_csharp.cpp
;	COMDAT text$x
text$x	SEGMENT
$T1 = 32
ex$2 = 40
u$ = 64
v$ = 72
$T3 = 80
w$ = 80
PMCCS_Equals_X_L$catch$0 PROC

; 1106 :         {

  00000	48 89 54 24 10	 mov	 QWORD PTR [rsp+16], rdx
  00005	55		 push	 rbp
  00006	48 83 ec 20	 sub	 rsp, 32			; 00000020H
  0000a	48 8b ea	 mov	 rbp, rdx
__catch$PMCCS_Equals_X_L$0:
; File z:\sources\lunor\repos\rougemeilland\palmtree.math.core.uint\palmtree.math.core.uint\pmc_exception.h

; 75   :             return (_code);

  0000d	48 8b 45 28	 mov	 rax, QWORD PTR ex$2[rbp]
  00011	8b 48 18	 mov	 ecx, DWORD PTR [rax+24]
  00014	89 4d 50	 mov	 DWORD PTR $T3[rbp], ecx
; File z:\sources\lunor\repos\rougemeilland\palmtree.math.core.uint\palmtree.math.core.uint\pmc_interface_csharp.cpp

; 1107 :             return (ex.GetStatusCode());

  00017	48 8d 05 00 00
	00 00		 lea	 rax, $LN8@PMCCS_Equa
  0001e	48 83 c4 20	 add	 rsp, 32			; 00000020H
  00022	5d		 pop	 rbp
  00023	c3		 ret	 0
  00024	cc		 int	 3
PMCCS_Equals_X_L$catch$0 ENDP
text$x	ENDS
; Function compile flags: /Ogtpy
; File z:\sources\lunor\repos\rougemeilland\palmtree.math.core.uint\palmtree.math.core.uint\pmc_interface_csharp.cpp
;	COMDAT PMCCS_Equals_X_I
_TEXT	SEGMENT
$T1 = 32
ex$2 = 40
u$ = 64
v$ = 72
$T3 = 80
w$ = 80
PMCCS_Equals_X_I PROC					; COMDAT

; 1082 :     {

$LN13:
  00000	40 53		 push	 rbx
  00002	48 83 ec 30	 sub	 rsp, 48			; 00000030H
  00006	48 c7 44 24 20
	fe ff ff ff	 mov	 QWORD PTR $T1[rsp], -2
  0000f	49 8b d8	 mov	 rbx, r8

; 1083 :         if (w == nullptr)

  00012	4d 85 c0	 test	 r8, r8
  00015	75 0a		 jne	 SHORT $LN2@PMCCS_Equa

; 1084 :             return (PMC_STATUS_ARGUMENT_NULL_ERROR);

  00017	41 8d 40 fe	 lea	 eax, QWORD PTR [r8-2]

; 1093 :         }
; 1094 :     }

  0001b	48 83 c4 30	 add	 rsp, 48			; 00000030H
  0001f	5b		 pop	 rbx
  00020	c3		 ret	 0
$LN2@PMCCS_Equa:

; 1085 :         try
; 1086 :         {
; 1087 :             *w = PMC_Equals_X_I(u, v);

  00021	e8 00 00 00 00	 call	 ?PMC_Equals_X_I@Internal@Core@Math@Palmtree@@YAIPEAU__tag_PMC_HANDLE_UINT@1234@I@Z ; Palmtree::Math::Core::Internal::PMC_Equals_X_I
  00026	89 03		 mov	 DWORD PTR [rbx], eax

; 1088 :             return (PMC_STATUS_OK);

  00028	33 c0		 xor	 eax, eax
  0002a	eb 04		 jmp	 SHORT $LN7@PMCCS_Equa
$LN8@PMCCS_Equa:

; 1089 :         }
; 1090 :         catch (const Palmtree::Math::Core::Internal::Exception& ex)
; 1091 :         {
; 1092 :             return (ex.GetStatusCode());

  0002c	8b 44 24 50	 mov	 eax, DWORD PTR $T3[rsp]
$LN7@PMCCS_Equa:

; 1093 :         }
; 1094 :     }

  00030	48 83 c4 30	 add	 rsp, 48			; 00000030H
  00034	5b		 pop	 rbx
  00035	c3		 ret	 0
  00036	cc		 int	 3
PMCCS_Equals_X_I ENDP
_TEXT	ENDS
;	COMDAT text$x
text$x	SEGMENT
$T1 = 32
ex$2 = 40
u$ = 64
v$ = 72
$T3 = 80
w$ = 80
PMCCS_Equals_X_I$catch$0 PROC

; 1089 :         }
; 1090 :         catch (const Palmtree::Math::Core::Internal::Exception& ex)
; 1091 :         {

  00000	48 89 54 24 10	 mov	 QWORD PTR [rsp+16], rdx
  00005	55		 push	 rbp
  00006	48 83 ec 20	 sub	 rsp, 32			; 00000020H
  0000a	48 8b ea	 mov	 rbp, rdx
__catch$PMCCS_Equals_X_I$0:
; File z:\sources\lunor\repos\rougemeilland\palmtree.math.core.uint\palmtree.math.core.uint\pmc_exception.h

; 75   :             return (_code);

  0000d	48 8b 45 28	 mov	 rax, QWORD PTR ex$2[rbp]
  00011	8b 48 18	 mov	 ecx, DWORD PTR [rax+24]
  00014	89 4d 50	 mov	 DWORD PTR $T3[rbp], ecx
; File z:\sources\lunor\repos\rougemeilland\palmtree.math.core.uint\palmtree.math.core.uint\pmc_interface_csharp.cpp

; 1089 :         }
; 1090 :         catch (const Palmtree::Math::Core::Internal::Exception& ex)
; 1091 :         {
; 1092 :             return (ex.GetStatusCode());

  00017	48 8d 05 00 00
	00 00		 lea	 rax, $LN8@PMCCS_Equa
  0001e	48 83 c4 20	 add	 rsp, 32			; 00000020H
  00022	5d		 pop	 rbp
  00023	c3		 ret	 0
  00024	cc		 int	 3
PMCCS_Equals_X_I$catch$0 ENDP
text$x	ENDS
; Function compile flags: /Ogtpy
; File z:\sources\lunor\repos\rougemeilland\palmtree.math.core.uint\palmtree.math.core.uint\pmc_exception.h
; File z:\sources\lunor\repos\rougemeilland\palmtree.math.core.uint\palmtree.math.core.uint\pmc_interface_csharp.cpp
;	COMDAT text$x
text$x	SEGMENT
$T1 = 32
ex$2 = 40
u$ = 64
v$ = 72
$T3 = 80
w$ = 80
PMCCS_Equals_X_I$catch$0 PROC

; 1091 :         {

  00000	48 89 54 24 10	 mov	 QWORD PTR [rsp+16], rdx
  00005	55		 push	 rbp
  00006	48 83 ec 20	 sub	 rsp, 32			; 00000020H
  0000a	48 8b ea	 mov	 rbp, rdx
__catch$PMCCS_Equals_X_I$0:
; File z:\sources\lunor\repos\rougemeilland\palmtree.math.core.uint\palmtree.math.core.uint\pmc_exception.h

; 75   :             return (_code);

  0000d	48 8b 45 28	 mov	 rax, QWORD PTR ex$2[rbp]
  00011	8b 48 18	 mov	 ecx, DWORD PTR [rax+24]
  00014	89 4d 50	 mov	 DWORD PTR $T3[rbp], ecx
; File z:\sources\lunor\repos\rougemeilland\palmtree.math.core.uint\palmtree.math.core.uint\pmc_interface_csharp.cpp

; 1092 :             return (ex.GetStatusCode());

  00017	48 8d 05 00 00
	00 00		 lea	 rax, $LN8@PMCCS_Equa
  0001e	48 83 c4 20	 add	 rsp, 32			; 00000020H
  00022	5d		 pop	 rbp
  00023	c3		 ret	 0
  00024	cc		 int	 3
PMCCS_Equals_X_I$catch$0 ENDP
text$x	ENDS
; Function compile flags: /Ogtpy
; File z:\sources\lunor\repos\rougemeilland\palmtree.math.core.uint\palmtree.math.core.uint\pmc_interface_csharp.cpp
;	COMDAT PMCCS_Equals_L_X
_TEXT	SEGMENT
$T1 = 32
ex$2 = 40
u$ = 64
v$ = 72
$T3 = 80
w$ = 80
PMCCS_Equals_L_X PROC					; COMDAT

; 1067 :     {

$LN13:
  00000	40 53		 push	 rbx
  00002	48 83 ec 30	 sub	 rsp, 48			; 00000030H
  00006	48 c7 44 24 20
	fe ff ff ff	 mov	 QWORD PTR $T1[rsp], -2
  0000f	49 8b d8	 mov	 rbx, r8

; 1068 :         if (w == nullptr)

  00012	4d 85 c0	 test	 r8, r8
  00015	75 0a		 jne	 SHORT $LN2@PMCCS_Equa

; 1069 :             return (PMC_STATUS_ARGUMENT_NULL_ERROR);

  00017	41 8d 40 fe	 lea	 eax, QWORD PTR [r8-2]

; 1078 :         }
; 1079 :     }

  0001b	48 83 c4 30	 add	 rsp, 48			; 00000030H
  0001f	5b		 pop	 rbx
  00020	c3		 ret	 0
$LN2@PMCCS_Equa:

; 1070 :         try
; 1071 :         {
; 1072 :             *w = PMC_Equals_L_X(u, v);

  00021	e8 00 00 00 00	 call	 ?PMC_Equals_L_X@Internal@Core@Math@Palmtree@@YAI_KPEAU__tag_PMC_HANDLE_UINT@1234@@Z ; Palmtree::Math::Core::Internal::PMC_Equals_L_X
  00026	89 03		 mov	 DWORD PTR [rbx], eax

; 1073 :             return (PMC_STATUS_OK);

  00028	33 c0		 xor	 eax, eax
  0002a	eb 04		 jmp	 SHORT $LN7@PMCCS_Equa
$LN8@PMCCS_Equa:

; 1074 :         }
; 1075 :         catch (const Palmtree::Math::Core::Internal::Exception& ex)
; 1076 :         {
; 1077 :             return (ex.GetStatusCode());

  0002c	8b 44 24 50	 mov	 eax, DWORD PTR $T3[rsp]
$LN7@PMCCS_Equa:

; 1078 :         }
; 1079 :     }

  00030	48 83 c4 30	 add	 rsp, 48			; 00000030H
  00034	5b		 pop	 rbx
  00035	c3		 ret	 0
  00036	cc		 int	 3
PMCCS_Equals_L_X ENDP
_TEXT	ENDS
;	COMDAT text$x
text$x	SEGMENT
$T1 = 32
ex$2 = 40
u$ = 64
v$ = 72
$T3 = 80
w$ = 80
PMCCS_Equals_L_X$catch$0 PROC

; 1074 :         }
; 1075 :         catch (const Palmtree::Math::Core::Internal::Exception& ex)
; 1076 :         {

  00000	48 89 54 24 10	 mov	 QWORD PTR [rsp+16], rdx
  00005	55		 push	 rbp
  00006	48 83 ec 20	 sub	 rsp, 32			; 00000020H
  0000a	48 8b ea	 mov	 rbp, rdx
__catch$PMCCS_Equals_L_X$0:
; File z:\sources\lunor\repos\rougemeilland\palmtree.math.core.uint\palmtree.math.core.uint\pmc_exception.h

; 75   :             return (_code);

  0000d	48 8b 45 28	 mov	 rax, QWORD PTR ex$2[rbp]
  00011	8b 48 18	 mov	 ecx, DWORD PTR [rax+24]
  00014	89 4d 50	 mov	 DWORD PTR $T3[rbp], ecx
; File z:\sources\lunor\repos\rougemeilland\palmtree.math.core.uint\palmtree.math.core.uint\pmc_interface_csharp.cpp

; 1074 :         }
; 1075 :         catch (const Palmtree::Math::Core::Internal::Exception& ex)
; 1076 :         {
; 1077 :             return (ex.GetStatusCode());

  00017	48 8d 05 00 00
	00 00		 lea	 rax, $LN8@PMCCS_Equa
  0001e	48 83 c4 20	 add	 rsp, 32			; 00000020H
  00022	5d		 pop	 rbp
  00023	c3		 ret	 0
  00024	cc		 int	 3
PMCCS_Equals_L_X$catch$0 ENDP
text$x	ENDS
; Function compile flags: /Ogtpy
; File z:\sources\lunor\repos\rougemeilland\palmtree.math.core.uint\palmtree.math.core.uint\pmc_exception.h
; File z:\sources\lunor\repos\rougemeilland\palmtree.math.core.uint\palmtree.math.core.uint\pmc_interface_csharp.cpp
;	COMDAT text$x
text$x	SEGMENT
$T1 = 32
ex$2 = 40
u$ = 64
v$ = 72
$T3 = 80
w$ = 80
PMCCS_Equals_L_X$catch$0 PROC

; 1076 :         {

  00000	48 89 54 24 10	 mov	 QWORD PTR [rsp+16], rdx
  00005	55		 push	 rbp
  00006	48 83 ec 20	 sub	 rsp, 32			; 00000020H
  0000a	48 8b ea	 mov	 rbp, rdx
__catch$PMCCS_Equals_L_X$0:
; File z:\sources\lunor\repos\rougemeilland\palmtree.math.core.uint\palmtree.math.core.uint\pmc_exception.h

; 75   :             return (_code);

  0000d	48 8b 45 28	 mov	 rax, QWORD PTR ex$2[rbp]
  00011	8b 48 18	 mov	 ecx, DWORD PTR [rax+24]
  00014	89 4d 50	 mov	 DWORD PTR $T3[rbp], ecx
; File z:\sources\lunor\repos\rougemeilland\palmtree.math.core.uint\palmtree.math.core.uint\pmc_interface_csharp.cpp

; 1077 :             return (ex.GetStatusCode());

  00017	48 8d 05 00 00
	00 00		 lea	 rax, $LN8@PMCCS_Equa
  0001e	48 83 c4 20	 add	 rsp, 32			; 00000020H
  00022	5d		 pop	 rbp
  00023	c3		 ret	 0
  00024	cc		 int	 3
PMCCS_Equals_L_X$catch$0 ENDP
text$x	ENDS
; Function compile flags: /Ogtpy
; File z:\sources\lunor\repos\rougemeilland\palmtree.math.core.uint\palmtree.math.core.uint\pmc_interface_csharp.cpp
;	COMDAT PMCCS_Equals_I_X
_TEXT	SEGMENT
$T1 = 32
ex$2 = 40
u$ = 64
v$ = 72
$T3 = 80
w$ = 80
PMCCS_Equals_I_X PROC					; COMDAT

; 1052 :     {

$LN13:
  00000	40 53		 push	 rbx
  00002	48 83 ec 30	 sub	 rsp, 48			; 00000030H
  00006	48 c7 44 24 20
	fe ff ff ff	 mov	 QWORD PTR $T1[rsp], -2
  0000f	49 8b d8	 mov	 rbx, r8

; 1053 :         if (w == nullptr)

  00012	4d 85 c0	 test	 r8, r8
  00015	75 0a		 jne	 SHORT $LN2@PMCCS_Equa

; 1054 :             return (PMC_STATUS_ARGUMENT_NULL_ERROR);

  00017	41 8d 40 fe	 lea	 eax, QWORD PTR [r8-2]

; 1063 :         }
; 1064 :     }

  0001b	48 83 c4 30	 add	 rsp, 48			; 00000030H
  0001f	5b		 pop	 rbx
  00020	c3		 ret	 0
$LN2@PMCCS_Equa:

; 1055 :         try
; 1056 :         {
; 1057 :             *w = PMC_Equals_I_X(u, v);

  00021	e8 00 00 00 00	 call	 ?PMC_Equals_I_X@Internal@Core@Math@Palmtree@@YAIIPEAU__tag_PMC_HANDLE_UINT@1234@@Z ; Palmtree::Math::Core::Internal::PMC_Equals_I_X
  00026	89 03		 mov	 DWORD PTR [rbx], eax

; 1058 :             return (PMC_STATUS_OK);

  00028	33 c0		 xor	 eax, eax
  0002a	eb 04		 jmp	 SHORT $LN7@PMCCS_Equa
$LN8@PMCCS_Equa:

; 1059 :         }
; 1060 :         catch (const Palmtree::Math::Core::Internal::Exception& ex)
; 1061 :         {
; 1062 :             return (ex.GetStatusCode());

  0002c	8b 44 24 50	 mov	 eax, DWORD PTR $T3[rsp]
$LN7@PMCCS_Equa:

; 1063 :         }
; 1064 :     }

  00030	48 83 c4 30	 add	 rsp, 48			; 00000030H
  00034	5b		 pop	 rbx
  00035	c3		 ret	 0
  00036	cc		 int	 3
PMCCS_Equals_I_X ENDP
_TEXT	ENDS
;	COMDAT text$x
text$x	SEGMENT
$T1 = 32
ex$2 = 40
u$ = 64
v$ = 72
$T3 = 80
w$ = 80
PMCCS_Equals_I_X$catch$0 PROC

; 1059 :         }
; 1060 :         catch (const Palmtree::Math::Core::Internal::Exception& ex)
; 1061 :         {

  00000	48 89 54 24 10	 mov	 QWORD PTR [rsp+16], rdx
  00005	55		 push	 rbp
  00006	48 83 ec 20	 sub	 rsp, 32			; 00000020H
  0000a	48 8b ea	 mov	 rbp, rdx
__catch$PMCCS_Equals_I_X$0:
; File z:\sources\lunor\repos\rougemeilland\palmtree.math.core.uint\palmtree.math.core.uint\pmc_exception.h

; 75   :             return (_code);

  0000d	48 8b 45 28	 mov	 rax, QWORD PTR ex$2[rbp]
  00011	8b 48 18	 mov	 ecx, DWORD PTR [rax+24]
  00014	89 4d 50	 mov	 DWORD PTR $T3[rbp], ecx
; File z:\sources\lunor\repos\rougemeilland\palmtree.math.core.uint\palmtree.math.core.uint\pmc_interface_csharp.cpp

; 1059 :         }
; 1060 :         catch (const Palmtree::Math::Core::Internal::Exception& ex)
; 1061 :         {
; 1062 :             return (ex.GetStatusCode());

  00017	48 8d 05 00 00
	00 00		 lea	 rax, $LN8@PMCCS_Equa
  0001e	48 83 c4 20	 add	 rsp, 32			; 00000020H
  00022	5d		 pop	 rbp
  00023	c3		 ret	 0
  00024	cc		 int	 3
PMCCS_Equals_I_X$catch$0 ENDP
text$x	ENDS
; Function compile flags: /Ogtpy
; File z:\sources\lunor\repos\rougemeilland\palmtree.math.core.uint\palmtree.math.core.uint\pmc_exception.h
; File z:\sources\lunor\repos\rougemeilland\palmtree.math.core.uint\palmtree.math.core.uint\pmc_interface_csharp.cpp
;	COMDAT text$x
text$x	SEGMENT
$T1 = 32
ex$2 = 40
u$ = 64
v$ = 72
$T3 = 80
w$ = 80
PMCCS_Equals_I_X$catch$0 PROC

; 1061 :         {

  00000	48 89 54 24 10	 mov	 QWORD PTR [rsp+16], rdx
  00005	55		 push	 rbp
  00006	48 83 ec 20	 sub	 rsp, 32			; 00000020H
  0000a	48 8b ea	 mov	 rbp, rdx
__catch$PMCCS_Equals_I_X$0:
; File z:\sources\lunor\repos\rougemeilland\palmtree.math.core.uint\palmtree.math.core.uint\pmc_exception.h

; 75   :             return (_code);

  0000d	48 8b 45 28	 mov	 rax, QWORD PTR ex$2[rbp]
  00011	8b 48 18	 mov	 ecx, DWORD PTR [rax+24]
  00014	89 4d 50	 mov	 DWORD PTR $T3[rbp], ecx
; File z:\sources\lunor\repos\rougemeilland\palmtree.math.core.uint\palmtree.math.core.uint\pmc_interface_csharp.cpp

; 1062 :             return (ex.GetStatusCode());

  00017	48 8d 05 00 00
	00 00		 lea	 rax, $LN8@PMCCS_Equa
  0001e	48 83 c4 20	 add	 rsp, 32			; 00000020H
  00022	5d		 pop	 rbp
  00023	c3		 ret	 0
  00024	cc		 int	 3
PMCCS_Equals_I_X$catch$0 ENDP
text$x	ENDS
; Function compile flags: /Ogtpy
; File z:\sources\lunor\repos\rougemeilland\palmtree.math.core.uint\palmtree.math.core.uint\pmc_interface_csharp.cpp
;	COMDAT PMCCS_Compare_X_X
_TEXT	SEGMENT
$T1 = 32
ex$2 = 40
u$ = 64
v$ = 72
$T3 = 80
w$ = 80
PMCCS_Compare_X_X PROC					; COMDAT

; 1037 :     {

$LN13:
  00000	40 53		 push	 rbx
  00002	48 83 ec 30	 sub	 rsp, 48			; 00000030H
  00006	48 c7 44 24 20
	fe ff ff ff	 mov	 QWORD PTR $T1[rsp], -2
  0000f	49 8b d8	 mov	 rbx, r8

; 1038 :         if (w == nullptr)

  00012	4d 85 c0	 test	 r8, r8
  00015	75 0a		 jne	 SHORT $LN2@PMCCS_Comp

; 1039 :             return (PMC_STATUS_ARGUMENT_NULL_ERROR);

  00017	41 8d 40 fe	 lea	 eax, QWORD PTR [r8-2]

; 1048 :         }
; 1049 :     }

  0001b	48 83 c4 30	 add	 rsp, 48			; 00000030H
  0001f	5b		 pop	 rbx
  00020	c3		 ret	 0
$LN2@PMCCS_Comp:

; 1040 :         try
; 1041 :         {
; 1042 :             *w = PMC_Compare_X_X(u, v);

  00021	e8 00 00 00 00	 call	 ?PMC_Compare_X_X@Internal@Core@Math@Palmtree@@YAHPEAU__tag_PMC_HANDLE_UINT@1234@0@Z ; Palmtree::Math::Core::Internal::PMC_Compare_X_X
  00026	89 03		 mov	 DWORD PTR [rbx], eax

; 1043 :             return (PMC_STATUS_OK);

  00028	33 c0		 xor	 eax, eax
  0002a	eb 04		 jmp	 SHORT $LN7@PMCCS_Comp
$LN8@PMCCS_Comp:

; 1044 :         }
; 1045 :         catch (const Palmtree::Math::Core::Internal::Exception& ex)
; 1046 :         {
; 1047 :             return (ex.GetStatusCode());

  0002c	8b 44 24 50	 mov	 eax, DWORD PTR $T3[rsp]
$LN7@PMCCS_Comp:

; 1048 :         }
; 1049 :     }

  00030	48 83 c4 30	 add	 rsp, 48			; 00000030H
  00034	5b		 pop	 rbx
  00035	c3		 ret	 0
  00036	cc		 int	 3
PMCCS_Compare_X_X ENDP
_TEXT	ENDS
;	COMDAT text$x
text$x	SEGMENT
$T1 = 32
ex$2 = 40
u$ = 64
v$ = 72
$T3 = 80
w$ = 80
PMCCS_Compare_X_X$catch$0 PROC

; 1044 :         }
; 1045 :         catch (const Palmtree::Math::Core::Internal::Exception& ex)
; 1046 :         {

  00000	48 89 54 24 10	 mov	 QWORD PTR [rsp+16], rdx
  00005	55		 push	 rbp
  00006	48 83 ec 20	 sub	 rsp, 32			; 00000020H
  0000a	48 8b ea	 mov	 rbp, rdx
__catch$PMCCS_Compare_X_X$0:
; File z:\sources\lunor\repos\rougemeilland\palmtree.math.core.uint\palmtree.math.core.uint\pmc_exception.h

; 75   :             return (_code);

  0000d	48 8b 45 28	 mov	 rax, QWORD PTR ex$2[rbp]
  00011	8b 48 18	 mov	 ecx, DWORD PTR [rax+24]
  00014	89 4d 50	 mov	 DWORD PTR $T3[rbp], ecx
; File z:\sources\lunor\repos\rougemeilland\palmtree.math.core.uint\palmtree.math.core.uint\pmc_interface_csharp.cpp

; 1044 :         }
; 1045 :         catch (const Palmtree::Math::Core::Internal::Exception& ex)
; 1046 :         {
; 1047 :             return (ex.GetStatusCode());

  00017	48 8d 05 00 00
	00 00		 lea	 rax, $LN8@PMCCS_Comp
  0001e	48 83 c4 20	 add	 rsp, 32			; 00000020H
  00022	5d		 pop	 rbp
  00023	c3		 ret	 0
  00024	cc		 int	 3
PMCCS_Compare_X_X$catch$0 ENDP
text$x	ENDS
; Function compile flags: /Ogtpy
; File z:\sources\lunor\repos\rougemeilland\palmtree.math.core.uint\palmtree.math.core.uint\pmc_exception.h
; File z:\sources\lunor\repos\rougemeilland\palmtree.math.core.uint\palmtree.math.core.uint\pmc_interface_csharp.cpp
;	COMDAT text$x
text$x	SEGMENT
$T1 = 32
ex$2 = 40
u$ = 64
v$ = 72
$T3 = 80
w$ = 80
PMCCS_Compare_X_X$catch$0 PROC

; 1046 :         {

  00000	48 89 54 24 10	 mov	 QWORD PTR [rsp+16], rdx
  00005	55		 push	 rbp
  00006	48 83 ec 20	 sub	 rsp, 32			; 00000020H
  0000a	48 8b ea	 mov	 rbp, rdx
__catch$PMCCS_Compare_X_X$0:
; File z:\sources\lunor\repos\rougemeilland\palmtree.math.core.uint\palmtree.math.core.uint\pmc_exception.h

; 75   :             return (_code);

  0000d	48 8b 45 28	 mov	 rax, QWORD PTR ex$2[rbp]
  00011	8b 48 18	 mov	 ecx, DWORD PTR [rax+24]
  00014	89 4d 50	 mov	 DWORD PTR $T3[rbp], ecx
; File z:\sources\lunor\repos\rougemeilland\palmtree.math.core.uint\palmtree.math.core.uint\pmc_interface_csharp.cpp

; 1047 :             return (ex.GetStatusCode());

  00017	48 8d 05 00 00
	00 00		 lea	 rax, $LN8@PMCCS_Comp
  0001e	48 83 c4 20	 add	 rsp, 32			; 00000020H
  00022	5d		 pop	 rbp
  00023	c3		 ret	 0
  00024	cc		 int	 3
PMCCS_Compare_X_X$catch$0 ENDP
text$x	ENDS
; Function compile flags: /Ogtpy
; File z:\sources\lunor\repos\rougemeilland\palmtree.math.core.uint\palmtree.math.core.uint\pmc_interface_csharp.cpp
;	COMDAT PMCCS_Compare_X_L
_TEXT	SEGMENT
$T1 = 32
ex$2 = 40
u$ = 64
v$ = 72
$T3 = 80
w$ = 80
PMCCS_Compare_X_L PROC					; COMDAT

; 1022 :     {

$LN13:
  00000	40 53		 push	 rbx
  00002	48 83 ec 30	 sub	 rsp, 48			; 00000030H
  00006	48 c7 44 24 20
	fe ff ff ff	 mov	 QWORD PTR $T1[rsp], -2
  0000f	49 8b d8	 mov	 rbx, r8

; 1023 :         if (w == nullptr)

  00012	4d 85 c0	 test	 r8, r8
  00015	75 0a		 jne	 SHORT $LN2@PMCCS_Comp

; 1024 :             return (PMC_STATUS_ARGUMENT_NULL_ERROR);

  00017	41 8d 40 fe	 lea	 eax, QWORD PTR [r8-2]

; 1033 :         }
; 1034 :     }

  0001b	48 83 c4 30	 add	 rsp, 48			; 00000030H
  0001f	5b		 pop	 rbx
  00020	c3		 ret	 0
$LN2@PMCCS_Comp:

; 1025 :         try
; 1026 :         {
; 1027 :             *w = PMC_Compare_X_L(u, v);

  00021	e8 00 00 00 00	 call	 ?PMC_Compare_X_L@Internal@Core@Math@Palmtree@@YAHPEAU__tag_PMC_HANDLE_UINT@1234@_K@Z ; Palmtree::Math::Core::Internal::PMC_Compare_X_L
  00026	89 03		 mov	 DWORD PTR [rbx], eax

; 1028 :             return (PMC_STATUS_OK);

  00028	33 c0		 xor	 eax, eax
  0002a	eb 04		 jmp	 SHORT $LN7@PMCCS_Comp
$LN8@PMCCS_Comp:

; 1029 :         }
; 1030 :         catch (const Palmtree::Math::Core::Internal::Exception& ex)
; 1031 :         {
; 1032 :             return (ex.GetStatusCode());

  0002c	8b 44 24 50	 mov	 eax, DWORD PTR $T3[rsp]
$LN7@PMCCS_Comp:

; 1033 :         }
; 1034 :     }

  00030	48 83 c4 30	 add	 rsp, 48			; 00000030H
  00034	5b		 pop	 rbx
  00035	c3		 ret	 0
  00036	cc		 int	 3
PMCCS_Compare_X_L ENDP
_TEXT	ENDS
;	COMDAT text$x
text$x	SEGMENT
$T1 = 32
ex$2 = 40
u$ = 64
v$ = 72
$T3 = 80
w$ = 80
PMCCS_Compare_X_L$catch$0 PROC

; 1029 :         }
; 1030 :         catch (const Palmtree::Math::Core::Internal::Exception& ex)
; 1031 :         {

  00000	48 89 54 24 10	 mov	 QWORD PTR [rsp+16], rdx
  00005	55		 push	 rbp
  00006	48 83 ec 20	 sub	 rsp, 32			; 00000020H
  0000a	48 8b ea	 mov	 rbp, rdx
__catch$PMCCS_Compare_X_L$0:
; File z:\sources\lunor\repos\rougemeilland\palmtree.math.core.uint\palmtree.math.core.uint\pmc_exception.h

; 75   :             return (_code);

  0000d	48 8b 45 28	 mov	 rax, QWORD PTR ex$2[rbp]
  00011	8b 48 18	 mov	 ecx, DWORD PTR [rax+24]
  00014	89 4d 50	 mov	 DWORD PTR $T3[rbp], ecx
; File z:\sources\lunor\repos\rougemeilland\palmtree.math.core.uint\palmtree.math.core.uint\pmc_interface_csharp.cpp

; 1029 :         }
; 1030 :         catch (const Palmtree::Math::Core::Internal::Exception& ex)
; 1031 :         {
; 1032 :             return (ex.GetStatusCode());

  00017	48 8d 05 00 00
	00 00		 lea	 rax, $LN8@PMCCS_Comp
  0001e	48 83 c4 20	 add	 rsp, 32			; 00000020H
  00022	5d		 pop	 rbp
  00023	c3		 ret	 0
  00024	cc		 int	 3
PMCCS_Compare_X_L$catch$0 ENDP
text$x	ENDS
; Function compile flags: /Ogtpy
; File z:\sources\lunor\repos\rougemeilland\palmtree.math.core.uint\palmtree.math.core.uint\pmc_exception.h
; File z:\sources\lunor\repos\rougemeilland\palmtree.math.core.uint\palmtree.math.core.uint\pmc_interface_csharp.cpp
;	COMDAT text$x
text$x	SEGMENT
$T1 = 32
ex$2 = 40
u$ = 64
v$ = 72
$T3 = 80
w$ = 80
PMCCS_Compare_X_L$catch$0 PROC

; 1031 :         {

  00000	48 89 54 24 10	 mov	 QWORD PTR [rsp+16], rdx
  00005	55		 push	 rbp
  00006	48 83 ec 20	 sub	 rsp, 32			; 00000020H
  0000a	48 8b ea	 mov	 rbp, rdx
__catch$PMCCS_Compare_X_L$0:
; File z:\sources\lunor\repos\rougemeilland\palmtree.math.core.uint\palmtree.math.core.uint\pmc_exception.h

; 75   :             return (_code);

  0000d	48 8b 45 28	 mov	 rax, QWORD PTR ex$2[rbp]
  00011	8b 48 18	 mov	 ecx, DWORD PTR [rax+24]
  00014	89 4d 50	 mov	 DWORD PTR $T3[rbp], ecx
; File z:\sources\lunor\repos\rougemeilland\palmtree.math.core.uint\palmtree.math.core.uint\pmc_interface_csharp.cpp

; 1032 :             return (ex.GetStatusCode());

  00017	48 8d 05 00 00
	00 00		 lea	 rax, $LN8@PMCCS_Comp
  0001e	48 83 c4 20	 add	 rsp, 32			; 00000020H
  00022	5d		 pop	 rbp
  00023	c3		 ret	 0
  00024	cc		 int	 3
PMCCS_Compare_X_L$catch$0 ENDP
text$x	ENDS
; Function compile flags: /Ogtpy
; File z:\sources\lunor\repos\rougemeilland\palmtree.math.core.uint\palmtree.math.core.uint\pmc_interface_csharp.cpp
;	COMDAT PMCCS_Compare_X_I
_TEXT	SEGMENT
$T1 = 32
ex$2 = 40
u$ = 64
v$ = 72
$T3 = 80
w$ = 80
PMCCS_Compare_X_I PROC					; COMDAT

; 1007 :     {

$LN13:
  00000	40 53		 push	 rbx
  00002	48 83 ec 30	 sub	 rsp, 48			; 00000030H
  00006	48 c7 44 24 20
	fe ff ff ff	 mov	 QWORD PTR $T1[rsp], -2
  0000f	49 8b d8	 mov	 rbx, r8

; 1008 :         if (w == nullptr)

  00012	4d 85 c0	 test	 r8, r8
  00015	75 0a		 jne	 SHORT $LN2@PMCCS_Comp

; 1009 :             return (PMC_STATUS_ARGUMENT_NULL_ERROR);

  00017	41 8d 40 fe	 lea	 eax, QWORD PTR [r8-2]

; 1018 :         }
; 1019 :     }

  0001b	48 83 c4 30	 add	 rsp, 48			; 00000030H
  0001f	5b		 pop	 rbx
  00020	c3		 ret	 0
$LN2@PMCCS_Comp:

; 1010 :         try
; 1011 :         {
; 1012 :             *w = PMC_Compare_X_I(u, v);

  00021	e8 00 00 00 00	 call	 ?PMC_Compare_X_I@Internal@Core@Math@Palmtree@@YAHPEAU__tag_PMC_HANDLE_UINT@1234@I@Z ; Palmtree::Math::Core::Internal::PMC_Compare_X_I
  00026	89 03		 mov	 DWORD PTR [rbx], eax

; 1013 :             return (PMC_STATUS_OK);

  00028	33 c0		 xor	 eax, eax
  0002a	eb 04		 jmp	 SHORT $LN7@PMCCS_Comp
$LN8@PMCCS_Comp:

; 1014 :         }
; 1015 :         catch (const Palmtree::Math::Core::Internal::Exception& ex)
; 1016 :         {
; 1017 :             return (ex.GetStatusCode());

  0002c	8b 44 24 50	 mov	 eax, DWORD PTR $T3[rsp]
$LN7@PMCCS_Comp:

; 1018 :         }
; 1019 :     }

  00030	48 83 c4 30	 add	 rsp, 48			; 00000030H
  00034	5b		 pop	 rbx
  00035	c3		 ret	 0
  00036	cc		 int	 3
PMCCS_Compare_X_I ENDP
_TEXT	ENDS
;	COMDAT text$x
text$x	SEGMENT
$T1 = 32
ex$2 = 40
u$ = 64
v$ = 72
$T3 = 80
w$ = 80
PMCCS_Compare_X_I$catch$0 PROC

; 1014 :         }
; 1015 :         catch (const Palmtree::Math::Core::Internal::Exception& ex)
; 1016 :         {

  00000	48 89 54 24 10	 mov	 QWORD PTR [rsp+16], rdx
  00005	55		 push	 rbp
  00006	48 83 ec 20	 sub	 rsp, 32			; 00000020H
  0000a	48 8b ea	 mov	 rbp, rdx
__catch$PMCCS_Compare_X_I$0:
; File z:\sources\lunor\repos\rougemeilland\palmtree.math.core.uint\palmtree.math.core.uint\pmc_exception.h

; 75   :             return (_code);

  0000d	48 8b 45 28	 mov	 rax, QWORD PTR ex$2[rbp]
  00011	8b 48 18	 mov	 ecx, DWORD PTR [rax+24]
  00014	89 4d 50	 mov	 DWORD PTR $T3[rbp], ecx
; File z:\sources\lunor\repos\rougemeilland\palmtree.math.core.uint\palmtree.math.core.uint\pmc_interface_csharp.cpp

; 1014 :         }
; 1015 :         catch (const Palmtree::Math::Core::Internal::Exception& ex)
; 1016 :         {
; 1017 :             return (ex.GetStatusCode());

  00017	48 8d 05 00 00
	00 00		 lea	 rax, $LN8@PMCCS_Comp
  0001e	48 83 c4 20	 add	 rsp, 32			; 00000020H
  00022	5d		 pop	 rbp
  00023	c3		 ret	 0
  00024	cc		 int	 3
PMCCS_Compare_X_I$catch$0 ENDP
text$x	ENDS
; Function compile flags: /Ogtpy
; File z:\sources\lunor\repos\rougemeilland\palmtree.math.core.uint\palmtree.math.core.uint\pmc_exception.h
; File z:\sources\lunor\repos\rougemeilland\palmtree.math.core.uint\palmtree.math.core.uint\pmc_interface_csharp.cpp
;	COMDAT text$x
text$x	SEGMENT
$T1 = 32
ex$2 = 40
u$ = 64
v$ = 72
$T3 = 80
w$ = 80
PMCCS_Compare_X_I$catch$0 PROC

; 1016 :         {

  00000	48 89 54 24 10	 mov	 QWORD PTR [rsp+16], rdx
  00005	55		 push	 rbp
  00006	48 83 ec 20	 sub	 rsp, 32			; 00000020H
  0000a	48 8b ea	 mov	 rbp, rdx
__catch$PMCCS_Compare_X_I$0:
; File z:\sources\lunor\repos\rougemeilland\palmtree.math.core.uint\palmtree.math.core.uint\pmc_exception.h

; 75   :             return (_code);

  0000d	48 8b 45 28	 mov	 rax, QWORD PTR ex$2[rbp]
  00011	8b 48 18	 mov	 ecx, DWORD PTR [rax+24]
  00014	89 4d 50	 mov	 DWORD PTR $T3[rbp], ecx
; File z:\sources\lunor\repos\rougemeilland\palmtree.math.core.uint\palmtree.math.core.uint\pmc_interface_csharp.cpp

; 1017 :             return (ex.GetStatusCode());

  00017	48 8d 05 00 00
	00 00		 lea	 rax, $LN8@PMCCS_Comp
  0001e	48 83 c4 20	 add	 rsp, 32			; 00000020H
  00022	5d		 pop	 rbp
  00023	c3		 ret	 0
  00024	cc		 int	 3
PMCCS_Compare_X_I$catch$0 ENDP
text$x	ENDS
; Function compile flags: /Ogtpy
; File z:\sources\lunor\repos\rougemeilland\palmtree.math.core.uint\palmtree.math.core.uint\pmc_interface_csharp.cpp
;	COMDAT PMCCS_Compare_L_X
_TEXT	SEGMENT
$T1 = 32
ex$2 = 40
u$ = 64
v$ = 72
$T3 = 80
w$ = 80
PMCCS_Compare_L_X PROC					; COMDAT

; 992  :     {

$LN13:
  00000	40 53		 push	 rbx
  00002	48 83 ec 30	 sub	 rsp, 48			; 00000030H
  00006	48 c7 44 24 20
	fe ff ff ff	 mov	 QWORD PTR $T1[rsp], -2
  0000f	49 8b d8	 mov	 rbx, r8

; 993  :         if (w == nullptr)

  00012	4d 85 c0	 test	 r8, r8
  00015	75 0a		 jne	 SHORT $LN2@PMCCS_Comp

; 994  :             return (PMC_STATUS_ARGUMENT_NULL_ERROR);

  00017	41 8d 40 fe	 lea	 eax, QWORD PTR [r8-2]

; 1003 :         }
; 1004 :     }

  0001b	48 83 c4 30	 add	 rsp, 48			; 00000030H
  0001f	5b		 pop	 rbx
  00020	c3		 ret	 0
$LN2@PMCCS_Comp:

; 995  :         try
; 996  :         {
; 997  :             *w = PMC_Compare_L_X(u, v);

  00021	e8 00 00 00 00	 call	 ?PMC_Compare_L_X@Internal@Core@Math@Palmtree@@YAH_KPEAU__tag_PMC_HANDLE_UINT@1234@@Z ; Palmtree::Math::Core::Internal::PMC_Compare_L_X
  00026	89 03		 mov	 DWORD PTR [rbx], eax

; 998  :             return (PMC_STATUS_OK);

  00028	33 c0		 xor	 eax, eax
  0002a	eb 04		 jmp	 SHORT $LN7@PMCCS_Comp
$LN8@PMCCS_Comp:

; 999  :         }
; 1000 :         catch (const Palmtree::Math::Core::Internal::Exception& ex)
; 1001 :         {
; 1002 :             return (ex.GetStatusCode());

  0002c	8b 44 24 50	 mov	 eax, DWORD PTR $T3[rsp]
$LN7@PMCCS_Comp:

; 1003 :         }
; 1004 :     }

  00030	48 83 c4 30	 add	 rsp, 48			; 00000030H
  00034	5b		 pop	 rbx
  00035	c3		 ret	 0
  00036	cc		 int	 3
PMCCS_Compare_L_X ENDP
_TEXT	ENDS
;	COMDAT text$x
text$x	SEGMENT
$T1 = 32
ex$2 = 40
u$ = 64
v$ = 72
$T3 = 80
w$ = 80
PMCCS_Compare_L_X$catch$0 PROC

; 999  :         }
; 1000 :         catch (const Palmtree::Math::Core::Internal::Exception& ex)
; 1001 :         {

  00000	48 89 54 24 10	 mov	 QWORD PTR [rsp+16], rdx
  00005	55		 push	 rbp
  00006	48 83 ec 20	 sub	 rsp, 32			; 00000020H
  0000a	48 8b ea	 mov	 rbp, rdx
__catch$PMCCS_Compare_L_X$0:
; File z:\sources\lunor\repos\rougemeilland\palmtree.math.core.uint\palmtree.math.core.uint\pmc_exception.h

; 75   :             return (_code);

  0000d	48 8b 45 28	 mov	 rax, QWORD PTR ex$2[rbp]
  00011	8b 48 18	 mov	 ecx, DWORD PTR [rax+24]
  00014	89 4d 50	 mov	 DWORD PTR $T3[rbp], ecx
; File z:\sources\lunor\repos\rougemeilland\palmtree.math.core.uint\palmtree.math.core.uint\pmc_interface_csharp.cpp

; 999  :         }
; 1000 :         catch (const Palmtree::Math::Core::Internal::Exception& ex)
; 1001 :         {
; 1002 :             return (ex.GetStatusCode());

  00017	48 8d 05 00 00
	00 00		 lea	 rax, $LN8@PMCCS_Comp
  0001e	48 83 c4 20	 add	 rsp, 32			; 00000020H
  00022	5d		 pop	 rbp
  00023	c3		 ret	 0
  00024	cc		 int	 3
PMCCS_Compare_L_X$catch$0 ENDP
text$x	ENDS
; Function compile flags: /Ogtpy
; File z:\sources\lunor\repos\rougemeilland\palmtree.math.core.uint\palmtree.math.core.uint\pmc_exception.h
; File z:\sources\lunor\repos\rougemeilland\palmtree.math.core.uint\palmtree.math.core.uint\pmc_interface_csharp.cpp
;	COMDAT text$x
text$x	SEGMENT
$T1 = 32
ex$2 = 40
u$ = 64
v$ = 72
$T3 = 80
w$ = 80
PMCCS_Compare_L_X$catch$0 PROC

; 1001 :         {

  00000	48 89 54 24 10	 mov	 QWORD PTR [rsp+16], rdx
  00005	55		 push	 rbp
  00006	48 83 ec 20	 sub	 rsp, 32			; 00000020H
  0000a	48 8b ea	 mov	 rbp, rdx
__catch$PMCCS_Compare_L_X$0:
; File z:\sources\lunor\repos\rougemeilland\palmtree.math.core.uint\palmtree.math.core.uint\pmc_exception.h

; 75   :             return (_code);

  0000d	48 8b 45 28	 mov	 rax, QWORD PTR ex$2[rbp]
  00011	8b 48 18	 mov	 ecx, DWORD PTR [rax+24]
  00014	89 4d 50	 mov	 DWORD PTR $T3[rbp], ecx
; File z:\sources\lunor\repos\rougemeilland\palmtree.math.core.uint\palmtree.math.core.uint\pmc_interface_csharp.cpp

; 1002 :             return (ex.GetStatusCode());

  00017	48 8d 05 00 00
	00 00		 lea	 rax, $LN8@PMCCS_Comp
  0001e	48 83 c4 20	 add	 rsp, 32			; 00000020H
  00022	5d		 pop	 rbp
  00023	c3		 ret	 0
  00024	cc		 int	 3
PMCCS_Compare_L_X$catch$0 ENDP
text$x	ENDS
; Function compile flags: /Ogtpy
; File z:\sources\lunor\repos\rougemeilland\palmtree.math.core.uint\palmtree.math.core.uint\pmc_interface_csharp.cpp
;	COMDAT PMCCS_Compare_I_X
_TEXT	SEGMENT
$T1 = 32
ex$2 = 40
u$ = 64
v$ = 72
$T3 = 80
w$ = 80
PMCCS_Compare_I_X PROC					; COMDAT

; 977  :     {

$LN13:
  00000	40 53		 push	 rbx
  00002	48 83 ec 30	 sub	 rsp, 48			; 00000030H
  00006	48 c7 44 24 20
	fe ff ff ff	 mov	 QWORD PTR $T1[rsp], -2
  0000f	49 8b d8	 mov	 rbx, r8

; 978  :         if (w == nullptr)

  00012	4d 85 c0	 test	 r8, r8
  00015	75 0a		 jne	 SHORT $LN2@PMCCS_Comp

; 979  :             return (PMC_STATUS_ARGUMENT_NULL_ERROR);

  00017	41 8d 40 fe	 lea	 eax, QWORD PTR [r8-2]

; 988  :         }
; 989  :     }

  0001b	48 83 c4 30	 add	 rsp, 48			; 00000030H
  0001f	5b		 pop	 rbx
  00020	c3		 ret	 0
$LN2@PMCCS_Comp:

; 980  :         try
; 981  :         {
; 982  :             *w = PMC_Compare_I_X(u, v);

  00021	e8 00 00 00 00	 call	 ?PMC_Compare_I_X@Internal@Core@Math@Palmtree@@YAHIPEAU__tag_PMC_HANDLE_UINT@1234@@Z ; Palmtree::Math::Core::Internal::PMC_Compare_I_X
  00026	89 03		 mov	 DWORD PTR [rbx], eax

; 983  :             return (PMC_STATUS_OK);

  00028	33 c0		 xor	 eax, eax
  0002a	eb 04		 jmp	 SHORT $LN7@PMCCS_Comp
$LN8@PMCCS_Comp:

; 984  :         }
; 985  :         catch (const Palmtree::Math::Core::Internal::Exception& ex)
; 986  :         {
; 987  :             return (ex.GetStatusCode());

  0002c	8b 44 24 50	 mov	 eax, DWORD PTR $T3[rsp]
$LN7@PMCCS_Comp:

; 988  :         }
; 989  :     }

  00030	48 83 c4 30	 add	 rsp, 48			; 00000030H
  00034	5b		 pop	 rbx
  00035	c3		 ret	 0
  00036	cc		 int	 3
PMCCS_Compare_I_X ENDP
_TEXT	ENDS
;	COMDAT text$x
text$x	SEGMENT
$T1 = 32
ex$2 = 40
u$ = 64
v$ = 72
$T3 = 80
w$ = 80
PMCCS_Compare_I_X$catch$0 PROC

; 984  :         }
; 985  :         catch (const Palmtree::Math::Core::Internal::Exception& ex)
; 986  :         {

  00000	48 89 54 24 10	 mov	 QWORD PTR [rsp+16], rdx
  00005	55		 push	 rbp
  00006	48 83 ec 20	 sub	 rsp, 32			; 00000020H
  0000a	48 8b ea	 mov	 rbp, rdx
__catch$PMCCS_Compare_I_X$0:
; File z:\sources\lunor\repos\rougemeilland\palmtree.math.core.uint\palmtree.math.core.uint\pmc_exception.h

; 75   :             return (_code);

  0000d	48 8b 45 28	 mov	 rax, QWORD PTR ex$2[rbp]
  00011	8b 48 18	 mov	 ecx, DWORD PTR [rax+24]
  00014	89 4d 50	 mov	 DWORD PTR $T3[rbp], ecx
; File z:\sources\lunor\repos\rougemeilland\palmtree.math.core.uint\palmtree.math.core.uint\pmc_interface_csharp.cpp

; 984  :         }
; 985  :         catch (const Palmtree::Math::Core::Internal::Exception& ex)
; 986  :         {
; 987  :             return (ex.GetStatusCode());

  00017	48 8d 05 00 00
	00 00		 lea	 rax, $LN8@PMCCS_Comp
  0001e	48 83 c4 20	 add	 rsp, 32			; 00000020H
  00022	5d		 pop	 rbp
  00023	c3		 ret	 0
  00024	cc		 int	 3
PMCCS_Compare_I_X$catch$0 ENDP
text$x	ENDS
; Function compile flags: /Ogtpy
; File z:\sources\lunor\repos\rougemeilland\palmtree.math.core.uint\palmtree.math.core.uint\pmc_exception.h
; File z:\sources\lunor\repos\rougemeilland\palmtree.math.core.uint\palmtree.math.core.uint\pmc_interface_csharp.cpp
;	COMDAT text$x
text$x	SEGMENT
$T1 = 32
ex$2 = 40
u$ = 64
v$ = 72
$T3 = 80
w$ = 80
PMCCS_Compare_I_X$catch$0 PROC

; 986  :         {

  00000	48 89 54 24 10	 mov	 QWORD PTR [rsp+16], rdx
  00005	55		 push	 rbp
  00006	48 83 ec 20	 sub	 rsp, 32			; 00000020H
  0000a	48 8b ea	 mov	 rbp, rdx
__catch$PMCCS_Compare_I_X$0:
; File z:\sources\lunor\repos\rougemeilland\palmtree.math.core.uint\palmtree.math.core.uint\pmc_exception.h

; 75   :             return (_code);

  0000d	48 8b 45 28	 mov	 rax, QWORD PTR ex$2[rbp]
  00011	8b 48 18	 mov	 ecx, DWORD PTR [rax+24]
  00014	89 4d 50	 mov	 DWORD PTR $T3[rbp], ecx
; File z:\sources\lunor\repos\rougemeilland\palmtree.math.core.uint\palmtree.math.core.uint\pmc_interface_csharp.cpp

; 987  :             return (ex.GetStatusCode());

  00017	48 8d 05 00 00
	00 00		 lea	 rax, $LN8@PMCCS_Comp
  0001e	48 83 c4 20	 add	 rsp, 32			; 00000020H
  00022	5d		 pop	 rbp
  00023	c3		 ret	 0
  00024	cc		 int	 3
PMCCS_Compare_I_X$catch$0 ENDP
text$x	ENDS
; Function compile flags: /Ogtpy
; File z:\sources\lunor\repos\rougemeilland\palmtree.math.core.uint\palmtree.math.core.uint\pmc_interface_csharp.cpp
;	COMDAT PMCCS_ExclusiveOr_X_X
_TEXT	SEGMENT
$T1 = 32
ex$2 = 40
u$ = 64
v$ = 72
$T3 = 80
w$ = 80
PMCCS_ExclusiveOr_X_X PROC				; COMDAT

; 962  :     {

$LN13:
  00000	40 53		 push	 rbx
  00002	48 83 ec 30	 sub	 rsp, 48			; 00000030H
  00006	48 c7 44 24 20
	fe ff ff ff	 mov	 QWORD PTR $T1[rsp], -2
  0000f	49 8b d8	 mov	 rbx, r8

; 963  :         if (w == nullptr)

  00012	4d 85 c0	 test	 r8, r8
  00015	75 0a		 jne	 SHORT $LN2@PMCCS_Excl

; 964  :             return (PMC_STATUS_ARGUMENT_NULL_ERROR);

  00017	41 8d 40 fe	 lea	 eax, QWORD PTR [r8-2]

; 973  :         }
; 974  :     }

  0001b	48 83 c4 30	 add	 rsp, 48			; 00000030H
  0001f	5b		 pop	 rbx
  00020	c3		 ret	 0
$LN2@PMCCS_Excl:

; 965  :         try
; 966  :         {
; 967  :             *w = PMC_ExclusiveOr_X_X(u, v);

  00021	e8 00 00 00 00	 call	 ?PMC_ExclusiveOr_X_X@Internal@Core@Math@Palmtree@@YAPEAU__tag_PMC_HANDLE_UINT@1234@PEAU51234@0@Z ; Palmtree::Math::Core::Internal::PMC_ExclusiveOr_X_X
  00026	48 89 03	 mov	 QWORD PTR [rbx], rax

; 968  :             return (PMC_STATUS_OK);

  00029	33 c0		 xor	 eax, eax
  0002b	eb 04		 jmp	 SHORT $LN7@PMCCS_Excl
$LN8@PMCCS_Excl:

; 969  :         }
; 970  :         catch (const Palmtree::Math::Core::Internal::Exception& ex)
; 971  :         {
; 972  :             return (ex.GetStatusCode());

  0002d	8b 44 24 50	 mov	 eax, DWORD PTR $T3[rsp]
$LN7@PMCCS_Excl:

; 973  :         }
; 974  :     }

  00031	48 83 c4 30	 add	 rsp, 48			; 00000030H
  00035	5b		 pop	 rbx
  00036	c3		 ret	 0
  00037	cc		 int	 3
PMCCS_ExclusiveOr_X_X ENDP
_TEXT	ENDS
;	COMDAT text$x
text$x	SEGMENT
$T1 = 32
ex$2 = 40
u$ = 64
v$ = 72
$T3 = 80
w$ = 80
PMCCS_ExclusiveOr_X_X$catch$0 PROC

; 969  :         }
; 970  :         catch (const Palmtree::Math::Core::Internal::Exception& ex)
; 971  :         {

  00000	48 89 54 24 10	 mov	 QWORD PTR [rsp+16], rdx
  00005	55		 push	 rbp
  00006	48 83 ec 20	 sub	 rsp, 32			; 00000020H
  0000a	48 8b ea	 mov	 rbp, rdx
__catch$PMCCS_ExclusiveOr_X_X$0:
; File z:\sources\lunor\repos\rougemeilland\palmtree.math.core.uint\palmtree.math.core.uint\pmc_exception.h

; 75   :             return (_code);

  0000d	48 8b 45 28	 mov	 rax, QWORD PTR ex$2[rbp]
  00011	8b 48 18	 mov	 ecx, DWORD PTR [rax+24]
  00014	89 4d 50	 mov	 DWORD PTR $T3[rbp], ecx
; File z:\sources\lunor\repos\rougemeilland\palmtree.math.core.uint\palmtree.math.core.uint\pmc_interface_csharp.cpp

; 969  :         }
; 970  :         catch (const Palmtree::Math::Core::Internal::Exception& ex)
; 971  :         {
; 972  :             return (ex.GetStatusCode());

  00017	48 8d 05 00 00
	00 00		 lea	 rax, $LN8@PMCCS_Excl
  0001e	48 83 c4 20	 add	 rsp, 32			; 00000020H
  00022	5d		 pop	 rbp
  00023	c3		 ret	 0
  00024	cc		 int	 3
PMCCS_ExclusiveOr_X_X$catch$0 ENDP
text$x	ENDS
; Function compile flags: /Ogtpy
; File z:\sources\lunor\repos\rougemeilland\palmtree.math.core.uint\palmtree.math.core.uint\pmc_exception.h
; File z:\sources\lunor\repos\rougemeilland\palmtree.math.core.uint\palmtree.math.core.uint\pmc_interface_csharp.cpp
;	COMDAT text$x
text$x	SEGMENT
$T1 = 32
ex$2 = 40
u$ = 64
v$ = 72
$T3 = 80
w$ = 80
PMCCS_ExclusiveOr_X_X$catch$0 PROC

; 971  :         {

  00000	48 89 54 24 10	 mov	 QWORD PTR [rsp+16], rdx
  00005	55		 push	 rbp
  00006	48 83 ec 20	 sub	 rsp, 32			; 00000020H
  0000a	48 8b ea	 mov	 rbp, rdx
__catch$PMCCS_ExclusiveOr_X_X$0:
; File z:\sources\lunor\repos\rougemeilland\palmtree.math.core.uint\palmtree.math.core.uint\pmc_exception.h

; 75   :             return (_code);

  0000d	48 8b 45 28	 mov	 rax, QWORD PTR ex$2[rbp]
  00011	8b 48 18	 mov	 ecx, DWORD PTR [rax+24]
  00014	89 4d 50	 mov	 DWORD PTR $T3[rbp], ecx
; File z:\sources\lunor\repos\rougemeilland\palmtree.math.core.uint\palmtree.math.core.uint\pmc_interface_csharp.cpp

; 972  :             return (ex.GetStatusCode());

  00017	48 8d 05 00 00
	00 00		 lea	 rax, $LN8@PMCCS_Excl
  0001e	48 83 c4 20	 add	 rsp, 32			; 00000020H
  00022	5d		 pop	 rbp
  00023	c3		 ret	 0
  00024	cc		 int	 3
PMCCS_ExclusiveOr_X_X$catch$0 ENDP
text$x	ENDS
; Function compile flags: /Ogtpy
; File z:\sources\lunor\repos\rougemeilland\palmtree.math.core.uint\palmtree.math.core.uint\pmc_interface_csharp.cpp
;	COMDAT PMCCS_ExclusiveOr_X_L
_TEXT	SEGMENT
$T1 = 32
ex$2 = 40
u$ = 64
v$ = 72
$T3 = 80
w$ = 80
PMCCS_ExclusiveOr_X_L PROC				; COMDAT

; 947  :     {

$LN13:
  00000	40 53		 push	 rbx
  00002	48 83 ec 30	 sub	 rsp, 48			; 00000030H
  00006	48 c7 44 24 20
	fe ff ff ff	 mov	 QWORD PTR $T1[rsp], -2
  0000f	49 8b d8	 mov	 rbx, r8

; 948  :         if (w == nullptr)

  00012	4d 85 c0	 test	 r8, r8
  00015	75 0a		 jne	 SHORT $LN2@PMCCS_Excl

; 949  :             return (PMC_STATUS_ARGUMENT_NULL_ERROR);

  00017	41 8d 40 fe	 lea	 eax, QWORD PTR [r8-2]

; 958  :         }
; 959  :     }

  0001b	48 83 c4 30	 add	 rsp, 48			; 00000030H
  0001f	5b		 pop	 rbx
  00020	c3		 ret	 0
$LN2@PMCCS_Excl:

; 950  :         try
; 951  :         {
; 952  :             *w = PMC_ExclusiveOr_X_L(u, v);

  00021	e8 00 00 00 00	 call	 ?PMC_ExclusiveOr_X_L@Internal@Core@Math@Palmtree@@YAPEAU__tag_PMC_HANDLE_UINT@1234@PEAU51234@_K@Z ; Palmtree::Math::Core::Internal::PMC_ExclusiveOr_X_L
  00026	48 89 03	 mov	 QWORD PTR [rbx], rax

; 953  :             return (PMC_STATUS_OK);

  00029	33 c0		 xor	 eax, eax
  0002b	eb 04		 jmp	 SHORT $LN7@PMCCS_Excl
$LN8@PMCCS_Excl:

; 954  :         }
; 955  :         catch (const Palmtree::Math::Core::Internal::Exception& ex)
; 956  :         {
; 957  :             return (ex.GetStatusCode());

  0002d	8b 44 24 50	 mov	 eax, DWORD PTR $T3[rsp]
$LN7@PMCCS_Excl:

; 958  :         }
; 959  :     }

  00031	48 83 c4 30	 add	 rsp, 48			; 00000030H
  00035	5b		 pop	 rbx
  00036	c3		 ret	 0
  00037	cc		 int	 3
PMCCS_ExclusiveOr_X_L ENDP
_TEXT	ENDS
;	COMDAT text$x
text$x	SEGMENT
$T1 = 32
ex$2 = 40
u$ = 64
v$ = 72
$T3 = 80
w$ = 80
PMCCS_ExclusiveOr_X_L$catch$0 PROC

; 954  :         }
; 955  :         catch (const Palmtree::Math::Core::Internal::Exception& ex)
; 956  :         {

  00000	48 89 54 24 10	 mov	 QWORD PTR [rsp+16], rdx
  00005	55		 push	 rbp
  00006	48 83 ec 20	 sub	 rsp, 32			; 00000020H
  0000a	48 8b ea	 mov	 rbp, rdx
__catch$PMCCS_ExclusiveOr_X_L$0:
; File z:\sources\lunor\repos\rougemeilland\palmtree.math.core.uint\palmtree.math.core.uint\pmc_exception.h

; 75   :             return (_code);

  0000d	48 8b 45 28	 mov	 rax, QWORD PTR ex$2[rbp]
  00011	8b 48 18	 mov	 ecx, DWORD PTR [rax+24]
  00014	89 4d 50	 mov	 DWORD PTR $T3[rbp], ecx
; File z:\sources\lunor\repos\rougemeilland\palmtree.math.core.uint\palmtree.math.core.uint\pmc_interface_csharp.cpp

; 954  :         }
; 955  :         catch (const Palmtree::Math::Core::Internal::Exception& ex)
; 956  :         {
; 957  :             return (ex.GetStatusCode());

  00017	48 8d 05 00 00
	00 00		 lea	 rax, $LN8@PMCCS_Excl
  0001e	48 83 c4 20	 add	 rsp, 32			; 00000020H
  00022	5d		 pop	 rbp
  00023	c3		 ret	 0
  00024	cc		 int	 3
PMCCS_ExclusiveOr_X_L$catch$0 ENDP
text$x	ENDS
; Function compile flags: /Ogtpy
; File z:\sources\lunor\repos\rougemeilland\palmtree.math.core.uint\palmtree.math.core.uint\pmc_exception.h
; File z:\sources\lunor\repos\rougemeilland\palmtree.math.core.uint\palmtree.math.core.uint\pmc_interface_csharp.cpp
;	COMDAT text$x
text$x	SEGMENT
$T1 = 32
ex$2 = 40
u$ = 64
v$ = 72
$T3 = 80
w$ = 80
PMCCS_ExclusiveOr_X_L$catch$0 PROC

; 956  :         {

  00000	48 89 54 24 10	 mov	 QWORD PTR [rsp+16], rdx
  00005	55		 push	 rbp
  00006	48 83 ec 20	 sub	 rsp, 32			; 00000020H
  0000a	48 8b ea	 mov	 rbp, rdx
__catch$PMCCS_ExclusiveOr_X_L$0:
; File z:\sources\lunor\repos\rougemeilland\palmtree.math.core.uint\palmtree.math.core.uint\pmc_exception.h

; 75   :             return (_code);

  0000d	48 8b 45 28	 mov	 rax, QWORD PTR ex$2[rbp]
  00011	8b 48 18	 mov	 ecx, DWORD PTR [rax+24]
  00014	89 4d 50	 mov	 DWORD PTR $T3[rbp], ecx
; File z:\sources\lunor\repos\rougemeilland\palmtree.math.core.uint\palmtree.math.core.uint\pmc_interface_csharp.cpp

; 957  :             return (ex.GetStatusCode());

  00017	48 8d 05 00 00
	00 00		 lea	 rax, $LN8@PMCCS_Excl
  0001e	48 83 c4 20	 add	 rsp, 32			; 00000020H
  00022	5d		 pop	 rbp
  00023	c3		 ret	 0
  00024	cc		 int	 3
PMCCS_ExclusiveOr_X_L$catch$0 ENDP
text$x	ENDS
; Function compile flags: /Ogtpy
; File z:\sources\lunor\repos\rougemeilland\palmtree.math.core.uint\palmtree.math.core.uint\pmc_interface_csharp.cpp
;	COMDAT PMCCS_ExclusiveOr_X_I
_TEXT	SEGMENT
$T1 = 32
ex$2 = 40
u$ = 64
v$ = 72
$T3 = 80
w$ = 80
PMCCS_ExclusiveOr_X_I PROC				; COMDAT

; 932  :     {

$LN13:
  00000	40 53		 push	 rbx
  00002	48 83 ec 30	 sub	 rsp, 48			; 00000030H
  00006	48 c7 44 24 20
	fe ff ff ff	 mov	 QWORD PTR $T1[rsp], -2
  0000f	49 8b d8	 mov	 rbx, r8

; 933  :         if (w == nullptr)

  00012	4d 85 c0	 test	 r8, r8
  00015	75 0a		 jne	 SHORT $LN2@PMCCS_Excl

; 934  :             return (PMC_STATUS_ARGUMENT_NULL_ERROR);

  00017	41 8d 40 fe	 lea	 eax, QWORD PTR [r8-2]

; 943  :         }
; 944  :     }

  0001b	48 83 c4 30	 add	 rsp, 48			; 00000030H
  0001f	5b		 pop	 rbx
  00020	c3		 ret	 0
$LN2@PMCCS_Excl:

; 935  :         try
; 936  :         {
; 937  :             *w = PMC_ExclusiveOr_X_I(u, v);

  00021	e8 00 00 00 00	 call	 ?PMC_ExclusiveOr_X_I@Internal@Core@Math@Palmtree@@YAPEAU__tag_PMC_HANDLE_UINT@1234@PEAU51234@I@Z ; Palmtree::Math::Core::Internal::PMC_ExclusiveOr_X_I
  00026	48 89 03	 mov	 QWORD PTR [rbx], rax

; 938  :             return (PMC_STATUS_OK);

  00029	33 c0		 xor	 eax, eax
  0002b	eb 04		 jmp	 SHORT $LN7@PMCCS_Excl
$LN8@PMCCS_Excl:

; 939  :         }
; 940  :         catch (const Palmtree::Math::Core::Internal::Exception& ex)
; 941  :         {
; 942  :             return (ex.GetStatusCode());

  0002d	8b 44 24 50	 mov	 eax, DWORD PTR $T3[rsp]
$LN7@PMCCS_Excl:

; 943  :         }
; 944  :     }

  00031	48 83 c4 30	 add	 rsp, 48			; 00000030H
  00035	5b		 pop	 rbx
  00036	c3		 ret	 0
  00037	cc		 int	 3
PMCCS_ExclusiveOr_X_I ENDP
_TEXT	ENDS
;	COMDAT text$x
text$x	SEGMENT
$T1 = 32
ex$2 = 40
u$ = 64
v$ = 72
$T3 = 80
w$ = 80
PMCCS_ExclusiveOr_X_I$catch$0 PROC

; 939  :         }
; 940  :         catch (const Palmtree::Math::Core::Internal::Exception& ex)
; 941  :         {

  00000	48 89 54 24 10	 mov	 QWORD PTR [rsp+16], rdx
  00005	55		 push	 rbp
  00006	48 83 ec 20	 sub	 rsp, 32			; 00000020H
  0000a	48 8b ea	 mov	 rbp, rdx
__catch$PMCCS_ExclusiveOr_X_I$0:
; File z:\sources\lunor\repos\rougemeilland\palmtree.math.core.uint\palmtree.math.core.uint\pmc_exception.h

; 75   :             return (_code);

  0000d	48 8b 45 28	 mov	 rax, QWORD PTR ex$2[rbp]
  00011	8b 48 18	 mov	 ecx, DWORD PTR [rax+24]
  00014	89 4d 50	 mov	 DWORD PTR $T3[rbp], ecx
; File z:\sources\lunor\repos\rougemeilland\palmtree.math.core.uint\palmtree.math.core.uint\pmc_interface_csharp.cpp

; 939  :         }
; 940  :         catch (const Palmtree::Math::Core::Internal::Exception& ex)
; 941  :         {
; 942  :             return (ex.GetStatusCode());

  00017	48 8d 05 00 00
	00 00		 lea	 rax, $LN8@PMCCS_Excl
  0001e	48 83 c4 20	 add	 rsp, 32			; 00000020H
  00022	5d		 pop	 rbp
  00023	c3		 ret	 0
  00024	cc		 int	 3
PMCCS_ExclusiveOr_X_I$catch$0 ENDP
text$x	ENDS
; Function compile flags: /Ogtpy
; File z:\sources\lunor\repos\rougemeilland\palmtree.math.core.uint\palmtree.math.core.uint\pmc_exception.h
; File z:\sources\lunor\repos\rougemeilland\palmtree.math.core.uint\palmtree.math.core.uint\pmc_interface_csharp.cpp
;	COMDAT text$x
text$x	SEGMENT
$T1 = 32
ex$2 = 40
u$ = 64
v$ = 72
$T3 = 80
w$ = 80
PMCCS_ExclusiveOr_X_I$catch$0 PROC

; 941  :         {

  00000	48 89 54 24 10	 mov	 QWORD PTR [rsp+16], rdx
  00005	55		 push	 rbp
  00006	48 83 ec 20	 sub	 rsp, 32			; 00000020H
  0000a	48 8b ea	 mov	 rbp, rdx
__catch$PMCCS_ExclusiveOr_X_I$0:
; File z:\sources\lunor\repos\rougemeilland\palmtree.math.core.uint\palmtree.math.core.uint\pmc_exception.h

; 75   :             return (_code);

  0000d	48 8b 45 28	 mov	 rax, QWORD PTR ex$2[rbp]
  00011	8b 48 18	 mov	 ecx, DWORD PTR [rax+24]
  00014	89 4d 50	 mov	 DWORD PTR $T3[rbp], ecx
; File z:\sources\lunor\repos\rougemeilland\palmtree.math.core.uint\palmtree.math.core.uint\pmc_interface_csharp.cpp

; 942  :             return (ex.GetStatusCode());

  00017	48 8d 05 00 00
	00 00		 lea	 rax, $LN8@PMCCS_Excl
  0001e	48 83 c4 20	 add	 rsp, 32			; 00000020H
  00022	5d		 pop	 rbp
  00023	c3		 ret	 0
  00024	cc		 int	 3
PMCCS_ExclusiveOr_X_I$catch$0 ENDP
text$x	ENDS
; Function compile flags: /Ogtpy
; File z:\sources\lunor\repos\rougemeilland\palmtree.math.core.uint\palmtree.math.core.uint\pmc_interface_csharp.cpp
;	COMDAT PMCCS_ExclusiveOr_L_X
_TEXT	SEGMENT
$T1 = 32
ex$2 = 40
u$ = 64
v$ = 72
$T3 = 80
w$ = 80
PMCCS_ExclusiveOr_L_X PROC				; COMDAT

; 917  :     {

$LN13:
  00000	40 53		 push	 rbx
  00002	48 83 ec 30	 sub	 rsp, 48			; 00000030H
  00006	48 c7 44 24 20
	fe ff ff ff	 mov	 QWORD PTR $T1[rsp], -2
  0000f	49 8b d8	 mov	 rbx, r8

; 918  :         if (w == nullptr)

  00012	4d 85 c0	 test	 r8, r8
  00015	75 0a		 jne	 SHORT $LN2@PMCCS_Excl

; 919  :             return (PMC_STATUS_ARGUMENT_NULL_ERROR);

  00017	41 8d 40 fe	 lea	 eax, QWORD PTR [r8-2]

; 928  :         }
; 929  :     }

  0001b	48 83 c4 30	 add	 rsp, 48			; 00000030H
  0001f	5b		 pop	 rbx
  00020	c3		 ret	 0
$LN2@PMCCS_Excl:

; 920  :         try
; 921  :         {
; 922  :             *w = PMC_ExclusiveOr_L_X(u, v);

  00021	e8 00 00 00 00	 call	 ?PMC_ExclusiveOr_L_X@Internal@Core@Math@Palmtree@@YAPEAU__tag_PMC_HANDLE_UINT@1234@_KPEAU51234@@Z ; Palmtree::Math::Core::Internal::PMC_ExclusiveOr_L_X
  00026	48 89 03	 mov	 QWORD PTR [rbx], rax

; 923  :             return (PMC_STATUS_OK);

  00029	33 c0		 xor	 eax, eax
  0002b	eb 04		 jmp	 SHORT $LN7@PMCCS_Excl
$LN8@PMCCS_Excl:

; 924  :         }
; 925  :         catch (const Palmtree::Math::Core::Internal::Exception& ex)
; 926  :         {
; 927  :             return (ex.GetStatusCode());

  0002d	8b 44 24 50	 mov	 eax, DWORD PTR $T3[rsp]
$LN7@PMCCS_Excl:

; 928  :         }
; 929  :     }

  00031	48 83 c4 30	 add	 rsp, 48			; 00000030H
  00035	5b		 pop	 rbx
  00036	c3		 ret	 0
  00037	cc		 int	 3
PMCCS_ExclusiveOr_L_X ENDP
_TEXT	ENDS
;	COMDAT text$x
text$x	SEGMENT
$T1 = 32
ex$2 = 40
u$ = 64
v$ = 72
$T3 = 80
w$ = 80
PMCCS_ExclusiveOr_L_X$catch$0 PROC

; 924  :         }
; 925  :         catch (const Palmtree::Math::Core::Internal::Exception& ex)
; 926  :         {

  00000	48 89 54 24 10	 mov	 QWORD PTR [rsp+16], rdx
  00005	55		 push	 rbp
  00006	48 83 ec 20	 sub	 rsp, 32			; 00000020H
  0000a	48 8b ea	 mov	 rbp, rdx
__catch$PMCCS_ExclusiveOr_L_X$0:
; File z:\sources\lunor\repos\rougemeilland\palmtree.math.core.uint\palmtree.math.core.uint\pmc_exception.h

; 75   :             return (_code);

  0000d	48 8b 45 28	 mov	 rax, QWORD PTR ex$2[rbp]
  00011	8b 48 18	 mov	 ecx, DWORD PTR [rax+24]
  00014	89 4d 50	 mov	 DWORD PTR $T3[rbp], ecx
; File z:\sources\lunor\repos\rougemeilland\palmtree.math.core.uint\palmtree.math.core.uint\pmc_interface_csharp.cpp

; 924  :         }
; 925  :         catch (const Palmtree::Math::Core::Internal::Exception& ex)
; 926  :         {
; 927  :             return (ex.GetStatusCode());

  00017	48 8d 05 00 00
	00 00		 lea	 rax, $LN8@PMCCS_Excl
  0001e	48 83 c4 20	 add	 rsp, 32			; 00000020H
  00022	5d		 pop	 rbp
  00023	c3		 ret	 0
  00024	cc		 int	 3
PMCCS_ExclusiveOr_L_X$catch$0 ENDP
text$x	ENDS
; Function compile flags: /Ogtpy
; File z:\sources\lunor\repos\rougemeilland\palmtree.math.core.uint\palmtree.math.core.uint\pmc_exception.h
; File z:\sources\lunor\repos\rougemeilland\palmtree.math.core.uint\palmtree.math.core.uint\pmc_interface_csharp.cpp
;	COMDAT text$x
text$x	SEGMENT
$T1 = 32
ex$2 = 40
u$ = 64
v$ = 72
$T3 = 80
w$ = 80
PMCCS_ExclusiveOr_L_X$catch$0 PROC

; 926  :         {

  00000	48 89 54 24 10	 mov	 QWORD PTR [rsp+16], rdx
  00005	55		 push	 rbp
  00006	48 83 ec 20	 sub	 rsp, 32			; 00000020H
  0000a	48 8b ea	 mov	 rbp, rdx
__catch$PMCCS_ExclusiveOr_L_X$0:
; File z:\sources\lunor\repos\rougemeilland\palmtree.math.core.uint\palmtree.math.core.uint\pmc_exception.h

; 75   :             return (_code);

  0000d	48 8b 45 28	 mov	 rax, QWORD PTR ex$2[rbp]
  00011	8b 48 18	 mov	 ecx, DWORD PTR [rax+24]
  00014	89 4d 50	 mov	 DWORD PTR $T3[rbp], ecx
; File z:\sources\lunor\repos\rougemeilland\palmtree.math.core.uint\palmtree.math.core.uint\pmc_interface_csharp.cpp

; 927  :             return (ex.GetStatusCode());

  00017	48 8d 05 00 00
	00 00		 lea	 rax, $LN8@PMCCS_Excl
  0001e	48 83 c4 20	 add	 rsp, 32			; 00000020H
  00022	5d		 pop	 rbp
  00023	c3		 ret	 0
  00024	cc		 int	 3
PMCCS_ExclusiveOr_L_X$catch$0 ENDP
text$x	ENDS
; Function compile flags: /Ogtpy
; File z:\sources\lunor\repos\rougemeilland\palmtree.math.core.uint\palmtree.math.core.uint\pmc_interface_csharp.cpp
;	COMDAT PMCCS_ExclusiveOr_I_X
_TEXT	SEGMENT
$T1 = 32
ex$2 = 40
u$ = 64
v$ = 72
$T3 = 80
w$ = 80
PMCCS_ExclusiveOr_I_X PROC				; COMDAT

; 902  :     {

$LN13:
  00000	40 53		 push	 rbx
  00002	48 83 ec 30	 sub	 rsp, 48			; 00000030H
  00006	48 c7 44 24 20
	fe ff ff ff	 mov	 QWORD PTR $T1[rsp], -2
  0000f	49 8b d8	 mov	 rbx, r8

; 903  :         if (w == nullptr)

  00012	4d 85 c0	 test	 r8, r8
  00015	75 0a		 jne	 SHORT $LN2@PMCCS_Excl

; 904  :             return (PMC_STATUS_ARGUMENT_NULL_ERROR);

  00017	41 8d 40 fe	 lea	 eax, QWORD PTR [r8-2]

; 913  :         }
; 914  :     }

  0001b	48 83 c4 30	 add	 rsp, 48			; 00000030H
  0001f	5b		 pop	 rbx
  00020	c3		 ret	 0
$LN2@PMCCS_Excl:

; 905  :         try
; 906  :         {
; 907  :             *w = PMC_ExclusiveOr_I_X(u, v);

  00021	e8 00 00 00 00	 call	 ?PMC_ExclusiveOr_I_X@Internal@Core@Math@Palmtree@@YAPEAU__tag_PMC_HANDLE_UINT@1234@IPEAU51234@@Z ; Palmtree::Math::Core::Internal::PMC_ExclusiveOr_I_X
  00026	48 89 03	 mov	 QWORD PTR [rbx], rax

; 908  :             return (PMC_STATUS_OK);

  00029	33 c0		 xor	 eax, eax
  0002b	eb 04		 jmp	 SHORT $LN7@PMCCS_Excl
$LN8@PMCCS_Excl:

; 909  :         }
; 910  :         catch (const Palmtree::Math::Core::Internal::Exception& ex)
; 911  :         {
; 912  :             return (ex.GetStatusCode());

  0002d	8b 44 24 50	 mov	 eax, DWORD PTR $T3[rsp]
$LN7@PMCCS_Excl:

; 913  :         }
; 914  :     }

  00031	48 83 c4 30	 add	 rsp, 48			; 00000030H
  00035	5b		 pop	 rbx
  00036	c3		 ret	 0
  00037	cc		 int	 3
PMCCS_ExclusiveOr_I_X ENDP
_TEXT	ENDS
;	COMDAT text$x
text$x	SEGMENT
$T1 = 32
ex$2 = 40
u$ = 64
v$ = 72
$T3 = 80
w$ = 80
PMCCS_ExclusiveOr_I_X$catch$0 PROC

; 909  :         }
; 910  :         catch (const Palmtree::Math::Core::Internal::Exception& ex)
; 911  :         {

  00000	48 89 54 24 10	 mov	 QWORD PTR [rsp+16], rdx
  00005	55		 push	 rbp
  00006	48 83 ec 20	 sub	 rsp, 32			; 00000020H
  0000a	48 8b ea	 mov	 rbp, rdx
__catch$PMCCS_ExclusiveOr_I_X$0:
; File z:\sources\lunor\repos\rougemeilland\palmtree.math.core.uint\palmtree.math.core.uint\pmc_exception.h

; 75   :             return (_code);

  0000d	48 8b 45 28	 mov	 rax, QWORD PTR ex$2[rbp]
  00011	8b 48 18	 mov	 ecx, DWORD PTR [rax+24]
  00014	89 4d 50	 mov	 DWORD PTR $T3[rbp], ecx
; File z:\sources\lunor\repos\rougemeilland\palmtree.math.core.uint\palmtree.math.core.uint\pmc_interface_csharp.cpp

; 909  :         }
; 910  :         catch (const Palmtree::Math::Core::Internal::Exception& ex)
; 911  :         {
; 912  :             return (ex.GetStatusCode());

  00017	48 8d 05 00 00
	00 00		 lea	 rax, $LN8@PMCCS_Excl
  0001e	48 83 c4 20	 add	 rsp, 32			; 00000020H
  00022	5d		 pop	 rbp
  00023	c3		 ret	 0
  00024	cc		 int	 3
PMCCS_ExclusiveOr_I_X$catch$0 ENDP
text$x	ENDS
; Function compile flags: /Ogtpy
; File z:\sources\lunor\repos\rougemeilland\palmtree.math.core.uint\palmtree.math.core.uint\pmc_exception.h
; File z:\sources\lunor\repos\rougemeilland\palmtree.math.core.uint\palmtree.math.core.uint\pmc_interface_csharp.cpp
;	COMDAT text$x
text$x	SEGMENT
$T1 = 32
ex$2 = 40
u$ = 64
v$ = 72
$T3 = 80
w$ = 80
PMCCS_ExclusiveOr_I_X$catch$0 PROC

; 911  :         {

  00000	48 89 54 24 10	 mov	 QWORD PTR [rsp+16], rdx
  00005	55		 push	 rbp
  00006	48 83 ec 20	 sub	 rsp, 32			; 00000020H
  0000a	48 8b ea	 mov	 rbp, rdx
__catch$PMCCS_ExclusiveOr_I_X$0:
; File z:\sources\lunor\repos\rougemeilland\palmtree.math.core.uint\palmtree.math.core.uint\pmc_exception.h

; 75   :             return (_code);

  0000d	48 8b 45 28	 mov	 rax, QWORD PTR ex$2[rbp]
  00011	8b 48 18	 mov	 ecx, DWORD PTR [rax+24]
  00014	89 4d 50	 mov	 DWORD PTR $T3[rbp], ecx
; File z:\sources\lunor\repos\rougemeilland\palmtree.math.core.uint\palmtree.math.core.uint\pmc_interface_csharp.cpp

; 912  :             return (ex.GetStatusCode());

  00017	48 8d 05 00 00
	00 00		 lea	 rax, $LN8@PMCCS_Excl
  0001e	48 83 c4 20	 add	 rsp, 32			; 00000020H
  00022	5d		 pop	 rbp
  00023	c3		 ret	 0
  00024	cc		 int	 3
PMCCS_ExclusiveOr_I_X$catch$0 ENDP
text$x	ENDS
; Function compile flags: /Ogtpy
; File z:\sources\lunor\repos\rougemeilland\palmtree.math.core.uint\palmtree.math.core.uint\pmc_interface_csharp.cpp
;	COMDAT PMCCS_BitwiseOr_X_X
_TEXT	SEGMENT
$T1 = 32
ex$2 = 40
u$ = 64
v$ = 72
$T3 = 80
w$ = 80
PMCCS_BitwiseOr_X_X PROC				; COMDAT

; 887  :     {

$LN13:
  00000	40 53		 push	 rbx
  00002	48 83 ec 30	 sub	 rsp, 48			; 00000030H
  00006	48 c7 44 24 20
	fe ff ff ff	 mov	 QWORD PTR $T1[rsp], -2
  0000f	49 8b d8	 mov	 rbx, r8

; 888  :         if (w == nullptr)

  00012	4d 85 c0	 test	 r8, r8
  00015	75 0a		 jne	 SHORT $LN2@PMCCS_Bitw

; 889  :             return (PMC_STATUS_ARGUMENT_NULL_ERROR);

  00017	41 8d 40 fe	 lea	 eax, QWORD PTR [r8-2]

; 898  :         }
; 899  :     }

  0001b	48 83 c4 30	 add	 rsp, 48			; 00000030H
  0001f	5b		 pop	 rbx
  00020	c3		 ret	 0
$LN2@PMCCS_Bitw:

; 890  :         try
; 891  :         {
; 892  :             *w = PMC_BitwiseOr_X_X(u, v);

  00021	e8 00 00 00 00	 call	 ?PMC_BitwiseOr_X_X@Internal@Core@Math@Palmtree@@YAPEAU__tag_PMC_HANDLE_UINT@1234@PEAU51234@0@Z ; Palmtree::Math::Core::Internal::PMC_BitwiseOr_X_X
  00026	48 89 03	 mov	 QWORD PTR [rbx], rax

; 893  :             return (PMC_STATUS_OK);

  00029	33 c0		 xor	 eax, eax
  0002b	eb 04		 jmp	 SHORT $LN7@PMCCS_Bitw
$LN8@PMCCS_Bitw:

; 894  :         }
; 895  :         catch (const Palmtree::Math::Core::Internal::Exception& ex)
; 896  :         {
; 897  :             return (ex.GetStatusCode());

  0002d	8b 44 24 50	 mov	 eax, DWORD PTR $T3[rsp]
$LN7@PMCCS_Bitw:

; 898  :         }
; 899  :     }

  00031	48 83 c4 30	 add	 rsp, 48			; 00000030H
  00035	5b		 pop	 rbx
  00036	c3		 ret	 0
  00037	cc		 int	 3
PMCCS_BitwiseOr_X_X ENDP
_TEXT	ENDS
;	COMDAT text$x
text$x	SEGMENT
$T1 = 32
ex$2 = 40
u$ = 64
v$ = 72
$T3 = 80
w$ = 80
PMCCS_BitwiseOr_X_X$catch$0 PROC

; 894  :         }
