; Listing generated by Microsoft (R) Optimizing Compiler Version 19.16.27026.1 

include listing.inc

INCLUDELIB MSVCRT
INCLUDELIB OLDNAMES

PUBLIC	Compare_Imp
PUBLIC	Initialize_Compare
PUBLIC	PMC_Compare_I_X
PUBLIC	PMC_Compare_L_X
PUBLIC	PMC_Compare_X_I
PUBLIC	PMC_Compare_X_L
PUBLIC	PMC_Compare_X_X
EXTRN	CheckNumber:PROC
;	COMDAT pdata
pdata	SEGMENT
$pdata$PMC_Compare_I_X DD imagerel $LN29
	DD	imagerel $LN29+231
	DD	imagerel $unwind$PMC_Compare_I_X
pdata	ENDS
;	COMDAT pdata
pdata	SEGMENT
$pdata$PMC_Compare_L_X DD imagerel $LN61
	DD	imagerel $LN61+235
	DD	imagerel $unwind$PMC_Compare_L_X
pdata	ENDS
;	COMDAT pdata
pdata	SEGMENT
$pdata$PMC_Compare_X_I DD imagerel $LN29
	DD	imagerel $LN29+148
	DD	imagerel $unwind$PMC_Compare_X_I
pdata	ENDS
;	COMDAT pdata
pdata	SEGMENT
$pdata$PMC_Compare_X_L DD imagerel $LN61
	DD	imagerel $LN61+152
	DD	imagerel $unwind$PMC_Compare_X_L
pdata	ENDS
;	COMDAT pdata
pdata	SEGMENT
$pdata$PMC_Compare_X_X DD imagerel $LN31
	DD	imagerel $LN31+244
	DD	imagerel $unwind$PMC_Compare_X_X
pdata	ENDS
;	COMDAT xdata
xdata	SEGMENT
$unwind$PMC_Compare_X_X DD 060f01H
	DD	07640fH
	DD	06340fH
	DD	0700b320fH
xdata	ENDS
;	COMDAT xdata
xdata	SEGMENT
$unwind$PMC_Compare_X_L DD 060f01H
	DD	07640fH
	DD	06340fH
	DD	0700b320fH
xdata	ENDS
;	COMDAT xdata
xdata	SEGMENT
$unwind$PMC_Compare_X_I DD 060f01H
	DD	07640fH
	DD	06340fH
	DD	0700b320fH
xdata	ENDS
;	COMDAT xdata
xdata	SEGMENT
$unwind$PMC_Compare_L_X DD 060f01H
	DD	07640fH
	DD	06340fH
	DD	0700b320fH
xdata	ENDS
;	COMDAT xdata
xdata	SEGMENT
$unwind$PMC_Compare_I_X DD 060f01H
	DD	07640fH
	DD	06340fH
	DD	0700b320fH
xdata	ENDS
; Function compile flags: /Ogtpy
; File z:\sources\lunor\repos\rougemeilland\palmtree.math.core.uint\palmtree.math.core.uint\pmc_compare.c
; File z:\sources\lunor\repos\rougemeilland\palmtree.math.core.uint\palmtree.math.core.uint\pmc_inline_func.h
; File z:\sources\lunor\repos\rougemeilland\palmtree.math.core.uint\palmtree.math.core.uint\pmc_compare.c
;	COMDAT PMC_Compare_X_L_Imp
_TEXT	SEGMENT
u$ = 8
v$ = 16
w$ = 24
PMC_Compare_X_L_Imp PROC				; COMDAT

; 153  :     if (u->IS_ZERO)

	test	BYTE PTR [rcx], 1
	mov	r9, rcx
	je	SHORT $LN2@PMC_Compar

; 154  :     {
; 155  :         // u が 0 である場合
; 156  :         if (v == 0)
; 157  :         {
; 158  :             // v が 0 である場合
; 159  :             *w = 0;
; 160  :         }
; 161  :         else
; 162  :         {
; 163  :             // v が 0 でない場合
; 164  :             *w = -1;
; 165  :         }
; 166  :     }

	neg	rdx
$LN36@PMC_Compar:

; 259  :                     *w = 1;
; 260  :                 else if (u->BLOCK[0] < v)
; 261  :                     *w = -1;
; 262  :                 else
; 263  :                     *w = 0;
; 264  :             }
; 265  :         }
; 266  :     }
; 267  : }

	sbb	eax, eax
	mov	DWORD PTR [r8], eax
	ret	0
$LN2@PMC_Compar:

; 167  :     else if (v == 0)

	test	rdx, rdx
	je	SHORT $LN52@PMC_Compar
; File z:\sources\lunor\repos\rougemeilland\palmtree.math.core.uint\palmtree.math.core.uint\pmc_inline_func.h

; 638  :         _BitScanReverse64(&pos, x);

	bsr	rax, rdx

; 639  : #elif defined(__GNUC__)
; 640  :         _UINT64_T pos;
; 641  :         __asm__("bsrq %1, %0" : "=r"(pos) : "rm"(x));
; 642  : #else
; 643  : #error unknown compiler
; 644  : #endif
; 645  : #else
; 646  : #error unknown platform
; 647  : #endif
; 648  :         return (sizeof(x) * 8 - 1 - pos);

	mov	ecx, 63					; 0000003fH
	sub	ecx, eax
; File z:\sources\lunor\repos\rougemeilland\palmtree.math.core.uint\palmtree.math.core.uint\pmc_compare.c

; 243  :             __UNIT_TYPE v_bit_count = sizeof(v) * 8 - _LZCNT_ALT_UNIT((__UNIT_TYPE)v);

	movsxd	rax, ecx
	mov	ecx, 64					; 00000040H
	sub	rcx, rax

; 244  :             if (u_bit_count > v_bit_count)

	cmp	QWORD PTR [r9+24], rcx
	ja	SHORT $LN52@PMC_Compar

; 245  :             {
; 246  :                 // 明らかに u > v である場合
; 247  :                 *w = 1;
; 248  :             }
; 249  :             else if (u_bit_count < v_bit_count)

	jae	SHORT $LN34@PMC_Compar

; 259  :                     *w = 1;
; 260  :                 else if (u->BLOCK[0] < v)
; 261  :                     *w = -1;
; 262  :                 else
; 263  :                     *w = 0;
; 264  :             }
; 265  :         }
; 266  :     }
; 267  : }

	mov	DWORD PTR [r8], -1
	ret	0
$LN34@PMC_Compar:

; 250  :             {
; 251  :                 // 明らかに u < v である場合
; 252  :                 *w = -1;
; 253  :             }
; 254  :             else
; 255  :             {
; 256  :                 // u > 0 && v > 0 かつ u のビット長と v のビット長が等しく、かつ v が 1 ワードで表現できる場合
; 257  :                 // ⇒ u と v はともに 1 ワードで表現できる
; 258  :                 if (u->BLOCK[0] > v)

	mov	rax, QWORD PTR [r9+64]
	cmp	QWORD PTR [rax], rdx
	jbe	SHORT $LN36@PMC_Compar
$LN52@PMC_Compar:

; 259  :                     *w = 1;
; 260  :                 else if (u->BLOCK[0] < v)
; 261  :                     *w = -1;
; 262  :                 else
; 263  :                     *w = 0;
; 264  :             }
; 265  :         }
; 266  :     }
; 267  : }

	mov	DWORD PTR [r8], 1
	ret	0
PMC_Compare_X_L_Imp ENDP
_TEXT	ENDS
; Function compile flags: /Ogtpy
; File z:\sources\lunor\repos\rougemeilland\palmtree.math.core.uint\palmtree.math.core.uint\pmc_compare.c
; File z:\sources\lunor\repos\rougemeilland\palmtree.math.core.uint\palmtree.math.core.uint\pmc_inline_func.h
; File z:\sources\lunor\repos\rougemeilland\palmtree.math.core.uint\palmtree.math.core.uint\pmc_compare.c
;	COMDAT PMC_Compare_X_I_Imp
_TEXT	SEGMENT
u$ = 8
v$ = 16
w$ = 24
PMC_Compare_X_I_Imp PROC				; COMDAT

; 55   :     if (u->IS_ZERO)

	test	BYTE PTR [rcx], 1
	mov	r9, rcx
	je	SHORT $LN2@PMC_Compar

; 56   :     {
; 57   :         // u が 0 である場合
; 58   :         if (v == 0)
; 59   :         {
; 60   :             // v が 0 である場合
; 61   :             *w = 0;
; 62   :         }
; 63   :         else
; 64   :         {
; 65   :             // v が 0 でない場合
; 66   :             *w = -1;
; 67   :         }
; 68   :     }

	neg	edx
$LN12@PMC_Compar:

; 94   :                 *w = 1;
; 95   :             else if (u->BLOCK[0] < v)
; 96   :                 *w = -1;
; 97   :             else
; 98   :                 *w = 0;
; 99   :         }
; 100  :     }
; 101  : }

	sbb	eax, eax
	mov	DWORD PTR [r8], eax
	ret	0
$LN2@PMC_Compar:

; 69   :     else if (v == 0)

	test	edx, edx
	je	SHORT $LN20@PMC_Compar
; File z:\sources\lunor\repos\rougemeilland\palmtree.math.core.uint\palmtree.math.core.uint\pmc_inline_func.h

; 595  :         _BitScanReverse(&pos, x);

	bsr	eax, edx

; 596  : #elif defined(__GNUC__)
; 597  :         __asm__("bsrl %1, %0" : "=r"(pos) : "rm"(x));
; 598  : #else
; 599  : #error unknown compiler
; 600  : #endif
; 601  :         return (sizeof(x) * 8 - 1 - pos);

	mov	ecx, 31
	sub	ecx, eax
; File z:\sources\lunor\repos\rougemeilland\palmtree.math.core.uint\palmtree.math.core.uint\pmc_compare.c

; 78   :         __UNIT_TYPE v_bit_count = sizeof(v) * 8 - _LZCNT_ALT_32(v);

	movsxd	rax, ecx
	mov	ecx, 32					; 00000020H
	sub	rcx, rax

; 79   :         if (u_bit_count > v_bit_count)

	cmp	QWORD PTR [r9+24], rcx
	ja	SHORT $LN20@PMC_Compar

; 80   :         {
; 81   :             // 明らかに u > v である場合
; 82   :             *w = 1;
; 83   :         }
; 84   :         else if (u_bit_count < v_bit_count)

	jae	SHORT $LN10@PMC_Compar

; 94   :                 *w = 1;
; 95   :             else if (u->BLOCK[0] < v)
; 96   :                 *w = -1;
; 97   :             else
; 98   :                 *w = 0;
; 99   :         }
; 100  :     }
; 101  : }

	mov	DWORD PTR [r8], -1
	ret	0
$LN10@PMC_Compar:

; 85   :         {
; 86   :             // 明らかに u < v である場合
; 87   :             *w = -1;
; 88   :         }
; 89   :         else
; 90   :         {
; 91   :             // u > 0 && v > 0 かつ u のビット長と v のビット長が等しい場合
; 92   :             // ⇒ u と v はともに 1 ワードで表現できる
; 93   :             if (u->BLOCK[0] > v)

	mov	rax, QWORD PTR [r9+64]
	mov	ecx, edx
	cmp	QWORD PTR [rax], rcx
	jbe	SHORT $LN12@PMC_Compar
$LN20@PMC_Compar:

; 94   :                 *w = 1;
; 95   :             else if (u->BLOCK[0] < v)
; 96   :                 *w = -1;
; 97   :             else
; 98   :                 *w = 0;
; 99   :         }
; 100  :     }
; 101  : }

	mov	DWORD PTR [r8], 1
	ret	0
PMC_Compare_X_I_Imp ENDP
_TEXT	ENDS
; Function compile flags: /Ogtpy
; File z:\sources\lunor\repos\rougemeilland\palmtree.math.core.uint\palmtree.math.core.uint\pmc_inline_func.h
;	COMDAT _LZCNT_ALT_UNIT
_TEXT	SEGMENT
x$ = 8
_LZCNT_ALT_UNIT PROC					; COMDAT

; 624  :         if (x == 0)

	test	rcx, rcx
	jne	SHORT $LN2@LZCNT_ALT_

; 625  :             return (sizeof(x) * 8);

	mov	eax, 64					; 00000040H

; 649  :     }

	ret	0
$LN2@LZCNT_ALT_:

; 626  : #ifdef _M_IX86
; 627  :         _UINT32_T pos;
; 628  : #ifdef _MSC_VER
; 629  :         _BitScanReverse(&pos, x);
; 630  : #elif defined(__GNUC__)
; 631  :         __asm__("bsrl %1, %0" : "=r"(pos) : "rm"(x));
; 632  : #else
; 633  : #error unknown compiler
; 634  : #endif
; 635  : #elif defined(_M_X64)
; 636  : #ifdef _MSC_VER
; 637  :         _UINT32_T pos;
; 638  :         _BitScanReverse64(&pos, x);

	bsr	rcx, rcx

; 639  : #elif defined(__GNUC__)
; 640  :         _UINT64_T pos;
; 641  :         __asm__("bsrq %1, %0" : "=r"(pos) : "rm"(x));
; 642  : #else
; 643  : #error unknown compiler
; 644  : #endif
; 645  : #else
; 646  : #error unknown platform
; 647  : #endif
; 648  :         return (sizeof(x) * 8 - 1 - pos);

	mov	eax, 63					; 0000003fH
	sub	eax, ecx

; 649  :     }

	ret	0
_LZCNT_ALT_UNIT ENDP
_TEXT	ENDS
; Function compile flags: /Ogtpy
; File z:\sources\lunor\repos\rougemeilland\palmtree.math.core.uint\palmtree.math.core.uint\pmc_inline_func.h
;	COMDAT _LZCNT_ALT_32
_TEXT	SEGMENT
x$ = 8
_LZCNT_ALT_32 PROC					; COMDAT

; 591  :         if (x == 0)

	test	ecx, ecx
	jne	SHORT $LN2@LZCNT_ALT_

; 592  :             return (sizeof(x) * 8);

	mov	eax, 32					; 00000020H

; 602  :     }

	ret	0
$LN2@LZCNT_ALT_:

; 593  :         _UINT32_T pos;
; 594  : #ifdef _MSC_VER
; 595  :         _BitScanReverse(&pos, x);

	bsr	ecx, ecx

; 596  : #elif defined(__GNUC__)
; 597  :         __asm__("bsrl %1, %0" : "=r"(pos) : "rm"(x));
; 598  : #else
; 599  : #error unknown compiler
; 600  : #endif
; 601  :         return (sizeof(x) * 8 - 1 - pos);

	mov	eax, 31
	sub	eax, ecx

; 602  :     }

	ret	0
_LZCNT_ALT_32 ENDP
_TEXT	ENDS
; Function compile flags: /Ogtpy
; File z:\sources\lunor\repos\rougemeilland\palmtree.math.core.uint\palmtree.math.core.uint\pmc_inline_func.h
;	COMDAT _FROMDWORDTOWORD
_TEXT	SEGMENT
value$ = 8
result_high$ = 16
_FROMDWORDTOWORD PROC					; COMDAT

; 177  :         *result_high = (_UINT32_T)(value >> 32);

	mov	rax, rcx
	shr	rax, 32					; 00000020H
	mov	DWORD PTR [rdx], eax

; 178  :         return ((_UINT32_T)value);

	mov	eax, ecx

; 179  :     }

	ret	0
_FROMDWORDTOWORD ENDP
_TEXT	ENDS
; Function compile flags: /Ogtpy
; File z:\sources\lunor\repos\rougemeilland\palmtree.math.core.uint\palmtree.math.core.uint\pmc_compare.c
;	COMDAT PMC_Compare_X_X
_TEXT	SEGMENT
u$ = 48
v$ = 56
w$ = 64
PMC_Compare_X_X PROC					; COMDAT

; 318  : {

$LN31:
	mov	QWORD PTR [rsp+8], rbx
	mov	QWORD PTR [rsp+16], rsi
	push	rdi
	sub	rsp, 32					; 00000020H
	mov	rsi, r8
	mov	rdi, rdx
	mov	rbx, rcx

; 319  :     if (u == NULL)

	test	rcx, rcx
	je	$LN29@PMC_Compar

; 320  :         return (PMC_STATUS_ARGUMENT_ERROR);
; 321  :     if (v == NULL)

	test	rdx, rdx
	je	$LN29@PMC_Compar

; 322  :         return (PMC_STATUS_ARGUMENT_ERROR);
; 323  :     if (w == NULL)

	test	r8, r8
	je	$LN29@PMC_Compar

; 325  :     NUMBER_HEADER* nu = (NUMBER_HEADER*)u;
; 326  :     NUMBER_HEADER* nv = (NUMBER_HEADER*)v;
; 327  :     PMC_STATUS_CODE result;
; 328  :     if ((result = CheckNumber(nu)) != PMC_STATUS_OK)

	call	CheckNumber
	test	eax, eax
	jne	$LN1@PMC_Compar

; 329  :         return (result);
; 330  :     if ((result = CheckNumber(nv)) != PMC_STATUS_OK)

	mov	rcx, rdi
	call	CheckNumber
	test	eax, eax
	jne	$LN1@PMC_Compar

; 331  :         return (result);
; 332  :     if (nu->IS_ZERO)

	mov	eax, DWORD PTR [rdi]
	and	eax, 1
	test	BYTE PTR [rbx], 1
	je	SHORT $LN7@PMC_Compar

; 333  :     {
; 334  :         *w = nv->IS_ZERO ? 0 : -1;

	dec	eax

; 358  :         }
; 359  :     }
; 360  : #ifdef _DEBUG
; 361  :     if (*w != 0 && *w != 1 && *w != -1)
; 362  :         return (PMC_STATUS_INTERNAL_ERROR);
; 363  : #endif
; 364  :     return (PMC_STATUS_OK);

	mov	DWORD PTR [rsi], eax
	xor	eax, eax

; 365  : }

	mov	rbx, QWORD PTR [rsp+48]
	mov	rsi, QWORD PTR [rsp+56]
	add	rsp, 32					; 00000020H
	pop	rdi
	ret	0
$LN7@PMC_Compar:

; 335  :     }
; 336  :     else if (nv->IS_ZERO)

	test	eax, eax
	jne	SHORT $LN25@PMC_Compar

; 337  :     {
; 338  :         *w = 1;
; 339  :     }
; 340  :     else
; 341  :     {
; 342  :         __UNIT_TYPE u_bit_count = nu->UNIT_BIT_COUNT;

	mov	rax, QWORD PTR [rbx+24]

; 343  :         __UNIT_TYPE v_bit_count = nv->UNIT_BIT_COUNT;
; 344  :         if (u_bit_count > v_bit_count)

	cmp	rax, QWORD PTR [rdi+24]
	ja	SHORT $LN25@PMC_Compar

; 345  :         {
; 346  :             // 明らかに u > v である場合
; 347  :             *w = 1;
; 348  :         }
; 349  :         else if (u_bit_count < v_bit_count)

	jb	SHORT $LN26@PMC_Compar

; 350  :         {
; 351  :             // 明らかに u < v である場合
; 352  :             *w = -1;
; 353  :         }
; 354  :         else
; 355  :         {
; 356  :             // u > 0 && v > 0 かつ u のビット長と v のビット長が等しい場合
; 357  :             *w = Compare_Imp(nu->BLOCK, nv->BLOCK, nu->UNIT_WORD_COUNT);

	mov	rcx, QWORD PTR [rbx+16]

; 33   :     u += count;

	mov	rax, QWORD PTR [rbx+64]
	lea	r8, QWORD PTR [rax+rcx*8]

; 34   :     v += count;

	mov	rax, QWORD PTR [rdi+64]
	lea	r9, QWORD PTR [rax+rcx*8]

; 35   :     while (count > 0)

	test	rcx, rcx
	je	SHORT $LN18@PMC_Compar
	npad	7
$LL17@PMC_Compar:

; 36   :     {
; 37   :         --u;
; 38   :         --v;
; 39   :         --count;
; 40   : 
; 41   :         if (*u > *v)

	mov	rax, QWORD PTR [r8-8]
	lea	r8, QWORD PTR [r8-8]
	lea	r9, QWORD PTR [r9-8]
	dec	rcx
	cmp	rax, QWORD PTR [r9]
	ja	SHORT $LN25@PMC_Compar

; 42   :             return (1);
; 43   :         else if (*u < *v)

	jb	SHORT $LN26@PMC_Compar

; 35   :     while (count > 0)

	test	rcx, rcx
	jne	SHORT $LL17@PMC_Compar
$LN18@PMC_Compar:

; 44   :             return (-1);
; 45   :         else
; 46   :         {
; 47   :         }
; 48   :     }
; 49   :     return (0);

	xor	eax, eax
$LN16@PMC_Compar:

; 358  :         }
; 359  :     }
; 360  : #ifdef _DEBUG
; 361  :     if (*w != 0 && *w != 1 && *w != -1)
; 362  :         return (PMC_STATUS_INTERNAL_ERROR);
; 363  : #endif
; 364  :     return (PMC_STATUS_OK);

	mov	DWORD PTR [rsi], eax
	xor	eax, eax

; 365  : }

	mov	rbx, QWORD PTR [rsp+48]
	mov	rsi, QWORD PTR [rsp+56]
	add	rsp, 32					; 00000020H
	pop	rdi
	ret	0
$LN26@PMC_Compar:

; 358  :         }
; 359  :     }
; 360  : #ifdef _DEBUG
; 361  :     if (*w != 0 && *w != 1 && *w != -1)
; 362  :         return (PMC_STATUS_INTERNAL_ERROR);
; 363  : #endif
; 364  :     return (PMC_STATUS_OK);

	mov	eax, -1
	jmp	SHORT $LN16@PMC_Compar
$LN25@PMC_Compar:
	mov	eax, 1
	jmp	SHORT $LN16@PMC_Compar
$LN29@PMC_Compar:

; 324  :         return (PMC_STATUS_ARGUMENT_ERROR);

	mov	eax, -1
$LN1@PMC_Compar:

; 365  : }

	mov	rbx, QWORD PTR [rsp+48]
	mov	rsi, QWORD PTR [rsp+56]
	add	rsp, 32					; 00000020H
	pop	rdi
	ret	0
PMC_Compare_X_X ENDP
_TEXT	ENDS
; Function compile flags: /Ogtpy
; File z:\sources\lunor\repos\rougemeilland\palmtree.math.core.uint\palmtree.math.core.uint\pmc_compare.c
; File z:\sources\lunor\repos\rougemeilland\palmtree.math.core.uint\palmtree.math.core.uint\pmc_inline_func.h
; File z:\sources\lunor\repos\rougemeilland\palmtree.math.core.uint\palmtree.math.core.uint\pmc_compare.c
;	COMDAT PMC_Compare_X_L
_TEXT	SEGMENT
u$ = 48
v$ = 56
w$ = 64
PMC_Compare_X_L PROC					; COMDAT

; 294  : {

$LN61:
	mov	QWORD PTR [rsp+8], rbx
	mov	QWORD PTR [rsp+16], rsi
	push	rdi
	sub	rsp, 32					; 00000020H
	mov	rsi, r8
	mov	rbx, rdx
	mov	rdi, rcx

; 295  :     if (__UNIT_TYPE_BIT_COUNT * 2 < sizeof(v) * 8)
; 296  :     {
; 297  :         // _UINT64_T が 2 ワードで表現しきれない処理系には対応しない
; 298  :         return (PMC_STATUS_INTERNAL_ERROR);
; 299  :     }
; 300  :     if (u == NULL)

	test	rcx, rcx
	je	SHORT $LN58@PMC_Compar

; 301  :         return (PMC_STATUS_ARGUMENT_ERROR);
; 302  :     if (w == NULL)

	test	r8, r8
	je	SHORT $LN58@PMC_Compar

; 304  :     PMC_STATUS_CODE result;
; 305  :     if ((result = CheckNumber((NUMBER_HEADER*)u)) != PMC_STATUS_OK)

	call	CheckNumber
	test	eax, eax
	jne	SHORT $LN1@PMC_Compar

; 153  :     if (u->IS_ZERO)

	test	BYTE PTR [rdi], 1
	je	SHORT $LN8@PMC_Compar

; 154  :     {
; 155  :         // u が 0 である場合
; 156  :         if (v == 0)

	neg	rbx
$LN42@PMC_Compar:

; 306  :         return (result);
; 307  :     _INT32_T w_temp;
; 308  :     PMC_Compare_X_L_Imp((NUMBER_HEADER*)u, v, &w_temp);
; 309  :     *w = w_temp;

	sbb	eax, eax
$LN44@PMC_Compar:
	mov	DWORD PTR [rsi], eax

; 310  : #ifdef _DEBUG
; 311  :     if (*w != 0 && *w != 1 && *w != -1)
; 312  :         return (PMC_STATUS_INTERNAL_ERROR);
; 313  : #endif
; 314  :     return (PMC_STATUS_OK);

	xor	eax, eax

; 315  : }

	mov	rbx, QWORD PTR [rsp+48]
	mov	rsi, QWORD PTR [rsp+56]
	add	rsp, 32					; 00000020H
	pop	rdi
	ret	0
$LN8@PMC_Compar:

; 167  :     else if (v == 0)

	test	rbx, rbx
	je	SHORT $LN59@PMC_Compar
; File z:\sources\lunor\repos\rougemeilland\palmtree.math.core.uint\palmtree.math.core.uint\pmc_inline_func.h

; 638  :         _BitScanReverse64(&pos, x);

	bsr	rax, rbx

; 639  : #elif defined(__GNUC__)
; 640  :         _UINT64_T pos;
; 641  :         __asm__("bsrq %1, %0" : "=r"(pos) : "rm"(x));
; 642  : #else
; 643  : #error unknown compiler
; 644  : #endif
; 645  : #else
; 646  : #error unknown platform
; 647  : #endif
; 648  :         return (sizeof(x) * 8 - 1 - pos);

	mov	ecx, 63					; 0000003fH
	sub	ecx, eax
; File z:\sources\lunor\repos\rougemeilland\palmtree.math.core.uint\palmtree.math.core.uint\pmc_compare.c

; 243  :             __UNIT_TYPE v_bit_count = sizeof(v) * 8 - _LZCNT_ALT_UNIT((__UNIT_TYPE)v);

	movsxd	rax, ecx
	mov	ecx, 64					; 00000040H
	sub	rcx, rax

; 244  :             if (u_bit_count > v_bit_count)

	cmp	QWORD PTR [rdi+24], rcx
	ja	SHORT $LN59@PMC_Compar

; 245  :             {
; 246  :                 // 明らかに u > v である場合
; 247  :                 *w = 1;
; 248  :             }
; 249  :             else if (u_bit_count < v_bit_count)

	jae	SHORT $LN40@PMC_Compar

; 250  :             {
; 251  :                 // 明らかに u < v である場合
; 252  :                 *w = -1;

	mov	eax, -1

; 253  :             }

	jmp	SHORT $LN44@PMC_Compar
$LN40@PMC_Compar:

; 254  :             else
; 255  :             {
; 256  :                 // u > 0 && v > 0 かつ u のビット長と v のビット長が等しく、かつ v が 1 ワードで表現できる場合
; 257  :                 // ⇒ u と v はともに 1 ワードで表現できる
; 258  :                 if (u->BLOCK[0] > v)

	mov	rax, QWORD PTR [rdi+64]
	cmp	QWORD PTR [rax], rbx
	jbe	SHORT $LN42@PMC_Compar
$LN59@PMC_Compar:

; 306  :         return (result);
; 307  :     _INT32_T w_temp;
; 308  :     PMC_Compare_X_L_Imp((NUMBER_HEADER*)u, v, &w_temp);
; 309  :     *w = w_temp;

	mov	eax, 1
	jmp	SHORT $LN44@PMC_Compar
$LN58@PMC_Compar:

; 303  :         return (PMC_STATUS_ARGUMENT_ERROR);

	mov	eax, -1
$LN1@PMC_Compar:

; 315  : }

	mov	rbx, QWORD PTR [rsp+48]
	mov	rsi, QWORD PTR [rsp+56]
	add	rsp, 32					; 00000020H
	pop	rdi
	ret	0
PMC_Compare_X_L ENDP
_TEXT	ENDS
; Function compile flags: /Ogtpy
; File z:\sources\lunor\repos\rougemeilland\palmtree.math.core.uint\palmtree.math.core.uint\pmc_compare.c
; File z:\sources\lunor\repos\rougemeilland\palmtree.math.core.uint\palmtree.math.core.uint\pmc_inline_func.h
; File z:\sources\lunor\repos\rougemeilland\palmtree.math.core.uint\palmtree.math.core.uint\pmc_compare.c
;	COMDAT PMC_Compare_X_I
_TEXT	SEGMENT
u$ = 48
v$ = 56
w$ = 64
PMC_Compare_X_I PROC					; COMDAT

; 128  : {

$LN29:
	mov	QWORD PTR [rsp+8], rbx
	mov	QWORD PTR [rsp+16], rsi
	push	rdi
	sub	rsp, 32					; 00000020H
	mov	ebx, edx
	mov	rsi, r8
	mov	rdi, rcx

; 129  :     if (__UNIT_TYPE_BIT_COUNT < sizeof(v) * 8)
; 130  :     {
; 131  :         // _UINT32_T が 1 ワードで表現しきれない処理系には対応しない
; 132  :         return (PMC_STATUS_INTERNAL_ERROR);
; 133  :     }
; 134  :     if (u == NULL)

	test	rcx, rcx
	je	SHORT $LN26@PMC_Compar

; 135  :         return (PMC_STATUS_ARGUMENT_ERROR);
; 136  :     if (w == NULL)

	test	r8, r8
	je	SHORT $LN26@PMC_Compar

; 138  :     PMC_STATUS_CODE result;
; 139  :     if ((result = CheckNumber((NUMBER_HEADER*)u)) != PMC_STATUS_OK)

	call	CheckNumber
	test	eax, eax
	jne	SHORT $LN1@PMC_Compar

; 55   :     if (u->IS_ZERO)

	test	BYTE PTR [rdi], 1
	je	SHORT $LN8@PMC_Compar

; 56   :     {
; 57   :         // u が 0 である場合
; 58   :         if (v == 0)
; 59   :         {
; 60   :             // v が 0 である場合
; 61   :             *w = 0;
; 62   :         }
; 63   :         else
; 64   :         {
; 65   :             // v が 0 でない場合
; 66   :             *w = -1;
; 67   :         }
; 68   :     }

	neg	ebx
$LN18@PMC_Compar:

; 140  :         return (result);
; 141  :     _INT32_T w_temp;
; 142  :     PMC_Compare_X_I_Imp((NUMBER_HEADER*)u, v, &w_temp);
; 143  :     *w = w_temp;

	sbb	eax, eax
$LN20@PMC_Compar:
	mov	DWORD PTR [rsi], eax

; 144  : #ifdef _DEBUG
; 145  :     if (*w != 0 && *w != 1 && *w != -1)
; 146  :         return (PMC_STATUS_INTERNAL_ERROR);
; 147  : #endif
; 148  :     return (PMC_STATUS_OK);

	xor	eax, eax

; 149  : }

	mov	rbx, QWORD PTR [rsp+48]
	mov	rsi, QWORD PTR [rsp+56]
	add	rsp, 32					; 00000020H
	pop	rdi
	ret	0
$LN8@PMC_Compar:

; 69   :     else if (v == 0)

	test	ebx, ebx
	je	SHORT $LN27@PMC_Compar
; File z:\sources\lunor\repos\rougemeilland\palmtree.math.core.uint\palmtree.math.core.uint\pmc_inline_func.h

; 595  :         _BitScanReverse(&pos, x);

	bsr	eax, ebx

; 596  : #elif defined(__GNUC__)
; 597  :         __asm__("bsrl %1, %0" : "=r"(pos) : "rm"(x));
; 598  : #else
; 599  : #error unknown compiler
; 600  : #endif
; 601  :         return (sizeof(x) * 8 - 1 - pos);

	mov	ecx, 31
	sub	ecx, eax
; File z:\sources\lunor\repos\rougemeilland\palmtree.math.core.uint\palmtree.math.core.uint\pmc_compare.c

; 78   :         __UNIT_TYPE v_bit_count = sizeof(v) * 8 - _LZCNT_ALT_32(v);

	movsxd	rax, ecx
	mov	ecx, 32					; 00000020H
	sub	rcx, rax

; 79   :         if (u_bit_count > v_bit_count)

	cmp	QWORD PTR [rdi+24], rcx
	ja	SHORT $LN27@PMC_Compar

; 80   :         {
; 81   :             // 明らかに u > v である場合
; 82   :             *w = 1;
; 83   :         }
; 84   :         else if (u_bit_count < v_bit_count)

	jae	SHORT $LN16@PMC_Compar

; 85   :         {
; 86   :             // 明らかに u < v である場合
; 87   :             *w = -1;

	mov	eax, -1

; 88   :         }

	jmp	SHORT $LN20@PMC_Compar
$LN16@PMC_Compar:

; 89   :         else
; 90   :         {
; 91   :             // u > 0 && v > 0 かつ u のビット長と v のビット長が等しい場合
; 92   :             // ⇒ u と v はともに 1 ワードで表現できる
; 93   :             if (u->BLOCK[0] > v)

	mov	rax, QWORD PTR [rdi+64]
	cmp	QWORD PTR [rax], rbx
	jbe	SHORT $LN18@PMC_Compar
$LN27@PMC_Compar:

; 140  :         return (result);
; 141  :     _INT32_T w_temp;
; 142  :     PMC_Compare_X_I_Imp((NUMBER_HEADER*)u, v, &w_temp);
; 143  :     *w = w_temp;

	mov	eax, 1
	jmp	SHORT $LN20@PMC_Compar
$LN26@PMC_Compar:

; 137  :         return (PMC_STATUS_ARGUMENT_ERROR);

	mov	eax, -1
$LN1@PMC_Compar:

; 149  : }

	mov	rbx, QWORD PTR [rsp+48]
	mov	rsi, QWORD PTR [rsp+56]
	add	rsp, 32					; 00000020H
	pop	rdi
	ret	0
PMC_Compare_X_I ENDP
_TEXT	ENDS
; Function compile flags: /Ogtpy
; File z:\sources\lunor\repos\rougemeilland\palmtree.math.core.uint\palmtree.math.core.uint\pmc_compare.c
; File z:\sources\lunor\repos\rougemeilland\palmtree.math.core.uint\palmtree.math.core.uint\pmc_inline_func.h
; File z:\sources\lunor\repos\rougemeilland\palmtree.math.core.uint\palmtree.math.core.uint\pmc_compare.c
;	COMDAT PMC_Compare_L_X
_TEXT	SEGMENT
u$ = 48
v$ = 56
w$ = 64
PMC_Compare_L_X PROC					; COMDAT

; 270  : {

$LN61:
	mov	QWORD PTR [rsp+8], rbx
	mov	QWORD PTR [rsp+16], rsi
	push	rdi
	sub	rsp, 32					; 00000020H
	mov	rsi, r8
	mov	rdi, rdx
	mov	rbx, rcx

; 271  :     if (__UNIT_TYPE_BIT_COUNT * 2 < sizeof(u) * 8)
; 272  :     {
; 273  :         // _UINT64_T が 2 ワードで表現しきれない処理系には対応しない
; 274  :         return (PMC_STATUS_INTERNAL_ERROR);
; 275  :     }
; 276  :     if (v == NULL)

	test	rdx, rdx
	je	$LN58@PMC_Compar

; 277  :         return (PMC_STATUS_ARGUMENT_ERROR);
; 278  :     if (w == NULL)

	test	r8, r8
	je	$LN58@PMC_Compar

; 280  :     PMC_STATUS_CODE result;
; 281  :     if ((result = CheckNumber((NUMBER_HEADER*)v)) != PMC_STATUS_OK)

	mov	rcx, rdx
	call	CheckNumber
	test	eax, eax
	jne	$LN1@PMC_Compar

; 153  :     if (u->IS_ZERO)

	test	BYTE PTR [rdi], 1
	je	SHORT $LN8@PMC_Compar

; 154  :     {
; 155  :         // u が 0 である場合
; 156  :         if (v == 0)

	test	rbx, rbx
	setne	al

; 282  :         return (result);
; 283  :     _INT32_T w_temp;
; 284  :     PMC_Compare_X_L_Imp((NUMBER_HEADER*)v, u, &w_temp);
; 285  :     *w = -w_temp;

	mov	DWORD PTR [rsi], eax

; 286  : #ifdef _DEBUG
; 287  :     if (*w != 0 && *w != 1 && *w != -1)
; 288  :         return (PMC_STATUS_INTERNAL_ERROR);
; 289  : #endif
; 290  :     return (PMC_STATUS_OK);

	xor	eax, eax

; 291  : }

	mov	rbx, QWORD PTR [rsp+48]
	mov	rsi, QWORD PTR [rsp+56]
	add	rsp, 32					; 00000020H
	pop	rdi
	ret	0
$LN8@PMC_Compar:

; 167  :     else if (v == 0)

	test	rbx, rbx
	je	SHORT $LN59@PMC_Compar
; File z:\sources\lunor\repos\rougemeilland\palmtree.math.core.uint\palmtree.math.core.uint\pmc_inline_func.h

; 638  :         _BitScanReverse64(&pos, x);

	bsr	rax, rbx

; 639  : #elif defined(__GNUC__)
; 640  :         _UINT64_T pos;
; 641  :         __asm__("bsrq %1, %0" : "=r"(pos) : "rm"(x));
; 642  : #else
; 643  : #error unknown compiler
; 644  : #endif
; 645  : #else
; 646  : #error unknown platform
; 647  : #endif
; 648  :         return (sizeof(x) * 8 - 1 - pos);

	mov	ecx, 63					; 0000003fH
	sub	ecx, eax
; File z:\sources\lunor\repos\rougemeilland\palmtree.math.core.uint\palmtree.math.core.uint\pmc_compare.c

; 243  :             __UNIT_TYPE v_bit_count = sizeof(v) * 8 - _LZCNT_ALT_UNIT((__UNIT_TYPE)v);

	movsxd	rax, ecx
	mov	ecx, 64					; 00000040H
	sub	rcx, rax

; 244  :             if (u_bit_count > v_bit_count)

	cmp	QWORD PTR [rdi+24], rcx
	ja	SHORT $LN59@PMC_Compar

; 245  :             {
; 246  :                 // 明らかに u > v である場合
; 247  :                 *w = 1;
; 248  :             }
; 249  :             else if (u_bit_count < v_bit_count)

	jae	SHORT $LN40@PMC_Compar

; 250  :             {
; 251  :                 // 明らかに u < v である場合
; 252  :                 *w = -1;

	mov	eax, 1

; 282  :         return (result);
; 283  :     _INT32_T w_temp;
; 284  :     PMC_Compare_X_L_Imp((NUMBER_HEADER*)v, u, &w_temp);
; 285  :     *w = -w_temp;

	mov	DWORD PTR [rsi], eax

; 286  : #ifdef _DEBUG
; 287  :     if (*w != 0 && *w != 1 && *w != -1)
; 288  :         return (PMC_STATUS_INTERNAL_ERROR);
; 289  : #endif
; 290  :     return (PMC_STATUS_OK);

	xor	eax, eax

; 291  : }

	mov	rbx, QWORD PTR [rsp+48]
	mov	rsi, QWORD PTR [rsp+56]
	add	rsp, 32					; 00000020H
	pop	rdi
	ret	0
$LN40@PMC_Compar:

; 258  :                 if (u->BLOCK[0] > v)

	mov	rax, QWORD PTR [rdi+64]
	mov	rcx, QWORD PTR [rax]
	cmp	rcx, rbx
	jbe	SHORT $LN42@PMC_Compar
$LN59@PMC_Compar:

; 282  :         return (result);
; 283  :     _INT32_T w_temp;
; 284  :     PMC_Compare_X_L_Imp((NUMBER_HEADER*)v, u, &w_temp);
; 285  :     *w = -w_temp;

	mov	eax, -1
	mov	DWORD PTR [rsi], eax

; 286  : #ifdef _DEBUG
; 287  :     if (*w != 0 && *w != 1 && *w != -1)
; 288  :         return (PMC_STATUS_INTERNAL_ERROR);
; 289  : #endif
; 290  :     return (PMC_STATUS_OK);

	xor	eax, eax

; 291  : }

	mov	rbx, QWORD PTR [rsp+48]
	mov	rsi, QWORD PTR [rsp+56]
	add	rsp, 32					; 00000020H
	pop	rdi
	ret	0
$LN42@PMC_Compar:

; 260  :                 else if (u->BLOCK[0] < v)

	xor	eax, eax
	cmp	rcx, rbx
	setb	al

; 282  :         return (result);
; 283  :     _INT32_T w_temp;
; 284  :     PMC_Compare_X_L_Imp((NUMBER_HEADER*)v, u, &w_temp);
; 285  :     *w = -w_temp;

	mov	DWORD PTR [rsi], eax

; 286  : #ifdef _DEBUG
; 287  :     if (*w != 0 && *w != 1 && *w != -1)
; 288  :         return (PMC_STATUS_INTERNAL_ERROR);
; 289  : #endif
; 290  :     return (PMC_STATUS_OK);

	xor	eax, eax

; 291  : }

	mov	rbx, QWORD PTR [rsp+48]
	mov	rsi, QWORD PTR [rsp+56]
	add	rsp, 32					; 00000020H
	pop	rdi
	ret	0
$LN58@PMC_Compar:

; 279  :         return (PMC_STATUS_ARGUMENT_ERROR);

	mov	eax, -1
$LN1@PMC_Compar:

; 291  : }

	mov	rbx, QWORD PTR [rsp+48]
	mov	rsi, QWORD PTR [rsp+56]
	add	rsp, 32					; 00000020H
	pop	rdi
	ret	0
PMC_Compare_L_X ENDP
_TEXT	ENDS
; Function compile flags: /Ogtpy
; File z:\sources\lunor\repos\rougemeilland\palmtree.math.core.uint\palmtree.math.core.uint\pmc_compare.c
; File z:\sources\lunor\repos\rougemeilland\palmtree.math.core.uint\palmtree.math.core.uint\pmc_inline_func.h
; File z:\sources\lunor\repos\rougemeilland\palmtree.math.core.uint\palmtree.math.core.uint\pmc_compare.c
;	COMDAT PMC_Compare_I_X
_TEXT	SEGMENT
u$ = 48
v$ = 56
w$ = 64
PMC_Compare_I_X PROC					; COMDAT

; 104  : {

$LN29:
	mov	QWORD PTR [rsp+8], rbx
	mov	QWORD PTR [rsp+16], rsi
	push	rdi
	sub	rsp, 32					; 00000020H
	mov	edi, ecx
	mov	rsi, r8
	mov	rbx, rdx

; 105  :     if (__UNIT_TYPE_BIT_COUNT < sizeof(u) * 8)
; 106  :     {
; 107  :         // _UINT32_T が 1 ワードで表現しきれない処理系には対応しない
; 108  :         return (PMC_STATUS_INTERNAL_ERROR);
; 109  :     }
; 110  :     if (v == NULL)

	test	rdx, rdx
	je	$LN26@PMC_Compar

; 111  :         return (PMC_STATUS_ARGUMENT_ERROR);
; 112  :     if (w == NULL)

	test	r8, r8
	je	$LN26@PMC_Compar

; 114  :     PMC_STATUS_CODE result;
; 115  :     if ((result = CheckNumber((NUMBER_HEADER*)v)) != PMC_STATUS_OK)

	mov	rcx, rdx
	call	CheckNumber
	test	eax, eax
	jne	$LN1@PMC_Compar

; 55   :     if (u->IS_ZERO)

	test	BYTE PTR [rbx], 1
	je	SHORT $LN8@PMC_Compar

; 56   :     {
; 57   :         // u が 0 である場合
; 58   :         if (v == 0)
; 59   :         {
; 60   :             // v が 0 である場合
; 61   :             *w = 0;
; 62   :         }
; 63   :         else
; 64   :         {
; 65   :             // v が 0 でない場合
; 66   :             *w = -1;
; 67   :         }
; 68   :     }

	test	edi, edi
	setne	al

; 116  :         return (result);
; 117  :     _INT32_T w_temp;
; 118  :     PMC_Compare_X_I_Imp((NUMBER_HEADER*)v, u, &w_temp);
; 119  :     *w = -w_temp;

	mov	DWORD PTR [rsi], eax

; 120  : #ifdef _DEBUG
; 121  :     if (*w != 0 && *w != 1 && *w != -1)
; 122  :         return (PMC_STATUS_INTERNAL_ERROR);
; 123  : #endif
; 124  :     return (PMC_STATUS_OK);

	xor	eax, eax

; 125  : }

	mov	rbx, QWORD PTR [rsp+48]
	mov	rsi, QWORD PTR [rsp+56]
	add	rsp, 32					; 00000020H
	pop	rdi
	ret	0
$LN8@PMC_Compar:

; 69   :     else if (v == 0)

	test	edi, edi
	je	SHORT $LN27@PMC_Compar
; File z:\sources\lunor\repos\rougemeilland\palmtree.math.core.uint\palmtree.math.core.uint\pmc_inline_func.h

; 595  :         _BitScanReverse(&pos, x);

	bsr	eax, edi

; 596  : #elif defined(__GNUC__)
; 597  :         __asm__("bsrl %1, %0" : "=r"(pos) : "rm"(x));
; 598  : #else
; 599  : #error unknown compiler
; 600  : #endif
; 601  :         return (sizeof(x) * 8 - 1 - pos);

	mov	ecx, 31
	sub	ecx, eax
; File z:\sources\lunor\repos\rougemeilland\palmtree.math.core.uint\palmtree.math.core.uint\pmc_compare.c

; 78   :         __UNIT_TYPE v_bit_count = sizeof(v) * 8 - _LZCNT_ALT_32(v);

	movsxd	rax, ecx
	mov	ecx, 32					; 00000020H
	sub	rcx, rax

; 79   :         if (u_bit_count > v_bit_count)

	cmp	QWORD PTR [rbx+24], rcx
	ja	SHORT $LN27@PMC_Compar

; 80   :         {
; 81   :             // 明らかに u > v である場合
; 82   :             *w = 1;
; 83   :         }
; 84   :         else if (u_bit_count < v_bit_count)

	jae	SHORT $LN16@PMC_Compar

; 85   :         {
; 86   :             // 明らかに u < v である場合
; 87   :             *w = -1;

	mov	eax, 1

; 116  :         return (result);
; 117  :     _INT32_T w_temp;
; 118  :     PMC_Compare_X_I_Imp((NUMBER_HEADER*)v, u, &w_temp);
; 119  :     *w = -w_temp;

	mov	DWORD PTR [rsi], eax

; 120  : #ifdef _DEBUG
; 121  :     if (*w != 0 && *w != 1 && *w != -1)
; 122  :         return (PMC_STATUS_INTERNAL_ERROR);
; 123  : #endif
; 124  :     return (PMC_STATUS_OK);

	xor	eax, eax

; 125  : }

	mov	rbx, QWORD PTR [rsp+48]
	mov	rsi, QWORD PTR [rsp+56]
	add	rsp, 32					; 00000020H
	pop	rdi
	ret	0
$LN16@PMC_Compar:

; 93   :             if (u->BLOCK[0] > v)

	mov	rax, QWORD PTR [rbx+64]
	mov	rdx, QWORD PTR [rax]
	cmp	rdx, rdi
	jbe	SHORT $LN18@PMC_Compar
$LN27@PMC_Compar:

; 116  :         return (result);
; 117  :     _INT32_T w_temp;
; 118  :     PMC_Compare_X_I_Imp((NUMBER_HEADER*)v, u, &w_temp);
; 119  :     *w = -w_temp;

	mov	eax, -1
	mov	DWORD PTR [rsi], eax

; 120  : #ifdef _DEBUG
; 121  :     if (*w != 0 && *w != 1 && *w != -1)
; 122  :         return (PMC_STATUS_INTERNAL_ERROR);
; 123  : #endif
; 124  :     return (PMC_STATUS_OK);

	xor	eax, eax

; 125  : }

	mov	rbx, QWORD PTR [rsp+48]
	mov	rsi, QWORD PTR [rsp+56]
	add	rsp, 32					; 00000020H
	pop	rdi
	ret	0
$LN18@PMC_Compar:

; 95   :             else if (u->BLOCK[0] < v)

	xor	eax, eax
	cmp	rdx, rdi
	setb	al

; 116  :         return (result);
; 117  :     _INT32_T w_temp;
; 118  :     PMC_Compare_X_I_Imp((NUMBER_HEADER*)v, u, &w_temp);
; 119  :     *w = -w_temp;

	mov	DWORD PTR [rsi], eax

; 120  : #ifdef _DEBUG
; 121  :     if (*w != 0 && *w != 1 && *w != -1)
; 122  :         return (PMC_STATUS_INTERNAL_ERROR);
; 123  : #endif
; 124  :     return (PMC_STATUS_OK);

	xor	eax, eax

; 125  : }

	mov	rbx, QWORD PTR [rsp+48]
	mov	rsi, QWORD PTR [rsp+56]
	add	rsp, 32					; 00000020H
	pop	rdi
	ret	0
$LN26@PMC_Compar:

; 113  :         return (PMC_STATUS_ARGUMENT_ERROR);

	mov	eax, -1
$LN1@PMC_Compar:

; 125  : }

	mov	rbx, QWORD PTR [rsp+48]
	mov	rsi, QWORD PTR [rsp+56]
	add	rsp, 32					; 00000020H
	pop	rdi
	ret	0
PMC_Compare_I_X ENDP
_TEXT	ENDS
; Function compile flags: /Ogtpy
; File z:\sources\lunor\repos\rougemeilland\palmtree.math.core.uint\palmtree.math.core.uint\pmc_compare.c
;	COMDAT Initialize_Compare
_TEXT	SEGMENT
feature$ = 8
Initialize_Compare PROC					; COMDAT

; 369  :     return (PMC_STATUS_OK);

	xor	eax, eax

; 370  : }

	ret	0
Initialize_Compare ENDP
_TEXT	ENDS
; Function compile flags: /Ogtpy
; File z:\sources\lunor\repos\rougemeilland\palmtree.math.core.uint\palmtree.math.core.uint\pmc_compare.c
;	COMDAT Compare_Imp
_TEXT	SEGMENT
u$ = 8
v$ = 16
count$ = 24
Compare_Imp PROC					; COMDAT

; 33   :     u += count;

	lea	rax, QWORD PTR [r8*8]
	add	rcx, rax

; 34   :     v += count;

	add	rdx, rax

; 35   :     while (count > 0)

	test	r8, r8
	je	SHORT $LN3@Compare_Im
	npad	13
$LL2@Compare_Im:

; 36   :     {
; 37   :         --u;
; 38   :         --v;
; 39   :         --count;
; 40   : 
; 41   :         if (*u > *v)

	mov	rax, QWORD PTR [rcx-8]
	lea	rcx, QWORD PTR [rcx-8]
	lea	rdx, QWORD PTR [rdx-8]
	dec	r8
	cmp	rax, QWORD PTR [rdx]
	ja	SHORT $LN10@Compare_Im

; 43   :         else if (*u < *v)

	jb	SHORT $LN11@Compare_Im

; 35   :     while (count > 0)

	test	r8, r8
	jne	SHORT $LL2@Compare_Im
$LN3@Compare_Im:

; 45   :         else
; 46   :         {
; 47   :         }
; 48   :     }
; 49   :     return (0);

	xor	eax, eax

; 50   : }

	ret	0
$LN11@Compare_Im:

; 44   :             return (-1);

	mov	eax, -1

; 50   : }

	ret	0
$LN10@Compare_Im:

; 42   :             return (1);

	mov	eax, 1

; 50   : }

	ret	0
Compare_Imp ENDP
_TEXT	ENDS
END
