; Listing generated by Microsoft (R) Optimizing Compiler Version 19.16.27027.1 

include listing.inc

INCLUDELIB MSVCRT
INCLUDELIB OLDNAMES

PUBLIC	??1exception@std@@UEAA@XZ			; std::exception::~exception
PUBLIC	?what@exception@std@@UEBAPEBDXZ			; std::exception::what
PUBLIC	??_Gexception@std@@UEAAPEAXI@Z			; std::exception::`scalar deleting destructor'
PUBLIC	??0Exception@Internal@Core@Math@Palmtree@@QEAA@AEBV01234@@Z ; Palmtree::Math::Core::Internal::Exception::Exception
PUBLIC	??1Exception@Internal@Core@Math@Palmtree@@UEAA@XZ ; Palmtree::Math::Core::Internal::Exception::~Exception
PUBLIC	??_GException@Internal@Core@Math@Palmtree@@UEAAPEAXI@Z ; Palmtree::Math::Core::Internal::Exception::`scalar deleting destructor'
PUBLIC	??0ArgumentNullException@Internal@Core@Math@Palmtree@@QEAA@PEB_W0@Z ; Palmtree::Math::Core::Internal::ArgumentNullException::ArgumentNullException
PUBLIC	??0ArgumentNullException@Internal@Core@Math@Palmtree@@QEAA@AEBV01234@@Z ; Palmtree::Math::Core::Internal::ArgumentNullException::ArgumentNullException
PUBLIC	??1ArgumentNullException@Internal@Core@Math@Palmtree@@UEAA@XZ ; Palmtree::Math::Core::Internal::ArgumentNullException::~ArgumentNullException
PUBLIC	??_GArgumentNullException@Internal@Core@Math@Palmtree@@UEAAPEAXI@Z ; Palmtree::Math::Core::Internal::ArgumentNullException::`scalar deleting destructor'
PUBLIC	??0OverflowException@Internal@Core@Math@Palmtree@@QEAA@PEB_W@Z ; Palmtree::Math::Core::Internal::OverflowException::OverflowException
PUBLIC	??0OverflowException@Internal@Core@Math@Palmtree@@QEAA@AEBV01234@@Z ; Palmtree::Math::Core::Internal::OverflowException::OverflowException
PUBLIC	??1OverflowException@Internal@Core@Math@Palmtree@@UEAA@XZ ; Palmtree::Math::Core::Internal::OverflowException::~OverflowException
PUBLIC	??_GOverflowException@Internal@Core@Math@Palmtree@@UEAAPEAXI@Z ; Palmtree::Math::Core::Internal::OverflowException::`scalar deleting destructor'
PUBLIC	??0ArithmeticException@Internal@Core@Math@Palmtree@@QEAA@PEB_W@Z ; Palmtree::Math::Core::Internal::ArithmeticException::ArithmeticException
PUBLIC	??1ArithmeticException@Internal@Core@Math@Palmtree@@UEAA@XZ ; Palmtree::Math::Core::Internal::ArithmeticException::~ArithmeticException
PUBLIC	??0ArithmeticException@Internal@Core@Math@Palmtree@@QEAA@AEBV01234@@Z ; Palmtree::Math::Core::Internal::ArithmeticException::ArithmeticException
PUBLIC	??_GArithmeticException@Internal@Core@Math@Palmtree@@UEAAPEAXI@Z ; Palmtree::Math::Core::Internal::ArithmeticException::`scalar deleting destructor'
PUBLIC	??1InternalErrorException@Internal@Core@Math@Palmtree@@UEAA@XZ ; Palmtree::Math::Core::Internal::InternalErrorException::~InternalErrorException
PUBLIC	??_GInternalErrorException@Internal@Core@Math@Palmtree@@UEAAPEAXI@Z ; Palmtree::Math::Core::Internal::InternalErrorException::`scalar deleting destructor'
PUBLIC	?PMC_Pow_X_I_Imp@Internal@Core@Math@Palmtree@@YAPEAU__tag_NUMBER_HEADER@1234@PEAU51234@I@Z ; Palmtree::Math::Core::Internal::PMC_Pow_X_I_Imp
PUBLIC	?PMC_Pow_X_L_Imp@Internal@Core@Math@Palmtree@@YAPEAU__tag_NUMBER_HEADER@1234@PEAU51234@_K@Z ; Palmtree::Math::Core::Internal::PMC_Pow_X_L_Imp
PUBLIC	?PMC_TimesOfExponentOf10_Imp@Internal@Core@Math@Palmtree@@YAPEAU__tag_NUMBER_HEADER@1234@I_K@Z ; Palmtree::Math::Core::Internal::PMC_TimesOfExponentOf10_Imp
PUBLIC	?Initialize_Pow@Internal@Core@Math@Palmtree@@YAHPEAU_tag_PROCESSOR_FEATURES@1234@@Z ; Palmtree::Math::Core::Internal::Initialize_Pow
PUBLIC	?PMC_Pow_X_I@Internal@Core@Math@Palmtree@@YAPEAU__tag_PMC_HANDLE_UINT@1234@PEAU51234@I@Z ; Palmtree::Math::Core::Internal::PMC_Pow_X_I
PUBLIC	?PMC_Pow_X_L@Internal@Core@Math@Palmtree@@YAPEAU__tag_PMC_HANDLE_UINT@1234@PEAU51234@_K@Z ; Palmtree::Math::Core::Internal::PMC_Pow_X_L
PUBLIC	?PMC_TimesOfExponentOf10@Internal@Core@Math@Palmtree@@YAPEAU__tag_PMC_HANDLE_UINT@1234@II@Z ; Palmtree::Math::Core::Internal::PMC_TimesOfExponentOf10
PUBLIC	??_7exception@std@@6B@				; std::exception::`vftable'
PUBLIC	??_C@_0BC@EOODALEL@Unknown?5exception@		; `string'
PUBLIC	??_7Exception@Internal@Core@Math@Palmtree@@6B@	; Palmtree::Math::Core::Internal::Exception::`vftable'
PUBLIC	??_7ArgumentNullException@Internal@Core@Math@Palmtree@@6B@ ; Palmtree::Math::Core::Internal::ArgumentNullException::`vftable'
PUBLIC	??_7OverflowException@Internal@Core@Math@Palmtree@@6B@ ; Palmtree::Math::Core::Internal::OverflowException::`vftable'
PUBLIC	??_7ArithmeticException@Internal@Core@Math@Palmtree@@6B@ ; Palmtree::Math::Core::Internal::ArithmeticException::`vftable'
PUBLIC	??_7InternalErrorException@Internal@Core@Math@Palmtree@@6B@ ; Palmtree::Math::Core::Internal::InternalErrorException::`vftable'
PUBLIC	??_R0?AVInternalErrorException@Internal@Core@Math@Palmtree@@@8 ; Palmtree::Math::Core::Internal::InternalErrorException `RTTI Type Descriptor'
PUBLIC	??_R0?AVException@Internal@Core@Math@Palmtree@@@8 ; Palmtree::Math::Core::Internal::Exception `RTTI Type Descriptor'
PUBLIC	_CT??_R0?AVException@Internal@Core@Math@Palmtree@@@8??0Exception@Internal@Core@Math@Palmtree@@QEAA@AEBV01234@@Z48
PUBLIC	_TI2?AVArithmeticException@Internal@Core@Math@Palmtree@@
PUBLIC	_CTA2?AVArithmeticException@Internal@Core@Math@Palmtree@@
PUBLIC	??_R0?AVArithmeticException@Internal@Core@Math@Palmtree@@@8 ; Palmtree::Math::Core::Internal::ArithmeticException `RTTI Type Descriptor'
PUBLIC	_CT??_R0?AVArithmeticException@Internal@Core@Math@Palmtree@@@8??0ArithmeticException@Internal@Core@Math@Palmtree@@QEAA@AEBV01234@@Z48
PUBLIC	??_C@_1BM@OCOOKOCJ@?$AA0?$AAn?$AA0?$AAW?$AAn?$AA$?$AAo?$AA?$CK?$PP?$JK?$PP?$KJ?$AAg?$AAY?$AA?$AC@ ; `string'
PUBLIC	_TI2?AVOverflowException@Internal@Core@Math@Palmtree@@
PUBLIC	_CTA2?AVOverflowException@Internal@Core@Math@Palmtree@@
PUBLIC	??_R0?AVOverflowException@Internal@Core@Math@Palmtree@@@8 ; Palmtree::Math::Core::Internal::OverflowException `RTTI Type Descriptor'
PUBLIC	_CT??_R0?AVOverflowException@Internal@Core@Math@Palmtree@@@8??0OverflowException@Internal@Core@Math@Palmtree@@QEAA@AEBV01234@@Z48
PUBLIC	??_C@_1CM@JEKMNCAI@?$PP?$KK?$PP?$PM?$PP?P?$PP?$PM?$PP?U?$PP?m?$PP?$PM?$AAk?$PP?$II?$PP?$IK?$AA?$AI?$PP?$JH?$PP?$JC?$PP?$JK?$AAL@ ; `string'
PUBLIC	_TI2?AVArgumentNullException@Internal@Core@Math@Palmtree@@
PUBLIC	_CTA2?AVArgumentNullException@Internal@Core@Math@Palmtree@@
PUBLIC	??_R0?AVArgumentNullException@Internal@Core@Math@Palmtree@@@8 ; Palmtree::Math::Core::Internal::ArgumentNullException `RTTI Type Descriptor'
PUBLIC	_CT??_R0?AVArgumentNullException@Internal@Core@Math@Palmtree@@@8??0ArgumentNullException@Internal@Core@Math@Palmtree@@QEAA@AEBV01234@@Z48
PUBLIC	??_C@_13JAOPNPKD@?$AAv@				; `string'
PUBLIC	??_C@_1CK@ECFIEPAC@?$AA?$BF?$AAp?$AAk?$AAn?$AAu?$AAl?$AAl?$AAp?$AAt?$AAr?$AAL?$AA?$AO?$AAH?$PP?$IJ?$PP?$IM@ ; `string'
PUBLIC	??_R4exception@std@@6B@				; std::exception::`RTTI Complete Object Locator'
PUBLIC	??_R0?AVexception@std@@@8			; std::exception `RTTI Type Descriptor'
PUBLIC	??_R3exception@std@@8				; std::exception::`RTTI Class Hierarchy Descriptor'
PUBLIC	??_R2exception@std@@8				; std::exception::`RTTI Base Class Array'
PUBLIC	??_R1A@?0A@EA@exception@std@@8			; std::exception::`RTTI Base Class Descriptor at (0,-1,0,64)'
PUBLIC	??_R4Exception@Internal@Core@Math@Palmtree@@6B@	; Palmtree::Math::Core::Internal::Exception::`RTTI Complete Object Locator'
PUBLIC	??_R3Exception@Internal@Core@Math@Palmtree@@8	; Palmtree::Math::Core::Internal::Exception::`RTTI Class Hierarchy Descriptor'
PUBLIC	??_R2Exception@Internal@Core@Math@Palmtree@@8	; Palmtree::Math::Core::Internal::Exception::`RTTI Base Class Array'
PUBLIC	??_R1A@?0A@EA@Exception@Internal@Core@Math@Palmtree@@8 ; Palmtree::Math::Core::Internal::Exception::`RTTI Base Class Descriptor at (0,-1,0,64)'
PUBLIC	??_R1A@?0A@EN@exception@std@@8			; std::exception::`RTTI Base Class Descriptor at (0,-1,0,77)'
PUBLIC	??_R4ArgumentNullException@Internal@Core@Math@Palmtree@@6B@ ; Palmtree::Math::Core::Internal::ArgumentNullException::`RTTI Complete Object Locator'
PUBLIC	??_R3ArgumentNullException@Internal@Core@Math@Palmtree@@8 ; Palmtree::Math::Core::Internal::ArgumentNullException::`RTTI Class Hierarchy Descriptor'
PUBLIC	??_R2ArgumentNullException@Internal@Core@Math@Palmtree@@8 ; Palmtree::Math::Core::Internal::ArgumentNullException::`RTTI Base Class Array'
PUBLIC	??_R1A@?0A@EA@ArgumentNullException@Internal@Core@Math@Palmtree@@8 ; Palmtree::Math::Core::Internal::ArgumentNullException::`RTTI Base Class Descriptor at (0,-1,0,64)'
PUBLIC	??_R4OverflowException@Internal@Core@Math@Palmtree@@6B@ ; Palmtree::Math::Core::Internal::OverflowException::`RTTI Complete Object Locator'
PUBLIC	??_R3OverflowException@Internal@Core@Math@Palmtree@@8 ; Palmtree::Math::Core::Internal::OverflowException::`RTTI Class Hierarchy Descriptor'
PUBLIC	??_R2OverflowException@Internal@Core@Math@Palmtree@@8 ; Palmtree::Math::Core::Internal::OverflowException::`RTTI Base Class Array'
PUBLIC	??_R1A@?0A@EA@OverflowException@Internal@Core@Math@Palmtree@@8 ; Palmtree::Math::Core::Internal::OverflowException::`RTTI Base Class Descriptor at (0,-1,0,64)'
PUBLIC	??_R4ArithmeticException@Internal@Core@Math@Palmtree@@6B@ ; Palmtree::Math::Core::Internal::ArithmeticException::`RTTI Complete Object Locator'
PUBLIC	??_R3ArithmeticException@Internal@Core@Math@Palmtree@@8 ; Palmtree::Math::Core::Internal::ArithmeticException::`RTTI Class Hierarchy Descriptor'
PUBLIC	??_R2ArithmeticException@Internal@Core@Math@Palmtree@@8 ; Palmtree::Math::Core::Internal::ArithmeticException::`RTTI Base Class Array'
PUBLIC	??_R1A@?0A@EA@ArithmeticException@Internal@Core@Math@Palmtree@@8 ; Palmtree::Math::Core::Internal::ArithmeticException::`RTTI Base Class Descriptor at (0,-1,0,64)'
PUBLIC	??_R4InternalErrorException@Internal@Core@Math@Palmtree@@6B@ ; Palmtree::Math::Core::Internal::InternalErrorException::`RTTI Complete Object Locator'
PUBLIC	??_R3InternalErrorException@Internal@Core@Math@Palmtree@@8 ; Palmtree::Math::Core::Internal::InternalErrorException::`RTTI Class Hierarchy Descriptor'
PUBLIC	??_R2InternalErrorException@Internal@Core@Math@Palmtree@@8 ; Palmtree::Math::Core::Internal::InternalErrorException::`RTTI Base Class Array'
PUBLIC	??_R1A@?0A@EA@InternalErrorException@Internal@Core@Math@Palmtree@@8 ; Palmtree::Math::Core::Internal::InternalErrorException::`RTTI Base Class Descriptor at (0,-1,0,64)'
EXTRN	??3@YAXPEAX_K@Z:PROC				; operator delete
EXTRN	__std_exception_destroy:PROC
EXTRN	??_Eexception@std@@UEAAPEAXI@Z:PROC		; std::exception::`vector deleting destructor'
EXTRN	??_EException@Internal@Core@Math@Palmtree@@UEAAPEAXI@Z:PROC ; Palmtree::Math::Core::Internal::Exception::`vector deleting destructor'
EXTRN	??_EArgumentNullException@Internal@Core@Math@Palmtree@@UEAAPEAXI@Z:PROC ; Palmtree::Math::Core::Internal::ArgumentNullException::`vector deleting destructor'
EXTRN	??_EOverflowException@Internal@Core@Math@Palmtree@@UEAAPEAXI@Z:PROC ; Palmtree::Math::Core::Internal::OverflowException::`vector deleting destructor'
EXTRN	??_EArithmeticException@Internal@Core@Math@Palmtree@@UEAAPEAXI@Z:PROC ; Palmtree::Math::Core::Internal::ArithmeticException::`vector deleting destructor'
EXTRN	??_EInternalErrorException@Internal@Core@Math@Palmtree@@UEAAPEAXI@Z:PROC ; Palmtree::Math::Core::Internal::InternalErrorException::`vector deleting destructor'
EXTRN	?CommitNumber@Internal@Core@Math@Palmtree@@YAXPEAU__tag_NUMBER_HEADER@1234@@Z:PROC ; Palmtree::Math::Core::Internal::CommitNumber
EXTRN	?CheckNumber@Internal@Core@Math@Palmtree@@YAXPEAU__tag_NUMBER_HEADER@1234@@Z:PROC ; Palmtree::Math::Core::Internal::CheckNumber
EXTRN	?DuplicateNumber@Internal@Core@Math@Palmtree@@YAPEAU__tag_NUMBER_HEADER@1234@PEAU51234@@Z:PROC ; Palmtree::Math::Core::Internal::DuplicateNumber
EXTRN	?From_I_Imp@Internal@Core@Math@Palmtree@@YAPEAU__tag_NUMBER_HEADER@1234@I@Z:PROC ; Palmtree::Math::Core::Internal::From_I_Imp
EXTRN	?Multiply_X_X_Imp@Internal@Core@Math@Palmtree@@YAXPEA_K_K010@Z:PROC ; Palmtree::Math::Core::Internal::Multiply_X_X_Imp
EXTRN	?PMC_Multiply_X_I_Imp@Internal@Core@Math@Palmtree@@YAPEAU__tag_NUMBER_HEADER@1234@PEAU51234@I@Z:PROC ; Palmtree::Math::Core::Internal::PMC_Multiply_X_I_Imp
EXTRN	??0ResourceHolderUINT@Internal@Core@Math@Palmtree@@QEAA@XZ:PROC ; Palmtree::Math::Core::Internal::ResourceHolderUINT::ResourceHolderUINT
EXTRN	??1ResourceHolderUINT@Internal@Core@Math@Palmtree@@UEAA@XZ:PROC ; Palmtree::Math::Core::Internal::ResourceHolderUINT::~ResourceHolderUINT
EXTRN	?AllocateBlock@ResourceHolderUINT@Internal@Core@Math@Palmtree@@QEAAPEA_K_K@Z:PROC ; Palmtree::Math::Core::Internal::ResourceHolderUINT::AllocateBlock
EXTRN	?CheckBlock@ResourceHolderUINT@Internal@Core@Math@Palmtree@@QEAAXPEA_K@Z:PROC ; Palmtree::Math::Core::Internal::ResourceHolderUINT::CheckBlock
EXTRN	?AllocateNumber@ResourceHolderUINT@Internal@Core@Math@Palmtree@@QEAAPEAU__tag_NUMBER_HEADER@2345@_K@Z:PROC ; Palmtree::Math::Core::Internal::ResourceHolderUINT::AllocateNumber
EXTRN	?HookNumber@ResourceHolderUINT@Internal@Core@Math@Palmtree@@QEAAXPEAU__tag_NUMBER_HEADER@2345@@Z:PROC ; Palmtree::Math::Core::Internal::ResourceHolderUINT::HookNumber
EXTRN	?CheckNumber@ResourceHolderUINT@Internal@Core@Math@Palmtree@@QEAAXPEAU__tag_NUMBER_HEADER@2345@@Z:PROC ; Palmtree::Math::Core::Internal::ResourceHolderUINT::CheckNumber
EXTRN	?UnlinkNumber@ResourceHolderUINT@Internal@Core@Math@Palmtree@@QEAAXPEAU__tag_NUMBER_HEADER@2345@@Z:PROC ; Palmtree::Math::Core::Internal::ResourceHolderUINT::UnlinkNumber
EXTRN	_CxxThrowException:PROC
EXTRN	__CxxFrameHandler3:PROC
EXTRN	?number_zero@Internal@Core@Math@Palmtree@@3U__tag_NUMBER_HEADER@1234@A:BYTE ; Palmtree::Math::Core::Internal::number_zero
EXTRN	?number_one@Internal@Core@Math@Palmtree@@3U__tag_NUMBER_HEADER@1234@A:BYTE ; Palmtree::Math::Core::Internal::number_one
EXTRN	??_7type_info@@6B@:BYTE				; type_info::`vftable'
;	COMDAT pdata
pdata	SEGMENT
$pdata$??1exception@std@@UEAA@XZ DD imagerel $LN5
	DD	imagerel $LN5+38
	DD	imagerel $unwind$??1exception@std@@UEAA@XZ
pdata	ENDS
;	COMDAT pdata
pdata	SEGMENT
$pdata$??_Gexception@std@@UEAAPEAXI@Z DD imagerel $LN9
	DD	imagerel $LN9+78
	DD	imagerel $unwind$??_Gexception@std@@UEAAPEAXI@Z
pdata	ENDS
;	COMDAT pdata
pdata	SEGMENT
$pdata$??0Exception@Internal@Core@Math@Palmtree@@IEAA@HPEB_W@Z DD imagerel $LN8
	DD	imagerel $LN8+70
	DD	imagerel $unwind$??0Exception@Internal@Core@Math@Palmtree@@IEAA@HPEB_W@Z
pdata	ENDS
;	COMDAT pdata
pdata	SEGMENT
$pdata$??0Exception@Internal@Core@Math@Palmtree@@IEAA@HPEB_W0@Z DD imagerel $LN8
	DD	imagerel $LN8+66
	DD	imagerel $unwind$??0Exception@Internal@Core@Math@Palmtree@@IEAA@HPEB_W0@Z
pdata	ENDS
;	COMDAT pdata
pdata	SEGMENT
$pdata$??0Exception@Internal@Core@Math@Palmtree@@QEAA@AEBV01234@@Z DD imagerel $LN8
	DD	imagerel $LN8+77
	DD	imagerel $unwind$??0Exception@Internal@Core@Math@Palmtree@@QEAA@AEBV01234@@Z
pdata	ENDS
;	COMDAT pdata
pdata	SEGMENT
$pdata$??1Exception@Internal@Core@Math@Palmtree@@UEAA@XZ DD imagerel $LN8
	DD	imagerel $LN8+53
	DD	imagerel $unwind$??1Exception@Internal@Core@Math@Palmtree@@UEAA@XZ
pdata	ENDS
;	COMDAT pdata
pdata	SEGMENT
$pdata$??_GException@Internal@Core@Math@Palmtree@@UEAAPEAXI@Z DD imagerel $LN12
	DD	imagerel $LN12+92
	DD	imagerel $unwind$??_GException@Internal@Core@Math@Palmtree@@UEAAPEAXI@Z
pdata	ENDS
;	COMDAT pdata
pdata	SEGMENT
$pdata$??0ArgumentNullException@Internal@Core@Math@Palmtree@@QEAA@PEB_W0@Z DD imagerel $LN11
	DD	imagerel $LN11+80
	DD	imagerel $unwind$??0ArgumentNullException@Internal@Core@Math@Palmtree@@QEAA@PEB_W0@Z
pdata	ENDS
;	COMDAT pdata
pdata	SEGMENT
$pdata$??0ArgumentNullException@Internal@Core@Math@Palmtree@@QEAA@AEBV01234@@Z DD imagerel $LN11
	DD	imagerel $LN11+87
	DD	imagerel $unwind$??0ArgumentNullException@Internal@Core@Math@Palmtree@@QEAA@AEBV01234@@Z
pdata	ENDS
;	COMDAT pdata
pdata	SEGMENT
$pdata$??1ArgumentNullException@Internal@Core@Math@Palmtree@@UEAA@XZ DD imagerel $LN11
	DD	imagerel $LN11+63
	DD	imagerel $unwind$??1ArgumentNullException@Internal@Core@Math@Palmtree@@UEAA@XZ
pdata	ENDS
;	COMDAT pdata
pdata	SEGMENT
$pdata$??_GArgumentNullException@Internal@Core@Math@Palmtree@@UEAAPEAXI@Z DD imagerel $LN15
	DD	imagerel $LN15+102
	DD	imagerel $unwind$??_GArgumentNullException@Internal@Core@Math@Palmtree@@UEAAPEAXI@Z
pdata	ENDS
;	COMDAT pdata
pdata	SEGMENT
$pdata$??0OverflowException@Internal@Core@Math@Palmtree@@QEAA@PEB_W@Z DD imagerel $LN11
	DD	imagerel $LN11+84
	DD	imagerel $unwind$??0OverflowException@Internal@Core@Math@Palmtree@@QEAA@PEB_W@Z
pdata	ENDS
;	COMDAT pdata
pdata	SEGMENT
$pdata$??0OverflowException@Internal@Core@Math@Palmtree@@QEAA@AEBV01234@@Z DD imagerel $LN11
	DD	imagerel $LN11+87
	DD	imagerel $unwind$??0OverflowException@Internal@Core@Math@Palmtree@@QEAA@AEBV01234@@Z
pdata	ENDS
;	COMDAT pdata
pdata	SEGMENT
$pdata$??1OverflowException@Internal@Core@Math@Palmtree@@UEAA@XZ DD imagerel $LN11
	DD	imagerel $LN11+63
	DD	imagerel $unwind$??1OverflowException@Internal@Core@Math@Palmtree@@UEAA@XZ
pdata	ENDS
;	COMDAT pdata
pdata	SEGMENT
$pdata$??_GOverflowException@Internal@Core@Math@Palmtree@@UEAAPEAXI@Z DD imagerel $LN15
	DD	imagerel $LN15+102
	DD	imagerel $unwind$??_GOverflowException@Internal@Core@Math@Palmtree@@UEAAPEAXI@Z
pdata	ENDS
;	COMDAT pdata
pdata	SEGMENT
$pdata$??0ArithmeticException@Internal@Core@Math@Palmtree@@QEAA@PEB_W@Z DD imagerel $LN11
	DD	imagerel $LN11+84
	DD	imagerel $unwind$??0ArithmeticException@Internal@Core@Math@Palmtree@@QEAA@PEB_W@Z
pdata	ENDS
;	COMDAT pdata
pdata	SEGMENT
$pdata$??1ArithmeticException@Internal@Core@Math@Palmtree@@UEAA@XZ DD imagerel $LN11
	DD	imagerel $LN11+63
	DD	imagerel $unwind$??1ArithmeticException@Internal@Core@Math@Palmtree@@UEAA@XZ
pdata	ENDS
;	COMDAT pdata
pdata	SEGMENT
$pdata$??0ArithmeticException@Internal@Core@Math@Palmtree@@QEAA@AEBV01234@@Z DD imagerel $LN11
	DD	imagerel $LN11+87
	DD	imagerel $unwind$??0ArithmeticException@Internal@Core@Math@Palmtree@@QEAA@AEBV01234@@Z
pdata	ENDS
;	COMDAT pdata
pdata	SEGMENT
$pdata$??_GArithmeticException@Internal@Core@Math@Palmtree@@UEAAPEAXI@Z DD imagerel $LN15
	DD	imagerel $LN15+102
	DD	imagerel $unwind$??_GArithmeticException@Internal@Core@Math@Palmtree@@UEAAPEAXI@Z
pdata	ENDS
;	COMDAT pdata
pdata	SEGMENT
$pdata$??0InternalErrorException@Internal@Core@Math@Palmtree@@QEAA@PEB_W0@Z DD imagerel $LN11
	DD	imagerel $LN11+80
	DD	imagerel $unwind$??0InternalErrorException@Internal@Core@Math@Palmtree@@QEAA@PEB_W0@Z
pdata	ENDS
;	COMDAT pdata
pdata	SEGMENT
$pdata$??1InternalErrorException@Internal@Core@Math@Palmtree@@UEAA@XZ DD imagerel $LN11
	DD	imagerel $LN11+63
	DD	imagerel $unwind$??1InternalErrorException@Internal@Core@Math@Palmtree@@UEAA@XZ
pdata	ENDS
;	COMDAT pdata
pdata	SEGMENT
$pdata$??_GInternalErrorException@Internal@Core@Math@Palmtree@@UEAAPEAXI@Z DD imagerel $LN15
	DD	imagerel $LN15+102
	DD	imagerel $unwind$??_GInternalErrorException@Internal@Core@Math@Palmtree@@UEAAPEAXI@Z
pdata	ENDS
;	COMDAT pdata
pdata	SEGMENT
$pdata$?PMC_Pow_X_I_Imp@Internal@Core@Math@Palmtree@@YAPEAU__tag_NUMBER_HEADER@1234@PEAU51234@I@Z DD imagerel $LN44
	DD	imagerel $LN44+659
	DD	imagerel $unwind$?PMC_Pow_X_I_Imp@Internal@Core@Math@Palmtree@@YAPEAU__tag_NUMBER_HEADER@1234@PEAU51234@I@Z
pdata	ENDS
;	COMDAT pdata
pdata	SEGMENT
$pdata$?PMC_Pow_X_L_Imp@Internal@Core@Math@Palmtree@@YAPEAU__tag_NUMBER_HEADER@1234@PEAU51234@_K@Z DD imagerel $LN44
	DD	imagerel $LN44+659
	DD	imagerel $unwind$?PMC_Pow_X_L_Imp@Internal@Core@Math@Palmtree@@YAPEAU__tag_NUMBER_HEADER@1234@PEAU51234@_K@Z
pdata	ENDS
;	COMDAT pdata
pdata	SEGMENT
$pdata$?PMC_TimesOfExponentOf10_Imp@Internal@Core@Math@Palmtree@@YAPEAU__tag_NUMBER_HEADER@1234@I_K@Z DD imagerel $LN11
	DD	imagerel $LN11+194
	DD	imagerel $unwind$?PMC_TimesOfExponentOf10_Imp@Internal@Core@Math@Palmtree@@YAPEAU__tag_NUMBER_HEADER@1234@I_K@Z
pdata	ENDS
;	COMDAT pdata
pdata	SEGMENT
$pdata$?PMC_Pow_X_I@Internal@Core@Math@Palmtree@@YAPEAU__tag_PMC_HANDLE_UINT@1234@PEAU51234@I@Z DD imagerel $LN10
	DD	imagerel $LN10+164
	DD	imagerel $unwind$?PMC_Pow_X_I@Internal@Core@Math@Palmtree@@YAPEAU__tag_PMC_HANDLE_UINT@1234@PEAU51234@I@Z
pdata	ENDS
;	COMDAT pdata
pdata	SEGMENT
$pdata$?PMC_Pow_X_L@Internal@Core@Math@Palmtree@@YAPEAU__tag_PMC_HANDLE_UINT@1234@PEAU51234@_K@Z DD imagerel $LN10
	DD	imagerel $LN10+166
	DD	imagerel $unwind$?PMC_Pow_X_L@Internal@Core@Math@Palmtree@@YAPEAU__tag_PMC_HANDLE_UINT@1234@PEAU51234@_K@Z
pdata	ENDS
;	COMDAT pdata
pdata	SEGMENT
$pdata$?PMC_TimesOfExponentOf10@Internal@Core@Math@Palmtree@@YAPEAU__tag_PMC_HANDLE_UINT@1234@II@Z DD imagerel $LN13
	DD	imagerel $LN13+192
	DD	imagerel $unwind$?PMC_TimesOfExponentOf10@Internal@Core@Math@Palmtree@@YAPEAU__tag_PMC_HANDLE_UINT@1234@II@Z
pdata	ENDS
;	COMDAT pdata
pdata	SEGMENT
$pdata$_COPY_MEMORY_UNIT DD imagerel _COPY_MEMORY_UNIT
	DD	imagerel _COPY_MEMORY_UNIT+33
	DD	imagerel $unwind$_COPY_MEMORY_UNIT
pdata	ENDS
;	COMDAT pdata
pdata	SEGMENT
$pdata$_ZERO_MEMORY_UNIT DD imagerel _ZERO_MEMORY_UNIT
	DD	imagerel _ZERO_MEMORY_UNIT+22
	DD	imagerel $unwind$_ZERO_MEMORY_UNIT
pdata	ENDS
;	COMDAT pdata
pdata	SEGMENT
$pdata$?Pow_X_I_Imp@Internal@Core@Math@Palmtree@@YAXPEA_K_KI000@Z DD imagerel ?Pow_X_I_Imp@Internal@Core@Math@Palmtree@@YAXPEA_K_KI000@Z
	DD	imagerel ?Pow_X_I_Imp@Internal@Core@Math@Palmtree@@YAXPEA_K_KI000@Z+96
	DD	imagerel $unwind$?Pow_X_I_Imp@Internal@Core@Math@Palmtree@@YAXPEA_K_KI000@Z
pdata	ENDS
;	COMDAT pdata
pdata	SEGMENT
$pdata$0$?Pow_X_I_Imp@Internal@Core@Math@Palmtree@@YAXPEA_K_KI000@Z DD imagerel ?Pow_X_I_Imp@Internal@Core@Math@Palmtree@@YAXPEA_K_KI000@Z+96
	DD	imagerel ?Pow_X_I_Imp@Internal@Core@Math@Palmtree@@YAXPEA_K_KI000@Z+261
	DD	imagerel $chain$0$?Pow_X_I_Imp@Internal@Core@Math@Palmtree@@YAXPEA_K_KI000@Z
pdata	ENDS
;	COMDAT pdata
pdata	SEGMENT
$pdata$1$?Pow_X_I_Imp@Internal@Core@Math@Palmtree@@YAXPEA_K_KI000@Z DD imagerel ?Pow_X_I_Imp@Internal@Core@Math@Palmtree@@YAXPEA_K_KI000@Z+261
	DD	imagerel ?Pow_X_I_Imp@Internal@Core@Math@Palmtree@@YAXPEA_K_KI000@Z+293
	DD	imagerel $chain$1$?Pow_X_I_Imp@Internal@Core@Math@Palmtree@@YAXPEA_K_KI000@Z
pdata	ENDS
;	COMDAT pdata
pdata	SEGMENT
$pdata$?Pow_X_L_Imp@Internal@Core@Math@Palmtree@@YAXPEA_K_K1000@Z DD imagerel ?Pow_X_L_Imp@Internal@Core@Math@Palmtree@@YAXPEA_K_K1000@Z
	DD	imagerel ?Pow_X_L_Imp@Internal@Core@Math@Palmtree@@YAXPEA_K_K1000@Z+98
	DD	imagerel $unwind$?Pow_X_L_Imp@Internal@Core@Math@Palmtree@@YAXPEA_K_K1000@Z
pdata	ENDS
;	COMDAT pdata
pdata	SEGMENT
$pdata$0$?Pow_X_L_Imp@Internal@Core@Math@Palmtree@@YAXPEA_K_K1000@Z DD imagerel ?Pow_X_L_Imp@Internal@Core@Math@Palmtree@@YAXPEA_K_K1000@Z+98
	DD	imagerel ?Pow_X_L_Imp@Internal@Core@Math@Palmtree@@YAXPEA_K_K1000@Z+263
	DD	imagerel $chain$0$?Pow_X_L_Imp@Internal@Core@Math@Palmtree@@YAXPEA_K_K1000@Z
pdata	ENDS
;	COMDAT pdata
pdata	SEGMENT
$pdata$1$?Pow_X_L_Imp@Internal@Core@Math@Palmtree@@YAXPEA_K_K1000@Z DD imagerel ?Pow_X_L_Imp@Internal@Core@Math@Palmtree@@YAXPEA_K_K1000@Z+263
	DD	imagerel ?Pow_X_L_Imp@Internal@Core@Math@Palmtree@@YAXPEA_K_K1000@Z+295
	DD	imagerel $chain$1$?Pow_X_L_Imp@Internal@Core@Math@Palmtree@@YAXPEA_K_K1000@Z
pdata	ENDS
;	COMDAT ??_R1A@?0A@EA@InternalErrorException@Internal@Core@Math@Palmtree@@8
rdata$r	SEGMENT
??_R1A@?0A@EA@InternalErrorException@Internal@Core@Math@Palmtree@@8 DD imagerel ??_R0?AVInternalErrorException@Internal@Core@Math@Palmtree@@@8 ; Palmtree::Math::Core::Internal::InternalErrorException::`RTTI Base Class Descriptor at (0,-1,0,64)'
	DD	02H
	DD	00H
	DD	0ffffffffH
	DD	00H
	DD	040H
	DD	imagerel ??_R3InternalErrorException@Internal@Core@Math@Palmtree@@8
rdata$r	ENDS
;	COMDAT ??_R2InternalErrorException@Internal@Core@Math@Palmtree@@8
rdata$r	SEGMENT
??_R2InternalErrorException@Internal@Core@Math@Palmtree@@8 DD imagerel ??_R1A@?0A@EA@InternalErrorException@Internal@Core@Math@Palmtree@@8 ; Palmtree::Math::Core::Internal::InternalErrorException::`RTTI Base Class Array'
	DD	imagerel ??_R1A@?0A@EA@Exception@Internal@Core@Math@Palmtree@@8
	DD	imagerel ??_R1A@?0A@EN@exception@std@@8
	ORG $+3
rdata$r	ENDS
;	COMDAT ??_R3InternalErrorException@Internal@Core@Math@Palmtree@@8
rdata$r	SEGMENT
??_R3InternalErrorException@Internal@Core@Math@Palmtree@@8 DD 00H ; Palmtree::Math::Core::Internal::InternalErrorException::`RTTI Class Hierarchy Descriptor'
	DD	00H
	DD	03H
	DD	imagerel ??_R2InternalErrorException@Internal@Core@Math@Palmtree@@8
rdata$r	ENDS
;	COMDAT ??_R4InternalErrorException@Internal@Core@Math@Palmtree@@6B@
rdata$r	SEGMENT
??_R4InternalErrorException@Internal@Core@Math@Palmtree@@6B@ DD 01H ; Palmtree::Math::Core::Internal::InternalErrorException::`RTTI Complete Object Locator'
	DD	00H
	DD	00H
	DD	imagerel ??_R0?AVInternalErrorException@Internal@Core@Math@Palmtree@@@8
	DD	imagerel ??_R3InternalErrorException@Internal@Core@Math@Palmtree@@8
	DD	imagerel ??_R4InternalErrorException@Internal@Core@Math@Palmtree@@6B@
rdata$r	ENDS
;	COMDAT ??_R1A@?0A@EA@ArithmeticException@Internal@Core@Math@Palmtree@@8
rdata$r	SEGMENT
??_R1A@?0A@EA@ArithmeticException@Internal@Core@Math@Palmtree@@8 DD imagerel ??_R0?AVArithmeticException@Internal@Core@Math@Palmtree@@@8 ; Palmtree::Math::Core::Internal::ArithmeticException::`RTTI Base Class Descriptor at (0,-1,0,64)'
	DD	02H
	DD	00H
	DD	0ffffffffH
	DD	00H
	DD	040H
	DD	imagerel ??_R3ArithmeticException@Internal@Core@Math@Palmtree@@8
rdata$r	ENDS
;	COMDAT ??_R2ArithmeticException@Internal@Core@Math@Palmtree@@8
rdata$r	SEGMENT
??_R2ArithmeticException@Internal@Core@Math@Palmtree@@8 DD imagerel ??_R1A@?0A@EA@ArithmeticException@Internal@Core@Math@Palmtree@@8 ; Palmtree::Math::Core::Internal::ArithmeticException::`RTTI Base Class Array'
	DD	imagerel ??_R1A@?0A@EA@Exception@Internal@Core@Math@Palmtree@@8
	DD	imagerel ??_R1A@?0A@EN@exception@std@@8
	ORG $+3
rdata$r	ENDS
;	COMDAT ??_R3ArithmeticException@Internal@Core@Math@Palmtree@@8
rdata$r	SEGMENT
??_R3ArithmeticException@Internal@Core@Math@Palmtree@@8 DD 00H ; Palmtree::Math::Core::Internal::ArithmeticException::`RTTI Class Hierarchy Descriptor'
	DD	00H
	DD	03H
	DD	imagerel ??_R2ArithmeticException@Internal@Core@Math@Palmtree@@8
rdata$r	ENDS
;	COMDAT ??_R4ArithmeticException@Internal@Core@Math@Palmtree@@6B@
rdata$r	SEGMENT
??_R4ArithmeticException@Internal@Core@Math@Palmtree@@6B@ DD 01H ; Palmtree::Math::Core::Internal::ArithmeticException::`RTTI Complete Object Locator'
	DD	00H
	DD	00H
	DD	imagerel ??_R0?AVArithmeticException@Internal@Core@Math@Palmtree@@@8
	DD	imagerel ??_R3ArithmeticException@Internal@Core@Math@Palmtree@@8
	DD	imagerel ??_R4ArithmeticException@Internal@Core@Math@Palmtree@@6B@
rdata$r	ENDS
;	COMDAT ??_R1A@?0A@EA@OverflowException@Internal@Core@Math@Palmtree@@8
rdata$r	SEGMENT
??_R1A@?0A@EA@OverflowException@Internal@Core@Math@Palmtree@@8 DD imagerel ??_R0?AVOverflowException@Internal@Core@Math@Palmtree@@@8 ; Palmtree::Math::Core::Internal::OverflowException::`RTTI Base Class Descriptor at (0,-1,0,64)'
	DD	02H
	DD	00H
	DD	0ffffffffH
	DD	00H
	DD	040H
	DD	imagerel ??_R3OverflowException@Internal@Core@Math@Palmtree@@8
rdata$r	ENDS
;	COMDAT ??_R2OverflowException@Internal@Core@Math@Palmtree@@8
rdata$r	SEGMENT
??_R2OverflowException@Internal@Core@Math@Palmtree@@8 DD imagerel ??_R1A@?0A@EA@OverflowException@Internal@Core@Math@Palmtree@@8 ; Palmtree::Math::Core::Internal::OverflowException::`RTTI Base Class Array'
	DD	imagerel ??_R1A@?0A@EA@Exception@Internal@Core@Math@Palmtree@@8
	DD	imagerel ??_R1A@?0A@EN@exception@std@@8
	ORG $+3
rdata$r	ENDS
;	COMDAT ??_R3OverflowException@Internal@Core@Math@Palmtree@@8
rdata$r	SEGMENT
??_R3OverflowException@Internal@Core@Math@Palmtree@@8 DD 00H ; Palmtree::Math::Core::Internal::OverflowException::`RTTI Class Hierarchy Descriptor'
	DD	00H
	DD	03H
	DD	imagerel ??_R2OverflowException@Internal@Core@Math@Palmtree@@8
rdata$r	ENDS
;	COMDAT ??_R4OverflowException@Internal@Core@Math@Palmtree@@6B@
rdata$r	SEGMENT
??_R4OverflowException@Internal@Core@Math@Palmtree@@6B@ DD 01H ; Palmtree::Math::Core::Internal::OverflowException::`RTTI Complete Object Locator'
	DD	00H
	DD	00H
	DD	imagerel ??_R0?AVOverflowException@Internal@Core@Math@Palmtree@@@8
	DD	imagerel ??_R3OverflowException@Internal@Core@Math@Palmtree@@8
	DD	imagerel ??_R4OverflowException@Internal@Core@Math@Palmtree@@6B@
rdata$r	ENDS
;	COMDAT ??_R1A@?0A@EA@ArgumentNullException@Internal@Core@Math@Palmtree@@8
rdata$r	SEGMENT
??_R1A@?0A@EA@ArgumentNullException@Internal@Core@Math@Palmtree@@8 DD imagerel ??_R0?AVArgumentNullException@Internal@Core@Math@Palmtree@@@8 ; Palmtree::Math::Core::Internal::ArgumentNullException::`RTTI Base Class Descriptor at (0,-1,0,64)'
	DD	02H
	DD	00H
	DD	0ffffffffH
	DD	00H
	DD	040H
	DD	imagerel ??_R3ArgumentNullException@Internal@Core@Math@Palmtree@@8
rdata$r	ENDS
;	COMDAT ??_R2ArgumentNullException@Internal@Core@Math@Palmtree@@8
rdata$r	SEGMENT
??_R2ArgumentNullException@Internal@Core@Math@Palmtree@@8 DD imagerel ??_R1A@?0A@EA@ArgumentNullException@Internal@Core@Math@Palmtree@@8 ; Palmtree::Math::Core::Internal::ArgumentNullException::`RTTI Base Class Array'
	DD	imagerel ??_R1A@?0A@EA@Exception@Internal@Core@Math@Palmtree@@8
	DD	imagerel ??_R1A@?0A@EN@exception@std@@8
	ORG $+3
rdata$r	ENDS
;	COMDAT ??_R3ArgumentNullException@Internal@Core@Math@Palmtree@@8
rdata$r	SEGMENT
??_R3ArgumentNullException@Internal@Core@Math@Palmtree@@8 DD 00H ; Palmtree::Math::Core::Internal::ArgumentNullException::`RTTI Class Hierarchy Descriptor'
	DD	00H
	DD	03H
	DD	imagerel ??_R2ArgumentNullException@Internal@Core@Math@Palmtree@@8
rdata$r	ENDS
;	COMDAT ??_R4ArgumentNullException@Internal@Core@Math@Palmtree@@6B@
rdata$r	SEGMENT
??_R4ArgumentNullException@Internal@Core@Math@Palmtree@@6B@ DD 01H ; Palmtree::Math::Core::Internal::ArgumentNullException::`RTTI Complete Object Locator'
	DD	00H
	DD	00H
	DD	imagerel ??_R0?AVArgumentNullException@Internal@Core@Math@Palmtree@@@8
	DD	imagerel ??_R3ArgumentNullException@Internal@Core@Math@Palmtree@@8
	DD	imagerel ??_R4ArgumentNullException@Internal@Core@Math@Palmtree@@6B@
rdata$r	ENDS
;	COMDAT ??_R1A@?0A@EN@exception@std@@8
rdata$r	SEGMENT
??_R1A@?0A@EN@exception@std@@8 DD imagerel ??_R0?AVexception@std@@@8 ; std::exception::`RTTI Base Class Descriptor at (0,-1,0,77)'
	DD	00H
	DD	00H
	DD	0ffffffffH
	DD	00H
	DD	04dH
	DD	imagerel ??_R3exception@std@@8
rdata$r	ENDS
;	COMDAT ??_R1A@?0A@EA@Exception@Internal@Core@Math@Palmtree@@8
rdata$r	SEGMENT
??_R1A@?0A@EA@Exception@Internal@Core@Math@Palmtree@@8 DD imagerel ??_R0?AVException@Internal@Core@Math@Palmtree@@@8 ; Palmtree::Math::Core::Internal::Exception::`RTTI Base Class Descriptor at (0,-1,0,64)'
	DD	01H
	DD	00H
	DD	0ffffffffH
	DD	00H
	DD	040H
	DD	imagerel ??_R3Exception@Internal@Core@Math@Palmtree@@8
rdata$r	ENDS
;	COMDAT ??_R2Exception@Internal@Core@Math@Palmtree@@8
rdata$r	SEGMENT
??_R2Exception@Internal@Core@Math@Palmtree@@8 DD imagerel ??_R1A@?0A@EA@Exception@Internal@Core@Math@Palmtree@@8 ; Palmtree::Math::Core::Internal::Exception::`RTTI Base Class Array'
	DD	imagerel ??_R1A@?0A@EN@exception@std@@8
	ORG $+3
rdata$r	ENDS
;	COMDAT ??_R3Exception@Internal@Core@Math@Palmtree@@8
rdata$r	SEGMENT
??_R3Exception@Internal@Core@Math@Palmtree@@8 DD 00H	; Palmtree::Math::Core::Internal::Exception::`RTTI Class Hierarchy Descriptor'
	DD	00H
	DD	02H
	DD	imagerel ??_R2Exception@Internal@Core@Math@Palmtree@@8
rdata$r	ENDS
;	COMDAT ??_R4Exception@Internal@Core@Math@Palmtree@@6B@
rdata$r	SEGMENT
??_R4Exception@Internal@Core@Math@Palmtree@@6B@ DD 01H	; Palmtree::Math::Core::Internal::Exception::`RTTI Complete Object Locator'
	DD	00H
	DD	00H
	DD	imagerel ??_R0?AVException@Internal@Core@Math@Palmtree@@@8
	DD	imagerel ??_R3Exception@Internal@Core@Math@Palmtree@@8
	DD	imagerel ??_R4Exception@Internal@Core@Math@Palmtree@@6B@
rdata$r	ENDS
;	COMDAT ??_R1A@?0A@EA@exception@std@@8
rdata$r	SEGMENT
??_R1A@?0A@EA@exception@std@@8 DD imagerel ??_R0?AVexception@std@@@8 ; std::exception::`RTTI Base Class Descriptor at (0,-1,0,64)'
	DD	00H
	DD	00H
	DD	0ffffffffH
	DD	00H
	DD	040H
	DD	imagerel ??_R3exception@std@@8
rdata$r	ENDS
;	COMDAT ??_R2exception@std@@8
rdata$r	SEGMENT
??_R2exception@std@@8 DD imagerel ??_R1A@?0A@EA@exception@std@@8 ; std::exception::`RTTI Base Class Array'
	ORG $+3
rdata$r	ENDS
;	COMDAT ??_R3exception@std@@8
rdata$r	SEGMENT
??_R3exception@std@@8 DD 00H				; std::exception::`RTTI Class Hierarchy Descriptor'
	DD	00H
	DD	01H
	DD	imagerel ??_R2exception@std@@8
rdata$r	ENDS
;	COMDAT ??_R0?AVexception@std@@@8
data$r	SEGMENT
??_R0?AVexception@std@@@8 DQ FLAT:??_7type_info@@6B@	; std::exception `RTTI Type Descriptor'
	DQ	0000000000000000H
	DB	'.?AVexception@std@@', 00H
data$r	ENDS
;	COMDAT ??_R4exception@std@@6B@
rdata$r	SEGMENT
??_R4exception@std@@6B@ DD 01H				; std::exception::`RTTI Complete Object Locator'
	DD	00H
	DD	00H
	DD	imagerel ??_R0?AVexception@std@@@8
	DD	imagerel ??_R3exception@std@@8
	DD	imagerel ??_R4exception@std@@6B@
rdata$r	ENDS
;	COMDAT ??_C@_1CK@ECFIEPAC@?$AA?$BF?$AAp?$AAk?$AAn?$AAu?$AAl?$AAl?$AAp?$AAt?$AAr?$AAL?$AA?$AO?$AAH?$PP?$IJ?$PP?$IM@
CONST	SEGMENT
??_C@_1CK@ECFIEPAC@?$AA?$BF?$AAp?$AAk?$AAn?$AAu?$AAl?$AAl?$AAp?$AAt?$AAr?$AAL?$AA?$AO?$AAH?$PP?$IJ?$PP?$IM@ DB 015H
	DB	'_pek0n', 00H, 'u', 00H, 'l', 00H, 'l', 00H, 'p', 00H, 't', 00H
	DB	'r', 00H, 'L0', 0eH, 'NH0', 089H, '0', 08cH, '0f0D0~0Y0', 02H, '0'
	DB	00H, 00H					; `string'
CONST	ENDS
;	COMDAT ??_C@_13JAOPNPKD@?$AAv@
CONST	SEGMENT
??_C@_13JAOPNPKD@?$AAv@ DB 'v', 00H, 00H, 00H		; `string'
CONST	ENDS
;	COMDAT _CT??_R0?AVArgumentNullException@Internal@Core@Math@Palmtree@@@8??0ArgumentNullException@Internal@Core@Math@Palmtree@@QEAA@AEBV01234@@Z48
xdata$x	SEGMENT
_CT??_R0?AVArgumentNullException@Internal@Core@Math@Palmtree@@@8??0ArgumentNullException@Internal@Core@Math@Palmtree@@QEAA@AEBV01234@@Z48 DD 00H
	DD	imagerel ??_R0?AVArgumentNullException@Internal@Core@Math@Palmtree@@@8
	DD	00H
	DD	0ffffffffH
	ORG $+4
	DD	030H
	DD	imagerel ??0ArgumentNullException@Internal@Core@Math@Palmtree@@QEAA@AEBV01234@@Z
xdata$x	ENDS
;	COMDAT ??_R0?AVArgumentNullException@Internal@Core@Math@Palmtree@@@8
data$r	SEGMENT
??_R0?AVArgumentNullException@Internal@Core@Math@Palmtree@@@8 DQ FLAT:??_7type_info@@6B@ ; Palmtree::Math::Core::Internal::ArgumentNullException `RTTI Type Descriptor'
	DQ	0000000000000000H
	DB	'.?AVArgumentNullException@Internal@Core@Math@Palmtree@@', 00H
data$r	ENDS
;	COMDAT _CTA2?AVArgumentNullException@Internal@Core@Math@Palmtree@@
xdata$x	SEGMENT
_CTA2?AVArgumentNullException@Internal@Core@Math@Palmtree@@ DD 02H
	DD	imagerel _CT??_R0?AVArgumentNullException@Internal@Core@Math@Palmtree@@@8??0ArgumentNullException@Internal@Core@Math@Palmtree@@QEAA@AEBV01234@@Z48
	DD	imagerel _CT??_R0?AVException@Internal@Core@Math@Palmtree@@@8??0Exception@Internal@Core@Math@Palmtree@@QEAA@AEBV01234@@Z48
xdata$x	ENDS
;	COMDAT _TI2?AVArgumentNullException@Internal@Core@Math@Palmtree@@
xdata$x	SEGMENT
_TI2?AVArgumentNullException@Internal@Core@Math@Palmtree@@ DD 00H
	DD	imagerel ??1ArgumentNullException@Internal@Core@Math@Palmtree@@UEAA@XZ
	DD	00H
	DD	imagerel _CTA2?AVArgumentNullException@Internal@Core@Math@Palmtree@@
xdata$x	ENDS
;	COMDAT ??_C@_1CM@JEKMNCAI@?$PP?$KK?$PP?$PM?$PP?P?$PP?$PM?$PP?U?$PP?m?$PP?$PM?$AAk?$PP?$II?$PP?$IK?$AA?$AI?$PP?$JH?$PP?$JC?$PP?$JK?$AAL@
CONST	SEGMENT
??_C@_1CM@JEKMNCAI@?$PP?$KK?$PP?$PM?$PP?P?$PP?$PM?$PP?U?$PP?m?$PP?$PM?$AAk?$PP?$II?$PP?$IK?$AA?$AI?$PP?$JH?$PP?$JC?$PP?$JK?$AAL@ DB 0aaH
	DB	'0', 0fcH, '0', 0d0H, '0', 0fcH, '0', 0d5H, '0', 0edH, '0', 0fcH
	DB	'0k0', 088H, '0', 08aH, '0', 08H, 08aH, 097H, '{', 092H, '0', 09aH
	DB	'}L', 088H, 'g0M0~0[0', 093H, '0', 02H, '0', 00H, 00H ; `string'
CONST	ENDS
;	COMDAT _CT??_R0?AVOverflowException@Internal@Core@Math@Palmtree@@@8??0OverflowException@Internal@Core@Math@Palmtree@@QEAA@AEBV01234@@Z48
xdata$x	SEGMENT
_CT??_R0?AVOverflowException@Internal@Core@Math@Palmtree@@@8??0OverflowException@Internal@Core@Math@Palmtree@@QEAA@AEBV01234@@Z48 DD 00H
	DD	imagerel ??_R0?AVOverflowException@Internal@Core@Math@Palmtree@@@8
	DD	00H
	DD	0ffffffffH
	ORG $+4
	DD	030H
	DD	imagerel ??0OverflowException@Internal@Core@Math@Palmtree@@QEAA@AEBV01234@@Z
xdata$x	ENDS
;	COMDAT ??_R0?AVOverflowException@Internal@Core@Math@Palmtree@@@8
data$r	SEGMENT
??_R0?AVOverflowException@Internal@Core@Math@Palmtree@@@8 DQ FLAT:??_7type_info@@6B@ ; Palmtree::Math::Core::Internal::OverflowException `RTTI Type Descriptor'
	DQ	0000000000000000H
	DB	'.?AVOverflowException@Internal@Core@Math@Palmtree@@', 00H
data$r	ENDS
;	COMDAT _CTA2?AVOverflowException@Internal@Core@Math@Palmtree@@
xdata$x	SEGMENT
_CTA2?AVOverflowException@Internal@Core@Math@Palmtree@@ DD 02H
	DD	imagerel _CT??_R0?AVOverflowException@Internal@Core@Math@Palmtree@@@8??0OverflowException@Internal@Core@Math@Palmtree@@QEAA@AEBV01234@@Z48
	DD	imagerel _CT??_R0?AVException@Internal@Core@Math@Palmtree@@@8??0Exception@Internal@Core@Math@Palmtree@@QEAA@AEBV01234@@Z48
xdata$x	ENDS
;	COMDAT _TI2?AVOverflowException@Internal@Core@Math@Palmtree@@
xdata$x	SEGMENT
_TI2?AVOverflowException@Internal@Core@Math@Palmtree@@ DD 00H
	DD	imagerel ??1OverflowException@Internal@Core@Math@Palmtree@@UEAA@XZ
	DD	00H
	DD	imagerel _CTA2?AVOverflowException@Internal@Core@Math@Palmtree@@
xdata$x	ENDS
;	COMDAT ??_C@_1BM@OCOOKOCJ@?$AA0?$AAn?$AA0?$AAW?$AAn?$AA$?$AAo?$AA?$CK?$PP?$JK?$PP?$KJ?$AAg?$AAY?$AA?$AC@
CONST	SEGMENT
??_C@_1BM@OCOOKOCJ@?$AA0?$AAn?$AA0?$AAW?$AAn?$AA$?$AAo?$AA?$CK?$PP?$JK?$PP?$KJ?$AAg?$AAY?$AA?$AC@ DB '0'
	DB	00H, 'n00', 00H, 'WNn0$Po0*g', 09aH, '[', 0a9H, 07fH, 'g0Y0', 02H
	DB	'0', 00H, 00H				; `string'
CONST	ENDS
;	COMDAT _CT??_R0?AVArithmeticException@Internal@Core@Math@Palmtree@@@8??0ArithmeticException@Internal@Core@Math@Palmtree@@QEAA@AEBV01234@@Z48
xdata$x	SEGMENT
_CT??_R0?AVArithmeticException@Internal@Core@Math@Palmtree@@@8??0ArithmeticException@Internal@Core@Math@Palmtree@@QEAA@AEBV01234@@Z48 DD 00H
	DD	imagerel ??_R0?AVArithmeticException@Internal@Core@Math@Palmtree@@@8
	DD	00H
	DD	0ffffffffH
	ORG $+4
	DD	030H
	DD	imagerel ??0ArithmeticException@Internal@Core@Math@Palmtree@@QEAA@AEBV01234@@Z
xdata$x	ENDS
;	COMDAT ??_R0?AVArithmeticException@Internal@Core@Math@Palmtree@@@8
data$r	SEGMENT
??_R0?AVArithmeticException@Internal@Core@Math@Palmtree@@@8 DQ FLAT:??_7type_info@@6B@ ; Palmtree::Math::Core::Internal::ArithmeticException `RTTI Type Descriptor'
	DQ	0000000000000000H
	DB	'.?AVArithmeticException@Internal@Core@Math@Palmtree@@', 00H
data$r	ENDS
;	COMDAT _CTA2?AVArithmeticException@Internal@Core@Math@Palmtree@@
xdata$x	SEGMENT
_CTA2?AVArithmeticException@Internal@Core@Math@Palmtree@@ DD 02H
	DD	imagerel _CT??_R0?AVArithmeticException@Internal@Core@Math@Palmtree@@@8??0ArithmeticException@Internal@Core@Math@Palmtree@@QEAA@AEBV01234@@Z48
	DD	imagerel _CT??_R0?AVException@Internal@Core@Math@Palmtree@@@8??0Exception@Internal@Core@Math@Palmtree@@QEAA@AEBV01234@@Z48
xdata$x	ENDS
;	COMDAT _TI2?AVArithmeticException@Internal@Core@Math@Palmtree@@
xdata$x	SEGMENT
_TI2?AVArithmeticException@Internal@Core@Math@Palmtree@@ DD 00H
	DD	imagerel ??1ArithmeticException@Internal@Core@Math@Palmtree@@UEAA@XZ
	DD	00H
	DD	imagerel _CTA2?AVArithmeticException@Internal@Core@Math@Palmtree@@
xdata$x	ENDS
;	COMDAT _CT??_R0?AVException@Internal@Core@Math@Palmtree@@@8??0Exception@Internal@Core@Math@Palmtree@@QEAA@AEBV01234@@Z48
xdata$x	SEGMENT
_CT??_R0?AVException@Internal@Core@Math@Palmtree@@@8??0Exception@Internal@Core@Math@Palmtree@@QEAA@AEBV01234@@Z48 DD 00H
	DD	imagerel ??_R0?AVException@Internal@Core@Math@Palmtree@@@8
	DD	00H
	DD	0ffffffffH
	ORG $+4
	DD	030H
	DD	imagerel ??0Exception@Internal@Core@Math@Palmtree@@QEAA@AEBV01234@@Z
xdata$x	ENDS
;	COMDAT ??_R0?AVException@Internal@Core@Math@Palmtree@@@8
data$r	SEGMENT
??_R0?AVException@Internal@Core@Math@Palmtree@@@8 DQ FLAT:??_7type_info@@6B@ ; Palmtree::Math::Core::Internal::Exception `RTTI Type Descriptor'
	DQ	0000000000000000H
	DB	'.?AVException@Internal@Core@Math@Palmtree@@', 00H
data$r	ENDS
;	COMDAT ??_R0?AVInternalErrorException@Internal@Core@Math@Palmtree@@@8
data$r	SEGMENT
??_R0?AVInternalErrorException@Internal@Core@Math@Palmtree@@@8 DQ FLAT:??_7type_info@@6B@ ; Palmtree::Math::Core::Internal::InternalErrorException `RTTI Type Descriptor'
	DQ	0000000000000000H
	DB	'.?AVInternalErrorException@Internal@Core@Math@Palmtree@@'
	DB	00H
data$r	ENDS
;	COMDAT ??_7InternalErrorException@Internal@Core@Math@Palmtree@@6B@
CONST	SEGMENT
??_7InternalErrorException@Internal@Core@Math@Palmtree@@6B@ DQ FLAT:??_R4InternalErrorException@Internal@Core@Math@Palmtree@@6B@ ; Palmtree::Math::Core::Internal::InternalErrorException::`vftable'
	DQ	FLAT:??_EInternalErrorException@Internal@Core@Math@Palmtree@@UEAAPEAXI@Z
	DQ	FLAT:?what@exception@std@@UEBAPEBDXZ
CONST	ENDS
;	COMDAT ??_7ArithmeticException@Internal@Core@Math@Palmtree@@6B@
CONST	SEGMENT
??_7ArithmeticException@Internal@Core@Math@Palmtree@@6B@ DQ FLAT:??_R4ArithmeticException@Internal@Core@Math@Palmtree@@6B@ ; Palmtree::Math::Core::Internal::ArithmeticException::`vftable'
	DQ	FLAT:??_EArithmeticException@Internal@Core@Math@Palmtree@@UEAAPEAXI@Z
	DQ	FLAT:?what@exception@std@@UEBAPEBDXZ
CONST	ENDS
;	COMDAT ??_7OverflowException@Internal@Core@Math@Palmtree@@6B@
CONST	SEGMENT
??_7OverflowException@Internal@Core@Math@Palmtree@@6B@ DQ FLAT:??_R4OverflowException@Internal@Core@Math@Palmtree@@6B@ ; Palmtree::Math::Core::Internal::OverflowException::`vftable'
	DQ	FLAT:??_EOverflowException@Internal@Core@Math@Palmtree@@UEAAPEAXI@Z
	DQ	FLAT:?what@exception@std@@UEBAPEBDXZ
CONST	ENDS
;	COMDAT ??_7ArgumentNullException@Internal@Core@Math@Palmtree@@6B@
CONST	SEGMENT
??_7ArgumentNullException@Internal@Core@Math@Palmtree@@6B@ DQ FLAT:??_R4ArgumentNullException@Internal@Core@Math@Palmtree@@6B@ ; Palmtree::Math::Core::Internal::ArgumentNullException::`vftable'
	DQ	FLAT:??_EArgumentNullException@Internal@Core@Math@Palmtree@@UEAAPEAXI@Z
	DQ	FLAT:?what@exception@std@@UEBAPEBDXZ
CONST	ENDS
;	COMDAT ??_7Exception@Internal@Core@Math@Palmtree@@6B@
CONST	SEGMENT
??_7Exception@Internal@Core@Math@Palmtree@@6B@ DQ FLAT:??_R4Exception@Internal@Core@Math@Palmtree@@6B@ ; Palmtree::Math::Core::Internal::Exception::`vftable'
	DQ	FLAT:??_EException@Internal@Core@Math@Palmtree@@UEAAPEAXI@Z
	DQ	FLAT:?what@exception@std@@UEBAPEBDXZ
CONST	ENDS
;	COMDAT ??_C@_0BC@EOODALEL@Unknown?5exception@
CONST	SEGMENT
??_C@_0BC@EOODALEL@Unknown?5exception@ DB 'Unknown exception', 00H ; `string'
CONST	ENDS
;	COMDAT ??_7exception@std@@6B@
CONST	SEGMENT
??_7exception@std@@6B@ DQ FLAT:??_R4exception@std@@6B@	; std::exception::`vftable'
	DQ	FLAT:??_Eexception@std@@UEAAPEAXI@Z
	DQ	FLAT:?what@exception@std@@UEBAPEBDXZ
CONST	ENDS
;	COMDAT xdata
xdata	SEGMENT
$chain$1$?Pow_X_L_Imp@Internal@Core@Math@Palmtree@@YAXPEA_K_K1000@Z DD 021H
	DD	imagerel ?Pow_X_L_Imp@Internal@Core@Math@Palmtree@@YAXPEA_K_K1000@Z
	DD	imagerel ?Pow_X_L_Imp@Internal@Core@Math@Palmtree@@YAXPEA_K_K1000@Z+98
	DD	imagerel $unwind$?Pow_X_L_Imp@Internal@Core@Math@Palmtree@@YAXPEA_K_K1000@Z
xdata	ENDS
;	COMDAT xdata
xdata	SEGMENT
$chain$0$?Pow_X_L_Imp@Internal@Core@Math@Palmtree@@YAXPEA_K_K1000@Z DD 020521H
	DD	0fc405H
	DD	imagerel ?Pow_X_L_Imp@Internal@Core@Math@Palmtree@@YAXPEA_K_K1000@Z
	DD	imagerel ?Pow_X_L_Imp@Internal@Core@Math@Palmtree@@YAXPEA_K_K1000@Z+98
	DD	imagerel $unwind$?Pow_X_L_Imp@Internal@Core@Math@Palmtree@@YAXPEA_K_K1000@Z
xdata	ENDS
;	COMDAT xdata
xdata	SEGMENT
$unwind$?Pow_X_L_Imp@Internal@Core@Math@Palmtree@@YAXPEA_K_K1000@Z DD 081801H
	DD	0f0145218H
	DD	0d010e012H
	DD	0600d700eH
	DD	0300b500cH
xdata	ENDS
;	COMDAT xdata
xdata	SEGMENT
$chain$1$?Pow_X_I_Imp@Internal@Core@Math@Palmtree@@YAXPEA_K_KI000@Z DD 021H
	DD	imagerel ?Pow_X_I_Imp@Internal@Core@Math@Palmtree@@YAXPEA_K_KI000@Z
	DD	imagerel ?Pow_X_I_Imp@Internal@Core@Math@Palmtree@@YAXPEA_K_KI000@Z+96
	DD	imagerel $unwind$?Pow_X_I_Imp@Internal@Core@Math@Palmtree@@YAXPEA_K_KI000@Z
xdata	ENDS
;	COMDAT xdata
xdata	SEGMENT
$chain$0$?Pow_X_I_Imp@Internal@Core@Math@Palmtree@@YAXPEA_K_KI000@Z DD 020521H
	DD	0fc405H
	DD	imagerel ?Pow_X_I_Imp@Internal@Core@Math@Palmtree@@YAXPEA_K_KI000@Z
	DD	imagerel ?Pow_X_I_Imp@Internal@Core@Math@Palmtree@@YAXPEA_K_KI000@Z+96
	DD	imagerel $unwind$?Pow_X_I_Imp@Internal@Core@Math@Palmtree@@YAXPEA_K_KI000@Z
xdata	ENDS
;	COMDAT xdata
xdata	SEGMENT
$unwind$?Pow_X_I_Imp@Internal@Core@Math@Palmtree@@YAXPEA_K_KI000@Z DD 081801H
	DD	0f0145218H
	DD	0d010e012H
	DD	0600d700eH
	DD	0300b500cH
xdata	ENDS
;	COMDAT xdata
xdata	SEGMENT
$unwind$_ZERO_MEMORY_UNIT DD 020501H
	DD	017405H
xdata	ENDS
;	COMDAT xdata
xdata	SEGMENT
$unwind$_COPY_MEMORY_UNIT DD 040a01H
	DD	02740aH
	DD	016405H
xdata	ENDS
;	COMDAT xdata
xdata	SEGMENT
$ip2state$?PMC_TimesOfExponentOf10@Internal@Core@Math@Palmtree@@YAPEAU__tag_PMC_HANDLE_UINT@1234@II@Z DD imagerel ?PMC_TimesOfExponentOf10@Internal@Core@Math@Palmtree@@YAPEAU__tag_PMC_HANDLE_UINT@1234@II@Z
	DD	0ffffffffH
	DD	imagerel ?PMC_TimesOfExponentOf10@Internal@Core@Math@Palmtree@@YAPEAU__tag_PMC_HANDLE_UINT@1234@II@Z+92
	DD	00H
	DD	imagerel ?PMC_TimesOfExponentOf10@Internal@Core@Math@Palmtree@@YAPEAU__tag_PMC_HANDLE_UINT@1234@II@Z+163
	DD	0ffffffffH
xdata	ENDS
;	COMDAT xdata
xdata	SEGMENT
$stateUnwindMap$?PMC_TimesOfExponentOf10@Internal@Core@Math@Palmtree@@YAPEAU__tag_PMC_HANDLE_UINT@1234@II@Z DD 0ffffffffH
	DD	imagerel ?dtor$0@?0??PMC_TimesOfExponentOf10@Internal@Core@Math@Palmtree@@YAPEAU__tag_PMC_HANDLE_UINT@1234@II@Z@4HA
xdata	ENDS
;	COMDAT CONST
CONST	SEGMENT
$cppxdata$?PMC_TimesOfExponentOf10@Internal@Core@Math@Palmtree@@YAPEAU__tag_PMC_HANDLE_UINT@1234@II@Z DD 019930522H
	DD	01H
	DD	imagerel $stateUnwindMap$?PMC_TimesOfExponentOf10@Internal@Core@Math@Palmtree@@YAPEAU__tag_PMC_HANDLE_UINT@1234@II@Z
	DD	00H
	DD	00H
	DD	03H
	DD	imagerel $ip2state$?PMC_TimesOfExponentOf10@Internal@Core@Math@Palmtree@@YAPEAU__tag_PMC_HANDLE_UINT@1234@II@Z
	DD	020H
	DD	00H
	DD	00H
CONST	ENDS
;	COMDAT xdata
xdata	SEGMENT
$unwind$?PMC_TimesOfExponentOf10@Internal@Core@Math@Palmtree@@YAPEAU__tag_PMC_HANDLE_UINT@1234@II@Z DD 061911H
	DD	0d6419H
	DD	0c3414H
	DD	070029206H
	DD	imagerel __CxxFrameHandler3
	DD	imagerel $cppxdata$?PMC_TimesOfExponentOf10@Internal@Core@Math@Palmtree@@YAPEAU__tag_PMC_HANDLE_UINT@1234@II@Z
xdata	ENDS
;	COMDAT xdata
xdata	SEGMENT
$ip2state$?PMC_Pow_X_L@Internal@Core@Math@Palmtree@@YAPEAU__tag_PMC_HANDLE_UINT@1234@PEAU51234@_K@Z DD imagerel ?PMC_Pow_X_L@Internal@Core@Math@Palmtree@@YAPEAU__tag_PMC_HANDLE_UINT@1234@PEAU51234@_K@Z
	DD	0ffffffffH
	DD	imagerel ?PMC_Pow_X_L@Internal@Core@Math@Palmtree@@YAPEAU__tag_PMC_HANDLE_UINT@1234@PEAU51234@_K@Z+53
	DD	00H
	DD	imagerel ?PMC_Pow_X_L@Internal@Core@Math@Palmtree@@YAPEAU__tag_PMC_HANDLE_UINT@1234@PEAU51234@_K@Z+94
	DD	0ffffffffH
xdata	ENDS
;	COMDAT xdata
xdata	SEGMENT
$stateUnwindMap$?PMC_Pow_X_L@Internal@Core@Math@Palmtree@@YAPEAU__tag_PMC_HANDLE_UINT@1234@PEAU51234@_K@Z DD 0ffffffffH
	DD	imagerel ?dtor$0@?0??PMC_Pow_X_L@Internal@Core@Math@Palmtree@@YAPEAU__tag_PMC_HANDLE_UINT@1234@PEAU51234@_K@Z@4HA
xdata	ENDS
;	COMDAT CONST
CONST	SEGMENT
$cppxdata$?PMC_Pow_X_L@Internal@Core@Math@Palmtree@@YAPEAU__tag_PMC_HANDLE_UINT@1234@PEAU51234@_K@Z DD 019930522H
	DD	01H
	DD	imagerel $stateUnwindMap$?PMC_Pow_X_L@Internal@Core@Math@Palmtree@@YAPEAU__tag_PMC_HANDLE_UINT@1234@PEAU51234@_K@Z
	DD	00H
	DD	00H
	DD	03H
	DD	imagerel $ip2state$?PMC_Pow_X_L@Internal@Core@Math@Palmtree@@YAPEAU__tag_PMC_HANDLE_UINT@1234@PEAU51234@_K@Z
	DD	020H
	DD	00H
	DD	00H
CONST	ENDS
;	COMDAT xdata
xdata	SEGMENT
$unwind$?PMC_Pow_X_L@Internal@Core@Math@Palmtree@@YAPEAU__tag_PMC_HANDLE_UINT@1234@PEAU51234@_K@Z DD 041a11H
	DD	012341aH
	DD	07002f209H
	DD	imagerel __CxxFrameHandler3
	DD	imagerel $cppxdata$?PMC_Pow_X_L@Internal@Core@Math@Palmtree@@YAPEAU__tag_PMC_HANDLE_UINT@1234@PEAU51234@_K@Z
xdata	ENDS
;	COMDAT xdata
xdata	SEGMENT
$ip2state$?PMC_Pow_X_I@Internal@Core@Math@Palmtree@@YAPEAU__tag_PMC_HANDLE_UINT@1234@PEAU51234@I@Z DD imagerel ?PMC_Pow_X_I@Internal@Core@Math@Palmtree@@YAPEAU__tag_PMC_HANDLE_UINT@1234@PEAU51234@I@Z
	DD	0ffffffffH
	DD	imagerel ?PMC_Pow_X_I@Internal@Core@Math@Palmtree@@YAPEAU__tag_PMC_HANDLE_UINT@1234@PEAU51234@I@Z+52
	DD	00H
	DD	imagerel ?PMC_Pow_X_I@Internal@Core@Math@Palmtree@@YAPEAU__tag_PMC_HANDLE_UINT@1234@PEAU51234@I@Z+92
	DD	0ffffffffH
xdata	ENDS
;	COMDAT xdata
xdata	SEGMENT
$stateUnwindMap$?PMC_Pow_X_I@Internal@Core@Math@Palmtree@@YAPEAU__tag_PMC_HANDLE_UINT@1234@PEAU51234@I@Z DD 0ffffffffH
	DD	imagerel ?dtor$0@?0??PMC_Pow_X_I@Internal@Core@Math@Palmtree@@YAPEAU__tag_PMC_HANDLE_UINT@1234@PEAU51234@I@Z@4HA
xdata	ENDS
;	COMDAT CONST
CONST	SEGMENT
$cppxdata$?PMC_Pow_X_I@Internal@Core@Math@Palmtree@@YAPEAU__tag_PMC_HANDLE_UINT@1234@PEAU51234@I@Z DD 019930522H
	DD	01H
	DD	imagerel $stateUnwindMap$?PMC_Pow_X_I@Internal@Core@Math@Palmtree@@YAPEAU__tag_PMC_HANDLE_UINT@1234@PEAU51234@I@Z
	DD	00H
	DD	00H
	DD	03H
	DD	imagerel $ip2state$?PMC_Pow_X_I@Internal@Core@Math@Palmtree@@YAPEAU__tag_PMC_HANDLE_UINT@1234@PEAU51234@I@Z
	DD	020H
	DD	00H
	DD	00H
CONST	ENDS
;	COMDAT xdata
xdata	SEGMENT
$unwind$?PMC_Pow_X_I@Internal@Core@Math@Palmtree@@YAPEAU__tag_PMC_HANDLE_UINT@1234@PEAU51234@I@Z DD 041a11H
	DD	012341aH
	DD	07002f209H
	DD	imagerel __CxxFrameHandler3
	DD	imagerel $cppxdata$?PMC_Pow_X_I@Internal@Core@Math@Palmtree@@YAPEAU__tag_PMC_HANDLE_UINT@1234@PEAU51234@I@Z
xdata	ENDS
;	COMDAT xdata
xdata	SEGMENT
$ip2state$?PMC_TimesOfExponentOf10_Imp@Internal@Core@Math@Palmtree@@YAPEAU__tag_NUMBER_HEADER@1234@I_K@Z DD imagerel ?PMC_TimesOfExponentOf10_Imp@Internal@Core@Math@Palmtree@@YAPEAU__tag_NUMBER_HEADER@1234@I_K@Z
	DD	0ffffffffH
	DD	imagerel ?PMC_TimesOfExponentOf10_Imp@Internal@Core@Math@Palmtree@@YAPEAU__tag_NUMBER_HEADER@1234@I_K@Z+94
	DD	00H
	DD	imagerel ?PMC_TimesOfExponentOf10_Imp@Internal@Core@Math@Palmtree@@YAPEAU__tag_NUMBER_HEADER@1234@I_K@Z+165
	DD	0ffffffffH
xdata	ENDS
;	COMDAT xdata
xdata	SEGMENT
$stateUnwindMap$?PMC_TimesOfExponentOf10_Imp@Internal@Core@Math@Palmtree@@YAPEAU__tag_NUMBER_HEADER@1234@I_K@Z DD 0ffffffffH
	DD	imagerel ?dtor$0@?0??PMC_TimesOfExponentOf10_Imp@Internal@Core@Math@Palmtree@@YAPEAU__tag_NUMBER_HEADER@1234@I_K@Z@4HA
xdata	ENDS
;	COMDAT CONST
CONST	SEGMENT
$cppxdata$?PMC_TimesOfExponentOf10_Imp@Internal@Core@Math@Palmtree@@YAPEAU__tag_NUMBER_HEADER@1234@I_K@Z DD 019930522H
	DD	01H
	DD	imagerel $stateUnwindMap$?PMC_TimesOfExponentOf10_Imp@Internal@Core@Math@Palmtree@@YAPEAU__tag_NUMBER_HEADER@1234@I_K@Z
	DD	00H
	DD	00H
	DD	03H
	DD	imagerel $ip2state$?PMC_TimesOfExponentOf10_Imp@Internal@Core@Math@Palmtree@@YAPEAU__tag_NUMBER_HEADER@1234@I_K@Z
	DD	020H
	DD	00H
	DD	00H
CONST	ENDS
;	COMDAT xdata
xdata	SEGMENT
$unwind$?PMC_TimesOfExponentOf10_Imp@Internal@Core@Math@Palmtree@@YAPEAU__tag_NUMBER_HEADER@1234@I_K@Z DD 061911H
	DD	0d6419H
	DD	0c3414H
	DD	070029206H
	DD	imagerel __CxxFrameHandler3
	DD	imagerel $cppxdata$?PMC_TimesOfExponentOf10_Imp@Internal@Core@Math@Palmtree@@YAPEAU__tag_NUMBER_HEADER@1234@I_K@Z
xdata	ENDS
;	COMDAT xdata
xdata	SEGMENT
$ip2state$?PMC_Pow_X_L_Imp@Internal@Core@Math@Palmtree@@YAPEAU__tag_NUMBER_HEADER@1234@PEAU51234@_K@Z DD imagerel ?PMC_Pow_X_L_Imp@Internal@Core@Math@Palmtree@@YAPEAU__tag_NUMBER_HEADER@1234@PEAU51234@_K@Z
	DD	0ffffffffH
	DD	imagerel ?PMC_Pow_X_L_Imp@Internal@Core@Math@Palmtree@@YAPEAU__tag_NUMBER_HEADER@1234@PEAU51234@_K@Z+118
	DD	00H
	DD	imagerel ?PMC_Pow_X_L_Imp@Internal@Core@Math@Palmtree@@YAPEAU__tag_NUMBER_HEADER@1234@PEAU51234@_K@Z+543
	DD	0ffffffffH
	DD	imagerel ?PMC_Pow_X_L_Imp@Internal@Core@Math@Palmtree@@YAPEAU__tag_NUMBER_HEADER@1234@PEAU51234@_K@Z+583
	DD	00H
	DD	imagerel ?PMC_Pow_X_L_Imp@Internal@Core@Math@Palmtree@@YAPEAU__tag_NUMBER_HEADER@1234@PEAU51234@_K@Z+624
	DD	0ffffffffH
xdata	ENDS
;	COMDAT xdata
xdata	SEGMENT
$stateUnwindMap$?PMC_Pow_X_L_Imp@Internal@Core@Math@Palmtree@@YAPEAU__tag_NUMBER_HEADER@1234@PEAU51234@_K@Z DD 0ffffffffH
	DD	imagerel ?dtor$0@?0??PMC_Pow_X_L_Imp@Internal@Core@Math@Palmtree@@YAPEAU__tag_NUMBER_HEADER@1234@PEAU51234@_K@Z@4HA
xdata	ENDS
;	COMDAT CONST
CONST	SEGMENT
$cppxdata$?PMC_Pow_X_L_Imp@Internal@Core@Math@Palmtree@@YAPEAU__tag_NUMBER_HEADER@1234@PEAU51234@_K@Z DD 019930522H
	DD	01H
	DD	imagerel $stateUnwindMap$?PMC_Pow_X_L_Imp@Internal@Core@Math@Palmtree@@YAPEAU__tag_NUMBER_HEADER@1234@PEAU51234@_K@Z
	DD	00H
	DD	00H
	DD	05H
	DD	imagerel $ip2state$?PMC_Pow_X_L_Imp@Internal@Core@Math@Palmtree@@YAPEAU__tag_NUMBER_HEADER@1234@PEAU51234@_K@Z
	DD	078H
	DD	00H
	DD	00H
CONST	ENDS
;	COMDAT xdata
xdata	SEGMENT
$unwind$?PMC_Pow_X_L_Imp@Internal@Core@Math@Palmtree@@YAPEAU__tag_NUMBER_HEADER@1234@PEAU51234@_K@Z DD 0b2411H
	DD	01f3424H
	DD	0160113H
	DD	0e00af00cH
	DD	0c006d008H
	DD	060037004H
	DD	05002H
	DD	imagerel __CxxFrameHandler3
	DD	imagerel $cppxdata$?PMC_Pow_X_L_Imp@Internal@Core@Math@Palmtree@@YAPEAU__tag_NUMBER_HEADER@1234@PEAU51234@_K@Z
xdata	ENDS
;	COMDAT xdata
xdata	SEGMENT
$ip2state$?PMC_Pow_X_I_Imp@Internal@Core@Math@Palmtree@@YAPEAU__tag_NUMBER_HEADER@1234@PEAU51234@I@Z DD imagerel ?PMC_Pow_X_I_Imp@Internal@Core@Math@Palmtree@@YAPEAU__tag_NUMBER_HEADER@1234@PEAU51234@I@Z
	DD	0ffffffffH
	DD	imagerel ?PMC_Pow_X_I_Imp@Internal@Core@Math@Palmtree@@YAPEAU__tag_NUMBER_HEADER@1234@PEAU51234@I@Z+116
	DD	00H
	DD	imagerel ?PMC_Pow_X_I_Imp@Internal@Core@Math@Palmtree@@YAPEAU__tag_NUMBER_HEADER@1234@PEAU51234@I@Z+543
	DD	0ffffffffH
	DD	imagerel ?PMC_Pow_X_I_Imp@Internal@Core@Math@Palmtree@@YAPEAU__tag_NUMBER_HEADER@1234@PEAU51234@I@Z+583
	DD	00H
	DD	imagerel ?PMC_Pow_X_I_Imp@Internal@Core@Math@Palmtree@@YAPEAU__tag_NUMBER_HEADER@1234@PEAU51234@I@Z+624
	DD	0ffffffffH
xdata	ENDS
;	COMDAT xdata
xdata	SEGMENT
$stateUnwindMap$?PMC_Pow_X_I_Imp@Internal@Core@Math@Palmtree@@YAPEAU__tag_NUMBER_HEADER@1234@PEAU51234@I@Z DD 0ffffffffH
	DD	imagerel ?dtor$0@?0??PMC_Pow_X_I_Imp@Internal@Core@Math@Palmtree@@YAPEAU__tag_NUMBER_HEADER@1234@PEAU51234@I@Z@4HA
xdata	ENDS
;	COMDAT CONST
CONST	SEGMENT
$cppxdata$?PMC_Pow_X_I_Imp@Internal@Core@Math@Palmtree@@YAPEAU__tag_NUMBER_HEADER@1234@PEAU51234@I@Z DD 019930522H
	DD	01H
	DD	imagerel $stateUnwindMap$?PMC_Pow_X_I_Imp@Internal@Core@Math@Palmtree@@YAPEAU__tag_NUMBER_HEADER@1234@PEAU51234@I@Z
	DD	00H
	DD	00H
	DD	05H
	DD	imagerel $ip2state$?PMC_Pow_X_I_Imp@Internal@Core@Math@Palmtree@@YAPEAU__tag_NUMBER_HEADER@1234@PEAU51234@I@Z
	DD	078H
	DD	00H
	DD	00H
CONST	ENDS
;	COMDAT xdata
xdata	SEGMENT
$unwind$?PMC_Pow_X_I_Imp@Internal@Core@Math@Palmtree@@YAPEAU__tag_NUMBER_HEADER@1234@PEAU51234@I@Z DD 0b2411H
	DD	01f3424H
	DD	0160113H
	DD	0e00af00cH
	DD	0c006d008H
	DD	060037004H
	DD	05002H
	DD	imagerel __CxxFrameHandler3
	DD	imagerel $cppxdata$?PMC_Pow_X_I_Imp@Internal@Core@Math@Palmtree@@YAPEAU__tag_NUMBER_HEADER@1234@PEAU51234@I@Z
xdata	ENDS
;	COMDAT xdata
xdata	SEGMENT
$ip2state$??_GInternalErrorException@Internal@Core@Math@Palmtree@@UEAAPEAXI@Z DD imagerel ??_GInternalErrorException@Internal@Core@Math@Palmtree@@UEAAPEAXI@Z
	DD	0ffffffffH
xdata	ENDS
;	COMDAT xdata
xdata	SEGMENT
$stateUnwindMap$??_GInternalErrorException@Internal@Core@Math@Palmtree@@UEAAPEAXI@Z DD 0ffffffffH
	DD	imagerel ?dtor$0@?0???_GInternalErrorException@Internal@Core@Math@Palmtree@@UEAAPEAXI@Z@4HA
	DD	0ffffffffH
	DD	imagerel ?dtor$1@?0???_GInternalErrorException@Internal@Core@Math@Palmtree@@UEAAPEAXI@Z@4HA
xdata	ENDS
;	COMDAT CONST
CONST	SEGMENT
$cppxdata$??_GInternalErrorException@Internal@Core@Math@Palmtree@@UEAAPEAXI@Z DD 019930522H
	DD	02H
	DD	imagerel $stateUnwindMap$??_GInternalErrorException@Internal@Core@Math@Palmtree@@UEAAPEAXI@Z
	DD	00H
	DD	00H
	DD	01H
	DD	imagerel $ip2state$??_GInternalErrorException@Internal@Core@Math@Palmtree@@UEAAPEAXI@Z
	DD	020H
	DD	00H
	DD	04H
CONST	ENDS
;	COMDAT xdata
xdata	SEGMENT
$unwind$??_GInternalErrorException@Internal@Core@Math@Palmtree@@UEAAPEAXI@Z DD 041819H
	DD	093418H
	DD	07006520aH
	DD	imagerel __CxxFrameHandler3
	DD	imagerel $cppxdata$??_GInternalErrorException@Internal@Core@Math@Palmtree@@UEAAPEAXI@Z
xdata	ENDS
;	COMDAT xdata
xdata	SEGMENT
$ip2state$??1InternalErrorException@Internal@Core@Math@Palmtree@@UEAA@XZ DD imagerel ??1InternalErrorException@Internal@Core@Math@Palmtree@@UEAA@XZ
	DD	0ffffffffH
xdata	ENDS
;	COMDAT xdata
xdata	SEGMENT
$stateUnwindMap$??1InternalErrorException@Internal@Core@Math@Palmtree@@UEAA@XZ DD 0ffffffffH
	DD	imagerel ?dtor$0@?0???1InternalErrorException@Internal@Core@Math@Palmtree@@UEAA@XZ@4HA
	DD	0ffffffffH
	DD	imagerel ?dtor$1@?0???1InternalErrorException@Internal@Core@Math@Palmtree@@UEAA@XZ@4HA
xdata	ENDS
;	COMDAT CONST
CONST	SEGMENT
$cppxdata$??1InternalErrorException@Internal@Core@Math@Palmtree@@UEAA@XZ DD 019930522H
	DD	02H
	DD	imagerel $stateUnwindMap$??1InternalErrorException@Internal@Core@Math@Palmtree@@UEAA@XZ
	DD	00H
	DD	00H
	DD	01H
	DD	imagerel $ip2state$??1InternalErrorException@Internal@Core@Math@Palmtree@@UEAA@XZ
	DD	020H
	DD	00H
	DD	04H
CONST	ENDS
;	COMDAT xdata
xdata	SEGMENT
$unwind$??1InternalErrorException@Internal@Core@Math@Palmtree@@UEAA@XZ DD 011219H
	DD	06209H
	DD	imagerel __CxxFrameHandler3
	DD	imagerel $cppxdata$??1InternalErrorException@Internal@Core@Math@Palmtree@@UEAA@XZ
xdata	ENDS
;	COMDAT xdata
xdata	SEGMENT
$ip2state$??0InternalErrorException@Internal@Core@Math@Palmtree@@QEAA@PEB_W0@Z DD imagerel ??0InternalErrorException@Internal@Core@Math@Palmtree@@QEAA@PEB_W0@Z
	DD	0ffffffffH
	DD	imagerel ??0InternalErrorException@Internal@Core@Math@Palmtree@@QEAA@PEB_W0@Z+37
	DD	00H
	DD	imagerel ??0InternalErrorException@Internal@Core@Math@Palmtree@@QEAA@PEB_W0@Z+62
	DD	01H
	DD	imagerel ??0InternalErrorException@Internal@Core@Math@Palmtree@@QEAA@PEB_W0@Z+72
	DD	0ffffffffH
xdata	ENDS
;	COMDAT xdata
xdata	SEGMENT
$stateUnwindMap$??0InternalErrorException@Internal@Core@Math@Palmtree@@QEAA@PEB_W0@Z DD 0ffffffffH
	DD	imagerel ?dtor$1@?0???0InternalErrorException@Internal@Core@Math@Palmtree@@QEAA@PEB_W0@Z@4HA
	DD	0ffffffffH
	DD	imagerel ?dtor$0@?0???0InternalErrorException@Internal@Core@Math@Palmtree@@QEAA@PEB_W0@Z@4HA
xdata	ENDS
;	COMDAT CONST
CONST	SEGMENT
$cppxdata$??0InternalErrorException@Internal@Core@Math@Palmtree@@QEAA@PEB_W0@Z DD 019930522H
	DD	02H
	DD	imagerel $stateUnwindMap$??0InternalErrorException@Internal@Core@Math@Palmtree@@QEAA@PEB_W0@Z
	DD	00H
	DD	00H
	DD	04H
	DD	imagerel $ip2state$??0InternalErrorException@Internal@Core@Math@Palmtree@@QEAA@PEB_W0@Z
	DD	00H
	DD	00H
	DD	04H
CONST	ENDS
;	COMDAT xdata
xdata	SEGMENT
$unwind$??0InternalErrorException@Internal@Core@Math@Palmtree@@QEAA@PEB_W0@Z DD 011111H
	DD	02209H
	DD	imagerel __CxxFrameHandler3
	DD	imagerel $cppxdata$??0InternalErrorException@Internal@Core@Math@Palmtree@@QEAA@PEB_W0@Z
xdata	ENDS
;	COMDAT xdata
xdata	SEGMENT
$ip2state$??_GArithmeticException@Internal@Core@Math@Palmtree@@UEAAPEAXI@Z DD imagerel ??_GArithmeticException@Internal@Core@Math@Palmtree@@UEAAPEAXI@Z
	DD	0ffffffffH
xdata	ENDS
;	COMDAT xdata
xdata	SEGMENT
$stateUnwindMap$??_GArithmeticException@Internal@Core@Math@Palmtree@@UEAAPEAXI@Z DD 0ffffffffH
	DD	imagerel ?dtor$0@?0???_GArithmeticException@Internal@Core@Math@Palmtree@@UEAAPEAXI@Z@4HA
	DD	0ffffffffH
	DD	imagerel ?dtor$1@?0???_GArithmeticException@Internal@Core@Math@Palmtree@@UEAAPEAXI@Z@4HA
xdata	ENDS
;	COMDAT CONST
CONST	SEGMENT
$cppxdata$??_GArithmeticException@Internal@Core@Math@Palmtree@@UEAAPEAXI@Z DD 019930522H
	DD	02H
	DD	imagerel $stateUnwindMap$??_GArithmeticException@Internal@Core@Math@Palmtree@@UEAAPEAXI@Z
	DD	00H
	DD	00H
	DD	01H
	DD	imagerel $ip2state$??_GArithmeticException@Internal@Core@Math@Palmtree@@UEAAPEAXI@Z
	DD	020H
	DD	00H
	DD	04H
CONST	ENDS
;	COMDAT xdata
xdata	SEGMENT
$unwind$??_GArithmeticException@Internal@Core@Math@Palmtree@@UEAAPEAXI@Z DD 041819H
	DD	093418H
	DD	07006520aH
	DD	imagerel __CxxFrameHandler3
	DD	imagerel $cppxdata$??_GArithmeticException@Internal@Core@Math@Palmtree@@UEAAPEAXI@Z
xdata	ENDS
;	COMDAT xdata
xdata	SEGMENT
$ip2state$??0ArithmeticException@Internal@Core@Math@Palmtree@@QEAA@AEBV01234@@Z DD imagerel ??0ArithmeticException@Internal@Core@Math@Palmtree@@QEAA@AEBV01234@@Z
	DD	0ffffffffH
	DD	imagerel ??0ArithmeticException@Internal@Core@Math@Palmtree@@QEAA@AEBV01234@@Z+37
	DD	00H
	DD	imagerel ??0ArithmeticException@Internal@Core@Math@Palmtree@@QEAA@AEBV01234@@Z+69
	DD	01H
	DD	imagerel ??0ArithmeticException@Internal@Core@Math@Palmtree@@QEAA@AEBV01234@@Z+79
	DD	0ffffffffH
xdata	ENDS
;	COMDAT xdata
xdata	SEGMENT
$stateUnwindMap$??0ArithmeticException@Internal@Core@Math@Palmtree@@QEAA@AEBV01234@@Z DD 0ffffffffH
	DD	imagerel ?dtor$1@?0???0ArithmeticException@Internal@Core@Math@Palmtree@@QEAA@AEBV01234@@Z@4HA
	DD	0ffffffffH
	DD	imagerel ?dtor$0@?0???0ArithmeticException@Internal@Core@Math@Palmtree@@QEAA@AEBV01234@@Z@4HA
xdata	ENDS
;	COMDAT CONST
CONST	SEGMENT
$cppxdata$??0ArithmeticException@Internal@Core@Math@Palmtree@@QEAA@AEBV01234@@Z DD 019930522H
	DD	02H
	DD	imagerel $stateUnwindMap$??0ArithmeticException@Internal@Core@Math@Palmtree@@QEAA@AEBV01234@@Z
	DD	00H
	DD	00H
	DD	04H
	DD	imagerel $ip2state$??0ArithmeticException@Internal@Core@Math@Palmtree@@QEAA@AEBV01234@@Z
	DD	00H
	DD	00H
	DD	04H
CONST	ENDS
;	COMDAT xdata
xdata	SEGMENT
$unwind$??0ArithmeticException@Internal@Core@Math@Palmtree@@QEAA@AEBV01234@@Z DD 011111H
	DD	02209H
	DD	imagerel __CxxFrameHandler3
	DD	imagerel $cppxdata$??0ArithmeticException@Internal@Core@Math@Palmtree@@QEAA@AEBV01234@@Z
xdata	ENDS
;	COMDAT xdata
xdata	SEGMENT
$ip2state$??1ArithmeticException@Internal@Core@Math@Palmtree@@UEAA@XZ DD imagerel ??1ArithmeticException@Internal@Core@Math@Palmtree@@UEAA@XZ
	DD	0ffffffffH
xdata	ENDS
;	COMDAT xdata
xdata	SEGMENT
$stateUnwindMap$??1ArithmeticException@Internal@Core@Math@Palmtree@@UEAA@XZ DD 0ffffffffH
	DD	imagerel ?dtor$0@?0???1ArithmeticException@Internal@Core@Math@Palmtree@@UEAA@XZ@4HA
	DD	0ffffffffH
	DD	imagerel ?dtor$1@?0???1ArithmeticException@Internal@Core@Math@Palmtree@@UEAA@XZ@4HA
xdata	ENDS
;	COMDAT CONST
CONST	SEGMENT
$cppxdata$??1ArithmeticException@Internal@Core@Math@Palmtree@@UEAA@XZ DD 019930522H
	DD	02H
	DD	imagerel $stateUnwindMap$??1ArithmeticException@Internal@Core@Math@Palmtree@@UEAA@XZ
	DD	00H
	DD	00H
	DD	01H
	DD	imagerel $ip2state$??1ArithmeticException@Internal@Core@Math@Palmtree@@UEAA@XZ
	DD	020H
	DD	00H
	DD	04H
CONST	ENDS
;	COMDAT xdata
xdata	SEGMENT
$unwind$??1ArithmeticException@Internal@Core@Math@Palmtree@@UEAA@XZ DD 011219H
	DD	06209H
	DD	imagerel __CxxFrameHandler3
	DD	imagerel $cppxdata$??1ArithmeticException@Internal@Core@Math@Palmtree@@UEAA@XZ
xdata	ENDS
;	COMDAT xdata
xdata	SEGMENT
$ip2state$??0ArithmeticException@Internal@Core@Math@Palmtree@@QEAA@PEB_W@Z DD imagerel ??0ArithmeticException@Internal@Core@Math@Palmtree@@QEAA@PEB_W@Z
	DD	0ffffffffH
	DD	imagerel ??0ArithmeticException@Internal@Core@Math@Palmtree@@QEAA@PEB_W@Z+37
	DD	00H
	DD	imagerel ??0ArithmeticException@Internal@Core@Math@Palmtree@@QEAA@PEB_W@Z+66
	DD	01H
	DD	imagerel ??0ArithmeticException@Internal@Core@Math@Palmtree@@QEAA@PEB_W@Z+76
	DD	0ffffffffH
xdata	ENDS
;	COMDAT xdata
xdata	SEGMENT
$stateUnwindMap$??0ArithmeticException@Internal@Core@Math@Palmtree@@QEAA@PEB_W@Z DD 0ffffffffH
	DD	imagerel ?dtor$1@?0???0ArithmeticException@Internal@Core@Math@Palmtree@@QEAA@PEB_W@Z@4HA
	DD	0ffffffffH
	DD	imagerel ?dtor$0@?0???0ArithmeticException@Internal@Core@Math@Palmtree@@QEAA@PEB_W@Z@4HA
xdata	ENDS
;	COMDAT CONST
CONST	SEGMENT
$cppxdata$??0ArithmeticException@Internal@Core@Math@Palmtree@@QEAA@PEB_W@Z DD 019930522H
	DD	02H
	DD	imagerel $stateUnwindMap$??0ArithmeticException@Internal@Core@Math@Palmtree@@QEAA@PEB_W@Z
	DD	00H
	DD	00H
	DD	04H
	DD	imagerel $ip2state$??0ArithmeticException@Internal@Core@Math@Palmtree@@QEAA@PEB_W@Z
	DD	00H
	DD	00H
	DD	04H
CONST	ENDS
;	COMDAT xdata
xdata	SEGMENT
$unwind$??0ArithmeticException@Internal@Core@Math@Palmtree@@QEAA@PEB_W@Z DD 011111H
	DD	02209H
	DD	imagerel __CxxFrameHandler3
	DD	imagerel $cppxdata$??0ArithmeticException@Internal@Core@Math@Palmtree@@QEAA@PEB_W@Z
xdata	ENDS
;	COMDAT xdata
xdata	SEGMENT
$ip2state$??_GOverflowException@Internal@Core@Math@Palmtree@@UEAAPEAXI@Z DD imagerel ??_GOverflowException@Internal@Core@Math@Palmtree@@UEAAPEAXI@Z
	DD	0ffffffffH
xdata	ENDS
;	COMDAT xdata
xdata	SEGMENT
$stateUnwindMap$??_GOverflowException@Internal@Core@Math@Palmtree@@UEAAPEAXI@Z DD 0ffffffffH
	DD	imagerel ?dtor$0@?0???_GOverflowException@Internal@Core@Math@Palmtree@@UEAAPEAXI@Z@4HA
	DD	0ffffffffH
	DD	imagerel ?dtor$1@?0???_GOverflowException@Internal@Core@Math@Palmtree@@UEAAPEAXI@Z@4HA
xdata	ENDS
;	COMDAT CONST
CONST	SEGMENT
$cppxdata$??_GOverflowException@Internal@Core@Math@Palmtree@@UEAAPEAXI@Z DD 019930522H
	DD	02H
	DD	imagerel $stateUnwindMap$??_GOverflowException@Internal@Core@Math@Palmtree@@UEAAPEAXI@Z
	DD	00H
	DD	00H
	DD	01H
	DD	imagerel $ip2state$??_GOverflowException@Internal@Core@Math@Palmtree@@UEAAPEAXI@Z
	DD	020H
	DD	00H
	DD	04H
CONST	ENDS
;	COMDAT xdata
xdata	SEGMENT
$unwind$??_GOverflowException@Internal@Core@Math@Palmtree@@UEAAPEAXI@Z DD 041819H
	DD	093418H
	DD	07006520aH
	DD	imagerel __CxxFrameHandler3
	DD	imagerel $cppxdata$??_GOverflowException@Internal@Core@Math@Palmtree@@UEAAPEAXI@Z
xdata	ENDS
;	COMDAT xdata
xdata	SEGMENT
$ip2state$??1OverflowException@Internal@Core@Math@Palmtree@@UEAA@XZ DD imagerel ??1OverflowException@Internal@Core@Math@Palmtree@@UEAA@XZ
	DD	0ffffffffH
xdata	ENDS
;	COMDAT xdata
xdata	SEGMENT
$stateUnwindMap$??1OverflowException@Internal@Core@Math@Palmtree@@UEAA@XZ DD 0ffffffffH
	DD	imagerel ?dtor$0@?0???1OverflowException@Internal@Core@Math@Palmtree@@UEAA@XZ@4HA
	DD	0ffffffffH
	DD	imagerel ?dtor$1@?0???1OverflowException@Internal@Core@Math@Palmtree@@UEAA@XZ@4HA
xdata	ENDS
;	COMDAT CONST
CONST	SEGMENT
$cppxdata$??1OverflowException@Internal@Core@Math@Palmtree@@UEAA@XZ DD 019930522H
	DD	02H
	DD	imagerel $stateUnwindMap$??1OverflowException@Internal@Core@Math@Palmtree@@UEAA@XZ
	DD	00H
	DD	00H
	DD	01H
	DD	imagerel $ip2state$??1OverflowException@Internal@Core@Math@Palmtree@@UEAA@XZ
	DD	020H
	DD	00H
	DD	04H
CONST	ENDS
;	COMDAT xdata
xdata	SEGMENT
$unwind$??1OverflowException@Internal@Core@Math@Palmtree@@UEAA@XZ DD 011219H
	DD	06209H
	DD	imagerel __CxxFrameHandler3
	DD	imagerel $cppxdata$??1OverflowException@Internal@Core@Math@Palmtree@@UEAA@XZ
xdata	ENDS
;	COMDAT xdata
xdata	SEGMENT
$ip2state$??0OverflowException@Internal@Core@Math@Palmtree@@QEAA@AEBV01234@@Z DD imagerel ??0OverflowException@Internal@Core@Math@Palmtree@@QEAA@AEBV01234@@Z
	DD	0ffffffffH
	DD	imagerel ??0OverflowException@Internal@Core@Math@Palmtree@@QEAA@AEBV01234@@Z+37
	DD	00H
	DD	imagerel ??0OverflowException@Internal@Core@Math@Palmtree@@QEAA@AEBV01234@@Z+69
	DD	01H
	DD	imagerel ??0OverflowException@Internal@Core@Math@Palmtree@@QEAA@AEBV01234@@Z+79
	DD	0ffffffffH
xdata	ENDS
;	COMDAT xdata
xdata	SEGMENT
$stateUnwindMap$??0OverflowException@Internal@Core@Math@Palmtree@@QEAA@AEBV01234@@Z DD 0ffffffffH
	DD	imagerel ?dtor$1@?0???0OverflowException@Internal@Core@Math@Palmtree@@QEAA@AEBV01234@@Z@4HA
	DD	0ffffffffH
	DD	imagerel ?dtor$0@?0???0OverflowException@Internal@Core@Math@Palmtree@@QEAA@AEBV01234@@Z@4HA
xdata	ENDS
;	COMDAT CONST
CONST	SEGMENT
$cppxdata$??0OverflowException@Internal@Core@Math@Palmtree@@QEAA@AEBV01234@@Z DD 019930522H
	DD	02H
	DD	imagerel $stateUnwindMap$??0OverflowException@Internal@Core@Math@Palmtree@@QEAA@AEBV01234@@Z
	DD	00H
	DD	00H
	DD	04H
	DD	imagerel $ip2state$??0OverflowException@Internal@Core@Math@Palmtree@@QEAA@AEBV01234@@Z
	DD	00H
	DD	00H
	DD	04H
CONST	ENDS
;	COMDAT xdata
xdata	SEGMENT
$unwind$??0OverflowException@Internal@Core@Math@Palmtree@@QEAA@AEBV01234@@Z DD 011111H
	DD	02209H
	DD	imagerel __CxxFrameHandler3
	DD	imagerel $cppxdata$??0OverflowException@Internal@Core@Math@Palmtree@@QEAA@AEBV01234@@Z
xdata	ENDS
;	COMDAT xdata
xdata	SEGMENT
$ip2state$??0OverflowException@Internal@Core@Math@Palmtree@@QEAA@PEB_W@Z DD imagerel ??0OverflowException@Internal@Core@Math@Palmtree@@QEAA@PEB_W@Z
	DD	0ffffffffH
	DD	imagerel ??0OverflowException@Internal@Core@Math@Palmtree@@QEAA@PEB_W@Z+37
	DD	00H
	DD	imagerel ??0OverflowException@Internal@Core@Math@Palmtree@@QEAA@PEB_W@Z+66
	DD	01H
	DD	imagerel ??0OverflowException@Internal@Core@Math@Palmtree@@QEAA@PEB_W@Z+76
	DD	0ffffffffH
xdata	ENDS
;	COMDAT xdata
xdata	SEGMENT
$stateUnwindMap$??0OverflowException@Internal@Core@Math@Palmtree@@QEAA@PEB_W@Z DD 0ffffffffH
	DD	imagerel ?dtor$1@?0???0OverflowException@Internal@Core@Math@Palmtree@@QEAA@PEB_W@Z@4HA
	DD	0ffffffffH
	DD	imagerel ?dtor$0@?0???0OverflowException@Internal@Core@Math@Palmtree@@QEAA@PEB_W@Z@4HA
xdata	ENDS
;	COMDAT CONST
CONST	SEGMENT
$cppxdata$??0OverflowException@Internal@Core@Math@Palmtree@@QEAA@PEB_W@Z DD 019930522H
	DD	02H
	DD	imagerel $stateUnwindMap$??0OverflowException@Internal@Core@Math@Palmtree@@QEAA@PEB_W@Z
	DD	00H
	DD	00H
	DD	04H
	DD	imagerel $ip2state$??0OverflowException@Internal@Core@Math@Palmtree@@QEAA@PEB_W@Z
	DD	00H
	DD	00H
	DD	04H
CONST	ENDS
;	COMDAT xdata
xdata	SEGMENT
$unwind$??0OverflowException@Internal@Core@Math@Palmtree@@QEAA@PEB_W@Z DD 011111H
	DD	02209H
	DD	imagerel __CxxFrameHandler3
	DD	imagerel $cppxdata$??0OverflowException@Internal@Core@Math@Palmtree@@QEAA@PEB_W@Z
xdata	ENDS
;	COMDAT xdata
xdata	SEGMENT
$ip2state$??_GArgumentNullException@Internal@Core@Math@Palmtree@@UEAAPEAXI@Z DD imagerel ??_GArgumentNullException@Internal@Core@Math@Palmtree@@UEAAPEAXI@Z
	DD	0ffffffffH
xdata	ENDS
;	COMDAT xdata
xdata	SEGMENT
$stateUnwindMap$??_GArgumentNullException@Internal@Core@Math@Palmtree@@UEAAPEAXI@Z DD 0ffffffffH
	DD	imagerel ?dtor$0@?0???_GArgumentNullException@Internal@Core@Math@Palmtree@@UEAAPEAXI@Z@4HA
	DD	0ffffffffH
	DD	imagerel ?dtor$1@?0???_GArgumentNullException@Internal@Core@Math@Palmtree@@UEAAPEAXI@Z@4HA
xdata	ENDS
;	COMDAT CONST
CONST	SEGMENT
$cppxdata$??_GArgumentNullException@Internal@Core@Math@Palmtree@@UEAAPEAXI@Z DD 019930522H
	DD	02H
	DD	imagerel $stateUnwindMap$??_GArgumentNullException@Internal@Core@Math@Palmtree@@UEAAPEAXI@Z
	DD	00H
	DD	00H
	DD	01H
	DD	imagerel $ip2state$??_GArgumentNullException@Internal@Core@Math@Palmtree@@UEAAPEAXI@Z
	DD	020H
	DD	00H
	DD	04H
CONST	ENDS
;	COMDAT xdata
xdata	SEGMENT
$unwind$??_GArgumentNullException@Internal@Core@Math@Palmtree@@UEAAPEAXI@Z DD 041819H
	DD	093418H
	DD	07006520aH
	DD	imagerel __CxxFrameHandler3
	DD	imagerel $cppxdata$??_GArgumentNullException@Internal@Core@Math@Palmtree@@UEAAPEAXI@Z
xdata	ENDS
;	COMDAT xdata
xdata	SEGMENT
$ip2state$??1ArgumentNullException@Internal@Core@Math@Palmtree@@UEAA@XZ DD imagerel ??1ArgumentNullException@Internal@Core@Math@Palmtree@@UEAA@XZ
	DD	0ffffffffH
xdata	ENDS
;	COMDAT xdata
xdata	SEGMENT
$stateUnwindMap$??1ArgumentNullException@Internal@Core@Math@Palmtree@@UEAA@XZ DD 0ffffffffH
	DD	imagerel ?dtor$0@?0???1ArgumentNullException@Internal@Core@Math@Palmtree@@UEAA@XZ@4HA
	DD	0ffffffffH
	DD	imagerel ?dtor$1@?0???1ArgumentNullException@Internal@Core@Math@Palmtree@@UEAA@XZ@4HA
xdata	ENDS
;	COMDAT CONST
CONST	SEGMENT
$cppxdata$??1ArgumentNullException@Internal@Core@Math@Palmtree@@UEAA@XZ DD 019930522H
	DD	02H
	DD	imagerel $stateUnwindMap$??1ArgumentNullException@Internal@Core@Math@Palmtree@@UEAA@XZ
	DD	00H
	DD	00H
	DD	01H
	DD	imagerel $ip2state$??1ArgumentNullException@Internal@Core@Math@Palmtree@@UEAA@XZ
	DD	020H
	DD	00H
	DD	04H
CONST	ENDS
;	COMDAT xdata
xdata	SEGMENT
$unwind$??1ArgumentNullException@Internal@Core@Math@Palmtree@@UEAA@XZ DD 011219H
	DD	06209H
	DD	imagerel __CxxFrameHandler3
	DD	imagerel $cppxdata$??1ArgumentNullException@Internal@Core@Math@Palmtree@@UEAA@XZ
xdata	ENDS
;	COMDAT xdata
xdata	SEGMENT
$ip2state$??0ArgumentNullException@Internal@Core@Math@Palmtree@@QEAA@AEBV01234@@Z DD imagerel ??0ArgumentNullException@Internal@Core@Math@Palmtree@@QEAA@AEBV01234@@Z
	DD	0ffffffffH
	DD	imagerel ??0ArgumentNullException@Internal@Core@Math@Palmtree@@QEAA@AEBV01234@@Z+37
	DD	00H
	DD	imagerel ??0ArgumentNullException@Internal@Core@Math@Palmtree@@QEAA@AEBV01234@@Z+69
	DD	01H
	DD	imagerel ??0ArgumentNullException@Internal@Core@Math@Palmtree@@QEAA@AEBV01234@@Z+79
	DD	0ffffffffH
xdata	ENDS
;	COMDAT xdata
xdata	SEGMENT
$stateUnwindMap$??0ArgumentNullException@Internal@Core@Math@Palmtree@@QEAA@AEBV01234@@Z DD 0ffffffffH
	DD	imagerel ?dtor$1@?0???0ArgumentNullException@Internal@Core@Math@Palmtree@@QEAA@AEBV01234@@Z@4HA
	DD	0ffffffffH
	DD	imagerel ?dtor$0@?0???0ArgumentNullException@Internal@Core@Math@Palmtree@@QEAA@AEBV01234@@Z@4HA
xdata	ENDS
;	COMDAT CONST
CONST	SEGMENT
$cppxdata$??0ArgumentNullException@Internal@Core@Math@Palmtree@@QEAA@AEBV01234@@Z DD 019930522H
	DD	02H
	DD	imagerel $stateUnwindMap$??0ArgumentNullException@Internal@Core@Math@Palmtree@@QEAA@AEBV01234@@Z
	DD	00H
	DD	00H
	DD	04H
	DD	imagerel $ip2state$??0ArgumentNullException@Internal@Core@Math@Palmtree@@QEAA@AEBV01234@@Z
	DD	00H
	DD	00H
	DD	04H
CONST	ENDS
;	COMDAT xdata
xdata	SEGMENT
$unwind$??0ArgumentNullException@Internal@Core@Math@Palmtree@@QEAA@AEBV01234@@Z DD 011111H
	DD	02209H
	DD	imagerel __CxxFrameHandler3
	DD	imagerel $cppxdata$??0ArgumentNullException@Internal@Core@Math@Palmtree@@QEAA@AEBV01234@@Z
xdata	ENDS
;	COMDAT xdata
xdata	SEGMENT
$ip2state$??0ArgumentNullException@Internal@Core@Math@Palmtree@@QEAA@PEB_W0@Z DD imagerel ??0ArgumentNullException@Internal@Core@Math@Palmtree@@QEAA@PEB_W0@Z
	DD	0ffffffffH
	DD	imagerel ??0ArgumentNullException@Internal@Core@Math@Palmtree@@QEAA@PEB_W0@Z+37
	DD	00H
	DD	imagerel ??0ArgumentNullException@Internal@Core@Math@Palmtree@@QEAA@PEB_W0@Z+62
	DD	01H
	DD	imagerel ??0ArgumentNullException@Internal@Core@Math@Palmtree@@QEAA@PEB_W0@Z+72
	DD	0ffffffffH
xdata	ENDS
;	COMDAT xdata
xdata	SEGMENT
$stateUnwindMap$??0ArgumentNullException@Internal@Core@Math@Palmtree@@QEAA@PEB_W0@Z DD 0ffffffffH
	DD	imagerel ?dtor$1@?0???0ArgumentNullException@Internal@Core@Math@Palmtree@@QEAA@PEB_W0@Z@4HA
	DD	0ffffffffH
	DD	imagerel ?dtor$0@?0???0ArgumentNullException@Internal@Core@Math@Palmtree@@QEAA@PEB_W0@Z@4HA
xdata	ENDS
;	COMDAT CONST
CONST	SEGMENT
$cppxdata$??0ArgumentNullException@Internal@Core@Math@Palmtree@@QEAA@PEB_W0@Z DD 019930522H
	DD	02H
	DD	imagerel $stateUnwindMap$??0ArgumentNullException@Internal@Core@Math@Palmtree@@QEAA@PEB_W0@Z
	DD	00H
	DD	00H
	DD	04H
	DD	imagerel $ip2state$??0ArgumentNullException@Internal@Core@Math@Palmtree@@QEAA@PEB_W0@Z
	DD	00H
	DD	00H
	DD	04H
CONST	ENDS
;	COMDAT xdata
xdata	SEGMENT
$unwind$??0ArgumentNullException@Internal@Core@Math@Palmtree@@QEAA@PEB_W0@Z DD 011111H
	DD	02209H
	DD	imagerel __CxxFrameHandler3
	DD	imagerel $cppxdata$??0ArgumentNullException@Internal@Core@Math@Palmtree@@QEAA@PEB_W0@Z
xdata	ENDS
;	COMDAT xdata
xdata	SEGMENT
$ip2state$??_GException@Internal@Core@Math@Palmtree@@UEAAPEAXI@Z DD imagerel ??_GException@Internal@Core@Math@Palmtree@@UEAAPEAXI@Z
	DD	0ffffffffH
xdata	ENDS
;	COMDAT xdata
xdata	SEGMENT
$stateUnwindMap$??_GException@Internal@Core@Math@Palmtree@@UEAAPEAXI@Z DD 0ffffffffH
	DD	imagerel ?dtor$0@?0???_GException@Internal@Core@Math@Palmtree@@UEAAPEAXI@Z@4HA
xdata	ENDS
;	COMDAT CONST
CONST	SEGMENT
$cppxdata$??_GException@Internal@Core@Math@Palmtree@@UEAAPEAXI@Z DD 019930522H
	DD	01H
	DD	imagerel $stateUnwindMap$??_GException@Internal@Core@Math@Palmtree@@UEAAPEAXI@Z
	DD	00H
	DD	00H
	DD	01H
	DD	imagerel $ip2state$??_GException@Internal@Core@Math@Palmtree@@UEAAPEAXI@Z
	DD	020H
	DD	00H
	DD	04H
CONST	ENDS
;	COMDAT xdata
xdata	SEGMENT
$unwind$??_GException@Internal@Core@Math@Palmtree@@UEAAPEAXI@Z DD 041819H
	DD	093418H
	DD	07006520aH
	DD	imagerel __CxxFrameHandler3
	DD	imagerel $cppxdata$??_GException@Internal@Core@Math@Palmtree@@UEAAPEAXI@Z
xdata	ENDS
;	COMDAT xdata
xdata	SEGMENT
$ip2state$??1Exception@Internal@Core@Math@Palmtree@@UEAA@XZ DD imagerel ??1Exception@Internal@Core@Math@Palmtree@@UEAA@XZ
	DD	0ffffffffH
xdata	ENDS
;	COMDAT xdata
xdata	SEGMENT
$stateUnwindMap$??1Exception@Internal@Core@Math@Palmtree@@UEAA@XZ DD 0ffffffffH
	DD	imagerel ?dtor$0@?0???1Exception@Internal@Core@Math@Palmtree@@UEAA@XZ@4HA
xdata	ENDS
;	COMDAT CONST
CONST	SEGMENT
$cppxdata$??1Exception@Internal@Core@Math@Palmtree@@UEAA@XZ DD 019930522H
	DD	01H
	DD	imagerel $stateUnwindMap$??1Exception@Internal@Core@Math@Palmtree@@UEAA@XZ
	DD	00H
	DD	00H
	DD	01H
	DD	imagerel $ip2state$??1Exception@Internal@Core@Math@Palmtree@@UEAA@XZ
	DD	020H
	DD	00H
	DD	04H
CONST	ENDS
;	COMDAT xdata
xdata	SEGMENT
$unwind$??1Exception@Internal@Core@Math@Palmtree@@UEAA@XZ DD 011219H
	DD	06209H
	DD	imagerel __CxxFrameHandler3
	DD	imagerel $cppxdata$??1Exception@Internal@Core@Math@Palmtree@@UEAA@XZ
xdata	ENDS
;	COMDAT xdata
xdata	SEGMENT
$ip2state$??0Exception@Internal@Core@Math@Palmtree@@QEAA@AEBV01234@@Z DD imagerel ??0Exception@Internal@Core@Math@Palmtree@@QEAA@AEBV01234@@Z
	DD	0ffffffffH
	DD	imagerel ??0Exception@Internal@Core@Math@Palmtree@@QEAA@AEBV01234@@Z+37
	DD	00H
	DD	imagerel ??0Exception@Internal@Core@Math@Palmtree@@QEAA@AEBV01234@@Z+69
	DD	0ffffffffH
xdata	ENDS
;	COMDAT xdata
xdata	SEGMENT
$stateUnwindMap$??0Exception@Internal@Core@Math@Palmtree@@QEAA@AEBV01234@@Z DD 0ffffffffH
	DD	imagerel ?dtor$0@?0???0Exception@Internal@Core@Math@Palmtree@@QEAA@AEBV01234@@Z@4HA
xdata	ENDS
;	COMDAT CONST
CONST	SEGMENT
$cppxdata$??0Exception@Internal@Core@Math@Palmtree@@QEAA@AEBV01234@@Z DD 019930522H
	DD	01H
	DD	imagerel $stateUnwindMap$??0Exception@Internal@Core@Math@Palmtree@@QEAA@AEBV01234@@Z
	DD	00H
	DD	00H
	DD	03H
	DD	imagerel $ip2state$??0Exception@Internal@Core@Math@Palmtree@@QEAA@AEBV01234@@Z
	DD	00H
	DD	00H
	DD	04H
CONST	ENDS
;	COMDAT xdata
xdata	SEGMENT
$unwind$??0Exception@Internal@Core@Math@Palmtree@@QEAA@AEBV01234@@Z DD 011111H
	DD	02209H
	DD	imagerel __CxxFrameHandler3
	DD	imagerel $cppxdata$??0Exception@Internal@Core@Math@Palmtree@@QEAA@AEBV01234@@Z
xdata	ENDS
;	COMDAT xdata
xdata	SEGMENT
$ip2state$??0Exception@Internal@Core@Math@Palmtree@@IEAA@HPEB_W0@Z DD imagerel ??0Exception@Internal@Core@Math@Palmtree@@IEAA@HPEB_W0@Z
	DD	0ffffffffH
	DD	imagerel ??0Exception@Internal@Core@Math@Palmtree@@IEAA@HPEB_W0@Z+37
	DD	00H
	DD	imagerel ??0Exception@Internal@Core@Math@Palmtree@@IEAA@HPEB_W0@Z+58
	DD	0ffffffffH
xdata	ENDS
;	COMDAT xdata
xdata	SEGMENT
$stateUnwindMap$??0Exception@Internal@Core@Math@Palmtree@@IEAA@HPEB_W0@Z DD 0ffffffffH
	DD	imagerel ?dtor$0@?0???0Exception@Internal@Core@Math@Palmtree@@IEAA@HPEB_W0@Z@4HA
xdata	ENDS
;	COMDAT CONST
CONST	SEGMENT
$cppxdata$??0Exception@Internal@Core@Math@Palmtree@@IEAA@HPEB_W0@Z DD 019930522H
	DD	01H
	DD	imagerel $stateUnwindMap$??0Exception@Internal@Core@Math@Palmtree@@IEAA@HPEB_W0@Z
	DD	00H
	DD	00H
	DD	03H
	DD	imagerel $ip2state$??0Exception@Internal@Core@Math@Palmtree@@IEAA@HPEB_W0@Z
	DD	00H
	DD	00H
	DD	04H
CONST	ENDS
;	COMDAT xdata
xdata	SEGMENT
$unwind$??0Exception@Internal@Core@Math@Palmtree@@IEAA@HPEB_W0@Z DD 011111H
	DD	02209H
	DD	imagerel __CxxFrameHandler3
	DD	imagerel $cppxdata$??0Exception@Internal@Core@Math@Palmtree@@IEAA@HPEB_W0@Z
xdata	ENDS
;	COMDAT xdata
xdata	SEGMENT
$ip2state$??0Exception@Internal@Core@Math@Palmtree@@IEAA@HPEB_W@Z DD imagerel ??0Exception@Internal@Core@Math@Palmtree@@IEAA@HPEB_W@Z
	DD	0ffffffffH
	DD	imagerel ??0Exception@Internal@Core@Math@Palmtree@@IEAA@HPEB_W@Z+37
	DD	00H
	DD	imagerel ??0Exception@Internal@Core@Math@Palmtree@@IEAA@HPEB_W@Z+62
	DD	0ffffffffH
xdata	ENDS
;	COMDAT xdata
xdata	SEGMENT
$stateUnwindMap$??0Exception@Internal@Core@Math@Palmtree@@IEAA@HPEB_W@Z DD 0ffffffffH
	DD	imagerel ?dtor$0@?0???0Exception@Internal@Core@Math@Palmtree@@IEAA@HPEB_W@Z@4HA
xdata	ENDS
;	COMDAT CONST
CONST	SEGMENT
$cppxdata$??0Exception@Internal@Core@Math@Palmtree@@IEAA@HPEB_W@Z DD 019930522H
	DD	01H
	DD	imagerel $stateUnwindMap$??0Exception@Internal@Core@Math@Palmtree@@IEAA@HPEB_W@Z
	DD	00H
	DD	00H
	DD	03H
	DD	imagerel $ip2state$??0Exception@Internal@Core@Math@Palmtree@@IEAA@HPEB_W@Z
	DD	00H
	DD	00H
	DD	04H
CONST	ENDS
;	COMDAT xdata
xdata	SEGMENT
$unwind$??0Exception@Internal@Core@Math@Palmtree@@IEAA@HPEB_W@Z DD 011111H
	DD	02209H
	DD	imagerel __CxxFrameHandler3
	DD	imagerel $cppxdata$??0Exception@Internal@Core@Math@Palmtree@@IEAA@HPEB_W@Z
xdata	ENDS
;	COMDAT xdata
xdata	SEGMENT
$ip2state$??_Gexception@std@@UEAAPEAXI@Z DD imagerel ??_Gexception@std@@UEAAPEAXI@Z
	DD	0ffffffffH
xdata	ENDS
;	COMDAT CONST
CONST	SEGMENT
$cppxdata$??_Gexception@std@@UEAAPEAXI@Z DD 019930522H
	DD	00H
	DD	00H
	DD	00H
	DD	00H
	DD	01H
	DD	imagerel $ip2state$??_Gexception@std@@UEAAPEAXI@Z
	DD	020H
	DD	00H
	DD	04H
CONST	ENDS
;	COMDAT xdata
xdata	SEGMENT
$unwind$??_Gexception@std@@UEAAPEAXI@Z DD 041419H
	DD	083414H
	DD	070025206H
	DD	imagerel __CxxFrameHandler3
	DD	imagerel $cppxdata$??_Gexception@std@@UEAAPEAXI@Z
xdata	ENDS
;	COMDAT xdata
xdata	SEGMENT
$ip2state$??1exception@std@@UEAA@XZ DD imagerel ??1exception@std@@UEAA@XZ
	DD	0ffffffffH
xdata	ENDS
;	COMDAT CONST
CONST	SEGMENT
$cppxdata$??1exception@std@@UEAA@XZ DD 019930522H
	DD	00H
	DD	00H
	DD	00H
	DD	00H
	DD	01H
	DD	imagerel $ip2state$??1exception@std@@UEAA@XZ
	DD	020H
	DD	00H
	DD	04H
CONST	ENDS
;	COMDAT xdata
xdata	SEGMENT
$unwind$??1exception@std@@UEAA@XZ DD 010d19H
	DD	06204H
	DD	imagerel __CxxFrameHandler3
	DD	imagerel $cppxdata$??1exception@std@@UEAA@XZ
xdata	ENDS
; Function compile flags: /Ogtpy
; File z:\sources\lunor\repos\rougemeilland\palmtree.math.core.uint\palmtree.math.core.uint\pmc_pow.cpp
; File z:\sources\lunor\repos\rougemeilland\palmtree.math.core.uint\palmtree.math.core.uint\pmc_inline_func.h
; File z:\sources\lunor\repos\rougemeilland\palmtree.math.core.uint\palmtree.math.core.uint\pmc_pow.cpp
; File z:\sources\lunor\repos\rougemeilland\palmtree.math.core.uint\palmtree.math.core.uint\pmc_inline_func.h
; File z:\sources\lunor\repos\rougemeilland\palmtree.math.core.uint\palmtree.math.core.uint\pmc_pow.cpp
; File z:\sources\lunor\repos\rougemeilland\palmtree.math.core.uint\palmtree.math.core.uint\pmc_inline_func.h
; File z:\sources\lunor\repos\rougemeilland\palmtree.math.core.uint\palmtree.math.core.uint\pmc_pow.cpp
; File z:\sources\lunor\repos\rougemeilland\palmtree.math.core.uint\palmtree.math.core.uint\pmc_inline_func.h
; File z:\sources\lunor\repos\rougemeilland\palmtree.math.core.uint\palmtree.math.core.uint\pmc_pow.cpp
; File z:\sources\lunor\repos\rougemeilland\palmtree.math.core.uint\palmtree.math.core.uint\pmc_inline_func.h
; File z:\sources\lunor\repos\rougemeilland\palmtree.math.core.uint\palmtree.math.core.uint\pmc_pow.cpp
; File z:\sources\lunor\repos\rougemeilland\palmtree.math.core.uint\palmtree.math.core.uint\pmc_inline_func.h
; File z:\sources\lunor\repos\rougemeilland\palmtree.math.core.uint\palmtree.math.core.uint\pmc_pow.cpp
; File z:\sources\lunor\repos\rougemeilland\palmtree.math.core.uint\palmtree.math.core.uint\pmc_inline_func.h
; File z:\sources\lunor\repos\rougemeilland\palmtree.math.core.uint\palmtree.math.core.uint\pmc_pow.cpp
; File z:\sources\lunor\repos\rougemeilland\palmtree.math.core.uint\palmtree.math.core.uint\pmc_inline_func.h
; File z:\sources\lunor\repos\rougemeilland\palmtree.math.core.uint\palmtree.math.core.uint\pmc_pow.cpp
;	COMDAT ?Pow_X_L_Imp@Internal@Core@Math@Palmtree@@YAXPEA_K_K1000@Z
_TEXT	SEGMENT
v_buf$ = 112
v_buf_count$ = 120
e$ = 128
work1_buf$ = 136
work2_buf$ = 144
r_buf$ = 152
?Pow_X_L_Imp@Internal@Core@Math@Palmtree@@YAXPEA_K_K1000@Z PROC ; Palmtree::Math::Core::Internal::Pow_X_L_Imp, COMDAT

; 156  :     {

  00000	4c 89 44 24 18	 mov	 QWORD PTR [rsp+24], r8
  00005	48 89 4c 24 08	 mov	 QWORD PTR [rsp+8], rcx
  0000a	53		 push	 rbx
  0000b	55		 push	 rbp
  0000c	56		 push	 rsi
  0000d	57		 push	 rdi
  0000e	41 55		 push	 r13
  00010	41 56		 push	 r14
  00012	41 57		 push	 r15
  00014	48 83 ec 30	 sub	 rsp, 48			; 00000030H
  00018	49 8b d9	 mov	 rbx, r9
  0001b	4c 8b ea	 mov	 r13, rdx
; File z:\sources\lunor\repos\rougemeilland\palmtree.math.core.uint\palmtree.math.core.uint\pmc_inline_func.h

; 438  :             if (x == 0)

  0001e	4d 85 c0	 test	 r8, r8
  00021	75 06		 jne	 SHORT $LN10@Pow_X_L_Im

; 439  :                 return (sizeof(x) * 8);

  00023	45 8d 48 40	 lea	 r9d, QWORD PTR [r8+64]
  00027	eb 0d		 jmp	 SHORT $LN9@Pow_X_L_Im
$LN10@Pow_X_L_Im:

; 440  : #ifdef _MSC_VER
; 441  :             DWORD pos;
; 442  :             _BitScanReverse64(&pos, x);

  00029	49 0f bd c0	 bsr	 rax, r8

; 443  : #elif defined(__GNUC__)
; 444  :             _UINT64_T pos;
; 445  :             __asm__("bsrq %1, %0" : "=r"(pos) : "rm"(x));
; 446  : #else
; 447  : #error unknown compiler
; 448  : #endif
; 449  :             return (sizeof(x) * 8 - 1 - pos);

  0002d	41 b9 3f 00 00
	00		 mov	 r9d, 63			; 0000003fH
  00033	44 2b c8	 sub	 r9d, eax
$LN9@Pow_X_L_Im:
; File z:\sources\lunor\repos\rougemeilland\palmtree.math.core.uint\palmtree.math.core.uint\pmc_pow.cpp

; 163  :         __UNIT_TYPE* w_ptr = work2_buf;

  00036	4c 8b bc 24 90
	00 00 00	 mov	 r15, QWORD PTR work2_buf$[rsp]
; File z:\sources\lunor\repos\rougemeilland\palmtree.math.core.uint\palmtree.math.core.uint\pmc_inline_func.h

; 67   :             __movsq(d, s, count);

  0003e	48 8b f1	 mov	 rsi, rcx
  00041	49 8b cd	 mov	 rcx, r13
  00044	48 8b fb	 mov	 rdi, rbx
  00047	f3 48 a5	 rep movsq
; File z:\sources\lunor\repos\rougemeilland\palmtree.math.core.uint\palmtree.math.core.uint\pmc_pow.cpp

; 157  :         _UINT64_T e_mask = _rotr64(1, _LZCNT_ALT_64(e) + 1);

  0004a	41 8d 49 01	 lea	 ecx, DWORD PTR [r9+1]
  0004e	bd 01 00 00 00	 mov	 ebp, 1
  00053	48 d3 cd	 ror	 rbp, cl

; 164  :         __UNIT_TYPE u_count = v_buf_count;

  00056	4d 8b f5	 mov	 r14, r13

; 165  :         __UNIT_TYPE v_count = v_buf_count;
; 166  :         _COPY_MEMORY_UNIT(work1_buf, v_buf, v_buf_count);
; 167  :         e_mask >>= 1;

  00059	48 d1 ed	 shr	 rbp, 1

; 168  :         while (e_mask != 0)

  0005c	0f 84 a5 00 00
	00		 je	 $LN3@Pow_X_L_Im
  00062	4c 89 64 24 78	 mov	 QWORD PTR [rsp+120], r12
  00067	66 0f 1f 84 00
	00 00 00 00	 npad	 9
$LL2@Pow_X_L_Im:
; File z:\sources\lunor\repos\rougemeilland\palmtree.math.core.uint\palmtree.math.core.uint\pmc_inline_func.h

; 100  :             __stosq(d, 0, count);

  00070	33 c0		 xor	 eax, eax
; File z:\sources\lunor\repos\rougemeilland\palmtree.math.core.uint\palmtree.math.core.uint\pmc_pow.cpp

; 172  :             Multiply_X_X_Imp(u_ptr, u_count, u_ptr, u_count, w_ptr);

  00072	4c 89 7c 24 20	 mov	 QWORD PTR [rsp+32], r15
  00077	4b 8d 34 36	 lea	 rsi, QWORD PTR [r14+r14]
; File z:\sources\lunor\repos\rougemeilland\palmtree.math.core.uint\palmtree.math.core.uint\pmc_inline_func.h

; 100  :             __stosq(d, 0, count);

  0007b	49 8b ff	 mov	 rdi, r15
  0007e	48 8b ce	 mov	 rcx, rsi
; File z:\sources\lunor\repos\rougemeilland\palmtree.math.core.uint\palmtree.math.core.uint\pmc_pow.cpp

; 172  :             Multiply_X_X_Imp(u_ptr, u_count, u_ptr, u_count, w_ptr);

  00081	4d 8b ce	 mov	 r9, r14
; File z:\sources\lunor\repos\rougemeilland\palmtree.math.core.uint\palmtree.math.core.uint\pmc_inline_func.h

; 100  :             __stosq(d, 0, count);

  00084	f3 48 ab	 rep stosq
; File z:\sources\lunor\repos\rougemeilland\palmtree.math.core.uint\palmtree.math.core.uint\pmc_pow.cpp

; 172  :             Multiply_X_X_Imp(u_ptr, u_count, u_ptr, u_count, w_ptr);

  00087	48 8b cb	 mov	 rcx, rbx
  0008a	4c 8b c3	 mov	 r8, rbx
  0008d	49 8b d6	 mov	 rdx, r14
  00090	4c 8b e5	 mov	 r12, rbp
  00093	e8 00 00 00 00	 call	 ?Multiply_X_X_Imp@Internal@Core@Math@Palmtree@@YAXPEA_K_K010@Z ; Palmtree::Math::Core::Internal::Multiply_X_X_Imp

; 173  :             u_count *= 2;
; 174  :             if (w_ptr[u_count - 1] == 0)

  00098	4d 03 f6	 add	 r14, r14

; 175  :                 --u_count;
; 176  : 
; 177  :             // e  bit 
; 178  :             if (e & e_mask)

  0009b	4b 8b 44 f7 f8	 mov	 rax, QWORD PTR [r15+r14*8-8]
  000a0	4c 8d 76 ff	 lea	 r14, QWORD PTR [rsi-1]
  000a4	48 85 c0	 test	 rax, rax
  000a7	4c 0f 45 f6	 cmovne	 r14, rsi
  000ab	48 85 ac 24 80
	00 00 00	 test	 rbp, QWORD PTR e$[rsp]
  000b3	74 37		 je	 SHORT $LN5@Pow_X_L_Im

; 182  :                 Multiply_X_X_Imp(w_ptr, u_count, v_ptr, v_count, u_ptr);

  000b5	4c 8b 44 24 70	 mov	 r8, QWORD PTR v_buf$[rsp]
  000ba	4b 8d 34 2e	 lea	 rsi, QWORD PTR [r14+r13]
; File z:\sources\lunor\repos\rougemeilland\palmtree.math.core.uint\palmtree.math.core.uint\pmc_inline_func.h

; 100  :             __stosq(d, 0, count);

  000be	33 c0		 xor	 eax, eax
; File z:\sources\lunor\repos\rougemeilland\palmtree.math.core.uint\palmtree.math.core.uint\pmc_pow.cpp

; 182  :                 Multiply_X_X_Imp(w_ptr, u_count, v_ptr, v_count, u_ptr);

  000c0	48 89 5c 24 20	 mov	 QWORD PTR [rsp+32], rbx
; File z:\sources\lunor\repos\rougemeilland\palmtree.math.core.uint\palmtree.math.core.uint\pmc_inline_func.h

; 100  :             __stosq(d, 0, count);

  000c5	48 8b ce	 mov	 rcx, rsi
  000c8	48 8b fb	 mov	 rdi, rbx
  000cb	f3 48 ab	 rep stosq
; File z:\sources\lunor\repos\rougemeilland\palmtree.math.core.uint\palmtree.math.core.uint\pmc_pow.cpp

; 182  :                 Multiply_X_X_Imp(w_ptr, u_count, v_ptr, v_count, u_ptr);

  000ce	49 8b cf	 mov	 rcx, r15
  000d1	4d 8b cd	 mov	 r9, r13
  000d4	49 8b d6	 mov	 rdx, r14
  000d7	e8 00 00 00 00	 call	 ?Multiply_X_X_Imp@Internal@Core@Math@Palmtree@@YAXPEA_K_K010@Z ; Palmtree::Math::Core::Internal::Multiply_X_X_Imp

; 183  :                 u_count += v_count;
; 184  :                 if (u_ptr[u_count - 1] == 0)
; 185  :                     --u_count;
; 186  :             }
; 187  :             else

  000dc	48 83 7c f3 f8
	00		 cmp	 QWORD PTR [rbx+rsi*8-8], 0
  000e2	4c 8d 76 ff	 lea	 r14, QWORD PTR [rsi-1]
  000e6	4c 0f 45 f6	 cmovne	 r14, rsi
  000ea	eb 09		 jmp	 SHORT $LN6@Pow_X_L_Im
$LN5@Pow_X_L_Im:

; 188  :             {
; 189  :                 // u  w 
; 190  :                 __UNIT_TYPE* t_ptr = u_ptr;

  000ec	48 8b c3	 mov	 rax, rbx

; 191  :                 u_ptr = w_ptr;

  000ef	49 8b df	 mov	 rbx, r15

; 192  :                 w_ptr = t_ptr;

  000f2	4c 8b f8	 mov	 r15, rax
$LN6@Pow_X_L_Im:

; 193  :             }
; 194  : 
; 195  :             e_mask >>= 1;

  000f5	48 d1 ed	 shr	 rbp, 1
  000f8	49 83 fc 02	 cmp	 r12, 2
  000fc	0f 83 6e ff ff
	ff		 jae	 $LL2@Pow_X_L_Im

; 168  :         while (e_mask != 0)

  00102	4c 8b 64 24 78	 mov	 r12, QWORD PTR [rsp+120]
$LN3@Pow_X_L_Im:
; File z:\sources\lunor\repos\rougemeilland\palmtree.math.core.uint\palmtree.math.core.uint\pmc_inline_func.h

; 67   :             __movsq(d, s, count);

  00107	48 8b bc 24 98
	00 00 00	 mov	 rdi, QWORD PTR r_buf$[rsp]
  0010f	48 8b f3	 mov	 rsi, rbx
  00112	49 8b ce	 mov	 rcx, r14
  00115	f3 48 a5	 rep movsq
; File z:\sources\lunor\repos\rougemeilland\palmtree.math.core.uint\palmtree.math.core.uint\pmc_pow.cpp

; 198  :     }

  00118	48 83 c4 30	 add	 rsp, 48			; 00000030H
  0011c	41 5f		 pop	 r15
  0011e	41 5e		 pop	 r14
  00120	41 5d		 pop	 r13
  00122	5f		 pop	 rdi
  00123	5e		 pop	 rsi
  00124	5d		 pop	 rbp
  00125	5b		 pop	 rbx
  00126	c3		 ret	 0
?Pow_X_L_Imp@Internal@Core@Math@Palmtree@@YAXPEA_K_K1000@Z ENDP ; Palmtree::Math::Core::Internal::Pow_X_L_Imp
_TEXT	ENDS
; Function compile flags: /Ogtpy
; File z:\sources\lunor\repos\rougemeilland\palmtree.math.core.uint\palmtree.math.core.uint\pmc_pow.cpp
; File z:\sources\lunor\repos\rougemeilland\palmtree.math.core.uint\palmtree.math.core.uint\pmc_inline_func.h
; File z:\sources\lunor\repos\rougemeilland\palmtree.math.core.uint\palmtree.math.core.uint\pmc_pow.cpp
; File z:\sources\lunor\repos\rougemeilland\palmtree.math.core.uint\palmtree.math.core.uint\pmc_inline_func.h
; File z:\sources\lunor\repos\rougemeilland\palmtree.math.core.uint\palmtree.math.core.uint\pmc_pow.cpp
; File z:\sources\lunor\repos\rougemeilland\palmtree.math.core.uint\palmtree.math.core.uint\pmc_inline_func.h
; File z:\sources\lunor\repos\rougemeilland\palmtree.math.core.uint\palmtree.math.core.uint\pmc_pow.cpp
; File z:\sources\lunor\repos\rougemeilland\palmtree.math.core.uint\palmtree.math.core.uint\pmc_inline_func.h
; File z:\sources\lunor\repos\rougemeilland\palmtree.math.core.uint\palmtree.math.core.uint\pmc_pow.cpp
; File z:\sources\lunor\repos\rougemeilland\palmtree.math.core.uint\palmtree.math.core.uint\pmc_inline_func.h
; File z:\sources\lunor\repos\rougemeilland\palmtree.math.core.uint\palmtree.math.core.uint\pmc_pow.cpp
; File z:\sources\lunor\repos\rougemeilland\palmtree.math.core.uint\palmtree.math.core.uint\pmc_inline_func.h
; File z:\sources\lunor\repos\rougemeilland\palmtree.math.core.uint\palmtree.math.core.uint\pmc_pow.cpp
; File z:\sources\lunor\repos\rougemeilland\palmtree.math.core.uint\palmtree.math.core.uint\pmc_inline_func.h
; File z:\sources\lunor\repos\rougemeilland\palmtree.math.core.uint\palmtree.math.core.uint\pmc_pow.cpp
; File z:\sources\lunor\repos\rougemeilland\palmtree.math.core.uint\palmtree.math.core.uint\pmc_inline_func.h
; File z:\sources\lunor\repos\rougemeilland\palmtree.math.core.uint\palmtree.math.core.uint\pmc_pow.cpp
;	COMDAT ?Pow_X_I_Imp@Internal@Core@Math@Palmtree@@YAXPEA_K_KI000@Z
_TEXT	SEGMENT
v_buf$ = 112
v_buf_count$ = 120
e$ = 128
work1_buf$ = 136
work2_buf$ = 144
r_buf$ = 152
?Pow_X_I_Imp@Internal@Core@Math@Palmtree@@YAXPEA_K_KI000@Z PROC ; Palmtree::Math::Core::Internal::Pow_X_I_Imp, COMDAT

; 37   :     {

  00000	44 89 44 24 18	 mov	 DWORD PTR [rsp+24], r8d
  00005	48 89 4c 24 08	 mov	 QWORD PTR [rsp+8], rcx
  0000a	53		 push	 rbx
  0000b	55		 push	 rbp
  0000c	56		 push	 rsi
  0000d	57		 push	 rdi
  0000e	41 55		 push	 r13
  00010	41 56		 push	 r14
  00012	41 57		 push	 r15
  00014	48 83 ec 30	 sub	 rsp, 48			; 00000030H
  00018	49 8b d9	 mov	 rbx, r9
  0001b	4c 8b ea	 mov	 r13, rdx
; File z:\sources\lunor\repos\rougemeilland\palmtree.math.core.uint\palmtree.math.core.uint\pmc_inline_func.h

; 422  :             if (x == 0)

  0001e	45 85 c0	 test	 r8d, r8d
  00021	75 06		 jne	 SHORT $LN10@Pow_X_I_Im

; 423  :                 return (sizeof(x) * 8);

  00023	45 8d 48 20	 lea	 r9d, QWORD PTR [r8+32]
  00027	eb 0d		 jmp	 SHORT $LN9@Pow_X_I_Im
$LN10@Pow_X_I_Im:

; 424  :             DWORD pos;
; 425  : #ifdef _MSC_VER
; 426  :             _BitScanReverse(&pos, x);

  00029	41 0f bd c0	 bsr	 eax, r8d

; 427  : #elif defined(__GNUC__)
; 428  :             __asm__("bsrl %1, %0" : "=r"(pos) : "rm"(x));
; 429  : #else
; 430  : #error unknown compiler
; 431  : #endif
; 432  :             return (sizeof(x) * 8 - 1 - pos);

  0002d	41 b9 1f 00 00
	00		 mov	 r9d, 31
  00033	44 2b c8	 sub	 r9d, eax
$LN9@Pow_X_I_Im:
; File z:\sources\lunor\repos\rougemeilland\palmtree.math.core.uint\palmtree.math.core.uint\pmc_pow.cpp

; 44   :         __UNIT_TYPE* w_ptr = work2_buf;

  00036	4c 8b bc 24 90
	00 00 00	 mov	 r15, QWORD PTR work2_buf$[rsp]
; File z:\sources\lunor\repos\rougemeilland\palmtree.math.core.uint\palmtree.math.core.uint\pmc_inline_func.h

; 67   :             __movsq(d, s, count);

  0003e	48 8b f1	 mov	 rsi, rcx
  00041	49 8b cd	 mov	 rcx, r13
  00044	48 8b fb	 mov	 rdi, rbx
  00047	f3 48 a5	 rep movsq
; File z:\sources\lunor\repos\rougemeilland\palmtree.math.core.uint\palmtree.math.core.uint\pmc_pow.cpp

; 38   :         _UINT32_T e_mask = _rotr(1, _LZCNT_ALT_32(e) + 1);

  0004a	41 8d 49 01	 lea	 ecx, DWORD PTR [r9+1]
  0004e	bd 01 00 00 00	 mov	 ebp, 1
  00053	d3 cd		 ror	 ebp, cl

; 45   :         __UNIT_TYPE u_count = v_buf_count;

  00055	4d 8b f5	 mov	 r14, r13

; 46   :         __UNIT_TYPE v_count = v_buf_count;
; 47   :         _COPY_MEMORY_UNIT(work1_buf, v_buf, v_buf_count);
; 48   :         e_mask >>= 1;

  00058	d1 ed		 shr	 ebp, 1

; 49   :         while (e_mask != 0)

  0005a	0f 84 a5 00 00
	00		 je	 $LN3@Pow_X_I_Im
  00060	4c 89 64 24 78	 mov	 QWORD PTR [rsp+120], r12
  00065	66 66 66 0f 1f
	84 00 00 00 00
	00		 npad	 11
$LL2@Pow_X_I_Im:
; File z:\sources\lunor\repos\rougemeilland\palmtree.math.core.uint\palmtree.math.core.uint\pmc_inline_func.h

; 100  :             __stosq(d, 0, count);

  00070	33 c0		 xor	 eax, eax
; File z:\sources\lunor\repos\rougemeilland\palmtree.math.core.uint\palmtree.math.core.uint\pmc_pow.cpp

; 53   :             Multiply_X_X_Imp(u_ptr, u_count, u_ptr, u_count, w_ptr);

  00072	4c 89 7c 24 20	 mov	 QWORD PTR [rsp+32], r15
  00077	4b 8d 34 36	 lea	 rsi, QWORD PTR [r14+r14]
; File z:\sources\lunor\repos\rougemeilland\palmtree.math.core.uint\palmtree.math.core.uint\pmc_inline_func.h

; 100  :             __stosq(d, 0, count);

  0007b	49 8b ff	 mov	 rdi, r15
  0007e	48 8b ce	 mov	 rcx, rsi
; File z:\sources\lunor\repos\rougemeilland\palmtree.math.core.uint\palmtree.math.core.uint\pmc_pow.cpp

; 53   :             Multiply_X_X_Imp(u_ptr, u_count, u_ptr, u_count, w_ptr);

  00081	4d 8b ce	 mov	 r9, r14
; File z:\sources\lunor\repos\rougemeilland\palmtree.math.core.uint\palmtree.math.core.uint\pmc_inline_func.h

; 100  :             __stosq(d, 0, count);

  00084	f3 48 ab	 rep stosq
; File z:\sources\lunor\repos\rougemeilland\palmtree.math.core.uint\palmtree.math.core.uint\pmc_pow.cpp

; 53   :             Multiply_X_X_Imp(u_ptr, u_count, u_ptr, u_count, w_ptr);

  00087	48 8b cb	 mov	 rcx, rbx
  0008a	4c 8b c3	 mov	 r8, rbx
  0008d	49 8b d6	 mov	 rdx, r14
  00090	44 8b e5	 mov	 r12d, ebp
  00093	e8 00 00 00 00	 call	 ?Multiply_X_X_Imp@Internal@Core@Math@Palmtree@@YAXPEA_K_K010@Z ; Palmtree::Math::Core::Internal::Multiply_X_X_Imp

; 54   :             u_count *= 2;
; 55   :             if (w_ptr[u_count - 1] == 0)

  00098	4d 03 f6	 add	 r14, r14

; 56   :                 --u_count;
; 57   : 
; 58   :             // e  bit 
; 59   :             if (e & e_mask)

  0009b	4b 8b 44 f7 f8	 mov	 rax, QWORD PTR [r15+r14*8-8]
  000a0	4c 8d 76 ff	 lea	 r14, QWORD PTR [rsi-1]
  000a4	48 85 c0	 test	 rax, rax
  000a7	4c 0f 45 f6	 cmovne	 r14, rsi
  000ab	85 ac 24 80 00
	00 00		 test	 ebp, DWORD PTR e$[rsp]
  000b2	74 37		 je	 SHORT $LN5@Pow_X_I_Im

; 63   :                 Multiply_X_X_Imp(w_ptr, u_count, v_ptr, v_count, u_ptr);

  000b4	4c 8b 44 24 70	 mov	 r8, QWORD PTR v_buf$[rsp]
  000b9	4b 8d 34 2e	 lea	 rsi, QWORD PTR [r14+r13]
; File z:\sources\lunor\repos\rougemeilland\palmtree.math.core.uint\palmtree.math.core.uint\pmc_inline_func.h

; 100  :             __stosq(d, 0, count);

  000bd	33 c0		 xor	 eax, eax
; File z:\sources\lunor\repos\rougemeilland\palmtree.math.core.uint\palmtree.math.core.uint\pmc_pow.cpp

; 63   :                 Multiply_X_X_Imp(w_ptr, u_count, v_ptr, v_count, u_ptr);

  000bf	48 89 5c 24 20	 mov	 QWORD PTR [rsp+32], rbx
; File z:\sources\lunor\repos\rougemeilland\palmtree.math.core.uint\palmtree.math.core.uint\pmc_inline_func.h

; 100  :             __stosq(d, 0, count);

  000c4	48 8b ce	 mov	 rcx, rsi
  000c7	48 8b fb	 mov	 rdi, rbx
  000ca	f3 48 ab	 rep stosq
; File z:\sources\lunor\repos\rougemeilland\palmtree.math.core.uint\palmtree.math.core.uint\pmc_pow.cpp

; 63   :                 Multiply_X_X_Imp(w_ptr, u_count, v_ptr, v_count, u_ptr);

  000cd	49 8b cf	 mov	 rcx, r15
  000d0	4d 8b cd	 mov	 r9, r13
  000d3	49 8b d6	 mov	 rdx, r14
  000d6	e8 00 00 00 00	 call	 ?Multiply_X_X_Imp@Internal@Core@Math@Palmtree@@YAXPEA_K_K010@Z ; Palmtree::Math::Core::Internal::Multiply_X_X_Imp

; 64   :                 u_count += v_count;
; 65   :                 if (u_ptr[u_count - 1] == 0)
; 66   :                     --u_count;
; 67   :             }
; 68   :             else

  000db	48 83 7c f3 f8
	00		 cmp	 QWORD PTR [rbx+rsi*8-8], 0
  000e1	4c 8d 76 ff	 lea	 r14, QWORD PTR [rsi-1]
  000e5	4c 0f 45 f6	 cmovne	 r14, rsi
  000e9	eb 09		 jmp	 SHORT $LN6@Pow_X_I_Im
$LN5@Pow_X_I_Im:

; 69   :             {
; 70   :                 // u  w 
; 71   :                 __UNIT_TYPE* t_ptr = u_ptr;

  000eb	48 8b c3	 mov	 rax, rbx

; 72   :                 u_ptr = w_ptr;

  000ee	49 8b df	 mov	 rbx, r15

; 73   :                 w_ptr = t_ptr;

  000f1	4c 8b f8	 mov	 r15, rax
$LN6@Pow_X_I_Im:

; 74   :             }
; 75   : 
; 76   :             e_mask >>= 1;

  000f4	d1 ed		 shr	 ebp, 1
  000f6	41 83 fc 02	 cmp	 r12d, 2
  000fa	0f 83 70 ff ff
	ff		 jae	 $LL2@Pow_X_I_Im

; 49   :         while (e_mask != 0)

  00100	4c 8b 64 24 78	 mov	 r12, QWORD PTR [rsp+120]
$LN3@Pow_X_I_Im:
; File z:\sources\lunor\repos\rougemeilland\palmtree.math.core.uint\palmtree.math.core.uint\pmc_inline_func.h

; 67   :             __movsq(d, s, count);

  00105	48 8b bc 24 98
	00 00 00	 mov	 rdi, QWORD PTR r_buf$[rsp]
  0010d	48 8b f3	 mov	 rsi, rbx
  00110	49 8b ce	 mov	 rcx, r14
  00113	f3 48 a5	 rep movsq
; File z:\sources\lunor\repos\rougemeilland\palmtree.math.core.uint\palmtree.math.core.uint\pmc_pow.cpp

; 79   :     }

  00116	48 83 c4 30	 add	 rsp, 48			; 00000030H
  0011a	41 5f		 pop	 r15
  0011c	41 5e		 pop	 r14
  0011e	41 5d		 pop	 r13
  00120	5f		 pop	 rdi
  00121	5e		 pop	 rsi
  00122	5d		 pop	 rbp
  00123	5b		 pop	 rbx
  00124	c3		 ret	 0
?Pow_X_I_Imp@Internal@Core@Math@Palmtree@@YAXPEA_K_KI000@Z ENDP ; Palmtree::Math::Core::Internal::Pow_X_I_Imp
_TEXT	ENDS
; Function compile flags: /Ogtpy
; File z:\sources\lunor\repos\rougemeilland\palmtree.math.core.uint\palmtree.math.core.uint\pmc_inline_func.h
;	COMDAT _LZCNT_ALT_64
_TEXT	SEGMENT
x$ = 8
_LZCNT_ALT_64 PROC					; COMDAT

; 438  :             if (x == 0)

  00000	48 85 c9	 test	 rcx, rcx
  00003	75 06		 jne	 SHORT $LN2@LZCNT_ALT_

; 439  :                 return (sizeof(x) * 8);

  00005	b8 40 00 00 00	 mov	 eax, 64			; 00000040H

; 450  :         }

  0000a	c3		 ret	 0
$LN2@LZCNT_ALT_:

; 440  : #ifdef _MSC_VER
; 441  :             DWORD pos;
; 442  :             _BitScanReverse64(&pos, x);

  0000b	48 0f bd c9	 bsr	 rcx, rcx

; 443  : #elif defined(__GNUC__)
; 444  :             _UINT64_T pos;
; 445  :             __asm__("bsrq %1, %0" : "=r"(pos) : "rm"(x));
; 446  : #else
; 447  : #error unknown compiler
; 448  : #endif
; 449  :             return (sizeof(x) * 8 - 1 - pos);

  0000f	b8 3f 00 00 00	 mov	 eax, 63			; 0000003fH
  00014	2b c1		 sub	 eax, ecx

; 450  :         }

  00016	c3		 ret	 0
_LZCNT_ALT_64 ENDP
_TEXT	ENDS
; Function compile flags: /Ogtpy
; File z:\sources\lunor\repos\rougemeilland\palmtree.math.core.uint\palmtree.math.core.uint\pmc_inline_func.h
;	COMDAT _LZCNT_ALT_32
_TEXT	SEGMENT
x$ = 8
_LZCNT_ALT_32 PROC					; COMDAT

; 422  :             if (x == 0)

  00000	85 c9		 test	 ecx, ecx
  00002	75 06		 jne	 SHORT $LN2@LZCNT_ALT_

; 423  :                 return (sizeof(x) * 8);

  00004	b8 20 00 00 00	 mov	 eax, 32			; 00000020H

; 433  :         }

  00009	c3		 ret	 0
$LN2@LZCNT_ALT_:

; 424  :             DWORD pos;
; 425  : #ifdef _MSC_VER
; 426  :             _BitScanReverse(&pos, x);

  0000a	0f bd c9	 bsr	 ecx, ecx

; 427  : #elif defined(__GNUC__)
; 428  :             __asm__("bsrl %1, %0" : "=r"(pos) : "rm"(x));
; 429  : #else
; 430  : #error unknown compiler
; 431  : #endif
; 432  :             return (sizeof(x) * 8 - 1 - pos);

  0000d	b8 1f 00 00 00	 mov	 eax, 31
  00012	2b c1		 sub	 eax, ecx

; 433  :         }

  00014	c3		 ret	 0
_LZCNT_ALT_32 ENDP
_TEXT	ENDS
; Function compile flags: /Ogtpy
; File z:\sources\lunor\repos\rougemeilland\palmtree.math.core.uint\palmtree.math.core.uint\pmc_inline_func.h
;	COMDAT _ZERO_MEMORY_UNIT
_TEXT	SEGMENT
d$ = 8
count$ = 16
_ZERO_MEMORY_UNIT PROC					; COMDAT

; 96   :         {

  00000	48 89 7c 24 08	 mov	 QWORD PTR [rsp+8], rdi

; 97   : #ifdef _M_IX86
; 98   :             __stosd((unsigned long*)d, 0, (unsigned long)count);
; 99   : #elif defined(_M_X64)
; 100  :             __stosq(d, 0, count);

  00005	48 8b f9	 mov	 rdi, rcx
  00008	33 c0		 xor	 eax, eax
  0000a	48 8b ca	 mov	 rcx, rdx
  0000d	f3 48 ab	 rep stosq

; 101  : #else
; 102  : #error unknown platform
; 103  : #endif
; 104  :         }

  00010	48 8b 7c 24 08	 mov	 rdi, QWORD PTR [rsp+8]
  00015	c3		 ret	 0
_ZERO_MEMORY_UNIT ENDP
_TEXT	ENDS
; Function compile flags: /Ogtpy
; File z:\sources\lunor\repos\rougemeilland\palmtree.math.core.uint\palmtree.math.core.uint\pmc_inline_func.h
;	COMDAT _COPY_MEMORY_UNIT
_TEXT	SEGMENT
d$ = 8
s$ = 16
count$ = 24
_COPY_MEMORY_UNIT PROC					; COMDAT

; 63   :         {

  00000	48 89 74 24 08	 mov	 QWORD PTR [rsp+8], rsi
  00005	48 89 7c 24 10	 mov	 QWORD PTR [rsp+16], rdi

; 64   : #ifdef _M_IX86
; 65   :             __movsd((unsigned long *)d, (unsigned long *)s, (unsigned long)count);
; 66   : #elif defined(_M_X64)
; 67   :             __movsq(d, s, count);

  0000a	48 8b f9	 mov	 rdi, rcx
  0000d	48 8b f2	 mov	 rsi, rdx
  00010	49 8b c8	 mov	 rcx, r8
  00013	f3 48 a5	 rep movsq

; 68   : #else
; 69   : #error unknown platform
; 70   : #endif
; 71   :         }

  00016	48 8b 74 24 08	 mov	 rsi, QWORD PTR [rsp+8]
  0001b	48 8b 7c 24 10	 mov	 rdi, QWORD PTR [rsp+16]
  00020	c3		 ret	 0
_COPY_MEMORY_UNIT ENDP
_TEXT	ENDS
; Function compile flags: /Ogtpy
; File z:\sources\lunor\repos\rougemeilland\palmtree.math.core.uint\palmtree.math.core.uint\pmc_pow.cpp
;	COMDAT ?PMC_TimesOfExponentOf10@Internal@Core@Math@Palmtree@@YAPEAU__tag_PMC_HANDLE_UINT@1234@II@Z
_TEXT	SEGMENT
$T1 = 32
root$2 = 40
v$ = 96
e$ = 104
?PMC_TimesOfExponentOf10@Internal@Core@Math@Palmtree@@YAPEAU__tag_PMC_HANDLE_UINT@1234@II@Z PROC ; Palmtree::Math::Core::Internal::PMC_TimesOfExponentOf10, COMDAT

; 345  :     {

$LN13:
  00000	40 57		 push	 rdi
  00002	48 83 ec 50	 sub	 rsp, 80			; 00000050H
  00006	48 c7 44 24 20
	fe ff ff ff	 mov	 QWORD PTR $T1[rsp], -2
  0000f	48 89 5c 24 60	 mov	 QWORD PTR [rsp+96], rbx
  00014	48 89 74 24 68	 mov	 QWORD PTR [rsp+104], rsi
  00019	8b f9		 mov	 edi, ecx

; 346  :         return ((PMC_HANDLE_UINT)PMC_TimesOfExponentOf10_Imp(v, e));

  0001b	8b f2		 mov	 esi, edx

; 320  :         if (v == 0)

  0001d	85 c9		 test	 ecx, ecx
  0001f	75 17		 jne	 SHORT $LN4@PMC_TimesO

; 346  :         return ((PMC_HANDLE_UINT)PMC_TimesOfExponentOf10_Imp(v, e));

  00021	48 8d 05 00 00
	00 00		 lea	 rax, OFFSET FLAT:?number_zero@Internal@Core@Math@Palmtree@@3U__tag_NUMBER_HEADER@1234@A ; Palmtree::Math::Core::Internal::number_zero

; 347  :     }

  00028	48 8b 5c 24 60	 mov	 rbx, QWORD PTR [rsp+96]
  0002d	48 8b 74 24 68	 mov	 rsi, QWORD PTR [rsp+104]
  00032	48 83 c4 50	 add	 rsp, 80			; 00000050H
  00036	5f		 pop	 rdi
  00037	c3		 ret	 0
$LN4@PMC_TimesO:

; 322  :         if (e == 0)

  00038	85 d2		 test	 edx, edx
  0003a	75 15		 jne	 SHORT $LN5@PMC_TimesO

; 323  :             return (From_I_Imp(v));

  0003c	e8 00 00 00 00	 call	 ?From_I_Imp@Internal@Core@Math@Palmtree@@YAPEAU__tag_NUMBER_HEADER@1234@I@Z ; Palmtree::Math::Core::Internal::From_I_Imp

; 347  :     }

  00041	48 8b 5c 24 60	 mov	 rbx, QWORD PTR [rsp+96]
  00046	48 8b 74 24 68	 mov	 rsi, QWORD PTR [rsp+104]
  0004b	48 83 c4 50	 add	 rsp, 80			; 00000050H
  0004f	5f		 pop	 rdi
  00050	c3		 ret	 0
$LN5@PMC_TimesO:

; 324  :         ResourceHolderUINT root;

  00051	48 8d 4c 24 28	 lea	 rcx, QWORD PTR root$2[rsp]
  00056	e8 00 00 00 00	 call	 ??0ResourceHolderUINT@Internal@Core@Math@Palmtree@@QEAA@XZ ; Palmtree::Math::Core::Internal::ResourceHolderUINT::ResourceHolderUINT
  0005b	90		 npad	 1

; 325  :         NUMBER_HEADER* _10 = From_I_Imp(10);

  0005c	b9 0a 00 00 00	 mov	 ecx, 10
  00061	e8 00 00 00 00	 call	 ?From_I_Imp@Internal@Core@Math@Palmtree@@YAPEAU__tag_NUMBER_HEADER@1234@I@Z ; Palmtree::Math::Core::Internal::From_I_Imp
  00066	48 8b d8	 mov	 rbx, rax

; 326  :         root.HookNumber(_10);

  00069	48 8b d0	 mov	 rdx, rax
  0006c	48 8d 4c 24 28	 lea	 rcx, QWORD PTR root$2[rsp]
  00071	e8 00 00 00 00	 call	 ?HookNumber@ResourceHolderUINT@Internal@Core@Math@Palmtree@@QEAAXPEAU__tag_NUMBER_HEADER@2345@@Z ; Palmtree::Math::Core::Internal::ResourceHolderUINT::HookNumber

; 327  : #if _M_IX86
; 328  :         NUMBER_HEADER* exponent_of_10 = PMC_Pow_X_I_Imp(_10, e);
; 329  : #elif defined(_M_X64)
; 330  :         NUMBER_HEADER* exponent_of_10 = PMC_Pow_X_L_Imp(_10, e);

  00076	48 8b d6	 mov	 rdx, rsi
  00079	48 8b cb	 mov	 rcx, rbx
  0007c	e8 00 00 00 00	 call	 ?PMC_Pow_X_L_Imp@Internal@Core@Math@Palmtree@@YAPEAU__tag_NUMBER_HEADER@1234@PEAU51234@_K@Z ; Palmtree::Math::Core::Internal::PMC_Pow_X_L_Imp
  00081	48 8b d8	 mov	 rbx, rax

; 331  : #else
; 332  : #error unknown platform
; 333  : #endif
; 334  :         if (v == 1)

  00084	83 ff 01	 cmp	 edi, 1
  00087	74 1a		 je	 SHORT $LN10@PMC_TimesO

; 335  :             return (exponent_of_10);
; 336  :         else
; 337  :         {
; 338  :             root.HookNumber(exponent_of_10);

  00089	48 8b d0	 mov	 rdx, rax
  0008c	48 8d 4c 24 28	 lea	 rcx, QWORD PTR root$2[rsp]
  00091	e8 00 00 00 00	 call	 ?HookNumber@ResourceHolderUINT@Internal@Core@Math@Palmtree@@QEAAXPEAU__tag_NUMBER_HEADER@2345@@Z ; Palmtree::Math::Core::Internal::ResourceHolderUINT::HookNumber

; 339  :             NUMBER_HEADER* x_times_of_exponent_of_10 = PMC_Multiply_X_I_Imp(exponent_of_10, v);

  00096	8b d7		 mov	 edx, edi
  00098	48 8b cb	 mov	 rcx, rbx
  0009b	e8 00 00 00 00	 call	 ?PMC_Multiply_X_I_Imp@Internal@Core@Math@Palmtree@@YAPEAU__tag_NUMBER_HEADER@1234@PEAU51234@I@Z ; Palmtree::Math::Core::Internal::PMC_Multiply_X_I_Imp
  000a0	48 8b d8	 mov	 rbx, rax
$LN10@PMC_TimesO:

; 347  :     }

  000a3	48 8d 4c 24 28	 lea	 rcx, QWORD PTR root$2[rsp]
  000a8	e8 00 00 00 00	 call	 ??1ResourceHolderUINT@Internal@Core@Math@Palmtree@@UEAA@XZ ; Palmtree::Math::Core::Internal::ResourceHolderUINT::~ResourceHolderUINT
  000ad	48 8b c3	 mov	 rax, rbx
  000b0	48 8b 5c 24 60	 mov	 rbx, QWORD PTR [rsp+96]
  000b5	48 8b 74 24 68	 mov	 rsi, QWORD PTR [rsp+104]
  000ba	48 83 c4 50	 add	 rsp, 80			; 00000050H
  000be	5f		 pop	 rdi
  000bf	c3		 ret	 0
?PMC_TimesOfExponentOf10@Internal@Core@Math@Palmtree@@YAPEAU__tag_PMC_HANDLE_UINT@1234@II@Z ENDP ; Palmtree::Math::Core::Internal::PMC_TimesOfExponentOf10
_TEXT	ENDS
;	COMDAT text$x
text$x	SEGMENT
$T1 = 32
root$2 = 40
v$ = 96
e$ = 104
?dtor$0@?0??PMC_TimesOfExponentOf10@Internal@Core@Math@Palmtree@@YAPEAU__tag_PMC_HANDLE_UINT@1234@II@Z@4HA PROC ; `Palmtree::Math::Core::Internal::PMC_TimesOfExponentOf10'::`1'::dtor$0
  00000	48 8d 8a 28 00
	00 00		 lea	 rcx, QWORD PTR root$2[rdx]
  00007	e9 00 00 00 00	 jmp	 ??1ResourceHolderUINT@Internal@Core@Math@Palmtree@@UEAA@XZ ; Palmtree::Math::Core::Internal::ResourceHolderUINT::~ResourceHolderUINT
?dtor$0@?0??PMC_TimesOfExponentOf10@Internal@Core@Math@Palmtree@@YAPEAU__tag_PMC_HANDLE_UINT@1234@II@Z@4HA ENDP ; `Palmtree::Math::Core::Internal::PMC_TimesOfExponentOf10'::`1'::dtor$0
text$x	ENDS
; Function compile flags: /Ogtpy
;	COMDAT text$x
text$x	SEGMENT
$T1 = 32
root$2 = 40
v$ = 96
e$ = 104
?dtor$0@?0??PMC_TimesOfExponentOf10@Internal@Core@Math@Palmtree@@YAPEAU__tag_PMC_HANDLE_UINT@1234@II@Z@4HA PROC ; `Palmtree::Math::Core::Internal::PMC_TimesOfExponentOf10'::`1'::dtor$0
  00000	48 8d 8a 28 00
	00 00		 lea	 rcx, QWORD PTR root$2[rdx]
  00007	e9 00 00 00 00	 jmp	 ??1ResourceHolderUINT@Internal@Core@Math@Palmtree@@UEAA@XZ ; Palmtree::Math::Core::Internal::ResourceHolderUINT::~ResourceHolderUINT
?dtor$0@?0??PMC_TimesOfExponentOf10@Internal@Core@Math@Palmtree@@YAPEAU__tag_PMC_HANDLE_UINT@1234@II@Z@4HA ENDP ; `Palmtree::Math::Core::Internal::PMC_TimesOfExponentOf10'::`1'::dtor$0
text$x	ENDS
; Function compile flags: /Ogtpy
; File z:\sources\lunor\repos\rougemeilland\palmtree.math.core.uint\palmtree.math.core.uint\pmc_pow.cpp
;	COMDAT ?PMC_Pow_X_L@Internal@Core@Math@Palmtree@@YAPEAU__tag_PMC_HANDLE_UINT@1234@PEAU51234@_K@Z
_TEXT	SEGMENT
$T1 = 32
root$ = 40
$T2 = 72
v$ = 144
e$ = 152
?PMC_Pow_X_L@Internal@Core@Math@Palmtree@@YAPEAU__tag_PMC_HANDLE_UINT@1234@PEAU51234@_K@Z PROC ; Palmtree::Math::Core::Internal::PMC_Pow_X_L, COMDAT

; 295  :     {

$LN10:
  00000	40 57		 push	 rdi
  00002	48 81 ec 80 00
	00 00		 sub	 rsp, 128		; 00000080H
  00009	48 c7 44 24 20
	fe ff ff ff	 mov	 QWORD PTR $T1[rsp], -2
  00012	48 89 9c 24 90
	00 00 00	 mov	 QWORD PTR [rsp+144], rbx
  0001a	48 8b fa	 mov	 rdi, rdx
  0001d	48 8b d9	 mov	 rbx, rcx

; 296  : #ifdef _M_X64
; 297  :         if (__UNIT_TYPE_BIT_COUNT < sizeof(e) * 8)
; 298  :         {
; 299  :             // _UINT32_T  1 
; 300  :             throw InternalErrorException(L"", L"pmc_pow.cpp;PMC_Pow_X_I;1");
; 301  :         }
; 302  :         if (v == nullptr)

  00020	48 85 c9	 test	 rcx, rcx
  00023	74 57		 je	 SHORT $LN8@PMC_Pow_X_

; 304  :         CheckNumber((NUMBER_HEADER*)v);

  00025	e8 00 00 00 00	 call	 ?CheckNumber@Internal@Core@Math@Palmtree@@YAXPEAU__tag_NUMBER_HEADER@1234@@Z ; Palmtree::Math::Core::Internal::CheckNumber

; 305  :         ResourceHolderUINT root;

  0002a	48 8d 4c 24 28	 lea	 rcx, QWORD PTR root$[rsp]
  0002f	e8 00 00 00 00	 call	 ??0ResourceHolderUINT@Internal@Core@Math@Palmtree@@QEAA@XZ ; Palmtree::Math::Core::Internal::ResourceHolderUINT::ResourceHolderUINT
  00034	90		 npad	 1

; 306  :         NUMBER_HEADER* r = PMC_Pow_X_L_Imp((NUMBER_HEADER*)v, e);

  00035	48 8b d7	 mov	 rdx, rdi
  00038	48 8b cb	 mov	 rcx, rbx
  0003b	e8 00 00 00 00	 call	 ?PMC_Pow_X_L_Imp@Internal@Core@Math@Palmtree@@YAPEAU__tag_NUMBER_HEADER@1234@PEAU51234@_K@Z ; Palmtree::Math::Core::Internal::PMC_Pow_X_L_Imp
  00040	48 8b d8	 mov	 rbx, rax

; 307  :         root.HookNumber(r);

  00043	48 8b d0	 mov	 rdx, rax
  00046	48 8d 4c 24 28	 lea	 rcx, QWORD PTR root$[rsp]
  0004b	e8 00 00 00 00	 call	 ?HookNumber@ResourceHolderUINT@Internal@Core@Math@Palmtree@@QEAAXPEAU__tag_NUMBER_HEADER@2345@@Z ; Palmtree::Math::Core::Internal::ResourceHolderUINT::HookNumber

; 308  : #ifdef _DEBUG
; 309  :         CheckNumber(r);
; 310  : #endif
; 311  :         root.UnlinkNumber(r);

  00050	48 8b d3	 mov	 rdx, rbx
  00053	48 8d 4c 24 28	 lea	 rcx, QWORD PTR root$[rsp]
  00058	e8 00 00 00 00	 call	 ?UnlinkNumber@ResourceHolderUINT@Internal@Core@Math@Palmtree@@QEAAXPEAU__tag_NUMBER_HEADER@2345@@Z ; Palmtree::Math::Core::Internal::ResourceHolderUINT::UnlinkNumber
  0005d	90		 npad	 1

; 312  :         return ((PMC_HANDLE_UINT)r);

  0005e	48 8d 4c 24 28	 lea	 rcx, QWORD PTR root$[rsp]
  00063	e8 00 00 00 00	 call	 ??1ResourceHolderUINT@Internal@Core@Math@Palmtree@@UEAA@XZ ; Palmtree::Math::Core::Internal::ResourceHolderUINT::~ResourceHolderUINT
  00068	48 8b c3	 mov	 rax, rbx

; 313  : #else
; 314  :         throw NotSupportedException(L"");
; 315  : #endif
; 316  :     }

  0006b	48 8b 9c 24 90
	00 00 00	 mov	 rbx, QWORD PTR [rsp+144]
  00073	48 81 c4 80 00
	00 00		 add	 rsp, 128		; 00000080H
  0007a	5f		 pop	 rdi
  0007b	c3		 ret	 0
$LN8@PMC_Pow_X_:

; 303  :             throw ArgumentNullException(L"nullptr", L"v");

  0007c	4c 8d 05 00 00
	00 00		 lea	 r8, OFFSET FLAT:??_C@_13JAOPNPKD@?$AAv@
  00083	48 8d 15 00 00
	00 00		 lea	 rdx, OFFSET FLAT:??_C@_1CK@ECFIEPAC@?$AA?$BF?$AAp?$AAk?$AAn?$AAu?$AAl?$AAl?$AAp?$AAt?$AAr?$AAL?$AA?$AO?$AAH?$PP?$IJ?$PP?$IM@
  0008a	48 8d 4c 24 48	 lea	 rcx, QWORD PTR $T2[rsp]
  0008f	e8 00 00 00 00	 call	 ??0ArgumentNullException@Internal@Core@Math@Palmtree@@QEAA@PEB_W0@Z ; Palmtree::Math::Core::Internal::ArgumentNullException::ArgumentNullException
  00094	48 8d 15 00 00
	00 00		 lea	 rdx, OFFSET FLAT:_TI2?AVArgumentNullException@Internal@Core@Math@Palmtree@@
  0009b	48 8d 4c 24 48	 lea	 rcx, QWORD PTR $T2[rsp]
  000a0	e8 00 00 00 00	 call	 _CxxThrowException
  000a5	cc		 int	 3
$LN6@PMC_Pow_X_:
?PMC_Pow_X_L@Internal@Core@Math@Palmtree@@YAPEAU__tag_PMC_HANDLE_UINT@1234@PEAU51234@_K@Z ENDP ; Palmtree::Math::Core::Internal::PMC_Pow_X_L
_TEXT	ENDS
;	COMDAT text$x
text$x	SEGMENT
$T1 = 32
root$ = 40
$T2 = 72
v$ = 144
e$ = 152
?dtor$0@?0??PMC_Pow_X_L@Internal@Core@Math@Palmtree@@YAPEAU__tag_PMC_HANDLE_UINT@1234@PEAU51234@_K@Z@4HA PROC ; `Palmtree::Math::Core::Internal::PMC_Pow_X_L'::`1'::dtor$0
  00000	48 8d 8a 28 00
	00 00		 lea	 rcx, QWORD PTR root$[rdx]
  00007	e9 00 00 00 00	 jmp	 ??1ResourceHolderUINT@Internal@Core@Math@Palmtree@@UEAA@XZ ; Palmtree::Math::Core::Internal::ResourceHolderUINT::~ResourceHolderUINT
?dtor$0@?0??PMC_Pow_X_L@Internal@Core@Math@Palmtree@@YAPEAU__tag_PMC_HANDLE_UINT@1234@PEAU51234@_K@Z@4HA ENDP ; `Palmtree::Math::Core::Internal::PMC_Pow_X_L'::`1'::dtor$0
text$x	ENDS
; Function compile flags: /Ogtpy
;	COMDAT text$x
text$x	SEGMENT
$T1 = 32
root$ = 40
$T2 = 72
v$ = 144
e$ = 152
?dtor$0@?0??PMC_Pow_X_L@Internal@Core@Math@Palmtree@@YAPEAU__tag_PMC_HANDLE_UINT@1234@PEAU51234@_K@Z@4HA PROC ; `Palmtree::Math::Core::Internal::PMC_Pow_X_L'::`1'::dtor$0
  00000	48 8d 8a 28 00
	00 00		 lea	 rcx, QWORD PTR root$[rdx]
  00007	e9 00 00 00 00	 jmp	 ??1ResourceHolderUINT@Internal@Core@Math@Palmtree@@UEAA@XZ ; Palmtree::Math::Core::Internal::ResourceHolderUINT::~ResourceHolderUINT
?dtor$0@?0??PMC_Pow_X_L@Internal@Core@Math@Palmtree@@YAPEAU__tag_PMC_HANDLE_UINT@1234@PEAU51234@_K@Z@4HA ENDP ; `Palmtree::Math::Core::Internal::PMC_Pow_X_L'::`1'::dtor$0
text$x	ENDS
; Function compile flags: /Ogtpy
; File z:\sources\lunor\repos\rougemeilland\palmtree.math.core.uint\palmtree.math.core.uint\pmc_pow.cpp
;	COMDAT ?PMC_Pow_X_I@Internal@Core@Math@Palmtree@@YAPEAU__tag_PMC_HANDLE_UINT@1234@PEAU51234@I@Z
_TEXT	SEGMENT
$T1 = 32
root$ = 40
$T2 = 72
v$ = 144
e$ = 152
?PMC_Pow_X_I@Internal@Core@Math@Palmtree@@YAPEAU__tag_PMC_HANDLE_UINT@1234@PEAU51234@I@Z PROC ; Palmtree::Math::Core::Internal::PMC_Pow_X_I, COMDAT

; 275  :     {

$LN10:
  00000	40 57		 push	 rdi
  00002	48 81 ec 80 00
	00 00		 sub	 rsp, 128		; 00000080H
  00009	48 c7 44 24 20
	fe ff ff ff	 mov	 QWORD PTR $T1[rsp], -2
  00012	48 89 9c 24 90
	00 00 00	 mov	 QWORD PTR [rsp+144], rbx
  0001a	8b fa		 mov	 edi, edx
  0001c	48 8b d9	 mov	 rbx, rcx

; 276  :         if (__UNIT_TYPE_BIT_COUNT < sizeof(e) * 8)
; 277  :         {
; 278  :             // _UINT32_T  1 
; 279  :             throw InternalErrorException(L"", L"pmc_pow.cpp;PMC_Pow_X_I;1");
; 280  :         }
; 281  :         if (v == nullptr)

  0001f	48 85 c9	 test	 rcx, rcx
  00022	74 56		 je	 SHORT $LN8@PMC_Pow_X_

; 283  :         CheckNumber((NUMBER_HEADER*)v);

  00024	e8 00 00 00 00	 call	 ?CheckNumber@Internal@Core@Math@Palmtree@@YAXPEAU__tag_NUMBER_HEADER@1234@@Z ; Palmtree::Math::Core::Internal::CheckNumber

; 284  :         ResourceHolderUINT root;

  00029	48 8d 4c 24 28	 lea	 rcx, QWORD PTR root$[rsp]
  0002e	e8 00 00 00 00	 call	 ??0ResourceHolderUINT@Internal@Core@Math@Palmtree@@QEAA@XZ ; Palmtree::Math::Core::Internal::ResourceHolderUINT::ResourceHolderUINT
  00033	90		 npad	 1

; 285  :         NUMBER_HEADER* r = PMC_Pow_X_I_Imp((NUMBER_HEADER*)v, e);

  00034	8b d7		 mov	 edx, edi
  00036	48 8b cb	 mov	 rcx, rbx
  00039	e8 00 00 00 00	 call	 ?PMC_Pow_X_I_Imp@Internal@Core@Math@Palmtree@@YAPEAU__tag_NUMBER_HEADER@1234@PEAU51234@I@Z ; Palmtree::Math::Core::Internal::PMC_Pow_X_I_Imp
  0003e	48 8b d8	 mov	 rbx, rax

; 286  :         root.HookNumber(r);

  00041	48 8b d0	 mov	 rdx, rax
  00044	48 8d 4c 24 28	 lea	 rcx, QWORD PTR root$[rsp]
  00049	e8 00 00 00 00	 call	 ?HookNumber@ResourceHolderUINT@Internal@Core@Math@Palmtree@@QEAAXPEAU__tag_NUMBER_HEADER@2345@@Z ; Palmtree::Math::Core::Internal::ResourceHolderUINT::HookNumber

; 287  : #ifdef _DEBUG
; 288  :         CheckNumber(r);
; 289  : #endif
; 290  :         root.UnlinkNumber(r);

  0004e	48 8b d3	 mov	 rdx, rbx
  00051	48 8d 4c 24 28	 lea	 rcx, QWORD PTR root$[rsp]
  00056	e8 00 00 00 00	 call	 ?UnlinkNumber@ResourceHolderUINT@Internal@Core@Math@Palmtree@@QEAAXPEAU__tag_NUMBER_HEADER@2345@@Z ; Palmtree::Math::Core::Internal::ResourceHolderUINT::UnlinkNumber
  0005b	90		 npad	 1

; 291  :         return ((PMC_HANDLE_UINT)r);

  0005c	48 8d 4c 24 28	 lea	 rcx, QWORD PTR root$[rsp]
  00061	e8 00 00 00 00	 call	 ??1ResourceHolderUINT@Internal@Core@Math@Palmtree@@UEAA@XZ ; Palmtree::Math::Core::Internal::ResourceHolderUINT::~ResourceHolderUINT
  00066	48 8b c3	 mov	 rax, rbx

; 292  :     }

  00069	48 8b 9c 24 90
	00 00 00	 mov	 rbx, QWORD PTR [rsp+144]
  00071	48 81 c4 80 00
	00 00		 add	 rsp, 128		; 00000080H
  00078	5f		 pop	 rdi
  00079	c3		 ret	 0
$LN8@PMC_Pow_X_:

; 282  :             throw ArgumentNullException(L"nullptr", L"v");

  0007a	4c 8d 05 00 00
	00 00		 lea	 r8, OFFSET FLAT:??_C@_13JAOPNPKD@?$AAv@
  00081	48 8d 15 00 00
	00 00		 lea	 rdx, OFFSET FLAT:??_C@_1CK@ECFIEPAC@?$AA?$BF?$AAp?$AAk?$AAn?$AAu?$AAl?$AAl?$AAp?$AAt?$AAr?$AAL?$AA?$AO?$AAH?$PP?$IJ?$PP?$IM@
  00088	48 8d 4c 24 48	 lea	 rcx, QWORD PTR $T2[rsp]
  0008d	e8 00 00 00 00	 call	 ??0ArgumentNullException@Internal@Core@Math@Palmtree@@QEAA@PEB_W0@Z ; Palmtree::Math::Core::Internal::ArgumentNullException::ArgumentNullException
  00092	48 8d 15 00 00
	00 00		 lea	 rdx, OFFSET FLAT:_TI2?AVArgumentNullException@Internal@Core@Math@Palmtree@@
  00099	48 8d 4c 24 48	 lea	 rcx, QWORD PTR $T2[rsp]
  0009e	e8 00 00 00 00	 call	 _CxxThrowException
  000a3	cc		 int	 3
$LN6@PMC_Pow_X_:
?PMC_Pow_X_I@Internal@Core@Math@Palmtree@@YAPEAU__tag_PMC_HANDLE_UINT@1234@PEAU51234@I@Z ENDP ; Palmtree::Math::Core::Internal::PMC_Pow_X_I
_TEXT	ENDS
;	COMDAT text$x
text$x	SEGMENT
$T1 = 32
root$ = 40
$T2 = 72
v$ = 144
e$ = 152
?dtor$0@?0??PMC_Pow_X_I@Internal@Core@Math@Palmtree@@YAPEAU__tag_PMC_HANDLE_UINT@1234@PEAU51234@I@Z@4HA PROC ; `Palmtree::Math::Core::Internal::PMC_Pow_X_I'::`1'::dtor$0
  00000	48 8d 8a 28 00
	00 00		 lea	 rcx, QWORD PTR root$[rdx]
  00007	e9 00 00 00 00	 jmp	 ??1ResourceHolderUINT@Internal@Core@Math@Palmtree@@UEAA@XZ ; Palmtree::Math::Core::Internal::ResourceHolderUINT::~ResourceHolderUINT
?dtor$0@?0??PMC_Pow_X_I@Internal@Core@Math@Palmtree@@YAPEAU__tag_PMC_HANDLE_UINT@1234@PEAU51234@I@Z@4HA ENDP ; `Palmtree::Math::Core::Internal::PMC_Pow_X_I'::`1'::dtor$0
text$x	ENDS
; Function compile flags: /Ogtpy
;	COMDAT text$x
text$x	SEGMENT
$T1 = 32
root$ = 40
$T2 = 72
v$ = 144
e$ = 152
?dtor$0@?0??PMC_Pow_X_I@Internal@Core@Math@Palmtree@@YAPEAU__tag_PMC_HANDLE_UINT@1234@PEAU51234@I@Z@4HA PROC ; `Palmtree::Math::Core::Internal::PMC_Pow_X_I'::`1'::dtor$0
  00000	48 8d 8a 28 00
	00 00		 lea	 rcx, QWORD PTR root$[rdx]
  00007	e9 00 00 00 00	 jmp	 ??1ResourceHolderUINT@Internal@Core@Math@Palmtree@@UEAA@XZ ; Palmtree::Math::Core::Internal::ResourceHolderUINT::~ResourceHolderUINT
?dtor$0@?0??PMC_Pow_X_I@Internal@Core@Math@Palmtree@@YAPEAU__tag_PMC_HANDLE_UINT@1234@PEAU51234@I@Z@4HA ENDP ; `Palmtree::Math::Core::Internal::PMC_Pow_X_I'::`1'::dtor$0
text$x	ENDS
; Function compile flags: /Ogtpy
; File z:\sources\lunor\repos\rougemeilland\palmtree.math.core.uint\palmtree.math.core.uint\pmc_pow.cpp
;	COMDAT ?Initialize_Pow@Internal@Core@Math@Palmtree@@YAHPEAU_tag_PROCESSOR_FEATURES@1234@@Z
_TEXT	SEGMENT
feature$ = 8
?Initialize_Pow@Internal@Core@Math@Palmtree@@YAHPEAU_tag_PROCESSOR_FEATURES@1234@@Z PROC ; Palmtree::Math::Core::Internal::Initialize_Pow, COMDAT

; 351  :         return (PMC_STATUS_OK);

  00000	33 c0		 xor	 eax, eax

; 352  :     }

  00002	c3		 ret	 0
?Initialize_Pow@Internal@Core@Math@Palmtree@@YAHPEAU_tag_PROCESSOR_FEATURES@1234@@Z ENDP ; Palmtree::Math::Core::Internal::Initialize_Pow
_TEXT	ENDS
; Function compile flags: /Ogtpy
; File z:\sources\lunor\repos\rougemeilland\palmtree.math.core.uint\palmtree.math.core.uint\pmc_pow.cpp
;	COMDAT ?PMC_TimesOfExponentOf10_Imp@Internal@Core@Math@Palmtree@@YAPEAU__tag_NUMBER_HEADER@1234@I_K@Z
_TEXT	SEGMENT
$T1 = 32
root$ = 40
v$ = 96
e$ = 104
?PMC_TimesOfExponentOf10_Imp@Internal@Core@Math@Palmtree@@YAPEAU__tag_NUMBER_HEADER@1234@I_K@Z PROC ; Palmtree::Math::Core::Internal::PMC_TimesOfExponentOf10_Imp, COMDAT

; 319  :     {

$LN11:
  00000	40 57		 push	 rdi
  00002	48 83 ec 50	 sub	 rsp, 80			; 00000050H
  00006	48 c7 44 24 20
	fe ff ff ff	 mov	 QWORD PTR $T1[rsp], -2
  0000f	48 89 5c 24 60	 mov	 QWORD PTR [rsp+96], rbx
  00014	48 89 74 24 68	 mov	 QWORD PTR [rsp+104], rsi
  00019	48 8b f2	 mov	 rsi, rdx
  0001c	8b f9		 mov	 edi, ecx

; 320  :         if (v == 0)

  0001e	85 c9		 test	 ecx, ecx
  00020	75 17		 jne	 SHORT $LN2@PMC_TimesO

; 321  :             return (&number_zero);

  00022	48 8d 05 00 00
	00 00		 lea	 rax, OFFSET FLAT:?number_zero@Internal@Core@Math@Palmtree@@3U__tag_NUMBER_HEADER@1234@A ; Palmtree::Math::Core::Internal::number_zero

; 341  :         }
; 342  :     }

  00029	48 8b 5c 24 60	 mov	 rbx, QWORD PTR [rsp+96]
  0002e	48 8b 74 24 68	 mov	 rsi, QWORD PTR [rsp+104]
  00033	48 83 c4 50	 add	 rsp, 80			; 00000050H
  00037	5f		 pop	 rdi
  00038	c3		 ret	 0
$LN2@PMC_TimesO:

; 322  :         if (e == 0)

  00039	48 85 f6	 test	 rsi, rsi
  0003c	75 15		 jne	 SHORT $LN3@PMC_TimesO

; 323  :             return (From_I_Imp(v));

  0003e	e8 00 00 00 00	 call	 ?From_I_Imp@Internal@Core@Math@Palmtree@@YAPEAU__tag_NUMBER_HEADER@1234@I@Z ; Palmtree::Math::Core::Internal::From_I_Imp

; 341  :         }
; 342  :     }

  00043	48 8b 5c 24 60	 mov	 rbx, QWORD PTR [rsp+96]
  00048	48 8b 74 24 68	 mov	 rsi, QWORD PTR [rsp+104]
  0004d	48 83 c4 50	 add	 rsp, 80			; 00000050H
  00051	5f		 pop	 rdi
  00052	c3		 ret	 0
$LN3@PMC_TimesO:

; 324  :         ResourceHolderUINT root;

  00053	48 8d 4c 24 28	 lea	 rcx, QWORD PTR root$[rsp]
  00058	e8 00 00 00 00	 call	 ??0ResourceHolderUINT@Internal@Core@Math@Palmtree@@QEAA@XZ ; Palmtree::Math::Core::Internal::ResourceHolderUINT::ResourceHolderUINT
  0005d	90		 npad	 1

; 325  :         NUMBER_HEADER* _10 = From_I_Imp(10);

  0005e	b9 0a 00 00 00	 mov	 ecx, 10
  00063	e8 00 00 00 00	 call	 ?From_I_Imp@Internal@Core@Math@Palmtree@@YAPEAU__tag_NUMBER_HEADER@1234@I@Z ; Palmtree::Math::Core::Internal::From_I_Imp
  00068	48 8b d8	 mov	 rbx, rax

; 326  :         root.HookNumber(_10);

  0006b	48 8b d0	 mov	 rdx, rax
  0006e	48 8d 4c 24 28	 lea	 rcx, QWORD PTR root$[rsp]
  00073	e8 00 00 00 00	 call	 ?HookNumber@ResourceHolderUINT@Internal@Core@Math@Palmtree@@QEAAXPEAU__tag_NUMBER_HEADER@2345@@Z ; Palmtree::Math::Core::Internal::ResourceHolderUINT::HookNumber

; 327  : #if _M_IX86
; 328  :         NUMBER_HEADER* exponent_of_10 = PMC_Pow_X_I_Imp(_10, e);
; 329  : #elif defined(_M_X64)
; 330  :         NUMBER_HEADER* exponent_of_10 = PMC_Pow_X_L_Imp(_10, e);

  00078	48 8b d6	 mov	 rdx, rsi
  0007b	48 8b cb	 mov	 rcx, rbx
  0007e	e8 00 00 00 00	 call	 ?PMC_Pow_X_L_Imp@Internal@Core@Math@Palmtree@@YAPEAU__tag_NUMBER_HEADER@1234@PEAU51234@_K@Z ; Palmtree::Math::Core::Internal::PMC_Pow_X_L_Imp
  00083	48 8b d8	 mov	 rbx, rax

; 331  : #else
; 332  : #error unknown platform
; 333  : #endif
; 334  :         if (v == 1)

  00086	83 ff 01	 cmp	 edi, 1
  00089	74 1a		 je	 SHORT $LN8@PMC_TimesO

; 335  :             return (exponent_of_10);
; 336  :         else
; 337  :         {
; 338  :             root.HookNumber(exponent_of_10);

  0008b	48 8b d0	 mov	 rdx, rax
  0008e	48 8d 4c 24 28	 lea	 rcx, QWORD PTR root$[rsp]
  00093	e8 00 00 00 00	 call	 ?HookNumber@ResourceHolderUINT@Internal@Core@Math@Palmtree@@QEAAXPEAU__tag_NUMBER_HEADER@2345@@Z ; Palmtree::Math::Core::Internal::ResourceHolderUINT::HookNumber

; 339  :             NUMBER_HEADER* x_times_of_exponent_of_10 = PMC_Multiply_X_I_Imp(exponent_of_10, v);

  00098	8b d7		 mov	 edx, edi
  0009a	48 8b cb	 mov	 rcx, rbx
  0009d	e8 00 00 00 00	 call	 ?PMC_Multiply_X_I_Imp@Internal@Core@Math@Palmtree@@YAPEAU__tag_NUMBER_HEADER@1234@PEAU51234@I@Z ; Palmtree::Math::Core::Internal::PMC_Multiply_X_I_Imp
  000a2	48 8b d8	 mov	 rbx, rax
$LN8@PMC_TimesO:

; 340  :             return (x_times_of_exponent_of_10);

  000a5	48 8d 4c 24 28	 lea	 rcx, QWORD PTR root$[rsp]
  000aa	e8 00 00 00 00	 call	 ??1ResourceHolderUINT@Internal@Core@Math@Palmtree@@UEAA@XZ ; Palmtree::Math::Core::Internal::ResourceHolderUINT::~ResourceHolderUINT
  000af	48 8b c3	 mov	 rax, rbx

; 341  :         }
; 342  :     }

  000b2	48 8b 5c 24 60	 mov	 rbx, QWORD PTR [rsp+96]
  000b7	48 8b 74 24 68	 mov	 rsi, QWORD PTR [rsp+104]
  000bc	48 83 c4 50	 add	 rsp, 80			; 00000050H
  000c0	5f		 pop	 rdi
  000c1	c3		 ret	 0
?PMC_TimesOfExponentOf10_Imp@Internal@Core@Math@Palmtree@@YAPEAU__tag_NUMBER_HEADER@1234@I_K@Z ENDP ; Palmtree::Math::Core::Internal::PMC_TimesOfExponentOf10_Imp
_TEXT	ENDS
;	COMDAT text$x
text$x	SEGMENT
$T1 = 32
root$ = 40
v$ = 96
e$ = 104
?dtor$0@?0??PMC_TimesOfExponentOf10_Imp@Internal@Core@Math@Palmtree@@YAPEAU__tag_NUMBER_HEADER@1234@I_K@Z@4HA PROC ; `Palmtree::Math::Core::Internal::PMC_TimesOfExponentOf10_Imp'::`1'::dtor$0
  00000	48 8d 8a 28 00
	00 00		 lea	 rcx, QWORD PTR root$[rdx]
  00007	e9 00 00 00 00	 jmp	 ??1ResourceHolderUINT@Internal@Core@Math@Palmtree@@UEAA@XZ ; Palmtree::Math::Core::Internal::ResourceHolderUINT::~ResourceHolderUINT
?dtor$0@?0??PMC_TimesOfExponentOf10_Imp@Internal@Core@Math@Palmtree@@YAPEAU__tag_NUMBER_HEADER@1234@I_K@Z@4HA ENDP ; `Palmtree::Math::Core::Internal::PMC_TimesOfExponentOf10_Imp'::`1'::dtor$0
text$x	ENDS
; Function compile flags: /Ogtpy
;	COMDAT text$x
text$x	SEGMENT
$T1 = 32
root$ = 40
v$ = 96
e$ = 104
?dtor$0@?0??PMC_TimesOfExponentOf10_Imp@Internal@Core@Math@Palmtree@@YAPEAU__tag_NUMBER_HEADER@1234@I_K@Z@4HA PROC ; `Palmtree::Math::Core::Internal::PMC_TimesOfExponentOf10_Imp'::`1'::dtor$0
  00000	48 8d 8a 28 00
	00 00		 lea	 rcx, QWORD PTR root$[rdx]
  00007	e9 00 00 00 00	 jmp	 ??1ResourceHolderUINT@Internal@Core@Math@Palmtree@@UEAA@XZ ; Palmtree::Math::Core::Internal::ResourceHolderUINT::~ResourceHolderUINT
?dtor$0@?0??PMC_TimesOfExponentOf10_Imp@Internal@Core@Math@Palmtree@@YAPEAU__tag_NUMBER_HEADER@1234@I_K@Z@4HA ENDP ; `Palmtree::Math::Core::Internal::PMC_TimesOfExponentOf10_Imp'::`1'::dtor$0
text$x	ENDS
; Function compile flags: /Ogtpy
; File z:\sources\lunor\repos\rougemeilland\palmtree.math.core.uint\palmtree.math.core.uint\pmc_pow.cpp
; File z:\sources\lunor\repos\rougemeilland\palmtree.math.core.uint\palmtree.math.core.uint\pmc_inline_func.h
; File z:\sources\lunor\repos\rougemeilland\palmtree.math.core.uint\palmtree.math.core.uint\pmc_pow.cpp
; File z:\sources\lunor\repos\rougemeilland\palmtree.math.core.uint\palmtree.math.core.uint\pmc_inline_func.h
; File z:\sources\lunor\repos\rougemeilland\palmtree.math.core.uint\palmtree.math.core.uint\pmc_pow.cpp
; File z:\sources\lunor\repos\rougemeilland\palmtree.math.core.uint\palmtree.math.core.uint\pmc_inline_func.h
; File z:\sources\lunor\repos\rougemeilland\palmtree.math.core.uint\palmtree.math.core.uint\pmc_pow.cpp
; File z:\sources\lunor\repos\rougemeilland\palmtree.math.core.uint\palmtree.math.core.uint\pmc_inline_func.h
; File z:\sources\lunor\repos\rougemeilland\palmtree.math.core.uint\palmtree.math.core.uint\pmc_pow.cpp
; File z:\sources\lunor\repos\rougemeilland\palmtree.math.core.uint\palmtree.math.core.uint\pmc_inline_func.h
; File z:\sources\lunor\repos\rougemeilland\palmtree.math.core.uint\palmtree.math.core.uint\pmc_pow.cpp
;	COMDAT ?PMC_Pow_X_L_Imp@Internal@Core@Math@Palmtree@@YAPEAU__tag_NUMBER_HEADER@1234@PEAU51234@_K@Z
_TEXT	SEGMENT
r_buf$1$ = 48
work1_buf$1$ = 56
work2_buf$1$ = 64
root$1 = 72
$T2 = 72
$T3 = 120
$T4 = 128
v_buf_count$1$ = 240
v$ = 240
e$ = 248
v_buf$1$ = 256
r$1$ = 264
?PMC_Pow_X_L_Imp@Internal@Core@Math@Palmtree@@YAPEAU__tag_NUMBER_HEADER@1234@PEAU51234@_K@Z PROC ; Palmtree::Math::Core::Internal::PMC_Pow_X_L_Imp, COMDAT

; 201  :     {

$LN44:
  00000	40 55		 push	 rbp
  00002	56		 push	 rsi
  00003	57		 push	 rdi
  00004	41 54		 push	 r12
  00006	41 55		 push	 r13
  00008	41 56		 push	 r14
  0000a	41 57		 push	 r15
  0000c	48 81 ec b0 00
	00 00		 sub	 rsp, 176		; 000000b0H
  00013	48 c7 44 24 78
	fe ff ff ff	 mov	 QWORD PTR $T3[rsp], -2
  0001c	48 89 9c 24 f8
	00 00 00	 mov	 QWORD PTR [rsp+248], rbx
  00024	4c 8b e2	 mov	 r12, rdx
  00027	48 8b f9	 mov	 rdi, rcx

; 202  :         if (v->IS_ZERO)

  0002a	8b 41 08	 mov	 eax, DWORD PTR [rcx+8]
  0002d	a8 01		 test	 al, 1
  0002f	74 15		 je	 SHORT $LN2@PMC_Pow_X_

; 203  :         {
; 204  :             // v  0 
; 205  : 
; 206  :             if (e == 0)

  00031	48 85 d2	 test	 rdx, rdx
  00034	0f 84 36 02 00
	00		 je	 $LN41@PMC_Pow_X_

; 212  :             }
; 213  :             else
; 214  :             {
; 215  :                 // e  0 
; 216  : 
; 217  :                 return (&number_zero);

  0003a	48 8d 05 00 00
	00 00		 lea	 rax, OFFSET FLAT:?number_zero@Internal@Core@Math@Palmtree@@3U__tag_NUMBER_HEADER@1234@A ; Palmtree::Math::Core::Internal::number_zero
  00041	e9 e6 01 00 00	 jmp	 $LN11@PMC_Pow_X_
$LN2@PMC_Pow_X_:

; 218  :             }
; 219  :         }
; 220  :         else if (v->IS_ONE)

  00046	a8 02		 test	 al, 2
  00048	74 0c		 je	 SHORT $LN6@PMC_Pow_X_
$LN39@PMC_Pow_X_:

; 269  :             }
; 270  :         }
; 271  :     }

  0004a	48 8d 05 00 00
	00 00		 lea	 rax, OFFSET FLAT:?number_one@Internal@Core@Math@Palmtree@@3U__tag_NUMBER_HEADER@1234@A ; Palmtree::Math::Core::Internal::number_one
  00051	e9 d6 01 00 00	 jmp	 $LN11@PMC_Pow_X_
$LN6@PMC_Pow_X_:

; 221  :         {
; 222  :             // v  1 
; 223  : 
; 224  :             // e  1 
; 225  :             return (&number_one);
; 226  :         }
; 227  :         else
; 228  :         {
; 229  :             // v  2 
; 230  : 
; 231  :             if (e == 0)

  00056	4d 85 e4	 test	 r12, r12
  00059	74 ef		 je	 SHORT $LN39@PMC_Pow_X_

; 232  :             {
; 233  :                 // e  0 
; 234  : 
; 235  :                 //  1 
; 236  :                 return (&number_one);
; 237  :             }
; 238  :             else if (e == 1)

  0005b	49 83 fc 01	 cmp	 r12, 1
  0005f	75 0a		 jne	 SHORT $LN10@PMC_Pow_X_

; 239  :             {
; 240  :                 // e  1 
; 241  : 
; 242  :                 //  v 
; 243  :                 return (DuplicateNumber(v));

  00061	e8 00 00 00 00	 call	 ?DuplicateNumber@Internal@Core@Math@Palmtree@@YAPEAU__tag_NUMBER_HEADER@1234@PEAU51234@@Z ; Palmtree::Math::Core::Internal::DuplicateNumber
  00066	e9 c1 01 00 00	 jmp	 $LN11@PMC_Pow_X_
$LN10@PMC_Pow_X_:

; 244  :             }
; 245  :             else
; 246  :             {
; 247  :                 // v  e  2 
; 248  : 
; 249  :                 // v  e 
; 250  :                 ResourceHolderUINT root;

  0006b	48 8d 4c 24 48	 lea	 rcx, QWORD PTR root$1[rsp]
  00070	e8 00 00 00 00	 call	 ??0ResourceHolderUINT@Internal@Core@Math@Palmtree@@QEAA@XZ ; Palmtree::Math::Core::Internal::ResourceHolderUINT::ResourceHolderUINT
  00075	90		 npad	 1

; 251  :                 __UNIT_TYPE v_bit_count = v->UNIT_BIT_COUNT;

  00076	48 8b 77 20	 mov	 rsi, QWORD PTR [rdi+32]

; 252  : 
; 253  :                 // 
; 254  :                 if (v_bit_count > ((__UNIT_TYPE)-1 - __UNIT_TYPE_BIT_COUNT) / e)

  0007a	33 d2		 xor	 edx, edx
  0007c	48 c7 c0 bf ff
	ff ff		 mov	 rax, -65		; ffffffffffffffbfH
  00083	49 f7 f4	 div	 r12
  00086	48 3b f0	 cmp	 rsi, rax
  00089	0f 87 b8 01 00
	00		 ja	 $LN42@PMC_Pow_X_

; 256  : 
; 257  :                 __UNIT_TYPE work_bit_count = v_bit_count * e + __UNIT_TYPE_BIT_COUNT;

  0008f	49 0f af f4	 imul	 rsi, r12
  00093	48 83 c6 40	 add	 rsi, 64			; 00000040H

; 258  : 
; 259  :                 __UNIT_TYPE* work1_buf = root.AllocateBlock(work_bit_count);

  00097	48 8b d6	 mov	 rdx, rsi
  0009a	48 8d 4c 24 48	 lea	 rcx, QWORD PTR root$1[rsp]
  0009f	e8 00 00 00 00	 call	 ?AllocateBlock@ResourceHolderUINT@Internal@Core@Math@Palmtree@@QEAAPEA_K_K@Z ; Palmtree::Math::Core::Internal::ResourceHolderUINT::AllocateBlock
  000a4	4c 8b f8	 mov	 r15, rax
  000a7	48 89 44 24 38	 mov	 QWORD PTR work1_buf$1$[rsp], rax

; 260  :                 __UNIT_TYPE* work2_buf = root.AllocateBlock(work_bit_count);

  000ac	48 8b d6	 mov	 rdx, rsi
  000af	48 8d 4c 24 48	 lea	 rcx, QWORD PTR root$1[rsp]
  000b4	e8 00 00 00 00	 call	 ?AllocateBlock@ResourceHolderUINT@Internal@Core@Math@Palmtree@@QEAAPEA_K_K@Z ; Palmtree::Math::Core::Internal::ResourceHolderUINT::AllocateBlock
  000b9	48 8b d8	 mov	 rbx, rax
  000bc	48 89 44 24 40	 mov	 QWORD PTR work2_buf$1$[rsp], rax

; 261  :                 NUMBER_HEADER* r = root.AllocateNumber(work_bit_count);

  000c1	48 8b d6	 mov	 rdx, rsi
  000c4	48 8d 4c 24 48	 lea	 rcx, QWORD PTR root$1[rsp]
  000c9	e8 00 00 00 00	 call	 ?AllocateNumber@ResourceHolderUINT@Internal@Core@Math@Palmtree@@QEAAPEAU__tag_NUMBER_HEADER@2345@_K@Z ; Palmtree::Math::Core::Internal::ResourceHolderUINT::AllocateNumber
  000ce	4c 8b e8	 mov	 r13, rax
  000d1	48 89 84 24 08
	01 00 00	 mov	 QWORD PTR r$1$[rsp], rax

; 262  :                 Pow_X_L_Imp(v->BLOCK, v->UNIT_WORD_COUNT, e, work1_buf, work2_buf, r->BLOCK);

  000d9	48 8b 40 40	 mov	 rax, QWORD PTR [rax+64]
  000dd	48 89 44 24 30	 mov	 QWORD PTR r_buf$1$[rsp], rax
  000e2	4c 8b 47 18	 mov	 r8, QWORD PTR [rdi+24]
  000e6	4c 89 84 24 f0
	00 00 00	 mov	 QWORD PTR v_buf_count$1$[rsp], r8
  000ee	48 8b 47 40	 mov	 rax, QWORD PTR [rdi+64]
  000f2	48 89 84 24 00
	01 00 00	 mov	 QWORD PTR v_buf$1$[rsp], rax
; File z:\sources\lunor\repos\rougemeilland\palmtree.math.core.uint\palmtree.math.core.uint\pmc_inline_func.h

; 442  :             _BitScanReverse64(&pos, x);

  000fa	49 0f bd cc	 bsr	 rcx, r12

; 443  : #elif defined(__GNUC__)
; 444  :             _UINT64_T pos;
; 445  :             __asm__("bsrq %1, %0" : "=r"(pos) : "rm"(x));
; 446  : #else
; 447  : #error unknown compiler
; 448  : #endif
; 449  :             return (sizeof(x) * 8 - 1 - pos);

  000fe	ba 3f 00 00 00	 mov	 edx, 63			; 0000003fH
  00103	2b d1		 sub	 edx, ecx
; File z:\sources\lunor\repos\rougemeilland\palmtree.math.core.uint\palmtree.math.core.uint\pmc_pow.cpp

; 161  :         __UNIT_TYPE* u_ptr = work1_buf;

  00105	49 8b ef	 mov	 rbp, r15

; 162  :         __UNIT_TYPE* v_ptr = v_buf;
; 163  :         __UNIT_TYPE* w_ptr = work2_buf;

  00108	4c 8b f3	 mov	 r14, rbx

; 164  :         __UNIT_TYPE u_count = v_buf_count;

  0010b	49 8b d8	 mov	 rbx, r8
; File z:\sources\lunor\repos\rougemeilland\palmtree.math.core.uint\palmtree.math.core.uint\pmc_inline_func.h

; 67   :             __movsq(d, s, count);

  0010e	49 8b ff	 mov	 rdi, r15
  00111	48 8b f0	 mov	 rsi, rax
  00114	49 8b c8	 mov	 rcx, r8
  00117	f3 48 a5	 rep movsq
; File z:\sources\lunor\repos\rougemeilland\palmtree.math.core.uint\palmtree.math.core.uint\pmc_pow.cpp

; 157  :         _UINT64_T e_mask = _rotr64(1, _LZCNT_ALT_64(e) + 1);

  0011a	8d 4a 01	 lea	 ecx, DWORD PTR [rdx+1]
  0011d	41 bf 01 00 00
	00		 mov	 r15d, 1
  00123	49 d3 cf	 ror	 r15, cl

; 165  :         __UNIT_TYPE v_count = v_buf_count;
; 166  :         _COPY_MEMORY_UNIT(work1_buf, v_buf, v_buf_count);
; 167  :         e_mask >>= 1;

  00126	49 d1 ef	 shr	 r15, 1

; 168  :         while (e_mask != 0)

  00129	0f 84 a1 00 00
	00		 je	 $LN17@PMC_Pow_X_
  0012f	90		 npad	 1
$LL16@PMC_Pow_X_:

; 169  :         {
; 170  :             // u  w 
; 171  :             _ZERO_MEMORY_UNIT(w_ptr, u_count * 2);

  00130	4d 8b ef	 mov	 r13, r15
  00133	48 8d 34 1b	 lea	 rsi, QWORD PTR [rbx+rbx]
; File z:\sources\lunor\repos\rougemeilland\palmtree.math.core.uint\palmtree.math.core.uint\pmc_inline_func.h

; 100  :             __stosq(d, 0, count);

  00137	49 8b fe	 mov	 rdi, r14
  0013a	33 c0		 xor	 eax, eax
  0013c	48 8b ce	 mov	 rcx, rsi
  0013f	f3 48 ab	 rep stosq
; File z:\sources\lunor\repos\rougemeilland\palmtree.math.core.uint\palmtree.math.core.uint\pmc_pow.cpp

; 172  :             Multiply_X_X_Imp(u_ptr, u_count, u_ptr, u_count, w_ptr);

  00142	4c 89 74 24 20	 mov	 QWORD PTR [rsp+32], r14
  00147	4c 8b cb	 mov	 r9, rbx
  0014a	4c 8b c5	 mov	 r8, rbp
  0014d	48 8b d3	 mov	 rdx, rbx
  00150	48 8b cd	 mov	 rcx, rbp
  00153	e8 00 00 00 00	 call	 ?Multiply_X_X_Imp@Internal@Core@Math@Palmtree@@YAXPEA_K_K010@Z ; Palmtree::Math::Core::Internal::Multiply_X_X_Imp

; 173  :             u_count *= 2;
; 174  :             if (w_ptr[u_count - 1] == 0)

  00158	48 03 db	 add	 rbx, rbx

; 175  :                 --u_count;
; 176  : 
; 177  :             // e  bit 
; 178  :             if (e & e_mask)

  0015b	49 8b 44 de f8	 mov	 rax, QWORD PTR [r14+rbx*8-8]
  00160	48 8d 5e ff	 lea	 rbx, QWORD PTR [rsi-1]
  00164	48 85 c0	 test	 rax, rax
  00167	48 0f 45 de	 cmovne	 rbx, rsi
  0016b	4d 85 fc	 test	 r15, r12
  0016e	74 42		 je	 SHORT $LN19@PMC_Pow_X_

; 179  :             {
; 180  :                 // bit  u = w * v 
; 181  :                 _ZERO_MEMORY_UNIT(u_ptr, u_count + v_count);

  00170	48 8b 94 24 f0
	00 00 00	 mov	 rdx, QWORD PTR v_buf_count$1$[rsp]
  00178	48 8d 34 13	 lea	 rsi, QWORD PTR [rbx+rdx]
; File z:\sources\lunor\repos\rougemeilland\palmtree.math.core.uint\palmtree.math.core.uint\pmc_inline_func.h

; 100  :             __stosq(d, 0, count);

  0017c	48 8b fd	 mov	 rdi, rbp
  0017f	33 c0		 xor	 eax, eax
  00181	48 8b ce	 mov	 rcx, rsi
  00184	f3 48 ab	 rep stosq
; File z:\sources\lunor\repos\rougemeilland\palmtree.math.core.uint\palmtree.math.core.uint\pmc_pow.cpp

; 182  :                 Multiply_X_X_Imp(w_ptr, u_count, v_ptr, v_count, u_ptr);

  00187	48 89 6c 24 20	 mov	 QWORD PTR [rsp+32], rbp
  0018c	4c 8b ca	 mov	 r9, rdx
  0018f	4c 8b 84 24 00
	01 00 00	 mov	 r8, QWORD PTR v_buf$1$[rsp]
  00197	48 8b d3	 mov	 rdx, rbx
  0019a	49 8b ce	 mov	 rcx, r14
  0019d	e8 00 00 00 00	 call	 ?Multiply_X_X_Imp@Internal@Core@Math@Palmtree@@YAXPEA_K_K010@Z ; Palmtree::Math::Core::Internal::Multiply_X_X_Imp

; 183  :                 u_count += v_count;
; 184  :                 if (u_ptr[u_count - 1] == 0)
; 185  :                     --u_count;
; 186  :             }
; 187  :             else

  001a2	48 8d 5e ff	 lea	 rbx, QWORD PTR [rsi-1]
  001a6	48 83 7c f5 f8
	00		 cmp	 QWORD PTR [rbp+rsi*8-8], 0
  001ac	48 0f 45 de	 cmovne	 rbx, rsi
  001b0	eb 09		 jmp	 SHORT $LN20@PMC_Pow_X_
$LN19@PMC_Pow_X_:

; 188  :             {
; 189  :                 // u  w 
; 190  :                 __UNIT_TYPE* t_ptr = u_ptr;

  001b2	48 8b c5	 mov	 rax, rbp

; 191  :                 u_ptr = w_ptr;

  001b5	49 8b ee	 mov	 rbp, r14

; 192  :                 w_ptr = t_ptr;

  001b8	4c 8b f0	 mov	 r14, rax
$LN20@PMC_Pow_X_:

; 193  :             }
; 194  : 
; 195  :             e_mask >>= 1;

  001bb	49 d1 ef	 shr	 r15, 1

; 168  :         while (e_mask != 0)

  001be	49 83 fd 02	 cmp	 r13, 2
  001c2	0f 83 68 ff ff
	ff		 jae	 $LL16@PMC_Pow_X_
  001c8	4c 8b ac 24 08
	01 00 00	 mov	 r13, QWORD PTR r$1$[rsp]
$LN17@PMC_Pow_X_:
; File z:\sources\lunor\repos\rougemeilland\palmtree.math.core.uint\palmtree.math.core.uint\pmc_inline_func.h

; 67   :             __movsq(d, s, count);

  001d0	48 8b 7c 24 30	 mov	 rdi, QWORD PTR r_buf$1$[rsp]
  001d5	48 8b f5	 mov	 rsi, rbp
  001d8	48 8b cb	 mov	 rcx, rbx
  001db	f3 48 a5	 rep movsq
; File z:\sources\lunor\repos\rougemeilland\palmtree.math.core.uint\palmtree.math.core.uint\pmc_pow.cpp

; 263  :                 root.CheckBlock(work1_buf);

  001de	48 8b 54 24 38	 mov	 rdx, QWORD PTR work1_buf$1$[rsp]
  001e3	48 8d 4c 24 48	 lea	 rcx, QWORD PTR root$1[rsp]
  001e8	e8 00 00 00 00	 call	 ?CheckBlock@ResourceHolderUINT@Internal@Core@Math@Palmtree@@QEAAXPEA_K@Z ; Palmtree::Math::Core::Internal::ResourceHolderUINT::CheckBlock

; 264  :                 root.CheckBlock(work2_buf);

  001ed	48 8b 54 24 40	 mov	 rdx, QWORD PTR work2_buf$1$[rsp]
  001f2	48 8d 4c 24 48	 lea	 rcx, QWORD PTR root$1[rsp]
  001f7	e8 00 00 00 00	 call	 ?CheckBlock@ResourceHolderUINT@Internal@Core@Math@Palmtree@@QEAAXPEA_K@Z ; Palmtree::Math::Core::Internal::ResourceHolderUINT::CheckBlock

; 265  :                 root.CheckNumber(r);

  001fc	49 8b d5	 mov	 rdx, r13
  001ff	48 8d 4c 24 48	 lea	 rcx, QWORD PTR root$1[rsp]
  00204	e8 00 00 00 00	 call	 ?CheckNumber@ResourceHolderUINT@Internal@Core@Math@Palmtree@@QEAAXPEAU__tag_NUMBER_HEADER@2345@@Z ; Palmtree::Math::Core::Internal::ResourceHolderUINT::CheckNumber

; 266  :                 CommitNumber(r);

  00209	49 8b cd	 mov	 rcx, r13
  0020c	e8 00 00 00 00	 call	 ?CommitNumber@Internal@Core@Math@Palmtree@@YAXPEAU__tag_NUMBER_HEADER@1234@@Z ; Palmtree::Math::Core::Internal::CommitNumber

; 267  :                 root.UnlinkNumber(r);

  00211	49 8b d5	 mov	 rdx, r13
  00214	48 8d 4c 24 48	 lea	 rcx, QWORD PTR root$1[rsp]
  00219	e8 00 00 00 00	 call	 ?UnlinkNumber@ResourceHolderUINT@Internal@Core@Math@Palmtree@@QEAAXPEAU__tag_NUMBER_HEADER@2345@@Z ; Palmtree::Math::Core::Internal::ResourceHolderUINT::UnlinkNumber
  0021e	90		 npad	 1

; 268  :                 return (r);

  0021f	48 8d 4c 24 48	 lea	 rcx, QWORD PTR root$1[rsp]
  00224	e8 00 00 00 00	 call	 ??1ResourceHolderUINT@Internal@Core@Math@Palmtree@@UEAA@XZ ; Palmtree::Math::Core::Internal::ResourceHolderUINT::~ResourceHolderUINT
  00229	49 8b c5	 mov	 rax, r13
$LN11@PMC_Pow_X_:

; 269  :             }
; 270  :         }
; 271  :     }

  0022c	48 8b 9c 24 f8
	00 00 00	 mov	 rbx, QWORD PTR [rsp+248]
  00234	48 81 c4 b0 00
	00 00		 add	 rsp, 176		; 000000b0H
  0023b	41 5f		 pop	 r15
  0023d	41 5e		 pop	 r14
  0023f	41 5d		 pop	 r13
  00241	41 5c		 pop	 r12
  00243	5f		 pop	 rdi
  00244	5e		 pop	 rsi
  00245	5d		 pop	 rbp
  00246	c3		 ret	 0
$LN42@PMC_Pow_X_:

; 255  :                     throw OverflowException(L"");

  00247	48 8d 15 00 00
	00 00		 lea	 rdx, OFFSET FLAT:??_C@_1CM@JEKMNCAI@?$PP?$KK?$PP?$PM?$PP?P?$PP?$PM?$PP?U?$PP?m?$PP?$PM?$AAk?$PP?$II?$PP?$IK?$AA?$AI?$PP?$JH?$PP?$JC?$PP?$JK?$AAL@
  0024e	48 8d 8c 24 80
	00 00 00	 lea	 rcx, QWORD PTR $T4[rsp]
  00256	e8 00 00 00 00	 call	 ??0OverflowException@Internal@Core@Math@Palmtree@@QEAA@PEB_W@Z ; Palmtree::Math::Core::Internal::OverflowException::OverflowException
  0025b	48 8d 15 00 00
	00 00		 lea	 rdx, OFFSET FLAT:_TI2?AVOverflowException@Internal@Core@Math@Palmtree@@
  00262	48 8d 8c 24 80
	00 00 00	 lea	 rcx, QWORD PTR $T4[rsp]
  0026a	e8 00 00 00 00	 call	 _CxxThrowException
  0026f	90		 npad	 1
$LN41@PMC_Pow_X_:

; 207  :             {
; 208  :                 // e  0 
; 209  : 
; 210  :                 // 0  0 
; 211  :                 throw ArithmeticException(L"00");

  00270	48 8d 15 00 00
	00 00		 lea	 rdx, OFFSET FLAT:??_C@_1BM@OCOOKOCJ@?$AA0?$AAn?$AA0?$AAW?$AAn?$AA$?$AAo?$AA?$CK?$PP?$JK?$PP?$KJ?$AAg?$AAY?$AA?$AC@
  00277	48 8d 4c 24 48	 lea	 rcx, QWORD PTR $T2[rsp]
  0027c	e8 00 00 00 00	 call	 ??0ArithmeticException@Internal@Core@Math@Palmtree@@QEAA@PEB_W@Z ; Palmtree::Math::Core::Internal::ArithmeticException::ArithmeticException
  00281	48 8d 15 00 00
	00 00		 lea	 rdx, OFFSET FLAT:_TI2?AVArithmeticException@Internal@Core@Math@Palmtree@@
  00288	48 8d 4c 24 48	 lea	 rcx, QWORD PTR $T2[rsp]
  0028d	e8 00 00 00 00	 call	 _CxxThrowException
  00292	cc		 int	 3
$LN38@PMC_Pow_X_:
?PMC_Pow_X_L_Imp@Internal@Core@Math@Palmtree@@YAPEAU__tag_NUMBER_HEADER@1234@PEAU51234@_K@Z ENDP ; Palmtree::Math::Core::Internal::PMC_Pow_X_L_Imp
_TEXT	ENDS
;	COMDAT text$x
text$x	SEGMENT
r_buf$1$ = 48
work1_buf$1$ = 56
work2_buf$1$ = 64
root$1 = 72
$T2 = 72
$T3 = 120
$T4 = 128
v_buf_count$1$ = 240
v$ = 240
e$ = 248
v_buf$1$ = 256
r$1$ = 264
?dtor$0@?0??PMC_Pow_X_L_Imp@Internal@Core@Math@Palmtree@@YAPEAU__tag_NUMBER_HEADER@1234@PEAU51234@_K@Z@4HA PROC ; `Palmtree::Math::Core::Internal::PMC_Pow_X_L_Imp'::`1'::dtor$0
  00000	48 8d 8a 48 00
	00 00		 lea	 rcx, QWORD PTR root$1[rdx]
  00007	e9 00 00 00 00	 jmp	 ??1ResourceHolderUINT@Internal@Core@Math@Palmtree@@UEAA@XZ ; Palmtree::Math::Core::Internal::ResourceHolderUINT::~ResourceHolderUINT
?dtor$0@?0??PMC_Pow_X_L_Imp@Internal@Core@Math@Palmtree@@YAPEAU__tag_NUMBER_HEADER@1234@PEAU51234@_K@Z@4HA ENDP ; `Palmtree::Math::Core::Internal::PMC_Pow_X_L_Imp'::`1'::dtor$0
text$x	ENDS
; Function compile flags: /Ogtpy
;	COMDAT text$x
text$x	SEGMENT
r_buf$1$ = 48
work1_buf$1$ = 56
work2_buf$1$ = 64
root$1 = 72
$T2 = 72
$T3 = 120
$T4 = 128
v_buf_count$1$ = 240
v$ = 240
e$ = 248
v_buf$1$ = 256
r$1$ = 264
?dtor$0@?0??PMC_Pow_X_L_Imp@Internal@Core@Math@Palmtree@@YAPEAU__tag_NUMBER_HEADER@1234@PEAU51234@_K@Z@4HA PROC ; `Palmtree::Math::Core::Internal::PMC_Pow_X_L_Imp'::`1'::dtor$0
  00000	48 8d 8a 48 00
	00 00		 lea	 rcx, QWORD PTR root$1[rdx]
  00007	e9 00 00 00 00	 jmp	 ??1ResourceHolderUINT@Internal@Core@Math@Palmtree@@UEAA@XZ ; Palmtree::Math::Core::Internal::ResourceHolderUINT::~ResourceHolderUINT
?dtor$0@?0??PMC_Pow_X_L_Imp@Internal@Core@Math@Palmtree@@YAPEAU__tag_NUMBER_HEADER@1234@PEAU51234@_K@Z@4HA ENDP ; `Palmtree::Math::Core::Internal::PMC_Pow_X_L_Imp'::`1'::dtor$0
text$x	ENDS
; Function compile flags: /Ogtpy
; File z:\sources\lunor\repos\rougemeilland\palmtree.math.core.uint\palmtree.math.core.uint\pmc_pow.cpp
; File z:\sources\lunor\repos\rougemeilland\palmtree.math.core.uint\palmtree.math.core.uint\pmc_inline_func.h
; File z:\sources\lunor\repos\rougemeilland\palmtree.math.core.uint\palmtree.math.core.uint\pmc_pow.cpp
; File z:\sources\lunor\repos\rougemeilland\palmtree.math.core.uint\palmtree.math.core.uint\pmc_inline_func.h
; File z:\sources\lunor\repos\rougemeilland\palmtree.math.core.uint\palmtree.math.core.uint\pmc_pow.cpp
; File z:\sources\lunor\repos\rougemeilland\palmtree.math.core.uint\palmtree.math.core.uint\pmc_inline_func.h
; File z:\sources\lunor\repos\rougemeilland\palmtree.math.core.uint\palmtree.math.core.uint\pmc_pow.cpp
; File z:\sources\lunor\repos\rougemeilland\palmtree.math.core.uint\palmtree.math.core.uint\pmc_inline_func.h
; File z:\sources\lunor\repos\rougemeilland\palmtree.math.core.uint\palmtree.math.core.uint\pmc_pow.cpp
; File z:\sources\lunor\repos\rougemeilland\palmtree.math.core.uint\palmtree.math.core.uint\pmc_inline_func.h
; File z:\sources\lunor\repos\rougemeilland\palmtree.math.core.uint\palmtree.math.core.uint\pmc_pow.cpp
;	COMDAT ?PMC_Pow_X_I_Imp@Internal@Core@Math@Palmtree@@YAPEAU__tag_NUMBER_HEADER@1234@PEAU51234@I@Z
_TEXT	SEGMENT
r_buf$1$ = 48
work1_buf$1$ = 56
work2_buf$1$ = 64
root$1 = 72
$T2 = 72
$T3 = 120
$T4 = 128
v_buf_count$1$ = 240
v$ = 240
e$ = 248
v_buf$1$ = 256
r$1$ = 264
?PMC_Pow_X_I_Imp@Internal@Core@Math@Palmtree@@YAPEAU__tag_NUMBER_HEADER@1234@PEAU51234@I@Z PROC ; Palmtree::Math::Core::Internal::PMC_Pow_X_I_Imp, COMDAT

; 82   :     {

$LN44:
  00000	40 55		 push	 rbp
  00002	56		 push	 rsi
  00003	57		 push	 rdi
  00004	41 54		 push	 r12
  00006	41 55		 push	 r13
  00008	41 56		 push	 r14
  0000a	41 57		 push	 r15
  0000c	48 81 ec b0 00
	00 00		 sub	 rsp, 176		; 000000b0H
  00013	48 c7 44 24 78
	fe ff ff ff	 mov	 QWORD PTR $T3[rsp], -2
  0001c	48 89 9c 24 f8
	00 00 00	 mov	 QWORD PTR [rsp+248], rbx
  00024	44 8b e2	 mov	 r12d, edx
  00027	48 8b f9	 mov	 rdi, rcx

; 83   :         if (v->IS_ZERO)

  0002a	8b 41 08	 mov	 eax, DWORD PTR [rcx+8]
  0002d	a8 01		 test	 al, 1
  0002f	74 14		 je	 SHORT $LN2@PMC_Pow_X_

; 84   :         {
; 85   :             // v  0 
; 86   : 
; 87   :             if (e == 0)

  00031	85 d2		 test	 edx, edx
  00033	0f 84 37 02 00
	00		 je	 $LN41@PMC_Pow_X_

; 93   :             }
; 94   :             else
; 95   :             {
; 96   :                 // e  0 
; 97   : 
; 98   :                 return (&number_zero);

  00039	48 8d 05 00 00
	00 00		 lea	 rax, OFFSET FLAT:?number_zero@Internal@Core@Math@Palmtree@@3U__tag_NUMBER_HEADER@1234@A ; Palmtree::Math::Core::Internal::number_zero
  00040	e9 e7 01 00 00	 jmp	 $LN11@PMC_Pow_X_
$LN2@PMC_Pow_X_:

; 99   :             }
; 100  :         }
; 101  :         else if (v->IS_ONE)

  00045	a8 02		 test	 al, 2
  00047	74 0c		 je	 SHORT $LN6@PMC_Pow_X_
$LN39@PMC_Pow_X_:

; 150  :             }
; 151  :         }
; 152  :     }

  00049	48 8d 05 00 00
	00 00		 lea	 rax, OFFSET FLAT:?number_one@Internal@Core@Math@Palmtree@@3U__tag_NUMBER_HEADER@1234@A ; Palmtree::Math::Core::Internal::number_one
  00050	e9 d7 01 00 00	 jmp	 $LN11@PMC_Pow_X_
$LN6@PMC_Pow_X_:

; 102  :         {
; 103  :             // v  1 
; 104  : 
; 105  :             // e  1 
; 106  :             return (&number_one);
; 107  :         }
; 108  :         else
; 109  :         {
; 110  :             // v  2 
; 111  : 
; 112  :             if (e == 0)

  00055	85 d2		 test	 edx, edx
  00057	74 f0		 je	 SHORT $LN39@PMC_Pow_X_

; 113  :             {
; 114  :                 // e  0 
; 115  : 
; 116  :                 //  1 
; 117  :                 return (&number_one);
; 118  :             }
; 119  :             else if (e == 1)

  00059	41 83 fc 01	 cmp	 r12d, 1
  0005d	75 0a		 jne	 SHORT $LN10@PMC_Pow_X_

; 120  :             {
; 121  :                 // e  1 
; 122  : 
; 123  :                 //  v 
; 124  :                 return (DuplicateNumber(v));

  0005f	e8 00 00 00 00	 call	 ?DuplicateNumber@Internal@Core@Math@Palmtree@@YAPEAU__tag_NUMBER_HEADER@1234@PEAU51234@@Z ; Palmtree::Math::Core::Internal::DuplicateNumber
  00064	e9 c3 01 00 00	 jmp	 $LN11@PMC_Pow_X_
$LN10@PMC_Pow_X_:

; 125  :             }
; 126  :             else
; 127  :             {
; 128  :                 // v  e  2 
; 129  : 
; 130  :                 // v  e 
; 131  :                 ResourceHolderUINT root;

  00069	48 8d 4c 24 48	 lea	 rcx, QWORD PTR root$1[rsp]
  0006e	e8 00 00 00 00	 call	 ??0ResourceHolderUINT@Internal@Core@Math@Palmtree@@QEAA@XZ ; Palmtree::Math::Core::Internal::ResourceHolderUINT::ResourceHolderUINT
  00073	90		 npad	 1

; 132  :                 __UNIT_TYPE v_bit_count = v->UNIT_BIT_COUNT;

  00074	48 8b 4f 20	 mov	 rcx, QWORD PTR [rdi+32]

; 133  : 
; 134  :                 // 
; 135  :                 if (v_bit_count > ((__UNIT_TYPE)-1 - __UNIT_TYPE_BIT_COUNT) / e)

  00078	49 8b f4	 mov	 rsi, r12
  0007b	33 d2		 xor	 edx, edx
  0007d	48 c7 c0 bf ff
	ff ff		 mov	 rax, -65		; ffffffffffffffbfH
  00084	49 f7 f4	 div	 r12
  00087	48 3b c8	 cmp	 rcx, rax
  0008a	0f 87 b7 01 00
	00		 ja	 $LN42@PMC_Pow_X_

; 137  : 
; 138  :                 __UNIT_TYPE work_bit_count = v_bit_count * e + __UNIT_TYPE_BIT_COUNT;

  00090	48 0f af f1	 imul	 rsi, rcx
  00094	48 83 c6 40	 add	 rsi, 64			; 00000040H

; 139  : 
; 140  :                 __UNIT_TYPE* work1_buf = root.AllocateBlock(work_bit_count);

  00098	48 8b d6	 mov	 rdx, rsi
  0009b	48 8d 4c 24 48	 lea	 rcx, QWORD PTR root$1[rsp]
  000a0	e8 00 00 00 00	 call	 ?AllocateBlock@ResourceHolderUINT@Internal@Core@Math@Palmtree@@QEAAPEA_K_K@Z ; Palmtree::Math::Core::Internal::ResourceHolderUINT::AllocateBlock
  000a5	4c 8b f8	 mov	 r15, rax
  000a8	48 89 44 24 38	 mov	 QWORD PTR work1_buf$1$[rsp], rax

; 141  :                 __UNIT_TYPE* work2_buf = root.AllocateBlock(work_bit_count);

  000ad	48 8b d6	 mov	 rdx, rsi
  000b0	48 8d 4c 24 48	 lea	 rcx, QWORD PTR root$1[rsp]
  000b5	e8 00 00 00 00	 call	 ?AllocateBlock@ResourceHolderUINT@Internal@Core@Math@Palmtree@@QEAAPEA_K_K@Z ; Palmtree::Math::Core::Internal::ResourceHolderUINT::AllocateBlock
  000ba	48 8b d8	 mov	 rbx, rax
  000bd	48 89 44 24 40	 mov	 QWORD PTR work2_buf$1$[rsp], rax

; 142  :                 NUMBER_HEADER* r = root.AllocateNumber(work_bit_count);

  000c2	48 8b d6	 mov	 rdx, rsi
  000c5	48 8d 4c 24 48	 lea	 rcx, QWORD PTR root$1[rsp]
  000ca	e8 00 00 00 00	 call	 ?AllocateNumber@ResourceHolderUINT@Internal@Core@Math@Palmtree@@QEAAPEAU__tag_NUMBER_HEADER@2345@_K@Z ; Palmtree::Math::Core::Internal::ResourceHolderUINT::AllocateNumber
  000cf	4c 8b e8	 mov	 r13, rax
  000d2	48 89 84 24 08
	01 00 00	 mov	 QWORD PTR r$1$[rsp], rax

; 143  :                 Pow_X_I_Imp(v->BLOCK, v->UNIT_WORD_COUNT, e, work1_buf, work2_buf, r->BLOCK);

  000da	48 8b 40 40	 mov	 rax, QWORD PTR [rax+64]
  000de	48 89 44 24 30	 mov	 QWORD PTR r_buf$1$[rsp], rax
  000e3	4c 8b 47 18	 mov	 r8, QWORD PTR [rdi+24]
  000e7	4c 89 84 24 f0
	00 00 00	 mov	 QWORD PTR v_buf_count$1$[rsp], r8
  000ef	48 8b 47 40	 mov	 rax, QWORD PTR [rdi+64]
  000f3	48 89 84 24 00
	01 00 00	 mov	 QWORD PTR v_buf$1$[rsp], rax
; File z:\sources\lunor\repos\rougemeilland\palmtree.math.core.uint\palmtree.math.core.uint\pmc_inline_func.h

; 426  :             _BitScanReverse(&pos, x);

  000fb	41 0f bd cc	 bsr	 ecx, r12d

; 427  : #elif defined(__GNUC__)
; 428  :             __asm__("bsrl %1, %0" : "=r"(pos) : "rm"(x));
; 429  : #else
; 430  : #error unknown compiler
; 431  : #endif
; 432  :             return (sizeof(x) * 8 - 1 - pos);

  000ff	ba 1f 00 00 00	 mov	 edx, 31
  00104	2b d1		 sub	 edx, ecx
; File z:\sources\lunor\repos\rougemeilland\palmtree.math.core.uint\palmtree.math.core.uint\pmc_pow.cpp

; 42   :         __UNIT_TYPE* u_ptr = work1_buf;

  00106	49 8b ef	 mov	 rbp, r15

; 43   :         __UNIT_TYPE* v_ptr = v_buf;
; 44   :         __UNIT_TYPE* w_ptr = work2_buf;

  00109	4c 8b f3	 mov	 r14, rbx

; 45   :         __UNIT_TYPE u_count = v_buf_count;

  0010c	49 8b d8	 mov	 rbx, r8
; File z:\sources\lunor\repos\rougemeilland\palmtree.math.core.uint\palmtree.math.core.uint\pmc_inline_func.h

; 67   :             __movsq(d, s, count);

  0010f	49 8b ff	 mov	 rdi, r15
  00112	48 8b f0	 mov	 rsi, rax
  00115	49 8b c8	 mov	 rcx, r8
  00118	f3 48 a5	 rep movsq
; File z:\sources\lunor\repos\rougemeilland\palmtree.math.core.uint\palmtree.math.core.uint\pmc_pow.cpp

; 38   :         _UINT32_T e_mask = _rotr(1, _LZCNT_ALT_32(e) + 1);

  0011b	8d 4a 01	 lea	 ecx, DWORD PTR [rdx+1]
  0011e	41 bf 01 00 00
	00		 mov	 r15d, 1
  00124	41 d3 cf	 ror	 r15d, cl

; 46   :         __UNIT_TYPE v_count = v_buf_count;
; 47   :         _COPY_MEMORY_UNIT(work1_buf, v_buf, v_buf_count);
; 48   :         e_mask >>= 1;

  00127	41 d1 ef	 shr	 r15d, 1

; 49   :         while (e_mask != 0)

  0012a	0f 84 a0 00 00
	00		 je	 $LN17@PMC_Pow_X_
$LL16@PMC_Pow_X_:

; 50   :         {
; 51   :             // u  w 
; 52   :             _ZERO_MEMORY_UNIT(w_ptr, u_count * 2);

  00130	45 8b ef	 mov	 r13d, r15d
  00133	48 8d 34 1b	 lea	 rsi, QWORD PTR [rbx+rbx]
; File z:\sources\lunor\repos\rougemeilland\palmtree.math.core.uint\palmtree.math.core.uint\pmc_inline_func.h

; 100  :             __stosq(d, 0, count);

  00137	49 8b fe	 mov	 rdi, r14
  0013a	33 c0		 xor	 eax, eax
  0013c	48 8b ce	 mov	 rcx, rsi
  0013f	f3 48 ab	 rep stosq
; File z:\sources\lunor\repos\rougemeilland\palmtree.math.core.uint\palmtree.math.core.uint\pmc_pow.cpp

; 53   :             Multiply_X_X_Imp(u_ptr, u_count, u_ptr, u_count, w_ptr);

  00142	4c 89 74 24 20	 mov	 QWORD PTR [rsp+32], r14
  00147	4c 8b cb	 mov	 r9, rbx
  0014a	4c 8b c5	 mov	 r8, rbp
  0014d	48 8b d3	 mov	 rdx, rbx
  00150	48 8b cd	 mov	 rcx, rbp
  00153	e8 00 00 00 00	 call	 ?Multiply_X_X_Imp@Internal@Core@Math@Palmtree@@YAXPEA_K_K010@Z ; Palmtree::Math::Core::Internal::Multiply_X_X_Imp

; 54   :             u_count *= 2;
; 55   :             if (w_ptr[u_count - 1] == 0)

  00158	48 03 db	 add	 rbx, rbx

; 56   :                 --u_count;
; 57   : 
; 58   :             // e  bit 
; 59   :             if (e & e_mask)

  0015b	49 8b 44 de f8	 mov	 rax, QWORD PTR [r14+rbx*8-8]
  00160	48 8d 5e ff	 lea	 rbx, QWORD PTR [rsi-1]
  00164	48 85 c0	 test	 rax, rax
  00167	48 0f 45 de	 cmovne	 rbx, rsi
  0016b	45 85 fc	 test	 r15d, r12d
  0016e	74 42		 je	 SHORT $LN19@PMC_Pow_X_

; 60   :             {
; 61   :                 // bit  u = w * v 
; 62   :                 _ZERO_MEMORY_UNIT(u_ptr, u_count + v_count);

  00170	48 8b 94 24 f0
	00 00 00	 mov	 rdx, QWORD PTR v_buf_count$1$[rsp]
  00178	48 8d 34 13	 lea	 rsi, QWORD PTR [rbx+rdx]
; File z:\sources\lunor\repos\rougemeilland\palmtree.math.core.uint\palmtree.math.core.uint\pmc_inline_func.h

; 100  :             __stosq(d, 0, count);

  0017c	48 8b fd	 mov	 rdi, rbp
  0017f	33 c0		 xor	 eax, eax
  00181	48 8b ce	 mov	 rcx, rsi
  00184	f3 48 ab	 rep stosq
; File z:\sources\lunor\repos\rougemeilland\palmtree.math.core.uint\palmtree.math.core.uint\pmc_pow.cpp

; 63   :                 Multiply_X_X_Imp(w_ptr, u_count, v_ptr, v_count, u_ptr);

  00187	48 89 6c 24 20	 mov	 QWORD PTR [rsp+32], rbp
  0018c	4c 8b ca	 mov	 r9, rdx
  0018f	4c 8b 84 24 00
	01 00 00	 mov	 r8, QWORD PTR v_buf$1$[rsp]
  00197	48 8b d3	 mov	 rdx, rbx
  0019a	49 8b ce	 mov	 rcx, r14
  0019d	e8 00 00 00 00	 call	 ?Multiply_X_X_Imp@Internal@Core@Math@Palmtree@@YAXPEA_K_K010@Z ; Palmtree::Math::Core::Internal::Multiply_X_X_Imp

; 64   :                 u_count += v_count;
; 65   :                 if (u_ptr[u_count - 1] == 0)
; 66   :                     --u_count;
; 67   :             }
; 68   :             else

  001a2	48 8d 5e ff	 lea	 rbx, QWORD PTR [rsi-1]
  001a6	48 83 7c f5 f8
	00		 cmp	 QWORD PTR [rbp+rsi*8-8], 0
  001ac	48 0f 45 de	 cmovne	 rbx, rsi
  001b0	eb 09		 jmp	 SHORT $LN20@PMC_Pow_X_
$LN19@PMC_Pow_X_:

; 69   :             {
; 70   :                 // u  w 
; 71   :                 __UNIT_TYPE* t_ptr = u_ptr;

  001b2	48 8b c5	 mov	 rax, rbp

; 72   :                 u_ptr = w_ptr;

  001b5	49 8b ee	 mov	 rbp, r14

; 73   :                 w_ptr = t_ptr;

  001b8	4c 8b f0	 mov	 r14, rax
$LN20@PMC_Pow_X_:

; 74   :             }
; 75   : 
; 76   :             e_mask >>= 1;

  001bb	41 d1 ef	 shr	 r15d, 1

; 49   :         while (e_mask != 0)

  001be	41 83 fd 02	 cmp	 r13d, 2
  001c2	0f 83 68 ff ff
	ff		 jae	 $LL16@PMC_Pow_X_
  001c8	4c 8b ac 24 08
	01 00 00	 mov	 r13, QWORD PTR r$1$[rsp]
$LN17@PMC_Pow_X_:
; File z:\sources\lunor\repos\rougemeilland\palmtree.math.core.uint\palmtree.math.core.uint\pmc_inline_func.h

; 67   :             __movsq(d, s, count);

  001d0	48 8b 7c 24 30	 mov	 rdi, QWORD PTR r_buf$1$[rsp]
  001d5	48 8b f5	 mov	 rsi, rbp
  001d8	48 8b cb	 mov	 rcx, rbx
  001db	f3 48 a5	 rep movsq
; File z:\sources\lunor\repos\rougemeilland\palmtree.math.core.uint\palmtree.math.core.uint\pmc_pow.cpp

; 144  :                 root.CheckBlock(work1_buf);

  001de	48 8b 54 24 38	 mov	 rdx, QWORD PTR work1_buf$1$[rsp]
  001e3	48 8d 4c 24 48	 lea	 rcx, QWORD PTR root$1[rsp]
  001e8	e8 00 00 00 00	 call	 ?CheckBlock@ResourceHolderUINT@Internal@Core@Math@Palmtree@@QEAAXPEA_K@Z ; Palmtree::Math::Core::Internal::ResourceHolderUINT::CheckBlock

; 145  :                 root.CheckBlock(work2_buf);

  001ed	48 8b 54 24 40	 mov	 rdx, QWORD PTR work2_buf$1$[rsp]
  001f2	48 8d 4c 24 48	 lea	 rcx, QWORD PTR root$1[rsp]
  001f7	e8 00 00 00 00	 call	 ?CheckBlock@ResourceHolderUINT@Internal@Core@Math@Palmtree@@QEAAXPEA_K@Z ; Palmtree::Math::Core::Internal::ResourceHolderUINT::CheckBlock

; 146  :                 root.CheckNumber(r);

  001fc	49 8b d5	 mov	 rdx, r13
  001ff	48 8d 4c 24 48	 lea	 rcx, QWORD PTR root$1[rsp]
  00204	e8 00 00 00 00	 call	 ?CheckNumber@ResourceHolderUINT@Internal@Core@Math@Palmtree@@QEAAXPEAU__tag_NUMBER_HEADER@2345@@Z ; Palmtree::Math::Core::Internal::ResourceHolderUINT::CheckNumber

; 147  :                 CommitNumber(r);

  00209	49 8b cd	 mov	 rcx, r13
  0020c	e8 00 00 00 00	 call	 ?CommitNumber@Internal@Core@Math@Palmtree@@YAXPEAU__tag_NUMBER_HEADER@1234@@Z ; Palmtree::Math::Core::Internal::CommitNumber

; 148  :                 root.UnlinkNumber(r);

  00211	49 8b d5	 mov	 rdx, r13
  00214	48 8d 4c 24 48	 lea	 rcx, QWORD PTR root$1[rsp]
  00219	e8 00 00 00 00	 call	 ?UnlinkNumber@ResourceHolderUINT@Internal@Core@Math@Palmtree@@QEAAXPEAU__tag_NUMBER_HEADER@2345@@Z ; Palmtree::Math::Core::Internal::ResourceHolderUINT::UnlinkNumber
  0021e	90		 npad	 1

; 149  :                 return (r);

  0021f	48 8d 4c 24 48	 lea	 rcx, QWORD PTR root$1[rsp]
  00224	e8 00 00 00 00	 call	 ??1ResourceHolderUINT@Internal@Core@Math@Palmtree@@UEAA@XZ ; Palmtree::Math::Core::Internal::ResourceHolderUINT::~ResourceHolderUINT
  00229	49 8b c5	 mov	 rax, r13
$LN11@PMC_Pow_X_:

; 150  :             }
; 151  :         }
; 152  :     }

  0022c	48 8b 9c 24 f8
	00 00 00	 mov	 rbx, QWORD PTR [rsp+248]
  00234	48 81 c4 b0 00
	00 00		 add	 rsp, 176		; 000000b0H
  0023b	41 5f		 pop	 r15
  0023d	41 5e		 pop	 r14
  0023f	41 5d		 pop	 r13
  00241	41 5c		 pop	 r12
  00243	5f		 pop	 rdi
  00244	5e		 pop	 rsi
  00245	5d		 pop	 rbp
  00246	c3		 ret	 0
$LN42@PMC_Pow_X_:

; 136  :                     throw OverflowException(L"");

  00247	48 8d 15 00 00
	00 00		 lea	 rdx, OFFSET FLAT:??_C@_1CM@JEKMNCAI@?$PP?$KK?$PP?$PM?$PP?P?$PP?$PM?$PP?U?$PP?m?$PP?$PM?$AAk?$PP?$II?$PP?$IK?$AA?$AI?$PP?$JH?$PP?$JC?$PP?$JK?$AAL@
  0024e	48 8d 8c 24 80
	00 00 00	 lea	 rcx, QWORD PTR $T4[rsp]
  00256	e8 00 00 00 00	 call	 ??0OverflowException@Internal@Core@Math@Palmtree@@QEAA@PEB_W@Z ; Palmtree::Math::Core::Internal::OverflowException::OverflowException
  0025b	48 8d 15 00 00
	00 00		 lea	 rdx, OFFSET FLAT:_TI2?AVOverflowException@Internal@Core@Math@Palmtree@@
  00262	48 8d 8c 24 80
	00 00 00	 lea	 rcx, QWORD PTR $T4[rsp]
  0026a	e8 00 00 00 00	 call	 _CxxThrowException
  0026f	90		 npad	 1
$LN41@PMC_Pow_X_:

; 88   :             {
; 89   :                 // e  0 
; 90   : 
; 91   :                 // 0  0 
; 92   :                 throw ArithmeticException(L"00");

  00270	48 8d 15 00 00
	00 00		 lea	 rdx, OFFSET FLAT:??_C@_1BM@OCOOKOCJ@?$AA0?$AAn?$AA0?$AAW?$AAn?$AA$?$AAo?$AA?$CK?$PP?$JK?$PP?$KJ?$AAg?$AAY?$AA?$AC@
  00277	48 8d 4c 24 48	 lea	 rcx, QWORD PTR $T2[rsp]
  0027c	e8 00 00 00 00	 call	 ??0ArithmeticException@Internal@Core@Math@Palmtree@@QEAA@PEB_W@Z ; Palmtree::Math::Core::Internal::ArithmeticException::ArithmeticException
  00281	48 8d 15 00 00
	00 00		 lea	 rdx, OFFSET FLAT:_TI2?AVArithmeticException@Internal@Core@Math@Palmtree@@
  00288	48 8d 4c 24 48	 lea	 rcx, QWORD PTR $T2[rsp]
  0028d	e8 00 00 00 00	 call	 _CxxThrowException
  00292	cc		 int	 3
$LN38@PMC_Pow_X_:
?PMC_Pow_X_I_Imp@Internal@Core@Math@Palmtree@@YAPEAU__tag_NUMBER_HEADER@1234@PEAU51234@I@Z ENDP ; Palmtree::Math::Core::Internal::PMC_Pow_X_I_Imp
_TEXT	ENDS
;	COMDAT text$x
text$x	SEGMENT
r_buf$1$ = 48
work1_buf$1$ = 56
work2_buf$1$ = 64
root$1 = 72
$T2 = 72
$T3 = 120
$T4 = 128
v_buf_count$1$ = 240
v$ = 240
e$ = 248
v_buf$1$ = 256
r$1$ = 264
?dtor$0@?0??PMC_Pow_X_I_Imp@Internal@Core@Math@Palmtree@@YAPEAU__tag_NUMBER_HEADER@1234@PEAU51234@I@Z@4HA PROC ; `Palmtree::Math::Core::Internal::PMC_Pow_X_I_Imp'::`1'::dtor$0
  00000	48 8d 8a 48 00
	00 00		 lea	 rcx, QWORD PTR root$1[rdx]
  00007	e9 00 00 00 00	 jmp	 ??1ResourceHolderUINT@Internal@Core@Math@Palmtree@@UEAA@XZ ; Palmtree::Math::Core::Internal::ResourceHolderUINT::~ResourceHolderUINT
?dtor$0@?0??PMC_Pow_X_I_Imp@Internal@Core@Math@Palmtree@@YAPEAU__tag_NUMBER_HEADER@1234@PEAU51234@I@Z@4HA ENDP ; `Palmtree::Math::Core::Internal::PMC_Pow_X_I_Imp'::`1'::dtor$0
text$x	ENDS
; Function compile flags: /Ogtpy
;	COMDAT text$x
text$x	SEGMENT
r_buf$1$ = 48
work1_buf$1$ = 56
work2_buf$1$ = 64
root$1 = 72
$T2 = 72
$T3 = 120
$T4 = 128
v_buf_count$1$ = 240
v$ = 240
e$ = 248
v_buf$1$ = 256
r$1$ = 264
?dtor$0@?0??PMC_Pow_X_I_Imp@Internal@Core@Math@Palmtree@@YAPEAU__tag_NUMBER_HEADER@1234@PEAU51234@I@Z@4HA PROC ; `Palmtree::Math::Core::Internal::PMC_Pow_X_I_Imp'::`1'::dtor$0
  00000	48 8d 8a 48 00
	00 00		 lea	 rcx, QWORD PTR root$1[rdx]
  00007	e9 00 00 00 00	 jmp	 ??1ResourceHolderUINT@Internal@Core@Math@Palmtree@@UEAA@XZ ; Palmtree::Math::Core::Internal::ResourceHolderUINT::~ResourceHolderUINT
?dtor$0@?0??PMC_Pow_X_I_Imp@Internal@Core@Math@Palmtree@@YAPEAU__tag_NUMBER_HEADER@1234@PEAU51234@I@Z@4HA ENDP ; `Palmtree::Math::Core::Internal::PMC_Pow_X_I_Imp'::`1'::dtor$0
text$x	ENDS
; Function compile flags: /Ogtpy
; File z:\sources\lunor\repos\rougemeilland\palmtree.math.core.uint\palmtree.math.core.uint\pmc_exception.h
; File c:\program files (x86)\microsoft visual studio\2017\community\vc\tools\msvc\14.16.27023\include\vcruntime_exception.h
;	COMDAT ??_GInternalErrorException@Internal@Core@Math@Palmtree@@UEAAPEAXI@Z
_TEXT	SEGMENT
$T1 = 32
this$ = 64
__flags$ = 72
??_GInternalErrorException@Internal@Core@Math@Palmtree@@UEAAPEAXI@Z PROC ; Palmtree::Math::Core::Internal::InternalErrorException::`scalar deleting destructor', COMDAT
$LN15:
  00000	48 89 4c 24 08	 mov	 QWORD PTR [rsp+8], rcx
  00005	57		 push	 rdi
  00006	48 83 ec 30	 sub	 rsp, 48			; 00000030H
  0000a	48 c7 44 24 20
	fe ff ff ff	 mov	 QWORD PTR $T1[rsp], -2
  00013	48 89 5c 24 48	 mov	 QWORD PTR [rsp+72], rbx
  00018	8b da		 mov	 ebx, edx
  0001a	48 8b f9	 mov	 rdi, rcx
; File z:\sources\lunor\repos\rougemeilland\palmtree.math.core.uint\palmtree.math.core.uint\pmc_exception.h

; 295  :         {

  0001d	48 8d 05 00 00
	00 00		 lea	 rax, OFFSET FLAT:??_7InternalErrorException@Internal@Core@Math@Palmtree@@6B@
  00024	48 89 01	 mov	 QWORD PTR [rcx], rax

; 70   :         {

  00027	48 8d 05 00 00
	00 00		 lea	 rax, OFFSET FLAT:??_7Exception@Internal@Core@Math@Palmtree@@6B@
  0002e	48 89 01	 mov	 QWORD PTR [rcx], rax
; File c:\program files (x86)\microsoft visual studio\2017\community\vc\tools\msvc\14.16.27023\include\vcruntime_exception.h

; 85   :     {

  00031	48 8d 05 00 00
	00 00		 lea	 rax, OFFSET FLAT:??_7exception@std@@6B@
  00038	48 89 01	 mov	 QWORD PTR [rcx], rax

; 86   :         __std_exception_destroy(&_Data);

  0003b	48 83 c1 08	 add	 rcx, 8
  0003f	e8 00 00 00 00	 call	 __std_exception_destroy
  00044	90		 npad	 1
  00045	f6 c3 01	 test	 bl, 1
  00048	74 0e		 je	 SHORT $LN12@scalar
  0004a	ba 30 00 00 00	 mov	 edx, 48			; 00000030H
  0004f	48 8b cf	 mov	 rcx, rdi
  00052	e8 00 00 00 00	 call	 ??3@YAXPEAX_K@Z		; operator delete
  00057	90		 npad	 1
$LN12@scalar:
  00058	48 8b c7	 mov	 rax, rdi
  0005b	48 8b 5c 24 48	 mov	 rbx, QWORD PTR [rsp+72]
  00060	48 83 c4 30	 add	 rsp, 48			; 00000030H
  00064	5f		 pop	 rdi
  00065	c3		 ret	 0
??_GInternalErrorException@Internal@Core@Math@Palmtree@@UEAAPEAXI@Z ENDP ; Palmtree::Math::Core::Internal::InternalErrorException::`scalar deleting destructor'
_TEXT	ENDS
;	COMDAT text$x
text$x	SEGMENT
$T1 = 32
this$ = 64
__flags$ = 72
?dtor$0@?0???_GInternalErrorException@Internal@Core@Math@Palmtree@@UEAAPEAXI@Z@4HA PROC ; `Palmtree::Math::Core::Internal::InternalErrorException::`scalar deleting destructor''::`1'::dtor$0
  00000	48 8b 8a 40 00
	00 00		 mov	 rcx, QWORD PTR this$[rdx]
  00007	e9 00 00 00 00	 jmp	 ??1Exception@Internal@Core@Math@Palmtree@@UEAA@XZ ; Palmtree::Math::Core::Internal::Exception::~Exception
?dtor$0@?0???_GInternalErrorException@Internal@Core@Math@Palmtree@@UEAAPEAXI@Z@4HA ENDP ; `Palmtree::Math::Core::Internal::InternalErrorException::`scalar deleting destructor''::`1'::dtor$0
text$x	ENDS
;	COMDAT text$x
text$x	SEGMENT
$T1 = 32
this$ = 64
__flags$ = 72
?dtor$1@?0???_GInternalErrorException@Internal@Core@Math@Palmtree@@UEAAPEAXI@Z@4HA PROC ; `Palmtree::Math::Core::Internal::InternalErrorException::`scalar deleting destructor''::`1'::dtor$1
  00000	48 8b 8a 40 00
	00 00		 mov	 rcx, QWORD PTR this$[rdx]
  00007	e9 00 00 00 00	 jmp	 ??1exception@std@@UEAA@XZ ; std::exception::~exception
?dtor$1@?0???_GInternalErrorException@Internal@Core@Math@Palmtree@@UEAAPEAXI@Z@4HA ENDP ; `Palmtree::Math::Core::Internal::InternalErrorException::`scalar deleting destructor''::`1'::dtor$1
text$x	ENDS
; Function compile flags: /Ogtpy
;	COMDAT text$x
text$x	SEGMENT
$T1 = 32
this$ = 64
__flags$ = 72
?dtor$0@?0???_GInternalErrorException@Internal@Core@Math@Palmtree@@UEAAPEAXI@Z@4HA PROC ; `Palmtree::Math::Core::Internal::InternalErrorException::`scalar deleting destructor''::`1'::dtor$0
  00000	48 8b 8a 40 00
	00 00		 mov	 rcx, QWORD PTR this$[rdx]
  00007	e9 00 00 00 00	 jmp	 ??1Exception@Internal@Core@Math@Palmtree@@UEAA@XZ ; Palmtree::Math::Core::Internal::Exception::~Exception
?dtor$0@?0???_GInternalErrorException@Internal@Core@Math@Palmtree@@UEAAPEAXI@Z@4HA ENDP ; `Palmtree::Math::Core::Internal::InternalErrorException::`scalar deleting destructor''::`1'::dtor$0
text$x	ENDS
; Function compile flags: /Ogtpy
;	COMDAT text$x
text$x	SEGMENT
$T1 = 32
this$ = 64
__flags$ = 72
?dtor$1@?0???_GInternalErrorException@Internal@Core@Math@Palmtree@@UEAAPEAXI@Z@4HA PROC ; `Palmtree::Math::Core::Internal::InternalErrorException::`scalar deleting destructor''::`1'::dtor$1
  00000	48 8b 8a 40 00
	00 00		 mov	 rcx, QWORD PTR this$[rdx]
  00007	e9 00 00 00 00	 jmp	 ??1exception@std@@UEAA@XZ ; std::exception::~exception
?dtor$1@?0???_GInternalErrorException@Internal@Core@Math@Palmtree@@UEAAPEAXI@Z@4HA ENDP ; `Palmtree::Math::Core::Internal::InternalErrorException::`scalar deleting destructor''::`1'::dtor$1
text$x	ENDS
; Function compile flags: /Ogtpy
; File z:\sources\lunor\repos\rougemeilland\palmtree.math.core.uint\palmtree.math.core.uint\pmc_exception.h
; File c:\program files (x86)\microsoft visual studio\2017\community\vc\tools\msvc\14.16.27023\include\vcruntime_exception.h
; File z:\sources\lunor\repos\rougemeilland\palmtree.math.core.uint\palmtree.math.core.uint\pmc_exception.h
;	COMDAT ??1InternalErrorException@Internal@Core@Math@Palmtree@@UEAA@XZ
_TEXT	SEGMENT
$T1 = 32
this$ = 64
??1InternalErrorException@Internal@Core@Math@Palmtree@@UEAA@XZ PROC ; Palmtree::Math::Core::Internal::InternalErrorException::~InternalErrorException, COMDAT

; 295  :         {

$LN11:
  00000	48 89 4c 24 08	 mov	 QWORD PTR [rsp+8], rcx
  00005	48 83 ec 38	 sub	 rsp, 56			; 00000038H
  00009	48 c7 44 24 20
	fe ff ff ff	 mov	 QWORD PTR $T1[rsp], -2
  00012	48 8d 05 00 00
	00 00		 lea	 rax, OFFSET FLAT:??_7InternalErrorException@Internal@Core@Math@Palmtree@@6B@
  00019	48 89 01	 mov	 QWORD PTR [rcx], rax

; 70   :         {

  0001c	48 8d 05 00 00
	00 00		 lea	 rax, OFFSET FLAT:??_7Exception@Internal@Core@Math@Palmtree@@6B@
  00023	48 89 01	 mov	 QWORD PTR [rcx], rax
; File c:\program files (x86)\microsoft visual studio\2017\community\vc\tools\msvc\14.16.27023\include\vcruntime_exception.h

; 85   :     {

  00026	48 8d 05 00 00
	00 00		 lea	 rax, OFFSET FLAT:??_7exception@std@@6B@
  0002d	48 89 01	 mov	 QWORD PTR [rcx], rax

; 86   :         __std_exception_destroy(&_Data);

  00030	48 83 c1 08	 add	 rcx, 8
  00034	e8 00 00 00 00	 call	 __std_exception_destroy
  00039	90		 npad	 1
; File z:\sources\lunor\repos\rougemeilland\palmtree.math.core.uint\palmtree.math.core.uint\pmc_exception.h

; 296  :         }

  0003a	48 83 c4 38	 add	 rsp, 56			; 00000038H
  0003e	c3		 ret	 0
??1InternalErrorException@Internal@Core@Math@Palmtree@@UEAA@XZ ENDP ; Palmtree::Math::Core::Internal::InternalErrorException::~InternalErrorException
_TEXT	ENDS
;	COMDAT text$x
text$x	SEGMENT
$T1 = 32
this$ = 64
?dtor$0@?0???1InternalErrorException@Internal@Core@Math@Palmtree@@UEAA@XZ@4HA PROC ; `Palmtree::Math::Core::Internal::InternalErrorException::~InternalErrorException'::`1'::dtor$0
  00000	48 8b 8a 40 00
	00 00		 mov	 rcx, QWORD PTR this$[rdx]
  00007	e9 00 00 00 00	 jmp	 ??1Exception@Internal@Core@Math@Palmtree@@UEAA@XZ ; Palmtree::Math::Core::Internal::Exception::~Exception
?dtor$0@?0???1InternalErrorException@Internal@Core@Math@Palmtree@@UEAA@XZ@4HA ENDP ; `Palmtree::Math::Core::Internal::InternalErrorException::~InternalErrorException'::`1'::dtor$0
text$x	ENDS
;	COMDAT text$x
text$x	SEGMENT
$T1 = 32
this$ = 64
?dtor$1@?0???1InternalErrorException@Internal@Core@Math@Palmtree@@UEAA@XZ@4HA PROC ; `Palmtree::Math::Core::Internal::InternalErrorException::~InternalErrorException'::`1'::dtor$1
  00000	48 8b 8a 40 00
	00 00		 mov	 rcx, QWORD PTR this$[rdx]
  00007	e9 00 00 00 00	 jmp	 ??1exception@std@@UEAA@XZ ; std::exception::~exception
?dtor$1@?0???1InternalErrorException@Internal@Core@Math@Palmtree@@UEAA@XZ@4HA ENDP ; `Palmtree::Math::Core::Internal::InternalErrorException::~InternalErrorException'::`1'::dtor$1
text$x	ENDS
; Function compile flags: /Ogtpy
;	COMDAT text$x
text$x	SEGMENT
$T1 = 32
this$ = 64
?dtor$0@?0???1InternalErrorException@Internal@Core@Math@Palmtree@@UEAA@XZ@4HA PROC ; `Palmtree::Math::Core::Internal::InternalErrorException::~InternalErrorException'::`1'::dtor$0
  00000	48 8b 8a 40 00
	00 00		 mov	 rcx, QWORD PTR this$[rdx]
  00007	e9 00 00 00 00	 jmp	 ??1Exception@Internal@Core@Math@Palmtree@@UEAA@XZ ; Palmtree::Math::Core::Internal::Exception::~Exception
?dtor$0@?0???1InternalErrorException@Internal@Core@Math@Palmtree@@UEAA@XZ@4HA ENDP ; `Palmtree::Math::Core::Internal::InternalErrorException::~InternalErrorException'::`1'::dtor$0
text$x	ENDS
; Function compile flags: /Ogtpy
;	COMDAT text$x
text$x	SEGMENT
$T1 = 32
this$ = 64
?dtor$1@?0???1InternalErrorException@Internal@Core@Math@Palmtree@@UEAA@XZ@4HA PROC ; `Palmtree::Math::Core::Internal::InternalErrorException::~InternalErrorException'::`1'::dtor$1
  00000	48 8b 8a 40 00
	00 00		 mov	 rcx, QWORD PTR this$[rdx]
  00007	e9 00 00 00 00	 jmp	 ??1exception@std@@UEAA@XZ ; std::exception::~exception
?dtor$1@?0???1InternalErrorException@Internal@Core@Math@Palmtree@@UEAA@XZ@4HA ENDP ; `Palmtree::Math::Core::Internal::InternalErrorException::~InternalErrorException'::`1'::dtor$1
text$x	ENDS
; Function compile flags: /Ogtpy
; File z:\sources\lunor\repos\rougemeilland\palmtree.math.core.uint\palmtree.math.core.uint\pmc_exception.h
; File c:\program files (x86)\microsoft visual studio\2017\community\vc\tools\msvc\14.16.27023\include\vcruntime_exception.h
; File z:\sources\lunor\repos\rougemeilland\palmtree.math.core.uint\palmtree.math.core.uint\pmc_exception.h
;	COMDAT ??0InternalErrorException@Internal@Core@Math@Palmtree@@QEAA@PEB_W0@Z
_TEXT	SEGMENT
$T1 = 0
this$ = 32
message$ = 40
data$ = 48
??0InternalErrorException@Internal@Core@Math@Palmtree@@QEAA@PEB_W0@Z PROC ; Palmtree::Math::Core::Internal::InternalErrorException::InternalErrorException, COMDAT

; 286  :         {

$LN11:
  00000	48 89 4c 24 08	 mov	 QWORD PTR [rsp+8], rcx
  00005	48 83 ec 18	 sub	 rsp, 24
  00009	48 c7 04 24 fe
	ff ff ff	 mov	 QWORD PTR $T1[rsp], -2
; File c:\program files (x86)\microsoft visual studio\2017\community\vc\tools\msvc\14.16.27023\include\vcruntime_exception.h

; 50   :     {

  00011	48 8d 05 00 00
	00 00		 lea	 rax, OFFSET FLAT:??_7exception@std@@6B@
  00018	48 89 01	 mov	 QWORD PTR [rcx], rax

; 49   :         : _Data()

  0001b	33 c0		 xor	 eax, eax
  0001d	48 89 41 08	 mov	 QWORD PTR [rcx+8], rax
  00021	48 89 41 10	 mov	 QWORD PTR [rcx+16], rax
; File z:\sources\lunor\repos\rougemeilland\palmtree.math.core.uint\palmtree.math.core.uint\pmc_exception.h

; 54   :         Exception(PMC_STATUS_CODE code, const wchar_t* message, const wchar_t* data) noexcept(true)

  00025	48 8d 05 00 00
	00 00		 lea	 rax, OFFSET FLAT:??_7Exception@Internal@Core@Math@Palmtree@@6B@
  0002c	48 89 01	 mov	 QWORD PTR [rcx], rax

; 55   :         {
; 56   :             _code = code;

  0002f	c7 41 18 00 ff
	ff ff		 mov	 DWORD PTR [rcx+24], -256 ; ffffffffffffff00H

; 57   :             _message = message;

  00036	48 89 51 20	 mov	 QWORD PTR [rcx+32], rdx

; 58   :             _data = data;

  0003a	4c 89 41 28	 mov	 QWORD PTR [rcx+40], r8

; 286  :         {

  0003e	48 8d 05 00 00
	00 00		 lea	 rax, OFFSET FLAT:??_7InternalErrorException@Internal@Core@Math@Palmtree@@6B@
  00045	48 89 01	 mov	 QWORD PTR [rcx], rax

; 287  :         }

  00048	48 8b c1	 mov	 rax, rcx
  0004b	48 83 c4 18	 add	 rsp, 24
  0004f	c3		 ret	 0
??0InternalErrorException@Internal@Core@Math@Palmtree@@QEAA@PEB_W0@Z ENDP ; Palmtree::Math::Core::Internal::InternalErrorException::InternalErrorException
_TEXT	ENDS
;	COMDAT text$x
text$x	SEGMENT
$T1 = 0
this$ = 32
message$ = 40
data$ = 48
?dtor$1@?0???0InternalErrorException@Internal@Core@Math@Palmtree@@QEAA@PEB_W0@Z@4HA PROC ; `Palmtree::Math::Core::Internal::InternalErrorException::InternalErrorException'::`1'::dtor$1
  00000	48 8b 8a 20 00
	00 00		 mov	 rcx, QWORD PTR this$[rdx]
  00007	e9 00 00 00 00	 jmp	 ??1exception@std@@UEAA@XZ ; std::exception::~exception
?dtor$1@?0???0InternalErrorException@Internal@Core@Math@Palmtree@@QEAA@PEB_W0@Z@4HA ENDP ; `Palmtree::Math::Core::Internal::InternalErrorException::InternalErrorException'::`1'::dtor$1
text$x	ENDS
;	COMDAT text$x
text$x	SEGMENT
$T1 = 0
this$ = 32
message$ = 40
data$ = 48
?dtor$0@?0???0InternalErrorException@Internal@Core@Math@Palmtree@@QEAA@PEB_W0@Z@4HA PROC ; `Palmtree::Math::Core::Internal::InternalErrorException::InternalErrorException'::`1'::dtor$0
  00000	48 8b 8a 20 00
	00 00		 mov	 rcx, QWORD PTR this$[rdx]
  00007	e9 00 00 00 00	 jmp	 ??1Exception@Internal@Core@Math@Palmtree@@UEAA@XZ ; Palmtree::Math::Core::Internal::Exception::~Exception
?dtor$0@?0???0InternalErrorException@Internal@Core@Math@Palmtree@@QEAA@PEB_W0@Z@4HA ENDP ; `Palmtree::Math::Core::Internal::InternalErrorException::InternalErrorException'::`1'::dtor$0
text$x	ENDS
; Function compile flags: /Ogtpy
;	COMDAT text$x
text$x	SEGMENT
$T1 = 0
this$ = 32
message$ = 40
data$ = 48
?dtor$1@?0???0InternalErrorException@Internal@Core@Math@Palmtree@@QEAA@PEB_W0@Z@4HA PROC ; `Palmtree::Math::Core::Internal::InternalErrorException::InternalErrorException'::`1'::dtor$1
  00000	48 8b 8a 20 00
	00 00		 mov	 rcx, QWORD PTR this$[rdx]
  00007	e9 00 00 00 00	 jmp	 ??1exception@std@@UEAA@XZ ; std::exception::~exception
?dtor$1@?0???0InternalErrorException@Internal@Core@Math@Palmtree@@QEAA@PEB_W0@Z@4HA ENDP ; `Palmtree::Math::Core::Internal::InternalErrorException::InternalErrorException'::`1'::dtor$1
text$x	ENDS
; Function compile flags: /Ogtpy
;	COMDAT text$x
text$x	SEGMENT
$T1 = 0
this$ = 32
message$ = 40
data$ = 48
?dtor$0@?0???0InternalErrorException@Internal@Core@Math@Palmtree@@QEAA@PEB_W0@Z@4HA PROC ; `Palmtree::Math::Core::Internal::InternalErrorException::InternalErrorException'::`1'::dtor$0
  00000	48 8b 8a 20 00
	00 00		 mov	 rcx, QWORD PTR this$[rdx]
  00007	e9 00 00 00 00	 jmp	 ??1Exception@Internal@Core@Math@Palmtree@@UEAA@XZ ; Palmtree::Math::Core::Internal::Exception::~Exception
?dtor$0@?0???0InternalErrorException@Internal@Core@Math@Palmtree@@QEAA@PEB_W0@Z@4HA ENDP ; `Palmtree::Math::Core::Internal::InternalErrorException::InternalErrorException'::`1'::dtor$0
text$x	ENDS
; Function compile flags: /Ogtpy
; File z:\sources\lunor\repos\rougemeilland\palmtree.math.core.uint\palmtree.math.core.uint\pmc_exception.h
; File c:\program files (x86)\microsoft visual studio\2017\community\vc\tools\msvc\14.16.27023\include\vcruntime_exception.h
;	COMDAT ??_GArithmeticException@Internal@Core@Math@Palmtree@@UEAAPEAXI@Z
_TEXT	SEGMENT
$T1 = 32
this$ = 64
__flags$ = 72
??_GArithmeticException@Internal@Core@Math@Palmtree@@UEAAPEAXI@Z PROC ; Palmtree::Math::Core::Internal::ArithmeticException::`scalar deleting destructor', COMDAT
$LN15:
  00000	48 89 4c 24 08	 mov	 QWORD PTR [rsp+8], rcx
  00005	57		 push	 rdi
  00006	48 83 ec 30	 sub	 rsp, 48			; 00000030H
  0000a	48 c7 44 24 20
	fe ff ff ff	 mov	 QWORD PTR $T1[rsp], -2
  00013	48 89 5c 24 48	 mov	 QWORD PTR [rsp+72], rbx
  00018	8b da		 mov	 ebx, edx
  0001a	48 8b f9	 mov	 rdi, rcx
; File z:\sources\lunor\repos\rougemeilland\palmtree.math.core.uint\palmtree.math.core.uint\pmc_exception.h

; 200  :         {

  0001d	48 8d 05 00 00
	00 00		 lea	 rax, OFFSET FLAT:??_7ArithmeticException@Internal@Core@Math@Palmtree@@6B@
  00024	48 89 01	 mov	 QWORD PTR [rcx], rax

; 70   :         {

  00027	48 8d 05 00 00
	00 00		 lea	 rax, OFFSET FLAT:??_7Exception@Internal@Core@Math@Palmtree@@6B@
  0002e	48 89 01	 mov	 QWORD PTR [rcx], rax
; File c:\program files (x86)\microsoft visual studio\2017\community\vc\tools\msvc\14.16.27023\include\vcruntime_exception.h

; 85   :     {

  00031	48 8d 05 00 00
	00 00		 lea	 rax, OFFSET FLAT:??_7exception@std@@6B@
  00038	48 89 01	 mov	 QWORD PTR [rcx], rax

; 86   :         __std_exception_destroy(&_Data);

  0003b	48 83 c1 08	 add	 rcx, 8
  0003f	e8 00 00 00 00	 call	 __std_exception_destroy
  00044	90		 npad	 1
  00045	f6 c3 01	 test	 bl, 1
  00048	74 0e		 je	 SHORT $LN12@scalar
  0004a	ba 30 00 00 00	 mov	 edx, 48			; 00000030H
  0004f	48 8b cf	 mov	 rcx, rdi
  00052	e8 00 00 00 00	 call	 ??3@YAXPEAX_K@Z		; operator delete
  00057	90		 npad	 1
$LN12@scalar:
  00058	48 8b c7	 mov	 rax, rdi
  0005b	48 8b 5c 24 48	 mov	 rbx, QWORD PTR [rsp+72]
  00060	48 83 c4 30	 add	 rsp, 48			; 00000030H
  00064	5f		 pop	 rdi
  00065	c3		 ret	 0
??_GArithmeticException@Internal@Core@Math@Palmtree@@UEAAPEAXI@Z ENDP ; Palmtree::Math::Core::Internal::ArithmeticException::`scalar deleting destructor'
_TEXT	ENDS
;	COMDAT text$x
text$x	SEGMENT
$T1 = 32
this$ = 64
__flags$ = 72
?dtor$0@?0???_GArithmeticException@Internal@Core@Math@Palmtree@@UEAAPEAXI@Z@4HA PROC ; `Palmtree::Math::Core::Internal::ArithmeticException::`scalar deleting destructor''::`1'::dtor$0
  00000	48 8b 8a 40 00
	00 00		 mov	 rcx, QWORD PTR this$[rdx]
  00007	e9 00 00 00 00	 jmp	 ??1Exception@Internal@Core@Math@Palmtree@@UEAA@XZ ; Palmtree::Math::Core::Internal::Exception::~Exception
?dtor$0@?0???_GArithmeticException@Internal@Core@Math@Palmtree@@UEAAPEAXI@Z@4HA ENDP ; `Palmtree::Math::Core::Internal::ArithmeticException::`scalar deleting destructor''::`1'::dtor$0
text$x	ENDS
;	COMDAT text$x
text$x	SEGMENT
$T1 = 32
this$ = 64
__flags$ = 72
?dtor$1@?0???_GArithmeticException@Internal@Core@Math@Palmtree@@UEAAPEAXI@Z@4HA PROC ; `Palmtree::Math::Core::Internal::ArithmeticException::`scalar deleting destructor''::`1'::dtor$1
  00000	48 8b 8a 40 00
	00 00		 mov	 rcx, QWORD PTR this$[rdx]
  00007	e9 00 00 00 00	 jmp	 ??1exception@std@@UEAA@XZ ; std::exception::~exception
?dtor$1@?0???_GArithmeticException@Internal@Core@Math@Palmtree@@UEAAPEAXI@Z@4HA ENDP ; `Palmtree::Math::Core::Internal::ArithmeticException::`scalar deleting destructor''::`1'::dtor$1
text$x	ENDS
; Function compile flags: /Ogtpy
;	COMDAT text$x
text$x	SEGMENT
$T1 = 32
this$ = 64
__flags$ = 72
?dtor$0@?0???_GArithmeticException@Internal@Core@Math@Palmtree@@UEAAPEAXI@Z@4HA PROC ; `Palmtree::Math::Core::Internal::ArithmeticException::`scalar deleting destructor''::`1'::dtor$0
  00000	48 8b 8a 40 00
	00 00		 mov	 rcx, QWORD PTR this$[rdx]
  00007	e9 00 00 00 00	 jmp	 ??1Exception@Internal@Core@Math@Palmtree@@UEAA@XZ ; Palmtree::Math::Core::Internal::Exception::~Exception
?dtor$0@?0???_GArithmeticException@Internal@Core@Math@Palmtree@@UEAAPEAXI@Z@4HA ENDP ; `Palmtree::Math::Core::Internal::ArithmeticException::`scalar deleting destructor''::`1'::dtor$0
text$x	ENDS
; Function compile flags: /Ogtpy
;	COMDAT text$x
text$x	SEGMENT
$T1 = 32
this$ = 64
__flags$ = 72
?dtor$1@?0???_GArithmeticException@Internal@Core@Math@Palmtree@@UEAAPEAXI@Z@4HA PROC ; `Palmtree::Math::Core::Internal::ArithmeticException::`scalar deleting destructor''::`1'::dtor$1
  00000	48 8b 8a 40 00
	00 00		 mov	 rcx, QWORD PTR this$[rdx]
  00007	e9 00 00 00 00	 jmp	 ??1exception@std@@UEAA@XZ ; std::exception::~exception
?dtor$1@?0???_GArithmeticException@Internal@Core@Math@Palmtree@@UEAAPEAXI@Z@4HA ENDP ; `Palmtree::Math::Core::Internal::ArithmeticException::`scalar deleting destructor''::`1'::dtor$1
text$x	ENDS
; Function compile flags: /Ogtpy
; File c:\program files (x86)\microsoft visual studio\2017\community\vc\tools\msvc\14.16.27023\include\vcruntime_exception.h
; File z:\sources\lunor\repos\rougemeilland\palmtree.math.core.uint\palmtree.math.core.uint\pmc_exception.h
;	COMDAT ??0ArithmeticException@Internal@Core@Math@Palmtree@@QEAA@AEBV01234@@Z
_TEXT	SEGMENT
$T1 = 0
this$ = 32
__that$ = 40
??0ArithmeticException@Internal@Core@Math@Palmtree@@QEAA@AEBV01234@@Z PROC ; Palmtree::Math::Core::Internal::ArithmeticException::ArithmeticException, COMDAT
$LN11:
  00000	48 89 4c 24 08	 mov	 QWORD PTR [rsp+8], rcx
  00005	48 83 ec 18	 sub	 rsp, 24
  00009	48 c7 04 24 fe
	ff ff ff	 mov	 QWORD PTR $T1[rsp], -2
; File c:\program files (x86)\microsoft visual studio\2017\community\vc\tools\msvc\14.16.27023\include\vcruntime_exception.h

; 50   :     {

  00011	48 8d 05 00 00
	00 00		 lea	 rax, OFFSET FLAT:??_7exception@std@@6B@
  00018	48 89 01	 mov	 QWORD PTR [rcx], rax

; 49   :         : _Data()

  0001b	33 c0		 xor	 eax, eax
  0001d	48 89 41 08	 mov	 QWORD PTR [rcx+8], rax
  00021	48 89 41 10	 mov	 QWORD PTR [rcx+16], rax
; File z:\sources\lunor\repos\rougemeilland\palmtree.math.core.uint\palmtree.math.core.uint\pmc_exception.h

; 62   :         Exception(const Exception& p) noexcept(true)

  00025	48 8d 05 00 00
	00 00		 lea	 rax, OFFSET FLAT:??_7Exception@Internal@Core@Math@Palmtree@@6B@
  0002c	48 89 01	 mov	 QWORD PTR [rcx], rax

; 63   :         {
; 64   :             _code = p._code;

  0002f	8b 42 18	 mov	 eax, DWORD PTR [rdx+24]
  00032	89 41 18	 mov	 DWORD PTR [rcx+24], eax

; 65   :             _message = p._message;

  00035	48 8b 42 20	 mov	 rax, QWORD PTR [rdx+32]
  00039	48 89 41 20	 mov	 QWORD PTR [rcx+32], rax

; 66   :             _data = p._data;

  0003d	48 8b 42 28	 mov	 rax, QWORD PTR [rdx+40]
  00041	48 89 41 28	 mov	 QWORD PTR [rcx+40], rax
  00045	48 8d 05 00 00
	00 00		 lea	 rax, OFFSET FLAT:??_7ArithmeticException@Internal@Core@Math@Palmtree@@6B@
  0004c	48 89 01	 mov	 QWORD PTR [rcx], rax
  0004f	48 8b c1	 mov	 rax, rcx
  00052	48 83 c4 18	 add	 rsp, 24
  00056	c3		 ret	 0
??0ArithmeticException@Internal@Core@Math@Palmtree@@QEAA@AEBV01234@@Z ENDP ; Palmtree::Math::Core::Internal::ArithmeticException::ArithmeticException
_TEXT	ENDS
;	COMDAT text$x
text$x	SEGMENT
$T1 = 0
this$ = 32
__that$ = 40
?dtor$1@?0???0ArithmeticException@Internal@Core@Math@Palmtree@@QEAA@AEBV01234@@Z@4HA PROC ; `Palmtree::Math::Core::Internal::ArithmeticException::ArithmeticException'::`1'::dtor$1
  00000	48 8b 8a 20 00
	00 00		 mov	 rcx, QWORD PTR this$[rdx]
  00007	e9 00 00 00 00	 jmp	 ??1exception@std@@UEAA@XZ ; std::exception::~exception
?dtor$1@?0???0ArithmeticException@Internal@Core@Math@Palmtree@@QEAA@AEBV01234@@Z@4HA ENDP ; `Palmtree::Math::Core::Internal::ArithmeticException::ArithmeticException'::`1'::dtor$1
text$x	ENDS
;	COMDAT text$x
text$x	SEGMENT
$T1 = 0
this$ = 32
__that$ = 40
?dtor$0@?0???0ArithmeticException@Internal@Core@Math@Palmtree@@QEAA@AEBV01234@@Z@4HA PROC ; `Palmtree::Math::Core::Internal::ArithmeticException::ArithmeticException'::`1'::dtor$0
  00000	48 8b 8a 20 00
	00 00		 mov	 rcx, QWORD PTR this$[rdx]
  00007	e9 00 00 00 00	 jmp	 ??1Exception@Internal@Core@Math@Palmtree@@UEAA@XZ ; Palmtree::Math::Core::Internal::Exception::~Exception
?dtor$0@?0???0ArithmeticException@Internal@Core@Math@Palmtree@@QEAA@AEBV01234@@Z@4HA ENDP ; `Palmtree::Math::Core::Internal::ArithmeticException::ArithmeticException'::`1'::dtor$0
text$x	ENDS
; Function compile flags: /Ogtpy
;	COMDAT text$x
text$x	SEGMENT
$T1 = 0
this$ = 32
__that$ = 40
?dtor$1@?0???0ArithmeticException@Internal@Core@Math@Palmtree@@QEAA@AEBV01234@@Z@4HA PROC ; `Palmtree::Math::Core::Internal::ArithmeticException::ArithmeticException'::`1'::dtor$1
  00000	48 8b 8a 20 00
	00 00		 mov	 rcx, QWORD PTR this$[rdx]
  00007	e9 00 00 00 00	 jmp	 ??1exception@std@@UEAA@XZ ; std::exception::~exception
?dtor$1@?0???0ArithmeticException@Internal@Core@Math@Palmtree@@QEAA@AEBV01234@@Z@4HA ENDP ; `Palmtree::Math::Core::Internal::ArithmeticException::ArithmeticException'::`1'::dtor$1
text$x	ENDS
; Function compile flags: /Ogtpy
;	COMDAT text$x
text$x	SEGMENT
$T1 = 0
this$ = 32
__that$ = 40
?dtor$0@?0???0ArithmeticException@Internal@Core@Math@Palmtree@@QEAA@AEBV01234@@Z@4HA PROC ; `Palmtree::Math::Core::Internal::ArithmeticException::ArithmeticException'::`1'::dtor$0
  00000	48 8b 8a 20 00
	00 00		 mov	 rcx, QWORD PTR this$[rdx]
  00007	e9 00 00 00 00	 jmp	 ??1Exception@Internal@Core@Math@Palmtree@@UEAA@XZ ; Palmtree::Math::Core::Internal::Exception::~Exception
?dtor$0@?0???0ArithmeticException@Internal@Core@Math@Palmtree@@QEAA@AEBV01234@@Z@4HA ENDP ; `Palmtree::Math::Core::Internal::ArithmeticException::ArithmeticException'::`1'::dtor$0
text$x	ENDS
; Function compile flags: /Ogtpy
; File z:\sources\lunor\repos\rougemeilland\palmtree.math.core.uint\palmtree.math.core.uint\pmc_exception.h
; File c:\program files (x86)\microsoft visual studio\2017\community\vc\tools\msvc\14.16.27023\include\vcruntime_exception.h
; File z:\sources\lunor\repos\rougemeilland\palmtree.math.core.uint\palmtree.math.core.uint\pmc_exception.h
;	COMDAT ??1ArithmeticException@Internal@Core@Math@Palmtree@@UEAA@XZ
_TEXT	SEGMENT
$T1 = 32
this$ = 64
??1ArithmeticException@Internal@Core@Math@Palmtree@@UEAA@XZ PROC ; Palmtree::Math::Core::Internal::ArithmeticException::~ArithmeticException, COMDAT

; 200  :         {

$LN11:
  00000	48 89 4c 24 08	 mov	 QWORD PTR [rsp+8], rcx
  00005	48 83 ec 38	 sub	 rsp, 56			; 00000038H
  00009	48 c7 44 24 20
	fe ff ff ff	 mov	 QWORD PTR $T1[rsp], -2
  00012	48 8d 05 00 00
	00 00		 lea	 rax, OFFSET FLAT:??_7ArithmeticException@Internal@Core@Math@Palmtree@@6B@
  00019	48 89 01	 mov	 QWORD PTR [rcx], rax

; 70   :         {

  0001c	48 8d 05 00 00
	00 00		 lea	 rax, OFFSET FLAT:??_7Exception@Internal@Core@Math@Palmtree@@6B@
  00023	48 89 01	 mov	 QWORD PTR [rcx], rax
; File c:\program files (x86)\microsoft visual studio\2017\community\vc\tools\msvc\14.16.27023\include\vcruntime_exception.h

; 85   :     {

  00026	48 8d 05 00 00
	00 00		 lea	 rax, OFFSET FLAT:??_7exception@std@@6B@
  0002d	48 89 01	 mov	 QWORD PTR [rcx], rax

; 86   :         __std_exception_destroy(&_Data);

  00030	48 83 c1 08	 add	 rcx, 8
  00034	e8 00 00 00 00	 call	 __std_exception_destroy
  00039	90		 npad	 1
; File z:\sources\lunor\repos\rougemeilland\palmtree.math.core.uint\palmtree.math.core.uint\pmc_exception.h

; 201  :         }

  0003a	48 83 c4 38	 add	 rsp, 56			; 00000038H
  0003e	c3		 ret	 0
??1ArithmeticException@Internal@Core@Math@Palmtree@@UEAA@XZ ENDP ; Palmtree::Math::Core::Internal::ArithmeticException::~ArithmeticException
_TEXT	ENDS
;	COMDAT text$x
text$x	SEGMENT
$T1 = 32
this$ = 64
?dtor$0@?0???1ArithmeticException@Internal@Core@Math@Palmtree@@UEAA@XZ@4HA PROC ; `Palmtree::Math::Core::Internal::ArithmeticException::~ArithmeticException'::`1'::dtor$0
  00000	48 8b 8a 40 00
	00 00		 mov	 rcx, QWORD PTR this$[rdx]
  00007	e9 00 00 00 00	 jmp	 ??1Exception@Internal@Core@Math@Palmtree@@UEAA@XZ ; Palmtree::Math::Core::Internal::Exception::~Exception
?dtor$0@?0???1ArithmeticException@Internal@Core@Math@Palmtree@@UEAA@XZ@4HA ENDP ; `Palmtree::Math::Core::Internal::ArithmeticException::~ArithmeticException'::`1'::dtor$0
text$x	ENDS
;	COMDAT text$x
text$x	SEGMENT
$T1 = 32
this$ = 64
?dtor$1@?0???1ArithmeticException@Internal@Core@Math@Palmtree@@UEAA@XZ@4HA PROC ; `Palmtree::Math::Core::Internal::ArithmeticException::~ArithmeticException'::`1'::dtor$1
  00000	48 8b 8a 40 00
	00 00		 mov	 rcx, QWORD PTR this$[rdx]
  00007	e9 00 00 00 00	 jmp	 ??1exception@std@@UEAA@XZ ; std::exception::~exception
?dtor$1@?0???1ArithmeticException@Internal@Core@Math@Palmtree@@UEAA@XZ@4HA ENDP ; `Palmtree::Math::Core::Internal::ArithmeticException::~ArithmeticException'::`1'::dtor$1
text$x	ENDS
; Function compile flags: /Ogtpy
;	COMDAT text$x
text$x	SEGMENT
$T1 = 32
this$ = 64
?dtor$0@?0???1ArithmeticException@Internal@Core@Math@Palmtree@@UEAA@XZ@4HA PROC ; `Palmtree::Math::Core::Internal::ArithmeticException::~ArithmeticException'::`1'::dtor$0
  00000	48 8b 8a 40 00
	00 00		 mov	 rcx, QWORD PTR this$[rdx]
  00007	e9 00 00 00 00	 jmp	 ??1Exception@Internal@Core@Math@Palmtree@@UEAA@XZ ; Palmtree::Math::Core::Internal::Exception::~Exception
?dtor$0@?0???1ArithmeticException@Internal@Core@Math@Palmtree@@UEAA@XZ@4HA ENDP ; `Palmtree::Math::Core::Internal::ArithmeticException::~ArithmeticException'::`1'::dtor$0
text$x	ENDS
; Function compile flags: /Ogtpy
;	COMDAT text$x
text$x	SEGMENT
$T1 = 32
this$ = 64
?dtor$1@?0???1ArithmeticException@Internal@Core@Math@Palmtree@@UEAA@XZ@4HA PROC ; `Palmtree::Math::Core::Internal::ArithmeticException::~ArithmeticException'::`1'::dtor$1
  00000	48 8b 8a 40 00
	00 00		 mov	 rcx, QWORD PTR this$[rdx]
  00007	e9 00 00 00 00	 jmp	 ??1exception@std@@UEAA@XZ ; std::exception::~exception
?dtor$1@?0???1ArithmeticException@Internal@Core@Math@Palmtree@@UEAA@XZ@4HA ENDP ; `Palmtree::Math::Core::Internal::ArithmeticException::~ArithmeticException'::`1'::dtor$1
text$x	ENDS
; Function compile flags: /Ogtpy
; File z:\sources\lunor\repos\rougemeilland\palmtree.math.core.uint\palmtree.math.core.uint\pmc_exception.h
; File c:\program files (x86)\microsoft visual studio\2017\community\vc\tools\msvc\14.16.27023\include\vcruntime_exception.h
; File z:\sources\lunor\repos\rougemeilland\palmtree.math.core.uint\palmtree.math.core.uint\pmc_exception.h
;	COMDAT ??0ArithmeticException@Internal@Core@Math@Palmtree@@QEAA@PEB_W@Z
_TEXT	SEGMENT
$T1 = 0
this$ = 32
message$ = 40
??0ArithmeticException@Internal@Core@Math@Palmtree@@QEAA@PEB_W@Z PROC ; Palmtree::Math::Core::Internal::ArithmeticException::ArithmeticException, COMDAT

; 191  :         {

$LN11:
  00000	48 89 4c 24 08	 mov	 QWORD PTR [rsp+8], rcx
  00005	48 83 ec 18	 sub	 rsp, 24
  00009	48 c7 04 24 fe
	ff ff ff	 mov	 QWORD PTR $T1[rsp], -2
; File c:\program files (x86)\microsoft visual studio\2017\community\vc\tools\msvc\14.16.27023\include\vcruntime_exception.h

; 50   :     {

  00011	48 8d 05 00 00
	00 00		 lea	 rax, OFFSET FLAT:??_7exception@std@@6B@
  00018	48 89 01	 mov	 QWORD PTR [rcx], rax

; 49   :         : _Data()

  0001b	33 c0		 xor	 eax, eax
  0001d	48 89 41 08	 mov	 QWORD PTR [rcx+8], rax
  00021	48 89 41 10	 mov	 QWORD PTR [rcx+16], rax
; File z:\sources\lunor\repos\rougemeilland\palmtree.math.core.uint\palmtree.math.core.uint\pmc_exception.h

; 47   :         Exception(PMC_STATUS_CODE code, const wchar_t* message) noexcept(true)

  00025	48 8d 05 00 00
	00 00		 lea	 rax, OFFSET FLAT:??_7Exception@Internal@Core@Math@Palmtree@@6B@
  0002c	48 89 01	 mov	 QWORD PTR [rcx], rax

; 48   :         {
; 49   :             _code = code;

  0002f	c7 41 18 fa ff
	ff ff		 mov	 DWORD PTR [rcx+24], -6

; 50   :             _message = message;

  00036	48 89 51 20	 mov	 QWORD PTR [rcx+32], rdx

; 51   :             _data = nullptr;

  0003a	48 c7 41 28 00
	00 00 00	 mov	 QWORD PTR [rcx+40], 0

; 191  :         {

  00042	48 8d 05 00 00
	00 00		 lea	 rax, OFFSET FLAT:??_7ArithmeticException@Internal@Core@Math@Palmtree@@6B@
  00049	48 89 01	 mov	 QWORD PTR [rcx], rax

; 192  :         }

  0004c	48 8b c1	 mov	 rax, rcx
  0004f	48 83 c4 18	 add	 rsp, 24
  00053	c3		 ret	 0
??0ArithmeticException@Internal@Core@Math@Palmtree@@QEAA@PEB_W@Z ENDP ; Palmtree::Math::Core::Internal::ArithmeticException::ArithmeticException
_TEXT	ENDS
;	COMDAT text$x
text$x	SEGMENT
$T1 = 0
this$ = 32
message$ = 40
?dtor$1@?0???0ArithmeticException@Internal@Core@Math@Palmtree@@QEAA@PEB_W@Z@4HA PROC ; `Palmtree::Math::Core::Internal::ArithmeticException::ArithmeticException'::`1'::dtor$1
  00000	48 8b 8a 20 00
	00 00		 mov	 rcx, QWORD PTR this$[rdx]
  00007	e9 00 00 00 00	 jmp	 ??1exception@std@@UEAA@XZ ; std::exception::~exception
?dtor$1@?0???0ArithmeticException@Internal@Core@Math@Palmtree@@QEAA@PEB_W@Z@4HA ENDP ; `Palmtree::Math::Core::Internal::ArithmeticException::ArithmeticException'::`1'::dtor$1
text$x	ENDS
;	COMDAT text$x
text$x	SEGMENT
$T1 = 0
this$ = 32
message$ = 40
?dtor$0@?0???0ArithmeticException@Internal@Core@Math@Palmtree@@QEAA@PEB_W@Z@4HA PROC ; `Palmtree::Math::Core::Internal::ArithmeticException::ArithmeticException'::`1'::dtor$0
  00000	48 8b 8a 20 00
	00 00		 mov	 rcx, QWORD PTR this$[rdx]
  00007	e9 00 00 00 00	 jmp	 ??1Exception@Internal@Core@Math@Palmtree@@UEAA@XZ ; Palmtree::Math::Core::Internal::Exception::~Exception
?dtor$0@?0???0ArithmeticException@Internal@Core@Math@Palmtree@@QEAA@PEB_W@Z@4HA ENDP ; `Palmtree::Math::Core::Internal::ArithmeticException::ArithmeticException'::`1'::dtor$0
text$x	ENDS
; Function compile flags: /Ogtpy
;	COMDAT text$x
text$x	SEGMENT
$T1 = 0
this$ = 32
message$ = 40
?dtor$1@?0???0ArithmeticException@Internal@Core@Math@Palmtree@@QEAA@PEB_W@Z@4HA PROC ; `Palmtree::Math::Core::Internal::ArithmeticException::ArithmeticException'::`1'::dtor$1
  00000	48 8b 8a 20 00
	00 00		 mov	 rcx, QWORD PTR this$[rdx]
  00007	e9 00 00 00 00	 jmp	 ??1exception@std@@UEAA@XZ ; std::exception::~exception
?dtor$1@?0???0ArithmeticException@Internal@Core@Math@Palmtree@@QEAA@PEB_W@Z@4HA ENDP ; `Palmtree::Math::Core::Internal::ArithmeticException::ArithmeticException'::`1'::dtor$1
text$x	ENDS
; Function compile flags: /Ogtpy
;	COMDAT text$x
text$x	SEGMENT
$T1 = 0
this$ = 32
message$ = 40
?dtor$0@?0???0ArithmeticException@Internal@Core@Math@Palmtree@@QEAA@PEB_W@Z@4HA PROC ; `Palmtree::Math::Core::Internal::ArithmeticException::ArithmeticException'::`1'::dtor$0
  00000	48 8b 8a 20 00
	00 00		 mov	 rcx, QWORD PTR this$[rdx]
  00007	e9 00 00 00 00	 jmp	 ??1Exception@Internal@Core@Math@Palmtree@@UEAA@XZ ; Palmtree::Math::Core::Internal::Exception::~Exception
?dtor$0@?0???0ArithmeticException@Internal@Core@Math@Palmtree@@QEAA@PEB_W@Z@4HA ENDP ; `Palmtree::Math::Core::Internal::ArithmeticException::ArithmeticException'::`1'::dtor$0
text$x	ENDS
; Function compile flags: /Ogtpy
; File z:\sources\lunor\repos\rougemeilland\palmtree.math.core.uint\palmtree.math.core.uint\pmc_exception.h
; File c:\program files (x86)\microsoft visual studio\2017\community\vc\tools\msvc\14.16.27023\include\vcruntime_exception.h
;	COMDAT ??_GOverflowException@Internal@Core@Math@Palmtree@@UEAAPEAXI@Z
_TEXT	SEGMENT
$T1 = 32
this$ = 64
__flags$ = 72
??_GOverflowException@Internal@Core@Math@Palmtree@@UEAAPEAXI@Z PROC ; Palmtree::Math::Core::Internal::OverflowException::`scalar deleting destructor', COMDAT
$LN15:
  00000	48 89 4c 24 08	 mov	 QWORD PTR [rsp+8], rcx
  00005	57		 push	 rdi
  00006	48 83 ec 30	 sub	 rsp, 48			; 00000030H
  0000a	48 c7 44 24 20
	fe ff ff ff	 mov	 QWORD PTR $T1[rsp], -2
  00013	48 89 5c 24 48	 mov	 QWORD PTR [rsp+72], rbx
  00018	8b da		 mov	 ebx, edx
  0001a	48 8b f9	 mov	 rdi, rcx
; File z:\sources\lunor\repos\rougemeilland\palmtree.math.core.uint\palmtree.math.core.uint\pmc_exception.h

; 162  :         {

  0001d	48 8d 05 00 00
	00 00		 lea	 rax, OFFSET FLAT:??_7OverflowException@Internal@Core@Math@Palmtree@@6B@
  00024	48 89 01	 mov	 QWORD PTR [rcx], rax

; 70   :         {

  00027	48 8d 05 00 00
	00 00		 lea	 rax, OFFSET FLAT:??_7Exception@Internal@Core@Math@Palmtree@@6B@
  0002e	48 89 01	 mov	 QWORD PTR [rcx], rax
; File c:\program files (x86)\microsoft visual studio\2017\community\vc\tools\msvc\14.16.27023\include\vcruntime_exception.h

; 85   :     {

  00031	48 8d 05 00 00
	00 00		 lea	 rax, OFFSET FLAT:??_7exception@std@@6B@
  00038	48 89 01	 mov	 QWORD PTR [rcx], rax

; 86   :         __std_exception_destroy(&_Data);

  0003b	48 83 c1 08	 add	 rcx, 8
  0003f	e8 00 00 00 00	 call	 __std_exception_destroy
  00044	90		 npad	 1
  00045	f6 c3 01	 test	 bl, 1
  00048	74 0e		 je	 SHORT $LN12@scalar
  0004a	ba 30 00 00 00	 mov	 edx, 48			; 00000030H
  0004f	48 8b cf	 mov	 rcx, rdi
  00052	e8 00 00 00 00	 call	 ??3@YAXPEAX_K@Z		; operator delete
  00057	90		 npad	 1
$LN12@scalar:
  00058	48 8b c7	 mov	 rax, rdi
  0005b	48 8b 5c 24 48	 mov	 rbx, QWORD PTR [rsp+72]
  00060	48 83 c4 30	 add	 rsp, 48			; 00000030H
  00064	5f		 pop	 rdi
  00065	c3		 ret	 0
??_GOverflowException@Internal@Core@Math@Palmtree@@UEAAPEAXI@Z ENDP ; Palmtree::Math::Core::Internal::OverflowException::`scalar deleting destructor'
_TEXT	ENDS
;	COMDAT text$x
text$x	SEGMENT
$T1 = 32
this$ = 64
__flags$ = 72
?dtor$0@?0???_GOverflowException@Internal@Core@Math@Palmtree@@UEAAPEAXI@Z@4HA PROC ; `Palmtree::Math::Core::Internal::OverflowException::`scalar deleting destructor''::`1'::dtor$0
  00000	48 8b 8a 40 00
	00 00		 mov	 rcx, QWORD PTR this$[rdx]
  00007	e9 00 00 00 00	 jmp	 ??1Exception@Internal@Core@Math@Palmtree@@UEAA@XZ ; Palmtree::Math::Core::Internal::Exception::~Exception
?dtor$0@?0???_GOverflowException@Internal@Core@Math@Palmtree@@UEAAPEAXI@Z@4HA ENDP ; `Palmtree::Math::Core::Internal::OverflowException::`scalar deleting destructor''::`1'::dtor$0
text$x	ENDS
;	COMDAT text$x
text$x	SEGMENT
$T1 = 32
this$ = 64
__flags$ = 72
?dtor$1@?0???_GOverflowException@Internal@Core@Math@Palmtree@@UEAAPEAXI@Z@4HA PROC ; `Palmtree::Math::Core::Internal::OverflowException::`scalar deleting destructor''::`1'::dtor$1
  00000	48 8b 8a 40 00
	00 00		 mov	 rcx, QWORD PTR this$[rdx]
  00007	e9 00 00 00 00	 jmp	 ??1exception@std@@UEAA@XZ ; std::exception::~exception
?dtor$1@?0???_GOverflowException@Internal@Core@Math@Palmtree@@UEAAPEAXI@Z@4HA ENDP ; `Palmtree::Math::Core::Internal::OverflowException::`scalar deleting destructor''::`1'::dtor$1
text$x	ENDS
; Function compile flags: /Ogtpy
;	COMDAT text$x
text$x	SEGMENT
$T1 = 32
this$ = 64
__flags$ = 72
?dtor$0@?0???_GOverflowException@Internal@Core@Math@Palmtree@@UEAAPEAXI@Z@4HA PROC ; `Palmtree::Math::Core::Internal::OverflowException::`scalar deleting destructor''::`1'::dtor$0
  00000	48 8b 8a 40 00
	00 00		 mov	 rcx, QWORD PTR this$[rdx]
  00007	e9 00 00 00 00	 jmp	 ??1Exception@Internal@Core@Math@Palmtree@@UEAA@XZ ; Palmtree::Math::Core::Internal::Exception::~Exception
?dtor$0@?0???_GOverflowException@Internal@Core@Math@Palmtree@@UEAAPEAXI@Z@4HA ENDP ; `Palmtree::Math::Core::Internal::OverflowException::`scalar deleting destructor''::`1'::dtor$0
text$x	ENDS
; Function compile flags: /Ogtpy
;	COMDAT text$x
text$x	SEGMENT
$T1 = 32
this$ = 64
__flags$ = 72
?dtor$1@?0???_GOverflowException@Internal@Core@Math@Palmtree@@UEAAPEAXI@Z@4HA PROC ; `Palmtree::Math::Core::Internal::OverflowException::`scalar deleting destructor''::`1'::dtor$1
  00000	48 8b 8a 40 00
	00 00		 mov	 rcx, QWORD PTR this$[rdx]
  00007	e9 00 00 00 00	 jmp	 ??1exception@std@@UEAA@XZ ; std::exception::~exception
?dtor$1@?0???_GOverflowException@Internal@Core@Math@Palmtree@@UEAAPEAXI@Z@4HA ENDP ; `Palmtree::Math::Core::Internal::OverflowException::`scalar deleting destructor''::`1'::dtor$1
text$x	ENDS
; Function compile flags: /Ogtpy
; File z:\sources\lunor\repos\rougemeilland\palmtree.math.core.uint\palmtree.math.core.uint\pmc_exception.h
; File c:\program files (x86)\microsoft visual studio\2017\community\vc\tools\msvc\14.16.27023\include\vcruntime_exception.h
; File z:\sources\lunor\repos\rougemeilland\palmtree.math.core.uint\palmtree.math.core.uint\pmc_exception.h
;	COMDAT ??1OverflowException@Internal@Core@Math@Palmtree@@UEAA@XZ
_TEXT	SEGMENT
$T1 = 32
this$ = 64
??1OverflowException@Internal@Core@Math@Palmtree@@UEAA@XZ PROC ; Palmtree::Math::Core::Internal::OverflowException::~OverflowException, COMDAT

; 162  :         {

$LN11:
  00000	48 89 4c 24 08	 mov	 QWORD PTR [rsp+8], rcx
  00005	48 83 ec 38	 sub	 rsp, 56			; 00000038H
  00009	48 c7 44 24 20
	fe ff ff ff	 mov	 QWORD PTR $T1[rsp], -2
  00012	48 8d 05 00 00
	00 00		 lea	 rax, OFFSET FLAT:??_7OverflowException@Internal@Core@Math@Palmtree@@6B@
  00019	48 89 01	 mov	 QWORD PTR [rcx], rax

; 70   :         {

  0001c	48 8d 05 00 00
	00 00		 lea	 rax, OFFSET FLAT:??_7Exception@Internal@Core@Math@Palmtree@@6B@
  00023	48 89 01	 mov	 QWORD PTR [rcx], rax
; File c:\program files (x86)\microsoft visual studio\2017\community\vc\tools\msvc\14.16.27023\include\vcruntime_exception.h

; 85   :     {

  00026	48 8d 05 00 00
	00 00		 lea	 rax, OFFSET FLAT:??_7exception@std@@6B@
  0002d	48 89 01	 mov	 QWORD PTR [rcx], rax

; 86   :         __std_exception_destroy(&_Data);

  00030	48 83 c1 08	 add	 rcx, 8
  00034	e8 00 00 00 00	 call	 __std_exception_destroy
  00039	90		 npad	 1
; File z:\sources\lunor\repos\rougemeilland\palmtree.math.core.uint\palmtree.math.core.uint\pmc_exception.h

; 163  :         }

  0003a	48 83 c4 38	 add	 rsp, 56			; 00000038H
  0003e	c3		 ret	 0
??1OverflowException@Internal@Core@Math@Palmtree@@UEAA@XZ ENDP ; Palmtree::Math::Core::Internal::OverflowException::~OverflowException
_TEXT	ENDS
;	COMDAT text$x
text$x	SEGMENT
$T1 = 32
this$ = 64
?dtor$0@?0???1OverflowException@Internal@Core@Math@Palmtree@@UEAA@XZ@4HA PROC ; `Palmtree::Math::Core::Internal::OverflowException::~OverflowException'::`1'::dtor$0
  00000	48 8b 8a 40 00
	00 00		 mov	 rcx, QWORD PTR this$[rdx]
  00007	e9 00 00 00 00	 jmp	 ??1Exception@Internal@Core@Math@Palmtree@@UEAA@XZ ; Palmtree::Math::Core::Internal::Exception::~Exception
?dtor$0@?0???1OverflowException@Internal@Core@Math@Palmtree@@UEAA@XZ@4HA ENDP ; `Palmtree::Math::Core::Internal::OverflowException::~OverflowException'::`1'::dtor$0
text$x	ENDS
;	COMDAT text$x
text$x	SEGMENT
$T1 = 32
this$ = 64
?dtor$1@?0???1OverflowException@Internal@Core@Math@Palmtree@@UEAA@XZ@4HA PROC ; `Palmtree::Math::Core::Internal::OverflowException::~OverflowException'::`1'::dtor$1
  00000	48 8b 8a 40 00
	00 00		 mov	 rcx, QWORD PTR this$[rdx]
  00007	e9 00 00 00 00	 jmp	 ??1exception@std@@UEAA@XZ ; std::exception::~exception
?dtor$1@?0???1OverflowException@Internal@Core@Math@Palmtree@@UEAA@XZ@4HA ENDP ; `Palmtree::Math::Core::Internal::OverflowException::~OverflowException'::`1'::dtor$1
text$x	ENDS
; Function compile flags: /Ogtpy
;	COMDAT text$x
text$x	SEGMENT
$T1 = 32
this$ = 64
?dtor$0@?0???1OverflowException@Internal@Core@Math@Palmtree@@UEAA@XZ@4HA PROC ; `Palmtree::Math::Core::Internal::OverflowException::~OverflowException'::`1'::dtor$0
  00000	48 8b 8a 40 00
	00 00		 mov	 rcx, QWORD PTR this$[rdx]
  00007	e9 00 00 00 00	 jmp	 ??1Exception@Internal@Core@Math@Palmtree@@UEAA@XZ ; Palmtree::Math::Core::Internal::Exception::~Exception
?dtor$0@?0???1OverflowException@Internal@Core@Math@Palmtree@@UEAA@XZ@4HA ENDP ; `Palmtree::Math::Core::Internal::OverflowException::~OverflowException'::`1'::dtor$0
text$x	ENDS
; Function compile flags: /Ogtpy
;	COMDAT text$x
text$x	SEGMENT
$T1 = 32
this$ = 64
?dtor$1@?0???1OverflowException@Internal@Core@Math@Palmtree@@UEAA@XZ@4HA PROC ; `Palmtree::Math::Core::Internal::OverflowException::~OverflowException'::`1'::dtor$1
  00000	48 8b 8a 40 00
	00 00		 mov	 rcx, QWORD PTR this$[rdx]
  00007	e9 00 00 00 00	 jmp	 ??1exception@std@@UEAA@XZ ; std::exception::~exception
?dtor$1@?0???1OverflowException@Internal@Core@Math@Palmtree@@UEAA@XZ@4HA ENDP ; `Palmtree::Math::Core::Internal::OverflowException::~OverflowException'::`1'::dtor$1
text$x	ENDS
; Function compile flags: /Ogtpy
; File z:\sources\lunor\repos\rougemeilland\palmtree.math.core.uint\palmtree.math.core.uint\pmc_exception.h
; File c:\program files (x86)\microsoft visual studio\2017\community\vc\tools\msvc\14.16.27023\include\vcruntime_exception.h
; File z:\sources\lunor\repos\rougemeilland\palmtree.math.core.uint\palmtree.math.core.uint\pmc_exception.h
;	COMDAT ??0OverflowException@Internal@Core@Math@Palmtree@@QEAA@AEBV01234@@Z
_TEXT	SEGMENT
$T1 = 0
this$ = 32
p$ = 40
??0OverflowException@Internal@Core@Math@Palmtree@@QEAA@AEBV01234@@Z PROC ; Palmtree::Math::Core::Internal::OverflowException::OverflowException, COMDAT

; 158  :         {

$LN11:
  00000	48 89 4c 24 08	 mov	 QWORD PTR [rsp+8], rcx
  00005	48 83 ec 18	 sub	 rsp, 24
  00009	48 c7 04 24 fe
	ff ff ff	 mov	 QWORD PTR $T1[rsp], -2
; File c:\program files (x86)\microsoft visual studio\2017\community\vc\tools\msvc\14.16.27023\include\vcruntime_exception.h

; 50   :     {

  00011	48 8d 05 00 00
	00 00		 lea	 rax, OFFSET FLAT:??_7exception@std@@6B@
  00018	48 89 01	 mov	 QWORD PTR [rcx], rax

; 49   :         : _Data()

  0001b	33 c0		 xor	 eax, eax
  0001d	48 89 41 08	 mov	 QWORD PTR [rcx+8], rax
  00021	48 89 41 10	 mov	 QWORD PTR [rcx+16], rax
; File z:\sources\lunor\repos\rougemeilland\palmtree.math.core.uint\palmtree.math.core.uint\pmc_exception.h

; 62   :         Exception(const Exception& p) noexcept(true)

  00025	48 8d 05 00 00
	00 00		 lea	 rax, OFFSET FLAT:??_7Exception@Internal@Core@Math@Palmtree@@6B@
  0002c	48 89 01	 mov	 QWORD PTR [rcx], rax

; 63   :         {
; 64   :             _code = p._code;

  0002f	8b 42 18	 mov	 eax, DWORD PTR [rdx+24]
  00032	89 41 18	 mov	 DWORD PTR [rcx+24], eax

; 65   :             _message = p._message;

  00035	48 8b 42 20	 mov	 rax, QWORD PTR [rdx+32]
  00039	48 89 41 20	 mov	 QWORD PTR [rcx+32], rax

; 66   :             _data = p._data;

  0003d	48 8b 42 28	 mov	 rax, QWORD PTR [rdx+40]
  00041	48 89 41 28	 mov	 QWORD PTR [rcx+40], rax

; 158  :         {

  00045	48 8d 05 00 00
	00 00		 lea	 rax, OFFSET FLAT:??_7OverflowException@Internal@Core@Math@Palmtree@@6B@
  0004c	48 89 01	 mov	 QWORD PTR [rcx], rax

; 159  :         }

  0004f	48 8b c1	 mov	 rax, rcx
  00052	48 83 c4 18	 add	 rsp, 24
  00056	c3		 ret	 0
??0OverflowException@Internal@Core@Math@Palmtree@@QEAA@AEBV01234@@Z ENDP ; Palmtree::Math::Core::Internal::OverflowException::OverflowException
_TEXT	ENDS
;	COMDAT text$x
text$x	SEGMENT
$T1 = 0
this$ = 32
p$ = 40
?dtor$1@?0???0OverflowException@Internal@Core@Math@Palmtree@@QEAA@AEBV01234@@Z@4HA PROC ; `Palmtree::Math::Core::Internal::OverflowException::OverflowException'::`1'::dtor$1
  00000	48 8b 8a 20 00
	00 00		 mov	 rcx, QWORD PTR this$[rdx]
  00007	e9 00 00 00 00	 jmp	 ??1exception@std@@UEAA@XZ ; std::exception::~exception
?dtor$1@?0???0OverflowException@Internal@Core@Math@Palmtree@@QEAA@AEBV01234@@Z@4HA ENDP ; `Palmtree::Math::Core::Internal::OverflowException::OverflowException'::`1'::dtor$1
text$x	ENDS
;	COMDAT text$x
text$x	SEGMENT
$T1 = 0
this$ = 32
p$ = 40
?dtor$0@?0???0OverflowException@Internal@Core@Math@Palmtree@@QEAA@AEBV01234@@Z@4HA PROC ; `Palmtree::Math::Core::Internal::OverflowException::OverflowException'::`1'::dtor$0
  00000	48 8b 8a 20 00
	00 00		 mov	 rcx, QWORD PTR this$[rdx]
  00007	e9 00 00 00 00	 jmp	 ??1Exception@Internal@Core@Math@Palmtree@@UEAA@XZ ; Palmtree::Math::Core::Internal::Exception::~Exception
?dtor$0@?0???0OverflowException@Internal@Core@Math@Palmtree@@QEAA@AEBV01234@@Z@4HA ENDP ; `Palmtree::Math::Core::Internal::OverflowException::OverflowException'::`1'::dtor$0
text$x	ENDS
; Function compile flags: /Ogtpy
;	COMDAT text$x
text$x	SEGMENT
$T1 = 0
this$ = 32
p$ = 40
?dtor$1@?0???0OverflowException@Internal@Core@Math@Palmtree@@QEAA@AEBV01234@@Z@4HA PROC ; `Palmtree::Math::Core::Internal::OverflowException::OverflowException'::`1'::dtor$1
  00000	48 8b 8a 20 00
	00 00		 mov	 rcx, QWORD PTR this$[rdx]
  00007	e9 00 00 00 00	 jmp	 ??1exception@std@@UEAA@XZ ; std::exception::~exception
?dtor$1@?0???0OverflowException@Internal@Core@Math@Palmtree@@QEAA@AEBV01234@@Z@4HA ENDP ; `Palmtree::Math::Core::Internal::OverflowException::OverflowException'::`1'::dtor$1
text$x	ENDS
; Function compile flags: /Ogtpy
;	COMDAT text$x
text$x	SEGMENT
$T1 = 0
this$ = 32
p$ = 40
?dtor$0@?0???0OverflowException@Internal@Core@Math@Palmtree@@QEAA@AEBV01234@@Z@4HA PROC ; `Palmtree::Math::Core::Internal::OverflowException::OverflowException'::`1'::dtor$0
  00000	48 8b 8a 20 00
	00 00		 mov	 rcx, QWORD PTR this$[rdx]
  00007	e9 00 00 00 00	 jmp	 ??1Exception@Internal@Core@Math@Palmtree@@UEAA@XZ ; Palmtree::Math::Core::Internal::Exception::~Exception
?dtor$0@?0???0OverflowException@Internal@Core@Math@Palmtree@@QEAA@AEBV01234@@Z@4HA ENDP ; `Palmtree::Math::Core::Internal::OverflowException::OverflowException'::`1'::dtor$0
text$x	ENDS
; Function compile flags: /Ogtpy
; File z:\sources\lunor\repos\rougemeilland\palmtree.math.core.uint\palmtree.math.core.uint\pmc_exception.h
; File c:\program files (x86)\microsoft visual studio\2017\community\vc\tools\msvc\14.16.27023\include\vcruntime_exception.h
; File z:\sources\lunor\repos\rougemeilland\palmtree.math.core.uint\palmtree.math.core.uint\pmc_exception.h
;	COMDAT ??0OverflowException@Internal@Core@Math@Palmtree@@QEAA@PEB_W@Z
_TEXT	SEGMENT
$T1 = 0
this$ = 32
message$ = 40
??0OverflowException@Internal@Core@Math@Palmtree@@QEAA@PEB_W@Z PROC ; Palmtree::Math::Core::Internal::OverflowException::OverflowException, COMDAT

; 153  :         {

$LN11:
  00000	48 89 4c 24 08	 mov	 QWORD PTR [rsp+8], rcx
  00005	48 83 ec 18	 sub	 rsp, 24
  00009	48 c7 04 24 fe
	ff ff ff	 mov	 QWORD PTR $T1[rsp], -2
; File c:\program files (x86)\microsoft visual studio\2017\community\vc\tools\msvc\14.16.27023\include\vcruntime_exception.h

; 50   :     {

  00011	48 8d 05 00 00
	00 00		 lea	 rax, OFFSET FLAT:??_7exception@std@@6B@
  00018	48 89 01	 mov	 QWORD PTR [rcx], rax

; 49   :         : _Data()

  0001b	33 c0		 xor	 eax, eax
  0001d	48 89 41 08	 mov	 QWORD PTR [rcx+8], rax
  00021	48 89 41 10	 mov	 QWORD PTR [rcx+16], rax
; File z:\sources\lunor\repos\rougemeilland\palmtree.math.core.uint\palmtree.math.core.uint\pmc_exception.h

; 47   :         Exception(PMC_STATUS_CODE code, const wchar_t* message) noexcept(true)

  00025	48 8d 05 00 00
	00 00		 lea	 rax, OFFSET FLAT:??_7Exception@Internal@Core@Math@Palmtree@@6B@
  0002c	48 89 01	 mov	 QWORD PTR [rcx], rax

; 48   :         {
; 49   :             _code = code;

  0002f	c7 41 18 fc ff
	ff ff		 mov	 DWORD PTR [rcx+24], -4

; 50   :             _message = message;

  00036	48 89 51 20	 mov	 QWORD PTR [rcx+32], rdx

; 51   :             _data = nullptr;

  0003a	48 c7 41 28 00
	00 00 00	 mov	 QWORD PTR [rcx+40], 0

; 153  :         {

  00042	48 8d 05 00 00
	00 00		 lea	 rax, OFFSET FLAT:??_7OverflowException@Internal@Core@Math@Palmtree@@6B@
  00049	48 89 01	 mov	 QWORD PTR [rcx], rax

; 154  :         }

  0004c	48 8b c1	 mov	 rax, rcx
  0004f	48 83 c4 18	 add	 rsp, 24
  00053	c3		 ret	 0
??0OverflowException@Internal@Core@Math@Palmtree@@QEAA@PEB_W@Z ENDP ; Palmtree::Math::Core::Internal::OverflowException::OverflowException
_TEXT	ENDS
;	COMDAT text$x
text$x	SEGMENT
$T1 = 0
this$ = 32
message$ = 40
?dtor$1@?0???0OverflowException@Internal@Core@Math@Palmtree@@QEAA@PEB_W@Z@4HA PROC ; `Palmtree::Math::Core::Internal::OverflowException::OverflowException'::`1'::dtor$1
  00000	48 8b 8a 20 00
	00 00		 mov	 rcx, QWORD PTR this$[rdx]
  00007	e9 00 00 00 00	 jmp	 ??1exception@std@@UEAA@XZ ; std::exception::~exception
?dtor$1@?0???0OverflowException@Internal@Core@Math@Palmtree@@QEAA@PEB_W@Z@4HA ENDP ; `Palmtree::Math::Core::Internal::OverflowException::OverflowException'::`1'::dtor$1
text$x	ENDS
;	COMDAT text$x
text$x	SEGMENT
$T1 = 0
this$ = 32
message$ = 40
?dtor$0@?0???0OverflowException@Internal@Core@Math@Palmtree@@QEAA@PEB_W@Z@4HA PROC ; `Palmtree::Math::Core::Internal::OverflowException::OverflowException'::`1'::dtor$0
  00000	48 8b 8a 20 00
	00 00		 mov	 rcx, QWORD PTR this$[rdx]
  00007	e9 00 00 00 00	 jmp	 ??1Exception@Internal@Core@Math@Palmtree@@UEAA@XZ ; Palmtree::Math::Core::Internal::Exception::~Exception
?dtor$0@?0???0OverflowException@Internal@Core@Math@Palmtree@@QEAA@PEB_W@Z@4HA ENDP ; `Palmtree::Math::Core::Internal::OverflowException::OverflowException'::`1'::dtor$0
text$x	ENDS
; Function compile flags: /Ogtpy
;	COMDAT text$x
text$x	SEGMENT
$T1 = 0
this$ = 32
message$ = 40
?dtor$1@?0???0OverflowException@Internal@Core@Math@Palmtree@@QEAA@PEB_W@Z@4HA PROC ; `Palmtree::Math::Core::Internal::OverflowException::OverflowException'::`1'::dtor$1
  00000	48 8b 8a 20 00
	00 00		 mov	 rcx, QWORD PTR this$[rdx]
  00007	e9 00 00 00 00	 jmp	 ??1exception@std@@UEAA@XZ ; std::exception::~exception
?dtor$1@?0???0OverflowException@Internal@Core@Math@Palmtree@@QEAA@PEB_W@Z@4HA ENDP ; `Palmtree::Math::Core::Internal::OverflowException::OverflowException'::`1'::dtor$1
text$x	ENDS
; Function compile flags: /Ogtpy
;	COMDAT text$x
text$x	SEGMENT
$T1 = 0
this$ = 32
message$ = 40
?dtor$0@?0???0OverflowException@Internal@Core@Math@Palmtree@@QEAA@PEB_W@Z@4HA PROC ; `Palmtree::Math::Core::Internal::OverflowException::OverflowException'::`1'::dtor$0
  00000	48 8b 8a 20 00
	00 00		 mov	 rcx, QWORD PTR this$[rdx]
  00007	e9 00 00 00 00	 jmp	 ??1Exception@Internal@Core@Math@Palmtree@@UEAA@XZ ; Palmtree::Math::Core::Internal::Exception::~Exception
?dtor$0@?0???0OverflowException@Internal@Core@Math@Palmtree@@QEAA@PEB_W@Z@4HA ENDP ; `Palmtree::Math::Core::Internal::OverflowException::OverflowException'::`1'::dtor$0
text$x	ENDS
; Function compile flags: /Ogtpy
; File z:\sources\lunor\repos\rougemeilland\palmtree.math.core.uint\palmtree.math.core.uint\pmc_exception.h
; File c:\program files (x86)\microsoft visual studio\2017\community\vc\tools\msvc\14.16.27023\include\vcruntime_exception.h
;	COMDAT ??_GArgumentNullException@Internal@Core@Math@Palmtree@@UEAAPEAXI@Z
_TEXT	SEGMENT
$T1 = 32
this$ = 64
__flags$ = 72
??_GArgumentNullException@Internal@Core@Math@Palmtree@@UEAAPEAXI@Z PROC ; Palmtree::Math::Core::Internal::ArgumentNullException::`scalar deleting destructor', COMDAT
$LN15:
  00000	48 89 4c 24 08	 mov	 QWORD PTR [rsp+8], rcx
  00005	57		 push	 rdi
  00006	48 83 ec 30	 sub	 rsp, 48			; 00000030H
  0000a	48 c7 44 24 20
	fe ff ff ff	 mov	 QWORD PTR $T1[rsp], -2
  00013	48 89 5c 24 48	 mov	 QWORD PTR [rsp+72], rbx
  00018	8b da		 mov	 ebx, edx
  0001a	48 8b f9	 mov	 rdi, rcx
; File z:\sources\lunor\repos\rougemeilland\palmtree.math.core.uint\palmtree.math.core.uint\pmc_exception.h

; 124  :         {

  0001d	48 8d 05 00 00
	00 00		 lea	 rax, OFFSET FLAT:??_7ArgumentNullException@Internal@Core@Math@Palmtree@@6B@
  00024	48 89 01	 mov	 QWORD PTR [rcx], rax

; 70   :         {

  00027	48 8d 05 00 00
	00 00		 lea	 rax, OFFSET FLAT:??_7Exception@Internal@Core@Math@Palmtree@@6B@
  0002e	48 89 01	 mov	 QWORD PTR [rcx], rax
; File c:\program files (x86)\microsoft visual studio\2017\community\vc\tools\msvc\14.16.27023\include\vcruntime_exception.h

; 85   :     {

  00031	48 8d 05 00 00
	00 00		 lea	 rax, OFFSET FLAT:??_7exception@std@@6B@
  00038	48 89 01	 mov	 QWORD PTR [rcx], rax

; 86   :         __std_exception_destroy(&_Data);

  0003b	48 83 c1 08	 add	 rcx, 8
  0003f	e8 00 00 00 00	 call	 __std_exception_destroy
  00044	90		 npad	 1
  00045	f6 c3 01	 test	 bl, 1
  00048	74 0e		 je	 SHORT $LN12@scalar
  0004a	ba 30 00 00 00	 mov	 edx, 48			; 00000030H
  0004f	48 8b cf	 mov	 rcx, rdi
  00052	e8 00 00 00 00	 call	 ??3@YAXPEAX_K@Z		; operator delete
  00057	90		 npad	 1
$LN12@scalar:
  00058	48 8b c7	 mov	 rax, rdi
  0005b	48 8b 5c 24 48	 mov	 rbx, QWORD PTR [rsp+72]
  00060	48 83 c4 30	 add	 rsp, 48			; 00000030H
  00064	5f		 pop	 rdi
  00065	c3		 ret	 0
??_GArgumentNullException@Internal@Core@Math@Palmtree@@UEAAPEAXI@Z ENDP ; Palmtree::Math::Core::Internal::ArgumentNullException::`scalar deleting destructor'
_TEXT	ENDS
;	COMDAT text$x
text$x	SEGMENT
$T1 = 32
this$ = 64
__flags$ = 72
?dtor$0@?0???_GArgumentNullException@Internal@Core@Math@Palmtree@@UEAAPEAXI@Z@4HA PROC ; `Palmtree::Math::Core::Internal::ArgumentNullException::`scalar deleting destructor''::`1'::dtor$0
  00000	48 8b 8a 40 00
	00 00		 mov	 rcx, QWORD PTR this$[rdx]
  00007	e9 00 00 00 00	 jmp	 ??1Exception@Internal@Core@Math@Palmtree@@UEAA@XZ ; Palmtree::Math::Core::Internal::Exception::~Exception
?dtor$0@?0???_GArgumentNullException@Internal@Core@Math@Palmtree@@UEAAPEAXI@Z@4HA ENDP ; `Palmtree::Math::Core::Internal::ArgumentNullException::`scalar deleting destructor''::`1'::dtor$0
text$x	ENDS
;	COMDAT text$x
text$x	SEGMENT
$T1 = 32
this$ = 64
__flags$ = 72
?dtor$1@?0???_GArgumentNullException@Internal@Core@Math@Palmtree@@UEAAPEAXI@Z@4HA PROC ; `Palmtree::Math::Core::Internal::ArgumentNullException::`scalar deleting destructor''::`1'::dtor$1
  00000	48 8b 8a 40 00
	00 00		 mov	 rcx, QWORD PTR this$[rdx]
  00007	e9 00 00 00 00	 jmp	 ??1exception@std@@UEAA@XZ ; std::exception::~exception
?dtor$1@?0???_GArgumentNullException@Internal@Core@Math@Palmtree@@UEAAPEAXI@Z@4HA ENDP ; `Palmtree::Math::Core::Internal::ArgumentNullException::`scalar deleting destructor''::`1'::dtor$1
text$x	ENDS
; Function compile flags: /Ogtpy
;	COMDAT text$x
text$x	SEGMENT
$T1 = 32
this$ = 64
__flags$ = 72
?dtor$0@?0???_GArgumentNullException@Internal@Core@Math@Palmtree@@UEAAPEAXI@Z@4HA PROC ; `Palmtree::Math::Core::Internal::ArgumentNullException::`scalar deleting destructor''::`1'::dtor$0
  00000	48 8b 8a 40 00
	00 00		 mov	 rcx, QWORD PTR this$[rdx]
  00007	e9 00 00 00 00	 jmp	 ??1Exception@Internal@Core@Math@Palmtree@@UEAA@XZ ; Palmtree::Math::Core::Internal::Exception::~Exception
?dtor$0@?0???_GArgumentNullException@Internal@Core@Math@Palmtree@@UEAAPEAXI@Z@4HA ENDP ; `Palmtree::Math::Core::Internal::ArgumentNullException::`scalar deleting destructor''::`1'::dtor$0
text$x	ENDS
; Function compile flags: /Ogtpy
;	COMDAT text$x
text$x	SEGMENT
$T1 = 32
this$ = 64
__flags$ = 72
?dtor$1@?0???_GArgumentNullException@Internal@Core@Math@Palmtree@@UEAAPEAXI@Z@4HA PROC ; `Palmtree::Math::Core::Internal::ArgumentNullException::`scalar deleting destructor''::`1'::dtor$1
  00000	48 8b 8a 40 00
	00 00		 mov	 rcx, QWORD PTR this$[rdx]
  00007	e9 00 00 00 00	 jmp	 ??1exception@std@@UEAA@XZ ; std::exception::~exception
?dtor$1@?0???_GArgumentNullException@Internal@Core@Math@Palmtree@@UEAAPEAXI@Z@4HA ENDP ; `Palmtree::Math::Core::Internal::ArgumentNullException::`scalar deleting destructor''::`1'::dtor$1
text$x	ENDS
; Function compile flags: /Ogtpy
; File z:\sources\lunor\repos\rougemeilland\palmtree.math.core.uint\palmtree.math.core.uint\pmc_exception.h
; File c:\program files (x86)\microsoft visual studio\2017\community\vc\tools\msvc\14.16.27023\include\vcruntime_exception.h
; File z:\sources\lunor\repos\rougemeilland\palmtree.math.core.uint\palmtree.math.core.uint\pmc_exception.h
;	COMDAT ??1ArgumentNullException@Internal@Core@Math@Palmtree@@UEAA@XZ
_TEXT	SEGMENT
$T1 = 32
this$ = 64
??1ArgumentNullException@Internal@Core@Math@Palmtree@@UEAA@XZ PROC ; Palmtree::Math::Core::Internal::ArgumentNullException::~ArgumentNullException, COMDAT

; 124  :         {

$LN11:
  00000	48 89 4c 24 08	 mov	 QWORD PTR [rsp+8], rcx
  00005	48 83 ec 38	 sub	 rsp, 56			; 00000038H
  00009	48 c7 44 24 20
	fe ff ff ff	 mov	 QWORD PTR $T1[rsp], -2
  00012	48 8d 05 00 00
	00 00		 lea	 rax, OFFSET FLAT:??_7ArgumentNullException@Internal@Core@Math@Palmtree@@6B@
  00019	48 89 01	 mov	 QWORD PTR [rcx], rax

; 70   :         {

  0001c	48 8d 05 00 00
	00 00		 lea	 rax, OFFSET FLAT:??_7Exception@Internal@Core@Math@Palmtree@@6B@
  00023	48 89 01	 mov	 QWORD PTR [rcx], rax
; File c:\program files (x86)\microsoft visual studio\2017\community\vc\tools\msvc\14.16.27023\include\vcruntime_exception.h

; 85   :     {

  00026	48 8d 05 00 00
	00 00		 lea	 rax, OFFSET FLAT:??_7exception@std@@6B@
  0002d	48 89 01	 mov	 QWORD PTR [rcx], rax

; 86   :         __std_exception_destroy(&_Data);

  00030	48 83 c1 08	 add	 rcx, 8
  00034	e8 00 00 00 00	 call	 __std_exception_destroy
  00039	90		 npad	 1
; File z:\sources\lunor\repos\rougemeilland\palmtree.math.core.uint\palmtree.math.core.uint\pmc_exception.h

; 125  :         }

  0003a	48 83 c4 38	 add	 rsp, 56			; 00000038H
  0003e	c3		 ret	 0
??1ArgumentNullException@Internal@Core@Math@Palmtree@@UEAA@XZ ENDP ; Palmtree::Math::Core::Internal::ArgumentNullException::~ArgumentNullException
_TEXT	ENDS
;	COMDAT text$x
text$x	SEGMENT
$T1 = 32
this$ = 64
?dtor$0@?0???1ArgumentNullException@Internal@Core@Math@Palmtree@@UEAA@XZ@4HA PROC ; `Palmtree::Math::Core::Internal::ArgumentNullException::~ArgumentNullException'::`1'::dtor$0
  00000	48 8b 8a 40 00
	00 00		 mov	 rcx, QWORD PTR this$[rdx]
  00007	e9 00 00 00 00	 jmp	 ??1Exception@Internal@Core@Math@Palmtree@@UEAA@XZ ; Palmtree::Math::Core::Internal::Exception::~Exception
?dtor$0@?0???1ArgumentNullException@Internal@Core@Math@Palmtree@@UEAA@XZ@4HA ENDP ; `Palmtree::Math::Core::Internal::ArgumentNullException::~ArgumentNullException'::`1'::dtor$0
text$x	ENDS
;	COMDAT text$x
text$x	SEGMENT
$T1 = 32
this$ = 64
?dtor$1@?0???1ArgumentNullException@Internal@Core@Math@Palmtree@@UEAA@XZ@4HA PROC ; `Palmtree::Math::Core::Internal::ArgumentNullException::~ArgumentNullException'::`1'::dtor$1
  00000	48 8b 8a 40 00
	00 00		 mov	 rcx, QWORD PTR this$[rdx]
  00007	e9 00 00 00 00	 jmp	 ??1exception@std@@UEAA@XZ ; std::exception::~exception
?dtor$1@?0???1ArgumentNullException@Internal@Core@Math@Palmtree@@UEAA@XZ@4HA ENDP ; `Palmtree::Math::Core::Internal::ArgumentNullException::~ArgumentNullException'::`1'::dtor$1
text$x	ENDS
; Function compile flags: /Ogtpy
;	COMDAT text$x
text$x	SEGMENT
$T1 = 32
this$ = 64
?dtor$0@?0???1ArgumentNullException@Internal@Core@Math@Palmtree@@UEAA@XZ@4HA PROC ; `Palmtree::Math::Core::Internal::ArgumentNullException::~ArgumentNullException'::`1'::dtor$0
  00000	48 8b 8a 40 00
	00 00		 mov	 rcx, QWORD PTR this$[rdx]
  00007	e9 00 00 00 00	 jmp	 ??1Exception@Internal@Core@Math@Palmtree@@UEAA@XZ ; Palmtree::Math::Core::Internal::Exception::~Exception
?dtor$0@?0???1ArgumentNullException@Internal@Core@Math@Palmtree@@UEAA@XZ@4HA ENDP ; `Palmtree::Math::Core::Internal::ArgumentNullException::~ArgumentNullException'::`1'::dtor$0
text$x	ENDS
; Function compile flags: /Ogtpy
;	COMDAT text$x
text$x	SEGMENT
$T1 = 32
this$ = 64
?dtor$1@?0???1ArgumentNullException@Internal@Core@Math@Palmtree@@UEAA@XZ@4HA PROC ; `Palmtree::Math::Core::Internal::ArgumentNullException::~ArgumentNullException'::`1'::dtor$1
  00000	48 8b 8a 40 00
	00 00		 mov	 rcx, QWORD PTR this$[rdx]
  00007	e9 00 00 00 00	 jmp	 ??1exception@std@@UEAA@XZ ; std::exception::~exception
?dtor$1@?0???1ArgumentNullException@Internal@Core@Math@Palmtree@@UEAA@XZ@4HA ENDP ; `Palmtree::Math::Core::Internal::ArgumentNullException::~ArgumentNullException'::`1'::dtor$1
text$x	ENDS
; Function compile flags: /Ogtpy
; File z:\sources\lunor\repos\rougemeilland\palmtree.math.core.uint\palmtree.math.core.uint\pmc_exception.h
; File c:\program files (x86)\microsoft visual studio\2017\community\vc\tools\msvc\14.16.27023\include\vcruntime_exception.h
; File z:\sources\lunor\repos\rougemeilland\palmtree.math.core.uint\palmtree.math.core.uint\pmc_exception.h
;	COMDAT ??0ArgumentNullException@Internal@Core@Math@Palmtree@@QEAA@AEBV01234@@Z
_TEXT	SEGMENT
$T1 = 0
this$ = 32
p$ = 40
??0ArgumentNullException@Internal@Core@Math@Palmtree@@QEAA@AEBV01234@@Z PROC ; Palmtree::Math::Core::Internal::ArgumentNullException::ArgumentNullException, COMDAT

; 120  :         {

$LN11:
  00000	48 89 4c 24 08	 mov	 QWORD PTR [rsp+8], rcx
  00005	48 83 ec 18	 sub	 rsp, 24
  00009	48 c7 04 24 fe
	ff ff ff	 mov	 QWORD PTR $T1[rsp], -2
; File c:\program files (x86)\microsoft visual studio\2017\community\vc\tools\msvc\14.16.27023\include\vcruntime_exception.h

; 50   :     {

  00011	48 8d 05 00 00
	00 00		 lea	 rax, OFFSET FLAT:??_7exception@std@@6B@
  00018	48 89 01	 mov	 QWORD PTR [rcx], rax

; 49   :         : _Data()

  0001b	33 c0		 xor	 eax, eax
  0001d	48 89 41 08	 mov	 QWORD PTR [rcx+8], rax
  00021	48 89 41 10	 mov	 QWORD PTR [rcx+16], rax
; File z:\sources\lunor\repos\rougemeilland\palmtree.math.core.uint\palmtree.math.core.uint\pmc_exception.h

; 62   :         Exception(const Exception& p) noexcept(true)

  00025	48 8d 05 00 00
	00 00		 lea	 rax, OFFSET FLAT:??_7Exception@Internal@Core@Math@Palmtree@@6B@
  0002c	48 89 01	 mov	 QWORD PTR [rcx], rax

; 63   :         {
; 64   :             _code = p._code;

  0002f	8b 42 18	 mov	 eax, DWORD PTR [rdx+24]
  00032	89 41 18	 mov	 DWORD PTR [rcx+24], eax

; 65   :             _message = p._message;

  00035	48 8b 42 20	 mov	 rax, QWORD PTR [rdx+32]
  00039	48 89 41 20	 mov	 QWORD PTR [rcx+32], rax

; 66   :             _data = p._data;

  0003d	48 8b 42 28	 mov	 rax, QWORD PTR [rdx+40]
  00041	48 89 41 28	 mov	 QWORD PTR [rcx+40], rax

; 120  :         {

  00045	48 8d 05 00 00
	00 00		 lea	 rax, OFFSET FLAT:??_7ArgumentNullException@Internal@Core@Math@Palmtree@@6B@
  0004c	48 89 01	 mov	 QWORD PTR [rcx], rax

; 121  :         }

  0004f	48 8b c1	 mov	 rax, rcx
  00052	48 83 c4 18	 add	 rsp, 24
  00056	c3		 ret	 0
??0ArgumentNullException@Internal@Core@Math@Palmtree@@QEAA@AEBV01234@@Z ENDP ; Palmtree::Math::Core::Internal::ArgumentNullException::ArgumentNullException
_TEXT	ENDS
;	COMDAT text$x
text$x	SEGMENT
$T1 = 0
this$ = 32
p$ = 40
?dtor$1@?0???0ArgumentNullException@Internal@Core@Math@Palmtree@@QEAA@AEBV01234@@Z@4HA PROC ; `Palmtree::Math::Core::Internal::ArgumentNullException::ArgumentNullException'::`1'::dtor$1
  00000	48 8b 8a 20 00
	00 00		 mov	 rcx, QWORD PTR this$[rdx]
  00007	e9 00 00 00 00	 jmp	 ??1exception@std@@UEAA@XZ ; std::exception::~exception
?dtor$1@?0???0ArgumentNullException@Internal@Core@Math@Palmtree@@QEAA@AEBV01234@@Z@4HA ENDP ; `Palmtree::Math::Core::Internal::ArgumentNullException::ArgumentNullException'::`1'::dtor$1
text$x	ENDS
;	COMDAT text$x
text$x	SEGMENT
$T1 = 0
this$ = 32
p$ = 40
?dtor$0@?0???0ArgumentNullException@Internal@Core@Math@Palmtree@@QEAA@AEBV01234@@Z@4HA PROC ; `Palmtree::Math::Core::Internal::ArgumentNullException::ArgumentNullException'::`1'::dtor$0
  00000	48 8b 8a 20 00
	00 00		 mov	 rcx, QWORD PTR this$[rdx]
  00007	e9 00 00 00 00	 jmp	 ??1Exception@Internal@Core@Math@Palmtree@@UEAA@XZ ; Palmtree::Math::Core::Internal::Exception::~Exception
?dtor$0@?0???0ArgumentNullException@Internal@Core@Math@Palmtree@@QEAA@AEBV01234@@Z@4HA ENDP ; `Palmtree::Math::Core::Internal::ArgumentNullException::ArgumentNullException'::`1'::dtor$0
text$x	ENDS
; Function compile flags: /Ogtpy
;	COMDAT text$x
text$x	SEGMENT
$T1 = 0
this$ = 32
p$ = 40
?dtor$1@?0???0ArgumentNullException@Internal@Core@Math@Palmtree@@QEAA@AEBV01234@@Z@4HA PROC ; `Palmtree::Math::Core::Internal::ArgumentNullException::ArgumentNullException'::`1'::dtor$1
  00000	48 8b 8a 20 00
	00 00		 mov	 rcx, QWORD PTR this$[rdx]
  00007	e9 00 00 00 00	 jmp	 ??1exception@std@@UEAA@XZ ; std::exception::~exception
?dtor$1@?0???0ArgumentNullException@Internal@Core@Math@Palmtree@@QEAA@AEBV01234@@Z@4HA ENDP ; `Palmtree::Math::Core::Internal::ArgumentNullException::ArgumentNullException'::`1'::dtor$1
text$x	ENDS
; Function compile flags: /Ogtpy
;	COMDAT text$x
text$x	SEGMENT
$T1 = 0
this$ = 32
p$ = 40
?dtor$0@?0???0ArgumentNullException@Internal@Core@Math@Palmtree@@QEAA@AEBV01234@@Z@4HA PROC ; `Palmtree::Math::Core::Internal::ArgumentNullException::ArgumentNullException'::`1'::dtor$0
  00000	48 8b 8a 20 00
	00 00		 mov	 rcx, QWORD PTR this$[rdx]
  00007	e9 00 00 00 00	 jmp	 ??1Exception@Internal@Core@Math@Palmtree@@UEAA@XZ ; Palmtree::Math::Core::Internal::Exception::~Exception
?dtor$0@?0???0ArgumentNullException@Internal@Core@Math@Palmtree@@QEAA@AEBV01234@@Z@4HA ENDP ; `Palmtree::Math::Core::Internal::ArgumentNullException::ArgumentNullException'::`1'::dtor$0
text$x	ENDS
; Function compile flags: /Ogtpy
; File z:\sources\lunor\repos\rougemeilland\palmtree.math.core.uint\palmtree.math.core.uint\pmc_exception.h
; File c:\program files (x86)\microsoft visual studio\2017\community\vc\tools\msvc\14.16.27023\include\vcruntime_exception.h
; File z:\sources\lunor\repos\rougemeilland\palmtree.math.core.uint\palmtree.math.core.uint\pmc_exception.h
;	COMDAT ??0ArgumentNullException@Internal@Core@Math@Palmtree@@QEAA@PEB_W0@Z
_TEXT	SEGMENT
$T1 = 0
this$ = 32
message$ = 40
param_name$ = 48
??0ArgumentNullException@Internal@Core@Math@Palmtree@@QEAA@PEB_W0@Z PROC ; Palmtree::Math::Core::Internal::ArgumentNullException::ArgumentNullException, COMDAT

; 115  :         {

$LN11:
  00000	48 89 4c 24 08	 mov	 QWORD PTR [rsp+8], rcx
  00005	48 83 ec 18	 sub	 rsp, 24
  00009	48 c7 04 24 fe
	ff ff ff	 mov	 QWORD PTR $T1[rsp], -2
; File c:\program files (x86)\microsoft visual studio\2017\community\vc\tools\msvc\14.16.27023\include\vcruntime_exception.h

; 50   :     {

  00011	48 8d 05 00 00
	00 00		 lea	 rax, OFFSET FLAT:??_7exception@std@@6B@
  00018	48 89 01	 mov	 QWORD PTR [rcx], rax

; 49   :         : _Data()

  0001b	33 c0		 xor	 eax, eax
  0001d	48 89 41 08	 mov	 QWORD PTR [rcx+8], rax
  00021	48 89 41 10	 mov	 QWORD PTR [rcx+16], rax
; File z:\sources\lunor\repos\rougemeilland\palmtree.math.core.uint\palmtree.math.core.uint\pmc_exception.h

; 54   :         Exception(PMC_STATUS_CODE code, const wchar_t* message, const wchar_t* data) noexcept(true)

  00025	48 8d 05 00 00
	00 00		 lea	 rax, OFFSET FLAT:??_7Exception@Internal@Core@Math@Palmtree@@6B@
  0002c	48 89 01	 mov	 QWORD PTR [rcx], rax

; 55   :         {
; 56   :             _code = code;

  0002f	c7 41 18 fe ff
	ff ff		 mov	 DWORD PTR [rcx+24], -2

; 57   :             _message = message;

  00036	48 89 51 20	 mov	 QWORD PTR [rcx+32], rdx

; 58   :             _data = data;

  0003a	4c 89 41 28	 mov	 QWORD PTR [rcx+40], r8

; 115  :         {

  0003e	48 8d 05 00 00
	00 00		 lea	 rax, OFFSET FLAT:??_7ArgumentNullException@Internal@Core@Math@Palmtree@@6B@
  00045	48 89 01	 mov	 QWORD PTR [rcx], rax

; 116  :         }

  00048	48 8b c1	 mov	 rax, rcx
  0004b	48 83 c4 18	 add	 rsp, 24
  0004f	c3		 ret	 0
??0ArgumentNullException@Internal@Core@Math@Palmtree@@QEAA@PEB_W0@Z ENDP ; Palmtree::Math::Core::Internal::ArgumentNullException::ArgumentNullException
_TEXT	ENDS
;	COMDAT text$x
text$x	SEGMENT
$T1 = 0
this$ = 32
message$ = 40
param_name$ = 48
?dtor$1@?0???0ArgumentNullException@Internal@Core@Math@Palmtree@@QEAA@PEB_W0@Z@4HA PROC ; `Palmtree::Math::Core::Internal::ArgumentNullException::ArgumentNullException'::`1'::dtor$1
  00000	48 8b 8a 20 00
	00 00		 mov	 rcx, QWORD PTR this$[rdx]
  00007	e9 00 00 00 00	 jmp	 ??1exception@std@@UEAA@XZ ; std::exception::~exception
?dtor$1@?0???0ArgumentNullException@Internal@Core@Math@Palmtree@@QEAA@PEB_W0@Z@4HA ENDP ; `Palmtree::Math::Core::Internal::ArgumentNullException::ArgumentNullException'::`1'::dtor$1
text$x	ENDS
;	COMDAT text$x
text$x	SEGMENT
$T1 = 0
this$ = 32
message$ = 40
param_name$ = 48
?dtor$0@?0???0ArgumentNullException@Internal@Core@Math@Palmtree@@QEAA@PEB_W0@Z@4HA PROC ; `Palmtree::Math::Core::Internal::ArgumentNullException::ArgumentNullException'::`1'::dtor$0
  00000	48 8b 8a 20 00
	00 00		 mov	 rcx, QWORD PTR this$[rdx]
  00007	e9 00 00 00 00	 jmp	 ??1Exception@Internal@Core@Math@Palmtree@@UEAA@XZ ; Palmtree::Math::Core::Internal::Exception::~Exception
?dtor$0@?0???0ArgumentNullException@Internal@Core@Math@Palmtree@@QEAA@PEB_W0@Z@4HA ENDP ; `Palmtree::Math::Core::Internal::ArgumentNullException::ArgumentNullException'::`1'::dtor$0
text$x	ENDS
; Function compile flags: /Ogtpy
;	COMDAT text$x
text$x	SEGMENT
$T1 = 0
this$ = 32
message$ = 40
param_name$ = 48
?dtor$1@?0???0ArgumentNullException@Internal@Core@Math@Palmtree@@QEAA@PEB_W0@Z@4HA PROC ; `Palmtree::Math::Core::Internal::ArgumentNullException::ArgumentNullException'::`1'::dtor$1
  00000	48 8b 8a 20 00
	00 00		 mov	 rcx, QWORD PTR this$[rdx]
  00007	e9 00 00 00 00	 jmp	 ??1exception@std@@UEAA@XZ ; std::exception::~exception
?dtor$1@?0???0ArgumentNullException@Internal@Core@Math@Palmtree@@QEAA@PEB_W0@Z@4HA ENDP ; `Palmtree::Math::Core::Internal::ArgumentNullException::ArgumentNullException'::`1'::dtor$1
text$x	ENDS
; Function compile flags: /Ogtpy
;	COMDAT text$x
text$x	SEGMENT
$T1 = 0
this$ = 32
message$ = 40
param_name$ = 48
?dtor$0@?0???0ArgumentNullException@Internal@Core@Math@Palmtree@@QEAA@PEB_W0@Z@4HA PROC ; `Palmtree::Math::Core::Internal::ArgumentNullException::ArgumentNullException'::`1'::dtor$0
  00000	48 8b 8a 20 00
	00 00		 mov	 rcx, QWORD PTR this$[rdx]
  00007	e9 00 00 00 00	 jmp	 ??1Exception@Internal@Core@Math@Palmtree@@UEAA@XZ ; Palmtree::Math::Core::Internal::Exception::~Exception
?dtor$0@?0???0ArgumentNullException@Internal@Core@Math@Palmtree@@QEAA@PEB_W0@Z@4HA ENDP ; `Palmtree::Math::Core::Internal::ArgumentNullException::ArgumentNullException'::`1'::dtor$0
text$x	ENDS
; Function compile flags: /Ogtpy
; File z:\sources\lunor\repos\rougemeilland\palmtree.math.core.uint\palmtree.math.core.uint\pmc_exception.h
; File c:\program files (x86)\microsoft visual studio\2017\community\vc\tools\msvc\14.16.27023\include\vcruntime_exception.h
;	COMDAT ??_GException@Internal@Core@Math@Palmtree@@UEAAPEAXI@Z
_TEXT	SEGMENT
$T1 = 32
this$ = 64
__flags$ = 72
??_GException@Internal@Core@Math@Palmtree@@UEAAPEAXI@Z PROC ; Palmtree::Math::Core::Internal::Exception::`scalar deleting destructor', COMDAT
$LN12:
  00000	48 89 4c 24 08	 mov	 QWORD PTR [rsp+8], rcx
  00005	57		 push	 rdi
  00006	48 83 ec 30	 sub	 rsp, 48			; 00000030H
  0000a	48 c7 44 24 20
	fe ff ff ff	 mov	 QWORD PTR $T1[rsp], -2
  00013	48 89 5c 24 48	 mov	 QWORD PTR [rsp+72], rbx
  00018	8b da		 mov	 ebx, edx
  0001a	48 8b f9	 mov	 rdi, rcx
; File z:\sources\lunor\repos\rougemeilland\palmtree.math.core.uint\palmtree.math.core.uint\pmc_exception.h

; 70   :         {

  0001d	48 8d 05 00 00
	00 00		 lea	 rax, OFFSET FLAT:??_7Exception@Internal@Core@Math@Palmtree@@6B@
  00024	48 89 01	 mov	 QWORD PTR [rcx], rax
; File c:\program files (x86)\microsoft visual studio\2017\community\vc\tools\msvc\14.16.27023\include\vcruntime_exception.h

; 85   :     {

  00027	48 8d 05 00 00
	00 00		 lea	 rax, OFFSET FLAT:??_7exception@std@@6B@
  0002e	48 89 01	 mov	 QWORD PTR [rcx], rax

; 86   :         __std_exception_destroy(&_Data);

  00031	48 83 c1 08	 add	 rcx, 8
  00035	e8 00 00 00 00	 call	 __std_exception_destroy
  0003a	90		 npad	 1
  0003b	f6 c3 01	 test	 bl, 1
  0003e	74 0e		 je	 SHORT $LN9@scalar
  00040	ba 30 00 00 00	 mov	 edx, 48			; 00000030H
  00045	48 8b cf	 mov	 rcx, rdi
  00048	e8 00 00 00 00	 call	 ??3@YAXPEAX_K@Z		; operator delete
  0004d	90		 npad	 1
$LN9@scalar:
  0004e	48 8b c7	 mov	 rax, rdi
  00051	48 8b 5c 24 48	 mov	 rbx, QWORD PTR [rsp+72]
  00056	48 83 c4 30	 add	 rsp, 48			; 00000030H
  0005a	5f		 pop	 rdi
  0005b	c3		 ret	 0
??_GException@Internal@Core@Math@Palmtree@@UEAAPEAXI@Z ENDP ; Palmtree::Math::Core::Internal::Exception::`scalar deleting destructor'
_TEXT	ENDS
;	COMDAT text$x
text$x	SEGMENT
$T1 = 32
this$ = 64
__flags$ = 72
?dtor$0@?0???_GException@Internal@Core@Math@Palmtree@@UEAAPEAXI@Z@4HA PROC ; `Palmtree::Math::Core::Internal::Exception::`scalar deleting destructor''::`1'::dtor$0
  00000	48 8b 8a 40 00
	00 00		 mov	 rcx, QWORD PTR this$[rdx]
  00007	e9 00 00 00 00	 jmp	 ??1exception@std@@UEAA@XZ ; std::exception::~exception
?dtor$0@?0???_GException@Internal@Core@Math@Palmtree@@UEAAPEAXI@Z@4HA ENDP ; `Palmtree::Math::Core::Internal::Exception::`scalar deleting destructor''::`1'::dtor$0
text$x	ENDS
; Function compile flags: /Ogtpy
;	COMDAT text$x
text$x	SEGMENT
$T1 = 32
this$ = 64
__flags$ = 72
?dtor$0@?0???_GException@Internal@Core@Math@Palmtree@@UEAAPEAXI@Z@4HA PROC ; `Palmtree::Math::Core::Internal::Exception::`scalar deleting destructor''::`1'::dtor$0
  00000	48 8b 8a 40 00
	00 00		 mov	 rcx, QWORD PTR this$[rdx]
  00007	e9 00 00 00 00	 jmp	 ??1exception@std@@UEAA@XZ ; std::exception::~exception
?dtor$0@?0???_GException@Internal@Core@Math@Palmtree@@UEAAPEAXI@Z@4HA ENDP ; `Palmtree::Math::Core::Internal::Exception::`scalar deleting destructor''::`1'::dtor$0
text$x	ENDS
; Function compile flags: /Ogtpy
; File z:\sources\lunor\repos\rougemeilland\palmtree.math.core.uint\palmtree.math.core.uint\pmc_exception.h
; File c:\program files (x86)\microsoft visual studio\2017\community\vc\tools\msvc\14.16.27023\include\vcruntime_exception.h
; File z:\sources\lunor\repos\rougemeilland\palmtree.math.core.uint\palmtree.math.core.uint\pmc_exception.h
;	COMDAT ??1Exception@Internal@Core@Math@Palmtree@@UEAA@XZ
_TEXT	SEGMENT
$T1 = 32
this$ = 64
??1Exception@Internal@Core@Math@Palmtree@@UEAA@XZ PROC	; Palmtree::Math::Core::Internal::Exception::~Exception, COMDAT

; 70   :         {

$LN8:
  00000	48 89 4c 24 08	 mov	 QWORD PTR [rsp+8], rcx
  00005	48 83 ec 38	 sub	 rsp, 56			; 00000038H
  00009	48 c7 44 24 20
	fe ff ff ff	 mov	 QWORD PTR $T1[rsp], -2
  00012	48 8d 05 00 00
	00 00		 lea	 rax, OFFSET FLAT:??_7Exception@Internal@Core@Math@Palmtree@@6B@
  00019	48 89 01	 mov	 QWORD PTR [rcx], rax
; File c:\program files (x86)\microsoft visual studio\2017\community\vc\tools\msvc\14.16.27023\include\vcruntime_exception.h

; 85   :     {

  0001c	48 8d 05 00 00
	00 00		 lea	 rax, OFFSET FLAT:??_7exception@std@@6B@
  00023	48 89 01	 mov	 QWORD PTR [rcx], rax

; 86   :         __std_exception_destroy(&_Data);

  00026	48 83 c1 08	 add	 rcx, 8
  0002a	e8 00 00 00 00	 call	 __std_exception_destroy
  0002f	90		 npad	 1
; File z:\sources\lunor\repos\rougemeilland\palmtree.math.core.uint\palmtree.math.core.uint\pmc_exception.h

; 71   :         }

  00030	48 83 c4 38	 add	 rsp, 56			; 00000038H
  00034	c3		 ret	 0
??1Exception@Internal@Core@Math@Palmtree@@UEAA@XZ ENDP	; Palmtree::Math::Core::Internal::Exception::~Exception
_TEXT	ENDS
;	COMDAT text$x
text$x	SEGMENT
$T1 = 32
this$ = 64
?dtor$0@?0???1Exception@Internal@Core@Math@Palmtree@@UEAA@XZ@4HA PROC ; `Palmtree::Math::Core::Internal::Exception::~Exception'::`1'::dtor$0
  00000	48 8b 8a 40 00
	00 00		 mov	 rcx, QWORD PTR this$[rdx]
  00007	e9 00 00 00 00	 jmp	 ??1exception@std@@UEAA@XZ ; std::exception::~exception
?dtor$0@?0???1Exception@Internal@Core@Math@Palmtree@@UEAA@XZ@4HA ENDP ; `Palmtree::Math::Core::Internal::Exception::~Exception'::`1'::dtor$0
text$x	ENDS
; Function compile flags: /Ogtpy
;	COMDAT text$x
text$x	SEGMENT
$T1 = 32
this$ = 64
?dtor$0@?0???1Exception@Internal@Core@Math@Palmtree@@UEAA@XZ@4HA PROC ; `Palmtree::Math::Core::Internal::Exception::~Exception'::`1'::dtor$0
  00000	48 8b 8a 40 00
	00 00		 mov	 rcx, QWORD PTR this$[rdx]
  00007	e9 00 00 00 00	 jmp	 ??1exception@std@@UEAA@XZ ; std::exception::~exception
?dtor$0@?0???1Exception@Internal@Core@Math@Palmtree@@UEAA@XZ@4HA ENDP ; `Palmtree::Math::Core::Internal::Exception::~Exception'::`1'::dtor$0
text$x	ENDS
; Function compile flags: /Ogtpy
; File z:\sources\lunor\repos\rougemeilland\palmtree.math.core.uint\palmtree.math.core.uint\pmc_exception.h
; File c:\program files (x86)\microsoft visual studio\2017\community\vc\tools\msvc\14.16.27023\include\vcruntime_exception.h
; File z:\sources\lunor\repos\rougemeilland\palmtree.math.core.uint\palmtree.math.core.uint\pmc_exception.h
;	COMDAT ??0Exception@Internal@Core@Math@Palmtree@@QEAA@AEBV01234@@Z
_TEXT	SEGMENT
$T1 = 0
this$ = 32
p$ = 40
??0Exception@Internal@Core@Math@Palmtree@@QEAA@AEBV01234@@Z PROC ; Palmtree::Math::Core::Internal::Exception::Exception, COMDAT

; 62   :         Exception(const Exception& p) noexcept(true)

$LN8:
  00000	48 89 4c 24 08	 mov	 QWORD PTR [rsp+8], rcx
  00005	48 83 ec 18	 sub	 rsp, 24
  00009	48 c7 04 24 fe
	ff ff ff	 mov	 QWORD PTR $T1[rsp], -2
; File c:\program files (x86)\microsoft visual studio\2017\community\vc\tools\msvc\14.16.27023\include\vcruntime_exception.h

; 50   :     {

  00011	48 8d 05 00 00
	00 00		 lea	 rax, OFFSET FLAT:??_7exception@std@@6B@
  00018	48 89 01	 mov	 QWORD PTR [rcx], rax

; 49   :         : _Data()

  0001b	33 c0		 xor	 eax, eax
  0001d	48 89 41 08	 mov	 QWORD PTR [rcx+8], rax
  00021	48 89 41 10	 mov	 QWORD PTR [rcx+16], rax
; File z:\sources\lunor\repos\rougemeilland\palmtree.math.core.uint\palmtree.math.core.uint\pmc_exception.h

; 62   :         Exception(const Exception& p) noexcept(true)

  00025	48 8d 05 00 00
	00 00		 lea	 rax, OFFSET FLAT:??_7Exception@Internal@Core@Math@Palmtree@@6B@
  0002c	48 89 01	 mov	 QWORD PTR [rcx], rax

; 63   :         {
; 64   :             _code = p._code;

  0002f	8b 42 18	 mov	 eax, DWORD PTR [rdx+24]
  00032	89 41 18	 mov	 DWORD PTR [rcx+24], eax

; 65   :             _message = p._message;

  00035	48 8b 42 20	 mov	 rax, QWORD PTR [rdx+32]
  00039	48 89 41 20	 mov	 QWORD PTR [rcx+32], rax

; 66   :             _data = p._data;

  0003d	48 8b 42 28	 mov	 rax, QWORD PTR [rdx+40]
  00041	48 89 41 28	 mov	 QWORD PTR [rcx+40], rax

; 67   :         }

  00045	48 8b c1	 mov	 rax, rcx
  00048	48 83 c4 18	 add	 rsp, 24
  0004c	c3		 ret	 0
??0Exception@Internal@Core@Math@Palmtree@@QEAA@AEBV01234@@Z ENDP ; Palmtree::Math::Core::Internal::Exception::Exception
_TEXT	ENDS
;	COMDAT text$x
text$x	SEGMENT
$T1 = 0
this$ = 32
p$ = 40
?dtor$0@?0???0Exception@Internal@Core@Math@Palmtree@@QEAA@AEBV01234@@Z@4HA PROC ; `Palmtree::Math::Core::Internal::Exception::Exception'::`1'::dtor$0
  00000	48 8b 8a 20 00
	00 00		 mov	 rcx, QWORD PTR this$[rdx]
  00007	e9 00 00 00 00	 jmp	 ??1exception@std@@UEAA@XZ ; std::exception::~exception
?dtor$0@?0???0Exception@Internal@Core@Math@Palmtree@@QEAA@AEBV01234@@Z@4HA ENDP ; `Palmtree::Math::Core::Internal::Exception::Exception'::`1'::dtor$0
text$x	ENDS
; Function compile flags: /Ogtpy
;	COMDAT text$x
text$x	SEGMENT
$T1 = 0
this$ = 32
p$ = 40
?dtor$0@?0???0Exception@Internal@Core@Math@Palmtree@@QEAA@AEBV01234@@Z@4HA PROC ; `Palmtree::Math::Core::Internal::Exception::Exception'::`1'::dtor$0
  00000	48 8b 8a 20 00
	00 00		 mov	 rcx, QWORD PTR this$[rdx]
  00007	e9 00 00 00 00	 jmp	 ??1exception@std@@UEAA@XZ ; std::exception::~exception
?dtor$0@?0???0Exception@Internal@Core@Math@Palmtree@@QEAA@AEBV01234@@Z@4HA ENDP ; `Palmtree::Math::Core::Internal::Exception::Exception'::`1'::dtor$0
text$x	ENDS
; Function compile flags: /Ogtpy
; File z:\sources\lunor\repos\rougemeilland\palmtree.math.core.uint\palmtree.math.core.uint\pmc_exception.h
; File c:\program files (x86)\microsoft visual studio\2017\community\vc\tools\msvc\14.16.27023\include\vcruntime_exception.h
; File z:\sources\lunor\repos\rougemeilland\palmtree.math.core.uint\palmtree.math.core.uint\pmc_exception.h
;	COMDAT ??0Exception@Internal@Core@Math@Palmtree@@IEAA@HPEB_W0@Z
_TEXT	SEGMENT
$T1 = 0
this$ = 32
code$ = 40
message$ = 48
data$ = 56
??0Exception@Internal@Core@Math@Palmtree@@IEAA@HPEB_W0@Z PROC ; Palmtree::Math::Core::Internal::Exception::Exception, COMDAT

; 54   :         Exception(PMC_STATUS_CODE code, const wchar_t* message, const wchar_t* data) noexcept(true)

$LN8:
  00000	48 89 4c 24 08	 mov	 QWORD PTR [rsp+8], rcx
  00005	48 83 ec 18	 sub	 rsp, 24
  00009	48 c7 04 24 fe
	ff ff ff	 mov	 QWORD PTR $T1[rsp], -2
; File c:\program files (x86)\microsoft visual studio\2017\community\vc\tools\msvc\14.16.27023\include\vcruntime_exception.h

; 50   :     {

  00011	48 8d 05 00 00
	00 00		 lea	 rax, OFFSET FLAT:??_7exception@std@@6B@
  00018	48 89 01	 mov	 QWORD PTR [rcx], rax

; 49   :         : _Data()

  0001b	33 c0		 xor	 eax, eax
  0001d	48 89 41 08	 mov	 QWORD PTR [rcx+8], rax
  00021	48 89 41 10	 mov	 QWORD PTR [rcx+16], rax
; File z:\sources\lunor\repos\rougemeilland\palmtree.math.core.uint\palmtree.math.core.uint\pmc_exception.h

; 54   :         Exception(PMC_STATUS_CODE code, const wchar_t* message, const wchar_t* data) noexcept(true)

  00025	48 8d 05 00 00
	00 00		 lea	 rax, OFFSET FLAT:??_7Exception@Internal@Core@Math@Palmtree@@6B@
  0002c	48 89 01	 mov	 QWORD PTR [rcx], rax

; 55   :         {
; 56   :             _code = code;

  0002f	89 51 18	 mov	 DWORD PTR [rcx+24], edx

; 57   :             _message = message;

  00032	4c 89 41 20	 mov	 QWORD PTR [rcx+32], r8

; 58   :             _data = data;

  00036	4c 89 49 28	 mov	 QWORD PTR [rcx+40], r9

; 59   :         }

  0003a	48 8b c1	 mov	 rax, rcx
  0003d	48 83 c4 18	 add	 rsp, 24
  00041	c3		 ret	 0
??0Exception@Internal@Core@Math@Palmtree@@IEAA@HPEB_W0@Z ENDP ; Palmtree::Math::Core::Internal::Exception::Exception
_TEXT	ENDS
;	COMDAT text$x
text$x	SEGMENT
$T1 = 0
this$ = 32
code$ = 40
message$ = 48
data$ = 56
?dtor$0@?0???0Exception@Internal@Core@Math@Palmtree@@IEAA@HPEB_W0@Z@4HA PROC ; `Palmtree::Math::Core::Internal::Exception::Exception'::`1'::dtor$0
  00000	48 8b 8a 20 00
	00 00		 mov	 rcx, QWORD PTR this$[rdx]
  00007	e9 00 00 00 00	 jmp	 ??1exception@std@@UEAA@XZ ; std::exception::~exception
?dtor$0@?0???0Exception@Internal@Core@Math@Palmtree@@IEAA@HPEB_W0@Z@4HA ENDP ; `Palmtree::Math::Core::Internal::Exception::Exception'::`1'::dtor$0
text$x	ENDS
; Function compile flags: /Ogtpy
;	COMDAT text$x
text$x	SEGMENT
$T1 = 0
this$ = 32
code$ = 40
message$ = 48
data$ = 56
?dtor$0@?0???0Exception@Internal@Core@Math@Palmtree@@IEAA@HPEB_W0@Z@4HA PROC ; `Palmtree::Math::Core::Internal::Exception::Exception'::`1'::dtor$0
  00000	48 8b 8a 20 00
	00 00		 mov	 rcx, QWORD PTR this$[rdx]
  00007	e9 00 00 00 00	 jmp	 ??1exception@std@@UEAA@XZ ; std::exception::~exception
?dtor$0@?0???0Exception@Internal@Core@Math@Palmtree@@IEAA@HPEB_W0@Z@4HA ENDP ; `Palmtree::Math::Core::Internal::Exception::Exception'::`1'::dtor$0
text$x	ENDS
; Function compile flags: /Ogtpy
; File z:\sources\lunor\repos\rougemeilland\palmtree.math.core.uint\palmtree.math.core.uint\pmc_exception.h
; File c:\program files (x86)\microsoft visual studio\2017\community\vc\tools\msvc\14.16.27023\include\vcruntime_exception.h
; File z:\sources\lunor\repos\rougemeilland\palmtree.math.core.uint\palmtree.math.core.uint\pmc_exception.h
;	COMDAT ??0Exception@Internal@Core@Math@Palmtree@@IEAA@HPEB_W@Z
_TEXT	SEGMENT
$T1 = 0
this$ = 32
code$ = 40
message$ = 48
??0Exception@Internal@Core@Math@Palmtree@@IEAA@HPEB_W@Z PROC ; Palmtree::Math::Core::Internal::Exception::Exception, COMDAT

; 47   :         Exception(PMC_STATUS_CODE code, const wchar_t* message) noexcept(true)

$LN8:
  00000	48 89 4c 24 08	 mov	 QWORD PTR [rsp+8], rcx
  00005	48 83 ec 18	 sub	 rsp, 24
  00009	48 c7 04 24 fe
	ff ff ff	 mov	 QWORD PTR $T1[rsp], -2
; File c:\program files (x86)\microsoft visual studio\2017\community\vc\tools\msvc\14.16.27023\include\vcruntime_exception.h

; 50   :     {

  00011	48 8d 05 00 00
	00 00		 lea	 rax, OFFSET FLAT:??_7exception@std@@6B@
  00018	48 89 01	 mov	 QWORD PTR [rcx], rax

; 49   :         : _Data()

  0001b	33 c0		 xor	 eax, eax
  0001d	48 89 41 08	 mov	 QWORD PTR [rcx+8], rax
  00021	48 89 41 10	 mov	 QWORD PTR [rcx+16], rax
; File z:\sources\lunor\repos\rougemeilland\palmtree.math.core.uint\palmtree.math.core.uint\pmc_exception.h

; 47   :         Exception(PMC_STATUS_CODE code, const wchar_t* message) noexcept(true)

  00025	48 8d 05 00 00
	00 00		 lea	 rax, OFFSET FLAT:??_7Exception@Internal@Core@Math@Palmtree@@6B@
  0002c	48 89 01	 mov	 QWORD PTR [rcx], rax

; 48   :         {
; 49   :             _code = code;

  0002f	89 51 18	 mov	 DWORD PTR [rcx+24], edx

