; Listing generated by Microsoft (R) Optimizing Compiler Version 19.16.27026.1 

include listing.inc

INCLUDELIB MSVCRT
INCLUDELIB OLDNAMES

PUBLIC	Initialize_ModPow
PUBLIC	PMC_ModPow_X_X_X
EXTRN	AllocateBlock:PROC
EXTRN	DeallocateBlock:PROC
EXTRN	CheckBlockLight:PROC
EXTRN	AllocateNumber:PROC
EXTRN	DeallocateNumber:PROC
EXTRN	CommitNumber:PROC
EXTRN	CheckNumber:PROC
EXTRN	DuplicateNumber:PROC
EXTRN	Multiply_X_X_Imp:PROC
EXTRN	DivRem_X_X:PROC
EXTRN	Compare_Imp:PROC
EXTRN	number_zero:BYTE
EXTRN	number_one:BYTE
;	COMDAT pdata
pdata	SEGMENT
$pdata$PMC_ModPow_X_X_X DD imagerel $LN41
	DD	imagerel $LN41+257
	DD	imagerel $unwind$PMC_ModPow_X_X_X
pdata	ENDS
;	COMDAT pdata
pdata	SEGMENT
$pdata$_COPY_MEMORY_UNIT DD imagerel _COPY_MEMORY_UNIT
	DD	imagerel _COPY_MEMORY_UNIT+33
	DD	imagerel $unwind$_COPY_MEMORY_UNIT
pdata	ENDS
;	COMDAT pdata
pdata	SEGMENT
$pdata$_ZERO_MEMORY_UNIT DD imagerel _ZERO_MEMORY_UNIT
	DD	imagerel _ZERO_MEMORY_UNIT+22
	DD	imagerel $unwind$_ZERO_MEMORY_UNIT
pdata	ENDS
;	COMDAT pdata
pdata	SEGMENT
$pdata$Remainder DD imagerel Remainder
	DD	imagerel Remainder+230
	DD	imagerel $unwind$Remainder
pdata	ENDS
;	COMDAT pdata
pdata	SEGMENT
$pdata$0$Remainder DD imagerel Remainder+230
	DD	imagerel Remainder+259
	DD	imagerel $chain$0$Remainder
pdata	ENDS
;	COMDAT pdata
pdata	SEGMENT
$pdata$1$Remainder DD imagerel Remainder+259
	DD	imagerel Remainder+406
	DD	imagerel $chain$1$Remainder
pdata	ENDS
;	COMDAT pdata
pdata	SEGMENT
$pdata$ModulePower DD imagerel ModulePower
	DD	imagerel ModulePower+180
	DD	imagerel $unwind$ModulePower
pdata	ENDS
;	COMDAT pdata
pdata	SEGMENT
$pdata$2$ModulePower DD imagerel ModulePower+180
	DD	imagerel ModulePower+1878
	DD	imagerel $chain$2$ModulePower
pdata	ENDS
;	COMDAT pdata
pdata	SEGMENT
$pdata$3$ModulePower DD imagerel ModulePower+1878
	DD	imagerel ModulePower+1909
	DD	imagerel $chain$3$ModulePower
pdata	ENDS
;	COMDAT pdata
pdata	SEGMENT
$pdata$PMC_ModPow_X_X_X_Imp DD imagerel PMC_ModPow_X_X_X_Imp
	DD	imagerel PMC_ModPow_X_X_X_Imp+164
	DD	imagerel $unwind$PMC_ModPow_X_X_X_Imp
pdata	ENDS
;	COMDAT xdata
xdata	SEGMENT
$unwind$PMC_ModPow_X_X_X_Imp DD 010401H
	DD	04204H
xdata	ENDS
;	COMDAT xdata
xdata	SEGMENT
$chain$3$ModulePower DD 021H
	DD	imagerel ModulePower
	DD	imagerel ModulePower+180
	DD	imagerel $unwind$ModulePower
xdata	ENDS
;	COMDAT xdata
xdata	SEGMENT
$chain$2$ModulePower DD 020821H
	DD	01bf408H
	DD	imagerel ModulePower
	DD	imagerel ModulePower+180
	DD	imagerel $unwind$ModulePower
xdata	ENDS
;	COMDAT xdata
xdata	SEGMENT
$unwind$ModulePower DD 0b7d01H
	DD	01cc47dH
	DD	01d646eH
	DD	01e011dH
	DD	0d00fe011H
	DD	0300c700dH
	DD	0500bH
xdata	ENDS
;	COMDAT xdata
xdata	SEGMENT
$chain$1$Remainder DD 021H
	DD	imagerel Remainder
	DD	imagerel Remainder+230
	DD	imagerel $unwind$Remainder
xdata	ENDS
;	COMDAT xdata
xdata	SEGMENT
$chain$0$Remainder DD 020821H
	DD	0126408H
	DD	imagerel Remainder
	DD	imagerel Remainder+230
	DD	imagerel $unwind$Remainder
xdata	ENDS
;	COMDAT xdata
xdata	SEGMENT
$unwind$Remainder DD 060c01H
	DD	0f008920cH
	DD	07004e006H
	DD	030025003H
xdata	ENDS
;	COMDAT xdata
xdata	SEGMENT
$unwind$_ZERO_MEMORY_UNIT DD 020501H
	DD	017405H
xdata	ENDS
;	COMDAT xdata
xdata	SEGMENT
$unwind$_COPY_MEMORY_UNIT DD 040a01H
	DD	02740aH
	DD	016405H
xdata	ENDS
;	COMDAT xdata
xdata	SEGMENT
$unwind$PMC_ModPow_X_X_X DD 081401H
	DD	086414H
	DD	075414H
	DD	063414H
	DD	070103214H
xdata	ENDS
; Function compile flags: /Ogtpy
; File z:\sources\lunor\repos\rougemeilland\palmtree.math.core.uint\palmtree.math.core.uint\pmc_modpow.c
;	COMDAT PMC_ModPow_X_X_X_Imp
_TEXT	SEGMENT
v$ = 48
e$ = 56
m$ = 64
r$ = 72
PMC_ModPow_X_X_X_Imp PROC				; COMDAT

; 500  : {

	sub	rsp, 40					; 00000028H
	mov	r11, r8
	mov	r10, rcx

; 501  :     PMC_STATUS_CODE result;
; 502  : 
; 503  :     if (m->IS_ZERO)

	mov	r8d, DWORD PTR [r8+40]
	test	r8b, 2
	je	SHORT $LN2@PMC_ModPow

; 504  :     {
; 505  :         // m が 0 の場合
; 506  : 
; 507  :         // 0 による除算は許されないのでエラーを通知する
; 508  :         return (PMC_STATUS_DIVISION_BY_ZERO);

	mov	eax, -3

; 592  : }

	add	rsp, 40					; 00000028H
	ret	0
$LN2@PMC_ModPow:

; 509  :     }
; 510  :     else if (m->IS_ONE)

	mov	ecx, DWORD PTR [rcx+40]
	mov	eax, ecx
	and	eax, 2
	test	r8b, 4
	je	SHORT $LN4@PMC_ModPow

; 511  :     {
; 512  :         // m が 1 の場合
; 513  :         if (v->IS_ZERO)

	test	eax, eax
	je	SHORT $LN8@PMC_ModPow

; 514  :         {
; 515  :             // v が 0 の場合
; 516  :             if (e->IS_ZERO)

	test	BYTE PTR [rdx+40], 2
	jne	SHORT $LN24@PMC_ModPow
$LN8@PMC_ModPow:

; 587  :                     return (result);
; 588  :             }
; 589  :         }
; 590  :     }
; 591  :     return (PMC_STATUS_OK);

	lea	rax, OFFSET FLAT:number_zero
	mov	QWORD PTR [r9], rax
	xor	eax, eax

; 592  : }

	add	rsp, 40					; 00000028H
	ret	0
$LN4@PMC_ModPow:

; 517  :             {
; 518  :                 // e が 0 の場合
; 519  : 
; 520  :                 // 0 の 0 乗となるので、エラーを返す
; 521  :                 return (PMC_STATUS_ARGUMENT_ERROR);
; 522  :             }
; 523  :             else
; 524  :             {
; 525  :                 // e が 0 ではない場合
; 526  : 
; 527  :                 // v の e 乗がどんな値であっても 1 では必ず割り切れるので剰余は 0 となる。
; 528  :                 *r = &number_zero;
; 529  :             }
; 530  :         }
; 531  :         else
; 532  :         {
; 533  :             // v が 0 ではない場合
; 534  : 
; 535  :             // v の e 乗がどんな値であっても 1 では必ず割り切れるので剰余は 0 となる。
; 536  :             *r = &number_zero;
; 537  :         }
; 538  :     }
; 539  :     else
; 540  :     {
; 541  :         // m が 2 以上の場合
; 542  :         if (v->IS_ZERO)

	test	eax, eax
	je	SHORT $LN10@PMC_ModPow

; 543  :         {
; 544  :             // v が 0 の場合
; 545  :             if (e->IS_ZERO)

	test	BYTE PTR [rdx+40], 2
	je	SHORT $LN8@PMC_ModPow
$LN24@PMC_ModPow:

; 546  :             {
; 547  :                 // e が 0 の場合
; 548  : 
; 549  :                 // 0 の 0 乗となるので、エラーを返す
; 550  :                 return (PMC_STATUS_ARGUMENT_ERROR);

	mov	eax, -1

; 592  : }

	add	rsp, 40					; 00000028H
	ret	0
$LN10@PMC_ModPow:

; 551  :             }
; 552  :             else
; 553  :             {
; 554  :                 // e が 0 ではない場合
; 555  : 
; 556  :                 *r = &number_zero;
; 557  :             }
; 558  :         }
; 559  :         else if (v->IS_ONE)

	test	cl, 4
	jne	SHORT $LN23@PMC_ModPow

; 560  :         {
; 561  :             // v が 1 の場合
; 562  : 
; 563  :             // 1 を何乗しても 1 であり、1 を 2 以上の数で割ればその剰余は必ず 1 となる
; 564  :             *r = &number_one;
; 565  :         }
; 566  :         else
; 567  :         {
; 568  :             // v が 2 以上の場合
; 569  :             if (e->IS_ZERO)

	mov	eax, DWORD PTR [rdx+40]
	test	al, 2
	jne	SHORT $LN23@PMC_ModPow

; 573  :             }
; 574  :             else if (e->IS_ONE)

	mov	rcx, r10
	test	al, 4
	je	SHORT $LN18@PMC_ModPow

; 575  :             {
; 576  :                 // e が 1 の場合
; 577  : 
; 578  :                 // v % m を計算して返す
; 579  :                 if ((result = Remainder(v, m, r)) != PMC_STATUS_OK)

	mov	r8, r9
	mov	rdx, r11
	call	Remainder
	test	eax, eax
	je	SHORT $LN21@PMC_ModPow

; 592  : }

	add	rsp, 40					; 00000028H
	ret	0
$LN18@PMC_ModPow:

; 580  :                     return (result);
; 581  :             }
; 582  :             else
; 583  :             {
; 584  :                 // v、e、m がすべて 2 以上である場合
; 585  :                 // v の e 乗 の m による剰余を計算して返す
; 586  :                 if ((result = ModulePower(v, e, m, r)) != PMC_STATUS_OK)

	mov	r8, r11
	call	ModulePower
	test	eax, eax
	je	SHORT $LN21@PMC_ModPow

; 592  : }

	add	rsp, 40					; 00000028H
	ret	0
$LN23@PMC_ModPow:

; 570  :             {
; 571  :                 // e が 0 の場合
; 572  :                 *r = &number_one;

	lea	rax, OFFSET FLAT:number_one

; 587  :                     return (result);
; 588  :             }
; 589  :         }
; 590  :     }
; 591  :     return (PMC_STATUS_OK);

	mov	QWORD PTR [r9], rax
$LN21@PMC_ModPow:
	xor	eax, eax

; 592  : }

	add	rsp, 40					; 00000028H
	ret	0
PMC_ModPow_X_X_X_Imp ENDP
_TEXT	ENDS
; Function compile flags: /Ogtpy
; File z:\sources\lunor\repos\rougemeilland\palmtree.math.core.uint\palmtree.math.core.uint\pmc_modpow.c
; File z:\sources\lunor\repos\rougemeilland\palmtree.math.core.uint\palmtree.math.core.uint\pmc_inline_func.h
; File z:\sources\lunor\repos\rougemeilland\palmtree.math.core.uint\palmtree.math.core.uint\pmc_modpow.c
; File z:\sources\lunor\repos\rougemeilland\palmtree.math.core.uint\palmtree.math.core.uint\pmc_inline_func.h
; File z:\sources\lunor\repos\rougemeilland\palmtree.math.core.uint\palmtree.math.core.uint\pmc_modpow.c
; File z:\sources\lunor\repos\rougemeilland\palmtree.math.core.uint\palmtree.math.core.uint\pmc_inline_func.h
; File z:\sources\lunor\repos\rougemeilland\palmtree.math.core.uint\palmtree.math.core.uint\pmc_modpow.c
; File z:\sources\lunor\repos\rougemeilland\palmtree.math.core.uint\palmtree.math.core.uint\pmc_inline_func.h
; File z:\sources\lunor\repos\rougemeilland\palmtree.math.core.uint\palmtree.math.core.uint\pmc_modpow.c
; File z:\sources\lunor\repos\rougemeilland\palmtree.math.core.uint\palmtree.math.core.uint\pmc_inline_func.h
; File z:\sources\lunor\repos\rougemeilland\palmtree.math.core.uint\palmtree.math.core.uint\pmc_modpow.c
; File z:\sources\lunor\repos\rougemeilland\palmtree.math.core.uint\palmtree.math.core.uint\pmc_inline_func.h
; File z:\sources\lunor\repos\rougemeilland\palmtree.math.core.uint\palmtree.math.core.uint\pmc_modpow.c
; File z:\sources\lunor\repos\rougemeilland\palmtree.math.core.uint\palmtree.math.core.uint\pmc_inline_func.h
; File z:\sources\lunor\repos\rougemeilland\palmtree.math.core.uint\palmtree.math.core.uint\pmc_modpow.c
; File z:\sources\lunor\repos\rougemeilland\palmtree.math.core.uint\palmtree.math.core.uint\pmc_inline_func.h
; File z:\sources\lunor\repos\rougemeilland\palmtree.math.core.uint\palmtree.math.core.uint\pmc_modpow.c
; File z:\sources\lunor\repos\rougemeilland\palmtree.math.core.uint\palmtree.math.core.uint\pmc_inline_func.h
; File z:\sources\lunor\repos\rougemeilland\palmtree.math.core.uint\palmtree.math.core.uint\pmc_modpow.c
; File z:\sources\lunor\repos\rougemeilland\palmtree.math.core.uint\palmtree.math.core.uint\pmc_inline_func.h
; File z:\sources\lunor\repos\rougemeilland\palmtree.math.core.uint\palmtree.math.core.uint\pmc_modpow.c
; File z:\sources\lunor\repos\rougemeilland\palmtree.math.core.uint\palmtree.math.core.uint\pmc_inline_func.h
; File z:\sources\lunor\repos\rougemeilland\palmtree.math.core.uint\palmtree.math.core.uint\pmc_modpow.c
; File z:\sources\lunor\repos\rougemeilland\palmtree.math.core.uint\palmtree.math.core.uint\pmc_inline_func.h
; File z:\sources\lunor\repos\rougemeilland\palmtree.math.core.uint\palmtree.math.core.uint\pmc_modpow.c
; File z:\sources\lunor\repos\rougemeilland\palmtree.math.core.uint\palmtree.math.core.uint\pmc_inline_func.h
; File z:\sources\lunor\repos\rougemeilland\palmtree.math.core.uint\palmtree.math.core.uint\pmc_modpow.c
; File z:\sources\lunor\repos\rougemeilland\palmtree.math.core.uint\palmtree.math.core.uint\pmc_inline_func.h
; File z:\sources\lunor\repos\rougemeilland\palmtree.math.core.uint\palmtree.math.core.uint\pmc_modpow.c
; File z:\sources\lunor\repos\rougemeilland\palmtree.math.core.uint\palmtree.math.core.uint\pmc_inline_func.h
; File z:\sources\lunor\repos\rougemeilland\palmtree.math.core.uint\palmtree.math.core.uint\pmc_modpow.c
; File z:\sources\lunor\repos\rougemeilland\palmtree.math.core.uint\palmtree.math.core.uint\pmc_inline_func.h
; File z:\sources\lunor\repos\rougemeilland\palmtree.math.core.uint\palmtree.math.core.uint\pmc_modpow.c
; File z:\sources\lunor\repos\rougemeilland\palmtree.math.core.uint\palmtree.math.core.uint\pmc_inline_func.h
; File z:\sources\lunor\repos\rougemeilland\palmtree.math.core.uint\palmtree.math.core.uint\pmc_modpow.c
;	COMDAT ModulePower
_TEXT	SEGMENT
v_2_buf$1$ = 64
work_v_buf_words$ = 72
q_buf_words$ = 80
work_v_buf$1$ = 88
work_2_buf_words$ = 96
work_1_buf$1$ = 104
q_buf$1$ = 112
m_buf$1$ = 120
work_1_buf_code$ = 128
work_2_buf_code$ = 136
work_2_buf$1$ = 144
v_count$1$ = 152
work_v_buf_code$ = 160
q_buf_code$ = 168
e_count$1$ = 176
v_2_buf_code$ = 184
r_check_code$ = 192
work_1_buf_words$ = 288
v$ = 288
e$ = 296
v_2_buf_words$ = 304
m$ = 304
r$ = 312
ModulePower PROC					; COMDAT

; 155  : {

	mov	QWORD PTR [rsp+32], r9
	mov	QWORD PTR [rsp+16], rdx
	push	rbp
	push	rbx
	push	rdi
	push	r13
	push	r14
	lea	rbp, QWORD PTR [rsp-55]
	sub	rsp, 240				; 000000f0H

; 156  : #ifdef DO_TRACE
; 157  :     ReportIN(v, e, m);
; 158  : #endif
; 159  :     PMC_STATUS_CODE result;
; 160  :     __UNIT_TYPE* m_buf = m->BLOCK;

	mov	rax, QWORD PTR [r8+56]

; 161  :     __UNIT_TYPE m_count = m->UNIT_WORD_COUNT;
; 162  : 
; 163  :     // 作業域を獲得する
; 164  : 
; 165  :     __UNIT_TYPE v_2_bit_count = v->UNIT_WORD_COUNT * __UNIT_TYPE_BIT_COUNT + __UNIT_TYPE_BIT_COUNT;
; 166  :     __UNIT_TYPE v_2_buf_code;
; 167  :     __UNIT_TYPE v_2_buf_words;
; 168  :     __UNIT_TYPE* v_2_buf = AllocateBlock(v_2_bit_count, &v_2_buf_words, &v_2_buf_code);

	lea	rdx, QWORD PTR v_2_buf_words$[rbp-185]
	mov	r14, QWORD PTR [r8+8]
	mov	rbx, rcx
	mov	rcx, QWORD PTR [rcx+8]
	mov	rdi, r8
	inc	rcx
	mov	QWORD PTR m_buf$1$[rbp-185], rax
	shl	rcx, 6
	lea	r8, QWORD PTR v_2_buf_code$[rbp-185]
	call	AllocateBlock
	mov	QWORD PTR v_2_buf$1$[rbp-185], rax
	mov	r13, rax

; 169  :     if (v_2_buf == NULL)

	test	rax, rax
	jne	SHORT $LN10@ModulePowe

; 170  :     {
; 171  :         return (PMC_STATUS_NOT_ENOUGH_MEMORY);

	lea	eax, QWORD PTR [r13-5]

; 497  : }

	add	rsp, 240				; 000000f0H
	pop	r14
	pop	r13
	pop	rdi
	pop	rbx
	pop	rbp
	ret	0
$LN10@ModulePowe:
	mov	QWORD PTR [rsp+232], rsi

; 172  :     }
; 173  : 
; 174  :     __UNIT_TYPE work_1_bit_count = m_count * 2 * __UNIT_TYPE_BIT_COUNT + __UNIT_TYPE_BIT_COUNT;
; 175  :     __UNIT_TYPE work_1_buf_code;
; 176  :     __UNIT_TYPE work_1_buf_words;
; 177  :     __UNIT_TYPE* work_1_buf = AllocateBlock(work_1_bit_count, &work_1_buf_words, &work_1_buf_code);

	lea	r8, QWORD PTR work_1_buf_code$[rbp-185]
	mov	rsi, r14
	mov	QWORD PTR [rsp+224], r12
	shl	rsi, 7
	lea	rdx, QWORD PTR work_1_buf_words$[rbp-185]
	lea	rcx, QWORD PTR [rsi+64]
	call	AllocateBlock
	mov	QWORD PTR work_1_buf$1$[rbp-185], rax
	mov	r12, rax

; 178  :     if (work_1_buf == NULL)

	test	rax, rax
	jne	SHORT $LN11@ModulePowe

; 179  :     {
; 180  :         DeallocateBlock(v_2_buf, v_2_buf_words);

	mov	rdx, QWORD PTR v_2_buf_words$[rbp-185]
	mov	rcx, r13
	call	DeallocateBlock

; 181  :         return (PMC_STATUS_NOT_ENOUGH_MEMORY);

	lea	eax, QWORD PTR [r12-5]
	jmp	$LN125@ModulePowe
$LN11@ModulePowe:

; 182  :     }
; 183  : 
; 184  :     __UNIT_TYPE work_2_bit_count = m_count * 2 * __UNIT_TYPE_BIT_COUNT + __UNIT_TYPE_BIT_COUNT;
; 185  :     __UNIT_TYPE work_2_buf_code;
; 186  :     __UNIT_TYPE work_2_buf_words;
; 187  :     __UNIT_TYPE* work_2_buf = AllocateBlock(work_2_bit_count, &work_2_buf_words, &work_2_buf_code);

	lea	r8, QWORD PTR work_2_buf_code$[rbp-185]
	mov	QWORD PTR [rsp+216], r15
	lea	rdx, QWORD PTR work_2_buf_words$[rbp-185]
	lea	rcx, QWORD PTR [rsi+64]
	call	AllocateBlock
	mov	QWORD PTR work_2_buf$1$[rbp-185], rax
	mov	r15, rax

; 188  :     if (work_2_buf == NULL)

	test	rax, rax
	je	SHORT $LN129@ModulePowe

; 189  :     {
; 190  :         DeallocateBlock(work_1_buf, work_1_buf_words);
; 191  :         DeallocateBlock(v_2_buf, v_2_buf_words);
; 192  :         return (PMC_STATUS_NOT_ENOUGH_MEMORY);
; 193  :     }
; 194  : 
; 195  :     __UNIT_TYPE work_v_bit_count = m_count * __UNIT_TYPE_BIT_COUNT;

	mov	rcx, r14

; 196  :     __UNIT_TYPE work_v_buf_code;
; 197  :     __UNIT_TYPE work_v_buf_words;
; 198  :     __UNIT_TYPE* work_v_buf = AllocateBlock(work_v_bit_count, &work_v_buf_words, &work_v_buf_code);

	lea	r8, QWORD PTR work_v_buf_code$[rbp-185]
	shl	rcx, 6
	lea	rdx, QWORD PTR work_v_buf_words$[rbp-185]
	call	AllocateBlock
	mov	QWORD PTR work_v_buf$1$[rbp-185], rax
	mov	rsi, rax

; 199  :     if (work_v_buf == NULL)

	test	rax, rax
	jne	SHORT $LN13@ModulePowe

; 200  :     {
; 201  :         DeallocateBlock(work_2_buf, work_2_buf_words);

	mov	rdx, QWORD PTR work_2_buf_words$[rbp-185]
	mov	rcx, r15
	call	DeallocateBlock
$LN129@ModulePowe:

; 202  :         DeallocateBlock(work_1_buf, work_1_buf_words);

	mov	rdx, QWORD PTR work_1_buf_words$[rbp-185]
	mov	rcx, r12
	call	DeallocateBlock

; 203  :         DeallocateBlock(v_2_buf, v_2_buf_words);

	mov	rdx, QWORD PTR v_2_buf_words$[rbp-185]
	mov	rcx, r13
	call	DeallocateBlock

; 204  :         return (PMC_STATUS_NOT_ENOUGH_MEMORY);

	mov	eax, -5
	jmp	$LN126@ModulePowe
$LN13@ModulePowe:

; 205  :     }
; 206  : 
; 207  :     __UNIT_TYPE q_buf_bit_count = _MAXIMUM_UNIT(v->UNIT_BIT_COUNT, m->UNIT_BIT_COUNT * 2) - m->UNIT_BIT_COUNT + 1 + __UNIT_TYPE_BIT_COUNT;

	mov	rdx, QWORD PTR [rdi+16]

; 210  :     __UNIT_TYPE* q_buf = AllocateBlock(q_buf_bit_count, &q_buf_words, &q_buf_code);

	lea	r8, QWORD PTR q_buf_code$[rbp-185]
	lea	rcx, QWORD PTR [rdx+rdx]
; File z:\sources\lunor\repos\rougemeilland\palmtree.math.core.uint\palmtree.math.core.uint\pmc_inline_func.h

; 197  :         return (x >= y ? x : y);

	cmp	QWORD PTR [rbx+16], rcx
	cmovae	rcx, QWORD PTR [rbx+16]
; File z:\sources\lunor\repos\rougemeilland\palmtree.math.core.uint\palmtree.math.core.uint\pmc_modpow.c

; 210  :     __UNIT_TYPE* q_buf = AllocateBlock(q_buf_bit_count, &q_buf_words, &q_buf_code);

	sub	rcx, rdx
	lea	rdx, QWORD PTR q_buf_words$[rbp-185]
	add	rcx, 65					; 00000041H
	call	AllocateBlock
	mov	QWORD PTR q_buf$1$[rbp-185], rax
	mov	r13, rax

; 211  :     if (q_buf == NULL)

	test	rax, rax
	je	SHORT $LN128@ModulePowe

; 212  :     {
; 213  :         DeallocateBlock(work_v_buf, work_v_buf_words);
; 214  :         DeallocateBlock(work_2_buf, work_2_buf_words);
; 215  :         DeallocateBlock(work_1_buf, work_1_buf_words);
; 216  :         DeallocateBlock(v_2_buf, v_2_buf_words);
; 217  :         return (PMC_STATUS_NOT_ENOUGH_MEMORY);
; 218  :     }
; 219  : 
; 220  :     __UNIT_TYPE r_bit_count = m->UNIT_BIT_COUNT;
; 221  :     __UNIT_TYPE r_check_code;
; 222  :     if ((result = AllocateNumber(r, r_bit_count, &r_check_code)) != PMC_STATUS_OK)

	mov	rdx, QWORD PTR [rdi+16]
	lea	r8, QWORD PTR r_check_code$[rbp-185]
	mov	rdi, QWORD PTR r$[rbp-185]
	mov	rcx, rdi
	call	AllocateNumber
	test	eax, eax
	je	SHORT $LN15@ModulePowe

; 223  :     {
; 224  :         DeallocateBlock(q_buf, q_buf_words);

	mov	rdx, QWORD PTR q_buf_words$[rbp-185]
	mov	rcx, r13
	call	DeallocateBlock
$LN128@ModulePowe:

; 225  :         DeallocateBlock(work_v_buf, work_v_buf_words);

	mov	rdx, QWORD PTR work_v_buf_words$[rbp-185]
	mov	rcx, rsi
	call	DeallocateBlock

; 226  :         DeallocateBlock(work_2_buf, work_2_buf_words);

	mov	rdx, QWORD PTR work_2_buf_words$[rbp-185]
	mov	rcx, r15
	call	DeallocateBlock

; 227  :         DeallocateBlock(work_1_buf, work_1_buf_words);

	mov	rdx, QWORD PTR work_1_buf_words$[rbp-185]
	mov	rcx, r12
	call	DeallocateBlock

; 228  :         DeallocateBlock(v_2_buf, v_2_buf_words);

	mov	rdx, QWORD PTR v_2_buf_words$[rbp-185]
	mov	rcx, QWORD PTR v_2_buf$1$[rbp-185]
	call	DeallocateBlock

; 229  :         return (PMC_STATUS_NOT_ENOUGH_MEMORY);

	mov	eax, -5
	jmp	$LN126@ModulePowe
$LN15@ModulePowe:

; 230  :     }
; 231  : 
; 232  :     __UNIT_TYPE v_count;
; 233  :     int cmp = Compare_Easy(v->BLOCK, v->UNIT_WORD_COUNT, m_buf, m_count);

	mov	r8, QWORD PTR [rbx+8]

; 82   :     if (u_count > v_count)

	cmp	r8, r14
	jbe	$LN50@ModulePowe

; 83   :         return (1);

	mov	eax, 1
$LN16@ModulePowe:

; 251  :     }
; 252  :     else if (cmp > 0)

	mov	rcx, QWORD PTR [rbx+8]
	mov	rsi, QWORD PTR [rbx+56]
	test	eax, eax
	jle	$LN18@ModulePowe

; 253  :     {
; 254  :         // v > m である場合
; 255  : 
; 256  :         // v2 を v % m に設定する。
; 257  : 
; 258  :         DivRem_X_X(v->BLOCK, v->UNIT_WORD_COUNT, m_buf, m_count, work_v_buf, q_buf, v_2_buf);

	mov	rbx, QWORD PTR v_2_buf$1$[rbp-185]
	mov	rdx, rcx
	mov	rdi, QWORD PTR work_v_buf$1$[rbp-185]
	mov	r9, r14
	mov	r8, QWORD PTR m_buf$1$[rbp-185]
	mov	rcx, rsi
	mov	QWORD PTR [rsp+48], rbx
	mov	QWORD PTR [rsp+40], r13
	mov	QWORD PTR [rsp+32], rdi
	call	DivRem_X_X

; 259  :         if ((result = CheckBlockLight(work_v_buf, work_v_buf_code)) != PMC_STATUS_OK)

	mov	rdx, QWORD PTR work_v_buf_code$[rbp-185]
	mov	rcx, rdi
	call	CheckBlockLight
	test	eax, eax
	jne	$LN126@ModulePowe

; 260  :             return (result);
; 261  :         if ((result = CheckBlockLight(q_buf, q_buf_code)) != PMC_STATUS_OK)

	mov	rdx, QWORD PTR q_buf_code$[rbp-185]
	mov	rcx, r13
	call	CheckBlockLight
	test	eax, eax
	jne	$LN126@ModulePowe

; 262  :             return (result);
; 263  :         if ((result = CheckBlockLight(v_2_buf, v_2_buf_code)) != PMC_STATUS_OK)

	mov	rdx, QWORD PTR v_2_buf_code$[rbp-185]
	mov	rcx, rbx
	call	CheckBlockLight
	test	eax, eax
	jne	$LN126@ModulePowe

; 264  :             return (result);
; 265  :         v_count = m_count;

	mov	rdx, r14
	mov	QWORD PTR v_count$1$[rbp-185], rdx

; 266  :         while (v_count > 0 && v_2_buf[v_count - 1] == 0)

	test	r14, r14
	je	$LN118@ModulePowe

; 264  :             return (result);
; 265  :         v_count = m_count;

	lea	rax, QWORD PTR [rbx-8]
	lea	rax, QWORD PTR [rax+r14*8]
$LL2@ModulePowe:

; 266  :         while (v_count > 0 && v_2_buf[v_count - 1] == 0)

	cmp	QWORD PTR [rax], 0
	jne	$LN3@ModulePowe

; 267  :             --v_count;

	dec	rdx
	sub	rax, 8
	mov	QWORD PTR v_count$1$[rbp-185], rdx
	test	rdx, rdx
	jne	SHORT $LL2@ModulePowe

; 268  : 
; 269  :         if (v_count <= 0)

	jmp	SHORT $LN118@ModulePowe
$LN50@ModulePowe:

; 84   :     else if (u_count < v_count)

	jae	SHORT $LN52@ModulePowe

; 85   :         return (-1);

	mov	eax, -1
	jmp	$LN16@ModulePowe
$LN52@ModulePowe:

; 86   :     else
; 87   :         return (Compare_Imp(u, v, u_count));

	mov	rdx, QWORD PTR m_buf$1$[rbp-185]
	mov	rcx, QWORD PTR [rbx+56]
	call	Compare_Imp

; 234  :     if (cmp == 0)

	test	eax, eax
	jne	$LN16@ModulePowe

; 235  :     {
; 236  :         // v == m である場合
; 237  : 
; 238  :         // v を何乗してもその剰余は 0 であるため、0 を返す。
; 239  : 
; 240  :         DeallocateNumber(*r);

	mov	rcx, QWORD PTR [rdi]
	call	DeallocateNumber

; 241  :         DeallocateBlock(q_buf, q_buf_words);

	mov	rdx, QWORD PTR q_buf_words$[rbp-185]
	mov	rcx, r13
	call	DeallocateBlock

; 242  :         DeallocateBlock(work_v_buf, work_v_buf_words);

	mov	rdx, QWORD PTR work_v_buf_words$[rbp-185]
	mov	rcx, rsi
	call	DeallocateBlock

; 243  :         DeallocateBlock(work_2_buf, work_2_buf_words);

	mov	rdx, QWORD PTR work_2_buf_words$[rbp-185]
	mov	rcx, r15
	call	DeallocateBlock

; 244  :         DeallocateBlock(work_1_buf, work_1_buf_words);

	mov	rdx, QWORD PTR work_1_buf_words$[rbp-185]
	mov	rcx, r12
	call	DeallocateBlock

; 245  :         DeallocateBlock(v_2_buf, v_2_buf_words);

	mov	rdx, QWORD PTR v_2_buf_words$[rbp-185]
	mov	rcx, QWORD PTR v_2_buf$1$[rbp-185]
	call	DeallocateBlock

; 246  :         *r = &number_zero;

	lea	rax, OFFSET FLAT:number_zero
	mov	QWORD PTR [rdi], rax

; 247  : #ifdef DO_TRACE
; 248  :         ReportOUT(*r);
; 249  : #endif
; 250  :         return (PMC_STATUS_OK);

	jmp	$LN127@ModulePowe
$LN3@ModulePowe:

; 268  : 
; 269  :         if (v_count <= 0)

	test	rdx, rdx
	jne	SHORT $LN19@ModulePowe
$LN118@ModulePowe:

; 270  :         {
; 271  :             // v2 が 0 になってしまった場合はべき乗を繰り返しても 0 になることが確定なので 0 を返す
; 272  :             DeallocateNumber(*r);

	mov	r14, QWORD PTR r$[rbp-185]
	mov	rcx, QWORD PTR [r14]
	call	DeallocateNumber

; 273  :             DeallocateBlock(q_buf, q_buf_words);

	mov	rdx, QWORD PTR q_buf_words$[rbp-185]
	mov	rcx, r13
	call	DeallocateBlock

; 274  :             DeallocateBlock(work_v_buf, work_v_buf_words);

	mov	rdx, QWORD PTR work_v_buf_words$[rbp-185]
	mov	rcx, rdi
	call	DeallocateBlock

; 275  :             DeallocateBlock(work_2_buf, work_2_buf_words);

	mov	rdx, QWORD PTR work_2_buf_words$[rbp-185]
	mov	rcx, r15
	call	DeallocateBlock

; 276  :             DeallocateBlock(work_1_buf, work_1_buf_words);

	mov	rdx, QWORD PTR work_1_buf_words$[rbp-185]
	mov	rcx, r12
	call	DeallocateBlock

; 277  :             DeallocateBlock(v_2_buf, v_2_buf_words);

	mov	rdx, QWORD PTR v_2_buf_words$[rbp-185]
	mov	rcx, rbx
	call	DeallocateBlock

; 278  :             *r = &number_zero;

	lea	rax, OFFSET FLAT:number_zero
	mov	QWORD PTR [r14], rax

; 279  : #ifdef DO_TRACE
; 280  :             ReportOUT(*r);
; 281  : #endif
; 282  :             return (PMC_STATUS_OK);

	jmp	$LN127@ModulePowe
$LN18@ModulePowe:
; File z:\sources\lunor\repos\rougemeilland\palmtree.math.core.uint\palmtree.math.core.uint\pmc_inline_func.h

; 63   :         __movsq(d, s, count);

	mov	rdi, QWORD PTR v_2_buf$1$[rbp-185]
	rep movsq
; File z:\sources\lunor\repos\rougemeilland\palmtree.math.core.uint\palmtree.math.core.uint\pmc_modpow.c

; 290  :         v_count = v->UNIT_WORD_COUNT;

	mov	rdx, QWORD PTR [rbx+8]
	mov	rbx, QWORD PTR v_2_buf$1$[rbp-185]
	mov	QWORD PTR v_count$1$[rbp-185], rdx
$LN19@ModulePowe:

; 291  :     }
; 292  : 
; 293  : #ifdef DO_TRACE
; 294  :     ReportLabel("vの初期化");
; 295  :     ReportDump("v", v_2_buf, v_count);
; 296  : #endif
; 297  :     __UNIT_TYPE e_count = e->UNIT_WORD_COUNT;

	mov	rax, QWORD PTR e$[rbp-185]
	mov	r8, QWORD PTR [rax+8]

; 299  :     e_mask = e_mask >> _LZCNT_ALT_UNIT(e->BLOCK[e_count - 1]);

	mov	rax, QWORD PTR [rax+56]
	mov	rcx, QWORD PTR [rax+r8*8-8]
; File z:\sources\lunor\repos\rougemeilland\palmtree.math.core.uint\palmtree.math.core.uint\pmc_inline_func.h

; 623  :         if (x == 0)

	test	rcx, rcx
	jne	SHORT $LN58@ModulePowe

; 624  :             return (sizeof(x) * 8);

	mov	ecx, 64					; 00000040H
	jmp	SHORT $LN57@ModulePowe
$LN58@ModulePowe:

; 625  : #ifdef _M_IX86
; 626  :         _UINT32_T pos;
; 627  : #ifdef _MSC_VER
; 628  :         _BitScanReverse(&pos, x);
; 629  : #elif defined(__GNUC__)
; 630  :         __asm__("bsrl %1, %0" : "=r"(pos) : "rm"(x));
; 631  : #else
; 632  : #error unknown compiler
; 633  : #endif
; 634  : #elif defined(_M_X64)
; 635  : #ifdef _MSC_VER
; 636  :         _UINT32_T pos;
; 637  :         _BitScanReverse64(&pos, x);

	bsr	rax, rcx

; 638  : #elif defined(__GNUC__)
; 639  :         _UINT64_T pos;
; 640  :         __asm__("bsrq %1, %0" : "=r"(pos) : "rm"(x));
; 641  : #else
; 642  : #error unknown compiler
; 643  : #endif
; 644  : #else
; 645  : #error unknown platform
; 646  : #endif
; 647  :         return (sizeof(x) * 8 - 1 - pos);

	mov	ecx, 63					; 0000003fH
	sub	ecx, eax
$LN57@ModulePowe:

; 63   :         __movsq(d, s, count);

	mov	rdi, r12
	mov	rsi, rbx
; File z:\sources\lunor\repos\rougemeilland\palmtree.math.core.uint\palmtree.math.core.uint\pmc_modpow.c

; 299  :     e_mask = e_mask >> _LZCNT_ALT_UNIT(e->BLOCK[e_count - 1]);

	mov	rax, -9223372036854775808		; 8000000000000000H

; 312  :     __UNIT_TYPE u_count = v_count;

	mov	rbx, rdx
	mov	r13, rax
	shr	r13, cl
; File z:\sources\lunor\repos\rougemeilland\palmtree.math.core.uint\palmtree.math.core.uint\pmc_inline_func.h

; 63   :         __movsq(d, s, count);

	mov	rcx, r14
	rep movsq
; File z:\sources\lunor\repos\rougemeilland\palmtree.math.core.uint\palmtree.math.core.uint\pmc_modpow.c

; 309  :     __UNIT_TYPE* u_ptr = work_1_buf;

	mov	rsi, r12

; 310  :     __UNIT_TYPE* v_ptr = v_2_buf;
; 311  :     __UNIT_TYPE* w_ptr = work_2_buf;

	mov	r12, r15

; 313  : 
; 314  :     while (e_count > 0)

	test	r8, r8
	je	$LN5@ModulePowe
	npad	8
$LL4@ModulePowe:

; 315  :     {
; 316  : #ifdef DO_TRACE
; 317  :         ReportLabel("ループ開始");
; 318  :         ReportVar("e_count", e_count);
; 319  :         ReportVar("e_mask", e_mask);
; 320  : #endif
; 321  : 
; 322  :         // 次の桁の準備をする
; 323  :         e_mask >>= 1;

	shr	r13, 1
	mov	rcx, r13

; 324  :         if (e_mask == 0)

	cmove	r13, rax

; 325  :         {
; 326  :             e_mask = ~((__UNIT_TYPE)-1 >> 1);
; 327  :             --e_count;
; 328  :         }
; 329  : 
; 330  :         if (e_count <= 0)

	test	rcx, rcx
	lea	rax, QWORD PTR [r8-1]
	cmovne	rax, r8
	mov	QWORD PTR e_count$1$[rbp-185], rax
	test	rax, rax
	je	$LN5@ModulePowe
; File z:\sources\lunor\repos\rougemeilland\palmtree.math.core.uint\palmtree.math.core.uint\pmc_inline_func.h

; 113  :         __stosq(d, 0, count);

	mov	rcx, QWORD PTR work_1_buf_words$[rbp-185]
	xor	eax, eax
	mov	rdi, r12
; File z:\sources\lunor\repos\rougemeilland\palmtree.math.core.uint\palmtree.math.core.uint\pmc_modpow.c

; 345  :         Multiply_X_X_Imp(u_ptr, u_count, u_ptr, u_count, w_ptr);

	mov	QWORD PTR [rsp+32], r12
; File z:\sources\lunor\repos\rougemeilland\palmtree.math.core.uint\palmtree.math.core.uint\pmc_inline_func.h

; 113  :         __stosq(d, 0, count);

	rep stosq
; File z:\sources\lunor\repos\rougemeilland\palmtree.math.core.uint\palmtree.math.core.uint\pmc_modpow.c

; 345  :         Multiply_X_X_Imp(u_ptr, u_count, u_ptr, u_count, w_ptr);

	mov	rcx, rsi
	mov	r9, rbx
	mov	r8, rsi
	mov	rdx, rbx
	call	Multiply_X_X_Imp

; 346  :         if ((result = CheckBlockLight(work_1_buf, work_1_buf_code)) != PMC_STATUS_OK)

	mov	rdx, QWORD PTR work_1_buf_code$[rbp-185]
	mov	rcx, QWORD PTR work_1_buf$1$[rbp-185]
	call	CheckBlockLight
	test	eax, eax
	jne	$LN126@ModulePowe

; 347  :             return (result);
; 348  :         if ((result = CheckBlockLight(work_2_buf, work_2_buf_code)) != PMC_STATUS_OK)

	mov	rdx, QWORD PTR work_2_buf_code$[rbp-185]
	mov	rcx, r15
	call	CheckBlockLight
	test	eax, eax
	jne	$LN126@ModulePowe

; 94   :     *v = t;

	lea	rcx, QWORD PTR [rbx+rbx]
	mov	r15, rsi

; 349  :             return (result);
; 350  :         SwapPointer(&u_ptr, &w_ptr);
; 351  :         u_count *= 2;
; 352  :         if (u_ptr[u_count - 1] == 0)

	add	rbx, rbx

; 93   :     *u = *v;

	mov	rsi, r12

; 94   :     *v = t;

	mov	r12, r15

; 353  :             --u_count;
; 354  : #ifdef DO_TRACE
; 355  :         ReportDump("w", u_ptr, u_count);
; 356  : #endif
; 357  : 
; 358  :         // w := u % m を計算する
; 359  : #ifdef DO_TRACE
; 360  :         ReportLabel("w := u % m");
; 361  :         ReportDump("u", u_ptr, u_count);
; 362  :         ReportDump("m", m_buf, m_count);
; 363  : #endif
; 364  :         if (u_count >= m_count)

	mov	rax, QWORD PTR [rsi+rbx*8-8]
	lea	rbx, QWORD PTR [rcx-1]
	test	rax, rax
	cmovne	rbx, rcx
	cmp	rbx, r14
	jb	$LN7@ModulePowe
; File z:\sources\lunor\repos\rougemeilland\palmtree.math.core.uint\palmtree.math.core.uint\pmc_inline_func.h

; 113  :         __stosq(d, 0, count);

	mov	rcx, QWORD PTR work_v_buf_words$[rbp-185]
	xor	eax, eax
	mov	rdx, QWORD PTR work_v_buf$1$[rbp-185]
; File z:\sources\lunor\repos\rougemeilland\palmtree.math.core.uint\palmtree.math.core.uint\pmc_modpow.c

; 369  :             DivRem_X_X(u_ptr, u_count, m_buf, m_count, work_v_buf, q_buf, w_ptr);

	mov	r9, r14
; File z:\sources\lunor\repos\rougemeilland\palmtree.math.core.uint\palmtree.math.core.uint\pmc_inline_func.h

; 113  :         __stosq(d, 0, count);

	mov	r12, QWORD PTR q_buf$1$[rbp-185]
	mov	rdi, rdx
; File z:\sources\lunor\repos\rougemeilland\palmtree.math.core.uint\palmtree.math.core.uint\pmc_modpow.c

; 369  :             DivRem_X_X(u_ptr, u_count, m_buf, m_count, work_v_buf, q_buf, w_ptr);

	mov	r8, QWORD PTR m_buf$1$[rbp-185]
; File z:\sources\lunor\repos\rougemeilland\palmtree.math.core.uint\palmtree.math.core.uint\pmc_inline_func.h

; 113  :         __stosq(d, 0, count);

	rep stosq
	mov	rcx, QWORD PTR q_buf_words$[rbp-185]
	mov	rdi, r12
	rep stosq
	mov	rcx, QWORD PTR work_1_buf_words$[rbp-185]
	mov	rdi, r15
; File z:\sources\lunor\repos\rougemeilland\palmtree.math.core.uint\palmtree.math.core.uint\pmc_modpow.c

; 369  :             DivRem_X_X(u_ptr, u_count, m_buf, m_count, work_v_buf, q_buf, w_ptr);

	mov	QWORD PTR [rsp+48], r15
; File z:\sources\lunor\repos\rougemeilland\palmtree.math.core.uint\palmtree.math.core.uint\pmc_inline_func.h

; 113  :         __stosq(d, 0, count);

	rep stosq
; File z:\sources\lunor\repos\rougemeilland\palmtree.math.core.uint\palmtree.math.core.uint\pmc_modpow.c

; 369  :             DivRem_X_X(u_ptr, u_count, m_buf, m_count, work_v_buf, q_buf, w_ptr);

	mov	QWORD PTR [rsp+40], r12
	mov	rcx, rsi
	mov	QWORD PTR [rsp+32], rdx
	mov	rdx, rbx
	call	DivRem_X_X

; 370  :             if ((result = CheckBlockLight(work_v_buf, work_v_buf_code)) != PMC_STATUS_OK)

	mov	rdx, QWORD PTR work_v_buf_code$[rbp-185]
	mov	rcx, QWORD PTR work_v_buf$1$[rbp-185]
	call	CheckBlockLight
	test	eax, eax
	jne	$LN126@ModulePowe

; 371  :                 return (result);
; 372  :             if ((result = CheckBlockLight(q_buf, q_buf_code)) != PMC_STATUS_OK)

	mov	rdx, QWORD PTR q_buf_code$[rbp-185]
	mov	rcx, r12
	call	CheckBlockLight
	test	eax, eax
	jne	$LN126@ModulePowe

; 373  :                 return (result);
; 374  :             if ((result = CheckBlockLight(work_1_buf, work_1_buf_code)) != PMC_STATUS_OK)

	mov	rdx, QWORD PTR work_1_buf_code$[rbp-185]
	mov	rcx, QWORD PTR work_1_buf$1$[rbp-185]
	call	CheckBlockLight
	test	eax, eax
	jne	$LN126@ModulePowe

; 375  :                 return (result);
; 376  :             if ((result = CheckBlockLight(work_2_buf, work_2_buf_code)) != PMC_STATUS_OK)

	mov	rdi, QWORD PTR work_2_buf$1$[rbp-185]
	mov	rdx, QWORD PTR work_2_buf_code$[rbp-185]
	mov	rcx, rdi
	call	CheckBlockLight
	test	eax, eax
	jne	$LN126@ModulePowe

; 92   :     __UNIT_TYPE* t = *u;

	mov	r12, rsi

; 93   :     *u = *v;

	mov	rsi, r15

; 377  :                 return (result);
; 378  :             SwapPointer(&u_ptr, &w_ptr);
; 379  :             u_count = m_count;

	mov	rbx, r14

; 380  :             while (u_count > 0 && u_ptr[u_count - 1] == 0)

	test	r14, r14
	je	SHORT $LN99@ModulePowe

; 92   :     __UNIT_TYPE* t = *u;

	lea	rax, QWORD PTR [r14-1]
	lea	rax, QWORD PTR [r15+rax*8]
	npad	5
$LL6@ModulePowe:

; 380  :             while (u_count > 0 && u_ptr[u_count - 1] == 0)

	cmp	QWORD PTR [rax], 0
	jne	SHORT $LN7@ModulePowe

; 381  :                 --u_count;

	sub	rax, 8
	sub	rbx, 1
	jne	SHORT $LL6@ModulePowe
$LN99@ModulePowe:

; 493  : #ifdef DO_TRACE
; 494  :     ReportOUT(*r);
; 495  : #endif
; 496  :     return (PMC_STATUS_OK);

	mov	r14, QWORD PTR r$[rbp-185]
	mov	rcx, QWORD PTR [r14]
	call	DeallocateNumber
	mov	rdx, QWORD PTR q_buf_words$[rbp-185]
	mov	rcx, QWORD PTR q_buf$1$[rbp-185]
	call	DeallocateBlock
	mov	rdx, QWORD PTR work_v_buf_words$[rbp-185]
	mov	rcx, QWORD PTR work_v_buf$1$[rbp-185]
	call	DeallocateBlock
	mov	rdx, QWORD PTR work_2_buf_words$[rbp-185]
	mov	rcx, rdi
	call	DeallocateBlock
	mov	rdx, QWORD PTR work_1_buf_words$[rbp-185]
	mov	rcx, QWORD PTR work_1_buf$1$[rbp-185]
	call	DeallocateBlock
	mov	rdx, QWORD PTR v_2_buf_words$[rbp-185]
	mov	rcx, QWORD PTR v_2_buf$1$[rbp-185]
	call	DeallocateBlock
	lea	rax, OFFSET FLAT:number_zero
	mov	QWORD PTR [r14], rax
	jmp	$LN127@ModulePowe
$LN7@ModulePowe:

; 382  : 
; 383  :             if (u_count <= 0)
; 384  :             {
; 385  :                 // 剰余が 0 になった場合はこれ以上続行しても解が 0 以外にはならないので、処理を中断して 0 を返す
; 386  :                 DeallocateNumber(*r);
; 387  :                 DeallocateBlock(q_buf, q_buf_words);
; 388  :                 DeallocateBlock(work_v_buf, work_v_buf_words);
; 389  :                 DeallocateBlock(work_2_buf, work_2_buf_words);
; 390  :                 DeallocateBlock(work_1_buf, work_1_buf_words);
; 391  :                 DeallocateBlock(v_2_buf, v_2_buf_words);
; 392  :                 *r = &number_zero;
; 393  : #ifdef DO_TRACE
; 394  :                 ReportOUT(*r);
; 395  : #endif
; 396  :                 return (PMC_STATUS_OK);
; 397  :             }
; 398  :         }
; 399  : #ifdef DO_TRACE
; 400  :         ReportDump("w", u_ptr, u_count);
; 401  : #endif
; 402  : 
; 403  : #ifdef DO_TRACE
; 404  :         ReportLabel("e のビット検査");
; 405  :         ReportDump("e", e->BLOCK, e->UNIT_WORD_COUNT);
; 406  :         ReportVar("e_count", e_count);
; 407  :         ReportVar("e_mask", e_mask);
; 408  :         ReportVar("e_mask & e->BLOCK[e_count - 1]", e_mask & e->BLOCK[e_count - 1]);
; 409  : #endif
; 410  :         if (e_mask & e->BLOCK[e_count - 1])

	mov	rax, QWORD PTR e$[rbp-185]
	mov	r8, QWORD PTR e_count$1$[rbp-185]
	mov	rax, QWORD PTR [rax+56]
	test	QWORD PTR [rax+r8*8-8], r13
	je	$LN9@ModulePowe
; File z:\sources\lunor\repos\rougemeilland\palmtree.math.core.uint\palmtree.math.core.uint\pmc_inline_func.h

; 113  :         __stosq(d, 0, count);

	mov	rcx, QWORD PTR work_1_buf_words$[rbp-185]
	xor	eax, eax
; File z:\sources\lunor\repos\rougemeilland\palmtree.math.core.uint\palmtree.math.core.uint\pmc_modpow.c

; 422  :             Multiply_X_X_Imp(u_ptr, u_count, v_ptr, v_count, w_ptr);

	mov	r8, QWORD PTR v_2_buf$1$[rbp-185]
; File z:\sources\lunor\repos\rougemeilland\palmtree.math.core.uint\palmtree.math.core.uint\pmc_inline_func.h

; 113  :         __stosq(d, 0, count);

	mov	rdi, r12
	rep stosq
; File z:\sources\lunor\repos\rougemeilland\palmtree.math.core.uint\palmtree.math.core.uint\pmc_modpow.c

; 422  :             Multiply_X_X_Imp(u_ptr, u_count, v_ptr, v_count, w_ptr);

	mov	rdi, QWORD PTR v_count$1$[rbp-185]
	mov	rdx, rbx
	mov	r9, rdi
	mov	QWORD PTR [rsp+32], r12
	mov	rcx, rsi
	call	Multiply_X_X_Imp

; 423  :             if ((result = CheckBlockLight(work_1_buf, work_1_buf_code)) != PMC_STATUS_OK)

	mov	rdx, QWORD PTR work_1_buf_code$[rbp-185]
	mov	rcx, QWORD PTR work_1_buf$1$[rbp-185]
	call	CheckBlockLight
	test	eax, eax
	jne	$LN126@ModulePowe

; 424  :                 return (result);
; 425  :             if ((result = CheckBlockLight(work_2_buf, work_2_buf_code)) != PMC_STATUS_OK)

	mov	rdx, QWORD PTR work_2_buf_code$[rbp-185]
	mov	rcx, QWORD PTR work_2_buf$1$[rbp-185]
	call	CheckBlockLight
	test	eax, eax
	jne	$LN126@ModulePowe

; 426  :                 return (result);
; 427  :             SwapPointer(&u_ptr, &w_ptr);
; 428  :             u_count += v_count;

	add	rbx, rdi

; 92   :     __UNIT_TYPE* t = *u;

	mov	r15, rsi

; 93   :     *u = *v;

	mov	rsi, r12

; 426  :                 return (result);
; 427  :             SwapPointer(&u_ptr, &w_ptr);
; 428  :             u_count += v_count;

	mov	rcx, rbx

; 94   :     *v = t;

	mov	r12, r15

; 429  :             if (u_ptr[u_count - 1] == 0)
; 430  :                 --u_count;
; 431  : #ifdef DO_TRACE
; 432  :             ReportDump("w", u_ptr, u_count);
; 433  : #endif
; 434  : 
; 435  :             // w := u % m を計算する
; 436  : 
; 437  : #ifdef DO_TRACE
; 438  :             ReportLabel("w := u % m");
; 439  :             ReportDump("u", u_ptr, u_count);
; 440  :             ReportDump("m", m_buf, m_count);
; 441  : #endif
; 442  :             if (u_count >= m_count)

	mov	rax, QWORD PTR [rsi+rbx*8-8]
	dec	rbx
	test	rax, rax
	cmovne	rbx, rcx
	cmp	rbx, r14
	jb	$LN123@ModulePowe
; File z:\sources\lunor\repos\rougemeilland\palmtree.math.core.uint\palmtree.math.core.uint\pmc_inline_func.h

; 113  :         __stosq(d, 0, count);

	mov	rcx, QWORD PTR work_v_buf_words$[rbp-185]
	xor	eax, eax
	mov	rdx, QWORD PTR work_v_buf$1$[rbp-185]
; File z:\sources\lunor\repos\rougemeilland\palmtree.math.core.uint\palmtree.math.core.uint\pmc_modpow.c

; 447  :                 DivRem_X_X(u_ptr, u_count, m_buf, m_count, work_v_buf, q_buf, w_ptr);

	mov	r9, r14
; File z:\sources\lunor\repos\rougemeilland\palmtree.math.core.uint\palmtree.math.core.uint\pmc_inline_func.h

; 113  :         __stosq(d, 0, count);

	mov	r12, QWORD PTR q_buf$1$[rbp-185]
	mov	rdi, rdx
; File z:\sources\lunor\repos\rougemeilland\palmtree.math.core.uint\palmtree.math.core.uint\pmc_modpow.c

; 447  :                 DivRem_X_X(u_ptr, u_count, m_buf, m_count, work_v_buf, q_buf, w_ptr);

	mov	r8, QWORD PTR m_buf$1$[rbp-185]
; File z:\sources\lunor\repos\rougemeilland\palmtree.math.core.uint\palmtree.math.core.uint\pmc_inline_func.h

; 113  :         __stosq(d, 0, count);

	rep stosq
	mov	rcx, QWORD PTR q_buf_words$[rbp-185]
	mov	rdi, r12
	rep stosq
	mov	rcx, QWORD PTR work_1_buf_words$[rbp-185]
	mov	rdi, r15
; File z:\sources\lunor\repos\rougemeilland\palmtree.math.core.uint\palmtree.math.core.uint\pmc_modpow.c

; 447  :                 DivRem_X_X(u_ptr, u_count, m_buf, m_count, work_v_buf, q_buf, w_ptr);

	mov	QWORD PTR [rsp+48], r15
; File z:\sources\lunor\repos\rougemeilland\palmtree.math.core.uint\palmtree.math.core.uint\pmc_inline_func.h

; 113  :         __stosq(d, 0, count);

	rep stosq
; File z:\sources\lunor\repos\rougemeilland\palmtree.math.core.uint\palmtree.math.core.uint\pmc_modpow.c

; 447  :                 DivRem_X_X(u_ptr, u_count, m_buf, m_count, work_v_buf, q_buf, w_ptr);

	mov	QWORD PTR [rsp+40], r12
	mov	rcx, rsi
	mov	QWORD PTR [rsp+32], rdx
	mov	rdx, rbx
	call	DivRem_X_X

; 448  :                 if ((result = CheckBlockLight(work_v_buf, work_v_buf_code)) != PMC_STATUS_OK)

	mov	rdx, QWORD PTR work_v_buf_code$[rbp-185]
	mov	rcx, QWORD PTR work_v_buf$1$[rbp-185]
	call	CheckBlockLight
	test	eax, eax
	jne	$LN126@ModulePowe

; 449  :                     return (result);
; 450  :                 if ((result = CheckBlockLight(q_buf, q_buf_code)) != PMC_STATUS_OK)

	mov	rdx, QWORD PTR q_buf_code$[rbp-185]
	mov	rcx, r12
	call	CheckBlockLight
	test	eax, eax
	jne	$LN126@ModulePowe

; 451  :                     return (result);
; 452  :                 if ((result = CheckBlockLight(work_1_buf, work_1_buf_code)) != PMC_STATUS_OK)

	mov	rdx, QWORD PTR work_1_buf_code$[rbp-185]
	mov	rcx, QWORD PTR work_1_buf$1$[rbp-185]
	call	CheckBlockLight
	test	eax, eax
	jne	$LN126@ModulePowe

; 453  :                     return (result);
; 454  :                 if ((result = CheckBlockLight(work_2_buf, work_2_buf_code)) != PMC_STATUS_OK)

	mov	rdi, QWORD PTR work_2_buf$1$[rbp-185]
	mov	rdx, QWORD PTR work_2_buf_code$[rbp-185]
	mov	rcx, rdi
	call	CheckBlockLight
	test	eax, eax
	jne	$LN126@ModulePowe

; 92   :     __UNIT_TYPE* t = *u;

	mov	r12, rsi

; 93   :     *u = *v;

	mov	rsi, r15

; 455  :                     return (result);
; 456  :                 SwapPointer(&u_ptr, &w_ptr);
; 457  :                 u_count = m_count;

	mov	rbx, r14

; 458  :                 while (u_count > 0 && u_ptr[u_count - 1] == 0)

	test	r14, r14
	je	$LN99@ModulePowe

; 92   :     __UNIT_TYPE* t = *u;

	lea	rax, QWORD PTR [r14-1]
	lea	rax, QWORD PTR [r15+rax*8]
$LL8@ModulePowe:

; 458  :                 while (u_count > 0 && u_ptr[u_count - 1] == 0)

	cmp	QWORD PTR [rax], 0
	jne	SHORT $LN123@ModulePowe

; 459  :                     --u_count;

	sub	rax, 8
	sub	rbx, 1
	jne	SHORT $LL8@ModulePowe

; 458  :                 while (u_count > 0 && u_ptr[u_count - 1] == 0)

	jmp	$LN99@ModulePowe
$LN123@ModulePowe:

; 313  : 
; 314  :     while (e_count > 0)

	mov	r8, QWORD PTR e_count$1$[rbp-185]
$LN9@ModulePowe:
	mov	r15, QWORD PTR work_2_buf$1$[rbp-185]
	mov	rax, -9223372036854775808		; 8000000000000000H
	jmp	$LL4@ModulePowe
$LN5@ModulePowe:
; File z:\sources\lunor\repos\rougemeilland\palmtree.math.core.uint\palmtree.math.core.uint\pmc_inline_func.h

; 63   :         __movsq(d, s, count);

	mov	r14, QWORD PTR r$[rbp-185]
	mov	rcx, rbx
	mov	rdi, QWORD PTR [r14]
	mov	rdi, QWORD PTR [rdi+56]
	rep movsq
; File z:\sources\lunor\repos\rougemeilland\palmtree.math.core.uint\palmtree.math.core.uint\pmc_modpow.c

; 485  :     if ((result = CheckBlockLight((*r)->BLOCK, r_check_code)) != PMC_STATUS_OK)

	mov	rcx, QWORD PTR [r14]
	mov	rdx, QWORD PTR r_check_code$[rbp-185]
	mov	rcx, QWORD PTR [rcx+56]
	call	CheckBlockLight
	test	eax, eax
	jne	SHORT $LN126@ModulePowe

; 486  :         return (result);
; 487  :     CommitNumber(*r);

	mov	rcx, QWORD PTR [r14]
	call	CommitNumber

; 488  :     DeallocateBlock(q_buf, q_buf_words);

	mov	rdx, QWORD PTR q_buf_words$[rbp-185]
	mov	rcx, QWORD PTR q_buf$1$[rbp-185]
	call	DeallocateBlock

; 489  :     DeallocateBlock(work_v_buf, work_v_buf_words);

	mov	rdx, QWORD PTR work_v_buf_words$[rbp-185]
	mov	rcx, QWORD PTR work_v_buf$1$[rbp-185]
	call	DeallocateBlock

; 490  :     DeallocateBlock(work_2_buf, work_2_buf_words);

	mov	rdx, QWORD PTR work_2_buf_words$[rbp-185]
	mov	rcx, r15
	call	DeallocateBlock

; 491  :     DeallocateBlock(work_1_buf, work_1_buf_words);

	mov	rdx, QWORD PTR work_1_buf_words$[rbp-185]
	mov	rcx, QWORD PTR work_1_buf$1$[rbp-185]
	call	DeallocateBlock

; 492  :     DeallocateBlock(v_2_buf, v_2_buf_words);

	mov	rdx, QWORD PTR v_2_buf_words$[rbp-185]
	mov	rcx, QWORD PTR v_2_buf$1$[rbp-185]
	call	DeallocateBlock
$LN127@ModulePowe:

; 493  : #ifdef DO_TRACE
; 494  :     ReportOUT(*r);
; 495  : #endif
; 496  :     return (PMC_STATUS_OK);

	xor	eax, eax
$LN126@ModulePowe:
	mov	r15, QWORD PTR [rsp+216]
$LN125@ModulePowe:
	mov	rsi, QWORD PTR [rsp+232]
	mov	r12, QWORD PTR [rsp+224]

; 497  : }

	add	rsp, 240				; 000000f0H
	pop	r14
	pop	r13
	pop	rdi
	pop	rbx
	pop	rbp
	ret	0
ModulePower ENDP
_TEXT	ENDS
; Function compile flags: /Ogtpy
; File z:\sources\lunor\repos\rougemeilland\palmtree.math.core.uint\palmtree.math.core.uint\pmc_modpow.c
; File z:\sources\lunor\repos\rougemeilland\palmtree.math.core.uint\palmtree.math.core.uint\pmc_inline_func.h
; File z:\sources\lunor\repos\rougemeilland\palmtree.math.core.uint\palmtree.math.core.uint\pmc_modpow.c
; File z:\sources\lunor\repos\rougemeilland\palmtree.math.core.uint\palmtree.math.core.uint\pmc_inline_func.h
; File z:\sources\lunor\repos\rougemeilland\palmtree.math.core.uint\palmtree.math.core.uint\pmc_modpow.c
;	COMDAT Remainder
_TEXT	SEGMENT
q_buf_code$1 = 64
r_check_code$2 = 72
work_v_buf_words$3 = 128
u$ = 128
q_buf_words$4 = 136
v$ = 136
r$ = 144
work_v_buf_code$5 = 152
Remainder PROC						; COMDAT

; 98   : {

	push	rbx
	push	rbp
	push	rdi
	push	r14
	push	r15
	sub	rsp, 80					; 00000050H
	mov	rbx, rcx
	mov	r14, r8

; 99   :     PMC_STATUS_CODE result;
; 100  : 
; 101  :     if (u->UNIT_BIT_COUNT < v->UNIT_BIT_COUNT)

	mov	rcx, QWORD PTR [rdx+16]
	mov	rdi, rdx
	cmp	QWORD PTR [rbx+16], rcx
	jae	SHORT $LN2@Remainder

; 102  :     {
; 103  :         if ((result = DuplicateNumber(u, r)) != PMC_STATUS_OK)

	mov	rdx, r8
	mov	rcx, rbx
	call	DuplicateNumber
	test	eax, eax
	je	$LN3@Remainder

; 152  : }

	add	rsp, 80					; 00000050H
	pop	r15
	pop	r14
	pop	rdi
	pop	rbp
	pop	rbx
	ret	0
$LN2@Remainder:

; 104  :             return (result);
; 105  :     }
; 106  :     else
; 107  :     {
; 108  :         __UNIT_TYPE work_v_buf_code;
; 109  :         __UNIT_TYPE work_v_buf_words;
; 110  :         __UNIT_TYPE* work_v_buf = AllocateBlock(v->UNIT_BIT_COUNT, &work_v_buf_words, &work_v_buf_code);

	lea	r8, QWORD PTR work_v_buf_code$5[rsp]
	lea	rdx, QWORD PTR work_v_buf_words$3[rsp]
	call	AllocateBlock
	mov	rbp, rax

; 111  :         if (work_v_buf == NULL)

	test	rax, rax
	je	SHORT $LN16@Remainder

; 112  :         {
; 113  :             return (PMC_STATUS_NOT_ENOUGH_MEMORY);
; 114  :         }
; 115  :         __UNIT_TYPE q_buf_code;
; 116  :         __UNIT_TYPE q_buf_words;
; 117  :         __UNIT_TYPE* q_buf = AllocateBlock(u->UNIT_BIT_COUNT - v->UNIT_BIT_COUNT + 1 + __UNIT_TYPE_BIT_COUNT, &q_buf_words, &q_buf_code);

	mov	rcx, QWORD PTR [rbx+16]
	lea	r8, QWORD PTR q_buf_code$1[rsp]
	sub	rcx, QWORD PTR [rdi+16]
	lea	rdx, QWORD PTR q_buf_words$4[rsp]
	add	rcx, 65					; 00000041H
	call	AllocateBlock
	mov	r15, rax

; 118  :         if (q_buf == NULL)

	test	rax, rax
	je	SHORT $LN17@Remainder

; 119  :         {
; 120  :             DeallocateBlock(work_v_buf, work_v_buf_words);
; 121  :             return (PMC_STATUS_NOT_ENOUGH_MEMORY);
; 122  :         }
; 123  :         __UNIT_TYPE r_check_code;
; 124  :         if ((result = AllocateNumber(r, u->UNIT_BIT_COUNT + __UNIT_TYPE_BIT_COUNT, &r_check_code)) != PMC_STATUS_OK)

	mov	rdx, QWORD PTR [rbx+16]
	lea	r8, QWORD PTR r_check_code$2[rsp]
	add	rdx, 64					; 00000040H
	mov	rcx, r14
	call	AllocateNumber
	test	eax, eax
	je	SHORT $LN7@Remainder

; 125  :         {
; 126  :             DeallocateBlock(q_buf, q_buf_words);

	mov	rdx, QWORD PTR q_buf_words$4[rsp]
	mov	rcx, r15
	call	DeallocateBlock
$LN17@Remainder:

; 152  : }

	mov	rdx, QWORD PTR work_v_buf_words$3[rsp]
	mov	rcx, rbp
	call	DeallocateBlock
$LN16@Remainder:
	mov	eax, -5
	add	rsp, 80					; 00000050H
	pop	r15
	pop	r14
	pop	rdi
	pop	rbp
	pop	rbx
	ret	0
$LN7@Remainder:

; 127  :             DeallocateBlock(work_v_buf, work_v_buf_words);
; 128  :             return (PMC_STATUS_NOT_ENOUGH_MEMORY);
; 129  :         }
; 130  : 
; 131  :         if (u->UNIT_WORD_COUNT < v->UNIT_WORD_COUNT)

	mov	rdx, QWORD PTR [rbx+8]
	mov	r9, QWORD PTR [rdi+8]
	cmp	rdx, r9
	jae	SHORT $LN8@Remainder

; 133  :             q_buf[0] = 0;

	mov	QWORD PTR [r15], 0
; File z:\sources\lunor\repos\rougemeilland\palmtree.math.core.uint\palmtree.math.core.uint\pmc_inline_func.h

; 63   :         __movsq(d, s, count);

	mov	rdi, QWORD PTR [r14]
	mov	rcx, QWORD PTR [rbx+8]
; File z:\sources\lunor\repos\rougemeilland\palmtree.math.core.uint\palmtree.math.core.uint\pmc_modpow.c

; 133  :             q_buf[0] = 0;

	mov	QWORD PTR [rsp+144], rsi
; File z:\sources\lunor\repos\rougemeilland\palmtree.math.core.uint\palmtree.math.core.uint\pmc_inline_func.h

; 63   :         __movsq(d, s, count);

	mov	rsi, QWORD PTR [rbx+56]
	mov	rdi, QWORD PTR [rdi+56]
	rep movsq
	mov	rsi, QWORD PTR [rsp+144]
; File z:\sources\lunor\repos\rougemeilland\palmtree.math.core.uint\palmtree.math.core.uint\pmc_modpow.c

; 135  :         }

	jmp	SHORT $LN12@Remainder
$LN8@Remainder:

; 136  :         else
; 137  :         {
; 138  :             DivRem_X_X(u->BLOCK, u->UNIT_WORD_COUNT, v->BLOCK, v->UNIT_WORD_COUNT, work_v_buf, q_buf, (*r)->BLOCK);

	mov	rax, QWORD PTR [r14]
	mov	r8, QWORD PTR [rdi+56]
	mov	rcx, QWORD PTR [rax+56]
	mov	QWORD PTR [rsp+48], rcx
	mov	rcx, QWORD PTR [rbx+56]
	mov	QWORD PTR [rsp+40], r15
	mov	QWORD PTR [rsp+32], rbp
	call	DivRem_X_X

; 139  :             if ((result = CheckBlockLight(work_v_buf, work_v_buf_code)) != PMC_STATUS_OK)

	mov	rdx, QWORD PTR work_v_buf_code$5[rsp]
	mov	rcx, rbp
	call	CheckBlockLight
	test	eax, eax
	jne	SHORT $LN1@Remainder

; 140  :                 return (result);
; 141  :             if ((result = CheckBlockLight(q_buf, q_buf_code)) != PMC_STATUS_OK)

	mov	rdx, QWORD PTR q_buf_code$1[rsp]
	mov	rcx, r15
	call	CheckBlockLight
	test	eax, eax
	jne	SHORT $LN1@Remainder

; 142  :                 return (result);
; 143  :             if ((result = CheckBlockLight((*r)->BLOCK, r_check_code)) != PMC_STATUS_OK)

	mov	rcx, QWORD PTR [r14]
	mov	rdx, QWORD PTR r_check_code$2[rsp]
	mov	rcx, QWORD PTR [rcx+56]
	call	CheckBlockLight
	test	eax, eax
	jne	SHORT $LN1@Remainder
$LN12@Remainder:

; 144  :                 return (result);
; 145  :         }
; 146  : 
; 147  :         DeallocateBlock(q_buf, q_buf_words);

	mov	rdx, QWORD PTR q_buf_words$4[rsp]
	mov	rcx, r15
	call	DeallocateBlock

; 148  :         DeallocateBlock(work_v_buf, work_v_buf_words);

	mov	rdx, QWORD PTR work_v_buf_words$3[rsp]
	mov	rcx, rbp
	call	DeallocateBlock

; 149  :         CommitNumber(*r);

	mov	rcx, QWORD PTR [r14]
	call	CommitNumber
$LN3@Remainder:

; 150  :     }
; 151  :     return (PMC_STATUS_OK);

	xor	eax, eax
$LN1@Remainder:

; 152  : }

	add	rsp, 80					; 00000050H
	pop	r15
	pop	r14
	pop	rdi
	pop	rbp
	pop	rbx
	ret	0
Remainder ENDP
_TEXT	ENDS
; Function compile flags: /Ogtpy
; File z:\sources\lunor\repos\rougemeilland\palmtree.math.core.uint\palmtree.math.core.uint\pmc_modpow.c
;	COMDAT SwapPointer
_TEXT	SEGMENT
u$ = 8
v$ = 16
SwapPointer PROC					; COMDAT

; 92   :     __UNIT_TYPE* t = *u;
; 93   :     *u = *v;

	mov	rax, QWORD PTR [rdx]
	mov	r8, QWORD PTR [rcx]
	mov	QWORD PTR [rcx], rax

; 94   :     *v = t;

	mov	QWORD PTR [rdx], r8

; 95   : }

	ret	0
SwapPointer ENDP
_TEXT	ENDS
; Function compile flags: /Ogtpy
; File z:\sources\lunor\repos\rougemeilland\palmtree.math.core.uint\palmtree.math.core.uint\pmc_modpow.c
;	COMDAT Compare_Easy
_TEXT	SEGMENT
u$ = 8
u_count$ = 16
v$ = 24
v_count$ = 32
Compare_Easy PROC					; COMDAT

; 81   : {

	mov	rax, r8

; 82   :     if (u_count > v_count)

	cmp	rdx, r9
	jbe	SHORT $LN2@Compare_Ea

; 83   :         return (1);

	mov	eax, 1

; 88   : }

	ret	0
$LN2@Compare_Ea:

; 84   :     else if (u_count < v_count)

	jae	SHORT $LN4@Compare_Ea

; 85   :         return (-1);

	mov	eax, -1

; 88   : }

	ret	0
$LN4@Compare_Ea:

; 86   :     else
; 87   :         return (Compare_Imp(u, v, u_count));

	mov	r8, rdx
	mov	rdx, rax
	jmp	Compare_Imp
Compare_Easy ENDP
_TEXT	ENDS
; Function compile flags: /Ogtpy
; File z:\sources\lunor\repos\rougemeilland\palmtree.math.core.uint\palmtree.math.core.uint\pmc_inline_func.h
;	COMDAT _LZCNT_ALT_UNIT
_TEXT	SEGMENT
x$ = 8
_LZCNT_ALT_UNIT PROC					; COMDAT

; 623  :         if (x == 0)

	test	rcx, rcx
	jne	SHORT $LN2@LZCNT_ALT_

; 624  :             return (sizeof(x) * 8);

	mov	eax, 64					; 00000040H

; 648  :     }

	ret	0
$LN2@LZCNT_ALT_:

; 625  : #ifdef _M_IX86
; 626  :         _UINT32_T pos;
; 627  : #ifdef _MSC_VER
; 628  :         _BitScanReverse(&pos, x);
; 629  : #elif defined(__GNUC__)
; 630  :         __asm__("bsrl %1, %0" : "=r"(pos) : "rm"(x));
; 631  : #else
; 632  : #error unknown compiler
; 633  : #endif
; 634  : #elif defined(_M_X64)
; 635  : #ifdef _MSC_VER
; 636  :         _UINT32_T pos;
; 637  :         _BitScanReverse64(&pos, x);

	bsr	rcx, rcx

; 638  : #elif defined(__GNUC__)
; 639  :         _UINT64_T pos;
; 640  :         __asm__("bsrq %1, %0" : "=r"(pos) : "rm"(x));
; 641  : #else
; 642  : #error unknown compiler
; 643  : #endif
; 644  : #else
; 645  : #error unknown platform
; 646  : #endif
; 647  :         return (sizeof(x) * 8 - 1 - pos);

	mov	eax, 63					; 0000003fH
	sub	eax, ecx

; 648  :     }

	ret	0
_LZCNT_ALT_UNIT ENDP
_TEXT	ENDS
; Function compile flags: /Ogtpy
; File z:\sources\lunor\repos\rougemeilland\palmtree.math.core.uint\palmtree.math.core.uint\pmc_inline_func.h
;	COMDAT _MAXIMUM_UNIT
_TEXT	SEGMENT
x$ = 8
y$ = 16
_MAXIMUM_UNIT PROC					; COMDAT

; 197  :         return (x >= y ? x : y);

	cmp	rcx, rdx
	cmovae	rdx, rcx
	mov	rax, rdx

; 198  :     }

	ret	0
_MAXIMUM_UNIT ENDP
_TEXT	ENDS
; Function compile flags: /Ogtpy
; File z:\sources\lunor\repos\rougemeilland\palmtree.math.core.uint\palmtree.math.core.uint\pmc_inline_func.h
;	COMDAT _ZERO_MEMORY_UNIT
_TEXT	SEGMENT
d$ = 8
count$ = 16
_ZERO_MEMORY_UNIT PROC					; COMDAT

; 109  :     {

	mov	QWORD PTR [rsp+8], rdi

; 110  : #ifdef _M_IX86
; 111  :         __stosd((unsigned long*)d, 0, (unsigned long)count);
; 112  : #elif defined(_M_X64)
; 113  :         __stosq(d, 0, count);

	mov	rdi, rcx
	xor	eax, eax
	mov	rcx, rdx
	rep stosq

; 114  : #else
; 115  : #error unknown platform
; 116  : #endif
; 117  :     }

	mov	rdi, QWORD PTR [rsp+8]
	ret	0
_ZERO_MEMORY_UNIT ENDP
_TEXT	ENDS
; Function compile flags: /Ogtpy
; File z:\sources\lunor\repos\rougemeilland\palmtree.math.core.uint\palmtree.math.core.uint\pmc_inline_func.h
;	COMDAT _COPY_MEMORY_UNIT
_TEXT	SEGMENT
d$ = 8
s$ = 16
count$ = 24
_COPY_MEMORY_UNIT PROC					; COMDAT

; 59   :     {

	mov	QWORD PTR [rsp+8], rsi
	mov	QWORD PTR [rsp+16], rdi

; 60   : #ifdef _M_IX86
; 61   :         __movsd((unsigned long *)d, (unsigned long *)s, (unsigned long)count);
; 62   : #elif defined(_M_X64)
; 63   :         __movsq(d, s, count);

	mov	rdi, rcx
	mov	rsi, rdx
	mov	rcx, r8
	rep movsq

; 64   : #else
; 65   : #error unknown platform
; 66   : #endif
; 67   :     }

	mov	rsi, QWORD PTR [rsp+8]
	mov	rdi, QWORD PTR [rsp+16]
	ret	0
_COPY_MEMORY_UNIT ENDP
_TEXT	ENDS
; Function compile flags: /Ogtpy
; File z:\sources\lunor\repos\rougemeilland\palmtree.math.core.uint\palmtree.math.core.uint\pmc_modpow.c
;	COMDAT PMC_ModPow_X_X_X
_TEXT	SEGMENT
v$ = 48
e$ = 56
m$ = 64
r$ = 72
PMC_ModPow_X_X_X PROC					; COMDAT

; 595  : {

$LN41:
	mov	QWORD PTR [rsp+8], rbx
	mov	QWORD PTR [rsp+16], rbp
	mov	QWORD PTR [rsp+24], rsi
	push	rdi
	sub	rsp, 32					; 00000020H
	mov	rbx, r9
	mov	rsi, r8
	mov	rdi, rdx
	mov	rbp, rcx

; 596  :     if (v == NULL)

	test	rcx, rcx
	je	$LN35@PMC_ModPow

; 597  :         return (PMC_STATUS_ARGUMENT_ERROR);
; 598  :     if (e == NULL)

	test	rdx, rdx
	je	$LN35@PMC_ModPow

; 599  :         return (PMC_STATUS_ARGUMENT_ERROR);
; 600  :     if (m == NULL)

	test	r8, r8
	je	$LN35@PMC_ModPow

; 601  :         return (PMC_STATUS_ARGUMENT_ERROR);
; 602  :     if (r == NULL)

	test	rbx, rbx
	je	$LN35@PMC_ModPow

; 603  :         return (PMC_STATUS_ARGUMENT_ERROR);
; 604  :     PMC_STATUS_CODE result;
; 605  :     if ((result = CheckNumber((NUMBER_HEADER*)v)) != PMC_STATUS_OK)

	call	CheckNumber
	test	eax, eax
	jne	$LN1@PMC_ModPow

; 606  :         return (result);
; 607  :     if ((result = CheckNumber((NUMBER_HEADER*)e)) != PMC_STATUS_OK)

	mov	rcx, rdi
	call	CheckNumber
	test	eax, eax
	jne	$LN1@PMC_ModPow

; 608  :         return (result);
; 609  :     if ((result = CheckNumber((NUMBER_HEADER*)m)) != PMC_STATUS_OK)

	mov	rcx, rsi
	call	CheckNumber
	test	eax, eax
	jne	SHORT $LN1@PMC_ModPow

; 503  :     if (m->IS_ZERO)

	mov	ecx, DWORD PTR [rsi+40]
	test	cl, 2
	je	SHORT $LN12@PMC_ModPow

; 504  :     {
; 505  :         // m が 0 の場合
; 506  : 
; 507  :         // 0 による除算は許されないのでエラーを通知する
; 508  :         return (PMC_STATUS_DIVISION_BY_ZERO);

	mov	eax, -3
	jmp	SHORT $LN1@PMC_ModPow
$LN12@PMC_ModPow:

; 509  :     }
; 510  :     else if (m->IS_ONE)

	mov	edx, DWORD PTR [rbp+40]
	mov	eax, edx
	and	eax, 2
	test	cl, 4
	je	SHORT $LN14@PMC_ModPow

; 511  :     {
; 512  :         // m が 1 の場合
; 513  :         if (v->IS_ZERO)

	test	eax, eax
	je	SHORT $LN18@PMC_ModPow
$LN39@PMC_ModPow:

; 618  : }

	test	BYTE PTR [rdi+40], 2
	jne	SHORT $LN35@PMC_ModPow
$LN18@PMC_ModPow:

; 613  : #ifdef _DEBUG
; 614  :     if ((result = CheckNumber(*r)) != PMC_STATUS_OK)
; 615  :         return (result);
; 616  : #endif
; 617  :     return (PMC_STATUS_OK);

	lea	rax, OFFSET FLAT:number_zero
	mov	QWORD PTR [rbx], rax
	xor	eax, eax
	jmp	SHORT $LN1@PMC_ModPow
$LN14@PMC_ModPow:

; 542  :         if (v->IS_ZERO)

	test	eax, eax
	jne	SHORT $LN39@PMC_ModPow

; 543  :         {
; 544  :             // v が 0 の場合
; 545  :             if (e->IS_ZERO)
; 546  :             {
; 547  :                 // e が 0 の場合
; 548  : 
; 549  :                 // 0 の 0 乗となるので、エラーを返す
; 550  :                 return (PMC_STATUS_ARGUMENT_ERROR);
; 551  :             }
; 552  :             else
; 553  :             {
; 554  :                 // e が 0 ではない場合
; 555  : 
; 556  :                 *r = &number_zero;
; 557  :             }
; 558  :         }
; 559  :         else if (v->IS_ONE)

	test	dl, 4
	jne	SHORT $LN34@PMC_ModPow

; 560  :         {
; 561  :             // v が 1 の場合
; 562  : 
; 563  :             // 1 を何乗しても 1 であり、1 を 2 以上の数で割ればその剰余は必ず 1 となる
; 564  :             *r = &number_one;
; 565  :         }
; 566  :         else
; 567  :         {
; 568  :             // v が 2 以上の場合
; 569  :             if (e->IS_ZERO)

	mov	eax, DWORD PTR [rdi+40]
	test	al, 2
	jne	SHORT $LN34@PMC_ModPow

; 573  :             }
; 574  :             else if (e->IS_ONE)

	mov	rcx, rbp
	test	al, 4
	je	SHORT $LN28@PMC_ModPow

; 575  :             {
; 576  :                 // e が 1 の場合
; 577  : 
; 578  :                 // v % m を計算して返す
; 579  :                 if ((result = Remainder(v, m, r)) != PMC_STATUS_OK)

	mov	r8, rbx
	mov	rdx, rsi
	call	Remainder

; 580  :                     return (result);

	jmp	SHORT $LN38@PMC_ModPow
$LN28@PMC_ModPow:

; 581  :             }
; 582  :             else
; 583  :             {
; 584  :                 // v、e、m がすべて 2 以上である場合
; 585  :                 // v の e 乗 の m による剰余を計算して返す
; 586  :                 if ((result = ModulePower(v, e, m, r)) != PMC_STATUS_OK)

	mov	r9, rbx
	mov	r8, rsi
	mov	rdx, rdi
	call	ModulePower
$LN38@PMC_ModPow:

; 610  :         return (result);
; 611  :     if ((result = PMC_ModPow_X_X_X_Imp((NUMBER_HEADER*)v, (NUMBER_HEADER*)e, (NUMBER_HEADER*)m, (NUMBER_HEADER**)r)) != PMC_STATUS_OK)
; 612  :         return (result);

	test	eax, eax
	je	SHORT $LN9@PMC_ModPow
	jmp	SHORT $LN1@PMC_ModPow
$LN34@PMC_ModPow:

; 572  :                 *r = &number_one;

	lea	rax, OFFSET FLAT:number_one

; 613  : #ifdef _DEBUG
; 614  :     if ((result = CheckNumber(*r)) != PMC_STATUS_OK)
; 615  :         return (result);
; 616  : #endif
; 617  :     return (PMC_STATUS_OK);

	mov	QWORD PTR [rbx], rax
$LN9@PMC_ModPow:
	xor	eax, eax
	jmp	SHORT $LN1@PMC_ModPow
$LN35@PMC_ModPow:

; 618  : }

	mov	eax, -1
$LN1@PMC_ModPow:
	mov	rbx, QWORD PTR [rsp+48]
	mov	rbp, QWORD PTR [rsp+56]
	mov	rsi, QWORD PTR [rsp+64]
	add	rsp, 32					; 00000020H
	pop	rdi
	ret	0
PMC_ModPow_X_X_X ENDP
_TEXT	ENDS
; Function compile flags: /Ogtpy
; File z:\sources\lunor\repos\rougemeilland\palmtree.math.core.uint\palmtree.math.core.uint\pmc_modpow.c
;	COMDAT Initialize_ModPow
_TEXT	SEGMENT
feature$ = 8
Initialize_ModPow PROC					; COMDAT

; 622  :     return (PMC_STATUS_OK);

	xor	eax, eax

; 623  : }

	ret	0
Initialize_ModPow ENDP
_TEXT	ENDS
END
