; Listing generated by Microsoft (R) Optimizing Compiler Version 19.16.27027.1 

include listing.inc

INCLUDELIB MSVCRT
INCLUDELIB OLDNAMES

PUBLIC	??1exception@std@@UEAA@XZ			; std::exception::~exception
PUBLIC	?what@exception@std@@UEBAPEBDXZ			; std::exception::what
PUBLIC	??_Gexception@std@@UEAAPEAXI@Z			; std::exception::`scalar deleting destructor'
PUBLIC	??0Exception@Internal@Core@Math@Palmtree@@QEAA@AEBV01234@@Z ; Palmtree::Math::Core::Internal::Exception::Exception
PUBLIC	??1Exception@Internal@Core@Math@Palmtree@@UEAA@XZ ; Palmtree::Math::Core::Internal::Exception::~Exception
PUBLIC	??_GException@Internal@Core@Math@Palmtree@@UEAAPEAXI@Z ; Palmtree::Math::Core::Internal::Exception::`scalar deleting destructor'
PUBLIC	??0ArgumentException@Internal@Core@Math@Palmtree@@QEAA@PEB_W@Z ; Palmtree::Math::Core::Internal::ArgumentException::ArgumentException
PUBLIC	??0ArgumentException@Internal@Core@Math@Palmtree@@QEAA@AEBV01234@@Z ; Palmtree::Math::Core::Internal::ArgumentException::ArgumentException
PUBLIC	??1ArgumentException@Internal@Core@Math@Palmtree@@UEAA@XZ ; Palmtree::Math::Core::Internal::ArgumentException::~ArgumentException
PUBLIC	??_GArgumentException@Internal@Core@Math@Palmtree@@UEAAPEAXI@Z ; Palmtree::Math::Core::Internal::ArgumentException::`scalar deleting destructor'
PUBLIC	??0ArgumentNullException@Internal@Core@Math@Palmtree@@QEAA@PEB_W0@Z ; Palmtree::Math::Core::Internal::ArgumentNullException::ArgumentNullException
PUBLIC	??0ArgumentNullException@Internal@Core@Math@Palmtree@@QEAA@AEBV01234@@Z ; Palmtree::Math::Core::Internal::ArgumentNullException::ArgumentNullException
PUBLIC	??1ArgumentNullException@Internal@Core@Math@Palmtree@@UEAA@XZ ; Palmtree::Math::Core::Internal::ArgumentNullException::~ArgumentNullException
PUBLIC	??_GArgumentNullException@Internal@Core@Math@Palmtree@@UEAAPEAXI@Z ; Palmtree::Math::Core::Internal::ArgumentNullException::`scalar deleting destructor'
PUBLIC	??0InsufficientBufferException@Internal@Core@Math@Palmtree@@QEAA@PEB_W@Z ; Palmtree::Math::Core::Internal::InsufficientBufferException::InsufficientBufferException
PUBLIC	??0InsufficientBufferException@Internal@Core@Math@Palmtree@@QEAA@AEBV01234@@Z ; Palmtree::Math::Core::Internal::InsufficientBufferException::InsufficientBufferException
PUBLIC	??1InsufficientBufferException@Internal@Core@Math@Palmtree@@UEAA@XZ ; Palmtree::Math::Core::Internal::InsufficientBufferException::~InsufficientBufferException
PUBLIC	??_GInsufficientBufferException@Internal@Core@Math@Palmtree@@UEAAPEAXI@Z ; Palmtree::Math::Core::Internal::InsufficientBufferException::`scalar deleting destructor'
PUBLIC	??0InternalErrorException@Internal@Core@Math@Palmtree@@QEAA@PEB_W0@Z ; Palmtree::Math::Core::Internal::InternalErrorException::InternalErrorException
PUBLIC	??0InternalErrorException@Internal@Core@Math@Palmtree@@QEAA@AEBV01234@@Z ; Palmtree::Math::Core::Internal::InternalErrorException::InternalErrorException
PUBLIC	??1InternalErrorException@Internal@Core@Math@Palmtree@@UEAA@XZ ; Palmtree::Math::Core::Internal::InternalErrorException::~InternalErrorException
PUBLIC	??_GInternalErrorException@Internal@Core@Math@Palmtree@@UEAAPEAXI@Z ; Palmtree::Math::Core::Internal::InternalErrorException::`scalar deleting destructor'
PUBLIC	?PeekChar@StringReader@Internal@Core@Math@Palmtree@@UEAA_WXZ ; Palmtree::Math::Core::Internal::StringReader::PeekChar
PUBLIC	?Progress@StringReader@Internal@Core@Math@Palmtree@@UEAAXXZ ; Palmtree::Math::Core::Internal::StringReader::Progress
PUBLIC	?StartsWith@StringReader@Internal@Core@Math@Palmtree@@UEAAHPEB_W@Z ; Palmtree::Math::Core::Internal::StringReader::StartsWith
PUBLIC	?SkipString@StringReader@Internal@Core@Math@Palmtree@@UEAAXPEB_W@Z ; Palmtree::Math::Core::Internal::StringReader::SkipString
PUBLIC	?Write@StringWriter@Internal@Core@Math@Palmtree@@UEAAX_W@Z ; Palmtree::Math::Core::Internal::StringWriter::Write
PUBLIC	?Write@StringWriter@Internal@Core@Math@Palmtree@@UEAAXPEB_W@Z ; Palmtree::Math::Core::Internal::StringWriter::Write
PUBLIC	?GetString@StringWriter@Internal@Core@Math@Palmtree@@UEAAPEA_WXZ ; Palmtree::Math::Core::Internal::StringWriter::GetString
PUBLIC	?Initialize_Parse@Internal@Core@Math@Palmtree@@YAHPEAU_tag_PROCESSOR_FEATURES@1234@@Z ; Palmtree::Math::Core::Internal::Initialize_Parse
PUBLIC	?PMC_TryParse@Internal@Core@Math@Palmtree@@YAHPEB_WHPEBU__tag_PMC_NUMBER_FORMAT_INFO@1234@PEAPEAU__tag_PMC_HANDLE_UINT@1234@PEAI@Z ; Palmtree::Math::Core::Internal::PMC_TryParse
PUBLIC	?PMC_TryParseForSINT@Internal@Core@Math@Palmtree@@YAHPEB_WHPEBU__tag_PMC_NUMBER_FORMAT_INFO@1234@PEADPEAPEAU__tag_PMC_HANDLE_UINT@1234@PEAI@Z ; Palmtree::Math::Core::Internal::PMC_TryParseForSINT
PUBLIC	??0ParserState@Internal@Core@Math@Palmtree@@QEAA@PEB_WIPEBU__tag_PMC_NUMBER_FORMAT_INFO@1234@PEADPEA_W_K34@Z ; Palmtree::Math::Core::Internal::ParserState::ParserState
PUBLIC	?ParseAsDecimalNumberString@ParserState@Internal@Core@Math@Palmtree@@QEAAHXZ ; Palmtree::Math::Core::Internal::ParserState::ParseAsDecimalNumberString
PUBLIC	?ParseAsIntegerPartNumberSequence@ParserState@Internal@Core@Math@Palmtree@@AEAAXXZ ; Palmtree::Math::Core::Internal::ParserState::ParseAsIntegerPartNumberSequence
PUBLIC	?ParseAsFractionPartNumberSequence@ParserState@Internal@Core@Math@Palmtree@@AEAAXXZ ; Palmtree::Math::Core::Internal::ParserState::ParseAsFractionPartNumberSequence
PUBLIC	??_7exception@std@@6B@				; std::exception::`vftable'
PUBLIC	??_C@_0BC@EOODALEL@Unknown?5exception@		; `string'
PUBLIC	??_7Exception@Internal@Core@Math@Palmtree@@6B@	; Palmtree::Math::Core::Internal::Exception::`vftable'
PUBLIC	??_7ArgumentException@Internal@Core@Math@Palmtree@@6B@ ; Palmtree::Math::Core::Internal::ArgumentException::`vftable'
PUBLIC	??_7ArgumentNullException@Internal@Core@Math@Palmtree@@6B@ ; Palmtree::Math::Core::Internal::ArgumentNullException::`vftable'
PUBLIC	??_7InsufficientBufferException@Internal@Core@Math@Palmtree@@6B@ ; Palmtree::Math::Core::Internal::InsufficientBufferException::`vftable'
PUBLIC	??_7InternalErrorException@Internal@Core@Math@Palmtree@@6B@ ; Palmtree::Math::Core::Internal::InternalErrorException::`vftable'
PUBLIC	??_7StringReader@Internal@Core@Math@Palmtree@@6B@ ; Palmtree::Math::Core::Internal::StringReader::`vftable'
PUBLIC	_TI2?AVInternalErrorException@Internal@Core@Math@Palmtree@@
PUBLIC	_CTA2?AVInternalErrorException@Internal@Core@Math@Palmtree@@
PUBLIC	??_R0?AVInternalErrorException@Internal@Core@Math@Palmtree@@@8 ; Palmtree::Math::Core::Internal::InternalErrorException `RTTI Type Descriptor'
PUBLIC	_CT??_R0?AVInternalErrorException@Internal@Core@Math@Palmtree@@@8??0InternalErrorException@Internal@Core@Math@Palmtree@@QEAA@AEBV01234@@Z48
PUBLIC	??_R0?AVException@Internal@Core@Math@Palmtree@@@8 ; Palmtree::Math::Core::Internal::Exception `RTTI Type Descriptor'
PUBLIC	_CT??_R0?AVException@Internal@Core@Math@Palmtree@@@8??0Exception@Internal@Core@Math@Palmtree@@QEAA@AEBV01234@@Z48
PUBLIC	??_C@_1FA@CNGEABBJ@?$AAp?$AAm?$AAc?$AA_?$AAs?$AAt?$AAr?$AAi?$AAn?$AAg?$AAi?$AAo?$AA?4?$AAh?$AA?$DL@ ; `string'
PUBLIC	??_C@_1BM@FCPAHMHB@?$PP?$IF?$PP?h?$PP?$KI?$PP?i?$PP?$PM?$AAL?$AAz?$AA?$BP?$AAW?$AA?$HO?$AAW?$AA_?$AA?$AC@ ; `string'
PUBLIC	??_C@_1FE@KONPIGEM@?$AAp?$AAm?$AAc?$AA_?$AAs?$AAt?$AAr?$AAi?$AAn?$AAg?$AAi?$AAo?$AA?4?$AAh?$AA?$DL@ ; `string'
PUBLIC	??_7StringWriter@Internal@Core@Math@Palmtree@@6B@ ; Palmtree::Math::Core::Internal::StringWriter::`vftable'
PUBLIC	_TI2?AVInsufficientBufferException@Internal@Core@Math@Palmtree@@
PUBLIC	_CTA2?AVInsufficientBufferException@Internal@Core@Math@Palmtree@@
PUBLIC	??_R0?AVInsufficientBufferException@Internal@Core@Math@Palmtree@@@8 ; Palmtree::Math::Core::Internal::InsufficientBufferException `RTTI Type Descriptor'
PUBLIC	_CT??_R0?AVInsufficientBufferException@Internal@Core@Math@Palmtree@@@8??0InsufficientBufferException@Internal@Core@Math@Palmtree@@QEAA@AEBV01234@@Z48
PUBLIC	??_C@_1CO@JABAMCFP@?$PP?x?$AAM?$PP?$LM?$AA?$HP?$AAH?$PP?P?$PP?C?$PP?U?$PP?$KB?$AAn?$PP?$LF?$PP?$KE?$PP?$LK?$AAL?$AA?$AN@ ; `string'
PUBLIC	??_C@_1EK@OBHKPMHI@?$AAp?$AAm?$AAc?$AA_?$AAp?$AAa?$AAr?$AAs?$AAe?$AA?$DL?$AAP?$AAa?$AAr?$AAs?$AAe@ ; `string'
PUBLIC	??_C@_1EK@PDMPFDJG@?$AAp?$AAm?$AAc?$AA_?$AAp?$AAa?$AAr?$AAs?$AAe?$AA?$DL?$AAP?$AAa?$AAr?$AAs?$AAe@ ; `string'
PUBLIC	??_C@_1EK@ELHDDEPD@?$AAp?$AAm?$AAc?$AA_?$AAp?$AAa?$AAr?$AAs?$AAe?$AA?$DL?$AAP?$AAa?$AAr?$AAs?$AAe@ ; `string'
PUBLIC	??_C@_1EK@NGKEAMEK@?$AAp?$AAm?$AAc?$AA_?$AAp?$AAa?$AAr?$AAs?$AAe?$AA?$DL?$AAP?$AAa?$AAr?$AAs?$AAe@ ; `string'
PUBLIC	??_C@_1EK@GOBIGLCP@?$AAp?$AAm?$AAc?$AA_?$AAp?$AAa?$AAr?$AAs?$AAe?$AA?$DL?$AAP?$AAa?$AAr?$AAs?$AAe@ ; `string'
PUBLIC	??_C@_1EK@HMKNMEMB@?$AAp?$AAm?$AAc?$AA_?$AAp?$AAa?$AAr?$AAs?$AAe?$AA?$DL?$AAP?$AAa?$AAr?$AAs?$AAe@ ; `string'
PUBLIC	??_C@_1EK@MEBBKDKE@?$AAp?$AAm?$AAc?$AA_?$AAp?$AAa?$AAr?$AAs?$AAe?$AA?$DL?$AAP?$AAa?$AAr?$AAs?$AAe@ ; `string'
PUBLIC	??_C@_13JDNADJOG@?$PP?$KA@			; `string'
PUBLIC	??_C@_13HOIJIPNN@?$AA?5@			; `string'
PUBLIC	??_C@_13LLDNKHDC@?$AA?$CI@			; `string'
PUBLIC	??_C@_13DIBMAFH@?$AA?$CJ@			; `string'
PUBLIC	_TI2?AVArgumentException@Internal@Core@Math@Palmtree@@
PUBLIC	_CTA2?AVArgumentException@Internal@Core@Math@Palmtree@@
PUBLIC	??_R0?AVArgumentException@Internal@Core@Math@Palmtree@@@8 ; Palmtree::Math::Core::Internal::ArgumentException `RTTI Type Descriptor'
PUBLIC	_CT??_R0?AVArgumentException@Internal@Core@Math@Palmtree@@@8??0ArgumentException@Internal@Core@Math@Palmtree@@QEAA@AEBV01234@@Z48
PUBLIC	??_C@_1FG@MPGAEBOC@?$AA?$BF?$AAp?$AAn?$AAu?$AAm?$AAb?$AAe?$AAr?$AA_?$AAs?$AAt?$AAy?$AAl?$AAe?$AAs@ ; `string'
PUBLIC	_TI2?AVArgumentNullException@Internal@Core@Math@Palmtree@@
PUBLIC	_CTA2?AVArgumentNullException@Internal@Core@Math@Palmtree@@
PUBLIC	??_R0?AVArgumentNullException@Internal@Core@Math@Palmtree@@@8 ; Palmtree::Math::Core::Internal::ArgumentNullException `RTTI Type Descriptor'
PUBLIC	_CT??_R0?AVArgumentNullException@Internal@Core@Math@Palmtree@@@8??0ArgumentNullException@Internal@Core@Math@Palmtree@@QEAA@AEBV01234@@Z48
PUBLIC	??_C@_1O@JOABEBCL@?$AAs?$AAo?$AAu?$AAr?$AAc?$AAe@ ; `string'
PUBLIC	??_C@_1CK@ECFIEPAC@?$AA?$BF?$AAp?$AAk?$AAn?$AAu?$AAl?$AAl?$AAp?$AAt?$AAr?$AAL?$AA?$AO?$AAH?$PP?$IJ?$PP?$IM@ ; `string'
PUBLIC	??_C@_13LNPOMHLG@?$AAo@				; `string'
PUBLIC	??_C@_1O@KGDAECED@?$AAo?$AA_?$AAs?$AAi?$AAg?$AAn@ ; `string'
PUBLIC	??_C@_1M@LGAEBGCK@?$AAo?$AA_?$AAa?$AAb?$AAs@	; `string'
PUBLIC	??_R4exception@std@@6B@				; std::exception::`RTTI Complete Object Locator'
PUBLIC	??_R0?AVexception@std@@@8			; std::exception `RTTI Type Descriptor'
PUBLIC	??_R3exception@std@@8				; std::exception::`RTTI Class Hierarchy Descriptor'
PUBLIC	??_R2exception@std@@8				; std::exception::`RTTI Base Class Array'
PUBLIC	??_R1A@?0A@EA@exception@std@@8			; std::exception::`RTTI Base Class Descriptor at (0,-1,0,64)'
PUBLIC	??_R4Exception@Internal@Core@Math@Palmtree@@6B@	; Palmtree::Math::Core::Internal::Exception::`RTTI Complete Object Locator'
PUBLIC	??_R3Exception@Internal@Core@Math@Palmtree@@8	; Palmtree::Math::Core::Internal::Exception::`RTTI Class Hierarchy Descriptor'
PUBLIC	??_R2Exception@Internal@Core@Math@Palmtree@@8	; Palmtree::Math::Core::Internal::Exception::`RTTI Base Class Array'
PUBLIC	??_R1A@?0A@EA@Exception@Internal@Core@Math@Palmtree@@8 ; Palmtree::Math::Core::Internal::Exception::`RTTI Base Class Descriptor at (0,-1,0,64)'
PUBLIC	??_R1A@?0A@EN@exception@std@@8			; std::exception::`RTTI Base Class Descriptor at (0,-1,0,77)'
PUBLIC	??_R4ArgumentException@Internal@Core@Math@Palmtree@@6B@ ; Palmtree::Math::Core::Internal::ArgumentException::`RTTI Complete Object Locator'
PUBLIC	??_R3ArgumentException@Internal@Core@Math@Palmtree@@8 ; Palmtree::Math::Core::Internal::ArgumentException::`RTTI Class Hierarchy Descriptor'
PUBLIC	??_R2ArgumentException@Internal@Core@Math@Palmtree@@8 ; Palmtree::Math::Core::Internal::ArgumentException::`RTTI Base Class Array'
PUBLIC	??_R1A@?0A@EA@ArgumentException@Internal@Core@Math@Palmtree@@8 ; Palmtree::Math::Core::Internal::ArgumentException::`RTTI Base Class Descriptor at (0,-1,0,64)'
PUBLIC	??_R4ArgumentNullException@Internal@Core@Math@Palmtree@@6B@ ; Palmtree::Math::Core::Internal::ArgumentNullException::`RTTI Complete Object Locator'
PUBLIC	??_R3ArgumentNullException@Internal@Core@Math@Palmtree@@8 ; Palmtree::Math::Core::Internal::ArgumentNullException::`RTTI Class Hierarchy Descriptor'
PUBLIC	??_R2ArgumentNullException@Internal@Core@Math@Palmtree@@8 ; Palmtree::Math::Core::Internal::ArgumentNullException::`RTTI Base Class Array'
PUBLIC	??_R1A@?0A@EA@ArgumentNullException@Internal@Core@Math@Palmtree@@8 ; Palmtree::Math::Core::Internal::ArgumentNullException::`RTTI Base Class Descriptor at (0,-1,0,64)'
PUBLIC	??_R4InsufficientBufferException@Internal@Core@Math@Palmtree@@6B@ ; Palmtree::Math::Core::Internal::InsufficientBufferException::`RTTI Complete Object Locator'
PUBLIC	??_R3InsufficientBufferException@Internal@Core@Math@Palmtree@@8 ; Palmtree::Math::Core::Internal::InsufficientBufferException::`RTTI Class Hierarchy Descriptor'
PUBLIC	??_R2InsufficientBufferException@Internal@Core@Math@Palmtree@@8 ; Palmtree::Math::Core::Internal::InsufficientBufferException::`RTTI Base Class Array'
PUBLIC	??_R1A@?0A@EA@InsufficientBufferException@Internal@Core@Math@Palmtree@@8 ; Palmtree::Math::Core::Internal::InsufficientBufferException::`RTTI Base Class Descriptor at (0,-1,0,64)'
PUBLIC	??_R4InternalErrorException@Internal@Core@Math@Palmtree@@6B@ ; Palmtree::Math::Core::Internal::InternalErrorException::`RTTI Complete Object Locator'
PUBLIC	??_R3InternalErrorException@Internal@Core@Math@Palmtree@@8 ; Palmtree::Math::Core::Internal::InternalErrorException::`RTTI Class Hierarchy Descriptor'
PUBLIC	??_R2InternalErrorException@Internal@Core@Math@Palmtree@@8 ; Palmtree::Math::Core::Internal::InternalErrorException::`RTTI Base Class Array'
PUBLIC	??_R1A@?0A@EA@InternalErrorException@Internal@Core@Math@Palmtree@@8 ; Palmtree::Math::Core::Internal::InternalErrorException::`RTTI Base Class Descriptor at (0,-1,0,64)'
PUBLIC	??_R4StringReader@Internal@Core@Math@Palmtree@@6B@ ; Palmtree::Math::Core::Internal::StringReader::`RTTI Complete Object Locator'
PUBLIC	??_R0?AVStringReader@Internal@Core@Math@Palmtree@@@8 ; Palmtree::Math::Core::Internal::StringReader `RTTI Type Descriptor'
PUBLIC	??_R3StringReader@Internal@Core@Math@Palmtree@@8 ; Palmtree::Math::Core::Internal::StringReader::`RTTI Class Hierarchy Descriptor'
PUBLIC	??_R2StringReader@Internal@Core@Math@Palmtree@@8 ; Palmtree::Math::Core::Internal::StringReader::`RTTI Base Class Array'
PUBLIC	??_R1A@?0A@EA@StringReader@Internal@Core@Math@Palmtree@@8 ; Palmtree::Math::Core::Internal::StringReader::`RTTI Base Class Descriptor at (0,-1,0,64)'
PUBLIC	??_R4StringWriter@Internal@Core@Math@Palmtree@@6B@ ; Palmtree::Math::Core::Internal::StringWriter::`RTTI Complete Object Locator'
PUBLIC	??_R0?AVStringWriter@Internal@Core@Math@Palmtree@@@8 ; Palmtree::Math::Core::Internal::StringWriter `RTTI Type Descriptor'
PUBLIC	??_R3StringWriter@Internal@Core@Math@Palmtree@@8 ; Palmtree::Math::Core::Internal::StringWriter::`RTTI Class Hierarchy Descriptor'
PUBLIC	??_R2StringWriter@Internal@Core@Math@Palmtree@@8 ; Palmtree::Math::Core::Internal::StringWriter::`RTTI Base Class Array'
PUBLIC	??_R1A@?0A@EA@StringWriter@Internal@Core@Math@Palmtree@@8 ; Palmtree::Math::Core::Internal::StringWriter::`RTTI Base Class Descriptor at (0,-1,0,64)'
EXTRN	??3@YAXPEAX_K@Z:PROC				; operator delete
EXTRN	__imp_lstrcmpW:PROC
EXTRN	__imp_lstrcpyW:PROC
EXTRN	__imp_lstrlenW:PROC
EXTRN	__std_exception_destroy:PROC
EXTRN	??_Eexception@std@@UEAAPEAXI@Z:PROC		; std::exception::`vector deleting destructor'
EXTRN	??_EException@Internal@Core@Math@Palmtree@@UEAAPEAXI@Z:PROC ; Palmtree::Math::Core::Internal::Exception::`vector deleting destructor'
EXTRN	??_EArgumentException@Internal@Core@Math@Palmtree@@UEAAPEAXI@Z:PROC ; Palmtree::Math::Core::Internal::ArgumentException::`vector deleting destructor'
EXTRN	??_EArgumentNullException@Internal@Core@Math@Palmtree@@UEAAPEAXI@Z:PROC ; Palmtree::Math::Core::Internal::ArgumentNullException::`vector deleting destructor'
EXTRN	??_EInsufficientBufferException@Internal@Core@Math@Palmtree@@UEAAPEAXI@Z:PROC ; Palmtree::Math::Core::Internal::InsufficientBufferException::`vector deleting destructor'
EXTRN	??_EInternalErrorException@Internal@Core@Math@Palmtree@@UEAAPEAXI@Z:PROC ; Palmtree::Math::Core::Internal::InternalErrorException::`vector deleting destructor'
EXTRN	?CommitNumber@Internal@Core@Math@Palmtree@@YAXPEAU__tag_NUMBER_HEADER@1234@@Z:PROC ; Palmtree::Math::Core::Internal::CommitNumber
EXTRN	?InitializeNumberFormatoInfo@Internal@Core@Math@Palmtree@@YAXPEAU__tag_PMC_NUMBER_FORMAT_INFO@1234@@Z:PROC ; Palmtree::Math::Core::Internal::InitializeNumberFormatoInfo
EXTRN	??0ResourceHolderUINT@Internal@Core@Math@Palmtree@@QEAA@XZ:PROC ; Palmtree::Math::Core::Internal::ResourceHolderUINT::ResourceHolderUINT
EXTRN	??1ResourceHolderUINT@Internal@Core@Math@Palmtree@@UEAA@XZ:PROC ; Palmtree::Math::Core::Internal::ResourceHolderUINT::~ResourceHolderUINT
EXTRN	?AllocateBlock@ResourceHolderUINT@Internal@Core@Math@Palmtree@@QEAAPEA_K_K@Z:PROC ; Palmtree::Math::Core::Internal::ResourceHolderUINT::AllocateBlock
EXTRN	?DeallocateBlock@ResourceHolderUINT@Internal@Core@Math@Palmtree@@QEAAXPEA_K@Z:PROC ; Palmtree::Math::Core::Internal::ResourceHolderUINT::DeallocateBlock
EXTRN	?CheckBlock@ResourceHolderUINT@Internal@Core@Math@Palmtree@@QEAAXPEA_K@Z:PROC ; Palmtree::Math::Core::Internal::ResourceHolderUINT::CheckBlock
EXTRN	?AllocateString@ResourceHolderUINT@Internal@Core@Math@Palmtree@@QEAAPEA_W_K@Z:PROC ; Palmtree::Math::Core::Internal::ResourceHolderUINT::AllocateString
EXTRN	?DeallocateString@ResourceHolderUINT@Internal@Core@Math@Palmtree@@QEAAXPEA_W@Z:PROC ; Palmtree::Math::Core::Internal::ResourceHolderUINT::DeallocateString
EXTRN	?CheckString@ResourceHolderUINT@Internal@Core@Math@Palmtree@@QEAAXPEA_W@Z:PROC ; Palmtree::Math::Core::Internal::ResourceHolderUINT::CheckString
EXTRN	?AllocateNumber@ResourceHolderUINT@Internal@Core@Math@Palmtree@@QEAAPEAU__tag_NUMBER_HEADER@2345@_K@Z:PROC ; Palmtree::Math::Core::Internal::ResourceHolderUINT::AllocateNumber
EXTRN	?HookNumber@ResourceHolderUINT@Internal@Core@Math@Palmtree@@QEAAXPEAU__tag_NUMBER_HEADER@2345@@Z:PROC ; Palmtree::Math::Core::Internal::ResourceHolderUINT::HookNumber
EXTRN	?DeallocateNumber@ResourceHolderUINT@Internal@Core@Math@Palmtree@@QEAAXPEAU__tag_NUMBER_HEADER@2345@@Z:PROC ; Palmtree::Math::Core::Internal::ResourceHolderUINT::DeallocateNumber
EXTRN	?CheckNumber@ResourceHolderUINT@Internal@Core@Math@Palmtree@@QEAAXPEAU__tag_NUMBER_HEADER@2345@@Z:PROC ; Palmtree::Math::Core::Internal::ResourceHolderUINT::CheckNumber
EXTRN	?UnlinkNumber@ResourceHolderUINT@Internal@Core@Math@Palmtree@@QEAAXPEAU__tag_NUMBER_HEADER@2345@@Z:PROC ; Palmtree::Math::Core::Internal::ResourceHolderUINT::UnlinkNumber
EXTRN	_CxxThrowException:PROC
EXTRN	__CxxFrameHandler3:PROC
EXTRN	__GSHandlerCheck:PROC
EXTRN	__GSHandlerCheck_EH:PROC
EXTRN	__security_check_cookie:PROC
EXTRN	??_7type_info@@6B@:BYTE				; type_info::`vftable'
EXTRN	?number_zero@Internal@Core@Math@Palmtree@@3U__tag_NUMBER_HEADER@1234@A:BYTE ; Palmtree::Math::Core::Internal::number_zero
EXTRN	?statistics_info@Internal@Core@Math@Palmtree@@3U__tag_PMC_STATISTICS_INFO@1234@A:BYTE ; Palmtree::Math::Core::Internal::statistics_info
EXTRN	__security_cookie:QWORD
_BSS	SEGMENT
?default_number_format_option@Internal@Core@Math@Palmtree@@3U__tag_PMC_NUMBER_FORMAT_INFO@1234@A DB 01e4H DUP (?) ; Palmtree::Math::Core::Internal::default_number_format_option
	ALIGN	8

?fp_MultiplyAndAdd@Internal@Core@Math@Palmtree@@3P6APEA_KPEA_K_K1@ZEA DQ 01H DUP (?) ; Palmtree::Math::Core::Internal::fp_MultiplyAndAdd
_BSS	ENDS
;	COMDAT pdata
pdata	SEGMENT
$pdata$??1exception@std@@UEAA@XZ DD imagerel $LN5
	DD	imagerel $LN5+38
	DD	imagerel $unwind$??1exception@std@@UEAA@XZ
pdata	ENDS
;	COMDAT pdata
pdata	SEGMENT
$pdata$??_Gexception@std@@UEAAPEAXI@Z DD imagerel $LN9
	DD	imagerel $LN9+78
	DD	imagerel $unwind$??_Gexception@std@@UEAAPEAXI@Z
pdata	ENDS
;	COMDAT pdata
pdata	SEGMENT
$pdata$??0Exception@Internal@Core@Math@Palmtree@@IEAA@HPEB_W@Z DD imagerel $LN8
	DD	imagerel $LN8+70
	DD	imagerel $unwind$??0Exception@Internal@Core@Math@Palmtree@@IEAA@HPEB_W@Z
pdata	ENDS
;	COMDAT pdata
pdata	SEGMENT
$pdata$??0Exception@Internal@Core@Math@Palmtree@@IEAA@HPEB_W0@Z DD imagerel $LN8
	DD	imagerel $LN8+66
	DD	imagerel $unwind$??0Exception@Internal@Core@Math@Palmtree@@IEAA@HPEB_W0@Z
pdata	ENDS
;	COMDAT pdata
pdata	SEGMENT
$pdata$??0Exception@Internal@Core@Math@Palmtree@@QEAA@AEBV01234@@Z DD imagerel $LN8
	DD	imagerel $LN8+77
	DD	imagerel $unwind$??0Exception@Internal@Core@Math@Palmtree@@QEAA@AEBV01234@@Z
pdata	ENDS
;	COMDAT pdata
pdata	SEGMENT
$pdata$??1Exception@Internal@Core@Math@Palmtree@@UEAA@XZ DD imagerel $LN8
	DD	imagerel $LN8+53
	DD	imagerel $unwind$??1Exception@Internal@Core@Math@Palmtree@@UEAA@XZ
pdata	ENDS
;	COMDAT pdata
pdata	SEGMENT
$pdata$??_GException@Internal@Core@Math@Palmtree@@UEAAPEAXI@Z DD imagerel $LN12
	DD	imagerel $LN12+92
	DD	imagerel $unwind$??_GException@Internal@Core@Math@Palmtree@@UEAAPEAXI@Z
pdata	ENDS
;	COMDAT pdata
pdata	SEGMENT
$pdata$??0ArgumentException@Internal@Core@Math@Palmtree@@QEAA@PEB_W@Z DD imagerel $LN11
	DD	imagerel $LN11+84
	DD	imagerel $unwind$??0ArgumentException@Internal@Core@Math@Palmtree@@QEAA@PEB_W@Z
pdata	ENDS
;	COMDAT pdata
pdata	SEGMENT
$pdata$??0ArgumentException@Internal@Core@Math@Palmtree@@QEAA@AEBV01234@@Z DD imagerel $LN11
	DD	imagerel $LN11+87
	DD	imagerel $unwind$??0ArgumentException@Internal@Core@Math@Palmtree@@QEAA@AEBV01234@@Z
pdata	ENDS
;	COMDAT pdata
pdata	SEGMENT
$pdata$??1ArgumentException@Internal@Core@Math@Palmtree@@UEAA@XZ DD imagerel $LN11
	DD	imagerel $LN11+63
	DD	imagerel $unwind$??1ArgumentException@Internal@Core@Math@Palmtree@@UEAA@XZ
pdata	ENDS
;	COMDAT pdata
pdata	SEGMENT
$pdata$??_GArgumentException@Internal@Core@Math@Palmtree@@UEAAPEAXI@Z DD imagerel $LN15
	DD	imagerel $LN15+102
	DD	imagerel $unwind$??_GArgumentException@Internal@Core@Math@Palmtree@@UEAAPEAXI@Z
pdata	ENDS
;	COMDAT pdata
pdata	SEGMENT
$pdata$??0ArgumentNullException@Internal@Core@Math@Palmtree@@QEAA@PEB_W0@Z DD imagerel $LN11
	DD	imagerel $LN11+80
	DD	imagerel $unwind$??0ArgumentNullException@Internal@Core@Math@Palmtree@@QEAA@PEB_W0@Z
pdata	ENDS
;	COMDAT pdata
pdata	SEGMENT
$pdata$??0ArgumentNullException@Internal@Core@Math@Palmtree@@QEAA@AEBV01234@@Z DD imagerel $LN11
	DD	imagerel $LN11+87
	DD	imagerel $unwind$??0ArgumentNullException@Internal@Core@Math@Palmtree@@QEAA@AEBV01234@@Z
pdata	ENDS
;	COMDAT pdata
pdata	SEGMENT
$pdata$??1ArgumentNullException@Internal@Core@Math@Palmtree@@UEAA@XZ DD imagerel $LN11
	DD	imagerel $LN11+63
	DD	imagerel $unwind$??1ArgumentNullException@Internal@Core@Math@Palmtree@@UEAA@XZ
pdata	ENDS
;	COMDAT pdata
pdata	SEGMENT
$pdata$??_GArgumentNullException@Internal@Core@Math@Palmtree@@UEAAPEAXI@Z DD imagerel $LN15
	DD	imagerel $LN15+102
	DD	imagerel $unwind$??_GArgumentNullException@Internal@Core@Math@Palmtree@@UEAAPEAXI@Z
pdata	ENDS
;	COMDAT pdata
pdata	SEGMENT
$pdata$??0InsufficientBufferException@Internal@Core@Math@Palmtree@@QEAA@PEB_W@Z DD imagerel $LN11
	DD	imagerel $LN11+84
	DD	imagerel $unwind$??0InsufficientBufferException@Internal@Core@Math@Palmtree@@QEAA@PEB_W@Z
pdata	ENDS
;	COMDAT pdata
pdata	SEGMENT
$pdata$??0InsufficientBufferException@Internal@Core@Math@Palmtree@@QEAA@AEBV01234@@Z DD imagerel $LN11
	DD	imagerel $LN11+87
	DD	imagerel $unwind$??0InsufficientBufferException@Internal@Core@Math@Palmtree@@QEAA@AEBV01234@@Z
pdata	ENDS
;	COMDAT pdata
pdata	SEGMENT
$pdata$??1InsufficientBufferException@Internal@Core@Math@Palmtree@@UEAA@XZ DD imagerel $LN11
	DD	imagerel $LN11+63
	DD	imagerel $unwind$??1InsufficientBufferException@Internal@Core@Math@Palmtree@@UEAA@XZ
pdata	ENDS
;	COMDAT pdata
pdata	SEGMENT
$pdata$??_GInsufficientBufferException@Internal@Core@Math@Palmtree@@UEAAPEAXI@Z DD imagerel $LN15
	DD	imagerel $LN15+102
	DD	imagerel $unwind$??_GInsufficientBufferException@Internal@Core@Math@Palmtree@@UEAAPEAXI@Z
pdata	ENDS
;	COMDAT pdata
pdata	SEGMENT
$pdata$??0InternalErrorException@Internal@Core@Math@Palmtree@@QEAA@PEB_W0@Z DD imagerel $LN11
	DD	imagerel $LN11+80
	DD	imagerel $unwind$??0InternalErrorException@Internal@Core@Math@Palmtree@@QEAA@PEB_W0@Z
pdata	ENDS
;	COMDAT pdata
pdata	SEGMENT
$pdata$??0InternalErrorException@Internal@Core@Math@Palmtree@@QEAA@AEBV01234@@Z DD imagerel $LN11
	DD	imagerel $LN11+87
	DD	imagerel $unwind$??0InternalErrorException@Internal@Core@Math@Palmtree@@QEAA@AEBV01234@@Z
pdata	ENDS
;	COMDAT pdata
pdata	SEGMENT
$pdata$??1InternalErrorException@Internal@Core@Math@Palmtree@@UEAA@XZ DD imagerel $LN11
	DD	imagerel $LN11+63
	DD	imagerel $unwind$??1InternalErrorException@Internal@Core@Math@Palmtree@@UEAA@XZ
pdata	ENDS
;	COMDAT pdata
pdata	SEGMENT
$pdata$??_GInternalErrorException@Internal@Core@Math@Palmtree@@UEAAPEAXI@Z DD imagerel $LN15
	DD	imagerel $LN15+102
	DD	imagerel $unwind$??_GInternalErrorException@Internal@Core@Math@Palmtree@@UEAAPEAXI@Z
pdata	ENDS
;	COMDAT pdata
pdata	SEGMENT
$pdata$?Progress@StringReader@Internal@Core@Math@Palmtree@@UEAAXXZ DD imagerel $LN7
	DD	imagerel $LN7+69
	DD	imagerel $unwind$?Progress@StringReader@Internal@Core@Math@Palmtree@@UEAAXXZ
pdata	ENDS
;	COMDAT pdata
pdata	SEGMENT
$pdata$?SkipSpace@StringReader@Internal@Core@Math@Palmtree@@QEAAXXZ DD imagerel $LN17
	DD	imagerel $LN17+63
	DD	imagerel $unwind$?SkipSpace@StringReader@Internal@Core@Math@Palmtree@@QEAAXXZ
pdata	ENDS
;	COMDAT pdata
pdata	SEGMENT
$pdata$?SkipString@StringReader@Internal@Core@Math@Palmtree@@UEAAXPEB_W@Z DD imagerel $LN17
	DD	imagerel $LN17+121
	DD	imagerel $unwind$?SkipString@StringReader@Internal@Core@Math@Palmtree@@UEAAXPEB_W@Z
pdata	ENDS
;	COMDAT pdata
pdata	SEGMENT
$pdata$?Write@StringWriter@Internal@Core@Math@Palmtree@@UEAAX_W@Z DD imagerel $LN8
	DD	imagerel $LN8+85
	DD	imagerel $unwind$?Write@StringWriter@Internal@Core@Math@Palmtree@@UEAAX_W@Z
pdata	ENDS
;	COMDAT pdata
pdata	SEGMENT
$pdata$?Write@StringWriter@Internal@Core@Math@Palmtree@@UEAAXPEB_W@Z DD imagerel $LN10
	DD	imagerel $LN10+65
	DD	imagerel $unwind$?Write@StringWriter@Internal@Core@Math@Palmtree@@UEAAXPEB_W@Z
pdata	ENDS
;	COMDAT pdata
pdata	SEGMENT
$pdata$?Initialize_Parse@Internal@Core@Math@Palmtree@@YAHPEAU_tag_PROCESSOR_FEATURES@1234@@Z DD imagerel $LN6
	DD	imagerel $LN6+61
	DD	imagerel $unwind$?Initialize_Parse@Internal@Core@Math@Palmtree@@YAHPEAU_tag_PROCESSOR_FEATURES@1234@@Z
pdata	ENDS
;	COMDAT pdata
pdata	SEGMENT
$pdata$?PMC_TryParse@Internal@Core@Math@Palmtree@@YAHPEB_WHPEBU__tag_PMC_NUMBER_FORMAT_INFO@1234@PEAPEAU__tag_PMC_HANDLE_UINT@1234@PEAI@Z DD imagerel $LN15
	DD	imagerel $LN15+349
	DD	imagerel $unwind$?PMC_TryParse@Internal@Core@Math@Palmtree@@YAHPEB_WHPEBU__tag_PMC_NUMBER_FORMAT_INFO@1234@PEAPEAU__tag_PMC_HANDLE_UINT@1234@PEAI@Z
pdata	ENDS
;	COMDAT pdata
pdata	SEGMENT
$pdata$?PMC_TryParseForSINT@Internal@Core@Math@Palmtree@@YAHPEB_WHPEBU__tag_PMC_NUMBER_FORMAT_INFO@1234@PEADPEAPEAU__tag_PMC_HANDLE_UINT@1234@PEAI@Z DD imagerel $LN15
	DD	imagerel $LN15+25
	DD	imagerel $unwind$?PMC_TryParseForSINT@Internal@Core@Math@Palmtree@@YAHPEB_WHPEBU__tag_PMC_NUMBER_FORMAT_INFO@1234@PEADPEAPEAU__tag_PMC_HANDLE_UINT@1234@PEAI@Z
pdata	ENDS
;	COMDAT pdata
pdata	SEGMENT
$pdata$1$?PMC_TryParseForSINT@Internal@Core@Math@Palmtree@@YAHPEB_WHPEBU__tag_PMC_NUMBER_FORMAT_INFO@1234@PEADPEAPEAU__tag_PMC_HANDLE_UINT@1234@PEAI@Z DD imagerel $LN15+25
	DD	imagerel $LN15+119
	DD	imagerel $chain$1$?PMC_TryParseForSINT@Internal@Core@Math@Palmtree@@YAHPEB_WHPEBU__tag_PMC_NUMBER_FORMAT_INFO@1234@PEADPEAPEAU__tag_PMC_HANDLE_UINT@1234@PEAI@Z
pdata	ENDS
;	COMDAT pdata
pdata	SEGMENT
$pdata$3$?PMC_TryParseForSINT@Internal@Core@Math@Palmtree@@YAHPEB_WHPEBU__tag_PMC_NUMBER_FORMAT_INFO@1234@PEADPEAPEAU__tag_PMC_HANDLE_UINT@1234@PEAI@Z DD imagerel $LN15+119
	DD	imagerel $LN15+150
	DD	imagerel $chain$3$?PMC_TryParseForSINT@Internal@Core@Math@Palmtree@@YAHPEB_WHPEBU__tag_PMC_NUMBER_FORMAT_INFO@1234@PEADPEAPEAU__tag_PMC_HANDLE_UINT@1234@PEAI@Z
pdata	ENDS
;	COMDAT pdata
pdata	SEGMENT
$pdata$4$?PMC_TryParseForSINT@Internal@Core@Math@Palmtree@@YAHPEB_WHPEBU__tag_PMC_NUMBER_FORMAT_INFO@1234@PEADPEAPEAU__tag_PMC_HANDLE_UINT@1234@PEAI@Z DD imagerel $LN15+150
	DD	imagerel $LN15+234
	DD	imagerel $chain$4$?PMC_TryParseForSINT@Internal@Core@Math@Palmtree@@YAHPEB_WHPEBU__tag_PMC_NUMBER_FORMAT_INFO@1234@PEADPEAPEAU__tag_PMC_HANDLE_UINT@1234@PEAI@Z
pdata	ENDS
;	COMDAT pdata
pdata	SEGMENT
$pdata$5$?PMC_TryParseForSINT@Internal@Core@Math@Palmtree@@YAHPEB_WHPEBU__tag_PMC_NUMBER_FORMAT_INFO@1234@PEADPEAPEAU__tag_PMC_HANDLE_UINT@1234@PEAI@Z DD imagerel $LN15+234
	DD	imagerel $LN15+276
	DD	imagerel $chain$5$?PMC_TryParseForSINT@Internal@Core@Math@Palmtree@@YAHPEB_WHPEBU__tag_PMC_NUMBER_FORMAT_INFO@1234@PEADPEAPEAU__tag_PMC_HANDLE_UINT@1234@PEAI@Z
pdata	ENDS
;	COMDAT pdata
pdata	SEGMENT
$pdata$_COPY_MEMORY_UNIT DD imagerel _COPY_MEMORY_UNIT
	DD	imagerel _COPY_MEMORY_UNIT+33
	DD	imagerel $unwind$_COPY_MEMORY_UNIT
pdata	ENDS
;	COMDAT pdata
pdata	SEGMENT
$pdata$??0ParserState@Internal@Core@Math@Palmtree@@QEAA@PEB_WIPEBU__tag_PMC_NUMBER_FORMAT_INFO@1234@PEADPEA_W_K34@Z DD imagerel $LN38
	DD	imagerel $LN38+815
	DD	imagerel $unwind$??0ParserState@Internal@Core@Math@Palmtree@@QEAA@PEB_WIPEBU__tag_PMC_NUMBER_FORMAT_INFO@1234@PEADPEA_W_K34@Z
pdata	ENDS
;	COMDAT pdata
pdata	SEGMENT
$pdata$?ParseAsDecimalNumberString@ParserState@Internal@Core@Math@Palmtree@@QEAAHXZ DD imagerel $LN244
	DD	imagerel $LN244+2137
	DD	imagerel $unwind$?ParseAsDecimalNumberString@ParserState@Internal@Core@Math@Palmtree@@QEAAHXZ
pdata	ENDS
;	COMDAT pdata
pdata	SEGMENT
$pdata$?ParseAsHexNumberString@ParserState@Internal@Core@Math@Palmtree@@QEAAHXZ DD imagerel $LN37
	DD	imagerel $LN37+156
	DD	imagerel $unwind$?ParseAsHexNumberString@ParserState@Internal@Core@Math@Palmtree@@QEAAHXZ
pdata	ENDS
;	COMDAT pdata
pdata	SEGMENT
$pdata$?ParseAsIntegerPartNumberSequence@ParserState@Internal@Core@Math@Palmtree@@AEAAXXZ DD imagerel $LN29
	DD	imagerel $LN29+239
	DD	imagerel $unwind$?ParseAsIntegerPartNumberSequence@ParserState@Internal@Core@Math@Palmtree@@AEAAXXZ
pdata	ENDS
;	COMDAT pdata
pdata	SEGMENT
$pdata$?ParseAsFractionPartNumberSequence@ParserState@Internal@Core@Math@Palmtree@@AEAAXXZ DD imagerel $LN23
	DD	imagerel $LN23+136
	DD	imagerel $unwind$?ParseAsFractionPartNumberSequence@ParserState@Internal@Core@Math@Palmtree@@AEAAXXZ
pdata	ENDS
;	COMDAT pdata
pdata	SEGMENT
$pdata$?ParseAsDecimalNumberString@Internal@Core@Math@Palmtree@@YAHPEB_WIPEBU__tag_PMC_NUMBER_FORMAT_INFO@1234@PEADPEA_W_K34@Z DD imagerel ?ParseAsDecimalNumberString@Internal@Core@Math@Palmtree@@YAHPEB_WIPEBU__tag_PMC_NUMBER_FORMAT_INFO@1234@PEADPEA_W_K34@Z
	DD	imagerel ?ParseAsDecimalNumberString@Internal@Core@Math@Palmtree@@YAHPEB_WIPEBU__tag_PMC_NUMBER_FORMAT_INFO@1234@PEADPEA_W_K34@Z+138
	DD	imagerel $unwind$?ParseAsDecimalNumberString@Internal@Core@Math@Palmtree@@YAHPEB_WIPEBU__tag_PMC_NUMBER_FORMAT_INFO@1234@PEADPEA_W_K34@Z
pdata	ENDS
;	COMDAT pdata
pdata	SEGMENT
$pdata$?BuildBinaryFromDecimalString@Internal@Core@Math@Palmtree@@YAXPEA_WPEA_K1@Z DD imagerel ?BuildBinaryFromDecimalString@Internal@Core@Math@Palmtree@@YAXPEA_WPEA_K1@Z
	DD	imagerel ?BuildBinaryFromDecimalString@Internal@Core@Math@Palmtree@@YAXPEA_WPEA_K1@Z+258
	DD	imagerel $unwind$?BuildBinaryFromDecimalString@Internal@Core@Math@Palmtree@@YAXPEA_WPEA_K1@Z
pdata	ENDS
;	COMDAT pdata
pdata	SEGMENT
$pdata$?MultiplyAndAdd_using_ADC_MUL@Internal@Core@Math@Palmtree@@YAPEA_KPEA_K_K1@Z DD imagerel ?MultiplyAndAdd_using_ADC_MUL@Internal@Core@Math@Palmtree@@YAPEA_KPEA_K_K1@Z
	DD	imagerel ?MultiplyAndAdd_using_ADC_MUL@Internal@Core@Math@Palmtree@@YAPEA_KPEA_K_K1@Z+2410
	DD	imagerel $unwind$?MultiplyAndAdd_using_ADC_MUL@Internal@Core@Math@Palmtree@@YAPEA_KPEA_K_K1@Z
pdata	ENDS
;	COMDAT pdata
pdata	SEGMENT
$pdata$?MultiplyAndAdd_using_ADCX_MULX@Internal@Core@Math@Palmtree@@YAPEA_KPEA_K_K1@Z DD imagerel ?MultiplyAndAdd_using_ADCX_MULX@Internal@Core@Math@Palmtree@@YAPEA_KPEA_K_K1@Z
	DD	imagerel ?MultiplyAndAdd_using_ADCX_MULX@Internal@Core@Math@Palmtree@@YAPEA_KPEA_K_K1@Z+2467
	DD	imagerel $unwind$?MultiplyAndAdd_using_ADCX_MULX@Internal@Core@Math@Palmtree@@YAPEA_KPEA_K_K1@Z
pdata	ENDS
;	COMDAT pdata
pdata	SEGMENT
$pdata$?ConvertCardinalNumber@Internal@Core@Math@Palmtree@@YAXPEA_K_K0@Z DD imagerel ?ConvertCardinalNumber@Internal@Core@Math@Palmtree@@YAXPEA_K_K0@Z
	DD	imagerel ?ConvertCardinalNumber@Internal@Core@Math@Palmtree@@YAXPEA_K_K0@Z+194
	DD	imagerel $unwind$?ConvertCardinalNumber@Internal@Core@Math@Palmtree@@YAXPEA_K_K0@Z
pdata	ENDS
;	COMDAT pdata
pdata	SEGMENT
$pdata$?TryParseDN@Internal@Core@Math@Palmtree@@YAHPEB_WIPEBU__tag_PMC_NUMBER_FORMAT_INFO@1234@PEADPEAPEAU__tag_NUMBER_HEADER@1234@PEAI@Z DD imagerel ?TryParseDN@Internal@Core@Math@Palmtree@@YAHPEB_WIPEBU__tag_PMC_NUMBER_FORMAT_INFO@1234@PEADPEAPEAU__tag_NUMBER_HEADER@1234@PEAI@Z
	DD	imagerel ?TryParseDN@Internal@Core@Math@Palmtree@@YAHPEB_WIPEBU__tag_PMC_NUMBER_FORMAT_INFO@1234@PEADPEAPEAU__tag_NUMBER_HEADER@1234@PEAI@Z+1128
	DD	imagerel $unwind$?TryParseDN@Internal@Core@Math@Palmtree@@YAHPEB_WIPEBU__tag_PMC_NUMBER_FORMAT_INFO@1234@PEADPEAPEAU__tag_NUMBER_HEADER@1234@PEAI@Z
pdata	ENDS
;	COMDAT pdata
pdata	SEGMENT
$pdata$?BuildBinaryFromHexString@Internal@Core@Math@Palmtree@@YAXPEA_WPEA_K@Z DD imagerel ?BuildBinaryFromHexString@Internal@Core@Math@Palmtree@@YAXPEA_WPEA_K@Z
	DD	imagerel ?BuildBinaryFromHexString@Internal@Core@Math@Palmtree@@YAXPEA_WPEA_K@Z+57
	DD	imagerel $unwind$?BuildBinaryFromHexString@Internal@Core@Math@Palmtree@@YAXPEA_WPEA_K@Z
pdata	ENDS
;	COMDAT pdata
pdata	SEGMENT
$pdata$0$?BuildBinaryFromHexString@Internal@Core@Math@Palmtree@@YAXPEA_WPEA_K@Z DD imagerel ?BuildBinaryFromHexString@Internal@Core@Math@Palmtree@@YAXPEA_WPEA_K@Z+57
	DD	imagerel ?BuildBinaryFromHexString@Internal@Core@Math@Palmtree@@YAXPEA_WPEA_K@Z+260
	DD	imagerel $chain$0$?BuildBinaryFromHexString@Internal@Core@Math@Palmtree@@YAXPEA_WPEA_K@Z
pdata	ENDS
;	COMDAT pdata
pdata	SEGMENT
$pdata$1$?BuildBinaryFromHexString@Internal@Core@Math@Palmtree@@YAXPEA_WPEA_K@Z DD imagerel ?BuildBinaryFromHexString@Internal@Core@Math@Palmtree@@YAXPEA_WPEA_K@Z+260
	DD	imagerel ?BuildBinaryFromHexString@Internal@Core@Math@Palmtree@@YAXPEA_WPEA_K@Z+311
	DD	imagerel $chain$1$?BuildBinaryFromHexString@Internal@Core@Math@Palmtree@@YAXPEA_WPEA_K@Z
pdata	ENDS
;	COMDAT pdata
pdata	SEGMENT
$pdata$?ParseAsHexNumberString@Internal@Core@Math@Palmtree@@YAHPEB_WIPEBU__tag_PMC_NUMBER_FORMAT_INFO@1234@PEA_W_K@Z DD imagerel ?ParseAsHexNumberString@Internal@Core@Math@Palmtree@@YAHPEB_WIPEBU__tag_PMC_NUMBER_FORMAT_INFO@1234@PEA_W_K@Z
	DD	imagerel ?ParseAsHexNumberString@Internal@Core@Math@Palmtree@@YAHPEB_WIPEBU__tag_PMC_NUMBER_FORMAT_INFO@1234@PEA_W_K@Z+287
	DD	imagerel $unwind$?ParseAsHexNumberString@Internal@Core@Math@Palmtree@@YAHPEB_WIPEBU__tag_PMC_NUMBER_FORMAT_INFO@1234@PEA_W_K@Z
pdata	ENDS
;	COMDAT pdata
pdata	SEGMENT
$pdata$?TryParseX@Internal@Core@Math@Palmtree@@YAHPEB_WIPEBU__tag_PMC_NUMBER_FORMAT_INFO@1234@PEADPEAPEAU__tag_NUMBER_HEADER@1234@PEAI@Z DD imagerel ?TryParseX@Internal@Core@Math@Palmtree@@YAHPEB_WIPEBU__tag_PMC_NUMBER_FORMAT_INFO@1234@PEADPEAPEAU__tag_NUMBER_HEADER@1234@PEAI@Z
	DD	imagerel ?TryParseX@Internal@Core@Math@Palmtree@@YAHPEB_WIPEBU__tag_PMC_NUMBER_FORMAT_INFO@1234@PEADPEAPEAU__tag_NUMBER_HEADER@1234@PEAI@Z+779
	DD	imagerel $unwind$?TryParseX@Internal@Core@Math@Palmtree@@YAHPEB_WIPEBU__tag_PMC_NUMBER_FORMAT_INFO@1234@PEADPEAPEAU__tag_NUMBER_HEADER@1234@PEAI@Z
pdata	ENDS
;	COMDAT pdata
pdata	SEGMENT
$pdata$?PMC_TryParse_Imp@Internal@Core@Math@Palmtree@@YAHPEB_WHPEBU__tag_PMC_NUMBER_FORMAT_INFO@1234@PEADPEAPEAU__tag_NUMBER_HEADER@1234@PEAI@Z DD imagerel ?PMC_TryParse_Imp@Internal@Core@Math@Palmtree@@YAHPEB_WHPEBU__tag_PMC_NUMBER_FORMAT_INFO@1234@PEADPEAPEAU__tag_NUMBER_HEADER@1234@PEAI@Z
	DD	imagerel ?PMC_TryParse_Imp@Internal@Core@Math@Palmtree@@YAHPEB_WHPEBU__tag_PMC_NUMBER_FORMAT_INFO@1234@PEADPEAPEAU__tag_NUMBER_HEADER@1234@PEAI@Z+300
	DD	imagerel $unwind$?PMC_TryParse_Imp@Internal@Core@Math@Palmtree@@YAHPEB_WHPEBU__tag_PMC_NUMBER_FORMAT_INFO@1234@PEADPEAPEAU__tag_NUMBER_HEADER@1234@PEAI@Z
pdata	ENDS
;	COMDAT ??_R1A@?0A@EA@StringWriter@Internal@Core@Math@Palmtree@@8
rdata$r	SEGMENT
??_R1A@?0A@EA@StringWriter@Internal@Core@Math@Palmtree@@8 DD imagerel ??_R0?AVStringWriter@Internal@Core@Math@Palmtree@@@8 ; Palmtree::Math::Core::Internal::StringWriter::`RTTI Base Class Descriptor at (0,-1,0,64)'
	DD	00H
	DD	00H
	DD	0ffffffffH
	DD	00H
	DD	040H
	DD	imagerel ??_R3StringWriter@Internal@Core@Math@Palmtree@@8
rdata$r	ENDS
;	COMDAT ??_R2StringWriter@Internal@Core@Math@Palmtree@@8
rdata$r	SEGMENT
??_R2StringWriter@Internal@Core@Math@Palmtree@@8 DD imagerel ??_R1A@?0A@EA@StringWriter@Internal@Core@Math@Palmtree@@8 ; Palmtree::Math::Core::Internal::StringWriter::`RTTI Base Class Array'
	ORG $+3
rdata$r	ENDS
;	COMDAT ??_R3StringWriter@Internal@Core@Math@Palmtree@@8
rdata$r	SEGMENT
??_R3StringWriter@Internal@Core@Math@Palmtree@@8 DD 00H	; Palmtree::Math::Core::Internal::StringWriter::`RTTI Class Hierarchy Descriptor'
	DD	00H
	DD	01H
	DD	imagerel ??_R2StringWriter@Internal@Core@Math@Palmtree@@8
rdata$r	ENDS
;	COMDAT ??_R0?AVStringWriter@Internal@Core@Math@Palmtree@@@8
data$r	SEGMENT
??_R0?AVStringWriter@Internal@Core@Math@Palmtree@@@8 DQ FLAT:??_7type_info@@6B@ ; Palmtree::Math::Core::Internal::StringWriter `RTTI Type Descriptor'
	DQ	0000000000000000H
	DB	'.?AVStringWriter@Internal@Core@Math@Palmtree@@', 00H
data$r	ENDS
;	COMDAT ??_R4StringWriter@Internal@Core@Math@Palmtree@@6B@
rdata$r	SEGMENT
??_R4StringWriter@Internal@Core@Math@Palmtree@@6B@ DD 01H ; Palmtree::Math::Core::Internal::StringWriter::`RTTI Complete Object Locator'
	DD	00H
	DD	00H
	DD	imagerel ??_R0?AVStringWriter@Internal@Core@Math@Palmtree@@@8
	DD	imagerel ??_R3StringWriter@Internal@Core@Math@Palmtree@@8
	DD	imagerel ??_R4StringWriter@Internal@Core@Math@Palmtree@@6B@
rdata$r	ENDS
;	COMDAT ??_R1A@?0A@EA@StringReader@Internal@Core@Math@Palmtree@@8
rdata$r	SEGMENT
??_R1A@?0A@EA@StringReader@Internal@Core@Math@Palmtree@@8 DD imagerel ??_R0?AVStringReader@Internal@Core@Math@Palmtree@@@8 ; Palmtree::Math::Core::Internal::StringReader::`RTTI Base Class Descriptor at (0,-1,0,64)'
	DD	00H
	DD	00H
	DD	0ffffffffH
	DD	00H
	DD	040H
	DD	imagerel ??_R3StringReader@Internal@Core@Math@Palmtree@@8
rdata$r	ENDS
;	COMDAT ??_R2StringReader@Internal@Core@Math@Palmtree@@8
rdata$r	SEGMENT
??_R2StringReader@Internal@Core@Math@Palmtree@@8 DD imagerel ??_R1A@?0A@EA@StringReader@Internal@Core@Math@Palmtree@@8 ; Palmtree::Math::Core::Internal::StringReader::`RTTI Base Class Array'
	ORG $+3
rdata$r	ENDS
;	COMDAT ??_R3StringReader@Internal@Core@Math@Palmtree@@8
rdata$r	SEGMENT
??_R3StringReader@Internal@Core@Math@Palmtree@@8 DD 00H	; Palmtree::Math::Core::Internal::StringReader::`RTTI Class Hierarchy Descriptor'
	DD	00H
	DD	01H
	DD	imagerel ??_R2StringReader@Internal@Core@Math@Palmtree@@8
rdata$r	ENDS
;	COMDAT ??_R0?AVStringReader@Internal@Core@Math@Palmtree@@@8
data$r	SEGMENT
??_R0?AVStringReader@Internal@Core@Math@Palmtree@@@8 DQ FLAT:??_7type_info@@6B@ ; Palmtree::Math::Core::Internal::StringReader `RTTI Type Descriptor'
	DQ	0000000000000000H
	DB	'.?AVStringReader@Internal@Core@Math@Palmtree@@', 00H
data$r	ENDS
;	COMDAT ??_R4StringReader@Internal@Core@Math@Palmtree@@6B@
rdata$r	SEGMENT
??_R4StringReader@Internal@Core@Math@Palmtree@@6B@ DD 01H ; Palmtree::Math::Core::Internal::StringReader::`RTTI Complete Object Locator'
	DD	00H
	DD	00H
	DD	imagerel ??_R0?AVStringReader@Internal@Core@Math@Palmtree@@@8
	DD	imagerel ??_R3StringReader@Internal@Core@Math@Palmtree@@8
	DD	imagerel ??_R4StringReader@Internal@Core@Math@Palmtree@@6B@
rdata$r	ENDS
;	COMDAT ??_R1A@?0A@EA@InternalErrorException@Internal@Core@Math@Palmtree@@8
rdata$r	SEGMENT
??_R1A@?0A@EA@InternalErrorException@Internal@Core@Math@Palmtree@@8 DD imagerel ??_R0?AVInternalErrorException@Internal@Core@Math@Palmtree@@@8 ; Palmtree::Math::Core::Internal::InternalErrorException::`RTTI Base Class Descriptor at (0,-1,0,64)'
	DD	02H
	DD	00H
	DD	0ffffffffH
	DD	00H
	DD	040H
	DD	imagerel ??_R3InternalErrorException@Internal@Core@Math@Palmtree@@8
rdata$r	ENDS
;	COMDAT ??_R2InternalErrorException@Internal@Core@Math@Palmtree@@8
rdata$r	SEGMENT
??_R2InternalErrorException@Internal@Core@Math@Palmtree@@8 DD imagerel ??_R1A@?0A@EA@InternalErrorException@Internal@Core@Math@Palmtree@@8 ; Palmtree::Math::Core::Internal::InternalErrorException::`RTTI Base Class Array'
	DD	imagerel ??_R1A@?0A@EA@Exception@Internal@Core@Math@Palmtree@@8
	DD	imagerel ??_R1A@?0A@EN@exception@std@@8
	ORG $+3
rdata$r	ENDS
;	COMDAT ??_R3InternalErrorException@Internal@Core@Math@Palmtree@@8
rdata$r	SEGMENT
??_R3InternalErrorException@Internal@Core@Math@Palmtree@@8 DD 00H ; Palmtree::Math::Core::Internal::InternalErrorException::`RTTI Class Hierarchy Descriptor'
	DD	00H
	DD	03H
	DD	imagerel ??_R2InternalErrorException@Internal@Core@Math@Palmtree@@8
rdata$r	ENDS
;	COMDAT ??_R4InternalErrorException@Internal@Core@Math@Palmtree@@6B@
rdata$r	SEGMENT
??_R4InternalErrorException@Internal@Core@Math@Palmtree@@6B@ DD 01H ; Palmtree::Math::Core::Internal::InternalErrorException::`RTTI Complete Object Locator'
	DD	00H
	DD	00H
	DD	imagerel ??_R0?AVInternalErrorException@Internal@Core@Math@Palmtree@@@8
	DD	imagerel ??_R3InternalErrorException@Internal@Core@Math@Palmtree@@8
	DD	imagerel ??_R4InternalErrorException@Internal@Core@Math@Palmtree@@6B@
rdata$r	ENDS
;	COMDAT ??_R1A@?0A@EA@InsufficientBufferException@Internal@Core@Math@Palmtree@@8
rdata$r	SEGMENT
??_R1A@?0A@EA@InsufficientBufferException@Internal@Core@Math@Palmtree@@8 DD imagerel ??_R0?AVInsufficientBufferException@Internal@Core@Math@Palmtree@@@8 ; Palmtree::Math::Core::Internal::InsufficientBufferException::`RTTI Base Class Descriptor at (0,-1,0,64)'
	DD	02H
	DD	00H
	DD	0ffffffffH
	DD	00H
	DD	040H
	DD	imagerel ??_R3InsufficientBufferException@Internal@Core@Math@Palmtree@@8
rdata$r	ENDS
;	COMDAT ??_R2InsufficientBufferException@Internal@Core@Math@Palmtree@@8
rdata$r	SEGMENT
??_R2InsufficientBufferException@Internal@Core@Math@Palmtree@@8 DD imagerel ??_R1A@?0A@EA@InsufficientBufferException@Internal@Core@Math@Palmtree@@8 ; Palmtree::Math::Core::Internal::InsufficientBufferException::`RTTI Base Class Array'
	DD	imagerel ??_R1A@?0A@EA@Exception@Internal@Core@Math@Palmtree@@8
	DD	imagerel ??_R1A@?0A@EN@exception@std@@8
	ORG $+3
rdata$r	ENDS
;	COMDAT ??_R3InsufficientBufferException@Internal@Core@Math@Palmtree@@8
rdata$r	SEGMENT
??_R3InsufficientBufferException@Internal@Core@Math@Palmtree@@8 DD 00H ; Palmtree::Math::Core::Internal::InsufficientBufferException::`RTTI Class Hierarchy Descriptor'
	DD	00H
	DD	03H
	DD	imagerel ??_R2InsufficientBufferException@Internal@Core@Math@Palmtree@@8
rdata$r	ENDS
;	COMDAT ??_R4InsufficientBufferException@Internal@Core@Math@Palmtree@@6B@
rdata$r	SEGMENT
??_R4InsufficientBufferException@Internal@Core@Math@Palmtree@@6B@ DD 01H ; Palmtree::Math::Core::Internal::InsufficientBufferException::`RTTI Complete Object Locator'
	DD	00H
	DD	00H
	DD	imagerel ??_R0?AVInsufficientBufferException@Internal@Core@Math@Palmtree@@@8
	DD	imagerel ??_R3InsufficientBufferException@Internal@Core@Math@Palmtree@@8
	DD	imagerel ??_R4InsufficientBufferException@Internal@Core@Math@Palmtree@@6B@
rdata$r	ENDS
;	COMDAT ??_R1A@?0A@EA@ArgumentNullException@Internal@Core@Math@Palmtree@@8
rdata$r	SEGMENT
??_R1A@?0A@EA@ArgumentNullException@Internal@Core@Math@Palmtree@@8 DD imagerel ??_R0?AVArgumentNullException@Internal@Core@Math@Palmtree@@@8 ; Palmtree::Math::Core::Internal::ArgumentNullException::`RTTI Base Class Descriptor at (0,-1,0,64)'
	DD	02H
	DD	00H
	DD	0ffffffffH
	DD	00H
	DD	040H
	DD	imagerel ??_R3ArgumentNullException@Internal@Core@Math@Palmtree@@8
rdata$r	ENDS
;	COMDAT ??_R2ArgumentNullException@Internal@Core@Math@Palmtree@@8
rdata$r	SEGMENT
??_R2ArgumentNullException@Internal@Core@Math@Palmtree@@8 DD imagerel ??_R1A@?0A@EA@ArgumentNullException@Internal@Core@Math@Palmtree@@8 ; Palmtree::Math::Core::Internal::ArgumentNullException::`RTTI Base Class Array'
	DD	imagerel ??_R1A@?0A@EA@Exception@Internal@Core@Math@Palmtree@@8
	DD	imagerel ??_R1A@?0A@EN@exception@std@@8
	ORG $+3
rdata$r	ENDS
;	COMDAT ??_R3ArgumentNullException@Internal@Core@Math@Palmtree@@8
rdata$r	SEGMENT
??_R3ArgumentNullException@Internal@Core@Math@Palmtree@@8 DD 00H ; Palmtree::Math::Core::Internal::ArgumentNullException::`RTTI Class Hierarchy Descriptor'
	DD	00H
	DD	03H
	DD	imagerel ??_R2ArgumentNullException@Internal@Core@Math@Palmtree@@8
rdata$r	ENDS
;	COMDAT ??_R4ArgumentNullException@Internal@Core@Math@Palmtree@@6B@
rdata$r	SEGMENT
??_R4ArgumentNullException@Internal@Core@Math@Palmtree@@6B@ DD 01H ; Palmtree::Math::Core::Internal::ArgumentNullException::`RTTI Complete Object Locator'
	DD	00H
	DD	00H
	DD	imagerel ??_R0?AVArgumentNullException@Internal@Core@Math@Palmtree@@@8
	DD	imagerel ??_R3ArgumentNullException@Internal@Core@Math@Palmtree@@8
	DD	imagerel ??_R4ArgumentNullException@Internal@Core@Math@Palmtree@@6B@
rdata$r	ENDS
;	COMDAT ??_R1A@?0A@EA@ArgumentException@Internal@Core@Math@Palmtree@@8
rdata$r	SEGMENT
??_R1A@?0A@EA@ArgumentException@Internal@Core@Math@Palmtree@@8 DD imagerel ??_R0?AVArgumentException@Internal@Core@Math@Palmtree@@@8 ; Palmtree::Math::Core::Internal::ArgumentException::`RTTI Base Class Descriptor at (0,-1,0,64)'
	DD	02H
	DD	00H
	DD	0ffffffffH
	DD	00H
	DD	040H
	DD	imagerel ??_R3ArgumentException@Internal@Core@Math@Palmtree@@8
rdata$r	ENDS
;	COMDAT ??_R2ArgumentException@Internal@Core@Math@Palmtree@@8
rdata$r	SEGMENT
??_R2ArgumentException@Internal@Core@Math@Palmtree@@8 DD imagerel ??_R1A@?0A@EA@ArgumentException@Internal@Core@Math@Palmtree@@8 ; Palmtree::Math::Core::Internal::ArgumentException::`RTTI Base Class Array'
	DD	imagerel ??_R1A@?0A@EA@Exception@Internal@Core@Math@Palmtree@@8
	DD	imagerel ??_R1A@?0A@EN@exception@std@@8
	ORG $+3
rdata$r	ENDS
;	COMDAT ??_R3ArgumentException@Internal@Core@Math@Palmtree@@8
rdata$r	SEGMENT
??_R3ArgumentException@Internal@Core@Math@Palmtree@@8 DD 00H ; Palmtree::Math::Core::Internal::ArgumentException::`RTTI Class Hierarchy Descriptor'
	DD	00H
	DD	03H
	DD	imagerel ??_R2ArgumentException@Internal@Core@Math@Palmtree@@8
rdata$r	ENDS
;	COMDAT ??_R4ArgumentException@Internal@Core@Math@Palmtree@@6B@
rdata$r	SEGMENT
??_R4ArgumentException@Internal@Core@Math@Palmtree@@6B@ DD 01H ; Palmtree::Math::Core::Internal::ArgumentException::`RTTI Complete Object Locator'
	DD	00H
	DD	00H
	DD	imagerel ??_R0?AVArgumentException@Internal@Core@Math@Palmtree@@@8
	DD	imagerel ??_R3ArgumentException@Internal@Core@Math@Palmtree@@8
	DD	imagerel ??_R4ArgumentException@Internal@Core@Math@Palmtree@@6B@
rdata$r	ENDS
;	COMDAT ??_R1A@?0A@EN@exception@std@@8
rdata$r	SEGMENT
??_R1A@?0A@EN@exception@std@@8 DD imagerel ??_R0?AVexception@std@@@8 ; std::exception::`RTTI Base Class Descriptor at (0,-1,0,77)'
	DD	00H
	DD	00H
	DD	0ffffffffH
	DD	00H
	DD	04dH
	DD	imagerel ??_R3exception@std@@8
rdata$r	ENDS
;	COMDAT ??_R1A@?0A@EA@Exception@Internal@Core@Math@Palmtree@@8
rdata$r	SEGMENT
??_R1A@?0A@EA@Exception@Internal@Core@Math@Palmtree@@8 DD imagerel ??_R0?AVException@Internal@Core@Math@Palmtree@@@8 ; Palmtree::Math::Core::Internal::Exception::`RTTI Base Class Descriptor at (0,-1,0,64)'
	DD	01H
	DD	00H
	DD	0ffffffffH
	DD	00H
	DD	040H
	DD	imagerel ??_R3Exception@Internal@Core@Math@Palmtree@@8
rdata$r	ENDS
;	COMDAT ??_R2Exception@Internal@Core@Math@Palmtree@@8
rdata$r	SEGMENT
??_R2Exception@Internal@Core@Math@Palmtree@@8 DD imagerel ??_R1A@?0A@EA@Exception@Internal@Core@Math@Palmtree@@8 ; Palmtree::Math::Core::Internal::Exception::`RTTI Base Class Array'
	DD	imagerel ??_R1A@?0A@EN@exception@std@@8
	ORG $+3
rdata$r	ENDS
;	COMDAT ??_R3Exception@Internal@Core@Math@Palmtree@@8
rdata$r	SEGMENT
??_R3Exception@Internal@Core@Math@Palmtree@@8 DD 00H	; Palmtree::Math::Core::Internal::Exception::`RTTI Class Hierarchy Descriptor'
	DD	00H
	DD	02H
	DD	imagerel ??_R2Exception@Internal@Core@Math@Palmtree@@8
rdata$r	ENDS
;	COMDAT ??_R4Exception@Internal@Core@Math@Palmtree@@6B@
rdata$r	SEGMENT
??_R4Exception@Internal@Core@Math@Palmtree@@6B@ DD 01H	; Palmtree::Math::Core::Internal::Exception::`RTTI Complete Object Locator'
	DD	00H
	DD	00H
	DD	imagerel ??_R0?AVException@Internal@Core@Math@Palmtree@@@8
	DD	imagerel ??_R3Exception@Internal@Core@Math@Palmtree@@8
	DD	imagerel ??_R4Exception@Internal@Core@Math@Palmtree@@6B@
rdata$r	ENDS
;	COMDAT ??_R1A@?0A@EA@exception@std@@8
rdata$r	SEGMENT
??_R1A@?0A@EA@exception@std@@8 DD imagerel ??_R0?AVexception@std@@@8 ; std::exception::`RTTI Base Class Descriptor at (0,-1,0,64)'
	DD	00H
	DD	00H
	DD	0ffffffffH
	DD	00H
	DD	040H
	DD	imagerel ??_R3exception@std@@8
rdata$r	ENDS
;	COMDAT ??_R2exception@std@@8
rdata$r	SEGMENT
??_R2exception@std@@8 DD imagerel ??_R1A@?0A@EA@exception@std@@8 ; std::exception::`RTTI Base Class Array'
	ORG $+3
rdata$r	ENDS
;	COMDAT ??_R3exception@std@@8
rdata$r	SEGMENT
??_R3exception@std@@8 DD 00H				; std::exception::`RTTI Class Hierarchy Descriptor'
	DD	00H
	DD	01H
	DD	imagerel ??_R2exception@std@@8
rdata$r	ENDS
;	COMDAT ??_R0?AVexception@std@@@8
data$r	SEGMENT
??_R0?AVexception@std@@@8 DQ FLAT:??_7type_info@@6B@	; std::exception `RTTI Type Descriptor'
	DQ	0000000000000000H
	DB	'.?AVexception@std@@', 00H
data$r	ENDS
;	COMDAT ??_R4exception@std@@6B@
rdata$r	SEGMENT
??_R4exception@std@@6B@ DD 01H				; std::exception::`RTTI Complete Object Locator'
	DD	00H
	DD	00H
	DD	imagerel ??_R0?AVexception@std@@@8
	DD	imagerel ??_R3exception@std@@8
	DD	imagerel ??_R4exception@std@@6B@
rdata$r	ENDS
;	COMDAT ??_C@_1M@LGAEBGCK@?$AAo?$AA_?$AAa?$AAb?$AAs@
CONST	SEGMENT
??_C@_1M@LGAEBGCK@?$AAo?$AA_?$AAa?$AAb?$AAs@ DB 'o', 00H, '_', 00H, 'a', 00H
	DB	'b', 00H, 's', 00H, 00H, 00H			; `string'
CONST	ENDS
;	COMDAT ??_C@_1O@KGDAECED@?$AAo?$AA_?$AAs?$AAi?$AAg?$AAn@
CONST	SEGMENT
??_C@_1O@KGDAECED@?$AAo?$AA_?$AAs?$AAi?$AAg?$AAn@ DB 'o', 00H, '_', 00H, 's'
	DB	00H, 'i', 00H, 'g', 00H, 'n', 00H, 00H, 00H	; `string'
CONST	ENDS
;	COMDAT ??_C@_13LNPOMHLG@?$AAo@
CONST	SEGMENT
??_C@_13LNPOMHLG@?$AAo@ DB 'o', 00H, 00H, 00H		; `string'
CONST	ENDS
;	COMDAT ??_C@_1CK@ECFIEPAC@?$AA?$BF?$AAp?$AAk?$AAn?$AAu?$AAl?$AAl?$AAp?$AAt?$AAr?$AAL?$AA?$AO?$AAH?$PP?$IJ?$PP?$IM@
CONST	SEGMENT
??_C@_1CK@ECFIEPAC@?$AA?$BF?$AAp?$AAk?$AAn?$AAu?$AAl?$AAl?$AAp?$AAt?$AAr?$AAL?$AA?$AO?$AAH?$PP?$IJ?$PP?$IM@ DB 015H
	DB	'_pek0n', 00H, 'u', 00H, 'l', 00H, 'l', 00H, 'p', 00H, 't', 00H
	DB	'r', 00H, 'L0', 0eH, 'NH0', 089H, '0', 08cH, '0f0D0~0Y0', 02H, '0'
	DB	00H, 00H					; `string'
CONST	ENDS
;	COMDAT ??_C@_1O@JOABEBCL@?$AAs?$AAo?$AAu?$AAr?$AAc?$AAe@
CONST	SEGMENT
??_C@_1O@JOABEBCL@?$AAs?$AAo?$AAu?$AAr?$AAc?$AAe@ DB 's', 00H, 'o', 00H, 'u'
	DB	00H, 'r', 00H, 'c', 00H, 'e', 00H, 00H, 00H	; `string'
CONST	ENDS
;	COMDAT _CT??_R0?AVArgumentNullException@Internal@Core@Math@Palmtree@@@8??0ArgumentNullException@Internal@Core@Math@Palmtree@@QEAA@AEBV01234@@Z48
xdata$x	SEGMENT
_CT??_R0?AVArgumentNullException@Internal@Core@Math@Palmtree@@@8??0ArgumentNullException@Internal@Core@Math@Palmtree@@QEAA@AEBV01234@@Z48 DD 00H
	DD	imagerel ??_R0?AVArgumentNullException@Internal@Core@Math@Palmtree@@@8
	DD	00H
	DD	0ffffffffH
	ORG $+4
	DD	030H
	DD	imagerel ??0ArgumentNullException@Internal@Core@Math@Palmtree@@QEAA@AEBV01234@@Z
xdata$x	ENDS
;	COMDAT ??_R0?AVArgumentNullException@Internal@Core@Math@Palmtree@@@8
data$r	SEGMENT
??_R0?AVArgumentNullException@Internal@Core@Math@Palmtree@@@8 DQ FLAT:??_7type_info@@6B@ ; Palmtree::Math::Core::Internal::ArgumentNullException `RTTI Type Descriptor'
	DQ	0000000000000000H
	DB	'.?AVArgumentNullException@Internal@Core@Math@Palmtree@@', 00H
data$r	ENDS
;	COMDAT _CTA2?AVArgumentNullException@Internal@Core@Math@Palmtree@@
xdata$x	SEGMENT
_CTA2?AVArgumentNullException@Internal@Core@Math@Palmtree@@ DD 02H
	DD	imagerel _CT??_R0?AVArgumentNullException@Internal@Core@Math@Palmtree@@@8??0ArgumentNullException@Internal@Core@Math@Palmtree@@QEAA@AEBV01234@@Z48
	DD	imagerel _CT??_R0?AVException@Internal@Core@Math@Palmtree@@@8??0Exception@Internal@Core@Math@Palmtree@@QEAA@AEBV01234@@Z48
xdata$x	ENDS
;	COMDAT _TI2?AVArgumentNullException@Internal@Core@Math@Palmtree@@
xdata$x	SEGMENT
_TI2?AVArgumentNullException@Internal@Core@Math@Palmtree@@ DD 00H
	DD	imagerel ??1ArgumentNullException@Internal@Core@Math@Palmtree@@UEAA@XZ
	DD	00H
	DD	imagerel _CTA2?AVArgumentNullException@Internal@Core@Math@Palmtree@@
xdata$x	ENDS
;	COMDAT ??_C@_1FG@MPGAEBOC@?$AA?$BF?$AAp?$AAn?$AAu?$AAm?$AAb?$AAe?$AAr?$AA_?$AAs?$AAt?$AAy?$AAl?$AAe?$AAs@
CONST	SEGMENT
??_C@_1FG@MPGAEBOC@?$AA?$BF?$AAp?$AAn?$AAu?$AAm?$AAb?$AAe?$AAr?$AA_?$AAs?$AAt?$AAy?$AAl?$AAe?$AAs@ DB 015H
	DB	'_pen', 00H, 'u', 00H, 'm', 00H, 'b', 00H, 'e', 00H, 'r', 00H, '_'
	DB	00H, 's', 00H, 't', 00H, 'y', 00H, 'l', 00H, 'e', 00H, 's', 00H
	DB	'k01', 08aH, 0efH, 'SU0', 08cH, '0f0D0j0D0D}', 07fH, '0', 08H, 'T'
	DB	08fH, '0[0n0', 0d5H, '0', 0e9H, '0', 0b0H, '0L0', 07H, 'c', 09aH
	DB	'[U0', 08cH, '0~0W0_0', 02H, '0', 00H, 00H	; `string'
CONST	ENDS
;	COMDAT _CT??_R0?AVArgumentException@Internal@Core@Math@Palmtree@@@8??0ArgumentException@Internal@Core@Math@Palmtree@@QEAA@AEBV01234@@Z48
xdata$x	SEGMENT
_CT??_R0?AVArgumentException@Internal@Core@Math@Palmtree@@@8??0ArgumentException@Internal@Core@Math@Palmtree@@QEAA@AEBV01234@@Z48 DD 00H
	DD	imagerel ??_R0?AVArgumentException@Internal@Core@Math@Palmtree@@@8
	DD	00H
	DD	0ffffffffH
	ORG $+4
	DD	030H
	DD	imagerel ??0ArgumentException@Internal@Core@Math@Palmtree@@QEAA@AEBV01234@@Z
xdata$x	ENDS
;	COMDAT ??_R0?AVArgumentException@Internal@Core@Math@Palmtree@@@8
data$r	SEGMENT
??_R0?AVArgumentException@Internal@Core@Math@Palmtree@@@8 DQ FLAT:??_7type_info@@6B@ ; Palmtree::Math::Core::Internal::ArgumentException `RTTI Type Descriptor'
	DQ	0000000000000000H
	DB	'.?AVArgumentException@Internal@Core@Math@Palmtree@@', 00H
data$r	ENDS
;	COMDAT _CTA2?AVArgumentException@Internal@Core@Math@Palmtree@@
xdata$x	SEGMENT
_CTA2?AVArgumentException@Internal@Core@Math@Palmtree@@ DD 02H
	DD	imagerel _CT??_R0?AVArgumentException@Internal@Core@Math@Palmtree@@@8??0ArgumentException@Internal@Core@Math@Palmtree@@QEAA@AEBV01234@@Z48
	DD	imagerel _CT??_R0?AVException@Internal@Core@Math@Palmtree@@@8??0Exception@Internal@Core@Math@Palmtree@@QEAA@AEBV01234@@Z48
xdata$x	ENDS
;	COMDAT _TI2?AVArgumentException@Internal@Core@Math@Palmtree@@
xdata$x	SEGMENT
_TI2?AVArgumentException@Internal@Core@Math@Palmtree@@ DD 00H
	DD	imagerel ??1ArgumentException@Internal@Core@Math@Palmtree@@UEAA@XZ
	DD	00H
	DD	imagerel _CTA2?AVArgumentException@Internal@Core@Math@Palmtree@@
xdata$x	ENDS
;	COMDAT ??_C@_13DIBMAFH@?$AA?$CJ@
CONST	SEGMENT
??_C@_13DIBMAFH@?$AA?$CJ@ DB ')', 00H, 00H, 00H		; `string'
CONST	ENDS
;	COMDAT ??_C@_13LLDNKHDC@?$AA?$CI@
CONST	SEGMENT
??_C@_13LLDNKHDC@?$AA?$CI@ DB '(', 00H, 00H, 00H	; `string'
CONST	ENDS
;	COMDAT ??_C@_13HOIJIPNN@?$AA?5@
CONST	SEGMENT
??_C@_13HOIJIPNN@?$AA?5@ DB ' ', 00H, 00H, 00H		; `string'
CONST	ENDS
;	COMDAT ??_C@_13JDNADJOG@?$PP?$KA@
CONST	SEGMENT
??_C@_13JDNADJOG@?$PP?$KA@ DB 0a0H, 00H, 00H, 00H	; `string'
CONST	ENDS
;	COMDAT ??_C@_1EK@MEBBKDKE@?$AAp?$AAm?$AAc?$AA_?$AAp?$AAa?$AAr?$AAs?$AAe?$AA?$DL?$AAP?$AAa?$AAr?$AAs?$AAe@
CONST	SEGMENT
??_C@_1EK@MEBBKDKE@?$AAp?$AAm?$AAc?$AA_?$AAp?$AAa?$AAr?$AAs?$AAe?$AA?$DL?$AAP?$AAa?$AAr?$AAs?$AAe@ DB 'p'
	DB	00H, 'm', 00H, 'c', 00H, '_', 00H, 'p', 00H, 'a', 00H, 'r', 00H
	DB	's', 00H, 'e', 00H, ';', 00H, 'P', 00H, 'a', 00H, 'r', 00H, 's'
	DB	00H, 'e', 00H, 'r', 00H, 'S', 00H, 't', 00H, 'a', 00H, 't', 00H
	DB	'e', 00H, ':', 00H, ':', 00H, 'P', 00H, 'a', 00H, 'r', 00H, 's'
	DB	00H, 'e', 00H, 'r', 00H, 'S', 00H, 't', 00H, 'a', 00H, 't', 00H
	DB	'e', 00H, ';', 00H, '7', 00H, 00H, 00H	; `string'
CONST	ENDS
;	COMDAT ??_C@_1EK@HMKNMEMB@?$AAp?$AAm?$AAc?$AA_?$AAp?$AAa?$AAr?$AAs?$AAe?$AA?$DL?$AAP?$AAa?$AAr?$AAs?$AAe@
CONST	SEGMENT
??_C@_1EK@HMKNMEMB@?$AAp?$AAm?$AAc?$AA_?$AAp?$AAa?$AAr?$AAs?$AAe?$AA?$DL?$AAP?$AAa?$AAr?$AAs?$AAe@ DB 'p'
	DB	00H, 'm', 00H, 'c', 00H, '_', 00H, 'p', 00H, 'a', 00H, 'r', 00H
	DB	's', 00H, 'e', 00H, ';', 00H, 'P', 00H, 'a', 00H, 'r', 00H, 's'
	DB	00H, 'e', 00H, 'r', 00H, 'S', 00H, 't', 00H, 'a', 00H, 't', 00H
	DB	'e', 00H, ':', 00H, ':', 00H, 'P', 00H, 'a', 00H, 'r', 00H, 's'
	DB	00H, 'e', 00H, 'r', 00H, 'S', 00H, 't', 00H, 'a', 00H, 't', 00H
	DB	'e', 00H, ';', 00H, '6', 00H, 00H, 00H	; `string'
CONST	ENDS
;	COMDAT ??_C@_1EK@GOBIGLCP@?$AAp?$AAm?$AAc?$AA_?$AAp?$AAa?$AAr?$AAs?$AAe?$AA?$DL?$AAP?$AAa?$AAr?$AAs?$AAe@
CONST	SEGMENT
??_C@_1EK@GOBIGLCP@?$AAp?$AAm?$AAc?$AA_?$AAp?$AAa?$AAr?$AAs?$AAe?$AA?$DL?$AAP?$AAa?$AAr?$AAs?$AAe@ DB 'p'
	DB	00H, 'm', 00H, 'c', 00H, '_', 00H, 'p', 00H, 'a', 00H, 'r', 00H
	DB	's', 00H, 'e', 00H, ';', 00H, 'P', 00H, 'a', 00H, 'r', 00H, 's'
	DB	00H, 'e', 00H, 'r', 00H, 'S', 00H, 't', 00H, 'a', 00H, 't', 00H
	DB	'e', 00H, ':', 00H, ':', 00H, 'P', 00H, 'a', 00H, 'r', 00H, 's'
	DB	00H, 'e', 00H, 'r', 00H, 'S', 00H, 't', 00H, 'a', 00H, 't', 00H
	DB	'e', 00H, ';', 00H, '5', 00H, 00H, 00H	; `string'
CONST	ENDS
;	COMDAT ??_C@_1EK@NGKEAMEK@?$AAp?$AAm?$AAc?$AA_?$AAp?$AAa?$AAr?$AAs?$AAe?$AA?$DL?$AAP?$AAa?$AAr?$AAs?$AAe@
CONST	SEGMENT
??_C@_1EK@NGKEAMEK@?$AAp?$AAm?$AAc?$AA_?$AAp?$AAa?$AAr?$AAs?$AAe?$AA?$DL?$AAP?$AAa?$AAr?$AAs?$AAe@ DB 'p'
	DB	00H, 'm', 00H, 'c', 00H, '_', 00H, 'p', 00H, 'a', 00H, 'r', 00H
	DB	's', 00H, 'e', 00H, ';', 00H, 'P', 00H, 'a', 00H, 'r', 00H, 's'
	DB	00H, 'e', 00H, 'r', 00H, 'S', 00H, 't', 00H, 'a', 00H, 't', 00H
	DB	'e', 00H, ':', 00H, ':', 00H, 'P', 00H, 'a', 00H, 'r', 00H, 's'
	DB	00H, 'e', 00H, 'r', 00H, 'S', 00H, 't', 00H, 'a', 00H, 't', 00H
	DB	'e', 00H, ';', 00H, '4', 00H, 00H, 00H	; `string'
CONST	ENDS
;	COMDAT ??_C@_1EK@ELHDDEPD@?$AAp?$AAm?$AAc?$AA_?$AAp?$AAa?$AAr?$AAs?$AAe?$AA?$DL?$AAP?$AAa?$AAr?$AAs?$AAe@
CONST	SEGMENT
??_C@_1EK@ELHDDEPD@?$AAp?$AAm?$AAc?$AA_?$AAp?$AAa?$AAr?$AAs?$AAe?$AA?$DL?$AAP?$AAa?$AAr?$AAs?$AAe@ DB 'p'
	DB	00H, 'm', 00H, 'c', 00H, '_', 00H, 'p', 00H, 'a', 00H, 'r', 00H
	DB	's', 00H, 'e', 00H, ';', 00H, 'P', 00H, 'a', 00H, 'r', 00H, 's'
	DB	00H, 'e', 00H, 'r', 00H, 'S', 00H, 't', 00H, 'a', 00H, 't', 00H
	DB	'e', 00H, ':', 00H, ':', 00H, 'P', 00H, 'a', 00H, 'r', 00H, 's'
	DB	00H, 'e', 00H, 'r', 00H, 'S', 00H, 't', 00H, 'a', 00H, 't', 00H
	DB	'e', 00H, ';', 00H, '3', 00H, 00H, 00H	; `string'
CONST	ENDS
;	COMDAT ??_C@_1EK@PDMPFDJG@?$AAp?$AAm?$AAc?$AA_?$AAp?$AAa?$AAr?$AAs?$AAe?$AA?$DL?$AAP?$AAa?$AAr?$AAs?$AAe@
CONST	SEGMENT
??_C@_1EK@PDMPFDJG@?$AAp?$AAm?$AAc?$AA_?$AAp?$AAa?$AAr?$AAs?$AAe?$AA?$DL?$AAP?$AAa?$AAr?$AAs?$AAe@ DB 'p'
	DB	00H, 'm', 00H, 'c', 00H, '_', 00H, 'p', 00H, 'a', 00H, 'r', 00H
	DB	's', 00H, 'e', 00H, ';', 00H, 'P', 00H, 'a', 00H, 'r', 00H, 's'
	DB	00H, 'e', 00H, 'r', 00H, 'S', 00H, 't', 00H, 'a', 00H, 't', 00H
	DB	'e', 00H, ':', 00H, ':', 00H, 'P', 00H, 'a', 00H, 'r', 00H, 's'
	DB	00H, 'e', 00H, 'r', 00H, 'S', 00H, 't', 00H, 'a', 00H, 't', 00H
	DB	'e', 00H, ';', 00H, '2', 00H, 00H, 00H	; `string'
CONST	ENDS
;	COMDAT ??_C@_1EK@OBHKPMHI@?$AAp?$AAm?$AAc?$AA_?$AAp?$AAa?$AAr?$AAs?$AAe?$AA?$DL?$AAP?$AAa?$AAr?$AAs?$AAe@
CONST	SEGMENT
??_C@_1EK@OBHKPMHI@?$AAp?$AAm?$AAc?$AA_?$AAp?$AAa?$AAr?$AAs?$AAe?$AA?$DL?$AAP?$AAa?$AAr?$AAs?$AAe@ DB 'p'
	DB	00H, 'm', 00H, 'c', 00H, '_', 00H, 'p', 00H, 'a', 00H, 'r', 00H
	DB	's', 00H, 'e', 00H, ';', 00H, 'P', 00H, 'a', 00H, 'r', 00H, 's'
	DB	00H, 'e', 00H, 'r', 00H, 'S', 00H, 't', 00H, 'a', 00H, 't', 00H
	DB	'e', 00H, ':', 00H, ':', 00H, 'P', 00H, 'a', 00H, 'r', 00H, 's'
	DB	00H, 'e', 00H, 'r', 00H, 'S', 00H, 't', 00H, 'a', 00H, 't', 00H
	DB	'e', 00H, ';', 00H, '1', 00H, 00H, 00H	; `string'
CONST	ENDS
;	COMDAT ??_C@_1CO@JABAMCFP@?$PP?x?$AAM?$PP?$LM?$AA?$HP?$AAH?$PP?P?$PP?C?$PP?U?$PP?$KB?$AAn?$PP?$LF?$PP?$KE?$PP?$LK?$AAL?$AA?$AN@
CONST	SEGMENT
??_C@_1CO@JABAMCFP@?$PP?x?$AAM?$PP?$LM?$AA?$HP?$AAH?$PP?P?$PP?C?$PP?U?$PP?$KB?$AAn?$PP?$LF?$PP?$KE?$PP?$LK?$AAL?$AA?$AN@ DB 0f8H
	DB	'fM0', 0bcH, 08fH, 07fH, '0HQ', 0d0H, '0', 0c3H, '0', 0d5H, '0'
	DB	0a1H, '0n0', 0b5H, '0', 0a4H, '0', 0baH, '0L0', 0dH, 'N', 0b3H
	DB	08dH, 'W0f0D0~0Y0', 02H, '0', 00H, 00H	; `string'
CONST	ENDS
;	COMDAT _CT??_R0?AVInsufficientBufferException@Internal@Core@Math@Palmtree@@@8??0InsufficientBufferException@Internal@Core@Math@Palmtree@@QEAA@AEBV01234@@Z48
xdata$x	SEGMENT
_CT??_R0?AVInsufficientBufferException@Internal@Core@Math@Palmtree@@@8??0InsufficientBufferException@Internal@Core@Math@Palmtree@@QEAA@AEBV01234@@Z48 DD 00H
	DD	imagerel ??_R0?AVInsufficientBufferException@Internal@Core@Math@Palmtree@@@8
	DD	00H
	DD	0ffffffffH
	ORG $+4
	DD	030H
	DD	imagerel ??0InsufficientBufferException@Internal@Core@Math@Palmtree@@QEAA@AEBV01234@@Z
xdata$x	ENDS
;	COMDAT ??_R0?AVInsufficientBufferException@Internal@Core@Math@Palmtree@@@8
data$r	SEGMENT
??_R0?AVInsufficientBufferException@Internal@Core@Math@Palmtree@@@8 DQ FLAT:??_7type_info@@6B@ ; Palmtree::Math::Core::Internal::InsufficientBufferException `RTTI Type Descriptor'
	DQ	0000000000000000H
	DB	'.?AVInsufficientBufferException@Internal@Core@Math@Palmt'
	DB	'ree@@', 00H
data$r	ENDS
;	COMDAT _CTA2?AVInsufficientBufferException@Internal@Core@Math@Palmtree@@
xdata$x	SEGMENT
_CTA2?AVInsufficientBufferException@Internal@Core@Math@Palmtree@@ DD 02H
	DD	imagerel _CT??_R0?AVInsufficientBufferException@Internal@Core@Math@Palmtree@@@8??0InsufficientBufferException@Internal@Core@Math@Palmtree@@QEAA@AEBV01234@@Z48
	DD	imagerel _CT??_R0?AVException@Internal@Core@Math@Palmtree@@@8??0Exception@Internal@Core@Math@Palmtree@@QEAA@AEBV01234@@Z48
xdata$x	ENDS
;	COMDAT _TI2?AVInsufficientBufferException@Internal@Core@Math@Palmtree@@
xdata$x	SEGMENT
_TI2?AVInsufficientBufferException@Internal@Core@Math@Palmtree@@ DD 00H
	DD	imagerel ??1InsufficientBufferException@Internal@Core@Math@Palmtree@@UEAA@XZ
	DD	00H
	DD	imagerel _CTA2?AVInsufficientBufferException@Internal@Core@Math@Palmtree@@
xdata$x	ENDS
;	COMDAT ??_7StringWriter@Internal@Core@Math@Palmtree@@6B@
CONST	SEGMENT
??_7StringWriter@Internal@Core@Math@Palmtree@@6B@ DQ FLAT:??_R4StringWriter@Internal@Core@Math@Palmtree@@6B@ ; Palmtree::Math::Core::Internal::StringWriter::`vftable'
	DQ	FLAT:?Write@StringWriter@Internal@Core@Math@Palmtree@@UEAAXPEB_W@Z
	DQ	FLAT:?Write@StringWriter@Internal@Core@Math@Palmtree@@UEAAX_W@Z
	DQ	FLAT:?GetString@StringWriter@Internal@Core@Math@Palmtree@@UEAAPEA_WXZ
CONST	ENDS
;	COMDAT ??_C@_1FE@KONPIGEM@?$AAp?$AAm?$AAc?$AA_?$AAs?$AAt?$AAr?$AAi?$AAn?$AAg?$AAi?$AAo?$AA?4?$AAh?$AA?$DL@
CONST	SEGMENT
??_C@_1FE@KONPIGEM@?$AAp?$AAm?$AAc?$AA_?$AAs?$AAt?$AAr?$AAi?$AAn?$AAg?$AAi?$AAo?$AA?4?$AAh?$AA?$DL@ DB 'p'
	DB	00H, 'm', 00H, 'c', 00H, '_', 00H, 's', 00H, 't', 00H, 'r', 00H
	DB	'i', 00H, 'n', 00H, 'g', 00H, 'i', 00H, 'o', 00H, '.', 00H, 'h'
	DB	00H, ';', 00H, 'S', 00H, 't', 00H, 'r', 00H, 'i', 00H, 'n', 00H
	DB	'g', 00H, 'R', 00H, 'e', 00H, 'a', 00H, 'd', 00H, 'e', 00H, 'r'
	DB	00H, ':', 00H, ':', 00H, 'S', 00H, 'k', 00H, 'i', 00H, 'p', 00H
	DB	'S', 00H, 't', 00H, 'r', 00H, 'i', 00H, 'n', 00H, 'g', 00H, ';'
	DB	00H, '1', 00H, 00H, 00H			; `string'
CONST	ENDS
;	COMDAT ??_C@_1BM@FCPAHMHB@?$PP?$IF?$PP?h?$PP?$KI?$PP?i?$PP?$PM?$AAL?$AAz?$AA?$BP?$AAW?$AA?$HO?$AAW?$AA_?$AA?$AC@
CONST	SEGMENT
??_C@_1BM@FCPAHMHB@?$PP?$IF?$PP?h?$PP?$KI?$PP?i?$PP?$PM?$AAL?$AAz?$AA?$BP?$AAW?$AA?$HO?$AAW?$AA_?$AA?$AC@ DB 085H
	DB	'Q', 0e8H, 090H, 0a8H, '0', 0e9H, '0', 0fcH, '0L0zv', 01fH, 'u'
	DB	'W0~0W0_0', 02H, '0', 00H, 00H		; `string'
CONST	ENDS
;	COMDAT ??_C@_1FA@CNGEABBJ@?$AAp?$AAm?$AAc?$AA_?$AAs?$AAt?$AAr?$AAi?$AAn?$AAg?$AAi?$AAo?$AA?4?$AAh?$AA?$DL@
CONST	SEGMENT
??_C@_1FA@CNGEABBJ@?$AAp?$AAm?$AAc?$AA_?$AAs?$AAt?$AAr?$AAi?$AAn?$AAg?$AAi?$AAo?$AA?4?$AAh?$AA?$DL@ DB 'p'
	DB	00H, 'm', 00H, 'c', 00H, '_', 00H, 's', 00H, 't', 00H, 'r', 00H
	DB	'i', 00H, 'n', 00H, 'g', 00H, 'i', 00H, 'o', 00H, '.', 00H, 'h'
	DB	00H, ';', 00H, 'S', 00H, 't', 00H, 'r', 00H, 'i', 00H, 'n', 00H
	DB	'g', 00H, 'R', 00H, 'e', 00H, 'a', 00H, 'd', 00H, 'e', 00H, 'r'
	DB	00H, ':', 00H, ':', 00H, 'P', 00H, 'r', 00H, 'o', 00H, 'g', 00H
	DB	'r', 00H, 'e', 00H, 's', 00H, 's', 00H, ';', 00H, '1', 00H, 00H
	DB	00H						; `string'
CONST	ENDS
;	COMDAT _CT??_R0?AVException@Internal@Core@Math@Palmtree@@@8??0Exception@Internal@Core@Math@Palmtree@@QEAA@AEBV01234@@Z48
xdata$x	SEGMENT
_CT??_R0?AVException@Internal@Core@Math@Palmtree@@@8??0Exception@Internal@Core@Math@Palmtree@@QEAA@AEBV01234@@Z48 DD 00H
	DD	imagerel ??_R0?AVException@Internal@Core@Math@Palmtree@@@8
	DD	00H
	DD	0ffffffffH
	ORG $+4
	DD	030H
	DD	imagerel ??0Exception@Internal@Core@Math@Palmtree@@QEAA@AEBV01234@@Z
xdata$x	ENDS
;	COMDAT ??_R0?AVException@Internal@Core@Math@Palmtree@@@8
data$r	SEGMENT
??_R0?AVException@Internal@Core@Math@Palmtree@@@8 DQ FLAT:??_7type_info@@6B@ ; Palmtree::Math::Core::Internal::Exception `RTTI Type Descriptor'
	DQ	0000000000000000H
	DB	'.?AVException@Internal@Core@Math@Palmtree@@', 00H
data$r	ENDS
;	COMDAT _CT??_R0?AVInternalErrorException@Internal@Core@Math@Palmtree@@@8??0InternalErrorException@Internal@Core@Math@Palmtree@@QEAA@AEBV01234@@Z48
xdata$x	SEGMENT
_CT??_R0?AVInternalErrorException@Internal@Core@Math@Palmtree@@@8??0InternalErrorException@Internal@Core@Math@Palmtree@@QEAA@AEBV01234@@Z48 DD 00H
	DD	imagerel ??_R0?AVInternalErrorException@Internal@Core@Math@Palmtree@@@8
	DD	00H
	DD	0ffffffffH
	ORG $+4
	DD	030H
	DD	imagerel ??0InternalErrorException@Internal@Core@Math@Palmtree@@QEAA@AEBV01234@@Z
xdata$x	ENDS
;	COMDAT ??_R0?AVInternalErrorException@Internal@Core@Math@Palmtree@@@8
data$r	SEGMENT
??_R0?AVInternalErrorException@Internal@Core@Math@Palmtree@@@8 DQ FLAT:??_7type_info@@6B@ ; Palmtree::Math::Core::Internal::InternalErrorException `RTTI Type Descriptor'
	DQ	0000000000000000H
	DB	'.?AVInternalErrorException@Internal@Core@Math@Palmtree@@'
	DB	00H
data$r	ENDS
;	COMDAT _CTA2?AVInternalErrorException@Internal@Core@Math@Palmtree@@
xdata$x	SEGMENT
_CTA2?AVInternalErrorException@Internal@Core@Math@Palmtree@@ DD 02H
	DD	imagerel _CT??_R0?AVInternalErrorException@Internal@Core@Math@Palmtree@@@8??0InternalErrorException@Internal@Core@Math@Palmtree@@QEAA@AEBV01234@@Z48
	DD	imagerel _CT??_R0?AVException@Internal@Core@Math@Palmtree@@@8??0Exception@Internal@Core@Math@Palmtree@@QEAA@AEBV01234@@Z48
xdata$x	ENDS
;	COMDAT _TI2?AVInternalErrorException@Internal@Core@Math@Palmtree@@
xdata$x	SEGMENT
_TI2?AVInternalErrorException@Internal@Core@Math@Palmtree@@ DD 00H
	DD	imagerel ??1InternalErrorException@Internal@Core@Math@Palmtree@@UEAA@XZ
	DD	00H
	DD	imagerel _CTA2?AVInternalErrorException@Internal@Core@Math@Palmtree@@
xdata$x	ENDS
;	COMDAT ??_7StringReader@Internal@Core@Math@Palmtree@@6B@
CONST	SEGMENT
??_7StringReader@Internal@Core@Math@Palmtree@@6B@ DQ FLAT:??_R4StringReader@Internal@Core@Math@Palmtree@@6B@ ; Palmtree::Math::Core::Internal::StringReader::`vftable'
	DQ	FLAT:?PeekChar@StringReader@Internal@Core@Math@Palmtree@@UEAA_WXZ
	DQ	FLAT:?Progress@StringReader@Internal@Core@Math@Palmtree@@UEAAXXZ
	DQ	FLAT:?StartsWith@StringReader@Internal@Core@Math@Palmtree@@UEAAHPEB_W@Z
	DQ	FLAT:?SkipString@StringReader@Internal@Core@Math@Palmtree@@UEAAXPEB_W@Z
CONST	ENDS
;	COMDAT ??_7InternalErrorException@Internal@Core@Math@Palmtree@@6B@
CONST	SEGMENT
??_7InternalErrorException@Internal@Core@Math@Palmtree@@6B@ DQ FLAT:??_R4InternalErrorException@Internal@Core@Math@Palmtree@@6B@ ; Palmtree::Math::Core::Internal::InternalErrorException::`vftable'
	DQ	FLAT:??_EInternalErrorException@Internal@Core@Math@Palmtree@@UEAAPEAXI@Z
	DQ	FLAT:?what@exception@std@@UEBAPEBDXZ
CONST	ENDS
;	COMDAT ??_7InsufficientBufferException@Internal@Core@Math@Palmtree@@6B@
CONST	SEGMENT
??_7InsufficientBufferException@Internal@Core@Math@Palmtree@@6B@ DQ FLAT:??_R4InsufficientBufferException@Internal@Core@Math@Palmtree@@6B@ ; Palmtree::Math::Core::Internal::InsufficientBufferException::`vftable'
	DQ	FLAT:??_EInsufficientBufferException@Internal@Core@Math@Palmtree@@UEAAPEAXI@Z
	DQ	FLAT:?what@exception@std@@UEBAPEBDXZ
CONST	ENDS
;	COMDAT ??_7ArgumentNullException@Internal@Core@Math@Palmtree@@6B@
CONST	SEGMENT
??_7ArgumentNullException@Internal@Core@Math@Palmtree@@6B@ DQ FLAT:??_R4ArgumentNullException@Internal@Core@Math@Palmtree@@6B@ ; Palmtree::Math::Core::Internal::ArgumentNullException::`vftable'
	DQ	FLAT:??_EArgumentNullException@Internal@Core@Math@Palmtree@@UEAAPEAXI@Z
	DQ	FLAT:?what@exception@std@@UEBAPEBDXZ
CONST	ENDS
;	COMDAT ??_7ArgumentException@Internal@Core@Math@Palmtree@@6B@
CONST	SEGMENT
??_7ArgumentException@Internal@Core@Math@Palmtree@@6B@ DQ FLAT:??_R4ArgumentException@Internal@Core@Math@Palmtree@@6B@ ; Palmtree::Math::Core::Internal::ArgumentException::`vftable'
	DQ	FLAT:??_EArgumentException@Internal@Core@Math@Palmtree@@UEAAPEAXI@Z
	DQ	FLAT:?what@exception@std@@UEBAPEBDXZ
CONST	ENDS
;	COMDAT ??_7Exception@Internal@Core@Math@Palmtree@@6B@
CONST	SEGMENT
??_7Exception@Internal@Core@Math@Palmtree@@6B@ DQ FLAT:??_R4Exception@Internal@Core@Math@Palmtree@@6B@ ; Palmtree::Math::Core::Internal::Exception::`vftable'
	DQ	FLAT:??_EException@Internal@Core@Math@Palmtree@@UEAAPEAXI@Z
	DQ	FLAT:?what@exception@std@@UEBAPEBDXZ
CONST	ENDS
;	COMDAT ??_C@_0BC@EOODALEL@Unknown?5exception@
CONST	SEGMENT
??_C@_0BC@EOODALEL@Unknown?5exception@ DB 'Unknown exception', 00H ; `string'
CONST	ENDS
;	COMDAT ??_7exception@std@@6B@
CONST	SEGMENT
??_7exception@std@@6B@ DQ FLAT:??_R4exception@std@@6B@	; std::exception::`vftable'
	DQ	FLAT:??_Eexception@std@@UEAAPEAXI@Z
	DQ	FLAT:?what@exception@std@@UEBAPEBDXZ
CONST	ENDS
;	COMDAT xdata
xdata	SEGMENT
$ip2state$?PMC_TryParse_Imp@Internal@Core@Math@Palmtree@@YAHPEB_WHPEBU__tag_PMC_NUMBER_FORMAT_INFO@1234@PEADPEAPEAU__tag_NUMBER_HEADER@1234@PEAI@Z DD imagerel ?PMC_TryParse_Imp@Internal@Core@Math@Palmtree@@YAHPEB_WHPEBU__tag_PMC_NUMBER_FORMAT_INFO@1234@PEADPEAPEAU__tag_NUMBER_HEADER@1234@PEAI@Z
	DD	0ffffffffH
	DD	imagerel ?PMC_TryParse_Imp@Internal@Core@Math@Palmtree@@YAHPEB_WHPEBU__tag_PMC_NUMBER_FORMAT_INFO@1234@PEADPEAPEAU__tag_NUMBER_HEADER@1234@PEAI@Z+56
	DD	00H
	DD	imagerel ?PMC_TryParse_Imp@Internal@Core@Math@Palmtree@@YAHPEB_WHPEBU__tag_PMC_NUMBER_FORMAT_INFO@1234@PEADPEAPEAU__tag_NUMBER_HEADER@1234@PEAI@Z+126
	DD	0ffffffffH
	DD	imagerel ?PMC_TryParse_Imp@Internal@Core@Math@Palmtree@@YAHPEB_WHPEBU__tag_PMC_NUMBER_FORMAT_INFO@1234@PEADPEAPEAU__tag_NUMBER_HEADER@1234@PEAI@Z+167
	DD	00H
	DD	imagerel ?PMC_TryParse_Imp@Internal@Core@Math@Palmtree@@YAHPEB_WHPEBU__tag_PMC_NUMBER_FORMAT_INFO@1234@PEADPEAPEAU__tag_NUMBER_HEADER@1234@PEAI@Z+251
	DD	0ffffffffH
	DD	imagerel ?PMC_TryParse_Imp@Internal@Core@Math@Palmtree@@YAHPEB_WHPEBU__tag_PMC_NUMBER_FORMAT_INFO@1234@PEADPEAPEAU__tag_NUMBER_HEADER@1234@PEAI@Z+265
	DD	00H
xdata	ENDS
;	COMDAT xdata
xdata	SEGMENT
$stateUnwindMap$?PMC_TryParse_Imp@Internal@Core@Math@Palmtree@@YAHPEB_WHPEBU__tag_PMC_NUMBER_FORMAT_INFO@1234@PEADPEAPEAU__tag_NUMBER_HEADER@1234@PEAI@Z DD 0ffffffffH
	DD	imagerel ?dtor$0@?0??PMC_TryParse_Imp@Internal@Core@Math@Palmtree@@YAHPEB_WHPEBU__tag_PMC_NUMBER_FORMAT_INFO@1234@PEADPEAPEAU__tag_NUMBER_HEADER@1234@PEAI@Z@4HA
xdata	ENDS
;	COMDAT CONST
CONST	SEGMENT
$cppxdata$?PMC_TryParse_Imp@Internal@Core@Math@Palmtree@@YAHPEB_WHPEBU__tag_PMC_NUMBER_FORMAT_INFO@1234@PEADPEAPEAU__tag_NUMBER_HEADER@1234@PEAI@Z DD 019930522H
	DD	01H
	DD	imagerel $stateUnwindMap$?PMC_TryParse_Imp@Internal@Core@Math@Palmtree@@YAHPEB_WHPEBU__tag_PMC_NUMBER_FORMAT_INFO@1234@PEADPEAPEAU__tag_NUMBER_HEADER@1234@PEAI@Z
	DD	00H
	DD	00H
	DD	06H
	DD	imagerel $ip2state$?PMC_TryParse_Imp@Internal@Core@Math@Palmtree@@YAHPEB_WHPEBU__tag_PMC_NUMBER_FORMAT_INFO@1234@PEADPEAPEAU__tag_NUMBER_HEADER@1234@PEAI@Z
	DD	030H
	DD	00H
	DD	00H
CONST	ENDS
;	COMDAT xdata
xdata	SEGMENT
$unwind$?PMC_TryParse_Imp@Internal@Core@Math@Palmtree@@YAHPEB_WHPEBU__tag_PMC_NUMBER_FORMAT_INFO@1234@PEADPEAPEAU__tag_NUMBER_HEADER@1234@PEAI@Z DD 0b2311H
	DD	0186423H
	DD	017541fH
	DD	016341bH
	DD	012010fH
	DD	0e006f008H
	DD	07004H
	DD	imagerel __CxxFrameHandler3
	DD	imagerel $cppxdata$?PMC_TryParse_Imp@Internal@Core@Math@Palmtree@@YAHPEB_WHPEBU__tag_PMC_NUMBER_FORMAT_INFO@1234@PEADPEAPEAU__tag_NUMBER_HEADER@1234@PEAI@Z
xdata	ENDS
;	COMDAT xdata
xdata	SEGMENT
$ip2state$?TryParseX@Internal@Core@Math@Palmtree@@YAHPEB_WIPEBU__tag_PMC_NUMBER_FORMAT_INFO@1234@PEADPEAPEAU__tag_NUMBER_HEADER@1234@PEAI@Z DD imagerel ?TryParseX@Internal@Core@Math@Palmtree@@YAHPEB_WIPEBU__tag_PMC_NUMBER_FORMAT_INFO@1234@PEADPEAPEAU__tag_NUMBER_HEADER@1234@PEAI@Z
	DD	0ffffffffH
	DD	imagerel ?TryParseX@Internal@Core@Math@Palmtree@@YAHPEB_WIPEBU__tag_PMC_NUMBER_FORMAT_INFO@1234@PEADPEAPEAU__tag_NUMBER_HEADER@1234@PEAI@Z+104
	DD	00H
	DD	imagerel ?TryParseX@Internal@Core@Math@Palmtree@@YAHPEB_WIPEBU__tag_PMC_NUMBER_FORMAT_INFO@1234@PEADPEAPEAU__tag_NUMBER_HEADER@1234@PEAI@Z+724
	DD	0ffffffffH
xdata	ENDS
;	COMDAT xdata
xdata	SEGMENT
$stateUnwindMap$?TryParseX@Internal@Core@Math@Palmtree@@YAHPEB_WIPEBU__tag_PMC_NUMBER_FORMAT_INFO@1234@PEADPEAPEAU__tag_NUMBER_HEADER@1234@PEAI@Z DD 0ffffffffH
	DD	imagerel ?dtor$0@?0??TryParseX@Internal@Core@Math@Palmtree@@YAHPEB_WIPEBU__tag_PMC_NUMBER_FORMAT_INFO@1234@PEADPEAPEAU__tag_NUMBER_HEADER@1234@PEAI@Z@4HA
xdata	ENDS
;	COMDAT CONST
CONST	SEGMENT
$cppxdata$?TryParseX@Internal@Core@Math@Palmtree@@YAHPEB_WIPEBU__tag_PMC_NUMBER_FORMAT_INFO@1234@PEADPEAPEAU__tag_NUMBER_HEADER@1234@PEAI@Z DD 019930522H
	DD	01H
	DD	imagerel $stateUnwindMap$?TryParseX@Internal@Core@Math@Palmtree@@YAHPEB_WIPEBU__tag_PMC_NUMBER_FORMAT_INFO@1234@PEADPEAPEAU__tag_NUMBER_HEADER@1234@PEAI@Z
	DD	00H
	DD	00H
	DD	03H
	DD	imagerel $ip2state$?TryParseX@Internal@Core@Math@Palmtree@@YAHPEB_WIPEBU__tag_PMC_NUMBER_FORMAT_INFO@1234@PEADPEAPEAU__tag_NUMBER_HEADER@1234@PEAI@Z
	DD	088H
	DD	00H
	DD	00H
CONST	ENDS
;	COMDAT xdata
xdata	SEGMENT
$unwind$?TryParseX@Internal@Core@Math@Palmtree@@YAHPEB_WIPEBU__tag_PMC_NUMBER_FORMAT_INFO@1234@PEADPEAPEAU__tag_NUMBER_HEADER@1234@PEAI@Z DD 0b3c19H
	DD	045342bH
	DD	03c011bH
	DD	0e00af00cH
	DD	0c006d008H
	DD	060037004H
	DD	05002H
	DD	imagerel __GSHandlerCheck_EH
	DD	imagerel $cppxdata$?TryParseX@Internal@Core@Math@Palmtree@@YAHPEB_WIPEBU__tag_PMC_NUMBER_FORMAT_INFO@1234@PEADPEAPEAU__tag_NUMBER_HEADER@1234@PEAI@Z
	DD	01d2H
xdata	ENDS
;	COMDAT xdata
xdata	SEGMENT
$unwind$?ParseAsHexNumberString@Internal@Core@Math@Palmtree@@YAHPEB_WIPEBU__tag_PMC_NUMBER_FORMAT_INFO@1234@PEA_W_K@Z DD 031b19H
	DD	0360109H
	DD	03002H
	DD	imagerel __GSHandlerCheck
	DD	01a0H
xdata	ENDS
;	COMDAT xdata
xdata	SEGMENT
$chain$1$?BuildBinaryFromHexString@Internal@Core@Math@Palmtree@@YAXPEA_WPEA_K@Z DD 021H
	DD	imagerel ?BuildBinaryFromHexString@Internal@Core@Math@Palmtree@@YAXPEA_WPEA_K@Z
	DD	imagerel ?BuildBinaryFromHexString@Internal@Core@Math@Palmtree@@YAXPEA_WPEA_K@Z+57
	DD	imagerel $unwind$?BuildBinaryFromHexString@Internal@Core@Math@Palmtree@@YAXPEA_WPEA_K@Z
xdata	ENDS
;	COMDAT xdata
xdata	SEGMENT
$chain$0$?BuildBinaryFromHexString@Internal@Core@Math@Palmtree@@YAXPEA_WPEA_K@Z DD 020521H
	DD	066405H
	DD	imagerel ?BuildBinaryFromHexString@Internal@Core@Math@Palmtree@@YAXPEA_WPEA_K@Z
	DD	imagerel ?BuildBinaryFromHexString@Internal@Core@Math@Palmtree@@YAXPEA_WPEA_K@Z+57
	DD	imagerel $unwind$?BuildBinaryFromHexString@Internal@Core@Math@Palmtree@@YAXPEA_WPEA_K@Z
xdata	ENDS
;	COMDAT xdata
xdata	SEGMENT
$unwind$?BuildBinaryFromHexString@Internal@Core@Math@Palmtree@@YAXPEA_WPEA_K@Z DD 040a01H
	DD	07340aH
	DD	07006320aH
xdata	ENDS
;	COMDAT xdata
xdata	SEGMENT
$ip2state$?TryParseDN@Internal@Core@Math@Palmtree@@YAHPEB_WIPEBU__tag_PMC_NUMBER_FORMAT_INFO@1234@PEADPEAPEAU__tag_NUMBER_HEADER@1234@PEAI@Z DD imagerel ?TryParseDN@Internal@Core@Math@Palmtree@@YAHPEB_WIPEBU__tag_PMC_NUMBER_FORMAT_INFO@1234@PEADPEAPEAU__tag_NUMBER_HEADER@1234@PEAI@Z
	DD	0ffffffffH
	DD	imagerel ?TryParseDN@Internal@Core@Math@Palmtree@@YAHPEB_WIPEBU__tag_PMC_NUMBER_FORMAT_INFO@1234@PEADPEAPEAU__tag_NUMBER_HEADER@1234@PEAI@Z+100
	DD	00H
	DD	imagerel ?TryParseDN@Internal@Core@Math@Palmtree@@YAHPEB_WIPEBU__tag_PMC_NUMBER_FORMAT_INFO@1234@PEADPEAPEAU__tag_NUMBER_HEADER@1234@PEAI@Z+866
	DD	01H
	DD	imagerel ?TryParseDN@Internal@Core@Math@Palmtree@@YAHPEB_WIPEBU__tag_PMC_NUMBER_FORMAT_INFO@1234@PEADPEAPEAU__tag_NUMBER_HEADER@1234@PEAI@Z+977
	DD	00H
	DD	imagerel ?TryParseDN@Internal@Core@Math@Palmtree@@YAHPEB_WIPEBU__tag_PMC_NUMBER_FORMAT_INFO@1234@PEADPEAPEAU__tag_NUMBER_HEADER@1234@PEAI@Z+1073
	DD	0ffffffffH
xdata	ENDS
;	COMDAT xdata
xdata	SEGMENT
$stateUnwindMap$?TryParseDN@Internal@Core@Math@Palmtree@@YAHPEB_WIPEBU__tag_PMC_NUMBER_FORMAT_INFO@1234@PEADPEAPEAU__tag_NUMBER_HEADER@1234@PEAI@Z DD 0ffffffffH
	DD	imagerel ?dtor$0@?0??TryParseDN@Internal@Core@Math@Palmtree@@YAHPEB_WIPEBU__tag_PMC_NUMBER_FORMAT_INFO@1234@PEADPEAPEAU__tag_NUMBER_HEADER@1234@PEAI@Z@4HA
	DD	00H
	DD	imagerel ?dtor$1@?0??TryParseDN@Internal@Core@Math@Palmtree@@YAHPEB_WIPEBU__tag_PMC_NUMBER_FORMAT_INFO@1234@PEADPEAPEAU__tag_NUMBER_HEADER@1234@PEAI@Z@4HA
xdata	ENDS
;	COMDAT CONST
CONST	SEGMENT
$cppxdata$?TryParseDN@Internal@Core@Math@Palmtree@@YAHPEB_WIPEBU__tag_PMC_NUMBER_FORMAT_INFO@1234@PEADPEAPEAU__tag_NUMBER_HEADER@1234@PEAI@Z DD 019930522H
	DD	02H
	DD	imagerel $stateUnwindMap$?TryParseDN@Internal@Core@Math@Palmtree@@YAHPEB_WIPEBU__tag_PMC_NUMBER_FORMAT_INFO@1234@PEADPEAPEAU__tag_NUMBER_HEADER@1234@PEAI@Z
	DD	00H
	DD	00H
	DD	05H
	DD	imagerel $ip2state$?TryParseDN@Internal@Core@Math@Palmtree@@YAHPEB_WIPEBU__tag_PMC_NUMBER_FORMAT_INFO@1234@PEADPEAPEAU__tag_NUMBER_HEADER@1234@PEAI@Z
	DD	080H
	DD	00H
	DD	00H
CONST	ENDS
;	COMDAT xdata
xdata	SEGMENT
$unwind$?TryParseDN@Internal@Core@Math@Palmtree@@YAHPEB_WIPEBU__tag_PMC_NUMBER_FORMAT_INFO@1234@PEADPEAPEAU__tag_NUMBER_HEADER@1234@PEAI@Z DD 0b3919H
	DD	0493427H
	DD	0400113H
	DD	0e00af00cH
	DD	0c006d008H
	DD	060037004H
	DD	05002H
	DD	imagerel __GSHandlerCheck_EH
	DD	imagerel $cppxdata$?TryParseDN@Internal@Core@Math@Palmtree@@YAHPEB_WIPEBU__tag_PMC_NUMBER_FORMAT_INFO@1234@PEADPEAPEAU__tag_NUMBER_HEADER@1234@PEAI@Z
	DD	01f2H
xdata	ENDS
;	COMDAT xdata
xdata	SEGMENT
$ip2state$?ConvertCardinalNumber@Internal@Core@Math@Palmtree@@YAXPEA_K_K0@Z DD imagerel ?ConvertCardinalNumber@Internal@Core@Math@Palmtree@@YAXPEA_K_K0@Z
	DD	0ffffffffH
	DD	imagerel ?ConvertCardinalNumber@Internal@Core@Math@Palmtree@@YAXPEA_K_K0@Z+51
	DD	00H
	DD	imagerel ?ConvertCardinalNumber@Internal@Core@Math@Palmtree@@YAXPEA_K_K0@Z+156
	DD	0ffffffffH
xdata	ENDS
;	COMDAT xdata
xdata	SEGMENT
$stateUnwindMap$?ConvertCardinalNumber@Internal@Core@Math@Palmtree@@YAXPEA_K_K0@Z DD 0ffffffffH
	DD	imagerel ?dtor$0@?0??ConvertCardinalNumber@Internal@Core@Math@Palmtree@@YAXPEA_K_K0@Z@4HA
xdata	ENDS
;	COMDAT CONST
CONST	SEGMENT
$cppxdata$?ConvertCardinalNumber@Internal@Core@Math@Palmtree@@YAXPEA_K_K0@Z DD 019930522H
	DD	01H
	DD	imagerel $stateUnwindMap$?ConvertCardinalNumber@Internal@Core@Math@Palmtree@@YAXPEA_K_K0@Z
	DD	00H
	DD	00H
	DD	03H
	DD	imagerel $ip2state$?ConvertCardinalNumber@Internal@Core@Math@Palmtree@@YAXPEA_K_K0@Z
	DD	020H
	DD	00H
	DD	00H
CONST	ENDS
;	COMDAT xdata
xdata	SEGMENT
$unwind$?ConvertCardinalNumber@Internal@Core@Math@Palmtree@@YAXPEA_K_K0@Z DD 0a2011H
	DD	0106420H
	DD	0f541cH
	DD	0e3418H
	DD	0f008920cH
	DD	07004e006H
	DD	imagerel __CxxFrameHandler3
	DD	imagerel $cppxdata$?ConvertCardinalNumber@Internal@Core@Math@Palmtree@@YAXPEA_K_K0@Z
xdata	ENDS
;	COMDAT xdata
xdata	SEGMENT
$unwind$?MultiplyAndAdd_using_ADCX_MULX@Internal@Core@Math@Palmtree@@YAPEA_KPEA_K_K1@Z DD 051301H
	DD	07a0113H
	DD	030037004H
	DD	05002H
xdata	ENDS
;	COMDAT xdata
xdata	SEGMENT
$unwind$?MultiplyAndAdd_using_ADC_MUL@Internal@Core@Math@Palmtree@@YAPEA_KPEA_K_K1@Z DD 041201H
	DD	07b0112H
	DD	050023003H
xdata	ENDS
;	COMDAT xdata
xdata	SEGMENT
$unwind$?BuildBinaryFromDecimalString@Internal@Core@Math@Palmtree@@YAXPEA_WPEA_K1@Z DD 0a1a01H
	DD	09741aH
	DD	08641aH
	DD	07541aH
	DD	06341aH
	DD	0e016321aH
xdata	ENDS
;	COMDAT xdata
xdata	SEGMENT
$unwind$?ParseAsDecimalNumberString@Internal@Core@Math@Palmtree@@YAHPEB_WIPEBU__tag_PMC_NUMBER_FORMAT_INFO@1234@PEADPEA_W_K34@Z DD 021919H
	DD	0350107H
	DD	imagerel __GSHandlerCheck
	DD	0190H
xdata	ENDS
;	COMDAT xdata
xdata	SEGMENT
$unwind$?ParseAsFractionPartNumberSequence@ParserState@Internal@Core@Math@Palmtree@@AEAAXXZ DD 020601H
	DD	030023206H
xdata	ENDS
;	COMDAT xdata
xdata	SEGMENT
$unwind$?ParseAsIntegerPartNumberSequence@ParserState@Internal@Core@Math@Palmtree@@AEAAXXZ DD 040e01H
	DD	06740eH
	DD	030023206H
xdata	ENDS
;	COMDAT xdata
xdata	SEGMENT
$unwind$?ParseAsHexNumberString@ParserState@Internal@Core@Math@Palmtree@@QEAAHXZ DD 020601H
	DD	030023206H
xdata	ENDS
;	COMDAT xdata
xdata	SEGMENT
$unwind$?ParseAsDecimalNumberString@ParserState@Internal@Core@Math@Palmtree@@QEAAHXZ DD 064b01H
	DD	06644bH
	DD	07340aH
	DD	07006320aH
xdata	ENDS
;	COMDAT xdata
xdata	SEGMENT
$unwind$??0ParserState@Internal@Core@Math@Palmtree@@QEAA@PEB_WIPEBU__tag_PMC_NUMBER_FORMAT_INFO@1234@PEADPEA_W_K34@Z DD 081401H
	DD	0e6414H
	DD	0d5414H
	DD	0c3414H
	DD	070109214H
xdata	ENDS
;	COMDAT xdata
xdata	SEGMENT
$unwind$_COPY_MEMORY_UNIT DD 040a01H
	DD	02740aH
	DD	016405H
xdata	ENDS
;	COMDAT xdata
xdata	SEGMENT
$chain$5$?PMC_TryParseForSINT@Internal@Core@Math@Palmtree@@YAHPEB_WHPEBU__tag_PMC_NUMBER_FORMAT_INFO@1234@PEADPEAPEAU__tag_PMC_HANDLE_UINT@1234@PEAI@Z DD 020021H
	DD	0f3400H
	DD	imagerel $LN15
	DD	imagerel $LN15+25
	DD	imagerel $unwind$?PMC_TryParseForSINT@Internal@Core@Math@Palmtree@@YAHPEB_WHPEBU__tag_PMC_NUMBER_FORMAT_INFO@1234@PEADPEAPEAU__tag_PMC_HANDLE_UINT@1234@PEAI@Z
xdata	ENDS
;	COMDAT xdata
xdata	SEGMENT
$chain$4$?PMC_TryParseForSINT@Internal@Core@Math@Palmtree@@YAHPEB_WHPEBU__tag_PMC_NUMBER_FORMAT_INFO@1234@PEADPEAPEAU__tag_PMC_HANDLE_UINT@1234@PEAI@Z DD 021H
	DD	imagerel $LN15
	DD	imagerel $LN15+25
	DD	imagerel $unwind$?PMC_TryParseForSINT@Internal@Core@Math@Palmtree@@YAHPEB_WHPEBU__tag_PMC_NUMBER_FORMAT_INFO@1234@PEADPEAPEAU__tag_PMC_HANDLE_UINT@1234@PEAI@Z
xdata	ENDS
;	COMDAT xdata
xdata	SEGMENT
$chain$3$?PMC_TryParseForSINT@Internal@Core@Math@Palmtree@@YAHPEB_WHPEBU__tag_PMC_NUMBER_FORMAT_INFO@1234@PEADPEAPEAU__tag_PMC_HANDLE_UINT@1234@PEAI@Z DD 040021H
	DD	0c7400H
	DD	0f3400H
	DD	imagerel $LN15
	DD	imagerel $LN15+25
	DD	imagerel $unwind$?PMC_TryParseForSINT@Internal@Core@Math@Palmtree@@YAHPEB_WHPEBU__tag_PMC_NUMBER_FORMAT_INFO@1234@PEADPEAPEAU__tag_PMC_HANDLE_UINT@1234@PEAI@Z
xdata	ENDS
;	COMDAT xdata
xdata	SEGMENT
$chain$1$?PMC_TryParseForSINT@Internal@Core@Math@Palmtree@@YAHPEB_WHPEBU__tag_PMC_NUMBER_FORMAT_INFO@1234@PEADPEAPEAU__tag_PMC_HANDLE_UINT@1234@PEAI@Z DD 041e21H
	DD	0c741eH
	DD	0f3405H
	DD	imagerel $LN15
	DD	imagerel $LN15+25
	DD	imagerel $unwind$?PMC_TryParseForSINT@Internal@Core@Math@Palmtree@@YAHPEB_WHPEBU__tag_PMC_NUMBER_FORMAT_INFO@1234@PEADPEAPEAU__tag_PMC_HANDLE_UINT@1234@PEAI@Z
xdata	ENDS
;	COMDAT xdata
xdata	SEGMENT
$unwind$?PMC_TryParseForSINT@Internal@Core@Math@Palmtree@@YAHPEB_WHPEBU__tag_PMC_NUMBER_FORMAT_INFO@1234@PEADPEAPEAU__tag_PMC_HANDLE_UINT@1234@PEAI@Z DD 010401H
	DD	0c204H
xdata	ENDS
;	COMDAT xdata
xdata	SEGMENT
$ip2state$?PMC_TryParse@Internal@Core@Math@Palmtree@@YAHPEB_WHPEBU__tag_PMC_NUMBER_FORMAT_INFO@1234@PEAPEAU__tag_PMC_HANDLE_UINT@1234@PEAI@Z DD imagerel ?PMC_TryParse@Internal@Core@Math@Palmtree@@YAHPEB_WHPEBU__tag_PMC_NUMBER_FORMAT_INFO@1234@PEAPEAU__tag_PMC_HANDLE_UINT@1234@PEAI@Z
	DD	0ffffffffH
	DD	imagerel ?PMC_TryParse@Internal@Core@Math@Palmtree@@YAHPEB_WHPEBU__tag_PMC_NUMBER_FORMAT_INFO@1234@PEAPEAU__tag_PMC_HANDLE_UINT@1234@PEAI@Z+70
	DD	00H
	DD	imagerel ?PMC_TryParse@Internal@Core@Math@Palmtree@@YAHPEB_WHPEBU__tag_PMC_NUMBER_FORMAT_INFO@1234@PEAPEAU__tag_PMC_HANDLE_UINT@1234@PEAI@Z+169
	DD	0ffffffffH
	DD	imagerel ?PMC_TryParse@Internal@Core@Math@Palmtree@@YAHPEB_WHPEBU__tag_PMC_NUMBER_FORMAT_INFO@1234@PEAPEAU__tag_PMC_HANDLE_UINT@1234@PEAI@Z+186
	DD	00H
	DD	imagerel ?PMC_TryParse@Internal@Core@Math@Palmtree@@YAHPEB_WHPEBU__tag_PMC_NUMBER_FORMAT_INFO@1234@PEAPEAU__tag_PMC_HANDLE_UINT@1234@PEAI@Z+208
	DD	0ffffffffH
	DD	imagerel ?PMC_TryParse@Internal@Core@Math@Palmtree@@YAHPEB_WHPEBU__tag_PMC_NUMBER_FORMAT_INFO@1234@PEAPEAU__tag_PMC_HANDLE_UINT@1234@PEAI@Z+222
	DD	00H
	DD	imagerel ?PMC_TryParse@Internal@Core@Math@Palmtree@@YAHPEB_WHPEBU__tag_PMC_NUMBER_FORMAT_INFO@1234@PEAPEAU__tag_PMC_HANDLE_UINT@1234@PEAI@Z+228
	DD	0ffffffffH
xdata	ENDS
;	COMDAT xdata
xdata	SEGMENT
$stateUnwindMap$?PMC_TryParse@Internal@Core@Math@Palmtree@@YAHPEB_WHPEBU__tag_PMC_NUMBER_FORMAT_INFO@1234@PEAPEAU__tag_PMC_HANDLE_UINT@1234@PEAI@Z DD 0ffffffffH
	DD	imagerel ?dtor$0@?0??PMC_TryParse@Internal@Core@Math@Palmtree@@YAHPEB_WHPEBU__tag_PMC_NUMBER_FORMAT_INFO@1234@PEAPEAU__tag_PMC_HANDLE_UINT@1234@PEAI@Z@4HA
xdata	ENDS
;	COMDAT CONST
CONST	SEGMENT
$cppxdata$?PMC_TryParse@Internal@Core@Math@Palmtree@@YAHPEB_WHPEBU__tag_PMC_NUMBER_FORMAT_INFO@1234@PEAPEAU__tag_PMC_HANDLE_UINT@1234@PEAI@Z DD 019930522H
	DD	01H
	DD	imagerel $stateUnwindMap$?PMC_TryParse@Internal@Core@Math@Palmtree@@YAHPEB_WHPEBU__tag_PMC_NUMBER_FORMAT_INFO@1234@PEAPEAU__tag_PMC_HANDLE_UINT@1234@PEAI@Z
	DD	00H
	DD	00H
	DD	07H
	DD	imagerel $ip2state$?PMC_TryParse@Internal@Core@Math@Palmtree@@YAHPEB_WHPEBU__tag_PMC_NUMBER_FORMAT_INFO@1234@PEAPEAU__tag_PMC_HANDLE_UINT@1234@PEAI@Z
	DD	038H
	DD	00H
	DD	00H
CONST	ENDS
;	COMDAT xdata
xdata	SEGMENT
$unwind$?PMC_TryParse@Internal@Core@Math@Palmtree@@YAHPEB_WHPEBU__tag_PMC_NUMBER_FORMAT_INFO@1234@PEAPEAU__tag_PMC_HANDLE_UINT@1234@PEAI@Z DD 091f11H
	DD	017641fH
	DD	016541bH
	DD	0153417H
	DD	012010bH
	DD	07004H
	DD	imagerel __CxxFrameHandler3
	DD	imagerel $cppxdata$?PMC_TryParse@Internal@Core@Math@Palmtree@@YAHPEB_WHPEBU__tag_PMC_NUMBER_FORMAT_INFO@1234@PEAPEAU__tag_PMC_HANDLE_UINT@1234@PEAI@Z
xdata	ENDS
;	COMDAT xdata
xdata	SEGMENT
$unwind$?Initialize_Parse@Internal@Core@Math@Palmtree@@YAHPEAU_tag_PROCESSOR_FEATURES@1234@@Z DD 020601H
	DD	030023206H
xdata	ENDS
;	COMDAT xdata
xdata	SEGMENT
$unwind$?Write@StringWriter@Internal@Core@Math@Palmtree@@UEAAXPEB_W@Z DD 040a01H
	DD	06340aH
	DD	07006320aH
xdata	ENDS
;	COMDAT xdata
xdata	SEGMENT
$unwind$?Write@StringWriter@Internal@Core@Math@Palmtree@@UEAAX_W@Z DD 010401H
	DD	0a204H
xdata	ENDS
;	COMDAT xdata
xdata	SEGMENT
$unwind$?SkipString@StringReader@Internal@Core@Math@Palmtree@@UEAAXPEB_W@Z DD 020601H
	DD	030029206H
xdata	ENDS
;	COMDAT xdata
xdata	SEGMENT
$unwind$?SkipSpace@StringReader@Internal@Core@Math@Palmtree@@QEAAXXZ DD 020601H
	DD	030023206H
xdata	ENDS
;	COMDAT xdata
xdata	SEGMENT
$unwind$?Progress@StringReader@Internal@Core@Math@Palmtree@@UEAAXXZ DD 010401H
	DD	0a204H
xdata	ENDS
;	COMDAT xdata
xdata	SEGMENT
$ip2state$??_GInternalErrorException@Internal@Core@Math@Palmtree@@UEAAPEAXI@Z DD imagerel ??_GInternalErrorException@Internal@Core@Math@Palmtree@@UEAAPEAXI@Z
	DD	0ffffffffH
xdata	ENDS
;	COMDAT xdata
xdata	SEGMENT
$stateUnwindMap$??_GInternalErrorException@Internal@Core@Math@Palmtree@@UEAAPEAXI@Z DD 0ffffffffH
	DD	imagerel ?dtor$0@?0???_GInternalErrorException@Internal@Core@Math@Palmtree@@UEAAPEAXI@Z@4HA
	DD	0ffffffffH
	DD	imagerel ?dtor$1@?0???_GInternalErrorException@Internal@Core@Math@Palmtree@@UEAAPEAXI@Z@4HA
xdata	ENDS
;	COMDAT CONST
CONST	SEGMENT
$cppxdata$??_GInternalErrorException@Internal@Core@Math@Palmtree@@UEAAPEAXI@Z DD 019930522H
	DD	02H
	DD	imagerel $stateUnwindMap$??_GInternalErrorException@Internal@Core@Math@Palmtree@@UEAAPEAXI@Z
	DD	00H
	DD	00H
	DD	01H
	DD	imagerel $ip2state$??_GInternalErrorException@Internal@Core@Math@Palmtree@@UEAAPEAXI@Z
	DD	020H
	DD	00H
	DD	04H
CONST	ENDS
;	COMDAT xdata
xdata	SEGMENT
$unwind$??_GInternalErrorException@Internal@Core@Math@Palmtree@@UEAAPEAXI@Z DD 041819H
	DD	093418H
	DD	07006520aH
	DD	imagerel __CxxFrameHandler3
	DD	imagerel $cppxdata$??_GInternalErrorException@Internal@Core@Math@Palmtree@@UEAAPEAXI@Z
xdata	ENDS
;	COMDAT xdata
xdata	SEGMENT
$ip2state$??1InternalErrorException@Internal@Core@Math@Palmtree@@UEAA@XZ DD imagerel ??1InternalErrorException@Internal@Core@Math@Palmtree@@UEAA@XZ
	DD	0ffffffffH
xdata	ENDS
;	COMDAT xdata
xdata	SEGMENT
$stateUnwindMap$??1InternalErrorException@Internal@Core@Math@Palmtree@@UEAA@XZ DD 0ffffffffH
	DD	imagerel ?dtor$0@?0???1InternalErrorException@Internal@Core@Math@Palmtree@@UEAA@XZ@4HA
	DD	0ffffffffH
	DD	imagerel ?dtor$1@?0???1InternalErrorException@Internal@Core@Math@Palmtree@@UEAA@XZ@4HA
xdata	ENDS
;	COMDAT CONST
CONST	SEGMENT
$cppxdata$??1InternalErrorException@Internal@Core@Math@Palmtree@@UEAA@XZ DD 019930522H
	DD	02H
	DD	imagerel $stateUnwindMap$??1InternalErrorException@Internal@Core@Math@Palmtree@@UEAA@XZ
	DD	00H
	DD	00H
	DD	01H
	DD	imagerel $ip2state$??1InternalErrorException@Internal@Core@Math@Palmtree@@UEAA@XZ
	DD	020H
	DD	00H
	DD	04H
CONST	ENDS
;	COMDAT xdata
xdata	SEGMENT
$unwind$??1InternalErrorException@Internal@Core@Math@Palmtree@@UEAA@XZ DD 011219H
	DD	06209H
	DD	imagerel __CxxFrameHandler3
	DD	imagerel $cppxdata$??1InternalErrorException@Internal@Core@Math@Palmtree@@UEAA@XZ
xdata	ENDS
;	COMDAT xdata
xdata	SEGMENT
$ip2state$??0InternalErrorException@Internal@Core@Math@Palmtree@@QEAA@AEBV01234@@Z DD imagerel ??0InternalErrorException@Internal@Core@Math@Palmtree@@QEAA@AEBV01234@@Z
	DD	0ffffffffH
	DD	imagerel ??0InternalErrorException@Internal@Core@Math@Palmtree@@QEAA@AEBV01234@@Z+37
	DD	00H
	DD	imagerel ??0InternalErrorException@Internal@Core@Math@Palmtree@@QEAA@AEBV01234@@Z+69
	DD	01H
	DD	imagerel ??0InternalErrorException@Internal@Core@Math@Palmtree@@QEAA@AEBV01234@@Z+79
	DD	0ffffffffH
xdata	ENDS
;	COMDAT xdata
xdata	SEGMENT
$stateUnwindMap$??0InternalErrorException@Internal@Core@Math@Palmtree@@QEAA@AEBV01234@@Z DD 0ffffffffH
	DD	imagerel ?dtor$1@?0???0InternalErrorException@Internal@Core@Math@Palmtree@@QEAA@AEBV01234@@Z@4HA
	DD	0ffffffffH
	DD	imagerel ?dtor$0@?0???0InternalErrorException@Internal@Core@Math@Palmtree@@QEAA@AEBV01234@@Z@4HA
xdata	ENDS
;	COMDAT CONST
CONST	SEGMENT
$cppxdata$??0InternalErrorException@Internal@Core@Math@Palmtree@@QEAA@AEBV01234@@Z DD 019930522H
	DD	02H
	DD	imagerel $stateUnwindMap$??0InternalErrorException@Internal@Core@Math@Palmtree@@QEAA@AEBV01234@@Z
	DD	00H
	DD	00H
	DD	04H
	DD	imagerel $ip2state$??0InternalErrorException@Internal@Core@Math@Palmtree@@QEAA@AEBV01234@@Z
	DD	00H
	DD	00H
	DD	04H
CONST	ENDS
;	COMDAT xdata
xdata	SEGMENT
$unwind$??0InternalErrorException@Internal@Core@Math@Palmtree@@QEAA@AEBV01234@@Z DD 011111H
	DD	02209H
	DD	imagerel __CxxFrameHandler3
	DD	imagerel $cppxdata$??0InternalErrorException@Internal@Core@Math@Palmtree@@QEAA@AEBV01234@@Z
xdata	ENDS
;	COMDAT xdata
xdata	SEGMENT
$ip2state$??0InternalErrorException@Internal@Core@Math@Palmtree@@QEAA@PEB_W0@Z DD imagerel ??0InternalErrorException@Internal@Core@Math@Palmtree@@QEAA@PEB_W0@Z
	DD	0ffffffffH
	DD	imagerel ??0InternalErrorException@Internal@Core@Math@Palmtree@@QEAA@PEB_W0@Z+37
	DD	00H
	DD	imagerel ??0InternalErrorException@Internal@Core@Math@Palmtree@@QEAA@PEB_W0@Z+62
	DD	01H
	DD	imagerel ??0InternalErrorException@Internal@Core@Math@Palmtree@@QEAA@PEB_W0@Z+72
	DD	0ffffffffH
xdata	ENDS
;	COMDAT xdata
xdata	SEGMENT
$stateUnwindMap$??0InternalErrorException@Internal@Core@Math@Palmtree@@QEAA@PEB_W0@Z DD 0ffffffffH
	DD	imagerel ?dtor$1@?0???0InternalErrorException@Internal@Core@Math@Palmtree@@QEAA@PEB_W0@Z@4HA
	DD	0ffffffffH
	DD	imagerel ?dtor$0@?0???0InternalErrorException@Internal@Core@Math@Palmtree@@QEAA@PEB_W0@Z@4HA
xdata	ENDS
;	COMDAT CONST
CONST	SEGMENT
$cppxdata$??0InternalErrorException@Internal@Core@Math@Palmtree@@QEAA@PEB_W0@Z DD 019930522H
	DD	02H
	DD	imagerel $stateUnwindMap$??0InternalErrorException@Internal@Core@Math@Palmtree@@QEAA@PEB_W0@Z
	DD	00H
	DD	00H
	DD	04H
	DD	imagerel $ip2state$??0InternalErrorException@Internal@Core@Math@Palmtree@@QEAA@PEB_W0@Z
	DD	00H
	DD	00H
	DD	04H
CONST	ENDS
;	COMDAT xdata
xdata	SEGMENT
$unwind$??0InternalErrorException@Internal@Core@Math@Palmtree@@QEAA@PEB_W0@Z DD 011111H
	DD	02209H
	DD	imagerel __CxxFrameHandler3
	DD	imagerel $cppxdata$??0InternalErrorException@Internal@Core@Math@Palmtree@@QEAA@PEB_W0@Z
xdata	ENDS
;	COMDAT xdata
xdata	SEGMENT
$ip2state$??_GInsufficientBufferException@Internal@Core@Math@Palmtree@@UEAAPEAXI@Z DD imagerel ??_GInsufficientBufferException@Internal@Core@Math@Palmtree@@UEAAPEAXI@Z
	DD	0ffffffffH
xdata	ENDS
;	COMDAT xdata
xdata	SEGMENT
$stateUnwindMap$??_GInsufficientBufferException@Internal@Core@Math@Palmtree@@UEAAPEAXI@Z DD 0ffffffffH
	DD	imagerel ?dtor$0@?0???_GInsufficientBufferException@Internal@Core@Math@Palmtree@@UEAAPEAXI@Z@4HA
	DD	0ffffffffH
	DD	imagerel ?dtor$1@?0???_GInsufficientBufferException@Internal@Core@Math@Palmtree@@UEAAPEAXI@Z@4HA
xdata	ENDS
;	COMDAT CONST
CONST	SEGMENT
$cppxdata$??_GInsufficientBufferException@Internal@Core@Math@Palmtree@@UEAAPEAXI@Z DD 019930522H
	DD	02H
	DD	imagerel $stateUnwindMap$??_GInsufficientBufferException@Internal@Core@Math@Palmtree@@UEAAPEAXI@Z
	DD	00H
	DD	00H
	DD	01H
	DD	imagerel $ip2state$??_GInsufficientBufferException@Internal@Core@Math@Palmtree@@UEAAPEAXI@Z
	DD	020H
	DD	00H
	DD	04H
CONST	ENDS
;	COMDAT xdata
xdata	SEGMENT
$unwind$??_GInsufficientBufferException@Internal@Core@Math@Palmtree@@UEAAPEAXI@Z DD 041819H
	DD	093418H
	DD	07006520aH
	DD	imagerel __CxxFrameHandler3
	DD	imagerel $cppxdata$??_GInsufficientBufferException@Internal@Core@Math@Palmtree@@UEAAPEAXI@Z
xdata	ENDS
;	COMDAT xdata
xdata	SEGMENT
$ip2state$??1InsufficientBufferException@Internal@Core@Math@Palmtree@@UEAA@XZ DD imagerel ??1InsufficientBufferException@Internal@Core@Math@Palmtree@@UEAA@XZ
	DD	0ffffffffH
xdata	ENDS
;	COMDAT xdata
xdata	SEGMENT
$stateUnwindMap$??1InsufficientBufferException@Internal@Core@Math@Palmtree@@UEAA@XZ DD 0ffffffffH
	DD	imagerel ?dtor$0@?0???1InsufficientBufferException@Internal@Core@Math@Palmtree@@UEAA@XZ@4HA
	DD	0ffffffffH
	DD	imagerel ?dtor$1@?0???1InsufficientBufferException@Internal@Core@Math@Palmtree@@UEAA@XZ@4HA
xdata	ENDS
;	COMDAT CONST
CONST	SEGMENT
$cppxdata$??1InsufficientBufferException@Internal@Core@Math@Palmtree@@UEAA@XZ DD 019930522H
	DD	02H
	DD	imagerel $stateUnwindMap$??1InsufficientBufferException@Internal@Core@Math@Palmtree@@UEAA@XZ
	DD	00H
	DD	00H
	DD	01H
	DD	imagerel $ip2state$??1InsufficientBufferException@Internal@Core@Math@Palmtree@@UEAA@XZ
	DD	020H
	DD	00H
	DD	04H
CONST	ENDS
;	COMDAT xdata
xdata	SEGMENT
$unwind$??1InsufficientBufferException@Internal@Core@Math@Palmtree@@UEAA@XZ DD 011219H
	DD	06209H
	DD	imagerel __CxxFrameHandler3
	DD	imagerel $cppxdata$??1InsufficientBufferException@Internal@Core@Math@Palmtree@@UEAA@XZ
xdata	ENDS
;	COMDAT xdata
xdata	SEGMENT
$ip2state$??0InsufficientBufferException@Internal@Core@Math@Palmtree@@QEAA@AEBV01234@@Z DD imagerel ??0InsufficientBufferException@Internal@Core@Math@Palmtree@@QEAA@AEBV01234@@Z
	DD	0ffffffffH
	DD	imagerel ??0InsufficientBufferException@Internal@Core@Math@Palmtree@@QEAA@AEBV01234@@Z+37
	DD	00H
	DD	imagerel ??0InsufficientBufferException@Internal@Core@Math@Palmtree@@QEAA@AEBV01234@@Z+69
	DD	01H
	DD	imagerel ??0InsufficientBufferException@Internal@Core@Math@Palmtree@@QEAA@AEBV01234@@Z+79
	DD	0ffffffffH
xdata	ENDS
;	COMDAT xdata
xdata	SEGMENT
$stateUnwindMap$??0InsufficientBufferException@Internal@Core@Math@Palmtree@@QEAA@AEBV01234@@Z DD 0ffffffffH
	DD	imagerel ?dtor$1@?0???0InsufficientBufferException@Internal@Core@Math@Palmtree@@QEAA@AEBV01234@@Z@4HA
	DD	0ffffffffH
	DD	imagerel ?dtor$0@?0???0InsufficientBufferException@Internal@Core@Math@Palmtree@@QEAA@AEBV01234@@Z@4HA
xdata	ENDS
;	COMDAT CONST
CONST	SEGMENT
$cppxdata$??0InsufficientBufferException@Internal@Core@Math@Palmtree@@QEAA@AEBV01234@@Z DD 019930522H
	DD	02H
	DD	imagerel $stateUnwindMap$??0InsufficientBufferException@Internal@Core@Math@Palmtree@@QEAA@AEBV01234@@Z
	DD	00H
	DD	00H
	DD	04H
	DD	imagerel $ip2state$??0InsufficientBufferException@Internal@Core@Math@Palmtree@@QEAA@AEBV01234@@Z
	DD	00H
	DD	00H
	DD	04H
CONST	ENDS
;	COMDAT xdata
xdata	SEGMENT
$unwind$??0InsufficientBufferException@Internal@Core@Math@Palmtree@@QEAA@AEBV01234@@Z DD 011111H
	DD	02209H
	DD	imagerel __CxxFrameHandler3
	DD	imagerel $cppxdata$??0InsufficientBufferException@Internal@Core@Math@Palmtree@@QEAA@AEBV01234@@Z
xdata	ENDS
;	COMDAT xdata
xdata	SEGMENT
$ip2state$??0InsufficientBufferException@Internal@Core@Math@Palmtree@@QEAA@PEB_W@Z DD imagerel ??0InsufficientBufferException@Internal@Core@Math@Palmtree@@QEAA@PEB_W@Z
	DD	0ffffffffH
	DD	imagerel ??0InsufficientBufferException@Internal@Core@Math@Palmtree@@QEAA@PEB_W@Z+37
	DD	00H
	DD	imagerel ??0InsufficientBufferException@Internal@Core@Math@Palmtree@@QEAA@PEB_W@Z+66
	DD	01H
	DD	imagerel ??0InsufficientBufferException@Internal@Core@Math@Palmtree@@QEAA@PEB_W@Z+76
	DD	0ffffffffH
xdata	ENDS
;	COMDAT xdata
xdata	SEGMENT
$stateUnwindMap$??0InsufficientBufferException@Internal@Core@Math@Palmtree@@QEAA@PEB_W@Z DD 0ffffffffH
	DD	imagerel ?dtor$1@?0???0InsufficientBufferException@Internal@Core@Math@Palmtree@@QEAA@PEB_W@Z@4HA
	DD	0ffffffffH
	DD	imagerel ?dtor$0@?0???0InsufficientBufferException@Internal@Core@Math@Palmtree@@QEAA@PEB_W@Z@4HA
xdata	ENDS
;	COMDAT CONST
CONST	SEGMENT
$cppxdata$??0InsufficientBufferException@Internal@Core@Math@Palmtree@@QEAA@PEB_W@Z DD 019930522H
	DD	02H
	DD	imagerel $stateUnwindMap$??0InsufficientBufferException@Internal@Core@Math@Palmtree@@QEAA@PEB_W@Z
	DD	00H
	DD	00H
	DD	04H
	DD	imagerel $ip2state$??0InsufficientBufferException@Internal@Core@Math@Palmtree@@QEAA@PEB_W@Z
	DD	00H
	DD	00H
	DD	00H
CONST	ENDS
;	COMDAT xdata
xdata	SEGMENT
$unwind$??0InsufficientBufferException@Internal@Core@Math@Palmtree@@QEAA@PEB_W@Z DD 011111H
	DD	02209H
	DD	imagerel __CxxFrameHandler3
	DD	imagerel $cppxdata$??0InsufficientBufferException@Internal@Core@Math@Palmtree@@QEAA@PEB_W@Z
xdata	ENDS
;	COMDAT xdata
xdata	SEGMENT
$ip2state$??_GArgumentNullException@Internal@Core@Math@Palmtree@@UEAAPEAXI@Z DD imagerel ??_GArgumentNullException@Internal@Core@Math@Palmtree@@UEAAPEAXI@Z
	DD	0ffffffffH
xdata	ENDS
;	COMDAT xdata
xdata	SEGMENT
$stateUnwindMap$??_GArgumentNullException@Internal@Core@Math@Palmtree@@UEAAPEAXI@Z DD 0ffffffffH
	DD	imagerel ?dtor$0@?0???_GArgumentNullException@Internal@Core@Math@Palmtree@@UEAAPEAXI@Z@4HA
	DD	0ffffffffH
	DD	imagerel ?dtor$1@?0???_GArgumentNullException@Internal@Core@Math@Palmtree@@UEAAPEAXI@Z@4HA
xdata	ENDS
;	COMDAT CONST
CONST	SEGMENT
$cppxdata$??_GArgumentNullException@Internal@Core@Math@Palmtree@@UEAAPEAXI@Z DD 019930522H
	DD	02H
	DD	imagerel $stateUnwindMap$??_GArgumentNullException@Internal@Core@Math@Palmtree@@UEAAPEAXI@Z
	DD	00H
	DD	00H
	DD	01H
	DD	imagerel $ip2state$??_GArgumentNullException@Internal@Core@Math@Palmtree@@UEAAPEAXI@Z
	DD	020H
	DD	00H
	DD	04H
CONST	ENDS
;	COMDAT xdata
xdata	SEGMENT
$unwind$??_GArgumentNullException@Internal@Core@Math@Palmtree@@UEAAPEAXI@Z DD 041819H
	DD	093418H
	DD	07006520aH
	DD	imagerel __CxxFrameHandler3
	DD	imagerel $cppxdata$??_GArgumentNullException@Internal@Core@Math@Palmtree@@UEAAPEAXI@Z
xdata	ENDS
;	COMDAT xdata
xdata	SEGMENT
$ip2state$??1ArgumentNullException@Internal@Core@Math@Palmtree@@UEAA@XZ DD imagerel ??1ArgumentNullException@Internal@Core@Math@Palmtree@@UEAA@XZ
	DD	0ffffffffH
xdata	ENDS
;	COMDAT xdata
xdata	SEGMENT
$stateUnwindMap$??1ArgumentNullException@Internal@Core@Math@Palmtree@@UEAA@XZ DD 0ffffffffH
	DD	imagerel ?dtor$0@?0???1ArgumentNullException@Internal@Core@Math@Palmtree@@UEAA@XZ@4HA
	DD	0ffffffffH
	DD	imagerel ?dtor$1@?0???1ArgumentNullException@Internal@Core@Math@Palmtree@@UEAA@XZ@4HA
xdata	ENDS
;	COMDAT CONST
CONST	SEGMENT
$cppxdata$??1ArgumentNullException@Internal@Core@Math@Palmtree@@UEAA@XZ DD 019930522H
	DD	02H
	DD	imagerel $stateUnwindMap$??1ArgumentNullException@Internal@Core@Math@Palmtree@@UEAA@XZ
	DD	00H
	DD	00H
	DD	01H
	DD	imagerel $ip2state$??1ArgumentNullException@Internal@Core@Math@Palmtree@@UEAA@XZ
	DD	020H
	DD	00H
	DD	04H
CONST	ENDS
;	COMDAT xdata
xdata	SEGMENT
$unwind$??1ArgumentNullException@Internal@Core@Math@Palmtree@@UEAA@XZ DD 011219H
	DD	06209H
	DD	imagerel __CxxFrameHandler3
	DD	imagerel $cppxdata$??1ArgumentNullException@Internal@Core@Math@Palmtree@@UEAA@XZ
xdata	ENDS
;	COMDAT xdata
xdata	SEGMENT
$ip2state$??0ArgumentNullException@Internal@Core@Math@Palmtree@@QEAA@AEBV01234@@Z DD imagerel ??0ArgumentNullException@Internal@Core@Math@Palmtree@@QEAA@AEBV01234@@Z
	DD	0ffffffffH
	DD	imagerel ??0ArgumentNullException@Internal@Core@Math@Palmtree@@QEAA@AEBV01234@@Z+37
	DD	00H
	DD	imagerel ??0ArgumentNullException@Internal@Core@Math@Palmtree@@QEAA@AEBV01234@@Z+69
	DD	01H
	DD	imagerel ??0ArgumentNullException@Internal@Core@Math@Palmtree@@QEAA@AEBV01234@@Z+79
	DD	0ffffffffH
xdata	ENDS
;	COMDAT xdata
xdata	SEGMENT
$stateUnwindMap$??0ArgumentNullException@Internal@Core@Math@Palmtree@@QEAA@AEBV01234@@Z DD 0ffffffffH
	DD	imagerel ?dtor$1@?0???0ArgumentNullException@Internal@Core@Math@Palmtree@@QEAA@AEBV01234@@Z@4HA
	DD	0ffffffffH
	DD	imagerel ?dtor$0@?0???0ArgumentNullException@Internal@Core@Math@Palmtree@@QEAA@AEBV01234@@Z@4HA
xdata	ENDS
;	COMDAT CONST
CONST	SEGMENT
$cppxdata$??0ArgumentNullException@Internal@Core@Math@Palmtree@@QEAA@AEBV01234@@Z DD 019930522H
	DD	02H
	DD	imagerel $stateUnwindMap$??0ArgumentNullException@Internal@Core@Math@Palmtree@@QEAA@AEBV01234@@Z
	DD	00H
	DD	00H
	DD	04H
	DD	imagerel $ip2state$??0ArgumentNullException@Internal@Core@Math@Palmtree@@QEAA@AEBV01234@@Z
	DD	00H
	DD	00H
	DD	04H
CONST	ENDS
;	COMDAT xdata
xdata	SEGMENT
$unwind$??0ArgumentNullException@Internal@Core@Math@Palmtree@@QEAA@AEBV01234@@Z DD 011111H
	DD	02209H
	DD	imagerel __CxxFrameHandler3
	DD	imagerel $cppxdata$??0ArgumentNullException@Internal@Core@Math@Palmtree@@QEAA@AEBV01234@@Z
xdata	ENDS
;	COMDAT xdata
xdata	SEGMENT
$ip2state$??0ArgumentNullException@Internal@Core@Math@Palmtree@@QEAA@PEB_W0@Z DD imagerel ??0ArgumentNullException@Internal@Core@Math@Palmtree@@QEAA@PEB_W0@Z
	DD	0ffffffffH
	DD	imagerel ??0ArgumentNullException@Internal@Core@Math@Palmtree@@QEAA@PEB_W0@Z+37
	DD	00H
	DD	imagerel ??0ArgumentNullException@Internal@Core@Math@Palmtree@@QEAA@PEB_W0@Z+62
	DD	01H
	DD	imagerel ??0ArgumentNullException@Internal@Core@Math@Palmtree@@QEAA@PEB_W0@Z+72
	DD	0ffffffffH
xdata	ENDS
;	COMDAT xdata
xdata	SEGMENT
$stateUnwindMap$??0ArgumentNullException@Internal@Core@Math@Palmtree@@QEAA@PEB_W0@Z DD 0ffffffffH
	DD	imagerel ?dtor$1@?0???0ArgumentNullException@Internal@Core@Math@Palmtree@@QEAA@PEB_W0@Z@4HA
	DD	0ffffffffH
	DD	imagerel ?dtor$0@?0???0ArgumentNullException@Internal@Core@Math@Palmtree@@QEAA@PEB_W0@Z@4HA
xdata	ENDS
;	COMDAT CONST
CONST	SEGMENT
$cppxdata$??0ArgumentNullException@Internal@Core@Math@Palmtree@@QEAA@PEB_W0@Z DD 019930522H
	DD	02H
	DD	imagerel $stateUnwindMap$??0ArgumentNullException@Internal@Core@Math@Palmtree@@QEAA@PEB_W0@Z
	DD	00H
	DD	00H
	DD	04H
	DD	imagerel $ip2state$??0ArgumentNullException@Internal@Core@Math@Palmtree@@QEAA@PEB_W0@Z
	DD	00H
	DD	00H
	DD	04H
CONST	ENDS
;	COMDAT xdata
xdata	SEGMENT
$unwind$??0ArgumentNullException@Internal@Core@Math@Palmtree@@QEAA@PEB_W0@Z DD 011111H
	DD	02209H
	DD	imagerel __CxxFrameHandler3
	DD	imagerel $cppxdata$??0ArgumentNullException@Internal@Core@Math@Palmtree@@QEAA@PEB_W0@Z
xdata	ENDS
;	COMDAT xdata
xdata	SEGMENT
$ip2state$??_GArgumentException@Internal@Core@Math@Palmtree@@UEAAPEAXI@Z DD imagerel ??_GArgumentException@Internal@Core@Math@Palmtree@@UEAAPEAXI@Z
	DD	0ffffffffH
xdata	ENDS
;	COMDAT xdata
xdata	SEGMENT
$stateUnwindMap$??_GArgumentException@Internal@Core@Math@Palmtree@@UEAAPEAXI@Z DD 0ffffffffH
	DD	imagerel ?dtor$0@?0???_GArgumentException@Internal@Core@Math@Palmtree@@UEAAPEAXI@Z@4HA
	DD	0ffffffffH
	DD	imagerel ?dtor$1@?0???_GArgumentException@Internal@Core@Math@Palmtree@@UEAAPEAXI@Z@4HA
xdata	ENDS
;	COMDAT CONST
CONST	SEGMENT
$cppxdata$??_GArgumentException@Internal@Core@Math@Palmtree@@UEAAPEAXI@Z DD 019930522H
	DD	02H
	DD	imagerel $stateUnwindMap$??_GArgumentException@Internal@Core@Math@Palmtree@@UEAAPEAXI@Z
	DD	00H
	DD	00H
	DD	01H
	DD	imagerel $ip2state$??_GArgumentException@Internal@Core@Math@Palmtree@@UEAAPEAXI@Z
	DD	020H
	DD	00H
	DD	04H
CONST	ENDS
;	COMDAT xdata
xdata	SEGMENT
$unwind$??_GArgumentException@Internal@Core@Math@Palmtree@@UEAAPEAXI@Z DD 041819H
	DD	093418H
	DD	07006520aH
	DD	imagerel __CxxFrameHandler3
	DD	imagerel $cppxdata$??_GArgumentException@Internal@Core@Math@Palmtree@@UEAAPEAXI@Z
xdata	ENDS
;	COMDAT xdata
xdata	SEGMENT
$ip2state$??1ArgumentException@Internal@Core@Math@Palmtree@@UEAA@XZ DD imagerel ??1ArgumentException@Internal@Core@Math@Palmtree@@UEAA@XZ
	DD	0ffffffffH
xdata	ENDS
;	COMDAT xdata
xdata	SEGMENT
$stateUnwindMap$??1ArgumentException@Internal@Core@Math@Palmtree@@UEAA@XZ DD 0ffffffffH
	DD	imagerel ?dtor$0@?0???1ArgumentException@Internal@Core@Math@Palmtree@@UEAA@XZ@4HA
	DD	0ffffffffH
	DD	imagerel ?dtor$1@?0???1ArgumentException@Internal@Core@Math@Palmtree@@UEAA@XZ@4HA
xdata	ENDS
;	COMDAT CONST
CONST	SEGMENT
$cppxdata$??1ArgumentException@Internal@Core@Math@Palmtree@@UEAA@XZ DD 019930522H
	DD	02H
	DD	imagerel $stateUnwindMap$??1ArgumentException@Internal@Core@Math@Palmtree@@UEAA@XZ
	DD	00H
	DD	00H
	DD	01H
	DD	imagerel $ip2state$??1ArgumentException@Internal@Core@Math@Palmtree@@UEAA@XZ
	DD	020H
	DD	00H
	DD	04H
CONST	ENDS
;	COMDAT xdata
xdata	SEGMENT
$unwind$??1ArgumentException@Internal@Core@Math@Palmtree@@UEAA@XZ DD 011219H
	DD	06209H
	DD	imagerel __CxxFrameHandler3
	DD	imagerel $cppxdata$??1ArgumentException@Internal@Core@Math@Palmtree@@UEAA@XZ
xdata	ENDS
;	COMDAT xdata
xdata	SEGMENT
$ip2state$??0ArgumentException@Internal@Core@Math@Palmtree@@QEAA@AEBV01234@@Z DD imagerel ??0ArgumentException@Internal@Core@Math@Palmtree@@QEAA@AEBV01234@@Z
	DD	0ffffffffH
	DD	imagerel ??0ArgumentException@Internal@Core@Math@Palmtree@@QEAA@AEBV01234@@Z+37
	DD	00H
	DD	imagerel ??0ArgumentException@Internal@Core@Math@Palmtree@@QEAA@AEBV01234@@Z+69
	DD	01H
	DD	imagerel ??0ArgumentException@Internal@Core@Math@Palmtree@@QEAA@AEBV01234@@Z+79
	DD	0ffffffffH
xdata	ENDS
;	COMDAT xdata
xdata	SEGMENT
$stateUnwindMap$??0ArgumentException@Internal@Core@Math@Palmtree@@QEAA@AEBV01234@@Z DD 0ffffffffH
	DD	imagerel ?dtor$1@?0???0ArgumentException@Internal@Core@Math@Palmtree@@QEAA@AEBV01234@@Z@4HA
	DD	0ffffffffH
	DD	imagerel ?dtor$0@?0???0ArgumentException@Internal@Core@Math@Palmtree@@QEAA@AEBV01234@@Z@4HA
xdata	ENDS
;	COMDAT CONST
CONST	SEGMENT
$cppxdata$??0ArgumentException@Internal@Core@Math@Palmtree@@QEAA@AEBV01234@@Z DD 019930522H
	DD	02H
	DD	imagerel $stateUnwindMap$??0ArgumentException@Internal@Core@Math@Palmtree@@QEAA@AEBV01234@@Z
	DD	00H
	DD	00H
	DD	04H
	DD	imagerel $ip2state$??0ArgumentException@Internal@Core@Math@Palmtree@@QEAA@AEBV01234@@Z
	DD	00H
	DD	00H
	DD	04H
CONST	ENDS
;	COMDAT xdata
xdata	SEGMENT
$unwind$??0ArgumentException@Internal@Core@Math@Palmtree@@QEAA@AEBV01234@@Z DD 011111H
	DD	02209H
	DD	imagerel __CxxFrameHandler3
	DD	imagerel $cppxdata$??0ArgumentException@Internal@Core@Math@Palmtree@@QEAA@AEBV01234@@Z
xdata	ENDS
;	COMDAT xdata
xdata	SEGMENT
$ip2state$??0ArgumentException@Internal@Core@Math@Palmtree@@QEAA@PEB_W@Z DD imagerel ??0ArgumentException@Internal@Core@Math@Palmtree@@QEAA@PEB_W@Z
	DD	0ffffffffH
	DD	imagerel ??0ArgumentException@Internal@Core@Math@Palmtree@@QEAA@PEB_W@Z+37
	DD	00H
	DD	imagerel ??0ArgumentException@Internal@Core@Math@Palmtree@@QEAA@PEB_W@Z+66
	DD	01H
	DD	imagerel ??0ArgumentException@Internal@Core@Math@Palmtree@@QEAA@PEB_W@Z+76
	DD	0ffffffffH
xdata	ENDS
;	COMDAT xdata
xdata	SEGMENT
$stateUnwindMap$??0ArgumentException@Internal@Core@Math@Palmtree@@QEAA@PEB_W@Z DD 0ffffffffH
	DD	imagerel ?dtor$1@?0???0ArgumentException@Internal@Core@Math@Palmtree@@QEAA@PEB_W@Z@4HA
	DD	0ffffffffH
	DD	imagerel ?dtor$0@?0???0ArgumentException@Internal@Core@Math@Palmtree@@QEAA@PEB_W@Z@4HA
xdata	ENDS
;	COMDAT CONST
CONST	SEGMENT
$cppxdata$??0ArgumentException@Internal@Core@Math@Palmtree@@QEAA@PEB_W@Z DD 019930522H
	DD	02H
	DD	imagerel $stateUnwindMap$??0ArgumentException@Internal@Core@Math@Palmtree@@QEAA@PEB_W@Z
	DD	00H
	DD	00H
	DD	04H
	DD	imagerel $ip2state$??0ArgumentException@Internal@Core@Math@Palmtree@@QEAA@PEB_W@Z
	DD	00H
	DD	00H
	DD	04H
CONST	ENDS
;	COMDAT xdata
xdata	SEGMENT
$unwind$??0ArgumentException@Internal@Core@Math@Palmtree@@QEAA@PEB_W@Z DD 011111H
	DD	02209H
	DD	imagerel __CxxFrameHandler3
	DD	imagerel $cppxdata$??0ArgumentException@Internal@Core@Math@Palmtree@@QEAA@PEB_W@Z
xdata	ENDS
;	COMDAT xdata
xdata	SEGMENT
$ip2state$??_GException@Internal@Core@Math@Palmtree@@UEAAPEAXI@Z DD imagerel ??_GException@Internal@Core@Math@Palmtree@@UEAAPEAXI@Z
	DD	0ffffffffH
xdata	ENDS
;	COMDAT xdata
xdata	SEGMENT
$stateUnwindMap$??_GException@Internal@Core@Math@Palmtree@@UEAAPEAXI@Z DD 0ffffffffH
	DD	imagerel ?dtor$0@?0???_GException@Internal@Core@Math@Palmtree@@UEAAPEAXI@Z@4HA
xdata	ENDS
;	COMDAT CONST
CONST	SEGMENT
$cppxdata$??_GException@Internal@Core@Math@Palmtree@@UEAAPEAXI@Z DD 019930522H
	DD	01H
	DD	imagerel $stateUnwindMap$??_GException@Internal@Core@Math@Palmtree@@UEAAPEAXI@Z
	DD	00H
	DD	00H
	DD	01H
	DD	imagerel $ip2state$??_GException@Internal@Core@Math@Palmtree@@UEAAPEAXI@Z
	DD	020H
	DD	00H
	DD	04H
CONST	ENDS
;	COMDAT xdata
xdata	SEGMENT
$unwind$??_GException@Internal@Core@Math@Palmtree@@UEAAPEAXI@Z DD 041819H
	DD	093418H
	DD	07006520aH
	DD	imagerel __CxxFrameHandler3
	DD	imagerel $cppxdata$??_GException@Internal@Core@Math@Palmtree@@UEAAPEAXI@Z
xdata	ENDS
;	COMDAT xdata
xdata	SEGMENT
$ip2state$??1Exception@Internal@Core@Math@Palmtree@@UEAA@XZ DD imagerel ??1Exception@Internal@Core@Math@Palmtree@@UEAA@XZ
	DD	0ffffffffH
xdata	ENDS
;	COMDAT xdata
xdata	SEGMENT
$stateUnwindMap$??1Exception@Internal@Core@Math@Palmtree@@UEAA@XZ DD 0ffffffffH
	DD	imagerel ?dtor$0@?0???1Exception@Internal@Core@Math@Palmtree@@UEAA@XZ@4HA
xdata	ENDS
;	COMDAT CONST
CONST	SEGMENT
$cppxdata$??1Exception@Internal@Core@Math@Palmtree@@UEAA@XZ DD 019930522H
	DD	01H
	DD	imagerel $stateUnwindMap$??1Exception@Internal@Core@Math@Palmtree@@UEAA@XZ
	DD	00H
	DD	00H
	DD	01H
	DD	imagerel $ip2state$??1Exception@Internal@Core@Math@Palmtree@@UEAA@XZ
	DD	020H
	DD	00H
	DD	04H
CONST	ENDS
;	COMDAT xdata
xdata	SEGMENT
$unwind$??1Exception@Internal@Core@Math@Palmtree@@UEAA@XZ DD 011219H
	DD	06209H
	DD	imagerel __CxxFrameHandler3
	DD	imagerel $cppxdata$??1Exception@Internal@Core@Math@Palmtree@@UEAA@XZ
xdata	ENDS
;	COMDAT xdata
xdata	SEGMENT
$ip2state$??0Exception@Internal@Core@Math@Palmtree@@QEAA@AEBV01234@@Z DD imagerel ??0Exception@Internal@Core@Math@Palmtree@@QEAA@AEBV01234@@Z
	DD	0ffffffffH
	DD	imagerel ??0Exception@Internal@Core@Math@Palmtree@@QEAA@AEBV01234@@Z+37
	DD	00H
	DD	imagerel ??0Exception@Internal@Core@Math@Palmtree@@QEAA@AEBV01234@@Z+69
	DD	0ffffffffH
xdata	ENDS
;	COMDAT xdata
xdata	SEGMENT
$stateUnwindMap$??0Exception@Internal@Core@Math@Palmtree@@QEAA@AEBV01234@@Z DD 0ffffffffH
	DD	imagerel ?dtor$0@?0???0Exception@Internal@Core@Math@Palmtree@@QEAA@AEBV01234@@Z@4HA
xdata	ENDS
;	COMDAT CONST
CONST	SEGMENT
$cppxdata$??0Exception@Internal@Core@Math@Palmtree@@QEAA@AEBV01234@@Z DD 019930522H
	DD	01H
	DD	imagerel $stateUnwindMap$??0Exception@Internal@Core@Math@Palmtree@@QEAA@AEBV01234@@Z
	DD	00H
	DD	00H
	DD	03H
	DD	imagerel $ip2state$??0Exception@Internal@Core@Math@Palmtree@@QEAA@AEBV01234@@Z
	DD	00H
	DD	00H
	DD	04H
CONST	ENDS
;	COMDAT xdata
xdata	SEGMENT
$unwind$??0Exception@Internal@Core@Math@Palmtree@@QEAA@AEBV01234@@Z DD 011111H
	DD	02209H
	DD	imagerel __CxxFrameHandler3
	DD	imagerel $cppxdata$??0Exception@Internal@Core@Math@Palmtree@@QEAA@AEBV01234@@Z
xdata	ENDS
;	COMDAT xdata
xdata	SEGMENT
$ip2state$??0Exception@Internal@Core@Math@Palmtree@@IEAA@HPEB_W0@Z DD imagerel ??0Exception@Internal@Core@Math@Palmtree@@IEAA@HPEB_W0@Z
	DD	0ffffffffH
	DD	imagerel ??0Exception@Internal@Core@Math@Palmtree@@IEAA@HPEB_W0@Z+37
	DD	00H
	DD	imagerel ??0Exception@Internal@Core@Math@Palmtree@@IEAA@HPEB_W0@Z+58
	DD	0ffffffffH
xdata	ENDS
;	COMDAT xdata
xdata	SEGMENT
$stateUnwindMap$??0Exception@Internal@Core@Math@Palmtree@@IEAA@HPEB_W0@Z DD 0ffffffffH
	DD	imagerel ?dtor$0@?0???0Exception@Internal@Core@Math@Palmtree@@IEAA@HPEB_W0@Z@4HA
xdata	ENDS
;	COMDAT CONST
CONST	SEGMENT
$cppxdata$??0Exception@Internal@Core@Math@Palmtree@@IEAA@HPEB_W0@Z DD 019930522H
	DD	01H
	DD	imagerel $stateUnwindMap$??0Exception@Internal@Core@Math@Palmtree@@IEAA@HPEB_W0@Z
	DD	00H
	DD	00H
	DD	03H
	DD	imagerel $ip2state$??0Exception@Internal@Core@Math@Palmtree@@IEAA@HPEB_W0@Z
	DD	00H
	DD	00H
	DD	04H
CONST	ENDS
;	COMDAT xdata
xdata	SEGMENT
$unwind$??0Exception@Internal@Core@Math@Palmtree@@IEAA@HPEB_W0@Z DD 011111H
	DD	02209H
	DD	imagerel __CxxFrameHandler3
	DD	imagerel $cppxdata$??0Exception@Internal@Core@Math@Palmtree@@IEAA@HPEB_W0@Z
xdata	ENDS
;	COMDAT xdata
xdata	SEGMENT
$ip2state$??0Exception@Internal@Core@Math@Palmtree@@IEAA@HPEB_W@Z DD imagerel ??0Exception@Internal@Core@Math@Palmtree@@IEAA@HPEB_W@Z
	DD	0ffffffffH
	DD	imagerel ??0Exception@Internal@Core@Math@Palmtree@@IEAA@HPEB_W@Z+37
	DD	00H
	DD	imagerel ??0Exception@Internal@Core@Math@Palmtree@@IEAA@HPEB_W@Z+62
	DD	0ffffffffH
xdata	ENDS
;	COMDAT xdata
xdata	SEGMENT
$stateUnwindMap$??0Exception@Internal@Core@Math@Palmtree@@IEAA@HPEB_W@Z DD 0ffffffffH
	DD	imagerel ?dtor$0@?0???0Exception@Internal@Core@Math@Palmtree@@IEAA@HPEB_W@Z@4HA
xdata	ENDS
;	COMDAT CONST
CONST	SEGMENT
$cppxdata$??0Exception@Internal@Core@Math@Palmtree@@IEAA@HPEB_W@Z DD 019930522H
	DD	01H
	DD	imagerel $stateUnwindMap$??0Exception@Internal@Core@Math@Palmtree@@IEAA@HPEB_W@Z
	DD	00H
	DD	00H
	DD	03H
	DD	imagerel $ip2state$??0Exception@Internal@Core@Math@Palmtree@@IEAA@HPEB_W@Z
	DD	00H
	DD	00H
	DD	04H
CONST	ENDS
;	COMDAT xdata
xdata	SEGMENT
$unwind$??0Exception@Internal@Core@Math@Palmtree@@IEAA@HPEB_W@Z DD 011111H
	DD	02209H
	DD	imagerel __CxxFrameHandler3
	DD	imagerel $cppxdata$??0Exception@Internal@Core@Math@Palmtree@@IEAA@HPEB_W@Z
xdata	ENDS
;	COMDAT xdata
xdata	SEGMENT
$ip2state$??_Gexception@std@@UEAAPEAXI@Z DD imagerel ??_Gexception@std@@UEAAPEAXI@Z
	DD	0ffffffffH
xdata	ENDS
;	COMDAT CONST
CONST	SEGMENT
$cppxdata$??_Gexception@std@@UEAAPEAXI@Z DD 019930522H
	DD	00H
	DD	00H
	DD	00H
	DD	00H
	DD	01H
	DD	imagerel $ip2state$??_Gexception@std@@UEAAPEAXI@Z
	DD	020H
	DD	00H
	DD	04H
CONST	ENDS
;	COMDAT xdata
xdata	SEGMENT
$unwind$??_Gexception@std@@UEAAPEAXI@Z DD 041419H
	DD	083414H
	DD	070025206H
	DD	imagerel __CxxFrameHandler3
	DD	imagerel $cppxdata$??_Gexception@std@@UEAAPEAXI@Z
xdata	ENDS
;	COMDAT xdata
xdata	SEGMENT
$ip2state$??1exception@std@@UEAA@XZ DD imagerel ??1exception@std@@UEAA@XZ
	DD	0ffffffffH
xdata	ENDS
;	COMDAT CONST
CONST	SEGMENT
$cppxdata$??1exception@std@@UEAA@XZ DD 019930522H
	DD	00H
	DD	00H
	DD	00H
	DD	00H
	DD	01H
	DD	imagerel $ip2state$??1exception@std@@UEAA@XZ
	DD	020H
	DD	00H
	DD	04H
CONST	ENDS
;	COMDAT xdata
xdata	SEGMENT
$unwind$??1exception@std@@UEAA@XZ DD 010d19H
	DD	06204H
	DD	imagerel __CxxFrameHandler3
	DD	imagerel $cppxdata$??1exception@std@@UEAA@XZ
xdata	ENDS
; Function compile flags: /Ogtpy
; File z:\sources\lunor\repos\rougemeilland\palmtree.math.core.uint\palmtree.math.core.uint\pmc_parse.cpp
;	COMDAT ?PMC_TryParse_Imp@Internal@Core@Math@Palmtree@@YAHPEB_WHPEBU__tag_PMC_NUMBER_FORMAT_INFO@1234@PEADPEAPEAU__tag_NUMBER_HEADER@1234@PEAI@Z
_TEXT	SEGMENT
root$ = 56
$T1 = 88
source$ = 176
number_styles$ = 184
format_option$ = 192
o_sign$ = 200
o_abs$ = 208
result$ = 216
?PMC_TryParse_Imp@Internal@Core@Math@Palmtree@@YAHPEB_WHPEBU__tag_PMC_NUMBER_FORMAT_INFO@1234@PEADPEAPEAU__tag_NUMBER_HEADER@1234@PEAI@Z PROC ; Palmtree::Math::Core::Internal::PMC_TryParse_Imp, COMDAT

; 1271 :     {

  00000	48 8b c4	 mov	 rax, rsp
  00003	57		 push	 rdi
  00004	41 56		 push	 r14
  00006	41 57		 push	 r15
  00008	48 81 ec 90 00
	00 00		 sub	 rsp, 144		; 00000090H
  0000f	48 c7 40 88 fe
	ff ff ff	 mov	 QWORD PTR [rax-120], -2
  00017	48 89 58 08	 mov	 QWORD PTR [rax+8], rbx
  0001b	48 89 68 10	 mov	 QWORD PTR [rax+16], rbp
  0001f	48 89 70 18	 mov	 QWORD PTR [rax+24], rsi
  00023	49 8b e9	 mov	 rbp, r9
  00026	4d 8b f0	 mov	 r14, r8
  00029	8b f2		 mov	 esi, edx
  0002b	4c 8b f9	 mov	 r15, rcx

; 1272 :         ResourceHolderUINT root;

  0002e	48 8d 48 90	 lea	 rcx, QWORD PTR [rax-112]
  00032	e8 00 00 00 00	 call	 ??0ResourceHolderUINT@Internal@Core@Math@Palmtree@@QEAA@XZ ; Palmtree::Math::Core::Internal::ResourceHolderUINT::ResourceHolderUINT
  00037	90		 npad	 1

; 1273 :         if (number_styles & PMC_NUMBER_STYLE_ALLOW_HEX_SPECIFIER)

  00038	0f ba e6 09	 bt	 esi, 9
  0003c	73 69		 jae	 SHORT $LN2@PMC_TryPar

; 1274 :         {
; 1275 :             // 16
; 1276 : 
; 1277 :             // 
; 1278 :             _UINT32_T mask = PMC_NUMBER_STYLE_ALLOW_HEX_SPECIFIER | PMC_NUMBER_STYLE_ALLOW_LEADING_WHITE | PMC_NUMBER_STYLE_ALLOW_TRAILING_WHITE | PMC_NUMBER_STYLE_ALLOW_EXCEPTION_THROWING | PMC_NUMBER_STYLE_ALLOW_SIGNED_INTEGER;
; 1279 : 
; 1280 :             // 
; 1281 :             if (number_styles & ~mask)

  0003e	f7 c6 fc fd ff
	fc		 test	 esi, -50332164		; fcfffdfcH
  00044	0f 85 bf 00 00
	00		 jne	 $LN14@PMC_TryPar

; 1283 : 
; 1284 :             PMC_STATUS_CODE err = TryParseX(source, number_styles, format_option, o_sign, o_abs, result);

  0004a	48 8b 9c 24 d8
	00 00 00	 mov	 rbx, QWORD PTR result$[rsp]
  00052	48 89 5c 24 28	 mov	 QWORD PTR [rsp+40], rbx
  00057	48 8b bc 24 d0
	00 00 00	 mov	 rdi, QWORD PTR o_abs$[rsp]
  0005f	48 89 7c 24 20	 mov	 QWORD PTR [rsp+32], rdi
  00064	4c 8b cd	 mov	 r9, rbp
  00067	4d 8b c6	 mov	 r8, r14
  0006a	8b d6		 mov	 edx, esi
  0006c	49 8b cf	 mov	 rcx, r15
  0006f	e8 00 00 00 00	 call	 ?TryParseX@Internal@Core@Math@Palmtree@@YAHPEB_WIPEBU__tag_PMC_NUMBER_FORMAT_INFO@1234@PEADPEAPEAU__tag_NUMBER_HEADER@1234@PEAI@Z ; Palmtree::Math::Core::Internal::TryParseX
  00074	8b f0		 mov	 esi, eax

; 1285 :             if (err != PMC_STATUS_OK || !*result)

  00076	85 c0		 test	 eax, eax
  00078	75 04		 jne	 SHORT $LN8@PMC_TryPar
  0007a	39 03		 cmp	 DWORD PTR [rbx], eax
  0007c	75 5d		 jne	 SHORT $LN12@PMC_TryPar
$LN8@PMC_TryPar:

; 1303 :     }

  0007e	48 8d 4c 24 38	 lea	 rcx, QWORD PTR root$[rsp]
  00083	e8 00 00 00 00	 call	 ??1ResourceHolderUINT@Internal@Core@Math@Palmtree@@UEAA@XZ ; Palmtree::Math::Core::Internal::ResourceHolderUINT::~ResourceHolderUINT
  00088	8b c6		 mov	 eax, esi
$LN1@PMC_TryPar:
  0008a	4c 8d 9c 24 90
	00 00 00	 lea	 r11, QWORD PTR [rsp+144]
  00092	49 8b 5b 20	 mov	 rbx, QWORD PTR [r11+32]
  00096	49 8b 6b 28	 mov	 rbp, QWORD PTR [r11+40]
  0009a	49 8b 73 30	 mov	 rsi, QWORD PTR [r11+48]
  0009e	49 8b e3	 mov	 rsp, r11
  000a1	41 5f		 pop	 r15
  000a3	41 5e		 pop	 r14
  000a5	5f		 pop	 rdi
  000a6	c3		 ret	 0
$LN2@PMC_TryPar:

; 1286 :                 return (err);
; 1287 :             root.HookNumber(*o_abs);
; 1288 :         }
; 1289 :         else
; 1290 :         {
; 1291 :             // 10
; 1292 :             PMC_STATUS_CODE err = TryParseDN(source, number_styles, format_option, o_sign, o_abs, result);

  000a7	48 8b 9c 24 d8
	00 00 00	 mov	 rbx, QWORD PTR result$[rsp]
  000af	48 89 5c 24 28	 mov	 QWORD PTR [rsp+40], rbx
  000b4	48 8b bc 24 d0
	00 00 00	 mov	 rdi, QWORD PTR o_abs$[rsp]
  000bc	48 89 7c 24 20	 mov	 QWORD PTR [rsp+32], rdi
  000c1	4c 8b cd	 mov	 r9, rbp
  000c4	4d 8b c6	 mov	 r8, r14
  000c7	8b d6		 mov	 edx, esi
  000c9	49 8b cf	 mov	 rcx, r15
  000cc	e8 00 00 00 00	 call	 ?TryParseDN@Internal@Core@Math@Palmtree@@YAHPEB_WIPEBU__tag_PMC_NUMBER_FORMAT_INFO@1234@PEADPEAPEAU__tag_NUMBER_HEADER@1234@PEAI@Z ; Palmtree::Math::Core::Internal::TryParseDN
  000d1	8b f0		 mov	 esi, eax

; 1293 :             if (err != PMC_STATUS_OK || !*result)

  000d3	85 c0		 test	 eax, eax
  000d5	75 a7		 jne	 SHORT $LN8@PMC_TryPar
  000d7	39 03		 cmp	 DWORD PTR [rbx], eax
  000d9	74 a3		 je	 SHORT $LN8@PMC_TryPar
$LN12@PMC_TryPar:

; 1294 :                 return (err);
; 1295 :             root.HookNumber(*o_abs);
; 1296 :         }
; 1297 : #ifdef _DEBUG
; 1298 :         CheckNumber(*o_abs);
; 1299 : #endif
; 1300 :         root.UnlinkNumber(*o_abs);

  000db	48 8b 17	 mov	 rdx, QWORD PTR [rdi]
  000de	48 8d 4c 24 38	 lea	 rcx, QWORD PTR root$[rsp]
  000e3	e8 00 00 00 00	 call	 ?HookNumber@ResourceHolderUINT@Internal@Core@Math@Palmtree@@QEAAXPEAU__tag_NUMBER_HEADER@2345@@Z ; Palmtree::Math::Core::Internal::ResourceHolderUINT::HookNumber
  000e8	48 8b 17	 mov	 rdx, QWORD PTR [rdi]
  000eb	48 8d 4c 24 38	 lea	 rcx, QWORD PTR root$[rsp]
  000f0	e8 00 00 00 00	 call	 ?UnlinkNumber@ResourceHolderUINT@Internal@Core@Math@Palmtree@@QEAAXPEAU__tag_NUMBER_HEADER@2345@@Z ; Palmtree::Math::Core::Internal::ResourceHolderUINT::UnlinkNumber

; 1301 :         *result = 1;

  000f5	c7 03 01 00 00
	00		 mov	 DWORD PTR [rbx], 1

; 1302 :         return (PMC_STATUS_OK);

  000fb	48 8d 4c 24 38	 lea	 rcx, QWORD PTR root$[rsp]
  00100	e8 00 00 00 00	 call	 ??1ResourceHolderUINT@Internal@Core@Math@Palmtree@@UEAA@XZ ; Palmtree::Math::Core::Internal::ResourceHolderUINT::~ResourceHolderUINT
  00105	33 c0		 xor	 eax, eax
  00107	eb 81		 jmp	 SHORT $LN1@PMC_TryPar
$LN14@PMC_TryPar:

; 1282 :                 throw ArgumentException(L"number_styles");

  00109	48 8d 15 00 00
	00 00		 lea	 rdx, OFFSET FLAT:??_C@_1FG@MPGAEBOC@?$AA?$BF?$AAp?$AAn?$AAu?$AAm?$AAb?$AAe?$AAr?$AA_?$AAs?$AAt?$AAy?$AAl?$AAe?$AAs@
  00110	48 8d 4c 24 58	 lea	 rcx, QWORD PTR $T1[rsp]
  00115	e8 00 00 00 00	 call	 ??0ArgumentException@Internal@Core@Math@Palmtree@@QEAA@PEB_W@Z ; Palmtree::Math::Core::Internal::ArgumentException::ArgumentException
  0011a	48 8d 15 00 00
	00 00		 lea	 rdx, OFFSET FLAT:_TI2?AVArgumentException@Internal@Core@Math@Palmtree@@
  00121	48 8d 4c 24 58	 lea	 rcx, QWORD PTR $T1[rsp]
  00126	e8 00 00 00 00	 call	 _CxxThrowException
  0012b	cc		 int	 3
$LN11@PMC_TryPar:
?PMC_TryParse_Imp@Internal@Core@Math@Palmtree@@YAHPEB_WHPEBU__tag_PMC_NUMBER_FORMAT_INFO@1234@PEADPEAPEAU__tag_NUMBER_HEADER@1234@PEAI@Z ENDP ; Palmtree::Math::Core::Internal::PMC_TryParse_Imp
_TEXT	ENDS
;	COMDAT text$x
text$x	SEGMENT
root$ = 56
$T1 = 88
source$ = 176
number_styles$ = 184
format_option$ = 192
o_sign$ = 200
o_abs$ = 208
result$ = 216
?dtor$0@?0??PMC_TryParse_Imp@Internal@Core@Math@Palmtree@@YAHPEB_WHPEBU__tag_PMC_NUMBER_FORMAT_INFO@1234@PEADPEAPEAU__tag_NUMBER_HEADER@1234@PEAI@Z@4HA PROC ; `Palmtree::Math::Core::Internal::PMC_TryParse_Imp'::`1'::dtor$0
  00000	48 8d 8a 38 00
	00 00		 lea	 rcx, QWORD PTR root$[rdx]
  00007	e9 00 00 00 00	 jmp	 ??1ResourceHolderUINT@Internal@Core@Math@Palmtree@@UEAA@XZ ; Palmtree::Math::Core::Internal::ResourceHolderUINT::~ResourceHolderUINT
?dtor$0@?0??PMC_TryParse_Imp@Internal@Core@Math@Palmtree@@YAHPEB_WHPEBU__tag_PMC_NUMBER_FORMAT_INFO@1234@PEADPEAPEAU__tag_NUMBER_HEADER@1234@PEAI@Z@4HA ENDP ; `Palmtree::Math::Core::Internal::PMC_TryParse_Imp'::`1'::dtor$0
text$x	ENDS
; Function compile flags: /Ogtpy
;	COMDAT text$x
text$x	SEGMENT
root$ = 56
$T1 = 88
source$ = 176
number_styles$ = 184
format_option$ = 192
o_sign$ = 200
o_abs$ = 208
result$ = 216
?dtor$0@?0??PMC_TryParse_Imp@Internal@Core@Math@Palmtree@@YAHPEB_WHPEBU__tag_PMC_NUMBER_FORMAT_INFO@1234@PEADPEAPEAU__tag_NUMBER_HEADER@1234@PEAI@Z@4HA PROC ; `Palmtree::Math::Core::Internal::PMC_TryParse_Imp'::`1'::dtor$0
  00000	48 8d 8a 38 00
	00 00		 lea	 rcx, QWORD PTR root$[rdx]
  00007	e9 00 00 00 00	 jmp	 ??1ResourceHolderUINT@Internal@Core@Math@Palmtree@@UEAA@XZ ; Palmtree::Math::Core::Internal::ResourceHolderUINT::~ResourceHolderUINT
?dtor$0@?0??PMC_TryParse_Imp@Internal@Core@Math@Palmtree@@YAHPEB_WHPEBU__tag_PMC_NUMBER_FORMAT_INFO@1234@PEADPEAPEAU__tag_NUMBER_HEADER@1234@PEAI@Z@4HA ENDP ; `Palmtree::Math::Core::Internal::PMC_TryParse_Imp'::`1'::dtor$0
text$x	ENDS
; Function compile flags: /Ogtpy
; File z:\sources\lunor\repos\rougemeilland\palmtree.math.core.uint\palmtree.math.core.uint\pmc_parse.cpp
; File z:\sources\lunor\repos\rougemeilland\palmtree.math.core.uint\palmtree.math.core.uint\pmc_stringio.h
; File z:\sources\lunor\repos\rougemeilland\palmtree.math.core.uint\palmtree.math.core.uint\pmc_parse.cpp
; File z:\sources\lunor\repos\rougemeilland\palmtree.math.core.uint\palmtree.math.core.uint\pmc_stringio.h
; File z:\sources\lunor\repos\rougemeilland\palmtree.math.core.uint\palmtree.math.core.uint\pmc_parse.cpp
; File z:\sources\lunor\repos\rougemeilland\palmtree.math.core.uint\palmtree.math.core.uint\pmc_inline_func.h
; File z:\sources\lunor\repos\rougemeilland\palmtree.math.core.uint\palmtree.math.core.uint\pmc_parse.cpp
;	COMDAT ?TryParseX@Internal@Core@Math@Palmtree@@YAHPEB_WIPEBU__tag_PMC_NUMBER_FORMAT_INFO@1234@PEADPEAPEAU__tag_NUMBER_HEADER@1234@PEAI@Z
_TEXT	SEGMENT
dummy_sign$1 = 80
o_sign$GSCopy$1$ = 88
result$GSCopy$1$ = 96
root$ = 104
$T2 = 136
state$3 = 144
__$ArrayPad$ = 464
source$ = 544
number_styles$ = 552
format_option$ = 560
o_sign$ = 568
o_abs$ = 576
result$ = 584
?TryParseX@Internal@Core@Math@Palmtree@@YAHPEB_WIPEBU__tag_PMC_NUMBER_FORMAT_INFO@1234@PEADPEAPEAU__tag_NUMBER_HEADER@1234@PEAI@Z PROC ; Palmtree::Math::Core::Internal::TryParseX, COMDAT

; 1190 :     {

  00000	40 55		 push	 rbp
  00002	56		 push	 rsi
  00003	57		 push	 rdi
  00004	41 54		 push	 r12
  00006	41 55		 push	 r13
  00008	41 56		 push	 r14
  0000a	41 57		 push	 r15
  0000c	48 8d ac 24 20
	ff ff ff	 lea	 rbp, QWORD PTR [rsp-224]
  00014	48 81 ec e0 01
	00 00		 sub	 rsp, 480		; 000001e0H
  0001b	48 c7 45 88 fe
	ff ff ff	 mov	 QWORD PTR $T2[rbp-256], -2
  00023	48 89 9c 24 28
	02 00 00	 mov	 QWORD PTR [rsp+552], rbx
  0002b	48 8b 05 00 00
	00 00		 mov	 rax, QWORD PTR __security_cookie
  00032	48 33 c4	 xor	 rax, rsp
  00035	48 89 85 d0 00
	00 00		 mov	 QWORD PTR __$ArrayPad$[rbp-256], rax
  0003c	4c 89 4c 24 58	 mov	 QWORD PTR o_sign$GSCopy$1$[rsp], r9
  00041	49 8b f0	 mov	 rsi, r8
  00044	44 8b fa	 mov	 r15d, edx
  00047	48 8b f9	 mov	 rdi, rcx
  0004a	4c 8b b5 40 01
	00 00		 mov	 r14, QWORD PTR o_abs$[rbp-256]
  00051	48 8b 85 48 01
	00 00		 mov	 rax, QWORD PTR result$[rbp-256]
  00058	48 89 44 24 60	 mov	 QWORD PTR result$GSCopy$1$[rsp], rax

; 1191 :         ResourceHolderUINT root;

  0005d	48 8d 4c 24 68	 lea	 rcx, QWORD PTR root$[rsp]
  00062	e8 00 00 00 00	 call	 ??0ResourceHolderUINT@Internal@Core@Math@Palmtree@@QEAA@XZ ; Palmtree::Math::Core::Internal::ResourceHolderUINT::ResourceHolderUINT
  00067	90		 npad	 1

; 1192 :         __UNIT_TYPE source_len = lstrlenW(source);

  00068	48 8b cf	 mov	 rcx, rdi
  0006b	ff 15 00 00 00
	00		 call	 QWORD PTR __imp_lstrlenW
  00071	48 63 d8	 movsxd	 rbx, eax

; 1193 :         size_t int_part_buf_size = source_len + 1;

  00074	48 ff c3	 inc	 rbx

; 1194 :         wchar_t* int_part_buf = root.AllocateString(source_len + 1);

  00077	48 8b d3	 mov	 rdx, rbx
  0007a	48 8d 4c 24 68	 lea	 rcx, QWORD PTR root$[rsp]
  0007f	e8 00 00 00 00	 call	 ?AllocateString@ResourceHolderUINT@Internal@Core@Math@Palmtree@@QEAAPEA_W_K@Z ; Palmtree::Math::Core::Internal::ResourceHolderUINT::AllocateString
  00084	4c 8b e8	 mov	 r13, rax

; 1185 :         ParserState state(in_ptr, number_styles, format_option, &dummy_sign, int_part_buf, int_part_buf_size, nullptr, 0);

  00087	45 33 e4	 xor	 r12d, r12d
  0008a	4c 89 64 24 40	 mov	 QWORD PTR [rsp+64], r12
  0008f	4c 89 64 24 38	 mov	 QWORD PTR [rsp+56], r12
  00094	48 89 5c 24 30	 mov	 QWORD PTR [rsp+48], rbx
  00099	48 89 44 24 28	 mov	 QWORD PTR [rsp+40], rax
  0009e	48 8d 44 24 50	 lea	 rax, QWORD PTR dummy_sign$1[rsp]
  000a3	48 89 44 24 20	 mov	 QWORD PTR [rsp+32], rax
  000a8	4c 8b ce	 mov	 r9, rsi
  000ab	45 8b c7	 mov	 r8d, r15d
  000ae	48 8b d7	 mov	 rdx, rdi
  000b1	48 8d 4d 90	 lea	 rcx, QWORD PTR state$3[rbp-256]
  000b5	e8 00 00 00 00	 call	 ??0ParserState@Internal@Core@Math@Palmtree@@QEAA@PEB_WIPEBU__tag_PMC_NUMBER_FORMAT_INFO@1234@PEADPEA_W_K34@Z ; Palmtree::Math::Core::Internal::ParserState::ParserState

; 480  :             if (_number_styles & PMC_NUMBER_STYLE_ALLOW_LEADING_WHITE)

  000ba	f6 45 f0 01	 test	 BYTE PTR state$3[rbp-160], 1
  000be	74 39		 je	 SHORT $LN56@TryParseX
; File z:\sources\lunor\repos\rougemeilland\palmtree.math.core.uint\palmtree.math.core.uint\pmc_stringio.h

; 92   :                 switch (PeekChar())

  000c0	48 8d 4d 90	 lea	 rcx, QWORD PTR state$3[rbp-256]
  000c4	48 8b 45 90	 mov	 rax, QWORD PTR state$3[rbp-256]
  000c8	ff 10		 call	 QWORD PTR [rax]
  000ca	0f b7 c0	 movzx	 eax, ax
  000cd	83 f8 09	 cmp	 eax, 9
  000d0	72 27		 jb	 SHORT $LN56@TryParseX
$LL27@TryParseX:
  000d2	83 f8 0d	 cmp	 eax, 13
  000d5	76 05		 jbe	 SHORT $LN32@TryParseX
  000d7	83 f8 20	 cmp	 eax, 32			; 00000020H
  000da	75 1d		 jne	 SHORT $LN56@TryParseX
$LN32@TryParseX:

; 93   :                 {
; 94   :                 case L' ':
; 95   :                 case L'\t':
; 96   :                 case L'\n':
; 97   :                 case L'\r':
; 98   :                 case L'\f':
; 99   :                 case L'\v':
; 100  :                     break;
; 101  :                 default:
; 102  :                     return;
; 103  :                 }
; 104  :                 Progress();

  000dc	48 8d 4d 90	 lea	 rcx, QWORD PTR state$3[rbp-256]
  000e0	48 8b 45 90	 mov	 rax, QWORD PTR state$3[rbp-256]
  000e4	ff 50 08	 call	 QWORD PTR [rax+8]

; 92   :                 switch (PeekChar())

  000e7	48 8d 4d 90	 lea	 rcx, QWORD PTR state$3[rbp-256]
  000eb	48 8b 45 90	 mov	 rax, QWORD PTR state$3[rbp-256]
  000ef	ff 10		 call	 QWORD PTR [rax]
  000f1	0f b7 c0	 movzx	 eax, ax
  000f4	83 f8 09	 cmp	 eax, 9
  000f7	73 d9		 jae	 SHORT $LL27@TryParseX
$LN56@TryParseX:
; File z:\sources\lunor\repos\rougemeilland\palmtree.math.core.uint\palmtree.math.core.uint\pmc_parse.cpp

; 482  :             ParseAsIntegerPartNumberSequence();

  000f9	48 8d 4d 90	 lea	 rcx, QWORD PTR state$3[rbp-256]
  000fd	e8 00 00 00 00	 call	 ?ParseAsIntegerPartNumberSequence@ParserState@Internal@Core@Math@Palmtree@@AEAAXXZ ; Palmtree::Math::Core::Internal::ParserState::ParseAsIntegerPartNumberSequence

; 483  :             if (_number_styles & PMC_NUMBER_STYLE_ALLOW_TRAILING_WHITE)

  00102	f6 45 f0 02	 test	 BYTE PTR state$3[rbp-160], 2
  00106	74 3f		 je	 SHORT $LN57@TryParseX
; File z:\sources\lunor\repos\rougemeilland\palmtree.math.core.uint\palmtree.math.core.uint\pmc_stringio.h

; 92   :                 switch (PeekChar())

  00108	48 8d 4d 90	 lea	 rcx, QWORD PTR state$3[rbp-256]
  0010c	48 8b 45 90	 mov	 rax, QWORD PTR state$3[rbp-256]
  00110	ff 10		 call	 QWORD PTR [rax]
  00112	0f b7 c0	 movzx	 eax, ax
  00115	83 f8 09	 cmp	 eax, 9
  00118	72 2d		 jb	 SHORT $LN57@TryParseX
  0011a	66 0f 1f 44 00
	00		 npad	 6
$LL36@TryParseX:
  00120	83 f8 0d	 cmp	 eax, 13
  00123	76 05		 jbe	 SHORT $LN41@TryParseX
  00125	83 f8 20	 cmp	 eax, 32			; 00000020H
  00128	75 1d		 jne	 SHORT $LN57@TryParseX
$LN41@TryParseX:

; 93   :                 {
; 94   :                 case L' ':
; 95   :                 case L'\t':
; 96   :                 case L'\n':
; 97   :                 case L'\r':
; 98   :                 case L'\f':
; 99   :                 case L'\v':
; 100  :                     break;
; 101  :                 default:
; 102  :                     return;
; 103  :                 }
; 104  :                 Progress();

  0012a	48 8d 4d 90	 lea	 rcx, QWORD PTR state$3[rbp-256]
  0012e	48 8b 45 90	 mov	 rax, QWORD PTR state$3[rbp-256]
  00132	ff 50 08	 call	 QWORD PTR [rax+8]

; 92   :                 switch (PeekChar())

  00135	48 8d 4d 90	 lea	 rcx, QWORD PTR state$3[rbp-256]
  00139	48 8b 45 90	 mov	 rax, QWORD PTR state$3[rbp-256]
  0013d	ff 10		 call	 QWORD PTR [rax]
  0013f	0f b7 c0	 movzx	 eax, ax
  00142	83 f8 09	 cmp	 eax, 9
  00145	73 d9		 jae	 SHORT $LL36@TryParseX
$LN57@TryParseX:
; File z:\sources\lunor\repos\rougemeilland\palmtree.math.core.uint\palmtree.math.core.uint\pmc_parse.cpp

; 485  :             if (_source.PeekChar() != L'\0')

  00147	48 8d 4d 90	 lea	 rcx, QWORD PTR state$3[rbp-256]
  0014b	48 8b 45 90	 mov	 rax, QWORD PTR state$3[rbp-256]
  0014f	ff 10		 call	 QWORD PTR [rax]
  00151	41 8b dc	 mov	 ebx, r12d
  00154	66 85 c0	 test	 ax, ax
  00157	0f 94 c3	 sete	 bl

; 1195 :         int result_parsing = ParseAsHexNumberString(source, number_styles, format_option, int_part_buf, int_part_buf_size);
; 1196 :         root.CheckString(int_part_buf);

  0015a	49 8b d5	 mov	 rdx, r13
  0015d	48 8d 4c 24 68	 lea	 rcx, QWORD PTR root$[rsp]
  00162	e8 00 00 00 00	 call	 ?CheckString@ResourceHolderUINT@Internal@Core@Math@Palmtree@@QEAAXPEA_W@Z ; Palmtree::Math::Core::Internal::ResourceHolderUINT::CheckString

; 1197 :         if (!result_parsing || int_part_buf[0] == L'\0')

  00167	85 db		 test	 ebx, ebx
  00169	0f 84 4b 01 00
	00		 je	 $LN5@TryParseX
  0016f	41 0f b7 4d 00	 movzx	 ecx, WORD PTR [r13]
  00174	66 85 c9	 test	 cx, cx
  00177	0f 84 3d 01 00
	00		 je	 $LN5@TryParseX

; 49   :         if (c >= L'0' && c <= L'9')

  0017d	8d 41 d0	 lea	 eax, DWORD PTR [rcx-48]
  00180	be 01 00 00 00	 mov	 esi, 1
  00185	66 83 f8 09	 cmp	 ax, 9
  00189	77 08		 ja	 SHORT $LN47@TryParseX

; 50   :             return (c - L'0');

  0018b	0f b7 c1	 movzx	 eax, cx
  0018e	83 c0 d0	 add	 eax, -48		; ffffffffffffffd0H
  00191	eb 20		 jmp	 SHORT $LN46@TryParseX
$LN47@TryParseX:

; 51   : 
; 52   :         if (c >= L'a' && c <= L'f')

  00193	8d 41 9f	 lea	 eax, DWORD PTR [rcx-97]
  00196	66 83 f8 05	 cmp	 ax, 5
  0019a	77 08		 ja	 SHORT $LN48@TryParseX

; 53   :             return (c - L'a' + 10);

  0019c	0f b7 c1	 movzx	 eax, cx
  0019f	83 c0 a9	 add	 eax, -87		; ffffffffffffffa9H
  001a2	eb 0f		 jmp	 SHORT $LN46@TryParseX
$LN48@TryParseX:

; 54   : 
; 55   :         if (c >= L'A' && c <= L'F')

  001a4	8d 41 bf	 lea	 eax, DWORD PTR [rcx-65]
  001a7	66 83 f8 05	 cmp	 ax, 5
  001ab	77 21		 ja	 SHORT $LN7@TryParseX

; 56   :             return (c - L'A' + 10);

  001ad	0f b7 c1	 movzx	 eax, cx
  001b0	83 c0 c9	 add	 eax, -55		; ffffffffffffffc9H
$LN46@TryParseX:

; 1201 :                 return (PMC_STATUS_FORMAT_ERROR);
; 1202 :             return (PMC_STATUS_OK);
; 1203 :         }
; 1204 : 
; 1205 :         //  1  8F 
; 1206 :         if (ParseHexDigit(int_part_buf[0]) >= 8)

  001b3	83 f8 08	 cmp	 eax, 8
  001b6	7c 16		 jl	 SHORT $LN7@TryParseX

; 1207 :         {
; 1208 :             //  1  8F 
; 1209 :             if (!(number_styles & PMC_NUMBER_STYLE_ALLOW_SIGNED_INTEGER))

  001b8	41 0f ba e7 18	 bt	 r15d, 24
  001bd	b8 ff ff ff ff	 mov	 eax, -1			; ffffffffH
  001c2	0f 43 c6	 cmovae	 eax, esi
  001c5	48 8b 7c 24 58	 mov	 rdi, QWORD PTR o_sign$GSCopy$1$[rsp]
  001ca	88 07		 mov	 BYTE PTR [rdi], al

; 1210 :             {
; 1211 :                 // '8''F'
; 1212 : 
; 1213 :                 // 
; 1214 :                 *o_sign = 1;
; 1215 :             }
; 1216 :             else
; 1217 :             {
; 1218 :                 // '8''F'
; 1219 : 
; 1220 :                 // 
; 1221 :                 *o_sign = -1;
; 1222 :             }
; 1223 :         }
; 1224 :         else

  001cc	eb 08		 jmp	 SHORT $LN8@TryParseX
$LN7@TryParseX:

; 1225 :         {
; 1226 :             //  1  07 
; 1227 :             *o_sign = 1;

  001ce	48 8b 7c 24 58	 mov	 rdi, QWORD PTR o_sign$GSCopy$1$[rsp]
  001d3	40 88 37	 mov	 BYTE PTR [rdi], sil
$LN8@TryParseX:

; 1228 :         }
; 1229 : 
; 1230 :         __UNIT_TYPE o_bit_count = lstrlenW(int_part_buf) * 4;

  001d6	49 8b cd	 mov	 rcx, r13
  001d9	ff 15 00 00 00
	00		 call	 QWORD PTR __imp_lstrlenW
  001df	8b d8		 mov	 ebx, eax
  001e1	c1 e3 02	 shl	 ebx, 2
  001e4	48 63 d3	 movsxd	 rdx, ebx

; 1231 :         *o_abs = root.AllocateNumber(o_bit_count);

  001e7	48 8d 4c 24 68	 lea	 rcx, QWORD PTR root$[rsp]
  001ec	e8 00 00 00 00	 call	 ?AllocateNumber@ResourceHolderUINT@Internal@Core@Math@Palmtree@@QEAAPEAU__tag_NUMBER_HEADER@2345@_K@Z ; Palmtree::Math::Core::Internal::ResourceHolderUINT::AllocateNumber
  001f1	49 89 06	 mov	 QWORD PTR [r14], rax

; 1232 :         BuildBinaryFromHexString(int_part_buf, (*o_abs)->BLOCK);

  001f4	48 8b 50 40	 mov	 rdx, QWORD PTR [rax+64]
  001f8	49 8b cd	 mov	 rcx, r13
  001fb	e8 00 00 00 00	 call	 ?BuildBinaryFromHexString@Internal@Core@Math@Palmtree@@YAXPEA_WPEA_K@Z ; Palmtree::Math::Core::Internal::BuildBinaryFromHexString

; 1233 :         root.CheckNumber(*o_abs);

  00200	49 8b 16	 mov	 rdx, QWORD PTR [r14]
  00203	48 8d 4c 24 68	 lea	 rcx, QWORD PTR root$[rsp]
  00208	e8 00 00 00 00	 call	 ?CheckNumber@ResourceHolderUINT@Internal@Core@Math@Palmtree@@QEAAXPEAU__tag_NUMBER_HEADER@2345@@Z ; Palmtree::Math::Core::Internal::ResourceHolderUINT::CheckNumber

; 1234 :         root.DeallocateString(int_part_buf);

  0020d	49 8b d5	 mov	 rdx, r13
  00210	48 8d 4c 24 68	 lea	 rcx, QWORD PTR root$[rsp]
  00215	e8 00 00 00 00	 call	 ?DeallocateString@ResourceHolderUINT@Internal@Core@Math@Palmtree@@QEAAXPEA_W@Z ; Palmtree::Math::Core::Internal::ResourceHolderUINT::DeallocateString

; 1235 :         if (*o_sign < 0)

  0021a	44 38 27	 cmp	 BYTE PTR [rdi], r12b
  0021d	7d 5c		 jge	 SHORT $LN3@TryParseX

; 1236 :         {
; 1237 :             // 
; 1238 : 
; 1239 :             int lzcnt = o_bit_count % __UNIT_TYPE_BIT_COUNT;

  0021f	83 e3 3f	 and	 ebx, 63			; 0000003fH

; 1240 :             if (lzcnt != 0)

  00222	74 1c		 je	 SHORT $LN12@TryParseX

; 1241 :             {
; 1242 :                 __UNIT_TYPE padding = (__UNIT_TYPE)-1 << lzcnt;

  00224	8b cb		 mov	 ecx, ebx
  00226	48 c7 c2 ff ff
	ff ff		 mov	 rdx, -1
  0022d	48 d3 e2	 shl	 rdx, cl

; 1243 :                 (*o_abs)->BLOCK[(*o_abs)->BLOCK_COUNT - 1] |= padding;

  00230	49 8b 06	 mov	 rax, QWORD PTR [r14]
  00233	48 8b 48 38	 mov	 rcx, QWORD PTR [rax+56]
  00237	48 8b 40 40	 mov	 rax, QWORD PTR [rax+64]
  0023b	48 09 54 c8 f8	 or	 QWORD PTR [rax+rcx*8-8], rdx
$LN12@TryParseX:

; 1244 :             }
; 1245 : 
; 1246 :             //  (*o_abs)->BLOCK 
; 1247 :             char carry = 1;

  00240	40 0f b6 d6	 movzx	 edx, sil

; 1248 :             __UNIT_TYPE* p = (*o_abs)->BLOCK;

  00244	49 8b 06	 mov	 rax, QWORD PTR [r14]
  00247	48 8b 48 40	 mov	 rcx, QWORD PTR [rax+64]

; 1244 :             }
; 1245 : 
; 1246 :             //  (*o_abs)->BLOCK 
; 1247 :             char carry = 1;

  0024b	4c 8b 40 38	 mov	 r8, QWORD PTR [rax+56]

; 1249 :             __UNIT_TYPE count = (*o_abs)->BLOCK_COUNT;
; 1250 :             while (count > 0)

  0024f	4d 85 c0	 test	 r8, r8
  00252	74 27		 je	 SHORT $LN3@TryParseX
  00254	0f 1f 40 00 0f
	1f 84 00 00 00
	00 00		 npad	 12
$LL2@TryParseX:

; 1251 :             {
; 1252 :                 carry = _ADD_UNIT(carry, ~*p, 0, p);

  00260	48 8b 01	 mov	 rax, QWORD PTR [rcx]
  00263	48 f7 d0	 not	 rax
; File z:\sources\lunor\repos\rougemeilland\palmtree.math.core.uint\palmtree.math.core.uint\pmc_inline_func.h

; 180  :             return (_addcarry_u64(carry, u, v, w));

  00266	80 c2 ff	 add	 dl, -1
  00269	49 13 c4	 adc	 rax, r12
  0026c	0f 92 c2	 setb	 dl
  0026f	48 89 01	 mov	 QWORD PTR [rcx], rax
; File z:\sources\lunor\repos\rougemeilland\palmtree.math.core.uint\palmtree.math.core.uint\pmc_parse.cpp

; 1253 :                 ++p;

  00272	48 8d 49 08	 lea	 rcx, QWORD PTR [rcx+8]

; 1254 :                 --count;

  00276	4c 2b c6	 sub	 r8, rsi

; 1249 :             __UNIT_TYPE count = (*o_abs)->BLOCK_COUNT;
; 1250 :             while (count > 0)

  00279	75 e5		 jne	 SHORT $LL2@TryParseX
$LN3@TryParseX:

; 1255 :             }
; 1256 :         }
; 1257 :         CommitNumber(*o_abs);

  0027b	49 8b 0e	 mov	 rcx, QWORD PTR [r14]
  0027e	e8 00 00 00 00	 call	 ?CommitNumber@Internal@Core@Math@Palmtree@@YAXPEAU__tag_NUMBER_HEADER@1234@@Z ; Palmtree::Math::Core::Internal::CommitNumber

; 1258 :         if ((*o_abs)->IS_ZERO)

  00283	49 8b 16	 mov	 rdx, QWORD PTR [r14]
  00286	48 8d 4c 24 68	 lea	 rcx, QWORD PTR root$[rsp]
  0028b	40 84 72 08	 test	 BYTE PTR [rdx+8], sil
  0028f	74 1b		 je	 SHORT $LN13@TryParseX

; 1259 :         {
; 1260 :             root.DeallocateNumber(*o_abs);

  00291	e8 00 00 00 00	 call	 ?DeallocateNumber@ResourceHolderUINT@Internal@Core@Math@Palmtree@@QEAAXPEAU__tag_NUMBER_HEADER@2345@@Z ; Palmtree::Math::Core::Internal::ResourceHolderUINT::DeallocateNumber

; 1261 :             *o_sign = 0;

  00296	44 88 27	 mov	 BYTE PTR [rdi], r12b

; 1262 :             *o_abs = &number_zero;

  00299	48 8d 05 00 00
	00 00		 lea	 rax, OFFSET FLAT:?number_zero@Internal@Core@Math@Palmtree@@3U__tag_NUMBER_HEADER@1234@A ; Palmtree::Math::Core::Internal::number_zero
  002a0	49 89 06	 mov	 QWORD PTR [r14], rax

; 1266 :         *result = 1;

  002a3	48 8b 44 24 60	 mov	 rax, QWORD PTR result$GSCopy$1$[rsp]
  002a8	89 30		 mov	 DWORD PTR [rax], esi

; 1267 :         return (PMC_STATUS_OK);

  002aa	eb 28		 jmp	 SHORT $LN18@TryParseX
$LN13@TryParseX:

; 1263 :         }
; 1264 :         else
; 1265 :             root.UnlinkNumber(*o_abs);

  002ac	e8 00 00 00 00	 call	 ?UnlinkNumber@ResourceHolderUINT@Internal@Core@Math@Palmtree@@QEAAXPEAU__tag_NUMBER_HEADER@2345@@Z ; Palmtree::Math::Core::Internal::ResourceHolderUINT::UnlinkNumber

; 1266 :         *result = 1;

  002b1	48 8b 44 24 60	 mov	 rax, QWORD PTR result$GSCopy$1$[rsp]
  002b6	89 30		 mov	 DWORD PTR [rax], esi

; 1267 :         return (PMC_STATUS_OK);

  002b8	eb 1a		 jmp	 SHORT $LN18@TryParseX
$LN5@TryParseX:

; 1198 :         {
; 1199 :             *result = 0;

  002ba	48 8b 44 24 60	 mov	 rax, QWORD PTR result$GSCopy$1$[rsp]
  002bf	44 89 20	 mov	 DWORD PTR [rax], r12d

; 1200 :             if (number_styles & PMC_NUMBER_STYLE_ALLOW_EXCEPTION_THROWING)

  002c2	41 81 e7 00 00
	00 02		 and	 r15d, 33554432		; 02000000H
  002c9	41 f7 df	 neg	 r15d
  002cc	1b c0		 sbb	 eax, eax
  002ce	83 e0 f9	 and	 eax, -7
  002d1	44 8b e0	 mov	 r12d, eax
$LN18@TryParseX:

; 1267 :         return (PMC_STATUS_OK);

  002d4	48 8d 4c 24 68	 lea	 rcx, QWORD PTR root$[rsp]
  002d9	e8 00 00 00 00	 call	 ??1ResourceHolderUINT@Internal@Core@Math@Palmtree@@UEAA@XZ ; Palmtree::Math::Core::Internal::ResourceHolderUINT::~ResourceHolderUINT
  002de	41 8b c4	 mov	 eax, r12d

; 1268 :     }

  002e1	48 8b 8d d0 00
	00 00		 mov	 rcx, QWORD PTR __$ArrayPad$[rbp-256]
  002e8	48 33 cc	 xor	 rcx, rsp
  002eb	e8 00 00 00 00	 call	 __security_check_cookie
  002f0	48 8b 9c 24 28
	02 00 00	 mov	 rbx, QWORD PTR [rsp+552]
  002f8	48 81 c4 e0 01
	00 00		 add	 rsp, 480		; 000001e0H
  002ff	41 5f		 pop	 r15
  00301	41 5e		 pop	 r14
  00303	41 5d		 pop	 r13
  00305	41 5c		 pop	 r12
  00307	5f		 pop	 rdi
  00308	5e		 pop	 rsi
  00309	5d		 pop	 rbp
  0030a	c3		 ret	 0
?TryParseX@Internal@Core@Math@Palmtree@@YAHPEB_WIPEBU__tag_PMC_NUMBER_FORMAT_INFO@1234@PEADPEAPEAU__tag_NUMBER_HEADER@1234@PEAI@Z ENDP ; Palmtree::Math::Core::Internal::TryParseX
_TEXT	ENDS
;	COMDAT text$x
text$x	SEGMENT
dummy_sign$1 = 80
o_sign$GSCopy$1$ = 88
result$GSCopy$1$ = 96
root$ = 104
$T2 = 136
state$3 = 144
__$ArrayPad$ = 464
source$ = 544
number_styles$ = 552
format_option$ = 560
o_sign$ = 568
o_abs$ = 576
result$ = 584
?dtor$0@?0??TryParseX@Internal@Core@Math@Palmtree@@YAHPEB_WIPEBU__tag_PMC_NUMBER_FORMAT_INFO@1234@PEADPEAPEAU__tag_NUMBER_HEADER@1234@PEAI@Z@4HA PROC ; `Palmtree::Math::Core::Internal::TryParseX'::`1'::dtor$0
  00000	48 8d 8a 68 00
	00 00		 lea	 rcx, QWORD PTR root$[rdx]
  00007	e9 00 00 00 00	 jmp	 ??1ResourceHolderUINT@Internal@Core@Math@Palmtree@@UEAA@XZ ; Palmtree::Math::Core::Internal::ResourceHolderUINT::~ResourceHolderUINT
?dtor$0@?0??TryParseX@Internal@Core@Math@Palmtree@@YAHPEB_WIPEBU__tag_PMC_NUMBER_FORMAT_INFO@1234@PEADPEAPEAU__tag_NUMBER_HEADER@1234@PEAI@Z@4HA ENDP ; `Palmtree::Math::Core::Internal::TryParseX'::`1'::dtor$0
text$x	ENDS
; Function compile flags: /Ogtpy
;	COMDAT text$x
text$x	SEGMENT
dummy_sign$1 = 80
o_sign$GSCopy$1$ = 88
result$GSCopy$1$ = 96
root$ = 104
$T2 = 136
state$3 = 144
__$ArrayPad$ = 464
source$ = 544
number_styles$ = 552
format_option$ = 560
o_sign$ = 568
o_abs$ = 576
result$ = 584
?dtor$0@?0??TryParseX@Internal@Core@Math@Palmtree@@YAHPEB_WIPEBU__tag_PMC_NUMBER_FORMAT_INFO@1234@PEADPEAPEAU__tag_NUMBER_HEADER@1234@PEAI@Z@4HA PROC ; `Palmtree::Math::Core::Internal::TryParseX'::`1'::dtor$0
  00000	48 8d 8a 68 00
	00 00		 lea	 rcx, QWORD PTR root$[rdx]
  00007	e9 00 00 00 00	 jmp	 ??1ResourceHolderUINT@Internal@Core@Math@Palmtree@@UEAA@XZ ; Palmtree::Math::Core::Internal::ResourceHolderUINT::~ResourceHolderUINT
?dtor$0@?0??TryParseX@Internal@Core@Math@Palmtree@@YAHPEB_WIPEBU__tag_PMC_NUMBER_FORMAT_INFO@1234@PEADPEAPEAU__tag_NUMBER_HEADER@1234@PEAI@Z@4HA ENDP ; `Palmtree::Math::Core::Internal::TryParseX'::`1'::dtor$0
text$x	ENDS
; Function compile flags: /Ogtpy
; File z:\sources\lunor\repos\rougemeilland\palmtree.math.core.uint\palmtree.math.core.uint\pmc_parse.cpp
; File z:\sources\lunor\repos\rougemeilland\palmtree.math.core.uint\palmtree.math.core.uint\pmc_stringio.h
; File z:\sources\lunor\repos\rougemeilland\palmtree.math.core.uint\palmtree.math.core.uint\pmc_parse.cpp
; File z:\sources\lunor\repos\rougemeilland\palmtree.math.core.uint\palmtree.math.core.uint\pmc_stringio.h
; File z:\sources\lunor\repos\rougemeilland\palmtree.math.core.uint\palmtree.math.core.uint\pmc_parse.cpp
;	COMDAT ?ParseAsHexNumberString@Internal@Core@Math@Palmtree@@YAHPEB_WIPEBU__tag_PMC_NUMBER_FORMAT_INFO@1234@PEA_W_K@Z
_TEXT	SEGMENT
dummy_sign$ = 80
state$ = 96
__$ArrayPad$ = 416
in_ptr$ = 448
number_styles$ = 456
format_option$ = 464
int_part_buf$ = 472
int_part_buf_size$ = 480
?ParseAsHexNumberString@Internal@Core@Math@Palmtree@@YAHPEB_WIPEBU__tag_PMC_NUMBER_FORMAT_INFO@1234@PEA_W_K@Z PROC ; Palmtree::Math::Core::Internal::ParseAsHexNumberString, COMDAT

; 1183 :     {

  00000	40 53		 push	 rbx
  00002	48 81 ec b0 01
	00 00		 sub	 rsp, 432		; 000001b0H
  00009	48 8b 05 00 00
	00 00		 mov	 rax, QWORD PTR __security_cookie
  00010	48 33 c4	 xor	 rax, rsp
  00013	48 89 84 24 a0
	01 00 00	 mov	 QWORD PTR __$ArrayPad$[rsp], rax

; 1184 :         char dummy_sign;
; 1185 :         ParserState state(in_ptr, number_styles, format_option, &dummy_sign, int_part_buf, int_part_buf_size, nullptr, 0);

  0001b	48 8b 84 24 e0
	01 00 00	 mov	 rax, QWORD PTR int_part_buf_size$[rsp]
  00023	33 db		 xor	 ebx, ebx
  00025	48 89 5c 24 40	 mov	 QWORD PTR [rsp+64], rbx
  0002a	48 89 5c 24 38	 mov	 QWORD PTR [rsp+56], rbx
  0002f	48 89 44 24 30	 mov	 QWORD PTR [rsp+48], rax
  00034	48 8d 44 24 50	 lea	 rax, QWORD PTR dummy_sign$[rsp]
  00039	4c 89 4c 24 28	 mov	 QWORD PTR [rsp+40], r9
  0003e	4d 8b c8	 mov	 r9, r8
  00041	44 8b c2	 mov	 r8d, edx
  00044	48 89 44 24 20	 mov	 QWORD PTR [rsp+32], rax
  00049	48 8b d1	 mov	 rdx, rcx
  0004c	48 8d 4c 24 60	 lea	 rcx, QWORD PTR state$[rsp]
  00051	e8 00 00 00 00	 call	 ??0ParserState@Internal@Core@Math@Palmtree@@QEAA@PEB_WIPEBU__tag_PMC_NUMBER_FORMAT_INFO@1234@PEADPEA_W_K34@Z ; Palmtree::Math::Core::Internal::ParserState::ParserState

; 480  :             if (_number_styles & PMC_NUMBER_STYLE_ALLOW_LEADING_WHITE)

  00056	f6 84 24 c0 00
	00 00 01	 test	 BYTE PTR state$[rsp+96], 1
  0005e	74 3f		 je	 SHORT $LN38@ParseAsHex
; File z:\sources\lunor\repos\rougemeilland\palmtree.math.core.uint\palmtree.math.core.uint\pmc_stringio.h

; 92   :                 switch (PeekChar())

  00060	48 8b 44 24 60	 mov	 rax, QWORD PTR state$[rsp]
  00065	48 8d 4c 24 60	 lea	 rcx, QWORD PTR state$[rsp]
  0006a	ff 10		 call	 QWORD PTR [rax]
  0006c	0f b7 c0	 movzx	 eax, ax
  0006f	83 f8 09	 cmp	 eax, 9
  00072	72 2b		 jb	 SHORT $LN38@ParseAsHex
$LL9@ParseAsHex:
  00074	83 f8 0d	 cmp	 eax, 13
  00077	76 05		 jbe	 SHORT $LN14@ParseAsHex
  00079	83 f8 20	 cmp	 eax, 32			; 00000020H
  0007c	75 21		 jne	 SHORT $LN38@ParseAsHex
$LN14@ParseAsHex:

; 93   :                 {
; 94   :                 case L' ':
; 95   :                 case L'\t':
; 96   :                 case L'\n':
; 97   :                 case L'\r':
; 98   :                 case L'\f':
; 99   :                 case L'\v':
; 100  :                     break;
; 101  :                 default:
; 102  :                     return;
; 103  :                 }
; 104  :                 Progress();

  0007e	48 8b 44 24 60	 mov	 rax, QWORD PTR state$[rsp]
  00083	48 8d 4c 24 60	 lea	 rcx, QWORD PTR state$[rsp]
  00088	ff 50 08	 call	 QWORD PTR [rax+8]
  0008b	48 8b 44 24 60	 mov	 rax, QWORD PTR state$[rsp]
  00090	48 8d 4c 24 60	 lea	 rcx, QWORD PTR state$[rsp]
  00095	ff 10		 call	 QWORD PTR [rax]
  00097	0f b7 c0	 movzx	 eax, ax
  0009a	83 f8 09	 cmp	 eax, 9
  0009d	73 d5		 jae	 SHORT $LL9@ParseAsHex
$LN38@ParseAsHex:
; File z:\sources\lunor\repos\rougemeilland\palmtree.math.core.uint\palmtree.math.core.uint\pmc_parse.cpp

; 482  :             ParseAsIntegerPartNumberSequence();

  0009f	48 8d 4c 24 60	 lea	 rcx, QWORD PTR state$[rsp]
  000a4	e8 00 00 00 00	 call	 ?ParseAsIntegerPartNumberSequence@ParserState@Internal@Core@Math@Palmtree@@AEAAXXZ ; Palmtree::Math::Core::Internal::ParserState::ParseAsIntegerPartNumberSequence

; 483  :             if (_number_styles & PMC_NUMBER_STYLE_ALLOW_TRAILING_WHITE)

  000a9	f6 84 24 c0 00
	00 00 02	 test	 BYTE PTR state$[rsp+96], 2
  000b1	74 3f		 je	 SHORT $LN39@ParseAsHex
; File z:\sources\lunor\repos\rougemeilland\palmtree.math.core.uint\palmtree.math.core.uint\pmc_stringio.h

; 92   :                 switch (PeekChar())

  000b3	48 8b 44 24 60	 mov	 rax, QWORD PTR state$[rsp]
  000b8	48 8d 4c 24 60	 lea	 rcx, QWORD PTR state$[rsp]
  000bd	ff 10		 call	 QWORD PTR [rax]
  000bf	0f b7 c0	 movzx	 eax, ax
  000c2	83 f8 09	 cmp	 eax, 9
  000c5	72 2b		 jb	 SHORT $LN39@ParseAsHex
$LL18@ParseAsHex:
  000c7	83 f8 0d	 cmp	 eax, 13
  000ca	76 05		 jbe	 SHORT $LN23@ParseAsHex
  000cc	83 f8 20	 cmp	 eax, 32			; 00000020H
  000cf	75 21		 jne	 SHORT $LN39@ParseAsHex
$LN23@ParseAsHex:

; 93   :                 {
; 94   :                 case L' ':
; 95   :                 case L'\t':
; 96   :                 case L'\n':
; 97   :                 case L'\r':
; 98   :                 case L'\f':
; 99   :                 case L'\v':
; 100  :                     break;
; 101  :                 default:
; 102  :                     return;
; 103  :                 }
; 104  :                 Progress();

  000d1	48 8b 44 24 60	 mov	 rax, QWORD PTR state$[rsp]
  000d6	48 8d 4c 24 60	 lea	 rcx, QWORD PTR state$[rsp]
  000db	ff 50 08	 call	 QWORD PTR [rax+8]
  000de	48 8b 44 24 60	 mov	 rax, QWORD PTR state$[rsp]
  000e3	48 8d 4c 24 60	 lea	 rcx, QWORD PTR state$[rsp]
  000e8	ff 10		 call	 QWORD PTR [rax]
  000ea	0f b7 c0	 movzx	 eax, ax
  000ed	83 f8 09	 cmp	 eax, 9
  000f0	73 d5		 jae	 SHORT $LL18@ParseAsHex
$LN39@ParseAsHex:
; File z:\sources\lunor\repos\rougemeilland\palmtree.math.core.uint\palmtree.math.core.uint\pmc_parse.cpp

; 485  :             if (_source.PeekChar() != L'\0')

  000f2	48 8b 54 24 60	 mov	 rdx, QWORD PTR state$[rsp]
  000f7	48 8d 4c 24 60	 lea	 rcx, QWORD PTR state$[rsp]
  000fc	ff 12		 call	 QWORD PTR [rdx]
  000fe	66 85 c0	 test	 ax, ax
  00101	0f 94 c3	 sete	 bl

; 1186 :         return (state.ParseAsHexNumberString());

  00104	8b c3		 mov	 eax, ebx

; 1187 :     }

  00106	48 8b 8c 24 a0
	01 00 00	 mov	 rcx, QWORD PTR __$ArrayPad$[rsp]
  0010e	48 33 cc	 xor	 rcx, rsp
  00111	e8 00 00 00 00	 call	 __security_check_cookie
  00116	48 81 c4 b0 01
	00 00		 add	 rsp, 432		; 000001b0H
  0011d	5b		 pop	 rbx
  0011e	c3		 ret	 0
?ParseAsHexNumberString@Internal@Core@Math@Palmtree@@YAHPEB_WIPEBU__tag_PMC_NUMBER_FORMAT_INFO@1234@PEA_W_K@Z ENDP ; Palmtree::Math::Core::Internal::ParseAsHexNumberString
_TEXT	ENDS
; Function compile flags: /Ogtpy
; File z:\sources\lunor\repos\rougemeilland\palmtree.math.core.uint\palmtree.math.core.uint\pmc_parse.cpp
; File z:\sources\lunor\repos\rougemeilland\palmtree.math.core.uint\palmtree.math.core.uint\pmc_inline_func.h
; File z:\sources\lunor\repos\rougemeilland\palmtree.math.core.uint\palmtree.math.core.uint\pmc_parse.cpp
;	COMDAT ?BuildBinaryFromHexString@Internal@Core@Math@Palmtree@@YAXPEA_WPEA_K@Z
_TEXT	SEGMENT
source$ = 48
out_buf$ = 56
?BuildBinaryFromHexString@Internal@Core@Math@Palmtree@@YAXPEA_WPEA_K@Z PROC ; Palmtree::Math::Core::Internal::BuildBinaryFromHexString, COMDAT

; 1162 :     {

  00000	48 89 5c 24 10	 mov	 QWORD PTR [rsp+16], rbx
  00005	57		 push	 rdi
  00006	48 83 ec 20	 sub	 rsp, 32			; 00000020H
  0000a	48 8b da	 mov	 rbx, rdx
  0000d	48 8b f9	 mov	 rdi, rcx

; 1163 :         int word_digit_count = __UNIT_TYPE_BIT_COUNT / 4;
; 1164 :         __UNIT_TYPE source_count = lstrlenW(source);

  00010	ff 15 00 00 00
	00		 call	 QWORD PTR __imp_lstrlenW
  00016	4c 63 d8	 movsxd	 r11, eax

; 1167 :         int r = source_count % word_digit_count;

  00019	4d 8b d3	 mov	 r10, r11
; File z:\sources\lunor\repos\rougemeilland\palmtree.math.core.uint\palmtree.math.core.uint\pmc_inline_func.h

; 157  :             return ((u + v - 1) / v);

  0001c	49 8d 43 0f	 lea	 rax, QWORD PTR [r11+15]
  00020	48 c1 e8 04	 shr	 rax, 4
  00024	48 8d 1c c3	 lea	 rbx, QWORD PTR [rbx+rax*8]
  00028	48 83 c3 f8	 add	 rbx, -8
; File z:\sources\lunor\repos\rougemeilland\palmtree.math.core.uint\palmtree.math.core.uint\pmc_parse.cpp

; 1167 :         int r = source_count % word_digit_count;

  0002c	41 83 e2 0f	 and	 r10d, 15

; 1168 :         if (r > 0)

  00030	0f 86 ce 00 00
	00		 jbe	 $LN23@BuildBinar

; 1116 :         __UNIT_TYPE x = ParseHexDigit(*in_ptr);

  00036	0f b7 0f	 movzx	 ecx, WORD PTR [rdi]

; 1169 :         {
; 1170 :             *out_ptr-- = BuildLeading1WordFromHexString(in_ptr, r);

  00039	48 89 74 24 30	 mov	 QWORD PTR [rsp+48], rsi
  0003e	41 8b f2	 mov	 esi, r10d
  00041	45 8b ca	 mov	 r9d, r10d

; 49   :         if (c >= L'0' && c <= L'9')

  00044	8d 41 d0	 lea	 eax, DWORD PTR [rcx-48]
  00047	66 83 f8 09	 cmp	 ax, 9
  0004b	77 09		 ja	 SHORT $LN13@BuildBinar

; 50   :             return (c - L'0');

  0004d	0f b7 d1	 movzx	 edx, cx
  00050	48 83 ea 30	 sub	 rdx, 48			; 00000030H
  00054	eb 2b		 jmp	 SHORT $LN12@BuildBinar
$LN13@BuildBinar:

; 51   : 
; 52   :         if (c >= L'a' && c <= L'f')

  00056	8d 41 9f	 lea	 eax, DWORD PTR [rcx-97]
  00059	66 83 f8 05	 cmp	 ax, 5
  0005d	77 09		 ja	 SHORT $LN14@BuildBinar

; 53   :             return (c - L'a' + 10);

  0005f	0f b7 d1	 movzx	 edx, cx
  00062	48 83 ea 57	 sub	 rdx, 87			; 00000057H
  00066	eb 19		 jmp	 SHORT $LN12@BuildBinar
$LN14@BuildBinar:

; 54   : 
; 55   :         if (c >= L'A' && c <= L'F')

  00068	8d 41 bf	 lea	 eax, DWORD PTR [rcx-65]
  0006b	66 83 f8 05	 cmp	 ax, 5
  0006f	77 09		 ja	 SHORT $LN15@BuildBinar

; 56   :             return (c - L'A' + 10);

  00071	0f b7 d1	 movzx	 edx, cx
  00074	48 83 ea 37	 sub	 rdx, 55			; 00000037H
  00078	eb 07		 jmp	 SHORT $LN12@BuildBinar
$LN15@BuildBinar:

; 57   :         return (-1);

  0007a	48 c7 c2 ff ff
	ff ff		 mov	 rdx, -1
$LN12@BuildBinar:

; 1116 :         __UNIT_TYPE x = ParseHexDigit(*in_ptr);

  00081	48 c1 e2 20	 shl	 rdx, 32			; 00000020H

; 1117 :         ++in_ptr;

  00085	4c 8d 47 02	 lea	 r8, QWORD PTR [rdi+2]
  00089	48 c1 fa 20	 sar	 rdx, 32			; 00000020H
  0008d	49 83 e9 01	 sub	 r9, 1

; 1118 :         --count;
; 1119 :         while (count > 0)

  00091	74 5e		 je	 SHORT $LN10@BuildBinar
$LL9@BuildBinar:

; 1120 :         {
; 1121 :             x = x * 16 + ParseHexDigit(*in_ptr);

  00093	41 0f b7 08	 movzx	 ecx, WORD PTR [r8]

; 49   :         if (c >= L'0' && c <= L'9')

  00097	8d 41 d0	 lea	 eax, DWORD PTR [rcx-48]
  0009a	66 83 f8 09	 cmp	 ax, 9
  0009e	77 09		 ja	 SHORT $LN18@BuildBinar

; 50   :             return (c - L'0');

  000a0	0f b7 c1	 movzx	 eax, cx
  000a3	48 83 e8 30	 sub	 rax, 48			; 00000030H
  000a7	eb 2b		 jmp	 SHORT $LN17@BuildBinar
$LN18@BuildBinar:

; 51   : 
; 52   :         if (c >= L'a' && c <= L'f')

  000a9	8d 41 9f	 lea	 eax, DWORD PTR [rcx-97]
  000ac	66 83 f8 05	 cmp	 ax, 5
  000b0	77 09		 ja	 SHORT $LN19@BuildBinar

; 53   :             return (c - L'a' + 10);

  000b2	0f b7 c1	 movzx	 eax, cx
  000b5	48 83 e8 57	 sub	 rax, 87			; 00000057H
  000b9	eb 19		 jmp	 SHORT $LN17@BuildBinar
$LN19@BuildBinar:

; 54   : 
; 55   :         if (c >= L'A' && c <= L'F')

  000bb	8d 41 bf	 lea	 eax, DWORD PTR [rcx-65]
  000be	66 83 f8 05	 cmp	 ax, 5
  000c2	77 09		 ja	 SHORT $LN20@BuildBinar

; 56   :             return (c - L'A' + 10);

  000c4	0f b7 c1	 movzx	 eax, cx
  000c7	48 83 e8 37	 sub	 rax, 55			; 00000037H
  000cb	eb 07		 jmp	 SHORT $LN17@BuildBinar
$LN20@BuildBinar:

; 57   :         return (-1);

  000cd	48 c7 c0 ff ff
	ff ff		 mov	 rax, -1
$LN17@BuildBinar:

; 1121 :             x = x * 16 + ParseHexDigit(*in_ptr);

  000d4	48 c1 e0 20	 shl	 rax, 32			; 00000020H
  000d8	48 8b ca	 mov	 rcx, rdx
  000db	48 c1 f8 20	 sar	 rax, 32			; 00000020H

; 1122 :             ++in_ptr;

  000df	49 83 c0 02	 add	 r8, 2
  000e3	48 c1 e1 04	 shl	 rcx, 4
  000e7	48 8d 14 01	 lea	 rdx, QWORD PTR [rcx+rax]

; 1123 :             --count;

  000eb	49 83 e9 01	 sub	 r9, 1
  000ef	75 a2		 jne	 SHORT $LL9@BuildBinar
$LN10@BuildBinar:

; 1169 :         {
; 1170 :             *out_ptr-- = BuildLeading1WordFromHexString(in_ptr, r);

  000f1	48 89 13	 mov	 QWORD PTR [rbx], rdx

; 1171 :             in_ptr += r;

  000f4	4a 8d 3c 57	 lea	 rdi, QWORD PTR [rdi+r10*2]
  000f8	48 83 eb 08	 sub	 rbx, 8

; 1172 :             source_count -= r;

  000fc	4c 2b de	 sub	 r11, rsi
  000ff	48 8b 74 24 30	 mov	 rsi, QWORD PTR [rsp+48]
$LN23@BuildBinar:

; 1173 :         }
; 1174 :         while (source_count > 0)

  00104	4d 85 db	 test	 r11, r11
  00107	74 23		 je	 SHORT $LN3@BuildBinar
  00109	49 ff cb	 dec	 r11
  0010c	49 c1 eb 04	 shr	 r11, 4
  00110	49 ff c3	 inc	 r11
$LL2@BuildBinar:

; 1175 :         {
; 1176 :             *out_ptr-- = Build1WordFromHexString(in_ptr);

  00113	48 8b cf	 mov	 rcx, rdi
  00116	e8 00 00 00 00	 call	 ?Build1WordFromHexString@Internal@Core@Math@Palmtree@@YA_KPEA_W@Z ; Palmtree::Math::Core::Internal::Build1WordFromHexString

; 1177 :             in_ptr += word_digit_count;

  0011b	48 83 c7 20	 add	 rdi, 32			; 00000020H
  0011f	48 89 03	 mov	 QWORD PTR [rbx], rax
  00122	48 8d 5b f8	 lea	 rbx, QWORD PTR [rbx-8]
  00126	49 83 eb 01	 sub	 r11, 1
  0012a	75 e7		 jne	 SHORT $LL2@BuildBinar
$LN3@BuildBinar:

; 1178 :             source_count -= word_digit_count;
; 1179 :         }
; 1180 :     }

  0012c	48 8b 5c 24 38	 mov	 rbx, QWORD PTR [rsp+56]
  00131	48 83 c4 20	 add	 rsp, 32			; 00000020H
  00135	5f		 pop	 rdi
  00136	c3		 ret	 0
?BuildBinaryFromHexString@Internal@Core@Math@Palmtree@@YAXPEA_WPEA_K@Z ENDP ; Palmtree::Math::Core::Internal::BuildBinaryFromHexString
_TEXT	ENDS
; Function compile flags: /Ogtpy
; File z:\sources\lunor\repos\rougemeilland\palmtree.math.core.uint\palmtree.math.core.uint\pmc_parse.cpp
;	COMDAT ?Build1WordFromHexString@Internal@Core@Math@Palmtree@@YA_KPEA_W@Z
_TEXT	SEGMENT
in_ptr$ = 8
?Build1WordFromHexString@Internal@Core@Math@Palmtree@@YA_KPEA_W@Z PROC ; Palmtree::Math::Core::Internal::Build1WordFromHexString, COMDAT

; 1129 :     {

  00000	4c 8b c9	 mov	 r9, rcx

; 49   :         if (c >= L'0' && c <= L'9')

  00003	48 c7 c2 ff ff
	ff ff		 mov	 rdx, -1

; 1130 :         __UNIT_TYPE x = ParseHexDigit(*in_ptr++);

  0000a	0f b7 09	 movzx	 ecx, WORD PTR [rcx]

; 49   :         if (c >= L'0' && c <= L'9')

  0000d	8d 41 d0	 lea	 eax, DWORD PTR [rcx-48]
  00010	66 83 f8 09	 cmp	 ax, 9
  00014	77 0a		 ja	 SHORT $LN8@Build1Word

; 50   :             return (c - L'0');

  00016	44 0f b7 c1	 movzx	 r8d, cx
  0001a	49 83 e8 30	 sub	 r8, 48			; 00000030H
  0001e	eb 29		 jmp	 SHORT $LN7@Build1Word
$LN8@Build1Word:

; 51   : 
; 52   :         if (c >= L'a' && c <= L'f')

  00020	8d 41 9f	 lea	 eax, DWORD PTR [rcx-97]
  00023	66 83 f8 05	 cmp	 ax, 5
  00027	77 0a		 ja	 SHORT $LN9@Build1Word

; 53   :             return (c - L'a' + 10);

  00029	44 0f b7 c1	 movzx	 r8d, cx
  0002d	49 83 e8 57	 sub	 r8, 87			; 00000057H
  00031	eb 16		 jmp	 SHORT $LN7@Build1Word
$LN9@Build1Word:

; 54   : 
; 55   :         if (c >= L'A' && c <= L'F')

  00033	8d 41 bf	 lea	 eax, DWORD PTR [rcx-65]
  00036	66 83 f8 05	 cmp	 ax, 5
  0003a	77 0a		 ja	 SHORT $LN10@Build1Word

; 56   :             return (c - L'A' + 10);

  0003c	44 0f b7 c1	 movzx	 r8d, cx
  00040	49 83 e8 37	 sub	 r8, 55			; 00000037H
  00044	eb 03		 jmp	 SHORT $LN7@Build1Word
$LN10@Build1Word:

; 57   :         return (-1);

  00046	4c 8b c2	 mov	 r8, rdx
$LN7@Build1Word:

; 1131 :         if (sizeof(__UNIT_TYPE) >= sizeof(_UINT64_T))
; 1132 :         {
; 1133 :             x = x * 16 + ParseHexDigit(*in_ptr++);

  00049	41 0f b7 49 02	 movzx	 ecx, WORD PTR [r9+2]
  0004e	49 c1 e0 20	 shl	 r8, 32			; 00000020H
  00052	49 c1 f8 20	 sar	 r8, 32			; 00000020H

; 49   :         if (c >= L'0' && c <= L'9')

  00056	8d 41 d0	 lea	 eax, DWORD PTR [rcx-48]
  00059	66 83 f8 09	 cmp	 ax, 9
  0005d	77 09		 ja	 SHORT $LN13@Build1Word

; 50   :             return (c - L'0');

  0005f	0f b7 c9	 movzx	 ecx, cx
  00062	48 83 e9 30	 sub	 rcx, 48			; 00000030H
  00066	eb 27		 jmp	 SHORT $LN12@Build1Word
$LN13@Build1Word:

; 51   : 
; 52   :         if (c >= L'a' && c <= L'f')

  00068	8d 41 9f	 lea	 eax, DWORD PTR [rcx-97]
  0006b	66 83 f8 05	 cmp	 ax, 5
  0006f	77 09		 ja	 SHORT $LN14@Build1Word

; 53   :             return (c - L'a' + 10);

  00071	0f b7 c9	 movzx	 ecx, cx
  00074	48 83 e9 57	 sub	 rcx, 87			; 00000057H
  00078	eb 15		 jmp	 SHORT $LN12@Build1Word
$LN14@Build1Word:

; 54   : 
; 55   :         if (c >= L'A' && c <= L'F')

  0007a	8d 41 bf	 lea	 eax, DWORD PTR [rcx-65]
  0007d	66 83 f8 05	 cmp	 ax, 5
  00081	77 09		 ja	 SHORT $LN15@Build1Word

; 56   :             return (c - L'A' + 10);

  00083	0f b7 c9	 movzx	 ecx, cx
  00086	48 83 e9 37	 sub	 rcx, 55			; 00000037H
  0008a	eb 03		 jmp	 SHORT $LN12@Build1Word
$LN15@Build1Word:

; 57   :         return (-1);

  0008c	48 8b ca	 mov	 rcx, rdx
$LN12@Build1Word:

; 1131 :         if (sizeof(__UNIT_TYPE) >= sizeof(_UINT64_T))
; 1132 :         {
; 1133 :             x = x * 16 + ParseHexDigit(*in_ptr++);

  0008f	49 c1 e0 04	 shl	 r8, 4
  00093	48 c1 e1 20	 shl	 rcx, 32			; 00000020H
  00097	48 c1 f9 20	 sar	 rcx, 32			; 00000020H
  0009b	49 03 c8	 add	 rcx, r8

; 1134 :             x = x * 16 + ParseHexDigit(*in_ptr++);

  0009e	45 0f b7 41 04	 movzx	 r8d, WORD PTR [r9+4]

; 49   :         if (c >= L'0' && c <= L'9')

  000a3	41 8d 40 d0	 lea	 eax, DWORD PTR [r8-48]
  000a7	66 83 f8 09	 cmp	 ax, 9
  000ab	77 0a		 ja	 SHORT $LN18@Build1Word

; 50   :             return (c - L'0');

  000ad	45 0f b7 c0	 movzx	 r8d, r8w
  000b1	49 83 e8 30	 sub	 r8, 48			; 00000030H
  000b5	eb 2b		 jmp	 SHORT $LN17@Build1Word
$LN18@Build1Word:

; 51   : 
; 52   :         if (c >= L'a' && c <= L'f')

  000b7	41 8d 40 9f	 lea	 eax, DWORD PTR [r8-97]
  000bb	66 83 f8 05	 cmp	 ax, 5
  000bf	77 0a		 ja	 SHORT $LN19@Build1Word

; 53   :             return (c - L'a' + 10);

  000c1	45 0f b7 c0	 movzx	 r8d, r8w
  000c5	49 83 e8 57	 sub	 r8, 87			; 00000057H
  000c9	eb 17		 jmp	 SHORT $LN17@Build1Word
$LN19@Build1Word:

; 54   : 
; 55   :         if (c >= L'A' && c <= L'F')

  000cb	41 8d 40 bf	 lea	 eax, DWORD PTR [r8-65]
  000cf	66 83 f8 05	 cmp	 ax, 5
  000d3	77 0a		 ja	 SHORT $LN20@Build1Word

; 56   :             return (c - L'A' + 10);

  000d5	45 0f b7 c0	 movzx	 r8d, r8w
  000d9	49 83 e8 37	 sub	 r8, 55			; 00000037H
  000dd	eb 03		 jmp	 SHORT $LN17@Build1Word
$LN20@Build1Word:

; 57   :         return (-1);

  000df	4c 8b c2	 mov	 r8, rdx
$LN17@Build1Word:

; 1134 :             x = x * 16 + ParseHexDigit(*in_ptr++);

  000e2	48 c1 e1 04	 shl	 rcx, 4
  000e6	49 c1 e0 20	 shl	 r8, 32			; 00000020H
  000ea	49 c1 f8 20	 sar	 r8, 32			; 00000020H
  000ee	4c 03 c1	 add	 r8, rcx

; 1135 :             x = x * 16 + ParseHexDigit(*in_ptr++);

  000f1	41 0f b7 49 06	 movzx	 ecx, WORD PTR [r9+6]

; 49   :         if (c >= L'0' && c <= L'9')

  000f6	8d 41 d0	 lea	 eax, DWORD PTR [rcx-48]
  000f9	66 83 f8 09	 cmp	 ax, 9
  000fd	77 09		 ja	 SHORT $LN23@Build1Word

; 50   :             return (c - L'0');

  000ff	0f b7 c9	 movzx	 ecx, cx
  00102	48 83 e9 30	 sub	 rcx, 48			; 00000030H
  00106	eb 27		 jmp	 SHORT $LN22@Build1Word
$LN23@Build1Word:

; 51   : 
; 52   :         if (c >= L'a' && c <= L'f')

  00108	8d 41 9f	 lea	 eax, DWORD PTR [rcx-97]
  0010b	66 83 f8 05	 cmp	 ax, 5
  0010f	77 09		 ja	 SHORT $LN24@Build1Word

; 53   :             return (c - L'a' + 10);

  00111	0f b7 c9	 movzx	 ecx, cx
  00114	48 83 e9 57	 sub	 rcx, 87			; 00000057H
  00118	eb 15		 jmp	 SHORT $LN22@Build1Word
$LN24@Build1Word:

; 54   : 
; 55   :         if (c >= L'A' && c <= L'F')

  0011a	8d 41 bf	 lea	 eax, DWORD PTR [rcx-65]
  0011d	66 83 f8 05	 cmp	 ax, 5
  00121	77 09		 ja	 SHORT $LN25@Build1Word

; 56   :             return (c - L'A' + 10);

  00123	0f b7 c9	 movzx	 ecx, cx
  00126	48 83 e9 37	 sub	 rcx, 55			; 00000037H
  0012a	eb 03		 jmp	 SHORT $LN22@Build1Word
$LN25@Build1Word:

; 57   :         return (-1);

  0012c	48 8b ca	 mov	 rcx, rdx
$LN22@Build1Word:

; 1135 :             x = x * 16 + ParseHexDigit(*in_ptr++);

  0012f	49 c1 e0 04	 shl	 r8, 4
  00133	48 c1 e1 20	 shl	 rcx, 32			; 00000020H
  00137	48 c1 f9 20	 sar	 rcx, 32			; 00000020H
  0013b	49 03 c8	 add	 rcx, r8

; 1136 :             x = x * 16 + ParseHexDigit(*in_ptr++);

  0013e	45 0f b7 41 08	 movzx	 r8d, WORD PTR [r9+8]

; 49   :         if (c >= L'0' && c <= L'9')

  00143	41 8d 40 d0	 lea	 eax, DWORD PTR [r8-48]
  00147	66 83 f8 09	 cmp	 ax, 9
  0014b	77 0a		 ja	 SHORT $LN28@Build1Word

; 50   :             return (c - L'0');

  0014d	45 0f b7 c0	 movzx	 r8d, r8w
  00151	49 83 e8 30	 sub	 r8, 48			; 00000030H
  00155	eb 2b		 jmp	 SHORT $LN27@Build1Word
$LN28@Build1Word:

; 51   : 
; 52   :         if (c >= L'a' && c <= L'f')

  00157	41 8d 40 9f	 lea	 eax, DWORD PTR [r8-97]
  0015b	66 83 f8 05	 cmp	 ax, 5
  0015f	77 0a		 ja	 SHORT $LN29@Build1Word

; 53   :             return (c - L'a' + 10);

  00161	45 0f b7 c0	 movzx	 r8d, r8w
  00165	49 83 e8 57	 sub	 r8, 87			; 00000057H
  00169	eb 17		 jmp	 SHORT $LN27@Build1Word
$LN29@Build1Word:

; 54   : 
; 55   :         if (c >= L'A' && c <= L'F')

  0016b	41 8d 40 bf	 lea	 eax, DWORD PTR [r8-65]
  0016f	66 83 f8 05	 cmp	 ax, 5
  00173	77 0a		 ja	 SHORT $LN30@Build1Word

; 56   :             return (c - L'A' + 10);

  00175	45 0f b7 c0	 movzx	 r8d, r8w
  00179	49 83 e8 37	 sub	 r8, 55			; 00000037H
  0017d	eb 03		 jmp	 SHORT $LN27@Build1Word
$LN30@Build1Word:

; 57   :         return (-1);

  0017f	4c 8b c2	 mov	 r8, rdx
$LN27@Build1Word:

; 1136 :             x = x * 16 + ParseHexDigit(*in_ptr++);

  00182	48 c1 e1 04	 shl	 rcx, 4
  00186	49 c1 e0 20	 shl	 r8, 32			; 00000020H
  0018a	49 c1 f8 20	 sar	 r8, 32			; 00000020H
  0018e	4c 03 c1	 add	 r8, rcx

; 1137 :             x = x * 16 + ParseHexDigit(*in_ptr++);

  00191	41 0f b7 49 0a	 movzx	 ecx, WORD PTR [r9+10]

; 49   :         if (c >= L'0' && c <= L'9')

  00196	8d 41 d0	 lea	 eax, DWORD PTR [rcx-48]
  00199	66 83 f8 09	 cmp	 ax, 9
  0019d	77 09		 ja	 SHORT $LN33@Build1Word

; 50   :             return (c - L'0');

  0019f	0f b7 c9	 movzx	 ecx, cx
  001a2	48 83 e9 30	 sub	 rcx, 48			; 00000030H
  001a6	eb 27		 jmp	 SHORT $LN32@Build1Word
$LN33@Build1Word:

; 51   : 
; 52   :         if (c >= L'a' && c <= L'f')

  001a8	8d 41 9f	 lea	 eax, DWORD PTR [rcx-97]
  001ab	66 83 f8 05	 cmp	 ax, 5
  001af	77 09		 ja	 SHORT $LN34@Build1Word

; 53   :             return (c - L'a' + 10);

  001b1	0f b7 c9	 movzx	 ecx, cx
  001b4	48 83 e9 57	 sub	 rcx, 87			; 00000057H
  001b8	eb 15		 jmp	 SHORT $LN32@Build1Word
$LN34@Build1Word:

; 54   : 
; 55   :         if (c >= L'A' && c <= L'F')

  001ba	8d 41 bf	 lea	 eax, DWORD PTR [rcx-65]
  001bd	66 83 f8 05	 cmp	 ax, 5
  001c1	77 09		 ja	 SHORT $LN35@Build1Word

; 56   :             return (c - L'A' + 10);

  001c3	0f b7 c9	 movzx	 ecx, cx
  001c6	48 83 e9 37	 sub	 rcx, 55			; 00000037H
  001ca	eb 03		 jmp	 SHORT $LN32@Build1Word
$LN35@Build1Word:

; 57   :         return (-1);

  001cc	48 8b ca	 mov	 rcx, rdx
$LN32@Build1Word:

; 1137 :             x = x * 16 + ParseHexDigit(*in_ptr++);

  001cf	49 c1 e0 04	 shl	 r8, 4
  001d3	48 c1 e1 20	 shl	 rcx, 32			; 00000020H
  001d7	48 c1 f9 20	 sar	 rcx, 32			; 00000020H
  001db	49 03 c8	 add	 rcx, r8

; 1138 :             x = x * 16 + ParseHexDigit(*in_ptr++);

  001de	45 0f b7 41 0c	 movzx	 r8d, WORD PTR [r9+12]

; 49   :         if (c >= L'0' && c <= L'9')

  001e3	41 8d 40 d0	 lea	 eax, DWORD PTR [r8-48]
  001e7	66 83 f8 09	 cmp	 ax, 9
  001eb	77 0a		 ja	 SHORT $LN38@Build1Word

; 50   :             return (c - L'0');

  001ed	45 0f b7 c0	 movzx	 r8d, r8w
  001f1	49 83 e8 30	 sub	 r8, 48			; 00000030H
  001f5	eb 2b		 jmp	 SHORT $LN37@Build1Word
$LN38@Build1Word:

; 51   : 
; 52   :         if (c >= L'a' && c <= L'f')

  001f7	41 8d 40 9f	 lea	 eax, DWORD PTR [r8-97]
  001fb	66 83 f8 05	 cmp	 ax, 5
  001ff	77 0a		 ja	 SHORT $LN39@Build1Word

; 53   :             return (c - L'a' + 10);

  00201	45 0f b7 c0	 movzx	 r8d, r8w
  00205	49 83 e8 57	 sub	 r8, 87			; 00000057H
  00209	eb 17		 jmp	 SHORT $LN37@Build1Word
$LN39@Build1Word:

; 54   : 
; 55   :         if (c >= L'A' && c <= L'F')

  0020b	41 8d 40 bf	 lea	 eax, DWORD PTR [r8-65]
  0020f	66 83 f8 05	 cmp	 ax, 5
  00213	77 0a		 ja	 SHORT $LN40@Build1Word

; 56   :             return (c - L'A' + 10);

  00215	45 0f b7 c0	 movzx	 r8d, r8w
  00219	49 83 e8 37	 sub	 r8, 55			; 00000037H
  0021d	eb 03		 jmp	 SHORT $LN37@Build1Word
$LN40@Build1Word:

; 57   :         return (-1);

  0021f	4c 8b c2	 mov	 r8, rdx
$LN37@Build1Word:

; 1138 :             x = x * 16 + ParseHexDigit(*in_ptr++);

  00222	48 c1 e1 04	 shl	 rcx, 4
  00226	49 c1 e0 20	 shl	 r8, 32			; 00000020H
  0022a	49 c1 f8 20	 sar	 r8, 32			; 00000020H
  0022e	4c 03 c1	 add	 r8, rcx

; 1139 :             x = x * 16 + ParseHexDigit(*in_ptr++);

  00231	41 0f b7 49 0e	 movzx	 ecx, WORD PTR [r9+14]

; 49   :         if (c >= L'0' && c <= L'9')

  00236	8d 41 d0	 lea	 eax, DWORD PTR [rcx-48]
  00239	66 83 f8 09	 cmp	 ax, 9
  0023d	77 09		 ja	 SHORT $LN43@Build1Word

; 50   :             return (c - L'0');

  0023f	0f b7 c9	 movzx	 ecx, cx
  00242	48 83 e9 30	 sub	 rcx, 48			; 00000030H
  00246	eb 27		 jmp	 SHORT $LN42@Build1Word
$LN43@Build1Word:

; 51   : 
; 52   :         if (c >= L'a' && c <= L'f')

  00248	8d 41 9f	 lea	 eax, DWORD PTR [rcx-97]
  0024b	66 83 f8 05	 cmp	 ax, 5
  0024f	77 09		 ja	 SHORT $LN44@Build1Word

; 53   :             return (c - L'a' + 10);

  00251	0f b7 c9	 movzx	 ecx, cx
  00254	48 83 e9 57	 sub	 rcx, 87			; 00000057H
  00258	eb 15		 jmp	 SHORT $LN42@Build1Word
$LN44@Build1Word:

; 54   : 
; 55   :         if (c >= L'A' && c <= L'F')

  0025a	8d 41 bf	 lea	 eax, DWORD PTR [rcx-65]
  0025d	66 83 f8 05	 cmp	 ax, 5
  00261	77 09		 ja	 SHORT $LN45@Build1Word

; 56   :             return (c - L'A' + 10);

  00263	0f b7 c9	 movzx	 ecx, cx
  00266	48 83 e9 37	 sub	 rcx, 55			; 00000037H
  0026a	eb 03		 jmp	 SHORT $LN42@Build1Word
$LN45@Build1Word:

; 57   :         return (-1);

  0026c	48 8b ca	 mov	 rcx, rdx
$LN42@Build1Word:

; 1139 :             x = x * 16 + ParseHexDigit(*in_ptr++);

  0026f	49 c1 e0 04	 shl	 r8, 4
  00273	48 c1 e1 20	 shl	 rcx, 32			; 00000020H
  00277	48 c1 f9 20	 sar	 rcx, 32			; 00000020H
  0027b	49 03 c8	 add	 rcx, r8

; 1140 :             x = x * 16 + ParseHexDigit(*in_ptr++);

  0027e	45 0f b7 41 10	 movzx	 r8d, WORD PTR [r9+16]

; 49   :         if (c >= L'0' && c <= L'9')

  00283	41 8d 40 d0	 lea	 eax, DWORD PTR [r8-48]
  00287	66 83 f8 09	 cmp	 ax, 9
  0028b	77 0a		 ja	 SHORT $LN48@Build1Word

; 50   :             return (c - L'0');

  0028d	45 0f b7 c0	 movzx	 r8d, r8w
  00291	49 83 e8 30	 sub	 r8, 48			; 00000030H
  00295	eb 2b		 jmp	 SHORT $LN47@Build1Word
$LN48@Build1Word:

; 51   : 
; 52   :         if (c >= L'a' && c <= L'f')

  00297	41 8d 40 9f	 lea	 eax, DWORD PTR [r8-97]
  0029b	66 83 f8 05	 cmp	 ax, 5
  0029f	77 0a		 ja	 SHORT $LN49@Build1Word

; 53   :             return (c - L'a' + 10);

  002a1	45 0f b7 c0	 movzx	 r8d, r8w
  002a5	49 83 e8 57	 sub	 r8, 87			; 00000057H
  002a9	eb 17		 jmp	 SHORT $LN47@Build1Word
$LN49@Build1Word:

; 54   : 
; 55   :         if (c >= L'A' && c <= L'F')

  002ab	41 8d 40 bf	 lea	 eax, DWORD PTR [r8-65]
  002af	66 83 f8 05	 cmp	 ax, 5
  002b3	77 0a		 ja	 SHORT $LN50@Build1Word

; 56   :             return (c - L'A' + 10);

  002b5	45 0f b7 c0	 movzx	 r8d, r8w
  002b9	49 83 e8 37	 sub	 r8, 55			; 00000037H
  002bd	eb 03		 jmp	 SHORT $LN47@Build1Word
$LN50@Build1Word:

; 57   :         return (-1);

  002bf	4c 8b c2	 mov	 r8, rdx
$LN47@Build1Word:

; 1140 :             x = x * 16 + ParseHexDigit(*in_ptr++);

  002c2	48 c1 e1 04	 shl	 rcx, 4
  002c6	49 c1 e0 20	 shl	 r8, 32			; 00000020H
  002ca	49 c1 f8 20	 sar	 r8, 32			; 00000020H
  002ce	4c 03 c1	 add	 r8, rcx

; 1141 :         }
; 1142 :         if (sizeof(__UNIT_TYPE) >= sizeof(_UINT32_T))
; 1143 :         {
; 1144 :             x = x * 16 + ParseHexDigit(*in_ptr++);

  002d1	41 0f b7 49 12	 movzx	 ecx, WORD PTR [r9+18]

; 49   :         if (c >= L'0' && c <= L'9')

  002d6	8d 41 d0	 lea	 eax, DWORD PTR [rcx-48]
  002d9	66 83 f8 09	 cmp	 ax, 9
  002dd	77 09		 ja	 SHORT $LN53@Build1Word

; 50   :             return (c - L'0');

  002df	0f b7 c9	 movzx	 ecx, cx
  002e2	48 83 e9 30	 sub	 rcx, 48			; 00000030H
  002e6	eb 27		 jmp	 SHORT $LN52@Build1Word
$LN53@Build1Word:

; 51   : 
; 52   :         if (c >= L'a' && c <= L'f')

  002e8	8d 41 9f	 lea	 eax, DWORD PTR [rcx-97]
  002eb	66 83 f8 05	 cmp	 ax, 5
  002ef	77 09		 ja	 SHORT $LN54@Build1Word

; 53   :             return (c - L'a' + 10);

  002f1	0f b7 c9	 movzx	 ecx, cx
  002f4	48 83 e9 57	 sub	 rcx, 87			; 00000057H
  002f8	eb 15		 jmp	 SHORT $LN52@Build1Word
$LN54@Build1Word:

; 54   : 
; 55   :         if (c >= L'A' && c <= L'F')

  002fa	8d 41 bf	 lea	 eax, DWORD PTR [rcx-65]
  002fd	66 83 f8 05	 cmp	 ax, 5
  00301	77 09		 ja	 SHORT $LN55@Build1Word

; 56   :             return (c - L'A' + 10);

  00303	0f b7 c9	 movzx	 ecx, cx
  00306	48 83 e9 37	 sub	 rcx, 55			; 00000037H
  0030a	eb 03		 jmp	 SHORT $LN52@Build1Word
$LN55@Build1Word:

; 57   :         return (-1);

  0030c	48 8b ca	 mov	 rcx, rdx
$LN52@Build1Word:

; 1141 :         }
; 1142 :         if (sizeof(__UNIT_TYPE) >= sizeof(_UINT32_T))
; 1143 :         {
; 1144 :             x = x * 16 + ParseHexDigit(*in_ptr++);

  0030f	49 c1 e0 04	 shl	 r8, 4
  00313	48 c1 e1 20	 shl	 rcx, 32			; 00000020H
  00317	48 c1 f9 20	 sar	 rcx, 32			; 00000020H
  0031b	49 03 c8	 add	 rcx, r8

; 1145 :             x = x * 16 + ParseHexDigit(*in_ptr++);

  0031e	45 0f b7 41 14	 movzx	 r8d, WORD PTR [r9+20]

; 49   :         if (c >= L'0' && c <= L'9')

  00323	41 8d 40 d0	 lea	 eax, DWORD PTR [r8-48]
  00327	66 83 f8 09	 cmp	 ax, 9
  0032b	77 0a		 ja	 SHORT $LN58@Build1Word

; 50   :             return (c - L'0');

  0032d	45 0f b7 c0	 movzx	 r8d, r8w
  00331	49 83 e8 30	 sub	 r8, 48			; 00000030H
  00335	eb 2b		 jmp	 SHORT $LN57@Build1Word
$LN58@Build1Word:

; 51   : 
; 52   :         if (c >= L'a' && c <= L'f')

  00337	41 8d 40 9f	 lea	 eax, DWORD PTR [r8-97]
  0033b	66 83 f8 05	 cmp	 ax, 5
  0033f	77 0a		 ja	 SHORT $LN59@Build1Word

; 53   :             return (c - L'a' + 10);

  00341	45 0f b7 c0	 movzx	 r8d, r8w
  00345	49 83 e8 57	 sub	 r8, 87			; 00000057H
  00349	eb 17		 jmp	 SHORT $LN57@Build1Word
$LN59@Build1Word:

; 54   : 
; 55   :         if (c >= L'A' && c <= L'F')

  0034b	41 8d 40 bf	 lea	 eax, DWORD PTR [r8-65]
  0034f	66 83 f8 05	 cmp	 ax, 5
  00353	77 0a		 ja	 SHORT $LN60@Build1Word

; 56   :             return (c - L'A' + 10);

  00355	45 0f b7 c0	 movzx	 r8d, r8w
  00359	49 83 e8 37	 sub	 r8, 55			; 00000037H
  0035d	eb 03		 jmp	 SHORT $LN57@Build1Word
$LN60@Build1Word:

; 57   :         return (-1);

  0035f	4c 8b c2	 mov	 r8, rdx
$LN57@Build1Word:

; 1145 :             x = x * 16 + ParseHexDigit(*in_ptr++);

  00362	48 c1 e1 04	 shl	 rcx, 4
  00366	49 c1 e0 20	 shl	 r8, 32			; 00000020H
  0036a	49 c1 f8 20	 sar	 r8, 32			; 00000020H
  0036e	4c 03 c1	 add	 r8, rcx

; 1146 :             x = x * 16 + ParseHexDigit(*in_ptr++);

  00371	41 0f b7 49 16	 movzx	 ecx, WORD PTR [r9+22]

; 49   :         if (c >= L'0' && c <= L'9')

  00376	8d 41 d0	 lea	 eax, DWORD PTR [rcx-48]
  00379	66 83 f8 09	 cmp	 ax, 9
  0037d	77 09		 ja	 SHORT $LN63@Build1Word

; 50   :             return (c - L'0');

  0037f	0f b7 c9	 movzx	 ecx, cx
  00382	48 83 e9 30	 sub	 rcx, 48			; 00000030H
  00386	eb 27		 jmp	 SHORT $LN62@Build1Word
$LN63@Build1Word:

; 51   : 
; 52   :         if (c >= L'a' && c <= L'f')

  00388	8d 41 9f	 lea	 eax, DWORD PTR [rcx-97]
  0038b	66 83 f8 05	 cmp	 ax, 5
  0038f	77 09		 ja	 SHORT $LN64@Build1Word

; 53   :             return (c - L'a' + 10);

  00391	0f b7 c9	 movzx	 ecx, cx
  00394	48 83 e9 57	 sub	 rcx, 87			; 00000057H
  00398	eb 15		 jmp	 SHORT $LN62@Build1Word
$LN64@Build1Word:

; 54   : 
; 55   :         if (c >= L'A' && c <= L'F')

  0039a	8d 41 bf	 lea	 eax, DWORD PTR [rcx-65]
  0039d	66 83 f8 05	 cmp	 ax, 5
  003a1	77 09		 ja	 SHORT $LN65@Build1Word

; 56   :             return (c - L'A' + 10);

  003a3	0f b7 c9	 movzx	 ecx, cx
  003a6	48 83 e9 37	 sub	 rcx, 55			; 00000037H
  003aa	eb 03		 jmp	 SHORT $LN62@Build1Word
$LN65@Build1Word:

; 57   :         return (-1);

  003ac	48 8b ca	 mov	 rcx, rdx
$LN62@Build1Word:

; 1146 :             x = x * 16 + ParseHexDigit(*in_ptr++);

  003af	49 c1 e0 04	 shl	 r8, 4
  003b3	48 c1 e1 20	 shl	 rcx, 32			; 00000020H
  003b7	48 c1 f9 20	 sar	 rcx, 32			; 00000020H
  003bb	49 03 c8	 add	 rcx, r8

; 1147 :             x = x * 16 + ParseHexDigit(*in_ptr++);

  003be	45 0f b7 41 18	 movzx	 r8d, WORD PTR [r9+24]

; 49   :         if (c >= L'0' && c <= L'9')

  003c3	41 8d 40 d0	 lea	 eax, DWORD PTR [r8-48]
  003c7	66 83 f8 09	 cmp	 ax, 9
  003cb	77 0a		 ja	 SHORT $LN68@Build1Word

; 50   :             return (c - L'0');

  003cd	45 0f b7 d0	 movzx	 r10d, r8w
  003d1	49 83 ea 30	 sub	 r10, 48			; 00000030H
  003d5	eb 2b		 jmp	 SHORT $LN67@Build1Word
$LN68@Build1Word:

; 51   : 
; 52   :         if (c >= L'a' && c <= L'f')

  003d7	41 8d 40 9f	 lea	 eax, DWORD PTR [r8-97]
  003db	66 83 f8 05	 cmp	 ax, 5
  003df	77 0a		 ja	 SHORT $LN69@Build1Word

; 53   :             return (c - L'a' + 10);

  003e1	45 0f b7 d0	 movzx	 r10d, r8w
  003e5	49 83 ea 57	 sub	 r10, 87			; 00000057H
  003e9	eb 17		 jmp	 SHORT $LN67@Build1Word
$LN69@Build1Word:

; 54   : 
; 55   :         if (c >= L'A' && c <= L'F')

  003eb	41 8d 40 bf	 lea	 eax, DWORD PTR [r8-65]
  003ef	66 83 f8 05	 cmp	 ax, 5
  003f3	77 0a		 ja	 SHORT $LN70@Build1Word

; 56   :             return (c - L'A' + 10);

  003f5	45 0f b7 d0	 movzx	 r10d, r8w
  003f9	49 83 ea 37	 sub	 r10, 55			; 00000037H
  003fd	eb 03		 jmp	 SHORT $LN67@Build1Word
$LN70@Build1Word:

; 57   :         return (-1);

  003ff	4c 8b d2	 mov	 r10, rdx
$LN67@Build1Word:

; 1147 :             x = x * 16 + ParseHexDigit(*in_ptr++);

  00402	48 c1 e1 04	 shl	 rcx, 4
  00406	49 c1 e2 20	 shl	 r10, 32			; 00000020H
  0040a	49 c1 fa 20	 sar	 r10, 32			; 00000020H
  0040e	4c 03 d1	 add	 r10, rcx

; 1148 :         }
; 1149 :         if (sizeof(__UNIT_TYPE) >= sizeof(_UINT16_T))
; 1150 :         {
; 1151 :             x = x * 16 + ParseHexDigit(*in_ptr++);

  00411	41 0f b7 49 1a	 movzx	 ecx, WORD PTR [r9+26]

; 49   :         if (c >= L'0' && c <= L'9')

  00416	8d 41 d0	 lea	 eax, DWORD PTR [rcx-48]
  00419	66 83 f8 09	 cmp	 ax, 9
  0041d	77 0a		 ja	 SHORT $LN73@Build1Word

; 50   :             return (c - L'0');

  0041f	44 0f b7 c1	 movzx	 r8d, cx
  00423	49 83 e8 30	 sub	 r8, 48			; 00000030H
  00427	eb 29		 jmp	 SHORT $LN72@Build1Word
$LN73@Build1Word:

; 51   : 
; 52   :         if (c >= L'a' && c <= L'f')

  00429	8d 41 9f	 lea	 eax, DWORD PTR [rcx-97]
  0042c	66 83 f8 05	 cmp	 ax, 5
  00430	77 0a		 ja	 SHORT $LN74@Build1Word

; 53   :             return (c - L'a' + 10);

  00432	44 0f b7 c1	 movzx	 r8d, cx
  00436	49 83 e8 57	 sub	 r8, 87			; 00000057H
  0043a	eb 16		 jmp	 SHORT $LN72@Build1Word
$LN74@Build1Word:

; 54   : 
; 55   :         if (c >= L'A' && c <= L'F')

  0043c	8d 41 bf	 lea	 eax, DWORD PTR [rcx-65]
  0043f	66 83 f8 05	 cmp	 ax, 5
  00443	77 0a		 ja	 SHORT $LN75@Build1Word

; 56   :             return (c - L'A' + 10);

  00445	44 0f b7 c1	 movzx	 r8d, cx
  00449	49 83 e8 37	 sub	 r8, 55			; 00000037H
  0044d	eb 03		 jmp	 SHORT $LN72@Build1Word
$LN75@Build1Word:

; 57   :         return (-1);

  0044f	4c 8b c2	 mov	 r8, rdx
$LN72@Build1Word:

; 1152 :             x = x * 16 + ParseHexDigit(*in_ptr++);

  00452	41 0f b7 49 1c	 movzx	 ecx, WORD PTR [r9+28]
  00457	49 c1 e0 20	 shl	 r8, 32			; 00000020H
  0045b	49 c1 f8 20	 sar	 r8, 32			; 00000020H
  0045f	49 c1 e2 04	 shl	 r10, 4

; 49   :         if (c >= L'0' && c <= L'9')

  00463	8d 41 d0	 lea	 eax, DWORD PTR [rcx-48]

; 1148 :         }
; 1149 :         if (sizeof(__UNIT_TYPE) >= sizeof(_UINT16_T))
; 1150 :         {
; 1151 :             x = x * 16 + ParseHexDigit(*in_ptr++);

  00466	4d 03 c2	 add	 r8, r10

; 49   :         if (c >= L'0' && c <= L'9')

  00469	66 83 f8 09	 cmp	 ax, 9
  0046d	77 09		 ja	 SHORT $LN78@Build1Word

; 50   :             return (c - L'0');

  0046f	0f b7 c9	 movzx	 ecx, cx
  00472	48 83 e9 30	 sub	 rcx, 48			; 00000030H
  00476	eb 27		 jmp	 SHORT $LN77@Build1Word
$LN78@Build1Word:

; 51   : 
; 52   :         if (c >= L'a' && c <= L'f')

  00478	8d 41 9f	 lea	 eax, DWORD PTR [rcx-97]
  0047b	66 83 f8 05	 cmp	 ax, 5
  0047f	77 09		 ja	 SHORT $LN79@Build1Word

; 53   :             return (c - L'a' + 10);

  00481	0f b7 c9	 movzx	 ecx, cx
  00484	48 83 e9 57	 sub	 rcx, 87			; 00000057H
  00488	eb 15		 jmp	 SHORT $LN77@Build1Word
$LN79@Build1Word:

; 54   : 
; 55   :         if (c >= L'A' && c <= L'F')

  0048a	8d 41 bf	 lea	 eax, DWORD PTR [rcx-65]
  0048d	66 83 f8 05	 cmp	 ax, 5
  00491	77 09		 ja	 SHORT $LN80@Build1Word

; 56   :             return (c - L'A' + 10);

  00493	0f b7 c9	 movzx	 ecx, cx
  00496	48 83 e9 37	 sub	 rcx, 55			; 00000037H
  0049a	eb 03		 jmp	 SHORT $LN77@Build1Word
$LN80@Build1Word:

; 57   :         return (-1);

  0049c	48 8b ca	 mov	 rcx, rdx
$LN77@Build1Word:

; 1152 :             x = x * 16 + ParseHexDigit(*in_ptr++);

  0049f	49 c1 e0 04	 shl	 r8, 4
  004a3	48 c1 e1 20	 shl	 rcx, 32			; 00000020H
  004a7	48 c1 f9 20	 sar	 rcx, 32			; 00000020H
  004ab	49 03 c8	 add	 rcx, r8

; 1153 :         }
; 1154 :         if (sizeof(__UNIT_TYPE) >= sizeof(_BYTE_T))
; 1155 :         {
; 1156 :             x = x * 16 + ParseHexDigit(*in_ptr++);

  004ae	45 0f b7 41 1e	 movzx	 r8d, WORD PTR [r9+30]

; 49   :         if (c >= L'0' && c <= L'9')

  004b3	41 8d 40 d0	 lea	 eax, DWORD PTR [r8-48]
  004b7	66 83 f8 09	 cmp	 ax, 9
  004bb	77 18		 ja	 SHORT $LN83@Build1Word

; 50   :             return (c - L'0');

  004bd	41 0f b7 d0	 movzx	 edx, r8w
  004c1	48 83 ea 30	 sub	 rdx, 48			; 00000030H

; 1153 :         }
; 1154 :         if (sizeof(__UNIT_TYPE) >= sizeof(_BYTE_T))
; 1155 :         {
; 1156 :             x = x * 16 + ParseHexDigit(*in_ptr++);

  004c5	48 c1 e2 20	 shl	 rdx, 32			; 00000020H
  004c9	48 c1 fa 20	 sar	 rdx, 32			; 00000020H
  004cd	48 03 c9	 add	 rcx, rcx
  004d0	48 8d 04 ca	 lea	 rax, QWORD PTR [rdx+rcx*8]

; 1157 :         }
; 1158 :         return (x);
; 1159 :     }

  004d4	c3		 ret	 0
$LN83@Build1Word:

; 52   :         if (c >= L'a' && c <= L'f')

  004d5	41 8d 40 9f	 lea	 eax, DWORD PTR [r8-97]
  004d9	66 83 f8 05	 cmp	 ax, 5
  004dd	77 18		 ja	 SHORT $LN84@Build1Word

; 53   :             return (c - L'a' + 10);

  004df	41 0f b7 d0	 movzx	 edx, r8w
  004e3	48 83 ea 57	 sub	 rdx, 87			; 00000057H

; 1153 :         }
; 1154 :         if (sizeof(__UNIT_TYPE) >= sizeof(_BYTE_T))
; 1155 :         {
; 1156 :             x = x * 16 + ParseHexDigit(*in_ptr++);

  004e7	48 c1 e2 20	 shl	 rdx, 32			; 00000020H
  004eb	48 c1 fa 20	 sar	 rdx, 32			; 00000020H
  004ef	48 03 c9	 add	 rcx, rcx
  004f2	48 8d 04 ca	 lea	 rax, QWORD PTR [rdx+rcx*8]

; 1157 :         }
; 1158 :         return (x);
; 1159 :     }

  004f6	c3		 ret	 0
$LN84@Build1Word:

; 55   :         if (c >= L'A' && c <= L'F')

  004f7	41 8d 40 bf	 lea	 eax, DWORD PTR [r8-65]
  004fb	66 83 f8 05	 cmp	 ax, 5
  004ff	77 08		 ja	 SHORT $LN82@Build1Word

; 56   :             return (c - L'A' + 10);

  00501	41 0f b7 d0	 movzx	 edx, r8w
  00505	48 83 ea 37	 sub	 rdx, 55			; 00000037H
$LN82@Build1Word:

; 1153 :         }
; 1154 :         if (sizeof(__UNIT_TYPE) >= sizeof(_BYTE_T))
; 1155 :         {
; 1156 :             x = x * 16 + ParseHexDigit(*in_ptr++);

  00509	48 c1 e2 20	 shl	 rdx, 32			; 00000020H
  0050d	48 03 c9	 add	 rcx, rcx
  00510	48 c1 fa 20	 sar	 rdx, 32			; 00000020H
  00514	48 8d 04 ca	 lea	 rax, QWORD PTR [rdx+rcx*8]

; 1157 :         }
; 1158 :         return (x);
; 1159 :     }

  00518	c3		 ret	 0
?Build1WordFromHexString@Internal@Core@Math@Palmtree@@YA_KPEA_W@Z ENDP ; Palmtree::Math::Core::Internal::Build1WordFromHexString
_TEXT	ENDS
; Function compile flags: /Ogtpy
; File z:\sources\lunor\repos\rougemeilland\palmtree.math.core.uint\palmtree.math.core.uint\pmc_parse.cpp
;	COMDAT ?BuildLeading1WordFromHexString@Internal@Core@Math@Palmtree@@YA_KPEA_W_K@Z
_TEXT	SEGMENT
in_ptr$ = 8
count$ = 16
?BuildLeading1WordFromHexString@Internal@Core@Math@Palmtree@@YA_KPEA_W_K@Z PROC ; Palmtree::Math::Core::Internal::BuildLeading1WordFromHexString, COMDAT

; 1115 :     {

  00000	4c 8b c9	 mov	 r9, rcx

; 1116 :         __UNIT_TYPE x = ParseHexDigit(*in_ptr);

  00003	0f b7 09	 movzx	 ecx, WORD PTR [rcx]

; 49   :         if (c >= L'0' && c <= L'9')

  00006	8d 41 d0	 lea	 eax, DWORD PTR [rcx-48]
  00009	66 83 f8 09	 cmp	 ax, 9
  0000d	77 0a		 ja	 SHORT $LN6@BuildLeadi

; 50   :             return (c - L'0');

  0000f	44 0f b7 c1	 movzx	 r8d, cx
  00013	49 83 e8 30	 sub	 r8, 48			; 00000030H
  00017	eb 2d		 jmp	 SHORT $LN5@BuildLeadi
$LN6@BuildLeadi:

; 51   : 
; 52   :         if (c >= L'a' && c <= L'f')

  00019	8d 41 9f	 lea	 eax, DWORD PTR [rcx-97]
  0001c	66 83 f8 05	 cmp	 ax, 5
  00020	77 0a		 ja	 SHORT $LN7@BuildLeadi

; 53   :             return (c - L'a' + 10);

  00022	44 0f b7 c1	 movzx	 r8d, cx
  00026	49 83 e8 57	 sub	 r8, 87			; 00000057H
  0002a	eb 1a		 jmp	 SHORT $LN5@BuildLeadi
$LN7@BuildLeadi:

; 54   : 
; 55   :         if (c >= L'A' && c <= L'F')

  0002c	8d 41 bf	 lea	 eax, DWORD PTR [rcx-65]
  0002f	66 83 f8 05	 cmp	 ax, 5
  00033	77 0a		 ja	 SHORT $LN8@BuildLeadi

; 56   :             return (c - L'A' + 10);

  00035	44 0f b7 c1	 movzx	 r8d, cx
  00039	49 83 e8 37	 sub	 r8, 55			; 00000037H
  0003d	eb 07		 jmp	 SHORT $LN5@BuildLeadi
$LN8@BuildLeadi:

; 57   :         return (-1);

  0003f	49 c7 c0 ff ff
	ff ff		 mov	 r8, -1
$LN5@BuildLeadi:

; 1116 :         __UNIT_TYPE x = ParseHexDigit(*in_ptr);

  00046	49 c1 e0 20	 shl	 r8, 32			; 00000020H

; 1117 :         ++in_ptr;

  0004a	49 83 c1 02	 add	 r9, 2
  0004e	49 c1 f8 20	 sar	 r8, 32			; 00000020H
  00052	48 83 ea 01	 sub	 rdx, 1

; 1118 :         --count;
; 1119 :         while (count > 0)

  00056	74 66		 je	 SHORT $LN19@BuildLeadi
  00058	0f 1f 84 00 00
	00 00 00	 npad	 8
$LL2@BuildLeadi:

; 1120 :         {
; 1121 :             x = x * 16 + ParseHexDigit(*in_ptr);

  00060	41 0f b7 09	 movzx	 ecx, WORD PTR [r9]

; 49   :         if (c >= L'0' && c <= L'9')

  00064	8d 41 d0	 lea	 eax, DWORD PTR [rcx-48]
  00067	66 83 f8 09	 cmp	 ax, 9
  0006b	77 09		 ja	 SHORT $LN11@BuildLeadi

; 50   :             return (c - L'0');

  0006d	0f b7 c1	 movzx	 eax, cx
  00070	48 83 e8 30	 sub	 rax, 48			; 00000030H
  00074	eb 2b		 jmp	 SHORT $LN10@BuildLeadi
$LN11@BuildLeadi:

; 51   : 
; 52   :         if (c >= L'a' && c <= L'f')

  00076	8d 41 9f	 lea	 eax, DWORD PTR [rcx-97]
  00079	66 83 f8 05	 cmp	 ax, 5
  0007d	77 09		 ja	 SHORT $LN12@BuildLeadi

; 53   :             return (c - L'a' + 10);

  0007f	0f b7 c1	 movzx	 eax, cx
  00082	48 83 e8 57	 sub	 rax, 87			; 00000057H
  00086	eb 19		 jmp	 SHORT $LN10@BuildLeadi
$LN12@BuildLeadi:

; 54   : 
; 55   :         if (c >= L'A' && c <= L'F')

  00088	8d 41 bf	 lea	 eax, DWORD PTR [rcx-65]
  0008b	66 83 f8 05	 cmp	 ax, 5
  0008f	77 09		 ja	 SHORT $LN13@BuildLeadi

; 56   :             return (c - L'A' + 10);

  00091	0f b7 c1	 movzx	 eax, cx
  00094	48 83 e8 37	 sub	 rax, 55			; 00000037H
  00098	eb 07		 jmp	 SHORT $LN10@BuildLeadi
$LN13@BuildLeadi:

; 57   :         return (-1);

  0009a	48 c7 c0 ff ff
	ff ff		 mov	 rax, -1
$LN10@BuildLeadi:

; 1120 :         {
; 1121 :             x = x * 16 + ParseHexDigit(*in_ptr);

  000a1	48 c1 e0 20	 shl	 rax, 32			; 00000020H
  000a5	49 8b c8	 mov	 rcx, r8
  000a8	48 c1 f8 20	 sar	 rax, 32			; 00000020H

; 1122 :             ++in_ptr;

  000ac	49 83 c1 02	 add	 r9, 2
  000b0	48 c1 e1 04	 shl	 rcx, 4
  000b4	4c 8d 04 01	 lea	 r8, QWORD PTR [rcx+rax]

; 1123 :             --count;

  000b8	48 83 ea 01	 sub	 rdx, 1
  000bc	75 a2		 jne	 SHORT $LL2@BuildLeadi
$LN19@BuildLeadi:

; 1124 :         }
; 1125 :         return (x);
; 1126 :     }

  000be	49 8b c0	 mov	 rax, r8
  000c1	c3		 ret	 0
?BuildLeading1WordFromHexString@Internal@Core@Math@Palmtree@@YA_KPEA_W_K@Z ENDP ; Palmtree::Math::Core::Internal::BuildLeading1WordFromHexString
_TEXT	ENDS
; Function compile flags: /Ogtpy
; File z:\sources\lunor\repos\rougemeilland\palmtree.math.core.uint\palmtree.math.core.uint\pmc_parse.cpp
; File z:\sources\lunor\repos\rougemeilland\palmtree.math.core.uint\palmtree.math.core.uint\pmc_inline_func.h
; File z:\sources\lunor\repos\rougemeilland\palmtree.math.core.uint\palmtree.math.core.uint\pmc_parse.cpp
; File z:\sources\lunor\repos\rougemeilland\palmtree.math.core.uint\palmtree.math.core.uint\pmc_inline_func.h
; File z:\sources\lunor\repos\rougemeilland\palmtree.math.core.uint\palmtree.math.core.uint\pmc_parse.cpp
;	COMDAT ?TryParseDN@Internal@Core@Math@Palmtree@@YAHPEB_WIPEBU__tag_PMC_NUMBER_FORMAT_INFO@1234@PEADPEAPEAU__tag_NUMBER_HEADER@1234@PEAI@Z
_TEXT	SEGMENT
root$ = 80
o_abs$GSCopy$1$ = 112
out_buf$1$ = 120
$T1 = 128
root$2 = 136
state$3 = 176
__$ArrayPad$ = 496
source$ = 576
number_styles$ = 584
format_option$ = 592
o_sign$ = 600
o_abs$ = 608
result$ = 616
?TryParseDN@Internal@Core@Math@Palmtree@@YAHPEB_WIPEBU__tag_PMC_NUMBER_FORMAT_INFO@1234@PEADPEAPEAU__tag_NUMBER_HEADER@1234@PEAI@Z PROC ; Palmtree::Math::Core::Internal::TryParseDN, COMDAT

; 967  :     {

  00000	40 55		 push	 rbp
  00002	56		 push	 rsi
  00003	57		 push	 rdi
  00004	41 54		 push	 r12
  00006	41 55		 push	 r13
  00008	41 56		 push	 r14
  0000a	41 57		 push	 r15
  0000c	48 81 ec 00 02
	00 00		 sub	 rsp, 512		; 00000200H
  00013	48 c7 84 24 80
	00 00 00 fe ff
	ff ff		 mov	 QWORD PTR $T1[rsp], -2
  0001f	48 89 9c 24 48
	02 00 00	 mov	 QWORD PTR [rsp+584], rbx
  00027	48 8b 05 00 00
	00 00		 mov	 rax, QWORD PTR __security_cookie
  0002e	48 33 c4	 xor	 rax, rsp
  00031	48 89 84 24 f0
	01 00 00	 mov	 QWORD PTR __$ArrayPad$[rsp], rax
  00039	4d 8b e9	 mov	 r13, r9
  0003c	49 8b d8	 mov	 rbx, r8
  0003f	8b ea		 mov	 ebp, edx
  00041	48 8b f1	 mov	 rsi, rcx
  00044	48 8b 84 24 60
	02 00 00	 mov	 rax, QWORD PTR o_abs$[rsp]
  0004c	48 89 44 24 70	 mov	 QWORD PTR o_abs$GSCopy$1$[rsp], rax
  00051	4c 8b a4 24 68
	02 00 00	 mov	 r12, QWORD PTR result$[rsp]

; 968  : #ifdef _M_IX86
; 969  :         int word_digit_count = 9;
; 970  : #elif defined(_M_X64)
; 971  :         int word_digit_count = 19;
; 972  : #else
; 973  : #error unknown platform
; 974  : #endif
; 975  : 
; 976  :         ResourceHolderUINT root;

  00059	48 8d 4c 24 50	 lea	 rcx, QWORD PTR root$[rsp]
  0005e	e8 00 00 00 00	 call	 ??0ResourceHolderUINT@Internal@Core@Math@Palmtree@@QEAA@XZ ; Palmtree::Math::Core::Internal::ResourceHolderUINT::ResourceHolderUINT
  00063	90		 npad	 1

; 977  : 
; 978  :         __UNIT_TYPE source_len = lstrlenW(source);

  00064	48 8b ce	 mov	 rcx, rsi
  00067	ff 15 00 00 00
	00		 call	 QWORD PTR __imp_lstrlenW
  0006d	48 63 f8	 movsxd	 rdi, eax

; 979  : 
; 980  :         size_t int_part_buf_count = source_len + 1;

  00070	48 ff c7	 inc	 rdi

; 981  :         wchar_t* int_part_buf = root.AllocateString(int_part_buf_count);

  00073	48 8b d7	 mov	 rdx, rdi
  00076	48 8d 4c 24 50	 lea	 rcx, QWORD PTR root$[rsp]
  0007b	e8 00 00 00 00	 call	 ?AllocateString@ResourceHolderUINT@Internal@Core@Math@Palmtree@@QEAAPEA_W_K@Z ; Palmtree::Math::Core::Internal::ResourceHolderUINT::AllocateString
  00080	4c 8b f8	 mov	 r15, rax

; 982  :         size_t frac_part_buf_count = source_len + 1;
; 983  :         wchar_t* frac_part_buf = root.AllocateString(frac_part_buf_count);

  00083	48 8b d7	 mov	 rdx, rdi
  00086	48 8d 4c 24 50	 lea	 rcx, QWORD PTR root$[rsp]
  0008b	e8 00 00 00 00	 call	 ?AllocateString@ResourceHolderUINT@Internal@Core@Math@Palmtree@@QEAAPEA_W_K@Z ; Palmtree::Math::Core::Internal::ResourceHolderUINT::AllocateString
  00090	4c 8b f0	 mov	 r14, rax

; 550  :         ParserState state(in_ptr, number_styles, format_option, sign, int_part_buf, int_part_buf_size, frac_part_buf, frac_part_buf_size);

  00093	48 89 7c 24 40	 mov	 QWORD PTR [rsp+64], rdi
  00098	48 89 44 24 38	 mov	 QWORD PTR [rsp+56], rax
  0009d	48 89 7c 24 30	 mov	 QWORD PTR [rsp+48], rdi
  000a2	4c 89 7c 24 28	 mov	 QWORD PTR [rsp+40], r15
  000a7	4c 89 6c 24 20	 mov	 QWORD PTR [rsp+32], r13
  000ac	4c 8b cb	 mov	 r9, rbx
  000af	44 8b c5	 mov	 r8d, ebp
  000b2	48 8b d6	 mov	 rdx, rsi
  000b5	48 8d 8c 24 b0
	00 00 00	 lea	 rcx, QWORD PTR state$3[rsp]
  000bd	e8 00 00 00 00	 call	 ??0ParserState@Internal@Core@Math@Palmtree@@QEAA@PEB_WIPEBU__tag_PMC_NUMBER_FORMAT_INFO@1234@PEADPEA_W_K34@Z ; Palmtree::Math::Core::Internal::ParserState::ParserState

; 551  :         return (state.ParseAsDecimalNumberString());

  000c2	48 8d 8c 24 b0
	00 00 00	 lea	 rcx, QWORD PTR state$3[rsp]
  000ca	e8 00 00 00 00	 call	 ?ParseAsDecimalNumberString@ParserState@Internal@Core@Math@Palmtree@@QEAAHXZ ; Palmtree::Math::Core::Internal::ParserState::ParseAsDecimalNumberString
  000cf	8b f8		 mov	 edi, eax

; 984  :         bool result_parsing = ParseAsDecimalNumberString(source, number_styles, format_option, o_sign, int_part_buf, int_part_buf_count, frac_part_buf, frac_part_buf_count);
; 985  :         root.CheckString(int_part_buf);

  000d1	49 8b d7	 mov	 rdx, r15
  000d4	48 8d 4c 24 50	 lea	 rcx, QWORD PTR root$[rsp]
  000d9	e8 00 00 00 00	 call	 ?CheckString@ResourceHolderUINT@Internal@Core@Math@Palmtree@@QEAAXPEA_W@Z ; Palmtree::Math::Core::Internal::ResourceHolderUINT::CheckString

; 986  :         root.CheckString(frac_part_buf);

  000de	49 8b d6	 mov	 rdx, r14
  000e1	48 8d 4c 24 50	 lea	 rcx, QWORD PTR root$[rsp]
  000e6	e8 00 00 00 00	 call	 ?CheckString@ResourceHolderUINT@Internal@Core@Math@Palmtree@@QEAAXPEA_W@Z ; Palmtree::Math::Core::Internal::ResourceHolderUINT::CheckString

; 987  :         if (!result_parsing)

  000eb	85 ff		 test	 edi, edi
  000ed	75 18		 jne	 SHORT $LN9@TryParseDN

; 988  :         {
; 989  :             *result = 0;

  000ef	33 db		 xor	 ebx, ebx
  000f1	41 89 1c 24	 mov	 DWORD PTR [r12], ebx

; 990  :             if (number_styles & PMC_NUMBER_STYLE_ALLOW_EXCEPTION_THROWING)

  000f5	81 e5 00 00 00
	02		 and	 ebp, 33554432		; 02000000H

; 620  :             source_count -= r;

  000fb	f7 dd		 neg	 ebp
  000fd	1b db		 sbb	 ebx, ebx
  000ff	83 e3 f9	 and	 ebx, -7
  00102	e9 2a 03 00 00	 jmp	 $LN39@TryParseDN
$LN9@TryParseDN:

; 991  :                 return (PMC_STATUS_FORMAT_ERROR);
; 992  :             return (PMC_STATUS_OK);
; 993  :         }
; 994  :         if (int_part_buf[0] == L'\0' && (frac_part_buf[0] == L'\0' || frac_part_buf[0] == L'.' && frac_part_buf[1] == L'\0'))

  00107	41 0f b7 0f	 movzx	 ecx, WORD PTR [r15]
  0010b	66 85 c9	 test	 cx, cx
  0010e	75 30		 jne	 SHORT $LN11@TryParseDN
  00110	41 0f b7 06	 movzx	 eax, WORD PTR [r14]
  00114	66 85 c0	 test	 ax, ax
  00117	74 0d		 je	 SHORT $LN12@TryParseDN
  00119	66 83 f8 2e	 cmp	 ax, 46			; 0000002eH
  0011d	75 21		 jne	 SHORT $LN11@TryParseDN
  0011f	66 41 39 4e 02	 cmp	 WORD PTR [r14+2], cx
  00124	75 1a		 jne	 SHORT $LN11@TryParseDN
$LN12@TryParseDN:

; 995  :         {
; 996  :             // 
; 997  :             *result = 0;

  00126	33 db		 xor	 ebx, ebx
  00128	41 89 1c 24	 mov	 DWORD PTR [r12], ebx

; 998  :             if (number_styles & PMC_NUMBER_STYLE_ALLOW_EXCEPTION_THROWING)

  0012c	0f ba e5 19	 bt	 ebp, 25
  00130	0f 83 fb 02 00
	00		 jae	 $LN39@TryParseDN

; 999  :                 return (PMC_STATUS_FORMAT_ERROR);

  00136	bb f9 ff ff ff	 mov	 ebx, -7
  0013b	e9 f1 02 00 00	 jmp	 $LN39@TryParseDN
$LN11@TryParseDN:

; 1000 :             return (PMC_STATUS_OK);
; 1001 :         }
; 1002 : 
; 1003 :         if (*o_sign < 0 && frac_part_buf[0] != L'\0')

  00140	41 80 7d 00 00	 cmp	 BYTE PTR [r13], 0
  00145	7d 27		 jge	 SHORT $LN15@TryParseDN
  00147	66 41 83 3e 00	 cmp	 WORD PTR [r14], 0
  0014c	74 20		 je	 SHORT $LN15@TryParseDN

; 1004 :         {
; 1005 :             //  (OverflowException) ( '0' )
; 1006 :             //  uint.Parse 
; 1007 : 
; 1008 :             if ((number_styles & PMC_NUMBER_STYLE_ALLOW_SIGNED_INTEGER) == 0)

  0014e	0f ba e5 18	 bt	 ebp, 24
  00152	72 1a		 jb	 SHORT $LN15@TryParseDN

; 1009 :             {
; 1010 :                 // 
; 1011 : 
; 1012 :                 *result = 0;

  00154	33 db		 xor	 ebx, ebx
$LN20@TryParseDN:

; 1111 :         return (PMC_STATUS_OK);

  00156	41 89 1c 24	 mov	 DWORD PTR [r12], ebx
  0015a	0f ba e5 19	 bt	 ebp, 25
  0015e	0f 83 cd 02 00
	00		 jae	 $LN39@TryParseDN
  00164	bb fc ff ff ff	 mov	 ebx, -4
  00169	e9 c3 02 00 00	 jmp	 $LN39@TryParseDN
$LN15@TryParseDN:

; 1013 :                 if (number_styles & PMC_NUMBER_STYLE_ALLOW_EXCEPTION_THROWING)
; 1014 :                     return (PMC_STATUS_OVERFLOW);
; 1015 :                 return (PMC_STATUS_OK);
; 1016 :             }
; 1017 :         }
; 1018 : 
; 1019 :         if (int_part_buf[0] == L'0')

  0016e	66 83 f9 30	 cmp	 cx, 48			; 00000030H
  00172	75 40		 jne	 SHORT $LN71@TryParseDN

; 1020 :         {
; 1021 :             //  0 
; 1022 :             wchar_t* s_ptr = int_part_buf;

  00174	49 8b c7	 mov	 rax, r15

; 1023 :             wchar_t* d_ptr = int_part_buf;

  00177	49 8b d7	 mov	 rdx, r15
  0017a	66 0f 1f 44 00
	00		 npad	 6
$LL2@TryParseDN:

; 1025 :                 ++s_ptr;

  00180	48 83 c0 02	 add	 rax, 2

; 1024 :             while (*s_ptr == L'0')

  00184	0f b7 08	 movzx	 ecx, WORD PTR [rax]
  00187	66 83 f9 30	 cmp	 cx, 48			; 00000030H
  0018b	74 f3		 je	 SHORT $LL2@TryParseDN

; 1026 :             for (;;)
; 1027 :             {
; 1028 :                 *d_ptr = *s_ptr;

  0018d	66 41 89 0f	 mov	 WORD PTR [r15], cx

; 1029 :                 if (*s_ptr == L'\0')

  00191	66 83 38 00	 cmp	 WORD PTR [rax], 0
  00195	74 1d		 je	 SHORT $LN71@TryParseDN
  00197	66 0f 1f 84 00
	00 00 00 00	 npad	 9
$LL4@TryParseDN:

; 1030 :                     break;
; 1031 :                 ++s_ptr;

  001a0	48 8d 40 02	 lea	 rax, QWORD PTR [rax+2]

; 1032 :                 ++d_ptr;

  001a4	48 8d 52 02	 lea	 rdx, QWORD PTR [rdx+2]

; 1026 :             for (;;)
; 1027 :             {
; 1028 :                 *d_ptr = *s_ptr;

  001a8	0f b7 08	 movzx	 ecx, WORD PTR [rax]
  001ab	66 89 0a	 mov	 WORD PTR [rdx], cx

; 1029 :                 if (*s_ptr == L'\0')

  001ae	66 83 38 00	 cmp	 WORD PTR [rax], 0
  001b2	75 ec		 jne	 SHORT $LL4@TryParseDN
$LN71@TryParseDN:

; 1033 :             }
; 1034 :         }
; 1035 : 
; 1036 :         //  0 
; 1037 :         wchar_t* frac_ptr = frac_part_buf + lstrlenW(frac_part_buf);

  001b4	49 8b ce	 mov	 rcx, r14
  001b7	ff 15 00 00 00
	00		 call	 QWORD PTR __imp_lstrlenW
  001bd	48 63 c8	 movsxd	 rcx, eax
  001c0	49 8d 04 4e	 lea	 rax, QWORD PTR [r14+rcx*2]

; 1038 :         while (frac_ptr > frac_part_buf && frac_ptr[-1] == L'0')

  001c4	49 3b c6	 cmp	 rax, r14
  001c7	76 19		 jbe	 SHORT $LN8@TryParseDN
  001c9	0f 1f 80 00 00
	00 00		 npad	 7
$LL7@TryParseDN:
  001d0	48 8d 48 fe	 lea	 rcx, QWORD PTR [rax-2]
  001d4	66 83 39 30	 cmp	 WORD PTR [rcx], 48	; 00000030H
  001d8	75 08		 jne	 SHORT $LN8@TryParseDN

; 1039 :             --frac_ptr;

  001da	48 8b c1	 mov	 rax, rcx

; 1038 :         while (frac_ptr > frac_part_buf && frac_ptr[-1] == L'0')

  001dd	49 3b ce	 cmp	 rcx, r14
  001e0	77 ee		 ja	 SHORT $LL7@TryParseDN
$LN8@TryParseDN:

; 1040 :         *frac_ptr = L'\0';

  001e2	33 db		 xor	 ebx, ebx
  001e4	66 89 18	 mov	 WORD PTR [rax], bx

; 1041 : 
; 1042 :         //  0 
; 1043 :         if (!(frac_part_buf[0] == L'\0' || frac_part_buf[0] == L'.' && frac_part_buf[1] == L'\0'))

  001e7	41 0f b7 06	 movzx	 eax, WORD PTR [r14]
  001eb	66 85 c0	 test	 ax, ax
  001ee	74 15		 je	 SHORT $LN19@TryParseDN
  001f0	66 83 f8 2e	 cmp	 ax, 46			; 0000002eH
  001f4	0f 85 5c ff ff
	ff		 jne	 $LN20@TryParseDN
  001fa	66 41 39 5e 02	 cmp	 WORD PTR [r14+2], bx
  001ff	0f 85 51 ff ff
	ff		 jne	 $LN20@TryParseDN
$LN19@TryParseDN:

; 1044 :         {
; 1045 :             *result = 0;
; 1046 :             if (number_styles & PMC_NUMBER_STYLE_ALLOW_EXCEPTION_THROWING)
; 1047 :                 return (PMC_STATUS_OVERFLOW);
; 1048 :             return (PMC_STATUS_OK);
; 1049 :         }
; 1050 : 
; 1051 :         if (int_part_buf[0] == L'\0')

  00205	66 41 39 1f	 cmp	 WORD PTR [r15], bx
  00209	75 0b		 jne	 SHORT $LN22@TryParseDN

; 1052 :         {
; 1053 :             // 
; 1054 : 
; 1055 :             //  0  
; 1056 :             *o_sign = 0;

  0020b	41 88 5d 00	 mov	 BYTE PTR [r13], bl

; 1057 : 
; 1058 :             //  0 
; 1059 :             int_part_buf[0] = L'0';

  0020f	41 c7 07 30 00
	00 00		 mov	 DWORD PTR [r15], 48	; 00000030H
$LN22@TryParseDN:

; 1060 :             int_part_buf[1] = L'\0';
; 1061 :         }
; 1062 : 
; 1063 :         if (*o_sign < 0)

  00216	41 38 5d 00	 cmp	 BYTE PTR [r13], bl
  0021a	7d 0a		 jge	 SHORT $LN24@TryParseDN

; 1064 :         {
; 1065 :             // 
; 1066 : 
; 1067 :             if ((number_styles & PMC_NUMBER_STYLE_ALLOW_SIGNED_INTEGER) == 0)

  0021c	0f ba e5 18	 bt	 ebp, 24
  00220	0f 83 30 ff ff
	ff		 jae	 $LN20@TryParseDN
$LN24@TryParseDN:

; 1068 :             {
; 1069 :                 // 
; 1070 : 
; 1071 :                 *result = 0;
; 1072 :                 if (number_styles & PMC_NUMBER_STYLE_ALLOW_EXCEPTION_THROWING)
; 1073 :                     return (PMC_STATUS_OVERFLOW);
; 1074 :                 return (PMC_STATUS_OK);
; 1075 :             }
; 1076 :         }
; 1077 : 
; 1078 :         // 
; 1079 :         root.DeallocateString(frac_part_buf);

  00226	49 8b d6	 mov	 rdx, r14
  00229	48 8d 4c 24 50	 lea	 rcx, QWORD PTR root$[rsp]
  0022e	e8 00 00 00 00	 call	 ?DeallocateString@ResourceHolderUINT@Internal@Core@Math@Palmtree@@QEAAXPEA_W@Z ; Palmtree::Math::Core::Internal::ResourceHolderUINT::DeallocateString

; 1082 :         __UNIT_TYPE* bin_buf = root.AllocateBlock(_DIVIDE_CEILING_SIZE(lstrlenW(int_part_buf), word_digit_count) * __UNIT_TYPE_BIT_COUNT);

  00233	49 8b cf	 mov	 rcx, r15
  00236	ff 15 00 00 00
	00		 call	 QWORD PTR __imp_lstrlenW
  0023c	48 63 c8	 movsxd	 rcx, eax
; File z:\sources\lunor\repos\rougemeilland\palmtree.math.core.uint\palmtree.math.core.uint\pmc_inline_func.h

; 162  :             return ((u + v - 1) / v);

  0023f	48 83 c1 12	 add	 rcx, 18
  00243	48 bd 5f 43 79
	0d e5 35 94 d7	 mov	 rbp, -2912643801112034465 ; d79435e50d79435fH
  0024d	48 8b c5	 mov	 rax, rbp
  00250	48 f7 e1	 mul	 rcx
  00253	48 c1 ea 04	 shr	 rdx, 4
; File z:\sources\lunor\repos\rougemeilland\palmtree.math.core.uint\palmtree.math.core.uint\pmc_parse.cpp

; 1082 :         __UNIT_TYPE* bin_buf = root.AllocateBlock(_DIVIDE_CEILING_SIZE(lstrlenW(int_part_buf), word_digit_count) * __UNIT_TYPE_BIT_COUNT);

  00257	48 c1 e2 06	 shl	 rdx, 6
  0025b	48 8d 4c 24 50	 lea	 rcx, QWORD PTR root$[rsp]
  00260	e8 00 00 00 00	 call	 ?AllocateBlock@ResourceHolderUINT@Internal@Core@Math@Palmtree@@QEAAPEA_K_K@Z ; Palmtree::Math::Core::Internal::ResourceHolderUINT::AllocateBlock
  00265	4c 8b e8	 mov	 r13, rax

; 612  :         wchar_t* in_ptr = source;

  00268	49 8b ff	 mov	 rdi, r15

; 613  :         __UNIT_TYPE* out_ptr = out_buf;

  0026b	48 8b f0	 mov	 rsi, rax

; 614  :         __UNIT_TYPE source_count = lstrlenW(source);

  0026e	49 8b cf	 mov	 rcx, r15
  00271	ff 15 00 00 00
	00		 call	 QWORD PTR __imp_lstrlenW
  00277	4c 63 c0	 movsxd	 r8, eax

; 615  :         int r = source_count % word_digit_count;

  0027a	48 8b c5	 mov	 rax, rbp
  0027d	49 f7 e0	 mul	 r8
  00280	48 c1 ea 04	 shr	 rdx, 4
  00284	48 6b ca 13	 imul	 rcx, rdx, 19
  00288	49 8b c0	 mov	 rax, r8
  0028b	48 2b c1	 sub	 rax, rcx

; 616  :         if (r > 0)

  0028e	85 c0		 test	 eax, eax
  00290	7e 4a		 jle	 SHORT $LN91@TryParseDN

; 617  :         {
; 618  :             *out_ptr++ = BuildLeading1WordFromDecimalString(in_ptr, r);

  00292	4c 63 c8	 movsxd	 r9, eax
  00295	49 8b d7	 mov	 rdx, r15

; 556  :         __UNIT_TYPE x = 0;

  00298	48 8b fb	 mov	 rdi, rbx

; 618  :             *out_ptr++ = BuildLeading1WordFromDecimalString(in_ptr, r);

  0029b	49 8b f1	 mov	 rsi, r9
  0029e	66 90		 npad	 2
$LL52@TryParseDN:

; 559  :             x = x * 10 + ParseDecimalDigit(*in_ptr++);

  002a0	0f b7 0a	 movzx	 ecx, WORD PTR [rdx]
  002a3	48 8d 52 02	 lea	 rdx, QWORD PTR [rdx+2]

; 42   :         if (c >= L'0' && c <= L'9')

  002a7	8d 41 d0	 lea	 eax, DWORD PTR [rcx-48]
  002aa	66 83 f8 09	 cmp	 ax, 9
  002ae	77 08		 ja	 SHORT $LN56@TryParseDN

; 43   :             return (c - L'0');

  002b0	0f b7 c1	 movzx	 eax, cx
  002b3	83 e8 30	 sub	 eax, 48			; 00000030H
  002b6	eb 05		 jmp	 SHORT $LN55@TryParseDN
$LN56@TryParseDN:

; 44   :         return (-1);

  002b8	b8 ff ff ff ff	 mov	 eax, -1
$LN55@TryParseDN:

; 559  :             x = x * 10 + ParseDecimalDigit(*in_ptr++);

  002bd	48 8d 0c bf	 lea	 rcx, QWORD PTR [rdi+rdi*4]
  002c1	48 98		 cdqe
  002c3	48 8d 3c 48	 lea	 rdi, QWORD PTR [rax+rcx*2]

; 560  :             --count;

  002c7	48 83 ee 01	 sub	 rsi, 1

; 557  :         while (count > 0)

  002cb	75 d3		 jne	 SHORT $LL52@TryParseDN

; 618  :             *out_ptr++ = BuildLeading1WordFromDecimalString(in_ptr, r);

  002cd	49 89 7d 00	 mov	 QWORD PTR [r13], rdi
  002d1	49 8d 75 08	 lea	 rsi, QWORD PTR [r13+8]

; 619  :             in_ptr += r;

  002d5	4b 8d 3c 4f	 lea	 rdi, QWORD PTR [r15+r9*2]

; 620  :             source_count -= r;

  002d9	4d 2b c1	 sub	 r8, r9
$LN91@TryParseDN:

; 621  :         }
; 622  :         while (source_count > 0)

  002dc	4d 85 c0	 test	 r8, r8
  002df	74 2d		 je	 SHORT $LN48@TryParseDN
  002e1	49 8d 48 ff	 lea	 rcx, QWORD PTR [r8-1]
  002e5	48 8b c5	 mov	 rax, rbp
  002e8	48 f7 e1	 mul	 rcx
  002eb	4c 8b d2	 mov	 r10, rdx
  002ee	49 c1 ea 04	 shr	 r10, 4
  002f2	49 ff c2	 inc	 r10
$LL47@TryParseDN:

; 623  :         {
; 624  :             *out_ptr++ = Build1WordFromDecimalString(in_ptr);

  002f5	48 8b cf	 mov	 rcx, rdi
  002f8	e8 00 00 00 00	 call	 ?Build1WordFromDecimalString@Internal@Core@Math@Palmtree@@YA_KPEA_W@Z ; Palmtree::Math::Core::Internal::Build1WordFromDecimalString
  002fd	48 89 06	 mov	 QWORD PTR [rsi], rax
  00300	48 83 c6 08	 add	 rsi, 8

; 625  :             in_ptr += word_digit_count;

  00304	48 83 c7 26	 add	 rdi, 38			; 00000026H

; 621  :         }
; 622  :         while (source_count > 0)

  00308	49 83 ea 01	 sub	 r10, 1
  0030c	75 e7		 jne	 SHORT $LL47@TryParseDN
$LN48@TryParseDN:

; 626  :             source_count -= word_digit_count;
; 627  :         }
; 628  :         *out_buf_count = out_ptr - out_buf;

  0030e	49 2b f5	 sub	 rsi, r13
  00311	48 c1 fe 03	 sar	 rsi, 3

; 1083 :         __UNIT_TYPE bin_buf_count;
; 1084 :         BuildBinaryFromDecimalString(int_part_buf, bin_buf, &bin_buf_count);
; 1085 :         root.CheckBlock(bin_buf);

  00315	49 8b d5	 mov	 rdx, r13
  00318	48 8d 4c 24 50	 lea	 rcx, QWORD PTR root$[rsp]
  0031d	e8 00 00 00 00	 call	 ?CheckBlock@ResourceHolderUINT@Internal@Core@Math@Palmtree@@QEAAXPEA_K@Z ; Palmtree::Math::Core::Internal::ResourceHolderUINT::CheckBlock

; 1086 :         root.DeallocateString(int_part_buf);

  00322	49 8b d7	 mov	 rdx, r15
  00325	48 8d 4c 24 50	 lea	 rcx, QWORD PTR root$[rsp]
  0032a	e8 00 00 00 00	 call	 ?DeallocateString@ResourceHolderUINT@Internal@Core@Math@Palmtree@@QEAAXPEA_W@Z ; Palmtree::Math::Core::Internal::ResourceHolderUINT::DeallocateString

; 1087 : 
; 1088 :         // 10^word_digit_count  10 
; 1089 :         __UNIT_TYPE o_bit_count = bin_buf_count * __UNIT_TYPE_BIT_COUNT;

  0032f	48 8b fe	 mov	 rdi, rsi
  00332	48 c1 e7 06	 shl	 rdi, 6

; 1090 :         *o_abs = root.AllocateNumber(o_bit_count);

  00336	48 8b d7	 mov	 rdx, rdi
  00339	48 8d 4c 24 50	 lea	 rcx, QWORD PTR root$[rsp]
  0033e	e8 00 00 00 00	 call	 ?AllocateNumber@ResourceHolderUINT@Internal@Core@Math@Palmtree@@QEAAPEAU__tag_NUMBER_HEADER@2345@_K@Z ; Palmtree::Math::Core::Internal::ResourceHolderUINT::AllocateNumber
  00343	48 8b 4c 24 70	 mov	 rcx, QWORD PTR o_abs$GSCopy$1$[rsp]
  00348	48 89 01	 mov	 QWORD PTR [rcx], rax

; 1091 :         ConvertCardinalNumber(bin_buf, bin_buf_count, (*o_abs)->BLOCK);

  0034b	48 8b 40 40	 mov	 rax, QWORD PTR [rax+64]
  0034f	48 89 44 24 78	 mov	 QWORD PTR out_buf$1$[rsp], rax

; 949  :         ResourceHolderUINT root;

  00354	48 8d 8c 24 88
	00 00 00	 lea	 rcx, QWORD PTR root$2[rsp]
  0035c	e8 00 00 00 00	 call	 ??0ResourceHolderUINT@Internal@Core@Math@Palmtree@@QEAA@XZ ; Palmtree::Math::Core::Internal::ResourceHolderUINT::ResourceHolderUINT
  00361	90		 npad	 1

; 950  :         __UNIT_TYPE* work_buf = root.AllocateBlock(__UNIT_TYPE_BIT_COUNT * (in_buf_count + 1));

  00362	48 8d 57 40	 lea	 rdx, QWORD PTR [rdi+64]
  00366	48 8d 8c 24 88
	00 00 00	 lea	 rcx, QWORD PTR root$2[rsp]
  0036e	e8 00 00 00 00	 call	 ?AllocateBlock@ResourceHolderUINT@Internal@Core@Math@Palmtree@@QEAAPEA_K_K@Z ; Palmtree::Math::Core::Internal::ResourceHolderUINT::AllocateBlock
  00373	4c 8b f8	 mov	 r15, rax

; 951  :         __UNIT_TYPE work_buf_count = 1;

  00376	bd 01 00 00 00	 mov	 ebp, 1

; 952  :         work_buf[0] = in_buf[0];

  0037b	49 8b 4d 00	 mov	 rcx, QWORD PTR [r13]
  0037f	48 89 08	 mov	 QWORD PTR [rax], rcx

; 953  :         ++in_buf;

  00382	4d 8d 75 08	 lea	 r14, QWORD PTR [r13+8]

; 954  :         --in_buf_count;

  00386	48 2b f5	 sub	 rsi, rbp

; 955  :         while (in_buf_count > 0)

  00389	74 28		 je	 SHORT $LN60@TryParseDN
  0038b	0f 1f 44 00 00	 npad	 5
$LL59@TryParseDN:

; 956  :         {
; 957  :             __UNIT_TYPE* w_tail = (*fp_MultiplyAndAdd)(work_buf, work_buf_count, *in_buf);

  00390	4d 8b 06	 mov	 r8, QWORD PTR [r14]
  00393	48 8b d5	 mov	 rdx, rbp
  00396	49 8b cf	 mov	 rcx, r15
  00399	ff 15 00 00 00
	00		 call	 QWORD PTR ?fp_MultiplyAndAdd@Internal@Core@Math@Palmtree@@3P6APEA_KPEA_K_K1@ZEA
  0039f	48 8b e8	 mov	 rbp, rax

; 958  :             work_buf_count = w_tail - work_buf;

  003a2	49 2b ef	 sub	 rbp, r15
  003a5	48 c1 fd 03	 sar	 rbp, 3

; 959  :             ++in_buf;

  003a9	4d 8d 76 08	 lea	 r14, QWORD PTR [r14+8]

; 960  :             --in_buf_count;

  003ad	48 83 ee 01	 sub	 rsi, 1

; 955  :         while (in_buf_count > 0)

  003b1	75 dd		 jne	 SHORT $LL59@TryParseDN
$LN60@TryParseDN:

; 961  :         }
; 962  :         root.CheckBlock(work_buf);

  003b3	49 8b d7	 mov	 rdx, r15
  003b6	48 8d 8c 24 88
	00 00 00	 lea	 rcx, QWORD PTR root$2[rsp]
  003be	e8 00 00 00 00	 call	 ?CheckBlock@ResourceHolderUINT@Internal@Core@Math@Palmtree@@QEAAXPEA_K@Z ; Palmtree::Math::Core::Internal::ResourceHolderUINT::CheckBlock
; File z:\sources\lunor\repos\rougemeilland\palmtree.math.core.uint\palmtree.math.core.uint\pmc_inline_func.h

; 67   :             __movsq(d, s, count);

  003c3	48 8b 7c 24 78	 mov	 rdi, QWORD PTR out_buf$1$[rsp]
  003c8	49 8b f7	 mov	 rsi, r15
  003cb	48 8b cd	 mov	 rcx, rbp
  003ce	f3 48 a5	 rep movsq
; File z:\sources\lunor\repos\rougemeilland\palmtree.math.core.uint\palmtree.math.core.uint\pmc_parse.cpp

; 964  :     }

  003d1	48 8d 8c 24 88
	00 00 00	 lea	 rcx, QWORD PTR root$2[rsp]
  003d9	e8 00 00 00 00	 call	 ??1ResourceHolderUINT@Internal@Core@Math@Palmtree@@UEAA@XZ ; Palmtree::Math::Core::Internal::ResourceHolderUINT::~ResourceHolderUINT

; 1092 :         root.CheckNumber(*o_abs);

  003de	48 8b 7c 24 70	 mov	 rdi, QWORD PTR o_abs$GSCopy$1$[rsp]
  003e3	48 8b 17	 mov	 rdx, QWORD PTR [rdi]
  003e6	48 8d 4c 24 50	 lea	 rcx, QWORD PTR root$[rsp]
  003eb	e8 00 00 00 00	 call	 ?CheckNumber@ResourceHolderUINT@Internal@Core@Math@Palmtree@@QEAAXPEAU__tag_NUMBER_HEADER@2345@@Z ; Palmtree::Math::Core::Internal::ResourceHolderUINT::CheckNumber

; 1093 :         root.DeallocateBlock(bin_buf);

  003f0	49 8b d5	 mov	 rdx, r13
  003f3	48 8d 4c 24 50	 lea	 rcx, QWORD PTR root$[rsp]
  003f8	e8 00 00 00 00	 call	 ?DeallocateBlock@ResourceHolderUINT@Internal@Core@Math@Palmtree@@QEAAXPEA_K@Z ; Palmtree::Math::Core::Internal::ResourceHolderUINT::DeallocateBlock

; 1094 :         CommitNumber(*o_abs);

  003fd	48 8b 0f	 mov	 rcx, QWORD PTR [rdi]
  00400	e8 00 00 00 00	 call	 ?CommitNumber@Internal@Core@Math@Palmtree@@YAXPEAU__tag_NUMBER_HEADER@1234@@Z ; Palmtree::Math::Core::Internal::CommitNumber

; 1095 :         if ((*o_abs)->IS_ZERO)

  00405	48 8b 17	 mov	 rdx, QWORD PTR [rdi]
  00408	48 8d 4c 24 50	 lea	 rcx, QWORD PTR root$[rsp]
  0040d	f6 42 08 01	 test	 BYTE PTR [rdx+8], 1
  00411	74 11		 je	 SHORT $LN26@TryParseDN

; 1096 :         {
; 1097 :             root.DeallocateNumber(*o_abs);

  00413	e8 00 00 00 00	 call	 ?DeallocateNumber@ResourceHolderUINT@Internal@Core@Math@Palmtree@@QEAAXPEAU__tag_NUMBER_HEADER@2345@@Z ; Palmtree::Math::Core::Internal::ResourceHolderUINT::DeallocateNumber

; 1098 :             *o_abs = &number_zero;

  00418	48 8d 05 00 00
	00 00		 lea	 rax, OFFSET FLAT:?number_zero@Internal@Core@Math@Palmtree@@3U__tag_NUMBER_HEADER@1234@A ; Palmtree::Math::Core::Internal::number_zero
  0041f	48 89 07	 mov	 QWORD PTR [rdi], rax

; 1099 :         }
; 1100 :         else

  00422	eb 05		 jmp	 SHORT $LN27@TryParseDN
$LN26@TryParseDN:

; 1101 :             root.UnlinkNumber(*o_abs);

  00424	e8 00 00 00 00	 call	 ?UnlinkNumber@ResourceHolderUINT@Internal@Core@Math@Palmtree@@QEAAXPEAU__tag_NUMBER_HEADER@2345@@Z ; Palmtree::Math::Core::Internal::ResourceHolderUINT::UnlinkNumber
$LN27@TryParseDN:

; 1102 : #ifdef _DEBUG
; 1103 :         if (*o_sign != 0 && *o_sign != 1 && *o_sign != -1)
; 1104 :             throw InternalErrorException(L"", L"pmc_parse.cpp;TryParseDN;1");
; 1105 :         if (*o_sign == 0 && !(*o_abs)->IS_ZERO)
; 1106 :             throw InternalErrorException(L"", L"pmc_parse.cpp;TryParseDN;2");
; 1107 :         if (*o_sign != 0 && (*o_abs)->IS_ZERO)
; 1108 :             throw InternalErrorException(L"", L"pmc_parse.cpp;TryParseDN;3");
; 1109 : #endif
; 1110 :         *result = 1;

  00429	41 c7 04 24 01
	00 00 00	 mov	 DWORD PTR [r12], 1
$LN39@TryParseDN:

; 1111 :         return (PMC_STATUS_OK);

  00431	48 8d 4c 24 50	 lea	 rcx, QWORD PTR root$[rsp]
  00436	e8 00 00 00 00	 call	 ??1ResourceHolderUINT@Internal@Core@Math@Palmtree@@UEAA@XZ ; Palmtree::Math::Core::Internal::ResourceHolderUINT::~ResourceHolderUINT
  0043b	8b c3		 mov	 eax, ebx

; 1112 :     }

  0043d	48 8b 8c 24 f0
	01 00 00	 mov	 rcx, QWORD PTR __$ArrayPad$[rsp]
  00445	48 33 cc	 xor	 rcx, rsp
  00448	e8 00 00 00 00	 call	 __security_check_cookie
  0044d	48 8b 9c 24 48
	02 00 00	 mov	 rbx, QWORD PTR [rsp+584]
  00455	48 81 c4 00 02
	00 00		 add	 rsp, 512		; 00000200H
  0045c	41 5f		 pop	 r15
  0045e	41 5e		 pop	 r14
  00460	41 5d		 pop	 r13
  00462	41 5c		 pop	 r12
  00464	5f		 pop	 rdi
  00465	5e		 pop	 rsi
  00466	5d		 pop	 rbp
  00467	c3		 ret	 0
?TryParseDN@Internal@Core@Math@Palmtree@@YAHPEB_WIPEBU__tag_PMC_NUMBER_FORMAT_INFO@1234@PEADPEAPEAU__tag_NUMBER_HEADER@1234@PEAI@Z ENDP ; Palmtree::Math::Core::Internal::TryParseDN
_TEXT	ENDS
;	COMDAT text$x
text$x	SEGMENT
root$ = 80
o_abs$GSCopy$1$ = 112
out_buf$1$ = 120
$T1 = 128
root$2 = 136
state$3 = 176
__$ArrayPad$ = 496
source$ = 576
number_styles$ = 584
format_option$ = 592
o_sign$ = 600
o_abs$ = 608
result$ = 616
?dtor$0@?0??TryParseDN@Internal@Core@Math@Palmtree@@YAHPEB_WIPEBU__tag_PMC_NUMBER_FORMAT_INFO@1234@PEADPEAPEAU__tag_NUMBER_HEADER@1234@PEAI@Z@4HA PROC ; `Palmtree::Math::Core::Internal::TryParseDN'::`1'::dtor$0
  00000	48 8d 8a 50 00
	00 00		 lea	 rcx, QWORD PTR root$[rdx]
  00007	e9 00 00 00 00	 jmp	 ??1ResourceHolderUINT@Internal@Core@Math@Palmtree@@UEAA@XZ ; Palmtree::Math::Core::Internal::ResourceHolderUINT::~ResourceHolderUINT
?dtor$0@?0??TryParseDN@Internal@Core@Math@Palmtree@@YAHPEB_WIPEBU__tag_PMC_NUMBER_FORMAT_INFO@1234@PEADPEAPEAU__tag_NUMBER_HEADER@1234@PEAI@Z@4HA ENDP ; `Palmtree::Math::Core::Internal::TryParseDN'::`1'::dtor$0
text$x	ENDS
;	COMDAT text$x
text$x	SEGMENT
root$ = 80
o_abs$GSCopy$1$ = 112
out_buf$1$ = 120
$T1 = 128
root$2 = 136
state$3 = 176
__$ArrayPad$ = 496
source$ = 576
number_styles$ = 584
format_option$ = 592
o_sign$ = 600
o_abs$ = 608
result$ = 616
?dtor$1@?0??TryParseDN@Internal@Core@Math@Palmtree@@YAHPEB_WIPEBU__tag_PMC_NUMBER_FORMAT_INFO@1234@PEADPEAPEAU__tag_NUMBER_HEADER@1234@PEAI@Z@4HA PROC ; `Palmtree::Math::Core::Internal::TryParseDN'::`1'::dtor$1
  00000	48 8d 8a 88 00
	00 00		 lea	 rcx, QWORD PTR root$2[rdx]
  00007	e9 00 00 00 00	 jmp	 ??1ResourceHolderUINT@Internal@Core@Math@Palmtree@@UEAA@XZ ; Palmtree::Math::Core::Internal::ResourceHolderUINT::~ResourceHolderUINT
?dtor$1@?0??TryParseDN@Internal@Core@Math@Palmtree@@YAHPEB_WIPEBU__tag_PMC_NUMBER_FORMAT_INFO@1234@PEADPEAPEAU__tag_NUMBER_HEADER@1234@PEAI@Z@4HA ENDP ; `Palmtree::Math::Core::Internal::TryParseDN'::`1'::dtor$1
text$x	ENDS
; Function compile flags: /Ogtpy
;	COMDAT text$x
text$x	SEGMENT
root$ = 80
o_abs$GSCopy$1$ = 112
out_buf$1$ = 120
$T1 = 128
root$2 = 136
state$3 = 176
__$ArrayPad$ = 496
source$ = 576
number_styles$ = 584
format_option$ = 592
o_sign$ = 600
o_abs$ = 608
result$ = 616
?dtor$0@?0??TryParseDN@Internal@Core@Math@Palmtree@@YAHPEB_WIPEBU__tag_PMC_NUMBER_FORMAT_INFO@1234@PEADPEAPEAU__tag_NUMBER_HEADER@1234@PEAI@Z@4HA PROC ; `Palmtree::Math::Core::Internal::TryParseDN'::`1'::dtor$0
  00000	48 8d 8a 50 00
	00 00		 lea	 rcx, QWORD PTR root$[rdx]
  00007	e9 00 00 00 00	 jmp	 ??1ResourceHolderUINT@Internal@Core@Math@Palmtree@@UEAA@XZ ; Palmtree::Math::Core::Internal::ResourceHolderUINT::~ResourceHolderUINT
?dtor$0@?0??TryParseDN@Internal@Core@Math@Palmtree@@YAHPEB_WIPEBU__tag_PMC_NUMBER_FORMAT_INFO@1234@PEADPEAPEAU__tag_NUMBER_HEADER@1234@PEAI@Z@4HA ENDP ; `Palmtree::Math::Core::Internal::TryParseDN'::`1'::dtor$0
text$x	ENDS
; Function compile flags: /Ogtpy
;	COMDAT text$x
text$x	SEGMENT
root$ = 80
o_abs$GSCopy$1$ = 112
out_buf$1$ = 120
$T1 = 128
root$2 = 136
state$3 = 176
__$ArrayPad$ = 496
source$ = 576
number_styles$ = 584
format_option$ = 592
o_sign$ = 600
o_abs$ = 608
result$ = 616
?dtor$1@?0??TryParseDN@Internal@Core@Math@Palmtree@@YAHPEB_WIPEBU__tag_PMC_NUMBER_FORMAT_INFO@1234@PEADPEAPEAU__tag_NUMBER_HEADER@1234@PEAI@Z@4HA PROC ; `Palmtree::Math::Core::Internal::TryParseDN'::`1'::dtor$1
  00000	48 8d 8a 88 00
	00 00		 lea	 rcx, QWORD PTR root$2[rdx]
  00007	e9 00 00 00 00	 jmp	 ??1ResourceHolderUINT@Internal@Core@Math@Palmtree@@UEAA@XZ ; Palmtree::Math::Core::Internal::ResourceHolderUINT::~ResourceHolderUINT
?dtor$1@?0??TryParseDN@Internal@Core@Math@Palmtree@@YAHPEB_WIPEBU__tag_PMC_NUMBER_FORMAT_INFO@1234@PEADPEAPEAU__tag_NUMBER_HEADER@1234@PEAI@Z@4HA ENDP ; `Palmtree::Math::Core::Internal::TryParseDN'::`1'::dtor$1
text$x	ENDS
; Function compile flags: /Ogtpy
; File z:\sources\lunor\repos\rougemeilland\palmtree.math.core.uint\palmtree.math.core.uint\pmc_parse.cpp
; File z:\sources\lunor\repos\rougemeilland\palmtree.math.core.uint\palmtree.math.core.uint\pmc_inline_func.h
; File z:\sources\lunor\repos\rougemeilland\palmtree.math.core.uint\palmtree.math.core.uint\pmc_parse.cpp
;	COMDAT ?ConvertCardinalNumber@Internal@Core@Math@Palmtree@@YAXPEA_K_K0@Z
_TEXT	SEGMENT
root$ = 40
in_buf$ = 112
in_buf_count$ = 120
out_buf$ = 128
?ConvertCardinalNumber@Internal@Core@Math@Palmtree@@YAXPEA_K_K0@Z PROC ; Palmtree::Math::Core::Internal::ConvertCardinalNumber, COMDAT

; 948  :     {

  00000	48 8b c4	 mov	 rax, rsp
  00003	57		 push	 rdi
  00004	41 56		 push	 r14
  00006	41 57		 push	 r15
  00008	48 83 ec 50	 sub	 rsp, 80			; 00000050H
  0000c	48 c7 40 b8 fe
	ff ff ff	 mov	 QWORD PTR [rax-72], -2
  00014	48 89 58 08	 mov	 QWORD PTR [rax+8], rbx
  00018	48 89 68 10	 mov	 QWORD PTR [rax+16], rbp
  0001c	48 89 70 18	 mov	 QWORD PTR [rax+24], rsi
  00020	4d 8b f8	 mov	 r15, r8
  00023	48 8b ea	 mov	 rbp, rdx
  00026	48 8b f1	 mov	 rsi, rcx

; 949  :         ResourceHolderUINT root;

  00029	48 8d 48 c0	 lea	 rcx, QWORD PTR [rax-64]
  0002d	e8 00 00 00 00	 call	 ??0ResourceHolderUINT@Internal@Core@Math@Palmtree@@QEAA@XZ ; Palmtree::Math::Core::Internal::ResourceHolderUINT::ResourceHolderUINT
  00032	90		 npad	 1

; 950  :         __UNIT_TYPE* work_buf = root.AllocateBlock(__UNIT_TYPE_BIT_COUNT * (in_buf_count + 1));

  00033	48 8d 55 01	 lea	 rdx, QWORD PTR [rbp+1]
  00037	48 c1 e2 06	 shl	 rdx, 6
  0003b	48 8d 4c 24 28	 lea	 rcx, QWORD PTR root$[rsp]
  00040	e8 00 00 00 00	 call	 ?AllocateBlock@ResourceHolderUINT@Internal@Core@Math@Palmtree@@QEAAPEA_K_K@Z ; Palmtree::Math::Core::Internal::ResourceHolderUINT::AllocateBlock
  00045	4c 8b f0	 mov	 r14, rax

; 951  :         __UNIT_TYPE work_buf_count = 1;

  00048	bb 01 00 00 00	 mov	 ebx, 1

; 952  :         work_buf[0] = in_buf[0];

  0004d	48 8b 3e	 mov	 rdi, QWORD PTR [rsi]
  00050	48 89 38	 mov	 QWORD PTR [rax], rdi

; 953  :         ++in_buf;

  00053	48 83 c6 08	 add	 rsi, 8

; 949  :         ResourceHolderUINT root;

  00057	48 83 ed 01	 sub	 rbp, 1

; 954  :         --in_buf_count;
; 955  :         while (in_buf_count > 0)

  0005b	74 26		 je	 SHORT $LN3@ConvertCar
  0005d	0f 1f 00	 npad	 3
$LL2@ConvertCar:

; 956  :         {
; 957  :             __UNIT_TYPE* w_tail = (*fp_MultiplyAndAdd)(work_buf, work_buf_count, *in_buf);

  00060	4c 8b 06	 mov	 r8, QWORD PTR [rsi]
  00063	48 8b d3	 mov	 rdx, rbx
  00066	49 8b ce	 mov	 rcx, r14
  00069	ff 15 00 00 00
	00		 call	 QWORD PTR ?fp_MultiplyAndAdd@Internal@Core@Math@Palmtree@@3P6APEA_KPEA_K_K1@ZEA
  0006f	48 8b d8	 mov	 rbx, rax

; 958  :             work_buf_count = w_tail - work_buf;

  00072	49 2b de	 sub	 rbx, r14
  00075	48 c1 fb 03	 sar	 rbx, 3

; 959  :             ++in_buf;

  00079	48 8d 76 08	 lea	 rsi, QWORD PTR [rsi+8]

; 960  :             --in_buf_count;

  0007d	48 83 ed 01	 sub	 rbp, 1

; 954  :         --in_buf_count;
; 955  :         while (in_buf_count > 0)

  00081	75 dd		 jne	 SHORT $LL2@ConvertCar
$LN3@ConvertCar:

; 961  :         }
; 962  :         root.CheckBlock(work_buf);

  00083	49 8b d6	 mov	 rdx, r14
  00086	48 8d 4c 24 28	 lea	 rcx, QWORD PTR root$[rsp]
  0008b	e8 00 00 00 00	 call	 ?CheckBlock@ResourceHolderUINT@Internal@Core@Math@Palmtree@@QEAAXPEA_K@Z ; Palmtree::Math::Core::Internal::ResourceHolderUINT::CheckBlock
; File z:\sources\lunor\repos\rougemeilland\palmtree.math.core.uint\palmtree.math.core.uint\pmc_inline_func.h

; 67   :             __movsq(d, s, count);

  00090	49 8b ff	 mov	 rdi, r15
  00093	49 8b f6	 mov	 rsi, r14
  00096	48 8b cb	 mov	 rcx, rbx
  00099	f3 48 a5	 rep movsq
; File z:\sources\lunor\repos\rougemeilland\palmtree.math.core.uint\palmtree.math.core.uint\pmc_parse.cpp

; 964  :     }

  0009c	48 8d 4c 24 28	 lea	 rcx, QWORD PTR root$[rsp]
  000a1	e8 00 00 00 00	 call	 ??1ResourceHolderUINT@Internal@Core@Math@Palmtree@@UEAA@XZ ; Palmtree::Math::Core::Internal::ResourceHolderUINT::~ResourceHolderUINT
  000a6	48 8b 5c 24 70	 mov	 rbx, QWORD PTR [rsp+112]
  000ab	48 8b 6c 24 78	 mov	 rbp, QWORD PTR [rsp+120]
  000b0	48 8b b4 24 80
	00 00 00	 mov	 rsi, QWORD PTR [rsp+128]
  000b8	48 83 c4 50	 add	 rsp, 80			; 00000050H
  000bc	41 5f		 pop	 r15
  000be	41 5e		 pop	 r14
  000c0	5f		 pop	 rdi
  000c1	c3		 ret	 0
?ConvertCardinalNumber@Internal@Core@Math@Palmtree@@YAXPEA_K_K0@Z ENDP ; Palmtree::Math::Core::Internal::ConvertCardinalNumber
_TEXT	ENDS
;	COMDAT text$x
text$x	SEGMENT
root$ = 40
in_buf$ = 112
in_buf_count$ = 120
out_buf$ = 128
?dtor$0@?0??ConvertCardinalNumber@Internal@Core@Math@Palmtree@@YAXPEA_K_K0@Z@4HA PROC ; `Palmtree::Math::Core::Internal::ConvertCardinalNumber'::`1'::dtor$0
  00000	48 8d 8a 28 00
	00 00		 lea	 rcx, QWORD PTR root$[rdx]
  00007	e9 00 00 00 00	 jmp	 ??1ResourceHolderUINT@Internal@Core@Math@Palmtree@@UEAA@XZ ; Palmtree::Math::Core::Internal::ResourceHolderUINT::~ResourceHolderUINT
?dtor$0@?0??ConvertCardinalNumber@Internal@Core@Math@Palmtree@@YAXPEA_K_K0@Z@4HA ENDP ; `Palmtree::Math::Core::Internal::ConvertCardinalNumber'::`1'::dtor$0
text$x	ENDS
; Function compile flags: /Ogtpy
;	COMDAT text$x
text$x	SEGMENT
root$ = 40
in_buf$ = 112
in_buf_count$ = 120
out_buf$ = 128
?dtor$0@?0??ConvertCardinalNumber@Internal@Core@Math@Palmtree@@YAXPEA_K_K0@Z@4HA PROC ; `Palmtree::Math::Core::Internal::ConvertCardinalNumber'::`1'::dtor$0
  00000	48 8d 8a 28 00
	00 00		 lea	 rcx, QWORD PTR root$[rdx]
  00007	e9 00 00 00 00	 jmp	 ??1ResourceHolderUINT@Internal@Core@Math@Palmtree@@UEAA@XZ ; Palmtree::Math::Core::Internal::ResourceHolderUINT::~ResourceHolderUINT
?dtor$0@?0??ConvertCardinalNumber@Internal@Core@Math@Palmtree@@YAXPEA_K_K0@Z@4HA ENDP ; `Palmtree::Math::Core::Internal::ConvertCardinalNumber'::`1'::dtor$0
text$x	ENDS
; Function compile flags: /Ogtpy
; File z:\sources\lunor\repos\rougemeilland\palmtree.math.core.uint\palmtree.math.core.uint\pmc_parse.cpp
; File z:\sources\lunor\repos\rougemeilland\palmtree.math.core.uint\palmtree.math.core.uint\pmc_inline_func.h
; File z:\sources\lunor\repos\rougemeilland\palmtree.math.core.uint\palmtree.math.core.uint\pmc_parse.cpp
; File z:\sources\lunor\repos\rougemeilland\palmtree.math.core.uint\palmtree.math.core.uint\pmc_inline_func.h
; File z:\sources\lunor\repos\rougemeilland\palmtree.math.core.uint\palmtree.math.core.uint\pmc_parse.cpp
; File z:\sources\lunor\repos\rougemeilland\palmtree.math.core.uint\palmtree.math.core.uint\pmc_inline_func.h
; File z:\sources\lunor\repos\rougemeilland\palmtree.math.core.uint\palmtree.math.core.uint\pmc_parse.cpp
; File z:\sources\lunor\repos\rougemeilland\palmtree.math.core.uint\palmtree.math.core.uint\pmc_inline_func.h
; File z:\sources\lunor\repos\rougemeilland\palmtree.math.core.uint\palmtree.math.core.uint\pmc_parse.cpp
; File z:\sources\lunor\repos\rougemeilland\palmtree.math.core.uint\palmtree.math.core.uint\pmc_inline_func.h
; File z:\sources\lunor\repos\rougemeilland\palmtree.math.core.uint\palmtree.math.core.uint\pmc_parse.cpp
; File z:\sources\lunor\repos\rougemeilland\palmtree.math.core.uint\palmtree.math.core.uint\pmc_inline_func.h
; File z:\sources\lunor\repos\rougemeilland\palmtree.math.core.uint\palmtree.math.core.uint\pmc_parse.cpp
; File z:\sources\lunor\repos\rougemeilland\palmtree.math.core.uint\palmtree.math.core.uint\pmc_inline_func.h
; File z:\sources\lunor\repos\rougemeilland\palmtree.math.core.uint\palmtree.math.core.uint\pmc_parse.cpp
; File z:\sources\lunor\repos\rougemeilland\palmtree.math.core.uint\palmtree.math.core.uint\pmc_inline_func.h
; File z:\sources\lunor\repos\rougemeilland\palmtree.math.core.uint\palmtree.math.core.uint\pmc_parse.cpp
; File z:\sources\lunor\repos\rougemeilland\palmtree.math.core.uint\palmtree.math.core.uint\pmc_inline_func.h
; File z:\sources\lunor\repos\rougemeilland\palmtree.math.core.uint\palmtree.math.core.uint\pmc_parse.cpp
; File z:\sources\lunor\repos\rougemeilland\palmtree.math.core.uint\palmtree.math.core.uint\pmc_inline_func.h
; File z:\sources\lunor\repos\rougemeilland\palmtree.math.core.uint\palmtree.math.core.uint\pmc_parse.cpp
; File z:\sources\lunor\repos\rougemeilland\palmtree.math.core.uint\palmtree.math.core.uint\pmc_inline_func.h
; File z:\sources\lunor\repos\rougemeilland\palmtree.math.core.uint\palmtree.math.core.uint\pmc_parse.cpp
; File z:\sources\lunor\repos\rougemeilland\palmtree.math.core.uint\palmtree.math.core.uint\pmc_inline_func.h
; File z:\sources\lunor\repos\rougemeilland\palmtree.math.core.uint\palmtree.math.core.uint\pmc_parse.cpp
; File z:\sources\lunor\repos\rougemeilland\palmtree.math.core.uint\palmtree.math.core.uint\pmc_inline_func.h
; File z:\sources\lunor\repos\rougemeilland\palmtree.math.core.uint\palmtree.math.core.uint\pmc_parse.cpp
; File z:\sources\lunor\repos\rougemeilland\palmtree.math.core.uint\palmtree.math.core.uint\pmc_inline_func.h
; File z:\sources\lunor\repos\rougemeilland\palmtree.math.core.uint\palmtree.math.core.uint\pmc_parse.cpp
; File z:\sources\lunor\repos\rougemeilland\palmtree.math.core.uint\palmtree.math.core.uint\pmc_inline_func.h
; File z:\sources\lunor\repos\rougemeilland\palmtree.math.core.uint\palmtree.math.core.uint\pmc_parse.cpp
; File z:\sources\lunor\repos\rougemeilland\palmtree.math.core.uint\palmtree.math.core.uint\pmc_inline_func.h
; File z:\sources\lunor\repos\rougemeilland\palmtree.math.core.uint\palmtree.math.core.uint\pmc_parse.cpp
; File z:\sources\lunor\repos\rougemeilland\palmtree.math.core.uint\palmtree.math.core.uint\pmc_inline_func.h
; File z:\sources\lunor\repos\rougemeilland\palmtree.math.core.uint\palmtree.math.core.uint\pmc_parse.cpp
; File z:\sources\lunor\repos\rougemeilland\palmtree.math.core.uint\palmtree.math.core.uint\pmc_inline_func.h
; File z:\sources\lunor\repos\rougemeilland\palmtree.math.core.uint\palmtree.math.core.uint\pmc_parse.cpp
; File z:\sources\lunor\repos\rougemeilland\palmtree.math.core.uint\palmtree.math.core.uint\pmc_inline_func.h
; File z:\sources\lunor\repos\rougemeilland\palmtree.math.core.uint\palmtree.math.core.uint\pmc_parse.cpp
; File z:\sources\lunor\repos\rougemeilland\palmtree.math.core.uint\palmtree.math.core.uint\pmc_inline_func.h
; File z:\sources\lunor\repos\rougemeilland\palmtree.math.core.uint\palmtree.math.core.uint\pmc_parse.cpp
; File z:\sources\lunor\repos\rougemeilland\palmtree.math.core.uint\palmtree.math.core.uint\pmc_inline_func.h
; File z:\sources\lunor\repos\rougemeilland\palmtree.math.core.uint\palmtree.math.core.uint\pmc_parse.cpp
; File z:\sources\lunor\repos\rougemeilland\palmtree.math.core.uint\palmtree.math.core.uint\pmc_inline_func.h
; File z:\sources\lunor\repos\rougemeilland\palmtree.math.core.uint\palmtree.math.core.uint\pmc_parse.cpp
; File z:\sources\lunor\repos\rougemeilland\palmtree.math.core.uint\palmtree.math.core.uint\pmc_inline_func.h
; File z:\sources\lunor\repos\rougemeilland\palmtree.math.core.uint\palmtree.math.core.uint\pmc_parse.cpp
; File z:\sources\lunor\repos\rougemeilland\palmtree.math.core.uint\palmtree.math.core.uint\pmc_inline_func.h
; File z:\sources\lunor\repos\rougemeilland\palmtree.math.core.uint\palmtree.math.core.uint\pmc_parse.cpp
; File z:\sources\lunor\repos\rougemeilland\palmtree.math.core.uint\palmtree.math.core.uint\pmc_inline_func.h
; File z:\sources\lunor\repos\rougemeilland\palmtree.math.core.uint\palmtree.math.core.uint\pmc_parse.cpp
; File z:\sources\lunor\repos\rougemeilland\palmtree.math.core.uint\palmtree.math.core.uint\pmc_inline_func.h
; File z:\sources\lunor\repos\rougemeilland\palmtree.math.core.uint\palmtree.math.core.uint\pmc_parse.cpp
; File z:\sources\lunor\repos\rougemeilland\palmtree.math.core.uint\palmtree.math.core.uint\pmc_inline_func.h
; File z:\sources\lunor\repos\rougemeilland\palmtree.math.core.uint\palmtree.math.core.uint\pmc_parse.cpp
; File z:\sources\lunor\repos\rougemeilland\palmtree.math.core.uint\palmtree.math.core.uint\pmc_inline_func.h
; File z:\sources\lunor\repos\rougemeilland\palmtree.math.core.uint\palmtree.math.core.uint\pmc_parse.cpp
; File z:\sources\lunor\repos\rougemeilland\palmtree.math.core.uint\palmtree.math.core.uint\pmc_inline_func.h
; File z:\sources\lunor\repos\rougemeilland\palmtree.math.core.uint\palmtree.math.core.uint\pmc_parse.cpp
; File z:\sources\lunor\repos\rougemeilland\palmtree.math.core.uint\palmtree.math.core.uint\pmc_inline_func.h
; File z:\sources\lunor\repos\rougemeilland\palmtree.math.core.uint\palmtree.math.core.uint\pmc_parse.cpp
; File z:\sources\lunor\repos\rougemeilland\palmtree.math.core.uint\palmtree.math.core.uint\pmc_inline_func.h
; File z:\sources\lunor\repos\rougemeilland\palmtree.math.core.uint\palmtree.math.core.uint\pmc_parse.cpp
; File z:\sources\lunor\repos\rougemeilland\palmtree.math.core.uint\palmtree.math.core.uint\pmc_inline_func.h
; File z:\sources\lunor\repos\rougemeilland\palmtree.math.core.uint\palmtree.math.core.uint\pmc_uint_internal.h
; File z:\sources\lunor\repos\rougemeilland\palmtree.math.core.uint\palmtree.math.core.uint\pmc_inline_func.h
; File z:\sources\lunor\repos\rougemeilland\palmtree.math.core.uint\palmtree.math.core.uint\pmc_parse.cpp
; File z:\sources\lunor\repos\rougemeilland\palmtree.math.core.uint\palmtree.math.core.uint\pmc_inline_func.h
; File z:\sources\lunor\repos\rougemeilland\palmtree.math.core.uint\palmtree.math.core.uint\pmc_uint_internal.h
; File z:\sources\lunor\repos\rougemeilland\palmtree.math.core.uint\palmtree.math.core.uint\pmc_parse.cpp
; File z:\sources\lunor\repos\rougemeilland\palmtree.math.core.uint\palmtree.math.core.uint\pmc_inline_func.h
; File z:\sources\lunor\repos\rougemeilland\palmtree.math.core.uint\palmtree.math.core.uint\pmc_parse.cpp
; File z:\sources\lunor\repos\rougemeilland\palmtree.math.core.uint\palmtree.math.core.uint\pmc_inline_func.h
; File z:\sources\lunor\repos\rougemeilland\palmtree.math.core.uint\palmtree.math.core.uint\pmc_parse.cpp
; File z:\sources\lunor\repos\rougemeilland\palmtree.math.core.uint\palmtree.math.core.uint\pmc_inline_func.h
; File z:\sources\lunor\repos\rougemeilland\palmtree.math.core.uint\palmtree.math.core.uint\pmc_parse.cpp
; File z:\sources\lunor\repos\rougemeilland\palmtree.math.core.uint\palmtree.math.core.uint\pmc_inline_func.h
; File z:\sources\lunor\repos\rougemeilland\palmtree.math.core.uint\palmtree.math.core.uint\pmc_parse.cpp
; File z:\sources\lunor\repos\rougemeilland\palmtree.math.core.uint\palmtree.math.core.uint\pmc_inline_func.h
; File z:\sources\lunor\repos\rougemeilland\palmtree.math.core.uint\palmtree.math.core.uint\pmc_parse.cpp
; File z:\sources\lunor\repos\rougemeilland\palmtree.math.core.uint\palmtree.math.core.uint\pmc_inline_func.h
; File z:\sources\lunor\repos\rougemeilland\palmtree.math.core.uint\palmtree.math.core.uint\pmc_parse.cpp
; File z:\sources\lunor\repos\rougemeilland\palmtree.math.core.uint\palmtree.math.core.uint\pmc_inline_func.h
; File z:\sources\lunor\repos\rougemeilland\palmtree.math.core.uint\palmtree.math.core.uint\pmc_parse.cpp
; File z:\sources\lunor\repos\rougemeilland\palmtree.math.core.uint\palmtree.math.core.uint\pmc_inline_func.h
; File z:\sources\lunor\repos\rougemeilland\palmtree.math.core.uint\palmtree.math.core.uint\pmc_parse.cpp
; File z:\sources\lunor\repos\rougemeilland\palmtree.math.core.uint\palmtree.math.core.uint\pmc_inline_func.h
; File z:\sources\lunor\repos\rougemeilland\palmtree.math.core.uint\palmtree.math.core.uint\pmc_parse.cpp
; File z:\sources\lunor\repos\rougemeilland\palmtree.math.core.uint\palmtree.math.core.uint\pmc_inline_func.h
; File z:\sources\lunor\repos\rougemeilland\palmtree.math.core.uint\palmtree.math.core.uint\pmc_parse.cpp
; File z:\sources\lunor\repos\rougemeilland\palmtree.math.core.uint\palmtree.math.core.uint\pmc_inline_func.h
; File z:\sources\lunor\repos\rougemeilland\palmtree.math.core.uint\palmtree.math.core.uint\pmc_parse.cpp
; File z:\sources\lunor\repos\rougemeilland\palmtree.math.core.uint\palmtree.math.core.uint\pmc_inline_func.h
; File z:\sources\lunor\repos\rougemeilland\palmtree.math.core.uint\palmtree.math.core.uint\pmc_parse.cpp
; File z:\sources\lunor\repos\rougemeilland\palmtree.math.core.uint\palmtree.math.core.uint\pmc_inline_func.h
; File z:\sources\lunor\repos\rougemeilland\palmtree.math.core.uint\palmtree.math.core.uint\pmc_parse.cpp
; File z:\sources\lunor\repos\rougemeilland\palmtree.math.core.uint\palmtree.math.core.uint\pmc_inline_func.h
; File z:\sources\lunor\repos\rougemeilland\palmtree.math.core.uint\palmtree.math.core.uint\pmc_parse.cpp
; File z:\sources\lunor\repos\rougemeilland\palmtree.math.core.uint\palmtree.math.core.uint\pmc_inline_func.h
; File z:\sources\lunor\repos\rougemeilland\palmtree.math.core.uint\palmtree.math.core.uint\pmc_parse.cpp
; File z:\sources\lunor\repos\rougemeilland\palmtree.math.core.uint\palmtree.math.core.uint\pmc_inline_func.h
; File z:\sources\lunor\repos\rougemeilland\palmtree.math.core.uint\palmtree.math.core.uint\pmc_uint_internal.h
; File z:\sources\lunor\repos\rougemeilland\palmtree.math.core.uint\palmtree.math.core.uint\pmc_inline_func.h
; File z:\sources\lunor\repos\rougemeilland\palmtree.math.core.uint\palmtree.math.core.uint\pmc_parse.cpp
; File z:\sources\lunor\repos\rougemeilland\palmtree.math.core.uint\palmtree.math.core.uint\pmc_inline_func.h
; File z:\sources\lunor\repos\rougemeilland\palmtree.math.core.uint\palmtree.math.core.uint\pmc_uint_internal.h
; File z:\sources\lunor\repos\rougemeilland\palmtree.math.core.uint\palmtree.math.core.uint\pmc_parse.cpp
; File z:\sources\lunor\repos\rougemeilland\palmtree.math.core.uint\palmtree.math.core.uint\pmc_inline_func.h
; File z:\sources\lunor\repos\rougemeilland\palmtree.math.core.uint\palmtree.math.core.uint\pmc_parse.cpp
; File z:\sources\lunor\repos\rougemeilland\palmtree.math.core.uint\palmtree.math.core.uint\pmc_inline_func.h
; File z:\sources\lunor\repos\rougemeilland\palmtree.math.core.uint\palmtree.math.core.uint\pmc_parse.cpp
; File z:\sources\lunor\repos\rougemeilland\palmtree.math.core.uint\palmtree.math.core.uint\pmc_inline_func.h
; File z:\sources\lunor\repos\rougemeilland\palmtree.math.core.uint\palmtree.math.core.uint\pmc_parse.cpp
; File z:\sources\lunor\repos\rougemeilland\palmtree.math.core.uint\palmtree.math.core.uint\pmc_inline_func.h
; File z:\sources\lunor\repos\rougemeilland\palmtree.math.core.uint\palmtree.math.core.uint\pmc_parse.cpp
; File z:\sources\lunor\repos\rougemeilland\palmtree.math.core.uint\palmtree.math.core.uint\pmc_inline_func.h
; File z:\sources\lunor\repos\rougemeilland\palmtree.math.core.uint\palmtree.math.core.uint\pmc_parse.cpp
; File z:\sources\lunor\repos\rougemeilland\palmtree.math.core.uint\palmtree.math.core.uint\pmc_inline_func.h
; File z:\sources\lunor\repos\rougemeilland\palmtree.math.core.uint\palmtree.math.core.uint\pmc_parse.cpp
; File z:\sources\lunor\repos\rougemeilland\palmtree.math.core.uint\palmtree.math.core.uint\pmc_inline_func.h
; File z:\sources\lunor\repos\rougemeilland\palmtree.math.core.uint\palmtree.math.core.uint\pmc_parse.cpp
; File z:\sources\lunor\repos\rougemeilland\palmtree.math.core.uint\palmtree.math.core.uint\pmc_inline_func.h
; File z:\sources\lunor\repos\rougemeilland\palmtree.math.core.uint\palmtree.math.core.uint\pmc_uint_internal.h
; File z:\sources\lunor\repos\rougemeilland\palmtree.math.core.uint\palmtree.math.core.uint\pmc_inline_func.h
; File z:\sources\lunor\repos\rougemeilland\palmtree.math.core.uint\palmtree.math.core.uint\pmc_parse.cpp
; File z:\sources\lunor\repos\rougemeilland\palmtree.math.core.uint\palmtree.math.core.uint\pmc_inline_func.h
; File z:\sources\lunor\repos\rougemeilland\palmtree.math.core.uint\palmtree.math.core.uint\pmc_uint_internal.h
; File z:\sources\lunor\repos\rougemeilland\palmtree.math.core.uint\palmtree.math.core.uint\pmc_parse.cpp
; File z:\sources\lunor\repos\rougemeilland\palmtree.math.core.uint\palmtree.math.core.uint\pmc_inline_func.h
; File z:\sources\lunor\repos\rougemeilland\palmtree.math.core.uint\palmtree.math.core.uint\pmc_parse.cpp
; File z:\sources\lunor\repos\rougemeilland\palmtree.math.core.uint\palmtree.math.core.uint\pmc_inline_func.h
; File z:\sources\lunor\repos\rougemeilland\palmtree.math.core.uint\palmtree.math.core.uint\pmc_parse.cpp
; File z:\sources\lunor\repos\rougemeilland\palmtree.math.core.uint\palmtree.math.core.uint\pmc_inline_func.h
; File z:\sources\lunor\repos\rougemeilland\palmtree.math.core.uint\palmtree.math.core.uint\pmc_parse.cpp
; File z:\sources\lunor\repos\rougemeilland\palmtree.math.core.uint\palmtree.math.core.uint\pmc_inline_func.h
; File z:\sources\lunor\repos\rougemeilland\palmtree.math.core.uint\palmtree.math.core.uint\pmc_uint_internal.h
; File z:\sources\lunor\repos\rougemeilland\palmtree.math.core.uint\palmtree.math.core.uint\pmc_inline_func.h
; File z:\sources\lunor\repos\rougemeilland\palmtree.math.core.uint\palmtree.math.core.uint\pmc_parse.cpp
; File z:\sources\lunor\repos\rougemeilland\palmtree.math.core.uint\palmtree.math.core.uint\pmc_inline_func.h
; File z:\sources\lunor\repos\rougemeilland\palmtree.math.core.uint\palmtree.math.core.uint\pmc_uint_internal.h
; File z:\sources\lunor\repos\rougemeilland\palmtree.math.core.uint\palmtree.math.core.uint\pmc_parse.cpp
; File z:\sources\lunor\repos\rougemeilland\palmtree.math.core.uint\palmtree.math.core.uint\pmc_inline_func.h
; File z:\sources\lunor\repos\rougemeilland\palmtree.math.core.uint\palmtree.math.core.uint\pmc_parse.cpp
; File z:\sources\lunor\repos\rougemeilland\palmtree.math.core.uint\palmtree.math.core.uint\pmc_inline_func.h
; File z:\sources\lunor\repos\rougemeilland\palmtree.math.core.uint\palmtree.math.core.uint\pmc_uint_internal.h
; File z:\sources\lunor\repos\rougemeilland\palmtree.math.core.uint\palmtree.math.core.uint\pmc_inline_func.h
; File z:\sources\lunor\repos\rougemeilland\palmtree.math.core.uint\palmtree.math.core.uint\pmc_parse.cpp
; File z:\sources\lunor\repos\rougemeilland\palmtree.math.core.uint\palmtree.math.core.uint\pmc_inline_func.h
; File z:\sources\lunor\repos\rougemeilland\palmtree.math.core.uint\palmtree.math.core.uint\pmc_uint_internal.h
; File z:\sources\lunor\repos\rougemeilland\palmtree.math.core.uint\palmtree.math.core.uint\pmc_parse.cpp
; File z:\sources\lunor\repos\rougemeilland\palmtree.math.core.uint\palmtree.math.core.uint\pmc_inline_func.h
; File z:\sources\lunor\repos\rougemeilland\palmtree.math.core.uint\palmtree.math.core.uint\pmc_parse.cpp
; File z:\sources\lunor\repos\rougemeilland\palmtree.math.core.uint\palmtree.math.core.uint\pmc_uint_internal.h
; File z:\sources\lunor\repos\rougemeilland\palmtree.math.core.uint\palmtree.math.core.uint\pmc_parse.cpp
;	COMDAT ?MultiplyAndAdd_using_ADCX_MULX@Internal@Core@Math@Palmtree@@YAPEA_KPEA_K_K1@Z
_TEXT	SEGMENT
k$ = 0
k$ = 8
k$ = 16
k$ = 24
k$ = 32
k$ = 40
k$ = 48
k$ = 56
k$ = 64
k$ = 72
k$ = 80
k$ = 88
k$ = 96
k$ = 104
k$ = 112
k$ = 120
k$ = 128
k$ = 136
k$ = 144
k$ = 152
k$ = 160
k$ = 168
k$ = 176
k$ = 184
k$ = 192
k$ = 200
k$ = 208
k$ = 216
k$ = 224
k$ = 232
k$ = 240
k$ = 248
k$ = 256
k$ = 264
k$ = 272
k$ = 280
k$ = 288
k$ = 296
k$ = 304
k$ = 312
k$ = 320
k$ = 328
k$ = 336
k$ = 344
k$ = 352
k$ = 360
k$ = 368
k$ = 376
k$ = 384
k$ = 392
k$ = 400
k$ = 408
k$ = 416
k$ = 424
k$ = 432
k$ = 440
k$ = 448
k$ = 456
k$ = 464
t_hi$1 = 472
t_hi$2 = 480
t_hi$3 = 488
t_hi$4 = 496
t_hi$5 = 504
t_hi$6 = 512
t_hi$7 = 520
t_hi$8 = 528
t_hi$9 = 536
t_hi$10 = 544
t_hi$11 = 552
t_hi$12 = 560
t_hi$13 = 568
t_hi$14 = 576
t_hi$15 = 584
t_hi$16 = 592
t_hi$17 = 600
t_hi$18 = 608
t_hi$19 = 616
t_hi$20 = 624
t_hi$21 = 632
t_hi$22 = 640
t_hi$23 = 648
t_hi$24 = 656
t_hi$25 = 664
t_hi$26 = 672
t_hi$27 = 680
t_hi$28 = 688
t_hi$29 = 696
t_hi$30 = 704
t_hi$31 = 712
t_hi$32 = 720
t_hi$33 = 728
t_hi$34 = 736
t_hi$35 = 744
t_hi$36 = 752
t_hi$37 = 760
t_hi$38 = 768
t_hi$39 = 776
t_hi$40 = 784
t_hi$41 = 792
t_hi$42 = 800
t_hi$43 = 808
t_hi$44 = 816
t_hi$45 = 824
t_hi$46 = 832
t_hi$47 = 840
t_hi$48 = 848
t_hi$49 = 856
t_hi$50 = 864
t_hi$51 = 872
t_hi$52 = 880
t_hi$53 = 888
t_hi$54 = 896
t_hi$55 = 904
t_hi$56 = 912
t_hi$57 = 920
t_hi$58 = 928
t_hi$59 = 936
t_hi$60 = 944
t_hi$61 = 952
t_hi$62 = 960
t_hi$63 = 968
k$ = 1008
u_buf$ = 1008
k$ = 1016
u_count$ = 1016
k$ = 1024
x$ = 1024
k$ = 1032
?MultiplyAndAdd_using_ADCX_MULX@Internal@Core@Math@Palmtree@@YAPEA_KPEA_K_K1@Z PROC ; Palmtree::Math::Core::Internal::MultiplyAndAdd_using_ADCX_MULX, COMDAT

; 805  :     {

  00000	40 55		 push	 rbp
  00002	53		 push	 rbx
  00003	57		 push	 rdi
  00004	48 8d ac 24 30
	fd ff ff	 lea	 rbp, QWORD PTR [rsp-720]
  0000c	48 81 ec d0 03
	00 00		 sub	 rsp, 976		; 000003d0H

; 806  :         __UNIT_TYPE k = x;
; 807  :         __UNIT_TYPE count = u_count >> 5;

  00013	48 8b da	 mov	 rbx, rdx

; 808  :         while (count > 0)

  00016	33 ff		 xor	 edi, edi
  00018	48 c1 eb 05	 shr	 rbx, 5
  0001c	4c 8b da	 mov	 r11, rdx
  0001f	4d 8b d0	 mov	 r10, r8
  00022	48 ba 00 00 e8
	89 04 23 c7 8a	 mov	 rdx, -8446744073709551616 ; 8ac7230489e80000H
  0002c	48 85 db	 test	 rbx, rbx
  0002f	0f 84 b7 04 00
	00		 je	 $LN3@MultiplyAn
$LL2@MultiplyAn:

; 809  :         {
; 810  :             k = MultiplyAndAdd1Word_using_ADCX_MULX(k, u_buf[0], &u_buf[0]);

  00035	48 8b 01	 mov	 rax, QWORD PTR [rcx]
; File z:\sources\lunor\repos\rougemeilland\palmtree.math.core.uint\palmtree.math.core.uint\pmc_inline_func.h

; 233  :             return (_mulx_u64(u, v, w_hi));

  00038	c4 62 bb f6 c8	 mulx	 r9, r8, rax

; 191  :             return (_addcarryx_u64(carry, u, v, w));

  0003d	4d 03 c2	 add	 r8, r10

; 233  :             return (_mulx_u64(u, v, w_hi));

  00040	4c 89 8d d8 00
	00 00		 mov	 QWORD PTR t_hi$1[rbp-256], r9

; 191  :             return (_addcarryx_u64(carry, u, v, w));

  00047	4c 89 01	 mov	 QWORD PTR [rcx], r8
; File z:\sources\lunor\repos\rougemeilland\palmtree.math.core.uint\palmtree.math.core.uint\pmc_parse.cpp

; 811  :             k = MultiplyAndAdd1Word_using_ADCX_MULX(k, u_buf[1], &u_buf[1]);

  0004a	48 8b 41 08	 mov	 rax, QWORD PTR [rcx+8]
; File z:\sources\lunor\repos\rougemeilland\palmtree.math.core.uint\palmtree.math.core.uint\pmc_inline_func.h

; 191  :             return (_addcarryx_u64(carry, u, v, w));

  0004e	66 4c 0f 38 f6
	cf		 adcx	 r9, rdi

; 233  :             return (_mulx_u64(u, v, w_hi));

  00054	c4 62 bb f6 d0	 mulx	 r10, r8, rax

; 191  :             return (_addcarryx_u64(carry, u, v, w));

  00059	4d 03 c1	 add	 r8, r9
  0005c	4c 89 8d f0 02
	00 00		 mov	 QWORD PTR k$[rbp-256], r9
  00063	4c 89 41 08	 mov	 QWORD PTR [rcx+8], r8
; File z:\sources\lunor\repos\rougemeilland\palmtree.math.core.uint\palmtree.math.core.uint\pmc_parse.cpp

; 812  :             k = MultiplyAndAdd1Word_using_ADCX_MULX(k, u_buf[2], &u_buf[2]);

  00067	48 8b 41 10	 mov	 rax, QWORD PTR [rcx+16]
; File z:\sources\lunor\repos\rougemeilland\palmtree.math.core.uint\palmtree.math.core.uint\pmc_inline_func.h

; 233  :             return (_mulx_u64(u, v, w_hi));

  0006b	c4 62 bb f6 c8	 mulx	 r9, r8, rax
  00070	4c 89 95 e0 00
	00 00		 mov	 QWORD PTR t_hi$2[rbp-256], r10

; 191  :             return (_addcarryx_u64(carry, u, v, w));

  00077	66 4c 0f 38 f6
	d7		 adcx	 r10, rdi
  0007d	4d 03 c2	 add	 r8, r10
  00080	4c 89 95 f8 02
	00 00		 mov	 QWORD PTR k$[rbp-256], r10
  00087	4c 89 41 10	 mov	 QWORD PTR [rcx+16], r8
; File z:\sources\lunor\repos\rougemeilland\palmtree.math.core.uint\palmtree.math.core.uint\pmc_parse.cpp

; 813  :             k = MultiplyAndAdd1Word_using_ADCX_MULX(k, u_buf[3], &u_buf[3]);

  0008b	48 8b 41 18	 mov	 rax, QWORD PTR [rcx+24]
; File z:\sources\lunor\repos\rougemeilland\palmtree.math.core.uint\palmtree.math.core.uint\pmc_inline_func.h

; 233  :             return (_mulx_u64(u, v, w_hi));

  0008f	c4 62 bb f6 d0	 mulx	 r10, r8, rax
  00094	4c 89 8d e8 00
	00 00		 mov	 QWORD PTR t_hi$3[rbp-256], r9

; 191  :             return (_addcarryx_u64(carry, u, v, w));

  0009b	66 4c 0f 38 f6
	cf		 adcx	 r9, rdi
  000a1	4d 03 c1	 add	 r8, r9
  000a4	4c 89 8d 00 03
	00 00		 mov	 QWORD PTR k$[rbp-256], r9
  000ab	4c 89 41 18	 mov	 QWORD PTR [rcx+24], r8
; File z:\sources\lunor\repos\rougemeilland\palmtree.math.core.uint\palmtree.math.core.uint\pmc_parse.cpp

; 814  :             k = MultiplyAndAdd1Word_using_ADCX_MULX(k, u_buf[4], &u_buf[4]);

  000af	48 8b 41 20	 mov	 rax, QWORD PTR [rcx+32]
; File z:\sources\lunor\repos\rougemeilland\palmtree.math.core.uint\palmtree.math.core.uint\pmc_inline_func.h

; 233  :             return (_mulx_u64(u, v, w_hi));

  000b3	c4 62 bb f6 c8	 mulx	 r9, r8, rax
  000b8	4c 89 95 f0 00
	00 00		 mov	 QWORD PTR t_hi$4[rbp-256], r10

; 191  :             return (_addcarryx_u64(carry, u, v, w));

  000bf	66 4c 0f 38 f6
	d7		 adcx	 r10, rdi
  000c5	4d 03 c2	 add	 r8, r10
  000c8	4c 89 95 08 03
	00 00		 mov	 QWORD PTR k$[rbp-256], r10
  000cf	4c 89 41 20	 mov	 QWORD PTR [rcx+32], r8
; File z:\sources\lunor\repos\rougemeilland\palmtree.math.core.uint\palmtree.math.core.uint\pmc_parse.cpp

; 815  :             k = MultiplyAndAdd1Word_using_ADCX_MULX(k, u_buf[5], &u_buf[5]);

  000d3	48 8b 41 28	 mov	 rax, QWORD PTR [rcx+40]
; File z:\sources\lunor\repos\rougemeilland\palmtree.math.core.uint\palmtree.math.core.uint\pmc_inline_func.h

; 233  :             return (_mulx_u64(u, v, w_hi));

  000d7	c4 62 bb f6 d0	 mulx	 r10, r8, rax
  000dc	4c 89 8d f8 00
	00 00		 mov	 QWORD PTR t_hi$5[rbp-256], r9

; 191  :             return (_addcarryx_u64(carry, u, v, w));

  000e3	66 4c 0f 38 f6
	cf		 adcx	 r9, rdi
  000e9	4d 03 c1	 add	 r8, r9
  000ec	4c 89 0c 24	 mov	 QWORD PTR k$[rsp], r9
  000f0	4c 89 41 28	 mov	 QWORD PTR [rcx+40], r8
; File z:\sources\lunor\repos\rougemeilland\palmtree.math.core.uint\palmtree.math.core.uint\pmc_parse.cpp

; 816  :             k = MultiplyAndAdd1Word_using_ADCX_MULX(k, u_buf[6], &u_buf[6]);

  000f4	48 8b 41 30	 mov	 rax, QWORD PTR [rcx+48]
; File z:\sources\lunor\repos\rougemeilland\palmtree.math.core.uint\palmtree.math.core.uint\pmc_inline_func.h

; 233  :             return (_mulx_u64(u, v, w_hi));

  000f8	c4 62 bb f6 c8	 mulx	 r9, r8, rax
  000fd	4c 89 95 00 01
	00 00		 mov	 QWORD PTR t_hi$6[rbp-256], r10

; 191  :             return (_addcarryx_u64(carry, u, v, w));

  00104	66 4c 0f 38 f6
	d7		 adcx	 r10, rdi
  0010a	4d 03 c2	 add	 r8, r10
  0010d	4c 89 54 24 08	 mov	 QWORD PTR k$[rsp], r10
  00112	4c 89 41 30	 mov	 QWORD PTR [rcx+48], r8
; File z:\sources\lunor\repos\rougemeilland\palmtree.math.core.uint\palmtree.math.core.uint\pmc_parse.cpp

; 817  :             k = MultiplyAndAdd1Word_using_ADCX_MULX(k, u_buf[7], &u_buf[7]);

  00116	48 8b 41 38	 mov	 rax, QWORD PTR [rcx+56]
; File z:\sources\lunor\repos\rougemeilland\palmtree.math.core.uint\palmtree.math.core.uint\pmc_inline_func.h

; 233  :             return (_mulx_u64(u, v, w_hi));

  0011a	c4 62 bb f6 d0	 mulx	 r10, r8, rax
  0011f	4c 89 8d 08 01
	00 00		 mov	 QWORD PTR t_hi$7[rbp-256], r9

; 191  :             return (_addcarryx_u64(carry, u, v, w));

  00126	66 4c 0f 38 f6
	cf		 adcx	 r9, rdi
  0012c	4d 03 c1	 add	 r8, r9
  0012f	4c 89 4c 24 10	 mov	 QWORD PTR k$[rsp], r9
  00134	4c 89 41 38	 mov	 QWORD PTR [rcx+56], r8
; File z:\sources\lunor\repos\rougemeilland\palmtree.math.core.uint\palmtree.math.core.uint\pmc_parse.cpp

; 818  :             k = MultiplyAndAdd1Word_using_ADCX_MULX(k, u_buf[8], &u_buf[8]);

  00138	48 8b 41 40	 mov	 rax, QWORD PTR [rcx+64]
; File z:\sources\lunor\repos\rougemeilland\palmtree.math.core.uint\palmtree.math.core.uint\pmc_inline_func.h

; 233  :             return (_mulx_u64(u, v, w_hi));

  0013c	c4 62 bb f6 c8	 mulx	 r9, r8, rax
  00141	4c 89 95 10 01
	00 00		 mov	 QWORD PTR t_hi$8[rbp-256], r10

; 191  :             return (_addcarryx_u64(carry, u, v, w));

  00148	66 4c 0f 38 f6
	d7		 adcx	 r10, rdi
  0014e	4d 03 c2	 add	 r8, r10
  00151	4c 89 54 24 18	 mov	 QWORD PTR k$[rsp], r10
  00156	4c 89 41 40	 mov	 QWORD PTR [rcx+64], r8
; File z:\sources\lunor\repos\rougemeilland\palmtree.math.core.uint\palmtree.math.core.uint\pmc_parse.cpp

; 819  :             k = MultiplyAndAdd1Word_using_ADCX_MULX(k, u_buf[9], &u_buf[9]);

  0015a	48 8b 41 48	 mov	 rax, QWORD PTR [rcx+72]
; File z:\sources\lunor\repos\rougemeilland\palmtree.math.core.uint\palmtree.math.core.uint\pmc_inline_func.h

; 233  :             return (_mulx_u64(u, v, w_hi));

  0015e	c4 62 bb f6 d0	 mulx	 r10, r8, rax
