; Listing generated by Microsoft (R) Optimizing Compiler Version 19.16.27026.1 

include listing.inc

INCLUDELIB MSVCRT
INCLUDELIB OLDNAMES

PUBLIC	PMC_FromByteArray
PUBLIC	PMC_ToByteArray
EXTRN	AllocateNumber:PROC
EXTRN	CommitNumber:PROC
EXTRN	CheckNumber:PROC
EXTRN	number_zero:BYTE
;	COMDAT pdata
pdata	SEGMENT
$pdata$PMC_FromByteArray DD imagerel $LN34
	DD	imagerel $LN34+269
	DD	imagerel $unwind$PMC_FromByteArray
pdata	ENDS
;	COMDAT pdata
pdata	SEGMENT
$pdata$PMC_ToByteArray DD imagerel $LN16
	DD	imagerel $LN16+166
	DD	imagerel $unwind$PMC_ToByteArray
pdata	ENDS
;	COMDAT pdata
pdata	SEGMENT
$pdata$_COPY_MEMORY_BYTE DD imagerel _COPY_MEMORY_BYTE
	DD	imagerel _COPY_MEMORY_BYTE+32
	DD	imagerel $unwind$_COPY_MEMORY_BYTE
pdata	ENDS
;	COMDAT xdata
xdata	SEGMENT
$unwind$_COPY_MEMORY_BYTE DD 040a01H
	DD	02740aH
	DD	016405H
xdata	ENDS
;	COMDAT xdata
xdata	SEGMENT
$unwind$PMC_ToByteArray DD 081401H
	DD	086414H
	DD	075414H
	DD	063414H
	DD	070103214H
xdata	ENDS
;	COMDAT xdata
xdata	SEGMENT
$unwind$PMC_FromByteArray DD 060f01H
	DD	08640fH
	DD	07340fH
	DD	0700b320fH
xdata	ENDS
; Function compile flags: /Ogtpy
; File z:\sources\lunor\repos\rougemeilland\palmtree.math.core.uint\palmtree.math.core.uint\pmc_bytes.c
; File z:\sources\lunor\repos\rougemeilland\palmtree.math.core.uint\palmtree.math.core.uint\pmc_inline_func.h
; File z:\sources\lunor\repos\rougemeilland\palmtree.math.core.uint\palmtree.math.core.uint\pmc_bytes.c
;	COMDAT CountActualBitsFromBuffer
_TEXT	SEGMENT
p$ = 8
count$ = 16
CountActualBitsFromBuffer PROC				; COMDAT

; 33   :     p += count;

	add	rcx, rdx

; 34   :     while (count > 0)

	test	rdx, rdx
	je	SHORT $LN3@CountActua
	npad	8
$LL2@CountActua:

; 35   :     {
; 36   :         --p;
; 37   :         if (*p != 0)

	movzx	eax, BYTE PTR [rcx-1]
	lea	rcx, QWORD PTR [rcx-1]
	test	al, al
	jne	SHORT $LN10@CountActua

; 39   :         --count;

	sub	rdx, 1
	jne	SHORT $LL2@CountActua
$LN3@CountActua:

; 40   :     }
; 41   :     return (0);

	xor	eax, eax

; 42   : }

	ret	0
$LN10@CountActua:
; File z:\sources\lunor\repos\rougemeilland\palmtree.math.core.uint\palmtree.math.core.uint\pmc_inline_func.h

; 579  :         _BitScanReverse(&pos, x);

	movzx	eax, al
	bsr	ecx, eax

; 580  : #elif defined(__GNUC__)
; 581  :         __asm__("bsrl %1, %0" : "=r"(pos) : "rm"((_UINT32_T)x));
; 582  : #else
; 583  : #error unknown compiler
; 584  : #endif
; 585  :         return ((unsigned char)(sizeof(x) * 8 - 1 - pos));

	mov	eax, 7
	sub	al, cl
	movzx	ecx, al
; File z:\sources\lunor\repos\rougemeilland\palmtree.math.core.uint\palmtree.math.core.uint\pmc_bytes.c

; 38   :             return (count * 8 - _LZCNT_ALT_8(*p));

	lea	rax, QWORD PTR [rdx*8]
	sub	rax, rcx

; 42   : }

	ret	0
CountActualBitsFromBuffer ENDP
_TEXT	ENDS
; Function compile flags: /Ogtpy
; File z:\sources\lunor\repos\rougemeilland\palmtree.math.core.uint\palmtree.math.core.uint\pmc_inline_func.h
;	COMDAT _LZCNT_ALT_8
_TEXT	SEGMENT
x$ = 8
_LZCNT_ALT_8 PROC					; COMDAT

; 575  :         if (x == 0)

	test	cl, cl
	jne	SHORT $LN2@LZCNT_ALT_

; 576  :             return (sizeof(x) * 8);

	mov	eax, 8

; 586  :     }

	ret	0
$LN2@LZCNT_ALT_:

; 577  :         _UINT32_T pos;
; 578  : #ifdef _MSC_VER
; 579  :         _BitScanReverse(&pos, x);

	movzx	eax, cl
	bsr	ecx, eax

; 580  : #elif defined(__GNUC__)
; 581  :         __asm__("bsrl %1, %0" : "=r"(pos) : "rm"((_UINT32_T)x));
; 582  : #else
; 583  : #error unknown compiler
; 584  : #endif
; 585  :         return ((unsigned char)(sizeof(x) * 8 - 1 - pos));

	mov	eax, 7
	sub	al, cl
	movzx	eax, al

; 586  :     }

	ret	0
_LZCNT_ALT_8 ENDP
_TEXT	ENDS
; Function compile flags: /Ogtpy
; File z:\sources\lunor\repos\rougemeilland\palmtree.math.core.uint\palmtree.math.core.uint\pmc_inline_func.h
;	COMDAT _DIVIDE_CEILING_SIZE
_TEXT	SEGMENT
u$ = 8
v$ = 16
_DIVIDE_CEILING_SIZE PROC				; COMDAT

; 192  :         return ((u + v - 1) / v);

	lea	rax, QWORD PTR [rdx-1]
	mov	r8, rdx
	add	rax, rcx
	xor	edx, edx
	div	r8

; 193  :     }

	ret	0
_DIVIDE_CEILING_SIZE ENDP
_TEXT	ENDS
; Function compile flags: /Ogtpy
; File z:\sources\lunor\repos\rougemeilland\palmtree.math.core.uint\palmtree.math.core.uint\pmc_inline_func.h
;	COMDAT _COPY_MEMORY_BYTE
_TEXT	SEGMENT
d$ = 8
s$ = 16
count$ = 24
_COPY_MEMORY_BYTE PROC					; COMDAT

; 42   :     {

	mov	QWORD PTR [rsp+8], rsi
	mov	QWORD PTR [rsp+16], rdi

; 43   :         __movsb(d, s, count);

	mov	rdi, rcx
	mov	rsi, rdx
	mov	rcx, r8
	rep movsb

; 44   :     }

	mov	rsi, QWORD PTR [rsp+8]
	mov	rdi, QWORD PTR [rsp+16]
	ret	0
_COPY_MEMORY_BYTE ENDP
_TEXT	ENDS
; Function compile flags: /Ogtpy
; File z:\sources\lunor\repos\rougemeilland\palmtree.math.core.uint\palmtree.math.core.uint\pmc_bytes.c
; File z:\sources\lunor\repos\rougemeilland\palmtree.math.core.uint\palmtree.math.core.uint\pmc_inline_func.h
; File z:\sources\lunor\repos\rougemeilland\palmtree.math.core.uint\palmtree.math.core.uint\pmc_bytes.c
; File z:\sources\lunor\repos\rougemeilland\palmtree.math.core.uint\palmtree.math.core.uint\pmc_inline_func.h
; File z:\sources\lunor\repos\rougemeilland\palmtree.math.core.uint\palmtree.math.core.uint\pmc_bytes.c
; File z:\sources\lunor\repos\rougemeilland\palmtree.math.core.uint\palmtree.math.core.uint\pmc_inline_func.h
; File z:\sources\lunor\repos\rougemeilland\palmtree.math.core.uint\palmtree.math.core.uint\pmc_bytes.c
;	COMDAT PMC_ToByteArray
_TEXT	SEGMENT
p$ = 48
buffer$ = 56
buffer_size$ = 64
count$ = 72
PMC_ToByteArray PROC					; COMDAT

; 91   : {

$LN16:
	mov	QWORD PTR [rsp+8], rbx
	mov	QWORD PTR [rsp+16], rbp
	mov	QWORD PTR [rsp+24], rsi
	push	rdi
	sub	rsp, 32					; 00000020H
	mov	rbx, r9
	mov	rbp, r8
	mov	rdi, rdx
	mov	rsi, rcx

; 92   :     if (p == NULL)

	test	rcx, rcx
	jne	SHORT $LN2@PMC_ToByte

; 93   :         return (PMC_STATUS_ARGUMENT_ERROR);

	lea	eax, QWORD PTR [rcx-1]
	jmp	SHORT $LN1@PMC_ToByte
$LN2@PMC_ToByte:

; 94   :     NUMBER_HEADER* np = (NUMBER_HEADER*)p;
; 95   :     PMC_STATUS_CODE result;
; 96   :     if ((result = CheckNumber(np)) != PMC_STATUS_OK)

	call	CheckNumber
	test	eax, eax
	jne	SHORT $LN1@PMC_ToByte

; 98   :     size_t expected_buffer_size = np->IS_ZERO ? 1 : _DIVIDE_CEILING_SIZE(np->UNIT_BIT_COUNT, 8) + 1;

	mov	r8d, DWORD PTR [rsi+40]
	and	r8d, 2
	je	SHORT $LN9@PMC_ToByte
	lea	edx, QWORD PTR [rax+1]
	jmp	SHORT $LN10@PMC_ToByte
$LN9@PMC_ToByte:
; File z:\sources\lunor\repos\rougemeilland\palmtree.math.core.uint\palmtree.math.core.uint\pmc_inline_func.h

; 192  :         return ((u + v - 1) / v);

	mov	rdx, QWORD PTR [rsi+16]
	add	rdx, 7
	shr	rdx, 3
; File z:\sources\lunor\repos\rougemeilland\palmtree.math.core.uint\palmtree.math.core.uint\pmc_bytes.c

; 98   :     size_t expected_buffer_size = np->IS_ZERO ? 1 : _DIVIDE_CEILING_SIZE(np->UNIT_BIT_COUNT, 8) + 1;

	inc	rdx
$LN10@PMC_ToByte:

; 99   :     if (buffer != NULL)

	test	rdi, rdi
	je	SHORT $LN13@PMC_ToByte

; 100  :     {
; 101  :         if (8 + np->UNIT_BIT_COUNT > sizeof(*buffer) * 8 * buffer_size)

	mov	rcx, QWORD PTR [rsi+16]
	lea	rax, QWORD PTR [rbp*8]
	add	rcx, 8
	cmp	rcx, rax
	jbe	SHORT $LN5@PMC_ToByte

; 102  :             return (PMC_STATUS_INSUFFICIENT_BUFFER);

	mov	eax, -4
	jmp	SHORT $LN1@PMC_ToByte
$LN5@PMC_ToByte:

; 103  :         if (np->IS_ZERO)

	test	r8d, r8d
	je	SHORT $LN6@PMC_ToByte

; 104  :             buffer[0] = 0;

	mov	BYTE PTR [rdi], 0
	jmp	SHORT $LN13@PMC_ToByte
$LN6@PMC_ToByte:

; 105  :         else
; 106  :         {
; 107  :             buffer[0] = 1;

	mov	BYTE PTR [rdi], 1

; 108  :             _COPY_MEMORY_BYTE(buffer + 1, np->BLOCK, expected_buffer_size - 1);

	lea	rcx, QWORD PTR [rdx-1]
; File z:\sources\lunor\repos\rougemeilland\palmtree.math.core.uint\palmtree.math.core.uint\pmc_inline_func.h

; 43   :         __movsb(d, s, count);

	mov	rsi, QWORD PTR [rsi+56]
; File z:\sources\lunor\repos\rougemeilland\palmtree.math.core.uint\palmtree.math.core.uint\pmc_bytes.c

; 108  :             _COPY_MEMORY_BYTE(buffer + 1, np->BLOCK, expected_buffer_size - 1);

	inc	rdi
; File z:\sources\lunor\repos\rougemeilland\palmtree.math.core.uint\palmtree.math.core.uint\pmc_inline_func.h

; 43   :         __movsb(d, s, count);

	rep movsb
$LN13@PMC_ToByte:
; File z:\sources\lunor\repos\rougemeilland\palmtree.math.core.uint\palmtree.math.core.uint\pmc_bytes.c

; 111  :     *count = expected_buffer_size;

	mov	QWORD PTR [rbx], rdx

; 112  :     return (PMC_STATUS_OK);

	xor	eax, eax
$LN1@PMC_ToByte:

; 113  : }

	mov	rbx, QWORD PTR [rsp+48]
	mov	rbp, QWORD PTR [rsp+56]
	mov	rsi, QWORD PTR [rsp+64]
	add	rsp, 32					; 00000020H
	pop	rdi
	ret	0
PMC_ToByteArray ENDP
_TEXT	ENDS
; Function compile flags: /Ogtpy
; File z:\sources\lunor\repos\rougemeilland\palmtree.math.core.uint\palmtree.math.core.uint\pmc_bytes.c
; File z:\sources\lunor\repos\rougemeilland\palmtree.math.core.uint\palmtree.math.core.uint\pmc_inline_func.h
; File z:\sources\lunor\repos\rougemeilland\palmtree.math.core.uint\palmtree.math.core.uint\pmc_bytes.c
; File z:\sources\lunor\repos\rougemeilland\palmtree.math.core.uint\palmtree.math.core.uint\pmc_inline_func.h
; File z:\sources\lunor\repos\rougemeilland\palmtree.math.core.uint\palmtree.math.core.uint\pmc_bytes.c
; File z:\sources\lunor\repos\rougemeilland\palmtree.math.core.uint\palmtree.math.core.uint\pmc_inline_func.h
; File z:\sources\lunor\repos\rougemeilland\palmtree.math.core.uint\palmtree.math.core.uint\pmc_bytes.c
; File z:\sources\lunor\repos\rougemeilland\palmtree.math.core.uint\palmtree.math.core.uint\pmc_inline_func.h
; File z:\sources\lunor\repos\rougemeilland\palmtree.math.core.uint\palmtree.math.core.uint\pmc_bytes.c
;	COMDAT PMC_FromByteArray
_TEXT	SEGMENT
p$1 = 48
buffer$ = 48
count$ = 56
o$ = 64
PMC_FromByteArray PROC					; COMDAT

; 46   : {

$LN34:
	mov	QWORD PTR [rsp+16], rbx
	mov	QWORD PTR [rsp+24], rsi
	push	rdi
	sub	rsp, 32					; 00000020H
	mov	rbx, r8
	mov	rsi, rcx

; 47   :     PMC_STATUS_CODE result;
; 48   :     if (buffer == NULL)

	test	rcx, rcx
	je	SHORT $LN9@PMC_FromBy

; 49   :         return (PMC_STATUS_ARGUMENT_ERROR);
; 50   :     if (count < 1)

	cmp	rdx, 1
	jb	SHORT $LN9@PMC_FromBy

; 51   :         return (PMC_STATUS_ARGUMENT_ERROR);
; 52   :     if (o == NULL)

	test	rbx, rbx
	je	SHORT $LN9@PMC_FromBy

; 53   :         return (PMC_STATUS_ARGUMENT_ERROR);
; 54   :     unsigned char header = buffer[0];
; 55   :     unsigned char sign = header & 0x03;

	movzx	edi, BYTE PTR [rcx]
	and	dil, 3

; 56   :     unsigned char header_reserved = header & 0xfc;

	test	BYTE PTR [rcx], 252			; 000000fcH

; 57   :     if (header_reserved != 0)

	jne	SHORT $LN9@PMC_FromBy

; 58   :         return (PMC_STATUS_ARGUMENT_ERROR);
; 59   :     if (sign == 0)

	test	dil, dil
	jne	SHORT $LN6@PMC_FromBy

; 60   :     {
; 61   :         if (count != 1)

	cmp	rdx, 1
	je	SHORT $LN32@PMC_FromBy
$LN9@PMC_FromBy:

; 78   :         }
; 79   :     }
; 80   :     else
; 81   :         return (PMC_STATUS_ARGUMENT_ERROR);

	mov	eax, -1
$LN1@PMC_FromBy:

; 88   : }

	mov	rbx, QWORD PTR [rsp+56]
	mov	rsi, QWORD PTR [rsp+64]
	add	rsp, 32					; 00000020H
	pop	rdi
	ret	0
$LN6@PMC_FromBy:

; 62   :             return (PMC_STATUS_ARGUMENT_ERROR);
; 63   :         *o = (PMC_HANDLE_UINT)&number_zero;
; 64   :     }
; 65   :     else if (sign == 1)

	cmp	dil, 1
	jne	SHORT $LN9@PMC_FromBy

; 66   :     {
; 67   :         __UNIT_TYPE bit_count = CountActualBitsFromBuffer(buffer + 1, count - 1);

	sub	rdx, 1

; 33   :     p += count;

	lea	rax, QWORD PTR [rcx+1]
	lea	rax, QWORD PTR [rax+rdx]

; 34   :     while (count > 0)

	je	SHORT $LN32@PMC_FromBy
	npad	11
$LL16@PMC_FromBy:

; 35   :     {
; 36   :         --p;
; 37   :         if (*p != 0)

	movzx	ecx, BYTE PTR [rax-1]
	lea	rax, QWORD PTR [rax-1]
	test	cl, cl
	jne	SHORT $LN28@PMC_FromBy

; 39   :         --count;

	sub	rdx, 1
	jne	SHORT $LL16@PMC_FromBy
$LN32@PMC_FromBy:

; 69   :             *o = (PMC_HANDLE_UINT)&number_zero;

	lea	rax, OFFSET FLAT:number_zero
	mov	QWORD PTR [r8], rax

; 82   : 
; 83   : #ifdef _DEBUG
; 84   :     if ((result = CheckNumber((NUMBER_HEADER*)*o)) != PMC_STATUS_OK)
; 85   :         return (result);
; 86   : #endif
; 87   :     return (PMC_STATUS_OK);

	xor	eax, eax

; 88   : }

	mov	rbx, QWORD PTR [rsp+56]
	mov	rsi, QWORD PTR [rsp+64]
	add	rsp, 32					; 00000020H
	pop	rdi
	ret	0
$LN28@PMC_FromBy:
; File z:\sources\lunor\repos\rougemeilland\palmtree.math.core.uint\palmtree.math.core.uint\pmc_inline_func.h

; 579  :         _BitScanReverse(&pos, x);

	movzx	eax, cl
; File z:\sources\lunor\repos\rougemeilland\palmtree.math.core.uint\palmtree.math.core.uint\pmc_bytes.c

; 38   :             return (count * 8 - _LZCNT_ALT_8(*p));

	lea	rdi, QWORD PTR [rdx*8]
; File z:\sources\lunor\repos\rougemeilland\palmtree.math.core.uint\palmtree.math.core.uint\pmc_inline_func.h

; 579  :         _BitScanReverse(&pos, x);

	bsr	ecx, eax

; 580  : #elif defined(__GNUC__)
; 581  :         __asm__("bsrl %1, %0" : "=r"(pos) : "rm"((_UINT32_T)x));
; 582  : #else
; 583  : #error unknown compiler
; 584  : #endif
; 585  :         return ((unsigned char)(sizeof(x) * 8 - 1 - pos));

	mov	eax, 7
	sub	al, cl
	movzx	ecx, al
; File z:\sources\lunor\repos\rougemeilland\palmtree.math.core.uint\palmtree.math.core.uint\pmc_bytes.c

; 38   :             return (count * 8 - _LZCNT_ALT_8(*p));

	sub	rdi, rcx

; 68   :         if (bit_count == 0)

	je	SHORT $LN32@PMC_FromBy

; 70   :         else
; 71   :         {
; 72   :             NUMBER_HEADER* p;
; 73   :             if ((result = AllocateNumber(&p, bit_count, NULL)) != PMC_STATUS_OK)

	xor	r8d, r8d
	lea	rcx, QWORD PTR p$1[rsp]
	mov	rdx, rdi
	call	AllocateNumber
	test	eax, eax
	jne	$LN1@PMC_FromBy
; File z:\sources\lunor\repos\rougemeilland\palmtree.math.core.uint\palmtree.math.core.uint\pmc_inline_func.h

; 192  :         return ((u + v - 1) / v);

	lea	rcx, QWORD PTR [rdi+7]

; 43   :         __movsb(d, s, count);

	mov	rdi, QWORD PTR p$1[rsp]

; 192  :         return ((u + v - 1) / v);

	shr	rcx, 3
; File z:\sources\lunor\repos\rougemeilland\palmtree.math.core.uint\palmtree.math.core.uint\pmc_bytes.c

; 75   :             _COPY_MEMORY_BYTE(p->BLOCK, buffer + 1, _DIVIDE_CEILING_SIZE(bit_count, 8));

	inc	rsi
; File z:\sources\lunor\repos\rougemeilland\palmtree.math.core.uint\palmtree.math.core.uint\pmc_inline_func.h

; 43   :         __movsb(d, s, count);

	mov	rdi, QWORD PTR [rdi+56]
	rep movsb
; File z:\sources\lunor\repos\rougemeilland\palmtree.math.core.uint\palmtree.math.core.uint\pmc_bytes.c

; 76   :             CommitNumber(p);

	mov	rcx, QWORD PTR p$1[rsp]
	call	CommitNumber

; 77   :             *o = (PMC_HANDLE_UINT)p;

	mov	rax, QWORD PTR p$1[rsp]

; 88   : }

	mov	rsi, QWORD PTR [rsp+64]
	mov	QWORD PTR [rbx], rax
	xor	eax, eax
	mov	rbx, QWORD PTR [rsp+56]
	add	rsp, 32					; 00000020H
	pop	rdi
	ret	0
PMC_FromByteArray ENDP
_TEXT	ENDS
END
