; Listing generated by Microsoft (R) Optimizing Compiler Version 19.16.27026.1 

include listing.inc

INCLUDELIB MSVCRT
INCLUDELIB OLDNAMES

PUBLIC	Initialize_Parse
PUBLIC	PMC_TryParse
PUBLIC	PMC_TryParseForSINT
PUBLIC	??_C@_13DEFPDAGF@?$AA?0@			; `string'
PUBLIC	??_C@_13JOFGPIOO@?$AA?4@			; `string'
PUBLIC	??_C@_13DMCFHHKM@?$AA3@				; `string'
PUBLIC	??_C@_13KJIIAINM@?$AA?$CL@			; `string'
PUBLIC	??_C@_13IMODFHAA@?$AA?9@			; `string'
EXTRN	__imp_lstrcpyW:PROC
EXTRN	__imp_lstrlenW:PROC
EXTRN	AllocateBlock:PROC
EXTRN	DeallocateBlock:PROC
EXTRN	CheckBlockLight:PROC
EXTRN	AllocateNumber:PROC
EXTRN	DeallocateNumber:PROC
EXTRN	CommitNumber:PROC
EXTRN	__GSHandlerCheck:PROC
EXTRN	__security_check_cookie:PROC
EXTRN	number_zero:BYTE
EXTRN	statistics_info:BYTE
EXTRN	__ImageBase:BYTE
EXTRN	__security_cookie:QWORD
_BSS	SEGMENT
default_number_format_option DB 034H DUP (?)
	ALIGN	8

fp_MultiplyAndAdd DQ 01H DUP (?)
_BSS	ENDS
;	COMDAT pdata
pdata	SEGMENT
$pdata$Initialize_Parse DD imagerel $LN6
	DD	imagerel $LN6+159
	DD	imagerel $unwind$Initialize_Parse
pdata	ENDS
;	COMDAT pdata
pdata	SEGMENT
$pdata$PMC_TryParse DD imagerel $LN20
	DD	imagerel $LN20+150
	DD	imagerel $unwind$PMC_TryParse
pdata	ENDS
;	COMDAT pdata
pdata	SEGMENT
$pdata$PMC_TryParseForSINT DD imagerel $LN20
	DD	imagerel $LN20+120
	DD	imagerel $unwind$PMC_TryParseForSINT
pdata	ENDS
;	COMDAT pdata
pdata	SEGMENT
$pdata$_COPY_MEMORY_UNIT DD imagerel _COPY_MEMORY_UNIT
	DD	imagerel _COPY_MEMORY_UNIT+33
	DD	imagerel $unwind$_COPY_MEMORY_UNIT
pdata	ENDS
;	COMDAT pdata
pdata	SEGMENT
$pdata$InitializeParserState DD imagerel InitializeParserState
	DD	imagerel InitializeParserState+220
	DD	imagerel $unwind$InitializeParserState
pdata	ENDS
;	COMDAT pdata
pdata	SEGMENT
$pdata$ParseAsDecimalNumberString DD imagerel ParseAsDecimalNumberString
	DD	imagerel ParseAsDecimalNumberString+1869
	DD	imagerel $unwind$ParseAsDecimalNumberString
pdata	ENDS
;	COMDAT pdata
pdata	SEGMENT
$pdata$ParseAsHexNumberString DD imagerel ParseAsHexNumberString
	DD	imagerel ParseAsHexNumberString+244
	DD	imagerel $unwind$ParseAsHexNumberString
pdata	ENDS
;	COMDAT pdata
pdata	SEGMENT
$pdata$Build1WordFromDecimalString DD imagerel Build1WordFromDecimalString
	DD	imagerel Build1WordFromDecimalString+356
	DD	imagerel $unwind$Build1WordFromDecimalString
pdata	ENDS
;	COMDAT pdata
pdata	SEGMENT
$pdata$BuildBinaryFromDecimalString DD imagerel BuildBinaryFromDecimalString
	DD	imagerel BuildBinaryFromDecimalString+140
	DD	imagerel $unwind$BuildBinaryFromDecimalString
pdata	ENDS
;	COMDAT pdata
pdata	SEGMENT
$pdata$0$BuildBinaryFromDecimalString DD imagerel BuildBinaryFromDecimalString+140
	DD	imagerel BuildBinaryFromDecimalString+195
	DD	imagerel $chain$0$BuildBinaryFromDecimalString
pdata	ENDS
;	COMDAT pdata
pdata	SEGMENT
$pdata$1$BuildBinaryFromDecimalString DD imagerel BuildBinaryFromDecimalString+195
	DD	imagerel BuildBinaryFromDecimalString+227
	DD	imagerel $chain$1$BuildBinaryFromDecimalString
pdata	ENDS
;	COMDAT pdata
pdata	SEGMENT
$pdata$MultiplyAndAdd_using_ADC_MUL DD imagerel MultiplyAndAdd_using_ADC_MUL
	DD	imagerel MultiplyAndAdd_using_ADC_MUL+2410
	DD	imagerel $unwind$MultiplyAndAdd_using_ADC_MUL
pdata	ENDS
;	COMDAT pdata
pdata	SEGMENT
$pdata$MultiplyAndAdd_using_ADCX_MULX DD imagerel MultiplyAndAdd_using_ADCX_MULX
	DD	imagerel MultiplyAndAdd_using_ADCX_MULX+2467
	DD	imagerel $unwind$MultiplyAndAdd_using_ADCX_MULX
pdata	ENDS
;	COMDAT pdata
pdata	SEGMENT
$pdata$ConvertCardinalNumber DD imagerel ConvertCardinalNumber
	DD	imagerel ConvertCardinalNumber+194
	DD	imagerel $unwind$ConvertCardinalNumber
pdata	ENDS
;	COMDAT pdata
pdata	SEGMENT
$pdata$TryParseDN DD imagerel TryParseDN
	DD	imagerel TryParseDN+731
	DD	imagerel $unwind$TryParseDN
pdata	ENDS
;	COMDAT pdata
pdata	SEGMENT
$pdata$0$TryParseDN DD imagerel TryParseDN+731
	DD	imagerel TryParseDN+895
	DD	imagerel $chain$0$TryParseDN
pdata	ENDS
;	COMDAT pdata
pdata	SEGMENT
$pdata$1$TryParseDN DD imagerel TryParseDN+895
	DD	imagerel TryParseDN+1009
	DD	imagerel $chain$1$TryParseDN
pdata	ENDS
;	COMDAT pdata
pdata	SEGMENT
$pdata$BuildLeading1WordFromHexString DD imagerel BuildLeading1WordFromHexString
	DD	imagerel BuildLeading1WordFromHexString+207
	DD	imagerel $unwind$BuildLeading1WordFromHexString
pdata	ENDS
;	COMDAT pdata
pdata	SEGMENT
$pdata$Build1WordFromHexString DD imagerel Build1WordFromHexString
	DD	imagerel Build1WordFromHexString+460
	DD	imagerel $unwind$Build1WordFromHexString
pdata	ENDS
;	COMDAT pdata
pdata	SEGMENT
$pdata$BuildBinaryFromHexString DD imagerel BuildBinaryFromHexString
	DD	imagerel BuildBinaryFromHexString+54
	DD	imagerel $unwind$BuildBinaryFromHexString
pdata	ENDS
;	COMDAT pdata
pdata	SEGMENT
$pdata$0$BuildBinaryFromHexString DD imagerel BuildBinaryFromHexString+54
	DD	imagerel BuildBinaryFromHexString+82
	DD	imagerel $chain$0$BuildBinaryFromHexString
pdata	ENDS
;	COMDAT pdata
pdata	SEGMENT
$pdata$2$BuildBinaryFromHexString DD imagerel BuildBinaryFromHexString+82
	DD	imagerel BuildBinaryFromHexString+198
	DD	imagerel $chain$2$BuildBinaryFromHexString
pdata	ENDS
;	COMDAT pdata
pdata	SEGMENT
$pdata$3$BuildBinaryFromHexString DD imagerel BuildBinaryFromHexString+198
	DD	imagerel BuildBinaryFromHexString+217
	DD	imagerel $chain$3$BuildBinaryFromHexString
pdata	ENDS
;	COMDAT pdata
pdata	SEGMENT
$pdata$4$BuildBinaryFromHexString DD imagerel BuildBinaryFromHexString+217
	DD	imagerel BuildBinaryFromHexString+347
	DD	imagerel $chain$4$BuildBinaryFromHexString
pdata	ENDS
;	COMDAT pdata
pdata	SEGMENT
$pdata$TryParseX DD imagerel TryParseX
	DD	imagerel TryParseX+107
	DD	imagerel $unwind$TryParseX
pdata	ENDS
;	COMDAT pdata
pdata	SEGMENT
$pdata$0$TryParseX DD imagerel TryParseX+107
	DD	imagerel TryParseX+461
	DD	imagerel $chain$0$TryParseX
pdata	ENDS
;	COMDAT pdata
pdata	SEGMENT
$pdata$1$TryParseX DD imagerel TryParseX+461
	DD	imagerel TryParseX+613
	DD	imagerel $chain$1$TryParseX
pdata	ENDS
;	COMDAT pdata
pdata	SEGMENT
$pdata$2$TryParseX DD imagerel TryParseX+613
	DD	imagerel TryParseX+846
	DD	imagerel $chain$2$TryParseX
pdata	ENDS
;	COMDAT pdata
pdata	SEGMENT
$pdata$3$TryParseX DD imagerel TryParseX+846
	DD	imagerel TryParseX+951
	DD	imagerel $chain$3$TryParseX
pdata	ENDS
;	COMDAT pdata
pdata	SEGMENT
$pdata$PMC_TryParse_Imp DD imagerel PMC_TryParse_Imp
	DD	imagerel PMC_TryParse_Imp+78
	DD	imagerel $unwind$PMC_TryParse_Imp
pdata	ENDS
;	COMDAT ??_C@_13IMODFHAA@?$AA?9@
CONST	SEGMENT
??_C@_13IMODFHAA@?$AA?9@ DB '-', 00H, 00H, 00H		; `string'
CONST	ENDS
;	COMDAT ??_C@_13KJIIAINM@?$AA?$CL@
CONST	SEGMENT
??_C@_13KJIIAINM@?$AA?$CL@ DB '+', 00H, 00H, 00H	; `string'
CONST	ENDS
;	COMDAT ??_C@_13DMCFHHKM@?$AA3@
CONST	SEGMENT
??_C@_13DMCFHHKM@?$AA3@ DB '3', 00H, 00H, 00H		; `string'
CONST	ENDS
;	COMDAT ??_C@_13JOFGPIOO@?$AA?4@
CONST	SEGMENT
??_C@_13JOFGPIOO@?$AA?4@ DB '.', 00H, 00H, 00H		; `string'
CONST	ENDS
;	COMDAT ??_C@_13DEFPDAGF@?$AA?0@
CONST	SEGMENT
??_C@_13DEFPDAGF@?$AA?0@ DB ',', 00H, 00H, 00H		; `string'
CONST	ENDS
;	COMDAT xdata
xdata	SEGMENT
$unwind$PMC_TryParse_Imp DD 010401H
	DD	06204H
xdata	ENDS
;	COMDAT xdata
xdata	SEGMENT
$chain$3$TryParseX DD 021H
	DD	imagerel TryParseX
	DD	imagerel TryParseX+107
	DD	imagerel $unwind$TryParseX
xdata	ENDS
;	COMDAT xdata
xdata	SEGMENT
$chain$2$TryParseX DD 021H
	DD	imagerel TryParseX+107
	DD	imagerel TryParseX+461
	DD	imagerel $chain$0$TryParseX
xdata	ENDS
;	COMDAT xdata
xdata	SEGMENT
$chain$1$TryParseX DD 020821H
	DD	018d408H
	DD	imagerel TryParseX+107
	DD	imagerel TryParseX+461
	DD	imagerel $chain$0$TryParseX
xdata	ENDS
;	COMDAT xdata
xdata	SEGMENT
$chain$0$TryParseX DD 020821H
	DD	0213408H
	DD	imagerel TryParseX
	DD	imagerel TryParseX+107
	DD	imagerel $unwind$TryParseX
xdata	ENDS
;	COMDAT xdata
xdata	SEGMENT
$unwind$TryParseX DD 082319H
	DD	0190111H
	DD	0e008f00aH
	DD	07004c006H
	DD	050026003H
	DD	imagerel __GSHandlerCheck
	DD	0b0H
xdata	ENDS
;	COMDAT xdata
xdata	SEGMENT
$chain$4$BuildBinaryFromHexString DD 021H
	DD	imagerel BuildBinaryFromHexString
	DD	imagerel BuildBinaryFromHexString+54
	DD	imagerel $unwind$BuildBinaryFromHexString
xdata	ENDS
;	COMDAT xdata
xdata	SEGMENT
$chain$3$BuildBinaryFromHexString DD 021H
	DD	imagerel BuildBinaryFromHexString+54
	DD	imagerel BuildBinaryFromHexString+82
	DD	imagerel $chain$0$BuildBinaryFromHexString
xdata	ENDS
;	COMDAT xdata
xdata	SEGMENT
$chain$2$BuildBinaryFromHexString DD 041121H
	DD	0af411H
	DD	09e405H
	DD	imagerel BuildBinaryFromHexString+54
	DD	imagerel BuildBinaryFromHexString+82
	DD	imagerel $chain$0$BuildBinaryFromHexString
xdata	ENDS
;	COMDAT xdata
xdata	SEGMENT
$chain$0$BuildBinaryFromHexString DD 020521H
	DD	085405H
	DD	imagerel BuildBinaryFromHexString
	DD	imagerel BuildBinaryFromHexString+54
	DD	imagerel $unwind$BuildBinaryFromHexString
xdata	ENDS
;	COMDAT xdata
xdata	SEGMENT
$unwind$BuildBinaryFromHexString DD 040801H
	DD	070043208H
	DD	030026003H
xdata	ENDS
;	COMDAT xdata
xdata	SEGMENT
$unwind$Build1WordFromHexString DD 091101H
	DD	0f00d6211H
	DD	0d009e00bH
	DD	07005c007H
	DD	050036004H
	DD	03002H
xdata	ENDS
;	COMDAT xdata
xdata	SEGMENT
$unwind$BuildLeading1WordFromHexString DD 020601H
	DD	030023206H
xdata	ENDS
;	COMDAT xdata
xdata	SEGMENT
$chain$1$TryParseDN DD 021H
	DD	imagerel TryParseDN
	DD	imagerel TryParseDN+731
	DD	imagerel $unwind$TryParseDN
xdata	ENDS
;	COMDAT xdata
xdata	SEGMENT
$chain$0$TryParseDN DD 020821H
	DD	016d408H
	DD	imagerel TryParseDN
	DD	imagerel TryParseDN+731
	DD	imagerel $unwind$TryParseDN
xdata	ENDS
;	COMDAT xdata
xdata	SEGMENT
$unwind$TryParseDN DD 0a1c01H
	DD	018641cH
	DD	017341cH
	DD	0f012f21cH
	DD	0c00ee010H
	DD	0500b700cH
xdata	ENDS
;	COMDAT xdata
xdata	SEGMENT
$unwind$ConvertCardinalNumber DD 085301H
	DD	083453H
	DD	0a540dH
	DD	0e009320dH
	DD	060067007H
xdata	ENDS
;	COMDAT xdata
xdata	SEGMENT
$unwind$MultiplyAndAdd_using_ADCX_MULX DD 051301H
	DD	07a0113H
	DD	030037004H
	DD	05002H
xdata	ENDS
;	COMDAT xdata
xdata	SEGMENT
$unwind$MultiplyAndAdd_using_ADC_MUL DD 041201H
	DD	07b0112H
	DD	050023003H
xdata	ENDS
;	COMDAT xdata
xdata	SEGMENT
$chain$1$BuildBinaryFromDecimalString DD 021H
	DD	imagerel BuildBinaryFromDecimalString
	DD	imagerel BuildBinaryFromDecimalString+140
	DD	imagerel $unwind$BuildBinaryFromDecimalString
xdata	ENDS
;	COMDAT xdata
xdata	SEGMENT
$chain$0$BuildBinaryFromDecimalString DD 020521H
	DD	066405H
	DD	imagerel BuildBinaryFromDecimalString
	DD	imagerel BuildBinaryFromDecimalString+140
	DD	imagerel $unwind$BuildBinaryFromDecimalString
xdata	ENDS
;	COMDAT xdata
xdata	SEGMENT
$unwind$BuildBinaryFromDecimalString DD 081501H
	DD	09e415H
	DD	087415H
	DD	073415H
	DD	0f0113215H
xdata	ENDS
;	COMDAT xdata
xdata	SEGMENT
$unwind$Build1WordFromDecimalString DD 080d01H
	DD	0e00bf00dH
	DD	0c007d009H
	DD	060047005H
	DD	030025003H
xdata	ENDS
;	COMDAT xdata
xdata	SEGMENT
$unwind$ParseAsHexNumberString DD 051f19H
	DD	016340dH
	DD	014010dH
	DD	07006H
	DD	imagerel __GSHandlerCheck
	DD	090H
xdata	ENDS
;	COMDAT xdata
xdata	SEGMENT
$unwind$ParseAsDecimalNumberString DD 072519H
	DD	0177417H
	DD	0163417H
	DD	0140117H
	DD	0500bH
	DD	imagerel __GSHandlerCheck
	DD	090H
xdata	ENDS
;	COMDAT xdata
xdata	SEGMENT
$unwind$InitializeParserState DD 060f01H
	DD	07640fH
	DD	06340fH
	DD	0700b320fH
xdata	ENDS
;	COMDAT xdata
xdata	SEGMENT
$unwind$_COPY_MEMORY_UNIT DD 040a01H
	DD	02740aH
	DD	016405H
xdata	ENDS
;	COMDAT xdata
xdata	SEGMENT
$unwind$PMC_TryParseForSINT DD 020601H
	DD	030025206H
xdata	ENDS
;	COMDAT xdata
xdata	SEGMENT
$unwind$PMC_TryParse DD 020601H
	DD	030027206H
xdata	ENDS
;	COMDAT xdata
xdata	SEGMENT
$unwind$Initialize_Parse DD 020601H
	DD	030023206H
xdata	ENDS
; Function compile flags: /Ogtpy
; File z:\sources\lunor\repos\rougemeilland\palmtree.math.core.uint\palmtree.math.core.uint\pmc_parse.c
;	COMDAT PMC_TryParse_Imp
_TEXT	SEGMENT
source$ = 64
number_styles$ = 72
format_option$ = 80
o_sign$ = 88
o_abs$ = 96
PMC_TryParse_Imp PROC					; COMDAT

; 1022 : {

	sub	rsp, 56					; 00000038H

; 1023 :     PMC_STATUS_CODE result;
; 1024 :     if (number_styles & PMC_NUMBER_STYLE_ALLOW_HEX_SPECIFIER)

	bt	edx, 9
	jae	SHORT $LN2@PMC_TryPar

; 1025 :     {
; 1026 :         // 16進数の場合
; 1027 : 
; 1028 :         // 許可されている組み合わせのフラグ
; 1029 :         _UINT32_T mask = PMC_NUMBER_STYLE_ALLOW_HEX_SPECIFIER | PMC_NUMBER_STYLE_ALLOW_LEADING_WHITE | PMC_NUMBER_STYLE_ALLOW_TRAILING_WHITE;
; 1030 : 
; 1031 :         // 許可されていないフラグが指定されていればエラー
; 1032 :         if (number_styles & ~mask)

	test	edx, -516				; fffffdfcH
	je	SHORT $LN4@PMC_TryPar

; 1033 :             return (PMC_STATUS_ARGUMENT_ERROR);

	mov	eax, -1

; 1049 : }

	add	rsp, 56					; 00000038H
	ret	0
$LN4@PMC_TryPar:

; 1034 : 
; 1035 :         if ((result = TryParseX(source, number_styles, format_option, o_sign, o_abs)) != PMC_STATUS_OK)

	mov	rax, QWORD PTR o_abs$[rsp]
	mov	QWORD PTR [rsp+32], rax
	call	TryParseX
	test	eax, eax
	je	SHORT $LN6@PMC_TryPar

; 1049 : }

	add	rsp, 56					; 00000038H
	ret	0
$LN2@PMC_TryPar:

; 1036 :             return (result);
; 1037 :     }
; 1038 :     else
; 1039 :     {
; 1040 :         // 10進数の場合
; 1041 :         if ((result = TryParseDN(source, number_styles, format_option, o_sign, o_abs)) != PMC_STATUS_OK)

	mov	rax, QWORD PTR o_abs$[rsp]
	mov	QWORD PTR [rsp+32], rax
	call	TryParseDN
	test	eax, eax
	jne	SHORT $LN1@PMC_TryPar
$LN6@PMC_TryPar:

; 1042 :             return (result);
; 1043 :     }
; 1044 : #ifdef _DEBUG
; 1045 :     if ((result = CheckNumber(*o_abs)) != PMC_STATUS_OK)
; 1046 :         return (result);
; 1047 : #endif
; 1048 :     return (PMC_STATUS_OK);

	xor	eax, eax
$LN1@PMC_TryPar:

; 1049 : }

	add	rsp, 56					; 00000038H
	ret	0
PMC_TryParse_Imp ENDP
_TEXT	ENDS
; Function compile flags: /Ogtpy
; File z:\sources\lunor\repos\rougemeilland\palmtree.math.core.uint\palmtree.math.core.uint\pmc_parse.c
; File z:\sources\lunor\repos\rougemeilland\palmtree.math.core.uint\palmtree.math.core.uint\pmc_inline_func.h
; File z:\sources\lunor\repos\rougemeilland\palmtree.math.core.uint\palmtree.math.core.uint\pmc_parse.c
; File z:\sources\lunor\repos\rougemeilland\palmtree.math.core.uint\palmtree.math.core.uint\pmc_inline_func.h
; File z:\sources\lunor\repos\rougemeilland\palmtree.math.core.uint\palmtree.math.core.uint\pmc_parse.c
; File z:\sources\lunor\repos\rougemeilland\palmtree.math.core.uint\palmtree.math.core.uint\pmc_inline_func.h
; File z:\sources\lunor\repos\rougemeilland\palmtree.math.core.uint\palmtree.math.core.uint\pmc_parse.c
; File z:\sources\lunor\repos\rougemeilland\palmtree.math.core.uint\palmtree.math.core.uint\pmc_inline_func.h
; File z:\sources\lunor\repos\rougemeilland\palmtree.math.core.uint\palmtree.math.core.uint\pmc_parse.c
;	COMDAT TryParseX
_TEXT	SEGMENT
int_part_buf_words$ = 48
int_part_buf_code$ = 56
o_sign$GSCopy$1$ = 64
o_light_check_code$ = 72
state$1 = 80
__$ArrayPad$ = 176
source$ = 256
number_styles$ = 264
format_option$ = 272
o_sign$ = 280
o_abs$ = 288
TryParseX PROC						; COMDAT

; 958  : {

	push	rbp
	push	rsi
	push	rdi
	push	r12
	push	r14
	push	r15
	sub	rsp, 200				; 000000c8H
	mov	rax, QWORD PTR __security_cookie
	xor	rax, rsp
	mov	QWORD PTR __$ArrayPad$[rsp], rax
	mov	r15, QWORD PTR o_abs$[rsp]
	mov	r12, r9
	mov	QWORD PTR o_sign$GSCopy$1$[rsp], r9
	mov	rbp, r8
	mov	edi, edx
	mov	rsi, rcx

; 959  :     PMC_STATUS_CODE result;
; 960  :     __UNIT_TYPE source_len = lstrlenW(source);

	call	QWORD PTR __imp_lstrlenW
	movsxd	rcx, eax

; 961  :     __UNIT_TYPE int_part_buf_code;
; 962  :     __UNIT_TYPE int_part_buf_words;
; 963  :     wchar_t* int_part_buf = (wchar_t*)AllocateBlock((source_len + 1) * sizeof(wchar_t) * 8, &int_part_buf_words, &int_part_buf_code);

	lea	r8, QWORD PTR int_part_buf_code$[rsp]
	inc	rcx
	lea	rdx, QWORD PTR int_part_buf_words$[rsp]
	shl	rcx, 4
	call	AllocateBlock
	mov	r14, rax

; 964  :     if (int_part_buf == NULL)

	test	rax, rax
	jne	SHORT $LN4@TryParseX

; 965  :         return (PMC_STATUS_NOT_ENOUGH_MEMORY);

	lea	eax, QWORD PTR [r14-5]
	jmp	$LN1@TryParseX
$LN4@TryParseX:
	mov	QWORD PTR [rsp+264], rbx

; 283  :     InitializeParserState(&state, in_ptr, number_styles, format_option, int_part_buf, NULL);

	lea	rcx, QWORD PTR state$1[rsp]
	xor	ebx, ebx
	mov	r9, rbp
	mov	QWORD PTR [rsp+40], rbx
	mov	r8d, edi
	mov	rdx, rsi
	mov	QWORD PTR [rsp+32], r14
	call	InitializeParserState

; 284  :     if (number_styles & PMC_NUMBER_STYLE_ALLOW_LEADING_WHITE)

	test	dil, 1
	je	SHORT $LN86@TryParseX

; 106  :         switch (*state->IN_PTR)

	mov	rcx, QWORD PTR state$1[rsp]
	movzx	eax, WORD PTR [rcx]
	cmp	eax, 9
	jb	SHORT $LN86@TryParseX
$LL20@TryParseX:
	cmp	eax, 13
	jbe	SHORT $LN25@TryParseX
	cmp	eax, 32					; 00000020H
	jne	SHORT $LN86@TryParseX
$LN25@TryParseX:

; 107  :         {
; 108  :         case L' ':
; 109  :         case L'\t':
; 110  :         case L'\n':
; 111  :         case L'\r':
; 112  :         case L'\f':
; 113  :         case L'\v':
; 114  :             break;
; 115  : 
; 116  :         default:
; 117  :             return;
; 118  :         }
; 119  :         state->IN_PTR += 1;

	add	rcx, 2
	mov	QWORD PTR state$1[rsp], rcx
	movzx	eax, WORD PTR [rcx]
	cmp	eax, 9
	jae	SHORT $LL20@TryParseX
$LN86@TryParseX:

; 286  :     ParseAsIntegerPartNumberSequence(&state);

	lea	rcx, QWORD PTR state$1[rsp]
	call	ParseAsIntegerPartNumberSequence

; 287  :     if (number_styles & PMC_NUMBER_STYLE_ALLOW_TRAILING_WHITE)

	mov	rax, QWORD PTR state$1[rsp]
	test	dil, 2
	je	SHORT $LN67@TryParseX

; 106  :         switch (*state->IN_PTR)

	movzx	ecx, WORD PTR [rax]
	cmp	ecx, 9
	jb	SHORT $LN67@TryParseX
	npad	3
$LL29@TryParseX:
	cmp	ecx, 13
	jbe	SHORT $LN34@TryParseX
	cmp	ecx, 32					; 00000020H
	jne	SHORT $LN67@TryParseX
$LN34@TryParseX:

; 107  :         {
; 108  :         case L' ':
; 109  :         case L'\t':
; 110  :         case L'\n':
; 111  :         case L'\r':
; 112  :         case L'\f':
; 113  :         case L'\v':
; 114  :             break;
; 115  : 
; 116  :         default:
; 117  :             return;
; 118  :         }
; 119  :         state->IN_PTR += 1;

	add	rax, 2
	mov	QWORD PTR state$1[rsp], rax
	movzx	ecx, WORD PTR [rax]
	cmp	ecx, 9
	jae	SHORT $LL29@TryParseX
$LN67@TryParseX:

; 289  :     if (*state.IN_PTR != L'\0')

	mov	edi, 1
	cmp	WORD PTR [rax], bx
	jne	SHORT $LN14@TryParseX

; 96   :     *state->INT_PART_PTR = L'\0';

	mov	rax, QWORD PTR state$1[rsp+72]
	mov	WORD PTR [rax], bx

; 97   :     if (state->NUMBER_STYLES & PMC_NUMBER_STYLE_ALLOW_DECIMAL_POINT)

	test	BYTE PTR state$1[rsp+8], 32		; 00000020H
	je	SHORT $LN38@TryParseX

; 98   :         *state->FRAC_PART_PTR = L'\0';

	mov	rax, QWORD PTR state$1[rsp+80]
	mov	WORD PTR [rax], bx
$LN38@TryParseX:

; 292  :     return (1);

	mov	ebx, edi
$LN14@TryParseX:

; 966  :     int result_parsing = ParseAsHexNumberString(source, number_styles, format_option, int_part_buf);
; 967  :     if ((result = CheckBlockLight((__UNIT_TYPE*)int_part_buf, int_part_buf_code)) != PMC_STATUS_OK)

	mov	rdx, QWORD PTR int_part_buf_code$[rsp]
	mov	rcx, r14
	call	CheckBlockLight
	test	eax, eax
	jne	$LN87@TryParseX

; 968  :         return (result);
; 969  :     if (!result_parsing || int_part_buf[0] == L'\0')

	test	ebx, ebx
	je	$LN7@TryParseX
	movzx	ecx, WORD PTR [r14]
	test	cx, cx
	je	$LN7@TryParseX

; 973  :     }
; 974  : 
; 975  :     // 先頭 1 文字が 8～F であれば負数とみなす
; 976  :     *o_sign = Parse1DigitFromHexChar(int_part_buf[0]) >= 8 ? -1 : 1;

	call	Parse1DigitFromHexChar
	cmp	eax, 8
	mov	ecx, -1					; ffffffffH
	cmovae	edi, ecx

; 977  : 
; 978  :     __UNIT_TYPE o_bit_count = lstrlenW(int_part_buf) * 4;

	mov	rcx, r14
	mov	BYTE PTR [r12], dil
	call	QWORD PTR __imp_lstrlenW

; 979  :     __UNIT_TYPE o_light_check_code;
; 980  :     if ((result = AllocateNumber(o_abs, o_bit_count, &o_light_check_code)) != PMC_STATUS_OK)

	lea	r8, QWORD PTR o_light_check_code$[rsp]
	mov	rcx, r15
	mov	ebp, eax
	shl	ebp, 2
	movsxd	rdx, ebp
	call	AllocateNumber
	mov	ebx, eax
	mov	rcx, r14
	test	eax, eax
	je	SHORT $LN8@TryParseX

; 981  :     {
; 982  :         DeallocateBlock((__UNIT_TYPE*)int_part_buf, int_part_buf_words);

	mov	rdx, QWORD PTR int_part_buf_words$[rsp]
	call	DeallocateBlock

; 983  :         return (result);

	mov	eax, ebx
	jmp	$LN87@TryParseX
$LN8@TryParseX:

; 984  :     }
; 985  :     BuildBinaryFromHexString(int_part_buf, (*o_abs)->BLOCK);

	mov	rax, QWORD PTR [r15]
	mov	rbx, QWORD PTR [rax+64]

; 939  :     __UNIT_TYPE source_count = lstrlenW(source);

	call	QWORD PTR __imp_lstrlenW
; File z:\sources\lunor\repos\rougemeilland\palmtree.math.core.uint\palmtree.math.core.uint\pmc_inline_func.h

; 188  :         return ((u + v - 1) / v);

	sub	rbx, 8
; File z:\sources\lunor\repos\rougemeilland\palmtree.math.core.uint\palmtree.math.core.uint\pmc_parse.c

; 939  :     __UNIT_TYPE source_count = lstrlenW(source);

	movsxd	r11, eax

; 940  :     wchar_t* in_ptr = source;

	mov	rdi, r14
; File z:\sources\lunor\repos\rougemeilland\palmtree.math.core.uint\palmtree.math.core.uint\pmc_inline_func.h

; 188  :         return ((u + v - 1) / v);

	lea	rsi, QWORD PTR [r11+15]
	shr	rsi, 4
	lea	rsi, QWORD PTR [rbx+rsi*8]
; File z:\sources\lunor\repos\rougemeilland\palmtree.math.core.uint\palmtree.math.core.uint\pmc_parse.c

; 942  :     int r = source_count % word_digit_count;

	mov	rbx, r11
	and	ebx, 15

; 943  :     if (r > 0)

	jbe	$LN64@TryParseX

; 891  :     __UNIT_TYPE x = Parse1DigitFromHexChar(*in_ptr);

	movzx	ecx, WORD PTR [r14]
	mov	QWORD PTR [rsp+192], r13
	call	Parse1DigitFromHexChar

; 893  :     --count;

	lea	r9, QWORD PTR [rbx-1]
	mov	r10d, eax

; 945  :         *out_ptr-- = BuildLeading1WordFromHexString(in_ptr, r);

	mov	r13d, ebx

; 892  :     ++in_ptr;

	lea	r8, QWORD PTR [r14+2]

; 894  :     while (count > 0)

	test	r9, r9
	je	SHORT $LN49@TryParseX
	lea	rdi, OFFSET FLAT:__ImageBase
	mov	r12d, -1				; ffffffffH
	npad	6
$LL48@TryParseX:

; 895  :     {
; 896  :         x = x * 16 + Parse1DigitFromHexChar(*in_ptr);

	movzx	edx, WORD PTR [r8]

; 857  :     switch (c)

	lea	eax, DWORD PTR [rdx-48]
	cmp	eax, 54					; 00000036H
	ja	SHORT $LN57@TryParseX
	cdqe
	movzx	eax, BYTE PTR $LN83@TryParseX[rdi+rax]
	mov	ecx, DWORD PTR $LN84@TryParseX[rdi+rax*4]
	add	rcx, rdi
	jmp	rcx
$LN54@TryParseX:

; 858  :     {
; 859  :     case L'0':
; 860  :     case L'1':
; 861  :     case L'2':
; 862  :     case L'3':
; 863  :     case L'4':
; 864  :     case L'5':
; 865  :     case L'6':
; 866  :     case L'7':
; 867  :     case L'8':
; 868  :     case L'9':
; 869  :         return (c - L'0');

	lea	rax, QWORD PTR [rdx-48]
	jmp	SHORT $LN51@TryParseX
$LN55@TryParseX:

; 870  :     case L'a':
; 871  :     case L'b':
; 872  :     case L'c':
; 873  :     case L'd':
; 874  :     case L'e':
; 875  :     case L'f':
; 876  :         return (c - L'a' + 10);

	lea	rax, QWORD PTR [rdx-87]
	jmp	SHORT $LN51@TryParseX
$LN56@TryParseX:

; 877  :     case L'A':
; 878  :     case L'B':
; 879  :     case L'C':
; 880  :     case L'D':
; 881  :     case L'E':
; 882  :     case L'F':
; 883  :         return (c - L'A' + 10);

	lea	rax, QWORD PTR [rdx-55]
	jmp	SHORT $LN51@TryParseX
$LN57@TryParseX:

; 884  :     default:
; 885  :         return ((_UINT32_T)-1);

	mov	rax, r12
$LN51@TryParseX:

; 896  :         x = x * 16 + Parse1DigitFromHexChar(*in_ptr);

	shl	r10, 4

; 897  :         ++in_ptr;

	add	r8, 2
	mov	eax, eax
	add	r10, rax

; 898  :         --count;

	sub	r9, 1
	jne	SHORT $LL48@TryParseX
	mov	r12, QWORD PTR o_sign$GSCopy$1$[rsp]
$LN49@TryParseX:

; 945  :         *out_ptr-- = BuildLeading1WordFromHexString(in_ptr, r);

	mov	QWORD PTR [rsi], r10

; 946  :         in_ptr += r;

	lea	rdi, QWORD PTR [r14+rbx*2]
	sub	rsi, 8

; 947  :         source_count -= r;

	sub	r11, r13
	mov	r13, QWORD PTR [rsp+192]
$LN64@TryParseX:

; 948  :     }
; 949  :     while (source_count > 0)

	test	r11, r11
	je	SHORT $LN42@TryParseX
	lea	rbx, QWORD PTR [r11-1]
	shr	rbx, 4
	inc	rbx
$LL41@TryParseX:

; 950  :     {
; 951  :         *out_ptr-- = Build1WordFromHexString(in_ptr);

	mov	rcx, rdi
	call	Build1WordFromHexString

; 952  :         in_ptr += word_digit_count;

	add	rdi, 32					; 00000020H
	mov	QWORD PTR [rsi], rax
	lea	rsi, QWORD PTR [rsi-8]
	sub	rbx, 1
	jne	SHORT $LL41@TryParseX
$LN42@TryParseX:

; 986  :     if ((result = CheckBlockLight((*o_abs)->BLOCK, o_light_check_code)) != PMC_STATUS_OK)

	mov	rcx, QWORD PTR [r15]
	mov	rdx, QWORD PTR o_light_check_code$[rsp]
	mov	rcx, QWORD PTR [rcx+64]
	call	CheckBlockLight
	test	eax, eax
	jne	$LN87@TryParseX

; 987  :         return (result);
; 988  :     DeallocateBlock((__UNIT_TYPE*)int_part_buf, int_part_buf_words);

	mov	rdx, QWORD PTR int_part_buf_words$[rsp]
	mov	rcx, r14
	call	DeallocateBlock

; 989  :     if (*o_sign < 0)

	cmp	BYTE PTR [r12], 0
	jge	SHORT $LN3@TryParseX

; 990  :     {
; 991  :         // 負数の場合
; 992  : 
; 993  :         int lzcnt = o_bit_count % __UNIT_TYPE_BIT_COUNT;

	and	ebp, 63					; 0000003fH

; 994  :         if (lzcnt != 0)

	je	SHORT $LN11@TryParseX

; 995  :         {
; 996  :             __UNIT_TYPE padding = (__UNIT_TYPE)-1 << lzcnt;
; 997  :             (*o_abs)->BLOCK[(*o_abs)->BLOCK_COUNT - 1] |= padding;

	mov	rax, QWORD PTR [r15]
	mov	ecx, ebp
	mov	rdx, QWORD PTR [rax+56]
	mov	rax, QWORD PTR [rax+64]
	lea	r8, QWORD PTR [rax+rdx*8]
	mov	rax, -1
	shl	rax, cl
	or	QWORD PTR [r8-8], rax
$LN11@TryParseX:

; 998  :         }
; 999  : 
; 1000 :         // 配列 (*o_abs)->BLOCK の内容をビット反転してインクリメントする
; 1001 :         char carry = 1;
; 1002 :         __UNIT_TYPE* p = (*o_abs)->BLOCK;

	mov	rax, QWORD PTR [r15]
	mov	dl, 1
	mov	r8, QWORD PTR [rax+56]
	mov	rcx, QWORD PTR [rax+64]

; 1003 :         __UNIT_TYPE count = (*o_abs)->BLOCK_COUNT;
; 1004 :         while (count > 0)

	test	r8, r8
	je	SHORT $LN3@TryParseX
$LL2@TryParseX:

; 1006 :             carry = _ADD_UNIT(carry, ~*p, 0, p);

	mov	rax, QWORD PTR [rcx]

; 1007 :             ++p;

	lea	rcx, QWORD PTR [rcx+8]
; File z:\sources\lunor\repos\rougemeilland\palmtree.math.core.uint\palmtree.math.core.uint\pmc_inline_func.h

; 211  :         return (_addcarry_u64(carry, u, v, w));

	add	dl, -1
; File z:\sources\lunor\repos\rougemeilland\palmtree.math.core.uint\palmtree.math.core.uint\pmc_parse.c

; 1006 :             carry = _ADD_UNIT(carry, ~*p, 0, p);

	not	rax
; File z:\sources\lunor\repos\rougemeilland\palmtree.math.core.uint\palmtree.math.core.uint\pmc_inline_func.h

; 211  :         return (_addcarry_u64(carry, u, v, w));

	adc	rax, 0
	mov	QWORD PTR [rcx-8], rax
	setb	dl
; File z:\sources\lunor\repos\rougemeilland\palmtree.math.core.uint\palmtree.math.core.uint\pmc_parse.c

; 1008 :             --count;

	sub	r8, 1
	jne	SHORT $LL2@TryParseX
$LN3@TryParseX:

; 1009 :         }
; 1010 :     }
; 1011 :     CommitNumber(*o_abs);

	mov	rcx, QWORD PTR [r15]
	call	CommitNumber

; 1012 :     if ((*o_abs)->IS_ZERO)

	mov	rcx, QWORD PTR [r15]
	test	BYTE PTR [rcx], 1
	je	SHORT $LN12@TryParseX

; 1013 :     {
; 1014 :         DeallocateNumber(*o_abs);

	call	DeallocateNumber

; 1015 :         *o_sign = 0;
; 1016 :         *o_abs = &number_zero;

	lea	rax, OFFSET FLAT:number_zero
	mov	BYTE PTR [r12], 0
	mov	QWORD PTR [r15], rax
$LN12@TryParseX:

; 1017 :     }
; 1018 :     return (PMC_STATUS_OK);

	xor	eax, eax
	jmp	SHORT $LN87@TryParseX
$LN7@TryParseX:

; 970  :     {
; 971  :         DeallocateBlock((__UNIT_TYPE*)int_part_buf, int_part_buf_words);

	mov	rdx, QWORD PTR int_part_buf_words$[rsp]
	mov	rcx, r14
	call	DeallocateBlock

; 972  :         return (PMC_STATUS_PARSING_ERROR);

	mov	eax, edi
$LN87@TryParseX:
	mov	rbx, QWORD PTR [rsp+264]
$LN1@TryParseX:

; 1019 : }

	mov	rcx, QWORD PTR __$ArrayPad$[rsp]
	xor	rcx, rsp
	call	__security_check_cookie
	add	rsp, 200				; 000000c8H
	pop	r15
	pop	r14
	pop	r12
	pop	rdi
	pop	rsi
	pop	rbp
	ret	0
	npad	1
$LN84@TryParseX:
	DD	$LN54@TryParseX
	DD	$LN56@TryParseX
	DD	$LN55@TryParseX
	DD	$LN57@TryParseX
$LN83@TryParseX:
	DB	0
	DB	0
	DB	0
	DB	0
	DB	0
	DB	0
	DB	0
	DB	0
	DB	0
	DB	0
	DB	3
	DB	3
	DB	3
	DB	3
	DB	3
	DB	3
	DB	3
	DB	1
	DB	1
	DB	1
	DB	1
	DB	1
	DB	1
	DB	3
	DB	3
	DB	3
	DB	3
	DB	3
	DB	3
	DB	3
	DB	3
	DB	3
	DB	3
	DB	3
	DB	3
	DB	3
	DB	3
	DB	3
	DB	3
	DB	3
	DB	3
	DB	3
	DB	3
	DB	3
	DB	3
	DB	3
	DB	3
	DB	3
	DB	3
	DB	2
	DB	2
	DB	2
	DB	2
	DB	2
	DB	2
TryParseX ENDP
_TEXT	ENDS
; Function compile flags: /Ogtpy
; File z:\sources\lunor\repos\rougemeilland\palmtree.math.core.uint\palmtree.math.core.uint\pmc_parse.c
; File z:\sources\lunor\repos\rougemeilland\palmtree.math.core.uint\palmtree.math.core.uint\pmc_inline_func.h
; File z:\sources\lunor\repos\rougemeilland\palmtree.math.core.uint\palmtree.math.core.uint\pmc_parse.c
; File z:\sources\lunor\repos\rougemeilland\palmtree.math.core.uint\palmtree.math.core.uint\pmc_inline_func.h
; File z:\sources\lunor\repos\rougemeilland\palmtree.math.core.uint\palmtree.math.core.uint\pmc_parse.c
;	COMDAT BuildBinaryFromHexString
_TEXT	SEGMENT
source$ = 64
out_buf$ = 72
BuildBinaryFromHexString PROC				; COMDAT

; 937  : {

	push	rbx
	push	rsi
	push	rdi
	sub	rsp, 32					; 00000020H
	mov	rbx, rdx
	mov	rdi, rcx

; 939  :     __UNIT_TYPE source_count = lstrlenW(source);

	call	QWORD PTR __imp_lstrlenW
; File z:\sources\lunor\repos\rougemeilland\palmtree.math.core.uint\palmtree.math.core.uint\pmc_inline_func.h

; 188  :         return ((u + v - 1) / v);

	sub	rbx, 8
; File z:\sources\lunor\repos\rougemeilland\palmtree.math.core.uint\palmtree.math.core.uint\pmc_parse.c

; 939  :     __UNIT_TYPE source_count = lstrlenW(source);

	movsxd	r11, eax
; File z:\sources\lunor\repos\rougemeilland\palmtree.math.core.uint\palmtree.math.core.uint\pmc_inline_func.h

; 188  :         return ((u + v - 1) / v);

	lea	rsi, QWORD PTR [r11+15]
	shr	rsi, 4
	lea	rsi, QWORD PTR [rbx+rsi*8]
; File z:\sources\lunor\repos\rougemeilland\palmtree.math.core.uint\palmtree.math.core.uint\pmc_parse.c

; 942  :     int r = source_count % word_digit_count;

	mov	rbx, r11
	and	ebx, 15

; 943  :     if (r > 0)

	jbe	$LN21@BuildBinar

; 891  :     __UNIT_TYPE x = Parse1DigitFromHexChar(*in_ptr);

	movzx	ecx, WORD PTR [rdi]
	mov	QWORD PTR [rsp+64], rbp
	call	Parse1DigitFromHexChar

; 893  :     --count;

	lea	r9, QWORD PTR [rbx-1]
	mov	r10d, eax

; 944  :     {
; 945  :         *out_ptr-- = BuildLeading1WordFromHexString(in_ptr, r);

	mov	ebp, ebx

; 892  :     ++in_ptr;

	lea	r8, QWORD PTR [rdi+2]

; 894  :     while (count > 0)

	test	r9, r9
	je	SHORT $LN10@BuildBinar
	mov	QWORD PTR [rsp+72], r14
	lea	r14, OFFSET FLAT:__ImageBase
	mov	QWORD PTR [rsp+80], r15
	mov	r15d, -1				; ffffffffH
	npad	7
$LL9@BuildBinar:

; 895  :     {
; 896  :         x = x * 16 + Parse1DigitFromHexChar(*in_ptr);

	movzx	edx, WORD PTR [r8]

; 857  :     switch (c)

	lea	eax, DWORD PTR [rdx-48]
	cmp	eax, 54					; 00000036H
	ja	SHORT $LN18@BuildBinar
	cdqe
	movzx	eax, BYTE PTR $LN28@BuildBinar[r14+rax]
	mov	ecx, DWORD PTR $LN29@BuildBinar[r14+rax*4]
	add	rcx, r14
	jmp	rcx
$LN15@BuildBinar:

; 858  :     {
; 859  :     case L'0':
; 860  :     case L'1':
; 861  :     case L'2':
; 862  :     case L'3':
; 863  :     case L'4':
; 864  :     case L'5':
; 865  :     case L'6':
; 866  :     case L'7':
; 867  :     case L'8':
; 868  :     case L'9':
; 869  :         return (c - L'0');

	lea	rax, QWORD PTR [rdx-48]
	jmp	SHORT $LN12@BuildBinar
$LN16@BuildBinar:

; 870  :     case L'a':
; 871  :     case L'b':
; 872  :     case L'c':
; 873  :     case L'd':
; 874  :     case L'e':
; 875  :     case L'f':
; 876  :         return (c - L'a' + 10);

	lea	rax, QWORD PTR [rdx-87]
	jmp	SHORT $LN12@BuildBinar
$LN17@BuildBinar:

; 877  :     case L'A':
; 878  :     case L'B':
; 879  :     case L'C':
; 880  :     case L'D':
; 881  :     case L'E':
; 882  :     case L'F':
; 883  :         return (c - L'A' + 10);

	lea	rax, QWORD PTR [rdx-55]
	jmp	SHORT $LN12@BuildBinar
$LN18@BuildBinar:

; 884  :     default:
; 885  :         return ((_UINT32_T)-1);

	mov	rax, r15
$LN12@BuildBinar:

; 896  :         x = x * 16 + Parse1DigitFromHexChar(*in_ptr);

	shl	r10, 4

; 897  :         ++in_ptr;

	add	r8, 2
	mov	eax, eax
	add	r10, rax

; 898  :         --count;

	sub	r9, 1
	jne	SHORT $LL9@BuildBinar

; 894  :     while (count > 0)

	mov	r15, QWORD PTR [rsp+80]
	mov	r14, QWORD PTR [rsp+72]
$LN10@BuildBinar:

; 944  :     {
; 945  :         *out_ptr-- = BuildLeading1WordFromHexString(in_ptr, r);

	mov	QWORD PTR [rsi], r10

; 946  :         in_ptr += r;

	lea	rdi, QWORD PTR [rdi+rbx*2]
	sub	rsi, 8

; 947  :         source_count -= r;

	sub	r11, rbp
	mov	rbp, QWORD PTR [rsp+64]
$LN21@BuildBinar:

; 948  :     }
; 949  :     while (source_count > 0)

	test	r11, r11
	je	SHORT $LN3@BuildBinar
	lea	rbx, QWORD PTR [r11-1]
	shr	rbx, 4
	inc	rbx
	npad	7
$LL2@BuildBinar:

; 950  :     {
; 951  :         *out_ptr-- = Build1WordFromHexString(in_ptr);

	mov	rcx, rdi
	call	Build1WordFromHexString

; 952  :         in_ptr += word_digit_count;

	add	rdi, 32					; 00000020H
	mov	QWORD PTR [rsi], rax
	lea	rsi, QWORD PTR [rsi-8]
	sub	rbx, 1
	jne	SHORT $LL2@BuildBinar
$LN3@BuildBinar:

; 953  :         source_count -= word_digit_count;
; 954  :     }
; 955  : }

	add	rsp, 32					; 00000020H
	pop	rdi
	pop	rsi
	pop	rbx
	ret	0
	npad	3
$LN29@BuildBinar:
	DD	$LN15@BuildBinar
	DD	$LN17@BuildBinar
	DD	$LN16@BuildBinar
	DD	$LN18@BuildBinar
$LN28@BuildBinar:
	DB	0
	DB	0
	DB	0
	DB	0
	DB	0
	DB	0
	DB	0
	DB	0
	DB	0
	DB	0
	DB	3
	DB	3
	DB	3
	DB	3
	DB	3
	DB	3
	DB	3
	DB	1
	DB	1
	DB	1
	DB	1
	DB	1
	DB	1
	DB	3
	DB	3
	DB	3
	DB	3
	DB	3
	DB	3
	DB	3
	DB	3
	DB	3
	DB	3
	DB	3
	DB	3
	DB	3
	DB	3
	DB	3
	DB	3
	DB	3
	DB	3
	DB	3
	DB	3
	DB	3
	DB	3
	DB	3
	DB	3
	DB	3
	DB	3
	DB	2
	DB	2
	DB	2
	DB	2
	DB	2
	DB	2
BuildBinaryFromHexString ENDP
_TEXT	ENDS
; Function compile flags: /Ogtpy
; File z:\sources\lunor\repos\rougemeilland\palmtree.math.core.uint\palmtree.math.core.uint\pmc_parse.c
;	COMDAT Build1WordFromHexString
_TEXT	SEGMENT
tv264 = 32
in_ptr$ = 128
tv458 = 136
tv429 = 144
tv428 = 152
Build1WordFromHexString PROC				; COMDAT

; 904  : {

	push	rbx
	push	rbp
	push	rsi
	push	rdi
	push	r12
	push	r13
	push	r14
	push	r15
	sub	rsp, 56					; 00000038H
	mov	rdx, rcx

; 905  :     __UNIT_TYPE x = Parse1DigitFromHexChar(*in_ptr++);

	movzx	ecx, WORD PTR [rcx]

; 906  :     if (sizeof(__UNIT_TYPE) >= sizeof(_UINT64_T))
; 907  :     {
; 908  :         x = x * 16 + Parse1DigitFromHexChar(*in_ptr++);
; 909  :         x = x * 16 + Parse1DigitFromHexChar(*in_ptr++);
; 910  :         x = x * 16 + Parse1DigitFromHexChar(*in_ptr++);
; 911  :         x = x * 16 + Parse1DigitFromHexChar(*in_ptr++);
; 912  :         x = x * 16 + Parse1DigitFromHexChar(*in_ptr++);
; 913  :         x = x * 16 + Parse1DigitFromHexChar(*in_ptr++);
; 914  :         x = x * 16 + Parse1DigitFromHexChar(*in_ptr++);
; 915  :         x = x * 16 + Parse1DigitFromHexChar(*in_ptr++);
; 916  :     }
; 917  :     if (sizeof(__UNIT_TYPE) >= sizeof(_UINT32_T))
; 918  :     {
; 919  :         x = x * 16 + Parse1DigitFromHexChar(*in_ptr++);
; 920  :         x = x * 16 + Parse1DigitFromHexChar(*in_ptr++);
; 921  :         x = x * 16 + Parse1DigitFromHexChar(*in_ptr++);

	movzx	eax, WORD PTR [rdx+22]
	movzx	r10d, WORD PTR [rdx+2]
	movzx	r11d, WORD PTR [rdx+4]
	movzx	ebx, WORD PTR [rdx+6]
	movzx	edi, WORD PTR [rdx+8]
	movzx	esi, WORD PTR [rdx+10]
	movzx	ebp, WORD PTR [rdx+12]
	movzx	r14d, WORD PTR [rdx+14]
	movzx	r15d, WORD PTR [rdx+16]
	movzx	r12d, WORD PTR [rdx+18]
	movzx	r13d, WORD PTR [rdx+20]
	mov	WORD PTR tv458[rsp], ax

; 922  :         x = x * 16 + Parse1DigitFromHexChar(*in_ptr++);

	movzx	eax, WORD PTR [rdx+24]
	mov	WORD PTR tv429[rsp], ax

; 923  :     }
; 924  :     if (sizeof(__UNIT_TYPE) >= sizeof(_UINT16_T))
; 925  :     {
; 926  :         x = x * 16 + Parse1DigitFromHexChar(*in_ptr++);

	movzx	eax, WORD PTR [rdx+26]
	add	rdx, 28
	mov	QWORD PTR in_ptr$[rsp], rdx
	mov	WORD PTR tv428[rsp], ax
	call	Parse1DigitFromHexChar
	mov	eax, eax
	movzx	ecx, r10w

; 927  :         x = x * 16 + Parse1DigitFromHexChar(*in_ptr++);
; 928  :     }
; 929  :     if (sizeof(__UNIT_TYPE) >= sizeof(_BYTE_T))
; 930  :     {
; 931  :         x = x * 16 + Parse1DigitFromHexChar(*in_ptr++);

	shl	rax, 4
	mov	QWORD PTR tv264[rsp], rax
	call	Parse1DigitFromHexChar
	mov	r10d, eax
	movzx	ecx, r11w
	mov	rax, QWORD PTR tv264[rsp]
	add	rax, r10
	shl	rax, 4
	mov	QWORD PTR tv264[rsp], rax
	call	Parse1DigitFromHexChar
	mov	r11, QWORD PTR tv264[rsp]
	movzx	ecx, bx
	mov	r10d, eax
	add	r11, r10
	shl	r11, 4
	call	Parse1DigitFromHexChar
	mov	r10d, eax
	movzx	ecx, di
	add	r11, r10
	shl	r11, 4
	call	Parse1DigitFromHexChar
	mov	r10d, eax
	movzx	ecx, si
	add	r11, r10
	shl	r11, 4
	call	Parse1DigitFromHexChar
	mov	r10d, eax
	movzx	ecx, bp
	add	r11, r10
	shl	r11, 4
	call	Parse1DigitFromHexChar
	mov	r10d, eax
	movzx	ecx, r14w
	add	r11, r10
	shl	r11, 4
	call	Parse1DigitFromHexChar
	mov	r10d, eax
	movzx	ecx, r15w
	add	r11, r10
	shl	r11, 4
	call	Parse1DigitFromHexChar
	mov	r10d, eax
	movzx	ecx, r12w
	add	r11, r10
	shl	r11, 4
	call	Parse1DigitFromHexChar
	mov	r10d, eax
	movzx	ecx, r13w
	add	r11, r10
	shl	r11, 4
	call	Parse1DigitFromHexChar
	movzx	ecx, WORD PTR tv458[rsp]
	mov	r10d, eax
	add	r11, r10
	shl	r11, 4
	call	Parse1DigitFromHexChar
	mov	r10d, eax
	add	r11, r10
	movzx	ecx, WORD PTR tv429[rsp]
	shl	r11, 4
	call	Parse1DigitFromHexChar
	movzx	ecx, WORD PTR tv428[rsp]
	mov	r10d, eax
	add	r11, r10
	shl	r11, 4
	call	Parse1DigitFromHexChar
	mov	rbx, QWORD PTR in_ptr$[rsp]
	mov	r10d, eax
	add	r11, r10
	shl	r11, 4
	movzx	ecx, WORD PTR [rbx]
	call	Parse1DigitFromHexChar
	movzx	ecx, WORD PTR [rbx+2]
	mov	r10d, eax
	add	r11, r10
	shl	r11, 4
	call	Parse1DigitFromHexChar
	mov	eax, eax
	add	rax, r11

; 932  :     }
; 933  :     return (x);
; 934  : }

	add	rsp, 56					; 00000038H
	pop	r15
	pop	r14
	pop	r13
	pop	r12
	pop	rdi
	pop	rsi
	pop	rbp
	pop	rbx
	ret	0
Build1WordFromHexString ENDP
_TEXT	ENDS
; Function compile flags: /Ogtpy
; File z:\sources\lunor\repos\rougemeilland\palmtree.math.core.uint\palmtree.math.core.uint\pmc_parse.c
;	COMDAT BuildLeading1WordFromHexString
_TEXT	SEGMENT
in_ptr$ = 48
count$ = 56
BuildLeading1WordFromHexString PROC			; COMDAT

; 890  : {

	push	rbx
	sub	rsp, 32					; 00000020H
	mov	r11, rcx
	mov	rbx, rdx

; 891  :     __UNIT_TYPE x = Parse1DigitFromHexChar(*in_ptr);

	movzx	ecx, WORD PTR [rcx]
	call	Parse1DigitFromHexChar

; 892  :     ++in_ptr;

	add	r11, 2
	mov	r10d, eax

; 893  :     --count;

	sub	rbx, 1

; 894  :     while (count > 0)

	je	SHORT $LN19@BuildLeadi
	lea	r8, OFFSET FLAT:__ImageBase
	mov	r9d, -1					; ffffffffH
	npad	2
$LL2@BuildLeadi:

; 895  :     {
; 896  :         x = x * 16 + Parse1DigitFromHexChar(*in_ptr);

	movzx	edx, WORD PTR [r11]

; 857  :     switch (c)

	lea	eax, DWORD PTR [rdx-48]
	cmp	eax, 54					; 00000036H
	ja	SHORT $LN11@BuildLeadi
	cdqe
	movzx	eax, BYTE PTR $LN17@BuildLeadi[r8+rax]
	mov	ecx, DWORD PTR $LN18@BuildLeadi[r8+rax*4]
	add	rcx, r8
	jmp	rcx
$LN8@BuildLeadi:

; 858  :     {
; 859  :     case L'0':
; 860  :     case L'1':
; 861  :     case L'2':
; 862  :     case L'3':
; 863  :     case L'4':
; 864  :     case L'5':
; 865  :     case L'6':
; 866  :     case L'7':
; 867  :     case L'8':
; 868  :     case L'9':
; 869  :         return (c - L'0');

	lea	rax, QWORD PTR [rdx-48]
	jmp	SHORT $LN5@BuildLeadi
$LN9@BuildLeadi:

; 870  :     case L'a':
; 871  :     case L'b':
; 872  :     case L'c':
; 873  :     case L'd':
; 874  :     case L'e':
; 875  :     case L'f':
; 876  :         return (c - L'a' + 10);

	lea	rax, QWORD PTR [rdx-87]
	jmp	SHORT $LN5@BuildLeadi
$LN10@BuildLeadi:

; 877  :     case L'A':
; 878  :     case L'B':
; 879  :     case L'C':
; 880  :     case L'D':
; 881  :     case L'E':
; 882  :     case L'F':
; 883  :         return (c - L'A' + 10);

	lea	rax, QWORD PTR [rdx-55]
	jmp	SHORT $LN5@BuildLeadi
$LN11@BuildLeadi:

; 884  :     default:
; 885  :         return ((_UINT32_T)-1);

	mov	rax, r9
$LN5@BuildLeadi:

; 895  :     {
; 896  :         x = x * 16 + Parse1DigitFromHexChar(*in_ptr);

	shl	r10, 4

; 897  :         ++in_ptr;

	add	r11, 2
	mov	ecx, eax
	add	r10, rcx

; 898  :         --count;

	sub	rbx, 1
	jne	SHORT $LL2@BuildLeadi
$LN19@BuildLeadi:

; 899  :     }
; 900  :     return (x);
; 901  : }

	mov	rax, r10
	add	rsp, 32					; 00000020H
	pop	rbx
	ret	0
	npad	3
$LN18@BuildLeadi:
	DD	$LN8@BuildLeadi
	DD	$LN10@BuildLeadi
	DD	$LN9@BuildLeadi
	DD	$LN11@BuildLeadi
$LN17@BuildLeadi:
	DB	0
	DB	0
	DB	0
	DB	0
	DB	0
	DB	0
	DB	0
	DB	0
	DB	0
	DB	0
	DB	3
	DB	3
	DB	3
	DB	3
	DB	3
	DB	3
	DB	3
	DB	1
	DB	1
	DB	1
	DB	1
	DB	1
	DB	1
	DB	3
	DB	3
	DB	3
	DB	3
	DB	3
	DB	3
	DB	3
	DB	3
	DB	3
	DB	3
	DB	3
	DB	3
	DB	3
	DB	3
	DB	3
	DB	3
	DB	3
	DB	3
	DB	3
	DB	3
	DB	3
	DB	3
	DB	3
	DB	3
	DB	3
	DB	3
	DB	2
	DB	2
	DB	2
	DB	2
	DB	2
	DB	2
BuildLeading1WordFromHexString ENDP
_TEXT	ENDS
; Function compile flags: /Ogtpy
; File z:\sources\lunor\repos\rougemeilland\palmtree.math.core.uint\palmtree.math.core.uint\pmc_parse.c
;	COMDAT Parse1DigitFromHexChar
_TEXT	SEGMENT
c$ = 8
Parse1DigitFromHexChar PROC				; COMDAT

; 857  :     switch (c)

	movzx	eax, cx
	lea	r8d, DWORD PTR [rax-48]
	cmp	r8d, 54					; 00000036H
	ja	SHORT $LN7@Parse1Digi
	lea	r9, OFFSET FLAT:__ImageBase
	movsxd	rcx, r8d
	movzx	ecx, BYTE PTR $LN9@Parse1Digi[r9+rcx]
	mov	edx, DWORD PTR $LN10@Parse1Digi[r9+rcx*4]
	add	rdx, r9
	jmp	rdx
$LN4@Parse1Digi:

; 858  :     {
; 859  :     case L'0':
; 860  :     case L'1':
; 861  :     case L'2':
; 862  :     case L'3':
; 863  :     case L'4':
; 864  :     case L'5':
; 865  :     case L'6':
; 866  :     case L'7':
; 867  :     case L'8':
; 868  :     case L'9':
; 869  :         return (c - L'0');

	mov	eax, r8d

; 886  :     }
; 887  : }

	ret	0
$LN5@Parse1Digi:

; 870  :     case L'a':
; 871  :     case L'b':
; 872  :     case L'c':
; 873  :     case L'd':
; 874  :     case L'e':
; 875  :     case L'f':
; 876  :         return (c - L'a' + 10);

	add	eax, -87				; ffffffffffffffa9H

; 886  :     }
; 887  : }

	ret	0
$LN6@Parse1Digi:

; 877  :     case L'A':
; 878  :     case L'B':
; 879  :     case L'C':
; 880  :     case L'D':
; 881  :     case L'E':
; 882  :     case L'F':
; 883  :         return (c - L'A' + 10);

	add	eax, -55				; ffffffffffffffc9H

; 886  :     }
; 887  : }

	ret	0
$LN7@Parse1Digi:

; 884  :     default:
; 885  :         return ((_UINT32_T)-1);

	mov	eax, -1					; ffffffffH

; 886  :     }
; 887  : }

	ret	0
	npad	1
$LN10@Parse1Digi:
	DD	$LN4@Parse1Digi
	DD	$LN6@Parse1Digi
	DD	$LN5@Parse1Digi
	DD	$LN7@Parse1Digi
$LN9@Parse1Digi:
	DB	0
	DB	0
	DB	0
	DB	0
	DB	0
	DB	0
	DB	0
	DB	0
	DB	0
	DB	0
	DB	3
	DB	3
	DB	3
	DB	3
	DB	3
	DB	3
	DB	3
	DB	1
	DB	1
	DB	1
	DB	1
	DB	1
	DB	1
	DB	3
	DB	3
	DB	3
	DB	3
	DB	3
	DB	3
	DB	3
	DB	3
	DB	3
	DB	3
	DB	3
	DB	3
	DB	3
	DB	3
	DB	3
	DB	3
	DB	3
	DB	3
	DB	3
	DB	3
	DB	3
	DB	3
	DB	3
	DB	3
	DB	3
	DB	3
	DB	2
	DB	2
	DB	2
	DB	2
	DB	2
	DB	2
Parse1DigitFromHexChar ENDP
_TEXT	ENDS
; Function compile flags: /Ogtpy
; File z:\sources\lunor\repos\rougemeilland\palmtree.math.core.uint\palmtree.math.core.uint\pmc_parse.c
; File z:\sources\lunor\repos\rougemeilland\palmtree.math.core.uint\palmtree.math.core.uint\pmc_inline_func.h
; File z:\sources\lunor\repos\rougemeilland\palmtree.math.core.uint\palmtree.math.core.uint\pmc_parse.c
; File z:\sources\lunor\repos\rougemeilland\palmtree.math.core.uint\palmtree.math.core.uint\pmc_inline_func.h
; File z:\sources\lunor\repos\rougemeilland\palmtree.math.core.uint\palmtree.math.core.uint\pmc_parse.c
; File z:\sources\lunor\repos\rougemeilland\palmtree.math.core.uint\palmtree.math.core.uint\pmc_inline_func.h
; File z:\sources\lunor\repos\rougemeilland\palmtree.math.core.uint\palmtree.math.core.uint\pmc_parse.c
; File z:\sources\lunor\repos\rougemeilland\palmtree.math.core.uint\palmtree.math.core.uint\pmc_inline_func.h
; File z:\sources\lunor\repos\rougemeilland\palmtree.math.core.uint\palmtree.math.core.uint\pmc_parse.c
;	COMDAT TryParseDN
_TEXT	SEGMENT
int_part_buf_words$ = 48
frac_part_buf_words$ = 56
bin_buf_words$ = 64
int_part_buf_code$ = 72
frac_part_buf_code$ = 80
bin_buf_code$ = 88
work_buf_code$1 = 96
work_buf_words$2 = 104
no_light_check_code$ = 112
source$ = 176
number_styles$ = 184
format_option$ = 192
o_sign$ = 200
o_abs$ = 208
TryParseDN PROC						; COMDAT

; 716  : {

	mov	QWORD PTR [rsp+16], rbx
	mov	QWORD PTR [rsp+24], rsi
	push	rbp
	push	rdi
	push	r12
	push	r14
	push	r15
	mov	rbp, rsp
	sub	rsp, 128				; 00000080H
	mov	r12, r9
	mov	r14, r8
	mov	r15d, edx
	mov	rbx, rcx

; 717  :     PMC_STATUS_CODE result;
; 718  : #ifdef _M_IX86
; 719  :     int word_digit_count = 9;
; 720  : #elif defined(_M_IX64)
; 721  :     int word_digit_count = 19;
; 722  : #else
; 723  : #error unknown platform
; 724  : #endif
; 725  :     __UNIT_TYPE source_len = lstrlenW(source);

	call	QWORD PTR __imp_lstrlenW
	movsxd	rdi, eax

; 726  : 
; 727  :     __UNIT_TYPE int_part_buf_code;
; 728  :     __UNIT_TYPE int_part_buf_words;
; 729  :     wchar_t* int_part_buf = (wchar_t*)AllocateBlock((source_len + 1) * sizeof(wchar_t) * 8, &int_part_buf_words, &int_part_buf_code);

	lea	r8, QWORD PTR int_part_buf_code$[rbp-128]
	inc	rdi
	lea	rdx, QWORD PTR int_part_buf_words$[rbp-128]
	shl	rdi, 4
	mov	rcx, rdi
	call	AllocateBlock
	mov	rsi, rax

; 730  :     if (int_part_buf == NULL)

	test	rax, rax
	je	SHORT $LN74@TryParseDN

; 731  :         return (PMC_STATUS_NOT_ENOUGH_MEMORY);
; 732  : 
; 733  :     __UNIT_TYPE frac_part_buf_code;
; 734  :     __UNIT_TYPE frac_part_buf_words;
; 735  :     wchar_t* frac_part_buf = (wchar_t*)AllocateBlock((source_len + 1) * sizeof(wchar_t) * 8, &frac_part_buf_words, &frac_part_buf_code);

	lea	r8, QWORD PTR frac_part_buf_code$[rbp-128]
	mov	rcx, rdi
	lea	rdx, QWORD PTR frac_part_buf_words$[rbp-128]
	call	AllocateBlock
	mov	rdi, rax

; 736  :     if (frac_part_buf == NULL)

	test	rax, rax
	jne	SHORT $LN10@TryParseDN

; 737  :     {
; 738  :         DeallocateBlock((__UNIT_TYPE*)int_part_buf, int_part_buf_words);

	mov	rdx, QWORD PTR int_part_buf_words$[rbp-128]
	mov	rcx, rsi
	call	DeallocateBlock
$LN74@TryParseDN:

; 852  : }

	mov	eax, -5
	jmp	$LN1@TryParseDN
$LN10@TryParseDN:

; 739  :         return (PMC_STATUS_NOT_ENOUGH_MEMORY);
; 740  :     }
; 741  :     int result_parsing = ParseAsDecimalNumberString(source, number_styles, format_option, o_sign, int_part_buf, frac_part_buf);

	mov	QWORD PTR [rsp+40], rdi
	mov	r9, r12
	mov	r8, r14
	mov	QWORD PTR [rsp+32], rsi
	mov	edx, r15d
	mov	rcx, rbx
	call	ParseAsDecimalNumberString

; 742  :     if ((result = CheckBlockLight((__UNIT_TYPE*)int_part_buf, int_part_buf_code)) != PMC_STATUS_OK)

	mov	rdx, QWORD PTR int_part_buf_code$[rbp-128]
	mov	rcx, rsi
	mov	ebx, eax
	call	CheckBlockLight
	test	eax, eax
	jne	$LN1@TryParseDN

; 743  :         return (result);
; 744  :     if ((result = CheckBlockLight((__UNIT_TYPE*)frac_part_buf, frac_part_buf_code)) != PMC_STATUS_OK)

	mov	rdx, QWORD PTR frac_part_buf_code$[rbp-128]
	mov	rcx, rdi
	call	CheckBlockLight
	test	eax, eax
	jne	$LN1@TryParseDN

; 745  :         return (result);
; 746  :     if (!result_parsing)

	test	ebx, ebx
	je	SHORT $LN75@TryParseDN

; 747  :     {
; 748  :         DeallocateBlock((__UNIT_TYPE*)frac_part_buf, frac_part_buf_words);
; 749  :         DeallocateBlock((__UNIT_TYPE*)int_part_buf, int_part_buf_words);
; 750  :         return (PMC_STATUS_PARSING_ERROR);
; 751  :     }
; 752  :     // 整数部と小数部がともに空ならばエラーとする
; 753  :     if (int_part_buf[0] == L'\0' && frac_part_buf[0] == L'\0')

	movzx	eax, WORD PTR [rsi]
	test	ax, ax
	jne	SHORT $LN64@TryParseDN
	cmp	WORD PTR [rdi], ax
	jne	SHORT $LN51@TryParseDN
$LN75@TryParseDN:

; 852  : }

	mov	rdx, QWORD PTR frac_part_buf_words$[rbp-128]
	mov	rcx, rdi
	call	DeallocateBlock
	mov	rdx, QWORD PTR int_part_buf_words$[rbp-128]
	mov	rcx, rsi
	call	DeallocateBlock
	mov	eax, 1
	jmp	$LN1@TryParseDN
$LN64@TryParseDN:

; 754  :     {
; 755  :         DeallocateBlock((__UNIT_TYPE*)frac_part_buf, frac_part_buf_words);
; 756  :         DeallocateBlock((__UNIT_TYPE*)int_part_buf, int_part_buf_words);
; 757  :         return (PMC_STATUS_PARSING_ERROR);
; 758  :     }
; 759  : 
; 760  :     if (int_part_buf[0] == L'0')

	cmp	ax, 48					; 00000030H
	jne	SHORT $LN51@TryParseDN

; 761  :     {
; 762  :         // 整数部の先行する 0 を削除する
; 763  :         wchar_t* s_ptr = int_part_buf;

	mov	rcx, rsi

; 764  :         wchar_t* d_ptr = int_part_buf;

	mov	rdx, rsi
$LL2@TryParseDN:

; 765  :         while (*s_ptr == L'0')

	movzx	eax, WORD PTR [rcx+2]

; 766  :             ++s_ptr;

	add	rcx, 2
	cmp	ax, 48					; 00000030H
	je	SHORT $LL2@TryParseDN

; 767  :         for (;;)
; 768  :         {
; 769  :             *d_ptr = *s_ptr;

	mov	WORD PTR [rsi], ax

; 770  :             if (*s_ptr == L'\0')

	cmp	WORD PTR [rcx], 0
	je	SHORT $LN51@TryParseDN
	npad	7
$LL4@TryParseDN:

; 767  :         for (;;)
; 768  :         {
; 769  :             *d_ptr = *s_ptr;

	movzx	eax, WORD PTR [rcx+2]

; 771  :                 break;
; 772  :             ++s_ptr;

	lea	rcx, QWORD PTR [rcx+2]

; 773  :             ++d_ptr;

	lea	rdx, QWORD PTR [rdx+2]
	mov	WORD PTR [rdx], ax
	cmp	WORD PTR [rcx], 0
	jne	SHORT $LL4@TryParseDN
$LN51@TryParseDN:

; 774  :         }
; 775  :     }
; 776  : 
; 777  :     // 小数部の末尾の 0 を削除する
; 778  :     wchar_t* frac_ptr = frac_part_buf + lstrlenW(frac_part_buf);

	mov	rcx, rdi
	call	QWORD PTR __imp_lstrlenW
	movsxd	rcx, eax
	lea	rax, QWORD PTR [rdi+rcx*2]

; 779  :     while (frac_ptr > frac_part_buf && frac_ptr[-1] == L'0')

	cmp	rax, rdi
	jbe	SHORT $LN73@TryParseDN
	npad	6
$LL7@TryParseDN:
	cmp	WORD PTR [rax-2], 48			; 00000030H
	lea	rcx, QWORD PTR [rax-2]
	jne	SHORT $LN73@TryParseDN

; 780  :         --frac_ptr;

	mov	rax, rcx
	cmp	rcx, rdi
	ja	SHORT $LL7@TryParseDN
$LN73@TryParseDN:

; 781  :     *frac_ptr = L'\0';

	xor	r14d, r14d
	mov	WORD PTR [rax], r14w

; 782  : 
; 783  :     // 小数部が 0 ではない場合、エラーとする
; 784  :     if (frac_part_buf[0] != L'\0')

	cmp	WORD PTR [rdi], r14w
	jne	$LN75@TryParseDN

; 785  :     {
; 786  :         DeallocateBlock((__UNIT_TYPE*)frac_part_buf, frac_part_buf_words);
; 787  :         DeallocateBlock((__UNIT_TYPE*)int_part_buf, int_part_buf_words);
; 788  :         return (PMC_STATUS_PARSING_ERROR);
; 789  :     }
; 790  : 
; 791  :     if (int_part_buf[0] == L'\0')

	cmp	WORD PTR [rsi], r14w
	jne	SHORT $LN18@TryParseDN

; 792  :     {
; 793  :         // 整数部が空である場合
; 794  :         
; 795  :         // 符号を 0 に 修正する
; 796  :         *o_sign = 0;

	mov	BYTE PTR [r12], r14b

; 797  : 
; 798  :         // 整数部に 0 を設定する
; 799  :         int_part_buf[0] = L'0';

	mov	DWORD PTR [rsi], 48			; 00000030H
$LN18@TryParseDN:

; 800  :         int_part_buf[1] = L'\0';
; 801  :     }
; 802  : 
; 803  :     // 小数部は捨てる
; 804  :     DeallocateBlock((__UNIT_TYPE*)frac_part_buf, frac_part_buf_words);

	mov	rdx, QWORD PTR frac_part_buf_words$[rbp-128]
	mov	rcx, rdi
	call	DeallocateBlock

; 808  :     __UNIT_TYPE* bin_buf = AllocateBlock(_DIVIDE_CEILING_SIZE(lstrlenW(int_part_buf), word_digit_count) * __UNIT_TYPE_BIT_COUNT, &bin_buf_words, &bin_buf_code);

	mov	rcx, rsi
	call	QWORD PTR __imp_lstrlenW
	movsxd	rcx, eax
; File z:\sources\lunor\repos\rougemeilland\palmtree.math.core.uint\palmtree.math.core.uint\pmc_inline_func.h

; 193  :         return ((u + v - 1) / v);

	mov	r12, -2912643801112034465		; d79435e50d79435fH
	add	rcx, 18
; File z:\sources\lunor\repos\rougemeilland\palmtree.math.core.uint\palmtree.math.core.uint\pmc_parse.c

; 808  :     __UNIT_TYPE* bin_buf = AllocateBlock(_DIVIDE_CEILING_SIZE(lstrlenW(int_part_buf), word_digit_count) * __UNIT_TYPE_BIT_COUNT, &bin_buf_words, &bin_buf_code);

	lea	r8, QWORD PTR bin_buf_code$[rbp-128]
; File z:\sources\lunor\repos\rougemeilland\palmtree.math.core.uint\palmtree.math.core.uint\pmc_inline_func.h

; 193  :         return ((u + v - 1) / v);

	mov	rax, r12
	mul	rcx
	mov	rcx, rdx
; File z:\sources\lunor\repos\rougemeilland\palmtree.math.core.uint\palmtree.math.core.uint\pmc_parse.c

; 808  :     __UNIT_TYPE* bin_buf = AllocateBlock(_DIVIDE_CEILING_SIZE(lstrlenW(int_part_buf), word_digit_count) * __UNIT_TYPE_BIT_COUNT, &bin_buf_words, &bin_buf_code);

	lea	rdx, QWORD PTR bin_buf_words$[rbp-128]
; File z:\sources\lunor\repos\rougemeilland\palmtree.math.core.uint\palmtree.math.core.uint\pmc_inline_func.h

; 193  :         return ((u + v - 1) / v);

	shr	rcx, 4
; File z:\sources\lunor\repos\rougemeilland\palmtree.math.core.uint\palmtree.math.core.uint\pmc_parse.c

; 808  :     __UNIT_TYPE* bin_buf = AllocateBlock(_DIVIDE_CEILING_SIZE(lstrlenW(int_part_buf), word_digit_count) * __UNIT_TYPE_BIT_COUNT, &bin_buf_words, &bin_buf_code);

	shl	rcx, 6
	call	AllocateBlock
	mov	r15, rax

; 809  :     if (bin_buf == NULL)

	mov	rcx, rsi
	test	rax, rax
	jne	SHORT $LN19@TryParseDN

; 810  :     {
; 811  :         DeallocateBlock((__UNIT_TYPE*)int_part_buf, int_part_buf_words);

	mov	rdx, QWORD PTR int_part_buf_words$[rbp-128]
	call	DeallocateBlock

; 812  :         return (PMC_STATUS_NOT_ENOUGH_MEMORY);

	lea	eax, QWORD PTR [r15-5]
	jmp	$LN1@TryParseDN
$LN19@TryParseDN:

; 352  :     wchar_t* in_ptr = source;

	mov	rbx, rsi

; 353  :     __UNIT_TYPE* out_ptr = out_buf;

	mov	rdi, r15

; 354  :     __UNIT_TYPE source_count = lstrlenW(source);

	call	QWORD PTR __imp_lstrlenW
	movsxd	r8, eax

; 355  :     int r = source_count % word_digit_count;

	mov	rax, r12
	mul	r8
	mov	rcx, r8
	shr	rdx, 4
	imul	rax, rdx, 19
	sub	rcx, rax

; 356  :     if (r > 0)

	test	ecx, ecx
	jle	SHORT $LN72@TryParseDN

; 357  :     {
; 358  :         *out_ptr++ = BuildLeading1WordFromDecimalString(in_ptr, r);

	movsxd	r9, ecx
	mov	rdx, rsi
	mov	rdi, r9

; 297  :     __UNIT_TYPE x = 0;

	mov	rax, r14
	npad	8
$LL34@TryParseDN:

; 298  :     while (count > 0)
; 299  :     {
; 300  :         x = x * 10 + (*in_ptr++ - L'0');

	lea	rcx, QWORD PTR [rax+rax*4]
	movzx	eax, WORD PTR [rdx]
	lea	rdx, QWORD PTR [rdx+2]
	lea	rax, QWORD PTR [rax+rcx*2]
	add	rax, -48				; ffffffffffffffd0H

; 301  :         --count;

	sub	rdi, 1
	jne	SHORT $LL34@TryParseDN

; 358  :         *out_ptr++ = BuildLeading1WordFromDecimalString(in_ptr, r);

	mov	QWORD PTR [r15], rax
	lea	rdi, QWORD PTR [r15+8]

; 359  :         in_ptr += r;

	lea	rbx, QWORD PTR [rsi+r9*2]

; 360  :         source_count -= r;

	sub	r8, r9
$LN72@TryParseDN:

; 361  :     }
; 362  :     while (source_count > 0)

	test	r8, r8
	je	SHORT $LN30@TryParseDN
	lea	rcx, QWORD PTR [r8-1]
	mov	rax, r12
	mul	rcx
	mov	r14, rdx
	shr	r14, 4
	inc	r14
$LL29@TryParseDN:

; 363  :     {
; 364  :         *out_ptr++ = Build1WordFromDecimalString(in_ptr);

	mov	rcx, rbx
	call	Build1WordFromDecimalString
	mov	QWORD PTR [rdi], rax

; 365  :         in_ptr += word_digit_count;

	add	rbx, 38					; 00000026H
	add	rdi, 8
	sub	r14, 1
	jne	SHORT $LL29@TryParseDN
$LN30@TryParseDN:

; 813  :     }
; 814  :     __UNIT_TYPE bin_buf_count;
; 815  :     BuildBinaryFromDecimalString(int_part_buf, bin_buf, &bin_buf_count);
; 816  :     if ((result = CheckBlockLight(bin_buf, bin_buf_code)) != PMC_STATUS_OK)

	mov	rdx, QWORD PTR bin_buf_code$[rbp-128]

; 368  :     *out_buf_count = out_ptr - out_buf;

	sub	rdi, r15

; 813  :     }
; 814  :     __UNIT_TYPE bin_buf_count;
; 815  :     BuildBinaryFromDecimalString(int_part_buf, bin_buf, &bin_buf_count);
; 816  :     if ((result = CheckBlockLight(bin_buf, bin_buf_code)) != PMC_STATUS_OK)

	mov	rcx, r15

; 368  :     *out_buf_count = out_ptr - out_buf;

	sar	rdi, 3

; 813  :     }
; 814  :     __UNIT_TYPE bin_buf_count;
; 815  :     BuildBinaryFromDecimalString(int_part_buf, bin_buf, &bin_buf_count);
; 816  :     if ((result = CheckBlockLight(bin_buf, bin_buf_code)) != PMC_STATUS_OK)

	call	CheckBlockLight
	test	eax, eax
	jne	$LN1@TryParseDN

; 817  :         return (result);
; 818  :     DeallocateBlock((__UNIT_TYPE*)int_part_buf, int_part_buf_words);

	mov	rdx, QWORD PTR int_part_buf_words$[rbp-128]
	mov	rcx, rsi
	call	DeallocateBlock

; 819  : 
; 820  :     __UNIT_TYPE o_bit_count = bin_buf_count * __UNIT_TYPE_BIT_COUNT;
; 821  :     __UNIT_TYPE no_light_check_code;
; 822  :     if ((result = AllocateNumber(o_abs, o_bit_count, &no_light_check_code)) != PMC_STATUS_OK)

	mov	r12, QWORD PTR o_abs$[rbp-128]
	lea	r8, QWORD PTR no_light_check_code$[rbp-128]
	mov	rsi, rdi
	mov	rcx, r12
	shl	rsi, 6
	mov	rdx, rsi
	call	AllocateNumber
	mov	ebx, eax
	test	eax, eax
	je	SHORT $LN21@TryParseDN

; 823  :     {
; 824  :         DeallocateBlock(bin_buf, bin_buf_words);

	mov	rdx, QWORD PTR bin_buf_words$[rbp-128]
	mov	rcx, r15
	call	DeallocateBlock

; 825  :         return (result);

	mov	eax, ebx
	jmp	$LN1@TryParseDN
$LN21@TryParseDN:

; 826  :     }
; 827  : 
; 828  :     if ((result = ConvertCardinalNumber(bin_buf, bin_buf_count, (*o_abs)->BLOCK)) != PMC_STATUS_OK)

	mov	rax, QWORD PTR [r12]

; 692  :     __UNIT_TYPE* work_buf = AllocateBlock(__UNIT_TYPE_BIT_COUNT * (in_buf_count + 1), &work_buf_words, &work_buf_code);

	lea	rcx, QWORD PTR [rsi+64]
	mov	QWORD PTR [rsp+176], r13
	lea	r8, QWORD PTR work_buf_code$1[rbp-128]
	lea	rdx, QWORD PTR work_buf_words$2[rbp-128]

; 826  :     }
; 827  : 
; 828  :     if ((result = ConvertCardinalNumber(bin_buf, bin_buf_count, (*o_abs)->BLOCK)) != PMC_STATUS_OK)

	mov	r13, QWORD PTR [rax+64]

; 692  :     __UNIT_TYPE* work_buf = AllocateBlock(__UNIT_TYPE_BIT_COUNT * (in_buf_count + 1), &work_buf_words, &work_buf_code);

	call	AllocateBlock
	mov	r14, rax

; 693  :     if (work_buf == NULL)

	test	rax, rax
	jne	SHORT $LN40@TryParseDN

; 694  :         return (PMC_STATUS_NOT_ENOUGH_MEMORY);

	lea	edi, QWORD PTR [rax-5]
	jmp	SHORT $LN37@TryParseDN
$LN40@TryParseDN:

; 695  : 
; 696  :     __UNIT_TYPE work_buf_count = 1;
; 697  :     work_buf[0] = in_buf[0];

	mov	rax, QWORD PTR [r15]

; 698  :     ++in_buf;

	lea	rsi, QWORD PTR [r15+8]
	mov	ebx, 1
	mov	QWORD PTR [r14], rax

; 699  :     --in_buf_count;

	sub	rdi, rbx

; 700  : 
; 701  :     while (in_buf_count > 0)

	je	SHORT $LN39@TryParseDN
	npad	11
$LL38@TryParseDN:

; 702  :     {
; 703  :         __UNIT_TYPE* w_tail = (*fp_MultiplyAndAdd)(work_buf, work_buf_count, *in_buf);

	mov	r8, QWORD PTR [rsi]
	mov	rdx, rbx
	mov	rcx, r14
	call	QWORD PTR fp_MultiplyAndAdd
	mov	rbx, rax

; 704  :         work_buf_count = w_tail - work_buf;
; 705  :         ++in_buf;

	lea	rsi, QWORD PTR [rsi+8]
	sub	rbx, r14
	sar	rbx, 3

; 706  :         --in_buf_count;

	sub	rdi, 1
	jne	SHORT $LL38@TryParseDN
$LN39@TryParseDN:

; 707  :     }
; 708  :     if ((result = CheckBlockLight(work_buf, work_buf_code)) != PMC_STATUS_OK)

	mov	rdx, QWORD PTR work_buf_code$1[rbp-128]
	mov	rcx, r14
	call	CheckBlockLight
	mov	edi, eax
	test	eax, eax
	jne	SHORT $LN37@TryParseDN

; 711  :     DeallocateBlock(work_buf, work_buf_words);

	mov	rdx, QWORD PTR work_buf_words$2[rbp-128]
; File z:\sources\lunor\repos\rougemeilland\palmtree.math.core.uint\palmtree.math.core.uint\pmc_inline_func.h

; 64   :         __movsq(d, s, count);

	mov	rdi, r13
	mov	rsi, r14
	mov	rcx, rbx
	rep movsq
; File z:\sources\lunor\repos\rougemeilland\palmtree.math.core.uint\palmtree.math.core.uint\pmc_parse.c

; 711  :     DeallocateBlock(work_buf, work_buf_words);

	mov	rcx, r14
	call	DeallocateBlock

; 712  :     return (PMC_STATUS_OK);

	xor	edi, edi
$LN37@TryParseDN:

; 826  :     }
; 827  : 
; 828  :     if ((result = ConvertCardinalNumber(bin_buf, bin_buf_count, (*o_abs)->BLOCK)) != PMC_STATUS_OK)

	mov	rcx, QWORD PTR [r12]
	mov	r13, QWORD PTR [rsp+176]
	test	edi, edi
	je	SHORT $LN22@TryParseDN

; 829  :     {
; 830  :         DeallocateNumber(*o_abs);

	call	DeallocateNumber

; 831  :         DeallocateBlock(bin_buf, bin_buf_words);

	mov	rdx, QWORD PTR bin_buf_words$[rbp-128]
	mov	rcx, r15
	call	DeallocateBlock

; 832  :         return (result);

	mov	eax, edi
	jmp	SHORT $LN1@TryParseDN
$LN22@TryParseDN:

; 833  :     }
; 834  :     if ((result = CheckBlockLight((*o_abs)->BLOCK, no_light_check_code)) != PMC_STATUS_OK)

	mov	rdx, QWORD PTR no_light_check_code$[rbp-128]
	mov	rcx, QWORD PTR [rcx+64]
	call	CheckBlockLight
	test	eax, eax
	jne	SHORT $LN1@TryParseDN

; 835  :         return (result);
; 836  :     DeallocateBlock(bin_buf, bin_buf_words);

	mov	rdx, QWORD PTR bin_buf_words$[rbp-128]
	mov	rcx, r15
	call	DeallocateBlock

; 837  :     CommitNumber(*o_abs);

	mov	rcx, QWORD PTR [r12]
	call	CommitNumber

; 838  :     if ((*o_abs)->IS_ZERO)

	mov	rcx, QWORD PTR [r12]
	test	BYTE PTR [rcx], 1
	je	SHORT $LN24@TryParseDN

; 839  :     {
; 840  :         DeallocateNumber(*o_abs);

	call	DeallocateNumber

; 841  :         *o_abs = &number_zero;

	lea	rax, OFFSET FLAT:number_zero
	mov	QWORD PTR [r12], rax
$LN24@TryParseDN:

; 842  :     }
; 843  : #ifdef _DEBUG
; 844  :     if (*o_sign != 0 && *o_sign != 1 && *o_sign != -1)
; 845  :         return (PMC_STATUS_INTERNAL_ERROR);
; 846  :     if (*o_sign == 0 && !(*o_abs)->IS_ZERO)
; 847  :         return (PMC_STATUS_INTERNAL_ERROR);
; 848  :     if (*o_sign != 0 && (*o_abs)->IS_ZERO)
; 849  :         return (PMC_STATUS_INTERNAL_ERROR);
; 850  : #endif
; 851  :     return (PMC_STATUS_OK);

	xor	eax, eax
$LN1@TryParseDN:

; 852  : }

	lea	r11, QWORD PTR [rsp+128]
	mov	rbx, QWORD PTR [r11+56]
	mov	rsi, QWORD PTR [r11+64]
	mov	rsp, r11
	pop	r15
	pop	r14
	pop	r12
	pop	rdi
	pop	rbp
	ret	0
TryParseDN ENDP
_TEXT	ENDS
; Function compile flags: /Ogtpy
; File z:\sources\lunor\repos\rougemeilland\palmtree.math.core.uint\palmtree.math.core.uint\pmc_parse.c
; File z:\sources\lunor\repos\rougemeilland\palmtree.math.core.uint\palmtree.math.core.uint\pmc_inline_func.h
; File z:\sources\lunor\repos\rougemeilland\palmtree.math.core.uint\palmtree.math.core.uint\pmc_parse.c
;	COMDAT ConvertCardinalNumber
_TEXT	SEGMENT
in_buf$ = 64
work_buf_code$ = 72
in_buf_count$ = 72
out_buf$ = 80
work_buf_words$ = 88
ConvertCardinalNumber PROC				; COMDAT

; 688  : {

	mov	QWORD PTR [rsp+24], rbp
	push	rsi
	push	rdi
	push	r14
	sub	rsp, 32					; 00000020H
	mov	rdi, rcx
	mov	rbp, r8

; 689  :     PMC_STATUS_CODE result;
; 690  :     __UNIT_TYPE work_buf_code;
; 691  :     __UNIT_TYPE work_buf_words;
; 692  :     __UNIT_TYPE* work_buf = AllocateBlock(__UNIT_TYPE_BIT_COUNT * (in_buf_count + 1), &work_buf_words, &work_buf_code);

	lea	rcx, QWORD PTR [rdx+1]
	mov	rsi, rdx
	shl	rcx, 6
	lea	r8, QWORD PTR work_buf_code$[rsp]
	lea	rdx, QWORD PTR work_buf_words$[rsp]
	call	AllocateBlock
	mov	r14, rax

; 693  :     if (work_buf == NULL)

	test	rax, rax
	jne	SHORT $LN4@ConvertCar

; 694  :         return (PMC_STATUS_NOT_ENOUGH_MEMORY);

	lea	eax, QWORD PTR [r14-5]

; 713  : }

	mov	rbp, QWORD PTR [rsp+80]
	add	rsp, 32					; 00000020H
	pop	r14
	pop	rdi
	pop	rsi
	ret	0
$LN4@ConvertCar:

; 695  : 
; 696  :     __UNIT_TYPE work_buf_count = 1;
; 697  :     work_buf[0] = in_buf[0];

	mov	rax, QWORD PTR [rdi]

; 698  :     ++in_buf;

	add	rdi, 8
	mov	QWORD PTR [rsp+64], rbx
	mov	ebx, 1
	mov	QWORD PTR [r14], rax
	sub	rsi, rbx

; 699  :     --in_buf_count;
; 700  : 
; 701  :     while (in_buf_count > 0)

	je	SHORT $LN3@ConvertCar
$LL2@ConvertCar:

; 702  :     {
; 703  :         __UNIT_TYPE* w_tail = (*fp_MultiplyAndAdd)(work_buf, work_buf_count, *in_buf);

	mov	r8, QWORD PTR [rdi]
	mov	rdx, rbx
	mov	rcx, r14
	call	QWORD PTR fp_MultiplyAndAdd
	mov	rbx, rax

; 704  :         work_buf_count = w_tail - work_buf;
; 705  :         ++in_buf;

	lea	rdi, QWORD PTR [rdi+8]
	sub	rbx, r14
	sar	rbx, 3

; 706  :         --in_buf_count;

	sub	rsi, 1
	jne	SHORT $LL2@ConvertCar
$LN3@ConvertCar:

; 707  :     }
; 708  :     if ((result = CheckBlockLight(work_buf, work_buf_code)) != PMC_STATUS_OK)

	mov	rdx, QWORD PTR work_buf_code$[rsp]
	mov	rcx, r14
	call	CheckBlockLight
	test	eax, eax
	jne	SHORT $LN13@ConvertCar

; 711  :     DeallocateBlock(work_buf, work_buf_words);

	mov	rdx, QWORD PTR work_buf_words$[rsp]
; File z:\sources\lunor\repos\rougemeilland\palmtree.math.core.uint\palmtree.math.core.uint\pmc_inline_func.h

; 64   :         __movsq(d, s, count);

	mov	rdi, rbp
	mov	rsi, r14
	mov	rcx, rbx
	rep movsq
; File z:\sources\lunor\repos\rougemeilland\palmtree.math.core.uint\palmtree.math.core.uint\pmc_parse.c

; 711  :     DeallocateBlock(work_buf, work_buf_words);

	mov	rcx, r14
	call	DeallocateBlock

; 712  :     return (PMC_STATUS_OK);

	xor	eax, eax
$LN13@ConvertCar:

; 713  : }

	mov	rbx, QWORD PTR [rsp+64]
	mov	rbp, QWORD PTR [rsp+80]
	add	rsp, 32					; 00000020H
	pop	r14
	pop	rdi
	pop	rsi
	ret	0
ConvertCardinalNumber ENDP
_TEXT	ENDS
; Function compile flags: /Ogtpy
; File z:\sources\lunor\repos\rougemeilland\palmtree.math.core.uint\palmtree.math.core.uint\pmc_parse.c
; File z:\sources\lunor\repos\rougemeilland\palmtree.math.core.uint\palmtree.math.core.uint\pmc_inline_func.h
; File z:\sources\lunor\repos\rougemeilland\palmtree.math.core.uint\palmtree.math.core.uint\pmc_parse.c
; File z:\sources\lunor\repos\rougemeilland\palmtree.math.core.uint\palmtree.math.core.uint\pmc_inline_func.h
; File z:\sources\lunor\repos\rougemeilland\palmtree.math.core.uint\palmtree.math.core.uint\pmc_parse.c
; File z:\sources\lunor\repos\rougemeilland\palmtree.math.core.uint\palmtree.math.core.uint\pmc_inline_func.h
; File z:\sources\lunor\repos\rougemeilland\palmtree.math.core.uint\palmtree.math.core.uint\pmc_parse.c
; File z:\sources\lunor\repos\rougemeilland\palmtree.math.core.uint\palmtree.math.core.uint\pmc_inline_func.h
; File z:\sources\lunor\repos\rougemeilland\palmtree.math.core.uint\palmtree.math.core.uint\pmc_parse.c
; File z:\sources\lunor\repos\rougemeilland\palmtree.math.core.uint\palmtree.math.core.uint\pmc_inline_func.h
; File z:\sources\lunor\repos\rougemeilland\palmtree.math.core.uint\palmtree.math.core.uint\pmc_parse.c
; File z:\sources\lunor\repos\rougemeilland\palmtree.math.core.uint\palmtree.math.core.uint\pmc_inline_func.h
; File z:\sources\lunor\repos\rougemeilland\palmtree.math.core.uint\palmtree.math.core.uint\pmc_parse.c
; File z:\sources\lunor\repos\rougemeilland\palmtree.math.core.uint\palmtree.math.core.uint\pmc_inline_func.h
; File z:\sources\lunor\repos\rougemeilland\palmtree.math.core.uint\palmtree.math.core.uint\pmc_parse.c
; File z:\sources\lunor\repos\rougemeilland\palmtree.math.core.uint\palmtree.math.core.uint\pmc_inline_func.h
; File z:\sources\lunor\repos\rougemeilland\palmtree.math.core.uint\palmtree.math.core.uint\pmc_parse.c
; File z:\sources\lunor\repos\rougemeilland\palmtree.math.core.uint\palmtree.math.core.uint\pmc_inline_func.h
; File z:\sources\lunor\repos\rougemeilland\palmtree.math.core.uint\palmtree.math.core.uint\pmc_parse.c
; File z:\sources\lunor\repos\rougemeilland\palmtree.math.core.uint\palmtree.math.core.uint\pmc_inline_func.h
; File z:\sources\lunor\repos\rougemeilland\palmtree.math.core.uint\palmtree.math.core.uint\pmc_parse.c
; File z:\sources\lunor\repos\rougemeilland\palmtree.math.core.uint\palmtree.math.core.uint\pmc_inline_func.h
; File z:\sources\lunor\repos\rougemeilland\palmtree.math.core.uint\palmtree.math.core.uint\pmc_parse.c
; File z:\sources\lunor\repos\rougemeilland\palmtree.math.core.uint\palmtree.math.core.uint\pmc_inline_func.h
; File z:\sources\lunor\repos\rougemeilland\palmtree.math.core.uint\palmtree.math.core.uint\pmc_parse.c
; File z:\sources\lunor\repos\rougemeilland\palmtree.math.core.uint\palmtree.math.core.uint\pmc_inline_func.h
; File z:\sources\lunor\repos\rougemeilland\palmtree.math.core.uint\palmtree.math.core.uint\pmc_parse.c
; File z:\sources\lunor\repos\rougemeilland\palmtree.math.core.uint\palmtree.math.core.uint\pmc_inline_func.h
; File z:\sources\lunor\repos\rougemeilland\palmtree.math.core.uint\palmtree.math.core.uint\pmc_parse.c
; File z:\sources\lunor\repos\rougemeilland\palmtree.math.core.uint\palmtree.math.core.uint\pmc_inline_func.h
; File z:\sources\lunor\repos\rougemeilland\palmtree.math.core.uint\palmtree.math.core.uint\pmc_parse.c
; File z:\sources\lunor\repos\rougemeilland\palmtree.math.core.uint\palmtree.math.core.uint\pmc_inline_func.h
; File z:\sources\lunor\repos\rougemeilland\palmtree.math.core.uint\palmtree.math.core.uint\pmc_parse.c
; File z:\sources\lunor\repos\rougemeilland\palmtree.math.core.uint\palmtree.math.core.uint\pmc_inline_func.h
; File z:\sources\lunor\repos\rougemeilland\palmtree.math.core.uint\palmtree.math.core.uint\pmc_parse.c
; File z:\sources\lunor\repos\rougemeilland\palmtree.math.core.uint\palmtree.math.core.uint\pmc_inline_func.h
; File z:\sources\lunor\repos\rougemeilland\palmtree.math.core.uint\palmtree.math.core.uint\pmc_parse.c
; File z:\sources\lunor\repos\rougemeilland\palmtree.math.core.uint\palmtree.math.core.uint\pmc_inline_func.h
; File z:\sources\lunor\repos\rougemeilland\palmtree.math.core.uint\palmtree.math.core.uint\pmc_parse.c
; File z:\sources\lunor\repos\rougemeilland\palmtree.math.core.uint\palmtree.math.core.uint\pmc_inline_func.h
; File z:\sources\lunor\repos\rougemeilland\palmtree.math.core.uint\palmtree.math.core.uint\pmc_parse.c
; File z:\sources\lunor\repos\rougemeilland\palmtree.math.core.uint\palmtree.math.core.uint\pmc_inline_func.h
; File z:\sources\lunor\repos\rougemeilland\palmtree.math.core.uint\palmtree.math.core.uint\pmc_parse.c
; File z:\sources\lunor\repos\rougemeilland\palmtree.math.core.uint\palmtree.math.core.uint\pmc_inline_func.h
; File z:\sources\lunor\repos\rougemeilland\palmtree.math.core.uint\palmtree.math.core.uint\pmc_parse.c
; File z:\sources\lunor\repos\rougemeilland\palmtree.math.core.uint\palmtree.math.core.uint\pmc_inline_func.h
; File z:\sources\lunor\repos\rougemeilland\palmtree.math.core.uint\palmtree.math.core.uint\pmc_parse.c
; File z:\sources\lunor\repos\rougemeilland\palmtree.math.core.uint\palmtree.math.core.uint\pmc_inline_func.h
; File z:\sources\lunor\repos\rougemeilland\palmtree.math.core.uint\palmtree.math.core.uint\pmc_parse.c
; File z:\sources\lunor\repos\rougemeilland\palmtree.math.core.uint\palmtree.math.core.uint\pmc_inline_func.h
; File z:\sources\lunor\repos\rougemeilland\palmtree.math.core.uint\palmtree.math.core.uint\pmc_parse.c
; File z:\sources\lunor\repos\rougemeilland\palmtree.math.core.uint\palmtree.math.core.uint\pmc_inline_func.h
; File z:\sources\lunor\repos\rougemeilland\palmtree.math.core.uint\palmtree.math.core.uint\pmc_parse.c
; File z:\sources\lunor\repos\rougemeilland\palmtree.math.core.uint\palmtree.math.core.uint\pmc_inline_func.h
; File z:\sources\lunor\repos\rougemeilland\palmtree.math.core.uint\palmtree.math.core.uint\pmc_parse.c
; File z:\sources\lunor\repos\rougemeilland\palmtree.math.core.uint\palmtree.math.core.uint\pmc_inline_func.h
; File z:\sources\lunor\repos\rougemeilland\palmtree.math.core.uint\palmtree.math.core.uint\pmc_parse.c
; File z:\sources\lunor\repos\rougemeilland\palmtree.math.core.uint\palmtree.math.core.uint\pmc_inline_func.h
; File z:\sources\lunor\repos\rougemeilland\palmtree.math.core.uint\palmtree.math.core.uint\pmc_parse.c
; File z:\sources\lunor\repos\rougemeilland\palmtree.math.core.uint\palmtree.math.core.uint\pmc_inline_func.h
; File z:\sources\lunor\repos\rougemeilland\palmtree.math.core.uint\palmtree.math.core.uint\pmc_parse.c
; File z:\sources\lunor\repos\rougemeilland\palmtree.math.core.uint\palmtree.math.core.uint\pmc_inline_func.h
; File z:\sources\lunor\repos\rougemeilland\palmtree.math.core.uint\palmtree.math.core.uint\pmc_parse.c
; File z:\sources\lunor\repos\rougemeilland\palmtree.math.core.uint\palmtree.math.core.uint\pmc_inline_func.h
; File z:\sources\lunor\repos\rougemeilland\palmtree.math.core.uint\palmtree.math.core.uint\pmc_uint_internal.h
; File z:\sources\lunor\repos\rougemeilland\palmtree.math.core.uint\palmtree.math.core.uint\pmc_inline_func.h
; File z:\sources\lunor\repos\rougemeilland\palmtree.math.core.uint\palmtree.math.core.uint\pmc_parse.c
; File z:\sources\lunor\repos\rougemeilland\palmtree.math.core.uint\palmtree.math.core.uint\pmc_inline_func.h
; File z:\sources\lunor\repos\rougemeilland\palmtree.math.core.uint\palmtree.math.core.uint\pmc_uint_internal.h
; File z:\sources\lunor\repos\rougemeilland\palmtree.math.core.uint\palmtree.math.core.uint\pmc_parse.c
; File z:\sources\lunor\repos\rougemeilland\palmtree.math.core.uint\palmtree.math.core.uint\pmc_inline_func.h
; File z:\sources\lunor\repos\rougemeilland\palmtree.math.core.uint\palmtree.math.core.uint\pmc_parse.c
; File z:\sources\lunor\repos\rougemeilland\palmtree.math.core.uint\palmtree.math.core.uint\pmc_inline_func.h
; File z:\sources\lunor\repos\rougemeilland\palmtree.math.core.uint\palmtree.math.core.uint\pmc_parse.c
; File z:\sources\lunor\repos\rougemeilland\palmtree.math.core.uint\palmtree.math.core.uint\pmc_inline_func.h
; File z:\sources\lunor\repos\rougemeilland\palmtree.math.core.uint\palmtree.math.core.uint\pmc_parse.c
; File z:\sources\lunor\repos\rougemeilland\palmtree.math.core.uint\palmtree.math.core.uint\pmc_inline_func.h
; File z:\sources\lunor\repos\rougemeilland\palmtree.math.core.uint\palmtree.math.core.uint\pmc_parse.c
; File z:\sources\lunor\repos\rougemeilland\palmtree.math.core.uint\palmtree.math.core.uint\pmc_inline_func.h
; File z:\sources\lunor\repos\rougemeilland\palmtree.math.core.uint\palmtree.math.core.uint\pmc_parse.c
; File z:\sources\lunor\repos\rougemeilland\palmtree.math.core.uint\palmtree.math.core.uint\pmc_inline_func.h
; File z:\sources\lunor\repos\rougemeilland\palmtree.math.core.uint\palmtree.math.core.uint\pmc_parse.c
; File z:\sources\lunor\repos\rougemeilland\palmtree.math.core.uint\palmtree.math.core.uint\pmc_inline_func.h
; File z:\sources\lunor\repos\rougemeilland\palmtree.math.core.uint\palmtree.math.core.uint\pmc_parse.c
; File z:\sources\lunor\repos\rougemeilland\palmtree.math.core.uint\palmtree.math.core.uint\pmc_inline_func.h
; File z:\sources\lunor\repos\rougemeilland\palmtree.math.core.uint\palmtree.math.core.uint\pmc_parse.c
; File z:\sources\lunor\repos\rougemeilland\palmtree.math.core.uint\palmtree.math.core.uint\pmc_inline_func.h
; File z:\sources\lunor\repos\rougemeilland\palmtree.math.core.uint\palmtree.math.core.uint\pmc_parse.c
; File z:\sources\lunor\repos\rougemeilland\palmtree.math.core.uint\palmtree.math.core.uint\pmc_inline_func.h
; File z:\sources\lunor\repos\rougemeilland\palmtree.math.core.uint\palmtree.math.core.uint\pmc_parse.c
; File z:\sources\lunor\repos\rougemeilland\palmtree.math.core.uint\palmtree.math.core.uint\pmc_inline_func.h
; File z:\sources\lunor\repos\rougemeilland\palmtree.math.core.uint\palmtree.math.core.uint\pmc_parse.c
; File z:\sources\lunor\repos\rougemeilland\palmtree.math.core.uint\palmtree.math.core.uint\pmc_inline_func.h
; File z:\sources\lunor\repos\rougemeilland\palmtree.math.core.uint\palmtree.math.core.uint\pmc_parse.c
; File z:\sources\lunor\repos\rougemeilland\palmtree.math.core.uint\palmtree.math.core.uint\pmc_inline_func.h
; File z:\sources\lunor\repos\rougemeilland\palmtree.math.core.uint\palmtree.math.core.uint\pmc_parse.c
; File z:\sources\lunor\repos\rougemeilland\palmtree.math.core.uint\palmtree.math.core.uint\pmc_inline_func.h
; File z:\sources\lunor\repos\rougemeilland\palmtree.math.core.uint\palmtree.math.core.uint\pmc_parse.c
; File z:\sources\lunor\repos\rougemeilland\palmtree.math.core.uint\palmtree.math.core.uint\pmc_inline_func.h
; File z:\sources\lunor\repos\rougemeilland\palmtree.math.core.uint\palmtree.math.core.uint\pmc_parse.c
; File z:\sources\lunor\repos\rougemeilland\palmtree.math.core.uint\palmtree.math.core.uint\pmc_inline_func.h
; File z:\sources\lunor\repos\rougemeilland\palmtree.math.core.uint\palmtree.math.core.uint\pmc_uint_internal.h
; File z:\sources\lunor\repos\rougemeilland\palmtree.math.core.uint\palmtree.math.core.uint\pmc_inline_func.h
; File z:\sources\lunor\repos\rougemeilland\palmtree.math.core.uint\palmtree.math.core.uint\pmc_parse.c
; File z:\sources\lunor\repos\rougemeilland\palmtree.math.core.uint\palmtree.math.core.uint\pmc_inline_func.h
; File z:\sources\lunor\repos\rougemeilland\palmtree.math.core.uint\palmtree.math.core.uint\pmc_uint_internal.h
; File z:\sources\lunor\repos\rougemeilland\palmtree.math.core.uint\palmtree.math.core.uint\pmc_parse.c
; File z:\sources\lunor\repos\rougemeilland\palmtree.math.core.uint\palmtree.math.core.uint\pmc_inline_func.h
; File z:\sources\lunor\repos\rougemeilland\palmtree.math.core.uint\palmtree.math.core.uint\pmc_parse.c
; File z:\sources\lunor\repos\rougemeilland\palmtree.math.core.uint\palmtree.math.core.uint\pmc_inline_func.h
; File z:\sources\lunor\repos\rougemeilland\palmtree.math.core.uint\palmtree.math.core.uint\pmc_parse.c
; File z:\sources\lunor\repos\rougemeilland\palmtree.math.core.uint\palmtree.math.core.uint\pmc_inline_func.h
; File z:\sources\lunor\repos\rougemeilland\palmtree.math.core.uint\palmtree.math.core.uint\pmc_parse.c
; File z:\sources\lunor\repos\rougemeilland\palmtree.math.core.uint\palmtree.math.core.uint\pmc_inline_func.h
; File z:\sources\lunor\repos\rougemeilland\palmtree.math.core.uint\palmtree.math.core.uint\pmc_parse.c
; File z:\sources\lunor\repos\rougemeilland\palmtree.math.core.uint\palmtree.math.core.uint\pmc_inline_func.h
; File z:\sources\lunor\repos\rougemeilland\palmtree.math.core.uint\palmtree.math.core.uint\pmc_parse.c
; File z:\sources\lunor\repos\rougemeilland\palmtree.math.core.uint\palmtree.math.core.uint\pmc_inline_func.h
; File z:\sources\lunor\repos\rougemeilland\palmtree.math.core.uint\palmtree.math.core.uint\pmc_parse.c
; File z:\sources\lunor\repos\rougemeilland\palmtree.math.core.uint\palmtree.math.core.uint\pmc_inline_func.h
; File z:\sources\lunor\repos\rougemeilland\palmtree.math.core.uint\palmtree.math.core.uint\pmc_parse.c
; File z:\sources\lunor\repos\rougemeilland\palmtree.math.core.uint\palmtree.math.core.uint\pmc_inline_func.h
; File z:\sources\lunor\repos\rougemeilland\palmtree.math.core.uint\palmtree.math.core.uint\pmc_uint_internal.h
; File z:\sources\lunor\repos\rougemeilland\palmtree.math.core.uint\palmtree.math.core.uint\pmc_inline_func.h
; File z:\sources\lunor\repos\rougemeilland\palmtree.math.core.uint\palmtree.math.core.uint\pmc_parse.c
; File z:\sources\lunor\repos\rougemeilland\palmtree.math.core.uint\palmtree.math.core.uint\pmc_inline_func.h
; File z:\sources\lunor\repos\rougemeilland\palmtree.math.core.uint\palmtree.math.core.uint\pmc_uint_internal.h
; File z:\sources\lunor\repos\rougemeilland\palmtree.math.core.uint\palmtree.math.core.uint\pmc_parse.c
; File z:\sources\lunor\repos\rougemeilland\palmtree.math.core.uint\palmtree.math.core.uint\pmc_inline_func.h
; File z:\sources\lunor\repos\rougemeilland\palmtree.math.core.uint\palmtree.math.core.uint\pmc_parse.c
; File z:\sources\lunor\repos\rougemeilland\palmtree.math.core.uint\palmtree.math.core.uint\pmc_inline_func.h
; File z:\sources\lunor\repos\rougemeilland\palmtree.math.core.uint\palmtree.math.core.uint\pmc_parse.c
; File z:\sources\lunor\repos\rougemeilland\palmtree.math.core.uint\palmtree.math.core.uint\pmc_inline_func.h
; File z:\sources\lunor\repos\rougemeilland\palmtree.math.core.uint\palmtree.math.core.uint\pmc_parse.c
; File z:\sources\lunor\repos\rougemeilland\palmtree.math.core.uint\palmtree.math.core.uint\pmc_inline_func.h
; File z:\sources\lunor\repos\rougemeilland\palmtree.math.core.uint\palmtree.math.core.uint\pmc_uint_internal.h
; File z:\sources\lunor\repos\rougemeilland\palmtree.math.core.uint\palmtree.math.core.uint\pmc_inline_func.h
; File z:\sources\lunor\repos\rougemeilland\palmtree.math.core.uint\palmtree.math.core.uint\pmc_parse.c
; File z:\sources\lunor\repos\rougemeilland\palmtree.math.core.uint\palmtree.math.core.uint\pmc_inline_func.h
; File z:\sources\lunor\repos\rougemeilland\palmtree.math.core.uint\palmtree.math.core.uint\pmc_uint_internal.h
; File z:\sources\lunor\repos\rougemeilland\palmtree.math.core.uint\palmtree.math.core.uint\pmc_parse.c
; File z:\sources\lunor\repos\rougemeilland\palmtree.math.core.uint\palmtree.math.core.uint\pmc_inline_func.h
; File z:\sources\lunor\repos\rougemeilland\palmtree.math.core.uint\palmtree.math.core.uint\pmc_parse.c
; File z:\sources\lunor\repos\rougemeilland\palmtree.math.core.uint\palmtree.math.core.uint\pmc_inline_func.h
; File z:\sources\lunor\repos\rougemeilland\palmtree.math.core.uint\palmtree.math.core.uint\pmc_uint_internal.h
; File z:\sources\lunor\repos\rougemeilland\palmtree.math.core.uint\palmtree.math.core.uint\pmc_inline_func.h
; File z:\sources\lunor\repos\rougemeilland\palmtree.math.core.uint\palmtree.math.core.uint\pmc_parse.c
; File z:\sources\lunor\repos\rougemeilland\palmtree.math.core.uint\palmtree.math.core.uint\pmc_inline_func.h
; File z:\sources\lunor\repos\rougemeilland\palmtree.math.core.uint\palmtree.math.core.uint\pmc_uint_internal.h
; File z:\sources\lunor\repos\rougemeilland\palmtree.math.core.uint\palmtree.math.core.uint\pmc_parse.c
; File z:\sources\lunor\repos\rougemeilland\palmtree.math.core.uint\palmtree.math.core.uint\pmc_inline_func.h
; File z:\sources\lunor\repos\rougemeilland\palmtree.math.core.uint\palmtree.math.core.uint\pmc_parse.c
; File z:\sources\lunor\repos\rougemeilland\palmtree.math.core.uint\palmtree.math.core.uint\pmc_uint_internal.h
; File z:\sources\lunor\repos\rougemeilland\palmtree.math.core.uint\palmtree.math.core.uint\pmc_parse.c
;	COMDAT MultiplyAndAdd_using_ADCX_MULX
_TEXT	SEGMENT
k$ = 0
k$ = 8
k$ = 16
k$ = 24
k$ = 32
k$ = 40
k$ = 48
k$ = 56
k$ = 64
k$ = 72
k$ = 80
k$ = 88
k$ = 96
k$ = 104
k$ = 112
k$ = 120
k$ = 128
k$ = 136
k$ = 144
k$ = 152
k$ = 160
k$ = 168
k$ = 176
k$ = 184
k$ = 192
k$ = 200
k$ = 208
k$ = 216
k$ = 224
k$ = 232
k$ = 240
k$ = 248
k$ = 256
k$ = 264
k$ = 272
k$ = 280
k$ = 288
k$ = 296
k$ = 304
k$ = 312
k$ = 320
k$ = 328
k$ = 336
k$ = 344
k$ = 352
k$ = 360
k$ = 368
k$ = 376
k$ = 384
k$ = 392
k$ = 400
k$ = 408
k$ = 416
k$ = 424
k$ = 432
k$ = 440
k$ = 448
k$ = 456
k$ = 464
t_hi$1 = 472
t_hi$2 = 480
t_hi$3 = 488
t_hi$4 = 496
t_hi$5 = 504
t_hi$6 = 512
t_hi$7 = 520
t_hi$8 = 528
t_hi$9 = 536
t_hi$10 = 544
t_hi$11 = 552
t_hi$12 = 560
t_hi$13 = 568
t_hi$14 = 576
t_hi$15 = 584
t_hi$16 = 592
t_hi$17 = 600
t_hi$18 = 608
t_hi$19 = 616
t_hi$20 = 624
t_hi$21 = 632
t_hi$22 = 640
t_hi$23 = 648
t_hi$24 = 656
t_hi$25 = 664
t_hi$26 = 672
t_hi$27 = 680
t_hi$28 = 688
t_hi$29 = 696
t_hi$30 = 704
t_hi$31 = 712
t_hi$32 = 720
t_hi$33 = 728
t_hi$34 = 736
t_hi$35 = 744
t_hi$36 = 752
t_hi$37 = 760
t_hi$38 = 768
t_hi$39 = 776
t_hi$40 = 784
t_hi$41 = 792
t_hi$42 = 800
t_hi$43 = 808
t_hi$44 = 816
t_hi$45 = 824
t_hi$46 = 832
t_hi$47 = 840
t_hi$48 = 848
t_hi$49 = 856
t_hi$50 = 864
t_hi$51 = 872
t_hi$52 = 880
t_hi$53 = 888
t_hi$54 = 896
t_hi$55 = 904
t_hi$56 = 912
t_hi$57 = 920
t_hi$58 = 928
t_hi$59 = 936
t_hi$60 = 944
t_hi$61 = 952
t_hi$62 = 960
t_hi$63 = 968
k$ = 1008
u_buf$ = 1008
k$ = 1016
u_count$ = 1016
k$ = 1024
x$ = 1024
k$ = 1032
MultiplyAndAdd_using_ADCX_MULX PROC			; COMDAT

; 545  : {

	push	rbp
	push	rbx
	push	rdi
	lea	rbp, QWORD PTR [rsp-720]
	sub	rsp, 976				; 000003d0H

; 546  :     __UNIT_TYPE k = x;
; 547  :     __UNIT_TYPE count = u_count >> 5;

	mov	rbx, rdx

; 548  :     while (count > 0)

	xor	edi, edi
	shr	rbx, 5
	mov	r11, rdx
	mov	r10, r8
	mov	rdx, -8446744073709551616		; 8ac7230489e80000H
	test	rbx, rbx
	je	$LN3@MultiplyAn
$LL2@MultiplyAn:

; 549  :     {
; 550  :         k = MultiplyAndAdd1Word_using_ADCX_MULX(k, u_buf[0], &u_buf[0]);

	mov	rax, QWORD PTR [rcx]
; File z:\sources\lunor\repos\rougemeilland\palmtree.math.core.uint\palmtree.math.core.uint\pmc_inline_func.h

; 334  :         return (_mulx_u64(u, v, w_hi));

	mulx	r9, r8, rax

; 239  :         return (_addcarryx_u64(carry, u, v, w));

	add	r8, r10

; 334  :         return (_mulx_u64(u, v, w_hi));

	mov	QWORD PTR t_hi$1[rbp-256], r9

; 239  :         return (_addcarryx_u64(carry, u, v, w));

	mov	QWORD PTR [rcx], r8
; File z:\sources\lunor\repos\rougemeilland\palmtree.math.core.uint\palmtree.math.core.uint\pmc_parse.c

; 551  :         k = MultiplyAndAdd1Word_using_ADCX_MULX(k, u_buf[1], &u_buf[1]);

	mov	rax, QWORD PTR [rcx+8]
; File z:\sources\lunor\repos\rougemeilland\palmtree.math.core.uint\palmtree.math.core.uint\pmc_inline_func.h

; 239  :         return (_addcarryx_u64(carry, u, v, w));

	adcx	r9, rdi

; 334  :         return (_mulx_u64(u, v, w_hi));

	mulx	r10, r8, rax

; 239  :         return (_addcarryx_u64(carry, u, v, w));

	add	r8, r9
	mov	QWORD PTR k$[rbp-256], r9
	mov	QWORD PTR [rcx+8], r8
; File z:\sources\lunor\repos\rougemeilland\palmtree.math.core.uint\palmtree.math.core.uint\pmc_parse.c

; 552  :         k = MultiplyAndAdd1Word_using_ADCX_MULX(k, u_buf[2], &u_buf[2]);

	mov	rax, QWORD PTR [rcx+16]
; File z:\sources\lunor\repos\rougemeilland\palmtree.math.core.uint\palmtree.math.core.uint\pmc_inline_func.h

; 334  :         return (_mulx_u64(u, v, w_hi));

	mulx	r9, r8, rax
	mov	QWORD PTR t_hi$2[rbp-256], r10

; 239  :         return (_addcarryx_u64(carry, u, v, w));

	adcx	r10, rdi
	add	r8, r10
	mov	QWORD PTR k$[rbp-256], r10
	mov	QWORD PTR [rcx+16], r8
; File z:\sources\lunor\repos\rougemeilland\palmtree.math.core.uint\palmtree.math.core.uint\pmc_parse.c

; 553  :         k = MultiplyAndAdd1Word_using_ADCX_MULX(k, u_buf[3], &u_buf[3]);

	mov	rax, QWORD PTR [rcx+24]
; File z:\sources\lunor\repos\rougemeilland\palmtree.math.core.uint\palmtree.math.core.uint\pmc_inline_func.h

; 334  :         return (_mulx_u64(u, v, w_hi));

	mulx	r10, r8, rax
	mov	QWORD PTR t_hi$3[rbp-256], r9

; 239  :         return (_addcarryx_u64(carry, u, v, w));

	adcx	r9, rdi
	add	r8, r9
	mov	QWORD PTR k$[rbp-256], r9
	mov	QWORD PTR [rcx+24], r8
; File z:\sources\lunor\repos\rougemeilland\palmtree.math.core.uint\palmtree.math.core.uint\pmc_parse.c

; 554  :         k = MultiplyAndAdd1Word_using_ADCX_MULX(k, u_buf[4], &u_buf[4]);

	mov	rax, QWORD PTR [rcx+32]
; File z:\sources\lunor\repos\rougemeilland\palmtree.math.core.uint\palmtree.math.core.uint\pmc_inline_func.h

; 334  :         return (_mulx_u64(u, v, w_hi));

	mulx	r9, r8, rax
	mov	QWORD PTR t_hi$4[rbp-256], r10

; 239  :         return (_addcarryx_u64(carry, u, v, w));

	adcx	r10, rdi
	add	r8, r10
	mov	QWORD PTR k$[rbp-256], r10
	mov	QWORD PTR [rcx+32], r8
; File z:\sources\lunor\repos\rougemeilland\palmtree.math.core.uint\palmtree.math.core.uint\pmc_parse.c

; 555  :         k = MultiplyAndAdd1Word_using_ADCX_MULX(k, u_buf[5], &u_buf[5]);

	mov	rax, QWORD PTR [rcx+40]
; File z:\sources\lunor\repos\rougemeilland\palmtree.math.core.uint\palmtree.math.core.uint\pmc_inline_func.h

; 334  :         return (_mulx_u64(u, v, w_hi));

	mulx	r10, r8, rax
	mov	QWORD PTR t_hi$5[rbp-256], r9

; 239  :         return (_addcarryx_u64(carry, u, v, w));

	adcx	r9, rdi
	add	r8, r9
	mov	QWORD PTR k$[rsp], r9
	mov	QWORD PTR [rcx+40], r8
; File z:\sources\lunor\repos\rougemeilland\palmtree.math.core.uint\palmtree.math.core.uint\pmc_parse.c

; 556  :         k = MultiplyAndAdd1Word_using_ADCX_MULX(k, u_buf[6], &u_buf[6]);

	mov	rax, QWORD PTR [rcx+48]
; File z:\sources\lunor\repos\rougemeilland\palmtree.math.core.uint\palmtree.math.core.uint\pmc_inline_func.h

; 334  :         return (_mulx_u64(u, v, w_hi));

	mulx	r9, r8, rax
	mov	QWORD PTR t_hi$6[rbp-256], r10

; 239  :         return (_addcarryx_u64(carry, u, v, w));

	adcx	r10, rdi
	add	r8, r10
	mov	QWORD PTR k$[rsp], r10
	mov	QWORD PTR [rcx+48], r8
; File z:\sources\lunor\repos\rougemeilland\palmtree.math.core.uint\palmtree.math.core.uint\pmc_parse.c

; 557  :         k = MultiplyAndAdd1Word_using_ADCX_MULX(k, u_buf[7], &u_buf[7]);

	mov	rax, QWORD PTR [rcx+56]
; File z:\sources\lunor\repos\rougemeilland\palmtree.math.core.uint\palmtree.math.core.uint\pmc_inline_func.h

; 334  :         return (_mulx_u64(u, v, w_hi));

	mulx	r10, r8, rax
	mov	QWORD PTR t_hi$7[rbp-256], r9

; 239  :         return (_addcarryx_u64(carry, u, v, w));

	adcx	r9, rdi
	add	r8, r9
	mov	QWORD PTR k$[rsp], r9
	mov	QWORD PTR [rcx+56], r8
; File z:\sources\lunor\repos\rougemeilland\palmtree.math.core.uint\palmtree.math.core.uint\pmc_parse.c

; 558  :         k = MultiplyAndAdd1Word_using_ADCX_MULX(k, u_buf[8], &u_buf[8]);

	mov	rax, QWORD PTR [rcx+64]
; File z:\sources\lunor\repos\rougemeilland\palmtree.math.core.uint\palmtree.math.core.uint\pmc_inline_func.h

; 334  :         return (_mulx_u64(u, v, w_hi));

	mulx	r9, r8, rax
	mov	QWORD PTR t_hi$8[rbp-256], r10

; 239  :         return (_addcarryx_u64(carry, u, v, w));

	adcx	r10, rdi
	add	r8, r10
	mov	QWORD PTR k$[rsp], r10
	mov	QWORD PTR [rcx+64], r8
; File z:\sources\lunor\repos\rougemeilland\palmtree.math.core.uint\palmtree.math.core.uint\pmc_parse.c

; 559  :         k = MultiplyAndAdd1Word_using_ADCX_MULX(k, u_buf[9], &u_buf[9]);

	mov	rax, QWORD PTR [rcx+72]
; File z:\sources\lunor\repos\rougemeilland\palmtree.math.core.uint\palmtree.math.core.uint\pmc_inline_func.h

; 334  :         return (_mulx_u64(u, v, w_hi));

	mulx	r10, r8, rax
	mov	QWORD PTR t_hi$9[rbp-256], r9

; 239  :         return (_addcarryx_u64(carry, u, v, w));

	adcx	r9, rdi
	add	r8, r9
	mov	QWORD PTR k$[rsp], r9
	mov	QWORD PTR [rcx+72], r8
; File z:\sources\lunor\repos\rougemeilland\palmtree.math.core.uint\palmtree.math.core.uint\pmc_parse.c

; 560  :         k = MultiplyAndAdd1Word_using_ADCX_MULX(k, u_buf[10], &u_buf[10]);

	mov	rax, QWORD PTR [rcx+80]
; File z:\sources\lunor\repos\rougemeilland\palmtree.math.core.uint\palmtree.math.core.uint\pmc_inline_func.h

; 334  :         return (_mulx_u64(u, v, w_hi));

	mulx	r9, r8, rax
	mov	QWORD PTR t_hi$10[rbp-256], r10

; 239  :         return (_addcarryx_u64(carry, u, v, w));

	adcx	r10, rdi
	add	r8, r10
	mov	QWORD PTR k$[rsp], r10
	mov	QWORD PTR [rcx+80], r8
; File z:\sources\lunor\repos\rougemeilland\palmtree.math.core.uint\palmtree.math.core.uint\pmc_parse.c

; 561  :         k = MultiplyAndAdd1Word_using_ADCX_MULX(k, u_buf[11], &u_buf[11]);

	mov	rax, QWORD PTR [rcx+88]
; File z:\sources\lunor\repos\rougemeilland\palmtree.math.core.uint\palmtree.math.core.uint\pmc_inline_func.h

; 334  :         return (_mulx_u64(u, v, w_hi));

	mulx	r10, r8, rax
	mov	QWORD PTR t_hi$11[rbp-256], r9

; 239  :         return (_addcarryx_u64(carry, u, v, w));

	adcx	r9, rdi

; 334  :         return (_mulx_u64(u, v, w_hi));

	mov	QWORD PTR t_hi$12[rbp-256], r10

; 239  :         return (_addcarryx_u64(carry, u, v, w));

	add	r8, r9
	mov	QWORD PTR k$[rsp], r9
	mov	QWORD PTR [rcx+88], r8
; File z:\sources\lunor\repos\rougemeilland\palmtree.math.core.uint\palmtree.math.core.uint\pmc_parse.c

; 562  :         k = MultiplyAndAdd1Word_using_ADCX_MULX(k, u_buf[12], &u_buf[12]);

	mov	rax, QWORD PTR [rcx+96]
; File z:\sources\lunor\repos\rougemeilland\palmtree.math.core.uint\palmtree.math.core.uint\pmc_inline_func.h

; 239  :         return (_addcarryx_u64(carry, u, v, w));

	adcx	r10, rdi

; 334  :         return (_mulx_u64(u, v, w_hi));

	mulx	r9, r8, rax

; 239  :         return (_addcarryx_u64(carry, u, v, w));

	add	r8, r10

; 334  :         return (_mulx_u64(u, v, w_hi));

	mov	QWORD PTR t_hi$13[rbp-256], r9

; 239  :         return (_addcarryx_u64(carry, u, v, w));

	mov	QWORD PTR [rcx+96], r8
; File z:\sources\lunor\repos\rougemeilland\palmtree.math.core.uint\palmtree.math.core.uint\pmc_parse.c

; 563  :         k = MultiplyAndAdd1Word_using_ADCX_MULX(k, u_buf[13], &u_buf[13]);

	mov	rax, QWORD PTR [rcx+104]
; File z:\sources\lunor\repos\rougemeilland\palmtree.math.core.uint\palmtree.math.core.uint\pmc_inline_func.h

; 239  :         return (_addcarryx_u64(carry, u, v, w));

	adcx	r9, rdi
	mov	QWORD PTR k$[rsp], r10

; 334  :         return (_mulx_u64(u, v, w_hi));

	mulx	r10, r8, rax

; 239  :         return (_addcarryx_u64(carry, u, v, w));

	add	r8, r9
	mov	QWORD PTR k$[rsp], r9
	mov	QWORD PTR [rcx+104], r8
; File z:\sources\lunor\repos\rougemeilland\palmtree.math.core.uint\palmtree.math.core.uint\pmc_parse.c

; 564  :         k = MultiplyAndAdd1Word_using_ADCX_MULX(k, u_buf[14], &u_buf[14]);

	mov	rax, QWORD PTR [rcx+112]
; File z:\sources\lunor\repos\rougemeilland\palmtree.math.core.uint\palmtree.math.core.uint\pmc_inline_func.h

; 334  :         return (_mulx_u64(u, v, w_hi));

	mulx	r9, r8, rax
	mov	QWORD PTR t_hi$14[rbp-256], r10

; 239  :         return (_addcarryx_u64(carry, u, v, w));

	adcx	r10, rdi
	add	r8, r10

; 334  :         return (_mulx_u64(u, v, w_hi));

	mov	QWORD PTR t_hi$15[rbp-256], r9

; 239  :         return (_addcarryx_u64(carry, u, v, w));

	mov	QWORD PTR [rcx+112], r8
; File z:\sources\lunor\repos\rougemeilland\palmtree.math.core.uint\palmtree.math.core.uint\pmc_parse.c

; 565  :         k = MultiplyAndAdd1Word_using_ADCX_MULX(k, u_buf[15], &u_buf[15]);

	mov	rax, QWORD PTR [rcx+120]
; File z:\sources\lunor\repos\rougemeilland\palmtree.math.core.uint\palmtree.math.core.uint\pmc_inline_func.h

; 239  :         return (_addcarryx_u64(carry, u, v, w));

	adcx	r9, rdi
	mov	QWORD PTR k$[rsp], r10

; 334  :         return (_mulx_u64(u, v, w_hi));

	mulx	r10, r8, rax

; 239  :         return (_addcarryx_u64(carry, u, v, w));

	add	r8, r9
	mov	QWORD PTR k$[rsp], r9
	mov	QWORD PTR [rcx+120], r8
; File z:\sources\lunor\repos\rougemeilland\palmtree.math.core.uint\palmtree.math.core.uint\pmc_parse.c

; 566  :         k = MultiplyAndAdd1Word_using_ADCX_MULX(k, u_buf[16], &u_buf[16]);

	mov	rax, QWORD PTR [rcx+128]
; File z:\sources\lunor\repos\rougemeilland\palmtree.math.core.uint\palmtree.math.core.uint\pmc_inline_func.h

; 334  :         return (_mulx_u64(u, v, w_hi));

	mulx	r9, r8, rax
	mov	QWORD PTR t_hi$16[rbp-256], r10

; 239  :         return (_addcarryx_u64(carry, u, v, w));

	adcx	r10, rdi
	add	r8, r10

; 334  :         return (_mulx_u64(u, v, w_hi));

	mov	QWORD PTR t_hi$17[rbp-256], r9

; 239  :         return (_addcarryx_u64(carry, u, v, w));

	mov	QWORD PTR [rcx+128], r8
; File z:\sources\lunor\repos\rougemeilland\palmtree.math.core.uint\palmtree.math.core.uint\pmc_parse.c

; 567  :         k = MultiplyAndAdd1Word_using_ADCX_MULX(k, u_buf[17], &u_buf[17]);

	mov	rax, QWORD PTR [rcx+136]
; File z:\sources\lunor\repos\rougemeilland\palmtree.math.core.uint\palmtree.math.core.uint\pmc_inline_func.h

; 239  :         return (_addcarryx_u64(carry, u, v, w));

	adcx	r9, rdi
	mov	QWORD PTR k$[rsp], r10

; 334  :         return (_mulx_u64(u, v, w_hi));

	mulx	r10, r8, rax

; 239  :         return (_addcarryx_u64(carry, u, v, w));

	add	r8, r9
	mov	QWORD PTR k$[rsp], r9
	mov	QWORD PTR [rcx+136], r8
; File z:\sources\lunor\repos\rougemeilland\palmtree.math.core.uint\palmtree.math.core.uint\pmc_parse.c

; 568  :         k = MultiplyAndAdd1Word_using_ADCX_MULX(k, u_buf[18], &u_buf[18]);

	mov	rax, QWORD PTR [rcx+144]
; File z:\sources\lunor\repos\rougemeilland\palmtree.math.core.uint\palmtree.math.core.uint\pmc_inline_func.h

; 334  :         return (_mulx_u64(u, v, w_hi));

	mulx	r9, r8, rax
	mov	QWORD PTR t_hi$18[rbp-256], r10

; 239  :         return (_addcarryx_u64(carry, u, v, w));

	adcx	r10, rdi
	add	r8, r10

; 334  :         return (_mulx_u64(u, v, w_hi));

	mov	QWORD PTR t_hi$19[rbp-256], r9

; 239  :         return (_addcarryx_u64(carry, u, v, w));

	mov	QWORD PTR [rcx+144], r8
; File z:\sources\lunor\repos\rougemeilland\palmtree.math.core.uint\palmtree.math.core.uint\pmc_parse.c

; 569  :         k = MultiplyAndAdd1Word_using_ADCX_MULX(k, u_buf[19], &u_buf[19]);

	mov	rax, QWORD PTR [rcx+152]
; File z:\sources\lunor\repos\rougemeilland\palmtree.math.core.uint\palmtree.math.core.uint\pmc_inline_func.h

; 239  :         return (_addcarryx_u64(carry, u, v, w));

	adcx	r9, rdi
	mov	QWORD PTR k$[rsp], r10

; 334  :         return (_mulx_u64(u, v, w_hi));

	mulx	r10, r8, rax

; 239  :         return (_addcarryx_u64(carry, u, v, w));

	add	r8, r9
	mov	QWORD PTR k$[rsp], r9
	mov	QWORD PTR [rcx+152], r8
; File z:\sources\lunor\repos\rougemeilland\palmtree.math.core.uint\palmtree.math.core.uint\pmc_parse.c

; 570  :         k = MultiplyAndAdd1Word_using_ADCX_MULX(k, u_buf[20], &u_buf[20]);

	mov	rax, QWORD PTR [rcx+160]
; File z:\sources\lunor\repos\rougemeilland\palmtree.math.core.uint\palmtree.math.core.uint\pmc_inline_func.h

; 334  :         return (_mulx_u64(u, v, w_hi));

	mulx	r9, r8, rax
	mov	QWORD PTR t_hi$20[rbp-256], r10

; 239  :         return (_addcarryx_u64(carry, u, v, w));

	adcx	r10, rdi
	add	r8, r10

; 334  :         return (_mulx_u64(u, v, w_hi));

	mov	QWORD PTR t_hi$21[rbp-256], r9

; 239  :         return (_addcarryx_u64(carry, u, v, w));

	mov	QWORD PTR [rcx+160], r8
; File z:\sources\lunor\repos\rougemeilland\palmtree.math.core.uint\palmtree.math.core.uint\pmc_parse.c

; 571  :         k = MultiplyAndAdd1Word_using_ADCX_MULX(k, u_buf[21], &u_buf[21]);

	mov	rax, QWORD PTR [rcx+168]
; File z:\sources\lunor\repos\rougemeilland\palmtree.math.core.uint\palmtree.math.core.uint\pmc_inline_func.h

; 239  :         return (_addcarryx_u64(carry, u, v, w));

	adcx	r9, rdi
	mov	QWORD PTR k$[rsp], r10

; 334  :         return (_mulx_u64(u, v, w_hi));

	mulx	r10, r8, rax

; 239  :         return (_addcarryx_u64(carry, u, v, w));

	add	r8, r9
	mov	QWORD PTR k$[rbp-256], r9
	mov	QWORD PTR [rcx+168], r8
; File z:\sources\lunor\repos\rougemeilland\palmtree.math.core.uint\palmtree.math.core.uint\pmc_parse.c

; 572  :         k = MultiplyAndAdd1Word_using_ADCX_MULX(k, u_buf[22], &u_buf[22]);

	mov	rax, QWORD PTR [rcx+176]
; File z:\sources\lunor\repos\rougemeilland\palmtree.math.core.uint\palmtree.math.core.uint\pmc_inline_func.h

; 334  :         return (_mulx_u64(u, v, w_hi));

	mulx	r9, r8, rax
	mov	QWORD PTR t_hi$22[rbp-256], r10

; 239  :         return (_addcarryx_u64(carry, u, v, w));

	adcx	r10, rdi
	add	r8, r10

; 334  :         return (_mulx_u64(u, v, w_hi));

	mov	QWORD PTR t_hi$23[rbp-256], r9

; 239  :         return (_addcarryx_u64(carry, u, v, w));

	mov	QWORD PTR [rcx+176], r8
; File z:\sources\lunor\repos\rougemeilland\palmtree.math.core.uint\palmtree.math.core.uint\pmc_parse.c

; 573  :         k = MultiplyAndAdd1Word_using_ADCX_MULX(k, u_buf[23], &u_buf[23]);

	mov	rax, QWORD PTR [rcx+184]
; File z:\sources\lunor\repos\rougemeilland\palmtree.math.core.uint\palmtree.math.core.uint\pmc_inline_func.h

; 239  :         return (_addcarryx_u64(carry, u, v, w));

	adcx	r9, rdi
	mov	QWORD PTR k$[rbp-256], r9
	mov	QWORD PTR k$[rbp-256], r10

; 334  :         return (_mulx_u64(u, v, w_hi));

	mulx	r10, r8, rax

; 239  :         return (_addcarryx_u64(carry, u, v, w));

	add	r8, r9

; 334  :         return (_mulx_u64(u, v, w_hi));

	mov	QWORD PTR t_hi$24[rbp-256], r10

; 239  :         return (_addcarryx_u64(carry, u, v, w));

	mov	QWORD PTR [rcx+184], r8
; File z:\sources\lunor\repos\rougemeilland\palmtree.math.core.uint\palmtree.math.core.uint\pmc_parse.c

; 574  :         k = MultiplyAndAdd1Word_using_ADCX_MULX(k, u_buf[24], &u_buf[24]);

	mov	rax, QWORD PTR [rcx+192]
; File z:\sources\lunor\repos\rougemeilland\palmtree.math.core.uint\palmtree.math.core.uint\pmc_inline_func.h

; 239  :         return (_addcarryx_u64(carry, u, v, w));

	adcx	r10, rdi

; 334  :         return (_mulx_u64(u, v, w_hi));

	mulx	r9, r8, rax

; 239  :         return (_addcarryx_u64(carry, u, v, w));

	add	r8, r10
	mov	QWORD PTR k$[rbp-256], r10
	mov	QWORD PTR [rcx+192], r8
; File z:\sources\lunor\repos\rougemeilland\palmtree.math.core.uint\palmtree.math.core.uint\pmc_parse.c

; 575  :         k = MultiplyAndAdd1Word_using_ADCX_MULX(k, u_buf[25], &u_buf[25]);

	mov	rax, QWORD PTR [rcx+200]
; File z:\sources\lunor\repos\rougemeilland\palmtree.math.core.uint\palmtree.math.core.uint\pmc_inline_func.h

; 334  :         return (_mulx_u64(u, v, w_hi));

	mulx	r10, r8, rax
	mov	QWORD PTR t_hi$25[rbp-256], r9

; 239  :         return (_addcarryx_u64(carry, u, v, w));

	adcx	r9, rdi
	add	r8, r9

; 334  :         return (_mulx_u64(u, v, w_hi));

	mov	QWORD PTR t_hi$26[rbp-256], r10

; 239  :         return (_addcarryx_u64(carry, u, v, w));

	mov	QWORD PTR [rcx+200], r8
; File z:\sources\lunor\repos\rougemeilland\palmtree.math.core.uint\palmtree.math.core.uint\pmc_parse.c

; 576  :         k = MultiplyAndAdd1Word_using_ADCX_MULX(k, u_buf[26], &u_buf[26]);

	mov	rax, QWORD PTR [rcx+208]
; File z:\sources\lunor\repos\rougemeilland\palmtree.math.core.uint\palmtree.math.core.uint\pmc_inline_func.h

; 239  :         return (_addcarryx_u64(carry, u, v, w));

	adcx	r10, rdi
	mov	QWORD PTR k$[rbp-256], r9

; 334  :         return (_mulx_u64(u, v, w_hi));

	mulx	r9, r8, rax

; 239  :         return (_addcarryx_u64(carry, u, v, w));

	add	r8, r10
	mov	QWORD PTR k$[rbp-256], r10
	mov	QWORD PTR [rcx+208], r8
; File z:\sources\lunor\repos\rougemeilland\palmtree.math.core.uint\palmtree.math.core.uint\pmc_parse.c

; 577  :         k = MultiplyAndAdd1Word_using_ADCX_MULX(k, u_buf[27], &u_buf[27]);

	mov	rax, QWORD PTR [rcx+216]
; File z:\sources\lunor\repos\rougemeilland\palmtree.math.core.uint\palmtree.math.core.uint\pmc_inline_func.h

; 334  :         return (_mulx_u64(u, v, w_hi));

	mulx	r10, r8, rax
	mov	QWORD PTR t_hi$27[rbp-256], r9

; 239  :         return (_addcarryx_u64(carry, u, v, w));

	adcx	r9, rdi
	add	r8, r9

; 334  :         return (_mulx_u64(u, v, w_hi));

	mov	QWORD PTR t_hi$28[rbp-256], r10

; 239  :         return (_addcarryx_u64(carry, u, v, w));

	mov	QWORD PTR [rcx+216], r8
; File z:\sources\lunor\repos\rougemeilland\palmtree.math.core.uint\palmtree.math.core.uint\pmc_parse.c

; 578  :         k = MultiplyAndAdd1Word_using_ADCX_MULX(k, u_buf[28], &u_buf[28]);

	mov	rax, QWORD PTR [rcx+224]
; File z:\sources\lunor\repos\rougemeilland\palmtree.math.core.uint\palmtree.math.core.uint\pmc_inline_func.h

; 239  :         return (_addcarryx_u64(carry, u, v, w));

	adcx	r10, rdi
	mov	QWORD PTR k$[rbp-256], r9

; 334  :         return (_mulx_u64(u, v, w_hi));

	mulx	r9, r8, rax

; 239  :         return (_addcarryx_u64(carry, u, v, w));

	add	r8, r10
	mov	QWORD PTR k$[rbp-256], r10
	mov	QWORD PTR [rcx+224], r8
; File z:\sources\lunor\repos\rougemeilland\palmtree.math.core.uint\palmtree.math.core.uint\pmc_parse.c

; 579  :         k = MultiplyAndAdd1Word_using_ADCX_MULX(k, u_buf[29], &u_buf[29]);

	mov	rax, QWORD PTR [rcx+232]
; File z:\sources\lunor\repos\rougemeilland\palmtree.math.core.uint\palmtree.math.core.uint\pmc_inline_func.h

; 334  :         return (_mulx_u64(u, v, w_hi));

	mulx	r10, r8, rax
	mov	QWORD PTR t_hi$29[rbp-256], r9

; 239  :         return (_addcarryx_u64(carry, u, v, w));

	adcx	r9, rdi
	add	r8, r9

; 334  :         return (_mulx_u64(u, v, w_hi));

	mov	QWORD PTR t_hi$30[rbp-256], r10

; 239  :         return (_addcarryx_u64(carry, u, v, w));

	mov	QWORD PTR [rcx+232], r8
; File z:\sources\lunor\repos\rougemeilland\palmtree.math.core.uint\palmtree.math.core.uint\pmc_parse.c

; 580  :         k = MultiplyAndAdd1Word_using_ADCX_MULX(k, u_buf[30], &u_buf[30]);

	mov	rax, QWORD PTR [rcx+240]
; File z:\sources\lunor\repos\rougemeilland\palmtree.math.core.uint\palmtree.math.core.uint\pmc_inline_func.h

; 239  :         return (_addcarryx_u64(carry, u, v, w));

	adcx	r10, rdi
	mov	QWORD PTR k$[rbp-256], r9

; 334  :         return (_mulx_u64(u, v, w_hi));

	mulx	r9, r8, rax

; 239  :         return (_addcarryx_u64(carry, u, v, w));

	add	r8, r10
	mov	QWORD PTR k$[rbp-256], r10
	mov	QWORD PTR [rcx+240], r8
; File z:\sources\lunor\repos\rougemeilland\palmtree.math.core.uint\palmtree.math.core.uint\pmc_parse.c

; 581  :         k = MultiplyAndAdd1Word_using_ADCX_MULX(k, u_buf[31], &u_buf[31]);

	mov	rax, QWORD PTR [rcx+248]
; File z:\sources\lunor\repos\rougemeilland\palmtree.math.core.uint\palmtree.math.core.uint\pmc_inline_func.h

; 334  :         return (_mulx_u64(u, v, w_hi));

	mulx	r10, r8, rax
	mov	QWORD PTR t_hi$31[rbp-256], r9
; File z:\sources\lunor\repos\rougemeilland\palmtree.math.core.uint\palmtree.math.core.uint\pmc_uint_internal.h

; 356  :         _InterlockedExchangeAdd(&statistics_info.COUNT_MULTI64, value);

	mov	eax, 32					; 00000020H
; File z:\sources\lunor\repos\rougemeilland\palmtree.math.core.uint\palmtree.math.core.uint\pmc_inline_func.h

; 239  :         return (_addcarryx_u64(carry, u, v, w));

	adcx	r9, rdi
	add	r8, r9

; 334  :         return (_mulx_u64(u, v, w_hi));

	mov	QWORD PTR t_hi$32[rbp-256], r10

; 239  :         return (_addcarryx_u64(carry, u, v, w));

	mov	QWORD PTR [rcx+248], r8
	adcx	r10, rdi
	mov	QWORD PTR k$[rbp-256], r10
; File z:\sources\lunor\repos\rougemeilland\palmtree.math.core.uint\palmtree.math.core.uint\pmc_parse.c

; 582  :         u_buf += 32;

	add	rcx, 256				; 00000100H
; File z:\sources\lunor\repos\rougemeilland\palmtree.math.core.uint\palmtree.math.core.uint\pmc_inline_func.h

; 239  :         return (_addcarryx_u64(carry, u, v, w));

	mov	QWORD PTR k$[rbp-256], r9
; File z:\sources\lunor\repos\rougemeilland\palmtree.math.core.uint\palmtree.math.core.uint\pmc_uint_internal.h

; 356  :         _InterlockedExchangeAdd(&statistics_info.COUNT_MULTI64, value);

	lock xadd DWORD PTR statistics_info, eax
; File z:\sources\lunor\repos\rougemeilland\palmtree.math.core.uint\palmtree.math.core.uint\pmc_parse.c

; 548  :     while (count > 0)

	sub	rbx, 1
	jne	$LL2@MultiplyAn
$LN3@MultiplyAn:

; 583  :         --count;
; 584  : #ifdef ENABLED_PERFORMANCE_COUNTER
; 585  :         if (sizeof(k) == sizeof(_UINT32_T))
; 586  :             AddToMULTI32Counter(32);
; 587  :         else
; 588  :             AddToMULTI64Counter(32);
; 589  : #endif
; 590  :     }
; 591  : 
; 592  :     if (u_count & 0x10)

	test	r11b, 16
	je	$LN413@MultiplyAn

; 593  :     {
; 594  :         k = MultiplyAndAdd1Word_using_ADCX_MULX(k, u_buf[0], &u_buf[0]);

	mov	rax, QWORD PTR [rcx]
; File z:\sources\lunor\repos\rougemeilland\palmtree.math.core.uint\palmtree.math.core.uint\pmc_inline_func.h

; 334  :         return (_mulx_u64(u, v, w_hi));

	mulx	r9, r8, rax

; 239  :         return (_addcarryx_u64(carry, u, v, w));

	add	r8, r10

; 334  :         return (_mulx_u64(u, v, w_hi));

	mov	QWORD PTR t_hi$33[rbp-256], r9

; 239  :         return (_addcarryx_u64(carry, u, v, w));

	mov	QWORD PTR [rcx], r8
; File z:\sources\lunor\repos\rougemeilland\palmtree.math.core.uint\palmtree.math.core.uint\pmc_parse.c

; 595  :         k = MultiplyAndAdd1Word_using_ADCX_MULX(k, u_buf[1], &u_buf[1]);

	mov	rax, QWORD PTR [rcx+8]
; File z:\sources\lunor\repos\rougemeilland\palmtree.math.core.uint\palmtree.math.core.uint\pmc_inline_func.h

; 239  :         return (_addcarryx_u64(carry, u, v, w));

	adcx	r9, rdi

; 334  :         return (_mulx_u64(u, v, w_hi));

	mulx	r10, r8, rax

; 239  :         return (_addcarryx_u64(carry, u, v, w));

	add	r8, r9
	mov	QWORD PTR k$[rbp-256], r9
	mov	QWORD PTR [rcx+8], r8
; File z:\sources\lunor\repos\rougemeilland\palmtree.math.core.uint\palmtree.math.core.uint\pmc_parse.c

; 596  :         k = MultiplyAndAdd1Word_using_ADCX_MULX(k, u_buf[2], &u_buf[2]);

	mov	rax, QWORD PTR [rcx+16]
; File z:\sources\lunor\repos\rougemeilland\palmtree.math.core.uint\palmtree.math.core.uint\pmc_inline_func.h

; 334  :         return (_mulx_u64(u, v, w_hi));

	mulx	r9, r8, rax
	mov	QWORD PTR t_hi$34[rbp-256], r10

; 239  :         return (_addcarryx_u64(carry, u, v, w));

	adcx	r10, rdi
	add	r8, r10
	mov	QWORD PTR k$[rbp-256], r10
	mov	QWORD PTR [rcx+16], r8
; File z:\sources\lunor\repos\rougemeilland\palmtree.math.core.uint\palmtree.math.core.uint\pmc_parse.c

; 597  :         k = MultiplyAndAdd1Word_using_ADCX_MULX(k, u_buf[3], &u_buf[3]);

	mov	rax, QWORD PTR [rcx+24]
; File z:\sources\lunor\repos\rougemeilland\palmtree.math.core.uint\palmtree.math.core.uint\pmc_inline_func.h

; 334  :         return (_mulx_u64(u, v, w_hi));

	mulx	r10, r8, rax
	mov	QWORD PTR t_hi$35[rbp-256], r9

; 239  :         return (_addcarryx_u64(carry, u, v, w));

	adcx	r9, rdi
	add	r8, r9
	mov	QWORD PTR k$[rbp-256], r9
	mov	QWORD PTR [rcx+24], r8
; File z:\sources\lunor\repos\rougemeilland\palmtree.math.core.uint\palmtree.math.core.uint\pmc_parse.c

; 598  :         k = MultiplyAndAdd1Word_using_ADCX_MULX(k, u_buf[4], &u_buf[4]);

	mov	rax, QWORD PTR [rcx+32]
; File z:\sources\lunor\repos\rougemeilland\palmtree.math.core.uint\palmtree.math.core.uint\pmc_inline_func.h

; 334  :         return (_mulx_u64(u, v, w_hi));

	mulx	r9, r8, rax
	mov	QWORD PTR t_hi$36[rbp-256], r10

; 239  :         return (_addcarryx_u64(carry, u, v, w));

	adcx	r10, rdi
	add	r8, r10
	mov	QWORD PTR k$[rbp-256], r10
	mov	QWORD PTR [rcx+32], r8
; File z:\sources\lunor\repos\rougemeilland\palmtree.math.core.uint\palmtree.math.core.uint\pmc_parse.c

; 599  :         k = MultiplyAndAdd1Word_using_ADCX_MULX(k, u_buf[5], &u_buf[5]);

	mov	rax, QWORD PTR [rcx+40]
; File z:\sources\lunor\repos\rougemeilland\palmtree.math.core.uint\palmtree.math.core.uint\pmc_inline_func.h

; 334  :         return (_mulx_u64(u, v, w_hi));

	mulx	r10, r8, rax
	mov	QWORD PTR t_hi$37[rbp-256], r9

; 239  :         return (_addcarryx_u64(carry, u, v, w));

	adcx	r9, rdi
	add	r8, r9
	mov	QWORD PTR k$[rbp-256], r9
	mov	QWORD PTR [rcx+40], r8
; File z:\sources\lunor\repos\rougemeilland\palmtree.math.core.uint\palmtree.math.core.uint\pmc_parse.c

; 600  :         k = MultiplyAndAdd1Word_using_ADCX_MULX(k, u_buf[6], &u_buf[6]);

	mov	rax, QWORD PTR [rcx+48]
; File z:\sources\lunor\repos\rougemeilland\palmtree.math.core.uint\palmtree.math.core.uint\pmc_inline_func.h

; 334  :         return (_mulx_u64(u, v, w_hi));

	mulx	r9, r8, rax
	mov	QWORD PTR t_hi$38[rbp-256], r10

; 239  :         return (_addcarryx_u64(carry, u, v, w));

	adcx	r10, rdi
	add	r8, r10
	mov	QWORD PTR k$[rbp-256], r10
	mov	QWORD PTR [rcx+48], r8
; File z:\sources\lunor\repos\rougemeilland\palmtree.math.core.uint\palmtree.math.core.uint\pmc_parse.c

; 601  :         k = MultiplyAndAdd1Word_using_ADCX_MULX(k, u_buf[7], &u_buf[7]);

	mov	rax, QWORD PTR [rcx+56]
; File z:\sources\lunor\repos\rougemeilland\palmtree.math.core.uint\palmtree.math.core.uint\pmc_inline_func.h

; 334  :         return (_mulx_u64(u, v, w_hi));

	mulx	r10, r8, rax
	mov	QWORD PTR t_hi$39[rbp-256], r9

; 239  :         return (_addcarryx_u64(carry, u, v, w));

	adcx	r9, rdi
	add	r8, r9
	mov	QWORD PTR k$[rbp-256], r9
	mov	QWORD PTR [rcx+56], r8
; File z:\sources\lunor\repos\rougemeilland\palmtree.math.core.uint\palmtree.math.core.uint\pmc_parse.c

; 602  :         k = MultiplyAndAdd1Word_using_ADCX_MULX(k, u_buf[8], &u_buf[8]);

	mov	rax, QWORD PTR [rcx+64]
; File z:\sources\lunor\repos\rougemeilland\palmtree.math.core.uint\palmtree.math.core.uint\pmc_inline_func.h

; 334  :         return (_mulx_u64(u, v, w_hi));

	mulx	r9, r8, rax
	mov	QWORD PTR t_hi$40[rbp-256], r10

; 239  :         return (_addcarryx_u64(carry, u, v, w));

	adcx	r10, rdi
	add	r8, r10
	mov	QWORD PTR k$[rbp-256], r10
	mov	QWORD PTR [rcx+64], r8
; File z:\sources\lunor\repos\rougemeilland\palmtree.math.core.uint\palmtree.math.core.uint\pmc_parse.c

; 603  :         k = MultiplyAndAdd1Word_using_ADCX_MULX(k, u_buf[9], &u_buf[9]);

	mov	rax, QWORD PTR [rcx+72]
; File z:\sources\lunor\repos\rougemeilland\palmtree.math.core.uint\palmtree.math.core.uint\pmc_inline_func.h

; 334  :         return (_mulx_u64(u, v, w_hi));

	mulx	r10, r8, rax
	mov	QWORD PTR t_hi$41[rbp-256], r9

; 239  :         return (_addcarryx_u64(carry, u, v, w));

	adcx	r9, rdi
	add	r8, r9
	mov	QWORD PTR k$[rbp-256], r9
	mov	QWORD PTR [rcx+72], r8
; File z:\sources\lunor\repos\rougemeilland\palmtree.math.core.uint\palmtree.math.core.uint\pmc_parse.c

; 604  :         k = MultiplyAndAdd1Word_using_ADCX_MULX(k, u_buf[10], &u_buf[10]);

	mov	rax, QWORD PTR [rcx+80]
; File z:\sources\lunor\repos\rougemeilland\palmtree.math.core.uint\palmtree.math.core.uint\pmc_inline_func.h

; 334  :         return (_mulx_u64(u, v, w_hi));

	mulx	r9, r8, rax
	mov	QWORD PTR t_hi$42[rbp-256], r10

; 239  :         return (_addcarryx_u64(carry, u, v, w));

	adcx	r10, rdi
	add	r8, r10
	mov	QWORD PTR k$[rbp-256], r10
	mov	QWORD PTR [rcx+80], r8
; File z:\sources\lunor\repos\rougemeilland\palmtree.math.core.uint\palmtree.math.core.uint\pmc_parse.c

; 605  :         k = MultiplyAndAdd1Word_using_ADCX_MULX(k, u_buf[11], &u_buf[11]);

	mov	rax, QWORD PTR [rcx+88]
; File z:\sources\lunor\repos\rougemeilland\palmtree.math.core.uint\palmtree.math.core.uint\pmc_inline_func.h

; 334  :         return (_mulx_u64(u, v, w_hi));

	mulx	r10, r8, rax
	mov	QWORD PTR t_hi$43[rbp-256], r9

; 239  :         return (_addcarryx_u64(carry, u, v, w));

	adcx	r9, rdi

; 334  :         return (_mulx_u64(u, v, w_hi));

	mov	QWORD PTR t_hi$44[rbp-256], r10

; 239  :         return (_addcarryx_u64(carry, u, v, w));

	add	r8, r9
	mov	QWORD PTR k$[rbp-256], r9
	mov	QWORD PTR [rcx+88], r8
; File z:\sources\lunor\repos\rougemeilland\palmtree.math.core.uint\palmtree.math.core.uint\pmc_parse.c

; 606  :         k = MultiplyAndAdd1Word_using_ADCX_MULX(k, u_buf[12], &u_buf[12]);

	mov	rax, QWORD PTR [rcx+96]
; File z:\sources\lunor\repos\rougemeilland\palmtree.math.core.uint\palmtree.math.core.uint\pmc_inline_func.h

; 239  :         return (_addcarryx_u64(carry, u, v, w));

	adcx	r10, rdi

; 334  :         return (_mulx_u64(u, v, w_hi));

	mulx	r9, r8, rax

; 239  :         return (_addcarryx_u64(carry, u, v, w));

	add	r8, r10
	mov	QWORD PTR k$[rbp-256], r10
	mov	QWORD PTR [rcx+96], r8
; File z:\sources\lunor\repos\rougemeilland\palmtree.math.core.uint\palmtree.math.core.uint\pmc_parse.c

; 607  :         k = MultiplyAndAdd1Word_using_ADCX_MULX(k, u_buf[13], &u_buf[13]);

	mov	rax, QWORD PTR [rcx+104]
; File z:\sources\lunor\repos\rougemeilland\palmtree.math.core.uint\palmtree.math.core.uint\pmc_inline_func.h

; 334  :         return (_mulx_u64(u, v, w_hi));

	mulx	r10, r8, rax
	mov	QWORD PTR t_hi$45[rbp-256], r9

; 239  :         return (_addcarryx_u64(carry, u, v, w));

	adcx	r9, rdi
	add	r8, r9

; 334  :         return (_mulx_u64(u, v, w_hi));

	mov	QWORD PTR t_hi$46[rbp-256], r10

; 239  :         return (_addcarryx_u64(carry, u, v, w));

	mov	QWORD PTR [rcx+104], r8
; File z:\sources\lunor\repos\rougemeilland\palmtree.math.core.uint\palmtree.math.core.uint\pmc_parse.c

; 608  :         k = MultiplyAndAdd1Word_using_ADCX_MULX(k, u_buf[14], &u_buf[14]);

	mov	rax, QWORD PTR [rcx+112]
; File z:\sources\lunor\repos\rougemeilland\palmtree.math.core.uint\palmtree.math.core.uint\pmc_inline_func.h

; 239  :         return (_addcarryx_u64(carry, u, v, w));

	adcx	r10, rdi
	mov	QWORD PTR k$[rbp-256], r9

; 334  :         return (_mulx_u64(u, v, w_hi));

	mulx	r9, r8, rax

; 239  :         return (_addcarryx_u64(carry, u, v, w));

	add	r8, r10
	mov	QWORD PTR k$[rbp-256], r10
	mov	QWORD PTR [rcx+112], r8
; File z:\sources\lunor\repos\rougemeilland\palmtree.math.core.uint\palmtree.math.core.uint\pmc_parse.c

; 609  :         k = MultiplyAndAdd1Word_using_ADCX_MULX(k, u_buf[15], &u_buf[15]);

	mov	rax, QWORD PTR [rcx+120]
; File z:\sources\lunor\repos\rougemeilland\palmtree.math.core.uint\palmtree.math.core.uint\pmc_inline_func.h

; 334  :         return (_mulx_u64(u, v, w_hi));

	mulx	r10, r8, rax
	mov	QWORD PTR t_hi$47[rbp-256], r9
; File z:\sources\lunor\repos\rougemeilland\palmtree.math.core.uint\palmtree.math.core.uint\pmc_uint_internal.h

; 356  :         _InterlockedExchangeAdd(&statistics_info.COUNT_MULTI64, value);

	mov	eax, 16
; File z:\sources\lunor\repos\rougemeilland\palmtree.math.core.uint\palmtree.math.core.uint\pmc_inline_func.h

; 239  :         return (_addcarryx_u64(carry, u, v, w));

	adcx	r9, rdi
	add	r8, r9

; 334  :         return (_mulx_u64(u, v, w_hi));

	mov	QWORD PTR t_hi$48[rbp-256], r10

; 239  :         return (_addcarryx_u64(carry, u, v, w));

	mov	QWORD PTR [rcx+120], r8
	adcx	r10, rdi
	mov	QWORD PTR k$[rbp-256], r10
; File z:\sources\lunor\repos\rougemeilland\palmtree.math.core.uint\palmtree.math.core.uint\pmc_parse.c

; 610  :         u_buf += 16;

	sub	rcx, -128				; ffffffffffffff80H
; File z:\sources\lunor\repos\rougemeilland\palmtree.math.core.uint\palmtree.math.core.uint\pmc_inline_func.h

; 239  :         return (_addcarryx_u64(carry, u, v, w));

	mov	QWORD PTR k$[rbp-256], r9
; File z:\sources\lunor\repos\rougemeilland\palmtree.math.core.uint\palmtree.math.core.uint\pmc_uint_internal.h

; 356  :         _InterlockedExchangeAdd(&statistics_info.COUNT_MULTI64, value);

	lock xadd DWORD PTR statistics_info, eax
$LN413@MultiplyAn:
; File z:\sources\lunor\repos\rougemeilland\palmtree.math.core.uint\palmtree.math.core.uint\pmc_parse.c

; 619  :     if (u_count & 0x8)

	test	r11b, 8
	je	$LN481@MultiplyAn

; 620  :     {
; 621  :         k = MultiplyAndAdd1Word_using_ADCX_MULX(k, u_buf[0], &u_buf[0]);

	mov	rax, QWORD PTR [rcx]
; File z:\sources\lunor\repos\rougemeilland\palmtree.math.core.uint\palmtree.math.core.uint\pmc_inline_func.h

; 334  :         return (_mulx_u64(u, v, w_hi));

	mulx	r9, r8, rax

; 239  :         return (_addcarryx_u64(carry, u, v, w));

	add	r8, r10

; 334  :         return (_mulx_u64(u, v, w_hi));

	mov	QWORD PTR t_hi$49[rbp-256], r9

; 239  :         return (_addcarryx_u64(carry, u, v, w));

	mov	QWORD PTR [rcx], r8
; File z:\sources\lunor\repos\rougemeilland\palmtree.math.core.uint\palmtree.math.core.uint\pmc_parse.c

; 622  :         k = MultiplyAndAdd1Word_using_ADCX_MULX(k, u_buf[1], &u_buf[1]);

	mov	rax, QWORD PTR [rcx+8]
; File z:\sources\lunor\repos\rougemeilland\palmtree.math.core.uint\palmtree.math.core.uint\pmc_inline_func.h

; 239  :         return (_addcarryx_u64(carry, u, v, w));

	adcx	r9, rdi

; 334  :         return (_mulx_u64(u, v, w_hi));

	mulx	r10, r8, rax

; 239  :         return (_addcarryx_u64(carry, u, v, w));

	add	r8, r9

; 334  :         return (_mulx_u64(u, v, w_hi));

	mov	QWORD PTR t_hi$50[rbp-256], r10

; 239  :         return (_addcarryx_u64(carry, u, v, w));

	mov	QWORD PTR [rcx+8], r8
; File z:\sources\lunor\repos\rougemeilland\palmtree.math.core.uint\palmtree.math.core.uint\pmc_parse.c

; 623  :         k = MultiplyAndAdd1Word_using_ADCX_MULX(k, u_buf[2], &u_buf[2]);

	mov	rax, QWORD PTR [rcx+16]
; File z:\sources\lunor\repos\rougemeilland\palmtree.math.core.uint\palmtree.math.core.uint\pmc_inline_func.h

; 239  :         return (_addcarryx_u64(carry, u, v, w));

	adcx	r10, rdi
	mov	QWORD PTR k$[rbp-256], r9

; 334  :         return (_mulx_u64(u, v, w_hi));

	mulx	r9, r8, rax

; 239  :         return (_addcarryx_u64(carry, u, v, w));

	add	r8, r10
	mov	QWORD PTR k$[rbp-256], r10
	mov	QWORD PTR [rcx+16], r8
; File z:\sources\lunor\repos\rougemeilland\palmtree.math.core.uint\palmtree.math.core.uint\pmc_parse.c

; 624  :         k = MultiplyAndAdd1Word_using_ADCX_MULX(k, u_buf[3], &u_buf[3]);

	mov	rax, QWORD PTR [rcx+24]
; File z:\sources\lunor\repos\rougemeilland\palmtree.math.core.uint\palmtree.math.core.uint\pmc_inline_func.h

; 334  :         return (_mulx_u64(u, v, w_hi));

	mulx	r10, r8, rax
	mov	QWORD PTR t_hi$51[rbp-256], r9

; 239  :         return (_addcarryx_u64(carry, u, v, w));

	adcx	r9, rdi
	add	r8, r9

; 334  :         return (_mulx_u64(u, v, w_hi));

	mov	QWORD PTR t_hi$52[rbp-256], r10

; 239  :         return (_addcarryx_u64(carry, u, v, w));

	mov	QWORD PTR [rcx+24], r8
; File z:\sources\lunor\repos\rougemeilland\palmtree.math.core.uint\palmtree.math.core.uint\pmc_parse.c

; 625  :         k = MultiplyAndAdd1Word_using_ADCX_MULX(k, u_buf[4], &u_buf[4]);

	mov	rax, QWORD PTR [rcx+32]
; File z:\sources\lunor\repos\rougemeilland\palmtree.math.core.uint\palmtree.math.core.uint\pmc_inline_func.h

; 239  :         return (_addcarryx_u64(carry, u, v, w));

	adcx	r10, rdi
	mov	QWORD PTR k$[rbp-256], r9

; 334  :         return (_mulx_u64(u, v, w_hi));

	mulx	r9, r8, rax

; 239  :         return (_addcarryx_u64(carry, u, v, w));

	add	r8, r10
	mov	QWORD PTR k$[rbp-256], r10
	mov	QWORD PTR [rcx+32], r8
; File z:\sources\lunor\repos\rougemeilland\palmtree.math.core.uint\palmtree.math.core.uint\pmc_parse.c

; 626  :         k = MultiplyAndAdd1Word_using_ADCX_MULX(k, u_buf[5], &u_buf[5]);

	mov	rax, QWORD PTR [rcx+40]
; File z:\sources\lunor\repos\rougemeilland\palmtree.math.core.uint\palmtree.math.core.uint\pmc_inline_func.h

; 334  :         return (_mulx_u64(u, v, w_hi));

	mulx	r10, r8, rax
	mov	QWORD PTR t_hi$53[rbp-256], r9

; 239  :         return (_addcarryx_u64(carry, u, v, w));

	adcx	r9, rdi
	add	r8, r9

; 334  :         return (_mulx_u64(u, v, w_hi));

	mov	QWORD PTR t_hi$54[rbp-256], r10

; 239  :         return (_addcarryx_u64(carry, u, v, w));

	mov	QWORD PTR [rcx+40], r8
; File z:\sources\lunor\repos\rougemeilland\palmtree.math.core.uint\palmtree.math.core.uint\pmc_parse.c

; 627  :         k = MultiplyAndAdd1Word_using_ADCX_MULX(k, u_buf[6], &u_buf[6]);

	mov	rax, QWORD PTR [rcx+48]
; File z:\sources\lunor\repos\rougemeilland\palmtree.math.core.uint\palmtree.math.core.uint\pmc_inline_func.h

; 239  :         return (_addcarryx_u64(carry, u, v, w));

	adcx	r10, rdi
	mov	QWORD PTR k$[rbp-256], r9

; 334  :         return (_mulx_u64(u, v, w_hi));

	mulx	r9, r8, rax

; 239  :         return (_addcarryx_u64(carry, u, v, w));

	add	r8, r10
	mov	QWORD PTR k$[rbp-256], r10
	mov	QWORD PTR [rcx+48], r8
; File z:\sources\lunor\repos\rougemeilland\palmtree.math.core.uint\palmtree.math.core.uint\pmc_parse.c

; 628  :         k = MultiplyAndAdd1Word_using_ADCX_MULX(k, u_buf[7], &u_buf[7]);

	mov	rax, QWORD PTR [rcx+56]
; File z:\sources\lunor\repos\rougemeilland\palmtree.math.core.uint\palmtree.math.core.uint\pmc_inline_func.h

; 334  :         return (_mulx_u64(u, v, w_hi));

	mulx	r10, r8, rax
	mov	QWORD PTR t_hi$55[rbp-256], r9
; File z:\sources\lunor\repos\rougemeilland\palmtree.math.core.uint\palmtree.math.core.uint\pmc_uint_internal.h

; 356  :         _InterlockedExchangeAdd(&statistics_info.COUNT_MULTI64, value);

	mov	eax, 8
; File z:\sources\lunor\repos\rougemeilland\palmtree.math.core.uint\palmtree.math.core.uint\pmc_inline_func.h

; 239  :         return (_addcarryx_u64(carry, u, v, w));

	adcx	r9, rdi
	add	r8, r9

; 334  :         return (_mulx_u64(u, v, w_hi));

	mov	QWORD PTR t_hi$56[rbp-256], r10

; 239  :         return (_addcarryx_u64(carry, u, v, w));

	mov	QWORD PTR [rcx+56], r8
	adcx	r10, rdi
	mov	QWORD PTR k$[rbp-256], r10
; File z:\sources\lunor\repos\rougemeilland\palmtree.math.core.uint\palmtree.math.core.uint\pmc_parse.c

; 629  :         u_buf += 8;

	add	rcx, 64					; 00000040H
; File z:\sources\lunor\repos\rougemeilland\palmtree.math.core.uint\palmtree.math.core.uint\pmc_inline_func.h

; 239  :         return (_addcarryx_u64(carry, u, v, w));

	mov	QWORD PTR k$[rbp-256], r9
; File z:\sources\lunor\repos\rougemeilland\palmtree.math.core.uint\palmtree.math.core.uint\pmc_uint_internal.h

; 356  :         _InterlockedExchangeAdd(&statistics_info.COUNT_MULTI64, value);

	lock xadd DWORD PTR statistics_info, eax
$LN481@MultiplyAn:
; File z:\sources\lunor\repos\rougemeilland\palmtree.math.core.uint\palmtree.math.core.uint\pmc_parse.c

; 638  :     if (u_count & 0x4)

	test	r11b, 4
	je	$LN517@MultiplyAn

; 639  :     {
; 640  :         k = MultiplyAndAdd1Word_using_ADCX_MULX(k, u_buf[0], &u_buf[0]);

	mov	rax, QWORD PTR [rcx]
; File z:\sources\lunor\repos\rougemeilland\palmtree.math.core.uint\palmtree.math.core.uint\pmc_inline_func.h

; 334  :         return (_mulx_u64(u, v, w_hi));

	mulx	r9, r8, rax

; 239  :         return (_addcarryx_u64(carry, u, v, w));

	add	r8, r10

; 334  :         return (_mulx_u64(u, v, w_hi));

	mov	QWORD PTR t_hi$57[rbp-256], r9

; 239  :         return (_addcarryx_u64(carry, u, v, w));

	mov	QWORD PTR [rcx], r8
; File z:\sources\lunor\repos\rougemeilland\palmtree.math.core.uint\palmtree.math.core.uint\pmc_parse.c

; 641  :         k = MultiplyAndAdd1Word_using_ADCX_MULX(k, u_buf[1], &u_buf[1]);

	mov	rax, QWORD PTR [rcx+8]
; File z:\sources\lunor\repos\rougemeilland\palmtree.math.core.uint\palmtree.math.core.uint\pmc_inline_func.h

; 239  :         return (_addcarryx_u64(carry, u, v, w));

	adcx	r9, rdi

; 334  :         return (_mulx_u64(u, v, w_hi));

	mulx	r10, r8, rax

; 239  :         return (_addcarryx_u64(carry, u, v, w));

	add	r8, r9

; 334  :         return (_mulx_u64(u, v, w_hi));

	mov	QWORD PTR t_hi$58[rbp-256], r10

; 239  :         return (_addcarryx_u64(carry, u, v, w));

	mov	QWORD PTR [rcx+8], r8
; File z:\sources\lunor\repos\rougemeilland\palmtree.math.core.uint\palmtree.math.core.uint\pmc_parse.c

; 642  :         k = MultiplyAndAdd1Word_using_ADCX_MULX(k, u_buf[2], &u_buf[2]);

	mov	rax, QWORD PTR [rcx+16]
; File z:\sources\lunor\repos\rougemeilland\palmtree.math.core.uint\palmtree.math.core.uint\pmc_inline_func.h

; 239  :         return (_addcarryx_u64(carry, u, v, w));

	adcx	r10, rdi
	mov	QWORD PTR k$[rbp-256], r9

; 334  :         return (_mulx_u64(u, v, w_hi));

	mulx	r9, r8, rax

; 239  :         return (_addcarryx_u64(carry, u, v, w));

	add	r8, r10
	mov	QWORD PTR k$[rbp-256], r10
	mov	QWORD PTR [rcx+16], r8
; File z:\sources\lunor\repos\rougemeilland\palmtree.math.core.uint\palmtree.math.core.uint\pmc_parse.c

; 643  :         k = MultiplyAndAdd1Word_using_ADCX_MULX(k, u_buf[3], &u_buf[3]);

	mov	rax, QWORD PTR [rcx+24]
; File z:\sources\lunor\repos\rougemeilland\palmtree.math.core.uint\palmtree.math.core.uint\pmc_inline_func.h

; 334  :         return (_mulx_u64(u, v, w_hi));

	mulx	r10, r8, rax
	mov	QWORD PTR t_hi$59[rbp-256], r9
; File z:\sources\lunor\repos\rougemeilland\palmtree.math.core.uint\palmtree.math.core.uint\pmc_uint_internal.h

; 356  :         _InterlockedExchangeAdd(&statistics_info.COUNT_MULTI64, value);

	mov	eax, 4
; File z:\sources\lunor\repos\rougemeilland\palmtree.math.core.uint\palmtree.math.core.uint\pmc_inline_func.h

; 239  :         return (_addcarryx_u64(carry, u, v, w));

	adcx	r9, rdi
	add	r8, r9

; 334  :         return (_mulx_u64(u, v, w_hi));

	mov	QWORD PTR t_hi$60[rbp-256], r10

; 239  :         return (_addcarryx_u64(carry, u, v, w));

	mov	QWORD PTR [rcx+24], r8
	adcx	r10, rdi
	mov	QWORD PTR k$[rbp-256], r10
; File z:\sources\lunor\repos\rougemeilland\palmtree.math.core.uint\palmtree.math.core.uint\pmc_parse.c

; 644  :         u_buf += 4;

	add	rcx, 32					; 00000020H
; File z:\sources\lunor\repos\rougemeilland\palmtree.math.core.uint\palmtree.math.core.uint\pmc_inline_func.h

; 239  :         return (_addcarryx_u64(carry, u, v, w));

	mov	QWORD PTR k$[rbp-256], r9
; File z:\sources\lunor\repos\rougemeilland\palmtree.math.core.uint\palmtree.math.core.uint\pmc_uint_internal.h

; 356  :         _InterlockedExchangeAdd(&statistics_info.COUNT_MULTI64, value);

	lock xadd DWORD PTR statistics_info, eax
$LN517@MultiplyAn:
; File z:\sources\lunor\repos\rougemeilland\palmtree.math.core.uint\palmtree.math.core.uint\pmc_parse.c

; 653  :     if (u_count & 0x2)

	test	r11b, 2
	je	SHORT $LN537@MultiplyAn

; 654  :     {
; 655  :         k = MultiplyAndAdd1Word_using_ADCX_MULX(k, u_buf[0], &u_buf[0]);

	mov	rax, QWORD PTR [rcx]
; File z:\sources\lunor\repos\rougemeilland\palmtree.math.core.uint\palmtree.math.core.uint\pmc_inline_func.h

; 334  :         return (_mulx_u64(u, v, w_hi));

	mulx	r9, r8, rax

; 239  :         return (_addcarryx_u64(carry, u, v, w));

	add	r8, r10

; 334  :         return (_mulx_u64(u, v, w_hi));

	mov	QWORD PTR t_hi$61[rbp-256], r9

; 239  :         return (_addcarryx_u64(carry, u, v, w));

	mov	QWORD PTR [rcx], r8
; File z:\sources\lunor\repos\rougemeilland\palmtree.math.core.uint\palmtree.math.core.uint\pmc_parse.c

; 656  :         k = MultiplyAndAdd1Word_using_ADCX_MULX(k, u_buf[1], &u_buf[1]);

	mov	rax, QWORD PTR [rcx+8]
; File z:\sources\lunor\repos\rougemeilland\palmtree.math.core.uint\palmtree.math.core.uint\pmc_inline_func.h

; 334  :         return (_mulx_u64(u, v, w_hi));

	mulx	r10, r8, rax

; 239  :         return (_addcarryx_u64(carry, u, v, w));

	adcx	r9, rdi
	add	r8, r9

; 334  :         return (_mulx_u64(u, v, w_hi));

	mov	QWORD PTR t_hi$62[rbp-256], r10

; 239  :         return (_addcarryx_u64(carry, u, v, w));

	mov	QWORD PTR [rcx+8], r8
; File z:\sources\lunor\repos\rougemeilland\palmtree.math.core.uint\palmtree.math.core.uint\pmc_uint_internal.h

; 356  :         _InterlockedExchangeAdd(&statistics_info.COUNT_MULTI64, value);

	mov	eax, 2
; File z:\sources\lunor\repos\rougemeilland\palmtree.math.core.uint\palmtree.math.core.uint\pmc_inline_func.h

; 239  :         return (_addcarryx_u64(carry, u, v, w));

	adcx	r10, rdi
	mov	QWORD PTR k$[rbp-256], r10
; File z:\sources\lunor\repos\rougemeilland\palmtree.math.core.uint\palmtree.math.core.uint\pmc_parse.c

; 657  :         u_buf += 2;

	add	rcx, 16
; File z:\sources\lunor\repos\rougemeilland\palmtree.math.core.uint\palmtree.math.core.uint\pmc_inline_func.h

; 239  :         return (_addcarryx_u64(carry, u, v, w));

	mov	QWORD PTR k$[rbp-256], r9
; File z:\sources\lunor\repos\rougemeilland\palmtree.math.core.uint\palmtree.math.core.uint\pmc_uint_internal.h

; 356  :         _InterlockedExchangeAdd(&statistics_info.COUNT_MULTI64, value);

	lock xadd DWORD PTR statistics_info, eax
$LN537@MultiplyAn:
; File z:\sources\lunor\repos\rougemeilland\palmtree.math.core.uint\palmtree.math.core.uint\pmc_parse.c

; 666  :     if (u_count & 0x1)

	test	r11b, 1
	je	SHORT $LN549@MultiplyAn

; 667  :     {
; 668  :         k = MultiplyAndAdd1Word_using_ADCX_MULX(k, u_buf[0], &u_buf[0]);

	mov	rax, QWORD PTR [rcx]
; File z:\sources\lunor\repos\rougemeilland\palmtree.math.core.uint\palmtree.math.core.uint\pmc_inline_func.h

; 334  :         return (_mulx_u64(u, v, w_hi));

	mulx	r9, r8, rax

; 239  :         return (_addcarryx_u64(carry, u, v, w));

	add	r8, r10

; 334  :         return (_mulx_u64(u, v, w_hi));

	mov	QWORD PTR t_hi$63[rbp-256], r9

; 239  :         return (_addcarryx_u64(carry, u, v, w));

	mov	r10, r9
	mov	QWORD PTR [rcx], r8
	adcx	r10, rdi
	mov	QWORD PTR k$[rbp-256], r10
; File z:\sources\lunor\repos\rougemeilland\palmtree.math.core.uint\palmtree.math.core.uint\pmc_parse.c

; 669  :         u_buf += 1;

	add	rcx, 8
; File z:\sources\lunor\repos\rougemeilland\palmtree.math.core.uint\palmtree.math.core.uint\pmc_uint_internal.h

; 333  :         _InterlockedIncrement(&statistics_info.COUNT_MULTI64);

	lock inc DWORD PTR statistics_info
$LN549@MultiplyAn:
; File z:\sources\lunor\repos\rougemeilland\palmtree.math.core.uint\palmtree.math.core.uint\pmc_parse.c

; 678  :     if (k > 0)

	test	r10, r10
	je	SHORT $LN554@MultiplyAn

; 679  :     {
; 680  :         u_buf[0] = k;

	mov	QWORD PTR [rcx], r10

; 681  :         u_buf += 1;

	lea	rax, QWORD PTR [rcx+8]

; 685  : }

	add	rsp, 976				; 000003d0H
	pop	rdi
	pop	rbx
	pop	rbp
	ret	0
$LN554@MultiplyAn:

; 682  :     }
; 683  : 
; 684  :     return (u_buf);

	mov	rax, rcx

; 685  : }

	add	rsp, 976				; 000003d0H
	pop	rdi
	pop	rbx
	pop	rbp
	ret	0
MultiplyAndAdd_using_ADCX_MULX ENDP
_TEXT	ENDS
; Function compile flags: /Ogtpy
; File z:\sources\lunor\repos\rougemeilland\palmtree.math.core.uint\palmtree.math.core.uint\pmc_parse.c
; File z:\sources\lunor\repos\rougemeilland\palmtree.math.core.uint\palmtree.math.core.uint\pmc_inline_func.h
; File z:\sources\lunor\repos\rougemeilland\palmtree.math.core.uint\palmtree.math.core.uint\pmc_uint_internal.h
; File z:\sources\lunor\repos\rougemeilland\palmtree.math.core.uint\palmtree.math.core.uint\pmc_inline_func.h
; File z:\sources\lunor\repos\rougemeilland\palmtree.math.core.uint\palmtree.math.core.uint\pmc_parse.c
; File z:\sources\lunor\repos\rougemeilland\palmtree.math.core.uint\palmtree.math.core.uint\pmc_uint_internal.h
; File z:\sources\lunor\repos\rougemeilland\palmtree.math.core.uint\palmtree.math.core.uint\pmc_parse.c
; File z:\sources\lunor\repos\rougemeilland\palmtree.math.core.uint\palmtree.math.core.uint\pmc_inline_func.h
; File z:\sources\lunor\repos\rougemeilland\palmtree.math.core.uint\palmtree.math.core.uint\pmc_uint_internal.h
; File z:\sources\lunor\repos\rougemeilland\palmtree.math.core.uint\palmtree.math.core.uint\pmc_inline_func.h
; File z:\sources\lunor\repos\rougemeilland\palmtree.math.core.uint\palmtree.math.core.uint\pmc_parse.c
; File z:\sources\lunor\repos\rougemeilland\palmtree.math.core.uint\palmtree.math.core.uint\pmc_uint_internal.h
; File z:\sources\lunor\repos\rougemeilland\palmtree.math.core.uint\palmtree.math.core.uint\pmc_parse.c
; File z:\sources\lunor\repos\rougemeilland\palmtree.math.core.uint\palmtree.math.core.uint\pmc_inline_func.h
; File z:\sources\lunor\repos\rougemeilland\palmtree.math.core.uint\palmtree.math.core.uint\pmc_uint_internal.h
; File z:\sources\lunor\repos\rougemeilland\palmtree.math.core.uint\palmtree.math.core.uint\pmc_inline_func.h
; File z:\sources\lunor\repos\rougemeilland\palmtree.math.core.uint\palmtree.math.core.uint\pmc_parse.c
; File z:\sources\lunor\repos\rougemeilland\palmtree.math.core.uint\palmtree.math.core.uint\pmc_uint_internal.h
; File z:\sources\lunor\repos\rougemeilland\palmtree.math.core.uint\palmtree.math.core.uint\pmc_parse.c
; File z:\sources\lunor\repos\rougemeilland\palmtree.math.core.uint\palmtree.math.core.uint\pmc_inline_func.h
; File z:\sources\lunor\repos\rougemeilland\palmtree.math.core.uint\palmtree.math.core.uint\pmc_uint_internal.h
; File z:\sources\lunor\repos\rougemeilland\palmtree.math.core.uint\palmtree.math.core.uint\pmc_inline_func.h
; File z:\sources\lunor\repos\rougemeilland\palmtree.math.core.uint\palmtree.math.core.uint\pmc_parse.c
; File z:\sources\lunor\repos\rougemeilland\palmtree.math.core.uint\palmtree.math.core.uint\pmc_uint_internal.h
; File z:\sources\lunor\repos\rougemeilland\palmtree.math.core.uint\palmtree.math.core.uint\pmc_parse.c
; File z:\sources\lunor\repos\rougemeilland\palmtree.math.core.uint\palmtree.math.core.uint\pmc_inline_func.h
; File z:\sources\lunor\repos\rougemeilland\palmtree.math.core.uint\palmtree.math.core.uint\pmc_uint_internal.h
; File z:\sources\lunor\repos\rougemeilland\palmtree.math.core.uint\palmtree.math.core.uint\pmc_inline_func.h
; File z:\sources\lunor\repos\rougemeilland\palmtree.math.core.uint\palmtree.math.core.uint\pmc_parse.c
; File z:\sources\lunor\repos\rougemeilland\palmtree.math.core.uint\palmtree.math.core.uint\pmc_uint_internal.h
; File z:\sources\lunor\repos\rougemeilland\palmtree.math.core.uint\palmtree.math.core.uint\pmc_parse.c
; File z:\sources\lunor\repos\rougemeilland\palmtree.math.core.uint\palmtree.math.core.uint\pmc_inline_func.h
; File z:\sources\lunor\repos\rougemeilland\palmtree.math.core.uint\palmtree.math.core.uint\pmc_parse.c
; File z:\sources\lunor\repos\rougemeilland\palmtree.math.core.uint\palmtree.math.core.uint\pmc_uint_internal.h
; File z:\sources\lunor\repos\rougemeilland\palmtree.math.core.uint\palmtree.math.core.uint\pmc_parse.c
;	COMDAT MultiplyAndAdd_using_ADC_MUL
_TEXT	SEGMENT
k$ = 0
k$ = 8
k$ = 16
k$ = 24
k$ = 32
k$ = 40
k$ = 48
k$ = 56
k$ = 64
k$ = 72
k$ = 80
k$ = 88
k$ = 96
k$ = 104
k$ = 112
k$ = 120
k$ = 128
k$ = 136
k$ = 144
k$ = 152
k$ = 160
k$ = 168
k$ = 176
k$ = 184
k$ = 192
k$ = 200
k$ = 208
k$ = 216
k$ = 224
k$ = 232
k$ = 240
k$ = 248
k$ = 256
k$ = 264
k$ = 272
k$ = 280
k$ = 288
k$ = 296
k$ = 304
k$ = 312
k$ = 320
k$ = 328
k$ = 336
k$ = 344
k$ = 352
k$ = 360
k$ = 368
k$ = 376
k$ = 384
k$ = 392
k$ = 400
k$ = 408
k$ = 416
k$ = 424
k$ = 432
k$ = 440
k$ = 448
k$ = 456
k$ = 464
t_hi$1 = 472
t_hi$2 = 480
t_hi$3 = 488
t_hi$4 = 496
t_hi$5 = 504
t_hi$6 = 512
t_hi$7 = 520
t_hi$8 = 528
t_hi$9 = 536
t_hi$10 = 544
t_hi$11 = 552
t_hi$12 = 560
t_hi$13 = 568
t_hi$14 = 576
t_hi$15 = 584
t_hi$16 = 592
t_hi$17 = 600
t_hi$18 = 608
t_hi$19 = 616
t_hi$20 = 624
t_hi$21 = 632
t_hi$22 = 640
t_hi$23 = 648
t_hi$24 = 656
t_hi$25 = 664
t_hi$26 = 672
t_hi$27 = 680
t_hi$28 = 688
t_hi$29 = 696
t_hi$30 = 704
t_hi$31 = 712
t_hi$32 = 720
t_hi$33 = 728
t_hi$34 = 736
t_hi$35 = 744
t_hi$36 = 752
t_hi$37 = 760
t_hi$38 = 768
t_hi$39 = 776
t_hi$40 = 784
t_hi$41 = 792
t_hi$42 = 800
t_hi$43 = 808
t_hi$44 = 816
t_hi$45 = 824
t_hi$46 = 832
t_hi$47 = 840
t_hi$48 = 848
t_hi$49 = 856
t_hi$50 = 864
t_hi$51 = 872
t_hi$52 = 880
t_hi$53 = 888
t_hi$54 = 896
t_hi$55 = 904
t_hi$56 = 912
t_hi$57 = 920
t_hi$58 = 928
t_hi$59 = 936
t_hi$60 = 944
t_hi$61 = 952
t_hi$62 = 960
t_hi$63 = 968
k$ = 1008
u_buf$ = 1008
k$ = 1016
u_count$ = 1016
k$ = 1024
x$ = 1024
k$ = 1032
MultiplyAndAdd_using_ADC_MUL PROC			; COMDAT

; 402  : {

	push	rbp
	push	rbx
	lea	rbp, QWORD PTR [rsp-728]
	sub	rsp, 984				; 000003d8H

; 403  :     __UNIT_TYPE k = x;
; 404  :     __UNIT_TYPE count = u_count >> 5;

	mov	r11, rdx
	mov	r9, r8
	shr	r11, 5
	mov	r10, rdx

; 405  :     while (count > 0)

	mov	rbx, -8446744073709551616		; 8ac7230489e80000H
	test	r11, r11
	je	$LN3@MultiplyAn
	npad	14
$LL2@MultiplyAn:
; File z:\sources\lunor\repos\rougemeilland\palmtree.math.core.uint\palmtree.math.core.uint\pmc_inline_func.h

; 303  :         return (_umul128(u, v, w_hi));

	mov	rax, rbx
	mul	QWORD PTR [rcx]

; 211  :         return (_addcarry_u64(carry, u, v, w));

	add	rax, r9

; 303  :         return (_umul128(u, v, w_hi));

	mov	QWORD PTR t_hi$1[rbp-256], rdx

; 211  :         return (_addcarry_u64(carry, u, v, w));

	mov	QWORD PTR [rcx], rax

; 303  :         return (_umul128(u, v, w_hi));

	mov	r8, rdx

; 211  :         return (_addcarry_u64(carry, u, v, w));

	adc	r8, 0

; 303  :         return (_umul128(u, v, w_hi));

	mov	rax, rbx
	mul	QWORD PTR [rcx+8]

; 211  :         return (_addcarry_u64(carry, u, v, w));

	mov	QWORD PTR k$[rbp-256], r8
	add	rax, r8

; 303  :         return (_umul128(u, v, w_hi));

	mov	QWORD PTR t_hi$2[rbp-256], rdx

; 211  :         return (_addcarry_u64(carry, u, v, w));

	mov	QWORD PTR [rcx+8], rax

; 303  :         return (_umul128(u, v, w_hi));

	mov	r9, rdx

; 211  :         return (_addcarry_u64(carry, u, v, w));

	adc	r9, 0

; 303  :         return (_umul128(u, v, w_hi));

	mov	rax, rbx
	mul	QWORD PTR [rcx+16]

; 211  :         return (_addcarry_u64(carry, u, v, w));

	mov	QWORD PTR k$[rbp-256], r9
	add	rax, r9

; 303  :         return (_umul128(u, v, w_hi));

	mov	QWORD PTR t_hi$3[rbp-256], rdx

; 211  :         return (_addcarry_u64(carry, u, v, w));

	mov	QWORD PTR [rcx+16], rax

; 303  :         return (_umul128(u, v, w_hi));

	mov	r8, rdx

; 211  :         return (_addcarry_u64(carry, u, v, w));

	adc	r8, 0

; 303  :         return (_umul128(u, v, w_hi));

	mov	rax, rbx
	mul	QWORD PTR [rcx+24]

; 211  :         return (_addcarry_u64(carry, u, v, w));

	mov	QWORD PTR k$[rbp-256], r8
	add	rax, r8

; 303  :         return (_umul128(u, v, w_hi));

	mov	QWORD PTR t_hi$4[rbp-256], rdx

; 211  :         return (_addcarry_u64(carry, u, v, w));

	mov	QWORD PTR [rcx+24], rax

; 303  :         return (_umul128(u, v, w_hi));

	mov	r9, rdx

; 211  :         return (_addcarry_u64(carry, u, v, w));

	adc	r9, 0

; 303  :         return (_umul128(u, v, w_hi));

	mov	rax, rbx
	mul	QWORD PTR [rcx+32]

; 211  :         return (_addcarry_u64(carry, u, v, w));

	mov	QWORD PTR k$[rbp-256], r9
	add	rax, r9

; 303  :         return (_umul128(u, v, w_hi));

	mov	QWORD PTR t_hi$5[rbp-256], rdx

; 211  :         return (_addcarry_u64(carry, u, v, w));

	mov	QWORD PTR [rcx+32], rax

; 303  :         return (_umul128(u, v, w_hi));

	mov	r8, rdx

; 211  :         return (_addcarry_u64(carry, u, v, w));

	adc	r8, 0

; 303  :         return (_umul128(u, v, w_hi));

	mov	rax, rbx
	mul	QWORD PTR [rcx+40]

; 211  :         return (_addcarry_u64(carry, u, v, w));

	mov	QWORD PTR k$[rsp], r8
	add	rax, r8

; 303  :         return (_umul128(u, v, w_hi));

	mov	QWORD PTR t_hi$6[rbp-256], rdx

; 211  :         return (_addcarry_u64(carry, u, v, w));

	mov	QWORD PTR [rcx+40], rax

; 303  :         return (_umul128(u, v, w_hi));

	mov	r9, rdx

; 211  :         return (_addcarry_u64(carry, u, v, w));

	adc	r9, 0

; 303  :         return (_umul128(u, v, w_hi));

	mov	rax, rbx
	mul	QWORD PTR [rcx+48]

; 211  :         return (_addcarry_u64(carry, u, v, w));

	mov	QWORD PTR k$[rsp], r9
	add	rax, r9

; 303  :         return (_umul128(u, v, w_hi));

	mov	QWORD PTR t_hi$7[rbp-256], rdx

; 211  :         return (_addcarry_u64(carry, u, v, w));

	mov	QWORD PTR [rcx+48], rax

; 303  :         return (_umul128(u, v, w_hi));

	mov	r8, rdx

; 211  :         return (_addcarry_u64(carry, u, v, w));

	adc	r8, 0

; 303  :         return (_umul128(u, v, w_hi));

	mov	rax, rbx
	mul	QWORD PTR [rcx+56]

; 211  :         return (_addcarry_u64(carry, u, v, w));

	mov	QWORD PTR k$[rsp], r8
	add	rax, r8

; 303  :         return (_umul128(u, v, w_hi));

	mov	QWORD PTR t_hi$8[rbp-256], rdx

; 211  :         return (_addcarry_u64(carry, u, v, w));

	mov	QWORD PTR [rcx+56], rax

; 303  :         return (_umul128(u, v, w_hi));

	mov	r9, rdx

; 211  :         return (_addcarry_u64(carry, u, v, w));

	adc	r9, 0

; 303  :         return (_umul128(u, v, w_hi));

	mov	rax, rbx
	mul	QWORD PTR [rcx+64]

; 211  :         return (_addcarry_u64(carry, u, v, w));

	mov	QWORD PTR k$[rsp], r9
	add	rax, r9

; 303  :         return (_umul128(u, v, w_hi));

	mov	QWORD PTR t_hi$9[rbp-256], rdx

; 211  :         return (_addcarry_u64(carry, u, v, w));

	mov	QWORD PTR [rcx+64], rax

; 303  :         return (_umul128(u, v, w_hi));

	mov	r8, rdx

; 211  :         return (_addcarry_u64(carry, u, v, w));

	adc	r8, 0

; 303  :         return (_umul128(u, v, w_hi));

	mov	rax, rbx
	mul	QWORD PTR [rcx+72]

; 211  :         return (_addcarry_u64(carry, u, v, w));

	mov	QWORD PTR k$[rsp], r8
	add	rax, r8

; 303  :         return (_umul128(u, v, w_hi));

	mov	QWORD PTR t_hi$10[rbp-256], rdx
	mov	r9, rdx

; 211  :         return (_addcarry_u64(carry, u, v, w));

	mov	QWORD PTR [rcx+72], rax
	adc	r9, 0

; 303  :         return (_umul128(u, v, w_hi));

	mov	rax, rbx

; 211  :         return (_addcarry_u64(carry, u, v, w));

	mov	QWORD PTR k$[rsp], r9

; 303  :         return (_umul128(u, v, w_hi));

	mul	QWORD PTR [rcx+80]

; 211  :         return (_addcarry_u64(carry, u, v, w));

	add	rax, r9

; 303  :         return (_umul128(u, v, w_hi));

	mov	QWORD PTR t_hi$11[rbp-256], rdx

; 211  :         return (_addcarry_u64(carry, u, v, w));

	mov	QWORD PTR [rcx+80], rax

; 303  :         return (_umul128(u, v, w_hi));

	mov	r8, rdx

; 211  :         return (_addcarry_u64(carry, u, v, w));

	adc	r8, 0

; 303  :         return (_umul128(u, v, w_hi));

	mov	rax, rbx
	mul	QWORD PTR [rcx+88]

; 211  :         return (_addcarry_u64(carry, u, v, w));

	mov	QWORD PTR k$[rsp], r8
	add	rax, r8

; 303  :         return (_umul128(u, v, w_hi));

	mov	QWORD PTR t_hi$12[rbp-256], rdx

; 211  :         return (_addcarry_u64(carry, u, v, w));

	mov	QWORD PTR [rcx+88], rax

; 303  :         return (_umul128(u, v, w_hi));

	mov	r9, rdx

; 211  :         return (_addcarry_u64(carry, u, v, w));

	adc	r9, 0

; 303  :         return (_umul128(u, v, w_hi));

	mov	rax, rbx
	mul	QWORD PTR [rcx+96]

; 211  :         return (_addcarry_u64(carry, u, v, w));

	mov	QWORD PTR k$[rsp], r9
	add	rax, r9

; 303  :         return (_umul128(u, v, w_hi));

	mov	QWORD PTR t_hi$13[rbp-256], rdx

; 211  :         return (_addcarry_u64(carry, u, v, w));

	mov	QWORD PTR [rcx+96], rax

; 303  :         return (_umul128(u, v, w_hi));

	mov	r8, rdx

; 211  :         return (_addcarry_u64(carry, u, v, w));

	adc	r8, 0

; 303  :         return (_umul128(u, v, w_hi));

	mov	rax, rbx
	mul	QWORD PTR [rcx+104]

; 211  :         return (_addcarry_u64(carry, u, v, w));

	mov	QWORD PTR k$[rsp], r8
	add	rax, r8

; 303  :         return (_umul128(u, v, w_hi));

	mov	QWORD PTR t_hi$14[rbp-256], rdx

; 211  :         return (_addcarry_u64(carry, u, v, w));

	mov	QWORD PTR [rcx+104], rax

; 303  :         return (_umul128(u, v, w_hi));

	mov	r9, rdx

; 211  :         return (_addcarry_u64(carry, u, v, w));

	adc	r9, 0

; 303  :         return (_umul128(u, v, w_hi));

	mov	rax, rbx
	mul	QWORD PTR [rcx+112]

; 211  :         return (_addcarry_u64(carry, u, v, w));

	mov	QWORD PTR k$[rsp], r9
	add	rax, r9

; 303  :         return (_umul128(u, v, w_hi));

	mov	QWORD PTR t_hi$15[rbp-256], rdx

; 211  :         return (_addcarry_u64(carry, u, v, w));

	mov	QWORD PTR [rcx+112], rax

; 303  :         return (_umul128(u, v, w_hi));

	mov	r8, rdx

; 211  :         return (_addcarry_u64(carry, u, v, w));

	adc	r8, 0

; 303  :         return (_umul128(u, v, w_hi));

	mov	rax, rbx
	mul	QWORD PTR [rcx+120]

; 211  :         return (_addcarry_u64(carry, u, v, w));

	mov	QWORD PTR k$[rsp], r8
	add	rax, r8

; 303  :         return (_umul128(u, v, w_hi));

	mov	QWORD PTR t_hi$16[rbp-256], rdx

; 211  :         return (_addcarry_u64(carry, u, v, w));

	mov	QWORD PTR [rcx+120], rax

; 303  :         return (_umul128(u, v, w_hi));

	mov	r9, rdx

; 211  :         return (_addcarry_u64(carry, u, v, w));

	adc	r9, 0

; 303  :         return (_umul128(u, v, w_hi));

	mov	rax, rbx
	mul	QWORD PTR [rcx+128]

; 211  :         return (_addcarry_u64(carry, u, v, w));

	mov	QWORD PTR k$[rsp], r9
	add	rax, r9

; 303  :         return (_umul128(u, v, w_hi));

	mov	QWORD PTR t_hi$17[rbp-256], rdx

; 211  :         return (_addcarry_u64(carry, u, v, w));

	mov	QWORD PTR [rcx+128], rax

; 303  :         return (_umul128(u, v, w_hi));

	mov	r8, rdx

; 211  :         return (_addcarry_u64(carry, u, v, w));

	adc	r8, 0

; 303  :         return (_umul128(u, v, w_hi));

	mov	rax, rbx
	mul	QWORD PTR [rcx+136]

; 211  :         return (_addcarry_u64(carry, u, v, w));

	mov	QWORD PTR k$[rsp], r8
	add	rax, r8

; 303  :         return (_umul128(u, v, w_hi));

	mov	QWORD PTR t_hi$18[rbp-256], rdx

; 211  :         return (_addcarry_u64(carry, u, v, w));

	mov	QWORD PTR [rcx+136], rax

; 303  :         return (_umul128(u, v, w_hi));

	mov	r9, rdx

; 211  :         return (_addcarry_u64(carry, u, v, w));

	adc	r9, 0

; 303  :         return (_umul128(u, v, w_hi));

	mov	rax, rbx
	mul	QWORD PTR [rcx+144]

; 211  :         return (_addcarry_u64(carry, u, v, w));

	mov	QWORD PTR k$[rsp], r9
	add	rax, r9

; 303  :         return (_umul128(u, v, w_hi));

	mov	QWORD PTR t_hi$19[rbp-256], rdx

; 211  :         return (_addcarry_u64(carry, u, v, w));

	mov	QWORD PTR [rcx+144], rax

; 303  :         return (_umul128(u, v, w_hi));

	mov	r8, rdx

; 211  :         return (_addcarry_u64(carry, u, v, w));

	adc	r8, 0

; 303  :         return (_umul128(u, v, w_hi));

	mov	rax, rbx
	mul	QWORD PTR [rcx+152]

; 211  :         return (_addcarry_u64(carry, u, v, w));

	mov	QWORD PTR k$[rsp], r8
	add	rax, r8

; 303  :         return (_umul128(u, v, w_hi));

	mov	QWORD PTR t_hi$20[rbp-256], rdx
	mov	r9, rdx

; 211  :         return (_addcarry_u64(carry, u, v, w));

	mov	QWORD PTR [rcx+152], rax
	adc	r9, 0

; 303  :         return (_umul128(u, v, w_hi));

	mov	rax, rbx
	mul	QWORD PTR [rcx+160]

; 211  :         return (_addcarry_u64(carry, u, v, w));

	mov	QWORD PTR k$[rsp], r9
	add	rax, r9

; 303  :         return (_umul128(u, v, w_hi));

	mov	QWORD PTR t_hi$21[rbp-256], rdx

; 211  :         return (_addcarry_u64(carry, u, v, w));

	mov	QWORD PTR [rcx+160], rax

; 303  :         return (_umul128(u, v, w_hi));

	mov	r8, rdx

; 211  :         return (_addcarry_u64(carry, u, v, w));

	adc	r8, 0

; 303  :         return (_umul128(u, v, w_hi));

	mov	rax, rbx
	mul	QWORD PTR [rcx+168]

; 211  :         return (_addcarry_u64(carry, u, v, w));

	mov	QWORD PTR k$[rbp-256], r8
	add	rax, r8

; 303  :         return (_umul128(u, v, w_hi));

	mov	QWORD PTR t_hi$22[rbp-256], rdx

; 211  :         return (_addcarry_u64(carry, u, v, w));

	mov	QWORD PTR [rcx+168], rax

; 303  :         return (_umul128(u, v, w_hi));

	mov	r9, rdx

; 211  :         return (_addcarry_u64(carry, u, v, w));

	adc	r9, 0

; 303  :         return (_umul128(u, v, w_hi));

	mov	rax, rbx
	mul	QWORD PTR [rcx+176]

; 211  :         return (_addcarry_u64(carry, u, v, w));

	mov	QWORD PTR k$[rbp-256], r9
	add	rax, r9

; 303  :         return (_umul128(u, v, w_hi));

	mov	QWORD PTR t_hi$23[rbp-256], rdx

; 211  :         return (_addcarry_u64(carry, u, v, w));

	mov	QWORD PTR [rcx+176], rax

; 303  :         return (_umul128(u, v, w_hi));

	mov	r8, rdx

; 211  :         return (_addcarry_u64(carry, u, v, w));

	adc	r8, 0

; 303  :         return (_umul128(u, v, w_hi));

	mov	rax, rbx
	mul	QWORD PTR [rcx+184]

; 211  :         return (_addcarry_u64(carry, u, v, w));

	mov	QWORD PTR k$[rbp-256], r8
	add	rax, r8

; 303  :         return (_umul128(u, v, w_hi));

	mov	QWORD PTR t_hi$24[rbp-256], rdx

; 211  :         return (_addcarry_u64(carry, u, v, w));

	mov	QWORD PTR [rcx+184], rax

; 303  :         return (_umul128(u, v, w_hi));

	mov	r9, rdx

; 211  :         return (_addcarry_u64(carry, u, v, w));

	adc	r9, 0

; 303  :         return (_umul128(u, v, w_hi));

	mov	rax, rbx
	mul	QWORD PTR [rcx+192]

; 211  :         return (_addcarry_u64(carry, u, v, w));

	mov	QWORD PTR k$[rbp-256], r9
	add	rax, r9

; 303  :         return (_umul128(u, v, w_hi));

	mov	QWORD PTR t_hi$25[rbp-256], rdx

; 211  :         return (_addcarry_u64(carry, u, v, w));

	mov	QWORD PTR [rcx+192], rax

; 303  :         return (_umul128(u, v, w_hi));

	mov	r8, rdx

; 211  :         return (_addcarry_u64(carry, u, v, w));

	adc	r8, 0

; 303  :         return (_umul128(u, v, w_hi));

	mov	rax, rbx
	mul	QWORD PTR [rcx+200]

; 211  :         return (_addcarry_u64(carry, u, v, w));

	mov	QWORD PTR k$[rbp-256], r8
	add	rax, r8

; 303  :         return (_umul128(u, v, w_hi));

	mov	QWORD PTR t_hi$26[rbp-256], rdx

; 211  :         return (_addcarry_u64(carry, u, v, w));

	mov	QWORD PTR [rcx+200], rax

; 303  :         return (_umul128(u, v, w_hi));

	mov	r9, rdx

; 211  :         return (_addcarry_u64(carry, u, v, w));

	adc	r9, 0

; 303  :         return (_umul128(u, v, w_hi));

	mov	rax, rbx
	mul	QWORD PTR [rcx+208]

; 211  :         return (_addcarry_u64(carry, u, v, w));

	mov	QWORD PTR k$[rbp-256], r9
	add	rax, r9

; 303  :         return (_umul128(u, v, w_hi));

	mov	QWORD PTR t_hi$27[rbp-256], rdx

; 211  :         return (_addcarry_u64(carry, u, v, w));

	mov	QWORD PTR [rcx+208], rax

; 303  :         return (_umul128(u, v, w_hi));

	mov	r8, rdx

; 211  :         return (_addcarry_u64(carry, u, v, w));

	adc	r8, 0

; 303  :         return (_umul128(u, v, w_hi));

	mov	rax, rbx
	mul	QWORD PTR [rcx+216]

; 211  :         return (_addcarry_u64(carry, u, v, w));

	mov	QWORD PTR k$[rbp-256], r8
	add	rax, r8

; 303  :         return (_umul128(u, v, w_hi));

	mov	QWORD PTR t_hi$28[rbp-256], rdx

; 211  :         return (_addcarry_u64(carry, u, v, w));

	mov	QWORD PTR [rcx+216], rax

; 303  :         return (_umul128(u, v, w_hi));

	mov	r9, rdx

; 211  :         return (_addcarry_u64(carry, u, v, w));

	adc	r9, 0

; 303  :         return (_umul128(u, v, w_hi));

	mov	rax, rbx
	mul	QWORD PTR [rcx+224]

; 211  :         return (_addcarry_u64(carry, u, v, w));

	mov	QWORD PTR k$[rbp-256], r9
	add	rax, r9

; 303  :         return (_umul128(u, v, w_hi));

	mov	QWORD PTR t_hi$29[rbp-256], rdx

; 211  :         return (_addcarry_u64(carry, u, v, w));

	mov	QWORD PTR [rcx+224], rax

; 303  :         return (_umul128(u, v, w_hi));

	mov	r8, rdx

; 211  :         return (_addcarry_u64(carry, u, v, w));

	adc	r8, 0

; 303  :         return (_umul128(u, v, w_hi));

	mov	rax, rbx
	mul	QWORD PTR [rcx+232]

; 211  :         return (_addcarry_u64(carry, u, v, w));

	mov	QWORD PTR k$[rbp-256], r8
	add	rax, r8

; 303  :         return (_umul128(u, v, w_hi));

	mov	QWORD PTR t_hi$30[rbp-256], rdx
	mov	r9, rdx

; 211  :         return (_addcarry_u64(carry, u, v, w));

	mov	QWORD PTR [rcx+232], rax
	adc	r9, 0

; 303  :         return (_umul128(u, v, w_hi));

	mov	rax, rbx
	mul	QWORD PTR [rcx+240]

; 211  :         return (_addcarry_u64(carry, u, v, w));

	mov	QWORD PTR k$[rbp-256], r9

; 303  :         return (_umul128(u, v, w_hi));

	mov	r8, rdx

; 211  :         return (_addcarry_u64(carry, u, v, w));

	add	rax, r9

; 303  :         return (_umul128(u, v, w_hi));

	mov	QWORD PTR t_hi$31[rbp-256], rdx

; 211  :         return (_addcarry_u64(carry, u, v, w));

	mov	QWORD PTR [rcx+240], rax

; 303  :         return (_umul128(u, v, w_hi));

	mov	rax, rbx

; 211  :         return (_addcarry_u64(carry, u, v, w));

	adc	r8, 0

; 303  :         return (_umul128(u, v, w_hi));

	mul	QWORD PTR [rcx+248]

; 211  :         return (_addcarry_u64(carry, u, v, w));

	mov	QWORD PTR k$[rbp-256], r8
	add	rax, r8

; 303  :         return (_umul128(u, v, w_hi));

	mov	QWORD PTR t_hi$32[rbp-256], rdx

; 211  :         return (_addcarry_u64(carry, u, v, w));

	mov	QWORD PTR [rcx+248], rax

; 303  :         return (_umul128(u, v, w_hi));

	mov	r9, rdx

; 211  :         return (_addcarry_u64(carry, u, v, w));

	adc	r9, 0
; File z:\sources\lunor\repos\rougemeilland\palmtree.math.core.uint\palmtree.math.core.uint\pmc_uint_internal.h

; 356  :         _InterlockedExchangeAdd(&statistics_info.COUNT_MULTI64, value);

	mov	eax, 32					; 00000020H
; File z:\sources\lunor\repos\rougemeilland\palmtree.math.core.uint\palmtree.math.core.uint\pmc_inline_func.h

; 211  :         return (_addcarry_u64(carry, u, v, w));

	mov	QWORD PTR k$[rbp-256], r9
; File z:\sources\lunor\repos\rougemeilland\palmtree.math.core.uint\palmtree.math.core.uint\pmc_parse.c

; 439  :         u_buf += 32;

	add	rcx, 256				; 00000100H
; File z:\sources\lunor\repos\rougemeilland\palmtree.math.core.uint\palmtree.math.core.uint\pmc_uint_internal.h

; 356  :         _InterlockedExchangeAdd(&statistics_info.COUNT_MULTI64, value);

	lock xadd DWORD PTR statistics_info, eax
; File z:\sources\lunor\repos\rougemeilland\palmtree.math.core.uint\palmtree.math.core.uint\pmc_parse.c

; 405  :     while (count > 0)

	sub	r11, 1
	jne	$LL2@MultiplyAn
$LN3@MultiplyAn:

; 440  :         --count;
; 441  : #ifdef ENABLED_PERFORMANCE_COUNTER
; 442  :         if (sizeof(k) == sizeof(_UINT32_T))
; 443  :             AddToMULTI32Counter(32);
; 444  :         else
; 445  :             AddToMULTI64Counter(32);
; 446  : #endif
; 447  :     }
; 448  : 
; 449  :     if (u_count & 0x10)

	test	r10b, 16
	je	$LN413@MultiplyAn
; File z:\sources\lunor\repos\rougemeilland\palmtree.math.core.uint\palmtree.math.core.uint\pmc_inline_func.h

; 303  :         return (_umul128(u, v, w_hi));

	mov	rax, rbx
	mul	QWORD PTR [rcx]

; 211  :         return (_addcarry_u64(carry, u, v, w));

	add	rax, r9

; 303  :         return (_umul128(u, v, w_hi));

	mov	QWORD PTR t_hi$33[rbp-256], rdx

; 211  :         return (_addcarry_u64(carry, u, v, w));

	mov	QWORD PTR [rcx], rax

; 303  :         return (_umul128(u, v, w_hi));

	mov	r8, rdx

; 211  :         return (_addcarry_u64(carry, u, v, w));

	adc	r8, 0

; 303  :         return (_umul128(u, v, w_hi));

	mov	rax, rbx
	mul	QWORD PTR [rcx+8]

; 211  :         return (_addcarry_u64(carry, u, v, w));

	mov	QWORD PTR k$[rbp-256], r8
	add	rax, r8

; 303  :         return (_umul128(u, v, w_hi));

	mov	QWORD PTR t_hi$34[rbp-256], rdx

; 211  :         return (_addcarry_u64(carry, u, v, w));

	mov	QWORD PTR [rcx+8], rax

; 303  :         return (_umul128(u, v, w_hi));

	mov	r9, rdx

; 211  :         return (_addcarry_u64(carry, u, v, w));

	adc	r9, 0

; 303  :         return (_umul128(u, v, w_hi));

	mov	rax, rbx
	mul	QWORD PTR [rcx+16]

; 211  :         return (_addcarry_u64(carry, u, v, w));

	mov	QWORD PTR k$[rbp-256], r9
	add	rax, r9

; 303  :         return (_umul128(u, v, w_hi));

	mov	QWORD PTR t_hi$35[rbp-256], rdx

; 211  :         return (_addcarry_u64(carry, u, v, w));

	mov	QWORD PTR [rcx+16], rax

; 303  :         return (_umul128(u, v, w_hi));

	mov	r8, rdx

; 211  :         return (_addcarry_u64(carry, u, v, w));

	adc	r8, 0

; 303  :         return (_umul128(u, v, w_hi));

	mov	rax, rbx
	mul	QWORD PTR [rcx+24]

; 211  :         return (_addcarry_u64(carry, u, v, w));

	mov	QWORD PTR k$[rbp-256], r8
	add	rax, r8

; 303  :         return (_umul128(u, v, w_hi));

	mov	QWORD PTR t_hi$36[rbp-256], rdx

; 211  :         return (_addcarry_u64(carry, u, v, w));

	mov	QWORD PTR [rcx+24], rax

; 303  :         return (_umul128(u, v, w_hi));

	mov	r9, rdx

; 211  :         return (_addcarry_u64(carry, u, v, w));

	adc	r9, 0

; 303  :         return (_umul128(u, v, w_hi));

	mov	rax, rbx
	mul	QWORD PTR [rcx+32]

; 211  :         return (_addcarry_u64(carry, u, v, w));

	mov	QWORD PTR k$[rbp-256], r9
	add	rax, r9

; 303  :         return (_umul128(u, v, w_hi));

	mov	QWORD PTR t_hi$37[rbp-256], rdx

; 211  :         return (_addcarry_u64(carry, u, v, w));

	mov	QWORD PTR [rcx+32], rax

; 303  :         return (_umul128(u, v, w_hi));

	mov	r8, rdx

; 211  :         return (_addcarry_u64(carry, u, v, w));

	adc	r8, 0

; 303  :         return (_umul128(u, v, w_hi));

	mov	rax, rbx
	mul	QWORD PTR [rcx+40]

; 211  :         return (_addcarry_u64(carry, u, v, w));

	mov	QWORD PTR k$[rbp-256], r8
	add	rax, r8

; 303  :         return (_umul128(u, v, w_hi));

	mov	QWORD PTR t_hi$38[rbp-256], rdx

; 211  :         return (_addcarry_u64(carry, u, v, w));

	mov	QWORD PTR [rcx+40], rax

; 303  :         return (_umul128(u, v, w_hi));

	mov	r9, rdx

; 211  :         return (_addcarry_u64(carry, u, v, w));

	adc	r9, 0

; 303  :         return (_umul128(u, v, w_hi));

	mov	rax, rbx
	mul	QWORD PTR [rcx+48]

; 211  :         return (_addcarry_u64(carry, u, v, w));

	mov	QWORD PTR k$[rbp-256], r9
	add	rax, r9

; 303  :         return (_umul128(u, v, w_hi));

	mov	QWORD PTR t_hi$39[rbp-256], rdx

; 211  :         return (_addcarry_u64(carry, u, v, w));

	mov	QWORD PTR [rcx+48], rax

; 303  :         return (_umul128(u, v, w_hi));

	mov	r8, rdx

; 211  :         return (_addcarry_u64(carry, u, v, w));

	adc	r8, 0

; 303  :         return (_umul128(u, v, w_hi));

	mov	rax, rbx
	mul	QWORD PTR [rcx+56]

; 211  :         return (_addcarry_u64(carry, u, v, w));

	mov	QWORD PTR k$[rbp-256], r8
	add	rax, r8

; 303  :         return (_umul128(u, v, w_hi));

	mov	QWORD PTR t_hi$40[rbp-256], rdx

; 211  :         return (_addcarry_u64(carry, u, v, w));

	mov	QWORD PTR [rcx+56], rax

; 303  :         return (_umul128(u, v, w_hi));

	mov	r9, rdx

; 211  :         return (_addcarry_u64(carry, u, v, w));

	adc	r9, 0

; 303  :         return (_umul128(u, v, w_hi));

	mov	rax, rbx
	mul	QWORD PTR [rcx+64]

; 211  :         return (_addcarry_u64(carry, u, v, w));

	mov	QWORD PTR k$[rbp-256], r9
	add	rax, r9

; 303  :         return (_umul128(u, v, w_hi));

	mov	QWORD PTR t_hi$41[rbp-256], rdx

; 211  :         return (_addcarry_u64(carry, u, v, w));

	mov	QWORD PTR [rcx+64], rax

; 303  :         return (_umul128(u, v, w_hi));

	mov	r8, rdx

; 211  :         return (_addcarry_u64(carry, u, v, w));

	adc	r8, 0

; 303  :         return (_umul128(u, v, w_hi));

	mov	rax, rbx
	mul	QWORD PTR [rcx+72]

; 211  :         return (_addcarry_u64(carry, u, v, w));

	mov	QWORD PTR k$[rbp-256], r8
	add	rax, r8

; 303  :         return (_umul128(u, v, w_hi));

	mov	QWORD PTR t_hi$42[rbp-256], rdx
	mov	r9, rdx

; 211  :         return (_addcarry_u64(carry, u, v, w));

	mov	QWORD PTR [rcx+72], rax
	adc	r9, 0

; 303  :         return (_umul128(u, v, w_hi));

	mov	rax, rbx

; 211  :         return (_addcarry_u64(carry, u, v, w));

	mov	QWORD PTR k$[rbp-256], r9

; 303  :         return (_umul128(u, v, w_hi));

	mul	QWORD PTR [rcx+80]

; 211  :         return (_addcarry_u64(carry, u, v, w));

	add	rax, r9

; 303  :         return (_umul128(u, v, w_hi));

	mov	QWORD PTR t_hi$43[rbp-256], rdx

; 211  :         return (_addcarry_u64(carry, u, v, w));

	mov	QWORD PTR [rcx+80], rax

; 303  :         return (_umul128(u, v, w_hi));

	mov	r8, rdx

; 211  :         return (_addcarry_u64(carry, u, v, w));

	adc	r8, 0

; 303  :         return (_umul128(u, v, w_hi));

	mov	rax, rbx
	mul	QWORD PTR [rcx+88]

; 211  :         return (_addcarry_u64(carry, u, v, w));

	mov	QWORD PTR k$[rbp-256], r8
	add	rax, r8

; 303  :         return (_umul128(u, v, w_hi));

	mov	QWORD PTR t_hi$44[rbp-256], rdx

; 211  :         return (_addcarry_u64(carry, u, v, w));

	mov	QWORD PTR [rcx+88], rax

; 303  :         return (_umul128(u, v, w_hi));

	mov	r9, rdx

; 211  :         return (_addcarry_u64(carry, u, v, w));

	adc	r9, 0

; 303  :         return (_umul128(u, v, w_hi));

	mov	rax, rbx
	mul	QWORD PTR [rcx+96]

; 211  :         return (_addcarry_u64(carry, u, v, w));

	mov	QWORD PTR k$[rbp-256], r9
	add	rax, r9

; 303  :         return (_umul128(u, v, w_hi));

	mov	QWORD PTR t_hi$45[rbp-256], rdx

; 211  :         return (_addcarry_u64(carry, u, v, w));

	mov	QWORD PTR [rcx+96], rax

; 303  :         return (_umul128(u, v, w_hi));

	mov	r8, rdx

; 211  :         return (_addcarry_u64(carry, u, v, w));

	adc	r8, 0

; 303  :         return (_umul128(u, v, w_hi));

	mov	rax, rbx
	mul	QWORD PTR [rcx+104]

; 211  :         return (_addcarry_u64(carry, u, v, w));

	mov	QWORD PTR k$[rbp-256], r8
	add	rax, r8

; 303  :         return (_umul128(u, v, w_hi));

	mov	QWORD PTR t_hi$46[rbp-256], rdx

; 211  :         return (_addcarry_u64(carry, u, v, w));

	mov	QWORD PTR [rcx+104], rax

; 303  :         return (_umul128(u, v, w_hi));

	mov	r9, rdx

; 211  :         return (_addcarry_u64(carry, u, v, w));

	adc	r9, 0

; 303  :         return (_umul128(u, v, w_hi));

	mov	rax, rbx
	mul	QWORD PTR [rcx+112]

; 211  :         return (_addcarry_u64(carry, u, v, w));

	mov	QWORD PTR k$[rbp-256], r9
	add	rax, r9

; 303  :         return (_umul128(u, v, w_hi));

	mov	QWORD PTR t_hi$47[rbp-256], rdx

; 211  :         return (_addcarry_u64(carry, u, v, w));

	mov	QWORD PTR [rcx+112], rax

; 303  :         return (_umul128(u, v, w_hi));

	mov	r8, rdx

; 211  :         return (_addcarry_u64(carry, u, v, w));

	adc	r8, 0

; 303  :         return (_umul128(u, v, w_hi));

	mov	rax, rbx
	mul	QWORD PTR [rcx+120]

; 211  :         return (_addcarry_u64(carry, u, v, w));

	mov	QWORD PTR k$[rbp-256], r8
	add	rax, r8

; 303  :         return (_umul128(u, v, w_hi));

	mov	QWORD PTR t_hi$48[rbp-256], rdx

; 211  :         return (_addcarry_u64(carry, u, v, w));

	mov	QWORD PTR [rcx+120], rax

; 303  :         return (_umul128(u, v, w_hi));

	mov	r9, rdx

; 211  :         return (_addcarry_u64(carry, u, v, w));

	adc	r9, 0
; File z:\sources\lunor\repos\rougemeilland\palmtree.math.core.uint\palmtree.math.core.uint\pmc_uint_internal.h

; 356  :         _InterlockedExchangeAdd(&statistics_info.COUNT_MULTI64, value);

	mov	eax, 16
; File z:\sources\lunor\repos\rougemeilland\palmtree.math.core.uint\palmtree.math.core.uint\pmc_inline_func.h

; 211  :         return (_addcarry_u64(carry, u, v, w));

	mov	QWORD PTR k$[rbp-256], r9
; File z:\sources\lunor\repos\rougemeilland\palmtree.math.core.uint\palmtree.math.core.uint\pmc_parse.c

; 467  :         u_buf += 16;

	sub	rcx, -128				; ffffffffffffff80H
; File z:\sources\lunor\repos\rougemeilland\palmtree.math.core.uint\palmtree.math.core.uint\pmc_uint_internal.h

; 356  :         _InterlockedExchangeAdd(&statistics_info.COUNT_MULTI64, value);

	lock xadd DWORD PTR statistics_info, eax
$LN413@MultiplyAn:
; File z:\sources\lunor\repos\rougemeilland\palmtree.math.core.uint\palmtree.math.core.uint\pmc_parse.c

; 476  :     if (u_count & 0x8)

	test	r10b, 8
	je	$LN481@MultiplyAn
; File z:\sources\lunor\repos\rougemeilland\palmtree.math.core.uint\palmtree.math.core.uint\pmc_inline_func.h

; 303  :         return (_umul128(u, v, w_hi));

	mov	rax, rbx
	mul	QWORD PTR [rcx]

; 211  :         return (_addcarry_u64(carry, u, v, w));

	add	rax, r9

; 303  :         return (_umul128(u, v, w_hi));

	mov	QWORD PTR t_hi$49[rbp-256], rdx

; 211  :         return (_addcarry_u64(carry, u, v, w));

	mov	QWORD PTR [rcx], rax

; 303  :         return (_umul128(u, v, w_hi));

	mov	r8, rdx

; 211  :         return (_addcarry_u64(carry, u, v, w));

	adc	r8, 0

; 303  :         return (_umul128(u, v, w_hi));

	mov	rax, rbx
	mul	QWORD PTR [rcx+8]

; 211  :         return (_addcarry_u64(carry, u, v, w));

	mov	QWORD PTR k$[rbp-256], r8
	add	rax, r8

; 303  :         return (_umul128(u, v, w_hi));

	mov	QWORD PTR t_hi$50[rbp-256], rdx

; 211  :         return (_addcarry_u64(carry, u, v, w));

	mov	QWORD PTR [rcx+8], rax

; 303  :         return (_umul128(u, v, w_hi));

	mov	r9, rdx

; 211  :         return (_addcarry_u64(carry, u, v, w));

	adc	r9, 0

; 303  :         return (_umul128(u, v, w_hi));

	mov	rax, rbx
	mul	QWORD PTR [rcx+16]

; 211  :         return (_addcarry_u64(carry, u, v, w));

	mov	QWORD PTR k$[rbp-256], r9
	add	rax, r9

; 303  :         return (_umul128(u, v, w_hi));

	mov	QWORD PTR t_hi$51[rbp-256], rdx

; 211  :         return (_addcarry_u64(carry, u, v, w));

	mov	QWORD PTR [rcx+16], rax

; 303  :         return (_umul128(u, v, w_hi));

	mov	r8, rdx

; 211  :         return (_addcarry_u64(carry, u, v, w));

	adc	r8, 0

; 303  :         return (_umul128(u, v, w_hi));

	mov	rax, rbx
	mul	QWORD PTR [rcx+24]

; 211  :         return (_addcarry_u64(carry, u, v, w));

	mov	QWORD PTR k$[rbp-256], r8
	add	rax, r8

; 303  :         return (_umul128(u, v, w_hi));

	mov	QWORD PTR t_hi$52[rbp-256], rdx

; 211  :         return (_addcarry_u64(carry, u, v, w));

	mov	QWORD PTR [rcx+24], rax

; 303  :         return (_umul128(u, v, w_hi));

	mov	r9, rdx

; 211  :         return (_addcarry_u64(carry, u, v, w));

	adc	r9, 0

; 303  :         return (_umul128(u, v, w_hi));

	mov	rax, rbx
	mul	QWORD PTR [rcx+32]

; 211  :         return (_addcarry_u64(carry, u, v, w));

	mov	QWORD PTR k$[rbp-256], r9
	add	rax, r9

; 303  :         return (_umul128(u, v, w_hi));

	mov	QWORD PTR t_hi$53[rbp-256], rdx

; 211  :         return (_addcarry_u64(carry, u, v, w));

	mov	QWORD PTR [rcx+32], rax

; 303  :         return (_umul128(u, v, w_hi));

	mov	r8, rdx

; 211  :         return (_addcarry_u64(carry, u, v, w));

	adc	r8, 0

; 303  :         return (_umul128(u, v, w_hi));

	mov	rax, rbx
	mul	QWORD PTR [rcx+40]

; 211  :         return (_addcarry_u64(carry, u, v, w));

	mov	QWORD PTR k$[rbp-256], r8
	add	rax, r8

; 303  :         return (_umul128(u, v, w_hi));

	mov	QWORD PTR t_hi$54[rbp-256], rdx

; 211  :         return (_addcarry_u64(carry, u, v, w));

	mov	QWORD PTR [rcx+40], rax

; 303  :         return (_umul128(u, v, w_hi));

	mov	r9, rdx

; 211  :         return (_addcarry_u64(carry, u, v, w));

	adc	r9, 0

; 303  :         return (_umul128(u, v, w_hi));

	mov	rax, rbx
	mul	QWORD PTR [rcx+48]

; 211  :         return (_addcarry_u64(carry, u, v, w));

	mov	QWORD PTR k$[rbp-256], r9
	add	rax, r9

; 303  :         return (_umul128(u, v, w_hi));

	mov	QWORD PTR t_hi$55[rbp-256], rdx

; 211  :         return (_addcarry_u64(carry, u, v, w));

	mov	QWORD PTR [rcx+48], rax

; 303  :         return (_umul128(u, v, w_hi));

	mov	r8, rdx

; 211  :         return (_addcarry_u64(carry, u, v, w));

	adc	r8, 0

; 303  :         return (_umul128(u, v, w_hi));

	mov	rax, rbx
	mul	QWORD PTR [rcx+56]

; 211  :         return (_addcarry_u64(carry, u, v, w));

	mov	QWORD PTR k$[rbp-256], r8
	add	rax, r8

; 303  :         return (_umul128(u, v, w_hi));

	mov	QWORD PTR t_hi$56[rbp-256], rdx

; 211  :         return (_addcarry_u64(carry, u, v, w));

	mov	QWORD PTR [rcx+56], rax

; 303  :         return (_umul128(u, v, w_hi));

	mov	r9, rdx

; 211  :         return (_addcarry_u64(carry, u, v, w));

	adc	r9, 0
; File z:\sources\lunor\repos\rougemeilland\palmtree.math.core.uint\palmtree.math.core.uint\pmc_uint_internal.h

; 356  :         _InterlockedExchangeAdd(&statistics_info.COUNT_MULTI64, value);

	mov	eax, 8
; File z:\sources\lunor\repos\rougemeilland\palmtree.math.core.uint\palmtree.math.core.uint\pmc_inline_func.h

; 211  :         return (_addcarry_u64(carry, u, v, w));

	mov	QWORD PTR k$[rbp-256], r9
; File z:\sources\lunor\repos\rougemeilland\palmtree.math.core.uint\palmtree.math.core.uint\pmc_parse.c

; 486  :         u_buf += 8;

	add	rcx, 64					; 00000040H
; File z:\sources\lunor\repos\rougemeilland\palmtree.math.core.uint\palmtree.math.core.uint\pmc_uint_internal.h

; 356  :         _InterlockedExchangeAdd(&statistics_info.COUNT_MULTI64, value);

	lock xadd DWORD PTR statistics_info, eax
$LN481@MultiplyAn:
; File z:\sources\lunor\repos\rougemeilland\palmtree.math.core.uint\palmtree.math.core.uint\pmc_parse.c

; 495  :     if (u_count & 0x4)

	test	r10b, 4
	je	$LN517@MultiplyAn
; File z:\sources\lunor\repos\rougemeilland\palmtree.math.core.uint\palmtree.math.core.uint\pmc_inline_func.h

; 303  :         return (_umul128(u, v, w_hi));

	mov	rax, rbx
	mul	QWORD PTR [rcx]

; 211  :         return (_addcarry_u64(carry, u, v, w));

	add	rax, r9

; 303  :         return (_umul128(u, v, w_hi));

	mov	QWORD PTR t_hi$57[rbp-256], rdx

; 211  :         return (_addcarry_u64(carry, u, v, w));

	mov	QWORD PTR [rcx], rax

; 303  :         return (_umul128(u, v, w_hi));

	mov	r8, rdx

; 211  :         return (_addcarry_u64(carry, u, v, w));

	adc	r8, 0

; 303  :         return (_umul128(u, v, w_hi));

	mov	rax, rbx
	mul	QWORD PTR [rcx+8]

; 211  :         return (_addcarry_u64(carry, u, v, w));

	mov	QWORD PTR k$[rbp-256], r8
	add	rax, r8

; 303  :         return (_umul128(u, v, w_hi));

	mov	QWORD PTR t_hi$58[rbp-256], rdx

; 211  :         return (_addcarry_u64(carry, u, v, w));

	mov	QWORD PTR [rcx+8], rax

; 303  :         return (_umul128(u, v, w_hi));

	mov	r9, rdx

; 211  :         return (_addcarry_u64(carry, u, v, w));

	adc	r9, 0

; 303  :         return (_umul128(u, v, w_hi));

	mov	rax, rbx
	mul	QWORD PTR [rcx+16]

; 211  :         return (_addcarry_u64(carry, u, v, w));

	mov	QWORD PTR k$[rbp-256], r9
	add	rax, r9

; 303  :         return (_umul128(u, v, w_hi));

	mov	QWORD PTR t_hi$59[rbp-256], rdx

; 211  :         return (_addcarry_u64(carry, u, v, w));

	mov	QWORD PTR [rcx+16], rax

; 303  :         return (_umul128(u, v, w_hi));

	mov	r8, rdx

; 211  :         return (_addcarry_u64(carry, u, v, w));

	adc	r8, 0

; 303  :         return (_umul128(u, v, w_hi));

	mov	rax, rbx
	mul	QWORD PTR [rcx+24]

; 211  :         return (_addcarry_u64(carry, u, v, w));

	mov	QWORD PTR k$[rbp-256], r8
	add	rax, r8

; 303  :         return (_umul128(u, v, w_hi));

	mov	QWORD PTR t_hi$60[rbp-256], rdx

; 211  :         return (_addcarry_u64(carry, u, v, w));

	mov	QWORD PTR [rcx+24], rax

; 303  :         return (_umul128(u, v, w_hi));

	mov	r9, rdx

; 211  :         return (_addcarry_u64(carry, u, v, w));

	adc	r9, 0
; File z:\sources\lunor\repos\rougemeilland\palmtree.math.core.uint\palmtree.math.core.uint\pmc_uint_internal.h

; 356  :         _InterlockedExchangeAdd(&statistics_info.COUNT_MULTI64, value);

	mov	eax, 4
; File z:\sources\lunor\repos\rougemeilland\palmtree.math.core.uint\palmtree.math.core.uint\pmc_inline_func.h

; 211  :         return (_addcarry_u64(carry, u, v, w));

	mov	QWORD PTR k$[rbp-256], r9
; File z:\sources\lunor\repos\rougemeilland\palmtree.math.core.uint\palmtree.math.core.uint\pmc_parse.c

; 501  :         u_buf += 4;

	add	rcx, 32					; 00000020H
; File z:\sources\lunor\repos\rougemeilland\palmtree.math.core.uint\palmtree.math.core.uint\pmc_uint_internal.h

; 356  :         _InterlockedExchangeAdd(&statistics_info.COUNT_MULTI64, value);

	lock xadd DWORD PTR statistics_info, eax
$LN517@MultiplyAn:
; File z:\sources\lunor\repos\rougemeilland\palmtree.math.core.uint\palmtree.math.core.uint\pmc_parse.c

; 510  :     if (u_count & 0x2)

	test	r10b, 2
	je	SHORT $LN537@MultiplyAn
; File z:\sources\lunor\repos\rougemeilland\palmtree.math.core.uint\palmtree.math.core.uint\pmc_inline_func.h

; 303  :         return (_umul128(u, v, w_hi));

	mov	rax, rbx
	mul	QWORD PTR [rcx]

; 211  :         return (_addcarry_u64(carry, u, v, w));

	add	rax, r9

; 303  :         return (_umul128(u, v, w_hi));

	mov	QWORD PTR t_hi$61[rbp-256], rdx

; 211  :         return (_addcarry_u64(carry, u, v, w));

	mov	QWORD PTR [rcx], rax

; 303  :         return (_umul128(u, v, w_hi));

	mov	r8, rdx

; 211  :         return (_addcarry_u64(carry, u, v, w));

	adc	r8, 0

; 303  :         return (_umul128(u, v, w_hi));

	mov	rax, rbx
	mul	QWORD PTR [rcx+8]

; 211  :         return (_addcarry_u64(carry, u, v, w));

	mov	QWORD PTR k$[rbp-256], r8
	add	rax, r8

; 303  :         return (_umul128(u, v, w_hi));

	mov	QWORD PTR t_hi$62[rbp-256], rdx
	mov	r9, rdx

; 211  :         return (_addcarry_u64(carry, u, v, w));

	mov	QWORD PTR [rcx+8], rax
	adc	r9, 0
; File z:\sources\lunor\repos\rougemeilland\palmtree.math.core.uint\palmtree.math.core.uint\pmc_uint_internal.h

; 356  :         _InterlockedExchangeAdd(&statistics_info.COUNT_MULTI64, value);

	mov	edx, 2
; File z:\sources\lunor\repos\rougemeilland\palmtree.math.core.uint\palmtree.math.core.uint\pmc_inline_func.h

; 211  :         return (_addcarry_u64(carry, u, v, w));

	mov	QWORD PTR k$[rbp-256], r9
; File z:\sources\lunor\repos\rougemeilland\palmtree.math.core.uint\palmtree.math.core.uint\pmc_parse.c

; 514  :         u_buf += 2;

	add	rcx, 16
; File z:\sources\lunor\repos\rougemeilland\palmtree.math.core.uint\palmtree.math.core.uint\pmc_uint_internal.h

; 356  :         _InterlockedExchangeAdd(&statistics_info.COUNT_MULTI64, value);

	lock xadd DWORD PTR statistics_info, edx
$LN537@MultiplyAn:
; File z:\sources\lunor\repos\rougemeilland\palmtree.math.core.uint\palmtree.math.core.uint\pmc_parse.c

; 523  :     if (u_count & 0x1)

	test	r10b, 1
	je	SHORT $LN549@MultiplyAn
; File z:\sources\lunor\repos\rougemeilland\palmtree.math.core.uint\palmtree.math.core.uint\pmc_inline_func.h

; 303  :         return (_umul128(u, v, w_hi));

	mov	rax, rbx
	mul	QWORD PTR [rcx]

; 211  :         return (_addcarry_u64(carry, u, v, w));

	add	rax, r9

; 303  :         return (_umul128(u, v, w_hi));

	mov	QWORD PTR t_hi$63[rbp-256], rdx

; 211  :         return (_addcarry_u64(carry, u, v, w));

	mov	r9, rdx
	mov	QWORD PTR [rcx], rax
	adc	r9, 0
	mov	QWORD PTR k$[rbp-256], r9
; File z:\sources\lunor\repos\rougemeilland\palmtree.math.core.uint\palmtree.math.core.uint\pmc_parse.c

; 526  :         u_buf += 1;

	add	rcx, 8
; File z:\sources\lunor\repos\rougemeilland\palmtree.math.core.uint\palmtree.math.core.uint\pmc_uint_internal.h

; 333  :         _InterlockedIncrement(&statistics_info.COUNT_MULTI64);

	lock inc DWORD PTR statistics_info
$LN549@MultiplyAn:
; File z:\sources\lunor\repos\rougemeilland\palmtree.math.core.uint\palmtree.math.core.uint\pmc_parse.c

; 535  :     if (k > 0)

	test	r9, r9
	je	SHORT $LN554@MultiplyAn

; 536  :     {
; 537  :         u_buf[0] = k;

	mov	QWORD PTR [rcx], r9

; 538  :         u_buf += 1;

	lea	rax, QWORD PTR [rcx+8]

; 542  : }

	add	rsp, 984				; 000003d8H
	pop	rbx
	pop	rbp
	ret	0
$LN554@MultiplyAn:

; 539  :     }
; 540  : 
; 541  :     return (u_buf);

	mov	rax, rcx

; 542  : }

	add	rsp, 984				; 000003d8H
	pop	rbx
	pop	rbp
	ret	0
MultiplyAndAdd_using_ADC_MUL ENDP
_TEXT	ENDS
; Function compile flags: /Ogtpy
; File z:\sources\lunor\repos\rougemeilland\palmtree.math.core.uint\palmtree.math.core.uint\pmc_parse.c
; File z:\sources\lunor\repos\rougemeilland\palmtree.math.core.uint\palmtree.math.core.uint\pmc_inline_func.h
; File z:\sources\lunor\repos\rougemeilland\palmtree.math.core.uint\palmtree.math.core.uint\pmc_parse.c
;	COMDAT MultiplyAndAdd1Word_using_ADCX_MULX
_TEXT	SEGMENT
k$ = 8
u$ = 16
w_buf$ = 24
MultiplyAndAdd1Word_using_ADCX_MULX PROC		; COMDAT

; 387  : {

	mov	rax, rdx
; File z:\sources\lunor\repos\rougemeilland\palmtree.math.core.uint\palmtree.math.core.uint\pmc_inline_func.h

; 334  :         return (_mulx_u64(u, v, w_hi));

	mov	rdx, -8446744073709551616		; 8ac7230489e80000H
	mulx	rax, r9, rax

; 239  :         return (_addcarryx_u64(carry, u, v, w));

	add	r9, rcx
	mov	ecx, 0
	mov	QWORD PTR [r8], r9
	adcx	rax, rcx
; File z:\sources\lunor\repos\rougemeilland\palmtree.math.core.uint\palmtree.math.core.uint\pmc_parse.c

; 399  : }

	ret	0
MultiplyAndAdd1Word_using_ADCX_MULX ENDP
_TEXT	ENDS
; Function compile flags: /Ogtpy
; File z:\sources\lunor\repos\rougemeilland\palmtree.math.core.uint\palmtree.math.core.uint\pmc_parse.c
; File z:\sources\lunor\repos\rougemeilland\palmtree.math.core.uint\palmtree.math.core.uint\pmc_inline_func.h
; File z:\sources\lunor\repos\rougemeilland\palmtree.math.core.uint\palmtree.math.core.uint\pmc_parse.c
;	COMDAT MultiplyAndAdd1Word_using_ADC_MUL
_TEXT	SEGMENT
k$ = 8
u$ = 16
w_buf$ = 24
MultiplyAndAdd1Word_using_ADC_MUL PROC			; COMDAT
; File z:\sources\lunor\repos\rougemeilland\palmtree.math.core.uint\palmtree.math.core.uint\pmc_inline_func.h

; 303  :         return (_umul128(u, v, w_hi));

	mov	rax, -8446744073709551616		; 8ac7230489e80000H
	mul	rdx

; 211  :         return (_addcarry_u64(carry, u, v, w));

	add	rax, rcx
	mov	QWORD PTR [r8], rax
	adc	rdx, 0
; File z:\sources\lunor\repos\rougemeilland\palmtree.math.core.uint\palmtree.math.core.uint\pmc_parse.c

; 383  :     return (k);

	mov	rax, rdx

; 384  : }

	ret	0
MultiplyAndAdd1Word_using_ADC_MUL ENDP
_TEXT	ENDS
; Function compile flags: /Ogtpy
; File z:\sources\lunor\repos\rougemeilland\palmtree.math.core.uint\palmtree.math.core.uint\pmc_parse.c
;	COMDAT BuildBinaryFromDecimalString
_TEXT	SEGMENT
source$ = 48
out_buf$ = 56
out_buf_count$ = 64
BuildBinaryFromDecimalString PROC			; COMDAT

; 344  : {

	mov	QWORD PTR [rsp+16], rbx
	mov	QWORD PTR [rsp+24], rdi
	mov	QWORD PTR [rsp+32], r14
	push	r15
	sub	rsp, 32					; 00000020H
	mov	r15, r8
	mov	r14, rdx
	mov	rdi, rcx

; 345  : #ifdef _M_IX86
; 346  :     int word_digit_count = 9;
; 347  : #elif defined(_M_IX64)
; 348  :     int word_digit_count = 19;
; 349  : #else
; 350  : #error unknown platform
; 351  : #endif
; 352  :     wchar_t* in_ptr = source;
; 353  :     __UNIT_TYPE* out_ptr = out_buf;

	mov	rbx, rdx

; 354  :     __UNIT_TYPE source_count = lstrlenW(source);

	call	QWORD PTR __imp_lstrlenW
	movsxd	r9, eax

; 355  :     int r = source_count % word_digit_count;

	mov	r11, -2912643801112034465		; d79435e50d79435fH
	mov	rax, r11
	mov	rcx, r9
	mul	r9
	shr	rdx, 4
	imul	rax, rdx, 19
	sub	rcx, rax

; 356  :     if (r > 0)

	test	ecx, ecx
	jle	SHORT $LN11@BuildBinar

; 297  :     __UNIT_TYPE x = 0;

	xor	eax, eax

; 357  :     {
; 358  :         *out_ptr++ = BuildLeading1WordFromDecimalString(in_ptr, r);

	movsxd	r10, ecx
	mov	rdx, rdi
	mov	r8, r10

; 298  :     while (count > 0)

	test	ecx, ecx
	je	SHORT $LN8@BuildBinar
	npad	5
$LL7@BuildBinar:

; 299  :     {
; 300  :         x = x * 10 + (*in_ptr++ - L'0');

	lea	rcx, QWORD PTR [rax+rax*4]
	movzx	eax, WORD PTR [rdx]
	lea	rdx, QWORD PTR [rdx+2]
	lea	rax, QWORD PTR [rax+rcx*2]
	add	rax, -48				; ffffffffffffffd0H

; 301  :         --count;

	sub	r8, 1
	jne	SHORT $LL7@BuildBinar
$LN8@BuildBinar:

; 357  :     {
; 358  :         *out_ptr++ = BuildLeading1WordFromDecimalString(in_ptr, r);

	mov	QWORD PTR [r14], rax
	lea	rbx, QWORD PTR [r14+8]

; 359  :         in_ptr += r;

	lea	rdi, QWORD PTR [rdi+r10*2]

; 360  :         source_count -= r;

	sub	r9, r10
$LN11@BuildBinar:

; 361  :     }
; 362  :     while (source_count > 0)

	test	r9, r9
	je	SHORT $LN3@BuildBinar
	mov	QWORD PTR [rsp+48], rsi
	lea	rcx, QWORD PTR [r9-1]
	mov	rax, r11
	mul	rcx
	mov	rsi, rdx
	shr	rsi, 4
	inc	rsi
$LL2@BuildBinar:

; 363  :     {
; 364  :         *out_ptr++ = Build1WordFromDecimalString(in_ptr);

	mov	rcx, rdi
	call	Build1WordFromDecimalString
	mov	QWORD PTR [rbx], rax

; 365  :         in_ptr += word_digit_count;

	add	rdi, 38					; 00000026H
	add	rbx, 8
	sub	rsi, 1
	jne	SHORT $LL2@BuildBinar

; 361  :     }
; 362  :     while (source_count > 0)

	mov	rsi, QWORD PTR [rsp+48]
$LN3@BuildBinar:

; 366  :         source_count -= word_digit_count;
; 367  :     }
; 368  :     *out_buf_count = out_ptr - out_buf;
; 369  : }

	mov	rdi, QWORD PTR [rsp+64]
	sub	rbx, r14
	mov	r14, QWORD PTR [rsp+72]
	sar	rbx, 3
	mov	QWORD PTR [r15], rbx
	mov	rbx, QWORD PTR [rsp+56]
	add	rsp, 32					; 00000020H
	pop	r15
	ret	0
BuildBinaryFromDecimalString ENDP
_TEXT	ENDS
; Function compile flags: /Ogtpy
; File z:\sources\lunor\repos\rougemeilland\palmtree.math.core.uint\palmtree.math.core.uint\pmc_parse.c
;	COMDAT Build1WordFromDecimalString
_TEXT	SEGMENT
in_ptr$ = 72
tv839 = 80
tv832 = 88
tv163 = 96
Build1WordFromDecimalString PROC			; COMDAT

; 307  : {

	push	rbx
	push	rbp
	push	rsi
	push	rdi
	push	r12
	push	r13
	push	r14
	push	r15

; 308  :     __UNIT_TYPE x = (*in_ptr++ - L'0');
; 309  :     if (sizeof(__UNIT_TYPE) >= sizeof(_UINT64_T))
; 310  :     {
; 311  :         x = x * 10 + (*in_ptr++ - L'0');

	movzx	edx, WORD PTR [rcx+2]

; 312  :         x = x * 10 + (*in_ptr++ - L'0');

	movzx	r8d, WORD PTR [rcx+4]
	movzx	eax, WORD PTR [rcx]

; 313  :         x = x * 10 + (*in_ptr++ - L'0');

	movzx	r9d, WORD PTR [rcx+6]

; 314  :         x = x * 10 + (*in_ptr++ - L'0');

	movzx	r10d, WORD PTR [rcx+8]

; 315  :         x = x * 10 + (*in_ptr++ - L'0');

	movzx	r11d, WORD PTR [rcx+10]

; 316  :         x = x * 10 + (*in_ptr++ - L'0');

	movzx	ebx, WORD PTR [rcx+12]

; 317  :         x = x * 10 + (*in_ptr++ - L'0');
; 318  :         x = x * 10 + (*in_ptr++ - L'0');
; 319  :         x = x * 10 + (*in_ptr++ - L'0');
; 320  :         x = x * 10 + (*in_ptr++ - L'0');
; 321  :     }
; 322  :     if (sizeof(__UNIT_TYPE) >= sizeof(_UINT32_T))
; 323  :     {
; 324  :         x = x * 10 + (*in_ptr++ - L'0');
; 325  :         x = x * 10 + (*in_ptr++ - L'0');
; 326  :         x = x * 10 + (*in_ptr++ - L'0');
; 327  :         x = x * 10 + (*in_ptr++ - L'0');
; 328  :         x = x * 10 + (*in_ptr++ - L'0');
; 329  :     }
; 330  :     if (sizeof(__UNIT_TYPE) >= sizeof(_UINT16_T))
; 331  :     {
; 332  :         x = x * 10 + (*in_ptr++ - L'0');
; 333  :         x = x * 10 + (*in_ptr++ - L'0');

	lea	rax, QWORD PTR [rax+rax*4]
	movzx	edi, WORD PTR [rcx+14]

; 334  :     }
; 335  :     if (sizeof(__UNIT_TYPE) >= sizeof(_BYTE_T))
; 336  :     {
; 337  :         x = x * 10 + (*in_ptr++ - L'0');

	lea	rax, QWORD PTR [rdx+rax*2]
	movzx	esi, WORD PTR [rcx+16]
	mov	rdx, 200689888779532152			; 02c8fe63fab77778H
	movzx	r14d, WORD PTR [rcx+18]
	movzx	r15d, WORD PTR [rcx+20]
	movzx	r12d, WORD PTR [rcx+22]
	movzx	ebp, WORD PTR [rcx+24]
	movzx	r13d, WORD PTR [rcx+26]
	add	rcx, 28
	mov	QWORD PTR in_ptr$[rsp], rcx
	movzx	ecx, WORD PTR [rcx]
	mov	QWORD PTR tv839[rsp], rcx
	mov	rcx, QWORD PTR in_ptr$[rsp]
	add	rcx, 2
	mov	QWORD PTR in_ptr$[rsp], rcx
	movzx	ecx, WORD PTR [rcx]
	mov	QWORD PTR tv832[rsp], rcx
	mov	rcx, QWORD PTR in_ptr$[rsp]
	add	rcx, 2
	mov	QWORD PTR in_ptr$[rsp], rcx
	add	QWORD PTR in_ptr$[rsp], 2
	movzx	ecx, WORD PTR [rcx]
	mov	QWORD PTR tv163[rsp], rcx
	lea	rcx, QWORD PTR [rax+rax*4]
	lea	rax, QWORD PTR [r8+rcx*2]
	mov	r8, QWORD PTR in_ptr$[rsp]
	lea	rcx, QWORD PTR [rax+rax*4]
	lea	rax, QWORD PTR [r9+rcx*2]
	lea	rcx, QWORD PTR [rax+rax*4]
	lea	rax, QWORD PTR [r10+rcx*2]
	lea	rcx, QWORD PTR [rax+rax*4]
	lea	rax, QWORD PTR [r11+rcx*2]
	lea	rcx, QWORD PTR [rax+rax*4]
	lea	rax, QWORD PTR [rbx+rcx*2]
	lea	rcx, QWORD PTR [rax+rax*4]
	lea	rax, QWORD PTR [rdi+rcx*2]
	lea	rcx, QWORD PTR [rax+rax*4]
	lea	rax, QWORD PTR [rsi+rcx*2]
	lea	rcx, QWORD PTR [rax+rax*4]
	lea	rax, QWORD PTR [r14+rcx*2]
	lea	rcx, QWORD PTR [rax+rax*4]
	lea	rax, QWORD PTR [r15+rcx*2]
	lea	rcx, QWORD PTR [rax+rax*4]
	lea	rax, QWORD PTR [r12+rcx*2]
	lea	rcx, QWORD PTR [rax+rax*4]
	lea	rax, QWORD PTR [rcx*2]
	add	rax, rbp
	lea	rcx, QWORD PTR [rax+rax*4]
	lea	rax, QWORD PTR [rcx*2]
	add	rax, r13
	lea	rcx, QWORD PTR [rax+rax*4]
	mov	rax, QWORD PTR tv839[rsp]
	lea	rax, QWORD PTR [rax+rcx*2]
	lea	rcx, QWORD PTR [rax+rax*4]
	mov	rax, QWORD PTR tv832[rsp]
	lea	rax, QWORD PTR [rax+rcx*2]
	lea	rcx, QWORD PTR [rax+rax*4]
	mov	rax, QWORD PTR tv163[rsp]
	lea	rax, QWORD PTR [rax+rcx*2]
	lea	rcx, QWORD PTR [rax+rax*4]
	movzx	eax, WORD PTR [r8]
	add	rax, rdx
	lea	rcx, QWORD PTR [rax+rcx*2]
	movzx	eax, WORD PTR [r8+2]
	lea	rdx, QWORD PTR [rcx+rcx*4]
	lea	rax, QWORD PTR [rax+rdx*2]

; 338  :     }
; 339  :     return (x);
; 340  : }

	pop	r15
	pop	r14
	pop	r13
	pop	r12
	pop	rdi
	pop	rsi
	pop	rbp
	pop	rbx
	ret	0
Build1WordFromDecimalString ENDP
_TEXT	ENDS
; Function compile flags: /Ogtpy
; File z:\sources\lunor\repos\rougemeilland\palmtree.math.core.uint\palmtree.math.core.uint\pmc_parse.c
;	COMDAT BuildLeading1WordFromDecimalString
_TEXT	SEGMENT
in_ptr$ = 8
count$ = 16
BuildLeading1WordFromDecimalString PROC			; COMDAT

; 297  :     __UNIT_TYPE x = 0;

	xor	eax, eax

; 298  :     while (count > 0)

	test	rdx, rdx
	je	SHORT $LN9@BuildLeadi
	npad	9
$LL2@BuildLeadi:

; 299  :     {
; 300  :         x = x * 10 + (*in_ptr++ - L'0');

	lea	r8, QWORD PTR [rax+rax*4]
	movzx	eax, WORD PTR [rcx]
	lea	rcx, QWORD PTR [rcx+2]
	lea	rax, QWORD PTR [rax+r8*2]
	add	rax, -48				; ffffffffffffffd0H

; 301  :         --count;

	sub	rdx, 1
	jne	SHORT $LL2@BuildLeadi
$LN9@BuildLeadi:

; 302  :     }
; 303  :     return (x);
; 304  : }

	ret	0
BuildLeading1WordFromDecimalString ENDP
_TEXT	ENDS
; Function compile flags: /Ogtpy
; File z:\sources\lunor\repos\rougemeilland\palmtree.math.core.uint\palmtree.math.core.uint\pmc_parse.c
;	COMDAT ParseAsHexNumberString
_TEXT	SEGMENT
state$ = 48
__$ArrayPad$ = 144
in_ptr$ = 176
number_styles$ = 184
format_option$ = 192
int_part_buf$ = 200
ParseAsHexNumberString PROC				; COMDAT

; 281  : {

	mov	QWORD PTR [rsp+8], rbx
	push	rdi
	sub	rsp, 160				; 000000a0H
	mov	rax, QWORD PTR __security_cookie
	xor	rax, rsp
	mov	QWORD PTR __$ArrayPad$[rsp], rax
	mov	ebx, edx

; 282  :     struct __tag_PARSER_STATE state;
; 283  :     InitializeParserState(&state, in_ptr, number_styles, format_option, int_part_buf, NULL);

	xor	edi, edi
	mov	QWORD PTR [rsp+40], rdi
	mov	QWORD PTR [rsp+32], r9
	mov	r9, r8
	mov	r8d, edx
	mov	rdx, rcx
	lea	rcx, QWORD PTR state$[rsp]
	call	InitializeParserState

; 284  :     if (number_styles & PMC_NUMBER_STYLE_ALLOW_LEADING_WHITE)

	test	bl, 1
	je	SHORT $LN38@ParseAsHex

; 106  :         switch (*state->IN_PTR)

	mov	rcx, QWORD PTR state$[rsp]
	movzx	eax, WORD PTR [rcx]
	cmp	eax, 9
	jb	SHORT $LN38@ParseAsHex
$LL7@ParseAsHex:
	cmp	eax, 13
	jbe	SHORT $LN12@ParseAsHex
	cmp	eax, 32					; 00000020H
	jne	SHORT $LN38@ParseAsHex
$LN12@ParseAsHex:

; 107  :         {
; 108  :         case L' ':
; 109  :         case L'\t':
; 110  :         case L'\n':
; 111  :         case L'\r':
; 112  :         case L'\f':
; 113  :         case L'\v':
; 114  :             break;
; 115  : 
; 116  :         default:
; 117  :             return;
; 118  :         }
; 119  :         state->IN_PTR += 1;

	add	rcx, 2
	mov	QWORD PTR state$[rsp], rcx
	movzx	eax, WORD PTR [rcx]
	cmp	eax, 9
	jae	SHORT $LL7@ParseAsHex
$LN38@ParseAsHex:

; 285  :         SkipSpace(&state);
; 286  :     ParseAsIntegerPartNumberSequence(&state);

	lea	rcx, QWORD PTR state$[rsp]
	call	ParseAsIntegerPartNumberSequence

; 287  :     if (number_styles & PMC_NUMBER_STYLE_ALLOW_TRAILING_WHITE)

	mov	rcx, QWORD PTR state$[rsp]
	test	bl, 2
	je	SHORT $LN30@ParseAsHex

; 106  :         switch (*state->IN_PTR)

	movzx	eax, WORD PTR [rcx]
	cmp	eax, 9
	jb	SHORT $LN30@ParseAsHex
	npad	7
$LL16@ParseAsHex:
	cmp	eax, 13
	jbe	SHORT $LN21@ParseAsHex
	cmp	eax, 32					; 00000020H
	jne	SHORT $LN30@ParseAsHex
$LN21@ParseAsHex:

; 107  :         {
; 108  :         case L' ':
; 109  :         case L'\t':
; 110  :         case L'\n':
; 111  :         case L'\r':
; 112  :         case L'\f':
; 113  :         case L'\v':
; 114  :             break;
; 115  : 
; 116  :         default:
; 117  :             return;
; 118  :         }
; 119  :         state->IN_PTR += 1;

	add	rcx, 2
	mov	QWORD PTR state$[rsp], rcx
	movzx	eax, WORD PTR [rcx]
	cmp	eax, 9
	jae	SHORT $LL16@ParseAsHex
$LN30@ParseAsHex:

; 288  :         SkipSpace(&state);
; 289  :     if (*state.IN_PTR != L'\0')

	cmp	WORD PTR [rcx], di
	je	SHORT $LN4@ParseAsHex

; 290  :         return (0);

	xor	eax, eax
	jmp	SHORT $LN1@ParseAsHex
$LN4@ParseAsHex:

; 96   :     *state->INT_PART_PTR = L'\0';

	mov	rax, QWORD PTR state$[rsp+72]
	mov	WORD PTR [rax], di

; 97   :     if (state->NUMBER_STYLES & PMC_NUMBER_STYLE_ALLOW_DECIMAL_POINT)

	test	BYTE PTR state$[rsp+8], 32		; 00000020H
	je	SHORT $LN25@ParseAsHex

; 98   :         *state->FRAC_PART_PTR = L'\0';

	mov	rax, QWORD PTR state$[rsp+80]
	mov	WORD PTR [rax], di
$LN25@ParseAsHex:

; 291  :     FinalizeParserState(&state);
; 292  :     return (1);

	mov	eax, 1
$LN1@ParseAsHex:

; 293  : }

	mov	rcx, QWORD PTR __$ArrayPad$[rsp]
	xor	rcx, rsp
	call	__security_check_cookie
	mov	rbx, QWORD PTR [rsp+176]
	add	rsp, 160				; 000000a0H
	pop	rdi
	ret	0
ParseAsHexNumberString ENDP
_TEXT	ENDS
; Function compile flags: /Ogtpy
; File z:\sources\lunor\repos\rougemeilland\palmtree.math.core.uint\palmtree.math.core.uint\pmc_parse.c
;	COMDAT ParseAsDecimalNumberString
_TEXT	SEGMENT
state$ = 48
__$ArrayPad$ = 144
in_ptr$ = 176
number_styles$ = 184
format_option$ = 192
sign$ = 200
int_part_buf$ = 208
frac_part_buf$ = 216
ParseAsDecimalNumberString PROC				; COMDAT

; 183  : {

	mov	QWORD PTR [rsp+8], rbx
	mov	QWORD PTR [rsp+16], rdi
	push	rbp
	lea	rbp, QWORD PTR [rsp-71]
	sub	rsp, 160				; 000000a0H
	mov	rax, QWORD PTR __security_cookie
	xor	rax, rsp
	mov	QWORD PTR __$ArrayPad$[rbp-89], rax

; 184  :     struct __tag_PARSER_STATE state;
; 185  :     InitializeParserState(&state, in_ptr, number_styles, format_option, int_part_buf, frac_part_buf);

	mov	rax, QWORD PTR frac_part_buf$[rbp-89]
	mov	rdi, r9
	mov	QWORD PTR [rsp+40], rax
	mov	r9, r8
	mov	rax, QWORD PTR int_part_buf$[rbp-89]
	mov	r8d, edx
	mov	ebx, edx
	mov	QWORD PTR [rsp+32], rax
	mov	rdx, rcx
	lea	rcx, QWORD PTR state$[rbp-89]
	call	InitializeParserState

; 186  :     if (number_styles & PMC_NUMBER_STYLE_ALLOW_LEADING_WHITE)

	mov	rcx, QWORD PTR state$[rbp-89]
	test	bl, 1
	je	SHORT $LN181@ParseAsDec

; 106  :         switch (*state->IN_PTR)

	movzx	eax, WORD PTR [rcx]
	cmp	eax, 9
	jb	SHORT $LN181@ParseAsDec
	npad	1
$LL33@ParseAsDec:
	cmp	eax, 13
	jbe	SHORT $LN38@ParseAsDec
	cmp	eax, 32					; 00000020H
	jne	SHORT $LN181@ParseAsDec
$LN38@ParseAsDec:

; 107  :         {
; 108  :         case L' ':
; 109  :         case L'\t':
; 110  :         case L'\n':
; 111  :         case L'\r':
; 112  :         case L'\f':
; 113  :         case L'\v':
; 114  :             break;
; 115  : 
; 116  :         default:
; 117  :             return;
; 118  :         }
; 119  :         state->IN_PTR += 1;

	add	rcx, 2
	mov	QWORD PTR state$[rbp-89], rcx
	movzx	eax, WORD PTR [rcx]
	cmp	eax, 9
	jae	SHORT $LL33@ParseAsDec
$LN181@ParseAsDec:

; 187  :         SkipSpace(&state);
; 188  :     if ((number_styles & PMC_NUMBER_STYLE_ALLOW_PARENTHESES) && *state.IN_PTR == L'(')

	test	bl, 16
	je	$LN3@ParseAsDec
	cmp	WORD PTR [rcx], 40			; 00000028H
	jne	$LN3@ParseAsDec

; 189  :     {
; 190  :         state.SIGN = -1;
; 191  :         state.IN_PTR += 1;

	add	rcx, 2
	mov	BYTE PTR state$[rbp-77], -1
	mov	QWORD PTR state$[rbp-89], rcx

; 192  :         if (*state.IN_PTR >= L'0' && *state.IN_PTR <= L'9')

	movzx	eax, WORD PTR [rcx]
	sub	ax, 48					; 00000030H
	cmp	ax, 9
	ja	SHORT $LN5@ParseAsDec

; 193  :             ParseAsIntegerPartNumberSequence(&state);

	lea	rcx, QWORD PTR state$[rbp-89]
	call	ParseAsIntegerPartNumberSequence
	mov	rcx, QWORD PTR state$[rbp-89]
$LN5@ParseAsDec:

; 194  :         if ((number_styles & PMC_NUMBER_STYLE_ALLOW_DECIMAL_POINT) && StartsWith(state.IN_PTR, state.DECIMAL_SEPARATOR))

	test	bl, 32					; 00000020H
	je	$LN275@ParseAsDec

; 56   :     while (*b != L'\0')

	movzx	edx, WORD PTR state$[rbp-53]

; 194  :         if ((number_styles & PMC_NUMBER_STYLE_ALLOW_DECIMAL_POINT) && StartsWith(state.IN_PTR, state.DECIMAL_SEPARATOR))

	lea	rax, QWORD PTR state$[rbp-53]

; 56   :     while (*b != L'\0')

	test	dx, dx
	je	SHORT $LN43@ParseAsDec
	lea	r9, QWORD PTR state$[rbp-53]
	mov	r8, rcx
	sub	r8, r9
$LL42@ParseAsDec:

; 57   :     {
; 58   :         if (*a != *b)

	cmp	WORD PTR [r8+rax], dx
	jne	$LN275@ParseAsDec

; 59   :             return (0);
; 60   :         ++a;
; 61   :         ++b;

	movzx	edx, WORD PTR [rax+2]
	add	rax, 2
	test	dx, dx
	jne	SHORT $LL42@ParseAsDec
$LN43@ParseAsDec:

; 195  :         {
; 196  :             state.IN_PTR += state.DECIMAL_SEPARATOR_LENGTH;

	movsxd	rax, DWORD PTR state$[rbp-45]
	mov	rdx, QWORD PTR state$[rbp-9]
	lea	rcx, QWORD PTR [rcx+rax*2]
$LN277@ParseAsDec:

; 158  :         if (*state->IN_PTR >= L'0' && *state->IN_PTR <= L'9')

	mov	QWORD PTR state$[rbp-89], rcx
	movzx	r8d, WORD PTR [rcx]
	lea	eax, DWORD PTR [r8-48]
	cmp	ax, 9
	ja	SHORT $LN50@ParseAsDec

; 159  :         {
; 160  :             *state->FRAC_PART_PTR = *state->IN_PTR;

	mov	WORD PTR [rdx], r8w

; 161  :             state->FRAC_PART_PTR += 1;

	mov	rdx, QWORD PTR state$[rbp-9]

; 162  :             state->IN_PTR += 1;

	mov	rcx, QWORD PTR state$[rbp-89]
	add	rdx, 2
	mov	QWORD PTR state$[rbp-9], rdx
	add	rcx, 2

; 163  :         }

	jmp	SHORT $LN277@ParseAsDec
$LN50@ParseAsDec:

; 164  :         else if (state->NUMBER_STYLES & PMC_NUMBER_STYLE_ALLOW_HEX_SPECIFIER && *state->IN_PTR >= L'a' && *state->IN_PTR <= L'f')

	mov	r9d, DWORD PTR state$[rbp-81]
	and	r9d, 512				; 00000200H
	je	SHORT $LN52@ParseAsDec
	lea	eax, DWORD PTR [r8-97]
	cmp	ax, 5
	ja	SHORT $LN52@ParseAsDec

; 165  :         {
; 166  :             *state->FRAC_PART_PTR = *state->IN_PTR;

	mov	WORD PTR [rdx], r8w

; 167  :             state->FRAC_PART_PTR += 1;

	mov	rdx, QWORD PTR state$[rbp-9]

; 168  :             state->IN_PTR += 1;

	mov	rcx, QWORD PTR state$[rbp-89]
	add	rdx, 2
	mov	QWORD PTR state$[rbp-9], rdx
	add	rcx, 2

; 169  :         }

	jmp	SHORT $LN277@ParseAsDec
$LN52@ParseAsDec:

; 170  :         else if (state->NUMBER_STYLES & PMC_NUMBER_STYLE_ALLOW_HEX_SPECIFIER && *state->IN_PTR >= L'A' && *state->IN_PTR <= L'F')

	test	r9d, r9d
	je	SHORT $LN275@ParseAsDec
	lea	eax, DWORD PTR [r8-65]
	cmp	ax, 5
	ja	SHORT $LN275@ParseAsDec

; 171  :         {
; 172  :             *state->FRAC_PART_PTR = *state->IN_PTR;

	mov	WORD PTR [rdx], r8w

; 173  :             state->FRAC_PART_PTR += 1;

	mov	rdx, QWORD PTR state$[rbp-9]

; 174  :             state->IN_PTR += 1;

	mov	rcx, QWORD PTR state$[rbp-89]
	add	rdx, 2
	mov	QWORD PTR state$[rbp-9], rdx
	add	rcx, 2

; 175  :         }
; 176  :         else
; 177  :             break;
; 178  :     }

	jmp	$LN277@ParseAsDec
$LN275@ParseAsDec:

; 197  :             ParseAsFractionPartNumberSequence(&state);
; 198  :         }
; 199  :         if (*state.IN_PTR != L')')

	cmp	WORD PTR [rcx], 41			; 00000029H
	jne	$LN23@ParseAsDec

; 200  :             return (0);
; 201  :         state.IN_PTR += 1;

	add	rcx, 2

; 202  :     }

	jmp	$LN278@ParseAsDec
$LN3@ParseAsDec:

; 203  :     else if ((number_styles & PMC_NUMBER_STYLE_ALLOW_LEADING_SIGN) && StartsWith(state.IN_PTR, state.POSITIVE_SIGN))

	test	bl, 4
	je	$LN12@ParseAsDec

; 56   :     while (*b != L'\0')

	movzx	edx, WORD PTR state$[rbp-75]

; 203  :     else if ((number_styles & PMC_NUMBER_STYLE_ALLOW_LEADING_SIGN) && StartsWith(state.IN_PTR, state.POSITIVE_SIGN))

	lea	rax, QWORD PTR state$[rbp-75]

; 56   :     while (*b != L'\0')

	test	dx, dx
	je	SHORT $LN59@ParseAsDec
	lea	r9, QWORD PTR state$[rbp-75]
	mov	r8, rcx
	sub	r8, r9
$LL58@ParseAsDec:

; 57   :     {
; 58   :         if (*a != *b)

	cmp	WORD PTR [r8+rax], dx
	jne	$LN8@ParseAsDec

; 59   :             return (0);
; 60   :         ++a;
; 61   :         ++b;

	movzx	edx, WORD PTR [rax+2]
	add	rax, 2
	test	dx, dx
	jne	SHORT $LL58@ParseAsDec
$LN59@ParseAsDec:

; 204  :     {
; 205  :         state.SIGN = 1;
; 206  :         state.IN_PTR += state.POSITIVE_SIGN_LENGTH;

	movsxd	rax, DWORD PTR state$[rbp-69]
	mov	BYTE PTR state$[rbp-77], 1
	lea	rcx, QWORD PTR [rcx+rax*2]
	mov	QWORD PTR state$[rbp-89], rcx

; 207  :         if (*state.IN_PTR >= L'0' && *state.IN_PTR <= L'9')

	movzx	eax, WORD PTR [rcx]
	sub	ax, 48					; 00000030H
	cmp	ax, 9
	ja	SHORT $LN10@ParseAsDec

; 208  :             ParseAsIntegerPartNumberSequence(&state);

	lea	rcx, QWORD PTR state$[rbp-89]
	call	ParseAsIntegerPartNumberSequence
	mov	rcx, QWORD PTR state$[rbp-89]
$LN10@ParseAsDec:

; 209  :         if ((number_styles & PMC_NUMBER_STYLE_ALLOW_DECIMAL_POINT) && StartsWith(state.IN_PTR, state.DECIMAL_SEPARATOR))

	test	bl, 32					; 00000020H
	je	$LN27@ParseAsDec

; 56   :     while (*b != L'\0')

	movzx	edx, WORD PTR state$[rbp-53]

; 209  :         if ((number_styles & PMC_NUMBER_STYLE_ALLOW_DECIMAL_POINT) && StartsWith(state.IN_PTR, state.DECIMAL_SEPARATOR))

	lea	rax, QWORD PTR state$[rbp-53]

; 56   :     while (*b != L'\0')

	test	dx, dx
	je	SHORT $LN64@ParseAsDec
	lea	r9, QWORD PTR state$[rbp-53]
	mov	r8, rcx
	sub	r8, r9
$LL63@ParseAsDec:

; 57   :     {
; 58   :         if (*a != *b)

	cmp	WORD PTR [r8+rax], dx
	jne	$LN27@ParseAsDec

; 59   :             return (0);
; 60   :         ++a;
; 61   :         ++b;

	movzx	edx, WORD PTR [rax+2]
	add	rax, 2
	test	dx, dx
	jne	SHORT $LL63@ParseAsDec
$LN64@ParseAsDec:

; 210  :         {
; 211  :             state.IN_PTR += state.DECIMAL_SEPARATOR_LENGTH;

	movsxd	rax, DWORD PTR state$[rbp-45]
	mov	rdx, QWORD PTR state$[rbp-9]
	lea	rcx, QWORD PTR [rcx+rax*2]
$LN280@ParseAsDec:

; 158  :         if (*state->IN_PTR >= L'0' && *state->IN_PTR <= L'9')

	mov	QWORD PTR state$[rbp-89], rcx
	movzx	r8d, WORD PTR [rcx]
	lea	eax, DWORD PTR [r8-48]
	cmp	ax, 9
	ja	$LN71@ParseAsDec

; 159  :         {
; 160  :             *state->FRAC_PART_PTR = *state->IN_PTR;

	mov	WORD PTR [rdx], r8w

; 161  :             state->FRAC_PART_PTR += 1;

	mov	rdx, QWORD PTR state$[rbp-9]

; 162  :             state->IN_PTR += 1;

	mov	rcx, QWORD PTR state$[rbp-89]
	add	rdx, 2
	mov	QWORD PTR state$[rbp-9], rdx
	add	rcx, 2

; 163  :         }

	jmp	SHORT $LN280@ParseAsDec
$LN8@ParseAsDec:

; 56   :     while (*b != L'\0')

	movzx	edx, WORD PTR state$[rbp-65]

; 212  :             ParseAsFractionPartNumberSequence(&state);
; 213  :         }
; 214  :     }
; 215  :     else if ((number_styles & PMC_NUMBER_STYLE_ALLOW_LEADING_SIGN) && StartsWith(state.IN_PTR, state.NEGATIVE_SIGN))

	lea	rax, QWORD PTR state$[rbp-65]

; 56   :     while (*b != L'\0')

	test	dx, dx
	je	SHORT $LN80@ParseAsDec
	lea	r9, QWORD PTR state$[rbp-65]
	mov	r8, rcx
	sub	r8, r9
$LL79@ParseAsDec:

; 57   :     {
; 58   :         if (*a != *b)

	cmp	WORD PTR [r8+rax], dx
	jne	$LN12@ParseAsDec

; 59   :             return (0);
; 60   :         ++a;
; 61   :         ++b;

	movzx	edx, WORD PTR [rax+2]
	add	rax, 2
	test	dx, dx
	jne	SHORT $LL79@ParseAsDec
$LN80@ParseAsDec:

; 216  :     {
; 217  :         state.SIGN = -1;
; 218  :         state.IN_PTR += state.NEGATIVE_SIGN_LENGTH;

	movsxd	rax, DWORD PTR state$[rbp-57]
	mov	BYTE PTR state$[rbp-77], -1
	lea	rcx, QWORD PTR [rcx+rax*2]
	mov	QWORD PTR state$[rbp-89], rcx

; 219  :         if (*state.IN_PTR >= L'0' && *state.IN_PTR <= L'9')

	movzx	eax, WORD PTR [rcx]
	sub	ax, 48					; 00000030H
	cmp	ax, 9
	ja	SHORT $LN14@ParseAsDec

; 220  :             ParseAsIntegerPartNumberSequence(&state);

	lea	rcx, QWORD PTR state$[rbp-89]
	call	ParseAsIntegerPartNumberSequence
	mov	rcx, QWORD PTR state$[rbp-89]
$LN14@ParseAsDec:

; 221  :         if ((number_styles & PMC_NUMBER_STYLE_ALLOW_DECIMAL_POINT) && StartsWith(state.IN_PTR, state.DECIMAL_SEPARATOR))

	test	bl, 32					; 00000020H
	je	$LN27@ParseAsDec

; 56   :     while (*b != L'\0')

	movzx	edx, WORD PTR state$[rbp-53]

; 221  :         if ((number_styles & PMC_NUMBER_STYLE_ALLOW_DECIMAL_POINT) && StartsWith(state.IN_PTR, state.DECIMAL_SEPARATOR))

	lea	rax, QWORD PTR state$[rbp-53]

; 56   :     while (*b != L'\0')

	test	dx, dx
	je	SHORT $LN85@ParseAsDec
	lea	r9, QWORD PTR state$[rbp-53]
	mov	r8, rcx
	sub	r8, r9
$LL84@ParseAsDec:

; 57   :     {
; 58   :         if (*a != *b)

	cmp	WORD PTR [r8+rax], dx
	jne	$LN27@ParseAsDec

; 59   :             return (0);
; 60   :         ++a;
; 61   :         ++b;

	movzx	edx, WORD PTR [rax+2]
	add	rax, 2
	test	dx, dx
	jne	SHORT $LL84@ParseAsDec
$LN85@ParseAsDec:

; 222  :         {
; 223  :             state.IN_PTR += state.DECIMAL_SEPARATOR_LENGTH;

	movsxd	rax, DWORD PTR state$[rbp-45]
	mov	rdx, QWORD PTR state$[rbp-9]
	lea	rcx, QWORD PTR [rcx+rax*2]
$LN279@ParseAsDec:

; 158  :         if (*state->IN_PTR >= L'0' && *state->IN_PTR <= L'9')

	mov	QWORD PTR state$[rbp-89], rcx
	movzx	r8d, WORD PTR [rcx]
	lea	eax, DWORD PTR [r8-48]
	cmp	ax, 9
	ja	SHORT $LN92@ParseAsDec

; 159  :         {
; 160  :             *state->FRAC_PART_PTR = *state->IN_PTR;

	mov	WORD PTR [rdx], r8w

; 161  :             state->FRAC_PART_PTR += 1;

	mov	rdx, QWORD PTR state$[rbp-9]

; 162  :             state->IN_PTR += 1;

	mov	rcx, QWORD PTR state$[rbp-89]
	add	rdx, 2
	mov	QWORD PTR state$[rbp-9], rdx
	add	rcx, 2

; 163  :         }

	jmp	SHORT $LN279@ParseAsDec
$LN92@ParseAsDec:

; 164  :         else if (state->NUMBER_STYLES & PMC_NUMBER_STYLE_ALLOW_HEX_SPECIFIER && *state->IN_PTR >= L'a' && *state->IN_PTR <= L'f')

	mov	r9d, DWORD PTR state$[rbp-81]
	and	r9d, 512				; 00000200H
	je	SHORT $LN94@ParseAsDec
	lea	eax, DWORD PTR [r8-97]
	cmp	ax, 5
	ja	SHORT $LN94@ParseAsDec

; 165  :         {
; 166  :             *state->FRAC_PART_PTR = *state->IN_PTR;

	mov	WORD PTR [rdx], r8w

; 167  :             state->FRAC_PART_PTR += 1;

	mov	rdx, QWORD PTR state$[rbp-9]

; 168  :             state->IN_PTR += 1;

	mov	rcx, QWORD PTR state$[rbp-89]
	add	rdx, 2
	mov	QWORD PTR state$[rbp-9], rdx
	add	rcx, 2

; 169  :         }

	jmp	SHORT $LN279@ParseAsDec
$LN94@ParseAsDec:

; 170  :         else if (state->NUMBER_STYLES & PMC_NUMBER_STYLE_ALLOW_HEX_SPECIFIER && *state->IN_PTR >= L'A' && *state->IN_PTR <= L'F')

	test	r9d, r9d
	je	$LN27@ParseAsDec
	lea	eax, DWORD PTR [r8-65]
	cmp	ax, 5
	ja	$LN27@ParseAsDec

; 171  :         {
; 172  :             *state->FRAC_PART_PTR = *state->IN_PTR;

	mov	WORD PTR [rdx], r8w

; 173  :             state->FRAC_PART_PTR += 1;

	mov	rdx, QWORD PTR state$[rbp-9]

; 174  :             state->IN_PTR += 1;

	mov	rcx, QWORD PTR state$[rbp-89]
	add	rdx, 2
	mov	QWORD PTR state$[rbp-9], rdx
	add	rcx, 2

; 175  :         }
; 176  :         else
; 177  :             break;
; 178  :     }

	jmp	$LN279@ParseAsDec
$LN71@ParseAsDec:

; 164  :         else if (state->NUMBER_STYLES & PMC_NUMBER_STYLE_ALLOW_HEX_SPECIFIER && *state->IN_PTR >= L'a' && *state->IN_PTR <= L'f')

	mov	r9d, DWORD PTR state$[rbp-81]
	and	r9d, 512				; 00000200H
	je	SHORT $LN73@ParseAsDec
	lea	eax, DWORD PTR [r8-97]
	cmp	ax, 5
	ja	SHORT $LN73@ParseAsDec

; 165  :         {
; 166  :             *state->FRAC_PART_PTR = *state->IN_PTR;

	mov	WORD PTR [rdx], r8w

; 167  :             state->FRAC_PART_PTR += 1;

	mov	rdx, QWORD PTR state$[rbp-9]

; 168  :             state->IN_PTR += 1;

	mov	rcx, QWORD PTR state$[rbp-89]
	add	rdx, 2
	mov	QWORD PTR state$[rbp-9], rdx
	add	rcx, 2

; 169  :         }

	jmp	$LN280@ParseAsDec
$LN73@ParseAsDec:

; 170  :         else if (state->NUMBER_STYLES & PMC_NUMBER_STYLE_ALLOW_HEX_SPECIFIER && *state->IN_PTR >= L'A' && *state->IN_PTR <= L'F')

	test	r9d, r9d
	je	$LN27@ParseAsDec
	lea	eax, DWORD PTR [r8-65]
	cmp	ax, 5
	ja	$LN27@ParseAsDec

; 171  :         {
; 172  :             *state->FRAC_PART_PTR = *state->IN_PTR;

	mov	WORD PTR [rdx], r8w

; 173  :             state->FRAC_PART_PTR += 1;

	mov	rdx, QWORD PTR state$[rbp-9]

; 174  :             state->IN_PTR += 1;

	mov	rcx, QWORD PTR state$[rbp-89]
	add	rdx, 2
	mov	QWORD PTR state$[rbp-9], rdx
	add	rcx, 2

; 175  :         }
; 176  :         else
; 177  :             break;
; 178  :     }

	jmp	$LN280@ParseAsDec
$LN12@ParseAsDec:

; 224  :             ParseAsFractionPartNumberSequence(&state);
; 225  :         }
; 226  :     }
; 227  :     else if (*state.IN_PTR >= L'0' && *state.IN_PTR <= L'9')

	movzx	eax, WORD PTR [rcx]
	sub	ax, 48					; 00000030H
	cmp	ax, 9
	ja	$LN16@ParseAsDec

; 228  :     {
; 229  :         ParseAsIntegerPartNumberSequence(&state);

	lea	rcx, QWORD PTR state$[rbp-89]
	call	ParseAsIntegerPartNumberSequence

; 230  :         if ((number_styles & PMC_NUMBER_STYLE_ALLOW_DECIMAL_POINT) && StartsWith(state.IN_PTR, state.DECIMAL_SEPARATOR))

	mov	rcx, QWORD PTR state$[rbp-89]
	test	bl, 32					; 00000020H
	je	$LN112@ParseAsDec

; 56   :     while (*b != L'\0')

	movzx	edx, WORD PTR state$[rbp-53]

; 230  :         if ((number_styles & PMC_NUMBER_STYLE_ALLOW_DECIMAL_POINT) && StartsWith(state.IN_PTR, state.DECIMAL_SEPARATOR))

	lea	rax, QWORD PTR state$[rbp-53]

; 56   :     while (*b != L'\0')

	test	dx, dx
	je	SHORT $LN101@ParseAsDec
	lea	r9, QWORD PTR state$[rbp-53]
	mov	r8, rcx
	sub	r8, r9
	npad	3
$LL100@ParseAsDec:

; 57   :     {
; 58   :         if (*a != *b)

	cmp	WORD PTR [r8+rax], dx
	jne	$LN112@ParseAsDec

; 59   :             return (0);
; 60   :         ++a;
; 61   :         ++b;

	movzx	edx, WORD PTR [rax+2]
	add	rax, 2
	test	dx, dx
	jne	SHORT $LL100@ParseAsDec
$LN101@ParseAsDec:

; 231  :         {
; 232  :             state.IN_PTR += state.DECIMAL_SEPARATOR_LENGTH;

	movsxd	rax, DWORD PTR state$[rbp-45]
	mov	rdx, QWORD PTR state$[rbp-9]
	lea	rcx, QWORD PTR [rcx+rax*2]
$LN281@ParseAsDec:

; 158  :         if (*state->IN_PTR >= L'0' && *state->IN_PTR <= L'9')

	mov	QWORD PTR state$[rbp-89], rcx
	movzx	r8d, WORD PTR [rcx]
	lea	eax, DWORD PTR [r8-48]
	cmp	ax, 9
	ja	SHORT $LN108@ParseAsDec

; 159  :         {
; 160  :             *state->FRAC_PART_PTR = *state->IN_PTR;

	mov	WORD PTR [rdx], r8w

; 161  :             state->FRAC_PART_PTR += 1;

	mov	rdx, QWORD PTR state$[rbp-9]

; 162  :             state->IN_PTR += 1;

	mov	rcx, QWORD PTR state$[rbp-89]
	add	rdx, 2
	mov	QWORD PTR state$[rbp-9], rdx
	add	rcx, 2

; 163  :         }

	jmp	SHORT $LN281@ParseAsDec
$LN108@ParseAsDec:

; 164  :         else if (state->NUMBER_STYLES & PMC_NUMBER_STYLE_ALLOW_HEX_SPECIFIER && *state->IN_PTR >= L'a' && *state->IN_PTR <= L'f')

	mov	r9d, DWORD PTR state$[rbp-81]
	and	r9d, 512				; 00000200H
	je	SHORT $LN110@ParseAsDec
	lea	eax, DWORD PTR [r8-97]
	cmp	ax, 5
	ja	SHORT $LN110@ParseAsDec

; 165  :         {
; 166  :             *state->FRAC_PART_PTR = *state->IN_PTR;

	mov	WORD PTR [rdx], r8w

; 167  :             state->FRAC_PART_PTR += 1;

	mov	rdx, QWORD PTR state$[rbp-9]

; 168  :             state->IN_PTR += 1;

	mov	rcx, QWORD PTR state$[rbp-89]
	add	rdx, 2
	mov	QWORD PTR state$[rbp-9], rdx
	add	rcx, 2

; 169  :         }

	jmp	SHORT $LN281@ParseAsDec
$LN110@ParseAsDec:

; 170  :         else if (state->NUMBER_STYLES & PMC_NUMBER_STYLE_ALLOW_HEX_SPECIFIER && *state->IN_PTR >= L'A' && *state->IN_PTR <= L'F')

	test	r9d, r9d
	je	SHORT $LN112@ParseAsDec
	lea	eax, DWORD PTR [r8-65]
	cmp	ax, 5
	ja	SHORT $LN112@ParseAsDec

; 171  :         {
; 172  :             *state->FRAC_PART_PTR = *state->IN_PTR;

	mov	WORD PTR [rdx], r8w

; 173  :             state->FRAC_PART_PTR += 1;

	mov	rdx, QWORD PTR state$[rbp-9]

; 174  :             state->IN_PTR += 1;

	mov	rcx, QWORD PTR state$[rbp-89]
	add	rdx, 2
	mov	QWORD PTR state$[rbp-9], rdx
	add	rcx, 2

; 175  :         }
; 176  :         else
; 177  :             break;
; 178  :     }

	jmp	$LN281@ParseAsDec
$LN112@ParseAsDec:

; 233  :             ParseAsFractionPartNumberSequence(&state);
; 234  :         }
; 235  :         if ((number_styles & PMC_NUMBER_STYLE_ALLOW_TRAILING_SIGN) && StartsWith(state.IN_PTR, state.POSITIVE_SIGN))

	test	bl, 8
	je	SHORT $LN27@ParseAsDec

; 56   :     while (*b != L'\0')

	movzx	edx, WORD PTR state$[rbp-75]

; 233  :             ParseAsFractionPartNumberSequence(&state);
; 234  :         }
; 235  :         if ((number_styles & PMC_NUMBER_STYLE_ALLOW_TRAILING_SIGN) && StartsWith(state.IN_PTR, state.POSITIVE_SIGN))

	lea	rax, QWORD PTR state$[rbp-75]

; 56   :     while (*b != L'\0')

	test	dx, dx
	je	SHORT $LN143@ParseAsDec
	lea	r9, QWORD PTR state$[rbp-75]
	mov	r8, rcx
	sub	r8, r9
	npad	7
$LL116@ParseAsDec:

; 57   :     {
; 58   :         if (*a != *b)

	cmp	WORD PTR [r8+rax], dx
	jne	$LN19@ParseAsDec

; 59   :             return (0);
; 60   :         ++a;
; 61   :         ++b;

	movzx	edx, WORD PTR [rax+2]
	add	rax, 2
	test	dx, dx
	jne	SHORT $LL116@ParseAsDec
$LN143@ParseAsDec:

; 269  :     if (number_styles & PMC_NUMBER_STYLE_ALLOW_TRAILING_WHITE)

	movsxd	rax, DWORD PTR state$[rbp-69]
	mov	BYTE PTR state$[rbp-77], 1
$LN282@ParseAsDec:
	lea	rcx, QWORD PTR [rcx+rax*2]
$LN278@ParseAsDec:
	mov	QWORD PTR state$[rbp-89], rcx
$LN27@ParseAsDec:
	test	bl, 2
	je	SHORT $LN276@ParseAsDec

; 106  :         switch (*state->IN_PTR)

	movzx	eax, WORD PTR [rcx]
	cmp	eax, 9
	jb	SHORT $LN276@ParseAsDec
$LL152@ParseAsDec:
	cmp	eax, 13
	jbe	SHORT $LN157@ParseAsDec
	cmp	eax, 32					; 00000020H
	jne	SHORT $LN276@ParseAsDec
$LN157@ParseAsDec:

; 107  :         {
; 108  :         case L' ':
; 109  :         case L'\t':
; 110  :         case L'\n':
; 111  :         case L'\r':
; 112  :         case L'\f':
; 113  :         case L'\v':
; 114  :             break;
; 115  : 
; 116  :         default:
; 117  :             return;
; 118  :         }
; 119  :         state->IN_PTR += 1;

	add	rcx, 2
	mov	QWORD PTR state$[rbp-89], rcx
	movzx	eax, WORD PTR [rcx]
	cmp	eax, 9
	jae	SHORT $LL152@ParseAsDec
$LN276@ParseAsDec:

; 270  :         SkipSpace(&state);
; 271  :     if (*state.IN_PTR != L'\0')

	cmp	WORD PTR [rcx], 0
	jne	$LN23@ParseAsDec

; 96   :     *state->INT_PART_PTR = L'\0';

	mov	rax, QWORD PTR state$[rbp-17]
	xor	ecx, ecx
	mov	WORD PTR [rax], cx

; 97   :     if (state->NUMBER_STYLES & PMC_NUMBER_STYLE_ALLOW_DECIMAL_POINT)

	test	BYTE PTR state$[rbp-81], 32		; 00000020H
	je	SHORT $LN161@ParseAsDec

; 98   :         *state->FRAC_PART_PTR = L'\0';

	mov	rax, QWORD PTR state$[rbp-9]
	mov	WORD PTR [rax], cx
$LN161@ParseAsDec:

; 272  :         return (0);
; 273  :     FinalizeParserState(&state);
; 274  :     // 明示的に負の符号が与えられていた場合は負数、そうではない場合は正数とみなす
; 275  :     *sign = state.SIGN < 0 ? -1 : 1;

	cmp	BYTE PTR state$[rbp-77], 0
	mov	ecx, 1
	mov	edx, -1					; ffffffffH

; 276  :     return (1);

	mov	eax, 1
	cmovl	ecx, edx
	mov	BYTE PTR [rdi], cl
	jmp	$LN1@ParseAsDec
$LN19@ParseAsDec:

; 56   :     while (*b != L'\0')

	movzx	edx, WORD PTR state$[rbp-65]

; 236  :         {
; 237  :             state.SIGN = 1;
; 238  :             state.IN_PTR += state.POSITIVE_SIGN_LENGTH;
; 239  :         }
; 240  :         else if ((number_styles & PMC_NUMBER_STYLE_ALLOW_TRAILING_SIGN) && StartsWith(state.IN_PTR, state.NEGATIVE_SIGN))

	lea	rax, QWORD PTR state$[rbp-65]

; 56   :     while (*b != L'\0')

	test	dx, dx
	je	SHORT $LN122@ParseAsDec
	lea	r9, QWORD PTR state$[rbp-65]
	mov	r8, rcx
	sub	r8, r9
$LL121@ParseAsDec:

; 57   :     {
; 58   :         if (*a != *b)

	cmp	WORD PTR [r8+rax], dx
	jne	$LN27@ParseAsDec

; 59   :             return (0);
; 60   :         ++a;
; 61   :         ++b;

	movzx	edx, WORD PTR [rax+2]
	add	rax, 2
	test	dx, dx
	jne	SHORT $LL121@ParseAsDec
$LN122@ParseAsDec:

; 241  :         {
; 242  :             state.SIGN = -1;
; 243  :             state.IN_PTR += state.NEGATIVE_SIGN_LENGTH;

	movsxd	rax, DWORD PTR state$[rbp-57]
	mov	BYTE PTR state$[rbp-77], -1

; 244  :         }
; 245  :         else
; 246  :         {
; 247  :         }
; 248  :     }

	jmp	$LN282@ParseAsDec
$LN16@ParseAsDec:

; 249  :     else if ((number_styles & PMC_NUMBER_STYLE_ALLOW_DECIMAL_POINT) && StartsWith(state.IN_PTR, state.DECIMAL_SEPARATOR))

	test	bl, 32					; 00000020H
	je	$LN23@ParseAsDec

; 56   :     while (*b != L'\0')

	movzx	edx, WORD PTR state$[rbp-53]

; 249  :     else if ((number_styles & PMC_NUMBER_STYLE_ALLOW_DECIMAL_POINT) && StartsWith(state.IN_PTR, state.DECIMAL_SEPARATOR))

	lea	rax, QWORD PTR state$[rbp-53]

; 56   :     while (*b != L'\0')

	test	dx, dx
	je	SHORT $LN127@ParseAsDec
	lea	r9, QWORD PTR state$[rbp-53]
	mov	r8, rcx
	sub	r8, r9
	npad	8
$LL126@ParseAsDec:

; 57   :     {
; 58   :         if (*a != *b)

	cmp	WORD PTR [r8+rax], dx
	jne	$LN23@ParseAsDec

; 59   :             return (0);
; 60   :         ++a;
; 61   :         ++b;

	movzx	edx, WORD PTR [rax+2]
	add	rax, 2
	test	dx, dx
	jne	SHORT $LL126@ParseAsDec
$LN127@ParseAsDec:

; 250  :     {
; 251  :         state.IN_PTR += state.DECIMAL_SEPARATOR_LENGTH;

	movsxd	rax, DWORD PTR state$[rbp-45]
	mov	rdx, QWORD PTR state$[rbp-9]
	lea	rcx, QWORD PTR [rcx+rax*2]
$LN283@ParseAsDec:

; 158  :         if (*state->IN_PTR >= L'0' && *state->IN_PTR <= L'9')

	mov	QWORD PTR state$[rbp-89], rcx
	movzx	r8d, WORD PTR [rcx]
	lea	eax, DWORD PTR [r8-48]
	cmp	ax, 9
	ja	SHORT $LN134@ParseAsDec

; 159  :         {
; 160  :             *state->FRAC_PART_PTR = *state->IN_PTR;

	mov	WORD PTR [rdx], r8w

; 161  :             state->FRAC_PART_PTR += 1;

	mov	rdx, QWORD PTR state$[rbp-9]

; 162  :             state->IN_PTR += 1;

	mov	rcx, QWORD PTR state$[rbp-89]
	add	rdx, 2
	mov	QWORD PTR state$[rbp-9], rdx
	add	rcx, 2

; 163  :         }

	jmp	SHORT $LN283@ParseAsDec
$LN134@ParseAsDec:

; 164  :         else if (state->NUMBER_STYLES & PMC_NUMBER_STYLE_ALLOW_HEX_SPECIFIER && *state->IN_PTR >= L'a' && *state->IN_PTR <= L'f')

	mov	r9d, DWORD PTR state$[rbp-81]
	and	r9d, 512				; 00000200H
	je	SHORT $LN136@ParseAsDec
	lea	eax, DWORD PTR [r8-97]
	cmp	ax, 5
	ja	SHORT $LN136@ParseAsDec

; 165  :         {
; 166  :             *state->FRAC_PART_PTR = *state->IN_PTR;

	mov	WORD PTR [rdx], r8w

; 167  :             state->FRAC_PART_PTR += 1;

	mov	rdx, QWORD PTR state$[rbp-9]

; 168  :             state->IN_PTR += 1;

	mov	rcx, QWORD PTR state$[rbp-89]
	add	rdx, 2
	mov	QWORD PTR state$[rbp-9], rdx
	add	rcx, 2

; 169  :         }

	jmp	SHORT $LN283@ParseAsDec
$LN136@ParseAsDec:

; 170  :         else if (state->NUMBER_STYLES & PMC_NUMBER_STYLE_ALLOW_HEX_SPECIFIER && *state->IN_PTR >= L'A' && *state->IN_PTR <= L'F')

	test	r9d, r9d
	je	SHORT $LN138@ParseAsDec
	lea	eax, DWORD PTR [r8-65]
	cmp	ax, 5
	ja	SHORT $LN138@ParseAsDec

; 171  :         {
; 172  :             *state->FRAC_PART_PTR = *state->IN_PTR;

	mov	WORD PTR [rdx], r8w

; 173  :             state->FRAC_PART_PTR += 1;

	mov	rdx, QWORD PTR state$[rbp-9]

; 174  :             state->IN_PTR += 1;

	mov	rcx, QWORD PTR state$[rbp-89]
	add	rdx, 2
	mov	QWORD PTR state$[rbp-9], rdx
	add	rcx, 2

; 175  :         }
; 176  :         else
; 177  :             break;
; 178  :     }

	jmp	$LN283@ParseAsDec
$LN138@ParseAsDec:

; 252  :         ParseAsFractionPartNumberSequence(&state);
; 253  :         if ((number_styles & PMC_NUMBER_STYLE_ALLOW_TRAILING_SIGN) && StartsWith(state.IN_PTR, state.POSITIVE_SIGN))

	test	bl, 8
	je	$LN27@ParseAsDec

; 56   :     while (*b != L'\0')

	movzx	edx, WORD PTR state$[rbp-75]

; 252  :         ParseAsFractionPartNumberSequence(&state);
; 253  :         if ((number_styles & PMC_NUMBER_STYLE_ALLOW_TRAILING_SIGN) && StartsWith(state.IN_PTR, state.POSITIVE_SIGN))

	lea	rax, QWORD PTR state$[rbp-75]

; 56   :     while (*b != L'\0')

	test	dx, dx
	je	$LN143@ParseAsDec
	lea	r9, QWORD PTR state$[rbp-75]
	mov	r8, rcx
	sub	r8, r9
$LL142@ParseAsDec:

; 57   :     {
; 58   :         if (*a != *b)

	cmp	WORD PTR [r8+rax], dx
	jne	SHORT $LN25@ParseAsDec

; 59   :             return (0);
; 60   :         ++a;
; 61   :         ++b;

	movzx	edx, WORD PTR [rax+2]
	add	rax, 2
	test	dx, dx
	jne	SHORT $LL142@ParseAsDec

; 56   :     while (*b != L'\0')

	jmp	$LN143@ParseAsDec
$LN25@ParseAsDec:
	movzx	edx, WORD PTR state$[rbp-65]

; 254  :         {
; 255  :             state.SIGN = 1;
; 256  :             state.IN_PTR += state.POSITIVE_SIGN_LENGTH;
; 257  :         }
; 258  :         else if ((number_styles & PMC_NUMBER_STYLE_ALLOW_TRAILING_SIGN) && StartsWith(state.IN_PTR, state.NEGATIVE_SIGN))

	lea	rax, QWORD PTR state$[rbp-65]

; 56   :     while (*b != L'\0')

	test	dx, dx
	je	$LN122@ParseAsDec
	lea	r9, QWORD PTR state$[rbp-65]
	mov	r8, rcx
	sub	r8, r9
$LL147@ParseAsDec:

; 57   :     {
; 58   :         if (*a != *b)

	cmp	WORD PTR [r8+rax], dx
	jne	$LN27@ParseAsDec

; 59   :             return (0);
; 60   :         ++a;
; 61   :         ++b;

	movzx	edx, WORD PTR [rax+2]
	add	rax, 2
	test	dx, dx
	jne	SHORT $LL147@ParseAsDec

; 259  :         {
; 260  :             state.SIGN = -1;

	movsxd	rax, DWORD PTR state$[rbp-57]
	mov	BYTE PTR state$[rbp-77], -1

; 261  :             state.IN_PTR += state.NEGATIVE_SIGN_LENGTH;

	jmp	$LN282@ParseAsDec
$LN23@ParseAsDec:

; 262  :         }
; 263  :         else
; 264  :         {
; 265  :         }
; 266  :     }
; 267  :     else
; 268  :         return (0);

	xor	eax, eax
$LN1@ParseAsDec:

; 277  : }

	mov	rcx, QWORD PTR __$ArrayPad$[rbp-89]
	xor	rcx, rsp
	call	__security_check_cookie
	lea	r11, QWORD PTR [rsp+160]
	mov	rbx, QWORD PTR [r11+16]
	mov	rdi, QWORD PTR [r11+24]
	mov	rsp, r11
	pop	rbp
	ret	0
ParseAsDecimalNumberString ENDP
_TEXT	ENDS
; Function compile flags: /Ogtpy
; File z:\sources\lunor\repos\rougemeilland\palmtree.math.core.uint\palmtree.math.core.uint\pmc_parse.c
;	COMDAT ParseAsFractionPartNumberSequence
_TEXT	SEGMENT
state$ = 8
ParseAsFractionPartNumberSequence PROC			; COMDAT

; 155  : {

	npad	2
$LN19@ParseAsFra:

; 156  :     for (;;)
; 157  :     {
; 158  :         if (*state->IN_PTR >= L'0' && *state->IN_PTR <= L'9')

	mov	rax, QWORD PTR [rcx]
	movzx	edx, WORD PTR [rax]
	lea	eax, DWORD PTR [rdx-48]
	cmp	ax, 9
	jbe	SHORT $LN18@ParseAsFra

; 159  :         {
; 160  :             *state->FRAC_PART_PTR = *state->IN_PTR;
; 161  :             state->FRAC_PART_PTR += 1;
; 162  :             state->IN_PTR += 1;
; 163  :         }
; 164  :         else if (state->NUMBER_STYLES & PMC_NUMBER_STYLE_ALLOW_HEX_SPECIFIER && *state->IN_PTR >= L'a' && *state->IN_PTR <= L'f')

	test	DWORD PTR [rcx+8], 512			; 00000200H
	je	SHORT $LN9@ParseAsFra
	lea	eax, DWORD PTR [rdx-97]
	cmp	ax, 5
	jbe	SHORT $LN18@ParseAsFra

; 165  :         {
; 166  :             *state->FRAC_PART_PTR = *state->IN_PTR;
; 167  :             state->FRAC_PART_PTR += 1;
; 168  :             state->IN_PTR += 1;
; 169  :         }
; 170  :         else if (state->NUMBER_STYLES & PMC_NUMBER_STYLE_ALLOW_HEX_SPECIFIER && *state->IN_PTR >= L'A' && *state->IN_PTR <= L'F')

	lea	eax, DWORD PTR [rdx-65]
	cmp	ax, 5
	ja	SHORT $LN9@ParseAsFra
$LN18@ParseAsFra:

; 156  :     for (;;)
; 157  :     {
; 158  :         if (*state->IN_PTR >= L'0' && *state->IN_PTR <= L'9')

	mov	rax, QWORD PTR [rcx+80]
	mov	WORD PTR [rax], dx
	add	QWORD PTR [rcx+80], 2
	add	QWORD PTR [rcx], 2
	jmp	SHORT $LN19@ParseAsFra
$LN9@ParseAsFra:

; 171  :         {
; 172  :             *state->FRAC_PART_PTR = *state->IN_PTR;
; 173  :             state->FRAC_PART_PTR += 1;
; 174  :             state->IN_PTR += 1;
; 175  :         }
; 176  :         else
; 177  :             break;
; 178  :     }
; 179  : }

	ret	0
ParseAsFractionPartNumberSequence ENDP
_TEXT	ENDS
; Function compile flags: /Ogtpy
; File z:\sources\lunor\repos\rougemeilland\palmtree.math.core.uint\palmtree.math.core.uint\pmc_parse.c
;	COMDAT ParseAsIntegerPartNumberSequence
_TEXT	SEGMENT
state$ = 8
ParseAsIntegerPartNumberSequence PROC			; COMDAT

; 124  : {

	npad	2
$LN47@ParseAsInt:

; 125  :     for (;;)
; 126  :     {
; 127  :         if (*state->IN_PTR >= L'0' && *state->IN_PTR <= L'9')

	mov	r8, QWORD PTR [rcx]
	movzx	edx, WORD PTR [r8]
	lea	eax, DWORD PTR [rdx-48]
	cmp	ax, 9
	jbe	SHORT $LN45@ParseAsInt

; 128  :         {
; 129  :             *state->INT_PART_PTR = *state->IN_PTR;
; 130  :             state->INT_PART_PTR += 1;
; 131  :             state->IN_PTR += 1;
; 132  :         }
; 133  :         else if (state->NUMBER_STYLES & PMC_NUMBER_STYLE_ALLOW_HEX_SPECIFIER && *state->IN_PTR >= L'a' && *state->IN_PTR <= L'f')

	mov	r9d, DWORD PTR [rcx+8]
	bt	r9d, 9
	jae	SHORT $LN9@ParseAsInt
	lea	eax, DWORD PTR [rdx-97]
	cmp	ax, 5
	jbe	SHORT $LN45@ParseAsInt

; 134  :         {
; 135  :             *state->INT_PART_PTR = *state->IN_PTR;
; 136  :             state->INT_PART_PTR += 1;
; 137  :             state->IN_PTR += 1;
; 138  :         }
; 139  :         else if (state->NUMBER_STYLES & PMC_NUMBER_STYLE_ALLOW_HEX_SPECIFIER && *state->IN_PTR >= L'A' && *state->IN_PTR <= L'F')

	lea	eax, DWORD PTR [rdx-65]
	cmp	ax, 5
	ja	SHORT $LN9@ParseAsInt
$LN45@ParseAsInt:

; 125  :     for (;;)
; 126  :     {
; 127  :         if (*state->IN_PTR >= L'0' && *state->IN_PTR <= L'9')

	mov	rax, QWORD PTR [rcx+72]
	mov	WORD PTR [rax], dx
	add	QWORD PTR [rcx+72], 2
	add	QWORD PTR [rcx], 2
	jmp	SHORT $LN47@ParseAsInt
$LN9@ParseAsInt:

; 140  :         {
; 141  :             *state->INT_PART_PTR = *state->IN_PTR;
; 142  :             state->INT_PART_PTR += 1;
; 143  :             state->IN_PTR += 1;
; 144  :         }
; 145  :         else if (state->NUMBER_STYLES & PMC_NUMBER_STYLE_ALLOW_THOUSANDS && StartsWith(state->IN_PTR, state->GROUP_SEPARATOR))

	test	r9b, 64					; 00000040H
	je	SHORT $LN30@ParseAsInt

; 56   :     while (*b != L'\0')

	movzx	edx, WORD PTR [rcx+48]

; 140  :         {
; 141  :             *state->INT_PART_PTR = *state->IN_PTR;
; 142  :             state->INT_PART_PTR += 1;
; 143  :             state->IN_PTR += 1;
; 144  :         }
; 145  :         else if (state->NUMBER_STYLES & PMC_NUMBER_STYLE_ALLOW_THOUSANDS && StartsWith(state->IN_PTR, state->GROUP_SEPARATOR))

	lea	rax, QWORD PTR [rcx+48]

; 56   :     while (*b != L'\0')

	test	dx, dx
	je	SHORT $LN18@ParseAsInt
	sub	r8, rax
$LL17@ParseAsInt:

; 57   :     {
; 58   :         if (*a != *b)

	cmp	WORD PTR [r8+rax], dx
	jne	SHORT $LN36@ParseAsInt

; 59   :             return (0);
; 60   :         ++a;
; 61   :         ++b;

	movzx	edx, WORD PTR [rax+2]
	add	rax, 2
	test	dx, dx
	jne	SHORT $LL17@ParseAsInt
$LN18@ParseAsInt:

; 146  :             state->IN_PTR += state->GROUP_SEPARATOR_LENGTH;

	movsxd	rax, DWORD PTR [rcx+56]
	add	rax, rax
	add	QWORD PTR [rcx], rax

; 149  :         else
; 150  :             break;
; 151  :     }

	jmp	SHORT $LN47@ParseAsInt
$LN36@ParseAsInt:

; 147  :         else if (state->NUMBER_STYLES & PMC_NUMBER_STYLE_ALLOW_THOUSANDS && state->SECONDARY_GROUP_SEPARATOR_LENGTH > 0 && StartsWith(state->IN_PTR, state->SECONDARY_GROUP_SEPARATOR))

	movsxd	r9, DWORD PTR [rcx+68]
	test	r9d, r9d
	jle	SHORT $LN30@ParseAsInt

; 56   :     while (*b != L'\0')

	movzx	edx, WORD PTR [rcx+60]

; 147  :         else if (state->NUMBER_STYLES & PMC_NUMBER_STYLE_ALLOW_THOUSANDS && state->SECONDARY_GROUP_SEPARATOR_LENGTH > 0 && StartsWith(state->IN_PTR, state->SECONDARY_GROUP_SEPARATOR))

	lea	rax, QWORD PTR [rcx+60]

; 56   :     while (*b != L'\0')

	test	dx, dx
	je	SHORT $LN23@ParseAsInt
	mov	r8, QWORD PTR [rcx]
	sub	r8, rax
$LL22@ParseAsInt:

; 57   :     {
; 58   :         if (*a != *b)

	cmp	WORD PTR [r8+rax], dx
	jne	SHORT $LN30@ParseAsInt

; 59   :             return (0);
; 60   :         ++a;
; 61   :         ++b;

	movzx	edx, WORD PTR [rax+2]
	add	rax, 2
	test	dx, dx
	jne	SHORT $LL22@ParseAsInt
$LN23@ParseAsInt:

; 148  :             state->IN_PTR += state->SECONDARY_GROUP_SEPARATOR_LENGTH;

	mov	rax, r9
	add	rax, rax
	add	QWORD PTR [rcx], rax
	jmp	$LN47@ParseAsInt
$LN30@ParseAsInt:

; 152  : }

	ret	0
ParseAsIntegerPartNumberSequence ENDP
_TEXT	ENDS
; Function compile flags: /Ogtpy
; File z:\sources\lunor\repos\rougemeilland\palmtree.math.core.uint\palmtree.math.core.uint\pmc_parse.c
;	COMDAT SkipSpace
_TEXT	SEGMENT
state$ = 8
SkipSpace PROC						; COMDAT

; 104  :     for (;;)
; 105  :     {
; 106  :         switch (*state->IN_PTR)

	mov	rax, QWORD PTR [rcx]
	movzx	eax, WORD PTR [rax]
	cmp	eax, 9
	jb	SHORT $LN11@SkipSpace
	npad	5
$LL2@SkipSpace:
	cmp	eax, 13
	jbe	SHORT $LN7@SkipSpace
	cmp	eax, 32					; 00000020H
	jne	SHORT $LN11@SkipSpace
$LN7@SkipSpace:

; 107  :         {
; 108  :         case L' ':
; 109  :         case L'\t':
; 110  :         case L'\n':
; 111  :         case L'\r':
; 112  :         case L'\f':
; 113  :         case L'\v':
; 114  :             break;
; 115  : 
; 116  :         default:
; 117  :             return;
; 118  :         }
; 119  :         state->IN_PTR += 1;

	add	QWORD PTR [rcx], 2
	mov	rax, QWORD PTR [rcx]
	movzx	eax, WORD PTR [rax]
	cmp	eax, 9
	jae	SHORT $LL2@SkipSpace
$LN11@SkipSpace:

; 120  :     }
; 121  : }

	ret	0
SkipSpace ENDP
_TEXT	ENDS
; Function compile flags: /Ogtpy
; File z:\sources\lunor\repos\rougemeilland\palmtree.math.core.uint\palmtree.math.core.uint\pmc_parse.c
;	COMDAT FinalizeParserState
_TEXT	SEGMENT
state$ = 8
FinalizeParserState PROC				; COMDAT

; 96   :     *state->INT_PART_PTR = L'\0';

	mov	rax, QWORD PTR [rcx+72]
	xor	edx, edx
	mov	WORD PTR [rax], dx

; 97   :     if (state->NUMBER_STYLES & PMC_NUMBER_STYLE_ALLOW_DECIMAL_POINT)

	test	BYTE PTR [rcx+8], 32			; 00000020H
	je	SHORT $LN2@FinalizePa

; 98   :         *state->FRAC_PART_PTR = L'\0';

	mov	rax, QWORD PTR [rcx+80]
	mov	WORD PTR [rax], dx
$LN2@FinalizePa:

; 99   : }

	ret	0
FinalizeParserState ENDP
_TEXT	ENDS
; Function compile flags: /Ogtpy
; File z:\sources\lunor\repos\rougemeilland\palmtree.math.core.uint\palmtree.math.core.uint\pmc_parse.c
;	COMDAT InitializeParserState
_TEXT	SEGMENT
state$ = 48
in_ptr$ = 56
number_styles$ = 64
format_option$ = 72
int_part_buf$ = 80
frac_part_buf$ = 88
InitializeParserState PROC				; COMDAT

; 67   : {

	mov	QWORD PTR [rsp+8], rbx
	mov	QWORD PTR [rsp+16], rsi
	push	rdi
	sub	rsp, 32					; 00000020H

; 68   :     state->IN_PTR = in_ptr;

	mov	QWORD PTR [rcx], rdx
	mov	rsi, rcx

; 69   :     state->NUMBER_STYLES = number_styles;

	mov	DWORD PTR [rcx+8], r8d

; 70   :     state->SIGN = 0;
; 71   :     lstrcpyW(state->POSITIVE_SIGN, format_option->PositiveSign);

	lea	rdx, QWORD PTR [r9+16]
	mov	BYTE PTR [rcx+12], 0
	mov	rdi, r9
	add	rcx, 14
	call	QWORD PTR __imp_lstrcpyW

; 72   :     state->POSITIVE_SIGN_LENGTH = lstrlenW(state->POSITIVE_SIGN);

	lea	rcx, QWORD PTR [rsi+14]
	call	QWORD PTR __imp_lstrlenW

; 73   :     lstrcpyW(state->NEGATIVE_SIGN, format_option->NegativeSign);

	lea	rdx, QWORD PTR [rdi+22]
	mov	DWORD PTR [rsi+20], eax
	lea	rcx, QWORD PTR [rsi+24]
	call	QWORD PTR __imp_lstrcpyW

; 74   :     state->NEGATIVE_SIGN_LENGTH = lstrlenW(state->NEGATIVE_SIGN);

	lea	rcx, QWORD PTR [rsi+24]
	call	QWORD PTR __imp_lstrlenW

; 75   :     lstrcpyW(state->DECIMAL_SEPARATOR, format_option->DecimalSeparator);

	lea	rdx, QWORD PTR [rdi+10]
	mov	DWORD PTR [rsi+32], eax
	lea	rcx, QWORD PTR [rsi+36]
	call	QWORD PTR __imp_lstrcpyW

; 76   :     state->DECIMAL_SEPARATOR_LENGTH = lstrlenW(state->DECIMAL_SEPARATOR);

	lea	rcx, QWORD PTR [rsi+36]
	call	QWORD PTR __imp_lstrlenW

; 77   :     lstrcpyW(state->GROUP_SEPARATOR, format_option->GroupSeparator);

	lea	rdx, QWORD PTR [rdi+4]
	mov	DWORD PTR [rsi+44], eax
	lea	rcx, QWORD PTR [rsi+48]
	call	QWORD PTR __imp_lstrcpyW

; 78   :     state->GROUP_SEPARATOR_LENGTH = lstrlenW(state->GROUP_SEPARATOR);

	lea	rcx, QWORD PTR [rsi+48]
	call	QWORD PTR __imp_lstrlenW
	mov	DWORD PTR [rsi+56], eax

; 79   :     if (state->GROUP_SEPARATOR[0] == L'\xa0' && state->GROUP_SEPARATOR[1] == L'\0')

	mov	eax, 160				; 000000a0H
	cmp	WORD PTR [rsi+48], ax
	jne	SHORT $LN2@Initialize
	cmp	WORD PTR [rsi+50], 0
	jne	SHORT $LN2@Initialize

; 80   :     {
; 81   :         state->SECONDARY_GROUP_SEPARATOR[0] = L'\x20';
; 82   :         state->SECONDARY_GROUP_SEPARATOR[1] = L'\0';

	xor	eax, eax
	mov	WORD PTR [rsi+62], ax

; 83   :         state->SECONDARY_GROUP_SEPARATOR_LENGTH = 1;

	mov	eax, 1
	lea	ecx, QWORD PTR [rax+31]

; 84   :     }

	jmp	SHORT $LN3@Initialize
$LN2@Initialize:

; 85   :     else
; 86   :     {
; 87   :         state->SECONDARY_GROUP_SEPARATOR[0] = L'\0';
; 88   :         state->SECONDARY_GROUP_SEPARATOR_LENGTH = 0;

	xor	eax, eax
	movzx	ecx, ax
$LN3@Initialize:

; 89   :     }
; 90   :     state->INT_PART_PTR = int_part_buf;

	mov	WORD PTR [rsi+60], cx
	mov	DWORD PTR [rsi+68], eax
	mov	rax, QWORD PTR int_part_buf$[rsp]

; 91   :     state->FRAC_PART_PTR = frac_part_buf;
; 92   : }

	mov	rbx, QWORD PTR [rsp+48]
	mov	QWORD PTR [rsi+72], rax
	mov	rax, QWORD PTR frac_part_buf$[rsp]
	mov	QWORD PTR [rsi+80], rax
	mov	rsi, QWORD PTR [rsp+56]
	add	rsp, 32					; 00000020H
	pop	rdi
	ret	0
InitializeParserState ENDP
_TEXT	ENDS
; Function compile flags: /Ogtpy
; File z:\sources\lunor\repos\rougemeilland\palmtree.math.core.uint\palmtree.math.core.uint\pmc_parse.c
;	COMDAT StartsWith
_TEXT	SEGMENT
a$ = 8
b$ = 16
StartsWith PROC						; COMDAT

; 56   :     while (*b != L'\0')

	movzx	eax, WORD PTR [rdx]
	test	ax, ax
	je	SHORT $LN3@StartsWith
	sub	rcx, rdx
	npad	5
$LL2@StartsWith:

; 57   :     {
; 58   :         if (*a != *b)

	cmp	WORD PTR [rcx+rdx], ax
	jne	SHORT $LN7@StartsWith

; 60   :         ++a;
; 61   :         ++b;

	movzx	eax, WORD PTR [rdx+2]
	add	rdx, 2
	test	ax, ax
	jne	SHORT $LL2@StartsWith
$LN3@StartsWith:

; 62   :     }
; 63   :     return (1);

	mov	eax, 1

; 64   : }

	ret	0
$LN7@StartsWith:

; 59   :             return (0);

	xor	eax, eax

; 64   : }

	ret	0
StartsWith ENDP
_TEXT	ENDS
; Function compile flags: /Ogtpy
; File z:\sources\lunor\repos\rougemeilland\palmtree.math.core.uint\palmtree.math.core.uint\pmc_inline_func.h
;	COMDAT _MULTIPLYX_UNIT
_TEXT	SEGMENT
u$ = 8
v$ = 16
w_hi$ = 24
_MULTIPLYX_UNIT PROC					; COMDAT

; 330  : #ifdef _MSC_VER
; 331  : #ifdef _M_IX86
; 332  :         return (_FROMDWORDTOWORD((_UINT64_T)u * v, w_hi));
; 333  : #elif defined(_M_X64)
; 334  :         return (_mulx_u64(u, v, w_hi));

	mulx	rcx, rax, rcx
	mov	QWORD PTR [r8], rcx

; 335  : #else
; 336  : #error unknown platform
; 337  : #endif
; 338  : #elif defined(__GNUC__)
; 339  : #ifdef _M_IX86
; 340  :         _UINT32_T w_lo;
; 341  :         __asm__("mulxl %3, %0, %1" : "=r"(w_lo), "=r"(*w_hi), "+d"(u) : "rm"(v));
; 342  :         return (w_lo);
; 343  : #elif defined(_M_X64)
; 344  :         _UINT64_T w_lo;
; 345  :         __asm__("mulxq %3, %0, %1" : "=r"(w_lo), "=r"(*w_hi), "+d"(u) : "rm"(v));
; 346  :         return (w_lo);
; 347  : #else
; 348  : #error unknown platform
; 349  : #endif
; 350  : #else
; 351  : #error unknown compiler
; 352  : #endif
; 353  :     }

	ret	0
_MULTIPLYX_UNIT ENDP
_TEXT	ENDS
; Function compile flags: /Ogtpy
; File z:\sources\lunor\repos\rougemeilland\palmtree.math.core.uint\palmtree.math.core.uint\pmc_inline_func.h
;	COMDAT _MULTIPLY_UNIT
_TEXT	SEGMENT
u$ = 8
v$ = 16
w_hi$ = 24
_MULTIPLY_UNIT PROC					; COMDAT

; 292  : #ifdef _M_IX86
; 293  : #ifdef _MSC_VER
; 294  :         return (_FROMDWORDTOWORD((_UINT64_T)u * v, w_hi));
; 295  : #elif defined(__GNUC__)
; 296  :         _UINT32_T w_lo;
; 297  :         __asm__("mull %3": "=a"(w_lo), "=d"(*w_hi) : "0"(u), "rm"(v));
; 298  :         return (w_lo);
; 299  : #else
; 300  : #error unknown compiler
; 301  : #endif
; 302  : #elif defined(_M_X64)
; 303  :         return (_umul128(u, v, w_hi));

	mov	rax, rdx
	mul	rcx
	mov	QWORD PTR [r8], rdx

; 304  : #else
; 305  : #error unknown platform
; 306  : #endif
; 307  :     }

	ret	0
_MULTIPLY_UNIT ENDP
_TEXT	ENDS
; Function compile flags: /Ogtpy
; File z:\sources\lunor\repos\rougemeilland\palmtree.math.core.uint\palmtree.math.core.uint\pmc_inline_func.h
;	COMDAT _ADDX_UNIT
_TEXT	SEGMENT
carry$ = 8
u$ = 16
v$ = 24
w$ = 32
_ADDX_UNIT PROC						; COMDAT

; 236  : #ifdef _M_IX86
; 237  :         return (_addcarryx_u32(carry, u, v, w));
; 238  : #elif defined(_M_X64)
; 239  :         return (_addcarryx_u64(carry, u, v, w));

	add	cl, -1
	adcx	rdx, r8
	mov	QWORD PTR [r9], rdx
	setb	al

; 240  : #else
; 241  : #error unknown platform
; 242  : #endif
; 243  :     }

	ret	0
_ADDX_UNIT ENDP
_TEXT	ENDS
; Function compile flags: /Ogtpy
; File z:\sources\lunor\repos\rougemeilland\palmtree.math.core.uint\palmtree.math.core.uint\pmc_inline_func.h
;	COMDAT _ADD_UNIT
_TEXT	SEGMENT
carry$ = 8
u$ = 16
v$ = 24
w$ = 32
_ADD_UNIT PROC						; COMDAT

; 208  : #ifdef _M_IX86
; 209  :         return (_addcarry_u32(carry, u, v, w));
; 210  : #elif defined(_M_X64)
; 211  :         return (_addcarry_u64(carry, u, v, w));

	add	cl, -1
	adc	rdx, r8
	mov	QWORD PTR [r9], rdx
	setb	al

; 212  : #else
; 213  : #error unknown platform
; 214  : #endif
; 215  :     }

	ret	0
_ADD_UNIT ENDP
_TEXT	ENDS
; Function compile flags: /Ogtpy
; File z:\sources\lunor\repos\rougemeilland\palmtree.math.core.uint\palmtree.math.core.uint\pmc_inline_func.h
;	COMDAT _DIVIDE_CEILING_SIZE
_TEXT	SEGMENT
u$ = 8
v$ = 16
_DIVIDE_CEILING_SIZE PROC				; COMDAT

; 193  :         return ((u + v - 1) / v);

	lea	rax, QWORD PTR [rdx-1]
	mov	r8, rdx
	add	rax, rcx
	xor	edx, edx
	div	r8

; 194  :     }

	ret	0
_DIVIDE_CEILING_SIZE ENDP
_TEXT	ENDS
; Function compile flags: /Ogtpy
; File z:\sources\lunor\repos\rougemeilland\palmtree.math.core.uint\palmtree.math.core.uint\pmc_inline_func.h
;	COMDAT _DIVIDE_CEILING_UNIT
_TEXT	SEGMENT
u$ = 8
v$ = 16
_DIVIDE_CEILING_UNIT PROC				; COMDAT

; 188  :         return ((u + v - 1) / v);

	lea	rax, QWORD PTR [rdx-1]
	mov	r8, rdx
	add	rax, rcx
	xor	edx, edx
	div	r8

; 189  :     }

	ret	0
_DIVIDE_CEILING_UNIT ENDP
_TEXT	ENDS
; Function compile flags: /Ogtpy
; File z:\sources\lunor\repos\rougemeilland\palmtree.math.core.uint\palmtree.math.core.uint\pmc_inline_func.h
;	COMDAT _COPY_MEMORY_UNIT
_TEXT	SEGMENT
d$ = 8
s$ = 16
count$ = 24
_COPY_MEMORY_UNIT PROC					; COMDAT

; 60   :     {

	mov	QWORD PTR [rsp+8], rsi
	mov	QWORD PTR [rsp+16], rdi

; 61   : #ifdef _M_IX86
; 62   :         __movsd((unsigned long *)d, (unsigned long *)s, (unsigned long)count);
; 63   : #elif defined(_M_X64)
; 64   :         __movsq(d, s, count);

	mov	rdi, rcx
	mov	rsi, rdx
	mov	rcx, r8
	rep movsq

; 65   : #else
; 66   : #error unknown platform
; 67   : #endif
; 68   :     }

	mov	rsi, QWORD PTR [rsp+8]
	mov	rdi, QWORD PTR [rsp+16]
	ret	0
_COPY_MEMORY_UNIT ENDP
_TEXT	ENDS
; Function compile flags: /Ogtpy
; File z:\sources\lunor\repos\rougemeilland\palmtree.math.core.uint\palmtree.math.core.uint\pmc_uint_internal.h
;	COMDAT AddToMULTI64Counter
_TEXT	SEGMENT
value$ = 8
AddToMULTI64Counter PROC				; COMDAT

; 356  :         _InterlockedExchangeAdd(&statistics_info.COUNT_MULTI64, value);

	lock xadd DWORD PTR statistics_info, ecx

; 357  :     }

	ret	0
AddToMULTI64Counter ENDP
_TEXT	ENDS
; Function compile flags: /Ogtpy
; File z:\sources\lunor\repos\rougemeilland\palmtree.math.core.uint\palmtree.math.core.uint\pmc_uint_internal.h
;	COMDAT AddToMULTI32Counter
_TEXT	SEGMENT
value$ = 8
AddToMULTI32Counter PROC				; COMDAT

; 350  :         _InterlockedExchangeAdd(&statistics_info.COUNT_MULTI32, value);

	lock xadd DWORD PTR statistics_info+4, ecx

; 351  :     }

	ret	0
AddToMULTI32Counter ENDP
_TEXT	ENDS
; Function compile flags: /Ogtpy
; File z:\sources\lunor\repos\rougemeilland\palmtree.math.core.uint\palmtree.math.core.uint\pmc_uint_internal.h
;	COMDAT IncrementMULTI64Counter
_TEXT	SEGMENT
IncrementMULTI64Counter PROC				; COMDAT

; 333  :         _InterlockedIncrement(&statistics_info.COUNT_MULTI64);

	lock inc DWORD PTR statistics_info

; 334  :     }

	ret	0
IncrementMULTI64Counter ENDP
_TEXT	ENDS
; Function compile flags: /Ogtpy
; File z:\sources\lunor\repos\rougemeilland\palmtree.math.core.uint\palmtree.math.core.uint\pmc_uint_internal.h
;	COMDAT IncrementMULTI32Counter
_TEXT	SEGMENT
IncrementMULTI32Counter PROC				; COMDAT

; 327  :         _InterlockedIncrement(&statistics_info.COUNT_MULTI32);

	lock inc DWORD PTR statistics_info+4

; 328  :     }

	ret	0
IncrementMULTI32Counter ENDP
_TEXT	ENDS
; Function compile flags: /Ogtpy
; File z:\sources\lunor\repos\rougemeilland\palmtree.math.core.uint\palmtree.math.core.uint\pmc_parse.c
;	COMDAT PMC_TryParseForSINT
_TEXT	SEGMENT
no_abs$ = 64
source$ = 64
number_styles$ = 72
format_option$ = 80
o_sign$ = 88
o_abs$ = 96
PMC_TryParseForSINT PROC				; COMDAT

; 1075 : {

$LN20:
	push	rbx
	sub	rsp, 48					; 00000030H
	mov	rax, r8

; 1076 :     PMC_STATUS_CODE result;
; 1077 :     if (source == NULL)

	test	rcx, rcx
	je	SHORT $LN16@PMC_TryPar

; 1078 :         return (PMC_STATUS_ARGUMENT_ERROR);
; 1079 :     if (o_sign == NULL)

	test	r9, r9
	je	SHORT $LN16@PMC_TryPar

; 1080 :         return (PMC_STATUS_ARGUMENT_ERROR);
; 1081 :     if (o_abs == NULL)

	mov	rbx, QWORD PTR o_abs$[rsp]
	test	rbx, rbx
	je	SHORT $LN16@PMC_TryPar

; 1024 :     if (number_styles & PMC_NUMBER_STYLE_ALLOW_HEX_SPECIFIER)

	test	rax, rax
	lea	r8, OFFSET FLAT:default_number_format_option
	cmovne	r8, rax
	bt	edx, 9
	jae	SHORT $LN9@PMC_TryPar

; 1025 :     {
; 1026 :         // 16進数の場合
; 1027 : 
; 1028 :         // 許可されている組み合わせのフラグ
; 1029 :         _UINT32_T mask = PMC_NUMBER_STYLE_ALLOW_HEX_SPECIFIER | PMC_NUMBER_STYLE_ALLOW_LEADING_WHITE | PMC_NUMBER_STYLE_ALLOW_TRAILING_WHITE;
; 1030 : 
; 1031 :         // 許可されていないフラグが指定されていればエラー
; 1032 :         if (number_styles & ~mask)

	test	edx, -516				; fffffdfcH
	jne	SHORT $LN16@PMC_TryPar

; 1033 :             return (PMC_STATUS_ARGUMENT_ERROR);
; 1034 : 
; 1035 :         if ((result = TryParseX(source, number_styles, format_option, o_sign, o_abs)) != PMC_STATUS_OK)

	lea	rax, QWORD PTR no_abs$[rsp]
	mov	QWORD PTR [rsp+32], rax
	call	TryParseX

; 1036 :             return (result);

	jmp	SHORT $LN18@PMC_TryPar
$LN9@PMC_TryPar:

; 1037 :     }
; 1038 :     else
; 1039 :     {
; 1040 :         // 10進数の場合
; 1041 :         if ((result = TryParseDN(source, number_styles, format_option, o_sign, o_abs)) != PMC_STATUS_OK)

	lea	rax, QWORD PTR no_abs$[rsp]
	mov	QWORD PTR [rsp+32], rax
	call	TryParseDN
$LN18@PMC_TryPar:

; 1082 :         return (PMC_STATUS_ARGUMENT_ERROR);
; 1083 :     if (format_option == NULL)
; 1084 :         format_option = &default_number_format_option;
; 1085 :     NUMBER_HEADER* no_abs;
; 1086 :     if ((result = PMC_TryParse_Imp(source, number_styles, format_option, o_sign, &no_abs)) != PMC_STATUS_OK)
; 1087 :         return (result);

	test	eax, eax
	jne	SHORT $LN1@PMC_TryPar

; 1088 :     *o_abs = (PMC_HANDLE_UINT)no_abs;

	mov	rax, QWORD PTR no_abs$[rsp]
	mov	QWORD PTR [rbx], rax

; 1089 :     return (PMC_STATUS_OK);

	xor	eax, eax

; 1090 : }

	add	rsp, 48					; 00000030H
	pop	rbx
	ret	0
$LN16@PMC_TryPar:
	mov	eax, -1
$LN1@PMC_TryPar:
	add	rsp, 48					; 00000030H
	pop	rbx
	ret	0
PMC_TryParseForSINT ENDP
_TEXT	ENDS
; Function compile flags: /Ogtpy
; File z:\sources\lunor\repos\rougemeilland\palmtree.math.core.uint\palmtree.math.core.uint\pmc_parse.c
;	COMDAT PMC_TryParse
_TEXT	SEGMENT
o_abs$ = 48
o_sign$ = 80
source$ = 80
number_styles$ = 88
format_option$ = 96
o$ = 104
PMC_TryParse PROC					; COMDAT

; 1052 : {

$LN20:
	push	rbx
	sub	rsp, 64					; 00000040H
	mov	rbx, r9
	mov	rax, r8

; 1053 :     PMC_STATUS_CODE result;
; 1054 :     if (source == NULL)

	test	rcx, rcx
	je	SHORT $LN16@PMC_TryPar

; 1055 :         return (PMC_STATUS_ARGUMENT_ERROR);
; 1056 :     if (o == NULL)

	test	rbx, rbx
	je	SHORT $LN16@PMC_TryPar

; 1024 :     if (number_styles & PMC_NUMBER_STYLE_ALLOW_HEX_SPECIFIER)

	test	rax, rax
	lea	r8, OFFSET FLAT:default_number_format_option
	cmovne	r8, rax
	bt	edx, 9
	jae	SHORT $LN9@PMC_TryPar

; 1025 :     {
; 1026 :         // 16進数の場合
; 1027 : 
; 1028 :         // 許可されている組み合わせのフラグ
; 1029 :         _UINT32_T mask = PMC_NUMBER_STYLE_ALLOW_HEX_SPECIFIER | PMC_NUMBER_STYLE_ALLOW_LEADING_WHITE | PMC_NUMBER_STYLE_ALLOW_TRAILING_WHITE;
; 1030 : 
; 1031 :         // 許可されていないフラグが指定されていればエラー
; 1032 :         if (number_styles & ~mask)

	test	edx, -516				; fffffdfcH
	jne	SHORT $LN16@PMC_TryPar

; 1033 :             return (PMC_STATUS_ARGUMENT_ERROR);
; 1034 : 
; 1035 :         if ((result = TryParseX(source, number_styles, format_option, o_sign, o_abs)) != PMC_STATUS_OK)

	lea	rax, QWORD PTR o_abs$[rsp]
	lea	r9, QWORD PTR o_sign$[rsp]
	mov	QWORD PTR [rsp+32], rax
	call	TryParseX

; 1036 :             return (result);

	jmp	SHORT $LN18@PMC_TryPar
$LN9@PMC_TryPar:

; 1037 :     }
; 1038 :     else
; 1039 :     {
; 1040 :         // 10進数の場合
; 1041 :         if ((result = TryParseDN(source, number_styles, format_option, o_sign, o_abs)) != PMC_STATUS_OK)

	lea	rax, QWORD PTR o_abs$[rsp]
	lea	r9, QWORD PTR o_sign$[rsp]
	mov	QWORD PTR [rsp+32], rax
	call	TryParseDN
$LN18@PMC_TryPar:

; 1057 :         return (PMC_STATUS_ARGUMENT_ERROR);
; 1058 :     if (format_option == NULL)
; 1059 :         format_option = &default_number_format_option;
; 1060 :     char o_sign;
; 1061 :     NUMBER_HEADER* o_abs;
; 1062 :     if ((result = PMC_TryParse_Imp(source, number_styles, format_option, &o_sign, &o_abs)) != PMC_STATUS_OK)
; 1063 :         return (result);

	test	eax, eax
	jne	SHORT $LN1@PMC_TryPar

; 1064 :     if (o_sign < 0)

	cmp	BYTE PTR o_sign$[rsp], al
	jge	SHORT $LN6@PMC_TryPar

; 1065 :     {
; 1066 :         // 負数は表現できないのでエラーとする
; 1067 :         DeallocateNumber(o_abs);

	mov	rcx, QWORD PTR o_abs$[rsp]
	call	DeallocateNumber

; 1068 :         return (PMC_STATUS_OVERFLOW);

	mov	eax, -2

; 1072 : }

	add	rsp, 64					; 00000040H
	pop	rbx
	ret	0
$LN6@PMC_TryPar:

; 1069 :     }
; 1070 :     *o = (PMC_HANDLE_UINT)o_abs;

	mov	rax, QWORD PTR o_abs$[rsp]
	mov	QWORD PTR [rbx], rax

; 1071 :     return (PMC_STATUS_OK);

	xor	eax, eax

; 1072 : }

	add	rsp, 64					; 00000040H
	pop	rbx
	ret	0
$LN16@PMC_TryPar:
	mov	eax, -1
$LN1@PMC_TryPar:
	add	rsp, 64					; 00000040H
	pop	rbx
	ret	0
PMC_TryParse ENDP
_TEXT	ENDS
; Function compile flags: /Ogtpy
; File z:\sources\lunor\repos\rougemeilland\palmtree.math.core.uint\palmtree.math.core.uint\pmc_parse.c
;	COMDAT Initialize_Parse
_TEXT	SEGMENT
feature$ = 48
Initialize_Parse PROC					; COMDAT

; 1093 : {

$LN6:
	push	rbx
	sub	rsp, 32					; 00000020H
	mov	rbx, rcx

; 1094 :     default_number_format_option.DecimalDigits = 2;

	mov	DWORD PTR default_number_format_option, 2

; 1095 :     lstrcpyW(default_number_format_option.GroupSeparator, L",");

	lea	rcx, OFFSET FLAT:default_number_format_option+4
	lea	rdx, OFFSET FLAT:??_C@_13DEFPDAGF@?$AA?0@
	call	QWORD PTR __imp_lstrcpyW

; 1096 :     lstrcpyW(default_number_format_option.DecimalSeparator, L".");

	lea	rdx, OFFSET FLAT:??_C@_13JOFGPIOO@?$AA?4@
	lea	rcx, OFFSET FLAT:default_number_format_option+10
	call	QWORD PTR __imp_lstrcpyW

; 1097 :     lstrcpyW(default_number_format_option.GroupSizes, L"3");

	lea	rdx, OFFSET FLAT:??_C@_13DMCFHHKM@?$AA3@
	lea	rcx, OFFSET FLAT:default_number_format_option+28
	call	QWORD PTR __imp_lstrcpyW

; 1098 :     lstrcpyW(default_number_format_option.PositiveSign, L"+");

	lea	rdx, OFFSET FLAT:??_C@_13KJIIAINM@?$AA?$CL@
	lea	rcx, OFFSET FLAT:default_number_format_option+16
	call	QWORD PTR __imp_lstrcpyW

; 1099 :     lstrcpyW(default_number_format_option.NegativeSign, L"-");

	lea	rdx, OFFSET FLAT:??_C@_13IMODFHAA@?$AA?9@
	lea	rcx, OFFSET FLAT:default_number_format_option+22
	call	QWORD PTR __imp_lstrcpyW
	mov	eax, DWORD PTR [rbx]

; 1100 : 
; 1101 :     if (feature->PROCESSOR_FEATURE_ADX && feature->PROCESSOR_FEATURE_BMI2)
; 1102 :         fp_MultiplyAndAdd = MultiplyAndAdd_using_ADCX_MULX;
; 1103 :     else
; 1104 :         fp_MultiplyAndAdd = MultiplyAndAdd_using_ADC_MUL;
; 1105 : 
; 1106 :     return (PMC_STATUS_OK);

	lea	rcx, OFFSET FLAT:MultiplyAndAdd_using_ADCX_MULX
	and	eax, 10
	lea	rdx, OFFSET FLAT:MultiplyAndAdd_using_ADC_MUL
	cmp	al, 10
	cmovne	rcx, rdx
	xor	eax, eax
	mov	QWORD PTR fp_MultiplyAndAdd, rcx

; 1107 : }

	add	rsp, 32					; 00000020H
	pop	rbx
	ret	0
Initialize_Parse ENDP
_TEXT	ENDS
END
