; Listing generated by Microsoft (R) Optimizing Compiler Version 19.16.27026.1 

include listing.inc

INCLUDELIB MSVCRT
INCLUDELIB OLDNAMES

PUBLIC	Initialize_ModPow
PUBLIC	PMC_ModPow_X_X_X
EXTRN	AllocateBlock:PROC
EXTRN	DeallocateBlock:PROC
EXTRN	CheckBlockLight:PROC
EXTRN	AllocateNumber:PROC
EXTRN	DeallocateNumber:PROC
EXTRN	CommitNumber:PROC
EXTRN	CheckNumber:PROC
EXTRN	DuplicateNumber:PROC
EXTRN	Multiply_X_X_Imp:PROC
EXTRN	DivRem_X_X:PROC
EXTRN	Compare_Imp:PROC
EXTRN	number_zero:BYTE
EXTRN	number_one:BYTE
;	COMDAT pdata
pdata	SEGMENT
$pdata$PMC_ModPow_X_X_X DD imagerel $LN13
	DD	imagerel $LN13+130
	DD	imagerel $unwind$PMC_ModPow_X_X_X
pdata	ENDS
;	COMDAT pdata
pdata	SEGMENT
$pdata$_COPY_MEMORY_UNIT DD imagerel _COPY_MEMORY_UNIT
	DD	imagerel _COPY_MEMORY_UNIT+33
	DD	imagerel $unwind$_COPY_MEMORY_UNIT
pdata	ENDS
;	COMDAT pdata
pdata	SEGMENT
$pdata$_ZERO_MEMORY_UNIT DD imagerel _ZERO_MEMORY_UNIT
	DD	imagerel _ZERO_MEMORY_UNIT+22
	DD	imagerel $unwind$_ZERO_MEMORY_UNIT
pdata	ENDS
;	COMDAT pdata
pdata	SEGMENT
$pdata$Remainder DD imagerel Remainder
	DD	imagerel Remainder+287
	DD	imagerel $unwind$Remainder
pdata	ENDS
;	COMDAT pdata
pdata	SEGMENT
$pdata$ModulePower DD imagerel ModulePower
	DD	imagerel ModulePower+179
	DD	imagerel $unwind$ModulePower
pdata	ENDS
;	COMDAT pdata
pdata	SEGMENT
$pdata$2$ModulePower DD imagerel ModulePower+179
	DD	imagerel ModulePower+1581
	DD	imagerel $chain$2$ModulePower
pdata	ENDS
;	COMDAT pdata
pdata	SEGMENT
$pdata$3$ModulePower DD imagerel ModulePower+1581
	DD	imagerel ModulePower+1612
	DD	imagerel $chain$3$ModulePower
pdata	ENDS
;	COMDAT pdata
pdata	SEGMENT
$pdata$PMC_ModPow_X_X_X_Imp DD imagerel PMC_ModPow_X_X_X_Imp
	DD	imagerel PMC_ModPow_X_X_X_Imp+426
	DD	imagerel $unwind$PMC_ModPow_X_X_X_Imp
pdata	ENDS
;	COMDAT xdata
xdata	SEGMENT
$unwind$PMC_ModPow_X_X_X_Imp DD 084201H
	DD	0c5442H
	DD	0f640fH
	DD	0d340fH
	DD	0700b920fH
xdata	ENDS
;	COMDAT xdata
xdata	SEGMENT
$chain$3$ModulePower DD 021H
	DD	imagerel ModulePower
	DD	imagerel ModulePower+179
	DD	imagerel $unwind$ModulePower
xdata	ENDS
;	COMDAT xdata
xdata	SEGMENT
$chain$2$ModulePower DD 020821H
	DD	018c408H
	DD	imagerel ModulePower
	DD	imagerel ModulePower+179
	DD	imagerel $unwind$ModulePower
xdata	ENDS
;	COMDAT xdata
xdata	SEGMENT
$unwind$ModulePower DD 0b7d01H
	DD	017f47dH
	DD	019746eH
	DD	01a011dH
	DD	0d00fe011H
	DD	0300c600dH
	DD	0500bH
xdata	ENDS
;	COMDAT xdata
xdata	SEGMENT
$unwind$Remainder DD 060c01H
	DD	0e340cH
	DD	07008720cH
	DD	050066007H
xdata	ENDS
;	COMDAT xdata
xdata	SEGMENT
$unwind$_ZERO_MEMORY_UNIT DD 020501H
	DD	017405H
xdata	ENDS
;	COMDAT xdata
xdata	SEGMENT
$unwind$_COPY_MEMORY_UNIT DD 040a01H
	DD	02740aH
	DD	016405H
xdata	ENDS
;	COMDAT xdata
xdata	SEGMENT
$unwind$PMC_ModPow_X_X_X DD 081401H
	DD	086414H
	DD	075414H
	DD	063414H
	DD	070103214H
xdata	ENDS
; Function compile flags: /Ogtpy
; File z:\sources\lunor\repos\rougemeilland\palmtree.math.core.uint\palmtree.math.core.uint\pmc_modpow.c
; File z:\sources\lunor\repos\rougemeilland\palmtree.math.core.uint\palmtree.math.core.uint\pmc_inline_func.h
; File z:\sources\lunor\repos\rougemeilland\palmtree.math.core.uint\palmtree.math.core.uint\pmc_modpow.c
;	COMDAT PMC_ModPow_X_X_X_Imp
_TEXT	SEGMENT
work_v_buf_code$1 = 64
r_check_code$2 = 72
v$ = 96
e$ = 104
work_v_buf_words$3 = 112
m$ = 112
r$ = 120
PMC_ModPow_X_X_X_Imp PROC				; COMDAT

; 456  : {

	mov	QWORD PTR [rsp+16], rbx
	mov	QWORD PTR [rsp+32], rsi
	push	rdi
	sub	rsp, 80					; 00000050H
	mov	rdi, r8
	mov	rbx, r9

; 457  :     PMC_STATUS_CODE result;
; 458  : 
; 459  :     if (m->IS_ZERO)

	mov	r8d, DWORD PTR [r8]
	mov	rsi, rcx
	test	r8b, 1
	je	SHORT $LN2@PMC_ModPow

; 460  :     {
; 461  :         // m が 0 の場合
; 462  : 
; 463  :         // 0 による除算は許されないのでエラーを通知する
; 464  :         return (PMC_STATUS_DIVISION_BY_ZERO);

	mov	eax, -3

; 548  : }

	mov	rbx, QWORD PTR [rsp+104]
	mov	rsi, QWORD PTR [rsp+120]
	add	rsp, 80					; 00000050H
	pop	rdi
	ret	0
$LN2@PMC_ModPow:

; 465  :     }
; 466  :     else if (m->IS_ONE)

	mov	ecx, DWORD PTR [rcx]
	mov	eax, ecx
	and	eax, 1
	mov	QWORD PTR [rsp+96], rbp
	test	r8b, 2
	je	SHORT $LN4@PMC_ModPow

; 467  :     {
; 468  :         // m が 1 の場合
; 469  :         if (v->IS_ZERO)

	test	eax, eax
	je	SHORT $LN8@PMC_ModPow

; 470  :         {
; 471  :             // v が 0 の場合
; 472  :             if (e->IS_ZERO)

	test	BYTE PTR [rdx], 1
	jne	SHORT $LN38@PMC_ModPow
$LN8@PMC_ModPow:

; 544  :             }
; 545  :         }
; 546  :     }
; 547  :     return (PMC_STATUS_OK);

	lea	rax, OFFSET FLAT:number_zero
	jmp	$LN40@PMC_ModPow
$LN4@PMC_ModPow:

; 473  :             {
; 474  :                 // e が 0 の場合
; 475  : 
; 476  :                 // 0 の 0 乗となるので、エラーを返す
; 477  :                 return (PMC_STATUS_ARGUMENT_ERROR);
; 478  :             }
; 479  :             else
; 480  :             {
; 481  :                 // e が 0 ではない場合
; 482  : 
; 483  :                 // v の e 乗がどんな値であっても 1 では必ず割り切れるので剰余は 0 となる。
; 484  :                 *r = &number_zero;
; 485  :             }
; 486  :         }
; 487  :         else
; 488  :         {
; 489  :             // v が 0 ではない場合
; 490  : 
; 491  :             // v の e 乗がどんな値であっても 1 では必ず割り切れるので剰余は 0 となる。
; 492  :             *r = &number_zero;
; 493  :         }
; 494  :     }
; 495  :     else
; 496  :     {
; 497  :         // m が 2 以上の場合
; 498  :         if (v->IS_ZERO)

	test	eax, eax
	je	SHORT $LN10@PMC_ModPow

; 499  :         {
; 500  :             // v が 0 の場合
; 501  :             if (e->IS_ZERO)

	test	BYTE PTR [rdx], 1
	je	SHORT $LN8@PMC_ModPow
$LN38@PMC_ModPow:

; 502  :             {
; 503  :                 // e が 0 の場合
; 504  : 
; 505  :                 // 0 の 0 乗となるので、エラーを返す
; 506  :                 return (PMC_STATUS_ARGUMENT_ERROR);

	mov	eax, -1
	jmp	$LN39@PMC_ModPow
$LN10@PMC_ModPow:

; 507  :             }
; 508  :             else
; 509  :             {
; 510  :                 // e が 0 ではない場合
; 511  : 
; 512  :                 *r = &number_zero;
; 513  :             }
; 514  :         }
; 515  :         else if (v->IS_ONE)

	test	cl, 2
	jne	$LN37@PMC_ModPow

; 516  :         {
; 517  :             // v が 1 の場合
; 518  : 
; 519  :             // 1 を何乗しても 1 であり、1 を 2 以上の数で割ればその剰余は必ず 1 となる
; 520  :             *r = &number_one;
; 521  :         }
; 522  :         else
; 523  :         {
; 524  :             // v が 2 以上の場合
; 525  :             if (e->IS_ZERO)

	mov	eax, DWORD PTR [rdx]
	test	al, 1
	jne	$LN37@PMC_ModPow

; 529  :             }
; 530  :             else if (e->IS_ONE)

	test	al, 2
	je	$LN18@PMC_ModPow

; 101  :     if (u->UNIT_BIT_COUNT < v->UNIT_BIT_COUNT)

	mov	rcx, QWORD PTR [rdi+24]
	cmp	QWORD PTR [rsi+24], rcx
	jae	SHORT $LN24@PMC_ModPow

; 102  :     {
; 103  :         if ((result = DuplicateNumber(u, r)) != PMC_STATUS_OK)

	mov	rdx, rbx
	mov	rcx, rsi
	call	DuplicateNumber
	test	eax, eax
	je	$LN21@PMC_ModPow

; 104  :             return (result);

	jmp	$LN39@PMC_ModPow
$LN24@PMC_ModPow:

; 105  :     }
; 106  :     else
; 107  :     {
; 108  :         __UNIT_TYPE work_v_buf_code;
; 109  :         __UNIT_TYPE work_v_buf_words;
; 110  :         __UNIT_TYPE* work_v_buf = AllocateBlock(v->UNIT_BIT_COUNT, &work_v_buf_words, &work_v_buf_code);

	lea	r8, QWORD PTR work_v_buf_code$1[rsp]
	lea	rdx, QWORD PTR work_v_buf_words$3[rsp]
	call	AllocateBlock
	mov	rbp, rax

; 111  :         if (work_v_buf == NULL)

	test	rax, rax
	je	SHORT $LN41@PMC_ModPow

; 112  :             return (PMC_STATUS_NOT_ENOUGH_MEMORY);
; 113  :         __UNIT_TYPE r_check_code;
; 114  :         if ((result = AllocateNumber(r, u->UNIT_BIT_COUNT + __UNIT_TYPE_BIT_COUNT, &r_check_code)) != PMC_STATUS_OK)

	mov	rdx, QWORD PTR [rsi+24]
	lea	r8, QWORD PTR r_check_code$2[rsp]
	add	rdx, 64					; 00000040H
	mov	rcx, rbx
	call	AllocateNumber
	test	eax, eax
	je	SHORT $LN28@PMC_ModPow

; 115  :         {
; 116  :             DeallocateBlock(work_v_buf, work_v_buf_words);

	mov	rdx, QWORD PTR work_v_buf_words$3[rsp]
	mov	rcx, rbp
	call	DeallocateBlock
$LN41@PMC_ModPow:

; 117  :             return (PMC_STATUS_NOT_ENOUGH_MEMORY);

	mov	eax, -5
	jmp	$LN39@PMC_ModPow
$LN28@PMC_ModPow:

; 118  :         }
; 119  : 
; 120  :         if (u->UNIT_WORD_COUNT < v->UNIT_WORD_COUNT)

	mov	rdx, QWORD PTR [rsi+16]
	mov	r9, QWORD PTR [rdi+16]
	cmp	rdx, r9
	jae	SHORT $LN29@PMC_ModPow
; File z:\sources\lunor\repos\rougemeilland\palmtree.math.core.uint\palmtree.math.core.uint\pmc_inline_func.h

; 64   :         __movsq(d, s, count);

	mov	rdi, QWORD PTR [rbx]
	mov	rcx, rdx
	mov	rsi, QWORD PTR [rsi+64]
	mov	rdi, QWORD PTR [rdi+64]
	rep movsq
; File z:\sources\lunor\repos\rougemeilland\palmtree.math.core.uint\palmtree.math.core.uint\pmc_modpow.c

; 121  :             _COPY_MEMORY_UNIT((*r)->BLOCK, u->BLOCK, u->UNIT_WORD_COUNT);

	jmp	SHORT $LN32@PMC_ModPow
$LN29@PMC_ModPow:

; 122  :         else
; 123  :         {
; 124  :             DivRem_X_X(u->BLOCK, u->UNIT_WORD_COUNT, v->BLOCK, v->UNIT_WORD_COUNT, work_v_buf, NULL, (*r)->BLOCK);

	mov	rax, QWORD PTR [rbx]
	mov	r8, QWORD PTR [rdi+64]
	mov	rcx, QWORD PTR [rax+64]
	mov	QWORD PTR [rsp+48], rcx
	mov	rcx, QWORD PTR [rsi+64]
	mov	QWORD PTR [rsp+40], 0
	mov	QWORD PTR [rsp+32], rbp
	call	DivRem_X_X

; 125  :             if ((result = CheckBlockLight(work_v_buf, work_v_buf_code)) != PMC_STATUS_OK)

	mov	rdx, QWORD PTR work_v_buf_code$1[rsp]
	mov	rcx, rbp
	call	CheckBlockLight
	test	eax, eax
	jne	SHORT $LN39@PMC_ModPow

; 126  :                 return (result);
; 127  :             if ((result = CheckBlockLight((*r)->BLOCK, r_check_code)) != PMC_STATUS_OK)

	mov	rcx, QWORD PTR [rbx]
	mov	rdx, QWORD PTR r_check_code$2[rsp]
	mov	rcx, QWORD PTR [rcx+64]
	call	CheckBlockLight
	test	eax, eax
	jne	SHORT $LN39@PMC_ModPow
$LN32@PMC_ModPow:

; 128  :                 return (result);
; 129  :         }
; 130  : 
; 131  :         DeallocateBlock(work_v_buf, work_v_buf_words);

	mov	rdx, QWORD PTR work_v_buf_words$3[rsp]
	mov	rcx, rbp
	call	DeallocateBlock

; 132  :         CommitNumber(*r);

	mov	rcx, QWORD PTR [rbx]
	call	CommitNumber

; 531  :             {
; 532  :                 // e が 1 の場合
; 533  : 
; 534  :                 // v % m を計算して返す
; 535  :                 if ((result = Remainder(v, m, r)) != PMC_STATUS_OK)

	jmp	SHORT $LN21@PMC_ModPow
$LN18@PMC_ModPow:

; 536  :                     return (result);
; 537  :             }
; 538  :             else
; 539  :             {
; 540  :                 // v、e、m がすべて 2 以上である場合
; 541  :                 // v の e 乗 の m による剰余を計算して返す
; 542  :                 if ((result = ModulePower(v, e, m, r)) != PMC_STATUS_OK)

	mov	r8, rdi
	mov	rcx, rsi
	call	ModulePower
	test	eax, eax
	je	SHORT $LN21@PMC_ModPow

; 543  :                     return (result);

	jmp	SHORT $LN39@PMC_ModPow
$LN37@PMC_ModPow:

; 526  :             {
; 527  :                 // e が 0 の場合
; 528  :                 *r = &number_one;

	lea	rax, OFFSET FLAT:number_one
$LN40@PMC_ModPow:

; 544  :             }
; 545  :         }
; 546  :     }
; 547  :     return (PMC_STATUS_OK);

	mov	QWORD PTR [r9], rax
$LN21@PMC_ModPow:
	xor	eax, eax
$LN39@PMC_ModPow:
	mov	rbp, QWORD PTR [rsp+96]

; 548  : }

	mov	rbx, QWORD PTR [rsp+104]
	mov	rsi, QWORD PTR [rsp+120]
	add	rsp, 80					; 00000050H
	pop	rdi
	ret	0
PMC_ModPow_X_X_X_Imp ENDP
_TEXT	ENDS
; Function compile flags: /Ogtpy
; File z:\sources\lunor\repos\rougemeilland\palmtree.math.core.uint\palmtree.math.core.uint\pmc_modpow.c
; File z:\sources\lunor\repos\rougemeilland\palmtree.math.core.uint\palmtree.math.core.uint\pmc_inline_func.h
; File z:\sources\lunor\repos\rougemeilland\palmtree.math.core.uint\palmtree.math.core.uint\pmc_modpow.c
; File z:\sources\lunor\repos\rougemeilland\palmtree.math.core.uint\palmtree.math.core.uint\pmc_inline_func.h
; File z:\sources\lunor\repos\rougemeilland\palmtree.math.core.uint\palmtree.math.core.uint\pmc_modpow.c
; File z:\sources\lunor\repos\rougemeilland\palmtree.math.core.uint\palmtree.math.core.uint\pmc_inline_func.h
; File z:\sources\lunor\repos\rougemeilland\palmtree.math.core.uint\palmtree.math.core.uint\pmc_modpow.c
; File z:\sources\lunor\repos\rougemeilland\palmtree.math.core.uint\palmtree.math.core.uint\pmc_inline_func.h
; File z:\sources\lunor\repos\rougemeilland\palmtree.math.core.uint\palmtree.math.core.uint\pmc_modpow.c
; File z:\sources\lunor\repos\rougemeilland\palmtree.math.core.uint\palmtree.math.core.uint\pmc_inline_func.h
; File z:\sources\lunor\repos\rougemeilland\palmtree.math.core.uint\palmtree.math.core.uint\pmc_modpow.c
; File z:\sources\lunor\repos\rougemeilland\palmtree.math.core.uint\palmtree.math.core.uint\pmc_inline_func.h
; File z:\sources\lunor\repos\rougemeilland\palmtree.math.core.uint\palmtree.math.core.uint\pmc_modpow.c
; File z:\sources\lunor\repos\rougemeilland\palmtree.math.core.uint\palmtree.math.core.uint\pmc_inline_func.h
; File z:\sources\lunor\repos\rougemeilland\palmtree.math.core.uint\palmtree.math.core.uint\pmc_modpow.c
; File z:\sources\lunor\repos\rougemeilland\palmtree.math.core.uint\palmtree.math.core.uint\pmc_inline_func.h
; File z:\sources\lunor\repos\rougemeilland\palmtree.math.core.uint\palmtree.math.core.uint\pmc_modpow.c
; File z:\sources\lunor\repos\rougemeilland\palmtree.math.core.uint\palmtree.math.core.uint\pmc_inline_func.h
; File z:\sources\lunor\repos\rougemeilland\palmtree.math.core.uint\palmtree.math.core.uint\pmc_modpow.c
; File z:\sources\lunor\repos\rougemeilland\palmtree.math.core.uint\palmtree.math.core.uint\pmc_inline_func.h
; File z:\sources\lunor\repos\rougemeilland\palmtree.math.core.uint\palmtree.math.core.uint\pmc_modpow.c
; File z:\sources\lunor\repos\rougemeilland\palmtree.math.core.uint\palmtree.math.core.uint\pmc_inline_func.h
; File z:\sources\lunor\repos\rougemeilland\palmtree.math.core.uint\palmtree.math.core.uint\pmc_modpow.c
; File z:\sources\lunor\repos\rougemeilland\palmtree.math.core.uint\palmtree.math.core.uint\pmc_inline_func.h
; File z:\sources\lunor\repos\rougemeilland\palmtree.math.core.uint\palmtree.math.core.uint\pmc_modpow.c
; File z:\sources\lunor\repos\rougemeilland\palmtree.math.core.uint\palmtree.math.core.uint\pmc_inline_func.h
; File z:\sources\lunor\repos\rougemeilland\palmtree.math.core.uint\palmtree.math.core.uint\pmc_modpow.c
; File z:\sources\lunor\repos\rougemeilland\palmtree.math.core.uint\palmtree.math.core.uint\pmc_inline_func.h
; File z:\sources\lunor\repos\rougemeilland\palmtree.math.core.uint\palmtree.math.core.uint\pmc_modpow.c
;	COMDAT ModulePower
_TEXT	SEGMENT
work_v_buf_words$ = 64
work_2_buf_words$ = 72
work_1_buf$1$ = 80
v_2_buf$1$ = 88
work_v_buf$1$ = 96
work_2_buf$1$ = 104
m_buf$1$ = 112
work_1_buf_code$ = 120
work_2_buf_code$ = 128
work_v_buf_code$ = 136
e_count$1$ = 144
e_mask$1$ = 152
v_2_buf_code$ = 160
r_check_code$ = 168
work_1_buf_words$ = 256
v$ = 256
e$ = 264
v_2_buf_words$ = 272
m$ = 272
r$ = 280
ModulePower PROC					; COMDAT

; 138  : {

	mov	QWORD PTR [rsp+32], r9
	mov	QWORD PTR [rsp+16], rdx
	push	rbp
	push	rbx
	push	rsi
	push	r13
	push	r14
	lea	rbp, QWORD PTR [rsp-55]
	sub	rsp, 208				; 000000d0H

; 139  : #ifdef DO_TRACE
; 140  :     ReportIN(v, e, m);
; 141  : #endif
; 142  :     PMC_STATUS_CODE result;
; 143  :     __UNIT_TYPE* m_buf = m->BLOCK;

	mov	rax, QWORD PTR [r8+64]

; 144  :     __UNIT_TYPE m_count = m->UNIT_WORD_COUNT;
; 145  : 
; 146  :     // 作業域を獲得する
; 147  : 
; 148  :     __UNIT_TYPE v_2_bit_count = v->UNIT_WORD_COUNT * __UNIT_TYPE_BIT_COUNT + __UNIT_TYPE_BIT_COUNT;
; 149  :     __UNIT_TYPE v_2_buf_code;
; 150  :     __UNIT_TYPE v_2_buf_words;
; 151  :     __UNIT_TYPE* v_2_buf = AllocateBlock(v_2_bit_count, &v_2_buf_words, &v_2_buf_code);

	lea	rdx, QWORD PTR v_2_buf_words$[rbp-153]
	mov	r14, QWORD PTR [r8+16]
	mov	rbx, rcx
	mov	rcx, QWORD PTR [rcx+16]
	mov	rsi, r8
	inc	rcx
	mov	QWORD PTR m_buf$1$[rbp-153], rax
	shl	rcx, 6
	lea	r8, QWORD PTR v_2_buf_code$[rbp-153]
	call	AllocateBlock
	mov	QWORD PTR v_2_buf$1$[rbp-153], rax
	mov	r13, rax

; 152  :     if (v_2_buf == NULL)

	test	rax, rax
	jne	SHORT $LN10@ModulePowe

; 153  :     {
; 154  :         return (PMC_STATUS_NOT_ENOUGH_MEMORY);

	lea	eax, QWORD PTR [r13-5]

; 453  : }

	add	rsp, 208				; 000000d0H
	pop	r14
	pop	r13
	pop	rsi
	pop	rbx
	pop	rbp
	ret	0
$LN10@ModulePowe:
	mov	QWORD PTR [rsp+200], rdi

; 155  :     }
; 156  : 
; 157  :     __UNIT_TYPE work_1_bit_count = m_count * 2 * __UNIT_TYPE_BIT_COUNT + __UNIT_TYPE_BIT_COUNT;
; 158  :     __UNIT_TYPE work_1_buf_code;
; 159  :     __UNIT_TYPE work_1_buf_words;
; 160  :     __UNIT_TYPE* work_1_buf = AllocateBlock(work_1_bit_count, &work_1_buf_words, &work_1_buf_code);

	lea	r8, QWORD PTR work_1_buf_code$[rbp-153]
	mov	rdi, r14
	mov	QWORD PTR [rsp+184], r15
	shl	rdi, 7
	lea	rdx, QWORD PTR work_1_buf_words$[rbp-153]
	lea	rcx, QWORD PTR [rdi+64]
	call	AllocateBlock
	mov	QWORD PTR work_1_buf$1$[rbp-153], rax
	mov	r15, rax

; 161  :     if (work_1_buf == NULL)

	test	rax, rax
	jne	SHORT $LN11@ModulePowe

; 162  :     {
; 163  :         DeallocateBlock(v_2_buf, v_2_buf_words);

	mov	rdx, QWORD PTR v_2_buf_words$[rbp-153]
	mov	rcx, r13
	call	DeallocateBlock

; 164  :         return (PMC_STATUS_NOT_ENOUGH_MEMORY);

	lea	eax, QWORD PTR [r15-5]
	jmp	$LN113@ModulePowe
$LN11@ModulePowe:

; 165  :     }
; 166  : 
; 167  :     __UNIT_TYPE work_2_bit_count = m_count * 2 * __UNIT_TYPE_BIT_COUNT + __UNIT_TYPE_BIT_COUNT;
; 168  :     __UNIT_TYPE work_2_buf_code;
; 169  :     __UNIT_TYPE work_2_buf_words;
; 170  :     __UNIT_TYPE* work_2_buf = AllocateBlock(work_2_bit_count, &work_2_buf_words, &work_2_buf_code);

	lea	r8, QWORD PTR work_2_buf_code$[rbp-153]
	mov	QWORD PTR [rsp+192], r12
	lea	rdx, QWORD PTR work_2_buf_words$[rbp-153]
	lea	rcx, QWORD PTR [rdi+64]
	call	AllocateBlock
	mov	QWORD PTR work_2_buf$1$[rbp-153], rax
	mov	r12, rax

; 171  :     if (work_2_buf == NULL)

	test	rax, rax
	je	SHORT $LN118@ModulePowe

; 172  :     {
; 173  :         DeallocateBlock(work_1_buf, work_1_buf_words);
; 174  :         DeallocateBlock(v_2_buf, v_2_buf_words);
; 175  :         return (PMC_STATUS_NOT_ENOUGH_MEMORY);
; 176  :     }
; 177  : 
; 178  :     __UNIT_TYPE work_v_bit_count = m_count * __UNIT_TYPE_BIT_COUNT;

	mov	rcx, r14

; 179  :     __UNIT_TYPE work_v_buf_code;
; 180  :     __UNIT_TYPE work_v_buf_words;
; 181  :     __UNIT_TYPE* work_v_buf = AllocateBlock(work_v_bit_count, &work_v_buf_words, &work_v_buf_code);

	lea	r8, QWORD PTR work_v_buf_code$[rbp-153]
	shl	rcx, 6
	lea	rdx, QWORD PTR work_v_buf_words$[rbp-153]
	call	AllocateBlock
	mov	QWORD PTR work_v_buf$1$[rbp-153], rax
	mov	rdi, rax

; 182  :     if (work_v_buf == NULL)

	test	rax, rax
	je	SHORT $LN117@ModulePowe

; 183  :     {
; 184  :         DeallocateBlock(work_2_buf, work_2_buf_words);
; 185  :         DeallocateBlock(work_1_buf, work_1_buf_words);
; 186  :         DeallocateBlock(v_2_buf, v_2_buf_words);
; 187  :         return (PMC_STATUS_NOT_ENOUGH_MEMORY);
; 188  :     }
; 189  : 
; 190  :     __UNIT_TYPE r_bit_count = m->UNIT_BIT_COUNT;
; 191  :     __UNIT_TYPE r_check_code;
; 192  :     if ((result = AllocateNumber(r, r_bit_count, &r_check_code)) != PMC_STATUS_OK)

	mov	rdx, QWORD PTR [rsi+24]
	lea	r8, QWORD PTR r_check_code$[rbp-153]
	mov	rsi, QWORD PTR r$[rbp-153]
	mov	rcx, rsi
	call	AllocateNumber
	test	eax, eax
	je	SHORT $LN14@ModulePowe

; 193  :     {
; 194  :         DeallocateBlock(work_v_buf, work_v_buf_words);

	mov	rdx, QWORD PTR work_v_buf_words$[rbp-153]
	mov	rcx, rdi
	call	DeallocateBlock
$LN117@ModulePowe:

; 195  :         DeallocateBlock(work_2_buf, work_2_buf_words);

	mov	rdx, QWORD PTR work_2_buf_words$[rbp-153]
	mov	rcx, r12
	call	DeallocateBlock
$LN118@ModulePowe:

; 196  :         DeallocateBlock(work_1_buf, work_1_buf_words);

	mov	rdx, QWORD PTR work_1_buf_words$[rbp-153]
	mov	rcx, r15
	call	DeallocateBlock

; 197  :         DeallocateBlock(v_2_buf, v_2_buf_words);

	mov	rdx, QWORD PTR v_2_buf_words$[rbp-153]
	mov	rcx, r13
	call	DeallocateBlock

; 198  :         return (PMC_STATUS_NOT_ENOUGH_MEMORY);

	mov	eax, -5
	jmp	$LN114@ModulePowe
$LN14@ModulePowe:

; 199  :     }
; 200  : 
; 201  :     __UNIT_TYPE v_count;
; 202  :     int cmp = Compare_Easy(v->BLOCK, v->UNIT_WORD_COUNT, m_buf, m_count);

	mov	r8, QWORD PTR [rbx+16]

; 82   :     if (u_count > v_count)

	cmp	r8, r14
	jbe	$LN44@ModulePowe

; 83   :         return (1);

	mov	eax, 1
$LN15@ModulePowe:

; 219  :     }
; 220  :     else if (cmp > 0)

	mov	rcx, QWORD PTR [rbx+16]
	mov	rsi, QWORD PTR [rbx+64]
	test	eax, eax
	jle	$LN17@ModulePowe

; 221  :     {
; 222  :         // v > m である場合
; 223  : 
; 224  :         // v2 を v % m に設定する。
; 225  : 
; 226  :         DivRem_X_X(v->BLOCK, v->UNIT_WORD_COUNT, m_buf, m_count, work_v_buf, NULL, v_2_buf);

	mov	r8, QWORD PTR m_buf$1$[rbp-153]
	mov	rdx, rcx
	mov	QWORD PTR [rsp+48], r13
	mov	rcx, rsi
	mov	QWORD PTR [rsp+40], 0
	mov	r9, r14
	mov	QWORD PTR [rsp+32], rdi
	call	DivRem_X_X

; 227  :         if ((result = CheckBlockLight(work_v_buf, work_v_buf_code)) != PMC_STATUS_OK)

	mov	rdx, QWORD PTR work_v_buf_code$[rbp-153]
	mov	rcx, rdi
	call	CheckBlockLight
	test	eax, eax
	jne	$LN114@ModulePowe

; 228  :             return (result);
; 229  :         if ((result = CheckBlockLight(v_2_buf, v_2_buf_code)) != PMC_STATUS_OK)

	mov	rdx, QWORD PTR v_2_buf_code$[rbp-153]
	mov	rcx, r13
	call	CheckBlockLight
	test	eax, eax
	jne	$LN114@ModulePowe

; 230  :             return (result);
; 231  :         v_count = m_count;

	mov	r13, r14

; 232  :         while (v_count > 0 && v_2_buf[v_count - 1] == 0)

	test	r14, r14
	je	$LN106@ModulePowe

; 230  :             return (result);
; 231  :         v_count = m_count;

	mov	rdx, QWORD PTR v_2_buf$1$[rbp-153]
	lea	rax, QWORD PTR [rdx-8]
	lea	rax, QWORD PTR [rax+r14*8]
	npad	3
$LL2@ModulePowe:

; 232  :         while (v_count > 0 && v_2_buf[v_count - 1] == 0)

	cmp	QWORD PTR [rax], 0
	jne	SHORT $LN3@ModulePowe

; 233  :             --v_count;

	sub	rax, 8
	sub	r13, 1
	jne	SHORT $LL2@ModulePowe

; 234  : 
; 235  :         if (v_count <= 0)

	jmp	SHORT $LN106@ModulePowe
$LN44@ModulePowe:

; 84   :     else if (u_count < v_count)

	jae	SHORT $LN46@ModulePowe

; 85   :         return (-1);

	mov	eax, -1
	jmp	$LN15@ModulePowe
$LN46@ModulePowe:

; 86   :     else
; 87   :         return (Compare_Imp(u, v, u_count));

	mov	rdx, QWORD PTR m_buf$1$[rbp-153]
	mov	rcx, QWORD PTR [rbx+64]
	call	Compare_Imp

; 203  :     if (cmp == 0)

	test	eax, eax
	jne	$LN15@ModulePowe

; 204  :     {
; 205  :         // v == m である場合
; 206  : 
; 207  :         // v を何乗してもその剰余は 0 であるため、0 を返す。
; 208  : 
; 209  :         DeallocateNumber(*r);

	mov	rcx, QWORD PTR [rsi]
	call	DeallocateNumber

; 210  :         DeallocateBlock(work_v_buf, work_v_buf_words);

	mov	rdx, QWORD PTR work_v_buf_words$[rbp-153]
	mov	rcx, rdi
	call	DeallocateBlock

; 211  :         DeallocateBlock(work_2_buf, work_2_buf_words);

	mov	rdx, QWORD PTR work_2_buf_words$[rbp-153]
	mov	rcx, r12
	call	DeallocateBlock

; 212  :         DeallocateBlock(work_1_buf, work_1_buf_words);

	mov	rdx, QWORD PTR work_1_buf_words$[rbp-153]
	mov	rcx, r15
	call	DeallocateBlock

; 213  :         DeallocateBlock(v_2_buf, v_2_buf_words);

	mov	rdx, QWORD PTR v_2_buf_words$[rbp-153]
	mov	rcx, r13
	call	DeallocateBlock

; 214  :         *r = &number_zero;

	lea	rax, OFFSET FLAT:number_zero
	mov	QWORD PTR [rsi], rax

; 215  : #ifdef DO_TRACE
; 216  :         ReportOUT(*r);
; 217  : #endif
; 218  :         return (PMC_STATUS_OK);

	jmp	$LN115@ModulePowe
$LN3@ModulePowe:

; 234  : 
; 235  :         if (v_count <= 0)

	test	r13, r13
	jne	SHORT $LN18@ModulePowe
$LN106@ModulePowe:

; 236  :         {
; 237  :             // v2 が 0 になってしまった場合はべき乗を繰り返しても 0 になることが確定なので 0 を返す
; 238  :             DeallocateNumber(*r);

	mov	r14, QWORD PTR r$[rbp-153]
	mov	rcx, QWORD PTR [r14]
	call	DeallocateNumber

; 239  :             DeallocateBlock(work_v_buf, work_v_buf_words);

	mov	rdx, QWORD PTR work_v_buf_words$[rbp-153]
	mov	rcx, rdi
	call	DeallocateBlock

; 240  :             DeallocateBlock(work_2_buf, work_2_buf_words);

	mov	rdx, QWORD PTR work_2_buf_words$[rbp-153]
	mov	rcx, r12
	call	DeallocateBlock

; 241  :             DeallocateBlock(work_1_buf, work_1_buf_words);

	mov	rcx, r15
$LN119@ModulePowe:

; 449  : #ifdef DO_TRACE
; 450  :     ReportOUT(*r);
; 451  : #endif
; 452  :     return (PMC_STATUS_OK);

	mov	rdx, QWORD PTR work_1_buf_words$[rbp-153]
	call	DeallocateBlock
	mov	rdx, QWORD PTR v_2_buf_words$[rbp-153]
	mov	rcx, QWORD PTR v_2_buf$1$[rbp-153]
	call	DeallocateBlock
	lea	rax, OFFSET FLAT:number_zero
	mov	QWORD PTR [r14], rax
	jmp	$LN115@ModulePowe
$LN17@ModulePowe:
	mov	rdx, QWORD PTR v_2_buf$1$[rbp-153]
; File z:\sources\lunor\repos\rougemeilland\palmtree.math.core.uint\palmtree.math.core.uint\pmc_inline_func.h

; 64   :         __movsq(d, s, count);

	mov	rdi, r13
	rep movsq
; File z:\sources\lunor\repos\rougemeilland\palmtree.math.core.uint\palmtree.math.core.uint\pmc_modpow.c

; 255  :         v_count = v->UNIT_WORD_COUNT;

	mov	r13, QWORD PTR [rbx+16]
$LN18@ModulePowe:

; 256  :     }
; 257  : 
; 258  : #ifdef DO_TRACE
; 259  :     ReportLabel("vの初期化");
; 260  :     ReportDump("v", v_2_buf, v_count);
; 261  : #endif
; 262  :     __UNIT_TYPE e_count = e->UNIT_WORD_COUNT;

	mov	rax, QWORD PTR e$[rbp-153]
	mov	r8, QWORD PTR [rax+16]

; 264  :     e_mask = e_mask >> _LZCNT_ALT_UNIT(e->BLOCK[e_count - 1]);

	mov	rax, QWORD PTR [rax+64]
	mov	rcx, QWORD PTR [rax+r8*8-8]
; File z:\sources\lunor\repos\rougemeilland\palmtree.math.core.uint\palmtree.math.core.uint\pmc_inline_func.h

; 624  :         if (x == 0)

	test	rcx, rcx
	jne	SHORT $LN52@ModulePowe

; 625  :             return (sizeof(x) * 8);

	mov	ecx, 64					; 00000040H
	jmp	SHORT $LN51@ModulePowe
$LN52@ModulePowe:

; 626  : #ifdef _M_IX86
; 627  :         _UINT32_T pos;
; 628  : #ifdef _MSC_VER
; 629  :         _BitScanReverse(&pos, x);
; 630  : #elif defined(__GNUC__)
; 631  :         __asm__("bsrl %1, %0" : "=r"(pos) : "rm"(x));
; 632  : #else
; 633  : #error unknown compiler
; 634  : #endif
; 635  : #elif defined(_M_X64)
; 636  : #ifdef _MSC_VER
; 637  :         _UINT32_T pos;
; 638  :         _BitScanReverse64(&pos, x);

	bsr	rax, rcx

; 639  : #elif defined(__GNUC__)
; 640  :         _UINT64_T pos;
; 641  :         __asm__("bsrq %1, %0" : "=r"(pos) : "rm"(x));
; 642  : #else
; 643  : #error unknown compiler
; 644  : #endif
; 645  : #else
; 646  : #error unknown platform
; 647  : #endif
; 648  :         return (sizeof(x) * 8 - 1 - pos);

	mov	ecx, 63					; 0000003fH
	sub	ecx, eax
$LN51@ModulePowe:
; File z:\sources\lunor\repos\rougemeilland\palmtree.math.core.uint\palmtree.math.core.uint\pmc_modpow.c

; 264  :     e_mask = e_mask >> _LZCNT_ALT_UNIT(e->BLOCK[e_count - 1]);

	mov	r9, -9223372036854775808		; 8000000000000000H
; File z:\sources\lunor\repos\rougemeilland\palmtree.math.core.uint\palmtree.math.core.uint\pmc_inline_func.h

; 64   :         __movsq(d, s, count);

	mov	rdi, r15
; File z:\sources\lunor\repos\rougemeilland\palmtree.math.core.uint\palmtree.math.core.uint\pmc_modpow.c

; 264  :     e_mask = e_mask >> _LZCNT_ALT_UNIT(e->BLOCK[e_count - 1]);

	mov	rax, r9
; File z:\sources\lunor\repos\rougemeilland\palmtree.math.core.uint\palmtree.math.core.uint\pmc_inline_func.h

; 64   :         __movsq(d, s, count);

	mov	rsi, rdx
; File z:\sources\lunor\repos\rougemeilland\palmtree.math.core.uint\palmtree.math.core.uint\pmc_modpow.c

; 264  :     e_mask = e_mask >> _LZCNT_ALT_UNIT(e->BLOCK[e_count - 1]);

	shr	rax, cl

; 265  :     // e_mask は e の最上位 bit を示しているはず
; 266  :     // かつ、e は 2以上であるので、同時に最下位 bit であることはあり得ない
; 267  :     _COPY_MEMORY_UNIT(work_1_buf, v_2_buf, m_count);
; 268  : 
; 269  : #ifdef _DEBUG
; 270  :     if ((e_mask & e->BLOCK[e_count - 1]) == 0)
; 271  :         *((int*)0) = 0;
; 272  : #endif
; 273  : 
; 274  :     __UNIT_TYPE* u_ptr = work_1_buf;
; 275  :     __UNIT_TYPE* v_ptr = v_2_buf;
; 276  :     __UNIT_TYPE* w_ptr = work_2_buf;
; 277  :     __UNIT_TYPE u_count = v_count;

	mov	rbx, r13
; File z:\sources\lunor\repos\rougemeilland\palmtree.math.core.uint\palmtree.math.core.uint\pmc_inline_func.h

; 64   :         __movsq(d, s, count);

	mov	rcx, r14
	rep movsq
; File z:\sources\lunor\repos\rougemeilland\palmtree.math.core.uint\palmtree.math.core.uint\pmc_modpow.c

; 279  :     while (e_count > 0)

	test	r8, r8
	je	$LN5@ModulePowe
	npad	7
$LL4@ModulePowe:

; 280  :     {
; 281  : #ifdef DO_TRACE
; 282  :         ReportLabel("ループ開始");
; 283  :         ReportVar("e_count", e_count);
; 284  :         ReportVar("e_mask", e_mask);
; 285  : #endif
; 286  : 
; 287  :         // 次の桁の準備をする
; 288  :         e_mask >>= 1;

	shr	rax, 1
	mov	rcx, rax

; 289  :         if (e_mask == 0)

	cmove	rax, r9

; 290  :         {
; 291  :             e_mask = ~((__UNIT_TYPE)-1 >> 1);
; 292  :             --e_count;
; 293  :         }
; 294  : 
; 295  :         if (e_count <= 0)

	test	rcx, rcx
	mov	QWORD PTR e_mask$1$[rbp-153], rax
	lea	rax, QWORD PTR [r8-1]
	cmovne	rax, r8
	mov	QWORD PTR e_count$1$[rbp-153], rax
	test	rax, rax
	je	$LN5@ModulePowe
; File z:\sources\lunor\repos\rougemeilland\palmtree.math.core.uint\palmtree.math.core.uint\pmc_inline_func.h

; 114  :         __stosq(d, 0, count);

	mov	rcx, QWORD PTR work_1_buf_words$[rbp-153]
	xor	eax, eax
	mov	rdi, r12
; File z:\sources\lunor\repos\rougemeilland\palmtree.math.core.uint\palmtree.math.core.uint\pmc_modpow.c

; 310  :         Multiply_X_X_Imp(u_ptr, u_count, u_ptr, u_count, w_ptr);

	mov	QWORD PTR [rsp+32], r12
; File z:\sources\lunor\repos\rougemeilland\palmtree.math.core.uint\palmtree.math.core.uint\pmc_inline_func.h

; 114  :         __stosq(d, 0, count);

	rep stosq
; File z:\sources\lunor\repos\rougemeilland\palmtree.math.core.uint\palmtree.math.core.uint\pmc_modpow.c

; 310  :         Multiply_X_X_Imp(u_ptr, u_count, u_ptr, u_count, w_ptr);

	mov	rcx, r15
	mov	r9, rbx
	mov	r8, r15
	mov	rdx, rbx
	call	Multiply_X_X_Imp

; 311  :         if ((result = CheckBlockLight(work_1_buf, work_1_buf_code)) != PMC_STATUS_OK)

	mov	rdx, QWORD PTR work_1_buf_code$[rbp-153]
	mov	rcx, QWORD PTR work_1_buf$1$[rbp-153]
	call	CheckBlockLight
	test	eax, eax
	jne	$LN114@ModulePowe

; 312  :             return (result);
; 313  :         if ((result = CheckBlockLight(work_2_buf, work_2_buf_code)) != PMC_STATUS_OK)

	mov	rdx, QWORD PTR work_2_buf_code$[rbp-153]
	mov	rcx, QWORD PTR work_2_buf$1$[rbp-153]
	call	CheckBlockLight
	test	eax, eax
	jne	$LN114@ModulePowe

; 94   :     *v = t;

	lea	rcx, QWORD PTR [rbx+rbx]
	mov	rsi, r15

; 314  :             return (result);
; 315  :         SwapPointer(&u_ptr, &w_ptr);
; 316  :         u_count *= 2;
; 317  :         if (u_ptr[u_count - 1] == 0)

	add	rbx, rbx

; 93   :     *u = *v;

	mov	r15, r12

; 94   :     *v = t;

	mov	r12, rsi

; 318  :             --u_count;
; 319  : #ifdef DO_TRACE
; 320  :         ReportDump("w", u_ptr, u_count);
; 321  : #endif
; 322  : 
; 323  :         // w := u % m を計算する
; 324  : #ifdef DO_TRACE
; 325  :         ReportLabel("w := u % m");
; 326  :         ReportDump("u", u_ptr, u_count);
; 327  :         ReportDump("m", m_buf, m_count);
; 328  : #endif
; 329  :         if (u_count >= m_count)

	mov	rax, QWORD PTR [r15+rbx*8-8]
	lea	rbx, QWORD PTR [rcx-1]
	test	rax, rax
	cmovne	rbx, rcx
	cmp	rbx, r14
	jb	$LN7@ModulePowe
; File z:\sources\lunor\repos\rougemeilland\palmtree.math.core.uint\palmtree.math.core.uint\pmc_inline_func.h

; 114  :         __stosq(d, 0, count);

	mov	rcx, QWORD PTR work_v_buf_words$[rbp-153]
	xor	eax, eax
	mov	r12, QWORD PTR work_v_buf$1$[rbp-153]
; File z:\sources\lunor\repos\rougemeilland\palmtree.math.core.uint\palmtree.math.core.uint\pmc_modpow.c

; 333  :             DivRem_X_X(u_ptr, u_count, m_buf, m_count, work_v_buf, NULL, w_ptr);

	mov	r9, r14
	mov	r8, QWORD PTR m_buf$1$[rbp-153]
; File z:\sources\lunor\repos\rougemeilland\palmtree.math.core.uint\palmtree.math.core.uint\pmc_inline_func.h

; 114  :         __stosq(d, 0, count);

	mov	rdi, r12
	rep stosq
	mov	rcx, QWORD PTR work_1_buf_words$[rbp-153]
	mov	rdi, rsi
	rep stosq
; File z:\sources\lunor\repos\rougemeilland\palmtree.math.core.uint\palmtree.math.core.uint\pmc_modpow.c

; 333  :             DivRem_X_X(u_ptr, u_count, m_buf, m_count, work_v_buf, NULL, w_ptr);

	mov	QWORD PTR [rsp+48], rsi
	mov	rcx, r15
	mov	QWORD PTR [rsp+40], rax
	mov	rdx, rbx
	mov	QWORD PTR [rsp+32], r12
	call	DivRem_X_X

; 334  :             if ((result = CheckBlockLight(work_v_buf, work_v_buf_code)) != PMC_STATUS_OK)

	mov	rdx, QWORD PTR work_v_buf_code$[rbp-153]
	mov	rcx, r12
	call	CheckBlockLight
	test	eax, eax
	jne	$LN114@ModulePowe

; 335  :                 return (result);
; 336  :             if ((result = CheckBlockLight(work_1_buf, work_1_buf_code)) != PMC_STATUS_OK)

	mov	rdx, QWORD PTR work_1_buf_code$[rbp-153]
	mov	rcx, QWORD PTR work_1_buf$1$[rbp-153]
	call	CheckBlockLight
	test	eax, eax
	jne	$LN114@ModulePowe

; 337  :                 return (result);
; 338  :             if ((result = CheckBlockLight(work_2_buf, work_2_buf_code)) != PMC_STATUS_OK)

	mov	rdi, QWORD PTR work_2_buf$1$[rbp-153]
	mov	rdx, QWORD PTR work_2_buf_code$[rbp-153]
	mov	rcx, rdi
	call	CheckBlockLight
	test	eax, eax
	jne	$LN114@ModulePowe

; 92   :     __UNIT_TYPE* t = *u;

	mov	r12, r15

; 93   :     *u = *v;

	mov	r15, rsi

; 339  :                 return (result);
; 340  :             SwapPointer(&u_ptr, &w_ptr);
; 341  :             u_count = m_count;

	mov	rbx, r14

; 342  :             while (u_count > 0 && u_ptr[u_count - 1] == 0)

	test	r14, r14
	je	SHORT $LN88@ModulePowe

; 92   :     __UNIT_TYPE* t = *u;

	lea	rax, QWORD PTR [r14-1]
	lea	rax, QWORD PTR [rsi+rax*8]
	npad	3
$LL6@ModulePowe:

; 342  :             while (u_count > 0 && u_ptr[u_count - 1] == 0)

	cmp	QWORD PTR [rax], 0
	jne	SHORT $LN7@ModulePowe

; 343  :                 --u_count;

	sub	rax, 8
	sub	rbx, 1
	jne	SHORT $LL6@ModulePowe
$LN88@ModulePowe:

; 449  : #ifdef DO_TRACE
; 450  :     ReportOUT(*r);
; 451  : #endif
; 452  :     return (PMC_STATUS_OK);

	mov	r14, QWORD PTR r$[rbp-153]
	mov	rcx, QWORD PTR [r14]
	call	DeallocateNumber
	mov	rdx, QWORD PTR work_v_buf_words$[rbp-153]
	mov	rcx, QWORD PTR work_v_buf$1$[rbp-153]
	call	DeallocateBlock
	mov	rdx, QWORD PTR work_2_buf_words$[rbp-153]
	mov	rcx, rdi
	call	DeallocateBlock
	mov	rcx, QWORD PTR work_1_buf$1$[rbp-153]
	jmp	$LN119@ModulePowe
$LN7@ModulePowe:

; 344  : 
; 345  :             if (u_count <= 0)
; 346  :             {
; 347  :                 // 剰余が 0 になった場合はこれ以上続行しても解が 0 以外にはならないので、処理を中断して 0 を返す
; 348  :                 DeallocateNumber(*r);
; 349  :                 DeallocateBlock(work_v_buf, work_v_buf_words);
; 350  :                 DeallocateBlock(work_2_buf, work_2_buf_words);
; 351  :                 DeallocateBlock(work_1_buf, work_1_buf_words);
; 352  :                 DeallocateBlock(v_2_buf, v_2_buf_words);
; 353  :                 *r = &number_zero;
; 354  : #ifdef DO_TRACE
; 355  :                 ReportOUT(*r);
; 356  : #endif
; 357  :                 return (PMC_STATUS_OK);
; 358  :             }
; 359  :         }
; 360  : #ifdef DO_TRACE
; 361  :         ReportDump("w", u_ptr, u_count);
; 362  : #endif
; 363  : 
; 364  : #ifdef DO_TRACE
; 365  :         ReportLabel("e のビット検査");
; 366  :         ReportDump("e", e->BLOCK, e->UNIT_WORD_COUNT);
; 367  :         ReportVar("e_count", e_count);
; 368  :         ReportVar("e_mask", e_mask);
; 369  :         ReportVar("e_mask & e->BLOCK[e_count - 1]", e_mask & e->BLOCK[e_count - 1]);
; 370  : #endif
; 371  :         if (e_mask & e->BLOCK[e_count - 1])

	mov	rax, QWORD PTR e$[rbp-153]
	mov	r8, QWORD PTR e_count$1$[rbp-153]
	mov	rcx, QWORD PTR e_mask$1$[rbp-153]
	mov	rax, QWORD PTR [rax+64]
	test	QWORD PTR [rax+r8*8-8], rcx
	je	$LN9@ModulePowe
; File z:\sources\lunor\repos\rougemeilland\palmtree.math.core.uint\palmtree.math.core.uint\pmc_inline_func.h

; 114  :         __stosq(d, 0, count);

	mov	rcx, QWORD PTR work_1_buf_words$[rbp-153]
	xor	eax, eax
; File z:\sources\lunor\repos\rougemeilland\palmtree.math.core.uint\palmtree.math.core.uint\pmc_modpow.c

; 383  :             Multiply_X_X_Imp(u_ptr, u_count, v_ptr, v_count, w_ptr);

	mov	r8, QWORD PTR v_2_buf$1$[rbp-153]
; File z:\sources\lunor\repos\rougemeilland\palmtree.math.core.uint\palmtree.math.core.uint\pmc_inline_func.h

; 114  :         __stosq(d, 0, count);

	mov	rdi, r12
	rep stosq
; File z:\sources\lunor\repos\rougemeilland\palmtree.math.core.uint\palmtree.math.core.uint\pmc_modpow.c

; 383  :             Multiply_X_X_Imp(u_ptr, u_count, v_ptr, v_count, w_ptr);

	mov	rcx, r15
	mov	QWORD PTR [rsp+32], r12
	mov	r9, r13
	mov	rdx, rbx
	call	Multiply_X_X_Imp

; 384  :             if ((result = CheckBlockLight(work_1_buf, work_1_buf_code)) != PMC_STATUS_OK)

	mov	rdx, QWORD PTR work_1_buf_code$[rbp-153]
	mov	rcx, QWORD PTR work_1_buf$1$[rbp-153]
	call	CheckBlockLight
	test	eax, eax
	jne	$LN114@ModulePowe

; 385  :                 return (result);
; 386  :             if ((result = CheckBlockLight(work_2_buf, work_2_buf_code)) != PMC_STATUS_OK)

	mov	rdx, QWORD PTR work_2_buf_code$[rbp-153]
	mov	rcx, QWORD PTR work_2_buf$1$[rbp-153]
	call	CheckBlockLight
	test	eax, eax
	jne	$LN114@ModulePowe

; 387  :                 return (result);
; 388  :             SwapPointer(&u_ptr, &w_ptr);
; 389  :             u_count += v_count;

	add	rbx, r13

; 92   :     __UNIT_TYPE* t = *u;

	mov	rsi, r15

; 93   :     *u = *v;

	mov	r15, r12

; 387  :                 return (result);
; 388  :             SwapPointer(&u_ptr, &w_ptr);
; 389  :             u_count += v_count;

	mov	rcx, rbx

; 94   :     *v = t;

	mov	r12, rsi

; 390  :             if (u_ptr[u_count - 1] == 0)
; 391  :                 --u_count;
; 392  : #ifdef DO_TRACE
; 393  :             ReportDump("w", u_ptr, u_count);
; 394  : #endif
; 395  : 
; 396  :             // w := u % m を計算する
; 397  : 
; 398  : #ifdef DO_TRACE
; 399  :             ReportLabel("w := u % m");
; 400  :             ReportDump("u", u_ptr, u_count);
; 401  :             ReportDump("m", m_buf, m_count);
; 402  : #endif
; 403  :             if (u_count >= m_count)

	mov	rax, QWORD PTR [r15+rbx*8-8]
	dec	rbx
	test	rax, rax
	cmovne	rbx, rcx
	cmp	rbx, r14
	jb	$LN111@ModulePowe
; File z:\sources\lunor\repos\rougemeilland\palmtree.math.core.uint\palmtree.math.core.uint\pmc_inline_func.h

; 114  :         __stosq(d, 0, count);

	mov	rcx, QWORD PTR work_v_buf_words$[rbp-153]
	xor	eax, eax
	mov	r12, QWORD PTR work_v_buf$1$[rbp-153]
; File z:\sources\lunor\repos\rougemeilland\palmtree.math.core.uint\palmtree.math.core.uint\pmc_modpow.c

; 407  :                 DivRem_X_X(u_ptr, u_count, m_buf, m_count, work_v_buf, NULL, w_ptr);

	mov	r9, r14
	mov	r8, QWORD PTR m_buf$1$[rbp-153]
; File z:\sources\lunor\repos\rougemeilland\palmtree.math.core.uint\palmtree.math.core.uint\pmc_inline_func.h

; 114  :         __stosq(d, 0, count);

	mov	rdi, r12
	rep stosq
	mov	rcx, QWORD PTR work_1_buf_words$[rbp-153]
	mov	rdi, rsi
	rep stosq
; File z:\sources\lunor\repos\rougemeilland\palmtree.math.core.uint\palmtree.math.core.uint\pmc_modpow.c

; 407  :                 DivRem_X_X(u_ptr, u_count, m_buf, m_count, work_v_buf, NULL, w_ptr);

	mov	QWORD PTR [rsp+48], rsi
	mov	rcx, r15
	mov	QWORD PTR [rsp+40], rax
	mov	rdx, rbx
	mov	QWORD PTR [rsp+32], r12
	call	DivRem_X_X

; 408  :                 if ((result = CheckBlockLight(work_v_buf, work_v_buf_code)) != PMC_STATUS_OK)

	mov	rdx, QWORD PTR work_v_buf_code$[rbp-153]
	mov	rcx, r12
	call	CheckBlockLight
	test	eax, eax
	jne	$LN114@ModulePowe

; 409  :                     return (result);
; 410  :                 if ((result = CheckBlockLight(work_1_buf, work_1_buf_code)) != PMC_STATUS_OK)

	mov	rdx, QWORD PTR work_1_buf_code$[rbp-153]
	mov	rcx, QWORD PTR work_1_buf$1$[rbp-153]
	call	CheckBlockLight
	test	eax, eax
	jne	$LN114@ModulePowe

; 411  :                     return (result);
; 412  :                 if ((result = CheckBlockLight(work_2_buf, work_2_buf_code)) != PMC_STATUS_OK)

	mov	rdi, QWORD PTR work_2_buf$1$[rbp-153]
	mov	rdx, QWORD PTR work_2_buf_code$[rbp-153]
	mov	rcx, rdi
	call	CheckBlockLight
	test	eax, eax
	jne	$LN114@ModulePowe

; 92   :     __UNIT_TYPE* t = *u;

	mov	r12, r15

; 93   :     *u = *v;

	mov	r15, rsi

; 413  :                     return (result);
; 414  :                 SwapPointer(&u_ptr, &w_ptr);
; 415  :                 u_count = m_count;

	mov	rbx, r14

; 416  :                 while (u_count > 0 && u_ptr[u_count - 1] == 0)

	test	r14, r14
	je	$LN88@ModulePowe

; 92   :     __UNIT_TYPE* t = *u;

	lea	rax, QWORD PTR [r14-1]
	lea	rax, QWORD PTR [rsi+rax*8]
$LL8@ModulePowe:

; 416  :                 while (u_count > 0 && u_ptr[u_count - 1] == 0)

	cmp	QWORD PTR [rax], 0
	jne	SHORT $LN111@ModulePowe

; 417  :                     --u_count;

	sub	rax, 8
	sub	rbx, 1
	jne	SHORT $LL8@ModulePowe

; 416  :                 while (u_count > 0 && u_ptr[u_count - 1] == 0)

	jmp	$LN88@ModulePowe
$LN111@ModulePowe:

; 279  :     while (e_count > 0)

	mov	r8, QWORD PTR e_count$1$[rbp-153]
$LN9@ModulePowe:
	mov	rax, QWORD PTR e_mask$1$[rbp-153]
	mov	r9, -9223372036854775808		; 8000000000000000H
	jmp	$LL4@ModulePowe
$LN5@ModulePowe:
; File z:\sources\lunor\repos\rougemeilland\palmtree.math.core.uint\palmtree.math.core.uint\pmc_inline_func.h

; 64   :         __movsq(d, s, count);

	mov	r14, QWORD PTR r$[rbp-153]
	mov	rsi, r15
	mov	rcx, rbx
	mov	rdi, QWORD PTR [r14]
	mov	rdi, QWORD PTR [rdi+64]
	rep movsq
; File z:\sources\lunor\repos\rougemeilland\palmtree.math.core.uint\palmtree.math.core.uint\pmc_modpow.c

; 442  :     if ((result = CheckBlockLight((*r)->BLOCK, r_check_code)) != PMC_STATUS_OK)

	mov	rcx, QWORD PTR [r14]
	mov	rdx, QWORD PTR r_check_code$[rbp-153]
	mov	rcx, QWORD PTR [rcx+64]
	call	CheckBlockLight
	test	eax, eax
	jne	SHORT $LN114@ModulePowe

; 443  :         return (result);
; 444  :     CommitNumber(*r);

	mov	rcx, QWORD PTR [r14]
	call	CommitNumber

; 445  :     DeallocateBlock(work_v_buf, work_v_buf_words);

	mov	rdx, QWORD PTR work_v_buf_words$[rbp-153]
	mov	rcx, QWORD PTR work_v_buf$1$[rbp-153]
	call	DeallocateBlock

; 446  :     DeallocateBlock(work_2_buf, work_2_buf_words);

	mov	rdx, QWORD PTR work_2_buf_words$[rbp-153]
	mov	rcx, QWORD PTR work_2_buf$1$[rbp-153]
	call	DeallocateBlock

; 447  :     DeallocateBlock(work_1_buf, work_1_buf_words);

	mov	rdx, QWORD PTR work_1_buf_words$[rbp-153]
	mov	rcx, QWORD PTR work_1_buf$1$[rbp-153]
	call	DeallocateBlock

; 448  :     DeallocateBlock(v_2_buf, v_2_buf_words);

	mov	rdx, QWORD PTR v_2_buf_words$[rbp-153]
	mov	rcx, QWORD PTR v_2_buf$1$[rbp-153]
	call	DeallocateBlock
$LN115@ModulePowe:

; 449  : #ifdef DO_TRACE
; 450  :     ReportOUT(*r);
; 451  : #endif
; 452  :     return (PMC_STATUS_OK);

	xor	eax, eax
$LN114@ModulePowe:
	mov	r12, QWORD PTR [rsp+192]
$LN113@ModulePowe:
	mov	rdi, QWORD PTR [rsp+200]
	mov	r15, QWORD PTR [rsp+184]

; 453  : }

	add	rsp, 208				; 000000d0H
	pop	r14
	pop	r13
	pop	rsi
	pop	rbx
	pop	rbp
	ret	0
ModulePower ENDP
_TEXT	ENDS
; Function compile flags: /Ogtpy
; File z:\sources\lunor\repos\rougemeilland\palmtree.math.core.uint\palmtree.math.core.uint\pmc_modpow.c
; File z:\sources\lunor\repos\rougemeilland\palmtree.math.core.uint\palmtree.math.core.uint\pmc_inline_func.h
; File z:\sources\lunor\repos\rougemeilland\palmtree.math.core.uint\palmtree.math.core.uint\pmc_modpow.c
;	COMDAT Remainder
_TEXT	SEGMENT
work_v_buf_words$1 = 96
u$ = 96
work_v_buf_code$2 = 104
v$ = 104
r$ = 112
r_check_code$3 = 120
Remainder PROC						; COMDAT

; 98   : {

	mov	QWORD PTR [rsp+24], rbx
	push	rbp
	push	rsi
	push	rdi
	sub	rsp, 64					; 00000040H
	mov	rsi, rcx
	mov	rbx, r8

; 99   :     PMC_STATUS_CODE result;
; 100  : 
; 101  :     if (u->UNIT_BIT_COUNT < v->UNIT_BIT_COUNT)

	mov	rcx, QWORD PTR [rdx+24]
	mov	rdi, rdx
	cmp	QWORD PTR [rsi+24], rcx
	jae	SHORT $LN2@Remainder

; 102  :     {
; 103  :         if ((result = DuplicateNumber(u, r)) != PMC_STATUS_OK)

	mov	rdx, rbx
	mov	rcx, rsi
	call	DuplicateNumber
	test	eax, eax
	je	$LN3@Remainder

; 135  : }

	mov	rbx, QWORD PTR [rsp+112]
	add	rsp, 64					; 00000040H
	pop	rdi
	pop	rsi
	pop	rbp
	ret	0
$LN2@Remainder:

; 104  :             return (result);
; 105  :     }
; 106  :     else
; 107  :     {
; 108  :         __UNIT_TYPE work_v_buf_code;
; 109  :         __UNIT_TYPE work_v_buf_words;
; 110  :         __UNIT_TYPE* work_v_buf = AllocateBlock(v->UNIT_BIT_COUNT, &work_v_buf_words, &work_v_buf_code);

	lea	r8, QWORD PTR work_v_buf_code$2[rsp]
	lea	rdx, QWORD PTR work_v_buf_words$1[rsp]
	call	AllocateBlock
	mov	rbp, rax

; 111  :         if (work_v_buf == NULL)

	test	rax, rax
	je	SHORT $LN14@Remainder

; 112  :             return (PMC_STATUS_NOT_ENOUGH_MEMORY);
; 113  :         __UNIT_TYPE r_check_code;
; 114  :         if ((result = AllocateNumber(r, u->UNIT_BIT_COUNT + __UNIT_TYPE_BIT_COUNT, &r_check_code)) != PMC_STATUS_OK)

	mov	rdx, QWORD PTR [rsi+24]
	lea	r8, QWORD PTR r_check_code$3[rsp]
	add	rdx, 64					; 00000040H
	mov	rcx, rbx
	call	AllocateNumber
	test	eax, eax
	je	SHORT $LN6@Remainder

; 115  :         {
; 116  :             DeallocateBlock(work_v_buf, work_v_buf_words);

	mov	rdx, QWORD PTR work_v_buf_words$1[rsp]
	mov	rcx, rbp
	call	DeallocateBlock
$LN14@Remainder:

; 135  : }

	mov	eax, -5
	mov	rbx, QWORD PTR [rsp+112]
	add	rsp, 64					; 00000040H
	pop	rdi
	pop	rsi
	pop	rbp
	ret	0
$LN6@Remainder:

; 117  :             return (PMC_STATUS_NOT_ENOUGH_MEMORY);
; 118  :         }
; 119  : 
; 120  :         if (u->UNIT_WORD_COUNT < v->UNIT_WORD_COUNT)

	mov	rdx, QWORD PTR [rsi+16]
	mov	r9, QWORD PTR [rdi+16]
	cmp	rdx, r9
	jae	SHORT $LN7@Remainder
; File z:\sources\lunor\repos\rougemeilland\palmtree.math.core.uint\palmtree.math.core.uint\pmc_inline_func.h

; 64   :         __movsq(d, s, count);

	mov	rdi, QWORD PTR [rbx]
	mov	rcx, rdx
	mov	rsi, QWORD PTR [rsi+64]
	mov	rdi, QWORD PTR [rdi+64]
	rep movsq
; File z:\sources\lunor\repos\rougemeilland\palmtree.math.core.uint\palmtree.math.core.uint\pmc_modpow.c

; 121  :             _COPY_MEMORY_UNIT((*r)->BLOCK, u->BLOCK, u->UNIT_WORD_COUNT);

	jmp	SHORT $LN10@Remainder
$LN7@Remainder:

; 122  :         else
; 123  :         {
; 124  :             DivRem_X_X(u->BLOCK, u->UNIT_WORD_COUNT, v->BLOCK, v->UNIT_WORD_COUNT, work_v_buf, NULL, (*r)->BLOCK);

	mov	rax, QWORD PTR [rbx]
	mov	r8, QWORD PTR [rdi+64]
	mov	rcx, QWORD PTR [rax+64]
	mov	QWORD PTR [rsp+48], rcx
	mov	rcx, QWORD PTR [rsi+64]
	mov	QWORD PTR [rsp+40], 0
	mov	QWORD PTR [rsp+32], rbp
	call	DivRem_X_X

; 125  :             if ((result = CheckBlockLight(work_v_buf, work_v_buf_code)) != PMC_STATUS_OK)

	mov	rdx, QWORD PTR work_v_buf_code$2[rsp]
	mov	rcx, rbp
	call	CheckBlockLight
	test	eax, eax
	jne	SHORT $LN1@Remainder

; 126  :                 return (result);
; 127  :             if ((result = CheckBlockLight((*r)->BLOCK, r_check_code)) != PMC_STATUS_OK)

	mov	rcx, QWORD PTR [rbx]
	mov	rdx, QWORD PTR r_check_code$3[rsp]
	mov	rcx, QWORD PTR [rcx+64]
	call	CheckBlockLight
	test	eax, eax
	jne	SHORT $LN1@Remainder
$LN10@Remainder:

; 128  :                 return (result);
; 129  :         }
; 130  : 
; 131  :         DeallocateBlock(work_v_buf, work_v_buf_words);

	mov	rdx, QWORD PTR work_v_buf_words$1[rsp]
	mov	rcx, rbp
	call	DeallocateBlock

; 132  :         CommitNumber(*r);

	mov	rcx, QWORD PTR [rbx]
	call	CommitNumber
$LN3@Remainder:

; 133  :     }
; 134  :     return (PMC_STATUS_OK);

	xor	eax, eax
$LN1@Remainder:

; 135  : }

	mov	rbx, QWORD PTR [rsp+112]
	add	rsp, 64					; 00000040H
	pop	rdi
	pop	rsi
	pop	rbp
	ret	0
Remainder ENDP
_TEXT	ENDS
; Function compile flags: /Ogtpy
; File z:\sources\lunor\repos\rougemeilland\palmtree.math.core.uint\palmtree.math.core.uint\pmc_modpow.c
;	COMDAT SwapPointer
_TEXT	SEGMENT
u$ = 8
v$ = 16
SwapPointer PROC					; COMDAT

; 92   :     __UNIT_TYPE* t = *u;
; 93   :     *u = *v;

	mov	rax, QWORD PTR [rdx]
	mov	r8, QWORD PTR [rcx]
	mov	QWORD PTR [rcx], rax

; 94   :     *v = t;

	mov	QWORD PTR [rdx], r8

; 95   : }

	ret	0
SwapPointer ENDP
_TEXT	ENDS
; Function compile flags: /Ogtpy
; File z:\sources\lunor\repos\rougemeilland\palmtree.math.core.uint\palmtree.math.core.uint\pmc_modpow.c
;	COMDAT Compare_Easy
_TEXT	SEGMENT
u$ = 8
u_count$ = 16
v$ = 24
v_count$ = 32
Compare_Easy PROC					; COMDAT

; 81   : {

	mov	rax, r8

; 82   :     if (u_count > v_count)

	cmp	rdx, r9
	jbe	SHORT $LN2@Compare_Ea

; 83   :         return (1);

	mov	eax, 1

; 88   : }

	ret	0
$LN2@Compare_Ea:

; 84   :     else if (u_count < v_count)

	jae	SHORT $LN4@Compare_Ea

; 85   :         return (-1);

	mov	eax, -1

; 88   : }

	ret	0
$LN4@Compare_Ea:

; 86   :     else
; 87   :         return (Compare_Imp(u, v, u_count));

	mov	r8, rdx
	mov	rdx, rax
	jmp	Compare_Imp
Compare_Easy ENDP
_TEXT	ENDS
; Function compile flags: /Ogtpy
; File z:\sources\lunor\repos\rougemeilland\palmtree.math.core.uint\palmtree.math.core.uint\pmc_inline_func.h
;	COMDAT _LZCNT_ALT_UNIT
_TEXT	SEGMENT
x$ = 8
_LZCNT_ALT_UNIT PROC					; COMDAT

; 624  :         if (x == 0)

	test	rcx, rcx
	jne	SHORT $LN2@LZCNT_ALT_

; 625  :             return (sizeof(x) * 8);

	mov	eax, 64					; 00000040H

; 649  :     }

	ret	0
$LN2@LZCNT_ALT_:

; 626  : #ifdef _M_IX86
; 627  :         _UINT32_T pos;
; 628  : #ifdef _MSC_VER
; 629  :         _BitScanReverse(&pos, x);
; 630  : #elif defined(__GNUC__)
; 631  :         __asm__("bsrl %1, %0" : "=r"(pos) : "rm"(x));
; 632  : #else
; 633  : #error unknown compiler
; 634  : #endif
; 635  : #elif defined(_M_X64)
; 636  : #ifdef _MSC_VER
; 637  :         _UINT32_T pos;
; 638  :         _BitScanReverse64(&pos, x);

	bsr	rcx, rcx

; 639  : #elif defined(__GNUC__)
; 640  :         _UINT64_T pos;
; 641  :         __asm__("bsrq %1, %0" : "=r"(pos) : "rm"(x));
; 642  : #else
; 643  : #error unknown compiler
; 644  : #endif
; 645  : #else
; 646  : #error unknown platform
; 647  : #endif
; 648  :         return (sizeof(x) * 8 - 1 - pos);

	mov	eax, 63					; 0000003fH
	sub	eax, ecx

; 649  :     }

	ret	0
_LZCNT_ALT_UNIT ENDP
_TEXT	ENDS
; Function compile flags: /Ogtpy
; File z:\sources\lunor\repos\rougemeilland\palmtree.math.core.uint\palmtree.math.core.uint\pmc_inline_func.h
;	COMDAT _ZERO_MEMORY_UNIT
_TEXT	SEGMENT
d$ = 8
count$ = 16
_ZERO_MEMORY_UNIT PROC					; COMDAT

; 110  :     {

	mov	QWORD PTR [rsp+8], rdi

; 111  : #ifdef _M_IX86
; 112  :         __stosd((unsigned long*)d, 0, (unsigned long)count);
; 113  : #elif defined(_M_X64)
; 114  :         __stosq(d, 0, count);

	mov	rdi, rcx
	xor	eax, eax
	mov	rcx, rdx
	rep stosq

; 115  : #else
; 116  : #error unknown platform
; 117  : #endif
; 118  :     }

	mov	rdi, QWORD PTR [rsp+8]
	ret	0
_ZERO_MEMORY_UNIT ENDP
_TEXT	ENDS
; Function compile flags: /Ogtpy
; File z:\sources\lunor\repos\rougemeilland\palmtree.math.core.uint\palmtree.math.core.uint\pmc_inline_func.h
;	COMDAT _COPY_MEMORY_UNIT
_TEXT	SEGMENT
d$ = 8
s$ = 16
count$ = 24
_COPY_MEMORY_UNIT PROC					; COMDAT

; 60   :     {

	mov	QWORD PTR [rsp+8], rsi
	mov	QWORD PTR [rsp+16], rdi

; 61   : #ifdef _M_IX86
; 62   :         __movsd((unsigned long *)d, (unsigned long *)s, (unsigned long)count);
; 63   : #elif defined(_M_X64)
; 64   :         __movsq(d, s, count);

	mov	rdi, rcx
	mov	rsi, rdx
	mov	rcx, r8
	rep movsq

; 65   : #else
; 66   : #error unknown platform
; 67   : #endif
; 68   :     }

	mov	rsi, QWORD PTR [rsp+8]
	mov	rdi, QWORD PTR [rsp+16]
	ret	0
_COPY_MEMORY_UNIT ENDP
_TEXT	ENDS
; Function compile flags: /Ogtpy
; File z:\sources\lunor\repos\rougemeilland\palmtree.math.core.uint\palmtree.math.core.uint\pmc_modpow.c
;	COMDAT PMC_ModPow_X_X_X
_TEXT	SEGMENT
v$ = 48
e$ = 56
m$ = 64
r$ = 72
PMC_ModPow_X_X_X PROC					; COMDAT

; 551  : {

$LN13:
	mov	QWORD PTR [rsp+8], rbx
	mov	QWORD PTR [rsp+16], rbp
	mov	QWORD PTR [rsp+24], rsi
	push	rdi
	sub	rsp, 32					; 00000020H
	mov	rbp, r9
	mov	rbx, r8
	mov	rdi, rdx
	mov	rsi, rcx

; 552  :     if (v == NULL)

	test	rcx, rcx
	je	SHORT $LN11@PMC_ModPow

; 553  :         return (PMC_STATUS_ARGUMENT_ERROR);
; 554  :     if (e == NULL)

	test	rdx, rdx
	je	SHORT $LN11@PMC_ModPow

; 555  :         return (PMC_STATUS_ARGUMENT_ERROR);
; 556  :     if (m == NULL)

	test	rbx, rbx
	je	SHORT $LN11@PMC_ModPow

; 557  :         return (PMC_STATUS_ARGUMENT_ERROR);
; 558  :     if (r == NULL)

	test	r9, r9
	je	SHORT $LN11@PMC_ModPow

; 560  :     PMC_STATUS_CODE result;
; 561  :     if ((result = CheckNumber((NUMBER_HEADER*)v)) != PMC_STATUS_OK)

	call	CheckNumber
	test	eax, eax
	jne	SHORT $LN9@PMC_ModPow

; 562  :         return (result);
; 563  :     if ((result = CheckNumber((NUMBER_HEADER*)e)) != PMC_STATUS_OK)

	mov	rcx, rdi
	call	CheckNumber
	test	eax, eax
	jne	SHORT $LN9@PMC_ModPow

; 564  :         return (result);
; 565  :     if ((result = CheckNumber((NUMBER_HEADER*)m)) != PMC_STATUS_OK)

	mov	rcx, rbx
	call	CheckNumber
	test	eax, eax
	jne	SHORT $LN9@PMC_ModPow

; 566  :         return (result);
; 567  :     if ((result = PMC_ModPow_X_X_X_Imp((NUMBER_HEADER*)v, (NUMBER_HEADER*)e, (NUMBER_HEADER*)m, (NUMBER_HEADER**)r)) != PMC_STATUS_OK)

	mov	r9, rbp
	mov	r8, rbx
	mov	rdx, rdi
	mov	rcx, rsi
	call	PMC_ModPow_X_X_X_Imp
	jmp	SHORT $LN9@PMC_ModPow
$LN11@PMC_ModPow:

; 559  :         return (PMC_STATUS_ARGUMENT_ERROR);

	mov	eax, -1
$LN9@PMC_ModPow:

; 568  :         return (result);
; 569  : #ifdef _DEBUG
; 570  :     if ((result = CheckNumber((NUMBER_HEADER*)*r)) != PMC_STATUS_OK)
; 571  :         return (result);
; 572  : #endif
; 573  :     return (PMC_STATUS_OK);
; 574  : }

	mov	rbx, QWORD PTR [rsp+48]
	mov	rbp, QWORD PTR [rsp+56]
	mov	rsi, QWORD PTR [rsp+64]
	add	rsp, 32					; 00000020H
	pop	rdi
	ret	0
PMC_ModPow_X_X_X ENDP
_TEXT	ENDS
; Function compile flags: /Ogtpy
; File z:\sources\lunor\repos\rougemeilland\palmtree.math.core.uint\palmtree.math.core.uint\pmc_modpow.c
;	COMDAT Initialize_ModPow
_TEXT	SEGMENT
feature$ = 8
Initialize_ModPow PROC					; COMDAT

; 578  :     return (PMC_STATUS_OK);

	xor	eax, eax

; 579  : }

	ret	0
Initialize_ModPow ENDP
_TEXT	ENDS
END
