; Listing generated by Microsoft (R) Optimizing Compiler Version 19.16.27027.1 

include listing.inc

INCLUDELIB MSVCRT
INCLUDELIB OLDNAMES

PUBLIC	??1exception@std@@UEAA@XZ			; std::exception::~exception
PUBLIC	?what@exception@std@@UEBAPEBDXZ			; std::exception::what
PUBLIC	??_Gexception@std@@UEAAPEAXI@Z			; std::exception::`scalar deleting destructor'
PUBLIC	??0Exception@Internal@Core@Math@Palmtree@@QEAA@AEBV01234@@Z ; Palmtree::Math::Core::Internal::Exception::Exception
PUBLIC	??1Exception@Internal@Core@Math@Palmtree@@UEAA@XZ ; Palmtree::Math::Core::Internal::Exception::~Exception
PUBLIC	??_GException@Internal@Core@Math@Palmtree@@UEAAPEAXI@Z ; Palmtree::Math::Core::Internal::Exception::`scalar deleting destructor'
PUBLIC	??0ArgumentNullException@Internal@Core@Math@Palmtree@@QEAA@PEB_W0@Z ; Palmtree::Math::Core::Internal::ArgumentNullException::ArgumentNullException
PUBLIC	??0ArgumentNullException@Internal@Core@Math@Palmtree@@QEAA@AEBV01234@@Z ; Palmtree::Math::Core::Internal::ArgumentNullException::ArgumentNullException
PUBLIC	??1ArgumentNullException@Internal@Core@Math@Palmtree@@UEAA@XZ ; Palmtree::Math::Core::Internal::ArgumentNullException::~ArgumentNullException
PUBLIC	??_GArgumentNullException@Internal@Core@Math@Palmtree@@UEAAPEAXI@Z ; Palmtree::Math::Core::Internal::ArgumentNullException::`scalar deleting destructor'
PUBLIC	??1InternalErrorException@Internal@Core@Math@Palmtree@@UEAA@XZ ; Palmtree::Math::Core::Internal::InternalErrorException::~InternalErrorException
PUBLIC	??_GInternalErrorException@Internal@Core@Math@Palmtree@@UEAAPEAXI@Z ; Palmtree::Math::Core::Internal::InternalErrorException::`scalar deleting destructor'
PUBLIC	?Initialize_ExclusiveOr@Internal@Core@Math@Palmtree@@YAHPEAU_tag_PROCESSOR_FEATURES@1234@@Z ; Palmtree::Math::Core::Internal::Initialize_ExclusiveOr
PUBLIC	?PMC_ExclusiveOr_I_X@Internal@Core@Math@Palmtree@@YAPEAU__tag_PMC_HANDLE_UINT@1234@IPEAU51234@@Z ; Palmtree::Math::Core::Internal::PMC_ExclusiveOr_I_X
PUBLIC	?PMC_ExclusiveOr_L_X@Internal@Core@Math@Palmtree@@YAPEAU__tag_PMC_HANDLE_UINT@1234@_KPEAU51234@@Z ; Palmtree::Math::Core::Internal::PMC_ExclusiveOr_L_X
PUBLIC	?PMC_ExclusiveOr_X_I@Internal@Core@Math@Palmtree@@YAPEAU__tag_PMC_HANDLE_UINT@1234@PEAU51234@I@Z ; Palmtree::Math::Core::Internal::PMC_ExclusiveOr_X_I
PUBLIC	?PMC_ExclusiveOr_X_L@Internal@Core@Math@Palmtree@@YAPEAU__tag_PMC_HANDLE_UINT@1234@PEAU51234@_K@Z ; Palmtree::Math::Core::Internal::PMC_ExclusiveOr_X_L
PUBLIC	?PMC_ExclusiveOr_X_X@Internal@Core@Math@Palmtree@@YAPEAU__tag_PMC_HANDLE_UINT@1234@PEAU51234@0@Z ; Palmtree::Math::Core::Internal::PMC_ExclusiveOr_X_X
PUBLIC	??_7exception@std@@6B@				; std::exception::`vftable'
PUBLIC	??_C@_0BC@EOODALEL@Unknown?5exception@		; `string'
PUBLIC	??_7Exception@Internal@Core@Math@Palmtree@@6B@	; Palmtree::Math::Core::Internal::Exception::`vftable'
PUBLIC	??_7ArgumentNullException@Internal@Core@Math@Palmtree@@6B@ ; Palmtree::Math::Core::Internal::ArgumentNullException::`vftable'
PUBLIC	??_7InternalErrorException@Internal@Core@Math@Palmtree@@6B@ ; Palmtree::Math::Core::Internal::InternalErrorException::`vftable'
PUBLIC	??_R0?AVInternalErrorException@Internal@Core@Math@Palmtree@@@8 ; Palmtree::Math::Core::Internal::InternalErrorException `RTTI Type Descriptor'
PUBLIC	??_R0?AVException@Internal@Core@Math@Palmtree@@@8 ; Palmtree::Math::Core::Internal::Exception `RTTI Type Descriptor'
PUBLIC	_CT??_R0?AVException@Internal@Core@Math@Palmtree@@@8??0Exception@Internal@Core@Math@Palmtree@@QEAA@AEBV01234@@Z48
PUBLIC	_TI2?AVArgumentNullException@Internal@Core@Math@Palmtree@@
PUBLIC	_CTA2?AVArgumentNullException@Internal@Core@Math@Palmtree@@
PUBLIC	??_R0?AVArgumentNullException@Internal@Core@Math@Palmtree@@@8 ; Palmtree::Math::Core::Internal::ArgumentNullException `RTTI Type Descriptor'
PUBLIC	_CT??_R0?AVArgumentNullException@Internal@Core@Math@Palmtree@@@8??0ArgumentNullException@Internal@Core@Math@Palmtree@@QEAA@AEBV01234@@Z48
PUBLIC	??_C@_13JAOPNPKD@?$AAv@				; `string'
PUBLIC	??_C@_1CK@ECFIEPAC@?$AA?$BF?$AAp?$AAk?$AAn?$AAu?$AAl?$AAl?$AAp?$AAt?$AAr?$AAL?$AA?$AO?$AAH?$PP?$IJ?$PP?$IM@ ; `string'
PUBLIC	??_C@_13ICFKHAEN@?$AAu@				; `string'
PUBLIC	??_R4exception@std@@6B@				; std::exception::`RTTI Complete Object Locator'
PUBLIC	??_R0?AVexception@std@@@8			; std::exception `RTTI Type Descriptor'
PUBLIC	??_R3exception@std@@8				; std::exception::`RTTI Class Hierarchy Descriptor'
PUBLIC	??_R2exception@std@@8				; std::exception::`RTTI Base Class Array'
PUBLIC	??_R1A@?0A@EA@exception@std@@8			; std::exception::`RTTI Base Class Descriptor at (0,-1,0,64)'
PUBLIC	??_R4Exception@Internal@Core@Math@Palmtree@@6B@	; Palmtree::Math::Core::Internal::Exception::`RTTI Complete Object Locator'
PUBLIC	??_R3Exception@Internal@Core@Math@Palmtree@@8	; Palmtree::Math::Core::Internal::Exception::`RTTI Class Hierarchy Descriptor'
PUBLIC	??_R2Exception@Internal@Core@Math@Palmtree@@8	; Palmtree::Math::Core::Internal::Exception::`RTTI Base Class Array'
PUBLIC	??_R1A@?0A@EA@Exception@Internal@Core@Math@Palmtree@@8 ; Palmtree::Math::Core::Internal::Exception::`RTTI Base Class Descriptor at (0,-1,0,64)'
PUBLIC	??_R1A@?0A@EN@exception@std@@8			; std::exception::`RTTI Base Class Descriptor at (0,-1,0,77)'
PUBLIC	??_R4ArgumentNullException@Internal@Core@Math@Palmtree@@6B@ ; Palmtree::Math::Core::Internal::ArgumentNullException::`RTTI Complete Object Locator'
PUBLIC	??_R3ArgumentNullException@Internal@Core@Math@Palmtree@@8 ; Palmtree::Math::Core::Internal::ArgumentNullException::`RTTI Class Hierarchy Descriptor'
PUBLIC	??_R2ArgumentNullException@Internal@Core@Math@Palmtree@@8 ; Palmtree::Math::Core::Internal::ArgumentNullException::`RTTI Base Class Array'
PUBLIC	??_R1A@?0A@EA@ArgumentNullException@Internal@Core@Math@Palmtree@@8 ; Palmtree::Math::Core::Internal::ArgumentNullException::`RTTI Base Class Descriptor at (0,-1,0,64)'
PUBLIC	??_R4InternalErrorException@Internal@Core@Math@Palmtree@@6B@ ; Palmtree::Math::Core::Internal::InternalErrorException::`RTTI Complete Object Locator'
PUBLIC	??_R3InternalErrorException@Internal@Core@Math@Palmtree@@8 ; Palmtree::Math::Core::Internal::InternalErrorException::`RTTI Class Hierarchy Descriptor'
PUBLIC	??_R2InternalErrorException@Internal@Core@Math@Palmtree@@8 ; Palmtree::Math::Core::Internal::InternalErrorException::`RTTI Base Class Array'
PUBLIC	??_R1A@?0A@EA@InternalErrorException@Internal@Core@Math@Palmtree@@8 ; Palmtree::Math::Core::Internal::InternalErrorException::`RTTI Base Class Descriptor at (0,-1,0,64)'
EXTRN	??3@YAXPEAX_K@Z:PROC				; operator delete
EXTRN	__std_exception_destroy:PROC
EXTRN	??_Eexception@std@@UEAAPEAXI@Z:PROC		; std::exception::`vector deleting destructor'
EXTRN	??_EException@Internal@Core@Math@Palmtree@@UEAAPEAXI@Z:PROC ; Palmtree::Math::Core::Internal::Exception::`vector deleting destructor'
EXTRN	??_EArgumentNullException@Internal@Core@Math@Palmtree@@UEAAPEAXI@Z:PROC ; Palmtree::Math::Core::Internal::ArgumentNullException::`vector deleting destructor'
EXTRN	??_EInternalErrorException@Internal@Core@Math@Palmtree@@UEAAPEAXI@Z:PROC ; Palmtree::Math::Core::Internal::InternalErrorException::`vector deleting destructor'
EXTRN	?CommitNumber@Internal@Core@Math@Palmtree@@YAXPEAU__tag_NUMBER_HEADER@1234@@Z:PROC ; Palmtree::Math::Core::Internal::CommitNumber
EXTRN	?CheckNumber@Internal@Core@Math@Palmtree@@YAXPEAU__tag_NUMBER_HEADER@1234@@Z:PROC ; Palmtree::Math::Core::Internal::CheckNumber
EXTRN	?DuplicateNumber@Internal@Core@Math@Palmtree@@YAPEAU__tag_NUMBER_HEADER@1234@PEAU51234@@Z:PROC ; Palmtree::Math::Core::Internal::DuplicateNumber
EXTRN	?From_I_Imp@Internal@Core@Math@Palmtree@@YAPEAU__tag_NUMBER_HEADER@1234@I@Z:PROC ; Palmtree::Math::Core::Internal::From_I_Imp
EXTRN	?From_L_Imp@Internal@Core@Math@Palmtree@@YAPEAU__tag_NUMBER_HEADER@1234@_K@Z:PROC ; Palmtree::Math::Core::Internal::From_L_Imp
EXTRN	??0ResourceHolderUINT@Internal@Core@Math@Palmtree@@QEAA@XZ:PROC ; Palmtree::Math::Core::Internal::ResourceHolderUINT::ResourceHolderUINT
EXTRN	??1ResourceHolderUINT@Internal@Core@Math@Palmtree@@UEAA@XZ:PROC ; Palmtree::Math::Core::Internal::ResourceHolderUINT::~ResourceHolderUINT
EXTRN	?AllocateNumber@ResourceHolderUINT@Internal@Core@Math@Palmtree@@QEAAPEAU__tag_NUMBER_HEADER@2345@_K@Z:PROC ; Palmtree::Math::Core::Internal::ResourceHolderUINT::AllocateNumber
EXTRN	?HookNumber@ResourceHolderUINT@Internal@Core@Math@Palmtree@@QEAAXPEAU__tag_NUMBER_HEADER@2345@@Z:PROC ; Palmtree::Math::Core::Internal::ResourceHolderUINT::HookNumber
EXTRN	?DeallocateNumber@ResourceHolderUINT@Internal@Core@Math@Palmtree@@QEAAXPEAU__tag_NUMBER_HEADER@2345@@Z:PROC ; Palmtree::Math::Core::Internal::ResourceHolderUINT::DeallocateNumber
EXTRN	?CheckNumber@ResourceHolderUINT@Internal@Core@Math@Palmtree@@QEAAXPEAU__tag_NUMBER_HEADER@2345@@Z:PROC ; Palmtree::Math::Core::Internal::ResourceHolderUINT::CheckNumber
EXTRN	?UnlinkNumber@ResourceHolderUINT@Internal@Core@Math@Palmtree@@QEAAXPEAU__tag_NUMBER_HEADER@2345@@Z:PROC ; Palmtree::Math::Core::Internal::ResourceHolderUINT::UnlinkNumber
EXTRN	_CxxThrowException:PROC
EXTRN	__CxxFrameHandler3:PROC
EXTRN	?number_zero@Internal@Core@Math@Palmtree@@3U__tag_NUMBER_HEADER@1234@A:BYTE ; Palmtree::Math::Core::Internal::number_zero
EXTRN	??_7type_info@@6B@:BYTE				; type_info::`vftable'
;	COMDAT pdata
pdata	SEGMENT
$pdata$??1exception@std@@UEAA@XZ DD imagerel $LN5
	DD	imagerel $LN5+38
	DD	imagerel $unwind$??1exception@std@@UEAA@XZ
pdata	ENDS
;	COMDAT pdata
pdata	SEGMENT
$pdata$??_Gexception@std@@UEAAPEAXI@Z DD imagerel $LN9
	DD	imagerel $LN9+78
	DD	imagerel $unwind$??_Gexception@std@@UEAAPEAXI@Z
pdata	ENDS
;	COMDAT pdata
pdata	SEGMENT
$pdata$??0Exception@Internal@Core@Math@Palmtree@@IEAA@HPEB_W0@Z DD imagerel $LN8
	DD	imagerel $LN8+66
	DD	imagerel $unwind$??0Exception@Internal@Core@Math@Palmtree@@IEAA@HPEB_W0@Z
pdata	ENDS
;	COMDAT pdata
pdata	SEGMENT
$pdata$??0Exception@Internal@Core@Math@Palmtree@@QEAA@AEBV01234@@Z DD imagerel $LN8
	DD	imagerel $LN8+77
	DD	imagerel $unwind$??0Exception@Internal@Core@Math@Palmtree@@QEAA@AEBV01234@@Z
pdata	ENDS
;	COMDAT pdata
pdata	SEGMENT
$pdata$??1Exception@Internal@Core@Math@Palmtree@@UEAA@XZ DD imagerel $LN8
	DD	imagerel $LN8+53
	DD	imagerel $unwind$??1Exception@Internal@Core@Math@Palmtree@@UEAA@XZ
pdata	ENDS
;	COMDAT pdata
pdata	SEGMENT
$pdata$??_GException@Internal@Core@Math@Palmtree@@UEAAPEAXI@Z DD imagerel $LN12
	DD	imagerel $LN12+92
	DD	imagerel $unwind$??_GException@Internal@Core@Math@Palmtree@@UEAAPEAXI@Z
pdata	ENDS
;	COMDAT pdata
pdata	SEGMENT
$pdata$??0ArgumentNullException@Internal@Core@Math@Palmtree@@QEAA@PEB_W0@Z DD imagerel $LN11
	DD	imagerel $LN11+80
	DD	imagerel $unwind$??0ArgumentNullException@Internal@Core@Math@Palmtree@@QEAA@PEB_W0@Z
pdata	ENDS
;	COMDAT pdata
pdata	SEGMENT
$pdata$??0ArgumentNullException@Internal@Core@Math@Palmtree@@QEAA@AEBV01234@@Z DD imagerel $LN11
	DD	imagerel $LN11+87
	DD	imagerel $unwind$??0ArgumentNullException@Internal@Core@Math@Palmtree@@QEAA@AEBV01234@@Z
pdata	ENDS
;	COMDAT pdata
pdata	SEGMENT
$pdata$??1ArgumentNullException@Internal@Core@Math@Palmtree@@UEAA@XZ DD imagerel $LN11
	DD	imagerel $LN11+63
	DD	imagerel $unwind$??1ArgumentNullException@Internal@Core@Math@Palmtree@@UEAA@XZ
pdata	ENDS
;	COMDAT pdata
pdata	SEGMENT
$pdata$??_GArgumentNullException@Internal@Core@Math@Palmtree@@UEAAPEAXI@Z DD imagerel $LN15
	DD	imagerel $LN15+102
	DD	imagerel $unwind$??_GArgumentNullException@Internal@Core@Math@Palmtree@@UEAAPEAXI@Z
pdata	ENDS
;	COMDAT pdata
pdata	SEGMENT
$pdata$??0InternalErrorException@Internal@Core@Math@Palmtree@@QEAA@PEB_W0@Z DD imagerel $LN11
	DD	imagerel $LN11+80
	DD	imagerel $unwind$??0InternalErrorException@Internal@Core@Math@Palmtree@@QEAA@PEB_W0@Z
pdata	ENDS
;	COMDAT pdata
pdata	SEGMENT
$pdata$??1InternalErrorException@Internal@Core@Math@Palmtree@@UEAA@XZ DD imagerel $LN11
	DD	imagerel $LN11+63
	DD	imagerel $unwind$??1InternalErrorException@Internal@Core@Math@Palmtree@@UEAA@XZ
pdata	ENDS
;	COMDAT pdata
pdata	SEGMENT
$pdata$??_GInternalErrorException@Internal@Core@Math@Palmtree@@UEAAPEAXI@Z DD imagerel $LN15
	DD	imagerel $LN15+102
	DD	imagerel $unwind$??_GInternalErrorException@Internal@Core@Math@Palmtree@@UEAAPEAXI@Z
pdata	ENDS
;	COMDAT pdata
pdata	SEGMENT
$pdata$?PMC_ExclusiveOr_I_X@Internal@Core@Math@Palmtree@@YAPEAU__tag_PMC_HANDLE_UINT@1234@IPEAU51234@@Z DD imagerel $LN10
	DD	imagerel $LN10+167
	DD	imagerel $unwind$?PMC_ExclusiveOr_I_X@Internal@Core@Math@Palmtree@@YAPEAU__tag_PMC_HANDLE_UINT@1234@IPEAU51234@@Z
pdata	ENDS
;	COMDAT pdata
pdata	SEGMENT
$pdata$?PMC_ExclusiveOr_L_X@Internal@Core@Math@Palmtree@@YAPEAU__tag_PMC_HANDLE_UINT@1234@_KPEAU51234@@Z DD imagerel $LN10
	DD	imagerel $LN10+169
	DD	imagerel $unwind$?PMC_ExclusiveOr_L_X@Internal@Core@Math@Palmtree@@YAPEAU__tag_PMC_HANDLE_UINT@1234@_KPEAU51234@@Z
pdata	ENDS
;	COMDAT pdata
pdata	SEGMENT
$pdata$?PMC_ExclusiveOr_X_I@Internal@Core@Math@Palmtree@@YAPEAU__tag_PMC_HANDLE_UINT@1234@PEAU51234@I@Z DD imagerel $LN10
	DD	imagerel $LN10+164
	DD	imagerel $unwind$?PMC_ExclusiveOr_X_I@Internal@Core@Math@Palmtree@@YAPEAU__tag_PMC_HANDLE_UINT@1234@PEAU51234@I@Z
pdata	ENDS
;	COMDAT pdata
pdata	SEGMENT
$pdata$?PMC_ExclusiveOr_X_L@Internal@Core@Math@Palmtree@@YAPEAU__tag_PMC_HANDLE_UINT@1234@PEAU51234@_K@Z DD imagerel $LN10
	DD	imagerel $LN10+166
	DD	imagerel $unwind$?PMC_ExclusiveOr_X_L@Internal@Core@Math@Palmtree@@YAPEAU__tag_PMC_HANDLE_UINT@1234@PEAU51234@_K@Z
pdata	ENDS
;	COMDAT pdata
pdata	SEGMENT
$pdata$?PMC_ExclusiveOr_X_X@Internal@Core@Math@Palmtree@@YAPEAU__tag_PMC_HANDLE_UINT@1234@PEAU51234@0@Z DD imagerel $LN23
	DD	imagerel $LN23+415
	DD	imagerel $unwind$?PMC_ExclusiveOr_X_X@Internal@Core@Math@Palmtree@@YAPEAU__tag_PMC_HANDLE_UINT@1234@PEAU51234@0@Z
pdata	ENDS
;	COMDAT pdata
pdata	SEGMENT
$pdata$_COPY_MEMORY_UNIT DD imagerel _COPY_MEMORY_UNIT
	DD	imagerel _COPY_MEMORY_UNIT+33
	DD	imagerel $unwind$_COPY_MEMORY_UNIT
pdata	ENDS
;	COMDAT pdata
pdata	SEGMENT
$pdata$?ExclusiveOr_X_1W@Internal@Core@Math@Palmtree@@YAXPEA_K_K10@Z DD imagerel ?ExclusiveOr_X_1W@Internal@Core@Math@Palmtree@@YAXPEA_K_K10@Z
	DD	imagerel ?ExclusiveOr_X_1W@Internal@Core@Math@Palmtree@@YAXPEA_K_K10@Z+20
	DD	imagerel $unwind$?ExclusiveOr_X_1W@Internal@Core@Math@Palmtree@@YAXPEA_K_K10@Z
pdata	ENDS
;	COMDAT pdata
pdata	SEGMENT
$pdata$0$?ExclusiveOr_X_1W@Internal@Core@Math@Palmtree@@YAXPEA_K_K10@Z DD imagerel ?ExclusiveOr_X_1W@Internal@Core@Math@Palmtree@@YAXPEA_K_K10@Z+20
	DD	imagerel ?ExclusiveOr_X_1W@Internal@Core@Math@Palmtree@@YAXPEA_K_K10@Z+45
	DD	imagerel $chain$0$?ExclusiveOr_X_1W@Internal@Core@Math@Palmtree@@YAXPEA_K_K10@Z
pdata	ENDS
;	COMDAT pdata
pdata	SEGMENT
$pdata$1$?ExclusiveOr_X_1W@Internal@Core@Math@Palmtree@@YAXPEA_K_K10@Z DD imagerel ?ExclusiveOr_X_1W@Internal@Core@Math@Palmtree@@YAXPEA_K_K10@Z+45
	DD	imagerel ?ExclusiveOr_X_1W@Internal@Core@Math@Palmtree@@YAXPEA_K_K10@Z+47
	DD	imagerel $chain$1$?ExclusiveOr_X_1W@Internal@Core@Math@Palmtree@@YAXPEA_K_K10@Z
pdata	ENDS
;	COMDAT pdata
pdata	SEGMENT
$pdata$?ExclusiveOr_X_2W@Internal@Core@Math@Palmtree@@YAXPEA_K_K110@Z DD imagerel ?ExclusiveOr_X_2W@Internal@Core@Math@Palmtree@@YAXPEA_K_K110@Z
	DD	imagerel ?ExclusiveOr_X_2W@Internal@Core@Math@Palmtree@@YAXPEA_K_K110@Z+91
	DD	imagerel $unwind$?ExclusiveOr_X_2W@Internal@Core@Math@Palmtree@@YAXPEA_K_K110@Z
pdata	ENDS
;	COMDAT pdata
pdata	SEGMENT
$pdata$?ExclusiveOr_X_X@Internal@Core@Math@Palmtree@@YAXPEA_K_K010@Z DD imagerel ?ExclusiveOr_X_X@Internal@Core@Math@Palmtree@@YAXPEA_K_K010@Z
	DD	imagerel ?ExclusiveOr_X_X@Internal@Core@Math@Palmtree@@YAXPEA_K_K010@Z+820
	DD	imagerel $unwind$?ExclusiveOr_X_X@Internal@Core@Math@Palmtree@@YAXPEA_K_K010@Z
pdata	ENDS
;	COMDAT pdata
pdata	SEGMENT
$pdata$?PMC_ExclusiveOr_X_I_Imp@Internal@Core@Math@Palmtree@@YAPEAU__tag_NUMBER_HEADER@1234@PEAU51234@I@Z DD imagerel ?PMC_ExclusiveOr_X_I_Imp@Internal@Core@Math@Palmtree@@YAPEAU__tag_NUMBER_HEADER@1234@PEAU51234@I@Z
	DD	imagerel ?PMC_ExclusiveOr_X_I_Imp@Internal@Core@Math@Palmtree@@YAPEAU__tag_NUMBER_HEADER@1234@PEAU51234@I@Z+284
	DD	imagerel $unwind$?PMC_ExclusiveOr_X_I_Imp@Internal@Core@Math@Palmtree@@YAPEAU__tag_NUMBER_HEADER@1234@PEAU51234@I@Z
pdata	ENDS
;	COMDAT pdata
pdata	SEGMENT
$pdata$?PMC_ExclusiveOr_X_L_Imp@Internal@Core@Math@Palmtree@@YAPEAU__tag_NUMBER_HEADER@1234@PEAU51234@_K@Z DD imagerel ?PMC_ExclusiveOr_X_L_Imp@Internal@Core@Math@Palmtree@@YAPEAU__tag_NUMBER_HEADER@1234@PEAU51234@_K@Z
	DD	imagerel ?PMC_ExclusiveOr_X_L_Imp@Internal@Core@Math@Palmtree@@YAPEAU__tag_NUMBER_HEADER@1234@PEAU51234@_K@Z+286
	DD	imagerel $unwind$?PMC_ExclusiveOr_X_L_Imp@Internal@Core@Math@Palmtree@@YAPEAU__tag_NUMBER_HEADER@1234@PEAU51234@_K@Z
pdata	ENDS
;	COMDAT pdata
pdata	SEGMENT
$pdata$?PMC_ExclusiveOr_X_X_Imp@Internal@Core@Math@Palmtree@@YAPEAU__tag_NUMBER_HEADER@1234@PEAU51234@0@Z DD imagerel ?PMC_ExclusiveOr_X_X_Imp@Internal@Core@Math@Palmtree@@YAPEAU__tag_NUMBER_HEADER@1234@PEAU51234@0@Z
	DD	imagerel ?PMC_ExclusiveOr_X_X_Imp@Internal@Core@Math@Palmtree@@YAPEAU__tag_NUMBER_HEADER@1234@PEAU51234@0@Z+236
	DD	imagerel $unwind$?PMC_ExclusiveOr_X_X_Imp@Internal@Core@Math@Palmtree@@YAPEAU__tag_NUMBER_HEADER@1234@PEAU51234@0@Z
pdata	ENDS
;	COMDAT ??_R1A@?0A@EA@InternalErrorException@Internal@Core@Math@Palmtree@@8
rdata$r	SEGMENT
??_R1A@?0A@EA@InternalErrorException@Internal@Core@Math@Palmtree@@8 DD imagerel ??_R0?AVInternalErrorException@Internal@Core@Math@Palmtree@@@8 ; Palmtree::Math::Core::Internal::InternalErrorException::`RTTI Base Class Descriptor at (0,-1,0,64)'
	DD	02H
	DD	00H
	DD	0ffffffffH
	DD	00H
	DD	040H
	DD	imagerel ??_R3InternalErrorException@Internal@Core@Math@Palmtree@@8
rdata$r	ENDS
;	COMDAT ??_R2InternalErrorException@Internal@Core@Math@Palmtree@@8
rdata$r	SEGMENT
??_R2InternalErrorException@Internal@Core@Math@Palmtree@@8 DD imagerel ??_R1A@?0A@EA@InternalErrorException@Internal@Core@Math@Palmtree@@8 ; Palmtree::Math::Core::Internal::InternalErrorException::`RTTI Base Class Array'
	DD	imagerel ??_R1A@?0A@EA@Exception@Internal@Core@Math@Palmtree@@8
	DD	imagerel ??_R1A@?0A@EN@exception@std@@8
	ORG $+3
rdata$r	ENDS
;	COMDAT ??_R3InternalErrorException@Internal@Core@Math@Palmtree@@8
rdata$r	SEGMENT
??_R3InternalErrorException@Internal@Core@Math@Palmtree@@8 DD 00H ; Palmtree::Math::Core::Internal::InternalErrorException::`RTTI Class Hierarchy Descriptor'
	DD	00H
	DD	03H
	DD	imagerel ??_R2InternalErrorException@Internal@Core@Math@Palmtree@@8
rdata$r	ENDS
;	COMDAT ??_R4InternalErrorException@Internal@Core@Math@Palmtree@@6B@
rdata$r	SEGMENT
??_R4InternalErrorException@Internal@Core@Math@Palmtree@@6B@ DD 01H ; Palmtree::Math::Core::Internal::InternalErrorException::`RTTI Complete Object Locator'
	DD	00H
	DD	00H
	DD	imagerel ??_R0?AVInternalErrorException@Internal@Core@Math@Palmtree@@@8
	DD	imagerel ??_R3InternalErrorException@Internal@Core@Math@Palmtree@@8
	DD	imagerel ??_R4InternalErrorException@Internal@Core@Math@Palmtree@@6B@
rdata$r	ENDS
;	COMDAT ??_R1A@?0A@EA@ArgumentNullException@Internal@Core@Math@Palmtree@@8
rdata$r	SEGMENT
??_R1A@?0A@EA@ArgumentNullException@Internal@Core@Math@Palmtree@@8 DD imagerel ??_R0?AVArgumentNullException@Internal@Core@Math@Palmtree@@@8 ; Palmtree::Math::Core::Internal::ArgumentNullException::`RTTI Base Class Descriptor at (0,-1,0,64)'
	DD	02H
	DD	00H
	DD	0ffffffffH
	DD	00H
	DD	040H
	DD	imagerel ??_R3ArgumentNullException@Internal@Core@Math@Palmtree@@8
rdata$r	ENDS
;	COMDAT ??_R2ArgumentNullException@Internal@Core@Math@Palmtree@@8
rdata$r	SEGMENT
??_R2ArgumentNullException@Internal@Core@Math@Palmtree@@8 DD imagerel ??_R1A@?0A@EA@ArgumentNullException@Internal@Core@Math@Palmtree@@8 ; Palmtree::Math::Core::Internal::ArgumentNullException::`RTTI Base Class Array'
	DD	imagerel ??_R1A@?0A@EA@Exception@Internal@Core@Math@Palmtree@@8
	DD	imagerel ??_R1A@?0A@EN@exception@std@@8
	ORG $+3
rdata$r	ENDS
;	COMDAT ??_R3ArgumentNullException@Internal@Core@Math@Palmtree@@8
rdata$r	SEGMENT
??_R3ArgumentNullException@Internal@Core@Math@Palmtree@@8 DD 00H ; Palmtree::Math::Core::Internal::ArgumentNullException::`RTTI Class Hierarchy Descriptor'
	DD	00H
	DD	03H
	DD	imagerel ??_R2ArgumentNullException@Internal@Core@Math@Palmtree@@8
rdata$r	ENDS
;	COMDAT ??_R4ArgumentNullException@Internal@Core@Math@Palmtree@@6B@
rdata$r	SEGMENT
??_R4ArgumentNullException@Internal@Core@Math@Palmtree@@6B@ DD 01H ; Palmtree::Math::Core::Internal::ArgumentNullException::`RTTI Complete Object Locator'
	DD	00H
	DD	00H
	DD	imagerel ??_R0?AVArgumentNullException@Internal@Core@Math@Palmtree@@@8
	DD	imagerel ??_R3ArgumentNullException@Internal@Core@Math@Palmtree@@8
	DD	imagerel ??_R4ArgumentNullException@Internal@Core@Math@Palmtree@@6B@
rdata$r	ENDS
;	COMDAT ??_R1A@?0A@EN@exception@std@@8
rdata$r	SEGMENT
??_R1A@?0A@EN@exception@std@@8 DD imagerel ??_R0?AVexception@std@@@8 ; std::exception::`RTTI Base Class Descriptor at (0,-1,0,77)'
	DD	00H
	DD	00H
	DD	0ffffffffH
	DD	00H
	DD	04dH
	DD	imagerel ??_R3exception@std@@8
rdata$r	ENDS
;	COMDAT ??_R1A@?0A@EA@Exception@Internal@Core@Math@Palmtree@@8
rdata$r	SEGMENT
??_R1A@?0A@EA@Exception@Internal@Core@Math@Palmtree@@8 DD imagerel ??_R0?AVException@Internal@Core@Math@Palmtree@@@8 ; Palmtree::Math::Core::Internal::Exception::`RTTI Base Class Descriptor at (0,-1,0,64)'
	DD	01H
	DD	00H
	DD	0ffffffffH
	DD	00H
	DD	040H
	DD	imagerel ??_R3Exception@Internal@Core@Math@Palmtree@@8
rdata$r	ENDS
;	COMDAT ??_R2Exception@Internal@Core@Math@Palmtree@@8
rdata$r	SEGMENT
??_R2Exception@Internal@Core@Math@Palmtree@@8 DD imagerel ??_R1A@?0A@EA@Exception@Internal@Core@Math@Palmtree@@8 ; Palmtree::Math::Core::Internal::Exception::`RTTI Base Class Array'
	DD	imagerel ??_R1A@?0A@EN@exception@std@@8
	ORG $+3
rdata$r	ENDS
;	COMDAT ??_R3Exception@Internal@Core@Math@Palmtree@@8
rdata$r	SEGMENT
??_R3Exception@Internal@Core@Math@Palmtree@@8 DD 00H	; Palmtree::Math::Core::Internal::Exception::`RTTI Class Hierarchy Descriptor'
	DD	00H
	DD	02H
	DD	imagerel ??_R2Exception@Internal@Core@Math@Palmtree@@8
rdata$r	ENDS
;	COMDAT ??_R4Exception@Internal@Core@Math@Palmtree@@6B@
rdata$r	SEGMENT
??_R4Exception@Internal@Core@Math@Palmtree@@6B@ DD 01H	; Palmtree::Math::Core::Internal::Exception::`RTTI Complete Object Locator'
	DD	00H
	DD	00H
	DD	imagerel ??_R0?AVException@Internal@Core@Math@Palmtree@@@8
	DD	imagerel ??_R3Exception@Internal@Core@Math@Palmtree@@8
	DD	imagerel ??_R4Exception@Internal@Core@Math@Palmtree@@6B@
rdata$r	ENDS
;	COMDAT ??_R1A@?0A@EA@exception@std@@8
rdata$r	SEGMENT
??_R1A@?0A@EA@exception@std@@8 DD imagerel ??_R0?AVexception@std@@@8 ; std::exception::`RTTI Base Class Descriptor at (0,-1,0,64)'
	DD	00H
	DD	00H
	DD	0ffffffffH
	DD	00H
	DD	040H
	DD	imagerel ??_R3exception@std@@8
rdata$r	ENDS
;	COMDAT ??_R2exception@std@@8
rdata$r	SEGMENT
??_R2exception@std@@8 DD imagerel ??_R1A@?0A@EA@exception@std@@8 ; std::exception::`RTTI Base Class Array'
	ORG $+3
rdata$r	ENDS
;	COMDAT ??_R3exception@std@@8
rdata$r	SEGMENT
??_R3exception@std@@8 DD 00H				; std::exception::`RTTI Class Hierarchy Descriptor'
	DD	00H
	DD	01H
	DD	imagerel ??_R2exception@std@@8
rdata$r	ENDS
;	COMDAT ??_R0?AVexception@std@@@8
data$r	SEGMENT
??_R0?AVexception@std@@@8 DQ FLAT:??_7type_info@@6B@	; std::exception `RTTI Type Descriptor'
	DQ	0000000000000000H
	DB	'.?AVexception@std@@', 00H
data$r	ENDS
;	COMDAT ??_R4exception@std@@6B@
rdata$r	SEGMENT
??_R4exception@std@@6B@ DD 01H				; std::exception::`RTTI Complete Object Locator'
	DD	00H
	DD	00H
	DD	imagerel ??_R0?AVexception@std@@@8
	DD	imagerel ??_R3exception@std@@8
	DD	imagerel ??_R4exception@std@@6B@
rdata$r	ENDS
;	COMDAT ??_C@_13ICFKHAEN@?$AAu@
CONST	SEGMENT
??_C@_13ICFKHAEN@?$AAu@ DB 'u', 00H, 00H, 00H		; `string'
CONST	ENDS
;	COMDAT ??_C@_1CK@ECFIEPAC@?$AA?$BF?$AAp?$AAk?$AAn?$AAu?$AAl?$AAl?$AAp?$AAt?$AAr?$AAL?$AA?$AO?$AAH?$PP?$IJ?$PP?$IM@
CONST	SEGMENT
??_C@_1CK@ECFIEPAC@?$AA?$BF?$AAp?$AAk?$AAn?$AAu?$AAl?$AAl?$AAp?$AAt?$AAr?$AAL?$AA?$AO?$AAH?$PP?$IJ?$PP?$IM@ DB 015H
	DB	'_pek0n', 00H, 'u', 00H, 'l', 00H, 'l', 00H, 'p', 00H, 't', 00H
	DB	'r', 00H, 'L0', 0eH, 'NH0', 089H, '0', 08cH, '0f0D0~0Y0', 02H, '0'
	DB	00H, 00H					; `string'
CONST	ENDS
;	COMDAT ??_C@_13JAOPNPKD@?$AAv@
CONST	SEGMENT
??_C@_13JAOPNPKD@?$AAv@ DB 'v', 00H, 00H, 00H		; `string'
CONST	ENDS
;	COMDAT _CT??_R0?AVArgumentNullException@Internal@Core@Math@Palmtree@@@8??0ArgumentNullException@Internal@Core@Math@Palmtree@@QEAA@AEBV01234@@Z48
xdata$x	SEGMENT
_CT??_R0?AVArgumentNullException@Internal@Core@Math@Palmtree@@@8??0ArgumentNullException@Internal@Core@Math@Palmtree@@QEAA@AEBV01234@@Z48 DD 00H
	DD	imagerel ??_R0?AVArgumentNullException@Internal@Core@Math@Palmtree@@@8
	DD	00H
	DD	0ffffffffH
	ORG $+4
	DD	030H
	DD	imagerel ??0ArgumentNullException@Internal@Core@Math@Palmtree@@QEAA@AEBV01234@@Z
xdata$x	ENDS
;	COMDAT ??_R0?AVArgumentNullException@Internal@Core@Math@Palmtree@@@8
data$r	SEGMENT
??_R0?AVArgumentNullException@Internal@Core@Math@Palmtree@@@8 DQ FLAT:??_7type_info@@6B@ ; Palmtree::Math::Core::Internal::ArgumentNullException `RTTI Type Descriptor'
	DQ	0000000000000000H
	DB	'.?AVArgumentNullException@Internal@Core@Math@Palmtree@@', 00H
data$r	ENDS
;	COMDAT _CTA2?AVArgumentNullException@Internal@Core@Math@Palmtree@@
xdata$x	SEGMENT
_CTA2?AVArgumentNullException@Internal@Core@Math@Palmtree@@ DD 02H
	DD	imagerel _CT??_R0?AVArgumentNullException@Internal@Core@Math@Palmtree@@@8??0ArgumentNullException@Internal@Core@Math@Palmtree@@QEAA@AEBV01234@@Z48
	DD	imagerel _CT??_R0?AVException@Internal@Core@Math@Palmtree@@@8??0Exception@Internal@Core@Math@Palmtree@@QEAA@AEBV01234@@Z48
xdata$x	ENDS
;	COMDAT _TI2?AVArgumentNullException@Internal@Core@Math@Palmtree@@
xdata$x	SEGMENT
_TI2?AVArgumentNullException@Internal@Core@Math@Palmtree@@ DD 00H
	DD	imagerel ??1ArgumentNullException@Internal@Core@Math@Palmtree@@UEAA@XZ
	DD	00H
	DD	imagerel _CTA2?AVArgumentNullException@Internal@Core@Math@Palmtree@@
xdata$x	ENDS
;	COMDAT _CT??_R0?AVException@Internal@Core@Math@Palmtree@@@8??0Exception@Internal@Core@Math@Palmtree@@QEAA@AEBV01234@@Z48
xdata$x	SEGMENT
_CT??_R0?AVException@Internal@Core@Math@Palmtree@@@8??0Exception@Internal@Core@Math@Palmtree@@QEAA@AEBV01234@@Z48 DD 00H
	DD	imagerel ??_R0?AVException@Internal@Core@Math@Palmtree@@@8
	DD	00H
	DD	0ffffffffH
	ORG $+4
	DD	030H
	DD	imagerel ??0Exception@Internal@Core@Math@Palmtree@@QEAA@AEBV01234@@Z
xdata$x	ENDS
;	COMDAT ??_R0?AVException@Internal@Core@Math@Palmtree@@@8
data$r	SEGMENT
??_R0?AVException@Internal@Core@Math@Palmtree@@@8 DQ FLAT:??_7type_info@@6B@ ; Palmtree::Math::Core::Internal::Exception `RTTI Type Descriptor'
	DQ	0000000000000000H
	DB	'.?AVException@Internal@Core@Math@Palmtree@@', 00H
data$r	ENDS
;	COMDAT ??_R0?AVInternalErrorException@Internal@Core@Math@Palmtree@@@8
data$r	SEGMENT
??_R0?AVInternalErrorException@Internal@Core@Math@Palmtree@@@8 DQ FLAT:??_7type_info@@6B@ ; Palmtree::Math::Core::Internal::InternalErrorException `RTTI Type Descriptor'
	DQ	0000000000000000H
	DB	'.?AVInternalErrorException@Internal@Core@Math@Palmtree@@'
	DB	00H
data$r	ENDS
;	COMDAT ??_7InternalErrorException@Internal@Core@Math@Palmtree@@6B@
CONST	SEGMENT
??_7InternalErrorException@Internal@Core@Math@Palmtree@@6B@ DQ FLAT:??_R4InternalErrorException@Internal@Core@Math@Palmtree@@6B@ ; Palmtree::Math::Core::Internal::InternalErrorException::`vftable'
	DQ	FLAT:??_EInternalErrorException@Internal@Core@Math@Palmtree@@UEAAPEAXI@Z
	DQ	FLAT:?what@exception@std@@UEBAPEBDXZ
CONST	ENDS
;	COMDAT ??_7ArgumentNullException@Internal@Core@Math@Palmtree@@6B@
CONST	SEGMENT
??_7ArgumentNullException@Internal@Core@Math@Palmtree@@6B@ DQ FLAT:??_R4ArgumentNullException@Internal@Core@Math@Palmtree@@6B@ ; Palmtree::Math::Core::Internal::ArgumentNullException::`vftable'
	DQ	FLAT:??_EArgumentNullException@Internal@Core@Math@Palmtree@@UEAAPEAXI@Z
	DQ	FLAT:?what@exception@std@@UEBAPEBDXZ
CONST	ENDS
;	COMDAT ??_7Exception@Internal@Core@Math@Palmtree@@6B@
CONST	SEGMENT
??_7Exception@Internal@Core@Math@Palmtree@@6B@ DQ FLAT:??_R4Exception@Internal@Core@Math@Palmtree@@6B@ ; Palmtree::Math::Core::Internal::Exception::`vftable'
	DQ	FLAT:??_EException@Internal@Core@Math@Palmtree@@UEAAPEAXI@Z
	DQ	FLAT:?what@exception@std@@UEBAPEBDXZ
CONST	ENDS
;	COMDAT ??_C@_0BC@EOODALEL@Unknown?5exception@
CONST	SEGMENT
??_C@_0BC@EOODALEL@Unknown?5exception@ DB 'Unknown exception', 00H ; `string'
CONST	ENDS
;	COMDAT ??_7exception@std@@6B@
CONST	SEGMENT
??_7exception@std@@6B@ DQ FLAT:??_R4exception@std@@6B@	; std::exception::`vftable'
	DQ	FLAT:??_Eexception@std@@UEAAPEAXI@Z
	DQ	FLAT:?what@exception@std@@UEBAPEBDXZ
CONST	ENDS
;	COMDAT xdata
xdata	SEGMENT
$ip2state$?PMC_ExclusiveOr_X_X_Imp@Internal@Core@Math@Palmtree@@YAPEAU__tag_NUMBER_HEADER@1234@PEAU51234@0@Z DD imagerel ?PMC_ExclusiveOr_X_X_Imp@Internal@Core@Math@Palmtree@@YAPEAU__tag_NUMBER_HEADER@1234@PEAU51234@0@Z
	DD	0ffffffffH
	DD	imagerel ?PMC_ExclusiveOr_X_X_Imp@Internal@Core@Math@Palmtree@@YAPEAU__tag_NUMBER_HEADER@1234@PEAU51234@0@Z+77
	DD	00H
	DD	imagerel ?PMC_ExclusiveOr_X_X_Imp@Internal@Core@Math@Palmtree@@YAPEAU__tag_NUMBER_HEADER@1234@PEAU51234@0@Z+207
	DD	0ffffffffH
xdata	ENDS
;	COMDAT xdata
xdata	SEGMENT
$stateUnwindMap$?PMC_ExclusiveOr_X_X_Imp@Internal@Core@Math@Palmtree@@YAPEAU__tag_NUMBER_HEADER@1234@PEAU51234@0@Z DD 0ffffffffH
	DD	imagerel ?dtor$0@?0??PMC_ExclusiveOr_X_X_Imp@Internal@Core@Math@Palmtree@@YAPEAU__tag_NUMBER_HEADER@1234@PEAU51234@0@Z@4HA
xdata	ENDS
;	COMDAT CONST
CONST	SEGMENT
$cppxdata$?PMC_ExclusiveOr_X_X_Imp@Internal@Core@Math@Palmtree@@YAPEAU__tag_NUMBER_HEADER@1234@PEAU51234@0@Z DD 019930522H
	DD	01H
	DD	imagerel $stateUnwindMap$?PMC_ExclusiveOr_X_X_Imp@Internal@Core@Math@Palmtree@@YAPEAU__tag_NUMBER_HEADER@1234@PEAU51234@0@Z
	DD	00H
	DD	00H
	DD	03H
	DD	imagerel $ip2state$?PMC_ExclusiveOr_X_X_Imp@Internal@Core@Math@Palmtree@@YAPEAU__tag_NUMBER_HEADER@1234@PEAU51234@0@Z
	DD	030H
	DD	00H
	DD	00H
CONST	ENDS
;	COMDAT xdata
xdata	SEGMENT
$unwind$?PMC_ExclusiveOr_X_X_Imp@Internal@Core@Math@Palmtree@@YAPEAU__tag_NUMBER_HEADER@1234@PEAU51234@0@Z DD 061911H
	DD	0f6419H
	DD	0e3414H
	DD	07002b206H
	DD	imagerel __CxxFrameHandler3
	DD	imagerel $cppxdata$?PMC_ExclusiveOr_X_X_Imp@Internal@Core@Math@Palmtree@@YAPEAU__tag_NUMBER_HEADER@1234@PEAU51234@0@Z
xdata	ENDS
;	COMDAT xdata
xdata	SEGMENT
$ip2state$?PMC_ExclusiveOr_X_L_Imp@Internal@Core@Math@Palmtree@@YAPEAU__tag_NUMBER_HEADER@1234@PEAU51234@_K@Z DD imagerel ?PMC_ExclusiveOr_X_L_Imp@Internal@Core@Math@Palmtree@@YAPEAU__tag_NUMBER_HEADER@1234@PEAU51234@_K@Z
	DD	0ffffffffH
	DD	imagerel ?PMC_ExclusiveOr_X_L_Imp@Internal@Core@Math@Palmtree@@YAPEAU__tag_NUMBER_HEADER@1234@PEAU51234@_K@Z+98
	DD	02H
	DD	imagerel ?PMC_ExclusiveOr_X_L_Imp@Internal@Core@Math@Palmtree@@YAPEAU__tag_NUMBER_HEADER@1234@PEAU51234@_K@Z+252
	DD	0ffffffffH
xdata	ENDS
;	COMDAT xdata
xdata	SEGMENT
$stateUnwindMap$?PMC_ExclusiveOr_X_L_Imp@Internal@Core@Math@Palmtree@@YAPEAU__tag_NUMBER_HEADER@1234@PEAU51234@_K@Z DD 0ffffffffH
	DD	00H
	DD	0ffffffffH
	DD	00H
	DD	0ffffffffH
	DD	imagerel ?dtor$2@?0??PMC_ExclusiveOr_X_L_Imp@Internal@Core@Math@Palmtree@@YAPEAU__tag_NUMBER_HEADER@1234@PEAU51234@_K@Z@4HA
xdata	ENDS
;	COMDAT CONST
CONST	SEGMENT
$cppxdata$?PMC_ExclusiveOr_X_L_Imp@Internal@Core@Math@Palmtree@@YAPEAU__tag_NUMBER_HEADER@1234@PEAU51234@_K@Z DD 019930522H
	DD	03H
	DD	imagerel $stateUnwindMap$?PMC_ExclusiveOr_X_L_Imp@Internal@Core@Math@Palmtree@@YAPEAU__tag_NUMBER_HEADER@1234@PEAU51234@_K@Z
	DD	00H
	DD	00H
	DD	03H
	DD	imagerel $ip2state$?PMC_ExclusiveOr_X_L_Imp@Internal@Core@Math@Palmtree@@YAPEAU__tag_NUMBER_HEADER@1234@PEAU51234@_K@Z
	DD	020H
	DD	00H
	DD	00H
CONST	ENDS
;	COMDAT xdata
xdata	SEGMENT
$unwind$?PMC_ExclusiveOr_X_L_Imp@Internal@Core@Math@Palmtree@@YAPEAU__tag_NUMBER_HEADER@1234@PEAU51234@_K@Z DD 081e11H
	DD	0e641eH
	DD	0d5419H
	DD	0c3414H
	DD	070029206H
	DD	imagerel __CxxFrameHandler3
	DD	imagerel $cppxdata$?PMC_ExclusiveOr_X_L_Imp@Internal@Core@Math@Palmtree@@YAPEAU__tag_NUMBER_HEADER@1234@PEAU51234@_K@Z
xdata	ENDS
;	COMDAT xdata
xdata	SEGMENT
$ip2state$?PMC_ExclusiveOr_X_I_Imp@Internal@Core@Math@Palmtree@@YAPEAU__tag_NUMBER_HEADER@1234@PEAU51234@I@Z DD imagerel ?PMC_ExclusiveOr_X_I_Imp@Internal@Core@Math@Palmtree@@YAPEAU__tag_NUMBER_HEADER@1234@PEAU51234@I@Z
	DD	0ffffffffH
	DD	imagerel ?PMC_ExclusiveOr_X_I_Imp@Internal@Core@Math@Palmtree@@YAPEAU__tag_NUMBER_HEADER@1234@PEAU51234@I@Z+94
	DD	00H
	DD	imagerel ?PMC_ExclusiveOr_X_I_Imp@Internal@Core@Math@Palmtree@@YAPEAU__tag_NUMBER_HEADER@1234@PEAU51234@I@Z+250
	DD	0ffffffffH
xdata	ENDS
;	COMDAT xdata
xdata	SEGMENT
$stateUnwindMap$?PMC_ExclusiveOr_X_I_Imp@Internal@Core@Math@Palmtree@@YAPEAU__tag_NUMBER_HEADER@1234@PEAU51234@I@Z DD 0ffffffffH
	DD	imagerel ?dtor$0@?0??PMC_ExclusiveOr_X_I_Imp@Internal@Core@Math@Palmtree@@YAPEAU__tag_NUMBER_HEADER@1234@PEAU51234@I@Z@4HA
xdata	ENDS
;	COMDAT CONST
CONST	SEGMENT
$cppxdata$?PMC_ExclusiveOr_X_I_Imp@Internal@Core@Math@Palmtree@@YAPEAU__tag_NUMBER_HEADER@1234@PEAU51234@I@Z DD 019930522H
	DD	01H
	DD	imagerel $stateUnwindMap$?PMC_ExclusiveOr_X_I_Imp@Internal@Core@Math@Palmtree@@YAPEAU__tag_NUMBER_HEADER@1234@PEAU51234@I@Z
	DD	00H
	DD	00H
	DD	03H
	DD	imagerel $ip2state$?PMC_ExclusiveOr_X_I_Imp@Internal@Core@Math@Palmtree@@YAPEAU__tag_NUMBER_HEADER@1234@PEAU51234@I@Z
	DD	020H
	DD	00H
	DD	00H
CONST	ENDS
;	COMDAT xdata
xdata	SEGMENT
$unwind$?PMC_ExclusiveOr_X_I_Imp@Internal@Core@Math@Palmtree@@YAPEAU__tag_NUMBER_HEADER@1234@PEAU51234@I@Z DD 081e11H
	DD	0e641eH
	DD	0d5419H
	DD	0c3414H
	DD	070029206H
	DD	imagerel __CxxFrameHandler3
	DD	imagerel $cppxdata$?PMC_ExclusiveOr_X_I_Imp@Internal@Core@Math@Palmtree@@YAPEAU__tag_NUMBER_HEADER@1234@PEAU51234@I@Z
xdata	ENDS
;	COMDAT xdata
xdata	SEGMENT
$unwind$?ExclusiveOr_X_X@Internal@Core@Math@Palmtree@@YAXPEA_K_K010@Z DD 081401H
	DD	047414H
	DD	03640fH
	DD	02540aH
	DD	013405H
xdata	ENDS
;	COMDAT xdata
xdata	SEGMENT
$unwind$?ExclusiveOr_X_2W@Internal@Core@Math@Palmtree@@YAXPEA_K_K110@Z DD 040a01H
	DD	02740aH
	DD	016405H
xdata	ENDS
;	COMDAT xdata
xdata	SEGMENT
$chain$1$?ExclusiveOr_X_1W@Internal@Core@Math@Palmtree@@YAXPEA_K_K10@Z DD 021H
	DD	imagerel ?ExclusiveOr_X_1W@Internal@Core@Math@Palmtree@@YAXPEA_K_K10@Z
	DD	imagerel ?ExclusiveOr_X_1W@Internal@Core@Math@Palmtree@@YAXPEA_K_K10@Z+20
	DD	imagerel $unwind$?ExclusiveOr_X_1W@Internal@Core@Math@Palmtree@@YAXPEA_K_K10@Z
xdata	ENDS
;	COMDAT xdata
xdata	SEGMENT
$chain$0$?ExclusiveOr_X_1W@Internal@Core@Math@Palmtree@@YAXPEA_K_K10@Z DD 020521H
	DD	027405H
	DD	imagerel ?ExclusiveOr_X_1W@Internal@Core@Math@Palmtree@@YAXPEA_K_K10@Z
	DD	imagerel ?ExclusiveOr_X_1W@Internal@Core@Math@Palmtree@@YAXPEA_K_K10@Z+20
	DD	imagerel $unwind$?ExclusiveOr_X_1W@Internal@Core@Math@Palmtree@@YAXPEA_K_K10@Z
xdata	ENDS
;	COMDAT xdata
xdata	SEGMENT
$unwind$?ExclusiveOr_X_1W@Internal@Core@Math@Palmtree@@YAXPEA_K_K10@Z DD 010201H
	DD	06002H
xdata	ENDS
;	COMDAT xdata
xdata	SEGMENT
$unwind$_COPY_MEMORY_UNIT DD 040a01H
	DD	02740aH
	DD	016405H
xdata	ENDS
;	COMDAT xdata
xdata	SEGMENT
$ip2state$?PMC_ExclusiveOr_X_X@Internal@Core@Math@Palmtree@@YAPEAU__tag_PMC_HANDLE_UINT@1234@PEAU51234@0@Z DD imagerel ?PMC_ExclusiveOr_X_X@Internal@Core@Math@Palmtree@@YAPEAU__tag_PMC_HANDLE_UINT@1234@PEAU51234@0@Z
	DD	0ffffffffH
	DD	imagerel ?PMC_ExclusiveOr_X_X@Internal@Core@Math@Palmtree@@YAPEAU__tag_PMC_HANDLE_UINT@1234@PEAU51234@0@Z+75
	DD	00H
	DD	imagerel ?PMC_ExclusiveOr_X_X@Internal@Core@Math@Palmtree@@YAPEAU__tag_PMC_HANDLE_UINT@1234@PEAU51234@0@Z+130
	DD	01H
	DD	imagerel ?PMC_ExclusiveOr_X_X@Internal@Core@Math@Palmtree@@YAPEAU__tag_PMC_HANDLE_UINT@1234@PEAU51234@0@Z+260
	DD	00H
	DD	imagerel ?PMC_ExclusiveOr_X_X@Internal@Core@Math@Palmtree@@YAPEAU__tag_PMC_HANDLE_UINT@1234@PEAU51234@0@Z+297
	DD	0ffffffffH
xdata	ENDS
;	COMDAT xdata
xdata	SEGMENT
$stateUnwindMap$?PMC_ExclusiveOr_X_X@Internal@Core@Math@Palmtree@@YAPEAU__tag_PMC_HANDLE_UINT@1234@PEAU51234@0@Z DD 0ffffffffH
	DD	imagerel ?dtor$0@?0??PMC_ExclusiveOr_X_X@Internal@Core@Math@Palmtree@@YAPEAU__tag_PMC_HANDLE_UINT@1234@PEAU51234@0@Z@4HA
	DD	00H
	DD	imagerel ?dtor$1@?0??PMC_ExclusiveOr_X_X@Internal@Core@Math@Palmtree@@YAPEAU__tag_PMC_HANDLE_UINT@1234@PEAU51234@0@Z@4HA
xdata	ENDS
;	COMDAT CONST
CONST	SEGMENT
$cppxdata$?PMC_ExclusiveOr_X_X@Internal@Core@Math@Palmtree@@YAPEAU__tag_PMC_HANDLE_UINT@1234@PEAU51234@0@Z DD 019930522H
	DD	02H
	DD	imagerel $stateUnwindMap$?PMC_ExclusiveOr_X_X@Internal@Core@Math@Palmtree@@YAPEAU__tag_PMC_HANDLE_UINT@1234@PEAU51234@0@Z
	DD	00H
	DD	00H
	DD	05H
	DD	imagerel $ip2state$?PMC_ExclusiveOr_X_X@Internal@Core@Math@Palmtree@@YAPEAU__tag_PMC_HANDLE_UINT@1234@PEAU51234@0@Z
	DD	030H
	DD	00H
	DD	00H
CONST	ENDS
;	COMDAT xdata
xdata	SEGMENT
$unwind$?PMC_ExclusiveOr_X_X@Internal@Core@Math@Palmtree@@YAPEAU__tag_PMC_HANDLE_UINT@1234@PEAU51234@0@Z DD 071b11H
	DD	015641bH
	DD	0143417H
	DD	012010bH
	DD	07004H
	DD	imagerel __CxxFrameHandler3
	DD	imagerel $cppxdata$?PMC_ExclusiveOr_X_X@Internal@Core@Math@Palmtree@@YAPEAU__tag_PMC_HANDLE_UINT@1234@PEAU51234@0@Z
xdata	ENDS
;	COMDAT xdata
xdata	SEGMENT
$ip2state$?PMC_ExclusiveOr_X_L@Internal@Core@Math@Palmtree@@YAPEAU__tag_PMC_HANDLE_UINT@1234@PEAU51234@_K@Z DD imagerel ?PMC_ExclusiveOr_X_L@Internal@Core@Math@Palmtree@@YAPEAU__tag_PMC_HANDLE_UINT@1234@PEAU51234@_K@Z
	DD	0ffffffffH
	DD	imagerel ?PMC_ExclusiveOr_X_L@Internal@Core@Math@Palmtree@@YAPEAU__tag_PMC_HANDLE_UINT@1234@PEAU51234@_K@Z+53
	DD	00H
	DD	imagerel ?PMC_ExclusiveOr_X_L@Internal@Core@Math@Palmtree@@YAPEAU__tag_PMC_HANDLE_UINT@1234@PEAU51234@_K@Z+94
	DD	0ffffffffH
xdata	ENDS
;	COMDAT xdata
xdata	SEGMENT
$stateUnwindMap$?PMC_ExclusiveOr_X_L@Internal@Core@Math@Palmtree@@YAPEAU__tag_PMC_HANDLE_UINT@1234@PEAU51234@_K@Z DD 0ffffffffH
	DD	imagerel ?dtor$0@?0??PMC_ExclusiveOr_X_L@Internal@Core@Math@Palmtree@@YAPEAU__tag_PMC_HANDLE_UINT@1234@PEAU51234@_K@Z@4HA
xdata	ENDS
;	COMDAT CONST
CONST	SEGMENT
$cppxdata$?PMC_ExclusiveOr_X_L@Internal@Core@Math@Palmtree@@YAPEAU__tag_PMC_HANDLE_UINT@1234@PEAU51234@_K@Z DD 019930522H
	DD	01H
	DD	imagerel $stateUnwindMap$?PMC_ExclusiveOr_X_L@Internal@Core@Math@Palmtree@@YAPEAU__tag_PMC_HANDLE_UINT@1234@PEAU51234@_K@Z
	DD	00H
	DD	00H
	DD	03H
	DD	imagerel $ip2state$?PMC_ExclusiveOr_X_L@Internal@Core@Math@Palmtree@@YAPEAU__tag_PMC_HANDLE_UINT@1234@PEAU51234@_K@Z
	DD	020H
	DD	00H
	DD	00H
CONST	ENDS
;	COMDAT xdata
xdata	SEGMENT
$unwind$?PMC_ExclusiveOr_X_L@Internal@Core@Math@Palmtree@@YAPEAU__tag_PMC_HANDLE_UINT@1234@PEAU51234@_K@Z DD 041a11H
	DD	012341aH
	DD	07002f209H
	DD	imagerel __CxxFrameHandler3
	DD	imagerel $cppxdata$?PMC_ExclusiveOr_X_L@Internal@Core@Math@Palmtree@@YAPEAU__tag_PMC_HANDLE_UINT@1234@PEAU51234@_K@Z
xdata	ENDS
;	COMDAT xdata
xdata	SEGMENT
$ip2state$?PMC_ExclusiveOr_X_I@Internal@Core@Math@Palmtree@@YAPEAU__tag_PMC_HANDLE_UINT@1234@PEAU51234@I@Z DD imagerel ?PMC_ExclusiveOr_X_I@Internal@Core@Math@Palmtree@@YAPEAU__tag_PMC_HANDLE_UINT@1234@PEAU51234@I@Z
	DD	0ffffffffH
	DD	imagerel ?PMC_ExclusiveOr_X_I@Internal@Core@Math@Palmtree@@YAPEAU__tag_PMC_HANDLE_UINT@1234@PEAU51234@I@Z+52
	DD	00H
	DD	imagerel ?PMC_ExclusiveOr_X_I@Internal@Core@Math@Palmtree@@YAPEAU__tag_PMC_HANDLE_UINT@1234@PEAU51234@I@Z+92
	DD	0ffffffffH
xdata	ENDS
;	COMDAT xdata
xdata	SEGMENT
$stateUnwindMap$?PMC_ExclusiveOr_X_I@Internal@Core@Math@Palmtree@@YAPEAU__tag_PMC_HANDLE_UINT@1234@PEAU51234@I@Z DD 0ffffffffH
	DD	imagerel ?dtor$0@?0??PMC_ExclusiveOr_X_I@Internal@Core@Math@Palmtree@@YAPEAU__tag_PMC_HANDLE_UINT@1234@PEAU51234@I@Z@4HA
xdata	ENDS
;	COMDAT CONST
CONST	SEGMENT
$cppxdata$?PMC_ExclusiveOr_X_I@Internal@Core@Math@Palmtree@@YAPEAU__tag_PMC_HANDLE_UINT@1234@PEAU51234@I@Z DD 019930522H
	DD	01H
	DD	imagerel $stateUnwindMap$?PMC_ExclusiveOr_X_I@Internal@Core@Math@Palmtree@@YAPEAU__tag_PMC_HANDLE_UINT@1234@PEAU51234@I@Z
	DD	00H
	DD	00H
	DD	03H
	DD	imagerel $ip2state$?PMC_ExclusiveOr_X_I@Internal@Core@Math@Palmtree@@YAPEAU__tag_PMC_HANDLE_UINT@1234@PEAU51234@I@Z
	DD	020H
	DD	00H
	DD	00H
CONST	ENDS
;	COMDAT xdata
xdata	SEGMENT
$unwind$?PMC_ExclusiveOr_X_I@Internal@Core@Math@Palmtree@@YAPEAU__tag_PMC_HANDLE_UINT@1234@PEAU51234@I@Z DD 041a11H
	DD	012341aH
	DD	07002f209H
	DD	imagerel __CxxFrameHandler3
	DD	imagerel $cppxdata$?PMC_ExclusiveOr_X_I@Internal@Core@Math@Palmtree@@YAPEAU__tag_PMC_HANDLE_UINT@1234@PEAU51234@I@Z
xdata	ENDS
;	COMDAT xdata
xdata	SEGMENT
$ip2state$?PMC_ExclusiveOr_L_X@Internal@Core@Math@Palmtree@@YAPEAU__tag_PMC_HANDLE_UINT@1234@_KPEAU51234@@Z DD imagerel ?PMC_ExclusiveOr_L_X@Internal@Core@Math@Palmtree@@YAPEAU__tag_PMC_HANDLE_UINT@1234@_KPEAU51234@@Z
	DD	0ffffffffH
	DD	imagerel ?PMC_ExclusiveOr_L_X@Internal@Core@Math@Palmtree@@YAPEAU__tag_PMC_HANDLE_UINT@1234@_KPEAU51234@@Z+56
	DD	00H
	DD	imagerel ?PMC_ExclusiveOr_L_X@Internal@Core@Math@Palmtree@@YAPEAU__tag_PMC_HANDLE_UINT@1234@_KPEAU51234@@Z+97
	DD	0ffffffffH
xdata	ENDS
;	COMDAT xdata
xdata	SEGMENT
$stateUnwindMap$?PMC_ExclusiveOr_L_X@Internal@Core@Math@Palmtree@@YAPEAU__tag_PMC_HANDLE_UINT@1234@_KPEAU51234@@Z DD 0ffffffffH
	DD	imagerel ?dtor$0@?0??PMC_ExclusiveOr_L_X@Internal@Core@Math@Palmtree@@YAPEAU__tag_PMC_HANDLE_UINT@1234@_KPEAU51234@@Z@4HA
xdata	ENDS
;	COMDAT CONST
CONST	SEGMENT
$cppxdata$?PMC_ExclusiveOr_L_X@Internal@Core@Math@Palmtree@@YAPEAU__tag_PMC_HANDLE_UINT@1234@_KPEAU51234@@Z DD 019930522H
	DD	01H
	DD	imagerel $stateUnwindMap$?PMC_ExclusiveOr_L_X@Internal@Core@Math@Palmtree@@YAPEAU__tag_PMC_HANDLE_UINT@1234@_KPEAU51234@@Z
	DD	00H
	DD	00H
	DD	03H
	DD	imagerel $ip2state$?PMC_ExclusiveOr_L_X@Internal@Core@Math@Palmtree@@YAPEAU__tag_PMC_HANDLE_UINT@1234@_KPEAU51234@@Z
	DD	020H
	DD	00H
	DD	00H
CONST	ENDS
;	COMDAT xdata
xdata	SEGMENT
$unwind$?PMC_ExclusiveOr_L_X@Internal@Core@Math@Palmtree@@YAPEAU__tag_PMC_HANDLE_UINT@1234@_KPEAU51234@@Z DD 041a11H
	DD	012341aH
	DD	07002f209H
	DD	imagerel __CxxFrameHandler3
	DD	imagerel $cppxdata$?PMC_ExclusiveOr_L_X@Internal@Core@Math@Palmtree@@YAPEAU__tag_PMC_HANDLE_UINT@1234@_KPEAU51234@@Z
xdata	ENDS
;	COMDAT xdata
xdata	SEGMENT
$ip2state$?PMC_ExclusiveOr_I_X@Internal@Core@Math@Palmtree@@YAPEAU__tag_PMC_HANDLE_UINT@1234@IPEAU51234@@Z DD imagerel ?PMC_ExclusiveOr_I_X@Internal@Core@Math@Palmtree@@YAPEAU__tag_PMC_HANDLE_UINT@1234@IPEAU51234@@Z
	DD	0ffffffffH
	DD	imagerel ?PMC_ExclusiveOr_I_X@Internal@Core@Math@Palmtree@@YAPEAU__tag_PMC_HANDLE_UINT@1234@IPEAU51234@@Z+55
	DD	00H
	DD	imagerel ?PMC_ExclusiveOr_I_X@Internal@Core@Math@Palmtree@@YAPEAU__tag_PMC_HANDLE_UINT@1234@IPEAU51234@@Z+95
	DD	0ffffffffH
xdata	ENDS
;	COMDAT xdata
xdata	SEGMENT
$stateUnwindMap$?PMC_ExclusiveOr_I_X@Internal@Core@Math@Palmtree@@YAPEAU__tag_PMC_HANDLE_UINT@1234@IPEAU51234@@Z DD 0ffffffffH
	DD	imagerel ?dtor$0@?0??PMC_ExclusiveOr_I_X@Internal@Core@Math@Palmtree@@YAPEAU__tag_PMC_HANDLE_UINT@1234@IPEAU51234@@Z@4HA
xdata	ENDS
;	COMDAT CONST
CONST	SEGMENT
$cppxdata$?PMC_ExclusiveOr_I_X@Internal@Core@Math@Palmtree@@YAPEAU__tag_PMC_HANDLE_UINT@1234@IPEAU51234@@Z DD 019930522H
	DD	01H
	DD	imagerel $stateUnwindMap$?PMC_ExclusiveOr_I_X@Internal@Core@Math@Palmtree@@YAPEAU__tag_PMC_HANDLE_UINT@1234@IPEAU51234@@Z
	DD	00H
	DD	00H
	DD	03H
	DD	imagerel $ip2state$?PMC_ExclusiveOr_I_X@Internal@Core@Math@Palmtree@@YAPEAU__tag_PMC_HANDLE_UINT@1234@IPEAU51234@@Z
	DD	020H
	DD	00H
	DD	00H
CONST	ENDS
;	COMDAT xdata
xdata	SEGMENT
$unwind$?PMC_ExclusiveOr_I_X@Internal@Core@Math@Palmtree@@YAPEAU__tag_PMC_HANDLE_UINT@1234@IPEAU51234@@Z DD 041a11H
	DD	012341aH
	DD	07002f209H
	DD	imagerel __CxxFrameHandler3
	DD	imagerel $cppxdata$?PMC_ExclusiveOr_I_X@Internal@Core@Math@Palmtree@@YAPEAU__tag_PMC_HANDLE_UINT@1234@IPEAU51234@@Z
xdata	ENDS
;	COMDAT xdata
xdata	SEGMENT
$ip2state$??_GInternalErrorException@Internal@Core@Math@Palmtree@@UEAAPEAXI@Z DD imagerel ??_GInternalErrorException@Internal@Core@Math@Palmtree@@UEAAPEAXI@Z
	DD	0ffffffffH
xdata	ENDS
;	COMDAT xdata
xdata	SEGMENT
$stateUnwindMap$??_GInternalErrorException@Internal@Core@Math@Palmtree@@UEAAPEAXI@Z DD 0ffffffffH
	DD	imagerel ?dtor$0@?0???_GInternalErrorException@Internal@Core@Math@Palmtree@@UEAAPEAXI@Z@4HA
	DD	0ffffffffH
	DD	imagerel ?dtor$1@?0???_GInternalErrorException@Internal@Core@Math@Palmtree@@UEAAPEAXI@Z@4HA
xdata	ENDS
;	COMDAT CONST
CONST	SEGMENT
$cppxdata$??_GInternalErrorException@Internal@Core@Math@Palmtree@@UEAAPEAXI@Z DD 019930522H
	DD	02H
	DD	imagerel $stateUnwindMap$??_GInternalErrorException@Internal@Core@Math@Palmtree@@UEAAPEAXI@Z
	DD	00H
	DD	00H
	DD	01H
	DD	imagerel $ip2state$??_GInternalErrorException@Internal@Core@Math@Palmtree@@UEAAPEAXI@Z
	DD	020H
	DD	00H
	DD	04H
CONST	ENDS
;	COMDAT xdata
xdata	SEGMENT
$unwind$??_GInternalErrorException@Internal@Core@Math@Palmtree@@UEAAPEAXI@Z DD 041819H
	DD	093418H
	DD	07006520aH
	DD	imagerel __CxxFrameHandler3
	DD	imagerel $cppxdata$??_GInternalErrorException@Internal@Core@Math@Palmtree@@UEAAPEAXI@Z
xdata	ENDS
;	COMDAT xdata
xdata	SEGMENT
$ip2state$??1InternalErrorException@Internal@Core@Math@Palmtree@@UEAA@XZ DD imagerel ??1InternalErrorException@Internal@Core@Math@Palmtree@@UEAA@XZ
	DD	0ffffffffH
xdata	ENDS
;	COMDAT xdata
xdata	SEGMENT
$stateUnwindMap$??1InternalErrorException@Internal@Core@Math@Palmtree@@UEAA@XZ DD 0ffffffffH
	DD	imagerel ?dtor$0@?0???1InternalErrorException@Internal@Core@Math@Palmtree@@UEAA@XZ@4HA
	DD	0ffffffffH
	DD	imagerel ?dtor$1@?0???1InternalErrorException@Internal@Core@Math@Palmtree@@UEAA@XZ@4HA
xdata	ENDS
;	COMDAT CONST
CONST	SEGMENT
$cppxdata$??1InternalErrorException@Internal@Core@Math@Palmtree@@UEAA@XZ DD 019930522H
	DD	02H
	DD	imagerel $stateUnwindMap$??1InternalErrorException@Internal@Core@Math@Palmtree@@UEAA@XZ
	DD	00H
	DD	00H
	DD	01H
	DD	imagerel $ip2state$??1InternalErrorException@Internal@Core@Math@Palmtree@@UEAA@XZ
	DD	020H
	DD	00H
	DD	04H
CONST	ENDS
;	COMDAT xdata
xdata	SEGMENT
$unwind$??1InternalErrorException@Internal@Core@Math@Palmtree@@UEAA@XZ DD 011219H
	DD	06209H
	DD	imagerel __CxxFrameHandler3
	DD	imagerel $cppxdata$??1InternalErrorException@Internal@Core@Math@Palmtree@@UEAA@XZ
xdata	ENDS
;	COMDAT xdata
xdata	SEGMENT
$ip2state$??0InternalErrorException@Internal@Core@Math@Palmtree@@QEAA@PEB_W0@Z DD imagerel ??0InternalErrorException@Internal@Core@Math@Palmtree@@QEAA@PEB_W0@Z
	DD	0ffffffffH
	DD	imagerel ??0InternalErrorException@Internal@Core@Math@Palmtree@@QEAA@PEB_W0@Z+37
	DD	00H
	DD	imagerel ??0InternalErrorException@Internal@Core@Math@Palmtree@@QEAA@PEB_W0@Z+62
	DD	01H
	DD	imagerel ??0InternalErrorException@Internal@Core@Math@Palmtree@@QEAA@PEB_W0@Z+72
	DD	0ffffffffH
xdata	ENDS
;	COMDAT xdata
xdata	SEGMENT
$stateUnwindMap$??0InternalErrorException@Internal@Core@Math@Palmtree@@QEAA@PEB_W0@Z DD 0ffffffffH
	DD	imagerel ?dtor$1@?0???0InternalErrorException@Internal@Core@Math@Palmtree@@QEAA@PEB_W0@Z@4HA
	DD	0ffffffffH
	DD	imagerel ?dtor$0@?0???0InternalErrorException@Internal@Core@Math@Palmtree@@QEAA@PEB_W0@Z@4HA
xdata	ENDS
;	COMDAT CONST
CONST	SEGMENT
$cppxdata$??0InternalErrorException@Internal@Core@Math@Palmtree@@QEAA@PEB_W0@Z DD 019930522H
	DD	02H
	DD	imagerel $stateUnwindMap$??0InternalErrorException@Internal@Core@Math@Palmtree@@QEAA@PEB_W0@Z
	DD	00H
	DD	00H
	DD	04H
	DD	imagerel $ip2state$??0InternalErrorException@Internal@Core@Math@Palmtree@@QEAA@PEB_W0@Z
	DD	00H
	DD	00H
	DD	04H
CONST	ENDS
;	COMDAT xdata
xdata	SEGMENT
$unwind$??0InternalErrorException@Internal@Core@Math@Palmtree@@QEAA@PEB_W0@Z DD 011111H
	DD	02209H
	DD	imagerel __CxxFrameHandler3
	DD	imagerel $cppxdata$??0InternalErrorException@Internal@Core@Math@Palmtree@@QEAA@PEB_W0@Z
xdata	ENDS
;	COMDAT xdata
xdata	SEGMENT
$ip2state$??_GArgumentNullException@Internal@Core@Math@Palmtree@@UEAAPEAXI@Z DD imagerel ??_GArgumentNullException@Internal@Core@Math@Palmtree@@UEAAPEAXI@Z
	DD	0ffffffffH
xdata	ENDS
;	COMDAT xdata
xdata	SEGMENT
$stateUnwindMap$??_GArgumentNullException@Internal@Core@Math@Palmtree@@UEAAPEAXI@Z DD 0ffffffffH
	DD	imagerel ?dtor$0@?0???_GArgumentNullException@Internal@Core@Math@Palmtree@@UEAAPEAXI@Z@4HA
	DD	0ffffffffH
	DD	imagerel ?dtor$1@?0???_GArgumentNullException@Internal@Core@Math@Palmtree@@UEAAPEAXI@Z@4HA
xdata	ENDS
;	COMDAT CONST
CONST	SEGMENT
$cppxdata$??_GArgumentNullException@Internal@Core@Math@Palmtree@@UEAAPEAXI@Z DD 019930522H
	DD	02H
	DD	imagerel $stateUnwindMap$??_GArgumentNullException@Internal@Core@Math@Palmtree@@UEAAPEAXI@Z
	DD	00H
	DD	00H
	DD	01H
	DD	imagerel $ip2state$??_GArgumentNullException@Internal@Core@Math@Palmtree@@UEAAPEAXI@Z
	DD	020H
	DD	00H
	DD	04H
CONST	ENDS
;	COMDAT xdata
xdata	SEGMENT
$unwind$??_GArgumentNullException@Internal@Core@Math@Palmtree@@UEAAPEAXI@Z DD 041819H
	DD	093418H
	DD	07006520aH
	DD	imagerel __CxxFrameHandler3
	DD	imagerel $cppxdata$??_GArgumentNullException@Internal@Core@Math@Palmtree@@UEAAPEAXI@Z
xdata	ENDS
;	COMDAT xdata
xdata	SEGMENT
$ip2state$??1ArgumentNullException@Internal@Core@Math@Palmtree@@UEAA@XZ DD imagerel ??1ArgumentNullException@Internal@Core@Math@Palmtree@@UEAA@XZ
	DD	0ffffffffH
xdata	ENDS
;	COMDAT xdata
xdata	SEGMENT
$stateUnwindMap$??1ArgumentNullException@Internal@Core@Math@Palmtree@@UEAA@XZ DD 0ffffffffH
	DD	imagerel ?dtor$0@?0???1ArgumentNullException@Internal@Core@Math@Palmtree@@UEAA@XZ@4HA
	DD	0ffffffffH
	DD	imagerel ?dtor$1@?0???1ArgumentNullException@Internal@Core@Math@Palmtree@@UEAA@XZ@4HA
xdata	ENDS
;	COMDAT CONST
CONST	SEGMENT
$cppxdata$??1ArgumentNullException@Internal@Core@Math@Palmtree@@UEAA@XZ DD 019930522H
	DD	02H
	DD	imagerel $stateUnwindMap$??1ArgumentNullException@Internal@Core@Math@Palmtree@@UEAA@XZ
	DD	00H
	DD	00H
	DD	01H
	DD	imagerel $ip2state$??1ArgumentNullException@Internal@Core@Math@Palmtree@@UEAA@XZ
	DD	020H
	DD	00H
	DD	04H
CONST	ENDS
;	COMDAT xdata
xdata	SEGMENT
$unwind$??1ArgumentNullException@Internal@Core@Math@Palmtree@@UEAA@XZ DD 011219H
	DD	06209H
	DD	imagerel __CxxFrameHandler3
	DD	imagerel $cppxdata$??1ArgumentNullException@Internal@Core@Math@Palmtree@@UEAA@XZ
xdata	ENDS
;	COMDAT xdata
xdata	SEGMENT
$ip2state$??0ArgumentNullException@Internal@Core@Math@Palmtree@@QEAA@AEBV01234@@Z DD imagerel ??0ArgumentNullException@Internal@Core@Math@Palmtree@@QEAA@AEBV01234@@Z
	DD	0ffffffffH
	DD	imagerel ??0ArgumentNullException@Internal@Core@Math@Palmtree@@QEAA@AEBV01234@@Z+37
	DD	00H
	DD	imagerel ??0ArgumentNullException@Internal@Core@Math@Palmtree@@QEAA@AEBV01234@@Z+69
	DD	01H
	DD	imagerel ??0ArgumentNullException@Internal@Core@Math@Palmtree@@QEAA@AEBV01234@@Z+79
	DD	0ffffffffH
xdata	ENDS
;	COMDAT xdata
xdata	SEGMENT
$stateUnwindMap$??0ArgumentNullException@Internal@Core@Math@Palmtree@@QEAA@AEBV01234@@Z DD 0ffffffffH
	DD	imagerel ?dtor$1@?0???0ArgumentNullException@Internal@Core@Math@Palmtree@@QEAA@AEBV01234@@Z@4HA
	DD	0ffffffffH
	DD	imagerel ?dtor$0@?0???0ArgumentNullException@Internal@Core@Math@Palmtree@@QEAA@AEBV01234@@Z@4HA
xdata	ENDS
;	COMDAT CONST
CONST	SEGMENT
$cppxdata$??0ArgumentNullException@Internal@Core@Math@Palmtree@@QEAA@AEBV01234@@Z DD 019930522H
	DD	02H
	DD	imagerel $stateUnwindMap$??0ArgumentNullException@Internal@Core@Math@Palmtree@@QEAA@AEBV01234@@Z
	DD	00H
	DD	00H
	DD	04H
	DD	imagerel $ip2state$??0ArgumentNullException@Internal@Core@Math@Palmtree@@QEAA@AEBV01234@@Z
	DD	00H
	DD	00H
	DD	04H
CONST	ENDS
;	COMDAT xdata
xdata	SEGMENT
$unwind$??0ArgumentNullException@Internal@Core@Math@Palmtree@@QEAA@AEBV01234@@Z DD 011111H
	DD	02209H
	DD	imagerel __CxxFrameHandler3
	DD	imagerel $cppxdata$??0ArgumentNullException@Internal@Core@Math@Palmtree@@QEAA@AEBV01234@@Z
xdata	ENDS
;	COMDAT xdata
xdata	SEGMENT
$ip2state$??0ArgumentNullException@Internal@Core@Math@Palmtree@@QEAA@PEB_W0@Z DD imagerel ??0ArgumentNullException@Internal@Core@Math@Palmtree@@QEAA@PEB_W0@Z
	DD	0ffffffffH
	DD	imagerel ??0ArgumentNullException@Internal@Core@Math@Palmtree@@QEAA@PEB_W0@Z+37
	DD	00H
	DD	imagerel ??0ArgumentNullException@Internal@Core@Math@Palmtree@@QEAA@PEB_W0@Z+62
	DD	01H
	DD	imagerel ??0ArgumentNullException@Internal@Core@Math@Palmtree@@QEAA@PEB_W0@Z+72
	DD	0ffffffffH
xdata	ENDS
;	COMDAT xdata
xdata	SEGMENT
$stateUnwindMap$??0ArgumentNullException@Internal@Core@Math@Palmtree@@QEAA@PEB_W0@Z DD 0ffffffffH
	DD	imagerel ?dtor$1@?0???0ArgumentNullException@Internal@Core@Math@Palmtree@@QEAA@PEB_W0@Z@4HA
	DD	0ffffffffH
	DD	imagerel ?dtor$0@?0???0ArgumentNullException@Internal@Core@Math@Palmtree@@QEAA@PEB_W0@Z@4HA
xdata	ENDS
;	COMDAT CONST
CONST	SEGMENT
$cppxdata$??0ArgumentNullException@Internal@Core@Math@Palmtree@@QEAA@PEB_W0@Z DD 019930522H
	DD	02H
	DD	imagerel $stateUnwindMap$??0ArgumentNullException@Internal@Core@Math@Palmtree@@QEAA@PEB_W0@Z
	DD	00H
	DD	00H
	DD	04H
	DD	imagerel $ip2state$??0ArgumentNullException@Internal@Core@Math@Palmtree@@QEAA@PEB_W0@Z
	DD	00H
	DD	00H
	DD	04H
CONST	ENDS
;	COMDAT xdata
xdata	SEGMENT
$unwind$??0ArgumentNullException@Internal@Core@Math@Palmtree@@QEAA@PEB_W0@Z DD 011111H
	DD	02209H
	DD	imagerel __CxxFrameHandler3
	DD	imagerel $cppxdata$??0ArgumentNullException@Internal@Core@Math@Palmtree@@QEAA@PEB_W0@Z
xdata	ENDS
;	COMDAT xdata
xdata	SEGMENT
$ip2state$??_GException@Internal@Core@Math@Palmtree@@UEAAPEAXI@Z DD imagerel ??_GException@Internal@Core@Math@Palmtree@@UEAAPEAXI@Z
	DD	0ffffffffH
xdata	ENDS
;	COMDAT xdata
xdata	SEGMENT
$stateUnwindMap$??_GException@Internal@Core@Math@Palmtree@@UEAAPEAXI@Z DD 0ffffffffH
	DD	imagerel ?dtor$0@?0???_GException@Internal@Core@Math@Palmtree@@UEAAPEAXI@Z@4HA
xdata	ENDS
;	COMDAT CONST
CONST	SEGMENT
$cppxdata$??_GException@Internal@Core@Math@Palmtree@@UEAAPEAXI@Z DD 019930522H
	DD	01H
	DD	imagerel $stateUnwindMap$??_GException@Internal@Core@Math@Palmtree@@UEAAPEAXI@Z
	DD	00H
	DD	00H
	DD	01H
	DD	imagerel $ip2state$??_GException@Internal@Core@Math@Palmtree@@UEAAPEAXI@Z
	DD	020H
	DD	00H
	DD	04H
CONST	ENDS
;	COMDAT xdata
xdata	SEGMENT
$unwind$??_GException@Internal@Core@Math@Palmtree@@UEAAPEAXI@Z DD 041819H
	DD	093418H
	DD	07006520aH
	DD	imagerel __CxxFrameHandler3
	DD	imagerel $cppxdata$??_GException@Internal@Core@Math@Palmtree@@UEAAPEAXI@Z
xdata	ENDS
;	COMDAT xdata
xdata	SEGMENT
$ip2state$??1Exception@Internal@Core@Math@Palmtree@@UEAA@XZ DD imagerel ??1Exception@Internal@Core@Math@Palmtree@@UEAA@XZ
	DD	0ffffffffH
xdata	ENDS
;	COMDAT xdata
xdata	SEGMENT
$stateUnwindMap$??1Exception@Internal@Core@Math@Palmtree@@UEAA@XZ DD 0ffffffffH
	DD	imagerel ?dtor$0@?0???1Exception@Internal@Core@Math@Palmtree@@UEAA@XZ@4HA
xdata	ENDS
;	COMDAT CONST
CONST	SEGMENT
$cppxdata$??1Exception@Internal@Core@Math@Palmtree@@UEAA@XZ DD 019930522H
	DD	01H
	DD	imagerel $stateUnwindMap$??1Exception@Internal@Core@Math@Palmtree@@UEAA@XZ
	DD	00H
	DD	00H
	DD	01H
	DD	imagerel $ip2state$??1Exception@Internal@Core@Math@Palmtree@@UEAA@XZ
	DD	020H
	DD	00H
	DD	04H
CONST	ENDS
;	COMDAT xdata
xdata	SEGMENT
$unwind$??1Exception@Internal@Core@Math@Palmtree@@UEAA@XZ DD 011219H
	DD	06209H
	DD	imagerel __CxxFrameHandler3
	DD	imagerel $cppxdata$??1Exception@Internal@Core@Math@Palmtree@@UEAA@XZ
xdata	ENDS
;	COMDAT xdata
xdata	SEGMENT
$ip2state$??0Exception@Internal@Core@Math@Palmtree@@QEAA@AEBV01234@@Z DD imagerel ??0Exception@Internal@Core@Math@Palmtree@@QEAA@AEBV01234@@Z
	DD	0ffffffffH
	DD	imagerel ??0Exception@Internal@Core@Math@Palmtree@@QEAA@AEBV01234@@Z+37
	DD	00H
	DD	imagerel ??0Exception@Internal@Core@Math@Palmtree@@QEAA@AEBV01234@@Z+69
	DD	0ffffffffH
xdata	ENDS
;	COMDAT xdata
xdata	SEGMENT
$stateUnwindMap$??0Exception@Internal@Core@Math@Palmtree@@QEAA@AEBV01234@@Z DD 0ffffffffH
	DD	imagerel ?dtor$0@?0???0Exception@Internal@Core@Math@Palmtree@@QEAA@AEBV01234@@Z@4HA
xdata	ENDS
;	COMDAT CONST
CONST	SEGMENT
$cppxdata$??0Exception@Internal@Core@Math@Palmtree@@QEAA@AEBV01234@@Z DD 019930522H
	DD	01H
	DD	imagerel $stateUnwindMap$??0Exception@Internal@Core@Math@Palmtree@@QEAA@AEBV01234@@Z
	DD	00H
	DD	00H
	DD	03H
	DD	imagerel $ip2state$??0Exception@Internal@Core@Math@Palmtree@@QEAA@AEBV01234@@Z
	DD	00H
	DD	00H
	DD	04H
CONST	ENDS
;	COMDAT xdata
xdata	SEGMENT
$unwind$??0Exception@Internal@Core@Math@Palmtree@@QEAA@AEBV01234@@Z DD 011111H
	DD	02209H
	DD	imagerel __CxxFrameHandler3
	DD	imagerel $cppxdata$??0Exception@Internal@Core@Math@Palmtree@@QEAA@AEBV01234@@Z
xdata	ENDS
;	COMDAT xdata
xdata	SEGMENT
$ip2state$??0Exception@Internal@Core@Math@Palmtree@@IEAA@HPEB_W0@Z DD imagerel ??0Exception@Internal@Core@Math@Palmtree@@IEAA@HPEB_W0@Z
	DD	0ffffffffH
	DD	imagerel ??0Exception@Internal@Core@Math@Palmtree@@IEAA@HPEB_W0@Z+37
	DD	00H
	DD	imagerel ??0Exception@Internal@Core@Math@Palmtree@@IEAA@HPEB_W0@Z+58
	DD	0ffffffffH
xdata	ENDS
;	COMDAT xdata
xdata	SEGMENT
$stateUnwindMap$??0Exception@Internal@Core@Math@Palmtree@@IEAA@HPEB_W0@Z DD 0ffffffffH
	DD	imagerel ?dtor$0@?0???0Exception@Internal@Core@Math@Palmtree@@IEAA@HPEB_W0@Z@4HA
xdata	ENDS
;	COMDAT CONST
CONST	SEGMENT
$cppxdata$??0Exception@Internal@Core@Math@Palmtree@@IEAA@HPEB_W0@Z DD 019930522H
	DD	01H
	DD	imagerel $stateUnwindMap$??0Exception@Internal@Core@Math@Palmtree@@IEAA@HPEB_W0@Z
	DD	00H
	DD	00H
	DD	03H
	DD	imagerel $ip2state$??0Exception@Internal@Core@Math@Palmtree@@IEAA@HPEB_W0@Z
	DD	00H
	DD	00H
	DD	04H
CONST	ENDS
;	COMDAT xdata
xdata	SEGMENT
$unwind$??0Exception@Internal@Core@Math@Palmtree@@IEAA@HPEB_W0@Z DD 011111H
	DD	02209H
	DD	imagerel __CxxFrameHandler3
	DD	imagerel $cppxdata$??0Exception@Internal@Core@Math@Palmtree@@IEAA@HPEB_W0@Z
xdata	ENDS
;	COMDAT xdata
xdata	SEGMENT
$ip2state$??_Gexception@std@@UEAAPEAXI@Z DD imagerel ??_Gexception@std@@UEAAPEAXI@Z
	DD	0ffffffffH
xdata	ENDS
;	COMDAT CONST
CONST	SEGMENT
$cppxdata$??_Gexception@std@@UEAAPEAXI@Z DD 019930522H
	DD	00H
	DD	00H
	DD	00H
	DD	00H
	DD	01H
	DD	imagerel $ip2state$??_Gexception@std@@UEAAPEAXI@Z
	DD	020H
	DD	00H
	DD	04H
CONST	ENDS
;	COMDAT xdata
xdata	SEGMENT
$unwind$??_Gexception@std@@UEAAPEAXI@Z DD 041419H
	DD	083414H
	DD	070025206H
	DD	imagerel __CxxFrameHandler3
	DD	imagerel $cppxdata$??_Gexception@std@@UEAAPEAXI@Z
xdata	ENDS
;	COMDAT xdata
xdata	SEGMENT
$ip2state$??1exception@std@@UEAA@XZ DD imagerel ??1exception@std@@UEAA@XZ
	DD	0ffffffffH
xdata	ENDS
;	COMDAT CONST
CONST	SEGMENT
$cppxdata$??1exception@std@@UEAA@XZ DD 019930522H
	DD	00H
	DD	00H
	DD	00H
	DD	00H
	DD	01H
	DD	imagerel $ip2state$??1exception@std@@UEAA@XZ
	DD	020H
	DD	00H
	DD	04H
CONST	ENDS
;	COMDAT xdata
xdata	SEGMENT
$unwind$??1exception@std@@UEAA@XZ DD 010d19H
	DD	06204H
	DD	imagerel __CxxFrameHandler3
	DD	imagerel $cppxdata$??1exception@std@@UEAA@XZ
xdata	ENDS
; Function compile flags: /Ogtpy
; File z:\sources\lunor\repos\rougemeilland\palmtree.math.core.uint\palmtree.math.core.uint\pmc_exclusiveor.cpp
; File z:\sources\lunor\repos\rougemeilland\palmtree.math.core.uint\palmtree.math.core.uint\pmc_inline_func.h
; File z:\sources\lunor\repos\rougemeilland\palmtree.math.core.uint\palmtree.math.core.uint\pmc_exclusiveor.cpp
;	COMDAT ?PMC_ExclusiveOr_X_X_Imp@Internal@Core@Math@Palmtree@@YAPEAU__tag_NUMBER_HEADER@1234@PEAU51234@0@Z
_TEXT	SEGMENT
$T1 = 48
root$2 = 56
u$ = 112
v$ = 120
?PMC_ExclusiveOr_X_X_Imp@Internal@Core@Math@Palmtree@@YAPEAU__tag_NUMBER_HEADER@1234@PEAU51234@0@Z PROC ; Palmtree::Math::Core::Internal::PMC_ExclusiveOr_X_X_Imp, COMDAT

; 405  :     {

  00000	40 57		 push	 rdi
  00002	48 83 ec 60	 sub	 rsp, 96			; 00000060H
  00006	48 c7 44 24 30
	fe ff ff ff	 mov	 QWORD PTR $T1[rsp], -2
  0000f	48 89 5c 24 70	 mov	 QWORD PTR [rsp+112], rbx
  00014	48 89 74 24 78	 mov	 QWORD PTR [rsp+120], rsi
  00019	48 8b f2	 mov	 rsi, rdx
  0001c	48 8b f9	 mov	 rdi, rcx

; 406  :         if (u->IS_ZERO)

  0001f	f6 41 08 01	 test	 BYTE PTR [rcx+8], 1
  00023	74 17		 je	 SHORT $LN2@PMC_Exclus

; 407  :             return (DuplicateNumber(v));

  00025	48 8b ca	 mov	 rcx, rdx
$LN13@PMC_Exclus:

; 434  :         }
; 435  :     }

  00028	48 8b 5c 24 70	 mov	 rbx, QWORD PTR [rsp+112]
  0002d	48 8b 74 24 78	 mov	 rsi, QWORD PTR [rsp+120]
  00032	48 83 c4 60	 add	 rsp, 96			; 00000060H
  00036	5f		 pop	 rdi
  00037	e9 00 00 00 00	 jmp	 ?DuplicateNumber@Internal@Core@Math@Palmtree@@YAPEAU__tag_NUMBER_HEADER@1234@PEAU51234@@Z ; Palmtree::Math::Core::Internal::DuplicateNumber
$LN2@PMC_Exclus:

; 408  :         else if (v->IS_ZERO)

  0003c	f6 42 08 01	 test	 BYTE PTR [rdx+8], 1
  00040	75 e6		 jne	 SHORT $LN13@PMC_Exclus

; 409  :             return (DuplicateNumber(u));
; 410  :         else
; 411  :         {
; 412  :             ResourceHolderUINT root;

  00042	48 8d 4c 24 38	 lea	 rcx, QWORD PTR root$2[rsp]
  00047	e8 00 00 00 00	 call	 ??0ResourceHolderUINT@Internal@Core@Math@Palmtree@@QEAA@XZ ; Palmtree::Math::Core::Internal::ResourceHolderUINT::ResourceHolderUINT
  0004c	90		 npad	 1

; 413  :             if (u->UNIT_WORD_COUNT < v->UNIT_WORD_COUNT)

  0004d	48 8b 4f 18	 mov	 rcx, QWORD PTR [rdi+24]

; 414  :             {
; 415  :                 NUMBER_HEADER* t = u;
; 416  :                 u = v;
; 417  :                 v = t;
; 418  :             }
; 419  :             __UNIT_TYPE u_bit_count = u->UNIT_BIT_COUNT;

  00051	48 8b df	 mov	 rbx, rdi
  00054	48 3b 4e 18	 cmp	 rcx, QWORD PTR [rsi+24]
  00058	48 0f 43 de	 cmovae	 rbx, rsi
  0005c	48 0f 43 f7	 cmovae	 rsi, rdi

; 420  :             __UNIT_TYPE v_bit_count = v->UNIT_BIT_COUNT;

  00060	48 8b 53 20	 mov	 rdx, QWORD PTR [rbx+32]
; File z:\sources\lunor\repos\rougemeilland\palmtree.math.core.uint\palmtree.math.core.uint\pmc_inline_func.h

; 167  :             return (x >= y ? x : y);

  00064	48 39 56 20	 cmp	 QWORD PTR [rsi+32], rdx
  00068	48 0f 43 56 20	 cmovae	 rdx, QWORD PTR [rsi+32]
; File z:\sources\lunor\repos\rougemeilland\palmtree.math.core.uint\palmtree.math.core.uint\pmc_exclusiveor.cpp

; 422  :             NUMBER_HEADER* w = root.AllocateNumber(w_bit_count);

  0006d	48 8d 4c 24 38	 lea	 rcx, QWORD PTR root$2[rsp]
  00072	e8 00 00 00 00	 call	 ?AllocateNumber@ResourceHolderUINT@Internal@Core@Math@Palmtree@@QEAAPEAU__tag_NUMBER_HEADER@2345@_K@Z ; Palmtree::Math::Core::Internal::ResourceHolderUINT::AllocateNumber
  00077	48 8b f8	 mov	 rdi, rax

; 423  :             ExclusiveOr_X_X(u->BLOCK, u->UNIT_WORD_COUNT, v->BLOCK, v->UNIT_WORD_COUNT, w->BLOCK);

  0007a	48 8b 48 40	 mov	 rcx, QWORD PTR [rax+64]
  0007e	48 89 4c 24 20	 mov	 QWORD PTR [rsp+32], rcx
  00083	4c 8b 4b 18	 mov	 r9, QWORD PTR [rbx+24]
  00087	4c 8b 43 40	 mov	 r8, QWORD PTR [rbx+64]
  0008b	48 8b 56 18	 mov	 rdx, QWORD PTR [rsi+24]
  0008f	48 8b 4e 40	 mov	 rcx, QWORD PTR [rsi+64]
  00093	e8 00 00 00 00	 call	 ?ExclusiveOr_X_X@Internal@Core@Math@Palmtree@@YAXPEA_K_K010@Z ; Palmtree::Math::Core::Internal::ExclusiveOr_X_X

; 424  :             root.CheckNumber(w);

  00098	48 8b d7	 mov	 rdx, rdi
  0009b	48 8d 4c 24 38	 lea	 rcx, QWORD PTR root$2[rsp]
  000a0	e8 00 00 00 00	 call	 ?CheckNumber@ResourceHolderUINT@Internal@Core@Math@Palmtree@@QEAAXPEAU__tag_NUMBER_HEADER@2345@@Z ; Palmtree::Math::Core::Internal::ResourceHolderUINT::CheckNumber

; 425  :             CommitNumber(w);

  000a5	48 8b cf	 mov	 rcx, rdi
  000a8	e8 00 00 00 00	 call	 ?CommitNumber@Internal@Core@Math@Palmtree@@YAXPEAU__tag_NUMBER_HEADER@1234@@Z ; Palmtree::Math::Core::Internal::CommitNumber

; 426  :             if (w->IS_ZERO)

  000ad	48 8b d7	 mov	 rdx, rdi
  000b0	48 8d 4c 24 38	 lea	 rcx, QWORD PTR root$2[rsp]
  000b5	f6 47 08 01	 test	 BYTE PTR [rdi+8], 1
  000b9	74 0e		 je	 SHORT $LN7@PMC_Exclus

; 427  :             {
; 428  :                 root.DeallocateNumber(w);

  000bb	e8 00 00 00 00	 call	 ?DeallocateNumber@ResourceHolderUINT@Internal@Core@Math@Palmtree@@QEAAXPEAU__tag_NUMBER_HEADER@2345@@Z ; Palmtree::Math::Core::Internal::ResourceHolderUINT::DeallocateNumber

; 429  :                 w = &number_zero;

  000c0	48 8d 3d 00 00
	00 00		 lea	 rdi, OFFSET FLAT:?number_zero@Internal@Core@Math@Palmtree@@3U__tag_NUMBER_HEADER@1234@A ; Palmtree::Math::Core::Internal::number_zero

; 430  :             }
; 431  :             else

  000c7	eb 06		 jmp	 SHORT $LN8@PMC_Exclus
$LN7@PMC_Exclus:

; 432  :                 root.UnlinkNumber(w);

  000c9	e8 00 00 00 00	 call	 ?UnlinkNumber@ResourceHolderUINT@Internal@Core@Math@Palmtree@@QEAAXPEAU__tag_NUMBER_HEADER@2345@@Z ; Palmtree::Math::Core::Internal::ResourceHolderUINT::UnlinkNumber
  000ce	90		 npad	 1
$LN8@PMC_Exclus:

; 433  :             return (w);

  000cf	48 8d 4c 24 38	 lea	 rcx, QWORD PTR root$2[rsp]
  000d4	e8 00 00 00 00	 call	 ??1ResourceHolderUINT@Internal@Core@Math@Palmtree@@UEAA@XZ ; Palmtree::Math::Core::Internal::ResourceHolderUINT::~ResourceHolderUINT
  000d9	48 8b c7	 mov	 rax, rdi

; 434  :         }
; 435  :     }

  000dc	48 8b 5c 24 70	 mov	 rbx, QWORD PTR [rsp+112]
  000e1	48 8b 74 24 78	 mov	 rsi, QWORD PTR [rsp+120]
  000e6	48 83 c4 60	 add	 rsp, 96			; 00000060H
  000ea	5f		 pop	 rdi
  000eb	c3		 ret	 0
?PMC_ExclusiveOr_X_X_Imp@Internal@Core@Math@Palmtree@@YAPEAU__tag_NUMBER_HEADER@1234@PEAU51234@0@Z ENDP ; Palmtree::Math::Core::Internal::PMC_ExclusiveOr_X_X_Imp
_TEXT	ENDS
;	COMDAT text$x
text$x	SEGMENT
$T1 = 48
root$2 = 56
u$ = 112
v$ = 120
?dtor$0@?0??PMC_ExclusiveOr_X_X_Imp@Internal@Core@Math@Palmtree@@YAPEAU__tag_NUMBER_HEADER@1234@PEAU51234@0@Z@4HA PROC ; `Palmtree::Math::Core::Internal::PMC_ExclusiveOr_X_X_Imp'::`1'::dtor$0
  00000	48 8d 8a 38 00
	00 00		 lea	 rcx, QWORD PTR root$2[rdx]
  00007	e9 00 00 00 00	 jmp	 ??1ResourceHolderUINT@Internal@Core@Math@Palmtree@@UEAA@XZ ; Palmtree::Math::Core::Internal::ResourceHolderUINT::~ResourceHolderUINT
?dtor$0@?0??PMC_ExclusiveOr_X_X_Imp@Internal@Core@Math@Palmtree@@YAPEAU__tag_NUMBER_HEADER@1234@PEAU51234@0@Z@4HA ENDP ; `Palmtree::Math::Core::Internal::PMC_ExclusiveOr_X_X_Imp'::`1'::dtor$0
text$x	ENDS
; Function compile flags: /Ogtpy
;	COMDAT text$x
text$x	SEGMENT
$T1 = 48
root$2 = 56
u$ = 112
v$ = 120
?dtor$0@?0??PMC_ExclusiveOr_X_X_Imp@Internal@Core@Math@Palmtree@@YAPEAU__tag_NUMBER_HEADER@1234@PEAU51234@0@Z@4HA PROC ; `Palmtree::Math::Core::Internal::PMC_ExclusiveOr_X_X_Imp'::`1'::dtor$0
  00000	48 8d 8a 38 00
	00 00		 lea	 rcx, QWORD PTR root$2[rdx]
  00007	e9 00 00 00 00	 jmp	 ??1ResourceHolderUINT@Internal@Core@Math@Palmtree@@UEAA@XZ ; Palmtree::Math::Core::Internal::ResourceHolderUINT::~ResourceHolderUINT
?dtor$0@?0??PMC_ExclusiveOr_X_X_Imp@Internal@Core@Math@Palmtree@@YAPEAU__tag_NUMBER_HEADER@1234@PEAU51234@0@Z@4HA ENDP ; `Palmtree::Math::Core::Internal::PMC_ExclusiveOr_X_X_Imp'::`1'::dtor$0
text$x	ENDS
; Function compile flags: /Ogtpy
; File z:\sources\lunor\repos\rougemeilland\palmtree.math.core.uint\palmtree.math.core.uint\pmc_exclusiveor.cpp
; File z:\sources\lunor\repos\rougemeilland\palmtree.math.core.uint\palmtree.math.core.uint\pmc_inline_func.h
; File z:\sources\lunor\repos\rougemeilland\palmtree.math.core.uint\palmtree.math.core.uint\pmc_exclusiveor.cpp
; File z:\sources\lunor\repos\rougemeilland\palmtree.math.core.uint\palmtree.math.core.uint\pmc_inline_func.h
; File z:\sources\lunor\repos\rougemeilland\palmtree.math.core.uint\palmtree.math.core.uint\pmc_exclusiveor.cpp
; File z:\sources\lunor\repos\rougemeilland\palmtree.math.core.uint\palmtree.math.core.uint\pmc_inline_func.h
; File z:\sources\lunor\repos\rougemeilland\palmtree.math.core.uint\palmtree.math.core.uint\pmc_exclusiveor.cpp
;	COMDAT ?PMC_ExclusiveOr_X_L_Imp@Internal@Core@Math@Palmtree@@YAPEAU__tag_NUMBER_HEADER@1234@PEAU51234@_K@Z
_TEXT	SEGMENT
$T1 = 32
root$2 = 40
u$ = 96
v$ = 104
?PMC_ExclusiveOr_X_L_Imp@Internal@Core@Math@Palmtree@@YAPEAU__tag_NUMBER_HEADER@1234@PEAU51234@_K@Z PROC ; Palmtree::Math::Core::Internal::PMC_ExclusiveOr_X_L_Imp, COMDAT

; 271  :     {

  00000	40 57		 push	 rdi
  00002	48 83 ec 50	 sub	 rsp, 80			; 00000050H
  00006	48 c7 44 24 20
	fe ff ff ff	 mov	 QWORD PTR $T1[rsp], -2
  0000f	48 89 5c 24 60	 mov	 QWORD PTR [rsp+96], rbx
  00014	48 89 6c 24 68	 mov	 QWORD PTR [rsp+104], rbp
  00019	48 89 74 24 70	 mov	 QWORD PTR [rsp+112], rsi
  0001e	48 8b f2	 mov	 rsi, rdx
  00021	48 8b e9	 mov	 rbp, rcx

; 272  :         if (u->IS_ZERO)

  00024	f6 41 08 01	 test	 BYTE PTR [rcx+8], 1
  00028	74 1e		 je	 SHORT $LN2@PMC_Exclus

; 273  :         {
; 274  :             // x  0 
; 275  :             if (v == 0)

  0002a	48 85 d2	 test	 rdx, rdx
  0002d	75 0c		 jne	 SHORT $LN4@PMC_Exclus

; 276  :             {
; 277  :                 // v  0 
; 278  :                 return (&number_zero);

  0002f	48 8d 05 00 00
	00 00		 lea	 rax, OFFSET FLAT:?number_zero@Internal@Core@Math@Palmtree@@3U__tag_NUMBER_HEADER@1234@A ; Palmtree::Math::Core::Internal::number_zero
  00036	e9 ce 00 00 00	 jmp	 $LN9@PMC_Exclus
$LN4@PMC_Exclus:

; 279  :             }
; 280  :             else
; 281  :             {
; 282  :                 // v  0 
; 283  :                 return (From_L_Imp(v));

  0003b	48 8b ce	 mov	 rcx, rsi
  0003e	e8 00 00 00 00	 call	 ?From_L_Imp@Internal@Core@Math@Palmtree@@YAPEAU__tag_NUMBER_HEADER@1234@_K@Z ; Palmtree::Math::Core::Internal::From_L_Imp
  00043	e9 c1 00 00 00	 jmp	 $LN9@PMC_Exclus
$LN2@PMC_Exclus:

; 284  :             }
; 285  :         }
; 286  :         else if (v == 0)

  00048	48 85 f6	 test	 rsi, rsi
  0004b	75 0a		 jne	 SHORT $LN6@PMC_Exclus

; 287  :         {
; 288  :             // y  0 
; 289  :             return (DuplicateNumber(u));

  0004d	e8 00 00 00 00	 call	 ?DuplicateNumber@Internal@Core@Math@Palmtree@@YAPEAU__tag_NUMBER_HEADER@1234@PEAU51234@@Z ; Palmtree::Math::Core::Internal::DuplicateNumber
  00052	e9 b2 00 00 00	 jmp	 $LN9@PMC_Exclus
$LN6@PMC_Exclus:

; 290  :         }
; 291  :         else
; 292  :         {
; 293  :             // u  v  0 
; 294  :             if (__UNIT_TYPE_BIT_COUNT < sizeof(v) * 8)
; 295  :             {
; 296  :                 // _UINT64_T  1 
; 297  :                 __UNIT_TYPE u_bit_count = u->UNIT_BIT_COUNT;
; 298  :                 _UINT32_T v_hi;
; 299  :                 _UINT32_T v_lo = _FROMDWORDTOWORD(v, &v_hi);
; 300  :                 if (v_hi == 0)
; 301  :                 {
; 302  :                     // v  32bit 
; 303  :                     ResourceHolderUINT root;
; 304  :                     __UNIT_TYPE v_bit_count = sizeof(v_lo) * 8 - _LZCNT_ALT_32(v_lo);
; 305  :                     __UNIT_TYPE w_bit_count = _MAXIMUM_UNIT(u_bit_count, v_bit_count);
; 306  :                     NUMBER_HEADER* w = root.AllocateNumber(w_bit_count);
; 307  :                     ExclusiveOr_X_1W(u->BLOCK, u->UNIT_WORD_COUNT, v_lo, w->BLOCK);
; 308  :                     root.CheckNumber(w);
; 309  :                     CommitNumber(w);
; 310  :                     if (w->IS_ZERO)
; 311  :                     {
; 312  :                         root.DeallocateNumber(w);
; 313  :                         w = &number_zero;
; 314  :                     }
; 315  :                     else
; 316  :                         root.UnlinkNumber(w);
; 317  :                     return (w);
; 318  :                 }
; 319  :                 else
; 320  :                 {
; 321  :                     // y  32bit 
; 322  :                     ResourceHolderUINT root;
; 323  :                     __UNIT_TYPE v_bit_count = sizeof(v) * 8 - _LZCNT_ALT_32(v_hi);
; 324  :                     __UNIT_TYPE w_bit_count = _MAXIMUM_UNIT(u_bit_count, v_bit_count);
; 325  :                     NUMBER_HEADER* w = root.AllocateNumber(w_bit_count);
; 326  :                     ExclusiveOr_X_2W(u->BLOCK, u->UNIT_WORD_COUNT, v_hi, v_lo, w->BLOCK);
; 327  :                     root.CheckNumber(w);
; 328  :                     CommitNumber(w);
; 329  :                     if (w->IS_ZERO)
; 330  :                     {
; 331  :                         root.DeallocateNumber(w);
; 332  :                         w = &number_zero;
; 333  :                     }
; 334  :                     else
; 335  :                         root.UnlinkNumber(w);
; 336  :                     return (w);
; 337  :                 }
; 338  :             }
; 339  :             else
; 340  :             {
; 341  :                 // _UINT64_T  1 
; 342  :                 ResourceHolderUINT root;

  00057	48 8d 4c 24 28	 lea	 rcx, QWORD PTR root$2[rsp]
  0005c	e8 00 00 00 00	 call	 ??0ResourceHolderUINT@Internal@Core@Math@Palmtree@@QEAA@XZ ; Palmtree::Math::Core::Internal::ResourceHolderUINT::ResourceHolderUINT
  00061	90		 npad	 1
; File z:\sources\lunor\repos\rougemeilland\palmtree.math.core.uint\palmtree.math.core.uint\pmc_inline_func.h

; 469  :             _BitScanReverse64(&pos, x);

  00062	48 0f bd c6	 bsr	 rax, rsi

; 470  : #elif defined(__GNUC__)
; 471  :             _UINT64_T pos;
; 472  :             __asm__("bsrq %1, %0" : "=r"(pos) : "rm"(x));
; 473  : #else
; 474  : #error unknown compiler
; 475  : #endif
; 476  : #else
; 477  : #error unknown platform
; 478  : #endif
; 479  :             return (sizeof(x) * 8 - 1 - pos);

  00066	b9 3f 00 00 00	 mov	 ecx, 63			; 0000003fH
  0006b	2b c8		 sub	 ecx, eax
; File z:\sources\lunor\repos\rougemeilland\palmtree.math.core.uint\palmtree.math.core.uint\pmc_exclusiveor.cpp

; 344  :                 __UNIT_TYPE v_bit_count = sizeof(v) * 8 - _LZCNT_ALT_UNIT((__UNIT_TYPE)v);

  0006d	48 63 c1	 movsxd	 rax, ecx
  00070	ba 40 00 00 00	 mov	 edx, 64			; 00000040H
  00075	48 2b d0	 sub	 rdx, rax
; File z:\sources\lunor\repos\rougemeilland\palmtree.math.core.uint\palmtree.math.core.uint\pmc_inline_func.h

; 167  :             return (x >= y ? x : y);

  00078	48 39 55 20	 cmp	 QWORD PTR [rbp+32], rdx
  0007c	48 0f 43 55 20	 cmovae	 rdx, QWORD PTR [rbp+32]
; File z:\sources\lunor\repos\rougemeilland\palmtree.math.core.uint\palmtree.math.core.uint\pmc_exclusiveor.cpp

; 345  :                 __UNIT_TYPE w_bit_count = _MAXIMUM_UNIT(u_bit_count, v_bit_count) + 1;

  00081	48 ff c2	 inc	 rdx

; 346  :                 NUMBER_HEADER* w = root.AllocateNumber(w_bit_count);

  00084	48 8d 4c 24 28	 lea	 rcx, QWORD PTR root$2[rsp]
  00089	e8 00 00 00 00	 call	 ?AllocateNumber@ResourceHolderUINT@Internal@Core@Math@Palmtree@@QEAAPEAU__tag_NUMBER_HEADER@2345@_K@Z ; Palmtree::Math::Core::Internal::ResourceHolderUINT::AllocateNumber
  0008e	48 8b d8	 mov	 rbx, rax

; 347  :                 ExclusiveOr_X_1W(u->BLOCK, u->UNIT_WORD_COUNT, (__UNIT_TYPE)v, w->BLOCK);

  00091	48 8b 78 40	 mov	 rdi, QWORD PTR [rax+64]
  00095	48 8b 4d 18	 mov	 rcx, QWORD PTR [rbp+24]
  00099	48 8b 55 40	 mov	 rdx, QWORD PTR [rbp+64]

; 39   :         if (u_count == 1)

  0009d	48 83 f9 01	 cmp	 rcx, 1
  000a1	75 0b		 jne	 SHORT $LN54@PMC_Exclus

; 40   :             w[0] = u[0] ^ v;

  000a3	48 8b 0a	 mov	 rcx, QWORD PTR [rdx]
  000a6	48 33 ce	 xor	 rcx, rsi
  000a9	48 89 0f	 mov	 QWORD PTR [rdi], rcx

; 41   :         else

  000ac	eb 17		 jmp	 SHORT $LN55@PMC_Exclus
$LN54@PMC_Exclus:

; 42   :         {
; 43   :             w[0] = u[0] ^ v;

  000ae	48 8b 02	 mov	 rax, QWORD PTR [rdx]
  000b1	48 33 c6	 xor	 rax, rsi
  000b4	48 89 07	 mov	 QWORD PTR [rdi], rax

; 44   :             _COPY_MEMORY_UNIT(w + 1, u + 1, u_count - 1);

  000b7	48 ff c9	 dec	 rcx
  000ba	48 8d 72 08	 lea	 rsi, QWORD PTR [rdx+8]
  000be	48 83 c7 08	 add	 rdi, 8
; File z:\sources\lunor\repos\rougemeilland\palmtree.math.core.uint\palmtree.math.core.uint\pmc_inline_func.h

; 67   :             __movsq(d, s, count);

  000c2	f3 48 a5	 rep movsq
$LN55@PMC_Exclus:
; File z:\sources\lunor\repos\rougemeilland\palmtree.math.core.uint\palmtree.math.core.uint\pmc_exclusiveor.cpp

; 348  :                 root.CheckNumber(w);

  000c5	48 8b d3	 mov	 rdx, rbx
  000c8	48 8d 4c 24 28	 lea	 rcx, QWORD PTR root$2[rsp]
  000cd	e8 00 00 00 00	 call	 ?CheckNumber@ResourceHolderUINT@Internal@Core@Math@Palmtree@@QEAAXPEAU__tag_NUMBER_HEADER@2345@@Z ; Palmtree::Math::Core::Internal::ResourceHolderUINT::CheckNumber

; 349  :                 CommitNumber(w);

  000d2	48 8b cb	 mov	 rcx, rbx
  000d5	e8 00 00 00 00	 call	 ?CommitNumber@Internal@Core@Math@Palmtree@@YAXPEAU__tag_NUMBER_HEADER@1234@@Z ; Palmtree::Math::Core::Internal::CommitNumber

; 350  :                 if (w->IS_ZERO)

  000da	48 8b d3	 mov	 rdx, rbx
  000dd	48 8d 4c 24 28	 lea	 rcx, QWORD PTR root$2[rsp]
  000e2	f6 43 08 01	 test	 BYTE PTR [rbx+8], 1
  000e6	74 0e		 je	 SHORT $LN16@PMC_Exclus

; 351  :                 {
; 352  :                     root.DeallocateNumber(w);

  000e8	e8 00 00 00 00	 call	 ?DeallocateNumber@ResourceHolderUINT@Internal@Core@Math@Palmtree@@QEAAXPEAU__tag_NUMBER_HEADER@2345@@Z ; Palmtree::Math::Core::Internal::ResourceHolderUINT::DeallocateNumber

; 353  :                     w = &number_zero;

  000ed	48 8d 1d 00 00
	00 00		 lea	 rbx, OFFSET FLAT:?number_zero@Internal@Core@Math@Palmtree@@3U__tag_NUMBER_HEADER@1234@A ; Palmtree::Math::Core::Internal::number_zero

; 354  :                 }
; 355  :                 else

  000f4	eb 06		 jmp	 SHORT $LN17@PMC_Exclus
$LN16@PMC_Exclus:

; 356  :                     root.UnlinkNumber(w);

  000f6	e8 00 00 00 00	 call	 ?UnlinkNumber@ResourceHolderUINT@Internal@Core@Math@Palmtree@@QEAAXPEAU__tag_NUMBER_HEADER@2345@@Z ; Palmtree::Math::Core::Internal::ResourceHolderUINT::UnlinkNumber
  000fb	90		 npad	 1
$LN17@PMC_Exclus:

; 357  :                 return (w);

  000fc	48 8d 4c 24 28	 lea	 rcx, QWORD PTR root$2[rsp]
  00101	e8 00 00 00 00	 call	 ??1ResourceHolderUINT@Internal@Core@Math@Palmtree@@UEAA@XZ ; Palmtree::Math::Core::Internal::ResourceHolderUINT::~ResourceHolderUINT
  00106	48 8b c3	 mov	 rax, rbx
$LN9@PMC_Exclus:

; 358  :             }
; 359  :         }
; 360  :     }

  00109	48 8b 5c 24 60	 mov	 rbx, QWORD PTR [rsp+96]
  0010e	48 8b 6c 24 68	 mov	 rbp, QWORD PTR [rsp+104]
  00113	48 8b 74 24 70	 mov	 rsi, QWORD PTR [rsp+112]
  00118	48 83 c4 50	 add	 rsp, 80			; 00000050H
  0011c	5f		 pop	 rdi
  0011d	c3		 ret	 0
?PMC_ExclusiveOr_X_L_Imp@Internal@Core@Math@Palmtree@@YAPEAU__tag_NUMBER_HEADER@1234@PEAU51234@_K@Z ENDP ; Palmtree::Math::Core::Internal::PMC_ExclusiveOr_X_L_Imp
_TEXT	ENDS
;	COMDAT text$x
text$x	SEGMENT
$T1 = 32
root$2 = 40
u$ = 96
v$ = 104
?dtor$2@?0??PMC_ExclusiveOr_X_L_Imp@Internal@Core@Math@Palmtree@@YAPEAU__tag_NUMBER_HEADER@1234@PEAU51234@_K@Z@4HA PROC ; `Palmtree::Math::Core::Internal::PMC_ExclusiveOr_X_L_Imp'::`1'::dtor$2
  00000	48 8d 8a 28 00
	00 00		 lea	 rcx, QWORD PTR root$2[rdx]
  00007	e9 00 00 00 00	 jmp	 ??1ResourceHolderUINT@Internal@Core@Math@Palmtree@@UEAA@XZ ; Palmtree::Math::Core::Internal::ResourceHolderUINT::~ResourceHolderUINT
?dtor$2@?0??PMC_ExclusiveOr_X_L_Imp@Internal@Core@Math@Palmtree@@YAPEAU__tag_NUMBER_HEADER@1234@PEAU51234@_K@Z@4HA ENDP ; `Palmtree::Math::Core::Internal::PMC_ExclusiveOr_X_L_Imp'::`1'::dtor$2
text$x	ENDS
; Function compile flags: /Ogtpy
;	COMDAT text$x
text$x	SEGMENT
$T1 = 32
root$2 = 40
u$ = 96
v$ = 104
?dtor$2@?0??PMC_ExclusiveOr_X_L_Imp@Internal@Core@Math@Palmtree@@YAPEAU__tag_NUMBER_HEADER@1234@PEAU51234@_K@Z@4HA PROC ; `Palmtree::Math::Core::Internal::PMC_ExclusiveOr_X_L_Imp'::`1'::dtor$2
  00000	48 8d 8a 28 00
	00 00		 lea	 rcx, QWORD PTR root$2[rdx]
  00007	e9 00 00 00 00	 jmp	 ??1ResourceHolderUINT@Internal@Core@Math@Palmtree@@UEAA@XZ ; Palmtree::Math::Core::Internal::ResourceHolderUINT::~ResourceHolderUINT
?dtor$2@?0??PMC_ExclusiveOr_X_L_Imp@Internal@Core@Math@Palmtree@@YAPEAU__tag_NUMBER_HEADER@1234@PEAU51234@_K@Z@4HA ENDP ; `Palmtree::Math::Core::Internal::PMC_ExclusiveOr_X_L_Imp'::`1'::dtor$2
text$x	ENDS
; Function compile flags: /Ogtpy
; File z:\sources\lunor\repos\rougemeilland\palmtree.math.core.uint\palmtree.math.core.uint\pmc_exclusiveor.cpp
; File z:\sources\lunor\repos\rougemeilland\palmtree.math.core.uint\palmtree.math.core.uint\pmc_inline_func.h
; File z:\sources\lunor\repos\rougemeilland\palmtree.math.core.uint\palmtree.math.core.uint\pmc_exclusiveor.cpp
; File z:\sources\lunor\repos\rougemeilland\palmtree.math.core.uint\palmtree.math.core.uint\pmc_inline_func.h
; File z:\sources\lunor\repos\rougemeilland\palmtree.math.core.uint\palmtree.math.core.uint\pmc_exclusiveor.cpp
; File z:\sources\lunor\repos\rougemeilland\palmtree.math.core.uint\palmtree.math.core.uint\pmc_inline_func.h
; File z:\sources\lunor\repos\rougemeilland\palmtree.math.core.uint\palmtree.math.core.uint\pmc_exclusiveor.cpp
;	COMDAT ?PMC_ExclusiveOr_X_I_Imp@Internal@Core@Math@Palmtree@@YAPEAU__tag_NUMBER_HEADER@1234@PEAU51234@I@Z
_TEXT	SEGMENT
$T1 = 32
root$2 = 40
u$ = 96
v$ = 104
?PMC_ExclusiveOr_X_I_Imp@Internal@Core@Math@Palmtree@@YAPEAU__tag_NUMBER_HEADER@1234@PEAU51234@I@Z PROC ; Palmtree::Math::Core::Internal::PMC_ExclusiveOr_X_I_Imp, COMDAT

; 186  :     {

  00000	40 57		 push	 rdi
  00002	48 83 ec 50	 sub	 rsp, 80			; 00000050H
  00006	48 c7 44 24 20
	fe ff ff ff	 mov	 QWORD PTR $T1[rsp], -2
  0000f	48 89 5c 24 60	 mov	 QWORD PTR [rsp+96], rbx
  00014	48 89 6c 24 68	 mov	 QWORD PTR [rsp+104], rbp
  00019	48 89 74 24 70	 mov	 QWORD PTR [rsp+112], rsi
  0001e	8b f2		 mov	 esi, edx
  00020	48 8b e9	 mov	 rbp, rcx

; 187  :         if (u->IS_ZERO)

  00023	f6 41 08 01	 test	 BYTE PTR [rcx+8], 1
  00027	74 1c		 je	 SHORT $LN2@PMC_Exclus

; 188  :         {
; 189  :             // u  0 
; 190  :             if (v == 0)

  00029	85 d2		 test	 edx, edx
  0002b	75 0c		 jne	 SHORT $LN4@PMC_Exclus

; 191  :             {
; 192  :                 // v  0 
; 193  :                 return (&number_zero);

  0002d	48 8d 05 00 00
	00 00		 lea	 rax, OFFSET FLAT:?number_zero@Internal@Core@Math@Palmtree@@3U__tag_NUMBER_HEADER@1234@A ; Palmtree::Math::Core::Internal::number_zero
  00034	e9 ce 00 00 00	 jmp	 $LN7@PMC_Exclus
$LN4@PMC_Exclus:

; 194  :             }
; 195  :             else
; 196  :             {
; 197  :                 // v  0 
; 198  :                 return (From_I_Imp(v));

  00039	8b ce		 mov	 ecx, esi
  0003b	e8 00 00 00 00	 call	 ?From_I_Imp@Internal@Core@Math@Palmtree@@YAPEAU__tag_NUMBER_HEADER@1234@I@Z ; Palmtree::Math::Core::Internal::From_I_Imp
  00040	e9 c2 00 00 00	 jmp	 $LN7@PMC_Exclus
$LN2@PMC_Exclus:

; 199  :             }
; 200  :         }
; 201  :         else if (v == 0)

  00045	85 d2		 test	 edx, edx
  00047	75 0a		 jne	 SHORT $LN6@PMC_Exclus

; 202  :         {
; 203  :             // v  0 
; 204  :             return (DuplicateNumber(u));

  00049	e8 00 00 00 00	 call	 ?DuplicateNumber@Internal@Core@Math@Palmtree@@YAPEAU__tag_NUMBER_HEADER@1234@PEAU51234@@Z ; Palmtree::Math::Core::Internal::DuplicateNumber
  0004e	e9 b4 00 00 00	 jmp	 $LN7@PMC_Exclus
$LN6@PMC_Exclus:

; 205  :         }
; 206  :         else
; 207  :         {
; 208  :             // x  y  0 
; 209  :             ResourceHolderUINT root;

  00053	48 8d 4c 24 28	 lea	 rcx, QWORD PTR root$2[rsp]
  00058	e8 00 00 00 00	 call	 ??0ResourceHolderUINT@Internal@Core@Math@Palmtree@@QEAA@XZ ; Palmtree::Math::Core::Internal::ResourceHolderUINT::ResourceHolderUINT
  0005d	90		 npad	 1
; File z:\sources\lunor\repos\rougemeilland\palmtree.math.core.uint\palmtree.math.core.uint\pmc_inline_func.h

; 426  :             _BitScanReverse(&pos, x);

  0005e	0f bd c6	 bsr	 eax, esi

; 427  : #elif defined(__GNUC__)
; 428  :             __asm__("bsrl %1, %0" : "=r"(pos) : "rm"(x));
; 429  : #else
; 430  : #error unknown compiler
; 431  : #endif
; 432  :             return (sizeof(x) * 8 - 1 - pos);

  00061	b9 1f 00 00 00	 mov	 ecx, 31
  00066	2b c8		 sub	 ecx, eax
; File z:\sources\lunor\repos\rougemeilland\palmtree.math.core.uint\palmtree.math.core.uint\pmc_exclusiveor.cpp

; 211  :             __UNIT_TYPE v_bit_count = sizeof(v) * 8 - _LZCNT_ALT_32(v);

  00068	48 63 c1	 movsxd	 rax, ecx
  0006b	ba 20 00 00 00	 mov	 edx, 32			; 00000020H
  00070	48 2b d0	 sub	 rdx, rax
; File z:\sources\lunor\repos\rougemeilland\palmtree.math.core.uint\palmtree.math.core.uint\pmc_inline_func.h

; 167  :             return (x >= y ? x : y);

  00073	48 39 55 20	 cmp	 QWORD PTR [rbp+32], rdx
  00077	48 0f 43 55 20	 cmovae	 rdx, QWORD PTR [rbp+32]
; File z:\sources\lunor\repos\rougemeilland\palmtree.math.core.uint\palmtree.math.core.uint\pmc_exclusiveor.cpp

; 212  :             __UNIT_TYPE w_bit_count = _MAXIMUM_UNIT(u_bit_count, v_bit_count) + 1;

  0007c	48 ff c2	 inc	 rdx

; 213  :             NUMBER_HEADER* w = root.AllocateNumber(w_bit_count);

  0007f	48 8d 4c 24 28	 lea	 rcx, QWORD PTR root$2[rsp]
  00084	e8 00 00 00 00	 call	 ?AllocateNumber@ResourceHolderUINT@Internal@Core@Math@Palmtree@@QEAAPEAU__tag_NUMBER_HEADER@2345@_K@Z ; Palmtree::Math::Core::Internal::ResourceHolderUINT::AllocateNumber
  00089	48 8b d8	 mov	 rbx, rax

; 214  :             ExclusiveOr_X_1W(u->BLOCK, u->UNIT_WORD_COUNT, v, w->BLOCK);

  0008c	48 8b 78 40	 mov	 rdi, QWORD PTR [rax+64]
  00090	48 8b d6	 mov	 rdx, rsi
  00093	48 8b 4d 18	 mov	 rcx, QWORD PTR [rbp+24]
  00097	48 8b 75 40	 mov	 rsi, QWORD PTR [rbp+64]

; 39   :         if (u_count == 1)

  0009b	48 83 f9 01	 cmp	 rcx, 1
  0009f	75 0b		 jne	 SHORT $LN18@PMC_Exclus

; 40   :             w[0] = u[0] ^ v;

  000a1	48 8b 0e	 mov	 rcx, QWORD PTR [rsi]
  000a4	48 33 ca	 xor	 rcx, rdx
  000a7	48 89 0f	 mov	 QWORD PTR [rdi], rcx

; 41   :         else

  000aa	eb 17		 jmp	 SHORT $LN19@PMC_Exclus
$LN18@PMC_Exclus:

; 42   :         {
; 43   :             w[0] = u[0] ^ v;

  000ac	48 8b 06	 mov	 rax, QWORD PTR [rsi]
  000af	48 33 c2	 xor	 rax, rdx
  000b2	48 89 07	 mov	 QWORD PTR [rdi], rax

; 44   :             _COPY_MEMORY_UNIT(w + 1, u + 1, u_count - 1);

  000b5	48 ff c9	 dec	 rcx
  000b8	48 83 c6 08	 add	 rsi, 8
  000bc	48 83 c7 08	 add	 rdi, 8
; File z:\sources\lunor\repos\rougemeilland\palmtree.math.core.uint\palmtree.math.core.uint\pmc_inline_func.h

; 67   :             __movsq(d, s, count);

  000c0	f3 48 a5	 rep movsq
$LN19@PMC_Exclus:
; File z:\sources\lunor\repos\rougemeilland\palmtree.math.core.uint\palmtree.math.core.uint\pmc_exclusiveor.cpp

; 215  :             root.CheckNumber(w);

  000c3	48 8b d3	 mov	 rdx, rbx
  000c6	48 8d 4c 24 28	 lea	 rcx, QWORD PTR root$2[rsp]
  000cb	e8 00 00 00 00	 call	 ?CheckNumber@ResourceHolderUINT@Internal@Core@Math@Palmtree@@QEAAXPEAU__tag_NUMBER_HEADER@2345@@Z ; Palmtree::Math::Core::Internal::ResourceHolderUINT::CheckNumber

; 216  :             CommitNumber(w);

  000d0	48 8b cb	 mov	 rcx, rbx
  000d3	e8 00 00 00 00	 call	 ?CommitNumber@Internal@Core@Math@Palmtree@@YAXPEAU__tag_NUMBER_HEADER@1234@@Z ; Palmtree::Math::Core::Internal::CommitNumber

; 217  :             if (w->IS_ZERO)

  000d8	48 8b d3	 mov	 rdx, rbx
  000db	48 8d 4c 24 28	 lea	 rcx, QWORD PTR root$2[rsp]
  000e0	f6 43 08 01	 test	 BYTE PTR [rbx+8], 1
  000e4	74 0e		 je	 SHORT $LN8@PMC_Exclus

; 218  :             {
; 219  :                 root.DeallocateNumber(w);

  000e6	e8 00 00 00 00	 call	 ?DeallocateNumber@ResourceHolderUINT@Internal@Core@Math@Palmtree@@QEAAXPEAU__tag_NUMBER_HEADER@2345@@Z ; Palmtree::Math::Core::Internal::ResourceHolderUINT::DeallocateNumber

; 220  :                 w = &number_zero;

  000eb	48 8d 1d 00 00
	00 00		 lea	 rbx, OFFSET FLAT:?number_zero@Internal@Core@Math@Palmtree@@3U__tag_NUMBER_HEADER@1234@A ; Palmtree::Math::Core::Internal::number_zero

; 221  :             }
; 222  :             else

  000f2	eb 06		 jmp	 SHORT $LN9@PMC_Exclus
$LN8@PMC_Exclus:

; 223  :                 root.UnlinkNumber(w);

  000f4	e8 00 00 00 00	 call	 ?UnlinkNumber@ResourceHolderUINT@Internal@Core@Math@Palmtree@@QEAAXPEAU__tag_NUMBER_HEADER@2345@@Z ; Palmtree::Math::Core::Internal::ResourceHolderUINT::UnlinkNumber
  000f9	90		 npad	 1
$LN9@PMC_Exclus:

; 224  :             return (w);

  000fa	48 8d 4c 24 28	 lea	 rcx, QWORD PTR root$2[rsp]
  000ff	e8 00 00 00 00	 call	 ??1ResourceHolderUINT@Internal@Core@Math@Palmtree@@UEAA@XZ ; Palmtree::Math::Core::Internal::ResourceHolderUINT::~ResourceHolderUINT
  00104	48 8b c3	 mov	 rax, rbx
$LN7@PMC_Exclus:

; 225  :         }
; 226  :     }

  00107	48 8b 5c 24 60	 mov	 rbx, QWORD PTR [rsp+96]
  0010c	48 8b 6c 24 68	 mov	 rbp, QWORD PTR [rsp+104]
  00111	48 8b 74 24 70	 mov	 rsi, QWORD PTR [rsp+112]
  00116	48 83 c4 50	 add	 rsp, 80			; 00000050H
  0011a	5f		 pop	 rdi
  0011b	c3		 ret	 0
?PMC_ExclusiveOr_X_I_Imp@Internal@Core@Math@Palmtree@@YAPEAU__tag_NUMBER_HEADER@1234@PEAU51234@I@Z ENDP ; Palmtree::Math::Core::Internal::PMC_ExclusiveOr_X_I_Imp
_TEXT	ENDS
;	COMDAT text$x
text$x	SEGMENT
$T1 = 32
root$2 = 40
u$ = 96
v$ = 104
?dtor$0@?0??PMC_ExclusiveOr_X_I_Imp@Internal@Core@Math@Palmtree@@YAPEAU__tag_NUMBER_HEADER@1234@PEAU51234@I@Z@4HA PROC ; `Palmtree::Math::Core::Internal::PMC_ExclusiveOr_X_I_Imp'::`1'::dtor$0
  00000	48 8d 8a 28 00
	00 00		 lea	 rcx, QWORD PTR root$2[rdx]
  00007	e9 00 00 00 00	 jmp	 ??1ResourceHolderUINT@Internal@Core@Math@Palmtree@@UEAA@XZ ; Palmtree::Math::Core::Internal::ResourceHolderUINT::~ResourceHolderUINT
?dtor$0@?0??PMC_ExclusiveOr_X_I_Imp@Internal@Core@Math@Palmtree@@YAPEAU__tag_NUMBER_HEADER@1234@PEAU51234@I@Z@4HA ENDP ; `Palmtree::Math::Core::Internal::PMC_ExclusiveOr_X_I_Imp'::`1'::dtor$0
text$x	ENDS
; Function compile flags: /Ogtpy
;	COMDAT text$x
text$x	SEGMENT
$T1 = 32
root$2 = 40
u$ = 96
v$ = 104
?dtor$0@?0??PMC_ExclusiveOr_X_I_Imp@Internal@Core@Math@Palmtree@@YAPEAU__tag_NUMBER_HEADER@1234@PEAU51234@I@Z@4HA PROC ; `Palmtree::Math::Core::Internal::PMC_ExclusiveOr_X_I_Imp'::`1'::dtor$0
  00000	48 8d 8a 28 00
	00 00		 lea	 rcx, QWORD PTR root$2[rdx]
  00007	e9 00 00 00 00	 jmp	 ??1ResourceHolderUINT@Internal@Core@Math@Palmtree@@UEAA@XZ ; Palmtree::Math::Core::Internal::ResourceHolderUINT::~ResourceHolderUINT
?dtor$0@?0??PMC_ExclusiveOr_X_I_Imp@Internal@Core@Math@Palmtree@@YAPEAU__tag_NUMBER_HEADER@1234@PEAU51234@I@Z@4HA ENDP ; `Palmtree::Math::Core::Internal::PMC_ExclusiveOr_X_I_Imp'::`1'::dtor$0
text$x	ENDS
; Function compile flags: /Ogtpy
; File z:\sources\lunor\repos\rougemeilland\palmtree.math.core.uint\palmtree.math.core.uint\pmc_exclusiveor.cpp
; File z:\sources\lunor\repos\rougemeilland\palmtree.math.core.uint\palmtree.math.core.uint\pmc_inline_func.h
; File z:\sources\lunor\repos\rougemeilland\palmtree.math.core.uint\palmtree.math.core.uint\pmc_exclusiveor.cpp
; File z:\sources\lunor\repos\rougemeilland\palmtree.math.core.uint\palmtree.math.core.uint\pmc_inline_func.h
; File z:\sources\lunor\repos\rougemeilland\palmtree.math.core.uint\palmtree.math.core.uint\pmc_exclusiveor.cpp
;	COMDAT ?ExclusiveOr_X_X@Internal@Core@Math@Palmtree@@YAXPEA_K_K010@Z
_TEXT	SEGMENT
u$ = 8
u_count$ = 16
v$ = 24
v_count$ = 32
w$ = 40
?ExclusiveOr_X_X@Internal@Core@Math@Palmtree@@YAXPEA_K_K010@Z PROC ; Palmtree::Math::Core::Internal::ExclusiveOr_X_X, COMDAT

; 71   :     {

  00000	48 89 5c 24 08	 mov	 QWORD PTR [rsp+8], rbx
  00005	48 89 6c 24 10	 mov	 QWORD PTR [rsp+16], rbp
  0000a	48 89 74 24 18	 mov	 QWORD PTR [rsp+24], rsi
  0000f	48 89 7c 24 20	 mov	 QWORD PTR [rsp+32], rdi

; 72   :         __UNIT_TYPE or_count = v_count;
; 73   :         __UNIT_TYPE cp_count = u_count - v_count;
; 74   : 
; 75   :         __UNIT_TYPE count = or_count >> 5;
; 76   :         while (count > 0)

  00014	48 8b 7c 24 28	 mov	 rdi, QWORD PTR w$[rsp]
  00019	48 8b ea	 mov	 rbp, rdx
  0001c	4d 8b d9	 mov	 r11, r9
  0001f	49 2b e9	 sub	 rbp, r9
  00022	49 c1 eb 05	 shr	 r11, 5
  00026	49 8b d9	 mov	 rbx, r9
  00029	48 8b f1	 mov	 rsi, rcx
  0002c	4d 85 db	 test	 r11, r11
  0002f	0f 84 07 01 00
	00		 je	 $LN3@ExclusiveO
  00035	66 66 66 0f 1f
	84 00 00 00 00
	00		 npad	 11
$LL2@ExclusiveO:

; 77   :         {
; 78   :             w[0] = u[0] ^ v[0];

  00040	49 8d 48 10	 lea	 rcx, QWORD PTR [r8+16]
  00044	48 8d 81 e8 00
	00 00		 lea	 rax, QWORD PTR [rcx+232]
  0004b	48 3b f8	 cmp	 rdi, rax
  0004e	77 0c		 ja	 SHORT $LN32@ExclusiveO
  00050	48 8d 87 f8 00
	00 00		 lea	 rax, QWORD PTR [rdi+248]
  00057	49 3b c0	 cmp	 rax, r8
  0005a	73 18		 jae	 SHORT $LN72@ExclusiveO
$LN32@ExclusiveO:
  0005c	48 8d 86 f8 00
	00 00		 lea	 rax, QWORD PTR [rsi+248]
  00063	48 3b f8	 cmp	 rdi, rax
  00066	77 3f		 ja	 SHORT $LN33@ExclusiveO
  00068	48 8d 87 f8 00
	00 00		 lea	 rax, QWORD PTR [rdi+248]
  0006f	48 3b c6	 cmp	 rax, rsi
  00072	72 33		 jb	 SHORT $LN33@ExclusiveO
$LN72@ExclusiveO:
  00074	4c 8b ce	 mov	 r9, rsi
  00077	4c 8b d7	 mov	 r10, rdi
  0007a	4d 2b c8	 sub	 r9, r8
  0007d	49 8b c0	 mov	 rax, r8
  00080	4d 2b d0	 sub	 r10, r8
  00083	ba 20 00 00 00	 mov	 edx, 32			; 00000020H
  00088	0f 1f 84 00 00
	00 00 00	 npad	 8
$LL71@ExclusiveO:
  00090	4a 8b 0c 08	 mov	 rcx, QWORD PTR [rax+r9]
  00094	48 33 08	 xor	 rcx, QWORD PTR [rax]
  00097	4a 89 0c 10	 mov	 QWORD PTR [rax+r10], rcx
  0009b	48 8d 40 08	 lea	 rax, QWORD PTR [rax+8]
  0009f	48 83 ea 01	 sub	 rdx, 1
  000a3	75 eb		 jne	 SHORT $LL71@ExclusiveO
  000a5	eb 76		 jmp	 SHORT $LN15@ExclusiveO
$LN33@ExclusiveO:
  000a7	48 8b c6	 mov	 rax, rsi
  000aa	48 8b d7	 mov	 rdx, rdi
  000ad	49 2b c0	 sub	 rax, r8
  000b0	41 b9 04 00 00
	00		 mov	 r9d, 4
  000b6	49 2b d0	 sub	 rdx, r8
  000b9	0f 1f 80 00 00
	00 00		 npad	 7
$LL14@ExclusiveO:
  000c0	f3 0f 6f 41 f0	 movdqu	 xmm0, XMMWORD PTR [rcx-16]
  000c5	f3 0f 6f 4c 08
	f0		 movdqu	 xmm1, XMMWORD PTR [rax+rcx-16]
  000cb	f3 0f 6f 14 08	 movdqu	 xmm2, XMMWORD PTR [rax+rcx]
  000d0	48 8d 49 40	 lea	 rcx, QWORD PTR [rcx+64]
  000d4	66 0f ef c8	 pxor	 xmm1, xmm0
  000d8	f3 0f 6f 41 c0	 movdqu	 xmm0, XMMWORD PTR [rcx-64]
  000dd	f3 0f 7f 4c 0a
	b0		 movdqu	 XMMWORD PTR [rdx+rcx-80], xmm1
  000e3	66 0f ef d0	 pxor	 xmm2, xmm0
  000e7	f3 0f 6f 41 d0	 movdqu	 xmm0, XMMWORD PTR [rcx-48]
  000ec	f3 0f 6f 4c 08
	d0		 movdqu	 xmm1, XMMWORD PTR [rax+rcx-48]
  000f2	f3 0f 7f 54 0a
	c0		 movdqu	 XMMWORD PTR [rdx+rcx-64], xmm2
  000f8	66 0f ef c8	 pxor	 xmm1, xmm0
  000fc	f3 0f 6f 41 e0	 movdqu	 xmm0, XMMWORD PTR [rcx-32]
  00101	f3 0f 6f 54 08
	e0		 movdqu	 xmm2, XMMWORD PTR [rax+rcx-32]
  00107	f3 0f 7f 4c 0a
	d0		 movdqu	 XMMWORD PTR [rdx+rcx-48], xmm1
  0010d	66 0f ef d0	 pxor	 xmm2, xmm0
  00111	f3 0f 7f 54 0a
	e0		 movdqu	 XMMWORD PTR [rdx+rcx-32], xmm2
  00117	49 83 e9 01	 sub	 r9, 1
  0011b	75 a3		 jne	 SHORT $LL14@ExclusiveO
$LN15@ExclusiveO:

; 79   :             w[1] = u[1] ^ v[1];
; 80   :             w[2] = u[2] ^ v[2];
; 81   :             w[3] = u[3] ^ v[3];
; 82   :             w[4] = u[4] ^ v[4];
; 83   :             w[5] = u[5] ^ v[5];
; 84   :             w[6] = u[6] ^ v[6];
; 85   :             w[7] = u[7] ^ v[7];
; 86   :             w[8] = u[8] ^ v[8];
; 87   :             w[9] = u[9] ^ v[9];
; 88   :             w[10] = u[10] ^ v[10];
; 89   :             w[11] = u[11] ^ v[11];
; 90   :             w[12] = u[12] ^ v[12];
; 91   :             w[13] = u[13] ^ v[13];
; 92   :             w[14] = u[14] ^ v[14];
; 93   :             w[15] = u[15] ^ v[15];
; 94   :             w[16] = u[16] ^ v[16];
; 95   :             w[17] = u[17] ^ v[17];
; 96   :             w[18] = u[18] ^ v[18];
; 97   :             w[19] = u[19] ^ v[19];
; 98   :             w[20] = u[20] ^ v[20];
; 99   :             w[21] = u[21] ^ v[21];
; 100  :             w[22] = u[22] ^ v[22];
; 101  :             w[23] = u[23] ^ v[23];
; 102  :             w[24] = u[24] ^ v[24];
; 103  :             w[25] = u[25] ^ v[25];
; 104  :             w[26] = u[26] ^ v[26];
; 105  :             w[27] = u[27] ^ v[27];
; 106  :             w[28] = u[28] ^ v[28];
; 107  :             w[29] = u[29] ^ v[29];
; 108  :             w[30] = u[30] ^ v[30];
; 109  :             w[31] = u[31] ^ v[31];
; 110  :             u += 32;

  0011d	48 81 c6 00 01
	00 00		 add	 rsi, 256		; 00000100H

; 111  :             v += 32;

  00124	49 81 c0 00 01
	00 00		 add	 r8, 256			; 00000100H

; 112  :             w += 32;

  0012b	48 81 c7 00 01
	00 00		 add	 rdi, 256		; 00000100H

; 113  :             --count;

  00132	49 83 eb 01	 sub	 r11, 1
  00136	0f 85 04 ff ff
	ff		 jne	 $LL2@ExclusiveO
$LN3@ExclusiveO:

; 114  :         }
; 115  : 
; 116  :         if (or_count & 0x10)

  0013c	f6 c3 10	 test	 bl, 16
  0013f	0f 84 ec 00 00
	00		 je	 $LN4@ExclusiveO

; 117  :         {
; 118  :             w[0] = u[0] ^ v[0];

  00145	49 8d 40 78	 lea	 rax, QWORD PTR [r8+120]
  00149	45 33 c9	 xor	 r9d, r9d
  0014c	48 8d 4f 78	 lea	 rcx, QWORD PTR [rdi+120]
  00150	ba 10 00 00 00	 mov	 edx, 16
  00155	48 3b f8	 cmp	 rdi, rax
  00158	77 09		 ja	 SHORT $LN36@ExclusiveO
  0015a	49 3b c8	 cmp	 rcx, r8
  0015d	0f 83 91 00 00
	00		 jae	 $LN35@ExclusiveO
$LN36@ExclusiveO:
  00163	48 8d 46 78	 lea	 rax, QWORD PTR [rsi+120]
  00167	48 3b f8	 cmp	 rdi, rax
  0016a	77 09		 ja	 SHORT $LN37@ExclusiveO
  0016c	48 3b ce	 cmp	 rcx, rsi
  0016f	0f 83 7f 00 00
	00		 jae	 $LN35@ExclusiveO
$LN37@ExclusiveO:
  00175	48 8b ce	 mov	 rcx, rsi
  00178	49 8d 40 10	 lea	 rax, QWORD PTR [r8+16]
  0017c	49 2b c8	 sub	 rcx, r8
  0017f	4c 8b cf	 mov	 r9, rdi
  00182	4d 2b c8	 sub	 r9, r8
  00185	41 ba 02 00 00
	00		 mov	 r10d, 2
  0018b	0f 1f 44 00 00	 npad	 5
$LL16@ExclusiveO:
  00190	f3 0f 6f 40 f0	 movdqu	 xmm0, XMMWORD PTR [rax-16]
  00195	f3 0f 6f 4c 08
	f0		 movdqu	 xmm1, XMMWORD PTR [rax+rcx-16]
  0019b	f3 0f 6f 14 08	 movdqu	 xmm2, XMMWORD PTR [rax+rcx]
  001a0	48 8d 40 40	 lea	 rax, QWORD PTR [rax+64]
  001a4	66 0f ef c8	 pxor	 xmm1, xmm0
  001a8	f3 0f 6f 40 c0	 movdqu	 xmm0, XMMWORD PTR [rax-64]
  001ad	f3 42 0f 7f 4c
	08 b0		 movdqu	 XMMWORD PTR [rax+r9-80], xmm1
  001b4	66 0f ef d0	 pxor	 xmm2, xmm0
  001b8	f3 0f 6f 40 d0	 movdqu	 xmm0, XMMWORD PTR [rax-48]
  001bd	f3 0f 6f 4c 08
	d0		 movdqu	 xmm1, XMMWORD PTR [rax+rcx-48]
  001c3	f3 42 0f 7f 54
	08 c0		 movdqu	 XMMWORD PTR [rax+r9-64], xmm2
  001ca	66 0f ef c8	 pxor	 xmm1, xmm0
  001ce	f3 0f 6f 40 e0	 movdqu	 xmm0, XMMWORD PTR [rax-32]
  001d3	f3 0f 6f 54 08
	e0		 movdqu	 xmm2, XMMWORD PTR [rax+rcx-32]
  001d9	f3 42 0f 7f 4c
	08 d0		 movdqu	 XMMWORD PTR [rax+r9-48], xmm1
  001e0	66 0f ef d0	 pxor	 xmm2, xmm0
  001e4	f3 42 0f 7f 54
	08 e0		 movdqu	 XMMWORD PTR [rax+r9-32], xmm2
  001eb	49 83 ea 01	 sub	 r10, 1
  001ef	75 9f		 jne	 SHORT $LL16@ExclusiveO
  001f1	4c 8b ca	 mov	 r9, rdx
$LN35@ExclusiveO:
  001f4	4c 3b ca	 cmp	 r9, rdx
  001f7	73 2c		 jae	 SHORT $LN17@ExclusiveO
  001f9	4c 8b d6	 mov	 r10, rsi
  001fc	4b 8d 0c c8	 lea	 rcx, QWORD PTR [r8+r9*8]
  00200	4c 8b df	 mov	 r11, rdi
  00203	4d 2b d0	 sub	 r10, r8
  00206	4d 2b d8	 sub	 r11, r8
  00209	49 2b d1	 sub	 rdx, r9
  0020c	0f 1f 40 00	 npad	 4
$LL34@ExclusiveO:
  00210	4a 8b 04 11	 mov	 rax, QWORD PTR [rcx+r10]
  00214	48 33 01	 xor	 rax, QWORD PTR [rcx]
  00217	4a 89 04 19	 mov	 QWORD PTR [rcx+r11], rax
  0021b	48 8d 49 08	 lea	 rcx, QWORD PTR [rcx+8]
  0021f	48 83 ea 01	 sub	 rdx, 1
  00223	75 eb		 jne	 SHORT $LL34@ExclusiveO
$LN17@ExclusiveO:

; 119  :             w[1] = u[1] ^ v[1];
; 120  :             w[2] = u[2] ^ v[2];
; 121  :             w[3] = u[3] ^ v[3];
; 122  :             w[4] = u[4] ^ v[4];
; 123  :             w[5] = u[5] ^ v[5];
; 124  :             w[6] = u[6] ^ v[6];
; 125  :             w[7] = u[7] ^ v[7];
; 126  :             w[8] = u[8] ^ v[8];
; 127  :             w[9] = u[9] ^ v[9];
; 128  :             w[10] = u[10] ^ v[10];
; 129  :             w[11] = u[11] ^ v[11];
; 130  :             w[12] = u[12] ^ v[12];
; 131  :             w[13] = u[13] ^ v[13];
; 132  :             w[14] = u[14] ^ v[14];
; 133  :             w[15] = u[15] ^ v[15];
; 134  :             u += 16;

  00225	48 83 ee 80	 sub	 rsi, -128		; ffffffffffffff80H

; 135  :             v += 16;

  00229	49 83 e8 80	 sub	 r8, -128		; ffffffffffffff80H

; 136  :             w += 16;

  0022d	48 83 ef 80	 sub	 rdi, -128		; ffffffffffffff80H
$LN4@ExclusiveO:

; 137  :         }
; 138  : 
; 139  :         if (or_count & 0x8)

  00231	f6 c3 08	 test	 bl, 8
  00234	74 69		 je	 SHORT $LN5@ExclusiveO

; 140  :         {
; 141  :             w[0] = u[0] ^ v[0];

  00236	48 8b 06	 mov	 rax, QWORD PTR [rsi]
  00239	49 33 00	 xor	 rax, QWORD PTR [r8]
  0023c	48 89 07	 mov	 QWORD PTR [rdi], rax
  0023f	48 8b 46 08	 mov	 rax, QWORD PTR [rsi+8]
  00243	49 33 40 08	 xor	 rax, QWORD PTR [r8+8]
  00247	48 89 47 08	 mov	 QWORD PTR [rdi+8], rax
  0024b	48 8b 46 10	 mov	 rax, QWORD PTR [rsi+16]
  0024f	49 33 40 10	 xor	 rax, QWORD PTR [r8+16]
  00253	48 89 47 10	 mov	 QWORD PTR [rdi+16], rax
  00257	48 8b 46 18	 mov	 rax, QWORD PTR [rsi+24]
  0025b	49 33 40 18	 xor	 rax, QWORD PTR [r8+24]
  0025f	48 89 47 18	 mov	 QWORD PTR [rdi+24], rax
  00263	48 8b 46 20	 mov	 rax, QWORD PTR [rsi+32]
  00267	49 33 40 20	 xor	 rax, QWORD PTR [r8+32]
  0026b	48 89 47 20	 mov	 QWORD PTR [rdi+32], rax
  0026f	48 8b 46 28	 mov	 rax, QWORD PTR [rsi+40]
  00273	49 33 40 28	 xor	 rax, QWORD PTR [r8+40]
  00277	48 89 47 28	 mov	 QWORD PTR [rdi+40], rax
  0027b	48 8b 46 30	 mov	 rax, QWORD PTR [rsi+48]
  0027f	49 33 40 30	 xor	 rax, QWORD PTR [r8+48]
  00283	48 89 47 30	 mov	 QWORD PTR [rdi+48], rax
  00287	48 8b 46 38	 mov	 rax, QWORD PTR [rsi+56]

; 142  :             w[1] = u[1] ^ v[1];
; 143  :             w[2] = u[2] ^ v[2];
; 144  :             w[3] = u[3] ^ v[3];
; 145  :             w[4] = u[4] ^ v[4];
; 146  :             w[5] = u[5] ^ v[5];
; 147  :             w[6] = u[6] ^ v[6];
; 148  :             w[7] = u[7] ^ v[7];
; 149  :             u += 8;

  0028b	48 83 c6 40	 add	 rsi, 64			; 00000040H
  0028f	49 33 40 38	 xor	 rax, QWORD PTR [r8+56]

; 150  :             v += 8;

  00293	49 83 c0 40	 add	 r8, 64			; 00000040H
  00297	48 89 47 38	 mov	 QWORD PTR [rdi+56], rax

; 151  :             w += 8;

  0029b	48 83 c7 40	 add	 rdi, 64			; 00000040H
$LN5@ExclusiveO:

; 152  :         }
; 153  : 
; 154  :         if (or_count & 0x4)

  0029f	f6 c3 04	 test	 bl, 4
  002a2	74 39		 je	 SHORT $LN6@ExclusiveO

; 155  :         {
; 156  :             w[0] = u[0] ^ v[0];

  002a4	48 8b 06	 mov	 rax, QWORD PTR [rsi]
  002a7	49 33 00	 xor	 rax, QWORD PTR [r8]
  002aa	48 89 07	 mov	 QWORD PTR [rdi], rax
  002ad	48 8b 46 08	 mov	 rax, QWORD PTR [rsi+8]
  002b1	49 33 40 08	 xor	 rax, QWORD PTR [r8+8]
  002b5	48 89 47 08	 mov	 QWORD PTR [rdi+8], rax
  002b9	48 8b 46 10	 mov	 rax, QWORD PTR [rsi+16]
  002bd	49 33 40 10	 xor	 rax, QWORD PTR [r8+16]
  002c1	48 89 47 10	 mov	 QWORD PTR [rdi+16], rax
  002c5	48 8b 46 18	 mov	 rax, QWORD PTR [rsi+24]

; 157  :             w[1] = u[1] ^ v[1];
; 158  :             w[2] = u[2] ^ v[2];
; 159  :             w[3] = u[3] ^ v[3];
; 160  :             u += 4;

  002c9	48 83 c6 20	 add	 rsi, 32			; 00000020H
  002cd	49 33 40 18	 xor	 rax, QWORD PTR [r8+24]

; 161  :             v += 4;

  002d1	49 83 c0 20	 add	 r8, 32			; 00000020H
  002d5	48 89 47 18	 mov	 QWORD PTR [rdi+24], rax

; 162  :             w += 4;

  002d9	48 83 c7 20	 add	 rdi, 32			; 00000020H
$LN6@ExclusiveO:

; 163  :         }
; 164  : 
; 165  :         if (or_count & 0x2)

  002dd	f6 c3 02	 test	 bl, 2
  002e0	74 21		 je	 SHORT $LN7@ExclusiveO

; 166  :         {
; 167  :             w[0] = u[0] ^ v[0];

  002e2	48 8b 06	 mov	 rax, QWORD PTR [rsi]
  002e5	49 33 00	 xor	 rax, QWORD PTR [r8]
  002e8	48 89 07	 mov	 QWORD PTR [rdi], rax
  002eb	48 8b 46 08	 mov	 rax, QWORD PTR [rsi+8]

; 168  :             w[1] = u[1] ^ v[1];
; 169  :             u += 2;

  002ef	48 83 c6 10	 add	 rsi, 16
  002f3	49 33 40 08	 xor	 rax, QWORD PTR [r8+8]

; 170  :             v += 2;

  002f7	49 83 c0 10	 add	 r8, 16
  002fb	48 89 47 08	 mov	 QWORD PTR [rdi+8], rax

; 171  :             w += 2;

  002ff	48 83 c7 10	 add	 rdi, 16
$LN7@ExclusiveO:

; 172  :         }
; 173  : 
; 174  :         if (or_count & 0x1)

  00303	f6 c3 01	 test	 bl, 1
  00306	74 11		 je	 SHORT $LN8@ExclusiveO

; 175  :         {
; 176  :             w[0] = u[0] ^ v[0];

  00308	48 8b 06	 mov	 rax, QWORD PTR [rsi]

; 177  :             u += 1;

  0030b	48 83 c6 08	 add	 rsi, 8
  0030f	49 33 00	 xor	 rax, QWORD PTR [r8]
  00312	48 89 07	 mov	 QWORD PTR [rdi], rax

; 178  :             v += 1;
; 179  :             w += 1;

  00315	48 83 c7 08	 add	 rdi, 8
$LN8@ExclusiveO:

; 183  :     }

  00319	48 8b 5c 24 08	 mov	 rbx, QWORD PTR [rsp+8]
; File z:\sources\lunor\repos\rougemeilland\palmtree.math.core.uint\palmtree.math.core.uint\pmc_inline_func.h

; 67   :             __movsq(d, s, count);

  0031e	48 8b cd	 mov	 rcx, rbp
; File z:\sources\lunor\repos\rougemeilland\palmtree.math.core.uint\palmtree.math.core.uint\pmc_exclusiveor.cpp

; 183  :     }

  00321	48 8b 6c 24 10	 mov	 rbp, QWORD PTR [rsp+16]
; File z:\sources\lunor\repos\rougemeilland\palmtree.math.core.uint\palmtree.math.core.uint\pmc_inline_func.h

; 67   :             __movsq(d, s, count);

  00326	f3 48 a5	 rep movsq
; File z:\sources\lunor\repos\rougemeilland\palmtree.math.core.uint\palmtree.math.core.uint\pmc_exclusiveor.cpp

; 183  :     }

  00329	48 8b 74 24 18	 mov	 rsi, QWORD PTR [rsp+24]
  0032e	48 8b 7c 24 20	 mov	 rdi, QWORD PTR [rsp+32]
  00333	c3		 ret	 0
?ExclusiveOr_X_X@Internal@Core@Math@Palmtree@@YAXPEA_K_K010@Z ENDP ; Palmtree::Math::Core::Internal::ExclusiveOr_X_X
_TEXT	ENDS
; Function compile flags: /Ogtpy
; File z:\sources\lunor\repos\rougemeilland\palmtree.math.core.uint\palmtree.math.core.uint\pmc_exclusiveor.cpp
; File z:\sources\lunor\repos\rougemeilland\palmtree.math.core.uint\palmtree.math.core.uint\pmc_inline_func.h
; File z:\sources\lunor\repos\rougemeilland\palmtree.math.core.uint\palmtree.math.core.uint\pmc_exclusiveor.cpp
;	COMDAT ?ExclusiveOr_X_2W@Internal@Core@Math@Palmtree@@YAXPEA_K_K110@Z
_TEXT	SEGMENT
u$ = 8
u_count$ = 16
v_hi$ = 24
v_lo$ = 32
w$ = 40
?ExclusiveOr_X_2W@Internal@Core@Math@Palmtree@@YAXPEA_K_K110@Z PROC ; Palmtree::Math::Core::Internal::ExclusiveOr_X_2W, COMDAT

; 50   :     {

  00000	48 89 74 24 08	 mov	 QWORD PTR [rsp+8], rsi
  00005	48 89 7c 24 10	 mov	 QWORD PTR [rsp+16], rdi
  0000a	48 8b 01	 mov	 rax, QWORD PTR [rcx]
  0000d	48 8b f1	 mov	 rsi, rcx
  00010	48 8b 7c 24 28	 mov	 rdi, QWORD PTR w$[rsp]
  00015	49 33 c1	 xor	 rax, r9

; 51   :         if (u_count == 1)

  00018	48 89 07	 mov	 QWORD PTR [rdi], rax
  0001b	48 83 fa 01	 cmp	 rdx, 1
  0001f	75 0f		 jne	 SHORT $LN2@ExclusiveO

; 52   :         {
; 53   :             w[0] = u[0] ^ v_lo;
; 54   :             w[1] = v_hi;

  00021	4c 89 47 08	 mov	 QWORD PTR [rdi+8], r8

; 67   :     }

  00025	48 8b 74 24 08	 mov	 rsi, QWORD PTR [rsp+8]
  0002a	48 8b 7c 24 10	 mov	 rdi, QWORD PTR [rsp+16]
  0002f	c3		 ret	 0
$LN2@ExclusiveO:

; 55   :         }
; 56   :         else if (u_count == 2)

  00030	48 8b 41 08	 mov	 rax, QWORD PTR [rcx+8]
  00034	49 33 c0	 xor	 rax, r8
  00037	48 89 47 08	 mov	 QWORD PTR [rdi+8], rax
  0003b	48 83 fa 02	 cmp	 rdx, 2
  0003f	74 0f		 je	 SHORT $LN5@ExclusiveO

; 57   :         {
; 58   :             w[0] = u[0] ^ v_lo;
; 59   :             w[1] = u[1] ^ v_hi;
; 60   :         }
; 61   :         else
; 62   :         {
; 63   :             w[0] = u[0] ^ v_lo;
; 64   :             w[1] = u[1] ^ v_hi;
; 65   :             _COPY_MEMORY_UNIT(w + 2, u + 2, u_count - 2);

  00041	48 83 c6 10	 add	 rsi, 16
  00045	48 8d 4a fe	 lea	 rcx, QWORD PTR [rdx-2]
  00049	48 83 c7 10	 add	 rdi, 16
; File z:\sources\lunor\repos\rougemeilland\palmtree.math.core.uint\palmtree.math.core.uint\pmc_inline_func.h

; 67   :             __movsq(d, s, count);

  0004d	f3 48 a5	 rep movsq
$LN5@ExclusiveO:
; File z:\sources\lunor\repos\rougemeilland\palmtree.math.core.uint\palmtree.math.core.uint\pmc_exclusiveor.cpp

; 67   :     }

  00050	48 8b 74 24 08	 mov	 rsi, QWORD PTR [rsp+8]
  00055	48 8b 7c 24 10	 mov	 rdi, QWORD PTR [rsp+16]
  0005a	c3		 ret	 0
?ExclusiveOr_X_2W@Internal@Core@Math@Palmtree@@YAXPEA_K_K110@Z ENDP ; Palmtree::Math::Core::Internal::ExclusiveOr_X_2W
_TEXT	ENDS
; Function compile flags: /Ogtpy
; File z:\sources\lunor\repos\rougemeilland\palmtree.math.core.uint\palmtree.math.core.uint\pmc_exclusiveor.cpp
; File z:\sources\lunor\repos\rougemeilland\palmtree.math.core.uint\palmtree.math.core.uint\pmc_inline_func.h
; File z:\sources\lunor\repos\rougemeilland\palmtree.math.core.uint\palmtree.math.core.uint\pmc_exclusiveor.cpp
;	COMDAT ?ExclusiveOr_X_1W@Internal@Core@Math@Palmtree@@YAXPEA_K_K10@Z
_TEXT	SEGMENT
u$ = 16
u_count$ = 24
v$ = 32
w$ = 40
?ExclusiveOr_X_1W@Internal@Core@Math@Palmtree@@YAXPEA_K_K10@Z PROC ; Palmtree::Math::Core::Internal::ExclusiveOr_X_1W, COMDAT

; 38   :     {

  00000	40 56		 push	 rsi
  00002	48 8b 01	 mov	 rax, QWORD PTR [rcx]
  00005	48 8b f1	 mov	 rsi, rcx
  00008	49 33 c0	 xor	 rax, r8
  0000b	49 89 01	 mov	 QWORD PTR [r9], rax

; 39   :         if (u_count == 1)

  0000e	48 83 fa 01	 cmp	 rdx, 1
  00012	74 19		 je	 SHORT $LN3@ExclusiveO

; 40   :             w[0] = u[0] ^ v;
; 41   :         else
; 42   :         {
; 43   :             w[0] = u[0] ^ v;
; 44   :             _COPY_MEMORY_UNIT(w + 1, u + 1, u_count - 1);

  00014	48 89 7c 24 10	 mov	 QWORD PTR [rsp+16], rdi
  00019	48 8d 4a ff	 lea	 rcx, QWORD PTR [rdx-1]
  0001d	49 8d 79 08	 lea	 rdi, QWORD PTR [r9+8]
  00021	48 83 c6 08	 add	 rsi, 8
; File z:\sources\lunor\repos\rougemeilland\palmtree.math.core.uint\palmtree.math.core.uint\pmc_inline_func.h

; 67   :             __movsq(d, s, count);

  00025	f3 48 a5	 rep movsq
  00028	48 8b 7c 24 10	 mov	 rdi, QWORD PTR [rsp+16]
$LN3@ExclusiveO:
; File z:\sources\lunor\repos\rougemeilland\palmtree.math.core.uint\palmtree.math.core.uint\pmc_exclusiveor.cpp

; 46   :     }

  0002d	5e		 pop	 rsi
  0002e	c3		 ret	 0
?ExclusiveOr_X_1W@Internal@Core@Math@Palmtree@@YAXPEA_K_K10@Z ENDP ; Palmtree::Math::Core::Internal::ExclusiveOr_X_1W
_TEXT	ENDS
; Function compile flags: /Ogtpy
; File z:\sources\lunor\repos\rougemeilland\palmtree.math.core.uint\palmtree.math.core.uint\pmc_inline_func.h
;	COMDAT _LZCNT_ALT_UNIT
_TEXT	SEGMENT
x$ = 8
_LZCNT_ALT_UNIT PROC					; COMDAT

; 455  :             if (x == 0)

  00000	48 85 c9	 test	 rcx, rcx
  00003	75 06		 jne	 SHORT $LN2@LZCNT_ALT_

; 456  :                 return (sizeof(x) * 8);

  00005	b8 40 00 00 00	 mov	 eax, 64			; 00000040H

; 480  :         }

  0000a	c3		 ret	 0
$LN2@LZCNT_ALT_:

; 457  : #ifdef _M_IX86
; 458  :             DWORD pos;
; 459  : #ifdef _MSC_VER
; 460  :             _BitScanReverse(&pos, x);
; 461  : #elif defined(__GNUC__)
; 462  :             __asm__("bsrl %1, %0" : "=r"(pos) : "rm"(x));
; 463  : #else
; 464  : #error unknown compiler
; 465  : #endif
; 466  : #elif defined(_M_X64)
; 467  : #ifdef _MSC_VER
; 468  :             DWORD pos;
; 469  :             _BitScanReverse64(&pos, x);

  0000b	48 0f bd c9	 bsr	 rcx, rcx

; 470  : #elif defined(__GNUC__)
; 471  :             _UINT64_T pos;
; 472  :             __asm__("bsrq %1, %0" : "=r"(pos) : "rm"(x));
; 473  : #else
; 474  : #error unknown compiler
; 475  : #endif
; 476  : #else
; 477  : #error unknown platform
; 478  : #endif
; 479  :             return (sizeof(x) * 8 - 1 - pos);

  0000f	b8 3f 00 00 00	 mov	 eax, 63			; 0000003fH
  00014	2b c1		 sub	 eax, ecx

; 480  :         }

  00016	c3		 ret	 0
_LZCNT_ALT_UNIT ENDP
_TEXT	ENDS
; Function compile flags: /Ogtpy
; File z:\sources\lunor\repos\rougemeilland\palmtree.math.core.uint\palmtree.math.core.uint\pmc_inline_func.h
;	COMDAT _LZCNT_ALT_32
_TEXT	SEGMENT
x$ = 8
_LZCNT_ALT_32 PROC					; COMDAT

; 422  :             if (x == 0)

  00000	85 c9		 test	 ecx, ecx
  00002	75 06		 jne	 SHORT $LN2@LZCNT_ALT_

; 423  :                 return (sizeof(x) * 8);

  00004	b8 20 00 00 00	 mov	 eax, 32			; 00000020H

; 433  :         }

  00009	c3		 ret	 0
$LN2@LZCNT_ALT_:

; 424  :             DWORD pos;
; 425  : #ifdef _MSC_VER
; 426  :             _BitScanReverse(&pos, x);

  0000a	0f bd c9	 bsr	 ecx, ecx

; 427  : #elif defined(__GNUC__)
; 428  :             __asm__("bsrl %1, %0" : "=r"(pos) : "rm"(x));
; 429  : #else
; 430  : #error unknown compiler
; 431  : #endif
; 432  :             return (sizeof(x) * 8 - 1 - pos);

  0000d	b8 1f 00 00 00	 mov	 eax, 31
  00012	2b c1		 sub	 eax, ecx

; 433  :         }

  00014	c3		 ret	 0
_LZCNT_ALT_32 ENDP
_TEXT	ENDS
; Function compile flags: /Ogtpy
; File z:\sources\lunor\repos\rougemeilland\palmtree.math.core.uint\palmtree.math.core.uint\pmc_inline_func.h
;	COMDAT _MAXIMUM_UNIT
_TEXT	SEGMENT
x$ = 8
y$ = 16
_MAXIMUM_UNIT PROC					; COMDAT

; 167  :             return (x >= y ? x : y);

  00000	48 3b ca	 cmp	 rcx, rdx
  00003	48 0f 43 d1	 cmovae	 rdx, rcx
  00007	48 8b c2	 mov	 rax, rdx

; 168  :         }

  0000a	c3		 ret	 0
_MAXIMUM_UNIT ENDP
_TEXT	ENDS
; Function compile flags: /Ogtpy
; File z:\sources\lunor\repos\rougemeilland\palmtree.math.core.uint\palmtree.math.core.uint\pmc_inline_func.h
;	COMDAT _FROMDWORDTOWORD
_TEXT	SEGMENT
value$ = 8
result_high$ = 16
_FROMDWORDTOWORD PROC					; COMDAT

; 146  :             *result_high = (_UINT32_T)(value >> 32);

  00000	48 8b c1	 mov	 rax, rcx
  00003	48 c1 e8 20	 shr	 rax, 32			; 00000020H
  00007	89 02		 mov	 DWORD PTR [rdx], eax

; 147  :             return ((_UINT32_T)value);

  00009	8b c1		 mov	 eax, ecx

; 148  :         }

  0000b	c3		 ret	 0
_FROMDWORDTOWORD ENDP
_TEXT	ENDS
; Function compile flags: /Ogtpy
; File z:\sources\lunor\repos\rougemeilland\palmtree.math.core.uint\palmtree.math.core.uint\pmc_inline_func.h
;	COMDAT _COPY_MEMORY_UNIT
_TEXT	SEGMENT
d$ = 8
s$ = 16
count$ = 24
_COPY_MEMORY_UNIT PROC					; COMDAT

; 63   :         {

  00000	48 89 74 24 08	 mov	 QWORD PTR [rsp+8], rsi
  00005	48 89 7c 24 10	 mov	 QWORD PTR [rsp+16], rdi

; 64   : #ifdef _M_IX86
; 65   :             __movsd((unsigned long *)d, (unsigned long *)s, (unsigned long)count);
; 66   : #elif defined(_M_X64)
; 67   :             __movsq(d, s, count);

  0000a	48 8b f9	 mov	 rdi, rcx
  0000d	48 8b f2	 mov	 rsi, rdx
  00010	49 8b c8	 mov	 rcx, r8
  00013	f3 48 a5	 rep movsq

; 68   : #else
; 69   : #error unknown platform
; 70   : #endif
; 71   :         }

  00016	48 8b 74 24 08	 mov	 rsi, QWORD PTR [rsp+8]
  0001b	48 8b 7c 24 10	 mov	 rdi, QWORD PTR [rsp+16]
  00020	c3		 ret	 0
_COPY_MEMORY_UNIT ENDP
_TEXT	ENDS
; Function compile flags: /Ogtpy
; File z:\sources\lunor\repos\rougemeilland\palmtree.math.core.uint\palmtree.math.core.uint\pmc_exclusiveor.cpp
; File z:\sources\lunor\repos\rougemeilland\palmtree.math.core.uint\palmtree.math.core.uint\pmc_inline_func.h
; File z:\sources\lunor\repos\rougemeilland\palmtree.math.core.uint\palmtree.math.core.uint\pmc_exclusiveor.cpp
;	COMDAT ?PMC_ExclusiveOr_X_X@Internal@Core@Math@Palmtree@@YAPEAU__tag_PMC_HANDLE_UINT@1234@PEAU51234@0@Z
_TEXT	SEGMENT
root$1 = 56
$T2 = 56
$T3 = 56
root$ = 104
u$ = 160
v$ = 168
?PMC_ExclusiveOr_X_X@Internal@Core@Math@Palmtree@@YAPEAU__tag_PMC_HANDLE_UINT@1234@PEAU51234@0@Z PROC ; Palmtree::Math::Core::Internal::PMC_ExclusiveOr_X_X, COMDAT

; 438  :     {

$LN23:
  00000	48 8b c4	 mov	 rax, rsp
  00003	57		 push	 rdi
  00004	48 81 ec 90 00
	00 00		 sub	 rsp, 144		; 00000090H
  0000b	48 c7 40 98 fe
	ff ff ff	 mov	 QWORD PTR [rax-104], -2
  00013	48 89 58 08	 mov	 QWORD PTR [rax+8], rbx
  00017	48 89 70 10	 mov	 QWORD PTR [rax+16], rsi
  0001b	48 8b fa	 mov	 rdi, rdx
  0001e	48 8b f1	 mov	 rsi, rcx

; 439  :         if (u == nullptr)

  00021	48 85 c9	 test	 rcx, rcx
  00024	0f 84 4b 01 00
	00		 je	 $LN20@PMC_Exclus

; 441  :         if (v == nullptr)

  0002a	48 85 d2	 test	 rdx, rdx
  0002d	0f 84 18 01 00
	00		 je	 $LN21@PMC_Exclus

; 443  :         NUMBER_HEADER* nu = (NUMBER_HEADER*)u;
; 444  :         NUMBER_HEADER* nv = (NUMBER_HEADER*)v;
; 445  :         CheckNumber(nu);

  00033	e8 00 00 00 00	 call	 ?CheckNumber@Internal@Core@Math@Palmtree@@YAXPEAU__tag_NUMBER_HEADER@1234@@Z ; Palmtree::Math::Core::Internal::CheckNumber

; 446  :         CheckNumber(nv);

  00038	48 8b cf	 mov	 rcx, rdi
  0003b	e8 00 00 00 00	 call	 ?CheckNumber@Internal@Core@Math@Palmtree@@YAXPEAU__tag_NUMBER_HEADER@1234@@Z ; Palmtree::Math::Core::Internal::CheckNumber

; 447  :         ResourceHolderUINT root;

  00040	48 8d 4c 24 68	 lea	 rcx, QWORD PTR root$[rsp]
  00045	e8 00 00 00 00	 call	 ??0ResourceHolderUINT@Internal@Core@Math@Palmtree@@QEAA@XZ ; Palmtree::Math::Core::Internal::ResourceHolderUINT::ResourceHolderUINT
  0004a	90		 npad	 1

; 406  :         if (u->IS_ZERO)

  0004b	f6 46 08 01	 test	 BYTE PTR [rsi+8], 1
  0004f	74 10		 je	 SHORT $LN7@PMC_Exclus

; 407  :             return (DuplicateNumber(v));

  00051	48 8b cf	 mov	 rcx, rdi
  00054	e8 00 00 00 00	 call	 ?DuplicateNumber@Internal@Core@Math@Palmtree@@YAPEAU__tag_NUMBER_HEADER@1234@PEAU51234@@Z ; Palmtree::Math::Core::Internal::DuplicateNumber
  00059	48 8b f8	 mov	 rdi, rax
  0005c	e9 ad 00 00 00	 jmp	 $LN10@PMC_Exclus
$LN7@PMC_Exclus:

; 408  :         else if (v->IS_ZERO)

  00061	f6 47 08 01	 test	 BYTE PTR [rdi+8], 1
  00065	74 10		 je	 SHORT $LN9@PMC_Exclus

; 409  :             return (DuplicateNumber(u));

  00067	48 8b ce	 mov	 rcx, rsi
  0006a	e8 00 00 00 00	 call	 ?DuplicateNumber@Internal@Core@Math@Palmtree@@YAPEAU__tag_NUMBER_HEADER@1234@PEAU51234@@Z ; Palmtree::Math::Core::Internal::DuplicateNumber
  0006f	48 8b f8	 mov	 rdi, rax
  00072	e9 97 00 00 00	 jmp	 $LN10@PMC_Exclus
$LN9@PMC_Exclus:

; 410  :         else
; 411  :         {
; 412  :             ResourceHolderUINT root;

  00077	48 8d 4c 24 38	 lea	 rcx, QWORD PTR root$1[rsp]
  0007c	e8 00 00 00 00	 call	 ??0ResourceHolderUINT@Internal@Core@Math@Palmtree@@QEAA@XZ ; Palmtree::Math::Core::Internal::ResourceHolderUINT::ResourceHolderUINT
  00081	90		 npad	 1

; 413  :             if (u->UNIT_WORD_COUNT < v->UNIT_WORD_COUNT)

  00082	48 8b 4e 18	 mov	 rcx, QWORD PTR [rsi+24]

; 414  :             {
; 415  :                 NUMBER_HEADER* t = u;
; 416  :                 u = v;
; 417  :                 v = t;
; 418  :             }
; 419  :             __UNIT_TYPE u_bit_count = u->UNIT_BIT_COUNT;

  00086	48 8b df	 mov	 rbx, rdi
  00089	48 3b 4f 18	 cmp	 rcx, QWORD PTR [rdi+24]
  0008d	48 0f 43 de	 cmovae	 rbx, rsi
  00091	48 0f 43 f7	 cmovae	 rsi, rdi

; 420  :             __UNIT_TYPE v_bit_count = v->UNIT_BIT_COUNT;

  00095	48 8b 56 20	 mov	 rdx, QWORD PTR [rsi+32]
; File z:\sources\lunor\repos\rougemeilland\palmtree.math.core.uint\palmtree.math.core.uint\pmc_inline_func.h

; 167  :             return (x >= y ? x : y);

  00099	48 39 53 20	 cmp	 QWORD PTR [rbx+32], rdx
  0009d	48 0f 43 53 20	 cmovae	 rdx, QWORD PTR [rbx+32]
; File z:\sources\lunor\repos\rougemeilland\palmtree.math.core.uint\palmtree.math.core.uint\pmc_exclusiveor.cpp

; 422  :             NUMBER_HEADER* w = root.AllocateNumber(w_bit_count);

  000a2	48 8d 4c 24 38	 lea	 rcx, QWORD PTR root$1[rsp]
  000a7	e8 00 00 00 00	 call	 ?AllocateNumber@ResourceHolderUINT@Internal@Core@Math@Palmtree@@QEAAPEAU__tag_NUMBER_HEADER@2345@_K@Z ; Palmtree::Math::Core::Internal::ResourceHolderUINT::AllocateNumber
  000ac	48 8b f8	 mov	 rdi, rax

; 423  :             ExclusiveOr_X_X(u->BLOCK, u->UNIT_WORD_COUNT, v->BLOCK, v->UNIT_WORD_COUNT, w->BLOCK);

  000af	48 8b 40 40	 mov	 rax, QWORD PTR [rax+64]
  000b3	48 89 44 24 20	 mov	 QWORD PTR [rsp+32], rax
  000b8	4c 8b 4e 18	 mov	 r9, QWORD PTR [rsi+24]
  000bc	4c 8b 46 40	 mov	 r8, QWORD PTR [rsi+64]
  000c0	48 8b 53 18	 mov	 rdx, QWORD PTR [rbx+24]
  000c4	48 8b 4b 40	 mov	 rcx, QWORD PTR [rbx+64]
  000c8	e8 00 00 00 00	 call	 ?ExclusiveOr_X_X@Internal@Core@Math@Palmtree@@YAXPEA_K_K010@Z ; Palmtree::Math::Core::Internal::ExclusiveOr_X_X

; 424  :             root.CheckNumber(w);

  000cd	48 8b d7	 mov	 rdx, rdi
  000d0	48 8d 4c 24 38	 lea	 rcx, QWORD PTR root$1[rsp]
  000d5	e8 00 00 00 00	 call	 ?CheckNumber@ResourceHolderUINT@Internal@Core@Math@Palmtree@@QEAAXPEAU__tag_NUMBER_HEADER@2345@@Z ; Palmtree::Math::Core::Internal::ResourceHolderUINT::CheckNumber

; 425  :             CommitNumber(w);

  000da	48 8b cf	 mov	 rcx, rdi
  000dd	e8 00 00 00 00	 call	 ?CommitNumber@Internal@Core@Math@Palmtree@@YAXPEAU__tag_NUMBER_HEADER@1234@@Z ; Palmtree::Math::Core::Internal::CommitNumber

; 426  :             if (w->IS_ZERO)

  000e2	48 8b d7	 mov	 rdx, rdi
  000e5	48 8d 4c 24 38	 lea	 rcx, QWORD PTR root$1[rsp]
  000ea	f6 47 08 01	 test	 BYTE PTR [rdi+8], 1
  000ee	74 0e		 je	 SHORT $LN12@PMC_Exclus

; 427  :             {
; 428  :                 root.DeallocateNumber(w);

  000f0	e8 00 00 00 00	 call	 ?DeallocateNumber@ResourceHolderUINT@Internal@Core@Math@Palmtree@@QEAAXPEAU__tag_NUMBER_HEADER@2345@@Z ; Palmtree::Math::Core::Internal::ResourceHolderUINT::DeallocateNumber

; 429  :                 w = &number_zero;

  000f5	48 8d 3d 00 00
	00 00		 lea	 rdi, OFFSET FLAT:?number_zero@Internal@Core@Math@Palmtree@@3U__tag_NUMBER_HEADER@1234@A ; Palmtree::Math::Core::Internal::number_zero

; 430  :             }
; 431  :             else

  000fc	eb 06		 jmp	 SHORT $LN13@PMC_Exclus
$LN12@PMC_Exclus:

; 432  :                 root.UnlinkNumber(w);

  000fe	e8 00 00 00 00	 call	 ?UnlinkNumber@ResourceHolderUINT@Internal@Core@Math@Palmtree@@QEAAXPEAU__tag_NUMBER_HEADER@2345@@Z ; Palmtree::Math::Core::Internal::ResourceHolderUINT::UnlinkNumber
  00103	90		 npad	 1
$LN13@PMC_Exclus:

; 433  :             return (w);

  00104	48 8d 4c 24 38	 lea	 rcx, QWORD PTR root$1[rsp]
  00109	e8 00 00 00 00	 call	 ??1ResourceHolderUINT@Internal@Core@Math@Palmtree@@UEAA@XZ ; Palmtree::Math::Core::Internal::ResourceHolderUINT::~ResourceHolderUINT
$LN10@PMC_Exclus:

; 448  :         NUMBER_HEADER* w = PMC_ExclusiveOr_X_X_Imp(nu, nv);
; 449  :         root.HookNumber(w);

  0010e	48 8b d7	 mov	 rdx, rdi
  00111	48 8d 4c 24 68	 lea	 rcx, QWORD PTR root$[rsp]
  00116	e8 00 00 00 00	 call	 ?HookNumber@ResourceHolderUINT@Internal@Core@Math@Palmtree@@QEAAXPEAU__tag_NUMBER_HEADER@2345@@Z ; Palmtree::Math::Core::Internal::ResourceHolderUINT::HookNumber

; 450  : #ifdef _DEBUG
; 451  :         CheckNumber(w);
; 452  : #endif
; 453  :         root.UnlinkNumber(w);

  0011b	48 8b d7	 mov	 rdx, rdi
  0011e	48 8d 4c 24 68	 lea	 rcx, QWORD PTR root$[rsp]
  00123	e8 00 00 00 00	 call	 ?UnlinkNumber@ResourceHolderUINT@Internal@Core@Math@Palmtree@@QEAAXPEAU__tag_NUMBER_HEADER@2345@@Z ; Palmtree::Math::Core::Internal::ResourceHolderUINT::UnlinkNumber
  00128	90		 npad	 1

; 454  :         return ((PMC_HANDLE_UINT)w);

  00129	48 8d 4c 24 68	 lea	 rcx, QWORD PTR root$[rsp]
  0012e	e8 00 00 00 00	 call	 ??1ResourceHolderUINT@Internal@Core@Math@Palmtree@@UEAA@XZ ; Palmtree::Math::Core::Internal::ResourceHolderUINT::~ResourceHolderUINT
  00133	48 8b c7	 mov	 rax, rdi

; 455  :     }

  00136	4c 8d 9c 24 90
	00 00 00	 lea	 r11, QWORD PTR [rsp+144]
  0013e	49 8b 5b 10	 mov	 rbx, QWORD PTR [r11+16]
  00142	49 8b 73 18	 mov	 rsi, QWORD PTR [r11+24]
  00146	49 8b e3	 mov	 rsp, r11
  00149	5f		 pop	 rdi
  0014a	c3		 ret	 0
$LN21@PMC_Exclus:

; 442  :             throw ArgumentNullException(L"nullptr", L"v");

  0014b	4c 8d 05 00 00
	00 00		 lea	 r8, OFFSET FLAT:??_C@_13JAOPNPKD@?$AAv@
  00152	48 8d 15 00 00
	00 00		 lea	 rdx, OFFSET FLAT:??_C@_1CK@ECFIEPAC@?$AA?$BF?$AAp?$AAk?$AAn?$AAu?$AAl?$AAl?$AAp?$AAt?$AAr?$AAL?$AA?$AO?$AAH?$PP?$IJ?$PP?$IM@
  00159	48 8d 4c 24 38	 lea	 rcx, QWORD PTR $T2[rsp]
  0015e	e8 00 00 00 00	 call	 ??0ArgumentNullException@Internal@Core@Math@Palmtree@@QEAA@PEB_W0@Z ; Palmtree::Math::Core::Internal::ArgumentNullException::ArgumentNullException
  00163	48 8d 15 00 00
	00 00		 lea	 rdx, OFFSET FLAT:_TI2?AVArgumentNullException@Internal@Core@Math@Palmtree@@
  0016a	48 8d 4c 24 38	 lea	 rcx, QWORD PTR $T2[rsp]
  0016f	e8 00 00 00 00	 call	 _CxxThrowException
  00174	cc		 int	 3
$LN20@PMC_Exclus:

; 440  :             throw ArgumentNullException(L"nullptr", L"u");

  00175	4c 8d 05 00 00
	00 00		 lea	 r8, OFFSET FLAT:??_C@_13ICFKHAEN@?$AAu@
  0017c	48 8d 15 00 00
	00 00		 lea	 rdx, OFFSET FLAT:??_C@_1CK@ECFIEPAC@?$AA?$BF?$AAp?$AAk?$AAn?$AAu?$AAl?$AAl?$AAp?$AAt?$AAr?$AAL?$AA?$AO?$AAH?$PP?$IJ?$PP?$IM@
  00183	48 8d 4c 24 38	 lea	 rcx, QWORD PTR $T3[rsp]
  00188	e8 00 00 00 00	 call	 ??0ArgumentNullException@Internal@Core@Math@Palmtree@@QEAA@PEB_W0@Z ; Palmtree::Math::Core::Internal::ArgumentNullException::ArgumentNullException
  0018d	48 8d 15 00 00
	00 00		 lea	 rdx, OFFSET FLAT:_TI2?AVArgumentNullException@Internal@Core@Math@Palmtree@@
  00194	48 8d 4c 24 38	 lea	 rcx, QWORD PTR $T3[rsp]
  00199	e8 00 00 00 00	 call	 _CxxThrowException
  0019e	cc		 int	 3
$LN18@PMC_Exclus:
?PMC_ExclusiveOr_X_X@Internal@Core@Math@Palmtree@@YAPEAU__tag_PMC_HANDLE_UINT@1234@PEAU51234@0@Z ENDP ; Palmtree::Math::Core::Internal::PMC_ExclusiveOr_X_X
_TEXT	ENDS
;	COMDAT text$x
text$x	SEGMENT
root$1 = 56
$T2 = 56
$T3 = 56
root$ = 104
u$ = 160
v$ = 168
?dtor$0@?0??PMC_ExclusiveOr_X_X@Internal@Core@Math@Palmtree@@YAPEAU__tag_PMC_HANDLE_UINT@1234@PEAU51234@0@Z@4HA PROC ; `Palmtree::Math::Core::Internal::PMC_ExclusiveOr_X_X'::`1'::dtor$0
  00000	48 8d 8a 68 00
	00 00		 lea	 rcx, QWORD PTR root$[rdx]
  00007	e9 00 00 00 00	 jmp	 ??1ResourceHolderUINT@Internal@Core@Math@Palmtree@@UEAA@XZ ; Palmtree::Math::Core::Internal::ResourceHolderUINT::~ResourceHolderUINT
?dtor$0@?0??PMC_ExclusiveOr_X_X@Internal@Core@Math@Palmtree@@YAPEAU__tag_PMC_HANDLE_UINT@1234@PEAU51234@0@Z@4HA ENDP ; `Palmtree::Math::Core::Internal::PMC_ExclusiveOr_X_X'::`1'::dtor$0
text$x	ENDS
;	COMDAT text$x
text$x	SEGMENT
root$1 = 56
$T2 = 56
$T3 = 56
root$ = 104
u$ = 160
v$ = 168
?dtor$1@?0??PMC_ExclusiveOr_X_X@Internal@Core@Math@Palmtree@@YAPEAU__tag_PMC_HANDLE_UINT@1234@PEAU51234@0@Z@4HA PROC ; `Palmtree::Math::Core::Internal::PMC_ExclusiveOr_X_X'::`1'::dtor$1
  00000	48 8d 8a 38 00
	00 00		 lea	 rcx, QWORD PTR root$1[rdx]
  00007	e9 00 00 00 00	 jmp	 ??1ResourceHolderUINT@Internal@Core@Math@Palmtree@@UEAA@XZ ; Palmtree::Math::Core::Internal::ResourceHolderUINT::~ResourceHolderUINT
?dtor$1@?0??PMC_ExclusiveOr_X_X@Internal@Core@Math@Palmtree@@YAPEAU__tag_PMC_HANDLE_UINT@1234@PEAU51234@0@Z@4HA ENDP ; `Palmtree::Math::Core::Internal::PMC_ExclusiveOr_X_X'::`1'::dtor$1
text$x	ENDS
; Function compile flags: /Ogtpy
;	COMDAT text$x
text$x	SEGMENT
root$1 = 56
$T2 = 56
$T3 = 56
root$ = 104
u$ = 160
v$ = 168
?dtor$0@?0??PMC_ExclusiveOr_X_X@Internal@Core@Math@Palmtree@@YAPEAU__tag_PMC_HANDLE_UINT@1234@PEAU51234@0@Z@4HA PROC ; `Palmtree::Math::Core::Internal::PMC_ExclusiveOr_X_X'::`1'::dtor$0
  00000	48 8d 8a 68 00
	00 00		 lea	 rcx, QWORD PTR root$[rdx]
  00007	e9 00 00 00 00	 jmp	 ??1ResourceHolderUINT@Internal@Core@Math@Palmtree@@UEAA@XZ ; Palmtree::Math::Core::Internal::ResourceHolderUINT::~ResourceHolderUINT
?dtor$0@?0??PMC_ExclusiveOr_X_X@Internal@Core@Math@Palmtree@@YAPEAU__tag_PMC_HANDLE_UINT@1234@PEAU51234@0@Z@4HA ENDP ; `Palmtree::Math::Core::Internal::PMC_ExclusiveOr_X_X'::`1'::dtor$0
text$x	ENDS
; Function compile flags: /Ogtpy
;	COMDAT text$x
text$x	SEGMENT
root$1 = 56
$T2 = 56
$T3 = 56
root$ = 104
u$ = 160
v$ = 168
?dtor$1@?0??PMC_ExclusiveOr_X_X@Internal@Core@Math@Palmtree@@YAPEAU__tag_PMC_HANDLE_UINT@1234@PEAU51234@0@Z@4HA PROC ; `Palmtree::Math::Core::Internal::PMC_ExclusiveOr_X_X'::`1'::dtor$1
  00000	48 8d 8a 38 00
	00 00		 lea	 rcx, QWORD PTR root$1[rdx]
  00007	e9 00 00 00 00	 jmp	 ??1ResourceHolderUINT@Internal@Core@Math@Palmtree@@UEAA@XZ ; Palmtree::Math::Core::Internal::ResourceHolderUINT::~ResourceHolderUINT
?dtor$1@?0??PMC_ExclusiveOr_X_X@Internal@Core@Math@Palmtree@@YAPEAU__tag_PMC_HANDLE_UINT@1234@PEAU51234@0@Z@4HA ENDP ; `Palmtree::Math::Core::Internal::PMC_ExclusiveOr_X_X'::`1'::dtor$1
text$x	ENDS
; Function compile flags: /Ogtpy
; File z:\sources\lunor\repos\rougemeilland\palmtree.math.core.uint\palmtree.math.core.uint\pmc_exclusiveor.cpp
;	COMDAT ?PMC_ExclusiveOr_X_L@Internal@Core@Math@Palmtree@@YAPEAU__tag_PMC_HANDLE_UINT@1234@PEAU51234@_K@Z
_TEXT	SEGMENT
$T1 = 32
root$ = 40
$T2 = 72
u$ = 144
v$ = 152
?PMC_ExclusiveOr_X_L@Internal@Core@Math@Palmtree@@YAPEAU__tag_PMC_HANDLE_UINT@1234@PEAU51234@_K@Z PROC ; Palmtree::Math::Core::Internal::PMC_ExclusiveOr_X_L, COMDAT

; 384  :     {

$LN10:
  00000	40 57		 push	 rdi
  00002	48 81 ec 80 00
	00 00		 sub	 rsp, 128		; 00000080H
  00009	48 c7 44 24 20
	fe ff ff ff	 mov	 QWORD PTR $T1[rsp], -2
  00012	48 89 9c 24 90
	00 00 00	 mov	 QWORD PTR [rsp+144], rbx
  0001a	48 8b fa	 mov	 rdi, rdx
  0001d	48 8b d9	 mov	 rbx, rcx

; 385  :         if (__UNIT_TYPE_BIT_COUNT * 2 < sizeof(v) * 8)
; 386  :         {
; 387  :             // _UINT64_T  2 
; 388  :             throw InternalErrorException(L"", L"pmc_exclusiveor.cpp;PMC_ExclusiveOr_X_L;1");
; 389  :         }
; 390  :         if (u == nullptr)

  00020	48 85 c9	 test	 rcx, rcx
  00023	74 57		 je	 SHORT $LN8@PMC_Exclus

; 392  :         NUMBER_HEADER* nu = (NUMBER_HEADER*)u;
; 393  :         CheckNumber(nu);

  00025	e8 00 00 00 00	 call	 ?CheckNumber@Internal@Core@Math@Palmtree@@YAXPEAU__tag_NUMBER_HEADER@1234@@Z ; Palmtree::Math::Core::Internal::CheckNumber

; 394  :         ResourceHolderUINT root;

  0002a	48 8d 4c 24 28	 lea	 rcx, QWORD PTR root$[rsp]
  0002f	e8 00 00 00 00	 call	 ??0ResourceHolderUINT@Internal@Core@Math@Palmtree@@QEAA@XZ ; Palmtree::Math::Core::Internal::ResourceHolderUINT::ResourceHolderUINT
  00034	90		 npad	 1

; 395  :         NUMBER_HEADER* w = PMC_ExclusiveOr_X_L_Imp(nu, v);

  00035	48 8b d7	 mov	 rdx, rdi
  00038	48 8b cb	 mov	 rcx, rbx
  0003b	e8 00 00 00 00	 call	 ?PMC_ExclusiveOr_X_L_Imp@Internal@Core@Math@Palmtree@@YAPEAU__tag_NUMBER_HEADER@1234@PEAU51234@_K@Z ; Palmtree::Math::Core::Internal::PMC_ExclusiveOr_X_L_Imp
  00040	48 8b d8	 mov	 rbx, rax

; 396  :         root.HookNumber(w);

  00043	48 8b d0	 mov	 rdx, rax
  00046	48 8d 4c 24 28	 lea	 rcx, QWORD PTR root$[rsp]
  0004b	e8 00 00 00 00	 call	 ?HookNumber@ResourceHolderUINT@Internal@Core@Math@Palmtree@@QEAAXPEAU__tag_NUMBER_HEADER@2345@@Z ; Palmtree::Math::Core::Internal::ResourceHolderUINT::HookNumber

; 397  : #ifdef _DEBUG
; 398  :         CheckNumber(w);
; 399  : #endif
; 400  :         root.UnlinkNumber(w);

  00050	48 8b d3	 mov	 rdx, rbx
  00053	48 8d 4c 24 28	 lea	 rcx, QWORD PTR root$[rsp]
  00058	e8 00 00 00 00	 call	 ?UnlinkNumber@ResourceHolderUINT@Internal@Core@Math@Palmtree@@QEAAXPEAU__tag_NUMBER_HEADER@2345@@Z ; Palmtree::Math::Core::Internal::ResourceHolderUINT::UnlinkNumber
  0005d	90		 npad	 1

; 401  :         return ((PMC_HANDLE_UINT)w);

  0005e	48 8d 4c 24 28	 lea	 rcx, QWORD PTR root$[rsp]
  00063	e8 00 00 00 00	 call	 ??1ResourceHolderUINT@Internal@Core@Math@Palmtree@@UEAA@XZ ; Palmtree::Math::Core::Internal::ResourceHolderUINT::~ResourceHolderUINT
  00068	48 8b c3	 mov	 rax, rbx

; 402  :     }

  0006b	48 8b 9c 24 90
	00 00 00	 mov	 rbx, QWORD PTR [rsp+144]
  00073	48 81 c4 80 00
	00 00		 add	 rsp, 128		; 00000080H
  0007a	5f		 pop	 rdi
  0007b	c3		 ret	 0
$LN8@PMC_Exclus:

; 391  :             throw ArgumentNullException(L"nullptr", L"u");

  0007c	4c 8d 05 00 00
	00 00		 lea	 r8, OFFSET FLAT:??_C@_13ICFKHAEN@?$AAu@
  00083	48 8d 15 00 00
	00 00		 lea	 rdx, OFFSET FLAT:??_C@_1CK@ECFIEPAC@?$AA?$BF?$AAp?$AAk?$AAn?$AAu?$AAl?$AAl?$AAp?$AAt?$AAr?$AAL?$AA?$AO?$AAH?$PP?$IJ?$PP?$IM@
  0008a	48 8d 4c 24 48	 lea	 rcx, QWORD PTR $T2[rsp]
  0008f	e8 00 00 00 00	 call	 ??0ArgumentNullException@Internal@Core@Math@Palmtree@@QEAA@PEB_W0@Z ; Palmtree::Math::Core::Internal::ArgumentNullException::ArgumentNullException
  00094	48 8d 15 00 00
	00 00		 lea	 rdx, OFFSET FLAT:_TI2?AVArgumentNullException@Internal@Core@Math@Palmtree@@
  0009b	48 8d 4c 24 48	 lea	 rcx, QWORD PTR $T2[rsp]
  000a0	e8 00 00 00 00	 call	 _CxxThrowException
  000a5	cc		 int	 3
$LN6@PMC_Exclus:
?PMC_ExclusiveOr_X_L@Internal@Core@Math@Palmtree@@YAPEAU__tag_PMC_HANDLE_UINT@1234@PEAU51234@_K@Z ENDP ; Palmtree::Math::Core::Internal::PMC_ExclusiveOr_X_L
_TEXT	ENDS
;	COMDAT text$x
text$x	SEGMENT
$T1 = 32
root$ = 40
$T2 = 72
u$ = 144
v$ = 152
?dtor$0@?0??PMC_ExclusiveOr_X_L@Internal@Core@Math@Palmtree@@YAPEAU__tag_PMC_HANDLE_UINT@1234@PEAU51234@_K@Z@4HA PROC ; `Palmtree::Math::Core::Internal::PMC_ExclusiveOr_X_L'::`1'::dtor$0
  00000	48 8d 8a 28 00
	00 00		 lea	 rcx, QWORD PTR root$[rdx]
  00007	e9 00 00 00 00	 jmp	 ??1ResourceHolderUINT@Internal@Core@Math@Palmtree@@UEAA@XZ ; Palmtree::Math::Core::Internal::ResourceHolderUINT::~ResourceHolderUINT
?dtor$0@?0??PMC_ExclusiveOr_X_L@Internal@Core@Math@Palmtree@@YAPEAU__tag_PMC_HANDLE_UINT@1234@PEAU51234@_K@Z@4HA ENDP ; `Palmtree::Math::Core::Internal::PMC_ExclusiveOr_X_L'::`1'::dtor$0
text$x	ENDS
; Function compile flags: /Ogtpy
;	COMDAT text$x
text$x	SEGMENT
$T1 = 32
root$ = 40
$T2 = 72
u$ = 144
v$ = 152
?dtor$0@?0??PMC_ExclusiveOr_X_L@Internal@Core@Math@Palmtree@@YAPEAU__tag_PMC_HANDLE_UINT@1234@PEAU51234@_K@Z@4HA PROC ; `Palmtree::Math::Core::Internal::PMC_ExclusiveOr_X_L'::`1'::dtor$0
  00000	48 8d 8a 28 00
	00 00		 lea	 rcx, QWORD PTR root$[rdx]
  00007	e9 00 00 00 00	 jmp	 ??1ResourceHolderUINT@Internal@Core@Math@Palmtree@@UEAA@XZ ; Palmtree::Math::Core::Internal::ResourceHolderUINT::~ResourceHolderUINT
?dtor$0@?0??PMC_ExclusiveOr_X_L@Internal@Core@Math@Palmtree@@YAPEAU__tag_PMC_HANDLE_UINT@1234@PEAU51234@_K@Z@4HA ENDP ; `Palmtree::Math::Core::Internal::PMC_ExclusiveOr_X_L'::`1'::dtor$0
text$x	ENDS
; Function compile flags: /Ogtpy
; File z:\sources\lunor\repos\rougemeilland\palmtree.math.core.uint\palmtree.math.core.uint\pmc_exclusiveor.cpp
;	COMDAT ?PMC_ExclusiveOr_X_I@Internal@Core@Math@Palmtree@@YAPEAU__tag_PMC_HANDLE_UINT@1234@PEAU51234@I@Z
_TEXT	SEGMENT
$T1 = 32
root$ = 40
$T2 = 72
u$ = 144
v$ = 152
?PMC_ExclusiveOr_X_I@Internal@Core@Math@Palmtree@@YAPEAU__tag_PMC_HANDLE_UINT@1234@PEAU51234@I@Z PROC ; Palmtree::Math::Core::Internal::PMC_ExclusiveOr_X_I, COMDAT

; 250  :     {

$LN10:
  00000	40 57		 push	 rdi
  00002	48 81 ec 80 00
	00 00		 sub	 rsp, 128		; 00000080H
  00009	48 c7 44 24 20
	fe ff ff ff	 mov	 QWORD PTR $T1[rsp], -2
  00012	48 89 9c 24 90
	00 00 00	 mov	 QWORD PTR [rsp+144], rbx
  0001a	8b fa		 mov	 edi, edx
  0001c	48 8b d9	 mov	 rbx, rcx

; 251  :         if (__UNIT_TYPE_BIT_COUNT < sizeof(v) * 8)
; 252  :         {
; 253  :             // _UINT32_T  1 
; 254  :             throw InternalErrorException(L"", L"pmc_exclusiveor.cpp;PMC_ExclusiveOr_X_I;1");
; 255  :         }
; 256  :         if (u == nullptr)

  0001f	48 85 c9	 test	 rcx, rcx
  00022	74 56		 je	 SHORT $LN8@PMC_Exclus

; 258  :         NUMBER_HEADER* nu = (NUMBER_HEADER*)u;
; 259  :         CheckNumber(nu);

  00024	e8 00 00 00 00	 call	 ?CheckNumber@Internal@Core@Math@Palmtree@@YAXPEAU__tag_NUMBER_HEADER@1234@@Z ; Palmtree::Math::Core::Internal::CheckNumber

; 260  :         ResourceHolderUINT root;

  00029	48 8d 4c 24 28	 lea	 rcx, QWORD PTR root$[rsp]
  0002e	e8 00 00 00 00	 call	 ??0ResourceHolderUINT@Internal@Core@Math@Palmtree@@QEAA@XZ ; Palmtree::Math::Core::Internal::ResourceHolderUINT::ResourceHolderUINT
  00033	90		 npad	 1

; 261  :         NUMBER_HEADER* w = PMC_ExclusiveOr_X_I_Imp(nu, v);

  00034	8b d7		 mov	 edx, edi
  00036	48 8b cb	 mov	 rcx, rbx
  00039	e8 00 00 00 00	 call	 ?PMC_ExclusiveOr_X_I_Imp@Internal@Core@Math@Palmtree@@YAPEAU__tag_NUMBER_HEADER@1234@PEAU51234@I@Z ; Palmtree::Math::Core::Internal::PMC_ExclusiveOr_X_I_Imp
  0003e	48 8b d8	 mov	 rbx, rax

; 262  :         root.HookNumber(w);

  00041	48 8b d0	 mov	 rdx, rax
  00044	48 8d 4c 24 28	 lea	 rcx, QWORD PTR root$[rsp]
  00049	e8 00 00 00 00	 call	 ?HookNumber@ResourceHolderUINT@Internal@Core@Math@Palmtree@@QEAAXPEAU__tag_NUMBER_HEADER@2345@@Z ; Palmtree::Math::Core::Internal::ResourceHolderUINT::HookNumber

; 263  : #ifdef _DEBUG
; 264  :         CheckNumber(w);
; 265  : #endif
; 266  :         root.UnlinkNumber(w);

  0004e	48 8b d3	 mov	 rdx, rbx
  00051	48 8d 4c 24 28	 lea	 rcx, QWORD PTR root$[rsp]
  00056	e8 00 00 00 00	 call	 ?UnlinkNumber@ResourceHolderUINT@Internal@Core@Math@Palmtree@@QEAAXPEAU__tag_NUMBER_HEADER@2345@@Z ; Palmtree::Math::Core::Internal::ResourceHolderUINT::UnlinkNumber
  0005b	90		 npad	 1

; 267  :         return ((PMC_HANDLE_UINT)w);

  0005c	48 8d 4c 24 28	 lea	 rcx, QWORD PTR root$[rsp]
  00061	e8 00 00 00 00	 call	 ??1ResourceHolderUINT@Internal@Core@Math@Palmtree@@UEAA@XZ ; Palmtree::Math::Core::Internal::ResourceHolderUINT::~ResourceHolderUINT
  00066	48 8b c3	 mov	 rax, rbx

; 268  :     }

  00069	48 8b 9c 24 90
	00 00 00	 mov	 rbx, QWORD PTR [rsp+144]
  00071	48 81 c4 80 00
	00 00		 add	 rsp, 128		; 00000080H
  00078	5f		 pop	 rdi
  00079	c3		 ret	 0
$LN8@PMC_Exclus:

; 257  :             throw ArgumentNullException(L"nullptr", L"u");

  0007a	4c 8d 05 00 00
	00 00		 lea	 r8, OFFSET FLAT:??_C@_13ICFKHAEN@?$AAu@
  00081	48 8d 15 00 00
	00 00		 lea	 rdx, OFFSET FLAT:??_C@_1CK@ECFIEPAC@?$AA?$BF?$AAp?$AAk?$AAn?$AAu?$AAl?$AAl?$AAp?$AAt?$AAr?$AAL?$AA?$AO?$AAH?$PP?$IJ?$PP?$IM@
  00088	48 8d 4c 24 48	 lea	 rcx, QWORD PTR $T2[rsp]
  0008d	e8 00 00 00 00	 call	 ??0ArgumentNullException@Internal@Core@Math@Palmtree@@QEAA@PEB_W0@Z ; Palmtree::Math::Core::Internal::ArgumentNullException::ArgumentNullException
  00092	48 8d 15 00 00
	00 00		 lea	 rdx, OFFSET FLAT:_TI2?AVArgumentNullException@Internal@Core@Math@Palmtree@@
  00099	48 8d 4c 24 48	 lea	 rcx, QWORD PTR $T2[rsp]
  0009e	e8 00 00 00 00	 call	 _CxxThrowException
  000a3	cc		 int	 3
$LN6@PMC_Exclus:
?PMC_ExclusiveOr_X_I@Internal@Core@Math@Palmtree@@YAPEAU__tag_PMC_HANDLE_UINT@1234@PEAU51234@I@Z ENDP ; Palmtree::Math::Core::Internal::PMC_ExclusiveOr_X_I
_TEXT	ENDS
;	COMDAT text$x
text$x	SEGMENT
$T1 = 32
root$ = 40
$T2 = 72
u$ = 144
v$ = 152
?dtor$0@?0??PMC_ExclusiveOr_X_I@Internal@Core@Math@Palmtree@@YAPEAU__tag_PMC_HANDLE_UINT@1234@PEAU51234@I@Z@4HA PROC ; `Palmtree::Math::Core::Internal::PMC_ExclusiveOr_X_I'::`1'::dtor$0
  00000	48 8d 8a 28 00
	00 00		 lea	 rcx, QWORD PTR root$[rdx]
  00007	e9 00 00 00 00	 jmp	 ??1ResourceHolderUINT@Internal@Core@Math@Palmtree@@UEAA@XZ ; Palmtree::Math::Core::Internal::ResourceHolderUINT::~ResourceHolderUINT
?dtor$0@?0??PMC_ExclusiveOr_X_I@Internal@Core@Math@Palmtree@@YAPEAU__tag_PMC_HANDLE_UINT@1234@PEAU51234@I@Z@4HA ENDP ; `Palmtree::Math::Core::Internal::PMC_ExclusiveOr_X_I'::`1'::dtor$0
text$x	ENDS
; Function compile flags: /Ogtpy
;	COMDAT text$x
text$x	SEGMENT
$T1 = 32
root$ = 40
$T2 = 72
u$ = 144
v$ = 152
?dtor$0@?0??PMC_ExclusiveOr_X_I@Internal@Core@Math@Palmtree@@YAPEAU__tag_PMC_HANDLE_UINT@1234@PEAU51234@I@Z@4HA PROC ; `Palmtree::Math::Core::Internal::PMC_ExclusiveOr_X_I'::`1'::dtor$0
  00000	48 8d 8a 28 00
	00 00		 lea	 rcx, QWORD PTR root$[rdx]
  00007	e9 00 00 00 00	 jmp	 ??1ResourceHolderUINT@Internal@Core@Math@Palmtree@@UEAA@XZ ; Palmtree::Math::Core::Internal::ResourceHolderUINT::~ResourceHolderUINT
?dtor$0@?0??PMC_ExclusiveOr_X_I@Internal@Core@Math@Palmtree@@YAPEAU__tag_PMC_HANDLE_UINT@1234@PEAU51234@I@Z@4HA ENDP ; `Palmtree::Math::Core::Internal::PMC_ExclusiveOr_X_I'::`1'::dtor$0
text$x	ENDS
; Function compile flags: /Ogtpy
; File z:\sources\lunor\repos\rougemeilland\palmtree.math.core.uint\palmtree.math.core.uint\pmc_exclusiveor.cpp
;	COMDAT ?PMC_ExclusiveOr_L_X@Internal@Core@Math@Palmtree@@YAPEAU__tag_PMC_HANDLE_UINT@1234@_KPEAU51234@@Z
_TEXT	SEGMENT
$T1 = 32
root$ = 40
$T2 = 72
u$ = 144
v$ = 152
?PMC_ExclusiveOr_L_X@Internal@Core@Math@Palmtree@@YAPEAU__tag_PMC_HANDLE_UINT@1234@_KPEAU51234@@Z PROC ; Palmtree::Math::Core::Internal::PMC_ExclusiveOr_L_X, COMDAT

; 363  :     {

$LN10:
  00000	40 57		 push	 rdi
  00002	48 81 ec 80 00
	00 00		 sub	 rsp, 128		; 00000080H
  00009	48 c7 44 24 20
	fe ff ff ff	 mov	 QWORD PTR $T1[rsp], -2
  00012	48 89 9c 24 90
	00 00 00	 mov	 QWORD PTR [rsp+144], rbx
  0001a	48 8b da	 mov	 rbx, rdx
  0001d	48 8b f9	 mov	 rdi, rcx

; 364  :         if (__UNIT_TYPE_BIT_COUNT * 2 < sizeof(u) * 8)
; 365  :         {
; 366  :             // _UINT64_T  2 
; 367  :             throw InternalErrorException(L"", L"pmc_exclusiveor.cpp;PMC_ExclusiveOr_L_X;1");
; 368  :         }
; 369  :         if (v == nullptr)

  00020	48 85 d2	 test	 rdx, rdx
  00023	74 5a		 je	 SHORT $LN8@PMC_Exclus

; 371  :         NUMBER_HEADER* nv = (NUMBER_HEADER*)v;
; 372  :         CheckNumber(nv);

  00025	48 8b ca	 mov	 rcx, rdx
  00028	e8 00 00 00 00	 call	 ?CheckNumber@Internal@Core@Math@Palmtree@@YAXPEAU__tag_NUMBER_HEADER@1234@@Z ; Palmtree::Math::Core::Internal::CheckNumber

; 373  :         ResourceHolderUINT root;

  0002d	48 8d 4c 24 28	 lea	 rcx, QWORD PTR root$[rsp]
  00032	e8 00 00 00 00	 call	 ??0ResourceHolderUINT@Internal@Core@Math@Palmtree@@QEAA@XZ ; Palmtree::Math::Core::Internal::ResourceHolderUINT::ResourceHolderUINT
  00037	90		 npad	 1

; 374  :         NUMBER_HEADER* w = PMC_ExclusiveOr_X_L_Imp(nv, u);

  00038	48 8b d7	 mov	 rdx, rdi
  0003b	48 8b cb	 mov	 rcx, rbx
  0003e	e8 00 00 00 00	 call	 ?PMC_ExclusiveOr_X_L_Imp@Internal@Core@Math@Palmtree@@YAPEAU__tag_NUMBER_HEADER@1234@PEAU51234@_K@Z ; Palmtree::Math::Core::Internal::PMC_ExclusiveOr_X_L_Imp
  00043	48 8b d8	 mov	 rbx, rax

; 375  :         root.HookNumber(w);

  00046	48 8b d0	 mov	 rdx, rax
  00049	48 8d 4c 24 28	 lea	 rcx, QWORD PTR root$[rsp]
  0004e	e8 00 00 00 00	 call	 ?HookNumber@ResourceHolderUINT@Internal@Core@Math@Palmtree@@QEAAXPEAU__tag_NUMBER_HEADER@2345@@Z ; Palmtree::Math::Core::Internal::ResourceHolderUINT::HookNumber

; 376  : #ifdef _DEBUG
; 377  :         CheckNumber(w);
; 378  : #endif
; 379  :         root.UnlinkNumber(w);

  00053	48 8b d3	 mov	 rdx, rbx
  00056	48 8d 4c 24 28	 lea	 rcx, QWORD PTR root$[rsp]
  0005b	e8 00 00 00 00	 call	 ?UnlinkNumber@ResourceHolderUINT@Internal@Core@Math@Palmtree@@QEAAXPEAU__tag_NUMBER_HEADER@2345@@Z ; Palmtree::Math::Core::Internal::ResourceHolderUINT::UnlinkNumber
  00060	90		 npad	 1

; 380  :         return ((PMC_HANDLE_UINT)w);

  00061	48 8d 4c 24 28	 lea	 rcx, QWORD PTR root$[rsp]
  00066	e8 00 00 00 00	 call	 ??1ResourceHolderUINT@Internal@Core@Math@Palmtree@@UEAA@XZ ; Palmtree::Math::Core::Internal::ResourceHolderUINT::~ResourceHolderUINT
  0006b	48 8b c3	 mov	 rax, rbx

; 381  :     }

  0006e	48 8b 9c 24 90
	00 00 00	 mov	 rbx, QWORD PTR [rsp+144]
  00076	48 81 c4 80 00
	00 00		 add	 rsp, 128		; 00000080H
  0007d	5f		 pop	 rdi
  0007e	c3		 ret	 0
$LN8@PMC_Exclus:

; 370  :             throw ArgumentNullException(L"nullptr", L"v");

  0007f	4c 8d 05 00 00
	00 00		 lea	 r8, OFFSET FLAT:??_C@_13JAOPNPKD@?$AAv@
  00086	48 8d 15 00 00
	00 00		 lea	 rdx, OFFSET FLAT:??_C@_1CK@ECFIEPAC@?$AA?$BF?$AAp?$AAk?$AAn?$AAu?$AAl?$AAl?$AAp?$AAt?$AAr?$AAL?$AA?$AO?$AAH?$PP?$IJ?$PP?$IM@
  0008d	48 8d 4c 24 48	 lea	 rcx, QWORD PTR $T2[rsp]
  00092	e8 00 00 00 00	 call	 ??0ArgumentNullException@Internal@Core@Math@Palmtree@@QEAA@PEB_W0@Z ; Palmtree::Math::Core::Internal::ArgumentNullException::ArgumentNullException
  00097	48 8d 15 00 00
	00 00		 lea	 rdx, OFFSET FLAT:_TI2?AVArgumentNullException@Internal@Core@Math@Palmtree@@
  0009e	48 8d 4c 24 48	 lea	 rcx, QWORD PTR $T2[rsp]
  000a3	e8 00 00 00 00	 call	 _CxxThrowException
  000a8	cc		 int	 3
$LN6@PMC_Exclus:
?PMC_ExclusiveOr_L_X@Internal@Core@Math@Palmtree@@YAPEAU__tag_PMC_HANDLE_UINT@1234@_KPEAU51234@@Z ENDP ; Palmtree::Math::Core::Internal::PMC_ExclusiveOr_L_X
_TEXT	ENDS
;	COMDAT text$x
text$x	SEGMENT
$T1 = 32
root$ = 40
$T2 = 72
u$ = 144
v$ = 152
?dtor$0@?0??PMC_ExclusiveOr_L_X@Internal@Core@Math@Palmtree@@YAPEAU__tag_PMC_HANDLE_UINT@1234@_KPEAU51234@@Z@4HA PROC ; `Palmtree::Math::Core::Internal::PMC_ExclusiveOr_L_X'::`1'::dtor$0
  00000	48 8d 8a 28 00
	00 00		 lea	 rcx, QWORD PTR root$[rdx]
  00007	e9 00 00 00 00	 jmp	 ??1ResourceHolderUINT@Internal@Core@Math@Palmtree@@UEAA@XZ ; Palmtree::Math::Core::Internal::ResourceHolderUINT::~ResourceHolderUINT
?dtor$0@?0??PMC_ExclusiveOr_L_X@Internal@Core@Math@Palmtree@@YAPEAU__tag_PMC_HANDLE_UINT@1234@_KPEAU51234@@Z@4HA ENDP ; `Palmtree::Math::Core::Internal::PMC_ExclusiveOr_L_X'::`1'::dtor$0
text$x	ENDS
; Function compile flags: /Ogtpy
;	COMDAT text$x
text$x	SEGMENT
$T1 = 32
root$ = 40
$T2 = 72
u$ = 144
v$ = 152
?dtor$0@?0??PMC_ExclusiveOr_L_X@Internal@Core@Math@Palmtree@@YAPEAU__tag_PMC_HANDLE_UINT@1234@_KPEAU51234@@Z@4HA PROC ; `Palmtree::Math::Core::Internal::PMC_ExclusiveOr_L_X'::`1'::dtor$0
  00000	48 8d 8a 28 00
	00 00		 lea	 rcx, QWORD PTR root$[rdx]
  00007	e9 00 00 00 00	 jmp	 ??1ResourceHolderUINT@Internal@Core@Math@Palmtree@@UEAA@XZ ; Palmtree::Math::Core::Internal::ResourceHolderUINT::~ResourceHolderUINT
?dtor$0@?0??PMC_ExclusiveOr_L_X@Internal@Core@Math@Palmtree@@YAPEAU__tag_PMC_HANDLE_UINT@1234@_KPEAU51234@@Z@4HA ENDP ; `Palmtree::Math::Core::Internal::PMC_ExclusiveOr_L_X'::`1'::dtor$0
text$x	ENDS
; Function compile flags: /Ogtpy
; File z:\sources\lunor\repos\rougemeilland\palmtree.math.core.uint\palmtree.math.core.uint\pmc_exclusiveor.cpp
;	COMDAT ?PMC_ExclusiveOr_I_X@Internal@Core@Math@Palmtree@@YAPEAU__tag_PMC_HANDLE_UINT@1234@IPEAU51234@@Z
_TEXT	SEGMENT
$T1 = 32
root$ = 40
$T2 = 72
u$ = 144
v$ = 152
?PMC_ExclusiveOr_I_X@Internal@Core@Math@Palmtree@@YAPEAU__tag_PMC_HANDLE_UINT@1234@IPEAU51234@@Z PROC ; Palmtree::Math::Core::Internal::PMC_ExclusiveOr_I_X, COMDAT

; 229  :     {

$LN10:
  00000	40 57		 push	 rdi
  00002	48 81 ec 80 00
	00 00		 sub	 rsp, 128		; 00000080H
  00009	48 c7 44 24 20
	fe ff ff ff	 mov	 QWORD PTR $T1[rsp], -2
  00012	48 89 9c 24 90
	00 00 00	 mov	 QWORD PTR [rsp+144], rbx
  0001a	48 8b da	 mov	 rbx, rdx
  0001d	8b f9		 mov	 edi, ecx

; 230  :         if (__UNIT_TYPE_BIT_COUNT < sizeof(u) * 8)
; 231  :         {
; 232  :             // _UINT32_T  1 
; 233  :             throw InternalErrorException(L"", L"pmc_exclusiveor.cpp;PMC_ExclusiveOr_I_X;1");
; 234  :         }
; 235  :         if (v == nullptr)

  0001f	48 85 d2	 test	 rdx, rdx
  00022	74 59		 je	 SHORT $LN8@PMC_Exclus

; 237  :         NUMBER_HEADER* nv = (NUMBER_HEADER*)v;
; 238  :         CheckNumber(nv);

  00024	48 8b ca	 mov	 rcx, rdx
  00027	e8 00 00 00 00	 call	 ?CheckNumber@Internal@Core@Math@Palmtree@@YAXPEAU__tag_NUMBER_HEADER@1234@@Z ; Palmtree::Math::Core::Internal::CheckNumber

; 239  :         ResourceHolderUINT root;

  0002c	48 8d 4c 24 28	 lea	 rcx, QWORD PTR root$[rsp]
  00031	e8 00 00 00 00	 call	 ??0ResourceHolderUINT@Internal@Core@Math@Palmtree@@QEAA@XZ ; Palmtree::Math::Core::Internal::ResourceHolderUINT::ResourceHolderUINT
  00036	90		 npad	 1

; 240  :         NUMBER_HEADER* w = PMC_ExclusiveOr_X_I_Imp(nv, u);

  00037	8b d7		 mov	 edx, edi
  00039	48 8b cb	 mov	 rcx, rbx
  0003c	e8 00 00 00 00	 call	 ?PMC_ExclusiveOr_X_I_Imp@Internal@Core@Math@Palmtree@@YAPEAU__tag_NUMBER_HEADER@1234@PEAU51234@I@Z ; Palmtree::Math::Core::Internal::PMC_ExclusiveOr_X_I_Imp
  00041	48 8b d8	 mov	 rbx, rax

; 241  :         root.HookNumber(w);

  00044	48 8b d0	 mov	 rdx, rax
  00047	48 8d 4c 24 28	 lea	 rcx, QWORD PTR root$[rsp]
  0004c	e8 00 00 00 00	 call	 ?HookNumber@ResourceHolderUINT@Internal@Core@Math@Palmtree@@QEAAXPEAU__tag_NUMBER_HEADER@2345@@Z ; Palmtree::Math::Core::Internal::ResourceHolderUINT::HookNumber

; 242  : #ifdef _DEBUG
; 243  :         CheckNumber(w);
; 244  : #endif
; 245  :         root.UnlinkNumber(w);

  00051	48 8b d3	 mov	 rdx, rbx
  00054	48 8d 4c 24 28	 lea	 rcx, QWORD PTR root$[rsp]
  00059	e8 00 00 00 00	 call	 ?UnlinkNumber@ResourceHolderUINT@Internal@Core@Math@Palmtree@@QEAAXPEAU__tag_NUMBER_HEADER@2345@@Z ; Palmtree::Math::Core::Internal::ResourceHolderUINT::UnlinkNumber
  0005e	90		 npad	 1

; 246  :         return ((PMC_HANDLE_UINT)w);

  0005f	48 8d 4c 24 28	 lea	 rcx, QWORD PTR root$[rsp]
  00064	e8 00 00 00 00	 call	 ??1ResourceHolderUINT@Internal@Core@Math@Palmtree@@UEAA@XZ ; Palmtree::Math::Core::Internal::ResourceHolderUINT::~ResourceHolderUINT
  00069	48 8b c3	 mov	 rax, rbx

; 247  :     }

  0006c	48 8b 9c 24 90
	00 00 00	 mov	 rbx, QWORD PTR [rsp+144]
  00074	48 81 c4 80 00
	00 00		 add	 rsp, 128		; 00000080H
  0007b	5f		 pop	 rdi
  0007c	c3		 ret	 0
$LN8@PMC_Exclus:

; 236  :             throw ArgumentNullException(L"nullptr", L"v");

  0007d	4c 8d 05 00 00
	00 00		 lea	 r8, OFFSET FLAT:??_C@_13JAOPNPKD@?$AAv@
  00084	48 8d 15 00 00
	00 00		 lea	 rdx, OFFSET FLAT:??_C@_1CK@ECFIEPAC@?$AA?$BF?$AAp?$AAk?$AAn?$AAu?$AAl?$AAl?$AAp?$AAt?$AAr?$AAL?$AA?$AO?$AAH?$PP?$IJ?$PP?$IM@
  0008b	48 8d 4c 24 48	 lea	 rcx, QWORD PTR $T2[rsp]
  00090	e8 00 00 00 00	 call	 ??0ArgumentNullException@Internal@Core@Math@Palmtree@@QEAA@PEB_W0@Z ; Palmtree::Math::Core::Internal::ArgumentNullException::ArgumentNullException
  00095	48 8d 15 00 00
	00 00		 lea	 rdx, OFFSET FLAT:_TI2?AVArgumentNullException@Internal@Core@Math@Palmtree@@
  0009c	48 8d 4c 24 48	 lea	 rcx, QWORD PTR $T2[rsp]
  000a1	e8 00 00 00 00	 call	 _CxxThrowException
  000a6	cc		 int	 3
$LN6@PMC_Exclus:
?PMC_ExclusiveOr_I_X@Internal@Core@Math@Palmtree@@YAPEAU__tag_PMC_HANDLE_UINT@1234@IPEAU51234@@Z ENDP ; Palmtree::Math::Core::Internal::PMC_ExclusiveOr_I_X
_TEXT	ENDS
;	COMDAT text$x
text$x	SEGMENT
$T1 = 32
root$ = 40
$T2 = 72
u$ = 144
v$ = 152
?dtor$0@?0??PMC_ExclusiveOr_I_X@Internal@Core@Math@Palmtree@@YAPEAU__tag_PMC_HANDLE_UINT@1234@IPEAU51234@@Z@4HA PROC ; `Palmtree::Math::Core::Internal::PMC_ExclusiveOr_I_X'::`1'::dtor$0
  00000	48 8d 8a 28 00
	00 00		 lea	 rcx, QWORD PTR root$[rdx]
  00007	e9 00 00 00 00	 jmp	 ??1ResourceHolderUINT@Internal@Core@Math@Palmtree@@UEAA@XZ ; Palmtree::Math::Core::Internal::ResourceHolderUINT::~ResourceHolderUINT
?dtor$0@?0??PMC_ExclusiveOr_I_X@Internal@Core@Math@Palmtree@@YAPEAU__tag_PMC_HANDLE_UINT@1234@IPEAU51234@@Z@4HA ENDP ; `Palmtree::Math::Core::Internal::PMC_ExclusiveOr_I_X'::`1'::dtor$0
text$x	ENDS
; Function compile flags: /Ogtpy
;	COMDAT text$x
text$x	SEGMENT
$T1 = 32
root$ = 40
$T2 = 72
u$ = 144
v$ = 152
?dtor$0@?0??PMC_ExclusiveOr_I_X@Internal@Core@Math@Palmtree@@YAPEAU__tag_PMC_HANDLE_UINT@1234@IPEAU51234@@Z@4HA PROC ; `Palmtree::Math::Core::Internal::PMC_ExclusiveOr_I_X'::`1'::dtor$0
  00000	48 8d 8a 28 00
	00 00		 lea	 rcx, QWORD PTR root$[rdx]
  00007	e9 00 00 00 00	 jmp	 ??1ResourceHolderUINT@Internal@Core@Math@Palmtree@@UEAA@XZ ; Palmtree::Math::Core::Internal::ResourceHolderUINT::~ResourceHolderUINT
?dtor$0@?0??PMC_ExclusiveOr_I_X@Internal@Core@Math@Palmtree@@YAPEAU__tag_PMC_HANDLE_UINT@1234@IPEAU51234@@Z@4HA ENDP ; `Palmtree::Math::Core::Internal::PMC_ExclusiveOr_I_X'::`1'::dtor$0
text$x	ENDS
; Function compile flags: /Ogtpy
; File z:\sources\lunor\repos\rougemeilland\palmtree.math.core.uint\palmtree.math.core.uint\pmc_exclusiveor.cpp
;	COMDAT ?Initialize_ExclusiveOr@Internal@Core@Math@Palmtree@@YAHPEAU_tag_PROCESSOR_FEATURES@1234@@Z
_TEXT	SEGMENT
feature$ = 8
?Initialize_ExclusiveOr@Internal@Core@Math@Palmtree@@YAHPEAU_tag_PROCESSOR_FEATURES@1234@@Z PROC ; Palmtree::Math::Core::Internal::Initialize_ExclusiveOr, COMDAT

; 459  :         return (PMC_STATUS_OK);

  00000	33 c0		 xor	 eax, eax

; 460  :     }

  00002	c3		 ret	 0
?Initialize_ExclusiveOr@Internal@Core@Math@Palmtree@@YAHPEAU_tag_PROCESSOR_FEATURES@1234@@Z ENDP ; Palmtree::Math::Core::Internal::Initialize_ExclusiveOr
_TEXT	ENDS
; Function compile flags: /Ogtpy
; File z:\sources\lunor\repos\rougemeilland\palmtree.math.core.uint\palmtree.math.core.uint\pmc_exception.h
; File c:\program files (x86)\microsoft visual studio\2017\community\vc\tools\msvc\14.16.27023\include\vcruntime_exception.h
;	COMDAT ??_GInternalErrorException@Internal@Core@Math@Palmtree@@UEAAPEAXI@Z
_TEXT	SEGMENT
$T1 = 32
this$ = 64
__flags$ = 72
??_GInternalErrorException@Internal@Core@Math@Palmtree@@UEAAPEAXI@Z PROC ; Palmtree::Math::Core::Internal::InternalErrorException::`scalar deleting destructor', COMDAT
$LN15:
  00000	48 89 4c 24 08	 mov	 QWORD PTR [rsp+8], rcx
  00005	57		 push	 rdi
  00006	48 83 ec 30	 sub	 rsp, 48			; 00000030H
  0000a	48 c7 44 24 20
	fe ff ff ff	 mov	 QWORD PTR $T1[rsp], -2
  00013	48 89 5c 24 48	 mov	 QWORD PTR [rsp+72], rbx
  00018	8b da		 mov	 ebx, edx
  0001a	48 8b f9	 mov	 rdi, rcx
; File z:\sources\lunor\repos\rougemeilland\palmtree.math.core.uint\palmtree.math.core.uint\pmc_exception.h

; 295  :         {

  0001d	48 8d 05 00 00
	00 00		 lea	 rax, OFFSET FLAT:??_7InternalErrorException@Internal@Core@Math@Palmtree@@6B@
  00024	48 89 01	 mov	 QWORD PTR [rcx], rax

; 70   :         {

  00027	48 8d 05 00 00
	00 00		 lea	 rax, OFFSET FLAT:??_7Exception@Internal@Core@Math@Palmtree@@6B@
  0002e	48 89 01	 mov	 QWORD PTR [rcx], rax
; File c:\program files (x86)\microsoft visual studio\2017\community\vc\tools\msvc\14.16.27023\include\vcruntime_exception.h

; 85   :     {

  00031	48 8d 05 00 00
	00 00		 lea	 rax, OFFSET FLAT:??_7exception@std@@6B@
  00038	48 89 01	 mov	 QWORD PTR [rcx], rax

; 86   :         __std_exception_destroy(&_Data);

  0003b	48 83 c1 08	 add	 rcx, 8
  0003f	e8 00 00 00 00	 call	 __std_exception_destroy
  00044	90		 npad	 1
  00045	f6 c3 01	 test	 bl, 1
  00048	74 0e		 je	 SHORT $LN12@scalar
  0004a	ba 30 00 00 00	 mov	 edx, 48			; 00000030H
  0004f	48 8b cf	 mov	 rcx, rdi
  00052	e8 00 00 00 00	 call	 ??3@YAXPEAX_K@Z		; operator delete
  00057	90		 npad	 1
$LN12@scalar:
  00058	48 8b c7	 mov	 rax, rdi
  0005b	48 8b 5c 24 48	 mov	 rbx, QWORD PTR [rsp+72]
  00060	48 83 c4 30	 add	 rsp, 48			; 00000030H
  00064	5f		 pop	 rdi
  00065	c3		 ret	 0
??_GInternalErrorException@Internal@Core@Math@Palmtree@@UEAAPEAXI@Z ENDP ; Palmtree::Math::Core::Internal::InternalErrorException::`scalar deleting destructor'
_TEXT	ENDS
;	COMDAT text$x
text$x	SEGMENT
$T1 = 32
this$ = 64
__flags$ = 72
?dtor$0@?0???_GInternalErrorException@Internal@Core@Math@Palmtree@@UEAAPEAXI@Z@4HA PROC ; `Palmtree::Math::Core::Internal::InternalErrorException::`scalar deleting destructor''::`1'::dtor$0
  00000	48 8b 8a 40 00
	00 00		 mov	 rcx, QWORD PTR this$[rdx]
  00007	e9 00 00 00 00	 jmp	 ??1Exception@Internal@Core@Math@Palmtree@@UEAA@XZ ; Palmtree::Math::Core::Internal::Exception::~Exception
?dtor$0@?0???_GInternalErrorException@Internal@Core@Math@Palmtree@@UEAAPEAXI@Z@4HA ENDP ; `Palmtree::Math::Core::Internal::InternalErrorException::`scalar deleting destructor''::`1'::dtor$0
text$x	ENDS
;	COMDAT text$x
text$x	SEGMENT
$T1 = 32
this$ = 64
__flags$ = 72
?dtor$1@?0???_GInternalErrorException@Internal@Core@Math@Palmtree@@UEAAPEAXI@Z@4HA PROC ; `Palmtree::Math::Core::Internal::InternalErrorException::`scalar deleting destructor''::`1'::dtor$1
  00000	48 8b 8a 40 00
	00 00		 mov	 rcx, QWORD PTR this$[rdx]
  00007	e9 00 00 00 00	 jmp	 ??1exception@std@@UEAA@XZ ; std::exception::~exception
?dtor$1@?0???_GInternalErrorException@Internal@Core@Math@Palmtree@@UEAAPEAXI@Z@4HA ENDP ; `Palmtree::Math::Core::Internal::InternalErrorException::`scalar deleting destructor''::`1'::dtor$1
text$x	ENDS
; Function compile flags: /Ogtpy
;	COMDAT text$x
text$x	SEGMENT
$T1 = 32
this$ = 64
__flags$ = 72
?dtor$0@?0???_GInternalErrorException@Internal@Core@Math@Palmtree@@UEAAPEAXI@Z@4HA PROC ; `Palmtree::Math::Core::Internal::InternalErrorException::`scalar deleting destructor''::`1'::dtor$0
  00000	48 8b 8a 40 00
	00 00		 mov	 rcx, QWORD PTR this$[rdx]
  00007	e9 00 00 00 00	 jmp	 ??1Exception@Internal@Core@Math@Palmtree@@UEAA@XZ ; Palmtree::Math::Core::Internal::Exception::~Exception
?dtor$0@?0???_GInternalErrorException@Internal@Core@Math@Palmtree@@UEAAPEAXI@Z@4HA ENDP ; `Palmtree::Math::Core::Internal::InternalErrorException::`scalar deleting destructor''::`1'::dtor$0
text$x	ENDS
; Function compile flags: /Ogtpy
;	COMDAT text$x
text$x	SEGMENT
$T1 = 32
this$ = 64
__flags$ = 72
?dtor$1@?0???_GInternalErrorException@Internal@Core@Math@Palmtree@@UEAAPEAXI@Z@4HA PROC ; `Palmtree::Math::Core::Internal::InternalErrorException::`scalar deleting destructor''::`1'::dtor$1
  00000	48 8b 8a 40 00
	00 00		 mov	 rcx, QWORD PTR this$[rdx]
  00007	e9 00 00 00 00	 jmp	 ??1exception@std@@UEAA@XZ ; std::exception::~exception
?dtor$1@?0???_GInternalErrorException@Internal@Core@Math@Palmtree@@UEAAPEAXI@Z@4HA ENDP ; `Palmtree::Math::Core::Internal::InternalErrorException::`scalar deleting destructor''::`1'::dtor$1
text$x	ENDS
; Function compile flags: /Ogtpy
; File z:\sources\lunor\repos\rougemeilland\palmtree.math.core.uint\palmtree.math.core.uint\pmc_exception.h
; File c:\program files (x86)\microsoft visual studio\2017\community\vc\tools\msvc\14.16.27023\include\vcruntime_exception.h
; File z:\sources\lunor\repos\rougemeilland\palmtree.math.core.uint\palmtree.math.core.uint\pmc_exception.h
;	COMDAT ??1InternalErrorException@Internal@Core@Math@Palmtree@@UEAA@XZ
_TEXT	SEGMENT
$T1 = 32
this$ = 64
??1InternalErrorException@Internal@Core@Math@Palmtree@@UEAA@XZ PROC ; Palmtree::Math::Core::Internal::InternalErrorException::~InternalErrorException, COMDAT

; 295  :         {

$LN11:
  00000	48 89 4c 24 08	 mov	 QWORD PTR [rsp+8], rcx
  00005	48 83 ec 38	 sub	 rsp, 56			; 00000038H
  00009	48 c7 44 24 20
	fe ff ff ff	 mov	 QWORD PTR $T1[rsp], -2
  00012	48 8d 05 00 00
	00 00		 lea	 rax, OFFSET FLAT:??_7InternalErrorException@Internal@Core@Math@Palmtree@@6B@
  00019	48 89 01	 mov	 QWORD PTR [rcx], rax

; 70   :         {

  0001c	48 8d 05 00 00
	00 00		 lea	 rax, OFFSET FLAT:??_7Exception@Internal@Core@Math@Palmtree@@6B@
  00023	48 89 01	 mov	 QWORD PTR [rcx], rax
; File c:\program files (x86)\microsoft visual studio\2017\community\vc\tools\msvc\14.16.27023\include\vcruntime_exception.h

; 85   :     {

  00026	48 8d 05 00 00
	00 00		 lea	 rax, OFFSET FLAT:??_7exception@std@@6B@
  0002d	48 89 01	 mov	 QWORD PTR [rcx], rax

; 86   :         __std_exception_destroy(&_Data);

  00030	48 83 c1 08	 add	 rcx, 8
  00034	e8 00 00 00 00	 call	 __std_exception_destroy
  00039	90		 npad	 1
; File z:\sources\lunor\repos\rougemeilland\palmtree.math.core.uint\palmtree.math.core.uint\pmc_exception.h

; 296  :         }

  0003a	48 83 c4 38	 add	 rsp, 56			; 00000038H
  0003e	c3		 ret	 0
??1InternalErrorException@Internal@Core@Math@Palmtree@@UEAA@XZ ENDP ; Palmtree::Math::Core::Internal::InternalErrorException::~InternalErrorException
_TEXT	ENDS
;	COMDAT text$x
text$x	SEGMENT
$T1 = 32
this$ = 64
?dtor$0@?0???1InternalErrorException@Internal@Core@Math@Palmtree@@UEAA@XZ@4HA PROC ; `Palmtree::Math::Core::Internal::InternalErrorException::~InternalErrorException'::`1'::dtor$0
  00000	48 8b 8a 40 00
	00 00		 mov	 rcx, QWORD PTR this$[rdx]
  00007	e9 00 00 00 00	 jmp	 ??1Exception@Internal@Core@Math@Palmtree@@UEAA@XZ ; Palmtree::Math::Core::Internal::Exception::~Exception
?dtor$0@?0???1InternalErrorException@Internal@Core@Math@Palmtree@@UEAA@XZ@4HA ENDP ; `Palmtree::Math::Core::Internal::InternalErrorException::~InternalErrorException'::`1'::dtor$0
text$x	ENDS
;	COMDAT text$x
text$x	SEGMENT
$T1 = 32
this$ = 64
?dtor$1@?0???1InternalErrorException@Internal@Core@Math@Palmtree@@UEAA@XZ@4HA PROC ; `Palmtree::Math::Core::Internal::InternalErrorException::~InternalErrorException'::`1'::dtor$1
  00000	48 8b 8a 40 00
	00 00		 mov	 rcx, QWORD PTR this$[rdx]
  00007	e9 00 00 00 00	 jmp	 ??1exception@std@@UEAA@XZ ; std::exception::~exception
?dtor$1@?0???1InternalErrorException@Internal@Core@Math@Palmtree@@UEAA@XZ@4HA ENDP ; `Palmtree::Math::Core::Internal::InternalErrorException::~InternalErrorException'::`1'::dtor$1
text$x	ENDS
; Function compile flags: /Ogtpy
;	COMDAT text$x
text$x	SEGMENT
$T1 = 32
this$ = 64
?dtor$0@?0???1InternalErrorException@Internal@Core@Math@Palmtree@@UEAA@XZ@4HA PROC ; `Palmtree::Math::Core::Internal::InternalErrorException::~InternalErrorException'::`1'::dtor$0
  00000	48 8b 8a 40 00
	00 00		 mov	 rcx, QWORD PTR this$[rdx]
  00007	e9 00 00 00 00	 jmp	 ??1Exception@Internal@Core@Math@Palmtree@@UEAA@XZ ; Palmtree::Math::Core::Internal::Exception::~Exception
?dtor$0@?0???1InternalErrorException@Internal@Core@Math@Palmtree@@UEAA@XZ@4HA ENDP ; `Palmtree::Math::Core::Internal::InternalErrorException::~InternalErrorException'::`1'::dtor$0
text$x	ENDS
; Function compile flags: /Ogtpy
;	COMDAT text$x
text$x	SEGMENT
$T1 = 32
this$ = 64
?dtor$1@?0???1InternalErrorException@Internal@Core@Math@Palmtree@@UEAA@XZ@4HA PROC ; `Palmtree::Math::Core::Internal::InternalErrorException::~InternalErrorException'::`1'::dtor$1
  00000	48 8b 8a 40 00
	00 00		 mov	 rcx, QWORD PTR this$[rdx]
  00007	e9 00 00 00 00	 jmp	 ??1exception@std@@UEAA@XZ ; std::exception::~exception
?dtor$1@?0???1InternalErrorException@Internal@Core@Math@Palmtree@@UEAA@XZ@4HA ENDP ; `Palmtree::Math::Core::Internal::InternalErrorException::~InternalErrorException'::`1'::dtor$1
text$x	ENDS
; Function compile flags: /Ogtpy
; File z:\sources\lunor\repos\rougemeilland\palmtree.math.core.uint\palmtree.math.core.uint\pmc_exception.h
; File c:\program files (x86)\microsoft visual studio\2017\community\vc\tools\msvc\14.16.27023\include\vcruntime_exception.h
; File z:\sources\lunor\repos\rougemeilland\palmtree.math.core.uint\palmtree.math.core.uint\pmc_exception.h
;	COMDAT ??0InternalErrorException@Internal@Core@Math@Palmtree@@QEAA@PEB_W0@Z
_TEXT	SEGMENT
$T1 = 0
this$ = 32
message$ = 40
data$ = 48
??0InternalErrorException@Internal@Core@Math@Palmtree@@QEAA@PEB_W0@Z PROC ; Palmtree::Math::Core::Internal::InternalErrorException::InternalErrorException, COMDAT

; 286  :         {

$LN11:
  00000	48 89 4c 24 08	 mov	 QWORD PTR [rsp+8], rcx
  00005	48 83 ec 18	 sub	 rsp, 24
  00009	48 c7 04 24 fe
	ff ff ff	 mov	 QWORD PTR $T1[rsp], -2
; File c:\program files (x86)\microsoft visual studio\2017\community\vc\tools\msvc\14.16.27023\include\vcruntime_exception.h

; 50   :     {

  00011	48 8d 05 00 00
	00 00		 lea	 rax, OFFSET FLAT:??_7exception@std@@6B@
  00018	48 89 01	 mov	 QWORD PTR [rcx], rax

; 49   :         : _Data()

  0001b	33 c0		 xor	 eax, eax
  0001d	48 89 41 08	 mov	 QWORD PTR [rcx+8], rax
  00021	48 89 41 10	 mov	 QWORD PTR [rcx+16], rax
; File z:\sources\lunor\repos\rougemeilland\palmtree.math.core.uint\palmtree.math.core.uint\pmc_exception.h

; 54   :         Exception(PMC_STATUS_CODE code, const wchar_t* message, const wchar_t* data) noexcept(true)

  00025	48 8d 05 00 00
	00 00		 lea	 rax, OFFSET FLAT:??_7Exception@Internal@Core@Math@Palmtree@@6B@
  0002c	48 89 01	 mov	 QWORD PTR [rcx], rax

; 55   :         {
; 56   :             _code = code;

  0002f	c7 41 18 00 ff
	ff ff		 mov	 DWORD PTR [rcx+24], -256 ; ffffffffffffff00H

; 57   :             _message = message;

  00036	48 89 51 20	 mov	 QWORD PTR [rcx+32], rdx

; 58   :             _data = data;

  0003a	4c 89 41 28	 mov	 QWORD PTR [rcx+40], r8

; 286  :         {

  0003e	48 8d 05 00 00
	00 00		 lea	 rax, OFFSET FLAT:??_7InternalErrorException@Internal@Core@Math@Palmtree@@6B@
  00045	48 89 01	 mov	 QWORD PTR [rcx], rax

; 287  :         }

  00048	48 8b c1	 mov	 rax, rcx
  0004b	48 83 c4 18	 add	 rsp, 24
  0004f	c3		 ret	 0
??0InternalErrorException@Internal@Core@Math@Palmtree@@QEAA@PEB_W0@Z ENDP ; Palmtree::Math::Core::Internal::InternalErrorException::InternalErrorException
_TEXT	ENDS
;	COMDAT text$x
text$x	SEGMENT
$T1 = 0
this$ = 32
message$ = 40
data$ = 48
?dtor$1@?0???0InternalErrorException@Internal@Core@Math@Palmtree@@QEAA@PEB_W0@Z@4HA PROC ; `Palmtree::Math::Core::Internal::InternalErrorException::InternalErrorException'::`1'::dtor$1
  00000	48 8b 8a 20 00
	00 00		 mov	 rcx, QWORD PTR this$[rdx]
  00007	e9 00 00 00 00	 jmp	 ??1exception@std@@UEAA@XZ ; std::exception::~exception
?dtor$1@?0???0InternalErrorException@Internal@Core@Math@Palmtree@@QEAA@PEB_W0@Z@4HA ENDP ; `Palmtree::Math::Core::Internal::InternalErrorException::InternalErrorException'::`1'::dtor$1
text$x	ENDS
;	COMDAT text$x
text$x	SEGMENT
$T1 = 0
this$ = 32
message$ = 40
data$ = 48
?dtor$0@?0???0InternalErrorException@Internal@Core@Math@Palmtree@@QEAA@PEB_W0@Z@4HA PROC ; `Palmtree::Math::Core::Internal::InternalErrorException::InternalErrorException'::`1'::dtor$0
  00000	48 8b 8a 20 00
	00 00		 mov	 rcx, QWORD PTR this$[rdx]
  00007	e9 00 00 00 00	 jmp	 ??1Exception@Internal@Core@Math@Palmtree@@UEAA@XZ ; Palmtree::Math::Core::Internal::Exception::~Exception
?dtor$0@?0???0InternalErrorException@Internal@Core@Math@Palmtree@@QEAA@PEB_W0@Z@4HA ENDP ; `Palmtree::Math::Core::Internal::InternalErrorException::InternalErrorException'::`1'::dtor$0
text$x	ENDS
; Function compile flags: /Ogtpy
;	COMDAT text$x
text$x	SEGMENT
$T1 = 0
this$ = 32
message$ = 40
data$ = 48
?dtor$1@?0???0InternalErrorException@Internal@Core@Math@Palmtree@@QEAA@PEB_W0@Z@4HA PROC ; `Palmtree::Math::Core::Internal::InternalErrorException::InternalErrorException'::`1'::dtor$1
  00000	48 8b 8a 20 00
	00 00		 mov	 rcx, QWORD PTR this$[rdx]
  00007	e9 00 00 00 00	 jmp	 ??1exception@std@@UEAA@XZ ; std::exception::~exception
?dtor$1@?0???0InternalErrorException@Internal@Core@Math@Palmtree@@QEAA@PEB_W0@Z@4HA ENDP ; `Palmtree::Math::Core::Internal::InternalErrorException::InternalErrorException'::`1'::dtor$1
text$x	ENDS
; Function compile flags: /Ogtpy
;	COMDAT text$x
text$x	SEGMENT
$T1 = 0
this$ = 32
message$ = 40
data$ = 48
?dtor$0@?0???0InternalErrorException@Internal@Core@Math@Palmtree@@QEAA@PEB_W0@Z@4HA PROC ; `Palmtree::Math::Core::Internal::InternalErrorException::InternalErrorException'::`1'::dtor$0
  00000	48 8b 8a 20 00
	00 00		 mov	 rcx, QWORD PTR this$[rdx]
  00007	e9 00 00 00 00	 jmp	 ??1Exception@Internal@Core@Math@Palmtree@@UEAA@XZ ; Palmtree::Math::Core::Internal::Exception::~Exception
?dtor$0@?0???0InternalErrorException@Internal@Core@Math@Palmtree@@QEAA@PEB_W0@Z@4HA ENDP ; `Palmtree::Math::Core::Internal::InternalErrorException::InternalErrorException'::`1'::dtor$0
text$x	ENDS
; Function compile flags: /Ogtpy
; File z:\sources\lunor\repos\rougemeilland\palmtree.math.core.uint\palmtree.math.core.uint\pmc_exception.h
; File c:\program files (x86)\microsoft visual studio\2017\community\vc\tools\msvc\14.16.27023\include\vcruntime_exception.h
;	COMDAT ??_GArgumentNullException@Internal@Core@Math@Palmtree@@UEAAPEAXI@Z
_TEXT	SEGMENT
$T1 = 32
this$ = 64
__flags$ = 72
??_GArgumentNullException@Internal@Core@Math@Palmtree@@UEAAPEAXI@Z PROC ; Palmtree::Math::Core::Internal::ArgumentNullException::`scalar deleting destructor', COMDAT
$LN15:
  00000	48 89 4c 24 08	 mov	 QWORD PTR [rsp+8], rcx
  00005	57		 push	 rdi
  00006	48 83 ec 30	 sub	 rsp, 48			; 00000030H
  0000a	48 c7 44 24 20
	fe ff ff ff	 mov	 QWORD PTR $T1[rsp], -2
  00013	48 89 5c 24 48	 mov	 QWORD PTR [rsp+72], rbx
  00018	8b da		 mov	 ebx, edx
  0001a	48 8b f9	 mov	 rdi, rcx
; File z:\sources\lunor\repos\rougemeilland\palmtree.math.core.uint\palmtree.math.core.uint\pmc_exception.h

; 124  :         {

  0001d	48 8d 05 00 00
	00 00		 lea	 rax, OFFSET FLAT:??_7ArgumentNullException@Internal@Core@Math@Palmtree@@6B@
  00024	48 89 01	 mov	 QWORD PTR [rcx], rax

; 70   :         {

  00027	48 8d 05 00 00
	00 00		 lea	 rax, OFFSET FLAT:??_7Exception@Internal@Core@Math@Palmtree@@6B@
  0002e	48 89 01	 mov	 QWORD PTR [rcx], rax
; File c:\program files (x86)\microsoft visual studio\2017\community\vc\tools\msvc\14.16.27023\include\vcruntime_exception.h

; 85   :     {

  00031	48 8d 05 00 00
	00 00		 lea	 rax, OFFSET FLAT:??_7exception@std@@6B@
  00038	48 89 01	 mov	 QWORD PTR [rcx], rax

; 86   :         __std_exception_destroy(&_Data);

  0003b	48 83 c1 08	 add	 rcx, 8
  0003f	e8 00 00 00 00	 call	 __std_exception_destroy
  00044	90		 npad	 1
  00045	f6 c3 01	 test	 bl, 1
  00048	74 0e		 je	 SHORT $LN12@scalar
  0004a	ba 30 00 00 00	 mov	 edx, 48			; 00000030H
  0004f	48 8b cf	 mov	 rcx, rdi
  00052	e8 00 00 00 00	 call	 ??3@YAXPEAX_K@Z		; operator delete
  00057	90		 npad	 1
$LN12@scalar:
  00058	48 8b c7	 mov	 rax, rdi
  0005b	48 8b 5c 24 48	 mov	 rbx, QWORD PTR [rsp+72]
  00060	48 83 c4 30	 add	 rsp, 48			; 00000030H
  00064	5f		 pop	 rdi
  00065	c3		 ret	 0
??_GArgumentNullException@Internal@Core@Math@Palmtree@@UEAAPEAXI@Z ENDP ; Palmtree::Math::Core::Internal::ArgumentNullException::`scalar deleting destructor'
_TEXT	ENDS
;	COMDAT text$x
text$x	SEGMENT
$T1 = 32
this$ = 64
__flags$ = 72
?dtor$0@?0???_GArgumentNullException@Internal@Core@Math@Palmtree@@UEAAPEAXI@Z@4HA PROC ; `Palmtree::Math::Core::Internal::ArgumentNullException::`scalar deleting destructor''::`1'::dtor$0
  00000	48 8b 8a 40 00
	00 00		 mov	 rcx, QWORD PTR this$[rdx]
  00007	e9 00 00 00 00	 jmp	 ??1Exception@Internal@Core@Math@Palmtree@@UEAA@XZ ; Palmtree::Math::Core::Internal::Exception::~Exception
?dtor$0@?0???_GArgumentNullException@Internal@Core@Math@Palmtree@@UEAAPEAXI@Z@4HA ENDP ; `Palmtree::Math::Core::Internal::ArgumentNullException::`scalar deleting destructor''::`1'::dtor$0
text$x	ENDS
;	COMDAT text$x
text$x	SEGMENT
$T1 = 32
this$ = 64
__flags$ = 72
?dtor$1@?0???_GArgumentNullException@Internal@Core@Math@Palmtree@@UEAAPEAXI@Z@4HA PROC ; `Palmtree::Math::Core::Internal::ArgumentNullException::`scalar deleting destructor''::`1'::dtor$1
  00000	48 8b 8a 40 00
	00 00		 mov	 rcx, QWORD PTR this$[rdx]
  00007	e9 00 00 00 00	 jmp	 ??1exception@std@@UEAA@XZ ; std::exception::~exception
?dtor$1@?0???_GArgumentNullException@Internal@Core@Math@Palmtree@@UEAAPEAXI@Z@4HA ENDP ; `Palmtree::Math::Core::Internal::ArgumentNullException::`scalar deleting destructor''::`1'::dtor$1
text$x	ENDS
; Function compile flags: /Ogtpy
;	COMDAT text$x
text$x	SEGMENT
$T1 = 32
this$ = 64
__flags$ = 72
?dtor$0@?0???_GArgumentNullException@Internal@Core@Math@Palmtree@@UEAAPEAXI@Z@4HA PROC ; `Palmtree::Math::Core::Internal::ArgumentNullException::`scalar deleting destructor''::`1'::dtor$0
  00000	48 8b 8a 40 00
	00 00		 mov	 rcx, QWORD PTR this$[rdx]
  00007	e9 00 00 00 00	 jmp	 ??1Exception@Internal@Core@Math@Palmtree@@UEAA@XZ ; Palmtree::Math::Core::Internal::Exception::~Exception
?dtor$0@?0???_GArgumentNullException@Internal@Core@Math@Palmtree@@UEAAPEAXI@Z@4HA ENDP ; `Palmtree::Math::Core::Internal::ArgumentNullException::`scalar deleting destructor''::`1'::dtor$0
text$x	ENDS
; Function compile flags: /Ogtpy
;	COMDAT text$x
text$x	SEGMENT
$T1 = 32
this$ = 64
__flags$ = 72
?dtor$1@?0???_GArgumentNullException@Internal@Core@Math@Palmtree@@UEAAPEAXI@Z@4HA PROC ; `Palmtree::Math::Core::Internal::ArgumentNullException::`scalar deleting destructor''::`1'::dtor$1
  00000	48 8b 8a 40 00
	00 00		 mov	 rcx, QWORD PTR this$[rdx]
  00007	e9 00 00 00 00	 jmp	 ??1exception@std@@UEAA@XZ ; std::exception::~exception
?dtor$1@?0???_GArgumentNullException@Internal@Core@Math@Palmtree@@UEAAPEAXI@Z@4HA ENDP ; `Palmtree::Math::Core::Internal::ArgumentNullException::`scalar deleting destructor''::`1'::dtor$1
text$x	ENDS
; Function compile flags: /Ogtpy
; File z:\sources\lunor\repos\rougemeilland\palmtree.math.core.uint\palmtree.math.core.uint\pmc_exception.h
; File c:\program files (x86)\microsoft visual studio\2017\community\vc\tools\msvc\14.16.27023\include\vcruntime_exception.h
; File z:\sources\lunor\repos\rougemeilland\palmtree.math.core.uint\palmtree.math.core.uint\pmc_exception.h
;	COMDAT ??1ArgumentNullException@Internal@Core@Math@Palmtree@@UEAA@XZ
_TEXT	SEGMENT
$T1 = 32
this$ = 64
??1ArgumentNullException@Internal@Core@Math@Palmtree@@UEAA@XZ PROC ; Palmtree::Math::Core::Internal::ArgumentNullException::~ArgumentNullException, COMDAT

; 124  :         {

$LN11:
  00000	48 89 4c 24 08	 mov	 QWORD PTR [rsp+8], rcx
  00005	48 83 ec 38	 sub	 rsp, 56			; 00000038H
  00009	48 c7 44 24 20
	fe ff ff ff	 mov	 QWORD PTR $T1[rsp], -2
  00012	48 8d 05 00 00
	00 00		 lea	 rax, OFFSET FLAT:??_7ArgumentNullException@Internal@Core@Math@Palmtree@@6B@
  00019	48 89 01	 mov	 QWORD PTR [rcx], rax

; 70   :         {

  0001c	48 8d 05 00 00
	00 00		 lea	 rax, OFFSET FLAT:??_7Exception@Internal@Core@Math@Palmtree@@6B@
  00023	48 89 01	 mov	 QWORD PTR [rcx], rax
; File c:\program files (x86)\microsoft visual studio\2017\community\vc\tools\msvc\14.16.27023\include\vcruntime_exception.h

; 85   :     {

  00026	48 8d 05 00 00
	00 00		 lea	 rax, OFFSET FLAT:??_7exception@std@@6B@
  0002d	48 89 01	 mov	 QWORD PTR [rcx], rax

; 86   :         __std_exception_destroy(&_Data);

  00030	48 83 c1 08	 add	 rcx, 8
  00034	e8 00 00 00 00	 call	 __std_exception_destroy
  00039	90		 npad	 1
; File z:\sources\lunor\repos\rougemeilland\palmtree.math.core.uint\palmtree.math.core.uint\pmc_exception.h

; 125  :         }

  0003a	48 83 c4 38	 add	 rsp, 56			; 00000038H
  0003e	c3		 ret	 0
??1ArgumentNullException@Internal@Core@Math@Palmtree@@UEAA@XZ ENDP ; Palmtree::Math::Core::Internal::ArgumentNullException::~ArgumentNullException
_TEXT	ENDS
;	COMDAT text$x
text$x	SEGMENT
$T1 = 32
this$ = 64
?dtor$0@?0???1ArgumentNullException@Internal@Core@Math@Palmtree@@UEAA@XZ@4HA PROC ; `Palmtree::Math::Core::Internal::ArgumentNullException::~ArgumentNullException'::`1'::dtor$0
  00000	48 8b 8a 40 00
	00 00		 mov	 rcx, QWORD PTR this$[rdx]
  00007	e9 00 00 00 00	 jmp	 ??1Exception@Internal@Core@Math@Palmtree@@UEAA@XZ ; Palmtree::Math::Core::Internal::Exception::~Exception
?dtor$0@?0???1ArgumentNullException@Internal@Core@Math@Palmtree@@UEAA@XZ@4HA ENDP ; `Palmtree::Math::Core::Internal::ArgumentNullException::~ArgumentNullException'::`1'::dtor$0
text$x	ENDS
;	COMDAT text$x
text$x	SEGMENT
$T1 = 32
this$ = 64
?dtor$1@?0???1ArgumentNullException@Internal@Core@Math@Palmtree@@UEAA@XZ@4HA PROC ; `Palmtree::Math::Core::Internal::ArgumentNullException::~ArgumentNullException'::`1'::dtor$1
  00000	48 8b 8a 40 00
	00 00		 mov	 rcx, QWORD PTR this$[rdx]
  00007	e9 00 00 00 00	 jmp	 ??1exception@std@@UEAA@XZ ; std::exception::~exception
?dtor$1@?0???1ArgumentNullException@Internal@Core@Math@Palmtree@@UEAA@XZ@4HA ENDP ; `Palmtree::Math::Core::Internal::ArgumentNullException::~ArgumentNullException'::`1'::dtor$1
text$x	ENDS
; Function compile flags: /Ogtpy
;	COMDAT text$x
text$x	SEGMENT
$T1 = 32
this$ = 64
?dtor$0@?0???1ArgumentNullException@Internal@Core@Math@Palmtree@@UEAA@XZ@4HA PROC ; `Palmtree::Math::Core::Internal::ArgumentNullException::~ArgumentNullException'::`1'::dtor$0
  00000	48 8b 8a 40 00
	00 00		 mov	 rcx, QWORD PTR this$[rdx]
  00007	e9 00 00 00 00	 jmp	 ??1Exception@Internal@Core@Math@Palmtree@@UEAA@XZ ; Palmtree::Math::Core::Internal::Exception::~Exception
?dtor$0@?0???1ArgumentNullException@Internal@Core@Math@Palmtree@@UEAA@XZ@4HA ENDP ; `Palmtree::Math::Core::Internal::ArgumentNullException::~ArgumentNullException'::`1'::dtor$0
text$x	ENDS
; Function compile flags: /Ogtpy
;	COMDAT text$x
text$x	SEGMENT
$T1 = 32
this$ = 64
?dtor$1@?0???1ArgumentNullException@Internal@Core@Math@Palmtree@@UEAA@XZ@4HA PROC ; `Palmtree::Math::Core::Internal::ArgumentNullException::~ArgumentNullException'::`1'::dtor$1
  00000	48 8b 8a 40 00
	00 00		 mov	 rcx, QWORD PTR this$[rdx]
  00007	e9 00 00 00 00	 jmp	 ??1exception@std@@UEAA@XZ ; std::exception::~exception
?dtor$1@?0???1ArgumentNullException@Internal@Core@Math@Palmtree@@UEAA@XZ@4HA ENDP ; `Palmtree::Math::Core::Internal::ArgumentNullException::~ArgumentNullException'::`1'::dtor$1
text$x	ENDS
; Function compile flags: /Ogtpy
; File z:\sources\lunor\repos\rougemeilland\palmtree.math.core.uint\palmtree.math.core.uint\pmc_exception.h
; File c:\program files (x86)\microsoft visual studio\2017\community\vc\tools\msvc\14.16.27023\include\vcruntime_exception.h
; File z:\sources\lunor\repos\rougemeilland\palmtree.math.core.uint\palmtree.math.core.uint\pmc_exception.h
;	COMDAT ??0ArgumentNullException@Internal@Core@Math@Palmtree@@QEAA@AEBV01234@@Z
_TEXT	SEGMENT
$T1 = 0
this$ = 32
p$ = 40
??0ArgumentNullException@Internal@Core@Math@Palmtree@@QEAA@AEBV01234@@Z PROC ; Palmtree::Math::Core::Internal::ArgumentNullException::ArgumentNullException, COMDAT

; 120  :         {

$LN11:
  00000	48 89 4c 24 08	 mov	 QWORD PTR [rsp+8], rcx
  00005	48 83 ec 18	 sub	 rsp, 24
  00009	48 c7 04 24 fe
	ff ff ff	 mov	 QWORD PTR $T1[rsp], -2
; File c:\program files (x86)\microsoft visual studio\2017\community\vc\tools\msvc\14.16.27023\include\vcruntime_exception.h

; 50   :     {

  00011	48 8d 05 00 00
	00 00		 lea	 rax, OFFSET FLAT:??_7exception@std@@6B@
  00018	48 89 01	 mov	 QWORD PTR [rcx], rax

; 49   :         : _Data()

  0001b	33 c0		 xor	 eax, eax
  0001d	48 89 41 08	 mov	 QWORD PTR [rcx+8], rax
  00021	48 89 41 10	 mov	 QWORD PTR [rcx+16], rax
; File z:\sources\lunor\repos\rougemeilland\palmtree.math.core.uint\palmtree.math.core.uint\pmc_exception.h

; 62   :         Exception(const Exception& p) noexcept(true)

  00025	48 8d 05 00 00
	00 00		 lea	 rax, OFFSET FLAT:??_7Exception@Internal@Core@Math@Palmtree@@6B@
  0002c	48 89 01	 mov	 QWORD PTR [rcx], rax

; 63   :         {
; 64   :             _code = p._code;

  0002f	8b 42 18	 mov	 eax, DWORD PTR [rdx+24]
  00032	89 41 18	 mov	 DWORD PTR [rcx+24], eax

; 65   :             _message = p._message;

  00035	48 8b 42 20	 mov	 rax, QWORD PTR [rdx+32]
  00039	48 89 41 20	 mov	 QWORD PTR [rcx+32], rax

; 66   :             _data = p._data;

  0003d	48 8b 42 28	 mov	 rax, QWORD PTR [rdx+40]
  00041	48 89 41 28	 mov	 QWORD PTR [rcx+40], rax

; 120  :         {

  00045	48 8d 05 00 00
	00 00		 lea	 rax, OFFSET FLAT:??_7ArgumentNullException@Internal@Core@Math@Palmtree@@6B@
  0004c	48 89 01	 mov	 QWORD PTR [rcx], rax

; 121  :         }

  0004f	48 8b c1	 mov	 rax, rcx
  00052	48 83 c4 18	 add	 rsp, 24
  00056	c3		 ret	 0
??0ArgumentNullException@Internal@Core@Math@Palmtree@@QEAA@AEBV01234@@Z ENDP ; Palmtree::Math::Core::Internal::ArgumentNullException::ArgumentNullException
_TEXT	ENDS
;	COMDAT text$x
text$x	SEGMENT
$T1 = 0
this$ = 32
p$ = 40
?dtor$1@?0???0ArgumentNullException@Internal@Core@Math@Palmtree@@QEAA@AEBV01234@@Z@4HA PROC ; `Palmtree::Math::Core::Internal::ArgumentNullException::ArgumentNullException'::`1'::dtor$1
  00000	48 8b 8a 20 00
	00 00		 mov	 rcx, QWORD PTR this$[rdx]
  00007	e9 00 00 00 00	 jmp	 ??1exception@std@@UEAA@XZ ; std::exception::~exception
?dtor$1@?0???0ArgumentNullException@Internal@Core@Math@Palmtree@@QEAA@AEBV01234@@Z@4HA ENDP ; `Palmtree::Math::Core::Internal::ArgumentNullException::ArgumentNullException'::`1'::dtor$1
text$x	ENDS
;	COMDAT text$x
text$x	SEGMENT
$T1 = 0
this$ = 32
p$ = 40
?dtor$0@?0???0ArgumentNullException@Internal@Core@Math@Palmtree@@QEAA@AEBV01234@@Z@4HA PROC ; `Palmtree::Math::Core::Internal::ArgumentNullException::ArgumentNullException'::`1'::dtor$0
  00000	48 8b 8a 20 00
	00 00		 mov	 rcx, QWORD PTR this$[rdx]
  00007	e9 00 00 00 00	 jmp	 ??1Exception@Internal@Core@Math@Palmtree@@UEAA@XZ ; Palmtree::Math::Core::Internal::Exception::~Exception
?dtor$0@?0???0ArgumentNullException@Internal@Core@Math@Palmtree@@QEAA@AEBV01234@@Z@4HA ENDP ; `Palmtree::Math::Core::Internal::ArgumentNullException::ArgumentNullException'::`1'::dtor$0
text$x	ENDS
; Function compile flags: /Ogtpy
;	COMDAT text$x
text$x	SEGMENT
$T1 = 0
this$ = 32
p$ = 40
?dtor$1@?0???0ArgumentNullException@Internal@Core@Math@Palmtree@@QEAA@AEBV01234@@Z@4HA PROC ; `Palmtree::Math::Core::Internal::ArgumentNullException::ArgumentNullException'::`1'::dtor$1
  00000	48 8b 8a 20 00
	00 00		 mov	 rcx, QWORD PTR this$[rdx]
  00007	e9 00 00 00 00	 jmp	 ??1exception@std@@UEAA@XZ ; std::exception::~exception
?dtor$1@?0???0ArgumentNullException@Internal@Core@Math@Palmtree@@QEAA@AEBV01234@@Z@4HA ENDP ; `Palmtree::Math::Core::Internal::ArgumentNullException::ArgumentNullException'::`1'::dtor$1
text$x	ENDS
; Function compile flags: /Ogtpy
;	COMDAT text$x
text$x	SEGMENT
$T1 = 0
this$ = 32
p$ = 40
?dtor$0@?0???0ArgumentNullException@Internal@Core@Math@Palmtree@@QEAA@AEBV01234@@Z@4HA PROC ; `Palmtree::Math::Core::Internal::ArgumentNullException::ArgumentNullException'::`1'::dtor$0
  00000	48 8b 8a 20 00
	00 00		 mov	 rcx, QWORD PTR this$[rdx]
  00007	e9 00 00 00 00	 jmp	 ??1Exception@Internal@Core@Math@Palmtree@@UEAA@XZ ; Palmtree::Math::Core::Internal::Exception::~Exception
?dtor$0@?0???0ArgumentNullException@Internal@Core@Math@Palmtree@@QEAA@AEBV01234@@Z@4HA ENDP ; `Palmtree::Math::Core::Internal::ArgumentNullException::ArgumentNullException'::`1'::dtor$0
text$x	ENDS
; Function compile flags: /Ogtpy
; File z:\sources\lunor\repos\rougemeilland\palmtree.math.core.uint\palmtree.math.core.uint\pmc_exception.h
; File c:\program files (x86)\microsoft visual studio\2017\community\vc\tools\msvc\14.16.27023\include\vcruntime_exception.h
; File z:\sources\lunor\repos\rougemeilland\palmtree.math.core.uint\palmtree.math.core.uint\pmc_exception.h
;	COMDAT ??0ArgumentNullException@Internal@Core@Math@Palmtree@@QEAA@PEB_W0@Z
_TEXT	SEGMENT
$T1 = 0
this$ = 32
message$ = 40
param_name$ = 48
??0ArgumentNullException@Internal@Core@Math@Palmtree@@QEAA@PEB_W0@Z PROC ; Palmtree::Math::Core::Internal::ArgumentNullException::ArgumentNullException, COMDAT

; 115  :         {

$LN11:
  00000	48 89 4c 24 08	 mov	 QWORD PTR [rsp+8], rcx
  00005	48 83 ec 18	 sub	 rsp, 24
  00009	48 c7 04 24 fe
	ff ff ff	 mov	 QWORD PTR $T1[rsp], -2
; File c:\program files (x86)\microsoft visual studio\2017\community\vc\tools\msvc\14.16.27023\include\vcruntime_exception.h

; 50   :     {

  00011	48 8d 05 00 00
	00 00		 lea	 rax, OFFSET FLAT:??_7exception@std@@6B@
  00018	48 89 01	 mov	 QWORD PTR [rcx], rax

; 49   :         : _Data()

  0001b	33 c0		 xor	 eax, eax
  0001d	48 89 41 08	 mov	 QWORD PTR [rcx+8], rax
  00021	48 89 41 10	 mov	 QWORD PTR [rcx+16], rax
; File z:\sources\lunor\repos\rougemeilland\palmtree.math.core.uint\palmtree.math.core.uint\pmc_exception.h

; 54   :         Exception(PMC_STATUS_CODE code, const wchar_t* message, const wchar_t* data) noexcept(true)

  00025	48 8d 05 00 00
	00 00		 lea	 rax, OFFSET FLAT:??_7Exception@Internal@Core@Math@Palmtree@@6B@
  0002c	48 89 01	 mov	 QWORD PTR [rcx], rax

; 55   :         {
; 56   :             _code = code;

  0002f	c7 41 18 fe ff
	ff ff		 mov	 DWORD PTR [rcx+24], -2

; 57   :             _message = message;

  00036	48 89 51 20	 mov	 QWORD PTR [rcx+32], rdx

; 58   :             _data = data;

  0003a	4c 89 41 28	 mov	 QWORD PTR [rcx+40], r8

; 115  :         {

  0003e	48 8d 05 00 00
	00 00		 lea	 rax, OFFSET FLAT:??_7ArgumentNullException@Internal@Core@Math@Palmtree@@6B@
  00045	48 89 01	 mov	 QWORD PTR [rcx], rax

; 116  :         }

  00048	48 8b c1	 mov	 rax, rcx
  0004b	48 83 c4 18	 add	 rsp, 24
  0004f	c3		 ret	 0
??0ArgumentNullException@Internal@Core@Math@Palmtree@@QEAA@PEB_W0@Z ENDP ; Palmtree::Math::Core::Internal::ArgumentNullException::ArgumentNullException
_TEXT	ENDS
;	COMDAT text$x
text$x	SEGMENT
$T1 = 0
this$ = 32
message$ = 40
param_name$ = 48
?dtor$1@?0???0ArgumentNullException@Internal@Core@Math@Palmtree@@QEAA@PEB_W0@Z@4HA PROC ; `Palmtree::Math::Core::Internal::ArgumentNullException::ArgumentNullException'::`1'::dtor$1
  00000	48 8b 8a 20 00
	00 00		 mov	 rcx, QWORD PTR this$[rdx]
  00007	e9 00 00 00 00	 jmp	 ??1exception@std@@UEAA@XZ ; std::exception::~exception
?dtor$1@?0???0ArgumentNullException@Internal@Core@Math@Palmtree@@QEAA@PEB_W0@Z@4HA ENDP ; `Palmtree::Math::Core::Internal::ArgumentNullException::ArgumentNullException'::`1'::dtor$1
text$x	ENDS
;	COMDAT text$x
text$x	SEGMENT
$T1 = 0
this$ = 32
message$ = 40
param_name$ = 48
?dtor$0@?0???0ArgumentNullException@Internal@Core@Math@Palmtree@@QEAA@PEB_W0@Z@4HA PROC ; `Palmtree::Math::Core::Internal::ArgumentNullException::ArgumentNullException'::`1'::dtor$0
  00000	48 8b 8a 20 00
	00 00		 mov	 rcx, QWORD PTR this$[rdx]
  00007	e9 00 00 00 00	 jmp	 ??1Exception@Internal@Core@Math@Palmtree@@UEAA@XZ ; Palmtree::Math::Core::Internal::Exception::~Exception
?dtor$0@?0???0ArgumentNullException@Internal@Core@Math@Palmtree@@QEAA@PEB_W0@Z@4HA ENDP ; `Palmtree::Math::Core::Internal::ArgumentNullException::ArgumentNullException'::`1'::dtor$0
text$x	ENDS
; Function compile flags: /Ogtpy
;	COMDAT text$x
text$x	SEGMENT
$T1 = 0
this$ = 32
message$ = 40
param_name$ = 48
?dtor$1@?0???0ArgumentNullException@Internal@Core@Math@Palmtree@@QEAA@PEB_W0@Z@4HA PROC ; `Palmtree::Math::Core::Internal::ArgumentNullException::ArgumentNullException'::`1'::dtor$1
  00000	48 8b 8a 20 00
	00 00		 mov	 rcx, QWORD PTR this$[rdx]
  00007	e9 00 00 00 00	 jmp	 ??1exception@std@@UEAA@XZ ; std::exception::~exception
?dtor$1@?0???0ArgumentNullException@Internal@Core@Math@Palmtree@@QEAA@PEB_W0@Z@4HA ENDP ; `Palmtree::Math::Core::Internal::ArgumentNullException::ArgumentNullException'::`1'::dtor$1
text$x	ENDS
; Function compile flags: /Ogtpy
;	COMDAT text$x
text$x	SEGMENT
$T1 = 0
this$ = 32
message$ = 40
param_name$ = 48
?dtor$0@?0???0ArgumentNullException@Internal@Core@Math@Palmtree@@QEAA@PEB_W0@Z@4HA PROC ; `Palmtree::Math::Core::Internal::ArgumentNullException::ArgumentNullException'::`1'::dtor$0
  00000	48 8b 8a 20 00
	00 00		 mov	 rcx, QWORD PTR this$[rdx]
  00007	e9 00 00 00 00	 jmp	 ??1Exception@Internal@Core@Math@Palmtree@@UEAA@XZ ; Palmtree::Math::Core::Internal::Exception::~Exception
?dtor$0@?0???0ArgumentNullException@Internal@Core@Math@Palmtree@@QEAA@PEB_W0@Z@4HA ENDP ; `Palmtree::Math::Core::Internal::ArgumentNullException::ArgumentNullException'::`1'::dtor$0
text$x	ENDS
; Function compile flags: /Ogtpy
; File z:\sources\lunor\repos\rougemeilland\palmtree.math.core.uint\palmtree.math.core.uint\pmc_exception.h
; File c:\program files (x86)\microsoft visual studio\2017\community\vc\tools\msvc\14.16.27023\include\vcruntime_exception.h
;	COMDAT ??_GException@Internal@Core@Math@Palmtree@@UEAAPEAXI@Z
_TEXT	SEGMENT
$T1 = 32
this$ = 64
__flags$ = 72
??_GException@Internal@Core@Math@Palmtree@@UEAAPEAXI@Z PROC ; Palmtree::Math::Core::Internal::Exception::`scalar deleting destructor', COMDAT
$LN12:
  00000	48 89 4c 24 08	 mov	 QWORD PTR [rsp+8], rcx
  00005	57		 push	 rdi
  00006	48 83 ec 30	 sub	 rsp, 48			; 00000030H
  0000a	48 c7 44 24 20
	fe ff ff ff	 mov	 QWORD PTR $T1[rsp], -2
  00013	48 89 5c 24 48	 mov	 QWORD PTR [rsp+72], rbx
  00018	8b da		 mov	 ebx, edx
  0001a	48 8b f9	 mov	 rdi, rcx
; File z:\sources\lunor\repos\rougemeilland\palmtree.math.core.uint\palmtree.math.core.uint\pmc_exception.h

; 70   :         {

  0001d	48 8d 05 00 00
	00 00		 lea	 rax, OFFSET FLAT:??_7Exception@Internal@Core@Math@Palmtree@@6B@
  00024	48 89 01	 mov	 QWORD PTR [rcx], rax
; File c:\program files (x86)\microsoft visual studio\2017\community\vc\tools\msvc\14.16.27023\include\vcruntime_exception.h

; 85   :     {

  00027	48 8d 05 00 00
	00 00		 lea	 rax, OFFSET FLAT:??_7exception@std@@6B@
  0002e	48 89 01	 mov	 QWORD PTR [rcx], rax

; 86   :         __std_exception_destroy(&_Data);

  00031	48 83 c1 08	 add	 rcx, 8
  00035	e8 00 00 00 00	 call	 __std_exception_destroy
  0003a	90		 npad	 1
  0003b	f6 c3 01	 test	 bl, 1
  0003e	74 0e		 je	 SHORT $LN9@scalar
  00040	ba 30 00 00 00	 mov	 edx, 48			; 00000030H
  00045	48 8b cf	 mov	 rcx, rdi
  00048	e8 00 00 00 00	 call	 ??3@YAXPEAX_K@Z		; operator delete
  0004d	90		 npad	 1
$LN9@scalar:
  0004e	48 8b c7	 mov	 rax, rdi
  00051	48 8b 5c 24 48	 mov	 rbx, QWORD PTR [rsp+72]
  00056	48 83 c4 30	 add	 rsp, 48			; 00000030H
  0005a	5f		 pop	 rdi
  0005b	c3		 ret	 0
??_GException@Internal@Core@Math@Palmtree@@UEAAPEAXI@Z ENDP ; Palmtree::Math::Core::Internal::Exception::`scalar deleting destructor'
_TEXT	ENDS
;	COMDAT text$x
text$x	SEGMENT
$T1 = 32
this$ = 64
__flags$ = 72
?dtor$0@?0???_GException@Internal@Core@Math@Palmtree@@UEAAPEAXI@Z@4HA PROC ; `Palmtree::Math::Core::Internal::Exception::`scalar deleting destructor''::`1'::dtor$0
  00000	48 8b 8a 40 00
	00 00		 mov	 rcx, QWORD PTR this$[rdx]
  00007	e9 00 00 00 00	 jmp	 ??1exception@std@@UEAA@XZ ; std::exception::~exception
?dtor$0@?0???_GException@Internal@Core@Math@Palmtree@@UEAAPEAXI@Z@4HA ENDP ; `Palmtree::Math::Core::Internal::Exception::`scalar deleting destructor''::`1'::dtor$0
text$x	ENDS
; Function compile flags: /Ogtpy
;	COMDAT text$x
text$x	SEGMENT
$T1 = 32
this$ = 64
__flags$ = 72
?dtor$0@?0???_GException@Internal@Core@Math@Palmtree@@UEAAPEAXI@Z@4HA PROC ; `Palmtree::Math::Core::Internal::Exception::`scalar deleting destructor''::`1'::dtor$0
  00000	48 8b 8a 40 00
	00 00		 mov	 rcx, QWORD PTR this$[rdx]
  00007	e9 00 00 00 00	 jmp	 ??1exception@std@@UEAA@XZ ; std::exception::~exception
?dtor$0@?0???_GException@Internal@Core@Math@Palmtree@@UEAAPEAXI@Z@4HA ENDP ; `Palmtree::Math::Core::Internal::Exception::`scalar deleting destructor''::`1'::dtor$0
text$x	ENDS
; Function compile flags: /Ogtpy
; File z:\sources\lunor\repos\rougemeilland\palmtree.math.core.uint\palmtree.math.core.uint\pmc_exception.h
; File c:\program files (x86)\microsoft visual studio\2017\community\vc\tools\msvc\14.16.27023\include\vcruntime_exception.h
; File z:\sources\lunor\repos\rougemeilland\palmtree.math.core.uint\palmtree.math.core.uint\pmc_exception.h
;	COMDAT ??1Exception@Internal@Core@Math@Palmtree@@UEAA@XZ
_TEXT	SEGMENT
$T1 = 32
this$ = 64
??1Exception@Internal@Core@Math@Palmtree@@UEAA@XZ PROC	; Palmtree::Math::Core::Internal::Exception::~Exception, COMDAT

; 70   :         {

$LN8:
  00000	48 89 4c 24 08	 mov	 QWORD PTR [rsp+8], rcx
  00005	48 83 ec 38	 sub	 rsp, 56			; 00000038H
  00009	48 c7 44 24 20
	fe ff ff ff	 mov	 QWORD PTR $T1[rsp], -2
  00012	48 8d 05 00 00
	00 00		 lea	 rax, OFFSET FLAT:??_7Exception@Internal@Core@Math@Palmtree@@6B@
  00019	48 89 01	 mov	 QWORD PTR [rcx], rax
; File c:\program files (x86)\microsoft visual studio\2017\community\vc\tools\msvc\14.16.27023\include\vcruntime_exception.h

; 85   :     {

  0001c	48 8d 05 00 00
	00 00		 lea	 rax, OFFSET FLAT:??_7exception@std@@6B@
  00023	48 89 01	 mov	 QWORD PTR [rcx], rax

; 86   :         __std_exception_destroy(&_Data);

  00026	48 83 c1 08	 add	 rcx, 8
  0002a	e8 00 00 00 00	 call	 __std_exception_destroy
  0002f	90		 npad	 1
; File z:\sources\lunor\repos\rougemeilland\palmtree.math.core.uint\palmtree.math.core.uint\pmc_exception.h

; 71   :         }

  00030	48 83 c4 38	 add	 rsp, 56			; 00000038H
  00034	c3		 ret	 0
??1Exception@Internal@Core@Math@Palmtree@@UEAA@XZ ENDP	; Palmtree::Math::Core::Internal::Exception::~Exception
_TEXT	ENDS
;	COMDAT text$x
text$x	SEGMENT
$T1 = 32
this$ = 64
?dtor$0@?0???1Exception@Internal@Core@Math@Palmtree@@UEAA@XZ@4HA PROC ; `Palmtree::Math::Core::Internal::Exception::~Exception'::`1'::dtor$0
  00000	48 8b 8a 40 00
	00 00		 mov	 rcx, QWORD PTR this$[rdx]
  00007	e9 00 00 00 00	 jmp	 ??1exception@std@@UEAA@XZ ; std::exception::~exception
?dtor$0@?0???1Exception@Internal@Core@Math@Palmtree@@UEAA@XZ@4HA ENDP ; `Palmtree::Math::Core::Internal::Exception::~Exception'::`1'::dtor$0
text$x	ENDS
; Function compile flags: /Ogtpy
;	COMDAT text$x
text$x	SEGMENT
$T1 = 32
this$ = 64
?dtor$0@?0???1Exception@Internal@Core@Math@Palmtree@@UEAA@XZ@4HA PROC ; `Palmtree::Math::Core::Internal::Exception::~Exception'::`1'::dtor$0
  00000	48 8b 8a 40 00
	00 00		 mov	 rcx, QWORD PTR this$[rdx]
  00007	e9 00 00 00 00	 jmp	 ??1exception@std@@UEAA@XZ ; std::exception::~exception
?dtor$0@?0???1Exception@Internal@Core@Math@Palmtree@@UEAA@XZ@4HA ENDP ; `Palmtree::Math::Core::Internal::Exception::~Exception'::`1'::dtor$0
text$x	ENDS
; Function compile flags: /Ogtpy
; File z:\sources\lunor\repos\rougemeilland\palmtree.math.core.uint\palmtree.math.core.uint\pmc_exception.h
; File c:\program files (x86)\microsoft visual studio\2017\community\vc\tools\msvc\14.16.27023\include\vcruntime_exception.h
; File z:\sources\lunor\repos\rougemeilland\palmtree.math.core.uint\palmtree.math.core.uint\pmc_exception.h
;	COMDAT ??0Exception@Internal@Core@Math@Palmtree@@QEAA@AEBV01234@@Z
_TEXT	SEGMENT
$T1 = 0
this$ = 32
p$ = 40
??0Exception@Internal@Core@Math@Palmtree@@QEAA@AEBV01234@@Z PROC ; Palmtree::Math::Core::Internal::Exception::Exception, COMDAT

; 62   :         Exception(const Exception& p) noexcept(true)

$LN8:
  00000	48 89 4c 24 08	 mov	 QWORD PTR [rsp+8], rcx
  00005	48 83 ec 18	 sub	 rsp, 24
  00009	48 c7 04 24 fe
	ff ff ff	 mov	 QWORD PTR $T1[rsp], -2
; File c:\program files (x86)\microsoft visual studio\2017\community\vc\tools\msvc\14.16.27023\include\vcruntime_exception.h

; 50   :     {

  00011	48 8d 05 00 00
	00 00		 lea	 rax, OFFSET FLAT:??_7exception@std@@6B@
  00018	48 89 01	 mov	 QWORD PTR [rcx], rax

; 49   :         : _Data()

  0001b	33 c0		 xor	 eax, eax
  0001d	48 89 41 08	 mov	 QWORD PTR [rcx+8], rax
  00021	48 89 41 10	 mov	 QWORD PTR [rcx+16], rax
; File z:\sources\lunor\repos\rougemeilland\palmtree.math.core.uint\palmtree.math.core.uint\pmc_exception.h

; 62   :         Exception(const Exception& p) noexcept(true)

  00025	48 8d 05 00 00
	00 00		 lea	 rax, OFFSET FLAT:??_7Exception@Internal@Core@Math@Palmtree@@6B@
  0002c	48 89 01	 mov	 QWORD PTR [rcx], rax

; 63   :         {
; 64   :             _code = p._code;

  0002f	8b 42 18	 mov	 eax, DWORD PTR [rdx+24]
  00032	89 41 18	 mov	 DWORD PTR [rcx+24], eax

; 65   :             _message = p._message;

  00035	48 8b 42 20	 mov	 rax, QWORD PTR [rdx+32]
  00039	48 89 41 20	 mov	 QWORD PTR [rcx+32], rax

; 66   :             _data = p._data;

  0003d	48 8b 42 28	 mov	 rax, QWORD PTR [rdx+40]
  00041	48 89 41 28	 mov	 QWORD PTR [rcx+40], rax

; 67   :         }

  00045	48 8b c1	 mov	 rax, rcx
  00048	48 83 c4 18	 add	 rsp, 24
  0004c	c3		 ret	 0
??0Exception@Internal@Core@Math@Palmtree@@QEAA@AEBV01234@@Z ENDP ; Palmtree::Math::Core::Internal::Exception::Exception
_TEXT	ENDS
;	COMDAT text$x
text$x	SEGMENT
$T1 = 0
this$ = 32
p$ = 40
?dtor$0@?0???0Exception@Internal@Core@Math@Palmtree@@QEAA@AEBV01234@@Z@4HA PROC ; `Palmtree::Math::Core::Internal::Exception::Exception'::`1'::dtor$0
  00000	48 8b 8a 20 00
	00 00		 mov	 rcx, QWORD PTR this$[rdx]
  00007	e9 00 00 00 00	 jmp	 ??1exception@std@@UEAA@XZ ; std::exception::~exception
?dtor$0@?0???0Exception@Internal@Core@Math@Palmtree@@QEAA@AEBV01234@@Z@4HA ENDP ; `Palmtree::Math::Core::Internal::Exception::Exception'::`1'::dtor$0
text$x	ENDS
; Function compile flags: /Ogtpy
;	COMDAT text$x
text$x	SEGMENT
$T1 = 0
this$ = 32
p$ = 40
?dtor$0@?0???0Exception@Internal@Core@Math@Palmtree@@QEAA@AEBV01234@@Z@4HA PROC ; `Palmtree::Math::Core::Internal::Exception::Exception'::`1'::dtor$0
  00000	48 8b 8a 20 00
	00 00		 mov	 rcx, QWORD PTR this$[rdx]
  00007	e9 00 00 00 00	 jmp	 ??1exception@std@@UEAA@XZ ; std::exception::~exception
?dtor$0@?0???0Exception@Internal@Core@Math@Palmtree@@QEAA@AEBV01234@@Z@4HA ENDP ; `Palmtree::Math::Core::Internal::Exception::Exception'::`1'::dtor$0
text$x	ENDS
; Function compile flags: /Ogtpy
; File z:\sources\lunor\repos\rougemeilland\palmtree.math.core.uint\palmtree.math.core.uint\pmc_exception.h
; File c:\program files (x86)\microsoft visual studio\2017\community\vc\tools\msvc\14.16.27023\include\vcruntime_exception.h
; File z:\sources\lunor\repos\rougemeilland\palmtree.math.core.uint\palmtree.math.core.uint\pmc_exception.h
;	COMDAT ??0Exception@Internal@Core@Math@Palmtree@@IEAA@HPEB_W0@Z
_TEXT	SEGMENT
$T1 = 0
this$ = 32
code$ = 40
message$ = 48
data$ = 56
??0Exception@Internal@Core@Math@Palmtree@@IEAA@HPEB_W0@Z PROC ; Palmtree::Math::Core::Internal::Exception::Exception, COMDAT

; 54   :         Exception(PMC_STATUS_CODE code, const wchar_t* message, const wchar_t* data) noexcept(true)

$LN8:
  00000	48 89 4c 24 08	 mov	 QWORD PTR [rsp+8], rcx
  00005	48 83 ec 18	 sub	 rsp, 24
  00009	48 c7 04 24 fe
	ff ff ff	 mov	 QWORD PTR $T1[rsp], -2
; File c:\program files (x86)\microsoft visual studio\2017\community\vc\tools\msvc\14.16.27023\include\vcruntime_exception.h

; 50   :     {

  00011	48 8d 05 00 00
	00 00		 lea	 rax, OFFSET FLAT:??_7exception@std@@6B@
  00018	48 89 01	 mov	 QWORD PTR [rcx], rax

; 49   :         : _Data()

  0001b	33 c0		 xor	 eax, eax
  0001d	48 89 41 08	 mov	 QWORD PTR [rcx+8], rax
  00021	48 89 41 10	 mov	 QWORD PTR [rcx+16], rax
; File z:\sources\lunor\repos\rougemeilland\palmtree.math.core.uint\palmtree.math.core.uint\pmc_exception.h

; 54   :         Exception(PMC_STATUS_CODE code, const wchar_t* message, const wchar_t* data) noexcept(true)

  00025	48 8d 05 00 00
	00 00		 lea	 rax, OFFSET FLAT:??_7Exception@Internal@Core@Math@Palmtree@@6B@
  0002c	48 89 01	 mov	 QWORD PTR [rcx], rax

; 55   :         {
; 56   :             _code = code;

  0002f	89 51 18	 mov	 DWORD PTR [rcx+24], edx

; 57   :             _message = message;

  00032	4c 89 41 20	 mov	 QWORD PTR [rcx+32], r8

; 58   :             _data = data;

  00036	4c 89 49 28	 mov	 QWORD PTR [rcx+40], r9

; 59   :         }

  0003a	48 8b c1	 mov	 rax, rcx
  0003d	48 83 c4 18	 add	 rsp, 24
  00041	c3		 ret	 0
??0Exception@Internal@Core@Math@Palmtree@@IEAA@HPEB_W0@Z ENDP ; Palmtree::Math::Core::Internal::Exception::Exception
_TEXT	ENDS
;	COMDAT text$x
text$x	SEGMENT
$T1 = 0
this$ = 32
code$ = 40
message$ = 48
data$ = 56
?dtor$0@?0???0Exception@Internal@Core@Math@Palmtree@@IEAA@HPEB_W0@Z@4HA PROC ; `Palmtree::Math::Core::Internal::Exception::Exception'::`1'::dtor$0
  00000	48 8b 8a 20 00
	00 00		 mov	 rcx, QWORD PTR this$[rdx]
  00007	e9 00 00 00 00	 jmp	 ??1exception@std@@UEAA@XZ ; std::exception::~exception
?dtor$0@?0???0Exception@Internal@Core@Math@Palmtree@@IEAA@HPEB_W0@Z@4HA ENDP ; `Palmtree::Math::Core::Internal::Exception::Exception'::`1'::dtor$0
text$x	ENDS
; Function compile flags: /Ogtpy
;	COMDAT text$x
text$x	SEGMENT
$T1 = 0
this$ = 32
code$ = 40
message$ = 48
data$ = 56
?dtor$0@?0???0Exception@Internal@Core@Math@Palmtree@@IEAA@HPEB_W0@Z@4HA PROC ; `Palmtree::Math::Core::Internal::Exception::Exception'::`1'::dtor$0
  00000	48 8b 8a 20 00
	00 00		 mov	 rcx, QWORD PTR this$[rdx]
  00007	e9 00 00 00 00	 jmp	 ??1exception@std@@UEAA@XZ ; std::exception::~exception
?dtor$0@?0???0Exception@Internal@Core@Math@Palmtree@@IEAA@HPEB_W0@Z@4HA ENDP ; `Palmtree::Math::Core::Internal::Exception::Exception'::`1'::dtor$0
text$x	ENDS
; Function compile flags: /Ogtpy
; File c:\program files (x86)\microsoft visual studio\2017\community\vc\tools\msvc\14.16.27023\include\vcruntime_exception.h
;	COMDAT ??_Gexception@std@@UEAAPEAXI@Z
_TEXT	SEGMENT
$T1 = 32
this$ = 64
__flags$ = 72
??_Gexception@std@@UEAAPEAXI@Z PROC			; std::exception::`scalar deleting destructor', COMDAT
$LN9:
  00000	40 57		 push	 rdi
  00002	48 83 ec 30	 sub	 rsp, 48			; 00000030H
  00006	48 c7 44 24 20
	fe ff ff ff	 mov	 QWORD PTR $T1[rsp], -2
  0000f	48 89 5c 24 40	 mov	 QWORD PTR [rsp+64], rbx
  00014	8b da		 mov	 ebx, edx
  00016	48 8b f9	 mov	 rdi, rcx

; 85   :     {

  00019	48 8d 05 00 00
	00 00		 lea	 rax, OFFSET FLAT:??_7exception@std@@6B@
  00020	48 89 01	 mov	 QWORD PTR [rcx], rax

; 86   :         __std_exception_destroy(&_Data);

  00023	48 83 c1 08	 add	 rcx, 8
  00027	e8 00 00 00 00	 call	 __std_exception_destroy
  0002c	90		 npad	 1
  0002d	f6 c3 01	 test	 bl, 1
  00030	74 0e		 je	 SHORT $LN6@scalar
  00032	ba 18 00 00 00	 mov	 edx, 24
  00037	48 8b cf	 mov	 rcx, rdi
  0003a	e8 00 00 00 00	 call	 ??3@YAXPEAX_K@Z		; operator delete
  0003f	90		 npad	 1
$LN6@scalar:
  00040	48 8b c7	 mov	 rax, rdi
  00043	48 8b 5c 24 40	 mov	 rbx, QWORD PTR [rsp+64]
  00048	48 83 c4 30	 add	 rsp, 48			; 00000030H
  0004c	5f		 pop	 rdi
  0004d	c3		 ret	 0
??_Gexception@std@@UEAAPEAXI@Z ENDP			; std::exception::`scalar deleting destructor'
_TEXT	ENDS
; Function compile flags: /Ogtpy
; File c:\program files (x86)\microsoft visual studio\2017\community\vc\tools\msvc\14.16.27023\include\vcruntime_exception.h
;	COMDAT ?what@exception@std@@UEBAPEBDXZ
_TEXT	SEGMENT
this$ = 8
?what@exception@std@@UEBAPEBDXZ PROC			; std::exception::what, COMDAT

; 91   :         return _Data._What ? _Data._What : "Unknown exception";

  00000	48 8b 51 08	 mov	 rdx, QWORD PTR [rcx+8]
  00004	48 8d 05 00 00
	00 00		 lea	 rax, OFFSET FLAT:??_C@_0BC@EOODALEL@Unknown?5exception@
  0000b	48 85 d2	 test	 rdx, rdx
  0000e	48 0f 45 c2	 cmovne	 rax, rdx

; 92   :     }

  00012	c3		 ret	 0
?what@exception@std@@UEBAPEBDXZ ENDP			; std::exception::what
_TEXT	ENDS
; Function compile flags: /Ogtpy
; File c:\program files (x86)\microsoft visual studio\2017\community\vc\tools\msvc\14.16.27023\include\vcruntime_exception.h
;	COMDAT ??1exception@std@@UEAA@XZ
_TEXT	SEGMENT
$T1 = 32
this$ = 64
??1exception@std@@UEAA@XZ PROC				; std::exception::~exception, COMDAT

; 85   :     {

$LN5:
  00000	48 83 ec 38	 sub	 rsp, 56			; 00000038H
  00004	48 c7 44 24 20
	fe ff ff ff	 mov	 QWORD PTR $T1[rsp], -2
  0000d	48 8d 05 00 00
	00 00		 lea	 rax, OFFSET FLAT:??_7exception@std@@6B@
  00014	48 89 01	 mov	 QWORD PTR [rcx], rax

; 86   :         __std_exception_destroy(&_Data);

  00017	48 83 c1 08	 add	 rcx, 8
  0001b	e8 00 00 00 00	 call	 __std_exception_destroy
  00020	90		 npad	 1

; 87   :     }

  00021	48 83 c4 38	 add	 rsp, 56			; 00000038H
  00025	c3		 ret	 0
??1exception@std@@UEAA@XZ ENDP				; std::exception::~exception
_TEXT	ENDS
; Function compile flags: /Ogtpy
; File c:\program files (x86)\microsoft visual studio\2017\community\vc\tools\msvc\14.16.27023\include\vcruntime_exception.h
;	COMDAT ??0exception@std@@QEAA@XZ
_TEXT	SEGMENT
this$ = 8
??0exception@std@@QEAA@XZ PROC				; std::exception::exception, COMDAT

; 50   :     {

  00000	48 8d 05 00 00
	00 00		 lea	 rax, OFFSET FLAT:??_7exception@std@@6B@
  00007	48 89 01	 mov	 QWORD PTR [rcx], rax
  0000a	33 c0		 xor	 eax, eax
  0000c	48 89 41 08	 mov	 QWORD PTR [rcx+8], rax
  00010	48 89 41 10	 mov	 QWORD PTR [rcx+16], rax

; 51   :     }

  00014	48 8b c1	 mov	 rax, rcx
  00017	c3		 ret	 0
??0exception@std@@QEAA@XZ ENDP				; std::exception::exception
_TEXT	ENDS
END
