; Listing generated by Microsoft (R) Optimizing Compiler Version 19.16.27027.1 

include listing.inc

INCLUDELIB MSVCRT
INCLUDELIB OLDNAMES

PUBLIC	?hLocalHeap@Internal@Core@Math@Palmtree@@3PEAXEA ; Palmtree::Math::Core::Internal::hLocalHeap
PUBLIC	?mcs@Internal@Core@Math@Palmtree@@3U_RTL_CRITICAL_SECTION@@A ; Palmtree::Math::Core::Internal::mcs
PUBLIC	?number_zero@Internal@Core@Math@Palmtree@@3U__tag_NUMBER_HEADER@1234@A ; Palmtree::Math::Core::Internal::number_zero
PUBLIC	?number_one@Internal@Core@Math@Palmtree@@3U__tag_NUMBER_HEADER@1234@A ; Palmtree::Math::Core::Internal::number_one
_BSS	SEGMENT
?hLocalHeap@Internal@Core@Math@Palmtree@@3PEAXEA DQ 01H DUP (?) ; Palmtree::Math::Core::Internal::hLocalHeap
?mcs@Internal@Core@Math@Palmtree@@3U_RTL_CRITICAL_SECTION@@A DB 028H DUP (?) ; Palmtree::Math::Core::Internal::mcs
?number_zero@Internal@Core@Math@Palmtree@@3U__tag_NUMBER_HEADER@1234@A DB 050H DUP (?) ; Palmtree::Math::Core::Internal::number_zero
?number_one@Internal@Core@Math@Palmtree@@3U__tag_NUMBER_HEADER@1234@A DB 050H DUP (?) ; Palmtree::Math::Core::Internal::number_one
_BSS	ENDS
PUBLIC	??1exception@std@@UEAA@XZ			; std::exception::~exception
PUBLIC	?what@exception@std@@UEBAPEBDXZ			; std::exception::what
PUBLIC	??_Gexception@std@@UEAAPEAXI@Z			; std::exception::`scalar deleting destructor'
PUBLIC	??0Exception@Internal@Core@Math@Palmtree@@QEAA@AEBV01234@@Z ; Palmtree::Math::Core::Internal::Exception::Exception
PUBLIC	??1Exception@Internal@Core@Math@Palmtree@@UEAA@XZ ; Palmtree::Math::Core::Internal::Exception::~Exception
PUBLIC	??_GException@Internal@Core@Math@Palmtree@@UEAAPEAXI@Z ; Palmtree::Math::Core::Internal::Exception::`scalar deleting destructor'
PUBLIC	??0ArgumentException@Internal@Core@Math@Palmtree@@QEAA@PEB_W@Z ; Palmtree::Math::Core::Internal::ArgumentException::ArgumentException
PUBLIC	??0ArgumentException@Internal@Core@Math@Palmtree@@QEAA@AEBV01234@@Z ; Palmtree::Math::Core::Internal::ArgumentException::ArgumentException
PUBLIC	??1ArgumentException@Internal@Core@Math@Palmtree@@UEAA@XZ ; Palmtree::Math::Core::Internal::ArgumentException::~ArgumentException
PUBLIC	??_GArgumentException@Internal@Core@Math@Palmtree@@UEAAPEAXI@Z ; Palmtree::Math::Core::Internal::ArgumentException::`scalar deleting destructor'
PUBLIC	??0ArgumentNullException@Internal@Core@Math@Palmtree@@QEAA@PEB_W0@Z ; Palmtree::Math::Core::Internal::ArgumentNullException::ArgumentNullException
PUBLIC	??0ArgumentNullException@Internal@Core@Math@Palmtree@@QEAA@AEBV01234@@Z ; Palmtree::Math::Core::Internal::ArgumentNullException::ArgumentNullException
PUBLIC	??1ArgumentNullException@Internal@Core@Math@Palmtree@@UEAA@XZ ; Palmtree::Math::Core::Internal::ArgumentNullException::~ArgumentNullException
PUBLIC	??_GArgumentNullException@Internal@Core@Math@Palmtree@@UEAAPEAXI@Z ; Palmtree::Math::Core::Internal::ArgumentNullException::`scalar deleting destructor'
PUBLIC	??0NotEnoughMemoryException@Internal@Core@Math@Palmtree@@QEAA@PEB_W@Z ; Palmtree::Math::Core::Internal::NotEnoughMemoryException::NotEnoughMemoryException
PUBLIC	??0NotEnoughMemoryException@Internal@Core@Math@Palmtree@@QEAA@AEBV01234@@Z ; Palmtree::Math::Core::Internal::NotEnoughMemoryException::NotEnoughMemoryException
PUBLIC	??1NotEnoughMemoryException@Internal@Core@Math@Palmtree@@UEAA@XZ ; Palmtree::Math::Core::Internal::NotEnoughMemoryException::~NotEnoughMemoryException
PUBLIC	??_GNotEnoughMemoryException@Internal@Core@Math@Palmtree@@UEAAPEAXI@Z ; Palmtree::Math::Core::Internal::NotEnoughMemoryException::`scalar deleting destructor'
PUBLIC	??0InternalErrorException@Internal@Core@Math@Palmtree@@QEAA@PEB_W0@Z ; Palmtree::Math::Core::Internal::InternalErrorException::InternalErrorException
PUBLIC	??0InternalErrorException@Internal@Core@Math@Palmtree@@QEAA@AEBV01234@@Z ; Palmtree::Math::Core::Internal::InternalErrorException::InternalErrorException
PUBLIC	??1InternalErrorException@Internal@Core@Math@Palmtree@@UEAA@XZ ; Palmtree::Math::Core::Internal::InternalErrorException::~InternalErrorException
PUBLIC	??_GInternalErrorException@Internal@Core@Math@Palmtree@@UEAAPEAXI@Z ; Palmtree::Math::Core::Internal::InternalErrorException::`scalar deleting destructor'
PUBLIC	??0BadBufferException@Internal@Core@Math@Palmtree@@QEAA@PEB_W0@Z ; Palmtree::Math::Core::Internal::BadBufferException::BadBufferException
PUBLIC	??0BadBufferException@Internal@Core@Math@Palmtree@@QEAA@AEBV01234@@Z ; Palmtree::Math::Core::Internal::BadBufferException::BadBufferException
PUBLIC	??1BadBufferException@Internal@Core@Math@Palmtree@@UEAA@XZ ; Palmtree::Math::Core::Internal::BadBufferException::~BadBufferException
PUBLIC	??_GBadBufferException@Internal@Core@Math@Palmtree@@UEAAPEAXI@Z ; Palmtree::Math::Core::Internal::BadBufferException::`scalar deleting destructor'
PUBLIC	?AllocateHeapArea@Internal@Core@Math@Palmtree@@YAHXZ ; Palmtree::Math::Core::Internal::AllocateHeapArea
PUBLIC	?DeallocateHeapArea@Internal@Core@Math@Palmtree@@YAXXZ ; Palmtree::Math::Core::Internal::DeallocateHeapArea
PUBLIC	?CommitNumber@Internal@Core@Math@Palmtree@@YAXPEAU__tag_NUMBER_HEADER@1234@@Z ; Palmtree::Math::Core::Internal::CommitNumber
PUBLIC	?CheckNumber@Internal@Core@Math@Palmtree@@YAXPEAU__tag_NUMBER_HEADER@1234@@Z ; Palmtree::Math::Core::Internal::CheckNumber
PUBLIC	?DuplicateNumber@Internal@Core@Math@Palmtree@@YAPEAU__tag_NUMBER_HEADER@1234@PEAU51234@@Z ; Palmtree::Math::Core::Internal::DuplicateNumber
PUBLIC	?Initialize_Memory@Internal@Core@Math@Palmtree@@YAHPEAU_tag_PROCESSOR_FEATURES@1234@@Z ; Palmtree::Math::Core::Internal::Initialize_Memory
PUBLIC	?PMC_Dispose@Internal@Core@Math@Palmtree@@YAXPEAU__tag_PMC_HANDLE_UINT@1234@@Z ; Palmtree::Math::Core::Internal::PMC_Dispose
PUBLIC	?PMC_GetConstantValue_I@Internal@Core@Math@Palmtree@@YAPEAU__tag_PMC_HANDLE_UINT@1234@H@Z ; Palmtree::Math::Core::Internal::PMC_GetConstantValue_I
PUBLIC	?PMC_Clone_X@Internal@Core@Math@Palmtree@@YAPEAU__tag_PMC_HANDLE_UINT@1234@PEAU51234@@Z ; Palmtree::Math::Core::Internal::PMC_Clone_X
PUBLIC	?PMC_GetAllocatedMemorySize@Internal@Core@Math@Palmtree@@YA_KXZ ; Palmtree::Math::Core::Internal::PMC_GetAllocatedMemorySize
PUBLIC	??0Lock@Internal@Core@Math@Palmtree@@QEAA@XZ	; Palmtree::Math::Core::Internal::Lock::Lock
PUBLIC	??1Lock@Internal@Core@Math@Palmtree@@QEAA@XZ	; Palmtree::Math::Core::Internal::Lock::~Lock
PUBLIC	??1__ChainBufferTag@ResourceHolder@Internal@Core@Math@Palmtree@@UEAA@XZ ; Palmtree::Math::Core::Internal::ResourceHolder::__ChainBufferTag::~__ChainBufferTag
PUBLIC	?Clear@__ChainBufferTag@ResourceHolder@Internal@Core@Math@Palmtree@@UEAAXXZ ; Palmtree::Math::Core::Internal::ResourceHolder::__ChainBufferTag::Clear
PUBLIC	?Check@__ChainBufferTag@ResourceHolder@Internal@Core@Math@Palmtree@@UEAAXXZ ; Palmtree::Math::Core::Internal::ResourceHolder::__ChainBufferTag::Check
PUBLIC	??_G__ChainBufferTag@ResourceHolder@Internal@Core@Math@Palmtree@@UEAAPEAXI@Z ; Palmtree::Math::Core::Internal::ResourceHolder::__ChainBufferTag::`scalar deleting destructor'
PUBLIC	??1__RootTag@ResourceHolder@Internal@Core@Math@Palmtree@@UEAA@XZ ; Palmtree::Math::Core::Internal::ResourceHolder::__RootTag::~__RootTag
PUBLIC	?EqualsBufferAddress@__RootTag@ResourceHolder@Internal@Core@Math@Palmtree@@UEAAHPEAX@Z ; Palmtree::Math::Core::Internal::ResourceHolder::__RootTag::EqualsBufferAddress
PUBLIC	?Destruct@__RootTag@ResourceHolder@Internal@Core@Math@Palmtree@@UEAAXXZ ; Palmtree::Math::Core::Internal::ResourceHolder::__RootTag::Destruct
PUBLIC	??_G__RootTag@ResourceHolder@Internal@Core@Math@Palmtree@@UEAAPEAXI@Z ; Palmtree::Math::Core::Internal::ResourceHolder::__RootTag::`scalar deleting destructor'
PUBLIC	??1ResourceHolder@Internal@Core@Math@Palmtree@@UEAA@XZ ; Palmtree::Math::Core::Internal::ResourceHolder::~ResourceHolder
PUBLIC	??_GResourceHolder@Internal@Core@Math@Palmtree@@UEAAPEAXI@Z ; Palmtree::Math::Core::Internal::ResourceHolder::`scalar deleting destructor'
PUBLIC	??0__GenericChainBufferTag@ResourceHolderUINT@Internal@Core@Math@Palmtree@@QEAA@PEAX@Z ; Palmtree::Math::Core::Internal::ResourceHolderUINT::__GenericChainBufferTag::__GenericChainBufferTag
PUBLIC	??1__GenericChainBufferTag@ResourceHolderUINT@Internal@Core@Math@Palmtree@@UEAA@XZ ; Palmtree::Math::Core::Internal::ResourceHolderUINT::__GenericChainBufferTag::~__GenericChainBufferTag
PUBLIC	?EqualsBufferAddress@__GenericChainBufferTag@ResourceHolderUINT@Internal@Core@Math@Palmtree@@UEAAHPEAX@Z ; Palmtree::Math::Core::Internal::ResourceHolderUINT::__GenericChainBufferTag::EqualsBufferAddress
PUBLIC	?Destruct@__GenericChainBufferTag@ResourceHolderUINT@Internal@Core@Math@Palmtree@@UEAAXXZ ; Palmtree::Math::Core::Internal::ResourceHolderUINT::__GenericChainBufferTag::Destruct
PUBLIC	??_G__GenericChainBufferTag@ResourceHolderUINT@Internal@Core@Math@Palmtree@@UEAAPEAXI@Z ; Palmtree::Math::Core::Internal::ResourceHolderUINT::__GenericChainBufferTag::`scalar deleting destructor'
PUBLIC	??0____UNIT_TYPE_Array_ChainBufferTag@ResourceHolderUINT@Internal@Core@Math@Palmtree@@QEAA@PEA_K_K1@Z ; Palmtree::Math::Core::Internal::ResourceHolderUINT::____UNIT_TYPE_Array_ChainBufferTag::____UNIT_TYPE_Array_ChainBufferTag
PUBLIC	??1____UNIT_TYPE_Array_ChainBufferTag@ResourceHolderUINT@Internal@Core@Math@Palmtree@@UEAA@XZ ; Palmtree::Math::Core::Internal::ResourceHolderUINT::____UNIT_TYPE_Array_ChainBufferTag::~____UNIT_TYPE_Array_ChainBufferTag
PUBLIC	?EqualsBufferAddress@____UNIT_TYPE_Array_ChainBufferTag@ResourceHolderUINT@Internal@Core@Math@Palmtree@@UEAAHPEAX@Z ; Palmtree::Math::Core::Internal::ResourceHolderUINT::____UNIT_TYPE_Array_ChainBufferTag::EqualsBufferAddress
PUBLIC	?Clear@____UNIT_TYPE_Array_ChainBufferTag@ResourceHolderUINT@Internal@Core@Math@Palmtree@@UEAAXXZ ; Palmtree::Math::Core::Internal::ResourceHolderUINT::____UNIT_TYPE_Array_ChainBufferTag::Clear
PUBLIC	?Check@____UNIT_TYPE_Array_ChainBufferTag@ResourceHolderUINT@Internal@Core@Math@Palmtree@@UEAAXXZ ; Palmtree::Math::Core::Internal::ResourceHolderUINT::____UNIT_TYPE_Array_ChainBufferTag::Check
PUBLIC	?Destruct@____UNIT_TYPE_Array_ChainBufferTag@ResourceHolderUINT@Internal@Core@Math@Palmtree@@UEAAXXZ ; Palmtree::Math::Core::Internal::ResourceHolderUINT::____UNIT_TYPE_Array_ChainBufferTag::Destruct
PUBLIC	??_G____UNIT_TYPE_Array_ChainBufferTag@ResourceHolderUINT@Internal@Core@Math@Palmtree@@UEAAPEAXI@Z ; Palmtree::Math::Core::Internal::ResourceHolderUINT::____UNIT_TYPE_Array_ChainBufferTag::`scalar deleting destructor'
PUBLIC	??0__StringChainBufferTag@ResourceHolderUINT@Internal@Core@Math@Palmtree@@QEAA@PEA_K_K1@Z ; Palmtree::Math::Core::Internal::ResourceHolderUINT::__StringChainBufferTag::__StringChainBufferTag
PUBLIC	??1__StringChainBufferTag@ResourceHolderUINT@Internal@Core@Math@Palmtree@@UEAA@XZ ; Palmtree::Math::Core::Internal::ResourceHolderUINT::__StringChainBufferTag::~__StringChainBufferTag
PUBLIC	?EqualsBufferAddress@__StringChainBufferTag@ResourceHolderUINT@Internal@Core@Math@Palmtree@@UEAAHPEAX@Z ; Palmtree::Math::Core::Internal::ResourceHolderUINT::__StringChainBufferTag::EqualsBufferAddress
PUBLIC	?Clear@__StringChainBufferTag@ResourceHolderUINT@Internal@Core@Math@Palmtree@@UEAAXXZ ; Palmtree::Math::Core::Internal::ResourceHolderUINT::__StringChainBufferTag::Clear
PUBLIC	?Check@__StringChainBufferTag@ResourceHolderUINT@Internal@Core@Math@Palmtree@@UEAAXXZ ; Palmtree::Math::Core::Internal::ResourceHolderUINT::__StringChainBufferTag::Check
PUBLIC	?Destruct@__StringChainBufferTag@ResourceHolderUINT@Internal@Core@Math@Palmtree@@UEAAXXZ ; Palmtree::Math::Core::Internal::ResourceHolderUINT::__StringChainBufferTag::Destruct
PUBLIC	??_G__StringChainBufferTag@ResourceHolderUINT@Internal@Core@Math@Palmtree@@UEAAPEAXI@Z ; Palmtree::Math::Core::Internal::ResourceHolderUINT::__StringChainBufferTag::`scalar deleting destructor'
PUBLIC	??0__DynamicNumberChainBufferTag@ResourceHolderUINT@Internal@Core@Math@Palmtree@@QEAA@PEAU__tag_NUMBER_HEADER@2345@@Z ; Palmtree::Math::Core::Internal::ResourceHolderUINT::__DynamicNumberChainBufferTag::__DynamicNumberChainBufferTag
PUBLIC	??1__DynamicNumberChainBufferTag@ResourceHolderUINT@Internal@Core@Math@Palmtree@@UEAA@XZ ; Palmtree::Math::Core::Internal::ResourceHolderUINT::__DynamicNumberChainBufferTag::~__DynamicNumberChainBufferTag
PUBLIC	?EqualsBufferAddress@__DynamicNumberChainBufferTag@ResourceHolderUINT@Internal@Core@Math@Palmtree@@UEAAHPEAX@Z ; Palmtree::Math::Core::Internal::ResourceHolderUINT::__DynamicNumberChainBufferTag::EqualsBufferAddress
PUBLIC	?Check@__DynamicNumberChainBufferTag@ResourceHolderUINT@Internal@Core@Math@Palmtree@@UEAAXXZ ; Palmtree::Math::Core::Internal::ResourceHolderUINT::__DynamicNumberChainBufferTag::Check
PUBLIC	?Destruct@__DynamicNumberChainBufferTag@ResourceHolderUINT@Internal@Core@Math@Palmtree@@UEAAXXZ ; Palmtree::Math::Core::Internal::ResourceHolderUINT::__DynamicNumberChainBufferTag::Destruct
PUBLIC	??_G__DynamicNumberChainBufferTag@ResourceHolderUINT@Internal@Core@Math@Palmtree@@UEAAPEAXI@Z ; Palmtree::Math::Core::Internal::ResourceHolderUINT::__DynamicNumberChainBufferTag::`scalar deleting destructor'
PUBLIC	??0__NumberHandleHookingChainBufferTag@ResourceHolderUINT@Internal@Core@Math@Palmtree@@QEAA@PEAU__tag_NUMBER_HEADER@2345@@Z ; Palmtree::Math::Core::Internal::ResourceHolderUINT::__NumberHandleHookingChainBufferTag::__NumberHandleHookingChainBufferTag
PUBLIC	??1__NumberHandleHookingChainBufferTag@ResourceHolderUINT@Internal@Core@Math@Palmtree@@UEAA@XZ ; Palmtree::Math::Core::Internal::ResourceHolderUINT::__NumberHandleHookingChainBufferTag::~__NumberHandleHookingChainBufferTag
PUBLIC	?EqualsBufferAddress@__NumberHandleHookingChainBufferTag@ResourceHolderUINT@Internal@Core@Math@Palmtree@@UEAAHPEAX@Z ; Palmtree::Math::Core::Internal::ResourceHolderUINT::__NumberHandleHookingChainBufferTag::EqualsBufferAddress
PUBLIC	?Check@__NumberHandleHookingChainBufferTag@ResourceHolderUINT@Internal@Core@Math@Palmtree@@UEAAXXZ ; Palmtree::Math::Core::Internal::ResourceHolderUINT::__NumberHandleHookingChainBufferTag::Check
PUBLIC	?Destruct@__NumberHandleHookingChainBufferTag@ResourceHolderUINT@Internal@Core@Math@Palmtree@@UEAAXXZ ; Palmtree::Math::Core::Internal::ResourceHolderUINT::__NumberHandleHookingChainBufferTag::Destruct
PUBLIC	??_G__NumberHandleHookingChainBufferTag@ResourceHolderUINT@Internal@Core@Math@Palmtree@@UEAAPEAXI@Z ; Palmtree::Math::Core::Internal::ResourceHolderUINT::__NumberHandleHookingChainBufferTag::`scalar deleting destructor'
PUBLIC	??0__StaticNumberChainBufferTag@ResourceHolderUINT@Internal@Core@Math@Palmtree@@QEAA@PEAU__tag_NUMBER_HEADER@2345@@Z ; Palmtree::Math::Core::Internal::ResourceHolderUINT::__StaticNumberChainBufferTag::__StaticNumberChainBufferTag
PUBLIC	??1__StaticNumberChainBufferTag@ResourceHolderUINT@Internal@Core@Math@Palmtree@@UEAA@XZ ; Palmtree::Math::Core::Internal::ResourceHolderUINT::__StaticNumberChainBufferTag::~__StaticNumberChainBufferTag
PUBLIC	?EqualsBufferAddress@__StaticNumberChainBufferTag@ResourceHolderUINT@Internal@Core@Math@Palmtree@@UEAAHPEAX@Z ; Palmtree::Math::Core::Internal::ResourceHolderUINT::__StaticNumberChainBufferTag::EqualsBufferAddress
PUBLIC	?Check@__StaticNumberChainBufferTag@ResourceHolderUINT@Internal@Core@Math@Palmtree@@UEAAXXZ ; Palmtree::Math::Core::Internal::ResourceHolderUINT::__StaticNumberChainBufferTag::Check
PUBLIC	?Destruct@__StaticNumberChainBufferTag@ResourceHolderUINT@Internal@Core@Math@Palmtree@@UEAAXXZ ; Palmtree::Math::Core::Internal::ResourceHolderUINT::__StaticNumberChainBufferTag::Destruct
PUBLIC	??_G__StaticNumberChainBufferTag@ResourceHolderUINT@Internal@Core@Math@Palmtree@@UEAAPEAXI@Z ; Palmtree::Math::Core::Internal::ResourceHolderUINT::__StaticNumberChainBufferTag::`scalar deleting destructor'
PUBLIC	??0ResourceHolderUINT@Internal@Core@Math@Palmtree@@QEAA@XZ ; Palmtree::Math::Core::Internal::ResourceHolderUINT::ResourceHolderUINT
PUBLIC	??1ResourceHolderUINT@Internal@Core@Math@Palmtree@@UEAA@XZ ; Palmtree::Math::Core::Internal::ResourceHolderUINT::~ResourceHolderUINT
PUBLIC	?AllocateBytes@ResourceHolderUINT@Internal@Core@Math@Palmtree@@QEAAPEAX_K@Z ; Palmtree::Math::Core::Internal::ResourceHolderUINT::AllocateBytes
PUBLIC	?DeallocateBytes@ResourceHolderUINT@Internal@Core@Math@Palmtree@@QEAAXPEAX@Z ; Palmtree::Math::Core::Internal::ResourceHolderUINT::DeallocateBytes
PUBLIC	?UnlinkBytes@ResourceHolderUINT@Internal@Core@Math@Palmtree@@QEAAXPEAX@Z ; Palmtree::Math::Core::Internal::ResourceHolderUINT::UnlinkBytes
PUBLIC	?AllocateBlock@ResourceHolderUINT@Internal@Core@Math@Palmtree@@QEAAPEA_K_K@Z ; Palmtree::Math::Core::Internal::ResourceHolderUINT::AllocateBlock
PUBLIC	?ClearBlock@ResourceHolderUINT@Internal@Core@Math@Palmtree@@QEAAXPEA_K@Z ; Palmtree::Math::Core::Internal::ResourceHolderUINT::ClearBlock
PUBLIC	?DeallocateBlock@ResourceHolderUINT@Internal@Core@Math@Palmtree@@QEAAXPEA_K@Z ; Palmtree::Math::Core::Internal::ResourceHolderUINT::DeallocateBlock
PUBLIC	?CheckBlock@ResourceHolderUINT@Internal@Core@Math@Palmtree@@QEAAXPEA_K@Z ; Palmtree::Math::Core::Internal::ResourceHolderUINT::CheckBlock
PUBLIC	?UnlinkBlock@ResourceHolderUINT@Internal@Core@Math@Palmtree@@QEAAXPEA_K@Z ; Palmtree::Math::Core::Internal::ResourceHolderUINT::UnlinkBlock
PUBLIC	?AllocateString@ResourceHolderUINT@Internal@Core@Math@Palmtree@@QEAAPEA_W_K@Z ; Palmtree::Math::Core::Internal::ResourceHolderUINT::AllocateString
PUBLIC	?ClearString@ResourceHolderUINT@Internal@Core@Math@Palmtree@@QEAAXPEA_W@Z ; Palmtree::Math::Core::Internal::ResourceHolderUINT::ClearString
PUBLIC	?DeallocateString@ResourceHolderUINT@Internal@Core@Math@Palmtree@@QEAAXPEA_W@Z ; Palmtree::Math::Core::Internal::ResourceHolderUINT::DeallocateString
PUBLIC	?CheckString@ResourceHolderUINT@Internal@Core@Math@Palmtree@@QEAAXPEA_W@Z ; Palmtree::Math::Core::Internal::ResourceHolderUINT::CheckString
PUBLIC	?UnlinkString@ResourceHolderUINT@Internal@Core@Math@Palmtree@@QEAAXPEA_W@Z ; Palmtree::Math::Core::Internal::ResourceHolderUINT::UnlinkString
PUBLIC	?AllocateNumber@ResourceHolderUINT@Internal@Core@Math@Palmtree@@QEAAPEAU__tag_NUMBER_HEADER@2345@_K@Z ; Palmtree::Math::Core::Internal::ResourceHolderUINT::AllocateNumber
PUBLIC	?HookNumber@ResourceHolderUINT@Internal@Core@Math@Palmtree@@QEAAXPEAU__tag_NUMBER_HEADER@2345@@Z ; Palmtree::Math::Core::Internal::ResourceHolderUINT::HookNumber
PUBLIC	?DeallocateNumber@ResourceHolderUINT@Internal@Core@Math@Palmtree@@QEAAXPEAU__tag_NUMBER_HEADER@2345@@Z ; Palmtree::Math::Core::Internal::ResourceHolderUINT::DeallocateNumber
PUBLIC	?CheckNumber@ResourceHolderUINT@Internal@Core@Math@Palmtree@@QEAAXPEAU__tag_NUMBER_HEADER@2345@@Z ; Palmtree::Math::Core::Internal::ResourceHolderUINT::CheckNumber
PUBLIC	?UnlinkNumber@ResourceHolderUINT@Internal@Core@Math@Palmtree@@QEAAXPEAU__tag_NUMBER_HEADER@2345@@Z ; Palmtree::Math::Core::Internal::ResourceHolderUINT::UnlinkNumber
PUBLIC	?AttatchStaticNumber@ResourceHolderUINT@Internal@Core@Math@Palmtree@@QEAAXPEAU__tag_NUMBER_HEADER@2345@_K@Z ; Palmtree::Math::Core::Internal::ResourceHolderUINT::AttatchStaticNumber
PUBLIC	?DetatchStaticNumber@ResourceHolderUINT@Internal@Core@Math@Palmtree@@QEAAXPEAU__tag_NUMBER_HEADER@2345@@Z ; Palmtree::Math::Core::Internal::ResourceHolderUINT::DetatchStaticNumber
PUBLIC	?UnlinkStatickNumber@ResourceHolderUINT@Internal@Core@Math@Palmtree@@QEAAXPEAU__tag_NUMBER_HEADER@2345@@Z ; Palmtree::Math::Core::Internal::ResourceHolderUINT::UnlinkStatickNumber
PUBLIC	??_GResourceHolderUINT@Internal@Core@Math@Palmtree@@UEAAPEAXI@Z ; Palmtree::Math::Core::Internal::ResourceHolderUINT::`scalar deleting destructor'
PUBLIC	??_7exception@std@@6B@				; std::exception::`vftable'
PUBLIC	??_C@_0BC@EOODALEL@Unknown?5exception@		; `string'
PUBLIC	??_7Exception@Internal@Core@Math@Palmtree@@6B@	; Palmtree::Math::Core::Internal::Exception::`vftable'
PUBLIC	??_7ArgumentException@Internal@Core@Math@Palmtree@@6B@ ; Palmtree::Math::Core::Internal::ArgumentException::`vftable'
PUBLIC	??_7ArgumentNullException@Internal@Core@Math@Palmtree@@6B@ ; Palmtree::Math::Core::Internal::ArgumentNullException::`vftable'
PUBLIC	??_7NotEnoughMemoryException@Internal@Core@Math@Palmtree@@6B@ ; Palmtree::Math::Core::Internal::NotEnoughMemoryException::`vftable'
PUBLIC	??_7InternalErrorException@Internal@Core@Math@Palmtree@@6B@ ; Palmtree::Math::Core::Internal::InternalErrorException::`vftable'
PUBLIC	??_7BadBufferException@Internal@Core@Math@Palmtree@@6B@ ; Palmtree::Math::Core::Internal::BadBufferException::`vftable'
PUBLIC	??_7__ChainBufferTag@ResourceHolder@Internal@Core@Math@Palmtree@@6B@ ; Palmtree::Math::Core::Internal::ResourceHolder::__ChainBufferTag::`vftable'
PUBLIC	??_7__RootTag@ResourceHolder@Internal@Core@Math@Palmtree@@6B@ ; Palmtree::Math::Core::Internal::ResourceHolder::__RootTag::`vftable'
PUBLIC	??_7ResourceHolder@Internal@Core@Math@Palmtree@@6B@ ; Palmtree::Math::Core::Internal::ResourceHolder::`vftable'
PUBLIC	_TI2?AVInternalErrorException@Internal@Core@Math@Palmtree@@
PUBLIC	_CTA2?AVInternalErrorException@Internal@Core@Math@Palmtree@@
PUBLIC	??_R0?AVInternalErrorException@Internal@Core@Math@Palmtree@@@8 ; Palmtree::Math::Core::Internal::InternalErrorException `RTTI Type Descriptor'
PUBLIC	_CT??_R0?AVInternalErrorException@Internal@Core@Math@Palmtree@@@8??0InternalErrorException@Internal@Core@Math@Palmtree@@QEAA@AEBV01234@@Z48
PUBLIC	??_R0?AVException@Internal@Core@Math@Palmtree@@@8 ; Palmtree::Math::Core::Internal::Exception `RTTI Type Descriptor'
PUBLIC	_CT??_R0?AVException@Internal@Core@Math@Palmtree@@@8??0Exception@Internal@Core@Math@Palmtree@@QEAA@AEBV01234@@Z48
PUBLIC	??_C@_1IM@LGDAALAB@?$AAp?$AAm?$AAc?$AA_?$AAr?$AAe?$AAs?$AAo?$AAu?$AAr?$AAc?$AAe?$AAh?$AAo?$AAl@ ; `string'
PUBLIC	??_C@_1CG@CNOPPENL@?$PP?$II?$AA?$BP?$AAW?$AAf?$AAD?$AAj?$AAD?$PP?$LD?$PP?$PM?$PP?I?$AAk?$AA0?$AAT?$AAW?$AA?$HO@ ; `string'
PUBLIC	??_7__GenericChainBufferTag@ResourceHolderUINT@Internal@Core@Math@Palmtree@@6B@ ; Palmtree::Math::Core::Internal::ResourceHolderUINT::__GenericChainBufferTag::`vftable'
PUBLIC	??_7____UNIT_TYPE_Array_ChainBufferTag@ResourceHolderUINT@Internal@Core@Math@Palmtree@@6B@ ; Palmtree::Math::Core::Internal::ResourceHolderUINT::____UNIT_TYPE_Array_ChainBufferTag::`vftable'
PUBLIC	??_7__StringChainBufferTag@ResourceHolderUINT@Internal@Core@Math@Palmtree@@6B@ ; Palmtree::Math::Core::Internal::ResourceHolderUINT::__StringChainBufferTag::`vftable'
PUBLIC	??_7__DynamicNumberChainBufferTag@ResourceHolderUINT@Internal@Core@Math@Palmtree@@6B@ ; Palmtree::Math::Core::Internal::ResourceHolderUINT::__DynamicNumberChainBufferTag::`vftable'
PUBLIC	??_7__NumberHandleHookingChainBufferTag@ResourceHolderUINT@Internal@Core@Math@Palmtree@@6B@ ; Palmtree::Math::Core::Internal::ResourceHolderUINT::__NumberHandleHookingChainBufferTag::`vftable'
PUBLIC	??_7__StaticNumberChainBufferTag@ResourceHolderUINT@Internal@Core@Math@Palmtree@@6B@ ; Palmtree::Math::Core::Internal::ResourceHolderUINT::__StaticNumberChainBufferTag::`vftable'
PUBLIC	??_7ResourceHolderUINT@Internal@Core@Math@Palmtree@@6B@ ; Palmtree::Math::Core::Internal::ResourceHolderUINT::`vftable'
PUBLIC	_TI2?AVNotEnoughMemoryException@Internal@Core@Math@Palmtree@@
PUBLIC	_CTA2?AVNotEnoughMemoryException@Internal@Core@Math@Palmtree@@
PUBLIC	??_R0?AVNotEnoughMemoryException@Internal@Core@Math@Palmtree@@@8 ; Palmtree::Math::Core::Internal::NotEnoughMemoryException `RTTI Type Descriptor'
PUBLIC	_CT??_R0?AVNotEnoughMemoryException@Internal@Core@Math@Palmtree@@@8??0NotEnoughMemoryException@Internal@Core@Math@Palmtree@@QEAA@AEBV01234@@Z48
PUBLIC	??_C@_1CE@PIPAACFA@?$PP?R?$PP?$PM?$PP?W?$PP?a?$PP?b?$PP?j?$AA?$BI?$PP?$NP?$AAL?$AA?$AN?$PP?$LD?$AAW?$AAf?$AAD?$AA?$HO@ ; `string'
PUBLIC	_TI2?AVBadBufferException@Internal@Core@Math@Palmtree@@
PUBLIC	_CTA2?AVBadBufferException@Internal@Core@Math@Palmtree@@
PUBLIC	??_R0?AVBadBufferException@Internal@Core@Math@Palmtree@@@8 ; Palmtree::Math::Core::Internal::BadBufferException `RTTI Type Descriptor'
PUBLIC	_CT??_R0?AVBadBufferException@Internal@Core@Math@Palmtree@@@8??0BadBufferException@Internal@Core@Math@Palmtree@@QEAA@AEBV01234@@Z56
PUBLIC	??_C@_1EC@LJDADMNE@?$AAp?$AAm?$AAc?$AA_?$AAm?$AAe?$AAm?$AAo?$AAr?$AAy?$AA?4?$AAc?$AAp?$AAp?$AA?$DL@ ; `string'
PUBLIC	??_C@_1CE@JCIJLGOL@?$PP?a?$PP?b?$PP?j?$AA?$BI?$PP?$NP?$AAn?$AA?$AN?$AAt?$AA?$AI?$PP?$JC?$AA?$BM?$PP?z?$AAW?$AA?$HO?$AAW@ ; `string'
PUBLIC	??_C@_1EC@KLIFJDDK@?$AAp?$AAm?$AAc?$AA_?$AAm?$AAe?$AAm?$AAo?$AAr?$AAy?$AA?4?$AAc?$AAp?$AAp?$AA?$DL@ ; `string'
PUBLIC	??_C@_1DK@CHNNDIJP@?$AAp?$AAm?$AAc?$AA_?$AAm?$AAe?$AAm?$AAo?$AAr?$AAy?$AA?4?$AAc?$AAp?$AAp?$AA?$DL@ ; `string'
PUBLIC	_TI2?AVArgumentException@Internal@Core@Math@Palmtree@@
PUBLIC	_CTA2?AVArgumentException@Internal@Core@Math@Palmtree@@
PUBLIC	??_R0?AVArgumentException@Internal@Core@Math@Palmtree@@@8 ; Palmtree::Math::Core::Internal::ArgumentException `RTTI Type Descriptor'
PUBLIC	_CT??_R0?AVArgumentException@Internal@Core@Math@Palmtree@@@8??0ArgumentException@Internal@Core@Math@Palmtree@@QEAA@AEBV01234@@Z48
PUBLIC	??_C@_1BO@CNNKDNIF@?$AA?$BF?$AAp?$AAt?$AAy?$AAp?$AAe?$AAL?$AA?$CK?$PP?e?$AAn?$AA$?$AAg?$AAY?$AA?$AC@ ; `string'
PUBLIC	_TI2?AVArgumentNullException@Internal@Core@Math@Palmtree@@
PUBLIC	_CTA2?AVArgumentNullException@Internal@Core@Math@Palmtree@@
PUBLIC	??_R0?AVArgumentNullException@Internal@Core@Math@Palmtree@@@8 ; Palmtree::Math::Core::Internal::ArgumentNullException `RTTI Type Descriptor'
PUBLIC	_CT??_R0?AVArgumentNullException@Internal@Core@Math@Palmtree@@@8??0ArgumentNullException@Internal@Core@Math@Palmtree@@QEAA@AEBV01234@@Z48
PUBLIC	??_C@_13HADAKIJA@?$AAx@				; `string'
PUBLIC	??_C@_1CK@ECFIEPAC@?$AA?$BF?$AAp?$AAk?$AAn?$AAu?$AAl?$AAl?$AAp?$AAt?$AAr?$AAL?$AA?$AO?$AAH?$PP?$IJ?$PP?$IM@ ; `string'
PUBLIC	??_C@_1GC@NKBJLGGD@?$AAp?$AAm?$AAc?$AA_?$AAm?$AAe?$AAm?$AAo?$AAr?$AAy?$AA?4?$AAc?$AAp?$AAp?$AA?$DL@ ; `string'
PUBLIC	??_C@_1GA@CKNLMDDM@?$AAp?$AAm?$AAc?$AA_?$AAm?$AAe?$AAm?$AAo?$AAr?$AAy?$AA?4?$AAc?$AAp?$AAp?$AA?$DL@ ; `string'
PUBLIC	??_C@_1GC@OHMCPHEJ@?$AAp?$AAm?$AAc?$AA_?$AAm?$AAe?$AAm?$AAo?$AAr?$AAy?$AA?4?$AAc?$AAp?$AAp?$AA?$DL@ ; `string'
PUBLIC	??_C@_1GC@BDIILODP@?$AAp?$AAm?$AAc?$AA_?$AAm?$AAe?$AAm?$AAo?$AAr?$AAy?$AA?4?$AAc?$AAp?$AAp?$AA?$DL@ ; `string'
PUBLIC	??_C@_1GE@JOBLOAGO@?$AAp?$AAm?$AAc?$AA_?$AAm?$AAe?$AAm?$AAo?$AAr?$AAy?$AA?4?$AAc?$AAp?$AAp?$AA?$DL@ ; `string'
PUBLIC	??_C@_1HC@IJKAGPMK@?$AAp?$AAm?$AAc?$AA_?$AAm?$AAe?$AAm?$AAo?$AAr?$AAy?$AA?4?$AAc?$AAp?$AAp?$AA?$DL@ ; `string'
PUBLIC	??_C@_1FA@MMJFBJGB@?$AAp?$AAm?$AAc?$AA_?$AAm?$AAe?$AAm?$AAo?$AAr?$AAy?$AA?4?$AAc?$AAp?$AAp?$AA?$DL@ ; `string'
PUBLIC	??_C@_1BM@FCPAHMHB@?$PP?$IF?$PP?h?$PP?$KI?$PP?i?$PP?$PM?$AAL?$AAz?$AA?$BP?$AAW?$AA?$HO?$AAW?$AA_?$AA?$AC@ ; `string'
PUBLIC	??_C@_1FA@NOCALGIP@?$AAp?$AAm?$AAc?$AA_?$AAm?$AAe?$AAm?$AAo?$AAr?$AAy?$AA?4?$AAc?$AAp?$AAp?$AA?$DL@ ; `string'
PUBLIC	??_C@_1FA@GGJMNBOK@?$AAp?$AAm?$AAc?$AA_?$AAm?$AAe?$AAm?$AAo?$AAr?$AAy?$AA?4?$AAc?$AAp?$AAp?$AA?$DL@ ; `string'
PUBLIC	??_R4exception@std@@6B@				; std::exception::`RTTI Complete Object Locator'
PUBLIC	??_R0?AVexception@std@@@8			; std::exception `RTTI Type Descriptor'
PUBLIC	??_R3exception@std@@8				; std::exception::`RTTI Class Hierarchy Descriptor'
PUBLIC	??_R2exception@std@@8				; std::exception::`RTTI Base Class Array'
PUBLIC	??_R1A@?0A@EA@exception@std@@8			; std::exception::`RTTI Base Class Descriptor at (0,-1,0,64)'
PUBLIC	??_R4Exception@Internal@Core@Math@Palmtree@@6B@	; Palmtree::Math::Core::Internal::Exception::`RTTI Complete Object Locator'
PUBLIC	??_R3Exception@Internal@Core@Math@Palmtree@@8	; Palmtree::Math::Core::Internal::Exception::`RTTI Class Hierarchy Descriptor'
PUBLIC	??_R2Exception@Internal@Core@Math@Palmtree@@8	; Palmtree::Math::Core::Internal::Exception::`RTTI Base Class Array'
PUBLIC	??_R1A@?0A@EA@Exception@Internal@Core@Math@Palmtree@@8 ; Palmtree::Math::Core::Internal::Exception::`RTTI Base Class Descriptor at (0,-1,0,64)'
PUBLIC	??_R1A@?0A@EN@exception@std@@8			; std::exception::`RTTI Base Class Descriptor at (0,-1,0,77)'
PUBLIC	??_R4ArgumentException@Internal@Core@Math@Palmtree@@6B@ ; Palmtree::Math::Core::Internal::ArgumentException::`RTTI Complete Object Locator'
PUBLIC	??_R3ArgumentException@Internal@Core@Math@Palmtree@@8 ; Palmtree::Math::Core::Internal::ArgumentException::`RTTI Class Hierarchy Descriptor'
PUBLIC	??_R2ArgumentException@Internal@Core@Math@Palmtree@@8 ; Palmtree::Math::Core::Internal::ArgumentException::`RTTI Base Class Array'
PUBLIC	??_R1A@?0A@EA@ArgumentException@Internal@Core@Math@Palmtree@@8 ; Palmtree::Math::Core::Internal::ArgumentException::`RTTI Base Class Descriptor at (0,-1,0,64)'
PUBLIC	??_R4ArgumentNullException@Internal@Core@Math@Palmtree@@6B@ ; Palmtree::Math::Core::Internal::ArgumentNullException::`RTTI Complete Object Locator'
PUBLIC	??_R3ArgumentNullException@Internal@Core@Math@Palmtree@@8 ; Palmtree::Math::Core::Internal::ArgumentNullException::`RTTI Class Hierarchy Descriptor'
PUBLIC	??_R2ArgumentNullException@Internal@Core@Math@Palmtree@@8 ; Palmtree::Math::Core::Internal::ArgumentNullException::`RTTI Base Class Array'
PUBLIC	??_R1A@?0A@EA@ArgumentNullException@Internal@Core@Math@Palmtree@@8 ; Palmtree::Math::Core::Internal::ArgumentNullException::`RTTI Base Class Descriptor at (0,-1,0,64)'
PUBLIC	??_R4NotEnoughMemoryException@Internal@Core@Math@Palmtree@@6B@ ; Palmtree::Math::Core::Internal::NotEnoughMemoryException::`RTTI Complete Object Locator'
PUBLIC	??_R3NotEnoughMemoryException@Internal@Core@Math@Palmtree@@8 ; Palmtree::Math::Core::Internal::NotEnoughMemoryException::`RTTI Class Hierarchy Descriptor'
PUBLIC	??_R2NotEnoughMemoryException@Internal@Core@Math@Palmtree@@8 ; Palmtree::Math::Core::Internal::NotEnoughMemoryException::`RTTI Base Class Array'
PUBLIC	??_R1A@?0A@EA@NotEnoughMemoryException@Internal@Core@Math@Palmtree@@8 ; Palmtree::Math::Core::Internal::NotEnoughMemoryException::`RTTI Base Class Descriptor at (0,-1,0,64)'
PUBLIC	??_R4InternalErrorException@Internal@Core@Math@Palmtree@@6B@ ; Palmtree::Math::Core::Internal::InternalErrorException::`RTTI Complete Object Locator'
PUBLIC	??_R3InternalErrorException@Internal@Core@Math@Palmtree@@8 ; Palmtree::Math::Core::Internal::InternalErrorException::`RTTI Class Hierarchy Descriptor'
PUBLIC	??_R2InternalErrorException@Internal@Core@Math@Palmtree@@8 ; Palmtree::Math::Core::Internal::InternalErrorException::`RTTI Base Class Array'
PUBLIC	??_R1A@?0A@EA@InternalErrorException@Internal@Core@Math@Palmtree@@8 ; Palmtree::Math::Core::Internal::InternalErrorException::`RTTI Base Class Descriptor at (0,-1,0,64)'
PUBLIC	??_R4BadBufferException@Internal@Core@Math@Palmtree@@6B@ ; Palmtree::Math::Core::Internal::BadBufferException::`RTTI Complete Object Locator'
PUBLIC	??_R3BadBufferException@Internal@Core@Math@Palmtree@@8 ; Palmtree::Math::Core::Internal::BadBufferException::`RTTI Class Hierarchy Descriptor'
PUBLIC	??_R2BadBufferException@Internal@Core@Math@Palmtree@@8 ; Palmtree::Math::Core::Internal::BadBufferException::`RTTI Base Class Array'
PUBLIC	??_R1A@?0A@EA@BadBufferException@Internal@Core@Math@Palmtree@@8 ; Palmtree::Math::Core::Internal::BadBufferException::`RTTI Base Class Descriptor at (0,-1,0,64)'
PUBLIC	??_R4ResourceHolder@Internal@Core@Math@Palmtree@@6B@ ; Palmtree::Math::Core::Internal::ResourceHolder::`RTTI Complete Object Locator'
PUBLIC	??_R0?AVResourceHolder@Internal@Core@Math@Palmtree@@@8 ; Palmtree::Math::Core::Internal::ResourceHolder `RTTI Type Descriptor'
PUBLIC	??_R3ResourceHolder@Internal@Core@Math@Palmtree@@8 ; Palmtree::Math::Core::Internal::ResourceHolder::`RTTI Class Hierarchy Descriptor'
PUBLIC	??_R2ResourceHolder@Internal@Core@Math@Palmtree@@8 ; Palmtree::Math::Core::Internal::ResourceHolder::`RTTI Base Class Array'
PUBLIC	??_R1A@?0A@EA@ResourceHolder@Internal@Core@Math@Palmtree@@8 ; Palmtree::Math::Core::Internal::ResourceHolder::`RTTI Base Class Descriptor at (0,-1,0,64)'
PUBLIC	??_R4__ChainBufferTag@ResourceHolder@Internal@Core@Math@Palmtree@@6B@ ; Palmtree::Math::Core::Internal::ResourceHolder::__ChainBufferTag::`RTTI Complete Object Locator'
PUBLIC	??_R0?AV__ChainBufferTag@ResourceHolder@Internal@Core@Math@Palmtree@@@8 ; Palmtree::Math::Core::Internal::ResourceHolder::__ChainBufferTag `RTTI Type Descriptor'
PUBLIC	??_R3__ChainBufferTag@ResourceHolder@Internal@Core@Math@Palmtree@@8 ; Palmtree::Math::Core::Internal::ResourceHolder::__ChainBufferTag::`RTTI Class Hierarchy Descriptor'
PUBLIC	??_R2__ChainBufferTag@ResourceHolder@Internal@Core@Math@Palmtree@@8 ; Palmtree::Math::Core::Internal::ResourceHolder::__ChainBufferTag::`RTTI Base Class Array'
PUBLIC	??_R1A@?0A@EA@__ChainBufferTag@ResourceHolder@Internal@Core@Math@Palmtree@@8 ; Palmtree::Math::Core::Internal::ResourceHolder::__ChainBufferTag::`RTTI Base Class Descriptor at (0,-1,0,64)'
PUBLIC	??_R4__RootTag@ResourceHolder@Internal@Core@Math@Palmtree@@6B@ ; Palmtree::Math::Core::Internal::ResourceHolder::__RootTag::`RTTI Complete Object Locator'
PUBLIC	??_R0?AV__RootTag@ResourceHolder@Internal@Core@Math@Palmtree@@@8 ; Palmtree::Math::Core::Internal::ResourceHolder::__RootTag `RTTI Type Descriptor'
PUBLIC	??_R3__RootTag@ResourceHolder@Internal@Core@Math@Palmtree@@8 ; Palmtree::Math::Core::Internal::ResourceHolder::__RootTag::`RTTI Class Hierarchy Descriptor'
PUBLIC	??_R2__RootTag@ResourceHolder@Internal@Core@Math@Palmtree@@8 ; Palmtree::Math::Core::Internal::ResourceHolder::__RootTag::`RTTI Base Class Array'
PUBLIC	??_R1A@?0A@EA@__RootTag@ResourceHolder@Internal@Core@Math@Palmtree@@8 ; Palmtree::Math::Core::Internal::ResourceHolder::__RootTag::`RTTI Base Class Descriptor at (0,-1,0,64)'
PUBLIC	??_R4ResourceHolderUINT@Internal@Core@Math@Palmtree@@6B@ ; Palmtree::Math::Core::Internal::ResourceHolderUINT::`RTTI Complete Object Locator'
PUBLIC	??_R0?AVResourceHolderUINT@Internal@Core@Math@Palmtree@@@8 ; Palmtree::Math::Core::Internal::ResourceHolderUINT `RTTI Type Descriptor'
PUBLIC	??_R3ResourceHolderUINT@Internal@Core@Math@Palmtree@@8 ; Palmtree::Math::Core::Internal::ResourceHolderUINT::`RTTI Class Hierarchy Descriptor'
PUBLIC	??_R2ResourceHolderUINT@Internal@Core@Math@Palmtree@@8 ; Palmtree::Math::Core::Internal::ResourceHolderUINT::`RTTI Base Class Array'
PUBLIC	??_R1A@?0A@EA@ResourceHolderUINT@Internal@Core@Math@Palmtree@@8 ; Palmtree::Math::Core::Internal::ResourceHolderUINT::`RTTI Base Class Descriptor at (0,-1,0,64)'
PUBLIC	??_R1A@?0A@EN@ResourceHolder@Internal@Core@Math@Palmtree@@8 ; Palmtree::Math::Core::Internal::ResourceHolder::`RTTI Base Class Descriptor at (0,-1,0,77)'
PUBLIC	??_R4__GenericChainBufferTag@ResourceHolderUINT@Internal@Core@Math@Palmtree@@6B@ ; Palmtree::Math::Core::Internal::ResourceHolderUINT::__GenericChainBufferTag::`RTTI Complete Object Locator'
PUBLIC	??_R0?AV__GenericChainBufferTag@ResourceHolderUINT@Internal@Core@Math@Palmtree@@@8 ; Palmtree::Math::Core::Internal::ResourceHolderUINT::__GenericChainBufferTag `RTTI Type Descriptor'
PUBLIC	??_R3__GenericChainBufferTag@ResourceHolderUINT@Internal@Core@Math@Palmtree@@8 ; Palmtree::Math::Core::Internal::ResourceHolderUINT::__GenericChainBufferTag::`RTTI Class Hierarchy Descriptor'
PUBLIC	??_R2__GenericChainBufferTag@ResourceHolderUINT@Internal@Core@Math@Palmtree@@8 ; Palmtree::Math::Core::Internal::ResourceHolderUINT::__GenericChainBufferTag::`RTTI Base Class Array'
PUBLIC	??_R1A@?0A@EA@__GenericChainBufferTag@ResourceHolderUINT@Internal@Core@Math@Palmtree@@8 ; Palmtree::Math::Core::Internal::ResourceHolderUINT::__GenericChainBufferTag::`RTTI Base Class Descriptor at (0,-1,0,64)'
PUBLIC	??_R4____UNIT_TYPE_Array_ChainBufferTag@ResourceHolderUINT@Internal@Core@Math@Palmtree@@6B@ ; Palmtree::Math::Core::Internal::ResourceHolderUINT::____UNIT_TYPE_Array_ChainBufferTag::`RTTI Complete Object Locator'
PUBLIC	??_R0?AV____UNIT_TYPE_Array_ChainBufferTag@ResourceHolderUINT@Internal@Core@Math@Palmtree@@@8 ; Palmtree::Math::Core::Internal::ResourceHolderUINT::____UNIT_TYPE_Array_ChainBufferTag `RTTI Type Descriptor'
PUBLIC	??_R3____UNIT_TYPE_Array_ChainBufferTag@ResourceHolderUINT@Internal@Core@Math@Palmtree@@8 ; Palmtree::Math::Core::Internal::ResourceHolderUINT::____UNIT_TYPE_Array_ChainBufferTag::`RTTI Class Hierarchy Descriptor'
PUBLIC	??_R2____UNIT_TYPE_Array_ChainBufferTag@ResourceHolderUINT@Internal@Core@Math@Palmtree@@8 ; Palmtree::Math::Core::Internal::ResourceHolderUINT::____UNIT_TYPE_Array_ChainBufferTag::`RTTI Base Class Array'
PUBLIC	??_R1A@?0A@EA@____UNIT_TYPE_Array_ChainBufferTag@ResourceHolderUINT@Internal@Core@Math@Palmtree@@8 ; Palmtree::Math::Core::Internal::ResourceHolderUINT::____UNIT_TYPE_Array_ChainBufferTag::`RTTI Base Class Descriptor at (0,-1,0,64)'
PUBLIC	??_R4__StringChainBufferTag@ResourceHolderUINT@Internal@Core@Math@Palmtree@@6B@ ; Palmtree::Math::Core::Internal::ResourceHolderUINT::__StringChainBufferTag::`RTTI Complete Object Locator'
PUBLIC	??_R0?AV__StringChainBufferTag@ResourceHolderUINT@Internal@Core@Math@Palmtree@@@8 ; Palmtree::Math::Core::Internal::ResourceHolderUINT::__StringChainBufferTag `RTTI Type Descriptor'
PUBLIC	??_R3__StringChainBufferTag@ResourceHolderUINT@Internal@Core@Math@Palmtree@@8 ; Palmtree::Math::Core::Internal::ResourceHolderUINT::__StringChainBufferTag::`RTTI Class Hierarchy Descriptor'
PUBLIC	??_R2__StringChainBufferTag@ResourceHolderUINT@Internal@Core@Math@Palmtree@@8 ; Palmtree::Math::Core::Internal::ResourceHolderUINT::__StringChainBufferTag::`RTTI Base Class Array'
PUBLIC	??_R1A@?0A@EA@__StringChainBufferTag@ResourceHolderUINT@Internal@Core@Math@Palmtree@@8 ; Palmtree::Math::Core::Internal::ResourceHolderUINT::__StringChainBufferTag::`RTTI Base Class Descriptor at (0,-1,0,64)'
PUBLIC	??_R4__DynamicNumberChainBufferTag@ResourceHolderUINT@Internal@Core@Math@Palmtree@@6B@ ; Palmtree::Math::Core::Internal::ResourceHolderUINT::__DynamicNumberChainBufferTag::`RTTI Complete Object Locator'
PUBLIC	??_R0?AV__DynamicNumberChainBufferTag@ResourceHolderUINT@Internal@Core@Math@Palmtree@@@8 ; Palmtree::Math::Core::Internal::ResourceHolderUINT::__DynamicNumberChainBufferTag `RTTI Type Descriptor'
PUBLIC	??_R3__DynamicNumberChainBufferTag@ResourceHolderUINT@Internal@Core@Math@Palmtree@@8 ; Palmtree::Math::Core::Internal::ResourceHolderUINT::__DynamicNumberChainBufferTag::`RTTI Class Hierarchy Descriptor'
PUBLIC	??_R2__DynamicNumberChainBufferTag@ResourceHolderUINT@Internal@Core@Math@Palmtree@@8 ; Palmtree::Math::Core::Internal::ResourceHolderUINT::__DynamicNumberChainBufferTag::`RTTI Base Class Array'
PUBLIC	??_R1A@?0A@EA@__DynamicNumberChainBufferTag@ResourceHolderUINT@Internal@Core@Math@Palmtree@@8 ; Palmtree::Math::Core::Internal::ResourceHolderUINT::__DynamicNumberChainBufferTag::`RTTI Base Class Descriptor at (0,-1,0,64)'
PUBLIC	??_R4__NumberHandleHookingChainBufferTag@ResourceHolderUINT@Internal@Core@Math@Palmtree@@6B@ ; Palmtree::Math::Core::Internal::ResourceHolderUINT::__NumberHandleHookingChainBufferTag::`RTTI Complete Object Locator'
PUBLIC	??_R0?AV__NumberHandleHookingChainBufferTag@ResourceHolderUINT@Internal@Core@Math@Palmtree@@@8 ; Palmtree::Math::Core::Internal::ResourceHolderUINT::__NumberHandleHookingChainBufferTag `RTTI Type Descriptor'
PUBLIC	??_R3__NumberHandleHookingChainBufferTag@ResourceHolderUINT@Internal@Core@Math@Palmtree@@8 ; Palmtree::Math::Core::Internal::ResourceHolderUINT::__NumberHandleHookingChainBufferTag::`RTTI Class Hierarchy Descriptor'
PUBLIC	??_R2__NumberHandleHookingChainBufferTag@ResourceHolderUINT@Internal@Core@Math@Palmtree@@8 ; Palmtree::Math::Core::Internal::ResourceHolderUINT::__NumberHandleHookingChainBufferTag::`RTTI Base Class Array'
PUBLIC	??_R1A@?0A@EA@__NumberHandleHookingChainBufferTag@ResourceHolderUINT@Internal@Core@Math@Palmtree@@8 ; Palmtree::Math::Core::Internal::ResourceHolderUINT::__NumberHandleHookingChainBufferTag::`RTTI Base Class Descriptor at (0,-1,0,64)'
PUBLIC	??_R4__StaticNumberChainBufferTag@ResourceHolderUINT@Internal@Core@Math@Palmtree@@6B@ ; Palmtree::Math::Core::Internal::ResourceHolderUINT::__StaticNumberChainBufferTag::`RTTI Complete Object Locator'
PUBLIC	??_R0?AV__StaticNumberChainBufferTag@ResourceHolderUINT@Internal@Core@Math@Palmtree@@@8 ; Palmtree::Math::Core::Internal::ResourceHolderUINT::__StaticNumberChainBufferTag `RTTI Type Descriptor'
PUBLIC	??_R3__StaticNumberChainBufferTag@ResourceHolderUINT@Internal@Core@Math@Palmtree@@8 ; Palmtree::Math::Core::Internal::ResourceHolderUINT::__StaticNumberChainBufferTag::`RTTI Class Hierarchy Descriptor'
PUBLIC	??_R2__StaticNumberChainBufferTag@ResourceHolderUINT@Internal@Core@Math@Palmtree@@8 ; Palmtree::Math::Core::Internal::ResourceHolderUINT::__StaticNumberChainBufferTag::`RTTI Base Class Array'
PUBLIC	??_R1A@?0A@EA@__StaticNumberChainBufferTag@ResourceHolderUINT@Internal@Core@Math@Palmtree@@8 ; Palmtree::Math::Core::Internal::ResourceHolderUINT::__StaticNumberChainBufferTag::`RTTI Base Class Descriptor at (0,-1,0,64)'
EXTRN	_purecall:PROC
EXTRN	??2@YAPEAX_K@Z:PROC				; operator new
EXTRN	??3@YAXPEAX_K@Z:PROC				; operator delete
EXTRN	__imp_GetLastError:PROC
EXTRN	__imp_HeapCreate:PROC
EXTRN	__imp_HeapDestroy:PROC
EXTRN	__imp_HeapAlloc:PROC
EXTRN	__imp_HeapFree:PROC
EXTRN	__imp_HeapLock:PROC
EXTRN	__imp_HeapUnlock:PROC
EXTRN	__imp_HeapWalk:PROC
EXTRN	__imp_InitializeCriticalSection:PROC
EXTRN	__imp_EnterCriticalSection:PROC
EXTRN	__imp_LeaveCriticalSection:PROC
EXTRN	__std_exception_destroy:PROC
EXTRN	??_Eexception@std@@UEAAPEAXI@Z:PROC		; std::exception::`vector deleting destructor'
EXTRN	??_EException@Internal@Core@Math@Palmtree@@UEAAPEAXI@Z:PROC ; Palmtree::Math::Core::Internal::Exception::`vector deleting destructor'
EXTRN	??_EArgumentException@Internal@Core@Math@Palmtree@@UEAAPEAXI@Z:PROC ; Palmtree::Math::Core::Internal::ArgumentException::`vector deleting destructor'
EXTRN	??_EArgumentNullException@Internal@Core@Math@Palmtree@@UEAAPEAXI@Z:PROC ; Palmtree::Math::Core::Internal::ArgumentNullException::`vector deleting destructor'
EXTRN	??_ENotEnoughMemoryException@Internal@Core@Math@Palmtree@@UEAAPEAXI@Z:PROC ; Palmtree::Math::Core::Internal::NotEnoughMemoryException::`vector deleting destructor'
EXTRN	??_EInternalErrorException@Internal@Core@Math@Palmtree@@UEAAPEAXI@Z:PROC ; Palmtree::Math::Core::Internal::InternalErrorException::`vector deleting destructor'
EXTRN	??_EBadBufferException@Internal@Core@Math@Palmtree@@UEAAPEAXI@Z:PROC ; Palmtree::Math::Core::Internal::BadBufferException::`vector deleting destructor'
EXTRN	??_E__ChainBufferTag@ResourceHolder@Internal@Core@Math@Palmtree@@UEAAPEAXI@Z:PROC ; Palmtree::Math::Core::Internal::ResourceHolder::__ChainBufferTag::`vector deleting destructor'
EXTRN	??_E__RootTag@ResourceHolder@Internal@Core@Math@Palmtree@@UEAAPEAXI@Z:PROC ; Palmtree::Math::Core::Internal::ResourceHolder::__RootTag::`vector deleting destructor'
EXTRN	??_EResourceHolder@Internal@Core@Math@Palmtree@@UEAAPEAXI@Z:PROC ; Palmtree::Math::Core::Internal::ResourceHolder::`vector deleting destructor'
EXTRN	??_E__GenericChainBufferTag@ResourceHolderUINT@Internal@Core@Math@Palmtree@@UEAAPEAXI@Z:PROC ; Palmtree::Math::Core::Internal::ResourceHolderUINT::__GenericChainBufferTag::`vector deleting destructor'
EXTRN	??_E____UNIT_TYPE_Array_ChainBufferTag@ResourceHolderUINT@Internal@Core@Math@Palmtree@@UEAAPEAXI@Z:PROC ; Palmtree::Math::Core::Internal::ResourceHolderUINT::____UNIT_TYPE_Array_ChainBufferTag::`vector deleting destructor'
EXTRN	??_E__StringChainBufferTag@ResourceHolderUINT@Internal@Core@Math@Palmtree@@UEAAPEAXI@Z:PROC ; Palmtree::Math::Core::Internal::ResourceHolderUINT::__StringChainBufferTag::`vector deleting destructor'
EXTRN	??_E__DynamicNumberChainBufferTag@ResourceHolderUINT@Internal@Core@Math@Palmtree@@UEAAPEAXI@Z:PROC ; Palmtree::Math::Core::Internal::ResourceHolderUINT::__DynamicNumberChainBufferTag::`vector deleting destructor'
EXTRN	??_E__NumberHandleHookingChainBufferTag@ResourceHolderUINT@Internal@Core@Math@Palmtree@@UEAAPEAXI@Z:PROC ; Palmtree::Math::Core::Internal::ResourceHolderUINT::__NumberHandleHookingChainBufferTag::`vector deleting destructor'
EXTRN	??_E__StaticNumberChainBufferTag@ResourceHolderUINT@Internal@Core@Math@Palmtree@@UEAAPEAXI@Z:PROC ; Palmtree::Math::Core::Internal::ResourceHolderUINT::__StaticNumberChainBufferTag::`vector deleting destructor'
EXTRN	??_EResourceHolderUINT@Internal@Core@Math@Palmtree@@UEAAPEAXI@Z:PROC ; Palmtree::Math::Core::Internal::ResourceHolderUINT::`vector deleting destructor'
EXTRN	_CxxThrowException:PROC
EXTRN	__CxxFrameHandler3:PROC
EXTRN	??_7type_info@@6B@:BYTE				; type_info::`vftable'
;	COMDAT pdata
pdata	SEGMENT
$pdata$??1exception@std@@UEAA@XZ DD imagerel $LN5
	DD	imagerel $LN5+38
	DD	imagerel $unwind$??1exception@std@@UEAA@XZ
pdata	ENDS
;	COMDAT pdata
pdata	SEGMENT
$pdata$??_Gexception@std@@UEAAPEAXI@Z DD imagerel $LN9
	DD	imagerel $LN9+78
	DD	imagerel $unwind$??_Gexception@std@@UEAAPEAXI@Z
pdata	ENDS
;	COMDAT pdata
pdata	SEGMENT
$pdata$??0Exception@Internal@Core@Math@Palmtree@@IEAA@HPEB_W@Z DD imagerel $LN8
	DD	imagerel $LN8+70
	DD	imagerel $unwind$??0Exception@Internal@Core@Math@Palmtree@@IEAA@HPEB_W@Z
pdata	ENDS
;	COMDAT pdata
pdata	SEGMENT
$pdata$??0Exception@Internal@Core@Math@Palmtree@@IEAA@HPEB_W0@Z DD imagerel $LN8
	DD	imagerel $LN8+66
	DD	imagerel $unwind$??0Exception@Internal@Core@Math@Palmtree@@IEAA@HPEB_W0@Z
pdata	ENDS
;	COMDAT pdata
pdata	SEGMENT
$pdata$??0Exception@Internal@Core@Math@Palmtree@@QEAA@AEBV01234@@Z DD imagerel $LN8
	DD	imagerel $LN8+77
	DD	imagerel $unwind$??0Exception@Internal@Core@Math@Palmtree@@QEAA@AEBV01234@@Z
pdata	ENDS
;	COMDAT pdata
pdata	SEGMENT
$pdata$??1Exception@Internal@Core@Math@Palmtree@@UEAA@XZ DD imagerel $LN8
	DD	imagerel $LN8+53
	DD	imagerel $unwind$??1Exception@Internal@Core@Math@Palmtree@@UEAA@XZ
pdata	ENDS
;	COMDAT pdata
pdata	SEGMENT
$pdata$??_GException@Internal@Core@Math@Palmtree@@UEAAPEAXI@Z DD imagerel $LN12
	DD	imagerel $LN12+92
	DD	imagerel $unwind$??_GException@Internal@Core@Math@Palmtree@@UEAAPEAXI@Z
pdata	ENDS
;	COMDAT pdata
pdata	SEGMENT
$pdata$??0ArgumentException@Internal@Core@Math@Palmtree@@QEAA@PEB_W@Z DD imagerel $LN11
	DD	imagerel $LN11+84
	DD	imagerel $unwind$??0ArgumentException@Internal@Core@Math@Palmtree@@QEAA@PEB_W@Z
pdata	ENDS
;	COMDAT pdata
pdata	SEGMENT
$pdata$??0ArgumentException@Internal@Core@Math@Palmtree@@QEAA@AEBV01234@@Z DD imagerel $LN11
	DD	imagerel $LN11+87
	DD	imagerel $unwind$??0ArgumentException@Internal@Core@Math@Palmtree@@QEAA@AEBV01234@@Z
pdata	ENDS
;	COMDAT pdata
pdata	SEGMENT
$pdata$??1ArgumentException@Internal@Core@Math@Palmtree@@UEAA@XZ DD imagerel $LN11
	DD	imagerel $LN11+63
	DD	imagerel $unwind$??1ArgumentException@Internal@Core@Math@Palmtree@@UEAA@XZ
pdata	ENDS
;	COMDAT pdata
pdata	SEGMENT
$pdata$??_GArgumentException@Internal@Core@Math@Palmtree@@UEAAPEAXI@Z DD imagerel $LN15
	DD	imagerel $LN15+102
	DD	imagerel $unwind$??_GArgumentException@Internal@Core@Math@Palmtree@@UEAAPEAXI@Z
pdata	ENDS
;	COMDAT pdata
pdata	SEGMENT
$pdata$??0ArgumentNullException@Internal@Core@Math@Palmtree@@QEAA@PEB_W0@Z DD imagerel $LN11
	DD	imagerel $LN11+80
	DD	imagerel $unwind$??0ArgumentNullException@Internal@Core@Math@Palmtree@@QEAA@PEB_W0@Z
pdata	ENDS
;	COMDAT pdata
pdata	SEGMENT
$pdata$??0ArgumentNullException@Internal@Core@Math@Palmtree@@QEAA@AEBV01234@@Z DD imagerel $LN11
	DD	imagerel $LN11+87
	DD	imagerel $unwind$??0ArgumentNullException@Internal@Core@Math@Palmtree@@QEAA@AEBV01234@@Z
pdata	ENDS
;	COMDAT pdata
pdata	SEGMENT
$pdata$??1ArgumentNullException@Internal@Core@Math@Palmtree@@UEAA@XZ DD imagerel $LN11
	DD	imagerel $LN11+63
	DD	imagerel $unwind$??1ArgumentNullException@Internal@Core@Math@Palmtree@@UEAA@XZ
pdata	ENDS
;	COMDAT pdata
pdata	SEGMENT
$pdata$??_GArgumentNullException@Internal@Core@Math@Palmtree@@UEAAPEAXI@Z DD imagerel $LN15
	DD	imagerel $LN15+102
	DD	imagerel $unwind$??_GArgumentNullException@Internal@Core@Math@Palmtree@@UEAAPEAXI@Z
pdata	ENDS
;	COMDAT pdata
pdata	SEGMENT
$pdata$??0NotEnoughMemoryException@Internal@Core@Math@Palmtree@@QEAA@PEB_W@Z DD imagerel $LN11
	DD	imagerel $LN11+84
	DD	imagerel $unwind$??0NotEnoughMemoryException@Internal@Core@Math@Palmtree@@QEAA@PEB_W@Z
pdata	ENDS
;	COMDAT pdata
pdata	SEGMENT
$pdata$??0NotEnoughMemoryException@Internal@Core@Math@Palmtree@@QEAA@AEBV01234@@Z DD imagerel $LN11
	DD	imagerel $LN11+87
	DD	imagerel $unwind$??0NotEnoughMemoryException@Internal@Core@Math@Palmtree@@QEAA@AEBV01234@@Z
pdata	ENDS
;	COMDAT pdata
pdata	SEGMENT
$pdata$??1NotEnoughMemoryException@Internal@Core@Math@Palmtree@@UEAA@XZ DD imagerel $LN11
	DD	imagerel $LN11+63
	DD	imagerel $unwind$??1NotEnoughMemoryException@Internal@Core@Math@Palmtree@@UEAA@XZ
pdata	ENDS
;	COMDAT pdata
pdata	SEGMENT
$pdata$??_GNotEnoughMemoryException@Internal@Core@Math@Palmtree@@UEAAPEAXI@Z DD imagerel $LN15
	DD	imagerel $LN15+102
	DD	imagerel $unwind$??_GNotEnoughMemoryException@Internal@Core@Math@Palmtree@@UEAAPEAXI@Z
pdata	ENDS
;	COMDAT pdata
pdata	SEGMENT
$pdata$??0InternalErrorException@Internal@Core@Math@Palmtree@@QEAA@PEB_W0@Z DD imagerel $LN11
	DD	imagerel $LN11+80
	DD	imagerel $unwind$??0InternalErrorException@Internal@Core@Math@Palmtree@@QEAA@PEB_W0@Z
pdata	ENDS
;	COMDAT pdata
pdata	SEGMENT
$pdata$??0InternalErrorException@Internal@Core@Math@Palmtree@@QEAA@AEBV01234@@Z DD imagerel $LN11
	DD	imagerel $LN11+87
	DD	imagerel $unwind$??0InternalErrorException@Internal@Core@Math@Palmtree@@QEAA@AEBV01234@@Z
pdata	ENDS
;	COMDAT pdata
pdata	SEGMENT
$pdata$??1InternalErrorException@Internal@Core@Math@Palmtree@@UEAA@XZ DD imagerel $LN11
	DD	imagerel $LN11+63
	DD	imagerel $unwind$??1InternalErrorException@Internal@Core@Math@Palmtree@@UEAA@XZ
pdata	ENDS
;	COMDAT pdata
pdata	SEGMENT
$pdata$??_GInternalErrorException@Internal@Core@Math@Palmtree@@UEAAPEAXI@Z DD imagerel $LN15
	DD	imagerel $LN15+102
	DD	imagerel $unwind$??_GInternalErrorException@Internal@Core@Math@Palmtree@@UEAAPEAXI@Z
pdata	ENDS
;	COMDAT pdata
pdata	SEGMENT
$pdata$??0BadBufferException@Internal@Core@Math@Palmtree@@QEAA@PEB_W0@Z DD imagerel $LN11
	DD	imagerel $LN11+80
	DD	imagerel $unwind$??0BadBufferException@Internal@Core@Math@Palmtree@@QEAA@PEB_W0@Z
pdata	ENDS
;	COMDAT pdata
pdata	SEGMENT
$pdata$??0BadBufferException@Internal@Core@Math@Palmtree@@QEAA@AEBV01234@@Z DD imagerel $LN11
	DD	imagerel $LN11+87
	DD	imagerel $unwind$??0BadBufferException@Internal@Core@Math@Palmtree@@QEAA@AEBV01234@@Z
pdata	ENDS
;	COMDAT pdata
pdata	SEGMENT
$pdata$??1BadBufferException@Internal@Core@Math@Palmtree@@UEAA@XZ DD imagerel $LN11
	DD	imagerel $LN11+63
	DD	imagerel $unwind$??1BadBufferException@Internal@Core@Math@Palmtree@@UEAA@XZ
pdata	ENDS
;	COMDAT pdata
pdata	SEGMENT
$pdata$??_GBadBufferException@Internal@Core@Math@Palmtree@@UEAAPEAXI@Z DD imagerel $LN15
	DD	imagerel $LN15+102
	DD	imagerel $unwind$??_GBadBufferException@Internal@Core@Math@Palmtree@@UEAAPEAXI@Z
pdata	ENDS
;	COMDAT pdata
pdata	SEGMENT
$pdata$?AllocateHeapArea@Internal@Core@Math@Palmtree@@YAHXZ DD imagerel $LN6
	DD	imagerel $LN6+52
	DD	imagerel $unwind$?AllocateHeapArea@Internal@Core@Math@Palmtree@@YAHXZ
pdata	ENDS
;	COMDAT pdata
pdata	SEGMENT
$pdata$?DeallocateHeapArea@Internal@Core@Math@Palmtree@@YAXXZ DD imagerel $LN6
	DD	imagerel $LN6+48
	DD	imagerel $unwind$?DeallocateHeapArea@Internal@Core@Math@Palmtree@@YAXXZ
pdata	ENDS
;	COMDAT pdata
pdata	SEGMENT
$pdata$?CommitNumber@Internal@Core@Math@Palmtree@@YAXPEAU__tag_NUMBER_HEADER@1234@@Z DD imagerel $LN35
	DD	imagerel $LN35+369
	DD	imagerel $unwind$?CommitNumber@Internal@Core@Math@Palmtree@@YAXPEAU__tag_NUMBER_HEADER@1234@@Z
pdata	ENDS
;	COMDAT pdata
pdata	SEGMENT
$pdata$?CheckNumber@Internal@Core@Math@Palmtree@@YAXPEAU__tag_NUMBER_HEADER@1234@@Z DD imagerel $LN8
	DD	imagerel $LN8+96
	DD	imagerel $unwind$?CheckNumber@Internal@Core@Math@Palmtree@@YAXPEAU__tag_NUMBER_HEADER@1234@@Z
pdata	ENDS
;	COMDAT pdata
pdata	SEGMENT
$pdata$?DuplicateNumber@Internal@Core@Math@Palmtree@@YAPEAU__tag_NUMBER_HEADER@1234@PEAU51234@@Z DD imagerel $LN8
	DD	imagerel $LN8+107
	DD	imagerel $unwind$?DuplicateNumber@Internal@Core@Math@Palmtree@@YAPEAU__tag_NUMBER_HEADER@1234@PEAU51234@@Z
pdata	ENDS
;	COMDAT pdata
pdata	SEGMENT
$pdata$?Initialize_Memory@Internal@Core@Math@Palmtree@@YAHPEAU_tag_PROCESSOR_FEATURES@1234@@Z DD imagerel $LN31
	DD	imagerel $LN31+265
	DD	imagerel $unwind$?Initialize_Memory@Internal@Core@Math@Palmtree@@YAHPEAU_tag_PROCESSOR_FEATURES@1234@@Z
pdata	ENDS
;	COMDAT pdata
pdata	SEGMENT
$pdata$?catch$6@?0??Initialize_Memory@Internal@Core@Math@Palmtree@@YAHPEAU_tag_PROCESSOR_FEATURES@1234@@Z@4HA DD imagerel ?catch$6@?0??Initialize_Memory@Internal@Core@Math@Palmtree@@YAHPEAU_tag_PROCESSOR_FEATURES@1234@@Z@4HA
	DD	imagerel ?catch$6@?0??Initialize_Memory@Internal@Core@Math@Palmtree@@YAHPEAU_tag_PROCESSOR_FEATURES@1234@@Z@4HA+37
	DD	imagerel $unwind$?catch$6@?0??Initialize_Memory@Internal@Core@Math@Palmtree@@YAHPEAU_tag_PROCESSOR_FEATURES@1234@@Z@4HA
pdata	ENDS
;	COMDAT pdata
pdata	SEGMENT
$pdata$?PMC_Dispose@Internal@Core@Math@Palmtree@@YAXPEAU__tag_PMC_HANDLE_UINT@1234@@Z DD imagerel $LN4
	DD	imagerel $LN4+27
	DD	imagerel $unwind$?PMC_Dispose@Internal@Core@Math@Palmtree@@YAXPEAU__tag_PMC_HANDLE_UINT@1234@@Z
pdata	ENDS
;	COMDAT pdata
pdata	SEGMENT
$pdata$?PMC_GetConstantValue_I@Internal@Core@Math@Palmtree@@YAPEAU__tag_PMC_HANDLE_UINT@1234@H@Z DD imagerel $LN11
	DD	imagerel $LN11+73
	DD	imagerel $unwind$?PMC_GetConstantValue_I@Internal@Core@Math@Palmtree@@YAPEAU__tag_PMC_HANDLE_UINT@1234@H@Z
pdata	ENDS
;	COMDAT pdata
pdata	SEGMENT
$pdata$?PMC_Clone_X@Internal@Core@Math@Palmtree@@YAPEAU__tag_PMC_HANDLE_UINT@1234@PEAU51234@@Z DD imagerel $LN78
	DD	imagerel $LN78+549
	DD	imagerel $unwind$?PMC_Clone_X@Internal@Core@Math@Palmtree@@YAPEAU__tag_PMC_HANDLE_UINT@1234@PEAU51234@@Z
pdata	ENDS
;	COMDAT pdata
pdata	SEGMENT
$pdata$?dtor$5@?0??PMC_Clone_X@Internal@Core@Math@Palmtree@@YAPEAU__tag_PMC_HANDLE_UINT@1234@PEAU51234@@Z@4HA DD imagerel ?dtor$5@?0??PMC_Clone_X@Internal@Core@Math@Palmtree@@YAPEAU__tag_PMC_HANDLE_UINT@1234@PEAU51234@@Z@4HA
	DD	imagerel ?dtor$5@?0??PMC_Clone_X@Internal@Core@Math@Palmtree@@YAPEAU__tag_PMC_HANDLE_UINT@1234@PEAU51234@@Z@4HA+32
	DD	imagerel $unwind$?dtor$5@?0??PMC_Clone_X@Internal@Core@Math@Palmtree@@YAPEAU__tag_PMC_HANDLE_UINT@1234@PEAU51234@@Z@4HA
pdata	ENDS
;	COMDAT pdata
pdata	SEGMENT
$pdata$?PMC_GetAllocatedMemorySize@Internal@Core@Math@Palmtree@@YA_KXZ DD imagerel $LN31
	DD	imagerel $LN31+37
	DD	imagerel $unwind$?PMC_GetAllocatedMemorySize@Internal@Core@Math@Palmtree@@YA_KXZ
pdata	ENDS
;	COMDAT pdata
pdata	SEGMENT
$pdata$1$?PMC_GetAllocatedMemorySize@Internal@Core@Math@Palmtree@@YA_KXZ DD imagerel $LN31+37
	DD	imagerel $LN31+156
	DD	imagerel $chain$1$?PMC_GetAllocatedMemorySize@Internal@Core@Math@Palmtree@@YA_KXZ
pdata	ENDS
;	COMDAT pdata
pdata	SEGMENT
$pdata$2$?PMC_GetAllocatedMemorySize@Internal@Core@Math@Palmtree@@YA_KXZ DD imagerel $LN31+156
	DD	imagerel $LN31+198
	DD	imagerel $chain$2$?PMC_GetAllocatedMemorySize@Internal@Core@Math@Palmtree@@YA_KXZ
pdata	ENDS
;	COMDAT pdata
pdata	SEGMENT
$pdata$3$?PMC_GetAllocatedMemorySize@Internal@Core@Math@Palmtree@@YA_KXZ DD imagerel $LN31+198
	DD	imagerel $LN31+282
	DD	imagerel $chain$3$?PMC_GetAllocatedMemorySize@Internal@Core@Math@Palmtree@@YA_KXZ
pdata	ENDS
;	COMDAT pdata
pdata	SEGMENT
$pdata$??0Lock@Internal@Core@Math@Palmtree@@QEAA@XZ DD imagerel $LN4
	DD	imagerel $LN4+31
	DD	imagerel $unwind$??0Lock@Internal@Core@Math@Palmtree@@QEAA@XZ
pdata	ENDS
;	COMDAT pdata
pdata	SEGMENT
$pdata$??1Lock@Internal@Core@Math@Palmtree@@QEAA@XZ DD imagerel $LN5
	DD	imagerel $LN5+32
	DD	imagerel $unwind$??1Lock@Internal@Core@Math@Palmtree@@QEAA@XZ
pdata	ENDS
;	COMDAT pdata
pdata	SEGMENT
$pdata$??_G__ChainBufferTag@ResourceHolder@Internal@Core@Math@Palmtree@@UEAAPEAXI@Z DD imagerel $LN11
	DD	imagerel $LN11+83
	DD	imagerel $unwind$??_G__ChainBufferTag@ResourceHolder@Internal@Core@Math@Palmtree@@UEAAPEAXI@Z
pdata	ENDS
;	COMDAT pdata
pdata	SEGMENT
$pdata$??0__RootTag@ResourceHolder@Internal@Core@Math@Palmtree@@QEAA@XZ DD imagerel $LN8
	DD	imagerel $LN8+53
	DD	imagerel $unwind$??0__RootTag@ResourceHolder@Internal@Core@Math@Palmtree@@QEAA@XZ
pdata	ENDS
;	COMDAT pdata
pdata	SEGMENT
$pdata$??1__RootTag@ResourceHolder@Internal@Core@Math@Palmtree@@UEAA@XZ DD imagerel $LN11
	DD	imagerel $LN11+82
	DD	imagerel $unwind$??1__RootTag@ResourceHolder@Internal@Core@Math@Palmtree@@UEAA@XZ
pdata	ENDS
;	COMDAT pdata
pdata	SEGMENT
$pdata$?EqualsBufferAddress@__RootTag@ResourceHolder@Internal@Core@Math@Palmtree@@UEAAHPEAX@Z DD imagerel $LN4
	DD	imagerel $LN4+46
	DD	imagerel $unwind$?EqualsBufferAddress@__RootTag@ResourceHolder@Internal@Core@Math@Palmtree@@UEAAHPEAX@Z
pdata	ENDS
;	COMDAT pdata
pdata	SEGMENT
$pdata$??_G__RootTag@ResourceHolder@Internal@Core@Math@Palmtree@@UEAAPEAXI@Z DD imagerel $LN15
	DD	imagerel $LN15+107
	DD	imagerel $unwind$??_G__RootTag@ResourceHolder@Internal@Core@Math@Palmtree@@UEAAPEAXI@Z
pdata	ENDS
;	COMDAT pdata
pdata	SEGMENT
$pdata$??0ResourceHolder@Internal@Core@Math@Palmtree@@IEAA@XZ DD imagerel $LN11
	DD	imagerel $LN11+72
	DD	imagerel $unwind$??0ResourceHolder@Internal@Core@Math@Palmtree@@IEAA@XZ
pdata	ENDS
;	COMDAT pdata
pdata	SEGMENT
$pdata$??1ResourceHolder@Internal@Core@Math@Palmtree@@UEAA@XZ DD imagerel $LN35
	DD	imagerel $LN35+231
	DD	imagerel $unwind$??1ResourceHolder@Internal@Core@Math@Palmtree@@UEAA@XZ
pdata	ENDS
;	COMDAT pdata
pdata	SEGMENT
$pdata$?FindTag@ResourceHolder@Internal@Core@Math@Palmtree@@IEAAPEAV__ChainBufferTag@12345@PEAX@Z DD imagerel $LN17
	DD	imagerel $LN17+94
	DD	imagerel $unwind$?FindTag@ResourceHolder@Internal@Core@Math@Palmtree@@IEAAPEAV__ChainBufferTag@12345@PEAX@Z
pdata	ENDS
;	COMDAT pdata
pdata	SEGMENT
$pdata$??_GResourceHolder@Internal@Core@Math@Palmtree@@UEAAPEAXI@Z DD imagerel $LN6
	DD	imagerel $LN6+52
	DD	imagerel $unwind$??_GResourceHolder@Internal@Core@Math@Palmtree@@UEAAPEAXI@Z
pdata	ENDS
;	COMDAT pdata
pdata	SEGMENT
$pdata$??0__GenericChainBufferTag@ResourceHolderUINT@Internal@Core@Math@Palmtree@@QEAA@PEAX@Z DD imagerel $LN8
	DD	imagerel $LN8+57
	DD	imagerel $unwind$??0__GenericChainBufferTag@ResourceHolderUINT@Internal@Core@Math@Palmtree@@QEAA@PEAX@Z
pdata	ENDS
;	COMDAT pdata
pdata	SEGMENT
$pdata$??1__GenericChainBufferTag@ResourceHolderUINT@Internal@Core@Math@Palmtree@@UEAA@XZ DD imagerel $LN11
	DD	imagerel $LN11+82
	DD	imagerel $unwind$??1__GenericChainBufferTag@ResourceHolderUINT@Internal@Core@Math@Palmtree@@UEAA@XZ
pdata	ENDS
;	COMDAT pdata
pdata	SEGMENT
$pdata$??_G__GenericChainBufferTag@ResourceHolderUINT@Internal@Core@Math@Palmtree@@UEAAPEAXI@Z DD imagerel $LN15
	DD	imagerel $LN15+107
	DD	imagerel $unwind$??_G__GenericChainBufferTag@ResourceHolderUINT@Internal@Core@Math@Palmtree@@UEAAPEAXI@Z
pdata	ENDS
;	COMDAT pdata
pdata	SEGMENT
$pdata$??0____UNIT_TYPE_Array_ChainBufferTag@ResourceHolderUINT@Internal@Core@Math@Palmtree@@QEAA@PEA_K_K1@Z DD imagerel $LN8
	DD	imagerel $LN8+65
	DD	imagerel $unwind$??0____UNIT_TYPE_Array_ChainBufferTag@ResourceHolderUINT@Internal@Core@Math@Palmtree@@QEAA@PEA_K_K1@Z
pdata	ENDS
;	COMDAT pdata
pdata	SEGMENT
$pdata$??1____UNIT_TYPE_Array_ChainBufferTag@ResourceHolderUINT@Internal@Core@Math@Palmtree@@UEAA@XZ DD imagerel $LN11
	DD	imagerel $LN11+82
	DD	imagerel $unwind$??1____UNIT_TYPE_Array_ChainBufferTag@ResourceHolderUINT@Internal@Core@Math@Palmtree@@UEAA@XZ
pdata	ENDS
;	COMDAT pdata
pdata	SEGMENT
$pdata$?Clear@____UNIT_TYPE_Array_ChainBufferTag@ResourceHolderUINT@Internal@Core@Math@Palmtree@@UEAAXXZ DD imagerel $LN6
	DD	imagerel $LN6+24
	DD	imagerel $unwind$?Clear@____UNIT_TYPE_Array_ChainBufferTag@ResourceHolderUINT@Internal@Core@Math@Palmtree@@UEAAXXZ
pdata	ENDS
;	COMDAT pdata
pdata	SEGMENT
$pdata$?Destruct@____UNIT_TYPE_Array_ChainBufferTag@ResourceHolderUINT@Internal@Core@Math@Palmtree@@UEAAXXZ DD imagerel $LN9
	DD	imagerel $LN9+25
	DD	imagerel $unwind$?Destruct@____UNIT_TYPE_Array_ChainBufferTag@ResourceHolderUINT@Internal@Core@Math@Palmtree@@UEAAXXZ
pdata	ENDS
;	COMDAT pdata
pdata	SEGMENT
$pdata$0$?Destruct@____UNIT_TYPE_Array_ChainBufferTag@ResourceHolderUINT@Internal@Core@Math@Palmtree@@UEAAXXZ DD imagerel $LN9+25
	DD	imagerel $LN9+71
	DD	imagerel $chain$0$?Destruct@____UNIT_TYPE_Array_ChainBufferTag@ResourceHolderUINT@Internal@Core@Math@Palmtree@@UEAAXXZ
pdata	ENDS
;	COMDAT pdata
pdata	SEGMENT
$pdata$1$?Destruct@____UNIT_TYPE_Array_ChainBufferTag@ResourceHolderUINT@Internal@Core@Math@Palmtree@@UEAAXXZ DD imagerel $LN9+71
	DD	imagerel $LN9+81
	DD	imagerel $chain$1$?Destruct@____UNIT_TYPE_Array_ChainBufferTag@ResourceHolderUINT@Internal@Core@Math@Palmtree@@UEAAXXZ
pdata	ENDS
;	COMDAT pdata
pdata	SEGMENT
$pdata$??_G____UNIT_TYPE_Array_ChainBufferTag@ResourceHolderUINT@Internal@Core@Math@Palmtree@@UEAAPEAXI@Z DD imagerel $LN15
	DD	imagerel $LN15+107
	DD	imagerel $unwind$??_G____UNIT_TYPE_Array_ChainBufferTag@ResourceHolderUINT@Internal@Core@Math@Palmtree@@UEAAPEAXI@Z
pdata	ENDS
;	COMDAT pdata
pdata	SEGMENT
$pdata$??0__StringChainBufferTag@ResourceHolderUINT@Internal@Core@Math@Palmtree@@QEAA@PEA_K_K1@Z DD imagerel $LN8
	DD	imagerel $LN8+65
	DD	imagerel $unwind$??0__StringChainBufferTag@ResourceHolderUINT@Internal@Core@Math@Palmtree@@QEAA@PEA_K_K1@Z
pdata	ENDS
;	COMDAT pdata
pdata	SEGMENT
$pdata$??1__StringChainBufferTag@ResourceHolderUINT@Internal@Core@Math@Palmtree@@UEAA@XZ DD imagerel $LN11
	DD	imagerel $LN11+82
	DD	imagerel $unwind$??1__StringChainBufferTag@ResourceHolderUINT@Internal@Core@Math@Palmtree@@UEAA@XZ
pdata	ENDS
;	COMDAT pdata
pdata	SEGMENT
$pdata$?Clear@__StringChainBufferTag@ResourceHolderUINT@Internal@Core@Math@Palmtree@@UEAAXXZ DD imagerel $LN6
	DD	imagerel $LN6+24
	DD	imagerel $unwind$?Clear@__StringChainBufferTag@ResourceHolderUINT@Internal@Core@Math@Palmtree@@UEAAXXZ
pdata	ENDS
;	COMDAT pdata
pdata	SEGMENT
$pdata$?Destruct@__StringChainBufferTag@ResourceHolderUINT@Internal@Core@Math@Palmtree@@UEAAXXZ DD imagerel $LN9
	DD	imagerel $LN9+25
	DD	imagerel $unwind$?Destruct@__StringChainBufferTag@ResourceHolderUINT@Internal@Core@Math@Palmtree@@UEAAXXZ
pdata	ENDS
;	COMDAT pdata
pdata	SEGMENT
$pdata$0$?Destruct@__StringChainBufferTag@ResourceHolderUINT@Internal@Core@Math@Palmtree@@UEAAXXZ DD imagerel $LN9+25
	DD	imagerel $LN9+71
	DD	imagerel $chain$0$?Destruct@__StringChainBufferTag@ResourceHolderUINT@Internal@Core@Math@Palmtree@@UEAAXXZ
pdata	ENDS
;	COMDAT pdata
pdata	SEGMENT
$pdata$1$?Destruct@__StringChainBufferTag@ResourceHolderUINT@Internal@Core@Math@Palmtree@@UEAAXXZ DD imagerel $LN9+71
	DD	imagerel $LN9+81
	DD	imagerel $chain$1$?Destruct@__StringChainBufferTag@ResourceHolderUINT@Internal@Core@Math@Palmtree@@UEAAXXZ
pdata	ENDS
;	COMDAT pdata
pdata	SEGMENT
$pdata$??_G__StringChainBufferTag@ResourceHolderUINT@Internal@Core@Math@Palmtree@@UEAAPEAXI@Z DD imagerel $LN15
	DD	imagerel $LN15+107
	DD	imagerel $unwind$??_G__StringChainBufferTag@ResourceHolderUINT@Internal@Core@Math@Palmtree@@UEAAPEAXI@Z
pdata	ENDS
;	COMDAT pdata
pdata	SEGMENT
$pdata$??0__DynamicNumberChainBufferTag@ResourceHolderUINT@Internal@Core@Math@Palmtree@@QEAA@PEAU__tag_NUMBER_HEADER@2345@@Z DD imagerel $LN8
	DD	imagerel $LN8+57
	DD	imagerel $unwind$??0__DynamicNumberChainBufferTag@ResourceHolderUINT@Internal@Core@Math@Palmtree@@QEAA@PEAU__tag_NUMBER_HEADER@2345@@Z
pdata	ENDS
;	COMDAT pdata
pdata	SEGMENT
$pdata$??1__DynamicNumberChainBufferTag@ResourceHolderUINT@Internal@Core@Math@Palmtree@@UEAA@XZ DD imagerel $LN11
	DD	imagerel $LN11+82
	DD	imagerel $unwind$??1__DynamicNumberChainBufferTag@ResourceHolderUINT@Internal@Core@Math@Palmtree@@UEAA@XZ
pdata	ENDS
;	COMDAT pdata
pdata	SEGMENT
$pdata$??_G__DynamicNumberChainBufferTag@ResourceHolderUINT@Internal@Core@Math@Palmtree@@UEAAPEAXI@Z DD imagerel $LN15
	DD	imagerel $LN15+107
	DD	imagerel $unwind$??_G__DynamicNumberChainBufferTag@ResourceHolderUINT@Internal@Core@Math@Palmtree@@UEAAPEAXI@Z
pdata	ENDS
;	COMDAT pdata
pdata	SEGMENT
$pdata$??0__NumberHandleHookingChainBufferTag@ResourceHolderUINT@Internal@Core@Math@Palmtree@@QEAA@PEAU__tag_NUMBER_HEADER@2345@@Z DD imagerel $LN8
	DD	imagerel $LN8+57
	DD	imagerel $unwind$??0__NumberHandleHookingChainBufferTag@ResourceHolderUINT@Internal@Core@Math@Palmtree@@QEAA@PEAU__tag_NUMBER_HEADER@2345@@Z
pdata	ENDS
;	COMDAT pdata
pdata	SEGMENT
$pdata$??1__NumberHandleHookingChainBufferTag@ResourceHolderUINT@Internal@Core@Math@Palmtree@@UEAA@XZ DD imagerel $LN11
	DD	imagerel $LN11+82
	DD	imagerel $unwind$??1__NumberHandleHookingChainBufferTag@ResourceHolderUINT@Internal@Core@Math@Palmtree@@UEAA@XZ
pdata	ENDS
;	COMDAT pdata
pdata	SEGMENT
$pdata$??_G__NumberHandleHookingChainBufferTag@ResourceHolderUINT@Internal@Core@Math@Palmtree@@UEAAPEAXI@Z DD imagerel $LN15
	DD	imagerel $LN15+107
	DD	imagerel $unwind$??_G__NumberHandleHookingChainBufferTag@ResourceHolderUINT@Internal@Core@Math@Palmtree@@UEAAPEAXI@Z
pdata	ENDS
;	COMDAT pdata
pdata	SEGMENT
$pdata$??0__StaticNumberChainBufferTag@ResourceHolderUINT@Internal@Core@Math@Palmtree@@QEAA@PEAU__tag_NUMBER_HEADER@2345@@Z DD imagerel $LN8
	DD	imagerel $LN8+57
	DD	imagerel $unwind$??0__StaticNumberChainBufferTag@ResourceHolderUINT@Internal@Core@Math@Palmtree@@QEAA@PEAU__tag_NUMBER_HEADER@2345@@Z
pdata	ENDS
;	COMDAT pdata
pdata	SEGMENT
$pdata$??1__StaticNumberChainBufferTag@ResourceHolderUINT@Internal@Core@Math@Palmtree@@UEAA@XZ DD imagerel $LN11
	DD	imagerel $LN11+82
	DD	imagerel $unwind$??1__StaticNumberChainBufferTag@ResourceHolderUINT@Internal@Core@Math@Palmtree@@UEAA@XZ
pdata	ENDS
;	COMDAT pdata
pdata	SEGMENT
$pdata$??_G__StaticNumberChainBufferTag@ResourceHolderUINT@Internal@Core@Math@Palmtree@@UEAAPEAXI@Z DD imagerel $LN15
	DD	imagerel $LN15+107
	DD	imagerel $unwind$??_G__StaticNumberChainBufferTag@ResourceHolderUINT@Internal@Core@Math@Palmtree@@UEAAPEAXI@Z
pdata	ENDS
;	COMDAT pdata
pdata	SEGMENT
$pdata$??0ResourceHolderUINT@Internal@Core@Math@Palmtree@@QEAA@XZ DD imagerel $LN14
	DD	imagerel $LN14+82
	DD	imagerel $unwind$??0ResourceHolderUINT@Internal@Core@Math@Palmtree@@QEAA@XZ
pdata	ENDS
;	COMDAT pdata
pdata	SEGMENT
$pdata$??1ResourceHolderUINT@Internal@Core@Math@Palmtree@@UEAA@XZ DD imagerel $LN6
	DD	imagerel $LN6+37
	DD	imagerel $unwind$??1ResourceHolderUINT@Internal@Core@Math@Palmtree@@UEAA@XZ
pdata	ENDS
;	COMDAT pdata
pdata	SEGMENT
$pdata$?AllocateBytes@ResourceHolderUINT@Internal@Core@Math@Palmtree@@QEAAPEAX_K@Z DD imagerel $LN25
	DD	imagerel $LN25+221
	DD	imagerel $unwind$?AllocateBytes@ResourceHolderUINT@Internal@Core@Math@Palmtree@@QEAAPEAX_K@Z
pdata	ENDS
;	COMDAT pdata
pdata	SEGMENT
$pdata$?dtor$1@?0??AllocateBytes@ResourceHolderUINT@Internal@Core@Math@Palmtree@@QEAAPEAX_K@Z@4HA DD imagerel ?dtor$1@?0??AllocateBytes@ResourceHolderUINT@Internal@Core@Math@Palmtree@@QEAAPEAX_K@Z@4HA
	DD	imagerel ?dtor$1@?0??AllocateBytes@ResourceHolderUINT@Internal@Core@Math@Palmtree@@QEAAPEAX_K@Z@4HA+32
	DD	imagerel $unwind$?dtor$1@?0??AllocateBytes@ResourceHolderUINT@Internal@Core@Math@Palmtree@@QEAAPEAX_K@Z@4HA
pdata	ENDS
;	COMDAT pdata
pdata	SEGMENT
$pdata$?DeallocateBytes@ResourceHolderUINT@Internal@Core@Math@Palmtree@@QEAAXPEAX@Z DD imagerel $LN31
	DD	imagerel $LN31+180
	DD	imagerel $unwind$?DeallocateBytes@ResourceHolderUINT@Internal@Core@Math@Palmtree@@QEAAXPEAX@Z
pdata	ENDS
;	COMDAT pdata
pdata	SEGMENT
$pdata$?UnlinkBytes@ResourceHolderUINT@Internal@Core@Math@Palmtree@@QEAAXPEAX@Z DD imagerel $LN31
	DD	imagerel $LN31+201
	DD	imagerel $unwind$?UnlinkBytes@ResourceHolderUINT@Internal@Core@Math@Palmtree@@QEAAXPEAX@Z
pdata	ENDS
;	COMDAT pdata
pdata	SEGMENT
$pdata$?AllocateBlock@ResourceHolderUINT@Internal@Core@Math@Palmtree@@QEAAPEA_K_K@Z DD imagerel $LN30
	DD	imagerel $LN30+269
	DD	imagerel $unwind$?AllocateBlock@ResourceHolderUINT@Internal@Core@Math@Palmtree@@QEAAPEA_K_K@Z
pdata	ENDS
;	COMDAT pdata
pdata	SEGMENT
$pdata$?dtor$1@?0??AllocateBlock@ResourceHolderUINT@Internal@Core@Math@Palmtree@@QEAAPEA_K_K@Z@4HA DD imagerel ?dtor$1@?0??AllocateBlock@ResourceHolderUINT@Internal@Core@Math@Palmtree@@QEAAPEA_K_K@Z@4HA
	DD	imagerel ?dtor$1@?0??AllocateBlock@ResourceHolderUINT@Internal@Core@Math@Palmtree@@QEAAPEA_K_K@Z@4HA+29
	DD	imagerel $unwind$?dtor$1@?0??AllocateBlock@ResourceHolderUINT@Internal@Core@Math@Palmtree@@QEAAPEA_K_K@Z@4HA
pdata	ENDS
;	COMDAT pdata
pdata	SEGMENT
$pdata$?ClearBlock@ResourceHolderUINT@Internal@Core@Math@Palmtree@@QEAAXPEA_K@Z DD imagerel $LN28
	DD	imagerel $LN28+174
	DD	imagerel $unwind$?ClearBlock@ResourceHolderUINT@Internal@Core@Math@Palmtree@@QEAAXPEA_K@Z
pdata	ENDS
;	COMDAT pdata
pdata	SEGMENT
$pdata$?DeallocateBlock@ResourceHolderUINT@Internal@Core@Math@Palmtree@@QEAAXPEA_K@Z DD imagerel $LN31
	DD	imagerel $LN31+180
	DD	imagerel $unwind$?DeallocateBlock@ResourceHolderUINT@Internal@Core@Math@Palmtree@@QEAAXPEA_K@Z
pdata	ENDS
;	COMDAT pdata
pdata	SEGMENT
$pdata$?UnlinkBlock@ResourceHolderUINT@Internal@Core@Math@Palmtree@@QEAAXPEA_K@Z DD imagerel $LN31
	DD	imagerel $LN31+201
	DD	imagerel $unwind$?UnlinkBlock@ResourceHolderUINT@Internal@Core@Math@Palmtree@@QEAAXPEA_K@Z
pdata	ENDS
;	COMDAT pdata
pdata	SEGMENT
$pdata$?AllocateString@ResourceHolderUINT@Internal@Core@Math@Palmtree@@QEAAPEA_W_K@Z DD imagerel $LN30
	DD	imagerel $LN30+273
	DD	imagerel $unwind$?AllocateString@ResourceHolderUINT@Internal@Core@Math@Palmtree@@QEAAPEA_W_K@Z
pdata	ENDS
;	COMDAT pdata
pdata	SEGMENT
$pdata$?dtor$1@?0??AllocateString@ResourceHolderUINT@Internal@Core@Math@Palmtree@@QEAAPEA_W_K@Z@4HA DD imagerel ?dtor$1@?0??AllocateString@ResourceHolderUINT@Internal@Core@Math@Palmtree@@QEAAPEA_W_K@Z@4HA
	DD	imagerel ?dtor$1@?0??AllocateString@ResourceHolderUINT@Internal@Core@Math@Palmtree@@QEAAPEA_W_K@Z@4HA+29
	DD	imagerel $unwind$?dtor$1@?0??AllocateString@ResourceHolderUINT@Internal@Core@Math@Palmtree@@QEAAPEA_W_K@Z@4HA
pdata	ENDS
;	COMDAT pdata
pdata	SEGMENT
$pdata$?ClearString@ResourceHolderUINT@Internal@Core@Math@Palmtree@@QEAAXPEA_W@Z DD imagerel $LN28
	DD	imagerel $LN28+174
	DD	imagerel $unwind$?ClearString@ResourceHolderUINT@Internal@Core@Math@Palmtree@@QEAAXPEA_W@Z
pdata	ENDS
;	COMDAT pdata
pdata	SEGMENT
$pdata$?DeallocateString@ResourceHolderUINT@Internal@Core@Math@Palmtree@@QEAAXPEA_W@Z DD imagerel $LN31
	DD	imagerel $LN31+180
	DD	imagerel $unwind$?DeallocateString@ResourceHolderUINT@Internal@Core@Math@Palmtree@@QEAAXPEA_W@Z
pdata	ENDS
;	COMDAT pdata
pdata	SEGMENT
$pdata$?UnlinkString@ResourceHolderUINT@Internal@Core@Math@Palmtree@@QEAAXPEA_W@Z DD imagerel $LN31
	DD	imagerel $LN31+201
	DD	imagerel $unwind$?UnlinkString@ResourceHolderUINT@Internal@Core@Math@Palmtree@@QEAAXPEA_W@Z
pdata	ENDS
;	COMDAT pdata
pdata	SEGMENT
$pdata$?AllocateNumber@ResourceHolderUINT@Internal@Core@Math@Palmtree@@QEAAPEAU__tag_NUMBER_HEADER@2345@_K@Z DD imagerel $LN22
	DD	imagerel $LN22+166
	DD	imagerel $unwind$?AllocateNumber@ResourceHolderUINT@Internal@Core@Math@Palmtree@@QEAAPEAU__tag_NUMBER_HEADER@2345@_K@Z
pdata	ENDS
;	COMDAT pdata
pdata	SEGMENT
$pdata$?dtor$1@?0??AllocateNumber@ResourceHolderUINT@Internal@Core@Math@Palmtree@@QEAAPEAU__tag_NUMBER_HEADER@2345@_K@Z@4HA DD imagerel ?dtor$1@?0??AllocateNumber@ResourceHolderUINT@Internal@Core@Math@Palmtree@@QEAAPEAU__tag_NUMBER_HEADER@2345@_K@Z@4HA
	DD	imagerel ?dtor$1@?0??AllocateNumber@ResourceHolderUINT@Internal@Core@Math@Palmtree@@QEAAPEAU__tag_NUMBER_HEADER@2345@_K@Z@4HA+29
	DD	imagerel $unwind$?dtor$1@?0??AllocateNumber@ResourceHolderUINT@Internal@Core@Math@Palmtree@@QEAAPEAU__tag_NUMBER_HEADER@2345@_K@Z@4HA
pdata	ENDS
;	COMDAT pdata
pdata	SEGMENT
$pdata$?HookNumber@ResourceHolderUINT@Internal@Core@Math@Palmtree@@QEAAXPEAU__tag_NUMBER_HEADER@2345@@Z DD imagerel $LN22
	DD	imagerel $LN22+152
	DD	imagerel $unwind$?HookNumber@ResourceHolderUINT@Internal@Core@Math@Palmtree@@QEAAXPEAU__tag_NUMBER_HEADER@2345@@Z
pdata	ENDS
;	COMDAT pdata
pdata	SEGMENT
$pdata$?dtor$1@?0??HookNumber@ResourceHolderUINT@Internal@Core@Math@Palmtree@@QEAAXPEAU__tag_NUMBER_HEADER@2345@@Z@4HA DD imagerel ?dtor$1@?0??HookNumber@ResourceHolderUINT@Internal@Core@Math@Palmtree@@QEAAXPEAU__tag_NUMBER_HEADER@2345@@Z@4HA
	DD	imagerel ?dtor$1@?0??HookNumber@ResourceHolderUINT@Internal@Core@Math@Palmtree@@QEAAXPEAU__tag_NUMBER_HEADER@2345@@Z@4HA+29
	DD	imagerel $unwind$?dtor$1@?0??HookNumber@ResourceHolderUINT@Internal@Core@Math@Palmtree@@QEAAXPEAU__tag_NUMBER_HEADER@2345@@Z@4HA
pdata	ENDS
;	COMDAT pdata
pdata	SEGMENT
$pdata$?DeallocateNumber@ResourceHolderUINT@Internal@Core@Math@Palmtree@@QEAAXPEAU__tag_NUMBER_HEADER@2345@@Z DD imagerel $LN31
	DD	imagerel $LN31+180
	DD	imagerel $unwind$?DeallocateNumber@ResourceHolderUINT@Internal@Core@Math@Palmtree@@QEAAXPEAU__tag_NUMBER_HEADER@2345@@Z
pdata	ENDS
;	COMDAT pdata
pdata	SEGMENT
$pdata$?UnlinkNumber@ResourceHolderUINT@Internal@Core@Math@Palmtree@@QEAAXPEAU__tag_NUMBER_HEADER@2345@@Z DD imagerel $LN31
	DD	imagerel $LN31+201
	DD	imagerel $unwind$?UnlinkNumber@ResourceHolderUINT@Internal@Core@Math@Palmtree@@QEAAXPEAU__tag_NUMBER_HEADER@2345@@Z
pdata	ENDS
;	COMDAT pdata
pdata	SEGMENT
$pdata$?AttatchStaticNumber@ResourceHolderUINT@Internal@Core@Math@Palmtree@@QEAAXPEAU__tag_NUMBER_HEADER@2345@_K@Z DD imagerel $LN24
	DD	imagerel $LN24+180
	DD	imagerel $unwind$?AttatchStaticNumber@ResourceHolderUINT@Internal@Core@Math@Palmtree@@QEAAXPEAU__tag_NUMBER_HEADER@2345@_K@Z
pdata	ENDS
;	COMDAT pdata
pdata	SEGMENT
$pdata$?dtor$1@?0??AttatchStaticNumber@ResourceHolderUINT@Internal@Core@Math@Palmtree@@QEAAXPEAU__tag_NUMBER_HEADER@2345@_K@Z@4HA DD imagerel ?dtor$1@?0??AttatchStaticNumber@ResourceHolderUINT@Internal@Core@Math@Palmtree@@QEAAXPEAU__tag_NUMBER_HEADER@2345@_K@Z@4HA
	DD	imagerel ?dtor$1@?0??AttatchStaticNumber@ResourceHolderUINT@Internal@Core@Math@Palmtree@@QEAAXPEAU__tag_NUMBER_HEADER@2345@_K@Z@4HA+29
	DD	imagerel $unwind$?dtor$1@?0??AttatchStaticNumber@ResourceHolderUINT@Internal@Core@Math@Palmtree@@QEAAXPEAU__tag_NUMBER_HEADER@2345@_K@Z@4HA
pdata	ENDS
;	COMDAT pdata
pdata	SEGMENT
$pdata$?DetatchStaticNumber@ResourceHolderUINT@Internal@Core@Math@Palmtree@@QEAAXPEAU__tag_NUMBER_HEADER@2345@@Z DD imagerel $LN31
	DD	imagerel $LN31+180
	DD	imagerel $unwind$?DetatchStaticNumber@ResourceHolderUINT@Internal@Core@Math@Palmtree@@QEAAXPEAU__tag_NUMBER_HEADER@2345@@Z
pdata	ENDS
;	COMDAT pdata
pdata	SEGMENT
$pdata$?UnlinkStatickNumber@ResourceHolderUINT@Internal@Core@Math@Palmtree@@QEAAXPEAU__tag_NUMBER_HEADER@2345@@Z DD imagerel $LN31
	DD	imagerel $LN31+201
	DD	imagerel $unwind$?UnlinkStatickNumber@ResourceHolderUINT@Internal@Core@Math@Palmtree@@QEAAXPEAU__tag_NUMBER_HEADER@2345@@Z
pdata	ENDS
;	COMDAT pdata
pdata	SEGMENT
$pdata$??_GResourceHolderUINT@Internal@Core@Math@Palmtree@@UEAAPEAXI@Z DD imagerel $LN10
	DD	imagerel $LN10+78
	DD	imagerel $unwind$??_GResourceHolderUINT@Internal@Core@Math@Palmtree@@UEAAPEAXI@Z
pdata	ENDS
;	COMDAT pdata
pdata	SEGMENT
$pdata$_COPY_MEMORY_UNIT DD imagerel _COPY_MEMORY_UNIT
	DD	imagerel _COPY_MEMORY_UNIT+33
	DD	imagerel $unwind$_COPY_MEMORY_UNIT
pdata	ENDS
;	COMDAT pdata
pdata	SEGMENT
$pdata$_ZERO_MEMORY_BYTE DD imagerel _ZERO_MEMORY_BYTE
	DD	imagerel _ZERO_MEMORY_BYTE+21
	DD	imagerel $unwind$_ZERO_MEMORY_BYTE
pdata	ENDS
;	COMDAT pdata
pdata	SEGMENT
$pdata$_ZERO_MEMORY_16 DD imagerel _ZERO_MEMORY_16
	DD	imagerel _ZERO_MEMORY_16+22
	DD	imagerel $unwind$_ZERO_MEMORY_16
pdata	ENDS
;	COMDAT pdata
pdata	SEGMENT
$pdata$_ZERO_MEMORY_32 DD imagerel _ZERO_MEMORY_32
	DD	imagerel _ZERO_MEMORY_32+21
	DD	imagerel $unwind$_ZERO_MEMORY_32
pdata	ENDS
;	COMDAT pdata
pdata	SEGMENT
$pdata$_ZERO_MEMORY_64 DD imagerel _ZERO_MEMORY_64
	DD	imagerel _ZERO_MEMORY_64+22
	DD	imagerel $unwind$_ZERO_MEMORY_64
pdata	ENDS
;	COMDAT pdata
pdata	SEGMENT
$pdata$_ZERO_MEMORY_UNIT DD imagerel _ZERO_MEMORY_UNIT
	DD	imagerel _ZERO_MEMORY_UNIT+22
	DD	imagerel $unwind$_ZERO_MEMORY_UNIT
pdata	ENDS
;	COMDAT pdata
pdata	SEGMENT
$pdata$_FILL_MEMORY_BYTE DD imagerel _FILL_MEMORY_BYTE
	DD	imagerel _FILL_MEMORY_BYTE+22
	DD	imagerel $unwind$_FILL_MEMORY_BYTE
pdata	ENDS
;	COMDAT pdata
pdata	SEGMENT
$pdata$_FILL_MEMORY_16 DD imagerel _FILL_MEMORY_16
	DD	imagerel _FILL_MEMORY_16+23
	DD	imagerel $unwind$_FILL_MEMORY_16
pdata	ENDS
;	COMDAT pdata
pdata	SEGMENT
$pdata$_FILL_MEMORY_32 DD imagerel _FILL_MEMORY_32
	DD	imagerel _FILL_MEMORY_32+21
	DD	imagerel $unwind$_FILL_MEMORY_32
pdata	ENDS
;	COMDAT pdata
pdata	SEGMENT
$pdata$_FILL_MEMORY_64 DD imagerel _FILL_MEMORY_64
	DD	imagerel _FILL_MEMORY_64+23
	DD	imagerel $unwind$_FILL_MEMORY_64
pdata	ENDS
;	COMDAT pdata
pdata	SEGMENT
$pdata$_FILL_MEMORY_UNIT DD imagerel _FILL_MEMORY_UNIT
	DD	imagerel _FILL_MEMORY_UNIT+23
	DD	imagerel $unwind$_FILL_MEMORY_UNIT
pdata	ENDS
;	COMDAT pdata
pdata	SEGMENT
$pdata$?AllocateBlock@Internal@Core@Math@Palmtree@@YAPEA_K_KPEA_K1@Z DD imagerel ?AllocateBlock@Internal@Core@Math@Palmtree@@YAPEA_K_KPEA_K1@Z
	DD	imagerel ?AllocateBlock@Internal@Core@Math@Palmtree@@YAPEA_K_KPEA_K1@Z+131
	DD	imagerel $unwind$?AllocateBlock@Internal@Core@Math@Palmtree@@YAPEA_K_KPEA_K1@Z
pdata	ENDS
;	COMDAT pdata
pdata	SEGMENT
$pdata$?DeallocateBlock@Internal@Core@Math@Palmtree@@YAXPEA_K_K1@Z DD imagerel ?DeallocateBlock@Internal@Core@Math@Palmtree@@YAXPEA_K_K1@Z
	DD	imagerel ?DeallocateBlock@Internal@Core@Math@Palmtree@@YAXPEA_K_K1@Z+13
	DD	imagerel $unwind$?DeallocateBlock@Internal@Core@Math@Palmtree@@YAXPEA_K_K1@Z
pdata	ENDS
;	COMDAT pdata
pdata	SEGMENT
$pdata$0$?DeallocateBlock@Internal@Core@Math@Palmtree@@YAXPEA_K_K1@Z DD imagerel ?DeallocateBlock@Internal@Core@Math@Palmtree@@YAXPEA_K_K1@Z+13
	DD	imagerel ?DeallocateBlock@Internal@Core@Math@Palmtree@@YAXPEA_K_K1@Z+63
	DD	imagerel $chain$0$?DeallocateBlock@Internal@Core@Math@Palmtree@@YAXPEA_K_K1@Z
pdata	ENDS
;	COMDAT pdata
pdata	SEGMENT
$pdata$1$?DeallocateBlock@Internal@Core@Math@Palmtree@@YAXPEA_K_K1@Z DD imagerel ?DeallocateBlock@Internal@Core@Math@Palmtree@@YAXPEA_K_K1@Z+63
	DD	imagerel ?DeallocateBlock@Internal@Core@Math@Palmtree@@YAXPEA_K_K1@Z+73
	DD	imagerel $chain$1$?DeallocateBlock@Internal@Core@Math@Palmtree@@YAXPEA_K_K1@Z
pdata	ENDS
;	COMDAT pdata
pdata	SEGMENT
$pdata$?CheckBlock@Internal@Core@Math@Palmtree@@YAXPEA_K_K1@Z DD imagerel ?CheckBlock@Internal@Core@Math@Palmtree@@YAXPEA_K_K1@Z
	DD	imagerel ?CheckBlock@Internal@Core@Math@Palmtree@@YAXPEA_K_K1@Z+113
	DD	imagerel $unwind$?CheckBlock@Internal@Core@Math@Palmtree@@YAXPEA_K_K1@Z
pdata	ENDS
;	COMDAT pdata
pdata	SEGMENT
$pdata$?InitializeNumber@Internal@Core@Math@Palmtree@@YAXPEAU__tag_NUMBER_HEADER@1234@_K@Z DD imagerel ?InitializeNumber@Internal@Core@Math@Palmtree@@YAXPEAU__tag_NUMBER_HEADER@1234@_K@Z
	DD	imagerel ?InitializeNumber@Internal@Core@Math@Palmtree@@YAXPEAU__tag_NUMBER_HEADER@1234@_K@Z+32
	DD	imagerel $unwind$?InitializeNumber@Internal@Core@Math@Palmtree@@YAXPEAU__tag_NUMBER_HEADER@1234@_K@Z
pdata	ENDS
;	COMDAT pdata
pdata	SEGMENT
$pdata$0$?InitializeNumber@Internal@Core@Math@Palmtree@@YAXPEAU__tag_NUMBER_HEADER@1234@_K@Z DD imagerel ?InitializeNumber@Internal@Core@Math@Palmtree@@YAXPEAU__tag_NUMBER_HEADER@1234@_K@Z+32
	DD	imagerel ?InitializeNumber@Internal@Core@Math@Palmtree@@YAXPEAU__tag_NUMBER_HEADER@1234@_K@Z+163
	DD	imagerel $chain$0$?InitializeNumber@Internal@Core@Math@Palmtree@@YAXPEAU__tag_NUMBER_HEADER@1234@_K@Z
pdata	ENDS
;	COMDAT pdata
pdata	SEGMENT
$pdata$1$?InitializeNumber@Internal@Core@Math@Palmtree@@YAXPEAU__tag_NUMBER_HEADER@1234@_K@Z DD imagerel ?InitializeNumber@Internal@Core@Math@Palmtree@@YAXPEAU__tag_NUMBER_HEADER@1234@_K@Z+163
	DD	imagerel ?InitializeNumber@Internal@Core@Math@Palmtree@@YAXPEAU__tag_NUMBER_HEADER@1234@_K@Z+233
	DD	imagerel $chain$1$?InitializeNumber@Internal@Core@Math@Palmtree@@YAXPEAU__tag_NUMBER_HEADER@1234@_K@Z
pdata	ENDS
;	COMDAT pdata
pdata	SEGMENT
$pdata$2$?InitializeNumber@Internal@Core@Math@Palmtree@@YAXPEAU__tag_NUMBER_HEADER@1234@_K@Z DD imagerel ?InitializeNumber@Internal@Core@Math@Palmtree@@YAXPEAU__tag_NUMBER_HEADER@1234@_K@Z+233
	DD	imagerel ?InitializeNumber@Internal@Core@Math@Palmtree@@YAXPEAU__tag_NUMBER_HEADER@1234@_K@Z+268
	DD	imagerel $chain$2$?InitializeNumber@Internal@Core@Math@Palmtree@@YAXPEAU__tag_NUMBER_HEADER@1234@_K@Z
pdata	ENDS
;	COMDAT pdata
pdata	SEGMENT
$pdata$?CleanUpNumber@Internal@Core@Math@Palmtree@@YAXPEAU__tag_NUMBER_HEADER@1234@@Z DD imagerel ?CleanUpNumber@Internal@Core@Math@Palmtree@@YAXPEAU__tag_NUMBER_HEADER@1234@@Z
	DD	imagerel ?CleanUpNumber@Internal@Core@Math@Palmtree@@YAXPEAU__tag_NUMBER_HEADER@1234@@Z+43
	DD	imagerel $unwind$?CleanUpNumber@Internal@Core@Math@Palmtree@@YAXPEAU__tag_NUMBER_HEADER@1234@@Z
pdata	ENDS
;	COMDAT pdata
pdata	SEGMENT
$pdata$0$?CleanUpNumber@Internal@Core@Math@Palmtree@@YAXPEAU__tag_NUMBER_HEADER@1234@@Z DD imagerel ?CleanUpNumber@Internal@Core@Math@Palmtree@@YAXPEAU__tag_NUMBER_HEADER@1234@@Z+43
	DD	imagerel ?CleanUpNumber@Internal@Core@Math@Palmtree@@YAXPEAU__tag_NUMBER_HEADER@1234@@Z+79
	DD	imagerel $chain$0$?CleanUpNumber@Internal@Core@Math@Palmtree@@YAXPEAU__tag_NUMBER_HEADER@1234@@Z
pdata	ENDS
;	COMDAT pdata
pdata	SEGMENT
$pdata$1$?CleanUpNumber@Internal@Core@Math@Palmtree@@YAXPEAU__tag_NUMBER_HEADER@1234@@Z DD imagerel ?CleanUpNumber@Internal@Core@Math@Palmtree@@YAXPEAU__tag_NUMBER_HEADER@1234@@Z+79
	DD	imagerel ?CleanUpNumber@Internal@Core@Math@Palmtree@@YAXPEAU__tag_NUMBER_HEADER@1234@@Z+89
	DD	imagerel $chain$1$?CleanUpNumber@Internal@Core@Math@Palmtree@@YAXPEAU__tag_NUMBER_HEADER@1234@@Z
pdata	ENDS
;	COMDAT pdata
pdata	SEGMENT
$pdata$?AttatchNumber@Internal@Core@Math@Palmtree@@YAXPEAU__tag_NUMBER_HEADER@1234@_K@Z DD imagerel ?AttatchNumber@Internal@Core@Math@Palmtree@@YAXPEAU__tag_NUMBER_HEADER@1234@_K@Z
	DD	imagerel ?AttatchNumber@Internal@Core@Math@Palmtree@@YAXPEAU__tag_NUMBER_HEADER@1234@_K@Z+24
	DD	imagerel $unwind$?AttatchNumber@Internal@Core@Math@Palmtree@@YAXPEAU__tag_NUMBER_HEADER@1234@_K@Z
pdata	ENDS
;	COMDAT pdata
pdata	SEGMENT
$pdata$?AllocateNumber@Internal@Core@Math@Palmtree@@YAPEAU__tag_NUMBER_HEADER@1234@_K@Z DD imagerel ?AllocateNumber@Internal@Core@Math@Palmtree@@YAPEAU__tag_NUMBER_HEADER@1234@_K@Z
	DD	imagerel ?AllocateNumber@Internal@Core@Math@Palmtree@@YAPEAU__tag_NUMBER_HEADER@1234@_K@Z+511
	DD	imagerel $unwind$?AllocateNumber@Internal@Core@Math@Palmtree@@YAPEAU__tag_NUMBER_HEADER@1234@_K@Z
pdata	ENDS
;	COMDAT pdata
pdata	SEGMENT
$pdata$?dtor$5@?0??AllocateNumber@Internal@Core@Math@Palmtree@@YAPEAU__tag_NUMBER_HEADER@1234@_K@Z@4HA DD imagerel ?dtor$5@?0??AllocateNumber@Internal@Core@Math@Palmtree@@YAPEAU__tag_NUMBER_HEADER@1234@_K@Z@4HA
	DD	imagerel ?dtor$5@?0??AllocateNumber@Internal@Core@Math@Palmtree@@YAPEAU__tag_NUMBER_HEADER@1234@_K@Z@4HA+32
	DD	imagerel $unwind$?dtor$5@?0??AllocateNumber@Internal@Core@Math@Palmtree@@YAPEAU__tag_NUMBER_HEADER@1234@_K@Z@4HA
pdata	ENDS
;	COMDAT pdata
pdata	SEGMENT
$pdata$?DeallocateNumber@Internal@Core@Math@Palmtree@@YAXPEAU__tag_NUMBER_HEADER@1234@@Z DD imagerel ?DeallocateNumber@Internal@Core@Math@Palmtree@@YAXPEAU__tag_NUMBER_HEADER@1234@@Z
	DD	imagerel ?DeallocateNumber@Internal@Core@Math@Palmtree@@YAXPEAU__tag_NUMBER_HEADER@1234@@Z+97
	DD	imagerel $unwind$?DeallocateNumber@Internal@Core@Math@Palmtree@@YAXPEAU__tag_NUMBER_HEADER@1234@@Z
pdata	ENDS
;	COMDAT pdata
pdata	SEGMENT
$pdata$?GetAllocatedMemorySize_Imp@Internal@Core@Math@Palmtree@@YAHPEA_K@Z DD imagerel ?GetAllocatedMemorySize_Imp@Internal@Core@Math@Palmtree@@YAHPEA_K@Z
	DD	imagerel ?GetAllocatedMemorySize_Imp@Internal@Core@Math@Palmtree@@YAHPEA_K@Z+112
	DD	imagerel $unwind$?GetAllocatedMemorySize_Imp@Internal@Core@Math@Palmtree@@YAHPEA_K@Z
pdata	ENDS
;	COMDAT ??_R1A@?0A@EA@__StaticNumberChainBufferTag@ResourceHolderUINT@Internal@Core@Math@Palmtree@@8
rdata$r	SEGMENT
??_R1A@?0A@EA@__StaticNumberChainBufferTag@ResourceHolderUINT@Internal@Core@Math@Palmtree@@8 DD imagerel ??_R0?AV__StaticNumberChainBufferTag@ResourceHolderUINT@Internal@Core@Math@Palmtree@@@8 ; Palmtree::Math::Core::Internal::ResourceHolderUINT::__StaticNumberChainBufferTag::`RTTI Base Class Descriptor at (0,-1,0,64)'
	DD	01H
	DD	00H
	DD	0ffffffffH
	DD	00H
	DD	040H
	DD	imagerel ??_R3__StaticNumberChainBufferTag@ResourceHolderUINT@Internal@Core@Math@Palmtree@@8
rdata$r	ENDS
;	COMDAT ??_R2__StaticNumberChainBufferTag@ResourceHolderUINT@Internal@Core@Math@Palmtree@@8
rdata$r	SEGMENT
??_R2__StaticNumberChainBufferTag@ResourceHolderUINT@Internal@Core@Math@Palmtree@@8 DD imagerel ??_R1A@?0A@EA@__StaticNumberChainBufferTag@ResourceHolderUINT@Internal@Core@Math@Palmtree@@8 ; Palmtree::Math::Core::Internal::ResourceHolderUINT::__StaticNumberChainBufferTag::`RTTI Base Class Array'
	DD	imagerel ??_R1A@?0A@EA@__ChainBufferTag@ResourceHolder@Internal@Core@Math@Palmtree@@8
	ORG $+3
rdata$r	ENDS
;	COMDAT ??_R3__StaticNumberChainBufferTag@ResourceHolderUINT@Internal@Core@Math@Palmtree@@8
rdata$r	SEGMENT
??_R3__StaticNumberChainBufferTag@ResourceHolderUINT@Internal@Core@Math@Palmtree@@8 DD 00H ; Palmtree::Math::Core::Internal::ResourceHolderUINT::__StaticNumberChainBufferTag::`RTTI Class Hierarchy Descriptor'
	DD	00H
	DD	02H
	DD	imagerel ??_R2__StaticNumberChainBufferTag@ResourceHolderUINT@Internal@Core@Math@Palmtree@@8
rdata$r	ENDS
;	COMDAT ??_R0?AV__StaticNumberChainBufferTag@ResourceHolderUINT@Internal@Core@Math@Palmtree@@@8
data$r	SEGMENT
??_R0?AV__StaticNumberChainBufferTag@ResourceHolderUINT@Internal@Core@Math@Palmtree@@@8 DQ FLAT:??_7type_info@@6B@ ; Palmtree::Math::Core::Internal::ResourceHolderUINT::__StaticNumberChainBufferTag `RTTI Type Descriptor'
	DQ	0000000000000000H
	DB	'.?AV__StaticNumberChainBufferTag@ResourceHolderUINT@Inte'
	DB	'rnal@Core@Math@Palmtree@@', 00H
data$r	ENDS
;	COMDAT ??_R4__StaticNumberChainBufferTag@ResourceHolderUINT@Internal@Core@Math@Palmtree@@6B@
rdata$r	SEGMENT
??_R4__StaticNumberChainBufferTag@ResourceHolderUINT@Internal@Core@Math@Palmtree@@6B@ DD 01H ; Palmtree::Math::Core::Internal::ResourceHolderUINT::__StaticNumberChainBufferTag::`RTTI Complete Object Locator'
	DD	00H
	DD	00H
	DD	imagerel ??_R0?AV__StaticNumberChainBufferTag@ResourceHolderUINT@Internal@Core@Math@Palmtree@@@8
	DD	imagerel ??_R3__StaticNumberChainBufferTag@ResourceHolderUINT@Internal@Core@Math@Palmtree@@8
	DD	imagerel ??_R4__StaticNumberChainBufferTag@ResourceHolderUINT@Internal@Core@Math@Palmtree@@6B@
rdata$r	ENDS
;	COMDAT ??_R1A@?0A@EA@__NumberHandleHookingChainBufferTag@ResourceHolderUINT@Internal@Core@Math@Palmtree@@8
rdata$r	SEGMENT
??_R1A@?0A@EA@__NumberHandleHookingChainBufferTag@ResourceHolderUINT@Internal@Core@Math@Palmtree@@8 DD imagerel ??_R0?AV__NumberHandleHookingChainBufferTag@ResourceHolderUINT@Internal@Core@Math@Palmtree@@@8 ; Palmtree::Math::Core::Internal::ResourceHolderUINT::__NumberHandleHookingChainBufferTag::`RTTI Base Class Descriptor at (0,-1,0,64)'
	DD	01H
	DD	00H
	DD	0ffffffffH
	DD	00H
	DD	040H
	DD	imagerel ??_R3__NumberHandleHookingChainBufferTag@ResourceHolderUINT@Internal@Core@Math@Palmtree@@8
rdata$r	ENDS
;	COMDAT ??_R2__NumberHandleHookingChainBufferTag@ResourceHolderUINT@Internal@Core@Math@Palmtree@@8
rdata$r	SEGMENT
??_R2__NumberHandleHookingChainBufferTag@ResourceHolderUINT@Internal@Core@Math@Palmtree@@8 DD imagerel ??_R1A@?0A@EA@__NumberHandleHookingChainBufferTag@ResourceHolderUINT@Internal@Core@Math@Palmtree@@8 ; Palmtree::Math::Core::Internal::ResourceHolderUINT::__NumberHandleHookingChainBufferTag::`RTTI Base Class Array'
	DD	imagerel ??_R1A@?0A@EA@__ChainBufferTag@ResourceHolder@Internal@Core@Math@Palmtree@@8
	ORG $+3
rdata$r	ENDS
;	COMDAT ??_R3__NumberHandleHookingChainBufferTag@ResourceHolderUINT@Internal@Core@Math@Palmtree@@8
rdata$r	SEGMENT
??_R3__NumberHandleHookingChainBufferTag@ResourceHolderUINT@Internal@Core@Math@Palmtree@@8 DD 00H ; Palmtree::Math::Core::Internal::ResourceHolderUINT::__NumberHandleHookingChainBufferTag::`RTTI Class Hierarchy Descriptor'
	DD	00H
	DD	02H
	DD	imagerel ??_R2__NumberHandleHookingChainBufferTag@ResourceHolderUINT@Internal@Core@Math@Palmtree@@8
rdata$r	ENDS
;	COMDAT ??_R0?AV__NumberHandleHookingChainBufferTag@ResourceHolderUINT@Internal@Core@Math@Palmtree@@@8
data$r	SEGMENT
??_R0?AV__NumberHandleHookingChainBufferTag@ResourceHolderUINT@Internal@Core@Math@Palmtree@@@8 DQ FLAT:??_7type_info@@6B@ ; Palmtree::Math::Core::Internal::ResourceHolderUINT::__NumberHandleHookingChainBufferTag `RTTI Type Descriptor'
	DQ	0000000000000000H
	DB	'.?AV__NumberHandleHookingChainBufferTag@ResourceHolderUI'
	DB	'NT@Internal@Core@Math@Palmtree@@', 00H
data$r	ENDS
;	COMDAT ??_R4__NumberHandleHookingChainBufferTag@ResourceHolderUINT@Internal@Core@Math@Palmtree@@6B@
rdata$r	SEGMENT
??_R4__NumberHandleHookingChainBufferTag@ResourceHolderUINT@Internal@Core@Math@Palmtree@@6B@ DD 01H ; Palmtree::Math::Core::Internal::ResourceHolderUINT::__NumberHandleHookingChainBufferTag::`RTTI Complete Object Locator'
	DD	00H
	DD	00H
	DD	imagerel ??_R0?AV__NumberHandleHookingChainBufferTag@ResourceHolderUINT@Internal@Core@Math@Palmtree@@@8
	DD	imagerel ??_R3__NumberHandleHookingChainBufferTag@ResourceHolderUINT@Internal@Core@Math@Palmtree@@8
	DD	imagerel ??_R4__NumberHandleHookingChainBufferTag@ResourceHolderUINT@Internal@Core@Math@Palmtree@@6B@
rdata$r	ENDS
;	COMDAT ??_R1A@?0A@EA@__DynamicNumberChainBufferTag@ResourceHolderUINT@Internal@Core@Math@Palmtree@@8
rdata$r	SEGMENT
??_R1A@?0A@EA@__DynamicNumberChainBufferTag@ResourceHolderUINT@Internal@Core@Math@Palmtree@@8 DD imagerel ??_R0?AV__DynamicNumberChainBufferTag@ResourceHolderUINT@Internal@Core@Math@Palmtree@@@8 ; Palmtree::Math::Core::Internal::ResourceHolderUINT::__DynamicNumberChainBufferTag::`RTTI Base Class Descriptor at (0,-1,0,64)'
	DD	01H
	DD	00H
	DD	0ffffffffH
	DD	00H
	DD	040H
	DD	imagerel ??_R3__DynamicNumberChainBufferTag@ResourceHolderUINT@Internal@Core@Math@Palmtree@@8
rdata$r	ENDS
;	COMDAT ??_R2__DynamicNumberChainBufferTag@ResourceHolderUINT@Internal@Core@Math@Palmtree@@8
rdata$r	SEGMENT
??_R2__DynamicNumberChainBufferTag@ResourceHolderUINT@Internal@Core@Math@Palmtree@@8 DD imagerel ??_R1A@?0A@EA@__DynamicNumberChainBufferTag@ResourceHolderUINT@Internal@Core@Math@Palmtree@@8 ; Palmtree::Math::Core::Internal::ResourceHolderUINT::__DynamicNumberChainBufferTag::`RTTI Base Class Array'
	DD	imagerel ??_R1A@?0A@EA@__ChainBufferTag@ResourceHolder@Internal@Core@Math@Palmtree@@8
	ORG $+3
rdata$r	ENDS
;	COMDAT ??_R3__DynamicNumberChainBufferTag@ResourceHolderUINT@Internal@Core@Math@Palmtree@@8
rdata$r	SEGMENT
??_R3__DynamicNumberChainBufferTag@ResourceHolderUINT@Internal@Core@Math@Palmtree@@8 DD 00H ; Palmtree::Math::Core::Internal::ResourceHolderUINT::__DynamicNumberChainBufferTag::`RTTI Class Hierarchy Descriptor'
	DD	00H
	DD	02H
	DD	imagerel ??_R2__DynamicNumberChainBufferTag@ResourceHolderUINT@Internal@Core@Math@Palmtree@@8
rdata$r	ENDS
;	COMDAT ??_R0?AV__DynamicNumberChainBufferTag@ResourceHolderUINT@Internal@Core@Math@Palmtree@@@8
data$r	SEGMENT
??_R0?AV__DynamicNumberChainBufferTag@ResourceHolderUINT@Internal@Core@Math@Palmtree@@@8 DQ FLAT:??_7type_info@@6B@ ; Palmtree::Math::Core::Internal::ResourceHolderUINT::__DynamicNumberChainBufferTag `RTTI Type Descriptor'
	DQ	0000000000000000H
	DB	'.?AV__DynamicNumberChainBufferTag@ResourceHolderUINT@Int'
	DB	'ernal@Core@Math@Palmtree@@', 00H
data$r	ENDS
;	COMDAT ??_R4__DynamicNumberChainBufferTag@ResourceHolderUINT@Internal@Core@Math@Palmtree@@6B@
rdata$r	SEGMENT
??_R4__DynamicNumberChainBufferTag@ResourceHolderUINT@Internal@Core@Math@Palmtree@@6B@ DD 01H ; Palmtree::Math::Core::Internal::ResourceHolderUINT::__DynamicNumberChainBufferTag::`RTTI Complete Object Locator'
	DD	00H
	DD	00H
	DD	imagerel ??_R0?AV__DynamicNumberChainBufferTag@ResourceHolderUINT@Internal@Core@Math@Palmtree@@@8
	DD	imagerel ??_R3__DynamicNumberChainBufferTag@ResourceHolderUINT@Internal@Core@Math@Palmtree@@8
	DD	imagerel ??_R4__DynamicNumberChainBufferTag@ResourceHolderUINT@Internal@Core@Math@Palmtree@@6B@
rdata$r	ENDS
;	COMDAT ??_R1A@?0A@EA@__StringChainBufferTag@ResourceHolderUINT@Internal@Core@Math@Palmtree@@8
rdata$r	SEGMENT
??_R1A@?0A@EA@__StringChainBufferTag@ResourceHolderUINT@Internal@Core@Math@Palmtree@@8 DD imagerel ??_R0?AV__StringChainBufferTag@ResourceHolderUINT@Internal@Core@Math@Palmtree@@@8 ; Palmtree::Math::Core::Internal::ResourceHolderUINT::__StringChainBufferTag::`RTTI Base Class Descriptor at (0,-1,0,64)'
	DD	01H
	DD	00H
	DD	0ffffffffH
	DD	00H
	DD	040H
	DD	imagerel ??_R3__StringChainBufferTag@ResourceHolderUINT@Internal@Core@Math@Palmtree@@8
rdata$r	ENDS
;	COMDAT ??_R2__StringChainBufferTag@ResourceHolderUINT@Internal@Core@Math@Palmtree@@8
rdata$r	SEGMENT
??_R2__StringChainBufferTag@ResourceHolderUINT@Internal@Core@Math@Palmtree@@8 DD imagerel ??_R1A@?0A@EA@__StringChainBufferTag@ResourceHolderUINT@Internal@Core@Math@Palmtree@@8 ; Palmtree::Math::Core::Internal::ResourceHolderUINT::__StringChainBufferTag::`RTTI Base Class Array'
	DD	imagerel ??_R1A@?0A@EA@__ChainBufferTag@ResourceHolder@Internal@Core@Math@Palmtree@@8
	ORG $+3
rdata$r	ENDS
;	COMDAT ??_R3__StringChainBufferTag@ResourceHolderUINT@Internal@Core@Math@Palmtree@@8
rdata$r	SEGMENT
??_R3__StringChainBufferTag@ResourceHolderUINT@Internal@Core@Math@Palmtree@@8 DD 00H ; Palmtree::Math::Core::Internal::ResourceHolderUINT::__StringChainBufferTag::`RTTI Class Hierarchy Descriptor'
	DD	00H
	DD	02H
	DD	imagerel ??_R2__StringChainBufferTag@ResourceHolderUINT@Internal@Core@Math@Palmtree@@8
rdata$r	ENDS
;	COMDAT ??_R0?AV__StringChainBufferTag@ResourceHolderUINT@Internal@Core@Math@Palmtree@@@8
data$r	SEGMENT
??_R0?AV__StringChainBufferTag@ResourceHolderUINT@Internal@Core@Math@Palmtree@@@8 DQ FLAT:??_7type_info@@6B@ ; Palmtree::Math::Core::Internal::ResourceHolderUINT::__StringChainBufferTag `RTTI Type Descriptor'
	DQ	0000000000000000H
	DB	'.?AV__StringChainBufferTag@ResourceHolderUINT@Internal@C'
	DB	'ore@Math@Palmtree@@', 00H
data$r	ENDS
;	COMDAT ??_R4__StringChainBufferTag@ResourceHolderUINT@Internal@Core@Math@Palmtree@@6B@
rdata$r	SEGMENT
??_R4__StringChainBufferTag@ResourceHolderUINT@Internal@Core@Math@Palmtree@@6B@ DD 01H ; Palmtree::Math::Core::Internal::ResourceHolderUINT::__StringChainBufferTag::`RTTI Complete Object Locator'
	DD	00H
	DD	00H
	DD	imagerel ??_R0?AV__StringChainBufferTag@ResourceHolderUINT@Internal@Core@Math@Palmtree@@@8
	DD	imagerel ??_R3__StringChainBufferTag@ResourceHolderUINT@Internal@Core@Math@Palmtree@@8
	DD	imagerel ??_R4__StringChainBufferTag@ResourceHolderUINT@Internal@Core@Math@Palmtree@@6B@
rdata$r	ENDS
;	COMDAT ??_R1A@?0A@EA@____UNIT_TYPE_Array_ChainBufferTag@ResourceHolderUINT@Internal@Core@Math@Palmtree@@8
rdata$r	SEGMENT
??_R1A@?0A@EA@____UNIT_TYPE_Array_ChainBufferTag@ResourceHolderUINT@Internal@Core@Math@Palmtree@@8 DD imagerel ??_R0?AV____UNIT_TYPE_Array_ChainBufferTag@ResourceHolderUINT@Internal@Core@Math@Palmtree@@@8 ; Palmtree::Math::Core::Internal::ResourceHolderUINT::____UNIT_TYPE_Array_ChainBufferTag::`RTTI Base Class Descriptor at (0,-1,0,64)'
	DD	01H
	DD	00H
	DD	0ffffffffH
	DD	00H
	DD	040H
	DD	imagerel ??_R3____UNIT_TYPE_Array_ChainBufferTag@ResourceHolderUINT@Internal@Core@Math@Palmtree@@8
rdata$r	ENDS
;	COMDAT ??_R2____UNIT_TYPE_Array_ChainBufferTag@ResourceHolderUINT@Internal@Core@Math@Palmtree@@8
rdata$r	SEGMENT
??_R2____UNIT_TYPE_Array_ChainBufferTag@ResourceHolderUINT@Internal@Core@Math@Palmtree@@8 DD imagerel ??_R1A@?0A@EA@____UNIT_TYPE_Array_ChainBufferTag@ResourceHolderUINT@Internal@Core@Math@Palmtree@@8 ; Palmtree::Math::Core::Internal::ResourceHolderUINT::____UNIT_TYPE_Array_ChainBufferTag::`RTTI Base Class Array'
	DD	imagerel ??_R1A@?0A@EA@__ChainBufferTag@ResourceHolder@Internal@Core@Math@Palmtree@@8
	ORG $+3
rdata$r	ENDS
;	COMDAT ??_R3____UNIT_TYPE_Array_ChainBufferTag@ResourceHolderUINT@Internal@Core@Math@Palmtree@@8
rdata$r	SEGMENT
??_R3____UNIT_TYPE_Array_ChainBufferTag@ResourceHolderUINT@Internal@Core@Math@Palmtree@@8 DD 00H ; Palmtree::Math::Core::Internal::ResourceHolderUINT::____UNIT_TYPE_Array_ChainBufferTag::`RTTI Class Hierarchy Descriptor'
	DD	00H
	DD	02H
	DD	imagerel ??_R2____UNIT_TYPE_Array_ChainBufferTag@ResourceHolderUINT@Internal@Core@Math@Palmtree@@8
rdata$r	ENDS
;	COMDAT ??_R0?AV____UNIT_TYPE_Array_ChainBufferTag@ResourceHolderUINT@Internal@Core@Math@Palmtree@@@8
data$r	SEGMENT
??_R0?AV____UNIT_TYPE_Array_ChainBufferTag@ResourceHolderUINT@Internal@Core@Math@Palmtree@@@8 DQ FLAT:??_7type_info@@6B@ ; Palmtree::Math::Core::Internal::ResourceHolderUINT::____UNIT_TYPE_Array_ChainBufferTag `RTTI Type Descriptor'
	DQ	0000000000000000H
	DB	'.?AV____UNIT_TYPE_Array_ChainBufferTag@ResourceHolderUIN'
	DB	'T@Internal@Core@Math@Palmtree@@', 00H
data$r	ENDS
;	COMDAT ??_R4____UNIT_TYPE_Array_ChainBufferTag@ResourceHolderUINT@Internal@Core@Math@Palmtree@@6B@
rdata$r	SEGMENT
??_R4____UNIT_TYPE_Array_ChainBufferTag@ResourceHolderUINT@Internal@Core@Math@Palmtree@@6B@ DD 01H ; Palmtree::Math::Core::Internal::ResourceHolderUINT::____UNIT_TYPE_Array_ChainBufferTag::`RTTI Complete Object Locator'
	DD	00H
	DD	00H
	DD	imagerel ??_R0?AV____UNIT_TYPE_Array_ChainBufferTag@ResourceHolderUINT@Internal@Core@Math@Palmtree@@@8
	DD	imagerel ??_R3____UNIT_TYPE_Array_ChainBufferTag@ResourceHolderUINT@Internal@Core@Math@Palmtree@@8
	DD	imagerel ??_R4____UNIT_TYPE_Array_ChainBufferTag@ResourceHolderUINT@Internal@Core@Math@Palmtree@@6B@
rdata$r	ENDS
;	COMDAT ??_R1A@?0A@EA@__GenericChainBufferTag@ResourceHolderUINT@Internal@Core@Math@Palmtree@@8
rdata$r	SEGMENT
??_R1A@?0A@EA@__GenericChainBufferTag@ResourceHolderUINT@Internal@Core@Math@Palmtree@@8 DD imagerel ??_R0?AV__GenericChainBufferTag@ResourceHolderUINT@Internal@Core@Math@Palmtree@@@8 ; Palmtree::Math::Core::Internal::ResourceHolderUINT::__GenericChainBufferTag::`RTTI Base Class Descriptor at (0,-1,0,64)'
	DD	01H
	DD	00H
	DD	0ffffffffH
	DD	00H
	DD	040H
	DD	imagerel ??_R3__GenericChainBufferTag@ResourceHolderUINT@Internal@Core@Math@Palmtree@@8
rdata$r	ENDS
;	COMDAT ??_R2__GenericChainBufferTag@ResourceHolderUINT@Internal@Core@Math@Palmtree@@8
rdata$r	SEGMENT
??_R2__GenericChainBufferTag@ResourceHolderUINT@Internal@Core@Math@Palmtree@@8 DD imagerel ??_R1A@?0A@EA@__GenericChainBufferTag@ResourceHolderUINT@Internal@Core@Math@Palmtree@@8 ; Palmtree::Math::Core::Internal::ResourceHolderUINT::__GenericChainBufferTag::`RTTI Base Class Array'
	DD	imagerel ??_R1A@?0A@EA@__ChainBufferTag@ResourceHolder@Internal@Core@Math@Palmtree@@8
	ORG $+3
rdata$r	ENDS
;	COMDAT ??_R3__GenericChainBufferTag@ResourceHolderUINT@Internal@Core@Math@Palmtree@@8
rdata$r	SEGMENT
??_R3__GenericChainBufferTag@ResourceHolderUINT@Internal@Core@Math@Palmtree@@8 DD 00H ; Palmtree::Math::Core::Internal::ResourceHolderUINT::__GenericChainBufferTag::`RTTI Class Hierarchy Descriptor'
	DD	00H
	DD	02H
	DD	imagerel ??_R2__GenericChainBufferTag@ResourceHolderUINT@Internal@Core@Math@Palmtree@@8
rdata$r	ENDS
;	COMDAT ??_R0?AV__GenericChainBufferTag@ResourceHolderUINT@Internal@Core@Math@Palmtree@@@8
data$r	SEGMENT
??_R0?AV__GenericChainBufferTag@ResourceHolderUINT@Internal@Core@Math@Palmtree@@@8 DQ FLAT:??_7type_info@@6B@ ; Palmtree::Math::Core::Internal::ResourceHolderUINT::__GenericChainBufferTag `RTTI Type Descriptor'
	DQ	0000000000000000H
	DB	'.?AV__GenericChainBufferTag@ResourceHolderUINT@Internal@'
	DB	'Core@Math@Palmtree@@', 00H
data$r	ENDS
;	COMDAT ??_R4__GenericChainBufferTag@ResourceHolderUINT@Internal@Core@Math@Palmtree@@6B@
rdata$r	SEGMENT
??_R4__GenericChainBufferTag@ResourceHolderUINT@Internal@Core@Math@Palmtree@@6B@ DD 01H ; Palmtree::Math::Core::Internal::ResourceHolderUINT::__GenericChainBufferTag::`RTTI Complete Object Locator'
	DD	00H
	DD	00H
	DD	imagerel ??_R0?AV__GenericChainBufferTag@ResourceHolderUINT@Internal@Core@Math@Palmtree@@@8
	DD	imagerel ??_R3__GenericChainBufferTag@ResourceHolderUINT@Internal@Core@Math@Palmtree@@8
	DD	imagerel ??_R4__GenericChainBufferTag@ResourceHolderUINT@Internal@Core@Math@Palmtree@@6B@
rdata$r	ENDS
;	COMDAT ??_R1A@?0A@EN@ResourceHolder@Internal@Core@Math@Palmtree@@8
rdata$r	SEGMENT
??_R1A@?0A@EN@ResourceHolder@Internal@Core@Math@Palmtree@@8 DD imagerel ??_R0?AVResourceHolder@Internal@Core@Math@Palmtree@@@8 ; Palmtree::Math::Core::Internal::ResourceHolder::`RTTI Base Class Descriptor at (0,-1,0,77)'
	DD	00H
	DD	00H
	DD	0ffffffffH
	DD	00H
	DD	04dH
	DD	imagerel ??_R3ResourceHolder@Internal@Core@Math@Palmtree@@8
rdata$r	ENDS
;	COMDAT ??_R1A@?0A@EA@ResourceHolderUINT@Internal@Core@Math@Palmtree@@8
rdata$r	SEGMENT
??_R1A@?0A@EA@ResourceHolderUINT@Internal@Core@Math@Palmtree@@8 DD imagerel ??_R0?AVResourceHolderUINT@Internal@Core@Math@Palmtree@@@8 ; Palmtree::Math::Core::Internal::ResourceHolderUINT::`RTTI Base Class Descriptor at (0,-1,0,64)'
	DD	01H
	DD	00H
	DD	0ffffffffH
	DD	00H
	DD	040H
	DD	imagerel ??_R3ResourceHolderUINT@Internal@Core@Math@Palmtree@@8
rdata$r	ENDS
;	COMDAT ??_R2ResourceHolderUINT@Internal@Core@Math@Palmtree@@8
rdata$r	SEGMENT
??_R2ResourceHolderUINT@Internal@Core@Math@Palmtree@@8 DD imagerel ??_R1A@?0A@EA@ResourceHolderUINT@Internal@Core@Math@Palmtree@@8 ; Palmtree::Math::Core::Internal::ResourceHolderUINT::`RTTI Base Class Array'
	DD	imagerel ??_R1A@?0A@EN@ResourceHolder@Internal@Core@Math@Palmtree@@8
	ORG $+3
rdata$r	ENDS
;	COMDAT ??_R3ResourceHolderUINT@Internal@Core@Math@Palmtree@@8
rdata$r	SEGMENT
??_R3ResourceHolderUINT@Internal@Core@Math@Palmtree@@8 DD 00H ; Palmtree::Math::Core::Internal::ResourceHolderUINT::`RTTI Class Hierarchy Descriptor'
	DD	00H
	DD	02H
	DD	imagerel ??_R2ResourceHolderUINT@Internal@Core@Math@Palmtree@@8
rdata$r	ENDS
;	COMDAT ??_R0?AVResourceHolderUINT@Internal@Core@Math@Palmtree@@@8
data$r	SEGMENT
??_R0?AVResourceHolderUINT@Internal@Core@Math@Palmtree@@@8 DQ FLAT:??_7type_info@@6B@ ; Palmtree::Math::Core::Internal::ResourceHolderUINT `RTTI Type Descriptor'
	DQ	0000000000000000H
	DB	'.?AVResourceHolderUINT@Internal@Core@Math@Palmtree@@', 00H
data$r	ENDS
;	COMDAT ??_R4ResourceHolderUINT@Internal@Core@Math@Palmtree@@6B@
rdata$r	SEGMENT
??_R4ResourceHolderUINT@Internal@Core@Math@Palmtree@@6B@ DD 01H ; Palmtree::Math::Core::Internal::ResourceHolderUINT::`RTTI Complete Object Locator'
	DD	00H
	DD	00H
	DD	imagerel ??_R0?AVResourceHolderUINT@Internal@Core@Math@Palmtree@@@8
	DD	imagerel ??_R3ResourceHolderUINT@Internal@Core@Math@Palmtree@@8
	DD	imagerel ??_R4ResourceHolderUINT@Internal@Core@Math@Palmtree@@6B@
rdata$r	ENDS
;	COMDAT ??_R1A@?0A@EA@__RootTag@ResourceHolder@Internal@Core@Math@Palmtree@@8
rdata$r	SEGMENT
??_R1A@?0A@EA@__RootTag@ResourceHolder@Internal@Core@Math@Palmtree@@8 DD imagerel ??_R0?AV__RootTag@ResourceHolder@Internal@Core@Math@Palmtree@@@8 ; Palmtree::Math::Core::Internal::ResourceHolder::__RootTag::`RTTI Base Class Descriptor at (0,-1,0,64)'
	DD	01H
	DD	00H
	DD	0ffffffffH
	DD	00H
	DD	040H
	DD	imagerel ??_R3__RootTag@ResourceHolder@Internal@Core@Math@Palmtree@@8
rdata$r	ENDS
;	COMDAT ??_R2__RootTag@ResourceHolder@Internal@Core@Math@Palmtree@@8
rdata$r	SEGMENT
??_R2__RootTag@ResourceHolder@Internal@Core@Math@Palmtree@@8 DD imagerel ??_R1A@?0A@EA@__RootTag@ResourceHolder@Internal@Core@Math@Palmtree@@8 ; Palmtree::Math::Core::Internal::ResourceHolder::__RootTag::`RTTI Base Class Array'
	DD	imagerel ??_R1A@?0A@EA@__ChainBufferTag@ResourceHolder@Internal@Core@Math@Palmtree@@8
	ORG $+3
rdata$r	ENDS
;	COMDAT ??_R3__RootTag@ResourceHolder@Internal@Core@Math@Palmtree@@8
rdata$r	SEGMENT
??_R3__RootTag@ResourceHolder@Internal@Core@Math@Palmtree@@8 DD 00H ; Palmtree::Math::Core::Internal::ResourceHolder::__RootTag::`RTTI Class Hierarchy Descriptor'
	DD	00H
	DD	02H
	DD	imagerel ??_R2__RootTag@ResourceHolder@Internal@Core@Math@Palmtree@@8
rdata$r	ENDS
;	COMDAT ??_R0?AV__RootTag@ResourceHolder@Internal@Core@Math@Palmtree@@@8
data$r	SEGMENT
??_R0?AV__RootTag@ResourceHolder@Internal@Core@Math@Palmtree@@@8 DQ FLAT:??_7type_info@@6B@ ; Palmtree::Math::Core::Internal::ResourceHolder::__RootTag `RTTI Type Descriptor'
	DQ	0000000000000000H
	DB	'.?AV__RootTag@ResourceHolder@Internal@Core@Math@Palmtree'
	DB	'@@', 00H
data$r	ENDS
;	COMDAT ??_R4__RootTag@ResourceHolder@Internal@Core@Math@Palmtree@@6B@
rdata$r	SEGMENT
??_R4__RootTag@ResourceHolder@Internal@Core@Math@Palmtree@@6B@ DD 01H ; Palmtree::Math::Core::Internal::ResourceHolder::__RootTag::`RTTI Complete Object Locator'
	DD	00H
	DD	00H
	DD	imagerel ??_R0?AV__RootTag@ResourceHolder@Internal@Core@Math@Palmtree@@@8
	DD	imagerel ??_R3__RootTag@ResourceHolder@Internal@Core@Math@Palmtree@@8
	DD	imagerel ??_R4__RootTag@ResourceHolder@Internal@Core@Math@Palmtree@@6B@
rdata$r	ENDS
;	COMDAT ??_R1A@?0A@EA@__ChainBufferTag@ResourceHolder@Internal@Core@Math@Palmtree@@8
rdata$r	SEGMENT
??_R1A@?0A@EA@__ChainBufferTag@ResourceHolder@Internal@Core@Math@Palmtree@@8 DD imagerel ??_R0?AV__ChainBufferTag@ResourceHolder@Internal@Core@Math@Palmtree@@@8 ; Palmtree::Math::Core::Internal::ResourceHolder::__ChainBufferTag::`RTTI Base Class Descriptor at (0,-1,0,64)'
	DD	00H
	DD	00H
	DD	0ffffffffH
	DD	00H
	DD	040H
	DD	imagerel ??_R3__ChainBufferTag@ResourceHolder@Internal@Core@Math@Palmtree@@8
rdata$r	ENDS
;	COMDAT ??_R2__ChainBufferTag@ResourceHolder@Internal@Core@Math@Palmtree@@8
rdata$r	SEGMENT
??_R2__ChainBufferTag@ResourceHolder@Internal@Core@Math@Palmtree@@8 DD imagerel ??_R1A@?0A@EA@__ChainBufferTag@ResourceHolder@Internal@Core@Math@Palmtree@@8 ; Palmtree::Math::Core::Internal::ResourceHolder::__ChainBufferTag::`RTTI Base Class Array'
	ORG $+3
rdata$r	ENDS
;	COMDAT ??_R3__ChainBufferTag@ResourceHolder@Internal@Core@Math@Palmtree@@8
rdata$r	SEGMENT
??_R3__ChainBufferTag@ResourceHolder@Internal@Core@Math@Palmtree@@8 DD 00H ; Palmtree::Math::Core::Internal::ResourceHolder::__ChainBufferTag::`RTTI Class Hierarchy Descriptor'
	DD	00H
	DD	01H
	DD	imagerel ??_R2__ChainBufferTag@ResourceHolder@Internal@Core@Math@Palmtree@@8
rdata$r	ENDS
;	COMDAT ??_R0?AV__ChainBufferTag@ResourceHolder@Internal@Core@Math@Palmtree@@@8
data$r	SEGMENT
??_R0?AV__ChainBufferTag@ResourceHolder@Internal@Core@Math@Palmtree@@@8 DQ FLAT:??_7type_info@@6B@ ; Palmtree::Math::Core::Internal::ResourceHolder::__ChainBufferTag `RTTI Type Descriptor'
	DQ	0000000000000000H
	DB	'.?AV__ChainBufferTag@ResourceHolder@Internal@Core@Math@P'
	DB	'almtree@@', 00H
data$r	ENDS
;	COMDAT ??_R4__ChainBufferTag@ResourceHolder@Internal@Core@Math@Palmtree@@6B@
rdata$r	SEGMENT
??_R4__ChainBufferTag@ResourceHolder@Internal@Core@Math@Palmtree@@6B@ DD 01H ; Palmtree::Math::Core::Internal::ResourceHolder::__ChainBufferTag::`RTTI Complete Object Locator'
	DD	00H
	DD	00H
	DD	imagerel ??_R0?AV__ChainBufferTag@ResourceHolder@Internal@Core@Math@Palmtree@@@8
	DD	imagerel ??_R3__ChainBufferTag@ResourceHolder@Internal@Core@Math@Palmtree@@8
	DD	imagerel ??_R4__ChainBufferTag@ResourceHolder@Internal@Core@Math@Palmtree@@6B@
rdata$r	ENDS
;	COMDAT ??_R1A@?0A@EA@ResourceHolder@Internal@Core@Math@Palmtree@@8
rdata$r	SEGMENT
??_R1A@?0A@EA@ResourceHolder@Internal@Core@Math@Palmtree@@8 DD imagerel ??_R0?AVResourceHolder@Internal@Core@Math@Palmtree@@@8 ; Palmtree::Math::Core::Internal::ResourceHolder::`RTTI Base Class Descriptor at (0,-1,0,64)'
	DD	00H
	DD	00H
	DD	0ffffffffH
	DD	00H
	DD	040H
	DD	imagerel ??_R3ResourceHolder@Internal@Core@Math@Palmtree@@8
rdata$r	ENDS
;	COMDAT ??_R2ResourceHolder@Internal@Core@Math@Palmtree@@8
rdata$r	SEGMENT
??_R2ResourceHolder@Internal@Core@Math@Palmtree@@8 DD imagerel ??_R1A@?0A@EA@ResourceHolder@Internal@Core@Math@Palmtree@@8 ; Palmtree::Math::Core::Internal::ResourceHolder::`RTTI Base Class Array'
	ORG $+3
rdata$r	ENDS
;	COMDAT ??_R3ResourceHolder@Internal@Core@Math@Palmtree@@8
rdata$r	SEGMENT
??_R3ResourceHolder@Internal@Core@Math@Palmtree@@8 DD 00H ; Palmtree::Math::Core::Internal::ResourceHolder::`RTTI Class Hierarchy Descriptor'
	DD	00H
	DD	01H
	DD	imagerel ??_R2ResourceHolder@Internal@Core@Math@Palmtree@@8
rdata$r	ENDS
;	COMDAT ??_R0?AVResourceHolder@Internal@Core@Math@Palmtree@@@8
data$r	SEGMENT
??_R0?AVResourceHolder@Internal@Core@Math@Palmtree@@@8 DQ FLAT:??_7type_info@@6B@ ; Palmtree::Math::Core::Internal::ResourceHolder `RTTI Type Descriptor'
	DQ	0000000000000000H
	DB	'.?AVResourceHolder@Internal@Core@Math@Palmtree@@', 00H
data$r	ENDS
;	COMDAT ??_R4ResourceHolder@Internal@Core@Math@Palmtree@@6B@
rdata$r	SEGMENT
??_R4ResourceHolder@Internal@Core@Math@Palmtree@@6B@ DD 01H ; Palmtree::Math::Core::Internal::ResourceHolder::`RTTI Complete Object Locator'
	DD	00H
	DD	00H
	DD	imagerel ??_R0?AVResourceHolder@Internal@Core@Math@Palmtree@@@8
	DD	imagerel ??_R3ResourceHolder@Internal@Core@Math@Palmtree@@8
	DD	imagerel ??_R4ResourceHolder@Internal@Core@Math@Palmtree@@6B@
rdata$r	ENDS
;	COMDAT ??_R1A@?0A@EA@BadBufferException@Internal@Core@Math@Palmtree@@8
rdata$r	SEGMENT
??_R1A@?0A@EA@BadBufferException@Internal@Core@Math@Palmtree@@8 DD imagerel ??_R0?AVBadBufferException@Internal@Core@Math@Palmtree@@@8 ; Palmtree::Math::Core::Internal::BadBufferException::`RTTI Base Class Descriptor at (0,-1,0,64)'
	DD	02H
	DD	00H
	DD	0ffffffffH
	DD	00H
	DD	040H
	DD	imagerel ??_R3BadBufferException@Internal@Core@Math@Palmtree@@8
rdata$r	ENDS
;	COMDAT ??_R2BadBufferException@Internal@Core@Math@Palmtree@@8
rdata$r	SEGMENT
??_R2BadBufferException@Internal@Core@Math@Palmtree@@8 DD imagerel ??_R1A@?0A@EA@BadBufferException@Internal@Core@Math@Palmtree@@8 ; Palmtree::Math::Core::Internal::BadBufferException::`RTTI Base Class Array'
	DD	imagerel ??_R1A@?0A@EA@Exception@Internal@Core@Math@Palmtree@@8
	DD	imagerel ??_R1A@?0A@EN@exception@std@@8
	ORG $+3
rdata$r	ENDS
;	COMDAT ??_R3BadBufferException@Internal@Core@Math@Palmtree@@8
rdata$r	SEGMENT
??_R3BadBufferException@Internal@Core@Math@Palmtree@@8 DD 00H ; Palmtree::Math::Core::Internal::BadBufferException::`RTTI Class Hierarchy Descriptor'
	DD	00H
	DD	03H
	DD	imagerel ??_R2BadBufferException@Internal@Core@Math@Palmtree@@8
rdata$r	ENDS
;	COMDAT ??_R4BadBufferException@Internal@Core@Math@Palmtree@@6B@
rdata$r	SEGMENT
??_R4BadBufferException@Internal@Core@Math@Palmtree@@6B@ DD 01H ; Palmtree::Math::Core::Internal::BadBufferException::`RTTI Complete Object Locator'
	DD	00H
	DD	00H
	DD	imagerel ??_R0?AVBadBufferException@Internal@Core@Math@Palmtree@@@8
	DD	imagerel ??_R3BadBufferException@Internal@Core@Math@Palmtree@@8
	DD	imagerel ??_R4BadBufferException@Internal@Core@Math@Palmtree@@6B@
rdata$r	ENDS
;	COMDAT ??_R1A@?0A@EA@InternalErrorException@Internal@Core@Math@Palmtree@@8
rdata$r	SEGMENT
??_R1A@?0A@EA@InternalErrorException@Internal@Core@Math@Palmtree@@8 DD imagerel ??_R0?AVInternalErrorException@Internal@Core@Math@Palmtree@@@8 ; Palmtree::Math::Core::Internal::InternalErrorException::`RTTI Base Class Descriptor at (0,-1,0,64)'
	DD	02H
	DD	00H
	DD	0ffffffffH
	DD	00H
	DD	040H
	DD	imagerel ??_R3InternalErrorException@Internal@Core@Math@Palmtree@@8
rdata$r	ENDS
;	COMDAT ??_R2InternalErrorException@Internal@Core@Math@Palmtree@@8
rdata$r	SEGMENT
??_R2InternalErrorException@Internal@Core@Math@Palmtree@@8 DD imagerel ??_R1A@?0A@EA@InternalErrorException@Internal@Core@Math@Palmtree@@8 ; Palmtree::Math::Core::Internal::InternalErrorException::`RTTI Base Class Array'
	DD	imagerel ??_R1A@?0A@EA@Exception@Internal@Core@Math@Palmtree@@8
	DD	imagerel ??_R1A@?0A@EN@exception@std@@8
	ORG $+3
rdata$r	ENDS
;	COMDAT ??_R3InternalErrorException@Internal@Core@Math@Palmtree@@8
rdata$r	SEGMENT
??_R3InternalErrorException@Internal@Core@Math@Palmtree@@8 DD 00H ; Palmtree::Math::Core::Internal::InternalErrorException::`RTTI Class Hierarchy Descriptor'
	DD	00H
	DD	03H
	DD	imagerel ??_R2InternalErrorException@Internal@Core@Math@Palmtree@@8
rdata$r	ENDS
;	COMDAT ??_R4InternalErrorException@Internal@Core@Math@Palmtree@@6B@
rdata$r	SEGMENT
??_R4InternalErrorException@Internal@Core@Math@Palmtree@@6B@ DD 01H ; Palmtree::Math::Core::Internal::InternalErrorException::`RTTI Complete Object Locator'
	DD	00H
	DD	00H
	DD	imagerel ??_R0?AVInternalErrorException@Internal@Core@Math@Palmtree@@@8
	DD	imagerel ??_R3InternalErrorException@Internal@Core@Math@Palmtree@@8
	DD	imagerel ??_R4InternalErrorException@Internal@Core@Math@Palmtree@@6B@
rdata$r	ENDS
;	COMDAT ??_R1A@?0A@EA@NotEnoughMemoryException@Internal@Core@Math@Palmtree@@8
rdata$r	SEGMENT
??_R1A@?0A@EA@NotEnoughMemoryException@Internal@Core@Math@Palmtree@@8 DD imagerel ??_R0?AVNotEnoughMemoryException@Internal@Core@Math@Palmtree@@@8 ; Palmtree::Math::Core::Internal::NotEnoughMemoryException::`RTTI Base Class Descriptor at (0,-1,0,64)'
	DD	02H
	DD	00H
	DD	0ffffffffH
	DD	00H
	DD	040H
	DD	imagerel ??_R3NotEnoughMemoryException@Internal@Core@Math@Palmtree@@8
rdata$r	ENDS
;	COMDAT ??_R2NotEnoughMemoryException@Internal@Core@Math@Palmtree@@8
rdata$r	SEGMENT
??_R2NotEnoughMemoryException@Internal@Core@Math@Palmtree@@8 DD imagerel ??_R1A@?0A@EA@NotEnoughMemoryException@Internal@Core@Math@Palmtree@@8 ; Palmtree::Math::Core::Internal::NotEnoughMemoryException::`RTTI Base Class Array'
	DD	imagerel ??_R1A@?0A@EA@Exception@Internal@Core@Math@Palmtree@@8
	DD	imagerel ??_R1A@?0A@EN@exception@std@@8
	ORG $+3
rdata$r	ENDS
;	COMDAT ??_R3NotEnoughMemoryException@Internal@Core@Math@Palmtree@@8
rdata$r	SEGMENT
??_R3NotEnoughMemoryException@Internal@Core@Math@Palmtree@@8 DD 00H ; Palmtree::Math::Core::Internal::NotEnoughMemoryException::`RTTI Class Hierarchy Descriptor'
	DD	00H
	DD	03H
	DD	imagerel ??_R2NotEnoughMemoryException@Internal@Core@Math@Palmtree@@8
rdata$r	ENDS
;	COMDAT ??_R4NotEnoughMemoryException@Internal@Core@Math@Palmtree@@6B@
rdata$r	SEGMENT
??_R4NotEnoughMemoryException@Internal@Core@Math@Palmtree@@6B@ DD 01H ; Palmtree::Math::Core::Internal::NotEnoughMemoryException::`RTTI Complete Object Locator'
	DD	00H
	DD	00H
	DD	imagerel ??_R0?AVNotEnoughMemoryException@Internal@Core@Math@Palmtree@@@8
	DD	imagerel ??_R3NotEnoughMemoryException@Internal@Core@Math@Palmtree@@8
	DD	imagerel ??_R4NotEnoughMemoryException@Internal@Core@Math@Palmtree@@6B@
rdata$r	ENDS
;	COMDAT ??_R1A@?0A@EA@ArgumentNullException@Internal@Core@Math@Palmtree@@8
rdata$r	SEGMENT
??_R1A@?0A@EA@ArgumentNullException@Internal@Core@Math@Palmtree@@8 DD imagerel ??_R0?AVArgumentNullException@Internal@Core@Math@Palmtree@@@8 ; Palmtree::Math::Core::Internal::ArgumentNullException::`RTTI Base Class Descriptor at (0,-1,0,64)'
	DD	02H
	DD	00H
	DD	0ffffffffH
	DD	00H
	DD	040H
	DD	imagerel ??_R3ArgumentNullException@Internal@Core@Math@Palmtree@@8
rdata$r	ENDS
;	COMDAT ??_R2ArgumentNullException@Internal@Core@Math@Palmtree@@8
rdata$r	SEGMENT
??_R2ArgumentNullException@Internal@Core@Math@Palmtree@@8 DD imagerel ??_R1A@?0A@EA@ArgumentNullException@Internal@Core@Math@Palmtree@@8 ; Palmtree::Math::Core::Internal::ArgumentNullException::`RTTI Base Class Array'
	DD	imagerel ??_R1A@?0A@EA@Exception@Internal@Core@Math@Palmtree@@8
	DD	imagerel ??_R1A@?0A@EN@exception@std@@8
	ORG $+3
rdata$r	ENDS
;	COMDAT ??_R3ArgumentNullException@Internal@Core@Math@Palmtree@@8
rdata$r	SEGMENT
??_R3ArgumentNullException@Internal@Core@Math@Palmtree@@8 DD 00H ; Palmtree::Math::Core::Internal::ArgumentNullException::`RTTI Class Hierarchy Descriptor'
	DD	00H
	DD	03H
	DD	imagerel ??_R2ArgumentNullException@Internal@Core@Math@Palmtree@@8
rdata$r	ENDS
;	COMDAT ??_R4ArgumentNullException@Internal@Core@Math@Palmtree@@6B@
rdata$r	SEGMENT
??_R4ArgumentNullException@Internal@Core@Math@Palmtree@@6B@ DD 01H ; Palmtree::Math::Core::Internal::ArgumentNullException::`RTTI Complete Object Locator'
	DD	00H
	DD	00H
	DD	imagerel ??_R0?AVArgumentNullException@Internal@Core@Math@Palmtree@@@8
	DD	imagerel ??_R3ArgumentNullException@Internal@Core@Math@Palmtree@@8
	DD	imagerel ??_R4ArgumentNullException@Internal@Core@Math@Palmtree@@6B@
rdata$r	ENDS
;	COMDAT ??_R1A@?0A@EA@ArgumentException@Internal@Core@Math@Palmtree@@8
rdata$r	SEGMENT
??_R1A@?0A@EA@ArgumentException@Internal@Core@Math@Palmtree@@8 DD imagerel ??_R0?AVArgumentException@Internal@Core@Math@Palmtree@@@8 ; Palmtree::Math::Core::Internal::ArgumentException::`RTTI Base Class Descriptor at (0,-1,0,64)'
	DD	02H
	DD	00H
	DD	0ffffffffH
	DD	00H
	DD	040H
	DD	imagerel ??_R3ArgumentException@Internal@Core@Math@Palmtree@@8
rdata$r	ENDS
;	COMDAT ??_R2ArgumentException@Internal@Core@Math@Palmtree@@8
rdata$r	SEGMENT
??_R2ArgumentException@Internal@Core@Math@Palmtree@@8 DD imagerel ??_R1A@?0A@EA@ArgumentException@Internal@Core@Math@Palmtree@@8 ; Palmtree::Math::Core::Internal::ArgumentException::`RTTI Base Class Array'
	DD	imagerel ??_R1A@?0A@EA@Exception@Internal@Core@Math@Palmtree@@8
	DD	imagerel ??_R1A@?0A@EN@exception@std@@8
	ORG $+3
rdata$r	ENDS
;	COMDAT ??_R3ArgumentException@Internal@Core@Math@Palmtree@@8
rdata$r	SEGMENT
??_R3ArgumentException@Internal@Core@Math@Palmtree@@8 DD 00H ; Palmtree::Math::Core::Internal::ArgumentException::`RTTI Class Hierarchy Descriptor'
	DD	00H
	DD	03H
	DD	imagerel ??_R2ArgumentException@Internal@Core@Math@Palmtree@@8
rdata$r	ENDS
;	COMDAT ??_R4ArgumentException@Internal@Core@Math@Palmtree@@6B@
rdata$r	SEGMENT
??_R4ArgumentException@Internal@Core@Math@Palmtree@@6B@ DD 01H ; Palmtree::Math::Core::Internal::ArgumentException::`RTTI Complete Object Locator'
	DD	00H
	DD	00H
	DD	imagerel ??_R0?AVArgumentException@Internal@Core@Math@Palmtree@@@8
	DD	imagerel ??_R3ArgumentException@Internal@Core@Math@Palmtree@@8
	DD	imagerel ??_R4ArgumentException@Internal@Core@Math@Palmtree@@6B@
rdata$r	ENDS
;	COMDAT ??_R1A@?0A@EN@exception@std@@8
rdata$r	SEGMENT
??_R1A@?0A@EN@exception@std@@8 DD imagerel ??_R0?AVexception@std@@@8 ; std::exception::`RTTI Base Class Descriptor at (0,-1,0,77)'
	DD	00H
	DD	00H
	DD	0ffffffffH
	DD	00H
	DD	04dH
	DD	imagerel ??_R3exception@std@@8
rdata$r	ENDS
;	COMDAT ??_R1A@?0A@EA@Exception@Internal@Core@Math@Palmtree@@8
rdata$r	SEGMENT
??_R1A@?0A@EA@Exception@Internal@Core@Math@Palmtree@@8 DD imagerel ??_R0?AVException@Internal@Core@Math@Palmtree@@@8 ; Palmtree::Math::Core::Internal::Exception::`RTTI Base Class Descriptor at (0,-1,0,64)'
	DD	01H
	DD	00H
	DD	0ffffffffH
	DD	00H
	DD	040H
	DD	imagerel ??_R3Exception@Internal@Core@Math@Palmtree@@8
rdata$r	ENDS
;	COMDAT ??_R2Exception@Internal@Core@Math@Palmtree@@8
rdata$r	SEGMENT
??_R2Exception@Internal@Core@Math@Palmtree@@8 DD imagerel ??_R1A@?0A@EA@Exception@Internal@Core@Math@Palmtree@@8 ; Palmtree::Math::Core::Internal::Exception::`RTTI Base Class Array'
	DD	imagerel ??_R1A@?0A@EN@exception@std@@8
	ORG $+3
rdata$r	ENDS
;	COMDAT ??_R3Exception@Internal@Core@Math@Palmtree@@8
rdata$r	SEGMENT
??_R3Exception@Internal@Core@Math@Palmtree@@8 DD 00H	; Palmtree::Math::Core::Internal::Exception::`RTTI Class Hierarchy Descriptor'
	DD	00H
	DD	02H
	DD	imagerel ??_R2Exception@Internal@Core@Math@Palmtree@@8
rdata$r	ENDS
;	COMDAT ??_R4Exception@Internal@Core@Math@Palmtree@@6B@
rdata$r	SEGMENT
??_R4Exception@Internal@Core@Math@Palmtree@@6B@ DD 01H	; Palmtree::Math::Core::Internal::Exception::`RTTI Complete Object Locator'
	DD	00H
	DD	00H
	DD	imagerel ??_R0?AVException@Internal@Core@Math@Palmtree@@@8
	DD	imagerel ??_R3Exception@Internal@Core@Math@Palmtree@@8
	DD	imagerel ??_R4Exception@Internal@Core@Math@Palmtree@@6B@
rdata$r	ENDS
;	COMDAT ??_R1A@?0A@EA@exception@std@@8
rdata$r	SEGMENT
??_R1A@?0A@EA@exception@std@@8 DD imagerel ??_R0?AVexception@std@@@8 ; std::exception::`RTTI Base Class Descriptor at (0,-1,0,64)'
	DD	00H
	DD	00H
	DD	0ffffffffH
	DD	00H
	DD	040H
	DD	imagerel ??_R3exception@std@@8
rdata$r	ENDS
;	COMDAT ??_R2exception@std@@8
rdata$r	SEGMENT
??_R2exception@std@@8 DD imagerel ??_R1A@?0A@EA@exception@std@@8 ; std::exception::`RTTI Base Class Array'
	ORG $+3
rdata$r	ENDS
;	COMDAT ??_R3exception@std@@8
rdata$r	SEGMENT
??_R3exception@std@@8 DD 00H				; std::exception::`RTTI Class Hierarchy Descriptor'
	DD	00H
	DD	01H
	DD	imagerel ??_R2exception@std@@8
rdata$r	ENDS
;	COMDAT ??_R0?AVexception@std@@@8
data$r	SEGMENT
??_R0?AVexception@std@@@8 DQ FLAT:??_7type_info@@6B@	; std::exception `RTTI Type Descriptor'
	DQ	0000000000000000H
	DB	'.?AVexception@std@@', 00H
data$r	ENDS
;	COMDAT ??_R4exception@std@@6B@
rdata$r	SEGMENT
??_R4exception@std@@6B@ DD 01H				; std::exception::`RTTI Complete Object Locator'
	DD	00H
	DD	00H
	DD	imagerel ??_R0?AVexception@std@@@8
	DD	imagerel ??_R3exception@std@@8
	DD	imagerel ??_R4exception@std@@6B@
rdata$r	ENDS
;	COMDAT ??_C@_1FA@GGJMNBOK@?$AAp?$AAm?$AAc?$AA_?$AAm?$AAe?$AAm?$AAo?$AAr?$AAy?$AA?4?$AAc?$AAp?$AAp?$AA?$DL@
CONST	SEGMENT
??_C@_1FA@GGJMNBOK@?$AAp?$AAm?$AAc?$AA_?$AAm?$AAe?$AAm?$AAo?$AAr?$AAy?$AA?4?$AAc?$AAp?$AAp?$AA?$DL@ DB 'p'
	DB	00H, 'm', 00H, 'c', 00H, '_', 00H, 'm', 00H, 'e', 00H, 'm', 00H
	DB	'o', 00H, 'r', 00H, 'y', 00H, '.', 00H, 'c', 00H, 'p', 00H, 'p'
	DB	00H, ';', 00H, 'G', 00H, 'e', 00H, 't', 00H, 'A', 00H, 'l', 00H
	DB	'l', 00H, 'o', 00H, 'c', 00H, 'a', 00H, 't', 00H, 'e', 00H, 'd'
	DB	00H, 'M', 00H, 'e', 00H, 'm', 00H, 'o', 00H, 'r', 00H, 'y', 00H
	DB	'S', 00H, 'i', 00H, 'z', 00H, 'e', 00H, ';', 00H, '3', 00H, 00H
	DB	00H						; `string'
CONST	ENDS
;	COMDAT ??_C@_1FA@NOCALGIP@?$AAp?$AAm?$AAc?$AA_?$AAm?$AAe?$AAm?$AAo?$AAr?$AAy?$AA?4?$AAc?$AAp?$AAp?$AA?$DL@
CONST	SEGMENT
??_C@_1FA@NOCALGIP@?$AAp?$AAm?$AAc?$AA_?$AAm?$AAe?$AAm?$AAo?$AAr?$AAy?$AA?4?$AAc?$AAp?$AAp?$AA?$DL@ DB 'p'
	DB	00H, 'm', 00H, 'c', 00H, '_', 00H, 'm', 00H, 'e', 00H, 'm', 00H
	DB	'o', 00H, 'r', 00H, 'y', 00H, '.', 00H, 'c', 00H, 'p', 00H, 'p'
	DB	00H, ';', 00H, 'G', 00H, 'e', 00H, 't', 00H, 'A', 00H, 'l', 00H
	DB	'l', 00H, 'o', 00H, 'c', 00H, 'a', 00H, 't', 00H, 'e', 00H, 'd'
	DB	00H, 'M', 00H, 'e', 00H, 'm', 00H, 'o', 00H, 'r', 00H, 'y', 00H
	DB	'S', 00H, 'i', 00H, 'z', 00H, 'e', 00H, ';', 00H, '2', 00H, 00H
	DB	00H						; `string'
CONST	ENDS
;	COMDAT ??_C@_1BM@FCPAHMHB@?$PP?$IF?$PP?h?$PP?$KI?$PP?i?$PP?$PM?$AAL?$AAz?$AA?$BP?$AAW?$AA?$HO?$AAW?$AA_?$AA?$AC@
CONST	SEGMENT
??_C@_1BM@FCPAHMHB@?$PP?$IF?$PP?h?$PP?$KI?$PP?i?$PP?$PM?$AAL?$AAz?$AA?$BP?$AAW?$AA?$HO?$AAW?$AA_?$AA?$AC@ DB 085H
	DB	'Q', 0e8H, 090H, 0a8H, '0', 0e9H, '0', 0fcH, '0L0zv', 01fH, 'u'
	DB	'W0~0W0_0', 02H, '0', 00H, 00H		; `string'
CONST	ENDS
;	COMDAT ??_C@_1FA@MMJFBJGB@?$AAp?$AAm?$AAc?$AA_?$AAm?$AAe?$AAm?$AAo?$AAr?$AAy?$AA?4?$AAc?$AAp?$AAp?$AA?$DL@
CONST	SEGMENT
??_C@_1FA@MMJFBJGB@?$AAp?$AAm?$AAc?$AA_?$AAm?$AAe?$AAm?$AAo?$AAr?$AAy?$AA?4?$AAc?$AAp?$AAp?$AA?$DL@ DB 'p'
	DB	00H, 'm', 00H, 'c', 00H, '_', 00H, 'm', 00H, 'e', 00H, 'm', 00H
	DB	'o', 00H, 'r', 00H, 'y', 00H, '.', 00H, 'c', 00H, 'p', 00H, 'p'
	DB	00H, ';', 00H, 'G', 00H, 'e', 00H, 't', 00H, 'A', 00H, 'l', 00H
	DB	'l', 00H, 'o', 00H, 'c', 00H, 'a', 00H, 't', 00H, 'e', 00H, 'd'
	DB	00H, 'M', 00H, 'e', 00H, 'm', 00H, 'o', 00H, 'r', 00H, 'y', 00H
	DB	'S', 00H, 'i', 00H, 'z', 00H, 'e', 00H, ';', 00H, '1', 00H, 00H
	DB	00H						; `string'
CONST	ENDS
;	COMDAT ??_C@_1HC@IJKAGPMK@?$AAp?$AAm?$AAc?$AA_?$AAm?$AAe?$AAm?$AAo?$AAr?$AAy?$AA?4?$AAc?$AAp?$AAp?$AA?$DL@
CONST	SEGMENT
??_C@_1HC@IJKAGPMK@?$AAp?$AAm?$AAc?$AA_?$AAm?$AAe?$AAm?$AAo?$AAr?$AAy?$AA?4?$AAc?$AAp?$AAp?$AA?$DL@ DB 'p'
	DB	00H, 'm', 00H, 'c', 00H, '_', 00H, 'm', 00H, 'e', 00H, 'm', 00H
	DB	'o', 00H, 'r', 00H, 'y', 00H, '.', 00H, 'c', 00H, 'p', 00H, 'p'
	DB	00H, ';', 00H, 'R', 00H, 'e', 00H, 's', 00H, 'o', 00H, 'u', 00H
	DB	'r', 00H, 'c', 00H, 'e', 00H, 'H', 00H, 'o', 00H, 'l', 00H, 'd'
	DB	00H, 'e', 00H, 'r', 00H, 'U', 00H, 'I', 00H, 'N', 00H, 'T', 00H
	DB	':', 00H, ':', 00H, 'U', 00H, 'n', 00H, 'l', 00H, 'i', 00H, 'n'
	DB	00H, 'k', 00H, 'S', 00H, 't', 00H, 'a', 00H, 't', 00H, 'i', 00H
	DB	'c', 00H, 'k', 00H, 'N', 00H, 'u', 00H, 'm', 00H, 'b', 00H, 'e'
	DB	00H, 'r', 00H, ';', 00H, '1', 00H, 00H, 00H	; `string'
CONST	ENDS
;	COMDAT ??_C@_1GE@JOBLOAGO@?$AAp?$AAm?$AAc?$AA_?$AAm?$AAe?$AAm?$AAo?$AAr?$AAy?$AA?4?$AAc?$AAp?$AAp?$AA?$DL@
CONST	SEGMENT
??_C@_1GE@JOBLOAGO@?$AAp?$AAm?$AAc?$AA_?$AAm?$AAe?$AAm?$AAo?$AAr?$AAy?$AA?4?$AAc?$AAp?$AAp?$AA?$DL@ DB 'p'
	DB	00H, 'm', 00H, 'c', 00H, '_', 00H, 'm', 00H, 'e', 00H, 'm', 00H
	DB	'o', 00H, 'r', 00H, 'y', 00H, '.', 00H, 'c', 00H, 'p', 00H, 'p'
	DB	00H, ';', 00H, 'R', 00H, 'e', 00H, 's', 00H, 'o', 00H, 'u', 00H
	DB	'r', 00H, 'c', 00H, 'e', 00H, 'H', 00H, 'o', 00H, 'l', 00H, 'd'
	DB	00H, 'e', 00H, 'r', 00H, 'U', 00H, 'I', 00H, 'N', 00H, 'T', 00H
	DB	':', 00H, ':', 00H, 'U', 00H, 'n', 00H, 'l', 00H, 'i', 00H, 'n'
	DB	00H, 'k', 00H, 'N', 00H, 'u', 00H, 'm', 00H, 'b', 00H, 'e', 00H
	DB	'r', 00H, ';', 00H, '1', 00H, 00H, 00H	; `string'
CONST	ENDS
;	COMDAT ??_C@_1GC@BDIILODP@?$AAp?$AAm?$AAc?$AA_?$AAm?$AAe?$AAm?$AAo?$AAr?$AAy?$AA?4?$AAc?$AAp?$AAp?$AA?$DL@
CONST	SEGMENT
??_C@_1GC@BDIILODP@?$AAp?$AAm?$AAc?$AA_?$AAm?$AAe?$AAm?$AAo?$AAr?$AAy?$AA?4?$AAc?$AAp?$AAp?$AA?$DL@ DB 'p'
	DB	00H, 'm', 00H, 'c', 00H, '_', 00H, 'm', 00H, 'e', 00H, 'm', 00H
	DB	'o', 00H, 'r', 00H, 'y', 00H, '.', 00H, 'c', 00H, 'p', 00H, 'p'
	DB	00H, ';', 00H, 'R', 00H, 'e', 00H, 's', 00H, 'o', 00H, 'u', 00H
	DB	'r', 00H, 'c', 00H, 'e', 00H, 'H', 00H, 'o', 00H, 'l', 00H, 'd'
	DB	00H, 'e', 00H, 'r', 00H, 'U', 00H, 'I', 00H, 'N', 00H, 'T', 00H
	DB	':', 00H, ':', 00H, 'C', 00H, 'l', 00H, 'e', 00H, 'a', 00H, 'r'
	DB	00H, 'S', 00H, 't', 00H, 'r', 00H, 'i', 00H, 'n', 00H, 'g', 00H
	DB	';', 00H, '1', 00H, 00H, 00H			; `string'
CONST	ENDS
;	COMDAT ??_C@_1GC@OHMCPHEJ@?$AAp?$AAm?$AAc?$AA_?$AAm?$AAe?$AAm?$AAo?$AAr?$AAy?$AA?4?$AAc?$AAp?$AAp?$AA?$DL@
CONST	SEGMENT
??_C@_1GC@OHMCPHEJ@?$AAp?$AAm?$AAc?$AA_?$AAm?$AAe?$AAm?$AAo?$AAr?$AAy?$AA?4?$AAc?$AAp?$AAp?$AA?$DL@ DB 'p'
	DB	00H, 'm', 00H, 'c', 00H, '_', 00H, 'm', 00H, 'e', 00H, 'm', 00H
	DB	'o', 00H, 'r', 00H, 'y', 00H, '.', 00H, 'c', 00H, 'p', 00H, 'p'
	DB	00H, ';', 00H, 'R', 00H, 'e', 00H, 's', 00H, 'o', 00H, 'u', 00H
	DB	'r', 00H, 'c', 00H, 'e', 00H, 'H', 00H, 'o', 00H, 'l', 00H, 'd'
	DB	00H, 'e', 00H, 'r', 00H, 'U', 00H, 'I', 00H, 'N', 00H, 'T', 00H
	DB	':', 00H, ':', 00H, 'U', 00H, 'n', 00H, 'l', 00H, 'i', 00H, 'n'
	DB	00H, 'k', 00H, 'B', 00H, 'l', 00H, 'o', 00H, 'c', 00H, 'k', 00H
	DB	';', 00H, '1', 00H, 00H, 00H			; `string'
CONST	ENDS
;	COMDAT ??_C@_1GA@CKNLMDDM@?$AAp?$AAm?$AAc?$AA_?$AAm?$AAe?$AAm?$AAo?$AAr?$AAy?$AA?4?$AAc?$AAp?$AAp?$AA?$DL@
CONST	SEGMENT
??_C@_1GA@CKNLMDDM@?$AAp?$AAm?$AAc?$AA_?$AAm?$AAe?$AAm?$AAo?$AAr?$AAy?$AA?4?$AAc?$AAp?$AAp?$AA?$DL@ DB 'p'
	DB	00H, 'm', 00H, 'c', 00H, '_', 00H, 'm', 00H, 'e', 00H, 'm', 00H
	DB	'o', 00H, 'r', 00H, 'y', 00H, '.', 00H, 'c', 00H, 'p', 00H, 'p'
	DB	00H, ';', 00H, 'R', 00H, 'e', 00H, 's', 00H, 'o', 00H, 'u', 00H
	DB	'r', 00H, 'c', 00H, 'e', 00H, 'H', 00H, 'o', 00H, 'l', 00H, 'd'
	DB	00H, 'e', 00H, 'r', 00H, 'U', 00H, 'I', 00H, 'N', 00H, 'T', 00H
	DB	':', 00H, ':', 00H, 'C', 00H, 'l', 00H, 'e', 00H, 'a', 00H, 'r'
	DB	00H, 'B', 00H, 'l', 00H, 'o', 00H, 'c', 00H, 'k', 00H, ';', 00H
	DB	'1', 00H, 00H, 00H				; `string'
CONST	ENDS
;	COMDAT ??_C@_1GC@NKBJLGGD@?$AAp?$AAm?$AAc?$AA_?$AAm?$AAe?$AAm?$AAo?$AAr?$AAy?$AA?4?$AAc?$AAp?$AAp?$AA?$DL@
CONST	SEGMENT
??_C@_1GC@NKBJLGGD@?$AAp?$AAm?$AAc?$AA_?$AAm?$AAe?$AAm?$AAo?$AAr?$AAy?$AA?4?$AAc?$AAp?$AAp?$AA?$DL@ DB 'p'
	DB	00H, 'm', 00H, 'c', 00H, '_', 00H, 'm', 00H, 'e', 00H, 'm', 00H
	DB	'o', 00H, 'r', 00H, 'y', 00H, '.', 00H, 'c', 00H, 'p', 00H, 'p'
	DB	00H, ';', 00H, 'R', 00H, 'e', 00H, 's', 00H, 'o', 00H, 'u', 00H
	DB	'r', 00H, 'c', 00H, 'e', 00H, 'H', 00H, 'o', 00H, 'l', 00H, 'd'
	DB	00H, 'e', 00H, 'r', 00H, 'U', 00H, 'I', 00H, 'N', 00H, 'T', 00H
	DB	':', 00H, ':', 00H, 'U', 00H, 'n', 00H, 'l', 00H, 'i', 00H, 'n'
	DB	00H, 'k', 00H, 'B', 00H, 'y', 00H, 't', 00H, 'e', 00H, 's', 00H
	DB	';', 00H, '1', 00H, 00H, 00H			; `string'
CONST	ENDS
;	COMDAT ??_C@_1CK@ECFIEPAC@?$AA?$BF?$AAp?$AAk?$AAn?$AAu?$AAl?$AAl?$AAp?$AAt?$AAr?$AAL?$AA?$AO?$AAH?$PP?$IJ?$PP?$IM@
CONST	SEGMENT
??_C@_1CK@ECFIEPAC@?$AA?$BF?$AAp?$AAk?$AAn?$AAu?$AAl?$AAl?$AAp?$AAt?$AAr?$AAL?$AA?$AO?$AAH?$PP?$IJ?$PP?$IM@ DB 015H
	DB	'_pek0n', 00H, 'u', 00H, 'l', 00H, 'l', 00H, 'p', 00H, 't', 00H
	DB	'r', 00H, 'L0', 0eH, 'NH0', 089H, '0', 08cH, '0f0D0~0Y0', 02H, '0'
	DB	00H, 00H					; `string'
CONST	ENDS
;	COMDAT ??_C@_13HADAKIJA@?$AAx@
CONST	SEGMENT
??_C@_13HADAKIJA@?$AAx@ DB 'x', 00H, 00H, 00H		; `string'
CONST	ENDS
;	COMDAT _CT??_R0?AVArgumentNullException@Internal@Core@Math@Palmtree@@@8??0ArgumentNullException@Internal@Core@Math@Palmtree@@QEAA@AEBV01234@@Z48
xdata$x	SEGMENT
_CT??_R0?AVArgumentNullException@Internal@Core@Math@Palmtree@@@8??0ArgumentNullException@Internal@Core@Math@Palmtree@@QEAA@AEBV01234@@Z48 DD 00H
	DD	imagerel ??_R0?AVArgumentNullException@Internal@Core@Math@Palmtree@@@8
	DD	00H
	DD	0ffffffffH
	ORG $+4
	DD	030H
	DD	imagerel ??0ArgumentNullException@Internal@Core@Math@Palmtree@@QEAA@AEBV01234@@Z
xdata$x	ENDS
;	COMDAT ??_R0?AVArgumentNullException@Internal@Core@Math@Palmtree@@@8
data$r	SEGMENT
??_R0?AVArgumentNullException@Internal@Core@Math@Palmtree@@@8 DQ FLAT:??_7type_info@@6B@ ; Palmtree::Math::Core::Internal::ArgumentNullException `RTTI Type Descriptor'
	DQ	0000000000000000H
	DB	'.?AVArgumentNullException@Internal@Core@Math@Palmtree@@', 00H
data$r	ENDS
;	COMDAT _CTA2?AVArgumentNullException@Internal@Core@Math@Palmtree@@
xdata$x	SEGMENT
_CTA2?AVArgumentNullException@Internal@Core@Math@Palmtree@@ DD 02H
	DD	imagerel _CT??_R0?AVArgumentNullException@Internal@Core@Math@Palmtree@@@8??0ArgumentNullException@Internal@Core@Math@Palmtree@@QEAA@AEBV01234@@Z48
	DD	imagerel _CT??_R0?AVException@Internal@Core@Math@Palmtree@@@8??0Exception@Internal@Core@Math@Palmtree@@QEAA@AEBV01234@@Z48
xdata$x	ENDS
;	COMDAT _TI2?AVArgumentNullException@Internal@Core@Math@Palmtree@@
xdata$x	SEGMENT
_TI2?AVArgumentNullException@Internal@Core@Math@Palmtree@@ DD 00H
	DD	imagerel ??1ArgumentNullException@Internal@Core@Math@Palmtree@@UEAA@XZ
	DD	00H
	DD	imagerel _CTA2?AVArgumentNullException@Internal@Core@Math@Palmtree@@
xdata$x	ENDS
;	COMDAT ??_C@_1BO@CNNKDNIF@?$AA?$BF?$AAp?$AAt?$AAy?$AAp?$AAe?$AAL?$AA?$CK?$PP?e?$AAn?$AA$?$AAg?$AAY?$AA?$AC@
CONST	SEGMENT
??_C@_1BO@CNNKDNIF@?$AA?$BF?$AAp?$AAt?$AAy?$AAp?$AAe?$AAL?$AA?$CK?$PP?e?$AAn?$AA$?$AAg?$AAY?$AA?$AC@ DB 015H
	DB	'_pet', 00H, 'y', 00H, 'p', 00H, 'e', 00H, 'L0*g', 0e5H, 'wn0$'
	DB	'Pg0Y0', 02H, '0', 00H, 00H			; `string'
CONST	ENDS
;	COMDAT _CT??_R0?AVArgumentException@Internal@Core@Math@Palmtree@@@8??0ArgumentException@Internal@Core@Math@Palmtree@@QEAA@AEBV01234@@Z48
xdata$x	SEGMENT
_CT??_R0?AVArgumentException@Internal@Core@Math@Palmtree@@@8??0ArgumentException@Internal@Core@Math@Palmtree@@QEAA@AEBV01234@@Z48 DD 00H
	DD	imagerel ??_R0?AVArgumentException@Internal@Core@Math@Palmtree@@@8
	DD	00H
	DD	0ffffffffH
	ORG $+4
	DD	030H
	DD	imagerel ??0ArgumentException@Internal@Core@Math@Palmtree@@QEAA@AEBV01234@@Z
xdata$x	ENDS
;	COMDAT ??_R0?AVArgumentException@Internal@Core@Math@Palmtree@@@8
data$r	SEGMENT
??_R0?AVArgumentException@Internal@Core@Math@Palmtree@@@8 DQ FLAT:??_7type_info@@6B@ ; Palmtree::Math::Core::Internal::ArgumentException `RTTI Type Descriptor'
	DQ	0000000000000000H
	DB	'.?AVArgumentException@Internal@Core@Math@Palmtree@@', 00H
data$r	ENDS
;	COMDAT _CTA2?AVArgumentException@Internal@Core@Math@Palmtree@@
xdata$x	SEGMENT
_CTA2?AVArgumentException@Internal@Core@Math@Palmtree@@ DD 02H
	DD	imagerel _CT??_R0?AVArgumentException@Internal@Core@Math@Palmtree@@@8??0ArgumentException@Internal@Core@Math@Palmtree@@QEAA@AEBV01234@@Z48
	DD	imagerel _CT??_R0?AVException@Internal@Core@Math@Palmtree@@@8??0Exception@Internal@Core@Math@Palmtree@@QEAA@AEBV01234@@Z48
xdata$x	ENDS
;	COMDAT _TI2?AVArgumentException@Internal@Core@Math@Palmtree@@
xdata$x	SEGMENT
_TI2?AVArgumentException@Internal@Core@Math@Palmtree@@ DD 00H
	DD	imagerel ??1ArgumentException@Internal@Core@Math@Palmtree@@UEAA@XZ
	DD	00H
	DD	imagerel _CTA2?AVArgumentException@Internal@Core@Math@Palmtree@@
xdata$x	ENDS
;	COMDAT ??_C@_1DK@CHNNDIJP@?$AAp?$AAm?$AAc?$AA_?$AAm?$AAe?$AAm?$AAo?$AAr?$AAy?$AA?4?$AAc?$AAp?$AAp?$AA?$DL@
CONST	SEGMENT
??_C@_1DK@CHNNDIJP@?$AAp?$AAm?$AAc?$AA_?$AAm?$AAe?$AAm?$AAo?$AAr?$AAy?$AA?4?$AAc?$AAp?$AAp?$AA?$DL@ DB 'p'
	DB	00H, 'm', 00H, 'c', 00H, '_', 00H, 'm', 00H, 'e', 00H, 'm', 00H
	DB	'o', 00H, 'r', 00H, 'y', 00H, '.', 00H, 'c', 00H, 'p', 00H, 'p'
	DB	00H, ';', 00H, 'C', 00H, 'h', 00H, 'e', 00H, 'c', 00H, 'k', 00H
	DB	'N', 00H, 'u', 00H, 'm', 00H, 'b', 00H, 'e', 00H, 'r', 00H, ';'
	DB	00H, '1', 00H, 00H, 00H			; `string'
CONST	ENDS
;	COMDAT ??_C@_1EC@KLIFJDDK@?$AAp?$AAm?$AAc?$AA_?$AAm?$AAe?$AAm?$AAo?$AAr?$AAy?$AA?4?$AAc?$AAp?$AAp?$AA?$DL@
CONST	SEGMENT
??_C@_1EC@KLIFJDDK@?$AAp?$AAm?$AAc?$AA_?$AAm?$AAe?$AAm?$AAo?$AAr?$AAy?$AA?4?$AAc?$AAp?$AAp?$AA?$DL@ DB 'p'
	DB	00H, 'm', 00H, 'c', 00H, '_', 00H, 'm', 00H, 'e', 00H, 'm', 00H
	DB	'o', 00H, 'r', 00H, 'y', 00H, '.', 00H, 'c', 00H, 'p', 00H, 'p'
	DB	00H, ';', 00H, 'C', 00H, 'h', 00H, 'e', 00H, 'c', 00H, 'k', 00H
	DB	'B', 00H, 'l', 00H, 'o', 00H, 'c', 00H, 'k', 00H, 'L', 00H, 'i'
	DB	00H, 'g', 00H, 'h', 00H, 't', 00H, ';', 00H, '2', 00H, 00H, 00H ; `string'
CONST	ENDS
;	COMDAT ??_C@_1CE@JCIJLGOL@?$PP?a?$PP?b?$PP?j?$AA?$BI?$PP?$NP?$AAn?$AA?$AN?$AAt?$AA?$AI?$PP?$JC?$AA?$BM?$PP?z?$AAW?$AA?$HO?$AAW@
CONST	SEGMENT
??_C@_1CE@JCIJLGOL@?$PP?a?$PP?b?$PP?j?$AA?$BI?$PP?$NP?$AAn?$AA?$AN?$AAt?$AA?$AI?$PP?$JC?$AA?$BM?$PP?z?$AAW?$AA?$HO?$AAW@ DB 0e1H
	DB	'0', 0e2H, '0', 0eaH, '0', 018H, 098H, 0dfH, 'Wn0', 0dH, 'Nte', 08H
	DB	'T', 092H, '0', 01cH, 'i', 0faH, 'QW0~0W0_0', 02H, '0', 00H, 00H ; `string'
CONST	ENDS
;	COMDAT ??_C@_1EC@LJDADMNE@?$AAp?$AAm?$AAc?$AA_?$AAm?$AAe?$AAm?$AAo?$AAr?$AAy?$AA?4?$AAc?$AAp?$AAp?$AA?$DL@
CONST	SEGMENT
??_C@_1EC@LJDADMNE@?$AAp?$AAm?$AAc?$AA_?$AAm?$AAe?$AAm?$AAo?$AAr?$AAy?$AA?4?$AAc?$AAp?$AAp?$AA?$DL@ DB 'p'
	DB	00H, 'm', 00H, 'c', 00H, '_', 00H, 'm', 00H, 'e', 00H, 'm', 00H
	DB	'o', 00H, 'r', 00H, 'y', 00H, '.', 00H, 'c', 00H, 'p', 00H, 'p'
	DB	00H, ';', 00H, 'C', 00H, 'h', 00H, 'e', 00H, 'c', 00H, 'k', 00H
	DB	'B', 00H, 'l', 00H, 'o', 00H, 'c', 00H, 'k', 00H, 'L', 00H, 'i'
	DB	00H, 'g', 00H, 'h', 00H, 't', 00H, ';', 00H, '1', 00H, 00H, 00H ; `string'
CONST	ENDS
;	COMDAT _CT??_R0?AVBadBufferException@Internal@Core@Math@Palmtree@@@8??0BadBufferException@Internal@Core@Math@Palmtree@@QEAA@AEBV01234@@Z56
xdata$x	SEGMENT
_CT??_R0?AVBadBufferException@Internal@Core@Math@Palmtree@@@8??0BadBufferException@Internal@Core@Math@Palmtree@@QEAA@AEBV01234@@Z56 DD 00H
	DD	imagerel ??_R0?AVBadBufferException@Internal@Core@Math@Palmtree@@@8
	DD	00H
	DD	0ffffffffH
	ORG $+4
	DD	038H
	DD	imagerel ??0BadBufferException@Internal@Core@Math@Palmtree@@QEAA@AEBV01234@@Z
xdata$x	ENDS
;	COMDAT ??_R0?AVBadBufferException@Internal@Core@Math@Palmtree@@@8
data$r	SEGMENT
??_R0?AVBadBufferException@Internal@Core@Math@Palmtree@@@8 DQ FLAT:??_7type_info@@6B@ ; Palmtree::Math::Core::Internal::BadBufferException `RTTI Type Descriptor'
	DQ	0000000000000000H
	DB	'.?AVBadBufferException@Internal@Core@Math@Palmtree@@', 00H
data$r	ENDS
;	COMDAT _CTA2?AVBadBufferException@Internal@Core@Math@Palmtree@@
xdata$x	SEGMENT
_CTA2?AVBadBufferException@Internal@Core@Math@Palmtree@@ DD 02H
	DD	imagerel _CT??_R0?AVBadBufferException@Internal@Core@Math@Palmtree@@@8??0BadBufferException@Internal@Core@Math@Palmtree@@QEAA@AEBV01234@@Z56
	DD	imagerel _CT??_R0?AVException@Internal@Core@Math@Palmtree@@@8??0Exception@Internal@Core@Math@Palmtree@@QEAA@AEBV01234@@Z48
xdata$x	ENDS
;	COMDAT _TI2?AVBadBufferException@Internal@Core@Math@Palmtree@@
xdata$x	SEGMENT
_TI2?AVBadBufferException@Internal@Core@Math@Palmtree@@ DD 00H
	DD	imagerel ??1BadBufferException@Internal@Core@Math@Palmtree@@UEAA@XZ
	DD	00H
	DD	imagerel _CTA2?AVBadBufferException@Internal@Core@Math@Palmtree@@
xdata$x	ENDS
;	COMDAT ??_C@_1CE@PIPAACFA@?$PP?R?$PP?$PM?$PP?W?$PP?a?$PP?b?$PP?j?$AA?$BI?$PP?$NP?$AAL?$AA?$AN?$PP?$LD?$AAW?$AAf?$AAD?$AA?$HO@
CONST	SEGMENT
??_C@_1CE@PIPAACFA@?$PP?R?$PP?$PM?$PP?W?$PP?a?$PP?b?$PP?j?$AA?$BI?$PP?$NP?$AAL?$AA?$AN?$PP?$LD?$AAW?$AAf?$AAD?$AA?$HO@ DB 0d2H
	DB	'0', 0fcH, '0', 0d7H, '0', 0e1H, '0', 0e2H, '0', 0eaH, '0', 018H
	DB	098H, 0dfH, 'WL0', 0dH, 'N', 0b3H, 08dH, 'W0f0D0~0Y0', 02H, '0'
	DB	00H, 00H					; `string'
CONST	ENDS
;	COMDAT _CT??_R0?AVNotEnoughMemoryException@Internal@Core@Math@Palmtree@@@8??0NotEnoughMemoryException@Internal@Core@Math@Palmtree@@QEAA@AEBV01234@@Z48
xdata$x	SEGMENT
_CT??_R0?AVNotEnoughMemoryException@Internal@Core@Math@Palmtree@@@8??0NotEnoughMemoryException@Internal@Core@Math@Palmtree@@QEAA@AEBV01234@@Z48 DD 00H
	DD	imagerel ??_R0?AVNotEnoughMemoryException@Internal@Core@Math@Palmtree@@@8
	DD	00H
	DD	0ffffffffH
	ORG $+4
	DD	030H
	DD	imagerel ??0NotEnoughMemoryException@Internal@Core@Math@Palmtree@@QEAA@AEBV01234@@Z
xdata$x	ENDS
;	COMDAT ??_R0?AVNotEnoughMemoryException@Internal@Core@Math@Palmtree@@@8
data$r	SEGMENT
??_R0?AVNotEnoughMemoryException@Internal@Core@Math@Palmtree@@@8 DQ FLAT:??_7type_info@@6B@ ; Palmtree::Math::Core::Internal::NotEnoughMemoryException `RTTI Type Descriptor'
	DQ	0000000000000000H
	DB	'.?AVNotEnoughMemoryException@Internal@Core@Math@Palmtree'
	DB	'@@', 00H
data$r	ENDS
;	COMDAT _CTA2?AVNotEnoughMemoryException@Internal@Core@Math@Palmtree@@
xdata$x	SEGMENT
_CTA2?AVNotEnoughMemoryException@Internal@Core@Math@Palmtree@@ DD 02H
	DD	imagerel _CT??_R0?AVNotEnoughMemoryException@Internal@Core@Math@Palmtree@@@8??0NotEnoughMemoryException@Internal@Core@Math@Palmtree@@QEAA@AEBV01234@@Z48
	DD	imagerel _CT??_R0?AVException@Internal@Core@Math@Palmtree@@@8??0Exception@Internal@Core@Math@Palmtree@@QEAA@AEBV01234@@Z48
xdata$x	ENDS
;	COMDAT _TI2?AVNotEnoughMemoryException@Internal@Core@Math@Palmtree@@
xdata$x	SEGMENT
_TI2?AVNotEnoughMemoryException@Internal@Core@Math@Palmtree@@ DD 00H
	DD	imagerel ??1NotEnoughMemoryException@Internal@Core@Math@Palmtree@@UEAA@XZ
	DD	00H
	DD	imagerel _CTA2?AVNotEnoughMemoryException@Internal@Core@Math@Palmtree@@
xdata$x	ENDS
;	COMDAT ??_7ResourceHolderUINT@Internal@Core@Math@Palmtree@@6B@
CONST	SEGMENT
??_7ResourceHolderUINT@Internal@Core@Math@Palmtree@@6B@ DQ FLAT:??_R4ResourceHolderUINT@Internal@Core@Math@Palmtree@@6B@ ; Palmtree::Math::Core::Internal::ResourceHolderUINT::`vftable'
	DQ	FLAT:??_EResourceHolderUINT@Internal@Core@Math@Palmtree@@UEAAPEAXI@Z
CONST	ENDS
;	COMDAT ??_7__StaticNumberChainBufferTag@ResourceHolderUINT@Internal@Core@Math@Palmtree@@6B@
CONST	SEGMENT
??_7__StaticNumberChainBufferTag@ResourceHolderUINT@Internal@Core@Math@Palmtree@@6B@ DQ FLAT:??_R4__StaticNumberChainBufferTag@ResourceHolderUINT@Internal@Core@Math@Palmtree@@6B@ ; Palmtree::Math::Core::Internal::ResourceHolderUINT::__StaticNumberChainBufferTag::`vftable'
	DQ	FLAT:??_E__StaticNumberChainBufferTag@ResourceHolderUINT@Internal@Core@Math@Palmtree@@UEAAPEAXI@Z
	DQ	FLAT:?EqualsBufferAddress@__StaticNumberChainBufferTag@ResourceHolderUINT@Internal@Core@Math@Palmtree@@UEAAHPEAX@Z
	DQ	FLAT:?Clear@__ChainBufferTag@ResourceHolder@Internal@Core@Math@Palmtree@@UEAAXXZ
	DQ	FLAT:?Check@__StaticNumberChainBufferTag@ResourceHolderUINT@Internal@Core@Math@Palmtree@@UEAAXXZ
	DQ	FLAT:?Destruct@__StaticNumberChainBufferTag@ResourceHolderUINT@Internal@Core@Math@Palmtree@@UEAAXXZ
CONST	ENDS
;	COMDAT ??_7__NumberHandleHookingChainBufferTag@ResourceHolderUINT@Internal@Core@Math@Palmtree@@6B@
CONST	SEGMENT
??_7__NumberHandleHookingChainBufferTag@ResourceHolderUINT@Internal@Core@Math@Palmtree@@6B@ DQ FLAT:??_R4__NumberHandleHookingChainBufferTag@ResourceHolderUINT@Internal@Core@Math@Palmtree@@6B@ ; Palmtree::Math::Core::Internal::ResourceHolderUINT::__NumberHandleHookingChainBufferTag::`vftable'
	DQ	FLAT:??_E__NumberHandleHookingChainBufferTag@ResourceHolderUINT@Internal@Core@Math@Palmtree@@UEAAPEAXI@Z
	DQ	FLAT:?EqualsBufferAddress@__NumberHandleHookingChainBufferTag@ResourceHolderUINT@Internal@Core@Math@Palmtree@@UEAAHPEAX@Z
	DQ	FLAT:?Clear@__ChainBufferTag@ResourceHolder@Internal@Core@Math@Palmtree@@UEAAXXZ
	DQ	FLAT:?Check@__NumberHandleHookingChainBufferTag@ResourceHolderUINT@Internal@Core@Math@Palmtree@@UEAAXXZ
	DQ	FLAT:?Destruct@__NumberHandleHookingChainBufferTag@ResourceHolderUINT@Internal@Core@Math@Palmtree@@UEAAXXZ
CONST	ENDS
;	COMDAT ??_7__DynamicNumberChainBufferTag@ResourceHolderUINT@Internal@Core@Math@Palmtree@@6B@
CONST	SEGMENT
??_7__DynamicNumberChainBufferTag@ResourceHolderUINT@Internal@Core@Math@Palmtree@@6B@ DQ FLAT:??_R4__DynamicNumberChainBufferTag@ResourceHolderUINT@Internal@Core@Math@Palmtree@@6B@ ; Palmtree::Math::Core::Internal::ResourceHolderUINT::__DynamicNumberChainBufferTag::`vftable'
	DQ	FLAT:??_E__DynamicNumberChainBufferTag@ResourceHolderUINT@Internal@Core@Math@Palmtree@@UEAAPEAXI@Z
	DQ	FLAT:?EqualsBufferAddress@__DynamicNumberChainBufferTag@ResourceHolderUINT@Internal@Core@Math@Palmtree@@UEAAHPEAX@Z
	DQ	FLAT:?Clear@__ChainBufferTag@ResourceHolder@Internal@Core@Math@Palmtree@@UEAAXXZ
	DQ	FLAT:?Check@__DynamicNumberChainBufferTag@ResourceHolderUINT@Internal@Core@Math@Palmtree@@UEAAXXZ
	DQ	FLAT:?Destruct@__DynamicNumberChainBufferTag@ResourceHolderUINT@Internal@Core@Math@Palmtree@@UEAAXXZ
CONST	ENDS
;	COMDAT ??_7__StringChainBufferTag@ResourceHolderUINT@Internal@Core@Math@Palmtree@@6B@
CONST	SEGMENT
??_7__StringChainBufferTag@ResourceHolderUINT@Internal@Core@Math@Palmtree@@6B@ DQ FLAT:??_R4__StringChainBufferTag@ResourceHolderUINT@Internal@Core@Math@Palmtree@@6B@ ; Palmtree::Math::Core::Internal::ResourceHolderUINT::__StringChainBufferTag::`vftable'
	DQ	FLAT:??_E__StringChainBufferTag@ResourceHolderUINT@Internal@Core@Math@Palmtree@@UEAAPEAXI@Z
	DQ	FLAT:?EqualsBufferAddress@__StringChainBufferTag@ResourceHolderUINT@Internal@Core@Math@Palmtree@@UEAAHPEAX@Z
	DQ	FLAT:?Clear@__StringChainBufferTag@ResourceHolderUINT@Internal@Core@Math@Palmtree@@UEAAXXZ
	DQ	FLAT:?Check@__StringChainBufferTag@ResourceHolderUINT@Internal@Core@Math@Palmtree@@UEAAXXZ
	DQ	FLAT:?Destruct@__StringChainBufferTag@ResourceHolderUINT@Internal@Core@Math@Palmtree@@UEAAXXZ
CONST	ENDS
;	COMDAT ??_7____UNIT_TYPE_Array_ChainBufferTag@ResourceHolderUINT@Internal@Core@Math@Palmtree@@6B@
CONST	SEGMENT
??_7____UNIT_TYPE_Array_ChainBufferTag@ResourceHolderUINT@Internal@Core@Math@Palmtree@@6B@ DQ FLAT:??_R4____UNIT_TYPE_Array_ChainBufferTag@ResourceHolderUINT@Internal@Core@Math@Palmtree@@6B@ ; Palmtree::Math::Core::Internal::ResourceHolderUINT::____UNIT_TYPE_Array_ChainBufferTag::`vftable'
	DQ	FLAT:??_E____UNIT_TYPE_Array_ChainBufferTag@ResourceHolderUINT@Internal@Core@Math@Palmtree@@UEAAPEAXI@Z
	DQ	FLAT:?EqualsBufferAddress@____UNIT_TYPE_Array_ChainBufferTag@ResourceHolderUINT@Internal@Core@Math@Palmtree@@UEAAHPEAX@Z
	DQ	FLAT:?Clear@____UNIT_TYPE_Array_ChainBufferTag@ResourceHolderUINT@Internal@Core@Math@Palmtree@@UEAAXXZ
	DQ	FLAT:?Check@____UNIT_TYPE_Array_ChainBufferTag@ResourceHolderUINT@Internal@Core@Math@Palmtree@@UEAAXXZ
	DQ	FLAT:?Destruct@____UNIT_TYPE_Array_ChainBufferTag@ResourceHolderUINT@Internal@Core@Math@Palmtree@@UEAAXXZ
CONST	ENDS
;	COMDAT ??_7__GenericChainBufferTag@ResourceHolderUINT@Internal@Core@Math@Palmtree@@6B@
CONST	SEGMENT
??_7__GenericChainBufferTag@ResourceHolderUINT@Internal@Core@Math@Palmtree@@6B@ DQ FLAT:??_R4__GenericChainBufferTag@ResourceHolderUINT@Internal@Core@Math@Palmtree@@6B@ ; Palmtree::Math::Core::Internal::ResourceHolderUINT::__GenericChainBufferTag::`vftable'
	DQ	FLAT:??_E__GenericChainBufferTag@ResourceHolderUINT@Internal@Core@Math@Palmtree@@UEAAPEAXI@Z
	DQ	FLAT:?EqualsBufferAddress@__GenericChainBufferTag@ResourceHolderUINT@Internal@Core@Math@Palmtree@@UEAAHPEAX@Z
	DQ	FLAT:?Clear@__ChainBufferTag@ResourceHolder@Internal@Core@Math@Palmtree@@UEAAXXZ
	DQ	FLAT:?Check@__ChainBufferTag@ResourceHolder@Internal@Core@Math@Palmtree@@UEAAXXZ
	DQ	FLAT:?Destruct@__GenericChainBufferTag@ResourceHolderUINT@Internal@Core@Math@Palmtree@@UEAAXXZ
CONST	ENDS
;	COMDAT ??_C@_1CG@CNOPPENL@?$PP?$II?$AA?$BP?$AAW?$AAf?$AAD?$AAj?$AAD?$PP?$LD?$PP?$PM?$PP?I?$AAk?$AA0?$AAT?$AAW?$AA?$HO@
CONST	SEGMENT
??_C@_1CG@CNOPPENL@?$PP?$II?$AA?$BP?$AAW?$AAf?$AAD?$AAj?$AAD?$PP?$LD?$PP?$PM?$PP?I?$AAk?$AA0?$AAT?$AAW?$AA?$HO@ DB 088H
	DB	'N', 01fH, 'gW0f0D0j0D0', 0b3H, '0', 0fcH, '0', 0c9H, '0k00RT', 090H
	DB	'W0~0W0_0', 02H, '0', 00H, 00H		; `string'
CONST	ENDS
;	COMDAT ??_C@_1IM@LGDAALAB@?$AAp?$AAm?$AAc?$AA_?$AAr?$AAe?$AAs?$AAo?$AAu?$AAr?$AAc?$AAe?$AAh?$AAo?$AAl@
CONST	SEGMENT
??_C@_1IM@LGDAALAB@?$AAp?$AAm?$AAc?$AA_?$AAr?$AAe?$AAs?$AAo?$AAu?$AAr?$AAc?$AAe?$AAh?$AAo?$AAl@ DB 'p'
	DB	00H, 'm', 00H, 'c', 00H, '_', 00H, 'r', 00H, 'e', 00H, 's', 00H
	DB	'o', 00H, 'u', 00H, 'r', 00H, 'c', 00H, 'e', 00H, 'h', 00H, 'o'
	DB	00H, 'l', 00H, 'd', 00H, 'e', 00H, 'r', 00H, '.', 00H, 'h', 00H
	DB	';', 00H, 'R', 00H, 'e', 00H, 's', 00H, 'o', 00H, 'u', 00H, 'r'
	DB	00H, 'c', 00H, 'e', 00H, 'H', 00H, 'o', 00H, 'l', 00H, 'd', 00H
	DB	'e', 00H, 'r', 00H, ':', 00H, ':', 00H, '_', 00H, '_', 00H, 'R'
	DB	00H, 'o', 00H, 'o', 00H, 't', 00H, 'T', 00H, 'a', 00H, 'g', 00H
	DB	':', 00H, ':', 00H, 'E', 00H, 'q', 00H, 'u', 00H, 'a', 00H, 'l'
	DB	00H, 's', 00H, 'B', 00H, 'u', 00H, 'f', 00H, 'f', 00H, 'e', 00H
	DB	'r', 00H, 'A', 00H, 'd', 00H, 'd', 00H, 'r', 00H, 'e', 00H, 's'
	DB	00H, 's', 00H, ';', 00H, '1', 00H, 00H, 00H	; `string'
CONST	ENDS
;	COMDAT _CT??_R0?AVException@Internal@Core@Math@Palmtree@@@8??0Exception@Internal@Core@Math@Palmtree@@QEAA@AEBV01234@@Z48
xdata$x	SEGMENT
_CT??_R0?AVException@Internal@Core@Math@Palmtree@@@8??0Exception@Internal@Core@Math@Palmtree@@QEAA@AEBV01234@@Z48 DD 00H
	DD	imagerel ??_R0?AVException@Internal@Core@Math@Palmtree@@@8
	DD	00H
	DD	0ffffffffH
	ORG $+4
	DD	030H
	DD	imagerel ??0Exception@Internal@Core@Math@Palmtree@@QEAA@AEBV01234@@Z
xdata$x	ENDS
;	COMDAT ??_R0?AVException@Internal@Core@Math@Palmtree@@@8
data$r	SEGMENT
??_R0?AVException@Internal@Core@Math@Palmtree@@@8 DQ FLAT:??_7type_info@@6B@ ; Palmtree::Math::Core::Internal::Exception `RTTI Type Descriptor'
	DQ	0000000000000000H
	DB	'.?AVException@Internal@Core@Math@Palmtree@@', 00H
data$r	ENDS
;	COMDAT _CT??_R0?AVInternalErrorException@Internal@Core@Math@Palmtree@@@8??0InternalErrorException@Internal@Core@Math@Palmtree@@QEAA@AEBV01234@@Z48
xdata$x	SEGMENT
_CT??_R0?AVInternalErrorException@Internal@Core@Math@Palmtree@@@8??0InternalErrorException@Internal@Core@Math@Palmtree@@QEAA@AEBV01234@@Z48 DD 00H
	DD	imagerel ??_R0?AVInternalErrorException@Internal@Core@Math@Palmtree@@@8
	DD	00H
	DD	0ffffffffH
	ORG $+4
	DD	030H
	DD	imagerel ??0InternalErrorException@Internal@Core@Math@Palmtree@@QEAA@AEBV01234@@Z
xdata$x	ENDS
;	COMDAT ??_R0?AVInternalErrorException@Internal@Core@Math@Palmtree@@@8
data$r	SEGMENT
??_R0?AVInternalErrorException@Internal@Core@Math@Palmtree@@@8 DQ FLAT:??_7type_info@@6B@ ; Palmtree::Math::Core::Internal::InternalErrorException `RTTI Type Descriptor'
	DQ	0000000000000000H
	DB	'.?AVInternalErrorException@Internal@Core@Math@Palmtree@@'
	DB	00H
data$r	ENDS
;	COMDAT _CTA2?AVInternalErrorException@Internal@Core@Math@Palmtree@@
xdata$x	SEGMENT
_CTA2?AVInternalErrorException@Internal@Core@Math@Palmtree@@ DD 02H
	DD	imagerel _CT??_R0?AVInternalErrorException@Internal@Core@Math@Palmtree@@@8??0InternalErrorException@Internal@Core@Math@Palmtree@@QEAA@AEBV01234@@Z48
	DD	imagerel _CT??_R0?AVException@Internal@Core@Math@Palmtree@@@8??0Exception@Internal@Core@Math@Palmtree@@QEAA@AEBV01234@@Z48
xdata$x	ENDS
;	COMDAT _TI2?AVInternalErrorException@Internal@Core@Math@Palmtree@@
xdata$x	SEGMENT
_TI2?AVInternalErrorException@Internal@Core@Math@Palmtree@@ DD 00H
	DD	imagerel ??1InternalErrorException@Internal@Core@Math@Palmtree@@UEAA@XZ
	DD	00H
	DD	imagerel _CTA2?AVInternalErrorException@Internal@Core@Math@Palmtree@@
xdata$x	ENDS
;	COMDAT ??_7ResourceHolder@Internal@Core@Math@Palmtree@@6B@
CONST	SEGMENT
??_7ResourceHolder@Internal@Core@Math@Palmtree@@6B@ DQ FLAT:??_R4ResourceHolder@Internal@Core@Math@Palmtree@@6B@ ; Palmtree::Math::Core::Internal::ResourceHolder::`vftable'
	DQ	FLAT:??_EResourceHolder@Internal@Core@Math@Palmtree@@UEAAPEAXI@Z
CONST	ENDS
;	COMDAT ??_7__RootTag@ResourceHolder@Internal@Core@Math@Palmtree@@6B@
CONST	SEGMENT
??_7__RootTag@ResourceHolder@Internal@Core@Math@Palmtree@@6B@ DQ FLAT:??_R4__RootTag@ResourceHolder@Internal@Core@Math@Palmtree@@6B@ ; Palmtree::Math::Core::Internal::ResourceHolder::__RootTag::`vftable'
	DQ	FLAT:??_E__RootTag@ResourceHolder@Internal@Core@Math@Palmtree@@UEAAPEAXI@Z
	DQ	FLAT:?EqualsBufferAddress@__RootTag@ResourceHolder@Internal@Core@Math@Palmtree@@UEAAHPEAX@Z
	DQ	FLAT:?Clear@__ChainBufferTag@ResourceHolder@Internal@Core@Math@Palmtree@@UEAAXXZ
	DQ	FLAT:?Check@__ChainBufferTag@ResourceHolder@Internal@Core@Math@Palmtree@@UEAAXXZ
	DQ	FLAT:?Destruct@__RootTag@ResourceHolder@Internal@Core@Math@Palmtree@@UEAAXXZ
CONST	ENDS
;	COMDAT ??_7__ChainBufferTag@ResourceHolder@Internal@Core@Math@Palmtree@@6B@
CONST	SEGMENT
??_7__ChainBufferTag@ResourceHolder@Internal@Core@Math@Palmtree@@6B@ DQ FLAT:??_R4__ChainBufferTag@ResourceHolder@Internal@Core@Math@Palmtree@@6B@ ; Palmtree::Math::Core::Internal::ResourceHolder::__ChainBufferTag::`vftable'
	DQ	FLAT:??_E__ChainBufferTag@ResourceHolder@Internal@Core@Math@Palmtree@@UEAAPEAXI@Z
	DQ	FLAT:_purecall
	DQ	FLAT:?Clear@__ChainBufferTag@ResourceHolder@Internal@Core@Math@Palmtree@@UEAAXXZ
	DQ	FLAT:?Check@__ChainBufferTag@ResourceHolder@Internal@Core@Math@Palmtree@@UEAAXXZ
	DQ	FLAT:_purecall
CONST	ENDS
;	COMDAT ??_7BadBufferException@Internal@Core@Math@Palmtree@@6B@
CONST	SEGMENT
??_7BadBufferException@Internal@Core@Math@Palmtree@@6B@ DQ FLAT:??_R4BadBufferException@Internal@Core@Math@Palmtree@@6B@ ; Palmtree::Math::Core::Internal::BadBufferException::`vftable'
	DQ	FLAT:??_EBadBufferException@Internal@Core@Math@Palmtree@@UEAAPEAXI@Z
	DQ	FLAT:?what@exception@std@@UEBAPEBDXZ
CONST	ENDS
;	COMDAT ??_7InternalErrorException@Internal@Core@Math@Palmtree@@6B@
CONST	SEGMENT
??_7InternalErrorException@Internal@Core@Math@Palmtree@@6B@ DQ FLAT:??_R4InternalErrorException@Internal@Core@Math@Palmtree@@6B@ ; Palmtree::Math::Core::Internal::InternalErrorException::`vftable'
	DQ	FLAT:??_EInternalErrorException@Internal@Core@Math@Palmtree@@UEAAPEAXI@Z
	DQ	FLAT:?what@exception@std@@UEBAPEBDXZ
CONST	ENDS
;	COMDAT ??_7NotEnoughMemoryException@Internal@Core@Math@Palmtree@@6B@
CONST	SEGMENT
??_7NotEnoughMemoryException@Internal@Core@Math@Palmtree@@6B@ DQ FLAT:??_R4NotEnoughMemoryException@Internal@Core@Math@Palmtree@@6B@ ; Palmtree::Math::Core::Internal::NotEnoughMemoryException::`vftable'
	DQ	FLAT:??_ENotEnoughMemoryException@Internal@Core@Math@Palmtree@@UEAAPEAXI@Z
	DQ	FLAT:?what@exception@std@@UEBAPEBDXZ
CONST	ENDS
;	COMDAT ??_7ArgumentNullException@Internal@Core@Math@Palmtree@@6B@
CONST	SEGMENT
??_7ArgumentNullException@Internal@Core@Math@Palmtree@@6B@ DQ FLAT:??_R4ArgumentNullException@Internal@Core@Math@Palmtree@@6B@ ; Palmtree::Math::Core::Internal::ArgumentNullException::`vftable'
	DQ	FLAT:??_EArgumentNullException@Internal@Core@Math@Palmtree@@UEAAPEAXI@Z
	DQ	FLAT:?what@exception@std@@UEBAPEBDXZ
CONST	ENDS
;	COMDAT ??_7ArgumentException@Internal@Core@Math@Palmtree@@6B@
CONST	SEGMENT
??_7ArgumentException@Internal@Core@Math@Palmtree@@6B@ DQ FLAT:??_R4ArgumentException@Internal@Core@Math@Palmtree@@6B@ ; Palmtree::Math::Core::Internal::ArgumentException::`vftable'
	DQ	FLAT:??_EArgumentException@Internal@Core@Math@Palmtree@@UEAAPEAXI@Z
	DQ	FLAT:?what@exception@std@@UEBAPEBDXZ
CONST	ENDS
;	COMDAT ??_7Exception@Internal@Core@Math@Palmtree@@6B@
CONST	SEGMENT
??_7Exception@Internal@Core@Math@Palmtree@@6B@ DQ FLAT:??_R4Exception@Internal@Core@Math@Palmtree@@6B@ ; Palmtree::Math::Core::Internal::Exception::`vftable'
	DQ	FLAT:??_EException@Internal@Core@Math@Palmtree@@UEAAPEAXI@Z
	DQ	FLAT:?what@exception@std@@UEBAPEBDXZ
CONST	ENDS
;	COMDAT ??_C@_0BC@EOODALEL@Unknown?5exception@
CONST	SEGMENT
??_C@_0BC@EOODALEL@Unknown?5exception@ DB 'Unknown exception', 00H ; `string'
CONST	ENDS
;	COMDAT ??_7exception@std@@6B@
CONST	SEGMENT
??_7exception@std@@6B@ DQ FLAT:??_R4exception@std@@6B@	; std::exception::`vftable'
	DQ	FLAT:??_Eexception@std@@UEAAPEAXI@Z
	DQ	FLAT:?what@exception@std@@UEBAPEBDXZ
CONST	ENDS
;	COMDAT xdata
xdata	SEGMENT
$unwind$?GetAllocatedMemorySize_Imp@Internal@Core@Math@Palmtree@@YAHPEA_K@Z DD 040a01H
	DD	0c340aH
	DD	07006920aH
xdata	ENDS
;	COMDAT xdata
xdata	SEGMENT
$unwind$?DeallocateNumber@Internal@Core@Math@Palmtree@@YAXPEAU__tag_NUMBER_HEADER@1234@@Z DD 020a01H
	DD	03006320aH
xdata	ENDS
;	COMDAT xdata
xdata	SEGMENT
$unwind$?dtor$5@?0??AllocateNumber@Internal@Core@Math@Palmtree@@YAPEAU__tag_NUMBER_HEADER@1234@_K@Z@4HA DD 020601H
	DD	050023206H
xdata	ENDS
;	COMDAT xdata
xdata	SEGMENT
$ip2state$?AllocateNumber@Internal@Core@Math@Palmtree@@YAPEAU__tag_NUMBER_HEADER@1234@_K@Z DD imagerel ?AllocateNumber@Internal@Core@Math@Palmtree@@YAPEAU__tag_NUMBER_HEADER@1234@_K@Z
	DD	0ffffffffH
	DD	imagerel ?AllocateNumber@Internal@Core@Math@Palmtree@@YAPEAU__tag_NUMBER_HEADER@1234@_K@Z+80
	DD	00H
	DD	imagerel ?AllocateNumber@Internal@Core@Math@Palmtree@@YAPEAU__tag_NUMBER_HEADER@1234@_K@Z+91
	DD	02H
	DD	imagerel ?AllocateNumber@Internal@Core@Math@Palmtree@@YAPEAU__tag_NUMBER_HEADER@1234@_K@Z+102
	DD	03H
	DD	imagerel ?AllocateNumber@Internal@Core@Math@Palmtree@@YAPEAU__tag_NUMBER_HEADER@1234@_K@Z+116
	DD	04H
	DD	imagerel ?AllocateNumber@Internal@Core@Math@Palmtree@@YAPEAU__tag_NUMBER_HEADER@1234@_K@Z+171
	DD	05H
	DD	imagerel ?AllocateNumber@Internal@Core@Math@Palmtree@@YAPEAU__tag_NUMBER_HEADER@1234@_K@Z+187
	DD	06H
	DD	imagerel ?AllocateNumber@Internal@Core@Math@Palmtree@@YAPEAU__tag_NUMBER_HEADER@1234@_K@Z+201
	DD	05H
	DD	imagerel ?AllocateNumber@Internal@Core@Math@Palmtree@@YAPEAU__tag_NUMBER_HEADER@1234@_K@Z+205
	DD	04H
	DD	imagerel ?AllocateNumber@Internal@Core@Math@Palmtree@@YAPEAU__tag_NUMBER_HEADER@1234@_K@Z+235
	DD	03H
	DD	imagerel ?AllocateNumber@Internal@Core@Math@Palmtree@@YAPEAU__tag_NUMBER_HEADER@1234@_K@Z+277
	DD	07H
	DD	imagerel ?AllocateNumber@Internal@Core@Math@Palmtree@@YAPEAU__tag_NUMBER_HEADER@1234@_K@Z+338
	DD	00H
	DD	imagerel ?AllocateNumber@Internal@Core@Math@Palmtree@@YAPEAU__tag_NUMBER_HEADER@1234@_K@Z+340
	DD	07H
	DD	imagerel ?AllocateNumber@Internal@Core@Math@Palmtree@@YAPEAU__tag_NUMBER_HEADER@1234@_K@Z+377
	DD	03H
	DD	imagerel ?AllocateNumber@Internal@Core@Math@Palmtree@@YAPEAU__tag_NUMBER_HEADER@1234@_K@Z+391
	DD	0ffffffffH
	DD	imagerel ?AllocateNumber@Internal@Core@Math@Palmtree@@YAPEAU__tag_NUMBER_HEADER@1234@_K@Z+434
	DD	04H
	DD	imagerel ?AllocateNumber@Internal@Core@Math@Palmtree@@YAPEAU__tag_NUMBER_HEADER@1234@_K@Z+469
	DD	07H
xdata	ENDS
;	COMDAT xdata
xdata	SEGMENT
$stateUnwindMap$?AllocateNumber@Internal@Core@Math@Palmtree@@YAPEAU__tag_NUMBER_HEADER@1234@_K@Z DD 0ffffffffH
	DD	imagerel ?dtor$3@?0??AllocateNumber@Internal@Core@Math@Palmtree@@YAPEAU__tag_NUMBER_HEADER@1234@_K@Z@4HA
	DD	0ffffffffH
	DD	imagerel ?dtor$2@?0??AllocateNumber@Internal@Core@Math@Palmtree@@YAPEAU__tag_NUMBER_HEADER@1234@_K@Z@4HA
	DD	0ffffffffH
	DD	imagerel ?dtor$1@?0??AllocateNumber@Internal@Core@Math@Palmtree@@YAPEAU__tag_NUMBER_HEADER@1234@_K@Z@4HA
	DD	0ffffffffH
	DD	imagerel ?dtor$0@?0??AllocateNumber@Internal@Core@Math@Palmtree@@YAPEAU__tag_NUMBER_HEADER@1234@_K@Z@4HA
	DD	03H
	DD	imagerel ?dtor$4@?0??AllocateNumber@Internal@Core@Math@Palmtree@@YAPEAU__tag_NUMBER_HEADER@1234@_K@Z@4HA
	DD	04H
	DD	imagerel ?dtor$5@?0??AllocateNumber@Internal@Core@Math@Palmtree@@YAPEAU__tag_NUMBER_HEADER@1234@_K@Z@4HA
	DD	05H
	DD	imagerel ?dtor$6@?0??AllocateNumber@Internal@Core@Math@Palmtree@@YAPEAU__tag_NUMBER_HEADER@1234@_K@Z@4HA
	DD	03H
	DD	imagerel ?dtor$7@?0??AllocateNumber@Internal@Core@Math@Palmtree@@YAPEAU__tag_NUMBER_HEADER@1234@_K@Z@4HA
	DD	0ffffffffH
	DD	imagerel ?dtor$8@?0??AllocateNumber@Internal@Core@Math@Palmtree@@YAPEAU__tag_NUMBER_HEADER@1234@_K@Z@4HA
xdata	ENDS
;	COMDAT CONST
CONST	SEGMENT
$cppxdata$?AllocateNumber@Internal@Core@Math@Palmtree@@YAPEAU__tag_NUMBER_HEADER@1234@_K@Z DD 019930522H
	DD	09H
	DD	imagerel $stateUnwindMap$?AllocateNumber@Internal@Core@Math@Palmtree@@YAPEAU__tag_NUMBER_HEADER@1234@_K@Z
	DD	00H
	DD	00H
	DD	011H
	DD	imagerel $ip2state$?AllocateNumber@Internal@Core@Math@Palmtree@@YAPEAU__tag_NUMBER_HEADER@1234@_K@Z
	DD	020H
	DD	00H
	DD	00H
CONST	ENDS
;	COMDAT xdata
xdata	SEGMENT
$unwind$?AllocateNumber@Internal@Core@Math@Palmtree@@YAPEAU__tag_NUMBER_HEADER@1234@_K@Z DD 091f11H
	DD	017641fH
	DD	016541bH
	DD	0143417H
	DD	012010bH
	DD	07004H
	DD	imagerel __CxxFrameHandler3
	DD	imagerel $cppxdata$?AllocateNumber@Internal@Core@Math@Palmtree@@YAPEAU__tag_NUMBER_HEADER@1234@_K@Z
xdata	ENDS
;	COMDAT xdata
xdata	SEGMENT
$unwind$?AttatchNumber@Internal@Core@Math@Palmtree@@YAXPEAU__tag_NUMBER_HEADER@1234@_K@Z DD 020601H
	DD	030023206H
xdata	ENDS
;	COMDAT xdata
xdata	SEGMENT
$chain$1$?CleanUpNumber@Internal@Core@Math@Palmtree@@YAXPEAU__tag_NUMBER_HEADER@1234@@Z DD 021H
	DD	imagerel ?CleanUpNumber@Internal@Core@Math@Palmtree@@YAXPEAU__tag_NUMBER_HEADER@1234@@Z
	DD	imagerel ?CleanUpNumber@Internal@Core@Math@Palmtree@@YAXPEAU__tag_NUMBER_HEADER@1234@@Z+43
	DD	imagerel $unwind$?CleanUpNumber@Internal@Core@Math@Palmtree@@YAXPEAU__tag_NUMBER_HEADER@1234@@Z
xdata	ENDS
;	COMDAT xdata
xdata	SEGMENT
$chain$0$?CleanUpNumber@Internal@Core@Math@Palmtree@@YAXPEAU__tag_NUMBER_HEADER@1234@@Z DD 020521H
	DD	047405H
	DD	imagerel ?CleanUpNumber@Internal@Core@Math@Palmtree@@YAXPEAU__tag_NUMBER_HEADER@1234@@Z
	DD	imagerel ?CleanUpNumber@Internal@Core@Math@Palmtree@@YAXPEAU__tag_NUMBER_HEADER@1234@@Z+43
	DD	imagerel $unwind$?CleanUpNumber@Internal@Core@Math@Palmtree@@YAXPEAU__tag_NUMBER_HEADER@1234@@Z
xdata	ENDS
;	COMDAT xdata
xdata	SEGMENT
$unwind$?CleanUpNumber@Internal@Core@Math@Palmtree@@YAXPEAU__tag_NUMBER_HEADER@1234@@Z DD 010401H
	DD	04204H
xdata	ENDS
;	COMDAT xdata
xdata	SEGMENT
$chain$2$?InitializeNumber@Internal@Core@Math@Palmtree@@YAXPEAU__tag_NUMBER_HEADER@1234@_K@Z DD 020021H
	DD	0c7400H
	DD	imagerel ?InitializeNumber@Internal@Core@Math@Palmtree@@YAXPEAU__tag_NUMBER_HEADER@1234@_K@Z
	DD	imagerel ?InitializeNumber@Internal@Core@Math@Palmtree@@YAXPEAU__tag_NUMBER_HEADER@1234@_K@Z+32
	DD	imagerel $unwind$?InitializeNumber@Internal@Core@Math@Palmtree@@YAXPEAU__tag_NUMBER_HEADER@1234@_K@Z
xdata	ENDS
;	COMDAT xdata
xdata	SEGMENT
$chain$1$?InitializeNumber@Internal@Core@Math@Palmtree@@YAXPEAU__tag_NUMBER_HEADER@1234@_K@Z DD 021H
	DD	imagerel ?InitializeNumber@Internal@Core@Math@Palmtree@@YAXPEAU__tag_NUMBER_HEADER@1234@_K@Z
	DD	imagerel ?InitializeNumber@Internal@Core@Math@Palmtree@@YAXPEAU__tag_NUMBER_HEADER@1234@_K@Z+32
	DD	imagerel $unwind$?InitializeNumber@Internal@Core@Math@Palmtree@@YAXPEAU__tag_NUMBER_HEADER@1234@_K@Z
xdata	ENDS
;	COMDAT xdata
xdata	SEGMENT
$chain$0$?InitializeNumber@Internal@Core@Math@Palmtree@@YAXPEAU__tag_NUMBER_HEADER@1234@_K@Z DD 020521H
	DD	0c7405H
	DD	imagerel ?InitializeNumber@Internal@Core@Math@Palmtree@@YAXPEAU__tag_NUMBER_HEADER@1234@_K@Z
	DD	imagerel ?InitializeNumber@Internal@Core@Math@Palmtree@@YAXPEAU__tag_NUMBER_HEADER@1234@_K@Z+32
	DD	imagerel $unwind$?InitializeNumber@Internal@Core@Math@Palmtree@@YAXPEAU__tag_NUMBER_HEADER@1234@_K@Z
xdata	ENDS
;	COMDAT xdata
xdata	SEGMENT
$unwind$?InitializeNumber@Internal@Core@Math@Palmtree@@YAXPEAU__tag_NUMBER_HEADER@1234@_K@Z DD 040a01H
	DD	0d340aH
	DD	06006920aH
xdata	ENDS
;	COMDAT xdata
xdata	SEGMENT
$unwind$?CheckBlock@Internal@Core@Math@Palmtree@@YAXPEA_K_K1@Z DD 010401H
	DD	0c204H
xdata	ENDS
;	COMDAT xdata
xdata	SEGMENT
$chain$1$?DeallocateBlock@Internal@Core@Math@Palmtree@@YAXPEA_K_K1@Z DD 021H
	DD	imagerel ?DeallocateBlock@Internal@Core@Math@Palmtree@@YAXPEA_K_K1@Z
	DD	imagerel ?DeallocateBlock@Internal@Core@Math@Palmtree@@YAXPEA_K_K1@Z+13
	DD	imagerel $unwind$?DeallocateBlock@Internal@Core@Math@Palmtree@@YAXPEA_K_K1@Z
xdata	ENDS
;	COMDAT xdata
xdata	SEGMENT
$chain$0$?DeallocateBlock@Internal@Core@Math@Palmtree@@YAXPEA_K_K1@Z DD 020521H
	DD	047405H
	DD	imagerel ?DeallocateBlock@Internal@Core@Math@Palmtree@@YAXPEA_K_K1@Z
	DD	imagerel ?DeallocateBlock@Internal@Core@Math@Palmtree@@YAXPEA_K_K1@Z+13
	DD	imagerel $unwind$?DeallocateBlock@Internal@Core@Math@Palmtree@@YAXPEA_K_K1@Z
xdata	ENDS
;	COMDAT xdata
xdata	SEGMENT
$unwind$?DeallocateBlock@Internal@Core@Math@Palmtree@@YAXPEA_K_K1@Z DD 010401H
	DD	04204H
xdata	ENDS
;	COMDAT xdata
xdata	SEGMENT
$unwind$?AllocateBlock@Internal@Core@Math@Palmtree@@YAPEA_K_KPEA_K1@Z DD 060f01H
	DD	0d640fH
	DD	0c340fH
	DD	0700b920fH
xdata	ENDS
;	COMDAT xdata
xdata	SEGMENT
$unwind$_FILL_MEMORY_UNIT DD 020501H
	DD	017405H
xdata	ENDS
;	COMDAT xdata
xdata	SEGMENT
$unwind$_FILL_MEMORY_64 DD 020501H
	DD	017405H
xdata	ENDS
;	COMDAT xdata
xdata	SEGMENT
$unwind$_FILL_MEMORY_32 DD 020501H
	DD	017405H
xdata	ENDS
;	COMDAT xdata
xdata	SEGMENT
$unwind$_FILL_MEMORY_16 DD 020501H
	DD	017405H
xdata	ENDS
;	COMDAT xdata
xdata	SEGMENT
$unwind$_FILL_MEMORY_BYTE DD 020501H
	DD	017405H
xdata	ENDS
;	COMDAT xdata
xdata	SEGMENT
$unwind$_ZERO_MEMORY_UNIT DD 020501H
	DD	017405H
xdata	ENDS
;	COMDAT xdata
xdata	SEGMENT
$unwind$_ZERO_MEMORY_64 DD 020501H
	DD	017405H
xdata	ENDS
;	COMDAT xdata
xdata	SEGMENT
$unwind$_ZERO_MEMORY_32 DD 020501H
	DD	017405H
xdata	ENDS
;	COMDAT xdata
xdata	SEGMENT
$unwind$_ZERO_MEMORY_16 DD 020501H
	DD	017405H
xdata	ENDS
;	COMDAT xdata
xdata	SEGMENT
$unwind$_ZERO_MEMORY_BYTE DD 020501H
	DD	017405H
xdata	ENDS
;	COMDAT xdata
xdata	SEGMENT
$unwind$_COPY_MEMORY_UNIT DD 040a01H
	DD	02740aH
	DD	016405H
xdata	ENDS
;	COMDAT xdata
xdata	SEGMENT
$ip2state$??_GResourceHolderUINT@Internal@Core@Math@Palmtree@@UEAAPEAXI@Z DD imagerel ??_GResourceHolderUINT@Internal@Core@Math@Palmtree@@UEAAPEAXI@Z
	DD	0ffffffffH
xdata	ENDS
;	COMDAT xdata
xdata	SEGMENT
$stateUnwindMap$??_GResourceHolderUINT@Internal@Core@Math@Palmtree@@UEAAPEAXI@Z DD 0ffffffffH
	DD	imagerel ?dtor$0@?0???_GResourceHolderUINT@Internal@Core@Math@Palmtree@@UEAAPEAXI@Z@4HA
xdata	ENDS
;	COMDAT CONST
CONST	SEGMENT
$cppxdata$??_GResourceHolderUINT@Internal@Core@Math@Palmtree@@UEAAPEAXI@Z DD 019930522H
	DD	01H
	DD	imagerel $stateUnwindMap$??_GResourceHolderUINT@Internal@Core@Math@Palmtree@@UEAAPEAXI@Z
	DD	00H
	DD	00H
	DD	01H
	DD	imagerel $ip2state$??_GResourceHolderUINT@Internal@Core@Math@Palmtree@@UEAAPEAXI@Z
	DD	020H
	DD	00H
	DD	04H
CONST	ENDS
;	COMDAT xdata
xdata	SEGMENT
$unwind$??_GResourceHolderUINT@Internal@Core@Math@Palmtree@@UEAAPEAXI@Z DD 041811H
	DD	093418H
	DD	07006520aH
	DD	imagerel __CxxFrameHandler3
	DD	imagerel $cppxdata$??_GResourceHolderUINT@Internal@Core@Math@Palmtree@@UEAAPEAXI@Z
xdata	ENDS
;	COMDAT xdata
xdata	SEGMENT
$ip2state$?UnlinkStatickNumber@ResourceHolderUINT@Internal@Core@Math@Palmtree@@QEAAXPEAU__tag_NUMBER_HEADER@2345@@Z DD imagerel ?UnlinkStatickNumber@ResourceHolderUINT@Internal@Core@Math@Palmtree@@QEAAXPEAU__tag_NUMBER_HEADER@2345@@Z
	DD	0ffffffffH
	DD	imagerel ?UnlinkStatickNumber@ResourceHolderUINT@Internal@Core@Math@Palmtree@@QEAAXPEAU__tag_NUMBER_HEADER@2345@@Z+44
	DD	00H
	DD	imagerel ?UnlinkStatickNumber@ResourceHolderUINT@Internal@Core@Math@Palmtree@@QEAAXPEAU__tag_NUMBER_HEADER@2345@@Z+128
	DD	0ffffffffH
	DD	imagerel ?UnlinkStatickNumber@ResourceHolderUINT@Internal@Core@Math@Palmtree@@QEAAXPEAU__tag_NUMBER_HEADER@2345@@Z+159
	DD	00H
xdata	ENDS
;	COMDAT xdata
xdata	SEGMENT
$stateUnwindMap$?UnlinkStatickNumber@ResourceHolderUINT@Internal@Core@Math@Palmtree@@QEAAXPEAU__tag_NUMBER_HEADER@2345@@Z DD 0ffffffffH
	DD	imagerel ?dtor$0@?0??UnlinkStatickNumber@ResourceHolderUINT@Internal@Core@Math@Palmtree@@QEAAXPEAU__tag_NUMBER_HEADER@2345@@Z@4HA
xdata	ENDS
;	COMDAT CONST
CONST	SEGMENT
$cppxdata$?UnlinkStatickNumber@ResourceHolderUINT@Internal@Core@Math@Palmtree@@QEAAXPEAU__tag_NUMBER_HEADER@2345@@Z DD 019930522H
	DD	01H
	DD	imagerel $stateUnwindMap$?UnlinkStatickNumber@ResourceHolderUINT@Internal@Core@Math@Palmtree@@QEAAXPEAU__tag_NUMBER_HEADER@2345@@Z
	DD	00H
	DD	00H
	DD	04H
	DD	imagerel $ip2state$?UnlinkStatickNumber@ResourceHolderUINT@Internal@Core@Math@Palmtree@@QEAAXPEAU__tag_NUMBER_HEADER@2345@@Z
	DD	020H
	DD	00H
	DD	00H
CONST	ENDS
;	COMDAT xdata
xdata	SEGMENT
$unwind$?UnlinkStatickNumber@ResourceHolderUINT@Internal@Core@Math@Palmtree@@QEAAXPEAU__tag_NUMBER_HEADER@2345@@Z DD 061811H
	DD	0116418H
	DD	0103414H
	DD	07004d208H
	DD	imagerel __CxxFrameHandler3
	DD	imagerel $cppxdata$?UnlinkStatickNumber@ResourceHolderUINT@Internal@Core@Math@Palmtree@@QEAAXPEAU__tag_NUMBER_HEADER@2345@@Z
xdata	ENDS
;	COMDAT xdata
xdata	SEGMENT
$ip2state$?DetatchStaticNumber@ResourceHolderUINT@Internal@Core@Math@Palmtree@@QEAAXPEAU__tag_NUMBER_HEADER@2345@@Z DD imagerel ?DetatchStaticNumber@ResourceHolderUINT@Internal@Core@Math@Palmtree@@QEAAXPEAU__tag_NUMBER_HEADER@2345@@Z
	DD	0ffffffffH
	DD	imagerel ?DetatchStaticNumber@ResourceHolderUINT@Internal@Core@Math@Palmtree@@QEAAXPEAU__tag_NUMBER_HEADER@2345@@Z+45
	DD	00H
	DD	imagerel ?DetatchStaticNumber@ResourceHolderUINT@Internal@Core@Math@Palmtree@@QEAAXPEAU__tag_NUMBER_HEADER@2345@@Z+151
	DD	0ffffffffH
xdata	ENDS
;	COMDAT xdata
xdata	SEGMENT
$stateUnwindMap$?DetatchStaticNumber@ResourceHolderUINT@Internal@Core@Math@Palmtree@@QEAAXPEAU__tag_NUMBER_HEADER@2345@@Z DD 0ffffffffH
	DD	imagerel ?dtor$0@?0??DetatchStaticNumber@ResourceHolderUINT@Internal@Core@Math@Palmtree@@QEAAXPEAU__tag_NUMBER_HEADER@2345@@Z@4HA
xdata	ENDS
;	COMDAT CONST
CONST	SEGMENT
$cppxdata$?DetatchStaticNumber@ResourceHolderUINT@Internal@Core@Math@Palmtree@@QEAAXPEAU__tag_NUMBER_HEADER@2345@@Z DD 019930522H
	DD	01H
	DD	imagerel $stateUnwindMap$?DetatchStaticNumber@ResourceHolderUINT@Internal@Core@Math@Palmtree@@QEAAXPEAU__tag_NUMBER_HEADER@2345@@Z
	DD	00H
	DD	00H
	DD	03H
	DD	imagerel $ip2state$?DetatchStaticNumber@ResourceHolderUINT@Internal@Core@Math@Palmtree@@QEAAXPEAU__tag_NUMBER_HEADER@2345@@Z
	DD	020H
	DD	00H
	DD	00H
CONST	ENDS
;	COMDAT xdata
xdata	SEGMENT
$unwind$?DetatchStaticNumber@ResourceHolderUINT@Internal@Core@Math@Palmtree@@QEAAXPEAU__tag_NUMBER_HEADER@2345@@Z DD 061911H
	DD	096419H
	DD	083414H
	DD	070025206H
	DD	imagerel __CxxFrameHandler3
	DD	imagerel $cppxdata$?DetatchStaticNumber@ResourceHolderUINT@Internal@Core@Math@Palmtree@@QEAAXPEAU__tag_NUMBER_HEADER@2345@@Z
xdata	ENDS
;	COMDAT xdata
xdata	SEGMENT
$unwind$?dtor$1@?0??AttatchStaticNumber@ResourceHolderUINT@Internal@Core@Math@Palmtree@@QEAAXPEAU__tag_NUMBER_HEADER@2345@_K@Z@4HA DD 020601H
	DD	050023206H
xdata	ENDS
;	COMDAT xdata
xdata	SEGMENT
$ip2state$?AttatchStaticNumber@ResourceHolderUINT@Internal@Core@Math@Palmtree@@QEAAXPEAU__tag_NUMBER_HEADER@2345@_K@Z DD imagerel ?AttatchStaticNumber@ResourceHolderUINT@Internal@Core@Math@Palmtree@@QEAAXPEAU__tag_NUMBER_HEADER@2345@_K@Z
	DD	0ffffffffH
	DD	imagerel ?AttatchStaticNumber@ResourceHolderUINT@Internal@Core@Math@Palmtree@@QEAAXPEAU__tag_NUMBER_HEADER@2345@_K@Z+48
	DD	00H
	DD	imagerel ?AttatchStaticNumber@ResourceHolderUINT@Internal@Core@Math@Palmtree@@QEAAXPEAU__tag_NUMBER_HEADER@2345@_K@Z+81
	DD	01H
	DD	imagerel ?AttatchStaticNumber@ResourceHolderUINT@Internal@Core@Math@Palmtree@@QEAAXPEAU__tag_NUMBER_HEADER@2345@_K@Z+104
	DD	02H
	DD	imagerel ?AttatchStaticNumber@ResourceHolderUINT@Internal@Core@Math@Palmtree@@QEAAXPEAU__tag_NUMBER_HEADER@2345@_K@Z+118
	DD	01H
	DD	imagerel ?AttatchStaticNumber@ResourceHolderUINT@Internal@Core@Math@Palmtree@@QEAAXPEAU__tag_NUMBER_HEADER@2345@_K@Z+123
	DD	00H
	DD	imagerel ?AttatchStaticNumber@ResourceHolderUINT@Internal@Core@Math@Palmtree@@QEAAXPEAU__tag_NUMBER_HEADER@2345@_K@Z+151
	DD	0ffffffffH
xdata	ENDS
;	COMDAT xdata
xdata	SEGMENT
$stateUnwindMap$?AttatchStaticNumber@ResourceHolderUINT@Internal@Core@Math@Palmtree@@QEAAXPEAU__tag_NUMBER_HEADER@2345@_K@Z DD 0ffffffffH
	DD	imagerel ?dtor$0@?0??AttatchStaticNumber@ResourceHolderUINT@Internal@Core@Math@Palmtree@@QEAAXPEAU__tag_NUMBER_HEADER@2345@_K@Z@4HA
	DD	00H
	DD	imagerel ?dtor$1@?0??AttatchStaticNumber@ResourceHolderUINT@Internal@Core@Math@Palmtree@@QEAAXPEAU__tag_NUMBER_HEADER@2345@_K@Z@4HA
	DD	01H
	DD	imagerel ?dtor$2@?0??AttatchStaticNumber@ResourceHolderUINT@Internal@Core@Math@Palmtree@@QEAAXPEAU__tag_NUMBER_HEADER@2345@_K@Z@4HA
xdata	ENDS
;	COMDAT CONST
CONST	SEGMENT
$cppxdata$?AttatchStaticNumber@ResourceHolderUINT@Internal@Core@Math@Palmtree@@QEAAXPEAU__tag_NUMBER_HEADER@2345@_K@Z DD 019930522H
	DD	03H
	DD	imagerel $stateUnwindMap$?AttatchStaticNumber@ResourceHolderUINT@Internal@Core@Math@Palmtree@@QEAAXPEAU__tag_NUMBER_HEADER@2345@_K@Z
	DD	00H
	DD	00H
	DD	07H
	DD	imagerel $ip2state$?AttatchStaticNumber@ResourceHolderUINT@Internal@Core@Math@Palmtree@@QEAAXPEAU__tag_NUMBER_HEADER@2345@_K@Z
	DD	020H
	DD	00H
	DD	00H
CONST	ENDS
;	COMDAT xdata
xdata	SEGMENT
$unwind$?AttatchStaticNumber@ResourceHolderUINT@Internal@Core@Math@Palmtree@@QEAAXPEAU__tag_NUMBER_HEADER@2345@_K@Z DD 061911H
	DD	0a6419H
	DD	093414H
	DD	070025206H
	DD	imagerel __CxxFrameHandler3
	DD	imagerel $cppxdata$?AttatchStaticNumber@ResourceHolderUINT@Internal@Core@Math@Palmtree@@QEAAXPEAU__tag_NUMBER_HEADER@2345@_K@Z
xdata	ENDS
;	COMDAT xdata
xdata	SEGMENT
$ip2state$?UnlinkNumber@ResourceHolderUINT@Internal@Core@Math@Palmtree@@QEAAXPEAU__tag_NUMBER_HEADER@2345@@Z DD imagerel ?UnlinkNumber@ResourceHolderUINT@Internal@Core@Math@Palmtree@@QEAAXPEAU__tag_NUMBER_HEADER@2345@@Z
	DD	0ffffffffH
	DD	imagerel ?UnlinkNumber@ResourceHolderUINT@Internal@Core@Math@Palmtree@@QEAAXPEAU__tag_NUMBER_HEADER@2345@@Z+44
	DD	00H
	DD	imagerel ?UnlinkNumber@ResourceHolderUINT@Internal@Core@Math@Palmtree@@QEAAXPEAU__tag_NUMBER_HEADER@2345@@Z+128
	DD	0ffffffffH
	DD	imagerel ?UnlinkNumber@ResourceHolderUINT@Internal@Core@Math@Palmtree@@QEAAXPEAU__tag_NUMBER_HEADER@2345@@Z+159
	DD	00H
xdata	ENDS
;	COMDAT xdata
xdata	SEGMENT
$stateUnwindMap$?UnlinkNumber@ResourceHolderUINT@Internal@Core@Math@Palmtree@@QEAAXPEAU__tag_NUMBER_HEADER@2345@@Z DD 0ffffffffH
	DD	imagerel ?dtor$0@?0??UnlinkNumber@ResourceHolderUINT@Internal@Core@Math@Palmtree@@QEAAXPEAU__tag_NUMBER_HEADER@2345@@Z@4HA
xdata	ENDS
;	COMDAT CONST
CONST	SEGMENT
$cppxdata$?UnlinkNumber@ResourceHolderUINT@Internal@Core@Math@Palmtree@@QEAAXPEAU__tag_NUMBER_HEADER@2345@@Z DD 019930522H
	DD	01H
	DD	imagerel $stateUnwindMap$?UnlinkNumber@ResourceHolderUINT@Internal@Core@Math@Palmtree@@QEAAXPEAU__tag_NUMBER_HEADER@2345@@Z
	DD	00H
	DD	00H
	DD	04H
	DD	imagerel $ip2state$?UnlinkNumber@ResourceHolderUINT@Internal@Core@Math@Palmtree@@QEAAXPEAU__tag_NUMBER_HEADER@2345@@Z
	DD	020H
	DD	00H
	DD	00H
CONST	ENDS
;	COMDAT xdata
xdata	SEGMENT
$unwind$?UnlinkNumber@ResourceHolderUINT@Internal@Core@Math@Palmtree@@QEAAXPEAU__tag_NUMBER_HEADER@2345@@Z DD 061811H
	DD	0116418H
	DD	0103414H
	DD	07004d208H
	DD	imagerel __CxxFrameHandler3
	DD	imagerel $cppxdata$?UnlinkNumber@ResourceHolderUINT@Internal@Core@Math@Palmtree@@QEAAXPEAU__tag_NUMBER_HEADER@2345@@Z
xdata	ENDS
;	COMDAT xdata
xdata	SEGMENT
$ip2state$?DeallocateNumber@ResourceHolderUINT@Internal@Core@Math@Palmtree@@QEAAXPEAU__tag_NUMBER_HEADER@2345@@Z DD imagerel ?DeallocateNumber@ResourceHolderUINT@Internal@Core@Math@Palmtree@@QEAAXPEAU__tag_NUMBER_HEADER@2345@@Z
	DD	0ffffffffH
	DD	imagerel ?DeallocateNumber@ResourceHolderUINT@Internal@Core@Math@Palmtree@@QEAAXPEAU__tag_NUMBER_HEADER@2345@@Z+45
	DD	00H
	DD	imagerel ?DeallocateNumber@ResourceHolderUINT@Internal@Core@Math@Palmtree@@QEAAXPEAU__tag_NUMBER_HEADER@2345@@Z+151
	DD	0ffffffffH
xdata	ENDS
;	COMDAT xdata
xdata	SEGMENT
$stateUnwindMap$?DeallocateNumber@ResourceHolderUINT@Internal@Core@Math@Palmtree@@QEAAXPEAU__tag_NUMBER_HEADER@2345@@Z DD 0ffffffffH
	DD	imagerel ?dtor$0@?0??DeallocateNumber@ResourceHolderUINT@Internal@Core@Math@Palmtree@@QEAAXPEAU__tag_NUMBER_HEADER@2345@@Z@4HA
xdata	ENDS
;	COMDAT CONST
CONST	SEGMENT
$cppxdata$?DeallocateNumber@ResourceHolderUINT@Internal@Core@Math@Palmtree@@QEAAXPEAU__tag_NUMBER_HEADER@2345@@Z DD 019930522H
	DD	01H
	DD	imagerel $stateUnwindMap$?DeallocateNumber@ResourceHolderUINT@Internal@Core@Math@Palmtree@@QEAAXPEAU__tag_NUMBER_HEADER@2345@@Z
	DD	00H
	DD	00H
	DD	03H
	DD	imagerel $ip2state$?DeallocateNumber@ResourceHolderUINT@Internal@Core@Math@Palmtree@@QEAAXPEAU__tag_NUMBER_HEADER@2345@@Z
	DD	020H
	DD	00H
	DD	00H
CONST	ENDS
;	COMDAT xdata
xdata	SEGMENT
$unwind$?DeallocateNumber@ResourceHolderUINT@Internal@Core@Math@Palmtree@@QEAAXPEAU__tag_NUMBER_HEADER@2345@@Z DD 061911H
	DD	096419H
	DD	083414H
	DD	070025206H
	DD	imagerel __CxxFrameHandler3
	DD	imagerel $cppxdata$?DeallocateNumber@ResourceHolderUINT@Internal@Core@Math@Palmtree@@QEAAXPEAU__tag_NUMBER_HEADER@2345@@Z
xdata	ENDS
;	COMDAT xdata
xdata	SEGMENT
$unwind$?dtor$1@?0??HookNumber@ResourceHolderUINT@Internal@Core@Math@Palmtree@@QEAAXPEAU__tag_NUMBER_HEADER@2345@@Z@4HA DD 020601H
	DD	050023206H
xdata	ENDS
;	COMDAT xdata
xdata	SEGMENT
$ip2state$?HookNumber@ResourceHolderUINT@Internal@Core@Math@Palmtree@@QEAAXPEAU__tag_NUMBER_HEADER@2345@@Z DD imagerel ?HookNumber@ResourceHolderUINT@Internal@Core@Math@Palmtree@@QEAAXPEAU__tag_NUMBER_HEADER@2345@@Z
	DD	0ffffffffH
	DD	imagerel ?HookNumber@ResourceHolderUINT@Internal@Core@Math@Palmtree@@QEAAXPEAU__tag_NUMBER_HEADER@2345@@Z+40
	DD	00H
	DD	imagerel ?HookNumber@ResourceHolderUINT@Internal@Core@Math@Palmtree@@QEAAXPEAU__tag_NUMBER_HEADER@2345@@Z+58
	DD	01H
	DD	imagerel ?HookNumber@ResourceHolderUINT@Internal@Core@Math@Palmtree@@QEAAXPEAU__tag_NUMBER_HEADER@2345@@Z+81
	DD	02H
	DD	imagerel ?HookNumber@ResourceHolderUINT@Internal@Core@Math@Palmtree@@QEAAXPEAU__tag_NUMBER_HEADER@2345@@Z+95
	DD	01H
	DD	imagerel ?HookNumber@ResourceHolderUINT@Internal@Core@Math@Palmtree@@QEAAXPEAU__tag_NUMBER_HEADER@2345@@Z+100
	DD	00H
	DD	imagerel ?HookNumber@ResourceHolderUINT@Internal@Core@Math@Palmtree@@QEAAXPEAU__tag_NUMBER_HEADER@2345@@Z+128
	DD	0ffffffffH
xdata	ENDS
;	COMDAT xdata
xdata	SEGMENT
$stateUnwindMap$?HookNumber@ResourceHolderUINT@Internal@Core@Math@Palmtree@@QEAAXPEAU__tag_NUMBER_HEADER@2345@@Z DD 0ffffffffH
	DD	imagerel ?dtor$0@?0??HookNumber@ResourceHolderUINT@Internal@Core@Math@Palmtree@@QEAAXPEAU__tag_NUMBER_HEADER@2345@@Z@4HA
	DD	00H
	DD	imagerel ?dtor$1@?0??HookNumber@ResourceHolderUINT@Internal@Core@Math@Palmtree@@QEAAXPEAU__tag_NUMBER_HEADER@2345@@Z@4HA
	DD	01H
	DD	imagerel ?dtor$2@?0??HookNumber@ResourceHolderUINT@Internal@Core@Math@Palmtree@@QEAAXPEAU__tag_NUMBER_HEADER@2345@@Z@4HA
xdata	ENDS
;	COMDAT CONST
CONST	SEGMENT
$cppxdata$?HookNumber@ResourceHolderUINT@Internal@Core@Math@Palmtree@@QEAAXPEAU__tag_NUMBER_HEADER@2345@@Z DD 019930522H
	DD	03H
	DD	imagerel $stateUnwindMap$?HookNumber@ResourceHolderUINT@Internal@Core@Math@Palmtree@@QEAAXPEAU__tag_NUMBER_HEADER@2345@@Z
	DD	00H
	DD	00H
	DD	07H
	DD	imagerel $ip2state$?HookNumber@ResourceHolderUINT@Internal@Core@Math@Palmtree@@QEAAXPEAU__tag_NUMBER_HEADER@2345@@Z
	DD	020H
	DD	00H
	DD	00H
CONST	ENDS
;	COMDAT xdata
xdata	SEGMENT
$unwind$?HookNumber@ResourceHolderUINT@Internal@Core@Math@Palmtree@@QEAAXPEAU__tag_NUMBER_HEADER@2345@@Z DD 041411H
	DD	093414H
	DD	070025206H
	DD	imagerel __CxxFrameHandler3
	DD	imagerel $cppxdata$?HookNumber@ResourceHolderUINT@Internal@Core@Math@Palmtree@@QEAAXPEAU__tag_NUMBER_HEADER@2345@@Z
xdata	ENDS
;	COMDAT xdata
xdata	SEGMENT
$unwind$?dtor$1@?0??AllocateNumber@ResourceHolderUINT@Internal@Core@Math@Palmtree@@QEAAPEAU__tag_NUMBER_HEADER@2345@_K@Z@4HA DD 020601H
	DD	050023206H
xdata	ENDS
;	COMDAT xdata
xdata	SEGMENT
$ip2state$?AllocateNumber@ResourceHolderUINT@Internal@Core@Math@Palmtree@@QEAAPEAU__tag_NUMBER_HEADER@2345@_K@Z DD imagerel ?AllocateNumber@ResourceHolderUINT@Internal@Core@Math@Palmtree@@QEAAPEAU__tag_NUMBER_HEADER@2345@_K@Z
	DD	0ffffffffH
	DD	imagerel ?AllocateNumber@ResourceHolderUINT@Internal@Core@Math@Palmtree@@QEAAPEAU__tag_NUMBER_HEADER@2345@_K@Z+40
	DD	00H
	DD	imagerel ?AllocateNumber@ResourceHolderUINT@Internal@Core@Math@Palmtree@@QEAAPEAU__tag_NUMBER_HEADER@2345@_K@Z+69
	DD	01H
	DD	imagerel ?AllocateNumber@ResourceHolderUINT@Internal@Core@Math@Palmtree@@QEAAPEAU__tag_NUMBER_HEADER@2345@_K@Z+92
	DD	02H
	DD	imagerel ?AllocateNumber@ResourceHolderUINT@Internal@Core@Math@Palmtree@@QEAAPEAU__tag_NUMBER_HEADER@2345@_K@Z+106
	DD	01H
	DD	imagerel ?AllocateNumber@ResourceHolderUINT@Internal@Core@Math@Palmtree@@QEAAPEAU__tag_NUMBER_HEADER@2345@_K@Z+111
	DD	00H
	DD	imagerel ?AllocateNumber@ResourceHolderUINT@Internal@Core@Math@Palmtree@@QEAAPEAU__tag_NUMBER_HEADER@2345@_K@Z+139
	DD	0ffffffffH
xdata	ENDS
;	COMDAT xdata
xdata	SEGMENT
$stateUnwindMap$?AllocateNumber@ResourceHolderUINT@Internal@Core@Math@Palmtree@@QEAAPEAU__tag_NUMBER_HEADER@2345@_K@Z DD 0ffffffffH
	DD	imagerel ?dtor$0@?0??AllocateNumber@ResourceHolderUINT@Internal@Core@Math@Palmtree@@QEAAPEAU__tag_NUMBER_HEADER@2345@_K@Z@4HA
	DD	00H
	DD	imagerel ?dtor$1@?0??AllocateNumber@ResourceHolderUINT@Internal@Core@Math@Palmtree@@QEAAPEAU__tag_NUMBER_HEADER@2345@_K@Z@4HA
	DD	01H
	DD	imagerel ?dtor$2@?0??AllocateNumber@ResourceHolderUINT@Internal@Core@Math@Palmtree@@QEAAPEAU__tag_NUMBER_HEADER@2345@_K@Z@4HA
xdata	ENDS
;	COMDAT CONST
CONST	SEGMENT
$cppxdata$?AllocateNumber@ResourceHolderUINT@Internal@Core@Math@Palmtree@@QEAAPEAU__tag_NUMBER_HEADER@2345@_K@Z DD 019930522H
	DD	03H
	DD	imagerel $stateUnwindMap$?AllocateNumber@ResourceHolderUINT@Internal@Core@Math@Palmtree@@QEAAPEAU__tag_NUMBER_HEADER@2345@_K@Z
	DD	00H
	DD	00H
	DD	07H
	DD	imagerel $ip2state$?AllocateNumber@ResourceHolderUINT@Internal@Core@Math@Palmtree@@QEAAPEAU__tag_NUMBER_HEADER@2345@_K@Z
	DD	020H
	DD	00H
	DD	00H
CONST	ENDS
;	COMDAT xdata
xdata	SEGMENT
$unwind$?AllocateNumber@ResourceHolderUINT@Internal@Core@Math@Palmtree@@QEAAPEAU__tag_NUMBER_HEADER@2345@_K@Z DD 041411H
	DD	093414H
	DD	070025206H
	DD	imagerel __CxxFrameHandler3
	DD	imagerel $cppxdata$?AllocateNumber@ResourceHolderUINT@Internal@Core@Math@Palmtree@@QEAAPEAU__tag_NUMBER_HEADER@2345@_K@Z
xdata	ENDS
;	COMDAT xdata
xdata	SEGMENT
$ip2state$?UnlinkString@ResourceHolderUINT@Internal@Core@Math@Palmtree@@QEAAXPEA_W@Z DD imagerel ?UnlinkString@ResourceHolderUINT@Internal@Core@Math@Palmtree@@QEAAXPEA_W@Z
	DD	0ffffffffH
	DD	imagerel ?UnlinkString@ResourceHolderUINT@Internal@Core@Math@Palmtree@@QEAAXPEA_W@Z+44
	DD	00H
	DD	imagerel ?UnlinkString@ResourceHolderUINT@Internal@Core@Math@Palmtree@@QEAAXPEA_W@Z+128
	DD	0ffffffffH
	DD	imagerel ?UnlinkString@ResourceHolderUINT@Internal@Core@Math@Palmtree@@QEAAXPEA_W@Z+159
	DD	00H
xdata	ENDS
;	COMDAT xdata
xdata	SEGMENT
$stateUnwindMap$?UnlinkString@ResourceHolderUINT@Internal@Core@Math@Palmtree@@QEAAXPEA_W@Z DD 0ffffffffH
	DD	imagerel ?dtor$0@?0??UnlinkString@ResourceHolderUINT@Internal@Core@Math@Palmtree@@QEAAXPEA_W@Z@4HA
xdata	ENDS
;	COMDAT CONST
CONST	SEGMENT
$cppxdata$?UnlinkString@ResourceHolderUINT@Internal@Core@Math@Palmtree@@QEAAXPEA_W@Z DD 019930522H
	DD	01H
	DD	imagerel $stateUnwindMap$?UnlinkString@ResourceHolderUINT@Internal@Core@Math@Palmtree@@QEAAXPEA_W@Z
	DD	00H
	DD	00H
	DD	04H
	DD	imagerel $ip2state$?UnlinkString@ResourceHolderUINT@Internal@Core@Math@Palmtree@@QEAAXPEA_W@Z
	DD	020H
	DD	00H
	DD	00H
CONST	ENDS
;	COMDAT xdata
xdata	SEGMENT
$unwind$?UnlinkString@ResourceHolderUINT@Internal@Core@Math@Palmtree@@QEAAXPEA_W@Z DD 061811H
	DD	0116418H
	DD	0103414H
	DD	07004d208H
	DD	imagerel __CxxFrameHandler3
	DD	imagerel $cppxdata$?UnlinkString@ResourceHolderUINT@Internal@Core@Math@Palmtree@@QEAAXPEA_W@Z
xdata	ENDS
;	COMDAT xdata
xdata	SEGMENT
$ip2state$?DeallocateString@ResourceHolderUINT@Internal@Core@Math@Palmtree@@QEAAXPEA_W@Z DD imagerel ?DeallocateString@ResourceHolderUINT@Internal@Core@Math@Palmtree@@QEAAXPEA_W@Z
	DD	0ffffffffH
	DD	imagerel ?DeallocateString@ResourceHolderUINT@Internal@Core@Math@Palmtree@@QEAAXPEA_W@Z+45
	DD	00H
	DD	imagerel ?DeallocateString@ResourceHolderUINT@Internal@Core@Math@Palmtree@@QEAAXPEA_W@Z+151
	DD	0ffffffffH
xdata	ENDS
;	COMDAT xdata
xdata	SEGMENT
$stateUnwindMap$?DeallocateString@ResourceHolderUINT@Internal@Core@Math@Palmtree@@QEAAXPEA_W@Z DD 0ffffffffH
	DD	imagerel ?dtor$0@?0??DeallocateString@ResourceHolderUINT@Internal@Core@Math@Palmtree@@QEAAXPEA_W@Z@4HA
xdata	ENDS
;	COMDAT CONST
CONST	SEGMENT
$cppxdata$?DeallocateString@ResourceHolderUINT@Internal@Core@Math@Palmtree@@QEAAXPEA_W@Z DD 019930522H
	DD	01H
	DD	imagerel $stateUnwindMap$?DeallocateString@ResourceHolderUINT@Internal@Core@Math@Palmtree@@QEAAXPEA_W@Z
	DD	00H
	DD	00H
	DD	03H
	DD	imagerel $ip2state$?DeallocateString@ResourceHolderUINT@Internal@Core@Math@Palmtree@@QEAAXPEA_W@Z
	DD	020H
	DD	00H
	DD	00H
CONST	ENDS
;	COMDAT xdata
xdata	SEGMENT
$unwind$?DeallocateString@ResourceHolderUINT@Internal@Core@Math@Palmtree@@QEAAXPEA_W@Z DD 061911H
	DD	096419H
	DD	083414H
	DD	070025206H
	DD	imagerel __CxxFrameHandler3
	DD	imagerel $cppxdata$?DeallocateString@ResourceHolderUINT@Internal@Core@Math@Palmtree@@QEAAXPEA_W@Z
xdata	ENDS
;	COMDAT xdata
xdata	SEGMENT
$ip2state$?ClearString@ResourceHolderUINT@Internal@Core@Math@Palmtree@@QEAAXPEA_W@Z DD imagerel ?ClearString@ResourceHolderUINT@Internal@Core@Math@Palmtree@@QEAAXPEA_W@Z
	DD	0ffffffffH
	DD	imagerel ?ClearString@ResourceHolderUINT@Internal@Core@Math@Palmtree@@QEAAXPEA_W@Z+44
	DD	00H
	DD	imagerel ?ClearString@ResourceHolderUINT@Internal@Core@Math@Palmtree@@QEAAXPEA_W@Z+101
	DD	0ffffffffH
	DD	imagerel ?ClearString@ResourceHolderUINT@Internal@Core@Math@Palmtree@@QEAAXPEA_W@Z+132
	DD	00H
xdata	ENDS
;	COMDAT xdata
xdata	SEGMENT
$stateUnwindMap$?ClearString@ResourceHolderUINT@Internal@Core@Math@Palmtree@@QEAAXPEA_W@Z DD 0ffffffffH
	DD	imagerel ?dtor$0@?0??ClearString@ResourceHolderUINT@Internal@Core@Math@Palmtree@@QEAAXPEA_W@Z@4HA
xdata	ENDS
;	COMDAT CONST
CONST	SEGMENT
$cppxdata$?ClearString@ResourceHolderUINT@Internal@Core@Math@Palmtree@@QEAAXPEA_W@Z DD 019930522H
	DD	01H
	DD	imagerel $stateUnwindMap$?ClearString@ResourceHolderUINT@Internal@Core@Math@Palmtree@@QEAAXPEA_W@Z
	DD	00H
	DD	00H
	DD	04H
	DD	imagerel $ip2state$?ClearString@ResourceHolderUINT@Internal@Core@Math@Palmtree@@QEAAXPEA_W@Z
	DD	020H
	DD	00H
	DD	00H
CONST	ENDS
;	COMDAT xdata
xdata	SEGMENT
$unwind$?ClearString@ResourceHolderUINT@Internal@Core@Math@Palmtree@@QEAAXPEA_W@Z DD 061811H
	DD	0116418H
	DD	0103414H
	DD	07004d208H
	DD	imagerel __CxxFrameHandler3
	DD	imagerel $cppxdata$?ClearString@ResourceHolderUINT@Internal@Core@Math@Palmtree@@QEAAXPEA_W@Z
xdata	ENDS
;	COMDAT xdata
xdata	SEGMENT
$unwind$?dtor$1@?0??AllocateString@ResourceHolderUINT@Internal@Core@Math@Palmtree@@QEAAPEA_W_K@Z@4HA DD 020601H
	DD	050023206H
xdata	ENDS
;	COMDAT xdata
xdata	SEGMENT
$ip2state$?AllocateString@ResourceHolderUINT@Internal@Core@Math@Palmtree@@QEAAPEA_W_K@Z DD imagerel ?AllocateString@ResourceHolderUINT@Internal@Core@Math@Palmtree@@QEAAPEA_W_K@Z
	DD	0ffffffffH
	DD	imagerel ?AllocateString@ResourceHolderUINT@Internal@Core@Math@Palmtree@@QEAAPEA_W_K@Z+48
	DD	00H
	DD	imagerel ?AllocateString@ResourceHolderUINT@Internal@Core@Math@Palmtree@@QEAAPEA_W_K@Z+126
	DD	01H
	DD	imagerel ?AllocateString@ResourceHolderUINT@Internal@Core@Math@Palmtree@@QEAAPEA_W_K@Z+149
	DD	02H
	DD	imagerel ?AllocateString@ResourceHolderUINT@Internal@Core@Math@Palmtree@@QEAAPEA_W_K@Z+175
	DD	00H
	DD	imagerel ?AllocateString@ResourceHolderUINT@Internal@Core@Math@Palmtree@@QEAAPEA_W_K@Z+203
	DD	0ffffffffH
	DD	imagerel ?AllocateString@ResourceHolderUINT@Internal@Core@Math@Palmtree@@QEAAPEA_W_K@Z+238
	DD	00H
xdata	ENDS
;	COMDAT xdata
xdata	SEGMENT
$stateUnwindMap$?AllocateString@ResourceHolderUINT@Internal@Core@Math@Palmtree@@QEAAPEA_W_K@Z DD 0ffffffffH
	DD	imagerel ?dtor$0@?0??AllocateString@ResourceHolderUINT@Internal@Core@Math@Palmtree@@QEAAPEA_W_K@Z@4HA
	DD	00H
	DD	imagerel ?dtor$1@?0??AllocateString@ResourceHolderUINT@Internal@Core@Math@Palmtree@@QEAAPEA_W_K@Z@4HA
	DD	01H
	DD	imagerel ?dtor$2@?0??AllocateString@ResourceHolderUINT@Internal@Core@Math@Palmtree@@QEAAPEA_W_K@Z@4HA
xdata	ENDS
;	COMDAT CONST
CONST	SEGMENT
$cppxdata$?AllocateString@ResourceHolderUINT@Internal@Core@Math@Palmtree@@QEAAPEA_W_K@Z DD 019930522H
	DD	03H
	DD	imagerel $stateUnwindMap$?AllocateString@ResourceHolderUINT@Internal@Core@Math@Palmtree@@QEAAPEA_W_K@Z
	DD	00H
	DD	00H
	DD	07H
	DD	imagerel $ip2state$?AllocateString@ResourceHolderUINT@Internal@Core@Math@Palmtree@@QEAAPEA_W_K@Z
	DD	020H
	DD	00H
	DD	00H
CONST	ENDS
;	COMDAT xdata
xdata	SEGMENT
$unwind$?AllocateString@ResourceHolderUINT@Internal@Core@Math@Palmtree@@QEAAPEA_W_K@Z DD 061c11H
	DD	010641cH
	DD	0e3414H
	DD	07002b206H
	DD	imagerel __CxxFrameHandler3
	DD	imagerel $cppxdata$?AllocateString@ResourceHolderUINT@Internal@Core@Math@Palmtree@@QEAAPEA_W_K@Z
xdata	ENDS
;	COMDAT xdata
xdata	SEGMENT
$ip2state$?UnlinkBlock@ResourceHolderUINT@Internal@Core@Math@Palmtree@@QEAAXPEA_K@Z DD imagerel ?UnlinkBlock@ResourceHolderUINT@Internal@Core@Math@Palmtree@@QEAAXPEA_K@Z
	DD	0ffffffffH
	DD	imagerel ?UnlinkBlock@ResourceHolderUINT@Internal@Core@Math@Palmtree@@QEAAXPEA_K@Z+44
	DD	00H
	DD	imagerel ?UnlinkBlock@ResourceHolderUINT@Internal@Core@Math@Palmtree@@QEAAXPEA_K@Z+128
	DD	0ffffffffH
	DD	imagerel ?UnlinkBlock@ResourceHolderUINT@Internal@Core@Math@Palmtree@@QEAAXPEA_K@Z+159
	DD	00H
xdata	ENDS
;	COMDAT xdata
xdata	SEGMENT
$stateUnwindMap$?UnlinkBlock@ResourceHolderUINT@Internal@Core@Math@Palmtree@@QEAAXPEA_K@Z DD 0ffffffffH
	DD	imagerel ?dtor$0@?0??UnlinkBlock@ResourceHolderUINT@Internal@Core@Math@Palmtree@@QEAAXPEA_K@Z@4HA
xdata	ENDS
;	COMDAT CONST
CONST	SEGMENT
$cppxdata$?UnlinkBlock@ResourceHolderUINT@Internal@Core@Math@Palmtree@@QEAAXPEA_K@Z DD 019930522H
	DD	01H
	DD	imagerel $stateUnwindMap$?UnlinkBlock@ResourceHolderUINT@Internal@Core@Math@Palmtree@@QEAAXPEA_K@Z
	DD	00H
	DD	00H
	DD	04H
	DD	imagerel $ip2state$?UnlinkBlock@ResourceHolderUINT@Internal@Core@Math@Palmtree@@QEAAXPEA_K@Z
	DD	020H
	DD	00H
	DD	00H
CONST	ENDS
;	COMDAT xdata
xdata	SEGMENT
$unwind$?UnlinkBlock@ResourceHolderUINT@Internal@Core@Math@Palmtree@@QEAAXPEA_K@Z DD 061811H
	DD	0116418H
	DD	0103414H
	DD	07004d208H
	DD	imagerel __CxxFrameHandler3
	DD	imagerel $cppxdata$?UnlinkBlock@ResourceHolderUINT@Internal@Core@Math@Palmtree@@QEAAXPEA_K@Z
xdata	ENDS
;	COMDAT xdata
xdata	SEGMENT
$ip2state$?DeallocateBlock@ResourceHolderUINT@Internal@Core@Math@Palmtree@@QEAAXPEA_K@Z DD imagerel ?DeallocateBlock@ResourceHolderUINT@Internal@Core@Math@Palmtree@@QEAAXPEA_K@Z
	DD	0ffffffffH
	DD	imagerel ?DeallocateBlock@ResourceHolderUINT@Internal@Core@Math@Palmtree@@QEAAXPEA_K@Z+45
	DD	00H
	DD	imagerel ?DeallocateBlock@ResourceHolderUINT@Internal@Core@Math@Palmtree@@QEAAXPEA_K@Z+151
	DD	0ffffffffH
xdata	ENDS
;	COMDAT xdata
xdata	SEGMENT
$stateUnwindMap$?DeallocateBlock@ResourceHolderUINT@Internal@Core@Math@Palmtree@@QEAAXPEA_K@Z DD 0ffffffffH
	DD	imagerel ?dtor$0@?0??DeallocateBlock@ResourceHolderUINT@Internal@Core@Math@Palmtree@@QEAAXPEA_K@Z@4HA
xdata	ENDS
;	COMDAT CONST
CONST	SEGMENT
$cppxdata$?DeallocateBlock@ResourceHolderUINT@Internal@Core@Math@Palmtree@@QEAAXPEA_K@Z DD 019930522H
	DD	01H
	DD	imagerel $stateUnwindMap$?DeallocateBlock@ResourceHolderUINT@Internal@Core@Math@Palmtree@@QEAAXPEA_K@Z
	DD	00H
	DD	00H
	DD	03H
	DD	imagerel $ip2state$?DeallocateBlock@ResourceHolderUINT@Internal@Core@Math@Palmtree@@QEAAXPEA_K@Z
	DD	020H
	DD	00H
	DD	00H
CONST	ENDS
;	COMDAT xdata
xdata	SEGMENT
$unwind$?DeallocateBlock@ResourceHolderUINT@Internal@Core@Math@Palmtree@@QEAAXPEA_K@Z DD 061911H
	DD	096419H
	DD	083414H
	DD	070025206H
	DD	imagerel __CxxFrameHandler3
	DD	imagerel $cppxdata$?DeallocateBlock@ResourceHolderUINT@Internal@Core@Math@Palmtree@@QEAAXPEA_K@Z
xdata	ENDS
;	COMDAT xdata
xdata	SEGMENT
$ip2state$?ClearBlock@ResourceHolderUINT@Internal@Core@Math@Palmtree@@QEAAXPEA_K@Z DD imagerel ?ClearBlock@ResourceHolderUINT@Internal@Core@Math@Palmtree@@QEAAXPEA_K@Z
	DD	0ffffffffH
	DD	imagerel ?ClearBlock@ResourceHolderUINT@Internal@Core@Math@Palmtree@@QEAAXPEA_K@Z+44
	DD	00H
	DD	imagerel ?ClearBlock@ResourceHolderUINT@Internal@Core@Math@Palmtree@@QEAAXPEA_K@Z+101
	DD	0ffffffffH
	DD	imagerel ?ClearBlock@ResourceHolderUINT@Internal@Core@Math@Palmtree@@QEAAXPEA_K@Z+132
	DD	00H
xdata	ENDS
;	COMDAT xdata
xdata	SEGMENT
$stateUnwindMap$?ClearBlock@ResourceHolderUINT@Internal@Core@Math@Palmtree@@QEAAXPEA_K@Z DD 0ffffffffH
	DD	imagerel ?dtor$0@?0??ClearBlock@ResourceHolderUINT@Internal@Core@Math@Palmtree@@QEAAXPEA_K@Z@4HA
xdata	ENDS
;	COMDAT CONST
CONST	SEGMENT
$cppxdata$?ClearBlock@ResourceHolderUINT@Internal@Core@Math@Palmtree@@QEAAXPEA_K@Z DD 019930522H
	DD	01H
	DD	imagerel $stateUnwindMap$?ClearBlock@ResourceHolderUINT@Internal@Core@Math@Palmtree@@QEAAXPEA_K@Z
	DD	00H
	DD	00H
	DD	04H
	DD	imagerel $ip2state$?ClearBlock@ResourceHolderUINT@Internal@Core@Math@Palmtree@@QEAAXPEA_K@Z
	DD	020H
	DD	00H
	DD	00H
CONST	ENDS
;	COMDAT xdata
xdata	SEGMENT
$unwind$?ClearBlock@ResourceHolderUINT@Internal@Core@Math@Palmtree@@QEAAXPEA_K@Z DD 061811H
	DD	0116418H
	DD	0103414H
	DD	07004d208H
	DD	imagerel __CxxFrameHandler3
	DD	imagerel $cppxdata$?ClearBlock@ResourceHolderUINT@Internal@Core@Math@Palmtree@@QEAAXPEA_K@Z
xdata	ENDS
;	COMDAT xdata
xdata	SEGMENT
$unwind$?dtor$1@?0??AllocateBlock@ResourceHolderUINT@Internal@Core@Math@Palmtree@@QEAAPEA_K_K@Z@4HA DD 020601H
	DD	050023206H
xdata	ENDS
;	COMDAT xdata
xdata	SEGMENT
$ip2state$?AllocateBlock@ResourceHolderUINT@Internal@Core@Math@Palmtree@@QEAAPEA_K_K@Z DD imagerel ?AllocateBlock@ResourceHolderUINT@Internal@Core@Math@Palmtree@@QEAAPEA_K_K@Z
	DD	0ffffffffH
	DD	imagerel ?AllocateBlock@ResourceHolderUINT@Internal@Core@Math@Palmtree@@QEAAPEA_K_K@Z+48
	DD	00H
	DD	imagerel ?AllocateBlock@ResourceHolderUINT@Internal@Core@Math@Palmtree@@QEAAPEA_K_K@Z+122
	DD	01H
	DD	imagerel ?AllocateBlock@ResourceHolderUINT@Internal@Core@Math@Palmtree@@QEAAPEA_K_K@Z+145
	DD	02H
	DD	imagerel ?AllocateBlock@ResourceHolderUINT@Internal@Core@Math@Palmtree@@QEAAPEA_K_K@Z+171
	DD	00H
	DD	imagerel ?AllocateBlock@ResourceHolderUINT@Internal@Core@Math@Palmtree@@QEAAPEA_K_K@Z+199
	DD	0ffffffffH
	DD	imagerel ?AllocateBlock@ResourceHolderUINT@Internal@Core@Math@Palmtree@@QEAAPEA_K_K@Z+234
	DD	00H
xdata	ENDS
;	COMDAT xdata
xdata	SEGMENT
$stateUnwindMap$?AllocateBlock@ResourceHolderUINT@Internal@Core@Math@Palmtree@@QEAAPEA_K_K@Z DD 0ffffffffH
	DD	imagerel ?dtor$0@?0??AllocateBlock@ResourceHolderUINT@Internal@Core@Math@Palmtree@@QEAAPEA_K_K@Z@4HA
	DD	00H
	DD	imagerel ?dtor$1@?0??AllocateBlock@ResourceHolderUINT@Internal@Core@Math@Palmtree@@QEAAPEA_K_K@Z@4HA
	DD	01H
	DD	imagerel ?dtor$2@?0??AllocateBlock@ResourceHolderUINT@Internal@Core@Math@Palmtree@@QEAAPEA_K_K@Z@4HA
xdata	ENDS
;	COMDAT CONST
CONST	SEGMENT
$cppxdata$?AllocateBlock@ResourceHolderUINT@Internal@Core@Math@Palmtree@@QEAAPEA_K_K@Z DD 019930522H
	DD	03H
	DD	imagerel $stateUnwindMap$?AllocateBlock@ResourceHolderUINT@Internal@Core@Math@Palmtree@@QEAAPEA_K_K@Z
	DD	00H
	DD	00H
	DD	07H
	DD	imagerel $ip2state$?AllocateBlock@ResourceHolderUINT@Internal@Core@Math@Palmtree@@QEAAPEA_K_K@Z
	DD	020H
	DD	00H
	DD	00H
CONST	ENDS
;	COMDAT xdata
xdata	SEGMENT
$unwind$?AllocateBlock@ResourceHolderUINT@Internal@Core@Math@Palmtree@@QEAAPEA_K_K@Z DD 061c11H
	DD	010641cH
	DD	0e3414H
	DD	07002b206H
	DD	imagerel __CxxFrameHandler3
	DD	imagerel $cppxdata$?AllocateBlock@ResourceHolderUINT@Internal@Core@Math@Palmtree@@QEAAPEA_K_K@Z
xdata	ENDS
;	COMDAT xdata
xdata	SEGMENT
$ip2state$?UnlinkBytes@ResourceHolderUINT@Internal@Core@Math@Palmtree@@QEAAXPEAX@Z DD imagerel ?UnlinkBytes@ResourceHolderUINT@Internal@Core@Math@Palmtree@@QEAAXPEAX@Z
	DD	0ffffffffH
	DD	imagerel ?UnlinkBytes@ResourceHolderUINT@Internal@Core@Math@Palmtree@@QEAAXPEAX@Z+44
	DD	00H
	DD	imagerel ?UnlinkBytes@ResourceHolderUINT@Internal@Core@Math@Palmtree@@QEAAXPEAX@Z+128
	DD	0ffffffffH
	DD	imagerel ?UnlinkBytes@ResourceHolderUINT@Internal@Core@Math@Palmtree@@QEAAXPEAX@Z+159
	DD	00H
xdata	ENDS
;	COMDAT xdata
xdata	SEGMENT
$stateUnwindMap$?UnlinkBytes@ResourceHolderUINT@Internal@Core@Math@Palmtree@@QEAAXPEAX@Z DD 0ffffffffH
	DD	imagerel ?dtor$0@?0??UnlinkBytes@ResourceHolderUINT@Internal@Core@Math@Palmtree@@QEAAXPEAX@Z@4HA
xdata	ENDS
;	COMDAT CONST
CONST	SEGMENT
$cppxdata$?UnlinkBytes@ResourceHolderUINT@Internal@Core@Math@Palmtree@@QEAAXPEAX@Z DD 019930522H
	DD	01H
	DD	imagerel $stateUnwindMap$?UnlinkBytes@ResourceHolderUINT@Internal@Core@Math@Palmtree@@QEAAXPEAX@Z
	DD	00H
	DD	00H
	DD	04H
	DD	imagerel $ip2state$?UnlinkBytes@ResourceHolderUINT@Internal@Core@Math@Palmtree@@QEAAXPEAX@Z
	DD	020H
	DD	00H
	DD	00H
CONST	ENDS
;	COMDAT xdata
xdata	SEGMENT
$unwind$?UnlinkBytes@ResourceHolderUINT@Internal@Core@Math@Palmtree@@QEAAXPEAX@Z DD 061811H
	DD	0116418H
	DD	0103414H
	DD	07004d208H
	DD	imagerel __CxxFrameHandler3
	DD	imagerel $cppxdata$?UnlinkBytes@ResourceHolderUINT@Internal@Core@Math@Palmtree@@QEAAXPEAX@Z
xdata	ENDS
;	COMDAT xdata
xdata	SEGMENT
$ip2state$?DeallocateBytes@ResourceHolderUINT@Internal@Core@Math@Palmtree@@QEAAXPEAX@Z DD imagerel ?DeallocateBytes@ResourceHolderUINT@Internal@Core@Math@Palmtree@@QEAAXPEAX@Z
	DD	0ffffffffH
	DD	imagerel ?DeallocateBytes@ResourceHolderUINT@Internal@Core@Math@Palmtree@@QEAAXPEAX@Z+45
	DD	00H
	DD	imagerel ?DeallocateBytes@ResourceHolderUINT@Internal@Core@Math@Palmtree@@QEAAXPEAX@Z+151
	DD	0ffffffffH
xdata	ENDS
;	COMDAT xdata
xdata	SEGMENT
$stateUnwindMap$?DeallocateBytes@ResourceHolderUINT@Internal@Core@Math@Palmtree@@QEAAXPEAX@Z DD 0ffffffffH
	DD	imagerel ?dtor$0@?0??DeallocateBytes@ResourceHolderUINT@Internal@Core@Math@Palmtree@@QEAAXPEAX@Z@4HA
xdata	ENDS
;	COMDAT CONST
CONST	SEGMENT
$cppxdata$?DeallocateBytes@ResourceHolderUINT@Internal@Core@Math@Palmtree@@QEAAXPEAX@Z DD 019930522H
	DD	01H
	DD	imagerel $stateUnwindMap$?DeallocateBytes@ResourceHolderUINT@Internal@Core@Math@Palmtree@@QEAAXPEAX@Z
	DD	00H
	DD	00H
	DD	03H
	DD	imagerel $ip2state$?DeallocateBytes@ResourceHolderUINT@Internal@Core@Math@Palmtree@@QEAAXPEAX@Z
	DD	020H
	DD	00H
	DD	00H
CONST	ENDS
;	COMDAT xdata
xdata	SEGMENT
$unwind$?DeallocateBytes@ResourceHolderUINT@Internal@Core@Math@Palmtree@@QEAAXPEAX@Z DD 061911H
	DD	096419H
	DD	083414H
	DD	070025206H
	DD	imagerel __CxxFrameHandler3
	DD	imagerel $cppxdata$?DeallocateBytes@ResourceHolderUINT@Internal@Core@Math@Palmtree@@QEAAXPEAX@Z
xdata	ENDS
;	COMDAT xdata
xdata	SEGMENT
$unwind$?dtor$1@?0??AllocateBytes@ResourceHolderUINT@Internal@Core@Math@Palmtree@@QEAAPEAX_K@Z@4HA DD 020601H
	DD	050023206H
xdata	ENDS
;	COMDAT xdata
xdata	SEGMENT
$ip2state$?AllocateBytes@ResourceHolderUINT@Internal@Core@Math@Palmtree@@QEAAPEAX_K@Z DD imagerel ?AllocateBytes@ResourceHolderUINT@Internal@Core@Math@Palmtree@@QEAAPEAX_K@Z
	DD	0ffffffffH
	DD	imagerel ?AllocateBytes@ResourceHolderUINT@Internal@Core@Math@Palmtree@@QEAAPEAX_K@Z+40
	DD	00H
	DD	imagerel ?AllocateBytes@ResourceHolderUINT@Internal@Core@Math@Palmtree@@QEAAPEAX_K@Z+90
	DD	01H
	DD	imagerel ?AllocateBytes@ResourceHolderUINT@Internal@Core@Math@Palmtree@@QEAAPEAX_K@Z+113
	DD	02H
	DD	imagerel ?AllocateBytes@ResourceHolderUINT@Internal@Core@Math@Palmtree@@QEAAPEAX_K@Z+127
	DD	01H
	DD	imagerel ?AllocateBytes@ResourceHolderUINT@Internal@Core@Math@Palmtree@@QEAAPEAX_K@Z+131
	DD	00H
	DD	imagerel ?AllocateBytes@ResourceHolderUINT@Internal@Core@Math@Palmtree@@QEAAPEAX_K@Z+159
	DD	0ffffffffH
	DD	imagerel ?AllocateBytes@ResourceHolderUINT@Internal@Core@Math@Palmtree@@QEAAPEAX_K@Z+186
	DD	00H
xdata	ENDS
;	COMDAT xdata
xdata	SEGMENT
$stateUnwindMap$?AllocateBytes@ResourceHolderUINT@Internal@Core@Math@Palmtree@@QEAAPEAX_K@Z DD 0ffffffffH
	DD	imagerel ?dtor$0@?0??AllocateBytes@ResourceHolderUINT@Internal@Core@Math@Palmtree@@QEAAPEAX_K@Z@4HA
	DD	00H
	DD	imagerel ?dtor$1@?0??AllocateBytes@ResourceHolderUINT@Internal@Core@Math@Palmtree@@QEAAPEAX_K@Z@4HA
	DD	01H
	DD	imagerel ?dtor$2@?0??AllocateBytes@ResourceHolderUINT@Internal@Core@Math@Palmtree@@QEAAPEAX_K@Z@4HA
xdata	ENDS
;	COMDAT CONST
CONST	SEGMENT
$cppxdata$?AllocateBytes@ResourceHolderUINT@Internal@Core@Math@Palmtree@@QEAAPEAX_K@Z DD 019930522H
	DD	03H
	DD	imagerel $stateUnwindMap$?AllocateBytes@ResourceHolderUINT@Internal@Core@Math@Palmtree@@QEAAPEAX_K@Z
	DD	00H
	DD	00H
	DD	08H
	DD	imagerel $ip2state$?AllocateBytes@ResourceHolderUINT@Internal@Core@Math@Palmtree@@QEAAPEAX_K@Z
	DD	020H
	DD	00H
	DD	00H
CONST	ENDS
;	COMDAT xdata
xdata	SEGMENT
$unwind$?AllocateBytes@ResourceHolderUINT@Internal@Core@Math@Palmtree@@QEAAPEAX_K@Z DD 041411H
	DD	0e3414H
	DD	07002b206H
	DD	imagerel __CxxFrameHandler3
	DD	imagerel $cppxdata$?AllocateBytes@ResourceHolderUINT@Internal@Core@Math@Palmtree@@QEAAPEAX_K@Z
xdata	ENDS
;	COMDAT xdata
xdata	SEGMENT
$ip2state$??1ResourceHolderUINT@Internal@Core@Math@Palmtree@@UEAA@XZ DD imagerel ??1ResourceHolderUINT@Internal@Core@Math@Palmtree@@UEAA@XZ
	DD	0ffffffffH
xdata	ENDS
;	COMDAT xdata
xdata	SEGMENT
$stateUnwindMap$??1ResourceHolderUINT@Internal@Core@Math@Palmtree@@UEAA@XZ DD 0ffffffffH
	DD	imagerel ?dtor$0@?0???1ResourceHolderUINT@Internal@Core@Math@Palmtree@@UEAA@XZ@4HA
xdata	ENDS
;	COMDAT CONST
CONST	SEGMENT
$cppxdata$??1ResourceHolderUINT@Internal@Core@Math@Palmtree@@UEAA@XZ DD 019930522H
	DD	01H
	DD	imagerel $stateUnwindMap$??1ResourceHolderUINT@Internal@Core@Math@Palmtree@@UEAA@XZ
	DD	00H
	DD	00H
	DD	01H
	DD	imagerel $ip2state$??1ResourceHolderUINT@Internal@Core@Math@Palmtree@@UEAA@XZ
	DD	020H
	DD	00H
	DD	04H
CONST	ENDS
;	COMDAT xdata
xdata	SEGMENT
$unwind$??1ResourceHolderUINT@Internal@Core@Math@Palmtree@@UEAA@XZ DD 011211H
	DD	06209H
	DD	imagerel __CxxFrameHandler3
	DD	imagerel $cppxdata$??1ResourceHolderUINT@Internal@Core@Math@Palmtree@@UEAA@XZ
xdata	ENDS
;	COMDAT xdata
xdata	SEGMENT
$ip2state$??0ResourceHolderUINT@Internal@Core@Math@Palmtree@@QEAA@XZ DD imagerel ??0ResourceHolderUINT@Internal@Core@Math@Palmtree@@QEAA@XZ
	DD	0ffffffffH
	DD	imagerel ??0ResourceHolderUINT@Internal@Core@Math@Palmtree@@QEAA@XZ+54
	DD	00H
	DD	imagerel ??0ResourceHolderUINT@Internal@Core@Math@Palmtree@@QEAA@XZ+64
	DD	02H
	DD	imagerel ??0ResourceHolderUINT@Internal@Core@Math@Palmtree@@QEAA@XZ+74
	DD	0ffffffffH
xdata	ENDS
;	COMDAT xdata
xdata	SEGMENT
$stateUnwindMap$??0ResourceHolderUINT@Internal@Core@Math@Palmtree@@QEAA@XZ DD 0ffffffffH
	DD	imagerel ?dtor$2@?0???0ResourceHolderUINT@Internal@Core@Math@Palmtree@@QEAA@XZ@4HA
	DD	0ffffffffH
	DD	imagerel ?dtor$1@?0???0ResourceHolderUINT@Internal@Core@Math@Palmtree@@QEAA@XZ@4HA
	DD	0ffffffffH
	DD	imagerel ?dtor$0@?0???0ResourceHolderUINT@Internal@Core@Math@Palmtree@@QEAA@XZ@4HA
xdata	ENDS
;	COMDAT CONST
CONST	SEGMENT
$cppxdata$??0ResourceHolderUINT@Internal@Core@Math@Palmtree@@QEAA@XZ DD 019930522H
	DD	03H
	DD	imagerel $stateUnwindMap$??0ResourceHolderUINT@Internal@Core@Math@Palmtree@@QEAA@XZ
	DD	00H
	DD	00H
	DD	04H
	DD	imagerel $ip2state$??0ResourceHolderUINT@Internal@Core@Math@Palmtree@@QEAA@XZ
	DD	00H
	DD	00H
	DD	00H
CONST	ENDS
;	COMDAT xdata
xdata	SEGMENT
$unwind$??0ResourceHolderUINT@Internal@Core@Math@Palmtree@@QEAA@XZ DD 011111H
	DD	02209H
	DD	imagerel __CxxFrameHandler3
	DD	imagerel $cppxdata$??0ResourceHolderUINT@Internal@Core@Math@Palmtree@@QEAA@XZ
xdata	ENDS
;	COMDAT xdata
xdata	SEGMENT
$ip2state$??_G__StaticNumberChainBufferTag@ResourceHolderUINT@Internal@Core@Math@Palmtree@@UEAAPEAXI@Z DD imagerel ??_G__StaticNumberChainBufferTag@ResourceHolderUINT@Internal@Core@Math@Palmtree@@UEAAPEAXI@Z
	DD	0ffffffffH
xdata	ENDS
;	COMDAT xdata
xdata	SEGMENT
$stateUnwindMap$??_G__StaticNumberChainBufferTag@ResourceHolderUINT@Internal@Core@Math@Palmtree@@UEAAPEAXI@Z DD 0ffffffffH
	DD	imagerel ?dtor$0@?0???_G__StaticNumberChainBufferTag@ResourceHolderUINT@Internal@Core@Math@Palmtree@@UEAAPEAXI@Z@4HA
xdata	ENDS
;	COMDAT CONST
CONST	SEGMENT
$cppxdata$??_G__StaticNumberChainBufferTag@ResourceHolderUINT@Internal@Core@Math@Palmtree@@UEAAPEAXI@Z DD 019930522H
	DD	01H
	DD	imagerel $stateUnwindMap$??_G__StaticNumberChainBufferTag@ResourceHolderUINT@Internal@Core@Math@Palmtree@@UEAAPEAXI@Z
	DD	00H
	DD	00H
	DD	01H
	DD	imagerel $ip2state$??_G__StaticNumberChainBufferTag@ResourceHolderUINT@Internal@Core@Math@Palmtree@@UEAAPEAXI@Z
	DD	020H
	DD	00H
	DD	04H
CONST	ENDS
;	COMDAT xdata
xdata	SEGMENT
$unwind$??_G__StaticNumberChainBufferTag@ResourceHolderUINT@Internal@Core@Math@Palmtree@@UEAAPEAXI@Z DD 021311H
	DD	03006520aH
	DD	imagerel __CxxFrameHandler3
	DD	imagerel $cppxdata$??_G__StaticNumberChainBufferTag@ResourceHolderUINT@Internal@Core@Math@Palmtree@@UEAAPEAXI@Z
xdata	ENDS
;	COMDAT xdata
xdata	SEGMENT
$ip2state$??1__StaticNumberChainBufferTag@ResourceHolderUINT@Internal@Core@Math@Palmtree@@UEAA@XZ DD imagerel ??1__StaticNumberChainBufferTag@ResourceHolderUINT@Internal@Core@Math@Palmtree@@UEAA@XZ
	DD	0ffffffffH
xdata	ENDS
;	COMDAT xdata
xdata	SEGMENT
$stateUnwindMap$??1__StaticNumberChainBufferTag@ResourceHolderUINT@Internal@Core@Math@Palmtree@@UEAA@XZ DD 0ffffffffH
	DD	imagerel ?dtor$0@?0???1__StaticNumberChainBufferTag@ResourceHolderUINT@Internal@Core@Math@Palmtree@@UEAA@XZ@4HA
xdata	ENDS
;	COMDAT CONST
CONST	SEGMENT
$cppxdata$??1__StaticNumberChainBufferTag@ResourceHolderUINT@Internal@Core@Math@Palmtree@@UEAA@XZ DD 019930522H
	DD	01H
	DD	imagerel $stateUnwindMap$??1__StaticNumberChainBufferTag@ResourceHolderUINT@Internal@Core@Math@Palmtree@@UEAA@XZ
	DD	00H
	DD	00H
	DD	01H
	DD	imagerel $ip2state$??1__StaticNumberChainBufferTag@ResourceHolderUINT@Internal@Core@Math@Palmtree@@UEAA@XZ
	DD	00H
	DD	00H
	DD	04H
CONST	ENDS
;	COMDAT xdata
xdata	SEGMENT
$unwind$??1__StaticNumberChainBufferTag@ResourceHolderUINT@Internal@Core@Math@Palmtree@@UEAA@XZ DD 011111H
	DD	02209H
	DD	imagerel __CxxFrameHandler3
	DD	imagerel $cppxdata$??1__StaticNumberChainBufferTag@ResourceHolderUINT@Internal@Core@Math@Palmtree@@UEAA@XZ
xdata	ENDS
;	COMDAT xdata
xdata	SEGMENT
$ip2state$??0__StaticNumberChainBufferTag@ResourceHolderUINT@Internal@Core@Math@Palmtree@@QEAA@PEAU__tag_NUMBER_HEADER@2345@@Z DD imagerel ??0__StaticNumberChainBufferTag@ResourceHolderUINT@Internal@Core@Math@Palmtree@@QEAA@PEAU__tag_NUMBER_HEADER@2345@@Z
	DD	0ffffffffH
	DD	imagerel ??0__StaticNumberChainBufferTag@ResourceHolderUINT@Internal@Core@Math@Palmtree@@QEAA@PEAU__tag_NUMBER_HEADER@2345@@Z+35
	DD	00H
	DD	imagerel ??0__StaticNumberChainBufferTag@ResourceHolderUINT@Internal@Core@Math@Palmtree@@QEAA@PEAU__tag_NUMBER_HEADER@2345@@Z+49
	DD	0ffffffffH
xdata	ENDS
;	COMDAT xdata
xdata	SEGMENT
$stateUnwindMap$??0__StaticNumberChainBufferTag@ResourceHolderUINT@Internal@Core@Math@Palmtree@@QEAA@PEAU__tag_NUMBER_HEADER@2345@@Z DD 0ffffffffH
	DD	imagerel ?dtor$0@?0???0__StaticNumberChainBufferTag@ResourceHolderUINT@Internal@Core@Math@Palmtree@@QEAA@PEAU__tag_NUMBER_HEADER@2345@@Z@4HA
xdata	ENDS
;	COMDAT CONST
CONST	SEGMENT
$cppxdata$??0__StaticNumberChainBufferTag@ResourceHolderUINT@Internal@Core@Math@Palmtree@@QEAA@PEAU__tag_NUMBER_HEADER@2345@@Z DD 019930522H
	DD	01H
	DD	imagerel $stateUnwindMap$??0__StaticNumberChainBufferTag@ResourceHolderUINT@Internal@Core@Math@Palmtree@@QEAA@PEAU__tag_NUMBER_HEADER@2345@@Z
	DD	00H
	DD	00H
	DD	03H
	DD	imagerel $ip2state$??0__StaticNumberChainBufferTag@ResourceHolderUINT@Internal@Core@Math@Palmtree@@QEAA@PEAU__tag_NUMBER_HEADER@2345@@Z
	DD	00H
	DD	00H
	DD	00H
CONST	ENDS
;	COMDAT xdata
xdata	SEGMENT
$unwind$??0__StaticNumberChainBufferTag@ResourceHolderUINT@Internal@Core@Math@Palmtree@@QEAA@PEAU__tag_NUMBER_HEADER@2345@@Z DD 011111H
	DD	02209H
	DD	imagerel __CxxFrameHandler3
	DD	imagerel $cppxdata$??0__StaticNumberChainBufferTag@ResourceHolderUINT@Internal@Core@Math@Palmtree@@QEAA@PEAU__tag_NUMBER_HEADER@2345@@Z
xdata	ENDS
;	COMDAT xdata
xdata	SEGMENT
$ip2state$??_G__NumberHandleHookingChainBufferTag@ResourceHolderUINT@Internal@Core@Math@Palmtree@@UEAAPEAXI@Z DD imagerel ??_G__NumberHandleHookingChainBufferTag@ResourceHolderUINT@Internal@Core@Math@Palmtree@@UEAAPEAXI@Z
	DD	0ffffffffH
xdata	ENDS
;	COMDAT xdata
xdata	SEGMENT
$stateUnwindMap$??_G__NumberHandleHookingChainBufferTag@ResourceHolderUINT@Internal@Core@Math@Palmtree@@UEAAPEAXI@Z DD 0ffffffffH
	DD	imagerel ?dtor$0@?0???_G__NumberHandleHookingChainBufferTag@ResourceHolderUINT@Internal@Core@Math@Palmtree@@UEAAPEAXI@Z@4HA
xdata	ENDS
;	COMDAT CONST
CONST	SEGMENT
$cppxdata$??_G__NumberHandleHookingChainBufferTag@ResourceHolderUINT@Internal@Core@Math@Palmtree@@UEAAPEAXI@Z DD 019930522H
	DD	01H
	DD	imagerel $stateUnwindMap$??_G__NumberHandleHookingChainBufferTag@ResourceHolderUINT@Internal@Core@Math@Palmtree@@UEAAPEAXI@Z
	DD	00H
	DD	00H
	DD	01H
	DD	imagerel $ip2state$??_G__NumberHandleHookingChainBufferTag@ResourceHolderUINT@Internal@Core@Math@Palmtree@@UEAAPEAXI@Z
	DD	020H
	DD	00H
	DD	04H
CONST	ENDS
;	COMDAT xdata
xdata	SEGMENT
$unwind$??_G__NumberHandleHookingChainBufferTag@ResourceHolderUINT@Internal@Core@Math@Palmtree@@UEAAPEAXI@Z DD 021311H
	DD	03006520aH
	DD	imagerel __CxxFrameHandler3
	DD	imagerel $cppxdata$??_G__NumberHandleHookingChainBufferTag@ResourceHolderUINT@Internal@Core@Math@Palmtree@@UEAAPEAXI@Z
xdata	ENDS
;	COMDAT xdata
xdata	SEGMENT
$ip2state$??1__NumberHandleHookingChainBufferTag@ResourceHolderUINT@Internal@Core@Math@Palmtree@@UEAA@XZ DD imagerel ??1__NumberHandleHookingChainBufferTag@ResourceHolderUINT@Internal@Core@Math@Palmtree@@UEAA@XZ
	DD	0ffffffffH
xdata	ENDS
;	COMDAT xdata
xdata	SEGMENT
$stateUnwindMap$??1__NumberHandleHookingChainBufferTag@ResourceHolderUINT@Internal@Core@Math@Palmtree@@UEAA@XZ DD 0ffffffffH
	DD	imagerel ?dtor$0@?0???1__NumberHandleHookingChainBufferTag@ResourceHolderUINT@Internal@Core@Math@Palmtree@@UEAA@XZ@4HA
xdata	ENDS
;	COMDAT CONST
CONST	SEGMENT
$cppxdata$??1__NumberHandleHookingChainBufferTag@ResourceHolderUINT@Internal@Core@Math@Palmtree@@UEAA@XZ DD 019930522H
	DD	01H
	DD	imagerel $stateUnwindMap$??1__NumberHandleHookingChainBufferTag@ResourceHolderUINT@Internal@Core@Math@Palmtree@@UEAA@XZ
	DD	00H
	DD	00H
	DD	01H
	DD	imagerel $ip2state$??1__NumberHandleHookingChainBufferTag@ResourceHolderUINT@Internal@Core@Math@Palmtree@@UEAA@XZ
	DD	00H
	DD	00H
	DD	04H
CONST	ENDS
;	COMDAT xdata
xdata	SEGMENT
$unwind$??1__NumberHandleHookingChainBufferTag@ResourceHolderUINT@Internal@Core@Math@Palmtree@@UEAA@XZ DD 011111H
	DD	02209H
	DD	imagerel __CxxFrameHandler3
	DD	imagerel $cppxdata$??1__NumberHandleHookingChainBufferTag@ResourceHolderUINT@Internal@Core@Math@Palmtree@@UEAA@XZ
xdata	ENDS
;	COMDAT xdata
xdata	SEGMENT
$ip2state$??0__NumberHandleHookingChainBufferTag@ResourceHolderUINT@Internal@Core@Math@Palmtree@@QEAA@PEAU__tag_NUMBER_HEADER@2345@@Z DD imagerel ??0__NumberHandleHookingChainBufferTag@ResourceHolderUINT@Internal@Core@Math@Palmtree@@QEAA@PEAU__tag_NUMBER_HEADER@2345@@Z
	DD	0ffffffffH
	DD	imagerel ??0__NumberHandleHookingChainBufferTag@ResourceHolderUINT@Internal@Core@Math@Palmtree@@QEAA@PEAU__tag_NUMBER_HEADER@2345@@Z+35
	DD	00H
	DD	imagerel ??0__NumberHandleHookingChainBufferTag@ResourceHolderUINT@Internal@Core@Math@Palmtree@@QEAA@PEAU__tag_NUMBER_HEADER@2345@@Z+49
	DD	0ffffffffH
xdata	ENDS
;	COMDAT xdata
xdata	SEGMENT
$stateUnwindMap$??0__NumberHandleHookingChainBufferTag@ResourceHolderUINT@Internal@Core@Math@Palmtree@@QEAA@PEAU__tag_NUMBER_HEADER@2345@@Z DD 0ffffffffH
	DD	imagerel ?dtor$0@?0???0__NumberHandleHookingChainBufferTag@ResourceHolderUINT@Internal@Core@Math@Palmtree@@QEAA@PEAU__tag_NUMBER_HEADER@2345@@Z@4HA
xdata	ENDS
;	COMDAT CONST
CONST	SEGMENT
$cppxdata$??0__NumberHandleHookingChainBufferTag@ResourceHolderUINT@Internal@Core@Math@Palmtree@@QEAA@PEAU__tag_NUMBER_HEADER@2345@@Z DD 019930522H
	DD	01H
	DD	imagerel $stateUnwindMap$??0__NumberHandleHookingChainBufferTag@ResourceHolderUINT@Internal@Core@Math@Palmtree@@QEAA@PEAU__tag_NUMBER_HEADER@2345@@Z
	DD	00H
	DD	00H
	DD	03H
	DD	imagerel $ip2state$??0__NumberHandleHookingChainBufferTag@ResourceHolderUINT@Internal@Core@Math@Palmtree@@QEAA@PEAU__tag_NUMBER_HEADER@2345@@Z
	DD	00H
	DD	00H
	DD	00H
CONST	ENDS
;	COMDAT xdata
xdata	SEGMENT
$unwind$??0__NumberHandleHookingChainBufferTag@ResourceHolderUINT@Internal@Core@Math@Palmtree@@QEAA@PEAU__tag_NUMBER_HEADER@2345@@Z DD 011111H
	DD	02209H
	DD	imagerel __CxxFrameHandler3
	DD	imagerel $cppxdata$??0__NumberHandleHookingChainBufferTag@ResourceHolderUINT@Internal@Core@Math@Palmtree@@QEAA@PEAU__tag_NUMBER_HEADER@2345@@Z
xdata	ENDS
;	COMDAT xdata
xdata	SEGMENT
$ip2state$??_G__DynamicNumberChainBufferTag@ResourceHolderUINT@Internal@Core@Math@Palmtree@@UEAAPEAXI@Z DD imagerel ??_G__DynamicNumberChainBufferTag@ResourceHolderUINT@Internal@Core@Math@Palmtree@@UEAAPEAXI@Z
	DD	0ffffffffH
xdata	ENDS
;	COMDAT xdata
xdata	SEGMENT
$stateUnwindMap$??_G__DynamicNumberChainBufferTag@ResourceHolderUINT@Internal@Core@Math@Palmtree@@UEAAPEAXI@Z DD 0ffffffffH
	DD	imagerel ?dtor$0@?0???_G__DynamicNumberChainBufferTag@ResourceHolderUINT@Internal@Core@Math@Palmtree@@UEAAPEAXI@Z@4HA
xdata	ENDS
;	COMDAT CONST
CONST	SEGMENT
$cppxdata$??_G__DynamicNumberChainBufferTag@ResourceHolderUINT@Internal@Core@Math@Palmtree@@UEAAPEAXI@Z DD 019930522H
	DD	01H
	DD	imagerel $stateUnwindMap$??_G__DynamicNumberChainBufferTag@ResourceHolderUINT@Internal@Core@Math@Palmtree@@UEAAPEAXI@Z
	DD	00H
	DD	00H
	DD	01H
	DD	imagerel $ip2state$??_G__DynamicNumberChainBufferTag@ResourceHolderUINT@Internal@Core@Math@Palmtree@@UEAAPEAXI@Z
	DD	020H
	DD	00H
	DD	04H
CONST	ENDS
;	COMDAT xdata
xdata	SEGMENT
$unwind$??_G__DynamicNumberChainBufferTag@ResourceHolderUINT@Internal@Core@Math@Palmtree@@UEAAPEAXI@Z DD 021311H
	DD	03006520aH
	DD	imagerel __CxxFrameHandler3
	DD	imagerel $cppxdata$??_G__DynamicNumberChainBufferTag@ResourceHolderUINT@Internal@Core@Math@Palmtree@@UEAAPEAXI@Z
xdata	ENDS
;	COMDAT xdata
xdata	SEGMENT
$ip2state$??1__DynamicNumberChainBufferTag@ResourceHolderUINT@Internal@Core@Math@Palmtree@@UEAA@XZ DD imagerel ??1__DynamicNumberChainBufferTag@ResourceHolderUINT@Internal@Core@Math@Palmtree@@UEAA@XZ
	DD	0ffffffffH
xdata	ENDS
;	COMDAT xdata
xdata	SEGMENT
$stateUnwindMap$??1__DynamicNumberChainBufferTag@ResourceHolderUINT@Internal@Core@Math@Palmtree@@UEAA@XZ DD 0ffffffffH
	DD	imagerel ?dtor$0@?0???1__DynamicNumberChainBufferTag@ResourceHolderUINT@Internal@Core@Math@Palmtree@@UEAA@XZ@4HA
xdata	ENDS
;	COMDAT CONST
CONST	SEGMENT
$cppxdata$??1__DynamicNumberChainBufferTag@ResourceHolderUINT@Internal@Core@Math@Palmtree@@UEAA@XZ DD 019930522H
	DD	01H
	DD	imagerel $stateUnwindMap$??1__DynamicNumberChainBufferTag@ResourceHolderUINT@Internal@Core@Math@Palmtree@@UEAA@XZ
	DD	00H
	DD	00H
	DD	01H
	DD	imagerel $ip2state$??1__DynamicNumberChainBufferTag@ResourceHolderUINT@Internal@Core@Math@Palmtree@@UEAA@XZ
	DD	00H
	DD	00H
	DD	04H
CONST	ENDS
;	COMDAT xdata
xdata	SEGMENT
$unwind$??1__DynamicNumberChainBufferTag@ResourceHolderUINT@Internal@Core@Math@Palmtree@@UEAA@XZ DD 011111H
	DD	02209H
	DD	imagerel __CxxFrameHandler3
	DD	imagerel $cppxdata$??1__DynamicNumberChainBufferTag@ResourceHolderUINT@Internal@Core@Math@Palmtree@@UEAA@XZ
xdata	ENDS
;	COMDAT xdata
xdata	SEGMENT
$ip2state$??0__DynamicNumberChainBufferTag@ResourceHolderUINT@Internal@Core@Math@Palmtree@@QEAA@PEAU__tag_NUMBER_HEADER@2345@@Z DD imagerel ??0__DynamicNumberChainBufferTag@ResourceHolderUINT@Internal@Core@Math@Palmtree@@QEAA@PEAU__tag_NUMBER_HEADER@2345@@Z
	DD	0ffffffffH
	DD	imagerel ??0__DynamicNumberChainBufferTag@ResourceHolderUINT@Internal@Core@Math@Palmtree@@QEAA@PEAU__tag_NUMBER_HEADER@2345@@Z+35
	DD	00H
	DD	imagerel ??0__DynamicNumberChainBufferTag@ResourceHolderUINT@Internal@Core@Math@Palmtree@@QEAA@PEAU__tag_NUMBER_HEADER@2345@@Z+49
	DD	0ffffffffH
xdata	ENDS
;	COMDAT xdata
xdata	SEGMENT
$stateUnwindMap$??0__DynamicNumberChainBufferTag@ResourceHolderUINT@Internal@Core@Math@Palmtree@@QEAA@PEAU__tag_NUMBER_HEADER@2345@@Z DD 0ffffffffH
	DD	imagerel ?dtor$0@?0???0__DynamicNumberChainBufferTag@ResourceHolderUINT@Internal@Core@Math@Palmtree@@QEAA@PEAU__tag_NUMBER_HEADER@2345@@Z@4HA
xdata	ENDS
;	COMDAT CONST
CONST	SEGMENT
$cppxdata$??0__DynamicNumberChainBufferTag@ResourceHolderUINT@Internal@Core@Math@Palmtree@@QEAA@PEAU__tag_NUMBER_HEADER@2345@@Z DD 019930522H
	DD	01H
	DD	imagerel $stateUnwindMap$??0__DynamicNumberChainBufferTag@ResourceHolderUINT@Internal@Core@Math@Palmtree@@QEAA@PEAU__tag_NUMBER_HEADER@2345@@Z
	DD	00H
	DD	00H
	DD	03H
	DD	imagerel $ip2state$??0__DynamicNumberChainBufferTag@ResourceHolderUINT@Internal@Core@Math@Palmtree@@QEAA@PEAU__tag_NUMBER_HEADER@2345@@Z
	DD	00H
	DD	00H
	DD	00H
CONST	ENDS
;	COMDAT xdata
xdata	SEGMENT
$unwind$??0__DynamicNumberChainBufferTag@ResourceHolderUINT@Internal@Core@Math@Palmtree@@QEAA@PEAU__tag_NUMBER_HEADER@2345@@Z DD 011111H
	DD	02209H
	DD	imagerel __CxxFrameHandler3
	DD	imagerel $cppxdata$??0__DynamicNumberChainBufferTag@ResourceHolderUINT@Internal@Core@Math@Palmtree@@QEAA@PEAU__tag_NUMBER_HEADER@2345@@Z
xdata	ENDS
;	COMDAT xdata
xdata	SEGMENT
$ip2state$??_G__StringChainBufferTag@ResourceHolderUINT@Internal@Core@Math@Palmtree@@UEAAPEAXI@Z DD imagerel ??_G__StringChainBufferTag@ResourceHolderUINT@Internal@Core@Math@Palmtree@@UEAAPEAXI@Z
	DD	0ffffffffH
xdata	ENDS
;	COMDAT xdata
xdata	SEGMENT
$stateUnwindMap$??_G__StringChainBufferTag@ResourceHolderUINT@Internal@Core@Math@Palmtree@@UEAAPEAXI@Z DD 0ffffffffH
	DD	imagerel ?dtor$0@?0???_G__StringChainBufferTag@ResourceHolderUINT@Internal@Core@Math@Palmtree@@UEAAPEAXI@Z@4HA
xdata	ENDS
;	COMDAT CONST
CONST	SEGMENT
$cppxdata$??_G__StringChainBufferTag@ResourceHolderUINT@Internal@Core@Math@Palmtree@@UEAAPEAXI@Z DD 019930522H
	DD	01H
	DD	imagerel $stateUnwindMap$??_G__StringChainBufferTag@ResourceHolderUINT@Internal@Core@Math@Palmtree@@UEAAPEAXI@Z
	DD	00H
	DD	00H
	DD	01H
	DD	imagerel $ip2state$??_G__StringChainBufferTag@ResourceHolderUINT@Internal@Core@Math@Palmtree@@UEAAPEAXI@Z
	DD	020H
	DD	00H
	DD	04H
CONST	ENDS
;	COMDAT xdata
xdata	SEGMENT
$unwind$??_G__StringChainBufferTag@ResourceHolderUINT@Internal@Core@Math@Palmtree@@UEAAPEAXI@Z DD 021311H
	DD	03006520aH
	DD	imagerel __CxxFrameHandler3
	DD	imagerel $cppxdata$??_G__StringChainBufferTag@ResourceHolderUINT@Internal@Core@Math@Palmtree@@UEAAPEAXI@Z
xdata	ENDS
;	COMDAT xdata
xdata	SEGMENT
$chain$1$?Destruct@__StringChainBufferTag@ResourceHolderUINT@Internal@Core@Math@Palmtree@@UEAAXXZ DD 021H
	DD	imagerel $LN9
	DD	imagerel $LN9+25
	DD	imagerel $unwind$?Destruct@__StringChainBufferTag@ResourceHolderUINT@Internal@Core@Math@Palmtree@@UEAAXXZ
xdata	ENDS
;	COMDAT xdata
xdata	SEGMENT
$chain$0$?Destruct@__StringChainBufferTag@ResourceHolderUINT@Internal@Core@Math@Palmtree@@UEAAXXZ DD 020521H
	DD	047405H
	DD	imagerel $LN9
	DD	imagerel $LN9+25
	DD	imagerel $unwind$?Destruct@__StringChainBufferTag@ResourceHolderUINT@Internal@Core@Math@Palmtree@@UEAAXXZ
xdata	ENDS
;	COMDAT xdata
xdata	SEGMENT
$unwind$?Destruct@__StringChainBufferTag@ResourceHolderUINT@Internal@Core@Math@Palmtree@@UEAAXXZ DD 010401H
	DD	04204H
xdata	ENDS
;	COMDAT xdata
xdata	SEGMENT
$unwind$?Clear@__StringChainBufferTag@ResourceHolderUINT@Internal@Core@Math@Palmtree@@UEAAXXZ DD 020501H
	DD	017405H
xdata	ENDS
;	COMDAT xdata
xdata	SEGMENT
$ip2state$??1__StringChainBufferTag@ResourceHolderUINT@Internal@Core@Math@Palmtree@@UEAA@XZ DD imagerel ??1__StringChainBufferTag@ResourceHolderUINT@Internal@Core@Math@Palmtree@@UEAA@XZ
	DD	0ffffffffH
xdata	ENDS
;	COMDAT xdata
xdata	SEGMENT
$stateUnwindMap$??1__StringChainBufferTag@ResourceHolderUINT@Internal@Core@Math@Palmtree@@UEAA@XZ DD 0ffffffffH
	DD	imagerel ?dtor$0@?0???1__StringChainBufferTag@ResourceHolderUINT@Internal@Core@Math@Palmtree@@UEAA@XZ@4HA
xdata	ENDS
;	COMDAT CONST
CONST	SEGMENT
$cppxdata$??1__StringChainBufferTag@ResourceHolderUINT@Internal@Core@Math@Palmtree@@UEAA@XZ DD 019930522H
	DD	01H
	DD	imagerel $stateUnwindMap$??1__StringChainBufferTag@ResourceHolderUINT@Internal@Core@Math@Palmtree@@UEAA@XZ
	DD	00H
	DD	00H
	DD	01H
	DD	imagerel $ip2state$??1__StringChainBufferTag@ResourceHolderUINT@Internal@Core@Math@Palmtree@@UEAA@XZ
	DD	00H
	DD	00H
	DD	04H
CONST	ENDS
;	COMDAT xdata
xdata	SEGMENT
$unwind$??1__StringChainBufferTag@ResourceHolderUINT@Internal@Core@Math@Palmtree@@UEAA@XZ DD 011111H
	DD	02209H
	DD	imagerel __CxxFrameHandler3
	DD	imagerel $cppxdata$??1__StringChainBufferTag@ResourceHolderUINT@Internal@Core@Math@Palmtree@@UEAA@XZ
xdata	ENDS
;	COMDAT xdata
xdata	SEGMENT
$ip2state$??0__StringChainBufferTag@ResourceHolderUINT@Internal@Core@Math@Palmtree@@QEAA@PEA_K_K1@Z DD imagerel ??0__StringChainBufferTag@ResourceHolderUINT@Internal@Core@Math@Palmtree@@QEAA@PEA_K_K1@Z
	DD	0ffffffffH
	DD	imagerel ??0__StringChainBufferTag@ResourceHolderUINT@Internal@Core@Math@Palmtree@@QEAA@PEA_K_K1@Z+35
	DD	00H
	DD	imagerel ??0__StringChainBufferTag@ResourceHolderUINT@Internal@Core@Math@Palmtree@@QEAA@PEA_K_K1@Z+57
	DD	0ffffffffH
xdata	ENDS
;	COMDAT xdata
xdata	SEGMENT
$stateUnwindMap$??0__StringChainBufferTag@ResourceHolderUINT@Internal@Core@Math@Palmtree@@QEAA@PEA_K_K1@Z DD 0ffffffffH
	DD	imagerel ?dtor$0@?0???0__StringChainBufferTag@ResourceHolderUINT@Internal@Core@Math@Palmtree@@QEAA@PEA_K_K1@Z@4HA
xdata	ENDS
;	COMDAT CONST
CONST	SEGMENT
$cppxdata$??0__StringChainBufferTag@ResourceHolderUINT@Internal@Core@Math@Palmtree@@QEAA@PEA_K_K1@Z DD 019930522H
	DD	01H
	DD	imagerel $stateUnwindMap$??0__StringChainBufferTag@ResourceHolderUINT@Internal@Core@Math@Palmtree@@QEAA@PEA_K_K1@Z
	DD	00H
	DD	00H
	DD	03H
	DD	imagerel $ip2state$??0__StringChainBufferTag@ResourceHolderUINT@Internal@Core@Math@Palmtree@@QEAA@PEA_K_K1@Z
	DD	00H
	DD	00H
	DD	00H
CONST	ENDS
;	COMDAT xdata
xdata	SEGMENT
$unwind$??0__StringChainBufferTag@ResourceHolderUINT@Internal@Core@Math@Palmtree@@QEAA@PEA_K_K1@Z DD 011111H
	DD	02209H
	DD	imagerel __CxxFrameHandler3
	DD	imagerel $cppxdata$??0__StringChainBufferTag@ResourceHolderUINT@Internal@Core@Math@Palmtree@@QEAA@PEA_K_K1@Z
xdata	ENDS
;	COMDAT xdata
xdata	SEGMENT
$ip2state$??_G____UNIT_TYPE_Array_ChainBufferTag@ResourceHolderUINT@Internal@Core@Math@Palmtree@@UEAAPEAXI@Z DD imagerel ??_G____UNIT_TYPE_Array_ChainBufferTag@ResourceHolderUINT@Internal@Core@Math@Palmtree@@UEAAPEAXI@Z
	DD	0ffffffffH
xdata	ENDS
;	COMDAT xdata
xdata	SEGMENT
$stateUnwindMap$??_G____UNIT_TYPE_Array_ChainBufferTag@ResourceHolderUINT@Internal@Core@Math@Palmtree@@UEAAPEAXI@Z DD 0ffffffffH
	DD	imagerel ?dtor$0@?0???_G____UNIT_TYPE_Array_ChainBufferTag@ResourceHolderUINT@Internal@Core@Math@Palmtree@@UEAAPEAXI@Z@4HA
xdata	ENDS
;	COMDAT CONST
CONST	SEGMENT
$cppxdata$??_G____UNIT_TYPE_Array_ChainBufferTag@ResourceHolderUINT@Internal@Core@Math@Palmtree@@UEAAPEAXI@Z DD 019930522H
	DD	01H
	DD	imagerel $stateUnwindMap$??_G____UNIT_TYPE_Array_ChainBufferTag@ResourceHolderUINT@Internal@Core@Math@Palmtree@@UEAAPEAXI@Z
	DD	00H
	DD	00H
	DD	01H
	DD	imagerel $ip2state$??_G____UNIT_TYPE_Array_ChainBufferTag@ResourceHolderUINT@Internal@Core@Math@Palmtree@@UEAAPEAXI@Z
	DD	020H
	DD	00H
	DD	04H
CONST	ENDS
;	COMDAT xdata
xdata	SEGMENT
$unwind$??_G____UNIT_TYPE_Array_ChainBufferTag@ResourceHolderUINT@Internal@Core@Math@Palmtree@@UEAAPEAXI@Z DD 021311H
	DD	03006520aH
	DD	imagerel __CxxFrameHandler3
	DD	imagerel $cppxdata$??_G____UNIT_TYPE_Array_ChainBufferTag@ResourceHolderUINT@Internal@Core@Math@Palmtree@@UEAAPEAXI@Z
xdata	ENDS
;	COMDAT xdata
xdata	SEGMENT
$chain$1$?Destruct@____UNIT_TYPE_Array_ChainBufferTag@ResourceHolderUINT@Internal@Core@Math@Palmtree@@UEAAXXZ DD 021H
	DD	imagerel $LN9
	DD	imagerel $LN9+25
	DD	imagerel $unwind$?Destruct@____UNIT_TYPE_Array_ChainBufferTag@ResourceHolderUINT@Internal@Core@Math@Palmtree@@UEAAXXZ
xdata	ENDS
;	COMDAT xdata
xdata	SEGMENT
$chain$0$?Destruct@____UNIT_TYPE_Array_ChainBufferTag@ResourceHolderUINT@Internal@Core@Math@Palmtree@@UEAAXXZ DD 020521H
	DD	047405H
	DD	imagerel $LN9
	DD	imagerel $LN9+25
	DD	imagerel $unwind$?Destruct@____UNIT_TYPE_Array_ChainBufferTag@ResourceHolderUINT@Internal@Core@Math@Palmtree@@UEAAXXZ
xdata	ENDS
;	COMDAT xdata
xdata	SEGMENT
$unwind$?Destruct@____UNIT_TYPE_Array_ChainBufferTag@ResourceHolderUINT@Internal@Core@Math@Palmtree@@UEAAXXZ DD 010401H
	DD	04204H
xdata	ENDS
;	COMDAT xdata
xdata	SEGMENT
$unwind$?Clear@____UNIT_TYPE_Array_ChainBufferTag@ResourceHolderUINT@Internal@Core@Math@Palmtree@@UEAAXXZ DD 020501H
	DD	017405H
xdata	ENDS
;	COMDAT xdata
xdata	SEGMENT
$ip2state$??1____UNIT_TYPE_Array_ChainBufferTag@ResourceHolderUINT@Internal@Core@Math@Palmtree@@UEAA@XZ DD imagerel ??1____UNIT_TYPE_Array_ChainBufferTag@ResourceHolderUINT@Internal@Core@Math@Palmtree@@UEAA@XZ
	DD	0ffffffffH
xdata	ENDS
;	COMDAT xdata
xdata	SEGMENT
$stateUnwindMap$??1____UNIT_TYPE_Array_ChainBufferTag@ResourceHolderUINT@Internal@Core@Math@Palmtree@@UEAA@XZ DD 0ffffffffH
	DD	imagerel ?dtor$0@?0???1____UNIT_TYPE_Array_ChainBufferTag@ResourceHolderUINT@Internal@Core@Math@Palmtree@@UEAA@XZ@4HA
xdata	ENDS
;	COMDAT CONST
CONST	SEGMENT
$cppxdata$??1____UNIT_TYPE_Array_ChainBufferTag@ResourceHolderUINT@Internal@Core@Math@Palmtree@@UEAA@XZ DD 019930522H
	DD	01H
	DD	imagerel $stateUnwindMap$??1____UNIT_TYPE_Array_ChainBufferTag@ResourceHolderUINT@Internal@Core@Math@Palmtree@@UEAA@XZ
	DD	00H
	DD	00H
	DD	01H
	DD	imagerel $ip2state$??1____UNIT_TYPE_Array_ChainBufferTag@ResourceHolderUINT@Internal@Core@Math@Palmtree@@UEAA@XZ
	DD	00H
	DD	00H
	DD	04H
CONST	ENDS
;	COMDAT xdata
xdata	SEGMENT
$unwind$??1____UNIT_TYPE_Array_ChainBufferTag@ResourceHolderUINT@Internal@Core@Math@Palmtree@@UEAA@XZ DD 011111H
	DD	02209H
	DD	imagerel __CxxFrameHandler3
	DD	imagerel $cppxdata$??1____UNIT_TYPE_Array_ChainBufferTag@ResourceHolderUINT@Internal@Core@Math@Palmtree@@UEAA@XZ
xdata	ENDS
;	COMDAT xdata
xdata	SEGMENT
$ip2state$??0____UNIT_TYPE_Array_ChainBufferTag@ResourceHolderUINT@Internal@Core@Math@Palmtree@@QEAA@PEA_K_K1@Z DD imagerel ??0____UNIT_TYPE_Array_ChainBufferTag@ResourceHolderUINT@Internal@Core@Math@Palmtree@@QEAA@PEA_K_K1@Z
	DD	0ffffffffH
	DD	imagerel ??0____UNIT_TYPE_Array_ChainBufferTag@ResourceHolderUINT@Internal@Core@Math@Palmtree@@QEAA@PEA_K_K1@Z+35
	DD	00H
	DD	imagerel ??0____UNIT_TYPE_Array_ChainBufferTag@ResourceHolderUINT@Internal@Core@Math@Palmtree@@QEAA@PEA_K_K1@Z+57
	DD	0ffffffffH
xdata	ENDS
;	COMDAT xdata
xdata	SEGMENT
$stateUnwindMap$??0____UNIT_TYPE_Array_ChainBufferTag@ResourceHolderUINT@Internal@Core@Math@Palmtree@@QEAA@PEA_K_K1@Z DD 0ffffffffH
	DD	imagerel ?dtor$0@?0???0____UNIT_TYPE_Array_ChainBufferTag@ResourceHolderUINT@Internal@Core@Math@Palmtree@@QEAA@PEA_K_K1@Z@4HA
xdata	ENDS
;	COMDAT CONST
CONST	SEGMENT
$cppxdata$??0____UNIT_TYPE_Array_ChainBufferTag@ResourceHolderUINT@Internal@Core@Math@Palmtree@@QEAA@PEA_K_K1@Z DD 019930522H
	DD	01H
	DD	imagerel $stateUnwindMap$??0____UNIT_TYPE_Array_ChainBufferTag@ResourceHolderUINT@Internal@Core@Math@Palmtree@@QEAA@PEA_K_K1@Z
	DD	00H
	DD	00H
	DD	03H
	DD	imagerel $ip2state$??0____UNIT_TYPE_Array_ChainBufferTag@ResourceHolderUINT@Internal@Core@Math@Palmtree@@QEAA@PEA_K_K1@Z
	DD	00H
	DD	00H
	DD	00H
CONST	ENDS
;	COMDAT xdata
xdata	SEGMENT
$unwind$??0____UNIT_TYPE_Array_ChainBufferTag@ResourceHolderUINT@Internal@Core@Math@Palmtree@@QEAA@PEA_K_K1@Z DD 011111H
	DD	02209H
	DD	imagerel __CxxFrameHandler3
	DD	imagerel $cppxdata$??0____UNIT_TYPE_Array_ChainBufferTag@ResourceHolderUINT@Internal@Core@Math@Palmtree@@QEAA@PEA_K_K1@Z
xdata	ENDS
;	COMDAT xdata
xdata	SEGMENT
$ip2state$??_G__GenericChainBufferTag@ResourceHolderUINT@Internal@Core@Math@Palmtree@@UEAAPEAXI@Z DD imagerel ??_G__GenericChainBufferTag@ResourceHolderUINT@Internal@Core@Math@Palmtree@@UEAAPEAXI@Z
	DD	0ffffffffH
xdata	ENDS
;	COMDAT xdata
xdata	SEGMENT
$stateUnwindMap$??_G__GenericChainBufferTag@ResourceHolderUINT@Internal@Core@Math@Palmtree@@UEAAPEAXI@Z DD 0ffffffffH
	DD	imagerel ?dtor$0@?0???_G__GenericChainBufferTag@ResourceHolderUINT@Internal@Core@Math@Palmtree@@UEAAPEAXI@Z@4HA
xdata	ENDS
;	COMDAT CONST
CONST	SEGMENT
$cppxdata$??_G__GenericChainBufferTag@ResourceHolderUINT@Internal@Core@Math@Palmtree@@UEAAPEAXI@Z DD 019930522H
	DD	01H
	DD	imagerel $stateUnwindMap$??_G__GenericChainBufferTag@ResourceHolderUINT@Internal@Core@Math@Palmtree@@UEAAPEAXI@Z
	DD	00H
	DD	00H
	DD	01H
	DD	imagerel $ip2state$??_G__GenericChainBufferTag@ResourceHolderUINT@Internal@Core@Math@Palmtree@@UEAAPEAXI@Z
	DD	020H
	DD	00H
	DD	04H
CONST	ENDS
;	COMDAT xdata
xdata	SEGMENT
$unwind$??_G__GenericChainBufferTag@ResourceHolderUINT@Internal@Core@Math@Palmtree@@UEAAPEAXI@Z DD 021311H
	DD	03006520aH
	DD	imagerel __CxxFrameHandler3
	DD	imagerel $cppxdata$??_G__GenericChainBufferTag@ResourceHolderUINT@Internal@Core@Math@Palmtree@@UEAAPEAXI@Z
xdata	ENDS
;	COMDAT xdata
xdata	SEGMENT
$ip2state$??1__GenericChainBufferTag@ResourceHolderUINT@Internal@Core@Math@Palmtree@@UEAA@XZ DD imagerel ??1__GenericChainBufferTag@ResourceHolderUINT@Internal@Core@Math@Palmtree@@UEAA@XZ
	DD	0ffffffffH
xdata	ENDS
;	COMDAT xdata
xdata	SEGMENT
$stateUnwindMap$??1__GenericChainBufferTag@ResourceHolderUINT@Internal@Core@Math@Palmtree@@UEAA@XZ DD 0ffffffffH
	DD	imagerel ?dtor$0@?0???1__GenericChainBufferTag@ResourceHolderUINT@Internal@Core@Math@Palmtree@@UEAA@XZ@4HA
xdata	ENDS
;	COMDAT CONST
CONST	SEGMENT
$cppxdata$??1__GenericChainBufferTag@ResourceHolderUINT@Internal@Core@Math@Palmtree@@UEAA@XZ DD 019930522H
	DD	01H
	DD	imagerel $stateUnwindMap$??1__GenericChainBufferTag@ResourceHolderUINT@Internal@Core@Math@Palmtree@@UEAA@XZ
	DD	00H
	DD	00H
	DD	01H
	DD	imagerel $ip2state$??1__GenericChainBufferTag@ResourceHolderUINT@Internal@Core@Math@Palmtree@@UEAA@XZ
	DD	00H
	DD	00H
	DD	04H
CONST	ENDS
;	COMDAT xdata
xdata	SEGMENT
$unwind$??1__GenericChainBufferTag@ResourceHolderUINT@Internal@Core@Math@Palmtree@@UEAA@XZ DD 011111H
	DD	02209H
	DD	imagerel __CxxFrameHandler3
	DD	imagerel $cppxdata$??1__GenericChainBufferTag@ResourceHolderUINT@Internal@Core@Math@Palmtree@@UEAA@XZ
xdata	ENDS
;	COMDAT xdata
xdata	SEGMENT
$ip2state$??0__GenericChainBufferTag@ResourceHolderUINT@Internal@Core@Math@Palmtree@@QEAA@PEAX@Z DD imagerel ??0__GenericChainBufferTag@ResourceHolderUINT@Internal@Core@Math@Palmtree@@QEAA@PEAX@Z
	DD	0ffffffffH
	DD	imagerel ??0__GenericChainBufferTag@ResourceHolderUINT@Internal@Core@Math@Palmtree@@QEAA@PEAX@Z+35
	DD	00H
	DD	imagerel ??0__GenericChainBufferTag@ResourceHolderUINT@Internal@Core@Math@Palmtree@@QEAA@PEAX@Z+49
	DD	0ffffffffH
xdata	ENDS
;	COMDAT xdata
xdata	SEGMENT
$stateUnwindMap$??0__GenericChainBufferTag@ResourceHolderUINT@Internal@Core@Math@Palmtree@@QEAA@PEAX@Z DD 0ffffffffH
	DD	imagerel ?dtor$0@?0???0__GenericChainBufferTag@ResourceHolderUINT@Internal@Core@Math@Palmtree@@QEAA@PEAX@Z@4HA
xdata	ENDS
;	COMDAT CONST
CONST	SEGMENT
$cppxdata$??0__GenericChainBufferTag@ResourceHolderUINT@Internal@Core@Math@Palmtree@@QEAA@PEAX@Z DD 019930522H
	DD	01H
	DD	imagerel $stateUnwindMap$??0__GenericChainBufferTag@ResourceHolderUINT@Internal@Core@Math@Palmtree@@QEAA@PEAX@Z
	DD	00H
	DD	00H
	DD	03H
	DD	imagerel $ip2state$??0__GenericChainBufferTag@ResourceHolderUINT@Internal@Core@Math@Palmtree@@QEAA@PEAX@Z
	DD	00H
	DD	00H
	DD	00H
CONST	ENDS
;	COMDAT xdata
xdata	SEGMENT
$unwind$??0__GenericChainBufferTag@ResourceHolderUINT@Internal@Core@Math@Palmtree@@QEAA@PEAX@Z DD 011111H
	DD	02209H
	DD	imagerel __CxxFrameHandler3
	DD	imagerel $cppxdata$??0__GenericChainBufferTag@ResourceHolderUINT@Internal@Core@Math@Palmtree@@QEAA@PEAX@Z
xdata	ENDS
;	COMDAT xdata
xdata	SEGMENT
$unwind$??_GResourceHolder@Internal@Core@Math@Palmtree@@UEAAPEAXI@Z DD 040a01H
	DD	06340aH
	DD	07006320aH
xdata	ENDS
;	COMDAT xdata
xdata	SEGMENT
$unwind$?FindTag@ResourceHolder@Internal@Core@Math@Palmtree@@IEAAPEAV__ChainBufferTag@12345@PEAX@Z DD 060f01H
	DD	07640fH
	DD	06340fH
	DD	0700b320fH
xdata	ENDS
;	COMDAT xdata
xdata	SEGMENT
$ip2state$??1ResourceHolder@Internal@Core@Math@Palmtree@@UEAA@XZ DD imagerel ??1ResourceHolder@Internal@Core@Math@Palmtree@@UEAA@XZ
	DD	0ffffffffH
	DD	imagerel ??1ResourceHolder@Internal@Core@Math@Palmtree@@UEAA@XZ+42
	DD	00H
	DD	imagerel ??1ResourceHolder@Internal@Core@Math@Palmtree@@UEAA@XZ+56
	DD	01H
	DD	imagerel ??1ResourceHolder@Internal@Core@Math@Palmtree@@UEAA@XZ+139
	DD	00H
	DD	imagerel ??1ResourceHolder@Internal@Core@Math@Palmtree@@UEAA@XZ+153
	DD	0ffffffffH
xdata	ENDS
;	COMDAT xdata
xdata	SEGMENT
$stateUnwindMap$??1ResourceHolder@Internal@Core@Math@Palmtree@@UEAA@XZ DD 0ffffffffH
	DD	imagerel ?dtor$0@?0???1ResourceHolder@Internal@Core@Math@Palmtree@@UEAA@XZ@4HA
	DD	00H
	DD	imagerel ?dtor$1@?0???1ResourceHolder@Internal@Core@Math@Palmtree@@UEAA@XZ@4HA
	DD	0ffffffffH
	DD	imagerel ?dtor$2@?0???1ResourceHolder@Internal@Core@Math@Palmtree@@UEAA@XZ@4HA
xdata	ENDS
;	COMDAT CONST
CONST	SEGMENT
$cppxdata$??1ResourceHolder@Internal@Core@Math@Palmtree@@UEAA@XZ DD 019930522H
	DD	03H
	DD	imagerel $stateUnwindMap$??1ResourceHolder@Internal@Core@Math@Palmtree@@UEAA@XZ
	DD	00H
	DD	00H
	DD	05H
	DD	imagerel $ip2state$??1ResourceHolder@Internal@Core@Math@Palmtree@@UEAA@XZ
	DD	020H
	DD	00H
	DD	04H
CONST	ENDS
;	COMDAT xdata
xdata	SEGMENT
$unwind$??1ResourceHolder@Internal@Core@Math@Palmtree@@UEAA@XZ DD 061d19H
	DD	0a641dH
	DD	093418H
	DD	07006520aH
	DD	imagerel __CxxFrameHandler3
	DD	imagerel $cppxdata$??1ResourceHolder@Internal@Core@Math@Palmtree@@UEAA@XZ
xdata	ENDS
;	COMDAT xdata
xdata	SEGMENT
$ip2state$??0ResourceHolder@Internal@Core@Math@Palmtree@@IEAA@XZ DD imagerel ??0ResourceHolder@Internal@Core@Math@Palmtree@@IEAA@XZ
	DD	0ffffffffH
	DD	imagerel ??0ResourceHolder@Internal@Core@Math@Palmtree@@IEAA@XZ+54
	DD	00H
	DD	imagerel ??0ResourceHolder@Internal@Core@Math@Palmtree@@IEAA@XZ+64
	DD	0ffffffffH
xdata	ENDS
;	COMDAT xdata
xdata	SEGMENT
$stateUnwindMap$??0ResourceHolder@Internal@Core@Math@Palmtree@@IEAA@XZ DD 0ffffffffH
	DD	imagerel ?dtor$1@?0???0ResourceHolder@Internal@Core@Math@Palmtree@@IEAA@XZ@4HA
	DD	0ffffffffH
	DD	imagerel ?dtor$0@?0???0ResourceHolder@Internal@Core@Math@Palmtree@@IEAA@XZ@4HA
xdata	ENDS
;	COMDAT CONST
CONST	SEGMENT
$cppxdata$??0ResourceHolder@Internal@Core@Math@Palmtree@@IEAA@XZ DD 019930522H
	DD	02H
	DD	imagerel $stateUnwindMap$??0ResourceHolder@Internal@Core@Math@Palmtree@@IEAA@XZ
	DD	00H
	DD	00H
	DD	03H
	DD	imagerel $ip2state$??0ResourceHolder@Internal@Core@Math@Palmtree@@IEAA@XZ
	DD	00H
	DD	00H
	DD	00H
CONST	ENDS
;	COMDAT xdata
xdata	SEGMENT
$unwind$??0ResourceHolder@Internal@Core@Math@Palmtree@@IEAA@XZ DD 011111H
	DD	02209H
	DD	imagerel __CxxFrameHandler3
	DD	imagerel $cppxdata$??0ResourceHolder@Internal@Core@Math@Palmtree@@IEAA@XZ
xdata	ENDS
;	COMDAT xdata
xdata	SEGMENT
$ip2state$??_G__RootTag@ResourceHolder@Internal@Core@Math@Palmtree@@UEAAPEAXI@Z DD imagerel ??_G__RootTag@ResourceHolder@Internal@Core@Math@Palmtree@@UEAAPEAXI@Z
	DD	0ffffffffH
xdata	ENDS
;	COMDAT xdata
xdata	SEGMENT
$stateUnwindMap$??_G__RootTag@ResourceHolder@Internal@Core@Math@Palmtree@@UEAAPEAXI@Z DD 0ffffffffH
	DD	imagerel ?dtor$0@?0???_G__RootTag@ResourceHolder@Internal@Core@Math@Palmtree@@UEAAPEAXI@Z@4HA
xdata	ENDS
;	COMDAT CONST
CONST	SEGMENT
$cppxdata$??_G__RootTag@ResourceHolder@Internal@Core@Math@Palmtree@@UEAAPEAXI@Z DD 019930522H
	DD	01H
	DD	imagerel $stateUnwindMap$??_G__RootTag@ResourceHolder@Internal@Core@Math@Palmtree@@UEAAPEAXI@Z
	DD	00H
	DD	00H
	DD	01H
	DD	imagerel $ip2state$??_G__RootTag@ResourceHolder@Internal@Core@Math@Palmtree@@UEAAPEAXI@Z
	DD	020H
	DD	00H
	DD	04H
CONST	ENDS
;	COMDAT xdata
xdata	SEGMENT
$unwind$??_G__RootTag@ResourceHolder@Internal@Core@Math@Palmtree@@UEAAPEAXI@Z DD 021311H
	DD	03006520aH
	DD	imagerel __CxxFrameHandler3
	DD	imagerel $cppxdata$??_G__RootTag@ResourceHolder@Internal@Core@Math@Palmtree@@UEAAPEAXI@Z
xdata	ENDS
;	COMDAT xdata
xdata	SEGMENT
$unwind$?EqualsBufferAddress@__RootTag@ResourceHolder@Internal@Core@Math@Palmtree@@UEAAHPEAX@Z DD 010401H
	DD	0a204H
xdata	ENDS
;	COMDAT xdata
xdata	SEGMENT
$ip2state$??1__RootTag@ResourceHolder@Internal@Core@Math@Palmtree@@UEAA@XZ DD imagerel ??1__RootTag@ResourceHolder@Internal@Core@Math@Palmtree@@UEAA@XZ
	DD	0ffffffffH
xdata	ENDS
;	COMDAT xdata
xdata	SEGMENT
$stateUnwindMap$??1__RootTag@ResourceHolder@Internal@Core@Math@Palmtree@@UEAA@XZ DD 0ffffffffH
	DD	imagerel ?dtor$0@?0???1__RootTag@ResourceHolder@Internal@Core@Math@Palmtree@@UEAA@XZ@4HA
xdata	ENDS
;	COMDAT CONST
CONST	SEGMENT
$cppxdata$??1__RootTag@ResourceHolder@Internal@Core@Math@Palmtree@@UEAA@XZ DD 019930522H
	DD	01H
	DD	imagerel $stateUnwindMap$??1__RootTag@ResourceHolder@Internal@Core@Math@Palmtree@@UEAA@XZ
	DD	00H
	DD	00H
	DD	01H
	DD	imagerel $ip2state$??1__RootTag@ResourceHolder@Internal@Core@Math@Palmtree@@UEAA@XZ
	DD	00H
	DD	00H
	DD	04H
CONST	ENDS
;	COMDAT xdata
xdata	SEGMENT
$unwind$??1__RootTag@ResourceHolder@Internal@Core@Math@Palmtree@@UEAA@XZ DD 011111H
	DD	02209H
	DD	imagerel __CxxFrameHandler3
	DD	imagerel $cppxdata$??1__RootTag@ResourceHolder@Internal@Core@Math@Palmtree@@UEAA@XZ
xdata	ENDS
;	COMDAT xdata
xdata	SEGMENT
$ip2state$??0__RootTag@ResourceHolder@Internal@Core@Math@Palmtree@@QEAA@XZ DD imagerel ??0__RootTag@ResourceHolder@Internal@Core@Math@Palmtree@@QEAA@XZ
	DD	0ffffffffH
	DD	imagerel ??0__RootTag@ResourceHolder@Internal@Core@Math@Palmtree@@QEAA@XZ+35
	DD	00H
	DD	imagerel ??0__RootTag@ResourceHolder@Internal@Core@Math@Palmtree@@QEAA@XZ+45
	DD	0ffffffffH
xdata	ENDS
;	COMDAT xdata
xdata	SEGMENT
$stateUnwindMap$??0__RootTag@ResourceHolder@Internal@Core@Math@Palmtree@@QEAA@XZ DD 0ffffffffH
	DD	imagerel ?dtor$0@?0???0__RootTag@ResourceHolder@Internal@Core@Math@Palmtree@@QEAA@XZ@4HA
xdata	ENDS
;	COMDAT CONST
CONST	SEGMENT
$cppxdata$??0__RootTag@ResourceHolder@Internal@Core@Math@Palmtree@@QEAA@XZ DD 019930522H
	DD	01H
	DD	imagerel $stateUnwindMap$??0__RootTag@ResourceHolder@Internal@Core@Math@Palmtree@@QEAA@XZ
	DD	00H
	DD	00H
	DD	03H
	DD	imagerel $ip2state$??0__RootTag@ResourceHolder@Internal@Core@Math@Palmtree@@QEAA@XZ
	DD	00H
	DD	00H
	DD	00H
CONST	ENDS
;	COMDAT xdata
xdata	SEGMENT
$unwind$??0__RootTag@ResourceHolder@Internal@Core@Math@Palmtree@@QEAA@XZ DD 011111H
	DD	02209H
	DD	imagerel __CxxFrameHandler3
	DD	imagerel $cppxdata$??0__RootTag@ResourceHolder@Internal@Core@Math@Palmtree@@QEAA@XZ
xdata	ENDS
;	COMDAT xdata
xdata	SEGMENT
$unwind$??_G__ChainBufferTag@ResourceHolder@Internal@Core@Math@Palmtree@@UEAAPEAXI@Z DD 020601H
	DD	030023206H
xdata	ENDS
;	COMDAT xdata
xdata	SEGMENT
$ip2state$??1Lock@Internal@Core@Math@Palmtree@@QEAA@XZ DD imagerel ??1Lock@Internal@Core@Math@Palmtree@@QEAA@XZ
	DD	0ffffffffH
xdata	ENDS
;	COMDAT CONST
CONST	SEGMENT
$cppxdata$??1Lock@Internal@Core@Math@Palmtree@@QEAA@XZ DD 019930522H
	DD	00H
	DD	00H
	DD	00H
	DD	00H
	DD	01H
	DD	imagerel $ip2state$??1Lock@Internal@Core@Math@Palmtree@@QEAA@XZ
	DD	020H
	DD	00H
	DD	04H
CONST	ENDS
;	COMDAT xdata
xdata	SEGMENT
$unwind$??1Lock@Internal@Core@Math@Palmtree@@QEAA@XZ DD 010d19H
	DD	06204H
	DD	imagerel __CxxFrameHandler3
	DD	imagerel $cppxdata$??1Lock@Internal@Core@Math@Palmtree@@QEAA@XZ
xdata	ENDS
;	COMDAT xdata
xdata	SEGMENT
$unwind$??0Lock@Internal@Core@Math@Palmtree@@QEAA@XZ DD 020601H
	DD	030023206H
xdata	ENDS
;	COMDAT xdata
xdata	SEGMENT
$chain$3$?PMC_GetAllocatedMemorySize@Internal@Core@Math@Palmtree@@YA_KXZ DD 040021H
	DD	0a7400H
	DD	0c3400H
	DD	imagerel $LN31
	DD	imagerel $LN31+37
	DD	imagerel $unwind$?PMC_GetAllocatedMemorySize@Internal@Core@Math@Palmtree@@YA_KXZ
xdata	ENDS
;	COMDAT xdata
xdata	SEGMENT
$chain$2$?PMC_GetAllocatedMemorySize@Internal@Core@Math@Palmtree@@YA_KXZ DD 021H
	DD	imagerel $LN31
	DD	imagerel $LN31+37
	DD	imagerel $unwind$?PMC_GetAllocatedMemorySize@Internal@Core@Math@Palmtree@@YA_KXZ
xdata	ENDS
;	COMDAT xdata
xdata	SEGMENT
$chain$1$?PMC_GetAllocatedMemorySize@Internal@Core@Math@Palmtree@@YA_KXZ DD 040a21H
	DD	0a740aH
	DD	0c3405H
	DD	imagerel $LN31
	DD	imagerel $LN31+37
	DD	imagerel $unwind$?PMC_GetAllocatedMemorySize@Internal@Core@Math@Palmtree@@YA_KXZ
xdata	ENDS
;	COMDAT xdata
xdata	SEGMENT
$unwind$?PMC_GetAllocatedMemorySize@Internal@Core@Math@Palmtree@@YA_KXZ DD 010401H
	DD	0a204H
xdata	ENDS
;	COMDAT xdata
xdata	SEGMENT
$unwind$?dtor$5@?0??PMC_Clone_X@Internal@Core@Math@Palmtree@@YAPEAU__tag_PMC_HANDLE_UINT@1234@PEAU51234@@Z@4HA DD 020601H
	DD	050023206H
xdata	ENDS
;	COMDAT xdata
xdata	SEGMENT
$ip2state$?PMC_Clone_X@Internal@Core@Math@Palmtree@@YAPEAU__tag_PMC_HANDLE_UINT@1234@PEAU51234@@Z DD imagerel ?PMC_Clone_X@Internal@Core@Math@Palmtree@@YAPEAU__tag_PMC_HANDLE_UINT@1234@PEAU51234@@Z
	DD	0ffffffffH
	DD	imagerel ?PMC_Clone_X@Internal@Core@Math@Palmtree@@YAPEAU__tag_PMC_HANDLE_UINT@1234@PEAU51234@@Z+105
	DD	00H
	DD	imagerel ?PMC_Clone_X@Internal@Core@Math@Palmtree@@YAPEAU__tag_PMC_HANDLE_UINT@1234@PEAU51234@@Z+117
	DD	02H
	DD	imagerel ?PMC_Clone_X@Internal@Core@Math@Palmtree@@YAPEAU__tag_PMC_HANDLE_UINT@1234@PEAU51234@@Z+129
	DD	03H
	DD	imagerel ?PMC_Clone_X@Internal@Core@Math@Palmtree@@YAPEAU__tag_PMC_HANDLE_UINT@1234@PEAU51234@@Z+202
	DD	04H
	DD	imagerel ?PMC_Clone_X@Internal@Core@Math@Palmtree@@YAPEAU__tag_PMC_HANDLE_UINT@1234@PEAU51234@@Z+223
	DD	05H
	DD	imagerel ?PMC_Clone_X@Internal@Core@Math@Palmtree@@YAPEAU__tag_PMC_HANDLE_UINT@1234@PEAU51234@@Z+239
	DD	06H
	DD	imagerel ?PMC_Clone_X@Internal@Core@Math@Palmtree@@YAPEAU__tag_PMC_HANDLE_UINT@1234@PEAU51234@@Z+253
	DD	05H
	DD	imagerel ?PMC_Clone_X@Internal@Core@Math@Palmtree@@YAPEAU__tag_PMC_HANDLE_UINT@1234@PEAU51234@@Z+257
	DD	04H
	DD	imagerel ?PMC_Clone_X@Internal@Core@Math@Palmtree@@YAPEAU__tag_PMC_HANDLE_UINT@1234@PEAU51234@@Z+287
	DD	03H
	DD	imagerel ?PMC_Clone_X@Internal@Core@Math@Palmtree@@YAPEAU__tag_PMC_HANDLE_UINT@1234@PEAU51234@@Z+314
	DD	07H
	DD	imagerel ?PMC_Clone_X@Internal@Core@Math@Palmtree@@YAPEAU__tag_PMC_HANDLE_UINT@1234@PEAU51234@@Z+370
	DD	00H
	DD	imagerel ?PMC_Clone_X@Internal@Core@Math@Palmtree@@YAPEAU__tag_PMC_HANDLE_UINT@1234@PEAU51234@@Z+372
	DD	07H
	DD	imagerel ?PMC_Clone_X@Internal@Core@Math@Palmtree@@YAPEAU__tag_PMC_HANDLE_UINT@1234@PEAU51234@@Z+409
	DD	03H
	DD	imagerel ?PMC_Clone_X@Internal@Core@Math@Palmtree@@YAPEAU__tag_PMC_HANDLE_UINT@1234@PEAU51234@@Z+423
	DD	0ffffffffH
	DD	imagerel ?PMC_Clone_X@Internal@Core@Math@Palmtree@@YAPEAU__tag_PMC_HANDLE_UINT@1234@PEAU51234@@Z+507
	DD	07H
xdata	ENDS
;	COMDAT xdata
xdata	SEGMENT
$stateUnwindMap$?PMC_Clone_X@Internal@Core@Math@Palmtree@@YAPEAU__tag_PMC_HANDLE_UINT@1234@PEAU51234@@Z DD 0ffffffffH
	DD	imagerel ?dtor$3@?0??PMC_Clone_X@Internal@Core@Math@Palmtree@@YAPEAU__tag_PMC_HANDLE_UINT@1234@PEAU51234@@Z@4HA
	DD	0ffffffffH
	DD	imagerel ?dtor$2@?0??PMC_Clone_X@Internal@Core@Math@Palmtree@@YAPEAU__tag_PMC_HANDLE_UINT@1234@PEAU51234@@Z@4HA
	DD	0ffffffffH
	DD	imagerel ?dtor$1@?0??PMC_Clone_X@Internal@Core@Math@Palmtree@@YAPEAU__tag_PMC_HANDLE_UINT@1234@PEAU51234@@Z@4HA
	DD	0ffffffffH
	DD	imagerel ?dtor$0@?0??PMC_Clone_X@Internal@Core@Math@Palmtree@@YAPEAU__tag_PMC_HANDLE_UINT@1234@PEAU51234@@Z@4HA
	DD	03H
	DD	imagerel ?dtor$4@?0??PMC_Clone_X@Internal@Core@Math@Palmtree@@YAPEAU__tag_PMC_HANDLE_UINT@1234@PEAU51234@@Z@4HA
	DD	04H
	DD	imagerel ?dtor$5@?0??PMC_Clone_X@Internal@Core@Math@Palmtree@@YAPEAU__tag_PMC_HANDLE_UINT@1234@PEAU51234@@Z@4HA
	DD	05H
	DD	imagerel ?dtor$6@?0??PMC_Clone_X@Internal@Core@Math@Palmtree@@YAPEAU__tag_PMC_HANDLE_UINT@1234@PEAU51234@@Z@4HA
	DD	03H
	DD	imagerel ?dtor$7@?0??PMC_Clone_X@Internal@Core@Math@Palmtree@@YAPEAU__tag_PMC_HANDLE_UINT@1234@PEAU51234@@Z@4HA
	DD	0ffffffffH
	DD	imagerel ?dtor$8@?0??PMC_Clone_X@Internal@Core@Math@Palmtree@@YAPEAU__tag_PMC_HANDLE_UINT@1234@PEAU51234@@Z@4HA
xdata	ENDS
;	COMDAT CONST
CONST	SEGMENT
$cppxdata$?PMC_Clone_X@Internal@Core@Math@Palmtree@@YAPEAU__tag_PMC_HANDLE_UINT@1234@PEAU51234@@Z DD 019930522H
	DD	09H
	DD	imagerel $stateUnwindMap$?PMC_Clone_X@Internal@Core@Math@Palmtree@@YAPEAU__tag_PMC_HANDLE_UINT@1234@PEAU51234@@Z
	DD	00H
	DD	00H
	DD	010H
	DD	imagerel $ip2state$?PMC_Clone_X@Internal@Core@Math@Palmtree@@YAPEAU__tag_PMC_HANDLE_UINT@1234@PEAU51234@@Z
	DD	020H
	DD	00H
	DD	00H
CONST	ENDS
;	COMDAT xdata
xdata	SEGMENT
$unwind$?PMC_Clone_X@Internal@Core@Math@Palmtree@@YAPEAU__tag_PMC_HANDLE_UINT@1234@PEAU51234@@Z DD 091f11H
	DD	018541fH
	DD	017341bH
	DD	012010eH
	DD	07005e007H
	DD	06004H
	DD	imagerel __CxxFrameHandler3
	DD	imagerel $cppxdata$?PMC_Clone_X@Internal@Core@Math@Palmtree@@YAPEAU__tag_PMC_HANDLE_UINT@1234@PEAU51234@@Z
xdata	ENDS
;	COMDAT xdata
xdata	SEGMENT
$unwind$?PMC_GetConstantValue_I@Internal@Core@Math@Palmtree@@YAPEAU__tag_PMC_HANDLE_UINT@1234@H@Z DD 010401H
	DD	0a204H
xdata	ENDS
;	COMDAT xdata
xdata	SEGMENT
$unwind$?PMC_Dispose@Internal@Core@Math@Palmtree@@YAXPEAU__tag_PMC_HANDLE_UINT@1234@@Z DD 020601H
	DD	030023206H
xdata	ENDS
;	COMDAT xdata
xdata	SEGMENT
$unwind$?catch$6@?0??Initialize_Memory@Internal@Core@Math@Palmtree@@YAHPEAU_tag_PROCESSOR_FEATURES@1234@@Z@4HA DD 020a19H
	DD	05006320aH
	DD	imagerel __CxxFrameHandler3
	DD	imagerel $cppxdata$?Initialize_Memory@Internal@Core@Math@Palmtree@@YAHPEAU_tag_PROCESSOR_FEATURES@1234@@Z
xdata	ENDS
;	COMDAT xdata
xdata	SEGMENT
$ip2state$?Initialize_Memory@Internal@Core@Math@Palmtree@@YAHPEAU_tag_PROCESSOR_FEATURES@1234@@Z DD imagerel ?Initialize_Memory@Internal@Core@Math@Palmtree@@YAHPEAU_tag_PROCESSOR_FEATURES@1234@@Z
	DD	0ffffffffH
	DD	imagerel ?Initialize_Memory@Internal@Core@Math@Palmtree@@YAHPEAU_tag_PROCESSOR_FEATURES@1234@@Z+80
	DD	00H
	DD	imagerel ?Initialize_Memory@Internal@Core@Math@Palmtree@@YAHPEAU_tag_PROCESSOR_FEATURES@1234@@Z+92
	DD	02H
	DD	imagerel ?Initialize_Memory@Internal@Core@Math@Palmtree@@YAHPEAU_tag_PROCESSOR_FEATURES@1234@@Z+104
	DD	04H
	DD	imagerel ?Initialize_Memory@Internal@Core@Math@Palmtree@@YAHPEAU_tag_PROCESSOR_FEATURES@1234@@Z+220
	DD	0ffffffffH
	DD	imagerel ?catch$6@?0??Initialize_Memory@Internal@Core@Math@Palmtree@@YAHPEAU_tag_PROCESSOR_FEATURES@1234@@Z@4HA
	DD	00H
	DD	imagerel ?catch$6@?0??Initialize_Memory@Internal@Core@Math@Palmtree@@YAHPEAU_tag_PROCESSOR_FEATURES@1234@@Z@4HA+13
	DD	05H
	DD	imagerel ?catch$6@?0??Initialize_Memory@Internal@Core@Math@Palmtree@@YAHPEAU_tag_PROCESSOR_FEATURES@1234@@Z@4HA+23
	DD	00H
xdata	ENDS
;	COMDAT xdata
xdata	SEGMENT
$handlerMap$0$?Initialize_Memory@Internal@Core@Math@Palmtree@@YAHPEAU_tag_PROCESSOR_FEATURES@1234@@Z DD 09H
	DD	imagerel ??_R0?AVException@Internal@Core@Math@Palmtree@@@8
	DD	028H
	DD	imagerel ?catch$6@?0??Initialize_Memory@Internal@Core@Math@Palmtree@@YAHPEAU_tag_PROCESSOR_FEATURES@1234@@Z@4HA
	DD	038H
xdata	ENDS
;	COMDAT xdata
xdata	SEGMENT
$tryMap$?Initialize_Memory@Internal@Core@Math@Palmtree@@YAHPEAU_tag_PROCESSOR_FEATURES@1234@@Z DD 04H
	DD	04H
	DD	05H
	DD	01H
	DD	imagerel $handlerMap$0$?Initialize_Memory@Internal@Core@Math@Palmtree@@YAHPEAU_tag_PROCESSOR_FEATURES@1234@@Z
xdata	ENDS
;	COMDAT xdata
xdata	SEGMENT
$stateUnwindMap$?Initialize_Memory@Internal@Core@Math@Palmtree@@YAHPEAU_tag_PROCESSOR_FEATURES@1234@@Z DD 0ffffffffH
	DD	imagerel ?dtor$3@?0??Initialize_Memory@Internal@Core@Math@Palmtree@@YAHPEAU_tag_PROCESSOR_FEATURES@1234@@Z@4HA
	DD	0ffffffffH
	DD	imagerel ?dtor$2@?0??Initialize_Memory@Internal@Core@Math@Palmtree@@YAHPEAU_tag_PROCESSOR_FEATURES@1234@@Z@4HA
	DD	0ffffffffH
	DD	imagerel ?dtor$1@?0??Initialize_Memory@Internal@Core@Math@Palmtree@@YAHPEAU_tag_PROCESSOR_FEATURES@1234@@Z@4HA
	DD	0ffffffffH
	DD	imagerel ?dtor$0@?0??Initialize_Memory@Internal@Core@Math@Palmtree@@YAHPEAU_tag_PROCESSOR_FEATURES@1234@@Z@4HA
	DD	03H
	DD	00H
	DD	03H
	DD	00H
	DD	0ffffffffH
	DD	imagerel ?dtor$4@?0??Initialize_Memory@Internal@Core@Math@Palmtree@@YAHPEAU_tag_PROCESSOR_FEATURES@1234@@Z@4HA
	DD	0ffffffffH
	DD	00H
xdata	ENDS
;	COMDAT CONST
CONST	SEGMENT
$cppxdata$?Initialize_Memory@Internal@Core@Math@Palmtree@@YAHPEAU_tag_PROCESSOR_FEATURES@1234@@Z DD 019930522H
	DD	08H
	DD	imagerel $stateUnwindMap$?Initialize_Memory@Internal@Core@Math@Palmtree@@YAHPEAU_tag_PROCESSOR_FEATURES@1234@@Z
	DD	01H
	DD	imagerel $tryMap$?Initialize_Memory@Internal@Core@Math@Palmtree@@YAHPEAU_tag_PROCESSOR_FEATURES@1234@@Z
	DD	08H
	DD	imagerel $ip2state$?Initialize_Memory@Internal@Core@Math@Palmtree@@YAHPEAU_tag_PROCESSOR_FEATURES@1234@@Z
	DD	020H
	DD	00H
	DD	00H
CONST	ENDS
;	COMDAT xdata
xdata	SEGMENT
$unwind$?Initialize_Memory@Internal@Core@Math@Palmtree@@YAHPEAU_tag_PROCESSOR_FEATURES@1234@@Z DD 010d19H
	DD	0a204H
	DD	imagerel __CxxFrameHandler3
	DD	imagerel $cppxdata$?Initialize_Memory@Internal@Core@Math@Palmtree@@YAHPEAU_tag_PROCESSOR_FEATURES@1234@@Z
xdata	ENDS
;	COMDAT xdata
xdata	SEGMENT
$unwind$?DuplicateNumber@Internal@Core@Math@Palmtree@@YAPEAU__tag_NUMBER_HEADER@1234@PEAU51234@@Z DD 063901H
	DD	077439H
	DD	063434H
	DD	060023206H
xdata	ENDS
;	COMDAT xdata
xdata	SEGMENT
$unwind$?CheckNumber@Internal@Core@Math@Palmtree@@YAXPEAU__tag_NUMBER_HEADER@1234@@Z DD 010401H
	DD	0c204H
xdata	ENDS
;	COMDAT xdata
xdata	SEGMENT
$unwind$?CommitNumber@Internal@Core@Math@Palmtree@@YAXPEAU__tag_NUMBER_HEADER@1234@@Z DD 010401H
	DD	04204H
xdata	ENDS
;	COMDAT xdata
xdata	SEGMENT
$ip2state$?DeallocateHeapArea@Internal@Core@Math@Palmtree@@YAXXZ DD imagerel ?DeallocateHeapArea@Internal@Core@Math@Palmtree@@YAXXZ
	DD	0ffffffffH
xdata	ENDS
;	COMDAT CONST
CONST	SEGMENT
$cppxdata$?DeallocateHeapArea@Internal@Core@Math@Palmtree@@YAXXZ DD 019930522H
	DD	00H
	DD	00H
	DD	00H
	DD	00H
	DD	01H
	DD	imagerel $ip2state$?DeallocateHeapArea@Internal@Core@Math@Palmtree@@YAXXZ
	DD	020H
	DD	00H
	DD	04H
CONST	ENDS
;	COMDAT xdata
xdata	SEGMENT
$unwind$?DeallocateHeapArea@Internal@Core@Math@Palmtree@@YAXXZ DD 010d19H
	DD	06204H
	DD	imagerel __CxxFrameHandler3
	DD	imagerel $cppxdata$?DeallocateHeapArea@Internal@Core@Math@Palmtree@@YAXXZ
xdata	ENDS
;	COMDAT xdata
xdata	SEGMENT
$ip2state$?AllocateHeapArea@Internal@Core@Math@Palmtree@@YAHXZ DD imagerel ?AllocateHeapArea@Internal@Core@Math@Palmtree@@YAHXZ
	DD	0ffffffffH
xdata	ENDS
;	COMDAT CONST
CONST	SEGMENT
$cppxdata$?AllocateHeapArea@Internal@Core@Math@Palmtree@@YAHXZ DD 019930522H
	DD	00H
	DD	00H
	DD	00H
	DD	00H
	DD	01H
	DD	imagerel $ip2state$?AllocateHeapArea@Internal@Core@Math@Palmtree@@YAHXZ
	DD	020H
	DD	00H
	DD	04H
CONST	ENDS
;	COMDAT xdata
xdata	SEGMENT
$unwind$?AllocateHeapArea@Internal@Core@Math@Palmtree@@YAHXZ DD 010d19H
	DD	06204H
	DD	imagerel __CxxFrameHandler3
	DD	imagerel $cppxdata$?AllocateHeapArea@Internal@Core@Math@Palmtree@@YAHXZ
xdata	ENDS
;	COMDAT xdata
xdata	SEGMENT
$ip2state$??_GBadBufferException@Internal@Core@Math@Palmtree@@UEAAPEAXI@Z DD imagerel ??_GBadBufferException@Internal@Core@Math@Palmtree@@UEAAPEAXI@Z
	DD	0ffffffffH
xdata	ENDS
;	COMDAT xdata
xdata	SEGMENT
$stateUnwindMap$??_GBadBufferException@Internal@Core@Math@Palmtree@@UEAAPEAXI@Z DD 0ffffffffH
	DD	imagerel ?dtor$0@?0???_GBadBufferException@Internal@Core@Math@Palmtree@@UEAAPEAXI@Z@4HA
	DD	0ffffffffH
	DD	imagerel ?dtor$1@?0???_GBadBufferException@Internal@Core@Math@Palmtree@@UEAAPEAXI@Z@4HA
xdata	ENDS
;	COMDAT CONST
CONST	SEGMENT
$cppxdata$??_GBadBufferException@Internal@Core@Math@Palmtree@@UEAAPEAXI@Z DD 019930522H
	DD	02H
	DD	imagerel $stateUnwindMap$??_GBadBufferException@Internal@Core@Math@Palmtree@@UEAAPEAXI@Z
	DD	00H
	DD	00H
	DD	01H
	DD	imagerel $ip2state$??_GBadBufferException@Internal@Core@Math@Palmtree@@UEAAPEAXI@Z
	DD	020H
	DD	00H
	DD	04H
CONST	ENDS
;	COMDAT xdata
xdata	SEGMENT
$unwind$??_GBadBufferException@Internal@Core@Math@Palmtree@@UEAAPEAXI@Z DD 041819H
	DD	093418H
	DD	07006520aH
	DD	imagerel __CxxFrameHandler3
	DD	imagerel $cppxdata$??_GBadBufferException@Internal@Core@Math@Palmtree@@UEAAPEAXI@Z
xdata	ENDS
;	COMDAT xdata
xdata	SEGMENT
$ip2state$??1BadBufferException@Internal@Core@Math@Palmtree@@UEAA@XZ DD imagerel ??1BadBufferException@Internal@Core@Math@Palmtree@@UEAA@XZ
	DD	0ffffffffH
xdata	ENDS
;	COMDAT xdata
xdata	SEGMENT
$stateUnwindMap$??1BadBufferException@Internal@Core@Math@Palmtree@@UEAA@XZ DD 0ffffffffH
	DD	imagerel ?dtor$0@?0???1BadBufferException@Internal@Core@Math@Palmtree@@UEAA@XZ@4HA
	DD	0ffffffffH
	DD	imagerel ?dtor$1@?0???1BadBufferException@Internal@Core@Math@Palmtree@@UEAA@XZ@4HA
xdata	ENDS
;	COMDAT CONST
CONST	SEGMENT
$cppxdata$??1BadBufferException@Internal@Core@Math@Palmtree@@UEAA@XZ DD 019930522H
	DD	02H
	DD	imagerel $stateUnwindMap$??1BadBufferException@Internal@Core@Math@Palmtree@@UEAA@XZ
	DD	00H
	DD	00H
	DD	01H
	DD	imagerel $ip2state$??1BadBufferException@Internal@Core@Math@Palmtree@@UEAA@XZ
	DD	020H
	DD	00H
	DD	04H
CONST	ENDS
;	COMDAT xdata
xdata	SEGMENT
$unwind$??1BadBufferException@Internal@Core@Math@Palmtree@@UEAA@XZ DD 011219H
	DD	06209H
	DD	imagerel __CxxFrameHandler3
	DD	imagerel $cppxdata$??1BadBufferException@Internal@Core@Math@Palmtree@@UEAA@XZ
xdata	ENDS
;	COMDAT xdata
xdata	SEGMENT
$ip2state$??0BadBufferException@Internal@Core@Math@Palmtree@@QEAA@AEBV01234@@Z DD imagerel ??0BadBufferException@Internal@Core@Math@Palmtree@@QEAA@AEBV01234@@Z
	DD	0ffffffffH
	DD	imagerel ??0BadBufferException@Internal@Core@Math@Palmtree@@QEAA@AEBV01234@@Z+37
	DD	00H
	DD	imagerel ??0BadBufferException@Internal@Core@Math@Palmtree@@QEAA@AEBV01234@@Z+69
	DD	01H
	DD	imagerel ??0BadBufferException@Internal@Core@Math@Palmtree@@QEAA@AEBV01234@@Z+79
	DD	0ffffffffH
xdata	ENDS
;	COMDAT xdata
xdata	SEGMENT
$stateUnwindMap$??0BadBufferException@Internal@Core@Math@Palmtree@@QEAA@AEBV01234@@Z DD 0ffffffffH
	DD	imagerel ?dtor$1@?0???0BadBufferException@Internal@Core@Math@Palmtree@@QEAA@AEBV01234@@Z@4HA
	DD	0ffffffffH
	DD	imagerel ?dtor$0@?0???0BadBufferException@Internal@Core@Math@Palmtree@@QEAA@AEBV01234@@Z@4HA
xdata	ENDS
;	COMDAT CONST
CONST	SEGMENT
$cppxdata$??0BadBufferException@Internal@Core@Math@Palmtree@@QEAA@AEBV01234@@Z DD 019930522H
	DD	02H
	DD	imagerel $stateUnwindMap$??0BadBufferException@Internal@Core@Math@Palmtree@@QEAA@AEBV01234@@Z
	DD	00H
	DD	00H
	DD	04H
	DD	imagerel $ip2state$??0BadBufferException@Internal@Core@Math@Palmtree@@QEAA@AEBV01234@@Z
	DD	00H
	DD	00H
	DD	04H
CONST	ENDS
;	COMDAT xdata
xdata	SEGMENT
$unwind$??0BadBufferException@Internal@Core@Math@Palmtree@@QEAA@AEBV01234@@Z DD 011111H
	DD	02209H
	DD	imagerel __CxxFrameHandler3
	DD	imagerel $cppxdata$??0BadBufferException@Internal@Core@Math@Palmtree@@QEAA@AEBV01234@@Z
xdata	ENDS
;	COMDAT xdata
xdata	SEGMENT
$ip2state$??0BadBufferException@Internal@Core@Math@Palmtree@@QEAA@PEB_W0@Z DD imagerel ??0BadBufferException@Internal@Core@Math@Palmtree@@QEAA@PEB_W0@Z
	DD	0ffffffffH
	DD	imagerel ??0BadBufferException@Internal@Core@Math@Palmtree@@QEAA@PEB_W0@Z+37
	DD	00H
	DD	imagerel ??0BadBufferException@Internal@Core@Math@Palmtree@@QEAA@PEB_W0@Z+62
	DD	01H
	DD	imagerel ??0BadBufferException@Internal@Core@Math@Palmtree@@QEAA@PEB_W0@Z+72
	DD	0ffffffffH
xdata	ENDS
;	COMDAT xdata
xdata	SEGMENT
$stateUnwindMap$??0BadBufferException@Internal@Core@Math@Palmtree@@QEAA@PEB_W0@Z DD 0ffffffffH
	DD	imagerel ?dtor$1@?0???0BadBufferException@Internal@Core@Math@Palmtree@@QEAA@PEB_W0@Z@4HA
	DD	0ffffffffH
	DD	imagerel ?dtor$0@?0???0BadBufferException@Internal@Core@Math@Palmtree@@QEAA@PEB_W0@Z@4HA
xdata	ENDS
;	COMDAT CONST
CONST	SEGMENT
$cppxdata$??0BadBufferException@Internal@Core@Math@Palmtree@@QEAA@PEB_W0@Z DD 019930522H
	DD	02H
	DD	imagerel $stateUnwindMap$??0BadBufferException@Internal@Core@Math@Palmtree@@QEAA@PEB_W0@Z
	DD	00H
	DD	00H
	DD	04H
	DD	imagerel $ip2state$??0BadBufferException@Internal@Core@Math@Palmtree@@QEAA@PEB_W0@Z
	DD	00H
	DD	00H
	DD	04H
CONST	ENDS
;	COMDAT xdata
xdata	SEGMENT
$unwind$??0BadBufferException@Internal@Core@Math@Palmtree@@QEAA@PEB_W0@Z DD 011111H
	DD	02209H
	DD	imagerel __CxxFrameHandler3
	DD	imagerel $cppxdata$??0BadBufferException@Internal@Core@Math@Palmtree@@QEAA@PEB_W0@Z
xdata	ENDS
;	COMDAT xdata
xdata	SEGMENT
$ip2state$??_GInternalErrorException@Internal@Core@Math@Palmtree@@UEAAPEAXI@Z DD imagerel ??_GInternalErrorException@Internal@Core@Math@Palmtree@@UEAAPEAXI@Z
	DD	0ffffffffH
xdata	ENDS
;	COMDAT xdata
xdata	SEGMENT
$stateUnwindMap$??_GInternalErrorException@Internal@Core@Math@Palmtree@@UEAAPEAXI@Z DD 0ffffffffH
	DD	imagerel ?dtor$0@?0???_GInternalErrorException@Internal@Core@Math@Palmtree@@UEAAPEAXI@Z@4HA
	DD	0ffffffffH
	DD	imagerel ?dtor$1@?0???_GInternalErrorException@Internal@Core@Math@Palmtree@@UEAAPEAXI@Z@4HA
xdata	ENDS
;	COMDAT CONST
CONST	SEGMENT
$cppxdata$??_GInternalErrorException@Internal@Core@Math@Palmtree@@UEAAPEAXI@Z DD 019930522H
	DD	02H
	DD	imagerel $stateUnwindMap$??_GInternalErrorException@Internal@Core@Math@Palmtree@@UEAAPEAXI@Z
	DD	00H
	DD	00H
	DD	01H
	DD	imagerel $ip2state$??_GInternalErrorException@Internal@Core@Math@Palmtree@@UEAAPEAXI@Z
	DD	020H
	DD	00H
	DD	04H
CONST	ENDS
;	COMDAT xdata
xdata	SEGMENT
$unwind$??_GInternalErrorException@Internal@Core@Math@Palmtree@@UEAAPEAXI@Z DD 041819H
	DD	093418H
	DD	07006520aH
	DD	imagerel __CxxFrameHandler3
	DD	imagerel $cppxdata$??_GInternalErrorException@Internal@Core@Math@Palmtree@@UEAAPEAXI@Z
xdata	ENDS
;	COMDAT xdata
xdata	SEGMENT
$ip2state$??1InternalErrorException@Internal@Core@Math@Palmtree@@UEAA@XZ DD imagerel ??1InternalErrorException@Internal@Core@Math@Palmtree@@UEAA@XZ
	DD	0ffffffffH
xdata	ENDS
;	COMDAT xdata
xdata	SEGMENT
$stateUnwindMap$??1InternalErrorException@Internal@Core@Math@Palmtree@@UEAA@XZ DD 0ffffffffH
	DD	imagerel ?dtor$0@?0???1InternalErrorException@Internal@Core@Math@Palmtree@@UEAA@XZ@4HA
	DD	0ffffffffH
	DD	imagerel ?dtor$1@?0???1InternalErrorException@Internal@Core@Math@Palmtree@@UEAA@XZ@4HA
xdata	ENDS
;	COMDAT CONST
CONST	SEGMENT
$cppxdata$??1InternalErrorException@Internal@Core@Math@Palmtree@@UEAA@XZ DD 019930522H
	DD	02H
	DD	imagerel $stateUnwindMap$??1InternalErrorException@Internal@Core@Math@Palmtree@@UEAA@XZ
	DD	00H
	DD	00H
	DD	01H
	DD	imagerel $ip2state$??1InternalErrorException@Internal@Core@Math@Palmtree@@UEAA@XZ
	DD	020H
	DD	00H
	DD	04H
CONST	ENDS
;	COMDAT xdata
xdata	SEGMENT
$unwind$??1InternalErrorException@Internal@Core@Math@Palmtree@@UEAA@XZ DD 011219H
	DD	06209H
	DD	imagerel __CxxFrameHandler3
	DD	imagerel $cppxdata$??1InternalErrorException@Internal@Core@Math@Palmtree@@UEAA@XZ
xdata	ENDS
;	COMDAT xdata
xdata	SEGMENT
$ip2state$??0InternalErrorException@Internal@Core@Math@Palmtree@@QEAA@AEBV01234@@Z DD imagerel ??0InternalErrorException@Internal@Core@Math@Palmtree@@QEAA@AEBV01234@@Z
	DD	0ffffffffH
	DD	imagerel ??0InternalErrorException@Internal@Core@Math@Palmtree@@QEAA@AEBV01234@@Z+37
	DD	00H
	DD	imagerel ??0InternalErrorException@Internal@Core@Math@Palmtree@@QEAA@AEBV01234@@Z+69
	DD	01H
	DD	imagerel ??0InternalErrorException@Internal@Core@Math@Palmtree@@QEAA@AEBV01234@@Z+79
	DD	0ffffffffH
xdata	ENDS
;	COMDAT xdata
xdata	SEGMENT
