; Listing generated by Microsoft (R) Optimizing Compiler Version 19.16.27026.1 

include listing.inc

INCLUDELIB MSVCRT
INCLUDELIB OLDNAMES

PUBLIC	Initialize_BitwiseAnd
PUBLIC	PMC_BitwiseAnd_I_X
PUBLIC	PMC_BitwiseAnd_L_X
PUBLIC	PMC_BitwiseAnd_X_I
PUBLIC	PMC_BitwiseAnd_X_L
PUBLIC	PMC_BitwiseAnd_X_X
EXTRN	CheckBlockLight:PROC
EXTRN	AllocateNumber:PROC
EXTRN	DeallocateNumber:PROC
EXTRN	CommitNumber:PROC
EXTRN	CheckNumber:PROC
EXTRN	number_zero:BYTE
;	COMDAT pdata
pdata	SEGMENT
$pdata$PMC_BitwiseAnd_I_X DD imagerel $LN14
	DD	imagerel $LN14+124
	DD	imagerel $unwind$PMC_BitwiseAnd_I_X
pdata	ENDS
;	COMDAT pdata
pdata	SEGMENT
$pdata$PMC_BitwiseAnd_L_X DD imagerel $LN22
	DD	imagerel $LN22+130
	DD	imagerel $unwind$PMC_BitwiseAnd_L_X
pdata	ENDS
;	COMDAT pdata
pdata	SEGMENT
$pdata$PMC_BitwiseAnd_X_I DD imagerel $LN14
	DD	imagerel $LN14+121
	DD	imagerel $unwind$PMC_BitwiseAnd_X_I
pdata	ENDS
;	COMDAT pdata
pdata	SEGMENT
$pdata$PMC_BitwiseAnd_X_L DD imagerel $LN22
	DD	imagerel $LN22+127
	DD	imagerel $unwind$PMC_BitwiseAnd_X_L
pdata	ENDS
;	COMDAT pdata
pdata	SEGMENT
$pdata$PMC_BitwiseAnd_X_X DD imagerel $LN23
	DD	imagerel $LN23+77
	DD	imagerel $unwind$PMC_BitwiseAnd_X_X
pdata	ENDS
;	COMDAT pdata
pdata	SEGMENT
$pdata$0$PMC_BitwiseAnd_X_X DD imagerel $LN23+77
	DD	imagerel $LN23+224
	DD	imagerel $chain$0$PMC_BitwiseAnd_X_X
pdata	ENDS
;	COMDAT pdata
pdata	SEGMENT
$pdata$1$PMC_BitwiseAnd_X_X DD imagerel $LN23+224
	DD	imagerel $LN23+245
	DD	imagerel $chain$1$PMC_BitwiseAnd_X_X
pdata	ENDS
;	COMDAT pdata
pdata	SEGMENT
$pdata$BitwiseAnd_X_X DD imagerel BitwiseAnd_X_X
	DD	imagerel BitwiseAnd_X_X+4
	DD	imagerel $unwind$BitwiseAnd_X_X
pdata	ENDS
;	COMDAT pdata
pdata	SEGMENT
$pdata$2$BitwiseAnd_X_X DD imagerel BitwiseAnd_X_X+4
	DD	imagerel BitwiseAnd_X_X+560
	DD	imagerel $chain$2$BitwiseAnd_X_X
pdata	ENDS
;	COMDAT pdata
pdata	SEGMENT
$pdata$3$BitwiseAnd_X_X DD imagerel BitwiseAnd_X_X+560
	DD	imagerel BitwiseAnd_X_X+778
	DD	imagerel $chain$3$BitwiseAnd_X_X
pdata	ENDS
;	COMDAT pdata
pdata	SEGMENT
$pdata$4$BitwiseAnd_X_X DD imagerel BitwiseAnd_X_X+778
	DD	imagerel BitwiseAnd_X_X+792
	DD	imagerel $chain$4$BitwiseAnd_X_X
pdata	ENDS
;	COMDAT xdata
xdata	SEGMENT
$chain$4$BitwiseAnd_X_X DD 021H
	DD	imagerel BitwiseAnd_X_X
	DD	imagerel BitwiseAnd_X_X+4
	DD	imagerel $unwind$BitwiseAnd_X_X
xdata	ENDS
;	COMDAT xdata
xdata	SEGMENT
$chain$3$BitwiseAnd_X_X DD 020021H
	DD	036400H
	DD	imagerel BitwiseAnd_X_X
	DD	imagerel BitwiseAnd_X_X+4
	DD	imagerel $unwind$BitwiseAnd_X_X
xdata	ENDS
;	COMDAT xdata
xdata	SEGMENT
$chain$2$BitwiseAnd_X_X DD 061421H
	DD	07414H
	DD	03640dH
	DD	023405H
	DD	imagerel BitwiseAnd_X_X
	DD	imagerel BitwiseAnd_X_X+4
	DD	imagerel $unwind$BitwiseAnd_X_X
xdata	ENDS
;	COMDAT xdata
xdata	SEGMENT
$unwind$BitwiseAnd_X_X DD 010401H
	DD	0204H
xdata	ENDS
;	COMDAT xdata
xdata	SEGMENT
$chain$1$PMC_BitwiseAnd_X_X DD 021H
	DD	imagerel $LN23
	DD	imagerel $LN23+77
	DD	imagerel $unwind$PMC_BitwiseAnd_X_X
xdata	ENDS
;	COMDAT xdata
xdata	SEGMENT
$chain$0$PMC_BitwiseAnd_X_X DD 020521H
	DD	095405H
	DD	imagerel $LN23
	DD	imagerel $LN23+77
	DD	imagerel $unwind$PMC_BitwiseAnd_X_X
xdata	ENDS
;	COMDAT xdata
xdata	SEGMENT
$unwind$PMC_BitwiseAnd_X_X DD 040801H
	DD	070043208H
	DD	030026003H
xdata	ENDS
;	COMDAT xdata
xdata	SEGMENT
$unwind$PMC_BitwiseAnd_X_L DD 060f01H
	DD	07640fH
	DD	06340fH
	DD	0700b320fH
xdata	ENDS
;	COMDAT xdata
xdata	SEGMENT
$unwind$PMC_BitwiseAnd_X_I DD 060f01H
	DD	07640fH
	DD	06340fH
	DD	0700b320fH
xdata	ENDS
;	COMDAT xdata
xdata	SEGMENT
$unwind$PMC_BitwiseAnd_L_X DD 060f01H
	DD	07640fH
	DD	06340fH
	DD	0700b320fH
xdata	ENDS
;	COMDAT xdata
xdata	SEGMENT
$unwind$PMC_BitwiseAnd_I_X DD 060f01H
	DD	07640fH
	DD	06340fH
	DD	0700b320fH
xdata	ENDS
; Function compile flags: /Ogtpy
; File z:\sources\lunor\repos\rougemeilland\palmtree.math.core.uint\palmtree.math.core.uint\pmc_bitwiseand.c
;	COMDAT BitwiseAnd_X_X
_TEXT	SEGMENT
u$ = 16
v$ = 24
w$ = 32
w_count$ = 40
BitwiseAnd_X_X PROC					; COMDAT

; 39   : {

	sub	rsp, 8
	mov	QWORD PTR [rsp+16], rbx
	mov	r10, rcx
	mov	QWORD PTR [rsp+24], rsi
	mov	rsi, r9
	mov	QWORD PTR [rsp], rdi

; 40   :     __UNIT_TYPE count = w_count >> 5;

	mov	rdi, r9
	shr	rdi, 5

; 41   :     while (count != 0)

	test	rdi, rdi
	je	$LN3@BitwiseAnd
	npad	8
$LL2@BitwiseAnd:

; 42   :     {
; 43   :         w[0] = u[0] & v[0];

	lea	rcx, QWORD PTR [rdx+16]
	lea	rax, QWORD PTR [rcx+232]
	cmp	r8, rax
	ja	SHORT $LN30@BitwiseAnd
	lea	rax, QWORD PTR [r8+248]
	cmp	rax, rdx
	jae	SHORT $LN70@BitwiseAnd
$LN30@BitwiseAnd:
	lea	rax, QWORD PTR [r10+248]
	cmp	r8, rax
	ja	SHORT $LN31@BitwiseAnd
	lea	rax, QWORD PTR [r8+248]
	cmp	rax, r10
	jb	SHORT $LN31@BitwiseAnd
$LN70@BitwiseAnd:
	mov	r11, r10
	mov	rbx, r8
	sub	r11, rdx
	mov	rax, rdx
	sub	rbx, rdx
	mov	r9d, 32					; 00000020H
	npad	7
$LL69@BitwiseAnd:
	mov	rcx, QWORD PTR [rax+r11]
	and	rcx, QWORD PTR [rax]
	mov	QWORD PTR [rax+rbx], rcx
	lea	rax, QWORD PTR [rax+8]
	sub	r9, 1
	jne	SHORT $LL69@BitwiseAnd
	jmp	SHORT $LN13@BitwiseAnd
$LN31@BitwiseAnd:
	mov	rax, r10
	mov	r9, r8
	sub	rax, rdx
	mov	r11d, 4
	sub	r9, rdx
	npad	7
$LL12@BitwiseAnd:
	movdqu	xmm0, XMMWORD PTR [rcx-16]
	movdqu	xmm1, XMMWORD PTR [rcx+rax-16]
	movdqu	xmm2, XMMWORD PTR [rcx+rax]
	lea	rcx, QWORD PTR [rcx+64]
	pand	xmm1, xmm0
	movdqu	xmm0, XMMWORD PTR [rcx-64]
	movdqu	XMMWORD PTR [rcx+r9-80], xmm1
	pand	xmm2, xmm0
	movdqu	xmm0, XMMWORD PTR [rcx-48]
	movdqu	xmm1, XMMWORD PTR [rcx+rax-48]
	movdqu	XMMWORD PTR [rcx+r9-64], xmm2
	pand	xmm1, xmm0
	movdqu	xmm0, XMMWORD PTR [rcx-32]
	movdqu	xmm2, XMMWORD PTR [rcx+rax-32]
	movdqu	XMMWORD PTR [rcx+r9-48], xmm1
	pand	xmm2, xmm0
	movdqu	XMMWORD PTR [rcx+r9-32], xmm2
	sub	r11, 1
	jne	SHORT $LL12@BitwiseAnd
$LN13@BitwiseAnd:

; 44   :         w[1] = u[1] & v[1];
; 45   :         w[2] = u[2] & v[2];
; 46   :         w[3] = u[3] & v[3];
; 47   :         w[4] = u[4] & v[4];
; 48   :         w[5] = u[5] & v[5];
; 49   :         w[6] = u[6] & v[6];
; 50   :         w[7] = u[7] & v[7];
; 51   :         w[8] = u[8] & v[8];
; 52   :         w[9] = u[9] & v[9];
; 53   :         w[10] = u[10] & v[10];
; 54   :         w[11] = u[11] & v[11];
; 55   :         w[12] = u[12] & v[12];
; 56   :         w[13] = u[13] & v[13];
; 57   :         w[14] = u[14] & v[14];
; 58   :         w[15] = u[15] & v[15];
; 59   :         w[16] = u[16] & v[16];
; 60   :         w[17] = u[17] & v[17];
; 61   :         w[18] = u[18] & v[18];
; 62   :         w[19] = u[19] & v[19];
; 63   :         w[20] = u[20] & v[20];
; 64   :         w[21] = u[21] & v[21];
; 65   :         w[22] = u[22] & v[22];
; 66   :         w[23] = u[23] & v[23];
; 67   :         w[24] = u[24] & v[24];
; 68   :         w[25] = u[25] & v[25];
; 69   :         w[26] = u[26] & v[26];
; 70   :         w[27] = u[27] & v[27];
; 71   :         w[28] = u[28] & v[28];
; 72   :         w[29] = u[29] & v[29];
; 73   :         w[30] = u[30] & v[30];
; 74   :         w[31] = u[31] & v[31];
; 75   :         u += 32;

	add	r10, 256				; 00000100H

; 76   :         v += 32;

	add	rdx, 256				; 00000100H

; 77   :         w += 32;

	add	r8, 256					; 00000100H

; 78   :         --count;

	sub	rdi, 1
	jne	$LL2@BitwiseAnd
$LN3@BitwiseAnd:

; 79   :     }
; 80   : 
; 81   :     if (w_count & 0x10)

	test	sil, 16
	je	$LN4@BitwiseAnd

; 82   :     {
; 83   :         w[0] = u[0] & v[0];

	lea	rax, QWORD PTR [rdx+120]
	xor	r11d, r11d
	lea	rcx, QWORD PTR [r8+120]
	mov	r9d, 16
	cmp	r8, rax
	ja	SHORT $LN34@BitwiseAnd
	cmp	rcx, rdx
	jae	$LN33@BitwiseAnd
$LN34@BitwiseAnd:
	lea	rax, QWORD PTR [r10+120]
	cmp	r8, rax
	ja	SHORT $LN35@BitwiseAnd
	cmp	rcx, r10
	jae	SHORT $LN33@BitwiseAnd
$LN35@BitwiseAnd:
	mov	rcx, r10
	lea	rax, QWORD PTR [rdx+16]
	sub	rcx, rdx
	mov	r11, r8
	sub	r11, rdx
	mov	ebx, 2
	npad	4
$LL14@BitwiseAnd:
	movdqu	xmm0, XMMWORD PTR [rax-16]
	movdqu	xmm1, XMMWORD PTR [rax+rcx-16]
	movdqu	xmm2, XMMWORD PTR [rax+rcx]
	lea	rax, QWORD PTR [rax+64]
	pand	xmm1, xmm0
	movdqu	xmm0, XMMWORD PTR [rax-64]
	movdqu	XMMWORD PTR [rax+r11-80], xmm1
	pand	xmm2, xmm0
	movdqu	xmm0, XMMWORD PTR [rax-48]
	movdqu	xmm1, XMMWORD PTR [rax+rcx-48]
	movdqu	XMMWORD PTR [rax+r11-64], xmm2
	pand	xmm1, xmm0
	movdqu	xmm0, XMMWORD PTR [rax-32]
	movdqu	xmm2, XMMWORD PTR [rax+rcx-32]
	movdqu	XMMWORD PTR [rax+r11-48], xmm1
	pand	xmm2, xmm0
	movdqu	XMMWORD PTR [rax+r11-32], xmm2
	sub	rbx, 1
	jne	SHORT $LL14@BitwiseAnd
	mov	r11, r9
$LN33@BitwiseAnd:
	cmp	r11, r9
	jae	SHORT $LN15@BitwiseAnd
	mov	rbx, r10
	lea	rcx, QWORD PTR [rdx+r11*8]
	mov	rdi, r8
	sub	rbx, rdx
	sub	rdi, rdx
	sub	r9, r11
	npad	4
$LL32@BitwiseAnd:
	mov	rax, QWORD PTR [rcx+rbx]
	and	rax, QWORD PTR [rcx]
	mov	QWORD PTR [rcx+rdi], rax
	lea	rcx, QWORD PTR [rcx+8]
	sub	r9, 1
	jne	SHORT $LL32@BitwiseAnd
$LN15@BitwiseAnd:

; 84   :         w[1] = u[1] & v[1];
; 85   :         w[2] = u[2] & v[2];
; 86   :         w[3] = u[3] & v[3];
; 87   :         w[4] = u[4] & v[4];
; 88   :         w[5] = u[5] & v[5];
; 89   :         w[6] = u[6] & v[6];
; 90   :         w[7] = u[7] & v[7];
; 91   :         w[8] = u[8] & v[8];
; 92   :         w[9] = u[9] & v[9];
; 93   :         w[10] = u[10] & v[10];
; 94   :         w[11] = u[11] & v[11];
; 95   :         w[12] = u[12] & v[12];
; 96   :         w[13] = u[13] & v[13];
; 97   :         w[14] = u[14] & v[14];
; 98   :         w[15] = u[15] & v[15];
; 99   :         u += 16;

	sub	r10, -128				; ffffffffffffff80H

; 100  :         v += 16;

	sub	rdx, -128				; ffffffffffffff80H

; 101  :         w += 16;

	sub	r8, -128				; ffffffffffffff80H
$LN4@BitwiseAnd:

; 102  :     }
; 103  : 
; 104  :     if (w_count & 0x8)

	mov	rdi, QWORD PTR [rsp]
	mov	rbx, QWORD PTR [rsp+16]
	test	sil, 8
	je	SHORT $LN5@BitwiseAnd

; 105  :     {
; 106  :         w[0] = u[0] & v[0];

	mov	rax, QWORD PTR [r10]
	and	rax, QWORD PTR [rdx]
	mov	QWORD PTR [r8], rax
	mov	rax, QWORD PTR [r10+8]
	and	rax, QWORD PTR [rdx+8]
	mov	QWORD PTR [r8+8], rax
	mov	rax, QWORD PTR [r10+16]
	and	rax, QWORD PTR [rdx+16]
	mov	QWORD PTR [r8+16], rax
	mov	rax, QWORD PTR [r10+24]
	and	rax, QWORD PTR [rdx+24]
	mov	QWORD PTR [r8+24], rax
	mov	rax, QWORD PTR [r10+32]
	and	rax, QWORD PTR [rdx+32]
	mov	QWORD PTR [r8+32], rax
	mov	rax, QWORD PTR [r10+40]
	and	rax, QWORD PTR [rdx+40]
	mov	QWORD PTR [r8+40], rax
	mov	rax, QWORD PTR [r10+48]
	and	rax, QWORD PTR [rdx+48]
	mov	QWORD PTR [r8+48], rax
	mov	rax, QWORD PTR [r10+56]

; 107  :         w[1] = u[1] & v[1];
; 108  :         w[2] = u[2] & v[2];
; 109  :         w[3] = u[3] & v[3];
; 110  :         w[4] = u[4] & v[4];
; 111  :         w[5] = u[5] & v[5];
; 112  :         w[6] = u[6] & v[6];
; 113  :         w[7] = u[7] & v[7];
; 114  :         u += 8;

	add	r10, 64					; 00000040H
	and	rax, QWORD PTR [rdx+56]

; 115  :         v += 8;

	add	rdx, 64					; 00000040H
	mov	QWORD PTR [r8+56], rax

; 116  :         w += 8;

	add	r8, 64					; 00000040H
$LN5@BitwiseAnd:

; 117  :     }
; 118  : 
; 119  :     if (w_count & 0x4)

	test	sil, 4
	je	SHORT $LN6@BitwiseAnd

; 120  :     {
; 121  :         w[0] = u[0] & v[0];

	mov	rax, QWORD PTR [r10]
	and	rax, QWORD PTR [rdx]
	mov	QWORD PTR [r8], rax
	mov	rax, QWORD PTR [r10+8]
	and	rax, QWORD PTR [rdx+8]
	mov	QWORD PTR [r8+8], rax
	mov	rax, QWORD PTR [r10+16]
	and	rax, QWORD PTR [rdx+16]
	mov	QWORD PTR [r8+16], rax
	mov	rax, QWORD PTR [r10+24]

; 122  :         w[1] = u[1] & v[1];
; 123  :         w[2] = u[2] & v[2];
; 124  :         w[3] = u[3] & v[3];
; 125  :         u += 4;

	add	r10, 32					; 00000020H
	and	rax, QWORD PTR [rdx+24]

; 126  :         v += 4;

	add	rdx, 32					; 00000020H
	mov	QWORD PTR [r8+24], rax

; 127  :         w += 4;

	add	r8, 32					; 00000020H
$LN6@BitwiseAnd:

; 128  :     }
; 129  : 
; 130  :     if (w_count & 0x2)

	test	sil, 2
	je	SHORT $LN7@BitwiseAnd

; 131  :     {
; 132  :         w[0] = u[0] & v[0];

	mov	rax, QWORD PTR [r10]
	and	rax, QWORD PTR [rdx]
	mov	QWORD PTR [r8], rax
	mov	rax, QWORD PTR [r10+8]

; 133  :         w[1] = u[1] & v[1];
; 134  :         u += 2;

	add	r10, 16
	and	rax, QWORD PTR [rdx+8]

; 135  :         v += 2;

	add	rdx, 16
	mov	QWORD PTR [r8+8], rax

; 136  :         w += 2;

	add	r8, 16
$LN7@BitwiseAnd:

; 137  :     }
; 138  : 
; 139  :     if (w_count & 0x1)

	test	sil, 1
	mov	rsi, QWORD PTR [rsp+24]
	je	SHORT $LN8@BitwiseAnd

; 140  :     {
; 141  :         w[0] = u[0] & v[0];

	mov	rax, QWORD PTR [r10]
	and	rax, QWORD PTR [rdx]
	mov	QWORD PTR [r8], rax
$LN8@BitwiseAnd:

; 142  :         u += 1;
; 143  :         v += 1;
; 144  :         w += 1;
; 145  :     }
; 146  : }

	add	rsp, 8
	ret	0
BitwiseAnd_X_X ENDP
_TEXT	ENDS
; Function compile flags: /Ogtpy
; File z:\sources\lunor\repos\rougemeilland\palmtree.math.core.uint\palmtree.math.core.uint\pmc_inline_func.h
;	COMDAT _MINIMUM_UNIT
_TEXT	SEGMENT
x$ = 8
y$ = 16
_MINIMUM_UNIT PROC					; COMDAT

; 209  :         return (x <= y ? x : y);

	cmp	rcx, rdx
	cmovbe	rdx, rcx
	mov	rax, rdx

; 210  :     }

	ret	0
_MINIMUM_UNIT ENDP
_TEXT	ENDS
; Function compile flags: /Ogtpy
; File z:\sources\lunor\repos\rougemeilland\palmtree.math.core.uint\palmtree.math.core.uint\pmc_inline_func.h
;	COMDAT _DIVIDE_CEILING_UNIT
_TEXT	SEGMENT
u$ = 8
v$ = 16
_DIVIDE_CEILING_UNIT PROC				; COMDAT

; 194  :         return ((u + v - 1) / v);

	lea	rax, QWORD PTR [rdx-1]
	mov	r8, rdx
	add	rax, rcx
	xor	edx, edx
	div	r8

; 195  :     }

	ret	0
_DIVIDE_CEILING_UNIT ENDP
_TEXT	ENDS
; Function compile flags: /Ogtpy
; File z:\sources\lunor\repos\rougemeilland\palmtree.math.core.uint\palmtree.math.core.uint\pmc_inline_func.h
;	COMDAT _FROMDWORDTOWORD
_TEXT	SEGMENT
value$ = 8
result_high$ = 16
_FROMDWORDTOWORD PROC					; COMDAT

; 183  :         *result_high = (_UINT32_T)(value >> 32);

	mov	rax, rcx
	shr	rax, 32					; 00000020H
	mov	DWORD PTR [rdx], eax

; 184  :         return ((_UINT32_T)value);

	mov	eax, ecx

; 185  :     }

	ret	0
_FROMDWORDTOWORD ENDP
_TEXT	ENDS
; Function compile flags: /Ogtpy
; File z:\sources\lunor\repos\rougemeilland\palmtree.math.core.uint\palmtree.math.core.uint\pmc_inline_func.h
;	COMDAT _FROMWORDTODWORD
_TEXT	SEGMENT
value_high$ = 8
value_low$ = 16
_FROMWORDTODWORD PROC					; COMDAT

; 178  :         return (((_UINT64_T)value_high << 32) | value_low);

	mov	eax, ecx
	shl	rax, 32					; 00000020H
	mov	ecx, edx
	or	rax, rcx

; 179  :     }

	ret	0
_FROMWORDTODWORD ENDP
_TEXT	ENDS
; Function compile flags: /Ogtpy
; File z:\sources\lunor\repos\rougemeilland\palmtree.math.core.uint\palmtree.math.core.uint\pmc_bitwiseand.c
; File z:\sources\lunor\repos\rougemeilland\palmtree.math.core.uint\palmtree.math.core.uint\pmc_inline_func.h
; File z:\sources\lunor\repos\rougemeilland\palmtree.math.core.uint\palmtree.math.core.uint\pmc_bitwiseand.c
; File z:\sources\lunor\repos\rougemeilland\palmtree.math.core.uint\palmtree.math.core.uint\pmc_inline_func.h
; File z:\sources\lunor\repos\rougemeilland\palmtree.math.core.uint\palmtree.math.core.uint\pmc_bitwiseand.c
; File z:\sources\lunor\repos\rougemeilland\palmtree.math.core.uint\palmtree.math.core.uint\pmc_inline_func.h
; File z:\sources\lunor\repos\rougemeilland\palmtree.math.core.uint\palmtree.math.core.uint\pmc_bitwiseand.c
; File z:\sources\lunor\repos\rougemeilland\palmtree.math.core.uint\palmtree.math.core.uint\pmc_inline_func.h
; File z:\sources\lunor\repos\rougemeilland\palmtree.math.core.uint\palmtree.math.core.uint\pmc_bitwiseand.c
;	COMDAT PMC_BitwiseAnd_X_X
_TEXT	SEGMENT
nw$ = 64
u$ = 64
v$ = 72
w$ = 80
nw_light_check_code$1 = 88
PMC_BitwiseAnd_X_X PROC					; COMDAT

; 317  : {

$LN23:
	push	rbx
	push	rsi
	push	rdi
	sub	rsp, 32					; 00000020H
	mov	rsi, r8
	mov	rbx, rdx
	mov	rdi, rcx

; 318  :     if (u == NULL)

	test	rcx, rcx
	je	$LN20@PMC_Bitwis

; 319  :         return (PMC_STATUS_ARGUMENT_ERROR);
; 320  :     if (v == NULL)

	test	rdx, rdx
	je	$LN20@PMC_Bitwis

; 321  :         return (PMC_STATUS_ARGUMENT_ERROR);
; 322  :     if (w == NULL)

	test	r8, r8
	je	$LN20@PMC_Bitwis

; 324  :     NUMBER_HEADER* nu = (NUMBER_HEADER*)u;
; 325  :     NUMBER_HEADER* nv = (NUMBER_HEADER*)v;
; 326  :     PMC_STATUS_CODE result;
; 327  :     if ((result = CheckNumber(nu)) != PMC_STATUS_OK)

	call	CheckNumber
	test	eax, eax
	jne	$LN1@PMC_Bitwis

; 328  :         return (result);
; 329  :     if ((result = CheckNumber(nv)) != PMC_STATUS_OK)

	mov	rcx, rbx
	call	CheckNumber
	test	eax, eax
	jne	$LN1@PMC_Bitwis

; 330  :         return (result);
; 331  :     NUMBER_HEADER* nw;
; 332  :     if (nu->IS_ZERO)

	test	BYTE PTR [rdi+40], 2
	mov	QWORD PTR [rsp+72], rbp
	jne	SHORT $LN19@PMC_Bitwis

; 333  :         *w = &number_zero;
; 334  :     else if (nv->IS_ZERO)

	test	BYTE PTR [rbx+40], 2
	jne	SHORT $LN19@PMC_Bitwis

; 335  :         *w = &number_zero;
; 336  :     else
; 337  :     {
; 338  :         __UNIT_TYPE u_bit_count = nu->UNIT_BIT_COUNT;
; 339  :         __UNIT_TYPE v_bit_count = nv->UNIT_BIT_COUNT;

	mov	rbp, QWORD PTR [rbx+16]

; 342  :         if ((result = AllocateNumber(&nw, w_bit_count, &nw_light_check_code)) != PMC_STATUS_OK)

	lea	r8, QWORD PTR nw_light_check_code$1[rsp]
; File z:\sources\lunor\repos\rougemeilland\palmtree.math.core.uint\palmtree.math.core.uint\pmc_inline_func.h

; 209  :         return (x <= y ? x : y);

	cmp	QWORD PTR [rdi+16], rbp
; File z:\sources\lunor\repos\rougemeilland\palmtree.math.core.uint\palmtree.math.core.uint\pmc_bitwiseand.c

; 342  :         if ((result = AllocateNumber(&nw, w_bit_count, &nw_light_check_code)) != PMC_STATUS_OK)

	lea	rcx, QWORD PTR nw$[rsp]
; File z:\sources\lunor\repos\rougemeilland\palmtree.math.core.uint\palmtree.math.core.uint\pmc_inline_func.h

; 209  :         return (x <= y ? x : y);

	cmovbe	rbp, QWORD PTR [rdi+16]
; File z:\sources\lunor\repos\rougemeilland\palmtree.math.core.uint\palmtree.math.core.uint\pmc_bitwiseand.c

; 342  :         if ((result = AllocateNumber(&nw, w_bit_count, &nw_light_check_code)) != PMC_STATUS_OK)

	mov	rdx, rbp
	call	AllocateNumber
	test	eax, eax
	jne	SHORT $LN21@PMC_Bitwis

; 345  :         BitwiseAnd_X_X(nu->BLOCK, nv->BLOCK, nw->BLOCK, w_word_count);

	mov	r8, QWORD PTR nw$[rsp]
; File z:\sources\lunor\repos\rougemeilland\palmtree.math.core.uint\palmtree.math.core.uint\pmc_inline_func.h

; 194  :         return ((u + v - 1) / v);

	lea	r9, QWORD PTR [rbp+63]
; File z:\sources\lunor\repos\rougemeilland\palmtree.math.core.uint\palmtree.math.core.uint\pmc_bitwiseand.c

; 345  :         BitwiseAnd_X_X(nu->BLOCK, nv->BLOCK, nw->BLOCK, w_word_count);

	mov	rdx, QWORD PTR [rbx+56]
	mov	rcx, QWORD PTR [rdi+56]
; File z:\sources\lunor\repos\rougemeilland\palmtree.math.core.uint\palmtree.math.core.uint\pmc_inline_func.h

; 194  :         return ((u + v - 1) / v);

	shr	r9, 6
; File z:\sources\lunor\repos\rougemeilland\palmtree.math.core.uint\palmtree.math.core.uint\pmc_bitwiseand.c

; 345  :         BitwiseAnd_X_X(nu->BLOCK, nv->BLOCK, nw->BLOCK, w_word_count);

	mov	r8, QWORD PTR [r8+56]
	call	BitwiseAnd_X_X

; 346  :         if ((result = CheckBlockLight(nw->BLOCK, nw_light_check_code)) != PMC_STATUS_OK)

	mov	rcx, QWORD PTR nw$[rsp]
	mov	rdx, QWORD PTR nw_light_check_code$1[rsp]
	mov	rcx, QWORD PTR [rcx+56]
	call	CheckBlockLight
	test	eax, eax
	jne	SHORT $LN21@PMC_Bitwis

; 347  :             return (result);
; 348  :         CommitNumber(nw);

	mov	rcx, QWORD PTR nw$[rsp]
	call	CommitNumber

; 349  :         if (nw->IS_ZERO)

	mov	rax, QWORD PTR nw$[rsp]
	test	BYTE PTR [rax+40], 2
	je	SHORT $LN13@PMC_Bitwis

; 350  :         {
; 351  :             DeallocateNumber(nw);

	mov	rcx, rax
	call	DeallocateNumber
$LN19@PMC_Bitwis:

; 352  :             nw = &number_zero;
; 353  :         }
; 354  :         *w = nw;
; 355  :     }
; 356  : #ifdef _DEBUG
; 357  :     if ((result = CheckNumber(*w)) != PMC_STATUS_OK)
; 358  :         return (result);
; 359  : #endif
; 360  :     return (PMC_STATUS_OK);

	lea	rax, OFFSET FLAT:number_zero
$LN13@PMC_Bitwis:
	mov	QWORD PTR [rsi], rax
	xor	eax, eax
$LN21@PMC_Bitwis:
	mov	rbp, QWORD PTR [rsp+72]
$LN1@PMC_Bitwis:

; 361  : }

	add	rsp, 32					; 00000020H
	pop	rdi
	pop	rsi
	pop	rbx
	ret	0
$LN20@PMC_Bitwis:

; 323  :         return (PMC_STATUS_ARGUMENT_ERROR);

	mov	eax, -1

; 361  : }

	add	rsp, 32					; 00000020H
	pop	rdi
	pop	rsi
	pop	rbx
	ret	0
PMC_BitwiseAnd_X_X ENDP
_TEXT	ENDS
; Function compile flags: /Ogtpy
; File z:\sources\lunor\repos\rougemeilland\palmtree.math.core.uint\palmtree.math.core.uint\pmc_bitwiseand.c
;	COMDAT PMC_BitwiseAnd_X_L
_TEXT	SEGMENT
u$ = 48
v$ = 56
w$ = 64
PMC_BitwiseAnd_X_L PROC					; COMDAT

; 268  : {

$LN22:
	mov	QWORD PTR [rsp+8], rbx
	mov	QWORD PTR [rsp+16], rsi
	push	rdi
	sub	rsp, 32					; 00000020H
	mov	rdi, r8
	mov	rsi, rdx
	mov	rbx, rcx

; 269  :     if (__UNIT_TYPE_BIT_COUNT * 2 < sizeof(v) * 8)
; 270  :     {
; 271  :         // _UINT64_T が 2 ワードで表現しきれない処理系には対応しない
; 272  :         return (PMC_STATUS_INTERNAL_ERROR);
; 273  :     }
; 274  :     if (u == NULL)

	test	rcx, rcx
	je	SHORT $LN19@PMC_Bitwis

; 275  :         return (PMC_STATUS_ARGUMENT_ERROR);
; 276  :     if (w == NULL)

	test	r8, r8
	je	SHORT $LN19@PMC_Bitwis

; 278  :     NUMBER_HEADER* nu = (NUMBER_HEADER*)u;
; 279  :     PMC_STATUS_CODE result;
; 280  :     if ((result = CheckNumber(nu)) != PMC_STATUS_OK)

	call	CheckNumber
	test	eax, eax
	jne	SHORT $LN1@PMC_Bitwis

; 281  :         return (result);
; 282  :     if (nu->IS_ZERO)

	test	BYTE PTR [rbx+40], 2
	jne	SHORT $LN20@PMC_Bitwis

; 283  :     {
; 284  :         // u が 0 である場合
; 285  :         *w = 0;
; 286  :     }
; 287  :     else if (v == 0)

	test	rsi, rsi
	jne	SHORT $LN8@PMC_Bitwis
$LN20@PMC_Bitwis:

; 311  :         }
; 312  :     }
; 313  :     return (PMC_STATUS_OK);

	xor	eax, eax
	mov	QWORD PTR [rdi], rax

; 314  : }

	mov	rbx, QWORD PTR [rsp+48]
	mov	rsi, QWORD PTR [rsp+56]
	add	rsp, 32					; 00000020H
	pop	rdi
	ret	0
$LN8@PMC_Bitwis:

; 288  :     {
; 289  :         // v が 0 である場合
; 290  :         *w = 0;
; 291  :     }
; 292  :     else
; 293  :     {
; 294  :         // u と v がともに 0 ではない場合
; 295  : 
; 296  :         // x と y の和を計算する
; 297  :         if (__UNIT_TYPE_BIT_COUNT < sizeof(v) * 8)
; 298  :         {
; 299  :             // _UINT64_T が 1 ワードで表現しきれない場合
; 300  : 
; 301  :             _UINT32_T v_hi;
; 302  :             _UINT32_T v_lo = _FROMDWORDTOWORD(v, &v_hi);
; 303  :             _UINT32_T w_hi = nu->UNIT_WORD_COUNT > 1 ? nu->BLOCK[1] & v_hi : 0;
; 304  :             _UINT32_T w_lo = nu->BLOCK[0] & v_lo;
; 305  :             *w = _FROMWORDTODWORD(w_hi, w_lo);
; 306  :         }
; 307  :         else
; 308  :         {
; 309  :             // _UINT64_T が 1 ワードで表現できる場合
; 310  :             *w = nu->BLOCK[0] & v;

	mov	rax, QWORD PTR [rbx+56]
	mov	rax, QWORD PTR [rax]
	and	rax, rsi

; 311  :         }
; 312  :     }
; 313  :     return (PMC_STATUS_OK);

	mov	QWORD PTR [rdi], rax
	xor	eax, eax

; 314  : }

	mov	rbx, QWORD PTR [rsp+48]
	mov	rsi, QWORD PTR [rsp+56]
	add	rsp, 32					; 00000020H
	pop	rdi
	ret	0
$LN19@PMC_Bitwis:

; 277  :         return (PMC_STATUS_ARGUMENT_ERROR);

	mov	eax, -1
$LN1@PMC_Bitwis:

; 314  : }

	mov	rbx, QWORD PTR [rsp+48]
	mov	rsi, QWORD PTR [rsp+56]
	add	rsp, 32					; 00000020H
	pop	rdi
	ret	0
PMC_BitwiseAnd_X_L ENDP
_TEXT	ENDS
; Function compile flags: /Ogtpy
; File z:\sources\lunor\repos\rougemeilland\palmtree.math.core.uint\palmtree.math.core.uint\pmc_bitwiseand.c
;	COMDAT PMC_BitwiseAnd_X_I
_TEXT	SEGMENT
u$ = 48
v$ = 56
w$ = 64
PMC_BitwiseAnd_X_I PROC					; COMDAT

; 184  : {

$LN14:
	mov	QWORD PTR [rsp+8], rbx
	mov	QWORD PTR [rsp+16], rsi
	push	rdi
	sub	rsp, 32					; 00000020H
	mov	rdi, r8
	mov	esi, edx
	mov	rbx, rcx

; 185  :     if (__UNIT_TYPE_BIT_COUNT < sizeof(v) * 8)
; 186  :     {
; 187  :         // _UINT32_T が 1 ワードで表現しきれない処理系には対応しない
; 188  :         return (PMC_STATUS_INTERNAL_ERROR);
; 189  :     }
; 190  :     if (u == NULL)

	test	rcx, rcx
	je	SHORT $LN11@PMC_Bitwis

; 191  :         return (PMC_STATUS_ARGUMENT_ERROR);
; 192  :     if (w == NULL)

	test	r8, r8
	je	SHORT $LN11@PMC_Bitwis

; 194  :     NUMBER_HEADER* nu = (NUMBER_HEADER*)u;
; 195  :     PMC_STATUS_CODE result;
; 196  :     if ((result = CheckNumber(nu)) != PMC_STATUS_OK)

	call	CheckNumber
	test	eax, eax
	jne	SHORT $LN1@PMC_Bitwis

; 197  :         return (result);
; 198  :     if (nu->IS_ZERO)

	test	BYTE PTR [rbx+40], 2
	jne	SHORT $LN12@PMC_Bitwis

; 199  :     {
; 200  :         // u が 0 である場合
; 201  :         *w = 0;
; 202  :     }
; 203  :     else  if (v == 0)

	test	esi, esi
	jne	SHORT $LN8@PMC_Bitwis
$LN12@PMC_Bitwis:

; 214  :     }
; 215  :     return (PMC_STATUS_OK);

	xor	eax, eax
	mov	DWORD PTR [rdi], eax

; 216  : }

	mov	rbx, QWORD PTR [rsp+48]
	mov	rsi, QWORD PTR [rsp+56]
	add	rsp, 32					; 00000020H
	pop	rdi
	ret	0
$LN8@PMC_Bitwis:

; 204  :     {
; 205  :         // v が 0 である場合
; 206  :         *w = 0;
; 207  :     }
; 208  :     else
; 209  :     {
; 210  :         // u と v がともに 0 ではない場合
; 211  : 
; 212  :         // u と v の bit AND を計算する
; 213  :         *w = nu->BLOCK[0] & v;

	mov	rax, QWORD PTR [rbx+56]
	mov	eax, DWORD PTR [rax]
	and	eax, esi

; 214  :     }
; 215  :     return (PMC_STATUS_OK);

	mov	DWORD PTR [rdi], eax
	xor	eax, eax

; 216  : }

	mov	rbx, QWORD PTR [rsp+48]
	mov	rsi, QWORD PTR [rsp+56]
	add	rsp, 32					; 00000020H
	pop	rdi
	ret	0
$LN11@PMC_Bitwis:

; 193  :         return (PMC_STATUS_ARGUMENT_ERROR);

	mov	eax, -1
$LN1@PMC_Bitwis:

; 216  : }

	mov	rbx, QWORD PTR [rsp+48]
	mov	rsi, QWORD PTR [rsp+56]
	add	rsp, 32					; 00000020H
	pop	rdi
	ret	0
PMC_BitwiseAnd_X_I ENDP
_TEXT	ENDS
; Function compile flags: /Ogtpy
; File z:\sources\lunor\repos\rougemeilland\palmtree.math.core.uint\palmtree.math.core.uint\pmc_bitwiseand.c
;	COMDAT PMC_BitwiseAnd_L_X
_TEXT	SEGMENT
u$ = 48
v$ = 56
w$ = 64
PMC_BitwiseAnd_L_X PROC					; COMDAT

; 219  : {

$LN22:
	mov	QWORD PTR [rsp+8], rbx
	mov	QWORD PTR [rsp+16], rsi
	push	rdi
	sub	rsp, 32					; 00000020H
	mov	rdi, r8
	mov	rbx, rdx
	mov	rsi, rcx

; 220  :     if (__UNIT_TYPE_BIT_COUNT * 2 < sizeof(u) * 8)
; 221  :     {
; 222  :         // _UINT64_T が 2 ワードで表現しきれない処理系には対応しない
; 223  :         return (PMC_STATUS_INTERNAL_ERROR);
; 224  :     }
; 225  :     if (v == NULL)

	test	rdx, rdx
	je	SHORT $LN19@PMC_Bitwis

; 226  :         return (PMC_STATUS_ARGUMENT_ERROR);
; 227  :     if (w == NULL)

	test	r8, r8
	je	SHORT $LN19@PMC_Bitwis

; 229  :     NUMBER_HEADER* nv = (NUMBER_HEADER*)v;
; 230  :     PMC_STATUS_CODE result;
; 231  :     if ((result = CheckNumber(nv)) != PMC_STATUS_OK)

	mov	rcx, rdx
	call	CheckNumber
	test	eax, eax
	jne	SHORT $LN1@PMC_Bitwis

; 232  :         return (result);
; 233  :     if (nv->IS_ZERO)

	test	BYTE PTR [rbx+40], 2
	jne	SHORT $LN20@PMC_Bitwis

; 234  :     {
; 235  :         // v が 0 である場合
; 236  :         *w = 0;
; 237  :     }
; 238  :     else if (u == 0)

	test	rsi, rsi
	jne	SHORT $LN8@PMC_Bitwis
$LN20@PMC_Bitwis:

; 262  :         }
; 263  :     }
; 264  :     return (PMC_STATUS_OK);

	xor	eax, eax
	mov	QWORD PTR [rdi], rax

; 265  : }

	mov	rbx, QWORD PTR [rsp+48]
	mov	rsi, QWORD PTR [rsp+56]
	add	rsp, 32					; 00000020H
	pop	rdi
	ret	0
$LN8@PMC_Bitwis:

; 239  :     {
; 240  :         // u が 0 である場合
; 241  :         *w = 0;
; 242  :     }
; 243  :     else
; 244  :     {
; 245  :         // u と v がともに 0 ではない場合
; 246  : 
; 247  :         // x と y の和を計算する
; 248  :         if (__UNIT_TYPE_BIT_COUNT < sizeof(u) * 8)
; 249  :         {
; 250  :             // _UINT64_T が 1 ワードで表現しきれない場合
; 251  : 
; 252  :             _UINT32_T u_hi;
; 253  :             _UINT32_T u_lo = _FROMDWORDTOWORD(u, &u_hi);
; 254  :             _UINT32_T w_hi = nv->UNIT_WORD_COUNT > 1 ? nv->BLOCK[1] & u_hi : 0;
; 255  :             _UINT32_T w_lo = nv->BLOCK[0] & u_lo;
; 256  :             *w = _FROMWORDTODWORD(w_hi, w_lo);
; 257  :         }
; 258  :         else
; 259  :         {
; 260  :             // _UINT64_T が 1 ワードで表現できる場合
; 261  :             *w = nv->BLOCK[0] & u;

	mov	rax, QWORD PTR [rbx+56]
	mov	rax, QWORD PTR [rax]
	and	rax, rsi

; 262  :         }
; 263  :     }
; 264  :     return (PMC_STATUS_OK);

	mov	QWORD PTR [rdi], rax
	xor	eax, eax

; 265  : }

	mov	rbx, QWORD PTR [rsp+48]
	mov	rsi, QWORD PTR [rsp+56]
	add	rsp, 32					; 00000020H
	pop	rdi
	ret	0
$LN19@PMC_Bitwis:

; 228  :         return (PMC_STATUS_ARGUMENT_ERROR);

	mov	eax, -1
$LN1@PMC_Bitwis:

; 265  : }

	mov	rbx, QWORD PTR [rsp+48]
	mov	rsi, QWORD PTR [rsp+56]
	add	rsp, 32					; 00000020H
	pop	rdi
	ret	0
PMC_BitwiseAnd_L_X ENDP
_TEXT	ENDS
; Function compile flags: /Ogtpy
; File z:\sources\lunor\repos\rougemeilland\palmtree.math.core.uint\palmtree.math.core.uint\pmc_bitwiseand.c
;	COMDAT PMC_BitwiseAnd_I_X
_TEXT	SEGMENT
u$ = 48
v$ = 56
w$ = 64
PMC_BitwiseAnd_I_X PROC					; COMDAT

; 149  : {

$LN14:
	mov	QWORD PTR [rsp+8], rbx
	mov	QWORD PTR [rsp+16], rsi
	push	rdi
	sub	rsp, 32					; 00000020H
	mov	rdi, r8
	mov	rbx, rdx
	mov	esi, ecx

; 150  :     if (__UNIT_TYPE_BIT_COUNT < sizeof(u) * 8)
; 151  :     {
; 152  :         // _UINT32_T が 1 ワードで表現しきれない処理系には対応しない
; 153  :         return (PMC_STATUS_INTERNAL_ERROR);
; 154  :     }
; 155  :     if (v == NULL)

	test	rdx, rdx
	je	SHORT $LN11@PMC_Bitwis

; 156  :         return (PMC_STATUS_ARGUMENT_ERROR);
; 157  :     if (w == NULL)

	test	r8, r8
	je	SHORT $LN11@PMC_Bitwis

; 159  :     NUMBER_HEADER* nv = (NUMBER_HEADER*)v;
; 160  :     PMC_STATUS_CODE result;
; 161  :     if ((result = CheckNumber(nv)) != PMC_STATUS_OK)

	mov	rcx, rdx
	call	CheckNumber
	test	eax, eax
	jne	SHORT $LN1@PMC_Bitwis

; 162  :         return (result);
; 163  :     if (nv->IS_ZERO)

	test	BYTE PTR [rbx+40], 2
	jne	SHORT $LN12@PMC_Bitwis

; 164  :     {
; 165  :         // v が 0 である場合
; 166  :         *w = 0;
; 167  :     }
; 168  :     else  if (u == 0)

	test	esi, esi
	jne	SHORT $LN8@PMC_Bitwis
$LN12@PMC_Bitwis:

; 179  :     }
; 180  :     return (PMC_STATUS_OK);

	xor	eax, eax
	mov	DWORD PTR [rdi], eax

; 181  : }

	mov	rbx, QWORD PTR [rsp+48]
	mov	rsi, QWORD PTR [rsp+56]
	add	rsp, 32					; 00000020H
	pop	rdi
	ret	0
$LN8@PMC_Bitwis:

; 169  :     {
; 170  :         // u が 0 である場合
; 171  :         *w = 0;
; 172  :     }
; 173  :     else
; 174  :     {
; 175  :         // u と v がともに 0 ではない場合
; 176  : 
; 177  :         // u と v の bit AND を計算する
; 178  :         *w = nv->BLOCK[0] & u;

	mov	rax, QWORD PTR [rbx+56]
	mov	eax, DWORD PTR [rax]
	and	eax, esi

; 179  :     }
; 180  :     return (PMC_STATUS_OK);

	mov	DWORD PTR [rdi], eax
	xor	eax, eax

; 181  : }

	mov	rbx, QWORD PTR [rsp+48]
	mov	rsi, QWORD PTR [rsp+56]
	add	rsp, 32					; 00000020H
	pop	rdi
	ret	0
$LN11@PMC_Bitwis:

; 158  :         return (PMC_STATUS_ARGUMENT_ERROR);

	mov	eax, -1
$LN1@PMC_Bitwis:

; 181  : }

	mov	rbx, QWORD PTR [rsp+48]
	mov	rsi, QWORD PTR [rsp+56]
	add	rsp, 32					; 00000020H
	pop	rdi
	ret	0
PMC_BitwiseAnd_I_X ENDP
_TEXT	ENDS
; Function compile flags: /Ogtpy
; File z:\sources\lunor\repos\rougemeilland\palmtree.math.core.uint\palmtree.math.core.uint\pmc_bitwiseand.c
;	COMDAT Initialize_BitwiseAnd
_TEXT	SEGMENT
feature$ = 8
Initialize_BitwiseAnd PROC				; COMDAT

; 366  :     return (PMC_STATUS_OK);

	xor	eax, eax

; 367  : }

	ret	0
Initialize_BitwiseAnd ENDP
_TEXT	ENDS
END
