; Listing generated by Microsoft (R) Optimizing Compiler Version 19.16.27027.1 

include listing.inc

INCLUDELIB MSVCRT
INCLUDELIB OLDNAMES

PUBLIC	??1exception@std@@UEAA@XZ			; std::exception::~exception
PUBLIC	?what@exception@std@@UEBAPEBDXZ			; std::exception::what
PUBLIC	??_Gexception@std@@UEAAPEAXI@Z			; std::exception::`scalar deleting destructor'
PUBLIC	??0Exception@Internal@Core@Math@Palmtree@@QEAA@AEBV01234@@Z ; Palmtree::Math::Core::Internal::Exception::Exception
PUBLIC	??1Exception@Internal@Core@Math@Palmtree@@UEAA@XZ ; Palmtree::Math::Core::Internal::Exception::~Exception
PUBLIC	??_GException@Internal@Core@Math@Palmtree@@UEAAPEAXI@Z ; Palmtree::Math::Core::Internal::Exception::`scalar deleting destructor'
PUBLIC	??0ArgumentNullException@Internal@Core@Math@Palmtree@@QEAA@PEB_W0@Z ; Palmtree::Math::Core::Internal::ArgumentNullException::ArgumentNullException
PUBLIC	??0ArgumentNullException@Internal@Core@Math@Palmtree@@QEAA@AEBV01234@@Z ; Palmtree::Math::Core::Internal::ArgumentNullException::ArgumentNullException
PUBLIC	??1ArgumentNullException@Internal@Core@Math@Palmtree@@UEAA@XZ ; Palmtree::Math::Core::Internal::ArgumentNullException::~ArgumentNullException
PUBLIC	??_GArgumentNullException@Internal@Core@Math@Palmtree@@UEAAPEAXI@Z ; Palmtree::Math::Core::Internal::ArgumentNullException::`scalar deleting destructor'
PUBLIC	??1InternalErrorException@Internal@Core@Math@Palmtree@@UEAA@XZ ; Palmtree::Math::Core::Internal::InternalErrorException::~InternalErrorException
PUBLIC	??_GInternalErrorException@Internal@Core@Math@Palmtree@@UEAAPEAXI@Z ; Palmtree::Math::Core::Internal::InternalErrorException::`scalar deleting destructor'
PUBLIC	?Initialize_BitwiseAnd@Internal@Core@Math@Palmtree@@YAHPEAU_tag_PROCESSOR_FEATURES@1234@@Z ; Palmtree::Math::Core::Internal::Initialize_BitwiseAnd
PUBLIC	?PMC_BitwiseAnd_I_X@Internal@Core@Math@Palmtree@@YAIIPEAU__tag_PMC_HANDLE_UINT@1234@@Z ; Palmtree::Math::Core::Internal::PMC_BitwiseAnd_I_X
PUBLIC	?PMC_BitwiseAnd_L_X@Internal@Core@Math@Palmtree@@YA_K_KPEAU__tag_PMC_HANDLE_UINT@1234@@Z ; Palmtree::Math::Core::Internal::PMC_BitwiseAnd_L_X
PUBLIC	?PMC_BitwiseAnd_X_I@Internal@Core@Math@Palmtree@@YAIPEAU__tag_PMC_HANDLE_UINT@1234@I@Z ; Palmtree::Math::Core::Internal::PMC_BitwiseAnd_X_I
PUBLIC	?PMC_BitwiseAnd_X_L@Internal@Core@Math@Palmtree@@YA_KPEAU__tag_PMC_HANDLE_UINT@1234@_K@Z ; Palmtree::Math::Core::Internal::PMC_BitwiseAnd_X_L
PUBLIC	?PMC_BitwiseAnd_X_X@Internal@Core@Math@Palmtree@@YAPEAU__tag_PMC_HANDLE_UINT@1234@PEAU51234@0@Z ; Palmtree::Math::Core::Internal::PMC_BitwiseAnd_X_X
PUBLIC	??_7exception@std@@6B@				; std::exception::`vftable'
PUBLIC	??_C@_0BC@EOODALEL@Unknown?5exception@		; `string'
PUBLIC	??_7Exception@Internal@Core@Math@Palmtree@@6B@	; Palmtree::Math::Core::Internal::Exception::`vftable'
PUBLIC	??_7ArgumentNullException@Internal@Core@Math@Palmtree@@6B@ ; Palmtree::Math::Core::Internal::ArgumentNullException::`vftable'
PUBLIC	??_7InternalErrorException@Internal@Core@Math@Palmtree@@6B@ ; Palmtree::Math::Core::Internal::InternalErrorException::`vftable'
PUBLIC	??_R0?AVInternalErrorException@Internal@Core@Math@Palmtree@@@8 ; Palmtree::Math::Core::Internal::InternalErrorException `RTTI Type Descriptor'
PUBLIC	??_R0?AVException@Internal@Core@Math@Palmtree@@@8 ; Palmtree::Math::Core::Internal::Exception `RTTI Type Descriptor'
PUBLIC	_CT??_R0?AVException@Internal@Core@Math@Palmtree@@@8??0Exception@Internal@Core@Math@Palmtree@@QEAA@AEBV01234@@Z48
PUBLIC	_TI2?AVArgumentNullException@Internal@Core@Math@Palmtree@@
PUBLIC	_CTA2?AVArgumentNullException@Internal@Core@Math@Palmtree@@
PUBLIC	??_R0?AVArgumentNullException@Internal@Core@Math@Palmtree@@@8 ; Palmtree::Math::Core::Internal::ArgumentNullException `RTTI Type Descriptor'
PUBLIC	_CT??_R0?AVArgumentNullException@Internal@Core@Math@Palmtree@@@8??0ArgumentNullException@Internal@Core@Math@Palmtree@@QEAA@AEBV01234@@Z48
PUBLIC	??_C@_13JAOPNPKD@?$AAv@				; `string'
PUBLIC	??_C@_1CK@ECFIEPAC@?$AA?$BF?$AAp?$AAk?$AAn?$AAu?$AAl?$AAl?$AAp?$AAt?$AAr?$AAL?$AA?$AO?$AAH?$PP?$IJ?$PP?$IM@ ; `string'
PUBLIC	??_C@_13ICFKHAEN@?$AAu@				; `string'
PUBLIC	??_R4exception@std@@6B@				; std::exception::`RTTI Complete Object Locator'
PUBLIC	??_R0?AVexception@std@@@8			; std::exception `RTTI Type Descriptor'
PUBLIC	??_R3exception@std@@8				; std::exception::`RTTI Class Hierarchy Descriptor'
PUBLIC	??_R2exception@std@@8				; std::exception::`RTTI Base Class Array'
PUBLIC	??_R1A@?0A@EA@exception@std@@8			; std::exception::`RTTI Base Class Descriptor at (0,-1,0,64)'
PUBLIC	??_R4Exception@Internal@Core@Math@Palmtree@@6B@	; Palmtree::Math::Core::Internal::Exception::`RTTI Complete Object Locator'
PUBLIC	??_R3Exception@Internal@Core@Math@Palmtree@@8	; Palmtree::Math::Core::Internal::Exception::`RTTI Class Hierarchy Descriptor'
PUBLIC	??_R2Exception@Internal@Core@Math@Palmtree@@8	; Palmtree::Math::Core::Internal::Exception::`RTTI Base Class Array'
PUBLIC	??_R1A@?0A@EA@Exception@Internal@Core@Math@Palmtree@@8 ; Palmtree::Math::Core::Internal::Exception::`RTTI Base Class Descriptor at (0,-1,0,64)'
PUBLIC	??_R1A@?0A@EN@exception@std@@8			; std::exception::`RTTI Base Class Descriptor at (0,-1,0,77)'
PUBLIC	??_R4ArgumentNullException@Internal@Core@Math@Palmtree@@6B@ ; Palmtree::Math::Core::Internal::ArgumentNullException::`RTTI Complete Object Locator'
PUBLIC	??_R3ArgumentNullException@Internal@Core@Math@Palmtree@@8 ; Palmtree::Math::Core::Internal::ArgumentNullException::`RTTI Class Hierarchy Descriptor'
PUBLIC	??_R2ArgumentNullException@Internal@Core@Math@Palmtree@@8 ; Palmtree::Math::Core::Internal::ArgumentNullException::`RTTI Base Class Array'
PUBLIC	??_R1A@?0A@EA@ArgumentNullException@Internal@Core@Math@Palmtree@@8 ; Palmtree::Math::Core::Internal::ArgumentNullException::`RTTI Base Class Descriptor at (0,-1,0,64)'
PUBLIC	??_R4InternalErrorException@Internal@Core@Math@Palmtree@@6B@ ; Palmtree::Math::Core::Internal::InternalErrorException::`RTTI Complete Object Locator'
PUBLIC	??_R3InternalErrorException@Internal@Core@Math@Palmtree@@8 ; Palmtree::Math::Core::Internal::InternalErrorException::`RTTI Class Hierarchy Descriptor'
PUBLIC	??_R2InternalErrorException@Internal@Core@Math@Palmtree@@8 ; Palmtree::Math::Core::Internal::InternalErrorException::`RTTI Base Class Array'
PUBLIC	??_R1A@?0A@EA@InternalErrorException@Internal@Core@Math@Palmtree@@8 ; Palmtree::Math::Core::Internal::InternalErrorException::`RTTI Base Class Descriptor at (0,-1,0,64)'
EXTRN	??3@YAXPEAX_K@Z:PROC				; operator delete
EXTRN	__std_exception_destroy:PROC
EXTRN	??_Eexception@std@@UEAAPEAXI@Z:PROC		; std::exception::`vector deleting destructor'
EXTRN	??_EException@Internal@Core@Math@Palmtree@@UEAAPEAXI@Z:PROC ; Palmtree::Math::Core::Internal::Exception::`vector deleting destructor'
EXTRN	??_EArgumentNullException@Internal@Core@Math@Palmtree@@UEAAPEAXI@Z:PROC ; Palmtree::Math::Core::Internal::ArgumentNullException::`vector deleting destructor'
EXTRN	??_EInternalErrorException@Internal@Core@Math@Palmtree@@UEAAPEAXI@Z:PROC ; Palmtree::Math::Core::Internal::InternalErrorException::`vector deleting destructor'
EXTRN	?CommitNumber@Internal@Core@Math@Palmtree@@YAXPEAU__tag_NUMBER_HEADER@1234@@Z:PROC ; Palmtree::Math::Core::Internal::CommitNumber
EXTRN	?CheckNumber@Internal@Core@Math@Palmtree@@YAXPEAU__tag_NUMBER_HEADER@1234@@Z:PROC ; Palmtree::Math::Core::Internal::CheckNumber
EXTRN	??0ResourceHolderUINT@Internal@Core@Math@Palmtree@@QEAA@XZ:PROC ; Palmtree::Math::Core::Internal::ResourceHolderUINT::ResourceHolderUINT
EXTRN	??1ResourceHolderUINT@Internal@Core@Math@Palmtree@@UEAA@XZ:PROC ; Palmtree::Math::Core::Internal::ResourceHolderUINT::~ResourceHolderUINT
EXTRN	?AllocateNumber@ResourceHolderUINT@Internal@Core@Math@Palmtree@@QEAAPEAU__tag_NUMBER_HEADER@2345@_K@Z:PROC ; Palmtree::Math::Core::Internal::ResourceHolderUINT::AllocateNumber
EXTRN	?HookNumber@ResourceHolderUINT@Internal@Core@Math@Palmtree@@QEAAXPEAU__tag_NUMBER_HEADER@2345@@Z:PROC ; Palmtree::Math::Core::Internal::ResourceHolderUINT::HookNumber
EXTRN	?DeallocateNumber@ResourceHolderUINT@Internal@Core@Math@Palmtree@@QEAAXPEAU__tag_NUMBER_HEADER@2345@@Z:PROC ; Palmtree::Math::Core::Internal::ResourceHolderUINT::DeallocateNumber
EXTRN	?CheckNumber@ResourceHolderUINT@Internal@Core@Math@Palmtree@@QEAAXPEAU__tag_NUMBER_HEADER@2345@@Z:PROC ; Palmtree::Math::Core::Internal::ResourceHolderUINT::CheckNumber
EXTRN	?UnlinkNumber@ResourceHolderUINT@Internal@Core@Math@Palmtree@@QEAAXPEAU__tag_NUMBER_HEADER@2345@@Z:PROC ; Palmtree::Math::Core::Internal::ResourceHolderUINT::UnlinkNumber
EXTRN	_CxxThrowException:PROC
EXTRN	__CxxFrameHandler3:PROC
EXTRN	?number_zero@Internal@Core@Math@Palmtree@@3U__tag_NUMBER_HEADER@1234@A:BYTE ; Palmtree::Math::Core::Internal::number_zero
EXTRN	??_7type_info@@6B@:BYTE				; type_info::`vftable'
;	COMDAT pdata
pdata	SEGMENT
$pdata$??1exception@std@@UEAA@XZ DD imagerel $LN5
	DD	imagerel $LN5+38
	DD	imagerel $unwind$??1exception@std@@UEAA@XZ
pdata	ENDS
;	COMDAT pdata
pdata	SEGMENT
$pdata$??_Gexception@std@@UEAAPEAXI@Z DD imagerel $LN9
	DD	imagerel $LN9+78
	DD	imagerel $unwind$??_Gexception@std@@UEAAPEAXI@Z
pdata	ENDS
;	COMDAT pdata
pdata	SEGMENT
$pdata$??0Exception@Internal@Core@Math@Palmtree@@IEAA@HPEB_W0@Z DD imagerel $LN8
	DD	imagerel $LN8+66
	DD	imagerel $unwind$??0Exception@Internal@Core@Math@Palmtree@@IEAA@HPEB_W0@Z
pdata	ENDS
;	COMDAT pdata
pdata	SEGMENT
$pdata$??0Exception@Internal@Core@Math@Palmtree@@QEAA@AEBV01234@@Z DD imagerel $LN8
	DD	imagerel $LN8+77
	DD	imagerel $unwind$??0Exception@Internal@Core@Math@Palmtree@@QEAA@AEBV01234@@Z
pdata	ENDS
;	COMDAT pdata
pdata	SEGMENT
$pdata$??1Exception@Internal@Core@Math@Palmtree@@UEAA@XZ DD imagerel $LN8
	DD	imagerel $LN8+53
	DD	imagerel $unwind$??1Exception@Internal@Core@Math@Palmtree@@UEAA@XZ
pdata	ENDS
;	COMDAT pdata
pdata	SEGMENT
$pdata$??_GException@Internal@Core@Math@Palmtree@@UEAAPEAXI@Z DD imagerel $LN12
	DD	imagerel $LN12+92
	DD	imagerel $unwind$??_GException@Internal@Core@Math@Palmtree@@UEAAPEAXI@Z
pdata	ENDS
;	COMDAT pdata
pdata	SEGMENT
$pdata$??0ArgumentNullException@Internal@Core@Math@Palmtree@@QEAA@PEB_W0@Z DD imagerel $LN11
	DD	imagerel $LN11+80
	DD	imagerel $unwind$??0ArgumentNullException@Internal@Core@Math@Palmtree@@QEAA@PEB_W0@Z
pdata	ENDS
;	COMDAT pdata
pdata	SEGMENT
$pdata$??0ArgumentNullException@Internal@Core@Math@Palmtree@@QEAA@AEBV01234@@Z DD imagerel $LN11
	DD	imagerel $LN11+87
	DD	imagerel $unwind$??0ArgumentNullException@Internal@Core@Math@Palmtree@@QEAA@AEBV01234@@Z
pdata	ENDS
;	COMDAT pdata
pdata	SEGMENT
$pdata$??1ArgumentNullException@Internal@Core@Math@Palmtree@@UEAA@XZ DD imagerel $LN11
	DD	imagerel $LN11+63
	DD	imagerel $unwind$??1ArgumentNullException@Internal@Core@Math@Palmtree@@UEAA@XZ
pdata	ENDS
;	COMDAT pdata
pdata	SEGMENT
$pdata$??_GArgumentNullException@Internal@Core@Math@Palmtree@@UEAAPEAXI@Z DD imagerel $LN15
	DD	imagerel $LN15+102
	DD	imagerel $unwind$??_GArgumentNullException@Internal@Core@Math@Palmtree@@UEAAPEAXI@Z
pdata	ENDS
;	COMDAT pdata
pdata	SEGMENT
$pdata$??0InternalErrorException@Internal@Core@Math@Palmtree@@QEAA@PEB_W0@Z DD imagerel $LN11
	DD	imagerel $LN11+80
	DD	imagerel $unwind$??0InternalErrorException@Internal@Core@Math@Palmtree@@QEAA@PEB_W0@Z
pdata	ENDS
;	COMDAT pdata
pdata	SEGMENT
$pdata$??1InternalErrorException@Internal@Core@Math@Palmtree@@UEAA@XZ DD imagerel $LN11
	DD	imagerel $LN11+63
	DD	imagerel $unwind$??1InternalErrorException@Internal@Core@Math@Palmtree@@UEAA@XZ
pdata	ENDS
;	COMDAT pdata
pdata	SEGMENT
$pdata$??_GInternalErrorException@Internal@Core@Math@Palmtree@@UEAAPEAXI@Z DD imagerel $LN15
	DD	imagerel $LN15+102
	DD	imagerel $unwind$??_GInternalErrorException@Internal@Core@Math@Palmtree@@UEAAPEAXI@Z
pdata	ENDS
;	COMDAT pdata
pdata	SEGMENT
$pdata$?PMC_BitwiseAnd_I_X@Internal@Core@Math@Palmtree@@YAIIPEAU__tag_PMC_HANDLE_UINT@1234@@Z DD imagerel $LN13
	DD	imagerel $LN13+112
	DD	imagerel $unwind$?PMC_BitwiseAnd_I_X@Internal@Core@Math@Palmtree@@YAIIPEAU__tag_PMC_HANDLE_UINT@1234@@Z
pdata	ENDS
;	COMDAT pdata
pdata	SEGMENT
$pdata$?PMC_BitwiseAnd_L_X@Internal@Core@Math@Palmtree@@YA_K_KPEAU__tag_PMC_HANDLE_UINT@1234@@Z DD imagerel $LN21
	DD	imagerel $LN21+116
	DD	imagerel $unwind$?PMC_BitwiseAnd_L_X@Internal@Core@Math@Palmtree@@YA_K_KPEAU__tag_PMC_HANDLE_UINT@1234@@Z
pdata	ENDS
;	COMDAT pdata
pdata	SEGMENT
$pdata$?PMC_BitwiseAnd_X_I@Internal@Core@Math@Palmtree@@YAIPEAU__tag_PMC_HANDLE_UINT@1234@I@Z DD imagerel $LN13
	DD	imagerel $LN13+109
	DD	imagerel $unwind$?PMC_BitwiseAnd_X_I@Internal@Core@Math@Palmtree@@YAIPEAU__tag_PMC_HANDLE_UINT@1234@I@Z
pdata	ENDS
;	COMDAT pdata
pdata	SEGMENT
$pdata$?PMC_BitwiseAnd_X_L@Internal@Core@Math@Palmtree@@YA_KPEAU__tag_PMC_HANDLE_UINT@1234@_K@Z DD imagerel $LN21
	DD	imagerel $LN21+113
	DD	imagerel $unwind$?PMC_BitwiseAnd_X_L@Internal@Core@Math@Palmtree@@YA_KPEAU__tag_PMC_HANDLE_UINT@1234@_K@Z
pdata	ENDS
;	COMDAT pdata
pdata	SEGMENT
$pdata$?PMC_BitwiseAnd_X_X@Internal@Core@Math@Palmtree@@YAPEAU__tag_PMC_HANDLE_UINT@1234@PEAU51234@0@Z DD imagerel $LN24
	DD	imagerel $LN24+381
	DD	imagerel $unwind$?PMC_BitwiseAnd_X_X@Internal@Core@Math@Palmtree@@YAPEAU__tag_PMC_HANDLE_UINT@1234@PEAU51234@0@Z
pdata	ENDS
;	COMDAT pdata
pdata	SEGMENT
$pdata$?BitwiseAnd_X_X@Internal@Core@Math@Palmtree@@YAXPEA_K00_K@Z DD imagerel ?BitwiseAnd_X_X@Internal@Core@Math@Palmtree@@YAXPEA_K00_K@Z
	DD	imagerel ?BitwiseAnd_X_X@Internal@Core@Math@Palmtree@@YAXPEA_K00_K@Z+4
	DD	imagerel $unwind$?BitwiseAnd_X_X@Internal@Core@Math@Palmtree@@YAXPEA_K00_K@Z
pdata	ENDS
;	COMDAT pdata
pdata	SEGMENT
$pdata$2$?BitwiseAnd_X_X@Internal@Core@Math@Palmtree@@YAXPEA_K00_K@Z DD imagerel ?BitwiseAnd_X_X@Internal@Core@Math@Palmtree@@YAXPEA_K00_K@Z+4
	DD	imagerel ?BitwiseAnd_X_X@Internal@Core@Math@Palmtree@@YAXPEA_K00_K@Z+560
	DD	imagerel $chain$2$?BitwiseAnd_X_X@Internal@Core@Math@Palmtree@@YAXPEA_K00_K@Z
pdata	ENDS
;	COMDAT pdata
pdata	SEGMENT
$pdata$3$?BitwiseAnd_X_X@Internal@Core@Math@Palmtree@@YAXPEA_K00_K@Z DD imagerel ?BitwiseAnd_X_X@Internal@Core@Math@Palmtree@@YAXPEA_K00_K@Z+560
	DD	imagerel ?BitwiseAnd_X_X@Internal@Core@Math@Palmtree@@YAXPEA_K00_K@Z+778
	DD	imagerel $chain$3$?BitwiseAnd_X_X@Internal@Core@Math@Palmtree@@YAXPEA_K00_K@Z
pdata	ENDS
;	COMDAT pdata
pdata	SEGMENT
$pdata$4$?BitwiseAnd_X_X@Internal@Core@Math@Palmtree@@YAXPEA_K00_K@Z DD imagerel ?BitwiseAnd_X_X@Internal@Core@Math@Palmtree@@YAXPEA_K00_K@Z+778
	DD	imagerel ?BitwiseAnd_X_X@Internal@Core@Math@Palmtree@@YAXPEA_K00_K@Z+792
	DD	imagerel $chain$4$?BitwiseAnd_X_X@Internal@Core@Math@Palmtree@@YAXPEA_K00_K@Z
pdata	ENDS
;	COMDAT pdata
pdata	SEGMENT
$pdata$?PMC_BitwiseAnd_X_X_Imp@Internal@Core@Math@Palmtree@@YAPEAU__tag_NUMBER_HEADER@1234@PEAU51234@0@Z DD imagerel ?PMC_BitwiseAnd_X_X_Imp@Internal@Core@Math@Palmtree@@YAPEAU__tag_NUMBER_HEADER@1234@PEAU51234@0@Z
	DD	imagerel ?PMC_BitwiseAnd_X_X_Imp@Internal@Core@Math@Palmtree@@YAPEAU__tag_NUMBER_HEADER@1234@PEAU51234@0@Z+214
	DD	imagerel $unwind$?PMC_BitwiseAnd_X_X_Imp@Internal@Core@Math@Palmtree@@YAPEAU__tag_NUMBER_HEADER@1234@PEAU51234@0@Z
pdata	ENDS
;	COMDAT ??_R1A@?0A@EA@InternalErrorException@Internal@Core@Math@Palmtree@@8
rdata$r	SEGMENT
??_R1A@?0A@EA@InternalErrorException@Internal@Core@Math@Palmtree@@8 DD imagerel ??_R0?AVInternalErrorException@Internal@Core@Math@Palmtree@@@8 ; Palmtree::Math::Core::Internal::InternalErrorException::`RTTI Base Class Descriptor at (0,-1,0,64)'
	DD	02H
	DD	00H
	DD	0ffffffffH
	DD	00H
	DD	040H
	DD	imagerel ??_R3InternalErrorException@Internal@Core@Math@Palmtree@@8
rdata$r	ENDS
;	COMDAT ??_R2InternalErrorException@Internal@Core@Math@Palmtree@@8
rdata$r	SEGMENT
??_R2InternalErrorException@Internal@Core@Math@Palmtree@@8 DD imagerel ??_R1A@?0A@EA@InternalErrorException@Internal@Core@Math@Palmtree@@8 ; Palmtree::Math::Core::Internal::InternalErrorException::`RTTI Base Class Array'
	DD	imagerel ??_R1A@?0A@EA@Exception@Internal@Core@Math@Palmtree@@8
	DD	imagerel ??_R1A@?0A@EN@exception@std@@8
	ORG $+3
rdata$r	ENDS
;	COMDAT ??_R3InternalErrorException@Internal@Core@Math@Palmtree@@8
rdata$r	SEGMENT
??_R3InternalErrorException@Internal@Core@Math@Palmtree@@8 DD 00H ; Palmtree::Math::Core::Internal::InternalErrorException::`RTTI Class Hierarchy Descriptor'
	DD	00H
	DD	03H
	DD	imagerel ??_R2InternalErrorException@Internal@Core@Math@Palmtree@@8
rdata$r	ENDS
;	COMDAT ??_R4InternalErrorException@Internal@Core@Math@Palmtree@@6B@
rdata$r	SEGMENT
??_R4InternalErrorException@Internal@Core@Math@Palmtree@@6B@ DD 01H ; Palmtree::Math::Core::Internal::InternalErrorException::`RTTI Complete Object Locator'
	DD	00H
	DD	00H
	DD	imagerel ??_R0?AVInternalErrorException@Internal@Core@Math@Palmtree@@@8
	DD	imagerel ??_R3InternalErrorException@Internal@Core@Math@Palmtree@@8
	DD	imagerel ??_R4InternalErrorException@Internal@Core@Math@Palmtree@@6B@
rdata$r	ENDS
;	COMDAT ??_R1A@?0A@EA@ArgumentNullException@Internal@Core@Math@Palmtree@@8
rdata$r	SEGMENT
??_R1A@?0A@EA@ArgumentNullException@Internal@Core@Math@Palmtree@@8 DD imagerel ??_R0?AVArgumentNullException@Internal@Core@Math@Palmtree@@@8 ; Palmtree::Math::Core::Internal::ArgumentNullException::`RTTI Base Class Descriptor at (0,-1,0,64)'
	DD	02H
	DD	00H
	DD	0ffffffffH
	DD	00H
	DD	040H
	DD	imagerel ??_R3ArgumentNullException@Internal@Core@Math@Palmtree@@8
rdata$r	ENDS
;	COMDAT ??_R2ArgumentNullException@Internal@Core@Math@Palmtree@@8
rdata$r	SEGMENT
??_R2ArgumentNullException@Internal@Core@Math@Palmtree@@8 DD imagerel ??_R1A@?0A@EA@ArgumentNullException@Internal@Core@Math@Palmtree@@8 ; Palmtree::Math::Core::Internal::ArgumentNullException::`RTTI Base Class Array'
	DD	imagerel ??_R1A@?0A@EA@Exception@Internal@Core@Math@Palmtree@@8
	DD	imagerel ??_R1A@?0A@EN@exception@std@@8
	ORG $+3
rdata$r	ENDS
;	COMDAT ??_R3ArgumentNullException@Internal@Core@Math@Palmtree@@8
rdata$r	SEGMENT
??_R3ArgumentNullException@Internal@Core@Math@Palmtree@@8 DD 00H ; Palmtree::Math::Core::Internal::ArgumentNullException::`RTTI Class Hierarchy Descriptor'
	DD	00H
	DD	03H
	DD	imagerel ??_R2ArgumentNullException@Internal@Core@Math@Palmtree@@8
rdata$r	ENDS
;	COMDAT ??_R4ArgumentNullException@Internal@Core@Math@Palmtree@@6B@
rdata$r	SEGMENT
??_R4ArgumentNullException@Internal@Core@Math@Palmtree@@6B@ DD 01H ; Palmtree::Math::Core::Internal::ArgumentNullException::`RTTI Complete Object Locator'
	DD	00H
	DD	00H
	DD	imagerel ??_R0?AVArgumentNullException@Internal@Core@Math@Palmtree@@@8
	DD	imagerel ??_R3ArgumentNullException@Internal@Core@Math@Palmtree@@8
	DD	imagerel ??_R4ArgumentNullException@Internal@Core@Math@Palmtree@@6B@
rdata$r	ENDS
;	COMDAT ??_R1A@?0A@EN@exception@std@@8
rdata$r	SEGMENT
??_R1A@?0A@EN@exception@std@@8 DD imagerel ??_R0?AVexception@std@@@8 ; std::exception::`RTTI Base Class Descriptor at (0,-1,0,77)'
	DD	00H
	DD	00H
	DD	0ffffffffH
	DD	00H
	DD	04dH
	DD	imagerel ??_R3exception@std@@8
rdata$r	ENDS
;	COMDAT ??_R1A@?0A@EA@Exception@Internal@Core@Math@Palmtree@@8
rdata$r	SEGMENT
??_R1A@?0A@EA@Exception@Internal@Core@Math@Palmtree@@8 DD imagerel ??_R0?AVException@Internal@Core@Math@Palmtree@@@8 ; Palmtree::Math::Core::Internal::Exception::`RTTI Base Class Descriptor at (0,-1,0,64)'
	DD	01H
	DD	00H
	DD	0ffffffffH
	DD	00H
	DD	040H
	DD	imagerel ??_R3Exception@Internal@Core@Math@Palmtree@@8
rdata$r	ENDS
;	COMDAT ??_R2Exception@Internal@Core@Math@Palmtree@@8
rdata$r	SEGMENT
??_R2Exception@Internal@Core@Math@Palmtree@@8 DD imagerel ??_R1A@?0A@EA@Exception@Internal@Core@Math@Palmtree@@8 ; Palmtree::Math::Core::Internal::Exception::`RTTI Base Class Array'
	DD	imagerel ??_R1A@?0A@EN@exception@std@@8
	ORG $+3
rdata$r	ENDS
;	COMDAT ??_R3Exception@Internal@Core@Math@Palmtree@@8
rdata$r	SEGMENT
??_R3Exception@Internal@Core@Math@Palmtree@@8 DD 00H	; Palmtree::Math::Core::Internal::Exception::`RTTI Class Hierarchy Descriptor'
	DD	00H
	DD	02H
	DD	imagerel ??_R2Exception@Internal@Core@Math@Palmtree@@8
rdata$r	ENDS
;	COMDAT ??_R4Exception@Internal@Core@Math@Palmtree@@6B@
rdata$r	SEGMENT
??_R4Exception@Internal@Core@Math@Palmtree@@6B@ DD 01H	; Palmtree::Math::Core::Internal::Exception::`RTTI Complete Object Locator'
	DD	00H
	DD	00H
	DD	imagerel ??_R0?AVException@Internal@Core@Math@Palmtree@@@8
	DD	imagerel ??_R3Exception@Internal@Core@Math@Palmtree@@8
	DD	imagerel ??_R4Exception@Internal@Core@Math@Palmtree@@6B@
rdata$r	ENDS
;	COMDAT ??_R1A@?0A@EA@exception@std@@8
rdata$r	SEGMENT
??_R1A@?0A@EA@exception@std@@8 DD imagerel ??_R0?AVexception@std@@@8 ; std::exception::`RTTI Base Class Descriptor at (0,-1,0,64)'
	DD	00H
	DD	00H
	DD	0ffffffffH
	DD	00H
	DD	040H
	DD	imagerel ??_R3exception@std@@8
rdata$r	ENDS
;	COMDAT ??_R2exception@std@@8
rdata$r	SEGMENT
??_R2exception@std@@8 DD imagerel ??_R1A@?0A@EA@exception@std@@8 ; std::exception::`RTTI Base Class Array'
	ORG $+3
rdata$r	ENDS
;	COMDAT ??_R3exception@std@@8
rdata$r	SEGMENT
??_R3exception@std@@8 DD 00H				; std::exception::`RTTI Class Hierarchy Descriptor'
	DD	00H
	DD	01H
	DD	imagerel ??_R2exception@std@@8
rdata$r	ENDS
;	COMDAT ??_R0?AVexception@std@@@8
data$r	SEGMENT
??_R0?AVexception@std@@@8 DQ FLAT:??_7type_info@@6B@	; std::exception `RTTI Type Descriptor'
	DQ	0000000000000000H
	DB	'.?AVexception@std@@', 00H
data$r	ENDS
;	COMDAT ??_R4exception@std@@6B@
rdata$r	SEGMENT
??_R4exception@std@@6B@ DD 01H				; std::exception::`RTTI Complete Object Locator'
	DD	00H
	DD	00H
	DD	imagerel ??_R0?AVexception@std@@@8
	DD	imagerel ??_R3exception@std@@8
	DD	imagerel ??_R4exception@std@@6B@
rdata$r	ENDS
;	COMDAT ??_C@_13ICFKHAEN@?$AAu@
CONST	SEGMENT
??_C@_13ICFKHAEN@?$AAu@ DB 'u', 00H, 00H, 00H		; `string'
CONST	ENDS
;	COMDAT ??_C@_1CK@ECFIEPAC@?$AA?$BF?$AAp?$AAk?$AAn?$AAu?$AAl?$AAl?$AAp?$AAt?$AAr?$AAL?$AA?$AO?$AAH?$PP?$IJ?$PP?$IM@
CONST	SEGMENT
??_C@_1CK@ECFIEPAC@?$AA?$BF?$AAp?$AAk?$AAn?$AAu?$AAl?$AAl?$AAp?$AAt?$AAr?$AAL?$AA?$AO?$AAH?$PP?$IJ?$PP?$IM@ DB 015H
	DB	'_pek0n', 00H, 'u', 00H, 'l', 00H, 'l', 00H, 'p', 00H, 't', 00H
	DB	'r', 00H, 'L0', 0eH, 'NH0', 089H, '0', 08cH, '0f0D0~0Y0', 02H, '0'
	DB	00H, 00H					; `string'
CONST	ENDS
;	COMDAT ??_C@_13JAOPNPKD@?$AAv@
CONST	SEGMENT
??_C@_13JAOPNPKD@?$AAv@ DB 'v', 00H, 00H, 00H		; `string'
CONST	ENDS
;	COMDAT _CT??_R0?AVArgumentNullException@Internal@Core@Math@Palmtree@@@8??0ArgumentNullException@Internal@Core@Math@Palmtree@@QEAA@AEBV01234@@Z48
xdata$x	SEGMENT
_CT??_R0?AVArgumentNullException@Internal@Core@Math@Palmtree@@@8??0ArgumentNullException@Internal@Core@Math@Palmtree@@QEAA@AEBV01234@@Z48 DD 00H
	DD	imagerel ??_R0?AVArgumentNullException@Internal@Core@Math@Palmtree@@@8
	DD	00H
	DD	0ffffffffH
	ORG $+4
	DD	030H
	DD	imagerel ??0ArgumentNullException@Internal@Core@Math@Palmtree@@QEAA@AEBV01234@@Z
xdata$x	ENDS
;	COMDAT ??_R0?AVArgumentNullException@Internal@Core@Math@Palmtree@@@8
data$r	SEGMENT
??_R0?AVArgumentNullException@Internal@Core@Math@Palmtree@@@8 DQ FLAT:??_7type_info@@6B@ ; Palmtree::Math::Core::Internal::ArgumentNullException `RTTI Type Descriptor'
	DQ	0000000000000000H
	DB	'.?AVArgumentNullException@Internal@Core@Math@Palmtree@@', 00H
data$r	ENDS
;	COMDAT _CTA2?AVArgumentNullException@Internal@Core@Math@Palmtree@@
xdata$x	SEGMENT
_CTA2?AVArgumentNullException@Internal@Core@Math@Palmtree@@ DD 02H
	DD	imagerel _CT??_R0?AVArgumentNullException@Internal@Core@Math@Palmtree@@@8??0ArgumentNullException@Internal@Core@Math@Palmtree@@QEAA@AEBV01234@@Z48
	DD	imagerel _CT??_R0?AVException@Internal@Core@Math@Palmtree@@@8??0Exception@Internal@Core@Math@Palmtree@@QEAA@AEBV01234@@Z48
xdata$x	ENDS
;	COMDAT _TI2?AVArgumentNullException@Internal@Core@Math@Palmtree@@
xdata$x	SEGMENT
_TI2?AVArgumentNullException@Internal@Core@Math@Palmtree@@ DD 00H
	DD	imagerel ??1ArgumentNullException@Internal@Core@Math@Palmtree@@UEAA@XZ
	DD	00H
	DD	imagerel _CTA2?AVArgumentNullException@Internal@Core@Math@Palmtree@@
xdata$x	ENDS
;	COMDAT _CT??_R0?AVException@Internal@Core@Math@Palmtree@@@8??0Exception@Internal@Core@Math@Palmtree@@QEAA@AEBV01234@@Z48
xdata$x	SEGMENT
_CT??_R0?AVException@Internal@Core@Math@Palmtree@@@8??0Exception@Internal@Core@Math@Palmtree@@QEAA@AEBV01234@@Z48 DD 00H
	DD	imagerel ??_R0?AVException@Internal@Core@Math@Palmtree@@@8
	DD	00H
	DD	0ffffffffH
	ORG $+4
	DD	030H
	DD	imagerel ??0Exception@Internal@Core@Math@Palmtree@@QEAA@AEBV01234@@Z
xdata$x	ENDS
;	COMDAT ??_R0?AVException@Internal@Core@Math@Palmtree@@@8
data$r	SEGMENT
??_R0?AVException@Internal@Core@Math@Palmtree@@@8 DQ FLAT:??_7type_info@@6B@ ; Palmtree::Math::Core::Internal::Exception `RTTI Type Descriptor'
	DQ	0000000000000000H
	DB	'.?AVException@Internal@Core@Math@Palmtree@@', 00H
data$r	ENDS
;	COMDAT ??_R0?AVInternalErrorException@Internal@Core@Math@Palmtree@@@8
data$r	SEGMENT
??_R0?AVInternalErrorException@Internal@Core@Math@Palmtree@@@8 DQ FLAT:??_7type_info@@6B@ ; Palmtree::Math::Core::Internal::InternalErrorException `RTTI Type Descriptor'
	DQ	0000000000000000H
	DB	'.?AVInternalErrorException@Internal@Core@Math@Palmtree@@'
	DB	00H
data$r	ENDS
;	COMDAT ??_7InternalErrorException@Internal@Core@Math@Palmtree@@6B@
CONST	SEGMENT
??_7InternalErrorException@Internal@Core@Math@Palmtree@@6B@ DQ FLAT:??_R4InternalErrorException@Internal@Core@Math@Palmtree@@6B@ ; Palmtree::Math::Core::Internal::InternalErrorException::`vftable'
	DQ	FLAT:??_EInternalErrorException@Internal@Core@Math@Palmtree@@UEAAPEAXI@Z
	DQ	FLAT:?what@exception@std@@UEBAPEBDXZ
CONST	ENDS
;	COMDAT ??_7ArgumentNullException@Internal@Core@Math@Palmtree@@6B@
CONST	SEGMENT
??_7ArgumentNullException@Internal@Core@Math@Palmtree@@6B@ DQ FLAT:??_R4ArgumentNullException@Internal@Core@Math@Palmtree@@6B@ ; Palmtree::Math::Core::Internal::ArgumentNullException::`vftable'
	DQ	FLAT:??_EArgumentNullException@Internal@Core@Math@Palmtree@@UEAAPEAXI@Z
	DQ	FLAT:?what@exception@std@@UEBAPEBDXZ
CONST	ENDS
;	COMDAT ??_7Exception@Internal@Core@Math@Palmtree@@6B@
CONST	SEGMENT
??_7Exception@Internal@Core@Math@Palmtree@@6B@ DQ FLAT:??_R4Exception@Internal@Core@Math@Palmtree@@6B@ ; Palmtree::Math::Core::Internal::Exception::`vftable'
	DQ	FLAT:??_EException@Internal@Core@Math@Palmtree@@UEAAPEAXI@Z
	DQ	FLAT:?what@exception@std@@UEBAPEBDXZ
CONST	ENDS
;	COMDAT ??_C@_0BC@EOODALEL@Unknown?5exception@
CONST	SEGMENT
??_C@_0BC@EOODALEL@Unknown?5exception@ DB 'Unknown exception', 00H ; `string'
CONST	ENDS
;	COMDAT ??_7exception@std@@6B@
CONST	SEGMENT
??_7exception@std@@6B@ DQ FLAT:??_R4exception@std@@6B@	; std::exception::`vftable'
	DQ	FLAT:??_Eexception@std@@UEAAPEAXI@Z
	DQ	FLAT:?what@exception@std@@UEBAPEBDXZ
CONST	ENDS
;	COMDAT xdata
xdata	SEGMENT
$ip2state$?PMC_BitwiseAnd_X_X_Imp@Internal@Core@Math@Palmtree@@YAPEAU__tag_NUMBER_HEADER@1234@PEAU51234@0@Z DD imagerel ?PMC_BitwiseAnd_X_X_Imp@Internal@Core@Math@Palmtree@@YAPEAU__tag_NUMBER_HEADER@1234@PEAU51234@0@Z
	DD	0ffffffffH
	DD	imagerel ?PMC_BitwiseAnd_X_X_Imp@Internal@Core@Math@Palmtree@@YAPEAU__tag_NUMBER_HEADER@1234@PEAU51234@0@Z+71
	DD	00H
	DD	imagerel ?PMC_BitwiseAnd_X_X_Imp@Internal@Core@Math@Palmtree@@YAPEAU__tag_NUMBER_HEADER@1234@PEAU51234@0@Z+180
	DD	0ffffffffH
xdata	ENDS
;	COMDAT xdata
xdata	SEGMENT
$stateUnwindMap$?PMC_BitwiseAnd_X_X_Imp@Internal@Core@Math@Palmtree@@YAPEAU__tag_NUMBER_HEADER@1234@PEAU51234@0@Z DD 0ffffffffH
	DD	imagerel ?dtor$0@?0??PMC_BitwiseAnd_X_X_Imp@Internal@Core@Math@Palmtree@@YAPEAU__tag_NUMBER_HEADER@1234@PEAU51234@0@Z@4HA
xdata	ENDS
;	COMDAT CONST
CONST	SEGMENT
$cppxdata$?PMC_BitwiseAnd_X_X_Imp@Internal@Core@Math@Palmtree@@YAPEAU__tag_NUMBER_HEADER@1234@PEAU51234@0@Z DD 019930522H
	DD	01H
	DD	imagerel $stateUnwindMap$?PMC_BitwiseAnd_X_X_Imp@Internal@Core@Math@Palmtree@@YAPEAU__tag_NUMBER_HEADER@1234@PEAU51234@0@Z
	DD	00H
	DD	00H
	DD	03H
	DD	imagerel $ip2state$?PMC_BitwiseAnd_X_X_Imp@Internal@Core@Math@Palmtree@@YAPEAU__tag_NUMBER_HEADER@1234@PEAU51234@0@Z
	DD	020H
	DD	00H
	DD	00H
CONST	ENDS
;	COMDAT xdata
xdata	SEGMENT
$unwind$?PMC_BitwiseAnd_X_X_Imp@Internal@Core@Math@Palmtree@@YAPEAU__tag_NUMBER_HEADER@1234@PEAU51234@0@Z DD 081e11H
	DD	0e641eH
	DD	0d5419H
	DD	0c3414H
	DD	070029206H
	DD	imagerel __CxxFrameHandler3
	DD	imagerel $cppxdata$?PMC_BitwiseAnd_X_X_Imp@Internal@Core@Math@Palmtree@@YAPEAU__tag_NUMBER_HEADER@1234@PEAU51234@0@Z
xdata	ENDS
;	COMDAT xdata
xdata	SEGMENT
$chain$4$?BitwiseAnd_X_X@Internal@Core@Math@Palmtree@@YAXPEA_K00_K@Z DD 021H
	DD	imagerel ?BitwiseAnd_X_X@Internal@Core@Math@Palmtree@@YAXPEA_K00_K@Z
	DD	imagerel ?BitwiseAnd_X_X@Internal@Core@Math@Palmtree@@YAXPEA_K00_K@Z+4
	DD	imagerel $unwind$?BitwiseAnd_X_X@Internal@Core@Math@Palmtree@@YAXPEA_K00_K@Z
xdata	ENDS
;	COMDAT xdata
xdata	SEGMENT
$chain$3$?BitwiseAnd_X_X@Internal@Core@Math@Palmtree@@YAXPEA_K00_K@Z DD 020021H
	DD	036400H
	DD	imagerel ?BitwiseAnd_X_X@Internal@Core@Math@Palmtree@@YAXPEA_K00_K@Z
	DD	imagerel ?BitwiseAnd_X_X@Internal@Core@Math@Palmtree@@YAXPEA_K00_K@Z+4
	DD	imagerel $unwind$?BitwiseAnd_X_X@Internal@Core@Math@Palmtree@@YAXPEA_K00_K@Z
xdata	ENDS
;	COMDAT xdata
xdata	SEGMENT
$chain$2$?BitwiseAnd_X_X@Internal@Core@Math@Palmtree@@YAXPEA_K00_K@Z DD 061421H
	DD	07414H
	DD	03640dH
	DD	023405H
	DD	imagerel ?BitwiseAnd_X_X@Internal@Core@Math@Palmtree@@YAXPEA_K00_K@Z
	DD	imagerel ?BitwiseAnd_X_X@Internal@Core@Math@Palmtree@@YAXPEA_K00_K@Z+4
	DD	imagerel $unwind$?BitwiseAnd_X_X@Internal@Core@Math@Palmtree@@YAXPEA_K00_K@Z
xdata	ENDS
;	COMDAT xdata
xdata	SEGMENT
$unwind$?BitwiseAnd_X_X@Internal@Core@Math@Palmtree@@YAXPEA_K00_K@Z DD 010401H
	DD	0204H
xdata	ENDS
;	COMDAT xdata
xdata	SEGMENT
$ip2state$?PMC_BitwiseAnd_X_X@Internal@Core@Math@Palmtree@@YAPEAU__tag_PMC_HANDLE_UINT@1234@PEAU51234@0@Z DD imagerel ?PMC_BitwiseAnd_X_X@Internal@Core@Math@Palmtree@@YAPEAU__tag_PMC_HANDLE_UINT@1234@PEAU51234@0@Z
	DD	0ffffffffH
	DD	imagerel ?PMC_BitwiseAnd_X_X@Internal@Core@Math@Palmtree@@YAPEAU__tag_PMC_HANDLE_UINT@1234@PEAU51234@0@Z+79
	DD	00H
	DD	imagerel ?PMC_BitwiseAnd_X_X@Internal@Core@Math@Palmtree@@YAPEAU__tag_PMC_HANDLE_UINT@1234@PEAU51234@0@Z+102
	DD	01H
	DD	imagerel ?PMC_BitwiseAnd_X_X@Internal@Core@Math@Palmtree@@YAPEAU__tag_PMC_HANDLE_UINT@1234@PEAU51234@0@Z+197
	DD	00H
	DD	imagerel ?PMC_BitwiseAnd_X_X@Internal@Core@Math@Palmtree@@YAPEAU__tag_PMC_HANDLE_UINT@1234@PEAU51234@0@Z+216
	DD	01H
	DD	imagerel ?PMC_BitwiseAnd_X_X@Internal@Core@Math@Palmtree@@YAPEAU__tag_PMC_HANDLE_UINT@1234@PEAU51234@0@Z+222
	DD	00H
	DD	imagerel ?PMC_BitwiseAnd_X_X@Internal@Core@Math@Palmtree@@YAPEAU__tag_PMC_HANDLE_UINT@1234@PEAU51234@0@Z+259
	DD	0ffffffffH
xdata	ENDS
;	COMDAT xdata
xdata	SEGMENT
$stateUnwindMap$?PMC_BitwiseAnd_X_X@Internal@Core@Math@Palmtree@@YAPEAU__tag_PMC_HANDLE_UINT@1234@PEAU51234@0@Z DD 0ffffffffH
	DD	imagerel ?dtor$0@?0??PMC_BitwiseAnd_X_X@Internal@Core@Math@Palmtree@@YAPEAU__tag_PMC_HANDLE_UINT@1234@PEAU51234@0@Z@4HA
	DD	00H
	DD	imagerel ?dtor$1@?0??PMC_BitwiseAnd_X_X@Internal@Core@Math@Palmtree@@YAPEAU__tag_PMC_HANDLE_UINT@1234@PEAU51234@0@Z@4HA
xdata	ENDS
;	COMDAT CONST
CONST	SEGMENT
$cppxdata$?PMC_BitwiseAnd_X_X@Internal@Core@Math@Palmtree@@YAPEAU__tag_PMC_HANDLE_UINT@1234@PEAU51234@0@Z DD 019930522H
	DD	02H
	DD	imagerel $stateUnwindMap$?PMC_BitwiseAnd_X_X@Internal@Core@Math@Palmtree@@YAPEAU__tag_PMC_HANDLE_UINT@1234@PEAU51234@0@Z
	DD	00H
	DD	00H
	DD	07H
	DD	imagerel $ip2state$?PMC_BitwiseAnd_X_X@Internal@Core@Math@Palmtree@@YAPEAU__tag_PMC_HANDLE_UINT@1234@PEAU51234@0@Z
	DD	020H
	DD	00H
	DD	00H
CONST	ENDS
;	COMDAT xdata
xdata	SEGMENT
$unwind$?PMC_BitwiseAnd_X_X@Internal@Core@Math@Palmtree@@YAPEAU__tag_PMC_HANDLE_UINT@1234@PEAU51234@0@Z DD 081f11H
	DD	014641fH
	DD	013541bH
	DD	0123417H
	DD	07004f20bH
	DD	imagerel __CxxFrameHandler3
	DD	imagerel $cppxdata$?PMC_BitwiseAnd_X_X@Internal@Core@Math@Palmtree@@YAPEAU__tag_PMC_HANDLE_UINT@1234@PEAU51234@0@Z
xdata	ENDS
;	COMDAT xdata
xdata	SEGMENT
$unwind$?PMC_BitwiseAnd_X_L@Internal@Core@Math@Palmtree@@YA_KPEAU__tag_PMC_HANDLE_UINT@1234@_K@Z DD 040a01H
	DD	0c340aH
	DD	07006920aH
xdata	ENDS
;	COMDAT xdata
xdata	SEGMENT
$unwind$?PMC_BitwiseAnd_X_I@Internal@Core@Math@Palmtree@@YAIPEAU__tag_PMC_HANDLE_UINT@1234@I@Z DD 040a01H
	DD	0c340aH
	DD	07006920aH
xdata	ENDS
;	COMDAT xdata
xdata	SEGMENT
$unwind$?PMC_BitwiseAnd_L_X@Internal@Core@Math@Palmtree@@YA_K_KPEAU__tag_PMC_HANDLE_UINT@1234@@Z DD 040a01H
	DD	0c340aH
	DD	07006920aH
xdata	ENDS
;	COMDAT xdata
xdata	SEGMENT
$unwind$?PMC_BitwiseAnd_I_X@Internal@Core@Math@Palmtree@@YAIIPEAU__tag_PMC_HANDLE_UINT@1234@@Z DD 040a01H
	DD	0c340aH
	DD	07006920aH
xdata	ENDS
;	COMDAT xdata
xdata	SEGMENT
$ip2state$??_GInternalErrorException@Internal@Core@Math@Palmtree@@UEAAPEAXI@Z DD imagerel ??_GInternalErrorException@Internal@Core@Math@Palmtree@@UEAAPEAXI@Z
	DD	0ffffffffH
xdata	ENDS
;	COMDAT xdata
xdata	SEGMENT
$stateUnwindMap$??_GInternalErrorException@Internal@Core@Math@Palmtree@@UEAAPEAXI@Z DD 0ffffffffH
	DD	imagerel ?dtor$0@?0???_GInternalErrorException@Internal@Core@Math@Palmtree@@UEAAPEAXI@Z@4HA
	DD	0ffffffffH
	DD	imagerel ?dtor$1@?0???_GInternalErrorException@Internal@Core@Math@Palmtree@@UEAAPEAXI@Z@4HA
xdata	ENDS
;	COMDAT CONST
CONST	SEGMENT
$cppxdata$??_GInternalErrorException@Internal@Core@Math@Palmtree@@UEAAPEAXI@Z DD 019930522H
	DD	02H
	DD	imagerel $stateUnwindMap$??_GInternalErrorException@Internal@Core@Math@Palmtree@@UEAAPEAXI@Z
	DD	00H
	DD	00H
	DD	01H
	DD	imagerel $ip2state$??_GInternalErrorException@Internal@Core@Math@Palmtree@@UEAAPEAXI@Z
	DD	020H
	DD	00H
	DD	04H
CONST	ENDS
;	COMDAT xdata
xdata	SEGMENT
$unwind$??_GInternalErrorException@Internal@Core@Math@Palmtree@@UEAAPEAXI@Z DD 041819H
	DD	093418H
	DD	07006520aH
	DD	imagerel __CxxFrameHandler3
	DD	imagerel $cppxdata$??_GInternalErrorException@Internal@Core@Math@Palmtree@@UEAAPEAXI@Z
xdata	ENDS
;	COMDAT xdata
xdata	SEGMENT
$ip2state$??1InternalErrorException@Internal@Core@Math@Palmtree@@UEAA@XZ DD imagerel ??1InternalErrorException@Internal@Core@Math@Palmtree@@UEAA@XZ
	DD	0ffffffffH
xdata	ENDS
;	COMDAT xdata
xdata	SEGMENT
$stateUnwindMap$??1InternalErrorException@Internal@Core@Math@Palmtree@@UEAA@XZ DD 0ffffffffH
	DD	imagerel ?dtor$0@?0???1InternalErrorException@Internal@Core@Math@Palmtree@@UEAA@XZ@4HA
	DD	0ffffffffH
	DD	imagerel ?dtor$1@?0???1InternalErrorException@Internal@Core@Math@Palmtree@@UEAA@XZ@4HA
xdata	ENDS
;	COMDAT CONST
CONST	SEGMENT
$cppxdata$??1InternalErrorException@Internal@Core@Math@Palmtree@@UEAA@XZ DD 019930522H
	DD	02H
	DD	imagerel $stateUnwindMap$??1InternalErrorException@Internal@Core@Math@Palmtree@@UEAA@XZ
	DD	00H
	DD	00H
	DD	01H
	DD	imagerel $ip2state$??1InternalErrorException@Internal@Core@Math@Palmtree@@UEAA@XZ
	DD	020H
	DD	00H
	DD	04H
CONST	ENDS
;	COMDAT xdata
xdata	SEGMENT
$unwind$??1InternalErrorException@Internal@Core@Math@Palmtree@@UEAA@XZ DD 011219H
	DD	06209H
	DD	imagerel __CxxFrameHandler3
	DD	imagerel $cppxdata$??1InternalErrorException@Internal@Core@Math@Palmtree@@UEAA@XZ
xdata	ENDS
;	COMDAT xdata
xdata	SEGMENT
$ip2state$??0InternalErrorException@Internal@Core@Math@Palmtree@@QEAA@PEB_W0@Z DD imagerel ??0InternalErrorException@Internal@Core@Math@Palmtree@@QEAA@PEB_W0@Z
	DD	0ffffffffH
	DD	imagerel ??0InternalErrorException@Internal@Core@Math@Palmtree@@QEAA@PEB_W0@Z+37
	DD	00H
	DD	imagerel ??0InternalErrorException@Internal@Core@Math@Palmtree@@QEAA@PEB_W0@Z+62
	DD	01H
	DD	imagerel ??0InternalErrorException@Internal@Core@Math@Palmtree@@QEAA@PEB_W0@Z+72
	DD	0ffffffffH
xdata	ENDS
;	COMDAT xdata
xdata	SEGMENT
$stateUnwindMap$??0InternalErrorException@Internal@Core@Math@Palmtree@@QEAA@PEB_W0@Z DD 0ffffffffH
	DD	imagerel ?dtor$1@?0???0InternalErrorException@Internal@Core@Math@Palmtree@@QEAA@PEB_W0@Z@4HA
	DD	0ffffffffH
	DD	imagerel ?dtor$0@?0???0InternalErrorException@Internal@Core@Math@Palmtree@@QEAA@PEB_W0@Z@4HA
xdata	ENDS
;	COMDAT CONST
CONST	SEGMENT
$cppxdata$??0InternalErrorException@Internal@Core@Math@Palmtree@@QEAA@PEB_W0@Z DD 019930522H
	DD	02H
	DD	imagerel $stateUnwindMap$??0InternalErrorException@Internal@Core@Math@Palmtree@@QEAA@PEB_W0@Z
	DD	00H
	DD	00H
	DD	04H
	DD	imagerel $ip2state$??0InternalErrorException@Internal@Core@Math@Palmtree@@QEAA@PEB_W0@Z
	DD	00H
	DD	00H
	DD	04H
CONST	ENDS
;	COMDAT xdata
xdata	SEGMENT
$unwind$??0InternalErrorException@Internal@Core@Math@Palmtree@@QEAA@PEB_W0@Z DD 011111H
	DD	02209H
	DD	imagerel __CxxFrameHandler3
	DD	imagerel $cppxdata$??0InternalErrorException@Internal@Core@Math@Palmtree@@QEAA@PEB_W0@Z
xdata	ENDS
;	COMDAT xdata
xdata	SEGMENT
$ip2state$??_GArgumentNullException@Internal@Core@Math@Palmtree@@UEAAPEAXI@Z DD imagerel ??_GArgumentNullException@Internal@Core@Math@Palmtree@@UEAAPEAXI@Z
	DD	0ffffffffH
xdata	ENDS
;	COMDAT xdata
xdata	SEGMENT
$stateUnwindMap$??_GArgumentNullException@Internal@Core@Math@Palmtree@@UEAAPEAXI@Z DD 0ffffffffH
	DD	imagerel ?dtor$0@?0???_GArgumentNullException@Internal@Core@Math@Palmtree@@UEAAPEAXI@Z@4HA
	DD	0ffffffffH
	DD	imagerel ?dtor$1@?0???_GArgumentNullException@Internal@Core@Math@Palmtree@@UEAAPEAXI@Z@4HA
xdata	ENDS
;	COMDAT CONST
CONST	SEGMENT
$cppxdata$??_GArgumentNullException@Internal@Core@Math@Palmtree@@UEAAPEAXI@Z DD 019930522H
	DD	02H
	DD	imagerel $stateUnwindMap$??_GArgumentNullException@Internal@Core@Math@Palmtree@@UEAAPEAXI@Z
	DD	00H
	DD	00H
	DD	01H
	DD	imagerel $ip2state$??_GArgumentNullException@Internal@Core@Math@Palmtree@@UEAAPEAXI@Z
	DD	020H
	DD	00H
	DD	04H
CONST	ENDS
;	COMDAT xdata
xdata	SEGMENT
$unwind$??_GArgumentNullException@Internal@Core@Math@Palmtree@@UEAAPEAXI@Z DD 041819H
	DD	093418H
	DD	07006520aH
	DD	imagerel __CxxFrameHandler3
	DD	imagerel $cppxdata$??_GArgumentNullException@Internal@Core@Math@Palmtree@@UEAAPEAXI@Z
xdata	ENDS
;	COMDAT xdata
xdata	SEGMENT
$ip2state$??1ArgumentNullException@Internal@Core@Math@Palmtree@@UEAA@XZ DD imagerel ??1ArgumentNullException@Internal@Core@Math@Palmtree@@UEAA@XZ
	DD	0ffffffffH
xdata	ENDS
;	COMDAT xdata
xdata	SEGMENT
$stateUnwindMap$??1ArgumentNullException@Internal@Core@Math@Palmtree@@UEAA@XZ DD 0ffffffffH
	DD	imagerel ?dtor$0@?0???1ArgumentNullException@Internal@Core@Math@Palmtree@@UEAA@XZ@4HA
	DD	0ffffffffH
	DD	imagerel ?dtor$1@?0???1ArgumentNullException@Internal@Core@Math@Palmtree@@UEAA@XZ@4HA
xdata	ENDS
;	COMDAT CONST
CONST	SEGMENT
$cppxdata$??1ArgumentNullException@Internal@Core@Math@Palmtree@@UEAA@XZ DD 019930522H
	DD	02H
	DD	imagerel $stateUnwindMap$??1ArgumentNullException@Internal@Core@Math@Palmtree@@UEAA@XZ
	DD	00H
	DD	00H
	DD	01H
	DD	imagerel $ip2state$??1ArgumentNullException@Internal@Core@Math@Palmtree@@UEAA@XZ
	DD	020H
	DD	00H
	DD	04H
CONST	ENDS
;	COMDAT xdata
xdata	SEGMENT
$unwind$??1ArgumentNullException@Internal@Core@Math@Palmtree@@UEAA@XZ DD 011219H
	DD	06209H
	DD	imagerel __CxxFrameHandler3
	DD	imagerel $cppxdata$??1ArgumentNullException@Internal@Core@Math@Palmtree@@UEAA@XZ
xdata	ENDS
;	COMDAT xdata
xdata	SEGMENT
$ip2state$??0ArgumentNullException@Internal@Core@Math@Palmtree@@QEAA@AEBV01234@@Z DD imagerel ??0ArgumentNullException@Internal@Core@Math@Palmtree@@QEAA@AEBV01234@@Z
	DD	0ffffffffH
	DD	imagerel ??0ArgumentNullException@Internal@Core@Math@Palmtree@@QEAA@AEBV01234@@Z+37
	DD	00H
	DD	imagerel ??0ArgumentNullException@Internal@Core@Math@Palmtree@@QEAA@AEBV01234@@Z+69
	DD	01H
	DD	imagerel ??0ArgumentNullException@Internal@Core@Math@Palmtree@@QEAA@AEBV01234@@Z+79
	DD	0ffffffffH
xdata	ENDS
;	COMDAT xdata
xdata	SEGMENT
$stateUnwindMap$??0ArgumentNullException@Internal@Core@Math@Palmtree@@QEAA@AEBV01234@@Z DD 0ffffffffH
	DD	imagerel ?dtor$1@?0???0ArgumentNullException@Internal@Core@Math@Palmtree@@QEAA@AEBV01234@@Z@4HA
	DD	0ffffffffH
	DD	imagerel ?dtor$0@?0???0ArgumentNullException@Internal@Core@Math@Palmtree@@QEAA@AEBV01234@@Z@4HA
xdata	ENDS
;	COMDAT CONST
CONST	SEGMENT
$cppxdata$??0ArgumentNullException@Internal@Core@Math@Palmtree@@QEAA@AEBV01234@@Z DD 019930522H
	DD	02H
	DD	imagerel $stateUnwindMap$??0ArgumentNullException@Internal@Core@Math@Palmtree@@QEAA@AEBV01234@@Z
	DD	00H
	DD	00H
	DD	04H
	DD	imagerel $ip2state$??0ArgumentNullException@Internal@Core@Math@Palmtree@@QEAA@AEBV01234@@Z
	DD	00H
	DD	00H
	DD	04H
CONST	ENDS
;	COMDAT xdata
xdata	SEGMENT
$unwind$??0ArgumentNullException@Internal@Core@Math@Palmtree@@QEAA@AEBV01234@@Z DD 011111H
	DD	02209H
	DD	imagerel __CxxFrameHandler3
	DD	imagerel $cppxdata$??0ArgumentNullException@Internal@Core@Math@Palmtree@@QEAA@AEBV01234@@Z
xdata	ENDS
;	COMDAT xdata
xdata	SEGMENT
$ip2state$??0ArgumentNullException@Internal@Core@Math@Palmtree@@QEAA@PEB_W0@Z DD imagerel ??0ArgumentNullException@Internal@Core@Math@Palmtree@@QEAA@PEB_W0@Z
	DD	0ffffffffH
	DD	imagerel ??0ArgumentNullException@Internal@Core@Math@Palmtree@@QEAA@PEB_W0@Z+37
	DD	00H
	DD	imagerel ??0ArgumentNullException@Internal@Core@Math@Palmtree@@QEAA@PEB_W0@Z+62
	DD	01H
	DD	imagerel ??0ArgumentNullException@Internal@Core@Math@Palmtree@@QEAA@PEB_W0@Z+72
	DD	0ffffffffH
xdata	ENDS
;	COMDAT xdata
xdata	SEGMENT
$stateUnwindMap$??0ArgumentNullException@Internal@Core@Math@Palmtree@@QEAA@PEB_W0@Z DD 0ffffffffH
	DD	imagerel ?dtor$1@?0???0ArgumentNullException@Internal@Core@Math@Palmtree@@QEAA@PEB_W0@Z@4HA
	DD	0ffffffffH
	DD	imagerel ?dtor$0@?0???0ArgumentNullException@Internal@Core@Math@Palmtree@@QEAA@PEB_W0@Z@4HA
xdata	ENDS
;	COMDAT CONST
CONST	SEGMENT
$cppxdata$??0ArgumentNullException@Internal@Core@Math@Palmtree@@QEAA@PEB_W0@Z DD 019930522H
	DD	02H
	DD	imagerel $stateUnwindMap$??0ArgumentNullException@Internal@Core@Math@Palmtree@@QEAA@PEB_W0@Z
	DD	00H
	DD	00H
	DD	04H
	DD	imagerel $ip2state$??0ArgumentNullException@Internal@Core@Math@Palmtree@@QEAA@PEB_W0@Z
	DD	00H
	DD	00H
	DD	04H
CONST	ENDS
;	COMDAT xdata
xdata	SEGMENT
$unwind$??0ArgumentNullException@Internal@Core@Math@Palmtree@@QEAA@PEB_W0@Z DD 011111H
	DD	02209H
	DD	imagerel __CxxFrameHandler3
	DD	imagerel $cppxdata$??0ArgumentNullException@Internal@Core@Math@Palmtree@@QEAA@PEB_W0@Z
xdata	ENDS
;	COMDAT xdata
xdata	SEGMENT
$ip2state$??_GException@Internal@Core@Math@Palmtree@@UEAAPEAXI@Z DD imagerel ??_GException@Internal@Core@Math@Palmtree@@UEAAPEAXI@Z
	DD	0ffffffffH
xdata	ENDS
;	COMDAT xdata
xdata	SEGMENT
$stateUnwindMap$??_GException@Internal@Core@Math@Palmtree@@UEAAPEAXI@Z DD 0ffffffffH
	DD	imagerel ?dtor$0@?0???_GException@Internal@Core@Math@Palmtree@@UEAAPEAXI@Z@4HA
xdata	ENDS
;	COMDAT CONST
CONST	SEGMENT
$cppxdata$??_GException@Internal@Core@Math@Palmtree@@UEAAPEAXI@Z DD 019930522H
	DD	01H
	DD	imagerel $stateUnwindMap$??_GException@Internal@Core@Math@Palmtree@@UEAAPEAXI@Z
	DD	00H
	DD	00H
	DD	01H
	DD	imagerel $ip2state$??_GException@Internal@Core@Math@Palmtree@@UEAAPEAXI@Z
	DD	020H
	DD	00H
	DD	04H
CONST	ENDS
;	COMDAT xdata
xdata	SEGMENT
$unwind$??_GException@Internal@Core@Math@Palmtree@@UEAAPEAXI@Z DD 041819H
	DD	093418H
	DD	07006520aH
	DD	imagerel __CxxFrameHandler3
	DD	imagerel $cppxdata$??_GException@Internal@Core@Math@Palmtree@@UEAAPEAXI@Z
xdata	ENDS
;	COMDAT xdata
xdata	SEGMENT
$ip2state$??1Exception@Internal@Core@Math@Palmtree@@UEAA@XZ DD imagerel ??1Exception@Internal@Core@Math@Palmtree@@UEAA@XZ
	DD	0ffffffffH
xdata	ENDS
;	COMDAT xdata
xdata	SEGMENT
$stateUnwindMap$??1Exception@Internal@Core@Math@Palmtree@@UEAA@XZ DD 0ffffffffH
	DD	imagerel ?dtor$0@?0???1Exception@Internal@Core@Math@Palmtree@@UEAA@XZ@4HA
xdata	ENDS
;	COMDAT CONST
CONST	SEGMENT
$cppxdata$??1Exception@Internal@Core@Math@Palmtree@@UEAA@XZ DD 019930522H
	DD	01H
	DD	imagerel $stateUnwindMap$??1Exception@Internal@Core@Math@Palmtree@@UEAA@XZ
	DD	00H
	DD	00H
	DD	01H
	DD	imagerel $ip2state$??1Exception@Internal@Core@Math@Palmtree@@UEAA@XZ
	DD	020H
	DD	00H
	DD	04H
CONST	ENDS
;	COMDAT xdata
xdata	SEGMENT
$unwind$??1Exception@Internal@Core@Math@Palmtree@@UEAA@XZ DD 011219H
	DD	06209H
	DD	imagerel __CxxFrameHandler3
	DD	imagerel $cppxdata$??1Exception@Internal@Core@Math@Palmtree@@UEAA@XZ
xdata	ENDS
;	COMDAT xdata
xdata	SEGMENT
$ip2state$??0Exception@Internal@Core@Math@Palmtree@@QEAA@AEBV01234@@Z DD imagerel ??0Exception@Internal@Core@Math@Palmtree@@QEAA@AEBV01234@@Z
	DD	0ffffffffH
	DD	imagerel ??0Exception@Internal@Core@Math@Palmtree@@QEAA@AEBV01234@@Z+37
	DD	00H
	DD	imagerel ??0Exception@Internal@Core@Math@Palmtree@@QEAA@AEBV01234@@Z+69
	DD	0ffffffffH
xdata	ENDS
;	COMDAT xdata
xdata	SEGMENT
$stateUnwindMap$??0Exception@Internal@Core@Math@Palmtree@@QEAA@AEBV01234@@Z DD 0ffffffffH
	DD	imagerel ?dtor$0@?0???0Exception@Internal@Core@Math@Palmtree@@QEAA@AEBV01234@@Z@4HA
xdata	ENDS
;	COMDAT CONST
CONST	SEGMENT
$cppxdata$??0Exception@Internal@Core@Math@Palmtree@@QEAA@AEBV01234@@Z DD 019930522H
	DD	01H
	DD	imagerel $stateUnwindMap$??0Exception@Internal@Core@Math@Palmtree@@QEAA@AEBV01234@@Z
	DD	00H
	DD	00H
	DD	03H
	DD	imagerel $ip2state$??0Exception@Internal@Core@Math@Palmtree@@QEAA@AEBV01234@@Z
	DD	00H
	DD	00H
	DD	04H
CONST	ENDS
;	COMDAT xdata
xdata	SEGMENT
$unwind$??0Exception@Internal@Core@Math@Palmtree@@QEAA@AEBV01234@@Z DD 011111H
	DD	02209H
	DD	imagerel __CxxFrameHandler3
	DD	imagerel $cppxdata$??0Exception@Internal@Core@Math@Palmtree@@QEAA@AEBV01234@@Z
xdata	ENDS
;	COMDAT xdata
xdata	SEGMENT
$ip2state$??0Exception@Internal@Core@Math@Palmtree@@IEAA@HPEB_W0@Z DD imagerel ??0Exception@Internal@Core@Math@Palmtree@@IEAA@HPEB_W0@Z
	DD	0ffffffffH
	DD	imagerel ??0Exception@Internal@Core@Math@Palmtree@@IEAA@HPEB_W0@Z+37
	DD	00H
	DD	imagerel ??0Exception@Internal@Core@Math@Palmtree@@IEAA@HPEB_W0@Z+58
	DD	0ffffffffH
xdata	ENDS
;	COMDAT xdata
xdata	SEGMENT
$stateUnwindMap$??0Exception@Internal@Core@Math@Palmtree@@IEAA@HPEB_W0@Z DD 0ffffffffH
	DD	imagerel ?dtor$0@?0???0Exception@Internal@Core@Math@Palmtree@@IEAA@HPEB_W0@Z@4HA
xdata	ENDS
;	COMDAT CONST
CONST	SEGMENT
$cppxdata$??0Exception@Internal@Core@Math@Palmtree@@IEAA@HPEB_W0@Z DD 019930522H
	DD	01H
	DD	imagerel $stateUnwindMap$??0Exception@Internal@Core@Math@Palmtree@@IEAA@HPEB_W0@Z
	DD	00H
	DD	00H
	DD	03H
	DD	imagerel $ip2state$??0Exception@Internal@Core@Math@Palmtree@@IEAA@HPEB_W0@Z
	DD	00H
	DD	00H
	DD	04H
CONST	ENDS
;	COMDAT xdata
xdata	SEGMENT
$unwind$??0Exception@Internal@Core@Math@Palmtree@@IEAA@HPEB_W0@Z DD 011111H
	DD	02209H
	DD	imagerel __CxxFrameHandler3
	DD	imagerel $cppxdata$??0Exception@Internal@Core@Math@Palmtree@@IEAA@HPEB_W0@Z
xdata	ENDS
;	COMDAT xdata
xdata	SEGMENT
$ip2state$??_Gexception@std@@UEAAPEAXI@Z DD imagerel ??_Gexception@std@@UEAAPEAXI@Z
	DD	0ffffffffH
xdata	ENDS
;	COMDAT CONST
CONST	SEGMENT
$cppxdata$??_Gexception@std@@UEAAPEAXI@Z DD 019930522H
	DD	00H
	DD	00H
	DD	00H
	DD	00H
	DD	01H
	DD	imagerel $ip2state$??_Gexception@std@@UEAAPEAXI@Z
	DD	020H
	DD	00H
	DD	04H
CONST	ENDS
;	COMDAT xdata
xdata	SEGMENT
$unwind$??_Gexception@std@@UEAAPEAXI@Z DD 041419H
	DD	083414H
	DD	070025206H
	DD	imagerel __CxxFrameHandler3
	DD	imagerel $cppxdata$??_Gexception@std@@UEAAPEAXI@Z
xdata	ENDS
;	COMDAT xdata
xdata	SEGMENT
$ip2state$??1exception@std@@UEAA@XZ DD imagerel ??1exception@std@@UEAA@XZ
	DD	0ffffffffH
xdata	ENDS
;	COMDAT CONST
CONST	SEGMENT
$cppxdata$??1exception@std@@UEAA@XZ DD 019930522H
	DD	00H
	DD	00H
	DD	00H
	DD	00H
	DD	01H
	DD	imagerel $ip2state$??1exception@std@@UEAA@XZ
	DD	020H
	DD	00H
	DD	04H
CONST	ENDS
;	COMDAT xdata
xdata	SEGMENT
$unwind$??1exception@std@@UEAA@XZ DD 010d19H
	DD	06204H
	DD	imagerel __CxxFrameHandler3
	DD	imagerel $cppxdata$??1exception@std@@UEAA@XZ
xdata	ENDS
; Function compile flags: /Ogtpy
; File z:\sources\lunor\repos\rougemeilland\palmtree.math.core.uint\palmtree.math.core.uint\pmc_bitwiseand.cpp
; File z:\sources\lunor\repos\rougemeilland\palmtree.math.core.uint\palmtree.math.core.uint\pmc_inline_func.h
; File z:\sources\lunor\repos\rougemeilland\palmtree.math.core.uint\palmtree.math.core.uint\pmc_bitwiseand.cpp
; File z:\sources\lunor\repos\rougemeilland\palmtree.math.core.uint\palmtree.math.core.uint\pmc_inline_func.h
; File z:\sources\lunor\repos\rougemeilland\palmtree.math.core.uint\palmtree.math.core.uint\pmc_bitwiseand.cpp
;	COMDAT ?PMC_BitwiseAnd_X_X_Imp@Internal@Core@Math@Palmtree@@YAPEAU__tag_NUMBER_HEADER@1234@PEAU51234@0@Z
_TEXT	SEGMENT
$T1 = 32
root$2 = 40
u$ = 96
v$ = 104
?PMC_BitwiseAnd_X_X_Imp@Internal@Core@Math@Palmtree@@YAPEAU__tag_NUMBER_HEADER@1234@PEAU51234@0@Z PROC ; Palmtree::Math::Core::Internal::PMC_BitwiseAnd_X_X_Imp, COMDAT

; 295  :     {

  00000	40 57		 push	 rdi
  00002	48 83 ec 50	 sub	 rsp, 80			; 00000050H
  00006	48 c7 44 24 20
	fe ff ff ff	 mov	 QWORD PTR $T1[rsp], -2
  0000f	48 89 5c 24 60	 mov	 QWORD PTR [rsp+96], rbx
  00014	48 89 6c 24 68	 mov	 QWORD PTR [rsp+104], rbp
  00019	48 89 74 24 70	 mov	 QWORD PTR [rsp+112], rsi
  0001e	48 8b f2	 mov	 rsi, rdx
  00021	48 8b e9	 mov	 rbp, rcx

; 296  :         if (u->IS_ZERO)

  00024	f6 41 08 01	 test	 BYTE PTR [rcx+8], 1
  00028	74 0c		 je	 SHORT $LN2@PMC_Bitwis
$LN14@PMC_Bitwis:

; 318  :         }
; 319  :     }

  0002a	48 8d 05 00 00
	00 00		 lea	 rax, OFFSET FLAT:?number_zero@Internal@Core@Math@Palmtree@@3U__tag_NUMBER_HEADER@1234@A ; Palmtree::Math::Core::Internal::number_zero
  00031	e9 8b 00 00 00	 jmp	 $LN5@PMC_Bitwis
$LN2@PMC_Bitwis:

; 297  :             return (&number_zero);
; 298  :         else if (v->IS_ZERO)

  00036	f6 42 08 01	 test	 BYTE PTR [rdx+8], 1
  0003a	75 ee		 jne	 SHORT $LN14@PMC_Bitwis

; 299  :             return (&number_zero);
; 300  :         else
; 301  :         {
; 302  :             ResourceHolderUINT root;

  0003c	48 8d 4c 24 28	 lea	 rcx, QWORD PTR root$2[rsp]
  00041	e8 00 00 00 00	 call	 ??0ResourceHolderUINT@Internal@Core@Math@Palmtree@@QEAA@XZ ; Palmtree::Math::Core::Internal::ResourceHolderUINT::ResourceHolderUINT
  00046	90		 npad	 1

; 303  :             __UNIT_TYPE u_bit_count = u->UNIT_BIT_COUNT;
; 304  :             __UNIT_TYPE v_bit_count = v->UNIT_BIT_COUNT;

  00047	48 8b 5e 20	 mov	 rbx, QWORD PTR [rsi+32]
; File z:\sources\lunor\repos\rougemeilland\palmtree.math.core.uint\palmtree.math.core.uint\pmc_inline_func.h

; 172  :             return (x <= y ? x : y);

  0004b	48 39 5d 20	 cmp	 QWORD PTR [rbp+32], rbx
  0004f	48 0f 46 5d 20	 cmovbe	 rbx, QWORD PTR [rbp+32]
; File z:\sources\lunor\repos\rougemeilland\palmtree.math.core.uint\palmtree.math.core.uint\pmc_bitwiseand.cpp

; 306  :             NUMBER_HEADER* w = root.AllocateNumber(w_bit_count);

  00054	48 8b d3	 mov	 rdx, rbx
  00057	48 8d 4c 24 28	 lea	 rcx, QWORD PTR root$2[rsp]
  0005c	e8 00 00 00 00	 call	 ?AllocateNumber@ResourceHolderUINT@Internal@Core@Math@Palmtree@@QEAAPEAU__tag_NUMBER_HEADER@2345@_K@Z ; Palmtree::Math::Core::Internal::ResourceHolderUINT::AllocateNumber
  00061	48 8b f8	 mov	 rdi, rax
; File z:\sources\lunor\repos\rougemeilland\palmtree.math.core.uint\palmtree.math.core.uint\pmc_inline_func.h

; 157  :             return ((u + v - 1) / v);

  00064	4c 8d 4b 3f	 lea	 r9, QWORD PTR [rbx+63]
  00068	49 c1 e9 06	 shr	 r9, 6
; File z:\sources\lunor\repos\rougemeilland\palmtree.math.core.uint\palmtree.math.core.uint\pmc_bitwiseand.cpp

; 308  :             BitwiseAnd_X_X(u->BLOCK, v->BLOCK, w->BLOCK, w_word_count);

  0006c	4c 8b 40 40	 mov	 r8, QWORD PTR [rax+64]
  00070	48 8b 56 40	 mov	 rdx, QWORD PTR [rsi+64]
  00074	48 8b 4d 40	 mov	 rcx, QWORD PTR [rbp+64]
  00078	e8 00 00 00 00	 call	 ?BitwiseAnd_X_X@Internal@Core@Math@Palmtree@@YAXPEA_K00_K@Z ; Palmtree::Math::Core::Internal::BitwiseAnd_X_X

; 309  :             root.CheckNumber(w);

  0007d	48 8b d7	 mov	 rdx, rdi
  00080	48 8d 4c 24 28	 lea	 rcx, QWORD PTR root$2[rsp]
  00085	e8 00 00 00 00	 call	 ?CheckNumber@ResourceHolderUINT@Internal@Core@Math@Palmtree@@QEAAXPEAU__tag_NUMBER_HEADER@2345@@Z ; Palmtree::Math::Core::Internal::ResourceHolderUINT::CheckNumber

; 310  :             CommitNumber(w);

  0008a	48 8b cf	 mov	 rcx, rdi
  0008d	e8 00 00 00 00	 call	 ?CommitNumber@Internal@Core@Math@Palmtree@@YAXPEAU__tag_NUMBER_HEADER@1234@@Z ; Palmtree::Math::Core::Internal::CommitNumber

; 311  :             if (w->IS_ZERO)

  00092	48 8b d7	 mov	 rdx, rdi
  00095	48 8d 4c 24 28	 lea	 rcx, QWORD PTR root$2[rsp]
  0009a	f6 47 08 01	 test	 BYTE PTR [rdi+8], 1
  0009e	74 0e		 je	 SHORT $LN6@PMC_Bitwis

; 312  :             {
; 313  :                 root.DeallocateNumber(w);

  000a0	e8 00 00 00 00	 call	 ?DeallocateNumber@ResourceHolderUINT@Internal@Core@Math@Palmtree@@QEAAXPEAU__tag_NUMBER_HEADER@2345@@Z ; Palmtree::Math::Core::Internal::ResourceHolderUINT::DeallocateNumber
  000a5	48 8d 3d 00 00
	00 00		 lea	 rdi, OFFSET FLAT:?number_zero@Internal@Core@Math@Palmtree@@3U__tag_NUMBER_HEADER@1234@A ; Palmtree::Math::Core::Internal::number_zero
  000ac	eb 06		 jmp	 SHORT $LN9@PMC_Bitwis
$LN6@PMC_Bitwis:

; 314  :                 return (&number_zero);
; 315  :             }
; 316  :             root.UnlinkNumber(w);

  000ae	e8 00 00 00 00	 call	 ?UnlinkNumber@ResourceHolderUINT@Internal@Core@Math@Palmtree@@QEAAXPEAU__tag_NUMBER_HEADER@2345@@Z ; Palmtree::Math::Core::Internal::ResourceHolderUINT::UnlinkNumber
  000b3	90		 npad	 1
$LN9@PMC_Bitwis:

; 317  :             return (w);

  000b4	48 8d 4c 24 28	 lea	 rcx, QWORD PTR root$2[rsp]
  000b9	e8 00 00 00 00	 call	 ??1ResourceHolderUINT@Internal@Core@Math@Palmtree@@UEAA@XZ ; Palmtree::Math::Core::Internal::ResourceHolderUINT::~ResourceHolderUINT
  000be	48 8b c7	 mov	 rax, rdi
$LN5@PMC_Bitwis:

; 318  :         }
; 319  :     }

  000c1	48 8b 5c 24 60	 mov	 rbx, QWORD PTR [rsp+96]
  000c6	48 8b 6c 24 68	 mov	 rbp, QWORD PTR [rsp+104]
  000cb	48 8b 74 24 70	 mov	 rsi, QWORD PTR [rsp+112]
  000d0	48 83 c4 50	 add	 rsp, 80			; 00000050H
  000d4	5f		 pop	 rdi
  000d5	c3		 ret	 0
?PMC_BitwiseAnd_X_X_Imp@Internal@Core@Math@Palmtree@@YAPEAU__tag_NUMBER_HEADER@1234@PEAU51234@0@Z ENDP ; Palmtree::Math::Core::Internal::PMC_BitwiseAnd_X_X_Imp
_TEXT	ENDS
;	COMDAT text$x
text$x	SEGMENT
$T1 = 32
root$2 = 40
u$ = 96
v$ = 104
?dtor$0@?0??PMC_BitwiseAnd_X_X_Imp@Internal@Core@Math@Palmtree@@YAPEAU__tag_NUMBER_HEADER@1234@PEAU51234@0@Z@4HA PROC ; `Palmtree::Math::Core::Internal::PMC_BitwiseAnd_X_X_Imp'::`1'::dtor$0
  00000	48 8d 8a 28 00
	00 00		 lea	 rcx, QWORD PTR root$2[rdx]
  00007	e9 00 00 00 00	 jmp	 ??1ResourceHolderUINT@Internal@Core@Math@Palmtree@@UEAA@XZ ; Palmtree::Math::Core::Internal::ResourceHolderUINT::~ResourceHolderUINT
?dtor$0@?0??PMC_BitwiseAnd_X_X_Imp@Internal@Core@Math@Palmtree@@YAPEAU__tag_NUMBER_HEADER@1234@PEAU51234@0@Z@4HA ENDP ; `Palmtree::Math::Core::Internal::PMC_BitwiseAnd_X_X_Imp'::`1'::dtor$0
text$x	ENDS
; Function compile flags: /Ogtpy
;	COMDAT text$x
text$x	SEGMENT
$T1 = 32
root$2 = 40
u$ = 96
v$ = 104
?dtor$0@?0??PMC_BitwiseAnd_X_X_Imp@Internal@Core@Math@Palmtree@@YAPEAU__tag_NUMBER_HEADER@1234@PEAU51234@0@Z@4HA PROC ; `Palmtree::Math::Core::Internal::PMC_BitwiseAnd_X_X_Imp'::`1'::dtor$0
  00000	48 8d 8a 28 00
	00 00		 lea	 rcx, QWORD PTR root$2[rdx]
  00007	e9 00 00 00 00	 jmp	 ??1ResourceHolderUINT@Internal@Core@Math@Palmtree@@UEAA@XZ ; Palmtree::Math::Core::Internal::ResourceHolderUINT::~ResourceHolderUINT
?dtor$0@?0??PMC_BitwiseAnd_X_X_Imp@Internal@Core@Math@Palmtree@@YAPEAU__tag_NUMBER_HEADER@1234@PEAU51234@0@Z@4HA ENDP ; `Palmtree::Math::Core::Internal::PMC_BitwiseAnd_X_X_Imp'::`1'::dtor$0
text$x	ENDS
; Function compile flags: /Ogtpy
; File z:\sources\lunor\repos\rougemeilland\palmtree.math.core.uint\palmtree.math.core.uint\pmc_bitwiseand.cpp
;	COMDAT ?BitwiseAnd_X_X@Internal@Core@Math@Palmtree@@YAXPEA_K00_K@Z
_TEXT	SEGMENT
u$ = 16
v$ = 24
w$ = 32
w_count$ = 40
?BitwiseAnd_X_X@Internal@Core@Math@Palmtree@@YAXPEA_K00_K@Z PROC ; Palmtree::Math::Core::Internal::BitwiseAnd_X_X, COMDAT

; 37   :     {

  00000	48 83 ec 08	 sub	 rsp, 8
  00004	48 89 5c 24 10	 mov	 QWORD PTR [rsp+16], rbx
  00009	4c 8b d1	 mov	 r10, rcx
  0000c	48 89 74 24 18	 mov	 QWORD PTR [rsp+24], rsi
  00011	49 8b f1	 mov	 rsi, r9
  00014	48 89 3c 24	 mov	 QWORD PTR [rsp], rdi

; 38   :         __UNIT_TYPE count = w_count >> 5;

  00018	49 8b f9	 mov	 rdi, r9
  0001b	48 c1 ef 05	 shr	 rdi, 5

; 39   :         while (count != 0)

  0001f	48 85 ff	 test	 rdi, rdi
  00022	0f 84 08 01 00
	00		 je	 $LN3@BitwiseAnd
  00028	0f 1f 84 00 00
	00 00 00	 npad	 8
$LL2@BitwiseAnd:

; 40   :         {
; 41   :             w[0] = u[0] & v[0];

  00030	48 8d 4a 10	 lea	 rcx, QWORD PTR [rdx+16]
  00034	48 8d 81 e8 00
	00 00		 lea	 rax, QWORD PTR [rcx+232]
  0003b	4c 3b c0	 cmp	 r8, rax
  0003e	77 0c		 ja	 SHORT $LN30@BitwiseAnd
  00040	49 8d 80 f8 00
	00 00		 lea	 rax, QWORD PTR [r8+248]
  00047	48 3b c2	 cmp	 rax, rdx
  0004a	73 18		 jae	 SHORT $LN70@BitwiseAnd
$LN30@BitwiseAnd:
  0004c	49 8d 82 f8 00
	00 00		 lea	 rax, QWORD PTR [r10+248]
  00053	4c 3b c0	 cmp	 r8, rax
  00056	77 3f		 ja	 SHORT $LN31@BitwiseAnd
  00058	49 8d 80 f8 00
	00 00		 lea	 rax, QWORD PTR [r8+248]
  0005f	49 3b c2	 cmp	 rax, r10
  00062	72 33		 jb	 SHORT $LN31@BitwiseAnd
$LN70@BitwiseAnd:
  00064	4d 8b da	 mov	 r11, r10
  00067	49 8b d8	 mov	 rbx, r8
  0006a	4c 2b da	 sub	 r11, rdx
  0006d	48 8b c2	 mov	 rax, rdx
  00070	48 2b da	 sub	 rbx, rdx
  00073	41 b9 20 00 00
	00		 mov	 r9d, 32			; 00000020H
  00079	0f 1f 80 00 00
	00 00		 npad	 7
$LL69@BitwiseAnd:
  00080	4a 8b 0c 18	 mov	 rcx, QWORD PTR [rax+r11]
  00084	48 23 08	 and	 rcx, QWORD PTR [rax]
  00087	48 89 0c 18	 mov	 QWORD PTR [rax+rbx], rcx
  0008b	48 8d 40 08	 lea	 rax, QWORD PTR [rax+8]
  0008f	49 83 e9 01	 sub	 r9, 1
  00093	75 eb		 jne	 SHORT $LL69@BitwiseAnd
  00095	eb 7a		 jmp	 SHORT $LN13@BitwiseAnd
$LN31@BitwiseAnd:
  00097	49 8b c2	 mov	 rax, r10
  0009a	4d 8b c8	 mov	 r9, r8
  0009d	48 2b c2	 sub	 rax, rdx
  000a0	41 bb 04 00 00
	00		 mov	 r11d, 4
  000a6	4c 2b ca	 sub	 r9, rdx
  000a9	0f 1f 80 00 00
	00 00		 npad	 7
$LL12@BitwiseAnd:
  000b0	f3 0f 6f 41 f0	 movdqu	 xmm0, XMMWORD PTR [rcx-16]
  000b5	f3 0f 6f 4c 01
	f0		 movdqu	 xmm1, XMMWORD PTR [rcx+rax-16]
  000bb	f3 0f 6f 14 01	 movdqu	 xmm2, XMMWORD PTR [rcx+rax]
  000c0	48 8d 49 40	 lea	 rcx, QWORD PTR [rcx+64]
  000c4	66 0f db c8	 pand	 xmm1, xmm0
  000c8	f3 0f 6f 41 c0	 movdqu	 xmm0, XMMWORD PTR [rcx-64]
  000cd	f3 42 0f 7f 4c
	09 b0		 movdqu	 XMMWORD PTR [rcx+r9-80], xmm1
  000d4	66 0f db d0	 pand	 xmm2, xmm0
  000d8	f3 0f 6f 41 d0	 movdqu	 xmm0, XMMWORD PTR [rcx-48]
  000dd	f3 0f 6f 4c 01
	d0		 movdqu	 xmm1, XMMWORD PTR [rcx+rax-48]
  000e3	f3 42 0f 7f 54
	09 c0		 movdqu	 XMMWORD PTR [rcx+r9-64], xmm2
  000ea	66 0f db c8	 pand	 xmm1, xmm0
  000ee	f3 0f 6f 41 e0	 movdqu	 xmm0, XMMWORD PTR [rcx-32]
  000f3	f3 0f 6f 54 01
	e0		 movdqu	 xmm2, XMMWORD PTR [rcx+rax-32]
  000f9	f3 42 0f 7f 4c
	09 d0		 movdqu	 XMMWORD PTR [rcx+r9-48], xmm1
  00100	66 0f db d0	 pand	 xmm2, xmm0
  00104	f3 42 0f 7f 54
	09 e0		 movdqu	 XMMWORD PTR [rcx+r9-32], xmm2
  0010b	49 83 eb 01	 sub	 r11, 1
  0010f	75 9f		 jne	 SHORT $LL12@BitwiseAnd
$LN13@BitwiseAnd:

; 42   :             w[1] = u[1] & v[1];
; 43   :             w[2] = u[2] & v[2];
; 44   :             w[3] = u[3] & v[3];
; 45   :             w[4] = u[4] & v[4];
; 46   :             w[5] = u[5] & v[5];
; 47   :             w[6] = u[6] & v[6];
; 48   :             w[7] = u[7] & v[7];
; 49   :             w[8] = u[8] & v[8];
; 50   :             w[9] = u[9] & v[9];
; 51   :             w[10] = u[10] & v[10];
; 52   :             w[11] = u[11] & v[11];
; 53   :             w[12] = u[12] & v[12];
; 54   :             w[13] = u[13] & v[13];
; 55   :             w[14] = u[14] & v[14];
; 56   :             w[15] = u[15] & v[15];
; 57   :             w[16] = u[16] & v[16];
; 58   :             w[17] = u[17] & v[17];
; 59   :             w[18] = u[18] & v[18];
; 60   :             w[19] = u[19] & v[19];
; 61   :             w[20] = u[20] & v[20];
; 62   :             w[21] = u[21] & v[21];
; 63   :             w[22] = u[22] & v[22];
; 64   :             w[23] = u[23] & v[23];
; 65   :             w[24] = u[24] & v[24];
; 66   :             w[25] = u[25] & v[25];
; 67   :             w[26] = u[26] & v[26];
; 68   :             w[27] = u[27] & v[27];
; 69   :             w[28] = u[28] & v[28];
; 70   :             w[29] = u[29] & v[29];
; 71   :             w[30] = u[30] & v[30];
; 72   :             w[31] = u[31] & v[31];
; 73   :             u += 32;

  00111	49 81 c2 00 01
	00 00		 add	 r10, 256		; 00000100H

; 74   :             v += 32;

  00118	48 81 c2 00 01
	00 00		 add	 rdx, 256		; 00000100H

; 75   :             w += 32;

  0011f	49 81 c0 00 01
	00 00		 add	 r8, 256			; 00000100H

; 76   :             --count;

  00126	48 83 ef 01	 sub	 rdi, 1
  0012a	0f 85 00 ff ff
	ff		 jne	 $LL2@BitwiseAnd
$LN3@BitwiseAnd:

; 77   :         }
; 78   : 
; 79   :         if (w_count & 0x10)

  00130	40 f6 c6 10	 test	 sil, 16
  00134	0f 84 e7 00 00
	00		 je	 $LN4@BitwiseAnd

; 80   :         {
; 81   :             w[0] = u[0] & v[0];

  0013a	48 8d 42 78	 lea	 rax, QWORD PTR [rdx+120]
  0013e	45 33 db	 xor	 r11d, r11d
  00141	49 8d 48 78	 lea	 rcx, QWORD PTR [r8+120]
  00145	41 b9 10 00 00
	00		 mov	 r9d, 16
  0014b	4c 3b c0	 cmp	 r8, rax
  0014e	77 09		 ja	 SHORT $LN34@BitwiseAnd
  00150	48 3b ca	 cmp	 rcx, rdx
  00153	0f 83 8b 00 00
	00		 jae	 $LN33@BitwiseAnd
$LN34@BitwiseAnd:
  00159	49 8d 42 78	 lea	 rax, QWORD PTR [r10+120]
  0015d	4c 3b c0	 cmp	 r8, rax
  00160	77 05		 ja	 SHORT $LN35@BitwiseAnd
  00162	49 3b ca	 cmp	 rcx, r10
  00165	73 7d		 jae	 SHORT $LN33@BitwiseAnd
$LN35@BitwiseAnd:
  00167	49 8b ca	 mov	 rcx, r10
  0016a	48 8d 42 10	 lea	 rax, QWORD PTR [rdx+16]
  0016e	48 2b ca	 sub	 rcx, rdx
  00171	4d 8b d8	 mov	 r11, r8
  00174	4c 2b da	 sub	 r11, rdx
  00177	bb 02 00 00 00	 mov	 ebx, 2
  0017c	0f 1f 40 00	 npad	 4
$LL14@BitwiseAnd:
  00180	f3 0f 6f 40 f0	 movdqu	 xmm0, XMMWORD PTR [rax-16]
  00185	f3 0f 6f 4c 08
	f0		 movdqu	 xmm1, XMMWORD PTR [rax+rcx-16]
  0018b	f3 0f 6f 14 08	 movdqu	 xmm2, XMMWORD PTR [rax+rcx]
  00190	48 8d 40 40	 lea	 rax, QWORD PTR [rax+64]
  00194	66 0f db c8	 pand	 xmm1, xmm0
  00198	f3 0f 6f 40 c0	 movdqu	 xmm0, XMMWORD PTR [rax-64]
  0019d	f3 42 0f 7f 4c
	18 b0		 movdqu	 XMMWORD PTR [rax+r11-80], xmm1
  001a4	66 0f db d0	 pand	 xmm2, xmm0
  001a8	f3 0f 6f 40 d0	 movdqu	 xmm0, XMMWORD PTR [rax-48]
  001ad	f3 0f 6f 4c 08
	d0		 movdqu	 xmm1, XMMWORD PTR [rax+rcx-48]
  001b3	f3 42 0f 7f 54
	18 c0		 movdqu	 XMMWORD PTR [rax+r11-64], xmm2
  001ba	66 0f db c8	 pand	 xmm1, xmm0
  001be	f3 0f 6f 40 e0	 movdqu	 xmm0, XMMWORD PTR [rax-32]
  001c3	f3 0f 6f 54 08
	e0		 movdqu	 xmm2, XMMWORD PTR [rax+rcx-32]
  001c9	f3 42 0f 7f 4c
	18 d0		 movdqu	 XMMWORD PTR [rax+r11-48], xmm1
  001d0	66 0f db d0	 pand	 xmm2, xmm0
  001d4	f3 42 0f 7f 54
	18 e0		 movdqu	 XMMWORD PTR [rax+r11-32], xmm2
  001db	48 83 eb 01	 sub	 rbx, 1
  001df	75 9f		 jne	 SHORT $LL14@BitwiseAnd
  001e1	4d 8b d9	 mov	 r11, r9
$LN33@BitwiseAnd:
  001e4	4d 3b d9	 cmp	 r11, r9
  001e7	73 2c		 jae	 SHORT $LN15@BitwiseAnd
  001e9	49 8b da	 mov	 rbx, r10
  001ec	4a 8d 0c da	 lea	 rcx, QWORD PTR [rdx+r11*8]
  001f0	49 8b f8	 mov	 rdi, r8
  001f3	48 2b da	 sub	 rbx, rdx
  001f6	48 2b fa	 sub	 rdi, rdx
  001f9	4d 2b cb	 sub	 r9, r11
  001fc	0f 1f 40 00	 npad	 4
$LL32@BitwiseAnd:
  00200	48 8b 04 19	 mov	 rax, QWORD PTR [rcx+rbx]
  00204	48 23 01	 and	 rax, QWORD PTR [rcx]
  00207	48 89 04 39	 mov	 QWORD PTR [rcx+rdi], rax
  0020b	48 8d 49 08	 lea	 rcx, QWORD PTR [rcx+8]
  0020f	49 83 e9 01	 sub	 r9, 1
  00213	75 eb		 jne	 SHORT $LL32@BitwiseAnd
$LN15@BitwiseAnd:

; 82   :             w[1] = u[1] & v[1];
; 83   :             w[2] = u[2] & v[2];
; 84   :             w[3] = u[3] & v[3];
; 85   :             w[4] = u[4] & v[4];
; 86   :             w[5] = u[5] & v[5];
; 87   :             w[6] = u[6] & v[6];
; 88   :             w[7] = u[7] & v[7];
; 89   :             w[8] = u[8] & v[8];
; 90   :             w[9] = u[9] & v[9];
; 91   :             w[10] = u[10] & v[10];
; 92   :             w[11] = u[11] & v[11];
; 93   :             w[12] = u[12] & v[12];
; 94   :             w[13] = u[13] & v[13];
; 95   :             w[14] = u[14] & v[14];
; 96   :             w[15] = u[15] & v[15];
; 97   :             u += 16;

  00215	49 83 ea 80	 sub	 r10, -128		; ffffffffffffff80H

; 98   :             v += 16;

  00219	48 83 ea 80	 sub	 rdx, -128		; ffffffffffffff80H

; 99   :             w += 16;

  0021d	49 83 e8 80	 sub	 r8, -128		; ffffffffffffff80H
$LN4@BitwiseAnd:

; 100  :         }
; 101  : 
; 102  :         if (w_count & 0x8)

  00221	48 8b 3c 24	 mov	 rdi, QWORD PTR [rsp]
  00225	48 8b 5c 24 10	 mov	 rbx, QWORD PTR [rsp+16]
  0022a	40 f6 c6 08	 test	 sil, 8
  0022e	74 69		 je	 SHORT $LN5@BitwiseAnd

; 103  :         {
; 104  :             w[0] = u[0] & v[0];

  00230	49 8b 02	 mov	 rax, QWORD PTR [r10]
  00233	48 23 02	 and	 rax, QWORD PTR [rdx]
  00236	49 89 00	 mov	 QWORD PTR [r8], rax
  00239	49 8b 42 08	 mov	 rax, QWORD PTR [r10+8]
  0023d	48 23 42 08	 and	 rax, QWORD PTR [rdx+8]
  00241	49 89 40 08	 mov	 QWORD PTR [r8+8], rax
  00245	49 8b 42 10	 mov	 rax, QWORD PTR [r10+16]
  00249	48 23 42 10	 and	 rax, QWORD PTR [rdx+16]
  0024d	49 89 40 10	 mov	 QWORD PTR [r8+16], rax
  00251	49 8b 42 18	 mov	 rax, QWORD PTR [r10+24]
  00255	48 23 42 18	 and	 rax, QWORD PTR [rdx+24]
  00259	49 89 40 18	 mov	 QWORD PTR [r8+24], rax
  0025d	49 8b 42 20	 mov	 rax, QWORD PTR [r10+32]
  00261	48 23 42 20	 and	 rax, QWORD PTR [rdx+32]
  00265	49 89 40 20	 mov	 QWORD PTR [r8+32], rax
  00269	49 8b 42 28	 mov	 rax, QWORD PTR [r10+40]
  0026d	48 23 42 28	 and	 rax, QWORD PTR [rdx+40]
  00271	49 89 40 28	 mov	 QWORD PTR [r8+40], rax
  00275	49 8b 42 30	 mov	 rax, QWORD PTR [r10+48]
  00279	48 23 42 30	 and	 rax, QWORD PTR [rdx+48]
  0027d	49 89 40 30	 mov	 QWORD PTR [r8+48], rax
  00281	49 8b 42 38	 mov	 rax, QWORD PTR [r10+56]

; 105  :             w[1] = u[1] & v[1];
; 106  :             w[2] = u[2] & v[2];
; 107  :             w[3] = u[3] & v[3];
; 108  :             w[4] = u[4] & v[4];
; 109  :             w[5] = u[5] & v[5];
; 110  :             w[6] = u[6] & v[6];
; 111  :             w[7] = u[7] & v[7];
; 112  :             u += 8;

  00285	49 83 c2 40	 add	 r10, 64			; 00000040H
  00289	48 23 42 38	 and	 rax, QWORD PTR [rdx+56]

; 113  :             v += 8;

  0028d	48 83 c2 40	 add	 rdx, 64			; 00000040H
  00291	49 89 40 38	 mov	 QWORD PTR [r8+56], rax

; 114  :             w += 8;

  00295	49 83 c0 40	 add	 r8, 64			; 00000040H
$LN5@BitwiseAnd:

; 115  :         }
; 116  : 
; 117  :         if (w_count & 0x4)

  00299	40 f6 c6 04	 test	 sil, 4
  0029d	74 39		 je	 SHORT $LN6@BitwiseAnd

; 118  :         {
; 119  :             w[0] = u[0] & v[0];

  0029f	49 8b 02	 mov	 rax, QWORD PTR [r10]
  002a2	48 23 02	 and	 rax, QWORD PTR [rdx]
  002a5	49 89 00	 mov	 QWORD PTR [r8], rax
  002a8	49 8b 42 08	 mov	 rax, QWORD PTR [r10+8]
  002ac	48 23 42 08	 and	 rax, QWORD PTR [rdx+8]
  002b0	49 89 40 08	 mov	 QWORD PTR [r8+8], rax
  002b4	49 8b 42 10	 mov	 rax, QWORD PTR [r10+16]
  002b8	48 23 42 10	 and	 rax, QWORD PTR [rdx+16]
  002bc	49 89 40 10	 mov	 QWORD PTR [r8+16], rax
  002c0	49 8b 42 18	 mov	 rax, QWORD PTR [r10+24]

; 120  :             w[1] = u[1] & v[1];
; 121  :             w[2] = u[2] & v[2];
; 122  :             w[3] = u[3] & v[3];
; 123  :             u += 4;

  002c4	49 83 c2 20	 add	 r10, 32			; 00000020H
  002c8	48 23 42 18	 and	 rax, QWORD PTR [rdx+24]

; 124  :             v += 4;

  002cc	48 83 c2 20	 add	 rdx, 32			; 00000020H
  002d0	49 89 40 18	 mov	 QWORD PTR [r8+24], rax

; 125  :             w += 4;

  002d4	49 83 c0 20	 add	 r8, 32			; 00000020H
$LN6@BitwiseAnd:

; 126  :         }
; 127  : 
; 128  :         if (w_count & 0x2)

  002d8	40 f6 c6 02	 test	 sil, 2
  002dc	74 21		 je	 SHORT $LN7@BitwiseAnd

; 129  :         {
; 130  :             w[0] = u[0] & v[0];

  002de	49 8b 02	 mov	 rax, QWORD PTR [r10]
  002e1	48 23 02	 and	 rax, QWORD PTR [rdx]
  002e4	49 89 00	 mov	 QWORD PTR [r8], rax
  002e7	49 8b 42 08	 mov	 rax, QWORD PTR [r10+8]

; 131  :             w[1] = u[1] & v[1];
; 132  :             u += 2;

  002eb	49 83 c2 10	 add	 r10, 16
  002ef	48 23 42 08	 and	 rax, QWORD PTR [rdx+8]

; 133  :             v += 2;

  002f3	48 83 c2 10	 add	 rdx, 16
  002f7	49 89 40 08	 mov	 QWORD PTR [r8+8], rax

; 134  :             w += 2;

  002fb	49 83 c0 10	 add	 r8, 16
$LN7@BitwiseAnd:

; 135  :         }
; 136  : 
; 137  :         if (w_count & 0x1)

  002ff	40 f6 c6 01	 test	 sil, 1
  00303	48 8b 74 24 18	 mov	 rsi, QWORD PTR [rsp+24]
  00308	74 09		 je	 SHORT $LN8@BitwiseAnd

; 138  :         {
; 139  :             w[0] = u[0] & v[0];

  0030a	49 8b 02	 mov	 rax, QWORD PTR [r10]
  0030d	48 23 02	 and	 rax, QWORD PTR [rdx]
  00310	49 89 00	 mov	 QWORD PTR [r8], rax
$LN8@BitwiseAnd:

; 140  :             u += 1;
; 141  :             v += 1;
; 142  :             w += 1;
; 143  :         }
; 144  :     }

  00313	48 83 c4 08	 add	 rsp, 8
  00317	c3		 ret	 0
?BitwiseAnd_X_X@Internal@Core@Math@Palmtree@@YAXPEA_K00_K@Z ENDP ; Palmtree::Math::Core::Internal::BitwiseAnd_X_X
_TEXT	ENDS
; Function compile flags: /Ogtpy
; File z:\sources\lunor\repos\rougemeilland\palmtree.math.core.uint\palmtree.math.core.uint\pmc_inline_func.h
;	COMDAT _MINIMUM_UNIT
_TEXT	SEGMENT
x$ = 8
y$ = 16
_MINIMUM_UNIT PROC					; COMDAT

; 172  :             return (x <= y ? x : y);

  00000	48 3b ca	 cmp	 rcx, rdx
  00003	48 0f 46 d1	 cmovbe	 rdx, rcx
  00007	48 8b c2	 mov	 rax, rdx

; 173  :         }

  0000a	c3		 ret	 0
_MINIMUM_UNIT ENDP
_TEXT	ENDS
; Function compile flags: /Ogtpy
; File z:\sources\lunor\repos\rougemeilland\palmtree.math.core.uint\palmtree.math.core.uint\pmc_inline_func.h
;	COMDAT _DIVIDE_CEILING_UNIT
_TEXT	SEGMENT
u$ = 8
v$ = 16
_DIVIDE_CEILING_UNIT PROC				; COMDAT

; 157  :             return ((u + v - 1) / v);

  00000	48 8d 42 ff	 lea	 rax, QWORD PTR [rdx-1]
  00004	4c 8b c2	 mov	 r8, rdx
  00007	48 03 c1	 add	 rax, rcx
  0000a	33 d2		 xor	 edx, edx
  0000c	49 f7 f0	 div	 r8

; 158  :         }

  0000f	c3		 ret	 0
_DIVIDE_CEILING_UNIT ENDP
_TEXT	ENDS
; Function compile flags: /Ogtpy
; File z:\sources\lunor\repos\rougemeilland\palmtree.math.core.uint\palmtree.math.core.uint\pmc_inline_func.h
;	COMDAT _FROMDWORDTOWORD
_TEXT	SEGMENT
value$ = 8
result_high$ = 16
_FROMDWORDTOWORD PROC					; COMDAT

; 146  :             *result_high = (_UINT32_T)(value >> 32);

  00000	48 8b c1	 mov	 rax, rcx
  00003	48 c1 e8 20	 shr	 rax, 32			; 00000020H
  00007	89 02		 mov	 DWORD PTR [rdx], eax

; 147  :             return ((_UINT32_T)value);

  00009	8b c1		 mov	 eax, ecx

; 148  :         }

  0000b	c3		 ret	 0
_FROMDWORDTOWORD ENDP
_TEXT	ENDS
; Function compile flags: /Ogtpy
; File z:\sources\lunor\repos\rougemeilland\palmtree.math.core.uint\palmtree.math.core.uint\pmc_inline_func.h
;	COMDAT _FROMWORDTODWORD
_TEXT	SEGMENT
value_high$ = 8
value_low$ = 16
_FROMWORDTODWORD PROC					; COMDAT

; 141  :             return (((_UINT64_T)value_high << 32) | value_low);

  00000	8b c1		 mov	 eax, ecx
  00002	48 c1 e0 20	 shl	 rax, 32			; 00000020H
  00006	8b ca		 mov	 ecx, edx
  00008	48 0b c1	 or	 rax, rcx

; 142  :         }

  0000b	c3		 ret	 0
_FROMWORDTODWORD ENDP
_TEXT	ENDS
; Function compile flags: /Ogtpy
; File z:\sources\lunor\repos\rougemeilland\palmtree.math.core.uint\palmtree.math.core.uint\pmc_bitwiseand.cpp
; File z:\sources\lunor\repos\rougemeilland\palmtree.math.core.uint\palmtree.math.core.uint\pmc_inline_func.h
; File z:\sources\lunor\repos\rougemeilland\palmtree.math.core.uint\palmtree.math.core.uint\pmc_bitwiseand.cpp
; File z:\sources\lunor\repos\rougemeilland\palmtree.math.core.uint\palmtree.math.core.uint\pmc_inline_func.h
; File z:\sources\lunor\repos\rougemeilland\palmtree.math.core.uint\palmtree.math.core.uint\pmc_bitwiseand.cpp
;	COMDAT ?PMC_BitwiseAnd_X_X@Internal@Core@Math@Palmtree@@YAPEAU__tag_PMC_HANDLE_UINT@1234@PEAU51234@0@Z
_TEXT	SEGMENT
root$1 = 40
$T2 = 40
$T3 = 40
root$ = 88
u$ = 144
v$ = 152
?PMC_BitwiseAnd_X_X@Internal@Core@Math@Palmtree@@YAPEAU__tag_PMC_HANDLE_UINT@1234@PEAU51234@0@Z PROC ; Palmtree::Math::Core::Internal::PMC_BitwiseAnd_X_X, COMDAT

; 322  :     {

$LN24:
  00000	48 8b c4	 mov	 rax, rsp
  00003	57		 push	 rdi
  00004	48 81 ec 80 00
	00 00		 sub	 rsp, 128		; 00000080H
  0000b	48 c7 40 98 fe
	ff ff ff	 mov	 QWORD PTR [rax-104], -2
  00013	48 89 58 08	 mov	 QWORD PTR [rax+8], rbx
  00017	48 89 68 10	 mov	 QWORD PTR [rax+16], rbp
  0001b	48 89 70 18	 mov	 QWORD PTR [rax+24], rsi
  0001f	48 8b f2	 mov	 rsi, rdx
  00022	48 8b e9	 mov	 rbp, rcx

; 323  :         if (u == nullptr)

  00025	48 85 c9	 test	 rcx, rcx
  00028	0f 84 25 01 00
	00		 je	 $LN21@PMC_Bitwis

; 325  :         if (v == nullptr)

  0002e	48 85 d2	 test	 rdx, rdx
  00031	0f 84 f2 00 00
	00		 je	 $LN22@PMC_Bitwis

; 327  :         NUMBER_HEADER* nu = (NUMBER_HEADER*)u;
; 328  :         NUMBER_HEADER* nv = (NUMBER_HEADER*)v;
; 329  :         CheckNumber(nu);

  00037	e8 00 00 00 00	 call	 ?CheckNumber@Internal@Core@Math@Palmtree@@YAXPEAU__tag_NUMBER_HEADER@1234@@Z ; Palmtree::Math::Core::Internal::CheckNumber

; 330  :         CheckNumber(nv);

  0003c	48 8b ce	 mov	 rcx, rsi
  0003f	e8 00 00 00 00	 call	 ?CheckNumber@Internal@Core@Math@Palmtree@@YAXPEAU__tag_NUMBER_HEADER@1234@@Z ; Palmtree::Math::Core::Internal::CheckNumber

; 331  :         ResourceHolderUINT root;

  00044	48 8d 4c 24 58	 lea	 rcx, QWORD PTR root$[rsp]
  00049	e8 00 00 00 00	 call	 ??0ResourceHolderUINT@Internal@Core@Math@Palmtree@@QEAA@XZ ; Palmtree::Math::Core::Internal::ResourceHolderUINT::ResourceHolderUINT
  0004e	90		 npad	 1

; 296  :         if (u->IS_ZERO)

  0004f	f6 45 08 01	 test	 BYTE PTR [rbp+8], 1
  00053	75 7a		 jne	 SHORT $LN19@PMC_Bitwis

; 297  :             return (&number_zero);
; 298  :         else if (v->IS_ZERO)

  00055	f6 46 08 01	 test	 BYTE PTR [rsi+8], 1
  00059	75 74		 jne	 SHORT $LN19@PMC_Bitwis

; 299  :             return (&number_zero);
; 300  :         else
; 301  :         {
; 302  :             ResourceHolderUINT root;

  0005b	48 8d 4c 24 28	 lea	 rcx, QWORD PTR root$1[rsp]
  00060	e8 00 00 00 00	 call	 ??0ResourceHolderUINT@Internal@Core@Math@Palmtree@@QEAA@XZ ; Palmtree::Math::Core::Internal::ResourceHolderUINT::ResourceHolderUINT
  00065	90		 npad	 1

; 303  :             __UNIT_TYPE u_bit_count = u->UNIT_BIT_COUNT;
; 304  :             __UNIT_TYPE v_bit_count = v->UNIT_BIT_COUNT;

  00066	48 8b 5e 20	 mov	 rbx, QWORD PTR [rsi+32]
; File z:\sources\lunor\repos\rougemeilland\palmtree.math.core.uint\palmtree.math.core.uint\pmc_inline_func.h

; 172  :             return (x <= y ? x : y);

  0006a	48 39 5d 20	 cmp	 QWORD PTR [rbp+32], rbx
  0006e	48 0f 46 5d 20	 cmovbe	 rbx, QWORD PTR [rbp+32]
; File z:\sources\lunor\repos\rougemeilland\palmtree.math.core.uint\palmtree.math.core.uint\pmc_bitwiseand.cpp

; 306  :             NUMBER_HEADER* w = root.AllocateNumber(w_bit_count);

  00073	48 8b d3	 mov	 rdx, rbx
  00076	48 8d 4c 24 28	 lea	 rcx, QWORD PTR root$1[rsp]
  0007b	e8 00 00 00 00	 call	 ?AllocateNumber@ResourceHolderUINT@Internal@Core@Math@Palmtree@@QEAAPEAU__tag_NUMBER_HEADER@2345@_K@Z ; Palmtree::Math::Core::Internal::ResourceHolderUINT::AllocateNumber
  00080	48 8b f8	 mov	 rdi, rax
; File z:\sources\lunor\repos\rougemeilland\palmtree.math.core.uint\palmtree.math.core.uint\pmc_inline_func.h

; 157  :             return ((u + v - 1) / v);

  00083	4c 8d 4b 3f	 lea	 r9, QWORD PTR [rbx+63]
  00087	49 c1 e9 06	 shr	 r9, 6
; File z:\sources\lunor\repos\rougemeilland\palmtree.math.core.uint\palmtree.math.core.uint\pmc_bitwiseand.cpp

; 308  :             BitwiseAnd_X_X(u->BLOCK, v->BLOCK, w->BLOCK, w_word_count);

  0008b	4c 8b 40 40	 mov	 r8, QWORD PTR [rax+64]
  0008f	48 8b 56 40	 mov	 rdx, QWORD PTR [rsi+64]
  00093	48 8b 4d 40	 mov	 rcx, QWORD PTR [rbp+64]
  00097	e8 00 00 00 00	 call	 ?BitwiseAnd_X_X@Internal@Core@Math@Palmtree@@YAXPEA_K00_K@Z ; Palmtree::Math::Core::Internal::BitwiseAnd_X_X

; 309  :             root.CheckNumber(w);

  0009c	48 8b d7	 mov	 rdx, rdi
  0009f	48 8d 4c 24 28	 lea	 rcx, QWORD PTR root$1[rsp]
  000a4	e8 00 00 00 00	 call	 ?CheckNumber@ResourceHolderUINT@Internal@Core@Math@Palmtree@@QEAAXPEAU__tag_NUMBER_HEADER@2345@@Z ; Palmtree::Math::Core::Internal::ResourceHolderUINT::CheckNumber

; 310  :             CommitNumber(w);

  000a9	48 8b cf	 mov	 rcx, rdi
  000ac	e8 00 00 00 00	 call	 ?CommitNumber@Internal@Core@Math@Palmtree@@YAXPEAU__tag_NUMBER_HEADER@1234@@Z ; Palmtree::Math::Core::Internal::CommitNumber

; 311  :             if (w->IS_ZERO)

  000b1	48 8b d7	 mov	 rdx, rdi
  000b4	48 8d 4c 24 28	 lea	 rcx, QWORD PTR root$1[rsp]
  000b9	f6 47 08 01	 test	 BYTE PTR [rdi+8], 1
  000bd	74 19		 je	 SHORT $LN11@PMC_Bitwis

; 312  :             {
; 313  :                 root.DeallocateNumber(w);

  000bf	e8 00 00 00 00	 call	 ?DeallocateNumber@ResourceHolderUINT@Internal@Core@Math@Palmtree@@QEAAXPEAU__tag_NUMBER_HEADER@2345@@Z ; Palmtree::Math::Core::Internal::ResourceHolderUINT::DeallocateNumber
  000c4	90		 npad	 1

; 314  :                 return (&number_zero);

  000c5	48 8d 4c 24 28	 lea	 rcx, QWORD PTR root$1[rsp]
  000ca	e8 00 00 00 00	 call	 ??1ResourceHolderUINT@Internal@Core@Math@Palmtree@@UEAA@XZ ; Palmtree::Math::Core::Internal::ResourceHolderUINT::~ResourceHolderUINT
$LN19@PMC_Bitwis:

; 332  :         NUMBER_HEADER* nw = PMC_BitwiseAnd_X_X_Imp(nu, nv);
; 333  :         root.HookNumber(nw);

  000cf	48 8d 3d 00 00
	00 00		 lea	 rdi, OFFSET FLAT:?number_zero@Internal@Core@Math@Palmtree@@3U__tag_NUMBER_HEADER@1234@A ; Palmtree::Math::Core::Internal::number_zero
  000d6	eb 10		 jmp	 SHORT $LN10@PMC_Bitwis
$LN11@PMC_Bitwis:

; 316  :             root.UnlinkNumber(w);

  000d8	e8 00 00 00 00	 call	 ?UnlinkNumber@ResourceHolderUINT@Internal@Core@Math@Palmtree@@QEAAXPEAU__tag_NUMBER_HEADER@2345@@Z ; Palmtree::Math::Core::Internal::ResourceHolderUINT::UnlinkNumber
  000dd	90		 npad	 1

; 317  :             return (w);

  000de	48 8d 4c 24 28	 lea	 rcx, QWORD PTR root$1[rsp]
  000e3	e8 00 00 00 00	 call	 ??1ResourceHolderUINT@Internal@Core@Math@Palmtree@@UEAA@XZ ; Palmtree::Math::Core::Internal::ResourceHolderUINT::~ResourceHolderUINT
$LN10@PMC_Bitwis:

; 332  :         NUMBER_HEADER* nw = PMC_BitwiseAnd_X_X_Imp(nu, nv);
; 333  :         root.HookNumber(nw);

  000e8	48 8b d7	 mov	 rdx, rdi
  000eb	48 8d 4c 24 58	 lea	 rcx, QWORD PTR root$[rsp]
  000f0	e8 00 00 00 00	 call	 ?HookNumber@ResourceHolderUINT@Internal@Core@Math@Palmtree@@QEAAXPEAU__tag_NUMBER_HEADER@2345@@Z ; Palmtree::Math::Core::Internal::ResourceHolderUINT::HookNumber

; 334  : #ifdef _DEBUG
; 335  :         CheckNumber(nw);
; 336  : #endif
; 337  :         root.UnlinkNumber(nw);

  000f5	48 8b d7	 mov	 rdx, rdi
  000f8	48 8d 4c 24 58	 lea	 rcx, QWORD PTR root$[rsp]
  000fd	e8 00 00 00 00	 call	 ?UnlinkNumber@ResourceHolderUINT@Internal@Core@Math@Palmtree@@QEAAXPEAU__tag_NUMBER_HEADER@2345@@Z ; Palmtree::Math::Core::Internal::ResourceHolderUINT::UnlinkNumber
  00102	90		 npad	 1

; 338  :         return ((PMC_HANDLE_UINT)nw);

  00103	48 8d 4c 24 58	 lea	 rcx, QWORD PTR root$[rsp]
  00108	e8 00 00 00 00	 call	 ??1ResourceHolderUINT@Internal@Core@Math@Palmtree@@UEAA@XZ ; Palmtree::Math::Core::Internal::ResourceHolderUINT::~ResourceHolderUINT
  0010d	48 8b c7	 mov	 rax, rdi

; 339  :     }

  00110	4c 8d 9c 24 80
	00 00 00	 lea	 r11, QWORD PTR [rsp+128]
  00118	49 8b 5b 10	 mov	 rbx, QWORD PTR [r11+16]
  0011c	49 8b 6b 18	 mov	 rbp, QWORD PTR [r11+24]
  00120	49 8b 73 20	 mov	 rsi, QWORD PTR [r11+32]
  00124	49 8b e3	 mov	 rsp, r11
  00127	5f		 pop	 rdi
  00128	c3		 ret	 0
$LN22@PMC_Bitwis:

; 326  :             throw ArgumentNullException(L"nullptr", L"v");

  00129	4c 8d 05 00 00
	00 00		 lea	 r8, OFFSET FLAT:??_C@_13JAOPNPKD@?$AAv@
  00130	48 8d 15 00 00
	00 00		 lea	 rdx, OFFSET FLAT:??_C@_1CK@ECFIEPAC@?$AA?$BF?$AAp?$AAk?$AAn?$AAu?$AAl?$AAl?$AAp?$AAt?$AAr?$AAL?$AA?$AO?$AAH?$PP?$IJ?$PP?$IM@
  00137	48 8d 4c 24 28	 lea	 rcx, QWORD PTR $T2[rsp]
  0013c	e8 00 00 00 00	 call	 ??0ArgumentNullException@Internal@Core@Math@Palmtree@@QEAA@PEB_W0@Z ; Palmtree::Math::Core::Internal::ArgumentNullException::ArgumentNullException
  00141	48 8d 15 00 00
	00 00		 lea	 rdx, OFFSET FLAT:_TI2?AVArgumentNullException@Internal@Core@Math@Palmtree@@
  00148	48 8d 4c 24 28	 lea	 rcx, QWORD PTR $T2[rsp]
  0014d	e8 00 00 00 00	 call	 _CxxThrowException
  00152	cc		 int	 3
$LN21@PMC_Bitwis:

; 324  :             throw ArgumentNullException(L"nullptr", L"u");

  00153	4c 8d 05 00 00
	00 00		 lea	 r8, OFFSET FLAT:??_C@_13ICFKHAEN@?$AAu@
  0015a	48 8d 15 00 00
	00 00		 lea	 rdx, OFFSET FLAT:??_C@_1CK@ECFIEPAC@?$AA?$BF?$AAp?$AAk?$AAn?$AAu?$AAl?$AAl?$AAp?$AAt?$AAr?$AAL?$AA?$AO?$AAH?$PP?$IJ?$PP?$IM@
  00161	48 8d 4c 24 28	 lea	 rcx, QWORD PTR $T3[rsp]
  00166	e8 00 00 00 00	 call	 ??0ArgumentNullException@Internal@Core@Math@Palmtree@@QEAA@PEB_W0@Z ; Palmtree::Math::Core::Internal::ArgumentNullException::ArgumentNullException
  0016b	48 8d 15 00 00
	00 00		 lea	 rdx, OFFSET FLAT:_TI2?AVArgumentNullException@Internal@Core@Math@Palmtree@@
  00172	48 8d 4c 24 28	 lea	 rcx, QWORD PTR $T3[rsp]
  00177	e8 00 00 00 00	 call	 _CxxThrowException
  0017c	cc		 int	 3
$LN18@PMC_Bitwis:
?PMC_BitwiseAnd_X_X@Internal@Core@Math@Palmtree@@YAPEAU__tag_PMC_HANDLE_UINT@1234@PEAU51234@0@Z ENDP ; Palmtree::Math::Core::Internal::PMC_BitwiseAnd_X_X
_TEXT	ENDS
;	COMDAT text$x
text$x	SEGMENT
root$1 = 40
$T2 = 40
$T3 = 40
root$ = 88
u$ = 144
v$ = 152
?dtor$0@?0??PMC_BitwiseAnd_X_X@Internal@Core@Math@Palmtree@@YAPEAU__tag_PMC_HANDLE_UINT@1234@PEAU51234@0@Z@4HA PROC ; `Palmtree::Math::Core::Internal::PMC_BitwiseAnd_X_X'::`1'::dtor$0
  00000	48 8d 8a 58 00
	00 00		 lea	 rcx, QWORD PTR root$[rdx]
  00007	e9 00 00 00 00	 jmp	 ??1ResourceHolderUINT@Internal@Core@Math@Palmtree@@UEAA@XZ ; Palmtree::Math::Core::Internal::ResourceHolderUINT::~ResourceHolderUINT
?dtor$0@?0??PMC_BitwiseAnd_X_X@Internal@Core@Math@Palmtree@@YAPEAU__tag_PMC_HANDLE_UINT@1234@PEAU51234@0@Z@4HA ENDP ; `Palmtree::Math::Core::Internal::PMC_BitwiseAnd_X_X'::`1'::dtor$0
text$x	ENDS
;	COMDAT text$x
text$x	SEGMENT
root$1 = 40
$T2 = 40
$T3 = 40
root$ = 88
u$ = 144
v$ = 152
?dtor$1@?0??PMC_BitwiseAnd_X_X@Internal@Core@Math@Palmtree@@YAPEAU__tag_PMC_HANDLE_UINT@1234@PEAU51234@0@Z@4HA PROC ; `Palmtree::Math::Core::Internal::PMC_BitwiseAnd_X_X'::`1'::dtor$1
  00000	48 8d 8a 28 00
	00 00		 lea	 rcx, QWORD PTR root$1[rdx]
  00007	e9 00 00 00 00	 jmp	 ??1ResourceHolderUINT@Internal@Core@Math@Palmtree@@UEAA@XZ ; Palmtree::Math::Core::Internal::ResourceHolderUINT::~ResourceHolderUINT
?dtor$1@?0??PMC_BitwiseAnd_X_X@Internal@Core@Math@Palmtree@@YAPEAU__tag_PMC_HANDLE_UINT@1234@PEAU51234@0@Z@4HA ENDP ; `Palmtree::Math::Core::Internal::PMC_BitwiseAnd_X_X'::`1'::dtor$1
text$x	ENDS
; Function compile flags: /Ogtpy
;	COMDAT text$x
text$x	SEGMENT
root$1 = 40
$T2 = 40
$T3 = 40
root$ = 88
u$ = 144
v$ = 152
?dtor$0@?0??PMC_BitwiseAnd_X_X@Internal@Core@Math@Palmtree@@YAPEAU__tag_PMC_HANDLE_UINT@1234@PEAU51234@0@Z@4HA PROC ; `Palmtree::Math::Core::Internal::PMC_BitwiseAnd_X_X'::`1'::dtor$0
  00000	48 8d 8a 58 00
	00 00		 lea	 rcx, QWORD PTR root$[rdx]
  00007	e9 00 00 00 00	 jmp	 ??1ResourceHolderUINT@Internal@Core@Math@Palmtree@@UEAA@XZ ; Palmtree::Math::Core::Internal::ResourceHolderUINT::~ResourceHolderUINT
?dtor$0@?0??PMC_BitwiseAnd_X_X@Internal@Core@Math@Palmtree@@YAPEAU__tag_PMC_HANDLE_UINT@1234@PEAU51234@0@Z@4HA ENDP ; `Palmtree::Math::Core::Internal::PMC_BitwiseAnd_X_X'::`1'::dtor$0
text$x	ENDS
; Function compile flags: /Ogtpy
;	COMDAT text$x
text$x	SEGMENT
root$1 = 40
$T2 = 40
$T3 = 40
root$ = 88
u$ = 144
v$ = 152
?dtor$1@?0??PMC_BitwiseAnd_X_X@Internal@Core@Math@Palmtree@@YAPEAU__tag_PMC_HANDLE_UINT@1234@PEAU51234@0@Z@4HA PROC ; `Palmtree::Math::Core::Internal::PMC_BitwiseAnd_X_X'::`1'::dtor$1
  00000	48 8d 8a 28 00
	00 00		 lea	 rcx, QWORD PTR root$1[rdx]
  00007	e9 00 00 00 00	 jmp	 ??1ResourceHolderUINT@Internal@Core@Math@Palmtree@@UEAA@XZ ; Palmtree::Math::Core::Internal::ResourceHolderUINT::~ResourceHolderUINT
?dtor$1@?0??PMC_BitwiseAnd_X_X@Internal@Core@Math@Palmtree@@YAPEAU__tag_PMC_HANDLE_UINT@1234@PEAU51234@0@Z@4HA ENDP ; `Palmtree::Math::Core::Internal::PMC_BitwiseAnd_X_X'::`1'::dtor$1
text$x	ENDS
; Function compile flags: /Ogtpy
; File z:\sources\lunor\repos\rougemeilland\palmtree.math.core.uint\palmtree.math.core.uint\pmc_bitwiseand.cpp
;	COMDAT ?PMC_BitwiseAnd_X_L@Internal@Core@Math@Palmtree@@YA_KPEAU__tag_PMC_HANDLE_UINT@1234@_K@Z
_TEXT	SEGMENT
$T1 = 32
u$ = 96
v$ = 104
?PMC_BitwiseAnd_X_L@Internal@Core@Math@Palmtree@@YA_KPEAU__tag_PMC_HANDLE_UINT@1234@_K@Z PROC ; Palmtree::Math::Core::Internal::PMC_BitwiseAnd_X_L, COMDAT

; 251  :     {

$LN21:
  00000	48 89 5c 24 08	 mov	 QWORD PTR [rsp+8], rbx
  00005	57		 push	 rdi
  00006	48 83 ec 50	 sub	 rsp, 80			; 00000050H
  0000a	48 8b fa	 mov	 rdi, rdx
  0000d	48 8b d9	 mov	 rbx, rcx

; 252  :         if (__UNIT_TYPE_BIT_COUNT * 2 < sizeof(v) * 8)
; 253  :         {
; 254  :             // _UINT64_T  2 
; 255  :             throw InternalErrorException(L"", L"pmc_bitwiseand.cpp;PMC_BitwiseAnd_X_L;1");
; 256  :         }
; 257  :         if (u == nullptr)

  00010	48 85 c9	 test	 rcx, rcx
  00013	74 32		 je	 SHORT $LN20@PMC_Bitwis

; 259  :         NUMBER_HEADER* nu = (NUMBER_HEADER*)u;
; 260  :         CheckNumber(nu);

  00015	e8 00 00 00 00	 call	 ?CheckNumber@Internal@Core@Math@Palmtree@@YAXPEAU__tag_NUMBER_HEADER@1234@@Z ; Palmtree::Math::Core::Internal::CheckNumber

; 261  :         if (nu->IS_ZERO)

  0001a	f6 43 08 01	 test	 BYTE PTR [rbx+8], 1
  0001e	75 1a		 jne	 SHORT $LN17@PMC_Bitwis

; 262  :         {
; 263  :             // u  0 
; 264  :             return (0);
; 265  :         }
; 266  :         else if (v == 0)

  00020	48 85 ff	 test	 rdi, rdi
  00023	74 15		 je	 SHORT $LN17@PMC_Bitwis

; 267  :         {
; 268  :             // v  0 
; 269  :             return (0);
; 270  :         }
; 271  :         else
; 272  :         {
; 273  :             // u  v  0 
; 274  : 
; 275  :             // x  y  bit AND 
; 276  :             if (__UNIT_TYPE_BIT_COUNT < sizeof(v) * 8)
; 277  :             {
; 278  :                 // _UINT64_T  1 
; 279  : 
; 280  :                 _UINT32_T v_hi;
; 281  :                 _UINT32_T v_lo = _FROMDWORDTOWORD(v, &v_hi);
; 282  :                 _UINT32_T w_hi = nu->UNIT_WORD_COUNT > 1 ? nu->BLOCK[1] & v_hi : 0;
; 283  :                 _UINT32_T w_lo = nu->BLOCK[0] & v_lo;
; 284  :                 return (_FROMWORDTODWORD(w_hi, w_lo));
; 285  :             }
; 286  :             else
; 287  :             {
; 288  :                 // _UINT64_T  1 
; 289  :                 return (nu->BLOCK[0] & v);

  00025	48 8b 43 40	 mov	 rax, QWORD PTR [rbx+64]
  00029	48 8b 00	 mov	 rax, QWORD PTR [rax]
  0002c	48 23 c7	 and	 rax, rdi

; 290  :             }
; 291  :         }
; 292  :     }

  0002f	48 8b 5c 24 60	 mov	 rbx, QWORD PTR [rsp+96]
  00034	48 83 c4 50	 add	 rsp, 80			; 00000050H
  00038	5f		 pop	 rdi
  00039	c3		 ret	 0
$LN17@PMC_Bitwis:
  0003a	48 8b 5c 24 60	 mov	 rbx, QWORD PTR [rsp+96]
  0003f	33 c0		 xor	 eax, eax
  00041	48 83 c4 50	 add	 rsp, 80			; 00000050H
  00045	5f		 pop	 rdi
  00046	c3		 ret	 0
$LN20@PMC_Bitwis:

; 258  :             throw ArgumentNullException(L"nullptr", L"v");

  00047	4c 8d 05 00 00
	00 00		 lea	 r8, OFFSET FLAT:??_C@_13JAOPNPKD@?$AAv@
  0004e	48 8d 15 00 00
	00 00		 lea	 rdx, OFFSET FLAT:??_C@_1CK@ECFIEPAC@?$AA?$BF?$AAp?$AAk?$AAn?$AAu?$AAl?$AAl?$AAp?$AAt?$AAr?$AAL?$AA?$AO?$AAH?$PP?$IJ?$PP?$IM@
  00055	48 8d 4c 24 20	 lea	 rcx, QWORD PTR $T1[rsp]
  0005a	e8 00 00 00 00	 call	 ??0ArgumentNullException@Internal@Core@Math@Palmtree@@QEAA@PEB_W0@Z ; Palmtree::Math::Core::Internal::ArgumentNullException::ArgumentNullException
  0005f	48 8d 15 00 00
	00 00		 lea	 rdx, OFFSET FLAT:_TI2?AVArgumentNullException@Internal@Core@Math@Palmtree@@
  00066	48 8d 4c 24 20	 lea	 rcx, QWORD PTR $T1[rsp]
  0006b	e8 00 00 00 00	 call	 _CxxThrowException
  00070	cc		 int	 3
$LN18@PMC_Bitwis:
?PMC_BitwiseAnd_X_L@Internal@Core@Math@Palmtree@@YA_KPEAU__tag_PMC_HANDLE_UINT@1234@_K@Z ENDP ; Palmtree::Math::Core::Internal::PMC_BitwiseAnd_X_L
_TEXT	ENDS
; Function compile flags: /Ogtpy
; File z:\sources\lunor\repos\rougemeilland\palmtree.math.core.uint\palmtree.math.core.uint\pmc_bitwiseand.cpp
;	COMDAT ?PMC_BitwiseAnd_X_I@Internal@Core@Math@Palmtree@@YAIPEAU__tag_PMC_HANDLE_UINT@1234@I@Z
_TEXT	SEGMENT
$T1 = 32
u$ = 96
v$ = 104
?PMC_BitwiseAnd_X_I@Internal@Core@Math@Palmtree@@YAIPEAU__tag_PMC_HANDLE_UINT@1234@I@Z PROC ; Palmtree::Math::Core::Internal::PMC_BitwiseAnd_X_I, COMDAT

; 177  :     {

$LN13:
  00000	48 89 5c 24 08	 mov	 QWORD PTR [rsp+8], rbx
  00005	57		 push	 rdi
  00006	48 83 ec 50	 sub	 rsp, 80			; 00000050H
  0000a	8b fa		 mov	 edi, edx
  0000c	48 8b d9	 mov	 rbx, rcx

; 178  :         if (__UNIT_TYPE_BIT_COUNT < sizeof(v) * 8)
; 179  :         {
; 180  :             // _UINT32_T  1 
; 181  :             throw InternalErrorException(L"", L"pmc_bitwiseand.cpp;PMC_BitwiseAnd_X_I;1");
; 182  :         }
; 183  :         if (u == nullptr)

  0000f	48 85 c9	 test	 rcx, rcx
  00012	74 2f		 je	 SHORT $LN12@PMC_Bitwis

; 185  :         NUMBER_HEADER* nu = (NUMBER_HEADER*)u;
; 186  :         CheckNumber(nu);

  00014	e8 00 00 00 00	 call	 ?CheckNumber@Internal@Core@Math@Palmtree@@YAXPEAU__tag_NUMBER_HEADER@1234@@Z ; Palmtree::Math::Core::Internal::CheckNumber

; 187  :         if (nu->IS_ZERO)

  00019	f6 43 08 01	 test	 BYTE PTR [rbx+8], 1
  0001d	75 17		 jne	 SHORT $LN9@PMC_Bitwis

; 188  :         {
; 189  :             // u  0 
; 190  :             return (0);
; 191  :         }
; 192  :         else  if (v == 0)

  0001f	85 ff		 test	 edi, edi
  00021	74 13		 je	 SHORT $LN9@PMC_Bitwis

; 193  :         {
; 194  :             // v  0 
; 195  :             return (0);
; 196  :         }
; 197  :         else
; 198  :         {
; 199  :             // u  v  0 
; 200  : 
; 201  :             // u  v  bit AND 
; 202  :             return (nu->BLOCK[0] & v);

  00023	48 8b 43 40	 mov	 rax, QWORD PTR [rbx+64]
  00027	8b 00		 mov	 eax, DWORD PTR [rax]
  00029	23 c7		 and	 eax, edi

; 203  :         }
; 204  :     }

  0002b	48 8b 5c 24 60	 mov	 rbx, QWORD PTR [rsp+96]
  00030	48 83 c4 50	 add	 rsp, 80			; 00000050H
  00034	5f		 pop	 rdi
  00035	c3		 ret	 0
$LN9@PMC_Bitwis:
  00036	48 8b 5c 24 60	 mov	 rbx, QWORD PTR [rsp+96]
  0003b	33 c0		 xor	 eax, eax
  0003d	48 83 c4 50	 add	 rsp, 80			; 00000050H
  00041	5f		 pop	 rdi
  00042	c3		 ret	 0
$LN12@PMC_Bitwis:

; 184  :             throw ArgumentNullException(L"nullptr", L"u");

  00043	4c 8d 05 00 00
	00 00		 lea	 r8, OFFSET FLAT:??_C@_13ICFKHAEN@?$AAu@
  0004a	48 8d 15 00 00
	00 00		 lea	 rdx, OFFSET FLAT:??_C@_1CK@ECFIEPAC@?$AA?$BF?$AAp?$AAk?$AAn?$AAu?$AAl?$AAl?$AAp?$AAt?$AAr?$AAL?$AA?$AO?$AAH?$PP?$IJ?$PP?$IM@
  00051	48 8d 4c 24 20	 lea	 rcx, QWORD PTR $T1[rsp]
  00056	e8 00 00 00 00	 call	 ??0ArgumentNullException@Internal@Core@Math@Palmtree@@QEAA@PEB_W0@Z ; Palmtree::Math::Core::Internal::ArgumentNullException::ArgumentNullException
  0005b	48 8d 15 00 00
	00 00		 lea	 rdx, OFFSET FLAT:_TI2?AVArgumentNullException@Internal@Core@Math@Palmtree@@
  00062	48 8d 4c 24 20	 lea	 rcx, QWORD PTR $T1[rsp]
  00067	e8 00 00 00 00	 call	 _CxxThrowException
  0006c	cc		 int	 3
$LN10@PMC_Bitwis:
?PMC_BitwiseAnd_X_I@Internal@Core@Math@Palmtree@@YAIPEAU__tag_PMC_HANDLE_UINT@1234@I@Z ENDP ; Palmtree::Math::Core::Internal::PMC_BitwiseAnd_X_I
_TEXT	ENDS
; Function compile flags: /Ogtpy
; File z:\sources\lunor\repos\rougemeilland\palmtree.math.core.uint\palmtree.math.core.uint\pmc_bitwiseand.cpp
;	COMDAT ?PMC_BitwiseAnd_L_X@Internal@Core@Math@Palmtree@@YA_K_KPEAU__tag_PMC_HANDLE_UINT@1234@@Z
_TEXT	SEGMENT
$T1 = 32
u$ = 96
v$ = 104
?PMC_BitwiseAnd_L_X@Internal@Core@Math@Palmtree@@YA_K_KPEAU__tag_PMC_HANDLE_UINT@1234@@Z PROC ; Palmtree::Math::Core::Internal::PMC_BitwiseAnd_L_X, COMDAT

; 207  :     {

$LN21:
  00000	48 89 5c 24 08	 mov	 QWORD PTR [rsp+8], rbx
  00005	57		 push	 rdi
  00006	48 83 ec 50	 sub	 rsp, 80			; 00000050H
  0000a	48 8b da	 mov	 rbx, rdx
  0000d	48 8b f9	 mov	 rdi, rcx

; 208  :         if (__UNIT_TYPE_BIT_COUNT * 2 < sizeof(u) * 8)
; 209  :         {
; 210  :             // _UINT64_T  2 
; 211  :             throw InternalErrorException(L"", L"pmc_bitwiseand.cpp;PMC_BitwiseAnd_L_X;1");
; 212  :         }
; 213  :         if (v == nullptr)

  00010	48 85 d2	 test	 rdx, rdx
  00013	74 35		 je	 SHORT $LN20@PMC_Bitwis

; 215  :         NUMBER_HEADER* nv = (NUMBER_HEADER*)v;
; 216  :         CheckNumber(nv);

  00015	48 8b ca	 mov	 rcx, rdx
  00018	e8 00 00 00 00	 call	 ?CheckNumber@Internal@Core@Math@Palmtree@@YAXPEAU__tag_NUMBER_HEADER@1234@@Z ; Palmtree::Math::Core::Internal::CheckNumber

; 217  :         if (nv->IS_ZERO)

  0001d	f6 43 08 01	 test	 BYTE PTR [rbx+8], 1
  00021	75 1a		 jne	 SHORT $LN17@PMC_Bitwis

; 218  :         {
; 219  :             // v  0 
; 220  :             return (0);
; 221  :         }
; 222  :         else if (u == 0)

  00023	48 85 ff	 test	 rdi, rdi
  00026	74 15		 je	 SHORT $LN17@PMC_Bitwis

; 223  :         {
; 224  :             // u  0 
; 225  :             return (0);
; 226  :         }
; 227  :         else
; 228  :         {
; 229  :             // u  v  0 
; 230  : 
; 231  :             // x  y  bit AND 
; 232  :             if (__UNIT_TYPE_BIT_COUNT < sizeof(u) * 8)
; 233  :             {
; 234  :                 // _UINT64_T  1 
; 235  : 
; 236  :                 _UINT32_T u_hi;
; 237  :                 _UINT32_T u_lo = _FROMDWORDTOWORD(u, &u_hi);
; 238  :                 _UINT32_T w_hi = nv->UNIT_WORD_COUNT > 1 ? nv->BLOCK[1] & u_hi : 0;
; 239  :                 _UINT32_T w_lo = nv->BLOCK[0] & u_lo;
; 240  :                 return (_FROMWORDTODWORD(w_hi, w_lo));
; 241  :             }
; 242  :             else
; 243  :             {
; 244  :                 // _UINT64_T  1 
; 245  :                 return (nv->BLOCK[0] & u);

  00028	48 8b 43 40	 mov	 rax, QWORD PTR [rbx+64]
  0002c	48 8b 00	 mov	 rax, QWORD PTR [rax]
  0002f	48 23 c7	 and	 rax, rdi

; 246  :             }
; 247  :         }
; 248  :     }

  00032	48 8b 5c 24 60	 mov	 rbx, QWORD PTR [rsp+96]
  00037	48 83 c4 50	 add	 rsp, 80			; 00000050H
  0003b	5f		 pop	 rdi
  0003c	c3		 ret	 0
$LN17@PMC_Bitwis:
  0003d	48 8b 5c 24 60	 mov	 rbx, QWORD PTR [rsp+96]
  00042	33 c0		 xor	 eax, eax
  00044	48 83 c4 50	 add	 rsp, 80			; 00000050H
  00048	5f		 pop	 rdi
  00049	c3		 ret	 0
$LN20@PMC_Bitwis:

; 214  :             throw ArgumentNullException(L"nullptr", L"v");

  0004a	4c 8d 05 00 00
	00 00		 lea	 r8, OFFSET FLAT:??_C@_13JAOPNPKD@?$AAv@
  00051	48 8d 15 00 00
	00 00		 lea	 rdx, OFFSET FLAT:??_C@_1CK@ECFIEPAC@?$AA?$BF?$AAp?$AAk?$AAn?$AAu?$AAl?$AAl?$AAp?$AAt?$AAr?$AAL?$AA?$AO?$AAH?$PP?$IJ?$PP?$IM@
  00058	48 8d 4c 24 20	 lea	 rcx, QWORD PTR $T1[rsp]
  0005d	e8 00 00 00 00	 call	 ??0ArgumentNullException@Internal@Core@Math@Palmtree@@QEAA@PEB_W0@Z ; Palmtree::Math::Core::Internal::ArgumentNullException::ArgumentNullException
  00062	48 8d 15 00 00
	00 00		 lea	 rdx, OFFSET FLAT:_TI2?AVArgumentNullException@Internal@Core@Math@Palmtree@@
  00069	48 8d 4c 24 20	 lea	 rcx, QWORD PTR $T1[rsp]
  0006e	e8 00 00 00 00	 call	 _CxxThrowException
  00073	cc		 int	 3
$LN18@PMC_Bitwis:
?PMC_BitwiseAnd_L_X@Internal@Core@Math@Palmtree@@YA_K_KPEAU__tag_PMC_HANDLE_UINT@1234@@Z ENDP ; Palmtree::Math::Core::Internal::PMC_BitwiseAnd_L_X
_TEXT	ENDS
; Function compile flags: /Ogtpy
; File z:\sources\lunor\repos\rougemeilland\palmtree.math.core.uint\palmtree.math.core.uint\pmc_bitwiseand.cpp
;	COMDAT ?PMC_BitwiseAnd_I_X@Internal@Core@Math@Palmtree@@YAIIPEAU__tag_PMC_HANDLE_UINT@1234@@Z
_TEXT	SEGMENT
$T1 = 32
u$ = 96
v$ = 104
?PMC_BitwiseAnd_I_X@Internal@Core@Math@Palmtree@@YAIIPEAU__tag_PMC_HANDLE_UINT@1234@@Z PROC ; Palmtree::Math::Core::Internal::PMC_BitwiseAnd_I_X, COMDAT

; 147  :     {

$LN13:
  00000	48 89 5c 24 08	 mov	 QWORD PTR [rsp+8], rbx
  00005	57		 push	 rdi
  00006	48 83 ec 50	 sub	 rsp, 80			; 00000050H
  0000a	48 8b da	 mov	 rbx, rdx
  0000d	8b f9		 mov	 edi, ecx

; 148  :         if (__UNIT_TYPE_BIT_COUNT < sizeof(u) * 8)
; 149  :         {
; 150  :             // _UINT32_T  1 
; 151  :             throw InternalErrorException(L"", L"pmc_bitwiseand.cpp;PMC_BitwiseAnd_I_X;1");
; 152  :         }
; 153  :         if (v == nullptr)

  0000f	48 85 d2	 test	 rdx, rdx
  00012	74 32		 je	 SHORT $LN12@PMC_Bitwis

; 155  :         NUMBER_HEADER* nv = (NUMBER_HEADER*)v;
; 156  :         CheckNumber(nv);

  00014	48 8b ca	 mov	 rcx, rdx
  00017	e8 00 00 00 00	 call	 ?CheckNumber@Internal@Core@Math@Palmtree@@YAXPEAU__tag_NUMBER_HEADER@1234@@Z ; Palmtree::Math::Core::Internal::CheckNumber

; 157  :         if (nv->IS_ZERO)

  0001c	f6 43 08 01	 test	 BYTE PTR [rbx+8], 1
  00020	75 17		 jne	 SHORT $LN9@PMC_Bitwis

; 158  :         {
; 159  :             // v  0 
; 160  :             return (0);
; 161  :         }
; 162  :         else if (u == 0)

  00022	85 ff		 test	 edi, edi
  00024	74 13		 je	 SHORT $LN9@PMC_Bitwis

; 163  :         {
; 164  :             // u  0 
; 165  :             return (0);
; 166  :         }
; 167  :         else
; 168  :         {
; 169  :             // u  v  0 
; 170  : 
; 171  :             // u  v  bit AND 
; 172  :             return (nv->BLOCK[0] & u);

  00026	48 8b 43 40	 mov	 rax, QWORD PTR [rbx+64]
  0002a	8b 00		 mov	 eax, DWORD PTR [rax]
  0002c	23 c7		 and	 eax, edi

; 173  :         }
; 174  :     }

  0002e	48 8b 5c 24 60	 mov	 rbx, QWORD PTR [rsp+96]
  00033	48 83 c4 50	 add	 rsp, 80			; 00000050H
  00037	5f		 pop	 rdi
  00038	c3		 ret	 0
$LN9@PMC_Bitwis:
  00039	48 8b 5c 24 60	 mov	 rbx, QWORD PTR [rsp+96]
  0003e	33 c0		 xor	 eax, eax
  00040	48 83 c4 50	 add	 rsp, 80			; 00000050H
  00044	5f		 pop	 rdi
  00045	c3		 ret	 0
$LN12@PMC_Bitwis:

; 154  :             throw ArgumentNullException(L"nullptr", L"v");

  00046	4c 8d 05 00 00
	00 00		 lea	 r8, OFFSET FLAT:??_C@_13JAOPNPKD@?$AAv@
  0004d	48 8d 15 00 00
	00 00		 lea	 rdx, OFFSET FLAT:??_C@_1CK@ECFIEPAC@?$AA?$BF?$AAp?$AAk?$AAn?$AAu?$AAl?$AAl?$AAp?$AAt?$AAr?$AAL?$AA?$AO?$AAH?$PP?$IJ?$PP?$IM@
  00054	48 8d 4c 24 20	 lea	 rcx, QWORD PTR $T1[rsp]
  00059	e8 00 00 00 00	 call	 ??0ArgumentNullException@Internal@Core@Math@Palmtree@@QEAA@PEB_W0@Z ; Palmtree::Math::Core::Internal::ArgumentNullException::ArgumentNullException
  0005e	48 8d 15 00 00
	00 00		 lea	 rdx, OFFSET FLAT:_TI2?AVArgumentNullException@Internal@Core@Math@Palmtree@@
  00065	48 8d 4c 24 20	 lea	 rcx, QWORD PTR $T1[rsp]
  0006a	e8 00 00 00 00	 call	 _CxxThrowException
  0006f	cc		 int	 3
$LN10@PMC_Bitwis:
?PMC_BitwiseAnd_I_X@Internal@Core@Math@Palmtree@@YAIIPEAU__tag_PMC_HANDLE_UINT@1234@@Z ENDP ; Palmtree::Math::Core::Internal::PMC_BitwiseAnd_I_X
_TEXT	ENDS
; Function compile flags: /Ogtpy
; File z:\sources\lunor\repos\rougemeilland\palmtree.math.core.uint\palmtree.math.core.uint\pmc_bitwiseand.cpp
;	COMDAT ?Initialize_BitwiseAnd@Internal@Core@Math@Palmtree@@YAHPEAU_tag_PROCESSOR_FEATURES@1234@@Z
_TEXT	SEGMENT
feature$ = 8
?Initialize_BitwiseAnd@Internal@Core@Math@Palmtree@@YAHPEAU_tag_PROCESSOR_FEATURES@1234@@Z PROC ; Palmtree::Math::Core::Internal::Initialize_BitwiseAnd, COMDAT

; 343  :         return (PMC_STATUS_OK);

  00000	33 c0		 xor	 eax, eax

; 344  :     }

  00002	c3		 ret	 0
?Initialize_BitwiseAnd@Internal@Core@Math@Palmtree@@YAHPEAU_tag_PROCESSOR_FEATURES@1234@@Z ENDP ; Palmtree::Math::Core::Internal::Initialize_BitwiseAnd
_TEXT	ENDS
; Function compile flags: /Ogtpy
; File z:\sources\lunor\repos\rougemeilland\palmtree.math.core.uint\palmtree.math.core.uint\pmc_exception.h
; File c:\program files (x86)\microsoft visual studio\2017\community\vc\tools\msvc\14.16.27023\include\vcruntime_exception.h
;	COMDAT ??_GInternalErrorException@Internal@Core@Math@Palmtree@@UEAAPEAXI@Z
_TEXT	SEGMENT
$T1 = 32
this$ = 64
__flags$ = 72
??_GInternalErrorException@Internal@Core@Math@Palmtree@@UEAAPEAXI@Z PROC ; Palmtree::Math::Core::Internal::InternalErrorException::`scalar deleting destructor', COMDAT
$LN15:
  00000	48 89 4c 24 08	 mov	 QWORD PTR [rsp+8], rcx
  00005	57		 push	 rdi
  00006	48 83 ec 30	 sub	 rsp, 48			; 00000030H
  0000a	48 c7 44 24 20
	fe ff ff ff	 mov	 QWORD PTR $T1[rsp], -2
  00013	48 89 5c 24 48	 mov	 QWORD PTR [rsp+72], rbx
  00018	8b da		 mov	 ebx, edx
  0001a	48 8b f9	 mov	 rdi, rcx
; File z:\sources\lunor\repos\rougemeilland\palmtree.math.core.uint\palmtree.math.core.uint\pmc_exception.h

; 295  :         {

  0001d	48 8d 05 00 00
	00 00		 lea	 rax, OFFSET FLAT:??_7InternalErrorException@Internal@Core@Math@Palmtree@@6B@
  00024	48 89 01	 mov	 QWORD PTR [rcx], rax

; 70   :         {

  00027	48 8d 05 00 00
	00 00		 lea	 rax, OFFSET FLAT:??_7Exception@Internal@Core@Math@Palmtree@@6B@
  0002e	48 89 01	 mov	 QWORD PTR [rcx], rax
; File c:\program files (x86)\microsoft visual studio\2017\community\vc\tools\msvc\14.16.27023\include\vcruntime_exception.h

; 85   :     {

  00031	48 8d 05 00 00
	00 00		 lea	 rax, OFFSET FLAT:??_7exception@std@@6B@
  00038	48 89 01	 mov	 QWORD PTR [rcx], rax

; 86   :         __std_exception_destroy(&_Data);

  0003b	48 83 c1 08	 add	 rcx, 8
  0003f	e8 00 00 00 00	 call	 __std_exception_destroy
  00044	90		 npad	 1
  00045	f6 c3 01	 test	 bl, 1
  00048	74 0e		 je	 SHORT $LN12@scalar
  0004a	ba 30 00 00 00	 mov	 edx, 48			; 00000030H
  0004f	48 8b cf	 mov	 rcx, rdi
  00052	e8 00 00 00 00	 call	 ??3@YAXPEAX_K@Z		; operator delete
  00057	90		 npad	 1
$LN12@scalar:
  00058	48 8b c7	 mov	 rax, rdi
  0005b	48 8b 5c 24 48	 mov	 rbx, QWORD PTR [rsp+72]
  00060	48 83 c4 30	 add	 rsp, 48			; 00000030H
  00064	5f		 pop	 rdi
  00065	c3		 ret	 0
??_GInternalErrorException@Internal@Core@Math@Palmtree@@UEAAPEAXI@Z ENDP ; Palmtree::Math::Core::Internal::InternalErrorException::`scalar deleting destructor'
_TEXT	ENDS
;	COMDAT text$x
text$x	SEGMENT
$T1 = 32
this$ = 64
__flags$ = 72
?dtor$0@?0???_GInternalErrorException@Internal@Core@Math@Palmtree@@UEAAPEAXI@Z@4HA PROC ; `Palmtree::Math::Core::Internal::InternalErrorException::`scalar deleting destructor''::`1'::dtor$0
  00000	48 8b 8a 40 00
	00 00		 mov	 rcx, QWORD PTR this$[rdx]
  00007	e9 00 00 00 00	 jmp	 ??1Exception@Internal@Core@Math@Palmtree@@UEAA@XZ ; Palmtree::Math::Core::Internal::Exception::~Exception
?dtor$0@?0???_GInternalErrorException@Internal@Core@Math@Palmtree@@UEAAPEAXI@Z@4HA ENDP ; `Palmtree::Math::Core::Internal::InternalErrorException::`scalar deleting destructor''::`1'::dtor$0
text$x	ENDS
;	COMDAT text$x
text$x	SEGMENT
$T1 = 32
this$ = 64
__flags$ = 72
?dtor$1@?0???_GInternalErrorException@Internal@Core@Math@Palmtree@@UEAAPEAXI@Z@4HA PROC ; `Palmtree::Math::Core::Internal::InternalErrorException::`scalar deleting destructor''::`1'::dtor$1
  00000	48 8b 8a 40 00
	00 00		 mov	 rcx, QWORD PTR this$[rdx]
  00007	e9 00 00 00 00	 jmp	 ??1exception@std@@UEAA@XZ ; std::exception::~exception
?dtor$1@?0???_GInternalErrorException@Internal@Core@Math@Palmtree@@UEAAPEAXI@Z@4HA ENDP ; `Palmtree::Math::Core::Internal::InternalErrorException::`scalar deleting destructor''::`1'::dtor$1
text$x	ENDS
; Function compile flags: /Ogtpy
;	COMDAT text$x
text$x	SEGMENT
$T1 = 32
this$ = 64
__flags$ = 72
?dtor$0@?0???_GInternalErrorException@Internal@Core@Math@Palmtree@@UEAAPEAXI@Z@4HA PROC ; `Palmtree::Math::Core::Internal::InternalErrorException::`scalar deleting destructor''::`1'::dtor$0
  00000	48 8b 8a 40 00
	00 00		 mov	 rcx, QWORD PTR this$[rdx]
  00007	e9 00 00 00 00	 jmp	 ??1Exception@Internal@Core@Math@Palmtree@@UEAA@XZ ; Palmtree::Math::Core::Internal::Exception::~Exception
?dtor$0@?0???_GInternalErrorException@Internal@Core@Math@Palmtree@@UEAAPEAXI@Z@4HA ENDP ; `Palmtree::Math::Core::Internal::InternalErrorException::`scalar deleting destructor''::`1'::dtor$0
text$x	ENDS
; Function compile flags: /Ogtpy
;	COMDAT text$x
text$x	SEGMENT
$T1 = 32
this$ = 64
__flags$ = 72
?dtor$1@?0???_GInternalErrorException@Internal@Core@Math@Palmtree@@UEAAPEAXI@Z@4HA PROC ; `Palmtree::Math::Core::Internal::InternalErrorException::`scalar deleting destructor''::`1'::dtor$1
  00000	48 8b 8a 40 00
	00 00		 mov	 rcx, QWORD PTR this$[rdx]
  00007	e9 00 00 00 00	 jmp	 ??1exception@std@@UEAA@XZ ; std::exception::~exception
?dtor$1@?0???_GInternalErrorException@Internal@Core@Math@Palmtree@@UEAAPEAXI@Z@4HA ENDP ; `Palmtree::Math::Core::Internal::InternalErrorException::`scalar deleting destructor''::`1'::dtor$1
text$x	ENDS
; Function compile flags: /Ogtpy
; File z:\sources\lunor\repos\rougemeilland\palmtree.math.core.uint\palmtree.math.core.uint\pmc_exception.h
; File c:\program files (x86)\microsoft visual studio\2017\community\vc\tools\msvc\14.16.27023\include\vcruntime_exception.h
; File z:\sources\lunor\repos\rougemeilland\palmtree.math.core.uint\palmtree.math.core.uint\pmc_exception.h
;	COMDAT ??1InternalErrorException@Internal@Core@Math@Palmtree@@UEAA@XZ
_TEXT	SEGMENT
$T1 = 32
this$ = 64
??1InternalErrorException@Internal@Core@Math@Palmtree@@UEAA@XZ PROC ; Palmtree::Math::Core::Internal::InternalErrorException::~InternalErrorException, COMDAT

; 295  :         {

$LN11:
  00000	48 89 4c 24 08	 mov	 QWORD PTR [rsp+8], rcx
  00005	48 83 ec 38	 sub	 rsp, 56			; 00000038H
  00009	48 c7 44 24 20
	fe ff ff ff	 mov	 QWORD PTR $T1[rsp], -2
  00012	48 8d 05 00 00
	00 00		 lea	 rax, OFFSET FLAT:??_7InternalErrorException@Internal@Core@Math@Palmtree@@6B@
  00019	48 89 01	 mov	 QWORD PTR [rcx], rax

; 70   :         {

  0001c	48 8d 05 00 00
	00 00		 lea	 rax, OFFSET FLAT:??_7Exception@Internal@Core@Math@Palmtree@@6B@
  00023	48 89 01	 mov	 QWORD PTR [rcx], rax
; File c:\program files (x86)\microsoft visual studio\2017\community\vc\tools\msvc\14.16.27023\include\vcruntime_exception.h

; 85   :     {

  00026	48 8d 05 00 00
	00 00		 lea	 rax, OFFSET FLAT:??_7exception@std@@6B@
  0002d	48 89 01	 mov	 QWORD PTR [rcx], rax

; 86   :         __std_exception_destroy(&_Data);

  00030	48 83 c1 08	 add	 rcx, 8
  00034	e8 00 00 00 00	 call	 __std_exception_destroy
  00039	90		 npad	 1
; File z:\sources\lunor\repos\rougemeilland\palmtree.math.core.uint\palmtree.math.core.uint\pmc_exception.h

; 296  :         }

  0003a	48 83 c4 38	 add	 rsp, 56			; 00000038H
  0003e	c3		 ret	 0
??1InternalErrorException@Internal@Core@Math@Palmtree@@UEAA@XZ ENDP ; Palmtree::Math::Core::Internal::InternalErrorException::~InternalErrorException
_TEXT	ENDS
;	COMDAT text$x
text$x	SEGMENT
$T1 = 32
this$ = 64
?dtor$0@?0???1InternalErrorException@Internal@Core@Math@Palmtree@@UEAA@XZ@4HA PROC ; `Palmtree::Math::Core::Internal::InternalErrorException::~InternalErrorException'::`1'::dtor$0
  00000	48 8b 8a 40 00
	00 00		 mov	 rcx, QWORD PTR this$[rdx]
  00007	e9 00 00 00 00	 jmp	 ??1Exception@Internal@Core@Math@Palmtree@@UEAA@XZ ; Palmtree::Math::Core::Internal::Exception::~Exception
?dtor$0@?0???1InternalErrorException@Internal@Core@Math@Palmtree@@UEAA@XZ@4HA ENDP ; `Palmtree::Math::Core::Internal::InternalErrorException::~InternalErrorException'::`1'::dtor$0
text$x	ENDS
;	COMDAT text$x
text$x	SEGMENT
$T1 = 32
this$ = 64
?dtor$1@?0???1InternalErrorException@Internal@Core@Math@Palmtree@@UEAA@XZ@4HA PROC ; `Palmtree::Math::Core::Internal::InternalErrorException::~InternalErrorException'::`1'::dtor$1
  00000	48 8b 8a 40 00
	00 00		 mov	 rcx, QWORD PTR this$[rdx]
  00007	e9 00 00 00 00	 jmp	 ??1exception@std@@UEAA@XZ ; std::exception::~exception
?dtor$1@?0???1InternalErrorException@Internal@Core@Math@Palmtree@@UEAA@XZ@4HA ENDP ; `Palmtree::Math::Core::Internal::InternalErrorException::~InternalErrorException'::`1'::dtor$1
text$x	ENDS
; Function compile flags: /Ogtpy
;	COMDAT text$x
text$x	SEGMENT
$T1 = 32
this$ = 64
?dtor$0@?0???1InternalErrorException@Internal@Core@Math@Palmtree@@UEAA@XZ@4HA PROC ; `Palmtree::Math::Core::Internal::InternalErrorException::~InternalErrorException'::`1'::dtor$0
  00000	48 8b 8a 40 00
	00 00		 mov	 rcx, QWORD PTR this$[rdx]
  00007	e9 00 00 00 00	 jmp	 ??1Exception@Internal@Core@Math@Palmtree@@UEAA@XZ ; Palmtree::Math::Core::Internal::Exception::~Exception
?dtor$0@?0???1InternalErrorException@Internal@Core@Math@Palmtree@@UEAA@XZ@4HA ENDP ; `Palmtree::Math::Core::Internal::InternalErrorException::~InternalErrorException'::`1'::dtor$0
text$x	ENDS
; Function compile flags: /Ogtpy
;	COMDAT text$x
text$x	SEGMENT
$T1 = 32
this$ = 64
?dtor$1@?0???1InternalErrorException@Internal@Core@Math@Palmtree@@UEAA@XZ@4HA PROC ; `Palmtree::Math::Core::Internal::InternalErrorException::~InternalErrorException'::`1'::dtor$1
  00000	48 8b 8a 40 00
	00 00		 mov	 rcx, QWORD PTR this$[rdx]
  00007	e9 00 00 00 00	 jmp	 ??1exception@std@@UEAA@XZ ; std::exception::~exception
?dtor$1@?0???1InternalErrorException@Internal@Core@Math@Palmtree@@UEAA@XZ@4HA ENDP ; `Palmtree::Math::Core::Internal::InternalErrorException::~InternalErrorException'::`1'::dtor$1
text$x	ENDS
; Function compile flags: /Ogtpy
; File z:\sources\lunor\repos\rougemeilland\palmtree.math.core.uint\palmtree.math.core.uint\pmc_exception.h
; File c:\program files (x86)\microsoft visual studio\2017\community\vc\tools\msvc\14.16.27023\include\vcruntime_exception.h
; File z:\sources\lunor\repos\rougemeilland\palmtree.math.core.uint\palmtree.math.core.uint\pmc_exception.h
;	COMDAT ??0InternalErrorException@Internal@Core@Math@Palmtree@@QEAA@PEB_W0@Z
_TEXT	SEGMENT
$T1 = 0
this$ = 32
message$ = 40
data$ = 48
??0InternalErrorException@Internal@Core@Math@Palmtree@@QEAA@PEB_W0@Z PROC ; Palmtree::Math::Core::Internal::InternalErrorException::InternalErrorException, COMDAT

; 286  :         {

$LN11:
  00000	48 89 4c 24 08	 mov	 QWORD PTR [rsp+8], rcx
  00005	48 83 ec 18	 sub	 rsp, 24
  00009	48 c7 04 24 fe
	ff ff ff	 mov	 QWORD PTR $T1[rsp], -2
; File c:\program files (x86)\microsoft visual studio\2017\community\vc\tools\msvc\14.16.27023\include\vcruntime_exception.h

; 50   :     {

  00011	48 8d 05 00 00
	00 00		 lea	 rax, OFFSET FLAT:??_7exception@std@@6B@
  00018	48 89 01	 mov	 QWORD PTR [rcx], rax

; 49   :         : _Data()

  0001b	33 c0		 xor	 eax, eax
  0001d	48 89 41 08	 mov	 QWORD PTR [rcx+8], rax
  00021	48 89 41 10	 mov	 QWORD PTR [rcx+16], rax
; File z:\sources\lunor\repos\rougemeilland\palmtree.math.core.uint\palmtree.math.core.uint\pmc_exception.h

; 54   :         Exception(PMC_STATUS_CODE code, const wchar_t* message, const wchar_t* data) noexcept(true)

  00025	48 8d 05 00 00
	00 00		 lea	 rax, OFFSET FLAT:??_7Exception@Internal@Core@Math@Palmtree@@6B@
  0002c	48 89 01	 mov	 QWORD PTR [rcx], rax

; 55   :         {
; 56   :             _code = code;

  0002f	c7 41 18 00 ff
	ff ff		 mov	 DWORD PTR [rcx+24], -256 ; ffffffffffffff00H

; 57   :             _message = message;

  00036	48 89 51 20	 mov	 QWORD PTR [rcx+32], rdx

; 58   :             _data = data;

  0003a	4c 89 41 28	 mov	 QWORD PTR [rcx+40], r8

; 286  :         {

  0003e	48 8d 05 00 00
	00 00		 lea	 rax, OFFSET FLAT:??_7InternalErrorException@Internal@Core@Math@Palmtree@@6B@
  00045	48 89 01	 mov	 QWORD PTR [rcx], rax

; 287  :         }

  00048	48 8b c1	 mov	 rax, rcx
  0004b	48 83 c4 18	 add	 rsp, 24
  0004f	c3		 ret	 0
??0InternalErrorException@Internal@Core@Math@Palmtree@@QEAA@PEB_W0@Z ENDP ; Palmtree::Math::Core::Internal::InternalErrorException::InternalErrorException
_TEXT	ENDS
;	COMDAT text$x
text$x	SEGMENT
$T1 = 0
this$ = 32
message$ = 40
data$ = 48
?dtor$1@?0???0InternalErrorException@Internal@Core@Math@Palmtree@@QEAA@PEB_W0@Z@4HA PROC ; `Palmtree::Math::Core::Internal::InternalErrorException::InternalErrorException'::`1'::dtor$1
  00000	48 8b 8a 20 00
	00 00		 mov	 rcx, QWORD PTR this$[rdx]
  00007	e9 00 00 00 00	 jmp	 ??1exception@std@@UEAA@XZ ; std::exception::~exception
?dtor$1@?0???0InternalErrorException@Internal@Core@Math@Palmtree@@QEAA@PEB_W0@Z@4HA ENDP ; `Palmtree::Math::Core::Internal::InternalErrorException::InternalErrorException'::`1'::dtor$1
text$x	ENDS
;	COMDAT text$x
text$x	SEGMENT
$T1 = 0
this$ = 32
message$ = 40
data$ = 48
?dtor$0@?0???0InternalErrorException@Internal@Core@Math@Palmtree@@QEAA@PEB_W0@Z@4HA PROC ; `Palmtree::Math::Core::Internal::InternalErrorException::InternalErrorException'::`1'::dtor$0
  00000	48 8b 8a 20 00
	00 00		 mov	 rcx, QWORD PTR this$[rdx]
  00007	e9 00 00 00 00	 jmp	 ??1Exception@Internal@Core@Math@Palmtree@@UEAA@XZ ; Palmtree::Math::Core::Internal::Exception::~Exception
?dtor$0@?0???0InternalErrorException@Internal@Core@Math@Palmtree@@QEAA@PEB_W0@Z@4HA ENDP ; `Palmtree::Math::Core::Internal::InternalErrorException::InternalErrorException'::`1'::dtor$0
text$x	ENDS
; Function compile flags: /Ogtpy
;	COMDAT text$x
text$x	SEGMENT
$T1 = 0
this$ = 32
message$ = 40
data$ = 48
?dtor$1@?0???0InternalErrorException@Internal@Core@Math@Palmtree@@QEAA@PEB_W0@Z@4HA PROC ; `Palmtree::Math::Core::Internal::InternalErrorException::InternalErrorException'::`1'::dtor$1
  00000	48 8b 8a 20 00
	00 00		 mov	 rcx, QWORD PTR this$[rdx]
  00007	e9 00 00 00 00	 jmp	 ??1exception@std@@UEAA@XZ ; std::exception::~exception
?dtor$1@?0???0InternalErrorException@Internal@Core@Math@Palmtree@@QEAA@PEB_W0@Z@4HA ENDP ; `Palmtree::Math::Core::Internal::InternalErrorException::InternalErrorException'::`1'::dtor$1
text$x	ENDS
; Function compile flags: /Ogtpy
;	COMDAT text$x
text$x	SEGMENT
$T1 = 0
this$ = 32
message$ = 40
data$ = 48
?dtor$0@?0???0InternalErrorException@Internal@Core@Math@Palmtree@@QEAA@PEB_W0@Z@4HA PROC ; `Palmtree::Math::Core::Internal::InternalErrorException::InternalErrorException'::`1'::dtor$0
  00000	48 8b 8a 20 00
	00 00		 mov	 rcx, QWORD PTR this$[rdx]
  00007	e9 00 00 00 00	 jmp	 ??1Exception@Internal@Core@Math@Palmtree@@UEAA@XZ ; Palmtree::Math::Core::Internal::Exception::~Exception
?dtor$0@?0???0InternalErrorException@Internal@Core@Math@Palmtree@@QEAA@PEB_W0@Z@4HA ENDP ; `Palmtree::Math::Core::Internal::InternalErrorException::InternalErrorException'::`1'::dtor$0
text$x	ENDS
; Function compile flags: /Ogtpy
; File z:\sources\lunor\repos\rougemeilland\palmtree.math.core.uint\palmtree.math.core.uint\pmc_exception.h
; File c:\program files (x86)\microsoft visual studio\2017\community\vc\tools\msvc\14.16.27023\include\vcruntime_exception.h
;	COMDAT ??_GArgumentNullException@Internal@Core@Math@Palmtree@@UEAAPEAXI@Z
_TEXT	SEGMENT
$T1 = 32
this$ = 64
__flags$ = 72
??_GArgumentNullException@Internal@Core@Math@Palmtree@@UEAAPEAXI@Z PROC ; Palmtree::Math::Core::Internal::ArgumentNullException::`scalar deleting destructor', COMDAT
$LN15:
  00000	48 89 4c 24 08	 mov	 QWORD PTR [rsp+8], rcx
  00005	57		 push	 rdi
  00006	48 83 ec 30	 sub	 rsp, 48			; 00000030H
  0000a	48 c7 44 24 20
	fe ff ff ff	 mov	 QWORD PTR $T1[rsp], -2
  00013	48 89 5c 24 48	 mov	 QWORD PTR [rsp+72], rbx
  00018	8b da		 mov	 ebx, edx
  0001a	48 8b f9	 mov	 rdi, rcx
; File z:\sources\lunor\repos\rougemeilland\palmtree.math.core.uint\palmtree.math.core.uint\pmc_exception.h

; 124  :         {

  0001d	48 8d 05 00 00
	00 00		 lea	 rax, OFFSET FLAT:??_7ArgumentNullException@Internal@Core@Math@Palmtree@@6B@
  00024	48 89 01	 mov	 QWORD PTR [rcx], rax

; 70   :         {

  00027	48 8d 05 00 00
	00 00		 lea	 rax, OFFSET FLAT:??_7Exception@Internal@Core@Math@Palmtree@@6B@
  0002e	48 89 01	 mov	 QWORD PTR [rcx], rax
; File c:\program files (x86)\microsoft visual studio\2017\community\vc\tools\msvc\14.16.27023\include\vcruntime_exception.h

; 85   :     {

  00031	48 8d 05 00 00
	00 00		 lea	 rax, OFFSET FLAT:??_7exception@std@@6B@
  00038	48 89 01	 mov	 QWORD PTR [rcx], rax

; 86   :         __std_exception_destroy(&_Data);

  0003b	48 83 c1 08	 add	 rcx, 8
  0003f	e8 00 00 00 00	 call	 __std_exception_destroy
  00044	90		 npad	 1
  00045	f6 c3 01	 test	 bl, 1
  00048	74 0e		 je	 SHORT $LN12@scalar
  0004a	ba 30 00 00 00	 mov	 edx, 48			; 00000030H
  0004f	48 8b cf	 mov	 rcx, rdi
  00052	e8 00 00 00 00	 call	 ??3@YAXPEAX_K@Z		; operator delete
  00057	90		 npad	 1
$LN12@scalar:
  00058	48 8b c7	 mov	 rax, rdi
  0005b	48 8b 5c 24 48	 mov	 rbx, QWORD PTR [rsp+72]
  00060	48 83 c4 30	 add	 rsp, 48			; 00000030H
  00064	5f		 pop	 rdi
  00065	c3		 ret	 0
??_GArgumentNullException@Internal@Core@Math@Palmtree@@UEAAPEAXI@Z ENDP ; Palmtree::Math::Core::Internal::ArgumentNullException::`scalar deleting destructor'
_TEXT	ENDS
;	COMDAT text$x
text$x	SEGMENT
$T1 = 32
this$ = 64
__flags$ = 72
?dtor$0@?0???_GArgumentNullException@Internal@Core@Math@Palmtree@@UEAAPEAXI@Z@4HA PROC ; `Palmtree::Math::Core::Internal::ArgumentNullException::`scalar deleting destructor''::`1'::dtor$0
  00000	48 8b 8a 40 00
	00 00		 mov	 rcx, QWORD PTR this$[rdx]
  00007	e9 00 00 00 00	 jmp	 ??1Exception@Internal@Core@Math@Palmtree@@UEAA@XZ ; Palmtree::Math::Core::Internal::Exception::~Exception
?dtor$0@?0???_GArgumentNullException@Internal@Core@Math@Palmtree@@UEAAPEAXI@Z@4HA ENDP ; `Palmtree::Math::Core::Internal::ArgumentNullException::`scalar deleting destructor''::`1'::dtor$0
text$x	ENDS
;	COMDAT text$x
text$x	SEGMENT
$T1 = 32
this$ = 64
__flags$ = 72
?dtor$1@?0???_GArgumentNullException@Internal@Core@Math@Palmtree@@UEAAPEAXI@Z@4HA PROC ; `Palmtree::Math::Core::Internal::ArgumentNullException::`scalar deleting destructor''::`1'::dtor$1
  00000	48 8b 8a 40 00
	00 00		 mov	 rcx, QWORD PTR this$[rdx]
  00007	e9 00 00 00 00	 jmp	 ??1exception@std@@UEAA@XZ ; std::exception::~exception
?dtor$1@?0???_GArgumentNullException@Internal@Core@Math@Palmtree@@UEAAPEAXI@Z@4HA ENDP ; `Palmtree::Math::Core::Internal::ArgumentNullException::`scalar deleting destructor''::`1'::dtor$1
text$x	ENDS
; Function compile flags: /Ogtpy
;	COMDAT text$x
text$x	SEGMENT
$T1 = 32
this$ = 64
__flags$ = 72
?dtor$0@?0???_GArgumentNullException@Internal@Core@Math@Palmtree@@UEAAPEAXI@Z@4HA PROC ; `Palmtree::Math::Core::Internal::ArgumentNullException::`scalar deleting destructor''::`1'::dtor$0
  00000	48 8b 8a 40 00
	00 00		 mov	 rcx, QWORD PTR this$[rdx]
  00007	e9 00 00 00 00	 jmp	 ??1Exception@Internal@Core@Math@Palmtree@@UEAA@XZ ; Palmtree::Math::Core::Internal::Exception::~Exception
?dtor$0@?0???_GArgumentNullException@Internal@Core@Math@Palmtree@@UEAAPEAXI@Z@4HA ENDP ; `Palmtree::Math::Core::Internal::ArgumentNullException::`scalar deleting destructor''::`1'::dtor$0
text$x	ENDS
; Function compile flags: /Ogtpy
;	COMDAT text$x
text$x	SEGMENT
$T1 = 32
this$ = 64
__flags$ = 72
?dtor$1@?0???_GArgumentNullException@Internal@Core@Math@Palmtree@@UEAAPEAXI@Z@4HA PROC ; `Palmtree::Math::Core::Internal::ArgumentNullException::`scalar deleting destructor''::`1'::dtor$1
  00000	48 8b 8a 40 00
	00 00		 mov	 rcx, QWORD PTR this$[rdx]
  00007	e9 00 00 00 00	 jmp	 ??1exception@std@@UEAA@XZ ; std::exception::~exception
?dtor$1@?0???_GArgumentNullException@Internal@Core@Math@Palmtree@@UEAAPEAXI@Z@4HA ENDP ; `Palmtree::Math::Core::Internal::ArgumentNullException::`scalar deleting destructor''::`1'::dtor$1
text$x	ENDS
; Function compile flags: /Ogtpy
; File z:\sources\lunor\repos\rougemeilland\palmtree.math.core.uint\palmtree.math.core.uint\pmc_exception.h
; File c:\program files (x86)\microsoft visual studio\2017\community\vc\tools\msvc\14.16.27023\include\vcruntime_exception.h
; File z:\sources\lunor\repos\rougemeilland\palmtree.math.core.uint\palmtree.math.core.uint\pmc_exception.h
;	COMDAT ??1ArgumentNullException@Internal@Core@Math@Palmtree@@UEAA@XZ
_TEXT	SEGMENT
$T1 = 32
this$ = 64
??1ArgumentNullException@Internal@Core@Math@Palmtree@@UEAA@XZ PROC ; Palmtree::Math::Core::Internal::ArgumentNullException::~ArgumentNullException, COMDAT

; 124  :         {

$LN11:
  00000	48 89 4c 24 08	 mov	 QWORD PTR [rsp+8], rcx
  00005	48 83 ec 38	 sub	 rsp, 56			; 00000038H
  00009	48 c7 44 24 20
	fe ff ff ff	 mov	 QWORD PTR $T1[rsp], -2
  00012	48 8d 05 00 00
	00 00		 lea	 rax, OFFSET FLAT:??_7ArgumentNullException@Internal@Core@Math@Palmtree@@6B@
  00019	48 89 01	 mov	 QWORD PTR [rcx], rax

; 70   :         {

  0001c	48 8d 05 00 00
	00 00		 lea	 rax, OFFSET FLAT:??_7Exception@Internal@Core@Math@Palmtree@@6B@
  00023	48 89 01	 mov	 QWORD PTR [rcx], rax
; File c:\program files (x86)\microsoft visual studio\2017\community\vc\tools\msvc\14.16.27023\include\vcruntime_exception.h

; 85   :     {

  00026	48 8d 05 00 00
	00 00		 lea	 rax, OFFSET FLAT:??_7exception@std@@6B@
  0002d	48 89 01	 mov	 QWORD PTR [rcx], rax

; 86   :         __std_exception_destroy(&_Data);

  00030	48 83 c1 08	 add	 rcx, 8
  00034	e8 00 00 00 00	 call	 __std_exception_destroy
  00039	90		 npad	 1
; File z:\sources\lunor\repos\rougemeilland\palmtree.math.core.uint\palmtree.math.core.uint\pmc_exception.h

; 125  :         }

  0003a	48 83 c4 38	 add	 rsp, 56			; 00000038H
  0003e	c3		 ret	 0
??1ArgumentNullException@Internal@Core@Math@Palmtree@@UEAA@XZ ENDP ; Palmtree::Math::Core::Internal::ArgumentNullException::~ArgumentNullException
_TEXT	ENDS
;	COMDAT text$x
text$x	SEGMENT
$T1 = 32
this$ = 64
?dtor$0@?0???1ArgumentNullException@Internal@Core@Math@Palmtree@@UEAA@XZ@4HA PROC ; `Palmtree::Math::Core::Internal::ArgumentNullException::~ArgumentNullException'::`1'::dtor$0
  00000	48 8b 8a 40 00
	00 00		 mov	 rcx, QWORD PTR this$[rdx]
  00007	e9 00 00 00 00	 jmp	 ??1Exception@Internal@Core@Math@Palmtree@@UEAA@XZ ; Palmtree::Math::Core::Internal::Exception::~Exception
?dtor$0@?0???1ArgumentNullException@Internal@Core@Math@Palmtree@@UEAA@XZ@4HA ENDP ; `Palmtree::Math::Core::Internal::ArgumentNullException::~ArgumentNullException'::`1'::dtor$0
text$x	ENDS
;	COMDAT text$x
text$x	SEGMENT
$T1 = 32
this$ = 64
?dtor$1@?0???1ArgumentNullException@Internal@Core@Math@Palmtree@@UEAA@XZ@4HA PROC ; `Palmtree::Math::Core::Internal::ArgumentNullException::~ArgumentNullException'::`1'::dtor$1
  00000	48 8b 8a 40 00
	00 00		 mov	 rcx, QWORD PTR this$[rdx]
  00007	e9 00 00 00 00	 jmp	 ??1exception@std@@UEAA@XZ ; std::exception::~exception
?dtor$1@?0???1ArgumentNullException@Internal@Core@Math@Palmtree@@UEAA@XZ@4HA ENDP ; `Palmtree::Math::Core::Internal::ArgumentNullException::~ArgumentNullException'::`1'::dtor$1
text$x	ENDS
; Function compile flags: /Ogtpy
;	COMDAT text$x
text$x	SEGMENT
$T1 = 32
this$ = 64
?dtor$0@?0???1ArgumentNullException@Internal@Core@Math@Palmtree@@UEAA@XZ@4HA PROC ; `Palmtree::Math::Core::Internal::ArgumentNullException::~ArgumentNullException'::`1'::dtor$0
  00000	48 8b 8a 40 00
	00 00		 mov	 rcx, QWORD PTR this$[rdx]
  00007	e9 00 00 00 00	 jmp	 ??1Exception@Internal@Core@Math@Palmtree@@UEAA@XZ ; Palmtree::Math::Core::Internal::Exception::~Exception
?dtor$0@?0???1ArgumentNullException@Internal@Core@Math@Palmtree@@UEAA@XZ@4HA ENDP ; `Palmtree::Math::Core::Internal::ArgumentNullException::~ArgumentNullException'::`1'::dtor$0
text$x	ENDS
; Function compile flags: /Ogtpy
;	COMDAT text$x
text$x	SEGMENT
$T1 = 32
this$ = 64
?dtor$1@?0???1ArgumentNullException@Internal@Core@Math@Palmtree@@UEAA@XZ@4HA PROC ; `Palmtree::Math::Core::Internal::ArgumentNullException::~ArgumentNullException'::`1'::dtor$1
  00000	48 8b 8a 40 00
	00 00		 mov	 rcx, QWORD PTR this$[rdx]
  00007	e9 00 00 00 00	 jmp	 ??1exception@std@@UEAA@XZ ; std::exception::~exception
?dtor$1@?0???1ArgumentNullException@Internal@Core@Math@Palmtree@@UEAA@XZ@4HA ENDP ; `Palmtree::Math::Core::Internal::ArgumentNullException::~ArgumentNullException'::`1'::dtor$1
text$x	ENDS
; Function compile flags: /Ogtpy
; File z:\sources\lunor\repos\rougemeilland\palmtree.math.core.uint\palmtree.math.core.uint\pmc_exception.h
; File c:\program files (x86)\microsoft visual studio\2017\community\vc\tools\msvc\14.16.27023\include\vcruntime_exception.h
; File z:\sources\lunor\repos\rougemeilland\palmtree.math.core.uint\palmtree.math.core.uint\pmc_exception.h
;	COMDAT ??0ArgumentNullException@Internal@Core@Math@Palmtree@@QEAA@AEBV01234@@Z
_TEXT	SEGMENT
$T1 = 0
this$ = 32
p$ = 40
??0ArgumentNullException@Internal@Core@Math@Palmtree@@QEAA@AEBV01234@@Z PROC ; Palmtree::Math::Core::Internal::ArgumentNullException::ArgumentNullException, COMDAT

; 120  :         {

$LN11:
  00000	48 89 4c 24 08	 mov	 QWORD PTR [rsp+8], rcx
  00005	48 83 ec 18	 sub	 rsp, 24
  00009	48 c7 04 24 fe
	ff ff ff	 mov	 QWORD PTR $T1[rsp], -2
; File c:\program files (x86)\microsoft visual studio\2017\community\vc\tools\msvc\14.16.27023\include\vcruntime_exception.h

; 50   :     {

  00011	48 8d 05 00 00
	00 00		 lea	 rax, OFFSET FLAT:??_7exception@std@@6B@
  00018	48 89 01	 mov	 QWORD PTR [rcx], rax

; 49   :         : _Data()

  0001b	33 c0		 xor	 eax, eax
  0001d	48 89 41 08	 mov	 QWORD PTR [rcx+8], rax
  00021	48 89 41 10	 mov	 QWORD PTR [rcx+16], rax
; File z:\sources\lunor\repos\rougemeilland\palmtree.math.core.uint\palmtree.math.core.uint\pmc_exception.h

; 62   :         Exception(const Exception& p) noexcept(true)

  00025	48 8d 05 00 00
	00 00		 lea	 rax, OFFSET FLAT:??_7Exception@Internal@Core@Math@Palmtree@@6B@
  0002c	48 89 01	 mov	 QWORD PTR [rcx], rax

; 63   :         {
; 64   :             _code = p._code;

  0002f	8b 42 18	 mov	 eax, DWORD PTR [rdx+24]
  00032	89 41 18	 mov	 DWORD PTR [rcx+24], eax

; 65   :             _message = p._message;

  00035	48 8b 42 20	 mov	 rax, QWORD PTR [rdx+32]
  00039	48 89 41 20	 mov	 QWORD PTR [rcx+32], rax

; 66   :             _data = p._data;

  0003d	48 8b 42 28	 mov	 rax, QWORD PTR [rdx+40]
  00041	48 89 41 28	 mov	 QWORD PTR [rcx+40], rax

; 120  :         {

  00045	48 8d 05 00 00
	00 00		 lea	 rax, OFFSET FLAT:??_7ArgumentNullException@Internal@Core@Math@Palmtree@@6B@
  0004c	48 89 01	 mov	 QWORD PTR [rcx], rax

; 121  :         }

  0004f	48 8b c1	 mov	 rax, rcx
  00052	48 83 c4 18	 add	 rsp, 24
  00056	c3		 ret	 0
??0ArgumentNullException@Internal@Core@Math@Palmtree@@QEAA@AEBV01234@@Z ENDP ; Palmtree::Math::Core::Internal::ArgumentNullException::ArgumentNullException
_TEXT	ENDS
;	COMDAT text$x
text$x	SEGMENT
$T1 = 0
this$ = 32
p$ = 40
?dtor$1@?0???0ArgumentNullException@Internal@Core@Math@Palmtree@@QEAA@AEBV01234@@Z@4HA PROC ; `Palmtree::Math::Core::Internal::ArgumentNullException::ArgumentNullException'::`1'::dtor$1
  00000	48 8b 8a 20 00
	00 00		 mov	 rcx, QWORD PTR this$[rdx]
  00007	e9 00 00 00 00	 jmp	 ??1exception@std@@UEAA@XZ ; std::exception::~exception
?dtor$1@?0???0ArgumentNullException@Internal@Core@Math@Palmtree@@QEAA@AEBV01234@@Z@4HA ENDP ; `Palmtree::Math::Core::Internal::ArgumentNullException::ArgumentNullException'::`1'::dtor$1
text$x	ENDS
;	COMDAT text$x
text$x	SEGMENT
$T1 = 0
this$ = 32
p$ = 40
?dtor$0@?0???0ArgumentNullException@Internal@Core@Math@Palmtree@@QEAA@AEBV01234@@Z@4HA PROC ; `Palmtree::Math::Core::Internal::ArgumentNullException::ArgumentNullException'::`1'::dtor$0
  00000	48 8b 8a 20 00
	00 00		 mov	 rcx, QWORD PTR this$[rdx]
  00007	e9 00 00 00 00	 jmp	 ??1Exception@Internal@Core@Math@Palmtree@@UEAA@XZ ; Palmtree::Math::Core::Internal::Exception::~Exception
?dtor$0@?0???0ArgumentNullException@Internal@Core@Math@Palmtree@@QEAA@AEBV01234@@Z@4HA ENDP ; `Palmtree::Math::Core::Internal::ArgumentNullException::ArgumentNullException'::`1'::dtor$0
text$x	ENDS
; Function compile flags: /Ogtpy
;	COMDAT text$x
text$x	SEGMENT
$T1 = 0
this$ = 32
p$ = 40
?dtor$1@?0???0ArgumentNullException@Internal@Core@Math@Palmtree@@QEAA@AEBV01234@@Z@4HA PROC ; `Palmtree::Math::Core::Internal::ArgumentNullException::ArgumentNullException'::`1'::dtor$1
  00000	48 8b 8a 20 00
	00 00		 mov	 rcx, QWORD PTR this$[rdx]
  00007	e9 00 00 00 00	 jmp	 ??1exception@std@@UEAA@XZ ; std::exception::~exception
?dtor$1@?0???0ArgumentNullException@Internal@Core@Math@Palmtree@@QEAA@AEBV01234@@Z@4HA ENDP ; `Palmtree::Math::Core::Internal::ArgumentNullException::ArgumentNullException'::`1'::dtor$1
text$x	ENDS
; Function compile flags: /Ogtpy
;	COMDAT text$x
text$x	SEGMENT
$T1 = 0
this$ = 32
p$ = 40
?dtor$0@?0???0ArgumentNullException@Internal@Core@Math@Palmtree@@QEAA@AEBV01234@@Z@4HA PROC ; `Palmtree::Math::Core::Internal::ArgumentNullException::ArgumentNullException'::`1'::dtor$0
  00000	48 8b 8a 20 00
	00 00		 mov	 rcx, QWORD PTR this$[rdx]
  00007	e9 00 00 00 00	 jmp	 ??1Exception@Internal@Core@Math@Palmtree@@UEAA@XZ ; Palmtree::Math::Core::Internal::Exception::~Exception
?dtor$0@?0???0ArgumentNullException@Internal@Core@Math@Palmtree@@QEAA@AEBV01234@@Z@4HA ENDP ; `Palmtree::Math::Core::Internal::ArgumentNullException::ArgumentNullException'::`1'::dtor$0
text$x	ENDS
; Function compile flags: /Ogtpy
; File z:\sources\lunor\repos\rougemeilland\palmtree.math.core.uint\palmtree.math.core.uint\pmc_exception.h
; File c:\program files (x86)\microsoft visual studio\2017\community\vc\tools\msvc\14.16.27023\include\vcruntime_exception.h
; File z:\sources\lunor\repos\rougemeilland\palmtree.math.core.uint\palmtree.math.core.uint\pmc_exception.h
;	COMDAT ??0ArgumentNullException@Internal@Core@Math@Palmtree@@QEAA@PEB_W0@Z
_TEXT	SEGMENT
$T1 = 0
this$ = 32
message$ = 40
param_name$ = 48
??0ArgumentNullException@Internal@Core@Math@Palmtree@@QEAA@PEB_W0@Z PROC ; Palmtree::Math::Core::Internal::ArgumentNullException::ArgumentNullException, COMDAT

; 115  :         {

$LN11:
  00000	48 89 4c 24 08	 mov	 QWORD PTR [rsp+8], rcx
  00005	48 83 ec 18	 sub	 rsp, 24
  00009	48 c7 04 24 fe
	ff ff ff	 mov	 QWORD PTR $T1[rsp], -2
; File c:\program files (x86)\microsoft visual studio\2017\community\vc\tools\msvc\14.16.27023\include\vcruntime_exception.h

; 50   :     {

  00011	48 8d 05 00 00
	00 00		 lea	 rax, OFFSET FLAT:??_7exception@std@@6B@
  00018	48 89 01	 mov	 QWORD PTR [rcx], rax

; 49   :         : _Data()

  0001b	33 c0		 xor	 eax, eax
  0001d	48 89 41 08	 mov	 QWORD PTR [rcx+8], rax
  00021	48 89 41 10	 mov	 QWORD PTR [rcx+16], rax
; File z:\sources\lunor\repos\rougemeilland\palmtree.math.core.uint\palmtree.math.core.uint\pmc_exception.h

; 54   :         Exception(PMC_STATUS_CODE code, const wchar_t* message, const wchar_t* data) noexcept(true)

  00025	48 8d 05 00 00
	00 00		 lea	 rax, OFFSET FLAT:??_7Exception@Internal@Core@Math@Palmtree@@6B@
  0002c	48 89 01	 mov	 QWORD PTR [rcx], rax

; 55   :         {
; 56   :             _code = code;

  0002f	c7 41 18 fe ff
	ff ff		 mov	 DWORD PTR [rcx+24], -2

; 57   :             _message = message;

  00036	48 89 51 20	 mov	 QWORD PTR [rcx+32], rdx

; 58   :             _data = data;

  0003a	4c 89 41 28	 mov	 QWORD PTR [rcx+40], r8

; 115  :         {

  0003e	48 8d 05 00 00
	00 00		 lea	 rax, OFFSET FLAT:??_7ArgumentNullException@Internal@Core@Math@Palmtree@@6B@
  00045	48 89 01	 mov	 QWORD PTR [rcx], rax

; 116  :         }

  00048	48 8b c1	 mov	 rax, rcx
  0004b	48 83 c4 18	 add	 rsp, 24
  0004f	c3		 ret	 0
??0ArgumentNullException@Internal@Core@Math@Palmtree@@QEAA@PEB_W0@Z ENDP ; Palmtree::Math::Core::Internal::ArgumentNullException::ArgumentNullException
_TEXT	ENDS
;	COMDAT text$x
text$x	SEGMENT
$T1 = 0
this$ = 32
message$ = 40
param_name$ = 48
?dtor$1@?0???0ArgumentNullException@Internal@Core@Math@Palmtree@@QEAA@PEB_W0@Z@4HA PROC ; `Palmtree::Math::Core::Internal::ArgumentNullException::ArgumentNullException'::`1'::dtor$1
  00000	48 8b 8a 20 00
	00 00		 mov	 rcx, QWORD PTR this$[rdx]
  00007	e9 00 00 00 00	 jmp	 ??1exception@std@@UEAA@XZ ; std::exception::~exception
?dtor$1@?0???0ArgumentNullException@Internal@Core@Math@Palmtree@@QEAA@PEB_W0@Z@4HA ENDP ; `Palmtree::Math::Core::Internal::ArgumentNullException::ArgumentNullException'::`1'::dtor$1
text$x	ENDS
;	COMDAT text$x
text$x	SEGMENT
$T1 = 0
this$ = 32
message$ = 40
param_name$ = 48
?dtor$0@?0???0ArgumentNullException@Internal@Core@Math@Palmtree@@QEAA@PEB_W0@Z@4HA PROC ; `Palmtree::Math::Core::Internal::ArgumentNullException::ArgumentNullException'::`1'::dtor$0
  00000	48 8b 8a 20 00
	00 00		 mov	 rcx, QWORD PTR this$[rdx]
  00007	e9 00 00 00 00	 jmp	 ??1Exception@Internal@Core@Math@Palmtree@@UEAA@XZ ; Palmtree::Math::Core::Internal::Exception::~Exception
?dtor$0@?0???0ArgumentNullException@Internal@Core@Math@Palmtree@@QEAA@PEB_W0@Z@4HA ENDP ; `Palmtree::Math::Core::Internal::ArgumentNullException::ArgumentNullException'::`1'::dtor$0
text$x	ENDS
; Function compile flags: /Ogtpy
;	COMDAT text$x
text$x	SEGMENT
$T1 = 0
this$ = 32
message$ = 40
param_name$ = 48
?dtor$1@?0???0ArgumentNullException@Internal@Core@Math@Palmtree@@QEAA@PEB_W0@Z@4HA PROC ; `Palmtree::Math::Core::Internal::ArgumentNullException::ArgumentNullException'::`1'::dtor$1
  00000	48 8b 8a 20 00
	00 00		 mov	 rcx, QWORD PTR this$[rdx]
  00007	e9 00 00 00 00	 jmp	 ??1exception@std@@UEAA@XZ ; std::exception::~exception
?dtor$1@?0???0ArgumentNullException@Internal@Core@Math@Palmtree@@QEAA@PEB_W0@Z@4HA ENDP ; `Palmtree::Math::Core::Internal::ArgumentNullException::ArgumentNullException'::`1'::dtor$1
text$x	ENDS
; Function compile flags: /Ogtpy
;	COMDAT text$x
text$x	SEGMENT
$T1 = 0
this$ = 32
message$ = 40
param_name$ = 48
?dtor$0@?0???0ArgumentNullException@Internal@Core@Math@Palmtree@@QEAA@PEB_W0@Z@4HA PROC ; `Palmtree::Math::Core::Internal::ArgumentNullException::ArgumentNullException'::`1'::dtor$0
  00000	48 8b 8a 20 00
	00 00		 mov	 rcx, QWORD PTR this$[rdx]
  00007	e9 00 00 00 00	 jmp	 ??1Exception@Internal@Core@Math@Palmtree@@UEAA@XZ ; Palmtree::Math::Core::Internal::Exception::~Exception
?dtor$0@?0???0ArgumentNullException@Internal@Core@Math@Palmtree@@QEAA@PEB_W0@Z@4HA ENDP ; `Palmtree::Math::Core::Internal::ArgumentNullException::ArgumentNullException'::`1'::dtor$0
text$x	ENDS
; Function compile flags: /Ogtpy
; File z:\sources\lunor\repos\rougemeilland\palmtree.math.core.uint\palmtree.math.core.uint\pmc_exception.h
; File c:\program files (x86)\microsoft visual studio\2017\community\vc\tools\msvc\14.16.27023\include\vcruntime_exception.h
;	COMDAT ??_GException@Internal@Core@Math@Palmtree@@UEAAPEAXI@Z
_TEXT	SEGMENT
$T1 = 32
this$ = 64
__flags$ = 72
??_GException@Internal@Core@Math@Palmtree@@UEAAPEAXI@Z PROC ; Palmtree::Math::Core::Internal::Exception::`scalar deleting destructor', COMDAT
$LN12:
  00000	48 89 4c 24 08	 mov	 QWORD PTR [rsp+8], rcx
  00005	57		 push	 rdi
  00006	48 83 ec 30	 sub	 rsp, 48			; 00000030H
  0000a	48 c7 44 24 20
	fe ff ff ff	 mov	 QWORD PTR $T1[rsp], -2
  00013	48 89 5c 24 48	 mov	 QWORD PTR [rsp+72], rbx
  00018	8b da		 mov	 ebx, edx
  0001a	48 8b f9	 mov	 rdi, rcx
; File z:\sources\lunor\repos\rougemeilland\palmtree.math.core.uint\palmtree.math.core.uint\pmc_exception.h

; 70   :         {

  0001d	48 8d 05 00 00
	00 00		 lea	 rax, OFFSET FLAT:??_7Exception@Internal@Core@Math@Palmtree@@6B@
  00024	48 89 01	 mov	 QWORD PTR [rcx], rax
; File c:\program files (x86)\microsoft visual studio\2017\community\vc\tools\msvc\14.16.27023\include\vcruntime_exception.h

; 85   :     {

  00027	48 8d 05 00 00
	00 00		 lea	 rax, OFFSET FLAT:??_7exception@std@@6B@
  0002e	48 89 01	 mov	 QWORD PTR [rcx], rax

; 86   :         __std_exception_destroy(&_Data);

  00031	48 83 c1 08	 add	 rcx, 8
  00035	e8 00 00 00 00	 call	 __std_exception_destroy
  0003a	90		 npad	 1
  0003b	f6 c3 01	 test	 bl, 1
  0003e	74 0e		 je	 SHORT $LN9@scalar
  00040	ba 30 00 00 00	 mov	 edx, 48			; 00000030H
  00045	48 8b cf	 mov	 rcx, rdi
  00048	e8 00 00 00 00	 call	 ??3@YAXPEAX_K@Z		; operator delete
  0004d	90		 npad	 1
$LN9@scalar:
  0004e	48 8b c7	 mov	 rax, rdi
  00051	48 8b 5c 24 48	 mov	 rbx, QWORD PTR [rsp+72]
  00056	48 83 c4 30	 add	 rsp, 48			; 00000030H
  0005a	5f		 pop	 rdi
  0005b	c3		 ret	 0
??_GException@Internal@Core@Math@Palmtree@@UEAAPEAXI@Z ENDP ; Palmtree::Math::Core::Internal::Exception::`scalar deleting destructor'
_TEXT	ENDS
;	COMDAT text$x
text$x	SEGMENT
$T1 = 32
this$ = 64
__flags$ = 72
?dtor$0@?0???_GException@Internal@Core@Math@Palmtree@@UEAAPEAXI@Z@4HA PROC ; `Palmtree::Math::Core::Internal::Exception::`scalar deleting destructor''::`1'::dtor$0
  00000	48 8b 8a 40 00
	00 00		 mov	 rcx, QWORD PTR this$[rdx]
  00007	e9 00 00 00 00	 jmp	 ??1exception@std@@UEAA@XZ ; std::exception::~exception
?dtor$0@?0???_GException@Internal@Core@Math@Palmtree@@UEAAPEAXI@Z@4HA ENDP ; `Palmtree::Math::Core::Internal::Exception::`scalar deleting destructor''::`1'::dtor$0
text$x	ENDS
; Function compile flags: /Ogtpy
;	COMDAT text$x
text$x	SEGMENT
$T1 = 32
this$ = 64
__flags$ = 72
?dtor$0@?0???_GException@Internal@Core@Math@Palmtree@@UEAAPEAXI@Z@4HA PROC ; `Palmtree::Math::Core::Internal::Exception::`scalar deleting destructor''::`1'::dtor$0
  00000	48 8b 8a 40 00
	00 00		 mov	 rcx, QWORD PTR this$[rdx]
  00007	e9 00 00 00 00	 jmp	 ??1exception@std@@UEAA@XZ ; std::exception::~exception
?dtor$0@?0???_GException@Internal@Core@Math@Palmtree@@UEAAPEAXI@Z@4HA ENDP ; `Palmtree::Math::Core::Internal::Exception::`scalar deleting destructor''::`1'::dtor$0
text$x	ENDS
; Function compile flags: /Ogtpy
; File z:\sources\lunor\repos\rougemeilland\palmtree.math.core.uint\palmtree.math.core.uint\pmc_exception.h
; File c:\program files (x86)\microsoft visual studio\2017\community\vc\tools\msvc\14.16.27023\include\vcruntime_exception.h
; File z:\sources\lunor\repos\rougemeilland\palmtree.math.core.uint\palmtree.math.core.uint\pmc_exception.h
;	COMDAT ??1Exception@Internal@Core@Math@Palmtree@@UEAA@XZ
_TEXT	SEGMENT
$T1 = 32
this$ = 64
??1Exception@Internal@Core@Math@Palmtree@@UEAA@XZ PROC	; Palmtree::Math::Core::Internal::Exception::~Exception, COMDAT

; 70   :         {

$LN8:
  00000	48 89 4c 24 08	 mov	 QWORD PTR [rsp+8], rcx
  00005	48 83 ec 38	 sub	 rsp, 56			; 00000038H
  00009	48 c7 44 24 20
	fe ff ff ff	 mov	 QWORD PTR $T1[rsp], -2
  00012	48 8d 05 00 00
	00 00		 lea	 rax, OFFSET FLAT:??_7Exception@Internal@Core@Math@Palmtree@@6B@
  00019	48 89 01	 mov	 QWORD PTR [rcx], rax
; File c:\program files (x86)\microsoft visual studio\2017\community\vc\tools\msvc\14.16.27023\include\vcruntime_exception.h

; 85   :     {

  0001c	48 8d 05 00 00
	00 00		 lea	 rax, OFFSET FLAT:??_7exception@std@@6B@
  00023	48 89 01	 mov	 QWORD PTR [rcx], rax

; 86   :         __std_exception_destroy(&_Data);

  00026	48 83 c1 08	 add	 rcx, 8
  0002a	e8 00 00 00 00	 call	 __std_exception_destroy
  0002f	90		 npad	 1
; File z:\sources\lunor\repos\rougemeilland\palmtree.math.core.uint\palmtree.math.core.uint\pmc_exception.h

; 71   :         }

  00030	48 83 c4 38	 add	 rsp, 56			; 00000038H
  00034	c3		 ret	 0
??1Exception@Internal@Core@Math@Palmtree@@UEAA@XZ ENDP	; Palmtree::Math::Core::Internal::Exception::~Exception
_TEXT	ENDS
;	COMDAT text$x
text$x	SEGMENT
$T1 = 32
this$ = 64
?dtor$0@?0???1Exception@Internal@Core@Math@Palmtree@@UEAA@XZ@4HA PROC ; `Palmtree::Math::Core::Internal::Exception::~Exception'::`1'::dtor$0
  00000	48 8b 8a 40 00
	00 00		 mov	 rcx, QWORD PTR this$[rdx]
  00007	e9 00 00 00 00	 jmp	 ??1exception@std@@UEAA@XZ ; std::exception::~exception
?dtor$0@?0???1Exception@Internal@Core@Math@Palmtree@@UEAA@XZ@4HA ENDP ; `Palmtree::Math::Core::Internal::Exception::~Exception'::`1'::dtor$0
text$x	ENDS
; Function compile flags: /Ogtpy
;	COMDAT text$x
text$x	SEGMENT
$T1 = 32
this$ = 64
?dtor$0@?0???1Exception@Internal@Core@Math@Palmtree@@UEAA@XZ@4HA PROC ; `Palmtree::Math::Core::Internal::Exception::~Exception'::`1'::dtor$0
  00000	48 8b 8a 40 00
	00 00		 mov	 rcx, QWORD PTR this$[rdx]
  00007	e9 00 00 00 00	 jmp	 ??1exception@std@@UEAA@XZ ; std::exception::~exception
?dtor$0@?0???1Exception@Internal@Core@Math@Palmtree@@UEAA@XZ@4HA ENDP ; `Palmtree::Math::Core::Internal::Exception::~Exception'::`1'::dtor$0
text$x	ENDS
; Function compile flags: /Ogtpy
; File z:\sources\lunor\repos\rougemeilland\palmtree.math.core.uint\palmtree.math.core.uint\pmc_exception.h
; File c:\program files (x86)\microsoft visual studio\2017\community\vc\tools\msvc\14.16.27023\include\vcruntime_exception.h
; File z:\sources\lunor\repos\rougemeilland\palmtree.math.core.uint\palmtree.math.core.uint\pmc_exception.h
;	COMDAT ??0Exception@Internal@Core@Math@Palmtree@@QEAA@AEBV01234@@Z
_TEXT	SEGMENT
$T1 = 0
this$ = 32
p$ = 40
??0Exception@Internal@Core@Math@Palmtree@@QEAA@AEBV01234@@Z PROC ; Palmtree::Math::Core::Internal::Exception::Exception, COMDAT

; 62   :         Exception(const Exception& p) noexcept(true)

$LN8:
  00000	48 89 4c 24 08	 mov	 QWORD PTR [rsp+8], rcx
  00005	48 83 ec 18	 sub	 rsp, 24
  00009	48 c7 04 24 fe
	ff ff ff	 mov	 QWORD PTR $T1[rsp], -2
; File c:\program files (x86)\microsoft visual studio\2017\community\vc\tools\msvc\14.16.27023\include\vcruntime_exception.h

; 50   :     {

  00011	48 8d 05 00 00
	00 00		 lea	 rax, OFFSET FLAT:??_7exception@std@@6B@
  00018	48 89 01	 mov	 QWORD PTR [rcx], rax

; 49   :         : _Data()

  0001b	33 c0		 xor	 eax, eax
  0001d	48 89 41 08	 mov	 QWORD PTR [rcx+8], rax
  00021	48 89 41 10	 mov	 QWORD PTR [rcx+16], rax
; File z:\sources\lunor\repos\rougemeilland\palmtree.math.core.uint\palmtree.math.core.uint\pmc_exception.h

; 62   :         Exception(const Exception& p) noexcept(true)

  00025	48 8d 05 00 00
	00 00		 lea	 rax, OFFSET FLAT:??_7Exception@Internal@Core@Math@Palmtree@@6B@
  0002c	48 89 01	 mov	 QWORD PTR [rcx], rax

; 63   :         {
; 64   :             _code = p._code;

  0002f	8b 42 18	 mov	 eax, DWORD PTR [rdx+24]
  00032	89 41 18	 mov	 DWORD PTR [rcx+24], eax

; 65   :             _message = p._message;

  00035	48 8b 42 20	 mov	 rax, QWORD PTR [rdx+32]
  00039	48 89 41 20	 mov	 QWORD PTR [rcx+32], rax

; 66   :             _data = p._data;

  0003d	48 8b 42 28	 mov	 rax, QWORD PTR [rdx+40]
  00041	48 89 41 28	 mov	 QWORD PTR [rcx+40], rax

; 67   :         }

  00045	48 8b c1	 mov	 rax, rcx
  00048	48 83 c4 18	 add	 rsp, 24
  0004c	c3		 ret	 0
??0Exception@Internal@Core@Math@Palmtree@@QEAA@AEBV01234@@Z ENDP ; Palmtree::Math::Core::Internal::Exception::Exception
_TEXT	ENDS
;	COMDAT text$x
text$x	SEGMENT
$T1 = 0
this$ = 32
p$ = 40
?dtor$0@?0???0Exception@Internal@Core@Math@Palmtree@@QEAA@AEBV01234@@Z@4HA PROC ; `Palmtree::Math::Core::Internal::Exception::Exception'::`1'::dtor$0
  00000	48 8b 8a 20 00
	00 00		 mov	 rcx, QWORD PTR this$[rdx]
  00007	e9 00 00 00 00	 jmp	 ??1exception@std@@UEAA@XZ ; std::exception::~exception
?dtor$0@?0???0Exception@Internal@Core@Math@Palmtree@@QEAA@AEBV01234@@Z@4HA ENDP ; `Palmtree::Math::Core::Internal::Exception::Exception'::`1'::dtor$0
text$x	ENDS
; Function compile flags: /Ogtpy
;	COMDAT text$x
text$x	SEGMENT
$T1 = 0
this$ = 32
p$ = 40
?dtor$0@?0???0Exception@Internal@Core@Math@Palmtree@@QEAA@AEBV01234@@Z@4HA PROC ; `Palmtree::Math::Core::Internal::Exception::Exception'::`1'::dtor$0
  00000	48 8b 8a 20 00
	00 00		 mov	 rcx, QWORD PTR this$[rdx]
  00007	e9 00 00 00 00	 jmp	 ??1exception@std@@UEAA@XZ ; std::exception::~exception
?dtor$0@?0???0Exception@Internal@Core@Math@Palmtree@@QEAA@AEBV01234@@Z@4HA ENDP ; `Palmtree::Math::Core::Internal::Exception::Exception'::`1'::dtor$0
text$x	ENDS
; Function compile flags: /Ogtpy
; File z:\sources\lunor\repos\rougemeilland\palmtree.math.core.uint\palmtree.math.core.uint\pmc_exception.h
; File c:\program files (x86)\microsoft visual studio\2017\community\vc\tools\msvc\14.16.27023\include\vcruntime_exception.h
; File z:\sources\lunor\repos\rougemeilland\palmtree.math.core.uint\palmtree.math.core.uint\pmc_exception.h
;	COMDAT ??0Exception@Internal@Core@Math@Palmtree@@IEAA@HPEB_W0@Z
_TEXT	SEGMENT
$T1 = 0
this$ = 32
code$ = 40
message$ = 48
data$ = 56
??0Exception@Internal@Core@Math@Palmtree@@IEAA@HPEB_W0@Z PROC ; Palmtree::Math::Core::Internal::Exception::Exception, COMDAT

; 54   :         Exception(PMC_STATUS_CODE code, const wchar_t* message, const wchar_t* data) noexcept(true)

$LN8:
  00000	48 89 4c 24 08	 mov	 QWORD PTR [rsp+8], rcx
  00005	48 83 ec 18	 sub	 rsp, 24
  00009	48 c7 04 24 fe
	ff ff ff	 mov	 QWORD PTR $T1[rsp], -2
; File c:\program files (x86)\microsoft visual studio\2017\community\vc\tools\msvc\14.16.27023\include\vcruntime_exception.h

; 50   :     {

  00011	48 8d 05 00 00
	00 00		 lea	 rax, OFFSET FLAT:??_7exception@std@@6B@
  00018	48 89 01	 mov	 QWORD PTR [rcx], rax

; 49   :         : _Data()

  0001b	33 c0		 xor	 eax, eax
  0001d	48 89 41 08	 mov	 QWORD PTR [rcx+8], rax
  00021	48 89 41 10	 mov	 QWORD PTR [rcx+16], rax
; File z:\sources\lunor\repos\rougemeilland\palmtree.math.core.uint\palmtree.math.core.uint\pmc_exception.h

; 54   :         Exception(PMC_STATUS_CODE code, const wchar_t* message, const wchar_t* data) noexcept(true)

  00025	48 8d 05 00 00
	00 00		 lea	 rax, OFFSET FLAT:??_7Exception@Internal@Core@Math@Palmtree@@6B@
  0002c	48 89 01	 mov	 QWORD PTR [rcx], rax

; 55   :         {
; 56   :             _code = code;

  0002f	89 51 18	 mov	 DWORD PTR [rcx+24], edx

; 57   :             _message = message;

  00032	4c 89 41 20	 mov	 QWORD PTR [rcx+32], r8

; 58   :             _data = data;

  00036	4c 89 49 28	 mov	 QWORD PTR [rcx+40], r9

; 59   :         }

  0003a	48 8b c1	 mov	 rax, rcx
  0003d	48 83 c4 18	 add	 rsp, 24
  00041	c3		 ret	 0
??0Exception@Internal@Core@Math@Palmtree@@IEAA@HPEB_W0@Z ENDP ; Palmtree::Math::Core::Internal::Exception::Exception
_TEXT	ENDS
;	COMDAT text$x
text$x	SEGMENT
$T1 = 0
this$ = 32
code$ = 40
message$ = 48
data$ = 56
?dtor$0@?0???0Exception@Internal@Core@Math@Palmtree@@IEAA@HPEB_W0@Z@4HA PROC ; `Palmtree::Math::Core::Internal::Exception::Exception'::`1'::dtor$0
  00000	48 8b 8a 20 00
	00 00		 mov	 rcx, QWORD PTR this$[rdx]
  00007	e9 00 00 00 00	 jmp	 ??1exception@std@@UEAA@XZ ; std::exception::~exception
?dtor$0@?0???0Exception@Internal@Core@Math@Palmtree@@IEAA@HPEB_W0@Z@4HA ENDP ; `Palmtree::Math::Core::Internal::Exception::Exception'::`1'::dtor$0
text$x	ENDS
; Function compile flags: /Ogtpy
;	COMDAT text$x
text$x	SEGMENT
$T1 = 0
this$ = 32
code$ = 40
message$ = 48
data$ = 56
?dtor$0@?0???0Exception@Internal@Core@Math@Palmtree@@IEAA@HPEB_W0@Z@4HA PROC ; `Palmtree::Math::Core::Internal::Exception::Exception'::`1'::dtor$0
  00000	48 8b 8a 20 00
	00 00		 mov	 rcx, QWORD PTR this$[rdx]
  00007	e9 00 00 00 00	 jmp	 ??1exception@std@@UEAA@XZ ; std::exception::~exception
?dtor$0@?0???0Exception@Internal@Core@Math@Palmtree@@IEAA@HPEB_W0@Z@4HA ENDP ; `Palmtree::Math::Core::Internal::Exception::Exception'::`1'::dtor$0
text$x	ENDS
; Function compile flags: /Ogtpy
; File c:\program files (x86)\microsoft visual studio\2017\community\vc\tools\msvc\14.16.27023\include\vcruntime_exception.h
;	COMDAT ??_Gexception@std@@UEAAPEAXI@Z
_TEXT	SEGMENT
$T1 = 32
this$ = 64
__flags$ = 72
??_Gexception@std@@UEAAPEAXI@Z PROC			; std::exception::`scalar deleting destructor', COMDAT
$LN9:
  00000	40 57		 push	 rdi
  00002	48 83 ec 30	 sub	 rsp, 48			; 00000030H
  00006	48 c7 44 24 20
	fe ff ff ff	 mov	 QWORD PTR $T1[rsp], -2
  0000f	48 89 5c 24 40	 mov	 QWORD PTR [rsp+64], rbx
  00014	8b da		 mov	 ebx, edx
  00016	48 8b f9	 mov	 rdi, rcx

; 85   :     {

  00019	48 8d 05 00 00
	00 00		 lea	 rax, OFFSET FLAT:??_7exception@std@@6B@
  00020	48 89 01	 mov	 QWORD PTR [rcx], rax

; 86   :         __std_exception_destroy(&_Data);

  00023	48 83 c1 08	 add	 rcx, 8
  00027	e8 00 00 00 00	 call	 __std_exception_destroy
  0002c	90		 npad	 1
  0002d	f6 c3 01	 test	 bl, 1
  00030	74 0e		 je	 SHORT $LN6@scalar
  00032	ba 18 00 00 00	 mov	 edx, 24
  00037	48 8b cf	 mov	 rcx, rdi
  0003a	e8 00 00 00 00	 call	 ??3@YAXPEAX_K@Z		; operator delete
  0003f	90		 npad	 1
$LN6@scalar:
  00040	48 8b c7	 mov	 rax, rdi
  00043	48 8b 5c 24 40	 mov	 rbx, QWORD PTR [rsp+64]
  00048	48 83 c4 30	 add	 rsp, 48			; 00000030H
  0004c	5f		 pop	 rdi
  0004d	c3		 ret	 0
??_Gexception@std@@UEAAPEAXI@Z ENDP			; std::exception::`scalar deleting destructor'
_TEXT	ENDS
; Function compile flags: /Ogtpy
; File c:\program files (x86)\microsoft visual studio\2017\community\vc\tools\msvc\14.16.27023\include\vcruntime_exception.h
;	COMDAT ?what@exception@std@@UEBAPEBDXZ
_TEXT	SEGMENT
this$ = 8
?what@exception@std@@UEBAPEBDXZ PROC			; std::exception::what, COMDAT

; 91   :         return _Data._What ? _Data._What : "Unknown exception";

  00000	48 8b 51 08	 mov	 rdx, QWORD PTR [rcx+8]
  00004	48 8d 05 00 00
	00 00		 lea	 rax, OFFSET FLAT:??_C@_0BC@EOODALEL@Unknown?5exception@
  0000b	48 85 d2	 test	 rdx, rdx
  0000e	48 0f 45 c2	 cmovne	 rax, rdx

; 92   :     }

  00012	c3		 ret	 0
?what@exception@std@@UEBAPEBDXZ ENDP			; std::exception::what
_TEXT	ENDS
; Function compile flags: /Ogtpy
; File c:\program files (x86)\microsoft visual studio\2017\community\vc\tools\msvc\14.16.27023\include\vcruntime_exception.h
;	COMDAT ??1exception@std@@UEAA@XZ
_TEXT	SEGMENT
$T1 = 32
this$ = 64
??1exception@std@@UEAA@XZ PROC				; std::exception::~exception, COMDAT

; 85   :     {

$LN5:
  00000	48 83 ec 38	 sub	 rsp, 56			; 00000038H
  00004	48 c7 44 24 20
	fe ff ff ff	 mov	 QWORD PTR $T1[rsp], -2
  0000d	48 8d 05 00 00
	00 00		 lea	 rax, OFFSET FLAT:??_7exception@std@@6B@
  00014	48 89 01	 mov	 QWORD PTR [rcx], rax

; 86   :         __std_exception_destroy(&_Data);

  00017	48 83 c1 08	 add	 rcx, 8
  0001b	e8 00 00 00 00	 call	 __std_exception_destroy
  00020	90		 npad	 1

; 87   :     }

  00021	48 83 c4 38	 add	 rsp, 56			; 00000038H
  00025	c3		 ret	 0
??1exception@std@@UEAA@XZ ENDP				; std::exception::~exception
_TEXT	ENDS
; Function compile flags: /Ogtpy
; File c:\program files (x86)\microsoft visual studio\2017\community\vc\tools\msvc\14.16.27023\include\vcruntime_exception.h
;	COMDAT ??0exception@std@@QEAA@XZ
_TEXT	SEGMENT
this$ = 8
??0exception@std@@QEAA@XZ PROC				; std::exception::exception, COMDAT

; 50   :     {

  00000	48 8d 05 00 00
	00 00		 lea	 rax, OFFSET FLAT:??_7exception@std@@6B@
  00007	48 89 01	 mov	 QWORD PTR [rcx], rax
  0000a	33 c0		 xor	 eax, eax
  0000c	48 89 41 08	 mov	 QWORD PTR [rcx+8], rax
  00010	48 89 41 10	 mov	 QWORD PTR [rcx+16], rax

; 51   :     }

  00014	48 8b c1	 mov	 rax, rcx
  00017	c3		 ret	 0
??0exception@std@@QEAA@XZ ENDP				; std::exception::exception
_TEXT	ENDS
END
