; Listing generated by Microsoft (R) Optimizing Compiler Version 19.16.27026.1 

include listing.inc

INCLUDELIB MSVCRT
INCLUDELIB OLDNAMES

PUBLIC	Multiply_X_X_Imp
PUBLIC	Initialize_Multiply
PUBLIC	PMC_Multiply_I_X
PUBLIC	PMC_Multiply_L_X
PUBLIC	PMC_Multiply_X_I
PUBLIC	PMC_Multiply_X_L
PUBLIC	PMC_Multiply_X_X
EXTRN	CheckBlockLight:PROC
EXTRN	AllocateNumber:PROC
EXTRN	CommitNumber:PROC
EXTRN	CheckNumber:PROC
EXTRN	DuplicateNumber:PROC
EXTRN	From_I_Imp:PROC
EXTRN	From_L_Imp:PROC
EXTRN	number_zero:BYTE
EXTRN	statistics_info:BYTE
_BSS	SEGMENT
fp_Multiply_X_1W DQ 01H DUP (?)
fp_Multiply_X_2W DQ 01H DUP (?)
fp_Multiply_X_X DQ 01H DUP (?)
_BSS	ENDS
;	COMDAT pdata
pdata	SEGMENT
$pdata$PMC_Multiply_I_X DD imagerel $LN10
	DD	imagerel $LN10+94
	DD	imagerel $unwind$PMC_Multiply_I_X
pdata	ENDS
;	COMDAT pdata
pdata	SEGMENT
$pdata$PMC_Multiply_L_X DD imagerel $LN10
	DD	imagerel $LN10+96
	DD	imagerel $unwind$PMC_Multiply_L_X
pdata	ENDS
;	COMDAT pdata
pdata	SEGMENT
$pdata$PMC_Multiply_X_I DD imagerel $LN10
	DD	imagerel $LN10+91
	DD	imagerel $unwind$PMC_Multiply_X_I
pdata	ENDS
;	COMDAT pdata
pdata	SEGMENT
$pdata$PMC_Multiply_X_L DD imagerel $LN10
	DD	imagerel $LN10+93
	DD	imagerel $unwind$PMC_Multiply_X_L
pdata	ENDS
;	COMDAT pdata
pdata	SEGMENT
$pdata$PMC_Multiply_X_X DD imagerel $LN27
	DD	imagerel $LN27+379
	DD	imagerel $unwind$PMC_Multiply_X_X
pdata	ENDS
;	COMDAT pdata
pdata	SEGMENT
$pdata$Multiply_WORD_using_MUL_ADC DD imagerel Multiply_WORD_using_MUL_ADC
	DD	imagerel Multiply_WORD_using_MUL_ADC+2979
	DD	imagerel $unwind$Multiply_WORD_using_MUL_ADC
pdata	ENDS
;	COMDAT pdata
pdata	SEGMENT
$pdata$Multiply_WORD_using_MULX_ADCX DD imagerel Multiply_WORD_using_MULX_ADCX
	DD	imagerel Multiply_WORD_using_MULX_ADCX+3188
	DD	imagerel $unwind$Multiply_WORD_using_MULX_ADCX
pdata	ENDS
;	COMDAT pdata
pdata	SEGMENT
$pdata$Multiply_X_2W_using_MUL_ADC DD imagerel Multiply_X_2W_using_MUL_ADC
	DD	imagerel Multiply_X_2W_using_MUL_ADC+86
	DD	imagerel $unwind$Multiply_X_2W_using_MUL_ADC
pdata	ENDS
;	COMDAT pdata
pdata	SEGMENT
$pdata$Multiply_X_2W_using_MULX_ADCX DD imagerel Multiply_X_2W_using_MULX_ADCX
	DD	imagerel Multiply_X_2W_using_MULX_ADCX+86
	DD	imagerel $unwind$Multiply_X_2W_using_MULX_ADCX
pdata	ENDS
;	COMDAT pdata
pdata	SEGMENT
$pdata$Multiply_X_X_using_MUL_ADC DD imagerel Multiply_X_X_using_MUL_ADC
	DD	imagerel Multiply_X_X_using_MUL_ADC+135
	DD	imagerel $unwind$Multiply_X_X_using_MUL_ADC
pdata	ENDS
;	COMDAT pdata
pdata	SEGMENT
$pdata$Multiply_X_X_using_MULX_ADCX DD imagerel Multiply_X_X_using_MULX_ADCX
	DD	imagerel Multiply_X_X_using_MULX_ADCX+135
	DD	imagerel $unwind$Multiply_X_X_using_MULX_ADCX
pdata	ENDS
;	COMDAT pdata
pdata	SEGMENT
$pdata$PMC_Multiply_X_I_Imp DD imagerel PMC_Multiply_X_I_Imp
	DD	imagerel PMC_Multiply_X_I_Imp+249
	DD	imagerel $unwind$PMC_Multiply_X_I_Imp
pdata	ENDS
;	COMDAT pdata
pdata	SEGMENT
$pdata$PMC_Multiply_X_L_Imp DD imagerel PMC_Multiply_X_L_Imp
	DD	imagerel PMC_Multiply_X_L_Imp+255
	DD	imagerel $unwind$PMC_Multiply_X_L_Imp
pdata	ENDS
;	COMDAT xdata
xdata	SEGMENT
$unwind$PMC_Multiply_X_L_Imp DD 060f01H
	DD	08640fH
	DD	07340fH
	DD	0700b320fH
xdata	ENDS
;	COMDAT xdata
xdata	SEGMENT
$unwind$PMC_Multiply_X_I_Imp DD 060f01H
	DD	08640fH
	DD	07340fH
	DD	0700b320fH
xdata	ENDS
;	COMDAT xdata
xdata	SEGMENT
$unwind$Multiply_X_X_using_MULX_ADCX DD 0a1a01H
	DD	09741aH
	DD	08641aH
	DD	07541aH
	DD	06341aH
	DD	0e016321aH
xdata	ENDS
;	COMDAT xdata
xdata	SEGMENT
$unwind$Multiply_X_X_using_MUL_ADC DD 0a1a01H
	DD	09741aH
	DD	08641aH
	DD	07541aH
	DD	06341aH
	DD	0e016321aH
xdata	ENDS
;	COMDAT xdata
xdata	SEGMENT
$unwind$Multiply_X_2W_using_MULX_ADCX DD 081401H
	DD	086414H
	DD	075414H
	DD	063414H
	DD	070103214H
xdata	ENDS
;	COMDAT xdata
xdata	SEGMENT
$unwind$Multiply_X_2W_using_MUL_ADC DD 081401H
	DD	086414H
	DD	075414H
	DD	063414H
	DD	070103214H
xdata	ENDS
;	COMDAT xdata
xdata	SEGMENT
$unwind$Multiply_WORD_using_MULX_ADCX DD 091d01H
	DD	084641dH
	DD	082341dH
	DD	07e011dH
	DD	0700ce00eH
	DD	0500bH
xdata	ENDS
;	COMDAT xdata
xdata	SEGMENT
$unwind$Multiply_WORD_using_MUL_ADC DD 091f01H
	DD	083741fH
	DD	082641fH
	DD	080341fH
	DD	07e011fH
	DD	05010H
xdata	ENDS
;	COMDAT xdata
xdata	SEGMENT
$unwind$PMC_Multiply_X_X DD 060f01H
	DD	0a640fH
	DD	09340fH
	DD	0700b520fH
xdata	ENDS
;	COMDAT xdata
xdata	SEGMENT
$unwind$PMC_Multiply_X_L DD 060f01H
	DD	07640fH
	DD	06340fH
	DD	0700b320fH
xdata	ENDS
;	COMDAT xdata
xdata	SEGMENT
$unwind$PMC_Multiply_X_I DD 060f01H
	DD	07640fH
	DD	06340fH
	DD	0700b320fH
xdata	ENDS
;	COMDAT xdata
xdata	SEGMENT
$unwind$PMC_Multiply_L_X DD 060f01H
	DD	07640fH
	DD	06340fH
	DD	0700b320fH
xdata	ENDS
;	COMDAT xdata
xdata	SEGMENT
$unwind$PMC_Multiply_I_X DD 060f01H
	DD	07640fH
	DD	06340fH
	DD	0700b320fH
xdata	ENDS
; Function compile flags: /Ogtpy
; File z:\sources\lunor\repos\rougemeilland\palmtree.math.core.uint\palmtree.math.core.uint\pmc_multiply.c
; File z:\sources\lunor\repos\rougemeilland\palmtree.math.core.uint\palmtree.math.core.uint\pmc_inline_func.h
; File z:\sources\lunor\repos\rougemeilland\palmtree.math.core.uint\palmtree.math.core.uint\pmc_multiply.c
;	COMDAT PMC_Multiply_X_L_Imp
_TEXT	SEGMENT
nz_light_check_code$1 = 48
u$ = 48
v$ = 56
w$ = 64
PMC_Multiply_X_L_Imp PROC				; COMDAT

; 546  : {

	mov	QWORD PTR [rsp+16], rbx
	mov	QWORD PTR [rsp+24], rsi
	push	rdi
	sub	rsp, 32					; 00000020H

; 547  :     PMC_STATUS_CODE result;
; 548  :     if (u->IS_ZERO)

	mov	eax, DWORD PTR [rcx+40]
	mov	rbx, r8
	mov	rdi, rdx
	mov	rsi, rcx
	test	al, 2
	jne	SHORT $LN36@PMC_Multip

; 549  :     {
; 550  :         // x が 0 である場合
; 551  : 
; 552  :         // y の値にかかわらず 0 を返す。
; 553  :         *w = &number_zero;
; 554  :     }
; 555  :     else if (u->IS_ONE)

	test	al, 4
	je	SHORT $LN4@PMC_Multip

; 556  :     {
; 557  :         // x が 1 である場合
; 558  :         if (v == 0)

	test	rdx, rdx
	je	SHORT $LN36@PMC_Multip

; 559  :         {
; 560  :             // y が 0 である場合
; 561  : 
; 562  :             //  0  を返す。
; 563  :             *w = &number_zero;
; 564  :         }
; 565  :         else
; 566  :         {
; 567  :             // y が 0 ではない場合
; 568  : 
; 569  :             // 乗算結果は y に等しいため、y の値を持つ NUMBER_HEADER 構造体を獲得し、呼び出し元へ返す。
; 570  :             if ((result = From_L_Imp(v, w)) != PMC_STATUS_OK)

	mov	rdx, rbx
	mov	rcx, rdi
	call	From_L_Imp
	test	eax, eax
	je	$LN15@PMC_Multip

; 649  : }

	mov	rbx, QWORD PTR [rsp+56]
	mov	rsi, QWORD PTR [rsp+64]
	add	rsp, 32					; 00000020H
	pop	rdi
	ret	0
$LN4@PMC_Multip:

; 571  :                 return (result);
; 572  :         }
; 573  :     }
; 574  :     else
; 575  :     {
; 576  :         // x が 0 と 1 のどちらでもない場合
; 577  : 
; 578  :         if (v == 0)

	test	rdi, rdi
	jne	SHORT $LN9@PMC_Multip
$LN36@PMC_Multip:

; 645  :             }
; 646  :         }
; 647  :     }
; 648  :     return (PMC_STATUS_OK);

	lea	rax, OFFSET FLAT:number_zero
	mov	QWORD PTR [r8], rax
	xor	eax, eax

; 649  : }

	mov	rbx, QWORD PTR [rsp+56]
	mov	rsi, QWORD PTR [rsp+64]
	add	rsp, 32					; 00000020H
	pop	rdi
	ret	0
$LN9@PMC_Multip:

; 579  :         {
; 580  :             // y が 0 である場合
; 581  : 
; 582  :             //  0  を返す。
; 583  :             *w = &number_zero;
; 584  :         }
; 585  :         else if (v == 1)

	cmp	rdi, 1
	jne	SHORT $LN11@PMC_Multip

; 586  :         {
; 587  :             // y が 1 である場合
; 588  : 
; 589  :             // 乗算結果は x に等しいため、x の値を持つ NUMBER_HEADER 構造体を獲得し、呼び出し元へ返す。
; 590  :             if ((result = DuplicateNumber(u, w)) != PMC_STATUS_OK)

	mov	rdx, rbx
	call	DuplicateNumber
	test	eax, eax
	je	SHORT $LN15@PMC_Multip

; 649  : }

	mov	rbx, QWORD PTR [rsp+56]
	mov	rsi, QWORD PTR [rsp+64]
	add	rsp, 32					; 00000020H
	pop	rdi
	ret	0
$LN11@PMC_Multip:

; 591  :                 return (result);
; 592  :         }
; 593  :         else
; 594  :         {
; 595  :             // x と y がともに 0 、1 のどちらでもない場合
; 596  : 
; 597  :             // x と y の積を計算する
; 598  :             if (__UNIT_TYPE_BIT_COUNT < sizeof(v) * 8)
; 599  :             {
; 600  :                 // _UINT64_T が 1 ワードで表現しきれない場合
; 601  : 
; 602  :                 __UNIT_TYPE x_bit_count = u->UNIT_BIT_COUNT;
; 603  :                 _UINT32_T y_hi;
; 604  :                 _UINT32_T y_lo = _FROMDWORDTOWORD(v, &y_hi);
; 605  :                 if (y_hi == 0)
; 606  :                 {
; 607  :                     // y の値が 32bit で表現可能な場合
; 608  :                     __UNIT_TYPE y_bit_count = sizeof(y_lo) * 8 - _LZCNT_ALT_32(y_lo);
; 609  :                     __UNIT_TYPE z_bit_count = x_bit_count + y_bit_count;
; 610  :                     __UNIT_TYPE nz_light_check_code;
; 611  :                     if ((result = AllocateNumber(w, z_bit_count, &nz_light_check_code)) != PMC_STATUS_OK)
; 612  :                         return (result);
; 613  :                     (*fp_Multiply_X_1W)(u->BLOCK, u->UNIT_WORD_COUNT, y_lo, (*w)->BLOCK);
; 614  :                     if ((result = CheckBlockLight((*w)->BLOCK, nz_light_check_code)) != PMC_STATUS_OK)
; 615  :                         return (result);
; 616  :                 }
; 617  :                 else
; 618  :                 {
; 619  :                     // y の値が 32bit では表現できない場合
; 620  :                     __UNIT_TYPE y_bit_count = sizeof(v) * 8 - _LZCNT_ALT_32(y_hi);
; 621  :                     __UNIT_TYPE z_bit_count = x_bit_count + y_bit_count;
; 622  :                     __UNIT_TYPE nz_light_check_code;
; 623  :                     if ((result = AllocateNumber(w, z_bit_count, &nz_light_check_code)) != PMC_STATUS_OK)
; 624  :                         return (result);
; 625  :                     (*fp_Multiply_X_2W)(u->BLOCK, u->UNIT_WORD_COUNT, y_hi, y_lo, (*w)->BLOCK);
; 626  :                     if ((result = CheckBlockLight((*w)->BLOCK, nz_light_check_code)) != PMC_STATUS_OK)
; 627  :                         return (result);
; 628  :                 }
; 629  :                 CommitNumber(*w);
; 630  :             }
; 631  :             else
; 632  :             {
; 633  :                 // _UINT64_T が 1 ワードで表現できる場合
; 634  : 
; 635  :                 __UNIT_TYPE x_bit_count = u->UNIT_BIT_COUNT;

	mov	rdx, QWORD PTR [rcx+16]

; 637  :                 __UNIT_TYPE z_bit_count = x_bit_count + y_bit_count;
; 638  :                 __UNIT_TYPE nz_light_check_code;
; 639  :                 if ((result = AllocateNumber(w, z_bit_count, &nz_light_check_code)) != PMC_STATUS_OK)

	lea	r8, QWORD PTR nz_light_check_code$1[rsp]
; File z:\sources\lunor\repos\rougemeilland\palmtree.math.core.uint\palmtree.math.core.uint\pmc_inline_func.h

; 637  :         _BitScanReverse64(&pos, x);

	bsr	rax, rdi

; 638  : #elif defined(__GNUC__)
; 639  :         _UINT64_T pos;
; 640  :         __asm__("bsrq %1, %0" : "=r"(pos) : "rm"(x));
; 641  : #else
; 642  : #error unknown compiler
; 643  : #endif
; 644  : #else
; 645  : #error unknown platform
; 646  : #endif
; 647  :         return (sizeof(x) * 8 - 1 - pos);

	mov	ecx, 63					; 0000003fH
	sub	ecx, eax
; File z:\sources\lunor\repos\rougemeilland\palmtree.math.core.uint\palmtree.math.core.uint\pmc_multiply.c

; 636  :                 __UNIT_TYPE y_bit_count = sizeof(v) * 8 - _LZCNT_ALT_UNIT((__UNIT_TYPE)v);

	movsxd	rax, ecx

; 637  :                 __UNIT_TYPE z_bit_count = x_bit_count + y_bit_count;
; 638  :                 __UNIT_TYPE nz_light_check_code;
; 639  :                 if ((result = AllocateNumber(w, z_bit_count, &nz_light_check_code)) != PMC_STATUS_OK)

	mov	rcx, rbx
	sub	rdx, rax
	add	rdx, 64					; 00000040H
	call	AllocateNumber
	test	eax, eax
	jne	SHORT $LN1@PMC_Multip

; 640  :                     return (result);
; 641  :                 (*fp_Multiply_X_1W)(u->BLOCK, u->UNIT_WORD_COUNT, (__UNIT_TYPE)v, (*w)->BLOCK);

	mov	r9, QWORD PTR [rbx]
	mov	r8, rdi
	mov	rdx, QWORD PTR [rsi+8]
	mov	rcx, QWORD PTR [rsi+56]
	mov	r9, QWORD PTR [r9+56]
	call	QWORD PTR fp_Multiply_X_1W

; 642  :                 if ((result = CheckBlockLight((*w)->BLOCK, nz_light_check_code)) != PMC_STATUS_OK)

	mov	rcx, QWORD PTR [rbx]
	mov	rdx, QWORD PTR nz_light_check_code$1[rsp]
	mov	rcx, QWORD PTR [rcx+56]
	call	CheckBlockLight
	test	eax, eax
	jne	SHORT $LN1@PMC_Multip

; 643  :                     return (result);
; 644  :                 CommitNumber(*w);

	mov	rcx, QWORD PTR [rbx]
	call	CommitNumber
$LN15@PMC_Multip:

; 645  :             }
; 646  :         }
; 647  :     }
; 648  :     return (PMC_STATUS_OK);

	xor	eax, eax
$LN1@PMC_Multip:

; 649  : }

	mov	rbx, QWORD PTR [rsp+56]
	mov	rsi, QWORD PTR [rsp+64]
	add	rsp, 32					; 00000020H
	pop	rdi
	ret	0
PMC_Multiply_X_L_Imp ENDP
_TEXT	ENDS
; Function compile flags: /Ogtpy
; File z:\sources\lunor\repos\rougemeilland\palmtree.math.core.uint\palmtree.math.core.uint\pmc_multiply.c
; File z:\sources\lunor\repos\rougemeilland\palmtree.math.core.uint\palmtree.math.core.uint\pmc_inline_func.h
; File z:\sources\lunor\repos\rougemeilland\palmtree.math.core.uint\palmtree.math.core.uint\pmc_multiply.c
;	COMDAT PMC_Multiply_X_I_Imp
_TEXT	SEGMENT
w_light_check_code$1 = 48
u$ = 48
v$ = 56
w$ = 64
PMC_Multiply_X_I_Imp PROC				; COMDAT

; 432  : {

	mov	QWORD PTR [rsp+16], rbx
	mov	QWORD PTR [rsp+24], rsi
	push	rdi
	sub	rsp, 32					; 00000020H

; 433  :     PMC_STATUS_CODE result;
; 434  :     if (u->IS_ZERO)

	mov	eax, DWORD PTR [rcx+40]
	mov	rbx, r8
	mov	edi, edx
	mov	rsi, rcx
	test	al, 2
	jne	SHORT $LN20@PMC_Multip

; 435  :     {
; 436  :         // u が 0 である場合
; 437  : 
; 438  :         // v の値にかかわらず 0 を返す。
; 439  :         *w = &number_zero;
; 440  :     }
; 441  :     else if (u->IS_ONE)

	test	al, 4
	je	SHORT $LN4@PMC_Multip

; 442  :     {
; 443  :         // u が 1 である場合
; 444  :         if (v == 0)

	test	edx, edx
	je	SHORT $LN20@PMC_Multip

; 445  :         {
; 446  :             // v が 0 である場合
; 447  : 
; 448  :             //  0  を返す。
; 449  :             *w = &number_zero;
; 450  :         }
; 451  :         else
; 452  :         {
; 453  :             // y が 0 ではない場合
; 454  : 
; 455  :             // 乗算結果は v に等しいため、v の値を持つ NUMBER_HEADER 構造体を獲得し、呼び出し元へ返す。
; 456  :             if ((result = From_I_Imp(v, w)) != PMC_STATUS_OK)

	mov	rdx, rbx
	mov	ecx, edi
	call	From_I_Imp
	test	eax, eax
	je	$LN12@PMC_Multip

; 497  : }

	mov	rbx, QWORD PTR [rsp+56]
	mov	rsi, QWORD PTR [rsp+64]
	add	rsp, 32					; 00000020H
	pop	rdi
	ret	0
$LN4@PMC_Multip:

; 457  :                 return (result);
; 458  :         }
; 459  :     }
; 460  :     else
; 461  :     {
; 462  :         // u が 0 と 1 のどちらでもない場合
; 463  : 
; 464  :         if (v == 0)

	test	edx, edx
	jne	SHORT $LN9@PMC_Multip
$LN20@PMC_Multip:

; 494  :         }
; 495  :     }
; 496  :     return (PMC_STATUS_OK);

	lea	rax, OFFSET FLAT:number_zero
	mov	QWORD PTR [r8], rax
	xor	eax, eax

; 497  : }

	mov	rbx, QWORD PTR [rsp+56]
	mov	rsi, QWORD PTR [rsp+64]
	add	rsp, 32					; 00000020H
	pop	rdi
	ret	0
$LN9@PMC_Multip:

; 465  :         {
; 466  :             // v が 0 である場合
; 467  : 
; 468  :             //  0  を返す。
; 469  :             *w = &number_zero;
; 470  :         }
; 471  :         else if (v == 1)

	cmp	edi, 1
	jne	SHORT $LN11@PMC_Multip

; 472  :         {
; 473  :             // v が 1 である場合
; 474  : 
; 475  :             // 乗算結果は u に等しいため、u の値を持つ NUMBER_HEADER 構造体を獲得し、呼び出し元へ返す。
; 476  :             if ((result = DuplicateNumber(u, w)) != PMC_STATUS_OK)

	mov	rdx, rbx
	call	DuplicateNumber
	test	eax, eax
	je	SHORT $LN12@PMC_Multip

; 497  : }

	mov	rbx, QWORD PTR [rsp+56]
	mov	rsi, QWORD PTR [rsp+64]
	add	rsp, 32					; 00000020H
	pop	rdi
	ret	0
$LN11@PMC_Multip:

; 477  :                 return (result);
; 478  :         }
; 479  :         else
; 480  :         {
; 481  :             // u と v がともに 0 、1 のどちらでもない場合
; 482  : 
; 483  :             // u と v の積を計算する
; 484  :             __UNIT_TYPE u_bit_count = u->UNIT_BIT_COUNT;

	mov	rdx, QWORD PTR [rcx+16]

; 486  :             __UNIT_TYPE w_bit_count = u_bit_count + v_bit_count;
; 487  :             __UNIT_TYPE w_light_check_code;
; 488  :             if ((result = AllocateNumber(w, w_bit_count, &w_light_check_code)) != PMC_STATUS_OK)

	lea	r8, QWORD PTR w_light_check_code$1[rsp]
; File z:\sources\lunor\repos\rougemeilland\palmtree.math.core.uint\palmtree.math.core.uint\pmc_inline_func.h

; 594  :         _BitScanReverse(&pos, x);

	bsr	eax, edi

; 595  : #elif defined(__GNUC__)
; 596  :         __asm__("bsrl %1, %0" : "=r"(pos) : "rm"(x));
; 597  : #else
; 598  : #error unknown compiler
; 599  : #endif
; 600  :         return (sizeof(x) * 8 - 1 - pos);

	mov	ecx, 31
	sub	ecx, eax
; File z:\sources\lunor\repos\rougemeilland\palmtree.math.core.uint\palmtree.math.core.uint\pmc_multiply.c

; 485  :             __UNIT_TYPE v_bit_count = sizeof(v) * 8 - _LZCNT_ALT_32(v);

	movsxd	rax, ecx

; 486  :             __UNIT_TYPE w_bit_count = u_bit_count + v_bit_count;
; 487  :             __UNIT_TYPE w_light_check_code;
; 488  :             if ((result = AllocateNumber(w, w_bit_count, &w_light_check_code)) != PMC_STATUS_OK)

	mov	rcx, rbx
	sub	rdx, rax
	add	rdx, 32					; 00000020H
	call	AllocateNumber
	test	eax, eax
	jne	SHORT $LN1@PMC_Multip

; 489  :                 return (result);
; 490  :             (*fp_Multiply_X_1W)(u->BLOCK, u->UNIT_WORD_COUNT, v, (*w)->BLOCK);

	mov	r9, QWORD PTR [rbx]
	mov	r8, rdi
	mov	rdx, QWORD PTR [rsi+8]
	mov	rcx, QWORD PTR [rsi+56]
	mov	r9, QWORD PTR [r9+56]
	call	QWORD PTR fp_Multiply_X_1W

; 491  :             if ((result = CheckBlockLight((*w)->BLOCK, w_light_check_code)) != PMC_STATUS_OK)

	mov	rcx, QWORD PTR [rbx]
	mov	rdx, QWORD PTR w_light_check_code$1[rsp]
	mov	rcx, QWORD PTR [rcx+56]
	call	CheckBlockLight
	test	eax, eax
	jne	SHORT $LN1@PMC_Multip

; 492  :                 return (result);
; 493  :             CommitNumber(*w);

	mov	rcx, QWORD PTR [rbx]
	call	CommitNumber
$LN12@PMC_Multip:

; 494  :         }
; 495  :     }
; 496  :     return (PMC_STATUS_OK);

	xor	eax, eax
$LN1@PMC_Multip:

; 497  : }

	mov	rbx, QWORD PTR [rsp+56]
	mov	rsi, QWORD PTR [rsp+64]
	add	rsp, 32					; 00000020H
	pop	rdi
	ret	0
PMC_Multiply_X_I_Imp ENDP
_TEXT	ENDS
; Function compile flags: /Ogtpy
; File z:\sources\lunor\repos\rougemeilland\palmtree.math.core.uint\palmtree.math.core.uint\pmc_multiply.c
;	COMDAT Multiply_X_X_using_MULX_ADCX
_TEXT	SEGMENT
u_buf$ = 48
u_count$ = 56
v_buf$ = 64
v_count$ = 72
w_buf$ = 80
Multiply_X_X_using_MULX_ADCX PROC			; COMDAT

; 407  : {

	mov	QWORD PTR [rsp+8], rbx
	mov	QWORD PTR [rsp+16], rbp
	mov	QWORD PTR [rsp+24], rsi
	mov	QWORD PTR [rsp+32], rdi
	push	r14
	sub	rsp, 32					; 00000020H

; 408  :     // x のワード長が y のワード長以上であるようにする
; 409  :     if (u_count < v_count)
; 410  :     {
; 411  :         __UNIT_TYPE* t_buf = u_buf;
; 412  :         u_buf = v_buf;
; 413  :         v_buf = t_buf;
; 414  :         __UNIT_TYPE t_count = u_count;
; 415  :         u_count = v_count;
; 416  :         v_count = t_count;
; 417  :     }
; 418  :     __UNIT_TYPE* up = u_buf;

	mov	r14, QWORD PTR w_buf$[rsp]
	cmp	rdx, r9
	mov	rbx, rcx
	mov	rsi, r8
	cmovae	rbx, r8
	cmovae	rsi, rcx
	mov	rbp, r9
	mov	rdi, rdx
	cmovae	rbp, rdx
	sub	r14, rbx
	cmp	rdx, r9
	cmovae	rdi, r9
	npad	12
$LL4@Multiply_X:

; 419  :     __UNIT_TYPE* vp = v_buf;
; 420  :     __UNIT_TYPE* wp = w_buf;
; 421  : 
; 422  :     do
; 423  :     {
; 424  :         Multiply_WORD_using_MULX_ADCX(up, u_count, *vp, wp);

	mov	r8, QWORD PTR [rbx]
	lea	r9, QWORD PTR [r14+rbx]
	mov	rdx, rbp
	mov	rcx, rsi
	call	Multiply_WORD_using_MULX_ADCX

; 425  :         ++vp;

	lea	rbx, QWORD PTR [rbx+8]

; 426  :         ++wp;
; 427  :         --v_count;

	sub	rdi, 1

; 428  :     } while (v_count != 0);

	jne	SHORT $LL4@Multiply_X

; 429  : }

	mov	rbx, QWORD PTR [rsp+48]
	mov	rbp, QWORD PTR [rsp+56]
	mov	rsi, QWORD PTR [rsp+64]
	mov	rdi, QWORD PTR [rsp+72]
	add	rsp, 32					; 00000020H
	pop	r14
	ret	0
Multiply_X_X_using_MULX_ADCX ENDP
_TEXT	ENDS
; Function compile flags: /Ogtpy
; File z:\sources\lunor\repos\rougemeilland\palmtree.math.core.uint\palmtree.math.core.uint\pmc_multiply.c
;	COMDAT Multiply_X_X_using_MUL_ADC
_TEXT	SEGMENT
u_buf$ = 48
u_count$ = 56
v_buf$ = 64
v_count$ = 72
w_buf$ = 80
Multiply_X_X_using_MUL_ADC PROC				; COMDAT

; 382  : {

	mov	QWORD PTR [rsp+8], rbx
	mov	QWORD PTR [rsp+16], rbp
	mov	QWORD PTR [rsp+24], rsi
	mov	QWORD PTR [rsp+32], rdi
	push	r14
	sub	rsp, 32					; 00000020H

; 383  :     // x のワード長が y のワード長以上であるようにする
; 384  :     if (u_count < v_count)
; 385  :     {
; 386  :         __UNIT_TYPE* t_buf = u_buf;
; 387  :         u_buf = v_buf;
; 388  :         v_buf = t_buf;
; 389  :         __UNIT_TYPE t_count = u_count;
; 390  :         u_count = v_count;
; 391  :         v_count = t_count;
; 392  :     }
; 393  :     __UNIT_TYPE* up = u_buf;

	mov	r14, QWORD PTR w_buf$[rsp]
	cmp	rdx, r9
	mov	rbx, rcx
	mov	rsi, r8
	cmovae	rbx, r8
	cmovae	rsi, rcx
	mov	rbp, r9
	mov	rdi, rdx
	cmovae	rbp, rdx
	sub	r14, rbx
	cmp	rdx, r9
	cmovae	rdi, r9
	npad	12
$LL4@Multiply_X:

; 394  :     __UNIT_TYPE* vp = v_buf;
; 395  :     __UNIT_TYPE* wp = w_buf;
; 396  : 
; 397  :     do
; 398  :     {
; 399  :         Multiply_WORD_using_MUL_ADC(up, u_count, *vp, wp);

	mov	r8, QWORD PTR [rbx]
	lea	r9, QWORD PTR [r14+rbx]
	mov	rdx, rbp
	mov	rcx, rsi
	call	Multiply_WORD_using_MUL_ADC

; 400  :         ++vp;

	lea	rbx, QWORD PTR [rbx+8]

; 401  :         ++wp;
; 402  :         --v_count;

	sub	rdi, 1

; 403  :     } while (v_count != 0);

	jne	SHORT $LL4@Multiply_X

; 404  : }

	mov	rbx, QWORD PTR [rsp+48]
	mov	rbp, QWORD PTR [rsp+56]
	mov	rsi, QWORD PTR [rsp+64]
	mov	rdi, QWORD PTR [rsp+72]
	add	rsp, 32					; 00000020H
	pop	r14
	ret	0
Multiply_X_X_using_MUL_ADC ENDP
_TEXT	ENDS
; Function compile flags: /Ogtpy
; File z:\sources\lunor\repos\rougemeilland\palmtree.math.core.uint\palmtree.math.core.uint\pmc_multiply.c
;	COMDAT Multiply_X_2W_using_MULX_ADCX
_TEXT	SEGMENT
u_buf$ = 48
u_count$ = 56
v_hi$ = 64
v_lo$ = 72
w_buf$ = 80
Multiply_X_2W_using_MULX_ADCX PROC			; COMDAT

; 376  : {

	mov	QWORD PTR [rsp+8], rbx
	mov	QWORD PTR [rsp+16], rbp
	mov	QWORD PTR [rsp+24], rsi
	push	rdi
	sub	rsp, 32					; 00000020H

; 377  :     Multiply_WORD_using_MULX_ADCX(u_buf, u_count, v_lo, &w_buf[0]);

	mov	rbx, QWORD PTR w_buf$[rsp]
	mov	rax, r9
	mov	rdi, r8
	mov	r9, rbx
	mov	r8, rax
	mov	rsi, rdx
	mov	rbp, rcx
	call	Multiply_WORD_using_MULX_ADCX

; 378  :     Multiply_WORD_using_MULX_ADCX(u_buf, u_count, v_hi, &w_buf[1]);

	lea	r9, QWORD PTR [rbx+8]
	mov	r8, rdi
	mov	rdx, rsi
	mov	rcx, rbp

; 379  : }

	mov	rbx, QWORD PTR [rsp+48]
	mov	rbp, QWORD PTR [rsp+56]
	mov	rsi, QWORD PTR [rsp+64]
	add	rsp, 32					; 00000020H
	pop	rdi

; 378  :     Multiply_WORD_using_MULX_ADCX(u_buf, u_count, v_hi, &w_buf[1]);

	jmp	Multiply_WORD_using_MULX_ADCX
Multiply_X_2W_using_MULX_ADCX ENDP
_TEXT	ENDS
; Function compile flags: /Ogtpy
; File z:\sources\lunor\repos\rougemeilland\palmtree.math.core.uint\palmtree.math.core.uint\pmc_multiply.c
;	COMDAT Multiply_X_2W_using_MUL_ADC
_TEXT	SEGMENT
u_buf$ = 48
u_count$ = 56
v_hi$ = 64
v_lo$ = 72
w_buf$ = 80
Multiply_X_2W_using_MUL_ADC PROC			; COMDAT

; 370  : {

	mov	QWORD PTR [rsp+8], rbx
	mov	QWORD PTR [rsp+16], rbp
	mov	QWORD PTR [rsp+24], rsi
	push	rdi
	sub	rsp, 32					; 00000020H

; 371  :     Multiply_WORD_using_MUL_ADC(u_buf, u_count, v_lo, &w_buf[0]);

	mov	rbx, QWORD PTR w_buf$[rsp]
	mov	rax, r9
	mov	rdi, r8
	mov	r9, rbx
	mov	r8, rax
	mov	rsi, rdx
	mov	rbp, rcx
	call	Multiply_WORD_using_MUL_ADC

; 372  :     Multiply_WORD_using_MUL_ADC(u_buf, u_count, v_hi, &w_buf[1]);

	lea	r9, QWORD PTR [rbx+8]
	mov	r8, rdi
	mov	rdx, rsi
	mov	rcx, rbp

; 373  : }

	mov	rbx, QWORD PTR [rsp+48]
	mov	rbp, QWORD PTR [rsp+56]
	mov	rsi, QWORD PTR [rsp+64]
	add	rsp, 32					; 00000020H
	pop	rdi

; 372  :     Multiply_WORD_using_MUL_ADC(u_buf, u_count, v_hi, &w_buf[1]);

	jmp	Multiply_WORD_using_MUL_ADC
Multiply_X_2W_using_MUL_ADC ENDP
_TEXT	ENDS
; Function compile flags: /Ogtpy
; File z:\sources\lunor\repos\rougemeilland\palmtree.math.core.uint\palmtree.math.core.uint\pmc_multiply.c
;	COMDAT Multiply_X_1W_using_MULX_ADCX
_TEXT	SEGMENT
u_buf$ = 8
u_count$ = 16
v$ = 24
w_buf$ = 32
Multiply_X_1W_using_MULX_ADCX PROC			; COMDAT

; 366  :     Multiply_WORD_using_MULX_ADCX(u_buf, u_count, v, w_buf);

	jmp	Multiply_WORD_using_MULX_ADCX
Multiply_X_1W_using_MULX_ADCX ENDP
_TEXT	ENDS
; Function compile flags: /Ogtpy
; File z:\sources\lunor\repos\rougemeilland\palmtree.math.core.uint\palmtree.math.core.uint\pmc_multiply.c
;	COMDAT Multiply_X_1W_using_MUL_ADC
_TEXT	SEGMENT
u_buf$ = 8
u_count$ = 16
v$ = 24
w_buf$ = 32
Multiply_X_1W_using_MUL_ADC PROC			; COMDAT

; 361  :     Multiply_WORD_using_MUL_ADC(u_buf, u_count, v, w_buf);

	jmp	Multiply_WORD_using_MUL_ADC
Multiply_X_1W_using_MUL_ADC ENDP
_TEXT	ENDS
; Function compile flags: /Ogtpy
; File z:\sources\lunor\repos\rougemeilland\palmtree.math.core.uint\palmtree.math.core.uint\pmc_multiply.c
; File z:\sources\lunor\repos\rougemeilland\palmtree.math.core.uint\palmtree.math.core.uint\pmc_inline_func.h
; File z:\sources\lunor\repos\rougemeilland\palmtree.math.core.uint\palmtree.math.core.uint\pmc_multiply.c
; File z:\sources\lunor\repos\rougemeilland\palmtree.math.core.uint\palmtree.math.core.uint\pmc_inline_func.h
; File z:\sources\lunor\repos\rougemeilland\palmtree.math.core.uint\palmtree.math.core.uint\pmc_multiply.c
; File z:\sources\lunor\repos\rougemeilland\palmtree.math.core.uint\palmtree.math.core.uint\pmc_inline_func.h
; File z:\sources\lunor\repos\rougemeilland\palmtree.math.core.uint\palmtree.math.core.uint\pmc_multiply.c
; File z:\sources\lunor\repos\rougemeilland\palmtree.math.core.uint\palmtree.math.core.uint\pmc_inline_func.h
; File z:\sources\lunor\repos\rougemeilland\palmtree.math.core.uint\palmtree.math.core.uint\pmc_multiply.c
; File z:\sources\lunor\repos\rougemeilland\palmtree.math.core.uint\palmtree.math.core.uint\pmc_inline_func.h
; File z:\sources\lunor\repos\rougemeilland\palmtree.math.core.uint\palmtree.math.core.uint\pmc_multiply.c
; File z:\sources\lunor\repos\rougemeilland\palmtree.math.core.uint\palmtree.math.core.uint\pmc_inline_func.h
; File z:\sources\lunor\repos\rougemeilland\palmtree.math.core.uint\palmtree.math.core.uint\pmc_multiply.c
; File z:\sources\lunor\repos\rougemeilland\palmtree.math.core.uint\palmtree.math.core.uint\pmc_inline_func.h
; File z:\sources\lunor\repos\rougemeilland\palmtree.math.core.uint\palmtree.math.core.uint\pmc_multiply.c
; File z:\sources\lunor\repos\rougemeilland\palmtree.math.core.uint\palmtree.math.core.uint\pmc_inline_func.h
; File z:\sources\lunor\repos\rougemeilland\palmtree.math.core.uint\palmtree.math.core.uint\pmc_multiply.c
; File z:\sources\lunor\repos\rougemeilland\palmtree.math.core.uint\palmtree.math.core.uint\pmc_inline_func.h
; File z:\sources\lunor\repos\rougemeilland\palmtree.math.core.uint\palmtree.math.core.uint\pmc_multiply.c
; File z:\sources\lunor\repos\rougemeilland\palmtree.math.core.uint\palmtree.math.core.uint\pmc_inline_func.h
; File z:\sources\lunor\repos\rougemeilland\palmtree.math.core.uint\palmtree.math.core.uint\pmc_multiply.c
; File z:\sources\lunor\repos\rougemeilland\palmtree.math.core.uint\palmtree.math.core.uint\pmc_inline_func.h
; File z:\sources\lunor\repos\rougemeilland\palmtree.math.core.uint\palmtree.math.core.uint\pmc_multiply.c
; File z:\sources\lunor\repos\rougemeilland\palmtree.math.core.uint\palmtree.math.core.uint\pmc_inline_func.h
; File z:\sources\lunor\repos\rougemeilland\palmtree.math.core.uint\palmtree.math.core.uint\pmc_multiply.c
; File z:\sources\lunor\repos\rougemeilland\palmtree.math.core.uint\palmtree.math.core.uint\pmc_inline_func.h
; File z:\sources\lunor\repos\rougemeilland\palmtree.math.core.uint\palmtree.math.core.uint\pmc_multiply.c
; File z:\sources\lunor\repos\rougemeilland\palmtree.math.core.uint\palmtree.math.core.uint\pmc_inline_func.h
; File z:\sources\lunor\repos\rougemeilland\palmtree.math.core.uint\palmtree.math.core.uint\pmc_multiply.c
; File z:\sources\lunor\repos\rougemeilland\palmtree.math.core.uint\palmtree.math.core.uint\pmc_inline_func.h
; File z:\sources\lunor\repos\rougemeilland\palmtree.math.core.uint\palmtree.math.core.uint\pmc_multiply.c
; File z:\sources\lunor\repos\rougemeilland\palmtree.math.core.uint\palmtree.math.core.uint\pmc_inline_func.h
; File z:\sources\lunor\repos\rougemeilland\palmtree.math.core.uint\palmtree.math.core.uint\pmc_multiply.c
; File z:\sources\lunor\repos\rougemeilland\palmtree.math.core.uint\palmtree.math.core.uint\pmc_inline_func.h
; File z:\sources\lunor\repos\rougemeilland\palmtree.math.core.uint\palmtree.math.core.uint\pmc_multiply.c
; File z:\sources\lunor\repos\rougemeilland\palmtree.math.core.uint\palmtree.math.core.uint\pmc_inline_func.h
; File z:\sources\lunor\repos\rougemeilland\palmtree.math.core.uint\palmtree.math.core.uint\pmc_multiply.c
; File z:\sources\lunor\repos\rougemeilland\palmtree.math.core.uint\palmtree.math.core.uint\pmc_inline_func.h
; File z:\sources\lunor\repos\rougemeilland\palmtree.math.core.uint\palmtree.math.core.uint\pmc_multiply.c
; File z:\sources\lunor\repos\rougemeilland\palmtree.math.core.uint\palmtree.math.core.uint\pmc_inline_func.h
; File z:\sources\lunor\repos\rougemeilland\palmtree.math.core.uint\palmtree.math.core.uint\pmc_multiply.c
; File z:\sources\lunor\repos\rougemeilland\palmtree.math.core.uint\palmtree.math.core.uint\pmc_inline_func.h
; File z:\sources\lunor\repos\rougemeilland\palmtree.math.core.uint\palmtree.math.core.uint\pmc_multiply.c
; File z:\sources\lunor\repos\rougemeilland\palmtree.math.core.uint\palmtree.math.core.uint\pmc_inline_func.h
; File z:\sources\lunor\repos\rougemeilland\palmtree.math.core.uint\palmtree.math.core.uint\pmc_multiply.c
; File z:\sources\lunor\repos\rougemeilland\palmtree.math.core.uint\palmtree.math.core.uint\pmc_inline_func.h
; File z:\sources\lunor\repos\rougemeilland\palmtree.math.core.uint\palmtree.math.core.uint\pmc_multiply.c
; File z:\sources\lunor\repos\rougemeilland\palmtree.math.core.uint\palmtree.math.core.uint\pmc_inline_func.h
; File z:\sources\lunor\repos\rougemeilland\palmtree.math.core.uint\palmtree.math.core.uint\pmc_multiply.c
; File z:\sources\lunor\repos\rougemeilland\palmtree.math.core.uint\palmtree.math.core.uint\pmc_inline_func.h
; File z:\sources\lunor\repos\rougemeilland\palmtree.math.core.uint\palmtree.math.core.uint\pmc_multiply.c
; File z:\sources\lunor\repos\rougemeilland\palmtree.math.core.uint\palmtree.math.core.uint\pmc_inline_func.h
; File z:\sources\lunor\repos\rougemeilland\palmtree.math.core.uint\palmtree.math.core.uint\pmc_multiply.c
; File z:\sources\lunor\repos\rougemeilland\palmtree.math.core.uint\palmtree.math.core.uint\pmc_inline_func.h
; File z:\sources\lunor\repos\rougemeilland\palmtree.math.core.uint\palmtree.math.core.uint\pmc_multiply.c
; File z:\sources\lunor\repos\rougemeilland\palmtree.math.core.uint\palmtree.math.core.uint\pmc_inline_func.h
; File z:\sources\lunor\repos\rougemeilland\palmtree.math.core.uint\palmtree.math.core.uint\pmc_multiply.c
; File z:\sources\lunor\repos\rougemeilland\palmtree.math.core.uint\palmtree.math.core.uint\pmc_inline_func.h
; File z:\sources\lunor\repos\rougemeilland\palmtree.math.core.uint\palmtree.math.core.uint\pmc_multiply.c
; File z:\sources\lunor\repos\rougemeilland\palmtree.math.core.uint\palmtree.math.core.uint\pmc_inline_func.h
; File z:\sources\lunor\repos\rougemeilland\palmtree.math.core.uint\palmtree.math.core.uint\pmc_multiply.c
; File z:\sources\lunor\repos\rougemeilland\palmtree.math.core.uint\palmtree.math.core.uint\pmc_inline_func.h
; File z:\sources\lunor\repos\rougemeilland\palmtree.math.core.uint\palmtree.math.core.uint\pmc_multiply.c
; File z:\sources\lunor\repos\rougemeilland\palmtree.math.core.uint\palmtree.math.core.uint\pmc_inline_func.h
; File z:\sources\lunor\repos\rougemeilland\palmtree.math.core.uint\palmtree.math.core.uint\pmc_uint_internal.h
; File z:\sources\lunor\repos\rougemeilland\palmtree.math.core.uint\palmtree.math.core.uint\pmc_inline_func.h
; File z:\sources\lunor\repos\rougemeilland\palmtree.math.core.uint\palmtree.math.core.uint\pmc_multiply.c
; File z:\sources\lunor\repos\rougemeilland\palmtree.math.core.uint\palmtree.math.core.uint\pmc_inline_func.h
; File z:\sources\lunor\repos\rougemeilland\palmtree.math.core.uint\palmtree.math.core.uint\pmc_multiply.c
; File z:\sources\lunor\repos\rougemeilland\palmtree.math.core.uint\palmtree.math.core.uint\pmc_inline_func.h
; File z:\sources\lunor\repos\rougemeilland\palmtree.math.core.uint\palmtree.math.core.uint\pmc_multiply.c
; File z:\sources\lunor\repos\rougemeilland\palmtree.math.core.uint\palmtree.math.core.uint\pmc_inline_func.h
; File z:\sources\lunor\repos\rougemeilland\palmtree.math.core.uint\palmtree.math.core.uint\pmc_uint_internal.h
; File z:\sources\lunor\repos\rougemeilland\palmtree.math.core.uint\palmtree.math.core.uint\pmc_multiply.c
; File z:\sources\lunor\repos\rougemeilland\palmtree.math.core.uint\palmtree.math.core.uint\pmc_inline_func.h
; File z:\sources\lunor\repos\rougemeilland\palmtree.math.core.uint\palmtree.math.core.uint\pmc_multiply.c
; File z:\sources\lunor\repos\rougemeilland\palmtree.math.core.uint\palmtree.math.core.uint\pmc_inline_func.h
; File z:\sources\lunor\repos\rougemeilland\palmtree.math.core.uint\palmtree.math.core.uint\pmc_multiply.c
; File z:\sources\lunor\repos\rougemeilland\palmtree.math.core.uint\palmtree.math.core.uint\pmc_inline_func.h
; File z:\sources\lunor\repos\rougemeilland\palmtree.math.core.uint\palmtree.math.core.uint\pmc_multiply.c
; File z:\sources\lunor\repos\rougemeilland\palmtree.math.core.uint\palmtree.math.core.uint\pmc_inline_func.h
; File z:\sources\lunor\repos\rougemeilland\palmtree.math.core.uint\palmtree.math.core.uint\pmc_multiply.c
; File z:\sources\lunor\repos\rougemeilland\palmtree.math.core.uint\palmtree.math.core.uint\pmc_inline_func.h
; File z:\sources\lunor\repos\rougemeilland\palmtree.math.core.uint\palmtree.math.core.uint\pmc_multiply.c
; File z:\sources\lunor\repos\rougemeilland\palmtree.math.core.uint\palmtree.math.core.uint\pmc_inline_func.h
; File z:\sources\lunor\repos\rougemeilland\palmtree.math.core.uint\palmtree.math.core.uint\pmc_multiply.c
; File z:\sources\lunor\repos\rougemeilland\palmtree.math.core.uint\palmtree.math.core.uint\pmc_inline_func.h
; File z:\sources\lunor\repos\rougemeilland\palmtree.math.core.uint\palmtree.math.core.uint\pmc_multiply.c
; File z:\sources\lunor\repos\rougemeilland\palmtree.math.core.uint\palmtree.math.core.uint\pmc_inline_func.h
; File z:\sources\lunor\repos\rougemeilland\palmtree.math.core.uint\palmtree.math.core.uint\pmc_multiply.c
; File z:\sources\lunor\repos\rougemeilland\palmtree.math.core.uint\palmtree.math.core.uint\pmc_inline_func.h
; File z:\sources\lunor\repos\rougemeilland\palmtree.math.core.uint\palmtree.math.core.uint\pmc_multiply.c
; File z:\sources\lunor\repos\rougemeilland\palmtree.math.core.uint\palmtree.math.core.uint\pmc_inline_func.h
; File z:\sources\lunor\repos\rougemeilland\palmtree.math.core.uint\palmtree.math.core.uint\pmc_multiply.c
; File z:\sources\lunor\repos\rougemeilland\palmtree.math.core.uint\palmtree.math.core.uint\pmc_inline_func.h
; File z:\sources\lunor\repos\rougemeilland\palmtree.math.core.uint\palmtree.math.core.uint\pmc_multiply.c
; File z:\sources\lunor\repos\rougemeilland\palmtree.math.core.uint\palmtree.math.core.uint\pmc_inline_func.h
; File z:\sources\lunor\repos\rougemeilland\palmtree.math.core.uint\palmtree.math.core.uint\pmc_multiply.c
; File z:\sources\lunor\repos\rougemeilland\palmtree.math.core.uint\palmtree.math.core.uint\pmc_inline_func.h
; File z:\sources\lunor\repos\rougemeilland\palmtree.math.core.uint\palmtree.math.core.uint\pmc_multiply.c
; File z:\sources\lunor\repos\rougemeilland\palmtree.math.core.uint\palmtree.math.core.uint\pmc_inline_func.h
; File z:\sources\lunor\repos\rougemeilland\palmtree.math.core.uint\palmtree.math.core.uint\pmc_multiply.c
; File z:\sources\lunor\repos\rougemeilland\palmtree.math.core.uint\palmtree.math.core.uint\pmc_inline_func.h
; File z:\sources\lunor\repos\rougemeilland\palmtree.math.core.uint\palmtree.math.core.uint\pmc_multiply.c
; File z:\sources\lunor\repos\rougemeilland\palmtree.math.core.uint\palmtree.math.core.uint\pmc_inline_func.h
; File z:\sources\lunor\repos\rougemeilland\palmtree.math.core.uint\palmtree.math.core.uint\pmc_uint_internal.h
; File z:\sources\lunor\repos\rougemeilland\palmtree.math.core.uint\palmtree.math.core.uint\pmc_inline_func.h
; File z:\sources\lunor\repos\rougemeilland\palmtree.math.core.uint\palmtree.math.core.uint\pmc_multiply.c
; File z:\sources\lunor\repos\rougemeilland\palmtree.math.core.uint\palmtree.math.core.uint\pmc_inline_func.h
; File z:\sources\lunor\repos\rougemeilland\palmtree.math.core.uint\palmtree.math.core.uint\pmc_multiply.c
; File z:\sources\lunor\repos\rougemeilland\palmtree.math.core.uint\palmtree.math.core.uint\pmc_inline_func.h
; File z:\sources\lunor\repos\rougemeilland\palmtree.math.core.uint\palmtree.math.core.uint\pmc_multiply.c
; File z:\sources\lunor\repos\rougemeilland\palmtree.math.core.uint\palmtree.math.core.uint\pmc_inline_func.h
; File z:\sources\lunor\repos\rougemeilland\palmtree.math.core.uint\palmtree.math.core.uint\pmc_uint_internal.h
; File z:\sources\lunor\repos\rougemeilland\palmtree.math.core.uint\palmtree.math.core.uint\pmc_multiply.c
; File z:\sources\lunor\repos\rougemeilland\palmtree.math.core.uint\palmtree.math.core.uint\pmc_inline_func.h
; File z:\sources\lunor\repos\rougemeilland\palmtree.math.core.uint\palmtree.math.core.uint\pmc_multiply.c
; File z:\sources\lunor\repos\rougemeilland\palmtree.math.core.uint\palmtree.math.core.uint\pmc_inline_func.h
; File z:\sources\lunor\repos\rougemeilland\palmtree.math.core.uint\palmtree.math.core.uint\pmc_multiply.c
; File z:\sources\lunor\repos\rougemeilland\palmtree.math.core.uint\palmtree.math.core.uint\pmc_inline_func.h
; File z:\sources\lunor\repos\rougemeilland\palmtree.math.core.uint\palmtree.math.core.uint\pmc_multiply.c
; File z:\sources\lunor\repos\rougemeilland\palmtree.math.core.uint\palmtree.math.core.uint\pmc_inline_func.h
; File z:\sources\lunor\repos\rougemeilland\palmtree.math.core.uint\palmtree.math.core.uint\pmc_multiply.c
; File z:\sources\lunor\repos\rougemeilland\palmtree.math.core.uint\palmtree.math.core.uint\pmc_inline_func.h
; File z:\sources\lunor\repos\rougemeilland\palmtree.math.core.uint\palmtree.math.core.uint\pmc_multiply.c
; File z:\sources\lunor\repos\rougemeilland\palmtree.math.core.uint\palmtree.math.core.uint\pmc_inline_func.h
; File z:\sources\lunor\repos\rougemeilland\palmtree.math.core.uint\palmtree.math.core.uint\pmc_multiply.c
; File z:\sources\lunor\repos\rougemeilland\palmtree.math.core.uint\palmtree.math.core.uint\pmc_inline_func.h
; File z:\sources\lunor\repos\rougemeilland\palmtree.math.core.uint\palmtree.math.core.uint\pmc_multiply.c
; File z:\sources\lunor\repos\rougemeilland\palmtree.math.core.uint\palmtree.math.core.uint\pmc_inline_func.h
; File z:\sources\lunor\repos\rougemeilland\palmtree.math.core.uint\palmtree.math.core.uint\pmc_uint_internal.h
; File z:\sources\lunor\repos\rougemeilland\palmtree.math.core.uint\palmtree.math.core.uint\pmc_inline_func.h
; File z:\sources\lunor\repos\rougemeilland\palmtree.math.core.uint\palmtree.math.core.uint\pmc_multiply.c
; File z:\sources\lunor\repos\rougemeilland\palmtree.math.core.uint\palmtree.math.core.uint\pmc_inline_func.h
; File z:\sources\lunor\repos\rougemeilland\palmtree.math.core.uint\palmtree.math.core.uint\pmc_multiply.c
; File z:\sources\lunor\repos\rougemeilland\palmtree.math.core.uint\palmtree.math.core.uint\pmc_inline_func.h
; File z:\sources\lunor\repos\rougemeilland\palmtree.math.core.uint\palmtree.math.core.uint\pmc_multiply.c
; File z:\sources\lunor\repos\rougemeilland\palmtree.math.core.uint\palmtree.math.core.uint\pmc_inline_func.h
; File z:\sources\lunor\repos\rougemeilland\palmtree.math.core.uint\palmtree.math.core.uint\pmc_uint_internal.h
; File z:\sources\lunor\repos\rougemeilland\palmtree.math.core.uint\palmtree.math.core.uint\pmc_multiply.c
; File z:\sources\lunor\repos\rougemeilland\palmtree.math.core.uint\palmtree.math.core.uint\pmc_inline_func.h
; File z:\sources\lunor\repos\rougemeilland\palmtree.math.core.uint\palmtree.math.core.uint\pmc_multiply.c
; File z:\sources\lunor\repos\rougemeilland\palmtree.math.core.uint\palmtree.math.core.uint\pmc_inline_func.h
; File z:\sources\lunor\repos\rougemeilland\palmtree.math.core.uint\palmtree.math.core.uint\pmc_multiply.c
; File z:\sources\lunor\repos\rougemeilland\palmtree.math.core.uint\palmtree.math.core.uint\pmc_inline_func.h
; File z:\sources\lunor\repos\rougemeilland\palmtree.math.core.uint\palmtree.math.core.uint\pmc_multiply.c
; File z:\sources\lunor\repos\rougemeilland\palmtree.math.core.uint\palmtree.math.core.uint\pmc_inline_func.h
; File z:\sources\lunor\repos\rougemeilland\palmtree.math.core.uint\palmtree.math.core.uint\pmc_uint_internal.h
; File z:\sources\lunor\repos\rougemeilland\palmtree.math.core.uint\palmtree.math.core.uint\pmc_inline_func.h
; File z:\sources\lunor\repos\rougemeilland\palmtree.math.core.uint\palmtree.math.core.uint\pmc_multiply.c
; File z:\sources\lunor\repos\rougemeilland\palmtree.math.core.uint\palmtree.math.core.uint\pmc_inline_func.h
; File z:\sources\lunor\repos\rougemeilland\palmtree.math.core.uint\palmtree.math.core.uint\pmc_multiply.c
; File z:\sources\lunor\repos\rougemeilland\palmtree.math.core.uint\palmtree.math.core.uint\pmc_inline_func.h
; File z:\sources\lunor\repos\rougemeilland\palmtree.math.core.uint\palmtree.math.core.uint\pmc_multiply.c
; File z:\sources\lunor\repos\rougemeilland\palmtree.math.core.uint\palmtree.math.core.uint\pmc_inline_func.h
; File z:\sources\lunor\repos\rougemeilland\palmtree.math.core.uint\palmtree.math.core.uint\pmc_uint_internal.h
; File z:\sources\lunor\repos\rougemeilland\palmtree.math.core.uint\palmtree.math.core.uint\pmc_multiply.c
; File z:\sources\lunor\repos\rougemeilland\palmtree.math.core.uint\palmtree.math.core.uint\pmc_inline_func.h
; File z:\sources\lunor\repos\rougemeilland\palmtree.math.core.uint\palmtree.math.core.uint\pmc_multiply.c
; File z:\sources\lunor\repos\rougemeilland\palmtree.math.core.uint\palmtree.math.core.uint\pmc_inline_func.h
; File z:\sources\lunor\repos\rougemeilland\palmtree.math.core.uint\palmtree.math.core.uint\pmc_uint_internal.h
; File z:\sources\lunor\repos\rougemeilland\palmtree.math.core.uint\palmtree.math.core.uint\pmc_inline_func.h
; File z:\sources\lunor\repos\rougemeilland\palmtree.math.core.uint\palmtree.math.core.uint\pmc_multiply.c
; File z:\sources\lunor\repos\rougemeilland\palmtree.math.core.uint\palmtree.math.core.uint\pmc_inline_func.h
; File z:\sources\lunor\repos\rougemeilland\palmtree.math.core.uint\palmtree.math.core.uint\pmc_multiply.c
; File z:\sources\lunor\repos\rougemeilland\palmtree.math.core.uint\palmtree.math.core.uint\pmc_inline_func.h
; File z:\sources\lunor\repos\rougemeilland\palmtree.math.core.uint\palmtree.math.core.uint\pmc_multiply.c
; File z:\sources\lunor\repos\rougemeilland\palmtree.math.core.uint\palmtree.math.core.uint\pmc_inline_func.h
; File z:\sources\lunor\repos\rougemeilland\palmtree.math.core.uint\palmtree.math.core.uint\pmc_uint_internal.h
; File z:\sources\lunor\repos\rougemeilland\palmtree.math.core.uint\palmtree.math.core.uint\pmc_multiply.c
; File z:\sources\lunor\repos\rougemeilland\palmtree.math.core.uint\palmtree.math.core.uint\pmc_inline_func.h
; File z:\sources\lunor\repos\rougemeilland\palmtree.math.core.uint\palmtree.math.core.uint\pmc_multiply.c
; File z:\sources\lunor\repos\rougemeilland\palmtree.math.core.uint\palmtree.math.core.uint\pmc_inline_func.h
; File z:\sources\lunor\repos\rougemeilland\palmtree.math.core.uint\palmtree.math.core.uint\pmc_multiply.c
; File z:\sources\lunor\repos\rougemeilland\palmtree.math.core.uint\palmtree.math.core.uint\pmc_inline_func.h
; File z:\sources\lunor\repos\rougemeilland\palmtree.math.core.uint\palmtree.math.core.uint\pmc_uint_internal.h
; File z:\sources\lunor\repos\rougemeilland\palmtree.math.core.uint\palmtree.math.core.uint\pmc_multiply.c
;	COMDAT Multiply_WORD_using_MULX_ADCX
_TEXT	SEGMENT
t_hi$1 = 0
t_lo$2 = 8
t_hi$3 = 16
t_lo$4 = 24
t_hi$5 = 32
t_lo$6 = 40
t_hi$7 = 48
t_lo$8 = 56
t_hi$9 = 64
t_lo$10 = 72
t_hi$11 = 80
t_lo$12 = 88
t_hi$13 = 96
t_lo$14 = 104
t_hi$15 = 112
t_lo$16 = 120
t_hi$17 = 128
t_lo$18 = 136
t_hi$19 = 144
t_lo$20 = 152
t_hi$21 = 160
t_lo$22 = 168
t_hi$23 = 176
t_lo$24 = 184
t_hi$25 = 192
t_lo$26 = 200
t_hi$27 = 208
t_lo$28 = 216
t_hi$29 = 224
t_lo$30 = 232
t_hi$31 = 240
t_lo$32 = 248
t_hi$33 = 256
t_lo$34 = 264
t_hi$35 = 272
t_lo$36 = 280
t_hi$37 = 288
t_lo$38 = 296
t_hi$39 = 304
t_lo$40 = 312
t_hi$41 = 320
t_lo$42 = 328
t_hi$43 = 336
t_lo$44 = 344
t_hi$45 = 352
t_lo$46 = 360
t_hi$47 = 368
t_lo$48 = 376
t_hi$49 = 384
t_lo$50 = 392
t_hi$51 = 400
t_lo$52 = 408
t_hi$53 = 416
t_lo$54 = 424
t_hi$55 = 432
t_lo$56 = 440
t_hi$57 = 448
t_lo$58 = 456
t_hi$59 = 464
t_lo$60 = 472
t_hi$61 = 480
t_lo$62 = 488
t_hi$63 = 496
t_lo$64 = 504
t_hi$65 = 512
t_lo$66 = 520
t_hi$67 = 528
t_lo$68 = 536
t_hi$69 = 544
t_lo$70 = 552
t_hi$71 = 560
t_lo$72 = 568
t_hi$73 = 576
t_lo$74 = 584
t_hi$75 = 592
t_lo$76 = 600
t_hi$77 = 608
t_lo$78 = 616
t_hi$79 = 624
t_lo$80 = 632
t_hi$81 = 640
t_lo$82 = 648
t_hi$83 = 656
t_lo$84 = 664
t_hi$85 = 672
t_lo$86 = 680
t_hi$87 = 688
t_lo$88 = 696
t_hi$89 = 704
t_lo$90 = 712
t_hi$91 = 720
t_lo$92 = 728
t_hi$93 = 736
t_lo$94 = 744
t_hi$95 = 752
t_lo$96 = 760
t_hi$97 = 768
t_lo$98 = 776
t_hi$99 = 784
t_lo$100 = 792
t_hi$101 = 800
t_lo$102 = 808
t_hi$103 = 816
t_lo$104 = 824
t_hi$105 = 832
t_lo$106 = 840
t_hi$107 = 848
t_lo$108 = 856
t_hi$109 = 864
t_lo$110 = 872
t_hi$111 = 880
t_lo$112 = 888
t_hi$113 = 896
t_lo$114 = 904
t_hi$115 = 912
t_lo$116 = 920
t_hi$117 = 928
t_lo$118 = 936
t_hi$119 = 944
t_lo$120 = 952
t_hi$121 = 960
t_lo$122 = 968
t_hi$123 = 976
t_lo$124 = 984
t_hi$125 = 992
up$ = 1040
t_lo$126 = 1048
u_count$ = 1048
v$ = 1056
wp$ = 1064
Multiply_WORD_using_MULX_ADCX PROC			; COMDAT

; 212  : {

	mov	QWORD PTR [rsp+8], rbx
	mov	QWORD PTR [rsp+24], rsi
	push	rbp
	push	rdi
	push	r14
	lea	rbp, QWORD PTR [rsp-752]
	sub	rsp, 1008				; 000003f0H

; 213  :     __UNIT_TYPE k = 0;

	xor	r14d, r14d

; 214  :     __UNIT_TYPE count = u_count >> 5;

	mov	rsi, rdx
	shr	rsi, 5
	mov	rbx, r8
	mov	rdi, rdx
	mov	r11, rcx
	mov	r10d, r14d

; 216  :     while (count != 0)

	test	rsi, rsi
	je	$LN3@Multiply_W
	npad	4
$LL2@Multiply_W:

; 56   :     t_lo = _MULTIPLYX_UNIT(*up, v, &t_hi);

	mov	rax, QWORD PTR [r11]
; File z:\sources\lunor\repos\rougemeilland\palmtree.math.core.uint\palmtree.math.core.uint\pmc_inline_func.h

; 333  :         return (_mulx_u64(u, v, w_hi));

	mov	rdx, rbx
	mulx	r8, rcx, rax

; 238  :         return (_addcarryx_u64(carry, u, v, w));

	add	rcx, QWORD PTR [r9]
	adcx	r8, r14
	add	rcx, r10
; File z:\sources\lunor\repos\rougemeilland\palmtree.math.core.uint\palmtree.math.core.uint\pmc_multiply.c

; 59   :     *wp = t_lo;

	mov	QWORD PTR [r9], rcx

; 56   :     t_lo = _MULTIPLYX_UNIT(*up, v, &t_hi);

	mov	rax, QWORD PTR [r11+8]
; File z:\sources\lunor\repos\rougemeilland\palmtree.math.core.uint\palmtree.math.core.uint\pmc_inline_func.h

; 238  :         return (_addcarryx_u64(carry, u, v, w));

	adcx	r8, r14
	mov	QWORD PTR t_lo$126[rbp-256], rcx
	mov	QWORD PTR t_hi$1[rsp], r8

; 333  :         return (_mulx_u64(u, v, w_hi));

	mulx	r10, rcx, rax

; 238  :         return (_addcarryx_u64(carry, u, v, w));

	add	rcx, QWORD PTR [r9+8]
	adcx	r10, r14
	add	rcx, r8
; File z:\sources\lunor\repos\rougemeilland\palmtree.math.core.uint\palmtree.math.core.uint\pmc_multiply.c

; 59   :     *wp = t_lo;

	mov	QWORD PTR [r9+8], rcx

; 56   :     t_lo = _MULTIPLYX_UNIT(*up, v, &t_hi);

	mov	rax, QWORD PTR [r11+16]
; File z:\sources\lunor\repos\rougemeilland\palmtree.math.core.uint\palmtree.math.core.uint\pmc_inline_func.h

; 238  :         return (_addcarryx_u64(carry, u, v, w));

	adcx	r10, r14
	mov	QWORD PTR t_lo$2[rsp], rcx
	mov	QWORD PTR t_hi$3[rsp], r10

; 333  :         return (_mulx_u64(u, v, w_hi));

	mulx	r8, rcx, rax

; 238  :         return (_addcarryx_u64(carry, u, v, w));

	add	rcx, QWORD PTR [r9+16]
	adcx	r8, r14
	add	rcx, r10
; File z:\sources\lunor\repos\rougemeilland\palmtree.math.core.uint\palmtree.math.core.uint\pmc_multiply.c

; 59   :     *wp = t_lo;

	mov	QWORD PTR [r9+16], rcx

; 56   :     t_lo = _MULTIPLYX_UNIT(*up, v, &t_hi);

	mov	rax, QWORD PTR [r11+24]
; File z:\sources\lunor\repos\rougemeilland\palmtree.math.core.uint\palmtree.math.core.uint\pmc_inline_func.h

; 238  :         return (_addcarryx_u64(carry, u, v, w));

	adcx	r8, r14
	mov	QWORD PTR t_lo$4[rsp], rcx
	mov	QWORD PTR t_hi$5[rsp], r8

; 333  :         return (_mulx_u64(u, v, w_hi));

	mulx	r10, rcx, rax

; 238  :         return (_addcarryx_u64(carry, u, v, w));

	add	rcx, QWORD PTR [r9+24]
	adcx	r10, r14
	add	rcx, r8
; File z:\sources\lunor\repos\rougemeilland\palmtree.math.core.uint\palmtree.math.core.uint\pmc_multiply.c

; 59   :     *wp = t_lo;

	mov	QWORD PTR [r9+24], rcx

; 56   :     t_lo = _MULTIPLYX_UNIT(*up, v, &t_hi);

	mov	rax, QWORD PTR [r11+32]
; File z:\sources\lunor\repos\rougemeilland\palmtree.math.core.uint\palmtree.math.core.uint\pmc_inline_func.h

; 238  :         return (_addcarryx_u64(carry, u, v, w));

	adcx	r10, r14
	mov	QWORD PTR t_lo$6[rsp], rcx

; 333  :         return (_mulx_u64(u, v, w_hi));

	mulx	r8, rcx, rax

; 238  :         return (_addcarryx_u64(carry, u, v, w));

	add	rcx, QWORD PTR [r9+32]
	mov	QWORD PTR t_hi$7[rsp], r10
	adcx	r8, r14
	add	rcx, r10
; File z:\sources\lunor\repos\rougemeilland\palmtree.math.core.uint\palmtree.math.core.uint\pmc_multiply.c

; 59   :     *wp = t_lo;

	mov	QWORD PTR [r9+32], rcx

; 56   :     t_lo = _MULTIPLYX_UNIT(*up, v, &t_hi);

	mov	rax, QWORD PTR [r11+40]
; File z:\sources\lunor\repos\rougemeilland\palmtree.math.core.uint\palmtree.math.core.uint\pmc_inline_func.h

; 238  :         return (_addcarryx_u64(carry, u, v, w));

	adcx	r8, r14
	mov	QWORD PTR t_lo$8[rsp], rcx
	mov	QWORD PTR t_hi$9[rsp], r8

; 333  :         return (_mulx_u64(u, v, w_hi));

	mulx	r10, rcx, rax

; 238  :         return (_addcarryx_u64(carry, u, v, w));

	add	rcx, QWORD PTR [r9+40]
	adcx	r10, r14
	add	rcx, r8
; File z:\sources\lunor\repos\rougemeilland\palmtree.math.core.uint\palmtree.math.core.uint\pmc_multiply.c

; 59   :     *wp = t_lo;

	mov	QWORD PTR [r9+40], rcx

; 56   :     t_lo = _MULTIPLYX_UNIT(*up, v, &t_hi);

	mov	rax, QWORD PTR [r11+48]
; File z:\sources\lunor\repos\rougemeilland\palmtree.math.core.uint\palmtree.math.core.uint\pmc_inline_func.h

; 238  :         return (_addcarryx_u64(carry, u, v, w));

	adcx	r10, r14
	mov	QWORD PTR t_lo$10[rsp], rcx

; 333  :         return (_mulx_u64(u, v, w_hi));

	mulx	r8, rcx, rax

; 238  :         return (_addcarryx_u64(carry, u, v, w));

	add	rcx, QWORD PTR [r9+48]
	mov	QWORD PTR t_hi$11[rsp], r10
	adcx	r8, r14
	add	rcx, r10
; File z:\sources\lunor\repos\rougemeilland\palmtree.math.core.uint\palmtree.math.core.uint\pmc_multiply.c

; 59   :     *wp = t_lo;

	mov	QWORD PTR [r9+48], rcx

; 56   :     t_lo = _MULTIPLYX_UNIT(*up, v, &t_hi);

	mov	rax, QWORD PTR [r11+56]
; File z:\sources\lunor\repos\rougemeilland\palmtree.math.core.uint\palmtree.math.core.uint\pmc_inline_func.h

; 238  :         return (_addcarryx_u64(carry, u, v, w));

	adcx	r8, r14
	mov	QWORD PTR t_lo$12[rsp], rcx

; 333  :         return (_mulx_u64(u, v, w_hi));

	mulx	r10, rcx, rax

; 238  :         return (_addcarryx_u64(carry, u, v, w));

	add	rcx, QWORD PTR [r9+56]
	mov	QWORD PTR t_hi$13[rsp], r8
	adcx	r10, r14
	add	rcx, r8
; File z:\sources\lunor\repos\rougemeilland\palmtree.math.core.uint\palmtree.math.core.uint\pmc_multiply.c

; 59   :     *wp = t_lo;

	mov	QWORD PTR [r9+56], rcx

; 56   :     t_lo = _MULTIPLYX_UNIT(*up, v, &t_hi);

	mov	rax, QWORD PTR [r11+64]
; File z:\sources\lunor\repos\rougemeilland\palmtree.math.core.uint\palmtree.math.core.uint\pmc_inline_func.h

; 238  :         return (_addcarryx_u64(carry, u, v, w));

	adcx	r10, r14
	mov	QWORD PTR t_lo$14[rsp], rcx

; 333  :         return (_mulx_u64(u, v, w_hi));

	mulx	r8, rcx, rax

; 238  :         return (_addcarryx_u64(carry, u, v, w));

	add	rcx, QWORD PTR [r9+64]
	mov	QWORD PTR t_hi$15[rsp], r10
	adcx	r8, r14
	add	rcx, r10
	mov	QWORD PTR t_lo$16[rsp], rcx
	adcx	r8, r14
	mov	QWORD PTR t_hi$17[rbp-256], r8
; File z:\sources\lunor\repos\rougemeilland\palmtree.math.core.uint\palmtree.math.core.uint\pmc_multiply.c

; 59   :     *wp = t_lo;

	mov	QWORD PTR [r9+64], rcx

; 56   :     t_lo = _MULTIPLYX_UNIT(*up, v, &t_hi);

	mov	rax, QWORD PTR [r11+72]
; File z:\sources\lunor\repos\rougemeilland\palmtree.math.core.uint\palmtree.math.core.uint\pmc_inline_func.h

; 333  :         return (_mulx_u64(u, v, w_hi));

	mulx	r10, rcx, rax

; 238  :         return (_addcarryx_u64(carry, u, v, w));

	add	rcx, QWORD PTR [r9+72]
	adcx	r10, r14
	add	rcx, r8
; File z:\sources\lunor\repos\rougemeilland\palmtree.math.core.uint\palmtree.math.core.uint\pmc_multiply.c

; 59   :     *wp = t_lo;

	mov	QWORD PTR [r9+72], rcx

; 56   :     t_lo = _MULTIPLYX_UNIT(*up, v, &t_hi);

	mov	rax, QWORD PTR [r11+80]
; File z:\sources\lunor\repos\rougemeilland\palmtree.math.core.uint\palmtree.math.core.uint\pmc_inline_func.h

; 238  :         return (_addcarryx_u64(carry, u, v, w));

	adcx	r10, r14
	mov	QWORD PTR t_lo$18[rbp-256], rcx
	mov	QWORD PTR t_hi$19[rbp-256], r10

; 333  :         return (_mulx_u64(u, v, w_hi));

	mulx	r8, rcx, rax

; 238  :         return (_addcarryx_u64(carry, u, v, w));

	add	rcx, QWORD PTR [r9+80]
	adcx	r8, r14
	add	rcx, r10
; File z:\sources\lunor\repos\rougemeilland\palmtree.math.core.uint\palmtree.math.core.uint\pmc_multiply.c

; 59   :     *wp = t_lo;

	mov	QWORD PTR [r9+80], rcx

; 56   :     t_lo = _MULTIPLYX_UNIT(*up, v, &t_hi);

	mov	rax, QWORD PTR [r11+88]
; File z:\sources\lunor\repos\rougemeilland\palmtree.math.core.uint\palmtree.math.core.uint\pmc_inline_func.h

; 238  :         return (_addcarryx_u64(carry, u, v, w));

	adcx	r8, r14
	mov	QWORD PTR t_lo$20[rbp-256], rcx
	mov	QWORD PTR t_hi$21[rbp-256], r8

; 333  :         return (_mulx_u64(u, v, w_hi));

	mulx	r10, rcx, rax

; 238  :         return (_addcarryx_u64(carry, u, v, w));

	add	rcx, QWORD PTR [r9+88]
	adcx	r10, r14
	add	rcx, r8
; File z:\sources\lunor\repos\rougemeilland\palmtree.math.core.uint\palmtree.math.core.uint\pmc_multiply.c

; 59   :     *wp = t_lo;

	mov	QWORD PTR [r9+88], rcx

; 56   :     t_lo = _MULTIPLYX_UNIT(*up, v, &t_hi);

	mov	rax, QWORD PTR [r11+96]
; File z:\sources\lunor\repos\rougemeilland\palmtree.math.core.uint\palmtree.math.core.uint\pmc_inline_func.h

; 238  :         return (_addcarryx_u64(carry, u, v, w));

	adcx	r10, r14
	mov	QWORD PTR t_lo$22[rbp-256], rcx
	mov	QWORD PTR t_hi$23[rbp-256], r10

; 333  :         return (_mulx_u64(u, v, w_hi));

	mulx	r8, rcx, rax

; 238  :         return (_addcarryx_u64(carry, u, v, w));

	add	rcx, QWORD PTR [r9+96]
	adcx	r8, r14
	add	rcx, r10
; File z:\sources\lunor\repos\rougemeilland\palmtree.math.core.uint\palmtree.math.core.uint\pmc_multiply.c

; 59   :     *wp = t_lo;

	mov	QWORD PTR [r9+96], rcx

; 56   :     t_lo = _MULTIPLYX_UNIT(*up, v, &t_hi);

	mov	rax, QWORD PTR [r11+104]
; File z:\sources\lunor\repos\rougemeilland\palmtree.math.core.uint\palmtree.math.core.uint\pmc_inline_func.h

; 238  :         return (_addcarryx_u64(carry, u, v, w));

	adcx	r8, r14
	mov	QWORD PTR t_lo$24[rbp-256], rcx

; 333  :         return (_mulx_u64(u, v, w_hi));

	mulx	r10, rcx, rax

; 238  :         return (_addcarryx_u64(carry, u, v, w));

	add	rcx, QWORD PTR [r9+104]
	mov	QWORD PTR t_hi$25[rbp-256], r8
	adcx	r10, r14
	add	rcx, r8
; File z:\sources\lunor\repos\rougemeilland\palmtree.math.core.uint\palmtree.math.core.uint\pmc_multiply.c

; 59   :     *wp = t_lo;

	mov	QWORD PTR [r9+104], rcx

; 56   :     t_lo = _MULTIPLYX_UNIT(*up, v, &t_hi);

	mov	rax, QWORD PTR [r11+112]
; File z:\sources\lunor\repos\rougemeilland\palmtree.math.core.uint\palmtree.math.core.uint\pmc_inline_func.h

; 238  :         return (_addcarryx_u64(carry, u, v, w));

	adcx	r10, r14
	mov	QWORD PTR t_lo$26[rbp-256], rcx
	mov	QWORD PTR t_hi$27[rbp-256], r10

; 333  :         return (_mulx_u64(u, v, w_hi));

	mulx	r8, rcx, rax

; 238  :         return (_addcarryx_u64(carry, u, v, w));

	add	rcx, QWORD PTR [r9+112]
	adcx	r8, r14
	add	rcx, r10
; File z:\sources\lunor\repos\rougemeilland\palmtree.math.core.uint\palmtree.math.core.uint\pmc_multiply.c

; 59   :     *wp = t_lo;

	mov	QWORD PTR [r9+112], rcx

; 56   :     t_lo = _MULTIPLYX_UNIT(*up, v, &t_hi);

	mov	rax, QWORD PTR [r11+120]
; File z:\sources\lunor\repos\rougemeilland\palmtree.math.core.uint\palmtree.math.core.uint\pmc_inline_func.h

; 238  :         return (_addcarryx_u64(carry, u, v, w));

	adcx	r8, r14
	mov	QWORD PTR t_lo$28[rbp-256], rcx

; 333  :         return (_mulx_u64(u, v, w_hi));

	mulx	r10, rcx, rax

; 238  :         return (_addcarryx_u64(carry, u, v, w));

	add	rcx, QWORD PTR [r9+120]
	mov	QWORD PTR t_hi$29[rbp-256], r8
	adcx	r10, r14
	add	rcx, r8
; File z:\sources\lunor\repos\rougemeilland\palmtree.math.core.uint\palmtree.math.core.uint\pmc_multiply.c

; 59   :     *wp = t_lo;

	mov	QWORD PTR [r9+120], rcx

; 56   :     t_lo = _MULTIPLYX_UNIT(*up, v, &t_hi);

	mov	rax, QWORD PTR [r11+128]
; File z:\sources\lunor\repos\rougemeilland\palmtree.math.core.uint\palmtree.math.core.uint\pmc_inline_func.h

; 238  :         return (_addcarryx_u64(carry, u, v, w));

	adcx	r10, r14
	mov	QWORD PTR t_lo$30[rbp-256], rcx

; 333  :         return (_mulx_u64(u, v, w_hi));

	mulx	r8, rcx, rax

; 238  :         return (_addcarryx_u64(carry, u, v, w));

	add	rcx, QWORD PTR [r9+128]
	mov	QWORD PTR t_hi$31[rbp-256], r10
	adcx	r8, r14
	add	rcx, r10
; File z:\sources\lunor\repos\rougemeilland\palmtree.math.core.uint\palmtree.math.core.uint\pmc_multiply.c

; 59   :     *wp = t_lo;

	mov	QWORD PTR [r9+128], rcx

; 56   :     t_lo = _MULTIPLYX_UNIT(*up, v, &t_hi);

	mov	rax, QWORD PTR [r11+136]
; File z:\sources\lunor\repos\rougemeilland\palmtree.math.core.uint\palmtree.math.core.uint\pmc_inline_func.h

; 238  :         return (_addcarryx_u64(carry, u, v, w));

	adcx	r8, r14
	mov	QWORD PTR t_lo$32[rbp-256], rcx

; 333  :         return (_mulx_u64(u, v, w_hi));

	mulx	r10, rcx, rax

; 238  :         return (_addcarryx_u64(carry, u, v, w));

	add	rcx, QWORD PTR [r9+136]
	mov	QWORD PTR t_hi$33[rbp-256], r8
	adcx	r10, r14
	add	rcx, r8
	mov	QWORD PTR t_lo$34[rbp-256], rcx
	adcx	r10, r14
	mov	QWORD PTR t_hi$35[rbp-256], r10
; File z:\sources\lunor\repos\rougemeilland\palmtree.math.core.uint\palmtree.math.core.uint\pmc_multiply.c

; 59   :     *wp = t_lo;

	mov	QWORD PTR [r9+136], rcx

; 56   :     t_lo = _MULTIPLYX_UNIT(*up, v, &t_hi);

	mov	rax, QWORD PTR [r11+144]
; File z:\sources\lunor\repos\rougemeilland\palmtree.math.core.uint\palmtree.math.core.uint\pmc_inline_func.h

; 333  :         return (_mulx_u64(u, v, w_hi));

	mulx	r8, rcx, rax

; 238  :         return (_addcarryx_u64(carry, u, v, w));

	add	rcx, QWORD PTR [r9+144]
	adcx	r8, r14
	add	rcx, r10
; File z:\sources\lunor\repos\rougemeilland\palmtree.math.core.uint\palmtree.math.core.uint\pmc_multiply.c

; 59   :     *wp = t_lo;

	mov	QWORD PTR [r9+144], rcx

; 56   :     t_lo = _MULTIPLYX_UNIT(*up, v, &t_hi);

	mov	rax, QWORD PTR [r11+152]
; File z:\sources\lunor\repos\rougemeilland\palmtree.math.core.uint\palmtree.math.core.uint\pmc_inline_func.h

; 238  :         return (_addcarryx_u64(carry, u, v, w));

	adcx	r8, r14
	mov	QWORD PTR t_lo$36[rbp-256], rcx
	mov	QWORD PTR t_hi$37[rbp-256], r8

; 333  :         return (_mulx_u64(u, v, w_hi));

	mulx	r10, rcx, rax

; 238  :         return (_addcarryx_u64(carry, u, v, w));

	add	rcx, QWORD PTR [r9+152]
	adcx	r10, r14
	add	rcx, r8
; File z:\sources\lunor\repos\rougemeilland\palmtree.math.core.uint\palmtree.math.core.uint\pmc_multiply.c

; 59   :     *wp = t_lo;

	mov	QWORD PTR [r9+152], rcx

; 56   :     t_lo = _MULTIPLYX_UNIT(*up, v, &t_hi);

	mov	rax, QWORD PTR [r11+160]
; File z:\sources\lunor\repos\rougemeilland\palmtree.math.core.uint\palmtree.math.core.uint\pmc_inline_func.h

; 238  :         return (_addcarryx_u64(carry, u, v, w));

	adcx	r10, r14
	mov	QWORD PTR t_lo$38[rbp-256], rcx
	mov	QWORD PTR t_hi$39[rbp-256], r10

; 333  :         return (_mulx_u64(u, v, w_hi));

	mulx	r8, rcx, rax

; 238  :         return (_addcarryx_u64(carry, u, v, w));

	add	rcx, QWORD PTR [r9+160]
	adcx	r8, r14
	add	rcx, r10
; File z:\sources\lunor\repos\rougemeilland\palmtree.math.core.uint\palmtree.math.core.uint\pmc_multiply.c

; 59   :     *wp = t_lo;

	mov	QWORD PTR [r9+160], rcx

; 56   :     t_lo = _MULTIPLYX_UNIT(*up, v, &t_hi);

	mov	rax, QWORD PTR [r11+168]
; File z:\sources\lunor\repos\rougemeilland\palmtree.math.core.uint\palmtree.math.core.uint\pmc_inline_func.h

; 238  :         return (_addcarryx_u64(carry, u, v, w));

	adcx	r8, r14
	mov	QWORD PTR t_lo$40[rbp-256], rcx
	mov	QWORD PTR t_hi$41[rbp-256], r8

; 333  :         return (_mulx_u64(u, v, w_hi));

	mulx	r10, rcx, rax

; 238  :         return (_addcarryx_u64(carry, u, v, w));

	add	rcx, QWORD PTR [r9+168]
	adcx	r10, r14
	add	rcx, r8
; File z:\sources\lunor\repos\rougemeilland\palmtree.math.core.uint\palmtree.math.core.uint\pmc_multiply.c

; 59   :     *wp = t_lo;

	mov	QWORD PTR [r9+168], rcx

; 56   :     t_lo = _MULTIPLYX_UNIT(*up, v, &t_hi);

	mov	rax, QWORD PTR [r11+176]
; File z:\sources\lunor\repos\rougemeilland\palmtree.math.core.uint\palmtree.math.core.uint\pmc_inline_func.h

; 238  :         return (_addcarryx_u64(carry, u, v, w));

	adcx	r10, r14
	mov	QWORD PTR t_lo$42[rbp-256], rcx

; 333  :         return (_mulx_u64(u, v, w_hi));

	mulx	r8, rcx, rax

; 238  :         return (_addcarryx_u64(carry, u, v, w));

	add	rcx, QWORD PTR [r9+176]
	mov	QWORD PTR t_hi$43[rbp-256], r10
	adcx	r8, r14
	add	rcx, r10
; File z:\sources\lunor\repos\rougemeilland\palmtree.math.core.uint\palmtree.math.core.uint\pmc_multiply.c

; 59   :     *wp = t_lo;

	mov	QWORD PTR [r9+176], rcx

; 56   :     t_lo = _MULTIPLYX_UNIT(*up, v, &t_hi);

	mov	rax, QWORD PTR [r11+184]
; File z:\sources\lunor\repos\rougemeilland\palmtree.math.core.uint\palmtree.math.core.uint\pmc_inline_func.h

; 238  :         return (_addcarryx_u64(carry, u, v, w));

	adcx	r8, r14
	mov	QWORD PTR t_lo$44[rbp-256], rcx
	mov	QWORD PTR t_hi$45[rbp-256], r8

; 333  :         return (_mulx_u64(u, v, w_hi));

	mulx	r10, rcx, rax

; 238  :         return (_addcarryx_u64(carry, u, v, w));

	add	rcx, QWORD PTR [r9+184]
	adcx	r10, r14
	add	rcx, r8
; File z:\sources\lunor\repos\rougemeilland\palmtree.math.core.uint\palmtree.math.core.uint\pmc_multiply.c

; 59   :     *wp = t_lo;

	mov	QWORD PTR [r9+184], rcx

; 56   :     t_lo = _MULTIPLYX_UNIT(*up, v, &t_hi);

	mov	rax, QWORD PTR [r11+192]
; File z:\sources\lunor\repos\rougemeilland\palmtree.math.core.uint\palmtree.math.core.uint\pmc_inline_func.h

; 238  :         return (_addcarryx_u64(carry, u, v, w));

	adcx	r10, r14
	mov	QWORD PTR t_lo$46[rbp-256], rcx

; 333  :         return (_mulx_u64(u, v, w_hi));

	mulx	r8, rcx, rax

; 238  :         return (_addcarryx_u64(carry, u, v, w));

	add	rcx, QWORD PTR [r9+192]
	mov	QWORD PTR t_hi$47[rbp-256], r10
	adcx	r8, r14
	add	rcx, r10
; File z:\sources\lunor\repos\rougemeilland\palmtree.math.core.uint\palmtree.math.core.uint\pmc_multiply.c

; 59   :     *wp = t_lo;

	mov	QWORD PTR [r9+192], rcx

; 56   :     t_lo = _MULTIPLYX_UNIT(*up, v, &t_hi);

	mov	rax, QWORD PTR [r11+200]
; File z:\sources\lunor\repos\rougemeilland\palmtree.math.core.uint\palmtree.math.core.uint\pmc_inline_func.h

; 238  :         return (_addcarryx_u64(carry, u, v, w));

	adcx	r8, r14
	mov	QWORD PTR t_lo$48[rbp-256], rcx

; 333  :         return (_mulx_u64(u, v, w_hi));

	mulx	r10, rcx, rax

; 238  :         return (_addcarryx_u64(carry, u, v, w));

	add	rcx, QWORD PTR [r9+200]
	mov	QWORD PTR t_hi$49[rbp-256], r8
	adcx	r10, r14
	add	rcx, r8
; File z:\sources\lunor\repos\rougemeilland\palmtree.math.core.uint\palmtree.math.core.uint\pmc_multiply.c

; 59   :     *wp = t_lo;

	mov	QWORD PTR [r9+200], rcx

; 56   :     t_lo = _MULTIPLYX_UNIT(*up, v, &t_hi);

	mov	rax, QWORD PTR [r11+208]
; File z:\sources\lunor\repos\rougemeilland\palmtree.math.core.uint\palmtree.math.core.uint\pmc_inline_func.h

; 238  :         return (_addcarryx_u64(carry, u, v, w));

	adcx	r10, r14
	mov	QWORD PTR t_lo$50[rbp-256], rcx

; 333  :         return (_mulx_u64(u, v, w_hi));

	mulx	r8, rcx, rax

; 238  :         return (_addcarryx_u64(carry, u, v, w));

	add	rcx, QWORD PTR [r9+208]
	mov	QWORD PTR t_hi$51[rbp-256], r10
	adcx	r8, r14
	add	rcx, r10
	mov	QWORD PTR t_lo$52[rbp-256], rcx
	adcx	r8, r14
	mov	QWORD PTR t_hi$53[rbp-256], r8
; File z:\sources\lunor\repos\rougemeilland\palmtree.math.core.uint\palmtree.math.core.uint\pmc_multiply.c

; 59   :     *wp = t_lo;

	mov	QWORD PTR [r9+208], rcx

; 56   :     t_lo = _MULTIPLYX_UNIT(*up, v, &t_hi);

	mov	rax, QWORD PTR [r11+216]
; File z:\sources\lunor\repos\rougemeilland\palmtree.math.core.uint\palmtree.math.core.uint\pmc_inline_func.h

; 333  :         return (_mulx_u64(u, v, w_hi));

	mulx	r10, rcx, rax

; 238  :         return (_addcarryx_u64(carry, u, v, w));

	add	rcx, QWORD PTR [r9+216]
	adcx	r10, r14
	add	rcx, r8
; File z:\sources\lunor\repos\rougemeilland\palmtree.math.core.uint\palmtree.math.core.uint\pmc_multiply.c

; 59   :     *wp = t_lo;

	mov	QWORD PTR [r9+216], rcx

; 56   :     t_lo = _MULTIPLYX_UNIT(*up, v, &t_hi);

	mov	rax, QWORD PTR [r11+224]
; File z:\sources\lunor\repos\rougemeilland\palmtree.math.core.uint\palmtree.math.core.uint\pmc_inline_func.h

; 238  :         return (_addcarryx_u64(carry, u, v, w));

	adcx	r10, r14
	mov	QWORD PTR t_lo$54[rbp-256], rcx

; 333  :         return (_mulx_u64(u, v, w_hi));

	mulx	r8, rcx, rax

; 238  :         return (_addcarryx_u64(carry, u, v, w));

	add	rcx, QWORD PTR [r9+224]
	mov	QWORD PTR t_hi$55[rbp-256], r10
	adcx	r8, r14
	add	rcx, r10
; File z:\sources\lunor\repos\rougemeilland\palmtree.math.core.uint\palmtree.math.core.uint\pmc_multiply.c

; 59   :     *wp = t_lo;

	mov	QWORD PTR [r9+224], rcx

; 56   :     t_lo = _MULTIPLYX_UNIT(*up, v, &t_hi);

	mov	rax, QWORD PTR [r11+232]
; File z:\sources\lunor\repos\rougemeilland\palmtree.math.core.uint\palmtree.math.core.uint\pmc_inline_func.h

; 238  :         return (_addcarryx_u64(carry, u, v, w));

	adcx	r8, r14
	mov	QWORD PTR t_lo$56[rbp-256], rcx

; 333  :         return (_mulx_u64(u, v, w_hi));

	mulx	r10, rcx, rax

; 238  :         return (_addcarryx_u64(carry, u, v, w));

	add	rcx, QWORD PTR [r9+232]
	mov	QWORD PTR t_hi$57[rbp-256], r8
	adcx	r10, r14
	add	rcx, r8
; File z:\sources\lunor\repos\rougemeilland\palmtree.math.core.uint\palmtree.math.core.uint\pmc_multiply.c

; 59   :     *wp = t_lo;

	mov	QWORD PTR [r9+232], rcx

; 56   :     t_lo = _MULTIPLYX_UNIT(*up, v, &t_hi);

	mov	rax, QWORD PTR [r11+240]
; File z:\sources\lunor\repos\rougemeilland\palmtree.math.core.uint\palmtree.math.core.uint\pmc_inline_func.h

; 238  :         return (_addcarryx_u64(carry, u, v, w));

	adcx	r10, r14
	mov	QWORD PTR t_lo$58[rbp-256], rcx

; 333  :         return (_mulx_u64(u, v, w_hi));

	mulx	r8, rcx, rax

; 238  :         return (_addcarryx_u64(carry, u, v, w));

	add	rcx, QWORD PTR [r9+240]
	mov	QWORD PTR t_hi$59[rbp-256], r10
	adcx	r8, r14
	add	rcx, r10
; File z:\sources\lunor\repos\rougemeilland\palmtree.math.core.uint\palmtree.math.core.uint\pmc_multiply.c

; 59   :     *wp = t_lo;

	mov	QWORD PTR [r9+240], rcx

; 56   :     t_lo = _MULTIPLYX_UNIT(*up, v, &t_hi);

	mov	rax, QWORD PTR [r11+248]
; File z:\sources\lunor\repos\rougemeilland\palmtree.math.core.uint\palmtree.math.core.uint\pmc_inline_func.h

; 238  :         return (_addcarryx_u64(carry, u, v, w));

	adcx	r8, r14
	mov	QWORD PTR t_lo$60[rbp-256], rcx

; 333  :         return (_mulx_u64(u, v, w_hi));

	mulx	r10, rcx, rax

; 238  :         return (_addcarryx_u64(carry, u, v, w));

	add	rcx, QWORD PTR [r9+248]
; File z:\sources\lunor\repos\rougemeilland\palmtree.math.core.uint\palmtree.math.core.uint\pmc_uint_internal.h

; 349  :         _InterlockedExchangeAdd(&statistics_info.COUNT_MULTI64, value);

	mov	eax, 32					; 00000020H
; File z:\sources\lunor\repos\rougemeilland\palmtree.math.core.uint\palmtree.math.core.uint\pmc_inline_func.h

; 238  :         return (_addcarryx_u64(carry, u, v, w));

	mov	QWORD PTR t_hi$61[rbp-256], r8
	adcx	r10, r14
	add	rcx, r8
; File z:\sources\lunor\repos\rougemeilland\palmtree.math.core.uint\palmtree.math.core.uint\pmc_multiply.c

; 59   :     *wp = t_lo;

	mov	QWORD PTR [r9+248], rcx
; File z:\sources\lunor\repos\rougemeilland\palmtree.math.core.uint\palmtree.math.core.uint\pmc_inline_func.h

; 238  :         return (_addcarryx_u64(carry, u, v, w));

	adcx	r10, r14
; File z:\sources\lunor\repos\rougemeilland\palmtree.math.core.uint\palmtree.math.core.uint\pmc_multiply.c

; 250  :         up += 32;

	add	r11, 256				; 00000100H
; File z:\sources\lunor\repos\rougemeilland\palmtree.math.core.uint\palmtree.math.core.uint\pmc_inline_func.h

; 238  :         return (_addcarryx_u64(carry, u, v, w));

	mov	QWORD PTR t_lo$62[rbp-256], rcx
; File z:\sources\lunor\repos\rougemeilland\palmtree.math.core.uint\palmtree.math.core.uint\pmc_multiply.c

; 251  :         wp += 32;

	add	r9, 256					; 00000100H
; File z:\sources\lunor\repos\rougemeilland\palmtree.math.core.uint\palmtree.math.core.uint\pmc_inline_func.h

; 238  :         return (_addcarryx_u64(carry, u, v, w));

	mov	QWORD PTR t_hi$63[rbp-256], r10
; File z:\sources\lunor\repos\rougemeilland\palmtree.math.core.uint\palmtree.math.core.uint\pmc_uint_internal.h

; 349  :         _InterlockedExchangeAdd(&statistics_info.COUNT_MULTI64, value);

	lock xadd DWORD PTR statistics_info, eax
; File z:\sources\lunor\repos\rougemeilland\palmtree.math.core.uint\palmtree.math.core.uint\pmc_multiply.c

; 216  :     while (count != 0)

	sub	rsi, 1
	jne	$LL2@Multiply_W
$LN3@Multiply_W:

; 252  :         --count;
; 253  : #ifdef ENABLED_PERFORMANCE_COUNTER
; 254  :         if (sizeof(k) == sizeof(_UINT32_T))
; 255  :             AddToMULTI32Counter(32);
; 256  :         else
; 257  :             AddToMULTI64Counter(32);
; 258  : #endif
; 259  :     }
; 260  : 
; 261  :     if (u_count & 0x10)

	test	dil, 16
	je	$LN605@Multiply_W

; 56   :     t_lo = _MULTIPLYX_UNIT(*up, v, &t_hi);

	mov	rax, QWORD PTR [r11]
; File z:\sources\lunor\repos\rougemeilland\palmtree.math.core.uint\palmtree.math.core.uint\pmc_inline_func.h

; 333  :         return (_mulx_u64(u, v, w_hi));

	mov	rdx, rbx
	mulx	r8, rcx, rax

; 238  :         return (_addcarryx_u64(carry, u, v, w));

	add	rcx, QWORD PTR [r9]
	adcx	r8, r14
	add	rcx, r10
; File z:\sources\lunor\repos\rougemeilland\palmtree.math.core.uint\palmtree.math.core.uint\pmc_multiply.c

; 59   :     *wp = t_lo;

	mov	QWORD PTR [r9], rcx

; 56   :     t_lo = _MULTIPLYX_UNIT(*up, v, &t_hi);

	mov	rax, QWORD PTR [r11+8]
; File z:\sources\lunor\repos\rougemeilland\palmtree.math.core.uint\palmtree.math.core.uint\pmc_inline_func.h

; 238  :         return (_addcarryx_u64(carry, u, v, w));

	adcx	r8, r14
	mov	QWORD PTR t_lo$64[rbp-256], rcx
	mov	QWORD PTR t_hi$65[rbp-256], r8

; 333  :         return (_mulx_u64(u, v, w_hi));

	mulx	r10, rcx, rax

; 238  :         return (_addcarryx_u64(carry, u, v, w));

	add	rcx, QWORD PTR [r9+8]
	adcx	r10, r14
	add	rcx, r8
; File z:\sources\lunor\repos\rougemeilland\palmtree.math.core.uint\palmtree.math.core.uint\pmc_multiply.c

; 59   :     *wp = t_lo;

	mov	QWORD PTR [r9+8], rcx

; 56   :     t_lo = _MULTIPLYX_UNIT(*up, v, &t_hi);

	mov	rax, QWORD PTR [r11+16]
; File z:\sources\lunor\repos\rougemeilland\palmtree.math.core.uint\palmtree.math.core.uint\pmc_inline_func.h

; 238  :         return (_addcarryx_u64(carry, u, v, w));

	adcx	r10, r14
	mov	QWORD PTR t_lo$66[rbp-256], rcx
	mov	QWORD PTR t_hi$67[rbp-256], r10

; 333  :         return (_mulx_u64(u, v, w_hi));

	mulx	r8, rcx, rax

; 238  :         return (_addcarryx_u64(carry, u, v, w));

	add	rcx, QWORD PTR [r9+16]
	adcx	r8, r14
	add	rcx, r10
; File z:\sources\lunor\repos\rougemeilland\palmtree.math.core.uint\palmtree.math.core.uint\pmc_multiply.c

; 59   :     *wp = t_lo;

	mov	QWORD PTR [r9+16], rcx

; 56   :     t_lo = _MULTIPLYX_UNIT(*up, v, &t_hi);

	mov	rax, QWORD PTR [r11+24]
; File z:\sources\lunor\repos\rougemeilland\palmtree.math.core.uint\palmtree.math.core.uint\pmc_inline_func.h

; 238  :         return (_addcarryx_u64(carry, u, v, w));

	adcx	r8, r14
	mov	QWORD PTR t_lo$68[rbp-256], rcx
	mov	QWORD PTR t_hi$69[rbp-256], r8

; 333  :         return (_mulx_u64(u, v, w_hi));

	mulx	r10, rcx, rax

; 238  :         return (_addcarryx_u64(carry, u, v, w));

	add	rcx, QWORD PTR [r9+24]
	adcx	r10, r14
	add	rcx, r8
; File z:\sources\lunor\repos\rougemeilland\palmtree.math.core.uint\palmtree.math.core.uint\pmc_multiply.c

; 59   :     *wp = t_lo;

	mov	QWORD PTR [r9+24], rcx

; 56   :     t_lo = _MULTIPLYX_UNIT(*up, v, &t_hi);

	mov	rax, QWORD PTR [r11+32]
; File z:\sources\lunor\repos\rougemeilland\palmtree.math.core.uint\palmtree.math.core.uint\pmc_inline_func.h

; 238  :         return (_addcarryx_u64(carry, u, v, w));

	adcx	r10, r14
	mov	QWORD PTR t_lo$70[rbp-256], rcx

; 333  :         return (_mulx_u64(u, v, w_hi));

	mulx	r8, rcx, rax

; 238  :         return (_addcarryx_u64(carry, u, v, w));

	add	rcx, QWORD PTR [r9+32]
	mov	QWORD PTR t_hi$71[rbp-256], r10
	adcx	r8, r14
	add	rcx, r10
; File z:\sources\lunor\repos\rougemeilland\palmtree.math.core.uint\palmtree.math.core.uint\pmc_multiply.c

; 59   :     *wp = t_lo;

	mov	QWORD PTR [r9+32], rcx

; 56   :     t_lo = _MULTIPLYX_UNIT(*up, v, &t_hi);

	mov	rax, QWORD PTR [r11+40]
; File z:\sources\lunor\repos\rougemeilland\palmtree.math.core.uint\palmtree.math.core.uint\pmc_inline_func.h

; 238  :         return (_addcarryx_u64(carry, u, v, w));

	adcx	r8, r14
	mov	QWORD PTR t_lo$72[rbp-256], rcx
	mov	QWORD PTR t_hi$73[rbp-256], r8

; 333  :         return (_mulx_u64(u, v, w_hi));

	mulx	r10, rcx, rax

; 238  :         return (_addcarryx_u64(carry, u, v, w));

	add	rcx, QWORD PTR [r9+40]
	adcx	r10, r14
	add	rcx, r8
; File z:\sources\lunor\repos\rougemeilland\palmtree.math.core.uint\palmtree.math.core.uint\pmc_multiply.c

; 59   :     *wp = t_lo;

	mov	QWORD PTR [r9+40], rcx

; 56   :     t_lo = _MULTIPLYX_UNIT(*up, v, &t_hi);

	mov	rax, QWORD PTR [r11+48]
; File z:\sources\lunor\repos\rougemeilland\palmtree.math.core.uint\palmtree.math.core.uint\pmc_inline_func.h

; 238  :         return (_addcarryx_u64(carry, u, v, w));

	adcx	r10, r14
	mov	QWORD PTR t_lo$74[rbp-256], rcx

; 333  :         return (_mulx_u64(u, v, w_hi));

	mulx	r8, rcx, rax

; 238  :         return (_addcarryx_u64(carry, u, v, w));

	add	rcx, QWORD PTR [r9+48]
	mov	QWORD PTR t_hi$75[rbp-256], r10
	adcx	r8, r14
	add	rcx, r10
; File z:\sources\lunor\repos\rougemeilland\palmtree.math.core.uint\palmtree.math.core.uint\pmc_multiply.c

; 59   :     *wp = t_lo;

	mov	QWORD PTR [r9+48], rcx

; 56   :     t_lo = _MULTIPLYX_UNIT(*up, v, &t_hi);

	mov	rax, QWORD PTR [r11+56]
; File z:\sources\lunor\repos\rougemeilland\palmtree.math.core.uint\palmtree.math.core.uint\pmc_inline_func.h

; 238  :         return (_addcarryx_u64(carry, u, v, w));

	adcx	r8, r14
	mov	QWORD PTR t_lo$76[rbp-256], rcx

; 333  :         return (_mulx_u64(u, v, w_hi));

	mulx	r10, rcx, rax

; 238  :         return (_addcarryx_u64(carry, u, v, w));

	add	rcx, QWORD PTR [r9+56]
	mov	QWORD PTR t_hi$77[rbp-256], r8
	adcx	r10, r14
	add	rcx, r8
; File z:\sources\lunor\repos\rougemeilland\palmtree.math.core.uint\palmtree.math.core.uint\pmc_multiply.c

; 59   :     *wp = t_lo;

	mov	QWORD PTR [r9+56], rcx

; 56   :     t_lo = _MULTIPLYX_UNIT(*up, v, &t_hi);

	mov	rax, QWORD PTR [r11+64]
; File z:\sources\lunor\repos\rougemeilland\palmtree.math.core.uint\palmtree.math.core.uint\pmc_inline_func.h

; 238  :         return (_addcarryx_u64(carry, u, v, w));

	adcx	r10, r14
	mov	QWORD PTR t_lo$78[rbp-256], rcx

; 333  :         return (_mulx_u64(u, v, w_hi));

	mulx	r8, rcx, rax

; 238  :         return (_addcarryx_u64(carry, u, v, w));

	add	rcx, QWORD PTR [r9+64]
	mov	QWORD PTR t_hi$79[rbp-256], r10
	adcx	r8, r14
	add	rcx, r10
	mov	QWORD PTR t_lo$80[rbp-256], rcx
	adcx	r8, r14
	mov	QWORD PTR t_hi$81[rbp-256], r8
; File z:\sources\lunor\repos\rougemeilland\palmtree.math.core.uint\palmtree.math.core.uint\pmc_multiply.c

; 59   :     *wp = t_lo;

	mov	QWORD PTR [r9+64], rcx

; 56   :     t_lo = _MULTIPLYX_UNIT(*up, v, &t_hi);

	mov	rax, QWORD PTR [r11+72]
; File z:\sources\lunor\repos\rougemeilland\palmtree.math.core.uint\palmtree.math.core.uint\pmc_inline_func.h

; 333  :         return (_mulx_u64(u, v, w_hi));

	mulx	r10, rcx, rax

; 238  :         return (_addcarryx_u64(carry, u, v, w));

	add	rcx, QWORD PTR [r9+72]
	adcx	r10, r14
	add	rcx, r8
; File z:\sources\lunor\repos\rougemeilland\palmtree.math.core.uint\palmtree.math.core.uint\pmc_multiply.c

; 59   :     *wp = t_lo;

	mov	QWORD PTR [r9+72], rcx

; 56   :     t_lo = _MULTIPLYX_UNIT(*up, v, &t_hi);

	mov	rax, QWORD PTR [r11+80]
; File z:\sources\lunor\repos\rougemeilland\palmtree.math.core.uint\palmtree.math.core.uint\pmc_inline_func.h

; 238  :         return (_addcarryx_u64(carry, u, v, w));

	adcx	r10, r14
	mov	QWORD PTR t_lo$82[rbp-256], rcx
	mov	QWORD PTR t_hi$83[rbp-256], r10

; 333  :         return (_mulx_u64(u, v, w_hi));

	mulx	r8, rcx, rax

; 238  :         return (_addcarryx_u64(carry, u, v, w));

	add	rcx, QWORD PTR [r9+80]
	adcx	r8, r14
	add	rcx, r10
; File z:\sources\lunor\repos\rougemeilland\palmtree.math.core.uint\palmtree.math.core.uint\pmc_multiply.c

; 59   :     *wp = t_lo;

	mov	QWORD PTR [r9+80], rcx

; 56   :     t_lo = _MULTIPLYX_UNIT(*up, v, &t_hi);

	mov	rax, QWORD PTR [r11+88]
; File z:\sources\lunor\repos\rougemeilland\palmtree.math.core.uint\palmtree.math.core.uint\pmc_inline_func.h

; 238  :         return (_addcarryx_u64(carry, u, v, w));

	adcx	r8, r14
	mov	QWORD PTR t_lo$84[rbp-256], rcx

; 333  :         return (_mulx_u64(u, v, w_hi));

	mulx	r10, rcx, rax

; 238  :         return (_addcarryx_u64(carry, u, v, w));

	add	rcx, QWORD PTR [r9+88]
	mov	QWORD PTR t_hi$85[rbp-256], r8
	adcx	r10, r14
	add	rcx, r8
; File z:\sources\lunor\repos\rougemeilland\palmtree.math.core.uint\palmtree.math.core.uint\pmc_multiply.c

; 59   :     *wp = t_lo;

	mov	QWORD PTR [r9+88], rcx

; 56   :     t_lo = _MULTIPLYX_UNIT(*up, v, &t_hi);

	mov	rax, QWORD PTR [r11+96]
; File z:\sources\lunor\repos\rougemeilland\palmtree.math.core.uint\palmtree.math.core.uint\pmc_inline_func.h

; 238  :         return (_addcarryx_u64(carry, u, v, w));

	adcx	r10, r14
	mov	QWORD PTR t_lo$86[rbp-256], rcx

; 333  :         return (_mulx_u64(u, v, w_hi));

	mulx	r8, rcx, rax

; 238  :         return (_addcarryx_u64(carry, u, v, w));

	add	rcx, QWORD PTR [r9+96]
	mov	QWORD PTR t_hi$87[rbp-256], r10
	adcx	r8, r14
	add	rcx, r10
; File z:\sources\lunor\repos\rougemeilland\palmtree.math.core.uint\palmtree.math.core.uint\pmc_multiply.c

; 59   :     *wp = t_lo;

	mov	QWORD PTR [r9+96], rcx

; 56   :     t_lo = _MULTIPLYX_UNIT(*up, v, &t_hi);

	mov	rax, QWORD PTR [r11+104]
; File z:\sources\lunor\repos\rougemeilland\palmtree.math.core.uint\palmtree.math.core.uint\pmc_inline_func.h

; 238  :         return (_addcarryx_u64(carry, u, v, w));

	adcx	r8, r14
	mov	QWORD PTR t_lo$88[rbp-256], rcx

; 333  :         return (_mulx_u64(u, v, w_hi));

	mulx	r10, rcx, rax

; 238  :         return (_addcarryx_u64(carry, u, v, w));

	add	rcx, QWORD PTR [r9+104]
	mov	QWORD PTR t_hi$89[rbp-256], r8
	adcx	r10, r14
	add	rcx, r8
; File z:\sources\lunor\repos\rougemeilland\palmtree.math.core.uint\palmtree.math.core.uint\pmc_multiply.c

; 59   :     *wp = t_lo;

	mov	QWORD PTR [r9+104], rcx

; 56   :     t_lo = _MULTIPLYX_UNIT(*up, v, &t_hi);

	mov	rax, QWORD PTR [r11+112]
; File z:\sources\lunor\repos\rougemeilland\palmtree.math.core.uint\palmtree.math.core.uint\pmc_inline_func.h

; 238  :         return (_addcarryx_u64(carry, u, v, w));

	adcx	r10, r14
	mov	QWORD PTR t_lo$90[rbp-256], rcx

; 333  :         return (_mulx_u64(u, v, w_hi));

	mulx	r8, rcx, rax

; 238  :         return (_addcarryx_u64(carry, u, v, w));

	add	rcx, QWORD PTR [r9+112]
	mov	QWORD PTR t_hi$91[rbp-256], r10
	adcx	r8, r14
	add	rcx, r10
; File z:\sources\lunor\repos\rougemeilland\palmtree.math.core.uint\palmtree.math.core.uint\pmc_multiply.c

; 59   :     *wp = t_lo;

	mov	QWORD PTR [r9+112], rcx

; 56   :     t_lo = _MULTIPLYX_UNIT(*up, v, &t_hi);

	mov	rax, QWORD PTR [r11+120]
; File z:\sources\lunor\repos\rougemeilland\palmtree.math.core.uint\palmtree.math.core.uint\pmc_inline_func.h

; 238  :         return (_addcarryx_u64(carry, u, v, w));

	adcx	r8, r14
	mov	QWORD PTR t_lo$92[rbp-256], rcx

; 333  :         return (_mulx_u64(u, v, w_hi));

	mulx	r10, rcx, rax

; 238  :         return (_addcarryx_u64(carry, u, v, w));

	add	rcx, QWORD PTR [r9+120]
; File z:\sources\lunor\repos\rougemeilland\palmtree.math.core.uint\palmtree.math.core.uint\pmc_uint_internal.h

; 349  :         _InterlockedExchangeAdd(&statistics_info.COUNT_MULTI64, value);

	mov	eax, 16
; File z:\sources\lunor\repos\rougemeilland\palmtree.math.core.uint\palmtree.math.core.uint\pmc_inline_func.h

; 238  :         return (_addcarryx_u64(carry, u, v, w));

	mov	QWORD PTR t_hi$93[rbp-256], r8
	adcx	r10, r14
	add	rcx, r8
; File z:\sources\lunor\repos\rougemeilland\palmtree.math.core.uint\palmtree.math.core.uint\pmc_multiply.c

; 59   :     *wp = t_lo;

	mov	QWORD PTR [r9+120], rcx
; File z:\sources\lunor\repos\rougemeilland\palmtree.math.core.uint\palmtree.math.core.uint\pmc_inline_func.h

; 238  :         return (_addcarryx_u64(carry, u, v, w));

	adcx	r10, r14
; File z:\sources\lunor\repos\rougemeilland\palmtree.math.core.uint\palmtree.math.core.uint\pmc_multiply.c

; 279  :         up += 16;

	sub	r11, -128				; ffffffffffffff80H
; File z:\sources\lunor\repos\rougemeilland\palmtree.math.core.uint\palmtree.math.core.uint\pmc_inline_func.h

; 238  :         return (_addcarryx_u64(carry, u, v, w));

	mov	QWORD PTR t_lo$94[rbp-256], rcx
; File z:\sources\lunor\repos\rougemeilland\palmtree.math.core.uint\palmtree.math.core.uint\pmc_multiply.c

; 280  :         wp += 16;

	sub	r9, -128				; ffffffffffffff80H
; File z:\sources\lunor\repos\rougemeilland\palmtree.math.core.uint\palmtree.math.core.uint\pmc_inline_func.h

; 238  :         return (_addcarryx_u64(carry, u, v, w));

	mov	QWORD PTR t_hi$95[rbp-256], r10
; File z:\sources\lunor\repos\rougemeilland\palmtree.math.core.uint\palmtree.math.core.uint\pmc_uint_internal.h

; 349  :         _InterlockedExchangeAdd(&statistics_info.COUNT_MULTI64, value);

	lock xadd DWORD PTR statistics_info, eax
$LN605@Multiply_W:
; File z:\sources\lunor\repos\rougemeilland\palmtree.math.core.uint\palmtree.math.core.uint\pmc_multiply.c

; 289  :     if (u_count & 0x8)

	test	dil, 8
	je	$LN705@Multiply_W

; 56   :     t_lo = _MULTIPLYX_UNIT(*up, v, &t_hi);

	mov	rax, QWORD PTR [r11]
; File z:\sources\lunor\repos\rougemeilland\palmtree.math.core.uint\palmtree.math.core.uint\pmc_inline_func.h

; 333  :         return (_mulx_u64(u, v, w_hi));

	mov	rdx, rbx
	mulx	r8, rcx, rax

; 238  :         return (_addcarryx_u64(carry, u, v, w));

	add	rcx, QWORD PTR [r9]
	adcx	r8, r14
	add	rcx, r10
; File z:\sources\lunor\repos\rougemeilland\palmtree.math.core.uint\palmtree.math.core.uint\pmc_multiply.c

; 59   :     *wp = t_lo;

	mov	QWORD PTR [r9], rcx

; 56   :     t_lo = _MULTIPLYX_UNIT(*up, v, &t_hi);

	mov	rax, QWORD PTR [r11+8]
; File z:\sources\lunor\repos\rougemeilland\palmtree.math.core.uint\palmtree.math.core.uint\pmc_inline_func.h

; 238  :         return (_addcarryx_u64(carry, u, v, w));

	adcx	r8, r14
	mov	QWORD PTR t_lo$96[rbp-256], rcx

; 333  :         return (_mulx_u64(u, v, w_hi));

	mulx	r10, rcx, rax

; 238  :         return (_addcarryx_u64(carry, u, v, w));

	add	rcx, QWORD PTR [r9+8]
	mov	QWORD PTR t_hi$97[rbp-256], r8
	adcx	r10, r14
	add	rcx, r8
; File z:\sources\lunor\repos\rougemeilland\palmtree.math.core.uint\palmtree.math.core.uint\pmc_multiply.c

; 59   :     *wp = t_lo;

	mov	QWORD PTR [r9+8], rcx

; 56   :     t_lo = _MULTIPLYX_UNIT(*up, v, &t_hi);

	mov	rax, QWORD PTR [r11+16]
; File z:\sources\lunor\repos\rougemeilland\palmtree.math.core.uint\palmtree.math.core.uint\pmc_inline_func.h

; 238  :         return (_addcarryx_u64(carry, u, v, w));

	adcx	r10, r14
	mov	QWORD PTR t_lo$98[rbp-256], rcx
	mov	QWORD PTR t_hi$99[rbp-256], r10

; 333  :         return (_mulx_u64(u, v, w_hi));

	mulx	r8, rcx, rax

; 238  :         return (_addcarryx_u64(carry, u, v, w));

	add	rcx, QWORD PTR [r9+16]
	adcx	r8, r14
	add	rcx, r10
; File z:\sources\lunor\repos\rougemeilland\palmtree.math.core.uint\palmtree.math.core.uint\pmc_multiply.c

; 59   :     *wp = t_lo;

	mov	QWORD PTR [r9+16], rcx

; 56   :     t_lo = _MULTIPLYX_UNIT(*up, v, &t_hi);

	mov	rax, QWORD PTR [r11+24]
; File z:\sources\lunor\repos\rougemeilland\palmtree.math.core.uint\palmtree.math.core.uint\pmc_inline_func.h

; 238  :         return (_addcarryx_u64(carry, u, v, w));

	adcx	r8, r14
	mov	QWORD PTR t_lo$100[rbp-256], rcx

; 333  :         return (_mulx_u64(u, v, w_hi));

	mulx	r10, rcx, rax

; 238  :         return (_addcarryx_u64(carry, u, v, w));

	add	rcx, QWORD PTR [r9+24]
	mov	QWORD PTR t_hi$101[rbp-256], r8
	adcx	r10, r14
	add	rcx, r8
; File z:\sources\lunor\repos\rougemeilland\palmtree.math.core.uint\palmtree.math.core.uint\pmc_multiply.c

; 59   :     *wp = t_lo;

	mov	QWORD PTR [r9+24], rcx

; 56   :     t_lo = _MULTIPLYX_UNIT(*up, v, &t_hi);

	mov	rax, QWORD PTR [r11+32]
; File z:\sources\lunor\repos\rougemeilland\palmtree.math.core.uint\palmtree.math.core.uint\pmc_inline_func.h

; 238  :         return (_addcarryx_u64(carry, u, v, w));

	adcx	r10, r14
	mov	QWORD PTR t_lo$102[rbp-256], rcx

; 333  :         return (_mulx_u64(u, v, w_hi));

	mulx	r8, rcx, rax

; 238  :         return (_addcarryx_u64(carry, u, v, w));

	add	rcx, QWORD PTR [r9+32]
	mov	QWORD PTR t_hi$103[rbp-256], r10
	adcx	r8, r14
	add	rcx, r10
; File z:\sources\lunor\repos\rougemeilland\palmtree.math.core.uint\palmtree.math.core.uint\pmc_multiply.c

; 59   :     *wp = t_lo;

	mov	QWORD PTR [r9+32], rcx

; 56   :     t_lo = _MULTIPLYX_UNIT(*up, v, &t_hi);

	mov	rax, QWORD PTR [r11+40]
; File z:\sources\lunor\repos\rougemeilland\palmtree.math.core.uint\palmtree.math.core.uint\pmc_inline_func.h

; 238  :         return (_addcarryx_u64(carry, u, v, w));

	adcx	r8, r14
	mov	QWORD PTR t_lo$104[rbp-256], rcx

; 333  :         return (_mulx_u64(u, v, w_hi));

	mulx	r10, rcx, rax

; 238  :         return (_addcarryx_u64(carry, u, v, w));

	add	rcx, QWORD PTR [r9+40]
	mov	QWORD PTR t_hi$105[rbp-256], r8
	adcx	r10, r14
	add	rcx, r8
; File z:\sources\lunor\repos\rougemeilland\palmtree.math.core.uint\palmtree.math.core.uint\pmc_multiply.c

; 59   :     *wp = t_lo;

	mov	QWORD PTR [r9+40], rcx

; 56   :     t_lo = _MULTIPLYX_UNIT(*up, v, &t_hi);

	mov	rax, QWORD PTR [r11+48]
; File z:\sources\lunor\repos\rougemeilland\palmtree.math.core.uint\palmtree.math.core.uint\pmc_inline_func.h

; 238  :         return (_addcarryx_u64(carry, u, v, w));

	adcx	r10, r14
	mov	QWORD PTR t_lo$106[rbp-256], rcx

; 333  :         return (_mulx_u64(u, v, w_hi));

	mulx	r8, rcx, rax

; 238  :         return (_addcarryx_u64(carry, u, v, w));

	add	rcx, QWORD PTR [r9+48]
	mov	QWORD PTR t_hi$107[rbp-256], r10
	adcx	r8, r14
	add	rcx, r10
; File z:\sources\lunor\repos\rougemeilland\palmtree.math.core.uint\palmtree.math.core.uint\pmc_multiply.c

; 59   :     *wp = t_lo;

	mov	QWORD PTR [r9+48], rcx

; 56   :     t_lo = _MULTIPLYX_UNIT(*up, v, &t_hi);

	mov	rax, QWORD PTR [r11+56]
; File z:\sources\lunor\repos\rougemeilland\palmtree.math.core.uint\palmtree.math.core.uint\pmc_inline_func.h

; 238  :         return (_addcarryx_u64(carry, u, v, w));

	adcx	r8, r14
	mov	QWORD PTR t_lo$108[rbp-256], rcx

; 333  :         return (_mulx_u64(u, v, w_hi));

	mulx	r10, rcx, rax

; 238  :         return (_addcarryx_u64(carry, u, v, w));

	add	rcx, QWORD PTR [r9+56]
; File z:\sources\lunor\repos\rougemeilland\palmtree.math.core.uint\palmtree.math.core.uint\pmc_uint_internal.h

; 349  :         _InterlockedExchangeAdd(&statistics_info.COUNT_MULTI64, value);

	mov	eax, 8
; File z:\sources\lunor\repos\rougemeilland\palmtree.math.core.uint\palmtree.math.core.uint\pmc_inline_func.h

; 238  :         return (_addcarryx_u64(carry, u, v, w));

	mov	QWORD PTR t_hi$109[rbp-256], r8
	adcx	r10, r14
	add	rcx, r8
; File z:\sources\lunor\repos\rougemeilland\palmtree.math.core.uint\palmtree.math.core.uint\pmc_multiply.c

; 59   :     *wp = t_lo;

	mov	QWORD PTR [r9+56], rcx
; File z:\sources\lunor\repos\rougemeilland\palmtree.math.core.uint\palmtree.math.core.uint\pmc_inline_func.h

; 238  :         return (_addcarryx_u64(carry, u, v, w));

	adcx	r10, r14
; File z:\sources\lunor\repos\rougemeilland\palmtree.math.core.uint\palmtree.math.core.uint\pmc_multiply.c

; 299  :         up += 8;

	add	r11, 64					; 00000040H
; File z:\sources\lunor\repos\rougemeilland\palmtree.math.core.uint\palmtree.math.core.uint\pmc_inline_func.h

; 238  :         return (_addcarryx_u64(carry, u, v, w));

	mov	QWORD PTR t_lo$110[rbp-256], rcx
; File z:\sources\lunor\repos\rougemeilland\palmtree.math.core.uint\palmtree.math.core.uint\pmc_multiply.c

; 300  :         wp += 8;

	add	r9, 64					; 00000040H
; File z:\sources\lunor\repos\rougemeilland\palmtree.math.core.uint\palmtree.math.core.uint\pmc_inline_func.h

; 238  :         return (_addcarryx_u64(carry, u, v, w));

	mov	QWORD PTR t_hi$111[rbp-256], r10
; File z:\sources\lunor\repos\rougemeilland\palmtree.math.core.uint\palmtree.math.core.uint\pmc_uint_internal.h

; 349  :         _InterlockedExchangeAdd(&statistics_info.COUNT_MULTI64, value);

	lock xadd DWORD PTR statistics_info, eax
$LN705@Multiply_W:
; File z:\sources\lunor\repos\rougemeilland\palmtree.math.core.uint\palmtree.math.core.uint\pmc_multiply.c

; 309  :     if (u_count & 0x4)

	test	dil, 4
	je	$LN757@Multiply_W

; 56   :     t_lo = _MULTIPLYX_UNIT(*up, v, &t_hi);

	mov	rax, QWORD PTR [r11]
; File z:\sources\lunor\repos\rougemeilland\palmtree.math.core.uint\palmtree.math.core.uint\pmc_inline_func.h

; 333  :         return (_mulx_u64(u, v, w_hi));

	mov	rdx, rbx
	mulx	r8, rcx, rax

; 238  :         return (_addcarryx_u64(carry, u, v, w));

	add	rcx, QWORD PTR [r9]
	adcx	r8, r14
	add	rcx, r10
; File z:\sources\lunor\repos\rougemeilland\palmtree.math.core.uint\palmtree.math.core.uint\pmc_multiply.c

; 59   :     *wp = t_lo;

	mov	QWORD PTR [r9], rcx

; 56   :     t_lo = _MULTIPLYX_UNIT(*up, v, &t_hi);

	mov	rax, QWORD PTR [r11+8]
; File z:\sources\lunor\repos\rougemeilland\palmtree.math.core.uint\palmtree.math.core.uint\pmc_inline_func.h

; 238  :         return (_addcarryx_u64(carry, u, v, w));

	adcx	r8, r14
	mov	QWORD PTR t_lo$112[rbp-256], rcx

; 333  :         return (_mulx_u64(u, v, w_hi));

	mulx	r10, rcx, rax

; 238  :         return (_addcarryx_u64(carry, u, v, w));

	add	rcx, QWORD PTR [r9+8]
	mov	QWORD PTR t_hi$113[rbp-256], r8
	adcx	r10, r14
	add	rcx, r8
; File z:\sources\lunor\repos\rougemeilland\palmtree.math.core.uint\palmtree.math.core.uint\pmc_multiply.c

; 59   :     *wp = t_lo;

	mov	QWORD PTR [r9+8], rcx

; 56   :     t_lo = _MULTIPLYX_UNIT(*up, v, &t_hi);

	mov	rax, QWORD PTR [r11+16]
; File z:\sources\lunor\repos\rougemeilland\palmtree.math.core.uint\palmtree.math.core.uint\pmc_inline_func.h

; 238  :         return (_addcarryx_u64(carry, u, v, w));

	adcx	r10, r14
	mov	QWORD PTR t_lo$114[rbp-256], rcx

; 333  :         return (_mulx_u64(u, v, w_hi));

	mulx	r8, rcx, rax

; 238  :         return (_addcarryx_u64(carry, u, v, w));

	add	rcx, QWORD PTR [r9+16]
	mov	QWORD PTR t_hi$115[rbp-256], r10
	adcx	r8, r14
	add	rcx, r10
; File z:\sources\lunor\repos\rougemeilland\palmtree.math.core.uint\palmtree.math.core.uint\pmc_multiply.c

; 59   :     *wp = t_lo;

	mov	QWORD PTR [r9+16], rcx

; 56   :     t_lo = _MULTIPLYX_UNIT(*up, v, &t_hi);

	mov	rax, QWORD PTR [r11+24]
; File z:\sources\lunor\repos\rougemeilland\palmtree.math.core.uint\palmtree.math.core.uint\pmc_inline_func.h

; 238  :         return (_addcarryx_u64(carry, u, v, w));

	adcx	r8, r14
	mov	QWORD PTR t_lo$116[rbp-256], rcx

; 333  :         return (_mulx_u64(u, v, w_hi));

	mulx	r10, rcx, rax

; 238  :         return (_addcarryx_u64(carry, u, v, w));

	add	rcx, QWORD PTR [r9+24]
; File z:\sources\lunor\repos\rougemeilland\palmtree.math.core.uint\palmtree.math.core.uint\pmc_uint_internal.h

; 349  :         _InterlockedExchangeAdd(&statistics_info.COUNT_MULTI64, value);

	mov	eax, 4
; File z:\sources\lunor\repos\rougemeilland\palmtree.math.core.uint\palmtree.math.core.uint\pmc_inline_func.h

; 238  :         return (_addcarryx_u64(carry, u, v, w));

	mov	QWORD PTR t_hi$117[rbp-256], r8
	adcx	r10, r14
	add	rcx, r8
; File z:\sources\lunor\repos\rougemeilland\palmtree.math.core.uint\palmtree.math.core.uint\pmc_multiply.c

; 59   :     *wp = t_lo;

	mov	QWORD PTR [r9+24], rcx
; File z:\sources\lunor\repos\rougemeilland\palmtree.math.core.uint\palmtree.math.core.uint\pmc_inline_func.h

; 238  :         return (_addcarryx_u64(carry, u, v, w));

	adcx	r10, r14
; File z:\sources\lunor\repos\rougemeilland\palmtree.math.core.uint\palmtree.math.core.uint\pmc_multiply.c

; 315  :         up += 4;

	add	r11, 32					; 00000020H
; File z:\sources\lunor\repos\rougemeilland\palmtree.math.core.uint\palmtree.math.core.uint\pmc_inline_func.h

; 238  :         return (_addcarryx_u64(carry, u, v, w));

	mov	QWORD PTR t_lo$118[rbp-256], rcx
; File z:\sources\lunor\repos\rougemeilland\palmtree.math.core.uint\palmtree.math.core.uint\pmc_multiply.c

; 316  :         wp += 4;

	add	r9, 32					; 00000020H
; File z:\sources\lunor\repos\rougemeilland\palmtree.math.core.uint\palmtree.math.core.uint\pmc_inline_func.h

; 238  :         return (_addcarryx_u64(carry, u, v, w));

	mov	QWORD PTR t_hi$119[rbp-256], r10
; File z:\sources\lunor\repos\rougemeilland\palmtree.math.core.uint\palmtree.math.core.uint\pmc_uint_internal.h

; 349  :         _InterlockedExchangeAdd(&statistics_info.COUNT_MULTI64, value);

	lock xadd DWORD PTR statistics_info, eax
$LN757@Multiply_W:
; File z:\sources\lunor\repos\rougemeilland\palmtree.math.core.uint\palmtree.math.core.uint\pmc_multiply.c

; 325  :     if (u_count & 0x2)

	test	dil, 2
	je	SHORT $LN785@Multiply_W

; 56   :     t_lo = _MULTIPLYX_UNIT(*up, v, &t_hi);

	mov	rax, QWORD PTR [r11]
; File z:\sources\lunor\repos\rougemeilland\palmtree.math.core.uint\palmtree.math.core.uint\pmc_inline_func.h

; 333  :         return (_mulx_u64(u, v, w_hi));

	mov	rdx, rbx
	mulx	r8, rcx, rax

; 238  :         return (_addcarryx_u64(carry, u, v, w));

	add	rcx, QWORD PTR [r9]
	adcx	r8, r14
	add	rcx, r10
; File z:\sources\lunor\repos\rougemeilland\palmtree.math.core.uint\palmtree.math.core.uint\pmc_multiply.c

; 59   :     *wp = t_lo;

	mov	QWORD PTR [r9], rcx

; 56   :     t_lo = _MULTIPLYX_UNIT(*up, v, &t_hi);

	mov	rax, QWORD PTR [r11+8]
; File z:\sources\lunor\repos\rougemeilland\palmtree.math.core.uint\palmtree.math.core.uint\pmc_inline_func.h

; 238  :         return (_addcarryx_u64(carry, u, v, w));

	adcx	r8, r14
	mov	QWORD PTR t_lo$120[rbp-256], rcx

; 333  :         return (_mulx_u64(u, v, w_hi));

	mulx	r10, rcx, rax

; 238  :         return (_addcarryx_u64(carry, u, v, w));

	add	rcx, QWORD PTR [r9+8]
; File z:\sources\lunor\repos\rougemeilland\palmtree.math.core.uint\palmtree.math.core.uint\pmc_uint_internal.h

; 349  :         _InterlockedExchangeAdd(&statistics_info.COUNT_MULTI64, value);

	mov	eax, 2
; File z:\sources\lunor\repos\rougemeilland\palmtree.math.core.uint\palmtree.math.core.uint\pmc_inline_func.h

; 238  :         return (_addcarryx_u64(carry, u, v, w));

	mov	QWORD PTR t_hi$121[rbp-256], r8
	adcx	r10, r14
	add	rcx, r8
; File z:\sources\lunor\repos\rougemeilland\palmtree.math.core.uint\palmtree.math.core.uint\pmc_multiply.c

; 59   :     *wp = t_lo;

	mov	QWORD PTR [r9+8], rcx
; File z:\sources\lunor\repos\rougemeilland\palmtree.math.core.uint\palmtree.math.core.uint\pmc_inline_func.h

; 238  :         return (_addcarryx_u64(carry, u, v, w));

	adcx	r10, r14
; File z:\sources\lunor\repos\rougemeilland\palmtree.math.core.uint\palmtree.math.core.uint\pmc_multiply.c

; 329  :         up += 2;

	add	r11, 16
; File z:\sources\lunor\repos\rougemeilland\palmtree.math.core.uint\palmtree.math.core.uint\pmc_inline_func.h

; 238  :         return (_addcarryx_u64(carry, u, v, w));

	mov	QWORD PTR t_lo$122[rbp-256], rcx
; File z:\sources\lunor\repos\rougemeilland\palmtree.math.core.uint\palmtree.math.core.uint\pmc_multiply.c

; 330  :         wp += 2;

	add	r9, 16
; File z:\sources\lunor\repos\rougemeilland\palmtree.math.core.uint\palmtree.math.core.uint\pmc_inline_func.h

; 238  :         return (_addcarryx_u64(carry, u, v, w));

	mov	QWORD PTR t_hi$123[rbp-256], r10
; File z:\sources\lunor\repos\rougemeilland\palmtree.math.core.uint\palmtree.math.core.uint\pmc_uint_internal.h

; 349  :         _InterlockedExchangeAdd(&statistics_info.COUNT_MULTI64, value);

	lock xadd DWORD PTR statistics_info, eax
$LN785@Multiply_W:
; File z:\sources\lunor\repos\rougemeilland\palmtree.math.core.uint\palmtree.math.core.uint\pmc_multiply.c

; 339  :     if (u_count & 0x1)

	test	dil, 1
	je	SHORT $LN801@Multiply_W

; 56   :     t_lo = _MULTIPLYX_UNIT(*up, v, &t_hi);

	mov	rax, QWORD PTR [r11]
; File z:\sources\lunor\repos\rougemeilland\palmtree.math.core.uint\palmtree.math.core.uint\pmc_inline_func.h

; 333  :         return (_mulx_u64(u, v, w_hi));

	mov	rdx, rbx
	mulx	rcx, r8, rax

; 238  :         return (_addcarryx_u64(carry, u, v, w));

	add	r8, QWORD PTR [r9]
	adcx	rcx, r14
	add	r8, r10
	mov	r10, rcx
; File z:\sources\lunor\repos\rougemeilland\palmtree.math.core.uint\palmtree.math.core.uint\pmc_multiply.c

; 59   :     *wp = t_lo;

	mov	QWORD PTR [r9], r8
; File z:\sources\lunor\repos\rougemeilland\palmtree.math.core.uint\palmtree.math.core.uint\pmc_inline_func.h

; 238  :         return (_addcarryx_u64(carry, u, v, w));

	adcx	r10, r14
	mov	QWORD PTR t_hi$125[rbp-256], r10
; File z:\sources\lunor\repos\rougemeilland\palmtree.math.core.uint\palmtree.math.core.uint\pmc_multiply.c

; 343  :         wp += 1;

	add	r9, 8
; File z:\sources\lunor\repos\rougemeilland\palmtree.math.core.uint\palmtree.math.core.uint\pmc_inline_func.h

; 238  :         return (_addcarryx_u64(carry, u, v, w));

	mov	QWORD PTR t_lo$124[rbp-256], r8
; File z:\sources\lunor\repos\rougemeilland\palmtree.math.core.uint\palmtree.math.core.uint\pmc_uint_internal.h

; 326  :         _InterlockedIncrement(&statistics_info.COUNT_MULTI64);

	lock inc DWORD PTR statistics_info
$LN801@Multiply_W:
; File z:\sources\lunor\repos\rougemeilland\palmtree.math.core.uint\palmtree.math.core.uint\pmc_multiply.c

; 352  :     if (k != 0)

	xor	eax, eax
	test	r10, r10
	je	SHORT $LN21@Multiply_W

; 353  :         *wp = k;

	mov	QWORD PTR [r9], r10
$LN21@Multiply_W:

; 354  : 
; 355  :     return (PMC_STATUS_OK);
; 356  : }

	lea	r11, QWORD PTR [rsp+1008]
	mov	rbx, QWORD PTR [r11+32]
	mov	rsi, QWORD PTR [r11+48]
	mov	rsp, r11
	pop	r14
	pop	rdi
	pop	rbp
	ret	0
Multiply_WORD_using_MULX_ADCX ENDP
_TEXT	ENDS
; Function compile flags: /Ogtpy
; File z:\sources\lunor\repos\rougemeilland\palmtree.math.core.uint\palmtree.math.core.uint\pmc_multiply.c
; File z:\sources\lunor\repos\rougemeilland\palmtree.math.core.uint\palmtree.math.core.uint\pmc_inline_func.h
; File z:\sources\lunor\repos\rougemeilland\palmtree.math.core.uint\palmtree.math.core.uint\pmc_multiply.c
; File z:\sources\lunor\repos\rougemeilland\palmtree.math.core.uint\palmtree.math.core.uint\pmc_inline_func.h
; File z:\sources\lunor\repos\rougemeilland\palmtree.math.core.uint\palmtree.math.core.uint\pmc_multiply.c
; File z:\sources\lunor\repos\rougemeilland\palmtree.math.core.uint\palmtree.math.core.uint\pmc_inline_func.h
; File z:\sources\lunor\repos\rougemeilland\palmtree.math.core.uint\palmtree.math.core.uint\pmc_multiply.c
; File z:\sources\lunor\repos\rougemeilland\palmtree.math.core.uint\palmtree.math.core.uint\pmc_inline_func.h
; File z:\sources\lunor\repos\rougemeilland\palmtree.math.core.uint\palmtree.math.core.uint\pmc_multiply.c
; File z:\sources\lunor\repos\rougemeilland\palmtree.math.core.uint\palmtree.math.core.uint\pmc_inline_func.h
; File z:\sources\lunor\repos\rougemeilland\palmtree.math.core.uint\palmtree.math.core.uint\pmc_multiply.c
; File z:\sources\lunor\repos\rougemeilland\palmtree.math.core.uint\palmtree.math.core.uint\pmc_inline_func.h
; File z:\sources\lunor\repos\rougemeilland\palmtree.math.core.uint\palmtree.math.core.uint\pmc_multiply.c
; File z:\sources\lunor\repos\rougemeilland\palmtree.math.core.uint\palmtree.math.core.uint\pmc_inline_func.h
; File z:\sources\lunor\repos\rougemeilland\palmtree.math.core.uint\palmtree.math.core.uint\pmc_multiply.c
; File z:\sources\lunor\repos\rougemeilland\palmtree.math.core.uint\palmtree.math.core.uint\pmc_inline_func.h
; File z:\sources\lunor\repos\rougemeilland\palmtree.math.core.uint\palmtree.math.core.uint\pmc_multiply.c
; File z:\sources\lunor\repos\rougemeilland\palmtree.math.core.uint\palmtree.math.core.uint\pmc_inline_func.h
; File z:\sources\lunor\repos\rougemeilland\palmtree.math.core.uint\palmtree.math.core.uint\pmc_multiply.c
; File z:\sources\lunor\repos\rougemeilland\palmtree.math.core.uint\palmtree.math.core.uint\pmc_inline_func.h
; File z:\sources\lunor\repos\rougemeilland\palmtree.math.core.uint\palmtree.math.core.uint\pmc_multiply.c
; File z:\sources\lunor\repos\rougemeilland\palmtree.math.core.uint\palmtree.math.core.uint\pmc_inline_func.h
; File z:\sources\lunor\repos\rougemeilland\palmtree.math.core.uint\palmtree.math.core.uint\pmc_multiply.c
; File z:\sources\lunor\repos\rougemeilland\palmtree.math.core.uint\palmtree.math.core.uint\pmc_inline_func.h
; File z:\sources\lunor\repos\rougemeilland\palmtree.math.core.uint\palmtree.math.core.uint\pmc_multiply.c
; File z:\sources\lunor\repos\rougemeilland\palmtree.math.core.uint\palmtree.math.core.uint\pmc_inline_func.h
; File z:\sources\lunor\repos\rougemeilland\palmtree.math.core.uint\palmtree.math.core.uint\pmc_multiply.c
; File z:\sources\lunor\repos\rougemeilland\palmtree.math.core.uint\palmtree.math.core.uint\pmc_inline_func.h
; File z:\sources\lunor\repos\rougemeilland\palmtree.math.core.uint\palmtree.math.core.uint\pmc_multiply.c
; File z:\sources\lunor\repos\rougemeilland\palmtree.math.core.uint\palmtree.math.core.uint\pmc_inline_func.h
; File z:\sources\lunor\repos\rougemeilland\palmtree.math.core.uint\palmtree.math.core.uint\pmc_multiply.c
; File z:\sources\lunor\repos\rougemeilland\palmtree.math.core.uint\palmtree.math.core.uint\pmc_inline_func.h
; File z:\sources\lunor\repos\rougemeilland\palmtree.math.core.uint\palmtree.math.core.uint\pmc_multiply.c
; File z:\sources\lunor\repos\rougemeilland\palmtree.math.core.uint\palmtree.math.core.uint\pmc_inline_func.h
; File z:\sources\lunor\repos\rougemeilland\palmtree.math.core.uint\palmtree.math.core.uint\pmc_multiply.c
; File z:\sources\lunor\repos\rougemeilland\palmtree.math.core.uint\palmtree.math.core.uint\pmc_inline_func.h
; File z:\sources\lunor\repos\rougemeilland\palmtree.math.core.uint\palmtree.math.core.uint\pmc_multiply.c
; File z:\sources\lunor\repos\rougemeilland\palmtree.math.core.uint\palmtree.math.core.uint\pmc_inline_func.h
; File z:\sources\lunor\repos\rougemeilland\palmtree.math.core.uint\palmtree.math.core.uint\pmc_multiply.c
; File z:\sources\lunor\repos\rougemeilland\palmtree.math.core.uint\palmtree.math.core.uint\pmc_inline_func.h
; File z:\sources\lunor\repos\rougemeilland\palmtree.math.core.uint\palmtree.math.core.uint\pmc_multiply.c
; File z:\sources\lunor\repos\rougemeilland\palmtree.math.core.uint\palmtree.math.core.uint\pmc_inline_func.h
; File z:\sources\lunor\repos\rougemeilland\palmtree.math.core.uint\palmtree.math.core.uint\pmc_multiply.c
; File z:\sources\lunor\repos\rougemeilland\palmtree.math.core.uint\palmtree.math.core.uint\pmc_inline_func.h
; File z:\sources\lunor\repos\rougemeilland\palmtree.math.core.uint\palmtree.math.core.uint\pmc_multiply.c
; File z:\sources\lunor\repos\rougemeilland\palmtree.math.core.uint\palmtree.math.core.uint\pmc_inline_func.h
; File z:\sources\lunor\repos\rougemeilland\palmtree.math.core.uint\palmtree.math.core.uint\pmc_multiply.c
; File z:\sources\lunor\repos\rougemeilland\palmtree.math.core.uint\palmtree.math.core.uint\pmc_inline_func.h
; File z:\sources\lunor\repos\rougemeilland\palmtree.math.core.uint\palmtree.math.core.uint\pmc_multiply.c
; File z:\sources\lunor\repos\rougemeilland\palmtree.math.core.uint\palmtree.math.core.uint\pmc_inline_func.h
; File z:\sources\lunor\repos\rougemeilland\palmtree.math.core.uint\palmtree.math.core.uint\pmc_multiply.c
; File z:\sources\lunor\repos\rougemeilland\palmtree.math.core.uint\palmtree.math.core.uint\pmc_inline_func.h
; File z:\sources\lunor\repos\rougemeilland\palmtree.math.core.uint\palmtree.math.core.uint\pmc_multiply.c
; File z:\sources\lunor\repos\rougemeilland\palmtree.math.core.uint\palmtree.math.core.uint\pmc_inline_func.h
; File z:\sources\lunor\repos\rougemeilland\palmtree.math.core.uint\palmtree.math.core.uint\pmc_multiply.c
; File z:\sources\lunor\repos\rougemeilland\palmtree.math.core.uint\palmtree.math.core.uint\pmc_inline_func.h
; File z:\sources\lunor\repos\rougemeilland\palmtree.math.core.uint\palmtree.math.core.uint\pmc_multiply.c
; File z:\sources\lunor\repos\rougemeilland\palmtree.math.core.uint\palmtree.math.core.uint\pmc_inline_func.h
; File z:\sources\lunor\repos\rougemeilland\palmtree.math.core.uint\palmtree.math.core.uint\pmc_multiply.c
; File z:\sources\lunor\repos\rougemeilland\palmtree.math.core.uint\palmtree.math.core.uint\pmc_inline_func.h
; File z:\sources\lunor\repos\rougemeilland\palmtree.math.core.uint\palmtree.math.core.uint\pmc_multiply.c
; File z:\sources\lunor\repos\rougemeilland\palmtree.math.core.uint\palmtree.math.core.uint\pmc_inline_func.h
; File z:\sources\lunor\repos\rougemeilland\palmtree.math.core.uint\palmtree.math.core.uint\pmc_multiply.c
; File z:\sources\lunor\repos\rougemeilland\palmtree.math.core.uint\palmtree.math.core.uint\pmc_inline_func.h
; File z:\sources\lunor\repos\rougemeilland\palmtree.math.core.uint\palmtree.math.core.uint\pmc_multiply.c
; File z:\sources\lunor\repos\rougemeilland\palmtree.math.core.uint\palmtree.math.core.uint\pmc_inline_func.h
; File z:\sources\lunor\repos\rougemeilland\palmtree.math.core.uint\palmtree.math.core.uint\pmc_multiply.c
; File z:\sources\lunor\repos\rougemeilland\palmtree.math.core.uint\palmtree.math.core.uint\pmc_inline_func.h
; File z:\sources\lunor\repos\rougemeilland\palmtree.math.core.uint\palmtree.math.core.uint\pmc_multiply.c
; File z:\sources\lunor\repos\rougemeilland\palmtree.math.core.uint\palmtree.math.core.uint\pmc_uint_internal.h
; File z:\sources\lunor\repos\rougemeilland\palmtree.math.core.uint\palmtree.math.core.uint\pmc_multiply.c
; File z:\sources\lunor\repos\rougemeilland\palmtree.math.core.uint\palmtree.math.core.uint\pmc_inline_func.h
; File z:\sources\lunor\repos\rougemeilland\palmtree.math.core.uint\palmtree.math.core.uint\pmc_multiply.c
; File z:\sources\lunor\repos\rougemeilland\palmtree.math.core.uint\palmtree.math.core.uint\pmc_inline_func.h
; File z:\sources\lunor\repos\rougemeilland\palmtree.math.core.uint\palmtree.math.core.uint\pmc_multiply.c
; File z:\sources\lunor\repos\rougemeilland\palmtree.math.core.uint\palmtree.math.core.uint\pmc_inline_func.h
; File z:\sources\lunor\repos\rougemeilland\palmtree.math.core.uint\palmtree.math.core.uint\pmc_multiply.c
; File z:\sources\lunor\repos\rougemeilland\palmtree.math.core.uint\palmtree.math.core.uint\pmc_inline_func.h
; File z:\sources\lunor\repos\rougemeilland\palmtree.math.core.uint\palmtree.math.core.uint\pmc_multiply.c
; File z:\sources\lunor\repos\rougemeilland\palmtree.math.core.uint\palmtree.math.core.uint\pmc_inline_func.h
; File z:\sources\lunor\repos\rougemeilland\palmtree.math.core.uint\palmtree.math.core.uint\pmc_multiply.c
; File z:\sources\lunor\repos\rougemeilland\palmtree.math.core.uint\palmtree.math.core.uint\pmc_inline_func.h
; File z:\sources\lunor\repos\rougemeilland\palmtree.math.core.uint\palmtree.math.core.uint\pmc_multiply.c
; File z:\sources\lunor\repos\rougemeilland\palmtree.math.core.uint\palmtree.math.core.uint\pmc_inline_func.h
; File z:\sources\lunor\repos\rougemeilland\palmtree.math.core.uint\palmtree.math.core.uint\pmc_multiply.c
; File z:\sources\lunor\repos\rougemeilland\palmtree.math.core.uint\palmtree.math.core.uint\pmc_inline_func.h
; File z:\sources\lunor\repos\rougemeilland\palmtree.math.core.uint\palmtree.math.core.uint\pmc_multiply.c
; File z:\sources\lunor\repos\rougemeilland\palmtree.math.core.uint\palmtree.math.core.uint\pmc_inline_func.h
; File z:\sources\lunor\repos\rougemeilland\palmtree.math.core.uint\palmtree.math.core.uint\pmc_multiply.c
; File z:\sources\lunor\repos\rougemeilland\palmtree.math.core.uint\palmtree.math.core.uint\pmc_inline_func.h
; File z:\sources\lunor\repos\rougemeilland\palmtree.math.core.uint\palmtree.math.core.uint\pmc_multiply.c
; File z:\sources\lunor\repos\rougemeilland\palmtree.math.core.uint\palmtree.math.core.uint\pmc_inline_func.h
; File z:\sources\lunor\repos\rougemeilland\palmtree.math.core.uint\palmtree.math.core.uint\pmc_multiply.c
; File z:\sources\lunor\repos\rougemeilland\palmtree.math.core.uint\palmtree.math.core.uint\pmc_inline_func.h
; File z:\sources\lunor\repos\rougemeilland\palmtree.math.core.uint\palmtree.math.core.uint\pmc_multiply.c
; File z:\sources\lunor\repos\rougemeilland\palmtree.math.core.uint\palmtree.math.core.uint\pmc_inline_func.h
; File z:\sources\lunor\repos\rougemeilland\palmtree.math.core.uint\palmtree.math.core.uint\pmc_multiply.c
; File z:\sources\lunor\repos\rougemeilland\palmtree.math.core.uint\palmtree.math.core.uint\pmc_inline_func.h
; File z:\sources\lunor\repos\rougemeilland\palmtree.math.core.uint\palmtree.math.core.uint\pmc_multiply.c
; File z:\sources\lunor\repos\rougemeilland\palmtree.math.core.uint\palmtree.math.core.uint\pmc_inline_func.h
; File z:\sources\lunor\repos\rougemeilland\palmtree.math.core.uint\palmtree.math.core.uint\pmc_multiply.c
; File z:\sources\lunor\repos\rougemeilland\palmtree.math.core.uint\palmtree.math.core.uint\pmc_inline_func.h
; File z:\sources\lunor\repos\rougemeilland\palmtree.math.core.uint\palmtree.math.core.uint\pmc_multiply.c
; File z:\sources\lunor\repos\rougemeilland\palmtree.math.core.uint\palmtree.math.core.uint\pmc_inline_func.h
; File z:\sources\lunor\repos\rougemeilland\palmtree.math.core.uint\palmtree.math.core.uint\pmc_multiply.c
; File z:\sources\lunor\repos\rougemeilland\palmtree.math.core.uint\palmtree.math.core.uint\pmc_inline_func.h
; File z:\sources\lunor\repos\rougemeilland\palmtree.math.core.uint\palmtree.math.core.uint\pmc_multiply.c
; File z:\sources\lunor\repos\rougemeilland\palmtree.math.core.uint\palmtree.math.core.uint\pmc_uint_internal.h
; File z:\sources\lunor\repos\rougemeilland\palmtree.math.core.uint\palmtree.math.core.uint\pmc_multiply.c
; File z:\sources\lunor\repos\rougemeilland\palmtree.math.core.uint\palmtree.math.core.uint\pmc_inline_func.h
; File z:\sources\lunor\repos\rougemeilland\palmtree.math.core.uint\palmtree.math.core.uint\pmc_multiply.c
; File z:\sources\lunor\repos\rougemeilland\palmtree.math.core.uint\palmtree.math.core.uint\pmc_inline_func.h
; File z:\sources\lunor\repos\rougemeilland\palmtree.math.core.uint\palmtree.math.core.uint\pmc_multiply.c
; File z:\sources\lunor\repos\rougemeilland\palmtree.math.core.uint\palmtree.math.core.uint\pmc_inline_func.h
; File z:\sources\lunor\repos\rougemeilland\palmtree.math.core.uint\palmtree.math.core.uint\pmc_multiply.c
; File z:\sources\lunor\repos\rougemeilland\palmtree.math.core.uint\palmtree.math.core.uint\pmc_inline_func.h
; File z:\sources\lunor\repos\rougemeilland\palmtree.math.core.uint\palmtree.math.core.uint\pmc_multiply.c
; File z:\sources\lunor\repos\rougemeilland\palmtree.math.core.uint\palmtree.math.core.uint\pmc_inline_func.h
; File z:\sources\lunor\repos\rougemeilland\palmtree.math.core.uint\palmtree.math.core.uint\pmc_multiply.c
; File z:\sources\lunor\repos\rougemeilland\palmtree.math.core.uint\palmtree.math.core.uint\pmc_inline_func.h
; File z:\sources\lunor\repos\rougemeilland\palmtree.math.core.uint\palmtree.math.core.uint\pmc_multiply.c
; File z:\sources\lunor\repos\rougemeilland\palmtree.math.core.uint\palmtree.math.core.uint\pmc_inline_func.h
; File z:\sources\lunor\repos\rougemeilland\palmtree.math.core.uint\palmtree.math.core.uint\pmc_multiply.c
; File z:\sources\lunor\repos\rougemeilland\palmtree.math.core.uint\palmtree.math.core.uint\pmc_inline_func.h
; File z:\sources\lunor\repos\rougemeilland\palmtree.math.core.uint\palmtree.math.core.uint\pmc_multiply.c
; File z:\sources\lunor\repos\rougemeilland\palmtree.math.core.uint\palmtree.math.core.uint\pmc_inline_func.h
; File z:\sources\lunor\repos\rougemeilland\palmtree.math.core.uint\palmtree.math.core.uint\pmc_multiply.c
; File z:\sources\lunor\repos\rougemeilland\palmtree.math.core.uint\palmtree.math.core.uint\pmc_uint_internal.h
; File z:\sources\lunor\repos\rougemeilland\palmtree.math.core.uint\palmtree.math.core.uint\pmc_multiply.c
; File z:\sources\lunor\repos\rougemeilland\palmtree.math.core.uint\palmtree.math.core.uint\pmc_inline_func.h
; File z:\sources\lunor\repos\rougemeilland\palmtree.math.core.uint\palmtree.math.core.uint\pmc_multiply.c
; File z:\sources\lunor\repos\rougemeilland\palmtree.math.core.uint\palmtree.math.core.uint\pmc_inline_func.h
; File z:\sources\lunor\repos\rougemeilland\palmtree.math.core.uint\palmtree.math.core.uint\pmc_multiply.c
; File z:\sources\lunor\repos\rougemeilland\palmtree.math.core.uint\palmtree.math.core.uint\pmc_inline_func.h
; File z:\sources\lunor\repos\rougemeilland\palmtree.math.core.uint\palmtree.math.core.uint\pmc_multiply.c
; File z:\sources\lunor\repos\rougemeilland\palmtree.math.core.uint\palmtree.math.core.uint\pmc_inline_func.h
; File z:\sources\lunor\repos\rougemeilland\palmtree.math.core.uint\palmtree.math.core.uint\pmc_multiply.c
; File z:\sources\lunor\repos\rougemeilland\palmtree.math.core.uint\palmtree.math.core.uint\pmc_inline_func.h
; File z:\sources\lunor\repos\rougemeilland\palmtree.math.core.uint\palmtree.math.core.uint\pmc_multiply.c
; File z:\sources\lunor\repos\rougemeilland\palmtree.math.core.uint\palmtree.math.core.uint\pmc_inline_func.h
; File z:\sources\lunor\repos\rougemeilland\palmtree.math.core.uint\palmtree.math.core.uint\pmc_multiply.c
; File z:\sources\lunor\repos\rougemeilland\palmtree.math.core.uint\palmtree.math.core.uint\pmc_uint_internal.h
; File z:\sources\lunor\repos\rougemeilland\palmtree.math.core.uint\palmtree.math.core.uint\pmc_multiply.c
; File z:\sources\lunor\repos\rougemeilland\palmtree.math.core.uint\palmtree.math.core.uint\pmc_inline_func.h
; File z:\sources\lunor\repos\rougemeilland\palmtree.math.core.uint\palmtree.math.core.uint\pmc_multiply.c
; File z:\sources\lunor\repos\rougemeilland\palmtree.math.core.uint\palmtree.math.core.uint\pmc_inline_func.h
; File z:\sources\lunor\repos\rougemeilland\palmtree.math.core.uint\palmtree.math.core.uint\pmc_multiply.c
; File z:\sources\lunor\repos\rougemeilland\palmtree.math.core.uint\palmtree.math.core.uint\pmc_inline_func.h
; File z:\sources\lunor\repos\rougemeilland\palmtree.math.core.uint\palmtree.math.core.uint\pmc_multiply.c
; File z:\sources\lunor\repos\rougemeilland\palmtree.math.core.uint\palmtree.math.core.uint\pmc_inline_func.h
; File z:\sources\lunor\repos\rougemeilland\palmtree.math.core.uint\palmtree.math.core.uint\pmc_multiply.c
; File z:\sources\lunor\repos\rougemeilland\palmtree.math.core.uint\palmtree.math.core.uint\pmc_uint_internal.h
; File z:\sources\lunor\repos\rougemeilland\palmtree.math.core.uint\palmtree.math.core.uint\pmc_multiply.c
; File z:\sources\lunor\repos\rougemeilland\palmtree.math.core.uint\palmtree.math.core.uint\pmc_inline_func.h
; File z:\sources\lunor\repos\rougemeilland\palmtree.math.core.uint\palmtree.math.core.uint\pmc_multiply.c
; File z:\sources\lunor\repos\rougemeilland\palmtree.math.core.uint\palmtree.math.core.uint\pmc_inline_func.h
; File z:\sources\lunor\repos\rougemeilland\palmtree.math.core.uint\palmtree.math.core.uint\pmc_multiply.c
; File z:\sources\lunor\repos\rougemeilland\palmtree.math.core.uint\palmtree.math.core.uint\pmc_uint_internal.h
; File z:\sources\lunor\repos\rougemeilland\palmtree.math.core.uint\palmtree.math.core.uint\pmc_multiply.c
;	COMDAT Multiply_WORD_using_MUL_ADC
_TEXT	SEGMENT
t_hi$1 = 0
t_lo$2 = 8
t_hi$3 = 16
t_lo$4 = 24
t_hi$5 = 32
t_lo$6 = 40
t_hi$7 = 48
t_lo$8 = 56
t_hi$9 = 64
t_lo$10 = 72
t_hi$11 = 80
t_lo$12 = 88
t_hi$13 = 96
t_lo$14 = 104
t_hi$15 = 112
t_lo$16 = 120
t_hi$17 = 128
t_lo$18 = 136
t_hi$19 = 144
t_lo$20 = 152
t_hi$21 = 160
t_lo$22 = 168
t_hi$23 = 176
t_lo$24 = 184
t_hi$25 = 192
t_lo$26 = 200
t_hi$27 = 208
t_lo$28 = 216
t_hi$29 = 224
t_lo$30 = 232
t_hi$31 = 240
t_lo$32 = 248
t_hi$33 = 256
t_lo$34 = 264
t_hi$35 = 272
t_lo$36 = 280
t_hi$37 = 288
t_lo$38 = 296
t_hi$39 = 304
t_lo$40 = 312
t_hi$41 = 320
t_lo$42 = 328
t_hi$43 = 336
t_lo$44 = 344
t_hi$45 = 352
t_lo$46 = 360
t_hi$47 = 368
t_lo$48 = 376
t_hi$49 = 384
t_lo$50 = 392
t_hi$51 = 400
t_lo$52 = 408
t_hi$53 = 416
t_lo$54 = 424
t_hi$55 = 432
t_lo$56 = 440
t_hi$57 = 448
t_lo$58 = 456
t_hi$59 = 464
t_lo$60 = 472
t_hi$61 = 480
t_lo$62 = 488
t_hi$63 = 496
t_lo$64 = 504
t_hi$65 = 512
t_lo$66 = 520
t_hi$67 = 528
t_lo$68 = 536
t_hi$69 = 544
t_lo$70 = 552
t_hi$71 = 560
t_lo$72 = 568
t_hi$73 = 576
t_lo$74 = 584
t_hi$75 = 592
t_lo$76 = 600
t_hi$77 = 608
t_lo$78 = 616
t_hi$79 = 624
t_lo$80 = 632
t_hi$81 = 640
t_lo$82 = 648
t_hi$83 = 656
t_lo$84 = 664
t_hi$85 = 672
t_lo$86 = 680
t_hi$87 = 688
t_lo$88 = 696
t_hi$89 = 704
t_lo$90 = 712
t_hi$91 = 720
t_lo$92 = 728
t_hi$93 = 736
t_lo$94 = 744
t_hi$95 = 752
t_lo$96 = 760
t_hi$97 = 768
t_lo$98 = 776
t_hi$99 = 784
t_lo$100 = 792
t_hi$101 = 800
t_lo$102 = 808
t_hi$103 = 816
t_lo$104 = 824
t_hi$105 = 832
t_lo$106 = 840
t_hi$107 = 848
t_lo$108 = 856
t_hi$109 = 864
t_lo$110 = 872
t_hi$111 = 880
t_lo$112 = 888
t_hi$113 = 896
t_lo$114 = 904
t_hi$115 = 912
t_lo$116 = 920
t_hi$117 = 928
t_lo$118 = 936
t_hi$119 = 944
t_lo$120 = 952
t_hi$121 = 960
t_lo$122 = 968
t_hi$123 = 976
t_lo$124 = 984
t_hi$125 = 992
up$ = 1024
t_lo$126 = 1032
u_count$ = 1032
v$ = 1040
wp$ = 1048
Multiply_WORD_using_MUL_ADC PROC			; COMDAT

; 65   : {

	mov	QWORD PTR [rsp+8], rbx
	mov	QWORD PTR [rsp+24], rsi
	mov	QWORD PTR [rsp+32], rdi
	push	rbp
	lea	rbp, QWORD PTR [rsp-752]
	sub	rsp, 1008				; 000003f0H

; 66   :     __UNIT_TYPE k = 0;
; 67   :     __UNIT_TYPE count = u_count >> 5;

	mov	rsi, rdx
	xor	r10d, r10d
	shr	rsi, 5
	mov	rbx, r8
	mov	rdi, rdx
	mov	r11, rcx

; 69   :     while (count != 0)

	test	rsi, rsi
	je	$LN3@Multiply_W
	npad	5
$LL2@Multiply_W:
; File z:\sources\lunor\repos\rougemeilland\palmtree.math.core.uint\palmtree.math.core.uint\pmc_inline_func.h

; 302  :         return (_umul128(u, v, w_hi));

	mov	rax, rbx
	mul	QWORD PTR [r11]

; 210  :         return (_addcarry_u64(carry, u, v, w));

	add	rax, QWORD PTR [r9]

; 302  :         return (_umul128(u, v, w_hi));

	mov	rcx, rdx

; 210  :         return (_addcarry_u64(carry, u, v, w));

	adc	rcx, 0
	add	rax, r10
; File z:\sources\lunor\repos\rougemeilland\palmtree.math.core.uint\palmtree.math.core.uint\pmc_multiply.c

; 47   :     *wp = t_lo;

	mov	QWORD PTR [r9], rax
; File z:\sources\lunor\repos\rougemeilland\palmtree.math.core.uint\palmtree.math.core.uint\pmc_inline_func.h

; 210  :         return (_addcarry_u64(carry, u, v, w));

	adc	rcx, 0
	mov	QWORD PTR t_lo$126[rbp-256], rax
	mov	QWORD PTR t_hi$1[rsp], rcx

; 302  :         return (_umul128(u, v, w_hi));

	mov	rax, rbx
	mul	QWORD PTR [r11+8]

; 210  :         return (_addcarry_u64(carry, u, v, w));

	add	rax, QWORD PTR [r9+8]

; 302  :         return (_umul128(u, v, w_hi));

	mov	r8, rdx

; 210  :         return (_addcarry_u64(carry, u, v, w));

	adc	r8, 0
	add	rax, rcx
; File z:\sources\lunor\repos\rougemeilland\palmtree.math.core.uint\palmtree.math.core.uint\pmc_multiply.c

; 47   :     *wp = t_lo;

	mov	QWORD PTR [r9+8], rax
; File z:\sources\lunor\repos\rougemeilland\palmtree.math.core.uint\palmtree.math.core.uint\pmc_inline_func.h

; 210  :         return (_addcarry_u64(carry, u, v, w));

	adc	r8, 0
	mov	QWORD PTR t_lo$2[rsp], rax
	mov	QWORD PTR t_hi$3[rsp], r8

; 302  :         return (_umul128(u, v, w_hi));

	mov	rax, rbx
	mul	QWORD PTR [r11+16]

; 210  :         return (_addcarry_u64(carry, u, v, w));

	add	rax, QWORD PTR [r9+16]

; 302  :         return (_umul128(u, v, w_hi));

	mov	rcx, rdx

; 210  :         return (_addcarry_u64(carry, u, v, w));

	adc	rcx, 0
	add	rax, r8
; File z:\sources\lunor\repos\rougemeilland\palmtree.math.core.uint\palmtree.math.core.uint\pmc_multiply.c

; 47   :     *wp = t_lo;

	mov	QWORD PTR [r9+16], rax
; File z:\sources\lunor\repos\rougemeilland\palmtree.math.core.uint\palmtree.math.core.uint\pmc_inline_func.h

; 210  :         return (_addcarry_u64(carry, u, v, w));

	adc	rcx, 0
	mov	QWORD PTR t_lo$4[rsp], rax
	mov	QWORD PTR t_hi$5[rsp], rcx

; 302  :         return (_umul128(u, v, w_hi));

	mov	rax, rbx
	mul	QWORD PTR [r11+24]

; 210  :         return (_addcarry_u64(carry, u, v, w));

	add	rax, QWORD PTR [r9+24]

; 302  :         return (_umul128(u, v, w_hi));

	mov	r8, rdx

; 210  :         return (_addcarry_u64(carry, u, v, w));

	adc	r8, 0
	add	rax, rcx
; File z:\sources\lunor\repos\rougemeilland\palmtree.math.core.uint\palmtree.math.core.uint\pmc_multiply.c

; 47   :     *wp = t_lo;

	mov	QWORD PTR [r9+24], rax
; File z:\sources\lunor\repos\rougemeilland\palmtree.math.core.uint\palmtree.math.core.uint\pmc_inline_func.h

; 210  :         return (_addcarry_u64(carry, u, v, w));

	adc	r8, 0
	mov	QWORD PTR t_lo$6[rsp], rax
	mov	QWORD PTR t_hi$7[rsp], r8

; 302  :         return (_umul128(u, v, w_hi));

	mov	rax, rbx
	mul	QWORD PTR [r11+32]

; 210  :         return (_addcarry_u64(carry, u, v, w));

	add	rax, QWORD PTR [r9+32]

; 302  :         return (_umul128(u, v, w_hi));

	mov	rcx, rdx

; 210  :         return (_addcarry_u64(carry, u, v, w));

	adc	rcx, 0
	add	rax, r8
; File z:\sources\lunor\repos\rougemeilland\palmtree.math.core.uint\palmtree.math.core.uint\pmc_multiply.c

; 47   :     *wp = t_lo;

	mov	QWORD PTR [r9+32], rax
; File z:\sources\lunor\repos\rougemeilland\palmtree.math.core.uint\palmtree.math.core.uint\pmc_inline_func.h

; 210  :         return (_addcarry_u64(carry, u, v, w));

	adc	rcx, 0
	mov	QWORD PTR t_lo$8[rsp], rax
	mov	QWORD PTR t_hi$9[rsp], rcx

; 302  :         return (_umul128(u, v, w_hi));

	mov	rax, rbx
	mul	QWORD PTR [r11+40]

; 210  :         return (_addcarry_u64(carry, u, v, w));

	add	rax, QWORD PTR [r9+40]

; 302  :         return (_umul128(u, v, w_hi));

	mov	r8, rdx

; 210  :         return (_addcarry_u64(carry, u, v, w));

	adc	r8, 0
	add	rax, rcx
; File z:\sources\lunor\repos\rougemeilland\palmtree.math.core.uint\palmtree.math.core.uint\pmc_multiply.c

; 47   :     *wp = t_lo;

	mov	QWORD PTR [r9+40], rax
; File z:\sources\lunor\repos\rougemeilland\palmtree.math.core.uint\palmtree.math.core.uint\pmc_inline_func.h

; 210  :         return (_addcarry_u64(carry, u, v, w));

	adc	r8, 0
	mov	QWORD PTR t_lo$10[rsp], rax
	mov	QWORD PTR t_hi$11[rsp], r8

; 302  :         return (_umul128(u, v, w_hi));

	mov	rax, rbx
	mul	QWORD PTR [r11+48]

; 210  :         return (_addcarry_u64(carry, u, v, w));

	add	rax, QWORD PTR [r9+48]

; 302  :         return (_umul128(u, v, w_hi));

	mov	rcx, rdx

; 210  :         return (_addcarry_u64(carry, u, v, w));

	adc	rcx, 0
	add	rax, r8
; File z:\sources\lunor\repos\rougemeilland\palmtree.math.core.uint\palmtree.math.core.uint\pmc_multiply.c

; 47   :     *wp = t_lo;

	mov	QWORD PTR [r9+48], rax
; File z:\sources\lunor\repos\rougemeilland\palmtree.math.core.uint\palmtree.math.core.uint\pmc_inline_func.h

; 210  :         return (_addcarry_u64(carry, u, v, w));

	adc	rcx, 0
	mov	QWORD PTR t_lo$12[rsp], rax

; 302  :         return (_umul128(u, v, w_hi));

	mov	rax, rbx

; 210  :         return (_addcarry_u64(carry, u, v, w));

	mov	QWORD PTR t_hi$13[rsp], rcx

; 302  :         return (_umul128(u, v, w_hi));

	mul	QWORD PTR [r11+56]

; 210  :         return (_addcarry_u64(carry, u, v, w));

	add	rax, QWORD PTR [r9+56]

; 302  :         return (_umul128(u, v, w_hi));

	mov	r8, rdx

; 210  :         return (_addcarry_u64(carry, u, v, w));

	adc	r8, 0
	add	rax, rcx
	mov	QWORD PTR t_lo$14[rsp], rax
	adc	r8, 0
; File z:\sources\lunor\repos\rougemeilland\palmtree.math.core.uint\palmtree.math.core.uint\pmc_multiply.c

; 47   :     *wp = t_lo;

	mov	QWORD PTR [r9+56], rax
; File z:\sources\lunor\repos\rougemeilland\palmtree.math.core.uint\palmtree.math.core.uint\pmc_inline_func.h

; 210  :         return (_addcarry_u64(carry, u, v, w));

	mov	QWORD PTR t_hi$15[rsp], r8

; 302  :         return (_umul128(u, v, w_hi));

	mov	rax, rbx
	mul	QWORD PTR [r11+64]

; 210  :         return (_addcarry_u64(carry, u, v, w));

	add	rax, QWORD PTR [r9+64]

; 302  :         return (_umul128(u, v, w_hi));

	mov	rcx, rdx

; 210  :         return (_addcarry_u64(carry, u, v, w));

	adc	rcx, 0
	add	rax, r8
; File z:\sources\lunor\repos\rougemeilland\palmtree.math.core.uint\palmtree.math.core.uint\pmc_multiply.c

; 47   :     *wp = t_lo;

	mov	QWORD PTR [r9+64], rax
; File z:\sources\lunor\repos\rougemeilland\palmtree.math.core.uint\palmtree.math.core.uint\pmc_inline_func.h

; 210  :         return (_addcarry_u64(carry, u, v, w));

	adc	rcx, 0
	mov	QWORD PTR t_lo$16[rsp], rax
	mov	QWORD PTR t_hi$17[rbp-256], rcx

; 302  :         return (_umul128(u, v, w_hi));

	mov	rax, rbx
	mul	QWORD PTR [r11+72]

; 210  :         return (_addcarry_u64(carry, u, v, w));

	add	rax, QWORD PTR [r9+72]

; 302  :         return (_umul128(u, v, w_hi));

	mov	r8, rdx

; 210  :         return (_addcarry_u64(carry, u, v, w));

	adc	r8, 0
	add	rax, rcx
; File z:\sources\lunor\repos\rougemeilland\palmtree.math.core.uint\palmtree.math.core.uint\pmc_multiply.c

; 47   :     *wp = t_lo;

	mov	QWORD PTR [r9+72], rax
; File z:\sources\lunor\repos\rougemeilland\palmtree.math.core.uint\palmtree.math.core.uint\pmc_inline_func.h

; 210  :         return (_addcarry_u64(carry, u, v, w));

	adc	r8, 0
	mov	QWORD PTR t_lo$18[rbp-256], rax
	mov	QWORD PTR t_hi$19[rbp-256], r8

; 302  :         return (_umul128(u, v, w_hi));

	mov	rax, rbx
	mul	QWORD PTR [r11+80]

; 210  :         return (_addcarry_u64(carry, u, v, w));

	add	rax, QWORD PTR [r9+80]

; 302  :         return (_umul128(u, v, w_hi));

	mov	rcx, rdx

; 210  :         return (_addcarry_u64(carry, u, v, w));

	adc	rcx, 0
	add	rax, r8
; File z:\sources\lunor\repos\rougemeilland\palmtree.math.core.uint\palmtree.math.core.uint\pmc_multiply.c

; 47   :     *wp = t_lo;

	mov	QWORD PTR [r9+80], rax
; File z:\sources\lunor\repos\rougemeilland\palmtree.math.core.uint\palmtree.math.core.uint\pmc_inline_func.h

; 210  :         return (_addcarry_u64(carry, u, v, w));

	adc	rcx, 0
	mov	QWORD PTR t_lo$20[rbp-256], rax
	mov	QWORD PTR t_hi$21[rbp-256], rcx

; 302  :         return (_umul128(u, v, w_hi));

	mov	rax, rbx
	mul	QWORD PTR [r11+88]

; 210  :         return (_addcarry_u64(carry, u, v, w));

	add	rax, QWORD PTR [r9+88]

; 302  :         return (_umul128(u, v, w_hi));

	mov	r8, rdx

; 210  :         return (_addcarry_u64(carry, u, v, w));

	adc	r8, 0
	add	rax, rcx
; File z:\sources\lunor\repos\rougemeilland\palmtree.math.core.uint\palmtree.math.core.uint\pmc_multiply.c

; 47   :     *wp = t_lo;

	mov	QWORD PTR [r9+88], rax
; File z:\sources\lunor\repos\rougemeilland\palmtree.math.core.uint\palmtree.math.core.uint\pmc_inline_func.h

; 210  :         return (_addcarry_u64(carry, u, v, w));

	adc	r8, 0
	mov	QWORD PTR t_lo$22[rbp-256], rax
	mov	QWORD PTR t_hi$23[rbp-256], r8

; 302  :         return (_umul128(u, v, w_hi));

	mov	rax, rbx
	mul	QWORD PTR [r11+96]

; 210  :         return (_addcarry_u64(carry, u, v, w));

	add	rax, QWORD PTR [r9+96]

; 302  :         return (_umul128(u, v, w_hi));

	mov	rcx, rdx

; 210  :         return (_addcarry_u64(carry, u, v, w));

	adc	rcx, 0
	add	rax, r8
; File z:\sources\lunor\repos\rougemeilland\palmtree.math.core.uint\palmtree.math.core.uint\pmc_multiply.c

; 47   :     *wp = t_lo;

	mov	QWORD PTR [r9+96], rax
; File z:\sources\lunor\repos\rougemeilland\palmtree.math.core.uint\palmtree.math.core.uint\pmc_inline_func.h

; 210  :         return (_addcarry_u64(carry, u, v, w));

	adc	rcx, 0
	mov	QWORD PTR t_lo$24[rbp-256], rax
	mov	QWORD PTR t_hi$25[rbp-256], rcx

; 302  :         return (_umul128(u, v, w_hi));

	mov	rax, rbx
	mul	QWORD PTR [r11+104]

; 210  :         return (_addcarry_u64(carry, u, v, w));

	add	rax, QWORD PTR [r9+104]

; 302  :         return (_umul128(u, v, w_hi));

	mov	r8, rdx

; 210  :         return (_addcarry_u64(carry, u, v, w));

	adc	r8, 0
	add	rax, rcx
; File z:\sources\lunor\repos\rougemeilland\palmtree.math.core.uint\palmtree.math.core.uint\pmc_multiply.c

; 47   :     *wp = t_lo;

	mov	QWORD PTR [r9+104], rax
; File z:\sources\lunor\repos\rougemeilland\palmtree.math.core.uint\palmtree.math.core.uint\pmc_inline_func.h

; 210  :         return (_addcarry_u64(carry, u, v, w));

	adc	r8, 0
	mov	QWORD PTR t_lo$26[rbp-256], rax
	mov	QWORD PTR t_hi$27[rbp-256], r8

; 302  :         return (_umul128(u, v, w_hi));

	mov	rax, rbx
	mul	QWORD PTR [r11+112]

; 210  :         return (_addcarry_u64(carry, u, v, w));

	add	rax, QWORD PTR [r9+112]

; 302  :         return (_umul128(u, v, w_hi));

	mov	rcx, rdx

; 210  :         return (_addcarry_u64(carry, u, v, w));

	adc	rcx, 0
	add	rax, r8
; File z:\sources\lunor\repos\rougemeilland\palmtree.math.core.uint\palmtree.math.core.uint\pmc_multiply.c

; 47   :     *wp = t_lo;

	mov	QWORD PTR [r9+112], rax
; File z:\sources\lunor\repos\rougemeilland\palmtree.math.core.uint\palmtree.math.core.uint\pmc_inline_func.h

; 210  :         return (_addcarry_u64(carry, u, v, w));

	adc	rcx, 0
	mov	QWORD PTR t_lo$28[rbp-256], rax

; 302  :         return (_umul128(u, v, w_hi));

	mov	rax, rbx

; 210  :         return (_addcarry_u64(carry, u, v, w));

	mov	QWORD PTR t_hi$29[rbp-256], rcx

; 302  :         return (_umul128(u, v, w_hi));

	mul	QWORD PTR [r11+120]

; 210  :         return (_addcarry_u64(carry, u, v, w));

	add	rax, QWORD PTR [r9+120]

; 302  :         return (_umul128(u, v, w_hi));

	mov	r8, rdx

; 210  :         return (_addcarry_u64(carry, u, v, w));

	adc	r8, 0
	add	rax, rcx
	mov	QWORD PTR t_lo$30[rbp-256], rax
; File z:\sources\lunor\repos\rougemeilland\palmtree.math.core.uint\palmtree.math.core.uint\pmc_multiply.c

; 47   :     *wp = t_lo;

	mov	QWORD PTR [r9+120], rax
; File z:\sources\lunor\repos\rougemeilland\palmtree.math.core.uint\palmtree.math.core.uint\pmc_inline_func.h

; 210  :         return (_addcarry_u64(carry, u, v, w));

	adc	r8, 0

; 302  :         return (_umul128(u, v, w_hi));

	mov	rax, rbx

; 210  :         return (_addcarry_u64(carry, u, v, w));

	mov	QWORD PTR t_hi$31[rbp-256], r8

; 302  :         return (_umul128(u, v, w_hi));

	mul	QWORD PTR [r11+128]

; 210  :         return (_addcarry_u64(carry, u, v, w));

	add	rax, QWORD PTR [r9+128]

; 302  :         return (_umul128(u, v, w_hi));

	mov	rcx, rdx

; 210  :         return (_addcarry_u64(carry, u, v, w));

	adc	rcx, 0
	add	rax, r8
; File z:\sources\lunor\repos\rougemeilland\palmtree.math.core.uint\palmtree.math.core.uint\pmc_multiply.c

; 47   :     *wp = t_lo;

	mov	QWORD PTR [r9+128], rax
; File z:\sources\lunor\repos\rougemeilland\palmtree.math.core.uint\palmtree.math.core.uint\pmc_inline_func.h

; 210  :         return (_addcarry_u64(carry, u, v, w));

	adc	rcx, 0
	mov	QWORD PTR t_lo$32[rbp-256], rax
	mov	QWORD PTR t_hi$33[rbp-256], rcx

; 302  :         return (_umul128(u, v, w_hi));

	mov	rax, rbx
	mul	QWORD PTR [r11+136]

; 210  :         return (_addcarry_u64(carry, u, v, w));

	add	rax, QWORD PTR [r9+136]

; 302  :         return (_umul128(u, v, w_hi));

	mov	r8, rdx

; 210  :         return (_addcarry_u64(carry, u, v, w));

	adc	r8, 0
	add	rax, rcx
; File z:\sources\lunor\repos\rougemeilland\palmtree.math.core.uint\palmtree.math.core.uint\pmc_multiply.c

; 47   :     *wp = t_lo;

	mov	QWORD PTR [r9+136], rax
; File z:\sources\lunor\repos\rougemeilland\palmtree.math.core.uint\palmtree.math.core.uint\pmc_inline_func.h

; 210  :         return (_addcarry_u64(carry, u, v, w));

	adc	r8, 0
	mov	QWORD PTR t_lo$34[rbp-256], rax
	mov	QWORD PTR t_hi$35[rbp-256], r8

; 302  :         return (_umul128(u, v, w_hi));

	mov	rax, rbx
	mul	QWORD PTR [r11+144]

; 210  :         return (_addcarry_u64(carry, u, v, w));

	add	rax, QWORD PTR [r9+144]

; 302  :         return (_umul128(u, v, w_hi));

	mov	rcx, rdx

; 210  :         return (_addcarry_u64(carry, u, v, w));

	adc	rcx, 0
	add	rax, r8
; File z:\sources\lunor\repos\rougemeilland\palmtree.math.core.uint\palmtree.math.core.uint\pmc_multiply.c

; 47   :     *wp = t_lo;

	mov	QWORD PTR [r9+144], rax
; File z:\sources\lunor\repos\rougemeilland\palmtree.math.core.uint\palmtree.math.core.uint\pmc_inline_func.h

; 210  :         return (_addcarry_u64(carry, u, v, w));

	adc	rcx, 0
	mov	QWORD PTR t_lo$36[rbp-256], rax
	mov	QWORD PTR t_hi$37[rbp-256], rcx

; 302  :         return (_umul128(u, v, w_hi));

	mov	rax, rbx
	mul	QWORD PTR [r11+152]

; 210  :         return (_addcarry_u64(carry, u, v, w));

	add	rax, QWORD PTR [r9+152]

; 302  :         return (_umul128(u, v, w_hi));

	mov	r8, rdx

; 210  :         return (_addcarry_u64(carry, u, v, w));

	adc	r8, 0
	add	rax, rcx
; File z:\sources\lunor\repos\rougemeilland\palmtree.math.core.uint\palmtree.math.core.uint\pmc_multiply.c

; 47   :     *wp = t_lo;

	mov	QWORD PTR [r9+152], rax
; File z:\sources\lunor\repos\rougemeilland\palmtree.math.core.uint\palmtree.math.core.uint\pmc_inline_func.h

; 210  :         return (_addcarry_u64(carry, u, v, w));

	adc	r8, 0
	mov	QWORD PTR t_lo$38[rbp-256], rax
	mov	QWORD PTR t_hi$39[rbp-256], r8

; 302  :         return (_umul128(u, v, w_hi));

	mov	rax, rbx
	mul	QWORD PTR [r11+160]

; 210  :         return (_addcarry_u64(carry, u, v, w));

	add	rax, QWORD PTR [r9+160]

; 302  :         return (_umul128(u, v, w_hi));

	mov	rcx, rdx

; 210  :         return (_addcarry_u64(carry, u, v, w));

	adc	rcx, 0
	add	rax, r8
; File z:\sources\lunor\repos\rougemeilland\palmtree.math.core.uint\palmtree.math.core.uint\pmc_multiply.c

; 47   :     *wp = t_lo;

	mov	QWORD PTR [r9+160], rax
; File z:\sources\lunor\repos\rougemeilland\palmtree.math.core.uint\palmtree.math.core.uint\pmc_inline_func.h

; 210  :         return (_addcarry_u64(carry, u, v, w));

	adc	rcx, 0
	mov	QWORD PTR t_lo$40[rbp-256], rax
	mov	QWORD PTR t_hi$41[rbp-256], rcx

; 302  :         return (_umul128(u, v, w_hi));

	mov	rax, rbx
	mul	QWORD PTR [r11+168]

; 210  :         return (_addcarry_u64(carry, u, v, w));

	add	rax, QWORD PTR [r9+168]

; 302  :         return (_umul128(u, v, w_hi));

	mov	r8, rdx

; 210  :         return (_addcarry_u64(carry, u, v, w));

	adc	r8, 0
	add	rax, rcx
; File z:\sources\lunor\repos\rougemeilland\palmtree.math.core.uint\palmtree.math.core.uint\pmc_multiply.c

; 47   :     *wp = t_lo;

	mov	QWORD PTR [r9+168], rax
; File z:\sources\lunor\repos\rougemeilland\palmtree.math.core.uint\palmtree.math.core.uint\pmc_inline_func.h

; 210  :         return (_addcarry_u64(carry, u, v, w));

	adc	r8, 0
	mov	QWORD PTR t_lo$42[rbp-256], rax
	mov	QWORD PTR t_hi$43[rbp-256], r8

; 302  :         return (_umul128(u, v, w_hi));

	mov	rax, rbx
	mul	QWORD PTR [r11+176]

; 210  :         return (_addcarry_u64(carry, u, v, w));

	add	rax, QWORD PTR [r9+176]

; 302  :         return (_umul128(u, v, w_hi));

	mov	rcx, rdx

; 210  :         return (_addcarry_u64(carry, u, v, w));

	adc	rcx, 0
	add	rax, r8
; File z:\sources\lunor\repos\rougemeilland\palmtree.math.core.uint\palmtree.math.core.uint\pmc_multiply.c

; 47   :     *wp = t_lo;

	mov	QWORD PTR [r9+176], rax
; File z:\sources\lunor\repos\rougemeilland\palmtree.math.core.uint\palmtree.math.core.uint\pmc_inline_func.h

; 210  :         return (_addcarry_u64(carry, u, v, w));

	adc	rcx, 0
	mov	QWORD PTR t_lo$44[rbp-256], rax

; 302  :         return (_umul128(u, v, w_hi));

	mov	rax, rbx

; 210  :         return (_addcarry_u64(carry, u, v, w));

	mov	QWORD PTR t_hi$45[rbp-256], rcx

; 302  :         return (_umul128(u, v, w_hi));

	mul	QWORD PTR [r11+184]

; 210  :         return (_addcarry_u64(carry, u, v, w));

	add	rax, QWORD PTR [r9+184]

; 302  :         return (_umul128(u, v, w_hi));

	mov	r8, rdx

; 210  :         return (_addcarry_u64(carry, u, v, w));

	adc	r8, 0
	add	rax, rcx
	mov	QWORD PTR t_lo$46[rbp-256], rax
; File z:\sources\lunor\repos\rougemeilland\palmtree.math.core.uint\palmtree.math.core.uint\pmc_multiply.c

; 47   :     *wp = t_lo;

	mov	QWORD PTR [r9+184], rax
; File z:\sources\lunor\repos\rougemeilland\palmtree.math.core.uint\palmtree.math.core.uint\pmc_inline_func.h

; 210  :         return (_addcarry_u64(carry, u, v, w));

	adc	r8, 0

; 302  :         return (_umul128(u, v, w_hi));

	mov	rax, rbx

; 210  :         return (_addcarry_u64(carry, u, v, w));

	mov	QWORD PTR t_hi$47[rbp-256], r8

; 302  :         return (_umul128(u, v, w_hi));

	mul	QWORD PTR [r11+192]
	mov	rcx, rdx

; 210  :         return (_addcarry_u64(carry, u, v, w));

	add	rax, QWORD PTR [r9+192]
	adc	rcx, 0
	add	rax, r8
; File z:\sources\lunor\repos\rougemeilland\palmtree.math.core.uint\palmtree.math.core.uint\pmc_multiply.c

; 47   :     *wp = t_lo;

	mov	QWORD PTR [r9+192], rax
; File z:\sources\lunor\repos\rougemeilland\palmtree.math.core.uint\palmtree.math.core.uint\pmc_inline_func.h

; 210  :         return (_addcarry_u64(carry, u, v, w));

	adc	rcx, 0
	mov	QWORD PTR t_lo$48[rbp-256], rax
	mov	QWORD PTR t_hi$49[rbp-256], rcx

; 302  :         return (_umul128(u, v, w_hi));

	mov	rax, rbx
	mul	QWORD PTR [r11+200]

; 210  :         return (_addcarry_u64(carry, u, v, w));

	add	rax, QWORD PTR [r9+200]

; 302  :         return (_umul128(u, v, w_hi));

	mov	r8, rdx

; 210  :         return (_addcarry_u64(carry, u, v, w));

	adc	r8, 0
	add	rax, rcx
; File z:\sources\lunor\repos\rougemeilland\palmtree.math.core.uint\palmtree.math.core.uint\pmc_multiply.c

; 47   :     *wp = t_lo;

	mov	QWORD PTR [r9+200], rax
; File z:\sources\lunor\repos\rougemeilland\palmtree.math.core.uint\palmtree.math.core.uint\pmc_inline_func.h

; 210  :         return (_addcarry_u64(carry, u, v, w));

	adc	r8, 0
	mov	QWORD PTR t_lo$50[rbp-256], rax
	mov	QWORD PTR t_hi$51[rbp-256], r8

; 302  :         return (_umul128(u, v, w_hi));

	mov	rax, rbx
	mul	QWORD PTR [r11+208]

; 210  :         return (_addcarry_u64(carry, u, v, w));

	add	rax, QWORD PTR [r9+208]

; 302  :         return (_umul128(u, v, w_hi));

	mov	rcx, rdx

; 210  :         return (_addcarry_u64(carry, u, v, w));

	adc	rcx, 0
	add	rax, r8
; File z:\sources\lunor\repos\rougemeilland\palmtree.math.core.uint\palmtree.math.core.uint\pmc_multiply.c

; 47   :     *wp = t_lo;

	mov	QWORD PTR [r9+208], rax
; File z:\sources\lunor\repos\rougemeilland\palmtree.math.core.uint\palmtree.math.core.uint\pmc_inline_func.h

; 210  :         return (_addcarry_u64(carry, u, v, w));

	adc	rcx, 0
	mov	QWORD PTR t_lo$52[rbp-256], rax
	mov	QWORD PTR t_hi$53[rbp-256], rcx

; 302  :         return (_umul128(u, v, w_hi));

	mov	rax, rbx
	mul	QWORD PTR [r11+216]

; 210  :         return (_addcarry_u64(carry, u, v, w));

	add	rax, QWORD PTR [r9+216]

; 302  :         return (_umul128(u, v, w_hi));

	mov	r8, rdx

; 210  :         return (_addcarry_u64(carry, u, v, w));

	adc	r8, 0
	add	rax, rcx
; File z:\sources\lunor\repos\rougemeilland\palmtree.math.core.uint\palmtree.math.core.uint\pmc_multiply.c

; 47   :     *wp = t_lo;

	mov	QWORD PTR [r9+216], rax
; File z:\sources\lunor\repos\rougemeilland\palmtree.math.core.uint\palmtree.math.core.uint\pmc_inline_func.h

; 210  :         return (_addcarry_u64(carry, u, v, w));

	adc	r8, 0
	mov	QWORD PTR t_lo$54[rbp-256], rax
	mov	QWORD PTR t_hi$55[rbp-256], r8

; 302  :         return (_umul128(u, v, w_hi));

	mov	rax, rbx
	mul	QWORD PTR [r11+224]

; 210  :         return (_addcarry_u64(carry, u, v, w));

	add	rax, QWORD PTR [r9+224]

; 302  :         return (_umul128(u, v, w_hi));

	mov	rcx, rdx

; 210  :         return (_addcarry_u64(carry, u, v, w));

	adc	rcx, 0
	add	rax, r8
; File z:\sources\lunor\repos\rougemeilland\palmtree.math.core.uint\palmtree.math.core.uint\pmc_multiply.c

; 47   :     *wp = t_lo;

	mov	QWORD PTR [r9+224], rax
; File z:\sources\lunor\repos\rougemeilland\palmtree.math.core.uint\palmtree.math.core.uint\pmc_inline_func.h

; 210  :         return (_addcarry_u64(carry, u, v, w));

	adc	rcx, 0
	mov	QWORD PTR t_lo$56[rbp-256], rax
	mov	QWORD PTR t_hi$57[rbp-256], rcx

; 302  :         return (_umul128(u, v, w_hi));

	mov	rax, rbx
	mul	QWORD PTR [r11+232]

; 210  :         return (_addcarry_u64(carry, u, v, w));

	add	rax, QWORD PTR [r9+232]

; 302  :         return (_umul128(u, v, w_hi));

	mov	r8, rdx

; 210  :         return (_addcarry_u64(carry, u, v, w));

	adc	r8, 0
	add	rax, rcx
; File z:\sources\lunor\repos\rougemeilland\palmtree.math.core.uint\palmtree.math.core.uint\pmc_multiply.c

; 47   :     *wp = t_lo;

	mov	QWORD PTR [r9+232], rax
; File z:\sources\lunor\repos\rougemeilland\palmtree.math.core.uint\palmtree.math.core.uint\pmc_inline_func.h

; 210  :         return (_addcarry_u64(carry, u, v, w));

	adc	r8, 0
	mov	QWORD PTR t_lo$58[rbp-256], rax

; 302  :         return (_umul128(u, v, w_hi));

	mov	rax, rbx

; 210  :         return (_addcarry_u64(carry, u, v, w));

	mov	QWORD PTR t_hi$59[rbp-256], r8

; 302  :         return (_umul128(u, v, w_hi));

	mul	QWORD PTR [r11+240]

; 210  :         return (_addcarry_u64(carry, u, v, w));

	add	rax, QWORD PTR [r9+240]

; 302  :         return (_umul128(u, v, w_hi));

	mov	rcx, rdx

; 210  :         return (_addcarry_u64(carry, u, v, w));

	adc	rcx, 0
	add	rax, r8
; File z:\sources\lunor\repos\rougemeilland\palmtree.math.core.uint\palmtree.math.core.uint\pmc_multiply.c

; 47   :     *wp = t_lo;

	mov	QWORD PTR [r9+240], rax
; File z:\sources\lunor\repos\rougemeilland\palmtree.math.core.uint\palmtree.math.core.uint\pmc_inline_func.h

; 210  :         return (_addcarry_u64(carry, u, v, w));

	adc	rcx, 0
	mov	QWORD PTR t_lo$60[rbp-256], rax

; 302  :         return (_umul128(u, v, w_hi));

	mov	rax, rbx

; 210  :         return (_addcarry_u64(carry, u, v, w));

	mov	QWORD PTR t_hi$61[rbp-256], rcx

; 302  :         return (_umul128(u, v, w_hi));

	mul	QWORD PTR [r11+248]

; 210  :         return (_addcarry_u64(carry, u, v, w));

	add	rax, QWORD PTR [r9+248]

; 302  :         return (_umul128(u, v, w_hi));

	mov	r10, rdx

; 210  :         return (_addcarry_u64(carry, u, v, w));

	adc	r10, 0
	add	rax, rcx
; File z:\sources\lunor\repos\rougemeilland\palmtree.math.core.uint\palmtree.math.core.uint\pmc_multiply.c

; 47   :     *wp = t_lo;

	mov	QWORD PTR [r9+248], rax
; File z:\sources\lunor\repos\rougemeilland\palmtree.math.core.uint\palmtree.math.core.uint\pmc_inline_func.h

; 210  :         return (_addcarry_u64(carry, u, v, w));

	adc	r10, 0
	mov	QWORD PTR t_lo$62[rbp-256], rax
; File z:\sources\lunor\repos\rougemeilland\palmtree.math.core.uint\palmtree.math.core.uint\pmc_multiply.c

; 103  :         up += 32;

	add	r11, 256				; 00000100H
; File z:\sources\lunor\repos\rougemeilland\palmtree.math.core.uint\palmtree.math.core.uint\pmc_inline_func.h

; 210  :         return (_addcarry_u64(carry, u, v, w));

	mov	QWORD PTR t_hi$63[rbp-256], r10
; File z:\sources\lunor\repos\rougemeilland\palmtree.math.core.uint\palmtree.math.core.uint\pmc_multiply.c

; 104  :         wp += 32;

	add	r9, 256					; 00000100H
; File z:\sources\lunor\repos\rougemeilland\palmtree.math.core.uint\palmtree.math.core.uint\pmc_uint_internal.h

; 349  :         _InterlockedExchangeAdd(&statistics_info.COUNT_MULTI64, value);

	mov	eax, 32					; 00000020H
	lock xadd DWORD PTR statistics_info, eax
; File z:\sources\lunor\repos\rougemeilland\palmtree.math.core.uint\palmtree.math.core.uint\pmc_multiply.c

; 69   :     while (count != 0)

	sub	rsi, 1
	jne	$LL2@Multiply_W
$LN3@Multiply_W:

; 105  :         --count;
; 106  : #ifdef ENABLED_PERFORMANCE_COUNTER
; 107  :         if (sizeof(k) == sizeof(_UINT32_T))
; 108  :             AddToMULTI32Counter(32);
; 109  :         else
; 110  :             AddToMULTI64Counter(32);
; 111  : #endif
; 112  :     }
; 113  : 
; 114  :     if (u_count & 0x10)

	test	dil, 16
	je	$LN605@Multiply_W
; File z:\sources\lunor\repos\rougemeilland\palmtree.math.core.uint\palmtree.math.core.uint\pmc_inline_func.h

; 302  :         return (_umul128(u, v, w_hi));

	mov	rax, rbx
	mul	QWORD PTR [r11]

; 210  :         return (_addcarry_u64(carry, u, v, w));

	add	rax, QWORD PTR [r9]

; 302  :         return (_umul128(u, v, w_hi));

	mov	rcx, rdx

; 210  :         return (_addcarry_u64(carry, u, v, w));

	adc	rcx, 0
	add	rax, r10
; File z:\sources\lunor\repos\rougemeilland\palmtree.math.core.uint\palmtree.math.core.uint\pmc_multiply.c

; 47   :     *wp = t_lo;

	mov	QWORD PTR [r9], rax
; File z:\sources\lunor\repos\rougemeilland\palmtree.math.core.uint\palmtree.math.core.uint\pmc_inline_func.h

; 210  :         return (_addcarry_u64(carry, u, v, w));

	adc	rcx, 0
	mov	QWORD PTR t_lo$64[rbp-256], rax
	mov	QWORD PTR t_hi$65[rbp-256], rcx

; 302  :         return (_umul128(u, v, w_hi));

	mov	rax, rbx
	mul	QWORD PTR [r11+8]

; 210  :         return (_addcarry_u64(carry, u, v, w));

	add	rax, QWORD PTR [r9+8]

; 302  :         return (_umul128(u, v, w_hi));

	mov	r8, rdx

; 210  :         return (_addcarry_u64(carry, u, v, w));

	adc	r8, 0
	add	rax, rcx
; File z:\sources\lunor\repos\rougemeilland\palmtree.math.core.uint\palmtree.math.core.uint\pmc_multiply.c

; 47   :     *wp = t_lo;

	mov	QWORD PTR [r9+8], rax
; File z:\sources\lunor\repos\rougemeilland\palmtree.math.core.uint\palmtree.math.core.uint\pmc_inline_func.h

; 210  :         return (_addcarry_u64(carry, u, v, w));

	adc	r8, 0
	mov	QWORD PTR t_lo$66[rbp-256], rax
	mov	QWORD PTR t_hi$67[rbp-256], r8

; 302  :         return (_umul128(u, v, w_hi));

	mov	rax, rbx
	mul	QWORD PTR [r11+16]

; 210  :         return (_addcarry_u64(carry, u, v, w));

	add	rax, QWORD PTR [r9+16]

; 302  :         return (_umul128(u, v, w_hi));

	mov	rcx, rdx

; 210  :         return (_addcarry_u64(carry, u, v, w));

	adc	rcx, 0
	add	rax, r8
; File z:\sources\lunor\repos\rougemeilland\palmtree.math.core.uint\palmtree.math.core.uint\pmc_multiply.c

; 47   :     *wp = t_lo;

	mov	QWORD PTR [r9+16], rax
; File z:\sources\lunor\repos\rougemeilland\palmtree.math.core.uint\palmtree.math.core.uint\pmc_inline_func.h

; 210  :         return (_addcarry_u64(carry, u, v, w));

	adc	rcx, 0
	mov	QWORD PTR t_lo$68[rbp-256], rax
	mov	QWORD PTR t_hi$69[rbp-256], rcx

; 302  :         return (_umul128(u, v, w_hi));

	mov	rax, rbx
	mul	QWORD PTR [r11+24]

; 210  :         return (_addcarry_u64(carry, u, v, w));

	add	rax, QWORD PTR [r9+24]

; 302  :         return (_umul128(u, v, w_hi));

	mov	r8, rdx

; 210  :         return (_addcarry_u64(carry, u, v, w));

	adc	r8, 0
	add	rax, rcx
; File z:\sources\lunor\repos\rougemeilland\palmtree.math.core.uint\palmtree.math.core.uint\pmc_multiply.c

; 47   :     *wp = t_lo;

	mov	QWORD PTR [r9+24], rax
; File z:\sources\lunor\repos\rougemeilland\palmtree.math.core.uint\palmtree.math.core.uint\pmc_inline_func.h

; 210  :         return (_addcarry_u64(carry, u, v, w));

	adc	r8, 0
	mov	QWORD PTR t_lo$70[rbp-256], rax
	mov	QWORD PTR t_hi$71[rbp-256], r8

; 302  :         return (_umul128(u, v, w_hi));

	mov	rax, rbx
	mul	QWORD PTR [r11+32]

; 210  :         return (_addcarry_u64(carry, u, v, w));

	add	rax, QWORD PTR [r9+32]

; 302  :         return (_umul128(u, v, w_hi));

	mov	rcx, rdx

; 210  :         return (_addcarry_u64(carry, u, v, w));

	adc	rcx, 0
	add	rax, r8
; File z:\sources\lunor\repos\rougemeilland\palmtree.math.core.uint\palmtree.math.core.uint\pmc_multiply.c

; 47   :     *wp = t_lo;

	mov	QWORD PTR [r9+32], rax
; File z:\sources\lunor\repos\rougemeilland\palmtree.math.core.uint\palmtree.math.core.uint\pmc_inline_func.h

; 210  :         return (_addcarry_u64(carry, u, v, w));

	adc	rcx, 0
	mov	QWORD PTR t_lo$72[rbp-256], rax
	mov	QWORD PTR t_hi$73[rbp-256], rcx

; 302  :         return (_umul128(u, v, w_hi));

	mov	rax, rbx
	mul	QWORD PTR [r11+40]

; 210  :         return (_addcarry_u64(carry, u, v, w));

	add	rax, QWORD PTR [r9+40]

; 302  :         return (_umul128(u, v, w_hi));

	mov	r8, rdx

; 210  :         return (_addcarry_u64(carry, u, v, w));

	adc	r8, 0
	add	rax, rcx
; File z:\sources\lunor\repos\rougemeilland\palmtree.math.core.uint\palmtree.math.core.uint\pmc_multiply.c

; 47   :     *wp = t_lo;

	mov	QWORD PTR [r9+40], rax
; File z:\sources\lunor\repos\rougemeilland\palmtree.math.core.uint\palmtree.math.core.uint\pmc_inline_func.h

; 210  :         return (_addcarry_u64(carry, u, v, w));

	adc	r8, 0
	mov	QWORD PTR t_lo$74[rbp-256], rax
	mov	QWORD PTR t_hi$75[rbp-256], r8

; 302  :         return (_umul128(u, v, w_hi));

	mov	rax, rbx
	mul	QWORD PTR [r11+48]

; 210  :         return (_addcarry_u64(carry, u, v, w));

	add	rax, QWORD PTR [r9+48]

; 302  :         return (_umul128(u, v, w_hi));

	mov	rcx, rdx

; 210  :         return (_addcarry_u64(carry, u, v, w));

	adc	rcx, 0
	add	rax, r8
; File z:\sources\lunor\repos\rougemeilland\palmtree.math.core.uint\palmtree.math.core.uint\pmc_multiply.c

; 47   :     *wp = t_lo;

	mov	QWORD PTR [r9+48], rax
; File z:\sources\lunor\repos\rougemeilland\palmtree.math.core.uint\palmtree.math.core.uint\pmc_inline_func.h

; 210  :         return (_addcarry_u64(carry, u, v, w));

	adc	rcx, 0
	mov	QWORD PTR t_lo$76[rbp-256], rax

; 302  :         return (_umul128(u, v, w_hi));

	mov	rax, rbx

; 210  :         return (_addcarry_u64(carry, u, v, w));

	mov	QWORD PTR t_hi$77[rbp-256], rcx

; 302  :         return (_umul128(u, v, w_hi));

	mul	QWORD PTR [r11+56]

; 210  :         return (_addcarry_u64(carry, u, v, w));

	add	rax, QWORD PTR [r9+56]

; 302  :         return (_umul128(u, v, w_hi));

	mov	r8, rdx

; 210  :         return (_addcarry_u64(carry, u, v, w));

	adc	r8, 0
	add	rax, rcx
	mov	QWORD PTR t_lo$78[rbp-256], rax
	adc	r8, 0
; File z:\sources\lunor\repos\rougemeilland\palmtree.math.core.uint\palmtree.math.core.uint\pmc_multiply.c

; 47   :     *wp = t_lo;

	mov	QWORD PTR [r9+56], rax
; File z:\sources\lunor\repos\rougemeilland\palmtree.math.core.uint\palmtree.math.core.uint\pmc_inline_func.h

; 210  :         return (_addcarry_u64(carry, u, v, w));

	mov	QWORD PTR t_hi$79[rbp-256], r8

; 302  :         return (_umul128(u, v, w_hi));

	mov	rax, rbx
	mul	QWORD PTR [r11+64]

; 210  :         return (_addcarry_u64(carry, u, v, w));

	add	rax, QWORD PTR [r9+64]

; 302  :         return (_umul128(u, v, w_hi));

	mov	rcx, rdx

; 210  :         return (_addcarry_u64(carry, u, v, w));

	adc	rcx, 0
	add	rax, r8
; File z:\sources\lunor\repos\rougemeilland\palmtree.math.core.uint\palmtree.math.core.uint\pmc_multiply.c

; 47   :     *wp = t_lo;

	mov	QWORD PTR [r9+64], rax
; File z:\sources\lunor\repos\rougemeilland\palmtree.math.core.uint\palmtree.math.core.uint\pmc_inline_func.h

; 210  :         return (_addcarry_u64(carry, u, v, w));

	adc	rcx, 0
	mov	QWORD PTR t_lo$80[rbp-256], rax
	mov	QWORD PTR t_hi$81[rbp-256], rcx

; 302  :         return (_umul128(u, v, w_hi));

	mov	rax, rbx
	mul	QWORD PTR [r11+72]

; 210  :         return (_addcarry_u64(carry, u, v, w));

	add	rax, QWORD PTR [r9+72]

; 302  :         return (_umul128(u, v, w_hi));

	mov	r8, rdx

; 210  :         return (_addcarry_u64(carry, u, v, w));

	adc	r8, 0
	add	rax, rcx
; File z:\sources\lunor\repos\rougemeilland\palmtree.math.core.uint\palmtree.math.core.uint\pmc_multiply.c

; 47   :     *wp = t_lo;

	mov	QWORD PTR [r9+72], rax
; File z:\sources\lunor\repos\rougemeilland\palmtree.math.core.uint\palmtree.math.core.uint\pmc_inline_func.h

; 210  :         return (_addcarry_u64(carry, u, v, w));

	adc	r8, 0
	mov	QWORD PTR t_lo$82[rbp-256], rax
	mov	QWORD PTR t_hi$83[rbp-256], r8

; 302  :         return (_umul128(u, v, w_hi));

	mov	rax, rbx
	mul	QWORD PTR [r11+80]

; 210  :         return (_addcarry_u64(carry, u, v, w));

	add	rax, QWORD PTR [r9+80]

; 302  :         return (_umul128(u, v, w_hi));

	mov	rcx, rdx

; 210  :         return (_addcarry_u64(carry, u, v, w));

	adc	rcx, 0
	add	rax, r8
; File z:\sources\lunor\repos\rougemeilland\palmtree.math.core.uint\palmtree.math.core.uint\pmc_multiply.c

; 47   :     *wp = t_lo;

	mov	QWORD PTR [r9+80], rax
; File z:\sources\lunor\repos\rougemeilland\palmtree.math.core.uint\palmtree.math.core.uint\pmc_inline_func.h

; 210  :         return (_addcarry_u64(carry, u, v, w));

	adc	rcx, 0
	mov	QWORD PTR t_lo$84[rbp-256], rax
	mov	QWORD PTR t_hi$85[rbp-256], rcx

; 302  :         return (_umul128(u, v, w_hi));

	mov	rax, rbx
	mul	QWORD PTR [r11+88]

; 210  :         return (_addcarry_u64(carry, u, v, w));

	add	rax, QWORD PTR [r9+88]

; 302  :         return (_umul128(u, v, w_hi));

	mov	r8, rdx

; 210  :         return (_addcarry_u64(carry, u, v, w));

	adc	r8, 0
	add	rax, rcx
; File z:\sources\lunor\repos\rougemeilland\palmtree.math.core.uint\palmtree.math.core.uint\pmc_multiply.c

; 47   :     *wp = t_lo;

	mov	QWORD PTR [r9+88], rax
; File z:\sources\lunor\repos\rougemeilland\palmtree.math.core.uint\palmtree.math.core.uint\pmc_inline_func.h

; 210  :         return (_addcarry_u64(carry, u, v, w));

	adc	r8, 0
	mov	QWORD PTR t_lo$86[rbp-256], rax
	mov	QWORD PTR t_hi$87[rbp-256], r8

; 302  :         return (_umul128(u, v, w_hi));

	mov	rax, rbx
	mul	QWORD PTR [r11+96]

; 210  :         return (_addcarry_u64(carry, u, v, w));

	add	rax, QWORD PTR [r9+96]

; 302  :         return (_umul128(u, v, w_hi));

	mov	rcx, rdx

; 210  :         return (_addcarry_u64(carry, u, v, w));

	adc	rcx, 0
	add	rax, r8
; File z:\sources\lunor\repos\rougemeilland\palmtree.math.core.uint\palmtree.math.core.uint\pmc_multiply.c

; 47   :     *wp = t_lo;

	mov	QWORD PTR [r9+96], rax
; File z:\sources\lunor\repos\rougemeilland\palmtree.math.core.uint\palmtree.math.core.uint\pmc_inline_func.h

; 210  :         return (_addcarry_u64(carry, u, v, w));

	adc	rcx, 0
	mov	QWORD PTR t_lo$88[rbp-256], rax
	mov	QWORD PTR t_hi$89[rbp-256], rcx

; 302  :         return (_umul128(u, v, w_hi));

	mov	rax, rbx
	mul	QWORD PTR [r11+104]

; 210  :         return (_addcarry_u64(carry, u, v, w));

	add	rax, QWORD PTR [r9+104]

; 302  :         return (_umul128(u, v, w_hi));

	mov	r8, rdx

; 210  :         return (_addcarry_u64(carry, u, v, w));

	adc	r8, 0
	add	rax, rcx
; File z:\sources\lunor\repos\rougemeilland\palmtree.math.core.uint\palmtree.math.core.uint\pmc_multiply.c

; 47   :     *wp = t_lo;

	mov	QWORD PTR [r9+104], rax
; File z:\sources\lunor\repos\rougemeilland\palmtree.math.core.uint\palmtree.math.core.uint\pmc_inline_func.h

; 210  :         return (_addcarry_u64(carry, u, v, w));

	adc	r8, 0
	mov	QWORD PTR t_lo$90[rbp-256], rax

; 302  :         return (_umul128(u, v, w_hi));

	mov	rax, rbx

; 210  :         return (_addcarry_u64(carry, u, v, w));

	mov	QWORD PTR t_hi$91[rbp-256], r8

; 302  :         return (_umul128(u, v, w_hi));

	mul	QWORD PTR [r11+112]

; 210  :         return (_addcarry_u64(carry, u, v, w));

	add	rax, QWORD PTR [r9+112]

; 302  :         return (_umul128(u, v, w_hi));

	mov	rcx, rdx

; 210  :         return (_addcarry_u64(carry, u, v, w));

	adc	rcx, 0
	add	rax, r8
; File z:\sources\lunor\repos\rougemeilland\palmtree.math.core.uint\palmtree.math.core.uint\pmc_multiply.c

; 47   :     *wp = t_lo;

	mov	QWORD PTR [r9+112], rax
; File z:\sources\lunor\repos\rougemeilland\palmtree.math.core.uint\palmtree.math.core.uint\pmc_inline_func.h

; 210  :         return (_addcarry_u64(carry, u, v, w));

	adc	rcx, 0
	mov	QWORD PTR t_lo$92[rbp-256], rax

; 302  :         return (_umul128(u, v, w_hi));

	mov	rax, rbx

; 210  :         return (_addcarry_u64(carry, u, v, w));

	mov	QWORD PTR t_hi$93[rbp-256], rcx

; 302  :         return (_umul128(u, v, w_hi));

	mul	QWORD PTR [r11+120]

; 210  :         return (_addcarry_u64(carry, u, v, w));

	add	rax, QWORD PTR [r9+120]

; 302  :         return (_umul128(u, v, w_hi));

	mov	r10, rdx

; 210  :         return (_addcarry_u64(carry, u, v, w));

	adc	r10, 0
	add	rax, rcx
; File z:\sources\lunor\repos\rougemeilland\palmtree.math.core.uint\palmtree.math.core.uint\pmc_multiply.c

; 47   :     *wp = t_lo;

	mov	QWORD PTR [r9+120], rax
; File z:\sources\lunor\repos\rougemeilland\palmtree.math.core.uint\palmtree.math.core.uint\pmc_inline_func.h

; 210  :         return (_addcarry_u64(carry, u, v, w));

	adc	r10, 0
	mov	QWORD PTR t_lo$94[rbp-256], rax
; File z:\sources\lunor\repos\rougemeilland\palmtree.math.core.uint\palmtree.math.core.uint\pmc_multiply.c

; 132  :         up += 16;

	sub	r11, -128				; ffffffffffffff80H
; File z:\sources\lunor\repos\rougemeilland\palmtree.math.core.uint\palmtree.math.core.uint\pmc_inline_func.h

; 210  :         return (_addcarry_u64(carry, u, v, w));

	mov	QWORD PTR t_hi$95[rbp-256], r10
; File z:\sources\lunor\repos\rougemeilland\palmtree.math.core.uint\palmtree.math.core.uint\pmc_multiply.c

; 133  :         wp += 16;

	sub	r9, -128				; ffffffffffffff80H
; File z:\sources\lunor\repos\rougemeilland\palmtree.math.core.uint\palmtree.math.core.uint\pmc_uint_internal.h

; 349  :         _InterlockedExchangeAdd(&statistics_info.COUNT_MULTI64, value);

	mov	eax, 16
	lock xadd DWORD PTR statistics_info, eax
$LN605@Multiply_W:
; File z:\sources\lunor\repos\rougemeilland\palmtree.math.core.uint\palmtree.math.core.uint\pmc_multiply.c

; 142  :     if (u_count & 0x8)

	test	dil, 8
	je	$LN705@Multiply_W
; File z:\sources\lunor\repos\rougemeilland\palmtree.math.core.uint\palmtree.math.core.uint\pmc_inline_func.h

; 302  :         return (_umul128(u, v, w_hi));

	mov	rax, rbx
	mul	QWORD PTR [r11]

; 210  :         return (_addcarry_u64(carry, u, v, w));

	add	rax, QWORD PTR [r9]

; 302  :         return (_umul128(u, v, w_hi));

	mov	rcx, rdx

; 210  :         return (_addcarry_u64(carry, u, v, w));

	adc	rcx, 0
	add	rax, r10
; File z:\sources\lunor\repos\rougemeilland\palmtree.math.core.uint\palmtree.math.core.uint\pmc_multiply.c

; 47   :     *wp = t_lo;

	mov	QWORD PTR [r9], rax
; File z:\sources\lunor\repos\rougemeilland\palmtree.math.core.uint\palmtree.math.core.uint\pmc_inline_func.h

; 210  :         return (_addcarry_u64(carry, u, v, w));

	adc	rcx, 0
	mov	QWORD PTR t_lo$96[rbp-256], rax
	mov	QWORD PTR t_hi$97[rbp-256], rcx

; 302  :         return (_umul128(u, v, w_hi));

	mov	rax, rbx
	mul	QWORD PTR [r11+8]

; 210  :         return (_addcarry_u64(carry, u, v, w));

	add	rax, QWORD PTR [r9+8]

; 302  :         return (_umul128(u, v, w_hi));

	mov	r8, rdx

; 210  :         return (_addcarry_u64(carry, u, v, w));

	adc	r8, 0
	add	rax, rcx
; File z:\sources\lunor\repos\rougemeilland\palmtree.math.core.uint\palmtree.math.core.uint\pmc_multiply.c

; 47   :     *wp = t_lo;

	mov	QWORD PTR [r9+8], rax
; File z:\sources\lunor\repos\rougemeilland\palmtree.math.core.uint\palmtree.math.core.uint\pmc_inline_func.h

; 210  :         return (_addcarry_u64(carry, u, v, w));

	adc	r8, 0
	mov	QWORD PTR t_lo$98[rbp-256], rax
	mov	QWORD PTR t_hi$99[rbp-256], r8

; 302  :         return (_umul128(u, v, w_hi));

	mov	rax, rbx
	mul	QWORD PTR [r11+16]

; 210  :         return (_addcarry_u64(carry, u, v, w));

	add	rax, QWORD PTR [r9+16]

; 302  :         return (_umul128(u, v, w_hi));

	mov	rcx, rdx

; 210  :         return (_addcarry_u64(carry, u, v, w));

	adc	rcx, 0
	add	rax, r8
; File z:\sources\lunor\repos\rougemeilland\palmtree.math.core.uint\palmtree.math.core.uint\pmc_multiply.c

; 47   :     *wp = t_lo;

	mov	QWORD PTR [r9+16], rax
; File z:\sources\lunor\repos\rougemeilland\palmtree.math.core.uint\palmtree.math.core.uint\pmc_inline_func.h

; 210  :         return (_addcarry_u64(carry, u, v, w));

	adc	rcx, 0
	mov	QWORD PTR t_lo$100[rbp-256], rax
	mov	QWORD PTR t_hi$101[rbp-256], rcx

; 302  :         return (_umul128(u, v, w_hi));

	mov	rax, rbx
	mul	QWORD PTR [r11+24]

; 210  :         return (_addcarry_u64(carry, u, v, w));

	add	rax, QWORD PTR [r9+24]

; 302  :         return (_umul128(u, v, w_hi));

	mov	r8, rdx

; 210  :         return (_addcarry_u64(carry, u, v, w));

	adc	r8, 0
	add	rax, rcx
; File z:\sources\lunor\repos\rougemeilland\palmtree.math.core.uint\palmtree.math.core.uint\pmc_multiply.c

; 47   :     *wp = t_lo;

	mov	QWORD PTR [r9+24], rax
; File z:\sources\lunor\repos\rougemeilland\palmtree.math.core.uint\palmtree.math.core.uint\pmc_inline_func.h

; 210  :         return (_addcarry_u64(carry, u, v, w));

	adc	r8, 0
	mov	QWORD PTR t_lo$102[rbp-256], rax
	mov	QWORD PTR t_hi$103[rbp-256], r8

; 302  :         return (_umul128(u, v, w_hi));

	mov	rax, rbx
	mul	QWORD PTR [r11+32]

; 210  :         return (_addcarry_u64(carry, u, v, w));

	add	rax, QWORD PTR [r9+32]

; 302  :         return (_umul128(u, v, w_hi));

	mov	rcx, rdx

; 210  :         return (_addcarry_u64(carry, u, v, w));

	adc	rcx, 0
	add	rax, r8
; File z:\sources\lunor\repos\rougemeilland\palmtree.math.core.uint\palmtree.math.core.uint\pmc_multiply.c

; 47   :     *wp = t_lo;

	mov	QWORD PTR [r9+32], rax
; File z:\sources\lunor\repos\rougemeilland\palmtree.math.core.uint\palmtree.math.core.uint\pmc_inline_func.h

; 210  :         return (_addcarry_u64(carry, u, v, w));

	adc	rcx, 0
	mov	QWORD PTR t_lo$104[rbp-256], rax
	mov	QWORD PTR t_hi$105[rbp-256], rcx

; 302  :         return (_umul128(u, v, w_hi));

	mov	rax, rbx
	mul	QWORD PTR [r11+40]

; 210  :         return (_addcarry_u64(carry, u, v, w));

	add	rax, QWORD PTR [r9+40]

; 302  :         return (_umul128(u, v, w_hi));

	mov	r8, rdx

; 210  :         return (_addcarry_u64(carry, u, v, w));

	adc	r8, 0
	add	rax, rcx
; File z:\sources\lunor\repos\rougemeilland\palmtree.math.core.uint\palmtree.math.core.uint\pmc_multiply.c

; 47   :     *wp = t_lo;

	mov	QWORD PTR [r9+40], rax
; File z:\sources\lunor\repos\rougemeilland\palmtree.math.core.uint\palmtree.math.core.uint\pmc_inline_func.h

; 210  :         return (_addcarry_u64(carry, u, v, w));

	adc	r8, 0
	mov	QWORD PTR t_lo$106[rbp-256], rax

; 302  :         return (_umul128(u, v, w_hi));

	mov	rax, rbx

; 210  :         return (_addcarry_u64(carry, u, v, w));

	mov	QWORD PTR t_hi$107[rbp-256], r8

; 302  :         return (_umul128(u, v, w_hi));

	mul	QWORD PTR [r11+48]

; 210  :         return (_addcarry_u64(carry, u, v, w));

	add	rax, QWORD PTR [r9+48]

; 302  :         return (_umul128(u, v, w_hi));

	mov	rcx, rdx

; 210  :         return (_addcarry_u64(carry, u, v, w));

	adc	rcx, 0
	add	rax, r8
; File z:\sources\lunor\repos\rougemeilland\palmtree.math.core.uint\palmtree.math.core.uint\pmc_multiply.c

; 47   :     *wp = t_lo;

	mov	QWORD PTR [r9+48], rax
; File z:\sources\lunor\repos\rougemeilland\palmtree.math.core.uint\palmtree.math.core.uint\pmc_inline_func.h

; 210  :         return (_addcarry_u64(carry, u, v, w));

	adc	rcx, 0
	mov	QWORD PTR t_lo$108[rbp-256], rax

; 302  :         return (_umul128(u, v, w_hi));

	mov	rax, rbx

; 210  :         return (_addcarry_u64(carry, u, v, w));

	mov	QWORD PTR t_hi$109[rbp-256], rcx

; 302  :         return (_umul128(u, v, w_hi));

	mul	QWORD PTR [r11+56]

; 210  :         return (_addcarry_u64(carry, u, v, w));

	add	rax, QWORD PTR [r9+56]

; 302  :         return (_umul128(u, v, w_hi));

	mov	r10, rdx

; 210  :         return (_addcarry_u64(carry, u, v, w));

	adc	r10, 0
	add	rax, rcx
	mov	QWORD PTR t_lo$110[rbp-256], rax
	adc	r10, 0
; File z:\sources\lunor\repos\rougemeilland\palmtree.math.core.uint\palmtree.math.core.uint\pmc_multiply.c

; 47   :     *wp = t_lo;

	mov	QWORD PTR [r9+56], rax
; File z:\sources\lunor\repos\rougemeilland\palmtree.math.core.uint\palmtree.math.core.uint\pmc_inline_func.h

; 210  :         return (_addcarry_u64(carry, u, v, w));

	mov	QWORD PTR t_hi$111[rbp-256], r10
; File z:\sources\lunor\repos\rougemeilland\palmtree.math.core.uint\palmtree.math.core.uint\pmc_multiply.c

; 152  :         up += 8;

	add	r11, 64					; 00000040H

; 153  :         wp += 8;

	add	r9, 64					; 00000040H
; File z:\sources\lunor\repos\rougemeilland\palmtree.math.core.uint\palmtree.math.core.uint\pmc_uint_internal.h

; 349  :         _InterlockedExchangeAdd(&statistics_info.COUNT_MULTI64, value);

	mov	eax, 8
	lock xadd DWORD PTR statistics_info, eax
$LN705@Multiply_W:
; File z:\sources\lunor\repos\rougemeilland\palmtree.math.core.uint\palmtree.math.core.uint\pmc_multiply.c

; 162  :     if (u_count & 0x4)

	test	dil, 4
	je	$LN757@Multiply_W
; File z:\sources\lunor\repos\rougemeilland\palmtree.math.core.uint\palmtree.math.core.uint\pmc_inline_func.h

; 302  :         return (_umul128(u, v, w_hi));

	mov	rax, rbx
	mul	QWORD PTR [r11]

; 210  :         return (_addcarry_u64(carry, u, v, w));

	add	rax, QWORD PTR [r9]

; 302  :         return (_umul128(u, v, w_hi));

	mov	rcx, rdx

; 210  :         return (_addcarry_u64(carry, u, v, w));

	adc	rcx, 0
	add	rax, r10
; File z:\sources\lunor\repos\rougemeilland\palmtree.math.core.uint\palmtree.math.core.uint\pmc_multiply.c

; 47   :     *wp = t_lo;

	mov	QWORD PTR [r9], rax
; File z:\sources\lunor\repos\rougemeilland\palmtree.math.core.uint\palmtree.math.core.uint\pmc_inline_func.h

; 210  :         return (_addcarry_u64(carry, u, v, w));

	adc	rcx, 0
	mov	QWORD PTR t_lo$112[rbp-256], rax
	mov	QWORD PTR t_hi$113[rbp-256], rcx

; 302  :         return (_umul128(u, v, w_hi));

	mov	rax, rbx
	mul	QWORD PTR [r11+8]

; 210  :         return (_addcarry_u64(carry, u, v, w));

	add	rax, QWORD PTR [r9+8]

; 302  :         return (_umul128(u, v, w_hi));

	mov	r8, rdx

; 210  :         return (_addcarry_u64(carry, u, v, w));

	adc	r8, 0
	add	rax, rcx
; File z:\sources\lunor\repos\rougemeilland\palmtree.math.core.uint\palmtree.math.core.uint\pmc_multiply.c

; 47   :     *wp = t_lo;

	mov	QWORD PTR [r9+8], rax
; File z:\sources\lunor\repos\rougemeilland\palmtree.math.core.uint\palmtree.math.core.uint\pmc_inline_func.h

; 210  :         return (_addcarry_u64(carry, u, v, w));

	adc	r8, 0
	mov	QWORD PTR t_lo$114[rbp-256], rax

; 302  :         return (_umul128(u, v, w_hi));

	mov	rax, rbx

; 210  :         return (_addcarry_u64(carry, u, v, w));

	mov	QWORD PTR t_hi$115[rbp-256], r8

; 302  :         return (_umul128(u, v, w_hi));

	mul	QWORD PTR [r11+16]

; 210  :         return (_addcarry_u64(carry, u, v, w));

	add	rax, QWORD PTR [r9+16]

; 302  :         return (_umul128(u, v, w_hi));

	mov	rcx, rdx

; 210  :         return (_addcarry_u64(carry, u, v, w));

	adc	rcx, 0
	add	rax, r8
; File z:\sources\lunor\repos\rougemeilland\palmtree.math.core.uint\palmtree.math.core.uint\pmc_multiply.c

; 47   :     *wp = t_lo;

	mov	QWORD PTR [r9+16], rax
; File z:\sources\lunor\repos\rougemeilland\palmtree.math.core.uint\palmtree.math.core.uint\pmc_inline_func.h

; 210  :         return (_addcarry_u64(carry, u, v, w));

	adc	rcx, 0
	mov	QWORD PTR t_lo$116[rbp-256], rax

; 302  :         return (_umul128(u, v, w_hi));

	mov	rax, rbx

; 210  :         return (_addcarry_u64(carry, u, v, w));

	mov	QWORD PTR t_hi$117[rbp-256], rcx

; 302  :         return (_umul128(u, v, w_hi));

	mul	QWORD PTR [r11+24]

; 210  :         return (_addcarry_u64(carry, u, v, w));

	add	rax, QWORD PTR [r9+24]

; 302  :         return (_umul128(u, v, w_hi));

	mov	r10, rdx

; 210  :         return (_addcarry_u64(carry, u, v, w));

	adc	r10, 0
	add	rax, rcx
; File z:\sources\lunor\repos\rougemeilland\palmtree.math.core.uint\palmtree.math.core.uint\pmc_multiply.c

; 47   :     *wp = t_lo;

	mov	QWORD PTR [r9+24], rax
; File z:\sources\lunor\repos\rougemeilland\palmtree.math.core.uint\palmtree.math.core.uint\pmc_inline_func.h

; 210  :         return (_addcarry_u64(carry, u, v, w));

	adc	r10, 0
	mov	QWORD PTR t_lo$118[rbp-256], rax
; File z:\sources\lunor\repos\rougemeilland\palmtree.math.core.uint\palmtree.math.core.uint\pmc_multiply.c

; 168  :         up += 4;

	add	r11, 32					; 00000020H
; File z:\sources\lunor\repos\rougemeilland\palmtree.math.core.uint\palmtree.math.core.uint\pmc_inline_func.h

; 210  :         return (_addcarry_u64(carry, u, v, w));

	mov	QWORD PTR t_hi$119[rbp-256], r10
; File z:\sources\lunor\repos\rougemeilland\palmtree.math.core.uint\palmtree.math.core.uint\pmc_multiply.c

; 169  :         wp += 4;

	add	r9, 32					; 00000020H
; File z:\sources\lunor\repos\rougemeilland\palmtree.math.core.uint\palmtree.math.core.uint\pmc_uint_internal.h

; 349  :         _InterlockedExchangeAdd(&statistics_info.COUNT_MULTI64, value);

	mov	eax, 4
	lock xadd DWORD PTR statistics_info, eax
$LN757@Multiply_W:
; File z:\sources\lunor\repos\rougemeilland\palmtree.math.core.uint\palmtree.math.core.uint\pmc_multiply.c

; 178  :     if (u_count & 0x2)

	test	dil, 2
	je	SHORT $LN785@Multiply_W
; File z:\sources\lunor\repos\rougemeilland\palmtree.math.core.uint\palmtree.math.core.uint\pmc_inline_func.h

; 302  :         return (_umul128(u, v, w_hi));

	mov	rax, rbx
	mul	QWORD PTR [r11]

; 210  :         return (_addcarry_u64(carry, u, v, w));

	add	rax, QWORD PTR [r9]

; 302  :         return (_umul128(u, v, w_hi));

	mov	rcx, rdx

; 210  :         return (_addcarry_u64(carry, u, v, w));

	adc	rcx, 0
	add	rax, r10
; File z:\sources\lunor\repos\rougemeilland\palmtree.math.core.uint\palmtree.math.core.uint\pmc_multiply.c

; 47   :     *wp = t_lo;

	mov	QWORD PTR [r9], rax
; File z:\sources\lunor\repos\rougemeilland\palmtree.math.core.uint\palmtree.math.core.uint\pmc_inline_func.h

; 210  :         return (_addcarry_u64(carry, u, v, w));

	adc	rcx, 0
	mov	QWORD PTR t_lo$120[rbp-256], rax

; 302  :         return (_umul128(u, v, w_hi));

	mov	rax, rbx

; 210  :         return (_addcarry_u64(carry, u, v, w));

	mov	QWORD PTR t_hi$121[rbp-256], rcx

; 302  :         return (_umul128(u, v, w_hi));

	mul	QWORD PTR [r11+8]

; 210  :         return (_addcarry_u64(carry, u, v, w));

	add	rax, QWORD PTR [r9+8]

; 302  :         return (_umul128(u, v, w_hi));

	mov	r10, rdx

; 210  :         return (_addcarry_u64(carry, u, v, w));

	adc	r10, 0
	add	rax, rcx
; File z:\sources\lunor\repos\rougemeilland\palmtree.math.core.uint\palmtree.math.core.uint\pmc_multiply.c

; 47   :     *wp = t_lo;

	mov	QWORD PTR [r9+8], rax
; File z:\sources\lunor\repos\rougemeilland\palmtree.math.core.uint\palmtree.math.core.uint\pmc_inline_func.h

; 210  :         return (_addcarry_u64(carry, u, v, w));

	adc	r10, 0
	mov	QWORD PTR t_lo$122[rbp-256], rax
; File z:\sources\lunor\repos\rougemeilland\palmtree.math.core.uint\palmtree.math.core.uint\pmc_multiply.c

; 182  :         up += 2;

	add	r11, 16
; File z:\sources\lunor\repos\rougemeilland\palmtree.math.core.uint\palmtree.math.core.uint\pmc_inline_func.h

; 210  :         return (_addcarry_u64(carry, u, v, w));

	mov	QWORD PTR t_hi$123[rbp-256], r10
; File z:\sources\lunor\repos\rougemeilland\palmtree.math.core.uint\palmtree.math.core.uint\pmc_multiply.c

; 183  :         wp += 2;

	add	r9, 16
; File z:\sources\lunor\repos\rougemeilland\palmtree.math.core.uint\palmtree.math.core.uint\pmc_uint_internal.h

; 349  :         _InterlockedExchangeAdd(&statistics_info.COUNT_MULTI64, value);

	mov	eax, 2
	lock xadd DWORD PTR statistics_info, eax
$LN785@Multiply_W:
; File z:\sources\lunor\repos\rougemeilland\palmtree.math.core.uint\palmtree.math.core.uint\pmc_multiply.c

; 192  :     if (u_count & 0x1)

	test	dil, 1
	je	SHORT $LN801@Multiply_W
; File z:\sources\lunor\repos\rougemeilland\palmtree.math.core.uint\palmtree.math.core.uint\pmc_inline_func.h

; 302  :         return (_umul128(u, v, w_hi));

	mov	rax, rbx
	mul	QWORD PTR [r11]

; 210  :         return (_addcarry_u64(carry, u, v, w));

	add	rax, QWORD PTR [r9]
	adc	rdx, 0
	add	rax, r10
	mov	r10, rdx
; File z:\sources\lunor\repos\rougemeilland\palmtree.math.core.uint\palmtree.math.core.uint\pmc_multiply.c

; 47   :     *wp = t_lo;

	mov	QWORD PTR [r9], rax
; File z:\sources\lunor\repos\rougemeilland\palmtree.math.core.uint\palmtree.math.core.uint\pmc_inline_func.h

; 210  :         return (_addcarry_u64(carry, u, v, w));

	adc	r10, 0
	mov	QWORD PTR t_lo$124[rbp-256], rax
	mov	QWORD PTR t_hi$125[rbp-256], r10
; File z:\sources\lunor\repos\rougemeilland\palmtree.math.core.uint\palmtree.math.core.uint\pmc_multiply.c

; 196  :         wp += 1;

	add	r9, 8
; File z:\sources\lunor\repos\rougemeilland\palmtree.math.core.uint\palmtree.math.core.uint\pmc_uint_internal.h

; 326  :         _InterlockedIncrement(&statistics_info.COUNT_MULTI64);

	lock inc DWORD PTR statistics_info
$LN801@Multiply_W:
; File z:\sources\lunor\repos\rougemeilland\palmtree.math.core.uint\palmtree.math.core.uint\pmc_multiply.c

; 205  :     if (k != 0)

	xor	eax, eax
	test	r10, r10
	je	SHORT $LN21@Multiply_W

; 206  :         *wp = k;

	mov	QWORD PTR [r9], r10
$LN21@Multiply_W:

; 207  : 
; 208  :     return (PMC_STATUS_OK);
; 209  : }

	lea	r11, QWORD PTR [rsp+1008]
	mov	rbx, QWORD PTR [r11+16]
	mov	rsi, QWORD PTR [r11+32]
	mov	rdi, QWORD PTR [r11+40]
	mov	rsp, r11
	pop	rbp
	ret	0
Multiply_WORD_using_MUL_ADC ENDP
_TEXT	ENDS
; Function compile flags: /Ogtpy
; File z:\sources\lunor\repos\rougemeilland\palmtree.math.core.uint\palmtree.math.core.uint\pmc_multiply.c
; File z:\sources\lunor\repos\rougemeilland\palmtree.math.core.uint\palmtree.math.core.uint\pmc_inline_func.h
; File z:\sources\lunor\repos\rougemeilland\palmtree.math.core.uint\palmtree.math.core.uint\pmc_multiply.c
; File z:\sources\lunor\repos\rougemeilland\palmtree.math.core.uint\palmtree.math.core.uint\pmc_inline_func.h
; File z:\sources\lunor\repos\rougemeilland\palmtree.math.core.uint\palmtree.math.core.uint\pmc_multiply.c
;	COMDAT _MULTIPLYX_DIGIT_UNIT
_TEXT	SEGMENT
k$ = 8
up$ = 16
v$ = 24
wp$ = 32
_MULTIPLYX_DIGIT_UNIT PROC				; COMDAT

; 54   :     __UNIT_TYPE t_hi;
; 55   :     __UNIT_TYPE t_lo;
; 56   :     t_lo = _MULTIPLYX_UNIT(*up, v, &t_hi);

	mov	rax, QWORD PTR [rdx]
; File z:\sources\lunor\repos\rougemeilland\palmtree.math.core.uint\palmtree.math.core.uint\pmc_inline_func.h

; 333  :         return (_mulx_u64(u, v, w_hi));

	mov	rdx, r8
	mulx	rax, r8, rax

; 238  :         return (_addcarryx_u64(carry, u, v, w));

	add	r8, QWORD PTR [r9]
	mov	edx, 0
	adcx	rax, rdx
	add	r8, rcx
; File z:\sources\lunor\repos\rougemeilland\palmtree.math.core.uint\palmtree.math.core.uint\pmc_multiply.c

; 59   :     *wp = t_lo;

	mov	QWORD PTR [r9], r8
; File z:\sources\lunor\repos\rougemeilland\palmtree.math.core.uint\palmtree.math.core.uint\pmc_inline_func.h

; 238  :         return (_addcarryx_u64(carry, u, v, w));

	adcx	rax, rdx
; File z:\sources\lunor\repos\rougemeilland\palmtree.math.core.uint\palmtree.math.core.uint\pmc_multiply.c

; 62   : }

	ret	0
_MULTIPLYX_DIGIT_UNIT ENDP
_TEXT	ENDS
; Function compile flags: /Ogtpy
; File z:\sources\lunor\repos\rougemeilland\palmtree.math.core.uint\palmtree.math.core.uint\pmc_multiply.c
; File z:\sources\lunor\repos\rougemeilland\palmtree.math.core.uint\palmtree.math.core.uint\pmc_inline_func.h
; File z:\sources\lunor\repos\rougemeilland\palmtree.math.core.uint\palmtree.math.core.uint\pmc_multiply.c
; File z:\sources\lunor\repos\rougemeilland\palmtree.math.core.uint\palmtree.math.core.uint\pmc_inline_func.h
; File z:\sources\lunor\repos\rougemeilland\palmtree.math.core.uint\palmtree.math.core.uint\pmc_multiply.c
;	COMDAT _MULTIPLY_DIGIT_UNIT
_TEXT	SEGMENT
k$ = 8
up$ = 16
v$ = 24
wp$ = 32
_MULTIPLY_DIGIT_UNIT PROC				; COMDAT
; File z:\sources\lunor\repos\rougemeilland\palmtree.math.core.uint\palmtree.math.core.uint\pmc_inline_func.h

; 302  :         return (_umul128(u, v, w_hi));

	mov	rax, r8
	mul	QWORD PTR [rdx]

; 210  :         return (_addcarry_u64(carry, u, v, w));

	add	rax, QWORD PTR [r9]
	adc	rdx, 0
	add	rax, rcx
; File z:\sources\lunor\repos\rougemeilland\palmtree.math.core.uint\palmtree.math.core.uint\pmc_multiply.c

; 47   :     *wp = t_lo;

	mov	QWORD PTR [r9], rax
; File z:\sources\lunor\repos\rougemeilland\palmtree.math.core.uint\palmtree.math.core.uint\pmc_inline_func.h

; 210  :         return (_addcarry_u64(carry, u, v, w));

	adc	rdx, 0
; File z:\sources\lunor\repos\rougemeilland\palmtree.math.core.uint\palmtree.math.core.uint\pmc_multiply.c

; 49   :     return (k);

	mov	rax, rdx

; 50   : }

	ret	0
_MULTIPLY_DIGIT_UNIT ENDP
_TEXT	ENDS
; Function compile flags: /Ogtpy
; File z:\sources\lunor\repos\rougemeilland\palmtree.math.core.uint\palmtree.math.core.uint\pmc_inline_func.h
;	COMDAT _LZCNT_ALT_UNIT
_TEXT	SEGMENT
x$ = 8
_LZCNT_ALT_UNIT PROC					; COMDAT

; 623  :         if (x == 0)

	test	rcx, rcx
	jne	SHORT $LN2@LZCNT_ALT_

; 624  :             return (sizeof(x) * 8);

	mov	eax, 64					; 00000040H

; 648  :     }

	ret	0
$LN2@LZCNT_ALT_:

; 625  : #ifdef _M_IX86
; 626  :         _UINT32_T pos;
; 627  : #ifdef _MSC_VER
; 628  :         _BitScanReverse(&pos, x);
; 629  : #elif defined(__GNUC__)
; 630  :         __asm__("bsrl %1, %0" : "=r"(pos) : "rm"(x));
; 631  : #else
; 632  : #error unknown compiler
; 633  : #endif
; 634  : #elif defined(_M_X64)
; 635  : #ifdef _MSC_VER
; 636  :         _UINT32_T pos;
; 637  :         _BitScanReverse64(&pos, x);

	bsr	rcx, rcx

; 638  : #elif defined(__GNUC__)
; 639  :         _UINT64_T pos;
; 640  :         __asm__("bsrq %1, %0" : "=r"(pos) : "rm"(x));
; 641  : #else
; 642  : #error unknown compiler
; 643  : #endif
; 644  : #else
; 645  : #error unknown platform
; 646  : #endif
; 647  :         return (sizeof(x) * 8 - 1 - pos);

	mov	eax, 63					; 0000003fH
	sub	eax, ecx

; 648  :     }

	ret	0
_LZCNT_ALT_UNIT ENDP
_TEXT	ENDS
; Function compile flags: /Ogtpy
; File z:\sources\lunor\repos\rougemeilland\palmtree.math.core.uint\palmtree.math.core.uint\pmc_inline_func.h
;	COMDAT _LZCNT_ALT_32
_TEXT	SEGMENT
x$ = 8
_LZCNT_ALT_32 PROC					; COMDAT

; 590  :         if (x == 0)

	test	ecx, ecx
	jne	SHORT $LN2@LZCNT_ALT_

; 591  :             return (sizeof(x) * 8);

	mov	eax, 32					; 00000020H

; 601  :     }

	ret	0
$LN2@LZCNT_ALT_:

; 592  :         _UINT32_T pos;
; 593  : #ifdef _MSC_VER
; 594  :         _BitScanReverse(&pos, x);

	bsr	ecx, ecx

; 595  : #elif defined(__GNUC__)
; 596  :         __asm__("bsrl %1, %0" : "=r"(pos) : "rm"(x));
; 597  : #else
; 598  : #error unknown compiler
; 599  : #endif
; 600  :         return (sizeof(x) * 8 - 1 - pos);

	mov	eax, 31
	sub	eax, ecx

; 601  :     }

	ret	0
_LZCNT_ALT_32 ENDP
_TEXT	ENDS
; Function compile flags: /Ogtpy
; File z:\sources\lunor\repos\rougemeilland\palmtree.math.core.uint\palmtree.math.core.uint\pmc_inline_func.h
;	COMDAT _MULTIPLYX_UNIT
_TEXT	SEGMENT
u$ = 8
v$ = 16
w_hi$ = 24
_MULTIPLYX_UNIT PROC					; COMDAT

; 329  : #ifdef _MSC_VER
; 330  : #ifdef _M_IX86
; 331  :         return (_FROMDWORDTOWORD((_UINT64_T)u * v, w_hi));
; 332  : #elif defined(_M_X64)
; 333  :         return (_mulx_u64(u, v, w_hi));

	mulx	rcx, rax, rcx
	mov	QWORD PTR [r8], rcx

; 334  : #else
; 335  : #error unknown platform
; 336  : #endif
; 337  : #elif defined(__GNUC__)
; 338  : #ifdef _M_IX86
; 339  :         _UINT32_T w_lo;
; 340  :         __asm__("mulxl %3, %0, %1" : "=r"(w_lo), "=r"(*w_hi), "+d"(u) : "rm"(v));
; 341  :         return (w_lo);
; 342  : #elif defined(_M_X64)
; 343  :         _UINT64_T w_lo;
; 344  :         __asm__("mulxq %3, %0, %1" : "=r"(w_lo), "=r"(*w_hi), "+d"(u) : "rm"(v));
; 345  :         return (w_lo);
; 346  : #else
; 347  : #error unknown platform
; 348  : #endif
; 349  : #else
; 350  : #error unknown compiler
; 351  : #endif
; 352  :     }

	ret	0
_MULTIPLYX_UNIT ENDP
_TEXT	ENDS
; Function compile flags: /Ogtpy
; File z:\sources\lunor\repos\rougemeilland\palmtree.math.core.uint\palmtree.math.core.uint\pmc_inline_func.h
;	COMDAT _MULTIPLY_UNIT
_TEXT	SEGMENT
u$ = 8
v$ = 16
w_hi$ = 24
_MULTIPLY_UNIT PROC					; COMDAT

; 291  : #ifdef _M_IX86
; 292  : #ifdef _MSC_VER
; 293  :         return (_FROMDWORDTOWORD((_UINT64_T)u * v, w_hi));
; 294  : #elif defined(__GNUC__)
; 295  :         _UINT32_T w_lo;
; 296  :         __asm__("mull %3": "=a"(w_lo), "=d"(*w_hi) : "0"(u), "rm"(v));
; 297  :         return (w_lo);
; 298  : #else
; 299  : #error unknown compiler
; 300  : #endif
; 301  : #elif defined(_M_X64)
; 302  :         return (_umul128(u, v, w_hi));

	mov	rax, rdx
	mul	rcx
	mov	QWORD PTR [r8], rdx

; 303  : #else
; 304  : #error unknown platform
; 305  : #endif
; 306  :     }

	ret	0
_MULTIPLY_UNIT ENDP
_TEXT	ENDS
; Function compile flags: /Ogtpy
; File z:\sources\lunor\repos\rougemeilland\palmtree.math.core.uint\palmtree.math.core.uint\pmc_inline_func.h
;	COMDAT _ADDX_UNIT
_TEXT	SEGMENT
carry$ = 8
u$ = 16
v$ = 24
w$ = 32
_ADDX_UNIT PROC						; COMDAT

; 235  : #ifdef _M_IX86
; 236  :         return (_addcarryx_u32(carry, u, v, w));
; 237  : #elif defined(_M_X64)
; 238  :         return (_addcarryx_u64(carry, u, v, w));

	add	cl, -1
	adcx	rdx, r8
	mov	QWORD PTR [r9], rdx
	setb	al

; 239  : #else
; 240  : #error unknown platform
; 241  : #endif
; 242  :     }

	ret	0
_ADDX_UNIT ENDP
_TEXT	ENDS
; Function compile flags: /Ogtpy
; File z:\sources\lunor\repos\rougemeilland\palmtree.math.core.uint\palmtree.math.core.uint\pmc_inline_func.h
;	COMDAT _ADD_UNIT
_TEXT	SEGMENT
carry$ = 8
u$ = 16
v$ = 24
w$ = 32
_ADD_UNIT PROC						; COMDAT

; 207  : #ifdef _M_IX86
; 208  :         return (_addcarry_u32(carry, u, v, w));
; 209  : #elif defined(_M_X64)
; 210  :         return (_addcarry_u64(carry, u, v, w));

	add	cl, -1
	adc	rdx, r8
	mov	QWORD PTR [r9], rdx
	setb	al

; 211  : #else
; 212  : #error unknown platform
; 213  : #endif
; 214  :     }

	ret	0
_ADD_UNIT ENDP
_TEXT	ENDS
; Function compile flags: /Ogtpy
; File z:\sources\lunor\repos\rougemeilland\palmtree.math.core.uint\palmtree.math.core.uint\pmc_inline_func.h
;	COMDAT _FROMDWORDTOWORD
_TEXT	SEGMENT
value$ = 8
result_high$ = 16
_FROMDWORDTOWORD PROC					; COMDAT

; 176  :         *result_high = (_UINT32_T)(value >> 32);

	mov	rax, rcx
	shr	rax, 32					; 00000020H
	mov	DWORD PTR [rdx], eax

; 177  :         return ((_UINT32_T)value);

	mov	eax, ecx

; 178  :     }

	ret	0
_FROMDWORDTOWORD ENDP
_TEXT	ENDS
; Function compile flags: /Ogtpy
; File z:\sources\lunor\repos\rougemeilland\palmtree.math.core.uint\palmtree.math.core.uint\pmc_uint_internal.h
;	COMDAT AddToMULTI64Counter
_TEXT	SEGMENT
value$ = 8
AddToMULTI64Counter PROC				; COMDAT

; 349  :         _InterlockedExchangeAdd(&statistics_info.COUNT_MULTI64, value);

	lock xadd DWORD PTR statistics_info, ecx

; 350  :     }

	ret	0
AddToMULTI64Counter ENDP
_TEXT	ENDS
; Function compile flags: /Ogtpy
; File z:\sources\lunor\repos\rougemeilland\palmtree.math.core.uint\palmtree.math.core.uint\pmc_uint_internal.h
;	COMDAT AddToMULTI32Counter
_TEXT	SEGMENT
value$ = 8
AddToMULTI32Counter PROC				; COMDAT

; 343  :         _InterlockedExchangeAdd(&statistics_info.COUNT_MULTI32, value);

	lock xadd DWORD PTR statistics_info+4, ecx

; 344  :     }

	ret	0
AddToMULTI32Counter ENDP
_TEXT	ENDS
; Function compile flags: /Ogtpy
; File z:\sources\lunor\repos\rougemeilland\palmtree.math.core.uint\palmtree.math.core.uint\pmc_uint_internal.h
;	COMDAT IncrementMULTI64Counter
_TEXT	SEGMENT
IncrementMULTI64Counter PROC				; COMDAT

; 326  :         _InterlockedIncrement(&statistics_info.COUNT_MULTI64);

	lock inc DWORD PTR statistics_info

; 327  :     }

	ret	0
IncrementMULTI64Counter ENDP
_TEXT	ENDS
; Function compile flags: /Ogtpy
; File z:\sources\lunor\repos\rougemeilland\palmtree.math.core.uint\palmtree.math.core.uint\pmc_uint_internal.h
;	COMDAT IncrementMULTI32Counter
_TEXT	SEGMENT
IncrementMULTI32Counter PROC				; COMDAT

; 320  :         _InterlockedIncrement(&statistics_info.COUNT_MULTI32);

	lock inc DWORD PTR statistics_info+4

; 321  :     }

	ret	0
IncrementMULTI32Counter ENDP
_TEXT	ENDS
; Function compile flags: /Ogtpy
; File z:\sources\lunor\repos\rougemeilland\palmtree.math.core.uint\palmtree.math.core.uint\pmc_multiply.c
;	COMDAT PMC_Multiply_X_X
_TEXT	SEGMENT
nw$ = 64
u$ = 64
v$ = 72
w$ = 80
w_light_check_code$1 = 88
PMC_Multiply_X_X PROC					; COMDAT

; 698  : {

$LN27:
	mov	QWORD PTR [rsp+16], rbx
	mov	QWORD PTR [rsp+24], rsi
	push	rdi
	sub	rsp, 48					; 00000030H
	mov	rbx, r8
	mov	rdi, rdx
	mov	rsi, rcx

; 699  :     if (u == NULL)

	test	rcx, rcx
	je	$LN22@PMC_Multip

; 700  :         return (PMC_STATUS_ARGUMENT_ERROR);
; 701  :     if (v == NULL)

	test	rdx, rdx
	je	$LN22@PMC_Multip

; 702  :         return (PMC_STATUS_ARGUMENT_ERROR);
; 703  :     if (w == NULL)

	test	rbx, rbx
	je	$LN22@PMC_Multip

; 705  :     NUMBER_HEADER* nu = (NUMBER_HEADER*)u;
; 706  :     NUMBER_HEADER* nv = (NUMBER_HEADER*)v;
; 707  :     PMC_STATUS_CODE result;
; 708  :     if ((result = CheckNumber(nu)) != PMC_STATUS_OK)

	call	CheckNumber
	test	eax, eax
	jne	$LN1@PMC_Multip

; 709  :         return (result);
; 710  :     if ((result = CheckNumber(nv)) != PMC_STATUS_OK)

	mov	rcx, rdi
	call	CheckNumber
	test	eax, eax
	jne	$LN1@PMC_Multip

; 711  :         return (result);
; 712  :     NUMBER_HEADER* nw;
; 713  :     if (nu->IS_ZERO)

	mov	ecx, DWORD PTR [rsi+40]
	test	cl, 2
	jne	SHORT $LN25@PMC_Multip

; 714  :     {
; 715  :         // x が 0 である場合
; 716  : 
; 717  :         // y の値にかかわらず 0 を返す。
; 718  :         *w = (PMC_HANDLE_UINT)&number_zero;
; 719  :     }
; 720  :     else if (nu->IS_ONE)

	mov	edx, DWORD PTR [rdi+40]
	mov	eax, edx
	and	eax, 2
	test	cl, 4
	je	SHORT $LN9@PMC_Multip

; 721  :     {
; 722  :         // x が 1 である場合
; 723  :         if (nv->IS_ZERO)

	test	eax, eax
	jne	SHORT $LN25@PMC_Multip

; 724  :         {
; 725  :             // y が 0 である場合
; 726  : 
; 727  :             //  0  を返す。
; 728  :             *w = (PMC_HANDLE_UINT)&number_zero;
; 729  :         }
; 730  :         else
; 731  :         {
; 732  :             // y が 0 ではない場合
; 733  : 
; 734  :             // 乗算結果は y に等しいため、y の値を持つ NUMBER_HEADER 構造体を獲得し、呼び出し元へ返す。
; 735  :             if ((result = DuplicateNumber(nv, &nw)) != PMC_STATUS_OK)

	lea	rdx, QWORD PTR nw$[rsp]
	mov	rcx, rdi
	call	DuplicateNumber
	test	eax, eax
	jne	$LN1@PMC_Multip

; 774  :         }
; 775  :         *w = (PMC_HANDLE_UINT)nw;
; 776  :     }
; 777  : #ifdef _DEBUG
; 778  :     if ((result = CheckNumber((NUMBER_HEADER*)*w)) != PMC_STATUS_OK)
; 779  :         return (result);
; 780  : #endif
; 781  :     return (PMC_STATUS_OK);

	mov	rax, QWORD PTR nw$[rsp]
	mov	QWORD PTR [rbx], rax
	xor	eax, eax

; 782  : }

	mov	rbx, QWORD PTR [rsp+72]
	mov	rsi, QWORD PTR [rsp+80]
	add	rsp, 48					; 00000030H
	pop	rdi
	ret	0
$LN9@PMC_Multip:

; 736  :                 return (result);
; 737  :             *w = (PMC_HANDLE_UINT)nw;
; 738  :         }
; 739  :     }
; 740  :     else
; 741  :     {
; 742  :         // x が 0 と 1 のどちらでもない場合
; 743  : 
; 744  :         if (nv->IS_ZERO)

	test	eax, eax
	je	SHORT $LN14@PMC_Multip
$LN25@PMC_Multip:

; 774  :         }
; 775  :         *w = (PMC_HANDLE_UINT)nw;
; 776  :     }
; 777  : #ifdef _DEBUG
; 778  :     if ((result = CheckNumber((NUMBER_HEADER*)*w)) != PMC_STATUS_OK)
; 779  :         return (result);
; 780  : #endif
; 781  :     return (PMC_STATUS_OK);

	lea	rax, OFFSET FLAT:number_zero
	mov	QWORD PTR [rbx], rax
	xor	eax, eax

; 782  : }

	mov	rbx, QWORD PTR [rsp+72]
	mov	rsi, QWORD PTR [rsp+80]
	add	rsp, 48					; 00000030H
	pop	rdi
	ret	0
$LN14@PMC_Multip:

; 745  :         {
; 746  :             // y が 0 である場合
; 747  : 
; 748  :             //  0  を返す。
; 749  :             nw = &number_zero;
; 750  :         }
; 751  :         else if (nv->IS_ONE)

	test	dl, 4
	je	SHORT $LN16@PMC_Multip

; 752  :         {
; 753  :             // y が 1 である場合
; 754  : 
; 755  :             // 乗算結果は x に等しいため、x の値を持つ NUMBER_HEADER 構造体を獲得し、呼び出し元へ返す。
; 756  :             if ((result = DuplicateNumber(nu, &nw)) != PMC_STATUS_OK)

	lea	rdx, QWORD PTR nw$[rsp]
	mov	rcx, rsi
	call	DuplicateNumber
	test	eax, eax
	jne	$LN1@PMC_Multip

; 774  :         }
; 775  :         *w = (PMC_HANDLE_UINT)nw;
; 776  :     }
; 777  : #ifdef _DEBUG
; 778  :     if ((result = CheckNumber((NUMBER_HEADER*)*w)) != PMC_STATUS_OK)
; 779  :         return (result);
; 780  : #endif
; 781  :     return (PMC_STATUS_OK);

	mov	rax, QWORD PTR nw$[rsp]
	mov	QWORD PTR [rbx], rax
	xor	eax, eax

; 782  : }

	mov	rbx, QWORD PTR [rsp+72]
	mov	rsi, QWORD PTR [rsp+80]
	add	rsp, 48					; 00000030H
	pop	rdi
	ret	0
$LN16@PMC_Multip:

; 757  :                 return (result);
; 758  :         }
; 759  :         else
; 760  :         {
; 761  :             // x と y がともに 0 、1 のどちらでもない場合
; 762  : 
; 763  :             // x と y の積を計算する
; 764  :             __UNIT_TYPE u_bit_count = nu->UNIT_BIT_COUNT;
; 765  :             __UNIT_TYPE v_bit_count = nv->UNIT_BIT_COUNT;
; 766  :             __UNIT_TYPE w_bit_count = u_bit_count + v_bit_count;

	mov	rdx, QWORD PTR [rsi+16]

; 767  :             __UNIT_TYPE w_light_check_code;
; 768  :             if ((result = AllocateNumber(&nw, w_bit_count, &w_light_check_code)) != PMC_STATUS_OK)

	lea	r8, QWORD PTR w_light_check_code$1[rsp]
	add	rdx, QWORD PTR [rdi+16]
	lea	rcx, QWORD PTR nw$[rsp]
	call	AllocateNumber
	test	eax, eax
	jne	SHORT $LN1@PMC_Multip

; 769  :                 return (result);
; 770  :             (*fp_Multiply_X_X)(nu->BLOCK, nu->UNIT_WORD_COUNT, nv->BLOCK, nv->UNIT_WORD_COUNT, nw->BLOCK);

	mov	rax, QWORD PTR nw$[rsp]
	mov	r9, QWORD PTR [rdi+8]
	mov	r8, QWORD PTR [rdi+56]
	mov	rdx, QWORD PTR [rsi+8]
	mov	rcx, QWORD PTR [rax+56]
	mov	QWORD PTR [rsp+32], rcx
	mov	rcx, QWORD PTR [rsi+56]
	call	QWORD PTR fp_Multiply_X_X

; 771  :             if ((result = CheckBlockLight(nw->BLOCK, w_light_check_code)) != PMC_STATUS_OK)

	mov	rcx, QWORD PTR nw$[rsp]
	mov	rdx, QWORD PTR w_light_check_code$1[rsp]
	mov	rcx, QWORD PTR [rcx+56]
	call	CheckBlockLight
	test	eax, eax
	jne	SHORT $LN1@PMC_Multip

; 772  :                 return (result);
; 773  :             CommitNumber(nw);

	mov	rcx, QWORD PTR nw$[rsp]
	call	CommitNumber

; 774  :         }
; 775  :         *w = (PMC_HANDLE_UINT)nw;
; 776  :     }
; 777  : #ifdef _DEBUG
; 778  :     if ((result = CheckNumber((NUMBER_HEADER*)*w)) != PMC_STATUS_OK)
; 779  :         return (result);
; 780  : #endif
; 781  :     return (PMC_STATUS_OK);

	mov	rax, QWORD PTR nw$[rsp]
	mov	QWORD PTR [rbx], rax
	xor	eax, eax

; 782  : }

	mov	rbx, QWORD PTR [rsp+72]
	mov	rsi, QWORD PTR [rsp+80]
	add	rsp, 48					; 00000030H
	pop	rdi
	ret	0
$LN22@PMC_Multip:

; 704  :         return (PMC_STATUS_ARGUMENT_ERROR);

	mov	eax, -1
$LN1@PMC_Multip:

; 782  : }

	mov	rbx, QWORD PTR [rsp+72]
	mov	rsi, QWORD PTR [rsp+80]
	add	rsp, 48					; 00000030H
	pop	rdi
	ret	0
PMC_Multiply_X_X ENDP
_TEXT	ENDS
; Function compile flags: /Ogtpy
; File z:\sources\lunor\repos\rougemeilland\palmtree.math.core.uint\palmtree.math.core.uint\pmc_multiply.c
;	COMDAT PMC_Multiply_X_L
_TEXT	SEGMENT
u$ = 48
v$ = 56
w$ = 64
PMC_Multiply_X_L PROC					; COMDAT

; 675  : {

$LN10:
	mov	QWORD PTR [rsp+8], rbx
	mov	QWORD PTR [rsp+16], rsi
	push	rdi
	sub	rsp, 32					; 00000020H
	mov	rdi, r8
	mov	rsi, rdx
	mov	rbx, rcx

; 676  :     if (__UNIT_TYPE_BIT_COUNT * 2 < sizeof(v) * 8)
; 677  :     {
; 678  :         // _UINT64_T が 2 ワードで表現しきれない処理系には対応しない
; 679  :         return (PMC_STATUS_INTERNAL_ERROR);
; 680  :     }
; 681  :     if (u == NULL)

	test	rcx, rcx
	je	SHORT $LN8@PMC_Multip

; 682  :         return (PMC_STATUS_ARGUMENT_ERROR);
; 683  :     if (w == NULL)

	test	r8, r8
	je	SHORT $LN8@PMC_Multip

; 685  :     PMC_STATUS_CODE result;
; 686  :     if ((result = CheckNumber((NUMBER_HEADER*)u)) != PMC_STATUS_OK)

	call	CheckNumber
	test	eax, eax
	jne	SHORT $LN6@PMC_Multip

; 687  :         return (result);
; 688  :     if ((result = PMC_Multiply_X_L_Imp((NUMBER_HEADER*)u, v, (NUMBER_HEADER**)w)) != PMC_STATUS_OK)

	mov	r8, rdi
	mov	rdx, rsi
	mov	rcx, rbx

; 689  :         return (result);
; 690  : #ifdef _DEBUG
; 691  :     if ((result = CheckNumber((NUMBER_HEADER*)*w)) != PMC_STATUS_OK)
; 692  :         return (result);
; 693  : #endif
; 694  :     return (PMC_STATUS_OK);
; 695  : }

	mov	rbx, QWORD PTR [rsp+48]
	mov	rsi, QWORD PTR [rsp+56]
	add	rsp, 32					; 00000020H
	pop	rdi

; 687  :         return (result);
; 688  :     if ((result = PMC_Multiply_X_L_Imp((NUMBER_HEADER*)u, v, (NUMBER_HEADER**)w)) != PMC_STATUS_OK)

	jmp	PMC_Multiply_X_L_Imp
$LN8@PMC_Multip:

; 684  :         return (PMC_STATUS_ARGUMENT_ERROR);

	mov	eax, -1
$LN6@PMC_Multip:

; 689  :         return (result);
; 690  : #ifdef _DEBUG
; 691  :     if ((result = CheckNumber((NUMBER_HEADER*)*w)) != PMC_STATUS_OK)
; 692  :         return (result);
; 693  : #endif
; 694  :     return (PMC_STATUS_OK);
; 695  : }

	mov	rbx, QWORD PTR [rsp+48]
	mov	rsi, QWORD PTR [rsp+56]
	add	rsp, 32					; 00000020H
	pop	rdi
	ret	0
PMC_Multiply_X_L ENDP
_TEXT	ENDS
; Function compile flags: /Ogtpy
; File z:\sources\lunor\repos\rougemeilland\palmtree.math.core.uint\palmtree.math.core.uint\pmc_multiply.c
;	COMDAT PMC_Multiply_X_I
_TEXT	SEGMENT
u$ = 48
v$ = 56
w$ = 64
PMC_Multiply_X_I PROC					; COMDAT

; 523  : {

$LN10:
	mov	QWORD PTR [rsp+8], rbx
	mov	QWORD PTR [rsp+16], rsi
	push	rdi
	sub	rsp, 32					; 00000020H
	mov	rdi, r8
	mov	esi, edx
	mov	rbx, rcx

; 524  :     if (__UNIT_TYPE_BIT_COUNT < sizeof(v) * 8)
; 525  :     {
; 526  :         // _UINT32_T が 1 ワードで表現しきれない処理系には対応しない
; 527  :         return (PMC_STATUS_INTERNAL_ERROR);
; 528  :     }
; 529  :     if (u == NULL)

	test	rcx, rcx
	je	SHORT $LN8@PMC_Multip

; 530  :         return (PMC_STATUS_ARGUMENT_ERROR);
; 531  :     if (w == NULL)

	test	r8, r8
	je	SHORT $LN8@PMC_Multip

; 533  :     PMC_STATUS_CODE result;
; 534  :     if ((result = CheckNumber((NUMBER_HEADER*)u)) != PMC_STATUS_OK)

	call	CheckNumber
	test	eax, eax
	jne	SHORT $LN6@PMC_Multip

; 535  :         return (result);
; 536  :     if ((result = PMC_Multiply_X_I_Imp((NUMBER_HEADER*)u, v, (NUMBER_HEADER**)w)) != PMC_STATUS_OK)

	mov	r8, rdi
	mov	edx, esi
	mov	rcx, rbx

; 537  :         return (result);
; 538  : #ifdef _DEBUG
; 539  :     if ((result = CheckNumber((NUMBER_HEADER*)*w)) != PMC_STATUS_OK)
; 540  :         return (result);
; 541  : #endif
; 542  :     return (PMC_STATUS_OK);
; 543  : }

	mov	rbx, QWORD PTR [rsp+48]
	mov	rsi, QWORD PTR [rsp+56]
	add	rsp, 32					; 00000020H
	pop	rdi

; 535  :         return (result);
; 536  :     if ((result = PMC_Multiply_X_I_Imp((NUMBER_HEADER*)u, v, (NUMBER_HEADER**)w)) != PMC_STATUS_OK)

	jmp	PMC_Multiply_X_I_Imp
$LN8@PMC_Multip:

; 532  :         return (PMC_STATUS_ARGUMENT_ERROR);

	mov	eax, -1
$LN6@PMC_Multip:

; 537  :         return (result);
; 538  : #ifdef _DEBUG
; 539  :     if ((result = CheckNumber((NUMBER_HEADER*)*w)) != PMC_STATUS_OK)
; 540  :         return (result);
; 541  : #endif
; 542  :     return (PMC_STATUS_OK);
; 543  : }

	mov	rbx, QWORD PTR [rsp+48]
	mov	rsi, QWORD PTR [rsp+56]
	add	rsp, 32					; 00000020H
	pop	rdi
	ret	0
PMC_Multiply_X_I ENDP
_TEXT	ENDS
; Function compile flags: /Ogtpy
; File z:\sources\lunor\repos\rougemeilland\palmtree.math.core.uint\palmtree.math.core.uint\pmc_multiply.c
;	COMDAT PMC_Multiply_L_X
_TEXT	SEGMENT
u$ = 48
v$ = 56
w$ = 64
PMC_Multiply_L_X PROC					; COMDAT

; 652  : {

$LN10:
	mov	QWORD PTR [rsp+8], rbx
	mov	QWORD PTR [rsp+16], rsi
	push	rdi
	sub	rsp, 32					; 00000020H
	mov	rdi, r8
	mov	rbx, rdx
	mov	rsi, rcx

; 653  :     if (__UNIT_TYPE_BIT_COUNT * 2 < sizeof(u) * 8)
; 654  :     {
; 655  :         // _UINT64_T が 2 ワードで表現しきれない処理系には対応しない
; 656  :         return (PMC_STATUS_INTERNAL_ERROR);
; 657  :     }
; 658  :     if (v == NULL)

	test	rdx, rdx
	je	SHORT $LN8@PMC_Multip

; 659  :         return (PMC_STATUS_ARGUMENT_ERROR);
; 660  :     if (w == NULL)

	test	r8, r8
	je	SHORT $LN8@PMC_Multip

; 662  :     PMC_STATUS_CODE result;
; 663  :     if ((result = CheckNumber((NUMBER_HEADER*)v)) != PMC_STATUS_OK)

	mov	rcx, rdx
	call	CheckNumber
	test	eax, eax
	jne	SHORT $LN6@PMC_Multip

; 664  :         return (result);
; 665  :     if ((result = PMC_Multiply_X_L_Imp((NUMBER_HEADER*)v, u, (NUMBER_HEADER**)w)) != PMC_STATUS_OK)

	mov	r8, rdi
	mov	rdx, rsi
	mov	rcx, rbx

; 666  :         return (result);
; 667  : #ifdef _DEBUG
; 668  :     if ((result = CheckNumber((NUMBER_HEADER*)*w)) != PMC_STATUS_OK)
; 669  :         return (result);
; 670  : #endif
; 671  :     return (PMC_STATUS_OK);
; 672  : }

	mov	rbx, QWORD PTR [rsp+48]
	mov	rsi, QWORD PTR [rsp+56]
	add	rsp, 32					; 00000020H
	pop	rdi

; 664  :         return (result);
; 665  :     if ((result = PMC_Multiply_X_L_Imp((NUMBER_HEADER*)v, u, (NUMBER_HEADER**)w)) != PMC_STATUS_OK)

	jmp	PMC_Multiply_X_L_Imp
$LN8@PMC_Multip:

; 661  :         return (PMC_STATUS_ARGUMENT_ERROR);

	mov	eax, -1
$LN6@PMC_Multip:

; 666  :         return (result);
; 667  : #ifdef _DEBUG
; 668  :     if ((result = CheckNumber((NUMBER_HEADER*)*w)) != PMC_STATUS_OK)
; 669  :         return (result);
; 670  : #endif
; 671  :     return (PMC_STATUS_OK);
; 672  : }

	mov	rbx, QWORD PTR [rsp+48]
	mov	rsi, QWORD PTR [rsp+56]
	add	rsp, 32					; 00000020H
	pop	rdi
	ret	0
PMC_Multiply_L_X ENDP
_TEXT	ENDS
; Function compile flags: /Ogtpy
; File z:\sources\lunor\repos\rougemeilland\palmtree.math.core.uint\palmtree.math.core.uint\pmc_multiply.c
;	COMDAT PMC_Multiply_I_X
_TEXT	SEGMENT
u$ = 48
v$ = 56
w$ = 64
PMC_Multiply_I_X PROC					; COMDAT

; 500  : {

$LN10:
	mov	QWORD PTR [rsp+8], rbx
	mov	QWORD PTR [rsp+16], rsi
	push	rdi
	sub	rsp, 32					; 00000020H
	mov	rdi, r8
	mov	rbx, rdx
	mov	esi, ecx

; 501  :     if (__UNIT_TYPE_BIT_COUNT < sizeof(u) * 8)
; 502  :     {
; 503  :         // _UINT32_T が 1 ワードで表現しきれない処理系には対応しない
; 504  :         return (PMC_STATUS_INTERNAL_ERROR);
; 505  :     }
; 506  :     if (v == NULL)

	test	rdx, rdx
	je	SHORT $LN8@PMC_Multip

; 507  :         return (PMC_STATUS_ARGUMENT_ERROR);
; 508  :     if (w == NULL)

	test	r8, r8
	je	SHORT $LN8@PMC_Multip

; 510  :     PMC_STATUS_CODE result;
; 511  :     if ((result = CheckNumber((NUMBER_HEADER*)v)) != PMC_STATUS_OK)

	mov	rcx, rdx
	call	CheckNumber
	test	eax, eax
	jne	SHORT $LN6@PMC_Multip

; 512  :         return (result);
; 513  :     if ((result = PMC_Multiply_X_I_Imp((NUMBER_HEADER*)v, u, (NUMBER_HEADER**)w)) != PMC_STATUS_OK)

	mov	r8, rdi
	mov	edx, esi
	mov	rcx, rbx

; 514  :         return (result);
; 515  : #ifdef _DEBUG
; 516  :     if ((result = CheckNumber((NUMBER_HEADER*)*w)) != PMC_STATUS_OK)
; 517  :         return (result);
; 518  : #endif
; 519  :     return (PMC_STATUS_OK);
; 520  : }

	mov	rbx, QWORD PTR [rsp+48]
	mov	rsi, QWORD PTR [rsp+56]
	add	rsp, 32					; 00000020H
	pop	rdi

; 512  :         return (result);
; 513  :     if ((result = PMC_Multiply_X_I_Imp((NUMBER_HEADER*)v, u, (NUMBER_HEADER**)w)) != PMC_STATUS_OK)

	jmp	PMC_Multiply_X_I_Imp
$LN8@PMC_Multip:

; 509  :         return (PMC_STATUS_ARGUMENT_ERROR);

	mov	eax, -1
$LN6@PMC_Multip:

; 514  :         return (result);
; 515  : #ifdef _DEBUG
; 516  :     if ((result = CheckNumber((NUMBER_HEADER*)*w)) != PMC_STATUS_OK)
; 517  :         return (result);
; 518  : #endif
; 519  :     return (PMC_STATUS_OK);
; 520  : }

	mov	rbx, QWORD PTR [rsp+48]
	mov	rsi, QWORD PTR [rsp+56]
	add	rsp, 32					; 00000020H
	pop	rdi
	ret	0
PMC_Multiply_I_X ENDP
_TEXT	ENDS
; Function compile flags: /Ogtpy
; File z:\sources\lunor\repos\rougemeilland\palmtree.math.core.uint\palmtree.math.core.uint\pmc_multiply.c
;	COMDAT Initialize_Multiply
_TEXT	SEGMENT
feature$ = 8
Initialize_Multiply PROC				; COMDAT

; 785  : {

	mov	edx, DWORD PTR [rcx]

; 786  :     if (feature->PROCESSOR_FEATURE_ADX && feature->PROCESSOR_FEATURE_BMI2)
; 787  :     {
; 788  :         fp_Multiply_X_1W = Multiply_X_1W_using_MULX_ADCX;
; 789  :         fp_Multiply_X_2W = Multiply_X_2W_using_MULX_ADCX;
; 790  :         fp_Multiply_X_X = Multiply_X_X_using_MULX_ADCX;
; 791  :     }
; 792  :     else
; 793  :     {
; 794  :         fp_Multiply_X_1W = Multiply_X_1W_using_MUL_ADC;
; 795  :         fp_Multiply_X_2W = Multiply_X_2W_using_MUL_ADC;
; 796  :         fp_Multiply_X_X = Multiply_X_X_using_MUL_ADC;
; 797  :     }
; 798  :     return (PMC_STATUS_OK);

	lea	rax, OFFSET FLAT:Multiply_X_1W_using_MULX_ADCX
	lea	rcx, OFFSET FLAT:Multiply_X_1W_using_MUL_ADC
	and	edx, 10
	cmp	edx, 10
	cmovne	rax, rcx
	lea	rcx, OFFSET FLAT:Multiply_X_2W_using_MUL_ADC
	mov	QWORD PTR fp_Multiply_X_1W, rax
	lea	rax, OFFSET FLAT:Multiply_X_2W_using_MULX_ADCX
	cmovne	rax, rcx
	lea	rcx, OFFSET FLAT:Multiply_X_X_using_MUL_ADC
	mov	QWORD PTR fp_Multiply_X_2W, rax
	lea	rax, OFFSET FLAT:Multiply_X_X_using_MULX_ADCX
	cmovne	rax, rcx
	mov	QWORD PTR fp_Multiply_X_X, rax
	xor	eax, eax

; 799  : }

	ret	0
Initialize_Multiply ENDP
_TEXT	ENDS
; Function compile flags: /Ogtpy
; File z:\sources\lunor\repos\rougemeilland\palmtree.math.core.uint\palmtree.math.core.uint\pmc_multiply.c
;	COMDAT Multiply_X_X_Imp
_TEXT	SEGMENT
u$ = 8
u_count$ = 16
v$ = 24
v_count$ = 32
w$ = 40
Multiply_X_X_Imp PROC					; COMDAT

; 37   :     (*fp_Multiply_X_X)(u, u_count,  v,  v_count,  w);

	rex_jmp	QWORD PTR fp_Multiply_X_X
Multiply_X_X_Imp ENDP
_TEXT	ENDS
END
