; Listing generated by Microsoft (R) Optimizing Compiler Version 19.16.27026.1 

include listing.inc

INCLUDELIB MSVCRT
INCLUDELIB OLDNAMES

PUBLIC	Initialize_Add
PUBLIC	PMC_Add_I_X
PUBLIC	PMC_Add_L_X
PUBLIC	PMC_Add_X_I
PUBLIC	PMC_Add_X_L
PUBLIC	PMC_Add_X_X
EXTRN	CheckBlockLight:PROC
EXTRN	AllocateNumber:PROC
EXTRN	DeallocateNumber:PROC
EXTRN	CommitNumber:PROC
EXTRN	CheckNumber:PROC
EXTRN	DuplicateNumber:PROC
EXTRN	From_I_Imp:PROC
EXTRN	From_L_Imp:PROC
EXTRN	number_zero:BYTE
_BSS	SEGMENT
fp_Add_Imp DQ	01H DUP (?)
_BSS	ENDS
;	COMDAT pdata
pdata	SEGMENT
$pdata$PMC_Add_I_X DD imagerel $LN10
	DD	imagerel $LN10+94
	DD	imagerel $unwind$PMC_Add_I_X
pdata	ENDS
;	COMDAT pdata
pdata	SEGMENT
$pdata$PMC_Add_L_X DD imagerel $LN10
	DD	imagerel $LN10+96
	DD	imagerel $unwind$PMC_Add_L_X
pdata	ENDS
;	COMDAT pdata
pdata	SEGMENT
$pdata$PMC_Add_X_I DD imagerel $LN10
	DD	imagerel $LN10+91
	DD	imagerel $unwind$PMC_Add_X_I
pdata	ENDS
;	COMDAT pdata
pdata	SEGMENT
$pdata$PMC_Add_X_L DD imagerel $LN10
	DD	imagerel $LN10+93
	DD	imagerel $unwind$PMC_Add_X_L
pdata	ENDS
;	COMDAT pdata
pdata	SEGMENT
$pdata$PMC_Add_X_X DD imagerel $LN24
	DD	imagerel $LN24+405
	DD	imagerel $unwind$PMC_Add_X_X
pdata	ENDS
;	COMDAT pdata
pdata	SEGMENT
$pdata$Add_Imp_using_ADC DD imagerel Add_Imp_using_ADC
	DD	imagerel Add_Imp_using_ADC+999
	DD	imagerel $unwind$Add_Imp_using_ADC
pdata	ENDS
;	COMDAT pdata
pdata	SEGMENT
$pdata$Add_Imp_using_ADCX DD imagerel Add_Imp_using_ADCX
	DD	imagerel Add_Imp_using_ADCX+469
	DD	imagerel $unwind$Add_Imp_using_ADCX
pdata	ENDS
;	COMDAT pdata
pdata	SEGMENT
$pdata$PMC_Add_X_I_Imp DD imagerel PMC_Add_X_I_Imp
	DD	imagerel PMC_Add_X_I_Imp+314
	DD	imagerel $unwind$PMC_Add_X_I_Imp
pdata	ENDS
;	COMDAT pdata
pdata	SEGMENT
$pdata$PMC_Add_X_L_Imp DD imagerel PMC_Add_X_L_Imp
	DD	imagerel PMC_Add_X_L_Imp+318
	DD	imagerel $unwind$PMC_Add_X_L_Imp
pdata	ENDS
;	COMDAT xdata
xdata	SEGMENT
$unwind$PMC_Add_X_L_Imp DD 060f01H
	DD	0a640fH
	DD	09340fH
	DD	0700b520fH
xdata	ENDS
;	COMDAT xdata
xdata	SEGMENT
$unwind$PMC_Add_X_I_Imp DD 060f01H
	DD	0a640fH
	DD	09340fH
	DD	0700b520fH
xdata	ENDS
;	COMDAT xdata
xdata	SEGMENT
$unwind$Add_Imp_using_ADCX DD 040a01H
	DD	08340aH
	DD	07006520aH
xdata	ENDS
;	COMDAT xdata
xdata	SEGMENT
$unwind$Add_Imp_using_ADC DD 040a01H
	DD	08340aH
	DD	07006520aH
xdata	ENDS
;	COMDAT xdata
xdata	SEGMENT
$unwind$PMC_Add_X_X DD 060f01H
	DD	0a640fH
	DD	09340fH
	DD	0700b520fH
xdata	ENDS
;	COMDAT xdata
xdata	SEGMENT
$unwind$PMC_Add_X_L DD 060f01H
	DD	07640fH
	DD	06340fH
	DD	0700b320fH
xdata	ENDS
;	COMDAT xdata
xdata	SEGMENT
$unwind$PMC_Add_X_I DD 060f01H
	DD	07640fH
	DD	06340fH
	DD	0700b320fH
xdata	ENDS
;	COMDAT xdata
xdata	SEGMENT
$unwind$PMC_Add_L_X DD 060f01H
	DD	07640fH
	DD	06340fH
	DD	0700b320fH
xdata	ENDS
;	COMDAT xdata
xdata	SEGMENT
$unwind$PMC_Add_I_X DD 060f01H
	DD	07640fH
	DD	06340fH
	DD	0700b320fH
xdata	ENDS
; Function compile flags: /Ogtpy
; File z:\sources\lunor\repos\rougemeilland\palmtree.math.core.uint\palmtree.math.core.uint\pmc_add.c
; File z:\sources\lunor\repos\rougemeilland\palmtree.math.core.uint\palmtree.math.core.uint\pmc_inline_func.h
; File z:\sources\lunor\repos\rougemeilland\palmtree.math.core.uint\palmtree.math.core.uint\pmc_add.c
; File z:\sources\lunor\repos\rougemeilland\palmtree.math.core.uint\palmtree.math.core.uint\pmc_inline_func.h
; File z:\sources\lunor\repos\rougemeilland\palmtree.math.core.uint\palmtree.math.core.uint\pmc_add.c
; File z:\sources\lunor\repos\rougemeilland\palmtree.math.core.uint\palmtree.math.core.uint\pmc_inline_func.h
; File z:\sources\lunor\repos\rougemeilland\palmtree.math.core.uint\palmtree.math.core.uint\pmc_add.c
; File z:\sources\lunor\repos\rougemeilland\palmtree.math.core.uint\palmtree.math.core.uint\pmc_inline_func.h
; File z:\sources\lunor\repos\rougemeilland\palmtree.math.core.uint\palmtree.math.core.uint\pmc_add.c
;	COMDAT PMC_Add_X_L_Imp
_TEXT	SEGMENT
w_light_check_code$1 = 64
u$ = 64
v$ = 72
w$ = 80
PMC_Add_X_L_Imp PROC					; COMDAT

; 399  : {

	mov	QWORD PTR [rsp+16], rbx
	mov	QWORD PTR [rsp+24], rsi
	push	rdi
	sub	rsp, 48					; 00000030H

; 400  :     PMC_STATUS_CODE result;
; 401  :     if (u->IS_ZERO)

	test	BYTE PTR [rcx+40], 2
	mov	rbx, r8
	mov	rdi, rdx
	mov	rsi, rcx
	je	SHORT $LN2@PMC_Add_X_

; 402  :     {
; 403  :         // u が 0 である場合
; 404  : 
; 405  :         if (v == 0)

	test	rdx, rdx
	jne	SHORT $LN4@PMC_Add_X_

; 406  :         {
; 407  :             // v が 0 である場合
; 408  : 
; 409  :             // u と v がともに 0 であるので、加算結果の 0 を呼び出し元に返す。
; 410  :             *w = &number_zero;

	lea	rax, OFFSET FLAT:number_zero
	mov	QWORD PTR [r8], rax

; 497  :             }
; 498  : 
; 499  :         }
; 500  :     }
; 501  :     return (PMC_STATUS_OK);

	xor	eax, eax

; 502  : }

	mov	rbx, QWORD PTR [rsp+72]
	mov	rsi, QWORD PTR [rsp+80]
	add	rsp, 48					; 00000030H
	pop	rdi
	ret	0
$LN4@PMC_Add_X_:

; 411  :         }
; 412  :         else
; 413  :         {
; 414  :             // v が 0 ではない場合
; 415  : 
; 416  :             // 加算結果となる v の値を持つ NUMBER_HEADER 構造体を獲得し、呼び出し元へ返す。
; 417  :             if ((result = From_L_Imp(v, w)) != PMC_STATUS_OK)

	mov	rdx, rbx
	mov	rcx, rdi
	call	From_L_Imp
	test	eax, eax
	je	$LN11@PMC_Add_X_

; 502  : }

	mov	rbx, QWORD PTR [rsp+72]
	mov	rsi, QWORD PTR [rsp+80]
	add	rsp, 48					; 00000030H
	pop	rdi
	ret	0
$LN2@PMC_Add_X_:

; 418  :                 return (result);
; 419  :         }
; 420  :     }
; 421  :     else
; 422  :     {
; 423  :         // u が 0 ではない場合
; 424  : 
; 425  :         if (v == 0)

	test	rdi, rdi
	jne	SHORT $LN7@PMC_Add_X_

; 426  :         {
; 427  :             // v が 0 である場合
; 428  : 
; 429  :             // 加算結果となる u の値を持つ NUMBER_HEADER 構造体を獲得し、呼び出し元へ返す。
; 430  :             if ((result = DuplicateNumber(u, w)) != PMC_STATUS_OK)

	mov	rdx, rbx
	call	DuplicateNumber
	test	eax, eax
	je	$LN11@PMC_Add_X_

; 502  : }

	mov	rbx, QWORD PTR [rsp+72]
	mov	rsi, QWORD PTR [rsp+80]
	add	rsp, 48					; 00000030H
	pop	rdi
	ret	0
$LN7@PMC_Add_X_:
; File z:\sources\lunor\repos\rougemeilland\palmtree.math.core.uint\palmtree.math.core.uint\pmc_inline_func.h

; 637  :         _BitScanReverse64(&pos, x);

	bsr	rax, rdi

; 647  :         return (sizeof(x) * 8 - 1 - pos);

	mov	ecx, 63					; 0000003fH
; File z:\sources\lunor\repos\rougemeilland\palmtree.math.core.uint\palmtree.math.core.uint\pmc_add.c

; 487  :                 if ((result = AllocateNumber(w, w_bit_count, &w_light_check_code)) != PMC_STATUS_OK)

	lea	r8, QWORD PTR w_light_check_code$1[rsp]
; File z:\sources\lunor\repos\rougemeilland\palmtree.math.core.uint\palmtree.math.core.uint\pmc_inline_func.h

; 647  :         return (sizeof(x) * 8 - 1 - pos);

	sub	ecx, eax
; File z:\sources\lunor\repos\rougemeilland\palmtree.math.core.uint\palmtree.math.core.uint\pmc_add.c

; 484  :                 __UNIT_TYPE v_bit_count = sizeof(v) * 8 - _LZCNT_ALT_UNIT((__UNIT_TYPE)v);

	mov	edx, 64					; 00000040H
	movsxd	rax, ecx

; 487  :                 if ((result = AllocateNumber(w, w_bit_count, &w_light_check_code)) != PMC_STATUS_OK)

	mov	rcx, rbx
	sub	rdx, rax
; File z:\sources\lunor\repos\rougemeilland\palmtree.math.core.uint\palmtree.math.core.uint\pmc_inline_func.h

; 197  :         return (x >= y ? x : y);

	cmp	QWORD PTR [rsi+16], rdx
	cmovae	rdx, QWORD PTR [rsi+16]
; File z:\sources\lunor\repos\rougemeilland\palmtree.math.core.uint\palmtree.math.core.uint\pmc_add.c

; 485  :                 __UNIT_TYPE w_bit_count = _MAXIMUM_UNIT(u_bit_count, v_bit_count) + 1;

	inc	rdx

; 487  :                 if ((result = AllocateNumber(w, w_bit_count, &w_light_check_code)) != PMC_STATUS_OK)

	call	AllocateNumber
	test	eax, eax
	jne	SHORT $LN1@PMC_Add_X_

; 488  :                     return (result);
; 489  :                 if ((result = Add_X_1W(u->BLOCK, u->UNIT_WORD_COUNT, (__UNIT_TYPE)v, (*w)->BLOCK, (*w)->BLOCK_COUNT)) != PMC_STATUS_OK)

	mov	rax, QWORD PTR [rbx]
	mov	r10, QWORD PTR [rsi+56]
	mov	r8, QWORD PTR [rsi+8]
	mov	rdx, QWORD PTR [rax+48]
	mov	r9, QWORD PTR [rax+56]

; 90   :     c = _ADD_UNIT(0, *u_ptr++, v, w_ptr++);

	mov	rax, QWORD PTR [r10]
; File z:\sources\lunor\repos\rougemeilland\palmtree.math.core.uint\palmtree.math.core.uint\pmc_inline_func.h

; 210  :         return (_addcarry_u64(carry, u, v, w));

	add	rax, rdi
	mov	QWORD PTR [r9], rax
	setb	cl
; File z:\sources\lunor\repos\rougemeilland\palmtree.math.core.uint\palmtree.math.core.uint\pmc_add.c

; 92   :     --w_count;

	lea	rax, QWORD PTR [rdx-1]
	add	r9, 8
	dec	r8

; 93   : 
; 94   :     // 残りの桁の繰上りを行い復帰する。
; 95   :     return (DoCarry(c, u_ptr, u_count, w_ptr, w_count));

	mov	QWORD PTR [rsp+32], rax
	lea	rdx, QWORD PTR [r10+8]
	call	DoCarry

; 488  :                     return (result);
; 489  :                 if ((result = Add_X_1W(u->BLOCK, u->UNIT_WORD_COUNT, (__UNIT_TYPE)v, (*w)->BLOCK, (*w)->BLOCK_COUNT)) != PMC_STATUS_OK)

	mov	rcx, QWORD PTR [rbx]

; 95   :     return (DoCarry(c, u_ptr, u_count, w_ptr, w_count));

	mov	edi, eax

; 488  :                     return (result);
; 489  :                 if ((result = Add_X_1W(u->BLOCK, u->UNIT_WORD_COUNT, (__UNIT_TYPE)v, (*w)->BLOCK, (*w)->BLOCK_COUNT)) != PMC_STATUS_OK)

	test	eax, eax
	je	SHORT $LN21@PMC_Add_X_

; 490  :                 {
; 491  :                     DeallocateNumber(*w);

	call	DeallocateNumber

; 492  :                     return (result);

	mov	eax, edi

; 502  : }

	mov	rbx, QWORD PTR [rsp+72]
	mov	rsi, QWORD PTR [rsp+80]
	add	rsp, 48					; 00000030H
	pop	rdi
	ret	0
$LN21@PMC_Add_X_:

; 493  :                 }
; 494  :                 if ((result = CheckBlockLight((*w)->BLOCK, w_light_check_code)) != PMC_STATUS_OK)

	mov	rdx, QWORD PTR w_light_check_code$1[rsp]
	mov	rcx, QWORD PTR [rcx+56]
	call	CheckBlockLight
	test	eax, eax
	jne	SHORT $LN1@PMC_Add_X_

; 495  :                     return (result);
; 496  :                 CommitNumber(*w);

	mov	rcx, QWORD PTR [rbx]
	call	CommitNumber
$LN11@PMC_Add_X_:

; 497  :             }
; 498  : 
; 499  :         }
; 500  :     }
; 501  :     return (PMC_STATUS_OK);

	xor	eax, eax
$LN1@PMC_Add_X_:

; 502  : }

	mov	rbx, QWORD PTR [rsp+72]
	mov	rsi, QWORD PTR [rsp+80]
	add	rsp, 48					; 00000030H
	pop	rdi
	ret	0
PMC_Add_X_L_Imp ENDP
_TEXT	ENDS
; Function compile flags: /Ogtpy
; File z:\sources\lunor\repos\rougemeilland\palmtree.math.core.uint\palmtree.math.core.uint\pmc_add.c
; File z:\sources\lunor\repos\rougemeilland\palmtree.math.core.uint\palmtree.math.core.uint\pmc_inline_func.h
; File z:\sources\lunor\repos\rougemeilland\palmtree.math.core.uint\palmtree.math.core.uint\pmc_add.c
; File z:\sources\lunor\repos\rougemeilland\palmtree.math.core.uint\palmtree.math.core.uint\pmc_inline_func.h
; File z:\sources\lunor\repos\rougemeilland\palmtree.math.core.uint\palmtree.math.core.uint\pmc_add.c
; File z:\sources\lunor\repos\rougemeilland\palmtree.math.core.uint\palmtree.math.core.uint\pmc_inline_func.h
; File z:\sources\lunor\repos\rougemeilland\palmtree.math.core.uint\palmtree.math.core.uint\pmc_add.c
; File z:\sources\lunor\repos\rougemeilland\palmtree.math.core.uint\palmtree.math.core.uint\pmc_inline_func.h
; File z:\sources\lunor\repos\rougemeilland\palmtree.math.core.uint\palmtree.math.core.uint\pmc_add.c
; File z:\sources\lunor\repos\rougemeilland\palmtree.math.core.uint\palmtree.math.core.uint\pmc_inline_func.h
; File z:\sources\lunor\repos\rougemeilland\palmtree.math.core.uint\palmtree.math.core.uint\pmc_add.c
; File z:\sources\lunor\repos\rougemeilland\palmtree.math.core.uint\palmtree.math.core.uint\pmc_inline_func.h
; File z:\sources\lunor\repos\rougemeilland\palmtree.math.core.uint\palmtree.math.core.uint\pmc_add.c
;	COMDAT PMC_Add_X_I_Imp
_TEXT	SEGMENT
nz_check_code$1 = 64
nu$ = 64
v$ = 72
nw$ = 80
PMC_Add_X_I_Imp PROC					; COMDAT

; 294  : {

	mov	QWORD PTR [rsp+16], rbx
	mov	QWORD PTR [rsp+24], rsi
	push	rdi
	sub	rsp, 48					; 00000030H

; 295  :     PMC_STATUS_CODE result;
; 296  :     if (nu->IS_ZERO)

	test	BYTE PTR [rcx+40], 2
	mov	rbx, r8
	mov	edi, edx
	mov	rsi, rcx
	je	SHORT $LN2@PMC_Add_X_

; 297  :     {
; 298  :         // x が 0 である場合
; 299  : 
; 300  :         if (v == 0)

	test	edx, edx
	jne	SHORT $LN4@PMC_Add_X_

; 301  :         {
; 302  :             // y が 0 である場合
; 303  : 
; 304  :             // x と y がともに 0 であるので、加算結果の 0 を呼び出し元に返す。
; 305  :             *nw = &number_zero;

	lea	rax, OFFSET FLAT:number_zero
	mov	QWORD PTR [r8], rax

; 347  :         }
; 348  :     }
; 349  :     return (PMC_STATUS_OK);

	xor	eax, eax

; 350  : }

	mov	rbx, QWORD PTR [rsp+72]
	mov	rsi, QWORD PTR [rsp+80]
	add	rsp, 48					; 00000030H
	pop	rdi
	ret	0
$LN4@PMC_Add_X_:

; 306  :         }
; 307  :         else
; 308  :         {
; 309  :             // y が 0 ではない場合
; 310  : 
; 311  :             // 加算結果となる y の値を持つ NUMBER_HEADER 構造体を獲得し、呼び出し元へ返す。
; 312  :             if ((result = From_I_Imp(v, nw)) != PMC_STATUS_OK)

	mov	rdx, rbx
	mov	ecx, edi
	call	From_I_Imp
	test	eax, eax
	je	$LN8@PMC_Add_X_

; 350  : }

	mov	rbx, QWORD PTR [rsp+72]
	mov	rsi, QWORD PTR [rsp+80]
	add	rsp, 48					; 00000030H
	pop	rdi
	ret	0
$LN2@PMC_Add_X_:

; 313  :                 return (result);
; 314  :         }
; 315  :     }
; 316  :     else
; 317  :     {
; 318  :         // x が 0 ではない場合
; 319  : 
; 320  :         if (v == 0)

	test	edx, edx
	jne	SHORT $LN7@PMC_Add_X_

; 321  :         {
; 322  :             // y が 0 である場合
; 323  : 
; 324  :             // 加算結果となる x の値を持つ NUMBER_HEADER 構造体を獲得し、呼び出し元へ返す。
; 325  :             if ((result = DuplicateNumber(nu, nw)) != PMC_STATUS_OK)

	mov	rdx, rbx
	call	DuplicateNumber
	test	eax, eax
	je	$LN8@PMC_Add_X_

; 350  : }

	mov	rbx, QWORD PTR [rsp+72]
	mov	rsi, QWORD PTR [rsp+80]
	add	rsp, 48					; 00000030H
	pop	rdi
	ret	0
$LN7@PMC_Add_X_:
; File z:\sources\lunor\repos\rougemeilland\palmtree.math.core.uint\palmtree.math.core.uint\pmc_inline_func.h

; 594  :         _BitScanReverse(&pos, x);

	bsr	eax, edi

; 600  :         return (sizeof(x) * 8 - 1 - pos);

	mov	ecx, 31
; File z:\sources\lunor\repos\rougemeilland\palmtree.math.core.uint\palmtree.math.core.uint\pmc_add.c

; 337  :             if ((result = AllocateNumber(nw, z_bit_count, &nz_check_code)) != PMC_STATUS_OK)

	lea	r8, QWORD PTR nz_check_code$1[rsp]
; File z:\sources\lunor\repos\rougemeilland\palmtree.math.core.uint\palmtree.math.core.uint\pmc_inline_func.h

; 600  :         return (sizeof(x) * 8 - 1 - pos);

	sub	ecx, eax
; File z:\sources\lunor\repos\rougemeilland\palmtree.math.core.uint\palmtree.math.core.uint\pmc_add.c

; 334  :             __UNIT_TYPE y_bit_count = sizeof(v) * 8 - _LZCNT_ALT_32(v);

	mov	edx, 32					; 00000020H
	movsxd	rax, ecx

; 337  :             if ((result = AllocateNumber(nw, z_bit_count, &nz_check_code)) != PMC_STATUS_OK)

	mov	rcx, rbx
	sub	rdx, rax
; File z:\sources\lunor\repos\rougemeilland\palmtree.math.core.uint\palmtree.math.core.uint\pmc_inline_func.h

; 197  :         return (x >= y ? x : y);

	cmp	QWORD PTR [rsi+16], rdx
	cmovae	rdx, QWORD PTR [rsi+16]
; File z:\sources\lunor\repos\rougemeilland\palmtree.math.core.uint\palmtree.math.core.uint\pmc_add.c

; 335  :             __UNIT_TYPE z_bit_count = _MAXIMUM_UNIT(x_bit_count, y_bit_count) + 1;

	inc	rdx

; 337  :             if ((result = AllocateNumber(nw, z_bit_count, &nz_check_code)) != PMC_STATUS_OK)

	call	AllocateNumber
	test	eax, eax
	jne	SHORT $LN1@PMC_Add_X_

; 338  :                 return (result);
; 339  :             if ((result = Add_X_1W(nu->BLOCK, nu->UNIT_WORD_COUNT, v, (*nw)->BLOCK, (*nw)->BLOCK_COUNT)) != PMC_STATUS_OK)

	mov	rax, QWORD PTR [rbx]
	mov	r11, QWORD PTR [rsi+56]
	mov	r10, QWORD PTR [rsi+8]
	mov	r8, QWORD PTR [rax+48]
	mov	r9, QWORD PTR [rax+56]

; 90   :     c = _ADD_UNIT(0, *u_ptr++, v, w_ptr++);

	mov	rdx, QWORD PTR [r11]
; File z:\sources\lunor\repos\rougemeilland\palmtree.math.core.uint\palmtree.math.core.uint\pmc_inline_func.h

; 210  :         return (_addcarry_u64(carry, u, v, w));

	add	rdx, rdi
; File z:\sources\lunor\repos\rougemeilland\palmtree.math.core.uint\palmtree.math.core.uint\pmc_add.c

; 92   :     --w_count;

	lea	rax, QWORD PTR [r8-1]
; File z:\sources\lunor\repos\rougemeilland\palmtree.math.core.uint\palmtree.math.core.uint\pmc_inline_func.h

; 210  :         return (_addcarry_u64(carry, u, v, w));

	mov	QWORD PTR [r9], rdx
; File z:\sources\lunor\repos\rougemeilland\palmtree.math.core.uint\palmtree.math.core.uint\pmc_add.c

; 91   :     --u_count;

	lea	r8, QWORD PTR [r10-1]
; File z:\sources\lunor\repos\rougemeilland\palmtree.math.core.uint\palmtree.math.core.uint\pmc_inline_func.h

; 210  :         return (_addcarry_u64(carry, u, v, w));

	setb	cl
; File z:\sources\lunor\repos\rougemeilland\palmtree.math.core.uint\palmtree.math.core.uint\pmc_add.c

; 95   :     return (DoCarry(c, u_ptr, u_count, w_ptr, w_count));

	mov	QWORD PTR [rsp+32], rax
	add	r9, 8
	lea	rdx, QWORD PTR [r11+8]
	call	DoCarry

; 338  :                 return (result);
; 339  :             if ((result = Add_X_1W(nu->BLOCK, nu->UNIT_WORD_COUNT, v, (*nw)->BLOCK, (*nw)->BLOCK_COUNT)) != PMC_STATUS_OK)

	mov	rcx, QWORD PTR [rbx]

; 95   :     return (DoCarry(c, u_ptr, u_count, w_ptr, w_count));

	mov	edi, eax

; 338  :                 return (result);
; 339  :             if ((result = Add_X_1W(nu->BLOCK, nu->UNIT_WORD_COUNT, v, (*nw)->BLOCK, (*nw)->BLOCK_COUNT)) != PMC_STATUS_OK)

	test	eax, eax
	je	SHORT $LN11@PMC_Add_X_

; 340  :             {
; 341  :                 DeallocateNumber(*nw);

	call	DeallocateNumber

; 342  :                 return (result);

	mov	eax, edi

; 350  : }

	mov	rbx, QWORD PTR [rsp+72]
	mov	rsi, QWORD PTR [rsp+80]
	add	rsp, 48					; 00000030H
	pop	rdi
	ret	0
$LN11@PMC_Add_X_:

; 343  :             }
; 344  :             if ((result = CheckBlockLight((*nw)->BLOCK, nz_check_code)) != PMC_STATUS_OK)

	mov	rdx, QWORD PTR nz_check_code$1[rsp]
	mov	rcx, QWORD PTR [rcx+56]
	call	CheckBlockLight
	test	eax, eax
	jne	SHORT $LN1@PMC_Add_X_

; 345  :                 return (result);
; 346  :             CommitNumber(*nw);

	mov	rcx, QWORD PTR [rbx]
	call	CommitNumber
$LN8@PMC_Add_X_:

; 347  :         }
; 348  :     }
; 349  :     return (PMC_STATUS_OK);

	xor	eax, eax
$LN1@PMC_Add_X_:

; 350  : }

	mov	rbx, QWORD PTR [rsp+72]
	mov	rsi, QWORD PTR [rsp+80]
	add	rsp, 48					; 00000030H
	pop	rdi
	ret	0
PMC_Add_X_I_Imp ENDP
_TEXT	ENDS
; Function compile flags: /Ogtpy
; File z:\sources\lunor\repos\rougemeilland\palmtree.math.core.uint\palmtree.math.core.uint\pmc_add.c
; File z:\sources\lunor\repos\rougemeilland\palmtree.math.core.uint\palmtree.math.core.uint\autogenerated_inline_func.h
; File z:\sources\lunor\repos\rougemeilland\palmtree.math.core.uint\palmtree.math.core.uint\pmc_inline_func.h
; File z:\sources\lunor\repos\rougemeilland\palmtree.math.core.uint\palmtree.math.core.uint\autogenerated_inline_func.h
; File z:\sources\lunor\repos\rougemeilland\palmtree.math.core.uint\palmtree.math.core.uint\pmc_inline_func.h
; File z:\sources\lunor\repos\rougemeilland\palmtree.math.core.uint\palmtree.math.core.uint\autogenerated_inline_func.h
; File z:\sources\lunor\repos\rougemeilland\palmtree.math.core.uint\palmtree.math.core.uint\pmc_inline_func.h
; File z:\sources\lunor\repos\rougemeilland\palmtree.math.core.uint\palmtree.math.core.uint\autogenerated_inline_func.h
; File z:\sources\lunor\repos\rougemeilland\palmtree.math.core.uint\palmtree.math.core.uint\pmc_inline_func.h
; File z:\sources\lunor\repos\rougemeilland\palmtree.math.core.uint\palmtree.math.core.uint\autogenerated_inline_func.h
; File z:\sources\lunor\repos\rougemeilland\palmtree.math.core.uint\palmtree.math.core.uint\pmc_inline_func.h
; File z:\sources\lunor\repos\rougemeilland\palmtree.math.core.uint\palmtree.math.core.uint\autogenerated_inline_func.h
; File z:\sources\lunor\repos\rougemeilland\palmtree.math.core.uint\palmtree.math.core.uint\pmc_inline_func.h
; File z:\sources\lunor\repos\rougemeilland\palmtree.math.core.uint\palmtree.math.core.uint\autogenerated_inline_func.h
; File z:\sources\lunor\repos\rougemeilland\palmtree.math.core.uint\palmtree.math.core.uint\pmc_inline_func.h
; File z:\sources\lunor\repos\rougemeilland\palmtree.math.core.uint\palmtree.math.core.uint\autogenerated_inline_func.h
; File z:\sources\lunor\repos\rougemeilland\palmtree.math.core.uint\palmtree.math.core.uint\pmc_inline_func.h
; File z:\sources\lunor\repos\rougemeilland\palmtree.math.core.uint\palmtree.math.core.uint\pmc_add.c
; File z:\sources\lunor\repos\rougemeilland\palmtree.math.core.uint\palmtree.math.core.uint\autogenerated_inline_func.h
; File z:\sources\lunor\repos\rougemeilland\palmtree.math.core.uint\palmtree.math.core.uint\pmc_inline_func.h
; File z:\sources\lunor\repos\rougemeilland\palmtree.math.core.uint\palmtree.math.core.uint\autogenerated_inline_func.h
; File z:\sources\lunor\repos\rougemeilland\palmtree.math.core.uint\palmtree.math.core.uint\pmc_inline_func.h
; File z:\sources\lunor\repos\rougemeilland\palmtree.math.core.uint\palmtree.math.core.uint\autogenerated_inline_func.h
; File z:\sources\lunor\repos\rougemeilland\palmtree.math.core.uint\palmtree.math.core.uint\pmc_inline_func.h
; File z:\sources\lunor\repos\rougemeilland\palmtree.math.core.uint\palmtree.math.core.uint\autogenerated_inline_func.h
; File z:\sources\lunor\repos\rougemeilland\palmtree.math.core.uint\palmtree.math.core.uint\pmc_inline_func.h
; File z:\sources\lunor\repos\rougemeilland\palmtree.math.core.uint\palmtree.math.core.uint\pmc_add.c
; File z:\sources\lunor\repos\rougemeilland\palmtree.math.core.uint\palmtree.math.core.uint\autogenerated_inline_func.h
; File z:\sources\lunor\repos\rougemeilland\palmtree.math.core.uint\palmtree.math.core.uint\pmc_inline_func.h
; File z:\sources\lunor\repos\rougemeilland\palmtree.math.core.uint\palmtree.math.core.uint\autogenerated_inline_func.h
; File z:\sources\lunor\repos\rougemeilland\palmtree.math.core.uint\palmtree.math.core.uint\pmc_inline_func.h
; File z:\sources\lunor\repos\rougemeilland\palmtree.math.core.uint\palmtree.math.core.uint\pmc_add.c
; File z:\sources\lunor\repos\rougemeilland\palmtree.math.core.uint\palmtree.math.core.uint\pmc_inline_func.h
; File z:\sources\lunor\repos\rougemeilland\palmtree.math.core.uint\palmtree.math.core.uint\pmc_add.c
;	COMDAT Add_Imp_using_ADCX
_TEXT	SEGMENT
u_buf$ = 64
u_count$ = 72
v_buf$ = 80
v_count$ = 88
w_buf$ = 96
w_count$ = 104
Add_Imp_using_ADCX PROC					; COMDAT

; 217  : {

	mov	QWORD PTR [rsp+8], rbx
	push	rdi
	sub	rsp, 48					; 00000030H

; 218  :     // x のワード長が y のワード長以上であるようにする
; 219  :     if (u_count < v_count)
; 220  :     {
; 221  :         __UNIT_TYPE* t_buf = u_buf;
; 222  :         u_buf = v_buf;
; 223  :         v_buf = t_buf;
; 224  :         __UNIT_TYPE t_count = u_count;
; 225  :         u_count = v_count;
; 226  :         v_count = t_count;
; 227  :     }
; 228  :     __UNIT_TYPE* up = u_buf;

	cmp	rdx, r9
	mov	rbx, rdx
	mov	rdi, r9
	mov	r10, rcx
	cmovae	rbx, r9
	cmovae	rdi, rdx

; 229  :     __UNIT_TYPE* vp = v_buf;
; 230  :     __UNIT_TYPE* wp = w_buf;

	mov	r9, QWORD PTR w_buf$[rsp]
	cmovae	r10, r8
	mov	rdx, r8

; 231  :     char c = 0;
; 232  : 
; 233  :     // まず 32 ワードずつ加算をする。
; 234  :     __UNIT_TYPE count = v_count >> 5;

	mov	r11, rbx
	cmovae	rdx, rcx
	xor	cl, cl
	shr	r11, 5

; 235  :     while (count != 0)

	test	r11, r11
	je	SHORT $LN3@Add_Imp_us
	npad	4
$LL2@Add_Imp_us:

; 236  :     {
; 237  :         c = _ADD_32WORDS_ADCX(c, up, vp, wp);

	mov	r8, r10
	call	_ADD_32WORDS_ADCX

; 238  :         up += 32;

	add	rdx, 256				; 00000100H

; 239  :         vp += 32;

	add	r10, 256				; 00000100H

; 240  :         wp += 32;

	add	r9, 256					; 00000100H
	movzx	ecx, al

; 241  :         --count;

	sub	r11, 1
	jne	SHORT $LL2@Add_Imp_us
$LN3@Add_Imp_us:

; 242  :     }
; 243  :     // この時点で未処理の桁は 32 ワード未満のはず
; 244  : 
; 245  :     // 未処理の桁が 16 ワード以上あるなら 16 ワード加算を行う。
; 246  :     if (v_count & 0x10)

	test	bl, 16
	je	SHORT $LN5@Add_Imp_us

; 247  :     {
; 248  :         c = _ADD_16WORDS_ADCX(c, up, vp, wp);

	mov	r8, r10
	call	_ADD_16WORDS_ADCX

; 249  :         up += 16;

	sub	rdx, -128				; ffffffffffffff80H

; 250  :         vp += 16;

	sub	r10, -128				; ffffffffffffff80H

; 251  :         wp += 16;

	sub	r9, -128				; ffffffffffffff80H
	movzx	ecx, al
$LN5@Add_Imp_us:

; 252  :     }
; 253  :     // この時点で未処理の桁は 16 ワード未満のはず
; 254  : 
; 255  :     // 未処理の桁が 8 ワード以上あるなら 8 ワード加算を行う。
; 256  :     if (v_count & 0x8)

	test	bl, 8
	je	$LN6@Add_Imp_us
; File z:\sources\lunor\repos\rougemeilland\palmtree.math.core.uint\palmtree.math.core.uint\autogenerated_inline_func.h

; 3279 :     c = _ADDX_UNIT(c, xp[0], yp[0], &zp[0]);

	mov	rax, QWORD PTR [rdx]
; File z:\sources\lunor\repos\rougemeilland\palmtree.math.core.uint\palmtree.math.core.uint\pmc_inline_func.h

; 238  :         return (_addcarryx_u64(carry, u, v, w));

	add	cl, -1
	adcx	rax, QWORD PTR [r10]
	mov	QWORD PTR [r9], rax
; File z:\sources\lunor\repos\rougemeilland\palmtree.math.core.uint\palmtree.math.core.uint\autogenerated_inline_func.h

; 3280 :     c = _ADDX_UNIT(c, xp[1], yp[1], &zp[1]);

	mov	rax, QWORD PTR [rdx+8]
; File z:\sources\lunor\repos\rougemeilland\palmtree.math.core.uint\palmtree.math.core.uint\pmc_inline_func.h

; 238  :         return (_addcarryx_u64(carry, u, v, w));

	adcx	rax, QWORD PTR [r10+8]
	mov	QWORD PTR [r9+8], rax
; File z:\sources\lunor\repos\rougemeilland\palmtree.math.core.uint\palmtree.math.core.uint\autogenerated_inline_func.h

; 3281 :     c = _ADDX_UNIT(c, xp[2], yp[2], &zp[2]);

	mov	rax, QWORD PTR [rdx+16]
; File z:\sources\lunor\repos\rougemeilland\palmtree.math.core.uint\palmtree.math.core.uint\pmc_inline_func.h

; 238  :         return (_addcarryx_u64(carry, u, v, w));

	adcx	rax, QWORD PTR [r10+16]
	mov	QWORD PTR [r9+16], rax
; File z:\sources\lunor\repos\rougemeilland\palmtree.math.core.uint\palmtree.math.core.uint\autogenerated_inline_func.h

; 3282 :     c = _ADDX_UNIT(c, xp[3], yp[3], &zp[3]);

	mov	rax, QWORD PTR [rdx+24]
; File z:\sources\lunor\repos\rougemeilland\palmtree.math.core.uint\palmtree.math.core.uint\pmc_inline_func.h

; 238  :         return (_addcarryx_u64(carry, u, v, w));

	adcx	rax, QWORD PTR [r10+24]
	mov	QWORD PTR [r9+24], rax
; File z:\sources\lunor\repos\rougemeilland\palmtree.math.core.uint\palmtree.math.core.uint\autogenerated_inline_func.h

; 3283 :     c = _ADDX_UNIT(c, xp[4], yp[4], &zp[4]);

	mov	rax, QWORD PTR [rdx+32]
; File z:\sources\lunor\repos\rougemeilland\palmtree.math.core.uint\palmtree.math.core.uint\pmc_inline_func.h

; 238  :         return (_addcarryx_u64(carry, u, v, w));

	adcx	rax, QWORD PTR [r10+32]
	mov	QWORD PTR [r9+32], rax
; File z:\sources\lunor\repos\rougemeilland\palmtree.math.core.uint\palmtree.math.core.uint\autogenerated_inline_func.h

; 3284 :     c = _ADDX_UNIT(c, xp[5], yp[5], &zp[5]);

	mov	rax, QWORD PTR [rdx+40]
; File z:\sources\lunor\repos\rougemeilland\palmtree.math.core.uint\palmtree.math.core.uint\pmc_inline_func.h

; 238  :         return (_addcarryx_u64(carry, u, v, w));

	adcx	rax, QWORD PTR [r10+40]
	mov	QWORD PTR [r9+40], rax
; File z:\sources\lunor\repos\rougemeilland\palmtree.math.core.uint\palmtree.math.core.uint\autogenerated_inline_func.h

; 3285 :     c = _ADDX_UNIT(c, xp[6], yp[6], &zp[6]);

	mov	rax, QWORD PTR [rdx+48]
; File z:\sources\lunor\repos\rougemeilland\palmtree.math.core.uint\palmtree.math.core.uint\pmc_inline_func.h

; 238  :         return (_addcarryx_u64(carry, u, v, w));

	adcx	rax, QWORD PTR [r10+48]
	mov	QWORD PTR [r9+48], rax
; File z:\sources\lunor\repos\rougemeilland\palmtree.math.core.uint\palmtree.math.core.uint\autogenerated_inline_func.h

; 3286 :     c = _ADDX_UNIT(c, xp[7], yp[7], &zp[7]);

	mov	rax, QWORD PTR [rdx+56]
; File z:\sources\lunor\repos\rougemeilland\palmtree.math.core.uint\palmtree.math.core.uint\pmc_inline_func.h

; 238  :         return (_addcarryx_u64(carry, u, v, w));

	adcx	rax, QWORD PTR [r10+56]
	mov	QWORD PTR [r9+56], rax
	setb	cl
; File z:\sources\lunor\repos\rougemeilland\palmtree.math.core.uint\palmtree.math.core.uint\pmc_add.c

; 259  :         up += 8;

	add	rdx, 64					; 00000040H

; 260  :         vp += 8;

	add	r10, 64					; 00000040H

; 261  :         wp += 8;

	add	r9, 64					; 00000040H
$LN6@Add_Imp_us:

; 262  :     }
; 263  :     // この時点で未処理の桁は 8 ワード未満のはず
; 264  : 
; 265  :     // 未処理の桁が 4 ワード以上あるなら 4 ワード加算を行う。
; 266  :     if (v_count & 0x4)

	test	bl, 4
	je	SHORT $LN7@Add_Imp_us
; File z:\sources\lunor\repos\rougemeilland\palmtree.math.core.uint\palmtree.math.core.uint\autogenerated_inline_func.h

; 3931 :     c = _ADDX_UNIT(c, xp[0], yp[0], &zp[0]);

	mov	rax, QWORD PTR [rdx]
; File z:\sources\lunor\repos\rougemeilland\palmtree.math.core.uint\palmtree.math.core.uint\pmc_inline_func.h

; 238  :         return (_addcarryx_u64(carry, u, v, w));

	add	cl, -1
	adcx	rax, QWORD PTR [r10]
	mov	QWORD PTR [r9], rax
; File z:\sources\lunor\repos\rougemeilland\palmtree.math.core.uint\palmtree.math.core.uint\autogenerated_inline_func.h

; 3932 :     c = _ADDX_UNIT(c, xp[1], yp[1], &zp[1]);

	mov	rax, QWORD PTR [rdx+8]
; File z:\sources\lunor\repos\rougemeilland\palmtree.math.core.uint\palmtree.math.core.uint\pmc_inline_func.h

; 238  :         return (_addcarryx_u64(carry, u, v, w));

	adcx	rax, QWORD PTR [r10+8]
	mov	QWORD PTR [r9+8], rax
; File z:\sources\lunor\repos\rougemeilland\palmtree.math.core.uint\palmtree.math.core.uint\autogenerated_inline_func.h

; 3933 :     c = _ADDX_UNIT(c, xp[2], yp[2], &zp[2]);

	mov	rax, QWORD PTR [rdx+16]
; File z:\sources\lunor\repos\rougemeilland\palmtree.math.core.uint\palmtree.math.core.uint\pmc_inline_func.h

; 238  :         return (_addcarryx_u64(carry, u, v, w));

	adcx	rax, QWORD PTR [r10+16]
	mov	QWORD PTR [r9+16], rax
; File z:\sources\lunor\repos\rougemeilland\palmtree.math.core.uint\palmtree.math.core.uint\autogenerated_inline_func.h

; 3934 :     c = _ADDX_UNIT(c, xp[3], yp[3], &zp[3]);

	mov	rax, QWORD PTR [rdx+24]
; File z:\sources\lunor\repos\rougemeilland\palmtree.math.core.uint\palmtree.math.core.uint\pmc_inline_func.h

; 238  :         return (_addcarryx_u64(carry, u, v, w));

	adcx	rax, QWORD PTR [r10+24]
	mov	QWORD PTR [r9+24], rax
	setb	cl
; File z:\sources\lunor\repos\rougemeilland\palmtree.math.core.uint\palmtree.math.core.uint\pmc_add.c

; 269  :         up += 4;

	add	rdx, 32					; 00000020H

; 270  :         vp += 4;

	add	r10, 32					; 00000020H

; 271  :         wp += 4;

	add	r9, 32					; 00000020H
$LN7@Add_Imp_us:

; 272  :     }
; 273  :     // この時点で未処理の桁は 4 ワード未満のはず
; 274  : 
; 275  :     // 未処理の桁が 2 ワード以上あるなら 2 ワード加算を行う。
; 276  :     if (v_count & 0x2)

	test	bl, 2
	je	SHORT $LN8@Add_Imp_us
; File z:\sources\lunor\repos\rougemeilland\palmtree.math.core.uint\palmtree.math.core.uint\autogenerated_inline_func.h

; 4373 :     c = _ADDX_UNIT(c, xp[0], yp[0], &zp[0]);

	mov	rax, QWORD PTR [rdx]
; File z:\sources\lunor\repos\rougemeilland\palmtree.math.core.uint\palmtree.math.core.uint\pmc_inline_func.h

; 238  :         return (_addcarryx_u64(carry, u, v, w));

	add	cl, -1
	adcx	rax, QWORD PTR [r10]
	mov	QWORD PTR [r9], rax
; File z:\sources\lunor\repos\rougemeilland\palmtree.math.core.uint\palmtree.math.core.uint\autogenerated_inline_func.h

; 4374 :     c = _ADDX_UNIT(c, xp[1], yp[1], &zp[1]);

	mov	rax, QWORD PTR [rdx+8]
; File z:\sources\lunor\repos\rougemeilland\palmtree.math.core.uint\palmtree.math.core.uint\pmc_inline_func.h

; 238  :         return (_addcarryx_u64(carry, u, v, w));

	adcx	rax, QWORD PTR [r10+8]
	mov	QWORD PTR [r9+8], rax
	setb	cl
; File z:\sources\lunor\repos\rougemeilland\palmtree.math.core.uint\palmtree.math.core.uint\pmc_add.c

; 279  :         up += 2;

	add	rdx, 16

; 280  :         vp += 2;

	add	r10, 16

; 281  :         wp += 2;

	add	r9, 16
$LN8@Add_Imp_us:

; 282  :     }
; 283  :     // この時点で未処理の桁は 2 ワード未満のはず
; 284  : 
; 285  :     // 未処理の桁が 1 ワード以上あるなら 1 ワード加算を行う。
; 286  :     if (v_count & 0x1)

	test	bl, 1
	je	SHORT $LN9@Add_Imp_us

; 287  :         c = _ADDX_UNIT(c, *up++, *vp++, wp++);

	mov	rax, QWORD PTR [rdx]
; File z:\sources\lunor\repos\rougemeilland\palmtree.math.core.uint\palmtree.math.core.uint\pmc_inline_func.h

; 238  :         return (_addcarryx_u64(carry, u, v, w));

	add	cl, -1
	adcx	rax, QWORD PTR [r10]
	mov	QWORD PTR [r9], rax
	setb	cl
; File z:\sources\lunor\repos\rougemeilland\palmtree.math.core.uint\palmtree.math.core.uint\pmc_add.c

; 287  :         c = _ADDX_UNIT(c, *up++, *vp++, wp++);

	add	rdx, 8
	add	r9, 8
$LN9@Add_Imp_us:

; 288  : 
; 289  :     // 残りの桁の繰り上がりを計算し、復帰する。
; 290  :     return (DoCarry(c, up, u_count - v_count, wp, w_count - v_count));

	mov	rax, QWORD PTR w_count$[rsp]
	sub	rdi, rbx
	sub	rax, rbx
	mov	r8, rdi
	mov	QWORD PTR w_buf$[rsp], rax

; 291  : }

	mov	rbx, QWORD PTR [rsp+64]
	add	rsp, 48					; 00000030H
	pop	rdi

; 288  : 
; 289  :     // 残りの桁の繰り上がりを計算し、復帰する。
; 290  :     return (DoCarry(c, up, u_count - v_count, wp, w_count - v_count));

	jmp	DoCarry
Add_Imp_using_ADCX ENDP
_TEXT	ENDS
; Function compile flags: /Ogtpy
; File z:\sources\lunor\repos\rougemeilland\palmtree.math.core.uint\palmtree.math.core.uint\pmc_add.c
; File z:\sources\lunor\repos\rougemeilland\palmtree.math.core.uint\palmtree.math.core.uint\autogenerated_inline_func.h
; File z:\sources\lunor\repos\rougemeilland\palmtree.math.core.uint\palmtree.math.core.uint\pmc_inline_func.h
; File z:\sources\lunor\repos\rougemeilland\palmtree.math.core.uint\palmtree.math.core.uint\autogenerated_inline_func.h
; File z:\sources\lunor\repos\rougemeilland\palmtree.math.core.uint\palmtree.math.core.uint\pmc_inline_func.h
; File z:\sources\lunor\repos\rougemeilland\palmtree.math.core.uint\palmtree.math.core.uint\autogenerated_inline_func.h
; File z:\sources\lunor\repos\rougemeilland\palmtree.math.core.uint\palmtree.math.core.uint\pmc_inline_func.h
; File z:\sources\lunor\repos\rougemeilland\palmtree.math.core.uint\palmtree.math.core.uint\autogenerated_inline_func.h
; File z:\sources\lunor\repos\rougemeilland\palmtree.math.core.uint\palmtree.math.core.uint\pmc_inline_func.h
; File z:\sources\lunor\repos\rougemeilland\palmtree.math.core.uint\palmtree.math.core.uint\autogenerated_inline_func.h
; File z:\sources\lunor\repos\rougemeilland\palmtree.math.core.uint\palmtree.math.core.uint\pmc_inline_func.h
; File z:\sources\lunor\repos\rougemeilland\palmtree.math.core.uint\palmtree.math.core.uint\autogenerated_inline_func.h
; File z:\sources\lunor\repos\rougemeilland\palmtree.math.core.uint\palmtree.math.core.uint\pmc_inline_func.h
; File z:\sources\lunor\repos\rougemeilland\palmtree.math.core.uint\palmtree.math.core.uint\autogenerated_inline_func.h
; File z:\sources\lunor\repos\rougemeilland\palmtree.math.core.uint\palmtree.math.core.uint\pmc_inline_func.h
; File z:\sources\lunor\repos\rougemeilland\palmtree.math.core.uint\palmtree.math.core.uint\autogenerated_inline_func.h
; File z:\sources\lunor\repos\rougemeilland\palmtree.math.core.uint\palmtree.math.core.uint\pmc_inline_func.h
; File z:\sources\lunor\repos\rougemeilland\palmtree.math.core.uint\palmtree.math.core.uint\autogenerated_inline_func.h
; File z:\sources\lunor\repos\rougemeilland\palmtree.math.core.uint\palmtree.math.core.uint\pmc_inline_func.h
; File z:\sources\lunor\repos\rougemeilland\palmtree.math.core.uint\palmtree.math.core.uint\autogenerated_inline_func.h
; File z:\sources\lunor\repos\rougemeilland\palmtree.math.core.uint\palmtree.math.core.uint\pmc_inline_func.h
; File z:\sources\lunor\repos\rougemeilland\palmtree.math.core.uint\palmtree.math.core.uint\autogenerated_inline_func.h
; File z:\sources\lunor\repos\rougemeilland\palmtree.math.core.uint\palmtree.math.core.uint\pmc_inline_func.h
; File z:\sources\lunor\repos\rougemeilland\palmtree.math.core.uint\palmtree.math.core.uint\autogenerated_inline_func.h
; File z:\sources\lunor\repos\rougemeilland\palmtree.math.core.uint\palmtree.math.core.uint\pmc_inline_func.h
; File z:\sources\lunor\repos\rougemeilland\palmtree.math.core.uint\palmtree.math.core.uint\autogenerated_inline_func.h
; File z:\sources\lunor\repos\rougemeilland\palmtree.math.core.uint\palmtree.math.core.uint\pmc_inline_func.h
; File z:\sources\lunor\repos\rougemeilland\palmtree.math.core.uint\palmtree.math.core.uint\autogenerated_inline_func.h
; File z:\sources\lunor\repos\rougemeilland\palmtree.math.core.uint\palmtree.math.core.uint\pmc_inline_func.h
; File z:\sources\lunor\repos\rougemeilland\palmtree.math.core.uint\palmtree.math.core.uint\autogenerated_inline_func.h
; File z:\sources\lunor\repos\rougemeilland\palmtree.math.core.uint\palmtree.math.core.uint\pmc_inline_func.h
; File z:\sources\lunor\repos\rougemeilland\palmtree.math.core.uint\palmtree.math.core.uint\autogenerated_inline_func.h
; File z:\sources\lunor\repos\rougemeilland\palmtree.math.core.uint\palmtree.math.core.uint\pmc_inline_func.h
; File z:\sources\lunor\repos\rougemeilland\palmtree.math.core.uint\palmtree.math.core.uint\autogenerated_inline_func.h
; File z:\sources\lunor\repos\rougemeilland\palmtree.math.core.uint\palmtree.math.core.uint\pmc_inline_func.h
; File z:\sources\lunor\repos\rougemeilland\palmtree.math.core.uint\palmtree.math.core.uint\autogenerated_inline_func.h
; File z:\sources\lunor\repos\rougemeilland\palmtree.math.core.uint\palmtree.math.core.uint\pmc_inline_func.h
; File z:\sources\lunor\repos\rougemeilland\palmtree.math.core.uint\palmtree.math.core.uint\autogenerated_inline_func.h
; File z:\sources\lunor\repos\rougemeilland\palmtree.math.core.uint\palmtree.math.core.uint\pmc_inline_func.h
; File z:\sources\lunor\repos\rougemeilland\palmtree.math.core.uint\palmtree.math.core.uint\autogenerated_inline_func.h
; File z:\sources\lunor\repos\rougemeilland\palmtree.math.core.uint\palmtree.math.core.uint\pmc_inline_func.h
; File z:\sources\lunor\repos\rougemeilland\palmtree.math.core.uint\palmtree.math.core.uint\autogenerated_inline_func.h
; File z:\sources\lunor\repos\rougemeilland\palmtree.math.core.uint\palmtree.math.core.uint\pmc_inline_func.h
; File z:\sources\lunor\repos\rougemeilland\palmtree.math.core.uint\palmtree.math.core.uint\autogenerated_inline_func.h
; File z:\sources\lunor\repos\rougemeilland\palmtree.math.core.uint\palmtree.math.core.uint\pmc_inline_func.h
; File z:\sources\lunor\repos\rougemeilland\palmtree.math.core.uint\palmtree.math.core.uint\autogenerated_inline_func.h
; File z:\sources\lunor\repos\rougemeilland\palmtree.math.core.uint\palmtree.math.core.uint\pmc_inline_func.h
; File z:\sources\lunor\repos\rougemeilland\palmtree.math.core.uint\palmtree.math.core.uint\autogenerated_inline_func.h
; File z:\sources\lunor\repos\rougemeilland\palmtree.math.core.uint\palmtree.math.core.uint\pmc_inline_func.h
; File z:\sources\lunor\repos\rougemeilland\palmtree.math.core.uint\palmtree.math.core.uint\autogenerated_inline_func.h
; File z:\sources\lunor\repos\rougemeilland\palmtree.math.core.uint\palmtree.math.core.uint\pmc_inline_func.h
; File z:\sources\lunor\repos\rougemeilland\palmtree.math.core.uint\palmtree.math.core.uint\autogenerated_inline_func.h
; File z:\sources\lunor\repos\rougemeilland\palmtree.math.core.uint\palmtree.math.core.uint\pmc_inline_func.h
; File z:\sources\lunor\repos\rougemeilland\palmtree.math.core.uint\palmtree.math.core.uint\autogenerated_inline_func.h
; File z:\sources\lunor\repos\rougemeilland\palmtree.math.core.uint\palmtree.math.core.uint\pmc_inline_func.h
; File z:\sources\lunor\repos\rougemeilland\palmtree.math.core.uint\palmtree.math.core.uint\autogenerated_inline_func.h
; File z:\sources\lunor\repos\rougemeilland\palmtree.math.core.uint\palmtree.math.core.uint\pmc_inline_func.h
; File z:\sources\lunor\repos\rougemeilland\palmtree.math.core.uint\palmtree.math.core.uint\autogenerated_inline_func.h
; File z:\sources\lunor\repos\rougemeilland\palmtree.math.core.uint\palmtree.math.core.uint\pmc_inline_func.h
; File z:\sources\lunor\repos\rougemeilland\palmtree.math.core.uint\palmtree.math.core.uint\autogenerated_inline_func.h
; File z:\sources\lunor\repos\rougemeilland\palmtree.math.core.uint\palmtree.math.core.uint\pmc_inline_func.h
; File z:\sources\lunor\repos\rougemeilland\palmtree.math.core.uint\palmtree.math.core.uint\autogenerated_inline_func.h
; File z:\sources\lunor\repos\rougemeilland\palmtree.math.core.uint\palmtree.math.core.uint\pmc_inline_func.h
; File z:\sources\lunor\repos\rougemeilland\palmtree.math.core.uint\palmtree.math.core.uint\autogenerated_inline_func.h
; File z:\sources\lunor\repos\rougemeilland\palmtree.math.core.uint\palmtree.math.core.uint\pmc_inline_func.h
; File z:\sources\lunor\repos\rougemeilland\palmtree.math.core.uint\palmtree.math.core.uint\pmc_add.c
; File z:\sources\lunor\repos\rougemeilland\palmtree.math.core.uint\palmtree.math.core.uint\autogenerated_inline_func.h
; File z:\sources\lunor\repos\rougemeilland\palmtree.math.core.uint\palmtree.math.core.uint\pmc_inline_func.h
; File z:\sources\lunor\repos\rougemeilland\palmtree.math.core.uint\palmtree.math.core.uint\autogenerated_inline_func.h
; File z:\sources\lunor\repos\rougemeilland\palmtree.math.core.uint\palmtree.math.core.uint\pmc_inline_func.h
; File z:\sources\lunor\repos\rougemeilland\palmtree.math.core.uint\palmtree.math.core.uint\autogenerated_inline_func.h
; File z:\sources\lunor\repos\rougemeilland\palmtree.math.core.uint\palmtree.math.core.uint\pmc_inline_func.h
; File z:\sources\lunor\repos\rougemeilland\palmtree.math.core.uint\palmtree.math.core.uint\autogenerated_inline_func.h
; File z:\sources\lunor\repos\rougemeilland\palmtree.math.core.uint\palmtree.math.core.uint\pmc_inline_func.h
; File z:\sources\lunor\repos\rougemeilland\palmtree.math.core.uint\palmtree.math.core.uint\autogenerated_inline_func.h
; File z:\sources\lunor\repos\rougemeilland\palmtree.math.core.uint\palmtree.math.core.uint\pmc_inline_func.h
; File z:\sources\lunor\repos\rougemeilland\palmtree.math.core.uint\palmtree.math.core.uint\autogenerated_inline_func.h
; File z:\sources\lunor\repos\rougemeilland\palmtree.math.core.uint\palmtree.math.core.uint\pmc_inline_func.h
; File z:\sources\lunor\repos\rougemeilland\palmtree.math.core.uint\palmtree.math.core.uint\autogenerated_inline_func.h
; File z:\sources\lunor\repos\rougemeilland\palmtree.math.core.uint\palmtree.math.core.uint\pmc_inline_func.h
; File z:\sources\lunor\repos\rougemeilland\palmtree.math.core.uint\palmtree.math.core.uint\autogenerated_inline_func.h
; File z:\sources\lunor\repos\rougemeilland\palmtree.math.core.uint\palmtree.math.core.uint\pmc_inline_func.h
; File z:\sources\lunor\repos\rougemeilland\palmtree.math.core.uint\palmtree.math.core.uint\pmc_add.c
; File z:\sources\lunor\repos\rougemeilland\palmtree.math.core.uint\palmtree.math.core.uint\autogenerated_inline_func.h
; File z:\sources\lunor\repos\rougemeilland\palmtree.math.core.uint\palmtree.math.core.uint\pmc_inline_func.h
; File z:\sources\lunor\repos\rougemeilland\palmtree.math.core.uint\palmtree.math.core.uint\autogenerated_inline_func.h
; File z:\sources\lunor\repos\rougemeilland\palmtree.math.core.uint\palmtree.math.core.uint\pmc_inline_func.h
; File z:\sources\lunor\repos\rougemeilland\palmtree.math.core.uint\palmtree.math.core.uint\autogenerated_inline_func.h
; File z:\sources\lunor\repos\rougemeilland\palmtree.math.core.uint\palmtree.math.core.uint\pmc_inline_func.h
; File z:\sources\lunor\repos\rougemeilland\palmtree.math.core.uint\palmtree.math.core.uint\autogenerated_inline_func.h
; File z:\sources\lunor\repos\rougemeilland\palmtree.math.core.uint\palmtree.math.core.uint\pmc_inline_func.h
; File z:\sources\lunor\repos\rougemeilland\palmtree.math.core.uint\palmtree.math.core.uint\pmc_add.c
; File z:\sources\lunor\repos\rougemeilland\palmtree.math.core.uint\palmtree.math.core.uint\autogenerated_inline_func.h
; File z:\sources\lunor\repos\rougemeilland\palmtree.math.core.uint\palmtree.math.core.uint\pmc_inline_func.h
; File z:\sources\lunor\repos\rougemeilland\palmtree.math.core.uint\palmtree.math.core.uint\autogenerated_inline_func.h
; File z:\sources\lunor\repos\rougemeilland\palmtree.math.core.uint\palmtree.math.core.uint\pmc_inline_func.h
; File z:\sources\lunor\repos\rougemeilland\palmtree.math.core.uint\palmtree.math.core.uint\pmc_add.c
; File z:\sources\lunor\repos\rougemeilland\palmtree.math.core.uint\palmtree.math.core.uint\pmc_inline_func.h
; File z:\sources\lunor\repos\rougemeilland\palmtree.math.core.uint\palmtree.math.core.uint\pmc_add.c
;	COMDAT Add_Imp_using_ADC
_TEXT	SEGMENT
u_buf$ = 64
u_count$ = 72
v_buf$ = 80
v_count$ = 88
w_buf$ = 96
w_count$ = 104
Add_Imp_using_ADC PROC					; COMDAT

; 140  : {

	mov	QWORD PTR [rsp+8], rbx
	push	rdi
	sub	rsp, 48					; 00000030H

; 141  :     // x のワード長が y のワード長以上であるようにする
; 142  :     if (u_count < v_count)
; 143  :     {
; 144  :         __UNIT_TYPE* t_buf = u_buf;
; 145  :         u_buf = v_buf;
; 146  :         v_buf = t_buf;
; 147  :         __UNIT_TYPE t_count = u_count;
; 148  :         u_count = v_count;
; 149  :         v_count = t_count;
; 150  :     }
; 151  :     __UNIT_TYPE* up = u_buf;

	cmp	rdx, r9
	mov	r10, r8
	mov	r8, rcx
	mov	rbx, r9
	cmovae	r8, r10
	cmovae	rbx, rdx
	cmovae	r10, rcx
	mov	r11, rdx
	cmovae	r11, r9

; 152  :     __UNIT_TYPE* vp = v_buf;
; 153  :     __UNIT_TYPE* wp = w_buf;

	mov	r9, QWORD PTR w_buf$[rsp]

; 154  :     char c = 0;
; 155  : 
; 156  :     // まず 32 ワードずつ加算をする。
; 157  :     __UNIT_TYPE count = v_count >> 5;

	mov	rdi, r11
	xor	cl, cl
	shr	rdi, 5

; 158  :     while (count != 0)

	test	rdi, rdi
	je	$LN3@Add_Imp_us

; 141  :     // x のワード長が y のワード長以上であるようにする
; 142  :     if (u_count < v_count)
; 143  :     {
; 144  :         __UNIT_TYPE* t_buf = u_buf;
; 145  :         u_buf = v_buf;
; 146  :         v_buf = t_buf;
; 147  :         __UNIT_TYPE t_count = u_count;
; 148  :         u_count = v_count;
; 149  :         v_count = t_count;
; 150  :     }
; 151  :     __UNIT_TYPE* up = u_buf;

	mov	rdx, r8
	sub	rdx, r9
	npad	10
$LL2@Add_Imp_us:
; File z:\sources\lunor\repos\rougemeilland\palmtree.math.core.uint\palmtree.math.core.uint\autogenerated_inline_func.h

; 42   :     c = _ADD_UNIT(c, xp[0], yp[0], &zp[0]);

	mov	rax, QWORD PTR [r10]
; File z:\sources\lunor\repos\rougemeilland\palmtree.math.core.uint\palmtree.math.core.uint\pmc_inline_func.h

; 210  :         return (_addcarry_u64(carry, u, v, w));

	add	cl, -1
	adc	rax, QWORD PTR [r8]
	mov	QWORD PTR [r9], rax
; File z:\sources\lunor\repos\rougemeilland\palmtree.math.core.uint\palmtree.math.core.uint\autogenerated_inline_func.h

; 43   :     c = _ADD_UNIT(c, xp[1], yp[1], &zp[1]);

	mov	rax, QWORD PTR [r10+8]
; File z:\sources\lunor\repos\rougemeilland\palmtree.math.core.uint\palmtree.math.core.uint\pmc_inline_func.h

; 210  :         return (_addcarry_u64(carry, u, v, w));

	adc	rax, QWORD PTR [rdx+r9+8]
	mov	QWORD PTR [r9+8], rax
; File z:\sources\lunor\repos\rougemeilland\palmtree.math.core.uint\palmtree.math.core.uint\autogenerated_inline_func.h

; 44   :     c = _ADD_UNIT(c, xp[2], yp[2], &zp[2]);

	mov	rax, QWORD PTR [r10+16]
; File z:\sources\lunor\repos\rougemeilland\palmtree.math.core.uint\palmtree.math.core.uint\pmc_inline_func.h

; 210  :         return (_addcarry_u64(carry, u, v, w));

	adc	rax, QWORD PTR [rdx+r9+16]
	mov	QWORD PTR [r9+16], rax
; File z:\sources\lunor\repos\rougemeilland\palmtree.math.core.uint\palmtree.math.core.uint\autogenerated_inline_func.h

; 45   :     c = _ADD_UNIT(c, xp[3], yp[3], &zp[3]);

	mov	rax, QWORD PTR [r10+24]
; File z:\sources\lunor\repos\rougemeilland\palmtree.math.core.uint\palmtree.math.core.uint\pmc_inline_func.h

; 210  :         return (_addcarry_u64(carry, u, v, w));

	adc	rax, QWORD PTR [rdx+r9+24]
	mov	QWORD PTR [r9+24], rax
; File z:\sources\lunor\repos\rougemeilland\palmtree.math.core.uint\palmtree.math.core.uint\autogenerated_inline_func.h

; 46   :     c = _ADD_UNIT(c, xp[4], yp[4], &zp[4]);

	mov	rax, QWORD PTR [r10+32]
; File z:\sources\lunor\repos\rougemeilland\palmtree.math.core.uint\palmtree.math.core.uint\pmc_inline_func.h

; 210  :         return (_addcarry_u64(carry, u, v, w));

	adc	rax, QWORD PTR [rdx+r9+32]
	mov	QWORD PTR [r9+32], rax
; File z:\sources\lunor\repos\rougemeilland\palmtree.math.core.uint\palmtree.math.core.uint\autogenerated_inline_func.h

; 47   :     c = _ADD_UNIT(c, xp[5], yp[5], &zp[5]);

	mov	rax, QWORD PTR [r10+40]
; File z:\sources\lunor\repos\rougemeilland\palmtree.math.core.uint\palmtree.math.core.uint\pmc_inline_func.h

; 210  :         return (_addcarry_u64(carry, u, v, w));

	adc	rax, QWORD PTR [r9+rdx+40]
	mov	QWORD PTR [r9+40], rax
; File z:\sources\lunor\repos\rougemeilland\palmtree.math.core.uint\palmtree.math.core.uint\autogenerated_inline_func.h

; 48   :     c = _ADD_UNIT(c, xp[6], yp[6], &zp[6]);

	mov	rax, QWORD PTR [r10+48]
; File z:\sources\lunor\repos\rougemeilland\palmtree.math.core.uint\palmtree.math.core.uint\pmc_inline_func.h

; 210  :         return (_addcarry_u64(carry, u, v, w));

	adc	rax, QWORD PTR [r9+rdx+48]
	mov	QWORD PTR [r9+48], rax
; File z:\sources\lunor\repos\rougemeilland\palmtree.math.core.uint\palmtree.math.core.uint\autogenerated_inline_func.h

; 49   :     c = _ADD_UNIT(c, xp[7], yp[7], &zp[7]);

	mov	rax, QWORD PTR [r10+56]
; File z:\sources\lunor\repos\rougemeilland\palmtree.math.core.uint\palmtree.math.core.uint\pmc_inline_func.h

; 210  :         return (_addcarry_u64(carry, u, v, w));

	adc	rax, QWORD PTR [r9+rdx+56]
	mov	QWORD PTR [r9+56], rax
; File z:\sources\lunor\repos\rougemeilland\palmtree.math.core.uint\palmtree.math.core.uint\autogenerated_inline_func.h

; 50   :     c = _ADD_UNIT(c, xp[8], yp[8], &zp[8]);

	mov	rax, QWORD PTR [r10+64]
; File z:\sources\lunor\repos\rougemeilland\palmtree.math.core.uint\palmtree.math.core.uint\pmc_inline_func.h

; 210  :         return (_addcarry_u64(carry, u, v, w));

	adc	rax, QWORD PTR [r9+rdx+64]
	mov	QWORD PTR [r9+64], rax
; File z:\sources\lunor\repos\rougemeilland\palmtree.math.core.uint\palmtree.math.core.uint\autogenerated_inline_func.h

; 51   :     c = _ADD_UNIT(c, xp[9], yp[9], &zp[9]);

	mov	rax, QWORD PTR [r10+72]
; File z:\sources\lunor\repos\rougemeilland\palmtree.math.core.uint\palmtree.math.core.uint\pmc_inline_func.h

; 210  :         return (_addcarry_u64(carry, u, v, w));

	adc	rax, QWORD PTR [r9+rdx+72]
	mov	QWORD PTR [r9+72], rax
; File z:\sources\lunor\repos\rougemeilland\palmtree.math.core.uint\palmtree.math.core.uint\autogenerated_inline_func.h

; 52   :     c = _ADD_UNIT(c, xp[10], yp[10], &zp[10]);

	mov	rax, QWORD PTR [r10+80]
; File z:\sources\lunor\repos\rougemeilland\palmtree.math.core.uint\palmtree.math.core.uint\pmc_inline_func.h

; 210  :         return (_addcarry_u64(carry, u, v, w));

	adc	rax, QWORD PTR [r9+rdx+80]
	mov	QWORD PTR [r9+80], rax
; File z:\sources\lunor\repos\rougemeilland\palmtree.math.core.uint\palmtree.math.core.uint\autogenerated_inline_func.h

; 53   :     c = _ADD_UNIT(c, xp[11], yp[11], &zp[11]);

	mov	rax, QWORD PTR [r10+88]
; File z:\sources\lunor\repos\rougemeilland\palmtree.math.core.uint\palmtree.math.core.uint\pmc_inline_func.h

; 210  :         return (_addcarry_u64(carry, u, v, w));

	adc	rax, QWORD PTR [r9+rdx+88]
	mov	QWORD PTR [r9+88], rax
; File z:\sources\lunor\repos\rougemeilland\palmtree.math.core.uint\palmtree.math.core.uint\autogenerated_inline_func.h

; 54   :     c = _ADD_UNIT(c, xp[12], yp[12], &zp[12]);

	mov	rax, QWORD PTR [r10+96]
; File z:\sources\lunor\repos\rougemeilland\palmtree.math.core.uint\palmtree.math.core.uint\pmc_inline_func.h

; 210  :         return (_addcarry_u64(carry, u, v, w));

	adc	rax, QWORD PTR [r9+rdx+96]
	mov	QWORD PTR [r9+96], rax
; File z:\sources\lunor\repos\rougemeilland\palmtree.math.core.uint\palmtree.math.core.uint\autogenerated_inline_func.h

; 55   :     c = _ADD_UNIT(c, xp[13], yp[13], &zp[13]);

	mov	rax, QWORD PTR [r10+104]
; File z:\sources\lunor\repos\rougemeilland\palmtree.math.core.uint\palmtree.math.core.uint\pmc_inline_func.h

; 210  :         return (_addcarry_u64(carry, u, v, w));

	adc	rax, QWORD PTR [r9+rdx+104]
	mov	QWORD PTR [r9+104], rax
; File z:\sources\lunor\repos\rougemeilland\palmtree.math.core.uint\palmtree.math.core.uint\autogenerated_inline_func.h

; 56   :     c = _ADD_UNIT(c, xp[14], yp[14], &zp[14]);

	mov	rax, QWORD PTR [r10+112]
; File z:\sources\lunor\repos\rougemeilland\palmtree.math.core.uint\palmtree.math.core.uint\pmc_inline_func.h

; 210  :         return (_addcarry_u64(carry, u, v, w));

	adc	rax, QWORD PTR [r9+rdx+112]
	mov	QWORD PTR [r9+112], rax
; File z:\sources\lunor\repos\rougemeilland\palmtree.math.core.uint\palmtree.math.core.uint\autogenerated_inline_func.h

; 57   :     c = _ADD_UNIT(c, xp[15], yp[15], &zp[15]);

	mov	rax, QWORD PTR [r10+120]
; File z:\sources\lunor\repos\rougemeilland\palmtree.math.core.uint\palmtree.math.core.uint\pmc_inline_func.h

; 210  :         return (_addcarry_u64(carry, u, v, w));

	adc	rax, QWORD PTR [r9+rdx+120]
	mov	QWORD PTR [r9+120], rax
; File z:\sources\lunor\repos\rougemeilland\palmtree.math.core.uint\palmtree.math.core.uint\autogenerated_inline_func.h

; 58   :     c = _ADD_UNIT(c, xp[16], yp[16], &zp[16]);

	mov	rax, QWORD PTR [r10+128]
; File z:\sources\lunor\repos\rougemeilland\palmtree.math.core.uint\palmtree.math.core.uint\pmc_inline_func.h

; 210  :         return (_addcarry_u64(carry, u, v, w));

	adc	rax, QWORD PTR [r9+rdx+128]
	mov	QWORD PTR [r9+128], rax
; File z:\sources\lunor\repos\rougemeilland\palmtree.math.core.uint\palmtree.math.core.uint\autogenerated_inline_func.h

; 59   :     c = _ADD_UNIT(c, xp[17], yp[17], &zp[17]);

	mov	rax, QWORD PTR [r10+136]
; File z:\sources\lunor\repos\rougemeilland\palmtree.math.core.uint\palmtree.math.core.uint\pmc_inline_func.h

; 210  :         return (_addcarry_u64(carry, u, v, w));

	adc	rax, QWORD PTR [r9+rdx+136]
	mov	QWORD PTR [r9+136], rax
; File z:\sources\lunor\repos\rougemeilland\palmtree.math.core.uint\palmtree.math.core.uint\autogenerated_inline_func.h

; 60   :     c = _ADD_UNIT(c, xp[18], yp[18], &zp[18]);

	mov	rax, QWORD PTR [r10+144]
; File z:\sources\lunor\repos\rougemeilland\palmtree.math.core.uint\palmtree.math.core.uint\pmc_inline_func.h

; 210  :         return (_addcarry_u64(carry, u, v, w));

	adc	rax, QWORD PTR [r9+rdx+144]
	mov	QWORD PTR [r9+144], rax
; File z:\sources\lunor\repos\rougemeilland\palmtree.math.core.uint\palmtree.math.core.uint\autogenerated_inline_func.h

; 61   :     c = _ADD_UNIT(c, xp[19], yp[19], &zp[19]);

	mov	rax, QWORD PTR [r10+152]
; File z:\sources\lunor\repos\rougemeilland\palmtree.math.core.uint\palmtree.math.core.uint\pmc_inline_func.h

; 210  :         return (_addcarry_u64(carry, u, v, w));

	adc	rax, QWORD PTR [r9+rdx+152]
	mov	QWORD PTR [r9+152], rax
; File z:\sources\lunor\repos\rougemeilland\palmtree.math.core.uint\palmtree.math.core.uint\autogenerated_inline_func.h

; 62   :     c = _ADD_UNIT(c, xp[20], yp[20], &zp[20]);

	mov	rax, QWORD PTR [r10+160]
; File z:\sources\lunor\repos\rougemeilland\palmtree.math.core.uint\palmtree.math.core.uint\pmc_inline_func.h

; 210  :         return (_addcarry_u64(carry, u, v, w));

	adc	rax, QWORD PTR [r9+rdx+160]
	mov	QWORD PTR [r9+160], rax
; File z:\sources\lunor\repos\rougemeilland\palmtree.math.core.uint\palmtree.math.core.uint\autogenerated_inline_func.h

; 63   :     c = _ADD_UNIT(c, xp[21], yp[21], &zp[21]);

	mov	rax, QWORD PTR [r10+168]
; File z:\sources\lunor\repos\rougemeilland\palmtree.math.core.uint\palmtree.math.core.uint\pmc_inline_func.h

; 210  :         return (_addcarry_u64(carry, u, v, w));

	adc	rax, QWORD PTR [r9+rdx+168]
	mov	QWORD PTR [r9+168], rax
; File z:\sources\lunor\repos\rougemeilland\palmtree.math.core.uint\palmtree.math.core.uint\autogenerated_inline_func.h

; 64   :     c = _ADD_UNIT(c, xp[22], yp[22], &zp[22]);

	mov	rax, QWORD PTR [r10+176]
; File z:\sources\lunor\repos\rougemeilland\palmtree.math.core.uint\palmtree.math.core.uint\pmc_inline_func.h

; 210  :         return (_addcarry_u64(carry, u, v, w));

	adc	rax, QWORD PTR [r9+rdx+176]
	mov	QWORD PTR [r9+176], rax
; File z:\sources\lunor\repos\rougemeilland\palmtree.math.core.uint\palmtree.math.core.uint\autogenerated_inline_func.h

; 65   :     c = _ADD_UNIT(c, xp[23], yp[23], &zp[23]);

	mov	rax, QWORD PTR [r10+184]
; File z:\sources\lunor\repos\rougemeilland\palmtree.math.core.uint\palmtree.math.core.uint\pmc_inline_func.h

; 210  :         return (_addcarry_u64(carry, u, v, w));

	adc	rax, QWORD PTR [r9+rdx+184]
	mov	QWORD PTR [r9+184], rax
; File z:\sources\lunor\repos\rougemeilland\palmtree.math.core.uint\palmtree.math.core.uint\autogenerated_inline_func.h

; 66   :     c = _ADD_UNIT(c, xp[24], yp[24], &zp[24]);

	mov	rax, QWORD PTR [r10+192]
; File z:\sources\lunor\repos\rougemeilland\palmtree.math.core.uint\palmtree.math.core.uint\pmc_inline_func.h

; 210  :         return (_addcarry_u64(carry, u, v, w));

	adc	rax, QWORD PTR [r9+rdx+192]
	mov	QWORD PTR [r9+192], rax
; File z:\sources\lunor\repos\rougemeilland\palmtree.math.core.uint\palmtree.math.core.uint\autogenerated_inline_func.h

; 67   :     c = _ADD_UNIT(c, xp[25], yp[25], &zp[25]);

	mov	rax, QWORD PTR [r10+200]
; File z:\sources\lunor\repos\rougemeilland\palmtree.math.core.uint\palmtree.math.core.uint\pmc_inline_func.h

; 210  :         return (_addcarry_u64(carry, u, v, w));

	adc	rax, QWORD PTR [r9+rdx+200]
	mov	QWORD PTR [r9+200], rax
; File z:\sources\lunor\repos\rougemeilland\palmtree.math.core.uint\palmtree.math.core.uint\autogenerated_inline_func.h

; 68   :     c = _ADD_UNIT(c, xp[26], yp[26], &zp[26]);

	mov	rax, QWORD PTR [r10+208]
; File z:\sources\lunor\repos\rougemeilland\palmtree.math.core.uint\palmtree.math.core.uint\pmc_inline_func.h

; 210  :         return (_addcarry_u64(carry, u, v, w));

	adc	rax, QWORD PTR [r9+rdx+208]
	mov	QWORD PTR [r9+208], rax
; File z:\sources\lunor\repos\rougemeilland\palmtree.math.core.uint\palmtree.math.core.uint\autogenerated_inline_func.h

; 69   :     c = _ADD_UNIT(c, xp[27], yp[27], &zp[27]);

	mov	rax, QWORD PTR [r10+216]
; File z:\sources\lunor\repos\rougemeilland\palmtree.math.core.uint\palmtree.math.core.uint\pmc_inline_func.h

; 210  :         return (_addcarry_u64(carry, u, v, w));

	adc	rax, QWORD PTR [r9+rdx+216]
	mov	QWORD PTR [r9+216], rax
; File z:\sources\lunor\repos\rougemeilland\palmtree.math.core.uint\palmtree.math.core.uint\autogenerated_inline_func.h

; 70   :     c = _ADD_UNIT(c, xp[28], yp[28], &zp[28]);

	mov	rax, QWORD PTR [r10+224]
; File z:\sources\lunor\repos\rougemeilland\palmtree.math.core.uint\palmtree.math.core.uint\pmc_inline_func.h

; 210  :         return (_addcarry_u64(carry, u, v, w));

	adc	rax, QWORD PTR [r9+rdx+224]
	mov	QWORD PTR [r9+224], rax
; File z:\sources\lunor\repos\rougemeilland\palmtree.math.core.uint\palmtree.math.core.uint\autogenerated_inline_func.h

; 71   :     c = _ADD_UNIT(c, xp[29], yp[29], &zp[29]);

	mov	rax, QWORD PTR [r10+232]
; File z:\sources\lunor\repos\rougemeilland\palmtree.math.core.uint\palmtree.math.core.uint\pmc_inline_func.h

; 210  :         return (_addcarry_u64(carry, u, v, w));

	adc	rax, QWORD PTR [r9+rdx+232]
	mov	QWORD PTR [r9+232], rax
; File z:\sources\lunor\repos\rougemeilland\palmtree.math.core.uint\palmtree.math.core.uint\autogenerated_inline_func.h

; 72   :     c = _ADD_UNIT(c, xp[30], yp[30], &zp[30]);

	mov	rax, QWORD PTR [r10+240]
; File z:\sources\lunor\repos\rougemeilland\palmtree.math.core.uint\palmtree.math.core.uint\pmc_inline_func.h

; 210  :         return (_addcarry_u64(carry, u, v, w));

	adc	rax, QWORD PTR [r9+rdx+240]
	mov	QWORD PTR [r9+240], rax
; File z:\sources\lunor\repos\rougemeilland\palmtree.math.core.uint\palmtree.math.core.uint\autogenerated_inline_func.h

; 73   :     c = _ADD_UNIT(c, xp[31], yp[31], &zp[31]);

	mov	rax, QWORD PTR [r10+248]
; File z:\sources\lunor\repos\rougemeilland\palmtree.math.core.uint\palmtree.math.core.uint\pmc_inline_func.h

; 210  :         return (_addcarry_u64(carry, u, v, w));

	adc	rax, QWORD PTR [r9+rdx+248]
	mov	QWORD PTR [r9+248], rax
	setb	cl
; File z:\sources\lunor\repos\rougemeilland\palmtree.math.core.uint\palmtree.math.core.uint\pmc_add.c

; 161  :         up += 32;

	add	r10, 256				; 00000100H

; 162  :         vp += 32;

	add	r8, 256					; 00000100H

; 163  :         wp += 32;

	add	r9, 256					; 00000100H

; 164  :         --count;

	sub	rdi, 1
	jne	$LL2@Add_Imp_us
$LN3@Add_Imp_us:

; 165  :     }
; 166  :     // この時点で未処理の桁は 32 ワード未満のはず
; 167  : 
; 168  :     // 未処理の桁が 16 ワード以上あるなら 16 ワード加算を行う。
; 169  :     if (v_count & 0x10)

	test	r11b, 16
	je	SHORT $LN5@Add_Imp_us

; 170  :     {
; 171  :         c = _ADD_16WORDS_ADC(c, up, vp, wp);

	mov	rdx, r10
	call	_ADD_16WORDS_ADC

; 172  :         up += 16;

	sub	r10, -128				; ffffffffffffff80H

; 173  :         vp += 16;

	sub	r8, -128				; ffffffffffffff80H

; 174  :         wp += 16;

	sub	r9, -128				; ffffffffffffff80H
	movzx	ecx, al
$LN5@Add_Imp_us:

; 175  :     }
; 176  :     // この時点で未処理の桁は 16 ワード未満のはず
; 177  : 
; 178  :     // 未処理の桁が 8 ワード以上あるなら 8 ワード加算を行う。
; 179  :     if (v_count & 0x8)

	test	r11b, 8
	je	SHORT $LN6@Add_Imp_us
; File z:\sources\lunor\repos\rougemeilland\palmtree.math.core.uint\palmtree.math.core.uint\autogenerated_inline_func.h

; 3194 :     c = _ADD_UNIT(c, xp[0], yp[0], &zp[0]);

	mov	rax, QWORD PTR [r10]
; File z:\sources\lunor\repos\rougemeilland\palmtree.math.core.uint\palmtree.math.core.uint\pmc_inline_func.h

; 210  :         return (_addcarry_u64(carry, u, v, w));

	add	cl, -1
	adc	rax, QWORD PTR [r8]
	mov	QWORD PTR [r9], rax
; File z:\sources\lunor\repos\rougemeilland\palmtree.math.core.uint\palmtree.math.core.uint\autogenerated_inline_func.h

; 3195 :     c = _ADD_UNIT(c, xp[1], yp[1], &zp[1]);

	mov	rax, QWORD PTR [r10+8]
; File z:\sources\lunor\repos\rougemeilland\palmtree.math.core.uint\palmtree.math.core.uint\pmc_inline_func.h

; 210  :         return (_addcarry_u64(carry, u, v, w));

	adc	rax, QWORD PTR [r8+8]
	mov	QWORD PTR [r9+8], rax
; File z:\sources\lunor\repos\rougemeilland\palmtree.math.core.uint\palmtree.math.core.uint\autogenerated_inline_func.h

; 3196 :     c = _ADD_UNIT(c, xp[2], yp[2], &zp[2]);

	mov	rax, QWORD PTR [r10+16]
; File z:\sources\lunor\repos\rougemeilland\palmtree.math.core.uint\palmtree.math.core.uint\pmc_inline_func.h

; 210  :         return (_addcarry_u64(carry, u, v, w));

	adc	rax, QWORD PTR [r8+16]
	mov	QWORD PTR [r9+16], rax
; File z:\sources\lunor\repos\rougemeilland\palmtree.math.core.uint\palmtree.math.core.uint\autogenerated_inline_func.h

; 3197 :     c = _ADD_UNIT(c, xp[3], yp[3], &zp[3]);

	mov	rax, QWORD PTR [r10+24]
; File z:\sources\lunor\repos\rougemeilland\palmtree.math.core.uint\palmtree.math.core.uint\pmc_inline_func.h

; 210  :         return (_addcarry_u64(carry, u, v, w));

	adc	rax, QWORD PTR [r8+24]
	mov	QWORD PTR [r9+24], rax
; File z:\sources\lunor\repos\rougemeilland\palmtree.math.core.uint\palmtree.math.core.uint\autogenerated_inline_func.h

; 3198 :     c = _ADD_UNIT(c, xp[4], yp[4], &zp[4]);

	mov	rax, QWORD PTR [r10+32]
; File z:\sources\lunor\repos\rougemeilland\palmtree.math.core.uint\palmtree.math.core.uint\pmc_inline_func.h

; 210  :         return (_addcarry_u64(carry, u, v, w));

	adc	rax, QWORD PTR [r8+32]
	mov	QWORD PTR [r9+32], rax
; File z:\sources\lunor\repos\rougemeilland\palmtree.math.core.uint\palmtree.math.core.uint\autogenerated_inline_func.h

; 3199 :     c = _ADD_UNIT(c, xp[5], yp[5], &zp[5]);

	mov	rax, QWORD PTR [r10+40]
; File z:\sources\lunor\repos\rougemeilland\palmtree.math.core.uint\palmtree.math.core.uint\pmc_inline_func.h

; 210  :         return (_addcarry_u64(carry, u, v, w));

	adc	rax, QWORD PTR [r8+40]
	mov	QWORD PTR [r9+40], rax
; File z:\sources\lunor\repos\rougemeilland\palmtree.math.core.uint\palmtree.math.core.uint\autogenerated_inline_func.h

; 3200 :     c = _ADD_UNIT(c, xp[6], yp[6], &zp[6]);

	mov	rax, QWORD PTR [r10+48]
; File z:\sources\lunor\repos\rougemeilland\palmtree.math.core.uint\palmtree.math.core.uint\pmc_inline_func.h

; 210  :         return (_addcarry_u64(carry, u, v, w));

	adc	rax, QWORD PTR [r8+48]
	mov	QWORD PTR [r9+48], rax
; File z:\sources\lunor\repos\rougemeilland\palmtree.math.core.uint\palmtree.math.core.uint\autogenerated_inline_func.h

; 3201 :     c = _ADD_UNIT(c, xp[7], yp[7], &zp[7]);

	mov	rax, QWORD PTR [r10+56]
; File z:\sources\lunor\repos\rougemeilland\palmtree.math.core.uint\palmtree.math.core.uint\pmc_inline_func.h

; 210  :         return (_addcarry_u64(carry, u, v, w));

	adc	rax, QWORD PTR [r8+56]
	mov	QWORD PTR [r9+56], rax
	setb	cl
; File z:\sources\lunor\repos\rougemeilland\palmtree.math.core.uint\palmtree.math.core.uint\pmc_add.c

; 182  :         up += 8;

	add	r10, 64					; 00000040H

; 183  :         vp += 8;

	add	r8, 64					; 00000040H

; 184  :         wp += 8;

	add	r9, 64					; 00000040H
$LN6@Add_Imp_us:

; 185  :     }
; 186  :     // この時点で未処理の桁は 8 ワード未満のはず
; 187  : 
; 188  :     // 未処理の桁が 4 ワード以上あるなら 4 ワード加算を行う。
; 189  :     if (v_count & 0x4)

	test	r11b, 4
	je	SHORT $LN7@Add_Imp_us
; File z:\sources\lunor\repos\rougemeilland\palmtree.math.core.uint\palmtree.math.core.uint\autogenerated_inline_func.h

; 3874 :     c = _ADD_UNIT(c, xp[0], yp[0], &zp[0]);

	mov	rax, QWORD PTR [r10]
; File z:\sources\lunor\repos\rougemeilland\palmtree.math.core.uint\palmtree.math.core.uint\pmc_inline_func.h

; 210  :         return (_addcarry_u64(carry, u, v, w));

	add	cl, -1
	adc	rax, QWORD PTR [r8]
	mov	QWORD PTR [r9], rax
; File z:\sources\lunor\repos\rougemeilland\palmtree.math.core.uint\palmtree.math.core.uint\autogenerated_inline_func.h

; 3875 :     c = _ADD_UNIT(c, xp[1], yp[1], &zp[1]);

	mov	rax, QWORD PTR [r10+8]
; File z:\sources\lunor\repos\rougemeilland\palmtree.math.core.uint\palmtree.math.core.uint\pmc_inline_func.h

; 210  :         return (_addcarry_u64(carry, u, v, w));

	adc	rax, QWORD PTR [r8+8]
	mov	QWORD PTR [r9+8], rax
; File z:\sources\lunor\repos\rougemeilland\palmtree.math.core.uint\palmtree.math.core.uint\autogenerated_inline_func.h

; 3876 :     c = _ADD_UNIT(c, xp[2], yp[2], &zp[2]);

	mov	rax, QWORD PTR [r10+16]
; File z:\sources\lunor\repos\rougemeilland\palmtree.math.core.uint\palmtree.math.core.uint\pmc_inline_func.h

; 210  :         return (_addcarry_u64(carry, u, v, w));

	adc	rax, QWORD PTR [r8+16]
	mov	QWORD PTR [r9+16], rax
; File z:\sources\lunor\repos\rougemeilland\palmtree.math.core.uint\palmtree.math.core.uint\autogenerated_inline_func.h

; 3877 :     c = _ADD_UNIT(c, xp[3], yp[3], &zp[3]);

	mov	rax, QWORD PTR [r10+24]
; File z:\sources\lunor\repos\rougemeilland\palmtree.math.core.uint\palmtree.math.core.uint\pmc_inline_func.h

; 210  :         return (_addcarry_u64(carry, u, v, w));

	adc	rax, QWORD PTR [r8+24]
	mov	QWORD PTR [r9+24], rax
	setb	cl
; File z:\sources\lunor\repos\rougemeilland\palmtree.math.core.uint\palmtree.math.core.uint\pmc_add.c

; 192  :         up += 4;

	add	r10, 32					; 00000020H

; 193  :         vp += 4;

	add	r8, 32					; 00000020H

; 194  :         wp += 4;

	add	r9, 32					; 00000020H
$LN7@Add_Imp_us:

; 195  :     }
; 196  :     // この時点で未処理の桁は 4 ワード未満のはず
; 197  : 
; 198  :     // 未処理の桁が 2 ワード以上あるなら 2 ワード加算を行う。
; 199  :     if (v_count & 0x2)

	test	r11b, 2
	je	SHORT $LN8@Add_Imp_us
; File z:\sources\lunor\repos\rougemeilland\palmtree.math.core.uint\palmtree.math.core.uint\autogenerated_inline_func.h

; 4330 :     c = _ADD_UNIT(c, xp[0], yp[0], &zp[0]);

	mov	rax, QWORD PTR [r10]
; File z:\sources\lunor\repos\rougemeilland\palmtree.math.core.uint\palmtree.math.core.uint\pmc_inline_func.h

; 210  :         return (_addcarry_u64(carry, u, v, w));

	add	cl, -1
	adc	rax, QWORD PTR [r8]
	mov	QWORD PTR [r9], rax
; File z:\sources\lunor\repos\rougemeilland\palmtree.math.core.uint\palmtree.math.core.uint\autogenerated_inline_func.h

; 4331 :     c = _ADD_UNIT(c, xp[1], yp[1], &zp[1]);

	mov	rax, QWORD PTR [r10+8]
; File z:\sources\lunor\repos\rougemeilland\palmtree.math.core.uint\palmtree.math.core.uint\pmc_inline_func.h

; 210  :         return (_addcarry_u64(carry, u, v, w));

	adc	rax, QWORD PTR [r8+8]
	mov	QWORD PTR [r9+8], rax
	setb	cl
; File z:\sources\lunor\repos\rougemeilland\palmtree.math.core.uint\palmtree.math.core.uint\pmc_add.c

; 202  :         up += 2;

	add	r10, 16

; 203  :         vp += 2;

	add	r8, 16

; 204  :         wp += 2;

	add	r9, 16
$LN8@Add_Imp_us:

; 205  :     }
; 206  :     // この時点で未処理の桁は 2 ワード未満のはず
; 207  : 
; 208  :     // 未処理の桁が 1 ワード以上あるなら 1 ワード加算を行う。
; 209  :     if (v_count & 0x1)

	test	r11b, 1
	je	SHORT $LN9@Add_Imp_us

; 210  :         c = _ADD_UNIT(c, *up++, *vp++, wp++);

	mov	rax, QWORD PTR [r10]
; File z:\sources\lunor\repos\rougemeilland\palmtree.math.core.uint\palmtree.math.core.uint\pmc_inline_func.h

; 210  :         return (_addcarry_u64(carry, u, v, w));

	add	cl, -1
	adc	rax, QWORD PTR [r8]
	mov	QWORD PTR [r9], rax
	setb	cl
; File z:\sources\lunor\repos\rougemeilland\palmtree.math.core.uint\palmtree.math.core.uint\pmc_add.c

; 210  :         c = _ADD_UNIT(c, *up++, *vp++, wp++);

	add	r10, 8
	add	r9, 8
$LN9@Add_Imp_us:

; 211  : 
; 212  :     // 残りの桁の繰り上がりを計算し、復帰する。
; 213  :     return (DoCarry(c, up, u_count - v_count, wp, w_count - v_count));

	mov	rax, QWORD PTR w_count$[rsp]
	sub	rbx, r11
	sub	rax, r11
	mov	r8, rbx
	mov	rdx, r10
	mov	QWORD PTR w_buf$[rsp], rax

; 214  : }

	mov	rbx, QWORD PTR [rsp+64]
	add	rsp, 48					; 00000030H
	pop	rdi

; 211  : 
; 212  :     // 残りの桁の繰り上がりを計算し、復帰する。
; 213  :     return (DoCarry(c, up, u_count - v_count, wp, w_count - v_count));

	jmp	DoCarry
Add_Imp_using_ADC ENDP
_TEXT	ENDS
; Function compile flags: /Ogtpy
; File z:\sources\lunor\repos\rougemeilland\palmtree.math.core.uint\palmtree.math.core.uint\pmc_add.c
; File z:\sources\lunor\repos\rougemeilland\palmtree.math.core.uint\palmtree.math.core.uint\pmc_inline_func.h
; File z:\sources\lunor\repos\rougemeilland\palmtree.math.core.uint\palmtree.math.core.uint\pmc_add.c
; File z:\sources\lunor\repos\rougemeilland\palmtree.math.core.uint\palmtree.math.core.uint\pmc_inline_func.h
; File z:\sources\lunor\repos\rougemeilland\palmtree.math.core.uint\palmtree.math.core.uint\pmc_add.c
; File z:\sources\lunor\repos\rougemeilland\palmtree.math.core.uint\palmtree.math.core.uint\pmc_inline_func.h
; File z:\sources\lunor\repos\rougemeilland\palmtree.math.core.uint\palmtree.math.core.uint\pmc_add.c
; File z:\sources\lunor\repos\rougemeilland\palmtree.math.core.uint\palmtree.math.core.uint\pmc_inline_func.h
; File z:\sources\lunor\repos\rougemeilland\palmtree.math.core.uint\palmtree.math.core.uint\pmc_add.c
; File z:\sources\lunor\repos\rougemeilland\palmtree.math.core.uint\palmtree.math.core.uint\pmc_inline_func.h
; File z:\sources\lunor\repos\rougemeilland\palmtree.math.core.uint\palmtree.math.core.uint\pmc_add.c
;	COMDAT Add_X_2W
_TEXT	SEGMENT
u_buf$ = 8
u_count$ = 16
v_hi$ = 24
v_lo$ = 32
w_buf$ = 40
w_count$ = 48
Add_X_2W PROC						; COMDAT

; 100  :     __UNIT_TYPE* up = u_buf;
; 101  :     __UNIT_TYPE* wp = w_buf;

	mov	rax, QWORD PTR [rcx]
	mov	r11, rdx
	mov	r10, r9
	mov	r9, QWORD PTR w_buf$[rsp]
	mov	rdx, rcx

; 102  :     char c;
; 103  : 
; 104  :     if (u_count < 2)

	cmp	r11, 2
	jae	SHORT $LN2@Add_X_2W
; File z:\sources\lunor\repos\rougemeilland\palmtree.math.core.uint\palmtree.math.core.uint\pmc_inline_func.h

; 210  :         return (_addcarry_u64(carry, u, v, w));

	add	rax, r10
	mov	QWORD PTR [r9], rax
	adc	r8, 0
	mov	QWORD PTR [r9+8], r8
	setb	al
; File z:\sources\lunor\repos\rougemeilland\palmtree.math.core.uint\palmtree.math.core.uint\pmc_add.c

; 115  :         if (c)

	test	al, al
	je	SHORT $LN4@Add_X_2W

; 116  :             wp[2] = 1;

	mov	QWORD PTR [r9+16], 1
$LN4@Add_X_2W:

; 117  : 
; 118  :         // 正常復帰する。
; 119  :         return (PMC_STATUS_OK);

	xor	eax, eax

; 135  :     }
; 136  : }

	ret	0
$LN2@Add_X_2W:
; File z:\sources\lunor\repos\rougemeilland\palmtree.math.core.uint\palmtree.math.core.uint\pmc_inline_func.h

; 210  :         return (_addcarry_u64(carry, u, v, w));

	add	rax, r10
	mov	QWORD PTR [r9], rax
; File z:\sources\lunor\repos\rougemeilland\palmtree.math.core.uint\palmtree.math.core.uint\pmc_add.c

; 129  :         c = _ADD_UNIT(c, *up++, v_hi, wp++);

	mov	rax, QWORD PTR [rcx+8]
; File z:\sources\lunor\repos\rougemeilland\palmtree.math.core.uint\palmtree.math.core.uint\pmc_inline_func.h

; 210  :         return (_addcarry_u64(carry, u, v, w));

	adc	rax, r8
; File z:\sources\lunor\repos\rougemeilland\palmtree.math.core.uint\palmtree.math.core.uint\pmc_add.c

; 130  :         u_count -= 2;

	lea	r8, QWORD PTR [r11-2]
; File z:\sources\lunor\repos\rougemeilland\palmtree.math.core.uint\palmtree.math.core.uint\pmc_inline_func.h

; 210  :         return (_addcarry_u64(carry, u, v, w));

	mov	QWORD PTR [r9+8], rax
; File z:\sources\lunor\repos\rougemeilland\palmtree.math.core.uint\palmtree.math.core.uint\pmc_add.c

; 131  :         w_count -= 2;

	mov	rax, QWORD PTR w_count$[rsp]
; File z:\sources\lunor\repos\rougemeilland\palmtree.math.core.uint\palmtree.math.core.uint\pmc_inline_func.h

; 210  :         return (_addcarry_u64(carry, u, v, w));

	setb	cl
; File z:\sources\lunor\repos\rougemeilland\palmtree.math.core.uint\palmtree.math.core.uint\pmc_add.c

; 131  :         w_count -= 2;

	add	rax, -2
	add	r9, 16
	add	rdx, 16

; 132  : 
; 133  :         // 残りの桁の繰り上がりを計算し、復帰する。
; 134  :         return (DoCarry(c, up, u_count, wp, w_count));

	mov	QWORD PTR w_buf$[rsp], rax
	jmp	DoCarry
Add_X_2W ENDP
_TEXT	ENDS
; Function compile flags: /Ogtpy
; File z:\sources\lunor\repos\rougemeilland\palmtree.math.core.uint\palmtree.math.core.uint\pmc_add.c
; File z:\sources\lunor\repos\rougemeilland\palmtree.math.core.uint\palmtree.math.core.uint\pmc_inline_func.h
; File z:\sources\lunor\repos\rougemeilland\palmtree.math.core.uint\palmtree.math.core.uint\pmc_add.c
; File z:\sources\lunor\repos\rougemeilland\palmtree.math.core.uint\palmtree.math.core.uint\pmc_inline_func.h
; File z:\sources\lunor\repos\rougemeilland\palmtree.math.core.uint\palmtree.math.core.uint\pmc_add.c
; File z:\sources\lunor\repos\rougemeilland\palmtree.math.core.uint\palmtree.math.core.uint\pmc_inline_func.h
; File z:\sources\lunor\repos\rougemeilland\palmtree.math.core.uint\palmtree.math.core.uint\pmc_add.c
;	COMDAT Add_X_1W
_TEXT	SEGMENT
u_ptr$ = 8
u_count$ = 16
v$ = 24
w_ptr$ = 32
w_count$ = 40
Add_X_1W PROC						; COMDAT

; 87   :     char c;
; 88   : 
; 89   :     // 最下桁の加算を行う
; 90   :     c = _ADD_UNIT(0, *u_ptr++, v, w_ptr++);

	mov	rax, QWORD PTR [rcx]
	mov	r10, rcx
; File z:\sources\lunor\repos\rougemeilland\palmtree.math.core.uint\palmtree.math.core.uint\pmc_inline_func.h

; 210  :         return (_addcarry_u64(carry, u, v, w));

	add	rax, r8
; File z:\sources\lunor\repos\rougemeilland\palmtree.math.core.uint\palmtree.math.core.uint\pmc_add.c

; 91   :     --u_count;

	lea	r8, QWORD PTR [rdx-1]
; File z:\sources\lunor\repos\rougemeilland\palmtree.math.core.uint\palmtree.math.core.uint\pmc_inline_func.h

; 210  :         return (_addcarry_u64(carry, u, v, w));

	mov	QWORD PTR [r9], rax
; File z:\sources\lunor\repos\rougemeilland\palmtree.math.core.uint\palmtree.math.core.uint\pmc_add.c

; 92   :     --w_count;

	mov	rax, QWORD PTR w_count$[rsp]
; File z:\sources\lunor\repos\rougemeilland\palmtree.math.core.uint\palmtree.math.core.uint\pmc_inline_func.h

; 210  :         return (_addcarry_u64(carry, u, v, w));

	setb	cl
; File z:\sources\lunor\repos\rougemeilland\palmtree.math.core.uint\palmtree.math.core.uint\pmc_add.c

; 92   :     --w_count;

	dec	rax
	lea	rdx, QWORD PTR [r10+8]
	add	r9, 8

; 93   : 
; 94   :     // 残りの桁の繰上りを行い復帰する。
; 95   :     return (DoCarry(c, u_ptr, u_count, w_ptr, w_count));

	mov	QWORD PTR w_count$[rsp], rax
	jmp	DoCarry
Add_X_1W ENDP
_TEXT	ENDS
; Function compile flags: /Ogtpy
; File z:\sources\lunor\repos\rougemeilland\palmtree.math.core.uint\palmtree.math.core.uint\pmc_add.c
; File z:\sources\lunor\repos\rougemeilland\palmtree.math.core.uint\palmtree.math.core.uint\pmc_inline_func.h
; File z:\sources\lunor\repos\rougemeilland\palmtree.math.core.uint\palmtree.math.core.uint\pmc_add.c
;	COMDAT DoCarry
_TEXT	SEGMENT
c$ = 8
u_ptr$ = 16
u_count$ = 24
w_ptr$ = 32
w_count$ = 40
DoCarry	PROC						; COMDAT

; 35   :     // 繰り上がりを続く限り行う
; 36   :     for (;;)
; 37   :     {
; 38   :         if (u_count <= 0)

	mov	r10, QWORD PTR w_count$[rsp]
	test	r8, r8
	je	SHORT $LN18@DoCarry
	npad	6
$LL2@DoCarry:

; 53   :             }
; 54   : 
; 55   :             // u の最上位に達してしまった場合はいずれにしろループを中断して正常復帰する。
; 56   : 
; 57   :             return (PMC_STATUS_OK);
; 58   :         }
; 59   :         else if (c)

	test	cl, cl
	je	SHORT $LN17@DoCarry

; 64   :             c = _ADD_UNIT(c, *u_ptr++, 0, w_ptr++);

	mov	rax, QWORD PTR [rdx]
; File z:\sources\lunor\repos\rougemeilland\palmtree.math.core.uint\palmtree.math.core.uint\pmc_inline_func.h

; 210  :         return (_addcarry_u64(carry, u, v, w));

	add	cl, -1
	adc	rax, 0
	mov	QWORD PTR [r9], rax
	setb	cl
; File z:\sources\lunor\repos\rougemeilland\palmtree.math.core.uint\palmtree.math.core.uint\pmc_add.c

; 64   :             c = _ADD_UNIT(c, *u_ptr++, 0, w_ptr++);

	add	rdx, 8
	add	r9, 8

; 65   :             --u_count;
; 66   :             --w_count;

	dec	r10
	sub	r8, 1
	jne	SHORT $LL2@DoCarry
$LN18@DoCarry:

; 39   :         {
; 40   :             // u の最上位まで達してしまった場合
; 41   : 
; 42   :             if (c)

	test	cl, cl
	je	SHORT $LN6@DoCarry

; 43   :             {
; 44   :                 // かつそれでも繰り上がりを行う必要がある場合
; 45   :                 if (w_count <= 0)

	test	r10, r10
	jne	SHORT $LN10@DoCarry

; 46   :                 {
; 47   :                     // しかし w がもう終端に達してしまった場合
; 48   : 
; 49   :                     // w のバッファはこの余裕を見込んでいるのでこのルートには到達しないはず。
; 50   :                     return (PMC_STATUS_INTERNAL_ERROR);

	mov	eax, -256				; ffffffffffffff00H

; 80   :         }
; 81   :     }
; 82   : }

	ret	0
$LN17@DoCarry:

; 67   :         }
; 68   :         else
; 69   :         {
; 70   :             // u の最上位に達しておらず、かつキャリーが立っていない場合
; 71   : 
; 72   :             // 繰り上がりを中断し、u の残りのデータをzにそのまま複写し、正常復帰する。
; 73   :             while (u_count > 0)

	test	r8, r8
	je	SHORT $LN6@DoCarry
	sub	rdx, r9
	npad	4
$LL5@DoCarry:

; 74   :             {
; 75   :                 *w_ptr++ = *u_ptr++;

	mov	rax, QWORD PTR [rdx+r9]
	mov	QWORD PTR [r9], rax
	lea	r9, QWORD PTR [r9+8]

; 76   :                 --u_count;

	sub	r8, 1
	jne	SHORT $LL5@DoCarry

; 77   :                 --w_count;
; 78   :             }
; 79   :             return (PMC_STATUS_OK);

	xor	eax, eax

; 80   :         }
; 81   :     }
; 82   : }

	ret	0
$LN10@DoCarry:

; 51   :                 }
; 52   :                 *w_ptr = 1;

	mov	QWORD PTR [r9], 1
$LN6@DoCarry:

; 77   :                 --w_count;
; 78   :             }
; 79   :             return (PMC_STATUS_OK);

	xor	eax, eax

; 80   :         }
; 81   :     }
; 82   : }

	ret	0
DoCarry	ENDP
_TEXT	ENDS
; Function compile flags: /Ogtpy
; File z:\sources\lunor\repos\rougemeilland\palmtree.math.core.uint\palmtree.math.core.uint\autogenerated_inline_func.h
; File z:\sources\lunor\repos\rougemeilland\palmtree.math.core.uint\palmtree.math.core.uint\pmc_inline_func.h
; File z:\sources\lunor\repos\rougemeilland\palmtree.math.core.uint\palmtree.math.core.uint\autogenerated_inline_func.h
; File z:\sources\lunor\repos\rougemeilland\palmtree.math.core.uint\palmtree.math.core.uint\pmc_inline_func.h
; File z:\sources\lunor\repos\rougemeilland\palmtree.math.core.uint\palmtree.math.core.uint\autogenerated_inline_func.h
;	COMDAT _ADD_2WORDS_ADCX
_TEXT	SEGMENT
c$ = 8
xp$ = 16
yp$ = 24
zp$ = 32
_ADD_2WORDS_ADCX PROC					; COMDAT

; 4372 : #ifdef _MSC_VER
; 4373 :     c = _ADDX_UNIT(c, xp[0], yp[0], &zp[0]);

	mov	rax, QWORD PTR [rdx]
; File z:\sources\lunor\repos\rougemeilland\palmtree.math.core.uint\palmtree.math.core.uint\pmc_inline_func.h

; 238  :         return (_addcarryx_u64(carry, u, v, w));

	add	cl, -1
	adcx	rax, QWORD PTR [r8]
	mov	QWORD PTR [r9], rax
; File z:\sources\lunor\repos\rougemeilland\palmtree.math.core.uint\palmtree.math.core.uint\autogenerated_inline_func.h

; 4374 :     c = _ADDX_UNIT(c, xp[1], yp[1], &zp[1]);

	mov	rcx, QWORD PTR [rdx+8]
; File z:\sources\lunor\repos\rougemeilland\palmtree.math.core.uint\palmtree.math.core.uint\pmc_inline_func.h

; 238  :         return (_addcarryx_u64(carry, u, v, w));

	adcx	rcx, QWORD PTR [r8+8]
	mov	QWORD PTR [r9+8], rcx
	setb	al
; File z:\sources\lunor\repos\rougemeilland\palmtree.math.core.uint\palmtree.math.core.uint\autogenerated_inline_func.h

; 4411 : }

	ret	0
_ADD_2WORDS_ADCX ENDP
_TEXT	ENDS
; Function compile flags: /Ogtpy
; File z:\sources\lunor\repos\rougemeilland\palmtree.math.core.uint\palmtree.math.core.uint\autogenerated_inline_func.h
; File z:\sources\lunor\repos\rougemeilland\palmtree.math.core.uint\palmtree.math.core.uint\pmc_inline_func.h
; File z:\sources\lunor\repos\rougemeilland\palmtree.math.core.uint\palmtree.math.core.uint\autogenerated_inline_func.h
; File z:\sources\lunor\repos\rougemeilland\palmtree.math.core.uint\palmtree.math.core.uint\pmc_inline_func.h
; File z:\sources\lunor\repos\rougemeilland\palmtree.math.core.uint\palmtree.math.core.uint\autogenerated_inline_func.h
;	COMDAT _ADD_2WORDS_ADC
_TEXT	SEGMENT
c$ = 8
xp$ = 16
yp$ = 24
zp$ = 32
_ADD_2WORDS_ADC PROC					; COMDAT

; 4329 : #ifdef _MSC_VER
; 4330 :     c = _ADD_UNIT(c, xp[0], yp[0], &zp[0]);

	mov	rax, QWORD PTR [rdx]
; File z:\sources\lunor\repos\rougemeilland\palmtree.math.core.uint\palmtree.math.core.uint\pmc_inline_func.h

; 210  :         return (_addcarry_u64(carry, u, v, w));

	add	cl, -1
	adc	rax, QWORD PTR [r8]
	mov	QWORD PTR [r9], rax
; File z:\sources\lunor\repos\rougemeilland\palmtree.math.core.uint\palmtree.math.core.uint\autogenerated_inline_func.h

; 4331 :     c = _ADD_UNIT(c, xp[1], yp[1], &zp[1]);

	mov	rcx, QWORD PTR [rdx+8]
; File z:\sources\lunor\repos\rougemeilland\palmtree.math.core.uint\palmtree.math.core.uint\pmc_inline_func.h

; 210  :         return (_addcarry_u64(carry, u, v, w));

	adc	rcx, QWORD PTR [r8+8]
	mov	QWORD PTR [r9+8], rcx
	setb	al
; File z:\sources\lunor\repos\rougemeilland\palmtree.math.core.uint\palmtree.math.core.uint\autogenerated_inline_func.h

; 4368 : }

	ret	0
_ADD_2WORDS_ADC ENDP
_TEXT	ENDS
; Function compile flags: /Ogtpy
; File z:\sources\lunor\repos\rougemeilland\palmtree.math.core.uint\palmtree.math.core.uint\autogenerated_inline_func.h
; File z:\sources\lunor\repos\rougemeilland\palmtree.math.core.uint\palmtree.math.core.uint\pmc_inline_func.h
; File z:\sources\lunor\repos\rougemeilland\palmtree.math.core.uint\palmtree.math.core.uint\autogenerated_inline_func.h
; File z:\sources\lunor\repos\rougemeilland\palmtree.math.core.uint\palmtree.math.core.uint\pmc_inline_func.h
; File z:\sources\lunor\repos\rougemeilland\palmtree.math.core.uint\palmtree.math.core.uint\autogenerated_inline_func.h
; File z:\sources\lunor\repos\rougemeilland\palmtree.math.core.uint\palmtree.math.core.uint\pmc_inline_func.h
; File z:\sources\lunor\repos\rougemeilland\palmtree.math.core.uint\palmtree.math.core.uint\autogenerated_inline_func.h
; File z:\sources\lunor\repos\rougemeilland\palmtree.math.core.uint\palmtree.math.core.uint\pmc_inline_func.h
; File z:\sources\lunor\repos\rougemeilland\palmtree.math.core.uint\palmtree.math.core.uint\autogenerated_inline_func.h
;	COMDAT _ADD_4WORDS_ADCX
_TEXT	SEGMENT
c$ = 8
xp$ = 16
yp$ = 24
zp$ = 32
_ADD_4WORDS_ADCX PROC					; COMDAT

; 3930 : #ifdef _MSC_VER
; 3931 :     c = _ADDX_UNIT(c, xp[0], yp[0], &zp[0]);

	mov	rax, QWORD PTR [rdx]
; File z:\sources\lunor\repos\rougemeilland\palmtree.math.core.uint\palmtree.math.core.uint\pmc_inline_func.h

; 238  :         return (_addcarryx_u64(carry, u, v, w));

	add	cl, -1
	adcx	rax, QWORD PTR [r8]
	mov	QWORD PTR [r9], rax
; File z:\sources\lunor\repos\rougemeilland\palmtree.math.core.uint\palmtree.math.core.uint\autogenerated_inline_func.h

; 3932 :     c = _ADDX_UNIT(c, xp[1], yp[1], &zp[1]);

	mov	rax, QWORD PTR [rdx+8]
; File z:\sources\lunor\repos\rougemeilland\palmtree.math.core.uint\palmtree.math.core.uint\pmc_inline_func.h

; 238  :         return (_addcarryx_u64(carry, u, v, w));

	adcx	rax, QWORD PTR [r8+8]
	mov	QWORD PTR [r9+8], rax
; File z:\sources\lunor\repos\rougemeilland\palmtree.math.core.uint\palmtree.math.core.uint\autogenerated_inline_func.h

; 3933 :     c = _ADDX_UNIT(c, xp[2], yp[2], &zp[2]);

	mov	rax, QWORD PTR [rdx+16]
; File z:\sources\lunor\repos\rougemeilland\palmtree.math.core.uint\palmtree.math.core.uint\pmc_inline_func.h

; 238  :         return (_addcarryx_u64(carry, u, v, w));

	adcx	rax, QWORD PTR [r8+16]
	mov	QWORD PTR [r9+16], rax
; File z:\sources\lunor\repos\rougemeilland\palmtree.math.core.uint\palmtree.math.core.uint\autogenerated_inline_func.h

; 3934 :     c = _ADDX_UNIT(c, xp[3], yp[3], &zp[3]);

	mov	rcx, QWORD PTR [rdx+24]
; File z:\sources\lunor\repos\rougemeilland\palmtree.math.core.uint\palmtree.math.core.uint\pmc_inline_func.h

; 238  :         return (_addcarryx_u64(carry, u, v, w));

	adcx	rcx, QWORD PTR [r8+24]
	mov	QWORD PTR [r9+24], rcx
	setb	al
; File z:\sources\lunor\repos\rougemeilland\palmtree.math.core.uint\palmtree.math.core.uint\autogenerated_inline_func.h

; 3983 : }

	ret	0
_ADD_4WORDS_ADCX ENDP
_TEXT	ENDS
; Function compile flags: /Ogtpy
; File z:\sources\lunor\repos\rougemeilland\palmtree.math.core.uint\palmtree.math.core.uint\autogenerated_inline_func.h
; File z:\sources\lunor\repos\rougemeilland\palmtree.math.core.uint\palmtree.math.core.uint\pmc_inline_func.h
; File z:\sources\lunor\repos\rougemeilland\palmtree.math.core.uint\palmtree.math.core.uint\autogenerated_inline_func.h
; File z:\sources\lunor\repos\rougemeilland\palmtree.math.core.uint\palmtree.math.core.uint\pmc_inline_func.h
; File z:\sources\lunor\repos\rougemeilland\palmtree.math.core.uint\palmtree.math.core.uint\autogenerated_inline_func.h
; File z:\sources\lunor\repos\rougemeilland\palmtree.math.core.uint\palmtree.math.core.uint\pmc_inline_func.h
; File z:\sources\lunor\repos\rougemeilland\palmtree.math.core.uint\palmtree.math.core.uint\autogenerated_inline_func.h
; File z:\sources\lunor\repos\rougemeilland\palmtree.math.core.uint\palmtree.math.core.uint\pmc_inline_func.h
; File z:\sources\lunor\repos\rougemeilland\palmtree.math.core.uint\palmtree.math.core.uint\autogenerated_inline_func.h
;	COMDAT _ADD_4WORDS_ADC
_TEXT	SEGMENT
c$ = 8
xp$ = 16
yp$ = 24
zp$ = 32
_ADD_4WORDS_ADC PROC					; COMDAT

; 3873 : #ifdef _MSC_VER
; 3874 :     c = _ADD_UNIT(c, xp[0], yp[0], &zp[0]);

	mov	rax, QWORD PTR [rdx]
; File z:\sources\lunor\repos\rougemeilland\palmtree.math.core.uint\palmtree.math.core.uint\pmc_inline_func.h

; 210  :         return (_addcarry_u64(carry, u, v, w));

	add	cl, -1
	adc	rax, QWORD PTR [r8]
	mov	QWORD PTR [r9], rax
; File z:\sources\lunor\repos\rougemeilland\palmtree.math.core.uint\palmtree.math.core.uint\autogenerated_inline_func.h

; 3875 :     c = _ADD_UNIT(c, xp[1], yp[1], &zp[1]);

	mov	rax, QWORD PTR [rdx+8]
; File z:\sources\lunor\repos\rougemeilland\palmtree.math.core.uint\palmtree.math.core.uint\pmc_inline_func.h

; 210  :         return (_addcarry_u64(carry, u, v, w));

	adc	rax, QWORD PTR [r8+8]
	mov	QWORD PTR [r9+8], rax
; File z:\sources\lunor\repos\rougemeilland\palmtree.math.core.uint\palmtree.math.core.uint\autogenerated_inline_func.h

; 3876 :     c = _ADD_UNIT(c, xp[2], yp[2], &zp[2]);

	mov	rax, QWORD PTR [rdx+16]
; File z:\sources\lunor\repos\rougemeilland\palmtree.math.core.uint\palmtree.math.core.uint\pmc_inline_func.h

; 210  :         return (_addcarry_u64(carry, u, v, w));

	adc	rax, QWORD PTR [r8+16]
	mov	QWORD PTR [r9+16], rax
; File z:\sources\lunor\repos\rougemeilland\palmtree.math.core.uint\palmtree.math.core.uint\autogenerated_inline_func.h

; 3877 :     c = _ADD_UNIT(c, xp[3], yp[3], &zp[3]);

	mov	rcx, QWORD PTR [rdx+24]
; File z:\sources\lunor\repos\rougemeilland\palmtree.math.core.uint\palmtree.math.core.uint\pmc_inline_func.h

; 210  :         return (_addcarry_u64(carry, u, v, w));

	adc	rcx, QWORD PTR [r8+24]
	mov	QWORD PTR [r9+24], rcx
	setb	al
; File z:\sources\lunor\repos\rougemeilland\palmtree.math.core.uint\palmtree.math.core.uint\autogenerated_inline_func.h

; 3926 : }

	ret	0
_ADD_4WORDS_ADC ENDP
_TEXT	ENDS
; Function compile flags: /Ogtpy
; File z:\sources\lunor\repos\rougemeilland\palmtree.math.core.uint\palmtree.math.core.uint\autogenerated_inline_func.h
; File z:\sources\lunor\repos\rougemeilland\palmtree.math.core.uint\palmtree.math.core.uint\pmc_inline_func.h
; File z:\sources\lunor\repos\rougemeilland\palmtree.math.core.uint\palmtree.math.core.uint\autogenerated_inline_func.h
; File z:\sources\lunor\repos\rougemeilland\palmtree.math.core.uint\palmtree.math.core.uint\pmc_inline_func.h
; File z:\sources\lunor\repos\rougemeilland\palmtree.math.core.uint\palmtree.math.core.uint\autogenerated_inline_func.h
; File z:\sources\lunor\repos\rougemeilland\palmtree.math.core.uint\palmtree.math.core.uint\pmc_inline_func.h
; File z:\sources\lunor\repos\rougemeilland\palmtree.math.core.uint\palmtree.math.core.uint\autogenerated_inline_func.h
; File z:\sources\lunor\repos\rougemeilland\palmtree.math.core.uint\palmtree.math.core.uint\pmc_inline_func.h
; File z:\sources\lunor\repos\rougemeilland\palmtree.math.core.uint\palmtree.math.core.uint\autogenerated_inline_func.h
; File z:\sources\lunor\repos\rougemeilland\palmtree.math.core.uint\palmtree.math.core.uint\pmc_inline_func.h
; File z:\sources\lunor\repos\rougemeilland\palmtree.math.core.uint\palmtree.math.core.uint\autogenerated_inline_func.h
; File z:\sources\lunor\repos\rougemeilland\palmtree.math.core.uint\palmtree.math.core.uint\pmc_inline_func.h
; File z:\sources\lunor\repos\rougemeilland\palmtree.math.core.uint\palmtree.math.core.uint\autogenerated_inline_func.h
; File z:\sources\lunor\repos\rougemeilland\palmtree.math.core.uint\palmtree.math.core.uint\pmc_inline_func.h
; File z:\sources\lunor\repos\rougemeilland\palmtree.math.core.uint\palmtree.math.core.uint\autogenerated_inline_func.h
; File z:\sources\lunor\repos\rougemeilland\palmtree.math.core.uint\palmtree.math.core.uint\pmc_inline_func.h
; File z:\sources\lunor\repos\rougemeilland\palmtree.math.core.uint\palmtree.math.core.uint\autogenerated_inline_func.h
;	COMDAT _ADD_8WORDS_ADCX
_TEXT	SEGMENT
c$ = 8
xp$ = 16
yp$ = 24
zp$ = 32
_ADD_8WORDS_ADCX PROC					; COMDAT

; 3278 : #ifdef _MSC_VER
; 3279 :     c = _ADDX_UNIT(c, xp[0], yp[0], &zp[0]);

	mov	rax, QWORD PTR [rdx]
; File z:\sources\lunor\repos\rougemeilland\palmtree.math.core.uint\palmtree.math.core.uint\pmc_inline_func.h

; 238  :         return (_addcarryx_u64(carry, u, v, w));

	add	cl, -1
	adcx	rax, QWORD PTR [r8]
	mov	QWORD PTR [r9], rax
; File z:\sources\lunor\repos\rougemeilland\palmtree.math.core.uint\palmtree.math.core.uint\autogenerated_inline_func.h

; 3280 :     c = _ADDX_UNIT(c, xp[1], yp[1], &zp[1]);

	mov	rax, QWORD PTR [rdx+8]
; File z:\sources\lunor\repos\rougemeilland\palmtree.math.core.uint\palmtree.math.core.uint\pmc_inline_func.h

; 238  :         return (_addcarryx_u64(carry, u, v, w));

	adcx	rax, QWORD PTR [r8+8]
	mov	QWORD PTR [r9+8], rax
; File z:\sources\lunor\repos\rougemeilland\palmtree.math.core.uint\palmtree.math.core.uint\autogenerated_inline_func.h

; 3281 :     c = _ADDX_UNIT(c, xp[2], yp[2], &zp[2]);

	mov	rax, QWORD PTR [rdx+16]
; File z:\sources\lunor\repos\rougemeilland\palmtree.math.core.uint\palmtree.math.core.uint\pmc_inline_func.h

; 238  :         return (_addcarryx_u64(carry, u, v, w));

	adcx	rax, QWORD PTR [r8+16]
	mov	QWORD PTR [r9+16], rax
; File z:\sources\lunor\repos\rougemeilland\palmtree.math.core.uint\palmtree.math.core.uint\autogenerated_inline_func.h

; 3282 :     c = _ADDX_UNIT(c, xp[3], yp[3], &zp[3]);

	mov	rax, QWORD PTR [rdx+24]
; File z:\sources\lunor\repos\rougemeilland\palmtree.math.core.uint\palmtree.math.core.uint\pmc_inline_func.h

; 238  :         return (_addcarryx_u64(carry, u, v, w));

	adcx	rax, QWORD PTR [r8+24]
	mov	QWORD PTR [r9+24], rax
; File z:\sources\lunor\repos\rougemeilland\palmtree.math.core.uint\palmtree.math.core.uint\autogenerated_inline_func.h

; 3283 :     c = _ADDX_UNIT(c, xp[4], yp[4], &zp[4]);

	mov	rax, QWORD PTR [rdx+32]
; File z:\sources\lunor\repos\rougemeilland\palmtree.math.core.uint\palmtree.math.core.uint\pmc_inline_func.h

; 238  :         return (_addcarryx_u64(carry, u, v, w));

	adcx	rax, QWORD PTR [r8+32]
	mov	QWORD PTR [r9+32], rax
; File z:\sources\lunor\repos\rougemeilland\palmtree.math.core.uint\palmtree.math.core.uint\autogenerated_inline_func.h

; 3284 :     c = _ADDX_UNIT(c, xp[5], yp[5], &zp[5]);

	mov	rax, QWORD PTR [rdx+40]
; File z:\sources\lunor\repos\rougemeilland\palmtree.math.core.uint\palmtree.math.core.uint\pmc_inline_func.h

; 238  :         return (_addcarryx_u64(carry, u, v, w));

	adcx	rax, QWORD PTR [r8+40]
	mov	QWORD PTR [r9+40], rax
; File z:\sources\lunor\repos\rougemeilland\palmtree.math.core.uint\palmtree.math.core.uint\autogenerated_inline_func.h

; 3285 :     c = _ADDX_UNIT(c, xp[6], yp[6], &zp[6]);

	mov	rax, QWORD PTR [rdx+48]
; File z:\sources\lunor\repos\rougemeilland\palmtree.math.core.uint\palmtree.math.core.uint\pmc_inline_func.h

; 238  :         return (_addcarryx_u64(carry, u, v, w));

	adcx	rax, QWORD PTR [r8+48]
	mov	QWORD PTR [r9+48], rax
; File z:\sources\lunor\repos\rougemeilland\palmtree.math.core.uint\palmtree.math.core.uint\autogenerated_inline_func.h

; 3286 :     c = _ADDX_UNIT(c, xp[7], yp[7], &zp[7]);

	mov	rcx, QWORD PTR [rdx+56]
; File z:\sources\lunor\repos\rougemeilland\palmtree.math.core.uint\palmtree.math.core.uint\pmc_inline_func.h

; 238  :         return (_addcarryx_u64(carry, u, v, w));

	adcx	rcx, QWORD PTR [r8+56]
	mov	QWORD PTR [r9+56], rcx
	setb	al
; File z:\sources\lunor\repos\rougemeilland\palmtree.math.core.uint\palmtree.math.core.uint\autogenerated_inline_func.h

; 3359 : }

	ret	0
_ADD_8WORDS_ADCX ENDP
_TEXT	ENDS
; Function compile flags: /Ogtpy
; File z:\sources\lunor\repos\rougemeilland\palmtree.math.core.uint\palmtree.math.core.uint\autogenerated_inline_func.h
; File z:\sources\lunor\repos\rougemeilland\palmtree.math.core.uint\palmtree.math.core.uint\pmc_inline_func.h
; File z:\sources\lunor\repos\rougemeilland\palmtree.math.core.uint\palmtree.math.core.uint\autogenerated_inline_func.h
; File z:\sources\lunor\repos\rougemeilland\palmtree.math.core.uint\palmtree.math.core.uint\pmc_inline_func.h
; File z:\sources\lunor\repos\rougemeilland\palmtree.math.core.uint\palmtree.math.core.uint\autogenerated_inline_func.h
; File z:\sources\lunor\repos\rougemeilland\palmtree.math.core.uint\palmtree.math.core.uint\pmc_inline_func.h
; File z:\sources\lunor\repos\rougemeilland\palmtree.math.core.uint\palmtree.math.core.uint\autogenerated_inline_func.h
; File z:\sources\lunor\repos\rougemeilland\palmtree.math.core.uint\palmtree.math.core.uint\pmc_inline_func.h
; File z:\sources\lunor\repos\rougemeilland\palmtree.math.core.uint\palmtree.math.core.uint\autogenerated_inline_func.h
; File z:\sources\lunor\repos\rougemeilland\palmtree.math.core.uint\palmtree.math.core.uint\pmc_inline_func.h
; File z:\sources\lunor\repos\rougemeilland\palmtree.math.core.uint\palmtree.math.core.uint\autogenerated_inline_func.h
; File z:\sources\lunor\repos\rougemeilland\palmtree.math.core.uint\palmtree.math.core.uint\pmc_inline_func.h
; File z:\sources\lunor\repos\rougemeilland\palmtree.math.core.uint\palmtree.math.core.uint\autogenerated_inline_func.h
; File z:\sources\lunor\repos\rougemeilland\palmtree.math.core.uint\palmtree.math.core.uint\pmc_inline_func.h
; File z:\sources\lunor\repos\rougemeilland\palmtree.math.core.uint\palmtree.math.core.uint\autogenerated_inline_func.h
; File z:\sources\lunor\repos\rougemeilland\palmtree.math.core.uint\palmtree.math.core.uint\pmc_inline_func.h
; File z:\sources\lunor\repos\rougemeilland\palmtree.math.core.uint\palmtree.math.core.uint\autogenerated_inline_func.h
;	COMDAT _ADD_8WORDS_ADC
_TEXT	SEGMENT
c$ = 8
xp$ = 16
yp$ = 24
zp$ = 32
_ADD_8WORDS_ADC PROC					; COMDAT

; 3193 : #ifdef _MSC_VER
; 3194 :     c = _ADD_UNIT(c, xp[0], yp[0], &zp[0]);

	mov	rax, QWORD PTR [rdx]
; File z:\sources\lunor\repos\rougemeilland\palmtree.math.core.uint\palmtree.math.core.uint\pmc_inline_func.h

; 210  :         return (_addcarry_u64(carry, u, v, w));

	add	cl, -1
	adc	rax, QWORD PTR [r8]
	mov	QWORD PTR [r9], rax
; File z:\sources\lunor\repos\rougemeilland\palmtree.math.core.uint\palmtree.math.core.uint\autogenerated_inline_func.h

; 3195 :     c = _ADD_UNIT(c, xp[1], yp[1], &zp[1]);

	mov	rax, QWORD PTR [rdx+8]
; File z:\sources\lunor\repos\rougemeilland\palmtree.math.core.uint\palmtree.math.core.uint\pmc_inline_func.h

; 210  :         return (_addcarry_u64(carry, u, v, w));

	adc	rax, QWORD PTR [r8+8]
	mov	QWORD PTR [r9+8], rax
; File z:\sources\lunor\repos\rougemeilland\palmtree.math.core.uint\palmtree.math.core.uint\autogenerated_inline_func.h

; 3196 :     c = _ADD_UNIT(c, xp[2], yp[2], &zp[2]);

	mov	rax, QWORD PTR [rdx+16]
; File z:\sources\lunor\repos\rougemeilland\palmtree.math.core.uint\palmtree.math.core.uint\pmc_inline_func.h

; 210  :         return (_addcarry_u64(carry, u, v, w));

	adc	rax, QWORD PTR [r8+16]
	mov	QWORD PTR [r9+16], rax
; File z:\sources\lunor\repos\rougemeilland\palmtree.math.core.uint\palmtree.math.core.uint\autogenerated_inline_func.h

; 3197 :     c = _ADD_UNIT(c, xp[3], yp[3], &zp[3]);

	mov	rax, QWORD PTR [rdx+24]
; File z:\sources\lunor\repos\rougemeilland\palmtree.math.core.uint\palmtree.math.core.uint\pmc_inline_func.h

; 210  :         return (_addcarry_u64(carry, u, v, w));

	adc	rax, QWORD PTR [r8+24]
	mov	QWORD PTR [r9+24], rax
; File z:\sources\lunor\repos\rougemeilland\palmtree.math.core.uint\palmtree.math.core.uint\autogenerated_inline_func.h

; 3198 :     c = _ADD_UNIT(c, xp[4], yp[4], &zp[4]);

	mov	rax, QWORD PTR [rdx+32]
; File z:\sources\lunor\repos\rougemeilland\palmtree.math.core.uint\palmtree.math.core.uint\pmc_inline_func.h

; 210  :         return (_addcarry_u64(carry, u, v, w));

	adc	rax, QWORD PTR [r8+32]
	mov	QWORD PTR [r9+32], rax
; File z:\sources\lunor\repos\rougemeilland\palmtree.math.core.uint\palmtree.math.core.uint\autogenerated_inline_func.h

; 3199 :     c = _ADD_UNIT(c, xp[5], yp[5], &zp[5]);

	mov	rax, QWORD PTR [rdx+40]
; File z:\sources\lunor\repos\rougemeilland\palmtree.math.core.uint\palmtree.math.core.uint\pmc_inline_func.h

; 210  :         return (_addcarry_u64(carry, u, v, w));

	adc	rax, QWORD PTR [r8+40]
	mov	QWORD PTR [r9+40], rax
; File z:\sources\lunor\repos\rougemeilland\palmtree.math.core.uint\palmtree.math.core.uint\autogenerated_inline_func.h

; 3200 :     c = _ADD_UNIT(c, xp[6], yp[6], &zp[6]);

	mov	rax, QWORD PTR [rdx+48]
; File z:\sources\lunor\repos\rougemeilland\palmtree.math.core.uint\palmtree.math.core.uint\pmc_inline_func.h

; 210  :         return (_addcarry_u64(carry, u, v, w));

	adc	rax, QWORD PTR [r8+48]
	mov	QWORD PTR [r9+48], rax
; File z:\sources\lunor\repos\rougemeilland\palmtree.math.core.uint\palmtree.math.core.uint\autogenerated_inline_func.h

; 3201 :     c = _ADD_UNIT(c, xp[7], yp[7], &zp[7]);

	mov	rcx, QWORD PTR [rdx+56]
; File z:\sources\lunor\repos\rougemeilland\palmtree.math.core.uint\palmtree.math.core.uint\pmc_inline_func.h

; 210  :         return (_addcarry_u64(carry, u, v, w));

	adc	rcx, QWORD PTR [r8+56]
	mov	QWORD PTR [r9+56], rcx
	setb	al
; File z:\sources\lunor\repos\rougemeilland\palmtree.math.core.uint\palmtree.math.core.uint\autogenerated_inline_func.h

; 3274 : }

	ret	0
_ADD_8WORDS_ADC ENDP
_TEXT	ENDS
; Function compile flags: /Ogtpy
; File z:\sources\lunor\repos\rougemeilland\palmtree.math.core.uint\palmtree.math.core.uint\autogenerated_inline_func.h
; File z:\sources\lunor\repos\rougemeilland\palmtree.math.core.uint\palmtree.math.core.uint\pmc_inline_func.h
; File z:\sources\lunor\repos\rougemeilland\palmtree.math.core.uint\palmtree.math.core.uint\autogenerated_inline_func.h
; File z:\sources\lunor\repos\rougemeilland\palmtree.math.core.uint\palmtree.math.core.uint\pmc_inline_func.h
; File z:\sources\lunor\repos\rougemeilland\palmtree.math.core.uint\palmtree.math.core.uint\autogenerated_inline_func.h
; File z:\sources\lunor\repos\rougemeilland\palmtree.math.core.uint\palmtree.math.core.uint\pmc_inline_func.h
; File z:\sources\lunor\repos\rougemeilland\palmtree.math.core.uint\palmtree.math.core.uint\autogenerated_inline_func.h
; File z:\sources\lunor\repos\rougemeilland\palmtree.math.core.uint\palmtree.math.core.uint\pmc_inline_func.h
; File z:\sources\lunor\repos\rougemeilland\palmtree.math.core.uint\palmtree.math.core.uint\autogenerated_inline_func.h
; File z:\sources\lunor\repos\rougemeilland\palmtree.math.core.uint\palmtree.math.core.uint\pmc_inline_func.h
; File z:\sources\lunor\repos\rougemeilland\palmtree.math.core.uint\palmtree.math.core.uint\autogenerated_inline_func.h
; File z:\sources\lunor\repos\rougemeilland\palmtree.math.core.uint\palmtree.math.core.uint\pmc_inline_func.h
; File z:\sources\lunor\repos\rougemeilland\palmtree.math.core.uint\palmtree.math.core.uint\autogenerated_inline_func.h
; File z:\sources\lunor\repos\rougemeilland\palmtree.math.core.uint\palmtree.math.core.uint\pmc_inline_func.h
; File z:\sources\lunor\repos\rougemeilland\palmtree.math.core.uint\palmtree.math.core.uint\autogenerated_inline_func.h
; File z:\sources\lunor\repos\rougemeilland\palmtree.math.core.uint\palmtree.math.core.uint\pmc_inline_func.h
; File z:\sources\lunor\repos\rougemeilland\palmtree.math.core.uint\palmtree.math.core.uint\autogenerated_inline_func.h
; File z:\sources\lunor\repos\rougemeilland\palmtree.math.core.uint\palmtree.math.core.uint\pmc_inline_func.h
; File z:\sources\lunor\repos\rougemeilland\palmtree.math.core.uint\palmtree.math.core.uint\autogenerated_inline_func.h
; File z:\sources\lunor\repos\rougemeilland\palmtree.math.core.uint\palmtree.math.core.uint\pmc_inline_func.h
; File z:\sources\lunor\repos\rougemeilland\palmtree.math.core.uint\palmtree.math.core.uint\autogenerated_inline_func.h
; File z:\sources\lunor\repos\rougemeilland\palmtree.math.core.uint\palmtree.math.core.uint\pmc_inline_func.h
; File z:\sources\lunor\repos\rougemeilland\palmtree.math.core.uint\palmtree.math.core.uint\autogenerated_inline_func.h
; File z:\sources\lunor\repos\rougemeilland\palmtree.math.core.uint\palmtree.math.core.uint\pmc_inline_func.h
; File z:\sources\lunor\repos\rougemeilland\palmtree.math.core.uint\palmtree.math.core.uint\autogenerated_inline_func.h
; File z:\sources\lunor\repos\rougemeilland\palmtree.math.core.uint\palmtree.math.core.uint\pmc_inline_func.h
; File z:\sources\lunor\repos\rougemeilland\palmtree.math.core.uint\palmtree.math.core.uint\autogenerated_inline_func.h
; File z:\sources\lunor\repos\rougemeilland\palmtree.math.core.uint\palmtree.math.core.uint\pmc_inline_func.h
; File z:\sources\lunor\repos\rougemeilland\palmtree.math.core.uint\palmtree.math.core.uint\autogenerated_inline_func.h
; File z:\sources\lunor\repos\rougemeilland\palmtree.math.core.uint\palmtree.math.core.uint\pmc_inline_func.h
; File z:\sources\lunor\repos\rougemeilland\palmtree.math.core.uint\palmtree.math.core.uint\autogenerated_inline_func.h
; File z:\sources\lunor\repos\rougemeilland\palmtree.math.core.uint\palmtree.math.core.uint\pmc_inline_func.h
; File z:\sources\lunor\repos\rougemeilland\palmtree.math.core.uint\palmtree.math.core.uint\autogenerated_inline_func.h
;	COMDAT _ADD_16WORDS_ADCX
_TEXT	SEGMENT
c$ = 8
xp$ = 16
yp$ = 24
zp$ = 32
_ADD_16WORDS_ADCX PROC					; COMDAT

; 2206 : #ifdef _MSC_VER
; 2207 :     c = _ADDX_UNIT(c, xp[0], yp[0], &zp[0]);

	mov	rax, QWORD PTR [rdx]
; File z:\sources\lunor\repos\rougemeilland\palmtree.math.core.uint\palmtree.math.core.uint\pmc_inline_func.h

; 238  :         return (_addcarryx_u64(carry, u, v, w));

	add	cl, -1
	adcx	rax, QWORD PTR [r8]
	mov	QWORD PTR [r9], rax
; File z:\sources\lunor\repos\rougemeilland\palmtree.math.core.uint\palmtree.math.core.uint\autogenerated_inline_func.h

; 2208 :     c = _ADDX_UNIT(c, xp[1], yp[1], &zp[1]);

	mov	rax, QWORD PTR [rdx+8]
; File z:\sources\lunor\repos\rougemeilland\palmtree.math.core.uint\palmtree.math.core.uint\pmc_inline_func.h

; 238  :         return (_addcarryx_u64(carry, u, v, w));

	adcx	rax, QWORD PTR [r8+8]
	mov	QWORD PTR [r9+8], rax
; File z:\sources\lunor\repos\rougemeilland\palmtree.math.core.uint\palmtree.math.core.uint\autogenerated_inline_func.h

; 2209 :     c = _ADDX_UNIT(c, xp[2], yp[2], &zp[2]);

	mov	rax, QWORD PTR [rdx+16]
; File z:\sources\lunor\repos\rougemeilland\palmtree.math.core.uint\palmtree.math.core.uint\pmc_inline_func.h

; 238  :         return (_addcarryx_u64(carry, u, v, w));

	adcx	rax, QWORD PTR [r8+16]
	mov	QWORD PTR [r9+16], rax
; File z:\sources\lunor\repos\rougemeilland\palmtree.math.core.uint\palmtree.math.core.uint\autogenerated_inline_func.h

; 2210 :     c = _ADDX_UNIT(c, xp[3], yp[3], &zp[3]);

	mov	rax, QWORD PTR [rdx+24]
; File z:\sources\lunor\repos\rougemeilland\palmtree.math.core.uint\palmtree.math.core.uint\pmc_inline_func.h

; 238  :         return (_addcarryx_u64(carry, u, v, w));

	adcx	rax, QWORD PTR [r8+24]
	mov	QWORD PTR [r9+24], rax
; File z:\sources\lunor\repos\rougemeilland\palmtree.math.core.uint\palmtree.math.core.uint\autogenerated_inline_func.h

; 2211 :     c = _ADDX_UNIT(c, xp[4], yp[4], &zp[4]);

	mov	rax, QWORD PTR [rdx+32]
; File z:\sources\lunor\repos\rougemeilland\palmtree.math.core.uint\palmtree.math.core.uint\pmc_inline_func.h

; 238  :         return (_addcarryx_u64(carry, u, v, w));

	adcx	rax, QWORD PTR [r8+32]
	mov	QWORD PTR [r9+32], rax
; File z:\sources\lunor\repos\rougemeilland\palmtree.math.core.uint\palmtree.math.core.uint\autogenerated_inline_func.h

; 2212 :     c = _ADDX_UNIT(c, xp[5], yp[5], &zp[5]);

	mov	rax, QWORD PTR [rdx+40]
; File z:\sources\lunor\repos\rougemeilland\palmtree.math.core.uint\palmtree.math.core.uint\pmc_inline_func.h

; 238  :         return (_addcarryx_u64(carry, u, v, w));

	adcx	rax, QWORD PTR [r8+40]
	mov	QWORD PTR [r9+40], rax
; File z:\sources\lunor\repos\rougemeilland\palmtree.math.core.uint\palmtree.math.core.uint\autogenerated_inline_func.h

; 2213 :     c = _ADDX_UNIT(c, xp[6], yp[6], &zp[6]);

	mov	rax, QWORD PTR [rdx+48]
; File z:\sources\lunor\repos\rougemeilland\palmtree.math.core.uint\palmtree.math.core.uint\pmc_inline_func.h

; 238  :         return (_addcarryx_u64(carry, u, v, w));

	adcx	rax, QWORD PTR [r8+48]
	mov	QWORD PTR [r9+48], rax
; File z:\sources\lunor\repos\rougemeilland\palmtree.math.core.uint\palmtree.math.core.uint\autogenerated_inline_func.h

; 2214 :     c = _ADDX_UNIT(c, xp[7], yp[7], &zp[7]);

	mov	rax, QWORD PTR [rdx+56]
; File z:\sources\lunor\repos\rougemeilland\palmtree.math.core.uint\palmtree.math.core.uint\pmc_inline_func.h

; 238  :         return (_addcarryx_u64(carry, u, v, w));

	adcx	rax, QWORD PTR [r8+56]
	mov	QWORD PTR [r9+56], rax
; File z:\sources\lunor\repos\rougemeilland\palmtree.math.core.uint\palmtree.math.core.uint\autogenerated_inline_func.h

; 2215 :     c = _ADDX_UNIT(c, xp[8], yp[8], &zp[8]);

	mov	rax, QWORD PTR [rdx+64]
; File z:\sources\lunor\repos\rougemeilland\palmtree.math.core.uint\palmtree.math.core.uint\pmc_inline_func.h

; 238  :         return (_addcarryx_u64(carry, u, v, w));

	adcx	rax, QWORD PTR [r8+64]
	mov	QWORD PTR [r9+64], rax
; File z:\sources\lunor\repos\rougemeilland\palmtree.math.core.uint\palmtree.math.core.uint\autogenerated_inline_func.h

; 2216 :     c = _ADDX_UNIT(c, xp[9], yp[9], &zp[9]);

	mov	rax, QWORD PTR [rdx+72]
; File z:\sources\lunor\repos\rougemeilland\palmtree.math.core.uint\palmtree.math.core.uint\pmc_inline_func.h

; 238  :         return (_addcarryx_u64(carry, u, v, w));

	adcx	rax, QWORD PTR [r8+72]
	mov	QWORD PTR [r9+72], rax
; File z:\sources\lunor\repos\rougemeilland\palmtree.math.core.uint\palmtree.math.core.uint\autogenerated_inline_func.h

; 2217 :     c = _ADDX_UNIT(c, xp[10], yp[10], &zp[10]);

	mov	rax, QWORD PTR [rdx+80]
; File z:\sources\lunor\repos\rougemeilland\palmtree.math.core.uint\palmtree.math.core.uint\pmc_inline_func.h

; 238  :         return (_addcarryx_u64(carry, u, v, w));

	adcx	rax, QWORD PTR [r8+80]
	mov	QWORD PTR [r9+80], rax
; File z:\sources\lunor\repos\rougemeilland\palmtree.math.core.uint\palmtree.math.core.uint\autogenerated_inline_func.h

; 2218 :     c = _ADDX_UNIT(c, xp[11], yp[11], &zp[11]);

	mov	rax, QWORD PTR [rdx+88]
; File z:\sources\lunor\repos\rougemeilland\palmtree.math.core.uint\palmtree.math.core.uint\pmc_inline_func.h

; 238  :         return (_addcarryx_u64(carry, u, v, w));

	adcx	rax, QWORD PTR [r8+88]
	mov	QWORD PTR [r9+88], rax
; File z:\sources\lunor\repos\rougemeilland\palmtree.math.core.uint\palmtree.math.core.uint\autogenerated_inline_func.h

; 2219 :     c = _ADDX_UNIT(c, xp[12], yp[12], &zp[12]);

	mov	rax, QWORD PTR [rdx+96]
; File z:\sources\lunor\repos\rougemeilland\palmtree.math.core.uint\palmtree.math.core.uint\pmc_inline_func.h

; 238  :         return (_addcarryx_u64(carry, u, v, w));

	adcx	rax, QWORD PTR [r8+96]
	mov	QWORD PTR [r9+96], rax
; File z:\sources\lunor\repos\rougemeilland\palmtree.math.core.uint\palmtree.math.core.uint\autogenerated_inline_func.h

; 2220 :     c = _ADDX_UNIT(c, xp[13], yp[13], &zp[13]);

	mov	rax, QWORD PTR [rdx+104]
; File z:\sources\lunor\repos\rougemeilland\palmtree.math.core.uint\palmtree.math.core.uint\pmc_inline_func.h

; 238  :         return (_addcarryx_u64(carry, u, v, w));

	adcx	rax, QWORD PTR [r8+104]
	mov	QWORD PTR [r9+104], rax
; File z:\sources\lunor\repos\rougemeilland\palmtree.math.core.uint\palmtree.math.core.uint\autogenerated_inline_func.h

; 2221 :     c = _ADDX_UNIT(c, xp[14], yp[14], &zp[14]);

	mov	rax, QWORD PTR [rdx+112]
; File z:\sources\lunor\repos\rougemeilland\palmtree.math.core.uint\palmtree.math.core.uint\pmc_inline_func.h

; 238  :         return (_addcarryx_u64(carry, u, v, w));

	adcx	rax, QWORD PTR [r8+112]
	mov	QWORD PTR [r9+112], rax
; File z:\sources\lunor\repos\rougemeilland\palmtree.math.core.uint\palmtree.math.core.uint\autogenerated_inline_func.h

; 2222 :     c = _ADDX_UNIT(c, xp[15], yp[15], &zp[15]);

	mov	rcx, QWORD PTR [rdx+120]
; File z:\sources\lunor\repos\rougemeilland\palmtree.math.core.uint\palmtree.math.core.uint\pmc_inline_func.h

; 238  :         return (_addcarryx_u64(carry, u, v, w));

	adcx	rcx, QWORD PTR [r8+120]
	mov	QWORD PTR [r9+120], rcx
	setb	al
; File z:\sources\lunor\repos\rougemeilland\palmtree.math.core.uint\palmtree.math.core.uint\autogenerated_inline_func.h

; 2343 : }

	ret	0
_ADD_16WORDS_ADCX ENDP
_TEXT	ENDS
; Function compile flags: /Ogtpy
; File z:\sources\lunor\repos\rougemeilland\palmtree.math.core.uint\palmtree.math.core.uint\autogenerated_inline_func.h
; File z:\sources\lunor\repos\rougemeilland\palmtree.math.core.uint\palmtree.math.core.uint\pmc_inline_func.h
; File z:\sources\lunor\repos\rougemeilland\palmtree.math.core.uint\palmtree.math.core.uint\autogenerated_inline_func.h
; File z:\sources\lunor\repos\rougemeilland\palmtree.math.core.uint\palmtree.math.core.uint\pmc_inline_func.h
; File z:\sources\lunor\repos\rougemeilland\palmtree.math.core.uint\palmtree.math.core.uint\autogenerated_inline_func.h
; File z:\sources\lunor\repos\rougemeilland\palmtree.math.core.uint\palmtree.math.core.uint\pmc_inline_func.h
; File z:\sources\lunor\repos\rougemeilland\palmtree.math.core.uint\palmtree.math.core.uint\autogenerated_inline_func.h
; File z:\sources\lunor\repos\rougemeilland\palmtree.math.core.uint\palmtree.math.core.uint\pmc_inline_func.h
; File z:\sources\lunor\repos\rougemeilland\palmtree.math.core.uint\palmtree.math.core.uint\autogenerated_inline_func.h
; File z:\sources\lunor\repos\rougemeilland\palmtree.math.core.uint\palmtree.math.core.uint\pmc_inline_func.h
; File z:\sources\lunor\repos\rougemeilland\palmtree.math.core.uint\palmtree.math.core.uint\autogenerated_inline_func.h
; File z:\sources\lunor\repos\rougemeilland\palmtree.math.core.uint\palmtree.math.core.uint\pmc_inline_func.h
; File z:\sources\lunor\repos\rougemeilland\palmtree.math.core.uint\palmtree.math.core.uint\autogenerated_inline_func.h
; File z:\sources\lunor\repos\rougemeilland\palmtree.math.core.uint\palmtree.math.core.uint\pmc_inline_func.h
; File z:\sources\lunor\repos\rougemeilland\palmtree.math.core.uint\palmtree.math.core.uint\autogenerated_inline_func.h
; File z:\sources\lunor\repos\rougemeilland\palmtree.math.core.uint\palmtree.math.core.uint\pmc_inline_func.h
; File z:\sources\lunor\repos\rougemeilland\palmtree.math.core.uint\palmtree.math.core.uint\autogenerated_inline_func.h
; File z:\sources\lunor\repos\rougemeilland\palmtree.math.core.uint\palmtree.math.core.uint\pmc_inline_func.h
; File z:\sources\lunor\repos\rougemeilland\palmtree.math.core.uint\palmtree.math.core.uint\autogenerated_inline_func.h
; File z:\sources\lunor\repos\rougemeilland\palmtree.math.core.uint\palmtree.math.core.uint\pmc_inline_func.h
; File z:\sources\lunor\repos\rougemeilland\palmtree.math.core.uint\palmtree.math.core.uint\autogenerated_inline_func.h
; File z:\sources\lunor\repos\rougemeilland\palmtree.math.core.uint\palmtree.math.core.uint\pmc_inline_func.h
; File z:\sources\lunor\repos\rougemeilland\palmtree.math.core.uint\palmtree.math.core.uint\autogenerated_inline_func.h
; File z:\sources\lunor\repos\rougemeilland\palmtree.math.core.uint\palmtree.math.core.uint\pmc_inline_func.h
; File z:\sources\lunor\repos\rougemeilland\palmtree.math.core.uint\palmtree.math.core.uint\autogenerated_inline_func.h
; File z:\sources\lunor\repos\rougemeilland\palmtree.math.core.uint\palmtree.math.core.uint\pmc_inline_func.h
; File z:\sources\lunor\repos\rougemeilland\palmtree.math.core.uint\palmtree.math.core.uint\autogenerated_inline_func.h
; File z:\sources\lunor\repos\rougemeilland\palmtree.math.core.uint\palmtree.math.core.uint\pmc_inline_func.h
; File z:\sources\lunor\repos\rougemeilland\palmtree.math.core.uint\palmtree.math.core.uint\autogenerated_inline_func.h
; File z:\sources\lunor\repos\rougemeilland\palmtree.math.core.uint\palmtree.math.core.uint\pmc_inline_func.h
; File z:\sources\lunor\repos\rougemeilland\palmtree.math.core.uint\palmtree.math.core.uint\autogenerated_inline_func.h
; File z:\sources\lunor\repos\rougemeilland\palmtree.math.core.uint\palmtree.math.core.uint\pmc_inline_func.h
; File z:\sources\lunor\repos\rougemeilland\palmtree.math.core.uint\palmtree.math.core.uint\autogenerated_inline_func.h
;	COMDAT _ADD_16WORDS_ADC
_TEXT	SEGMENT
c$ = 8
xp$ = 16
yp$ = 24
zp$ = 32
_ADD_16WORDS_ADC PROC					; COMDAT

; 2065 : #ifdef _MSC_VER
; 2066 :     c = _ADD_UNIT(c, xp[0], yp[0], &zp[0]);

	mov	rax, QWORD PTR [rdx]
; File z:\sources\lunor\repos\rougemeilland\palmtree.math.core.uint\palmtree.math.core.uint\pmc_inline_func.h

; 210  :         return (_addcarry_u64(carry, u, v, w));

	add	cl, -1
	adc	rax, QWORD PTR [r8]
	mov	QWORD PTR [r9], rax
; File z:\sources\lunor\repos\rougemeilland\palmtree.math.core.uint\palmtree.math.core.uint\autogenerated_inline_func.h

; 2067 :     c = _ADD_UNIT(c, xp[1], yp[1], &zp[1]);

	mov	rax, QWORD PTR [rdx+8]
; File z:\sources\lunor\repos\rougemeilland\palmtree.math.core.uint\palmtree.math.core.uint\pmc_inline_func.h

; 210  :         return (_addcarry_u64(carry, u, v, w));

	adc	rax, QWORD PTR [r8+8]
	mov	QWORD PTR [r9+8], rax
; File z:\sources\lunor\repos\rougemeilland\palmtree.math.core.uint\palmtree.math.core.uint\autogenerated_inline_func.h

; 2068 :     c = _ADD_UNIT(c, xp[2], yp[2], &zp[2]);

	mov	rax, QWORD PTR [rdx+16]
; File z:\sources\lunor\repos\rougemeilland\palmtree.math.core.uint\palmtree.math.core.uint\pmc_inline_func.h

; 210  :         return (_addcarry_u64(carry, u, v, w));

	adc	rax, QWORD PTR [r8+16]
	mov	QWORD PTR [r9+16], rax
; File z:\sources\lunor\repos\rougemeilland\palmtree.math.core.uint\palmtree.math.core.uint\autogenerated_inline_func.h

; 2069 :     c = _ADD_UNIT(c, xp[3], yp[3], &zp[3]);

	mov	rax, QWORD PTR [rdx+24]
; File z:\sources\lunor\repos\rougemeilland\palmtree.math.core.uint\palmtree.math.core.uint\pmc_inline_func.h

; 210  :         return (_addcarry_u64(carry, u, v, w));

	adc	rax, QWORD PTR [r8+24]
	mov	QWORD PTR [r9+24], rax
; File z:\sources\lunor\repos\rougemeilland\palmtree.math.core.uint\palmtree.math.core.uint\autogenerated_inline_func.h

; 2070 :     c = _ADD_UNIT(c, xp[4], yp[4], &zp[4]);

	mov	rax, QWORD PTR [rdx+32]
; File z:\sources\lunor\repos\rougemeilland\palmtree.math.core.uint\palmtree.math.core.uint\pmc_inline_func.h

; 210  :         return (_addcarry_u64(carry, u, v, w));

	adc	rax, QWORD PTR [r8+32]
	mov	QWORD PTR [r9+32], rax
; File z:\sources\lunor\repos\rougemeilland\palmtree.math.core.uint\palmtree.math.core.uint\autogenerated_inline_func.h

; 2071 :     c = _ADD_UNIT(c, xp[5], yp[5], &zp[5]);

	mov	rax, QWORD PTR [rdx+40]
; File z:\sources\lunor\repos\rougemeilland\palmtree.math.core.uint\palmtree.math.core.uint\pmc_inline_func.h

; 210  :         return (_addcarry_u64(carry, u, v, w));

	adc	rax, QWORD PTR [r8+40]
	mov	QWORD PTR [r9+40], rax
; File z:\sources\lunor\repos\rougemeilland\palmtree.math.core.uint\palmtree.math.core.uint\autogenerated_inline_func.h

; 2072 :     c = _ADD_UNIT(c, xp[6], yp[6], &zp[6]);

	mov	rax, QWORD PTR [rdx+48]
; File z:\sources\lunor\repos\rougemeilland\palmtree.math.core.uint\palmtree.math.core.uint\pmc_inline_func.h

; 210  :         return (_addcarry_u64(carry, u, v, w));

	adc	rax, QWORD PTR [r8+48]
	mov	QWORD PTR [r9+48], rax
; File z:\sources\lunor\repos\rougemeilland\palmtree.math.core.uint\palmtree.math.core.uint\autogenerated_inline_func.h

; 2073 :     c = _ADD_UNIT(c, xp[7], yp[7], &zp[7]);

	mov	rax, QWORD PTR [rdx+56]
; File z:\sources\lunor\repos\rougemeilland\palmtree.math.core.uint\palmtree.math.core.uint\pmc_inline_func.h

; 210  :         return (_addcarry_u64(carry, u, v, w));

	adc	rax, QWORD PTR [r8+56]
	mov	QWORD PTR [r9+56], rax
; File z:\sources\lunor\repos\rougemeilland\palmtree.math.core.uint\palmtree.math.core.uint\autogenerated_inline_func.h

; 2074 :     c = _ADD_UNIT(c, xp[8], yp[8], &zp[8]);

	mov	rax, QWORD PTR [rdx+64]
; File z:\sources\lunor\repos\rougemeilland\palmtree.math.core.uint\palmtree.math.core.uint\pmc_inline_func.h

; 210  :         return (_addcarry_u64(carry, u, v, w));

	adc	rax, QWORD PTR [r8+64]
	mov	QWORD PTR [r9+64], rax
; File z:\sources\lunor\repos\rougemeilland\palmtree.math.core.uint\palmtree.math.core.uint\autogenerated_inline_func.h

; 2075 :     c = _ADD_UNIT(c, xp[9], yp[9], &zp[9]);

	mov	rax, QWORD PTR [rdx+72]
; File z:\sources\lunor\repos\rougemeilland\palmtree.math.core.uint\palmtree.math.core.uint\pmc_inline_func.h

; 210  :         return (_addcarry_u64(carry, u, v, w));

	adc	rax, QWORD PTR [r8+72]
	mov	QWORD PTR [r9+72], rax
; File z:\sources\lunor\repos\rougemeilland\palmtree.math.core.uint\palmtree.math.core.uint\autogenerated_inline_func.h

; 2076 :     c = _ADD_UNIT(c, xp[10], yp[10], &zp[10]);

	mov	rax, QWORD PTR [rdx+80]
; File z:\sources\lunor\repos\rougemeilland\palmtree.math.core.uint\palmtree.math.core.uint\pmc_inline_func.h

; 210  :         return (_addcarry_u64(carry, u, v, w));

	adc	rax, QWORD PTR [r8+80]
	mov	QWORD PTR [r9+80], rax
; File z:\sources\lunor\repos\rougemeilland\palmtree.math.core.uint\palmtree.math.core.uint\autogenerated_inline_func.h

; 2077 :     c = _ADD_UNIT(c, xp[11], yp[11], &zp[11]);

	mov	rax, QWORD PTR [rdx+88]
; File z:\sources\lunor\repos\rougemeilland\palmtree.math.core.uint\palmtree.math.core.uint\pmc_inline_func.h

; 210  :         return (_addcarry_u64(carry, u, v, w));

	adc	rax, QWORD PTR [r8+88]
	mov	QWORD PTR [r9+88], rax
; File z:\sources\lunor\repos\rougemeilland\palmtree.math.core.uint\palmtree.math.core.uint\autogenerated_inline_func.h

; 2078 :     c = _ADD_UNIT(c, xp[12], yp[12], &zp[12]);

	mov	rax, QWORD PTR [rdx+96]
; File z:\sources\lunor\repos\rougemeilland\palmtree.math.core.uint\palmtree.math.core.uint\pmc_inline_func.h

; 210  :         return (_addcarry_u64(carry, u, v, w));

	adc	rax, QWORD PTR [r8+96]
	mov	QWORD PTR [r9+96], rax
; File z:\sources\lunor\repos\rougemeilland\palmtree.math.core.uint\palmtree.math.core.uint\autogenerated_inline_func.h

; 2079 :     c = _ADD_UNIT(c, xp[13], yp[13], &zp[13]);

	mov	rax, QWORD PTR [rdx+104]
; File z:\sources\lunor\repos\rougemeilland\palmtree.math.core.uint\palmtree.math.core.uint\pmc_inline_func.h

; 210  :         return (_addcarry_u64(carry, u, v, w));

	adc	rax, QWORD PTR [r8+104]
	mov	QWORD PTR [r9+104], rax
; File z:\sources\lunor\repos\rougemeilland\palmtree.math.core.uint\palmtree.math.core.uint\autogenerated_inline_func.h

; 2080 :     c = _ADD_UNIT(c, xp[14], yp[14], &zp[14]);

	mov	rax, QWORD PTR [rdx+112]
; File z:\sources\lunor\repos\rougemeilland\palmtree.math.core.uint\palmtree.math.core.uint\pmc_inline_func.h

; 210  :         return (_addcarry_u64(carry, u, v, w));

	adc	rax, QWORD PTR [r8+112]
	mov	QWORD PTR [r9+112], rax
; File z:\sources\lunor\repos\rougemeilland\palmtree.math.core.uint\palmtree.math.core.uint\autogenerated_inline_func.h

; 2081 :     c = _ADD_UNIT(c, xp[15], yp[15], &zp[15]);

	mov	rcx, QWORD PTR [rdx+120]
; File z:\sources\lunor\repos\rougemeilland\palmtree.math.core.uint\palmtree.math.core.uint\pmc_inline_func.h

; 210  :         return (_addcarry_u64(carry, u, v, w));

	adc	rcx, QWORD PTR [r8+120]
	mov	QWORD PTR [r9+120], rcx
	setb	al
; File z:\sources\lunor\repos\rougemeilland\palmtree.math.core.uint\palmtree.math.core.uint\autogenerated_inline_func.h

; 2202 : }

	ret	0
_ADD_16WORDS_ADC ENDP
_TEXT	ENDS
; Function compile flags: /Ogtpy
; File z:\sources\lunor\repos\rougemeilland\palmtree.math.core.uint\palmtree.math.core.uint\autogenerated_inline_func.h
; File z:\sources\lunor\repos\rougemeilland\palmtree.math.core.uint\palmtree.math.core.uint\pmc_inline_func.h
; File z:\sources\lunor\repos\rougemeilland\palmtree.math.core.uint\palmtree.math.core.uint\autogenerated_inline_func.h
; File z:\sources\lunor\repos\rougemeilland\palmtree.math.core.uint\palmtree.math.core.uint\pmc_inline_func.h
; File z:\sources\lunor\repos\rougemeilland\palmtree.math.core.uint\palmtree.math.core.uint\autogenerated_inline_func.h
; File z:\sources\lunor\repos\rougemeilland\palmtree.math.core.uint\palmtree.math.core.uint\pmc_inline_func.h
; File z:\sources\lunor\repos\rougemeilland\palmtree.math.core.uint\palmtree.math.core.uint\autogenerated_inline_func.h
; File z:\sources\lunor\repos\rougemeilland\palmtree.math.core.uint\palmtree.math.core.uint\pmc_inline_func.h
; File z:\sources\lunor\repos\rougemeilland\palmtree.math.core.uint\palmtree.math.core.uint\autogenerated_inline_func.h
; File z:\sources\lunor\repos\rougemeilland\palmtree.math.core.uint\palmtree.math.core.uint\pmc_inline_func.h
; File z:\sources\lunor\repos\rougemeilland\palmtree.math.core.uint\palmtree.math.core.uint\autogenerated_inline_func.h
; File z:\sources\lunor\repos\rougemeilland\palmtree.math.core.uint\palmtree.math.core.uint\pmc_inline_func.h
; File z:\sources\lunor\repos\rougemeilland\palmtree.math.core.uint\palmtree.math.core.uint\autogenerated_inline_func.h
; File z:\sources\lunor\repos\rougemeilland\palmtree.math.core.uint\palmtree.math.core.uint\pmc_inline_func.h
; File z:\sources\lunor\repos\rougemeilland\palmtree.math.core.uint\palmtree.math.core.uint\autogenerated_inline_func.h
; File z:\sources\lunor\repos\rougemeilland\palmtree.math.core.uint\palmtree.math.core.uint\pmc_inline_func.h
; File z:\sources\lunor\repos\rougemeilland\palmtree.math.core.uint\palmtree.math.core.uint\autogenerated_inline_func.h
; File z:\sources\lunor\repos\rougemeilland\palmtree.math.core.uint\palmtree.math.core.uint\pmc_inline_func.h
; File z:\sources\lunor\repos\rougemeilland\palmtree.math.core.uint\palmtree.math.core.uint\autogenerated_inline_func.h
; File z:\sources\lunor\repos\rougemeilland\palmtree.math.core.uint\palmtree.math.core.uint\pmc_inline_func.h
; File z:\sources\lunor\repos\rougemeilland\palmtree.math.core.uint\palmtree.math.core.uint\autogenerated_inline_func.h
; File z:\sources\lunor\repos\rougemeilland\palmtree.math.core.uint\palmtree.math.core.uint\pmc_inline_func.h
; File z:\sources\lunor\repos\rougemeilland\palmtree.math.core.uint\palmtree.math.core.uint\autogenerated_inline_func.h
; File z:\sources\lunor\repos\rougemeilland\palmtree.math.core.uint\palmtree.math.core.uint\pmc_inline_func.h
; File z:\sources\lunor\repos\rougemeilland\palmtree.math.core.uint\palmtree.math.core.uint\autogenerated_inline_func.h
; File z:\sources\lunor\repos\rougemeilland\palmtree.math.core.uint\palmtree.math.core.uint\pmc_inline_func.h
; File z:\sources\lunor\repos\rougemeilland\palmtree.math.core.uint\palmtree.math.core.uint\autogenerated_inline_func.h
; File z:\sources\lunor\repos\rougemeilland\palmtree.math.core.uint\palmtree.math.core.uint\pmc_inline_func.h
; File z:\sources\lunor\repos\rougemeilland\palmtree.math.core.uint\palmtree.math.core.uint\autogenerated_inline_func.h
; File z:\sources\lunor\repos\rougemeilland\palmtree.math.core.uint\palmtree.math.core.uint\pmc_inline_func.h
; File z:\sources\lunor\repos\rougemeilland\palmtree.math.core.uint\palmtree.math.core.uint\autogenerated_inline_func.h
; File z:\sources\lunor\repos\rougemeilland\palmtree.math.core.uint\palmtree.math.core.uint\pmc_inline_func.h
; File z:\sources\lunor\repos\rougemeilland\palmtree.math.core.uint\palmtree.math.core.uint\autogenerated_inline_func.h
; File z:\sources\lunor\repos\rougemeilland\palmtree.math.core.uint\palmtree.math.core.uint\pmc_inline_func.h
; File z:\sources\lunor\repos\rougemeilland\palmtree.math.core.uint\palmtree.math.core.uint\autogenerated_inline_func.h
; File z:\sources\lunor\repos\rougemeilland\palmtree.math.core.uint\palmtree.math.core.uint\pmc_inline_func.h
; File z:\sources\lunor\repos\rougemeilland\palmtree.math.core.uint\palmtree.math.core.uint\autogenerated_inline_func.h
; File z:\sources\lunor\repos\rougemeilland\palmtree.math.core.uint\palmtree.math.core.uint\pmc_inline_func.h
; File z:\sources\lunor\repos\rougemeilland\palmtree.math.core.uint\palmtree.math.core.uint\autogenerated_inline_func.h
; File z:\sources\lunor\repos\rougemeilland\palmtree.math.core.uint\palmtree.math.core.uint\pmc_inline_func.h
; File z:\sources\lunor\repos\rougemeilland\palmtree.math.core.uint\palmtree.math.core.uint\autogenerated_inline_func.h
; File z:\sources\lunor\repos\rougemeilland\palmtree.math.core.uint\palmtree.math.core.uint\pmc_inline_func.h
; File z:\sources\lunor\repos\rougemeilland\palmtree.math.core.uint\palmtree.math.core.uint\autogenerated_inline_func.h
; File z:\sources\lunor\repos\rougemeilland\palmtree.math.core.uint\palmtree.math.core.uint\pmc_inline_func.h
; File z:\sources\lunor\repos\rougemeilland\palmtree.math.core.uint\palmtree.math.core.uint\autogenerated_inline_func.h
; File z:\sources\lunor\repos\rougemeilland\palmtree.math.core.uint\palmtree.math.core.uint\pmc_inline_func.h
; File z:\sources\lunor\repos\rougemeilland\palmtree.math.core.uint\palmtree.math.core.uint\autogenerated_inline_func.h
; File z:\sources\lunor\repos\rougemeilland\palmtree.math.core.uint\palmtree.math.core.uint\pmc_inline_func.h
; File z:\sources\lunor\repos\rougemeilland\palmtree.math.core.uint\palmtree.math.core.uint\autogenerated_inline_func.h
; File z:\sources\lunor\repos\rougemeilland\palmtree.math.core.uint\palmtree.math.core.uint\pmc_inline_func.h
; File z:\sources\lunor\repos\rougemeilland\palmtree.math.core.uint\palmtree.math.core.uint\autogenerated_inline_func.h
; File z:\sources\lunor\repos\rougemeilland\palmtree.math.core.uint\palmtree.math.core.uint\pmc_inline_func.h
; File z:\sources\lunor\repos\rougemeilland\palmtree.math.core.uint\palmtree.math.core.uint\autogenerated_inline_func.h
; File z:\sources\lunor\repos\rougemeilland\palmtree.math.core.uint\palmtree.math.core.uint\pmc_inline_func.h
; File z:\sources\lunor\repos\rougemeilland\palmtree.math.core.uint\palmtree.math.core.uint\autogenerated_inline_func.h
; File z:\sources\lunor\repos\rougemeilland\palmtree.math.core.uint\palmtree.math.core.uint\pmc_inline_func.h
; File z:\sources\lunor\repos\rougemeilland\palmtree.math.core.uint\palmtree.math.core.uint\autogenerated_inline_func.h
; File z:\sources\lunor\repos\rougemeilland\palmtree.math.core.uint\palmtree.math.core.uint\pmc_inline_func.h
; File z:\sources\lunor\repos\rougemeilland\palmtree.math.core.uint\palmtree.math.core.uint\autogenerated_inline_func.h
; File z:\sources\lunor\repos\rougemeilland\palmtree.math.core.uint\palmtree.math.core.uint\pmc_inline_func.h
; File z:\sources\lunor\repos\rougemeilland\palmtree.math.core.uint\palmtree.math.core.uint\autogenerated_inline_func.h
; File z:\sources\lunor\repos\rougemeilland\palmtree.math.core.uint\palmtree.math.core.uint\pmc_inline_func.h
; File z:\sources\lunor\repos\rougemeilland\palmtree.math.core.uint\palmtree.math.core.uint\autogenerated_inline_func.h
; File z:\sources\lunor\repos\rougemeilland\palmtree.math.core.uint\palmtree.math.core.uint\pmc_inline_func.h
; File z:\sources\lunor\repos\rougemeilland\palmtree.math.core.uint\palmtree.math.core.uint\autogenerated_inline_func.h
;	COMDAT _ADD_32WORDS_ADCX
_TEXT	SEGMENT
c$ = 8
xp$ = 16
yp$ = 24
zp$ = 32
_ADD_32WORDS_ADCX PROC					; COMDAT

; 294  : #ifdef _MSC_VER
; 295  :     c = _ADDX_UNIT(c, xp[0], yp[0], &zp[0]);

	mov	rax, QWORD PTR [rdx]
; File z:\sources\lunor\repos\rougemeilland\palmtree.math.core.uint\palmtree.math.core.uint\pmc_inline_func.h

; 238  :         return (_addcarryx_u64(carry, u, v, w));

	add	cl, -1
	adcx	rax, QWORD PTR [r8]
	mov	QWORD PTR [r9], rax
; File z:\sources\lunor\repos\rougemeilland\palmtree.math.core.uint\palmtree.math.core.uint\autogenerated_inline_func.h

; 296  :     c = _ADDX_UNIT(c, xp[1], yp[1], &zp[1]);

	mov	rax, QWORD PTR [rdx+8]
; File z:\sources\lunor\repos\rougemeilland\palmtree.math.core.uint\palmtree.math.core.uint\pmc_inline_func.h

; 238  :         return (_addcarryx_u64(carry, u, v, w));

	adcx	rax, QWORD PTR [r8+8]
	mov	QWORD PTR [r9+8], rax
; File z:\sources\lunor\repos\rougemeilland\palmtree.math.core.uint\palmtree.math.core.uint\autogenerated_inline_func.h

; 297  :     c = _ADDX_UNIT(c, xp[2], yp[2], &zp[2]);

	mov	rax, QWORD PTR [rdx+16]
; File z:\sources\lunor\repos\rougemeilland\palmtree.math.core.uint\palmtree.math.core.uint\pmc_inline_func.h

; 238  :         return (_addcarryx_u64(carry, u, v, w));

	adcx	rax, QWORD PTR [r8+16]
	mov	QWORD PTR [r9+16], rax
; File z:\sources\lunor\repos\rougemeilland\palmtree.math.core.uint\palmtree.math.core.uint\autogenerated_inline_func.h

; 298  :     c = _ADDX_UNIT(c, xp[3], yp[3], &zp[3]);

	mov	rax, QWORD PTR [rdx+24]
; File z:\sources\lunor\repos\rougemeilland\palmtree.math.core.uint\palmtree.math.core.uint\pmc_inline_func.h

; 238  :         return (_addcarryx_u64(carry, u, v, w));

	adcx	rax, QWORD PTR [r8+24]
	mov	QWORD PTR [r9+24], rax
; File z:\sources\lunor\repos\rougemeilland\palmtree.math.core.uint\palmtree.math.core.uint\autogenerated_inline_func.h

; 299  :     c = _ADDX_UNIT(c, xp[4], yp[4], &zp[4]);

	mov	rax, QWORD PTR [rdx+32]
; File z:\sources\lunor\repos\rougemeilland\palmtree.math.core.uint\palmtree.math.core.uint\pmc_inline_func.h

; 238  :         return (_addcarryx_u64(carry, u, v, w));

	adcx	rax, QWORD PTR [r8+32]
	mov	QWORD PTR [r9+32], rax
; File z:\sources\lunor\repos\rougemeilland\palmtree.math.core.uint\palmtree.math.core.uint\autogenerated_inline_func.h

; 300  :     c = _ADDX_UNIT(c, xp[5], yp[5], &zp[5]);

	mov	rax, QWORD PTR [rdx+40]
; File z:\sources\lunor\repos\rougemeilland\palmtree.math.core.uint\palmtree.math.core.uint\pmc_inline_func.h

; 238  :         return (_addcarryx_u64(carry, u, v, w));

	adcx	rax, QWORD PTR [r8+40]
	mov	QWORD PTR [r9+40], rax
; File z:\sources\lunor\repos\rougemeilland\palmtree.math.core.uint\palmtree.math.core.uint\autogenerated_inline_func.h

; 301  :     c = _ADDX_UNIT(c, xp[6], yp[6], &zp[6]);

	mov	rax, QWORD PTR [rdx+48]
; File z:\sources\lunor\repos\rougemeilland\palmtree.math.core.uint\palmtree.math.core.uint\pmc_inline_func.h

; 238  :         return (_addcarryx_u64(carry, u, v, w));

	adcx	rax, QWORD PTR [r8+48]
	mov	QWORD PTR [r9+48], rax
; File z:\sources\lunor\repos\rougemeilland\palmtree.math.core.uint\palmtree.math.core.uint\autogenerated_inline_func.h

; 302  :     c = _ADDX_UNIT(c, xp[7], yp[7], &zp[7]);

	mov	rax, QWORD PTR [rdx+56]
; File z:\sources\lunor\repos\rougemeilland\palmtree.math.core.uint\palmtree.math.core.uint\pmc_inline_func.h

; 238  :         return (_addcarryx_u64(carry, u, v, w));

	adcx	rax, QWORD PTR [r8+56]
	mov	QWORD PTR [r9+56], rax
; File z:\sources\lunor\repos\rougemeilland\palmtree.math.core.uint\palmtree.math.core.uint\autogenerated_inline_func.h

; 303  :     c = _ADDX_UNIT(c, xp[8], yp[8], &zp[8]);

	mov	rax, QWORD PTR [rdx+64]
; File z:\sources\lunor\repos\rougemeilland\palmtree.math.core.uint\palmtree.math.core.uint\pmc_inline_func.h

; 238  :         return (_addcarryx_u64(carry, u, v, w));

	adcx	rax, QWORD PTR [r8+64]
	mov	QWORD PTR [r9+64], rax
; File z:\sources\lunor\repos\rougemeilland\palmtree.math.core.uint\palmtree.math.core.uint\autogenerated_inline_func.h

; 304  :     c = _ADDX_UNIT(c, xp[9], yp[9], &zp[9]);

	mov	rax, QWORD PTR [rdx+72]
; File z:\sources\lunor\repos\rougemeilland\palmtree.math.core.uint\palmtree.math.core.uint\pmc_inline_func.h

; 238  :         return (_addcarryx_u64(carry, u, v, w));

	adcx	rax, QWORD PTR [r8+72]
	mov	QWORD PTR [r9+72], rax
; File z:\sources\lunor\repos\rougemeilland\palmtree.math.core.uint\palmtree.math.core.uint\autogenerated_inline_func.h

; 305  :     c = _ADDX_UNIT(c, xp[10], yp[10], &zp[10]);

	mov	rax, QWORD PTR [rdx+80]
; File z:\sources\lunor\repos\rougemeilland\palmtree.math.core.uint\palmtree.math.core.uint\pmc_inline_func.h

; 238  :         return (_addcarryx_u64(carry, u, v, w));

	adcx	rax, QWORD PTR [r8+80]
	mov	QWORD PTR [r9+80], rax
; File z:\sources\lunor\repos\rougemeilland\palmtree.math.core.uint\palmtree.math.core.uint\autogenerated_inline_func.h

; 306  :     c = _ADDX_UNIT(c, xp[11], yp[11], &zp[11]);

	mov	rax, QWORD PTR [rdx+88]
; File z:\sources\lunor\repos\rougemeilland\palmtree.math.core.uint\palmtree.math.core.uint\pmc_inline_func.h

; 238  :         return (_addcarryx_u64(carry, u, v, w));

	adcx	rax, QWORD PTR [r8+88]
	mov	QWORD PTR [r9+88], rax
; File z:\sources\lunor\repos\rougemeilland\palmtree.math.core.uint\palmtree.math.core.uint\autogenerated_inline_func.h

; 307  :     c = _ADDX_UNIT(c, xp[12], yp[12], &zp[12]);

	mov	rax, QWORD PTR [rdx+96]
; File z:\sources\lunor\repos\rougemeilland\palmtree.math.core.uint\palmtree.math.core.uint\pmc_inline_func.h

; 238  :         return (_addcarryx_u64(carry, u, v, w));

	adcx	rax, QWORD PTR [r8+96]
	mov	QWORD PTR [r9+96], rax
; File z:\sources\lunor\repos\rougemeilland\palmtree.math.core.uint\palmtree.math.core.uint\autogenerated_inline_func.h

; 308  :     c = _ADDX_UNIT(c, xp[13], yp[13], &zp[13]);

	mov	rax, QWORD PTR [rdx+104]
; File z:\sources\lunor\repos\rougemeilland\palmtree.math.core.uint\palmtree.math.core.uint\pmc_inline_func.h

; 238  :         return (_addcarryx_u64(carry, u, v, w));

	adcx	rax, QWORD PTR [r8+104]
	mov	QWORD PTR [r9+104], rax
; File z:\sources\lunor\repos\rougemeilland\palmtree.math.core.uint\palmtree.math.core.uint\autogenerated_inline_func.h

; 309  :     c = _ADDX_UNIT(c, xp[14], yp[14], &zp[14]);

	mov	rax, QWORD PTR [rdx+112]
; File z:\sources\lunor\repos\rougemeilland\palmtree.math.core.uint\palmtree.math.core.uint\pmc_inline_func.h

; 238  :         return (_addcarryx_u64(carry, u, v, w));

	adcx	rax, QWORD PTR [r8+112]
	mov	QWORD PTR [r9+112], rax
; File z:\sources\lunor\repos\rougemeilland\palmtree.math.core.uint\palmtree.math.core.uint\autogenerated_inline_func.h

; 310  :     c = _ADDX_UNIT(c, xp[15], yp[15], &zp[15]);

	mov	rax, QWORD PTR [rdx+120]
; File z:\sources\lunor\repos\rougemeilland\palmtree.math.core.uint\palmtree.math.core.uint\pmc_inline_func.h

; 238  :         return (_addcarryx_u64(carry, u, v, w));

	adcx	rax, QWORD PTR [r8+120]
	mov	QWORD PTR [r9+120], rax
; File z:\sources\lunor\repos\rougemeilland\palmtree.math.core.uint\palmtree.math.core.uint\autogenerated_inline_func.h

; 311  :     c = _ADDX_UNIT(c, xp[16], yp[16], &zp[16]);

	mov	rax, QWORD PTR [rdx+128]
; File z:\sources\lunor\repos\rougemeilland\palmtree.math.core.uint\palmtree.math.core.uint\pmc_inline_func.h

; 238  :         return (_addcarryx_u64(carry, u, v, w));

	adcx	rax, QWORD PTR [r8+128]
	mov	QWORD PTR [r9+128], rax
; File z:\sources\lunor\repos\rougemeilland\palmtree.math.core.uint\palmtree.math.core.uint\autogenerated_inline_func.h

; 312  :     c = _ADDX_UNIT(c, xp[17], yp[17], &zp[17]);

	mov	rax, QWORD PTR [rdx+136]
; File z:\sources\lunor\repos\rougemeilland\palmtree.math.core.uint\palmtree.math.core.uint\pmc_inline_func.h

; 238  :         return (_addcarryx_u64(carry, u, v, w));

	adcx	rax, QWORD PTR [r8+136]
	mov	QWORD PTR [r9+136], rax
; File z:\sources\lunor\repos\rougemeilland\palmtree.math.core.uint\palmtree.math.core.uint\autogenerated_inline_func.h

; 313  :     c = _ADDX_UNIT(c, xp[18], yp[18], &zp[18]);

	mov	rax, QWORD PTR [rdx+144]
; File z:\sources\lunor\repos\rougemeilland\palmtree.math.core.uint\palmtree.math.core.uint\pmc_inline_func.h

; 238  :         return (_addcarryx_u64(carry, u, v, w));

	adcx	rax, QWORD PTR [r8+144]
	mov	QWORD PTR [r9+144], rax
; File z:\sources\lunor\repos\rougemeilland\palmtree.math.core.uint\palmtree.math.core.uint\autogenerated_inline_func.h

; 314  :     c = _ADDX_UNIT(c, xp[19], yp[19], &zp[19]);

	mov	rax, QWORD PTR [rdx+152]
; File z:\sources\lunor\repos\rougemeilland\palmtree.math.core.uint\palmtree.math.core.uint\pmc_inline_func.h

; 238  :         return (_addcarryx_u64(carry, u, v, w));

	adcx	rax, QWORD PTR [r8+152]
	mov	QWORD PTR [r9+152], rax
; File z:\sources\lunor\repos\rougemeilland\palmtree.math.core.uint\palmtree.math.core.uint\autogenerated_inline_func.h

; 315  :     c = _ADDX_UNIT(c, xp[20], yp[20], &zp[20]);

	mov	rax, QWORD PTR [rdx+160]
; File z:\sources\lunor\repos\rougemeilland\palmtree.math.core.uint\palmtree.math.core.uint\pmc_inline_func.h

; 238  :         return (_addcarryx_u64(carry, u, v, w));

	adcx	rax, QWORD PTR [r8+160]
	mov	QWORD PTR [r9+160], rax
; File z:\sources\lunor\repos\rougemeilland\palmtree.math.core.uint\palmtree.math.core.uint\autogenerated_inline_func.h

; 316  :     c = _ADDX_UNIT(c, xp[21], yp[21], &zp[21]);

	mov	rax, QWORD PTR [rdx+168]
; File z:\sources\lunor\repos\rougemeilland\palmtree.math.core.uint\palmtree.math.core.uint\pmc_inline_func.h

; 238  :         return (_addcarryx_u64(carry, u, v, w));

	adcx	rax, QWORD PTR [r8+168]
	mov	QWORD PTR [r9+168], rax
; File z:\sources\lunor\repos\rougemeilland\palmtree.math.core.uint\palmtree.math.core.uint\autogenerated_inline_func.h

; 317  :     c = _ADDX_UNIT(c, xp[22], yp[22], &zp[22]);

	mov	rax, QWORD PTR [rdx+176]
; File z:\sources\lunor\repos\rougemeilland\palmtree.math.core.uint\palmtree.math.core.uint\pmc_inline_func.h

; 238  :         return (_addcarryx_u64(carry, u, v, w));

	adcx	rax, QWORD PTR [r8+176]
	mov	QWORD PTR [r9+176], rax
; File z:\sources\lunor\repos\rougemeilland\palmtree.math.core.uint\palmtree.math.core.uint\autogenerated_inline_func.h

; 318  :     c = _ADDX_UNIT(c, xp[23], yp[23], &zp[23]);

	mov	rax, QWORD PTR [rdx+184]
; File z:\sources\lunor\repos\rougemeilland\palmtree.math.core.uint\palmtree.math.core.uint\pmc_inline_func.h

; 238  :         return (_addcarryx_u64(carry, u, v, w));

	adcx	rax, QWORD PTR [r8+184]
	mov	QWORD PTR [r9+184], rax
; File z:\sources\lunor\repos\rougemeilland\palmtree.math.core.uint\palmtree.math.core.uint\autogenerated_inline_func.h

; 319  :     c = _ADDX_UNIT(c, xp[24], yp[24], &zp[24]);

	mov	rax, QWORD PTR [rdx+192]
; File z:\sources\lunor\repos\rougemeilland\palmtree.math.core.uint\palmtree.math.core.uint\pmc_inline_func.h

; 238  :         return (_addcarryx_u64(carry, u, v, w));

	adcx	rax, QWORD PTR [r8+192]
	mov	QWORD PTR [r9+192], rax
; File z:\sources\lunor\repos\rougemeilland\palmtree.math.core.uint\palmtree.math.core.uint\autogenerated_inline_func.h

; 320  :     c = _ADDX_UNIT(c, xp[25], yp[25], &zp[25]);

	mov	rax, QWORD PTR [rdx+200]
; File z:\sources\lunor\repos\rougemeilland\palmtree.math.core.uint\palmtree.math.core.uint\pmc_inline_func.h

; 238  :         return (_addcarryx_u64(carry, u, v, w));

	adcx	rax, QWORD PTR [r8+200]
	mov	QWORD PTR [r9+200], rax
; File z:\sources\lunor\repos\rougemeilland\palmtree.math.core.uint\palmtree.math.core.uint\autogenerated_inline_func.h

; 321  :     c = _ADDX_UNIT(c, xp[26], yp[26], &zp[26]);

	mov	rax, QWORD PTR [rdx+208]
; File z:\sources\lunor\repos\rougemeilland\palmtree.math.core.uint\palmtree.math.core.uint\pmc_inline_func.h

; 238  :         return (_addcarryx_u64(carry, u, v, w));

	adcx	rax, QWORD PTR [r8+208]
	mov	QWORD PTR [r9+208], rax
; File z:\sources\lunor\repos\rougemeilland\palmtree.math.core.uint\palmtree.math.core.uint\autogenerated_inline_func.h

; 322  :     c = _ADDX_UNIT(c, xp[27], yp[27], &zp[27]);

	mov	rax, QWORD PTR [rdx+216]
; File z:\sources\lunor\repos\rougemeilland\palmtree.math.core.uint\palmtree.math.core.uint\pmc_inline_func.h

; 238  :         return (_addcarryx_u64(carry, u, v, w));

	adcx	rax, QWORD PTR [r8+216]
	mov	QWORD PTR [r9+216], rax
; File z:\sources\lunor\repos\rougemeilland\palmtree.math.core.uint\palmtree.math.core.uint\autogenerated_inline_func.h

; 323  :     c = _ADDX_UNIT(c, xp[28], yp[28], &zp[28]);

	mov	rax, QWORD PTR [rdx+224]
; File z:\sources\lunor\repos\rougemeilland\palmtree.math.core.uint\palmtree.math.core.uint\pmc_inline_func.h

; 238  :         return (_addcarryx_u64(carry, u, v, w));

	adcx	rax, QWORD PTR [r8+224]
	mov	QWORD PTR [r9+224], rax
; File z:\sources\lunor\repos\rougemeilland\palmtree.math.core.uint\palmtree.math.core.uint\autogenerated_inline_func.h

; 324  :     c = _ADDX_UNIT(c, xp[29], yp[29], &zp[29]);

	mov	rax, QWORD PTR [rdx+232]
; File z:\sources\lunor\repos\rougemeilland\palmtree.math.core.uint\palmtree.math.core.uint\pmc_inline_func.h

; 238  :         return (_addcarryx_u64(carry, u, v, w));

	adcx	rax, QWORD PTR [r8+232]
	mov	QWORD PTR [r9+232], rax
; File z:\sources\lunor\repos\rougemeilland\palmtree.math.core.uint\palmtree.math.core.uint\autogenerated_inline_func.h

; 325  :     c = _ADDX_UNIT(c, xp[30], yp[30], &zp[30]);

	mov	rax, QWORD PTR [rdx+240]
; File z:\sources\lunor\repos\rougemeilland\palmtree.math.core.uint\palmtree.math.core.uint\pmc_inline_func.h

; 238  :         return (_addcarryx_u64(carry, u, v, w));

	adcx	rax, QWORD PTR [r8+240]
	mov	QWORD PTR [r9+240], rax
; File z:\sources\lunor\repos\rougemeilland\palmtree.math.core.uint\palmtree.math.core.uint\autogenerated_inline_func.h

; 326  :     c = _ADDX_UNIT(c, xp[31], yp[31], &zp[31]);

	mov	rcx, QWORD PTR [rdx+248]
; File z:\sources\lunor\repos\rougemeilland\palmtree.math.core.uint\palmtree.math.core.uint\pmc_inline_func.h

; 238  :         return (_addcarryx_u64(carry, u, v, w));

	adcx	rcx, QWORD PTR [r8+248]
	mov	QWORD PTR [r9+248], rcx
	setb	al
; File z:\sources\lunor\repos\rougemeilland\palmtree.math.core.uint\palmtree.math.core.uint\autogenerated_inline_func.h

; 543  : }

	ret	0
_ADD_32WORDS_ADCX ENDP
_TEXT	ENDS
; Function compile flags: /Ogtpy
; File z:\sources\lunor\repos\rougemeilland\palmtree.math.core.uint\palmtree.math.core.uint\autogenerated_inline_func.h
; File z:\sources\lunor\repos\rougemeilland\palmtree.math.core.uint\palmtree.math.core.uint\pmc_inline_func.h
; File z:\sources\lunor\repos\rougemeilland\palmtree.math.core.uint\palmtree.math.core.uint\autogenerated_inline_func.h
; File z:\sources\lunor\repos\rougemeilland\palmtree.math.core.uint\palmtree.math.core.uint\pmc_inline_func.h
; File z:\sources\lunor\repos\rougemeilland\palmtree.math.core.uint\palmtree.math.core.uint\autogenerated_inline_func.h
; File z:\sources\lunor\repos\rougemeilland\palmtree.math.core.uint\palmtree.math.core.uint\pmc_inline_func.h
; File z:\sources\lunor\repos\rougemeilland\palmtree.math.core.uint\palmtree.math.core.uint\autogenerated_inline_func.h
; File z:\sources\lunor\repos\rougemeilland\palmtree.math.core.uint\palmtree.math.core.uint\pmc_inline_func.h
; File z:\sources\lunor\repos\rougemeilland\palmtree.math.core.uint\palmtree.math.core.uint\autogenerated_inline_func.h
; File z:\sources\lunor\repos\rougemeilland\palmtree.math.core.uint\palmtree.math.core.uint\pmc_inline_func.h
; File z:\sources\lunor\repos\rougemeilland\palmtree.math.core.uint\palmtree.math.core.uint\autogenerated_inline_func.h
; File z:\sources\lunor\repos\rougemeilland\palmtree.math.core.uint\palmtree.math.core.uint\pmc_inline_func.h
; File z:\sources\lunor\repos\rougemeilland\palmtree.math.core.uint\palmtree.math.core.uint\autogenerated_inline_func.h
; File z:\sources\lunor\repos\rougemeilland\palmtree.math.core.uint\palmtree.math.core.uint\pmc_inline_func.h
; File z:\sources\lunor\repos\rougemeilland\palmtree.math.core.uint\palmtree.math.core.uint\autogenerated_inline_func.h
; File z:\sources\lunor\repos\rougemeilland\palmtree.math.core.uint\palmtree.math.core.uint\pmc_inline_func.h
; File z:\sources\lunor\repos\rougemeilland\palmtree.math.core.uint\palmtree.math.core.uint\autogenerated_inline_func.h
; File z:\sources\lunor\repos\rougemeilland\palmtree.math.core.uint\palmtree.math.core.uint\pmc_inline_func.h
; File z:\sources\lunor\repos\rougemeilland\palmtree.math.core.uint\palmtree.math.core.uint\autogenerated_inline_func.h
; File z:\sources\lunor\repos\rougemeilland\palmtree.math.core.uint\palmtree.math.core.uint\pmc_inline_func.h
; File z:\sources\lunor\repos\rougemeilland\palmtree.math.core.uint\palmtree.math.core.uint\autogenerated_inline_func.h
; File z:\sources\lunor\repos\rougemeilland\palmtree.math.core.uint\palmtree.math.core.uint\pmc_inline_func.h
; File z:\sources\lunor\repos\rougemeilland\palmtree.math.core.uint\palmtree.math.core.uint\autogenerated_inline_func.h
; File z:\sources\lunor\repos\rougemeilland\palmtree.math.core.uint\palmtree.math.core.uint\pmc_inline_func.h
; File z:\sources\lunor\repos\rougemeilland\palmtree.math.core.uint\palmtree.math.core.uint\autogenerated_inline_func.h
; File z:\sources\lunor\repos\rougemeilland\palmtree.math.core.uint\palmtree.math.core.uint\pmc_inline_func.h
; File z:\sources\lunor\repos\rougemeilland\palmtree.math.core.uint\palmtree.math.core.uint\autogenerated_inline_func.h
; File z:\sources\lunor\repos\rougemeilland\palmtree.math.core.uint\palmtree.math.core.uint\pmc_inline_func.h
; File z:\sources\lunor\repos\rougemeilland\palmtree.math.core.uint\palmtree.math.core.uint\autogenerated_inline_func.h
; File z:\sources\lunor\repos\rougemeilland\palmtree.math.core.uint\palmtree.math.core.uint\pmc_inline_func.h
; File z:\sources\lunor\repos\rougemeilland\palmtree.math.core.uint\palmtree.math.core.uint\autogenerated_inline_func.h
; File z:\sources\lunor\repos\rougemeilland\palmtree.math.core.uint\palmtree.math.core.uint\pmc_inline_func.h
; File z:\sources\lunor\repos\rougemeilland\palmtree.math.core.uint\palmtree.math.core.uint\autogenerated_inline_func.h
; File z:\sources\lunor\repos\rougemeilland\palmtree.math.core.uint\palmtree.math.core.uint\pmc_inline_func.h
; File z:\sources\lunor\repos\rougemeilland\palmtree.math.core.uint\palmtree.math.core.uint\autogenerated_inline_func.h
; File z:\sources\lunor\repos\rougemeilland\palmtree.math.core.uint\palmtree.math.core.uint\pmc_inline_func.h
; File z:\sources\lunor\repos\rougemeilland\palmtree.math.core.uint\palmtree.math.core.uint\autogenerated_inline_func.h
; File z:\sources\lunor\repos\rougemeilland\palmtree.math.core.uint\palmtree.math.core.uint\pmc_inline_func.h
; File z:\sources\lunor\repos\rougemeilland\palmtree.math.core.uint\palmtree.math.core.uint\autogenerated_inline_func.h
; File z:\sources\lunor\repos\rougemeilland\palmtree.math.core.uint\palmtree.math.core.uint\pmc_inline_func.h
; File z:\sources\lunor\repos\rougemeilland\palmtree.math.core.uint\palmtree.math.core.uint\autogenerated_inline_func.h
; File z:\sources\lunor\repos\rougemeilland\palmtree.math.core.uint\palmtree.math.core.uint\pmc_inline_func.h
; File z:\sources\lunor\repos\rougemeilland\palmtree.math.core.uint\palmtree.math.core.uint\autogenerated_inline_func.h
; File z:\sources\lunor\repos\rougemeilland\palmtree.math.core.uint\palmtree.math.core.uint\pmc_inline_func.h
; File z:\sources\lunor\repos\rougemeilland\palmtree.math.core.uint\palmtree.math.core.uint\autogenerated_inline_func.h
; File z:\sources\lunor\repos\rougemeilland\palmtree.math.core.uint\palmtree.math.core.uint\pmc_inline_func.h
; File z:\sources\lunor\repos\rougemeilland\palmtree.math.core.uint\palmtree.math.core.uint\autogenerated_inline_func.h
; File z:\sources\lunor\repos\rougemeilland\palmtree.math.core.uint\palmtree.math.core.uint\pmc_inline_func.h
; File z:\sources\lunor\repos\rougemeilland\palmtree.math.core.uint\palmtree.math.core.uint\autogenerated_inline_func.h
; File z:\sources\lunor\repos\rougemeilland\palmtree.math.core.uint\palmtree.math.core.uint\pmc_inline_func.h
; File z:\sources\lunor\repos\rougemeilland\palmtree.math.core.uint\palmtree.math.core.uint\autogenerated_inline_func.h
; File z:\sources\lunor\repos\rougemeilland\palmtree.math.core.uint\palmtree.math.core.uint\pmc_inline_func.h
; File z:\sources\lunor\repos\rougemeilland\palmtree.math.core.uint\palmtree.math.core.uint\autogenerated_inline_func.h
; File z:\sources\lunor\repos\rougemeilland\palmtree.math.core.uint\palmtree.math.core.uint\pmc_inline_func.h
; File z:\sources\lunor\repos\rougemeilland\palmtree.math.core.uint\palmtree.math.core.uint\autogenerated_inline_func.h
; File z:\sources\lunor\repos\rougemeilland\palmtree.math.core.uint\palmtree.math.core.uint\pmc_inline_func.h
; File z:\sources\lunor\repos\rougemeilland\palmtree.math.core.uint\palmtree.math.core.uint\autogenerated_inline_func.h
; File z:\sources\lunor\repos\rougemeilland\palmtree.math.core.uint\palmtree.math.core.uint\pmc_inline_func.h
; File z:\sources\lunor\repos\rougemeilland\palmtree.math.core.uint\palmtree.math.core.uint\autogenerated_inline_func.h
; File z:\sources\lunor\repos\rougemeilland\palmtree.math.core.uint\palmtree.math.core.uint\pmc_inline_func.h
; File z:\sources\lunor\repos\rougemeilland\palmtree.math.core.uint\palmtree.math.core.uint\autogenerated_inline_func.h
; File z:\sources\lunor\repos\rougemeilland\palmtree.math.core.uint\palmtree.math.core.uint\pmc_inline_func.h
; File z:\sources\lunor\repos\rougemeilland\palmtree.math.core.uint\palmtree.math.core.uint\autogenerated_inline_func.h
; File z:\sources\lunor\repos\rougemeilland\palmtree.math.core.uint\palmtree.math.core.uint\pmc_inline_func.h
; File z:\sources\lunor\repos\rougemeilland\palmtree.math.core.uint\palmtree.math.core.uint\autogenerated_inline_func.h
;	COMDAT _ADD_32WORDS_ADC
_TEXT	SEGMENT
c$ = 8
xp$ = 16
yp$ = 24
zp$ = 32
_ADD_32WORDS_ADC PROC					; COMDAT

; 41   : #ifdef _MSC_VER
; 42   :     c = _ADD_UNIT(c, xp[0], yp[0], &zp[0]);

	mov	rax, QWORD PTR [rdx]
; File z:\sources\lunor\repos\rougemeilland\palmtree.math.core.uint\palmtree.math.core.uint\pmc_inline_func.h

; 210  :         return (_addcarry_u64(carry, u, v, w));

	add	cl, -1
	adc	rax, QWORD PTR [r8]
	mov	QWORD PTR [r9], rax
; File z:\sources\lunor\repos\rougemeilland\palmtree.math.core.uint\palmtree.math.core.uint\autogenerated_inline_func.h

; 43   :     c = _ADD_UNIT(c, xp[1], yp[1], &zp[1]);

	mov	rax, QWORD PTR [rdx+8]
; File z:\sources\lunor\repos\rougemeilland\palmtree.math.core.uint\palmtree.math.core.uint\pmc_inline_func.h

; 210  :         return (_addcarry_u64(carry, u, v, w));

	adc	rax, QWORD PTR [r8+8]
	mov	QWORD PTR [r9+8], rax
; File z:\sources\lunor\repos\rougemeilland\palmtree.math.core.uint\palmtree.math.core.uint\autogenerated_inline_func.h

; 44   :     c = _ADD_UNIT(c, xp[2], yp[2], &zp[2]);

	mov	rax, QWORD PTR [rdx+16]
; File z:\sources\lunor\repos\rougemeilland\palmtree.math.core.uint\palmtree.math.core.uint\pmc_inline_func.h

; 210  :         return (_addcarry_u64(carry, u, v, w));

	adc	rax, QWORD PTR [r8+16]
	mov	QWORD PTR [r9+16], rax
; File z:\sources\lunor\repos\rougemeilland\palmtree.math.core.uint\palmtree.math.core.uint\autogenerated_inline_func.h

; 45   :     c = _ADD_UNIT(c, xp[3], yp[3], &zp[3]);

	mov	rax, QWORD PTR [rdx+24]
; File z:\sources\lunor\repos\rougemeilland\palmtree.math.core.uint\palmtree.math.core.uint\pmc_inline_func.h

; 210  :         return (_addcarry_u64(carry, u, v, w));

	adc	rax, QWORD PTR [r8+24]
	mov	QWORD PTR [r9+24], rax
; File z:\sources\lunor\repos\rougemeilland\palmtree.math.core.uint\palmtree.math.core.uint\autogenerated_inline_func.h

; 46   :     c = _ADD_UNIT(c, xp[4], yp[4], &zp[4]);

	mov	rax, QWORD PTR [rdx+32]
; File z:\sources\lunor\repos\rougemeilland\palmtree.math.core.uint\palmtree.math.core.uint\pmc_inline_func.h

; 210  :         return (_addcarry_u64(carry, u, v, w));

	adc	rax, QWORD PTR [r8+32]
	mov	QWORD PTR [r9+32], rax
; File z:\sources\lunor\repos\rougemeilland\palmtree.math.core.uint\palmtree.math.core.uint\autogenerated_inline_func.h

; 47   :     c = _ADD_UNIT(c, xp[5], yp[5], &zp[5]);

	mov	rax, QWORD PTR [rdx+40]
; File z:\sources\lunor\repos\rougemeilland\palmtree.math.core.uint\palmtree.math.core.uint\pmc_inline_func.h

; 210  :         return (_addcarry_u64(carry, u, v, w));

	adc	rax, QWORD PTR [r8+40]
	mov	QWORD PTR [r9+40], rax
; File z:\sources\lunor\repos\rougemeilland\palmtree.math.core.uint\palmtree.math.core.uint\autogenerated_inline_func.h

; 48   :     c = _ADD_UNIT(c, xp[6], yp[6], &zp[6]);

	mov	rax, QWORD PTR [rdx+48]
; File z:\sources\lunor\repos\rougemeilland\palmtree.math.core.uint\palmtree.math.core.uint\pmc_inline_func.h

; 210  :         return (_addcarry_u64(carry, u, v, w));

	adc	rax, QWORD PTR [r8+48]
	mov	QWORD PTR [r9+48], rax
; File z:\sources\lunor\repos\rougemeilland\palmtree.math.core.uint\palmtree.math.core.uint\autogenerated_inline_func.h

; 49   :     c = _ADD_UNIT(c, xp[7], yp[7], &zp[7]);

	mov	rax, QWORD PTR [rdx+56]
; File z:\sources\lunor\repos\rougemeilland\palmtree.math.core.uint\palmtree.math.core.uint\pmc_inline_func.h

; 210  :         return (_addcarry_u64(carry, u, v, w));

	adc	rax, QWORD PTR [r8+56]
	mov	QWORD PTR [r9+56], rax
; File z:\sources\lunor\repos\rougemeilland\palmtree.math.core.uint\palmtree.math.core.uint\autogenerated_inline_func.h

; 50   :     c = _ADD_UNIT(c, xp[8], yp[8], &zp[8]);

	mov	rax, QWORD PTR [rdx+64]
; File z:\sources\lunor\repos\rougemeilland\palmtree.math.core.uint\palmtree.math.core.uint\pmc_inline_func.h

; 210  :         return (_addcarry_u64(carry, u, v, w));

	adc	rax, QWORD PTR [r8+64]
	mov	QWORD PTR [r9+64], rax
; File z:\sources\lunor\repos\rougemeilland\palmtree.math.core.uint\palmtree.math.core.uint\autogenerated_inline_func.h

; 51   :     c = _ADD_UNIT(c, xp[9], yp[9], &zp[9]);

	mov	rax, QWORD PTR [rdx+72]
; File z:\sources\lunor\repos\rougemeilland\palmtree.math.core.uint\palmtree.math.core.uint\pmc_inline_func.h

; 210  :         return (_addcarry_u64(carry, u, v, w));

	adc	rax, QWORD PTR [r8+72]
	mov	QWORD PTR [r9+72], rax
; File z:\sources\lunor\repos\rougemeilland\palmtree.math.core.uint\palmtree.math.core.uint\autogenerated_inline_func.h

; 52   :     c = _ADD_UNIT(c, xp[10], yp[10], &zp[10]);

	mov	rax, QWORD PTR [rdx+80]
; File z:\sources\lunor\repos\rougemeilland\palmtree.math.core.uint\palmtree.math.core.uint\pmc_inline_func.h

; 210  :         return (_addcarry_u64(carry, u, v, w));

	adc	rax, QWORD PTR [r8+80]
	mov	QWORD PTR [r9+80], rax
; File z:\sources\lunor\repos\rougemeilland\palmtree.math.core.uint\palmtree.math.core.uint\autogenerated_inline_func.h

; 53   :     c = _ADD_UNIT(c, xp[11], yp[11], &zp[11]);

	mov	rax, QWORD PTR [rdx+88]
; File z:\sources\lunor\repos\rougemeilland\palmtree.math.core.uint\palmtree.math.core.uint\pmc_inline_func.h

; 210  :         return (_addcarry_u64(carry, u, v, w));

	adc	rax, QWORD PTR [r8+88]
	mov	QWORD PTR [r9+88], rax
; File z:\sources\lunor\repos\rougemeilland\palmtree.math.core.uint\palmtree.math.core.uint\autogenerated_inline_func.h

; 54   :     c = _ADD_UNIT(c, xp[12], yp[12], &zp[12]);

	mov	rax, QWORD PTR [rdx+96]
; File z:\sources\lunor\repos\rougemeilland\palmtree.math.core.uint\palmtree.math.core.uint\pmc_inline_func.h

; 210  :         return (_addcarry_u64(carry, u, v, w));

	adc	rax, QWORD PTR [r8+96]
	mov	QWORD PTR [r9+96], rax
; File z:\sources\lunor\repos\rougemeilland\palmtree.math.core.uint\palmtree.math.core.uint\autogenerated_inline_func.h

; 55   :     c = _ADD_UNIT(c, xp[13], yp[13], &zp[13]);

	mov	rax, QWORD PTR [rdx+104]
; File z:\sources\lunor\repos\rougemeilland\palmtree.math.core.uint\palmtree.math.core.uint\pmc_inline_func.h

; 210  :         return (_addcarry_u64(carry, u, v, w));

	adc	rax, QWORD PTR [r8+104]
	mov	QWORD PTR [r9+104], rax
; File z:\sources\lunor\repos\rougemeilland\palmtree.math.core.uint\palmtree.math.core.uint\autogenerated_inline_func.h

; 56   :     c = _ADD_UNIT(c, xp[14], yp[14], &zp[14]);

	mov	rax, QWORD PTR [rdx+112]
; File z:\sources\lunor\repos\rougemeilland\palmtree.math.core.uint\palmtree.math.core.uint\pmc_inline_func.h

; 210  :         return (_addcarry_u64(carry, u, v, w));

	adc	rax, QWORD PTR [r8+112]
	mov	QWORD PTR [r9+112], rax
; File z:\sources\lunor\repos\rougemeilland\palmtree.math.core.uint\palmtree.math.core.uint\autogenerated_inline_func.h

; 57   :     c = _ADD_UNIT(c, xp[15], yp[15], &zp[15]);

	mov	rax, QWORD PTR [rdx+120]
; File z:\sources\lunor\repos\rougemeilland\palmtree.math.core.uint\palmtree.math.core.uint\pmc_inline_func.h

; 210  :         return (_addcarry_u64(carry, u, v, w));

	adc	rax, QWORD PTR [r8+120]
	mov	QWORD PTR [r9+120], rax
; File z:\sources\lunor\repos\rougemeilland\palmtree.math.core.uint\palmtree.math.core.uint\autogenerated_inline_func.h

; 58   :     c = _ADD_UNIT(c, xp[16], yp[16], &zp[16]);

	mov	rax, QWORD PTR [rdx+128]
; File z:\sources\lunor\repos\rougemeilland\palmtree.math.core.uint\palmtree.math.core.uint\pmc_inline_func.h

; 210  :         return (_addcarry_u64(carry, u, v, w));

	adc	rax, QWORD PTR [r8+128]
	mov	QWORD PTR [r9+128], rax
; File z:\sources\lunor\repos\rougemeilland\palmtree.math.core.uint\palmtree.math.core.uint\autogenerated_inline_func.h

; 59   :     c = _ADD_UNIT(c, xp[17], yp[17], &zp[17]);

	mov	rax, QWORD PTR [rdx+136]
; File z:\sources\lunor\repos\rougemeilland\palmtree.math.core.uint\palmtree.math.core.uint\pmc_inline_func.h

; 210  :         return (_addcarry_u64(carry, u, v, w));

	adc	rax, QWORD PTR [r8+136]
	mov	QWORD PTR [r9+136], rax
; File z:\sources\lunor\repos\rougemeilland\palmtree.math.core.uint\palmtree.math.core.uint\autogenerated_inline_func.h

; 60   :     c = _ADD_UNIT(c, xp[18], yp[18], &zp[18]);

	mov	rax, QWORD PTR [rdx+144]
; File z:\sources\lunor\repos\rougemeilland\palmtree.math.core.uint\palmtree.math.core.uint\pmc_inline_func.h

; 210  :         return (_addcarry_u64(carry, u, v, w));

	adc	rax, QWORD PTR [r8+144]
	mov	QWORD PTR [r9+144], rax
; File z:\sources\lunor\repos\rougemeilland\palmtree.math.core.uint\palmtree.math.core.uint\autogenerated_inline_func.h

; 61   :     c = _ADD_UNIT(c, xp[19], yp[19], &zp[19]);

	mov	rax, QWORD PTR [rdx+152]
; File z:\sources\lunor\repos\rougemeilland\palmtree.math.core.uint\palmtree.math.core.uint\pmc_inline_func.h

; 210  :         return (_addcarry_u64(carry, u, v, w));

	adc	rax, QWORD PTR [r8+152]
	mov	QWORD PTR [r9+152], rax
; File z:\sources\lunor\repos\rougemeilland\palmtree.math.core.uint\palmtree.math.core.uint\autogenerated_inline_func.h

; 62   :     c = _ADD_UNIT(c, xp[20], yp[20], &zp[20]);

	mov	rax, QWORD PTR [rdx+160]
; File z:\sources\lunor\repos\rougemeilland\palmtree.math.core.uint\palmtree.math.core.uint\pmc_inline_func.h

; 210  :         return (_addcarry_u64(carry, u, v, w));

	adc	rax, QWORD PTR [r8+160]
	mov	QWORD PTR [r9+160], rax
; File z:\sources\lunor\repos\rougemeilland\palmtree.math.core.uint\palmtree.math.core.uint\autogenerated_inline_func.h

; 63   :     c = _ADD_UNIT(c, xp[21], yp[21], &zp[21]);

	mov	rax, QWORD PTR [rdx+168]
; File z:\sources\lunor\repos\rougemeilland\palmtree.math.core.uint\palmtree.math.core.uint\pmc_inline_func.h

; 210  :         return (_addcarry_u64(carry, u, v, w));

	adc	rax, QWORD PTR [r8+168]
	mov	QWORD PTR [r9+168], rax
; File z:\sources\lunor\repos\rougemeilland\palmtree.math.core.uint\palmtree.math.core.uint\autogenerated_inline_func.h

; 64   :     c = _ADD_UNIT(c, xp[22], yp[22], &zp[22]);

	mov	rax, QWORD PTR [rdx+176]
; File z:\sources\lunor\repos\rougemeilland\palmtree.math.core.uint\palmtree.math.core.uint\pmc_inline_func.h

; 210  :         return (_addcarry_u64(carry, u, v, w));

	adc	rax, QWORD PTR [r8+176]
	mov	QWORD PTR [r9+176], rax
; File z:\sources\lunor\repos\rougemeilland\palmtree.math.core.uint\palmtree.math.core.uint\autogenerated_inline_func.h

; 65   :     c = _ADD_UNIT(c, xp[23], yp[23], &zp[23]);

	mov	rax, QWORD PTR [rdx+184]
; File z:\sources\lunor\repos\rougemeilland\palmtree.math.core.uint\palmtree.math.core.uint\pmc_inline_func.h

; 210  :         return (_addcarry_u64(carry, u, v, w));

	adc	rax, QWORD PTR [r8+184]
	mov	QWORD PTR [r9+184], rax
; File z:\sources\lunor\repos\rougemeilland\palmtree.math.core.uint\palmtree.math.core.uint\autogenerated_inline_func.h

; 66   :     c = _ADD_UNIT(c, xp[24], yp[24], &zp[24]);

	mov	rax, QWORD PTR [rdx+192]
; File z:\sources\lunor\repos\rougemeilland\palmtree.math.core.uint\palmtree.math.core.uint\pmc_inline_func.h

; 210  :         return (_addcarry_u64(carry, u, v, w));

	adc	rax, QWORD PTR [r8+192]
	mov	QWORD PTR [r9+192], rax
; File z:\sources\lunor\repos\rougemeilland\palmtree.math.core.uint\palmtree.math.core.uint\autogenerated_inline_func.h

; 67   :     c = _ADD_UNIT(c, xp[25], yp[25], &zp[25]);

	mov	rax, QWORD PTR [rdx+200]
; File z:\sources\lunor\repos\rougemeilland\palmtree.math.core.uint\palmtree.math.core.uint\pmc_inline_func.h

; 210  :         return (_addcarry_u64(carry, u, v, w));

	adc	rax, QWORD PTR [r8+200]
	mov	QWORD PTR [r9+200], rax
; File z:\sources\lunor\repos\rougemeilland\palmtree.math.core.uint\palmtree.math.core.uint\autogenerated_inline_func.h

; 68   :     c = _ADD_UNIT(c, xp[26], yp[26], &zp[26]);

	mov	rax, QWORD PTR [rdx+208]
; File z:\sources\lunor\repos\rougemeilland\palmtree.math.core.uint\palmtree.math.core.uint\pmc_inline_func.h

; 210  :         return (_addcarry_u64(carry, u, v, w));

	adc	rax, QWORD PTR [r8+208]
	mov	QWORD PTR [r9+208], rax
; File z:\sources\lunor\repos\rougemeilland\palmtree.math.core.uint\palmtree.math.core.uint\autogenerated_inline_func.h

; 69   :     c = _ADD_UNIT(c, xp[27], yp[27], &zp[27]);

	mov	rax, QWORD PTR [rdx+216]
; File z:\sources\lunor\repos\rougemeilland\palmtree.math.core.uint\palmtree.math.core.uint\pmc_inline_func.h

; 210  :         return (_addcarry_u64(carry, u, v, w));

	adc	rax, QWORD PTR [r8+216]
	mov	QWORD PTR [r9+216], rax
; File z:\sources\lunor\repos\rougemeilland\palmtree.math.core.uint\palmtree.math.core.uint\autogenerated_inline_func.h

; 70   :     c = _ADD_UNIT(c, xp[28], yp[28], &zp[28]);

	mov	rax, QWORD PTR [rdx+224]
; File z:\sources\lunor\repos\rougemeilland\palmtree.math.core.uint\palmtree.math.core.uint\pmc_inline_func.h

; 210  :         return (_addcarry_u64(carry, u, v, w));

	adc	rax, QWORD PTR [r8+224]
	mov	QWORD PTR [r9+224], rax
; File z:\sources\lunor\repos\rougemeilland\palmtree.math.core.uint\palmtree.math.core.uint\autogenerated_inline_func.h

; 71   :     c = _ADD_UNIT(c, xp[29], yp[29], &zp[29]);

	mov	rax, QWORD PTR [rdx+232]
; File z:\sources\lunor\repos\rougemeilland\palmtree.math.core.uint\palmtree.math.core.uint\pmc_inline_func.h

; 210  :         return (_addcarry_u64(carry, u, v, w));

	adc	rax, QWORD PTR [r8+232]
	mov	QWORD PTR [r9+232], rax
; File z:\sources\lunor\repos\rougemeilland\palmtree.math.core.uint\palmtree.math.core.uint\autogenerated_inline_func.h

; 72   :     c = _ADD_UNIT(c, xp[30], yp[30], &zp[30]);

	mov	rax, QWORD PTR [rdx+240]
; File z:\sources\lunor\repos\rougemeilland\palmtree.math.core.uint\palmtree.math.core.uint\pmc_inline_func.h

; 210  :         return (_addcarry_u64(carry, u, v, w));

	adc	rax, QWORD PTR [r8+240]
	mov	QWORD PTR [r9+240], rax
; File z:\sources\lunor\repos\rougemeilland\palmtree.math.core.uint\palmtree.math.core.uint\autogenerated_inline_func.h

; 73   :     c = _ADD_UNIT(c, xp[31], yp[31], &zp[31]);

	mov	rcx, QWORD PTR [rdx+248]
; File z:\sources\lunor\repos\rougemeilland\palmtree.math.core.uint\palmtree.math.core.uint\pmc_inline_func.h

; 210  :         return (_addcarry_u64(carry, u, v, w));

	adc	rcx, QWORD PTR [r8+248]
	mov	QWORD PTR [r9+248], rcx
	setb	al
; File z:\sources\lunor\repos\rougemeilland\palmtree.math.core.uint\palmtree.math.core.uint\autogenerated_inline_func.h

; 290  : }

	ret	0
_ADD_32WORDS_ADC ENDP
_TEXT	ENDS
; Function compile flags: /Ogtpy
; File z:\sources\lunor\repos\rougemeilland\palmtree.math.core.uint\palmtree.math.core.uint\pmc_inline_func.h
;	COMDAT _LZCNT_ALT_UNIT
_TEXT	SEGMENT
x$ = 8
_LZCNT_ALT_UNIT PROC					; COMDAT

; 623  :         if (x == 0)

	test	rcx, rcx
	jne	SHORT $LN2@LZCNT_ALT_

; 624  :             return (sizeof(x) * 8);

	mov	eax, 64					; 00000040H

; 648  :     }

	ret	0
$LN2@LZCNT_ALT_:

; 625  : #ifdef _M_IX86
; 626  :         _UINT32_T pos;
; 627  : #ifdef _MSC_VER
; 628  :         _BitScanReverse(&pos, x);
; 629  : #elif defined(__GNUC__)
; 630  :         __asm__("bsrl %1, %0" : "=r"(pos) : "rm"(x));
; 631  : #else
; 632  : #error unknown compiler
; 633  : #endif
; 634  : #elif defined(_M_X64)
; 635  : #ifdef _MSC_VER
; 636  :         _UINT32_T pos;
; 637  :         _BitScanReverse64(&pos, x);

	bsr	rcx, rcx

; 638  : #elif defined(__GNUC__)
; 639  :         _UINT64_T pos;
; 640  :         __asm__("bsrq %1, %0" : "=r"(pos) : "rm"(x));
; 641  : #else
; 642  : #error unknown compiler
; 643  : #endif
; 644  : #else
; 645  : #error unknown platform
; 646  : #endif
; 647  :         return (sizeof(x) * 8 - 1 - pos);

	mov	eax, 63					; 0000003fH
	sub	eax, ecx

; 648  :     }

	ret	0
_LZCNT_ALT_UNIT ENDP
_TEXT	ENDS
; Function compile flags: /Ogtpy
; File z:\sources\lunor\repos\rougemeilland\palmtree.math.core.uint\palmtree.math.core.uint\pmc_inline_func.h
;	COMDAT _LZCNT_ALT_32
_TEXT	SEGMENT
x$ = 8
_LZCNT_ALT_32 PROC					; COMDAT

; 590  :         if (x == 0)

	test	ecx, ecx
	jne	SHORT $LN2@LZCNT_ALT_

; 591  :             return (sizeof(x) * 8);

	mov	eax, 32					; 00000020H

; 601  :     }

	ret	0
$LN2@LZCNT_ALT_:

; 592  :         _UINT32_T pos;
; 593  : #ifdef _MSC_VER
; 594  :         _BitScanReverse(&pos, x);

	bsr	ecx, ecx

; 595  : #elif defined(__GNUC__)
; 596  :         __asm__("bsrl %1, %0" : "=r"(pos) : "rm"(x));
; 597  : #else
; 598  : #error unknown compiler
; 599  : #endif
; 600  :         return (sizeof(x) * 8 - 1 - pos);

	mov	eax, 31
	sub	eax, ecx

; 601  :     }

	ret	0
_LZCNT_ALT_32 ENDP
_TEXT	ENDS
; Function compile flags: /Ogtpy
; File z:\sources\lunor\repos\rougemeilland\palmtree.math.core.uint\palmtree.math.core.uint\pmc_inline_func.h
;	COMDAT _ADDX_UNIT
_TEXT	SEGMENT
carry$ = 8
u$ = 16
v$ = 24
w$ = 32
_ADDX_UNIT PROC						; COMDAT

; 235  : #ifdef _M_IX86
; 236  :         return (_addcarryx_u32(carry, u, v, w));
; 237  : #elif defined(_M_X64)
; 238  :         return (_addcarryx_u64(carry, u, v, w));

	add	cl, -1
	adcx	rdx, r8
	mov	QWORD PTR [r9], rdx
	setb	al

; 239  : #else
; 240  : #error unknown platform
; 241  : #endif
; 242  :     }

	ret	0
_ADDX_UNIT ENDP
_TEXT	ENDS
; Function compile flags: /Ogtpy
; File z:\sources\lunor\repos\rougemeilland\palmtree.math.core.uint\palmtree.math.core.uint\pmc_inline_func.h
;	COMDAT _ADD_UNIT
_TEXT	SEGMENT
carry$ = 8
u$ = 16
v$ = 24
w$ = 32
_ADD_UNIT PROC						; COMDAT

; 207  : #ifdef _M_IX86
; 208  :         return (_addcarry_u32(carry, u, v, w));
; 209  : #elif defined(_M_X64)
; 210  :         return (_addcarry_u64(carry, u, v, w));

	add	cl, -1
	adc	rdx, r8
	mov	QWORD PTR [r9], rdx
	setb	al

; 211  : #else
; 212  : #error unknown platform
; 213  : #endif
; 214  :     }

	ret	0
_ADD_UNIT ENDP
_TEXT	ENDS
; Function compile flags: /Ogtpy
; File z:\sources\lunor\repos\rougemeilland\palmtree.math.core.uint\palmtree.math.core.uint\pmc_inline_func.h
;	COMDAT _MAXIMUM_UNIT
_TEXT	SEGMENT
x$ = 8
y$ = 16
_MAXIMUM_UNIT PROC					; COMDAT

; 197  :         return (x >= y ? x : y);

	cmp	rcx, rdx
	cmovae	rdx, rcx
	mov	rax, rdx

; 198  :     }

	ret	0
_MAXIMUM_UNIT ENDP
_TEXT	ENDS
; Function compile flags: /Ogtpy
; File z:\sources\lunor\repos\rougemeilland\palmtree.math.core.uint\palmtree.math.core.uint\pmc_inline_func.h
;	COMDAT _FROMDWORDTOWORD
_TEXT	SEGMENT
value$ = 8
result_high$ = 16
_FROMDWORDTOWORD PROC					; COMDAT

; 176  :         *result_high = (_UINT32_T)(value >> 32);

	mov	rax, rcx
	shr	rax, 32					; 00000020H
	mov	DWORD PTR [rdx], eax

; 177  :         return ((_UINT32_T)value);

	mov	eax, ecx

; 178  :     }

	ret	0
_FROMDWORDTOWORD ENDP
_TEXT	ENDS
; Function compile flags: /Ogtpy
; File z:\sources\lunor\repos\rougemeilland\palmtree.math.core.uint\palmtree.math.core.uint\pmc_add.c
; File z:\sources\lunor\repos\rougemeilland\palmtree.math.core.uint\palmtree.math.core.uint\pmc_inline_func.h
; File z:\sources\lunor\repos\rougemeilland\palmtree.math.core.uint\palmtree.math.core.uint\pmc_add.c
; File z:\sources\lunor\repos\rougemeilland\palmtree.math.core.uint\palmtree.math.core.uint\pmc_inline_func.h
; File z:\sources\lunor\repos\rougemeilland\palmtree.math.core.uint\palmtree.math.core.uint\pmc_add.c
;	COMDAT PMC_Add_X_X
_TEXT	SEGMENT
nw$ = 64
u$ = 64
v$ = 72
w$ = 80
w_light_check_code$1 = 88
PMC_Add_X_X PROC					; COMDAT

; 551  : {

$LN24:
	mov	QWORD PTR [rsp+16], rbx
	mov	QWORD PTR [rsp+24], rsi
	push	rdi
	sub	rsp, 48					; 00000030H
	mov	rsi, r8
	mov	rbx, rdx
	mov	rdi, rcx

; 552  :     if (u == NULL)

	test	rcx, rcx
	je	$LN21@PMC_Add_X_

; 553  :         return (PMC_STATUS_ARGUMENT_ERROR);
; 554  :     if (v == NULL)

	test	rdx, rdx
	je	$LN21@PMC_Add_X_

; 555  :         return (PMC_STATUS_ARGUMENT_ERROR);
; 556  :     if (w == NULL)

	test	r8, r8
	je	$LN21@PMC_Add_X_

; 558  :     NUMBER_HEADER* nu = (NUMBER_HEADER*)u;
; 559  :     NUMBER_HEADER* nv = (NUMBER_HEADER*)v;
; 560  :     PMC_STATUS_CODE result;
; 561  :     if ((result = CheckNumber(nu)) != PMC_STATUS_OK)

	call	CheckNumber
	test	eax, eax
	jne	$LN1@PMC_Add_X_

; 562  :         return (result);
; 563  :     if ((result = CheckNumber(nv)) != PMC_STATUS_OK)

	mov	rcx, rbx
	call	CheckNumber
	test	eax, eax
	jne	$LN1@PMC_Add_X_

; 564  :         return (result);
; 565  :     NUMBER_HEADER* nw;
; 566  :     if (nu->IS_ZERO)

	mov	eax, DWORD PTR [rbx+40]
	and	eax, 2
	test	BYTE PTR [rdi+40], 2
	je	SHORT $LN7@PMC_Add_X_

; 567  :     {
; 568  :         if (nv->IS_ZERO)

	test	eax, eax
	je	SHORT $LN9@PMC_Add_X_

; 569  :             nw = &number_zero;

	lea	rax, OFFSET FLAT:number_zero

; 599  :         }
; 600  :     }
; 601  :     *w = nw;

	mov	QWORD PTR [rsi], rax

; 602  : #ifdef _DEBUG
; 603  :     if ((result = CheckNumber(*w)) != PMC_STATUS_OK)
; 604  :         return (result);
; 605  : #endif
; 606  :     return (PMC_STATUS_OK);

	xor	eax, eax

; 607  : }

	mov	rbx, QWORD PTR [rsp+72]
	mov	rsi, QWORD PTR [rsp+80]
	add	rsp, 48					; 00000030H
	pop	rdi
	ret	0
$LN9@PMC_Add_X_:

; 570  :         else
; 571  :         {
; 572  :             if ((result = DuplicateNumber(nv, &nw)) != PMC_STATUS_OK)

	lea	rdx, QWORD PTR nw$[rsp]
	mov	rcx, rbx
	call	DuplicateNumber
	test	eax, eax
	je	$LN22@PMC_Add_X_

; 607  : }

	mov	rbx, QWORD PTR [rsp+72]
	mov	rsi, QWORD PTR [rsp+80]
	add	rsp, 48					; 00000030H
	pop	rdi
	ret	0
$LN7@PMC_Add_X_:

; 573  :                 return (result);
; 574  :         }
; 575  :     }
; 576  :     else
; 577  :     {
; 578  :         if (nv->IS_ZERO)

	test	eax, eax
	je	SHORT $LN12@PMC_Add_X_

; 579  :         {
; 580  :             if ((result = DuplicateNumber(nu, &nw)) != PMC_STATUS_OK)

	lea	rdx, QWORD PTR nw$[rsp]
	mov	rcx, rdi
	call	DuplicateNumber
	test	eax, eax
	jne	$LN1@PMC_Add_X_

; 599  :         }
; 600  :     }
; 601  :     *w = nw;

	mov	rax, QWORD PTR nw$[rsp]
	mov	QWORD PTR [rsi], rax

; 602  : #ifdef _DEBUG
; 603  :     if ((result = CheckNumber(*w)) != PMC_STATUS_OK)
; 604  :         return (result);
; 605  : #endif
; 606  :     return (PMC_STATUS_OK);

	xor	eax, eax

; 607  : }

	mov	rbx, QWORD PTR [rsp+72]
	mov	rsi, QWORD PTR [rsp+80]
	add	rsp, 48					; 00000030H
	pop	rdi
	ret	0
$LN12@PMC_Add_X_:

; 581  :                 return (result);
; 582  :         }
; 583  :         else
; 584  :         {
; 585  :             __UNIT_TYPE u_bit_count = nu->UNIT_BIT_COUNT;
; 586  :             __UNIT_TYPE v_bit_count = nv->UNIT_BIT_COUNT;

	mov	rdx, QWORD PTR [rbx+16]

; 589  :             if ((result = AllocateNumber(&nw, w_bit_count, &w_light_check_code)) != PMC_STATUS_OK)

	lea	r8, QWORD PTR w_light_check_code$1[rsp]
; File z:\sources\lunor\repos\rougemeilland\palmtree.math.core.uint\palmtree.math.core.uint\pmc_inline_func.h

; 197  :         return (x >= y ? x : y);

	cmp	QWORD PTR [rdi+16], rdx
; File z:\sources\lunor\repos\rougemeilland\palmtree.math.core.uint\palmtree.math.core.uint\pmc_add.c

; 589  :             if ((result = AllocateNumber(&nw, w_bit_count, &w_light_check_code)) != PMC_STATUS_OK)

	lea	rcx, QWORD PTR nw$[rsp]
; File z:\sources\lunor\repos\rougemeilland\palmtree.math.core.uint\palmtree.math.core.uint\pmc_inline_func.h

; 197  :         return (x >= y ? x : y);

	cmovae	rdx, QWORD PTR [rdi+16]
; File z:\sources\lunor\repos\rougemeilland\palmtree.math.core.uint\palmtree.math.core.uint\pmc_add.c

; 587  :             __UNIT_TYPE w_bit_count = _MAXIMUM_UNIT(u_bit_count, v_bit_count) + 1;

	inc	rdx

; 589  :             if ((result = AllocateNumber(&nw, w_bit_count, &w_light_check_code)) != PMC_STATUS_OK)

	call	AllocateNumber
	test	eax, eax
	jne	$LN1@PMC_Add_X_

; 590  :                 return (result);
; 591  :             if ((result = (*fp_Add_Imp)(nu->BLOCK, nu->UNIT_WORD_COUNT, nv->BLOCK, nv->UNIT_WORD_COUNT, nw->BLOCK, nw->BLOCK_COUNT)) != PMC_STATUS_OK)

	mov	rcx, QWORD PTR nw$[rsp]
	mov	r9, QWORD PTR [rbx+8]
	mov	r8, QWORD PTR [rbx+56]
	mov	rdx, QWORD PTR [rdi+8]
	mov	rax, QWORD PTR [rcx+48]
	mov	QWORD PTR [rsp+40], rax
	mov	rax, QWORD PTR [rcx+56]
	mov	rcx, QWORD PTR [rdi+56]
	mov	QWORD PTR [rsp+32], rax
	call	QWORD PTR fp_Add_Imp
	mov	rcx, QWORD PTR nw$[rsp]
	mov	ebx, eax
	test	eax, eax
	je	SHORT $LN16@PMC_Add_X_

; 592  :             {
; 593  :                 DeallocateNumber(nw);

	call	DeallocateNumber

; 594  :                 return (result);

	mov	eax, ebx

; 607  : }

	mov	rbx, QWORD PTR [rsp+72]
	mov	rsi, QWORD PTR [rsp+80]
	add	rsp, 48					; 00000030H
	pop	rdi
	ret	0
$LN16@PMC_Add_X_:

; 595  :             }
; 596  :             if ((result = CheckBlockLight(nw->BLOCK, w_light_check_code)) != PMC_STATUS_OK)

	mov	rdx, QWORD PTR w_light_check_code$1[rsp]
	mov	rcx, QWORD PTR [rcx+56]
	call	CheckBlockLight
	test	eax, eax
	jne	SHORT $LN1@PMC_Add_X_

; 597  :                 return (result);
; 598  :             CommitNumber(nw);

	mov	rcx, QWORD PTR nw$[rsp]
	call	CommitNumber
$LN22@PMC_Add_X_:

; 599  :         }
; 600  :     }
; 601  :     *w = nw;

	mov	rax, QWORD PTR nw$[rsp]
	mov	QWORD PTR [rsi], rax

; 602  : #ifdef _DEBUG
; 603  :     if ((result = CheckNumber(*w)) != PMC_STATUS_OK)
; 604  :         return (result);
; 605  : #endif
; 606  :     return (PMC_STATUS_OK);

	xor	eax, eax

; 607  : }

	mov	rbx, QWORD PTR [rsp+72]
	mov	rsi, QWORD PTR [rsp+80]
	add	rsp, 48					; 00000030H
	pop	rdi
	ret	0
$LN21@PMC_Add_X_:

; 557  :         return (PMC_STATUS_ARGUMENT_ERROR);

	mov	eax, -1
$LN1@PMC_Add_X_:

; 607  : }

	mov	rbx, QWORD PTR [rsp+72]
	mov	rsi, QWORD PTR [rsp+80]
	add	rsp, 48					; 00000030H
	pop	rdi
	ret	0
PMC_Add_X_X ENDP
_TEXT	ENDS
; Function compile flags: /Ogtpy
; File z:\sources\lunor\repos\rougemeilland\palmtree.math.core.uint\palmtree.math.core.uint\pmc_add.c
;	COMDAT PMC_Add_X_L
_TEXT	SEGMENT
u$ = 48
v$ = 56
w$ = 64
PMC_Add_X_L PROC					; COMDAT

; 528  : {

$LN10:
	mov	QWORD PTR [rsp+8], rbx
	mov	QWORD PTR [rsp+16], rsi
	push	rdi
	sub	rsp, 32					; 00000020H
	mov	rdi, r8
	mov	rsi, rdx
	mov	rbx, rcx

; 529  :     if (__UNIT_TYPE_BIT_COUNT * 2 < sizeof(v) * 8)
; 530  :     {
; 531  :         // _UINT64_T が 2 ワードで表現しきれない処理系には対応しない
; 532  :         return (PMC_STATUS_INTERNAL_ERROR);
; 533  :     }
; 534  :     if (u == NULL)

	test	rcx, rcx
	je	SHORT $LN8@PMC_Add_X_

; 535  :         return (PMC_STATUS_ARGUMENT_ERROR);
; 536  :     if (w == NULL)

	test	r8, r8
	je	SHORT $LN8@PMC_Add_X_

; 538  :     PMC_STATUS_CODE result;
; 539  :     if ((result = CheckNumber((NUMBER_HEADER*)u)) != PMC_STATUS_OK)

	call	CheckNumber
	test	eax, eax
	jne	SHORT $LN6@PMC_Add_X_

; 540  :         return (result);
; 541  :     if ((result = PMC_Add_X_L_Imp((NUMBER_HEADER*)u, v, (NUMBER_HEADER**)w)) != PMC_STATUS_OK)

	mov	r8, rdi
	mov	rdx, rsi
	mov	rcx, rbx

; 542  :         return (result);
; 543  : #ifdef _DEBUG
; 544  :     if ((result = CheckNumber(*w)) != PMC_STATUS_OK)
; 545  :         return (result);
; 546  : #endif
; 547  :     return (PMC_STATUS_OK);
; 548  : }

	mov	rbx, QWORD PTR [rsp+48]
	mov	rsi, QWORD PTR [rsp+56]
	add	rsp, 32					; 00000020H
	pop	rdi

; 540  :         return (result);
; 541  :     if ((result = PMC_Add_X_L_Imp((NUMBER_HEADER*)u, v, (NUMBER_HEADER**)w)) != PMC_STATUS_OK)

	jmp	PMC_Add_X_L_Imp
$LN8@PMC_Add_X_:

; 537  :         return (PMC_STATUS_ARGUMENT_ERROR);

	mov	eax, -1
$LN6@PMC_Add_X_:

; 542  :         return (result);
; 543  : #ifdef _DEBUG
; 544  :     if ((result = CheckNumber(*w)) != PMC_STATUS_OK)
; 545  :         return (result);
; 546  : #endif
; 547  :     return (PMC_STATUS_OK);
; 548  : }

	mov	rbx, QWORD PTR [rsp+48]
	mov	rsi, QWORD PTR [rsp+56]
	add	rsp, 32					; 00000020H
	pop	rdi
	ret	0
PMC_Add_X_L ENDP
_TEXT	ENDS
; Function compile flags: /Ogtpy
; File z:\sources\lunor\repos\rougemeilland\palmtree.math.core.uint\palmtree.math.core.uint\pmc_add.c
;	COMDAT PMC_Add_X_I
_TEXT	SEGMENT
u$ = 48
v$ = 56
w$ = 64
PMC_Add_X_I PROC					; COMDAT

; 376  : {

$LN10:
	mov	QWORD PTR [rsp+8], rbx
	mov	QWORD PTR [rsp+16], rsi
	push	rdi
	sub	rsp, 32					; 00000020H
	mov	rdi, r8
	mov	esi, edx
	mov	rbx, rcx

; 377  :     if (__UNIT_TYPE_BIT_COUNT < sizeof(v) * 8)
; 378  :     {
; 379  :         // _UINT32_T が 1 ワードで表現しきれない処理系には対応しない
; 380  :         return (PMC_STATUS_INTERNAL_ERROR);
; 381  :     }
; 382  :     if (u == NULL)

	test	rcx, rcx
	je	SHORT $LN8@PMC_Add_X_

; 383  :         return (PMC_STATUS_ARGUMENT_ERROR);
; 384  :     if (w == NULL)

	test	r8, r8
	je	SHORT $LN8@PMC_Add_X_

; 386  :     PMC_STATUS_CODE result;
; 387  :     if ((result = CheckNumber((NUMBER_HEADER*)u)) != PMC_STATUS_OK)

	call	CheckNumber
	test	eax, eax
	jne	SHORT $LN6@PMC_Add_X_

; 388  :         return (result);
; 389  :     if ((result = PMC_Add_X_I_Imp((NUMBER_HEADER*)u, v, (NUMBER_HEADER**)w)) != PMC_STATUS_OK)

	mov	r8, rdi
	mov	edx, esi
	mov	rcx, rbx

; 390  :         return (result);
; 391  : #ifdef _DEBUG
; 392  :     if ((result = CheckNumber(*w)) != PMC_STATUS_OK)
; 393  :         return (result);
; 394  : #endif
; 395  :     return (PMC_STATUS_OK);
; 396  : }

	mov	rbx, QWORD PTR [rsp+48]
	mov	rsi, QWORD PTR [rsp+56]
	add	rsp, 32					; 00000020H
	pop	rdi

; 388  :         return (result);
; 389  :     if ((result = PMC_Add_X_I_Imp((NUMBER_HEADER*)u, v, (NUMBER_HEADER**)w)) != PMC_STATUS_OK)

	jmp	PMC_Add_X_I_Imp
$LN8@PMC_Add_X_:

; 385  :         return (PMC_STATUS_ARGUMENT_ERROR);

	mov	eax, -1
$LN6@PMC_Add_X_:

; 390  :         return (result);
; 391  : #ifdef _DEBUG
; 392  :     if ((result = CheckNumber(*w)) != PMC_STATUS_OK)
; 393  :         return (result);
; 394  : #endif
; 395  :     return (PMC_STATUS_OK);
; 396  : }

	mov	rbx, QWORD PTR [rsp+48]
	mov	rsi, QWORD PTR [rsp+56]
	add	rsp, 32					; 00000020H
	pop	rdi
	ret	0
PMC_Add_X_I ENDP
_TEXT	ENDS
; Function compile flags: /Ogtpy
; File z:\sources\lunor\repos\rougemeilland\palmtree.math.core.uint\palmtree.math.core.uint\pmc_add.c
;	COMDAT PMC_Add_L_X
_TEXT	SEGMENT
u$ = 48
v$ = 56
w$ = 64
PMC_Add_L_X PROC					; COMDAT

; 505  : {

$LN10:
	mov	QWORD PTR [rsp+8], rbx
	mov	QWORD PTR [rsp+16], rsi
	push	rdi
	sub	rsp, 32					; 00000020H
	mov	rdi, r8
	mov	rbx, rdx
	mov	rsi, rcx

; 506  :     if (__UNIT_TYPE_BIT_COUNT * 2 < sizeof(u) * 8)
; 507  :     {
; 508  :         // _UINT64_T が 2 ワードで表現しきれない処理系には対応しない
; 509  :         return (PMC_STATUS_INTERNAL_ERROR);
; 510  :     }
; 511  :     if (v == NULL)

	test	rdx, rdx
	je	SHORT $LN8@PMC_Add_L_

; 512  :         return (PMC_STATUS_ARGUMENT_ERROR);
; 513  :     if (w == NULL)

	test	r8, r8
	je	SHORT $LN8@PMC_Add_L_

; 515  :     PMC_STATUS_CODE result;
; 516  :     if ((result = CheckNumber((NUMBER_HEADER*)v)) != PMC_STATUS_OK)

	mov	rcx, rdx
	call	CheckNumber
	test	eax, eax
	jne	SHORT $LN6@PMC_Add_L_

; 517  :         return (result);
; 518  :     if ((result = PMC_Add_X_L_Imp((NUMBER_HEADER*)v, u, (NUMBER_HEADER**)w)) != PMC_STATUS_OK)

	mov	r8, rdi
	mov	rdx, rsi
	mov	rcx, rbx

; 519  :         return (result);
; 520  : #ifdef _DEBUG
; 521  :     if ((result = CheckNumber(*w)) != PMC_STATUS_OK)
; 522  :         return (result);
; 523  : #endif
; 524  :     return (PMC_STATUS_OK);
; 525  : }

	mov	rbx, QWORD PTR [rsp+48]
	mov	rsi, QWORD PTR [rsp+56]
	add	rsp, 32					; 00000020H
	pop	rdi

; 517  :         return (result);
; 518  :     if ((result = PMC_Add_X_L_Imp((NUMBER_HEADER*)v, u, (NUMBER_HEADER**)w)) != PMC_STATUS_OK)

	jmp	PMC_Add_X_L_Imp
$LN8@PMC_Add_L_:

; 514  :         return (PMC_STATUS_ARGUMENT_ERROR);

	mov	eax, -1
$LN6@PMC_Add_L_:

; 519  :         return (result);
; 520  : #ifdef _DEBUG
; 521  :     if ((result = CheckNumber(*w)) != PMC_STATUS_OK)
; 522  :         return (result);
; 523  : #endif
; 524  :     return (PMC_STATUS_OK);
; 525  : }

	mov	rbx, QWORD PTR [rsp+48]
	mov	rsi, QWORD PTR [rsp+56]
	add	rsp, 32					; 00000020H
	pop	rdi
	ret	0
PMC_Add_L_X ENDP
_TEXT	ENDS
; Function compile flags: /Ogtpy
; File z:\sources\lunor\repos\rougemeilland\palmtree.math.core.uint\palmtree.math.core.uint\pmc_add.c
;	COMDAT PMC_Add_I_X
_TEXT	SEGMENT
u$ = 48
v$ = 56
w$ = 64
PMC_Add_I_X PROC					; COMDAT

; 353  : {

$LN10:
	mov	QWORD PTR [rsp+8], rbx
	mov	QWORD PTR [rsp+16], rsi
	push	rdi
	sub	rsp, 32					; 00000020H
	mov	rdi, r8
	mov	rbx, rdx
	mov	esi, ecx

; 354  :     if (__UNIT_TYPE_BIT_COUNT < sizeof(u) * 8)
; 355  :     {
; 356  :         // _UINT32_T が 1 ワードで表現しきれない処理系には対応しない
; 357  :         return (PMC_STATUS_INTERNAL_ERROR);
; 358  :     }
; 359  :     if (v == NULL)

	test	rdx, rdx
	je	SHORT $LN8@PMC_Add_I_

; 360  :         return (PMC_STATUS_ARGUMENT_ERROR);
; 361  :     if (w == NULL)

	test	r8, r8
	je	SHORT $LN8@PMC_Add_I_

; 363  :     PMC_STATUS_CODE result;
; 364  :     if ((result = CheckNumber((NUMBER_HEADER*)v)) != PMC_STATUS_OK)

	mov	rcx, rdx
	call	CheckNumber
	test	eax, eax
	jne	SHORT $LN6@PMC_Add_I_

; 365  :         return (result);
; 366  :     if ((result = PMC_Add_X_I_Imp((NUMBER_HEADER*)v, u, (NUMBER_HEADER**)w)) != PMC_STATUS_OK)

	mov	r8, rdi
	mov	edx, esi
	mov	rcx, rbx

; 367  :         return (result);
; 368  : #ifdef _DEBUG
; 369  :     if ((result = CheckNumber(*w)) != PMC_STATUS_OK)
; 370  :         return (result);
; 371  : #endif
; 372  :     return (PMC_STATUS_OK);
; 373  : }

	mov	rbx, QWORD PTR [rsp+48]
	mov	rsi, QWORD PTR [rsp+56]
	add	rsp, 32					; 00000020H
	pop	rdi

; 365  :         return (result);
; 366  :     if ((result = PMC_Add_X_I_Imp((NUMBER_HEADER*)v, u, (NUMBER_HEADER**)w)) != PMC_STATUS_OK)

	jmp	PMC_Add_X_I_Imp
$LN8@PMC_Add_I_:

; 362  :         return (PMC_STATUS_ARGUMENT_ERROR);

	mov	eax, -1
$LN6@PMC_Add_I_:

; 367  :         return (result);
; 368  : #ifdef _DEBUG
; 369  :     if ((result = CheckNumber(*w)) != PMC_STATUS_OK)
; 370  :         return (result);
; 371  : #endif
; 372  :     return (PMC_STATUS_OK);
; 373  : }

	mov	rbx, QWORD PTR [rsp+48]
	mov	rsi, QWORD PTR [rsp+56]
	add	rsp, 32					; 00000020H
	pop	rdi
	ret	0
PMC_Add_I_X ENDP
_TEXT	ENDS
; Function compile flags: /Ogtpy
; File z:\sources\lunor\repos\rougemeilland\palmtree.math.core.uint\palmtree.math.core.uint\pmc_add.c
;	COMDAT Initialize_Add
_TEXT	SEGMENT
feature$ = 8
Initialize_Add PROC					; COMDAT

; 611  :     fp_Add_Imp = feature->PROCESSOR_FEATURE_ADX ? Add_Imp_using_ADCX : Add_Imp_using_ADC;

	test	BYTE PTR [rcx], 2
	lea	rax, OFFSET FLAT:Add_Imp_using_ADC
	lea	rcx, OFFSET FLAT:Add_Imp_using_ADCX
	cmovne	rax, rcx
	mov	QWORD PTR fp_Add_Imp, rax

; 612  :     return (PMC_STATUS_OK);

	xor	eax, eax

; 613  : }

	ret	0
Initialize_Add ENDP
_TEXT	ENDS
END
