; Listing generated by Microsoft (R) Optimizing Compiler Version 19.16.27027.1 

include listing.inc

INCLUDELIB MSVCRT
INCLUDELIB OLDNAMES

PUBLIC	??1exception@std@@UEAA@XZ			; std::exception::~exception
PUBLIC	?what@exception@std@@UEBAPEBDXZ			; std::exception::what
PUBLIC	??_Gexception@std@@UEAAPEAXI@Z			; std::exception::`scalar deleting destructor'
PUBLIC	??0Exception@Internal@Core@Math@Palmtree@@QEAA@AEBV01234@@Z ; Palmtree::Math::Core::Internal::Exception::Exception
PUBLIC	??1Exception@Internal@Core@Math@Palmtree@@UEAA@XZ ; Palmtree::Math::Core::Internal::Exception::~Exception
PUBLIC	??_GException@Internal@Core@Math@Palmtree@@UEAAPEAXI@Z ; Palmtree::Math::Core::Internal::Exception::`scalar deleting destructor'
PUBLIC	??0ArgumentNullException@Internal@Core@Math@Palmtree@@QEAA@PEB_W0@Z ; Palmtree::Math::Core::Internal::ArgumentNullException::ArgumentNullException
PUBLIC	??0ArgumentNullException@Internal@Core@Math@Palmtree@@QEAA@AEBV01234@@Z ; Palmtree::Math::Core::Internal::ArgumentNullException::ArgumentNullException
PUBLIC	??1ArgumentNullException@Internal@Core@Math@Palmtree@@UEAA@XZ ; Palmtree::Math::Core::Internal::ArgumentNullException::~ArgumentNullException
PUBLIC	??_GArgumentNullException@Internal@Core@Math@Palmtree@@UEAAPEAXI@Z ; Palmtree::Math::Core::Internal::ArgumentNullException::`scalar deleting destructor'
PUBLIC	??0FormatException@Internal@Core@Math@Palmtree@@QEAA@PEB_W@Z ; Palmtree::Math::Core::Internal::FormatException::FormatException
PUBLIC	??0FormatException@Internal@Core@Math@Palmtree@@QEAA@AEBV01234@@Z ; Palmtree::Math::Core::Internal::FormatException::FormatException
PUBLIC	??1FormatException@Internal@Core@Math@Palmtree@@UEAA@XZ ; Palmtree::Math::Core::Internal::FormatException::~FormatException
PUBLIC	??_GFormatException@Internal@Core@Math@Palmtree@@UEAAPEAXI@Z ; Palmtree::Math::Core::Internal::FormatException::`scalar deleting destructor'
PUBLIC	??0InsufficientBufferException@Internal@Core@Math@Palmtree@@QEAA@PEB_W@Z ; Palmtree::Math::Core::Internal::InsufficientBufferException::InsufficientBufferException
PUBLIC	??0InsufficientBufferException@Internal@Core@Math@Palmtree@@QEAA@AEBV01234@@Z ; Palmtree::Math::Core::Internal::InsufficientBufferException::InsufficientBufferException
PUBLIC	??1InsufficientBufferException@Internal@Core@Math@Palmtree@@UEAA@XZ ; Palmtree::Math::Core::Internal::InsufficientBufferException::~InsufficientBufferException
PUBLIC	??_GInsufficientBufferException@Internal@Core@Math@Palmtree@@UEAAPEAXI@Z ; Palmtree::Math::Core::Internal::InsufficientBufferException::`scalar deleting destructor'
PUBLIC	??0NotSupportedException@Internal@Core@Math@Palmtree@@QEAA@PEB_W@Z ; Palmtree::Math::Core::Internal::NotSupportedException::NotSupportedException
PUBLIC	??0NotSupportedException@Internal@Core@Math@Palmtree@@QEAA@AEBV01234@@Z ; Palmtree::Math::Core::Internal::NotSupportedException::NotSupportedException
PUBLIC	??1NotSupportedException@Internal@Core@Math@Palmtree@@UEAA@XZ ; Palmtree::Math::Core::Internal::NotSupportedException::~NotSupportedException
PUBLIC	??_GNotSupportedException@Internal@Core@Math@Palmtree@@UEAAPEAXI@Z ; Palmtree::Math::Core::Internal::NotSupportedException::`scalar deleting destructor'
PUBLIC	??0InternalErrorException@Internal@Core@Math@Palmtree@@QEAA@PEB_W0@Z ; Palmtree::Math::Core::Internal::InternalErrorException::InternalErrorException
PUBLIC	??0InternalErrorException@Internal@Core@Math@Palmtree@@QEAA@AEBV01234@@Z ; Palmtree::Math::Core::Internal::InternalErrorException::InternalErrorException
PUBLIC	??1InternalErrorException@Internal@Core@Math@Palmtree@@UEAA@XZ ; Palmtree::Math::Core::Internal::InternalErrorException::~InternalErrorException
PUBLIC	??_GInternalErrorException@Internal@Core@Math@Palmtree@@UEAAPEAXI@Z ; Palmtree::Math::Core::Internal::InternalErrorException::`scalar deleting destructor'
PUBLIC	?PeekChar@StringReader@Internal@Core@Math@Palmtree@@UEAA_WXZ ; Palmtree::Math::Core::Internal::StringReader::PeekChar
PUBLIC	?Progress@StringReader@Internal@Core@Math@Palmtree@@UEAAXXZ ; Palmtree::Math::Core::Internal::StringReader::Progress
PUBLIC	?StartsWith@StringReader@Internal@Core@Math@Palmtree@@UEAAHPEB_W@Z ; Palmtree::Math::Core::Internal::StringReader::StartsWith
PUBLIC	?SkipString@StringReader@Internal@Core@Math@Palmtree@@UEAAXPEB_W@Z ; Palmtree::Math::Core::Internal::StringReader::SkipString
PUBLIC	?PeekChar@ReverseStringReader@Internal@Core@Math@Palmtree@@UEAA_WXZ ; Palmtree::Math::Core::Internal::ReverseStringReader::PeekChar
PUBLIC	?Progress@ReverseStringReader@Internal@Core@Math@Palmtree@@UEAAXXZ ; Palmtree::Math::Core::Internal::ReverseStringReader::Progress
PUBLIC	?StartsWith@ReverseStringReader@Internal@Core@Math@Palmtree@@UEAAHPEB_W@Z ; Palmtree::Math::Core::Internal::ReverseStringReader::StartsWith
PUBLIC	?SkipString@ReverseStringReader@Internal@Core@Math@Palmtree@@UEAAXPEB_W@Z ; Palmtree::Math::Core::Internal::ReverseStringReader::SkipString
PUBLIC	?Write@StringWriter@Internal@Core@Math@Palmtree@@UEAAX_W@Z ; Palmtree::Math::Core::Internal::StringWriter::Write
PUBLIC	?Write@StringWriter@Internal@Core@Math@Palmtree@@UEAAXPEB_W@Z ; Palmtree::Math::Core::Internal::StringWriter::Write
PUBLIC	?GetString@StringWriter@Internal@Core@Math@Palmtree@@UEAAPEA_WXZ ; Palmtree::Math::Core::Internal::StringWriter::GetString
PUBLIC	?Write@ReverseStringWriter@Internal@Core@Math@Palmtree@@UEAAX_W@Z ; Palmtree::Math::Core::Internal::ReverseStringWriter::Write
PUBLIC	?Write@ReverseStringWriter@Internal@Core@Math@Palmtree@@UEAAXPEB_W@Z ; Palmtree::Math::Core::Internal::ReverseStringWriter::Write
PUBLIC	?GetString@ReverseStringWriter@Internal@Core@Math@Palmtree@@UEAAPEA_WXZ ; Palmtree::Math::Core::Internal::ReverseStringWriter::GetString
PUBLIC	?InitializeNumberFormatoInfo@Internal@Core@Math@Palmtree@@YAXPEAU__tag_PMC_NUMBER_FORMAT_INFO@1234@@Z ; Palmtree::Math::Core::Internal::InitializeNumberFormatoInfo
PUBLIC	?Initialize_ToString@Internal@Core@Math@Palmtree@@YAHPEAU_tag_PROCESSOR_FEATURES@1234@@Z ; Palmtree::Math::Core::Internal::Initialize_ToString
PUBLIC	?PMC_InitializeNumberFormatInfo@Internal@Core@Math@Palmtree@@YAXPEAU__tag_PMC_NUMBER_FORMAT_INFO@1234@@Z ; Palmtree::Math::Core::Internal::PMC_InitializeNumberFormatInfo
PUBLIC	?PMC_ToString@Internal@Core@Math@Palmtree@@YA_KPEAU__tag_PMC_HANDLE_UINT@1234@PEB_WPEBU__tag_PMC_NUMBER_FORMAT_INFO@1234@PEA_W_K@Z ; Palmtree::Math::Core::Internal::PMC_ToString
PUBLIC	?Write@ThousandSeparatedStringWriter@DecimalFromatter@Internal@Core@Math@Palmtree@@UEAAX_W@Z ; Palmtree::Math::Core::Internal::DecimalFromatter::ThousandSeparatedStringWriter::Write
PUBLIC	?Write@ThousandSeparatedStringWriter@DecimalFromatter@Internal@Core@Math@Palmtree@@UEAAXPEB_W@Z ; Palmtree::Math::Core::Internal::DecimalFromatter::ThousandSeparatedStringWriter::Write
PUBLIC	?GetString@ThousandSeparatedStringWriter@DecimalFromatter@Internal@Core@Math@Palmtree@@UEAAPEA_WXZ ; Palmtree::Math::Core::Internal::DecimalFromatter::ThousandSeparatedStringWriter::GetString
PUBLIC	?Format@Formatter@DecimalFromatter@Internal@Core@Math@Palmtree@@QEAAXDPEAU__tag_NUMBER_HEADER@3456@PEAVStringWriter@3456@@Z ; Palmtree::Math::Core::Internal::DecimalFromatter::Formatter::Format
PUBLIC	?FormatInternally@Formatter@DecimalFromatter@Internal@Core@Math@Palmtree@@MEAAXPEAU__tag_NUMBER_HEADER@3456@PEAVStringWriter@3456@@Z ; Palmtree::Math::Core::Internal::DecimalFromatter::Formatter::FormatInternally
PUBLIC	?WriteTrailingWord@Formatter@DecimalFromatter@Internal@Core@Math@Palmtree@@AEAAXPEAVStringWriter@3456@_K@Z ; Palmtree::Math::Core::Internal::DecimalFromatter::Formatter::WriteTrailingWord
PUBLIC	?GetDefaultPrecisionValue@FormatterTypeC@DecimalFromatter@Internal@Core@Math@Palmtree@@MEAAHXZ ; Palmtree::Math::Core::Internal::DecimalFromatter::FormatterTypeC::GetDefaultPrecisionValue
PUBLIC	?WriteZeroValue@FormatterTypeC@DecimalFromatter@Internal@Core@Math@Palmtree@@MEAAXPEAVStringWriter@3456@@Z ; Palmtree::Math::Core::Internal::DecimalFromatter::FormatterTypeC::WriteZeroValue
PUBLIC	?WritePrefix@FormatterTypeC@DecimalFromatter@Internal@Core@Math@Palmtree@@MEAAXDPEAVStringWriter@3456@@Z ; Palmtree::Math::Core::Internal::DecimalFromatter::FormatterTypeC::WritePrefix
PUBLIC	?FormatNumberSequence@FormatterTypeC@DecimalFromatter@Internal@Core@Math@Palmtree@@MEAAXPEB_WPEAVStringWriter@3456@@Z ; Palmtree::Math::Core::Internal::DecimalFromatter::FormatterTypeC::FormatNumberSequence
PUBLIC	?WriteSuffix@FormatterTypeC@DecimalFromatter@Internal@Core@Math@Palmtree@@MEAAXDPEAVStringWriter@3456@@Z ; Palmtree::Math::Core::Internal::DecimalFromatter::FormatterTypeC::WriteSuffix
PUBLIC	?GetDefaultPrecisionValue@FormatterTypeD@DecimalFromatter@Internal@Core@Math@Palmtree@@MEAAHXZ ; Palmtree::Math::Core::Internal::DecimalFromatter::FormatterTypeD::GetDefaultPrecisionValue
PUBLIC	?WriteZeroValue@FormatterTypeD@DecimalFromatter@Internal@Core@Math@Palmtree@@MEAAXPEAVStringWriter@3456@@Z ; Palmtree::Math::Core::Internal::DecimalFromatter::FormatterTypeD::WriteZeroValue
PUBLIC	?WritePrefix@FormatterTypeD@DecimalFromatter@Internal@Core@Math@Palmtree@@MEAAXDPEAVStringWriter@3456@@Z ; Palmtree::Math::Core::Internal::DecimalFromatter::FormatterTypeD::WritePrefix
PUBLIC	?FormatNumberSequence@FormatterTypeD@DecimalFromatter@Internal@Core@Math@Palmtree@@MEAAXPEB_WPEAVStringWriter@3456@@Z ; Palmtree::Math::Core::Internal::DecimalFromatter::FormatterTypeD::FormatNumberSequence
PUBLIC	?WriteSuffix@FormatterTypeD@DecimalFromatter@Internal@Core@Math@Palmtree@@MEAAXDPEAVStringWriter@3456@@Z ; Palmtree::Math::Core::Internal::DecimalFromatter::FormatterTypeD::WriteSuffix
PUBLIC	?GetDefaultPrecisionValue@FormatterTypeE@DecimalFromatter@Internal@Core@Math@Palmtree@@MEAAHXZ ; Palmtree::Math::Core::Internal::DecimalFromatter::FormatterTypeE::GetDefaultPrecisionValue
PUBLIC	?WriteZeroValue@FormatterTypeE@DecimalFromatter@Internal@Core@Math@Palmtree@@MEAAXPEAVStringWriter@3456@@Z ; Palmtree::Math::Core::Internal::DecimalFromatter::FormatterTypeE::WriteZeroValue
PUBLIC	?FormatInternally@FormatterTypeE@DecimalFromatter@Internal@Core@Math@Palmtree@@MEAAXPEAU__tag_NUMBER_HEADER@3456@PEAVStringWriter@3456@@Z ; Palmtree::Math::Core::Internal::DecimalFromatter::FormatterTypeE::FormatInternally
PUBLIC	?WritePrefix@FormatterTypeE@DecimalFromatter@Internal@Core@Math@Palmtree@@MEAAXDPEAVStringWriter@3456@@Z ; Palmtree::Math::Core::Internal::DecimalFromatter::FormatterTypeE::WritePrefix
PUBLIC	?FormatNumberSequence@FormatterTypeE@DecimalFromatter@Internal@Core@Math@Palmtree@@MEAAXPEB_WPEAVStringWriter@3456@@Z ; Palmtree::Math::Core::Internal::DecimalFromatter::FormatterTypeE::FormatNumberSequence
PUBLIC	?WriteSuffix@FormatterTypeE@DecimalFromatter@Internal@Core@Math@Palmtree@@MEAAXDPEAVStringWriter@3456@@Z ; Palmtree::Math::Core::Internal::DecimalFromatter::FormatterTypeE::WriteSuffix
PUBLIC	?GetDefaultPrecisionValue@FormatterTypeF@DecimalFromatter@Internal@Core@Math@Palmtree@@MEAAHXZ ; Palmtree::Math::Core::Internal::DecimalFromatter::FormatterTypeF::GetDefaultPrecisionValue
PUBLIC	?WriteZeroValue@FormatterTypeF@DecimalFromatter@Internal@Core@Math@Palmtree@@MEAAXPEAVStringWriter@3456@@Z ; Palmtree::Math::Core::Internal::DecimalFromatter::FormatterTypeF::WriteZeroValue
PUBLIC	?WritePrefix@FormatterTypeF@DecimalFromatter@Internal@Core@Math@Palmtree@@MEAAXDPEAVStringWriter@3456@@Z ; Palmtree::Math::Core::Internal::DecimalFromatter::FormatterTypeF::WritePrefix
PUBLIC	?FormatNumberSequence@FormatterTypeF@DecimalFromatter@Internal@Core@Math@Palmtree@@MEAAXPEB_WPEAVStringWriter@3456@@Z ; Palmtree::Math::Core::Internal::DecimalFromatter::FormatterTypeF::FormatNumberSequence
PUBLIC	?WriteSuffix@FormatterTypeF@DecimalFromatter@Internal@Core@Math@Palmtree@@MEAAXDPEAVStringWriter@3456@@Z ; Palmtree::Math::Core::Internal::DecimalFromatter::FormatterTypeF::WriteSuffix
PUBLIC	?GetDefaultPrecisionValue@FormatterTypeN@DecimalFromatter@Internal@Core@Math@Palmtree@@MEAAHXZ ; Palmtree::Math::Core::Internal::DecimalFromatter::FormatterTypeN::GetDefaultPrecisionValue
PUBLIC	?WriteZeroValue@FormatterTypeN@DecimalFromatter@Internal@Core@Math@Palmtree@@MEAAXPEAVStringWriter@3456@@Z ; Palmtree::Math::Core::Internal::DecimalFromatter::FormatterTypeN::WriteZeroValue
PUBLIC	?WritePrefix@FormatterTypeN@DecimalFromatter@Internal@Core@Math@Palmtree@@MEAAXDPEAVStringWriter@3456@@Z ; Palmtree::Math::Core::Internal::DecimalFromatter::FormatterTypeN::WritePrefix
PUBLIC	?FormatNumberSequence@FormatterTypeN@DecimalFromatter@Internal@Core@Math@Palmtree@@MEAAXPEB_WPEAVStringWriter@3456@@Z ; Palmtree::Math::Core::Internal::DecimalFromatter::FormatterTypeN::FormatNumberSequence
PUBLIC	?WriteSuffix@FormatterTypeN@DecimalFromatter@Internal@Core@Math@Palmtree@@MEAAXDPEAVStringWriter@3456@@Z ; Palmtree::Math::Core::Internal::DecimalFromatter::FormatterTypeN::WriteSuffix
PUBLIC	?GetDefaultPrecisionValue@FormatterTypeP@DecimalFromatter@Internal@Core@Math@Palmtree@@MEAAHXZ ; Palmtree::Math::Core::Internal::DecimalFromatter::FormatterTypeP::GetDefaultPrecisionValue
PUBLIC	?WriteZeroValue@FormatterTypeP@DecimalFromatter@Internal@Core@Math@Palmtree@@MEAAXPEAVStringWriter@3456@@Z ; Palmtree::Math::Core::Internal::DecimalFromatter::FormatterTypeP::WriteZeroValue
PUBLIC	?FormatInternally@FormatterTypeP@DecimalFromatter@Internal@Core@Math@Palmtree@@MEAAXPEAU__tag_NUMBER_HEADER@3456@PEAVStringWriter@3456@@Z ; Palmtree::Math::Core::Internal::DecimalFromatter::FormatterTypeP::FormatInternally
PUBLIC	?WritePrefix@FormatterTypeP@DecimalFromatter@Internal@Core@Math@Palmtree@@MEAAXDPEAVStringWriter@3456@@Z ; Palmtree::Math::Core::Internal::DecimalFromatter::FormatterTypeP::WritePrefix
PUBLIC	?FormatNumberSequence@FormatterTypeP@DecimalFromatter@Internal@Core@Math@Palmtree@@MEAAXPEB_WPEAVStringWriter@3456@@Z ; Palmtree::Math::Core::Internal::DecimalFromatter::FormatterTypeP::FormatNumberSequence
PUBLIC	?WriteSuffix@FormatterTypeP@DecimalFromatter@Internal@Core@Math@Palmtree@@MEAAXDPEAVStringWriter@3456@@Z ; Palmtree::Math::Core::Internal::DecimalFromatter::FormatterTypeP::WriteSuffix
PUBLIC	??_7exception@std@@6B@				; std::exception::`vftable'
PUBLIC	??_C@_0BC@EOODALEL@Unknown?5exception@		; `string'
PUBLIC	??_7Exception@Internal@Core@Math@Palmtree@@6B@	; Palmtree::Math::Core::Internal::Exception::`vftable'
PUBLIC	??_7ArgumentNullException@Internal@Core@Math@Palmtree@@6B@ ; Palmtree::Math::Core::Internal::ArgumentNullException::`vftable'
PUBLIC	??_7FormatException@Internal@Core@Math@Palmtree@@6B@ ; Palmtree::Math::Core::Internal::FormatException::`vftable'
PUBLIC	??_7InsufficientBufferException@Internal@Core@Math@Palmtree@@6B@ ; Palmtree::Math::Core::Internal::InsufficientBufferException::`vftable'
PUBLIC	??_7NotSupportedException@Internal@Core@Math@Palmtree@@6B@ ; Palmtree::Math::Core::Internal::NotSupportedException::`vftable'
PUBLIC	??_7InternalErrorException@Internal@Core@Math@Palmtree@@6B@ ; Palmtree::Math::Core::Internal::InternalErrorException::`vftable'
PUBLIC	??_7StringReader@Internal@Core@Math@Palmtree@@6B@ ; Palmtree::Math::Core::Internal::StringReader::`vftable'
PUBLIC	_TI2?AVInternalErrorException@Internal@Core@Math@Palmtree@@
PUBLIC	_CTA2?AVInternalErrorException@Internal@Core@Math@Palmtree@@
PUBLIC	??_R0?AVInternalErrorException@Internal@Core@Math@Palmtree@@@8 ; Palmtree::Math::Core::Internal::InternalErrorException `RTTI Type Descriptor'
PUBLIC	_CT??_R0?AVInternalErrorException@Internal@Core@Math@Palmtree@@@8??0InternalErrorException@Internal@Core@Math@Palmtree@@QEAA@AEBV01234@@Z48
PUBLIC	??_R0?AVException@Internal@Core@Math@Palmtree@@@8 ; Palmtree::Math::Core::Internal::Exception `RTTI Type Descriptor'
PUBLIC	_CT??_R0?AVException@Internal@Core@Math@Palmtree@@@8??0Exception@Internal@Core@Math@Palmtree@@QEAA@AEBV01234@@Z48
PUBLIC	??_C@_1FA@CNGEABBJ@?$AAp?$AAm?$AAc?$AA_?$AAs?$AAt?$AAr?$AAi?$AAn?$AAg?$AAi?$AAo?$AA?4?$AAh?$AA?$DL@ ; `string'
PUBLIC	??_C@_1BM@FCPAHMHB@?$PP?$IF?$PP?h?$PP?$KI?$PP?i?$PP?$PM?$AAL?$AAz?$AA?$BP?$AAW?$AA?$HO?$AAW?$AA_?$AA?$AC@ ; `string'
PUBLIC	??_C@_1FE@KONPIGEM@?$AAp?$AAm?$AAc?$AA_?$AAs?$AAt?$AAr?$AAi?$AAn?$AAg?$AAi?$AAo?$AA?4?$AAh?$AA?$DL@ ; `string'
PUBLIC	??_7ReverseStringReader@Internal@Core@Math@Palmtree@@6B@ ; Palmtree::Math::Core::Internal::ReverseStringReader::`vftable'
PUBLIC	??_C@_1FO@BNHGDLLE@?$AAp?$AAm?$AAc?$AA_?$AAs?$AAt?$AAr?$AAi?$AAn?$AAg?$AAi?$AAo?$AA?4?$AAh?$AA?$DL@ ; `string'
PUBLIC	??_C@_1GC@GGAPGHKN@?$AAp?$AAm?$AAc?$AA_?$AAs?$AAt?$AAr?$AAi?$AAn?$AAg?$AAi?$AAo?$AA?4?$AAh?$AA?$DL@ ; `string'
PUBLIC	??_7StringWriter@Internal@Core@Math@Palmtree@@6B@ ; Palmtree::Math::Core::Internal::StringWriter::`vftable'
PUBLIC	_TI2?AVInsufficientBufferException@Internal@Core@Math@Palmtree@@
PUBLIC	_CTA2?AVInsufficientBufferException@Internal@Core@Math@Palmtree@@
PUBLIC	??_R0?AVInsufficientBufferException@Internal@Core@Math@Palmtree@@@8 ; Palmtree::Math::Core::Internal::InsufficientBufferException `RTTI Type Descriptor'
PUBLIC	_CT??_R0?AVInsufficientBufferException@Internal@Core@Math@Palmtree@@@8??0InsufficientBufferException@Internal@Core@Math@Palmtree@@QEAA@AEBV01234@@Z48
PUBLIC	??_C@_1CO@JABAMCFP@?$PP?x?$AAM?$PP?$LM?$AA?$HP?$AAH?$PP?P?$PP?C?$PP?U?$PP?$KB?$AAn?$PP?$LF?$PP?$KE?$PP?$LK?$AAL?$AA?$AN@ ; `string'
PUBLIC	??_7ReverseStringWriter@Internal@Core@Math@Palmtree@@6B@ ; Palmtree::Math::Core::Internal::ReverseStringWriter::`vftable'
PUBLIC	??_7ThousandSeparatedStringWriter@DecimalFromatter@Internal@Core@Math@Palmtree@@6B@ ; Palmtree::Math::Core::Internal::DecimalFromatter::ThousandSeparatedStringWriter::`vftable'
PUBLIC	??_7Formatter@DecimalFromatter@Internal@Core@Math@Palmtree@@6B@ ; Palmtree::Math::Core::Internal::DecimalFromatter::Formatter::`vftable'
PUBLIC	??_C@_1EK@CCPHDNPL@?$AAp?$AAm?$AAc?$AA_?$AAt?$AAo?$AAs?$AAt?$AAr?$AAi?$AAn?$AAg?$AA?4?$AAc?$AAp@ ; `string'
PUBLIC	??_7FormatterTypeC@DecimalFromatter@Internal@Core@Math@Palmtree@@6B@ ; Palmtree::Math::Core::Internal::DecimalFromatter::FormatterTypeC::`vftable'
PUBLIC	??_7FormatterTypeD@DecimalFromatter@Internal@Core@Math@Palmtree@@6B@ ; Palmtree::Math::Core::Internal::DecimalFromatter::FormatterTypeD::`vftable'
PUBLIC	??_7FormatterTypeE@DecimalFromatter@Internal@Core@Math@Palmtree@@6B@ ; Palmtree::Math::Core::Internal::DecimalFromatter::FormatterTypeE::`vftable'
PUBLIC	??_C@_19NKFEMDNP@?$AA?$CL?$AA0?$AA0?$AA0@	; `string'
PUBLIC	??_C@_19GGGBJDH@?$AA?$CF?$AA0?$AA3?$AAd@	; `string'
PUBLIC	??_7FormatterTypeF@DecimalFromatter@Internal@Core@Math@Palmtree@@6B@ ; Palmtree::Math::Core::Internal::DecimalFromatter::FormatterTypeF::`vftable'
PUBLIC	??_7FormatterTypeN@DecimalFromatter@Internal@Core@Math@Palmtree@@6B@ ; Palmtree::Math::Core::Internal::DecimalFromatter::FormatterTypeN::`vftable'
PUBLIC	??_7FormatterTypeP@DecimalFromatter@Internal@Core@Math@Palmtree@@6B@ ; Palmtree::Math::Core::Internal::DecimalFromatter::FormatterTypeP::`vftable'
PUBLIC	_TI2?AVNotSupportedException@Internal@Core@Math@Palmtree@@
PUBLIC	_CTA2?AVNotSupportedException@Internal@Core@Math@Palmtree@@
PUBLIC	??_R0?AVNotSupportedException@Internal@Core@Math@Palmtree@@@8 ; Palmtree::Math::Core::Internal::NotSupportedException `RTTI Type Descriptor'
PUBLIC	_CT??_R0?AVNotSupportedException@Internal@Core@Math@Palmtree@@@8??0NotSupportedException@Internal@Core@Math@Palmtree@@QEAA@AEBV01234@@Z48
PUBLIC	??_C@_1DO@MFGCBHKN@?$PP?$KL?$PP?$LJ?$PP?$LP?$PP?$OA?$PP?x?$AA?$AP?$AAk?$PP?$II?$PP?$IL?$AAT?$AAo?$AAS?$AAt?$AAr?$AAi@ ; `string'
PUBLIC	_TI2?AVFormatException@Internal@Core@Math@Palmtree@@
PUBLIC	_CTA2?AVFormatException@Internal@Core@Math@Palmtree@@
PUBLIC	??_R0?AVFormatException@Internal@Core@Math@Palmtree@@@8 ; Palmtree::Math::Core::Internal::FormatException `RTTI Type Descriptor'
PUBLIC	_CT??_R0?AVFormatException@Internal@Core@Math@Palmtree@@@8??0FormatException@Internal@Core@Math@Palmtree@@QEAA@AEBV01234@@Z48
PUBLIC	??_C@_1BI@BIIKHCEK@?$AA?$CK?$PP?e?$AAn?$PP?x?$AA?$AP?$AA?$AH?$PP?$JK?$AAP?$AAg?$AAY?$AA?$AC@ ; `string'
PUBLIC	_TI2?AVArgumentNullException@Internal@Core@Math@Palmtree@@
PUBLIC	_CTA2?AVArgumentNullException@Internal@Core@Math@Palmtree@@
PUBLIC	??_R0?AVArgumentNullException@Internal@Core@Math@Palmtree@@@8 ; Palmtree::Math::Core::Internal::ArgumentNullException `RTTI Type Descriptor'
PUBLIC	_CT??_R0?AVArgumentNullException@Internal@Core@Math@Palmtree@@@8??0ArgumentNullException@Internal@Core@Math@Palmtree@@QEAA@AEBV01234@@Z48
PUBLIC	??_C@_13HADAKIJA@?$AAx@				; `string'
PUBLIC	??_C@_1CK@ECFIEPAC@?$AA?$BF?$AAp?$AAk?$AAn?$AAu?$AAl?$AAl?$AAp?$AAt?$AAr?$AAL?$AA?$AO?$AAH?$PP?$IJ?$PP?$IM@ ; `string'
PUBLIC	??_C@_13JOFGPIOO@?$AA?4@			; `string'
PUBLIC	??_C@_13DEFPDAGF@?$AA?0@			; `string'
PUBLIC	??_C@_13DMCFHHKM@?$AA3@				; `string'
PUBLIC	??_C@_13BMLCKOLB@?$PP?$KE@			; `string'
PUBLIC	??_C@_13IMODFHAA@?$AA?9@			; `string'
PUBLIC	??_C@_13EJFHHPOP@?$AA?$CF@			; `string'
PUBLIC	??_C@_13BGNNJOKC@?$AA0@				; `string'
PUBLIC	??_C@_13KJIIAINM@?$AA?$CL@			; `string'
PUBLIC	??_R4exception@std@@6B@				; std::exception::`RTTI Complete Object Locator'
PUBLIC	??_R0?AVexception@std@@@8			; std::exception `RTTI Type Descriptor'
PUBLIC	??_R3exception@std@@8				; std::exception::`RTTI Class Hierarchy Descriptor'
PUBLIC	??_R2exception@std@@8				; std::exception::`RTTI Base Class Array'
PUBLIC	??_R1A@?0A@EA@exception@std@@8			; std::exception::`RTTI Base Class Descriptor at (0,-1,0,64)'
PUBLIC	??_R4Exception@Internal@Core@Math@Palmtree@@6B@	; Palmtree::Math::Core::Internal::Exception::`RTTI Complete Object Locator'
PUBLIC	??_R3Exception@Internal@Core@Math@Palmtree@@8	; Palmtree::Math::Core::Internal::Exception::`RTTI Class Hierarchy Descriptor'
PUBLIC	??_R2Exception@Internal@Core@Math@Palmtree@@8	; Palmtree::Math::Core::Internal::Exception::`RTTI Base Class Array'
PUBLIC	??_R1A@?0A@EA@Exception@Internal@Core@Math@Palmtree@@8 ; Palmtree::Math::Core::Internal::Exception::`RTTI Base Class Descriptor at (0,-1,0,64)'
PUBLIC	??_R1A@?0A@EN@exception@std@@8			; std::exception::`RTTI Base Class Descriptor at (0,-1,0,77)'
PUBLIC	??_R4ArgumentNullException@Internal@Core@Math@Palmtree@@6B@ ; Palmtree::Math::Core::Internal::ArgumentNullException::`RTTI Complete Object Locator'
PUBLIC	??_R3ArgumentNullException@Internal@Core@Math@Palmtree@@8 ; Palmtree::Math::Core::Internal::ArgumentNullException::`RTTI Class Hierarchy Descriptor'
PUBLIC	??_R2ArgumentNullException@Internal@Core@Math@Palmtree@@8 ; Palmtree::Math::Core::Internal::ArgumentNullException::`RTTI Base Class Array'
PUBLIC	??_R1A@?0A@EA@ArgumentNullException@Internal@Core@Math@Palmtree@@8 ; Palmtree::Math::Core::Internal::ArgumentNullException::`RTTI Base Class Descriptor at (0,-1,0,64)'
PUBLIC	??_R4FormatException@Internal@Core@Math@Palmtree@@6B@ ; Palmtree::Math::Core::Internal::FormatException::`RTTI Complete Object Locator'
PUBLIC	??_R3FormatException@Internal@Core@Math@Palmtree@@8 ; Palmtree::Math::Core::Internal::FormatException::`RTTI Class Hierarchy Descriptor'
PUBLIC	??_R2FormatException@Internal@Core@Math@Palmtree@@8 ; Palmtree::Math::Core::Internal::FormatException::`RTTI Base Class Array'
PUBLIC	??_R1A@?0A@EA@FormatException@Internal@Core@Math@Palmtree@@8 ; Palmtree::Math::Core::Internal::FormatException::`RTTI Base Class Descriptor at (0,-1,0,64)'
PUBLIC	??_R4InsufficientBufferException@Internal@Core@Math@Palmtree@@6B@ ; Palmtree::Math::Core::Internal::InsufficientBufferException::`RTTI Complete Object Locator'
PUBLIC	??_R3InsufficientBufferException@Internal@Core@Math@Palmtree@@8 ; Palmtree::Math::Core::Internal::InsufficientBufferException::`RTTI Class Hierarchy Descriptor'
PUBLIC	??_R2InsufficientBufferException@Internal@Core@Math@Palmtree@@8 ; Palmtree::Math::Core::Internal::InsufficientBufferException::`RTTI Base Class Array'
PUBLIC	??_R1A@?0A@EA@InsufficientBufferException@Internal@Core@Math@Palmtree@@8 ; Palmtree::Math::Core::Internal::InsufficientBufferException::`RTTI Base Class Descriptor at (0,-1,0,64)'
PUBLIC	??_R4NotSupportedException@Internal@Core@Math@Palmtree@@6B@ ; Palmtree::Math::Core::Internal::NotSupportedException::`RTTI Complete Object Locator'
PUBLIC	??_R3NotSupportedException@Internal@Core@Math@Palmtree@@8 ; Palmtree::Math::Core::Internal::NotSupportedException::`RTTI Class Hierarchy Descriptor'
PUBLIC	??_R2NotSupportedException@Internal@Core@Math@Palmtree@@8 ; Palmtree::Math::Core::Internal::NotSupportedException::`RTTI Base Class Array'
PUBLIC	??_R1A@?0A@EA@NotSupportedException@Internal@Core@Math@Palmtree@@8 ; Palmtree::Math::Core::Internal::NotSupportedException::`RTTI Base Class Descriptor at (0,-1,0,64)'
PUBLIC	??_R4InternalErrorException@Internal@Core@Math@Palmtree@@6B@ ; Palmtree::Math::Core::Internal::InternalErrorException::`RTTI Complete Object Locator'
PUBLIC	??_R3InternalErrorException@Internal@Core@Math@Palmtree@@8 ; Palmtree::Math::Core::Internal::InternalErrorException::`RTTI Class Hierarchy Descriptor'
PUBLIC	??_R2InternalErrorException@Internal@Core@Math@Palmtree@@8 ; Palmtree::Math::Core::Internal::InternalErrorException::`RTTI Base Class Array'
PUBLIC	??_R1A@?0A@EA@InternalErrorException@Internal@Core@Math@Palmtree@@8 ; Palmtree::Math::Core::Internal::InternalErrorException::`RTTI Base Class Descriptor at (0,-1,0,64)'
PUBLIC	??_R4StringReader@Internal@Core@Math@Palmtree@@6B@ ; Palmtree::Math::Core::Internal::StringReader::`RTTI Complete Object Locator'
PUBLIC	??_R0?AVStringReader@Internal@Core@Math@Palmtree@@@8 ; Palmtree::Math::Core::Internal::StringReader `RTTI Type Descriptor'
PUBLIC	??_R3StringReader@Internal@Core@Math@Palmtree@@8 ; Palmtree::Math::Core::Internal::StringReader::`RTTI Class Hierarchy Descriptor'
PUBLIC	??_R2StringReader@Internal@Core@Math@Palmtree@@8 ; Palmtree::Math::Core::Internal::StringReader::`RTTI Base Class Array'
PUBLIC	??_R1A@?0A@EA@StringReader@Internal@Core@Math@Palmtree@@8 ; Palmtree::Math::Core::Internal::StringReader::`RTTI Base Class Descriptor at (0,-1,0,64)'
PUBLIC	??_R4ReverseStringReader@Internal@Core@Math@Palmtree@@6B@ ; Palmtree::Math::Core::Internal::ReverseStringReader::`RTTI Complete Object Locator'
PUBLIC	??_R0?AVReverseStringReader@Internal@Core@Math@Palmtree@@@8 ; Palmtree::Math::Core::Internal::ReverseStringReader `RTTI Type Descriptor'
PUBLIC	??_R3ReverseStringReader@Internal@Core@Math@Palmtree@@8 ; Palmtree::Math::Core::Internal::ReverseStringReader::`RTTI Class Hierarchy Descriptor'
PUBLIC	??_R2ReverseStringReader@Internal@Core@Math@Palmtree@@8 ; Palmtree::Math::Core::Internal::ReverseStringReader::`RTTI Base Class Array'
PUBLIC	??_R1A@?0A@EA@ReverseStringReader@Internal@Core@Math@Palmtree@@8 ; Palmtree::Math::Core::Internal::ReverseStringReader::`RTTI Base Class Descriptor at (0,-1,0,64)'
PUBLIC	??_R4StringWriter@Internal@Core@Math@Palmtree@@6B@ ; Palmtree::Math::Core::Internal::StringWriter::`RTTI Complete Object Locator'
PUBLIC	??_R0?AVStringWriter@Internal@Core@Math@Palmtree@@@8 ; Palmtree::Math::Core::Internal::StringWriter `RTTI Type Descriptor'
PUBLIC	??_R3StringWriter@Internal@Core@Math@Palmtree@@8 ; Palmtree::Math::Core::Internal::StringWriter::`RTTI Class Hierarchy Descriptor'
PUBLIC	??_R2StringWriter@Internal@Core@Math@Palmtree@@8 ; Palmtree::Math::Core::Internal::StringWriter::`RTTI Base Class Array'
PUBLIC	??_R1A@?0A@EA@StringWriter@Internal@Core@Math@Palmtree@@8 ; Palmtree::Math::Core::Internal::StringWriter::`RTTI Base Class Descriptor at (0,-1,0,64)'
PUBLIC	??_R4ReverseStringWriter@Internal@Core@Math@Palmtree@@6B@ ; Palmtree::Math::Core::Internal::ReverseStringWriter::`RTTI Complete Object Locator'
PUBLIC	??_R0?AVReverseStringWriter@Internal@Core@Math@Palmtree@@@8 ; Palmtree::Math::Core::Internal::ReverseStringWriter `RTTI Type Descriptor'
PUBLIC	??_R3ReverseStringWriter@Internal@Core@Math@Palmtree@@8 ; Palmtree::Math::Core::Internal::ReverseStringWriter::`RTTI Class Hierarchy Descriptor'
PUBLIC	??_R2ReverseStringWriter@Internal@Core@Math@Palmtree@@8 ; Palmtree::Math::Core::Internal::ReverseStringWriter::`RTTI Base Class Array'
PUBLIC	??_R1A@?0A@EA@ReverseStringWriter@Internal@Core@Math@Palmtree@@8 ; Palmtree::Math::Core::Internal::ReverseStringWriter::`RTTI Base Class Descriptor at (0,-1,0,64)'
PUBLIC	??_R4ThousandSeparatedStringWriter@DecimalFromatter@Internal@Core@Math@Palmtree@@6B@ ; Palmtree::Math::Core::Internal::DecimalFromatter::ThousandSeparatedStringWriter::`RTTI Complete Object Locator'
PUBLIC	??_R0?AVThousandSeparatedStringWriter@DecimalFromatter@Internal@Core@Math@Palmtree@@@8 ; Palmtree::Math::Core::Internal::DecimalFromatter::ThousandSeparatedStringWriter `RTTI Type Descriptor'
PUBLIC	??_R3ThousandSeparatedStringWriter@DecimalFromatter@Internal@Core@Math@Palmtree@@8 ; Palmtree::Math::Core::Internal::DecimalFromatter::ThousandSeparatedStringWriter::`RTTI Class Hierarchy Descriptor'
PUBLIC	??_R2ThousandSeparatedStringWriter@DecimalFromatter@Internal@Core@Math@Palmtree@@8 ; Palmtree::Math::Core::Internal::DecimalFromatter::ThousandSeparatedStringWriter::`RTTI Base Class Array'
PUBLIC	??_R1A@?0A@EA@ThousandSeparatedStringWriter@DecimalFromatter@Internal@Core@Math@Palmtree@@8 ; Palmtree::Math::Core::Internal::DecimalFromatter::ThousandSeparatedStringWriter::`RTTI Base Class Descriptor at (0,-1,0,64)'
PUBLIC	??_R4Formatter@DecimalFromatter@Internal@Core@Math@Palmtree@@6B@ ; Palmtree::Math::Core::Internal::DecimalFromatter::Formatter::`RTTI Complete Object Locator'
PUBLIC	??_R0?AVFormatter@DecimalFromatter@Internal@Core@Math@Palmtree@@@8 ; Palmtree::Math::Core::Internal::DecimalFromatter::Formatter `RTTI Type Descriptor'
PUBLIC	??_R3Formatter@DecimalFromatter@Internal@Core@Math@Palmtree@@8 ; Palmtree::Math::Core::Internal::DecimalFromatter::Formatter::`RTTI Class Hierarchy Descriptor'
PUBLIC	??_R2Formatter@DecimalFromatter@Internal@Core@Math@Palmtree@@8 ; Palmtree::Math::Core::Internal::DecimalFromatter::Formatter::`RTTI Base Class Array'
PUBLIC	??_R1A@?0A@EA@Formatter@DecimalFromatter@Internal@Core@Math@Palmtree@@8 ; Palmtree::Math::Core::Internal::DecimalFromatter::Formatter::`RTTI Base Class Descriptor at (0,-1,0,64)'
PUBLIC	??_R4FormatterTypeC@DecimalFromatter@Internal@Core@Math@Palmtree@@6B@ ; Palmtree::Math::Core::Internal::DecimalFromatter::FormatterTypeC::`RTTI Complete Object Locator'
PUBLIC	??_R0?AVFormatterTypeC@DecimalFromatter@Internal@Core@Math@Palmtree@@@8 ; Palmtree::Math::Core::Internal::DecimalFromatter::FormatterTypeC `RTTI Type Descriptor'
PUBLIC	??_R3FormatterTypeC@DecimalFromatter@Internal@Core@Math@Palmtree@@8 ; Palmtree::Math::Core::Internal::DecimalFromatter::FormatterTypeC::`RTTI Class Hierarchy Descriptor'
PUBLIC	??_R2FormatterTypeC@DecimalFromatter@Internal@Core@Math@Palmtree@@8 ; Palmtree::Math::Core::Internal::DecimalFromatter::FormatterTypeC::`RTTI Base Class Array'
PUBLIC	??_R1A@?0A@EA@FormatterTypeC@DecimalFromatter@Internal@Core@Math@Palmtree@@8 ; Palmtree::Math::Core::Internal::DecimalFromatter::FormatterTypeC::`RTTI Base Class Descriptor at (0,-1,0,64)'
PUBLIC	??_R4FormatterTypeD@DecimalFromatter@Internal@Core@Math@Palmtree@@6B@ ; Palmtree::Math::Core::Internal::DecimalFromatter::FormatterTypeD::`RTTI Complete Object Locator'
PUBLIC	??_R0?AVFormatterTypeD@DecimalFromatter@Internal@Core@Math@Palmtree@@@8 ; Palmtree::Math::Core::Internal::DecimalFromatter::FormatterTypeD `RTTI Type Descriptor'
PUBLIC	??_R3FormatterTypeD@DecimalFromatter@Internal@Core@Math@Palmtree@@8 ; Palmtree::Math::Core::Internal::DecimalFromatter::FormatterTypeD::`RTTI Class Hierarchy Descriptor'
PUBLIC	??_R2FormatterTypeD@DecimalFromatter@Internal@Core@Math@Palmtree@@8 ; Palmtree::Math::Core::Internal::DecimalFromatter::FormatterTypeD::`RTTI Base Class Array'
PUBLIC	??_R1A@?0A@EA@FormatterTypeD@DecimalFromatter@Internal@Core@Math@Palmtree@@8 ; Palmtree::Math::Core::Internal::DecimalFromatter::FormatterTypeD::`RTTI Base Class Descriptor at (0,-1,0,64)'
PUBLIC	??_R4FormatterTypeE@DecimalFromatter@Internal@Core@Math@Palmtree@@6B@ ; Palmtree::Math::Core::Internal::DecimalFromatter::FormatterTypeE::`RTTI Complete Object Locator'
PUBLIC	??_R0?AVFormatterTypeE@DecimalFromatter@Internal@Core@Math@Palmtree@@@8 ; Palmtree::Math::Core::Internal::DecimalFromatter::FormatterTypeE `RTTI Type Descriptor'
PUBLIC	??_R3FormatterTypeE@DecimalFromatter@Internal@Core@Math@Palmtree@@8 ; Palmtree::Math::Core::Internal::DecimalFromatter::FormatterTypeE::`RTTI Class Hierarchy Descriptor'
PUBLIC	??_R2FormatterTypeE@DecimalFromatter@Internal@Core@Math@Palmtree@@8 ; Palmtree::Math::Core::Internal::DecimalFromatter::FormatterTypeE::`RTTI Base Class Array'
PUBLIC	??_R1A@?0A@EA@FormatterTypeE@DecimalFromatter@Internal@Core@Math@Palmtree@@8 ; Palmtree::Math::Core::Internal::DecimalFromatter::FormatterTypeE::`RTTI Base Class Descriptor at (0,-1,0,64)'
PUBLIC	??_R4FormatterTypeF@DecimalFromatter@Internal@Core@Math@Palmtree@@6B@ ; Palmtree::Math::Core::Internal::DecimalFromatter::FormatterTypeF::`RTTI Complete Object Locator'
PUBLIC	??_R0?AVFormatterTypeF@DecimalFromatter@Internal@Core@Math@Palmtree@@@8 ; Palmtree::Math::Core::Internal::DecimalFromatter::FormatterTypeF `RTTI Type Descriptor'
PUBLIC	??_R3FormatterTypeF@DecimalFromatter@Internal@Core@Math@Palmtree@@8 ; Palmtree::Math::Core::Internal::DecimalFromatter::FormatterTypeF::`RTTI Class Hierarchy Descriptor'
PUBLIC	??_R2FormatterTypeF@DecimalFromatter@Internal@Core@Math@Palmtree@@8 ; Palmtree::Math::Core::Internal::DecimalFromatter::FormatterTypeF::`RTTI Base Class Array'
PUBLIC	??_R1A@?0A@EA@FormatterTypeF@DecimalFromatter@Internal@Core@Math@Palmtree@@8 ; Palmtree::Math::Core::Internal::DecimalFromatter::FormatterTypeF::`RTTI Base Class Descriptor at (0,-1,0,64)'
PUBLIC	??_R4FormatterTypeN@DecimalFromatter@Internal@Core@Math@Palmtree@@6B@ ; Palmtree::Math::Core::Internal::DecimalFromatter::FormatterTypeN::`RTTI Complete Object Locator'
PUBLIC	??_R0?AVFormatterTypeN@DecimalFromatter@Internal@Core@Math@Palmtree@@@8 ; Palmtree::Math::Core::Internal::DecimalFromatter::FormatterTypeN `RTTI Type Descriptor'
PUBLIC	??_R3FormatterTypeN@DecimalFromatter@Internal@Core@Math@Palmtree@@8 ; Palmtree::Math::Core::Internal::DecimalFromatter::FormatterTypeN::`RTTI Class Hierarchy Descriptor'
PUBLIC	??_R2FormatterTypeN@DecimalFromatter@Internal@Core@Math@Palmtree@@8 ; Palmtree::Math::Core::Internal::DecimalFromatter::FormatterTypeN::`RTTI Base Class Array'
PUBLIC	??_R1A@?0A@EA@FormatterTypeN@DecimalFromatter@Internal@Core@Math@Palmtree@@8 ; Palmtree::Math::Core::Internal::DecimalFromatter::FormatterTypeN::`RTTI Base Class Descriptor at (0,-1,0,64)'
PUBLIC	??_R4FormatterTypeP@DecimalFromatter@Internal@Core@Math@Palmtree@@6B@ ; Palmtree::Math::Core::Internal::DecimalFromatter::FormatterTypeP::`RTTI Complete Object Locator'
PUBLIC	??_R0?AVFormatterTypeP@DecimalFromatter@Internal@Core@Math@Palmtree@@@8 ; Palmtree::Math::Core::Internal::DecimalFromatter::FormatterTypeP `RTTI Type Descriptor'
PUBLIC	??_R3FormatterTypeP@DecimalFromatter@Internal@Core@Math@Palmtree@@8 ; Palmtree::Math::Core::Internal::DecimalFromatter::FormatterTypeP::`RTTI Class Hierarchy Descriptor'
PUBLIC	??_R2FormatterTypeP@DecimalFromatter@Internal@Core@Math@Palmtree@@8 ; Palmtree::Math::Core::Internal::DecimalFromatter::FormatterTypeP::`RTTI Base Class Array'
PUBLIC	??_R1A@?0A@EA@FormatterTypeP@DecimalFromatter@Internal@Core@Math@Palmtree@@8 ; Palmtree::Math::Core::Internal::DecimalFromatter::FormatterTypeP::`RTTI Base Class Descriptor at (0,-1,0,64)'
EXTRN	_purecall:PROC
EXTRN	??3@YAXPEAX_K@Z:PROC				; operator delete
EXTRN	__imp_lstrcpyW:PROC
EXTRN	__imp_lstrlenW:PROC
EXTRN	__imp_wsprintfW:PROC
EXTRN	__std_exception_destroy:PROC
EXTRN	??_Eexception@std@@UEAAPEAXI@Z:PROC		; std::exception::`vector deleting destructor'
EXTRN	??_EException@Internal@Core@Math@Palmtree@@UEAAPEAXI@Z:PROC ; Palmtree::Math::Core::Internal::Exception::`vector deleting destructor'
EXTRN	??_EArgumentNullException@Internal@Core@Math@Palmtree@@UEAAPEAXI@Z:PROC ; Palmtree::Math::Core::Internal::ArgumentNullException::`vector deleting destructor'
EXTRN	??_EFormatException@Internal@Core@Math@Palmtree@@UEAAPEAXI@Z:PROC ; Palmtree::Math::Core::Internal::FormatException::`vector deleting destructor'
EXTRN	??_EInsufficientBufferException@Internal@Core@Math@Palmtree@@UEAAPEAXI@Z:PROC ; Palmtree::Math::Core::Internal::InsufficientBufferException::`vector deleting destructor'
EXTRN	??_ENotSupportedException@Internal@Core@Math@Palmtree@@UEAAPEAXI@Z:PROC ; Palmtree::Math::Core::Internal::NotSupportedException::`vector deleting destructor'
EXTRN	??_EInternalErrorException@Internal@Core@Math@Palmtree@@UEAAPEAXI@Z:PROC ; Palmtree::Math::Core::Internal::InternalErrorException::`vector deleting destructor'
EXTRN	?CheckNumber@Internal@Core@Math@Palmtree@@YAXPEAU__tag_NUMBER_HEADER@1234@@Z:PROC ; Palmtree::Math::Core::Internal::CheckNumber
EXTRN	?From_I_Imp@Internal@Core@Math@Palmtree@@YAPEAU__tag_NUMBER_HEADER@1234@I@Z:PROC ; Palmtree::Math::Core::Internal::From_I_Imp
EXTRN	?DivRem_X_1W@Internal@Core@Math@Palmtree@@YAXPEA_K_K100@Z:PROC ; Palmtree::Math::Core::Internal::DivRem_X_1W
EXTRN	?PMC_Add_X_X_Imp@Internal@Core@Math@Palmtree@@YAPEAU__tag_NUMBER_HEADER@1234@PEAU51234@0@Z:PROC ; Palmtree::Math::Core::Internal::PMC_Add_X_X_Imp
EXTRN	?PMC_Pow_X_L_Imp@Internal@Core@Math@Palmtree@@YAPEAU__tag_NUMBER_HEADER@1234@PEAU51234@_K@Z:PROC ; Palmtree::Math::Core::Internal::PMC_Pow_X_L_Imp
EXTRN	?PMC_Multiply_X_I_Imp@Internal@Core@Math@Palmtree@@YAPEAU__tag_NUMBER_HEADER@1234@PEAU51234@I@Z:PROC ; Palmtree::Math::Core::Internal::PMC_Multiply_X_I_Imp
EXTRN	??0ResourceHolderUINT@Internal@Core@Math@Palmtree@@QEAA@XZ:PROC ; Palmtree::Math::Core::Internal::ResourceHolderUINT::ResourceHolderUINT
EXTRN	??1ResourceHolderUINT@Internal@Core@Math@Palmtree@@UEAA@XZ:PROC ; Palmtree::Math::Core::Internal::ResourceHolderUINT::~ResourceHolderUINT
EXTRN	?AllocateBlock@ResourceHolderUINT@Internal@Core@Math@Palmtree@@QEAAPEA_K_K@Z:PROC ; Palmtree::Math::Core::Internal::ResourceHolderUINT::AllocateBlock
EXTRN	?ClearBlock@ResourceHolderUINT@Internal@Core@Math@Palmtree@@QEAAXPEA_K@Z:PROC ; Palmtree::Math::Core::Internal::ResourceHolderUINT::ClearBlock
EXTRN	?DeallocateBlock@ResourceHolderUINT@Internal@Core@Math@Palmtree@@QEAAXPEA_K@Z:PROC ; Palmtree::Math::Core::Internal::ResourceHolderUINT::DeallocateBlock
EXTRN	?CheckBlock@ResourceHolderUINT@Internal@Core@Math@Palmtree@@QEAAXPEA_K@Z:PROC ; Palmtree::Math::Core::Internal::ResourceHolderUINT::CheckBlock
EXTRN	?AllocateString@ResourceHolderUINT@Internal@Core@Math@Palmtree@@QEAAPEA_W_K@Z:PROC ; Palmtree::Math::Core::Internal::ResourceHolderUINT::AllocateString
EXTRN	?DeallocateString@ResourceHolderUINT@Internal@Core@Math@Palmtree@@QEAAXPEA_W@Z:PROC ; Palmtree::Math::Core::Internal::ResourceHolderUINT::DeallocateString
EXTRN	?HookNumber@ResourceHolderUINT@Internal@Core@Math@Palmtree@@QEAAXPEAU__tag_NUMBER_HEADER@2345@@Z:PROC ; Palmtree::Math::Core::Internal::ResourceHolderUINT::HookNumber
EXTRN	_DIVREM_UNIT:PROC
EXTRN	_CxxThrowException:PROC
EXTRN	__CxxFrameHandler3:PROC
EXTRN	__GSHandlerCheck:PROC
EXTRN	__security_check_cookie:PROC
EXTRN	??_7type_info@@6B@:BYTE				; type_info::`vftable'
EXTRN	?statistics_info@Internal@Core@Math@Palmtree@@3U__tag_PMC_STATISTICS_INFO@1234@A:BYTE ; Palmtree::Math::Core::Internal::statistics_info
EXTRN	__ImageBase:BYTE
EXTRN	__security_cookie:QWORD
_BSS	SEGMENT
?default_number_format_option@Internal@Core@Math@Palmtree@@3U__tag_PMC_NUMBER_FORMAT_INFO@1234@A DB 01e4H DUP (?) ; Palmtree::Math::Core::Internal::default_number_format_option
_BSS	ENDS
;	COMDAT pdata
pdata	SEGMENT
$pdata$??1exception@std@@UEAA@XZ DD imagerel $LN5
	DD	imagerel $LN5+38
	DD	imagerel $unwind$??1exception@std@@UEAA@XZ
pdata	ENDS
;	COMDAT pdata
pdata	SEGMENT
$pdata$??_Gexception@std@@UEAAPEAXI@Z DD imagerel $LN9
	DD	imagerel $LN9+78
	DD	imagerel $unwind$??_Gexception@std@@UEAAPEAXI@Z
pdata	ENDS
;	COMDAT pdata
pdata	SEGMENT
$pdata$??0Exception@Internal@Core@Math@Palmtree@@IEAA@HPEB_W@Z DD imagerel $LN8
	DD	imagerel $LN8+70
	DD	imagerel $unwind$??0Exception@Internal@Core@Math@Palmtree@@IEAA@HPEB_W@Z
pdata	ENDS
;	COMDAT pdata
pdata	SEGMENT
$pdata$??0Exception@Internal@Core@Math@Palmtree@@IEAA@HPEB_W0@Z DD imagerel $LN8
	DD	imagerel $LN8+66
	DD	imagerel $unwind$??0Exception@Internal@Core@Math@Palmtree@@IEAA@HPEB_W0@Z
pdata	ENDS
;	COMDAT pdata
pdata	SEGMENT
$pdata$??0Exception@Internal@Core@Math@Palmtree@@QEAA@AEBV01234@@Z DD imagerel $LN8
	DD	imagerel $LN8+77
	DD	imagerel $unwind$??0Exception@Internal@Core@Math@Palmtree@@QEAA@AEBV01234@@Z
pdata	ENDS
;	COMDAT pdata
pdata	SEGMENT
$pdata$??1Exception@Internal@Core@Math@Palmtree@@UEAA@XZ DD imagerel $LN8
	DD	imagerel $LN8+53
	DD	imagerel $unwind$??1Exception@Internal@Core@Math@Palmtree@@UEAA@XZ
pdata	ENDS
;	COMDAT pdata
pdata	SEGMENT
$pdata$??_GException@Internal@Core@Math@Palmtree@@UEAAPEAXI@Z DD imagerel $LN12
	DD	imagerel $LN12+92
	DD	imagerel $unwind$??_GException@Internal@Core@Math@Palmtree@@UEAAPEAXI@Z
pdata	ENDS
;	COMDAT pdata
pdata	SEGMENT
$pdata$??0ArgumentNullException@Internal@Core@Math@Palmtree@@QEAA@PEB_W0@Z DD imagerel $LN11
	DD	imagerel $LN11+80
	DD	imagerel $unwind$??0ArgumentNullException@Internal@Core@Math@Palmtree@@QEAA@PEB_W0@Z
pdata	ENDS
;	COMDAT pdata
pdata	SEGMENT
$pdata$??0ArgumentNullException@Internal@Core@Math@Palmtree@@QEAA@AEBV01234@@Z DD imagerel $LN11
	DD	imagerel $LN11+87
	DD	imagerel $unwind$??0ArgumentNullException@Internal@Core@Math@Palmtree@@QEAA@AEBV01234@@Z
pdata	ENDS
;	COMDAT pdata
pdata	SEGMENT
$pdata$??1ArgumentNullException@Internal@Core@Math@Palmtree@@UEAA@XZ DD imagerel $LN11
	DD	imagerel $LN11+63
	DD	imagerel $unwind$??1ArgumentNullException@Internal@Core@Math@Palmtree@@UEAA@XZ
pdata	ENDS
;	COMDAT pdata
pdata	SEGMENT
$pdata$??_GArgumentNullException@Internal@Core@Math@Palmtree@@UEAAPEAXI@Z DD imagerel $LN15
	DD	imagerel $LN15+102
	DD	imagerel $unwind$??_GArgumentNullException@Internal@Core@Math@Palmtree@@UEAAPEAXI@Z
pdata	ENDS
;	COMDAT pdata
pdata	SEGMENT
$pdata$??0FormatException@Internal@Core@Math@Palmtree@@QEAA@PEB_W@Z DD imagerel $LN11
	DD	imagerel $LN11+84
	DD	imagerel $unwind$??0FormatException@Internal@Core@Math@Palmtree@@QEAA@PEB_W@Z
pdata	ENDS
;	COMDAT pdata
pdata	SEGMENT
$pdata$??0FormatException@Internal@Core@Math@Palmtree@@QEAA@AEBV01234@@Z DD imagerel $LN11
	DD	imagerel $LN11+87
	DD	imagerel $unwind$??0FormatException@Internal@Core@Math@Palmtree@@QEAA@AEBV01234@@Z
pdata	ENDS
;	COMDAT pdata
pdata	SEGMENT
$pdata$??1FormatException@Internal@Core@Math@Palmtree@@UEAA@XZ DD imagerel $LN11
	DD	imagerel $LN11+63
	DD	imagerel $unwind$??1FormatException@Internal@Core@Math@Palmtree@@UEAA@XZ
pdata	ENDS
;	COMDAT pdata
pdata	SEGMENT
$pdata$??_GFormatException@Internal@Core@Math@Palmtree@@UEAAPEAXI@Z DD imagerel $LN15
	DD	imagerel $LN15+102
	DD	imagerel $unwind$??_GFormatException@Internal@Core@Math@Palmtree@@UEAAPEAXI@Z
pdata	ENDS
;	COMDAT pdata
pdata	SEGMENT
$pdata$??0InsufficientBufferException@Internal@Core@Math@Palmtree@@QEAA@PEB_W@Z DD imagerel $LN11
	DD	imagerel $LN11+84
	DD	imagerel $unwind$??0InsufficientBufferException@Internal@Core@Math@Palmtree@@QEAA@PEB_W@Z
pdata	ENDS
;	COMDAT pdata
pdata	SEGMENT
$pdata$??0InsufficientBufferException@Internal@Core@Math@Palmtree@@QEAA@AEBV01234@@Z DD imagerel $LN11
	DD	imagerel $LN11+87
	DD	imagerel $unwind$??0InsufficientBufferException@Internal@Core@Math@Palmtree@@QEAA@AEBV01234@@Z
pdata	ENDS
;	COMDAT pdata
pdata	SEGMENT
$pdata$??1InsufficientBufferException@Internal@Core@Math@Palmtree@@UEAA@XZ DD imagerel $LN11
	DD	imagerel $LN11+63
	DD	imagerel $unwind$??1InsufficientBufferException@Internal@Core@Math@Palmtree@@UEAA@XZ
pdata	ENDS
;	COMDAT pdata
pdata	SEGMENT
$pdata$??_GInsufficientBufferException@Internal@Core@Math@Palmtree@@UEAAPEAXI@Z DD imagerel $LN15
	DD	imagerel $LN15+102
	DD	imagerel $unwind$??_GInsufficientBufferException@Internal@Core@Math@Palmtree@@UEAAPEAXI@Z
pdata	ENDS
;	COMDAT pdata
pdata	SEGMENT
$pdata$??0NotSupportedException@Internal@Core@Math@Palmtree@@QEAA@PEB_W@Z DD imagerel $LN11
	DD	imagerel $LN11+84
	DD	imagerel $unwind$??0NotSupportedException@Internal@Core@Math@Palmtree@@QEAA@PEB_W@Z
pdata	ENDS
;	COMDAT pdata
pdata	SEGMENT
$pdata$??0NotSupportedException@Internal@Core@Math@Palmtree@@QEAA@AEBV01234@@Z DD imagerel $LN11
	DD	imagerel $LN11+87
	DD	imagerel $unwind$??0NotSupportedException@Internal@Core@Math@Palmtree@@QEAA@AEBV01234@@Z
pdata	ENDS
;	COMDAT pdata
pdata	SEGMENT
$pdata$??1NotSupportedException@Internal@Core@Math@Palmtree@@UEAA@XZ DD imagerel $LN11
	DD	imagerel $LN11+63
	DD	imagerel $unwind$??1NotSupportedException@Internal@Core@Math@Palmtree@@UEAA@XZ
pdata	ENDS
;	COMDAT pdata
pdata	SEGMENT
$pdata$??_GNotSupportedException@Internal@Core@Math@Palmtree@@UEAAPEAXI@Z DD imagerel $LN15
	DD	imagerel $LN15+102
	DD	imagerel $unwind$??_GNotSupportedException@Internal@Core@Math@Palmtree@@UEAAPEAXI@Z
pdata	ENDS
;	COMDAT pdata
pdata	SEGMENT
$pdata$??0InternalErrorException@Internal@Core@Math@Palmtree@@QEAA@PEB_W0@Z DD imagerel $LN11
	DD	imagerel $LN11+80
	DD	imagerel $unwind$??0InternalErrorException@Internal@Core@Math@Palmtree@@QEAA@PEB_W0@Z
pdata	ENDS
;	COMDAT pdata
pdata	SEGMENT
$pdata$??0InternalErrorException@Internal@Core@Math@Palmtree@@QEAA@AEBV01234@@Z DD imagerel $LN11
	DD	imagerel $LN11+87
	DD	imagerel $unwind$??0InternalErrorException@Internal@Core@Math@Palmtree@@QEAA@AEBV01234@@Z
pdata	ENDS
;	COMDAT pdata
pdata	SEGMENT
$pdata$??1InternalErrorException@Internal@Core@Math@Palmtree@@UEAA@XZ DD imagerel $LN11
	DD	imagerel $LN11+63
	DD	imagerel $unwind$??1InternalErrorException@Internal@Core@Math@Palmtree@@UEAA@XZ
pdata	ENDS
;	COMDAT pdata
pdata	SEGMENT
$pdata$??_GInternalErrorException@Internal@Core@Math@Palmtree@@UEAAPEAXI@Z DD imagerel $LN15
	DD	imagerel $LN15+102
	DD	imagerel $unwind$??_GInternalErrorException@Internal@Core@Math@Palmtree@@UEAAPEAXI@Z
pdata	ENDS
;	COMDAT pdata
pdata	SEGMENT
$pdata$?ReadChar@StringReader@Internal@Core@Math@Palmtree@@QEAA_WXZ DD imagerel $LN4
	DD	imagerel $LN4+44
	DD	imagerel $unwind$?ReadChar@StringReader@Internal@Core@Math@Palmtree@@QEAA_WXZ
pdata	ENDS
;	COMDAT pdata
pdata	SEGMENT
$pdata$?ReadChar@StringReader@Internal@Core@Math@Palmtree@@QEAA_W_W@Z DD imagerel $LN5
	DD	imagerel $LN5+81
	DD	imagerel $unwind$?ReadChar@StringReader@Internal@Core@Math@Palmtree@@QEAA_W_W@Z
pdata	ENDS
;	COMDAT pdata
pdata	SEGMENT
$pdata$?Progress@StringReader@Internal@Core@Math@Palmtree@@UEAAXXZ DD imagerel $LN7
	DD	imagerel $LN7+69
	DD	imagerel $unwind$?Progress@StringReader@Internal@Core@Math@Palmtree@@UEAAXXZ
pdata	ENDS
;	COMDAT pdata
pdata	SEGMENT
$pdata$?SkipString@StringReader@Internal@Core@Math@Palmtree@@UEAAXPEB_W@Z DD imagerel $LN17
	DD	imagerel $LN17+121
	DD	imagerel $unwind$?SkipString@StringReader@Internal@Core@Math@Palmtree@@UEAAXPEB_W@Z
pdata	ENDS
;	COMDAT pdata
pdata	SEGMENT
$pdata$??0ReverseStringReader@Internal@Core@Math@Palmtree@@QEAA@PEB_W@Z DD imagerel $LN6
	DD	imagerel $LN6+75
	DD	imagerel $unwind$??0ReverseStringReader@Internal@Core@Math@Palmtree@@QEAA@PEB_W@Z
pdata	ENDS
;	COMDAT pdata
pdata	SEGMENT
$pdata$?Progress@ReverseStringReader@Internal@Core@Math@Palmtree@@UEAAXXZ DD imagerel $LN7
	DD	imagerel $LN7+69
	DD	imagerel $unwind$?Progress@ReverseStringReader@Internal@Core@Math@Palmtree@@UEAAXXZ
pdata	ENDS
;	COMDAT pdata
pdata	SEGMENT
$pdata$?SkipString@ReverseStringReader@Internal@Core@Math@Palmtree@@UEAAXPEB_W@Z DD imagerel $LN18
	DD	imagerel $LN18+129
	DD	imagerel $unwind$?SkipString@ReverseStringReader@Internal@Core@Math@Palmtree@@UEAAXPEB_W@Z
pdata	ENDS
;	COMDAT pdata
pdata	SEGMENT
$pdata$?Write@StringWriter@Internal@Core@Math@Palmtree@@UEAAX_W@Z DD imagerel $LN8
	DD	imagerel $LN8+85
	DD	imagerel $unwind$?Write@StringWriter@Internal@Core@Math@Palmtree@@UEAAX_W@Z
pdata	ENDS
;	COMDAT pdata
pdata	SEGMENT
$pdata$?Write@StringWriter@Internal@Core@Math@Palmtree@@QEAAX_W_K@Z DD imagerel $LN11
	DD	imagerel $LN11+66
	DD	imagerel $unwind$?Write@StringWriter@Internal@Core@Math@Palmtree@@QEAAX_W_K@Z
pdata	ENDS
;	COMDAT pdata
pdata	SEGMENT
$pdata$?Write@StringWriter@Internal@Core@Math@Palmtree@@UEAAXPEB_W@Z DD imagerel $LN10
	DD	imagerel $LN10+65
	DD	imagerel $unwind$?Write@StringWriter@Internal@Core@Math@Palmtree@@UEAAXPEB_W@Z
pdata	ENDS
;	COMDAT pdata
pdata	SEGMENT
$pdata$??0ReverseStringWriter@Internal@Core@Math@Palmtree@@QEAA@PEA_W_K@Z DD imagerel $LN16
	DD	imagerel $LN16+116
	DD	imagerel $unwind$??0ReverseStringWriter@Internal@Core@Math@Palmtree@@QEAA@PEA_W_K@Z
pdata	ENDS
;	COMDAT pdata
pdata	SEGMENT
$pdata$?Write@ReverseStringWriter@Internal@Core@Math@Palmtree@@UEAAX_W@Z DD imagerel $LN7
	DD	imagerel $LN7+69
	DD	imagerel $unwind$?Write@ReverseStringWriter@Internal@Core@Math@Palmtree@@UEAAX_W@Z
pdata	ENDS
;	COMDAT pdata
pdata	SEGMENT
$pdata$?Write@ReverseStringWriter@Internal@Core@Math@Palmtree@@UEAAXPEB_W@Z DD imagerel $LN11
	DD	imagerel $LN11+85
	DD	imagerel $unwind$?Write@ReverseStringWriter@Internal@Core@Math@Palmtree@@UEAAXPEB_W@Z
pdata	ENDS
;	COMDAT pdata
pdata	SEGMENT
$pdata$?InitializeNumberFormatoInfo@Internal@Core@Math@Palmtree@@YAXPEAU__tag_PMC_NUMBER_FORMAT_INFO@1234@@Z DD imagerel $LN4
	DD	imagerel $LN4+348
	DD	imagerel $unwind$?InitializeNumberFormatoInfo@Internal@Core@Math@Palmtree@@YAXPEAU__tag_PMC_NUMBER_FORMAT_INFO@1234@@Z
pdata	ENDS
;	COMDAT pdata
pdata	SEGMENT
$pdata$?Initialize_ToString@Internal@Core@Math@Palmtree@@YAHPEAU_tag_PROCESSOR_FEATURES@1234@@Z DD imagerel $LN4
	DD	imagerel $LN4+23
	DD	imagerel $unwind$?Initialize_ToString@Internal@Core@Math@Palmtree@@YAHPEAU_tag_PROCESSOR_FEATURES@1234@@Z
pdata	ENDS
;	COMDAT pdata
pdata	SEGMENT
$pdata$?PMC_ToString@Internal@Core@Math@Palmtree@@YA_KPEAU__tag_PMC_HANDLE_UINT@1234@PEB_WPEBU__tag_PMC_NUMBER_FORMAT_INFO@1234@PEA_W_K@Z DD imagerel $LN8
	DD	imagerel $LN8+160
	DD	imagerel $unwind$?PMC_ToString@Internal@Core@Math@Palmtree@@YA_KPEAU__tag_PMC_HANDLE_UINT@1234@PEB_WPEBU__tag_PMC_NUMBER_FORMAT_INFO@1234@PEA_W_K@Z
pdata	ENDS
;	COMDAT pdata
pdata	SEGMENT
$pdata$_COPY_MEMORY_UNIT DD imagerel _COPY_MEMORY_UNIT
	DD	imagerel _COPY_MEMORY_UNIT+33
	DD	imagerel $unwind$_COPY_MEMORY_UNIT
pdata	ENDS
;	COMDAT pdata
pdata	SEGMENT
$pdata$?get_digit_count_as_decimal@DecimalFromatter@Internal@Core@Math@Palmtree@@YAIPEA_K_K@Z DD imagerel ?get_digit_count_as_decimal@DecimalFromatter@Internal@Core@Math@Palmtree@@YAIPEA_K_K@Z
	DD	imagerel ?get_digit_count_as_decimal@DecimalFromatter@Internal@Core@Math@Palmtree@@YAIPEA_K_K@Z+218
	DD	imagerel $unwind$?get_digit_count_as_decimal@DecimalFromatter@Internal@Core@Math@Palmtree@@YAIPEA_K_K@Z
pdata	ENDS
;	COMDAT pdata
pdata	SEGMENT
$pdata$?get_x_times_of_exponent_of_10@DecimalFromatter@Internal@Core@Math@Palmtree@@YAPEAU__tag_NUMBER_HEADER@2345@I_K@Z DD imagerel ?get_x_times_of_exponent_of_10@DecimalFromatter@Internal@Core@Math@Palmtree@@YAPEAU__tag_NUMBER_HEADER@2345@I_K@Z
	DD	imagerel ?get_x_times_of_exponent_of_10@DecimalFromatter@Internal@Core@Math@Palmtree@@YAPEAU__tag_NUMBER_HEADER@2345@I_K@Z+136
	DD	imagerel $unwind$?get_x_times_of_exponent_of_10@DecimalFromatter@Internal@Core@Math@Palmtree@@YAPEAU__tag_NUMBER_HEADER@2345@I_K@Z
pdata	ENDS
;	COMDAT pdata
pdata	SEGMENT
$pdata$?Write@ThousandSeparatedStringWriter@DecimalFromatter@Internal@Core@Math@Palmtree@@UEAAX_W@Z DD imagerel $LN11
	DD	imagerel $LN11+165
	DD	imagerel $unwind$?Write@ThousandSeparatedStringWriter@DecimalFromatter@Internal@Core@Math@Palmtree@@UEAAX_W@Z
pdata	ENDS
;	COMDAT pdata
pdata	SEGMENT
$pdata$?Write@ThousandSeparatedStringWriter@DecimalFromatter@Internal@Core@Math@Palmtree@@UEAAXPEB_W@Z DD imagerel $LN10
	DD	imagerel $LN10+64
	DD	imagerel $unwind$?Write@ThousandSeparatedStringWriter@DecimalFromatter@Internal@Core@Math@Palmtree@@UEAAXPEB_W@Z
pdata	ENDS
;	COMDAT pdata
pdata	SEGMENT
$pdata$?Format@Formatter@DecimalFromatter@Internal@Core@Math@Palmtree@@QEAAXDPEAU__tag_NUMBER_HEADER@3456@PEAVStringWriter@3456@@Z DD imagerel $LN13
	DD	imagerel $LN13+244
	DD	imagerel $unwind$?Format@Formatter@DecimalFromatter@Internal@Core@Math@Palmtree@@QEAAXDPEAU__tag_NUMBER_HEADER@3456@PEAVStringWriter@3456@@Z
pdata	ENDS
;	COMDAT pdata
pdata	SEGMENT
$pdata$?FormatInternally@Formatter@DecimalFromatter@Internal@Core@Math@Palmtree@@MEAAXPEAU__tag_NUMBER_HEADER@3456@PEAVStringWriter@3456@@Z DD imagerel $LN74
	DD	imagerel $LN74+598
	DD	imagerel $unwind$?FormatInternally@Formatter@DecimalFromatter@Internal@Core@Math@Palmtree@@MEAAXPEAU__tag_NUMBER_HEADER@3456@PEAVStringWriter@3456@@Z
pdata	ENDS
;	COMDAT pdata
pdata	SEGMENT
$pdata$?ConvertAs10nBasedNumber@Formatter@DecimalFromatter@Internal@Core@Math@Palmtree@@AEAA_KPEAU__tag_NUMBER_HEADER@3456@PEA_K@Z DD imagerel $LN27
	DD	imagerel $LN27+290
	DD	imagerel $unwind$?ConvertAs10nBasedNumber@Formatter@DecimalFromatter@Internal@Core@Math@Palmtree@@AEAA_KPEAU__tag_NUMBER_HEADER@3456@PEA_K@Z
pdata	ENDS
;	COMDAT pdata
pdata	SEGMENT
$pdata$?ConstructSimpleNumberSequence@Formatter@DecimalFromatter@Internal@Core@Math@Palmtree@@AEAAPEA_WPEA_K_KPEA_W1@Z DD imagerel $LN43
	DD	imagerel $LN43+90
	DD	imagerel $unwind$?ConstructSimpleNumberSequence@Formatter@DecimalFromatter@Internal@Core@Math@Palmtree@@AEAAPEA_WPEA_K_KPEA_W1@Z
pdata	ENDS
;	COMDAT pdata
pdata	SEGMENT
$pdata$0$?ConstructSimpleNumberSequence@Formatter@DecimalFromatter@Internal@Core@Math@Palmtree@@AEAAPEA_WPEA_K_KPEA_W1@Z DD imagerel $LN43+90
	DD	imagerel $LN43+176
	DD	imagerel $chain$0$?ConstructSimpleNumberSequence@Formatter@DecimalFromatter@Internal@Core@Math@Palmtree@@AEAAPEA_WPEA_K_KPEA_W1@Z
pdata	ENDS
;	COMDAT pdata
pdata	SEGMENT
$pdata$1$?ConstructSimpleNumberSequence@Formatter@DecimalFromatter@Internal@Core@Math@Palmtree@@AEAAPEA_WPEA_K_KPEA_W1@Z DD imagerel $LN43+176
	DD	imagerel $LN43+297
	DD	imagerel $chain$1$?ConstructSimpleNumberSequence@Formatter@DecimalFromatter@Internal@Core@Math@Palmtree@@AEAAPEA_WPEA_K_KPEA_W1@Z
pdata	ENDS
;	COMDAT pdata
pdata	SEGMENT
$pdata$?WriteLeadingOneWord@Formatter@DecimalFromatter@Internal@Core@Math@Palmtree@@AEAAXPEAVStringWriter@3456@_K@Z DD imagerel $LN18
	DD	imagerel $LN18+81
	DD	imagerel $unwind$?WriteLeadingOneWord@Formatter@DecimalFromatter@Internal@Core@Math@Palmtree@@AEAAXPEAVStringWriter@3456@_K@Z
pdata	ENDS
;	COMDAT pdata
pdata	SEGMENT
$pdata$?WriteTrailingWord@Formatter@DecimalFromatter@Internal@Core@Math@Palmtree@@AEAAXPEAVStringWriter@3456@_K@Z DD imagerel $LN70
	DD	imagerel $LN70+837
	DD	imagerel $unwind$?WriteTrailingWord@Formatter@DecimalFromatter@Internal@Core@Math@Palmtree@@AEAAXPEAVStringWriter@3456@_K@Z
pdata	ENDS
;	COMDAT pdata
pdata	SEGMENT
$pdata$?WriteZeroValue@FormatterTypeC@DecimalFromatter@Internal@Core@Math@Palmtree@@MEAAXPEAVStringWriter@3456@@Z DD imagerel $LN13
	DD	imagerel $LN13+95
	DD	imagerel $unwind$?WriteZeroValue@FormatterTypeC@DecimalFromatter@Internal@Core@Math@Palmtree@@MEAAXPEAVStringWriter@3456@@Z
pdata	ENDS
;	COMDAT pdata
pdata	SEGMENT
$pdata$?WritePrefix@FormatterTypeC@DecimalFromatter@Internal@Core@Math@Palmtree@@MEAAXDPEAVStringWriter@3456@@Z DD imagerel $LN36
	DD	imagerel $LN36+480
	DD	imagerel $unwind$?WritePrefix@FormatterTypeC@DecimalFromatter@Internal@Core@Math@Palmtree@@MEAAXDPEAVStringWriter@3456@@Z
pdata	ENDS
;	COMDAT pdata
pdata	SEGMENT
$pdata$?FormatNumberSequence@FormatterTypeC@DecimalFromatter@Internal@Core@Math@Palmtree@@MEAAXPEB_WPEAVStringWriter@3456@@Z DD imagerel $LN65
	DD	imagerel $LN65+633
	DD	imagerel $unwind$?FormatNumberSequence@FormatterTypeC@DecimalFromatter@Internal@Core@Math@Palmtree@@MEAAXPEB_WPEAVStringWriter@3456@@Z
pdata	ENDS
;	COMDAT pdata
pdata	SEGMENT
$pdata$?WriteSuffix@FormatterTypeC@DecimalFromatter@Internal@Core@Math@Palmtree@@MEAAXDPEAVStringWriter@3456@@Z DD imagerel $LN36
	DD	imagerel $LN36+464
	DD	imagerel $unwind$?WriteSuffix@FormatterTypeC@DecimalFromatter@Internal@Core@Math@Palmtree@@MEAAXDPEAVStringWriter@3456@@Z
pdata	ENDS
;	COMDAT pdata
pdata	SEGMENT
$pdata$?WriteZeroValue@FormatterTypeD@DecimalFromatter@Internal@Core@Math@Palmtree@@MEAAXPEAVStringWriter@3456@@Z DD imagerel $LN14
	DD	imagerel $LN14+64
	DD	imagerel $unwind$?WriteZeroValue@FormatterTypeD@DecimalFromatter@Internal@Core@Math@Palmtree@@MEAAXPEAVStringWriter@3456@@Z
pdata	ENDS
;	COMDAT pdata
pdata	SEGMENT
$pdata$?FormatNumberSequence@FormatterTypeD@DecimalFromatter@Internal@Core@Math@Palmtree@@MEAAXPEB_WPEAVStringWriter@3456@@Z DD imagerel $LN14
	DD	imagerel $LN14+111
	DD	imagerel $unwind$?FormatNumberSequence@FormatterTypeD@DecimalFromatter@Internal@Core@Math@Palmtree@@MEAAXPEB_WPEAVStringWriter@3456@@Z
pdata	ENDS
;	COMDAT pdata
pdata	SEGMENT
$pdata$?WriteZeroValue@FormatterTypeE@DecimalFromatter@Internal@Core@Math@Palmtree@@MEAAXPEAVStringWriter@3456@@Z DD imagerel $LN14
	DD	imagerel $LN14+50
	DD	imagerel $unwind$?WriteZeroValue@FormatterTypeE@DecimalFromatter@Internal@Core@Math@Palmtree@@MEAAXPEAVStringWriter@3456@@Z
pdata	ENDS
;	COMDAT pdata
pdata	SEGMENT
$pdata$0$?WriteZeroValue@FormatterTypeE@DecimalFromatter@Internal@Core@Math@Palmtree@@MEAAXPEAVStringWriter@3456@@Z DD imagerel $LN14+50
	DD	imagerel $LN14+91
	DD	imagerel $chain$0$?WriteZeroValue@FormatterTypeE@DecimalFromatter@Internal@Core@Math@Palmtree@@MEAAXPEAVStringWriter@3456@@Z
pdata	ENDS
;	COMDAT pdata
pdata	SEGMENT
$pdata$1$?WriteZeroValue@FormatterTypeE@DecimalFromatter@Internal@Core@Math@Palmtree@@MEAAXPEAVStringWriter@3456@@Z DD imagerel $LN14+91
	DD	imagerel $LN14+130
	DD	imagerel $chain$1$?WriteZeroValue@FormatterTypeE@DecimalFromatter@Internal@Core@Math@Palmtree@@MEAAXPEAVStringWriter@3456@@Z
pdata	ENDS
;	COMDAT pdata
pdata	SEGMENT
$pdata$?FormatInternally@FormatterTypeE@DecimalFromatter@Internal@Core@Math@Palmtree@@MEAAXPEAU__tag_NUMBER_HEADER@3456@PEAVStringWriter@3456@@Z DD imagerel $LN33
	DD	imagerel $LN33+451
	DD	imagerel $unwind$?FormatInternally@FormatterTypeE@DecimalFromatter@Internal@Core@Math@Palmtree@@MEAAXPEAU__tag_NUMBER_HEADER@3456@PEAVStringWriter@3456@@Z
pdata	ENDS
;	COMDAT pdata
pdata	SEGMENT
$pdata$?FormatNumberSequence@FormatterTypeE@DecimalFromatter@Internal@Core@Math@Palmtree@@MEAAXPEB_WPEAVStringWriter@3456@@Z DD imagerel $LN20
	DD	imagerel $LN20+141
	DD	imagerel $unwind$?FormatNumberSequence@FormatterTypeE@DecimalFromatter@Internal@Core@Math@Palmtree@@MEAAXPEB_WPEAVStringWriter@3456@@Z
pdata	ENDS
;	COMDAT pdata
pdata	SEGMENT
$pdata$0$?FormatNumberSequence@FormatterTypeE@DecimalFromatter@Internal@Core@Math@Palmtree@@MEAAXPEB_WPEAVStringWriter@3456@@Z DD imagerel $LN20+141
	DD	imagerel $LN20+232
	DD	imagerel $chain$0$?FormatNumberSequence@FormatterTypeE@DecimalFromatter@Internal@Core@Math@Palmtree@@MEAAXPEB_WPEAVStringWriter@3456@@Z
pdata	ENDS
;	COMDAT pdata
pdata	SEGMENT
$pdata$1$?FormatNumberSequence@FormatterTypeE@DecimalFromatter@Internal@Core@Math@Palmtree@@MEAAXPEB_WPEAVStringWriter@3456@@Z DD imagerel $LN20+232
	DD	imagerel $LN20+335
	DD	imagerel $chain$1$?FormatNumberSequence@FormatterTypeE@DecimalFromatter@Internal@Core@Math@Palmtree@@MEAAXPEB_WPEAVStringWriter@3456@@Z
pdata	ENDS
;	COMDAT pdata
pdata	SEGMENT
$pdata$?WriteZeroValue@FormatterTypeF@DecimalFromatter@Internal@Core@Math@Palmtree@@MEAAXPEAVStringWriter@3456@@Z DD imagerel $LN13
	DD	imagerel $LN13+95
	DD	imagerel $unwind$?WriteZeroValue@FormatterTypeF@DecimalFromatter@Internal@Core@Math@Palmtree@@MEAAXPEAVStringWriter@3456@@Z
pdata	ENDS
;	COMDAT pdata
pdata	SEGMENT
$pdata$?FormatNumberSequence@FormatterTypeF@DecimalFromatter@Internal@Core@Math@Palmtree@@MEAAXPEB_WPEAVStringWriter@3456@@Z DD imagerel $LN13
	DD	imagerel $LN13+95
	DD	imagerel $unwind$?FormatNumberSequence@FormatterTypeF@DecimalFromatter@Internal@Core@Math@Palmtree@@MEAAXPEB_WPEAVStringWriter@3456@@Z
pdata	ENDS
;	COMDAT pdata
pdata	SEGMENT
$pdata$?WriteZeroValue@FormatterTypeN@DecimalFromatter@Internal@Core@Math@Palmtree@@MEAAXPEAVStringWriter@3456@@Z DD imagerel $LN13
	DD	imagerel $LN13+95
	DD	imagerel $unwind$?WriteZeroValue@FormatterTypeN@DecimalFromatter@Internal@Core@Math@Palmtree@@MEAAXPEAVStringWriter@3456@@Z
pdata	ENDS
;	COMDAT pdata
pdata	SEGMENT
$pdata$?WritePrefix@FormatterTypeN@DecimalFromatter@Internal@Core@Math@Palmtree@@MEAAXDPEAVStringWriter@3456@@Z DD imagerel $LN15
	DD	imagerel $LN15+117
	DD	imagerel $unwind$?WritePrefix@FormatterTypeN@DecimalFromatter@Internal@Core@Math@Palmtree@@MEAAXDPEAVStringWriter@3456@@Z
pdata	ENDS
;	COMDAT pdata
pdata	SEGMENT
$pdata$?FormatNumberSequence@FormatterTypeN@DecimalFromatter@Internal@Core@Math@Palmtree@@MEAAXPEB_WPEAVStringWriter@3456@@Z DD imagerel $LN65
	DD	imagerel $LN65+633
	DD	imagerel $unwind$?FormatNumberSequence@FormatterTypeN@DecimalFromatter@Internal@Core@Math@Palmtree@@MEAAXPEB_WPEAVStringWriter@3456@@Z
pdata	ENDS
;	COMDAT pdata
pdata	SEGMENT
$pdata$?WriteSuffix@FormatterTypeN@DecimalFromatter@Internal@Core@Math@Palmtree@@MEAAXDPEAVStringWriter@3456@@Z DD imagerel $LN14
	DD	imagerel $LN14+141
	DD	imagerel $unwind$?WriteSuffix@FormatterTypeN@DecimalFromatter@Internal@Core@Math@Palmtree@@MEAAXDPEAVStringWriter@3456@@Z
pdata	ENDS
;	COMDAT pdata
pdata	SEGMENT
$pdata$?WriteZeroValue@FormatterTypeP@DecimalFromatter@Internal@Core@Math@Palmtree@@MEAAXPEAVStringWriter@3456@@Z DD imagerel $LN13
	DD	imagerel $LN13+95
	DD	imagerel $unwind$?WriteZeroValue@FormatterTypeP@DecimalFromatter@Internal@Core@Math@Palmtree@@MEAAXPEAVStringWriter@3456@@Z
pdata	ENDS
;	COMDAT pdata
pdata	SEGMENT
$pdata$?FormatInternally@FormatterTypeP@DecimalFromatter@Internal@Core@Math@Palmtree@@MEAAXPEAU__tag_NUMBER_HEADER@3456@PEAVStringWriter@3456@@Z DD imagerel $LN6
	DD	imagerel $LN6+115
	DD	imagerel $unwind$?FormatInternally@FormatterTypeP@DecimalFromatter@Internal@Core@Math@Palmtree@@MEAAXPEAU__tag_NUMBER_HEADER@3456@PEAVStringWriter@3456@@Z
pdata	ENDS
;	COMDAT pdata
pdata	SEGMENT
$pdata$?WritePrefix@FormatterTypeP@DecimalFromatter@Internal@Core@Math@Palmtree@@MEAAXDPEAVStringWriter@3456@@Z DD imagerel $LN30
	DD	imagerel $LN30+400
	DD	imagerel $unwind$?WritePrefix@FormatterTypeP@DecimalFromatter@Internal@Core@Math@Palmtree@@MEAAXDPEAVStringWriter@3456@@Z
pdata	ENDS
;	COMDAT pdata
pdata	SEGMENT
$pdata$?FormatNumberSequence@FormatterTypeP@DecimalFromatter@Internal@Core@Math@Palmtree@@MEAAXPEB_WPEAVStringWriter@3456@@Z DD imagerel $LN65
	DD	imagerel $LN65+633
	DD	imagerel $unwind$?FormatNumberSequence@FormatterTypeP@DecimalFromatter@Internal@Core@Math@Palmtree@@MEAAXPEB_WPEAVStringWriter@3456@@Z
pdata	ENDS
;	COMDAT pdata
pdata	SEGMENT
$pdata$?WriteSuffix@FormatterTypeP@DecimalFromatter@Internal@Core@Math@Palmtree@@MEAAXDPEAVStringWriter@3456@@Z DD imagerel $LN31
	DD	imagerel $LN31+344
	DD	imagerel $unwind$?WriteSuffix@FormatterTypeP@DecimalFromatter@Internal@Core@Math@Palmtree@@MEAAXDPEAVStringWriter@3456@@Z
pdata	ENDS
;	COMDAT pdata
pdata	SEGMENT
$pdata$?ToStringC@DecimalFromatter@Internal@Core@Math@Palmtree@@YA_KDPEAU__tag_NUMBER_HEADER@2345@_WHPEBU__tag_PMC_NUMBER_FORMAT_INFO@2345@PEA_W_K@Z DD imagerel ?ToStringC@DecimalFromatter@Internal@Core@Math@Palmtree@@YA_KDPEAU__tag_NUMBER_HEADER@2345@_WHPEBU__tag_PMC_NUMBER_FORMAT_INFO@2345@PEA_W_K@Z
	DD	imagerel ?ToStringC@DecimalFromatter@Internal@Core@Math@Palmtree@@YA_KDPEAU__tag_NUMBER_HEADER@2345@_WHPEBU__tag_PMC_NUMBER_FORMAT_INFO@2345@PEA_W_K@Z+164
	DD	imagerel $unwind$?ToStringC@DecimalFromatter@Internal@Core@Math@Palmtree@@YA_KDPEAU__tag_NUMBER_HEADER@2345@_WHPEBU__tag_PMC_NUMBER_FORMAT_INFO@2345@PEA_W_K@Z
pdata	ENDS
;	COMDAT pdata
pdata	SEGMENT
$pdata$?ToStringD@DecimalFromatter@Internal@Core@Math@Palmtree@@YA_KDPEAU__tag_NUMBER_HEADER@2345@_WHPEBU__tag_PMC_NUMBER_FORMAT_INFO@2345@PEA_W_K@Z DD imagerel ?ToStringD@DecimalFromatter@Internal@Core@Math@Palmtree@@YA_KDPEAU__tag_NUMBER_HEADER@2345@_WHPEBU__tag_PMC_NUMBER_FORMAT_INFO@2345@PEA_W_K@Z
	DD	imagerel ?ToStringD@DecimalFromatter@Internal@Core@Math@Palmtree@@YA_KDPEAU__tag_NUMBER_HEADER@2345@_WHPEBU__tag_PMC_NUMBER_FORMAT_INFO@2345@PEA_W_K@Z+164
	DD	imagerel $unwind$?ToStringD@DecimalFromatter@Internal@Core@Math@Palmtree@@YA_KDPEAU__tag_NUMBER_HEADER@2345@_WHPEBU__tag_PMC_NUMBER_FORMAT_INFO@2345@PEA_W_K@Z
pdata	ENDS
;	COMDAT pdata
pdata	SEGMENT
$pdata$?ToStringE@DecimalFromatter@Internal@Core@Math@Palmtree@@YA_KDPEAU__tag_NUMBER_HEADER@2345@_WHPEBU__tag_PMC_NUMBER_FORMAT_INFO@2345@PEA_W_K@Z DD imagerel ?ToStringE@DecimalFromatter@Internal@Core@Math@Palmtree@@YA_KDPEAU__tag_NUMBER_HEADER@2345@_WHPEBU__tag_PMC_NUMBER_FORMAT_INFO@2345@PEA_W_K@Z
	DD	imagerel ?ToStringE@DecimalFromatter@Internal@Core@Math@Palmtree@@YA_KDPEAU__tag_NUMBER_HEADER@2345@_WHPEBU__tag_PMC_NUMBER_FORMAT_INFO@2345@PEA_W_K@Z+160
	DD	imagerel $unwind$?ToStringE@DecimalFromatter@Internal@Core@Math@Palmtree@@YA_KDPEAU__tag_NUMBER_HEADER@2345@_WHPEBU__tag_PMC_NUMBER_FORMAT_INFO@2345@PEA_W_K@Z
pdata	ENDS
;	COMDAT pdata
pdata	SEGMENT
$pdata$?ToStringF@DecimalFromatter@Internal@Core@Math@Palmtree@@YA_KDPEAU__tag_NUMBER_HEADER@2345@_WHPEBU__tag_PMC_NUMBER_FORMAT_INFO@2345@PEA_W_K@Z DD imagerel ?ToStringF@DecimalFromatter@Internal@Core@Math@Palmtree@@YA_KDPEAU__tag_NUMBER_HEADER@2345@_WHPEBU__tag_PMC_NUMBER_FORMAT_INFO@2345@PEA_W_K@Z
	DD	imagerel ?ToStringF@DecimalFromatter@Internal@Core@Math@Palmtree@@YA_KDPEAU__tag_NUMBER_HEADER@2345@_WHPEBU__tag_PMC_NUMBER_FORMAT_INFO@2345@PEA_W_K@Z+164
	DD	imagerel $unwind$?ToStringF@DecimalFromatter@Internal@Core@Math@Palmtree@@YA_KDPEAU__tag_NUMBER_HEADER@2345@_WHPEBU__tag_PMC_NUMBER_FORMAT_INFO@2345@PEA_W_K@Z
pdata	ENDS
;	COMDAT pdata
pdata	SEGMENT
$pdata$?ToStringN@DecimalFromatter@Internal@Core@Math@Palmtree@@YA_KDPEAU__tag_NUMBER_HEADER@2345@_WHPEBU__tag_PMC_NUMBER_FORMAT_INFO@2345@PEA_W_K@Z DD imagerel ?ToStringN@DecimalFromatter@Internal@Core@Math@Palmtree@@YA_KDPEAU__tag_NUMBER_HEADER@2345@_WHPEBU__tag_PMC_NUMBER_FORMAT_INFO@2345@PEA_W_K@Z
	DD	imagerel ?ToStringN@DecimalFromatter@Internal@Core@Math@Palmtree@@YA_KDPEAU__tag_NUMBER_HEADER@2345@_WHPEBU__tag_PMC_NUMBER_FORMAT_INFO@2345@PEA_W_K@Z+164
	DD	imagerel $unwind$?ToStringN@DecimalFromatter@Internal@Core@Math@Palmtree@@YA_KDPEAU__tag_NUMBER_HEADER@2345@_WHPEBU__tag_PMC_NUMBER_FORMAT_INFO@2345@PEA_W_K@Z
pdata	ENDS
;	COMDAT pdata
pdata	SEGMENT
$pdata$?ToStringP@DecimalFromatter@Internal@Core@Math@Palmtree@@YA_KDPEAU__tag_NUMBER_HEADER@2345@_WHPEBU__tag_PMC_NUMBER_FORMAT_INFO@2345@PEA_W_K@Z DD imagerel ?ToStringP@DecimalFromatter@Internal@Core@Math@Palmtree@@YA_KDPEAU__tag_NUMBER_HEADER@2345@_WHPEBU__tag_PMC_NUMBER_FORMAT_INFO@2345@PEA_W_K@Z
	DD	imagerel ?ToStringP@DecimalFromatter@Internal@Core@Math@Palmtree@@YA_KDPEAU__tag_NUMBER_HEADER@2345@_WHPEBU__tag_PMC_NUMBER_FORMAT_INFO@2345@PEA_W_K@Z+164
	DD	imagerel $unwind$?ToStringP@DecimalFromatter@Internal@Core@Math@Palmtree@@YA_KDPEAU__tag_NUMBER_HEADER@2345@_WHPEBU__tag_PMC_NUMBER_FORMAT_INFO@2345@PEA_W_K@Z
pdata	ENDS
;	COMDAT pdata
pdata	SEGMENT
$pdata$?OutputHexNumberSequenceOneWord@HexaDecimalFormatter@Internal@Core@Math@Palmtree@@YAX_KIPEA_WPEAVStringWriter@2345@@Z DD imagerel ?OutputHexNumberSequenceOneWord@HexaDecimalFormatter@Internal@Core@Math@Palmtree@@YAX_KIPEA_WPEAVStringWriter@2345@@Z
	DD	imagerel ?OutputHexNumberSequenceOneWord@HexaDecimalFormatter@Internal@Core@Math@Palmtree@@YAX_KIPEA_WPEAVStringWriter@2345@@Z+825
	DD	imagerel $unwind$?OutputHexNumberSequenceOneWord@HexaDecimalFormatter@Internal@Core@Math@Palmtree@@YAX_KIPEA_WPEAVStringWriter@2345@@Z
pdata	ENDS
;	COMDAT pdata
pdata	SEGMENT
$pdata$?ToStringX@HexaDecimalFormatter@Internal@Core@Math@Palmtree@@YA_KDPEAU__tag_NUMBER_HEADER@2345@_WHPEBU__tag_PMC_NUMBER_FORMAT_INFO@2345@PEA_W_K@Z DD imagerel ?ToStringX@HexaDecimalFormatter@Internal@Core@Math@Palmtree@@YA_KDPEAU__tag_NUMBER_HEADER@2345@_WHPEBU__tag_PMC_NUMBER_FORMAT_INFO@2345@PEA_W_K@Z
	DD	imagerel ?ToStringX@HexaDecimalFormatter@Internal@Core@Math@Palmtree@@YA_KDPEAU__tag_NUMBER_HEADER@2345@_WHPEBU__tag_PMC_NUMBER_FORMAT_INFO@2345@PEA_W_K@Z+717
	DD	imagerel $unwind$?ToStringX@HexaDecimalFormatter@Internal@Core@Math@Palmtree@@YA_KDPEAU__tag_NUMBER_HEADER@2345@_WHPEBU__tag_PMC_NUMBER_FORMAT_INFO@2345@PEA_W_K@Z
pdata	ENDS
;	COMDAT pdata
pdata	SEGMENT
$pdata$?ToStringCustom@CustomFormatter@Internal@Core@Math@Palmtree@@YA_KDPEAU__tag_NUMBER_HEADER@2345@PEB_WPEBU__tag_PMC_NUMBER_FORMAT_INFO@2345@PEA_W_K@Z DD imagerel ?ToStringCustom@CustomFormatter@Internal@Core@Math@Palmtree@@YA_KDPEAU__tag_NUMBER_HEADER@2345@PEB_WPEBU__tag_PMC_NUMBER_FORMAT_INFO@2345@PEA_W_K@Z
	DD	imagerel ?ToStringCustom@CustomFormatter@Internal@Core@Math@Palmtree@@YA_KDPEAU__tag_NUMBER_HEADER@2345@PEB_WPEBU__tag_PMC_NUMBER_FORMAT_INFO@2345@PEA_W_K@Z+39
	DD	imagerel $unwind$?ToStringCustom@CustomFormatter@Internal@Core@Math@Palmtree@@YA_KDPEAU__tag_NUMBER_HEADER@2345@PEB_WPEBU__tag_PMC_NUMBER_FORMAT_INFO@2345@PEA_W_K@Z
pdata	ENDS
;	COMDAT pdata
pdata	SEGMENT
$pdata$?ToString_Imp@Internal@Core@Math@Palmtree@@YA_KDPEAU__tag_NUMBER_HEADER@1234@PEB_WPEBU__tag_PMC_NUMBER_FORMAT_INFO@1234@PEA_W_K@Z DD imagerel ?ToString_Imp@Internal@Core@Math@Palmtree@@YA_KDPEAU__tag_NUMBER_HEADER@1234@PEB_WPEBU__tag_PMC_NUMBER_FORMAT_INFO@1234@PEA_W_K@Z
	DD	imagerel ?ToString_Imp@Internal@Core@Math@Palmtree@@YA_KDPEAU__tag_NUMBER_HEADER@1234@PEB_WPEBU__tag_PMC_NUMBER_FORMAT_INFO@1234@PEA_W_K@Z+1050
	DD	imagerel $unwind$?ToString_Imp@Internal@Core@Math@Palmtree@@YA_KDPEAU__tag_NUMBER_HEADER@1234@PEB_WPEBU__tag_PMC_NUMBER_FORMAT_INFO@1234@PEA_W_K@Z
pdata	ENDS
;	COMDAT ??_R1A@?0A@EA@FormatterTypeP@DecimalFromatter@Internal@Core@Math@Palmtree@@8
rdata$r	SEGMENT
??_R1A@?0A@EA@FormatterTypeP@DecimalFromatter@Internal@Core@Math@Palmtree@@8 DD imagerel ??_R0?AVFormatterTypeP@DecimalFromatter@Internal@Core@Math@Palmtree@@@8 ; Palmtree::Math::Core::Internal::DecimalFromatter::FormatterTypeP::`RTTI Base Class Descriptor at (0,-1,0,64)'
	DD	01H
	DD	00H
	DD	0ffffffffH
	DD	00H
	DD	040H
	DD	imagerel ??_R3FormatterTypeP@DecimalFromatter@Internal@Core@Math@Palmtree@@8
rdata$r	ENDS
;	COMDAT ??_R2FormatterTypeP@DecimalFromatter@Internal@Core@Math@Palmtree@@8
rdata$r	SEGMENT
??_R2FormatterTypeP@DecimalFromatter@Internal@Core@Math@Palmtree@@8 DD imagerel ??_R1A@?0A@EA@FormatterTypeP@DecimalFromatter@Internal@Core@Math@Palmtree@@8 ; Palmtree::Math::Core::Internal::DecimalFromatter::FormatterTypeP::`RTTI Base Class Array'
	DD	imagerel ??_R1A@?0A@EA@Formatter@DecimalFromatter@Internal@Core@Math@Palmtree@@8
	ORG $+3
rdata$r	ENDS
;	COMDAT ??_R3FormatterTypeP@DecimalFromatter@Internal@Core@Math@Palmtree@@8
rdata$r	SEGMENT
??_R3FormatterTypeP@DecimalFromatter@Internal@Core@Math@Palmtree@@8 DD 00H ; Palmtree::Math::Core::Internal::DecimalFromatter::FormatterTypeP::`RTTI Class Hierarchy Descriptor'
	DD	00H
	DD	02H
	DD	imagerel ??_R2FormatterTypeP@DecimalFromatter@Internal@Core@Math@Palmtree@@8
rdata$r	ENDS
;	COMDAT ??_R0?AVFormatterTypeP@DecimalFromatter@Internal@Core@Math@Palmtree@@@8
data$r	SEGMENT
??_R0?AVFormatterTypeP@DecimalFromatter@Internal@Core@Math@Palmtree@@@8 DQ FLAT:??_7type_info@@6B@ ; Palmtree::Math::Core::Internal::DecimalFromatter::FormatterTypeP `RTTI Type Descriptor'
	DQ	0000000000000000H
	DB	'.?AVFormatterTypeP@DecimalFromatter@Internal@Core@Math@P'
	DB	'almtree@@', 00H
data$r	ENDS
;	COMDAT ??_R4FormatterTypeP@DecimalFromatter@Internal@Core@Math@Palmtree@@6B@
rdata$r	SEGMENT
??_R4FormatterTypeP@DecimalFromatter@Internal@Core@Math@Palmtree@@6B@ DD 01H ; Palmtree::Math::Core::Internal::DecimalFromatter::FormatterTypeP::`RTTI Complete Object Locator'
	DD	00H
	DD	00H
	DD	imagerel ??_R0?AVFormatterTypeP@DecimalFromatter@Internal@Core@Math@Palmtree@@@8
	DD	imagerel ??_R3FormatterTypeP@DecimalFromatter@Internal@Core@Math@Palmtree@@8
	DD	imagerel ??_R4FormatterTypeP@DecimalFromatter@Internal@Core@Math@Palmtree@@6B@
rdata$r	ENDS
;	COMDAT ??_R1A@?0A@EA@FormatterTypeN@DecimalFromatter@Internal@Core@Math@Palmtree@@8
rdata$r	SEGMENT
??_R1A@?0A@EA@FormatterTypeN@DecimalFromatter@Internal@Core@Math@Palmtree@@8 DD imagerel ??_R0?AVFormatterTypeN@DecimalFromatter@Internal@Core@Math@Palmtree@@@8 ; Palmtree::Math::Core::Internal::DecimalFromatter::FormatterTypeN::`RTTI Base Class Descriptor at (0,-1,0,64)'
	DD	01H
	DD	00H
	DD	0ffffffffH
	DD	00H
	DD	040H
	DD	imagerel ??_R3FormatterTypeN@DecimalFromatter@Internal@Core@Math@Palmtree@@8
rdata$r	ENDS
;	COMDAT ??_R2FormatterTypeN@DecimalFromatter@Internal@Core@Math@Palmtree@@8
rdata$r	SEGMENT
??_R2FormatterTypeN@DecimalFromatter@Internal@Core@Math@Palmtree@@8 DD imagerel ??_R1A@?0A@EA@FormatterTypeN@DecimalFromatter@Internal@Core@Math@Palmtree@@8 ; Palmtree::Math::Core::Internal::DecimalFromatter::FormatterTypeN::`RTTI Base Class Array'
	DD	imagerel ??_R1A@?0A@EA@Formatter@DecimalFromatter@Internal@Core@Math@Palmtree@@8
	ORG $+3
rdata$r	ENDS
;	COMDAT ??_R3FormatterTypeN@DecimalFromatter@Internal@Core@Math@Palmtree@@8
rdata$r	SEGMENT
??_R3FormatterTypeN@DecimalFromatter@Internal@Core@Math@Palmtree@@8 DD 00H ; Palmtree::Math::Core::Internal::DecimalFromatter::FormatterTypeN::`RTTI Class Hierarchy Descriptor'
	DD	00H
	DD	02H
	DD	imagerel ??_R2FormatterTypeN@DecimalFromatter@Internal@Core@Math@Palmtree@@8
rdata$r	ENDS
;	COMDAT ??_R0?AVFormatterTypeN@DecimalFromatter@Internal@Core@Math@Palmtree@@@8
data$r	SEGMENT
??_R0?AVFormatterTypeN@DecimalFromatter@Internal@Core@Math@Palmtree@@@8 DQ FLAT:??_7type_info@@6B@ ; Palmtree::Math::Core::Internal::DecimalFromatter::FormatterTypeN `RTTI Type Descriptor'
	DQ	0000000000000000H
	DB	'.?AVFormatterTypeN@DecimalFromatter@Internal@Core@Math@P'
	DB	'almtree@@', 00H
data$r	ENDS
;	COMDAT ??_R4FormatterTypeN@DecimalFromatter@Internal@Core@Math@Palmtree@@6B@
rdata$r	SEGMENT
??_R4FormatterTypeN@DecimalFromatter@Internal@Core@Math@Palmtree@@6B@ DD 01H ; Palmtree::Math::Core::Internal::DecimalFromatter::FormatterTypeN::`RTTI Complete Object Locator'
	DD	00H
	DD	00H
	DD	imagerel ??_R0?AVFormatterTypeN@DecimalFromatter@Internal@Core@Math@Palmtree@@@8
	DD	imagerel ??_R3FormatterTypeN@DecimalFromatter@Internal@Core@Math@Palmtree@@8
	DD	imagerel ??_R4FormatterTypeN@DecimalFromatter@Internal@Core@Math@Palmtree@@6B@
rdata$r	ENDS
;	COMDAT ??_R1A@?0A@EA@FormatterTypeF@DecimalFromatter@Internal@Core@Math@Palmtree@@8
rdata$r	SEGMENT
??_R1A@?0A@EA@FormatterTypeF@DecimalFromatter@Internal@Core@Math@Palmtree@@8 DD imagerel ??_R0?AVFormatterTypeF@DecimalFromatter@Internal@Core@Math@Palmtree@@@8 ; Palmtree::Math::Core::Internal::DecimalFromatter::FormatterTypeF::`RTTI Base Class Descriptor at (0,-1,0,64)'
	DD	01H
	DD	00H
	DD	0ffffffffH
	DD	00H
	DD	040H
	DD	imagerel ??_R3FormatterTypeF@DecimalFromatter@Internal@Core@Math@Palmtree@@8
rdata$r	ENDS
;	COMDAT ??_R2FormatterTypeF@DecimalFromatter@Internal@Core@Math@Palmtree@@8
rdata$r	SEGMENT
??_R2FormatterTypeF@DecimalFromatter@Internal@Core@Math@Palmtree@@8 DD imagerel ??_R1A@?0A@EA@FormatterTypeF@DecimalFromatter@Internal@Core@Math@Palmtree@@8 ; Palmtree::Math::Core::Internal::DecimalFromatter::FormatterTypeF::`RTTI Base Class Array'
	DD	imagerel ??_R1A@?0A@EA@Formatter@DecimalFromatter@Internal@Core@Math@Palmtree@@8
	ORG $+3
rdata$r	ENDS
;	COMDAT ??_R3FormatterTypeF@DecimalFromatter@Internal@Core@Math@Palmtree@@8
rdata$r	SEGMENT
??_R3FormatterTypeF@DecimalFromatter@Internal@Core@Math@Palmtree@@8 DD 00H ; Palmtree::Math::Core::Internal::DecimalFromatter::FormatterTypeF::`RTTI Class Hierarchy Descriptor'
	DD	00H
	DD	02H
	DD	imagerel ??_R2FormatterTypeF@DecimalFromatter@Internal@Core@Math@Palmtree@@8
rdata$r	ENDS
;	COMDAT ??_R0?AVFormatterTypeF@DecimalFromatter@Internal@Core@Math@Palmtree@@@8
data$r	SEGMENT
??_R0?AVFormatterTypeF@DecimalFromatter@Internal@Core@Math@Palmtree@@@8 DQ FLAT:??_7type_info@@6B@ ; Palmtree::Math::Core::Internal::DecimalFromatter::FormatterTypeF `RTTI Type Descriptor'
	DQ	0000000000000000H
	DB	'.?AVFormatterTypeF@DecimalFromatter@Internal@Core@Math@P'
	DB	'almtree@@', 00H
data$r	ENDS
;	COMDAT ??_R4FormatterTypeF@DecimalFromatter@Internal@Core@Math@Palmtree@@6B@
rdata$r	SEGMENT
??_R4FormatterTypeF@DecimalFromatter@Internal@Core@Math@Palmtree@@6B@ DD 01H ; Palmtree::Math::Core::Internal::DecimalFromatter::FormatterTypeF::`RTTI Complete Object Locator'
	DD	00H
	DD	00H
	DD	imagerel ??_R0?AVFormatterTypeF@DecimalFromatter@Internal@Core@Math@Palmtree@@@8
	DD	imagerel ??_R3FormatterTypeF@DecimalFromatter@Internal@Core@Math@Palmtree@@8
	DD	imagerel ??_R4FormatterTypeF@DecimalFromatter@Internal@Core@Math@Palmtree@@6B@
rdata$r	ENDS
;	COMDAT ??_R1A@?0A@EA@FormatterTypeE@DecimalFromatter@Internal@Core@Math@Palmtree@@8
rdata$r	SEGMENT
??_R1A@?0A@EA@FormatterTypeE@DecimalFromatter@Internal@Core@Math@Palmtree@@8 DD imagerel ??_R0?AVFormatterTypeE@DecimalFromatter@Internal@Core@Math@Palmtree@@@8 ; Palmtree::Math::Core::Internal::DecimalFromatter::FormatterTypeE::`RTTI Base Class Descriptor at (0,-1,0,64)'
	DD	01H
	DD	00H
	DD	0ffffffffH
	DD	00H
	DD	040H
	DD	imagerel ??_R3FormatterTypeE@DecimalFromatter@Internal@Core@Math@Palmtree@@8
rdata$r	ENDS
;	COMDAT ??_R2FormatterTypeE@DecimalFromatter@Internal@Core@Math@Palmtree@@8
rdata$r	SEGMENT
??_R2FormatterTypeE@DecimalFromatter@Internal@Core@Math@Palmtree@@8 DD imagerel ??_R1A@?0A@EA@FormatterTypeE@DecimalFromatter@Internal@Core@Math@Palmtree@@8 ; Palmtree::Math::Core::Internal::DecimalFromatter::FormatterTypeE::`RTTI Base Class Array'
	DD	imagerel ??_R1A@?0A@EA@Formatter@DecimalFromatter@Internal@Core@Math@Palmtree@@8
	ORG $+3
rdata$r	ENDS
;	COMDAT ??_R3FormatterTypeE@DecimalFromatter@Internal@Core@Math@Palmtree@@8
rdata$r	SEGMENT
??_R3FormatterTypeE@DecimalFromatter@Internal@Core@Math@Palmtree@@8 DD 00H ; Palmtree::Math::Core::Internal::DecimalFromatter::FormatterTypeE::`RTTI Class Hierarchy Descriptor'
	DD	00H
	DD	02H
	DD	imagerel ??_R2FormatterTypeE@DecimalFromatter@Internal@Core@Math@Palmtree@@8
rdata$r	ENDS
;	COMDAT ??_R0?AVFormatterTypeE@DecimalFromatter@Internal@Core@Math@Palmtree@@@8
data$r	SEGMENT
??_R0?AVFormatterTypeE@DecimalFromatter@Internal@Core@Math@Palmtree@@@8 DQ FLAT:??_7type_info@@6B@ ; Palmtree::Math::Core::Internal::DecimalFromatter::FormatterTypeE `RTTI Type Descriptor'
	DQ	0000000000000000H
	DB	'.?AVFormatterTypeE@DecimalFromatter@Internal@Core@Math@P'
	DB	'almtree@@', 00H
data$r	ENDS
;	COMDAT ??_R4FormatterTypeE@DecimalFromatter@Internal@Core@Math@Palmtree@@6B@
rdata$r	SEGMENT
??_R4FormatterTypeE@DecimalFromatter@Internal@Core@Math@Palmtree@@6B@ DD 01H ; Palmtree::Math::Core::Internal::DecimalFromatter::FormatterTypeE::`RTTI Complete Object Locator'
	DD	00H
	DD	00H
	DD	imagerel ??_R0?AVFormatterTypeE@DecimalFromatter@Internal@Core@Math@Palmtree@@@8
	DD	imagerel ??_R3FormatterTypeE@DecimalFromatter@Internal@Core@Math@Palmtree@@8
	DD	imagerel ??_R4FormatterTypeE@DecimalFromatter@Internal@Core@Math@Palmtree@@6B@
rdata$r	ENDS
;	COMDAT ??_R1A@?0A@EA@FormatterTypeD@DecimalFromatter@Internal@Core@Math@Palmtree@@8
rdata$r	SEGMENT
??_R1A@?0A@EA@FormatterTypeD@DecimalFromatter@Internal@Core@Math@Palmtree@@8 DD imagerel ??_R0?AVFormatterTypeD@DecimalFromatter@Internal@Core@Math@Palmtree@@@8 ; Palmtree::Math::Core::Internal::DecimalFromatter::FormatterTypeD::`RTTI Base Class Descriptor at (0,-1,0,64)'
	DD	01H
	DD	00H
	DD	0ffffffffH
	DD	00H
	DD	040H
	DD	imagerel ??_R3FormatterTypeD@DecimalFromatter@Internal@Core@Math@Palmtree@@8
rdata$r	ENDS
;	COMDAT ??_R2FormatterTypeD@DecimalFromatter@Internal@Core@Math@Palmtree@@8
rdata$r	SEGMENT
??_R2FormatterTypeD@DecimalFromatter@Internal@Core@Math@Palmtree@@8 DD imagerel ??_R1A@?0A@EA@FormatterTypeD@DecimalFromatter@Internal@Core@Math@Palmtree@@8 ; Palmtree::Math::Core::Internal::DecimalFromatter::FormatterTypeD::`RTTI Base Class Array'
	DD	imagerel ??_R1A@?0A@EA@Formatter@DecimalFromatter@Internal@Core@Math@Palmtree@@8
	ORG $+3
rdata$r	ENDS
;	COMDAT ??_R3FormatterTypeD@DecimalFromatter@Internal@Core@Math@Palmtree@@8
rdata$r	SEGMENT
??_R3FormatterTypeD@DecimalFromatter@Internal@Core@Math@Palmtree@@8 DD 00H ; Palmtree::Math::Core::Internal::DecimalFromatter::FormatterTypeD::`RTTI Class Hierarchy Descriptor'
	DD	00H
	DD	02H
	DD	imagerel ??_R2FormatterTypeD@DecimalFromatter@Internal@Core@Math@Palmtree@@8
rdata$r	ENDS
;	COMDAT ??_R0?AVFormatterTypeD@DecimalFromatter@Internal@Core@Math@Palmtree@@@8
data$r	SEGMENT
??_R0?AVFormatterTypeD@DecimalFromatter@Internal@Core@Math@Palmtree@@@8 DQ FLAT:??_7type_info@@6B@ ; Palmtree::Math::Core::Internal::DecimalFromatter::FormatterTypeD `RTTI Type Descriptor'
	DQ	0000000000000000H
	DB	'.?AVFormatterTypeD@DecimalFromatter@Internal@Core@Math@P'
	DB	'almtree@@', 00H
data$r	ENDS
;	COMDAT ??_R4FormatterTypeD@DecimalFromatter@Internal@Core@Math@Palmtree@@6B@
rdata$r	SEGMENT
??_R4FormatterTypeD@DecimalFromatter@Internal@Core@Math@Palmtree@@6B@ DD 01H ; Palmtree::Math::Core::Internal::DecimalFromatter::FormatterTypeD::`RTTI Complete Object Locator'
	DD	00H
	DD	00H
	DD	imagerel ??_R0?AVFormatterTypeD@DecimalFromatter@Internal@Core@Math@Palmtree@@@8
	DD	imagerel ??_R3FormatterTypeD@DecimalFromatter@Internal@Core@Math@Palmtree@@8
	DD	imagerel ??_R4FormatterTypeD@DecimalFromatter@Internal@Core@Math@Palmtree@@6B@
rdata$r	ENDS
;	COMDAT ??_R1A@?0A@EA@FormatterTypeC@DecimalFromatter@Internal@Core@Math@Palmtree@@8
rdata$r	SEGMENT
??_R1A@?0A@EA@FormatterTypeC@DecimalFromatter@Internal@Core@Math@Palmtree@@8 DD imagerel ??_R0?AVFormatterTypeC@DecimalFromatter@Internal@Core@Math@Palmtree@@@8 ; Palmtree::Math::Core::Internal::DecimalFromatter::FormatterTypeC::`RTTI Base Class Descriptor at (0,-1,0,64)'
	DD	01H
	DD	00H
	DD	0ffffffffH
	DD	00H
	DD	040H
	DD	imagerel ??_R3FormatterTypeC@DecimalFromatter@Internal@Core@Math@Palmtree@@8
rdata$r	ENDS
;	COMDAT ??_R2FormatterTypeC@DecimalFromatter@Internal@Core@Math@Palmtree@@8
rdata$r	SEGMENT
??_R2FormatterTypeC@DecimalFromatter@Internal@Core@Math@Palmtree@@8 DD imagerel ??_R1A@?0A@EA@FormatterTypeC@DecimalFromatter@Internal@Core@Math@Palmtree@@8 ; Palmtree::Math::Core::Internal::DecimalFromatter::FormatterTypeC::`RTTI Base Class Array'
	DD	imagerel ??_R1A@?0A@EA@Formatter@DecimalFromatter@Internal@Core@Math@Palmtree@@8
	ORG $+3
rdata$r	ENDS
;	COMDAT ??_R3FormatterTypeC@DecimalFromatter@Internal@Core@Math@Palmtree@@8
rdata$r	SEGMENT
??_R3FormatterTypeC@DecimalFromatter@Internal@Core@Math@Palmtree@@8 DD 00H ; Palmtree::Math::Core::Internal::DecimalFromatter::FormatterTypeC::`RTTI Class Hierarchy Descriptor'
	DD	00H
	DD	02H
	DD	imagerel ??_R2FormatterTypeC@DecimalFromatter@Internal@Core@Math@Palmtree@@8
rdata$r	ENDS
;	COMDAT ??_R0?AVFormatterTypeC@DecimalFromatter@Internal@Core@Math@Palmtree@@@8
data$r	SEGMENT
??_R0?AVFormatterTypeC@DecimalFromatter@Internal@Core@Math@Palmtree@@@8 DQ FLAT:??_7type_info@@6B@ ; Palmtree::Math::Core::Internal::DecimalFromatter::FormatterTypeC `RTTI Type Descriptor'
	DQ	0000000000000000H
	DB	'.?AVFormatterTypeC@DecimalFromatter@Internal@Core@Math@P'
	DB	'almtree@@', 00H
data$r	ENDS
;	COMDAT ??_R4FormatterTypeC@DecimalFromatter@Internal@Core@Math@Palmtree@@6B@
rdata$r	SEGMENT
??_R4FormatterTypeC@DecimalFromatter@Internal@Core@Math@Palmtree@@6B@ DD 01H ; Palmtree::Math::Core::Internal::DecimalFromatter::FormatterTypeC::`RTTI Complete Object Locator'
	DD	00H
	DD	00H
	DD	imagerel ??_R0?AVFormatterTypeC@DecimalFromatter@Internal@Core@Math@Palmtree@@@8
	DD	imagerel ??_R3FormatterTypeC@DecimalFromatter@Internal@Core@Math@Palmtree@@8
	DD	imagerel ??_R4FormatterTypeC@DecimalFromatter@Internal@Core@Math@Palmtree@@6B@
rdata$r	ENDS
;	COMDAT ??_R1A@?0A@EA@Formatter@DecimalFromatter@Internal@Core@Math@Palmtree@@8
rdata$r	SEGMENT
??_R1A@?0A@EA@Formatter@DecimalFromatter@Internal@Core@Math@Palmtree@@8 DD imagerel ??_R0?AVFormatter@DecimalFromatter@Internal@Core@Math@Palmtree@@@8 ; Palmtree::Math::Core::Internal::DecimalFromatter::Formatter::`RTTI Base Class Descriptor at (0,-1,0,64)'
	DD	00H
	DD	00H
	DD	0ffffffffH
	DD	00H
	DD	040H
	DD	imagerel ??_R3Formatter@DecimalFromatter@Internal@Core@Math@Palmtree@@8
rdata$r	ENDS
;	COMDAT ??_R2Formatter@DecimalFromatter@Internal@Core@Math@Palmtree@@8
rdata$r	SEGMENT
??_R2Formatter@DecimalFromatter@Internal@Core@Math@Palmtree@@8 DD imagerel ??_R1A@?0A@EA@Formatter@DecimalFromatter@Internal@Core@Math@Palmtree@@8 ; Palmtree::Math::Core::Internal::DecimalFromatter::Formatter::`RTTI Base Class Array'
	ORG $+3
rdata$r	ENDS
;	COMDAT ??_R3Formatter@DecimalFromatter@Internal@Core@Math@Palmtree@@8
rdata$r	SEGMENT
??_R3Formatter@DecimalFromatter@Internal@Core@Math@Palmtree@@8 DD 00H ; Palmtree::Math::Core::Internal::DecimalFromatter::Formatter::`RTTI Class Hierarchy Descriptor'
	DD	00H
	DD	01H
	DD	imagerel ??_R2Formatter@DecimalFromatter@Internal@Core@Math@Palmtree@@8
rdata$r	ENDS
;	COMDAT ??_R0?AVFormatter@DecimalFromatter@Internal@Core@Math@Palmtree@@@8
data$r	SEGMENT
??_R0?AVFormatter@DecimalFromatter@Internal@Core@Math@Palmtree@@@8 DQ FLAT:??_7type_info@@6B@ ; Palmtree::Math::Core::Internal::DecimalFromatter::Formatter `RTTI Type Descriptor'
	DQ	0000000000000000H
	DB	'.?AVFormatter@DecimalFromatter@Internal@Core@Math@Palmtr'
	DB	'ee@@', 00H
data$r	ENDS
;	COMDAT ??_R4Formatter@DecimalFromatter@Internal@Core@Math@Palmtree@@6B@
rdata$r	SEGMENT
??_R4Formatter@DecimalFromatter@Internal@Core@Math@Palmtree@@6B@ DD 01H ; Palmtree::Math::Core::Internal::DecimalFromatter::Formatter::`RTTI Complete Object Locator'
	DD	00H
	DD	00H
	DD	imagerel ??_R0?AVFormatter@DecimalFromatter@Internal@Core@Math@Palmtree@@@8
	DD	imagerel ??_R3Formatter@DecimalFromatter@Internal@Core@Math@Palmtree@@8
	DD	imagerel ??_R4Formatter@DecimalFromatter@Internal@Core@Math@Palmtree@@6B@
rdata$r	ENDS
;	COMDAT ??_R1A@?0A@EA@ThousandSeparatedStringWriter@DecimalFromatter@Internal@Core@Math@Palmtree@@8
rdata$r	SEGMENT
??_R1A@?0A@EA@ThousandSeparatedStringWriter@DecimalFromatter@Internal@Core@Math@Palmtree@@8 DD imagerel ??_R0?AVThousandSeparatedStringWriter@DecimalFromatter@Internal@Core@Math@Palmtree@@@8 ; Palmtree::Math::Core::Internal::DecimalFromatter::ThousandSeparatedStringWriter::`RTTI Base Class Descriptor at (0,-1,0,64)'
	DD	01H
	DD	00H
	DD	0ffffffffH
	DD	00H
	DD	040H
	DD	imagerel ??_R3ThousandSeparatedStringWriter@DecimalFromatter@Internal@Core@Math@Palmtree@@8
rdata$r	ENDS
;	COMDAT ??_R2ThousandSeparatedStringWriter@DecimalFromatter@Internal@Core@Math@Palmtree@@8
rdata$r	SEGMENT
??_R2ThousandSeparatedStringWriter@DecimalFromatter@Internal@Core@Math@Palmtree@@8 DD imagerel ??_R1A@?0A@EA@ThousandSeparatedStringWriter@DecimalFromatter@Internal@Core@Math@Palmtree@@8 ; Palmtree::Math::Core::Internal::DecimalFromatter::ThousandSeparatedStringWriter::`RTTI Base Class Array'
	DD	imagerel ??_R1A@?0A@EA@StringWriter@Internal@Core@Math@Palmtree@@8
	ORG $+3
rdata$r	ENDS
;	COMDAT ??_R3ThousandSeparatedStringWriter@DecimalFromatter@Internal@Core@Math@Palmtree@@8
rdata$r	SEGMENT
??_R3ThousandSeparatedStringWriter@DecimalFromatter@Internal@Core@Math@Palmtree@@8 DD 00H ; Palmtree::Math::Core::Internal::DecimalFromatter::ThousandSeparatedStringWriter::`RTTI Class Hierarchy Descriptor'
	DD	00H
	DD	02H
	DD	imagerel ??_R2ThousandSeparatedStringWriter@DecimalFromatter@Internal@Core@Math@Palmtree@@8
rdata$r	ENDS
;	COMDAT ??_R0?AVThousandSeparatedStringWriter@DecimalFromatter@Internal@Core@Math@Palmtree@@@8
data$r	SEGMENT
??_R0?AVThousandSeparatedStringWriter@DecimalFromatter@Internal@Core@Math@Palmtree@@@8 DQ FLAT:??_7type_info@@6B@ ; Palmtree::Math::Core::Internal::DecimalFromatter::ThousandSeparatedStringWriter `RTTI Type Descriptor'
	DQ	0000000000000000H
	DB	'.?AVThousandSeparatedStringWriter@DecimalFromatter@Inter'
	DB	'nal@Core@Math@Palmtree@@', 00H
data$r	ENDS
;	COMDAT ??_R4ThousandSeparatedStringWriter@DecimalFromatter@Internal@Core@Math@Palmtree@@6B@
rdata$r	SEGMENT
??_R4ThousandSeparatedStringWriter@DecimalFromatter@Internal@Core@Math@Palmtree@@6B@ DD 01H ; Palmtree::Math::Core::Internal::DecimalFromatter::ThousandSeparatedStringWriter::`RTTI Complete Object Locator'
	DD	00H
	DD	00H
	DD	imagerel ??_R0?AVThousandSeparatedStringWriter@DecimalFromatter@Internal@Core@Math@Palmtree@@@8
	DD	imagerel ??_R3ThousandSeparatedStringWriter@DecimalFromatter@Internal@Core@Math@Palmtree@@8
	DD	imagerel ??_R4ThousandSeparatedStringWriter@DecimalFromatter@Internal@Core@Math@Palmtree@@6B@
rdata$r	ENDS
;	COMDAT ??_R1A@?0A@EA@ReverseStringWriter@Internal@Core@Math@Palmtree@@8
rdata$r	SEGMENT
??_R1A@?0A@EA@ReverseStringWriter@Internal@Core@Math@Palmtree@@8 DD imagerel ??_R0?AVReverseStringWriter@Internal@Core@Math@Palmtree@@@8 ; Palmtree::Math::Core::Internal::ReverseStringWriter::`RTTI Base Class Descriptor at (0,-1,0,64)'
	DD	01H
	DD	00H
	DD	0ffffffffH
	DD	00H
	DD	040H
	DD	imagerel ??_R3ReverseStringWriter@Internal@Core@Math@Palmtree@@8
rdata$r	ENDS
;	COMDAT ??_R2ReverseStringWriter@Internal@Core@Math@Palmtree@@8
rdata$r	SEGMENT
??_R2ReverseStringWriter@Internal@Core@Math@Palmtree@@8 DD imagerel ??_R1A@?0A@EA@ReverseStringWriter@Internal@Core@Math@Palmtree@@8 ; Palmtree::Math::Core::Internal::ReverseStringWriter::`RTTI Base Class Array'
	DD	imagerel ??_R1A@?0A@EA@StringWriter@Internal@Core@Math@Palmtree@@8
	ORG $+3
rdata$r	ENDS
;	COMDAT ??_R3ReverseStringWriter@Internal@Core@Math@Palmtree@@8
rdata$r	SEGMENT
??_R3ReverseStringWriter@Internal@Core@Math@Palmtree@@8 DD 00H ; Palmtree::Math::Core::Internal::ReverseStringWriter::`RTTI Class Hierarchy Descriptor'
	DD	00H
	DD	02H
	DD	imagerel ??_R2ReverseStringWriter@Internal@Core@Math@Palmtree@@8
rdata$r	ENDS
;	COMDAT ??_R0?AVReverseStringWriter@Internal@Core@Math@Palmtree@@@8
data$r	SEGMENT
??_R0?AVReverseStringWriter@Internal@Core@Math@Palmtree@@@8 DQ FLAT:??_7type_info@@6B@ ; Palmtree::Math::Core::Internal::ReverseStringWriter `RTTI Type Descriptor'
	DQ	0000000000000000H
	DB	'.?AVReverseStringWriter@Internal@Core@Math@Palmtree@@', 00H
data$r	ENDS
;	COMDAT ??_R4ReverseStringWriter@Internal@Core@Math@Palmtree@@6B@
rdata$r	SEGMENT
??_R4ReverseStringWriter@Internal@Core@Math@Palmtree@@6B@ DD 01H ; Palmtree::Math::Core::Internal::ReverseStringWriter::`RTTI Complete Object Locator'
	DD	00H
	DD	00H
	DD	imagerel ??_R0?AVReverseStringWriter@Internal@Core@Math@Palmtree@@@8
	DD	imagerel ??_R3ReverseStringWriter@Internal@Core@Math@Palmtree@@8
	DD	imagerel ??_R4ReverseStringWriter@Internal@Core@Math@Palmtree@@6B@
rdata$r	ENDS
;	COMDAT ??_R1A@?0A@EA@StringWriter@Internal@Core@Math@Palmtree@@8
rdata$r	SEGMENT
??_R1A@?0A@EA@StringWriter@Internal@Core@Math@Palmtree@@8 DD imagerel ??_R0?AVStringWriter@Internal@Core@Math@Palmtree@@@8 ; Palmtree::Math::Core::Internal::StringWriter::`RTTI Base Class Descriptor at (0,-1,0,64)'
	DD	00H
	DD	00H
	DD	0ffffffffH
	DD	00H
	DD	040H
	DD	imagerel ??_R3StringWriter@Internal@Core@Math@Palmtree@@8
rdata$r	ENDS
;	COMDAT ??_R2StringWriter@Internal@Core@Math@Palmtree@@8
rdata$r	SEGMENT
??_R2StringWriter@Internal@Core@Math@Palmtree@@8 DD imagerel ??_R1A@?0A@EA@StringWriter@Internal@Core@Math@Palmtree@@8 ; Palmtree::Math::Core::Internal::StringWriter::`RTTI Base Class Array'
	ORG $+3
rdata$r	ENDS
;	COMDAT ??_R3StringWriter@Internal@Core@Math@Palmtree@@8
rdata$r	SEGMENT
??_R3StringWriter@Internal@Core@Math@Palmtree@@8 DD 00H	; Palmtree::Math::Core::Internal::StringWriter::`RTTI Class Hierarchy Descriptor'
	DD	00H
	DD	01H
	DD	imagerel ??_R2StringWriter@Internal@Core@Math@Palmtree@@8
rdata$r	ENDS
;	COMDAT ??_R0?AVStringWriter@Internal@Core@Math@Palmtree@@@8
data$r	SEGMENT
??_R0?AVStringWriter@Internal@Core@Math@Palmtree@@@8 DQ FLAT:??_7type_info@@6B@ ; Palmtree::Math::Core::Internal::StringWriter `RTTI Type Descriptor'
	DQ	0000000000000000H
	DB	'.?AVStringWriter@Internal@Core@Math@Palmtree@@', 00H
data$r	ENDS
;	COMDAT ??_R4StringWriter@Internal@Core@Math@Palmtree@@6B@
rdata$r	SEGMENT
??_R4StringWriter@Internal@Core@Math@Palmtree@@6B@ DD 01H ; Palmtree::Math::Core::Internal::StringWriter::`RTTI Complete Object Locator'
	DD	00H
	DD	00H
	DD	imagerel ??_R0?AVStringWriter@Internal@Core@Math@Palmtree@@@8
	DD	imagerel ??_R3StringWriter@Internal@Core@Math@Palmtree@@8
	DD	imagerel ??_R4StringWriter@Internal@Core@Math@Palmtree@@6B@
rdata$r	ENDS
;	COMDAT ??_R1A@?0A@EA@ReverseStringReader@Internal@Core@Math@Palmtree@@8
rdata$r	SEGMENT
??_R1A@?0A@EA@ReverseStringReader@Internal@Core@Math@Palmtree@@8 DD imagerel ??_R0?AVReverseStringReader@Internal@Core@Math@Palmtree@@@8 ; Palmtree::Math::Core::Internal::ReverseStringReader::`RTTI Base Class Descriptor at (0,-1,0,64)'
	DD	01H
	DD	00H
	DD	0ffffffffH
	DD	00H
	DD	040H
	DD	imagerel ??_R3ReverseStringReader@Internal@Core@Math@Palmtree@@8
rdata$r	ENDS
;	COMDAT ??_R2ReverseStringReader@Internal@Core@Math@Palmtree@@8
rdata$r	SEGMENT
??_R2ReverseStringReader@Internal@Core@Math@Palmtree@@8 DD imagerel ??_R1A@?0A@EA@ReverseStringReader@Internal@Core@Math@Palmtree@@8 ; Palmtree::Math::Core::Internal::ReverseStringReader::`RTTI Base Class Array'
	DD	imagerel ??_R1A@?0A@EA@StringReader@Internal@Core@Math@Palmtree@@8
	ORG $+3
rdata$r	ENDS
;	COMDAT ??_R3ReverseStringReader@Internal@Core@Math@Palmtree@@8
rdata$r	SEGMENT
??_R3ReverseStringReader@Internal@Core@Math@Palmtree@@8 DD 00H ; Palmtree::Math::Core::Internal::ReverseStringReader::`RTTI Class Hierarchy Descriptor'
	DD	00H
	DD	02H
	DD	imagerel ??_R2ReverseStringReader@Internal@Core@Math@Palmtree@@8
rdata$r	ENDS
;	COMDAT ??_R0?AVReverseStringReader@Internal@Core@Math@Palmtree@@@8
data$r	SEGMENT
??_R0?AVReverseStringReader@Internal@Core@Math@Palmtree@@@8 DQ FLAT:??_7type_info@@6B@ ; Palmtree::Math::Core::Internal::ReverseStringReader `RTTI Type Descriptor'
	DQ	0000000000000000H
	DB	'.?AVReverseStringReader@Internal@Core@Math@Palmtree@@', 00H
data$r	ENDS
;	COMDAT ??_R4ReverseStringReader@Internal@Core@Math@Palmtree@@6B@
rdata$r	SEGMENT
??_R4ReverseStringReader@Internal@Core@Math@Palmtree@@6B@ DD 01H ; Palmtree::Math::Core::Internal::ReverseStringReader::`RTTI Complete Object Locator'
	DD	00H
	DD	00H
	DD	imagerel ??_R0?AVReverseStringReader@Internal@Core@Math@Palmtree@@@8
	DD	imagerel ??_R3ReverseStringReader@Internal@Core@Math@Palmtree@@8
	DD	imagerel ??_R4ReverseStringReader@Internal@Core@Math@Palmtree@@6B@
rdata$r	ENDS
;	COMDAT ??_R1A@?0A@EA@StringReader@Internal@Core@Math@Palmtree@@8
rdata$r	SEGMENT
??_R1A@?0A@EA@StringReader@Internal@Core@Math@Palmtree@@8 DD imagerel ??_R0?AVStringReader@Internal@Core@Math@Palmtree@@@8 ; Palmtree::Math::Core::Internal::StringReader::`RTTI Base Class Descriptor at (0,-1,0,64)'
	DD	00H
	DD	00H
	DD	0ffffffffH
	DD	00H
	DD	040H
	DD	imagerel ??_R3StringReader@Internal@Core@Math@Palmtree@@8
rdata$r	ENDS
;	COMDAT ??_R2StringReader@Internal@Core@Math@Palmtree@@8
rdata$r	SEGMENT
??_R2StringReader@Internal@Core@Math@Palmtree@@8 DD imagerel ??_R1A@?0A@EA@StringReader@Internal@Core@Math@Palmtree@@8 ; Palmtree::Math::Core::Internal::StringReader::`RTTI Base Class Array'
	ORG $+3
rdata$r	ENDS
;	COMDAT ??_R3StringReader@Internal@Core@Math@Palmtree@@8
rdata$r	SEGMENT
??_R3StringReader@Internal@Core@Math@Palmtree@@8 DD 00H	; Palmtree::Math::Core::Internal::StringReader::`RTTI Class Hierarchy Descriptor'
	DD	00H
	DD	01H
	DD	imagerel ??_R2StringReader@Internal@Core@Math@Palmtree@@8
rdata$r	ENDS
;	COMDAT ??_R0?AVStringReader@Internal@Core@Math@Palmtree@@@8
data$r	SEGMENT
??_R0?AVStringReader@Internal@Core@Math@Palmtree@@@8 DQ FLAT:??_7type_info@@6B@ ; Palmtree::Math::Core::Internal::StringReader `RTTI Type Descriptor'
	DQ	0000000000000000H
	DB	'.?AVStringReader@Internal@Core@Math@Palmtree@@', 00H
data$r	ENDS
;	COMDAT ??_R4StringReader@Internal@Core@Math@Palmtree@@6B@
rdata$r	SEGMENT
??_R4StringReader@Internal@Core@Math@Palmtree@@6B@ DD 01H ; Palmtree::Math::Core::Internal::StringReader::`RTTI Complete Object Locator'
	DD	00H
	DD	00H
	DD	imagerel ??_R0?AVStringReader@Internal@Core@Math@Palmtree@@@8
	DD	imagerel ??_R3StringReader@Internal@Core@Math@Palmtree@@8
	DD	imagerel ??_R4StringReader@Internal@Core@Math@Palmtree@@6B@
rdata$r	ENDS
;	COMDAT ??_R1A@?0A@EA@InternalErrorException@Internal@Core@Math@Palmtree@@8
rdata$r	SEGMENT
??_R1A@?0A@EA@InternalErrorException@Internal@Core@Math@Palmtree@@8 DD imagerel ??_R0?AVInternalErrorException@Internal@Core@Math@Palmtree@@@8 ; Palmtree::Math::Core::Internal::InternalErrorException::`RTTI Base Class Descriptor at (0,-1,0,64)'
	DD	02H
	DD	00H
	DD	0ffffffffH
	DD	00H
	DD	040H
	DD	imagerel ??_R3InternalErrorException@Internal@Core@Math@Palmtree@@8
rdata$r	ENDS
;	COMDAT ??_R2InternalErrorException@Internal@Core@Math@Palmtree@@8
rdata$r	SEGMENT
??_R2InternalErrorException@Internal@Core@Math@Palmtree@@8 DD imagerel ??_R1A@?0A@EA@InternalErrorException@Internal@Core@Math@Palmtree@@8 ; Palmtree::Math::Core::Internal::InternalErrorException::`RTTI Base Class Array'
	DD	imagerel ??_R1A@?0A@EA@Exception@Internal@Core@Math@Palmtree@@8
	DD	imagerel ??_R1A@?0A@EN@exception@std@@8
	ORG $+3
rdata$r	ENDS
;	COMDAT ??_R3InternalErrorException@Internal@Core@Math@Palmtree@@8
rdata$r	SEGMENT
??_R3InternalErrorException@Internal@Core@Math@Palmtree@@8 DD 00H ; Palmtree::Math::Core::Internal::InternalErrorException::`RTTI Class Hierarchy Descriptor'
	DD	00H
	DD	03H
	DD	imagerel ??_R2InternalErrorException@Internal@Core@Math@Palmtree@@8
rdata$r	ENDS
;	COMDAT ??_R4InternalErrorException@Internal@Core@Math@Palmtree@@6B@
rdata$r	SEGMENT
??_R4InternalErrorException@Internal@Core@Math@Palmtree@@6B@ DD 01H ; Palmtree::Math::Core::Internal::InternalErrorException::`RTTI Complete Object Locator'
	DD	00H
	DD	00H
	DD	imagerel ??_R0?AVInternalErrorException@Internal@Core@Math@Palmtree@@@8
	DD	imagerel ??_R3InternalErrorException@Internal@Core@Math@Palmtree@@8
	DD	imagerel ??_R4InternalErrorException@Internal@Core@Math@Palmtree@@6B@
rdata$r	ENDS
;	COMDAT ??_R1A@?0A@EA@NotSupportedException@Internal@Core@Math@Palmtree@@8
rdata$r	SEGMENT
??_R1A@?0A@EA@NotSupportedException@Internal@Core@Math@Palmtree@@8 DD imagerel ??_R0?AVNotSupportedException@Internal@Core@Math@Palmtree@@@8 ; Palmtree::Math::Core::Internal::NotSupportedException::`RTTI Base Class Descriptor at (0,-1,0,64)'
	DD	02H
	DD	00H
	DD	0ffffffffH
	DD	00H
	DD	040H
	DD	imagerel ??_R3NotSupportedException@Internal@Core@Math@Palmtree@@8
rdata$r	ENDS
;	COMDAT ??_R2NotSupportedException@Internal@Core@Math@Palmtree@@8
rdata$r	SEGMENT
??_R2NotSupportedException@Internal@Core@Math@Palmtree@@8 DD imagerel ??_R1A@?0A@EA@NotSupportedException@Internal@Core@Math@Palmtree@@8 ; Palmtree::Math::Core::Internal::NotSupportedException::`RTTI Base Class Array'
	DD	imagerel ??_R1A@?0A@EA@Exception@Internal@Core@Math@Palmtree@@8
	DD	imagerel ??_R1A@?0A@EN@exception@std@@8
	ORG $+3
rdata$r	ENDS
;	COMDAT ??_R3NotSupportedException@Internal@Core@Math@Palmtree@@8
rdata$r	SEGMENT
??_R3NotSupportedException@Internal@Core@Math@Palmtree@@8 DD 00H ; Palmtree::Math::Core::Internal::NotSupportedException::`RTTI Class Hierarchy Descriptor'
	DD	00H
	DD	03H
	DD	imagerel ??_R2NotSupportedException@Internal@Core@Math@Palmtree@@8
rdata$r	ENDS
;	COMDAT ??_R4NotSupportedException@Internal@Core@Math@Palmtree@@6B@
rdata$r	SEGMENT
??_R4NotSupportedException@Internal@Core@Math@Palmtree@@6B@ DD 01H ; Palmtree::Math::Core::Internal::NotSupportedException::`RTTI Complete Object Locator'
	DD	00H
	DD	00H
	DD	imagerel ??_R0?AVNotSupportedException@Internal@Core@Math@Palmtree@@@8
	DD	imagerel ??_R3NotSupportedException@Internal@Core@Math@Palmtree@@8
	DD	imagerel ??_R4NotSupportedException@Internal@Core@Math@Palmtree@@6B@
rdata$r	ENDS
;	COMDAT ??_R1A@?0A@EA@InsufficientBufferException@Internal@Core@Math@Palmtree@@8
rdata$r	SEGMENT
??_R1A@?0A@EA@InsufficientBufferException@Internal@Core@Math@Palmtree@@8 DD imagerel ??_R0?AVInsufficientBufferException@Internal@Core@Math@Palmtree@@@8 ; Palmtree::Math::Core::Internal::InsufficientBufferException::`RTTI Base Class Descriptor at (0,-1,0,64)'
	DD	02H
	DD	00H
	DD	0ffffffffH
	DD	00H
	DD	040H
	DD	imagerel ??_R3InsufficientBufferException@Internal@Core@Math@Palmtree@@8
rdata$r	ENDS
;	COMDAT ??_R2InsufficientBufferException@Internal@Core@Math@Palmtree@@8
rdata$r	SEGMENT
??_R2InsufficientBufferException@Internal@Core@Math@Palmtree@@8 DD imagerel ??_R1A@?0A@EA@InsufficientBufferException@Internal@Core@Math@Palmtree@@8 ; Palmtree::Math::Core::Internal::InsufficientBufferException::`RTTI Base Class Array'
	DD	imagerel ??_R1A@?0A@EA@Exception@Internal@Core@Math@Palmtree@@8
	DD	imagerel ??_R1A@?0A@EN@exception@std@@8
	ORG $+3
rdata$r	ENDS
;	COMDAT ??_R3InsufficientBufferException@Internal@Core@Math@Palmtree@@8
rdata$r	SEGMENT
??_R3InsufficientBufferException@Internal@Core@Math@Palmtree@@8 DD 00H ; Palmtree::Math::Core::Internal::InsufficientBufferException::`RTTI Class Hierarchy Descriptor'
	DD	00H
	DD	03H
	DD	imagerel ??_R2InsufficientBufferException@Internal@Core@Math@Palmtree@@8
rdata$r	ENDS
;	COMDAT ??_R4InsufficientBufferException@Internal@Core@Math@Palmtree@@6B@
rdata$r	SEGMENT
??_R4InsufficientBufferException@Internal@Core@Math@Palmtree@@6B@ DD 01H ; Palmtree::Math::Core::Internal::InsufficientBufferException::`RTTI Complete Object Locator'
	DD	00H
	DD	00H
	DD	imagerel ??_R0?AVInsufficientBufferException@Internal@Core@Math@Palmtree@@@8
	DD	imagerel ??_R3InsufficientBufferException@Internal@Core@Math@Palmtree@@8
	DD	imagerel ??_R4InsufficientBufferException@Internal@Core@Math@Palmtree@@6B@
rdata$r	ENDS
;	COMDAT ??_R1A@?0A@EA@FormatException@Internal@Core@Math@Palmtree@@8
rdata$r	SEGMENT
??_R1A@?0A@EA@FormatException@Internal@Core@Math@Palmtree@@8 DD imagerel ??_R0?AVFormatException@Internal@Core@Math@Palmtree@@@8 ; Palmtree::Math::Core::Internal::FormatException::`RTTI Base Class Descriptor at (0,-1,0,64)'
	DD	02H
	DD	00H
	DD	0ffffffffH
	DD	00H
	DD	040H
	DD	imagerel ??_R3FormatException@Internal@Core@Math@Palmtree@@8
rdata$r	ENDS
;	COMDAT ??_R2FormatException@Internal@Core@Math@Palmtree@@8
rdata$r	SEGMENT
??_R2FormatException@Internal@Core@Math@Palmtree@@8 DD imagerel ??_R1A@?0A@EA@FormatException@Internal@Core@Math@Palmtree@@8 ; Palmtree::Math::Core::Internal::FormatException::`RTTI Base Class Array'
	DD	imagerel ??_R1A@?0A@EA@Exception@Internal@Core@Math@Palmtree@@8
	DD	imagerel ??_R1A@?0A@EN@exception@std@@8
	ORG $+3
rdata$r	ENDS
;	COMDAT ??_R3FormatException@Internal@Core@Math@Palmtree@@8
rdata$r	SEGMENT
??_R3FormatException@Internal@Core@Math@Palmtree@@8 DD 00H ; Palmtree::Math::Core::Internal::FormatException::`RTTI Class Hierarchy Descriptor'
	DD	00H
	DD	03H
	DD	imagerel ??_R2FormatException@Internal@Core@Math@Palmtree@@8
rdata$r	ENDS
;	COMDAT ??_R4FormatException@Internal@Core@Math@Palmtree@@6B@
rdata$r	SEGMENT
??_R4FormatException@Internal@Core@Math@Palmtree@@6B@ DD 01H ; Palmtree::Math::Core::Internal::FormatException::`RTTI Complete Object Locator'
	DD	00H
	DD	00H
	DD	imagerel ??_R0?AVFormatException@Internal@Core@Math@Palmtree@@@8
	DD	imagerel ??_R3FormatException@Internal@Core@Math@Palmtree@@8
	DD	imagerel ??_R4FormatException@Internal@Core@Math@Palmtree@@6B@
rdata$r	ENDS
;	COMDAT ??_R1A@?0A@EA@ArgumentNullException@Internal@Core@Math@Palmtree@@8
rdata$r	SEGMENT
??_R1A@?0A@EA@ArgumentNullException@Internal@Core@Math@Palmtree@@8 DD imagerel ??_R0?AVArgumentNullException@Internal@Core@Math@Palmtree@@@8 ; Palmtree::Math::Core::Internal::ArgumentNullException::`RTTI Base Class Descriptor at (0,-1,0,64)'
	DD	02H
	DD	00H
	DD	0ffffffffH
	DD	00H
	DD	040H
	DD	imagerel ??_R3ArgumentNullException@Internal@Core@Math@Palmtree@@8
rdata$r	ENDS
;	COMDAT ??_R2ArgumentNullException@Internal@Core@Math@Palmtree@@8
rdata$r	SEGMENT
??_R2ArgumentNullException@Internal@Core@Math@Palmtree@@8 DD imagerel ??_R1A@?0A@EA@ArgumentNullException@Internal@Core@Math@Palmtree@@8 ; Palmtree::Math::Core::Internal::ArgumentNullException::`RTTI Base Class Array'
	DD	imagerel ??_R1A@?0A@EA@Exception@Internal@Core@Math@Palmtree@@8
	DD	imagerel ??_R1A@?0A@EN@exception@std@@8
	ORG $+3
rdata$r	ENDS
;	COMDAT ??_R3ArgumentNullException@Internal@Core@Math@Palmtree@@8
rdata$r	SEGMENT
??_R3ArgumentNullException@Internal@Core@Math@Palmtree@@8 DD 00H ; Palmtree::Math::Core::Internal::ArgumentNullException::`RTTI Class Hierarchy Descriptor'
	DD	00H
	DD	03H
	DD	imagerel ??_R2ArgumentNullException@Internal@Core@Math@Palmtree@@8
rdata$r	ENDS
;	COMDAT ??_R4ArgumentNullException@Internal@Core@Math@Palmtree@@6B@
rdata$r	SEGMENT
??_R4ArgumentNullException@Internal@Core@Math@Palmtree@@6B@ DD 01H ; Palmtree::Math::Core::Internal::ArgumentNullException::`RTTI Complete Object Locator'
	DD	00H
	DD	00H
	DD	imagerel ??_R0?AVArgumentNullException@Internal@Core@Math@Palmtree@@@8
	DD	imagerel ??_R3ArgumentNullException@Internal@Core@Math@Palmtree@@8
	DD	imagerel ??_R4ArgumentNullException@Internal@Core@Math@Palmtree@@6B@
rdata$r	ENDS
;	COMDAT ??_R1A@?0A@EN@exception@std@@8
rdata$r	SEGMENT
??_R1A@?0A@EN@exception@std@@8 DD imagerel ??_R0?AVexception@std@@@8 ; std::exception::`RTTI Base Class Descriptor at (0,-1,0,77)'
	DD	00H
	DD	00H
	DD	0ffffffffH
	DD	00H
	DD	04dH
	DD	imagerel ??_R3exception@std@@8
rdata$r	ENDS
;	COMDAT ??_R1A@?0A@EA@Exception@Internal@Core@Math@Palmtree@@8
rdata$r	SEGMENT
??_R1A@?0A@EA@Exception@Internal@Core@Math@Palmtree@@8 DD imagerel ??_R0?AVException@Internal@Core@Math@Palmtree@@@8 ; Palmtree::Math::Core::Internal::Exception::`RTTI Base Class Descriptor at (0,-1,0,64)'
	DD	01H
	DD	00H
	DD	0ffffffffH
	DD	00H
	DD	040H
	DD	imagerel ??_R3Exception@Internal@Core@Math@Palmtree@@8
rdata$r	ENDS
;	COMDAT ??_R2Exception@Internal@Core@Math@Palmtree@@8
rdata$r	SEGMENT
??_R2Exception@Internal@Core@Math@Palmtree@@8 DD imagerel ??_R1A@?0A@EA@Exception@Internal@Core@Math@Palmtree@@8 ; Palmtree::Math::Core::Internal::Exception::`RTTI Base Class Array'
	DD	imagerel ??_R1A@?0A@EN@exception@std@@8
	ORG $+3
rdata$r	ENDS
;	COMDAT ??_R3Exception@Internal@Core@Math@Palmtree@@8
rdata$r	SEGMENT
??_R3Exception@Internal@Core@Math@Palmtree@@8 DD 00H	; Palmtree::Math::Core::Internal::Exception::`RTTI Class Hierarchy Descriptor'
	DD	00H
	DD	02H
	DD	imagerel ??_R2Exception@Internal@Core@Math@Palmtree@@8
rdata$r	ENDS
;	COMDAT ??_R4Exception@Internal@Core@Math@Palmtree@@6B@
rdata$r	SEGMENT
??_R4Exception@Internal@Core@Math@Palmtree@@6B@ DD 01H	; Palmtree::Math::Core::Internal::Exception::`RTTI Complete Object Locator'
	DD	00H
	DD	00H
	DD	imagerel ??_R0?AVException@Internal@Core@Math@Palmtree@@@8
	DD	imagerel ??_R3Exception@Internal@Core@Math@Palmtree@@8
	DD	imagerel ??_R4Exception@Internal@Core@Math@Palmtree@@6B@
rdata$r	ENDS
;	COMDAT ??_R1A@?0A@EA@exception@std@@8
rdata$r	SEGMENT
??_R1A@?0A@EA@exception@std@@8 DD imagerel ??_R0?AVexception@std@@@8 ; std::exception::`RTTI Base Class Descriptor at (0,-1,0,64)'
	DD	00H
	DD	00H
	DD	0ffffffffH
	DD	00H
	DD	040H
	DD	imagerel ??_R3exception@std@@8
rdata$r	ENDS
;	COMDAT ??_R2exception@std@@8
rdata$r	SEGMENT
??_R2exception@std@@8 DD imagerel ??_R1A@?0A@EA@exception@std@@8 ; std::exception::`RTTI Base Class Array'
	ORG $+3
rdata$r	ENDS
;	COMDAT ??_R3exception@std@@8
rdata$r	SEGMENT
??_R3exception@std@@8 DD 00H				; std::exception::`RTTI Class Hierarchy Descriptor'
	DD	00H
	DD	01H
	DD	imagerel ??_R2exception@std@@8
rdata$r	ENDS
;	COMDAT ??_R0?AVexception@std@@@8
data$r	SEGMENT
??_R0?AVexception@std@@@8 DQ FLAT:??_7type_info@@6B@	; std::exception `RTTI Type Descriptor'
	DQ	0000000000000000H
	DB	'.?AVexception@std@@', 00H
data$r	ENDS
;	COMDAT ??_R4exception@std@@6B@
rdata$r	SEGMENT
??_R4exception@std@@6B@ DD 01H				; std::exception::`RTTI Complete Object Locator'
	DD	00H
	DD	00H
	DD	imagerel ??_R0?AVexception@std@@@8
	DD	imagerel ??_R3exception@std@@8
	DD	imagerel ??_R4exception@std@@6B@
rdata$r	ENDS
;	COMDAT ??_C@_13KJIIAINM@?$AA?$CL@
CONST	SEGMENT
??_C@_13KJIIAINM@?$AA?$CL@ DB '+', 00H, 00H, 00H	; `string'
CONST	ENDS
;	COMDAT ??_C@_13BGNNJOKC@?$AA0@
CONST	SEGMENT
??_C@_13BGNNJOKC@?$AA0@ DB '0 ', 00H, 00H		; `string'
CONST	ENDS
;	COMDAT ??_C@_13EJFHHPOP@?$AA?$CF@
CONST	SEGMENT
??_C@_13EJFHHPOP@?$AA?$CF@ DB '%', 00H, 00H, 00H	; `string'
CONST	ENDS
;	COMDAT ??_C@_13IMODFHAA@?$AA?9@
CONST	SEGMENT
??_C@_13IMODFHAA@?$AA?9@ DB '-', 00H, 00H, 00H		; `string'
CONST	ENDS
;	COMDAT ??_C@_13BMLCKOLB@?$PP?$KE@
CONST	SEGMENT
??_C@_13BMLCKOLB@?$PP?$KE@ DB 0a4H, 00H, 00H, 00H	; `string'
CONST	ENDS
;	COMDAT ??_C@_13DMCFHHKM@?$AA3@
CONST	SEGMENT
??_C@_13DMCFHHKM@?$AA3@ DB '3', 00H, 00H, 00H		; `string'
CONST	ENDS
;	COMDAT ??_C@_13DEFPDAGF@?$AA?0@
CONST	SEGMENT
??_C@_13DEFPDAGF@?$AA?0@ DB ',', 00H, 00H, 00H		; `string'
CONST	ENDS
;	COMDAT ??_C@_13JOFGPIOO@?$AA?4@
CONST	SEGMENT
??_C@_13JOFGPIOO@?$AA?4@ DB '.', 00H, 00H, 00H		; `string'
CONST	ENDS
;	COMDAT ??_C@_1CK@ECFIEPAC@?$AA?$BF?$AAp?$AAk?$AAn?$AAu?$AAl?$AAl?$AAp?$AAt?$AAr?$AAL?$AA?$AO?$AAH?$PP?$IJ?$PP?$IM@
CONST	SEGMENT
??_C@_1CK@ECFIEPAC@?$AA?$BF?$AAp?$AAk?$AAn?$AAu?$AAl?$AAl?$AAp?$AAt?$AAr?$AAL?$AA?$AO?$AAH?$PP?$IJ?$PP?$IM@ DB 015H
	DB	'_pek0n', 00H, 'u', 00H, 'l', 00H, 'l', 00H, 'p', 00H, 't', 00H
	DB	'r', 00H, 'L0', 0eH, 'NH0', 089H, '0', 08cH, '0f0D0~0Y0', 02H, '0'
	DB	00H, 00H					; `string'
CONST	ENDS
;	COMDAT ??_C@_13HADAKIJA@?$AAx@
CONST	SEGMENT
??_C@_13HADAKIJA@?$AAx@ DB 'x', 00H, 00H, 00H		; `string'
CONST	ENDS
;	COMDAT _CT??_R0?AVArgumentNullException@Internal@Core@Math@Palmtree@@@8??0ArgumentNullException@Internal@Core@Math@Palmtree@@QEAA@AEBV01234@@Z48
xdata$x	SEGMENT
_CT??_R0?AVArgumentNullException@Internal@Core@Math@Palmtree@@@8??0ArgumentNullException@Internal@Core@Math@Palmtree@@QEAA@AEBV01234@@Z48 DD 00H
	DD	imagerel ??_R0?AVArgumentNullException@Internal@Core@Math@Palmtree@@@8
	DD	00H
	DD	0ffffffffH
	ORG $+4
	DD	030H
	DD	imagerel ??0ArgumentNullException@Internal@Core@Math@Palmtree@@QEAA@AEBV01234@@Z
xdata$x	ENDS
;	COMDAT ??_R0?AVArgumentNullException@Internal@Core@Math@Palmtree@@@8
data$r	SEGMENT
??_R0?AVArgumentNullException@Internal@Core@Math@Palmtree@@@8 DQ FLAT:??_7type_info@@6B@ ; Palmtree::Math::Core::Internal::ArgumentNullException `RTTI Type Descriptor'
	DQ	0000000000000000H
	DB	'.?AVArgumentNullException@Internal@Core@Math@Palmtree@@', 00H
data$r	ENDS
;	COMDAT _CTA2?AVArgumentNullException@Internal@Core@Math@Palmtree@@
xdata$x	SEGMENT
_CTA2?AVArgumentNullException@Internal@Core@Math@Palmtree@@ DD 02H
	DD	imagerel _CT??_R0?AVArgumentNullException@Internal@Core@Math@Palmtree@@@8??0ArgumentNullException@Internal@Core@Math@Palmtree@@QEAA@AEBV01234@@Z48
	DD	imagerel _CT??_R0?AVException@Internal@Core@Math@Palmtree@@@8??0Exception@Internal@Core@Math@Palmtree@@QEAA@AEBV01234@@Z48
xdata$x	ENDS
;	COMDAT _TI2?AVArgumentNullException@Internal@Core@Math@Palmtree@@
xdata$x	SEGMENT
_TI2?AVArgumentNullException@Internal@Core@Math@Palmtree@@ DD 00H
	DD	imagerel ??1ArgumentNullException@Internal@Core@Math@Palmtree@@UEAA@XZ
	DD	00H
	DD	imagerel _CTA2?AVArgumentNullException@Internal@Core@Math@Palmtree@@
xdata$x	ENDS
;	COMDAT ??_C@_1BI@BIIKHCEK@?$AA?$CK?$PP?e?$AAn?$PP?x?$AA?$AP?$AA?$AH?$PP?$JK?$AAP?$AAg?$AAY?$AA?$AC@
CONST	SEGMENT
??_C@_1BI@BIIKHCEK@?$AA?$CK?$PP?e?$AAn?$PP?x?$AA?$AP?$AA?$AH?$PP?$JK?$AAP?$AAg?$AAY?$AA?$AC@ DB '*'
	DB	'g', 0e5H, 'wn0', 0f8H, 'f', 0fH, '_', 07H, 'c', 09aH, '[P[g0Y'
	DB	'0', 02H, '0', 00H, 00H			; `string'
CONST	ENDS
;	COMDAT _CT??_R0?AVFormatException@Internal@Core@Math@Palmtree@@@8??0FormatException@Internal@Core@Math@Palmtree@@QEAA@AEBV01234@@Z48
xdata$x	SEGMENT
_CT??_R0?AVFormatException@Internal@Core@Math@Palmtree@@@8??0FormatException@Internal@Core@Math@Palmtree@@QEAA@AEBV01234@@Z48 DD 00H
	DD	imagerel ??_R0?AVFormatException@Internal@Core@Math@Palmtree@@@8
	DD	00H
	DD	0ffffffffH
	ORG $+4
	DD	030H
	DD	imagerel ??0FormatException@Internal@Core@Math@Palmtree@@QEAA@AEBV01234@@Z
xdata$x	ENDS
;	COMDAT ??_R0?AVFormatException@Internal@Core@Math@Palmtree@@@8
data$r	SEGMENT
??_R0?AVFormatException@Internal@Core@Math@Palmtree@@@8 DQ FLAT:??_7type_info@@6B@ ; Palmtree::Math::Core::Internal::FormatException `RTTI Type Descriptor'
	DQ	0000000000000000H
	DB	'.?AVFormatException@Internal@Core@Math@Palmtree@@', 00H
data$r	ENDS
;	COMDAT _CTA2?AVFormatException@Internal@Core@Math@Palmtree@@
xdata$x	SEGMENT
_CTA2?AVFormatException@Internal@Core@Math@Palmtree@@ DD 02H
	DD	imagerel _CT??_R0?AVFormatException@Internal@Core@Math@Palmtree@@@8??0FormatException@Internal@Core@Math@Palmtree@@QEAA@AEBV01234@@Z48
	DD	imagerel _CT??_R0?AVException@Internal@Core@Math@Palmtree@@@8??0Exception@Internal@Core@Math@Palmtree@@QEAA@AEBV01234@@Z48
xdata$x	ENDS
;	COMDAT _TI2?AVFormatException@Internal@Core@Math@Palmtree@@
xdata$x	SEGMENT
_TI2?AVFormatException@Internal@Core@Math@Palmtree@@ DD 00H
	DD	imagerel ??1FormatException@Internal@Core@Math@Palmtree@@UEAA@XZ
	DD	00H
	DD	imagerel _CTA2?AVFormatException@Internal@Core@Math@Palmtree@@
xdata$x	ENDS
;	COMDAT ??_C@_1DO@MFGCBHKN@?$PP?$KL?$PP?$LJ?$PP?$LP?$PP?$OA?$PP?x?$AA?$AP?$AAk?$PP?$II?$PP?$IL?$AAT?$AAo?$AAS?$AAt?$AAr?$AAi@
CONST	SEGMENT
??_C@_1DO@MFGCBHKN@?$PP?$KL?$PP?$LJ?$PP?$LP?$PP?$OA?$PP?x?$AA?$AP?$AAk?$PP?$II?$PP?$IL?$AAT?$AAo?$AAS?$AAt?$AAr?$AAi@ DB 0abH
	DB	'0', 0b9H, '0', 0bfH, '0', 0e0H, '0', 0f8H, 'f', 0fH, '_k0', 088H
	DB	'0', 08bH, '0T', 00H, 'o', 00H, 'S', 00H, 't', 00H, 'r', 00H, 'i'
	DB	00H, 'n', 00H, 'g', 00H, 'o0', 0b5H, '0', 0ddH, '0', 0fcH, '0', 0c8H
	DB	'0U0', 08cH, '0f0D0~0[0', 093H, '0', 02H, '0', 00H, 00H ; `string'
CONST	ENDS
;	COMDAT _CT??_R0?AVNotSupportedException@Internal@Core@Math@Palmtree@@@8??0NotSupportedException@Internal@Core@Math@Palmtree@@QEAA@AEBV01234@@Z48
xdata$x	SEGMENT
_CT??_R0?AVNotSupportedException@Internal@Core@Math@Palmtree@@@8??0NotSupportedException@Internal@Core@Math@Palmtree@@QEAA@AEBV01234@@Z48 DD 00H
	DD	imagerel ??_R0?AVNotSupportedException@Internal@Core@Math@Palmtree@@@8
	DD	00H
	DD	0ffffffffH
	ORG $+4
	DD	030H
	DD	imagerel ??0NotSupportedException@Internal@Core@Math@Palmtree@@QEAA@AEBV01234@@Z
xdata$x	ENDS
;	COMDAT ??_R0?AVNotSupportedException@Internal@Core@Math@Palmtree@@@8
data$r	SEGMENT
??_R0?AVNotSupportedException@Internal@Core@Math@Palmtree@@@8 DQ FLAT:??_7type_info@@6B@ ; Palmtree::Math::Core::Internal::NotSupportedException `RTTI Type Descriptor'
	DQ	0000000000000000H
	DB	'.?AVNotSupportedException@Internal@Core@Math@Palmtree@@', 00H
data$r	ENDS
;	COMDAT _CTA2?AVNotSupportedException@Internal@Core@Math@Palmtree@@
xdata$x	SEGMENT
_CTA2?AVNotSupportedException@Internal@Core@Math@Palmtree@@ DD 02H
	DD	imagerel _CT??_R0?AVNotSupportedException@Internal@Core@Math@Palmtree@@@8??0NotSupportedException@Internal@Core@Math@Palmtree@@QEAA@AEBV01234@@Z48
	DD	imagerel _CT??_R0?AVException@Internal@Core@Math@Palmtree@@@8??0Exception@Internal@Core@Math@Palmtree@@QEAA@AEBV01234@@Z48
xdata$x	ENDS
;	COMDAT _TI2?AVNotSupportedException@Internal@Core@Math@Palmtree@@
xdata$x	SEGMENT
_TI2?AVNotSupportedException@Internal@Core@Math@Palmtree@@ DD 00H
	DD	imagerel ??1NotSupportedException@Internal@Core@Math@Palmtree@@UEAA@XZ
	DD	00H
	DD	imagerel _CTA2?AVNotSupportedException@Internal@Core@Math@Palmtree@@
xdata$x	ENDS
_DATA	SEGMENT
?hexadecimal_lower_digits@HexaDecimalFormatter@Internal@Core@Math@Palmtree@@3PA_WA DB '0'
	DB	00H, '1', 00H, '2', 00H, '3', 00H, '4', 00H, '5', 00H, '6', 00H
	DB	'7', 00H, '8', 00H, '9', 00H, 'a', 00H, 'b', 00H, 'c', 00H, 'd'
	DB	00H, 'e', 00H, 'f', 00H, 00H, 00H		; Palmtree::Math::Core::Internal::HexaDecimalFormatter::hexadecimal_lower_digits
	ORG $+6
?hexadecimal_upper_digits@HexaDecimalFormatter@Internal@Core@Math@Palmtree@@3PA_WA DB '0'
	DB	00H, '1', 00H, '2', 00H, '3', 00H, '4', 00H, '5', 00H, '6', 00H
	DB	'7', 00H, '8', 00H, '9', 00H, 'A', 00H, 'B', 00H, 'C', 00H, 'D'
	DB	00H, 'E', 00H, 'F', 00H, 00H, 00H		; Palmtree::Math::Core::Internal::HexaDecimalFormatter::hexadecimal_upper_digits
_DATA	ENDS
;	COMDAT ??_7FormatterTypeP@DecimalFromatter@Internal@Core@Math@Palmtree@@6B@
CONST	SEGMENT
??_7FormatterTypeP@DecimalFromatter@Internal@Core@Math@Palmtree@@6B@ DQ FLAT:??_R4FormatterTypeP@DecimalFromatter@Internal@Core@Math@Palmtree@@6B@ ; Palmtree::Math::Core::Internal::DecimalFromatter::FormatterTypeP::`vftable'
	DQ	FLAT:?GetDefaultPrecisionValue@FormatterTypeP@DecimalFromatter@Internal@Core@Math@Palmtree@@MEAAHXZ
	DQ	FLAT:?FormatInternally@FormatterTypeP@DecimalFromatter@Internal@Core@Math@Palmtree@@MEAAXPEAU__tag_NUMBER_HEADER@3456@PEAVStringWriter@3456@@Z
	DQ	FLAT:?WriteZeroValue@FormatterTypeP@DecimalFromatter@Internal@Core@Math@Palmtree@@MEAAXPEAVStringWriter@3456@@Z
	DQ	FLAT:?WritePrefix@FormatterTypeP@DecimalFromatter@Internal@Core@Math@Palmtree@@MEAAXDPEAVStringWriter@3456@@Z
	DQ	FLAT:?FormatNumberSequence@FormatterTypeP@DecimalFromatter@Internal@Core@Math@Palmtree@@MEAAXPEB_WPEAVStringWriter@3456@@Z
	DQ	FLAT:?WriteSuffix@FormatterTypeP@DecimalFromatter@Internal@Core@Math@Palmtree@@MEAAXDPEAVStringWriter@3456@@Z
CONST	ENDS
;	COMDAT ??_7FormatterTypeN@DecimalFromatter@Internal@Core@Math@Palmtree@@6B@
CONST	SEGMENT
??_7FormatterTypeN@DecimalFromatter@Internal@Core@Math@Palmtree@@6B@ DQ FLAT:??_R4FormatterTypeN@DecimalFromatter@Internal@Core@Math@Palmtree@@6B@ ; Palmtree::Math::Core::Internal::DecimalFromatter::FormatterTypeN::`vftable'
	DQ	FLAT:?GetDefaultPrecisionValue@FormatterTypeN@DecimalFromatter@Internal@Core@Math@Palmtree@@MEAAHXZ
	DQ	FLAT:?FormatInternally@Formatter@DecimalFromatter@Internal@Core@Math@Palmtree@@MEAAXPEAU__tag_NUMBER_HEADER@3456@PEAVStringWriter@3456@@Z
	DQ	FLAT:?WriteZeroValue@FormatterTypeN@DecimalFromatter@Internal@Core@Math@Palmtree@@MEAAXPEAVStringWriter@3456@@Z
	DQ	FLAT:?WritePrefix@FormatterTypeN@DecimalFromatter@Internal@Core@Math@Palmtree@@MEAAXDPEAVStringWriter@3456@@Z
	DQ	FLAT:?FormatNumberSequence@FormatterTypeN@DecimalFromatter@Internal@Core@Math@Palmtree@@MEAAXPEB_WPEAVStringWriter@3456@@Z
	DQ	FLAT:?WriteSuffix@FormatterTypeN@DecimalFromatter@Internal@Core@Math@Palmtree@@MEAAXDPEAVStringWriter@3456@@Z
CONST	ENDS
;	COMDAT ??_7FormatterTypeF@DecimalFromatter@Internal@Core@Math@Palmtree@@6B@
CONST	SEGMENT
??_7FormatterTypeF@DecimalFromatter@Internal@Core@Math@Palmtree@@6B@ DQ FLAT:??_R4FormatterTypeF@DecimalFromatter@Internal@Core@Math@Palmtree@@6B@ ; Palmtree::Math::Core::Internal::DecimalFromatter::FormatterTypeF::`vftable'
	DQ	FLAT:?GetDefaultPrecisionValue@FormatterTypeF@DecimalFromatter@Internal@Core@Math@Palmtree@@MEAAHXZ
	DQ	FLAT:?FormatInternally@Formatter@DecimalFromatter@Internal@Core@Math@Palmtree@@MEAAXPEAU__tag_NUMBER_HEADER@3456@PEAVStringWriter@3456@@Z
	DQ	FLAT:?WriteZeroValue@FormatterTypeF@DecimalFromatter@Internal@Core@Math@Palmtree@@MEAAXPEAVStringWriter@3456@@Z
	DQ	FLAT:?WritePrefix@FormatterTypeF@DecimalFromatter@Internal@Core@Math@Palmtree@@MEAAXDPEAVStringWriter@3456@@Z
	DQ	FLAT:?FormatNumberSequence@FormatterTypeF@DecimalFromatter@Internal@Core@Math@Palmtree@@MEAAXPEB_WPEAVStringWriter@3456@@Z
	DQ	FLAT:?WriteSuffix@FormatterTypeF@DecimalFromatter@Internal@Core@Math@Palmtree@@MEAAXDPEAVStringWriter@3456@@Z
CONST	ENDS
;	COMDAT ??_C@_19GGGBJDH@?$AA?$CF?$AA0?$AA3?$AAd@
CONST	SEGMENT
??_C@_19GGGBJDH@?$AA?$CF?$AA0?$AA3?$AAd@ DB '%', 00H, '0', 00H, '3', 00H, 'd'
	DB	00H, 00H, 00H				; `string'
CONST	ENDS
;	COMDAT ??_C@_19NKFEMDNP@?$AA?$CL?$AA0?$AA0?$AA0@
CONST	SEGMENT
??_C@_19NKFEMDNP@?$AA?$CL?$AA0?$AA0?$AA0@ DB '+', 00H, '0', 00H, '0', 00H
	DB	'0', 00H, 00H, 00H				; `string'
CONST	ENDS
;	COMDAT ??_7FormatterTypeE@DecimalFromatter@Internal@Core@Math@Palmtree@@6B@
CONST	SEGMENT
??_7FormatterTypeE@DecimalFromatter@Internal@Core@Math@Palmtree@@6B@ DQ FLAT:??_R4FormatterTypeE@DecimalFromatter@Internal@Core@Math@Palmtree@@6B@ ; Palmtree::Math::Core::Internal::DecimalFromatter::FormatterTypeE::`vftable'
	DQ	FLAT:?GetDefaultPrecisionValue@FormatterTypeE@DecimalFromatter@Internal@Core@Math@Palmtree@@MEAAHXZ
	DQ	FLAT:?FormatInternally@FormatterTypeE@DecimalFromatter@Internal@Core@Math@Palmtree@@MEAAXPEAU__tag_NUMBER_HEADER@3456@PEAVStringWriter@3456@@Z
	DQ	FLAT:?WriteZeroValue@FormatterTypeE@DecimalFromatter@Internal@Core@Math@Palmtree@@MEAAXPEAVStringWriter@3456@@Z
	DQ	FLAT:?WritePrefix@FormatterTypeE@DecimalFromatter@Internal@Core@Math@Palmtree@@MEAAXDPEAVStringWriter@3456@@Z
	DQ	FLAT:?FormatNumberSequence@FormatterTypeE@DecimalFromatter@Internal@Core@Math@Palmtree@@MEAAXPEB_WPEAVStringWriter@3456@@Z
	DQ	FLAT:?WriteSuffix@FormatterTypeE@DecimalFromatter@Internal@Core@Math@Palmtree@@MEAAXDPEAVStringWriter@3456@@Z
CONST	ENDS
;	COMDAT ??_7FormatterTypeD@DecimalFromatter@Internal@Core@Math@Palmtree@@6B@
CONST	SEGMENT
??_7FormatterTypeD@DecimalFromatter@Internal@Core@Math@Palmtree@@6B@ DQ FLAT:??_R4FormatterTypeD@DecimalFromatter@Internal@Core@Math@Palmtree@@6B@ ; Palmtree::Math::Core::Internal::DecimalFromatter::FormatterTypeD::`vftable'
	DQ	FLAT:?GetDefaultPrecisionValue@FormatterTypeD@DecimalFromatter@Internal@Core@Math@Palmtree@@MEAAHXZ
	DQ	FLAT:?FormatInternally@Formatter@DecimalFromatter@Internal@Core@Math@Palmtree@@MEAAXPEAU__tag_NUMBER_HEADER@3456@PEAVStringWriter@3456@@Z
	DQ	FLAT:?WriteZeroValue@FormatterTypeD@DecimalFromatter@Internal@Core@Math@Palmtree@@MEAAXPEAVStringWriter@3456@@Z
	DQ	FLAT:?WritePrefix@FormatterTypeD@DecimalFromatter@Internal@Core@Math@Palmtree@@MEAAXDPEAVStringWriter@3456@@Z
	DQ	FLAT:?FormatNumberSequence@FormatterTypeD@DecimalFromatter@Internal@Core@Math@Palmtree@@MEAAXPEB_WPEAVStringWriter@3456@@Z
	DQ	FLAT:?WriteSuffix@FormatterTypeD@DecimalFromatter@Internal@Core@Math@Palmtree@@MEAAXDPEAVStringWriter@3456@@Z
CONST	ENDS
;	COMDAT ??_7FormatterTypeC@DecimalFromatter@Internal@Core@Math@Palmtree@@6B@
CONST	SEGMENT
??_7FormatterTypeC@DecimalFromatter@Internal@Core@Math@Palmtree@@6B@ DQ FLAT:??_R4FormatterTypeC@DecimalFromatter@Internal@Core@Math@Palmtree@@6B@ ; Palmtree::Math::Core::Internal::DecimalFromatter::FormatterTypeC::`vftable'
	DQ	FLAT:?GetDefaultPrecisionValue@FormatterTypeC@DecimalFromatter@Internal@Core@Math@Palmtree@@MEAAHXZ
	DQ	FLAT:?FormatInternally@Formatter@DecimalFromatter@Internal@Core@Math@Palmtree@@MEAAXPEAU__tag_NUMBER_HEADER@3456@PEAVStringWriter@3456@@Z
	DQ	FLAT:?WriteZeroValue@FormatterTypeC@DecimalFromatter@Internal@Core@Math@Palmtree@@MEAAXPEAVStringWriter@3456@@Z
	DQ	FLAT:?WritePrefix@FormatterTypeC@DecimalFromatter@Internal@Core@Math@Palmtree@@MEAAXDPEAVStringWriter@3456@@Z
	DQ	FLAT:?FormatNumberSequence@FormatterTypeC@DecimalFromatter@Internal@Core@Math@Palmtree@@MEAAXPEB_WPEAVStringWriter@3456@@Z
	DQ	FLAT:?WriteSuffix@FormatterTypeC@DecimalFromatter@Internal@Core@Math@Palmtree@@MEAAXDPEAVStringWriter@3456@@Z
CONST	ENDS
;	COMDAT ??_C@_1EK@CCPHDNPL@?$AAp?$AAm?$AAc?$AA_?$AAt?$AAo?$AAs?$AAt?$AAr?$AAi?$AAn?$AAg?$AA?4?$AAc?$AAp@
CONST	SEGMENT
??_C@_1EK@CCPHDNPL@?$AAp?$AAm?$AAc?$AA_?$AAt?$AAo?$AAs?$AAt?$AAr?$AAi?$AAn?$AAg?$AA?4?$AAc?$AAp@ DB 'p'
	DB	00H, 'm', 00H, 'c', 00H, '_', 00H, 't', 00H, 'o', 00H, 's', 00H
	DB	't', 00H, 'r', 00H, 'i', 00H, 'n', 00H, 'g', 00H, '.', 00H, 'c'
	DB	00H, 'p', 00H, 'p', 00H, ';', 00H, 'F', 00H, 'o', 00H, 'r', 00H
	DB	'm', 00H, 'a', 00H, 't', 00H, 't', 00H, 'e', 00H, 'r', 00H, ':'
	DB	00H, ':', 00H, 'F', 00H, 'o', 00H, 'r', 00H, 'm', 00H, 'a', 00H
	DB	't', 00H, ';', 00H, '1', 00H, 00H, 00H	; `string'
CONST	ENDS
;	COMDAT ??_7Formatter@DecimalFromatter@Internal@Core@Math@Palmtree@@6B@
CONST	SEGMENT
??_7Formatter@DecimalFromatter@Internal@Core@Math@Palmtree@@6B@ DQ FLAT:??_R4Formatter@DecimalFromatter@Internal@Core@Math@Palmtree@@6B@ ; Palmtree::Math::Core::Internal::DecimalFromatter::Formatter::`vftable'
	DQ	FLAT:_purecall
	DQ	FLAT:?FormatInternally@Formatter@DecimalFromatter@Internal@Core@Math@Palmtree@@MEAAXPEAU__tag_NUMBER_HEADER@3456@PEAVStringWriter@3456@@Z
	DQ	FLAT:_purecall
	DQ	FLAT:_purecall
	DQ	FLAT:_purecall
	DQ	FLAT:_purecall
CONST	ENDS
;	COMDAT ??_7ThousandSeparatedStringWriter@DecimalFromatter@Internal@Core@Math@Palmtree@@6B@
CONST	SEGMENT
??_7ThousandSeparatedStringWriter@DecimalFromatter@Internal@Core@Math@Palmtree@@6B@ DQ FLAT:??_R4ThousandSeparatedStringWriter@DecimalFromatter@Internal@Core@Math@Palmtree@@6B@ ; Palmtree::Math::Core::Internal::DecimalFromatter::ThousandSeparatedStringWriter::`vftable'
	DQ	FLAT:?Write@ThousandSeparatedStringWriter@DecimalFromatter@Internal@Core@Math@Palmtree@@UEAAXPEB_W@Z
	DQ	FLAT:?Write@ThousandSeparatedStringWriter@DecimalFromatter@Internal@Core@Math@Palmtree@@UEAAX_W@Z
	DQ	FLAT:?GetString@ThousandSeparatedStringWriter@DecimalFromatter@Internal@Core@Math@Palmtree@@UEAAPEA_WXZ
CONST	ENDS
;	COMDAT ??_7ReverseStringWriter@Internal@Core@Math@Palmtree@@6B@
CONST	SEGMENT
??_7ReverseStringWriter@Internal@Core@Math@Palmtree@@6B@ DQ FLAT:??_R4ReverseStringWriter@Internal@Core@Math@Palmtree@@6B@ ; Palmtree::Math::Core::Internal::ReverseStringWriter::`vftable'
	DQ	FLAT:?Write@ReverseStringWriter@Internal@Core@Math@Palmtree@@UEAAXPEB_W@Z
	DQ	FLAT:?Write@ReverseStringWriter@Internal@Core@Math@Palmtree@@UEAAX_W@Z
	DQ	FLAT:?GetString@ReverseStringWriter@Internal@Core@Math@Palmtree@@UEAAPEA_WXZ
CONST	ENDS
;	COMDAT ??_C@_1CO@JABAMCFP@?$PP?x?$AAM?$PP?$LM?$AA?$HP?$AAH?$PP?P?$PP?C?$PP?U?$PP?$KB?$AAn?$PP?$LF?$PP?$KE?$PP?$LK?$AAL?$AA?$AN@
CONST	SEGMENT
??_C@_1CO@JABAMCFP@?$PP?x?$AAM?$PP?$LM?$AA?$HP?$AAH?$PP?P?$PP?C?$PP?U?$PP?$KB?$AAn?$PP?$LF?$PP?$KE?$PP?$LK?$AAL?$AA?$AN@ DB 0f8H
	DB	'fM0', 0bcH, 08fH, 07fH, '0HQ', 0d0H, '0', 0c3H, '0', 0d5H, '0'
	DB	0a1H, '0n0', 0b5H, '0', 0a4H, '0', 0baH, '0L0', 0dH, 'N', 0b3H
	DB	08dH, 'W0f0D0~0Y0', 02H, '0', 00H, 00H	; `string'
CONST	ENDS
;	COMDAT _CT??_R0?AVInsufficientBufferException@Internal@Core@Math@Palmtree@@@8??0InsufficientBufferException@Internal@Core@Math@Palmtree@@QEAA@AEBV01234@@Z48
xdata$x	SEGMENT
_CT??_R0?AVInsufficientBufferException@Internal@Core@Math@Palmtree@@@8??0InsufficientBufferException@Internal@Core@Math@Palmtree@@QEAA@AEBV01234@@Z48 DD 00H
	DD	imagerel ??_R0?AVInsufficientBufferException@Internal@Core@Math@Palmtree@@@8
	DD	00H
	DD	0ffffffffH
	ORG $+4
	DD	030H
	DD	imagerel ??0InsufficientBufferException@Internal@Core@Math@Palmtree@@QEAA@AEBV01234@@Z
xdata$x	ENDS
;	COMDAT ??_R0?AVInsufficientBufferException@Internal@Core@Math@Palmtree@@@8
data$r	SEGMENT
??_R0?AVInsufficientBufferException@Internal@Core@Math@Palmtree@@@8 DQ FLAT:??_7type_info@@6B@ ; Palmtree::Math::Core::Internal::InsufficientBufferException `RTTI Type Descriptor'
	DQ	0000000000000000H
	DB	'.?AVInsufficientBufferException@Internal@Core@Math@Palmt'
	DB	'ree@@', 00H
data$r	ENDS
;	COMDAT _CTA2?AVInsufficientBufferException@Internal@Core@Math@Palmtree@@
xdata$x	SEGMENT
_CTA2?AVInsufficientBufferException@Internal@Core@Math@Palmtree@@ DD 02H
	DD	imagerel _CT??_R0?AVInsufficientBufferException@Internal@Core@Math@Palmtree@@@8??0InsufficientBufferException@Internal@Core@Math@Palmtree@@QEAA@AEBV01234@@Z48
	DD	imagerel _CT??_R0?AVException@Internal@Core@Math@Palmtree@@@8??0Exception@Internal@Core@Math@Palmtree@@QEAA@AEBV01234@@Z48
xdata$x	ENDS
;	COMDAT _TI2?AVInsufficientBufferException@Internal@Core@Math@Palmtree@@
xdata$x	SEGMENT
_TI2?AVInsufficientBufferException@Internal@Core@Math@Palmtree@@ DD 00H
	DD	imagerel ??1InsufficientBufferException@Internal@Core@Math@Palmtree@@UEAA@XZ
	DD	00H
	DD	imagerel _CTA2?AVInsufficientBufferException@Internal@Core@Math@Palmtree@@
xdata$x	ENDS
;	COMDAT ??_7StringWriter@Internal@Core@Math@Palmtree@@6B@
CONST	SEGMENT
??_7StringWriter@Internal@Core@Math@Palmtree@@6B@ DQ FLAT:??_R4StringWriter@Internal@Core@Math@Palmtree@@6B@ ; Palmtree::Math::Core::Internal::StringWriter::`vftable'
	DQ	FLAT:?Write@StringWriter@Internal@Core@Math@Palmtree@@UEAAXPEB_W@Z
	DQ	FLAT:?Write@StringWriter@Internal@Core@Math@Palmtree@@UEAAX_W@Z
	DQ	FLAT:?GetString@StringWriter@Internal@Core@Math@Palmtree@@UEAAPEA_WXZ
CONST	ENDS
;	COMDAT ??_C@_1GC@GGAPGHKN@?$AAp?$AAm?$AAc?$AA_?$AAs?$AAt?$AAr?$AAi?$AAn?$AAg?$AAi?$AAo?$AA?4?$AAh?$AA?$DL@
CONST	SEGMENT
??_C@_1GC@GGAPGHKN@?$AAp?$AAm?$AAc?$AA_?$AAs?$AAt?$AAr?$AAi?$AAn?$AAg?$AAi?$AAo?$AA?4?$AAh?$AA?$DL@ DB 'p'
	DB	00H, 'm', 00H, 'c', 00H, '_', 00H, 's', 00H, 't', 00H, 'r', 00H
	DB	'i', 00H, 'n', 00H, 'g', 00H, 'i', 00H, 'o', 00H, '.', 00H, 'h'
	DB	00H, ';', 00H, 'R', 00H, 'e', 00H, 'v', 00H, 'e', 00H, 'r', 00H
	DB	's', 00H, 'e', 00H, 'S', 00H, 't', 00H, 'r', 00H, 'i', 00H, 'n'
	DB	00H, 'g', 00H, 'R', 00H, 'e', 00H, 'a', 00H, 'd', 00H, 'e', 00H
	DB	'r', 00H, ':', 00H, ':', 00H, 'S', 00H, 'k', 00H, 'i', 00H, 'p'
	DB	00H, 'S', 00H, 't', 00H, 'r', 00H, 'i', 00H, 'n', 00H, 'g', 00H
	DB	';', 00H, '1', 00H, 00H, 00H			; `string'
CONST	ENDS
;	COMDAT ??_C@_1FO@BNHGDLLE@?$AAp?$AAm?$AAc?$AA_?$AAs?$AAt?$AAr?$AAi?$AAn?$AAg?$AAi?$AAo?$AA?4?$AAh?$AA?$DL@
CONST	SEGMENT
??_C@_1FO@BNHGDLLE@?$AAp?$AAm?$AAc?$AA_?$AAs?$AAt?$AAr?$AAi?$AAn?$AAg?$AAi?$AAo?$AA?4?$AAh?$AA?$DL@ DB 'p'
	DB	00H, 'm', 00H, 'c', 00H, '_', 00H, 's', 00H, 't', 00H, 'r', 00H
	DB	'i', 00H, 'n', 00H, 'g', 00H, 'i', 00H, 'o', 00H, '.', 00H, 'h'
	DB	00H, ';', 00H, 'R', 00H, 'e', 00H, 'v', 00H, 'e', 00H, 'r', 00H
	DB	's', 00H, 'e', 00H, 'S', 00H, 't', 00H, 'r', 00H, 'i', 00H, 'n'
	DB	00H, 'g', 00H, 'R', 00H, 'e', 00H, 'a', 00H, 'd', 00H, 'e', 00H
	DB	'r', 00H, ':', 00H, ':', 00H, 'P', 00H, 'r', 00H, 'o', 00H, 'g'
	DB	00H, 'r', 00H, 'e', 00H, 's', 00H, 's', 00H, ';', 00H, '1', 00H
	DB	00H, 00H					; `string'
CONST	ENDS
;	COMDAT ??_7ReverseStringReader@Internal@Core@Math@Palmtree@@6B@
CONST	SEGMENT
??_7ReverseStringReader@Internal@Core@Math@Palmtree@@6B@ DQ FLAT:??_R4ReverseStringReader@Internal@Core@Math@Palmtree@@6B@ ; Palmtree::Math::Core::Internal::ReverseStringReader::`vftable'
	DQ	FLAT:?PeekChar@ReverseStringReader@Internal@Core@Math@Palmtree@@UEAA_WXZ
	DQ	FLAT:?Progress@ReverseStringReader@Internal@Core@Math@Palmtree@@UEAAXXZ
	DQ	FLAT:?StartsWith@ReverseStringReader@Internal@Core@Math@Palmtree@@UEAAHPEB_W@Z
	DQ	FLAT:?SkipString@ReverseStringReader@Internal@Core@Math@Palmtree@@UEAAXPEB_W@Z
CONST	ENDS
;	COMDAT ??_C@_1FE@KONPIGEM@?$AAp?$AAm?$AAc?$AA_?$AAs?$AAt?$AAr?$AAi?$AAn?$AAg?$AAi?$AAo?$AA?4?$AAh?$AA?$DL@
CONST	SEGMENT
??_C@_1FE@KONPIGEM@?$AAp?$AAm?$AAc?$AA_?$AAs?$AAt?$AAr?$AAi?$AAn?$AAg?$AAi?$AAo?$AA?4?$AAh?$AA?$DL@ DB 'p'
	DB	00H, 'm', 00H, 'c', 00H, '_', 00H, 's', 00H, 't', 00H, 'r', 00H
	DB	'i', 00H, 'n', 00H, 'g', 00H, 'i', 00H, 'o', 00H, '.', 00H, 'h'
	DB	00H, ';', 00H, 'S', 00H, 't', 00H, 'r', 00H, 'i', 00H, 'n', 00H
	DB	'g', 00H, 'R', 00H, 'e', 00H, 'a', 00H, 'd', 00H, 'e', 00H, 'r'
	DB	00H, ':', 00H, ':', 00H, 'S', 00H, 'k', 00H, 'i', 00H, 'p', 00H
	DB	'S', 00H, 't', 00H, 'r', 00H, 'i', 00H, 'n', 00H, 'g', 00H, ';'
	DB	00H, '1', 00H, 00H, 00H			; `string'
CONST	ENDS
;	COMDAT ??_C@_1BM@FCPAHMHB@?$PP?$IF?$PP?h?$PP?$KI?$PP?i?$PP?$PM?$AAL?$AAz?$AA?$BP?$AAW?$AA?$HO?$AAW?$AA_?$AA?$AC@
CONST	SEGMENT
??_C@_1BM@FCPAHMHB@?$PP?$IF?$PP?h?$PP?$KI?$PP?i?$PP?$PM?$AAL?$AAz?$AA?$BP?$AAW?$AA?$HO?$AAW?$AA_?$AA?$AC@ DB 085H
	DB	'Q', 0e8H, 090H, 0a8H, '0', 0e9H, '0', 0fcH, '0L0zv', 01fH, 'u'
	DB	'W0~0W0_0', 02H, '0', 00H, 00H		; `string'
CONST	ENDS
;	COMDAT ??_C@_1FA@CNGEABBJ@?$AAp?$AAm?$AAc?$AA_?$AAs?$AAt?$AAr?$AAi?$AAn?$AAg?$AAi?$AAo?$AA?4?$AAh?$AA?$DL@
CONST	SEGMENT
??_C@_1FA@CNGEABBJ@?$AAp?$AAm?$AAc?$AA_?$AAs?$AAt?$AAr?$AAi?$AAn?$AAg?$AAi?$AAo?$AA?4?$AAh?$AA?$DL@ DB 'p'
	DB	00H, 'm', 00H, 'c', 00H, '_', 00H, 's', 00H, 't', 00H, 'r', 00H
	DB	'i', 00H, 'n', 00H, 'g', 00H, 'i', 00H, 'o', 00H, '.', 00H, 'h'
	DB	00H, ';', 00H, 'S', 00H, 't', 00H, 'r', 00H, 'i', 00H, 'n', 00H
	DB	'g', 00H, 'R', 00H, 'e', 00H, 'a', 00H, 'd', 00H, 'e', 00H, 'r'
	DB	00H, ':', 00H, ':', 00H, 'P', 00H, 'r', 00H, 'o', 00H, 'g', 00H
	DB	'r', 00H, 'e', 00H, 's', 00H, 's', 00H, ';', 00H, '1', 00H, 00H
	DB	00H						; `string'
CONST	ENDS
;	COMDAT _CT??_R0?AVException@Internal@Core@Math@Palmtree@@@8??0Exception@Internal@Core@Math@Palmtree@@QEAA@AEBV01234@@Z48
xdata$x	SEGMENT
_CT??_R0?AVException@Internal@Core@Math@Palmtree@@@8??0Exception@Internal@Core@Math@Palmtree@@QEAA@AEBV01234@@Z48 DD 00H
	DD	imagerel ??_R0?AVException@Internal@Core@Math@Palmtree@@@8
	DD	00H
	DD	0ffffffffH
	ORG $+4
	DD	030H
	DD	imagerel ??0Exception@Internal@Core@Math@Palmtree@@QEAA@AEBV01234@@Z
xdata$x	ENDS
;	COMDAT ??_R0?AVException@Internal@Core@Math@Palmtree@@@8
data$r	SEGMENT
??_R0?AVException@Internal@Core@Math@Palmtree@@@8 DQ FLAT:??_7type_info@@6B@ ; Palmtree::Math::Core::Internal::Exception `RTTI Type Descriptor'
	DQ	0000000000000000H
	DB	'.?AVException@Internal@Core@Math@Palmtree@@', 00H
data$r	ENDS
;	COMDAT _CT??_R0?AVInternalErrorException@Internal@Core@Math@Palmtree@@@8??0InternalErrorException@Internal@Core@Math@Palmtree@@QEAA@AEBV01234@@Z48
xdata$x	SEGMENT
_CT??_R0?AVInternalErrorException@Internal@Core@Math@Palmtree@@@8??0InternalErrorException@Internal@Core@Math@Palmtree@@QEAA@AEBV01234@@Z48 DD 00H
	DD	imagerel ??_R0?AVInternalErrorException@Internal@Core@Math@Palmtree@@@8
	DD	00H
	DD	0ffffffffH
	ORG $+4
	DD	030H
	DD	imagerel ??0InternalErrorException@Internal@Core@Math@Palmtree@@QEAA@AEBV01234@@Z
xdata$x	ENDS
;	COMDAT ??_R0?AVInternalErrorException@Internal@Core@Math@Palmtree@@@8
data$r	SEGMENT
??_R0?AVInternalErrorException@Internal@Core@Math@Palmtree@@@8 DQ FLAT:??_7type_info@@6B@ ; Palmtree::Math::Core::Internal::InternalErrorException `RTTI Type Descriptor'
	DQ	0000000000000000H
	DB	'.?AVInternalErrorException@Internal@Core@Math@Palmtree@@'
	DB	00H
data$r	ENDS
;	COMDAT _CTA2?AVInternalErrorException@Internal@Core@Math@Palmtree@@
xdata$x	SEGMENT
_CTA2?AVInternalErrorException@Internal@Core@Math@Palmtree@@ DD 02H
	DD	imagerel _CT??_R0?AVInternalErrorException@Internal@Core@Math@Palmtree@@@8??0InternalErrorException@Internal@Core@Math@Palmtree@@QEAA@AEBV01234@@Z48
	DD	imagerel _CT??_R0?AVException@Internal@Core@Math@Palmtree@@@8??0Exception@Internal@Core@Math@Palmtree@@QEAA@AEBV01234@@Z48
xdata$x	ENDS
;	COMDAT _TI2?AVInternalErrorException@Internal@Core@Math@Palmtree@@
xdata$x	SEGMENT
_TI2?AVInternalErrorException@Internal@Core@Math@Palmtree@@ DD 00H
	DD	imagerel ??1InternalErrorException@Internal@Core@Math@Palmtree@@UEAA@XZ
	DD	00H
	DD	imagerel _CTA2?AVInternalErrorException@Internal@Core@Math@Palmtree@@
xdata$x	ENDS
;	COMDAT ??_7StringReader@Internal@Core@Math@Palmtree@@6B@
CONST	SEGMENT
??_7StringReader@Internal@Core@Math@Palmtree@@6B@ DQ FLAT:??_R4StringReader@Internal@Core@Math@Palmtree@@6B@ ; Palmtree::Math::Core::Internal::StringReader::`vftable'
	DQ	FLAT:?PeekChar@StringReader@Internal@Core@Math@Palmtree@@UEAA_WXZ
	DQ	FLAT:?Progress@StringReader@Internal@Core@Math@Palmtree@@UEAAXXZ
	DQ	FLAT:?StartsWith@StringReader@Internal@Core@Math@Palmtree@@UEAAHPEB_W@Z
	DQ	FLAT:?SkipString@StringReader@Internal@Core@Math@Palmtree@@UEAAXPEB_W@Z
CONST	ENDS
;	COMDAT ??_7InternalErrorException@Internal@Core@Math@Palmtree@@6B@
CONST	SEGMENT
??_7InternalErrorException@Internal@Core@Math@Palmtree@@6B@ DQ FLAT:??_R4InternalErrorException@Internal@Core@Math@Palmtree@@6B@ ; Palmtree::Math::Core::Internal::InternalErrorException::`vftable'
	DQ	FLAT:??_EInternalErrorException@Internal@Core@Math@Palmtree@@UEAAPEAXI@Z
	DQ	FLAT:?what@exception@std@@UEBAPEBDXZ
CONST	ENDS
;	COMDAT ??_7NotSupportedException@Internal@Core@Math@Palmtree@@6B@
CONST	SEGMENT
??_7NotSupportedException@Internal@Core@Math@Palmtree@@6B@ DQ FLAT:??_R4NotSupportedException@Internal@Core@Math@Palmtree@@6B@ ; Palmtree::Math::Core::Internal::NotSupportedException::`vftable'
	DQ	FLAT:??_ENotSupportedException@Internal@Core@Math@Palmtree@@UEAAPEAXI@Z
	DQ	FLAT:?what@exception@std@@UEBAPEBDXZ
CONST	ENDS
;	COMDAT ??_7InsufficientBufferException@Internal@Core@Math@Palmtree@@6B@
CONST	SEGMENT
??_7InsufficientBufferException@Internal@Core@Math@Palmtree@@6B@ DQ FLAT:??_R4InsufficientBufferException@Internal@Core@Math@Palmtree@@6B@ ; Palmtree::Math::Core::Internal::InsufficientBufferException::`vftable'
	DQ	FLAT:??_EInsufficientBufferException@Internal@Core@Math@Palmtree@@UEAAPEAXI@Z
	DQ	FLAT:?what@exception@std@@UEBAPEBDXZ
CONST	ENDS
;	COMDAT ??_7FormatException@Internal@Core@Math@Palmtree@@6B@
CONST	SEGMENT
??_7FormatException@Internal@Core@Math@Palmtree@@6B@ DQ FLAT:??_R4FormatException@Internal@Core@Math@Palmtree@@6B@ ; Palmtree::Math::Core::Internal::FormatException::`vftable'
	DQ	FLAT:??_EFormatException@Internal@Core@Math@Palmtree@@UEAAPEAXI@Z
	DQ	FLAT:?what@exception@std@@UEBAPEBDXZ
CONST	ENDS
;	COMDAT ??_7ArgumentNullException@Internal@Core@Math@Palmtree@@6B@
CONST	SEGMENT
??_7ArgumentNullException@Internal@Core@Math@Palmtree@@6B@ DQ FLAT:??_R4ArgumentNullException@Internal@Core@Math@Palmtree@@6B@ ; Palmtree::Math::Core::Internal::ArgumentNullException::`vftable'
	DQ	FLAT:??_EArgumentNullException@Internal@Core@Math@Palmtree@@UEAAPEAXI@Z
	DQ	FLAT:?what@exception@std@@UEBAPEBDXZ
CONST	ENDS
;	COMDAT ??_7Exception@Internal@Core@Math@Palmtree@@6B@
CONST	SEGMENT
??_7Exception@Internal@Core@Math@Palmtree@@6B@ DQ FLAT:??_R4Exception@Internal@Core@Math@Palmtree@@6B@ ; Palmtree::Math::Core::Internal::Exception::`vftable'
	DQ	FLAT:??_EException@Internal@Core@Math@Palmtree@@UEAAPEAXI@Z
	DQ	FLAT:?what@exception@std@@UEBAPEBDXZ
CONST	ENDS
;	COMDAT ??_C@_0BC@EOODALEL@Unknown?5exception@
CONST	SEGMENT
??_C@_0BC@EOODALEL@Unknown?5exception@ DB 'Unknown exception', 00H ; `string'
CONST	ENDS
;	COMDAT ??_7exception@std@@6B@
CONST	SEGMENT
??_7exception@std@@6B@ DQ FLAT:??_R4exception@std@@6B@	; std::exception::`vftable'
	DQ	FLAT:??_Eexception@std@@UEAAPEAXI@Z
	DQ	FLAT:?what@exception@std@@UEBAPEBDXZ
CONST	ENDS
;	COMDAT xdata
xdata	SEGMENT
$unwind$?ToString_Imp@Internal@Core@Math@Palmtree@@YA_KDPEAU__tag_NUMBER_HEADER@1234@PEB_WPEBU__tag_PMC_NUMBER_FORMAT_INFO@1234@PEA_W_K@Z DD 071701H
	DD	0177417H
	DD	0163417H
	DD	0140117H
	DD	0500bH
xdata	ENDS
;	COMDAT xdata
xdata	SEGMENT
$unwind$?ToStringCustom@CustomFormatter@Internal@Core@Math@Palmtree@@YA_KDPEAU__tag_NUMBER_HEADER@2345@PEB_WPEBU__tag_PMC_NUMBER_FORMAT_INFO@2345@PEA_W_K@Z DD 010401H
	DD	0a204H
xdata	ENDS
;	COMDAT xdata
xdata	SEGMENT
$ip2state$?ToStringX@HexaDecimalFormatter@Internal@Core@Math@Palmtree@@YA_KDPEAU__tag_NUMBER_HEADER@2345@_WHPEBU__tag_PMC_NUMBER_FORMAT_INFO@2345@PEA_W_K@Z DD imagerel ?ToStringX@HexaDecimalFormatter@Internal@Core@Math@Palmtree@@YA_KDPEAU__tag_NUMBER_HEADER@2345@_WHPEBU__tag_PMC_NUMBER_FORMAT_INFO@2345@PEA_W_K@Z
	DD	0ffffffffH
	DD	imagerel ?ToStringX@HexaDecimalFormatter@Internal@Core@Math@Palmtree@@YA_KDPEAU__tag_NUMBER_HEADER@2345@_WHPEBU__tag_PMC_NUMBER_FORMAT_INFO@2345@PEA_W_K@Z+195
	DD	00H
	DD	imagerel ?ToStringX@HexaDecimalFormatter@Internal@Core@Math@Palmtree@@YA_KDPEAU__tag_NUMBER_HEADER@2345@_WHPEBU__tag_PMC_NUMBER_FORMAT_INFO@2345@PEA_W_K@Z+674
	DD	0ffffffffH
xdata	ENDS
;	COMDAT xdata
xdata	SEGMENT
$stateUnwindMap$?ToStringX@HexaDecimalFormatter@Internal@Core@Math@Palmtree@@YA_KDPEAU__tag_NUMBER_HEADER@2345@_WHPEBU__tag_PMC_NUMBER_FORMAT_INFO@2345@PEA_W_K@Z DD 0ffffffffH
	DD	imagerel ?dtor$0@?0??ToStringX@HexaDecimalFormatter@Internal@Core@Math@Palmtree@@YA_KDPEAU__tag_NUMBER_HEADER@2345@_WHPEBU__tag_PMC_NUMBER_FORMAT_INFO@2345@PEA_W_K@Z@4HA
xdata	ENDS
;	COMDAT CONST
CONST	SEGMENT
$cppxdata$?ToStringX@HexaDecimalFormatter@Internal@Core@Math@Palmtree@@YA_KDPEAU__tag_NUMBER_HEADER@2345@_WHPEBU__tag_PMC_NUMBER_FORMAT_INFO@2345@PEA_W_K@Z DD 019930522H
	DD	01H
	DD	imagerel $stateUnwindMap$?ToStringX@HexaDecimalFormatter@Internal@Core@Math@Palmtree@@YA_KDPEAU__tag_NUMBER_HEADER@2345@_WHPEBU__tag_PMC_NUMBER_FORMAT_INFO@2345@PEA_W_K@Z
	DD	00H
	DD	00H
	DD	03H
	DD	imagerel $ip2state$?ToStringX@HexaDecimalFormatter@Internal@Core@Math@Palmtree@@YA_KDPEAU__tag_NUMBER_HEADER@2345@_WHPEBU__tag_PMC_NUMBER_FORMAT_INFO@2345@PEA_W_K@Z
	DD	020H
	DD	00H
	DD	00H
CONST	ENDS
;	COMDAT xdata
xdata	SEGMENT
$unwind$?ToStringX@HexaDecimalFormatter@Internal@Core@Math@Palmtree@@YA_KDPEAU__tag_NUMBER_HEADER@2345@_WHPEBU__tag_PMC_NUMBER_FORMAT_INFO@2345@PEA_W_K@Z DD 0c2911H
	DD	0176429H
	DD	0155425H
	DD	0143421H
	DD	0f011d215H
	DD	0d00de00fH
	DD	07009c00bH
	DD	imagerel __CxxFrameHandler3
	DD	imagerel $cppxdata$?ToStringX@HexaDecimalFormatter@Internal@Core@Math@Palmtree@@YA_KDPEAU__tag_NUMBER_HEADER@2345@_WHPEBU__tag_PMC_NUMBER_FORMAT_INFO@2345@PEA_W_K@Z
xdata	ENDS
;	COMDAT xdata
xdata	SEGMENT
$unwind$?OutputHexNumberSequenceOneWord@HexaDecimalFormatter@Internal@Core@Math@Palmtree@@YAX_KIPEA_WPEAVStringWriter@2345@@Z DD 081401H
	DD	086414H
	DD	075414H
	DD	063414H
	DD	070103214H
xdata	ENDS
;	COMDAT xdata
xdata	SEGMENT
$unwind$?ToStringP@DecimalFromatter@Internal@Core@Math@Palmtree@@YA_KDPEAU__tag_NUMBER_HEADER@2345@_WHPEBU__tag_PMC_NUMBER_FORMAT_INFO@2345@PEA_W_K@Z DD 010401H
	DD	0e204H
xdata	ENDS
;	COMDAT xdata
xdata	SEGMENT
$unwind$?ToStringN@DecimalFromatter@Internal@Core@Math@Palmtree@@YA_KDPEAU__tag_NUMBER_HEADER@2345@_WHPEBU__tag_PMC_NUMBER_FORMAT_INFO@2345@PEA_W_K@Z DD 010401H
	DD	0e204H
xdata	ENDS
;	COMDAT xdata
xdata	SEGMENT
$unwind$?ToStringF@DecimalFromatter@Internal@Core@Math@Palmtree@@YA_KDPEAU__tag_NUMBER_HEADER@2345@_WHPEBU__tag_PMC_NUMBER_FORMAT_INFO@2345@PEA_W_K@Z DD 010401H
	DD	0e204H
xdata	ENDS
;	COMDAT xdata
xdata	SEGMENT
$unwind$?ToStringE@DecimalFromatter@Internal@Core@Math@Palmtree@@YA_KDPEAU__tag_NUMBER_HEADER@2345@_WHPEBU__tag_PMC_NUMBER_FORMAT_INFO@2345@PEA_W_K@Z DD 010401H
	DD	0e204H
xdata	ENDS
;	COMDAT xdata
xdata	SEGMENT
$unwind$?ToStringD@DecimalFromatter@Internal@Core@Math@Palmtree@@YA_KDPEAU__tag_NUMBER_HEADER@2345@_WHPEBU__tag_PMC_NUMBER_FORMAT_INFO@2345@PEA_W_K@Z DD 010401H
	DD	0e204H
xdata	ENDS
;	COMDAT xdata
xdata	SEGMENT
$unwind$?ToStringC@DecimalFromatter@Internal@Core@Math@Palmtree@@YA_KDPEAU__tag_NUMBER_HEADER@2345@_WHPEBU__tag_PMC_NUMBER_FORMAT_INFO@2345@PEA_W_K@Z DD 010401H
	DD	0e204H
xdata	ENDS
;	COMDAT xdata
xdata	SEGMENT
$unwind$?WriteSuffix@FormatterTypeP@DecimalFromatter@Internal@Core@Math@Palmtree@@MEAAXDPEAVStringWriter@3456@@Z DD 040a01H
	DD	06340aH
	DD	07006320aH
xdata	ENDS
;	COMDAT xdata
xdata	SEGMENT
$ip2state$?FormatNumberSequence@FormatterTypeP@DecimalFromatter@Internal@Core@Math@Palmtree@@MEAAXPEB_WPEAVStringWriter@3456@@Z DD imagerel ?FormatNumberSequence@FormatterTypeP@DecimalFromatter@Internal@Core@Math@Palmtree@@MEAAXPEB_WPEAVStringWriter@3456@@Z
	DD	0ffffffffH
	DD	imagerel ?FormatNumberSequence@FormatterTypeP@DecimalFromatter@Internal@Core@Math@Palmtree@@MEAAXPEB_WPEAVStringWriter@3456@@Z+60
	DD	00H
	DD	imagerel ?FormatNumberSequence@FormatterTypeP@DecimalFromatter@Internal@Core@Math@Palmtree@@MEAAXPEB_WPEAVStringWriter@3456@@Z+564
	DD	0ffffffffH
	DD	imagerel ?FormatNumberSequence@FormatterTypeP@DecimalFromatter@Internal@Core@Math@Palmtree@@MEAAXPEB_WPEAVStringWriter@3456@@Z+600
	DD	00H
xdata	ENDS
;	COMDAT xdata
xdata	SEGMENT
$stateUnwindMap$?FormatNumberSequence@FormatterTypeP@DecimalFromatter@Internal@Core@Math@Palmtree@@MEAAXPEB_WPEAVStringWriter@3456@@Z DD 0ffffffffH
	DD	imagerel ?dtor$0@?0??FormatNumberSequence@FormatterTypeP@DecimalFromatter@Internal@Core@Math@Palmtree@@MEAAXPEB_WPEAVStringWriter@3456@@Z@4HA
xdata	ENDS
;	COMDAT CONST
CONST	SEGMENT
$cppxdata$?FormatNumberSequence@FormatterTypeP@DecimalFromatter@Internal@Core@Math@Palmtree@@MEAAXPEB_WPEAVStringWriter@3456@@Z DD 019930522H
	DD	01H
	DD	imagerel $stateUnwindMap$?FormatNumberSequence@FormatterTypeP@DecimalFromatter@Internal@Core@Math@Palmtree@@MEAAXPEB_WPEAVStringWriter@3456@@Z
	DD	00H
	DD	00H
	DD	04H
	DD	imagerel $ip2state$?FormatNumberSequence@FormatterTypeP@DecimalFromatter@Internal@Core@Math@Palmtree@@MEAAXPEB_WPEAVStringWriter@3456@@Z
	DD	060H
	DD	00H
	DD	00H
CONST	ENDS
;	COMDAT xdata
xdata	SEGMENT
$unwind$?FormatNumberSequence@FormatterTypeP@DecimalFromatter@Internal@Core@Math@Palmtree@@MEAAXPEB_WPEAVStringWriter@3456@@Z DD 0b2c11H
	DD	025342cH
	DD	01c011cH
	DD	0e00ef010H
	DD	0c00ad00cH
	DD	060077008H
	DD	05006H
	DD	imagerel __CxxFrameHandler3
	DD	imagerel $cppxdata$?FormatNumberSequence@FormatterTypeP@DecimalFromatter@Internal@Core@Math@Palmtree@@MEAAXPEB_WPEAVStringWriter@3456@@Z
xdata	ENDS
;	COMDAT xdata
xdata	SEGMENT
$unwind$?WritePrefix@FormatterTypeP@DecimalFromatter@Internal@Core@Math@Palmtree@@MEAAXDPEAVStringWriter@3456@@Z DD 040a01H
	DD	06340aH
	DD	07006320aH
xdata	ENDS
;	COMDAT xdata
xdata	SEGMENT
$ip2state$?FormatInternally@FormatterTypeP@DecimalFromatter@Internal@Core@Math@Palmtree@@MEAAXPEAU__tag_NUMBER_HEADER@3456@PEAVStringWriter@3456@@Z DD imagerel ?FormatInternally@FormatterTypeP@DecimalFromatter@Internal@Core@Math@Palmtree@@MEAAXPEAU__tag_NUMBER_HEADER@3456@PEAVStringWriter@3456@@Z
	DD	0ffffffffH
	DD	imagerel ?FormatInternally@FormatterTypeP@DecimalFromatter@Internal@Core@Math@Palmtree@@MEAAXPEAU__tag_NUMBER_HEADER@3456@PEAVStringWriter@3456@@Z+45
	DD	00H
	DD	imagerel ?FormatInternally@FormatterTypeP@DecimalFromatter@Internal@Core@Math@Palmtree@@MEAAXPEAU__tag_NUMBER_HEADER@3456@PEAVStringWriter@3456@@Z+89
	DD	0ffffffffH
xdata	ENDS
;	COMDAT xdata
xdata	SEGMENT
$stateUnwindMap$?FormatInternally@FormatterTypeP@DecimalFromatter@Internal@Core@Math@Palmtree@@MEAAXPEAU__tag_NUMBER_HEADER@3456@PEAVStringWriter@3456@@Z DD 0ffffffffH
	DD	imagerel ?dtor$0@?0??FormatInternally@FormatterTypeP@DecimalFromatter@Internal@Core@Math@Palmtree@@MEAAXPEAU__tag_NUMBER_HEADER@3456@PEAVStringWriter@3456@@Z@4HA
xdata	ENDS
;	COMDAT CONST
CONST	SEGMENT
$cppxdata$?FormatInternally@FormatterTypeP@DecimalFromatter@Internal@Core@Math@Palmtree@@MEAAXPEAU__tag_NUMBER_HEADER@3456@PEAVStringWriter@3456@@Z DD 019930522H
	DD	01H
	DD	imagerel $stateUnwindMap$?FormatInternally@FormatterTypeP@DecimalFromatter@Internal@Core@Math@Palmtree@@MEAAXPEAU__tag_NUMBER_HEADER@3456@PEAVStringWriter@3456@@Z
	DD	00H
	DD	00H
	DD	03H
	DD	imagerel $ip2state$?FormatInternally@FormatterTypeP@DecimalFromatter@Internal@Core@Math@Palmtree@@MEAAXPEAU__tag_NUMBER_HEADER@3456@PEAVStringWriter@3456@@Z
	DD	020H
	DD	00H
	DD	00H
CONST	ENDS
;	COMDAT xdata
xdata	SEGMENT
$unwind$?FormatInternally@FormatterTypeP@DecimalFromatter@Internal@Core@Math@Palmtree@@MEAAXPEAU__tag_NUMBER_HEADER@3456@PEAVStringWriter@3456@@Z DD 061911H
	DD	0d6419H
	DD	0c3414H
	DD	070029206H
	DD	imagerel __CxxFrameHandler3
	DD	imagerel $cppxdata$?FormatInternally@FormatterTypeP@DecimalFromatter@Internal@Core@Math@Palmtree@@MEAAXPEAU__tag_NUMBER_HEADER@3456@PEAVStringWriter@3456@@Z
xdata	ENDS
;	COMDAT xdata
xdata	SEGMENT
$unwind$?WriteZeroValue@FormatterTypeP@DecimalFromatter@Internal@Core@Math@Palmtree@@MEAAXPEAVStringWriter@3456@@Z DD 040a01H
	DD	06340aH
	DD	07006320aH
xdata	ENDS
;	COMDAT xdata
xdata	SEGMENT
$unwind$?WriteSuffix@FormatterTypeN@DecimalFromatter@Internal@Core@Math@Palmtree@@MEAAXDPEAVStringWriter@3456@@Z DD 041201H
	DD	063412H
	DD	0700e3212H
xdata	ENDS
;	COMDAT xdata
xdata	SEGMENT
$ip2state$?FormatNumberSequence@FormatterTypeN@DecimalFromatter@Internal@Core@Math@Palmtree@@MEAAXPEB_WPEAVStringWriter@3456@@Z DD imagerel ?FormatNumberSequence@FormatterTypeN@DecimalFromatter@Internal@Core@Math@Palmtree@@MEAAXPEB_WPEAVStringWriter@3456@@Z
	DD	0ffffffffH
	DD	imagerel ?FormatNumberSequence@FormatterTypeN@DecimalFromatter@Internal@Core@Math@Palmtree@@MEAAXPEB_WPEAVStringWriter@3456@@Z+60
	DD	00H
	DD	imagerel ?FormatNumberSequence@FormatterTypeN@DecimalFromatter@Internal@Core@Math@Palmtree@@MEAAXPEB_WPEAVStringWriter@3456@@Z+564
	DD	0ffffffffH
	DD	imagerel ?FormatNumberSequence@FormatterTypeN@DecimalFromatter@Internal@Core@Math@Palmtree@@MEAAXPEB_WPEAVStringWriter@3456@@Z+600
	DD	00H
xdata	ENDS
;	COMDAT xdata
xdata	SEGMENT
$stateUnwindMap$?FormatNumberSequence@FormatterTypeN@DecimalFromatter@Internal@Core@Math@Palmtree@@MEAAXPEB_WPEAVStringWriter@3456@@Z DD 0ffffffffH
	DD	imagerel ?dtor$0@?0??FormatNumberSequence@FormatterTypeN@DecimalFromatter@Internal@Core@Math@Palmtree@@MEAAXPEB_WPEAVStringWriter@3456@@Z@4HA
xdata	ENDS
;	COMDAT CONST
CONST	SEGMENT
$cppxdata$?FormatNumberSequence@FormatterTypeN@DecimalFromatter@Internal@Core@Math@Palmtree@@MEAAXPEB_WPEAVStringWriter@3456@@Z DD 019930522H
	DD	01H
	DD	imagerel $stateUnwindMap$?FormatNumberSequence@FormatterTypeN@DecimalFromatter@Internal@Core@Math@Palmtree@@MEAAXPEB_WPEAVStringWriter@3456@@Z
	DD	00H
	DD	00H
	DD	04H
	DD	imagerel $ip2state$?FormatNumberSequence@FormatterTypeN@DecimalFromatter@Internal@Core@Math@Palmtree@@MEAAXPEB_WPEAVStringWriter@3456@@Z
	DD	060H
	DD	00H
	DD	00H
CONST	ENDS
;	COMDAT xdata
xdata	SEGMENT
$unwind$?FormatNumberSequence@FormatterTypeN@DecimalFromatter@Internal@Core@Math@Palmtree@@MEAAXPEB_WPEAVStringWriter@3456@@Z DD 0b2c11H
	DD	025342cH
	DD	01c011cH
	DD	0e00ef010H
	DD	0c00ad00cH
	DD	060077008H
	DD	05006H
	DD	imagerel __CxxFrameHandler3
	DD	imagerel $cppxdata$?FormatNumberSequence@FormatterTypeN@DecimalFromatter@Internal@Core@Math@Palmtree@@MEAAXPEB_WPEAVStringWriter@3456@@Z
xdata	ENDS
;	COMDAT xdata
xdata	SEGMENT
$unwind$?WritePrefix@FormatterTypeN@DecimalFromatter@Internal@Core@Math@Palmtree@@MEAAXDPEAVStringWriter@3456@@Z DD 020901H
	DD	030053209H
xdata	ENDS
;	COMDAT xdata
xdata	SEGMENT
$unwind$?WriteZeroValue@FormatterTypeN@DecimalFromatter@Internal@Core@Math@Palmtree@@MEAAXPEAVStringWriter@3456@@Z DD 040a01H
	DD	06340aH
	DD	07006320aH
xdata	ENDS
;	COMDAT xdata
xdata	SEGMENT
$unwind$?FormatNumberSequence@FormatterTypeF@DecimalFromatter@Internal@Core@Math@Palmtree@@MEAAXPEB_WPEAVStringWriter@3456@@Z DD 040a01H
	DD	06340aH
	DD	07006320aH
xdata	ENDS
;	COMDAT xdata
xdata	SEGMENT
$unwind$?WriteZeroValue@FormatterTypeF@DecimalFromatter@Internal@Core@Math@Palmtree@@MEAAXPEAVStringWriter@3456@@Z DD 040a01H
	DD	06340aH
	DD	07006320aH
xdata	ENDS
;	COMDAT xdata
xdata	SEGMENT
$chain$1$?FormatNumberSequence@FormatterTypeE@DecimalFromatter@Internal@Core@Math@Palmtree@@MEAAXPEB_WPEAVStringWriter@3456@@Z DD 021H
	DD	imagerel $LN20
	DD	imagerel $LN20+141
	DD	imagerel $unwind$?FormatNumberSequence@FormatterTypeE@DecimalFromatter@Internal@Core@Math@Palmtree@@MEAAXPEB_WPEAVStringWriter@3456@@Z
xdata	ENDS
;	COMDAT xdata
xdata	SEGMENT
$chain$0$?FormatNumberSequence@FormatterTypeE@DecimalFromatter@Internal@Core@Math@Palmtree@@MEAAXPEB_WPEAVStringWriter@3456@@Z DD 020821H
	DD	0155408H
	DD	imagerel $LN20
	DD	imagerel $LN20+141
	DD	imagerel $unwind$?FormatNumberSequence@FormatterTypeE@DecimalFromatter@Internal@Core@Math@Palmtree@@MEAAXPEB_WPEAVStringWriter@3456@@Z
xdata	ENDS
;	COMDAT xdata
xdata	SEGMENT
$unwind$?FormatNumberSequence@FormatterTypeE@DecimalFromatter@Internal@Core@Math@Palmtree@@MEAAXPEB_WPEAVStringWriter@3456@@Z DD 061b19H
	DD	0f008b20cH
	DD	07004e006H
	DD	030026003H
	DD	imagerel __GSHandlerCheck
	DD	058H
xdata	ENDS
;	COMDAT xdata
xdata	SEGMENT
$ip2state$?FormatInternally@FormatterTypeE@DecimalFromatter@Internal@Core@Math@Palmtree@@MEAAXPEAU__tag_NUMBER_HEADER@3456@PEAVStringWriter@3456@@Z DD imagerel ?FormatInternally@FormatterTypeE@DecimalFromatter@Internal@Core@Math@Palmtree@@MEAAXPEAU__tag_NUMBER_HEADER@3456@PEAVStringWriter@3456@@Z
	DD	0ffffffffH
	DD	imagerel ?FormatInternally@FormatterTypeE@DecimalFromatter@Internal@Core@Math@Palmtree@@MEAAXPEAU__tag_NUMBER_HEADER@3456@PEAVStringWriter@3456@@Z+58
	DD	00H
	DD	imagerel ?FormatInternally@FormatterTypeE@DecimalFromatter@Internal@Core@Math@Palmtree@@MEAAXPEAU__tag_NUMBER_HEADER@3456@PEAVStringWriter@3456@@Z+77
	DD	01H
	DD	imagerel ?FormatInternally@FormatterTypeE@DecimalFromatter@Internal@Core@Math@Palmtree@@MEAAXPEAU__tag_NUMBER_HEADER@3456@PEAVStringWriter@3456@@Z+164
	DD	00H
	DD	imagerel ?FormatInternally@FormatterTypeE@DecimalFromatter@Internal@Core@Math@Palmtree@@MEAAXPEAU__tag_NUMBER_HEADER@3456@PEAVStringWriter@3456@@Z+209
	DD	02H
	DD	imagerel ?FormatInternally@FormatterTypeE@DecimalFromatter@Internal@Core@Math@Palmtree@@MEAAXPEAU__tag_NUMBER_HEADER@3456@PEAVStringWriter@3456@@Z+279
	DD	00H
	DD	imagerel ?FormatInternally@FormatterTypeE@DecimalFromatter@Internal@Core@Math@Palmtree@@MEAAXPEAU__tag_NUMBER_HEADER@3456@PEAVStringWriter@3456@@Z+334
	DD	01H
	DD	imagerel ?FormatInternally@FormatterTypeE@DecimalFromatter@Internal@Core@Math@Palmtree@@MEAAXPEAU__tag_NUMBER_HEADER@3456@PEAVStringWriter@3456@@Z+393
	DD	00H
	DD	imagerel ?FormatInternally@FormatterTypeE@DecimalFromatter@Internal@Core@Math@Palmtree@@MEAAXPEAU__tag_NUMBER_HEADER@3456@PEAVStringWriter@3456@@Z+408
	DD	0ffffffffH
xdata	ENDS
;	COMDAT xdata
xdata	SEGMENT
$stateUnwindMap$?FormatInternally@FormatterTypeE@DecimalFromatter@Internal@Core@Math@Palmtree@@MEAAXPEAU__tag_NUMBER_HEADER@3456@PEAVStringWriter@3456@@Z DD 0ffffffffH
	DD	imagerel ?dtor$0@?0??FormatInternally@FormatterTypeE@DecimalFromatter@Internal@Core@Math@Palmtree@@MEAAXPEAU__tag_NUMBER_HEADER@3456@PEAVStringWriter@3456@@Z@4HA
	DD	00H
	DD	imagerel ?dtor$1@?0??FormatInternally@FormatterTypeE@DecimalFromatter@Internal@Core@Math@Palmtree@@MEAAXPEAU__tag_NUMBER_HEADER@3456@PEAVStringWriter@3456@@Z@4HA
	DD	00H
	DD	imagerel ?dtor$2@?0??FormatInternally@FormatterTypeE@DecimalFromatter@Internal@Core@Math@Palmtree@@MEAAXPEAU__tag_NUMBER_HEADER@3456@PEAVStringWriter@3456@@Z@4HA
xdata	ENDS
;	COMDAT CONST
CONST	SEGMENT
$cppxdata$?FormatInternally@FormatterTypeE@DecimalFromatter@Internal@Core@Math@Palmtree@@MEAAXPEAU__tag_NUMBER_HEADER@3456@PEAVStringWriter@3456@@Z DD 019930522H
	DD	03H
	DD	imagerel $stateUnwindMap$?FormatInternally@FormatterTypeE@DecimalFromatter@Internal@Core@Math@Palmtree@@MEAAXPEAU__tag_NUMBER_HEADER@3456@PEAVStringWriter@3456@@Z
	DD	00H
	DD	00H
	DD	09H
	DD	imagerel $ip2state$?FormatInternally@FormatterTypeE@DecimalFromatter@Internal@Core@Math@Palmtree@@MEAAXPEAU__tag_NUMBER_HEADER@3456@PEAVStringWriter@3456@@Z
	DD	030H
	DD	00H
	DD	00H
CONST	ENDS
;	COMDAT xdata
xdata	SEGMENT
$unwind$?FormatInternally@FormatterTypeE@DecimalFromatter@Internal@Core@Math@Palmtree@@MEAAXPEAU__tag_NUMBER_HEADER@3456@PEAVStringWriter@3456@@Z DD 0c2711H
	DD	0196427H
	DD	0185423H
	DD	017341fH
	DD	0f00cf213H
	DD	0d008e00aH
	DD	07004c006H
	DD	imagerel __CxxFrameHandler3
	DD	imagerel $cppxdata$?FormatInternally@FormatterTypeE@DecimalFromatter@Internal@Core@Math@Palmtree@@MEAAXPEAU__tag_NUMBER_HEADER@3456@PEAVStringWriter@3456@@Z
xdata	ENDS
;	COMDAT xdata
xdata	SEGMENT
$chain$1$?WriteZeroValue@FormatterTypeE@DecimalFromatter@Internal@Core@Math@Palmtree@@MEAAXPEAVStringWriter@3456@@Z DD 021H
	DD	imagerel $LN14
	DD	imagerel $LN14+50
	DD	imagerel $unwind$?WriteZeroValue@FormatterTypeE@DecimalFromatter@Internal@Core@Math@Palmtree@@MEAAXPEAVStringWriter@3456@@Z
xdata	ENDS
;	COMDAT xdata
xdata	SEGMENT
$chain$0$?WriteZeroValue@FormatterTypeE@DecimalFromatter@Internal@Core@Math@Palmtree@@MEAAXPEAVStringWriter@3456@@Z DD 020521H
	DD	067405H
	DD	imagerel $LN14
	DD	imagerel $LN14+50
	DD	imagerel $unwind$?WriteZeroValue@FormatterTypeE@DecimalFromatter@Internal@Core@Math@Palmtree@@MEAAXPEAVStringWriter@3456@@Z
xdata	ENDS
;	COMDAT xdata
xdata	SEGMENT
$unwind$?WriteZeroValue@FormatterTypeE@DecimalFromatter@Internal@Core@Math@Palmtree@@MEAAXPEAVStringWriter@3456@@Z DD 040a01H
	DD	07340aH
	DD	06006320aH
xdata	ENDS
;	COMDAT xdata
xdata	SEGMENT
$unwind$?FormatNumberSequence@FormatterTypeD@DecimalFromatter@Internal@Core@Math@Palmtree@@MEAAXPEB_WPEAVStringWriter@3456@@Z DD 060f01H
	DD	07640fH
	DD	06340fH
	DD	0700b320fH
xdata	ENDS
;	COMDAT xdata
xdata	SEGMENT
$unwind$?WriteZeroValue@FormatterTypeD@DecimalFromatter@Internal@Core@Math@Palmtree@@MEAAXPEAVStringWriter@3456@@Z DD 040a01H
	DD	06340aH
	DD	07006320aH
xdata	ENDS
;	COMDAT xdata
xdata	SEGMENT
$unwind$?WriteSuffix@FormatterTypeC@DecimalFromatter@Internal@Core@Math@Palmtree@@MEAAXDPEAVStringWriter@3456@@Z DD 040a01H
	DD	06340aH
	DD	07006320aH
xdata	ENDS
;	COMDAT xdata
xdata	SEGMENT
$ip2state$?FormatNumberSequence@FormatterTypeC@DecimalFromatter@Internal@Core@Math@Palmtree@@MEAAXPEB_WPEAVStringWriter@3456@@Z DD imagerel ?FormatNumberSequence@FormatterTypeC@DecimalFromatter@Internal@Core@Math@Palmtree@@MEAAXPEB_WPEAVStringWriter@3456@@Z
	DD	0ffffffffH
	DD	imagerel ?FormatNumberSequence@FormatterTypeC@DecimalFromatter@Internal@Core@Math@Palmtree@@MEAAXPEB_WPEAVStringWriter@3456@@Z+60
	DD	00H
	DD	imagerel ?FormatNumberSequence@FormatterTypeC@DecimalFromatter@Internal@Core@Math@Palmtree@@MEAAXPEB_WPEAVStringWriter@3456@@Z+564
	DD	0ffffffffH
	DD	imagerel ?FormatNumberSequence@FormatterTypeC@DecimalFromatter@Internal@Core@Math@Palmtree@@MEAAXPEB_WPEAVStringWriter@3456@@Z+600
	DD	00H
xdata	ENDS
;	COMDAT xdata
xdata	SEGMENT
$stateUnwindMap$?FormatNumberSequence@FormatterTypeC@DecimalFromatter@Internal@Core@Math@Palmtree@@MEAAXPEB_WPEAVStringWriter@3456@@Z DD 0ffffffffH
	DD	imagerel ?dtor$0@?0??FormatNumberSequence@FormatterTypeC@DecimalFromatter@Internal@Core@Math@Palmtree@@MEAAXPEB_WPEAVStringWriter@3456@@Z@4HA
xdata	ENDS
;	COMDAT CONST
CONST	SEGMENT
$cppxdata$?FormatNumberSequence@FormatterTypeC@DecimalFromatter@Internal@Core@Math@Palmtree@@MEAAXPEB_WPEAVStringWriter@3456@@Z DD 019930522H
	DD	01H
	DD	imagerel $stateUnwindMap$?FormatNumberSequence@FormatterTypeC@DecimalFromatter@Internal@Core@Math@Palmtree@@MEAAXPEB_WPEAVStringWriter@3456@@Z
	DD	00H
	DD	00H
	DD	04H
	DD	imagerel $ip2state$?FormatNumberSequence@FormatterTypeC@DecimalFromatter@Internal@Core@Math@Palmtree@@MEAAXPEB_WPEAVStringWriter@3456@@Z
	DD	060H
	DD	00H
	DD	00H
CONST	ENDS
;	COMDAT xdata
xdata	SEGMENT
$unwind$?FormatNumberSequence@FormatterTypeC@DecimalFromatter@Internal@Core@Math@Palmtree@@MEAAXPEB_WPEAVStringWriter@3456@@Z DD 0b2c11H
	DD	025342cH
	DD	01c011cH
	DD	0e00ef010H
	DD	0c00ad00cH
	DD	060077008H
	DD	05006H
	DD	imagerel __CxxFrameHandler3
	DD	imagerel $cppxdata$?FormatNumberSequence@FormatterTypeC@DecimalFromatter@Internal@Core@Math@Palmtree@@MEAAXPEB_WPEAVStringWriter@3456@@Z
xdata	ENDS
;	COMDAT xdata
xdata	SEGMENT
$unwind$?WritePrefix@FormatterTypeC@DecimalFromatter@Internal@Core@Math@Palmtree@@MEAAXDPEAVStringWriter@3456@@Z DD 040a01H
	DD	06340aH
	DD	07006320aH
xdata	ENDS
;	COMDAT xdata
xdata	SEGMENT
$unwind$?WriteZeroValue@FormatterTypeC@DecimalFromatter@Internal@Core@Math@Palmtree@@MEAAXPEAVStringWriter@3456@@Z DD 040a01H
	DD	06340aH
	DD	07006320aH
xdata	ENDS
;	COMDAT xdata
xdata	SEGMENT
$unwind$?WriteTrailingWord@Formatter@DecimalFromatter@Internal@Core@Math@Palmtree@@AEAAXPEAVStringWriter@3456@_K@Z DD 061201H
	DD	087412H
	DD	063412H
	DD	0500b3212H
xdata	ENDS
;	COMDAT xdata
xdata	SEGMENT
$unwind$?WriteLeadingOneWord@Formatter@DecimalFromatter@Internal@Core@Math@Palmtree@@AEAAXPEAVStringWriter@3456@_K@Z DD 040a01H
	DD	06340aH
	DD	07006320aH
xdata	ENDS
;	COMDAT xdata
xdata	SEGMENT
$chain$1$?ConstructSimpleNumberSequence@Formatter@DecimalFromatter@Internal@Core@Math@Palmtree@@AEAAPEA_WPEA_K_KPEA_W1@Z DD 021H
	DD	imagerel $LN43
	DD	imagerel $LN43+90
	DD	imagerel $unwind$?ConstructSimpleNumberSequence@Formatter@DecimalFromatter@Internal@Core@Math@Palmtree@@AEAAPEA_WPEA_K_KPEA_W1@Z
xdata	ENDS
;	COMDAT xdata
xdata	SEGMENT
$chain$0$?ConstructSimpleNumberSequence@Formatter@DecimalFromatter@Internal@Core@Math@Palmtree@@AEAAPEA_WPEA_K_KPEA_W1@Z DD 020421H
	DD	0127404H
	DD	imagerel $LN43
	DD	imagerel $LN43+90
	DD	imagerel $unwind$?ConstructSimpleNumberSequence@Formatter@DecimalFromatter@Internal@Core@Math@Palmtree@@AEAAPEA_WPEA_K_KPEA_W1@Z
xdata	ENDS
;	COMDAT xdata
xdata	SEGMENT
$unwind$?ConstructSimpleNumberSequence@Formatter@DecimalFromatter@Internal@Core@Math@Palmtree@@AEAAPEA_WPEA_K_KPEA_W1@Z DD 040f01H
	DD	013340fH
	DD	06008f20fH
xdata	ENDS
;	COMDAT xdata
xdata	SEGMENT
$ip2state$?ConvertAs10nBasedNumber@Formatter@DecimalFromatter@Internal@Core@Math@Palmtree@@AEAA_KPEAU__tag_NUMBER_HEADER@3456@PEA_K@Z DD imagerel ?ConvertAs10nBasedNumber@Formatter@DecimalFromatter@Internal@Core@Math@Palmtree@@AEAA_KPEAU__tag_NUMBER_HEADER@3456@PEA_K@Z
	DD	0ffffffffH
	DD	imagerel ?ConvertAs10nBasedNumber@Formatter@DecimalFromatter@Internal@Core@Math@Palmtree@@AEAA_KPEAU__tag_NUMBER_HEADER@3456@PEA_K@Z+55
	DD	00H
	DD	imagerel ?ConvertAs10nBasedNumber@Formatter@DecimalFromatter@Internal@Core@Math@Palmtree@@AEAA_KPEAU__tag_NUMBER_HEADER@3456@PEA_K@Z+247
	DD	0ffffffffH
xdata	ENDS
;	COMDAT xdata
xdata	SEGMENT
$stateUnwindMap$?ConvertAs10nBasedNumber@Formatter@DecimalFromatter@Internal@Core@Math@Palmtree@@AEAA_KPEAU__tag_NUMBER_HEADER@3456@PEA_K@Z DD 0ffffffffH
	DD	imagerel ?dtor$0@?0??ConvertAs10nBasedNumber@Formatter@DecimalFromatter@Internal@Core@Math@Palmtree@@AEAA_KPEAU__tag_NUMBER_HEADER@3456@PEA_K@Z@4HA
xdata	ENDS
;	COMDAT CONST
CONST	SEGMENT
$cppxdata$?ConvertAs10nBasedNumber@Formatter@DecimalFromatter@Internal@Core@Math@Palmtree@@AEAA_KPEAU__tag_NUMBER_HEADER@3456@PEA_K@Z DD 019930522H
	DD	01H
	DD	imagerel $stateUnwindMap$?ConvertAs10nBasedNumber@Formatter@DecimalFromatter@Internal@Core@Math@Palmtree@@AEAA_KPEAU__tag_NUMBER_HEADER@3456@PEA_K@Z
	DD	00H
	DD	00H
	DD	03H
	DD	imagerel $ip2state$?ConvertAs10nBasedNumber@Formatter@DecimalFromatter@Internal@Core@Math@Palmtree@@AEAA_KPEAU__tag_NUMBER_HEADER@3456@PEA_K@Z
	DD	030H
	DD	00H
	DD	00H
CONST	ENDS
;	COMDAT xdata
xdata	SEGMENT
$unwind$?ConvertAs10nBasedNumber@Formatter@DecimalFromatter@Internal@Core@Math@Palmtree@@AEAA_KPEAU__tag_NUMBER_HEADER@3456@PEA_K@Z DD 0c2411H
	DD	0156424H
	DD	0145420H
	DD	012341cH
	DD	0f00cb210H
	DD	0d008e00aH
	DD	07004c006H
	DD	imagerel __CxxFrameHandler3
	DD	imagerel $cppxdata$?ConvertAs10nBasedNumber@Formatter@DecimalFromatter@Internal@Core@Math@Palmtree@@AEAA_KPEAU__tag_NUMBER_HEADER@3456@PEA_K@Z
xdata	ENDS
;	COMDAT xdata
xdata	SEGMENT
$ip2state$?FormatInternally@Formatter@DecimalFromatter@Internal@Core@Math@Palmtree@@MEAAXPEAU__tag_NUMBER_HEADER@3456@PEAVStringWriter@3456@@Z DD imagerel ?FormatInternally@Formatter@DecimalFromatter@Internal@Core@Math@Palmtree@@MEAAXPEAU__tag_NUMBER_HEADER@3456@PEAVStringWriter@3456@@Z
	DD	0ffffffffH
	DD	imagerel ?FormatInternally@Formatter@DecimalFromatter@Internal@Core@Math@Palmtree@@MEAAXPEAU__tag_NUMBER_HEADER@3456@PEAVStringWriter@3456@@Z+60
	DD	00H
	DD	imagerel ?FormatInternally@Formatter@DecimalFromatter@Internal@Core@Math@Palmtree@@MEAAXPEAU__tag_NUMBER_HEADER@3456@PEAVStringWriter@3456@@Z+98
	DD	01H
	DD	imagerel ?FormatInternally@Formatter@DecimalFromatter@Internal@Core@Math@Palmtree@@MEAAXPEAU__tag_NUMBER_HEADER@3456@PEAVStringWriter@3456@@Z+279
	DD	00H
	DD	imagerel ?FormatInternally@Formatter@DecimalFromatter@Internal@Core@Math@Palmtree@@MEAAXPEAU__tag_NUMBER_HEADER@3456@PEAVStringWriter@3456@@Z+529
	DD	0ffffffffH
	DD	imagerel ?FormatInternally@Formatter@DecimalFromatter@Internal@Core@Math@Palmtree@@MEAAXPEAU__tag_NUMBER_HEADER@3456@PEAVStringWriter@3456@@Z+565
	DD	00H
xdata	ENDS
;	COMDAT xdata
xdata	SEGMENT
$stateUnwindMap$?FormatInternally@Formatter@DecimalFromatter@Internal@Core@Math@Palmtree@@MEAAXPEAU__tag_NUMBER_HEADER@3456@PEAVStringWriter@3456@@Z DD 0ffffffffH
	DD	imagerel ?dtor$0@?0??FormatInternally@Formatter@DecimalFromatter@Internal@Core@Math@Palmtree@@MEAAXPEAU__tag_NUMBER_HEADER@3456@PEAVStringWriter@3456@@Z@4HA
	DD	00H
	DD	imagerel ?dtor$1@?0??FormatInternally@Formatter@DecimalFromatter@Internal@Core@Math@Palmtree@@MEAAXPEAU__tag_NUMBER_HEADER@3456@PEAVStringWriter@3456@@Z@4HA
xdata	ENDS
;	COMDAT CONST
CONST	SEGMENT
$cppxdata$?FormatInternally@Formatter@DecimalFromatter@Internal@Core@Math@Palmtree@@MEAAXPEAU__tag_NUMBER_HEADER@3456@PEAVStringWriter@3456@@Z DD 019930522H
	DD	02H
	DD	imagerel $stateUnwindMap$?FormatInternally@Formatter@DecimalFromatter@Internal@Core@Math@Palmtree@@MEAAXPEAU__tag_NUMBER_HEADER@3456@PEAVStringWriter@3456@@Z
	DD	00H
	DD	00H
	DD	06H
	DD	imagerel $ip2state$?FormatInternally@Formatter@DecimalFromatter@Internal@Core@Math@Palmtree@@MEAAXPEAU__tag_NUMBER_HEADER@3456@PEAVStringWriter@3456@@Z
	DD	098H
	DD	00H
	DD	00H
CONST	ENDS
;	COMDAT xdata
xdata	SEGMENT
$unwind$?FormatInternally@Formatter@DecimalFromatter@Internal@Core@Math@Palmtree@@MEAAXPEAU__tag_NUMBER_HEADER@3456@PEAVStringWriter@3456@@Z DD 0b2c11H
	DD	025342cH
	DD	01a011cH
	DD	0e00ef010H
	DD	0c00ad00cH
	DD	060077008H
	DD	05006H
	DD	imagerel __CxxFrameHandler3
	DD	imagerel $cppxdata$?FormatInternally@Formatter@DecimalFromatter@Internal@Core@Math@Palmtree@@MEAAXPEAU__tag_NUMBER_HEADER@3456@PEAVStringWriter@3456@@Z
xdata	ENDS
;	COMDAT xdata
xdata	SEGMENT
$unwind$?Format@Formatter@DecimalFromatter@Internal@Core@Math@Palmtree@@QEAAXDPEAU__tag_NUMBER_HEADER@3456@PEAVStringWriter@3456@@Z DD 081401H
	DD	0e6414H
	DD	0d5414H
	DD	0c3414H
	DD	070109214H
xdata	ENDS
;	COMDAT xdata
xdata	SEGMENT
$unwind$?Write@ThousandSeparatedStringWriter@DecimalFromatter@Internal@Core@Math@Palmtree@@UEAAXPEB_W@Z DD 040a01H
	DD	06340aH
	DD	07006320aH
xdata	ENDS
;	COMDAT xdata
xdata	SEGMENT
$unwind$?Write@ThousandSeparatedStringWriter@DecimalFromatter@Internal@Core@Math@Palmtree@@UEAAX_W@Z DD 040a01H
	DD	06340aH
	DD	07006320aH
xdata	ENDS
;	COMDAT xdata
xdata	SEGMENT
$ip2state$?get_x_times_of_exponent_of_10@DecimalFromatter@Internal@Core@Math@Palmtree@@YAPEAU__tag_NUMBER_HEADER@2345@I_K@Z DD imagerel ?get_x_times_of_exponent_of_10@DecimalFromatter@Internal@Core@Math@Palmtree@@YAPEAU__tag_NUMBER_HEADER@2345@I_K@Z
	DD	0ffffffffH
	DD	imagerel ?get_x_times_of_exponent_of_10@DecimalFromatter@Internal@Core@Math@Palmtree@@YAPEAU__tag_NUMBER_HEADER@2345@I_K@Z+41
	DD	00H
	DD	imagerel ?get_x_times_of_exponent_of_10@DecimalFromatter@Internal@Core@Math@Palmtree@@YAPEAU__tag_NUMBER_HEADER@2345@I_K@Z+107
	DD	0ffffffffH
xdata	ENDS
;	COMDAT xdata
xdata	SEGMENT
$stateUnwindMap$?get_x_times_of_exponent_of_10@DecimalFromatter@Internal@Core@Math@Palmtree@@YAPEAU__tag_NUMBER_HEADER@2345@I_K@Z DD 0ffffffffH
	DD	imagerel ?dtor$0@?0??get_x_times_of_exponent_of_10@DecimalFromatter@Internal@Core@Math@Palmtree@@YAPEAU__tag_NUMBER_HEADER@2345@I_K@Z@4HA
xdata	ENDS
;	COMDAT CONST
CONST	SEGMENT
$cppxdata$?get_x_times_of_exponent_of_10@DecimalFromatter@Internal@Core@Math@Palmtree@@YAPEAU__tag_NUMBER_HEADER@2345@I_K@Z DD 019930522H
	DD	01H
	DD	imagerel $stateUnwindMap$?get_x_times_of_exponent_of_10@DecimalFromatter@Internal@Core@Math@Palmtree@@YAPEAU__tag_NUMBER_HEADER@2345@I_K@Z
	DD	00H
	DD	00H
	DD	03H
	DD	imagerel $ip2state$?get_x_times_of_exponent_of_10@DecimalFromatter@Internal@Core@Math@Palmtree@@YAPEAU__tag_NUMBER_HEADER@2345@I_K@Z
	DD	020H
	DD	00H
	DD	00H
CONST	ENDS
;	COMDAT xdata
xdata	SEGMENT
$unwind$?get_x_times_of_exponent_of_10@DecimalFromatter@Internal@Core@Math@Palmtree@@YAPEAU__tag_NUMBER_HEADER@2345@I_K@Z DD 061911H
	DD	0d6419H
	DD	0c3414H
	DD	070029206H
	DD	imagerel __CxxFrameHandler3
	DD	imagerel $cppxdata$?get_x_times_of_exponent_of_10@DecimalFromatter@Internal@Core@Math@Palmtree@@YAPEAU__tag_NUMBER_HEADER@2345@I_K@Z
xdata	ENDS
;	COMDAT xdata
xdata	SEGMENT
$ip2state$?get_digit_count_as_decimal@DecimalFromatter@Internal@Core@Math@Palmtree@@YAIPEA_K_K@Z DD imagerel ?get_digit_count_as_decimal@DecimalFromatter@Internal@Core@Math@Palmtree@@YAIPEA_K_K@Z
	DD	0ffffffffH
	DD	imagerel ?get_digit_count_as_decimal@DecimalFromatter@Internal@Core@Math@Palmtree@@YAIPEA_K_K@Z+43
	DD	00H
	DD	imagerel ?get_digit_count_as_decimal@DecimalFromatter@Internal@Core@Math@Palmtree@@YAIPEA_K_K@Z+128
	DD	0ffffffffH
	DD	imagerel ?get_digit_count_as_decimal@DecimalFromatter@Internal@Core@Math@Palmtree@@YAIPEA_K_K@Z+161
	DD	00H
xdata	ENDS
;	COMDAT xdata
xdata	SEGMENT
$stateUnwindMap$?get_digit_count_as_decimal@DecimalFromatter@Internal@Core@Math@Palmtree@@YAIPEA_K_K@Z DD 0ffffffffH
	DD	imagerel ?dtor$0@?0??get_digit_count_as_decimal@DecimalFromatter@Internal@Core@Math@Palmtree@@YAIPEA_K_K@Z@4HA
xdata	ENDS
;	COMDAT CONST
CONST	SEGMENT
$cppxdata$?get_digit_count_as_decimal@DecimalFromatter@Internal@Core@Math@Palmtree@@YAIPEA_K_K@Z DD 019930522H
	DD	01H
	DD	imagerel $stateUnwindMap$?get_digit_count_as_decimal@DecimalFromatter@Internal@Core@Math@Palmtree@@YAIPEA_K_K@Z
	DD	00H
	DD	00H
	DD	04H
	DD	imagerel $ip2state$?get_digit_count_as_decimal@DecimalFromatter@Internal@Core@Math@Palmtree@@YAIPEA_K_K@Z
	DD	030H
	DD	00H
	DD	00H
CONST	ENDS
;	COMDAT xdata
xdata	SEGMENT
$unwind$?get_digit_count_as_decimal@DecimalFromatter@Internal@Core@Math@Palmtree@@YAIPEA_K_K@Z DD 081b11H
	DD	012541bH
	DD	0103417H
	DD	0e007b20bH
	DD	060047005H
	DD	imagerel __CxxFrameHandler3
	DD	imagerel $cppxdata$?get_digit_count_as_decimal@DecimalFromatter@Internal@Core@Math@Palmtree@@YAIPEA_K_K@Z
xdata	ENDS
;	COMDAT xdata
xdata	SEGMENT
$unwind$_COPY_MEMORY_UNIT DD 040a01H
	DD	02740aH
	DD	016405H
xdata	ENDS
;	COMDAT xdata
xdata	SEGMENT
$unwind$?PMC_ToString@Internal@Core@Math@Palmtree@@YA_KPEAU__tag_PMC_HANDLE_UINT@1234@PEB_WPEBU__tag_PMC_NUMBER_FORMAT_INFO@1234@PEA_W_K@Z DD 081401H
	DD	0106414H
	DD	0f5414H
	DD	0e3414H
	DD	07010b214H
xdata	ENDS
;	COMDAT xdata
xdata	SEGMENT
$unwind$?Initialize_ToString@Internal@Core@Math@Palmtree@@YAHPEAU_tag_PROCESSOR_FEATURES@1234@@Z DD 010401H
	DD	04204H
xdata	ENDS
;	COMDAT xdata
xdata	SEGMENT
$unwind$?InitializeNumberFormatoInfo@Internal@Core@Math@Palmtree@@YAXPEAU__tag_PMC_NUMBER_FORMAT_INFO@1234@@Z DD 040a01H
	DD	06340aH
	DD	07006320aH
xdata	ENDS
;	COMDAT xdata
xdata	SEGMENT
$unwind$?Write@ReverseStringWriter@Internal@Core@Math@Palmtree@@UEAAXPEB_W@Z DD 060f01H
	DD	07640fH
	DD	06340fH
	DD	0700b320fH
xdata	ENDS
;	COMDAT xdata
xdata	SEGMENT
$unwind$?Write@ReverseStringWriter@Internal@Core@Math@Palmtree@@UEAAX_W@Z DD 010401H
	DD	0a204H
xdata	ENDS
;	COMDAT xdata
xdata	SEGMENT
$unwind$??0ReverseStringWriter@Internal@Core@Math@Palmtree@@QEAA@PEA_W_K@Z DD 010401H
	DD	0a204H
xdata	ENDS
;	COMDAT xdata
xdata	SEGMENT
$unwind$?Write@StringWriter@Internal@Core@Math@Palmtree@@UEAAXPEB_W@Z DD 040a01H
	DD	06340aH
	DD	07006320aH
xdata	ENDS
;	COMDAT xdata
xdata	SEGMENT
$unwind$?Write@StringWriter@Internal@Core@Math@Palmtree@@QEAAX_W_K@Z DD 061401H
	DD	076414H
	DD	063414H
	DD	070103214H
xdata	ENDS
;	COMDAT xdata
xdata	SEGMENT
$unwind$?Write@StringWriter@Internal@Core@Math@Palmtree@@UEAAX_W@Z DD 010401H
	DD	0a204H
xdata	ENDS
;	COMDAT xdata
xdata	SEGMENT
$unwind$?SkipString@ReverseStringReader@Internal@Core@Math@Palmtree@@UEAAXPEB_W@Z DD 020601H
	DD	030029206H
xdata	ENDS
;	COMDAT xdata
xdata	SEGMENT
$unwind$?Progress@ReverseStringReader@Internal@Core@Math@Palmtree@@UEAAXXZ DD 010401H
	DD	0a204H
xdata	ENDS
;	COMDAT xdata
xdata	SEGMENT
$unwind$??0ReverseStringReader@Internal@Core@Math@Palmtree@@QEAA@PEB_W@Z DD 040a01H
	DD	06340aH
	DD	07006320aH
xdata	ENDS
;	COMDAT xdata
xdata	SEGMENT
$unwind$?SkipString@StringReader@Internal@Core@Math@Palmtree@@UEAAXPEB_W@Z DD 020601H
	DD	030029206H
xdata	ENDS
;	COMDAT xdata
xdata	SEGMENT
$unwind$?Progress@StringReader@Internal@Core@Math@Palmtree@@UEAAXXZ DD 010401H
	DD	0a204H
xdata	ENDS
;	COMDAT xdata
xdata	SEGMENT
$unwind$?ReadChar@StringReader@Internal@Core@Math@Palmtree@@QEAA_W_W@Z DD 060f01H
	DD	07640fH
	DD	06340fH
	DD	0700b320fH
xdata	ENDS
;	COMDAT xdata
xdata	SEGMENT
$unwind$?ReadChar@StringReader@Internal@Core@Math@Palmtree@@QEAA_WXZ DD 040a01H
	DD	06340aH
	DD	07006320aH
xdata	ENDS
;	COMDAT xdata
xdata	SEGMENT
$ip2state$??_GInternalErrorException@Internal@Core@Math@Palmtree@@UEAAPEAXI@Z DD imagerel ??_GInternalErrorException@Internal@Core@Math@Palmtree@@UEAAPEAXI@Z
	DD	0ffffffffH
xdata	ENDS
;	COMDAT xdata
xdata	SEGMENT
$stateUnwindMap$??_GInternalErrorException@Internal@Core@Math@Palmtree@@UEAAPEAXI@Z DD 0ffffffffH
	DD	imagerel ?dtor$0@?0???_GInternalErrorException@Internal@Core@Math@Palmtree@@UEAAPEAXI@Z@4HA
	DD	0ffffffffH
	DD	imagerel ?dtor$1@?0???_GInternalErrorException@Internal@Core@Math@Palmtree@@UEAAPEAXI@Z@4HA
xdata	ENDS
;	COMDAT CONST
CONST	SEGMENT
$cppxdata$??_GInternalErrorException@Internal@Core@Math@Palmtree@@UEAAPEAXI@Z DD 019930522H
	DD	02H
	DD	imagerel $stateUnwindMap$??_GInternalErrorException@Internal@Core@Math@Palmtree@@UEAAPEAXI@Z
	DD	00H
	DD	00H
	DD	01H
	DD	imagerel $ip2state$??_GInternalErrorException@Internal@Core@Math@Palmtree@@UEAAPEAXI@Z
	DD	020H
	DD	00H
	DD	04H
CONST	ENDS
;	COMDAT xdata
xdata	SEGMENT
$unwind$??_GInternalErrorException@Internal@Core@Math@Palmtree@@UEAAPEAXI@Z DD 041819H
	DD	093418H
	DD	07006520aH
	DD	imagerel __CxxFrameHandler3
	DD	imagerel $cppxdata$??_GInternalErrorException@Internal@Core@Math@Palmtree@@UEAAPEAXI@Z
xdata	ENDS
;	COMDAT xdata
xdata	SEGMENT
$ip2state$??1InternalErrorException@Internal@Core@Math@Palmtree@@UEAA@XZ DD imagerel ??1InternalErrorException@Internal@Core@Math@Palmtree@@UEAA@XZ
	DD	0ffffffffH
xdata	ENDS
;	COMDAT xdata
xdata	SEGMENT
$stateUnwindMap$??1InternalErrorException@Internal@Core@Math@Palmtree@@UEAA@XZ DD 0ffffffffH
	DD	imagerel ?dtor$0@?0???1InternalErrorException@Internal@Core@Math@Palmtree@@UEAA@XZ@4HA
	DD	0ffffffffH
	DD	imagerel ?dtor$1@?0???1InternalErrorException@Internal@Core@Math@Palmtree@@UEAA@XZ@4HA
xdata	ENDS
;	COMDAT CONST
CONST	SEGMENT
$cppxdata$??1InternalErrorException@Internal@Core@Math@Palmtree@@UEAA@XZ DD 019930522H
	DD	02H
	DD	imagerel $stateUnwindMap$??1InternalErrorException@Internal@Core@Math@Palmtree@@UEAA@XZ
	DD	00H
	DD	00H
	DD	01H
	DD	imagerel $ip2state$??1InternalErrorException@Internal@Core@Math@Palmtree@@UEAA@XZ
	DD	020H
	DD	00H
	DD	04H
CONST	ENDS
;	COMDAT xdata
xdata	SEGMENT
$unwind$??1InternalErrorException@Internal@Core@Math@Palmtree@@UEAA@XZ DD 011219H
	DD	06209H
	DD	imagerel __CxxFrameHandler3
	DD	imagerel $cppxdata$??1InternalErrorException@Internal@Core@Math@Palmtree@@UEAA@XZ
xdata	ENDS
;	COMDAT xdata
xdata	SEGMENT
$ip2state$??0InternalErrorException@Internal@Core@Math@Palmtree@@QEAA@AEBV01234@@Z DD imagerel ??0InternalErrorException@Internal@Core@Math@Palmtree@@QEAA@AEBV01234@@Z
	DD	0ffffffffH
	DD	imagerel ??0InternalErrorException@Internal@Core@Math@Palmtree@@QEAA@AEBV01234@@Z+37
	DD	00H
	DD	imagerel ??0InternalErrorException@Internal@Core@Math@Palmtree@@QEAA@AEBV01234@@Z+69
	DD	01H
	DD	imagerel ??0InternalErrorException@Internal@Core@Math@Palmtree@@QEAA@AEBV01234@@Z+79
	DD	0ffffffffH
xdata	ENDS
;	COMDAT xdata
xdata	SEGMENT
$stateUnwindMap$??0InternalErrorException@Internal@Core@Math@Palmtree@@QEAA@AEBV01234@@Z DD 0ffffffffH
	DD	imagerel ?dtor$1@?0???0InternalErrorException@Internal@Core@Math@Palmtree@@QEAA@AEBV01234@@Z@4HA
	DD	0ffffffffH
	DD	imagerel ?dtor$0@?0???0InternalErrorException@Internal@Core@Math@Palmtree@@QEAA@AEBV01234@@Z@4HA
xdata	ENDS
;	COMDAT CONST
CONST	SEGMENT
$cppxdata$??0InternalErrorException@Internal@Core@Math@Palmtree@@QEAA@AEBV01234@@Z DD 019930522H
	DD	02H
	DD	imagerel $stateUnwindMap$??0InternalErrorException@Internal@Core@Math@Palmtree@@QEAA@AEBV01234@@Z
	DD	00H
	DD	00H
	DD	04H
	DD	imagerel $ip2state$??0InternalErrorException@Internal@Core@Math@Palmtree@@QEAA@AEBV01234@@Z
	DD	00H
	DD	00H
	DD	04H
CONST	ENDS
;	COMDAT xdata
xdata	SEGMENT
$unwind$??0InternalErrorException@Internal@Core@Math@Palmtree@@QEAA@AEBV01234@@Z DD 011111H
	DD	02209H
	DD	imagerel __CxxFrameHandler3
	DD	imagerel $cppxdata$??0InternalErrorException@Internal@Core@Math@Palmtree@@QEAA@AEBV01234@@Z
xdata	ENDS
;	COMDAT xdata
xdata	SEGMENT
$ip2state$??0InternalErrorException@Internal@Core@Math@Palmtree@@QEAA@PEB_W0@Z DD imagerel ??0InternalErrorException@Internal@Core@Math@Palmtree@@QEAA@PEB_W0@Z
	DD	0ffffffffH
	DD	imagerel ??0InternalErrorException@Internal@Core@Math@Palmtree@@QEAA@PEB_W0@Z+37
	DD	00H
	DD	imagerel ??0InternalErrorException@Internal@Core@Math@Palmtree@@QEAA@PEB_W0@Z+62
	DD	01H
	DD	imagerel ??0InternalErrorException@Internal@Core@Math@Palmtree@@QEAA@PEB_W0@Z+72
	DD	0ffffffffH
xdata	ENDS
;	COMDAT xdata
xdata	SEGMENT
$stateUnwindMap$??0InternalErrorException@Internal@Core@Math@Palmtree@@QEAA@PEB_W0@Z DD 0ffffffffH
	DD	imagerel ?dtor$1@?0???0InternalErrorException@Internal@Core@Math@Palmtree@@QEAA@PEB_W0@Z@4HA
	DD	0ffffffffH
	DD	imagerel ?dtor$0@?0???0InternalErrorException@Internal@Core@Math@Palmtree@@QEAA@PEB_W0@Z@4HA
xdata	ENDS
;	COMDAT CONST
CONST	SEGMENT
$cppxdata$??0InternalErrorException@Internal@Core@Math@Palmtree@@QEAA@PEB_W0@Z DD 019930522H
	DD	02H
	DD	imagerel $stateUnwindMap$??0InternalErrorException@Internal@Core@Math@Palmtree@@QEAA@PEB_W0@Z
	DD	00H
	DD	00H
	DD	04H
	DD	imagerel $ip2state$??0InternalErrorException@Internal@Core@Math@Palmtree@@QEAA@PEB_W0@Z
	DD	00H
	DD	00H
	DD	04H
CONST	ENDS
;	COMDAT xdata
xdata	SEGMENT
$unwind$??0InternalErrorException@Internal@Core@Math@Palmtree@@QEAA@PEB_W0@Z DD 011111H
	DD	02209H
	DD	imagerel __CxxFrameHandler3
	DD	imagerel $cppxdata$??0InternalErrorException@Internal@Core@Math@Palmtree@@QEAA@PEB_W0@Z
xdata	ENDS
;	COMDAT xdata
xdata	SEGMENT
$ip2state$??_GNotSupportedException@Internal@Core@Math@Palmtree@@UEAAPEAXI@Z DD imagerel ??_GNotSupportedException@Internal@Core@Math@Palmtree@@UEAAPEAXI@Z
	DD	0ffffffffH
xdata	ENDS
;	COMDAT xdata
xdata	SEGMENT
$stateUnwindMap$??_GNotSupportedException@Internal@Core@Math@Palmtree@@UEAAPEAXI@Z DD 0ffffffffH
	DD	imagerel ?dtor$0@?0???_GNotSupportedException@Internal@Core@Math@Palmtree@@UEAAPEAXI@Z@4HA
	DD	0ffffffffH
	DD	imagerel ?dtor$1@?0???_GNotSupportedException@Internal@Core@Math@Palmtree@@UEAAPEAXI@Z@4HA
xdata	ENDS
;	COMDAT CONST
CONST	SEGMENT
$cppxdata$??_GNotSupportedException@Internal@Core@Math@Palmtree@@UEAAPEAXI@Z DD 019930522H
	DD	02H
	DD	imagerel $stateUnwindMap$??_GNotSupportedException@Internal@Core@Math@Palmtree@@UEAAPEAXI@Z
	DD	00H
	DD	00H
	DD	01H
	DD	imagerel $ip2state$??_GNotSupportedException@Internal@Core@Math@Palmtree@@UEAAPEAXI@Z
	DD	020H
	DD	00H
	DD	04H
CONST	ENDS
;	COMDAT xdata
xdata	SEGMENT
$unwind$??_GNotSupportedException@Internal@Core@Math@Palmtree@@UEAAPEAXI@Z DD 041819H
	DD	093418H
	DD	07006520aH
	DD	imagerel __CxxFrameHandler3
	DD	imagerel $cppxdata$??_GNotSupportedException@Internal@Core@Math@Palmtree@@UEAAPEAXI@Z
xdata	ENDS
;	COMDAT xdata
xdata	SEGMENT
$ip2state$??1NotSupportedException@Internal@Core@Math@Palmtree@@UEAA@XZ DD imagerel ??1NotSupportedException@Internal@Core@Math@Palmtree@@UEAA@XZ
	DD	0ffffffffH
xdata	ENDS
;	COMDAT xdata
xdata	SEGMENT
$stateUnwindMap$??1NotSupportedException@Internal@Core@Math@Palmtree@@UEAA@XZ DD 0ffffffffH
	DD	imagerel ?dtor$0@?0???1NotSupportedException@Internal@Core@Math@Palmtree@@UEAA@XZ@4HA
	DD	0ffffffffH
	DD	imagerel ?dtor$1@?0???1NotSupportedException@Internal@Core@Math@Palmtree@@UEAA@XZ@4HA
xdata	ENDS
;	COMDAT CONST
CONST	SEGMENT
$cppxdata$??1NotSupportedException@Internal@Core@Math@Palmtree@@UEAA@XZ DD 019930522H
	DD	02H
	DD	imagerel $stateUnwindMap$??1NotSupportedException@Internal@Core@Math@Palmtree@@UEAA@XZ
	DD	00H
	DD	00H
	DD	01H
	DD	imagerel $ip2state$??1NotSupportedException@Internal@Core@Math@Palmtree@@UEAA@XZ
	DD	020H
	DD	00H
	DD	04H
CONST	ENDS
;	COMDAT xdata
xdata	SEGMENT
$unwind$??1NotSupportedException@Internal@Core@Math@Palmtree@@UEAA@XZ DD 011219H
	DD	06209H
	DD	imagerel __CxxFrameHandler3
	DD	imagerel $cppxdata$??1NotSupportedException@Internal@Core@Math@Palmtree@@UEAA@XZ
xdata	ENDS
;	COMDAT xdata
xdata	SEGMENT
$ip2state$??0NotSupportedException@Internal@Core@Math@Palmtree@@QEAA@AEBV01234@@Z DD imagerel ??0NotSupportedException@Internal@Core@Math@Palmtree@@QEAA@AEBV01234@@Z
	DD	0ffffffffH
	DD	imagerel ??0NotSupportedException@Internal@Core@Math@Palmtree@@QEAA@AEBV01234@@Z+37
	DD	00H
	DD	imagerel ??0NotSupportedException@Internal@Core@Math@Palmtree@@QEAA@AEBV01234@@Z+69
	DD	01H
	DD	imagerel ??0NotSupportedException@Internal@Core@Math@Palmtree@@QEAA@AEBV01234@@Z+79
	DD	0ffffffffH
xdata	ENDS
;	COMDAT xdata
xdata	SEGMENT
$stateUnwindMap$??0NotSupportedException@Internal@Core@Math@Palmtree@@QEAA@AEBV01234@@Z DD 0ffffffffH
	DD	imagerel ?dtor$1@?0???0NotSupportedException@Internal@Core@Math@Palmtree@@QEAA@AEBV01234@@Z@4HA
	DD	0ffffffffH
	DD	imagerel ?dtor$0@?0???0NotSupportedException@Internal@Core@Math@Palmtree@@QEAA@AEBV01234@@Z@4HA
xdata	ENDS
;	COMDAT CONST
CONST	SEGMENT
$cppxdata$??0NotSupportedException@Internal@Core@Math@Palmtree@@QEAA@AEBV01234@@Z DD 019930522H
	DD	02H
	DD	imagerel $stateUnwindMap$??0NotSupportedException@Internal@Core@Math@Palmtree@@QEAA@AEBV01234@@Z
	DD	00H
	DD	00H
	DD	04H
	DD	imagerel $ip2state$??0NotSupportedException@Internal@Core@Math@Palmtree@@QEAA@AEBV01234@@Z
	DD	00H
	DD	00H
	DD	04H
CONST	ENDS
;	COMDAT xdata
xdata	SEGMENT
$unwind$??0NotSupportedException@Internal@Core@Math@Palmtree@@QEAA@AEBV01234@@Z DD 011111H
	DD	02209H
	DD	imagerel __CxxFrameHandler3
	DD	imagerel $cppxdata$??0NotSupportedException@Internal@Core@Math@Palmtree@@QEAA@AEBV01234@@Z
xdata	ENDS
;	COMDAT xdata
xdata	SEGMENT
$ip2state$??0NotSupportedException@Internal@Core@Math@Palmtree@@QEAA@PEB_W@Z DD imagerel ??0NotSupportedException@Internal@Core@Math@Palmtree@@QEAA@PEB_W@Z
	DD	0ffffffffH
	DD	imagerel ??0NotSupportedException@Internal@Core@Math@Palmtree@@QEAA@PEB_W@Z+37
	DD	00H
	DD	imagerel ??0NotSupportedException@Internal@Core@Math@Palmtree@@QEAA@PEB_W@Z+66
	DD	01H
	DD	imagerel ??0NotSupportedException@Internal@Core@Math@Palmtree@@QEAA@PEB_W@Z+76
	DD	0ffffffffH
xdata	ENDS
;	COMDAT xdata
xdata	SEGMENT
$stateUnwindMap$??0NotSupportedException@Internal@Core@Math@Palmtree@@QEAA@PEB_W@Z DD 0ffffffffH
	DD	imagerel ?dtor$1@?0???0NotSupportedException@Internal@Core@Math@Palmtree@@QEAA@PEB_W@Z@4HA
	DD	0ffffffffH
	DD	imagerel ?dtor$0@?0???0NotSupportedException@Internal@Core@Math@Palmtree@@QEAA@PEB_W@Z@4HA
xdata	ENDS
;	COMDAT CONST
CONST	SEGMENT
$cppxdata$??0NotSupportedException@Internal@Core@Math@Palmtree@@QEAA@PEB_W@Z DD 019930522H
	DD	02H
	DD	imagerel $stateUnwindMap$??0NotSupportedException@Internal@Core@Math@Palmtree@@QEAA@PEB_W@Z
	DD	00H
	DD	00H
	DD	04H
	DD	imagerel $ip2state$??0NotSupportedException@Internal@Core@Math@Palmtree@@QEAA@PEB_W@Z
	DD	00H
	DD	00H
	DD	04H
CONST	ENDS
;	COMDAT xdata
xdata	SEGMENT
$unwind$??0NotSupportedException@Internal@Core@Math@Palmtree@@QEAA@PEB_W@Z DD 011111H
	DD	02209H
	DD	imagerel __CxxFrameHandler3
	DD	imagerel $cppxdata$??0NotSupportedException@Internal@Core@Math@Palmtree@@QEAA@PEB_W@Z
xdata	ENDS
;	COMDAT xdata
xdata	SEGMENT
$ip2state$??_GInsufficientBufferException@Internal@Core@Math@Palmtree@@UEAAPEAXI@Z DD imagerel ??_GInsufficientBufferException@Internal@Core@Math@Palmtree@@UEAAPEAXI@Z
	DD	0ffffffffH
xdata	ENDS
;	COMDAT xdata
xdata	SEGMENT
$stateUnwindMap$??_GInsufficientBufferException@Internal@Core@Math@Palmtree@@UEAAPEAXI@Z DD 0ffffffffH
	DD	imagerel ?dtor$0@?0???_GInsufficientBufferException@Internal@Core@Math@Palmtree@@UEAAPEAXI@Z@4HA
	DD	0ffffffffH
	DD	imagerel ?dtor$1@?0???_GInsufficientBufferException@Internal@Core@Math@Palmtree@@UEAAPEAXI@Z@4HA
xdata	ENDS
;	COMDAT CONST
CONST	SEGMENT
$cppxdata$??_GInsufficientBufferException@Internal@Core@Math@Palmtree@@UEAAPEAXI@Z DD 019930522H
	DD	02H
	DD	imagerel $stateUnwindMap$??_GInsufficientBufferException@Internal@Core@Math@Palmtree@@UEAAPEAXI@Z
	DD	00H
	DD	00H
	DD	01H
	DD	imagerel $ip2state$??_GInsufficientBufferException@Internal@Core@Math@Palmtree@@UEAAPEAXI@Z
	DD	020H
	DD	00H
	DD	04H
CONST	ENDS
;	COMDAT xdata
xdata	SEGMENT
$unwind$??_GInsufficientBufferException@Internal@Core@Math@Palmtree@@UEAAPEAXI@Z DD 041819H
	DD	093418H
	DD	07006520aH
	DD	imagerel __CxxFrameHandler3
	DD	imagerel $cppxdata$??_GInsufficientBufferException@Internal@Core@Math@Palmtree@@UEAAPEAXI@Z
xdata	ENDS
;	COMDAT xdata
xdata	SEGMENT
$ip2state$??1InsufficientBufferException@Internal@Core@Math@Palmtree@@UEAA@XZ DD imagerel ??1InsufficientBufferException@Internal@Core@Math@Palmtree@@UEAA@XZ
	DD	0ffffffffH
xdata	ENDS
;	COMDAT xdata
xdata	SEGMENT
$stateUnwindMap$??1InsufficientBufferException@Internal@Core@Math@Palmtree@@UEAA@XZ DD 0ffffffffH
	DD	imagerel ?dtor$0@?0???1InsufficientBufferException@Internal@Core@Math@Palmtree@@UEAA@XZ@4HA
	DD	0ffffffffH
	DD	imagerel ?dtor$1@?0???1InsufficientBufferException@Internal@Core@Math@Palmtree@@UEAA@XZ@4HA
xdata	ENDS
;	COMDAT CONST
CONST	SEGMENT
$cppxdata$??1InsufficientBufferException@Internal@Core@Math@Palmtree@@UEAA@XZ DD 019930522H
	DD	02H
	DD	imagerel $stateUnwindMap$??1InsufficientBufferException@Internal@Core@Math@Palmtree@@UEAA@XZ
	DD	00H
	DD	00H
	DD	01H
	DD	imagerel $ip2state$??1InsufficientBufferException@Internal@Core@Math@Palmtree@@UEAA@XZ
	DD	020H
	DD	00H
	DD	04H
CONST	ENDS
;	COMDAT xdata
xdata	SEGMENT
$unwind$??1InsufficientBufferException@Internal@Core@Math@Palmtree@@UEAA@XZ DD 011219H
	DD	06209H
	DD	imagerel __CxxFrameHandler3
	DD	imagerel $cppxdata$??1InsufficientBufferException@Internal@Core@Math@Palmtree@@UEAA@XZ
xdata	ENDS
;	COMDAT xdata
xdata	SEGMENT
$ip2state$??0InsufficientBufferException@Internal@Core@Math@Palmtree@@QEAA@AEBV01234@@Z DD imagerel ??0InsufficientBufferException@Internal@Core@Math@Palmtree@@QEAA@AEBV01234@@Z
	DD	0ffffffffH
	DD	imagerel ??0InsufficientBufferException@Internal@Core@Math@Palmtree@@QEAA@AEBV01234@@Z+37
	DD	00H
	DD	imagerel ??0InsufficientBufferException@Internal@Core@Math@Palmtree@@QEAA@AEBV01234@@Z+69
	DD	01H
	DD	imagerel ??0InsufficientBufferException@Internal@Core@Math@Palmtree@@QEAA@AEBV01234@@Z+79
	DD	0ffffffffH
xdata	ENDS
;	COMDAT xdata
xdata	SEGMENT
$stateUnwindMap$??0InsufficientBufferException@Internal@Core@Math@Palmtree@@QEAA@AEBV01234@@Z DD 0ffffffffH
	DD	imagerel ?dtor$1@?0???0InsufficientBufferException@Internal@Core@Math@Palmtree@@QEAA@AEBV01234@@Z@4HA
	DD	0ffffffffH
	DD	imagerel ?dtor$0@?0???0InsufficientBufferException@Internal@Core@Math@Palmtree@@QEAA@AEBV01234@@Z@4HA
xdata	ENDS
;	COMDAT CONST
CONST	SEGMENT
$cppxdata$??0InsufficientBufferException@Internal@Core@Math@Palmtree@@QEAA@AEBV01234@@Z DD 019930522H
	DD	02H
	DD	imagerel $stateUnwindMap$??0InsufficientBufferException@Internal@Core@Math@Palmtree@@QEAA@AEBV01234@@Z
	DD	00H
	DD	00H
	DD	04H
	DD	imagerel $ip2state$??0InsufficientBufferException@Internal@Core@Math@Palmtree@@QEAA@AEBV01234@@Z
	DD	00H
	DD	00H
	DD	04H
CONST	ENDS
;	COMDAT xdata
xdata	SEGMENT
$unwind$??0InsufficientBufferException@Internal@Core@Math@Palmtree@@QEAA@AEBV01234@@Z DD 011111H
	DD	02209H
	DD	imagerel __CxxFrameHandler3
	DD	imagerel $cppxdata$??0InsufficientBufferException@Internal@Core@Math@Palmtree@@QEAA@AEBV01234@@Z
xdata	ENDS
;	COMDAT xdata
xdata	SEGMENT
$ip2state$??0InsufficientBufferException@Internal@Core@Math@Palmtree@@QEAA@PEB_W@Z DD imagerel ??0InsufficientBufferException@Internal@Core@Math@Palmtree@@QEAA@PEB_W@Z
	DD	0ffffffffH
	DD	imagerel ??0InsufficientBufferException@Internal@Core@Math@Palmtree@@QEAA@PEB_W@Z+37
	DD	00H
	DD	imagerel ??0InsufficientBufferException@Internal@Core@Math@Palmtree@@QEAA@PEB_W@Z+66
	DD	01H
	DD	imagerel ??0InsufficientBufferException@Internal@Core@Math@Palmtree@@QEAA@PEB_W@Z+76
	DD	0ffffffffH
xdata	ENDS
;	COMDAT xdata
xdata	SEGMENT
$stateUnwindMap$??0InsufficientBufferException@Internal@Core@Math@Palmtree@@QEAA@PEB_W@Z DD 0ffffffffH
	DD	imagerel ?dtor$1@?0???0InsufficientBufferException@Internal@Core@Math@Palmtree@@QEAA@PEB_W@Z@4HA
	DD	0ffffffffH
	DD	imagerel ?dtor$0@?0???0InsufficientBufferException@Internal@Core@Math@Palmtree@@QEAA@PEB_W@Z@4HA
xdata	ENDS
;	COMDAT CONST
CONST	SEGMENT
$cppxdata$??0InsufficientBufferException@Internal@Core@Math@Palmtree@@QEAA@PEB_W@Z DD 019930522H
	DD	02H
	DD	imagerel $stateUnwindMap$??0InsufficientBufferException@Internal@Core@Math@Palmtree@@QEAA@PEB_W@Z
	DD	00H
	DD	00H
	DD	04H
	DD	imagerel $ip2state$??0InsufficientBufferException@Internal@Core@Math@Palmtree@@QEAA@PEB_W@Z
	DD	00H
	DD	00H
	DD	00H
CONST	ENDS
;	COMDAT xdata
xdata	SEGMENT
$unwind$??0InsufficientBufferException@Internal@Core@Math@Palmtree@@QEAA@PEB_W@Z DD 011111H
	DD	02209H
	DD	imagerel __CxxFrameHandler3
	DD	imagerel $cppxdata$??0InsufficientBufferException@Internal@Core@Math@Palmtree@@QEAA@PEB_W@Z
xdata	ENDS
;	COMDAT xdata
xdata	SEGMENT
$ip2state$??_GFormatException@Internal@Core@Math@Palmtree@@UEAAPEAXI@Z DD imagerel ??_GFormatException@Internal@Core@Math@Palmtree@@UEAAPEAXI@Z
	DD	0ffffffffH
xdata	ENDS
;	COMDAT xdata
xdata	SEGMENT
$stateUnwindMap$??_GFormatException@Internal@Core@Math@Palmtree@@UEAAPEAXI@Z DD 0ffffffffH
	DD	imagerel ?dtor$0@?0???_GFormatException@Internal@Core@Math@Palmtree@@UEAAPEAXI@Z@4HA
	DD	0ffffffffH
	DD	imagerel ?dtor$1@?0???_GFormatException@Internal@Core@Math@Palmtree@@UEAAPEAXI@Z@4HA
xdata	ENDS
;	COMDAT CONST
CONST	SEGMENT
$cppxdata$??_GFormatException@Internal@Core@Math@Palmtree@@UEAAPEAXI@Z DD 019930522H
	DD	02H
	DD	imagerel $stateUnwindMap$??_GFormatException@Internal@Core@Math@Palmtree@@UEAAPEAXI@Z
	DD	00H
	DD	00H
	DD	01H
	DD	imagerel $ip2state$??_GFormatException@Internal@Core@Math@Palmtree@@UEAAPEAXI@Z
	DD	020H
	DD	00H
	DD	04H
CONST	ENDS
;	COMDAT xdata
xdata	SEGMENT
$unwind$??_GFormatException@Internal@Core@Math@Palmtree@@UEAAPEAXI@Z DD 041819H
	DD	093418H
	DD	07006520aH
	DD	imagerel __CxxFrameHandler3
	DD	imagerel $cppxdata$??_GFormatException@Internal@Core@Math@Palmtree@@UEAAPEAXI@Z
xdata	ENDS
;	COMDAT xdata
xdata	SEGMENT
$ip2state$??1FormatException@Internal@Core@Math@Palmtree@@UEAA@XZ DD imagerel ??1FormatException@Internal@Core@Math@Palmtree@@UEAA@XZ
	DD	0ffffffffH
xdata	ENDS
;	COMDAT xdata
xdata	SEGMENT
$stateUnwindMap$??1FormatException@Internal@Core@Math@Palmtree@@UEAA@XZ DD 0ffffffffH
	DD	imagerel ?dtor$0@?0???1FormatException@Internal@Core@Math@Palmtree@@UEAA@XZ@4HA
	DD	0ffffffffH
	DD	imagerel ?dtor$1@?0???1FormatException@Internal@Core@Math@Palmtree@@UEAA@XZ@4HA
xdata	ENDS
;	COMDAT CONST
CONST	SEGMENT
$cppxdata$??1FormatException@Internal@Core@Math@Palmtree@@UEAA@XZ DD 019930522H
	DD	02H
	DD	imagerel $stateUnwindMap$??1FormatException@Internal@Core@Math@Palmtree@@UEAA@XZ
	DD	00H
	DD	00H
	DD	01H
	DD	imagerel $ip2state$??1FormatException@Internal@Core@Math@Palmtree@@UEAA@XZ
	DD	020H
	DD	00H
	DD	04H
CONST	ENDS
;	COMDAT xdata
xdata	SEGMENT
$unwind$??1FormatException@Internal@Core@Math@Palmtree@@UEAA@XZ DD 011219H
	DD	06209H
	DD	imagerel __CxxFrameHandler3
	DD	imagerel $cppxdata$??1FormatException@Internal@Core@Math@Palmtree@@UEAA@XZ
xdata	ENDS
;	COMDAT xdata
xdata	SEGMENT
$ip2state$??0FormatException@Internal@Core@Math@Palmtree@@QEAA@AEBV01234@@Z DD imagerel ??0FormatException@Internal@Core@Math@Palmtree@@QEAA@AEBV01234@@Z
	DD	0ffffffffH
	DD	imagerel ??0FormatException@Internal@Core@Math@Palmtree@@QEAA@AEBV01234@@Z+37
	DD	00H
	DD	imagerel ??0FormatException@Internal@Core@Math@Palmtree@@QEAA@AEBV01234@@Z+69
	DD	01H
	DD	imagerel ??0FormatException@Internal@Core@Math@Palmtree@@QEAA@AEBV01234@@Z+79
	DD	0ffffffffH
xdata	ENDS
;	COMDAT xdata
xdata	SEGMENT
$stateUnwindMap$??0FormatException@Internal@Core@Math@Palmtree@@QEAA@AEBV01234@@Z DD 0ffffffffH
	DD	imagerel ?dtor$1@?0???0FormatException@Internal@Core@Math@Palmtree@@QEAA@AEBV01234@@Z@4HA
	DD	0ffffffffH
	DD	imagerel ?dtor$0@?0???0FormatException@Internal@Core@Math@Palmtree@@QEAA@AEBV01234@@Z@4HA
xdata	ENDS
;	COMDAT CONST
CONST	SEGMENT
$cppxdata$??0FormatException@Internal@Core@Math@Palmtree@@QEAA@AEBV01234@@Z DD 019930522H
	DD	02H
	DD	imagerel $stateUnwindMap$??0FormatException@Internal@Core@Math@Palmtree@@QEAA@AEBV01234@@Z
	DD	00H
	DD	00H
	DD	04H
	DD	imagerel $ip2state$??0FormatException@Internal@Core@Math@Palmtree@@QEAA@AEBV01234@@Z
	DD	00H
	DD	00H
	DD	04H
CONST	ENDS
;	COMDAT xdata
xdata	SEGMENT
$unwind$??0FormatException@Internal@Core@Math@Palmtree@@QEAA@AEBV01234@@Z DD 011111H
	DD	02209H
	DD	imagerel __CxxFrameHandler3
	DD	imagerel $cppxdata$??0FormatException@Internal@Core@Math@Palmtree@@QEAA@AEBV01234@@Z
xdata	ENDS
;	COMDAT xdata
xdata	SEGMENT
$ip2state$??0FormatException@Internal@Core@Math@Palmtree@@QEAA@PEB_W@Z DD imagerel ??0FormatException@Internal@Core@Math@Palmtree@@QEAA@PEB_W@Z
	DD	0ffffffffH
	DD	imagerel ??0FormatException@Internal@Core@Math@Palmtree@@QEAA@PEB_W@Z+37
	DD	00H
	DD	imagerel ??0FormatException@Internal@Core@Math@Palmtree@@QEAA@PEB_W@Z+66
	DD	01H
	DD	imagerel ??0FormatException@Internal@Core@Math@Palmtree@@QEAA@PEB_W@Z+76
	DD	0ffffffffH
xdata	ENDS
;	COMDAT xdata
xdata	SEGMENT
$stateUnwindMap$??0FormatException@Internal@Core@Math@Palmtree@@QEAA@PEB_W@Z DD 0ffffffffH
	DD	imagerel ?dtor$1@?0???0FormatException@Internal@Core@Math@Palmtree@@QEAA@PEB_W@Z@4HA
	DD	0ffffffffH
	DD	imagerel ?dtor$0@?0???0FormatException@Internal@Core@Math@Palmtree@@QEAA@PEB_W@Z@4HA
xdata	ENDS
;	COMDAT CONST
CONST	SEGMENT
$cppxdata$??0FormatException@Internal@Core@Math@Palmtree@@QEAA@PEB_W@Z DD 019930522H
	DD	02H
	DD	imagerel $stateUnwindMap$??0FormatException@Internal@Core@Math@Palmtree@@QEAA@PEB_W@Z
	DD	00H
	DD	00H
	DD	04H
	DD	imagerel $ip2state$??0FormatException@Internal@Core@Math@Palmtree@@QEAA@PEB_W@Z
	DD	00H
	DD	00H
	DD	04H
CONST	ENDS
;	COMDAT xdata
xdata	SEGMENT
$unwind$??0FormatException@Internal@Core@Math@Palmtree@@QEAA@PEB_W@Z DD 011111H
	DD	02209H
	DD	imagerel __CxxFrameHandler3
	DD	imagerel $cppxdata$??0FormatException@Internal@Core@Math@Palmtree@@QEAA@PEB_W@Z
xdata	ENDS
;	COMDAT xdata
xdata	SEGMENT
$ip2state$??_GArgumentNullException@Internal@Core@Math@Palmtree@@UEAAPEAXI@Z DD imagerel ??_GArgumentNullException@Internal@Core@Math@Palmtree@@UEAAPEAXI@Z
	DD	0ffffffffH
xdata	ENDS
;	COMDAT xdata
xdata	SEGMENT
$stateUnwindMap$??_GArgumentNullException@Internal@Core@Math@Palmtree@@UEAAPEAXI@Z DD 0ffffffffH
	DD	imagerel ?dtor$0@?0???_GArgumentNullException@Internal@Core@Math@Palmtree@@UEAAPEAXI@Z@4HA
	DD	0ffffffffH
	DD	imagerel ?dtor$1@?0???_GArgumentNullException@Internal@Core@Math@Palmtree@@UEAAPEAXI@Z@4HA
xdata	ENDS
;	COMDAT CONST
CONST	SEGMENT
$cppxdata$??_GArgumentNullException@Internal@Core@Math@Palmtree@@UEAAPEAXI@Z DD 019930522H
	DD	02H
	DD	imagerel $stateUnwindMap$??_GArgumentNullException@Internal@Core@Math@Palmtree@@UEAAPEAXI@Z
	DD	00H
	DD	00H
	DD	01H
	DD	imagerel $ip2state$??_GArgumentNullException@Internal@Core@Math@Palmtree@@UEAAPEAXI@Z
	DD	020H
	DD	00H
	DD	04H
CONST	ENDS
;	COMDAT xdata
xdata	SEGMENT
$unwind$??_GArgumentNullException@Internal@Core@Math@Palmtree@@UEAAPEAXI@Z DD 041819H
	DD	093418H
	DD	07006520aH
	DD	imagerel __CxxFrameHandler3
	DD	imagerel $cppxdata$??_GArgumentNullException@Internal@Core@Math@Palmtree@@UEAAPEAXI@Z
xdata	ENDS
;	COMDAT xdata
xdata	SEGMENT
$ip2state$??1ArgumentNullException@Internal@Core@Math@Palmtree@@UEAA@XZ DD imagerel ??1ArgumentNullException@Internal@Core@Math@Palmtree@@UEAA@XZ
	DD	0ffffffffH
xdata	ENDS
;	COMDAT xdata
xdata	SEGMENT
$stateUnwindMap$??1ArgumentNullException@Internal@Core@Math@Palmtree@@UEAA@XZ DD 0ffffffffH
	DD	imagerel ?dtor$0@?0???1ArgumentNullException@Internal@Core@Math@Palmtree@@UEAA@XZ@4HA
	DD	0ffffffffH
	DD	imagerel ?dtor$1@?0???1ArgumentNullException@Internal@Core@Math@Palmtree@@UEAA@XZ@4HA
xdata	ENDS
;	COMDAT CONST
CONST	SEGMENT
$cppxdata$??1ArgumentNullException@Internal@Core@Math@Palmtree@@UEAA@XZ DD 019930522H
	DD	02H
	DD	imagerel $stateUnwindMap$??1ArgumentNullException@Internal@Core@Math@Palmtree@@UEAA@XZ
	DD	00H
	DD	00H
	DD	01H
	DD	imagerel $ip2state$??1ArgumentNullException@Internal@Core@Math@Palmtree@@UEAA@XZ
	DD	020H
	DD	00H
	DD	04H
CONST	ENDS
;	COMDAT xdata
xdata	SEGMENT
$unwind$??1ArgumentNullException@Internal@Core@Math@Palmtree@@UEAA@XZ DD 011219H
	DD	06209H
	DD	imagerel __CxxFrameHandler3
	DD	imagerel $cppxdata$??1ArgumentNullException@Internal@Core@Math@Palmtree@@UEAA@XZ
xdata	ENDS
;	COMDAT xdata
xdata	SEGMENT
$ip2state$??0ArgumentNullException@Internal@Core@Math@Palmtree@@QEAA@AEBV01234@@Z DD imagerel ??0ArgumentNullException@Internal@Core@Math@Palmtree@@QEAA@AEBV01234@@Z
	DD	0ffffffffH
	DD	imagerel ??0ArgumentNullException@Internal@Core@Math@Palmtree@@QEAA@AEBV01234@@Z+37
	DD	00H
	DD	imagerel ??0ArgumentNullException@Internal@Core@Math@Palmtree@@QEAA@AEBV01234@@Z+69
	DD	01H
	DD	imagerel ??0ArgumentNullException@Internal@Core@Math@Palmtree@@QEAA@AEBV01234@@Z+79
	DD	0ffffffffH
xdata	ENDS
;	COMDAT xdata
xdata	SEGMENT
$stateUnwindMap$??0ArgumentNullException@Internal@Core@Math@Palmtree@@QEAA@AEBV01234@@Z DD 0ffffffffH
	DD	imagerel ?dtor$1@?0???0ArgumentNullException@Internal@Core@Math@Palmtree@@QEAA@AEBV01234@@Z@4HA
	DD	0ffffffffH
	DD	imagerel ?dtor$0@?0???0ArgumentNullException@Internal@Core@Math@Palmtree@@QEAA@AEBV01234@@Z@4HA
xdata	ENDS
;	COMDAT CONST
CONST	SEGMENT
$cppxdata$??0ArgumentNullException@Internal@Core@Math@Palmtree@@QEAA@AEBV01234@@Z DD 019930522H
	DD	02H
	DD	imagerel $stateUnwindMap$??0ArgumentNullException@Internal@Core@Math@Palmtree@@QEAA@AEBV01234@@Z
	DD	00H
	DD	00H
	DD	04H
	DD	imagerel $ip2state$??0ArgumentNullException@Internal@Core@Math@Palmtree@@QEAA@AEBV01234@@Z
	DD	00H
	DD	00H
	DD	04H
CONST	ENDS
;	COMDAT xdata
xdata	SEGMENT
$unwind$??0ArgumentNullException@Internal@Core@Math@Palmtree@@QEAA@AEBV01234@@Z DD 011111H
	DD	02209H
	DD	imagerel __CxxFrameHandler3
	DD	imagerel $cppxdata$??0ArgumentNullException@Internal@Core@Math@Palmtree@@QEAA@AEBV01234@@Z
xdata	ENDS
;	COMDAT xdata
xdata	SEGMENT
$ip2state$??0ArgumentNullException@Internal@Core@Math@Palmtree@@QEAA@PEB_W0@Z DD imagerel ??0ArgumentNullException@Internal@Core@Math@Palmtree@@QEAA@PEB_W0@Z
	DD	0ffffffffH
	DD	imagerel ??0ArgumentNullException@Internal@Core@Math@Palmtree@@QEAA@PEB_W0@Z+37
	DD	00H
	DD	imagerel ??0ArgumentNullException@Internal@Core@Math@Palmtree@@QEAA@PEB_W0@Z+62
	DD	01H
	DD	imagerel ??0ArgumentNullException@Internal@Core@Math@Palmtree@@QEAA@PEB_W0@Z+72
	DD	0ffffffffH
xdata	ENDS
;	COMDAT xdata
xdata	SEGMENT
$stateUnwindMap$??0ArgumentNullException@Internal@Core@Math@Palmtree@@QEAA@PEB_W0@Z DD 0ffffffffH
	DD	imagerel ?dtor$1@?0???0ArgumentNullException@Internal@Core@Math@Palmtree@@QEAA@PEB_W0@Z@4HA
	DD	0ffffffffH
	DD	imagerel ?dtor$0@?0???0ArgumentNullException@Internal@Core@Math@Palmtree@@QEAA@PEB_W0@Z@4HA
xdata	ENDS
;	COMDAT CONST
CONST	SEGMENT
$cppxdata$??0ArgumentNullException@Internal@Core@Math@Palmtree@@QEAA@PEB_W0@Z DD 019930522H
	DD	02H
	DD	imagerel $stateUnwindMap$??0ArgumentNullException@Internal@Core@Math@Palmtree@@QEAA@PEB_W0@Z
	DD	00H
	DD	00H
	DD	04H
	DD	imagerel $ip2state$??0ArgumentNullException@Internal@Core@Math@Palmtree@@QEAA@PEB_W0@Z
	DD	00H
	DD	00H
	DD	04H
CONST	ENDS
;	COMDAT xdata
xdata	SEGMENT
$unwind$??0ArgumentNullException@Internal@Core@Math@Palmtree@@QEAA@PEB_W0@Z DD 011111H
	DD	02209H
	DD	imagerel __CxxFrameHandler3
	DD	imagerel $cppxdata$??0ArgumentNullException@Internal@Core@Math@Palmtree@@QEAA@PEB_W0@Z
xdata	ENDS
;	COMDAT xdata
xdata	SEGMENT
$ip2state$??_GException@Internal@Core@Math@Palmtree@@UEAAPEAXI@Z DD imagerel ??_GException@Internal@Core@Math@Palmtree@@UEAAPEAXI@Z
	DD	0ffffffffH
xdata	ENDS
;	COMDAT xdata
xdata	SEGMENT
$stateUnwindMap$??_GException@Internal@Core@Math@Palmtree@@UEAAPEAXI@Z DD 0ffffffffH
	DD	imagerel ?dtor$0@?0???_GException@Internal@Core@Math@Palmtree@@UEAAPEAXI@Z@4HA
xdata	ENDS
;	COMDAT CONST
CONST	SEGMENT
$cppxdata$??_GException@Internal@Core@Math@Palmtree@@UEAAPEAXI@Z DD 019930522H
	DD	01H
	DD	imagerel $stateUnwindMap$??_GException@Internal@Core@Math@Palmtree@@UEAAPEAXI@Z
	DD	00H
	DD	00H
	DD	01H
	DD	imagerel $ip2state$??_GException@Internal@Core@Math@Palmtree@@UEAAPEAXI@Z
	DD	020H
	DD	00H
	DD	04H
CONST	ENDS
;	COMDAT xdata
xdata	SEGMENT
$unwind$??_GException@Internal@Core@Math@Palmtree@@UEAAPEAXI@Z DD 041819H
	DD	093418H
	DD	07006520aH
	DD	imagerel __CxxFrameHandler3
	DD	imagerel $cppxdata$??_GException@Internal@Core@Math@Palmtree@@UEAAPEAXI@Z
xdata	ENDS
;	COMDAT xdata
xdata	SEGMENT
$ip2state$??1Exception@Internal@Core@Math@Palmtree@@UEAA@XZ DD imagerel ??1Exception@Internal@Core@Math@Palmtree@@UEAA@XZ
	DD	0ffffffffH
xdata	ENDS
;	COMDAT xdata
xdata	SEGMENT
$stateUnwindMap$??1Exception@Internal@Core@Math@Palmtree@@UEAA@XZ DD 0ffffffffH
	DD	imagerel ?dtor$0@?0???1Exception@Internal@Core@Math@Palmtree@@UEAA@XZ@4HA
xdata	ENDS
;	COMDAT CONST
CONST	SEGMENT
$cppxdata$??1Exception@Internal@Core@Math@Palmtree@@UEAA@XZ DD 019930522H
	DD	01H
	DD	imagerel $stateUnwindMap$??1Exception@Internal@Core@Math@Palmtree@@UEAA@XZ
	DD	00H
	DD	00H
	DD	01H
	DD	imagerel $ip2state$??1Exception@Internal@Core@Math@Palmtree@@UEAA@XZ
	DD	020H
	DD	00H
	DD	04H
CONST	ENDS
;	COMDAT xdata
xdata	SEGMENT
$unwind$??1Exception@Internal@Core@Math@Palmtree@@UEAA@XZ DD 011219H
	DD	06209H
	DD	imagerel __CxxFrameHandler3
	DD	imagerel $cppxdata$??1Exception@Internal@Core@Math@Palmtree@@UEAA@XZ
xdata	ENDS
;	COMDAT xdata
xdata	SEGMENT
$ip2state$??0Exception@Internal@Core@Math@Palmtree@@QEAA@AEBV01234@@Z DD imagerel ??0Exception@Internal@Core@Math@Palmtree@@QEAA@AEBV01234@@Z
	DD	0ffffffffH
	DD	imagerel ??0Exception@Internal@Core@Math@Palmtree@@QEAA@AEBV01234@@Z+37
	DD	00H
	DD	imagerel ??0Exception@Internal@Core@Math@Palmtree@@QEAA@AEBV01234@@Z+69
	DD	0ffffffffH
xdata	ENDS
;	COMDAT xdata
xdata	SEGMENT
$stateUnwindMap$??0Exception@Internal@Core@Math@Palmtree@@QEAA@AEBV01234@@Z DD 0ffffffffH
	DD	imagerel ?dtor$0@?0???0Exception@Internal@Core@Math@Palmtree@@QEAA@AEBV01234@@Z@4HA
xdata	ENDS
;	COMDAT CONST
CONST	SEGMENT
$cppxdata$??0Exception@Internal@Core@Math@Palmtree@@QEAA@AEBV01234@@Z DD 019930522H
	DD	01H
	DD	imagerel $stateUnwindMap$??0Exception@Internal@Core@Math@Palmtree@@QEAA@AEBV01234@@Z
	DD	00H
	DD	00H
	DD	03H
	DD	imagerel $ip2state$??0Exception@Internal@Core@Math@Palmtree@@QEAA@AEBV01234@@Z
	DD	00H
	DD	00H
	DD	04H
CONST	ENDS
;	COMDAT xdata
xdata	SEGMENT
$unwind$??0Exception@Internal@Core@Math@Palmtree@@QEAA@AEBV01234@@Z DD 011111H
	DD	02209H
	DD	imagerel __CxxFrameHandler3
	DD	imagerel $cppxdata$??0Exception@Internal@Core@Math@Palmtree@@QEAA@AEBV01234@@Z
xdata	ENDS
;	COMDAT xdata
xdata	SEGMENT
$ip2state$??0Exception@Internal@Core@Math@Palmtree@@IEAA@HPEB_W0@Z DD imagerel ??0Exception@Internal@Core@Math@Palmtree@@IEAA@HPEB_W0@Z
	DD	0ffffffffH
	DD	imagerel ??0Exception@Internal@Core@Math@Palmtree@@IEAA@HPEB_W0@Z+37
	DD	00H
	DD	imagerel ??0Exception@Internal@Core@Math@Palmtree@@IEAA@HPEB_W0@Z+58
	DD	0ffffffffH
xdata	ENDS
;	COMDAT xdata
xdata	SEGMENT
$stateUnwindMap$??0Exception@Internal@Core@Math@Palmtree@@IEAA@HPEB_W0@Z DD 0ffffffffH
	DD	imagerel ?dtor$0@?0???0Exception@Internal@Core@Math@Palmtree@@IEAA@HPEB_W0@Z@4HA
xdata	ENDS
;	COMDAT CONST
CONST	SEGMENT
$cppxdata$??0Exception@Internal@Core@Math@Palmtree@@IEAA@HPEB_W0@Z DD 019930522H
	DD	01H
	DD	imagerel $stateUnwindMap$??0Exception@Internal@Core@Math@Palmtree@@IEAA@HPEB_W0@Z
	DD	00H
	DD	00H
	DD	03H
	DD	imagerel $ip2state$??0Exception@Internal@Core@Math@Palmtree@@IEAA@HPEB_W0@Z
	DD	00H
	DD	00H
	DD	04H
CONST	ENDS
;	COMDAT xdata
xdata	SEGMENT
$unwind$??0Exception@Internal@Core@Math@Palmtree@@IEAA@HPEB_W0@Z DD 011111H
	DD	02209H
	DD	imagerel __CxxFrameHandler3
	DD	imagerel $cppxdata$??0Exception@Internal@Core@Math@Palmtree@@IEAA@HPEB_W0@Z
xdata	ENDS
;	COMDAT xdata
xdata	SEGMENT
$ip2state$??0Exception@Internal@Core@Math@Palmtree@@IEAA@HPEB_W@Z DD imagerel ??0Exception@Internal@Core@Math@Palmtree@@IEAA@HPEB_W@Z
	DD	0ffffffffH
	DD	imagerel ??0Exception@Internal@Core@Math@Palmtree@@IEAA@HPEB_W@Z+37
	DD	00H
	DD	imagerel ??0Exception@Internal@Core@Math@Palmtree@@IEAA@HPEB_W@Z+62
	DD	0ffffffffH
xdata	ENDS
;	COMDAT xdata
xdata	SEGMENT
$stateUnwindMap$??0Exception@Internal@Core@Math@Palmtree@@IEAA@HPEB_W@Z DD 0ffffffffH
	DD	imagerel ?dtor$0@?0???0Exception@Internal@Core@Math@Palmtree@@IEAA@HPEB_W@Z@4HA
xdata	ENDS
;	COMDAT CONST
CONST	SEGMENT
$cppxdata$??0Exception@Internal@Core@Math@Palmtree@@IEAA@HPEB_W@Z DD 019930522H
	DD	01H
	DD	imagerel $stateUnwindMap$??0Exception@Internal@Core@Math@Palmtree@@IEAA@HPEB_W@Z
	DD	00H
	DD	00H
	DD	03H
	DD	imagerel $ip2state$??0Exception@Internal@Core@Math@Palmtree@@IEAA@HPEB_W@Z
	DD	00H
	DD	00H
	DD	04H
CONST	ENDS
;	COMDAT xdata
xdata	SEGMENT
$unwind$??0Exception@Internal@Core@Math@Palmtree@@IEAA@HPEB_W@Z DD 011111H
	DD	02209H
	DD	imagerel __CxxFrameHandler3
	DD	imagerel $cppxdata$??0Exception@Internal@Core@Math@Palmtree@@IEAA@HPEB_W@Z
xdata	ENDS
;	COMDAT xdata
xdata	SEGMENT
$ip2state$??_Gexception@std@@UEAAPEAXI@Z DD imagerel ??_Gexception@std@@UEAAPEAXI@Z
	DD	0ffffffffH
xdata	ENDS
;	COMDAT CONST
CONST	SEGMENT
$cppxdata$??_Gexception@std@@UEAAPEAXI@Z DD 019930522H
	DD	00H
	DD	00H
	DD	00H
	DD	00H
	DD	01H
	DD	imagerel $ip2state$??_Gexception@std@@UEAAPEAXI@Z
	DD	020H
	DD	00H
	DD	04H
CONST	ENDS
;	COMDAT xdata
xdata	SEGMENT
$unwind$??_Gexception@std@@UEAAPEAXI@Z DD 041419H
	DD	083414H
	DD	070025206H
	DD	imagerel __CxxFrameHandler3
	DD	imagerel $cppxdata$??_Gexception@std@@UEAAPEAXI@Z
xdata	ENDS
;	COMDAT xdata
xdata	SEGMENT
$ip2state$??1exception@std@@UEAA@XZ DD imagerel ??1exception@std@@UEAA@XZ
	DD	0ffffffffH
xdata	ENDS
;	COMDAT CONST
CONST	SEGMENT
$cppxdata$??1exception@std@@UEAA@XZ DD 019930522H
	DD	00H
	DD	00H
	DD	00H
	DD	00H
	DD	01H
	DD	imagerel $ip2state$??1exception@std@@UEAA@XZ
	DD	020H
	DD	00H
	DD	04H
CONST	ENDS
;	COMDAT xdata
xdata	SEGMENT
$unwind$??1exception@std@@UEAA@XZ DD 010d19H
	DD	06204H
	DD	imagerel __CxxFrameHandler3
	DD	imagerel $cppxdata$??1exception@std@@UEAA@XZ
xdata	ENDS
; Function compile flags: /Ogtpy
; File z:\sources\lunor\repos\rougemeilland\palmtree.math.core.uint\palmtree.math.core.uint\pmc_tostring.cpp
; File z:\sources\lunor\repos\rougemeilland\palmtree.math.core.uint\palmtree.math.core.uint\pmc_stringio.h
; File z:\sources\lunor\repos\rougemeilland\palmtree.math.core.uint\palmtree.math.core.uint\pmc_tostring.cpp
; File z:\sources\lunor\repos\rougemeilland\palmtree.math.core.uint\palmtree.math.core.uint\pmc_stringio.h
; File z:\sources\lunor\repos\rougemeilland\palmtree.math.core.uint\palmtree.math.core.uint\pmc_tostring.cpp
; File z:\sources\lunor\repos\rougemeilland\palmtree.math.core.uint\palmtree.math.core.uint\pmc_stringio.h
; File z:\sources\lunor\repos\rougemeilland\palmtree.math.core.uint\palmtree.math.core.uint\pmc_tostring.cpp
; File z:\sources\lunor\repos\rougemeilland\palmtree.math.core.uint\palmtree.math.core.uint\pmc_stringio.h
; File z:\sources\lunor\repos\rougemeilland\palmtree.math.core.uint\palmtree.math.core.uint\pmc_tostring.cpp
; File z:\sources\lunor\repos\rougemeilland\palmtree.math.core.uint\palmtree.math.core.uint\pmc_stringio.h
; File z:\sources\lunor\repos\rougemeilland\palmtree.math.core.uint\palmtree.math.core.uint\pmc_tostring.cpp
; File z:\sources\lunor\repos\rougemeilland\palmtree.math.core.uint\palmtree.math.core.uint\pmc_stringio.h
; File z:\sources\lunor\repos\rougemeilland\palmtree.math.core.uint\palmtree.math.core.uint\pmc_tostring.cpp
; File z:\sources\lunor\repos\rougemeilland\palmtree.math.core.uint\palmtree.math.core.uint\pmc_stringio.h
; File z:\sources\lunor\repos\rougemeilland\palmtree.math.core.uint\palmtree.math.core.uint\pmc_tostring.cpp
; File z:\sources\lunor\repos\rougemeilland\palmtree.math.core.uint\palmtree.math.core.uint\pmc_stringio.h
; File z:\sources\lunor\repos\rougemeilland\palmtree.math.core.uint\palmtree.math.core.uint\pmc_tostring.cpp
; File z:\sources\lunor\repos\rougemeilland\palmtree.math.core.uint\palmtree.math.core.uint\pmc_stringio.h
; File z:\sources\lunor\repos\rougemeilland\palmtree.math.core.uint\palmtree.math.core.uint\pmc_tostring.cpp
;	COMDAT ?ToString_Imp@Internal@Core@Math@Palmtree@@YA_KDPEAU__tag_NUMBER_HEADER@1234@PEB_WPEBU__tag_PMC_NUMBER_FORMAT_INFO@1234@PEA_W_K@Z
_TEXT	SEGMENT
writer$1 = 64
writer$2 = 64
writer$3 = 64
writer$4 = 64
formatter$5 = 64
formatter$6 = 104
formatter$7 = 104
formatter$8 = 104
formatter$9 = 104
writer$10 = 104
$T11 = 104
x_sign$ = 176
x_abs$ = 184
format$ = 192
format_option$ = 200
buffer$ = 208
buffer_size$ = 216
?ToString_Imp@Internal@Core@Math@Palmtree@@YA_KDPEAU__tag_NUMBER_HEADER@1234@PEB_WPEBU__tag_PMC_NUMBER_FORMAT_INFO@1234@PEA_W_K@Z PROC ; Palmtree::Math::Core::Internal::ToString_Imp, COMDAT

; 1392 :     {

  00000	48 89 5c 24 08	 mov	 QWORD PTR [rsp+8], rbx
  00005	48 89 7c 24 10	 mov	 QWORD PTR [rsp+16], rdi
  0000a	55		 push	 rbp
  0000b	48 8d 6c 24 b9	 lea	 rbp, QWORD PTR [rsp-71]
  00010	48 81 ec a0 00
	00 00		 sub	 rsp, 160		; 000000a0H
  00017	4d 8b d1	 mov	 r10, r9
  0001a	4c 8b da	 mov	 r11, rdx
  0001d	0f b6 d9	 movzx	 ebx, cl

; 1357 :         if (format == nullptr)

  00020	bf 44 00 00 00	 mov	 edi, 68			; 00000044H
  00025	4d 85 c0	 test	 r8, r8
  00028	75 0d		 jne	 SHORT $LN18@ToString_I

; 1358 :         {
; 1359 :             *format_type = L'D';

  0002a	44 0f b7 c7	 movzx	 r8d, di

; 1360 :             *precision = -1;

  0002e	44 8d 4f bb	 lea	 r9d, QWORD PTR [rdi-69]

; 1361 :             return (TRUE);

  00032	e9 d1 00 00 00	 jmp	 $LN4@ToString_I
$LN18@ToString_I:

; 1362 :         }
; 1363 :         else if (format[0] == L'\0')

  00037	41 0f b7 08	 movzx	 ecx, WORD PTR [r8]
  0003b	66 85 c9	 test	 cx, cx
  0003e	75 0e		 jne	 SHORT $LN20@ToString_I

; 1364 :         {
; 1365 :             *format_type = L'D';

  00040	44 8b c7	 mov	 r8d, edi

; 1366 :             *precision = -1;

  00043	41 b9 ff ff ff
	ff		 mov	 r9d, -1

; 1367 :             return (TRUE);

  00049	e9 ba 00 00 00	 jmp	 $LN4@ToString_I
$LN20@ToString_I:

; 1341 :         if (c >= L'A' && c <= L'Z')

  0004e	8d 51 bf	 lea	 edx, DWORD PTR [rcx-65]
  00051	66 83 fa 19	 cmp	 dx, 25
  00055	76 09		 jbe	 SHORT $LN121@ToString_I

; 1342 :             return (TRUE);
; 1343 :         if (c >= L'a' && c <= L'z')

  00057	8d 41 9f	 lea	 eax, DWORD PTR [rcx-97]
  0005a	66 83 f8 19	 cmp	 ax, 25
  0005e	77 17		 ja	 SHORT $LN128@ToString_I
$LN121@ToString_I:

; 1369 :         else if (__IS_ALPHA(format[0]) && format[1] == L'\0')

  00060	66 41 83 78 02
	00		 cmp	 WORD PTR [r8+2], 0
  00066	75 0f		 jne	 SHORT $LN128@ToString_I

; 1370 :         {
; 1371 :             *format_type = format[0];

  00068	44 0f b7 c1	 movzx	 r8d, cx

; 1372 :             *precision = -1;

  0006c	41 b9 ff ff ff
	ff		 mov	 r9d, -1

; 1373 :             return (TRUE);

  00072	e9 91 00 00 00	 jmp	 $LN4@ToString_I
$LN128@ToString_I:

; 1341 :         if (c >= L'A' && c <= L'Z')

  00077	66 83 fa 19	 cmp	 dx, 25
  0007b	76 09		 jbe	 SHORT $LN122@ToString_I

; 1342 :             return (TRUE);
; 1343 :         if (c >= L'a' && c <= L'z')

  0007d	8d 41 9f	 lea	 eax, DWORD PTR [rcx-97]
  00080	66 83 f8 19	 cmp	 ax, 25
  00084	77 25		 ja	 SHORT $LN24@ToString_I
$LN122@ToString_I:

; 1375 :         else if (__IS_ALPHA(format[0]) && __IS_DIGIT(format[1]) && format[2] == L'\0')

  00086	45 0f b7 48 02	 movzx	 r9d, WORD PTR [r8+2]

; 1350 :         if (c >= L'0' && c <= L'9')

  0008b	41 8d 41 d0	 lea	 eax, DWORD PTR [r9-48]
  0008f	66 83 f8 09	 cmp	 ax, 9
  00093	77 16		 ja	 SHORT $LN24@ToString_I

; 1375 :         else if (__IS_ALPHA(format[0]) && __IS_DIGIT(format[1]) && format[2] == L'\0')

  00095	66 41 83 78 04
	00		 cmp	 WORD PTR [r8+4], 0
  0009b	75 0e		 jne	 SHORT $LN24@ToString_I

; 1376 :         {
; 1377 :             *format_type = format[0];
; 1378 :             *precision = format[1] - L'0';

  0009d	45 0f b7 c9	 movzx	 r9d, r9w
  000a1	44 0f b7 c1	 movzx	 r8d, cx
  000a5	41 83 e9 30	 sub	 r9d, 48			; 00000030H

; 1379 :             return (TRUE);

  000a9	eb 5d		 jmp	 SHORT $LN4@ToString_I
$LN24@ToString_I:

; 1341 :         if (c >= L'A' && c <= L'Z')

  000ab	66 83 fa 19	 cmp	 dx, 25
  000af	76 0d		 jbe	 SHORT $LN124@ToString_I

; 1342 :             return (TRUE);
; 1343 :         if (c >= L'a' && c <= L'z')

  000b1	8d 41 9f	 lea	 eax, DWORD PTR [rcx-97]
  000b4	66 83 f8 19	 cmp	 ax, 25
  000b8	0f 87 be 02 00
	00		 ja	 $LN26@ToString_I
$LN124@ToString_I:

; 1381 :         else if (__IS_ALPHA(format[0]) && __IS_DIGIT(format[1]) && __IS_DIGIT(format[2]) && format[3] == L'\0')

  000be	41 0f b7 50 02	 movzx	 edx, WORD PTR [r8+2]

; 1350 :         if (c >= L'0' && c <= L'9')

  000c3	8d 42 d0	 lea	 eax, DWORD PTR [rdx-48]
  000c6	66 83 f8 09	 cmp	 ax, 9
  000ca	0f 87 ac 02 00
	00		 ja	 $LN26@ToString_I

; 1381 :         else if (__IS_ALPHA(format[0]) && __IS_DIGIT(format[1]) && __IS_DIGIT(format[2]) && format[3] == L'\0')

  000d0	45 0f b7 48 04	 movzx	 r9d, WORD PTR [r8+4]

; 1350 :         if (c >= L'0' && c <= L'9')

  000d5	41 8d 41 d0	 lea	 eax, DWORD PTR [r9-48]
  000d9	66 83 f8 09	 cmp	 ax, 9
  000dd	0f 87 99 02 00
	00		 ja	 $LN26@ToString_I

; 1381 :         else if (__IS_ALPHA(format[0]) && __IS_DIGIT(format[1]) && __IS_DIGIT(format[2]) && format[3] == L'\0')

  000e3	66 41 83 78 06
	00		 cmp	 WORD PTR [r8+6], 0
  000e9	0f 85 8d 02 00
	00		 jne	 $LN26@ToString_I

; 1382 :         {
; 1383 :             *format_type = format[0];
; 1384 :             *precision = (format[1] - L'0') * 10 + (format[2] - L'0');

  000ef	0f b7 c2	 movzx	 eax, dx
  000f2	44 0f b7 c1	 movzx	 r8d, cx
  000f6	8d 0c 80	 lea	 ecx, DWORD PTR [rax+rax*4]
  000f9	41 0f b7 c1	 movzx	 eax, r9w
  000fd	44 8d 89 f8 fe
	ff ff		 lea	 r9d, DWORD PTR [rcx-264]
  00104	46 8d 0c 48	 lea	 r9d, DWORD PTR [rax+r9*2]
$LN4@ToString_I:

; 1397 :         else
; 1398 :         {
; 1399 :             switch (format_type)

  00108	41 0f b7 c0	 movzx	 eax, r8w
  0010c	83 c0 bd	 add	 eax, -67		; ffffffffffffffbdH
  0010f	83 f8 35	 cmp	 eax, 53			; 00000035H
  00112	0f 87 85 02 00
	00		 ja	 $LN15@ToString_I
  00118	48 8d 15 00 00
	00 00		 lea	 rdx, OFFSET FLAT:__ImageBase
  0011f	48 98		 cdqe
  00121	0f b6 84 02 00
	00 00 00	 movzx	 eax, BYTE PTR $LN129@ToString_I[rdx+rax]
  00129	8b 8c 82 00 00
	00 00		 mov	 ecx, DWORD PTR $LN130@ToString_I[rdx+rax*4]
  00130	48 03 ca	 add	 rcx, rdx
  00133	ff e1		 jmp	 rcx
$LN6@ToString_I:
; File z:\sources\lunor\repos\rougemeilland\palmtree.math.core.uint\palmtree.math.core.uint\pmc_stringio.h

; 209  :             : StringWriter(buffer, buffer, buffer != nullptr ? buffer + size : nullptr)

  00135	48 8b 4d 77	 mov	 rcx, QWORD PTR buffer$[rbp-89]
  00139	48 85 c9	 test	 rcx, rcx
  0013c	74 0a		 je	 SHORT $LN54@ToString_I
  0013e	48 8b 45 7f	 mov	 rax, QWORD PTR buffer_size$[rbp-89]
  00142	48 8d 14 41	 lea	 rdx, QWORD PTR [rcx+rax*2]
  00146	eb 02		 jmp	 SHORT $LN55@ToString_I
$LN54@ToString_I:
  00148	33 d2		 xor	 edx, edx
$LN55@ToString_I:

; 210  :         {

  0014a	48 8d 05 00 00
	00 00		 lea	 rax, OFFSET FLAT:??_7StringWriter@Internal@Core@Math@Palmtree@@6B@

; 201  :             _p = p;

  00151	48 89 4d 17	 mov	 QWORD PTR writer$10[rbp-81], rcx

; 210  :         {

  00155	48 89 45 0f	 mov	 QWORD PTR writer$10[rbp-89], rax
; File z:\sources\lunor\repos\rougemeilland\palmtree.math.core.uint\palmtree.math.core.uint\pmc_tostring.cpp

; 1067 :             formatter.Format(x_sign, x_abs, &writer);

  00159	4d 8b c3	 mov	 r8, r11

; 190  :             const __UNIT_TYPE _10n_base_number = 10000000000000000000UL; // 10^19

  0015c	48 b8 00 00 e8
	89 04 23 c7 8a	 mov	 rax, -8446744073709551616 ; 8ac7230489e80000H
; File z:\sources\lunor\repos\rougemeilland\palmtree.math.core.uint\palmtree.math.core.uint\pmc_stringio.h

; 202  :             _sob = sob;

  00166	48 89 4d 1f	 mov	 QWORD PTR writer$10[rbp-73], rcx
; File z:\sources\lunor\repos\rougemeilland\palmtree.math.core.uint\palmtree.math.core.uint\pmc_tostring.cpp

; 190  :             const __UNIT_TYPE _10n_base_number = 10000000000000000000UL; // 10^19

  0016a	48 89 45 ef	 mov	 QWORD PTR formatter$5[rbp-81], rax

; 1067 :             formatter.Format(x_sign, x_abs, &writer);

  0016e	48 8d 4d e7	 lea	 rcx, QWORD PTR formatter$5[rbp-89]

; 204  :                 _format_type = format_type;

  00172	b8 43 00 00 00	 mov	 eax, 67			; 00000043H
; File z:\sources\lunor\repos\rougemeilland\palmtree.math.core.uint\palmtree.math.core.uint\pmc_stringio.h

; 203  :             _eob = eob;

  00177	48 89 55 27	 mov	 QWORD PTR writer$10[rbp-65], rdx
; File z:\sources\lunor\repos\rougemeilland\palmtree.math.core.uint\palmtree.math.core.uint\pmc_tostring.cpp

; 204  :                 _format_type = format_type;

  0017b	66 89 45 fb	 mov	 WORD PTR formatter$5[rbp-69], ax

; 1067 :             formatter.Format(x_sign, x_abs, &writer);

  0017f	0f b6 d3	 movzx	 edx, bl

; 404  :             {

  00182	48 8d 05 00 00
	00 00		 lea	 rax, OFFSET FLAT:??_7FormatterTypeC@DecimalFromatter@Internal@Core@Math@Palmtree@@6B@

; 205  :                 _precision = precision;

  00189	44 89 4d ff	 mov	 DWORD PTR formatter$5[rbp-65], r9d

; 1067 :             formatter.Format(x_sign, x_abs, &writer);

  0018d	4c 8d 4d 0f	 lea	 r9, QWORD PTR writer$10[rbp-89]

; 404  :             {

  00191	48 89 45 e7	 mov	 QWORD PTR formatter$5[rbp-89], rax
; File z:\sources\lunor\repos\rougemeilland\palmtree.math.core.uint\palmtree.math.core.uint\pmc_stringio.h

; 204  :             _written = 0;

  00195	48 c7 45 2f 00
	00 00 00	 mov	 QWORD PTR writer$10[rbp-57], 0
; File z:\sources\lunor\repos\rougemeilland\palmtree.math.core.uint\palmtree.math.core.uint\pmc_tostring.cpp

; 191  :             const int digit_count_on_word = 19;

  0019d	c7 45 f7 13 00
	00 00		 mov	 DWORD PTR formatter$5[rbp-73], 19

; 206  :                 _number_format_info = number_format_info;

  001a4	4c 89 55 07	 mov	 QWORD PTR formatter$5[rbp-57], r10

; 1067 :             formatter.Format(x_sign, x_abs, &writer);

  001a8	e8 00 00 00 00	 call	 ?Format@Formatter@DecimalFromatter@Internal@Core@Math@Palmtree@@QEAAXDPEAU__tag_NUMBER_HEADER@3456@PEAVStringWriter@3456@@Z ; Palmtree::Math::Core::Internal::DecimalFromatter::Formatter::Format

; 1400 :             {
; 1401 :             case L'c':
; 1402 :             case L'C':
; 1403 :                 return (DecimalFromatter::ToStringC(x_sign, x_abs, L'C', precision, format_option, buffer, buffer_size));

  001ad	48 8b 45 2f	 mov	 rax, QWORD PTR writer$10[rbp-57]
  001b1	eb 25		 jmp	 SHORT $LN5@ToString_I
$LN7@ToString_I:

; 1430 :             }
; 1431 :         }
; 1432 :     }

  001b3	48 8b 45 7f	 mov	 rax, QWORD PTR buffer_size$[rbp-89]
  001b7	44 8b c7	 mov	 r8d, edi
  001ba	48 89 44 24 30	 mov	 QWORD PTR [rsp+48], rax
  001bf	48 8b 45 77	 mov	 rax, QWORD PTR buffer$[rbp-89]
  001c3	48 89 44 24 28	 mov	 QWORD PTR [rsp+40], rax
  001c8	4c 89 54 24 20	 mov	 QWORD PTR [rsp+32], r10
$LN133@ToString_I:
  001cd	49 8b d3	 mov	 rdx, r11
  001d0	0f b6 cb	 movzx	 ecx, bl
  001d3	e8 00 00 00 00	 call	 ?ToStringD@DecimalFromatter@Internal@Core@Math@Palmtree@@YA_KDPEAU__tag_NUMBER_HEADER@2345@_WHPEBU__tag_PMC_NUMBER_FORMAT_INFO@2345@PEA_W_K@Z ; Palmtree::Math::Core::Internal::DecimalFromatter::ToStringD
$LN5@ToString_I:
  001d8	4c 8d 9c 24 a0
	00 00 00	 lea	 r11, QWORD PTR [rsp+160]
  001e0	49 8b 5b 10	 mov	 rbx, QWORD PTR [r11+16]
  001e4	49 8b 7b 18	 mov	 rdi, QWORD PTR [r11+24]
  001e8	49 8b e3	 mov	 rsp, r11
  001eb	5d		 pop	 rbp
  001ec	c3		 ret	 0
$LN8@ToString_I:
; File z:\sources\lunor\repos\rougemeilland\palmtree.math.core.uint\palmtree.math.core.uint\pmc_stringio.h

; 209  :             : StringWriter(buffer, buffer, buffer != nullptr ? buffer + size : nullptr)

  001ed	48 8b 4d 77	 mov	 rcx, QWORD PTR buffer$[rbp-89]
  001f1	48 85 c9	 test	 rcx, rcx
  001f4	74 0a		 je	 SHORT $LN68@ToString_I
  001f6	48 8b 45 7f	 mov	 rax, QWORD PTR buffer_size$[rbp-89]
  001fa	48 8d 14 41	 lea	 rdx, QWORD PTR [rcx+rax*2]
  001fe	eb 02		 jmp	 SHORT $LN69@ToString_I
$LN68@ToString_I:
  00200	33 d2		 xor	 edx, edx
$LN69@ToString_I:

; 210  :         {

  00202	48 8d 05 00 00
	00 00		 lea	 rax, OFFSET FLAT:??_7StringWriter@Internal@Core@Math@Palmtree@@6B@
; File z:\sources\lunor\repos\rougemeilland\palmtree.math.core.uint\palmtree.math.core.uint\pmc_tostring.cpp

; 204  :                 _format_type = format_type;

  00209	66 44 89 45 23	 mov	 WORD PTR formatter$9[rbp-69], r8w
; File z:\sources\lunor\repos\rougemeilland\palmtree.math.core.uint\palmtree.math.core.uint\pmc_stringio.h

; 210  :         {

  0020e	48 89 45 e7	 mov	 QWORD PTR writer$4[rbp-89], rax
; File z:\sources\lunor\repos\rougemeilland\palmtree.math.core.uint\palmtree.math.core.uint\pmc_tostring.cpp

; 190  :             const __UNIT_TYPE _10n_base_number = 10000000000000000000UL; // 10^19

  00212	48 b8 00 00 e8
	89 04 23 c7 8a	 mov	 rax, -8446744073709551616 ; 8ac7230489e80000H
  0021c	48 89 45 17	 mov	 QWORD PTR formatter$9[rbp-81], rax

; 651  :             {

  00220	48 8d 05 00 00
	00 00		 lea	 rax, OFFSET FLAT:??_7FormatterTypeE@DecimalFromatter@Internal@Core@Math@Palmtree@@6B@
$LN134@ToString_I:

; 1430 :             }
; 1431 :         }
; 1432 :     }

  00227	44 89 4d 27	 mov	 DWORD PTR formatter$9[rbp-65], r9d
  0022b	4d 8b c3	 mov	 r8, r11
  0022e	48 89 55 ff	 mov	 QWORD PTR writer$4[rbp-65], rdx
  00232	4c 8d 4d e7	 lea	 r9, QWORD PTR writer$4[rbp-89]
  00236	48 89 4d f7	 mov	 QWORD PTR writer$4[rbp-73], rcx
  0023a	0f b6 d3	 movzx	 edx, bl
  0023d	48 89 4d ef	 mov	 QWORD PTR writer$4[rbp-81], rcx
  00241	48 8d 4d 0f	 lea	 rcx, QWORD PTR formatter$9[rbp-89]
  00245	4c 89 55 2f	 mov	 QWORD PTR formatter$9[rbp-57], r10
  00249	c7 45 1f 13 00
	00 00		 mov	 DWORD PTR formatter$9[rbp-73], 19
  00250	48 c7 45 07 00
	00 00 00	 mov	 QWORD PTR writer$4[rbp-57], 0
  00258	48 89 45 0f	 mov	 QWORD PTR formatter$9[rbp-89], rax
  0025c	e8 00 00 00 00	 call	 ?Format@Formatter@DecimalFromatter@Internal@Core@Math@Palmtree@@QEAAXDPEAU__tag_NUMBER_HEADER@3456@PEAVStringWriter@3456@@Z ; Palmtree::Math::Core::Internal::DecimalFromatter::Formatter::Format
  00261	48 8b 45 07	 mov	 rax, QWORD PTR writer$4[rbp-57]
  00265	e9 6e ff ff ff	 jmp	 $LN5@ToString_I
$LN9@ToString_I:
; File z:\sources\lunor\repos\rougemeilland\palmtree.math.core.uint\palmtree.math.core.uint\pmc_stringio.h

; 209  :             : StringWriter(buffer, buffer, buffer != nullptr ? buffer + size : nullptr)

  0026a	48 8b 4d 77	 mov	 rcx, QWORD PTR buffer$[rbp-89]
  0026e	48 85 c9	 test	 rcx, rcx
  00271	74 0a		 je	 SHORT $LN82@ToString_I
  00273	48 8b 45 7f	 mov	 rax, QWORD PTR buffer_size$[rbp-89]
  00277	48 8d 14 41	 lea	 rdx, QWORD PTR [rcx+rax*2]
  0027b	eb 02		 jmp	 SHORT $LN83@ToString_I
$LN82@ToString_I:
  0027d	33 d2		 xor	 edx, edx
$LN83@ToString_I:

; 210  :         {

  0027f	48 8d 05 00 00
	00 00		 lea	 rax, OFFSET FLAT:??_7StringWriter@Internal@Core@Math@Palmtree@@6B@
  00286	48 89 45 e7	 mov	 QWORD PTR writer$3[rbp-89], rax
; File z:\sources\lunor\repos\rougemeilland\palmtree.math.core.uint\palmtree.math.core.uint\pmc_tostring.cpp

; 190  :             const __UNIT_TYPE _10n_base_number = 10000000000000000000UL; // 10^19

  0028a	48 b8 00 00 e8
	89 04 23 c7 8a	 mov	 rax, -8446744073709551616 ; 8ac7230489e80000H
  00294	48 89 45 17	 mov	 QWORD PTR formatter$8[rbp-81], rax

; 204  :                 _format_type = format_type;

  00298	b8 46 00 00 00	 mov	 eax, 70			; 00000046H
  0029d	66 89 45 23	 mov	 WORD PTR formatter$8[rbp-69], ax

; 735  :             {

  002a1	48 8d 05 00 00
	00 00		 lea	 rax, OFFSET FLAT:??_7FormatterTypeF@DecimalFromatter@Internal@Core@Math@Palmtree@@6B@

; 1404 :             case L'd':
; 1405 :             case L'D':
; 1406 :                 return (DecimalFromatter::ToStringD(x_sign, x_abs, L'D', precision, format_option, buffer, buffer_size));
; 1407 :             case L'e':
; 1408 :             case L'E':
; 1409 :                 return (DecimalFromatter::ToStringE(x_sign, x_abs, format_type, precision, format_option, buffer, buffer_size));
; 1410 :             case L'f':
; 1411 :             case L'F':
; 1412 :                 return (DecimalFromatter::ToStringF(x_sign, x_abs, L'F', precision, format_option, buffer, buffer_size));

  002a8	e9 7a ff ff ff	 jmp	 $LN134@ToString_I
$LN11@ToString_I:
; File z:\sources\lunor\repos\rougemeilland\palmtree.math.core.uint\palmtree.math.core.uint\pmc_stringio.h

; 209  :             : StringWriter(buffer, buffer, buffer != nullptr ? buffer + size : nullptr)

  002ad	48 8b 4d 77	 mov	 rcx, QWORD PTR buffer$[rbp-89]
  002b1	48 85 c9	 test	 rcx, rcx
  002b4	74 0a		 je	 SHORT $LN96@ToString_I
  002b6	48 8b 45 7f	 mov	 rax, QWORD PTR buffer_size$[rbp-89]
  002ba	48 8d 14 41	 lea	 rdx, QWORD PTR [rcx+rax*2]
  002be	eb 02		 jmp	 SHORT $LN97@ToString_I
$LN96@ToString_I:
  002c0	33 d2		 xor	 edx, edx
$LN97@ToString_I:

; 210  :         {

  002c2	48 8d 05 00 00
	00 00		 lea	 rax, OFFSET FLAT:??_7StringWriter@Internal@Core@Math@Palmtree@@6B@
  002c9	48 89 45 e7	 mov	 QWORD PTR writer$2[rbp-89], rax
; File z:\sources\lunor\repos\rougemeilland\palmtree.math.core.uint\palmtree.math.core.uint\pmc_tostring.cpp

; 190  :             const __UNIT_TYPE _10n_base_number = 10000000000000000000UL; // 10^19

  002cd	48 b8 00 00 e8
	89 04 23 c7 8a	 mov	 rax, -8446744073709551616 ; 8ac7230489e80000H
  002d7	48 89 45 17	 mov	 QWORD PTR formatter$7[rbp-81], rax

; 204  :                 _format_type = format_type;

  002db	b8 4e 00 00 00	 mov	 eax, 78			; 0000004eH
  002e0	66 89 45 23	 mov	 WORD PTR formatter$7[rbp-69], ax

; 781  :             {

  002e4	48 8d 05 00 00
	00 00		 lea	 rax, OFFSET FLAT:??_7FormatterTypeN@DecimalFromatter@Internal@Core@Math@Palmtree@@6B@

; 1413 :             case L'g':
; 1414 :             case L'G':
; 1415 :                 return (DecimalFromatter::ToStringD(x_sign, x_abs, L'D', precision, format_option, buffer, buffer_size));
; 1416 :             case L'n':
; 1417 :             case L'N':
; 1418 :                 return (DecimalFromatter::ToStringN(x_sign, x_abs, L'N', precision, format_option, buffer, buffer_size));

  002eb	e9 37 ff ff ff	 jmp	 $LN134@ToString_I
$LN12@ToString_I:
; File z:\sources\lunor\repos\rougemeilland\palmtree.math.core.uint\palmtree.math.core.uint\pmc_stringio.h

; 209  :             : StringWriter(buffer, buffer, buffer != nullptr ? buffer + size : nullptr)

  002f0	48 8b 4d 77	 mov	 rcx, QWORD PTR buffer$[rbp-89]
  002f4	48 85 c9	 test	 rcx, rcx
  002f7	74 0a		 je	 SHORT $LN110@ToString_I
  002f9	48 8b 45 7f	 mov	 rax, QWORD PTR buffer_size$[rbp-89]
  002fd	48 8d 14 41	 lea	 rdx, QWORD PTR [rcx+rax*2]
  00301	eb 02		 jmp	 SHORT $LN111@ToString_I
$LN110@ToString_I:
  00303	33 d2		 xor	 edx, edx
$LN111@ToString_I:

; 210  :         {

  00305	48 8d 05 00 00
	00 00		 lea	 rax, OFFSET FLAT:??_7StringWriter@Internal@Core@Math@Palmtree@@6B@
  0030c	48 89 45 e7	 mov	 QWORD PTR writer$1[rbp-89], rax
; File z:\sources\lunor\repos\rougemeilland\palmtree.math.core.uint\palmtree.math.core.uint\pmc_tostring.cpp

; 190  :             const __UNIT_TYPE _10n_base_number = 10000000000000000000UL; // 10^19

  00310	48 b8 00 00 e8
	89 04 23 c7 8a	 mov	 rax, -8446744073709551616 ; 8ac7230489e80000H
  0031a	48 89 45 17	 mov	 QWORD PTR formatter$6[rbp-81], rax

; 204  :                 _format_type = format_type;

  0031e	b8 50 00 00 00	 mov	 eax, 80			; 00000050H
  00323	66 89 45 23	 mov	 WORD PTR formatter$6[rbp-69], ax

; 881  :             {

  00327	48 8d 05 00 00
	00 00		 lea	 rax, OFFSET FLAT:??_7FormatterTypeP@DecimalFromatter@Internal@Core@Math@Palmtree@@6B@

; 1419 :             case L'p':
; 1420 :             case L'P':
; 1421 :                 return (DecimalFromatter::ToStringP(x_sign, x_abs, L'P', precision, format_option, buffer, buffer_size));

  0032e	e9 f4 fe ff ff	 jmp	 $LN134@ToString_I
$LN13@ToString_I:

; 1422 :             case L'r':
; 1423 :             case L'R':
; 1424 :                 return (DecimalFromatter::ToStringD(x_sign, x_abs, L'D', 0, format_option, buffer, buffer_size));

  00333	48 8b 45 7f	 mov	 rax, QWORD PTR buffer_size$[rbp-89]
  00337	44 8b c7	 mov	 r8d, edi
  0033a	48 89 44 24 30	 mov	 QWORD PTR [rsp+48], rax
  0033f	45 33 c9	 xor	 r9d, r9d
  00342	48 8b 45 77	 mov	 rax, QWORD PTR buffer$[rbp-89]
  00346	48 89 44 24 28	 mov	 QWORD PTR [rsp+40], rax
  0034b	4c 89 54 24 20	 mov	 QWORD PTR [rsp+32], r10
  00350	e9 78 fe ff ff	 jmp	 $LN133@ToString_I
$LN14@ToString_I:

; 1425 :             case L'x':
; 1426 :             case L'X':
; 1427 :                 return (HexaDecimalFormatter::ToStringX(x_sign, x_abs, format_type, precision, format_option, buffer, buffer_size));

  00355	48 8b 45 7f	 mov	 rax, QWORD PTR buffer_size$[rbp-89]
  00359	49 8b d3	 mov	 rdx, r11
  0035c	48 89 44 24 30	 mov	 QWORD PTR [rsp+48], rax
  00361	0f b6 cb	 movzx	 ecx, bl
  00364	48 8b 45 77	 mov	 rax, QWORD PTR buffer$[rbp-89]
  00368	48 89 44 24 28	 mov	 QWORD PTR [rsp+40], rax
  0036d	4c 89 54 24 20	 mov	 QWORD PTR [rsp+32], r10
  00372	e8 00 00 00 00	 call	 ?ToStringX@HexaDecimalFormatter@Internal@Core@Math@Palmtree@@YA_KDPEAU__tag_NUMBER_HEADER@2345@_WHPEBU__tag_PMC_NUMBER_FORMAT_INFO@2345@PEA_W_K@Z ; Palmtree::Math::Core::Internal::HexaDecimalFormatter::ToStringX
  00377	e9 5c fe ff ff	 jmp	 $LN5@ToString_I
$LN26@ToString_I:

; 1393 :         wchar_t format_type;
; 1394 :         int precision;
; 1395 :         if (!ParseStandardFormat(format, &format_type, &precision))
; 1396 :             return (CustomFormatter::ToStringCustom(x_sign, x_abs, format, format_option, buffer, buffer_size));

  0037c	48 8b 45 7f	 mov	 rax, QWORD PTR buffer_size$[rbp-89]
  00380	4d 8b ca	 mov	 r9, r10
  00383	48 89 44 24 28	 mov	 QWORD PTR [rsp+40], rax
  00388	49 8b d3	 mov	 rdx, r11
  0038b	48 8b 45 77	 mov	 rax, QWORD PTR buffer$[rbp-89]
  0038f	0f b6 cb	 movzx	 ecx, bl
  00392	48 89 44 24 20	 mov	 QWORD PTR [rsp+32], rax
  00397	e8 00 00 00 00	 call	 ?ToStringCustom@CustomFormatter@Internal@Core@Math@Palmtree@@YA_KDPEAU__tag_NUMBER_HEADER@2345@PEB_WPEBU__tag_PMC_NUMBER_FORMAT_INFO@2345@PEA_W_K@Z ; Palmtree::Math::Core::Internal::CustomFormatter::ToStringCustom
  0039c	cc		 int	 3
$LN15@ToString_I:

; 1428 :             default:
; 1429 :                 throw FormatException(L"");

  0039d	48 8d 15 00 00
	00 00		 lea	 rdx, OFFSET FLAT:??_C@_1BI@BIIKHCEK@?$AA?$CK?$PP?e?$AAn?$PP?x?$AA?$AP?$AA?$AH?$PP?$JK?$AAP?$AAg?$AAY?$AA?$AC@
  003a4	48 8d 4d 0f	 lea	 rcx, QWORD PTR $T11[rbp-89]
  003a8	e8 00 00 00 00	 call	 ??0FormatException@Internal@Core@Math@Palmtree@@QEAA@PEB_W@Z ; Palmtree::Math::Core::Internal::FormatException::FormatException
  003ad	48 8d 15 00 00
	00 00		 lea	 rdx, OFFSET FLAT:_TI2?AVFormatException@Internal@Core@Math@Palmtree@@
  003b4	48 8d 4d 0f	 lea	 rcx, QWORD PTR $T11[rbp-89]
  003b8	e8 00 00 00 00	 call	 _CxxThrowException
  003bd	cc		 int	 3
$LN131@ToString_I:
  003be	66 90		 npad	 2
$LN130@ToString_I:

; 1430 :             }
; 1431 :         }
; 1432 :     }

  003c0	00 00 00 00	 DD	 $LN6@ToString_I
  003c4	00 00 00 00	 DD	 $LN7@ToString_I
  003c8	00 00 00 00	 DD	 $LN8@ToString_I
  003cc	00 00 00 00	 DD	 $LN9@ToString_I
  003d0	00 00 00 00	 DD	 $LN11@ToString_I
  003d4	00 00 00 00	 DD	 $LN12@ToString_I
  003d8	00 00 00 00	 DD	 $LN13@ToString_I
  003dc	00 00 00 00	 DD	 $LN14@ToString_I
  003e0	00 00 00 00	 DD	 $LN15@ToString_I
$LN129@ToString_I:
  003e4	00		 DB	 0
  003e5	01		 DB	 1
  003e6	02		 DB	 2
  003e7	03		 DB	 3
  003e8	01		 DB	 1
  003e9	08		 DB	 8
  003ea	08		 DB	 8
  003eb	08		 DB	 8
  003ec	08		 DB	 8
  003ed	08		 DB	 8
  003ee	08		 DB	 8
  003ef	04		 DB	 4
  003f0	08		 DB	 8
  003f1	05		 DB	 5
  003f2	08		 DB	 8
  003f3	06		 DB	 6
  003f4	08		 DB	 8
  003f5	08		 DB	 8
  003f6	08		 DB	 8
  003f7	08		 DB	 8
  003f8	08		 DB	 8
  003f9	07		 DB	 7
  003fa	08		 DB	 8
  003fb	08		 DB	 8
  003fc	08		 DB	 8
  003fd	08		 DB	 8
  003fe	08		 DB	 8
  003ff	08		 DB	 8
  00400	08		 DB	 8
  00401	08		 DB	 8
  00402	08		 DB	 8
  00403	08		 DB	 8
  00404	00		 DB	 0
  00405	01		 DB	 1
  00406	02		 DB	 2
  00407	03		 DB	 3
  00408	01		 DB	 1
  00409	08		 DB	 8
  0040a	08		 DB	 8
  0040b	08		 DB	 8
  0040c	08		 DB	 8
  0040d	08		 DB	 8
  0040e	08		 DB	 8
  0040f	04		 DB	 4
  00410	08		 DB	 8
  00411	05		 DB	 5
  00412	08		 DB	 8
  00413	06		 DB	 6
  00414	08		 DB	 8
  00415	08		 DB	 8
  00416	08		 DB	 8
  00417	08		 DB	 8
  00418	08		 DB	 8
  00419	07		 DB	 7
?ToString_Imp@Internal@Core@Math@Palmtree@@YA_KDPEAU__tag_NUMBER_HEADER@1234@PEB_WPEBU__tag_PMC_NUMBER_FORMAT_INFO@1234@PEA_W_K@Z ENDP ; Palmtree::Math::Core::Internal::ToString_Imp
_TEXT	ENDS
; Function compile flags: /Ogtpy
; File z:\sources\lunor\repos\rougemeilland\palmtree.math.core.uint\palmtree.math.core.uint\pmc_tostring.cpp
;	COMDAT ?ParseStandardFormat@Internal@Core@Math@Palmtree@@YAHPEB_WPEA_WPEAH@Z
_TEXT	SEGMENT
format$ = 8
format_type$ = 16
precision$ = 24
?ParseStandardFormat@Internal@Core@Math@Palmtree@@YAHPEB_WPEA_WPEAH@Z PROC ; Palmtree::Math::Core::Internal::ParseStandardFormat, COMDAT

; 1356 :     {

  00000	4c 8b c9	 mov	 r9, rcx

; 1357 :         if (format == nullptr)

  00003	48 85 c9	 test	 rcx, rcx
  00006	0f 84 ce 00 00
	00		 je	 $LN42@ParseStand

; 1358 :         {
; 1359 :             *format_type = L'D';
; 1360 :             *precision = -1;
; 1361 :             return (TRUE);
; 1362 :         }
; 1363 :         else if (format[0] == L'\0')

  0000c	0f b7 09	 movzx	 ecx, WORD PTR [rcx]
  0000f	66 85 c9	 test	 cx, cx
  00012	0f 84 c2 00 00
	00		 je	 $LN42@ParseStand

; 1341 :         if (c >= L'A' && c <= L'Z')

  00018	44 8d 51 bf	 lea	 r10d, DWORD PTR [rcx-65]
  0001c	66 41 83 fa 19	 cmp	 r10w, 25
  00021	76 09		 jbe	 SHORT $LN35@ParseStand

; 1342 :             return (TRUE);
; 1343 :         if (c >= L'a' && c <= L'z')

  00023	8d 41 9f	 lea	 eax, DWORD PTR [rcx-97]
  00026	66 83 f8 19	 cmp	 ax, 25
  0002a	77 18		 ja	 SHORT $LN41@ParseStand
$LN35@ParseStand:

; 1366 :             *precision = -1;
; 1367 :             return (TRUE);
; 1368 :         }
; 1369 :         else if (__IS_ALPHA(format[0]) && format[1] == L'\0')

  0002c	66 41 83 79 02
	00		 cmp	 WORD PTR [r9+2], 0
  00032	75 10		 jne	 SHORT $LN41@ParseStand

; 1370 :         {
; 1371 :             *format_type = format[0];

  00034	66 89 0a	 mov	 WORD PTR [rdx], cx

; 1389 :     }

  00037	b8 01 00 00 00	 mov	 eax, 1
  0003c	41 c7 00 ff ff
	ff ff		 mov	 DWORD PTR [r8], -1
  00043	c3		 ret	 0
$LN41@ParseStand:

; 1341 :         if (c >= L'A' && c <= L'Z')

  00044	66 41 83 fa 19	 cmp	 r10w, 25
  00049	76 09		 jbe	 SHORT $LN36@ParseStand

; 1342 :             return (TRUE);
; 1343 :         if (c >= L'a' && c <= L'z')

  0004b	8d 41 9f	 lea	 eax, DWORD PTR [rcx-97]
  0004e	66 83 f8 19	 cmp	 ax, 25
  00052	77 2b		 ja	 SHORT $LN8@ParseStand
$LN36@ParseStand:

; 1372 :             *precision = -1;
; 1373 :             return (TRUE);
; 1374 :         }
; 1375 :         else if (__IS_ALPHA(format[0]) && __IS_DIGIT(format[1]) && format[2] == L'\0')

  00054	41 0f b7 41 02	 movzx	 eax, WORD PTR [r9+2]

; 1350 :         if (c >= L'0' && c <= L'9')

  00059	66 83 e8 30	 sub	 ax, 48			; 00000030H
  0005d	66 83 f8 09	 cmp	 ax, 9
  00061	77 1c		 ja	 SHORT $LN8@ParseStand

; 1372 :             *precision = -1;
; 1373 :             return (TRUE);
; 1374 :         }
; 1375 :         else if (__IS_ALPHA(format[0]) && __IS_DIGIT(format[1]) && format[2] == L'\0')

  00063	66 41 83 79 04
	00		 cmp	 WORD PTR [r9+4], 0
  00069	75 14		 jne	 SHORT $LN8@ParseStand

; 1376 :         {
; 1377 :             *format_type = format[0];

  0006b	66 89 0a	 mov	 WORD PTR [rdx], cx

; 1378 :             *precision = format[1] - L'0';

  0006e	41 0f b7 41 02	 movzx	 eax, WORD PTR [r9+2]
  00073	83 e8 30	 sub	 eax, 48			; 00000030H
  00076	41 89 00	 mov	 DWORD PTR [r8], eax

; 1389 :     }

  00079	b8 01 00 00 00	 mov	 eax, 1
  0007e	c3		 ret	 0
$LN8@ParseStand:

; 1341 :         if (c >= L'A' && c <= L'Z')

  0007f	66 41 83 fa 19	 cmp	 r10w, 25
  00084	76 09		 jbe	 SHORT $LN38@ParseStand

; 1342 :             return (TRUE);
; 1343 :         if (c >= L'a' && c <= L'z')

  00086	8d 41 9f	 lea	 eax, DWORD PTR [rcx-97]
  00089	66 83 f8 19	 cmp	 ax, 25
  0008d	77 48		 ja	 SHORT $LN10@ParseStand
$LN38@ParseStand:

; 1379 :             return (TRUE);
; 1380 :         }
; 1381 :         else if (__IS_ALPHA(format[0]) && __IS_DIGIT(format[1]) && __IS_DIGIT(format[2]) && format[3] == L'\0')

  0008f	41 0f b7 41 02	 movzx	 eax, WORD PTR [r9+2]

; 1350 :         if (c >= L'0' && c <= L'9')

  00094	66 83 e8 30	 sub	 ax, 48			; 00000030H
  00098	66 83 f8 09	 cmp	 ax, 9
  0009c	77 39		 ja	 SHORT $LN10@ParseStand

; 1379 :             return (TRUE);
; 1380 :         }
; 1381 :         else if (__IS_ALPHA(format[0]) && __IS_DIGIT(format[1]) && __IS_DIGIT(format[2]) && format[3] == L'\0')

  0009e	41 0f b7 41 04	 movzx	 eax, WORD PTR [r9+4]

; 1350 :         if (c >= L'0' && c <= L'9')

  000a3	66 83 e8 30	 sub	 ax, 48			; 00000030H
  000a7	66 83 f8 09	 cmp	 ax, 9
  000ab	77 2a		 ja	 SHORT $LN10@ParseStand

; 1379 :             return (TRUE);
; 1380 :         }
; 1381 :         else if (__IS_ALPHA(format[0]) && __IS_DIGIT(format[1]) && __IS_DIGIT(format[2]) && format[3] == L'\0')

  000ad	66 41 83 79 06
	00		 cmp	 WORD PTR [r9+6], 0
  000b3	75 22		 jne	 SHORT $LN10@ParseStand

; 1382 :         {
; 1383 :             *format_type = format[0];

  000b5	66 89 0a	 mov	 WORD PTR [rdx], cx

; 1384 :             *precision = (format[1] - L'0') * 10 + (format[2] - L'0');

  000b8	41 0f b7 41 02	 movzx	 eax, WORD PTR [r9+2]
  000bd	8d 0c 80	 lea	 ecx, DWORD PTR [rax+rax*4]
  000c0	41 0f b7 41 04	 movzx	 eax, WORD PTR [r9+4]
  000c5	8d 89 f8 fe ff
	ff		 lea	 ecx, DWORD PTR [rcx-264]
  000cb	8d 0c 48	 lea	 ecx, DWORD PTR [rax+rcx*2]

; 1389 :     }

  000ce	b8 01 00 00 00	 mov	 eax, 1
  000d3	41 89 08	 mov	 DWORD PTR [r8], ecx
  000d6	c3		 ret	 0
$LN10@ParseStand:

; 1385 :             return (TRUE);
; 1386 :         }
; 1387 :         else
; 1388 :             return (FALSE);

  000d7	33 c0		 xor	 eax, eax

; 1389 :     }

  000d9	c3		 ret	 0
$LN42@ParseStand:

; 1364 :         {
; 1365 :             *format_type = L'D';

  000da	b8 44 00 00 00	 mov	 eax, 68			; 00000044H
  000df	66 89 02	 mov	 WORD PTR [rdx], ax

; 1389 :     }

  000e2	b8 01 00 00 00	 mov	 eax, 1
  000e7	41 c7 00 ff ff
	ff ff		 mov	 DWORD PTR [r8], -1
  000ee	c3		 ret	 0
?ParseStandardFormat@Internal@Core@Math@Palmtree@@YAHPEB_WPEA_WPEAH@Z ENDP ; Palmtree::Math::Core::Internal::ParseStandardFormat
_TEXT	ENDS
; Function compile flags: /Ogtpy
; File z:\sources\lunor\repos\rougemeilland\palmtree.math.core.uint\palmtree.math.core.uint\pmc_tostring.cpp
;	COMDAT ?__IS_DIGIT@Internal@Core@Math@Palmtree@@YAH_W@Z
_TEXT	SEGMENT
c$ = 8
?__IS_DIGIT@Internal@Core@Math@Palmtree@@YAH_W@Z PROC	; Palmtree::Math::Core::Internal::__IS_DIGIT, COMDAT

; 1350 :         if (c >= L'0' && c <= L'9')

  00000	33 c0		 xor	 eax, eax
  00002	66 83 e9 30	 sub	 cx, 48			; 00000030H
  00006	66 83 f9 09	 cmp	 cx, 9
  0000a	0f 96 c0	 setbe	 al

; 1351 :             return (TRUE);
; 1352 :         return (FALSE);
; 1353 :     }

  0000d	c3		 ret	 0
?__IS_DIGIT@Internal@Core@Math@Palmtree@@YAH_W@Z ENDP	; Palmtree::Math::Core::Internal::__IS_DIGIT
_TEXT	ENDS
; Function compile flags: /Ogtpy
; File z:\sources\lunor\repos\rougemeilland\palmtree.math.core.uint\palmtree.math.core.uint\pmc_tostring.cpp
;	COMDAT ?__IS_ALPHA@Internal@Core@Math@Palmtree@@YAH_W@Z
_TEXT	SEGMENT
c$ = 8
?__IS_ALPHA@Internal@Core@Math@Palmtree@@YAH_W@Z PROC	; Palmtree::Math::Core::Internal::__IS_ALPHA, COMDAT

; 1341 :         if (c >= L'A' && c <= L'Z')

  00000	8d 41 bf	 lea	 eax, DWORD PTR [rcx-65]
  00003	66 83 f8 19	 cmp	 ax, 25
  00007	76 0d		 jbe	 SHORT $LN5@IS_ALPHA

; 1342 :             return (TRUE);
; 1343 :         if (c >= L'a' && c <= L'z')

  00009	66 83 e9 61	 sub	 cx, 97			; 00000061H
  0000d	66 83 f9 19	 cmp	 cx, 25
  00011	76 03		 jbe	 SHORT $LN5@IS_ALPHA

; 1345 :         return (FALSE);

  00013	33 c0		 xor	 eax, eax

; 1346 :     }

  00015	c3		 ret	 0
$LN5@IS_ALPHA:

; 1344 :             return (TRUE);

  00016	b8 01 00 00 00	 mov	 eax, 1

; 1346 :     }

  0001b	c3		 ret	 0
?__IS_ALPHA@Internal@Core@Math@Palmtree@@YAH_W@Z ENDP	; Palmtree::Math::Core::Internal::__IS_ALPHA
_TEXT	ENDS
; Function compile flags: /Ogtpy
; File z:\sources\lunor\repos\rougemeilland\palmtree.math.core.uint\palmtree.math.core.uint\pmc_tostring.cpp
;	COMDAT ?ToStringCustom@CustomFormatter@Internal@Core@Math@Palmtree@@YA_KDPEAU__tag_NUMBER_HEADER@2345@PEB_WPEBU__tag_PMC_NUMBER_FORMAT_INFO@2345@PEA_W_K@Z
_TEXT	SEGMENT
$T1 = 32
x_sign$ = 96
x_abs$ = 104
format$ = 112
format_option$ = 120
buffer$ = 128
buffer_size$ = 136
?ToStringCustom@CustomFormatter@Internal@Core@Math@Palmtree@@YA_KDPEAU__tag_NUMBER_HEADER@2345@PEB_WPEBU__tag_PMC_NUMBER_FORMAT_INFO@2345@PEA_W_K@Z PROC ; Palmtree::Math::Core::Internal::CustomFormatter::ToStringCustom, COMDAT

; 1313 :         {

  00000	48 83 ec 58	 sub	 rsp, 88			; 00000058H

; 1314 :             // 
; 1315 :             // %%2100*100%100*1000%(-1.23456789).ToString("0%0") => -12%3 
; 1316 :             // '#', '0', '.', ',''#', '0'
; 1317 :             // 1
; 1318 :             // 1
; 1319 :             // '.'',' '0', '#'  ',' 
; 1320 :             // '0''#''0'
; 1321 :             // '0''#''0'
; 1322 :             // '.' '0' '#''#' 
; 1323 :             //  '#', '0''+'
; 1324 :             // EE(+-)
; 1325 :             // (1.23456789).ToString("0.0E+#0  000") => 1.2E+34  568
; 1326 :             // E
; 1327 :             // (-0.0123456789).ToString("0.0E+0  000") => -1.2E-2  346
; 1328 :             // '.' (-0.0123456789).ToString("0.0 00.00") => -0.0 1235
; 1329 :             // ';'
; 1330 : 
; 1331 :             // c
; 1332 :             // 1010E
; 1333 : 
; 1334 :             throw NotSupportedException(L"ToString");

  00004	48 8d 15 00 00
	00 00		 lea	 rdx, OFFSET FLAT:??_C@_1DO@MFGCBHKN@?$PP?$KL?$PP?$LJ?$PP?$LP?$PP?$OA?$PP?x?$AA?$AP?$AAk?$PP?$II?$PP?$IL?$AAT?$AAo?$AAS?$AAt?$AAr?$AAi@
  0000b	48 8d 4c 24 20	 lea	 rcx, QWORD PTR $T1[rsp]
  00010	e8 00 00 00 00	 call	 ??0NotSupportedException@Internal@Core@Math@Palmtree@@QEAA@PEB_W@Z ; Palmtree::Math::Core::Internal::NotSupportedException::NotSupportedException
  00015	48 8d 15 00 00
	00 00		 lea	 rdx, OFFSET FLAT:_TI2?AVNotSupportedException@Internal@Core@Math@Palmtree@@
  0001c	48 8d 4c 24 20	 lea	 rcx, QWORD PTR $T1[rsp]
  00021	e8 00 00 00 00	 call	 _CxxThrowException
  00026	cc		 int	 3
$LN3@ToStringCu:
?ToStringCustom@CustomFormatter@Internal@Core@Math@Palmtree@@YA_KDPEAU__tag_NUMBER_HEADER@2345@PEB_WPEBU__tag_PMC_NUMBER_FORMAT_INFO@2345@PEA_W_K@Z ENDP ; Palmtree::Math::Core::Internal::CustomFormatter::ToStringCustom
_TEXT	ENDS
; Function compile flags: /Ogtpy
; File z:\sources\lunor\repos\rougemeilland\palmtree.math.core.uint\palmtree.math.core.uint\pmc_tostring.cpp
; File z:\sources\lunor\repos\rougemeilland\palmtree.math.core.uint\palmtree.math.core.uint\pmc_stringio.h
; File z:\sources\lunor\repos\rougemeilland\palmtree.math.core.uint\palmtree.math.core.uint\pmc_tostring.cpp
; File z:\sources\lunor\repos\rougemeilland\palmtree.math.core.uint\palmtree.math.core.uint\pmc_stringio.h
; File z:\sources\lunor\repos\rougemeilland\palmtree.math.core.uint\palmtree.math.core.uint\pmc_tostring.cpp
; File z:\sources\lunor\repos\rougemeilland\palmtree.math.core.uint\palmtree.math.core.uint\pmc_inline_func.h
; File z:\sources\lunor\repos\rougemeilland\palmtree.math.core.uint\palmtree.math.core.uint\pmc_tostring.cpp
; File z:\sources\lunor\repos\rougemeilland\palmtree.math.core.uint\palmtree.math.core.uint\pmc_inline_func.h
; File z:\sources\lunor\repos\rougemeilland\palmtree.math.core.uint\palmtree.math.core.uint\pmc_tostring.cpp
; File z:\sources\lunor\repos\rougemeilland\palmtree.math.core.uint\palmtree.math.core.uint\pmc_inline_func.h
; File z:\sources\lunor\repos\rougemeilland\palmtree.math.core.uint\palmtree.math.core.uint\pmc_tostring.cpp
; File z:\sources\lunor\repos\rougemeilland\palmtree.math.core.uint\palmtree.math.core.uint\pmc_stringio.h
; File z:\sources\lunor\repos\rougemeilland\palmtree.math.core.uint\palmtree.math.core.uint\pmc_tostring.cpp
; File z:\sources\lunor\repos\rougemeilland\palmtree.math.core.uint\palmtree.math.core.uint\pmc_stringio.h
; File z:\sources\lunor\repos\rougemeilland\palmtree.math.core.uint\palmtree.math.core.uint\pmc_tostring.cpp
;	COMDAT ?ToStringX@HexaDecimalFormatter@Internal@Core@Math@Palmtree@@YA_KDPEAU__tag_NUMBER_HEADER@2345@_WHPEBU__tag_PMC_NUMBER_FORMAT_INFO@2345@PEA_W_K@Z
_TEXT	SEGMENT
root$1 = 40
writer$ = 72
x_sign$ = 160
x_abs$ = 168
format_type$ = 176
precision$ = 184
format_option$ = 192
buffer$ = 200
buffer_size$ = 208
?ToStringX@HexaDecimalFormatter@Internal@Core@Math@Palmtree@@YA_KDPEAU__tag_NUMBER_HEADER@2345@_WHPEBU__tag_PMC_NUMBER_FORMAT_INFO@2345@PEA_W_K@Z PROC ; Palmtree::Math::Core::Internal::HexaDecimalFormatter::ToStringX, COMDAT

; 1182 :         {

  00000	48 8b c4	 mov	 rax, rsp
  00003	66 44 89 40 18	 mov	 WORD PTR [rax+24], r8w
  00008	57		 push	 rdi
  00009	41 54		 push	 r12
  0000b	41 55		 push	 r13
  0000d	41 56		 push	 r14
  0000f	41 57		 push	 r15
  00011	48 83 ec 70	 sub	 rsp, 112		; 00000070H
  00015	48 c7 40 88 fe
	ff ff ff	 mov	 QWORD PTR [rax-120], -2
  0001d	48 89 58 08	 mov	 QWORD PTR [rax+8], rbx
  00021	48 89 68 10	 mov	 QWORD PTR [rax+16], rbp
  00025	48 89 70 20	 mov	 QWORD PTR [rax+32], rsi
  00029	45 0f b7 e0	 movzx	 r12d, r8w
  0002d	48 8b ea	 mov	 rbp, rdx
  00030	0f b6 f9	 movzx	 edi, cl
; File z:\sources\lunor\repos\rougemeilland\palmtree.math.core.uint\palmtree.math.core.uint\pmc_stringio.h

; 209  :             : StringWriter(buffer, buffer, buffer != nullptr ? buffer + size : nullptr)

  00033	41 bd 01 00 00
	00		 mov	 r13d, 1
  00039	45 3b cd	 cmp	 r9d, r13d
  0003c	45 0f 4d e9	 cmovge	 r13d, r9d
  00040	45 33 ff	 xor	 r15d, r15d
  00043	48 8b 94 24 c8
	00 00 00	 mov	 rdx, QWORD PTR buffer$[rsp]
  0004b	48 85 d2	 test	 rdx, rdx
  0004e	74 0e		 je	 SHORT $LN31@ToStringX
  00050	48 8b 84 24 d0
	00 00 00	 mov	 rax, QWORD PTR buffer_size$[rsp]
  00058	48 8d 04 42	 lea	 rax, QWORD PTR [rdx+rax*2]
  0005c	eb 03		 jmp	 SHORT $LN32@ToStringX
$LN31@ToStringX:
  0005e	49 8b c7	 mov	 rax, r15
$LN32@ToStringX:

; 201  :             _p = p;

  00061	48 89 54 24 50	 mov	 QWORD PTR writer$[rsp+8], rdx

; 202  :             _sob = sob;

  00066	48 89 54 24 58	 mov	 QWORD PTR writer$[rsp+16], rdx

; 203  :             _eob = eob;

  0006b	48 89 44 24 60	 mov	 QWORD PTR writer$[rsp+24], rax

; 204  :             _written = 0;

  00070	4c 89 7c 24 68	 mov	 QWORD PTR writer$[rsp+32], r15

; 210  :         {

  00075	48 8d 05 00 00
	00 00		 lea	 rax, OFFSET FLAT:??_7StringWriter@Internal@Core@Math@Palmtree@@6B@
  0007c	48 89 44 24 48	 mov	 QWORD PTR writer$[rsp], rax
; File z:\sources\lunor\repos\rougemeilland\palmtree.math.core.uint\palmtree.math.core.uint\pmc_tostring.cpp

; 1187 :             if (x_abs->IS_ZERO)

  00081	f6 45 08 01	 test	 BYTE PTR [rbp+8], 1
  00085	74 31		 je	 SHORT $LN11@ToStringX

; 1188 :             {
; 1189 :                 // x == 0 
; 1190 :                 // precision  '0' (precision == 0  1 )
; 1191 : 
; 1192 :                 writer.Write(L'0', precision);

  00087	49 63 fd	 movsxd	 rdi, r13d
; File z:\sources\lunor\repos\rougemeilland\palmtree.math.core.uint\palmtree.math.core.uint\pmc_stringio.h

; 227  :             while (count > 0)

  0008a	45 85 ed	 test	 r13d, r13d
  0008d	74 21		 je	 SHORT $LN37@ToStringX
  0008f	be 30 00 00 00	 mov	 esi, 48			; 00000030H
$LL36@ToStringX:

; 228  :             {
; 229  :                 Write(c);

  00094	8b d6		 mov	 edx, esi
  00096	48 8d 4c 24 48	 lea	 rcx, QWORD PTR writer$[rsp]
  0009b	ff 50 08	 call	 QWORD PTR [rax+8]

; 230  :                 --count;

  0009e	48 83 ef 01	 sub	 rdi, 1

; 227  :             while (count > 0)

  000a2	74 07		 je	 SHORT $LN95@ToStringX
  000a4	48 8b 44 24 48	 mov	 rax, QWORD PTR writer$[rsp]
  000a9	eb e9		 jmp	 SHORT $LL36@ToStringX
$LN95@ToStringX:
  000ab	4c 8b 7c 24 68	 mov	 r15, QWORD PTR writer$[rsp+32]
$LN37@ToStringX:
; File z:\sources\lunor\repos\rougemeilland\palmtree.math.core.uint\palmtree.math.core.uint\pmc_tostring.cpp

; 1193 :                 return (writer.GetLength());

  000b0	49 8b c7	 mov	 rax, r15
  000b3	e9 f7 01 00 00	 jmp	 $LN12@ToStringX
$LN11@ToStringX:

; 1194 :             }
; 1195 :             else
; 1196 :             {
; 1197 :                 // x != 0 
; 1198 :                 ResourceHolderUINT root;

  000b8	48 8d 4c 24 28	 lea	 rcx, QWORD PTR root$1[rsp]
  000bd	e8 00 00 00 00	 call	 ??0ResourceHolderUINT@Internal@Core@Math@Palmtree@@QEAA@XZ ; Palmtree::Math::Core::Internal::ResourceHolderUINT::ResourceHolderUINT
  000c2	90		 npad	 1

; 1199 :                 __UNIT_TYPE temp_buf_bit_count = x_abs->UNIT_BIT_COUNT + 4;

  000c3	4c 8b 75 20	 mov	 r14, QWORD PTR [rbp+32]

; 1200 :                 __UNIT_TYPE* temp_buf = root.AllocateBlock(temp_buf_bit_count);

  000c7	49 8d 56 04	 lea	 rdx, QWORD PTR [r14+4]
  000cb	48 8d 4c 24 28	 lea	 rcx, QWORD PTR root$1[rsp]
  000d0	e8 00 00 00 00	 call	 ?AllocateBlock@ResourceHolderUINT@Internal@Core@Math@Palmtree@@QEAAPEA_K_K@Z ; Palmtree::Math::Core::Internal::ResourceHolderUINT::AllocateBlock
  000d5	48 8b d8	 mov	 rbx, rax

; 1201 :                 __UNIT_TYPE output_len;
; 1202 :                 wchar_t filling_char;
; 1203 :                 if (x_sign >= 0)

  000d8	48 8b 4d 18	 mov	 rcx, QWORD PTR [rbp+24]
  000dc	40 84 ff	 test	 dil, dil
  000df	48 8b f8	 mov	 rdi, rax
  000e2	78 6b		 js	 SHORT $LN13@ToStringX
; File z:\sources\lunor\repos\rougemeilland\palmtree.math.core.uint\palmtree.math.core.uint\pmc_inline_func.h

; 67   :             __movsq(d, s, count);

  000e4	48 8b 75 40	 mov	 rsi, QWORD PTR [rbp+64]
  000e8	f3 48 a5	 rep movsq

; 157  :             return ((u + v - 1) / v);

  000eb	49 8d 56 43	 lea	 rdx, QWORD PTR [r14+67]
  000ef	48 c1 ea 06	 shr	 rdx, 6
; File z:\sources\lunor\repos\rougemeilland\palmtree.math.core.uint\palmtree.math.core.uint\pmc_tostring.cpp

; 1209 :                     output_len = temp_buf_word_count * (__UNIT_TYPE_BIT_COUNT / 4);

  000f3	48 8b fa	 mov	 rdi, rdx
  000f6	48 c1 e7 04	 shl	 rdi, 4

; 1210 :                     unsigned char* ptr = (unsigned char*)&temp_buf[temp_buf_word_count] - 1;

  000fa	48 8d 34 d5 ff
	ff ff ff	 lea	 rsi, QWORD PTR [rdx*8-1]
  00102	48 03 f0	 add	 rsi, rax

; 1211 :                     while (ptr >= (unsigned char*)temp_buf)

  00105	48 3b f0	 cmp	 rsi, rax
  00108	72 3b		 jb	 SHORT $LN63@ToStringX
  0010a	0f b6 0e	 movzx	 ecx, BYTE PTR [rsi]
  0010d	48 8d 56 ff	 lea	 rdx, QWORD PTR [rsi-1]
$LL2@ToStringX:

; 1212 :                     {
; 1213 :                         if ((ptr[0] >> 4) != 0 || (ptr[0] & 0xf) >= 0x8)

  00111	f6 c1 f0	 test	 cl, 240			; 000000f0H
  00114	75 2f		 jne	 SHORT $LN63@ToStringX
  00116	0f b6 c1	 movzx	 eax, cl
  00119	24 0f		 and	 al, 15
  0011b	3c 08		 cmp	 al, 8
  0011d	73 26		 jae	 SHORT $LN63@ToStringX

; 1214 :                             break;
; 1215 :                         //  '0'  '0''7'
; 1216 :                         //  '0' 
; 1217 :                         --output_len;

  0011f	48 ff cf	 dec	 rdi

; 1218 : 
; 1219 :                         if (&ptr[-1] < (unsigned char*)temp_buf)

  00122	48 3b d3	 cmp	 rdx, rbx
  00125	72 1e		 jb	 SHORT $LN63@ToStringX

; 1220 :                             break;
; 1221 : 
; 1222 :                         if (ptr[0] != 0 || (ptr[-1] >> 4) >= 0x8)

  00127	84 c9		 test	 cl, cl
  00129	75 1a		 jne	 SHORT $LN63@ToStringX
  0012b	0f b6 0a	 movzx	 ecx, BYTE PTR [rdx]
  0012e	0f b6 c1	 movzx	 eax, cl
  00131	24 f0		 and	 al, 240			; 000000f0H
  00133	3c 80		 cmp	 al, 128			; 00000080H
  00135	73 0e		 jae	 SHORT $LN63@ToStringX

; 1223 :                             break;
; 1224 :                         //  '0'  '0''7'
; 1225 :                         //  '0' 
; 1226 :                         --output_len;

  00137	48 ff cf	 dec	 rdi

; 1227 : 
; 1228 :                         --ptr;

  0013a	48 ff ce	 dec	 rsi
  0013d	48 ff ca	 dec	 rdx

; 1211 :                     while (ptr >= (unsigned char*)temp_buf)

  00140	48 3b f3	 cmp	 rsi, rbx
  00143	73 cc		 jae	 SHORT $LL2@ToStringX
$LN63@ToStringX:

; 1229 :                     }
; 1230 :                     filling_char = L'0';

  00145	be 30 00 00 00	 mov	 esi, 48			; 00000030H

; 1231 :                 }
; 1232 :                 else

  0014a	e9 a3 00 00 00	 jmp	 $LN14@ToStringX
$LN13@ToStringX:

; 1233 :                 {
; 1234 :                     // x < 0 
; 1235 : 
; 1236 :                     __UNIT_TYPE *in_ptr = x_abs->BLOCK;

  0014f	48 8b 55 40	 mov	 rdx, QWORD PTR [rbp+64]

; 1237 :                     __UNIT_TYPE *out_ptr = temp_buf;
; 1238 :                     __UNIT_TYPE count = x_abs->UNIT_WORD_COUNT;
; 1239 :                     char carry = 1;

  00153	40 b6 01	 mov	 sil, 1

; 1240 :                     while (count > 0)

  00156	48 85 c9	 test	 rcx, rcx
  00159	74 2c		 je	 SHORT $LN5@ToStringX
  0015b	0f 1f 44 00 00	 npad	 5
$LL4@ToStringX:

; 1241 :                     {
; 1242 :                         carry = _ADD_UNIT(carry, ~*in_ptr, 0, out_ptr);

  00160	48 8b 02	 mov	 rax, QWORD PTR [rdx]
  00163	48 f7 d0	 not	 rax
; File z:\sources\lunor\repos\rougemeilland\palmtree.math.core.uint\palmtree.math.core.uint\pmc_inline_func.h

; 180  :             return (_addcarry_u64(carry, u, v, w));

  00166	40 80 c6 ff	 add	 sil, -1
  0016a	48 83 d0 00	 adc	 rax, 0
  0016e	40 0f 92 c6	 setb	 sil
  00172	48 89 07	 mov	 QWORD PTR [rdi], rax
; File z:\sources\lunor\repos\rougemeilland\palmtree.math.core.uint\palmtree.math.core.uint\pmc_tostring.cpp

; 1243 :                         ++in_ptr;

  00175	48 8d 52 08	 lea	 rdx, QWORD PTR [rdx+8]

; 1244 :                         ++out_ptr;

  00179	48 8d 7f 08	 lea	 rdi, QWORD PTR [rdi+8]

; 1245 :                         --count;

  0017d	48 83 e9 01	 sub	 rcx, 1

; 1240 :                     while (count > 0)

  00181	75 dd		 jne	 SHORT $LL4@ToStringX
  00183	48 8b 4d 18	 mov	 rcx, QWORD PTR [rbp+24]
$LN5@ToStringX:

; 1246 :                     }
; 1247 :                     output_len = x_abs->UNIT_WORD_COUNT * (__UNIT_TYPE_BIT_COUNT / 4);

  00187	48 8b f9	 mov	 rdi, rcx
  0018a	48 c1 e7 04	 shl	 rdi, 4

; 1248 :                     unsigned char* ptr = (unsigned char*)&temp_buf[x_abs->UNIT_WORD_COUNT] - 1;

  0018e	48 8d 53 ff	 lea	 rdx, QWORD PTR [rbx-1]
  00192	48 8d 14 ca	 lea	 rdx, QWORD PTR [rdx+rcx*8]

; 1249 :                     while (ptr >= (unsigned char*)temp_buf)

  00196	48 3b d3	 cmp	 rdx, rbx
  00199	72 44		 jb	 SHORT $LN66@ToStringX
  0019b	0f b6 0a	 movzx	 ecx, BYTE PTR [rdx]
