; Listing generated by Microsoft (R) Optimizing Compiler Version 19.16.27027.1 

include listing.inc

INCLUDELIB MSVCRT
INCLUDELIB OLDNAMES

PUBLIC	?configuration_info@Internal@Core@Math@Palmtree@@3U__tag_PMC_CONFIGURATION_INFO@1234@A ; Palmtree::Math::Core::Internal::configuration_info
_BSS	SEGMENT
?configuration_info@Internal@Core@Math@Palmtree@@3U__tag_PMC_CONFIGURATION_INFO@1234@A DB 01H DUP (?) ; Palmtree::Math::Core::Internal::configuration_info
_BSS	ENDS
PUBLIC	PMC_UINT_Initialize
PUBLIC	?PMC_GetConfigurationSettings@Internal@Core@Math@Palmtree@@YAHPEB_WPEA_WHPEAH@Z ; Palmtree::Math::Core::Internal::PMC_GetConfigurationSettings
PUBLIC	??_C@_1BC@IAEPHGOI@?$AAC?$AAO?$AAM?$AAP?$AAI?$AAL?$AAE?$AAR@ ; `string'
PUBLIC	??_C@_1BC@CNHMMALG@?$AAP?$AAL?$AAA?$AAT?$AAF?$AAO?$AAR?$AAM@ ; `string'
EXTRN	__imp_lstrcmpW:PROC
EXTRN	__imp_lstrcpyW:PROC
EXTRN	?GetCPUInfo@Internal@Core@Math@Palmtree@@YAXPEAU_tag_PROCESSOR_FEATURES@1234@@Z:PROC ; Palmtree::Math::Core::Internal::GetCPUInfo
EXTRN	?Initialize_Memory@Internal@Core@Math@Palmtree@@YAHPEAU_tag_PROCESSOR_FEATURES@1234@@Z:PROC ; Palmtree::Math::Core::Internal::Initialize_Memory
EXTRN	?Initialize_From@Internal@Core@Math@Palmtree@@YAHPEAU_tag_PROCESSOR_FEATURES@1234@@Z:PROC ; Palmtree::Math::Core::Internal::Initialize_From
EXTRN	?Initialize_To@Internal@Core@Math@Palmtree@@YAHPEAU_tag_PROCESSOR_FEATURES@1234@@Z:PROC ; Palmtree::Math::Core::Internal::Initialize_To
EXTRN	?Initialize_Add@Internal@Core@Math@Palmtree@@YAHPEAU_tag_PROCESSOR_FEATURES@1234@@Z:PROC ; Palmtree::Math::Core::Internal::Initialize_Add
EXTRN	?Initialize_Subtruct@Internal@Core@Math@Palmtree@@YAHPEAU_tag_PROCESSOR_FEATURES@1234@@Z:PROC ; Palmtree::Math::Core::Internal::Initialize_Subtruct
EXTRN	?Initialize_Multiply@Internal@Core@Math@Palmtree@@YAHPEAU_tag_PROCESSOR_FEATURES@1234@@Z:PROC ; Palmtree::Math::Core::Internal::Initialize_Multiply
EXTRN	?Initialize_DivRem@Internal@Core@Math@Palmtree@@YAHPEAU_tag_PROCESSOR_FEATURES@1234@@Z:PROC ; Palmtree::Math::Core::Internal::Initialize_DivRem
EXTRN	?Initialize_Shift@Internal@Core@Math@Palmtree@@YAHPEAU_tag_PROCESSOR_FEATURES@1234@@Z:PROC ; Palmtree::Math::Core::Internal::Initialize_Shift
EXTRN	?Initialize_BitwiseAnd@Internal@Core@Math@Palmtree@@YAHPEAU_tag_PROCESSOR_FEATURES@1234@@Z:PROC ; Palmtree::Math::Core::Internal::Initialize_BitwiseAnd
EXTRN	?Initialize_BitwiseOr@Internal@Core@Math@Palmtree@@YAHPEAU_tag_PROCESSOR_FEATURES@1234@@Z:PROC ; Palmtree::Math::Core::Internal::Initialize_BitwiseOr
EXTRN	?Initialize_ExclusiveOr@Internal@Core@Math@Palmtree@@YAHPEAU_tag_PROCESSOR_FEATURES@1234@@Z:PROC ; Palmtree::Math::Core::Internal::Initialize_ExclusiveOr
EXTRN	?Initialize_Compare@Internal@Core@Math@Palmtree@@YAHPEAU_tag_PROCESSOR_FEATURES@1234@@Z:PROC ; Palmtree::Math::Core::Internal::Initialize_Compare
EXTRN	?Initialize_Equals@Internal@Core@Math@Palmtree@@YAHPEAU_tag_PROCESSOR_FEATURES@1234@@Z:PROC ; Palmtree::Math::Core::Internal::Initialize_Equals
EXTRN	?Initialize_ToString@Internal@Core@Math@Palmtree@@YAHPEAU_tag_PROCESSOR_FEATURES@1234@@Z:PROC ; Palmtree::Math::Core::Internal::Initialize_ToString
EXTRN	?Initialize_Parse@Internal@Core@Math@Palmtree@@YAHPEAU_tag_PROCESSOR_FEATURES@1234@@Z:PROC ; Palmtree::Math::Core::Internal::Initialize_Parse
EXTRN	?Initialize_GreatestCommonDivisor@Internal@Core@Math@Palmtree@@YAHPEAU_tag_PROCESSOR_FEATURES@1234@@Z:PROC ; Palmtree::Math::Core::Internal::Initialize_GreatestCommonDivisor
EXTRN	?Initialize_Pow@Internal@Core@Math@Palmtree@@YAHPEAU_tag_PROCESSOR_FEATURES@1234@@Z:PROC ; Palmtree::Math::Core::Internal::Initialize_Pow
EXTRN	?Initialize_ModPow@Internal@Core@Math@Palmtree@@YAHPEAU_tag_PROCESSOR_FEATURES@1234@@Z:PROC ; Palmtree::Math::Core::Internal::Initialize_ModPow
EXTRN	?PMC_GetStatisticsInfo@Internal@Core@Math@Palmtree@@YAXPEAU__tag_PMC_STATISTICS_INFO@1234@@Z:PROC ; Palmtree::Math::Core::Internal::PMC_GetStatisticsInfo
EXTRN	?PMC_From_I@Internal@Core@Math@Palmtree@@YAPEAU__tag_PMC_HANDLE_UINT@1234@I@Z:PROC ; Palmtree::Math::Core::Internal::PMC_From_I
EXTRN	?PMC_From_L@Internal@Core@Math@Palmtree@@YAPEAU__tag_PMC_HANDLE_UINT@1234@_K@Z:PROC ; Palmtree::Math::Core::Internal::PMC_From_L
EXTRN	?PMC_Dispose@Internal@Core@Math@Palmtree@@YAXPEAU__tag_PMC_HANDLE_UINT@1234@@Z:PROC ; Palmtree::Math::Core::Internal::PMC_Dispose
EXTRN	?PMC_GetConstantValue_I@Internal@Core@Math@Palmtree@@YAPEAU__tag_PMC_HANDLE_UINT@1234@H@Z:PROC ; Palmtree::Math::Core::Internal::PMC_GetConstantValue_I
EXTRN	?PMC_FromByteArray@Internal@Core@Math@Palmtree@@YAPEAU__tag_PMC_HANDLE_UINT@1234@PEBE_K@Z:PROC ; Palmtree::Math::Core::Internal::PMC_FromByteArray
EXTRN	?PMC_ToByteArray@Internal@Core@Math@Palmtree@@YA_KPEAU__tag_PMC_HANDLE_UINT@1234@PEAE_K@Z:PROC ; Palmtree::Math::Core::Internal::PMC_ToByteArray
EXTRN	?PMC_Clone_X@Internal@Core@Math@Palmtree@@YAPEAU__tag_PMC_HANDLE_UINT@1234@PEAU51234@@Z:PROC ; Palmtree::Math::Core::Internal::PMC_Clone_X
EXTRN	?PMC_GetAllocatedMemorySize@Internal@Core@Math@Palmtree@@YA_KXZ:PROC ; Palmtree::Math::Core::Internal::PMC_GetAllocatedMemorySize
EXTRN	?PMC_To_X_I@Internal@Core@Math@Palmtree@@YAIPEAU__tag_PMC_HANDLE_UINT@1234@@Z:PROC ; Palmtree::Math::Core::Internal::PMC_To_X_I
EXTRN	?PMC_To_X_L@Internal@Core@Math@Palmtree@@YA_KPEAU__tag_PMC_HANDLE_UINT@1234@@Z:PROC ; Palmtree::Math::Core::Internal::PMC_To_X_L
EXTRN	?PMC_InitializeNumberFormatInfo@Internal@Core@Math@Palmtree@@YAXPEAU__tag_PMC_NUMBER_FORMAT_INFO@1234@@Z:PROC ; Palmtree::Math::Core::Internal::PMC_InitializeNumberFormatInfo
EXTRN	?PMC_ToString@Internal@Core@Math@Palmtree@@YA_KPEAU__tag_PMC_HANDLE_UINT@1234@PEB_WPEBU__tag_PMC_NUMBER_FORMAT_INFO@1234@PEA_W_K@Z:PROC ; Palmtree::Math::Core::Internal::PMC_ToString
EXTRN	?PMC_TryParse@Internal@Core@Math@Palmtree@@YAHPEB_WHPEBU__tag_PMC_NUMBER_FORMAT_INFO@1234@PEAPEAU__tag_PMC_HANDLE_UINT@1234@PEAI@Z:PROC ; Palmtree::Math::Core::Internal::PMC_TryParse
EXTRN	?PMC_Add_I_X@Internal@Core@Math@Palmtree@@YAPEAU__tag_PMC_HANDLE_UINT@1234@IPEAU51234@@Z:PROC ; Palmtree::Math::Core::Internal::PMC_Add_I_X
EXTRN	?PMC_Add_L_X@Internal@Core@Math@Palmtree@@YAPEAU__tag_PMC_HANDLE_UINT@1234@_KPEAU51234@@Z:PROC ; Palmtree::Math::Core::Internal::PMC_Add_L_X
EXTRN	?PMC_Add_X_I@Internal@Core@Math@Palmtree@@YAPEAU__tag_PMC_HANDLE_UINT@1234@PEAU51234@I@Z:PROC ; Palmtree::Math::Core::Internal::PMC_Add_X_I
EXTRN	?PMC_Add_X_L@Internal@Core@Math@Palmtree@@YAPEAU__tag_PMC_HANDLE_UINT@1234@PEAU51234@_K@Z:PROC ; Palmtree::Math::Core::Internal::PMC_Add_X_L
EXTRN	?PMC_Add_X_X@Internal@Core@Math@Palmtree@@YAPEAU__tag_PMC_HANDLE_UINT@1234@PEAU51234@0@Z:PROC ; Palmtree::Math::Core::Internal::PMC_Add_X_X
EXTRN	?PMC_Subtruct_I_X@Internal@Core@Math@Palmtree@@YAIIPEAU__tag_PMC_HANDLE_UINT@1234@@Z:PROC ; Palmtree::Math::Core::Internal::PMC_Subtruct_I_X
EXTRN	?PMC_Subtruct_L_X@Internal@Core@Math@Palmtree@@YA_K_KPEAU__tag_PMC_HANDLE_UINT@1234@@Z:PROC ; Palmtree::Math::Core::Internal::PMC_Subtruct_L_X
EXTRN	?PMC_Subtruct_X_I@Internal@Core@Math@Palmtree@@YAPEAU__tag_PMC_HANDLE_UINT@1234@PEAU51234@I@Z:PROC ; Palmtree::Math::Core::Internal::PMC_Subtruct_X_I
EXTRN	?PMC_Subtruct_X_L@Internal@Core@Math@Palmtree@@YAPEAU__tag_PMC_HANDLE_UINT@1234@PEAU51234@_K@Z:PROC ; Palmtree::Math::Core::Internal::PMC_Subtruct_X_L
EXTRN	?PMC_Subtruct_X_X@Internal@Core@Math@Palmtree@@YAPEAU__tag_PMC_HANDLE_UINT@1234@PEAU51234@0@Z:PROC ; Palmtree::Math::Core::Internal::PMC_Subtruct_X_X
EXTRN	?PMC_Multiply_I_X@Internal@Core@Math@Palmtree@@YAPEAU__tag_PMC_HANDLE_UINT@1234@IPEAU51234@@Z:PROC ; Palmtree::Math::Core::Internal::PMC_Multiply_I_X
EXTRN	?PMC_Multiply_L_X@Internal@Core@Math@Palmtree@@YAPEAU__tag_PMC_HANDLE_UINT@1234@_KPEAU51234@@Z:PROC ; Palmtree::Math::Core::Internal::PMC_Multiply_L_X
EXTRN	?PMC_Multiply_X_I@Internal@Core@Math@Palmtree@@YAPEAU__tag_PMC_HANDLE_UINT@1234@PEAU51234@I@Z:PROC ; Palmtree::Math::Core::Internal::PMC_Multiply_X_I
EXTRN	?PMC_Multiply_X_L@Internal@Core@Math@Palmtree@@YAPEAU__tag_PMC_HANDLE_UINT@1234@PEAU51234@_K@Z:PROC ; Palmtree::Math::Core::Internal::PMC_Multiply_X_L
EXTRN	?PMC_Multiply_X_X@Internal@Core@Math@Palmtree@@YAPEAU__tag_PMC_HANDLE_UINT@1234@PEAU51234@0@Z:PROC ; Palmtree::Math::Core::Internal::PMC_Multiply_X_X
EXTRN	?PMC_DivRem_I_X@Internal@Core@Math@Palmtree@@YAIIPEAU__tag_PMC_HANDLE_UINT@1234@PEAI@Z:PROC ; Palmtree::Math::Core::Internal::PMC_DivRem_I_X
EXTRN	?PMC_DivRem_L_X@Internal@Core@Math@Palmtree@@YA_K_KPEAU__tag_PMC_HANDLE_UINT@1234@PEA_K@Z:PROC ; Palmtree::Math::Core::Internal::PMC_DivRem_L_X
EXTRN	?PMC_DivRem_X_I@Internal@Core@Math@Palmtree@@YAIPEAU__tag_PMC_HANDLE_UINT@1234@IPEAPEAU51234@@Z:PROC ; Palmtree::Math::Core::Internal::PMC_DivRem_X_I
EXTRN	?PMC_DivRem_X_L@Internal@Core@Math@Palmtree@@YA_KPEAU__tag_PMC_HANDLE_UINT@1234@_KPEAPEAU51234@@Z:PROC ; Palmtree::Math::Core::Internal::PMC_DivRem_X_L
EXTRN	?PMC_DivRem_X_X@Internal@Core@Math@Palmtree@@YAPEAU__tag_PMC_HANDLE_UINT@1234@PEAU51234@0PEAPEAU51234@@Z:PROC ; Palmtree::Math::Core::Internal::PMC_DivRem_X_X
EXTRN	?PMC_RightShift_X_I@Internal@Core@Math@Palmtree@@YAPEAU__tag_PMC_HANDLE_UINT@1234@PEAU51234@H@Z:PROC ; Palmtree::Math::Core::Internal::PMC_RightShift_X_I
EXTRN	?PMC_LeftShift_X_I@Internal@Core@Math@Palmtree@@YAPEAU__tag_PMC_HANDLE_UINT@1234@PEAU51234@H@Z:PROC ; Palmtree::Math::Core::Internal::PMC_LeftShift_X_I
EXTRN	?PMC_BitwiseAnd_I_X@Internal@Core@Math@Palmtree@@YAIIPEAU__tag_PMC_HANDLE_UINT@1234@@Z:PROC ; Palmtree::Math::Core::Internal::PMC_BitwiseAnd_I_X
EXTRN	?PMC_BitwiseAnd_L_X@Internal@Core@Math@Palmtree@@YA_K_KPEAU__tag_PMC_HANDLE_UINT@1234@@Z:PROC ; Palmtree::Math::Core::Internal::PMC_BitwiseAnd_L_X
EXTRN	?PMC_BitwiseAnd_X_I@Internal@Core@Math@Palmtree@@YAIPEAU__tag_PMC_HANDLE_UINT@1234@I@Z:PROC ; Palmtree::Math::Core::Internal::PMC_BitwiseAnd_X_I
EXTRN	?PMC_BitwiseAnd_X_L@Internal@Core@Math@Palmtree@@YA_KPEAU__tag_PMC_HANDLE_UINT@1234@_K@Z:PROC ; Palmtree::Math::Core::Internal::PMC_BitwiseAnd_X_L
EXTRN	?PMC_BitwiseAnd_X_X@Internal@Core@Math@Palmtree@@YAPEAU__tag_PMC_HANDLE_UINT@1234@PEAU51234@0@Z:PROC ; Palmtree::Math::Core::Internal::PMC_BitwiseAnd_X_X
EXTRN	?PMC_BitwiseOr_I_X@Internal@Core@Math@Palmtree@@YAPEAU__tag_PMC_HANDLE_UINT@1234@IPEAU51234@@Z:PROC ; Palmtree::Math::Core::Internal::PMC_BitwiseOr_I_X
EXTRN	?PMC_BitwiseOr_L_X@Internal@Core@Math@Palmtree@@YAPEAU__tag_PMC_HANDLE_UINT@1234@_KPEAU51234@@Z:PROC ; Palmtree::Math::Core::Internal::PMC_BitwiseOr_L_X
EXTRN	?PMC_BitwiseOr_X_I@Internal@Core@Math@Palmtree@@YAPEAU__tag_PMC_HANDLE_UINT@1234@PEAU51234@I@Z:PROC ; Palmtree::Math::Core::Internal::PMC_BitwiseOr_X_I
EXTRN	?PMC_BitwiseOr_X_L@Internal@Core@Math@Palmtree@@YAPEAU__tag_PMC_HANDLE_UINT@1234@PEAU51234@_K@Z:PROC ; Palmtree::Math::Core::Internal::PMC_BitwiseOr_X_L
EXTRN	?PMC_BitwiseOr_X_X@Internal@Core@Math@Palmtree@@YAPEAU__tag_PMC_HANDLE_UINT@1234@PEAU51234@0@Z:PROC ; Palmtree::Math::Core::Internal::PMC_BitwiseOr_X_X
EXTRN	?PMC_ExclusiveOr_I_X@Internal@Core@Math@Palmtree@@YAPEAU__tag_PMC_HANDLE_UINT@1234@IPEAU51234@@Z:PROC ; Palmtree::Math::Core::Internal::PMC_ExclusiveOr_I_X
EXTRN	?PMC_ExclusiveOr_L_X@Internal@Core@Math@Palmtree@@YAPEAU__tag_PMC_HANDLE_UINT@1234@_KPEAU51234@@Z:PROC ; Palmtree::Math::Core::Internal::PMC_ExclusiveOr_L_X
EXTRN	?PMC_ExclusiveOr_X_I@Internal@Core@Math@Palmtree@@YAPEAU__tag_PMC_HANDLE_UINT@1234@PEAU51234@I@Z:PROC ; Palmtree::Math::Core::Internal::PMC_ExclusiveOr_X_I
EXTRN	?PMC_ExclusiveOr_X_L@Internal@Core@Math@Palmtree@@YAPEAU__tag_PMC_HANDLE_UINT@1234@PEAU51234@_K@Z:PROC ; Palmtree::Math::Core::Internal::PMC_ExclusiveOr_X_L
EXTRN	?PMC_ExclusiveOr_X_X@Internal@Core@Math@Palmtree@@YAPEAU__tag_PMC_HANDLE_UINT@1234@PEAU51234@0@Z:PROC ; Palmtree::Math::Core::Internal::PMC_ExclusiveOr_X_X
EXTRN	?PMC_Compare_I_X@Internal@Core@Math@Palmtree@@YAHIPEAU__tag_PMC_HANDLE_UINT@1234@@Z:PROC ; Palmtree::Math::Core::Internal::PMC_Compare_I_X
EXTRN	?PMC_Compare_L_X@Internal@Core@Math@Palmtree@@YAH_KPEAU__tag_PMC_HANDLE_UINT@1234@@Z:PROC ; Palmtree::Math::Core::Internal::PMC_Compare_L_X
EXTRN	?PMC_Compare_X_I@Internal@Core@Math@Palmtree@@YAHPEAU__tag_PMC_HANDLE_UINT@1234@I@Z:PROC ; Palmtree::Math::Core::Internal::PMC_Compare_X_I
EXTRN	?PMC_Compare_X_L@Internal@Core@Math@Palmtree@@YAHPEAU__tag_PMC_HANDLE_UINT@1234@_K@Z:PROC ; Palmtree::Math::Core::Internal::PMC_Compare_X_L
EXTRN	?PMC_Compare_X_X@Internal@Core@Math@Palmtree@@YAHPEAU__tag_PMC_HANDLE_UINT@1234@0@Z:PROC ; Palmtree::Math::Core::Internal::PMC_Compare_X_X
EXTRN	?PMC_Equals_I_X@Internal@Core@Math@Palmtree@@YAIIPEAU__tag_PMC_HANDLE_UINT@1234@@Z:PROC ; Palmtree::Math::Core::Internal::PMC_Equals_I_X
EXTRN	?PMC_Equals_L_X@Internal@Core@Math@Palmtree@@YAI_KPEAU__tag_PMC_HANDLE_UINT@1234@@Z:PROC ; Palmtree::Math::Core::Internal::PMC_Equals_L_X
EXTRN	?PMC_Equals_X_I@Internal@Core@Math@Palmtree@@YAIPEAU__tag_PMC_HANDLE_UINT@1234@I@Z:PROC ; Palmtree::Math::Core::Internal::PMC_Equals_X_I
EXTRN	?PMC_Equals_X_L@Internal@Core@Math@Palmtree@@YAIPEAU__tag_PMC_HANDLE_UINT@1234@_K@Z:PROC ; Palmtree::Math::Core::Internal::PMC_Equals_X_L
EXTRN	?PMC_Equals_X_X@Internal@Core@Math@Palmtree@@YAIPEAU__tag_PMC_HANDLE_UINT@1234@0@Z:PROC ; Palmtree::Math::Core::Internal::PMC_Equals_X_X
EXTRN	?PMC_GreatestCommonDivisor_I_X@Internal@Core@Math@Palmtree@@YAPEAU__tag_PMC_HANDLE_UINT@1234@IPEAU51234@@Z:PROC ; Palmtree::Math::Core::Internal::PMC_GreatestCommonDivisor_I_X
EXTRN	?PMC_GreatestCommonDivisor_L_X@Internal@Core@Math@Palmtree@@YAPEAU__tag_PMC_HANDLE_UINT@1234@_KPEAU51234@@Z:PROC ; Palmtree::Math::Core::Internal::PMC_GreatestCommonDivisor_L_X
EXTRN	?PMC_GreatestCommonDivisor_X_I@Internal@Core@Math@Palmtree@@YAPEAU__tag_PMC_HANDLE_UINT@1234@PEAU51234@I@Z:PROC ; Palmtree::Math::Core::Internal::PMC_GreatestCommonDivisor_X_I
EXTRN	?PMC_GreatestCommonDivisor_X_L@Internal@Core@Math@Palmtree@@YAPEAU__tag_PMC_HANDLE_UINT@1234@PEAU51234@_K@Z:PROC ; Palmtree::Math::Core::Internal::PMC_GreatestCommonDivisor_X_L
EXTRN	?PMC_GreatestCommonDivisor_X_X@Internal@Core@Math@Palmtree@@YAPEAU__tag_PMC_HANDLE_UINT@1234@PEAU51234@0@Z:PROC ; Palmtree::Math::Core::Internal::PMC_GreatestCommonDivisor_X_X
EXTRN	?PMC_Pow_X_I@Internal@Core@Math@Palmtree@@YAPEAU__tag_PMC_HANDLE_UINT@1234@PEAU51234@I@Z:PROC ; Palmtree::Math::Core::Internal::PMC_Pow_X_I
EXTRN	?PMC_Pow_X_L@Internal@Core@Math@Palmtree@@YAPEAU__tag_PMC_HANDLE_UINT@1234@PEAU51234@_K@Z:PROC ; Palmtree::Math::Core::Internal::PMC_Pow_X_L
EXTRN	?PMC_ModPow_X_X_X@Internal@Core@Math@Palmtree@@YAPEAU__tag_PMC_HANDLE_UINT@1234@PEAU51234@00@Z:PROC ; Palmtree::Math::Core::Internal::PMC_ModPow_X_X_X
EXTRN	?PMC_FromByteArrayForSINT@Internal@Core@Math@Palmtree@@YAPEAU__tag_PMC_HANDLE_UINT@1234@PEAE_KPEAD@Z:PROC ; Palmtree::Math::Core::Internal::PMC_FromByteArrayForSINT
EXTRN	?PMC_ToByteArrayForSINT@Internal@Core@Math@Palmtree@@YA_KDPEAU__tag_PMC_HANDLE_UINT@1234@PEAE_K@Z:PROC ; Palmtree::Math::Core::Internal::PMC_ToByteArrayForSINT
EXTRN	?PMC_TryParseForSINT@Internal@Core@Math@Palmtree@@YAHPEB_WHPEBU__tag_PMC_NUMBER_FORMAT_INFO@1234@PEADPEAPEAU__tag_PMC_HANDLE_UINT@1234@PEAI@Z:PROC ; Palmtree::Math::Core::Internal::PMC_TryParseForSINT
EXTRN	__GSHandlerCheck:PROC
EXTRN	__security_check_cookie:PROC
EXTRN	__security_cookie:QWORD
_BSS	SEGMENT
	ALIGN	4

?entry_points@Internal@Core@Math@Palmtree@@3U__tag_PMC_UINT_ENTRY_POINTS@1234@A DB 0250H DUP (?) ; Palmtree::Math::Core::Internal::entry_points
?initialized@Internal@Core@Math@Palmtree@@3DA DB 01H DUP (?) ; Palmtree::Math::Core::Internal::initialized
_BSS	ENDS
;	COMDAT pdata
pdata	SEGMENT
$pdata$PMC_UINT_Initialize DD imagerel $LN42
	DD	imagerel $LN42+29
	DD	imagerel $unwind$PMC_UINT_Initialize
pdata	ENDS
;	COMDAT pdata
pdata	SEGMENT
$pdata$0$PMC_UINT_Initialize DD imagerel $LN42+29
	DD	imagerel $LN42+137
	DD	imagerel $chain$0$PMC_UINT_Initialize
pdata	ENDS
;	COMDAT pdata
pdata	SEGMENT
$pdata$1$PMC_UINT_Initialize DD imagerel $LN42+137
	DD	imagerel $LN42+1514
	DD	imagerel $chain$1$PMC_UINT_Initialize
pdata	ENDS
;	COMDAT pdata
pdata	SEGMENT
$pdata$?PMC_GetConfigurationSettings@Internal@Core@Math@Palmtree@@YAHPEB_WPEA_WHPEAH@Z DD imagerel $LN13
	DD	imagerel $LN13+194
	DD	imagerel $unwind$?PMC_GetConfigurationSettings@Internal@Core@Math@Palmtree@@YAHPEB_WPEA_WHPEAH@Z
pdata	ENDS
;	COMDAT pdata
pdata	SEGMENT
$pdata$_ZERO_MEMORY_BYTE DD imagerel _ZERO_MEMORY_BYTE
	DD	imagerel _ZERO_MEMORY_BYTE+21
	DD	imagerel $unwind$_ZERO_MEMORY_BYTE
pdata	ENDS
;	COMDAT pdata
pdata	SEGMENT
$pdata$?SelfCheck@Internal@Core@Math@Palmtree@@YAHXZ DD imagerel ?SelfCheck@Internal@Core@Math@Palmtree@@YAHXZ
	DD	imagerel ?SelfCheck@Internal@Core@Math@Palmtree@@YAHXZ+74
	DD	imagerel $unwind$?SelfCheck@Internal@Core@Math@Palmtree@@YAHXZ
pdata	ENDS
;	COMDAT ??_C@_1BC@CNHMMALG@?$AAP?$AAL?$AAA?$AAT?$AAF?$AAO?$AAR?$AAM@
CONST	SEGMENT
??_C@_1BC@CNHMMALG@?$AAP?$AAL?$AAA?$AAT?$AAF?$AAO?$AAR?$AAM@ DB 'P', 00H, 'L'
	DB	00H, 'A', 00H, 'T', 00H, 'F', 00H, 'O', 00H, 'R', 00H, 'M', 00H
	DB	00H, 00H					; `string'
CONST	ENDS
;	COMDAT ??_C@_1BC@IAEPHGOI@?$AAC?$AAO?$AAM?$AAP?$AAI?$AAL?$AAE?$AAR@
CONST	SEGMENT
??_C@_1BC@IAEPHGOI@?$AAC?$AAO?$AAM?$AAP?$AAI?$AAL?$AAE?$AAR@ DB 'C', 00H, 'O'
	DB	00H, 'M', 00H, 'P', 00H, 'I', 00H, 'L', 00H, 'E', 00H, 'R', 00H
	DB	00H, 00H					; `string'
CONST	ENDS
;	COMDAT xdata
xdata	SEGMENT
$unwind$?SelfCheck@Internal@Core@Math@Palmtree@@YAHXZ DD 020601H
	DD	070029206H
xdata	ENDS
;	COMDAT xdata
xdata	SEGMENT
$unwind$_ZERO_MEMORY_BYTE DD 020501H
	DD	017405H
xdata	ENDS
;	COMDAT xdata
xdata	SEGMENT
$unwind$?PMC_GetConfigurationSettings@Internal@Core@Math@Palmtree@@YAHPEB_WPEA_WHPEAH@Z DD 061b19H
	DD	0c340cH
	DD	07008520cH
	DD	050066007H
	DD	imagerel __GSHandlerCheck
	DD	028H
xdata	ENDS
;	COMDAT xdata
xdata	SEGMENT
$chain$1$PMC_UINT_Initialize DD 021H
	DD	imagerel $LN42
	DD	imagerel $LN42+29
	DD	imagerel $unwind$PMC_UINT_Initialize
xdata	ENDS
;	COMDAT xdata
xdata	SEGMENT
$chain$0$PMC_UINT_Initialize DD 020821H
	DD	0107408H
	DD	imagerel $LN42
	DD	imagerel $LN42+29
	DD	imagerel $unwind$PMC_UINT_Initialize
xdata	ENDS
;	COMDAT xdata
xdata	SEGMENT
$unwind$PMC_UINT_Initialize DD 040d01H
	DD	012340dH
	DD	05006d20dH
xdata	ENDS
; Function compile flags: /Ogtpy
; File z:\sources\lunor\repos\rougemeilland\palmtree.math.core.uint\palmtree.math.core.uint\pmc_initialize.cpp
; File z:\sources\lunor\repos\rougemeilland\palmtree.math.core.uint\palmtree.math.core.uint\pmc_inline_func.h
; File z:\sources\lunor\repos\rougemeilland\palmtree.math.core.uint\palmtree.math.core.uint\pmc_initialize.cpp
;	COMDAT ?SelfCheck@Internal@Core@Math@Palmtree@@YAHXZ
_TEXT	SEGMENT
nh$ = 0
?SelfCheck@Internal@Core@Math@Palmtree@@YAHXZ PROC	; Palmtree::Math::Core::Internal::SelfCheck, COMDAT

; 90   :     {

  00000	40 57		 push	 rdi
  00002	48 83 ec 50	 sub	 rsp, 80			; 00000050H
; File z:\sources\lunor\repos\rougemeilland\palmtree.math.core.uint\palmtree.math.core.uint\pmc_inline_func.h

; 75   :             __stosb((unsigned char*)d, 0, count);

  00006	33 c0		 xor	 eax, eax
  00008	48 8d 3c 24	 lea	 rdi, QWORD PTR nh$[rsp]
  0000c	b9 50 00 00 00	 mov	 ecx, 80			; 00000050H
  00011	f3 aa		 rep stosb
  00013	48 8d 3c 24	 lea	 rdi, QWORD PTR nh$[rsp]
  00017	b9 50 00 00 00	 mov	 ecx, 80			; 00000050H
  0001c	f3 aa		 rep stosb
  0001e	48 8d 3c 24	 lea	 rdi, QWORD PTR nh$[rsp]
  00022	b9 50 00 00 00	 mov	 ecx, 80			; 00000050H
  00027	f3 aa		 rep stosb
  00029	48 8d 3c 24	 lea	 rdi, QWORD PTR nh$[rsp]
  0002d	b9 50 00 00 00	 mov	 ecx, 80			; 00000050H
  00032	f3 aa		 rep stosb
  00034	48 8d 3c 24	 lea	 rdi, QWORD PTR nh$[rsp]
  00038	b9 50 00 00 00	 mov	 ecx, 80			; 00000050H
  0003d	f3 aa		 rep stosb
; File z:\sources\lunor\repos\rougemeilland\palmtree.math.core.uint\palmtree.math.core.uint\pmc_initialize.cpp

; 119  :         return(TRUE);

  0003f	b8 01 00 00 00	 mov	 eax, 1

; 120  :     }

  00044	48 83 c4 50	 add	 rsp, 80			; 00000050H
  00048	5f		 pop	 rdi
  00049	c3		 ret	 0
?SelfCheck@Internal@Core@Math@Palmtree@@YAHXZ ENDP	; Palmtree::Math::Core::Internal::SelfCheck
_TEXT	ENDS
; Function compile flags: /Ogtpy
; File z:\sources\lunor\repos\rougemeilland\palmtree.math.core.uint\palmtree.math.core.uint\pmc_inline_func.h
;	COMDAT _ZERO_MEMORY_BYTE
_TEXT	SEGMENT
d$ = 8
count$ = 16
_ZERO_MEMORY_BYTE PROC					; COMDAT

; 74   :         {

  00000	48 89 7c 24 08	 mov	 QWORD PTR [rsp+8], rdi

; 75   :             __stosb((unsigned char*)d, 0, count);

  00005	48 8b f9	 mov	 rdi, rcx
  00008	33 c0		 xor	 eax, eax
  0000a	48 8b ca	 mov	 rcx, rdx
  0000d	f3 aa		 rep stosb

; 76   :         }

  0000f	48 8b 7c 24 08	 mov	 rdi, QWORD PTR [rsp+8]
  00014	c3		 ret	 0
_ZERO_MEMORY_BYTE ENDP
_TEXT	ENDS
; Function compile flags: /Ogtpy
; File z:\sources\lunor\repos\rougemeilland\palmtree.math.core.uint\palmtree.math.core.uint\pmc_initialize.cpp
;	COMDAT ?PMC_GetConfigurationSettings@Internal@Core@Math@Palmtree@@YAHPEB_WPEA_WHPEAH@Z
_TEXT	SEGMENT
value$1 = 32
value$2 = 32
__$ArrayPad$ = 40
key$ = 80
value_buffer$ = 88
value_buffer_size$ = 96
count$ = 104
?PMC_GetConfigurationSettings@Internal@Core@Math@Palmtree@@YAHPEB_WPEA_WHPEAH@Z PROC ; Palmtree::Math::Core::Internal::PMC_GetConfigurationSettings, COMDAT

; 44   :     {

$LN13:
  00000	48 89 5c 24 18	 mov	 QWORD PTR [rsp+24], rbx
  00005	55		 push	 rbp
  00006	56		 push	 rsi
  00007	57		 push	 rdi
  00008	48 83 ec 30	 sub	 rsp, 48			; 00000030H
  0000c	48 8b 05 00 00
	00 00		 mov	 rax, QWORD PTR __security_cookie
  00013	48 33 c4	 xor	 rax, rsp
  00016	48 89 44 24 28	 mov	 QWORD PTR __$ArrayPad$[rsp], rax
  0001b	48 8b da	 mov	 rbx, rdx
  0001e	49 8b f9	 mov	 rdi, r9

; 45   :         if (lstrcmpW(key, L"COMPILER") == 0)

  00021	48 8d 15 00 00
	00 00		 lea	 rdx, OFFSET FLAT:??_C@_1BC@IAEPHGOI@?$AAC?$AAO?$AAM?$AAP?$AAI?$AAL?$AAE?$AAR@
  00028	41 8b f0	 mov	 esi, r8d
  0002b	48 8b e9	 mov	 rbp, rcx
  0002e	ff 15 00 00 00
	00		 call	 QWORD PTR __imp_lstrcmpW
  00034	85 c0		 test	 eax, eax
  00036	75 31		 jne	 SHORT $LN2@PMC_GetCon

; 46   :         {
; 47   : #ifdef _MSC_VER
; 48   :             const wchar_t value[] = L"MSC";

  00038	48 b8 4d 00 53
	00 43 00 00 00	 mov	 rax, 287768248397	; 000000430053004dH
  00042	48 89 44 24 20	 mov	 QWORD PTR value$2[rsp], rax

; 49   : #elif defined(__GNUC__)
; 50   :             const wchar_t value[] = L"GNUC";
; 51   : #else
; 52   : #error unknwon compiler
; 53   : #endif
; 54   :             if (value_buffer != nullptr)

  00047	48 85 db	 test	 rbx, rbx
  0004a	74 13		 je	 SHORT $LN8@PMC_GetCon

; 55   :             {
; 56   :                 if (value_buffer_size < countof(value))

  0004c	83 fe 04	 cmp	 esi, 4
  0004f	72 45		 jb	 SHORT $LN11@PMC_GetCon
$LN9@PMC_GetCon:

; 76   :                 lstrcpyW(value_buffer, value);
; 77   :             }
; 78   :             *count = countof(value);

  00051	48 8d 54 24 20	 lea	 rdx, QWORD PTR value$1[rsp]
  00056	48 8b cb	 mov	 rcx, rbx
  00059	ff 15 00 00 00
	00		 call	 QWORD PTR __imp_lstrcpyW
$LN8@PMC_GetCon:
  0005f	c7 07 04 00 00
	00		 mov	 DWORD PTR [rdi], 4

; 79   :             return (PMC_STATUS_OK);

  00065	33 c0		 xor	 eax, eax
  00067	eb 3f		 jmp	 SHORT $LN7@PMC_GetCon
$LN2@PMC_GetCon:

; 57   :                     return (PMC_STATUS_INSUFFICIENT_BUFFER);
; 58   :                 lstrcpyW(value_buffer, value);
; 59   :             }
; 60   :             *count = countof(value);
; 61   :             return (PMC_STATUS_OK);
; 62   :         }
; 63   :         else if (lstrcmpW(key, L"PLATFORM") == 0)

  00069	48 8d 15 00 00
	00 00		 lea	 rdx, OFFSET FLAT:??_C@_1BC@CNHMMALG@?$AAP?$AAL?$AAA?$AAT?$AAF?$AAO?$AAR?$AAM@
  00070	48 8b cd	 mov	 rcx, rbp
  00073	ff 15 00 00 00
	00		 call	 QWORD PTR __imp_lstrcmpW
  00079	85 c0		 test	 eax, eax
  0007b	75 20		 jne	 SHORT $LN6@PMC_GetCon

; 64   :         {
; 65   : #ifdef _M_IX86
; 66   :             const wchar_t value[] = L"x86";
; 67   : #elif defined(_M_X64)
; 68   :             const wchar_t value[] = L"x64";

  0007d	48 b8 78 00 36
	00 34 00 00 00	 mov	 rax, 223341838456	; 0000003400360078H
  00087	48 89 44 24 20	 mov	 QWORD PTR value$1[rsp], rax

; 69   : #else
; 70   : #error unknwon compiler
; 71   : #endif
; 72   :             if (value_buffer != nullptr)

  0008c	48 85 db	 test	 rbx, rbx
  0008f	74 ce		 je	 SHORT $LN8@PMC_GetCon

; 73   :             {
; 74   :                 if (value_buffer_size < countof(value))

  00091	83 fe 04	 cmp	 esi, 4
  00094	73 bb		 jae	 SHORT $LN9@PMC_GetCon
$LN11@PMC_GetCon:

; 75   :                     return (PMC_STATUS_INSUFFICIENT_BUFFER);

  00096	b8 f8 ff ff ff	 mov	 eax, -8
  0009b	eb 0b		 jmp	 SHORT $LN7@PMC_GetCon
$LN6@PMC_GetCon:

; 80   :         }
; 81   :         else
; 82   :         {
; 83   :             *count = -1;

  0009d	c7 07 ff ff ff
	ff		 mov	 DWORD PTR [rdi], -1

; 84   :             return (PMC_STATUS_ARGUMENT_ERROR);

  000a3	b8 ff ff ff ff	 mov	 eax, -1
$LN7@PMC_GetCon:

; 85   :         }
; 86   :     }

  000a8	48 8b 4c 24 28	 mov	 rcx, QWORD PTR __$ArrayPad$[rsp]
  000ad	48 33 cc	 xor	 rcx, rsp
  000b0	e8 00 00 00 00	 call	 __security_check_cookie
  000b5	48 8b 5c 24 60	 mov	 rbx, QWORD PTR [rsp+96]
  000ba	48 83 c4 30	 add	 rsp, 48			; 00000030H
  000be	5f		 pop	 rdi
  000bf	5e		 pop	 rsi
  000c0	5d		 pop	 rbp
  000c1	c3		 ret	 0
?PMC_GetConfigurationSettings@Internal@Core@Math@Palmtree@@YAHPEB_WPEA_WHPEAH@Z ENDP ; Palmtree::Math::Core::Internal::PMC_GetConfigurationSettings
_TEXT	ENDS
; Function compile flags: /Ogtpy
; File z:\sources\lunor\repos\rougemeilland\palmtree.math.core.uint\palmtree.math.core.uint\pmc_initialize.cpp
; File z:\sources\lunor\repos\rougemeilland\palmtree.math.core.uint\palmtree.math.core.uint\pmc_inline_func.h
; File z:\sources\lunor\repos\rougemeilland\palmtree.math.core.uint\palmtree.math.core.uint\pmc_initialize.cpp
;	COMDAT PMC_UINT_Initialize
_TEXT	SEGMENT
nh$1 = 32
config$ = 128
feature$2 = 136
PMC_UINT_Initialize PROC				; COMDAT

; 123  :     {

$LN42:
  00000	48 89 5c 24 18	 mov	 QWORD PTR [rsp+24], rbx
  00005	55		 push	 rbp
  00006	48 8b ec	 mov	 rbp, rsp
  00009	48 83 ec 70	 sub	 rsp, 112		; 00000070H

; 124  :         if (!initialized)

  0000d	80 3d 00 00 00
	00 00		 cmp	 BYTE PTR ?initialized@Internal@Core@Math@Palmtree@@3DA, 0
  00014	48 8b d9	 mov	 rbx, rcx
  00017	0f 85 a8 05 00
	00		 jne	 $LN2@PMC_UINT_I
; File z:\sources\lunor\repos\rougemeilland\palmtree.math.core.uint\palmtree.math.core.uint\pmc_inline_func.h

; 75   :             __stosb((unsigned char*)d, 0, count);

  0001d	48 89 bc 24 80
	00 00 00	 mov	 QWORD PTR [rsp+128], rdi
  00025	33 c0		 xor	 eax, eax
  00027	48 8d 7d b0	 lea	 rdi, QWORD PTR nh$1[rbp-112]
  0002b	b9 50 00 00 00	 mov	 ecx, 80			; 00000050H
  00030	f3 aa		 rep stosb
  00032	48 8d 7d b0	 lea	 rdi, QWORD PTR nh$1[rbp-112]
  00036	b9 50 00 00 00	 mov	 ecx, 80			; 00000050H
  0003b	f3 aa		 rep stosb
  0003d	48 8d 7d b0	 lea	 rdi, QWORD PTR nh$1[rbp-112]
  00041	b9 50 00 00 00	 mov	 ecx, 80			; 00000050H
  00046	f3 aa		 rep stosb
  00048	48 8d 7d b0	 lea	 rdi, QWORD PTR nh$1[rbp-112]
  0004c	b9 50 00 00 00	 mov	 ecx, 80			; 00000050H
  00051	f3 aa		 rep stosb
  00053	48 8d 7d b0	 lea	 rdi, QWORD PTR nh$1[rbp-112]
  00057	b9 50 00 00 00	 mov	 ecx, 80			; 00000050H
  0005c	f3 aa		 rep stosb
; File z:\sources\lunor\repos\rougemeilland\palmtree.math.core.uint\palmtree.math.core.uint\pmc_initialize.cpp

; 130  :             GetCPUInfo(&feature);

  0005e	48 8d 4d 18	 lea	 rcx, QWORD PTR feature$2[rbp-112]
  00062	e8 00 00 00 00	 call	 ?GetCPUInfo@Internal@Core@Math@Palmtree@@YAXPEAU_tag_PROCESSOR_FEATURES@1234@@Z ; Palmtree::Math::Core::Internal::GetCPUInfo

; 131  :             configuration_info = *config;

  00067	0f b6 03	 movzx	 eax, BYTE PTR [rbx]

; 132  :             if (Initialize_Memory(&feature) != PMC_STATUS_OK)

  0006a	48 8d 4d 18	 lea	 rcx, QWORD PTR feature$2[rbp-112]
  0006e	88 05 00 00 00
	00		 mov	 BYTE PTR ?configuration_info@Internal@Core@Math@Palmtree@@3U__tag_PMC_CONFIGURATION_INFO@1234@A, al ; Palmtree::Math::Core::Internal::configuration_info
  00074	e8 00 00 00 00	 call	 ?Initialize_Memory@Internal@Core@Math@Palmtree@@YAHPEAU_tag_PROCESSOR_FEATURES@1234@@Z ; Palmtree::Math::Core::Internal::Initialize_Memory
  00079	48 8b bc 24 80
	00 00 00	 mov	 rdi, QWORD PTR [rsp+128]
  00081	85 c0		 test	 eax, eax
  00083	0f 85 51 05 00
	00		 jne	 $LN40@PMC_UINT_I

; 133  :                 return (nullptr);
; 134  :             if (Initialize_From(&feature) != PMC_STATUS_OK)

  00089	48 8d 4d 18	 lea	 rcx, QWORD PTR feature$2[rbp-112]
  0008d	e8 00 00 00 00	 call	 ?Initialize_From@Internal@Core@Math@Palmtree@@YAHPEAU_tag_PROCESSOR_FEATURES@1234@@Z ; Palmtree::Math::Core::Internal::Initialize_From
  00092	85 c0		 test	 eax, eax
  00094	0f 85 40 05 00
	00		 jne	 $LN40@PMC_UINT_I

; 135  :                 return (nullptr);
; 136  :             if (Initialize_To(&feature) != PMC_STATUS_OK)

  0009a	48 8d 4d 18	 lea	 rcx, QWORD PTR feature$2[rbp-112]
  0009e	e8 00 00 00 00	 call	 ?Initialize_To@Internal@Core@Math@Palmtree@@YAHPEAU_tag_PROCESSOR_FEATURES@1234@@Z ; Palmtree::Math::Core::Internal::Initialize_To
  000a3	85 c0		 test	 eax, eax
  000a5	0f 85 2f 05 00
	00		 jne	 $LN40@PMC_UINT_I

; 137  :                 return (nullptr);
; 138  :             if (Initialize_Add(&feature) != PMC_STATUS_OK)

  000ab	48 8d 4d 18	 lea	 rcx, QWORD PTR feature$2[rbp-112]
  000af	e8 00 00 00 00	 call	 ?Initialize_Add@Internal@Core@Math@Palmtree@@YAHPEAU_tag_PROCESSOR_FEATURES@1234@@Z ; Palmtree::Math::Core::Internal::Initialize_Add
  000b4	85 c0		 test	 eax, eax
  000b6	0f 85 1e 05 00
	00		 jne	 $LN40@PMC_UINT_I

; 139  :                 return (nullptr);
; 140  :             if (Initialize_Subtruct(&feature) != PMC_STATUS_OK)

  000bc	48 8d 4d 18	 lea	 rcx, QWORD PTR feature$2[rbp-112]
  000c0	e8 00 00 00 00	 call	 ?Initialize_Subtruct@Internal@Core@Math@Palmtree@@YAHPEAU_tag_PROCESSOR_FEATURES@1234@@Z ; Palmtree::Math::Core::Internal::Initialize_Subtruct
  000c5	85 c0		 test	 eax, eax
  000c7	0f 85 0d 05 00
	00		 jne	 $LN40@PMC_UINT_I

; 141  :                 return (nullptr);
; 142  :             if (Initialize_Multiply(&feature) != PMC_STATUS_OK)

  000cd	48 8d 4d 18	 lea	 rcx, QWORD PTR feature$2[rbp-112]
  000d1	e8 00 00 00 00	 call	 ?Initialize_Multiply@Internal@Core@Math@Palmtree@@YAHPEAU_tag_PROCESSOR_FEATURES@1234@@Z ; Palmtree::Math::Core::Internal::Initialize_Multiply
  000d6	85 c0		 test	 eax, eax
  000d8	0f 85 fc 04 00
	00		 jne	 $LN40@PMC_UINT_I

; 143  :                 return (nullptr);
; 144  :             if (Initialize_DivRem(&feature) != PMC_STATUS_OK)

  000de	48 8d 4d 18	 lea	 rcx, QWORD PTR feature$2[rbp-112]
  000e2	e8 00 00 00 00	 call	 ?Initialize_DivRem@Internal@Core@Math@Palmtree@@YAHPEAU_tag_PROCESSOR_FEATURES@1234@@Z ; Palmtree::Math::Core::Internal::Initialize_DivRem
  000e7	85 c0		 test	 eax, eax
  000e9	0f 85 eb 04 00
	00		 jne	 $LN40@PMC_UINT_I

; 145  :                 return (nullptr);
; 146  :             if (Initialize_Shift(&feature) != PMC_STATUS_OK)

  000ef	48 8d 4d 18	 lea	 rcx, QWORD PTR feature$2[rbp-112]
  000f3	e8 00 00 00 00	 call	 ?Initialize_Shift@Internal@Core@Math@Palmtree@@YAHPEAU_tag_PROCESSOR_FEATURES@1234@@Z ; Palmtree::Math::Core::Internal::Initialize_Shift
  000f8	85 c0		 test	 eax, eax
  000fa	0f 85 da 04 00
	00		 jne	 $LN40@PMC_UINT_I

; 147  :                 return (nullptr);
; 148  :             if (Initialize_BitwiseAnd(&feature) != PMC_STATUS_OK)

  00100	48 8d 4d 18	 lea	 rcx, QWORD PTR feature$2[rbp-112]
  00104	e8 00 00 00 00	 call	 ?Initialize_BitwiseAnd@Internal@Core@Math@Palmtree@@YAHPEAU_tag_PROCESSOR_FEATURES@1234@@Z ; Palmtree::Math::Core::Internal::Initialize_BitwiseAnd
  00109	85 c0		 test	 eax, eax
  0010b	0f 85 c9 04 00
	00		 jne	 $LN40@PMC_UINT_I

; 149  :                 return (nullptr);
; 150  :             if (Initialize_BitwiseOr(&feature) != PMC_STATUS_OK)

  00111	48 8d 4d 18	 lea	 rcx, QWORD PTR feature$2[rbp-112]
  00115	e8 00 00 00 00	 call	 ?Initialize_BitwiseOr@Internal@Core@Math@Palmtree@@YAHPEAU_tag_PROCESSOR_FEATURES@1234@@Z ; Palmtree::Math::Core::Internal::Initialize_BitwiseOr
  0011a	85 c0		 test	 eax, eax
  0011c	0f 85 b8 04 00
	00		 jne	 $LN40@PMC_UINT_I

; 151  :                 return (nullptr);
; 152  :             if (Initialize_ExclusiveOr(&feature) != PMC_STATUS_OK)

  00122	48 8d 4d 18	 lea	 rcx, QWORD PTR feature$2[rbp-112]
  00126	e8 00 00 00 00	 call	 ?Initialize_ExclusiveOr@Internal@Core@Math@Palmtree@@YAHPEAU_tag_PROCESSOR_FEATURES@1234@@Z ; Palmtree::Math::Core::Internal::Initialize_ExclusiveOr
  0012b	85 c0		 test	 eax, eax
  0012d	0f 85 a7 04 00
	00		 jne	 $LN40@PMC_UINT_I

; 153  :                 return (nullptr);
; 154  :             if (Initialize_Compare(&feature) != PMC_STATUS_OK)

  00133	48 8d 4d 18	 lea	 rcx, QWORD PTR feature$2[rbp-112]
  00137	e8 00 00 00 00	 call	 ?Initialize_Compare@Internal@Core@Math@Palmtree@@YAHPEAU_tag_PROCESSOR_FEATURES@1234@@Z ; Palmtree::Math::Core::Internal::Initialize_Compare
  0013c	85 c0		 test	 eax, eax
  0013e	0f 85 96 04 00
	00		 jne	 $LN40@PMC_UINT_I

; 155  :                 return (nullptr);
; 156  :             if (Initialize_Equals(&feature) != PMC_STATUS_OK)

  00144	48 8d 4d 18	 lea	 rcx, QWORD PTR feature$2[rbp-112]
  00148	e8 00 00 00 00	 call	 ?Initialize_Equals@Internal@Core@Math@Palmtree@@YAHPEAU_tag_PROCESSOR_FEATURES@1234@@Z ; Palmtree::Math::Core::Internal::Initialize_Equals
  0014d	85 c0		 test	 eax, eax
  0014f	0f 85 85 04 00
	00		 jne	 $LN40@PMC_UINT_I

; 157  :                 return (nullptr);
; 158  :             if (Initialize_ToString(&feature) != PMC_STATUS_OK)

  00155	48 8d 4d 18	 lea	 rcx, QWORD PTR feature$2[rbp-112]
  00159	e8 00 00 00 00	 call	 ?Initialize_ToString@Internal@Core@Math@Palmtree@@YAHPEAU_tag_PROCESSOR_FEATURES@1234@@Z ; Palmtree::Math::Core::Internal::Initialize_ToString
  0015e	85 c0		 test	 eax, eax
  00160	0f 85 74 04 00
	00		 jne	 $LN40@PMC_UINT_I

; 159  :                 return (nullptr);
; 160  :             if (Initialize_Parse(&feature) != PMC_STATUS_OK)

  00166	48 8d 4d 18	 lea	 rcx, QWORD PTR feature$2[rbp-112]
  0016a	e8 00 00 00 00	 call	 ?Initialize_Parse@Internal@Core@Math@Palmtree@@YAHPEAU_tag_PROCESSOR_FEATURES@1234@@Z ; Palmtree::Math::Core::Internal::Initialize_Parse
  0016f	85 c0		 test	 eax, eax
  00171	0f 85 63 04 00
	00		 jne	 $LN40@PMC_UINT_I

; 161  :                 return (nullptr);
; 162  :             if (Initialize_GreatestCommonDivisor(&feature) != PMC_STATUS_OK)

  00177	48 8d 4d 18	 lea	 rcx, QWORD PTR feature$2[rbp-112]
  0017b	e8 00 00 00 00	 call	 ?Initialize_GreatestCommonDivisor@Internal@Core@Math@Palmtree@@YAHPEAU_tag_PROCESSOR_FEATURES@1234@@Z ; Palmtree::Math::Core::Internal::Initialize_GreatestCommonDivisor
  00180	85 c0		 test	 eax, eax
  00182	0f 85 52 04 00
	00		 jne	 $LN40@PMC_UINT_I

; 163  :                 return (nullptr);
; 164  :             if (Initialize_Pow(&feature) != PMC_STATUS_OK)

  00188	48 8d 4d 18	 lea	 rcx, QWORD PTR feature$2[rbp-112]
  0018c	e8 00 00 00 00	 call	 ?Initialize_Pow@Internal@Core@Math@Palmtree@@YAHPEAU_tag_PROCESSOR_FEATURES@1234@@Z ; Palmtree::Math::Core::Internal::Initialize_Pow
  00191	85 c0		 test	 eax, eax
  00193	0f 85 41 04 00
	00		 jne	 $LN40@PMC_UINT_I

; 165  :                 return (nullptr);
; 166  :             if (Initialize_ModPow(&feature) != PMC_STATUS_OK)

  00199	48 8d 4d 18	 lea	 rcx, QWORD PTR feature$2[rbp-112]
  0019d	e8 00 00 00 00	 call	 ?Initialize_ModPow@Internal@Core@Math@Palmtree@@YAHPEAU_tag_PROCESSOR_FEATURES@1234@@Z ; Palmtree::Math::Core::Internal::Initialize_ModPow
  001a2	85 c0		 test	 eax, eax
  001a4	0f 85 30 04 00
	00		 jne	 $LN40@PMC_UINT_I

; 167  :                 return (nullptr);
; 168  : 
; 169  :             entry_points.PROCESSOR_FEATURE_POPCNT = feature.PROCESSOR_FEATURE_POPCNT;
; 170  :             entry_points.PROCESSOR_FEATURE_ADX = feature.PROCESSOR_FEATURE_ADX;
; 171  :             entry_points.PROCESSOR_FEATURE_BMI1 = feature.PROCESSOR_FEATURE_BMI1;
; 172  :             entry_points.PROCESSOR_FEATURE_BMI2 = feature.PROCESSOR_FEATURE_BMI2;
; 173  :             entry_points.PROCESSOR_FEATURE_ABM = feature.PROCESSOR_FEATURE_ABM;

  001aa	8b 0d 00 00 00
	00		 mov	 ecx, DWORD PTR ?entry_points@Internal@Core@Math@Palmtree@@3U__tag_PMC_UINT_ENTRY_POINTS@1234@A
  001b0	8b c1		 mov	 eax, ecx
  001b2	33 45 18	 xor	 eax, DWORD PTR feature$2[rbp-112]
  001b5	83 e0 1f	 and	 eax, 31
  001b8	33 c8		 xor	 ecx, eax

; 174  :             entry_points.GetConfigurationSettings = PMC_GetConfigurationSettings;

  001ba	48 8d 05 00 00
	00 00		 lea	 rax, OFFSET FLAT:?PMC_GetConfigurationSettings@Internal@Core@Math@Palmtree@@YAHPEB_WPEA_WHPEAH@Z ; Palmtree::Math::Core::Internal::PMC_GetConfigurationSettings
  001c1	48 89 05 08 00
	00 00		 mov	 QWORD PTR ?entry_points@Internal@Core@Math@Palmtree@@3U__tag_PMC_UINT_ENTRY_POINTS@1234@A+8, rax

; 175  :             entry_points.GetStatisticsInfo = PMC_GetStatisticsInfo;

  001c8	48 8d 05 00 00
	00 00		 lea	 rax, OFFSET FLAT:?PMC_GetStatisticsInfo@Internal@Core@Math@Palmtree@@YAXPEAU__tag_PMC_STATISTICS_INFO@1234@@Z ; Palmtree::Math::Core::Internal::PMC_GetStatisticsInfo
  001cf	48 89 05 10 00
	00 00		 mov	 QWORD PTR ?entry_points@Internal@Core@Math@Palmtree@@3U__tag_PMC_UINT_ENTRY_POINTS@1234@A+16, rax

; 176  :             entry_points.From_I = PMC_From_I;

  001d6	48 8d 05 00 00
	00 00		 lea	 rax, OFFSET FLAT:?PMC_From_I@Internal@Core@Math@Palmtree@@YAPEAU__tag_PMC_HANDLE_UINT@1234@I@Z ; Palmtree::Math::Core::Internal::PMC_From_I
  001dd	48 89 05 18 00
	00 00		 mov	 QWORD PTR ?entry_points@Internal@Core@Math@Palmtree@@3U__tag_PMC_UINT_ENTRY_POINTS@1234@A+24, rax

; 177  :             entry_points.From_L = PMC_From_L;

  001e4	48 8d 05 00 00
	00 00		 lea	 rax, OFFSET FLAT:?PMC_From_L@Internal@Core@Math@Palmtree@@YAPEAU__tag_PMC_HANDLE_UINT@1234@_K@Z ; Palmtree::Math::Core::Internal::PMC_From_L
  001eb	48 89 05 20 00
	00 00		 mov	 QWORD PTR ?entry_points@Internal@Core@Math@Palmtree@@3U__tag_PMC_UINT_ENTRY_POINTS@1234@A+32, rax

; 178  :             entry_points.Dispose = PMC_Dispose;

  001f2	48 8d 05 00 00
	00 00		 lea	 rax, OFFSET FLAT:?PMC_Dispose@Internal@Core@Math@Palmtree@@YAXPEAU__tag_PMC_HANDLE_UINT@1234@@Z ; Palmtree::Math::Core::Internal::PMC_Dispose
  001f9	48 89 05 28 00
	00 00		 mov	 QWORD PTR ?entry_points@Internal@Core@Math@Palmtree@@3U__tag_PMC_UINT_ENTRY_POINTS@1234@A+40, rax

; 179  :             entry_points.To_X_I = PMC_To_X_I;

  00200	48 8d 05 00 00
	00 00		 lea	 rax, OFFSET FLAT:?PMC_To_X_I@Internal@Core@Math@Palmtree@@YAIPEAU__tag_PMC_HANDLE_UINT@1234@@Z ; Palmtree::Math::Core::Internal::PMC_To_X_I
  00207	48 89 05 58 00
	00 00		 mov	 QWORD PTR ?entry_points@Internal@Core@Math@Palmtree@@3U__tag_PMC_UINT_ENTRY_POINTS@1234@A+88, rax

; 180  :             entry_points.To_X_L = PMC_To_X_L;

  0020e	48 8d 05 00 00
	00 00		 lea	 rax, OFFSET FLAT:?PMC_To_X_L@Internal@Core@Math@Palmtree@@YA_KPEAU__tag_PMC_HANDLE_UINT@1234@@Z ; Palmtree::Math::Core::Internal::PMC_To_X_L
  00215	48 89 05 60 00
	00 00		 mov	 QWORD PTR ?entry_points@Internal@Core@Math@Palmtree@@3U__tag_PMC_UINT_ENTRY_POINTS@1234@A+96, rax

; 181  :             entry_points.FromByteArray = PMC_FromByteArray;

  0021c	48 8d 05 00 00
	00 00		 lea	 rax, OFFSET FLAT:?PMC_FromByteArray@Internal@Core@Math@Palmtree@@YAPEAU__tag_PMC_HANDLE_UINT@1234@PEBE_K@Z ; Palmtree::Math::Core::Internal::PMC_FromByteArray
  00223	48 89 05 38 00
	00 00		 mov	 QWORD PTR ?entry_points@Internal@Core@Math@Palmtree@@3U__tag_PMC_UINT_ENTRY_POINTS@1234@A+56, rax

; 182  :             entry_points.ToByteArray = PMC_ToByteArray;

  0022a	48 8d 05 00 00
	00 00		 lea	 rax, OFFSET FLAT:?PMC_ToByteArray@Internal@Core@Math@Palmtree@@YA_KPEAU__tag_PMC_HANDLE_UINT@1234@PEAE_K@Z ; Palmtree::Math::Core::Internal::PMC_ToByteArray
  00231	48 89 05 40 00
	00 00		 mov	 QWORD PTR ?entry_points@Internal@Core@Math@Palmtree@@3U__tag_PMC_UINT_ENTRY_POINTS@1234@A+64, rax

; 183  :             entry_points.InitializeNumberFormatInfo = PMC_InitializeNumberFormatInfo;

  00238	48 8d 05 00 00
	00 00		 lea	 rax, OFFSET FLAT:?PMC_InitializeNumberFormatInfo@Internal@Core@Math@Palmtree@@YAXPEAU__tag_PMC_NUMBER_FORMAT_INFO@1234@@Z ; Palmtree::Math::Core::Internal::PMC_InitializeNumberFormatInfo
  0023f	48 89 05 68 00
	00 00		 mov	 QWORD PTR ?entry_points@Internal@Core@Math@Palmtree@@3U__tag_PMC_UINT_ENTRY_POINTS@1234@A+104, rax

; 184  :             entry_points.ToString = PMC_ToString;

  00246	48 8d 05 00 00
	00 00		 lea	 rax, OFFSET FLAT:?PMC_ToString@Internal@Core@Math@Palmtree@@YA_KPEAU__tag_PMC_HANDLE_UINT@1234@PEB_WPEBU__tag_PMC_NUMBER_FORMAT_INFO@1234@PEA_W_K@Z ; Palmtree::Math::Core::Internal::PMC_ToString
  0024d	48 89 05 70 00
	00 00		 mov	 QWORD PTR ?entry_points@Internal@Core@Math@Palmtree@@3U__tag_PMC_UINT_ENTRY_POINTS@1234@A+112, rax

; 185  :             entry_points.TryParse = PMC_TryParse;

  00254	48 8d 05 00 00
	00 00		 lea	 rax, OFFSET FLAT:?PMC_TryParse@Internal@Core@Math@Palmtree@@YAHPEB_WHPEBU__tag_PMC_NUMBER_FORMAT_INFO@1234@PEAPEAU__tag_PMC_HANDLE_UINT@1234@PEAI@Z ; Palmtree::Math::Core::Internal::PMC_TryParse
  0025b	48 89 05 78 00
	00 00		 mov	 QWORD PTR ?entry_points@Internal@Core@Math@Palmtree@@3U__tag_PMC_UINT_ENTRY_POINTS@1234@A+120, rax

; 186  :             entry_points.Add_I_X = PMC_Add_I_X;

  00262	48 8d 05 00 00
	00 00		 lea	 rax, OFFSET FLAT:?PMC_Add_I_X@Internal@Core@Math@Palmtree@@YAPEAU__tag_PMC_HANDLE_UINT@1234@IPEAU51234@@Z ; Palmtree::Math::Core::Internal::PMC_Add_I_X
  00269	48 89 05 80 00
	00 00		 mov	 QWORD PTR ?entry_points@Internal@Core@Math@Palmtree@@3U__tag_PMC_UINT_ENTRY_POINTS@1234@A+128, rax

; 187  :             entry_points.Add_L_X = PMC_Add_L_X;

  00270	48 8d 05 00 00
	00 00		 lea	 rax, OFFSET FLAT:?PMC_Add_L_X@Internal@Core@Math@Palmtree@@YAPEAU__tag_PMC_HANDLE_UINT@1234@_KPEAU51234@@Z ; Palmtree::Math::Core::Internal::PMC_Add_L_X
  00277	48 89 05 88 00
	00 00		 mov	 QWORD PTR ?entry_points@Internal@Core@Math@Palmtree@@3U__tag_PMC_UINT_ENTRY_POINTS@1234@A+136, rax

; 188  :             entry_points.Add_X_I = PMC_Add_X_I;

  0027e	48 8d 05 00 00
	00 00		 lea	 rax, OFFSET FLAT:?PMC_Add_X_I@Internal@Core@Math@Palmtree@@YAPEAU__tag_PMC_HANDLE_UINT@1234@PEAU51234@I@Z ; Palmtree::Math::Core::Internal::PMC_Add_X_I
  00285	48 89 05 90 00
	00 00		 mov	 QWORD PTR ?entry_points@Internal@Core@Math@Palmtree@@3U__tag_PMC_UINT_ENTRY_POINTS@1234@A+144, rax

; 189  :             entry_points.Add_X_L = PMC_Add_X_L;

  0028c	48 8d 05 00 00
	00 00		 lea	 rax, OFFSET FLAT:?PMC_Add_X_L@Internal@Core@Math@Palmtree@@YAPEAU__tag_PMC_HANDLE_UINT@1234@PEAU51234@_K@Z ; Palmtree::Math::Core::Internal::PMC_Add_X_L
  00293	48 89 05 98 00
	00 00		 mov	 QWORD PTR ?entry_points@Internal@Core@Math@Palmtree@@3U__tag_PMC_UINT_ENTRY_POINTS@1234@A+152, rax

; 190  :             entry_points.Add_X_X = PMC_Add_X_X;

  0029a	48 8d 05 00 00
	00 00		 lea	 rax, OFFSET FLAT:?PMC_Add_X_X@Internal@Core@Math@Palmtree@@YAPEAU__tag_PMC_HANDLE_UINT@1234@PEAU51234@0@Z ; Palmtree::Math::Core::Internal::PMC_Add_X_X
  002a1	48 89 05 a0 00
	00 00		 mov	 QWORD PTR ?entry_points@Internal@Core@Math@Palmtree@@3U__tag_PMC_UINT_ENTRY_POINTS@1234@A+160, rax

; 191  :             entry_points.Subtruct_I_X = PMC_Subtruct_I_X;

  002a8	48 8d 05 00 00
	00 00		 lea	 rax, OFFSET FLAT:?PMC_Subtruct_I_X@Internal@Core@Math@Palmtree@@YAIIPEAU__tag_PMC_HANDLE_UINT@1234@@Z ; Palmtree::Math::Core::Internal::PMC_Subtruct_I_X
  002af	48 89 05 a8 00
	00 00		 mov	 QWORD PTR ?entry_points@Internal@Core@Math@Palmtree@@3U__tag_PMC_UINT_ENTRY_POINTS@1234@A+168, rax

; 192  :             entry_points.Subtruct_L_X = PMC_Subtruct_L_X;

  002b6	48 8d 05 00 00
	00 00		 lea	 rax, OFFSET FLAT:?PMC_Subtruct_L_X@Internal@Core@Math@Palmtree@@YA_K_KPEAU__tag_PMC_HANDLE_UINT@1234@@Z ; Palmtree::Math::Core::Internal::PMC_Subtruct_L_X
  002bd	48 89 05 b0 00
	00 00		 mov	 QWORD PTR ?entry_points@Internal@Core@Math@Palmtree@@3U__tag_PMC_UINT_ENTRY_POINTS@1234@A+176, rax

; 193  :             entry_points.Subtruct_X_I = PMC_Subtruct_X_I;

  002c4	48 8d 05 00 00
	00 00		 lea	 rax, OFFSET FLAT:?PMC_Subtruct_X_I@Internal@Core@Math@Palmtree@@YAPEAU__tag_PMC_HANDLE_UINT@1234@PEAU51234@I@Z ; Palmtree::Math::Core::Internal::PMC_Subtruct_X_I
  002cb	48 89 05 b8 00
	00 00		 mov	 QWORD PTR ?entry_points@Internal@Core@Math@Palmtree@@3U__tag_PMC_UINT_ENTRY_POINTS@1234@A+184, rax

; 194  :             entry_points.Subtruct_X_L = PMC_Subtruct_X_L;

  002d2	48 8d 05 00 00
	00 00		 lea	 rax, OFFSET FLAT:?PMC_Subtruct_X_L@Internal@Core@Math@Palmtree@@YAPEAU__tag_PMC_HANDLE_UINT@1234@PEAU51234@_K@Z ; Palmtree::Math::Core::Internal::PMC_Subtruct_X_L
  002d9	48 89 05 c0 00
	00 00		 mov	 QWORD PTR ?entry_points@Internal@Core@Math@Palmtree@@3U__tag_PMC_UINT_ENTRY_POINTS@1234@A+192, rax

; 195  :             entry_points.Subtruct_X_X = PMC_Subtruct_X_X;

  002e0	48 8d 05 00 00
	00 00		 lea	 rax, OFFSET FLAT:?PMC_Subtruct_X_X@Internal@Core@Math@Palmtree@@YAPEAU__tag_PMC_HANDLE_UINT@1234@PEAU51234@0@Z ; Palmtree::Math::Core::Internal::PMC_Subtruct_X_X
  002e7	48 89 05 c8 00
	00 00		 mov	 QWORD PTR ?entry_points@Internal@Core@Math@Palmtree@@3U__tag_PMC_UINT_ENTRY_POINTS@1234@A+200, rax

; 196  :             entry_points.Multiply_I_X = PMC_Multiply_I_X;

  002ee	48 8d 05 00 00
	00 00		 lea	 rax, OFFSET FLAT:?PMC_Multiply_I_X@Internal@Core@Math@Palmtree@@YAPEAU__tag_PMC_HANDLE_UINT@1234@IPEAU51234@@Z ; Palmtree::Math::Core::Internal::PMC_Multiply_I_X
  002f5	48 89 05 d0 00
	00 00		 mov	 QWORD PTR ?entry_points@Internal@Core@Math@Palmtree@@3U__tag_PMC_UINT_ENTRY_POINTS@1234@A+208, rax

; 197  :             entry_points.Multiply_L_X = PMC_Multiply_L_X;

  002fc	48 8d 05 00 00
	00 00		 lea	 rax, OFFSET FLAT:?PMC_Multiply_L_X@Internal@Core@Math@Palmtree@@YAPEAU__tag_PMC_HANDLE_UINT@1234@_KPEAU51234@@Z ; Palmtree::Math::Core::Internal::PMC_Multiply_L_X
  00303	48 89 05 d8 00
	00 00		 mov	 QWORD PTR ?entry_points@Internal@Core@Math@Palmtree@@3U__tag_PMC_UINT_ENTRY_POINTS@1234@A+216, rax

; 198  :             entry_points.Multiply_X_I = PMC_Multiply_X_I;

  0030a	48 8d 05 00 00
	00 00		 lea	 rax, OFFSET FLAT:?PMC_Multiply_X_I@Internal@Core@Math@Palmtree@@YAPEAU__tag_PMC_HANDLE_UINT@1234@PEAU51234@I@Z ; Palmtree::Math::Core::Internal::PMC_Multiply_X_I
  00311	48 89 05 e0 00
	00 00		 mov	 QWORD PTR ?entry_points@Internal@Core@Math@Palmtree@@3U__tag_PMC_UINT_ENTRY_POINTS@1234@A+224, rax

; 199  :             entry_points.Multiply_X_L = PMC_Multiply_X_L;

  00318	48 8d 05 00 00
	00 00		 lea	 rax, OFFSET FLAT:?PMC_Multiply_X_L@Internal@Core@Math@Palmtree@@YAPEAU__tag_PMC_HANDLE_UINT@1234@PEAU51234@_K@Z ; Palmtree::Math::Core::Internal::PMC_Multiply_X_L
  0031f	48 89 05 e8 00
	00 00		 mov	 QWORD PTR ?entry_points@Internal@Core@Math@Palmtree@@3U__tag_PMC_UINT_ENTRY_POINTS@1234@A+232, rax

; 200  :             entry_points.Multiply_X_X = PMC_Multiply_X_X;

  00326	48 8d 05 00 00
	00 00		 lea	 rax, OFFSET FLAT:?PMC_Multiply_X_X@Internal@Core@Math@Palmtree@@YAPEAU__tag_PMC_HANDLE_UINT@1234@PEAU51234@0@Z ; Palmtree::Math::Core::Internal::PMC_Multiply_X_X
  0032d	48 89 05 f0 00
	00 00		 mov	 QWORD PTR ?entry_points@Internal@Core@Math@Palmtree@@3U__tag_PMC_UINT_ENTRY_POINTS@1234@A+240, rax

; 201  :             entry_points.DivRem_I_X = PMC_DivRem_I_X;

  00334	48 8d 05 00 00
	00 00		 lea	 rax, OFFSET FLAT:?PMC_DivRem_I_X@Internal@Core@Math@Palmtree@@YAIIPEAU__tag_PMC_HANDLE_UINT@1234@PEAI@Z ; Palmtree::Math::Core::Internal::PMC_DivRem_I_X
  0033b	48 89 05 f8 00
	00 00		 mov	 QWORD PTR ?entry_points@Internal@Core@Math@Palmtree@@3U__tag_PMC_UINT_ENTRY_POINTS@1234@A+248, rax

; 202  :             entry_points.DivRem_L_X = PMC_DivRem_L_X;

  00342	48 8d 05 00 00
	00 00		 lea	 rax, OFFSET FLAT:?PMC_DivRem_L_X@Internal@Core@Math@Palmtree@@YA_K_KPEAU__tag_PMC_HANDLE_UINT@1234@PEA_K@Z ; Palmtree::Math::Core::Internal::PMC_DivRem_L_X
  00349	48 89 05 00 01
	00 00		 mov	 QWORD PTR ?entry_points@Internal@Core@Math@Palmtree@@3U__tag_PMC_UINT_ENTRY_POINTS@1234@A+256, rax

; 203  :             entry_points.DivRem_X_I = PMC_DivRem_X_I;

  00350	48 8d 05 00 00
	00 00		 lea	 rax, OFFSET FLAT:?PMC_DivRem_X_I@Internal@Core@Math@Palmtree@@YAIPEAU__tag_PMC_HANDLE_UINT@1234@IPEAPEAU51234@@Z ; Palmtree::Math::Core::Internal::PMC_DivRem_X_I
  00357	48 89 05 08 01
	00 00		 mov	 QWORD PTR ?entry_points@Internal@Core@Math@Palmtree@@3U__tag_PMC_UINT_ENTRY_POINTS@1234@A+264, rax

; 204  :             entry_points.DivRem_X_L = PMC_DivRem_X_L;

  0035e	48 8d 05 00 00
	00 00		 lea	 rax, OFFSET FLAT:?PMC_DivRem_X_L@Internal@Core@Math@Palmtree@@YA_KPEAU__tag_PMC_HANDLE_UINT@1234@_KPEAPEAU51234@@Z ; Palmtree::Math::Core::Internal::PMC_DivRem_X_L
  00365	48 89 05 10 01
	00 00		 mov	 QWORD PTR ?entry_points@Internal@Core@Math@Palmtree@@3U__tag_PMC_UINT_ENTRY_POINTS@1234@A+272, rax

; 205  :             entry_points.DivRem_X_X = PMC_DivRem_X_X;

  0036c	48 8d 05 00 00
	00 00		 lea	 rax, OFFSET FLAT:?PMC_DivRem_X_X@Internal@Core@Math@Palmtree@@YAPEAU__tag_PMC_HANDLE_UINT@1234@PEAU51234@0PEAPEAU51234@@Z ; Palmtree::Math::Core::Internal::PMC_DivRem_X_X
  00373	48 89 05 18 01
	00 00		 mov	 QWORD PTR ?entry_points@Internal@Core@Math@Palmtree@@3U__tag_PMC_UINT_ENTRY_POINTS@1234@A+280, rax

; 206  :             entry_points.RightShift_X_I = PMC_RightShift_X_I;

  0037a	48 8d 05 00 00
	00 00		 lea	 rax, OFFSET FLAT:?PMC_RightShift_X_I@Internal@Core@Math@Palmtree@@YAPEAU__tag_PMC_HANDLE_UINT@1234@PEAU51234@H@Z ; Palmtree::Math::Core::Internal::PMC_RightShift_X_I
  00381	48 89 05 28 01
	00 00		 mov	 QWORD PTR ?entry_points@Internal@Core@Math@Palmtree@@3U__tag_PMC_UINT_ENTRY_POINTS@1234@A+296, rax

; 207  :             entry_points.LeftShift_X_I = PMC_LeftShift_X_I;

  00388	48 8d 05 00 00
	00 00		 lea	 rax, OFFSET FLAT:?PMC_LeftShift_X_I@Internal@Core@Math@Palmtree@@YAPEAU__tag_PMC_HANDLE_UINT@1234@PEAU51234@H@Z ; Palmtree::Math::Core::Internal::PMC_LeftShift_X_I
  0038f	48 89 05 20 01
	00 00		 mov	 QWORD PTR ?entry_points@Internal@Core@Math@Palmtree@@3U__tag_PMC_UINT_ENTRY_POINTS@1234@A+288, rax

; 208  :             entry_points.BitwiseAnd_I_X = PMC_BitwiseAnd_I_X;

  00396	48 8d 05 00 00
	00 00		 lea	 rax, OFFSET FLAT:?PMC_BitwiseAnd_I_X@Internal@Core@Math@Palmtree@@YAIIPEAU__tag_PMC_HANDLE_UINT@1234@@Z ; Palmtree::Math::Core::Internal::PMC_BitwiseAnd_I_X
  0039d	48 89 05 30 01
	00 00		 mov	 QWORD PTR ?entry_points@Internal@Core@Math@Palmtree@@3U__tag_PMC_UINT_ENTRY_POINTS@1234@A+304, rax

; 209  :             entry_points.BitwiseAnd_L_X = PMC_BitwiseAnd_L_X;

  003a4	48 8d 05 00 00
	00 00		 lea	 rax, OFFSET FLAT:?PMC_BitwiseAnd_L_X@Internal@Core@Math@Palmtree@@YA_K_KPEAU__tag_PMC_HANDLE_UINT@1234@@Z ; Palmtree::Math::Core::Internal::PMC_BitwiseAnd_L_X
  003ab	48 89 05 38 01
	00 00		 mov	 QWORD PTR ?entry_points@Internal@Core@Math@Palmtree@@3U__tag_PMC_UINT_ENTRY_POINTS@1234@A+312, rax

; 210  :             entry_points.BitwiseAnd_X_I = PMC_BitwiseAnd_X_I;

  003b2	48 8d 05 00 00
	00 00		 lea	 rax, OFFSET FLAT:?PMC_BitwiseAnd_X_I@Internal@Core@Math@Palmtree@@YAIPEAU__tag_PMC_HANDLE_UINT@1234@I@Z ; Palmtree::Math::Core::Internal::PMC_BitwiseAnd_X_I
  003b9	48 89 05 40 01
	00 00		 mov	 QWORD PTR ?entry_points@Internal@Core@Math@Palmtree@@3U__tag_PMC_UINT_ENTRY_POINTS@1234@A+320, rax

; 211  :             entry_points.BitwiseAnd_X_L = PMC_BitwiseAnd_X_L;

  003c0	48 8d 05 00 00
	00 00		 lea	 rax, OFFSET FLAT:?PMC_BitwiseAnd_X_L@Internal@Core@Math@Palmtree@@YA_KPEAU__tag_PMC_HANDLE_UINT@1234@_K@Z ; Palmtree::Math::Core::Internal::PMC_BitwiseAnd_X_L
  003c7	89 0d 00 00 00
	00		 mov	 DWORD PTR ?entry_points@Internal@Core@Math@Palmtree@@3U__tag_PMC_UINT_ENTRY_POINTS@1234@A, ecx
  003cd	48 89 05 48 01
	00 00		 mov	 QWORD PTR ?entry_points@Internal@Core@Math@Palmtree@@3U__tag_PMC_UINT_ENTRY_POINTS@1234@A+328, rax

; 212  :             entry_points.BitwiseAnd_X_X = PMC_BitwiseAnd_X_X;

  003d4	48 8d 05 00 00
	00 00		 lea	 rax, OFFSET FLAT:?PMC_BitwiseAnd_X_X@Internal@Core@Math@Palmtree@@YAPEAU__tag_PMC_HANDLE_UINT@1234@PEAU51234@0@Z ; Palmtree::Math::Core::Internal::PMC_BitwiseAnd_X_X
  003db	48 89 05 50 01
	00 00		 mov	 QWORD PTR ?entry_points@Internal@Core@Math@Palmtree@@3U__tag_PMC_UINT_ENTRY_POINTS@1234@A+336, rax

; 213  :             entry_points.BitwiseOr_I_X = PMC_BitwiseOr_I_X;

  003e2	48 8d 05 00 00
	00 00		 lea	 rax, OFFSET FLAT:?PMC_BitwiseOr_I_X@Internal@Core@Math@Palmtree@@YAPEAU__tag_PMC_HANDLE_UINT@1234@IPEAU51234@@Z ; Palmtree::Math::Core::Internal::PMC_BitwiseOr_I_X
  003e9	48 89 05 58 01
	00 00		 mov	 QWORD PTR ?entry_points@Internal@Core@Math@Palmtree@@3U__tag_PMC_UINT_ENTRY_POINTS@1234@A+344, rax

; 214  :             entry_points.BitwiseOr_L_X = PMC_BitwiseOr_L_X;

  003f0	48 8d 05 00 00
	00 00		 lea	 rax, OFFSET FLAT:?PMC_BitwiseOr_L_X@Internal@Core@Math@Palmtree@@YAPEAU__tag_PMC_HANDLE_UINT@1234@_KPEAU51234@@Z ; Palmtree::Math::Core::Internal::PMC_BitwiseOr_L_X
  003f7	48 89 05 60 01
	00 00		 mov	 QWORD PTR ?entry_points@Internal@Core@Math@Palmtree@@3U__tag_PMC_UINT_ENTRY_POINTS@1234@A+352, rax

; 215  :             entry_points.BitwiseOr_X_I = PMC_BitwiseOr_X_I;

  003fe	48 8d 05 00 00
	00 00		 lea	 rax, OFFSET FLAT:?PMC_BitwiseOr_X_I@Internal@Core@Math@Palmtree@@YAPEAU__tag_PMC_HANDLE_UINT@1234@PEAU51234@I@Z ; Palmtree::Math::Core::Internal::PMC_BitwiseOr_X_I
  00405	48 89 05 68 01
	00 00		 mov	 QWORD PTR ?entry_points@Internal@Core@Math@Palmtree@@3U__tag_PMC_UINT_ENTRY_POINTS@1234@A+360, rax

; 216  :             entry_points.BitwiseOr_X_L = PMC_BitwiseOr_X_L;

  0040c	48 8d 05 00 00
	00 00		 lea	 rax, OFFSET FLAT:?PMC_BitwiseOr_X_L@Internal@Core@Math@Palmtree@@YAPEAU__tag_PMC_HANDLE_UINT@1234@PEAU51234@_K@Z ; Palmtree::Math::Core::Internal::PMC_BitwiseOr_X_L
  00413	48 89 05 70 01
	00 00		 mov	 QWORD PTR ?entry_points@Internal@Core@Math@Palmtree@@3U__tag_PMC_UINT_ENTRY_POINTS@1234@A+368, rax

; 217  :             entry_points.BitwiseOr_X_X = PMC_BitwiseOr_X_X;

  0041a	48 8d 05 00 00
	00 00		 lea	 rax, OFFSET FLAT:?PMC_BitwiseOr_X_X@Internal@Core@Math@Palmtree@@YAPEAU__tag_PMC_HANDLE_UINT@1234@PEAU51234@0@Z ; Palmtree::Math::Core::Internal::PMC_BitwiseOr_X_X
  00421	48 89 05 78 01
	00 00		 mov	 QWORD PTR ?entry_points@Internal@Core@Math@Palmtree@@3U__tag_PMC_UINT_ENTRY_POINTS@1234@A+376, rax

; 218  :             entry_points.ExclusiveOr_I_X = PMC_ExclusiveOr_I_X;

  00428	48 8d 05 00 00
	00 00		 lea	 rax, OFFSET FLAT:?PMC_ExclusiveOr_I_X@Internal@Core@Math@Palmtree@@YAPEAU__tag_PMC_HANDLE_UINT@1234@IPEAU51234@@Z ; Palmtree::Math::Core::Internal::PMC_ExclusiveOr_I_X
  0042f	48 89 05 80 01
	00 00		 mov	 QWORD PTR ?entry_points@Internal@Core@Math@Palmtree@@3U__tag_PMC_UINT_ENTRY_POINTS@1234@A+384, rax

; 219  :             entry_points.ExclusiveOr_L_X = PMC_ExclusiveOr_L_X;

  00436	48 8d 05 00 00
	00 00		 lea	 rax, OFFSET FLAT:?PMC_ExclusiveOr_L_X@Internal@Core@Math@Palmtree@@YAPEAU__tag_PMC_HANDLE_UINT@1234@_KPEAU51234@@Z ; Palmtree::Math::Core::Internal::PMC_ExclusiveOr_L_X
  0043d	48 89 05 88 01
	00 00		 mov	 QWORD PTR ?entry_points@Internal@Core@Math@Palmtree@@3U__tag_PMC_UINT_ENTRY_POINTS@1234@A+392, rax

; 220  :             entry_points.ExclusiveOr_X_I = PMC_ExclusiveOr_X_I;

  00444	48 8d 05 00 00
	00 00		 lea	 rax, OFFSET FLAT:?PMC_ExclusiveOr_X_I@Internal@Core@Math@Palmtree@@YAPEAU__tag_PMC_HANDLE_UINT@1234@PEAU51234@I@Z ; Palmtree::Math::Core::Internal::PMC_ExclusiveOr_X_I
  0044b	48 89 05 90 01
	00 00		 mov	 QWORD PTR ?entry_points@Internal@Core@Math@Palmtree@@3U__tag_PMC_UINT_ENTRY_POINTS@1234@A+400, rax

; 221  :             entry_points.ExclusiveOr_X_L = PMC_ExclusiveOr_X_L;

  00452	48 8d 05 00 00
	00 00		 lea	 rax, OFFSET FLAT:?PMC_ExclusiveOr_X_L@Internal@Core@Math@Palmtree@@YAPEAU__tag_PMC_HANDLE_UINT@1234@PEAU51234@_K@Z ; Palmtree::Math::Core::Internal::PMC_ExclusiveOr_X_L
  00459	48 89 05 98 01
	00 00		 mov	 QWORD PTR ?entry_points@Internal@Core@Math@Palmtree@@3U__tag_PMC_UINT_ENTRY_POINTS@1234@A+408, rax

; 222  :             entry_points.ExclusiveOr_X_X = PMC_ExclusiveOr_X_X;

  00460	48 8d 05 00 00
	00 00		 lea	 rax, OFFSET FLAT:?PMC_ExclusiveOr_X_X@Internal@Core@Math@Palmtree@@YAPEAU__tag_PMC_HANDLE_UINT@1234@PEAU51234@0@Z ; Palmtree::Math::Core::Internal::PMC_ExclusiveOr_X_X
  00467	48 89 05 a0 01
	00 00		 mov	 QWORD PTR ?entry_points@Internal@Core@Math@Palmtree@@3U__tag_PMC_UINT_ENTRY_POINTS@1234@A+416, rax

; 223  :             entry_points.Compare_I_X = PMC_Compare_I_X;

  0046e	48 8d 05 00 00
	00 00		 lea	 rax, OFFSET FLAT:?PMC_Compare_I_X@Internal@Core@Math@Palmtree@@YAHIPEAU__tag_PMC_HANDLE_UINT@1234@@Z ; Palmtree::Math::Core::Internal::PMC_Compare_I_X
  00475	48 89 05 a8 01
	00 00		 mov	 QWORD PTR ?entry_points@Internal@Core@Math@Palmtree@@3U__tag_PMC_UINT_ENTRY_POINTS@1234@A+424, rax

; 224  :             entry_points.Compare_L_X = PMC_Compare_L_X;

  0047c	48 8d 05 00 00
	00 00		 lea	 rax, OFFSET FLAT:?PMC_Compare_L_X@Internal@Core@Math@Palmtree@@YAH_KPEAU__tag_PMC_HANDLE_UINT@1234@@Z ; Palmtree::Math::Core::Internal::PMC_Compare_L_X
  00483	48 89 05 b0 01
	00 00		 mov	 QWORD PTR ?entry_points@Internal@Core@Math@Palmtree@@3U__tag_PMC_UINT_ENTRY_POINTS@1234@A+432, rax

; 225  :             entry_points.Compare_X_I = PMC_Compare_X_I;

  0048a	48 8d 05 00 00
	00 00		 lea	 rax, OFFSET FLAT:?PMC_Compare_X_I@Internal@Core@Math@Palmtree@@YAHPEAU__tag_PMC_HANDLE_UINT@1234@I@Z ; Palmtree::Math::Core::Internal::PMC_Compare_X_I
  00491	48 89 05 b8 01
	00 00		 mov	 QWORD PTR ?entry_points@Internal@Core@Math@Palmtree@@3U__tag_PMC_UINT_ENTRY_POINTS@1234@A+440, rax

; 226  :             entry_points.Compare_X_L = PMC_Compare_X_L;

  00498	48 8d 05 00 00
	00 00		 lea	 rax, OFFSET FLAT:?PMC_Compare_X_L@Internal@Core@Math@Palmtree@@YAHPEAU__tag_PMC_HANDLE_UINT@1234@_K@Z ; Palmtree::Math::Core::Internal::PMC_Compare_X_L
  0049f	48 89 05 c0 01
	00 00		 mov	 QWORD PTR ?entry_points@Internal@Core@Math@Palmtree@@3U__tag_PMC_UINT_ENTRY_POINTS@1234@A+448, rax

; 227  :             entry_points.Compare_X_X = PMC_Compare_X_X;

  004a6	48 8d 05 00 00
	00 00		 lea	 rax, OFFSET FLAT:?PMC_Compare_X_X@Internal@Core@Math@Palmtree@@YAHPEAU__tag_PMC_HANDLE_UINT@1234@0@Z ; Palmtree::Math::Core::Internal::PMC_Compare_X_X
  004ad	48 89 05 c8 01
	00 00		 mov	 QWORD PTR ?entry_points@Internal@Core@Math@Palmtree@@3U__tag_PMC_UINT_ENTRY_POINTS@1234@A+456, rax

; 228  :             entry_points.Equals_I_X = PMC_Equals_I_X;

  004b4	48 8d 05 00 00
	00 00		 lea	 rax, OFFSET FLAT:?PMC_Equals_I_X@Internal@Core@Math@Palmtree@@YAIIPEAU__tag_PMC_HANDLE_UINT@1234@@Z ; Palmtree::Math::Core::Internal::PMC_Equals_I_X
  004bb	48 89 05 d0 01
	00 00		 mov	 QWORD PTR ?entry_points@Internal@Core@Math@Palmtree@@3U__tag_PMC_UINT_ENTRY_POINTS@1234@A+464, rax

; 229  :             entry_points.Equals_L_X = PMC_Equals_L_X;

  004c2	48 8d 05 00 00
	00 00		 lea	 rax, OFFSET FLAT:?PMC_Equals_L_X@Internal@Core@Math@Palmtree@@YAI_KPEAU__tag_PMC_HANDLE_UINT@1234@@Z ; Palmtree::Math::Core::Internal::PMC_Equals_L_X
  004c9	48 89 05 d8 01
	00 00		 mov	 QWORD PTR ?entry_points@Internal@Core@Math@Palmtree@@3U__tag_PMC_UINT_ENTRY_POINTS@1234@A+472, rax

; 230  :             entry_points.Equals_X_I = PMC_Equals_X_I;

  004d0	48 8d 05 00 00
	00 00		 lea	 rax, OFFSET FLAT:?PMC_Equals_X_I@Internal@Core@Math@Palmtree@@YAIPEAU__tag_PMC_HANDLE_UINT@1234@I@Z ; Palmtree::Math::Core::Internal::PMC_Equals_X_I
  004d7	48 89 05 e0 01
	00 00		 mov	 QWORD PTR ?entry_points@Internal@Core@Math@Palmtree@@3U__tag_PMC_UINT_ENTRY_POINTS@1234@A+480, rax

; 231  :             entry_points.Equals_X_L = PMC_Equals_X_L;

  004de	48 8d 05 00 00
	00 00		 lea	 rax, OFFSET FLAT:?PMC_Equals_X_L@Internal@Core@Math@Palmtree@@YAIPEAU__tag_PMC_HANDLE_UINT@1234@_K@Z ; Palmtree::Math::Core::Internal::PMC_Equals_X_L
  004e5	48 89 05 e8 01
	00 00		 mov	 QWORD PTR ?entry_points@Internal@Core@Math@Palmtree@@3U__tag_PMC_UINT_ENTRY_POINTS@1234@A+488, rax

; 232  :             entry_points.Equals_X_X = PMC_Equals_X_X;

  004ec	48 8d 05 00 00
	00 00		 lea	 rax, OFFSET FLAT:?PMC_Equals_X_X@Internal@Core@Math@Palmtree@@YAIPEAU__tag_PMC_HANDLE_UINT@1234@0@Z ; Palmtree::Math::Core::Internal::PMC_Equals_X_X
  004f3	48 89 05 f0 01
	00 00		 mov	 QWORD PTR ?entry_points@Internal@Core@Math@Palmtree@@3U__tag_PMC_UINT_ENTRY_POINTS@1234@A+496, rax

; 233  :             entry_points.GreatestCommonDivisor_I_X = PMC_GreatestCommonDivisor_I_X;

  004fa	48 8d 05 00 00
	00 00		 lea	 rax, OFFSET FLAT:?PMC_GreatestCommonDivisor_I_X@Internal@Core@Math@Palmtree@@YAPEAU__tag_PMC_HANDLE_UINT@1234@IPEAU51234@@Z ; Palmtree::Math::Core::Internal::PMC_GreatestCommonDivisor_I_X
  00501	48 89 05 f8 01
	00 00		 mov	 QWORD PTR ?entry_points@Internal@Core@Math@Palmtree@@3U__tag_PMC_UINT_ENTRY_POINTS@1234@A+504, rax

; 234  :             entry_points.GreatestCommonDivisor_L_X = PMC_GreatestCommonDivisor_L_X;

  00508	48 8d 05 00 00
	00 00		 lea	 rax, OFFSET FLAT:?PMC_GreatestCommonDivisor_L_X@Internal@Core@Math@Palmtree@@YAPEAU__tag_PMC_HANDLE_UINT@1234@_KPEAU51234@@Z ; Palmtree::Math::Core::Internal::PMC_GreatestCommonDivisor_L_X
  0050f	48 89 05 00 02
	00 00		 mov	 QWORD PTR ?entry_points@Internal@Core@Math@Palmtree@@3U__tag_PMC_UINT_ENTRY_POINTS@1234@A+512, rax

; 235  :             entry_points.GreatestCommonDivisor_X_I = PMC_GreatestCommonDivisor_X_I;

  00516	48 8d 05 00 00
	00 00		 lea	 rax, OFFSET FLAT:?PMC_GreatestCommonDivisor_X_I@Internal@Core@Math@Palmtree@@YAPEAU__tag_PMC_HANDLE_UINT@1234@PEAU51234@I@Z ; Palmtree::Math::Core::Internal::PMC_GreatestCommonDivisor_X_I
  0051d	48 89 05 08 02
	00 00		 mov	 QWORD PTR ?entry_points@Internal@Core@Math@Palmtree@@3U__tag_PMC_UINT_ENTRY_POINTS@1234@A+520, rax

; 236  :             entry_points.GreatestCommonDivisor_X_L = PMC_GreatestCommonDivisor_X_L;

  00524	48 8d 05 00 00
	00 00		 lea	 rax, OFFSET FLAT:?PMC_GreatestCommonDivisor_X_L@Internal@Core@Math@Palmtree@@YAPEAU__tag_PMC_HANDLE_UINT@1234@PEAU51234@_K@Z ; Palmtree::Math::Core::Internal::PMC_GreatestCommonDivisor_X_L
  0052b	48 89 05 10 02
	00 00		 mov	 QWORD PTR ?entry_points@Internal@Core@Math@Palmtree@@3U__tag_PMC_UINT_ENTRY_POINTS@1234@A+528, rax

; 237  :             entry_points.GreatestCommonDivisor_X_X = PMC_GreatestCommonDivisor_X_X;

  00532	48 8d 05 00 00
	00 00		 lea	 rax, OFFSET FLAT:?PMC_GreatestCommonDivisor_X_X@Internal@Core@Math@Palmtree@@YAPEAU__tag_PMC_HANDLE_UINT@1234@PEAU51234@0@Z ; Palmtree::Math::Core::Internal::PMC_GreatestCommonDivisor_X_X
  00539	48 89 05 18 02
	00 00		 mov	 QWORD PTR ?entry_points@Internal@Core@Math@Palmtree@@3U__tag_PMC_UINT_ENTRY_POINTS@1234@A+536, rax

; 238  :             entry_points.Pow_X_I = PMC_Pow_X_I;

  00540	48 8d 05 00 00
	00 00		 lea	 rax, OFFSET FLAT:?PMC_Pow_X_I@Internal@Core@Math@Palmtree@@YAPEAU__tag_PMC_HANDLE_UINT@1234@PEAU51234@I@Z ; Palmtree::Math::Core::Internal::PMC_Pow_X_I
  00547	48 89 05 20 02
	00 00		 mov	 QWORD PTR ?entry_points@Internal@Core@Math@Palmtree@@3U__tag_PMC_UINT_ENTRY_POINTS@1234@A+544, rax

; 239  :             entry_points.Pow_X_L = PMC_Pow_X_L;

  0054e	48 8d 05 00 00
	00 00		 lea	 rax, OFFSET FLAT:?PMC_Pow_X_L@Internal@Core@Math@Palmtree@@YAPEAU__tag_PMC_HANDLE_UINT@1234@PEAU51234@_K@Z ; Palmtree::Math::Core::Internal::PMC_Pow_X_L
  00555	48 89 05 28 02
	00 00		 mov	 QWORD PTR ?entry_points@Internal@Core@Math@Palmtree@@3U__tag_PMC_UINT_ENTRY_POINTS@1234@A+552, rax

; 240  :             entry_points.ModPow_X_X_X = PMC_ModPow_X_X_X;

  0055c	48 8d 05 00 00
	00 00		 lea	 rax, OFFSET FLAT:?PMC_ModPow_X_X_X@Internal@Core@Math@Palmtree@@YAPEAU__tag_PMC_HANDLE_UINT@1234@PEAU51234@00@Z ; Palmtree::Math::Core::Internal::PMC_ModPow_X_X_X
  00563	48 89 05 30 02
	00 00		 mov	 QWORD PTR ?entry_points@Internal@Core@Math@Palmtree@@3U__tag_PMC_UINT_ENTRY_POINTS@1234@A+560, rax

; 241  :             entry_points.GetConstantValue_I = PMC_GetConstantValue_I;

  0056a	48 8d 05 00 00
	00 00		 lea	 rax, OFFSET FLAT:?PMC_GetConstantValue_I@Internal@Core@Math@Palmtree@@YAPEAU__tag_PMC_HANDLE_UINT@1234@H@Z ; Palmtree::Math::Core::Internal::PMC_GetConstantValue_I
  00571	48 89 05 30 00
	00 00		 mov	 QWORD PTR ?entry_points@Internal@Core@Math@Palmtree@@3U__tag_PMC_UINT_ENTRY_POINTS@1234@A+48, rax

; 242  :             entry_points.Clone_X = PMC_Clone_X;

  00578	48 8d 05 00 00
	00 00		 lea	 rax, OFFSET FLAT:?PMC_Clone_X@Internal@Core@Math@Palmtree@@YAPEAU__tag_PMC_HANDLE_UINT@1234@PEAU51234@@Z ; Palmtree::Math::Core::Internal::PMC_Clone_X
  0057f	48 89 05 48 00
	00 00		 mov	 QWORD PTR ?entry_points@Internal@Core@Math@Palmtree@@3U__tag_PMC_UINT_ENTRY_POINTS@1234@A+72, rax

; 243  :             entry_points.GetAllocatedMemorySize = PMC_GetAllocatedMemorySize;

  00586	48 8d 05 00 00
	00 00		 lea	 rax, OFFSET FLAT:?PMC_GetAllocatedMemorySize@Internal@Core@Math@Palmtree@@YA_KXZ ; Palmtree::Math::Core::Internal::PMC_GetAllocatedMemorySize
  0058d	48 89 05 50 00
	00 00		 mov	 QWORD PTR ?entry_points@Internal@Core@Math@Palmtree@@3U__tag_PMC_UINT_ENTRY_POINTS@1234@A+80, rax

; 244  : 
; 245  :             entry_points.FromByteArrayForSINT = PMC_FromByteArrayForSINT;

  00594	48 8d 05 00 00
	00 00		 lea	 rax, OFFSET FLAT:?PMC_FromByteArrayForSINT@Internal@Core@Math@Palmtree@@YAPEAU__tag_PMC_HANDLE_UINT@1234@PEAE_KPEAD@Z ; Palmtree::Math::Core::Internal::PMC_FromByteArrayForSINT
  0059b	48 89 05 38 02
	00 00		 mov	 QWORD PTR ?entry_points@Internal@Core@Math@Palmtree@@3U__tag_PMC_UINT_ENTRY_POINTS@1234@A+568, rax

; 246  :             entry_points.ToByteArrayForSINT = PMC_ToByteArrayForSINT;

  005a2	48 8d 05 00 00
	00 00		 lea	 rax, OFFSET FLAT:?PMC_ToByteArrayForSINT@Internal@Core@Math@Palmtree@@YA_KDPEAU__tag_PMC_HANDLE_UINT@1234@PEAE_K@Z ; Palmtree::Math::Core::Internal::PMC_ToByteArrayForSINT
  005a9	48 89 05 40 02
	00 00		 mov	 QWORD PTR ?entry_points@Internal@Core@Math@Palmtree@@3U__tag_PMC_UINT_ENTRY_POINTS@1234@A+576, rax

; 247  :             entry_points.TryParseForSINT = PMC_TryParseForSINT;

  005b0	48 8d 05 00 00
	00 00		 lea	 rax, OFFSET FLAT:?PMC_TryParseForSINT@Internal@Core@Math@Palmtree@@YAHPEB_WHPEBU__tag_PMC_NUMBER_FORMAT_INFO@1234@PEADPEAPEAU__tag_PMC_HANDLE_UINT@1234@PEAI@Z ; Palmtree::Math::Core::Internal::PMC_TryParseForSINT
  005b7	48 89 05 48 02
	00 00		 mov	 QWORD PTR ?entry_points@Internal@Core@Math@Palmtree@@3U__tag_PMC_UINT_ENTRY_POINTS@1234@A+584, rax

; 248  : 
; 249  :             initialized = 1;

  005be	c6 05 00 00 00
	00 01		 mov	 BYTE PTR ?initialized@Internal@Core@Math@Palmtree@@3DA, 1
$LN2@PMC_UINT_I:

; 250  :         }
; 251  : 
; 252  :         return (&entry_points);

  005c5	48 8d 05 00 00
	00 00		 lea	 rax, OFFSET FLAT:?entry_points@Internal@Core@Math@Palmtree@@3U__tag_PMC_UINT_ENTRY_POINTS@1234@A

; 253  :     }

  005cc	48 8b 9c 24 90
	00 00 00	 mov	 rbx, QWORD PTR [rsp+144]
  005d4	48 83 c4 70	 add	 rsp, 112		; 00000070H
  005d8	5d		 pop	 rbp
  005d9	c3		 ret	 0
$LN40@PMC_UINT_I:
  005da	48 8b 9c 24 90
	00 00 00	 mov	 rbx, QWORD PTR [rsp+144]
  005e2	33 c0		 xor	 eax, eax
  005e4	48 83 c4 70	 add	 rsp, 112		; 00000070H
  005e8	5d		 pop	 rbp
  005e9	c3		 ret	 0
PMC_UINT_Initialize ENDP
_TEXT	ENDS
END
