; Listing generated by Microsoft (R) Optimizing Compiler Version 19.16.27027.1 

include listing.inc

INCLUDELIB MSVCRT
INCLUDELIB OLDNAMES

PUBLIC	??1exception@std@@UEAA@XZ			; std::exception::~exception
PUBLIC	?what@exception@std@@UEBAPEBDXZ			; std::exception::what
PUBLIC	??_Gexception@std@@UEAAPEAXI@Z			; std::exception::`scalar deleting destructor'
PUBLIC	??0Exception@Internal@Core@Math@Palmtree@@QEAA@AEBV01234@@Z ; Palmtree::Math::Core::Internal::Exception::Exception
PUBLIC	??1Exception@Internal@Core@Math@Palmtree@@UEAA@XZ ; Palmtree::Math::Core::Internal::Exception::~Exception
PUBLIC	??_GException@Internal@Core@Math@Palmtree@@UEAAPEAXI@Z ; Palmtree::Math::Core::Internal::Exception::`scalar deleting destructor'
PUBLIC	??0OverflowException@Internal@Core@Math@Palmtree@@QEAA@PEB_W@Z ; Palmtree::Math::Core::Internal::OverflowException::OverflowException
PUBLIC	??0OverflowException@Internal@Core@Math@Palmtree@@QEAA@AEBV01234@@Z ; Palmtree::Math::Core::Internal::OverflowException::OverflowException
PUBLIC	??1OverflowException@Internal@Core@Math@Palmtree@@UEAA@XZ ; Palmtree::Math::Core::Internal::OverflowException::~OverflowException
PUBLIC	??_GOverflowException@Internal@Core@Math@Palmtree@@UEAAPEAXI@Z ; Palmtree::Math::Core::Internal::OverflowException::`scalar deleting destructor'
PUBLIC	??1InternalErrorException@Internal@Core@Math@Palmtree@@UEAA@XZ ; Palmtree::Math::Core::Internal::InternalErrorException::~InternalErrorException
PUBLIC	??_GInternalErrorException@Internal@Core@Math@Palmtree@@UEAAPEAXI@Z ; Palmtree::Math::Core::Internal::InternalErrorException::`scalar deleting destructor'
PUBLIC	?Initialize_To@Internal@Core@Math@Palmtree@@YAHPEAU_tag_PROCESSOR_FEATURES@1234@@Z ; Palmtree::Math::Core::Internal::Initialize_To
PUBLIC	?PMC_To_X_I@Internal@Core@Math@Palmtree@@YAIPEAU__tag_PMC_HANDLE_UINT@1234@@Z ; Palmtree::Math::Core::Internal::PMC_To_X_I
PUBLIC	?PMC_To_X_L@Internal@Core@Math@Palmtree@@YA_KPEAU__tag_PMC_HANDLE_UINT@1234@@Z ; Palmtree::Math::Core::Internal::PMC_To_X_L
PUBLIC	??_7exception@std@@6B@				; std::exception::`vftable'
PUBLIC	??_C@_0BC@EOODALEL@Unknown?5exception@		; `string'
PUBLIC	??_7Exception@Internal@Core@Math@Palmtree@@6B@	; Palmtree::Math::Core::Internal::Exception::`vftable'
PUBLIC	??_7OverflowException@Internal@Core@Math@Palmtree@@6B@ ; Palmtree::Math::Core::Internal::OverflowException::`vftable'
PUBLIC	??_7InternalErrorException@Internal@Core@Math@Palmtree@@6B@ ; Palmtree::Math::Core::Internal::InternalErrorException::`vftable'
PUBLIC	??_R0?AVInternalErrorException@Internal@Core@Math@Palmtree@@@8 ; Palmtree::Math::Core::Internal::InternalErrorException `RTTI Type Descriptor'
PUBLIC	??_R0?AVException@Internal@Core@Math@Palmtree@@@8 ; Palmtree::Math::Core::Internal::Exception `RTTI Type Descriptor'
PUBLIC	_CT??_R0?AVException@Internal@Core@Math@Palmtree@@@8??0Exception@Internal@Core@Math@Palmtree@@QEAA@AEBV01234@@Z48
PUBLIC	_TI2?AVOverflowException@Internal@Core@Math@Palmtree@@
PUBLIC	_CTA2?AVOverflowException@Internal@Core@Math@Palmtree@@
PUBLIC	??_R0?AVOverflowException@Internal@Core@Math@Palmtree@@@8 ; Palmtree::Math::Core::Internal::OverflowException `RTTI Type Descriptor'
PUBLIC	_CT??_R0?AVOverflowException@Internal@Core@Math@Palmtree@@@8??0OverflowException@Internal@Core@Math@Palmtree@@QEAA@AEBV01234@@Z48
PUBLIC	??_C@_1CK@FCDNPBLF@?$AA3?$AA2?$AAb?$AAi?$AAt?$AAt?$AAp?$AAx?$AAn?$PP?$IL?$AA?7?$PP?$NL?$AAk?$AA1?$AAW@ ; `string'
PUBLIC	??_C@_1CK@EPAIANDA@?$AA6?$AA4?$AAb?$AAi?$AAt?$AAt?$AAp?$AAx?$AAn?$PP?$IL?$AA?7?$PP?$NL?$AAk?$AA1?$AAW@ ; `string'
PUBLIC	??_R4exception@std@@6B@				; std::exception::`RTTI Complete Object Locator'
PUBLIC	??_R0?AVexception@std@@@8			; std::exception `RTTI Type Descriptor'
PUBLIC	??_R3exception@std@@8				; std::exception::`RTTI Class Hierarchy Descriptor'
PUBLIC	??_R2exception@std@@8				; std::exception::`RTTI Base Class Array'
PUBLIC	??_R1A@?0A@EA@exception@std@@8			; std::exception::`RTTI Base Class Descriptor at (0,-1,0,64)'
PUBLIC	??_R4Exception@Internal@Core@Math@Palmtree@@6B@	; Palmtree::Math::Core::Internal::Exception::`RTTI Complete Object Locator'
PUBLIC	??_R3Exception@Internal@Core@Math@Palmtree@@8	; Palmtree::Math::Core::Internal::Exception::`RTTI Class Hierarchy Descriptor'
PUBLIC	??_R2Exception@Internal@Core@Math@Palmtree@@8	; Palmtree::Math::Core::Internal::Exception::`RTTI Base Class Array'
PUBLIC	??_R1A@?0A@EA@Exception@Internal@Core@Math@Palmtree@@8 ; Palmtree::Math::Core::Internal::Exception::`RTTI Base Class Descriptor at (0,-1,0,64)'
PUBLIC	??_R1A@?0A@EN@exception@std@@8			; std::exception::`RTTI Base Class Descriptor at (0,-1,0,77)'
PUBLIC	??_R4OverflowException@Internal@Core@Math@Palmtree@@6B@ ; Palmtree::Math::Core::Internal::OverflowException::`RTTI Complete Object Locator'
PUBLIC	??_R3OverflowException@Internal@Core@Math@Palmtree@@8 ; Palmtree::Math::Core::Internal::OverflowException::`RTTI Class Hierarchy Descriptor'
PUBLIC	??_R2OverflowException@Internal@Core@Math@Palmtree@@8 ; Palmtree::Math::Core::Internal::OverflowException::`RTTI Base Class Array'
PUBLIC	??_R1A@?0A@EA@OverflowException@Internal@Core@Math@Palmtree@@8 ; Palmtree::Math::Core::Internal::OverflowException::`RTTI Base Class Descriptor at (0,-1,0,64)'
PUBLIC	??_R4InternalErrorException@Internal@Core@Math@Palmtree@@6B@ ; Palmtree::Math::Core::Internal::InternalErrorException::`RTTI Complete Object Locator'
PUBLIC	??_R3InternalErrorException@Internal@Core@Math@Palmtree@@8 ; Palmtree::Math::Core::Internal::InternalErrorException::`RTTI Class Hierarchy Descriptor'
PUBLIC	??_R2InternalErrorException@Internal@Core@Math@Palmtree@@8 ; Palmtree::Math::Core::Internal::InternalErrorException::`RTTI Base Class Array'
PUBLIC	??_R1A@?0A@EA@InternalErrorException@Internal@Core@Math@Palmtree@@8 ; Palmtree::Math::Core::Internal::InternalErrorException::`RTTI Base Class Descriptor at (0,-1,0,64)'
EXTRN	??3@YAXPEAX_K@Z:PROC				; operator delete
EXTRN	__std_exception_destroy:PROC
EXTRN	??_Eexception@std@@UEAAPEAXI@Z:PROC		; std::exception::`vector deleting destructor'
EXTRN	??_EException@Internal@Core@Math@Palmtree@@UEAAPEAXI@Z:PROC ; Palmtree::Math::Core::Internal::Exception::`vector deleting destructor'
EXTRN	??_EOverflowException@Internal@Core@Math@Palmtree@@UEAAPEAXI@Z:PROC ; Palmtree::Math::Core::Internal::OverflowException::`vector deleting destructor'
EXTRN	??_EInternalErrorException@Internal@Core@Math@Palmtree@@UEAAPEAXI@Z:PROC ; Palmtree::Math::Core::Internal::InternalErrorException::`vector deleting destructor'
EXTRN	?CheckNumber@Internal@Core@Math@Palmtree@@YAXPEAU__tag_NUMBER_HEADER@1234@@Z:PROC ; Palmtree::Math::Core::Internal::CheckNumber
EXTRN	_CxxThrowException:PROC
EXTRN	__CxxFrameHandler3:PROC
EXTRN	??_7type_info@@6B@:BYTE				; type_info::`vftable'
;	COMDAT pdata
pdata	SEGMENT
$pdata$??1exception@std@@UEAA@XZ DD imagerel $LN5
	DD	imagerel $LN5+38
	DD	imagerel $unwind$??1exception@std@@UEAA@XZ
pdata	ENDS
;	COMDAT pdata
pdata	SEGMENT
$pdata$??_Gexception@std@@UEAAPEAXI@Z DD imagerel $LN9
	DD	imagerel $LN9+78
	DD	imagerel $unwind$??_Gexception@std@@UEAAPEAXI@Z
pdata	ENDS
;	COMDAT pdata
pdata	SEGMENT
$pdata$??0Exception@Internal@Core@Math@Palmtree@@IEAA@HPEB_W@Z DD imagerel $LN8
	DD	imagerel $LN8+70
	DD	imagerel $unwind$??0Exception@Internal@Core@Math@Palmtree@@IEAA@HPEB_W@Z
pdata	ENDS
;	COMDAT pdata
pdata	SEGMENT
$pdata$??0Exception@Internal@Core@Math@Palmtree@@IEAA@HPEB_W0@Z DD imagerel $LN8
	DD	imagerel $LN8+66
	DD	imagerel $unwind$??0Exception@Internal@Core@Math@Palmtree@@IEAA@HPEB_W0@Z
pdata	ENDS
;	COMDAT pdata
pdata	SEGMENT
$pdata$??0Exception@Internal@Core@Math@Palmtree@@QEAA@AEBV01234@@Z DD imagerel $LN8
	DD	imagerel $LN8+77
	DD	imagerel $unwind$??0Exception@Internal@Core@Math@Palmtree@@QEAA@AEBV01234@@Z
pdata	ENDS
;	COMDAT pdata
pdata	SEGMENT
$pdata$??1Exception@Internal@Core@Math@Palmtree@@UEAA@XZ DD imagerel $LN8
	DD	imagerel $LN8+53
	DD	imagerel $unwind$??1Exception@Internal@Core@Math@Palmtree@@UEAA@XZ
pdata	ENDS
;	COMDAT pdata
pdata	SEGMENT
$pdata$??_GException@Internal@Core@Math@Palmtree@@UEAAPEAXI@Z DD imagerel $LN12
	DD	imagerel $LN12+92
	DD	imagerel $unwind$??_GException@Internal@Core@Math@Palmtree@@UEAAPEAXI@Z
pdata	ENDS
;	COMDAT pdata
pdata	SEGMENT
$pdata$??0OverflowException@Internal@Core@Math@Palmtree@@QEAA@PEB_W@Z DD imagerel $LN11
	DD	imagerel $LN11+84
	DD	imagerel $unwind$??0OverflowException@Internal@Core@Math@Palmtree@@QEAA@PEB_W@Z
pdata	ENDS
;	COMDAT pdata
pdata	SEGMENT
$pdata$??0OverflowException@Internal@Core@Math@Palmtree@@QEAA@AEBV01234@@Z DD imagerel $LN11
	DD	imagerel $LN11+87
	DD	imagerel $unwind$??0OverflowException@Internal@Core@Math@Palmtree@@QEAA@AEBV01234@@Z
pdata	ENDS
;	COMDAT pdata
pdata	SEGMENT
$pdata$??1OverflowException@Internal@Core@Math@Palmtree@@UEAA@XZ DD imagerel $LN11
	DD	imagerel $LN11+63
	DD	imagerel $unwind$??1OverflowException@Internal@Core@Math@Palmtree@@UEAA@XZ
pdata	ENDS
;	COMDAT pdata
pdata	SEGMENT
$pdata$??_GOverflowException@Internal@Core@Math@Palmtree@@UEAAPEAXI@Z DD imagerel $LN15
	DD	imagerel $LN15+102
	DD	imagerel $unwind$??_GOverflowException@Internal@Core@Math@Palmtree@@UEAAPEAXI@Z
pdata	ENDS
;	COMDAT pdata
pdata	SEGMENT
$pdata$??0InternalErrorException@Internal@Core@Math@Palmtree@@QEAA@PEB_W0@Z DD imagerel $LN11
	DD	imagerel $LN11+80
	DD	imagerel $unwind$??0InternalErrorException@Internal@Core@Math@Palmtree@@QEAA@PEB_W0@Z
pdata	ENDS
;	COMDAT pdata
pdata	SEGMENT
$pdata$??1InternalErrorException@Internal@Core@Math@Palmtree@@UEAA@XZ DD imagerel $LN11
	DD	imagerel $LN11+63
	DD	imagerel $unwind$??1InternalErrorException@Internal@Core@Math@Palmtree@@UEAA@XZ
pdata	ENDS
;	COMDAT pdata
pdata	SEGMENT
$pdata$??_GInternalErrorException@Internal@Core@Math@Palmtree@@UEAAPEAXI@Z DD imagerel $LN15
	DD	imagerel $LN15+102
	DD	imagerel $unwind$??_GInternalErrorException@Internal@Core@Math@Palmtree@@UEAAPEAXI@Z
pdata	ENDS
;	COMDAT pdata
pdata	SEGMENT
$pdata$?PMC_To_X_I@Internal@Core@Math@Palmtree@@YAIPEAU__tag_PMC_HANDLE_UINT@1234@@Z DD imagerel $LN10
	DD	imagerel $LN10+82
	DD	imagerel $unwind$?PMC_To_X_I@Internal@Core@Math@Palmtree@@YAIPEAU__tag_PMC_HANDLE_UINT@1234@@Z
pdata	ENDS
;	COMDAT pdata
pdata	SEGMENT
$pdata$?PMC_To_X_L@Internal@Core@Math@Palmtree@@YA_KPEAU__tag_PMC_HANDLE_UINT@1234@@Z DD imagerel $LN16
	DD	imagerel $LN16+83
	DD	imagerel $unwind$?PMC_To_X_L@Internal@Core@Math@Palmtree@@YA_KPEAU__tag_PMC_HANDLE_UINT@1234@@Z
pdata	ENDS
;	COMDAT ??_R1A@?0A@EA@InternalErrorException@Internal@Core@Math@Palmtree@@8
rdata$r	SEGMENT
??_R1A@?0A@EA@InternalErrorException@Internal@Core@Math@Palmtree@@8 DD imagerel ??_R0?AVInternalErrorException@Internal@Core@Math@Palmtree@@@8 ; Palmtree::Math::Core::Internal::InternalErrorException::`RTTI Base Class Descriptor at (0,-1,0,64)'
	DD	02H
	DD	00H
	DD	0ffffffffH
	DD	00H
	DD	040H
	DD	imagerel ??_R3InternalErrorException@Internal@Core@Math@Palmtree@@8
rdata$r	ENDS
;	COMDAT ??_R2InternalErrorException@Internal@Core@Math@Palmtree@@8
rdata$r	SEGMENT
??_R2InternalErrorException@Internal@Core@Math@Palmtree@@8 DD imagerel ??_R1A@?0A@EA@InternalErrorException@Internal@Core@Math@Palmtree@@8 ; Palmtree::Math::Core::Internal::InternalErrorException::`RTTI Base Class Array'
	DD	imagerel ??_R1A@?0A@EA@Exception@Internal@Core@Math@Palmtree@@8
	DD	imagerel ??_R1A@?0A@EN@exception@std@@8
	ORG $+3
rdata$r	ENDS
;	COMDAT ??_R3InternalErrorException@Internal@Core@Math@Palmtree@@8
rdata$r	SEGMENT
??_R3InternalErrorException@Internal@Core@Math@Palmtree@@8 DD 00H ; Palmtree::Math::Core::Internal::InternalErrorException::`RTTI Class Hierarchy Descriptor'
	DD	00H
	DD	03H
	DD	imagerel ??_R2InternalErrorException@Internal@Core@Math@Palmtree@@8
rdata$r	ENDS
;	COMDAT ??_R4InternalErrorException@Internal@Core@Math@Palmtree@@6B@
rdata$r	SEGMENT
??_R4InternalErrorException@Internal@Core@Math@Palmtree@@6B@ DD 01H ; Palmtree::Math::Core::Internal::InternalErrorException::`RTTI Complete Object Locator'
	DD	00H
	DD	00H
	DD	imagerel ??_R0?AVInternalErrorException@Internal@Core@Math@Palmtree@@@8
	DD	imagerel ??_R3InternalErrorException@Internal@Core@Math@Palmtree@@8
	DD	imagerel ??_R4InternalErrorException@Internal@Core@Math@Palmtree@@6B@
rdata$r	ENDS
;	COMDAT ??_R1A@?0A@EA@OverflowException@Internal@Core@Math@Palmtree@@8
rdata$r	SEGMENT
??_R1A@?0A@EA@OverflowException@Internal@Core@Math@Palmtree@@8 DD imagerel ??_R0?AVOverflowException@Internal@Core@Math@Palmtree@@@8 ; Palmtree::Math::Core::Internal::OverflowException::`RTTI Base Class Descriptor at (0,-1,0,64)'
	DD	02H
	DD	00H
	DD	0ffffffffH
	DD	00H
	DD	040H
	DD	imagerel ??_R3OverflowException@Internal@Core@Math@Palmtree@@8
rdata$r	ENDS
;	COMDAT ??_R2OverflowException@Internal@Core@Math@Palmtree@@8
rdata$r	SEGMENT
??_R2OverflowException@Internal@Core@Math@Palmtree@@8 DD imagerel ??_R1A@?0A@EA@OverflowException@Internal@Core@Math@Palmtree@@8 ; Palmtree::Math::Core::Internal::OverflowException::`RTTI Base Class Array'
	DD	imagerel ??_R1A@?0A@EA@Exception@Internal@Core@Math@Palmtree@@8
	DD	imagerel ??_R1A@?0A@EN@exception@std@@8
	ORG $+3
rdata$r	ENDS
;	COMDAT ??_R3OverflowException@Internal@Core@Math@Palmtree@@8
rdata$r	SEGMENT
??_R3OverflowException@Internal@Core@Math@Palmtree@@8 DD 00H ; Palmtree::Math::Core::Internal::OverflowException::`RTTI Class Hierarchy Descriptor'
	DD	00H
	DD	03H
	DD	imagerel ??_R2OverflowException@Internal@Core@Math@Palmtree@@8
rdata$r	ENDS
;	COMDAT ??_R4OverflowException@Internal@Core@Math@Palmtree@@6B@
rdata$r	SEGMENT
??_R4OverflowException@Internal@Core@Math@Palmtree@@6B@ DD 01H ; Palmtree::Math::Core::Internal::OverflowException::`RTTI Complete Object Locator'
	DD	00H
	DD	00H
	DD	imagerel ??_R0?AVOverflowException@Internal@Core@Math@Palmtree@@@8
	DD	imagerel ??_R3OverflowException@Internal@Core@Math@Palmtree@@8
	DD	imagerel ??_R4OverflowException@Internal@Core@Math@Palmtree@@6B@
rdata$r	ENDS
;	COMDAT ??_R1A@?0A@EN@exception@std@@8
rdata$r	SEGMENT
??_R1A@?0A@EN@exception@std@@8 DD imagerel ??_R0?AVexception@std@@@8 ; std::exception::`RTTI Base Class Descriptor at (0,-1,0,77)'
	DD	00H
	DD	00H
	DD	0ffffffffH
	DD	00H
	DD	04dH
	DD	imagerel ??_R3exception@std@@8
rdata$r	ENDS
;	COMDAT ??_R1A@?0A@EA@Exception@Internal@Core@Math@Palmtree@@8
rdata$r	SEGMENT
??_R1A@?0A@EA@Exception@Internal@Core@Math@Palmtree@@8 DD imagerel ??_R0?AVException@Internal@Core@Math@Palmtree@@@8 ; Palmtree::Math::Core::Internal::Exception::`RTTI Base Class Descriptor at (0,-1,0,64)'
	DD	01H
	DD	00H
	DD	0ffffffffH
	DD	00H
	DD	040H
	DD	imagerel ??_R3Exception@Internal@Core@Math@Palmtree@@8
rdata$r	ENDS
;	COMDAT ??_R2Exception@Internal@Core@Math@Palmtree@@8
rdata$r	SEGMENT
??_R2Exception@Internal@Core@Math@Palmtree@@8 DD imagerel ??_R1A@?0A@EA@Exception@Internal@Core@Math@Palmtree@@8 ; Palmtree::Math::Core::Internal::Exception::`RTTI Base Class Array'
	DD	imagerel ??_R1A@?0A@EN@exception@std@@8
	ORG $+3
rdata$r	ENDS
;	COMDAT ??_R3Exception@Internal@Core@Math@Palmtree@@8
rdata$r	SEGMENT
??_R3Exception@Internal@Core@Math@Palmtree@@8 DD 00H	; Palmtree::Math::Core::Internal::Exception::`RTTI Class Hierarchy Descriptor'
	DD	00H
	DD	02H
	DD	imagerel ??_R2Exception@Internal@Core@Math@Palmtree@@8
rdata$r	ENDS
;	COMDAT ??_R4Exception@Internal@Core@Math@Palmtree@@6B@
rdata$r	SEGMENT
??_R4Exception@Internal@Core@Math@Palmtree@@6B@ DD 01H	; Palmtree::Math::Core::Internal::Exception::`RTTI Complete Object Locator'
	DD	00H
	DD	00H
	DD	imagerel ??_R0?AVException@Internal@Core@Math@Palmtree@@@8
	DD	imagerel ??_R3Exception@Internal@Core@Math@Palmtree@@8
	DD	imagerel ??_R4Exception@Internal@Core@Math@Palmtree@@6B@
rdata$r	ENDS
;	COMDAT ??_R1A@?0A@EA@exception@std@@8
rdata$r	SEGMENT
??_R1A@?0A@EA@exception@std@@8 DD imagerel ??_R0?AVexception@std@@@8 ; std::exception::`RTTI Base Class Descriptor at (0,-1,0,64)'
	DD	00H
	DD	00H
	DD	0ffffffffH
	DD	00H
	DD	040H
	DD	imagerel ??_R3exception@std@@8
rdata$r	ENDS
;	COMDAT ??_R2exception@std@@8
rdata$r	SEGMENT
??_R2exception@std@@8 DD imagerel ??_R1A@?0A@EA@exception@std@@8 ; std::exception::`RTTI Base Class Array'
	ORG $+3
rdata$r	ENDS
;	COMDAT ??_R3exception@std@@8
rdata$r	SEGMENT
??_R3exception@std@@8 DD 00H				; std::exception::`RTTI Class Hierarchy Descriptor'
	DD	00H
	DD	01H
	DD	imagerel ??_R2exception@std@@8
rdata$r	ENDS
;	COMDAT ??_R0?AVexception@std@@@8
data$r	SEGMENT
??_R0?AVexception@std@@@8 DQ FLAT:??_7type_info@@6B@	; std::exception `RTTI Type Descriptor'
	DQ	0000000000000000H
	DB	'.?AVexception@std@@', 00H
data$r	ENDS
;	COMDAT ??_R4exception@std@@6B@
rdata$r	SEGMENT
??_R4exception@std@@6B@ DD 01H				; std::exception::`RTTI Complete Object Locator'
	DD	00H
	DD	00H
	DD	imagerel ??_R0?AVexception@std@@@8
	DD	imagerel ??_R3exception@std@@8
	DD	imagerel ??_R4exception@std@@6B@
rdata$r	ENDS
;	COMDAT ??_C@_1CK@EPAIANDA@?$AA6?$AA4?$AAb?$AAi?$AAt?$AAt?$AAp?$AAx?$AAn?$PP?$IL?$AA?7?$PP?$NL?$AAk?$AA1?$AAW@
CONST	SEGMENT
??_C@_1CK@EPAIANDA@?$AA6?$AA4?$AAb?$AAi?$AAt?$AAt?$AAp?$AAx?$AAn?$PP?$IL?$AA?7?$PP?$NL?$AAk?$AA1?$AAW@ DB '6'
	DB	00H, '4', 00H, 'b', 00H, 'i', 00H, 't', 00H, 'tepex0n0', 08bH, 'W'
	DB	09H, 'Y', 0dbH, 'ck01YWeW0~0W0_0', 02H, '0', 00H, 00H ; `string'
CONST	ENDS
;	COMDAT ??_C@_1CK@FCDNPBLF@?$AA3?$AA2?$AAb?$AAi?$AAt?$AAt?$AAp?$AAx?$AAn?$PP?$IL?$AA?7?$PP?$NL?$AAk?$AA1?$AAW@
CONST	SEGMENT
??_C@_1CK@FCDNPBLF@?$AA3?$AA2?$AAb?$AAi?$AAt?$AAt?$AAp?$AAx?$AAn?$PP?$IL?$AA?7?$PP?$NL?$AAk?$AA1?$AAW@ DB '3'
	DB	00H, '2', 00H, 'b', 00H, 'i', 00H, 't', 00H, 'tepex0n0', 08bH, 'W'
	DB	09H, 'Y', 0dbH, 'ck01YWeW0~0W0_0', 02H, '0', 00H, 00H ; `string'
CONST	ENDS
;	COMDAT _CT??_R0?AVOverflowException@Internal@Core@Math@Palmtree@@@8??0OverflowException@Internal@Core@Math@Palmtree@@QEAA@AEBV01234@@Z48
xdata$x	SEGMENT
_CT??_R0?AVOverflowException@Internal@Core@Math@Palmtree@@@8??0OverflowException@Internal@Core@Math@Palmtree@@QEAA@AEBV01234@@Z48 DD 00H
	DD	imagerel ??_R0?AVOverflowException@Internal@Core@Math@Palmtree@@@8
	DD	00H
	DD	0ffffffffH
	ORG $+4
	DD	030H
	DD	imagerel ??0OverflowException@Internal@Core@Math@Palmtree@@QEAA@AEBV01234@@Z
xdata$x	ENDS
;	COMDAT ??_R0?AVOverflowException@Internal@Core@Math@Palmtree@@@8
data$r	SEGMENT
??_R0?AVOverflowException@Internal@Core@Math@Palmtree@@@8 DQ FLAT:??_7type_info@@6B@ ; Palmtree::Math::Core::Internal::OverflowException `RTTI Type Descriptor'
	DQ	0000000000000000H
	DB	'.?AVOverflowException@Internal@Core@Math@Palmtree@@', 00H
data$r	ENDS
;	COMDAT _CTA2?AVOverflowException@Internal@Core@Math@Palmtree@@
xdata$x	SEGMENT
_CTA2?AVOverflowException@Internal@Core@Math@Palmtree@@ DD 02H
	DD	imagerel _CT??_R0?AVOverflowException@Internal@Core@Math@Palmtree@@@8??0OverflowException@Internal@Core@Math@Palmtree@@QEAA@AEBV01234@@Z48
	DD	imagerel _CT??_R0?AVException@Internal@Core@Math@Palmtree@@@8??0Exception@Internal@Core@Math@Palmtree@@QEAA@AEBV01234@@Z48
xdata$x	ENDS
;	COMDAT _TI2?AVOverflowException@Internal@Core@Math@Palmtree@@
xdata$x	SEGMENT
_TI2?AVOverflowException@Internal@Core@Math@Palmtree@@ DD 00H
	DD	imagerel ??1OverflowException@Internal@Core@Math@Palmtree@@UEAA@XZ
	DD	00H
	DD	imagerel _CTA2?AVOverflowException@Internal@Core@Math@Palmtree@@
xdata$x	ENDS
;	COMDAT _CT??_R0?AVException@Internal@Core@Math@Palmtree@@@8??0Exception@Internal@Core@Math@Palmtree@@QEAA@AEBV01234@@Z48
xdata$x	SEGMENT
_CT??_R0?AVException@Internal@Core@Math@Palmtree@@@8??0Exception@Internal@Core@Math@Palmtree@@QEAA@AEBV01234@@Z48 DD 00H
	DD	imagerel ??_R0?AVException@Internal@Core@Math@Palmtree@@@8
	DD	00H
	DD	0ffffffffH
	ORG $+4
	DD	030H
	DD	imagerel ??0Exception@Internal@Core@Math@Palmtree@@QEAA@AEBV01234@@Z
xdata$x	ENDS
;	COMDAT ??_R0?AVException@Internal@Core@Math@Palmtree@@@8
data$r	SEGMENT
??_R0?AVException@Internal@Core@Math@Palmtree@@@8 DQ FLAT:??_7type_info@@6B@ ; Palmtree::Math::Core::Internal::Exception `RTTI Type Descriptor'
	DQ	0000000000000000H
	DB	'.?AVException@Internal@Core@Math@Palmtree@@', 00H
data$r	ENDS
;	COMDAT ??_R0?AVInternalErrorException@Internal@Core@Math@Palmtree@@@8
data$r	SEGMENT
??_R0?AVInternalErrorException@Internal@Core@Math@Palmtree@@@8 DQ FLAT:??_7type_info@@6B@ ; Palmtree::Math::Core::Internal::InternalErrorException `RTTI Type Descriptor'
	DQ	0000000000000000H
	DB	'.?AVInternalErrorException@Internal@Core@Math@Palmtree@@'
	DB	00H
data$r	ENDS
;	COMDAT ??_7InternalErrorException@Internal@Core@Math@Palmtree@@6B@
CONST	SEGMENT
??_7InternalErrorException@Internal@Core@Math@Palmtree@@6B@ DQ FLAT:??_R4InternalErrorException@Internal@Core@Math@Palmtree@@6B@ ; Palmtree::Math::Core::Internal::InternalErrorException::`vftable'
	DQ	FLAT:??_EInternalErrorException@Internal@Core@Math@Palmtree@@UEAAPEAXI@Z
	DQ	FLAT:?what@exception@std@@UEBAPEBDXZ
CONST	ENDS
;	COMDAT ??_7OverflowException@Internal@Core@Math@Palmtree@@6B@
CONST	SEGMENT
??_7OverflowException@Internal@Core@Math@Palmtree@@6B@ DQ FLAT:??_R4OverflowException@Internal@Core@Math@Palmtree@@6B@ ; Palmtree::Math::Core::Internal::OverflowException::`vftable'
	DQ	FLAT:??_EOverflowException@Internal@Core@Math@Palmtree@@UEAAPEAXI@Z
	DQ	FLAT:?what@exception@std@@UEBAPEBDXZ
CONST	ENDS
;	COMDAT ??_7Exception@Internal@Core@Math@Palmtree@@6B@
CONST	SEGMENT
??_7Exception@Internal@Core@Math@Palmtree@@6B@ DQ FLAT:??_R4Exception@Internal@Core@Math@Palmtree@@6B@ ; Palmtree::Math::Core::Internal::Exception::`vftable'
	DQ	FLAT:??_EException@Internal@Core@Math@Palmtree@@UEAAPEAXI@Z
	DQ	FLAT:?what@exception@std@@UEBAPEBDXZ
CONST	ENDS
;	COMDAT ??_C@_0BC@EOODALEL@Unknown?5exception@
CONST	SEGMENT
??_C@_0BC@EOODALEL@Unknown?5exception@ DB 'Unknown exception', 00H ; `string'
CONST	ENDS
;	COMDAT ??_7exception@std@@6B@
CONST	SEGMENT
??_7exception@std@@6B@ DQ FLAT:??_R4exception@std@@6B@	; std::exception::`vftable'
	DQ	FLAT:??_Eexception@std@@UEAAPEAXI@Z
	DQ	FLAT:?what@exception@std@@UEBAPEBDXZ
CONST	ENDS
;	COMDAT xdata
xdata	SEGMENT
$unwind$?PMC_To_X_L@Internal@Core@Math@Palmtree@@YA_KPEAU__tag_PMC_HANDLE_UINT@1234@@Z DD 020601H
	DD	030029206H
xdata	ENDS
;	COMDAT xdata
xdata	SEGMENT
$unwind$?PMC_To_X_I@Internal@Core@Math@Palmtree@@YAIPEAU__tag_PMC_HANDLE_UINT@1234@@Z DD 020601H
	DD	030029206H
xdata	ENDS
;	COMDAT xdata
xdata	SEGMENT
$ip2state$??_GInternalErrorException@Internal@Core@Math@Palmtree@@UEAAPEAXI@Z DD imagerel ??_GInternalErrorException@Internal@Core@Math@Palmtree@@UEAAPEAXI@Z
	DD	0ffffffffH
xdata	ENDS
;	COMDAT xdata
xdata	SEGMENT
$stateUnwindMap$??_GInternalErrorException@Internal@Core@Math@Palmtree@@UEAAPEAXI@Z DD 0ffffffffH
	DD	imagerel ?dtor$0@?0???_GInternalErrorException@Internal@Core@Math@Palmtree@@UEAAPEAXI@Z@4HA
	DD	0ffffffffH
	DD	imagerel ?dtor$1@?0???_GInternalErrorException@Internal@Core@Math@Palmtree@@UEAAPEAXI@Z@4HA
xdata	ENDS
;	COMDAT CONST
CONST	SEGMENT
$cppxdata$??_GInternalErrorException@Internal@Core@Math@Palmtree@@UEAAPEAXI@Z DD 019930522H
	DD	02H
	DD	imagerel $stateUnwindMap$??_GInternalErrorException@Internal@Core@Math@Palmtree@@UEAAPEAXI@Z
	DD	00H
	DD	00H
	DD	01H
	DD	imagerel $ip2state$??_GInternalErrorException@Internal@Core@Math@Palmtree@@UEAAPEAXI@Z
	DD	020H
	DD	00H
	DD	04H
CONST	ENDS
;	COMDAT xdata
xdata	SEGMENT
$unwind$??_GInternalErrorException@Internal@Core@Math@Palmtree@@UEAAPEAXI@Z DD 041819H
	DD	093418H
	DD	07006520aH
	DD	imagerel __CxxFrameHandler3
	DD	imagerel $cppxdata$??_GInternalErrorException@Internal@Core@Math@Palmtree@@UEAAPEAXI@Z
xdata	ENDS
;	COMDAT xdata
xdata	SEGMENT
$ip2state$??1InternalErrorException@Internal@Core@Math@Palmtree@@UEAA@XZ DD imagerel ??1InternalErrorException@Internal@Core@Math@Palmtree@@UEAA@XZ
	DD	0ffffffffH
xdata	ENDS
;	COMDAT xdata
xdata	SEGMENT
$stateUnwindMap$??1InternalErrorException@Internal@Core@Math@Palmtree@@UEAA@XZ DD 0ffffffffH
	DD	imagerel ?dtor$0@?0???1InternalErrorException@Internal@Core@Math@Palmtree@@UEAA@XZ@4HA
	DD	0ffffffffH
	DD	imagerel ?dtor$1@?0???1InternalErrorException@Internal@Core@Math@Palmtree@@UEAA@XZ@4HA
xdata	ENDS
;	COMDAT CONST
CONST	SEGMENT
$cppxdata$??1InternalErrorException@Internal@Core@Math@Palmtree@@UEAA@XZ DD 019930522H
	DD	02H
	DD	imagerel $stateUnwindMap$??1InternalErrorException@Internal@Core@Math@Palmtree@@UEAA@XZ
	DD	00H
	DD	00H
	DD	01H
	DD	imagerel $ip2state$??1InternalErrorException@Internal@Core@Math@Palmtree@@UEAA@XZ
	DD	020H
	DD	00H
	DD	04H
CONST	ENDS
;	COMDAT xdata
xdata	SEGMENT
$unwind$??1InternalErrorException@Internal@Core@Math@Palmtree@@UEAA@XZ DD 011219H
	DD	06209H
	DD	imagerel __CxxFrameHandler3
	DD	imagerel $cppxdata$??1InternalErrorException@Internal@Core@Math@Palmtree@@UEAA@XZ
xdata	ENDS
;	COMDAT xdata
xdata	SEGMENT
$ip2state$??0InternalErrorException@Internal@Core@Math@Palmtree@@QEAA@PEB_W0@Z DD imagerel ??0InternalErrorException@Internal@Core@Math@Palmtree@@QEAA@PEB_W0@Z
	DD	0ffffffffH
	DD	imagerel ??0InternalErrorException@Internal@Core@Math@Palmtree@@QEAA@PEB_W0@Z+37
	DD	00H
	DD	imagerel ??0InternalErrorException@Internal@Core@Math@Palmtree@@QEAA@PEB_W0@Z+62
	DD	01H
	DD	imagerel ??0InternalErrorException@Internal@Core@Math@Palmtree@@QEAA@PEB_W0@Z+72
	DD	0ffffffffH
xdata	ENDS
;	COMDAT xdata
xdata	SEGMENT
$stateUnwindMap$??0InternalErrorException@Internal@Core@Math@Palmtree@@QEAA@PEB_W0@Z DD 0ffffffffH
	DD	imagerel ?dtor$1@?0???0InternalErrorException@Internal@Core@Math@Palmtree@@QEAA@PEB_W0@Z@4HA
	DD	0ffffffffH
	DD	imagerel ?dtor$0@?0???0InternalErrorException@Internal@Core@Math@Palmtree@@QEAA@PEB_W0@Z@4HA
xdata	ENDS
;	COMDAT CONST
CONST	SEGMENT
$cppxdata$??0InternalErrorException@Internal@Core@Math@Palmtree@@QEAA@PEB_W0@Z DD 019930522H
	DD	02H
	DD	imagerel $stateUnwindMap$??0InternalErrorException@Internal@Core@Math@Palmtree@@QEAA@PEB_W0@Z
	DD	00H
	DD	00H
	DD	04H
	DD	imagerel $ip2state$??0InternalErrorException@Internal@Core@Math@Palmtree@@QEAA@PEB_W0@Z
	DD	00H
	DD	00H
	DD	04H
CONST	ENDS
;	COMDAT xdata
xdata	SEGMENT
$unwind$??0InternalErrorException@Internal@Core@Math@Palmtree@@QEAA@PEB_W0@Z DD 011111H
	DD	02209H
	DD	imagerel __CxxFrameHandler3
	DD	imagerel $cppxdata$??0InternalErrorException@Internal@Core@Math@Palmtree@@QEAA@PEB_W0@Z
xdata	ENDS
;	COMDAT xdata
xdata	SEGMENT
$ip2state$??_GOverflowException@Internal@Core@Math@Palmtree@@UEAAPEAXI@Z DD imagerel ??_GOverflowException@Internal@Core@Math@Palmtree@@UEAAPEAXI@Z
	DD	0ffffffffH
xdata	ENDS
;	COMDAT xdata
xdata	SEGMENT
$stateUnwindMap$??_GOverflowException@Internal@Core@Math@Palmtree@@UEAAPEAXI@Z DD 0ffffffffH
	DD	imagerel ?dtor$0@?0???_GOverflowException@Internal@Core@Math@Palmtree@@UEAAPEAXI@Z@4HA
	DD	0ffffffffH
	DD	imagerel ?dtor$1@?0???_GOverflowException@Internal@Core@Math@Palmtree@@UEAAPEAXI@Z@4HA
xdata	ENDS
;	COMDAT CONST
CONST	SEGMENT
$cppxdata$??_GOverflowException@Internal@Core@Math@Palmtree@@UEAAPEAXI@Z DD 019930522H
	DD	02H
	DD	imagerel $stateUnwindMap$??_GOverflowException@Internal@Core@Math@Palmtree@@UEAAPEAXI@Z
	DD	00H
	DD	00H
	DD	01H
	DD	imagerel $ip2state$??_GOverflowException@Internal@Core@Math@Palmtree@@UEAAPEAXI@Z
	DD	020H
	DD	00H
	DD	04H
CONST	ENDS
;	COMDAT xdata
xdata	SEGMENT
$unwind$??_GOverflowException@Internal@Core@Math@Palmtree@@UEAAPEAXI@Z DD 041819H
	DD	093418H
	DD	07006520aH
	DD	imagerel __CxxFrameHandler3
	DD	imagerel $cppxdata$??_GOverflowException@Internal@Core@Math@Palmtree@@UEAAPEAXI@Z
xdata	ENDS
;	COMDAT xdata
xdata	SEGMENT
$ip2state$??1OverflowException@Internal@Core@Math@Palmtree@@UEAA@XZ DD imagerel ??1OverflowException@Internal@Core@Math@Palmtree@@UEAA@XZ
	DD	0ffffffffH
xdata	ENDS
;	COMDAT xdata
xdata	SEGMENT
$stateUnwindMap$??1OverflowException@Internal@Core@Math@Palmtree@@UEAA@XZ DD 0ffffffffH
	DD	imagerel ?dtor$0@?0???1OverflowException@Internal@Core@Math@Palmtree@@UEAA@XZ@4HA
	DD	0ffffffffH
	DD	imagerel ?dtor$1@?0???1OverflowException@Internal@Core@Math@Palmtree@@UEAA@XZ@4HA
xdata	ENDS
;	COMDAT CONST
CONST	SEGMENT
$cppxdata$??1OverflowException@Internal@Core@Math@Palmtree@@UEAA@XZ DD 019930522H
	DD	02H
	DD	imagerel $stateUnwindMap$??1OverflowException@Internal@Core@Math@Palmtree@@UEAA@XZ
	DD	00H
	DD	00H
	DD	01H
	DD	imagerel $ip2state$??1OverflowException@Internal@Core@Math@Palmtree@@UEAA@XZ
	DD	020H
	DD	00H
	DD	04H
CONST	ENDS
;	COMDAT xdata
xdata	SEGMENT
$unwind$??1OverflowException@Internal@Core@Math@Palmtree@@UEAA@XZ DD 011219H
	DD	06209H
	DD	imagerel __CxxFrameHandler3
	DD	imagerel $cppxdata$??1OverflowException@Internal@Core@Math@Palmtree@@UEAA@XZ
xdata	ENDS
;	COMDAT xdata
xdata	SEGMENT
$ip2state$??0OverflowException@Internal@Core@Math@Palmtree@@QEAA@AEBV01234@@Z DD imagerel ??0OverflowException@Internal@Core@Math@Palmtree@@QEAA@AEBV01234@@Z
	DD	0ffffffffH
	DD	imagerel ??0OverflowException@Internal@Core@Math@Palmtree@@QEAA@AEBV01234@@Z+37
	DD	00H
	DD	imagerel ??0OverflowException@Internal@Core@Math@Palmtree@@QEAA@AEBV01234@@Z+69
	DD	01H
	DD	imagerel ??0OverflowException@Internal@Core@Math@Palmtree@@QEAA@AEBV01234@@Z+79
	DD	0ffffffffH
xdata	ENDS
;	COMDAT xdata
xdata	SEGMENT
$stateUnwindMap$??0OverflowException@Internal@Core@Math@Palmtree@@QEAA@AEBV01234@@Z DD 0ffffffffH
	DD	imagerel ?dtor$1@?0???0OverflowException@Internal@Core@Math@Palmtree@@QEAA@AEBV01234@@Z@4HA
	DD	0ffffffffH
	DD	imagerel ?dtor$0@?0???0OverflowException@Internal@Core@Math@Palmtree@@QEAA@AEBV01234@@Z@4HA
xdata	ENDS
;	COMDAT CONST
CONST	SEGMENT
$cppxdata$??0OverflowException@Internal@Core@Math@Palmtree@@QEAA@AEBV01234@@Z DD 019930522H
	DD	02H
	DD	imagerel $stateUnwindMap$??0OverflowException@Internal@Core@Math@Palmtree@@QEAA@AEBV01234@@Z
	DD	00H
	DD	00H
	DD	04H
	DD	imagerel $ip2state$??0OverflowException@Internal@Core@Math@Palmtree@@QEAA@AEBV01234@@Z
	DD	00H
	DD	00H
	DD	04H
CONST	ENDS
;	COMDAT xdata
xdata	SEGMENT
$unwind$??0OverflowException@Internal@Core@Math@Palmtree@@QEAA@AEBV01234@@Z DD 011111H
	DD	02209H
	DD	imagerel __CxxFrameHandler3
	DD	imagerel $cppxdata$??0OverflowException@Internal@Core@Math@Palmtree@@QEAA@AEBV01234@@Z
xdata	ENDS
;	COMDAT xdata
xdata	SEGMENT
$ip2state$??0OverflowException@Internal@Core@Math@Palmtree@@QEAA@PEB_W@Z DD imagerel ??0OverflowException@Internal@Core@Math@Palmtree@@QEAA@PEB_W@Z
	DD	0ffffffffH
	DD	imagerel ??0OverflowException@Internal@Core@Math@Palmtree@@QEAA@PEB_W@Z+37
	DD	00H
	DD	imagerel ??0OverflowException@Internal@Core@Math@Palmtree@@QEAA@PEB_W@Z+66
	DD	01H
	DD	imagerel ??0OverflowException@Internal@Core@Math@Palmtree@@QEAA@PEB_W@Z+76
	DD	0ffffffffH
xdata	ENDS
;	COMDAT xdata
xdata	SEGMENT
$stateUnwindMap$??0OverflowException@Internal@Core@Math@Palmtree@@QEAA@PEB_W@Z DD 0ffffffffH
	DD	imagerel ?dtor$1@?0???0OverflowException@Internal@Core@Math@Palmtree@@QEAA@PEB_W@Z@4HA
	DD	0ffffffffH
	DD	imagerel ?dtor$0@?0???0OverflowException@Internal@Core@Math@Palmtree@@QEAA@PEB_W@Z@4HA
xdata	ENDS
;	COMDAT CONST
CONST	SEGMENT
$cppxdata$??0OverflowException@Internal@Core@Math@Palmtree@@QEAA@PEB_W@Z DD 019930522H
	DD	02H
	DD	imagerel $stateUnwindMap$??0OverflowException@Internal@Core@Math@Palmtree@@QEAA@PEB_W@Z
	DD	00H
	DD	00H
	DD	04H
	DD	imagerel $ip2state$??0OverflowException@Internal@Core@Math@Palmtree@@QEAA@PEB_W@Z
	DD	00H
	DD	00H
	DD	04H
CONST	ENDS
;	COMDAT xdata
xdata	SEGMENT
$unwind$??0OverflowException@Internal@Core@Math@Palmtree@@QEAA@PEB_W@Z DD 011111H
	DD	02209H
	DD	imagerel __CxxFrameHandler3
	DD	imagerel $cppxdata$??0OverflowException@Internal@Core@Math@Palmtree@@QEAA@PEB_W@Z
xdata	ENDS
;	COMDAT xdata
xdata	SEGMENT
$ip2state$??_GException@Internal@Core@Math@Palmtree@@UEAAPEAXI@Z DD imagerel ??_GException@Internal@Core@Math@Palmtree@@UEAAPEAXI@Z
	DD	0ffffffffH
xdata	ENDS
;	COMDAT xdata
xdata	SEGMENT
$stateUnwindMap$??_GException@Internal@Core@Math@Palmtree@@UEAAPEAXI@Z DD 0ffffffffH
	DD	imagerel ?dtor$0@?0???_GException@Internal@Core@Math@Palmtree@@UEAAPEAXI@Z@4HA
xdata	ENDS
;	COMDAT CONST
CONST	SEGMENT
$cppxdata$??_GException@Internal@Core@Math@Palmtree@@UEAAPEAXI@Z DD 019930522H
	DD	01H
	DD	imagerel $stateUnwindMap$??_GException@Internal@Core@Math@Palmtree@@UEAAPEAXI@Z
	DD	00H
	DD	00H
	DD	01H
	DD	imagerel $ip2state$??_GException@Internal@Core@Math@Palmtree@@UEAAPEAXI@Z
	DD	020H
	DD	00H
	DD	04H
CONST	ENDS
;	COMDAT xdata
xdata	SEGMENT
$unwind$??_GException@Internal@Core@Math@Palmtree@@UEAAPEAXI@Z DD 041819H
	DD	093418H
	DD	07006520aH
	DD	imagerel __CxxFrameHandler3
	DD	imagerel $cppxdata$??_GException@Internal@Core@Math@Palmtree@@UEAAPEAXI@Z
xdata	ENDS
;	COMDAT xdata
xdata	SEGMENT
$ip2state$??1Exception@Internal@Core@Math@Palmtree@@UEAA@XZ DD imagerel ??1Exception@Internal@Core@Math@Palmtree@@UEAA@XZ
	DD	0ffffffffH
xdata	ENDS
;	COMDAT xdata
xdata	SEGMENT
$stateUnwindMap$??1Exception@Internal@Core@Math@Palmtree@@UEAA@XZ DD 0ffffffffH
	DD	imagerel ?dtor$0@?0???1Exception@Internal@Core@Math@Palmtree@@UEAA@XZ@4HA
xdata	ENDS
;	COMDAT CONST
CONST	SEGMENT
$cppxdata$??1Exception@Internal@Core@Math@Palmtree@@UEAA@XZ DD 019930522H
	DD	01H
	DD	imagerel $stateUnwindMap$??1Exception@Internal@Core@Math@Palmtree@@UEAA@XZ
	DD	00H
	DD	00H
	DD	01H
	DD	imagerel $ip2state$??1Exception@Internal@Core@Math@Palmtree@@UEAA@XZ
	DD	020H
	DD	00H
	DD	04H
CONST	ENDS
;	COMDAT xdata
xdata	SEGMENT
$unwind$??1Exception@Internal@Core@Math@Palmtree@@UEAA@XZ DD 011219H
	DD	06209H
	DD	imagerel __CxxFrameHandler3
	DD	imagerel $cppxdata$??1Exception@Internal@Core@Math@Palmtree@@UEAA@XZ
xdata	ENDS
;	COMDAT xdata
xdata	SEGMENT
$ip2state$??0Exception@Internal@Core@Math@Palmtree@@QEAA@AEBV01234@@Z DD imagerel ??0Exception@Internal@Core@Math@Palmtree@@QEAA@AEBV01234@@Z
	DD	0ffffffffH
	DD	imagerel ??0Exception@Internal@Core@Math@Palmtree@@QEAA@AEBV01234@@Z+37
	DD	00H
	DD	imagerel ??0Exception@Internal@Core@Math@Palmtree@@QEAA@AEBV01234@@Z+69
	DD	0ffffffffH
xdata	ENDS
;	COMDAT xdata
xdata	SEGMENT
$stateUnwindMap$??0Exception@Internal@Core@Math@Palmtree@@QEAA@AEBV01234@@Z DD 0ffffffffH
	DD	imagerel ?dtor$0@?0???0Exception@Internal@Core@Math@Palmtree@@QEAA@AEBV01234@@Z@4HA
xdata	ENDS
;	COMDAT CONST
CONST	SEGMENT
$cppxdata$??0Exception@Internal@Core@Math@Palmtree@@QEAA@AEBV01234@@Z DD 019930522H
	DD	01H
	DD	imagerel $stateUnwindMap$??0Exception@Internal@Core@Math@Palmtree@@QEAA@AEBV01234@@Z
	DD	00H
	DD	00H
	DD	03H
	DD	imagerel $ip2state$??0Exception@Internal@Core@Math@Palmtree@@QEAA@AEBV01234@@Z
	DD	00H
	DD	00H
	DD	04H
CONST	ENDS
;	COMDAT xdata
xdata	SEGMENT
$unwind$??0Exception@Internal@Core@Math@Palmtree@@QEAA@AEBV01234@@Z DD 011111H
	DD	02209H
	DD	imagerel __CxxFrameHandler3
	DD	imagerel $cppxdata$??0Exception@Internal@Core@Math@Palmtree@@QEAA@AEBV01234@@Z
xdata	ENDS
;	COMDAT xdata
xdata	SEGMENT
$ip2state$??0Exception@Internal@Core@Math@Palmtree@@IEAA@HPEB_W0@Z DD imagerel ??0Exception@Internal@Core@Math@Palmtree@@IEAA@HPEB_W0@Z
	DD	0ffffffffH
	DD	imagerel ??0Exception@Internal@Core@Math@Palmtree@@IEAA@HPEB_W0@Z+37
	DD	00H
	DD	imagerel ??0Exception@Internal@Core@Math@Palmtree@@IEAA@HPEB_W0@Z+58
	DD	0ffffffffH
xdata	ENDS
;	COMDAT xdata
xdata	SEGMENT
$stateUnwindMap$??0Exception@Internal@Core@Math@Palmtree@@IEAA@HPEB_W0@Z DD 0ffffffffH
	DD	imagerel ?dtor$0@?0???0Exception@Internal@Core@Math@Palmtree@@IEAA@HPEB_W0@Z@4HA
xdata	ENDS
;	COMDAT CONST
CONST	SEGMENT
$cppxdata$??0Exception@Internal@Core@Math@Palmtree@@IEAA@HPEB_W0@Z DD 019930522H
	DD	01H
	DD	imagerel $stateUnwindMap$??0Exception@Internal@Core@Math@Palmtree@@IEAA@HPEB_W0@Z
	DD	00H
	DD	00H
	DD	03H
	DD	imagerel $ip2state$??0Exception@Internal@Core@Math@Palmtree@@IEAA@HPEB_W0@Z
	DD	00H
	DD	00H
	DD	04H
CONST	ENDS
;	COMDAT xdata
xdata	SEGMENT
$unwind$??0Exception@Internal@Core@Math@Palmtree@@IEAA@HPEB_W0@Z DD 011111H
	DD	02209H
	DD	imagerel __CxxFrameHandler3
	DD	imagerel $cppxdata$??0Exception@Internal@Core@Math@Palmtree@@IEAA@HPEB_W0@Z
xdata	ENDS
;	COMDAT xdata
xdata	SEGMENT
$ip2state$??0Exception@Internal@Core@Math@Palmtree@@IEAA@HPEB_W@Z DD imagerel ??0Exception@Internal@Core@Math@Palmtree@@IEAA@HPEB_W@Z
	DD	0ffffffffH
	DD	imagerel ??0Exception@Internal@Core@Math@Palmtree@@IEAA@HPEB_W@Z+37
	DD	00H
	DD	imagerel ??0Exception@Internal@Core@Math@Palmtree@@IEAA@HPEB_W@Z+62
	DD	0ffffffffH
xdata	ENDS
;	COMDAT xdata
xdata	SEGMENT
$stateUnwindMap$??0Exception@Internal@Core@Math@Palmtree@@IEAA@HPEB_W@Z DD 0ffffffffH
	DD	imagerel ?dtor$0@?0???0Exception@Internal@Core@Math@Palmtree@@IEAA@HPEB_W@Z@4HA
xdata	ENDS
;	COMDAT CONST
CONST	SEGMENT
$cppxdata$??0Exception@Internal@Core@Math@Palmtree@@IEAA@HPEB_W@Z DD 019930522H
	DD	01H
	DD	imagerel $stateUnwindMap$??0Exception@Internal@Core@Math@Palmtree@@IEAA@HPEB_W@Z
	DD	00H
	DD	00H
	DD	03H
	DD	imagerel $ip2state$??0Exception@Internal@Core@Math@Palmtree@@IEAA@HPEB_W@Z
	DD	00H
	DD	00H
	DD	04H
CONST	ENDS
;	COMDAT xdata
xdata	SEGMENT
$unwind$??0Exception@Internal@Core@Math@Palmtree@@IEAA@HPEB_W@Z DD 011111H
	DD	02209H
	DD	imagerel __CxxFrameHandler3
	DD	imagerel $cppxdata$??0Exception@Internal@Core@Math@Palmtree@@IEAA@HPEB_W@Z
xdata	ENDS
;	COMDAT xdata
xdata	SEGMENT
$ip2state$??_Gexception@std@@UEAAPEAXI@Z DD imagerel ??_Gexception@std@@UEAAPEAXI@Z
	DD	0ffffffffH
xdata	ENDS
;	COMDAT CONST
CONST	SEGMENT
$cppxdata$??_Gexception@std@@UEAAPEAXI@Z DD 019930522H
	DD	00H
	DD	00H
	DD	00H
	DD	00H
	DD	01H
	DD	imagerel $ip2state$??_Gexception@std@@UEAAPEAXI@Z
	DD	020H
	DD	00H
	DD	04H
CONST	ENDS
;	COMDAT xdata
xdata	SEGMENT
$unwind$??_Gexception@std@@UEAAPEAXI@Z DD 041419H
	DD	083414H
	DD	070025206H
	DD	imagerel __CxxFrameHandler3
	DD	imagerel $cppxdata$??_Gexception@std@@UEAAPEAXI@Z
xdata	ENDS
;	COMDAT xdata
xdata	SEGMENT
$ip2state$??1exception@std@@UEAA@XZ DD imagerel ??1exception@std@@UEAA@XZ
	DD	0ffffffffH
xdata	ENDS
;	COMDAT CONST
CONST	SEGMENT
$cppxdata$??1exception@std@@UEAA@XZ DD 019930522H
	DD	00H
	DD	00H
	DD	00H
	DD	00H
	DD	01H
	DD	imagerel $ip2state$??1exception@std@@UEAA@XZ
	DD	020H
	DD	00H
	DD	04H
CONST	ENDS
;	COMDAT xdata
xdata	SEGMENT
$unwind$??1exception@std@@UEAA@XZ DD 010d19H
	DD	06204H
	DD	imagerel __CxxFrameHandler3
	DD	imagerel $cppxdata$??1exception@std@@UEAA@XZ
xdata	ENDS
; Function compile flags: /Ogtpy
; File z:\sources\lunor\repos\rougemeilland\palmtree.math.core.uint\palmtree.math.core.uint\pmc_inline_func.h
;	COMDAT _FROMWORDTODWORD
_TEXT	SEGMENT
value_high$ = 8
value_low$ = 16
_FROMWORDTODWORD PROC					; COMDAT

; 141  :             return (((_UINT64_T)value_high << 32) | value_low);

  00000	8b c1		 mov	 eax, ecx
  00002	48 c1 e0 20	 shl	 rax, 32			; 00000020H
  00006	8b ca		 mov	 ecx, edx
  00008	48 0b c1	 or	 rax, rcx

; 142  :         }

  0000b	c3		 ret	 0
_FROMWORDTODWORD ENDP
_TEXT	ENDS
; Function compile flags: /Ogtpy
; File z:\sources\lunor\repos\rougemeilland\palmtree.math.core.uint\palmtree.math.core.uint\pmc_to.cpp
;	COMDAT ?PMC_To_X_L@Internal@Core@Math@Palmtree@@YA_KPEAU__tag_PMC_HANDLE_UINT@1234@@Z
_TEXT	SEGMENT
$T1 = 32
p$ = 96
?PMC_To_X_L@Internal@Core@Math@Palmtree@@YA_KPEAU__tag_PMC_HANDLE_UINT@1234@@Z PROC ; Palmtree::Math::Core::Internal::PMC_To_X_L, COMDAT

; 51   :     {

$LN16:
  00000	40 53		 push	 rbx
  00002	48 83 ec 50	 sub	 rsp, 80			; 00000050H
  00006	48 8b d9	 mov	 rbx, rcx

; 52   :         if (sizeof(__UNIT_TYPE) * 2 < sizeof(_UINT64_T))
; 53   :         {
; 54   :             // 32bit未満のCPUは未対応
; 55   :             throw InternalErrorException(L"予期していないコードに到達しました。", L"pmc_to.cpp;PMC_To_X_L;1");
; 56   :         }
; 57   :         NUMBER_HEADER* np = (NUMBER_HEADER*)p;
; 58   :         CheckNumber(np);

  00009	e8 00 00 00 00	 call	 ?CheckNumber@Internal@Core@Math@Palmtree@@YAXPEAU__tag_NUMBER_HEADER@1234@@Z ; Palmtree::Math::Core::Internal::CheckNumber

; 59   :         if (np->UNIT_BIT_COUNT > sizeof(_UINT64_T) * 8)

  0000e	48 83 7b 20 40	 cmp	 QWORD PTR [rbx+32], 64	; 00000040H
  00013	77 1b		 ja	 SHORT $LN15@PMC_To_X_L

; 61   :         if (np->IS_ZERO)

  00015	f6 43 08 01	 test	 BYTE PTR [rbx+8], 1
  00019	74 08		 je	 SHORT $LN4@PMC_To_X_L

; 62   :             return (0);

  0001b	33 c0		 xor	 eax, eax

; 69   :             }
; 70   :             else if (np->UNIT_BIT_COUNT <= __UNIT_TYPE_BIT_COUNT * 2)
; 71   :             {
; 72   :                 // 値が 2 ワードで表現できる場合
; 73   :                 return (_FROMWORDTODWORD((_UINT32_T)np->BLOCK[1], (_UINT32_T)np->BLOCK[0]));
; 74   :             }
; 75   :             else
; 76   :                 throw InternalErrorException(L"予期していないコードに到達しました。", L"pmc_to.cpp;PMC_To_X_L;2");
; 77   :         }
; 78   :     }

  0001d	48 83 c4 50	 add	 rsp, 80			; 00000050H
  00021	5b		 pop	 rbx
  00022	c3		 ret	 0
$LN4@PMC_To_X_L:

; 63   :         else
; 64   :         {
; 65   :             if (np->UNIT_BIT_COUNT <= __UNIT_TYPE_BIT_COUNT)
; 66   :             {
; 67   :                 // 値が 1 ワードで表現できる場合
; 68   :                 return (np->BLOCK[0]);

  00023	48 8b 43 40	 mov	 rax, QWORD PTR [rbx+64]
  00027	48 8b 00	 mov	 rax, QWORD PTR [rax]

; 69   :             }
; 70   :             else if (np->UNIT_BIT_COUNT <= __UNIT_TYPE_BIT_COUNT * 2)
; 71   :             {
; 72   :                 // 値が 2 ワードで表現できる場合
; 73   :                 return (_FROMWORDTODWORD((_UINT32_T)np->BLOCK[1], (_UINT32_T)np->BLOCK[0]));
; 74   :             }
; 75   :             else
; 76   :                 throw InternalErrorException(L"予期していないコードに到達しました。", L"pmc_to.cpp;PMC_To_X_L;2");
; 77   :         }
; 78   :     }

  0002a	48 83 c4 50	 add	 rsp, 80			; 00000050H
  0002e	5b		 pop	 rbx
  0002f	c3		 ret	 0
$LN15@PMC_To_X_L:

; 60   :             throw OverflowException(L"64bit整数への型変換に失敗しました。");

  00030	48 8d 15 00 00
	00 00		 lea	 rdx, OFFSET FLAT:??_C@_1CK@EPAIANDA@?$AA6?$AA4?$AAb?$AAi?$AAt?$AAt?$AAp?$AAx?$AAn?$PP?$IL?$AA?7?$PP?$NL?$AAk?$AA1?$AAW@
  00037	48 8d 4c 24 20	 lea	 rcx, QWORD PTR $T1[rsp]
  0003c	e8 00 00 00 00	 call	 ??0OverflowException@Internal@Core@Math@Palmtree@@QEAA@PEB_W@Z ; Palmtree::Math::Core::Internal::OverflowException::OverflowException
  00041	48 8d 15 00 00
	00 00		 lea	 rdx, OFFSET FLAT:_TI2?AVOverflowException@Internal@Core@Math@Palmtree@@
  00048	48 8d 4c 24 20	 lea	 rcx, QWORD PTR $T1[rsp]
  0004d	e8 00 00 00 00	 call	 _CxxThrowException
  00052	cc		 int	 3
$LN13@PMC_To_X_L:
?PMC_To_X_L@Internal@Core@Math@Palmtree@@YA_KPEAU__tag_PMC_HANDLE_UINT@1234@@Z ENDP ; Palmtree::Math::Core::Internal::PMC_To_X_L
_TEXT	ENDS
; Function compile flags: /Ogtpy
; File z:\sources\lunor\repos\rougemeilland\palmtree.math.core.uint\palmtree.math.core.uint\pmc_to.cpp
;	COMDAT ?PMC_To_X_I@Internal@Core@Math@Palmtree@@YAIPEAU__tag_PMC_HANDLE_UINT@1234@@Z
_TEXT	SEGMENT
$T1 = 32
p$ = 96
?PMC_To_X_I@Internal@Core@Math@Palmtree@@YAIPEAU__tag_PMC_HANDLE_UINT@1234@@Z PROC ; Palmtree::Math::Core::Internal::PMC_To_X_I, COMDAT

; 37   :     {

$LN10:
  00000	40 53		 push	 rbx
  00002	48 83 ec 50	 sub	 rsp, 80			; 00000050H
  00006	48 8b d9	 mov	 rbx, rcx

; 38   :         if (sizeof(__UNIT_TYPE) < sizeof(_UINT32_T))
; 39   :         {
; 40   :             // 32bit未満のCPUは未対応
; 41   :             throw InternalErrorException(L"予期していないコードに到達しました。", L"pmc_to.cpp;PMC_To_X_I;1");
; 42   :         }
; 43   :         NUMBER_HEADER* np = (NUMBER_HEADER*)p;
; 44   :         CheckNumber(np);

  00009	e8 00 00 00 00	 call	 ?CheckNumber@Internal@Core@Math@Palmtree@@YAXPEAU__tag_NUMBER_HEADER@1234@@Z ; Palmtree::Math::Core::Internal::CheckNumber

; 45   :         if (np->UNIT_BIT_COUNT > sizeof(_UINT32_T) * 8)

  0000e	48 83 7b 20 20	 cmp	 QWORD PTR [rbx+32], 32	; 00000020H
  00013	77 1a		 ja	 SHORT $LN9@PMC_To_X_I

; 47   :         return (np->IS_ZERO ? 0 : (_UINT32_T)np->BLOCK[0]);

  00015	f6 43 08 01	 test	 BYTE PTR [rbx+8], 1
  00019	74 08		 je	 SHORT $LN5@PMC_To_X_I
  0001b	33 c0		 xor	 eax, eax

; 48   :     }

  0001d	48 83 c4 50	 add	 rsp, 80			; 00000050H
  00021	5b		 pop	 rbx
  00022	c3		 ret	 0
$LN5@PMC_To_X_I:

; 47   :         return (np->IS_ZERO ? 0 : (_UINT32_T)np->BLOCK[0]);

  00023	48 8b 43 40	 mov	 rax, QWORD PTR [rbx+64]
  00027	8b 00		 mov	 eax, DWORD PTR [rax]

; 48   :     }

  00029	48 83 c4 50	 add	 rsp, 80			; 00000050H
  0002d	5b		 pop	 rbx
  0002e	c3		 ret	 0
$LN9@PMC_To_X_I:

; 46   :             throw OverflowException(L"32bit整数への型変換に失敗しました。");

  0002f	48 8d 15 00 00
	00 00		 lea	 rdx, OFFSET FLAT:??_C@_1CK@FCDNPBLF@?$AA3?$AA2?$AAb?$AAi?$AAt?$AAt?$AAp?$AAx?$AAn?$PP?$IL?$AA?7?$PP?$NL?$AAk?$AA1?$AAW@
  00036	48 8d 4c 24 20	 lea	 rcx, QWORD PTR $T1[rsp]
  0003b	e8 00 00 00 00	 call	 ??0OverflowException@Internal@Core@Math@Palmtree@@QEAA@PEB_W@Z ; Palmtree::Math::Core::Internal::OverflowException::OverflowException
  00040	48 8d 15 00 00
	00 00		 lea	 rdx, OFFSET FLAT:_TI2?AVOverflowException@Internal@Core@Math@Palmtree@@
  00047	48 8d 4c 24 20	 lea	 rcx, QWORD PTR $T1[rsp]
  0004c	e8 00 00 00 00	 call	 _CxxThrowException
  00051	cc		 int	 3
$LN7@PMC_To_X_I:
?PMC_To_X_I@Internal@Core@Math@Palmtree@@YAIPEAU__tag_PMC_HANDLE_UINT@1234@@Z ENDP ; Palmtree::Math::Core::Internal::PMC_To_X_I
_TEXT	ENDS
; Function compile flags: /Ogtpy
; File z:\sources\lunor\repos\rougemeilland\palmtree.math.core.uint\palmtree.math.core.uint\pmc_to.cpp
;	COMDAT ?Initialize_To@Internal@Core@Math@Palmtree@@YAHPEAU_tag_PROCESSOR_FEATURES@1234@@Z
_TEXT	SEGMENT
feature$ = 8
?Initialize_To@Internal@Core@Math@Palmtree@@YAHPEAU_tag_PROCESSOR_FEATURES@1234@@Z PROC ; Palmtree::Math::Core::Internal::Initialize_To, COMDAT

; 82   :         return (PMC_STATUS_OK);

  00000	33 c0		 xor	 eax, eax

; 83   :     }

  00002	c3		 ret	 0
?Initialize_To@Internal@Core@Math@Palmtree@@YAHPEAU_tag_PROCESSOR_FEATURES@1234@@Z ENDP ; Palmtree::Math::Core::Internal::Initialize_To
_TEXT	ENDS
; Function compile flags: /Ogtpy
; File z:\sources\lunor\repos\rougemeilland\palmtree.math.core.uint\palmtree.math.core.uint\pmc_exception.h
; File c:\program files (x86)\microsoft visual studio\2017\community\vc\tools\msvc\14.16.27023\include\vcruntime_exception.h
;	COMDAT ??_GInternalErrorException@Internal@Core@Math@Palmtree@@UEAAPEAXI@Z
_TEXT	SEGMENT
$T1 = 32
this$ = 64
__flags$ = 72
??_GInternalErrorException@Internal@Core@Math@Palmtree@@UEAAPEAXI@Z PROC ; Palmtree::Math::Core::Internal::InternalErrorException::`scalar deleting destructor', COMDAT
$LN15:
  00000	48 89 4c 24 08	 mov	 QWORD PTR [rsp+8], rcx
  00005	57		 push	 rdi
  00006	48 83 ec 30	 sub	 rsp, 48			; 00000030H
  0000a	48 c7 44 24 20
	fe ff ff ff	 mov	 QWORD PTR $T1[rsp], -2
  00013	48 89 5c 24 48	 mov	 QWORD PTR [rsp+72], rbx
  00018	8b da		 mov	 ebx, edx
  0001a	48 8b f9	 mov	 rdi, rcx
; File z:\sources\lunor\repos\rougemeilland\palmtree.math.core.uint\palmtree.math.core.uint\pmc_exception.h

; 295  :         {

  0001d	48 8d 05 00 00
	00 00		 lea	 rax, OFFSET FLAT:??_7InternalErrorException@Internal@Core@Math@Palmtree@@6B@
  00024	48 89 01	 mov	 QWORD PTR [rcx], rax

; 70   :         {

  00027	48 8d 05 00 00
	00 00		 lea	 rax, OFFSET FLAT:??_7Exception@Internal@Core@Math@Palmtree@@6B@
  0002e	48 89 01	 mov	 QWORD PTR [rcx], rax
; File c:\program files (x86)\microsoft visual studio\2017\community\vc\tools\msvc\14.16.27023\include\vcruntime_exception.h

; 85   :     {

  00031	48 8d 05 00 00
	00 00		 lea	 rax, OFFSET FLAT:??_7exception@std@@6B@
  00038	48 89 01	 mov	 QWORD PTR [rcx], rax

; 86   :         __std_exception_destroy(&_Data);

  0003b	48 83 c1 08	 add	 rcx, 8
  0003f	e8 00 00 00 00	 call	 __std_exception_destroy
  00044	90		 npad	 1
  00045	f6 c3 01	 test	 bl, 1
  00048	74 0e		 je	 SHORT $LN12@scalar
  0004a	ba 30 00 00 00	 mov	 edx, 48			; 00000030H
  0004f	48 8b cf	 mov	 rcx, rdi
  00052	e8 00 00 00 00	 call	 ??3@YAXPEAX_K@Z		; operator delete
  00057	90		 npad	 1
$LN12@scalar:
  00058	48 8b c7	 mov	 rax, rdi
  0005b	48 8b 5c 24 48	 mov	 rbx, QWORD PTR [rsp+72]
  00060	48 83 c4 30	 add	 rsp, 48			; 00000030H
  00064	5f		 pop	 rdi
  00065	c3		 ret	 0
??_GInternalErrorException@Internal@Core@Math@Palmtree@@UEAAPEAXI@Z ENDP ; Palmtree::Math::Core::Internal::InternalErrorException::`scalar deleting destructor'
_TEXT	ENDS
;	COMDAT text$x
text$x	SEGMENT
$T1 = 32
this$ = 64
__flags$ = 72
?dtor$0@?0???_GInternalErrorException@Internal@Core@Math@Palmtree@@UEAAPEAXI@Z@4HA PROC ; `Palmtree::Math::Core::Internal::InternalErrorException::`scalar deleting destructor''::`1'::dtor$0
  00000	48 8b 8a 40 00
	00 00		 mov	 rcx, QWORD PTR this$[rdx]
  00007	e9 00 00 00 00	 jmp	 ??1Exception@Internal@Core@Math@Palmtree@@UEAA@XZ ; Palmtree::Math::Core::Internal::Exception::~Exception
?dtor$0@?0???_GInternalErrorException@Internal@Core@Math@Palmtree@@UEAAPEAXI@Z@4HA ENDP ; `Palmtree::Math::Core::Internal::InternalErrorException::`scalar deleting destructor''::`1'::dtor$0
text$x	ENDS
;	COMDAT text$x
text$x	SEGMENT
$T1 = 32
this$ = 64
__flags$ = 72
?dtor$1@?0???_GInternalErrorException@Internal@Core@Math@Palmtree@@UEAAPEAXI@Z@4HA PROC ; `Palmtree::Math::Core::Internal::InternalErrorException::`scalar deleting destructor''::`1'::dtor$1
  00000	48 8b 8a 40 00
	00 00		 mov	 rcx, QWORD PTR this$[rdx]
  00007	e9 00 00 00 00	 jmp	 ??1exception@std@@UEAA@XZ ; std::exception::~exception
?dtor$1@?0???_GInternalErrorException@Internal@Core@Math@Palmtree@@UEAAPEAXI@Z@4HA ENDP ; `Palmtree::Math::Core::Internal::InternalErrorException::`scalar deleting destructor''::`1'::dtor$1
text$x	ENDS
; Function compile flags: /Ogtpy
;	COMDAT text$x
text$x	SEGMENT
$T1 = 32
this$ = 64
__flags$ = 72
?dtor$0@?0???_GInternalErrorException@Internal@Core@Math@Palmtree@@UEAAPEAXI@Z@4HA PROC ; `Palmtree::Math::Core::Internal::InternalErrorException::`scalar deleting destructor''::`1'::dtor$0
  00000	48 8b 8a 40 00
	00 00		 mov	 rcx, QWORD PTR this$[rdx]
  00007	e9 00 00 00 00	 jmp	 ??1Exception@Internal@Core@Math@Palmtree@@UEAA@XZ ; Palmtree::Math::Core::Internal::Exception::~Exception
?dtor$0@?0???_GInternalErrorException@Internal@Core@Math@Palmtree@@UEAAPEAXI@Z@4HA ENDP ; `Palmtree::Math::Core::Internal::InternalErrorException::`scalar deleting destructor''::`1'::dtor$0
text$x	ENDS
; Function compile flags: /Ogtpy
;	COMDAT text$x
text$x	SEGMENT
$T1 = 32
this$ = 64
__flags$ = 72
?dtor$1@?0???_GInternalErrorException@Internal@Core@Math@Palmtree@@UEAAPEAXI@Z@4HA PROC ; `Palmtree::Math::Core::Internal::InternalErrorException::`scalar deleting destructor''::`1'::dtor$1
  00000	48 8b 8a 40 00
	00 00		 mov	 rcx, QWORD PTR this$[rdx]
  00007	e9 00 00 00 00	 jmp	 ??1exception@std@@UEAA@XZ ; std::exception::~exception
?dtor$1@?0???_GInternalErrorException@Internal@Core@Math@Palmtree@@UEAAPEAXI@Z@4HA ENDP ; `Palmtree::Math::Core::Internal::InternalErrorException::`scalar deleting destructor''::`1'::dtor$1
text$x	ENDS
; Function compile flags: /Ogtpy
; File z:\sources\lunor\repos\rougemeilland\palmtree.math.core.uint\palmtree.math.core.uint\pmc_exception.h
; File c:\program files (x86)\microsoft visual studio\2017\community\vc\tools\msvc\14.16.27023\include\vcruntime_exception.h
; File z:\sources\lunor\repos\rougemeilland\palmtree.math.core.uint\palmtree.math.core.uint\pmc_exception.h
;	COMDAT ??1InternalErrorException@Internal@Core@Math@Palmtree@@UEAA@XZ
_TEXT	SEGMENT
$T1 = 32
this$ = 64
??1InternalErrorException@Internal@Core@Math@Palmtree@@UEAA@XZ PROC ; Palmtree::Math::Core::Internal::InternalErrorException::~InternalErrorException, COMDAT

; 295  :         {

$LN11:
  00000	48 89 4c 24 08	 mov	 QWORD PTR [rsp+8], rcx
  00005	48 83 ec 38	 sub	 rsp, 56			; 00000038H
  00009	48 c7 44 24 20
	fe ff ff ff	 mov	 QWORD PTR $T1[rsp], -2
  00012	48 8d 05 00 00
	00 00		 lea	 rax, OFFSET FLAT:??_7InternalErrorException@Internal@Core@Math@Palmtree@@6B@
  00019	48 89 01	 mov	 QWORD PTR [rcx], rax

; 70   :         {

  0001c	48 8d 05 00 00
	00 00		 lea	 rax, OFFSET FLAT:??_7Exception@Internal@Core@Math@Palmtree@@6B@
  00023	48 89 01	 mov	 QWORD PTR [rcx], rax
; File c:\program files (x86)\microsoft visual studio\2017\community\vc\tools\msvc\14.16.27023\include\vcruntime_exception.h

; 85   :     {

  00026	48 8d 05 00 00
	00 00		 lea	 rax, OFFSET FLAT:??_7exception@std@@6B@
  0002d	48 89 01	 mov	 QWORD PTR [rcx], rax

; 86   :         __std_exception_destroy(&_Data);

  00030	48 83 c1 08	 add	 rcx, 8
  00034	e8 00 00 00 00	 call	 __std_exception_destroy
  00039	90		 npad	 1
; File z:\sources\lunor\repos\rougemeilland\palmtree.math.core.uint\palmtree.math.core.uint\pmc_exception.h

; 296  :         }

  0003a	48 83 c4 38	 add	 rsp, 56			; 00000038H
  0003e	c3		 ret	 0
??1InternalErrorException@Internal@Core@Math@Palmtree@@UEAA@XZ ENDP ; Palmtree::Math::Core::Internal::InternalErrorException::~InternalErrorException
_TEXT	ENDS
;	COMDAT text$x
text$x	SEGMENT
$T1 = 32
this$ = 64
?dtor$0@?0???1InternalErrorException@Internal@Core@Math@Palmtree@@UEAA@XZ@4HA PROC ; `Palmtree::Math::Core::Internal::InternalErrorException::~InternalErrorException'::`1'::dtor$0
  00000	48 8b 8a 40 00
	00 00		 mov	 rcx, QWORD PTR this$[rdx]
  00007	e9 00 00 00 00	 jmp	 ??1Exception@Internal@Core@Math@Palmtree@@UEAA@XZ ; Palmtree::Math::Core::Internal::Exception::~Exception
?dtor$0@?0???1InternalErrorException@Internal@Core@Math@Palmtree@@UEAA@XZ@4HA ENDP ; `Palmtree::Math::Core::Internal::InternalErrorException::~InternalErrorException'::`1'::dtor$0
text$x	ENDS
;	COMDAT text$x
text$x	SEGMENT
$T1 = 32
this$ = 64
?dtor$1@?0???1InternalErrorException@Internal@Core@Math@Palmtree@@UEAA@XZ@4HA PROC ; `Palmtree::Math::Core::Internal::InternalErrorException::~InternalErrorException'::`1'::dtor$1
  00000	48 8b 8a 40 00
	00 00		 mov	 rcx, QWORD PTR this$[rdx]
  00007	e9 00 00 00 00	 jmp	 ??1exception@std@@UEAA@XZ ; std::exception::~exception
?dtor$1@?0???1InternalErrorException@Internal@Core@Math@Palmtree@@UEAA@XZ@4HA ENDP ; `Palmtree::Math::Core::Internal::InternalErrorException::~InternalErrorException'::`1'::dtor$1
text$x	ENDS
; Function compile flags: /Ogtpy
;	COMDAT text$x
text$x	SEGMENT
$T1 = 32
this$ = 64
?dtor$0@?0???1InternalErrorException@Internal@Core@Math@Palmtree@@UEAA@XZ@4HA PROC ; `Palmtree::Math::Core::Internal::InternalErrorException::~InternalErrorException'::`1'::dtor$0
  00000	48 8b 8a 40 00
	00 00		 mov	 rcx, QWORD PTR this$[rdx]
  00007	e9 00 00 00 00	 jmp	 ??1Exception@Internal@Core@Math@Palmtree@@UEAA@XZ ; Palmtree::Math::Core::Internal::Exception::~Exception
?dtor$0@?0???1InternalErrorException@Internal@Core@Math@Palmtree@@UEAA@XZ@4HA ENDP ; `Palmtree::Math::Core::Internal::InternalErrorException::~InternalErrorException'::`1'::dtor$0
text$x	ENDS
; Function compile flags: /Ogtpy
;	COMDAT text$x
text$x	SEGMENT
$T1 = 32
this$ = 64
?dtor$1@?0???1InternalErrorException@Internal@Core@Math@Palmtree@@UEAA@XZ@4HA PROC ; `Palmtree::Math::Core::Internal::InternalErrorException::~InternalErrorException'::`1'::dtor$1
  00000	48 8b 8a 40 00
	00 00		 mov	 rcx, QWORD PTR this$[rdx]
  00007	e9 00 00 00 00	 jmp	 ??1exception@std@@UEAA@XZ ; std::exception::~exception
?dtor$1@?0???1InternalErrorException@Internal@Core@Math@Palmtree@@UEAA@XZ@4HA ENDP ; `Palmtree::Math::Core::Internal::InternalErrorException::~InternalErrorException'::`1'::dtor$1
text$x	ENDS
; Function compile flags: /Ogtpy
; File z:\sources\lunor\repos\rougemeilland\palmtree.math.core.uint\palmtree.math.core.uint\pmc_exception.h
; File c:\program files (x86)\microsoft visual studio\2017\community\vc\tools\msvc\14.16.27023\include\vcruntime_exception.h
; File z:\sources\lunor\repos\rougemeilland\palmtree.math.core.uint\palmtree.math.core.uint\pmc_exception.h
;	COMDAT ??0InternalErrorException@Internal@Core@Math@Palmtree@@QEAA@PEB_W0@Z
_TEXT	SEGMENT
$T1 = 0
this$ = 32
message$ = 40
data$ = 48
??0InternalErrorException@Internal@Core@Math@Palmtree@@QEAA@PEB_W0@Z PROC ; Palmtree::Math::Core::Internal::InternalErrorException::InternalErrorException, COMDAT

; 286  :         {

$LN11:
  00000	48 89 4c 24 08	 mov	 QWORD PTR [rsp+8], rcx
  00005	48 83 ec 18	 sub	 rsp, 24
  00009	48 c7 04 24 fe
	ff ff ff	 mov	 QWORD PTR $T1[rsp], -2
; File c:\program files (x86)\microsoft visual studio\2017\community\vc\tools\msvc\14.16.27023\include\vcruntime_exception.h

; 50   :     {

  00011	48 8d 05 00 00
	00 00		 lea	 rax, OFFSET FLAT:??_7exception@std@@6B@
  00018	48 89 01	 mov	 QWORD PTR [rcx], rax

; 49   :         : _Data()

  0001b	33 c0		 xor	 eax, eax
  0001d	48 89 41 08	 mov	 QWORD PTR [rcx+8], rax
  00021	48 89 41 10	 mov	 QWORD PTR [rcx+16], rax
; File z:\sources\lunor\repos\rougemeilland\palmtree.math.core.uint\palmtree.math.core.uint\pmc_exception.h

; 54   :         Exception(PMC_STATUS_CODE code, const wchar_t* message, const wchar_t* data) noexcept(true)

  00025	48 8d 05 00 00
	00 00		 lea	 rax, OFFSET FLAT:??_7Exception@Internal@Core@Math@Palmtree@@6B@
  0002c	48 89 01	 mov	 QWORD PTR [rcx], rax

; 55   :         {
; 56   :             _code = code;

  0002f	c7 41 18 00 ff
	ff ff		 mov	 DWORD PTR [rcx+24], -256 ; ffffffffffffff00H

; 57   :             _message = message;

  00036	48 89 51 20	 mov	 QWORD PTR [rcx+32], rdx

; 58   :             _data = data;

  0003a	4c 89 41 28	 mov	 QWORD PTR [rcx+40], r8

; 286  :         {

  0003e	48 8d 05 00 00
	00 00		 lea	 rax, OFFSET FLAT:??_7InternalErrorException@Internal@Core@Math@Palmtree@@6B@
  00045	48 89 01	 mov	 QWORD PTR [rcx], rax

; 287  :         }

  00048	48 8b c1	 mov	 rax, rcx
  0004b	48 83 c4 18	 add	 rsp, 24
  0004f	c3		 ret	 0
??0InternalErrorException@Internal@Core@Math@Palmtree@@QEAA@PEB_W0@Z ENDP ; Palmtree::Math::Core::Internal::InternalErrorException::InternalErrorException
_TEXT	ENDS
;	COMDAT text$x
text$x	SEGMENT
$T1 = 0
this$ = 32
message$ = 40
data$ = 48
?dtor$1@?0???0InternalErrorException@Internal@Core@Math@Palmtree@@QEAA@PEB_W0@Z@4HA PROC ; `Palmtree::Math::Core::Internal::InternalErrorException::InternalErrorException'::`1'::dtor$1
  00000	48 8b 8a 20 00
	00 00		 mov	 rcx, QWORD PTR this$[rdx]
  00007	e9 00 00 00 00	 jmp	 ??1exception@std@@UEAA@XZ ; std::exception::~exception
?dtor$1@?0???0InternalErrorException@Internal@Core@Math@Palmtree@@QEAA@PEB_W0@Z@4HA ENDP ; `Palmtree::Math::Core::Internal::InternalErrorException::InternalErrorException'::`1'::dtor$1
text$x	ENDS
;	COMDAT text$x
text$x	SEGMENT
$T1 = 0
this$ = 32
message$ = 40
data$ = 48
?dtor$0@?0???0InternalErrorException@Internal@Core@Math@Palmtree@@QEAA@PEB_W0@Z@4HA PROC ; `Palmtree::Math::Core::Internal::InternalErrorException::InternalErrorException'::`1'::dtor$0
  00000	48 8b 8a 20 00
	00 00		 mov	 rcx, QWORD PTR this$[rdx]
  00007	e9 00 00 00 00	 jmp	 ??1Exception@Internal@Core@Math@Palmtree@@UEAA@XZ ; Palmtree::Math::Core::Internal::Exception::~Exception
?dtor$0@?0???0InternalErrorException@Internal@Core@Math@Palmtree@@QEAA@PEB_W0@Z@4HA ENDP ; `Palmtree::Math::Core::Internal::InternalErrorException::InternalErrorException'::`1'::dtor$0
text$x	ENDS
; Function compile flags: /Ogtpy
;	COMDAT text$x
text$x	SEGMENT
$T1 = 0
this$ = 32
message$ = 40
data$ = 48
?dtor$1@?0???0InternalErrorException@Internal@Core@Math@Palmtree@@QEAA@PEB_W0@Z@4HA PROC ; `Palmtree::Math::Core::Internal::InternalErrorException::InternalErrorException'::`1'::dtor$1
  00000	48 8b 8a 20 00
	00 00		 mov	 rcx, QWORD PTR this$[rdx]
  00007	e9 00 00 00 00	 jmp	 ??1exception@std@@UEAA@XZ ; std::exception::~exception
?dtor$1@?0???0InternalErrorException@Internal@Core@Math@Palmtree@@QEAA@PEB_W0@Z@4HA ENDP ; `Palmtree::Math::Core::Internal::InternalErrorException::InternalErrorException'::`1'::dtor$1
text$x	ENDS
; Function compile flags: /Ogtpy
;	COMDAT text$x
text$x	SEGMENT
$T1 = 0
this$ = 32
message$ = 40
data$ = 48
?dtor$0@?0???0InternalErrorException@Internal@Core@Math@Palmtree@@QEAA@PEB_W0@Z@4HA PROC ; `Palmtree::Math::Core::Internal::InternalErrorException::InternalErrorException'::`1'::dtor$0
  00000	48 8b 8a 20 00
	00 00		 mov	 rcx, QWORD PTR this$[rdx]
  00007	e9 00 00 00 00	 jmp	 ??1Exception@Internal@Core@Math@Palmtree@@UEAA@XZ ; Palmtree::Math::Core::Internal::Exception::~Exception
?dtor$0@?0???0InternalErrorException@Internal@Core@Math@Palmtree@@QEAA@PEB_W0@Z@4HA ENDP ; `Palmtree::Math::Core::Internal::InternalErrorException::InternalErrorException'::`1'::dtor$0
text$x	ENDS
; Function compile flags: /Ogtpy
; File z:\sources\lunor\repos\rougemeilland\palmtree.math.core.uint\palmtree.math.core.uint\pmc_exception.h
; File c:\program files (x86)\microsoft visual studio\2017\community\vc\tools\msvc\14.16.27023\include\vcruntime_exception.h
;	COMDAT ??_GOverflowException@Internal@Core@Math@Palmtree@@UEAAPEAXI@Z
_TEXT	SEGMENT
$T1 = 32
this$ = 64
__flags$ = 72
??_GOverflowException@Internal@Core@Math@Palmtree@@UEAAPEAXI@Z PROC ; Palmtree::Math::Core::Internal::OverflowException::`scalar deleting destructor', COMDAT
$LN15:
  00000	48 89 4c 24 08	 mov	 QWORD PTR [rsp+8], rcx
  00005	57		 push	 rdi
  00006	48 83 ec 30	 sub	 rsp, 48			; 00000030H
  0000a	48 c7 44 24 20
	fe ff ff ff	 mov	 QWORD PTR $T1[rsp], -2
  00013	48 89 5c 24 48	 mov	 QWORD PTR [rsp+72], rbx
  00018	8b da		 mov	 ebx, edx
  0001a	48 8b f9	 mov	 rdi, rcx
; File z:\sources\lunor\repos\rougemeilland\palmtree.math.core.uint\palmtree.math.core.uint\pmc_exception.h

; 162  :         {

  0001d	48 8d 05 00 00
	00 00		 lea	 rax, OFFSET FLAT:??_7OverflowException@Internal@Core@Math@Palmtree@@6B@
  00024	48 89 01	 mov	 QWORD PTR [rcx], rax

; 70   :         {

  00027	48 8d 05 00 00
	00 00		 lea	 rax, OFFSET FLAT:??_7Exception@Internal@Core@Math@Palmtree@@6B@
  0002e	48 89 01	 mov	 QWORD PTR [rcx], rax
; File c:\program files (x86)\microsoft visual studio\2017\community\vc\tools\msvc\14.16.27023\include\vcruntime_exception.h

; 85   :     {

  00031	48 8d 05 00 00
	00 00		 lea	 rax, OFFSET FLAT:??_7exception@std@@6B@
  00038	48 89 01	 mov	 QWORD PTR [rcx], rax

; 86   :         __std_exception_destroy(&_Data);

  0003b	48 83 c1 08	 add	 rcx, 8
  0003f	e8 00 00 00 00	 call	 __std_exception_destroy
  00044	90		 npad	 1
  00045	f6 c3 01	 test	 bl, 1
  00048	74 0e		 je	 SHORT $LN12@scalar
  0004a	ba 30 00 00 00	 mov	 edx, 48			; 00000030H
  0004f	48 8b cf	 mov	 rcx, rdi
  00052	e8 00 00 00 00	 call	 ??3@YAXPEAX_K@Z		; operator delete
  00057	90		 npad	 1
$LN12@scalar:
  00058	48 8b c7	 mov	 rax, rdi
  0005b	48 8b 5c 24 48	 mov	 rbx, QWORD PTR [rsp+72]
  00060	48 83 c4 30	 add	 rsp, 48			; 00000030H
  00064	5f		 pop	 rdi
  00065	c3		 ret	 0
??_GOverflowException@Internal@Core@Math@Palmtree@@UEAAPEAXI@Z ENDP ; Palmtree::Math::Core::Internal::OverflowException::`scalar deleting destructor'
_TEXT	ENDS
;	COMDAT text$x
text$x	SEGMENT
$T1 = 32
this$ = 64
__flags$ = 72
?dtor$0@?0???_GOverflowException@Internal@Core@Math@Palmtree@@UEAAPEAXI@Z@4HA PROC ; `Palmtree::Math::Core::Internal::OverflowException::`scalar deleting destructor''::`1'::dtor$0
  00000	48 8b 8a 40 00
	00 00		 mov	 rcx, QWORD PTR this$[rdx]
  00007	e9 00 00 00 00	 jmp	 ??1Exception@Internal@Core@Math@Palmtree@@UEAA@XZ ; Palmtree::Math::Core::Internal::Exception::~Exception
?dtor$0@?0???_GOverflowException@Internal@Core@Math@Palmtree@@UEAAPEAXI@Z@4HA ENDP ; `Palmtree::Math::Core::Internal::OverflowException::`scalar deleting destructor''::`1'::dtor$0
text$x	ENDS
;	COMDAT text$x
text$x	SEGMENT
$T1 = 32
this$ = 64
__flags$ = 72
?dtor$1@?0???_GOverflowException@Internal@Core@Math@Palmtree@@UEAAPEAXI@Z@4HA PROC ; `Palmtree::Math::Core::Internal::OverflowException::`scalar deleting destructor''::`1'::dtor$1
  00000	48 8b 8a 40 00
	00 00		 mov	 rcx, QWORD PTR this$[rdx]
  00007	e9 00 00 00 00	 jmp	 ??1exception@std@@UEAA@XZ ; std::exception::~exception
?dtor$1@?0???_GOverflowException@Internal@Core@Math@Palmtree@@UEAAPEAXI@Z@4HA ENDP ; `Palmtree::Math::Core::Internal::OverflowException::`scalar deleting destructor''::`1'::dtor$1
text$x	ENDS
; Function compile flags: /Ogtpy
;	COMDAT text$x
text$x	SEGMENT
$T1 = 32
this$ = 64
__flags$ = 72
?dtor$0@?0???_GOverflowException@Internal@Core@Math@Palmtree@@UEAAPEAXI@Z@4HA PROC ; `Palmtree::Math::Core::Internal::OverflowException::`scalar deleting destructor''::`1'::dtor$0
  00000	48 8b 8a 40 00
	00 00		 mov	 rcx, QWORD PTR this$[rdx]
  00007	e9 00 00 00 00	 jmp	 ??1Exception@Internal@Core@Math@Palmtree@@UEAA@XZ ; Palmtree::Math::Core::Internal::Exception::~Exception
?dtor$0@?0???_GOverflowException@Internal@Core@Math@Palmtree@@UEAAPEAXI@Z@4HA ENDP ; `Palmtree::Math::Core::Internal::OverflowException::`scalar deleting destructor''::`1'::dtor$0
text$x	ENDS
; Function compile flags: /Ogtpy
;	COMDAT text$x
text$x	SEGMENT
$T1 = 32
this$ = 64
__flags$ = 72
?dtor$1@?0???_GOverflowException@Internal@Core@Math@Palmtree@@UEAAPEAXI@Z@4HA PROC ; `Palmtree::Math::Core::Internal::OverflowException::`scalar deleting destructor''::`1'::dtor$1
  00000	48 8b 8a 40 00
	00 00		 mov	 rcx, QWORD PTR this$[rdx]
  00007	e9 00 00 00 00	 jmp	 ??1exception@std@@UEAA@XZ ; std::exception::~exception
?dtor$1@?0???_GOverflowException@Internal@Core@Math@Palmtree@@UEAAPEAXI@Z@4HA ENDP ; `Palmtree::Math::Core::Internal::OverflowException::`scalar deleting destructor''::`1'::dtor$1
text$x	ENDS
; Function compile flags: /Ogtpy
; File z:\sources\lunor\repos\rougemeilland\palmtree.math.core.uint\palmtree.math.core.uint\pmc_exception.h
; File c:\program files (x86)\microsoft visual studio\2017\community\vc\tools\msvc\14.16.27023\include\vcruntime_exception.h
; File z:\sources\lunor\repos\rougemeilland\palmtree.math.core.uint\palmtree.math.core.uint\pmc_exception.h
;	COMDAT ??1OverflowException@Internal@Core@Math@Palmtree@@UEAA@XZ
_TEXT	SEGMENT
$T1 = 32
this$ = 64
??1OverflowException@Internal@Core@Math@Palmtree@@UEAA@XZ PROC ; Palmtree::Math::Core::Internal::OverflowException::~OverflowException, COMDAT

; 162  :         {

$LN11:
  00000	48 89 4c 24 08	 mov	 QWORD PTR [rsp+8], rcx
  00005	48 83 ec 38	 sub	 rsp, 56			; 00000038H
  00009	48 c7 44 24 20
	fe ff ff ff	 mov	 QWORD PTR $T1[rsp], -2
  00012	48 8d 05 00 00
	00 00		 lea	 rax, OFFSET FLAT:??_7OverflowException@Internal@Core@Math@Palmtree@@6B@
  00019	48 89 01	 mov	 QWORD PTR [rcx], rax

; 70   :         {

  0001c	48 8d 05 00 00
	00 00		 lea	 rax, OFFSET FLAT:??_7Exception@Internal@Core@Math@Palmtree@@6B@
  00023	48 89 01	 mov	 QWORD PTR [rcx], rax
; File c:\program files (x86)\microsoft visual studio\2017\community\vc\tools\msvc\14.16.27023\include\vcruntime_exception.h

; 85   :     {

  00026	48 8d 05 00 00
	00 00		 lea	 rax, OFFSET FLAT:??_7exception@std@@6B@
  0002d	48 89 01	 mov	 QWORD PTR [rcx], rax

; 86   :         __std_exception_destroy(&_Data);

  00030	48 83 c1 08	 add	 rcx, 8
  00034	e8 00 00 00 00	 call	 __std_exception_destroy
  00039	90		 npad	 1
; File z:\sources\lunor\repos\rougemeilland\palmtree.math.core.uint\palmtree.math.core.uint\pmc_exception.h

; 163  :         }

  0003a	48 83 c4 38	 add	 rsp, 56			; 00000038H
  0003e	c3		 ret	 0
??1OverflowException@Internal@Core@Math@Palmtree@@UEAA@XZ ENDP ; Palmtree::Math::Core::Internal::OverflowException::~OverflowException
_TEXT	ENDS
;	COMDAT text$x
text$x	SEGMENT
$T1 = 32
this$ = 64
?dtor$0@?0???1OverflowException@Internal@Core@Math@Palmtree@@UEAA@XZ@4HA PROC ; `Palmtree::Math::Core::Internal::OverflowException::~OverflowException'::`1'::dtor$0
  00000	48 8b 8a 40 00
	00 00		 mov	 rcx, QWORD PTR this$[rdx]
  00007	e9 00 00 00 00	 jmp	 ??1Exception@Internal@Core@Math@Palmtree@@UEAA@XZ ; Palmtree::Math::Core::Internal::Exception::~Exception
?dtor$0@?0???1OverflowException@Internal@Core@Math@Palmtree@@UEAA@XZ@4HA ENDP ; `Palmtree::Math::Core::Internal::OverflowException::~OverflowException'::`1'::dtor$0
text$x	ENDS
;	COMDAT text$x
text$x	SEGMENT
$T1 = 32
this$ = 64
?dtor$1@?0???1OverflowException@Internal@Core@Math@Palmtree@@UEAA@XZ@4HA PROC ; `Palmtree::Math::Core::Internal::OverflowException::~OverflowException'::`1'::dtor$1
  00000	48 8b 8a 40 00
	00 00		 mov	 rcx, QWORD PTR this$[rdx]
  00007	e9 00 00 00 00	 jmp	 ??1exception@std@@UEAA@XZ ; std::exception::~exception
?dtor$1@?0???1OverflowException@Internal@Core@Math@Palmtree@@UEAA@XZ@4HA ENDP ; `Palmtree::Math::Core::Internal::OverflowException::~OverflowException'::`1'::dtor$1
text$x	ENDS
; Function compile flags: /Ogtpy
;	COMDAT text$x
text$x	SEGMENT
$T1 = 32
this$ = 64
?dtor$0@?0???1OverflowException@Internal@Core@Math@Palmtree@@UEAA@XZ@4HA PROC ; `Palmtree::Math::Core::Internal::OverflowException::~OverflowException'::`1'::dtor$0
  00000	48 8b 8a 40 00
	00 00		 mov	 rcx, QWORD PTR this$[rdx]
  00007	e9 00 00 00 00	 jmp	 ??1Exception@Internal@Core@Math@Palmtree@@UEAA@XZ ; Palmtree::Math::Core::Internal::Exception::~Exception
?dtor$0@?0???1OverflowException@Internal@Core@Math@Palmtree@@UEAA@XZ@4HA ENDP ; `Palmtree::Math::Core::Internal::OverflowException::~OverflowException'::`1'::dtor$0
text$x	ENDS
; Function compile flags: /Ogtpy
;	COMDAT text$x
text$x	SEGMENT
$T1 = 32
this$ = 64
?dtor$1@?0???1OverflowException@Internal@Core@Math@Palmtree@@UEAA@XZ@4HA PROC ; `Palmtree::Math::Core::Internal::OverflowException::~OverflowException'::`1'::dtor$1
  00000	48 8b 8a 40 00
	00 00		 mov	 rcx, QWORD PTR this$[rdx]
  00007	e9 00 00 00 00	 jmp	 ??1exception@std@@UEAA@XZ ; std::exception::~exception
?dtor$1@?0???1OverflowException@Internal@Core@Math@Palmtree@@UEAA@XZ@4HA ENDP ; `Palmtree::Math::Core::Internal::OverflowException::~OverflowException'::`1'::dtor$1
text$x	ENDS
; Function compile flags: /Ogtpy
; File z:\sources\lunor\repos\rougemeilland\palmtree.math.core.uint\palmtree.math.core.uint\pmc_exception.h
; File c:\program files (x86)\microsoft visual studio\2017\community\vc\tools\msvc\14.16.27023\include\vcruntime_exception.h
; File z:\sources\lunor\repos\rougemeilland\palmtree.math.core.uint\palmtree.math.core.uint\pmc_exception.h
;	COMDAT ??0OverflowException@Internal@Core@Math@Palmtree@@QEAA@AEBV01234@@Z
_TEXT	SEGMENT
$T1 = 0
this$ = 32
p$ = 40
??0OverflowException@Internal@Core@Math@Palmtree@@QEAA@AEBV01234@@Z PROC ; Palmtree::Math::Core::Internal::OverflowException::OverflowException, COMDAT

; 158  :         {

$LN11:
  00000	48 89 4c 24 08	 mov	 QWORD PTR [rsp+8], rcx
  00005	48 83 ec 18	 sub	 rsp, 24
  00009	48 c7 04 24 fe
	ff ff ff	 mov	 QWORD PTR $T1[rsp], -2
; File c:\program files (x86)\microsoft visual studio\2017\community\vc\tools\msvc\14.16.27023\include\vcruntime_exception.h

; 50   :     {

  00011	48 8d 05 00 00
	00 00		 lea	 rax, OFFSET FLAT:??_7exception@std@@6B@
  00018	48 89 01	 mov	 QWORD PTR [rcx], rax

; 49   :         : _Data()

  0001b	33 c0		 xor	 eax, eax
  0001d	48 89 41 08	 mov	 QWORD PTR [rcx+8], rax
  00021	48 89 41 10	 mov	 QWORD PTR [rcx+16], rax
; File z:\sources\lunor\repos\rougemeilland\palmtree.math.core.uint\palmtree.math.core.uint\pmc_exception.h

; 62   :         Exception(const Exception& p) noexcept(true)

  00025	48 8d 05 00 00
	00 00		 lea	 rax, OFFSET FLAT:??_7Exception@Internal@Core@Math@Palmtree@@6B@
  0002c	48 89 01	 mov	 QWORD PTR [rcx], rax

; 63   :         {
; 64   :             _code = p._code;

  0002f	8b 42 18	 mov	 eax, DWORD PTR [rdx+24]
  00032	89 41 18	 mov	 DWORD PTR [rcx+24], eax

; 65   :             _message = p._message;

  00035	48 8b 42 20	 mov	 rax, QWORD PTR [rdx+32]
  00039	48 89 41 20	 mov	 QWORD PTR [rcx+32], rax

; 66   :             _data = p._data;

  0003d	48 8b 42 28	 mov	 rax, QWORD PTR [rdx+40]
  00041	48 89 41 28	 mov	 QWORD PTR [rcx+40], rax

; 158  :         {

  00045	48 8d 05 00 00
	00 00		 lea	 rax, OFFSET FLAT:??_7OverflowException@Internal@Core@Math@Palmtree@@6B@
  0004c	48 89 01	 mov	 QWORD PTR [rcx], rax

; 159  :         }

  0004f	48 8b c1	 mov	 rax, rcx
  00052	48 83 c4 18	 add	 rsp, 24
  00056	c3		 ret	 0
??0OverflowException@Internal@Core@Math@Palmtree@@QEAA@AEBV01234@@Z ENDP ; Palmtree::Math::Core::Internal::OverflowException::OverflowException
_TEXT	ENDS
;	COMDAT text$x
text$x	SEGMENT
$T1 = 0
this$ = 32
p$ = 40
?dtor$1@?0???0OverflowException@Internal@Core@Math@Palmtree@@QEAA@AEBV01234@@Z@4HA PROC ; `Palmtree::Math::Core::Internal::OverflowException::OverflowException'::`1'::dtor$1
  00000	48 8b 8a 20 00
	00 00		 mov	 rcx, QWORD PTR this$[rdx]
  00007	e9 00 00 00 00	 jmp	 ??1exception@std@@UEAA@XZ ; std::exception::~exception
?dtor$1@?0???0OverflowException@Internal@Core@Math@Palmtree@@QEAA@AEBV01234@@Z@4HA ENDP ; `Palmtree::Math::Core::Internal::OverflowException::OverflowException'::`1'::dtor$1
text$x	ENDS
;	COMDAT text$x
text$x	SEGMENT
$T1 = 0
this$ = 32
p$ = 40
?dtor$0@?0???0OverflowException@Internal@Core@Math@Palmtree@@QEAA@AEBV01234@@Z@4HA PROC ; `Palmtree::Math::Core::Internal::OverflowException::OverflowException'::`1'::dtor$0
  00000	48 8b 8a 20 00
	00 00		 mov	 rcx, QWORD PTR this$[rdx]
  00007	e9 00 00 00 00	 jmp	 ??1Exception@Internal@Core@Math@Palmtree@@UEAA@XZ ; Palmtree::Math::Core::Internal::Exception::~Exception
?dtor$0@?0???0OverflowException@Internal@Core@Math@Palmtree@@QEAA@AEBV01234@@Z@4HA ENDP ; `Palmtree::Math::Core::Internal::OverflowException::OverflowException'::`1'::dtor$0
text$x	ENDS
; Function compile flags: /Ogtpy
;	COMDAT text$x
text$x	SEGMENT
$T1 = 0
this$ = 32
p$ = 40
?dtor$1@?0???0OverflowException@Internal@Core@Math@Palmtree@@QEAA@AEBV01234@@Z@4HA PROC ; `Palmtree::Math::Core::Internal::OverflowException::OverflowException'::`1'::dtor$1
  00000	48 8b 8a 20 00
	00 00		 mov	 rcx, QWORD PTR this$[rdx]
  00007	e9 00 00 00 00	 jmp	 ??1exception@std@@UEAA@XZ ; std::exception::~exception
?dtor$1@?0???0OverflowException@Internal@Core@Math@Palmtree@@QEAA@AEBV01234@@Z@4HA ENDP ; `Palmtree::Math::Core::Internal::OverflowException::OverflowException'::`1'::dtor$1
text$x	ENDS
; Function compile flags: /Ogtpy
;	COMDAT text$x
text$x	SEGMENT
$T1 = 0
this$ = 32
p$ = 40
?dtor$0@?0???0OverflowException@Internal@Core@Math@Palmtree@@QEAA@AEBV01234@@Z@4HA PROC ; `Palmtree::Math::Core::Internal::OverflowException::OverflowException'::`1'::dtor$0
  00000	48 8b 8a 20 00
	00 00		 mov	 rcx, QWORD PTR this$[rdx]
  00007	e9 00 00 00 00	 jmp	 ??1Exception@Internal@Core@Math@Palmtree@@UEAA@XZ ; Palmtree::Math::Core::Internal::Exception::~Exception
?dtor$0@?0???0OverflowException@Internal@Core@Math@Palmtree@@QEAA@AEBV01234@@Z@4HA ENDP ; `Palmtree::Math::Core::Internal::OverflowException::OverflowException'::`1'::dtor$0
text$x	ENDS
; Function compile flags: /Ogtpy
; File z:\sources\lunor\repos\rougemeilland\palmtree.math.core.uint\palmtree.math.core.uint\pmc_exception.h
; File c:\program files (x86)\microsoft visual studio\2017\community\vc\tools\msvc\14.16.27023\include\vcruntime_exception.h
; File z:\sources\lunor\repos\rougemeilland\palmtree.math.core.uint\palmtree.math.core.uint\pmc_exception.h
;	COMDAT ??0OverflowException@Internal@Core@Math@Palmtree@@QEAA@PEB_W@Z
_TEXT	SEGMENT
$T1 = 0
this$ = 32
message$ = 40
??0OverflowException@Internal@Core@Math@Palmtree@@QEAA@PEB_W@Z PROC ; Palmtree::Math::Core::Internal::OverflowException::OverflowException, COMDAT

; 153  :         {

$LN11:
  00000	48 89 4c 24 08	 mov	 QWORD PTR [rsp+8], rcx
  00005	48 83 ec 18	 sub	 rsp, 24
  00009	48 c7 04 24 fe
	ff ff ff	 mov	 QWORD PTR $T1[rsp], -2
; File c:\program files (x86)\microsoft visual studio\2017\community\vc\tools\msvc\14.16.27023\include\vcruntime_exception.h

; 50   :     {

  00011	48 8d 05 00 00
	00 00		 lea	 rax, OFFSET FLAT:??_7exception@std@@6B@
  00018	48 89 01	 mov	 QWORD PTR [rcx], rax

; 49   :         : _Data()

  0001b	33 c0		 xor	 eax, eax
  0001d	48 89 41 08	 mov	 QWORD PTR [rcx+8], rax
  00021	48 89 41 10	 mov	 QWORD PTR [rcx+16], rax
; File z:\sources\lunor\repos\rougemeilland\palmtree.math.core.uint\palmtree.math.core.uint\pmc_exception.h

; 47   :         Exception(PMC_STATUS_CODE code, const wchar_t* message) noexcept(true)

  00025	48 8d 05 00 00
	00 00		 lea	 rax, OFFSET FLAT:??_7Exception@Internal@Core@Math@Palmtree@@6B@
  0002c	48 89 01	 mov	 QWORD PTR [rcx], rax

; 48   :         {
; 49   :             _code = code;

  0002f	c7 41 18 fc ff
	ff ff		 mov	 DWORD PTR [rcx+24], -4

; 50   :             _message = message;

  00036	48 89 51 20	 mov	 QWORD PTR [rcx+32], rdx

; 51   :             _data = nullptr;

  0003a	48 c7 41 28 00
	00 00 00	 mov	 QWORD PTR [rcx+40], 0

; 153  :         {

  00042	48 8d 05 00 00
	00 00		 lea	 rax, OFFSET FLAT:??_7OverflowException@Internal@Core@Math@Palmtree@@6B@
  00049	48 89 01	 mov	 QWORD PTR [rcx], rax

; 154  :         }

  0004c	48 8b c1	 mov	 rax, rcx
  0004f	48 83 c4 18	 add	 rsp, 24
  00053	c3		 ret	 0
??0OverflowException@Internal@Core@Math@Palmtree@@QEAA@PEB_W@Z ENDP ; Palmtree::Math::Core::Internal::OverflowException::OverflowException
_TEXT	ENDS
;	COMDAT text$x
text$x	SEGMENT
$T1 = 0
this$ = 32
message$ = 40
?dtor$1@?0???0OverflowException@Internal@Core@Math@Palmtree@@QEAA@PEB_W@Z@4HA PROC ; `Palmtree::Math::Core::Internal::OverflowException::OverflowException'::`1'::dtor$1
  00000	48 8b 8a 20 00
	00 00		 mov	 rcx, QWORD PTR this$[rdx]
  00007	e9 00 00 00 00	 jmp	 ??1exception@std@@UEAA@XZ ; std::exception::~exception
?dtor$1@?0???0OverflowException@Internal@Core@Math@Palmtree@@QEAA@PEB_W@Z@4HA ENDP ; `Palmtree::Math::Core::Internal::OverflowException::OverflowException'::`1'::dtor$1
text$x	ENDS
;	COMDAT text$x
text$x	SEGMENT
$T1 = 0
this$ = 32
message$ = 40
?dtor$0@?0???0OverflowException@Internal@Core@Math@Palmtree@@QEAA@PEB_W@Z@4HA PROC ; `Palmtree::Math::Core::Internal::OverflowException::OverflowException'::`1'::dtor$0
  00000	48 8b 8a 20 00
	00 00		 mov	 rcx, QWORD PTR this$[rdx]
  00007	e9 00 00 00 00	 jmp	 ??1Exception@Internal@Core@Math@Palmtree@@UEAA@XZ ; Palmtree::Math::Core::Internal::Exception::~Exception
?dtor$0@?0???0OverflowException@Internal@Core@Math@Palmtree@@QEAA@PEB_W@Z@4HA ENDP ; `Palmtree::Math::Core::Internal::OverflowException::OverflowException'::`1'::dtor$0
text$x	ENDS
; Function compile flags: /Ogtpy
;	COMDAT text$x
text$x	SEGMENT
$T1 = 0
this$ = 32
message$ = 40
?dtor$1@?0???0OverflowException@Internal@Core@Math@Palmtree@@QEAA@PEB_W@Z@4HA PROC ; `Palmtree::Math::Core::Internal::OverflowException::OverflowException'::`1'::dtor$1
  00000	48 8b 8a 20 00
	00 00		 mov	 rcx, QWORD PTR this$[rdx]
  00007	e9 00 00 00 00	 jmp	 ??1exception@std@@UEAA@XZ ; std::exception::~exception
?dtor$1@?0???0OverflowException@Internal@Core@Math@Palmtree@@QEAA@PEB_W@Z@4HA ENDP ; `Palmtree::Math::Core::Internal::OverflowException::OverflowException'::`1'::dtor$1
text$x	ENDS
; Function compile flags: /Ogtpy
;	COMDAT text$x
text$x	SEGMENT
$T1 = 0
this$ = 32
message$ = 40
?dtor$0@?0???0OverflowException@Internal@Core@Math@Palmtree@@QEAA@PEB_W@Z@4HA PROC ; `Palmtree::Math::Core::Internal::OverflowException::OverflowException'::`1'::dtor$0
  00000	48 8b 8a 20 00
	00 00		 mov	 rcx, QWORD PTR this$[rdx]
  00007	e9 00 00 00 00	 jmp	 ??1Exception@Internal@Core@Math@Palmtree@@UEAA@XZ ; Palmtree::Math::Core::Internal::Exception::~Exception
?dtor$0@?0???0OverflowException@Internal@Core@Math@Palmtree@@QEAA@PEB_W@Z@4HA ENDP ; `Palmtree::Math::Core::Internal::OverflowException::OverflowException'::`1'::dtor$0
text$x	ENDS
; Function compile flags: /Ogtpy
; File z:\sources\lunor\repos\rougemeilland\palmtree.math.core.uint\palmtree.math.core.uint\pmc_exception.h
; File c:\program files (x86)\microsoft visual studio\2017\community\vc\tools\msvc\14.16.27023\include\vcruntime_exception.h
;	COMDAT ??_GException@Internal@Core@Math@Palmtree@@UEAAPEAXI@Z
_TEXT	SEGMENT
$T1 = 32
this$ = 64
__flags$ = 72
??_GException@Internal@Core@Math@Palmtree@@UEAAPEAXI@Z PROC ; Palmtree::Math::Core::Internal::Exception::`scalar deleting destructor', COMDAT
$LN12:
  00000	48 89 4c 24 08	 mov	 QWORD PTR [rsp+8], rcx
  00005	57		 push	 rdi
  00006	48 83 ec 30	 sub	 rsp, 48			; 00000030H
  0000a	48 c7 44 24 20
	fe ff ff ff	 mov	 QWORD PTR $T1[rsp], -2
  00013	48 89 5c 24 48	 mov	 QWORD PTR [rsp+72], rbx
  00018	8b da		 mov	 ebx, edx
  0001a	48 8b f9	 mov	 rdi, rcx
; File z:\sources\lunor\repos\rougemeilland\palmtree.math.core.uint\palmtree.math.core.uint\pmc_exception.h

; 70   :         {

  0001d	48 8d 05 00 00
	00 00		 lea	 rax, OFFSET FLAT:??_7Exception@Internal@Core@Math@Palmtree@@6B@
  00024	48 89 01	 mov	 QWORD PTR [rcx], rax
; File c:\program files (x86)\microsoft visual studio\2017\community\vc\tools\msvc\14.16.27023\include\vcruntime_exception.h

; 85   :     {

  00027	48 8d 05 00 00
	00 00		 lea	 rax, OFFSET FLAT:??_7exception@std@@6B@
  0002e	48 89 01	 mov	 QWORD PTR [rcx], rax

; 86   :         __std_exception_destroy(&_Data);

  00031	48 83 c1 08	 add	 rcx, 8
  00035	e8 00 00 00 00	 call	 __std_exception_destroy
  0003a	90		 npad	 1
  0003b	f6 c3 01	 test	 bl, 1
  0003e	74 0e		 je	 SHORT $LN9@scalar
  00040	ba 30 00 00 00	 mov	 edx, 48			; 00000030H
  00045	48 8b cf	 mov	 rcx, rdi
  00048	e8 00 00 00 00	 call	 ??3@YAXPEAX_K@Z		; operator delete
  0004d	90		 npad	 1
$LN9@scalar:
  0004e	48 8b c7	 mov	 rax, rdi
  00051	48 8b 5c 24 48	 mov	 rbx, QWORD PTR [rsp+72]
  00056	48 83 c4 30	 add	 rsp, 48			; 00000030H
  0005a	5f		 pop	 rdi
  0005b	c3		 ret	 0
??_GException@Internal@Core@Math@Palmtree@@UEAAPEAXI@Z ENDP ; Palmtree::Math::Core::Internal::Exception::`scalar deleting destructor'
_TEXT	ENDS
;	COMDAT text$x
text$x	SEGMENT
$T1 = 32
this$ = 64
__flags$ = 72
?dtor$0@?0???_GException@Internal@Core@Math@Palmtree@@UEAAPEAXI@Z@4HA PROC ; `Palmtree::Math::Core::Internal::Exception::`scalar deleting destructor''::`1'::dtor$0
  00000	48 8b 8a 40 00
	00 00		 mov	 rcx, QWORD PTR this$[rdx]
  00007	e9 00 00 00 00	 jmp	 ??1exception@std@@UEAA@XZ ; std::exception::~exception
?dtor$0@?0???_GException@Internal@Core@Math@Palmtree@@UEAAPEAXI@Z@4HA ENDP ; `Palmtree::Math::Core::Internal::Exception::`scalar deleting destructor''::`1'::dtor$0
text$x	ENDS
; Function compile flags: /Ogtpy
;	COMDAT text$x
text$x	SEGMENT
$T1 = 32
this$ = 64
__flags$ = 72
?dtor$0@?0???_GException@Internal@Core@Math@Palmtree@@UEAAPEAXI@Z@4HA PROC ; `Palmtree::Math::Core::Internal::Exception::`scalar deleting destructor''::`1'::dtor$0
  00000	48 8b 8a 40 00
	00 00		 mov	 rcx, QWORD PTR this$[rdx]
  00007	e9 00 00 00 00	 jmp	 ??1exception@std@@UEAA@XZ ; std::exception::~exception
?dtor$0@?0???_GException@Internal@Core@Math@Palmtree@@UEAAPEAXI@Z@4HA ENDP ; `Palmtree::Math::Core::Internal::Exception::`scalar deleting destructor''::`1'::dtor$0
text$x	ENDS
; Function compile flags: /Ogtpy
; File z:\sources\lunor\repos\rougemeilland\palmtree.math.core.uint\palmtree.math.core.uint\pmc_exception.h
; File c:\program files (x86)\microsoft visual studio\2017\community\vc\tools\msvc\14.16.27023\include\vcruntime_exception.h
; File z:\sources\lunor\repos\rougemeilland\palmtree.math.core.uint\palmtree.math.core.uint\pmc_exception.h
;	COMDAT ??1Exception@Internal@Core@Math@Palmtree@@UEAA@XZ
_TEXT	SEGMENT
$T1 = 32
this$ = 64
??1Exception@Internal@Core@Math@Palmtree@@UEAA@XZ PROC	; Palmtree::Math::Core::Internal::Exception::~Exception, COMDAT

; 70   :         {

$LN8:
  00000	48 89 4c 24 08	 mov	 QWORD PTR [rsp+8], rcx
  00005	48 83 ec 38	 sub	 rsp, 56			; 00000038H
  00009	48 c7 44 24 20
	fe ff ff ff	 mov	 QWORD PTR $T1[rsp], -2
  00012	48 8d 05 00 00
	00 00		 lea	 rax, OFFSET FLAT:??_7Exception@Internal@Core@Math@Palmtree@@6B@
  00019	48 89 01	 mov	 QWORD PTR [rcx], rax
; File c:\program files (x86)\microsoft visual studio\2017\community\vc\tools\msvc\14.16.27023\include\vcruntime_exception.h

; 85   :     {

  0001c	48 8d 05 00 00
	00 00		 lea	 rax, OFFSET FLAT:??_7exception@std@@6B@
  00023	48 89 01	 mov	 QWORD PTR [rcx], rax

; 86   :         __std_exception_destroy(&_Data);

  00026	48 83 c1 08	 add	 rcx, 8
  0002a	e8 00 00 00 00	 call	 __std_exception_destroy
  0002f	90		 npad	 1
; File z:\sources\lunor\repos\rougemeilland\palmtree.math.core.uint\palmtree.math.core.uint\pmc_exception.h

; 71   :         }

  00030	48 83 c4 38	 add	 rsp, 56			; 00000038H
  00034	c3		 ret	 0
??1Exception@Internal@Core@Math@Palmtree@@UEAA@XZ ENDP	; Palmtree::Math::Core::Internal::Exception::~Exception
_TEXT	ENDS
;	COMDAT text$x
text$x	SEGMENT
$T1 = 32
this$ = 64
?dtor$0@?0???1Exception@Internal@Core@Math@Palmtree@@UEAA@XZ@4HA PROC ; `Palmtree::Math::Core::Internal::Exception::~Exception'::`1'::dtor$0
  00000	48 8b 8a 40 00
	00 00		 mov	 rcx, QWORD PTR this$[rdx]
  00007	e9 00 00 00 00	 jmp	 ??1exception@std@@UEAA@XZ ; std::exception::~exception
?dtor$0@?0???1Exception@Internal@Core@Math@Palmtree@@UEAA@XZ@4HA ENDP ; `Palmtree::Math::Core::Internal::Exception::~Exception'::`1'::dtor$0
text$x	ENDS
; Function compile flags: /Ogtpy
;	COMDAT text$x
text$x	SEGMENT
$T1 = 32
this$ = 64
?dtor$0@?0???1Exception@Internal@Core@Math@Palmtree@@UEAA@XZ@4HA PROC ; `Palmtree::Math::Core::Internal::Exception::~Exception'::`1'::dtor$0
  00000	48 8b 8a 40 00
	00 00		 mov	 rcx, QWORD PTR this$[rdx]
  00007	e9 00 00 00 00	 jmp	 ??1exception@std@@UEAA@XZ ; std::exception::~exception
?dtor$0@?0???1Exception@Internal@Core@Math@Palmtree@@UEAA@XZ@4HA ENDP ; `Palmtree::Math::Core::Internal::Exception::~Exception'::`1'::dtor$0
text$x	ENDS
; Function compile flags: /Ogtpy
; File z:\sources\lunor\repos\rougemeilland\palmtree.math.core.uint\palmtree.math.core.uint\pmc_exception.h
; File c:\program files (x86)\microsoft visual studio\2017\community\vc\tools\msvc\14.16.27023\include\vcruntime_exception.h
; File z:\sources\lunor\repos\rougemeilland\palmtree.math.core.uint\palmtree.math.core.uint\pmc_exception.h
;	COMDAT ??0Exception@Internal@Core@Math@Palmtree@@QEAA@AEBV01234@@Z
_TEXT	SEGMENT
$T1 = 0
this$ = 32
p$ = 40
??0Exception@Internal@Core@Math@Palmtree@@QEAA@AEBV01234@@Z PROC ; Palmtree::Math::Core::Internal::Exception::Exception, COMDAT

; 62   :         Exception(const Exception& p) noexcept(true)

$LN8:
  00000	48 89 4c 24 08	 mov	 QWORD PTR [rsp+8], rcx
  00005	48 83 ec 18	 sub	 rsp, 24
  00009	48 c7 04 24 fe
	ff ff ff	 mov	 QWORD PTR $T1[rsp], -2
; File c:\program files (x86)\microsoft visual studio\2017\community\vc\tools\msvc\14.16.27023\include\vcruntime_exception.h

; 50   :     {

  00011	48 8d 05 00 00
	00 00		 lea	 rax, OFFSET FLAT:??_7exception@std@@6B@
  00018	48 89 01	 mov	 QWORD PTR [rcx], rax

; 49   :         : _Data()

  0001b	33 c0		 xor	 eax, eax
  0001d	48 89 41 08	 mov	 QWORD PTR [rcx+8], rax
  00021	48 89 41 10	 mov	 QWORD PTR [rcx+16], rax
; File z:\sources\lunor\repos\rougemeilland\palmtree.math.core.uint\palmtree.math.core.uint\pmc_exception.h

; 62   :         Exception(const Exception& p) noexcept(true)

  00025	48 8d 05 00 00
	00 00		 lea	 rax, OFFSET FLAT:??_7Exception@Internal@Core@Math@Palmtree@@6B@
  0002c	48 89 01	 mov	 QWORD PTR [rcx], rax

; 63   :         {
; 64   :             _code = p._code;

  0002f	8b 42 18	 mov	 eax, DWORD PTR [rdx+24]
  00032	89 41 18	 mov	 DWORD PTR [rcx+24], eax

; 65   :             _message = p._message;

  00035	48 8b 42 20	 mov	 rax, QWORD PTR [rdx+32]
  00039	48 89 41 20	 mov	 QWORD PTR [rcx+32], rax

; 66   :             _data = p._data;

  0003d	48 8b 42 28	 mov	 rax, QWORD PTR [rdx+40]
  00041	48 89 41 28	 mov	 QWORD PTR [rcx+40], rax

; 67   :         }

  00045	48 8b c1	 mov	 rax, rcx
  00048	48 83 c4 18	 add	 rsp, 24
  0004c	c3		 ret	 0
??0Exception@Internal@Core@Math@Palmtree@@QEAA@AEBV01234@@Z ENDP ; Palmtree::Math::Core::Internal::Exception::Exception
_TEXT	ENDS
;	COMDAT text$x
text$x	SEGMENT
$T1 = 0
this$ = 32
p$ = 40
?dtor$0@?0???0Exception@Internal@Core@Math@Palmtree@@QEAA@AEBV01234@@Z@4HA PROC ; `Palmtree::Math::Core::Internal::Exception::Exception'::`1'::dtor$0
  00000	48 8b 8a 20 00
	00 00		 mov	 rcx, QWORD PTR this$[rdx]
  00007	e9 00 00 00 00	 jmp	 ??1exception@std@@UEAA@XZ ; std::exception::~exception
?dtor$0@?0???0Exception@Internal@Core@Math@Palmtree@@QEAA@AEBV01234@@Z@4HA ENDP ; `Palmtree::Math::Core::Internal::Exception::Exception'::`1'::dtor$0
text$x	ENDS
; Function compile flags: /Ogtpy
;	COMDAT text$x
text$x	SEGMENT
$T1 = 0
this$ = 32
p$ = 40
?dtor$0@?0???0Exception@Internal@Core@Math@Palmtree@@QEAA@AEBV01234@@Z@4HA PROC ; `Palmtree::Math::Core::Internal::Exception::Exception'::`1'::dtor$0
  00000	48 8b 8a 20 00
	00 00		 mov	 rcx, QWORD PTR this$[rdx]
  00007	e9 00 00 00 00	 jmp	 ??1exception@std@@UEAA@XZ ; std::exception::~exception
?dtor$0@?0???0Exception@Internal@Core@Math@Palmtree@@QEAA@AEBV01234@@Z@4HA ENDP ; `Palmtree::Math::Core::Internal::Exception::Exception'::`1'::dtor$0
text$x	ENDS
; Function compile flags: /Ogtpy
; File z:\sources\lunor\repos\rougemeilland\palmtree.math.core.uint\palmtree.math.core.uint\pmc_exception.h
; File c:\program files (x86)\microsoft visual studio\2017\community\vc\tools\msvc\14.16.27023\include\vcruntime_exception.h
; File z:\sources\lunor\repos\rougemeilland\palmtree.math.core.uint\palmtree.math.core.uint\pmc_exception.h
;	COMDAT ??0Exception@Internal@Core@Math@Palmtree@@IEAA@HPEB_W0@Z
_TEXT	SEGMENT
$T1 = 0
this$ = 32
code$ = 40
message$ = 48
data$ = 56
??0Exception@Internal@Core@Math@Palmtree@@IEAA@HPEB_W0@Z PROC ; Palmtree::Math::Core::Internal::Exception::Exception, COMDAT

; 54   :         Exception(PMC_STATUS_CODE code, const wchar_t* message, const wchar_t* data) noexcept(true)

$LN8:
  00000	48 89 4c 24 08	 mov	 QWORD PTR [rsp+8], rcx
  00005	48 83 ec 18	 sub	 rsp, 24
  00009	48 c7 04 24 fe
	ff ff ff	 mov	 QWORD PTR $T1[rsp], -2
; File c:\program files (x86)\microsoft visual studio\2017\community\vc\tools\msvc\14.16.27023\include\vcruntime_exception.h

; 50   :     {

  00011	48 8d 05 00 00
	00 00		 lea	 rax, OFFSET FLAT:??_7exception@std@@6B@
  00018	48 89 01	 mov	 QWORD PTR [rcx], rax

; 49   :         : _Data()

  0001b	33 c0		 xor	 eax, eax
  0001d	48 89 41 08	 mov	 QWORD PTR [rcx+8], rax
  00021	48 89 41 10	 mov	 QWORD PTR [rcx+16], rax
; File z:\sources\lunor\repos\rougemeilland\palmtree.math.core.uint\palmtree.math.core.uint\pmc_exception.h

; 54   :         Exception(PMC_STATUS_CODE code, const wchar_t* message, const wchar_t* data) noexcept(true)

  00025	48 8d 05 00 00
	00 00		 lea	 rax, OFFSET FLAT:??_7Exception@Internal@Core@Math@Palmtree@@6B@
  0002c	48 89 01	 mov	 QWORD PTR [rcx], rax

; 55   :         {
; 56   :             _code = code;

  0002f	89 51 18	 mov	 DWORD PTR [rcx+24], edx

; 57   :             _message = message;

  00032	4c 89 41 20	 mov	 QWORD PTR [rcx+32], r8

; 58   :             _data = data;

  00036	4c 89 49 28	 mov	 QWORD PTR [rcx+40], r9

; 59   :         }

  0003a	48 8b c1	 mov	 rax, rcx
  0003d	48 83 c4 18	 add	 rsp, 24
  00041	c3		 ret	 0
??0Exception@Internal@Core@Math@Palmtree@@IEAA@HPEB_W0@Z ENDP ; Palmtree::Math::Core::Internal::Exception::Exception
_TEXT	ENDS
;	COMDAT text$x
text$x	SEGMENT
$T1 = 0
this$ = 32
code$ = 40
message$ = 48
data$ = 56
?dtor$0@?0???0Exception@Internal@Core@Math@Palmtree@@IEAA@HPEB_W0@Z@4HA PROC ; `Palmtree::Math::Core::Internal::Exception::Exception'::`1'::dtor$0
  00000	48 8b 8a 20 00
	00 00		 mov	 rcx, QWORD PTR this$[rdx]
  00007	e9 00 00 00 00	 jmp	 ??1exception@std@@UEAA@XZ ; std::exception::~exception
?dtor$0@?0???0Exception@Internal@Core@Math@Palmtree@@IEAA@HPEB_W0@Z@4HA ENDP ; `Palmtree::Math::Core::Internal::Exception::Exception'::`1'::dtor$0
text$x	ENDS
; Function compile flags: /Ogtpy
;	COMDAT text$x
text$x	SEGMENT
$T1 = 0
this$ = 32
code$ = 40
message$ = 48
data$ = 56
?dtor$0@?0???0Exception@Internal@Core@Math@Palmtree@@IEAA@HPEB_W0@Z@4HA PROC ; `Palmtree::Math::Core::Internal::Exception::Exception'::`1'::dtor$0
  00000	48 8b 8a 20 00
	00 00		 mov	 rcx, QWORD PTR this$[rdx]
  00007	e9 00 00 00 00	 jmp	 ??1exception@std@@UEAA@XZ ; std::exception::~exception
?dtor$0@?0???0Exception@Internal@Core@Math@Palmtree@@IEAA@HPEB_W0@Z@4HA ENDP ; `Palmtree::Math::Core::Internal::Exception::Exception'::`1'::dtor$0
text$x	ENDS
; Function compile flags: /Ogtpy
; File z:\sources\lunor\repos\rougemeilland\palmtree.math.core.uint\palmtree.math.core.uint\pmc_exception.h
; File c:\program files (x86)\microsoft visual studio\2017\community\vc\tools\msvc\14.16.27023\include\vcruntime_exception.h
; File z:\sources\lunor\repos\rougemeilland\palmtree.math.core.uint\palmtree.math.core.uint\pmc_exception.h
;	COMDAT ??0Exception@Internal@Core@Math@Palmtree@@IEAA@HPEB_W@Z
_TEXT	SEGMENT
$T1 = 0
this$ = 32
code$ = 40
message$ = 48
??0Exception@Internal@Core@Math@Palmtree@@IEAA@HPEB_W@Z PROC ; Palmtree::Math::Core::Internal::Exception::Exception, COMDAT

; 47   :         Exception(PMC_STATUS_CODE code, const wchar_t* message) noexcept(true)

$LN8:
  00000	48 89 4c 24 08	 mov	 QWORD PTR [rsp+8], rcx
  00005	48 83 ec 18	 sub	 rsp, 24
  00009	48 c7 04 24 fe
	ff ff ff	 mov	 QWORD PTR $T1[rsp], -2
; File c:\program files (x86)\microsoft visual studio\2017\community\vc\tools\msvc\14.16.27023\include\vcruntime_exception.h

; 50   :     {

  00011	48 8d 05 00 00
	00 00		 lea	 rax, OFFSET FLAT:??_7exception@std@@6B@
  00018	48 89 01	 mov	 QWORD PTR [rcx], rax

; 49   :         : _Data()

  0001b	33 c0		 xor	 eax, eax
  0001d	48 89 41 08	 mov	 QWORD PTR [rcx+8], rax
  00021	48 89 41 10	 mov	 QWORD PTR [rcx+16], rax
; File z:\sources\lunor\repos\rougemeilland\palmtree.math.core.uint\palmtree.math.core.uint\pmc_exception.h

; 47   :         Exception(PMC_STATUS_CODE code, const wchar_t* message) noexcept(true)

  00025	48 8d 05 00 00
	00 00		 lea	 rax, OFFSET FLAT:??_7Exception@Internal@Core@Math@Palmtree@@6B@
  0002c	48 89 01	 mov	 QWORD PTR [rcx], rax

; 48   :         {
; 49   :             _code = code;

  0002f	89 51 18	 mov	 DWORD PTR [rcx+24], edx

; 50   :             _message = message;

  00032	4c 89 41 20	 mov	 QWORD PTR [rcx+32], r8

; 51   :             _data = nullptr;

  00036	48 c7 41 28 00
	00 00 00	 mov	 QWORD PTR [rcx+40], 0

; 52   :         }

  0003e	48 8b c1	 mov	 rax, rcx
  00041	48 83 c4 18	 add	 rsp, 24
  00045	c3		 ret	 0
??0Exception@Internal@Core@Math@Palmtree@@IEAA@HPEB_W@Z ENDP ; Palmtree::Math::Core::Internal::Exception::Exception
_TEXT	ENDS
;	COMDAT text$x
text$x	SEGMENT
$T1 = 0
this$ = 32
code$ = 40
message$ = 48
?dtor$0@?0???0Exception@Internal@Core@Math@Palmtree@@IEAA@HPEB_W@Z@4HA PROC ; `Palmtree::Math::Core::Internal::Exception::Exception'::`1'::dtor$0
  00000	48 8b 8a 20 00
	00 00		 mov	 rcx, QWORD PTR this$[rdx]
  00007	e9 00 00 00 00	 jmp	 ??1exception@std@@UEAA@XZ ; std::exception::~exception
?dtor$0@?0???0Exception@Internal@Core@Math@Palmtree@@IEAA@HPEB_W@Z@4HA ENDP ; `Palmtree::Math::Core::Internal::Exception::Exception'::`1'::dtor$0
text$x	ENDS
; Function compile flags: /Ogtpy
;	COMDAT text$x
text$x	SEGMENT
$T1 = 0
this$ = 32
code$ = 40
message$ = 48
?dtor$0@?0???0Exception@Internal@Core@Math@Palmtree@@IEAA@HPEB_W@Z@4HA PROC ; `Palmtree::Math::Core::Internal::Exception::Exception'::`1'::dtor$0
  00000	48 8b 8a 20 00
	00 00		 mov	 rcx, QWORD PTR this$[rdx]
  00007	e9 00 00 00 00	 jmp	 ??1exception@std@@UEAA@XZ ; std::exception::~exception
?dtor$0@?0???0Exception@Internal@Core@Math@Palmtree@@IEAA@HPEB_W@Z@4HA ENDP ; `Palmtree::Math::Core::Internal::Exception::Exception'::`1'::dtor$0
text$x	ENDS
; Function compile flags: /Ogtpy
; File c:\program files (x86)\microsoft visual studio\2017\community\vc\tools\msvc\14.16.27023\include\vcruntime_exception.h
;	COMDAT ??_Gexception@std@@UEAAPEAXI@Z
_TEXT	SEGMENT
$T1 = 32
this$ = 64
__flags$ = 72
??_Gexception@std@@UEAAPEAXI@Z PROC			; std::exception::`scalar deleting destructor', COMDAT
$LN9:
  00000	40 57		 push	 rdi
  00002	48 83 ec 30	 sub	 rsp, 48			; 00000030H
  00006	48 c7 44 24 20
	fe ff ff ff	 mov	 QWORD PTR $T1[rsp], -2
  0000f	48 89 5c 24 40	 mov	 QWORD PTR [rsp+64], rbx
  00014	8b da		 mov	 ebx, edx
  00016	48 8b f9	 mov	 rdi, rcx

; 85   :     {

  00019	48 8d 05 00 00
	00 00		 lea	 rax, OFFSET FLAT:??_7exception@std@@6B@
  00020	48 89 01	 mov	 QWORD PTR [rcx], rax

; 86   :         __std_exception_destroy(&_Data);

  00023	48 83 c1 08	 add	 rcx, 8
  00027	e8 00 00 00 00	 call	 __std_exception_destroy
  0002c	90		 npad	 1
  0002d	f6 c3 01	 test	 bl, 1
  00030	74 0e		 je	 SHORT $LN6@scalar
  00032	ba 18 00 00 00	 mov	 edx, 24
  00037	48 8b cf	 mov	 rcx, rdi
  0003a	e8 00 00 00 00	 call	 ??3@YAXPEAX_K@Z		; operator delete
  0003f	90		 npad	 1
$LN6@scalar:
  00040	48 8b c7	 mov	 rax, rdi
  00043	48 8b 5c 24 40	 mov	 rbx, QWORD PTR [rsp+64]
  00048	48 83 c4 30	 add	 rsp, 48			; 00000030H
  0004c	5f		 pop	 rdi
  0004d	c3		 ret	 0
??_Gexception@std@@UEAAPEAXI@Z ENDP			; std::exception::`scalar deleting destructor'
_TEXT	ENDS
; Function compile flags: /Ogtpy
; File c:\program files (x86)\microsoft visual studio\2017\community\vc\tools\msvc\14.16.27023\include\vcruntime_exception.h
;	COMDAT ?what@exception@std@@UEBAPEBDXZ
_TEXT	SEGMENT
this$ = 8
?what@exception@std@@UEBAPEBDXZ PROC			; std::exception::what, COMDAT

; 91   :         return _Data._What ? _Data._What : "Unknown exception";

  00000	48 8b 51 08	 mov	 rdx, QWORD PTR [rcx+8]
  00004	48 8d 05 00 00
	00 00		 lea	 rax, OFFSET FLAT:??_C@_0BC@EOODALEL@Unknown?5exception@
  0000b	48 85 d2	 test	 rdx, rdx
  0000e	48 0f 45 c2	 cmovne	 rax, rdx

; 92   :     }

  00012	c3		 ret	 0
?what@exception@std@@UEBAPEBDXZ ENDP			; std::exception::what
_TEXT	ENDS
; Function compile flags: /Ogtpy
; File c:\program files (x86)\microsoft visual studio\2017\community\vc\tools\msvc\14.16.27023\include\vcruntime_exception.h
;	COMDAT ??1exception@std@@UEAA@XZ
_TEXT	SEGMENT
$T1 = 32
this$ = 64
??1exception@std@@UEAA@XZ PROC				; std::exception::~exception, COMDAT

; 85   :     {

$LN5:
  00000	48 83 ec 38	 sub	 rsp, 56			; 00000038H
  00004	48 c7 44 24 20
	fe ff ff ff	 mov	 QWORD PTR $T1[rsp], -2
  0000d	48 8d 05 00 00
	00 00		 lea	 rax, OFFSET FLAT:??_7exception@std@@6B@
  00014	48 89 01	 mov	 QWORD PTR [rcx], rax

; 86   :         __std_exception_destroy(&_Data);

  00017	48 83 c1 08	 add	 rcx, 8
  0001b	e8 00 00 00 00	 call	 __std_exception_destroy
  00020	90		 npad	 1

; 87   :     }

  00021	48 83 c4 38	 add	 rsp, 56			; 00000038H
  00025	c3		 ret	 0
??1exception@std@@UEAA@XZ ENDP				; std::exception::~exception
_TEXT	ENDS
; Function compile flags: /Ogtpy
; File c:\program files (x86)\microsoft visual studio\2017\community\vc\tools\msvc\14.16.27023\include\vcruntime_exception.h
;	COMDAT ??0exception@std@@QEAA@XZ
_TEXT	SEGMENT
this$ = 8
??0exception@std@@QEAA@XZ PROC				; std::exception::exception, COMDAT

; 50   :     {

  00000	48 8d 05 00 00
	00 00		 lea	 rax, OFFSET FLAT:??_7exception@std@@6B@
  00007	48 89 01	 mov	 QWORD PTR [rcx], rax
  0000a	33 c0		 xor	 eax, eax
  0000c	48 89 41 08	 mov	 QWORD PTR [rcx+8], rax
  00010	48 89 41 10	 mov	 QWORD PTR [rcx+16], rax

; 51   :     }

  00014	48 8b c1	 mov	 rax, rcx
  00017	c3		 ret	 0
??0exception@std@@QEAA@XZ ENDP				; std::exception::exception
_TEXT	ENDS
END
