; Listing generated by Microsoft (R) Optimizing Compiler Version 19.16.27026.1 

include listing.inc

INCLUDELIB MSVCRT
INCLUDELIB OLDNAMES

PUBLIC	Initialize_BitwiseOr
PUBLIC	PMC_BitwiseOr_I_X
PUBLIC	PMC_BitwiseOr_L_X
PUBLIC	PMC_BitwiseOr_X_I
PUBLIC	PMC_BitwiseOr_X_L
PUBLIC	PMC_BitwiseOr_X_X
EXTRN	CheckBlockLight:PROC
EXTRN	AllocateNumber:PROC
EXTRN	CommitNumber:PROC
EXTRN	CheckNumber:PROC
EXTRN	DuplicateNumber:PROC
EXTRN	From_I_Imp:PROC
EXTRN	From_L_Imp:PROC
EXTRN	number_zero:BYTE
;	COMDAT pdata
pdata	SEGMENT
$pdata$PMC_BitwiseOr_I_X DD imagerel $LN10
	DD	imagerel $LN10+94
	DD	imagerel $unwind$PMC_BitwiseOr_I_X
pdata	ENDS
;	COMDAT pdata
pdata	SEGMENT
$pdata$PMC_BitwiseOr_L_X DD imagerel $LN10
	DD	imagerel $LN10+96
	DD	imagerel $unwind$PMC_BitwiseOr_L_X
pdata	ENDS
;	COMDAT pdata
pdata	SEGMENT
$pdata$PMC_BitwiseOr_X_I DD imagerel $LN10
	DD	imagerel $LN10+91
	DD	imagerel $unwind$PMC_BitwiseOr_X_I
pdata	ENDS
;	COMDAT pdata
pdata	SEGMENT
$pdata$PMC_BitwiseOr_X_L DD imagerel $LN10
	DD	imagerel $LN10+93
	DD	imagerel $unwind$PMC_BitwiseOr_X_L
pdata	ENDS
;	COMDAT pdata
pdata	SEGMENT
$pdata$PMC_BitwiseOr_X_X DD imagerel $LN23
	DD	imagerel $LN23+69
	DD	imagerel $unwind$PMC_BitwiseOr_X_X
pdata	ENDS
;	COMDAT pdata
pdata	SEGMENT
$pdata$0$PMC_BitwiseOr_X_X DD imagerel $LN23+69
	DD	imagerel $LN23+102
	DD	imagerel $chain$0$PMC_BitwiseOr_X_X
pdata	ENDS
;	COMDAT pdata
pdata	SEGMENT
$pdata$1$PMC_BitwiseOr_X_X DD imagerel $LN23+102
	DD	imagerel $LN23+110
	DD	imagerel $chain$1$PMC_BitwiseOr_X_X
pdata	ENDS
;	COMDAT pdata
pdata	SEGMENT
$pdata$2$PMC_BitwiseOr_X_X DD imagerel $LN23+110
	DD	imagerel $LN23+272
	DD	imagerel $chain$2$PMC_BitwiseOr_X_X
pdata	ENDS
;	COMDAT pdata
pdata	SEGMENT
$pdata$3$PMC_BitwiseOr_X_X DD imagerel $LN23+272
	DD	imagerel $LN23+285
	DD	imagerel $chain$3$PMC_BitwiseOr_X_X
pdata	ENDS
;	COMDAT pdata
pdata	SEGMENT
$pdata$_COPY_MEMORY_UNIT DD imagerel _COPY_MEMORY_UNIT
	DD	imagerel _COPY_MEMORY_UNIT+33
	DD	imagerel $unwind$_COPY_MEMORY_UNIT
pdata	ENDS
;	COMDAT pdata
pdata	SEGMENT
$pdata$BitwiseOr_X_1W DD imagerel BitwiseOr_X_1W
	DD	imagerel BitwiseOr_X_1W+20
	DD	imagerel $unwind$BitwiseOr_X_1W
pdata	ENDS
;	COMDAT pdata
pdata	SEGMENT
$pdata$0$BitwiseOr_X_1W DD imagerel BitwiseOr_X_1W+20
	DD	imagerel BitwiseOr_X_1W+45
	DD	imagerel $chain$0$BitwiseOr_X_1W
pdata	ENDS
;	COMDAT pdata
pdata	SEGMENT
$pdata$1$BitwiseOr_X_1W DD imagerel BitwiseOr_X_1W+45
	DD	imagerel BitwiseOr_X_1W+47
	DD	imagerel $chain$1$BitwiseOr_X_1W
pdata	ENDS
;	COMDAT pdata
pdata	SEGMENT
$pdata$BitwiseOr_X_2W DD imagerel BitwiseOr_X_2W
	DD	imagerel BitwiseOr_X_2W+91
	DD	imagerel $unwind$BitwiseOr_X_2W
pdata	ENDS
;	COMDAT pdata
pdata	SEGMENT
$pdata$BitwiseOr_X_X DD imagerel BitwiseOr_X_X
	DD	imagerel BitwiseOr_X_X+820
	DD	imagerel $unwind$BitwiseOr_X_X
pdata	ENDS
;	COMDAT pdata
pdata	SEGMENT
$pdata$PMC_BitwiseOr_X_I_Imp DD imagerel PMC_BitwiseOr_X_I_Imp
	DD	imagerel PMC_BitwiseOr_X_I_Imp+240
	DD	imagerel $unwind$PMC_BitwiseOr_X_I_Imp
pdata	ENDS
;	COMDAT pdata
pdata	SEGMENT
$pdata$PMC_BitwiseOr_X_L_Imp DD imagerel PMC_BitwiseOr_X_L_Imp
	DD	imagerel PMC_BitwiseOr_X_L_Imp+245
	DD	imagerel $unwind$PMC_BitwiseOr_X_L_Imp
pdata	ENDS
;	COMDAT xdata
xdata	SEGMENT
$unwind$PMC_BitwiseOr_X_L_Imp DD 081401H
	DD	096414H
	DD	085414H
	DD	073414H
	DD	070103214H
xdata	ENDS
;	COMDAT xdata
xdata	SEGMENT
$unwind$PMC_BitwiseOr_X_I_Imp DD 081401H
	DD	096414H
	DD	085414H
	DD	073414H
	DD	070103214H
xdata	ENDS
;	COMDAT xdata
xdata	SEGMENT
$unwind$BitwiseOr_X_X DD 081401H
	DD	047414H
	DD	03640fH
	DD	02540aH
	DD	013405H
xdata	ENDS
;	COMDAT xdata
xdata	SEGMENT
$unwind$BitwiseOr_X_2W DD 040a01H
	DD	02740aH
	DD	016405H
xdata	ENDS
;	COMDAT xdata
xdata	SEGMENT
$chain$1$BitwiseOr_X_1W DD 021H
	DD	imagerel BitwiseOr_X_1W
	DD	imagerel BitwiseOr_X_1W+20
	DD	imagerel $unwind$BitwiseOr_X_1W
xdata	ENDS
;	COMDAT xdata
xdata	SEGMENT
$chain$0$BitwiseOr_X_1W DD 020521H
	DD	027405H
	DD	imagerel BitwiseOr_X_1W
	DD	imagerel BitwiseOr_X_1W+20
	DD	imagerel $unwind$BitwiseOr_X_1W
xdata	ENDS
;	COMDAT xdata
xdata	SEGMENT
$unwind$BitwiseOr_X_1W DD 010201H
	DD	06002H
xdata	ENDS
;	COMDAT xdata
xdata	SEGMENT
$unwind$_COPY_MEMORY_UNIT DD 040a01H
	DD	02740aH
	DD	016405H
xdata	ENDS
;	COMDAT xdata
xdata	SEGMENT
$chain$3$PMC_BitwiseOr_X_X DD 021H
	DD	imagerel $LN23
	DD	imagerel $LN23+69
	DD	imagerel $unwind$PMC_BitwiseOr_X_X
xdata	ENDS
;	COMDAT xdata
xdata	SEGMENT
$chain$2$PMC_BitwiseOr_X_X DD 020021H
	DD	0b5400H
	DD	imagerel $LN23
	DD	imagerel $LN23+69
	DD	imagerel $unwind$PMC_BitwiseOr_X_X
xdata	ENDS
;	COMDAT xdata
xdata	SEGMENT
$chain$1$PMC_BitwiseOr_X_X DD 021H
	DD	imagerel $LN23
	DD	imagerel $LN23+69
	DD	imagerel $unwind$PMC_BitwiseOr_X_X
xdata	ENDS
;	COMDAT xdata
xdata	SEGMENT
$chain$0$PMC_BitwiseOr_X_X DD 020521H
	DD	0b5405H
	DD	imagerel $LN23
	DD	imagerel $LN23+69
	DD	imagerel $unwind$PMC_BitwiseOr_X_X
xdata	ENDS
;	COMDAT xdata
xdata	SEGMENT
$unwind$PMC_BitwiseOr_X_X DD 040801H
	DD	070045208H
	DD	030026003H
xdata	ENDS
;	COMDAT xdata
xdata	SEGMENT
$unwind$PMC_BitwiseOr_X_L DD 060f01H
	DD	07640fH
	DD	06340fH
	DD	0700b320fH
xdata	ENDS
;	COMDAT xdata
xdata	SEGMENT
$unwind$PMC_BitwiseOr_X_I DD 060f01H
	DD	07640fH
	DD	06340fH
	DD	0700b320fH
xdata	ENDS
;	COMDAT xdata
xdata	SEGMENT
$unwind$PMC_BitwiseOr_L_X DD 060f01H
	DD	07640fH
	DD	06340fH
	DD	0700b320fH
xdata	ENDS
;	COMDAT xdata
xdata	SEGMENT
$unwind$PMC_BitwiseOr_I_X DD 060f01H
	DD	07640fH
	DD	06340fH
	DD	0700b320fH
xdata	ENDS
; Function compile flags: /Ogtpy
; File z:\sources\lunor\repos\rougemeilland\palmtree.math.core.uint\palmtree.math.core.uint\pmc_bitwiseor.c
; File z:\sources\lunor\repos\rougemeilland\palmtree.math.core.uint\palmtree.math.core.uint\pmc_inline_func.h
; File z:\sources\lunor\repos\rougemeilland\palmtree.math.core.uint\palmtree.math.core.uint\pmc_bitwiseor.c
; File z:\sources\lunor\repos\rougemeilland\palmtree.math.core.uint\palmtree.math.core.uint\pmc_inline_func.h
; File z:\sources\lunor\repos\rougemeilland\palmtree.math.core.uint\palmtree.math.core.uint\pmc_bitwiseor.c
; File z:\sources\lunor\repos\rougemeilland\palmtree.math.core.uint\palmtree.math.core.uint\pmc_inline_func.h
; File z:\sources\lunor\repos\rougemeilland\palmtree.math.core.uint\palmtree.math.core.uint\pmc_bitwiseor.c
; File z:\sources\lunor\repos\rougemeilland\palmtree.math.core.uint\palmtree.math.core.uint\pmc_inline_func.h
; File z:\sources\lunor\repos\rougemeilland\palmtree.math.core.uint\palmtree.math.core.uint\pmc_bitwiseor.c
;	COMDAT PMC_BitwiseOr_X_L_Imp
_TEXT	SEGMENT
nw_light_check_code$1 = 48
u$ = 48
v$ = 56
w$ = 64
PMC_BitwiseOr_X_L_Imp PROC				; COMDAT

; 275  : {

	mov	QWORD PTR [rsp+16], rbx
	mov	QWORD PTR [rsp+24], rbp
	mov	QWORD PTR [rsp+32], rsi
	push	rdi
	sub	rsp, 32					; 00000020H

; 276  :     PMC_STATUS_CODE result;
; 277  :     if (u->IS_ZERO)

	test	BYTE PTR [rcx+40], 2
	mov	rbx, r8
	mov	rsi, rdx
	mov	rbp, rcx
	je	SHORT $LN2@PMC_Bitwis

; 278  :     {
; 279  :         // u が 0 である場合
; 280  :         if (v == 0)

	test	rdx, rdx
	jne	SHORT $LN4@PMC_Bitwis

; 281  :         {
; 282  :             // v が 0 である場合
; 283  :             *w = &number_zero;

	lea	rax, OFFSET FLAT:number_zero
	mov	QWORD PTR [r8], rax

; 284  :         }

	jmp	$LN11@PMC_Bitwis
$LN4@PMC_Bitwis:

; 285  :         else
; 286  :         {
; 287  :             // v が 0 でない場合
; 288  :             if ((result = From_L_Imp(v, w)) != PMC_STATUS_OK)

	mov	rdx, rbx
	mov	rcx, rsi
	call	From_L_Imp
	test	eax, eax
	je	$LN11@PMC_Bitwis

; 289  :                 return (result);

	jmp	$LN1@PMC_Bitwis
$LN2@PMC_Bitwis:

; 290  :         }
; 291  :     }
; 292  :     else if (v == 0)

	test	rsi, rsi
	jne	SHORT $LN7@PMC_Bitwis

; 293  :     {
; 294  :         // v が 0 である場合
; 295  :         if ((result = DuplicateNumber(u, w)) != PMC_STATUS_OK)

	mov	rdx, rbx
	call	DuplicateNumber
	test	eax, eax
	je	SHORT $LN11@PMC_Bitwis

; 296  :             return (result);

	jmp	SHORT $LN1@PMC_Bitwis
$LN7@PMC_Bitwis:
; File z:\sources\lunor\repos\rougemeilland\palmtree.math.core.uint\palmtree.math.core.uint\pmc_inline_func.h

; 644  :         _BitScanReverse64(&pos, x);

	bsr	rax, rsi

; 654  :         return (sizeof(x) * 8 - 1 - pos);

	mov	ecx, 63					; 0000003fH
; File z:\sources\lunor\repos\rougemeilland\palmtree.math.core.uint\palmtree.math.core.uint\pmc_bitwiseor.c

; 341  :             if ((result = AllocateNumber(w, w_bit_count, &nw_light_check_code)) != PMC_STATUS_OK)

	lea	r8, QWORD PTR nw_light_check_code$1[rsp]
; File z:\sources\lunor\repos\rougemeilland\palmtree.math.core.uint\palmtree.math.core.uint\pmc_inline_func.h

; 654  :         return (sizeof(x) * 8 - 1 - pos);

	sub	ecx, eax
; File z:\sources\lunor\repos\rougemeilland\palmtree.math.core.uint\palmtree.math.core.uint\pmc_bitwiseor.c

; 338  :             __UNIT_TYPE v_bit_count = sizeof(v) * 8 - _LZCNT_ALT_UNIT((__UNIT_TYPE)v);

	mov	edx, 64					; 00000040H
	movsxd	rax, ecx

; 341  :             if ((result = AllocateNumber(w, w_bit_count, &nw_light_check_code)) != PMC_STATUS_OK)

	mov	rcx, rbx
	sub	rdx, rax
; File z:\sources\lunor\repos\rougemeilland\palmtree.math.core.uint\palmtree.math.core.uint\pmc_inline_func.h

; 204  :         return (x >= y ? x : y);

	cmp	QWORD PTR [rbp+16], rdx
	cmovae	rdx, QWORD PTR [rbp+16]
; File z:\sources\lunor\repos\rougemeilland\palmtree.math.core.uint\palmtree.math.core.uint\pmc_bitwiseor.c

; 339  :             __UNIT_TYPE w_bit_count = _MAXIMUM_UNIT(u_bit_count, v_bit_count) + 1;

	inc	rdx

; 341  :             if ((result = AllocateNumber(w, w_bit_count, &nw_light_check_code)) != PMC_STATUS_OK)

	call	AllocateNumber
	test	eax, eax
	jne	SHORT $LN1@PMC_Bitwis

; 342  :                 return (result);
; 343  :             BitwiseOr_X_1W(u->BLOCK, u->UNIT_WORD_COUNT, (__UNIT_TYPE)v, (*w)->BLOCK);

	mov	rax, QWORD PTR [rbx]
	mov	rdx, QWORD PTR [rbp+56]
	mov	rcx, QWORD PTR [rbp+8]
	mov	rdi, QWORD PTR [rax+56]
	mov	rax, QWORD PTR [rdx]

; 41   :     if (u_count == 1)

	or	rax, rsi
	mov	QWORD PTR [rdi], rax
	cmp	rcx, 1
	je	SHORT $LN56@PMC_Bitwis

; 42   :         w[0] = u[0] | v;
; 43   :     else
; 44   :     {
; 45   :         w[0] = u[0] | v;
; 46   :         _COPY_MEMORY_UNIT(w + 1, u + 1, u_count - 1);

	dec	rcx
	lea	rsi, QWORD PTR [rdx+8]
	add	rdi, 8
; File z:\sources\lunor\repos\rougemeilland\palmtree.math.core.uint\palmtree.math.core.uint\pmc_inline_func.h

; 70   :         __movsq(d, s, count);

	rep movsq
$LN56@PMC_Bitwis:
; File z:\sources\lunor\repos\rougemeilland\palmtree.math.core.uint\palmtree.math.core.uint\pmc_bitwiseor.c

; 344  :             if ((result = CheckBlockLight((*w)->BLOCK, nw_light_check_code)) != PMC_STATUS_OK)

	mov	rcx, QWORD PTR [rbx]
	mov	rdx, QWORD PTR nw_light_check_code$1[rsp]
	mov	rcx, QWORD PTR [rcx+56]
	call	CheckBlockLight
	test	eax, eax
	jne	SHORT $LN1@PMC_Bitwis

; 345  :                 return (result);
; 346  :             CommitNumber(*w);

	mov	rcx, QWORD PTR [rbx]
	call	CommitNumber
$LN11@PMC_Bitwis:

; 347  :         }
; 348  :     }
; 349  :     return (PMC_STATUS_OK);

	xor	eax, eax
$LN1@PMC_Bitwis:

; 350  : }

	mov	rbx, QWORD PTR [rsp+56]
	mov	rbp, QWORD PTR [rsp+64]
	mov	rsi, QWORD PTR [rsp+72]
	add	rsp, 32					; 00000020H
	pop	rdi
	ret	0
PMC_BitwiseOr_X_L_Imp ENDP
_TEXT	ENDS
; Function compile flags: /Ogtpy
; File z:\sources\lunor\repos\rougemeilland\palmtree.math.core.uint\palmtree.math.core.uint\pmc_bitwiseor.c
; File z:\sources\lunor\repos\rougemeilland\palmtree.math.core.uint\palmtree.math.core.uint\pmc_inline_func.h
; File z:\sources\lunor\repos\rougemeilland\palmtree.math.core.uint\palmtree.math.core.uint\pmc_bitwiseor.c
; File z:\sources\lunor\repos\rougemeilland\palmtree.math.core.uint\palmtree.math.core.uint\pmc_inline_func.h
; File z:\sources\lunor\repos\rougemeilland\palmtree.math.core.uint\palmtree.math.core.uint\pmc_bitwiseor.c
; File z:\sources\lunor\repos\rougemeilland\palmtree.math.core.uint\palmtree.math.core.uint\pmc_inline_func.h
; File z:\sources\lunor\repos\rougemeilland\palmtree.math.core.uint\palmtree.math.core.uint\pmc_bitwiseor.c
; File z:\sources\lunor\repos\rougemeilland\palmtree.math.core.uint\palmtree.math.core.uint\pmc_inline_func.h
; File z:\sources\lunor\repos\rougemeilland\palmtree.math.core.uint\palmtree.math.core.uint\pmc_bitwiseor.c
;	COMDAT PMC_BitwiseOr_X_I_Imp
_TEXT	SEGMENT
nz_check_code$1 = 48
u$ = 48
v$ = 56
w$ = 64
PMC_BitwiseOr_X_I_Imp PROC				; COMDAT

; 188  : {

	mov	QWORD PTR [rsp+16], rbx
	mov	QWORD PTR [rsp+24], rbp
	mov	QWORD PTR [rsp+32], rsi
	push	rdi
	sub	rsp, 32					; 00000020H

; 189  :     PMC_STATUS_CODE result;
; 190  :     if (u->IS_ZERO)

	test	BYTE PTR [rcx+40], 2
	mov	rbx, r8
	mov	esi, edx
	mov	rbp, rcx
	je	SHORT $LN2@PMC_Bitwis

; 191  :     {
; 192  :         // u が 0 である場合
; 193  :         if (v == 0)

	test	edx, edx
	jne	SHORT $LN4@PMC_Bitwis

; 194  :         {
; 195  :             // v が 0 である場合
; 196  :             *w = &number_zero;

	lea	rax, OFFSET FLAT:number_zero
	mov	QWORD PTR [r8], rax

; 197  :         }

	jmp	$LN8@PMC_Bitwis
$LN4@PMC_Bitwis:

; 198  :         else
; 199  :         {
; 200  :             // v が 0 でない場合
; 201  :             if ((result = From_I_Imp(v, w)) != PMC_STATUS_OK)

	mov	rdx, rbx
	mov	ecx, esi
	call	From_I_Imp
	test	eax, eax
	je	$LN8@PMC_Bitwis

; 202  :                 return (result);

	jmp	$LN1@PMC_Bitwis
$LN2@PMC_Bitwis:

; 203  :         }
; 204  :     }
; 205  :     else if (v == 0)

	test	edx, edx
	jne	SHORT $LN7@PMC_Bitwis

; 206  :     {
; 207  :         // v が 0 である場合
; 208  :         if ((result = DuplicateNumber(u, w)) != PMC_STATUS_OK)

	mov	rdx, rbx
	call	DuplicateNumber
	test	eax, eax
	je	SHORT $LN8@PMC_Bitwis

; 209  :             return (result);

	jmp	SHORT $LN1@PMC_Bitwis
$LN7@PMC_Bitwis:
; File z:\sources\lunor\repos\rougemeilland\palmtree.math.core.uint\palmtree.math.core.uint\pmc_inline_func.h

; 601  :         _BitScanReverse(&pos, x);

	bsr	eax, esi

; 607  :         return (sizeof(x) * 8 - 1 - pos);

	mov	ecx, 31
; File z:\sources\lunor\repos\rougemeilland\palmtree.math.core.uint\palmtree.math.core.uint\pmc_bitwiseor.c

; 218  :         if ((result = AllocateNumber(w, w_bit_count, &nz_check_code)) != PMC_STATUS_OK)

	lea	r8, QWORD PTR nz_check_code$1[rsp]
; File z:\sources\lunor\repos\rougemeilland\palmtree.math.core.uint\palmtree.math.core.uint\pmc_inline_func.h

; 607  :         return (sizeof(x) * 8 - 1 - pos);

	sub	ecx, eax
; File z:\sources\lunor\repos\rougemeilland\palmtree.math.core.uint\palmtree.math.core.uint\pmc_bitwiseor.c

; 215  :         __UNIT_TYPE v_bit_count = sizeof(v) * 8 - _LZCNT_ALT_32(v);

	mov	edx, 32					; 00000020H
	movsxd	rax, ecx

; 218  :         if ((result = AllocateNumber(w, w_bit_count, &nz_check_code)) != PMC_STATUS_OK)

	mov	rcx, rbx
	sub	rdx, rax
; File z:\sources\lunor\repos\rougemeilland\palmtree.math.core.uint\palmtree.math.core.uint\pmc_inline_func.h

; 204  :         return (x >= y ? x : y);

	cmp	QWORD PTR [rbp+16], rdx
	cmovae	rdx, QWORD PTR [rbp+16]
; File z:\sources\lunor\repos\rougemeilland\palmtree.math.core.uint\palmtree.math.core.uint\pmc_bitwiseor.c

; 216  :         __UNIT_TYPE w_bit_count = _MAXIMUM_UNIT(u_bit_count, v_bit_count) + 1;

	inc	rdx

; 218  :         if ((result = AllocateNumber(w, w_bit_count, &nz_check_code)) != PMC_STATUS_OK)

	call	AllocateNumber
	test	eax, eax
	jne	SHORT $LN1@PMC_Bitwis

; 219  :             return (result);
; 220  :         BitwiseOr_X_1W(u->BLOCK, u->UNIT_WORD_COUNT, v, (*w)->BLOCK);

	mov	rax, QWORD PTR [rbx]
	mov	rdx, QWORD PTR [rbp+56]
	mov	rcx, QWORD PTR [rbp+8]
	mov	rdi, QWORD PTR [rax+56]
	mov	rax, rsi
	or	rax, QWORD PTR [rdx]
	mov	QWORD PTR [rdi], rax

; 41   :     if (u_count == 1)

	cmp	rcx, 1
	je	SHORT $LN22@PMC_Bitwis

; 42   :         w[0] = u[0] | v;
; 43   :     else
; 44   :     {
; 45   :         w[0] = u[0] | v;
; 46   :         _COPY_MEMORY_UNIT(w + 1, u + 1, u_count - 1);

	dec	rcx
	lea	rsi, QWORD PTR [rdx+8]
	add	rdi, 8
; File z:\sources\lunor\repos\rougemeilland\palmtree.math.core.uint\palmtree.math.core.uint\pmc_inline_func.h

; 70   :         __movsq(d, s, count);

	rep movsq
$LN22@PMC_Bitwis:
; File z:\sources\lunor\repos\rougemeilland\palmtree.math.core.uint\palmtree.math.core.uint\pmc_bitwiseor.c

; 221  :         if ((result = CheckBlockLight((*w)->BLOCK, nz_check_code)) != PMC_STATUS_OK)

	mov	rcx, QWORD PTR [rbx]
	mov	rdx, QWORD PTR nz_check_code$1[rsp]
	mov	rcx, QWORD PTR [rcx+56]
	call	CheckBlockLight
	test	eax, eax
	jne	SHORT $LN1@PMC_Bitwis

; 222  :             return (result);
; 223  :         CommitNumber(*w);

	mov	rcx, QWORD PTR [rbx]
	call	CommitNumber
$LN8@PMC_Bitwis:

; 224  :     }
; 225  :     return (PMC_STATUS_OK);

	xor	eax, eax
$LN1@PMC_Bitwis:

; 226  : }

	mov	rbx, QWORD PTR [rsp+56]
	mov	rbp, QWORD PTR [rsp+64]
	mov	rsi, QWORD PTR [rsp+72]
	add	rsp, 32					; 00000020H
	pop	rdi
	ret	0
PMC_BitwiseOr_X_I_Imp ENDP
_TEXT	ENDS
; Function compile flags: /Ogtpy
; File z:\sources\lunor\repos\rougemeilland\palmtree.math.core.uint\palmtree.math.core.uint\pmc_bitwiseor.c
; File z:\sources\lunor\repos\rougemeilland\palmtree.math.core.uint\palmtree.math.core.uint\pmc_inline_func.h
; File z:\sources\lunor\repos\rougemeilland\palmtree.math.core.uint\palmtree.math.core.uint\pmc_bitwiseor.c
; File z:\sources\lunor\repos\rougemeilland\palmtree.math.core.uint\palmtree.math.core.uint\pmc_inline_func.h
; File z:\sources\lunor\repos\rougemeilland\palmtree.math.core.uint\palmtree.math.core.uint\pmc_bitwiseor.c
;	COMDAT BitwiseOr_X_X
_TEXT	SEGMENT
u$ = 8
u_count$ = 16
v$ = 24
v_count$ = 32
w$ = 40
BitwiseOr_X_X PROC					; COMDAT

; 73   : {

	mov	QWORD PTR [rsp+8], rbx
	mov	QWORD PTR [rsp+16], rbp
	mov	QWORD PTR [rsp+24], rsi
	mov	QWORD PTR [rsp+32], rdi

; 74   :     __UNIT_TYPE or_count = v_count;
; 75   :     __UNIT_TYPE cp_count = u_count - v_count;
; 76   : 
; 77   :     __UNIT_TYPE count = or_count >> 5;
; 78   :     while (count > 0)

	mov	rdi, QWORD PTR w$[rsp]
	mov	rbp, rdx
	mov	r11, r9
	sub	rbp, r9
	shr	r11, 5
	mov	rbx, r9
	mov	rsi, rcx
	test	r11, r11
	je	$LN3@BitwiseOr_
	npad	11
$LL2@BitwiseOr_:

; 79   :     {
; 80   :         w[0] = u[0] | v[0];

	lea	rcx, QWORD PTR [r8+16]
	lea	rax, QWORD PTR [rcx+232]
	cmp	rdi, rax
	ja	SHORT $LN32@BitwiseOr_
	lea	rax, QWORD PTR [rdi+248]
	cmp	rax, r8
	jae	SHORT $LN72@BitwiseOr_
$LN32@BitwiseOr_:
	lea	rax, QWORD PTR [rsi+248]
	cmp	rdi, rax
	ja	SHORT $LN33@BitwiseOr_
	lea	rax, QWORD PTR [rdi+248]
	cmp	rax, rsi
	jb	SHORT $LN33@BitwiseOr_
$LN72@BitwiseOr_:
	mov	r9, rsi
	mov	r10, rdi
	sub	r9, r8
	mov	rax, r8
	sub	r10, r8
	mov	edx, 32					; 00000020H
	npad	8
$LL71@BitwiseOr_:
	mov	rcx, QWORD PTR [rax+r9]
	or	rcx, QWORD PTR [rax]
	mov	QWORD PTR [rax+r10], rcx
	lea	rax, QWORD PTR [rax+8]
	sub	rdx, 1
	jne	SHORT $LL71@BitwiseOr_
	jmp	SHORT $LN15@BitwiseOr_
$LN33@BitwiseOr_:
	mov	rax, rsi
	mov	rdx, rdi
	sub	rax, r8
	mov	r9d, 4
	sub	rdx, r8
	npad	7
$LL14@BitwiseOr_:
	movdqu	xmm0, XMMWORD PTR [rcx-16]
	movdqu	xmm1, XMMWORD PTR [rax+rcx-16]
	movdqu	xmm2, XMMWORD PTR [rax+rcx]
	lea	rcx, QWORD PTR [rcx+64]
	por	xmm1, xmm0
	movdqu	xmm0, XMMWORD PTR [rcx-64]
	movdqu	XMMWORD PTR [rdx+rcx-80], xmm1
	por	xmm2, xmm0
	movdqu	xmm0, XMMWORD PTR [rcx-48]
	movdqu	xmm1, XMMWORD PTR [rax+rcx-48]
	movdqu	XMMWORD PTR [rdx+rcx-64], xmm2
	por	xmm1, xmm0
	movdqu	xmm0, XMMWORD PTR [rcx-32]
	movdqu	xmm2, XMMWORD PTR [rax+rcx-32]
	movdqu	XMMWORD PTR [rdx+rcx-48], xmm1
	por	xmm2, xmm0
	movdqu	XMMWORD PTR [rdx+rcx-32], xmm2
	sub	r9, 1
	jne	SHORT $LL14@BitwiseOr_
$LN15@BitwiseOr_:

; 81   :         w[1] = u[1] | v[1];
; 82   :         w[2] = u[2] | v[2];
; 83   :         w[3] = u[3] | v[3];
; 84   :         w[4] = u[4] | v[4];
; 85   :         w[5] = u[5] | v[5];
; 86   :         w[6] = u[6] | v[6];
; 87   :         w[7] = u[7] | v[7];
; 88   :         w[8] = u[8] | v[8];
; 89   :         w[9] = u[9] | v[9];
; 90   :         w[10] = u[10] | v[10];
; 91   :         w[11] = u[11] | v[11];
; 92   :         w[12] = u[12] | v[12];
; 93   :         w[13] = u[13] | v[13];
; 94   :         w[14] = u[14] | v[14];
; 95   :         w[15] = u[15] | v[15];
; 96   :         w[16] = u[16] | v[16];
; 97   :         w[17] = u[17] | v[17];
; 98   :         w[18] = u[18] | v[18];
; 99   :         w[19] = u[19] | v[19];
; 100  :         w[20] = u[20] | v[20];
; 101  :         w[21] = u[21] | v[21];
; 102  :         w[22] = u[22] | v[22];
; 103  :         w[23] = u[23] | v[23];
; 104  :         w[24] = u[24] | v[24];
; 105  :         w[25] = u[25] | v[25];
; 106  :         w[26] = u[26] | v[26];
; 107  :         w[27] = u[27] | v[27];
; 108  :         w[28] = u[28] | v[28];
; 109  :         w[29] = u[29] | v[29];
; 110  :         w[30] = u[30] | v[30];
; 111  :         w[31] = u[31] | v[31];
; 112  :         u += 32;

	add	rsi, 256				; 00000100H

; 113  :         v += 32;

	add	r8, 256					; 00000100H

; 114  :         w += 32;

	add	rdi, 256				; 00000100H

; 115  :         --count;

	sub	r11, 1
	jne	$LL2@BitwiseOr_
$LN3@BitwiseOr_:

; 116  :     }
; 117  : 
; 118  :     if (or_count & 0x10)

	test	bl, 16
	je	$LN4@BitwiseOr_

; 119  :     {
; 120  :         w[0] = u[0] | v[0];

	lea	rax, QWORD PTR [r8+120]
	xor	r9d, r9d
	lea	rcx, QWORD PTR [rdi+120]
	mov	edx, 16
	cmp	rdi, rax
	ja	SHORT $LN36@BitwiseOr_
	cmp	rcx, r8
	jae	$LN35@BitwiseOr_
$LN36@BitwiseOr_:
	lea	rax, QWORD PTR [rsi+120]
	cmp	rdi, rax
	ja	SHORT $LN37@BitwiseOr_
	cmp	rcx, rsi
	jae	$LN35@BitwiseOr_
$LN37@BitwiseOr_:
	mov	rcx, rsi
	lea	rax, QWORD PTR [r8+16]
	sub	rcx, r8
	mov	r9, rdi
	sub	r9, r8
	mov	r10d, 2
	npad	5
$LL16@BitwiseOr_:
	movdqu	xmm0, XMMWORD PTR [rax-16]
	movdqu	xmm1, XMMWORD PTR [rax+rcx-16]
	movdqu	xmm2, XMMWORD PTR [rax+rcx]
	lea	rax, QWORD PTR [rax+64]
	por	xmm1, xmm0
	movdqu	xmm0, XMMWORD PTR [rax-64]
	movdqu	XMMWORD PTR [rax+r9-80], xmm1
	por	xmm2, xmm0
	movdqu	xmm0, XMMWORD PTR [rax-48]
	movdqu	xmm1, XMMWORD PTR [rax+rcx-48]
	movdqu	XMMWORD PTR [rax+r9-64], xmm2
	por	xmm1, xmm0
	movdqu	xmm0, XMMWORD PTR [rax-32]
	movdqu	xmm2, XMMWORD PTR [rax+rcx-32]
	movdqu	XMMWORD PTR [rax+r9-48], xmm1
	por	xmm2, xmm0
	movdqu	XMMWORD PTR [rax+r9-32], xmm2
	sub	r10, 1
	jne	SHORT $LL16@BitwiseOr_
	mov	r9, rdx
$LN35@BitwiseOr_:
	cmp	r9, rdx
	jae	SHORT $LN17@BitwiseOr_
	mov	r10, rsi
	lea	rcx, QWORD PTR [r8+r9*8]
	mov	r11, rdi
	sub	r10, r8
	sub	r11, r8
	sub	rdx, r9
	npad	4
$LL34@BitwiseOr_:
	mov	rax, QWORD PTR [rcx+r10]
	or	rax, QWORD PTR [rcx]
	mov	QWORD PTR [rcx+r11], rax
	lea	rcx, QWORD PTR [rcx+8]
	sub	rdx, 1
	jne	SHORT $LL34@BitwiseOr_
$LN17@BitwiseOr_:

; 121  :         w[1] = u[1] | v[1];
; 122  :         w[2] = u[2] | v[2];
; 123  :         w[3] = u[3] | v[3];
; 124  :         w[4] = u[4] | v[4];
; 125  :         w[5] = u[5] | v[5];
; 126  :         w[6] = u[6] | v[6];
; 127  :         w[7] = u[7] | v[7];
; 128  :         w[8] = u[8] | v[8];
; 129  :         w[9] = u[9] | v[9];
; 130  :         w[10] = u[10] | v[10];
; 131  :         w[11] = u[11] | v[11];
; 132  :         w[12] = u[12] | v[12];
; 133  :         w[13] = u[13] | v[13];
; 134  :         w[14] = u[14] | v[14];
; 135  :         w[15] = u[15] | v[15];
; 136  :         u += 16;

	sub	rsi, -128				; ffffffffffffff80H

; 137  :         v += 16;

	sub	r8, -128				; ffffffffffffff80H

; 138  :         w += 16;

	sub	rdi, -128				; ffffffffffffff80H
$LN4@BitwiseOr_:

; 139  :     }
; 140  : 
; 141  :     if (or_count & 0x8)

	test	bl, 8
	je	SHORT $LN5@BitwiseOr_

; 142  :     {
; 143  :         w[0] = u[0] | v[0];

	mov	rax, QWORD PTR [rsi]
	or	rax, QWORD PTR [r8]
	mov	QWORD PTR [rdi], rax
	mov	rax, QWORD PTR [rsi+8]
	or	rax, QWORD PTR [r8+8]
	mov	QWORD PTR [rdi+8], rax
	mov	rax, QWORD PTR [rsi+16]
	or	rax, QWORD PTR [r8+16]
	mov	QWORD PTR [rdi+16], rax
	mov	rax, QWORD PTR [rsi+24]
	or	rax, QWORD PTR [r8+24]
	mov	QWORD PTR [rdi+24], rax
	mov	rax, QWORD PTR [rsi+32]
	or	rax, QWORD PTR [r8+32]
	mov	QWORD PTR [rdi+32], rax
	mov	rax, QWORD PTR [rsi+40]
	or	rax, QWORD PTR [r8+40]
	mov	QWORD PTR [rdi+40], rax
	mov	rax, QWORD PTR [rsi+48]
	or	rax, QWORD PTR [r8+48]
	mov	QWORD PTR [rdi+48], rax
	mov	rax, QWORD PTR [rsi+56]

; 144  :         w[1] = u[1] | v[1];
; 145  :         w[2] = u[2] | v[2];
; 146  :         w[3] = u[3] | v[3];
; 147  :         w[4] = u[4] | v[4];
; 148  :         w[5] = u[5] | v[5];
; 149  :         w[6] = u[6] | v[6];
; 150  :         w[7] = u[7] | v[7];
; 151  :         u += 8;

	add	rsi, 64					; 00000040H
	or	rax, QWORD PTR [r8+56]

; 152  :         v += 8;

	add	r8, 64					; 00000040H
	mov	QWORD PTR [rdi+56], rax

; 153  :         w += 8;

	add	rdi, 64					; 00000040H
$LN5@BitwiseOr_:

; 154  :     }
; 155  : 
; 156  :     if (or_count & 0x4)

	test	bl, 4
	je	SHORT $LN6@BitwiseOr_

; 157  :     {
; 158  :         w[0] = u[0] | v[0];

	mov	rax, QWORD PTR [rsi]
	or	rax, QWORD PTR [r8]
	mov	QWORD PTR [rdi], rax
	mov	rax, QWORD PTR [rsi+8]
	or	rax, QWORD PTR [r8+8]
	mov	QWORD PTR [rdi+8], rax
	mov	rax, QWORD PTR [rsi+16]
	or	rax, QWORD PTR [r8+16]
	mov	QWORD PTR [rdi+16], rax
	mov	rax, QWORD PTR [rsi+24]

; 159  :         w[1] = u[1] | v[1];
; 160  :         w[2] = u[2] | v[2];
; 161  :         w[3] = u[3] | v[3];
; 162  :         u += 4;

	add	rsi, 32					; 00000020H
	or	rax, QWORD PTR [r8+24]

; 163  :         v += 4;

	add	r8, 32					; 00000020H
	mov	QWORD PTR [rdi+24], rax

; 164  :         w += 4;

	add	rdi, 32					; 00000020H
$LN6@BitwiseOr_:

; 165  :     }
; 166  : 
; 167  :     if (or_count & 0x2)

	test	bl, 2
	je	SHORT $LN7@BitwiseOr_

; 168  :     {
; 169  :         w[0] = u[0] | v[0];

	mov	rax, QWORD PTR [rsi]
	or	rax, QWORD PTR [r8]
	mov	QWORD PTR [rdi], rax
	mov	rax, QWORD PTR [rsi+8]

; 170  :         w[1] = u[1] | v[1];
; 171  :         u += 2;

	add	rsi, 16
	or	rax, QWORD PTR [r8+8]

; 172  :         v += 2;

	add	r8, 16
	mov	QWORD PTR [rdi+8], rax

; 173  :         w += 2;

	add	rdi, 16
$LN7@BitwiseOr_:

; 174  :     }
; 175  : 
; 176  :     if (or_count & 0x1)

	test	bl, 1
	je	SHORT $LN8@BitwiseOr_

; 177  :     {
; 178  :         w[0] = u[0] | v[0];

	mov	rax, QWORD PTR [rsi]

; 179  :         u += 1;

	add	rsi, 8
	or	rax, QWORD PTR [r8]
	mov	QWORD PTR [rdi], rax

; 180  :         v += 1;
; 181  :         w += 1;

	add	rdi, 8
$LN8@BitwiseOr_:

; 185  : }

	mov	rbx, QWORD PTR [rsp+8]
; File z:\sources\lunor\repos\rougemeilland\palmtree.math.core.uint\palmtree.math.core.uint\pmc_inline_func.h

; 70   :         __movsq(d, s, count);

	mov	rcx, rbp
; File z:\sources\lunor\repos\rougemeilland\palmtree.math.core.uint\palmtree.math.core.uint\pmc_bitwiseor.c

; 185  : }

	mov	rbp, QWORD PTR [rsp+16]
; File z:\sources\lunor\repos\rougemeilland\palmtree.math.core.uint\palmtree.math.core.uint\pmc_inline_func.h

; 70   :         __movsq(d, s, count);

	rep movsq
; File z:\sources\lunor\repos\rougemeilland\palmtree.math.core.uint\palmtree.math.core.uint\pmc_bitwiseor.c

; 185  : }

	mov	rsi, QWORD PTR [rsp+24]
	mov	rdi, QWORD PTR [rsp+32]
	ret	0
BitwiseOr_X_X ENDP
_TEXT	ENDS
; Function compile flags: /Ogtpy
; File z:\sources\lunor\repos\rougemeilland\palmtree.math.core.uint\palmtree.math.core.uint\pmc_bitwiseor.c
; File z:\sources\lunor\repos\rougemeilland\palmtree.math.core.uint\palmtree.math.core.uint\pmc_inline_func.h
; File z:\sources\lunor\repos\rougemeilland\palmtree.math.core.uint\palmtree.math.core.uint\pmc_bitwiseor.c
;	COMDAT BitwiseOr_X_2W
_TEXT	SEGMENT
u$ = 8
u_count$ = 16
v_hi$ = 24
v_lo$ = 32
w$ = 40
BitwiseOr_X_2W PROC					; COMDAT

; 52   : {

	mov	QWORD PTR [rsp+8], rsi
	mov	QWORD PTR [rsp+16], rdi
	mov	rax, QWORD PTR [rcx]
	mov	rsi, rcx
	mov	rdi, QWORD PTR w$[rsp]
	or	rax, r9

; 53   :     if (u_count == 1)

	mov	QWORD PTR [rdi], rax
	cmp	rdx, 1
	jne	SHORT $LN2@BitwiseOr_

; 54   :     {
; 55   :         w[0] = u[0] | v_lo;
; 56   :         w[1] = v_hi;

	mov	QWORD PTR [rdi+8], r8

; 69   : }

	mov	rsi, QWORD PTR [rsp+8]
	mov	rdi, QWORD PTR [rsp+16]
	ret	0
$LN2@BitwiseOr_:

; 57   :     }
; 58   :     else if (u_count == 2)

	mov	rax, QWORD PTR [rcx+8]
	or	rax, r8
	mov	QWORD PTR [rdi+8], rax
	cmp	rdx, 2
	je	SHORT $LN7@BitwiseOr_

; 59   :     {
; 60   :         w[0] = u[0] | v_lo;
; 61   :         w[1] = u[1] | v_hi;
; 62   :     }
; 63   :     else
; 64   :     {
; 65   :         w[0] = u[0] | v_lo;
; 66   :         w[1] = u[1] | v_hi;
; 67   :         _COPY_MEMORY_UNIT(w + 2, u + 2, u_count - 2);

	add	rsi, 16
	lea	rcx, QWORD PTR [rdx-2]
	add	rdi, 16
; File z:\sources\lunor\repos\rougemeilland\palmtree.math.core.uint\palmtree.math.core.uint\pmc_inline_func.h

; 70   :         __movsq(d, s, count);

	rep movsq
$LN7@BitwiseOr_:
; File z:\sources\lunor\repos\rougemeilland\palmtree.math.core.uint\palmtree.math.core.uint\pmc_bitwiseor.c

; 69   : }

	mov	rsi, QWORD PTR [rsp+8]
	mov	rdi, QWORD PTR [rsp+16]
	ret	0
BitwiseOr_X_2W ENDP
_TEXT	ENDS
; Function compile flags: /Ogtpy
; File z:\sources\lunor\repos\rougemeilland\palmtree.math.core.uint\palmtree.math.core.uint\pmc_bitwiseor.c
; File z:\sources\lunor\repos\rougemeilland\palmtree.math.core.uint\palmtree.math.core.uint\pmc_inline_func.h
; File z:\sources\lunor\repos\rougemeilland\palmtree.math.core.uint\palmtree.math.core.uint\pmc_bitwiseor.c
;	COMDAT BitwiseOr_X_1W
_TEXT	SEGMENT
u$ = 16
u_count$ = 24
v$ = 32
w$ = 40
BitwiseOr_X_1W PROC					; COMDAT

; 40   : {

	push	rsi
	mov	rax, QWORD PTR [rcx]
	mov	rsi, rcx
	or	rax, r8
	mov	QWORD PTR [r9], rax

; 41   :     if (u_count == 1)

	cmp	rdx, 1
	je	SHORT $LN5@BitwiseOr_

; 42   :         w[0] = u[0] | v;
; 43   :     else
; 44   :     {
; 45   :         w[0] = u[0] | v;
; 46   :         _COPY_MEMORY_UNIT(w + 1, u + 1, u_count - 1);

	mov	QWORD PTR [rsp+16], rdi
	lea	rcx, QWORD PTR [rdx-1]
	lea	rdi, QWORD PTR [r9+8]
	add	rsi, 8
; File z:\sources\lunor\repos\rougemeilland\palmtree.math.core.uint\palmtree.math.core.uint\pmc_inline_func.h

; 70   :         __movsq(d, s, count);

	rep movsq
	mov	rdi, QWORD PTR [rsp+16]
$LN5@BitwiseOr_:
; File z:\sources\lunor\repos\rougemeilland\palmtree.math.core.uint\palmtree.math.core.uint\pmc_bitwiseor.c

; 48   : }

	pop	rsi
	ret	0
BitwiseOr_X_1W ENDP
_TEXT	ENDS
; Function compile flags: /Ogtpy
; File z:\sources\lunor\repos\rougemeilland\palmtree.math.core.uint\palmtree.math.core.uint\pmc_inline_func.h
;	COMDAT _LZCNT_ALT_UNIT
_TEXT	SEGMENT
x$ = 8
_LZCNT_ALT_UNIT PROC					; COMDAT

; 630  :         if (x == 0)

	test	rcx, rcx
	jne	SHORT $LN2@LZCNT_ALT_

; 631  :             return (sizeof(x) * 8);

	mov	eax, 64					; 00000040H

; 655  :     }

	ret	0
$LN2@LZCNT_ALT_:

; 632  : #ifdef _M_IX86
; 633  :         _UINT32_T pos;
; 634  : #ifdef _MSC_VER
; 635  :         _BitScanReverse(&pos, x);
; 636  : #elif defined(__GNUC__)
; 637  :         __asm__("bsrl %1, %0" : "=r"(pos) : "rm"(x));
; 638  : #else
; 639  : #error unknown compiler
; 640  : #endif
; 641  : #elif defined(_M_X64)
; 642  : #ifdef _MSC_VER
; 643  :         _UINT32_T pos;
; 644  :         _BitScanReverse64(&pos, x);

	bsr	rcx, rcx

; 645  : #elif defined(__GNUC__)
; 646  :         _UINT64_T pos;
; 647  :         __asm__("bsrq %1, %0" : "=r"(pos) : "rm"(x));
; 648  : #else
; 649  : #error unknown compiler
; 650  : #endif
; 651  : #else
; 652  : #error unknown platform
; 653  : #endif
; 654  :         return (sizeof(x) * 8 - 1 - pos);

	mov	eax, 63					; 0000003fH
	sub	eax, ecx

; 655  :     }

	ret	0
_LZCNT_ALT_UNIT ENDP
_TEXT	ENDS
; Function compile flags: /Ogtpy
; File z:\sources\lunor\repos\rougemeilland\palmtree.math.core.uint\palmtree.math.core.uint\pmc_inline_func.h
;	COMDAT _LZCNT_ALT_32
_TEXT	SEGMENT
x$ = 8
_LZCNT_ALT_32 PROC					; COMDAT

; 597  :         if (x == 0)

	test	ecx, ecx
	jne	SHORT $LN2@LZCNT_ALT_

; 598  :             return (sizeof(x) * 8);

	mov	eax, 32					; 00000020H

; 608  :     }

	ret	0
$LN2@LZCNT_ALT_:

; 599  :         _UINT32_T pos;
; 600  : #ifdef _MSC_VER
; 601  :         _BitScanReverse(&pos, x);

	bsr	ecx, ecx

; 602  : #elif defined(__GNUC__)
; 603  :         __asm__("bsrl %1, %0" : "=r"(pos) : "rm"(x));
; 604  : #else
; 605  : #error unknown compiler
; 606  : #endif
; 607  :         return (sizeof(x) * 8 - 1 - pos);

	mov	eax, 31
	sub	eax, ecx

; 608  :     }

	ret	0
_LZCNT_ALT_32 ENDP
_TEXT	ENDS
; Function compile flags: /Ogtpy
; File z:\sources\lunor\repos\rougemeilland\palmtree.math.core.uint\palmtree.math.core.uint\pmc_inline_func.h
;	COMDAT _MAXIMUM_UNIT
_TEXT	SEGMENT
x$ = 8
y$ = 16
_MAXIMUM_UNIT PROC					; COMDAT

; 204  :         return (x >= y ? x : y);

	cmp	rcx, rdx
	cmovae	rdx, rcx
	mov	rax, rdx

; 205  :     }

	ret	0
_MAXIMUM_UNIT ENDP
_TEXT	ENDS
; Function compile flags: /Ogtpy
; File z:\sources\lunor\repos\rougemeilland\palmtree.math.core.uint\palmtree.math.core.uint\pmc_inline_func.h
;	COMDAT _FROMDWORDTOWORD
_TEXT	SEGMENT
value$ = 8
result_high$ = 16
_FROMDWORDTOWORD PROC					; COMDAT

; 183  :         *result_high = (_UINT32_T)(value >> 32);

	mov	rax, rcx
	shr	rax, 32					; 00000020H
	mov	DWORD PTR [rdx], eax

; 184  :         return ((_UINT32_T)value);

	mov	eax, ecx

; 185  :     }

	ret	0
_FROMDWORDTOWORD ENDP
_TEXT	ENDS
; Function compile flags: /Ogtpy
; File z:\sources\lunor\repos\rougemeilland\palmtree.math.core.uint\palmtree.math.core.uint\pmc_inline_func.h
;	COMDAT _COPY_MEMORY_UNIT
_TEXT	SEGMENT
d$ = 8
s$ = 16
count$ = 24
_COPY_MEMORY_UNIT PROC					; COMDAT

; 66   :     {

	mov	QWORD PTR [rsp+8], rsi
	mov	QWORD PTR [rsp+16], rdi

; 67   : #ifdef _M_IX86
; 68   :         __movsd((unsigned long *)d, (unsigned long *)s, (unsigned long)count);
; 69   : #elif defined(_M_X64)
; 70   :         __movsq(d, s, count);

	mov	rdi, rcx
	mov	rsi, rdx
	mov	rcx, r8
	rep movsq

; 71   : #else
; 72   : #error unknown platform
; 73   : #endif
; 74   :     }

	mov	rsi, QWORD PTR [rsp+8]
	mov	rdi, QWORD PTR [rsp+16]
	ret	0
_COPY_MEMORY_UNIT ENDP
_TEXT	ENDS
; Function compile flags: /Ogtpy
; File z:\sources\lunor\repos\rougemeilland\palmtree.math.core.uint\palmtree.math.core.uint\pmc_bitwiseor.c
; File z:\sources\lunor\repos\rougemeilland\palmtree.math.core.uint\palmtree.math.core.uint\pmc_inline_func.h
; File z:\sources\lunor\repos\rougemeilland\palmtree.math.core.uint\palmtree.math.core.uint\pmc_bitwiseor.c
;	COMDAT PMC_BitwiseOr_X_X
_TEXT	SEGMENT
nw$ = 80
u$ = 80
v$ = 88
w$ = 96
nw_light_check_code$1 = 104
PMC_BitwiseOr_X_X PROC					; COMDAT

; 399  : {

$LN23:
	push	rbx
	push	rsi
	push	rdi
	sub	rsp, 48					; 00000030H
	mov	rsi, r8
	mov	rbx, rdx
	mov	rdi, rcx

; 400  :     if (u == NULL)

	test	rcx, rcx
	je	$LN19@PMC_Bitwis

; 401  :         return (PMC_STATUS_ARGUMENT_ERROR);
; 402  :     if (v == NULL)

	test	rdx, rdx
	je	$LN19@PMC_Bitwis

; 403  :         return (PMC_STATUS_ARGUMENT_ERROR);
; 404  :     if (w == NULL)

	test	r8, r8
	je	$LN19@PMC_Bitwis

; 406  :     NUMBER_HEADER* nu = (NUMBER_HEADER*)u;
; 407  :     NUMBER_HEADER* nv = (NUMBER_HEADER*)v;
; 408  :     PMC_STATUS_CODE result;
; 409  :     if ((result = CheckNumber(nu)) != PMC_STATUS_OK)

	call	CheckNumber
	test	eax, eax
	jne	SHORT $LN1@PMC_Bitwis

; 410  :         return (result);
; 411  :     if ((result = CheckNumber(nv)) != PMC_STATUS_OK)

	mov	rcx, rbx
	call	CheckNumber
	test	eax, eax
	jne	SHORT $LN1@PMC_Bitwis

; 412  :         return (result);
; 413  :     NUMBER_HEADER* nw;
; 414  :     if (nu->IS_ZERO)

	test	BYTE PTR [rdi+40], 2
	mov	QWORD PTR [rsp+88], rbp
	je	SHORT $LN7@PMC_Bitwis

; 415  :     {
; 416  :         if ((result = DuplicateNumber(nv, &nw)) != PMC_STATUS_OK)

	lea	rdx, QWORD PTR nw$[rsp]
	mov	rcx, rbx
$LN21@PMC_Bitwis:
	call	DuplicateNumber
	test	eax, eax
	je	$LN11@PMC_Bitwis
$LN20@PMC_Bitwis:
	mov	rbp, QWORD PTR [rsp+88]
$LN1@PMC_Bitwis:

; 449  : }

	add	rsp, 48					; 00000030H
	pop	rdi
	pop	rsi
	pop	rbx
	ret	0
$LN7@PMC_Bitwis:

; 417  :             return (result);
; 418  :     }
; 419  :     else if (nv->IS_ZERO)

	test	BYTE PTR [rbx+40], 2
	je	SHORT $LN10@PMC_Bitwis

; 420  :     {
; 421  :         if ((result = DuplicateNumber(nu, &nw)) != PMC_STATUS_OK)

	lea	rdx, QWORD PTR nw$[rsp]
	mov	rcx, rdi

; 422  :             return (result);

	jmp	SHORT $LN21@PMC_Bitwis
$LN10@PMC_Bitwis:

; 423  :     }
; 424  :     else
; 425  :     {
; 426  :         if (nu->UNIT_WORD_COUNT < nv->UNIT_WORD_COUNT)

	mov	rcx, QWORD PTR [rdi+8]

; 436  :         if ((result = AllocateNumber(&nw, w_bit_count, &nw_light_check_code)) != PMC_STATUS_OK)

	lea	r8, QWORD PTR nw_light_check_code$1[rsp]
	cmp	rcx, QWORD PTR [rbx+8]
	mov	rbp, rdi
	lea	rcx, QWORD PTR nw$[rsp]
	cmovae	rbp, rbx
	cmovae	rbx, rdi
	mov	rdx, QWORD PTR [rbp+16]
; File z:\sources\lunor\repos\rougemeilland\palmtree.math.core.uint\palmtree.math.core.uint\pmc_inline_func.h

; 204  :         return (x >= y ? x : y);

	cmp	QWORD PTR [rbx+16], rdx
	cmovae	rdx, QWORD PTR [rbx+16]
; File z:\sources\lunor\repos\rougemeilland\palmtree.math.core.uint\palmtree.math.core.uint\pmc_bitwiseor.c

; 436  :         if ((result = AllocateNumber(&nw, w_bit_count, &nw_light_check_code)) != PMC_STATUS_OK)

	call	AllocateNumber
	test	eax, eax
	jne	SHORT $LN20@PMC_Bitwis

; 437  :             return (result);
; 438  :         BitwiseOr_X_X(nu->BLOCK, nu->UNIT_WORD_COUNT, nv->BLOCK, nv->UNIT_WORD_COUNT, nw->BLOCK);

	mov	rax, QWORD PTR nw$[rsp]
	mov	r9, QWORD PTR [rbp+8]
	mov	r8, QWORD PTR [rbp+56]
	mov	rdx, QWORD PTR [rbx+8]
	mov	rcx, QWORD PTR [rax+56]
	mov	QWORD PTR [rsp+32], rcx
	mov	rcx, QWORD PTR [rbx+56]
	call	BitwiseOr_X_X

; 439  :         if ((result = CheckBlockLight(nw->BLOCK, nw_light_check_code)) != PMC_STATUS_OK)

	mov	rcx, QWORD PTR nw$[rsp]
	mov	rdx, QWORD PTR nw_light_check_code$1[rsp]
	mov	rcx, QWORD PTR [rcx+56]
	call	CheckBlockLight
	test	eax, eax
	jne	$LN20@PMC_Bitwis

; 440  :             return (result);
; 441  :         CommitNumber(nw);

	mov	rcx, QWORD PTR nw$[rsp]
	call	CommitNumber
$LN11@PMC_Bitwis:

; 442  :     }
; 443  :     *w = nw;

	mov	rax, QWORD PTR nw$[rsp]
	mov	rbp, QWORD PTR [rsp+88]
	mov	QWORD PTR [rsi], rax

; 444  : #ifdef _DEBUG
; 445  :     if ((result = CheckNumber(*w)) != PMC_STATUS_OK)
; 446  :         return (result);
; 447  : #endif
; 448  :     return (PMC_STATUS_OK);

	xor	eax, eax

; 449  : }

	add	rsp, 48					; 00000030H
	pop	rdi
	pop	rsi
	pop	rbx
	ret	0
$LN19@PMC_Bitwis:

; 405  :         return (PMC_STATUS_ARGUMENT_ERROR);

	mov	eax, -1

; 449  : }

	add	rsp, 48					; 00000030H
	pop	rdi
	pop	rsi
	pop	rbx
	ret	0
PMC_BitwiseOr_X_X ENDP
_TEXT	ENDS
; Function compile flags: /Ogtpy
; File z:\sources\lunor\repos\rougemeilland\palmtree.math.core.uint\palmtree.math.core.uint\pmc_bitwiseor.c
;	COMDAT PMC_BitwiseOr_X_L
_TEXT	SEGMENT
u$ = 48
v$ = 56
w$ = 64
PMC_BitwiseOr_X_L PROC					; COMDAT

; 376  : {

$LN10:
	mov	QWORD PTR [rsp+8], rbx
	mov	QWORD PTR [rsp+16], rsi
	push	rdi
	sub	rsp, 32					; 00000020H
	mov	rdi, r8
	mov	rsi, rdx
	mov	rbx, rcx

; 377  :     if (__UNIT_TYPE_BIT_COUNT * 2 < sizeof(v) * 8)
; 378  :     {
; 379  :         // _UINT64_T が 2 ワードで表現しきれない処理系には対応しない
; 380  :         return (PMC_STATUS_INTERNAL_ERROR);
; 381  :     }
; 382  :     if (u == NULL)

	test	rcx, rcx
	je	SHORT $LN8@PMC_Bitwis

; 383  :         return (PMC_STATUS_ARGUMENT_ERROR);
; 384  :     if (w == NULL)

	test	r8, r8
	je	SHORT $LN8@PMC_Bitwis

; 386  :     PMC_STATUS_CODE result;
; 387  :     if ((result = CheckNumber((NUMBER_HEADER*)u)) != PMC_STATUS_OK)

	call	CheckNumber
	test	eax, eax
	jne	SHORT $LN6@PMC_Bitwis

; 388  :         return (result);
; 389  :     if ((result = PMC_BitwiseOr_X_L_Imp((NUMBER_HEADER*)u, v, (NUMBER_HEADER**)w)) != PMC_STATUS_OK)

	mov	r8, rdi
	mov	rdx, rsi
	mov	rcx, rbx

; 390  :         return (result);
; 391  : #ifdef _DEBUG
; 392  :     if ((result = CheckNumber(*w)) != PMC_STATUS_OK)
; 393  :         return (result);
; 394  : #endif
; 395  :     return (PMC_STATUS_OK);
; 396  : }

	mov	rbx, QWORD PTR [rsp+48]
	mov	rsi, QWORD PTR [rsp+56]
	add	rsp, 32					; 00000020H
	pop	rdi

; 388  :         return (result);
; 389  :     if ((result = PMC_BitwiseOr_X_L_Imp((NUMBER_HEADER*)u, v, (NUMBER_HEADER**)w)) != PMC_STATUS_OK)

	jmp	PMC_BitwiseOr_X_L_Imp
$LN8@PMC_Bitwis:

; 385  :         return (PMC_STATUS_ARGUMENT_ERROR);

	mov	eax, -1
$LN6@PMC_Bitwis:

; 390  :         return (result);
; 391  : #ifdef _DEBUG
; 392  :     if ((result = CheckNumber(*w)) != PMC_STATUS_OK)
; 393  :         return (result);
; 394  : #endif
; 395  :     return (PMC_STATUS_OK);
; 396  : }

	mov	rbx, QWORD PTR [rsp+48]
	mov	rsi, QWORD PTR [rsp+56]
	add	rsp, 32					; 00000020H
	pop	rdi
	ret	0
PMC_BitwiseOr_X_L ENDP
_TEXT	ENDS
; Function compile flags: /Ogtpy
; File z:\sources\lunor\repos\rougemeilland\palmtree.math.core.uint\palmtree.math.core.uint\pmc_bitwiseor.c
;	COMDAT PMC_BitwiseOr_X_I
_TEXT	SEGMENT
u$ = 48
v$ = 56
w$ = 64
PMC_BitwiseOr_X_I PROC					; COMDAT

; 252  : {

$LN10:
	mov	QWORD PTR [rsp+8], rbx
	mov	QWORD PTR [rsp+16], rsi
	push	rdi
	sub	rsp, 32					; 00000020H
	mov	rdi, r8
	mov	esi, edx
	mov	rbx, rcx

; 253  :     if (__UNIT_TYPE_BIT_COUNT < sizeof(v) * 8)
; 254  :     {
; 255  :         // _UINT32_T が 1 ワードで表現しきれない処理系には対応しない
; 256  :         return (PMC_STATUS_INTERNAL_ERROR);
; 257  :     }
; 258  :     if (u == NULL)

	test	rcx, rcx
	je	SHORT $LN8@PMC_Bitwis

; 259  :         return (PMC_STATUS_ARGUMENT_ERROR);
; 260  :     if (w == NULL)

	test	r8, r8
	je	SHORT $LN8@PMC_Bitwis

; 262  :     PMC_STATUS_CODE result;
; 263  :     if ((result = CheckNumber((NUMBER_HEADER*)u)) != PMC_STATUS_OK)

	call	CheckNumber
	test	eax, eax
	jne	SHORT $LN6@PMC_Bitwis

; 264  :         return (result);
; 265  :     if ((result = PMC_BitwiseOr_X_I_Imp((NUMBER_HEADER*)u, v, (NUMBER_HEADER**)w)) != PMC_STATUS_OK)

	mov	r8, rdi
	mov	edx, esi
	mov	rcx, rbx

; 266  :         return (result);
; 267  : #ifdef _DEBUG
; 268  :     if ((result = CheckNumber(*w)) != PMC_STATUS_OK)
; 269  :         return (result);
; 270  : #endif
; 271  :     return (PMC_STATUS_OK);
; 272  : }

	mov	rbx, QWORD PTR [rsp+48]
	mov	rsi, QWORD PTR [rsp+56]
	add	rsp, 32					; 00000020H
	pop	rdi

; 264  :         return (result);
; 265  :     if ((result = PMC_BitwiseOr_X_I_Imp((NUMBER_HEADER*)u, v, (NUMBER_HEADER**)w)) != PMC_STATUS_OK)

	jmp	PMC_BitwiseOr_X_I_Imp
$LN8@PMC_Bitwis:

; 261  :         return (PMC_STATUS_ARGUMENT_ERROR);

	mov	eax, -1
$LN6@PMC_Bitwis:

; 266  :         return (result);
; 267  : #ifdef _DEBUG
; 268  :     if ((result = CheckNumber(*w)) != PMC_STATUS_OK)
; 269  :         return (result);
; 270  : #endif
; 271  :     return (PMC_STATUS_OK);
; 272  : }

	mov	rbx, QWORD PTR [rsp+48]
	mov	rsi, QWORD PTR [rsp+56]
	add	rsp, 32					; 00000020H
	pop	rdi
	ret	0
PMC_BitwiseOr_X_I ENDP
_TEXT	ENDS
; Function compile flags: /Ogtpy
; File z:\sources\lunor\repos\rougemeilland\palmtree.math.core.uint\palmtree.math.core.uint\pmc_bitwiseor.c
;	COMDAT PMC_BitwiseOr_L_X
_TEXT	SEGMENT
u$ = 48
v$ = 56
w$ = 64
PMC_BitwiseOr_L_X PROC					; COMDAT

; 353  : {

$LN10:
	mov	QWORD PTR [rsp+8], rbx
	mov	QWORD PTR [rsp+16], rsi
	push	rdi
	sub	rsp, 32					; 00000020H
	mov	rdi, r8
	mov	rbx, rdx
	mov	rsi, rcx

; 354  :     if (__UNIT_TYPE_BIT_COUNT * 2 < sizeof(u) * 8)
; 355  :     {
; 356  :         // _UINT64_T が 2 ワードで表現しきれない処理系には対応しない
; 357  :         return (PMC_STATUS_INTERNAL_ERROR);
; 358  :     }
; 359  :     if (v == NULL)

	test	rdx, rdx
	je	SHORT $LN8@PMC_Bitwis

; 360  :         return (PMC_STATUS_ARGUMENT_ERROR);
; 361  :     if (w == NULL)

	test	r8, r8
	je	SHORT $LN8@PMC_Bitwis

; 363  :     PMC_STATUS_CODE result;
; 364  :     if ((result = CheckNumber((NUMBER_HEADER*)v)) != PMC_STATUS_OK)

	mov	rcx, rdx
	call	CheckNumber
	test	eax, eax
	jne	SHORT $LN6@PMC_Bitwis

; 365  :         return (result);
; 366  :     if ((result = PMC_BitwiseOr_X_L_Imp((NUMBER_HEADER*)v, u, (NUMBER_HEADER**)w)) != PMC_STATUS_OK)

	mov	r8, rdi
	mov	rdx, rsi
	mov	rcx, rbx

; 367  :         return (result);
; 368  : #ifdef _DEBUG
; 369  :     if ((result = CheckNumber(*w)) != PMC_STATUS_OK)
; 370  :         return (result);
; 371  : #endif
; 372  :     return (PMC_STATUS_OK);
; 373  : }

	mov	rbx, QWORD PTR [rsp+48]
	mov	rsi, QWORD PTR [rsp+56]
	add	rsp, 32					; 00000020H
	pop	rdi

; 365  :         return (result);
; 366  :     if ((result = PMC_BitwiseOr_X_L_Imp((NUMBER_HEADER*)v, u, (NUMBER_HEADER**)w)) != PMC_STATUS_OK)

	jmp	PMC_BitwiseOr_X_L_Imp
$LN8@PMC_Bitwis:

; 362  :         return (PMC_STATUS_ARGUMENT_ERROR);

	mov	eax, -1
$LN6@PMC_Bitwis:

; 367  :         return (result);
; 368  : #ifdef _DEBUG
; 369  :     if ((result = CheckNumber(*w)) != PMC_STATUS_OK)
; 370  :         return (result);
; 371  : #endif
; 372  :     return (PMC_STATUS_OK);
; 373  : }

	mov	rbx, QWORD PTR [rsp+48]
	mov	rsi, QWORD PTR [rsp+56]
	add	rsp, 32					; 00000020H
	pop	rdi
	ret	0
PMC_BitwiseOr_L_X ENDP
_TEXT	ENDS
; Function compile flags: /Ogtpy
; File z:\sources\lunor\repos\rougemeilland\palmtree.math.core.uint\palmtree.math.core.uint\pmc_bitwiseor.c
;	COMDAT PMC_BitwiseOr_I_X
_TEXT	SEGMENT
u$ = 48
v$ = 56
w$ = 64
PMC_BitwiseOr_I_X PROC					; COMDAT

; 229  : {

$LN10:
	mov	QWORD PTR [rsp+8], rbx
	mov	QWORD PTR [rsp+16], rsi
	push	rdi
	sub	rsp, 32					; 00000020H
	mov	rdi, r8
	mov	rbx, rdx
	mov	esi, ecx

; 230  :     if (__UNIT_TYPE_BIT_COUNT < sizeof(u) * 8)
; 231  :     {
; 232  :         // _UINT32_T が 1 ワードで表現しきれない処理系には対応しない
; 233  :         return (PMC_STATUS_INTERNAL_ERROR);
; 234  :     }
; 235  :     if (v == NULL)

	test	rdx, rdx
	je	SHORT $LN8@PMC_Bitwis

; 236  :         return (PMC_STATUS_ARGUMENT_ERROR);
; 237  :     if (w == NULL)

	test	r8, r8
	je	SHORT $LN8@PMC_Bitwis

; 239  :     PMC_STATUS_CODE result;
; 240  :     if ((result = CheckNumber((NUMBER_HEADER*)v)) != PMC_STATUS_OK)

	mov	rcx, rdx
	call	CheckNumber
	test	eax, eax
	jne	SHORT $LN6@PMC_Bitwis

; 241  :         return (result);
; 242  :     if ((result = PMC_BitwiseOr_X_I_Imp((NUMBER_HEADER*)v, u, (NUMBER_HEADER**)w)) != PMC_STATUS_OK)

	mov	r8, rdi
	mov	edx, esi
	mov	rcx, rbx

; 243  :         return (result);
; 244  : #ifdef _DEBUG
; 245  :     if ((result = CheckNumber(*w)) != PMC_STATUS_OK)
; 246  :         return (result);
; 247  : #endif
; 248  :     return (PMC_STATUS_OK);
; 249  : }

	mov	rbx, QWORD PTR [rsp+48]
	mov	rsi, QWORD PTR [rsp+56]
	add	rsp, 32					; 00000020H
	pop	rdi

; 241  :         return (result);
; 242  :     if ((result = PMC_BitwiseOr_X_I_Imp((NUMBER_HEADER*)v, u, (NUMBER_HEADER**)w)) != PMC_STATUS_OK)

	jmp	PMC_BitwiseOr_X_I_Imp
$LN8@PMC_Bitwis:

; 238  :         return (PMC_STATUS_ARGUMENT_ERROR);

	mov	eax, -1
$LN6@PMC_Bitwis:

; 243  :         return (result);
; 244  : #ifdef _DEBUG
; 245  :     if ((result = CheckNumber(*w)) != PMC_STATUS_OK)
; 246  :         return (result);
; 247  : #endif
; 248  :     return (PMC_STATUS_OK);
; 249  : }

	mov	rbx, QWORD PTR [rsp+48]
	mov	rsi, QWORD PTR [rsp+56]
	add	rsp, 32					; 00000020H
	pop	rdi
	ret	0
PMC_BitwiseOr_I_X ENDP
_TEXT	ENDS
; Function compile flags: /Ogtpy
; File z:\sources\lunor\repos\rougemeilland\palmtree.math.core.uint\palmtree.math.core.uint\pmc_bitwiseor.c
;	COMDAT Initialize_BitwiseOr
_TEXT	SEGMENT
feature$ = 8
Initialize_BitwiseOr PROC				; COMDAT

; 453  :     return (PMC_STATUS_OK);

	xor	eax, eax

; 454  : }

	ret	0
Initialize_BitwiseOr ENDP
_TEXT	ENDS
END
