; Listing generated by Microsoft (R) Optimizing Compiler Version 19.16.27027.1 

include listing.inc

INCLUDELIB MSVCRT
INCLUDELIB OLDNAMES

PUBLIC	PMCCS_UINT_Initialize
PUBLIC	PMCCS_GetConfigurationSettings
PUBLIC	PMCCS_IS_EVEN
PUBLIC	PMCCS_IS_ONE
PUBLIC	PMCCS_IS_POWER_OF_TWO
PUBLIC	PMCCS_IS_ZERO
PUBLIC	PMCCS_GET_HASH_CODE
PUBLIC	PMCCS_GetStatisticsInfo
PUBLIC	PMCCS_From_I
PUBLIC	PMCCS_From_L
PUBLIC	PMCCS_Dispose
PUBLIC	PMCCS_GetConstantValue_I
PUBLIC	PMCCS_FromByteArray
PUBLIC	PMCCS_ToByteArray
PUBLIC	PMCCS_Clone_X
PUBLIC	PMCCS_GetAllocatedMemorySize
PUBLIC	PMCCS_To_X_I
PUBLIC	PMCCS_To_X_L
PUBLIC	PMCCS_ToString
PUBLIC	PMCCS_Parse
PUBLIC	PMCCS_TryParse
PUBLIC	PMCCS_Add_I_X
PUBLIC	PMCCS_Add_L_X
PUBLIC	PMCCS_Add_X_I
PUBLIC	PMCCS_Add_X_L
PUBLIC	PMCCS_Add_X_X
PUBLIC	PMCCS_Subtruct_I_X
PUBLIC	PMCCS_Subtruct_L_X
PUBLIC	PMCCS_Subtruct_X_I
PUBLIC	PMCCS_Subtruct_X_L
PUBLIC	PMCCS_Subtruct_X_X
PUBLIC	PMCCS_Multiply_I_X
PUBLIC	PMCCS_Multiply_L_X
PUBLIC	PMCCS_Multiply_X_I
PUBLIC	PMCCS_Multiply_X_L
PUBLIC	PMCCS_Multiply_X_X
PUBLIC	PMCCS_DivRem_I_X
PUBLIC	PMCCS_DivRem_L_X
PUBLIC	PMCCS_DivRem_X_I
PUBLIC	PMCCS_DivRem_X_L
PUBLIC	PMCCS_DivRem_X_X
PUBLIC	PMCCS_Remainder_I_X
PUBLIC	PMCCS_Remainder_L_X
PUBLIC	PMCCS_Remainder_X_I
PUBLIC	PMCCS_Remainder_X_L
PUBLIC	PMCCS_Remainder_X_X
PUBLIC	PMCCS_RightShift_X_I
PUBLIC	PMCCS_LeftShift_X_I
PUBLIC	PMCCS_BitwiseAnd_I_X
PUBLIC	PMCCS_BitwiseAnd_L_X
PUBLIC	PMCCS_BitwiseAnd_X_I
PUBLIC	PMCCS_BitwiseAnd_X_L
PUBLIC	PMCCS_BitwiseAnd_X_X
PUBLIC	PMCCS_BitwiseOr_I_X
PUBLIC	PMCCS_BitwiseOr_L_X
PUBLIC	PMCCS_BitwiseOr_X_I
PUBLIC	PMCCS_BitwiseOr_X_L
PUBLIC	PMCCS_BitwiseOr_X_X
PUBLIC	PMCCS_ExclusiveOr_I_X
PUBLIC	PMCCS_ExclusiveOr_L_X
PUBLIC	PMCCS_ExclusiveOr_X_I
PUBLIC	PMCCS_ExclusiveOr_X_L
PUBLIC	PMCCS_ExclusiveOr_X_X
PUBLIC	PMCCS_Compare_I_X
PUBLIC	PMCCS_Compare_L_X
PUBLIC	PMCCS_Compare_X_I
PUBLIC	PMCCS_Compare_X_L
PUBLIC	PMCCS_Compare_X_X
PUBLIC	PMCCS_Equals_I_X
PUBLIC	PMCCS_Equals_L_X
PUBLIC	PMCCS_Equals_X_I
PUBLIC	PMCCS_Equals_X_L
PUBLIC	PMCCS_Equals_X_X
PUBLIC	PMCCS_GreatestCommonDivisor_I_X
PUBLIC	PMCCS_GreatestCommonDivisor_L_X
PUBLIC	PMCCS_GreatestCommonDivisor_X_I
PUBLIC	PMCCS_GreatestCommonDivisor_X_L
PUBLIC	PMCCS_GreatestCommonDivisor_X_X
PUBLIC	PMCCS_Pow_X_I
PUBLIC	PMCCS_Pow_X_L
PUBLIC	PMCCS_ModPow_X_X_X
PUBLIC	PMCCS_TimesOfExponentOf10
PUBLIC	PMCCS_Floor_Log10
PUBLIC	??_R0?AVException@Internal@Core@Math@Palmtree@@@8 ; Palmtree::Math::Core::Internal::Exception `RTTI Type Descriptor'
EXTRN	PMC_UINT_Initialize:PROC
EXTRN	?PMC_GetConfigurationSettings@Internal@Core@Math@Palmtree@@YAHPEB_WPEA_WHPEAH@Z:PROC ; Palmtree::Math::Core::Internal::PMC_GetConfigurationSettings
EXTRN	?PMC_GetStatisticsInfo@Internal@Core@Math@Palmtree@@YAXPEAU__tag_PMC_STATISTICS_INFO@1234@@Z:PROC ; Palmtree::Math::Core::Internal::PMC_GetStatisticsInfo
EXTRN	?PMC_From_I@Internal@Core@Math@Palmtree@@YAPEAU__tag_PMC_HANDLE_UINT@1234@I@Z:PROC ; Palmtree::Math::Core::Internal::PMC_From_I
EXTRN	?PMC_From_L@Internal@Core@Math@Palmtree@@YAPEAU__tag_PMC_HANDLE_UINT@1234@_K@Z:PROC ; Palmtree::Math::Core::Internal::PMC_From_L
EXTRN	?PMC_Dispose@Internal@Core@Math@Palmtree@@YAXPEAU__tag_PMC_HANDLE_UINT@1234@@Z:PROC ; Palmtree::Math::Core::Internal::PMC_Dispose
EXTRN	?PMC_GetConstantValue_I@Internal@Core@Math@Palmtree@@YAPEAU__tag_PMC_HANDLE_UINT@1234@H@Z:PROC ; Palmtree::Math::Core::Internal::PMC_GetConstantValue_I
EXTRN	?PMC_FromByteArray@Internal@Core@Math@Palmtree@@YAPEAU__tag_PMC_HANDLE_UINT@1234@PEBE_K@Z:PROC ; Palmtree::Math::Core::Internal::PMC_FromByteArray
EXTRN	?PMC_ToByteArray@Internal@Core@Math@Palmtree@@YA_KPEAU__tag_PMC_HANDLE_UINT@1234@PEAE_K@Z:PROC ; Palmtree::Math::Core::Internal::PMC_ToByteArray
EXTRN	?PMC_Clone_X@Internal@Core@Math@Palmtree@@YAPEAU__tag_PMC_HANDLE_UINT@1234@PEAU51234@@Z:PROC ; Palmtree::Math::Core::Internal::PMC_Clone_X
EXTRN	?PMC_GetAllocatedMemorySize@Internal@Core@Math@Palmtree@@YA_KXZ:PROC ; Palmtree::Math::Core::Internal::PMC_GetAllocatedMemorySize
EXTRN	?PMC_To_X_I@Internal@Core@Math@Palmtree@@YAIPEAU__tag_PMC_HANDLE_UINT@1234@@Z:PROC ; Palmtree::Math::Core::Internal::PMC_To_X_I
EXTRN	?PMC_To_X_L@Internal@Core@Math@Palmtree@@YA_KPEAU__tag_PMC_HANDLE_UINT@1234@@Z:PROC ; Palmtree::Math::Core::Internal::PMC_To_X_L
EXTRN	?PMC_ToString@Internal@Core@Math@Palmtree@@YA_KPEAU__tag_PMC_HANDLE_UINT@1234@PEB_WPEBU__tag_PMC_NUMBER_FORMAT_INFO@1234@PEA_W_K@Z:PROC ; Palmtree::Math::Core::Internal::PMC_ToString
EXTRN	?PMC_TryParse@Internal@Core@Math@Palmtree@@YAHPEB_WHPEBU__tag_PMC_NUMBER_FORMAT_INFO@1234@PEAPEAU__tag_PMC_HANDLE_UINT@1234@PEAI@Z:PROC ; Palmtree::Math::Core::Internal::PMC_TryParse
EXTRN	?PMC_Add_I_X@Internal@Core@Math@Palmtree@@YAPEAU__tag_PMC_HANDLE_UINT@1234@IPEAU51234@@Z:PROC ; Palmtree::Math::Core::Internal::PMC_Add_I_X
EXTRN	?PMC_Add_L_X@Internal@Core@Math@Palmtree@@YAPEAU__tag_PMC_HANDLE_UINT@1234@_KPEAU51234@@Z:PROC ; Palmtree::Math::Core::Internal::PMC_Add_L_X
EXTRN	?PMC_Add_X_I@Internal@Core@Math@Palmtree@@YAPEAU__tag_PMC_HANDLE_UINT@1234@PEAU51234@I@Z:PROC ; Palmtree::Math::Core::Internal::PMC_Add_X_I
EXTRN	?PMC_Add_X_L@Internal@Core@Math@Palmtree@@YAPEAU__tag_PMC_HANDLE_UINT@1234@PEAU51234@_K@Z:PROC ; Palmtree::Math::Core::Internal::PMC_Add_X_L
EXTRN	?PMC_Add_X_X@Internal@Core@Math@Palmtree@@YAPEAU__tag_PMC_HANDLE_UINT@1234@PEAU51234@0@Z:PROC ; Palmtree::Math::Core::Internal::PMC_Add_X_X
EXTRN	?PMC_Subtruct_I_X@Internal@Core@Math@Palmtree@@YAIIPEAU__tag_PMC_HANDLE_UINT@1234@@Z:PROC ; Palmtree::Math::Core::Internal::PMC_Subtruct_I_X
EXTRN	?PMC_Subtruct_L_X@Internal@Core@Math@Palmtree@@YA_K_KPEAU__tag_PMC_HANDLE_UINT@1234@@Z:PROC ; Palmtree::Math::Core::Internal::PMC_Subtruct_L_X
EXTRN	?PMC_Subtruct_X_I@Internal@Core@Math@Palmtree@@YAPEAU__tag_PMC_HANDLE_UINT@1234@PEAU51234@I@Z:PROC ; Palmtree::Math::Core::Internal::PMC_Subtruct_X_I
EXTRN	?PMC_Subtruct_X_L@Internal@Core@Math@Palmtree@@YAPEAU__tag_PMC_HANDLE_UINT@1234@PEAU51234@_K@Z:PROC ; Palmtree::Math::Core::Internal::PMC_Subtruct_X_L
EXTRN	?PMC_Subtruct_X_X@Internal@Core@Math@Palmtree@@YAPEAU__tag_PMC_HANDLE_UINT@1234@PEAU51234@0@Z:PROC ; Palmtree::Math::Core::Internal::PMC_Subtruct_X_X
EXTRN	?PMC_Multiply_I_X@Internal@Core@Math@Palmtree@@YAPEAU__tag_PMC_HANDLE_UINT@1234@IPEAU51234@@Z:PROC ; Palmtree::Math::Core::Internal::PMC_Multiply_I_X
EXTRN	?PMC_Multiply_L_X@Internal@Core@Math@Palmtree@@YAPEAU__tag_PMC_HANDLE_UINT@1234@_KPEAU51234@@Z:PROC ; Palmtree::Math::Core::Internal::PMC_Multiply_L_X
EXTRN	?PMC_Multiply_X_I@Internal@Core@Math@Palmtree@@YAPEAU__tag_PMC_HANDLE_UINT@1234@PEAU51234@I@Z:PROC ; Palmtree::Math::Core::Internal::PMC_Multiply_X_I
EXTRN	?PMC_Multiply_X_L@Internal@Core@Math@Palmtree@@YAPEAU__tag_PMC_HANDLE_UINT@1234@PEAU51234@_K@Z:PROC ; Palmtree::Math::Core::Internal::PMC_Multiply_X_L
EXTRN	?PMC_Multiply_X_X@Internal@Core@Math@Palmtree@@YAPEAU__tag_PMC_HANDLE_UINT@1234@PEAU51234@0@Z:PROC ; Palmtree::Math::Core::Internal::PMC_Multiply_X_X
EXTRN	?PMC_DivRem_I_X@Internal@Core@Math@Palmtree@@YAIIPEAU__tag_PMC_HANDLE_UINT@1234@PEAI@Z:PROC ; Palmtree::Math::Core::Internal::PMC_DivRem_I_X
EXTRN	?PMC_DivRem_L_X@Internal@Core@Math@Palmtree@@YA_K_KPEAU__tag_PMC_HANDLE_UINT@1234@PEA_K@Z:PROC ; Palmtree::Math::Core::Internal::PMC_DivRem_L_X
EXTRN	?PMC_DivRem_X_I@Internal@Core@Math@Palmtree@@YAIPEAU__tag_PMC_HANDLE_UINT@1234@IPEAPEAU51234@@Z:PROC ; Palmtree::Math::Core::Internal::PMC_DivRem_X_I
EXTRN	?PMC_DivRem_X_L@Internal@Core@Math@Palmtree@@YA_KPEAU__tag_PMC_HANDLE_UINT@1234@_KPEAPEAU51234@@Z:PROC ; Palmtree::Math::Core::Internal::PMC_DivRem_X_L
EXTRN	?PMC_DivRem_X_X@Internal@Core@Math@Palmtree@@YAPEAU__tag_PMC_HANDLE_UINT@1234@PEAU51234@0PEAPEAU51234@@Z:PROC ; Palmtree::Math::Core::Internal::PMC_DivRem_X_X
EXTRN	?PMC_RightShift_X_I@Internal@Core@Math@Palmtree@@YAPEAU__tag_PMC_HANDLE_UINT@1234@PEAU51234@H@Z:PROC ; Palmtree::Math::Core::Internal::PMC_RightShift_X_I
EXTRN	?PMC_LeftShift_X_I@Internal@Core@Math@Palmtree@@YAPEAU__tag_PMC_HANDLE_UINT@1234@PEAU51234@H@Z:PROC ; Palmtree::Math::Core::Internal::PMC_LeftShift_X_I
EXTRN	?PMC_BitwiseAnd_I_X@Internal@Core@Math@Palmtree@@YAIIPEAU__tag_PMC_HANDLE_UINT@1234@@Z:PROC ; Palmtree::Math::Core::Internal::PMC_BitwiseAnd_I_X
EXTRN	?PMC_BitwiseAnd_L_X@Internal@Core@Math@Palmtree@@YA_K_KPEAU__tag_PMC_HANDLE_UINT@1234@@Z:PROC ; Palmtree::Math::Core::Internal::PMC_BitwiseAnd_L_X
EXTRN	?PMC_BitwiseAnd_X_I@Internal@Core@Math@Palmtree@@YAIPEAU__tag_PMC_HANDLE_UINT@1234@I@Z:PROC ; Palmtree::Math::Core::Internal::PMC_BitwiseAnd_X_I
EXTRN	?PMC_BitwiseAnd_X_L@Internal@Core@Math@Palmtree@@YA_KPEAU__tag_PMC_HANDLE_UINT@1234@_K@Z:PROC ; Palmtree::Math::Core::Internal::PMC_BitwiseAnd_X_L
EXTRN	?PMC_BitwiseAnd_X_X@Internal@Core@Math@Palmtree@@YAPEAU__tag_PMC_HANDLE_UINT@1234@PEAU51234@0@Z:PROC ; Palmtree::Math::Core::Internal::PMC_BitwiseAnd_X_X
EXTRN	?PMC_BitwiseOr_I_X@Internal@Core@Math@Palmtree@@YAPEAU__tag_PMC_HANDLE_UINT@1234@IPEAU51234@@Z:PROC ; Palmtree::Math::Core::Internal::PMC_BitwiseOr_I_X
EXTRN	?PMC_BitwiseOr_L_X@Internal@Core@Math@Palmtree@@YAPEAU__tag_PMC_HANDLE_UINT@1234@_KPEAU51234@@Z:PROC ; Palmtree::Math::Core::Internal::PMC_BitwiseOr_L_X
EXTRN	?PMC_BitwiseOr_X_I@Internal@Core@Math@Palmtree@@YAPEAU__tag_PMC_HANDLE_UINT@1234@PEAU51234@I@Z:PROC ; Palmtree::Math::Core::Internal::PMC_BitwiseOr_X_I
EXTRN	?PMC_BitwiseOr_X_L@Internal@Core@Math@Palmtree@@YAPEAU__tag_PMC_HANDLE_UINT@1234@PEAU51234@_K@Z:PROC ; Palmtree::Math::Core::Internal::PMC_BitwiseOr_X_L
EXTRN	?PMC_BitwiseOr_X_X@Internal@Core@Math@Palmtree@@YAPEAU__tag_PMC_HANDLE_UINT@1234@PEAU51234@0@Z:PROC ; Palmtree::Math::Core::Internal::PMC_BitwiseOr_X_X
EXTRN	?PMC_ExclusiveOr_I_X@Internal@Core@Math@Palmtree@@YAPEAU__tag_PMC_HANDLE_UINT@1234@IPEAU51234@@Z:PROC ; Palmtree::Math::Core::Internal::PMC_ExclusiveOr_I_X
EXTRN	?PMC_ExclusiveOr_L_X@Internal@Core@Math@Palmtree@@YAPEAU__tag_PMC_HANDLE_UINT@1234@_KPEAU51234@@Z:PROC ; Palmtree::Math::Core::Internal::PMC_ExclusiveOr_L_X
EXTRN	?PMC_ExclusiveOr_X_I@Internal@Core@Math@Palmtree@@YAPEAU__tag_PMC_HANDLE_UINT@1234@PEAU51234@I@Z:PROC ; Palmtree::Math::Core::Internal::PMC_ExclusiveOr_X_I
EXTRN	?PMC_ExclusiveOr_X_L@Internal@Core@Math@Palmtree@@YAPEAU__tag_PMC_HANDLE_UINT@1234@PEAU51234@_K@Z:PROC ; Palmtree::Math::Core::Internal::PMC_ExclusiveOr_X_L
EXTRN	?PMC_ExclusiveOr_X_X@Internal@Core@Math@Palmtree@@YAPEAU__tag_PMC_HANDLE_UINT@1234@PEAU51234@0@Z:PROC ; Palmtree::Math::Core::Internal::PMC_ExclusiveOr_X_X
EXTRN	?PMC_Compare_I_X@Internal@Core@Math@Palmtree@@YAHIPEAU__tag_PMC_HANDLE_UINT@1234@@Z:PROC ; Palmtree::Math::Core::Internal::PMC_Compare_I_X
EXTRN	?PMC_Compare_L_X@Internal@Core@Math@Palmtree@@YAH_KPEAU__tag_PMC_HANDLE_UINT@1234@@Z:PROC ; Palmtree::Math::Core::Internal::PMC_Compare_L_X
EXTRN	?PMC_Compare_X_I@Internal@Core@Math@Palmtree@@YAHPEAU__tag_PMC_HANDLE_UINT@1234@I@Z:PROC ; Palmtree::Math::Core::Internal::PMC_Compare_X_I
EXTRN	?PMC_Compare_X_L@Internal@Core@Math@Palmtree@@YAHPEAU__tag_PMC_HANDLE_UINT@1234@_K@Z:PROC ; Palmtree::Math::Core::Internal::PMC_Compare_X_L
EXTRN	?PMC_Compare_X_X@Internal@Core@Math@Palmtree@@YAHPEAU__tag_PMC_HANDLE_UINT@1234@0@Z:PROC ; Palmtree::Math::Core::Internal::PMC_Compare_X_X
EXTRN	?PMC_Equals_I_X@Internal@Core@Math@Palmtree@@YAIIPEAU__tag_PMC_HANDLE_UINT@1234@@Z:PROC ; Palmtree::Math::Core::Internal::PMC_Equals_I_X
EXTRN	?PMC_Equals_L_X@Internal@Core@Math@Palmtree@@YAI_KPEAU__tag_PMC_HANDLE_UINT@1234@@Z:PROC ; Palmtree::Math::Core::Internal::PMC_Equals_L_X
EXTRN	?PMC_Equals_X_I@Internal@Core@Math@Palmtree@@YAIPEAU__tag_PMC_HANDLE_UINT@1234@I@Z:PROC ; Palmtree::Math::Core::Internal::PMC_Equals_X_I
EXTRN	?PMC_Equals_X_L@Internal@Core@Math@Palmtree@@YAIPEAU__tag_PMC_HANDLE_UINT@1234@_K@Z:PROC ; Palmtree::Math::Core::Internal::PMC_Equals_X_L
EXTRN	?PMC_Equals_X_X@Internal@Core@Math@Palmtree@@YAIPEAU__tag_PMC_HANDLE_UINT@1234@0@Z:PROC ; Palmtree::Math::Core::Internal::PMC_Equals_X_X
EXTRN	?PMC_GreatestCommonDivisor_I_X@Internal@Core@Math@Palmtree@@YAPEAU__tag_PMC_HANDLE_UINT@1234@IPEAU51234@@Z:PROC ; Palmtree::Math::Core::Internal::PMC_GreatestCommonDivisor_I_X
EXTRN	?PMC_GreatestCommonDivisor_L_X@Internal@Core@Math@Palmtree@@YAPEAU__tag_PMC_HANDLE_UINT@1234@_KPEAU51234@@Z:PROC ; Palmtree::Math::Core::Internal::PMC_GreatestCommonDivisor_L_X
EXTRN	?PMC_GreatestCommonDivisor_X_I@Internal@Core@Math@Palmtree@@YAPEAU__tag_PMC_HANDLE_UINT@1234@PEAU51234@I@Z:PROC ; Palmtree::Math::Core::Internal::PMC_GreatestCommonDivisor_X_I
EXTRN	?PMC_GreatestCommonDivisor_X_L@Internal@Core@Math@Palmtree@@YAPEAU__tag_PMC_HANDLE_UINT@1234@PEAU51234@_K@Z:PROC ; Palmtree::Math::Core::Internal::PMC_GreatestCommonDivisor_X_L
EXTRN	?PMC_GreatestCommonDivisor_X_X@Internal@Core@Math@Palmtree@@YAPEAU__tag_PMC_HANDLE_UINT@1234@PEAU51234@0@Z:PROC ; Palmtree::Math::Core::Internal::PMC_GreatestCommonDivisor_X_X
EXTRN	?PMC_Pow_X_I@Internal@Core@Math@Palmtree@@YAPEAU__tag_PMC_HANDLE_UINT@1234@PEAU51234@I@Z:PROC ; Palmtree::Math::Core::Internal::PMC_Pow_X_I
EXTRN	?PMC_Pow_X_L@Internal@Core@Math@Palmtree@@YAPEAU__tag_PMC_HANDLE_UINT@1234@PEAU51234@_K@Z:PROC ; Palmtree::Math::Core::Internal::PMC_Pow_X_L
EXTRN	?PMC_ModPow_X_X_X@Internal@Core@Math@Palmtree@@YAPEAU__tag_PMC_HANDLE_UINT@1234@PEAU51234@00@Z:PROC ; Palmtree::Math::Core::Internal::PMC_ModPow_X_X_X
EXTRN	?PMC_TimesOfExponentOf10@Internal@Core@Math@Palmtree@@YAPEAU__tag_PMC_HANDLE_UINT@1234@II@Z:PROC ; Palmtree::Math::Core::Internal::PMC_TimesOfExponentOf10
EXTRN	?PMC_Floor_Log10@Internal@Core@Math@Palmtree@@YAIPEAU__tag_PMC_HANDLE_UINT@1234@@Z:PROC ; Palmtree::Math::Core::Internal::PMC_Floor_Log10
EXTRN	__CxxFrameHandler3:PROC
EXTRN	??_7type_info@@6B@:BYTE				; type_info::`vftable'
;	COMDAT pdata
pdata	SEGMENT
$pdata$PMCCS_UINT_Initialize DD imagerel $LN4
	DD	imagerel $LN4+24
	DD	imagerel $unwind$PMCCS_UINT_Initialize
pdata	ENDS
;	COMDAT pdata
pdata	SEGMENT
$pdata$PMCCS_IS_EVEN DD imagerel $LN15
	DD	imagerel $LN15+57
	DD	imagerel $unwind$PMCCS_IS_EVEN
pdata	ENDS
;	COMDAT pdata
pdata	SEGMENT
$pdata$PMCCS_IS_EVEN$catch$0 DD imagerel PMCCS_IS_EVEN$catch$0
	DD	imagerel PMCCS_IS_EVEN$catch$0+29
	DD	imagerel $unwind$PMCCS_IS_EVEN$catch$0
pdata	ENDS
;	COMDAT pdata
pdata	SEGMENT
$pdata$PMCCS_IS_ONE DD imagerel $LN15
	DD	imagerel $LN15+56
	DD	imagerel $unwind$PMCCS_IS_ONE
pdata	ENDS
;	COMDAT pdata
pdata	SEGMENT
$pdata$PMCCS_IS_ONE$catch$0 DD imagerel PMCCS_IS_ONE$catch$0
	DD	imagerel PMCCS_IS_ONE$catch$0+29
	DD	imagerel $unwind$PMCCS_IS_ONE$catch$0
pdata	ENDS
;	COMDAT pdata
pdata	SEGMENT
$pdata$PMCCS_IS_POWER_OF_TWO DD imagerel $LN15
	DD	imagerel $LN15+57
	DD	imagerel $unwind$PMCCS_IS_POWER_OF_TWO
pdata	ENDS
;	COMDAT pdata
pdata	SEGMENT
$pdata$PMCCS_IS_POWER_OF_TWO$catch$0 DD imagerel PMCCS_IS_POWER_OF_TWO$catch$0
	DD	imagerel PMCCS_IS_POWER_OF_TWO$catch$0+29
	DD	imagerel $unwind$PMCCS_IS_POWER_OF_TWO$catch$0
pdata	ENDS
;	COMDAT pdata
pdata	SEGMENT
$pdata$PMCCS_IS_ZERO DD imagerel $LN15
	DD	imagerel $LN15+54
	DD	imagerel $unwind$PMCCS_IS_ZERO
pdata	ENDS
;	COMDAT pdata
pdata	SEGMENT
$pdata$PMCCS_IS_ZERO$catch$0 DD imagerel PMCCS_IS_ZERO$catch$0
	DD	imagerel PMCCS_IS_ZERO$catch$0+29
	DD	imagerel $unwind$PMCCS_IS_ZERO$catch$0
pdata	ENDS
;	COMDAT pdata
pdata	SEGMENT
$pdata$PMCCS_GET_HASH_CODE DD imagerel $LN15
	DD	imagerel $LN15+50
	DD	imagerel $unwind$PMCCS_GET_HASH_CODE
pdata	ENDS
;	COMDAT pdata
pdata	SEGMENT
$pdata$PMCCS_GET_HASH_CODE$catch$0 DD imagerel PMCCS_GET_HASH_CODE$catch$0
	DD	imagerel PMCCS_GET_HASH_CODE$catch$0+29
	DD	imagerel $unwind$PMCCS_GET_HASH_CODE$catch$0
pdata	ENDS
;	COMDAT pdata
pdata	SEGMENT
$pdata$PMCCS_From_I DD imagerel $LN13
	DD	imagerel $LN13+55
	DD	imagerel $unwind$PMCCS_From_I
pdata	ENDS
;	COMDAT pdata
pdata	SEGMENT
$pdata$PMCCS_From_I$catch$0 DD imagerel PMCCS_From_I$catch$0
	DD	imagerel PMCCS_From_I$catch$0+37
	DD	imagerel $unwind$PMCCS_From_I$catch$0
pdata	ENDS
;	COMDAT pdata
pdata	SEGMENT
$pdata$PMCCS_From_L DD imagerel $LN13
	DD	imagerel $LN13+55
	DD	imagerel $unwind$PMCCS_From_L
pdata	ENDS
;	COMDAT pdata
pdata	SEGMENT
$pdata$PMCCS_From_L$catch$0 DD imagerel PMCCS_From_L$catch$0
	DD	imagerel PMCCS_From_L$catch$0+37
	DD	imagerel $unwind$PMCCS_From_L$catch$0
pdata	ENDS
;	COMDAT pdata
pdata	SEGMENT
$pdata$PMCCS_Dispose DD imagerel $LN13
	DD	imagerel $LN13+45
	DD	imagerel $unwind$PMCCS_Dispose
pdata	ENDS
;	COMDAT pdata
pdata	SEGMENT
$pdata$PMCCS_Dispose$catch$0 DD imagerel PMCCS_Dispose$catch$0
	DD	imagerel PMCCS_Dispose$catch$0+37
	DD	imagerel $unwind$PMCCS_Dispose$catch$0
pdata	ENDS
;	COMDAT pdata
pdata	SEGMENT
$pdata$PMCCS_GetConstantValue_I DD imagerel $LN13
	DD	imagerel $LN13+55
	DD	imagerel $unwind$PMCCS_GetConstantValue_I
pdata	ENDS
;	COMDAT pdata
pdata	SEGMENT
$pdata$PMCCS_GetConstantValue_I$catch$0 DD imagerel PMCCS_GetConstantValue_I$catch$0
	DD	imagerel PMCCS_GetConstantValue_I$catch$0+37
	DD	imagerel $unwind$PMCCS_GetConstantValue_I$catch$0
pdata	ENDS
;	COMDAT pdata
pdata	SEGMENT
$pdata$PMCCS_FromByteArray DD imagerel $LN13
	DD	imagerel $LN13+59
	DD	imagerel $unwind$PMCCS_FromByteArray
pdata	ENDS
;	COMDAT pdata
pdata	SEGMENT
$pdata$PMCCS_FromByteArray$catch$0 DD imagerel PMCCS_FromByteArray$catch$0
	DD	imagerel PMCCS_FromByteArray$catch$0+37
	DD	imagerel $unwind$PMCCS_FromByteArray$catch$0
pdata	ENDS
;	COMDAT pdata
pdata	SEGMENT
$pdata$PMCCS_ToByteArray DD imagerel $LN14
	DD	imagerel $LN14+78
	DD	imagerel $unwind$PMCCS_ToByteArray
pdata	ENDS
;	COMDAT pdata
pdata	SEGMENT
$pdata$PMCCS_ToByteArray$catch$0 DD imagerel PMCCS_ToByteArray$catch$0
	DD	imagerel PMCCS_ToByteArray$catch$0+37
	DD	imagerel $unwind$PMCCS_ToByteArray$catch$0
pdata	ENDS
;	COMDAT pdata
pdata	SEGMENT
$pdata$PMCCS_Clone_X DD imagerel $LN13
	DD	imagerel $LN13+55
	DD	imagerel $unwind$PMCCS_Clone_X
pdata	ENDS
;	COMDAT pdata
pdata	SEGMENT
$pdata$PMCCS_Clone_X$catch$0 DD imagerel PMCCS_Clone_X$catch$0
	DD	imagerel PMCCS_Clone_X$catch$0+37
	DD	imagerel $unwind$PMCCS_Clone_X$catch$0
pdata	ENDS
;	COMDAT pdata
pdata	SEGMENT
$pdata$PMCCS_GetAllocatedMemorySize DD imagerel $LN13
	DD	imagerel $LN13+55
	DD	imagerel $unwind$PMCCS_GetAllocatedMemorySize
pdata	ENDS
;	COMDAT pdata
pdata	SEGMENT
$pdata$PMCCS_GetAllocatedMemorySize$catch$0 DD imagerel PMCCS_GetAllocatedMemorySize$catch$0
	DD	imagerel PMCCS_GetAllocatedMemorySize$catch$0+37
	DD	imagerel $unwind$PMCCS_GetAllocatedMemorySize$catch$0
pdata	ENDS
;	COMDAT pdata
pdata	SEGMENT
$pdata$PMCCS_To_X_I DD imagerel $LN13
	DD	imagerel $LN13+54
	DD	imagerel $unwind$PMCCS_To_X_I
pdata	ENDS
;	COMDAT pdata
pdata	SEGMENT
$pdata$PMCCS_To_X_I$catch$0 DD imagerel PMCCS_To_X_I$catch$0
	DD	imagerel PMCCS_To_X_I$catch$0+37
	DD	imagerel $unwind$PMCCS_To_X_I$catch$0
pdata	ENDS
;	COMDAT pdata
pdata	SEGMENT
$pdata$PMCCS_To_X_L DD imagerel $LN13
	DD	imagerel $LN13+55
	DD	imagerel $unwind$PMCCS_To_X_L
pdata	ENDS
;	COMDAT pdata
pdata	SEGMENT
$pdata$PMCCS_To_X_L$catch$0 DD imagerel PMCCS_To_X_L$catch$0
	DD	imagerel PMCCS_To_X_L$catch$0+37
	DD	imagerel $unwind$PMCCS_To_X_L$catch$0
pdata	ENDS
;	COMDAT pdata
pdata	SEGMENT
$pdata$PMCCS_ToString DD imagerel $LN14
	DD	imagerel $LN14+86
	DD	imagerel $unwind$PMCCS_ToString
pdata	ENDS
;	COMDAT pdata
pdata	SEGMENT
$pdata$PMCCS_ToString$catch$0 DD imagerel PMCCS_ToString$catch$0
	DD	imagerel PMCCS_ToString$catch$0+37
	DD	imagerel $unwind$PMCCS_ToString$catch$0
pdata	ENDS
;	COMDAT pdata
pdata	SEGMENT
$pdata$PMCCS_Parse DD imagerel $LN16
	DD	imagerel $LN16+96
	DD	imagerel $unwind$PMCCS_Parse
pdata	ENDS
;	COMDAT pdata
pdata	SEGMENT
$pdata$PMCCS_Parse$catch$0 DD imagerel PMCCS_Parse$catch$0
	DD	imagerel PMCCS_Parse$catch$0+37
	DD	imagerel $unwind$PMCCS_Parse$catch$0
pdata	ENDS
;	COMDAT pdata
pdata	SEGMENT
$pdata$PMCCS_TryParse DD imagerel $LN15
	DD	imagerel $LN15+78
	DD	imagerel $unwind$PMCCS_TryParse
pdata	ENDS
;	COMDAT pdata
pdata	SEGMENT
$pdata$PMCCS_TryParse$catch$0 DD imagerel PMCCS_TryParse$catch$0
	DD	imagerel PMCCS_TryParse$catch$0+37
	DD	imagerel $unwind$PMCCS_TryParse$catch$0
pdata	ENDS
;	COMDAT pdata
pdata	SEGMENT
$pdata$PMCCS_Add_I_X DD imagerel $LN13
	DD	imagerel $LN13+56
	DD	imagerel $unwind$PMCCS_Add_I_X
pdata	ENDS
;	COMDAT pdata
pdata	SEGMENT
$pdata$PMCCS_Add_I_X$catch$0 DD imagerel PMCCS_Add_I_X$catch$0
	DD	imagerel PMCCS_Add_I_X$catch$0+37
	DD	imagerel $unwind$PMCCS_Add_I_X$catch$0
pdata	ENDS
;	COMDAT pdata
pdata	SEGMENT
$pdata$PMCCS_Add_L_X DD imagerel $LN13
	DD	imagerel $LN13+56
	DD	imagerel $unwind$PMCCS_Add_L_X
pdata	ENDS
;	COMDAT pdata
pdata	SEGMENT
$pdata$PMCCS_Add_L_X$catch$0 DD imagerel PMCCS_Add_L_X$catch$0
	DD	imagerel PMCCS_Add_L_X$catch$0+37
	DD	imagerel $unwind$PMCCS_Add_L_X$catch$0
pdata	ENDS
;	COMDAT pdata
pdata	SEGMENT
$pdata$PMCCS_Add_X_I DD imagerel $LN13
	DD	imagerel $LN13+56
	DD	imagerel $unwind$PMCCS_Add_X_I
pdata	ENDS
;	COMDAT pdata
pdata	SEGMENT
$pdata$PMCCS_Add_X_I$catch$0 DD imagerel PMCCS_Add_X_I$catch$0
	DD	imagerel PMCCS_Add_X_I$catch$0+37
	DD	imagerel $unwind$PMCCS_Add_X_I$catch$0
pdata	ENDS
;	COMDAT pdata
pdata	SEGMENT
$pdata$PMCCS_Add_X_L DD imagerel $LN13
	DD	imagerel $LN13+56
	DD	imagerel $unwind$PMCCS_Add_X_L
pdata	ENDS
;	COMDAT pdata
pdata	SEGMENT
$pdata$PMCCS_Add_X_L$catch$0 DD imagerel PMCCS_Add_X_L$catch$0
	DD	imagerel PMCCS_Add_X_L$catch$0+37
	DD	imagerel $unwind$PMCCS_Add_X_L$catch$0
pdata	ENDS
;	COMDAT pdata
pdata	SEGMENT
$pdata$PMCCS_Add_X_X DD imagerel $LN13
	DD	imagerel $LN13+56
	DD	imagerel $unwind$PMCCS_Add_X_X
pdata	ENDS
;	COMDAT pdata
pdata	SEGMENT
$pdata$PMCCS_Add_X_X$catch$0 DD imagerel PMCCS_Add_X_X$catch$0
	DD	imagerel PMCCS_Add_X_X$catch$0+37
	DD	imagerel $unwind$PMCCS_Add_X_X$catch$0
pdata	ENDS
;	COMDAT pdata
pdata	SEGMENT
$pdata$PMCCS_Subtruct_I_X DD imagerel $LN13
	DD	imagerel $LN13+55
	DD	imagerel $unwind$PMCCS_Subtruct_I_X
pdata	ENDS
;	COMDAT pdata
pdata	SEGMENT
$pdata$PMCCS_Subtruct_I_X$catch$0 DD imagerel PMCCS_Subtruct_I_X$catch$0
	DD	imagerel PMCCS_Subtruct_I_X$catch$0+37
	DD	imagerel $unwind$PMCCS_Subtruct_I_X$catch$0
pdata	ENDS
;	COMDAT pdata
pdata	SEGMENT
$pdata$PMCCS_Subtruct_L_X DD imagerel $LN13
	DD	imagerel $LN13+56
	DD	imagerel $unwind$PMCCS_Subtruct_L_X
pdata	ENDS
;	COMDAT pdata
pdata	SEGMENT
$pdata$PMCCS_Subtruct_L_X$catch$0 DD imagerel PMCCS_Subtruct_L_X$catch$0
	DD	imagerel PMCCS_Subtruct_L_X$catch$0+37
	DD	imagerel $unwind$PMCCS_Subtruct_L_X$catch$0
pdata	ENDS
;	COMDAT pdata
pdata	SEGMENT
$pdata$PMCCS_Subtruct_X_I DD imagerel $LN13
	DD	imagerel $LN13+56
	DD	imagerel $unwind$PMCCS_Subtruct_X_I
pdata	ENDS
;	COMDAT pdata
pdata	SEGMENT
$pdata$PMCCS_Subtruct_X_I$catch$0 DD imagerel PMCCS_Subtruct_X_I$catch$0
	DD	imagerel PMCCS_Subtruct_X_I$catch$0+37
	DD	imagerel $unwind$PMCCS_Subtruct_X_I$catch$0
pdata	ENDS
;	COMDAT pdata
pdata	SEGMENT
$pdata$PMCCS_Subtruct_X_L DD imagerel $LN13
	DD	imagerel $LN13+56
	DD	imagerel $unwind$PMCCS_Subtruct_X_L
pdata	ENDS
;	COMDAT pdata
pdata	SEGMENT
$pdata$PMCCS_Subtruct_X_L$catch$0 DD imagerel PMCCS_Subtruct_X_L$catch$0
	DD	imagerel PMCCS_Subtruct_X_L$catch$0+37
	DD	imagerel $unwind$PMCCS_Subtruct_X_L$catch$0
pdata	ENDS
;	COMDAT pdata
pdata	SEGMENT
$pdata$PMCCS_Subtruct_X_X DD imagerel $LN13
	DD	imagerel $LN13+56
	DD	imagerel $unwind$PMCCS_Subtruct_X_X
pdata	ENDS
;	COMDAT pdata
pdata	SEGMENT
$pdata$PMCCS_Subtruct_X_X$catch$0 DD imagerel PMCCS_Subtruct_X_X$catch$0
	DD	imagerel PMCCS_Subtruct_X_X$catch$0+37
	DD	imagerel $unwind$PMCCS_Subtruct_X_X$catch$0
pdata	ENDS
;	COMDAT pdata
pdata	SEGMENT
$pdata$PMCCS_Multiply_I_X DD imagerel $LN13
	DD	imagerel $LN13+56
	DD	imagerel $unwind$PMCCS_Multiply_I_X
pdata	ENDS
;	COMDAT pdata
pdata	SEGMENT
$pdata$PMCCS_Multiply_I_X$catch$0 DD imagerel PMCCS_Multiply_I_X$catch$0
	DD	imagerel PMCCS_Multiply_I_X$catch$0+37
	DD	imagerel $unwind$PMCCS_Multiply_I_X$catch$0
pdata	ENDS
;	COMDAT pdata
pdata	SEGMENT
$pdata$PMCCS_Multiply_L_X DD imagerel $LN13
	DD	imagerel $LN13+56
	DD	imagerel $unwind$PMCCS_Multiply_L_X
pdata	ENDS
;	COMDAT pdata
pdata	SEGMENT
$pdata$PMCCS_Multiply_L_X$catch$0 DD imagerel PMCCS_Multiply_L_X$catch$0
	DD	imagerel PMCCS_Multiply_L_X$catch$0+37
	DD	imagerel $unwind$PMCCS_Multiply_L_X$catch$0
pdata	ENDS
;	COMDAT pdata
pdata	SEGMENT
$pdata$PMCCS_Multiply_X_I DD imagerel $LN13
	DD	imagerel $LN13+56
	DD	imagerel $unwind$PMCCS_Multiply_X_I
pdata	ENDS
;	COMDAT pdata
pdata	SEGMENT
$pdata$PMCCS_Multiply_X_I$catch$0 DD imagerel PMCCS_Multiply_X_I$catch$0
	DD	imagerel PMCCS_Multiply_X_I$catch$0+37
	DD	imagerel $unwind$PMCCS_Multiply_X_I$catch$0
pdata	ENDS
;	COMDAT pdata
pdata	SEGMENT
$pdata$PMCCS_Multiply_X_L DD imagerel $LN13
	DD	imagerel $LN13+56
	DD	imagerel $unwind$PMCCS_Multiply_X_L
pdata	ENDS
;	COMDAT pdata
pdata	SEGMENT
$pdata$PMCCS_Multiply_X_L$catch$0 DD imagerel PMCCS_Multiply_X_L$catch$0
	DD	imagerel PMCCS_Multiply_X_L$catch$0+37
	DD	imagerel $unwind$PMCCS_Multiply_X_L$catch$0
pdata	ENDS
;	COMDAT pdata
pdata	SEGMENT
$pdata$PMCCS_Multiply_X_X DD imagerel $LN13
	DD	imagerel $LN13+56
	DD	imagerel $unwind$PMCCS_Multiply_X_X
pdata	ENDS
;	COMDAT pdata
pdata	SEGMENT
$pdata$PMCCS_Multiply_X_X$catch$0 DD imagerel PMCCS_Multiply_X_X$catch$0
	DD	imagerel PMCCS_Multiply_X_X$catch$0+37
	DD	imagerel $unwind$PMCCS_Multiply_X_X$catch$0
pdata	ENDS
;	COMDAT pdata
pdata	SEGMENT
$pdata$PMCCS_DivRem_I_X DD imagerel $LN13
	DD	imagerel $LN13+55
	DD	imagerel $unwind$PMCCS_DivRem_I_X
pdata	ENDS
;	COMDAT pdata
pdata	SEGMENT
$pdata$PMCCS_DivRem_I_X$catch$0 DD imagerel PMCCS_DivRem_I_X$catch$0
	DD	imagerel PMCCS_DivRem_I_X$catch$0+37
	DD	imagerel $unwind$PMCCS_DivRem_I_X$catch$0
pdata	ENDS
;	COMDAT pdata
pdata	SEGMENT
$pdata$PMCCS_DivRem_L_X DD imagerel $LN13
	DD	imagerel $LN13+56
	DD	imagerel $unwind$PMCCS_DivRem_L_X
pdata	ENDS
;	COMDAT pdata
pdata	SEGMENT
$pdata$PMCCS_DivRem_L_X$catch$0 DD imagerel PMCCS_DivRem_L_X$catch$0
	DD	imagerel PMCCS_DivRem_L_X$catch$0+37
	DD	imagerel $unwind$PMCCS_DivRem_L_X$catch$0
pdata	ENDS
;	COMDAT pdata
pdata	SEGMENT
$pdata$PMCCS_DivRem_X_I DD imagerel $LN13
	DD	imagerel $LN13+55
	DD	imagerel $unwind$PMCCS_DivRem_X_I
pdata	ENDS
;	COMDAT pdata
pdata	SEGMENT
$pdata$PMCCS_DivRem_X_I$catch$0 DD imagerel PMCCS_DivRem_X_I$catch$0
	DD	imagerel PMCCS_DivRem_X_I$catch$0+37
	DD	imagerel $unwind$PMCCS_DivRem_X_I$catch$0
pdata	ENDS
;	COMDAT pdata
pdata	SEGMENT
$pdata$PMCCS_DivRem_X_L DD imagerel $LN13
	DD	imagerel $LN13+56
	DD	imagerel $unwind$PMCCS_DivRem_X_L
pdata	ENDS
;	COMDAT pdata
pdata	SEGMENT
$pdata$PMCCS_DivRem_X_L$catch$0 DD imagerel PMCCS_DivRem_X_L$catch$0
	DD	imagerel PMCCS_DivRem_X_L$catch$0+37
	DD	imagerel $unwind$PMCCS_DivRem_X_L$catch$0
pdata	ENDS
;	COMDAT pdata
pdata	SEGMENT
$pdata$PMCCS_DivRem_X_X DD imagerel $LN13
	DD	imagerel $LN13+56
	DD	imagerel $unwind$PMCCS_DivRem_X_X
pdata	ENDS
;	COMDAT pdata
pdata	SEGMENT
$pdata$PMCCS_DivRem_X_X$catch$0 DD imagerel PMCCS_DivRem_X_X$catch$0
	DD	imagerel PMCCS_DivRem_X_X$catch$0+37
	DD	imagerel $unwind$PMCCS_DivRem_X_X$catch$0
pdata	ENDS
;	COMDAT pdata
pdata	SEGMENT
$pdata$PMCCS_Remainder_I_X DD imagerel $LN13
	DD	imagerel $LN13+58
	DD	imagerel $unwind$PMCCS_Remainder_I_X
pdata	ENDS
;	COMDAT pdata
pdata	SEGMENT
$pdata$PMCCS_Remainder_I_X$catch$0 DD imagerel PMCCS_Remainder_I_X$catch$0
	DD	imagerel PMCCS_Remainder_I_X$catch$0+37
	DD	imagerel $unwind$PMCCS_Remainder_I_X$catch$0
pdata	ENDS
;	COMDAT pdata
pdata	SEGMENT
$pdata$PMCCS_Remainder_L_X DD imagerel $LN13
	DD	imagerel $LN13+59
	DD	imagerel $unwind$PMCCS_Remainder_L_X
pdata	ENDS
;	COMDAT pdata
pdata	SEGMENT
$pdata$PMCCS_Remainder_L_X$catch$0 DD imagerel PMCCS_Remainder_L_X$catch$0
	DD	imagerel PMCCS_Remainder_L_X$catch$0+37
	DD	imagerel $unwind$PMCCS_Remainder_L_X$catch$0
pdata	ENDS
;	COMDAT pdata
pdata	SEGMENT
$pdata$PMCCS_Remainder_X_I DD imagerel $LN13
	DD	imagerel $LN13+58
	DD	imagerel $unwind$PMCCS_Remainder_X_I
pdata	ENDS
;	COMDAT pdata
pdata	SEGMENT
$pdata$PMCCS_Remainder_X_I$catch$0 DD imagerel PMCCS_Remainder_X_I$catch$0
	DD	imagerel PMCCS_Remainder_X_I$catch$0+37
	DD	imagerel $unwind$PMCCS_Remainder_X_I$catch$0
pdata	ENDS
;	COMDAT pdata
pdata	SEGMENT
$pdata$PMCCS_Remainder_X_L DD imagerel $LN13
	DD	imagerel $LN13+59
	DD	imagerel $unwind$PMCCS_Remainder_X_L
pdata	ENDS
;	COMDAT pdata
pdata	SEGMENT
$pdata$PMCCS_Remainder_X_L$catch$0 DD imagerel PMCCS_Remainder_X_L$catch$0
	DD	imagerel PMCCS_Remainder_X_L$catch$0+37
	DD	imagerel $unwind$PMCCS_Remainder_X_L$catch$0
pdata	ENDS
;	COMDAT pdata
pdata	SEGMENT
$pdata$PMCCS_Remainder_X_X DD imagerel $LN13
	DD	imagerel $LN13+59
	DD	imagerel $unwind$PMCCS_Remainder_X_X
pdata	ENDS
;	COMDAT pdata
pdata	SEGMENT
$pdata$PMCCS_Remainder_X_X$catch$0 DD imagerel PMCCS_Remainder_X_X$catch$0
	DD	imagerel PMCCS_Remainder_X_X$catch$0+37
	DD	imagerel $unwind$PMCCS_Remainder_X_X$catch$0
pdata	ENDS
;	COMDAT pdata
pdata	SEGMENT
$pdata$PMCCS_RightShift_X_I DD imagerel $LN13
	DD	imagerel $LN13+56
	DD	imagerel $unwind$PMCCS_RightShift_X_I
pdata	ENDS
;	COMDAT pdata
pdata	SEGMENT
$pdata$PMCCS_RightShift_X_I$catch$0 DD imagerel PMCCS_RightShift_X_I$catch$0
	DD	imagerel PMCCS_RightShift_X_I$catch$0+37
	DD	imagerel $unwind$PMCCS_RightShift_X_I$catch$0
pdata	ENDS
;	COMDAT pdata
pdata	SEGMENT
$pdata$PMCCS_LeftShift_X_I DD imagerel $LN13
	DD	imagerel $LN13+56
	DD	imagerel $unwind$PMCCS_LeftShift_X_I
pdata	ENDS
;	COMDAT pdata
pdata	SEGMENT
$pdata$PMCCS_LeftShift_X_I$catch$0 DD imagerel PMCCS_LeftShift_X_I$catch$0
	DD	imagerel PMCCS_LeftShift_X_I$catch$0+37
	DD	imagerel $unwind$PMCCS_LeftShift_X_I$catch$0
pdata	ENDS
;	COMDAT pdata
pdata	SEGMENT
$pdata$PMCCS_BitwiseAnd_I_X DD imagerel $LN13
	DD	imagerel $LN13+55
	DD	imagerel $unwind$PMCCS_BitwiseAnd_I_X
pdata	ENDS
;	COMDAT pdata
pdata	SEGMENT
$pdata$PMCCS_BitwiseAnd_I_X$catch$0 DD imagerel PMCCS_BitwiseAnd_I_X$catch$0
	DD	imagerel PMCCS_BitwiseAnd_I_X$catch$0+37
	DD	imagerel $unwind$PMCCS_BitwiseAnd_I_X$catch$0
pdata	ENDS
;	COMDAT pdata
pdata	SEGMENT
$pdata$PMCCS_BitwiseAnd_L_X DD imagerel $LN13
	DD	imagerel $LN13+56
	DD	imagerel $unwind$PMCCS_BitwiseAnd_L_X
pdata	ENDS
;	COMDAT pdata
pdata	SEGMENT
$pdata$PMCCS_BitwiseAnd_L_X$catch$0 DD imagerel PMCCS_BitwiseAnd_L_X$catch$0
	DD	imagerel PMCCS_BitwiseAnd_L_X$catch$0+37
	DD	imagerel $unwind$PMCCS_BitwiseAnd_L_X$catch$0
pdata	ENDS
;	COMDAT pdata
pdata	SEGMENT
$pdata$PMCCS_BitwiseAnd_X_I DD imagerel $LN13
	DD	imagerel $LN13+55
	DD	imagerel $unwind$PMCCS_BitwiseAnd_X_I
pdata	ENDS
;	COMDAT pdata
pdata	SEGMENT
$pdata$PMCCS_BitwiseAnd_X_I$catch$0 DD imagerel PMCCS_BitwiseAnd_X_I$catch$0
	DD	imagerel PMCCS_BitwiseAnd_X_I$catch$0+37
	DD	imagerel $unwind$PMCCS_BitwiseAnd_X_I$catch$0
pdata	ENDS
;	COMDAT pdata
pdata	SEGMENT
$pdata$PMCCS_BitwiseAnd_X_L DD imagerel $LN13
	DD	imagerel $LN13+56
	DD	imagerel $unwind$PMCCS_BitwiseAnd_X_L
pdata	ENDS
;	COMDAT pdata
pdata	SEGMENT
$pdata$PMCCS_BitwiseAnd_X_L$catch$0 DD imagerel PMCCS_BitwiseAnd_X_L$catch$0
	DD	imagerel PMCCS_BitwiseAnd_X_L$catch$0+37
	DD	imagerel $unwind$PMCCS_BitwiseAnd_X_L$catch$0
pdata	ENDS
;	COMDAT pdata
pdata	SEGMENT
$pdata$PMCCS_BitwiseAnd_X_X DD imagerel $LN13
	DD	imagerel $LN13+56
	DD	imagerel $unwind$PMCCS_BitwiseAnd_X_X
pdata	ENDS
;	COMDAT pdata
pdata	SEGMENT
$pdata$PMCCS_BitwiseAnd_X_X$catch$0 DD imagerel PMCCS_BitwiseAnd_X_X$catch$0
	DD	imagerel PMCCS_BitwiseAnd_X_X$catch$0+37
	DD	imagerel $unwind$PMCCS_BitwiseAnd_X_X$catch$0
pdata	ENDS
;	COMDAT pdata
pdata	SEGMENT
$pdata$PMCCS_BitwiseOr_I_X DD imagerel $LN13
	DD	imagerel $LN13+56
	DD	imagerel $unwind$PMCCS_BitwiseOr_I_X
pdata	ENDS
;	COMDAT pdata
pdata	SEGMENT
$pdata$PMCCS_BitwiseOr_I_X$catch$0 DD imagerel PMCCS_BitwiseOr_I_X$catch$0
	DD	imagerel PMCCS_BitwiseOr_I_X$catch$0+37
	DD	imagerel $unwind$PMCCS_BitwiseOr_I_X$catch$0
pdata	ENDS
;	COMDAT pdata
pdata	SEGMENT
$pdata$PMCCS_BitwiseOr_L_X DD imagerel $LN13
	DD	imagerel $LN13+56
	DD	imagerel $unwind$PMCCS_BitwiseOr_L_X
pdata	ENDS
;	COMDAT pdata
pdata	SEGMENT
$pdata$PMCCS_BitwiseOr_L_X$catch$0 DD imagerel PMCCS_BitwiseOr_L_X$catch$0
	DD	imagerel PMCCS_BitwiseOr_L_X$catch$0+37
	DD	imagerel $unwind$PMCCS_BitwiseOr_L_X$catch$0
pdata	ENDS
;	COMDAT pdata
pdata	SEGMENT
$pdata$PMCCS_BitwiseOr_X_I DD imagerel $LN13
	DD	imagerel $LN13+56
	DD	imagerel $unwind$PMCCS_BitwiseOr_X_I
pdata	ENDS
;	COMDAT pdata
pdata	SEGMENT
$pdata$PMCCS_BitwiseOr_X_I$catch$0 DD imagerel PMCCS_BitwiseOr_X_I$catch$0
	DD	imagerel PMCCS_BitwiseOr_X_I$catch$0+37
	DD	imagerel $unwind$PMCCS_BitwiseOr_X_I$catch$0
pdata	ENDS
;	COMDAT pdata
pdata	SEGMENT
$pdata$PMCCS_BitwiseOr_X_L DD imagerel $LN13
	DD	imagerel $LN13+56
	DD	imagerel $unwind$PMCCS_BitwiseOr_X_L
pdata	ENDS
;	COMDAT pdata
pdata	SEGMENT
$pdata$PMCCS_BitwiseOr_X_L$catch$0 DD imagerel PMCCS_BitwiseOr_X_L$catch$0
	DD	imagerel PMCCS_BitwiseOr_X_L$catch$0+37
	DD	imagerel $unwind$PMCCS_BitwiseOr_X_L$catch$0
pdata	ENDS
;	COMDAT pdata
pdata	SEGMENT
$pdata$PMCCS_BitwiseOr_X_X DD imagerel $LN13
	DD	imagerel $LN13+56
	DD	imagerel $unwind$PMCCS_BitwiseOr_X_X
pdata	ENDS
;	COMDAT pdata
pdata	SEGMENT
$pdata$PMCCS_BitwiseOr_X_X$catch$0 DD imagerel PMCCS_BitwiseOr_X_X$catch$0
	DD	imagerel PMCCS_BitwiseOr_X_X$catch$0+37
	DD	imagerel $unwind$PMCCS_BitwiseOr_X_X$catch$0
pdata	ENDS
;	COMDAT pdata
pdata	SEGMENT
$pdata$PMCCS_ExclusiveOr_I_X DD imagerel $LN13
	DD	imagerel $LN13+56
	DD	imagerel $unwind$PMCCS_ExclusiveOr_I_X
pdata	ENDS
;	COMDAT pdata
pdata	SEGMENT
$pdata$PMCCS_ExclusiveOr_I_X$catch$0 DD imagerel PMCCS_ExclusiveOr_I_X$catch$0
	DD	imagerel PMCCS_ExclusiveOr_I_X$catch$0+37
	DD	imagerel $unwind$PMCCS_ExclusiveOr_I_X$catch$0
pdata	ENDS
;	COMDAT pdata
pdata	SEGMENT
$pdata$PMCCS_ExclusiveOr_L_X DD imagerel $LN13
	DD	imagerel $LN13+56
	DD	imagerel $unwind$PMCCS_ExclusiveOr_L_X
pdata	ENDS
;	COMDAT pdata
pdata	SEGMENT
$pdata$PMCCS_ExclusiveOr_L_X$catch$0 DD imagerel PMCCS_ExclusiveOr_L_X$catch$0
	DD	imagerel PMCCS_ExclusiveOr_L_X$catch$0+37
	DD	imagerel $unwind$PMCCS_ExclusiveOr_L_X$catch$0
pdata	ENDS
;	COMDAT pdata
pdata	SEGMENT
$pdata$PMCCS_ExclusiveOr_X_I DD imagerel $LN13
	DD	imagerel $LN13+56
	DD	imagerel $unwind$PMCCS_ExclusiveOr_X_I
pdata	ENDS
;	COMDAT pdata
pdata	SEGMENT
$pdata$PMCCS_ExclusiveOr_X_I$catch$0 DD imagerel PMCCS_ExclusiveOr_X_I$catch$0
	DD	imagerel PMCCS_ExclusiveOr_X_I$catch$0+37
	DD	imagerel $unwind$PMCCS_ExclusiveOr_X_I$catch$0
pdata	ENDS
;	COMDAT pdata
pdata	SEGMENT
$pdata$PMCCS_ExclusiveOr_X_L DD imagerel $LN13
	DD	imagerel $LN13+56
	DD	imagerel $unwind$PMCCS_ExclusiveOr_X_L
pdata	ENDS
;	COMDAT pdata
pdata	SEGMENT
$pdata$PMCCS_ExclusiveOr_X_L$catch$0 DD imagerel PMCCS_ExclusiveOr_X_L$catch$0
	DD	imagerel PMCCS_ExclusiveOr_X_L$catch$0+37
	DD	imagerel $unwind$PMCCS_ExclusiveOr_X_L$catch$0
pdata	ENDS
;	COMDAT pdata
pdata	SEGMENT
$pdata$PMCCS_ExclusiveOr_X_X DD imagerel $LN13
	DD	imagerel $LN13+56
	DD	imagerel $unwind$PMCCS_ExclusiveOr_X_X
pdata	ENDS
;	COMDAT pdata
pdata	SEGMENT
$pdata$PMCCS_ExclusiveOr_X_X$catch$0 DD imagerel PMCCS_ExclusiveOr_X_X$catch$0
	DD	imagerel PMCCS_ExclusiveOr_X_X$catch$0+37
	DD	imagerel $unwind$PMCCS_ExclusiveOr_X_X$catch$0
pdata	ENDS
;	COMDAT pdata
pdata	SEGMENT
$pdata$PMCCS_Compare_I_X DD imagerel $LN13
	DD	imagerel $LN13+55
	DD	imagerel $unwind$PMCCS_Compare_I_X
pdata	ENDS
;	COMDAT pdata
pdata	SEGMENT
$pdata$PMCCS_Compare_I_X$catch$0 DD imagerel PMCCS_Compare_I_X$catch$0
	DD	imagerel PMCCS_Compare_I_X$catch$0+37
	DD	imagerel $unwind$PMCCS_Compare_I_X$catch$0
pdata	ENDS
;	COMDAT pdata
pdata	SEGMENT
$pdata$PMCCS_Compare_L_X DD imagerel $LN13
	DD	imagerel $LN13+55
	DD	imagerel $unwind$PMCCS_Compare_L_X
pdata	ENDS
;	COMDAT pdata
pdata	SEGMENT
$pdata$PMCCS_Compare_L_X$catch$0 DD imagerel PMCCS_Compare_L_X$catch$0
	DD	imagerel PMCCS_Compare_L_X$catch$0+37
	DD	imagerel $unwind$PMCCS_Compare_L_X$catch$0
pdata	ENDS
;	COMDAT pdata
pdata	SEGMENT
$pdata$PMCCS_Compare_X_I DD imagerel $LN13
	DD	imagerel $LN13+55
	DD	imagerel $unwind$PMCCS_Compare_X_I
pdata	ENDS
;	COMDAT pdata
pdata	SEGMENT
$pdata$PMCCS_Compare_X_I$catch$0 DD imagerel PMCCS_Compare_X_I$catch$0
	DD	imagerel PMCCS_Compare_X_I$catch$0+37
	DD	imagerel $unwind$PMCCS_Compare_X_I$catch$0
pdata	ENDS
;	COMDAT pdata
pdata	SEGMENT
$pdata$PMCCS_Compare_X_L DD imagerel $LN13
	DD	imagerel $LN13+55
	DD	imagerel $unwind$PMCCS_Compare_X_L
pdata	ENDS
;	COMDAT pdata
pdata	SEGMENT
$pdata$PMCCS_Compare_X_L$catch$0 DD imagerel PMCCS_Compare_X_L$catch$0
	DD	imagerel PMCCS_Compare_X_L$catch$0+37
	DD	imagerel $unwind$PMCCS_Compare_X_L$catch$0
pdata	ENDS
;	COMDAT pdata
pdata	SEGMENT
$pdata$PMCCS_Compare_X_X DD imagerel $LN13
	DD	imagerel $LN13+55
	DD	imagerel $unwind$PMCCS_Compare_X_X
pdata	ENDS
;	COMDAT pdata
pdata	SEGMENT
$pdata$PMCCS_Compare_X_X$catch$0 DD imagerel PMCCS_Compare_X_X$catch$0
	DD	imagerel PMCCS_Compare_X_X$catch$0+37
	DD	imagerel $unwind$PMCCS_Compare_X_X$catch$0
pdata	ENDS
;	COMDAT pdata
pdata	SEGMENT
$pdata$PMCCS_Equals_I_X DD imagerel $LN13
	DD	imagerel $LN13+55
	DD	imagerel $unwind$PMCCS_Equals_I_X
pdata	ENDS
;	COMDAT pdata
pdata	SEGMENT
$pdata$PMCCS_Equals_I_X$catch$0 DD imagerel PMCCS_Equals_I_X$catch$0
	DD	imagerel PMCCS_Equals_I_X$catch$0+37
	DD	imagerel $unwind$PMCCS_Equals_I_X$catch$0
pdata	ENDS
;	COMDAT pdata
pdata	SEGMENT
$pdata$PMCCS_Equals_L_X DD imagerel $LN13
	DD	imagerel $LN13+55
	DD	imagerel $unwind$PMCCS_Equals_L_X
pdata	ENDS
;	COMDAT pdata
pdata	SEGMENT
$pdata$PMCCS_Equals_L_X$catch$0 DD imagerel PMCCS_Equals_L_X$catch$0
	DD	imagerel PMCCS_Equals_L_X$catch$0+37
	DD	imagerel $unwind$PMCCS_Equals_L_X$catch$0
pdata	ENDS
;	COMDAT pdata
pdata	SEGMENT
$pdata$PMCCS_Equals_X_I DD imagerel $LN13
	DD	imagerel $LN13+55
	DD	imagerel $unwind$PMCCS_Equals_X_I
pdata	ENDS
;	COMDAT pdata
pdata	SEGMENT
$pdata$PMCCS_Equals_X_I$catch$0 DD imagerel PMCCS_Equals_X_I$catch$0
	DD	imagerel PMCCS_Equals_X_I$catch$0+37
	DD	imagerel $unwind$PMCCS_Equals_X_I$catch$0
pdata	ENDS
;	COMDAT pdata
pdata	SEGMENT
$pdata$PMCCS_Equals_X_L DD imagerel $LN13
	DD	imagerel $LN13+55
	DD	imagerel $unwind$PMCCS_Equals_X_L
pdata	ENDS
;	COMDAT pdata
pdata	SEGMENT
$pdata$PMCCS_Equals_X_L$catch$0 DD imagerel PMCCS_Equals_X_L$catch$0
	DD	imagerel PMCCS_Equals_X_L$catch$0+37
	DD	imagerel $unwind$PMCCS_Equals_X_L$catch$0
pdata	ENDS
;	COMDAT pdata
pdata	SEGMENT
$pdata$PMCCS_Equals_X_X DD imagerel $LN13
	DD	imagerel $LN13+55
	DD	imagerel $unwind$PMCCS_Equals_X_X
pdata	ENDS
;	COMDAT pdata
pdata	SEGMENT
$pdata$PMCCS_Equals_X_X$catch$0 DD imagerel PMCCS_Equals_X_X$catch$0
	DD	imagerel PMCCS_Equals_X_X$catch$0+37
	DD	imagerel $unwind$PMCCS_Equals_X_X$catch$0
pdata	ENDS
;	COMDAT pdata
pdata	SEGMENT
$pdata$PMCCS_GreatestCommonDivisor_I_X DD imagerel $LN13
	DD	imagerel $LN13+56
	DD	imagerel $unwind$PMCCS_GreatestCommonDivisor_I_X
pdata	ENDS
;	COMDAT pdata
pdata	SEGMENT
$pdata$PMCCS_GreatestCommonDivisor_I_X$catch$0 DD imagerel PMCCS_GreatestCommonDivisor_I_X$catch$0
	DD	imagerel PMCCS_GreatestCommonDivisor_I_X$catch$0+37
	DD	imagerel $unwind$PMCCS_GreatestCommonDivisor_I_X$catch$0
pdata	ENDS
;	COMDAT pdata
pdata	SEGMENT
$pdata$PMCCS_GreatestCommonDivisor_L_X DD imagerel $LN13
	DD	imagerel $LN13+56
	DD	imagerel $unwind$PMCCS_GreatestCommonDivisor_L_X
pdata	ENDS
;	COMDAT pdata
pdata	SEGMENT
$pdata$PMCCS_GreatestCommonDivisor_L_X$catch$0 DD imagerel PMCCS_GreatestCommonDivisor_L_X$catch$0
	DD	imagerel PMCCS_GreatestCommonDivisor_L_X$catch$0+37
	DD	imagerel $unwind$PMCCS_GreatestCommonDivisor_L_X$catch$0
pdata	ENDS
;	COMDAT pdata
pdata	SEGMENT
$pdata$PMCCS_GreatestCommonDivisor_X_I DD imagerel $LN13
	DD	imagerel $LN13+56
	DD	imagerel $unwind$PMCCS_GreatestCommonDivisor_X_I
pdata	ENDS
;	COMDAT pdata
pdata	SEGMENT
$pdata$PMCCS_GreatestCommonDivisor_X_I$catch$0 DD imagerel PMCCS_GreatestCommonDivisor_X_I$catch$0
	DD	imagerel PMCCS_GreatestCommonDivisor_X_I$catch$0+37
	DD	imagerel $unwind$PMCCS_GreatestCommonDivisor_X_I$catch$0
pdata	ENDS
;	COMDAT pdata
pdata	SEGMENT
$pdata$PMCCS_GreatestCommonDivisor_X_L DD imagerel $LN13
	DD	imagerel $LN13+56
	DD	imagerel $unwind$PMCCS_GreatestCommonDivisor_X_L
pdata	ENDS
;	COMDAT pdata
pdata	SEGMENT
$pdata$PMCCS_GreatestCommonDivisor_X_L$catch$0 DD imagerel PMCCS_GreatestCommonDivisor_X_L$catch$0
	DD	imagerel PMCCS_GreatestCommonDivisor_X_L$catch$0+37
	DD	imagerel $unwind$PMCCS_GreatestCommonDivisor_X_L$catch$0
pdata	ENDS
;	COMDAT pdata
pdata	SEGMENT
$pdata$PMCCS_GreatestCommonDivisor_X_X DD imagerel $LN13
	DD	imagerel $LN13+56
	DD	imagerel $unwind$PMCCS_GreatestCommonDivisor_X_X
pdata	ENDS
;	COMDAT pdata
pdata	SEGMENT
$pdata$PMCCS_GreatestCommonDivisor_X_X$catch$0 DD imagerel PMCCS_GreatestCommonDivisor_X_X$catch$0
	DD	imagerel PMCCS_GreatestCommonDivisor_X_X$catch$0+37
	DD	imagerel $unwind$PMCCS_GreatestCommonDivisor_X_X$catch$0
pdata	ENDS
;	COMDAT pdata
pdata	SEGMENT
$pdata$PMCCS_Pow_X_I DD imagerel $LN13
	DD	imagerel $LN13+56
	DD	imagerel $unwind$PMCCS_Pow_X_I
pdata	ENDS
;	COMDAT pdata
pdata	SEGMENT
$pdata$PMCCS_Pow_X_I$catch$0 DD imagerel PMCCS_Pow_X_I$catch$0
	DD	imagerel PMCCS_Pow_X_I$catch$0+37
	DD	imagerel $unwind$PMCCS_Pow_X_I$catch$0
pdata	ENDS
;	COMDAT pdata
pdata	SEGMENT
$pdata$PMCCS_Pow_X_L DD imagerel $LN13
	DD	imagerel $LN13+56
	DD	imagerel $unwind$PMCCS_Pow_X_L
pdata	ENDS
;	COMDAT pdata
pdata	SEGMENT
$pdata$PMCCS_Pow_X_L$catch$0 DD imagerel PMCCS_Pow_X_L$catch$0
	DD	imagerel PMCCS_Pow_X_L$catch$0+37
	DD	imagerel $unwind$PMCCS_Pow_X_L$catch$0
pdata	ENDS
;	COMDAT pdata
pdata	SEGMENT
$pdata$PMCCS_ModPow_X_X_X DD imagerel $LN13
	DD	imagerel $LN13+56
	DD	imagerel $unwind$PMCCS_ModPow_X_X_X
pdata	ENDS
;	COMDAT pdata
pdata	SEGMENT
$pdata$PMCCS_ModPow_X_X_X$catch$0 DD imagerel PMCCS_ModPow_X_X_X$catch$0
	DD	imagerel PMCCS_ModPow_X_X_X$catch$0+37
	DD	imagerel $unwind$PMCCS_ModPow_X_X_X$catch$0
pdata	ENDS
;	COMDAT pdata
pdata	SEGMENT
$pdata$PMCCS_TimesOfExponentOf10 DD imagerel $LN13
	DD	imagerel $LN13+56
	DD	imagerel $unwind$PMCCS_TimesOfExponentOf10
pdata	ENDS
;	COMDAT pdata
pdata	SEGMENT
$pdata$PMCCS_TimesOfExponentOf10$catch$0 DD imagerel PMCCS_TimesOfExponentOf10$catch$0
	DD	imagerel PMCCS_TimesOfExponentOf10$catch$0+37
	DD	imagerel $unwind$PMCCS_TimesOfExponentOf10$catch$0
pdata	ENDS
;	COMDAT pdata
pdata	SEGMENT
$pdata$PMCCS_Floor_Log10 DD imagerel $LN13
	DD	imagerel $LN13+54
	DD	imagerel $unwind$PMCCS_Floor_Log10
pdata	ENDS
;	COMDAT pdata
pdata	SEGMENT
$pdata$PMCCS_Floor_Log10$catch$0 DD imagerel PMCCS_Floor_Log10$catch$0
	DD	imagerel PMCCS_Floor_Log10$catch$0+37
	DD	imagerel $unwind$PMCCS_Floor_Log10$catch$0
pdata	ENDS
;	COMDAT ??_R0?AVException@Internal@Core@Math@Palmtree@@@8
data$r	SEGMENT
??_R0?AVException@Internal@Core@Math@Palmtree@@@8 DQ FLAT:??_7type_info@@6B@ ; Palmtree::Math::Core::Internal::Exception `RTTI Type Descriptor'
	DQ	0000000000000000H
	DB	'.?AVException@Internal@Core@Math@Palmtree@@', 00H
data$r	ENDS
;	COMDAT xdata
xdata	SEGMENT
$unwind$PMCCS_Floor_Log10$catch$0 DD 020a19H
	DD	05006320aH
	DD	imagerel __CxxFrameHandler3
	DD	imagerel $cppxdata$PMCCS_Floor_Log10
xdata	ENDS
;	COMDAT xdata
xdata	SEGMENT
$ip2state$PMCCS_Floor_Log10 DD imagerel PMCCS_Floor_Log10
	DD	0ffffffffH
	DD	imagerel PMCCS_Floor_Log10+32
	DD	00H
	DD	imagerel PMCCS_Floor_Log10+43
	DD	0ffffffffH
	DD	imagerel PMCCS_Floor_Log10+47
	DD	00H
	DD	imagerel PMCCS_Floor_Log10$catch$0+13
	DD	01H
	DD	imagerel PMCCS_Floor_Log10$catch$0+23
	DD	00H
xdata	ENDS
;	COMDAT xdata
xdata	SEGMENT
$handlerMap$0$PMCCS_Floor_Log10 DD 09H
	DD	imagerel ??_R0?AVException@Internal@Core@Math@Palmtree@@@8
	DD	028H
	DD	imagerel PMCCS_Floor_Log10$catch$0
	DD	038H
xdata	ENDS
;	COMDAT xdata
xdata	SEGMENT
$tryMap$PMCCS_Floor_Log10 DD 00H
	DD	00H
	DD	01H
	DD	01H
	DD	imagerel $handlerMap$0$PMCCS_Floor_Log10
xdata	ENDS
;	COMDAT xdata
xdata	SEGMENT
$stateUnwindMap$PMCCS_Floor_Log10 DD 0ffffffffH
	DD	00H
	DD	0ffffffffH
	DD	00H
xdata	ENDS
;	COMDAT CONST
CONST	SEGMENT
$cppxdata$PMCCS_Floor_Log10 DD 019930522H
	DD	02H
	DD	imagerel $stateUnwindMap$PMCCS_Floor_Log10
	DD	01H
	DD	imagerel $tryMap$PMCCS_Floor_Log10
	DD	06H
	DD	imagerel $ip2state$PMCCS_Floor_Log10
	DD	020H
	DD	00H
	DD	00H
CONST	ENDS
;	COMDAT xdata
xdata	SEGMENT
$unwind$PMCCS_Floor_Log10 DD 020f19H
	DD	030025206H
	DD	imagerel __CxxFrameHandler3
	DD	imagerel $cppxdata$PMCCS_Floor_Log10
xdata	ENDS
;	COMDAT xdata
xdata	SEGMENT
$unwind$PMCCS_TimesOfExponentOf10$catch$0 DD 020a19H
	DD	05006320aH
	DD	imagerel __CxxFrameHandler3
	DD	imagerel $cppxdata$PMCCS_TimesOfExponentOf10
xdata	ENDS
;	COMDAT xdata
xdata	SEGMENT
$ip2state$PMCCS_TimesOfExponentOf10 DD imagerel PMCCS_TimesOfExponentOf10
	DD	0ffffffffH
	DD	imagerel PMCCS_TimesOfExponentOf10+33
	DD	00H
	DD	imagerel PMCCS_TimesOfExponentOf10+45
	DD	0ffffffffH
	DD	imagerel PMCCS_TimesOfExponentOf10+49
	DD	00H
	DD	imagerel PMCCS_TimesOfExponentOf10$catch$0+13
	DD	01H
	DD	imagerel PMCCS_TimesOfExponentOf10$catch$0+23
	DD	00H
xdata	ENDS
;	COMDAT xdata
xdata	SEGMENT
$handlerMap$0$PMCCS_TimesOfExponentOf10 DD 09H
	DD	imagerel ??_R0?AVException@Internal@Core@Math@Palmtree@@@8
	DD	028H
	DD	imagerel PMCCS_TimesOfExponentOf10$catch$0
	DD	038H
xdata	ENDS
;	COMDAT xdata
xdata	SEGMENT
$tryMap$PMCCS_TimesOfExponentOf10 DD 00H
	DD	00H
	DD	01H
	DD	01H
	DD	imagerel $handlerMap$0$PMCCS_TimesOfExponentOf10
xdata	ENDS
;	COMDAT xdata
xdata	SEGMENT
$stateUnwindMap$PMCCS_TimesOfExponentOf10 DD 0ffffffffH
	DD	00H
	DD	0ffffffffH
	DD	00H
xdata	ENDS
;	COMDAT CONST
CONST	SEGMENT
$cppxdata$PMCCS_TimesOfExponentOf10 DD 019930522H
	DD	02H
	DD	imagerel $stateUnwindMap$PMCCS_TimesOfExponentOf10
	DD	01H
	DD	imagerel $tryMap$PMCCS_TimesOfExponentOf10
	DD	06H
	DD	imagerel $ip2state$PMCCS_TimesOfExponentOf10
	DD	020H
	DD	00H
	DD	00H
CONST	ENDS
;	COMDAT xdata
xdata	SEGMENT
$unwind$PMCCS_TimesOfExponentOf10 DD 020f19H
	DD	030025206H
	DD	imagerel __CxxFrameHandler3
	DD	imagerel $cppxdata$PMCCS_TimesOfExponentOf10
xdata	ENDS
;	COMDAT xdata
xdata	SEGMENT
$unwind$PMCCS_ModPow_X_X_X$catch$0 DD 020a19H
	DD	05006320aH
	DD	imagerel __CxxFrameHandler3
	DD	imagerel $cppxdata$PMCCS_ModPow_X_X_X
xdata	ENDS
;	COMDAT xdata
xdata	SEGMENT
$ip2state$PMCCS_ModPow_X_X_X DD imagerel PMCCS_ModPow_X_X_X
	DD	0ffffffffH
	DD	imagerel PMCCS_ModPow_X_X_X+33
	DD	00H
	DD	imagerel PMCCS_ModPow_X_X_X+45
	DD	0ffffffffH
	DD	imagerel PMCCS_ModPow_X_X_X+49
	DD	00H
	DD	imagerel PMCCS_ModPow_X_X_X$catch$0+13
	DD	01H
	DD	imagerel PMCCS_ModPow_X_X_X$catch$0+23
	DD	00H
xdata	ENDS
;	COMDAT xdata
xdata	SEGMENT
$handlerMap$0$PMCCS_ModPow_X_X_X DD 09H
	DD	imagerel ??_R0?AVException@Internal@Core@Math@Palmtree@@@8
	DD	028H
	DD	imagerel PMCCS_ModPow_X_X_X$catch$0
	DD	038H
xdata	ENDS
;	COMDAT xdata
xdata	SEGMENT
$tryMap$PMCCS_ModPow_X_X_X DD 00H
	DD	00H
	DD	01H
	DD	01H
	DD	imagerel $handlerMap$0$PMCCS_ModPow_X_X_X
xdata	ENDS
;	COMDAT xdata
xdata	SEGMENT
$stateUnwindMap$PMCCS_ModPow_X_X_X DD 0ffffffffH
	DD	00H
	DD	0ffffffffH
	DD	00H
xdata	ENDS
;	COMDAT CONST
CONST	SEGMENT
$cppxdata$PMCCS_ModPow_X_X_X DD 019930522H
	DD	02H
	DD	imagerel $stateUnwindMap$PMCCS_ModPow_X_X_X
	DD	01H
	DD	imagerel $tryMap$PMCCS_ModPow_X_X_X
	DD	06H
	DD	imagerel $ip2state$PMCCS_ModPow_X_X_X
	DD	020H
	DD	00H
	DD	00H
CONST	ENDS
;	COMDAT xdata
xdata	SEGMENT
$unwind$PMCCS_ModPow_X_X_X DD 020f19H
	DD	030025206H
	DD	imagerel __CxxFrameHandler3
	DD	imagerel $cppxdata$PMCCS_ModPow_X_X_X
xdata	ENDS
;	COMDAT xdata
xdata	SEGMENT
$unwind$PMCCS_Pow_X_L$catch$0 DD 020a19H
	DD	05006320aH
	DD	imagerel __CxxFrameHandler3
	DD	imagerel $cppxdata$PMCCS_Pow_X_L
xdata	ENDS
;	COMDAT xdata
xdata	SEGMENT
$ip2state$PMCCS_Pow_X_L DD imagerel PMCCS_Pow_X_L
	DD	0ffffffffH
	DD	imagerel PMCCS_Pow_X_L+33
	DD	00H
	DD	imagerel PMCCS_Pow_X_L+45
	DD	0ffffffffH
	DD	imagerel PMCCS_Pow_X_L+49
	DD	00H
	DD	imagerel PMCCS_Pow_X_L$catch$0+13
	DD	01H
	DD	imagerel PMCCS_Pow_X_L$catch$0+23
	DD	00H
xdata	ENDS
;	COMDAT xdata
xdata	SEGMENT
$handlerMap$0$PMCCS_Pow_X_L DD 09H
	DD	imagerel ??_R0?AVException@Internal@Core@Math@Palmtree@@@8
	DD	028H
	DD	imagerel PMCCS_Pow_X_L$catch$0
	DD	038H
xdata	ENDS
;	COMDAT xdata
xdata	SEGMENT
$tryMap$PMCCS_Pow_X_L DD 00H
	DD	00H
	DD	01H
	DD	01H
	DD	imagerel $handlerMap$0$PMCCS_Pow_X_L
xdata	ENDS
;	COMDAT xdata
xdata	SEGMENT
$stateUnwindMap$PMCCS_Pow_X_L DD 0ffffffffH
	DD	00H
	DD	0ffffffffH
	DD	00H
xdata	ENDS
;	COMDAT CONST
CONST	SEGMENT
$cppxdata$PMCCS_Pow_X_L DD 019930522H
	DD	02H
	DD	imagerel $stateUnwindMap$PMCCS_Pow_X_L
	DD	01H
	DD	imagerel $tryMap$PMCCS_Pow_X_L
	DD	06H
	DD	imagerel $ip2state$PMCCS_Pow_X_L
	DD	020H
	DD	00H
	DD	00H
CONST	ENDS
;	COMDAT xdata
xdata	SEGMENT
$unwind$PMCCS_Pow_X_L DD 020f19H
	DD	030025206H
	DD	imagerel __CxxFrameHandler3
	DD	imagerel $cppxdata$PMCCS_Pow_X_L
xdata	ENDS
;	COMDAT xdata
xdata	SEGMENT
$unwind$PMCCS_Pow_X_I$catch$0 DD 020a19H
	DD	05006320aH
	DD	imagerel __CxxFrameHandler3
	DD	imagerel $cppxdata$PMCCS_Pow_X_I
xdata	ENDS
;	COMDAT xdata
xdata	SEGMENT
$ip2state$PMCCS_Pow_X_I DD imagerel PMCCS_Pow_X_I
	DD	0ffffffffH
	DD	imagerel PMCCS_Pow_X_I+33
	DD	00H
	DD	imagerel PMCCS_Pow_X_I+45
	DD	0ffffffffH
	DD	imagerel PMCCS_Pow_X_I+49
	DD	00H
	DD	imagerel PMCCS_Pow_X_I$catch$0+13
	DD	01H
	DD	imagerel PMCCS_Pow_X_I$catch$0+23
	DD	00H
xdata	ENDS
;	COMDAT xdata
xdata	SEGMENT
$handlerMap$0$PMCCS_Pow_X_I DD 09H
	DD	imagerel ??_R0?AVException@Internal@Core@Math@Palmtree@@@8
	DD	028H
	DD	imagerel PMCCS_Pow_X_I$catch$0
	DD	038H
xdata	ENDS
;	COMDAT xdata
xdata	SEGMENT
$tryMap$PMCCS_Pow_X_I DD 00H
	DD	00H
	DD	01H
	DD	01H
	DD	imagerel $handlerMap$0$PMCCS_Pow_X_I
xdata	ENDS
;	COMDAT xdata
xdata	SEGMENT
$stateUnwindMap$PMCCS_Pow_X_I DD 0ffffffffH
	DD	00H
	DD	0ffffffffH
	DD	00H
xdata	ENDS
;	COMDAT CONST
CONST	SEGMENT
$cppxdata$PMCCS_Pow_X_I DD 019930522H
	DD	02H
	DD	imagerel $stateUnwindMap$PMCCS_Pow_X_I
	DD	01H
	DD	imagerel $tryMap$PMCCS_Pow_X_I
	DD	06H
	DD	imagerel $ip2state$PMCCS_Pow_X_I
	DD	020H
	DD	00H
	DD	00H
CONST	ENDS
;	COMDAT xdata
xdata	SEGMENT
$unwind$PMCCS_Pow_X_I DD 020f19H
	DD	030025206H
	DD	imagerel __CxxFrameHandler3
	DD	imagerel $cppxdata$PMCCS_Pow_X_I
xdata	ENDS
;	COMDAT xdata
xdata	SEGMENT
$unwind$PMCCS_GreatestCommonDivisor_X_X$catch$0 DD 020a19H
	DD	05006320aH
	DD	imagerel __CxxFrameHandler3
	DD	imagerel $cppxdata$PMCCS_GreatestCommonDivisor_X_X
xdata	ENDS
;	COMDAT xdata
xdata	SEGMENT
$ip2state$PMCCS_GreatestCommonDivisor_X_X DD imagerel PMCCS_GreatestCommonDivisor_X_X
	DD	0ffffffffH
	DD	imagerel PMCCS_GreatestCommonDivisor_X_X+33
	DD	00H
	DD	imagerel PMCCS_GreatestCommonDivisor_X_X+45
	DD	0ffffffffH
	DD	imagerel PMCCS_GreatestCommonDivisor_X_X+49
	DD	00H
	DD	imagerel PMCCS_GreatestCommonDivisor_X_X$catch$0+13
	DD	01H
	DD	imagerel PMCCS_GreatestCommonDivisor_X_X$catch$0+23
	DD	00H
xdata	ENDS
;	COMDAT xdata
xdata	SEGMENT
$handlerMap$0$PMCCS_GreatestCommonDivisor_X_X DD 09H
	DD	imagerel ??_R0?AVException@Internal@Core@Math@Palmtree@@@8
	DD	028H
	DD	imagerel PMCCS_GreatestCommonDivisor_X_X$catch$0
	DD	038H
xdata	ENDS
;	COMDAT xdata
xdata	SEGMENT
$tryMap$PMCCS_GreatestCommonDivisor_X_X DD 00H
	DD	00H
	DD	01H
	DD	01H
	DD	imagerel $handlerMap$0$PMCCS_GreatestCommonDivisor_X_X
xdata	ENDS
;	COMDAT xdata
xdata	SEGMENT
$stateUnwindMap$PMCCS_GreatestCommonDivisor_X_X DD 0ffffffffH
	DD	00H
	DD	0ffffffffH
	DD	00H
xdata	ENDS
;	COMDAT CONST
CONST	SEGMENT
$cppxdata$PMCCS_GreatestCommonDivisor_X_X DD 019930522H
	DD	02H
	DD	imagerel $stateUnwindMap$PMCCS_GreatestCommonDivisor_X_X
	DD	01H
	DD	imagerel $tryMap$PMCCS_GreatestCommonDivisor_X_X
	DD	06H
	DD	imagerel $ip2state$PMCCS_GreatestCommonDivisor_X_X
	DD	020H
	DD	00H
	DD	00H
CONST	ENDS
;	COMDAT xdata
xdata	SEGMENT
$unwind$PMCCS_GreatestCommonDivisor_X_X DD 020f19H
	DD	030025206H
	DD	imagerel __CxxFrameHandler3
	DD	imagerel $cppxdata$PMCCS_GreatestCommonDivisor_X_X
xdata	ENDS
;	COMDAT xdata
xdata	SEGMENT
$unwind$PMCCS_GreatestCommonDivisor_X_L$catch$0 DD 020a19H
	DD	05006320aH
	DD	imagerel __CxxFrameHandler3
	DD	imagerel $cppxdata$PMCCS_GreatestCommonDivisor_X_L
xdata	ENDS
;	COMDAT xdata
xdata	SEGMENT
$ip2state$PMCCS_GreatestCommonDivisor_X_L DD imagerel PMCCS_GreatestCommonDivisor_X_L
	DD	0ffffffffH
	DD	imagerel PMCCS_GreatestCommonDivisor_X_L+33
	DD	00H
	DD	imagerel PMCCS_GreatestCommonDivisor_X_L+45
	DD	0ffffffffH
	DD	imagerel PMCCS_GreatestCommonDivisor_X_L+49
	DD	00H
	DD	imagerel PMCCS_GreatestCommonDivisor_X_L$catch$0+13
	DD	01H
	DD	imagerel PMCCS_GreatestCommonDivisor_X_L$catch$0+23
	DD	00H
xdata	ENDS
;	COMDAT xdata
xdata	SEGMENT
$handlerMap$0$PMCCS_GreatestCommonDivisor_X_L DD 09H
	DD	imagerel ??_R0?AVException@Internal@Core@Math@Palmtree@@@8
	DD	028H
	DD	imagerel PMCCS_GreatestCommonDivisor_X_L$catch$0
	DD	038H
xdata	ENDS
;	COMDAT xdata
xdata	SEGMENT
$tryMap$PMCCS_GreatestCommonDivisor_X_L DD 00H
	DD	00H
	DD	01H
	DD	01H
	DD	imagerel $handlerMap$0$PMCCS_GreatestCommonDivisor_X_L
xdata	ENDS
;	COMDAT xdata
xdata	SEGMENT
$stateUnwindMap$PMCCS_GreatestCommonDivisor_X_L DD 0ffffffffH
	DD	00H
	DD	0ffffffffH
	DD	00H
xdata	ENDS
;	COMDAT CONST
CONST	SEGMENT
$cppxdata$PMCCS_GreatestCommonDivisor_X_L DD 019930522H
	DD	02H
	DD	imagerel $stateUnwindMap$PMCCS_GreatestCommonDivisor_X_L
	DD	01H
	DD	imagerel $tryMap$PMCCS_GreatestCommonDivisor_X_L
	DD	06H
	DD	imagerel $ip2state$PMCCS_GreatestCommonDivisor_X_L
	DD	020H
	DD	00H
	DD	00H
CONST	ENDS
;	COMDAT xdata
xdata	SEGMENT
$unwind$PMCCS_GreatestCommonDivisor_X_L DD 020f19H
	DD	030025206H
	DD	imagerel __CxxFrameHandler3
	DD	imagerel $cppxdata$PMCCS_GreatestCommonDivisor_X_L
xdata	ENDS
;	COMDAT xdata
xdata	SEGMENT
$unwind$PMCCS_GreatestCommonDivisor_X_I$catch$0 DD 020a19H
	DD	05006320aH
	DD	imagerel __CxxFrameHandler3
	DD	imagerel $cppxdata$PMCCS_GreatestCommonDivisor_X_I
xdata	ENDS
;	COMDAT xdata
xdata	SEGMENT
$ip2state$PMCCS_GreatestCommonDivisor_X_I DD imagerel PMCCS_GreatestCommonDivisor_X_I
	DD	0ffffffffH
	DD	imagerel PMCCS_GreatestCommonDivisor_X_I+33
	DD	00H
	DD	imagerel PMCCS_GreatestCommonDivisor_X_I+45
	DD	0ffffffffH
	DD	imagerel PMCCS_GreatestCommonDivisor_X_I+49
	DD	00H
	DD	imagerel PMCCS_GreatestCommonDivisor_X_I$catch$0+13
	DD	01H
	DD	imagerel PMCCS_GreatestCommonDivisor_X_I$catch$0+23
	DD	00H
xdata	ENDS
;	COMDAT xdata
xdata	SEGMENT
$handlerMap$0$PMCCS_GreatestCommonDivisor_X_I DD 09H
	DD	imagerel ??_R0?AVException@Internal@Core@Math@Palmtree@@@8
	DD	028H
	DD	imagerel PMCCS_GreatestCommonDivisor_X_I$catch$0
	DD	038H
xdata	ENDS
;	COMDAT xdata
xdata	SEGMENT
$tryMap$PMCCS_GreatestCommonDivisor_X_I DD 00H
	DD	00H
	DD	01H
	DD	01H
	DD	imagerel $handlerMap$0$PMCCS_GreatestCommonDivisor_X_I
xdata	ENDS
;	COMDAT xdata
xdata	SEGMENT
$stateUnwindMap$PMCCS_GreatestCommonDivisor_X_I DD 0ffffffffH
	DD	00H
	DD	0ffffffffH
	DD	00H
xdata	ENDS
;	COMDAT CONST
CONST	SEGMENT
$cppxdata$PMCCS_GreatestCommonDivisor_X_I DD 019930522H
	DD	02H
	DD	imagerel $stateUnwindMap$PMCCS_GreatestCommonDivisor_X_I
	DD	01H
	DD	imagerel $tryMap$PMCCS_GreatestCommonDivisor_X_I
	DD	06H
	DD	imagerel $ip2state$PMCCS_GreatestCommonDivisor_X_I
	DD	020H
	DD	00H
	DD	00H
CONST	ENDS
;	COMDAT xdata
xdata	SEGMENT
$unwind$PMCCS_GreatestCommonDivisor_X_I DD 020f19H
	DD	030025206H
	DD	imagerel __CxxFrameHandler3
	DD	imagerel $cppxdata$PMCCS_GreatestCommonDivisor_X_I
xdata	ENDS
;	COMDAT xdata
xdata	SEGMENT
$unwind$PMCCS_GreatestCommonDivisor_L_X$catch$0 DD 020a19H
	DD	05006320aH
	DD	imagerel __CxxFrameHandler3
	DD	imagerel $cppxdata$PMCCS_GreatestCommonDivisor_L_X
xdata	ENDS
;	COMDAT xdata
xdata	SEGMENT
$ip2state$PMCCS_GreatestCommonDivisor_L_X DD imagerel PMCCS_GreatestCommonDivisor_L_X
	DD	0ffffffffH
	DD	imagerel PMCCS_GreatestCommonDivisor_L_X+33
	DD	00H
	DD	imagerel PMCCS_GreatestCommonDivisor_L_X+45
	DD	0ffffffffH
	DD	imagerel PMCCS_GreatestCommonDivisor_L_X+49
	DD	00H
	DD	imagerel PMCCS_GreatestCommonDivisor_L_X$catch$0+13
	DD	01H
	DD	imagerel PMCCS_GreatestCommonDivisor_L_X$catch$0+23
	DD	00H
xdata	ENDS
;	COMDAT xdata
xdata	SEGMENT
$handlerMap$0$PMCCS_GreatestCommonDivisor_L_X DD 09H
	DD	imagerel ??_R0?AVException@Internal@Core@Math@Palmtree@@@8
	DD	028H
	DD	imagerel PMCCS_GreatestCommonDivisor_L_X$catch$0
	DD	038H
xdata	ENDS
;	COMDAT xdata
xdata	SEGMENT
$tryMap$PMCCS_GreatestCommonDivisor_L_X DD 00H
	DD	00H
	DD	01H
	DD	01H
	DD	imagerel $handlerMap$0$PMCCS_GreatestCommonDivisor_L_X
xdata	ENDS
;	COMDAT xdata
xdata	SEGMENT
$stateUnwindMap$PMCCS_GreatestCommonDivisor_L_X DD 0ffffffffH
	DD	00H
	DD	0ffffffffH
	DD	00H
xdata	ENDS
;	COMDAT CONST
CONST	SEGMENT
$cppxdata$PMCCS_GreatestCommonDivisor_L_X DD 019930522H
	DD	02H
	DD	imagerel $stateUnwindMap$PMCCS_GreatestCommonDivisor_L_X
	DD	01H
	DD	imagerel $tryMap$PMCCS_GreatestCommonDivisor_L_X
	DD	06H
	DD	imagerel $ip2state$PMCCS_GreatestCommonDivisor_L_X
	DD	020H
	DD	00H
	DD	00H
CONST	ENDS
;	COMDAT xdata
xdata	SEGMENT
$unwind$PMCCS_GreatestCommonDivisor_L_X DD 020f19H
	DD	030025206H
	DD	imagerel __CxxFrameHandler3
	DD	imagerel $cppxdata$PMCCS_GreatestCommonDivisor_L_X
xdata	ENDS
;	COMDAT xdata
xdata	SEGMENT
$unwind$PMCCS_GreatestCommonDivisor_I_X$catch$0 DD 020a19H
	DD	05006320aH
	DD	imagerel __CxxFrameHandler3
	DD	imagerel $cppxdata$PMCCS_GreatestCommonDivisor_I_X
xdata	ENDS
;	COMDAT xdata
xdata	SEGMENT
$ip2state$PMCCS_GreatestCommonDivisor_I_X DD imagerel PMCCS_GreatestCommonDivisor_I_X
	DD	0ffffffffH
	DD	imagerel PMCCS_GreatestCommonDivisor_I_X+33
	DD	00H
	DD	imagerel PMCCS_GreatestCommonDivisor_I_X+45
	DD	0ffffffffH
	DD	imagerel PMCCS_GreatestCommonDivisor_I_X+49
	DD	00H
	DD	imagerel PMCCS_GreatestCommonDivisor_I_X$catch$0+13
	DD	01H
	DD	imagerel PMCCS_GreatestCommonDivisor_I_X$catch$0+23
	DD	00H
xdata	ENDS
;	COMDAT xdata
xdata	SEGMENT
$handlerMap$0$PMCCS_GreatestCommonDivisor_I_X DD 09H
	DD	imagerel ??_R0?AVException@Internal@Core@Math@Palmtree@@@8
	DD	028H
	DD	imagerel PMCCS_GreatestCommonDivisor_I_X$catch$0
	DD	038H
xdata	ENDS
;	COMDAT xdata
xdata	SEGMENT
$tryMap$PMCCS_GreatestCommonDivisor_I_X DD 00H
	DD	00H
	DD	01H
	DD	01H
	DD	imagerel $handlerMap$0$PMCCS_GreatestCommonDivisor_I_X
xdata	ENDS
;	COMDAT xdata
xdata	SEGMENT
$stateUnwindMap$PMCCS_GreatestCommonDivisor_I_X DD 0ffffffffH
	DD	00H
	DD	0ffffffffH
	DD	00H
xdata	ENDS
;	COMDAT CONST
CONST	SEGMENT
$cppxdata$PMCCS_GreatestCommonDivisor_I_X DD 019930522H
	DD	02H
	DD	imagerel $stateUnwindMap$PMCCS_GreatestCommonDivisor_I_X
	DD	01H
	DD	imagerel $tryMap$PMCCS_GreatestCommonDivisor_I_X
	DD	06H
	DD	imagerel $ip2state$PMCCS_GreatestCommonDivisor_I_X
	DD	020H
	DD	00H
	DD	00H
CONST	ENDS
;	COMDAT xdata
xdata	SEGMENT
$unwind$PMCCS_GreatestCommonDivisor_I_X DD 020f19H
	DD	030025206H
	DD	imagerel __CxxFrameHandler3
	DD	imagerel $cppxdata$PMCCS_GreatestCommonDivisor_I_X
xdata	ENDS
;	COMDAT xdata
xdata	SEGMENT
$unwind$PMCCS_Equals_X_X$catch$0 DD 020a19H
	DD	05006320aH
	DD	imagerel __CxxFrameHandler3
	DD	imagerel $cppxdata$PMCCS_Equals_X_X
xdata	ENDS
;	COMDAT xdata
xdata	SEGMENT
$ip2state$PMCCS_Equals_X_X DD imagerel PMCCS_Equals_X_X
	DD	0ffffffffH
	DD	imagerel PMCCS_Equals_X_X+33
	DD	00H
	DD	imagerel PMCCS_Equals_X_X+44
	DD	0ffffffffH
	DD	imagerel PMCCS_Equals_X_X+48
	DD	00H
	DD	imagerel PMCCS_Equals_X_X$catch$0+13
	DD	01H
	DD	imagerel PMCCS_Equals_X_X$catch$0+23
	DD	00H
xdata	ENDS
;	COMDAT xdata
xdata	SEGMENT
$handlerMap$0$PMCCS_Equals_X_X DD 09H
	DD	imagerel ??_R0?AVException@Internal@Core@Math@Palmtree@@@8
	DD	028H
	DD	imagerel PMCCS_Equals_X_X$catch$0
	DD	038H
xdata	ENDS
;	COMDAT xdata
xdata	SEGMENT
$tryMap$PMCCS_Equals_X_X DD 00H
	DD	00H
	DD	01H
	DD	01H
	DD	imagerel $handlerMap$0$PMCCS_Equals_X_X
xdata	ENDS
;	COMDAT xdata
xdata	SEGMENT
$stateUnwindMap$PMCCS_Equals_X_X DD 0ffffffffH
	DD	00H
	DD	0ffffffffH
	DD	00H
xdata	ENDS
;	COMDAT CONST
CONST	SEGMENT
$cppxdata$PMCCS_Equals_X_X DD 019930522H
	DD	02H
	DD	imagerel $stateUnwindMap$PMCCS_Equals_X_X
	DD	01H
	DD	imagerel $tryMap$PMCCS_Equals_X_X
	DD	06H
	DD	imagerel $ip2state$PMCCS_Equals_X_X
	DD	020H
	DD	00H
	DD	00H
CONST	ENDS
;	COMDAT xdata
xdata	SEGMENT
$unwind$PMCCS_Equals_X_X DD 020f19H
	DD	030025206H
	DD	imagerel __CxxFrameHandler3
	DD	imagerel $cppxdata$PMCCS_Equals_X_X
xdata	ENDS
;	COMDAT xdata
xdata	SEGMENT
$unwind$PMCCS_Equals_X_L$catch$0 DD 020a19H
	DD	05006320aH
	DD	imagerel __CxxFrameHandler3
	DD	imagerel $cppxdata$PMCCS_Equals_X_L
xdata	ENDS
;	COMDAT xdata
xdata	SEGMENT
$ip2state$PMCCS_Equals_X_L DD imagerel PMCCS_Equals_X_L
	DD	0ffffffffH
	DD	imagerel PMCCS_Equals_X_L+33
	DD	00H
	DD	imagerel PMCCS_Equals_X_L+44
	DD	0ffffffffH
	DD	imagerel PMCCS_Equals_X_L+48
	DD	00H
	DD	imagerel PMCCS_Equals_X_L$catch$0+13
	DD	01H
	DD	imagerel PMCCS_Equals_X_L$catch$0+23
	DD	00H
xdata	ENDS
;	COMDAT xdata
xdata	SEGMENT
$handlerMap$0$PMCCS_Equals_X_L DD 09H
	DD	imagerel ??_R0?AVException@Internal@Core@Math@Palmtree@@@8
	DD	028H
	DD	imagerel PMCCS_Equals_X_L$catch$0
	DD	038H
xdata	ENDS
;	COMDAT xdata
xdata	SEGMENT
$tryMap$PMCCS_Equals_X_L DD 00H
	DD	00H
	DD	01H
	DD	01H
	DD	imagerel $handlerMap$0$PMCCS_Equals_X_L
xdata	ENDS
;	COMDAT xdata
xdata	SEGMENT
$stateUnwindMap$PMCCS_Equals_X_L DD 0ffffffffH
	DD	00H
	DD	0ffffffffH
	DD	00H
xdata	ENDS
;	COMDAT CONST
CONST	SEGMENT
$cppxdata$PMCCS_Equals_X_L DD 019930522H
	DD	02H
	DD	imagerel $stateUnwindMap$PMCCS_Equals_X_L
	DD	01H
	DD	imagerel $tryMap$PMCCS_Equals_X_L
	DD	06H
	DD	imagerel $ip2state$PMCCS_Equals_X_L
	DD	020H
	DD	00H
	DD	00H
CONST	ENDS
;	COMDAT xdata
xdata	SEGMENT
$unwind$PMCCS_Equals_X_L DD 020f19H
	DD	030025206H
	DD	imagerel __CxxFrameHandler3
	DD	imagerel $cppxdata$PMCCS_Equals_X_L
xdata	ENDS
;	COMDAT xdata
xdata	SEGMENT
$unwind$PMCCS_Equals_X_I$catch$0 DD 020a19H
	DD	05006320aH
	DD	imagerel __CxxFrameHandler3
	DD	imagerel $cppxdata$PMCCS_Equals_X_I
xdata	ENDS
;	COMDAT xdata
xdata	SEGMENT
$ip2state$PMCCS_Equals_X_I DD imagerel PMCCS_Equals_X_I
	DD	0ffffffffH
	DD	imagerel PMCCS_Equals_X_I+33
	DD	00H
	DD	imagerel PMCCS_Equals_X_I+44
	DD	0ffffffffH
	DD	imagerel PMCCS_Equals_X_I+48
	DD	00H
	DD	imagerel PMCCS_Equals_X_I$catch$0+13
	DD	01H
	DD	imagerel PMCCS_Equals_X_I$catch$0+23
	DD	00H
xdata	ENDS
;	COMDAT xdata
xdata	SEGMENT
$handlerMap$0$PMCCS_Equals_X_I DD 09H
	DD	imagerel ??_R0?AVException@Internal@Core@Math@Palmtree@@@8
	DD	028H
	DD	imagerel PMCCS_Equals_X_I$catch$0
	DD	038H
xdata	ENDS
;	COMDAT xdata
xdata	SEGMENT
$tryMap$PMCCS_Equals_X_I DD 00H
	DD	00H
	DD	01H
	DD	01H
	DD	imagerel $handlerMap$0$PMCCS_Equals_X_I
xdata	ENDS
;	COMDAT xdata
xdata	SEGMENT
$stateUnwindMap$PMCCS_Equals_X_I DD 0ffffffffH
	DD	00H
	DD	0ffffffffH
	DD	00H
xdata	ENDS
;	COMDAT CONST
CONST	SEGMENT
$cppxdata$PMCCS_Equals_X_I DD 019930522H
	DD	02H
	DD	imagerel $stateUnwindMap$PMCCS_Equals_X_I
	DD	01H
	DD	imagerel $tryMap$PMCCS_Equals_X_I
	DD	06H
	DD	imagerel $ip2state$PMCCS_Equals_X_I
	DD	020H
	DD	00H
	DD	00H
CONST	ENDS
;	COMDAT xdata
xdata	SEGMENT
$unwind$PMCCS_Equals_X_I DD 020f19H
	DD	030025206H
	DD	imagerel __CxxFrameHandler3
	DD	imagerel $cppxdata$PMCCS_Equals_X_I
xdata	ENDS
;	COMDAT xdata
xdata	SEGMENT
$unwind$PMCCS_Equals_L_X$catch$0 DD 020a19H
	DD	05006320aH
	DD	imagerel __CxxFrameHandler3
	DD	imagerel $cppxdata$PMCCS_Equals_L_X
xdata	ENDS
;	COMDAT xdata
xdata	SEGMENT
$ip2state$PMCCS_Equals_L_X DD imagerel PMCCS_Equals_L_X
	DD	0ffffffffH
	DD	imagerel PMCCS_Equals_L_X+33
	DD	00H
	DD	imagerel PMCCS_Equals_L_X+44
	DD	0ffffffffH
	DD	imagerel PMCCS_Equals_L_X+48
	DD	00H
	DD	imagerel PMCCS_Equals_L_X$catch$0+13
	DD	01H
	DD	imagerel PMCCS_Equals_L_X$catch$0+23
	DD	00H
xdata	ENDS
;	COMDAT xdata
xdata	SEGMENT
$handlerMap$0$PMCCS_Equals_L_X DD 09H
	DD	imagerel ??_R0?AVException@Internal@Core@Math@Palmtree@@@8
	DD	028H
	DD	imagerel PMCCS_Equals_L_X$catch$0
	DD	038H
xdata	ENDS
;	COMDAT xdata
xdata	SEGMENT
$tryMap$PMCCS_Equals_L_X DD 00H
	DD	00H
	DD	01H
	DD	01H
	DD	imagerel $handlerMap$0$PMCCS_Equals_L_X
xdata	ENDS
;	COMDAT xdata
xdata	SEGMENT
$stateUnwindMap$PMCCS_Equals_L_X DD 0ffffffffH
	DD	00H
	DD	0ffffffffH
	DD	00H
xdata	ENDS
;	COMDAT CONST
CONST	SEGMENT
$cppxdata$PMCCS_Equals_L_X DD 019930522H
	DD	02H
	DD	imagerel $stateUnwindMap$PMCCS_Equals_L_X
	DD	01H
	DD	imagerel $tryMap$PMCCS_Equals_L_X
	DD	06H
	DD	imagerel $ip2state$PMCCS_Equals_L_X
	DD	020H
	DD	00H
	DD	00H
CONST	ENDS
;	COMDAT xdata
xdata	SEGMENT
$unwind$PMCCS_Equals_L_X DD 020f19H
	DD	030025206H
	DD	imagerel __CxxFrameHandler3
	DD	imagerel $cppxdata$PMCCS_Equals_L_X
xdata	ENDS
;	COMDAT xdata
xdata	SEGMENT
$unwind$PMCCS_Equals_I_X$catch$0 DD 020a19H
	DD	05006320aH
	DD	imagerel __CxxFrameHandler3
	DD	imagerel $cppxdata$PMCCS_Equals_I_X
xdata	ENDS
;	COMDAT xdata
xdata	SEGMENT
$ip2state$PMCCS_Equals_I_X DD imagerel PMCCS_Equals_I_X
	DD	0ffffffffH
	DD	imagerel PMCCS_Equals_I_X+33
	DD	00H
	DD	imagerel PMCCS_Equals_I_X+44
	DD	0ffffffffH
	DD	imagerel PMCCS_Equals_I_X+48
	DD	00H
	DD	imagerel PMCCS_Equals_I_X$catch$0+13
	DD	01H
	DD	imagerel PMCCS_Equals_I_X$catch$0+23
	DD	00H
xdata	ENDS
;	COMDAT xdata
xdata	SEGMENT
$handlerMap$0$PMCCS_Equals_I_X DD 09H
	DD	imagerel ??_R0?AVException@Internal@Core@Math@Palmtree@@@8
	DD	028H
	DD	imagerel PMCCS_Equals_I_X$catch$0
	DD	038H
xdata	ENDS
;	COMDAT xdata
xdata	SEGMENT
$tryMap$PMCCS_Equals_I_X DD 00H
	DD	00H
	DD	01H
	DD	01H
	DD	imagerel $handlerMap$0$PMCCS_Equals_I_X
xdata	ENDS
;	COMDAT xdata
xdata	SEGMENT
$stateUnwindMap$PMCCS_Equals_I_X DD 0ffffffffH
	DD	00H
	DD	0ffffffffH
	DD	00H
xdata	ENDS
;	COMDAT CONST
CONST	SEGMENT
$cppxdata$PMCCS_Equals_I_X DD 019930522H
	DD	02H
	DD	imagerel $stateUnwindMap$PMCCS_Equals_I_X
	DD	01H
	DD	imagerel $tryMap$PMCCS_Equals_I_X
	DD	06H
	DD	imagerel $ip2state$PMCCS_Equals_I_X
	DD	020H
	DD	00H
	DD	00H
CONST	ENDS
;	COMDAT xdata
xdata	SEGMENT
$unwind$PMCCS_Equals_I_X DD 020f19H
	DD	030025206H
	DD	imagerel __CxxFrameHandler3
	DD	imagerel $cppxdata$PMCCS_Equals_I_X
xdata	ENDS
;	COMDAT xdata
xdata	SEGMENT
$unwind$PMCCS_Compare_X_X$catch$0 DD 020a19H
	DD	05006320aH
	DD	imagerel __CxxFrameHandler3
	DD	imagerel $cppxdata$PMCCS_Compare_X_X
xdata	ENDS
;	COMDAT xdata
xdata	SEGMENT
$ip2state$PMCCS_Compare_X_X DD imagerel PMCCS_Compare_X_X
	DD	0ffffffffH
	DD	imagerel PMCCS_Compare_X_X+33
	DD	00H
	DD	imagerel PMCCS_Compare_X_X+44
	DD	0ffffffffH
	DD	imagerel PMCCS_Compare_X_X+48
	DD	00H
	DD	imagerel PMCCS_Compare_X_X$catch$0+13
	DD	01H
	DD	imagerel PMCCS_Compare_X_X$catch$0+23
	DD	00H
xdata	ENDS
;	COMDAT xdata
xdata	SEGMENT
$handlerMap$0$PMCCS_Compare_X_X DD 09H
	DD	imagerel ??_R0?AVException@Internal@Core@Math@Palmtree@@@8
	DD	028H
	DD	imagerel PMCCS_Compare_X_X$catch$0
	DD	038H
xdata	ENDS
;	COMDAT xdata
xdata	SEGMENT
$tryMap$PMCCS_Compare_X_X DD 00H
	DD	00H
	DD	01H
	DD	01H
	DD	imagerel $handlerMap$0$PMCCS_Compare_X_X
xdata	ENDS
;	COMDAT xdata
xdata	SEGMENT
$stateUnwindMap$PMCCS_Compare_X_X DD 0ffffffffH
	DD	00H
	DD	0ffffffffH
	DD	00H
xdata	ENDS
;	COMDAT CONST
CONST	SEGMENT
$cppxdata$PMCCS_Compare_X_X DD 019930522H
	DD	02H
	DD	imagerel $stateUnwindMap$PMCCS_Compare_X_X
	DD	01H
	DD	imagerel $tryMap$PMCCS_Compare_X_X
	DD	06H
	DD	imagerel $ip2state$PMCCS_Compare_X_X
	DD	020H
	DD	00H
	DD	00H
CONST	ENDS
;	COMDAT xdata
xdata	SEGMENT
$unwind$PMCCS_Compare_X_X DD 020f19H
	DD	030025206H
	DD	imagerel __CxxFrameHandler3
	DD	imagerel $cppxdata$PMCCS_Compare_X_X
xdata	ENDS
;	COMDAT xdata
xdata	SEGMENT
$unwind$PMCCS_Compare_X_L$catch$0 DD 020a19H
	DD	05006320aH
	DD	imagerel __CxxFrameHandler3
	DD	imagerel $cppxdata$PMCCS_Compare_X_L
xdata	ENDS
;	COMDAT xdata
xdata	SEGMENT
$ip2state$PMCCS_Compare_X_L DD imagerel PMCCS_Compare_X_L
	DD	0ffffffffH
	DD	imagerel PMCCS_Compare_X_L+33
	DD	00H
	DD	imagerel PMCCS_Compare_X_L+44
	DD	0ffffffffH
	DD	imagerel PMCCS_Compare_X_L+48
	DD	00H
	DD	imagerel PMCCS_Compare_X_L$catch$0+13
	DD	01H
	DD	imagerel PMCCS_Compare_X_L$catch$0+23
	DD	00H
xdata	ENDS
;	COMDAT xdata
xdata	SEGMENT
$handlerMap$0$PMCCS_Compare_X_L DD 09H
	DD	imagerel ??_R0?AVException@Internal@Core@Math@Palmtree@@@8
	DD	028H
	DD	imagerel PMCCS_Compare_X_L$catch$0
	DD	038H
xdata	ENDS
;	COMDAT xdata
xdata	SEGMENT
$tryMap$PMCCS_Compare_X_L DD 00H
	DD	00H
	DD	01H
	DD	01H
	DD	imagerel $handlerMap$0$PMCCS_Compare_X_L
xdata	ENDS
;	COMDAT xdata
xdata	SEGMENT
$stateUnwindMap$PMCCS_Compare_X_L DD 0ffffffffH
	DD	00H
	DD	0ffffffffH
	DD	00H
xdata	ENDS
;	COMDAT CONST
CONST	SEGMENT
$cppxdata$PMCCS_Compare_X_L DD 019930522H
	DD	02H
	DD	imagerel $stateUnwindMap$PMCCS_Compare_X_L
	DD	01H
	DD	imagerel $tryMap$PMCCS_Compare_X_L
	DD	06H
	DD	imagerel $ip2state$PMCCS_Compare_X_L
	DD	020H
	DD	00H
	DD	00H
CONST	ENDS
;	COMDAT xdata
xdata	SEGMENT
$unwind$PMCCS_Compare_X_L DD 020f19H
	DD	030025206H
	DD	imagerel __CxxFrameHandler3
	DD	imagerel $cppxdata$PMCCS_Compare_X_L
xdata	ENDS
;	COMDAT xdata
xdata	SEGMENT
$unwind$PMCCS_Compare_X_I$catch$0 DD 020a19H
	DD	05006320aH
	DD	imagerel __CxxFrameHandler3
	DD	imagerel $cppxdata$PMCCS_Compare_X_I
xdata	ENDS
;	COMDAT xdata
xdata	SEGMENT
$ip2state$PMCCS_Compare_X_I DD imagerel PMCCS_Compare_X_I
	DD	0ffffffffH
	DD	imagerel PMCCS_Compare_X_I+33
	DD	00H
	DD	imagerel PMCCS_Compare_X_I+44
	DD	0ffffffffH
	DD	imagerel PMCCS_Compare_X_I+48
	DD	00H
	DD	imagerel PMCCS_Compare_X_I$catch$0+13
	DD	01H
	DD	imagerel PMCCS_Compare_X_I$catch$0+23
	DD	00H
xdata	ENDS
;	COMDAT xdata
xdata	SEGMENT
$handlerMap$0$PMCCS_Compare_X_I DD 09H
	DD	imagerel ??_R0?AVException@Internal@Core@Math@Palmtree@@@8
	DD	028H
	DD	imagerel PMCCS_Compare_X_I$catch$0
	DD	038H
xdata	ENDS
;	COMDAT xdata
xdata	SEGMENT
$tryMap$PMCCS_Compare_X_I DD 00H
	DD	00H
	DD	01H
	DD	01H
	DD	imagerel $handlerMap$0$PMCCS_Compare_X_I
xdata	ENDS
;	COMDAT xdata
xdata	SEGMENT
$stateUnwindMap$PMCCS_Compare_X_I DD 0ffffffffH
	DD	00H
	DD	0ffffffffH
	DD	00H
xdata	ENDS
;	COMDAT CONST
CONST	SEGMENT
$cppxdata$PMCCS_Compare_X_I DD 019930522H
	DD	02H
	DD	imagerel $stateUnwindMap$PMCCS_Compare_X_I
	DD	01H
	DD	imagerel $tryMap$PMCCS_Compare_X_I
	DD	06H
	DD	imagerel $ip2state$PMCCS_Compare_X_I
	DD	020H
	DD	00H
	DD	00H
CONST	ENDS
;	COMDAT xdata
xdata	SEGMENT
$unwind$PMCCS_Compare_X_I DD 020f19H
	DD	030025206H
	DD	imagerel __CxxFrameHandler3
	DD	imagerel $cppxdata$PMCCS_Compare_X_I
xdata	ENDS
;	COMDAT xdata
xdata	SEGMENT
$unwind$PMCCS_Compare_L_X$catch$0 DD 020a19H
	DD	05006320aH
	DD	imagerel __CxxFrameHandler3
	DD	imagerel $cppxdata$PMCCS_Compare_L_X
xdata	ENDS
;	COMDAT xdata
xdata	SEGMENT
$ip2state$PMCCS_Compare_L_X DD imagerel PMCCS_Compare_L_X
	DD	0ffffffffH
	DD	imagerel PMCCS_Compare_L_X+33
	DD	00H
	DD	imagerel PMCCS_Compare_L_X+44
	DD	0ffffffffH
	DD	imagerel PMCCS_Compare_L_X+48
	DD	00H
	DD	imagerel PMCCS_Compare_L_X$catch$0+13
	DD	01H
	DD	imagerel PMCCS_Compare_L_X$catch$0+23
	DD	00H
xdata	ENDS
;	COMDAT xdata
xdata	SEGMENT
$handlerMap$0$PMCCS_Compare_L_X DD 09H
	DD	imagerel ??_R0?AVException@Internal@Core@Math@Palmtree@@@8
	DD	028H
	DD	imagerel PMCCS_Compare_L_X$catch$0
	DD	038H
xdata	ENDS
;	COMDAT xdata
xdata	SEGMENT
$tryMap$PMCCS_Compare_L_X DD 00H
	DD	00H
	DD	01H
	DD	01H
	DD	imagerel $handlerMap$0$PMCCS_Compare_L_X
xdata	ENDS
;	COMDAT xdata
xdata	SEGMENT
$stateUnwindMap$PMCCS_Compare_L_X DD 0ffffffffH
	DD	00H
	DD	0ffffffffH
	DD	00H
xdata	ENDS
;	COMDAT CONST
CONST	SEGMENT
$cppxdata$PMCCS_Compare_L_X DD 019930522H
	DD	02H
	DD	imagerel $stateUnwindMap$PMCCS_Compare_L_X
	DD	01H
	DD	imagerel $tryMap$PMCCS_Compare_L_X
	DD	06H
	DD	imagerel $ip2state$PMCCS_Compare_L_X
	DD	020H
	DD	00H
	DD	00H
CONST	ENDS
;	COMDAT xdata
xdata	SEGMENT
$unwind$PMCCS_Compare_L_X DD 020f19H
	DD	030025206H
	DD	imagerel __CxxFrameHandler3
	DD	imagerel $cppxdata$PMCCS_Compare_L_X
xdata	ENDS
;	COMDAT xdata
xdata	SEGMENT
$unwind$PMCCS_Compare_I_X$catch$0 DD 020a19H
	DD	05006320aH
	DD	imagerel __CxxFrameHandler3
	DD	imagerel $cppxdata$PMCCS_Compare_I_X
xdata	ENDS
;	COMDAT xdata
xdata	SEGMENT
$ip2state$PMCCS_Compare_I_X DD imagerel PMCCS_Compare_I_X
	DD	0ffffffffH
	DD	imagerel PMCCS_Compare_I_X+33
	DD	00H
	DD	imagerel PMCCS_Compare_I_X+44
	DD	0ffffffffH
	DD	imagerel PMCCS_Compare_I_X+48
	DD	00H
	DD	imagerel PMCCS_Compare_I_X$catch$0+13
	DD	01H
	DD	imagerel PMCCS_Compare_I_X$catch$0+23
	DD	00H
xdata	ENDS
;	COMDAT xdata
xdata	SEGMENT
$handlerMap$0$PMCCS_Compare_I_X DD 09H
	DD	imagerel ??_R0?AVException@Internal@Core@Math@Palmtree@@@8
	DD	028H
	DD	imagerel PMCCS_Compare_I_X$catch$0
	DD	038H
xdata	ENDS
;	COMDAT xdata
xdata	SEGMENT
$tryMap$PMCCS_Compare_I_X DD 00H
	DD	00H
	DD	01H
	DD	01H
	DD	imagerel $handlerMap$0$PMCCS_Compare_I_X
xdata	ENDS
;	COMDAT xdata
xdata	SEGMENT
$stateUnwindMap$PMCCS_Compare_I_X DD 0ffffffffH
	DD	00H
	DD	0ffffffffH
	DD	00H
xdata	ENDS
;	COMDAT CONST
CONST	SEGMENT
$cppxdata$PMCCS_Compare_I_X DD 019930522H
	DD	02H
	DD	imagerel $stateUnwindMap$PMCCS_Compare_I_X
	DD	01H
	DD	imagerel $tryMap$PMCCS_Compare_I_X
	DD	06H
	DD	imagerel $ip2state$PMCCS_Compare_I_X
	DD	020H
	DD	00H
	DD	00H
CONST	ENDS
;	COMDAT xdata
xdata	SEGMENT
$unwind$PMCCS_Compare_I_X DD 020f19H
	DD	030025206H
	DD	imagerel __CxxFrameHandler3
	DD	imagerel $cppxdata$PMCCS_Compare_I_X
xdata	ENDS
;	COMDAT xdata
xdata	SEGMENT
$unwind$PMCCS_ExclusiveOr_X_X$catch$0 DD 020a19H
	DD	05006320aH
	DD	imagerel __CxxFrameHandler3
	DD	imagerel $cppxdata$PMCCS_ExclusiveOr_X_X
xdata	ENDS
;	COMDAT xdata
xdata	SEGMENT
$ip2state$PMCCS_ExclusiveOr_X_X DD imagerel PMCCS_ExclusiveOr_X_X
	DD	0ffffffffH
	DD	imagerel PMCCS_ExclusiveOr_X_X+33
	DD	00H
	DD	imagerel PMCCS_ExclusiveOr_X_X+45
	DD	0ffffffffH
	DD	imagerel PMCCS_ExclusiveOr_X_X+49
	DD	00H
	DD	imagerel PMCCS_ExclusiveOr_X_X$catch$0+13
	DD	01H
	DD	imagerel PMCCS_ExclusiveOr_X_X$catch$0+23
	DD	00H
xdata	ENDS
;	COMDAT xdata
xdata	SEGMENT
$handlerMap$0$PMCCS_ExclusiveOr_X_X DD 09H
	DD	imagerel ??_R0?AVException@Internal@Core@Math@Palmtree@@@8
	DD	028H
	DD	imagerel PMCCS_ExclusiveOr_X_X$catch$0
	DD	038H
xdata	ENDS
;	COMDAT xdata
xdata	SEGMENT
$tryMap$PMCCS_ExclusiveOr_X_X DD 00H
	DD	00H
	DD	01H
	DD	01H
	DD	imagerel $handlerMap$0$PMCCS_ExclusiveOr_X_X
xdata	ENDS
;	COMDAT xdata
xdata	SEGMENT
$stateUnwindMap$PMCCS_ExclusiveOr_X_X DD 0ffffffffH
	DD	00H
	DD	0ffffffffH
	DD	00H
xdata	ENDS
;	COMDAT CONST
CONST	SEGMENT
$cppxdata$PMCCS_ExclusiveOr_X_X DD 019930522H
	DD	02H
	DD	imagerel $stateUnwindMap$PMCCS_ExclusiveOr_X_X
	DD	01H
	DD	imagerel $tryMap$PMCCS_ExclusiveOr_X_X
	DD	06H
	DD	imagerel $ip2state$PMCCS_ExclusiveOr_X_X
	DD	020H
	DD	00H
	DD	00H
CONST	ENDS
;	COMDAT xdata
xdata	SEGMENT
$unwind$PMCCS_ExclusiveOr_X_X DD 020f19H
	DD	030025206H
	DD	imagerel __CxxFrameHandler3
	DD	imagerel $cppxdata$PMCCS_ExclusiveOr_X_X
xdata	ENDS
;	COMDAT xdata
xdata	SEGMENT
$unwind$PMCCS_ExclusiveOr_X_L$catch$0 DD 020a19H
	DD	05006320aH
	DD	imagerel __CxxFrameHandler3
	DD	imagerel $cppxdata$PMCCS_ExclusiveOr_X_L
xdata	ENDS
;	COMDAT xdata
xdata	SEGMENT
$ip2state$PMCCS_ExclusiveOr_X_L DD imagerel PMCCS_ExclusiveOr_X_L
	DD	0ffffffffH
	DD	imagerel PMCCS_ExclusiveOr_X_L+33
	DD	00H
	DD	imagerel PMCCS_ExclusiveOr_X_L+45
	DD	0ffffffffH
	DD	imagerel PMCCS_ExclusiveOr_X_L+49
	DD	00H
	DD	imagerel PMCCS_ExclusiveOr_X_L$catch$0+13
	DD	01H
	DD	imagerel PMCCS_ExclusiveOr_X_L$catch$0+23
	DD	00H
xdata	ENDS
;	COMDAT xdata
xdata	SEGMENT
$handlerMap$0$PMCCS_ExclusiveOr_X_L DD 09H
	DD	imagerel ??_R0?AVException@Internal@Core@Math@Palmtree@@@8
	DD	028H
	DD	imagerel PMCCS_ExclusiveOr_X_L$catch$0
	DD	038H
xdata	ENDS
;	COMDAT xdata
xdata	SEGMENT
$tryMap$PMCCS_ExclusiveOr_X_L DD 00H
	DD	00H
	DD	01H
	DD	01H
	DD	imagerel $handlerMap$0$PMCCS_ExclusiveOr_X_L
xdata	ENDS
;	COMDAT xdata
xdata	SEGMENT
$stateUnwindMap$PMCCS_ExclusiveOr_X_L DD 0ffffffffH
	DD	00H
	DD	0ffffffffH
	DD	00H
xdata	ENDS
;	COMDAT CONST
CONST	SEGMENT
$cppxdata$PMCCS_ExclusiveOr_X_L DD 019930522H
	DD	02H
	DD	imagerel $stateUnwindMap$PMCCS_ExclusiveOr_X_L
	DD	01H
	DD	imagerel $tryMap$PMCCS_ExclusiveOr_X_L
	DD	06H
	DD	imagerel $ip2state$PMCCS_ExclusiveOr_X_L
	DD	020H
	DD	00H
	DD	00H
CONST	ENDS
;	COMDAT xdata
xdata	SEGMENT
$unwind$PMCCS_ExclusiveOr_X_L DD 020f19H
	DD	030025206H
	DD	imagerel __CxxFrameHandler3
	DD	imagerel $cppxdata$PMCCS_ExclusiveOr_X_L
xdata	ENDS
;	COMDAT xdata
xdata	SEGMENT
$unwind$PMCCS_ExclusiveOr_X_I$catch$0 DD 020a19H
	DD	05006320aH
	DD	imagerel __CxxFrameHandler3
	DD	imagerel $cppxdata$PMCCS_ExclusiveOr_X_I
xdata	ENDS
;	COMDAT xdata
xdata	SEGMENT
$ip2state$PMCCS_ExclusiveOr_X_I DD imagerel PMCCS_ExclusiveOr_X_I
	DD	0ffffffffH
	DD	imagerel PMCCS_ExclusiveOr_X_I+33
	DD	00H
	DD	imagerel PMCCS_ExclusiveOr_X_I+45
	DD	0ffffffffH
	DD	imagerel PMCCS_ExclusiveOr_X_I+49
	DD	00H
	DD	imagerel PMCCS_ExclusiveOr_X_I$catch$0+13
	DD	01H
	DD	imagerel PMCCS_ExclusiveOr_X_I$catch$0+23
	DD	00H
xdata	ENDS
;	COMDAT xdata
xdata	SEGMENT
$handlerMap$0$PMCCS_ExclusiveOr_X_I DD 09H
	DD	imagerel ??_R0?AVException@Internal@Core@Math@Palmtree@@@8
	DD	028H
	DD	imagerel PMCCS_ExclusiveOr_X_I$catch$0
	DD	038H
xdata	ENDS
;	COMDAT xdata
xdata	SEGMENT
$tryMap$PMCCS_ExclusiveOr_X_I DD 00H
	DD	00H
	DD	01H
	DD	01H
	DD	imagerel $handlerMap$0$PMCCS_ExclusiveOr_X_I
xdata	ENDS
;	COMDAT xdata
xdata	SEGMENT
$stateUnwindMap$PMCCS_ExclusiveOr_X_I DD 0ffffffffH
	DD	00H
	DD	0ffffffffH
	DD	00H
xdata	ENDS
;	COMDAT CONST
CONST	SEGMENT
$cppxdata$PMCCS_ExclusiveOr_X_I DD 019930522H
	DD	02H
	DD	imagerel $stateUnwindMap$PMCCS_ExclusiveOr_X_I
	DD	01H
	DD	imagerel $tryMap$PMCCS_ExclusiveOr_X_I
	DD	06H
	DD	imagerel $ip2state$PMCCS_ExclusiveOr_X_I
	DD	020H
	DD	00H
	DD	00H
CONST	ENDS
;	COMDAT xdata
xdata	SEGMENT
$unwind$PMCCS_ExclusiveOr_X_I DD 020f19H
	DD	030025206H
	DD	imagerel __CxxFrameHandler3
	DD	imagerel $cppxdata$PMCCS_ExclusiveOr_X_I
xdata	ENDS
;	COMDAT xdata
xdata	SEGMENT
$unwind$PMCCS_ExclusiveOr_L_X$catch$0 DD 020a19H
	DD	05006320aH
	DD	imagerel __CxxFrameHandler3
	DD	imagerel $cppxdata$PMCCS_ExclusiveOr_L_X
xdata	ENDS
;	COMDAT xdata
xdata	SEGMENT
$ip2state$PMCCS_ExclusiveOr_L_X DD imagerel PMCCS_ExclusiveOr_L_X
	DD	0ffffffffH
	DD	imagerel PMCCS_ExclusiveOr_L_X+33
	DD	00H
	DD	imagerel PMCCS_ExclusiveOr_L_X+45
	DD	0ffffffffH
	DD	imagerel PMCCS_ExclusiveOr_L_X+49
	DD	00H
	DD	imagerel PMCCS_ExclusiveOr_L_X$catch$0+13
	DD	01H
	DD	imagerel PMCCS_ExclusiveOr_L_X$catch$0+23
	DD	00H
xdata	ENDS
;	COMDAT xdata
xdata	SEGMENT
$handlerMap$0$PMCCS_ExclusiveOr_L_X DD 09H
	DD	imagerel ??_R0?AVException@Internal@Core@Math@Palmtree@@@8
	DD	028H
	DD	imagerel PMCCS_ExclusiveOr_L_X$catch$0
	DD	038H
xdata	ENDS
;	COMDAT xdata
xdata	SEGMENT
$tryMap$PMCCS_ExclusiveOr_L_X DD 00H
	DD	00H
	DD	01H
	DD	01H
	DD	imagerel $handlerMap$0$PMCCS_ExclusiveOr_L_X
xdata	ENDS
;	COMDAT xdata
xdata	SEGMENT
$stateUnwindMap$PMCCS_ExclusiveOr_L_X DD 0ffffffffH
	DD	00H
	DD	0ffffffffH
	DD	00H
xdata	ENDS
;	COMDAT CONST
CONST	SEGMENT
$cppxdata$PMCCS_ExclusiveOr_L_X DD 019930522H
	DD	02H
	DD	imagerel $stateUnwindMap$PMCCS_ExclusiveOr_L_X
	DD	01H
	DD	imagerel $tryMap$PMCCS_ExclusiveOr_L_X
	DD	06H
	DD	imagerel $ip2state$PMCCS_ExclusiveOr_L_X
	DD	020H
	DD	00H
	DD	00H
CONST	ENDS
;	COMDAT xdata
xdata	SEGMENT
$unwind$PMCCS_ExclusiveOr_L_X DD 020f19H
	DD	030025206H
	DD	imagerel __CxxFrameHandler3
	DD	imagerel $cppxdata$PMCCS_ExclusiveOr_L_X
xdata	ENDS
;	COMDAT xdata
xdata	SEGMENT
$unwind$PMCCS_ExclusiveOr_I_X$catch$0 DD 020a19H
	DD	05006320aH
	DD	imagerel __CxxFrameHandler3
	DD	imagerel $cppxdata$PMCCS_ExclusiveOr_I_X
xdata	ENDS
;	COMDAT xdata
xdata	SEGMENT
$ip2state$PMCCS_ExclusiveOr_I_X DD imagerel PMCCS_ExclusiveOr_I_X
	DD	0ffffffffH
	DD	imagerel PMCCS_ExclusiveOr_I_X+33
	DD	00H
	DD	imagerel PMCCS_ExclusiveOr_I_X+45
	DD	0ffffffffH
	DD	imagerel PMCCS_ExclusiveOr_I_X+49
	DD	00H
	DD	imagerel PMCCS_ExclusiveOr_I_X$catch$0+13
	DD	01H
	DD	imagerel PMCCS_ExclusiveOr_I_X$catch$0+23
	DD	00H
xdata	ENDS
;	COMDAT xdata
xdata	SEGMENT
$handlerMap$0$PMCCS_ExclusiveOr_I_X DD 09H
	DD	imagerel ??_R0?AVException@Internal@Core@Math@Palmtree@@@8
	DD	028H
	DD	imagerel PMCCS_ExclusiveOr_I_X$catch$0
	DD	038H
xdata	ENDS
;	COMDAT xdata
xdata	SEGMENT
$tryMap$PMCCS_ExclusiveOr_I_X DD 00H
	DD	00H
	DD	01H
	DD	01H
	DD	imagerel $handlerMap$0$PMCCS_ExclusiveOr_I_X
xdata	ENDS
;	COMDAT xdata
xdata	SEGMENT
$stateUnwindMap$PMCCS_ExclusiveOr_I_X DD 0ffffffffH
	DD	00H
	DD	0ffffffffH
	DD	00H
xdata	ENDS
;	COMDAT CONST
CONST	SEGMENT
$cppxdata$PMCCS_ExclusiveOr_I_X DD 019930522H
	DD	02H
	DD	imagerel $stateUnwindMap$PMCCS_ExclusiveOr_I_X
	DD	01H
	DD	imagerel $tryMap$PMCCS_ExclusiveOr_I_X
	DD	06H
	DD	imagerel $ip2state$PMCCS_ExclusiveOr_I_X
	DD	020H
	DD	00H
	DD	00H
CONST	ENDS
;	COMDAT xdata
xdata	SEGMENT
$unwind$PMCCS_ExclusiveOr_I_X DD 020f19H
	DD	030025206H
	DD	imagerel __CxxFrameHandler3
	DD	imagerel $cppxdata$PMCCS_ExclusiveOr_I_X
xdata	ENDS
;	COMDAT xdata
xdata	SEGMENT
$unwind$PMCCS_BitwiseOr_X_X$catch$0 DD 020a19H
	DD	05006320aH
	DD	imagerel __CxxFrameHandler3
	DD	imagerel $cppxdata$PMCCS_BitwiseOr_X_X
xdata	ENDS
;	COMDAT xdata
xdata	SEGMENT
$ip2state$PMCCS_BitwiseOr_X_X DD imagerel PMCCS_BitwiseOr_X_X
	DD	0ffffffffH
	DD	imagerel PMCCS_BitwiseOr_X_X+33
	DD	00H
	DD	imagerel PMCCS_BitwiseOr_X_X+45
	DD	0ffffffffH
	DD	imagerel PMCCS_BitwiseOr_X_X+49
	DD	00H
	DD	imagerel PMCCS_BitwiseOr_X_X$catch$0+13
	DD	01H
	DD	imagerel PMCCS_BitwiseOr_X_X$catch$0+23
	DD	00H
xdata	ENDS
;	COMDAT xdata
xdata	SEGMENT
$handlerMap$0$PMCCS_BitwiseOr_X_X DD 09H
	DD	imagerel ??_R0?AVException@Internal@Core@Math@Palmtree@@@8
	DD	028H
	DD	imagerel PMCCS_BitwiseOr_X_X$catch$0
	DD	038H
xdata	ENDS
;	COMDAT xdata
xdata	SEGMENT
$tryMap$PMCCS_BitwiseOr_X_X DD 00H
	DD	00H
	DD	01H
	DD	01H
	DD	imagerel $handlerMap$0$PMCCS_BitwiseOr_X_X
xdata	ENDS
;	COMDAT xdata
xdata	SEGMENT
$stateUnwindMap$PMCCS_BitwiseOr_X_X DD 0ffffffffH
	DD	00H
	DD	0ffffffffH
	DD	00H
xdata	ENDS
;	COMDAT CONST
CONST	SEGMENT
$cppxdata$PMCCS_BitwiseOr_X_X DD 019930522H
	DD	02H
	DD	imagerel $stateUnwindMap$PMCCS_BitwiseOr_X_X
	DD	01H
	DD	imagerel $tryMap$PMCCS_BitwiseOr_X_X
	DD	06H
	DD	imagerel $ip2state$PMCCS_BitwiseOr_X_X
	DD	020H
	DD	00H
	DD	00H
CONST	ENDS
;	COMDAT xdata
xdata	SEGMENT
$unwind$PMCCS_BitwiseOr_X_X DD 020f19H
	DD	030025206H
	DD	imagerel __CxxFrameHandler3
	DD	imagerel $cppxdata$PMCCS_BitwiseOr_X_X
xdata	ENDS
;	COMDAT xdata
xdata	SEGMENT
$unwind$PMCCS_BitwiseOr_X_L$catch$0 DD 020a19H
	DD	05006320aH
	DD	imagerel __CxxFrameHandler3
	DD	imagerel $cppxdata$PMCCS_BitwiseOr_X_L
xdata	ENDS
;	COMDAT xdata
xdata	SEGMENT
$ip2state$PMCCS_BitwiseOr_X_L DD imagerel PMCCS_BitwiseOr_X_L
	DD	0ffffffffH
	DD	imagerel PMCCS_BitwiseOr_X_L+33
	DD	00H
	DD	imagerel PMCCS_BitwiseOr_X_L+45
	DD	0ffffffffH
	DD	imagerel PMCCS_BitwiseOr_X_L+49
	DD	00H
	DD	imagerel PMCCS_BitwiseOr_X_L$catch$0+13
	DD	01H
	DD	imagerel PMCCS_BitwiseOr_X_L$catch$0+23
	DD	00H
xdata	ENDS
;	COMDAT xdata
xdata	SEGMENT
$handlerMap$0$PMCCS_BitwiseOr_X_L DD 09H
	DD	imagerel ??_R0?AVException@Internal@Core@Math@Palmtree@@@8
	DD	028H
	DD	imagerel PMCCS_BitwiseOr_X_L$catch$0
	DD	038H
xdata	ENDS
;	COMDAT xdata
xdata	SEGMENT
$tryMap$PMCCS_BitwiseOr_X_L DD 00H
	DD	00H
	DD	01H
	DD	01H
	DD	imagerel $handlerMap$0$PMCCS_BitwiseOr_X_L
xdata	ENDS
;	COMDAT xdata
xdata	SEGMENT
$stateUnwindMap$PMCCS_BitwiseOr_X_L DD 0ffffffffH
	DD	00H
	DD	0ffffffffH
	DD	00H
xdata	ENDS
;	COMDAT CONST
CONST	SEGMENT
$cppxdata$PMCCS_BitwiseOr_X_L DD 019930522H
	DD	02H
	DD	imagerel $stateUnwindMap$PMCCS_BitwiseOr_X_L
	DD	01H
	DD	imagerel $tryMap$PMCCS_BitwiseOr_X_L
	DD	06H
	DD	imagerel $ip2state$PMCCS_BitwiseOr_X_L
	DD	020H
	DD	00H
	DD	00H
CONST	ENDS
;	COMDAT xdata
xdata	SEGMENT
$unwind$PMCCS_BitwiseOr_X_L DD 020f19H
	DD	030025206H
	DD	imagerel __CxxFrameHandler3
	DD	imagerel $cppxdata$PMCCS_BitwiseOr_X_L
xdata	ENDS
;	COMDAT xdata
xdata	SEGMENT
$unwind$PMCCS_BitwiseOr_X_I$catch$0 DD 020a19H
	DD	05006320aH
	DD	imagerel __CxxFrameHandler3
	DD	imagerel $cppxdata$PMCCS_BitwiseOr_X_I
xdata	ENDS
;	COMDAT xdata
xdata	SEGMENT
$ip2state$PMCCS_BitwiseOr_X_I DD imagerel PMCCS_BitwiseOr_X_I
	DD	0ffffffffH
	DD	imagerel PMCCS_BitwiseOr_X_I+33
	DD	00H
	DD	imagerel PMCCS_BitwiseOr_X_I+45
	DD	0ffffffffH
	DD	imagerel PMCCS_BitwiseOr_X_I+49
	DD	00H
	DD	imagerel PMCCS_BitwiseOr_X_I$catch$0+13
	DD	01H
	DD	imagerel PMCCS_BitwiseOr_X_I$catch$0+23
	DD	00H
xdata	ENDS
;	COMDAT xdata
xdata	SEGMENT
$handlerMap$0$PMCCS_BitwiseOr_X_I DD 09H
	DD	imagerel ??_R0?AVException@Internal@Core@Math@Palmtree@@@8
	DD	028H
	DD	imagerel PMCCS_BitwiseOr_X_I$catch$0
	DD	038H
xdata	ENDS
;	COMDAT xdata
xdata	SEGMENT
$tryMap$PMCCS_BitwiseOr_X_I DD 00H
	DD	00H
	DD	01H
	DD	01H
	DD	imagerel $handlerMap$0$PMCCS_BitwiseOr_X_I
xdata	ENDS
;	COMDAT xdata
xdata	SEGMENT
$stateUnwindMap$PMCCS_BitwiseOr_X_I DD 0ffffffffH
	DD	00H
	DD	0ffffffffH
	DD	00H
xdata	ENDS
;	COMDAT CONST
CONST	SEGMENT
$cppxdata$PMCCS_BitwiseOr_X_I DD 019930522H
	DD	02H
	DD	imagerel $stateUnwindMap$PMCCS_BitwiseOr_X_I
	DD	01H
	DD	imagerel $tryMap$PMCCS_BitwiseOr_X_I
	DD	06H
	DD	imagerel $ip2state$PMCCS_BitwiseOr_X_I
	DD	020H
	DD	00H
	DD	00H
CONST	ENDS
;	COMDAT xdata
xdata	SEGMENT
$unwind$PMCCS_BitwiseOr_X_I DD 020f19H
	DD	030025206H
	DD	imagerel __CxxFrameHandler3
	DD	imagerel $cppxdata$PMCCS_BitwiseOr_X_I
xdata	ENDS
;	COMDAT xdata
xdata	SEGMENT
$unwind$PMCCS_BitwiseOr_L_X$catch$0 DD 020a19H
	DD	05006320aH
	DD	imagerel __CxxFrameHandler3
	DD	imagerel $cppxdata$PMCCS_BitwiseOr_L_X
xdata	ENDS
;	COMDAT xdata
xdata	SEGMENT
$ip2state$PMCCS_BitwiseOr_L_X DD imagerel PMCCS_BitwiseOr_L_X
	DD	0ffffffffH
	DD	imagerel PMCCS_BitwiseOr_L_X+33
	DD	00H
	DD	imagerel PMCCS_BitwiseOr_L_X+45
	DD	0ffffffffH
	DD	imagerel PMCCS_BitwiseOr_L_X+49
	DD	00H
	DD	imagerel PMCCS_BitwiseOr_L_X$catch$0+13
	DD	01H
	DD	imagerel PMCCS_BitwiseOr_L_X$catch$0+23
	DD	00H
xdata	ENDS
;	COMDAT xdata
xdata	SEGMENT
$handlerMap$0$PMCCS_BitwiseOr_L_X DD 09H
	DD	imagerel ??_R0?AVException@Internal@Core@Math@Palmtree@@@8
	DD	028H
	DD	imagerel PMCCS_BitwiseOr_L_X$catch$0
	DD	038H
xdata	ENDS
;	COMDAT xdata
xdata	SEGMENT
$tryMap$PMCCS_BitwiseOr_L_X DD 00H
	DD	00H
	DD	01H
	DD	01H
	DD	imagerel $handlerMap$0$PMCCS_BitwiseOr_L_X
xdata	ENDS
;	COMDAT xdata
xdata	SEGMENT
$stateUnwindMap$PMCCS_BitwiseOr_L_X DD 0ffffffffH
	DD	00H
	DD	0ffffffffH
	DD	00H
xdata	ENDS
;	COMDAT CONST
CONST	SEGMENT
$cppxdata$PMCCS_BitwiseOr_L_X DD 019930522H
	DD	02H
	DD	imagerel $stateUnwindMap$PMCCS_BitwiseOr_L_X
	DD	01H
	DD	imagerel $tryMap$PMCCS_BitwiseOr_L_X
	DD	06H
	DD	imagerel $ip2state$PMCCS_BitwiseOr_L_X
	DD	020H
	DD	00H
	DD	00H
CONST	ENDS
;	COMDAT xdata
xdata	SEGMENT
$unwind$PMCCS_BitwiseOr_L_X DD 020f19H
	DD	030025206H
	DD	imagerel __CxxFrameHandler3
	DD	imagerel $cppxdata$PMCCS_BitwiseOr_L_X
xdata	ENDS
;	COMDAT xdata
xdata	SEGMENT
$unwind$PMCCS_BitwiseOr_I_X$catch$0 DD 020a19H
	DD	05006320aH
	DD	imagerel __CxxFrameHandler3
	DD	imagerel $cppxdata$PMCCS_BitwiseOr_I_X
xdata	ENDS
;	COMDAT xdata
xdata	SEGMENT
$ip2state$PMCCS_BitwiseOr_I_X DD imagerel PMCCS_BitwiseOr_I_X
	DD	0ffffffffH
	DD	imagerel PMCCS_BitwiseOr_I_X+33
	DD	00H
	DD	imagerel PMCCS_BitwiseOr_I_X+45
	DD	0ffffffffH
	DD	imagerel PMCCS_BitwiseOr_I_X+49
	DD	00H
	DD	imagerel PMCCS_BitwiseOr_I_X$catch$0+13
	DD	01H
	DD	imagerel PMCCS_BitwiseOr_I_X$catch$0+23
	DD	00H
xdata	ENDS
;	COMDAT xdata
xdata	SEGMENT
$handlerMap$0$PMCCS_BitwiseOr_I_X DD 09H
	DD	imagerel ??_R0?AVException@Internal@Core@Math@Palmtree@@@8
	DD	028H
	DD	imagerel PMCCS_BitwiseOr_I_X$catch$0
	DD	038H
xdata	ENDS
;	COMDAT xdata
xdata	SEGMENT
$tryMap$PMCCS_BitwiseOr_I_X DD 00H
	DD	00H
	DD	01H
	DD	01H
	DD	imagerel $handlerMap$0$PMCCS_BitwiseOr_I_X
xdata	ENDS
;	COMDAT xdata
xdata	SEGMENT
$stateUnwindMap$PMCCS_BitwiseOr_I_X DD 0ffffffffH
	DD	00H
	DD	0ffffffffH
	DD	00H
xdata	ENDS
;	COMDAT CONST
CONST	SEGMENT
$cppxdata$PMCCS_BitwiseOr_I_X DD 019930522H
	DD	02H
	DD	imagerel $stateUnwindMap$PMCCS_BitwiseOr_I_X
	DD	01H
	DD	imagerel $tryMap$PMCCS_BitwiseOr_I_X
	DD	06H
	DD	imagerel $ip2state$PMCCS_BitwiseOr_I_X
	DD	020H
	DD	00H
	DD	00H
CONST	ENDS
;	COMDAT xdata
xdata	SEGMENT
$unwind$PMCCS_BitwiseOr_I_X DD 020f19H
	DD	030025206H
	DD	imagerel __CxxFrameHandler3
	DD	imagerel $cppxdata$PMCCS_BitwiseOr_I_X
xdata	ENDS
;	COMDAT xdata
xdata	SEGMENT
$unwind$PMCCS_BitwiseAnd_X_X$catch$0 DD 020a19H
	DD	05006320aH
	DD	imagerel __CxxFrameHandler3
	DD	imagerel $cppxdata$PMCCS_BitwiseAnd_X_X
xdata	ENDS
;	COMDAT xdata
xdata	SEGMENT
$ip2state$PMCCS_BitwiseAnd_X_X DD imagerel PMCCS_BitwiseAnd_X_X
	DD	0ffffffffH
	DD	imagerel PMCCS_BitwiseAnd_X_X+33
	DD	00H
	DD	imagerel PMCCS_BitwiseAnd_X_X+45
	DD	0ffffffffH
	DD	imagerel PMCCS_BitwiseAnd_X_X+49
	DD	00H
	DD	imagerel PMCCS_BitwiseAnd_X_X$catch$0+13
	DD	01H
	DD	imagerel PMCCS_BitwiseAnd_X_X$catch$0+23
	DD	00H
xdata	ENDS
;	COMDAT xdata
xdata	SEGMENT
$handlerMap$0$PMCCS_BitwiseAnd_X_X DD 09H
	DD	imagerel ??_R0?AVException@Internal@Core@Math@Palmtree@@@8
	DD	028H
	DD	imagerel PMCCS_BitwiseAnd_X_X$catch$0
	DD	038H
xdata	ENDS
;	COMDAT xdata
xdata	SEGMENT
$tryMap$PMCCS_BitwiseAnd_X_X DD 00H
	DD	00H
	DD	01H
	DD	01H
	DD	imagerel $handlerMap$0$PMCCS_BitwiseAnd_X_X
xdata	ENDS
;	COMDAT xdata
xdata	SEGMENT
$stateUnwindMap$PMCCS_BitwiseAnd_X_X DD 0ffffffffH
	DD	00H
	DD	0ffffffffH
	DD	00H
xdata	ENDS
;	COMDAT CONST
CONST	SEGMENT
$cppxdata$PMCCS_BitwiseAnd_X_X DD 019930522H
	DD	02H
	DD	imagerel $stateUnwindMap$PMCCS_BitwiseAnd_X_X
	DD	01H
	DD	imagerel $tryMap$PMCCS_BitwiseAnd_X_X
	DD	06H
	DD	imagerel $ip2state$PMCCS_BitwiseAnd_X_X
	DD	020H
	DD	00H
	DD	00H
CONST	ENDS
;	COMDAT xdata
xdata	SEGMENT
$unwind$PMCCS_BitwiseAnd_X_X DD 020f19H
	DD	030025206H
	DD	imagerel __CxxFrameHandler3
	DD	imagerel $cppxdata$PMCCS_BitwiseAnd_X_X
xdata	ENDS
;	COMDAT xdata
xdata	SEGMENT
$unwind$PMCCS_BitwiseAnd_X_L$catch$0 DD 020a19H
	DD	05006320aH
	DD	imagerel __CxxFrameHandler3
	DD	imagerel $cppxdata$PMCCS_BitwiseAnd_X_L
xdata	ENDS
;	COMDAT xdata
xdata	SEGMENT
$ip2state$PMCCS_BitwiseAnd_X_L DD imagerel PMCCS_BitwiseAnd_X_L
	DD	0ffffffffH
	DD	imagerel PMCCS_BitwiseAnd_X_L+33
	DD	00H
	DD	imagerel PMCCS_BitwiseAnd_X_L+45
	DD	0ffffffffH
	DD	imagerel PMCCS_BitwiseAnd_X_L+49
	DD	00H
	DD	imagerel PMCCS_BitwiseAnd_X_L$catch$0+13
	DD	01H
	DD	imagerel PMCCS_BitwiseAnd_X_L$catch$0+23
	DD	00H
xdata	ENDS
;	COMDAT xdata
xdata	SEGMENT
$handlerMap$0$PMCCS_BitwiseAnd_X_L DD 09H
	DD	imagerel ??_R0?AVException@Internal@Core@Math@Palmtree@@@8
	DD	028H
	DD	imagerel PMCCS_BitwiseAnd_X_L$catch$0
	DD	038H
xdata	ENDS
;	COMDAT xdata
xdata	SEGMENT
$tryMap$PMCCS_BitwiseAnd_X_L DD 00H
	DD	00H
	DD	01H
	DD	01H
	DD	imagerel $handlerMap$0$PMCCS_BitwiseAnd_X_L
xdata	ENDS
;	COMDAT xdata
xdata	SEGMENT
$stateUnwindMap$PMCCS_BitwiseAnd_X_L DD 0ffffffffH
	DD	00H
	DD	0ffffffffH
	DD	00H
xdata	ENDS
;	COMDAT CONST
CONST	SEGMENT
$cppxdata$PMCCS_BitwiseAnd_X_L DD 019930522H
	DD	02H
	DD	imagerel $stateUnwindMap$PMCCS_BitwiseAnd_X_L
	DD	01H
	DD	imagerel $tryMap$PMCCS_BitwiseAnd_X_L
	DD	06H
	DD	imagerel $ip2state$PMCCS_BitwiseAnd_X_L
	DD	020H
	DD	00H
	DD	00H
CONST	ENDS
;	COMDAT xdata
xdata	SEGMENT
$unwind$PMCCS_BitwiseAnd_X_L DD 020f19H
	DD	030025206H
	DD	imagerel __CxxFrameHandler3
	DD	imagerel $cppxdata$PMCCS_BitwiseAnd_X_L
xdata	ENDS
;	COMDAT xdata
xdata	SEGMENT
$unwind$PMCCS_BitwiseAnd_X_I$catch$0 DD 020a19H
	DD	05006320aH
	DD	imagerel __CxxFrameHandler3
	DD	imagerel $cppxdata$PMCCS_BitwiseAnd_X_I
xdata	ENDS
;	COMDAT xdata
xdata	SEGMENT
$ip2state$PMCCS_BitwiseAnd_X_I DD imagerel PMCCS_BitwiseAnd_X_I
	DD	0ffffffffH
	DD	imagerel PMCCS_BitwiseAnd_X_I+33
	DD	00H
	DD	imagerel PMCCS_BitwiseAnd_X_I+44
	DD	0ffffffffH
	DD	imagerel PMCCS_BitwiseAnd_X_I+48
	DD	00H
	DD	imagerel PMCCS_BitwiseAnd_X_I$catch$0+13
	DD	01H
	DD	imagerel PMCCS_BitwiseAnd_X_I$catch$0+23
	DD	00H
xdata	ENDS
;	COMDAT xdata
xdata	SEGMENT
$handlerMap$0$PMCCS_BitwiseAnd_X_I DD 09H
	DD	imagerel ??_R0?AVException@Internal@Core@Math@Palmtree@@@8
	DD	028H
	DD	imagerel PMCCS_BitwiseAnd_X_I$catch$0
	DD	038H
xdata	ENDS
;	COMDAT xdata
xdata	SEGMENT
$tryMap$PMCCS_BitwiseAnd_X_I DD 00H
	DD	00H
	DD	01H
	DD	01H
	DD	imagerel $handlerMap$0$PMCCS_BitwiseAnd_X_I
xdata	ENDS
;	COMDAT xdata
xdata	SEGMENT
$stateUnwindMap$PMCCS_BitwiseAnd_X_I DD 0ffffffffH
	DD	00H
	DD	0ffffffffH
	DD	00H
xdata	ENDS
;	COMDAT CONST
CONST	SEGMENT
$cppxdata$PMCCS_BitwiseAnd_X_I DD 019930522H
	DD	02H
	DD	imagerel $stateUnwindMap$PMCCS_BitwiseAnd_X_I
	DD	01H
	DD	imagerel $tryMap$PMCCS_BitwiseAnd_X_I
	DD	06H
	DD	imagerel $ip2state$PMCCS_BitwiseAnd_X_I
	DD	020H
	DD	00H
	DD	00H
CONST	ENDS
;	COMDAT xdata
xdata	SEGMENT
$unwind$PMCCS_BitwiseAnd_X_I DD 020f19H
	DD	030025206H
	DD	imagerel __CxxFrameHandler3
	DD	imagerel $cppxdata$PMCCS_BitwiseAnd_X_I
xdata	ENDS
;	COMDAT xdata
xdata	SEGMENT
$unwind$PMCCS_BitwiseAnd_L_X$catch$0 DD 020a19H
	DD	05006320aH
	DD	imagerel __CxxFrameHandler3
	DD	imagerel $cppxdata$PMCCS_BitwiseAnd_L_X
xdata	ENDS
;	COMDAT xdata
xdata	SEGMENT
$ip2state$PMCCS_BitwiseAnd_L_X DD imagerel PMCCS_BitwiseAnd_L_X
	DD	0ffffffffH
	DD	imagerel PMCCS_BitwiseAnd_L_X+33
	DD	00H
	DD	imagerel PMCCS_BitwiseAnd_L_X+45
	DD	0ffffffffH
	DD	imagerel PMCCS_BitwiseAnd_L_X+49
	DD	00H
	DD	imagerel PMCCS_BitwiseAnd_L_X$catch$0+13
	DD	01H
	DD	imagerel PMCCS_BitwiseAnd_L_X$catch$0+23
	DD	00H
xdata	ENDS
;	COMDAT xdata
xdata	SEGMENT
$handlerMap$0$PMCCS_BitwiseAnd_L_X DD 09H
	DD	imagerel ??_R0?AVException@Internal@Core@Math@Palmtree@@@8
	DD	028H
	DD	imagerel PMCCS_BitwiseAnd_L_X$catch$0
	DD	038H
xdata	ENDS
;	COMDAT xdata
xdata	SEGMENT
$tryMap$PMCCS_BitwiseAnd_L_X DD 00H
	DD	00H
	DD	01H
	DD	01H
	DD	imagerel $handlerMap$0$PMCCS_BitwiseAnd_L_X
xdata	ENDS
;	COMDAT xdata
xdata	SEGMENT
$stateUnwindMap$PMCCS_BitwiseAnd_L_X DD 0ffffffffH
	DD	00H
	DD	0ffffffffH
	DD	00H
xdata	ENDS
;	COMDAT CONST
CONST	SEGMENT
$cppxdata$PMCCS_BitwiseAnd_L_X DD 019930522H
	DD	02H
	DD	imagerel $stateUnwindMap$PMCCS_BitwiseAnd_L_X
	DD	01H
	DD	imagerel $tryMap$PMCCS_BitwiseAnd_L_X
	DD	06H
	DD	imagerel $ip2state$PMCCS_BitwiseAnd_L_X
	DD	020H
	DD	00H
	DD	00H
CONST	ENDS
;	COMDAT xdata
xdata	SEGMENT
$unwind$PMCCS_BitwiseAnd_L_X DD 020f19H
	DD	030025206H
	DD	imagerel __CxxFrameHandler3
	DD	imagerel $cppxdata$PMCCS_BitwiseAnd_L_X
xdata	ENDS
;	COMDAT xdata
xdata	SEGMENT
$unwind$PMCCS_BitwiseAnd_I_X$catch$0 DD 020a19H
	DD	05006320aH
	DD	imagerel __CxxFrameHandler3
	DD	imagerel $cppxdata$PMCCS_BitwiseAnd_I_X
xdata	ENDS
;	COMDAT xdata
xdata	SEGMENT
$ip2state$PMCCS_BitwiseAnd_I_X DD imagerel PMCCS_BitwiseAnd_I_X
	DD	0ffffffffH
	DD	imagerel PMCCS_BitwiseAnd_I_X+33
	DD	00H
	DD	imagerel PMCCS_BitwiseAnd_I_X+44
	DD	0ffffffffH
	DD	imagerel PMCCS_BitwiseAnd_I_X+48
	DD	00H
	DD	imagerel PMCCS_BitwiseAnd_I_X$catch$0+13
	DD	01H
	DD	imagerel PMCCS_BitwiseAnd_I_X$catch$0+23
	DD	00H
xdata	ENDS
;	COMDAT xdata
xdata	SEGMENT
$handlerMap$0$PMCCS_BitwiseAnd_I_X DD 09H
	DD	imagerel ??_R0?AVException@Internal@Core@Math@Palmtree@@@8
	DD	028H
	DD	imagerel PMCCS_BitwiseAnd_I_X$catch$0
	DD	038H
xdata	ENDS
;	COMDAT xdata
xdata	SEGMENT
$tryMap$PMCCS_BitwiseAnd_I_X DD 00H
	DD	00H
	DD	01H
	DD	01H
	DD	imagerel $handlerMap$0$PMCCS_BitwiseAnd_I_X
xdata	ENDS
;	COMDAT xdata
xdata	SEGMENT
$stateUnwindMap$PMCCS_BitwiseAnd_I_X DD 0ffffffffH
	DD	00H
	DD	0ffffffffH
	DD	00H
xdata	ENDS
;	COMDAT CONST
CONST	SEGMENT
$cppxdata$PMCCS_BitwiseAnd_I_X DD 019930522H
	DD	02H
	DD	imagerel $stateUnwindMap$PMCCS_BitwiseAnd_I_X
	DD	01H
	DD	imagerel $tryMap$PMCCS_BitwiseAnd_I_X
	DD	06H
	DD	imagerel $ip2state$PMCCS_BitwiseAnd_I_X
	DD	020H
	DD	00H
	DD	00H
CONST	ENDS
;	COMDAT xdata
xdata	SEGMENT
$unwind$PMCCS_BitwiseAnd_I_X DD 020f19H
	DD	030025206H
	DD	imagerel __CxxFrameHandler3
	DD	imagerel $cppxdata$PMCCS_BitwiseAnd_I_X
xdata	ENDS
;	COMDAT xdata
xdata	SEGMENT
$unwind$PMCCS_LeftShift_X_I$catch$0 DD 020a19H
	DD	05006320aH
	DD	imagerel __CxxFrameHandler3
	DD	imagerel $cppxdata$PMCCS_LeftShift_X_I
xdata	ENDS
;	COMDAT xdata
xdata	SEGMENT
$ip2state$PMCCS_LeftShift_X_I DD imagerel PMCCS_LeftShift_X_I
	DD	0ffffffffH
	DD	imagerel PMCCS_LeftShift_X_I+33
	DD	00H
	DD	imagerel PMCCS_LeftShift_X_I+45
	DD	0ffffffffH
	DD	imagerel PMCCS_LeftShift_X_I+49
	DD	00H
	DD	imagerel PMCCS_LeftShift_X_I$catch$0+13
	DD	01H
	DD	imagerel PMCCS_LeftShift_X_I$catch$0+23
	DD	00H
xdata	ENDS
;	COMDAT xdata
xdata	SEGMENT
$handlerMap$0$PMCCS_LeftShift_X_I DD 09H
	DD	imagerel ??_R0?AVException@Internal@Core@Math@Palmtree@@@8
	DD	028H
	DD	imagerel PMCCS_LeftShift_X_I$catch$0
	DD	038H
xdata	ENDS
;	COMDAT xdata
xdata	SEGMENT
$tryMap$PMCCS_LeftShift_X_I DD 00H
	DD	00H
	DD	01H
	DD	01H
	DD	imagerel $handlerMap$0$PMCCS_LeftShift_X_I
xdata	ENDS
;	COMDAT xdata
xdata	SEGMENT
$stateUnwindMap$PMCCS_LeftShift_X_I DD 0ffffffffH
	DD	00H
	DD	0ffffffffH
	DD	00H
xdata	ENDS
;	COMDAT CONST
CONST	SEGMENT
$cppxdata$PMCCS_LeftShift_X_I DD 019930522H
	DD	02H
	DD	imagerel $stateUnwindMap$PMCCS_LeftShift_X_I
	DD	01H
	DD	imagerel $tryMap$PMCCS_LeftShift_X_I
	DD	06H
	DD	imagerel $ip2state$PMCCS_LeftShift_X_I
	DD	020H
	DD	00H
	DD	00H
CONST	ENDS
;	COMDAT xdata
xdata	SEGMENT
$unwind$PMCCS_LeftShift_X_I DD 020f19H
	DD	030025206H
	DD	imagerel __CxxFrameHandler3
	DD	imagerel $cppxdata$PMCCS_LeftShift_X_I
xdata	ENDS
;	COMDAT xdata
xdata	SEGMENT
$unwind$PMCCS_RightShift_X_I$catch$0 DD 020a19H
	DD	05006320aH
	DD	imagerel __CxxFrameHandler3
	DD	imagerel $cppxdata$PMCCS_RightShift_X_I
xdata	ENDS
;	COMDAT xdata
xdata	SEGMENT
$ip2state$PMCCS_RightShift_X_I DD imagerel PMCCS_RightShift_X_I
	DD	0ffffffffH
	DD	imagerel PMCCS_RightShift_X_I+33
	DD	00H
	DD	imagerel PMCCS_RightShift_X_I+45
	DD	0ffffffffH
	DD	imagerel PMCCS_RightShift_X_I+49
	DD	00H
	DD	imagerel PMCCS_RightShift_X_I$catch$0+13
	DD	01H
	DD	imagerel PMCCS_RightShift_X_I$catch$0+23
	DD	00H
xdata	ENDS
;	COMDAT xdata
xdata	SEGMENT
$handlerMap$0$PMCCS_RightShift_X_I DD 09H
	DD	imagerel ??_R0?AVException@Internal@Core@Math@Palmtree@@@8
	DD	028H
	DD	imagerel PMCCS_RightShift_X_I$catch$0
	DD	038H
xdata	ENDS
;	COMDAT xdata
xdata	SEGMENT
$tryMap$PMCCS_RightShift_X_I DD 00H
	DD	00H
	DD	01H
	DD	01H
	DD	imagerel $handlerMap$0$PMCCS_RightShift_X_I
xdata	ENDS
;	COMDAT xdata
xdata	SEGMENT
$stateUnwindMap$PMCCS_RightShift_X_I DD 0ffffffffH
	DD	00H
	DD	0ffffffffH
	DD	00H
xdata	ENDS
;	COMDAT CONST
CONST	SEGMENT
$cppxdata$PMCCS_RightShift_X_I DD 019930522H
	DD	02H
	DD	imagerel $stateUnwindMap$PMCCS_RightShift_X_I
	DD	01H
	DD	imagerel $tryMap$PMCCS_RightShift_X_I
	DD	06H
	DD	imagerel $ip2state$PMCCS_RightShift_X_I
	DD	020H
	DD	00H
	DD	00H
CONST	ENDS
;	COMDAT xdata
xdata	SEGMENT
$unwind$PMCCS_RightShift_X_I DD 020f19H
	DD	030025206H
	DD	imagerel __CxxFrameHandler3
	DD	imagerel $cppxdata$PMCCS_RightShift_X_I
xdata	ENDS
;	COMDAT xdata
xdata	SEGMENT
$unwind$PMCCS_Remainder_X_X$catch$0 DD 020a19H
	DD	05006320aH
	DD	imagerel __CxxFrameHandler3
	DD	imagerel $cppxdata$PMCCS_Remainder_X_X
xdata	ENDS
;	COMDAT xdata
xdata	SEGMENT
$ip2state$PMCCS_Remainder_X_X DD imagerel PMCCS_Remainder_X_X
	DD	0ffffffffH
	DD	imagerel PMCCS_Remainder_X_X+33
	DD	00H
	DD	imagerel PMCCS_Remainder_X_X+48
	DD	0ffffffffH
	DD	imagerel PMCCS_Remainder_X_X+52
	DD	00H
	DD	imagerel PMCCS_Remainder_X_X$catch$0+13
	DD	01H
	DD	imagerel PMCCS_Remainder_X_X$catch$0+23
	DD	00H
xdata	ENDS
;	COMDAT xdata
xdata	SEGMENT
$handlerMap$0$PMCCS_Remainder_X_X DD 09H
	DD	imagerel ??_R0?AVException@Internal@Core@Math@Palmtree@@@8
	DD	028H
	DD	imagerel PMCCS_Remainder_X_X$catch$0
	DD	038H
xdata	ENDS
;	COMDAT xdata
xdata	SEGMENT
$tryMap$PMCCS_Remainder_X_X DD 00H
	DD	00H
	DD	01H
	DD	01H
	DD	imagerel $handlerMap$0$PMCCS_Remainder_X_X
xdata	ENDS
;	COMDAT xdata
xdata	SEGMENT
$stateUnwindMap$PMCCS_Remainder_X_X DD 0ffffffffH
	DD	00H
	DD	0ffffffffH
	DD	00H
xdata	ENDS
;	COMDAT CONST
CONST	SEGMENT
$cppxdata$PMCCS_Remainder_X_X DD 019930522H
	DD	02H
	DD	imagerel $stateUnwindMap$PMCCS_Remainder_X_X
	DD	01H
	DD	imagerel $tryMap$PMCCS_Remainder_X_X
	DD	06H
	DD	imagerel $ip2state$PMCCS_Remainder_X_X
	DD	020H
	DD	00H
	DD	00H
CONST	ENDS
;	COMDAT xdata
xdata	SEGMENT
$unwind$PMCCS_Remainder_X_X DD 020f19H
	DD	030025206H
	DD	imagerel __CxxFrameHandler3
	DD	imagerel $cppxdata$PMCCS_Remainder_X_X
xdata	ENDS
;	COMDAT xdata
xdata	SEGMENT
$unwind$PMCCS_Remainder_X_L$catch$0 DD 020a19H
	DD	05006320aH
	DD	imagerel __CxxFrameHandler3
	DD	imagerel $cppxdata$PMCCS_Remainder_X_L
xdata	ENDS
;	COMDAT xdata
xdata	SEGMENT
$ip2state$PMCCS_Remainder_X_L DD imagerel PMCCS_Remainder_X_L
	DD	0ffffffffH
	DD	imagerel PMCCS_Remainder_X_L+33
	DD	00H
	DD	imagerel PMCCS_Remainder_X_L+48
	DD	0ffffffffH
	DD	imagerel PMCCS_Remainder_X_L+52
	DD	00H
	DD	imagerel PMCCS_Remainder_X_L$catch$0+13
	DD	01H
	DD	imagerel PMCCS_Remainder_X_L$catch$0+23
	DD	00H
xdata	ENDS
;	COMDAT xdata
xdata	SEGMENT
$handlerMap$0$PMCCS_Remainder_X_L DD 09H
	DD	imagerel ??_R0?AVException@Internal@Core@Math@Palmtree@@@8
	DD	028H
	DD	imagerel PMCCS_Remainder_X_L$catch$0
	DD	038H
xdata	ENDS
;	COMDAT xdata
xdata	SEGMENT
$tryMap$PMCCS_Remainder_X_L DD 00H
	DD	00H
	DD	01H
	DD	01H
	DD	imagerel $handlerMap$0$PMCCS_Remainder_X_L
xdata	ENDS
;	COMDAT xdata
xdata	SEGMENT
$stateUnwindMap$PMCCS_Remainder_X_L DD 0ffffffffH
	DD	00H
	DD	0ffffffffH
	DD	00H
xdata	ENDS
;	COMDAT CONST
CONST	SEGMENT
$cppxdata$PMCCS_Remainder_X_L DD 019930522H
	DD	02H
	DD	imagerel $stateUnwindMap$PMCCS_Remainder_X_L
	DD	01H
	DD	imagerel $tryMap$PMCCS_Remainder_X_L
	DD	06H
	DD	imagerel $ip2state$PMCCS_Remainder_X_L
	DD	020H
	DD	00H
	DD	00H
CONST	ENDS
;	COMDAT xdata
xdata	SEGMENT
$unwind$PMCCS_Remainder_X_L DD 020f19H
	DD	030025206H
	DD	imagerel __CxxFrameHandler3
	DD	imagerel $cppxdata$PMCCS_Remainder_X_L
xdata	ENDS
;	COMDAT xdata
xdata	SEGMENT
$unwind$PMCCS_Remainder_X_I$catch$0 DD 020a19H
	DD	05006320aH
	DD	imagerel __CxxFrameHandler3
	DD	imagerel $cppxdata$PMCCS_Remainder_X_I
xdata	ENDS
;	COMDAT xdata
xdata	SEGMENT
$ip2state$PMCCS_Remainder_X_I DD imagerel PMCCS_Remainder_X_I
	DD	0ffffffffH
	DD	imagerel PMCCS_Remainder_X_I+33
	DD	00H
	DD	imagerel PMCCS_Remainder_X_I+47
	DD	0ffffffffH
	DD	imagerel PMCCS_Remainder_X_I+51
	DD	00H
	DD	imagerel PMCCS_Remainder_X_I$catch$0+13
	DD	01H
	DD	imagerel PMCCS_Remainder_X_I$catch$0+23
	DD	00H
xdata	ENDS
;	COMDAT xdata
xdata	SEGMENT
$handlerMap$0$PMCCS_Remainder_X_I DD 09H
	DD	imagerel ??_R0?AVException@Internal@Core@Math@Palmtree@@@8
	DD	028H
	DD	imagerel PMCCS_Remainder_X_I$catch$0
	DD	038H
xdata	ENDS
;	COMDAT xdata
xdata	SEGMENT
$tryMap$PMCCS_Remainder_X_I DD 00H
	DD	00H
	DD	01H
	DD	01H
	DD	imagerel $handlerMap$0$PMCCS_Remainder_X_I
xdata	ENDS
;	COMDAT xdata
xdata	SEGMENT
$stateUnwindMap$PMCCS_Remainder_X_I DD 0ffffffffH
	DD	00H
	DD	0ffffffffH
	DD	00H
xdata	ENDS
;	COMDAT CONST
CONST	SEGMENT
$cppxdata$PMCCS_Remainder_X_I DD 019930522H
	DD	02H
	DD	imagerel $stateUnwindMap$PMCCS_Remainder_X_I
	DD	01H
	DD	imagerel $tryMap$PMCCS_Remainder_X_I
	DD	06H
	DD	imagerel $ip2state$PMCCS_Remainder_X_I
	DD	020H
	DD	00H
	DD	00H
CONST	ENDS
;	COMDAT xdata
xdata	SEGMENT
$unwind$PMCCS_Remainder_X_I DD 020f19H
	DD	030025206H
	DD	imagerel __CxxFrameHandler3
	DD	imagerel $cppxdata$PMCCS_Remainder_X_I
xdata	ENDS
;	COMDAT xdata
xdata	SEGMENT
$unwind$PMCCS_Remainder_L_X$catch$0 DD 020a19H
	DD	05006320aH
	DD	imagerel __CxxFrameHandler3
	DD	imagerel $cppxdata$PMCCS_Remainder_L_X
xdata	ENDS
;	COMDAT xdata
xdata	SEGMENT
$ip2state$PMCCS_Remainder_L_X DD imagerel PMCCS_Remainder_L_X
	DD	0ffffffffH
	DD	imagerel PMCCS_Remainder_L_X+33
	DD	00H
	DD	imagerel PMCCS_Remainder_L_X+48
	DD	0ffffffffH
	DD	imagerel PMCCS_Remainder_L_X+52
	DD	00H
	DD	imagerel PMCCS_Remainder_L_X$catch$0+13
	DD	01H
	DD	imagerel PMCCS_Remainder_L_X$catch$0+23
	DD	00H
xdata	ENDS
;	COMDAT xdata
xdata	SEGMENT
$handlerMap$0$PMCCS_Remainder_L_X DD 09H
	DD	imagerel ??_R0?AVException@Internal@Core@Math@Palmtree@@@8
	DD	028H
	DD	imagerel PMCCS_Remainder_L_X$catch$0
	DD	038H
xdata	ENDS
;	COMDAT xdata
xdata	SEGMENT
$tryMap$PMCCS_Remainder_L_X DD 00H
	DD	00H
	DD	01H
	DD	01H
	DD	imagerel $handlerMap$0$PMCCS_Remainder_L_X
xdata	ENDS
;	COMDAT xdata
xdata	SEGMENT
$stateUnwindMap$PMCCS_Remainder_L_X DD 0ffffffffH
	DD	00H
	DD	0ffffffffH
	DD	00H
xdata	ENDS
;	COMDAT CONST
CONST	SEGMENT
$cppxdata$PMCCS_Remainder_L_X DD 019930522H
	DD	02H
	DD	imagerel $stateUnwindMap$PMCCS_Remainder_L_X
	DD	01H
	DD	imagerel $tryMap$PMCCS_Remainder_L_X
	DD	06H
	DD	imagerel $ip2state$PMCCS_Remainder_L_X
	DD	020H
	DD	00H
	DD	00H
CONST	ENDS
;	COMDAT xdata
xdata	SEGMENT
$unwind$PMCCS_Remainder_L_X DD 020f19H
	DD	030025206H
	DD	imagerel __CxxFrameHandler3
	DD	imagerel $cppxdata$PMCCS_Remainder_L_X
xdata	ENDS
;	COMDAT xdata
xdata	SEGMENT
$unwind$PMCCS_Remainder_I_X$catch$0 DD 020a19H
	DD	05006320aH
	DD	imagerel __CxxFrameHandler3
	DD	imagerel $cppxdata$PMCCS_Remainder_I_X
xdata	ENDS
;	COMDAT xdata
xdata	SEGMENT
$ip2state$PMCCS_Remainder_I_X DD imagerel PMCCS_Remainder_I_X
	DD	0ffffffffH
	DD	imagerel PMCCS_Remainder_I_X+33
	DD	00H
	DD	imagerel PMCCS_Remainder_I_X+47
	DD	0ffffffffH
	DD	imagerel PMCCS_Remainder_I_X+51
	DD	00H
	DD	imagerel PMCCS_Remainder_I_X$catch$0+13
	DD	01H
	DD	imagerel PMCCS_Remainder_I_X$catch$0+23
	DD	00H
xdata	ENDS
;	COMDAT xdata
xdata	SEGMENT
$handlerMap$0$PMCCS_Remainder_I_X DD 09H
	DD	imagerel ??_R0?AVException@Internal@Core@Math@Palmtree@@@8
	DD	028H
	DD	imagerel PMCCS_Remainder_I_X$catch$0
	DD	038H
xdata	ENDS
;	COMDAT xdata
xdata	SEGMENT
$tryMap$PMCCS_Remainder_I_X DD 00H
	DD	00H
	DD	01H
	DD	01H
	DD	imagerel $handlerMap$0$PMCCS_Remainder_I_X
xdata	ENDS
;	COMDAT xdata
xdata	SEGMENT
$stateUnwindMap$PMCCS_Remainder_I_X DD 0ffffffffH
	DD	00H
	DD	0ffffffffH
	DD	00H
xdata	ENDS
;	COMDAT CONST
CONST	SEGMENT
$cppxdata$PMCCS_Remainder_I_X DD 019930522H
	DD	02H
	DD	imagerel $stateUnwindMap$PMCCS_Remainder_I_X
	DD	01H
	DD	imagerel $tryMap$PMCCS_Remainder_I_X
	DD	06H
	DD	imagerel $ip2state$PMCCS_Remainder_I_X
	DD	020H
	DD	00H
	DD	00H
CONST	ENDS
;	COMDAT xdata
xdata	SEGMENT
$unwind$PMCCS_Remainder_I_X DD 020f19H
	DD	030025206H
	DD	imagerel __CxxFrameHandler3
	DD	imagerel $cppxdata$PMCCS_Remainder_I_X
xdata	ENDS
;	COMDAT xdata
xdata	SEGMENT
$unwind$PMCCS_DivRem_X_X$catch$0 DD 020a19H
	DD	05006320aH
	DD	imagerel __CxxFrameHandler3
	DD	imagerel $cppxdata$PMCCS_DivRem_X_X
xdata	ENDS
;	COMDAT xdata
xdata	SEGMENT
$ip2state$PMCCS_DivRem_X_X DD imagerel PMCCS_DivRem_X_X
	DD	0ffffffffH
	DD	imagerel PMCCS_DivRem_X_X+33
	DD	00H
	DD	imagerel PMCCS_DivRem_X_X+45
	DD	0ffffffffH
	DD	imagerel PMCCS_DivRem_X_X+49
	DD	00H
	DD	imagerel PMCCS_DivRem_X_X$catch$0+13
	DD	01H
	DD	imagerel PMCCS_DivRem_X_X$catch$0+23
	DD	00H
xdata	ENDS
;	COMDAT xdata
xdata	SEGMENT
$handlerMap$0$PMCCS_DivRem_X_X DD 09H
	DD	imagerel ??_R0?AVException@Internal@Core@Math@Palmtree@@@8
	DD	028H
	DD	imagerel PMCCS_DivRem_X_X$catch$0
	DD	038H
xdata	ENDS
;	COMDAT xdata
xdata	SEGMENT
$tryMap$PMCCS_DivRem_X_X DD 00H
	DD	00H
	DD	01H
	DD	01H
	DD	imagerel $handlerMap$0$PMCCS_DivRem_X_X
xdata	ENDS
;	COMDAT xdata
xdata	SEGMENT
$stateUnwindMap$PMCCS_DivRem_X_X DD 0ffffffffH
	DD	00H
	DD	0ffffffffH
	DD	00H
xdata	ENDS
;	COMDAT CONST
CONST	SEGMENT
$cppxdata$PMCCS_DivRem_X_X DD 019930522H
	DD	02H
	DD	imagerel $stateUnwindMap$PMCCS_DivRem_X_X
	DD	01H
	DD	imagerel $tryMap$PMCCS_DivRem_X_X
	DD	06H
	DD	imagerel $ip2state$PMCCS_DivRem_X_X
	DD	020H
	DD	00H
	DD	00H
CONST	ENDS
;	COMDAT xdata
xdata	SEGMENT
$unwind$PMCCS_DivRem_X_X DD 020f19H
	DD	030025206H
	DD	imagerel __CxxFrameHandler3
	DD	imagerel $cppxdata$PMCCS_DivRem_X_X
xdata	ENDS
;	COMDAT xdata
xdata	SEGMENT
$unwind$PMCCS_DivRem_X_L$catch$0 DD 020a19H
	DD	05006320aH
	DD	imagerel __CxxFrameHandler3
	DD	imagerel $cppxdata$PMCCS_DivRem_X_L
xdata	ENDS
;	COMDAT xdata
xdata	SEGMENT
$ip2state$PMCCS_DivRem_X_L DD imagerel PMCCS_DivRem_X_L
	DD	0ffffffffH
	DD	imagerel PMCCS_DivRem_X_L+33
	DD	00H
	DD	imagerel PMCCS_DivRem_X_L+45
	DD	0ffffffffH
	DD	imagerel PMCCS_DivRem_X_L+49
	DD	00H
	DD	imagerel PMCCS_DivRem_X_L$catch$0+13
	DD	01H
	DD	imagerel PMCCS_DivRem_X_L$catch$0+23
	DD	00H
xdata	ENDS
;	COMDAT xdata
xdata	SEGMENT
$handlerMap$0$PMCCS_DivRem_X_L DD 09H
	DD	imagerel ??_R0?AVException@Internal@Core@Math@Palmtree@@@8
	DD	028H
	DD	imagerel PMCCS_DivRem_X_L$catch$0
	DD	038H
xdata	ENDS
;	COMDAT xdata
xdata	SEGMENT
$tryMap$PMCCS_DivRem_X_L DD 00H
	DD	00H
	DD	01H
	DD	01H
	DD	imagerel $handlerMap$0$PMCCS_DivRem_X_L
xdata	ENDS
;	COMDAT xdata
xdata	SEGMENT
$stateUnwindMap$PMCCS_DivRem_X_L DD 0ffffffffH
	DD	00H
	DD	0ffffffffH
	DD	00H
xdata	ENDS
;	COMDAT CONST
CONST	SEGMENT
$cppxdata$PMCCS_DivRem_X_L DD 019930522H
	DD	02H
	DD	imagerel $stateUnwindMap$PMCCS_DivRem_X_L
	DD	01H
	DD	imagerel $tryMap$PMCCS_DivRem_X_L
	DD	06H
	DD	imagerel $ip2state$PMCCS_DivRem_X_L
	DD	020H
	DD	00H
	DD	00H
CONST	ENDS
;	COMDAT xdata
xdata	SEGMENT
$unwind$PMCCS_DivRem_X_L DD 020f19H
	DD	030025206H
	DD	imagerel __CxxFrameHandler3
	DD	imagerel $cppxdata$PMCCS_DivRem_X_L
xdata	ENDS
;	COMDAT xdata
xdata	SEGMENT
$unwind$PMCCS_DivRem_X_I$catch$0 DD 020a19H
	DD	05006320aH
	DD	imagerel __CxxFrameHandler3
	DD	imagerel $cppxdata$PMCCS_DivRem_X_I
xdata	ENDS
;	COMDAT xdata
xdata	SEGMENT
$ip2state$PMCCS_DivRem_X_I DD imagerel PMCCS_DivRem_X_I
	DD	0ffffffffH
	DD	imagerel PMCCS_DivRem_X_I+33
	DD	00H
	DD	imagerel PMCCS_DivRem_X_I+44
	DD	0ffffffffH
	DD	imagerel PMCCS_DivRem_X_I+48
	DD	00H
	DD	imagerel PMCCS_DivRem_X_I$catch$0+13
	DD	01H
	DD	imagerel PMCCS_DivRem_X_I$catch$0+23
	DD	00H
xdata	ENDS
;	COMDAT xdata
xdata	SEGMENT
$handlerMap$0$PMCCS_DivRem_X_I DD 09H
	DD	imagerel ??_R0?AVException@Internal@Core@Math@Palmtree@@@8
	DD	028H
	DD	imagerel PMCCS_DivRem_X_I$catch$0
	DD	038H
xdata	ENDS
;	COMDAT xdata
xdata	SEGMENT
$tryMap$PMCCS_DivRem_X_I DD 00H
	DD	00H
	DD	01H
	DD	01H
	DD	imagerel $handlerMap$0$PMCCS_DivRem_X_I
xdata	ENDS
;	COMDAT xdata
xdata	SEGMENT
$stateUnwindMap$PMCCS_DivRem_X_I DD 0ffffffffH
	DD	00H
	DD	0ffffffffH
	DD	00H
xdata	ENDS
;	COMDAT CONST
CONST	SEGMENT
$cppxdata$PMCCS_DivRem_X_I DD 019930522H
	DD	02H
	DD	imagerel $stateUnwindMap$PMCCS_DivRem_X_I
	DD	01H
	DD	imagerel $tryMap$PMCCS_DivRem_X_I
	DD	06H
	DD	imagerel $ip2state$PMCCS_DivRem_X_I
	DD	020H
	DD	00H
	DD	00H
CONST	ENDS
;	COMDAT xdata
xdata	SEGMENT
$unwind$PMCCS_DivRem_X_I DD 020f19H
	DD	030025206H
	DD	imagerel __CxxFrameHandler3
	DD	imagerel $cppxdata$PMCCS_DivRem_X_I
xdata	ENDS
;	COMDAT xdata
xdata	SEGMENT
$unwind$PMCCS_DivRem_L_X$catch$0 DD 020a19H
	DD	05006320aH
	DD	imagerel __CxxFrameHandler3
	DD	imagerel $cppxdata$PMCCS_DivRem_L_X
xdata	ENDS
;	COMDAT xdata
xdata	SEGMENT
$ip2state$PMCCS_DivRem_L_X DD imagerel PMCCS_DivRem_L_X
	DD	0ffffffffH
	DD	imagerel PMCCS_DivRem_L_X+33
	DD	00H
	DD	imagerel PMCCS_DivRem_L_X+45
	DD	0ffffffffH
	DD	imagerel PMCCS_DivRem_L_X+49
	DD	00H
	DD	imagerel PMCCS_DivRem_L_X$catch$0+13
	DD	01H
	DD	imagerel PMCCS_DivRem_L_X$catch$0+23
	DD	00H
xdata	ENDS
;	COMDAT xdata
xdata	SEGMENT
$handlerMap$0$PMCCS_DivRem_L_X DD 09H
	DD	imagerel ??_R0?AVException@Internal@Core@Math@Palmtree@@@8
	DD	028H
	DD	imagerel PMCCS_DivRem_L_X$catch$0
	DD	038H
xdata	ENDS
;	COMDAT xdata
xdata	SEGMENT
$tryMap$PMCCS_DivRem_L_X DD 00H
	DD	00H
	DD	01H
	DD	01H
	DD	imagerel $handlerMap$0$PMCCS_DivRem_L_X
xdata	ENDS
;	COMDAT xdata
xdata	SEGMENT
$stateUnwindMap$PMCCS_DivRem_L_X DD 0ffffffffH
	DD	00H
	DD	0ffffffffH
	DD	00H
xdata	ENDS
;	COMDAT CONST
CONST	SEGMENT
$cppxdata$PMCCS_DivRem_L_X DD 019930522H
	DD	02H
	DD	imagerel $stateUnwindMap$PMCCS_DivRem_L_X
	DD	01H
	DD	imagerel $tryMap$PMCCS_DivRem_L_X
	DD	06H
	DD	imagerel $ip2state$PMCCS_DivRem_L_X
	DD	020H
	DD	00H
	DD	00H
CONST	ENDS
;	COMDAT xdata
xdata	SEGMENT
$unwind$PMCCS_DivRem_L_X DD 020f19H
	DD	030025206H
	DD	imagerel __CxxFrameHandler3
	DD	imagerel $cppxdata$PMCCS_DivRem_L_X
xdata	ENDS
;	COMDAT xdata
xdata	SEGMENT
$unwind$PMCCS_DivRem_I_X$catch$0 DD 020a19H
	DD	05006320aH
	DD	imagerel __CxxFrameHandler3
	DD	imagerel $cppxdata$PMCCS_DivRem_I_X
xdata	ENDS
;	COMDAT xdata
xdata	SEGMENT
$ip2state$PMCCS_DivRem_I_X DD imagerel PMCCS_DivRem_I_X
	DD	0ffffffffH
	DD	imagerel PMCCS_DivRem_I_X+33
	DD	00H
	DD	imagerel PMCCS_DivRem_I_X+44
	DD	0ffffffffH
	DD	imagerel PMCCS_DivRem_I_X+48
	DD	00H
	DD	imagerel PMCCS_DivRem_I_X$catch$0+13
	DD	01H
	DD	imagerel PMCCS_DivRem_I_X$catch$0+23
	DD	00H
xdata	ENDS
;	COMDAT xdata
xdata	SEGMENT
$handlerMap$0$PMCCS_DivRem_I_X DD 09H
	DD	imagerel ??_R0?AVException@Internal@Core@Math@Palmtree@@@8
	DD	028H
	DD	imagerel PMCCS_DivRem_I_X$catch$0
	DD	038H
xdata	ENDS
;	COMDAT xdata
xdata	SEGMENT
$tryMap$PMCCS_DivRem_I_X DD 00H
	DD	00H
	DD	01H
	DD	01H
	DD	imagerel $handlerMap$0$PMCCS_DivRem_I_X
xdata	ENDS
;	COMDAT xdata
xdata	SEGMENT
$stateUnwindMap$PMCCS_DivRem_I_X DD 0ffffffffH
	DD	00H
	DD	0ffffffffH
	DD	00H
xdata	ENDS
;	COMDAT CONST
CONST	SEGMENT
$cppxdata$PMCCS_DivRem_I_X DD 019930522H
	DD	02H
	DD	imagerel $stateUnwindMap$PMCCS_DivRem_I_X
	DD	01H
	DD	imagerel $tryMap$PMCCS_DivRem_I_X
	DD	06H
	DD	imagerel $ip2state$PMCCS_DivRem_I_X
	DD	020H
	DD	00H
	DD	00H
CONST	ENDS
;	COMDAT xdata
xdata	SEGMENT
$unwind$PMCCS_DivRem_I_X DD 020f19H
	DD	030025206H
	DD	imagerel __CxxFrameHandler3
	DD	imagerel $cppxdata$PMCCS_DivRem_I_X
xdata	ENDS
;	COMDAT xdata
xdata	SEGMENT
$unwind$PMCCS_Multiply_X_X$catch$0 DD 020a19H
	DD	05006320aH
	DD	imagerel __CxxFrameHandler3
	DD	imagerel $cppxdata$PMCCS_Multiply_X_X
xdata	ENDS
;	COMDAT xdata
xdata	SEGMENT
$ip2state$PMCCS_Multiply_X_X DD imagerel PMCCS_Multiply_X_X
	DD	0ffffffffH
	DD	imagerel PMCCS_Multiply_X_X+33
	DD	00H
	DD	imagerel PMCCS_Multiply_X_X+45
	DD	0ffffffffH
	DD	imagerel PMCCS_Multiply_X_X+49
	DD	00H
	DD	imagerel PMCCS_Multiply_X_X$catch$0+13
	DD	01H
	DD	imagerel PMCCS_Multiply_X_X$catch$0+23
	DD	00H
xdata	ENDS
;	COMDAT xdata
xdata	SEGMENT
$handlerMap$0$PMCCS_Multiply_X_X DD 09H
	DD	imagerel ??_R0?AVException@Internal@Core@Math@Palmtree@@@8
	DD	028H
	DD	imagerel PMCCS_Multiply_X_X$catch$0
	DD	038H
xdata	ENDS
;	COMDAT xdata
xdata	SEGMENT
$tryMap$PMCCS_Multiply_X_X DD 00H
	DD	00H
	DD	01H
	DD	01H
	DD	imagerel $handlerMap$0$PMCCS_Multiply_X_X
xdata	ENDS
;	COMDAT xdata
xdata	SEGMENT
$stateUnwindMap$PMCCS_Multiply_X_X DD 0ffffffffH
	DD	00H
	DD	0ffffffffH
	DD	00H
xdata	ENDS
;	COMDAT CONST
CONST	SEGMENT
$cppxdata$PMCCS_Multiply_X_X DD 019930522H
	DD	02H
	DD	imagerel $stateUnwindMap$PMCCS_Multiply_X_X
	DD	01H
	DD	imagerel $tryMap$PMCCS_Multiply_X_X
	DD	06H
	DD	imagerel $ip2state$PMCCS_Multiply_X_X
	DD	020H
	DD	00H
	DD	00H
CONST	ENDS
;	COMDAT xdata
xdata	SEGMENT
$unwind$PMCCS_Multiply_X_X DD 020f19H
	DD	030025206H
	DD	imagerel __CxxFrameHandler3
	DD	imagerel $cppxdata$PMCCS_Multiply_X_X
xdata	ENDS
;	COMDAT xdata
xdata	SEGMENT
$unwind$PMCCS_Multiply_X_L$catch$0 DD 020a19H
	DD	05006320aH
	DD	imagerel __CxxFrameHandler3
	DD	imagerel $cppxdata$PMCCS_Multiply_X_L
xdata	ENDS
;	COMDAT xdata
xdata	SEGMENT
$ip2state$PMCCS_Multiply_X_L DD imagerel PMCCS_Multiply_X_L
	DD	0ffffffffH
	DD	imagerel PMCCS_Multiply_X_L+33
	DD	00H
	DD	imagerel PMCCS_Multiply_X_L+45
	DD	0ffffffffH
	DD	imagerel PMCCS_Multiply_X_L+49
	DD	00H
	DD	imagerel PMCCS_Multiply_X_L$catch$0+13
	DD	01H
	DD	imagerel PMCCS_Multiply_X_L$catch$0+23
	DD	00H
xdata	ENDS
;	COMDAT xdata
xdata	SEGMENT
$handlerMap$0$PMCCS_Multiply_X_L DD 09H
	DD	imagerel ??_R0?AVException@Internal@Core@Math@Palmtree@@@8
	DD	028H
	DD	imagerel PMCCS_Multiply_X_L$catch$0
	DD	038H
xdata	ENDS
;	COMDAT xdata
xdata	SEGMENT
$tryMap$PMCCS_Multiply_X_L DD 00H
	DD	00H
	DD	01H
	DD	01H
	DD	imagerel $handlerMap$0$PMCCS_Multiply_X_L
xdata	ENDS
;	COMDAT xdata
xdata	SEGMENT
$stateUnwindMap$PMCCS_Multiply_X_L DD 0ffffffffH
	DD	00H
	DD	0ffffffffH
	DD	00H
xdata	ENDS
;	COMDAT CONST
CONST	SEGMENT
$cppxdata$PMCCS_Multiply_X_L DD 019930522H
	DD	02H
	DD	imagerel $stateUnwindMap$PMCCS_Multiply_X_L
	DD	01H
	DD	imagerel $tryMap$PMCCS_Multiply_X_L
	DD	06H
	DD	imagerel $ip2state$PMCCS_Multiply_X_L
	DD	020H
	DD	00H
	DD	00H
CONST	ENDS
;	COMDAT xdata
xdata	SEGMENT
$unwind$PMCCS_Multiply_X_L DD 020f19H
	DD	030025206H
	DD	imagerel __CxxFrameHandler3
	DD	imagerel $cppxdata$PMCCS_Multiply_X_L
xdata	ENDS
;	COMDAT xdata
xdata	SEGMENT
$unwind$PMCCS_Multiply_X_I$catch$0 DD 020a19H
	DD	05006320aH
	DD	imagerel __CxxFrameHandler3
	DD	imagerel $cppxdata$PMCCS_Multiply_X_I
xdata	ENDS
;	COMDAT xdata
xdata	SEGMENT
$ip2state$PMCCS_Multiply_X_I DD imagerel PMCCS_Multiply_X_I
	DD	0ffffffffH
	DD	imagerel PMCCS_Multiply_X_I+33
	DD	00H
	DD	imagerel PMCCS_Multiply_X_I+45
	DD	0ffffffffH
	DD	imagerel PMCCS_Multiply_X_I+49
	DD	00H
	DD	imagerel PMCCS_Multiply_X_I$catch$0+13
	DD	01H
	DD	imagerel PMCCS_Multiply_X_I$catch$0+23
	DD	00H
xdata	ENDS
;	COMDAT xdata
xdata	SEGMENT
$handlerMap$0$PMCCS_Multiply_X_I DD 09H
	DD	imagerel ??_R0?AVException@Internal@Core@Math@Palmtree@@@8
	DD	028H
	DD	imagerel PMCCS_Multiply_X_I$catch$0
	DD	038H
xdata	ENDS
;	COMDAT xdata
xdata	SEGMENT
$tryMap$PMCCS_Multiply_X_I DD 00H
	DD	00H
	DD	01H
	DD	01H
	DD	imagerel $handlerMap$0$PMCCS_Multiply_X_I
xdata	ENDS
;	COMDAT xdata
xdata	SEGMENT
$stateUnwindMap$PMCCS_Multiply_X_I DD 0ffffffffH
	DD	00H
	DD	0ffffffffH
	DD	00H
xdata	ENDS
;	COMDAT CONST
CONST	SEGMENT
$cppxdata$PMCCS_Multiply_X_I DD 019930522H
	DD	02H
	DD	imagerel $stateUnwindMap$PMCCS_Multiply_X_I
	DD	01H
	DD	imagerel $tryMap$PMCCS_Multiply_X_I
	DD	06H
	DD	imagerel $ip2state$PMCCS_Multiply_X_I
	DD	020H
	DD	00H
	DD	00H
CONST	ENDS
;	COMDAT xdata
xdata	SEGMENT
$unwind$PMCCS_Multiply_X_I DD 020f19H
	DD	030025206H
	DD	imagerel __CxxFrameHandler3
	DD	imagerel $cppxdata$PMCCS_Multiply_X_I
xdata	ENDS
;	COMDAT xdata
xdata	SEGMENT
$unwind$PMCCS_Multiply_L_X$catch$0 DD 020a19H
	DD	05006320aH
	DD	imagerel __CxxFrameHandler3
	DD	imagerel $cppxdata$PMCCS_Multiply_L_X
xdata	ENDS
;	COMDAT xdata
xdata	SEGMENT
$ip2state$PMCCS_Multiply_L_X DD imagerel PMCCS_Multiply_L_X
	DD	0ffffffffH
	DD	imagerel PMCCS_Multiply_L_X+33
	DD	00H
	DD	imagerel PMCCS_Multiply_L_X+45
	DD	0ffffffffH
	DD	imagerel PMCCS_Multiply_L_X+49
	DD	00H
	DD	imagerel PMCCS_Multiply_L_X$catch$0+13
	DD	01H
	DD	imagerel PMCCS_Multiply_L_X$catch$0+23
	DD	00H
xdata	ENDS
;	COMDAT xdata
xdata	SEGMENT
$handlerMap$0$PMCCS_Multiply_L_X DD 09H
	DD	imagerel ??_R0?AVException@Internal@Core@Math@Palmtree@@@8
	DD	028H
	DD	imagerel PMCCS_Multiply_L_X$catch$0
	DD	038H
xdata	ENDS
;	COMDAT xdata
xdata	SEGMENT
$tryMap$PMCCS_Multiply_L_X DD 00H
	DD	00H
	DD	01H
	DD	01H
	DD	imagerel $handlerMap$0$PMCCS_Multiply_L_X
xdata	ENDS
;	COMDAT xdata
xdata	SEGMENT
$stateUnwindMap$PMCCS_Multiply_L_X DD 0ffffffffH
	DD	00H
	DD	0ffffffffH
	DD	00H
xdata	ENDS
;	COMDAT CONST
CONST	SEGMENT
$cppxdata$PMCCS_Multiply_L_X DD 019930522H
	DD	02H
	DD	imagerel $stateUnwindMap$PMCCS_Multiply_L_X
	DD	01H
	DD	imagerel $tryMap$PMCCS_Multiply_L_X
	DD	06H
	DD	imagerel $ip2state$PMCCS_Multiply_L_X
	DD	020H
	DD	00H
	DD	00H
CONST	ENDS
;	COMDAT xdata
xdata	SEGMENT
$unwind$PMCCS_Multiply_L_X DD 020f19H
	DD	030025206H
	DD	imagerel __CxxFrameHandler3
	DD	imagerel $cppxdata$PMCCS_Multiply_L_X
xdata	ENDS
;	COMDAT xdata
xdata	SEGMENT
$unwind$PMCCS_Multiply_I_X$catch$0 DD 020a19H
	DD	05006320aH
	DD	imagerel __CxxFrameHandler3
	DD	imagerel $cppxdata$PMCCS_Multiply_I_X
xdata	ENDS
;	COMDAT xdata
xdata	SEGMENT
$ip2state$PMCCS_Multiply_I_X DD imagerel PMCCS_Multiply_I_X
	DD	0ffffffffH
	DD	imagerel PMCCS_Multiply_I_X+33
	DD	00H
	DD	imagerel PMCCS_Multiply_I_X+45
	DD	0ffffffffH
	DD	imagerel PMCCS_Multiply_I_X+49
	DD	00H
	DD	imagerel PMCCS_Multiply_I_X$catch$0+13
	DD	01H
	DD	imagerel PMCCS_Multiply_I_X$catch$0+23
	DD	00H
xdata	ENDS
;	COMDAT xdata
xdata	SEGMENT
$handlerMap$0$PMCCS_Multiply_I_X DD 09H
	DD	imagerel ??_R0?AVException@Internal@Core@Math@Palmtree@@@8
	DD	028H
	DD	imagerel PMCCS_Multiply_I_X$catch$0
	DD	038H
xdata	ENDS
;	COMDAT xdata
xdata	SEGMENT
$tryMap$PMCCS_Multiply_I_X DD 00H
	DD	00H
	DD	01H
	DD	01H
	DD	imagerel $handlerMap$0$PMCCS_Multiply_I_X
xdata	ENDS
;	COMDAT xdata
xdata	SEGMENT
$stateUnwindMap$PMCCS_Multiply_I_X DD 0ffffffffH
	DD	00H
	DD	0ffffffffH
	DD	00H
xdata	ENDS
;	COMDAT CONST
CONST	SEGMENT
$cppxdata$PMCCS_Multiply_I_X DD 019930522H
	DD	02H
	DD	imagerel $stateUnwindMap$PMCCS_Multiply_I_X
	DD	01H
	DD	imagerel $tryMap$PMCCS_Multiply_I_X
	DD	06H
	DD	imagerel $ip2state$PMCCS_Multiply_I_X
	DD	020H
	DD	00H
	DD	00H
CONST	ENDS
;	COMDAT xdata
xdata	SEGMENT
$unwind$PMCCS_Multiply_I_X DD 020f19H
	DD	030025206H
	DD	imagerel __CxxFrameHandler3
	DD	imagerel $cppxdata$PMCCS_Multiply_I_X
xdata	ENDS
;	COMDAT xdata
xdata	SEGMENT
$unwind$PMCCS_Subtruct_X_X$catch$0 DD 020a19H
	DD	05006320aH
	DD	imagerel __CxxFrameHandler3
	DD	imagerel $cppxdata$PMCCS_Subtruct_X_X
xdata	ENDS
;	COMDAT xdata
xdata	SEGMENT
$ip2state$PMCCS_Subtruct_X_X DD imagerel PMCCS_Subtruct_X_X
	DD	0ffffffffH
	DD	imagerel PMCCS_Subtruct_X_X+33
	DD	00H
	DD	imagerel PMCCS_Subtruct_X_X+45
	DD	0ffffffffH
	DD	imagerel PMCCS_Subtruct_X_X+49
	DD	00H
	DD	imagerel PMCCS_Subtruct_X_X$catch$0+13
	DD	01H
	DD	imagerel PMCCS_Subtruct_X_X$catch$0+23
	DD	00H
xdata	ENDS
;	COMDAT xdata
xdata	SEGMENT
$handlerMap$0$PMCCS_Subtruct_X_X DD 09H
	DD	imagerel ??_R0?AVException@Internal@Core@Math@Palmtree@@@8
	DD	028H
	DD	imagerel PMCCS_Subtruct_X_X$catch$0
	DD	038H
xdata	ENDS
;	COMDAT xdata
xdata	SEGMENT
$tryMap$PMCCS_Subtruct_X_X DD 00H
	DD	00H
	DD	01H
	DD	01H
	DD	imagerel $handlerMap$0$PMCCS_Subtruct_X_X
xdata	ENDS
;	COMDAT xdata
xdata	SEGMENT
$stateUnwindMap$PMCCS_Subtruct_X_X DD 0ffffffffH
	DD	00H
	DD	0ffffffffH
	DD	00H
xdata	ENDS
;	COMDAT CONST
CONST	SEGMENT
$cppxdata$PMCCS_Subtruct_X_X DD 019930522H
	DD	02H
	DD	imagerel $stateUnwindMap$PMCCS_Subtruct_X_X
	DD	01H
	DD	imagerel $tryMap$PMCCS_Subtruct_X_X
	DD	06H
	DD	imagerel $ip2state$PMCCS_Subtruct_X_X
	DD	020H
	DD	00H
	DD	00H
CONST	ENDS
;	COMDAT xdata
xdata	SEGMENT
$unwind$PMCCS_Subtruct_X_X DD 020f19H
	DD	030025206H
	DD	imagerel __CxxFrameHandler3
	DD	imagerel $cppxdata$PMCCS_Subtruct_X_X
xdata	ENDS
;	COMDAT xdata
xdata	SEGMENT
$unwind$PMCCS_Subtruct_X_L$catch$0 DD 020a19H
	DD	05006320aH
	DD	imagerel __CxxFrameHandler3
	DD	imagerel $cppxdata$PMCCS_Subtruct_X_L
xdata	ENDS
;	COMDAT xdata
xdata	SEGMENT
$ip2state$PMCCS_Subtruct_X_L DD imagerel PMCCS_Subtruct_X_L
	DD	0ffffffffH
	DD	imagerel PMCCS_Subtruct_X_L+33
	DD	00H
	DD	imagerel PMCCS_Subtruct_X_L+45
	DD	0ffffffffH
	DD	imagerel PMCCS_Subtruct_X_L+49
	DD	00H
	DD	imagerel PMCCS_Subtruct_X_L$catch$0+13
	DD	01H
	DD	imagerel PMCCS_Subtruct_X_L$catch$0+23
	DD	00H
xdata	ENDS
;	COMDAT xdata
xdata	SEGMENT
$handlerMap$0$PMCCS_Subtruct_X_L DD 09H
	DD	imagerel ??_R0?AVException@Internal@Core@Math@Palmtree@@@8
	DD	028H
	DD	imagerel PMCCS_Subtruct_X_L$catch$0
	DD	038H
xdata	ENDS
;	COMDAT xdata
xdata	SEGMENT
$tryMap$PMCCS_Subtruct_X_L DD 00H
	DD	00H
	DD	01H
	DD	01H
	DD	imagerel $handlerMap$0$PMCCS_Subtruct_X_L
xdata	ENDS
;	COMDAT xdata
xdata	SEGMENT
$stateUnwindMap$PMCCS_Subtruct_X_L DD 0ffffffffH
	DD	00H
	DD	0ffffffffH
	DD	00H
xdata	ENDS
;	COMDAT CONST
CONST	SEGMENT
$cppxdata$PMCCS_Subtruct_X_L DD 019930522H
	DD	02H
	DD	imagerel $stateUnwindMap$PMCCS_Subtruct_X_L
	DD	01H
	DD	imagerel $tryMap$PMCCS_Subtruct_X_L
	DD	06H
	DD	imagerel $ip2state$PMCCS_Subtruct_X_L
	DD	020H
	DD	00H
	DD	00H
CONST	ENDS
;	COMDAT xdata
xdata	SEGMENT
$unwind$PMCCS_Subtruct_X_L DD 020f19H
	DD	030025206H
	DD	imagerel __CxxFrameHandler3
	DD	imagerel $cppxdata$PMCCS_Subtruct_X_L
xdata	ENDS
;	COMDAT xdata
xdata	SEGMENT
$unwind$PMCCS_Subtruct_X_I$catch$0 DD 020a19H
	DD	05006320aH
	DD	imagerel __CxxFrameHandler3
	DD	imagerel $cppxdata$PMCCS_Subtruct_X_I
xdata	ENDS
;	COMDAT xdata
xdata	SEGMENT
$ip2state$PMCCS_Subtruct_X_I DD imagerel PMCCS_Subtruct_X_I
	DD	0ffffffffH
	DD	imagerel PMCCS_Subtruct_X_I+33
	DD	00H
	DD	imagerel PMCCS_Subtruct_X_I+45
	DD	0ffffffffH
	DD	imagerel PMCCS_Subtruct_X_I+49
	DD	00H
	DD	imagerel PMCCS_Subtruct_X_I$catch$0+13
	DD	01H
	DD	imagerel PMCCS_Subtruct_X_I$catch$0+23
	DD	00H
xdata	ENDS
;	COMDAT xdata
xdata	SEGMENT
$handlerMap$0$PMCCS_Subtruct_X_I DD 09H
	DD	imagerel ??_R0?AVException@Internal@Core@Math@Palmtree@@@8
	DD	028H
	DD	imagerel PMCCS_Subtruct_X_I$catch$0
	DD	038H
xdata	ENDS
;	COMDAT xdata
xdata	SEGMENT
$tryMap$PMCCS_Subtruct_X_I DD 00H
	DD	00H
	DD	01H
	DD	01H
	DD	imagerel $handlerMap$0$PMCCS_Subtruct_X_I
xdata	ENDS
;	COMDAT xdata
xdata	SEGMENT
$stateUnwindMap$PMCCS_Subtruct_X_I DD 0ffffffffH
	DD	00H
	DD	0ffffffffH
	DD	00H
xdata	ENDS
;	COMDAT CONST
CONST	SEGMENT
$cppxdata$PMCCS_Subtruct_X_I DD 019930522H
	DD	02H
	DD	imagerel $stateUnwindMap$PMCCS_Subtruct_X_I
	DD	01H
	DD	imagerel $tryMap$PMCCS_Subtruct_X_I
	DD	06H
	DD	imagerel $ip2state$PMCCS_Subtruct_X_I
	DD	020H
	DD	00H
	DD	00H
CONST	ENDS
;	COMDAT xdata
xdata	SEGMENT
$unwind$PMCCS_Subtruct_X_I DD 020f19H
	DD	030025206H
	DD	imagerel __CxxFrameHandler3
	DD	imagerel $cppxdata$PMCCS_Subtruct_X_I
xdata	ENDS
;	COMDAT xdata
xdata	SEGMENT
$unwind$PMCCS_Subtruct_L_X$catch$0 DD 020a19H
	DD	05006320aH
	DD	imagerel __CxxFrameHandler3
	DD	imagerel $cppxdata$PMCCS_Subtruct_L_X
xdata	ENDS
;	COMDAT xdata
xdata	SEGMENT
$ip2state$PMCCS_Subtruct_L_X DD imagerel PMCCS_Subtruct_L_X
	DD	0ffffffffH
	DD	imagerel PMCCS_Subtruct_L_X+33
	DD	00H
	DD	imagerel PMCCS_Subtruct_L_X+45
	DD	0ffffffffH
	DD	imagerel PMCCS_Subtruct_L_X+49
	DD	00H
	DD	imagerel PMCCS_Subtruct_L_X$catch$0+13
	DD	01H
	DD	imagerel PMCCS_Subtruct_L_X$catch$0+23
	DD	00H
xdata	ENDS
;	COMDAT xdata
xdata	SEGMENT
$handlerMap$0$PMCCS_Subtruct_L_X DD 09H
	DD	imagerel ??_R0?AVException@Internal@Core@Math@Palmtree@@@8
	DD	028H
	DD	imagerel PMCCS_Subtruct_L_X$catch$0
	DD	038H
xdata	ENDS
;	COMDAT xdata
xdata	SEGMENT
$tryMap$PMCCS_Subtruct_L_X DD 00H
	DD	00H
	DD	01H
	DD	01H
	DD	imagerel $handlerMap$0$PMCCS_Subtruct_L_X
xdata	ENDS
;	COMDAT xdata
xdata	SEGMENT
$stateUnwindMap$PMCCS_Subtruct_L_X DD 0ffffffffH
	DD	00H
	DD	0ffffffffH
	DD	00H
xdata	ENDS
;	COMDAT CONST
CONST	SEGMENT
$cppxdata$PMCCS_Subtruct_L_X DD 019930522H
	DD	02H
	DD	imagerel $stateUnwindMap$PMCCS_Subtruct_L_X
	DD	01H
	DD	imagerel $tryMap$PMCCS_Subtruct_L_X
	DD	06H
	DD	imagerel $ip2state$PMCCS_Subtruct_L_X
	DD	020H
	DD	00H
	DD	00H
CONST	ENDS
;	COMDAT xdata
xdata	SEGMENT
$unwind$PMCCS_Subtruct_L_X DD 020f19H
	DD	030025206H
	DD	imagerel __CxxFrameHandler3
	DD	imagerel $cppxdata$PMCCS_Subtruct_L_X
xdata	ENDS
;	COMDAT xdata
xdata	SEGMENT
$unwind$PMCCS_Subtruct_I_X$catch$0 DD 020a19H
	DD	05006320aH
	DD	imagerel __CxxFrameHandler3
	DD	imagerel $cppxdata$PMCCS_Subtruct_I_X
xdata	ENDS
;	COMDAT xdata
xdata	SEGMENT
$ip2state$PMCCS_Subtruct_I_X DD imagerel PMCCS_Subtruct_I_X
	DD	0ffffffffH
	DD	imagerel PMCCS_Subtruct_I_X+33
	DD	00H
	DD	imagerel PMCCS_Subtruct_I_X+44
	DD	0ffffffffH
	DD	imagerel PMCCS_Subtruct_I_X+48
	DD	00H
	DD	imagerel PMCCS_Subtruct_I_X$catch$0+13
	DD	01H
	DD	imagerel PMCCS_Subtruct_I_X$catch$0+23
	DD	00H
xdata	ENDS
;	COMDAT xdata
xdata	SEGMENT
$handlerMap$0$PMCCS_Subtruct_I_X DD 09H
	DD	imagerel ??_R0?AVException@Internal@Core@Math@Palmtree@@@8
	DD	028H
	DD	imagerel PMCCS_Subtruct_I_X$catch$0
	DD	038H
xdata	ENDS
;	COMDAT xdata
xdata	SEGMENT
$tryMap$PMCCS_Subtruct_I_X DD 00H
	DD	00H
	DD	01H
	DD	01H
	DD	imagerel $handlerMap$0$PMCCS_Subtruct_I_X
xdata	ENDS
;	COMDAT xdata
xdata	SEGMENT
$stateUnwindMap$PMCCS_Subtruct_I_X DD 0ffffffffH
	DD	00H
	DD	0ffffffffH
	DD	00H
xdata	ENDS
;	COMDAT CONST
CONST	SEGMENT
$cppxdata$PMCCS_Subtruct_I_X DD 019930522H
	DD	02H
	DD	imagerel $stateUnwindMap$PMCCS_Subtruct_I_X
	DD	01H
	DD	imagerel $tryMap$PMCCS_Subtruct_I_X
	DD	06H
	DD	imagerel $ip2state$PMCCS_Subtruct_I_X
	DD	020H
	DD	00H
	DD	00H
CONST	ENDS
;	COMDAT xdata
xdata	SEGMENT
$unwind$PMCCS_Subtruct_I_X DD 020f19H
	DD	030025206H
	DD	imagerel __CxxFrameHandler3
	DD	imagerel $cppxdata$PMCCS_Subtruct_I_X
xdata	ENDS
;	COMDAT xdata
xdata	SEGMENT
$unwind$PMCCS_Add_X_X$catch$0 DD 020a19H
	DD	05006320aH
	DD	imagerel __CxxFrameHandler3
	DD	imagerel $cppxdata$PMCCS_Add_X_X
xdata	ENDS
;	COMDAT xdata
xdata	SEGMENT
$ip2state$PMCCS_Add_X_X DD imagerel PMCCS_Add_X_X
	DD	0ffffffffH
	DD	imagerel PMCCS_Add_X_X+33
	DD	00H
	DD	imagerel PMCCS_Add_X_X+45
	DD	0ffffffffH
	DD	imagerel PMCCS_Add_X_X+49
	DD	00H
	DD	imagerel PMCCS_Add_X_X$catch$0+13
	DD	01H
	DD	imagerel PMCCS_Add_X_X$catch$0+23
	DD	00H
xdata	ENDS
;	COMDAT xdata
xdata	SEGMENT
$handlerMap$0$PMCCS_Add_X_X DD 09H
	DD	imagerel ??_R0?AVException@Internal@Core@Math@Palmtree@@@8
	DD	028H
	DD	imagerel PMCCS_Add_X_X$catch$0
	DD	038H
xdata	ENDS
;	COMDAT xdata
xdata	SEGMENT
$tryMap$PMCCS_Add_X_X DD 00H
	DD	00H
	DD	01H
	DD	01H
	DD	imagerel $handlerMap$0$PMCCS_Add_X_X
xdata	ENDS
;	COMDAT xdata
xdata	SEGMENT
$stateUnwindMap$PMCCS_Add_X_X DD 0ffffffffH
	DD	00H
	DD	0ffffffffH
	DD	00H
xdata	ENDS
;	COMDAT CONST
CONST	SEGMENT
$cppxdata$PMCCS_Add_X_X DD 019930522H
	DD	02H
	DD	imagerel $stateUnwindMap$PMCCS_Add_X_X
	DD	01H
	DD	imagerel $tryMap$PMCCS_Add_X_X
	DD	06H
	DD	imagerel $ip2state$PMCCS_Add_X_X
	DD	020H
	DD	00H
	DD	00H
CONST	ENDS
;	COMDAT xdata
xdata	SEGMENT
$unwind$PMCCS_Add_X_X DD 020f19H
	DD	030025206H
	DD	imagerel __CxxFrameHandler3
	DD	imagerel $cppxdata$PMCCS_Add_X_X
xdata	ENDS
;	COMDAT xdata
xdata	SEGMENT
$unwind$PMCCS_Add_X_L$catch$0 DD 020a19H
	DD	05006320aH
	DD	imagerel __CxxFrameHandler3
	DD	imagerel $cppxdata$PMCCS_Add_X_L
xdata	ENDS
;	COMDAT xdata
xdata	SEGMENT
$ip2state$PMCCS_Add_X_L DD imagerel PMCCS_Add_X_L
	DD	0ffffffffH
	DD	imagerel PMCCS_Add_X_L+33
	DD	00H
	DD	imagerel PMCCS_Add_X_L+45
	DD	0ffffffffH
	DD	imagerel PMCCS_Add_X_L+49
	DD	00H
	DD	imagerel PMCCS_Add_X_L$catch$0+13
	DD	01H
	DD	imagerel PMCCS_Add_X_L$catch$0+23
	DD	00H
xdata	ENDS
;	COMDAT xdata
xdata	SEGMENT
$handlerMap$0$PMCCS_Add_X_L DD 09H
	DD	imagerel ??_R0?AVException@Internal@Core@Math@Palmtree@@@8
	DD	028H
	DD	imagerel PMCCS_Add_X_L$catch$0
	DD	038H
xdata	ENDS
;	COMDAT xdata
xdata	SEGMENT
$tryMap$PMCCS_Add_X_L DD 00H
	DD	00H
	DD	01H
	DD	01H
	DD	imagerel $handlerMap$0$PMCCS_Add_X_L
xdata	ENDS
;	COMDAT xdata
xdata	SEGMENT
$stateUnwindMap$PMCCS_Add_X_L DD 0ffffffffH
	DD	00H
	DD	0ffffffffH
	DD	00H
xdata	ENDS
;	COMDAT CONST
CONST	SEGMENT
$cppxdata$PMCCS_Add_X_L DD 019930522H
	DD	02H
	DD	imagerel $stateUnwindMap$PMCCS_Add_X_L
	DD	01H
	DD	imagerel $tryMap$PMCCS_Add_X_L
	DD	06H
	DD	imagerel $ip2state$PMCCS_Add_X_L
	DD	020H
	DD	00H
	DD	00H
CONST	ENDS
;	COMDAT xdata
xdata	SEGMENT
$unwind$PMCCS_Add_X_L DD 020f19H
	DD	030025206H
	DD	imagerel __CxxFrameHandler3
	DD	imagerel $cppxdata$PMCCS_Add_X_L
xdata	ENDS
;	COMDAT xdata
xdata	SEGMENT
$unwind$PMCCS_Add_X_I$catch$0 DD 020a19H
	DD	05006320aH
	DD	imagerel __CxxFrameHandler3
	DD	imagerel $cppxdata$PMCCS_Add_X_I
xdata	ENDS
;	COMDAT xdata
xdata	SEGMENT
$ip2state$PMCCS_Add_X_I DD imagerel PMCCS_Add_X_I
	DD	0ffffffffH
	DD	imagerel PMCCS_Add_X_I+33
	DD	00H
	DD	imagerel PMCCS_Add_X_I+45
	DD	0ffffffffH
	DD	imagerel PMCCS_Add_X_I+49
	DD	00H
	DD	imagerel PMCCS_Add_X_I$catch$0+13
	DD	01H
	DD	imagerel PMCCS_Add_X_I$catch$0+23
	DD	00H
xdata	ENDS
;	COMDAT xdata
xdata	SEGMENT
$handlerMap$0$PMCCS_Add_X_I DD 09H
	DD	imagerel ??_R0?AVException@Internal@Core@Math@Palmtree@@@8
	DD	028H
	DD	imagerel PMCCS_Add_X_I$catch$0
	DD	038H
xdata	ENDS
;	COMDAT xdata
xdata	SEGMENT
$tryMap$PMCCS_Add_X_I DD 00H
	DD	00H
	DD	01H
	DD	01H
	DD	imagerel $handlerMap$0$PMCCS_Add_X_I
xdata	ENDS
;	COMDAT xdata
xdata	SEGMENT
$stateUnwindMap$PMCCS_Add_X_I DD 0ffffffffH
	DD	00H
	DD	0ffffffffH
	DD	00H
xdata	ENDS
;	COMDAT CONST
CONST	SEGMENT
$cppxdata$PMCCS_Add_X_I DD 019930522H
	DD	02H
	DD	imagerel $stateUnwindMap$PMCCS_Add_X_I
	DD	01H
	DD	imagerel $tryMap$PMCCS_Add_X_I
	DD	06H
	DD	imagerel $ip2state$PMCCS_Add_X_I
	DD	020H
	DD	00H
	DD	00H
CONST	ENDS
;	COMDAT xdata
xdata	SEGMENT
$unwind$PMCCS_Add_X_I DD 020f19H
	DD	030025206H
	DD	imagerel __CxxFrameHandler3
	DD	imagerel $cppxdata$PMCCS_Add_X_I
xdata	ENDS
;	COMDAT xdata
xdata	SEGMENT
$unwind$PMCCS_Add_L_X$catch$0 DD 020a19H
	DD	05006320aH
	DD	imagerel __CxxFrameHandler3
	DD	imagerel $cppxdata$PMCCS_Add_L_X
xdata	ENDS
;	COMDAT xdata
xdata	SEGMENT
$ip2state$PMCCS_Add_L_X DD imagerel PMCCS_Add_L_X
	DD	0ffffffffH
	DD	imagerel PMCCS_Add_L_X+33
	DD	00H
	DD	imagerel PMCCS_Add_L_X+45
	DD	0ffffffffH
	DD	imagerel PMCCS_Add_L_X+49
	DD	00H
	DD	imagerel PMCCS_Add_L_X$catch$0+13
	DD	01H
	DD	imagerel PMCCS_Add_L_X$catch$0+23
	DD	00H
xdata	ENDS
;	COMDAT xdata
xdata	SEGMENT
$handlerMap$0$PMCCS_Add_L_X DD 09H
	DD	imagerel ??_R0?AVException@Internal@Core@Math@Palmtree@@@8
	DD	028H
	DD	imagerel PMCCS_Add_L_X$catch$0
	DD	038H
xdata	ENDS
;	COMDAT xdata
xdata	SEGMENT
$tryMap$PMCCS_Add_L_X DD 00H
	DD	00H
	DD	01H
	DD	01H
	DD	imagerel $handlerMap$0$PMCCS_Add_L_X
xdata	ENDS
;	COMDAT xdata
xdata	SEGMENT
$stateUnwindMap$PMCCS_Add_L_X DD 0ffffffffH
	DD	00H
	DD	0ffffffffH
	DD	00H
xdata	ENDS
;	COMDAT CONST
CONST	SEGMENT
$cppxdata$PMCCS_Add_L_X DD 019930522H
	DD	02H
	DD	imagerel $stateUnwindMap$PMCCS_Add_L_X
	DD	01H
	DD	imagerel $tryMap$PMCCS_Add_L_X
	DD	06H
	DD	imagerel $ip2state$PMCCS_Add_L_X
	DD	020H
	DD	00H
	DD	00H
CONST	ENDS
;	COMDAT xdata
xdata	SEGMENT
$unwind$PMCCS_Add_L_X DD 020f19H
	DD	030025206H
	DD	imagerel __CxxFrameHandler3
	DD	imagerel $cppxdata$PMCCS_Add_L_X
xdata	ENDS
;	COMDAT xdata
xdata	SEGMENT
$unwind$PMCCS_Add_I_X$catch$0 DD 020a19H
	DD	05006320aH
	DD	imagerel __CxxFrameHandler3
	DD	imagerel $cppxdata$PMCCS_Add_I_X
xdata	ENDS
;	COMDAT xdata
xdata	SEGMENT
$ip2state$PMCCS_Add_I_X DD imagerel PMCCS_Add_I_X
	DD	0ffffffffH
	DD	imagerel PMCCS_Add_I_X+33
	DD	00H
	DD	imagerel PMCCS_Add_I_X+45
	DD	0ffffffffH
	DD	imagerel PMCCS_Add_I_X+49
	DD	00H
	DD	imagerel PMCCS_Add_I_X$catch$0+13
	DD	01H
	DD	imagerel PMCCS_Add_I_X$catch$0+23
	DD	00H
xdata	ENDS
;	COMDAT xdata
xdata	SEGMENT
$handlerMap$0$PMCCS_Add_I_X DD 09H
	DD	imagerel ??_R0?AVException@Internal@Core@Math@Palmtree@@@8
	DD	028H
	DD	imagerel PMCCS_Add_I_X$catch$0
	DD	038H
xdata	ENDS
;	COMDAT xdata
xdata	SEGMENT
$tryMap$PMCCS_Add_I_X DD 00H
	DD	00H
	DD	01H
	DD	01H
	DD	imagerel $handlerMap$0$PMCCS_Add_I_X
xdata	ENDS
;	COMDAT xdata
xdata	SEGMENT
$stateUnwindMap$PMCCS_Add_I_X DD 0ffffffffH
	DD	00H
	DD	0ffffffffH
	DD	00H
xdata	ENDS
;	COMDAT CONST
CONST	SEGMENT
$cppxdata$PMCCS_Add_I_X DD 019930522H
	DD	02H
	DD	imagerel $stateUnwindMap$PMCCS_Add_I_X
	DD	01H
	DD	imagerel $tryMap$PMCCS_Add_I_X
	DD	06H
	DD	imagerel $ip2state$PMCCS_Add_I_X
	DD	020H
	DD	00H
	DD	00H
CONST	ENDS
;	COMDAT xdata
xdata	SEGMENT
$unwind$PMCCS_Add_I_X DD 020f19H
	DD	030025206H
	DD	imagerel __CxxFrameHandler3
	DD	imagerel $cppxdata$PMCCS_Add_I_X
xdata	ENDS
;	COMDAT xdata
xdata	SEGMENT
$unwind$PMCCS_TryParse$catch$0 DD 020a19H
	DD	05006520aH
	DD	imagerel __CxxFrameHandler3
	DD	imagerel $cppxdata$PMCCS_TryParse
xdata	ENDS
;	COMDAT xdata
xdata	SEGMENT
$ip2state$PMCCS_TryParse DD imagerel PMCCS_TryParse
	DD	0ffffffffH
	DD	imagerel PMCCS_TryParse+45
	DD	00H
	DD	imagerel PMCCS_TryParse+68
	DD	0ffffffffH
	DD	imagerel PMCCS_TryParse+72
	DD	00H
	DD	imagerel PMCCS_TryParse$catch$0+13
	DD	01H
	DD	imagerel PMCCS_TryParse$catch$0+23
	DD	00H
xdata	ENDS
;	COMDAT xdata
xdata	SEGMENT
$handlerMap$0$PMCCS_TryParse DD 09H
	DD	imagerel ??_R0?AVException@Internal@Core@Math@Palmtree@@@8
	DD	038H
	DD	imagerel PMCCS_TryParse$catch$0
	DD	048H
xdata	ENDS
;	COMDAT xdata
xdata	SEGMENT
$tryMap$PMCCS_TryParse DD 00H
	DD	00H
	DD	01H
	DD	01H
	DD	imagerel $handlerMap$0$PMCCS_TryParse
xdata	ENDS
;	COMDAT xdata
xdata	SEGMENT
$stateUnwindMap$PMCCS_TryParse DD 0ffffffffH
	DD	00H
	DD	0ffffffffH
	DD	00H
xdata	ENDS
;	COMDAT CONST
CONST	SEGMENT
$cppxdata$PMCCS_TryParse DD 019930522H
	DD	02H
	DD	imagerel $stateUnwindMap$PMCCS_TryParse
	DD	01H
	DD	imagerel $tryMap$PMCCS_TryParse
	DD	06H
	DD	imagerel $ip2state$PMCCS_TryParse
	DD	030H
	DD	00H
	DD	00H
CONST	ENDS
;	COMDAT xdata
xdata	SEGMENT
$unwind$PMCCS_TryParse DD 010d19H
	DD	08204H
	DD	imagerel __CxxFrameHandler3
	DD	imagerel $cppxdata$PMCCS_TryParse
xdata	ENDS
;	COMDAT xdata
xdata	SEGMENT
$unwind$PMCCS_Parse$catch$0 DD 020a19H
	DD	05006520aH
	DD	imagerel __CxxFrameHandler3
	DD	imagerel $cppxdata$PMCCS_Parse
xdata	ENDS
;	COMDAT xdata
xdata	SEGMENT
$ip2state$PMCCS_Parse DD imagerel PMCCS_Parse
	DD	0ffffffffH
	DD	imagerel PMCCS_Parse+45
	DD	00H
	DD	imagerel PMCCS_Parse+86
	DD	0ffffffffH
	DD	imagerel PMCCS_Parse+90
	DD	00H
	DD	imagerel PMCCS_Parse$catch$0+13
	DD	01H
	DD	imagerel PMCCS_Parse$catch$0+23
	DD	00H
xdata	ENDS
;	COMDAT xdata
xdata	SEGMENT
$handlerMap$0$PMCCS_Parse DD 09H
	DD	imagerel ??_R0?AVException@Internal@Core@Math@Palmtree@@@8
	DD	038H
	DD	imagerel PMCCS_Parse$catch$0
	DD	048H
xdata	ENDS
;	COMDAT xdata
xdata	SEGMENT
$tryMap$PMCCS_Parse DD 00H
	DD	00H
	DD	01H
	DD	01H
	DD	imagerel $handlerMap$0$PMCCS_Parse
xdata	ENDS
;	COMDAT xdata
xdata	SEGMENT
$stateUnwindMap$PMCCS_Parse DD 0ffffffffH
	DD	00H
	DD	0ffffffffH
	DD	00H
xdata	ENDS
;	COMDAT CONST
CONST	SEGMENT
$cppxdata$PMCCS_Parse DD 019930522H
	DD	02H
	DD	imagerel $stateUnwindMap$PMCCS_Parse
	DD	01H
	DD	imagerel $tryMap$PMCCS_Parse
	DD	06H
	DD	imagerel $ip2state$PMCCS_Parse
	DD	030H
	DD	00H
	DD	00H
CONST	ENDS
;	COMDAT xdata
xdata	SEGMENT
$unwind$PMCCS_Parse DD 010d19H
	DD	08204H
	DD	imagerel __CxxFrameHandler3
	DD	imagerel $cppxdata$PMCCS_Parse
xdata	ENDS
;	COMDAT xdata
xdata	SEGMENT
$unwind$PMCCS_ToString$catch$0 DD 020a19H
	DD	05006520aH
	DD	imagerel __CxxFrameHandler3
	DD	imagerel $cppxdata$PMCCS_ToString
xdata	ENDS
;	COMDAT xdata
xdata	SEGMENT
$ip2state$PMCCS_ToString DD imagerel PMCCS_ToString
	DD	0ffffffffH
	DD	imagerel PMCCS_ToString+34
	DD	00H
	DD	imagerel PMCCS_ToString+75
	DD	0ffffffffH
	DD	imagerel PMCCS_ToString+79
	DD	00H
	DD	imagerel PMCCS_ToString$catch$0+13
	DD	01H
	DD	imagerel PMCCS_ToString$catch$0+23
	DD	00H
xdata	ENDS
;	COMDAT xdata
xdata	SEGMENT
$handlerMap$0$PMCCS_ToString DD 09H
	DD	imagerel ??_R0?AVException@Internal@Core@Math@Palmtree@@@8
	DD	038H
	DD	imagerel PMCCS_ToString$catch$0
	DD	048H
xdata	ENDS
;	COMDAT xdata
xdata	SEGMENT
$tryMap$PMCCS_ToString DD 00H
	DD	00H
	DD	01H
	DD	01H
	DD	imagerel $handlerMap$0$PMCCS_ToString
xdata	ENDS
;	COMDAT xdata
xdata	SEGMENT
$stateUnwindMap$PMCCS_ToString DD 0ffffffffH
	DD	00H
	DD	0ffffffffH
	DD	00H
xdata	ENDS
;	COMDAT CONST
CONST	SEGMENT
$cppxdata$PMCCS_ToString DD 019930522H
	DD	02H
	DD	imagerel $stateUnwindMap$PMCCS_ToString
	DD	01H
	DD	imagerel $tryMap$PMCCS_ToString
	DD	06H
	DD	imagerel $ip2state$PMCCS_ToString
	DD	030H
	DD	00H
	DD	00H
CONST	ENDS
;	COMDAT xdata
xdata	SEGMENT
$unwind$PMCCS_ToString DD 020f19H
	DD	030027206H
	DD	imagerel __CxxFrameHandler3
	DD	imagerel $cppxdata$PMCCS_ToString
xdata	ENDS
;	COMDAT xdata
xdata	SEGMENT
$unwind$PMCCS_To_X_L$catch$0 DD 020a19H
	DD	05006320aH
	DD	imagerel __CxxFrameHandler3
	DD	imagerel $cppxdata$PMCCS_To_X_L
xdata	ENDS
;	COMDAT xdata
xdata	SEGMENT
$ip2state$PMCCS_To_X_L DD imagerel PMCCS_To_X_L
	DD	0ffffffffH
	DD	imagerel PMCCS_To_X_L+32
	DD	00H
	DD	imagerel PMCCS_To_X_L+44
	DD	0ffffffffH
	DD	imagerel PMCCS_To_X_L+48
	DD	00H
	DD	imagerel PMCCS_To_X_L$catch$0+13
	DD	01H
	DD	imagerel PMCCS_To_X_L$catch$0+23
	DD	00H
xdata	ENDS
;	COMDAT xdata
xdata	SEGMENT
$handlerMap$0$PMCCS_To_X_L DD 09H
	DD	imagerel ??_R0?AVException@Internal@Core@Math@Palmtree@@@8
	DD	028H
	DD	imagerel PMCCS_To_X_L$catch$0
	DD	038H
xdata	ENDS
;	COMDAT xdata
xdata	SEGMENT
$tryMap$PMCCS_To_X_L DD 00H
	DD	00H
	DD	01H
	DD	01H
	DD	imagerel $handlerMap$0$PMCCS_To_X_L
xdata	ENDS
;	COMDAT xdata
xdata	SEGMENT
$stateUnwindMap$PMCCS_To_X_L DD 0ffffffffH
	DD	00H
	DD	0ffffffffH
	DD	00H
xdata	ENDS
;	COMDAT CONST
CONST	SEGMENT
$cppxdata$PMCCS_To_X_L DD 019930522H
	DD	02H
	DD	imagerel $stateUnwindMap$PMCCS_To_X_L
	DD	01H
	DD	imagerel $tryMap$PMCCS_To_X_L
	DD	06H
	DD	imagerel $ip2state$PMCCS_To_X_L
	DD	020H
	DD	00H
	DD	00H
CONST	ENDS
;	COMDAT xdata
xdata	SEGMENT
$unwind$PMCCS_To_X_L DD 020f19H
	DD	030025206H
	DD	imagerel __CxxFrameHandler3
	DD	imagerel $cppxdata$PMCCS_To_X_L
xdata	ENDS
;	COMDAT xdata
xdata	SEGMENT
$unwind$PMCCS_To_X_I$catch$0 DD 020a19H
	DD	05006320aH
	DD	imagerel __CxxFrameHandler3
	DD	imagerel $cppxdata$PMCCS_To_X_I
xdata	ENDS
;	COMDAT xdata
xdata	SEGMENT
$ip2state$PMCCS_To_X_I DD imagerel PMCCS_To_X_I
	DD	0ffffffffH
	DD	imagerel PMCCS_To_X_I+32
	DD	00H
	DD	imagerel PMCCS_To_X_I+43
	DD	0ffffffffH
	DD	imagerel PMCCS_To_X_I+47
	DD	00H
	DD	imagerel PMCCS_To_X_I$catch$0+13
	DD	01H
	DD	imagerel PMCCS_To_X_I$catch$0+23
	DD	00H
xdata	ENDS
;	COMDAT xdata
xdata	SEGMENT
$handlerMap$0$PMCCS_To_X_I DD 09H
	DD	imagerel ??_R0?AVException@Internal@Core@Math@Palmtree@@@8
	DD	028H
	DD	imagerel PMCCS_To_X_I$catch$0
	DD	038H
xdata	ENDS
;	COMDAT xdata
xdata	SEGMENT
$tryMap$PMCCS_To_X_I DD 00H
	DD	00H
	DD	01H
	DD	01H
	DD	imagerel $handlerMap$0$PMCCS_To_X_I
xdata	ENDS
;	COMDAT xdata
xdata	SEGMENT
$stateUnwindMap$PMCCS_To_X_I DD 0ffffffffH
	DD	00H
	DD	0ffffffffH
	DD	00H
xdata	ENDS
;	COMDAT CONST
CONST	SEGMENT
$cppxdata$PMCCS_To_X_I DD 019930522H
	DD	02H
	DD	imagerel $stateUnwindMap$PMCCS_To_X_I
	DD	01H
	DD	imagerel $tryMap$PMCCS_To_X_I
	DD	06H
	DD	imagerel $ip2state$PMCCS_To_X_I
	DD	020H
	DD	00H
	DD	00H
CONST	ENDS
;	COMDAT xdata
xdata	SEGMENT
$unwind$PMCCS_To_X_I DD 020f19H
	DD	030025206H
	DD	imagerel __CxxFrameHandler3
	DD	imagerel $cppxdata$PMCCS_To_X_I
xdata	ENDS
;	COMDAT xdata
xdata	SEGMENT
$unwind$PMCCS_GetAllocatedMemorySize$catch$0 DD 020a19H
	DD	05006320aH
	DD	imagerel __CxxFrameHandler3
	DD	imagerel $cppxdata$PMCCS_GetAllocatedMemorySize
xdata	ENDS
;	COMDAT xdata
xdata	SEGMENT
$ip2state$PMCCS_GetAllocatedMemorySize DD imagerel PMCCS_GetAllocatedMemorySize
	DD	0ffffffffH
	DD	imagerel PMCCS_GetAllocatedMemorySize+32
	DD	00H
	DD	imagerel PMCCS_GetAllocatedMemorySize+44
	DD	0ffffffffH
	DD	imagerel PMCCS_GetAllocatedMemorySize+48
	DD	00H
	DD	imagerel PMCCS_GetAllocatedMemorySize$catch$0+13
	DD	01H
	DD	imagerel PMCCS_GetAllocatedMemorySize$catch$0+23
	DD	00H
xdata	ENDS
;	COMDAT xdata
xdata	SEGMENT
$handlerMap$0$PMCCS_GetAllocatedMemorySize DD 09H
	DD	imagerel ??_R0?AVException@Internal@Core@Math@Palmtree@@@8
	DD	028H
	DD	imagerel PMCCS_GetAllocatedMemorySize$catch$0
	DD	038H
xdata	ENDS
;	COMDAT xdata
xdata	SEGMENT
$tryMap$PMCCS_GetAllocatedMemorySize DD 00H
	DD	00H
	DD	01H
	DD	01H
	DD	imagerel $handlerMap$0$PMCCS_GetAllocatedMemorySize
xdata	ENDS
;	COMDAT xdata
xdata	SEGMENT
$stateUnwindMap$PMCCS_GetAllocatedMemorySize DD 0ffffffffH
	DD	00H
	DD	0ffffffffH
	DD	00H
xdata	ENDS
;	COMDAT CONST
CONST	SEGMENT
$cppxdata$PMCCS_GetAllocatedMemorySize DD 019930522H
	DD	02H
	DD	imagerel $stateUnwindMap$PMCCS_GetAllocatedMemorySize
	DD	01H
	DD	imagerel $tryMap$PMCCS_GetAllocatedMemorySize
	DD	06H
	DD	imagerel $ip2state$PMCCS_GetAllocatedMemorySize
	DD	020H
	DD	00H
	DD	00H
CONST	ENDS
;	COMDAT xdata
xdata	SEGMENT
$unwind$PMCCS_GetAllocatedMemorySize DD 020f19H
	DD	030025206H
	DD	imagerel __CxxFrameHandler3
	DD	imagerel $cppxdata$PMCCS_GetAllocatedMemorySize
xdata	ENDS
;	COMDAT xdata
xdata	SEGMENT
$unwind$PMCCS_Clone_X$catch$0 DD 020a19H
	DD	05006320aH
	DD	imagerel __CxxFrameHandler3
	DD	imagerel $cppxdata$PMCCS_Clone_X
xdata	ENDS
;	COMDAT xdata
xdata	SEGMENT
$ip2state$PMCCS_Clone_X DD imagerel PMCCS_Clone_X
	DD	0ffffffffH
	DD	imagerel PMCCS_Clone_X+32
	DD	00H
	DD	imagerel PMCCS_Clone_X+44
	DD	0ffffffffH
	DD	imagerel PMCCS_Clone_X+48
	DD	00H
	DD	imagerel PMCCS_Clone_X$catch$0+13
	DD	01H
	DD	imagerel PMCCS_Clone_X$catch$0+23
	DD	00H
xdata	ENDS
;	COMDAT xdata
xdata	SEGMENT
$handlerMap$0$PMCCS_Clone_X DD 09H
	DD	imagerel ??_R0?AVException@Internal@Core@Math@Palmtree@@@8
	DD	028H
	DD	imagerel PMCCS_Clone_X$catch$0
	DD	038H
xdata	ENDS
;	COMDAT xdata
xdata	SEGMENT
$tryMap$PMCCS_Clone_X DD 00H
	DD	00H
	DD	01H
	DD	01H
	DD	imagerel $handlerMap$0$PMCCS_Clone_X
xdata	ENDS
;	COMDAT xdata
xdata	SEGMENT
$stateUnwindMap$PMCCS_Clone_X DD 0ffffffffH
	DD	00H
	DD	0ffffffffH
	DD	00H
xdata	ENDS
;	COMDAT CONST
CONST	SEGMENT
$cppxdata$PMCCS_Clone_X DD 019930522H
	DD	02H
	DD	imagerel $stateUnwindMap$PMCCS_Clone_X
	DD	01H
	DD	imagerel $tryMap$PMCCS_Clone_X
	DD	06H
	DD	imagerel $ip2state$PMCCS_Clone_X
	DD	020H
	DD	00H
	DD	00H
CONST	ENDS
;	COMDAT xdata
xdata	SEGMENT
$unwind$PMCCS_Clone_X DD 020f19H
	DD	030025206H
	DD	imagerel __CxxFrameHandler3
	DD	imagerel $cppxdata$PMCCS_Clone_X
xdata	ENDS
;	COMDAT xdata
xdata	SEGMENT
$unwind$PMCCS_ToByteArray$catch$0 DD 020a19H
	DD	05006320aH
	DD	imagerel __CxxFrameHandler3
	DD	imagerel $cppxdata$PMCCS_ToByteArray
xdata	ENDS
;	COMDAT xdata
xdata	SEGMENT
$ip2state$PMCCS_ToByteArray DD imagerel PMCCS_ToByteArray
	DD	0ffffffffH
	DD	imagerel PMCCS_ToByteArray+33
	DD	00H
	DD	imagerel PMCCS_ToByteArray+67
	DD	0ffffffffH
	DD	imagerel PMCCS_ToByteArray+71
	DD	00H
	DD	imagerel PMCCS_ToByteArray$catch$0+13
	DD	01H
	DD	imagerel PMCCS_ToByteArray$catch$0+23
	DD	00H
xdata	ENDS
;	COMDAT xdata
xdata	SEGMENT
$handlerMap$0$PMCCS_ToByteArray DD 09H
	DD	imagerel ??_R0?AVException@Internal@Core@Math@Palmtree@@@8
	DD	028H
	DD	imagerel PMCCS_ToByteArray$catch$0
	DD	038H
xdata	ENDS
;	COMDAT xdata
xdata	SEGMENT
$tryMap$PMCCS_ToByteArray DD 00H
	DD	00H
	DD	01H
	DD	01H
	DD	imagerel $handlerMap$0$PMCCS_ToByteArray
xdata	ENDS
;	COMDAT xdata
xdata	SEGMENT
$stateUnwindMap$PMCCS_ToByteArray DD 0ffffffffH
	DD	00H
	DD	0ffffffffH
	DD	00H
xdata	ENDS
;	COMDAT CONST
CONST	SEGMENT
$cppxdata$PMCCS_ToByteArray DD 019930522H
	DD	02H
	DD	imagerel $stateUnwindMap$PMCCS_ToByteArray
	DD	01H
	DD	imagerel $tryMap$PMCCS_ToByteArray
	DD	06H
	DD	imagerel $ip2state$PMCCS_ToByteArray
	DD	020H
	DD	00H
	DD	00H
CONST	ENDS
;	COMDAT xdata
xdata	SEGMENT
$unwind$PMCCS_ToByteArray DD 020f19H
	DD	030025206H
	DD	imagerel __CxxFrameHandler3
	DD	imagerel $cppxdata$PMCCS_ToByteArray
xdata	ENDS
;	COMDAT xdata
xdata	SEGMENT
$unwind$PMCCS_FromByteArray$catch$0 DD 020a19H
	DD	05006320aH
	DD	imagerel __CxxFrameHandler3
	DD	imagerel $cppxdata$PMCCS_FromByteArray
xdata	ENDS
;	COMDAT xdata
xdata	SEGMENT
$ip2state$PMCCS_FromByteArray DD imagerel PMCCS_FromByteArray
	DD	0ffffffffH
	DD	imagerel PMCCS_FromByteArray+33
	DD	00H
	DD	imagerel PMCCS_FromByteArray+48
	DD	0ffffffffH
	DD	imagerel PMCCS_FromByteArray+52
	DD	00H
	DD	imagerel PMCCS_FromByteArray$catch$0+13
	DD	01H
	DD	imagerel PMCCS_FromByteArray$catch$0+23
	DD	00H
xdata	ENDS
;	COMDAT xdata
xdata	SEGMENT
$handlerMap$0$PMCCS_FromByteArray DD 09H
	DD	imagerel ??_R0?AVException@Internal@Core@Math@Palmtree@@@8
	DD	028H
	DD	imagerel PMCCS_FromByteArray$catch$0
	DD	038H
xdata	ENDS
;	COMDAT xdata
xdata	SEGMENT
$tryMap$PMCCS_FromByteArray DD 00H
	DD	00H
	DD	01H
	DD	01H
	DD	imagerel $handlerMap$0$PMCCS_FromByteArray
xdata	ENDS
;	COMDAT xdata
xdata	SEGMENT
$stateUnwindMap$PMCCS_FromByteArray DD 0ffffffffH
	DD	00H
	DD	0ffffffffH
	DD	00H
xdata	ENDS
;	COMDAT CONST
CONST	SEGMENT
$cppxdata$PMCCS_FromByteArray DD 019930522H
	DD	02H
	DD	imagerel $stateUnwindMap$PMCCS_FromByteArray
	DD	01H
	DD	imagerel $tryMap$PMCCS_FromByteArray
	DD	06H
	DD	imagerel $ip2state$PMCCS_FromByteArray
	DD	020H
	DD	00H
	DD	00H
CONST	ENDS
;	COMDAT xdata
xdata	SEGMENT
$unwind$PMCCS_FromByteArray DD 020f19H
	DD	030025206H
	DD	imagerel __CxxFrameHandler3
	DD	imagerel $cppxdata$PMCCS_FromByteArray
xdata	ENDS
;	COMDAT xdata
xdata	SEGMENT
$unwind$PMCCS_GetConstantValue_I$catch$0 DD 020a19H
	DD	05006320aH
	DD	imagerel __CxxFrameHandler3
	DD	imagerel $cppxdata$PMCCS_GetConstantValue_I
xdata	ENDS
;	COMDAT xdata
xdata	SEGMENT
$ip2state$PMCCS_GetConstantValue_I DD imagerel PMCCS_GetConstantValue_I
	DD	0ffffffffH
	DD	imagerel PMCCS_GetConstantValue_I+32
	DD	00H
	DD	imagerel PMCCS_GetConstantValue_I+44
	DD	0ffffffffH
	DD	imagerel PMCCS_GetConstantValue_I+48
	DD	00H
	DD	imagerel PMCCS_GetConstantValue_I$catch$0+13
	DD	01H
	DD	imagerel PMCCS_GetConstantValue_I$catch$0+23
	DD	00H
xdata	ENDS
;	COMDAT xdata
xdata	SEGMENT
$handlerMap$0$PMCCS_GetConstantValue_I DD 09H
	DD	imagerel ??_R0?AVException@Internal@Core@Math@Palmtree@@@8
	DD	028H
	DD	imagerel PMCCS_GetConstantValue_I$catch$0
	DD	038H
xdata	ENDS
;	COMDAT xdata
xdata	SEGMENT
$tryMap$PMCCS_GetConstantValue_I DD 00H
	DD	00H
	DD	01H
	DD	01H
	DD	imagerel $handlerMap$0$PMCCS_GetConstantValue_I
xdata	ENDS
;	COMDAT xdata
xdata	SEGMENT
$stateUnwindMap$PMCCS_GetConstantValue_I DD 0ffffffffH
	DD	00H
	DD	0ffffffffH
	DD	00H
xdata	ENDS
;	COMDAT CONST
CONST	SEGMENT
$cppxdata$PMCCS_GetConstantValue_I DD 019930522H
	DD	02H
	DD	imagerel $stateUnwindMap$PMCCS_GetConstantValue_I
	DD	01H
	DD	imagerel $tryMap$PMCCS_GetConstantValue_I
	DD	06H
	DD	imagerel $ip2state$PMCCS_GetConstantValue_I
	DD	020H
	DD	00H
	DD	00H
CONST	ENDS
;	COMDAT xdata
xdata	SEGMENT
$unwind$PMCCS_GetConstantValue_I DD 020f19H
	DD	030025206H
	DD	imagerel __CxxFrameHandler3
	DD	imagerel $cppxdata$PMCCS_GetConstantValue_I
xdata	ENDS
;	COMDAT xdata
xdata	SEGMENT
$unwind$PMCCS_Dispose$catch$0 DD 020a19H
	DD	05006320aH
	DD	imagerel __CxxFrameHandler3
	DD	imagerel $cppxdata$PMCCS_Dispose
xdata	ENDS
;	COMDAT xdata
xdata	SEGMENT
$ip2state$PMCCS_Dispose DD imagerel PMCCS_Dispose
	DD	0ffffffffH
	DD	imagerel PMCCS_Dispose+26
	DD	00H
	DD	imagerel PMCCS_Dispose+35
	DD	0ffffffffH
	DD	imagerel PMCCS_Dispose+39
	DD	00H
	DD	imagerel PMCCS_Dispose$catch$0+13
	DD	01H
	DD	imagerel PMCCS_Dispose$catch$0+23
	DD	00H
xdata	ENDS
;	COMDAT xdata
xdata	SEGMENT
$handlerMap$0$PMCCS_Dispose DD 09H
	DD	imagerel ??_R0?AVException@Internal@Core@Math@Palmtree@@@8
	DD	028H
	DD	imagerel PMCCS_Dispose$catch$0
	DD	038H
xdata	ENDS
;	COMDAT xdata
xdata	SEGMENT
$tryMap$PMCCS_Dispose DD 00H
	DD	00H
	DD	01H
	DD	01H
	DD	imagerel $handlerMap$0$PMCCS_Dispose
xdata	ENDS
;	COMDAT xdata
xdata	SEGMENT
$stateUnwindMap$PMCCS_Dispose DD 0ffffffffH
	DD	00H
	DD	0ffffffffH
	DD	00H
xdata	ENDS
;	COMDAT CONST
CONST	SEGMENT
$cppxdata$PMCCS_Dispose DD 019930522H
	DD	02H
	DD	imagerel $stateUnwindMap$PMCCS_Dispose
	DD	01H
	DD	imagerel $tryMap$PMCCS_Dispose
	DD	06H
	DD	imagerel $ip2state$PMCCS_Dispose
	DD	020H
	DD	00H
	DD	00H
CONST	ENDS
;	COMDAT xdata
xdata	SEGMENT
$unwind$PMCCS_Dispose DD 010d19H
	DD	06204H
	DD	imagerel __CxxFrameHandler3
	DD	imagerel $cppxdata$PMCCS_Dispose
xdata	ENDS
;	COMDAT xdata
xdata	SEGMENT
$unwind$PMCCS_From_L$catch$0 DD 020a19H
	DD	05006320aH
	DD	imagerel __CxxFrameHandler3
	DD	imagerel $cppxdata$PMCCS_From_L
xdata	ENDS
;	COMDAT xdata
xdata	SEGMENT
$ip2state$PMCCS_From_L DD imagerel PMCCS_From_L
	DD	0ffffffffH
	DD	imagerel PMCCS_From_L+32
	DD	00H
	DD	imagerel PMCCS_From_L+44
	DD	0ffffffffH
	DD	imagerel PMCCS_From_L+48
	DD	00H
	DD	imagerel PMCCS_From_L$catch$0+13
	DD	01H
	DD	imagerel PMCCS_From_L$catch$0+23
	DD	00H
xdata	ENDS
;	COMDAT xdata
xdata	SEGMENT
$handlerMap$0$PMCCS_From_L DD 09H
	DD	imagerel ??_R0?AVException@Internal@Core@Math@Palmtree@@@8
	DD	028H
	DD	imagerel PMCCS_From_L$catch$0
	DD	038H
xdata	ENDS
;	COMDAT xdata
xdata	SEGMENT
$tryMap$PMCCS_From_L DD 00H
	DD	00H
	DD	01H
	DD	01H
	DD	imagerel $handlerMap$0$PMCCS_From_L
xdata	ENDS
;	COMDAT xdata
xdata	SEGMENT
$stateUnwindMap$PMCCS_From_L DD 0ffffffffH
	DD	00H
	DD	0ffffffffH
	DD	00H
xdata	ENDS
;	COMDAT CONST
CONST	SEGMENT
$cppxdata$PMCCS_From_L DD 019930522H
	DD	02H
	DD	imagerel $stateUnwindMap$PMCCS_From_L
	DD	01H
	DD	imagerel $tryMap$PMCCS_From_L
	DD	06H
	DD	imagerel $ip2state$PMCCS_From_L
	DD	020H
	DD	00H
	DD	00H
CONST	ENDS
;	COMDAT xdata
xdata	SEGMENT
$unwind$PMCCS_From_L DD 020f19H
	DD	030025206H
	DD	imagerel __CxxFrameHandler3
	DD	imagerel $cppxdata$PMCCS_From_L
xdata	ENDS
;	COMDAT xdata
xdata	SEGMENT
$unwind$PMCCS_From_I$catch$0 DD 020a19H
	DD	05006320aH
	DD	imagerel __CxxFrameHandler3
	DD	imagerel $cppxdata$PMCCS_From_I
xdata	ENDS
;	COMDAT xdata
xdata	SEGMENT
$ip2state$PMCCS_From_I DD imagerel PMCCS_From_I
	DD	0ffffffffH
	DD	imagerel PMCCS_From_I+32
	DD	00H
	DD	imagerel PMCCS_From_I+44
	DD	0ffffffffH
	DD	imagerel PMCCS_From_I+48
	DD	00H
	DD	imagerel PMCCS_From_I$catch$0+13
	DD	01H
	DD	imagerel PMCCS_From_I$catch$0+23
	DD	00H
xdata	ENDS
;	COMDAT xdata
xdata	SEGMENT
$handlerMap$0$PMCCS_From_I DD 09H
	DD	imagerel ??_R0?AVException@Internal@Core@Math@Palmtree@@@8
	DD	028H
	DD	imagerel PMCCS_From_I$catch$0
	DD	038H
xdata	ENDS
;	COMDAT xdata
xdata	SEGMENT
$tryMap$PMCCS_From_I DD 00H
	DD	00H
	DD	01H
	DD	01H
	DD	imagerel $handlerMap$0$PMCCS_From_I
xdata	ENDS
;	COMDAT xdata
xdata	SEGMENT
$stateUnwindMap$PMCCS_From_I DD 0ffffffffH
	DD	00H
	DD	0ffffffffH
	DD	00H
xdata	ENDS
;	COMDAT CONST
CONST	SEGMENT
$cppxdata$PMCCS_From_I DD 019930522H
	DD	02H
	DD	imagerel $stateUnwindMap$PMCCS_From_I
	DD	01H
	DD	imagerel $tryMap$PMCCS_From_I
	DD	06H
	DD	imagerel $ip2state$PMCCS_From_I
	DD	020H
	DD	00H
	DD	00H
CONST	ENDS
;	COMDAT xdata
xdata	SEGMENT
$unwind$PMCCS_From_I DD 020f19H
	DD	030025206H
	DD	imagerel __CxxFrameHandler3
	DD	imagerel $cppxdata$PMCCS_From_I
xdata	ENDS
;	COMDAT xdata
xdata	SEGMENT
$unwind$PMCCS_GET_HASH_CODE$catch$0 DD 010619H
	DD	05006H
	DD	imagerel __CxxFrameHandler3
	DD	imagerel $cppxdata$PMCCS_GET_HASH_CODE
xdata	ENDS
;	COMDAT xdata
xdata	SEGMENT
$ip2state$PMCCS_GET_HASH_CODE DD imagerel PMCCS_GET_HASH_CODE
	DD	0ffffffffH
	DD	imagerel PMCCS_GET_HASH_CODE+32
	DD	00H
	DD	imagerel PMCCS_GET_HASH_CODE+40
	DD	0ffffffffH
	DD	imagerel PMCCS_GET_HASH_CODE+44
	DD	00H
	DD	imagerel PMCCS_GET_HASH_CODE$catch$0+9
	DD	01H
	DD	imagerel PMCCS_GET_HASH_CODE$catch$0+19
	DD	00H
xdata	ENDS
;	COMDAT xdata
xdata	SEGMENT
$handlerMap$0$PMCCS_GET_HASH_CODE DD 09H
	DD	imagerel ??_R0?AVException@Internal@Core@Math@Palmtree@@@8
	DD	08H
	DD	imagerel PMCCS_GET_HASH_CODE$catch$0
	DD	018H
xdata	ENDS
;	COMDAT xdata
xdata	SEGMENT
$tryMap$PMCCS_GET_HASH_CODE DD 00H
	DD	00H
	DD	01H
	DD	01H
	DD	imagerel $handlerMap$0$PMCCS_GET_HASH_CODE
xdata	ENDS
;	COMDAT xdata
xdata	SEGMENT
$stateUnwindMap$PMCCS_GET_HASH_CODE DD 0ffffffffH
	DD	00H
	DD	0ffffffffH
	DD	00H
xdata	ENDS
;	COMDAT CONST
CONST	SEGMENT
$cppxdata$PMCCS_GET_HASH_CODE DD 019930522H
	DD	02H
	DD	imagerel $stateUnwindMap$PMCCS_GET_HASH_CODE
	DD	01H
	DD	imagerel $tryMap$PMCCS_GET_HASH_CODE
	DD	06H
	DD	imagerel $ip2state$PMCCS_GET_HASH_CODE
	DD	00H
	DD	00H
	DD	00H
CONST	ENDS
;	COMDAT xdata
xdata	SEGMENT
$unwind$PMCCS_GET_HASH_CODE DD 010c19H
	DD	02204H
	DD	imagerel __CxxFrameHandler3
	DD	imagerel $cppxdata$PMCCS_GET_HASH_CODE
xdata	ENDS
;	COMDAT xdata
xdata	SEGMENT
$unwind$PMCCS_IS_ZERO$catch$0 DD 010619H
	DD	05006H
	DD	imagerel __CxxFrameHandler3
	DD	imagerel $cppxdata$PMCCS_IS_ZERO
xdata	ENDS
;	COMDAT xdata
xdata	SEGMENT
$ip2state$PMCCS_IS_ZERO DD imagerel PMCCS_IS_ZERO
	DD	0ffffffffH
	DD	imagerel PMCCS_IS_ZERO+32
	DD	00H
	DD	imagerel PMCCS_IS_ZERO+44
	DD	0ffffffffH
	DD	imagerel PMCCS_IS_ZERO+48
	DD	00H
	DD	imagerel PMCCS_IS_ZERO$catch$0+9
	DD	01H
	DD	imagerel PMCCS_IS_ZERO$catch$0+19
	DD	00H
xdata	ENDS
;	COMDAT xdata
xdata	SEGMENT
$handlerMap$0$PMCCS_IS_ZERO DD 09H
	DD	imagerel ??_R0?AVException@Internal@Core@Math@Palmtree@@@8
	DD	08H
	DD	imagerel PMCCS_IS_ZERO$catch$0
	DD	018H
xdata	ENDS
;	COMDAT xdata
xdata	SEGMENT
$tryMap$PMCCS_IS_ZERO DD 00H
	DD	00H
	DD	01H
	DD	01H
	DD	imagerel $handlerMap$0$PMCCS_IS_ZERO
xdata	ENDS
;	COMDAT xdata
xdata	SEGMENT
$stateUnwindMap$PMCCS_IS_ZERO DD 0ffffffffH
	DD	00H
	DD	0ffffffffH
	DD	00H
xdata	ENDS
;	COMDAT CONST
CONST	SEGMENT
$cppxdata$PMCCS_IS_ZERO DD 019930522H
	DD	02H
	DD	imagerel $stateUnwindMap$PMCCS_IS_ZERO
	DD	01H
	DD	imagerel $tryMap$PMCCS_IS_ZERO
	DD	06H
	DD	imagerel $ip2state$PMCCS_IS_ZERO
	DD	00H
	DD	00H
	DD	00H
CONST	ENDS
;	COMDAT xdata
xdata	SEGMENT
$unwind$PMCCS_IS_ZERO DD 010c19H
	DD	02204H
	DD	imagerel __CxxFrameHandler3
	DD	imagerel $cppxdata$PMCCS_IS_ZERO
xdata	ENDS
;	COMDAT xdata
xdata	SEGMENT
$unwind$PMCCS_IS_POWER_OF_TWO$catch$0 DD 010619H
	DD	05006H
	DD	imagerel __CxxFrameHandler3
	DD	imagerel $cppxdata$PMCCS_IS_POWER_OF_TWO
xdata	ENDS
;	COMDAT xdata
xdata	SEGMENT
$ip2state$PMCCS_IS_POWER_OF_TWO DD imagerel PMCCS_IS_POWER_OF_TWO
	DD	0ffffffffH
	DD	imagerel PMCCS_IS_POWER_OF_TWO+32
	DD	00H
	DD	imagerel PMCCS_IS_POWER_OF_TWO+47
	DD	0ffffffffH
	DD	imagerel PMCCS_IS_POWER_OF_TWO+51
	DD	00H
	DD	imagerel PMCCS_IS_POWER_OF_TWO$catch$0+9
	DD	01H
	DD	imagerel PMCCS_IS_POWER_OF_TWO$catch$0+19
	DD	00H
xdata	ENDS
;	COMDAT xdata
xdata	SEGMENT
$handlerMap$0$PMCCS_IS_POWER_OF_TWO DD 09H
	DD	imagerel ??_R0?AVException@Internal@Core@Math@Palmtree@@@8
	DD	08H
	DD	imagerel PMCCS_IS_POWER_OF_TWO$catch$0
	DD	018H
xdata	ENDS
;	COMDAT xdata
xdata	SEGMENT
$tryMap$PMCCS_IS_POWER_OF_TWO DD 00H
	DD	00H
	DD	01H
	DD	01H
	DD	imagerel $handlerMap$0$PMCCS_IS_POWER_OF_TWO
xdata	ENDS
;	COMDAT xdata
xdata	SEGMENT
$stateUnwindMap$PMCCS_IS_POWER_OF_TWO DD 0ffffffffH
	DD	00H
	DD	0ffffffffH
	DD	00H
xdata	ENDS
;	COMDAT CONST
CONST	SEGMENT
$cppxdata$PMCCS_IS_POWER_OF_TWO DD 019930522H
	DD	02H
	DD	imagerel $stateUnwindMap$PMCCS_IS_POWER_OF_TWO
	DD	01H
	DD	imagerel $tryMap$PMCCS_IS_POWER_OF_TWO
	DD	06H
	DD	imagerel $ip2state$PMCCS_IS_POWER_OF_TWO
	DD	00H
	DD	00H
	DD	00H
CONST	ENDS
;	COMDAT xdata
xdata	SEGMENT
$unwind$PMCCS_IS_POWER_OF_TWO DD 010c19H
	DD	02204H
	DD	imagerel __CxxFrameHandler3
	DD	imagerel $cppxdata$PMCCS_IS_POWER_OF_TWO
xdata	ENDS
;	COMDAT xdata
xdata	SEGMENT
$unwind$PMCCS_IS_ONE$catch$0 DD 010619H
	DD	05006H
	DD	imagerel __CxxFrameHandler3
	DD	imagerel $cppxdata$PMCCS_IS_ONE
xdata	ENDS
;	COMDAT xdata
xdata	SEGMENT
$ip2state$PMCCS_IS_ONE DD imagerel PMCCS_IS_ONE
	DD	0ffffffffH
	DD	imagerel PMCCS_IS_ONE+32
	DD	00H
	DD	imagerel PMCCS_IS_ONE+46
	DD	0ffffffffH
	DD	imagerel PMCCS_IS_ONE+50
	DD	00H
	DD	imagerel PMCCS_IS_ONE$catch$0+9
	DD	01H
	DD	imagerel PMCCS_IS_ONE$catch$0+19
	DD	00H
xdata	ENDS
;	COMDAT xdata
xdata	SEGMENT
$handlerMap$0$PMCCS_IS_ONE DD 09H
	DD	imagerel ??_R0?AVException@Internal@Core@Math@Palmtree@@@8
	DD	08H
	DD	imagerel PMCCS_IS_ONE$catch$0
	DD	018H
xdata	ENDS
;	COMDAT xdata
xdata	SEGMENT
$tryMap$PMCCS_IS_ONE DD 00H
	DD	00H
	DD	01H
	DD	01H
	DD	imagerel $handlerMap$0$PMCCS_IS_ONE
xdata	ENDS
;	COMDAT xdata
xdata	SEGMENT
$stateUnwindMap$PMCCS_IS_ONE DD 0ffffffffH
	DD	00H
	DD	0ffffffffH
	DD	00H
xdata	ENDS
;	COMDAT CONST
CONST	SEGMENT
$cppxdata$PMCCS_IS_ONE DD 019930522H
	DD	02H
	DD	imagerel $stateUnwindMap$PMCCS_IS_ONE
	DD	01H
	DD	imagerel $tryMap$PMCCS_IS_ONE
	DD	06H
	DD	imagerel $ip2state$PMCCS_IS_ONE
	DD	00H
	DD	00H
	DD	00H
CONST	ENDS
;	COMDAT xdata
xdata	SEGMENT
$unwind$PMCCS_IS_ONE DD 010c19H
	DD	02204H
	DD	imagerel __CxxFrameHandler3
	DD	imagerel $cppxdata$PMCCS_IS_ONE
xdata	ENDS
;	COMDAT xdata
xdata	SEGMENT
$unwind$PMCCS_IS_EVEN$catch$0 DD 010619H
	DD	05006H
	DD	imagerel __CxxFrameHandler3
	DD	imagerel $cppxdata$PMCCS_IS_EVEN
xdata	ENDS
;	COMDAT xdata
xdata	SEGMENT
$ip2state$PMCCS_IS_EVEN DD imagerel PMCCS_IS_EVEN
	DD	0ffffffffH
	DD	imagerel PMCCS_IS_EVEN+32
	DD	00H
	DD	imagerel PMCCS_IS_EVEN+47
	DD	0ffffffffH
	DD	imagerel PMCCS_IS_EVEN+51
	DD	00H
	DD	imagerel PMCCS_IS_EVEN$catch$0+9
	DD	01H
	DD	imagerel PMCCS_IS_EVEN$catch$0+19
	DD	00H
xdata	ENDS
;	COMDAT xdata
xdata	SEGMENT
$handlerMap$0$PMCCS_IS_EVEN DD 09H
	DD	imagerel ??_R0?AVException@Internal@Core@Math@Palmtree@@@8
	DD	08H
	DD	imagerel PMCCS_IS_EVEN$catch$0
	DD	018H
xdata	ENDS
;	COMDAT xdata
xdata	SEGMENT
$tryMap$PMCCS_IS_EVEN DD 00H
	DD	00H
	DD	01H
	DD	01H
	DD	imagerel $handlerMap$0$PMCCS_IS_EVEN
xdata	ENDS
;	COMDAT xdata
xdata	SEGMENT
$stateUnwindMap$PMCCS_IS_EVEN DD 0ffffffffH
	DD	00H
	DD	0ffffffffH
	DD	00H
xdata	ENDS
;	COMDAT CONST
CONST	SEGMENT
$cppxdata$PMCCS_IS_EVEN DD 019930522H
	DD	02H
	DD	imagerel $stateUnwindMap$PMCCS_IS_EVEN
	DD	01H
	DD	imagerel $tryMap$PMCCS_IS_EVEN
	DD	06H
	DD	imagerel $ip2state$PMCCS_IS_EVEN
	DD	00H
	DD	00H
	DD	00H
CONST	ENDS
;	COMDAT xdata
xdata	SEGMENT
$unwind$PMCCS_IS_EVEN DD 010c19H
	DD	02204H
	DD	imagerel __CxxFrameHandler3
	DD	imagerel $cppxdata$PMCCS_IS_EVEN
xdata	ENDS
;	COMDAT xdata
xdata	SEGMENT
$unwind$PMCCS_UINT_Initialize DD 010401H
	DD	04204H
xdata	ENDS
; Function compile flags: /Ogtpy
; File z:\sources\lunor\repos\rougemeilland\palmtree.math.core.uint\palmtree.math.core.uint\pmc_interface_csharp.cpp
;	COMDAT PMCCS_Floor_Log10
_TEXT	SEGMENT
$T1 = 32
ex$2 = 40
v$ = 64
$T3 = 72
r$ = 72
PMCCS_Floor_Log10 PROC					; COMDAT

; 1286 :     {

$LN13:
  00000	40 53		 push	 rbx
  00002	48 83 ec 30	 sub	 rsp, 48			; 00000030H
  00006	48 c7 44 24 20
	fe ff ff ff	 mov	 QWORD PTR $T1[rsp], -2
  0000f	48 8b da	 mov	 rbx, rdx

; 1287 :         if (r == nullptr)

  00012	48 85 d2	 test	 rdx, rdx
  00015	75 09		 jne	 SHORT $LN2@PMCCS_Floo

; 1288 :             return (PMC_STATUS_ARGUMENT_NULL_ERROR);

  00017	8d 42 fe	 lea	 eax, QWORD PTR [rdx-2]

; 1297 :         }
; 1298 :     }

  0001a	48 83 c4 30	 add	 rsp, 48			; 00000030H
  0001e	5b		 pop	 rbx
  0001f	c3		 ret	 0
$LN2@PMCCS_Floo:

; 1289 :         try
; 1290 :         {
; 1291 :             *r = PMC_Floor_Log10(v);

  00020	e8 00 00 00 00	 call	 ?PMC_Floor_Log10@Internal@Core@Math@Palmtree@@YAIPEAU__tag_PMC_HANDLE_UINT@1234@@Z ; Palmtree::Math::Core::Internal::PMC_Floor_Log10
  00025	89 03		 mov	 DWORD PTR [rbx], eax

; 1292 :             return (PMC_STATUS_OK);

  00027	33 c0		 xor	 eax, eax
  00029	eb 04		 jmp	 SHORT $LN7@PMCCS_Floo
$LN8@PMCCS_Floo:

; 1293 :         }
; 1294 :         catch (const Palmtree::Math::Core::Internal::Exception& ex)
; 1295 :         {
; 1296 :             return (ex.GetStatusCode());

  0002b	8b 44 24 48	 mov	 eax, DWORD PTR $T3[rsp]
$LN7@PMCCS_Floo:

; 1297 :         }
; 1298 :     }

  0002f	48 83 c4 30	 add	 rsp, 48			; 00000030H
  00033	5b		 pop	 rbx
  00034	c3		 ret	 0
  00035	cc		 int	 3
PMCCS_Floor_Log10 ENDP
_TEXT	ENDS
;	COMDAT text$x
text$x	SEGMENT
$T1 = 32
ex$2 = 40
v$ = 64
$T3 = 72
r$ = 72
PMCCS_Floor_Log10$catch$0 PROC

; 1293 :         }
; 1294 :         catch (const Palmtree::Math::Core::Internal::Exception& ex)
; 1295 :         {

  00000	48 89 54 24 10	 mov	 QWORD PTR [rsp+16], rdx
  00005	55		 push	 rbp
  00006	48 83 ec 20	 sub	 rsp, 32			; 00000020H
  0000a	48 8b ea	 mov	 rbp, rdx
__catch$PMCCS_Floor_Log10$0:
; File z:\sources\lunor\repos\rougemeilland\palmtree.math.core.uint\palmtree.math.core.uint\pmc_exception.h

; 75   :             return (_code);

  0000d	48 8b 45 28	 mov	 rax, QWORD PTR ex$2[rbp]
  00011	8b 48 18	 mov	 ecx, DWORD PTR [rax+24]
  00014	89 4d 48	 mov	 DWORD PTR $T3[rbp], ecx
; File z:\sources\lunor\repos\rougemeilland\palmtree.math.core.uint\palmtree.math.core.uint\pmc_interface_csharp.cpp

; 1293 :         }
; 1294 :         catch (const Palmtree::Math::Core::Internal::Exception& ex)
; 1295 :         {
; 1296 :             return (ex.GetStatusCode());

  00017	48 8d 05 00 00
	00 00		 lea	 rax, $LN8@PMCCS_Floo
  0001e	48 83 c4 20	 add	 rsp, 32			; 00000020H
  00022	5d		 pop	 rbp
  00023	c3		 ret	 0
  00024	cc		 int	 3
PMCCS_Floor_Log10$catch$0 ENDP
text$x	ENDS
; Function compile flags: /Ogtpy
; File z:\sources\lunor\repos\rougemeilland\palmtree.math.core.uint\palmtree.math.core.uint\pmc_exception.h
; File z:\sources\lunor\repos\rougemeilland\palmtree.math.core.uint\palmtree.math.core.uint\pmc_interface_csharp.cpp
;	COMDAT text$x
text$x	SEGMENT
$T1 = 32
ex$2 = 40
v$ = 64
$T3 = 72
r$ = 72
PMCCS_Floor_Log10$catch$0 PROC

; 1295 :         {

  00000	48 89 54 24 10	 mov	 QWORD PTR [rsp+16], rdx
  00005	55		 push	 rbp
  00006	48 83 ec 20	 sub	 rsp, 32			; 00000020H
  0000a	48 8b ea	 mov	 rbp, rdx
__catch$PMCCS_Floor_Log10$0:
; File z:\sources\lunor\repos\rougemeilland\palmtree.math.core.uint\palmtree.math.core.uint\pmc_exception.h

; 75   :             return (_code);

  0000d	48 8b 45 28	 mov	 rax, QWORD PTR ex$2[rbp]
  00011	8b 48 18	 mov	 ecx, DWORD PTR [rax+24]
  00014	89 4d 48	 mov	 DWORD PTR $T3[rbp], ecx
; File z:\sources\lunor\repos\rougemeilland\palmtree.math.core.uint\palmtree.math.core.uint\pmc_interface_csharp.cpp

; 1296 :             return (ex.GetStatusCode());

  00017	48 8d 05 00 00
	00 00		 lea	 rax, $LN8@PMCCS_Floo
  0001e	48 83 c4 20	 add	 rsp, 32			; 00000020H
  00022	5d		 pop	 rbp
  00023	c3		 ret	 0
  00024	cc		 int	 3
PMCCS_Floor_Log10$catch$0 ENDP
text$x	ENDS
; Function compile flags: /Ogtpy
; File z:\sources\lunor\repos\rougemeilland\palmtree.math.core.uint\palmtree.math.core.uint\pmc_interface_csharp.cpp
;	COMDAT PMCCS_TimesOfExponentOf10
_TEXT	SEGMENT
$T1 = 32
ex$2 = 40
v$ = 64
e$ = 72
$T3 = 80
r$ = 80
PMCCS_TimesOfExponentOf10 PROC				; COMDAT

; 1271 :     {

$LN13:
  00000	40 53		 push	 rbx
  00002	48 83 ec 30	 sub	 rsp, 48			; 00000030H
  00006	48 c7 44 24 20
	fe ff ff ff	 mov	 QWORD PTR $T1[rsp], -2
  0000f	49 8b d8	 mov	 rbx, r8

; 1272 :         if (r == nullptr)

  00012	4d 85 c0	 test	 r8, r8
  00015	75 0a		 jne	 SHORT $LN2@PMCCS_Time

; 1273 :             return (PMC_STATUS_ARGUMENT_NULL_ERROR);

  00017	41 8d 40 fe	 lea	 eax, QWORD PTR [r8-2]

; 1282 :         }
; 1283 :     }

  0001b	48 83 c4 30	 add	 rsp, 48			; 00000030H
  0001f	5b		 pop	 rbx
  00020	c3		 ret	 0
$LN2@PMCCS_Time:

; 1274 :         try
; 1275 :         {
; 1276 :             *r = PMC_TimesOfExponentOf10(v, e);

  00021	e8 00 00 00 00	 call	 ?PMC_TimesOfExponentOf10@Internal@Core@Math@Palmtree@@YAPEAU__tag_PMC_HANDLE_UINT@1234@II@Z ; Palmtree::Math::Core::Internal::PMC_TimesOfExponentOf10
  00026	48 89 03	 mov	 QWORD PTR [rbx], rax

; 1277 :             return (PMC_STATUS_OK);

  00029	33 c0		 xor	 eax, eax
  0002b	eb 04		 jmp	 SHORT $LN7@PMCCS_Time
$LN8@PMCCS_Time:

; 1278 :         }
; 1279 :         catch (const Palmtree::Math::Core::Internal::Exception& ex)
; 1280 :         {
; 1281 :             return (ex.GetStatusCode());

  0002d	8b 44 24 50	 mov	 eax, DWORD PTR $T3[rsp]
$LN7@PMCCS_Time:

; 1282 :         }
; 1283 :     }

  00031	48 83 c4 30	 add	 rsp, 48			; 00000030H
  00035	5b		 pop	 rbx
  00036	c3		 ret	 0
  00037	cc		 int	 3
PMCCS_TimesOfExponentOf10 ENDP
_TEXT	ENDS
;	COMDAT text$x
text$x	SEGMENT
$T1 = 32
ex$2 = 40
v$ = 64
e$ = 72
$T3 = 80
r$ = 80
PMCCS_TimesOfExponentOf10$catch$0 PROC

; 1278 :         }
; 1279 :         catch (const Palmtree::Math::Core::Internal::Exception& ex)
; 1280 :         {

  00000	48 89 54 24 10	 mov	 QWORD PTR [rsp+16], rdx
  00005	55		 push	 rbp
  00006	48 83 ec 20	 sub	 rsp, 32			; 00000020H
  0000a	48 8b ea	 mov	 rbp, rdx
__catch$PMCCS_TimesOfExponentOf10$0:
; File z:\sources\lunor\repos\rougemeilland\palmtree.math.core.uint\palmtree.math.core.uint\pmc_exception.h

; 75   :             return (_code);

  0000d	48 8b 45 28	 mov	 rax, QWORD PTR ex$2[rbp]
  00011	8b 48 18	 mov	 ecx, DWORD PTR [rax+24]
  00014	89 4d 50	 mov	 DWORD PTR $T3[rbp], ecx
; File z:\sources\lunor\repos\rougemeilland\palmtree.math.core.uint\palmtree.math.core.uint\pmc_interface_csharp.cpp

; 1278 :         }
; 1279 :         catch (const Palmtree::Math::Core::Internal::Exception& ex)
; 1280 :         {
; 1281 :             return (ex.GetStatusCode());

  00017	48 8d 05 00 00
	00 00		 lea	 rax, $LN8@PMCCS_Time
  0001e	48 83 c4 20	 add	 rsp, 32			; 00000020H
  00022	5d		 pop	 rbp
  00023	c3		 ret	 0
  00024	cc		 int	 3
PMCCS_TimesOfExponentOf10$catch$0 ENDP
text$x	ENDS
; Function compile flags: /Ogtpy
; File z:\sources\lunor\repos\rougemeilland\palmtree.math.core.uint\palmtree.math.core.uint\pmc_exception.h
; File z:\sources\lunor\repos\rougemeilland\palmtree.math.core.uint\palmtree.math.core.uint\pmc_interface_csharp.cpp
;	COMDAT text$x
text$x	SEGMENT
$T1 = 32
ex$2 = 40
v$ = 64
e$ = 72
$T3 = 80
r$ = 80
PMCCS_TimesOfExponentOf10$catch$0 PROC

; 1280 :         {

  00000	48 89 54 24 10	 mov	 QWORD PTR [rsp+16], rdx
  00005	55		 push	 rbp
  00006	48 83 ec 20	 sub	 rsp, 32			; 00000020H
  0000a	48 8b ea	 mov	 rbp, rdx
__catch$PMCCS_TimesOfExponentOf10$0:
; File z:\sources\lunor\repos\rougemeilland\palmtree.math.core.uint\palmtree.math.core.uint\pmc_exception.h

; 75   :             return (_code);

  0000d	48 8b 45 28	 mov	 rax, QWORD PTR ex$2[rbp]
  00011	8b 48 18	 mov	 ecx, DWORD PTR [rax+24]
  00014	89 4d 50	 mov	 DWORD PTR $T3[rbp], ecx
; File z:\sources\lunor\repos\rougemeilland\palmtree.math.core.uint\palmtree.math.core.uint\pmc_interface_csharp.cpp

; 1281 :             return (ex.GetStatusCode());

  00017	48 8d 05 00 00
	00 00		 lea	 rax, $LN8@PMCCS_Time
  0001e	48 83 c4 20	 add	 rsp, 32			; 00000020H
  00022	5d		 pop	 rbp
  00023	c3		 ret	 0
  00024	cc		 int	 3
PMCCS_TimesOfExponentOf10$catch$0 ENDP
text$x	ENDS
; Function compile flags: /Ogtpy
; File z:\sources\lunor\repos\rougemeilland\palmtree.math.core.uint\palmtree.math.core.uint\pmc_interface_csharp.cpp
;	COMDAT PMCCS_ModPow_X_X_X
_TEXT	SEGMENT
$T1 = 32
ex$2 = 40
v$ = 64
e$ = 72
m$ = 80
$T3 = 88
r$ = 88
PMCCS_ModPow_X_X_X PROC					; COMDAT

; 1256 :     {

$LN13:
  00000	40 53		 push	 rbx
  00002	48 83 ec 30	 sub	 rsp, 48			; 00000030H
  00006	48 c7 44 24 20
	fe ff ff ff	 mov	 QWORD PTR $T1[rsp], -2
  0000f	49 8b d9	 mov	 rbx, r9

; 1257 :         if (r == nullptr)

  00012	4d 85 c9	 test	 r9, r9
  00015	75 0a		 jne	 SHORT $LN2@PMCCS_ModP

; 1258 :             return (PMC_STATUS_ARGUMENT_NULL_ERROR);

  00017	41 8d 41 fe	 lea	 eax, QWORD PTR [r9-2]

; 1267 :         }
; 1268 :     }

  0001b	48 83 c4 30	 add	 rsp, 48			; 00000030H
  0001f	5b		 pop	 rbx
  00020	c3		 ret	 0
$LN2@PMCCS_ModP:

; 1259 :         try
; 1260 :         {
; 1261 :             *r = PMC_ModPow_X_X_X(v, e, m);

  00021	e8 00 00 00 00	 call	 ?PMC_ModPow_X_X_X@Internal@Core@Math@Palmtree@@YAPEAU__tag_PMC_HANDLE_UINT@1234@PEAU51234@00@Z ; Palmtree::Math::Core::Internal::PMC_ModPow_X_X_X
  00026	48 89 03	 mov	 QWORD PTR [rbx], rax

; 1262 :             return (PMC_STATUS_OK);

  00029	33 c0		 xor	 eax, eax
  0002b	eb 04		 jmp	 SHORT $LN7@PMCCS_ModP
$LN8@PMCCS_ModP:

; 1263 :         }
; 1264 :         catch (const Palmtree::Math::Core::Internal::Exception& ex)
; 1265 :         {
; 1266 :             return (ex.GetStatusCode());

  0002d	8b 44 24 58	 mov	 eax, DWORD PTR $T3[rsp]
$LN7@PMCCS_ModP:

; 1267 :         }
; 1268 :     }

  00031	48 83 c4 30	 add	 rsp, 48			; 00000030H
  00035	5b		 pop	 rbx
  00036	c3		 ret	 0
  00037	cc		 int	 3
PMCCS_ModPow_X_X_X ENDP
_TEXT	ENDS
;	COMDAT text$x
text$x	SEGMENT
$T1 = 32
ex$2 = 40
v$ = 64
e$ = 72
m$ = 80
$T3 = 88
r$ = 88
PMCCS_ModPow_X_X_X$catch$0 PROC

; 1263 :         }
; 1264 :         catch (const Palmtree::Math::Core::Internal::Exception& ex)
; 1265 :         {

  00000	48 89 54 24 10	 mov	 QWORD PTR [rsp+16], rdx
  00005	55		 push	 rbp
  00006	48 83 ec 20	 sub	 rsp, 32			; 00000020H
  0000a	48 8b ea	 mov	 rbp, rdx
__catch$PMCCS_ModPow_X_X_X$0:
; File z:\sources\lunor\repos\rougemeilland\palmtree.math.core.uint\palmtree.math.core.uint\pmc_exception.h

; 75   :             return (_code);

  0000d	48 8b 45 28	 mov	 rax, QWORD PTR ex$2[rbp]
  00011	8b 48 18	 mov	 ecx, DWORD PTR [rax+24]
  00014	89 4d 58	 mov	 DWORD PTR $T3[rbp], ecx
; File z:\sources\lunor\repos\rougemeilland\palmtree.math.core.uint\palmtree.math.core.uint\pmc_interface_csharp.cpp

; 1263 :         }
; 1264 :         catch (const Palmtree::Math::Core::Internal::Exception& ex)
; 1265 :         {
; 1266 :             return (ex.GetStatusCode());

  00017	48 8d 05 00 00
	00 00		 lea	 rax, $LN8@PMCCS_ModP
  0001e	48 83 c4 20	 add	 rsp, 32			; 00000020H
  00022	5d		 pop	 rbp
  00023	c3		 ret	 0
  00024	cc		 int	 3
PMCCS_ModPow_X_X_X$catch$0 ENDP
text$x	ENDS
; Function compile flags: /Ogtpy
; File z:\sources\lunor\repos\rougemeilland\palmtree.math.core.uint\palmtree.math.core.uint\pmc_exception.h
; File z:\sources\lunor\repos\rougemeilland\palmtree.math.core.uint\palmtree.math.core.uint\pmc_interface_csharp.cpp
;	COMDAT text$x
text$x	SEGMENT
$T1 = 32
ex$2 = 40
v$ = 64
e$ = 72
m$ = 80
$T3 = 88
r$ = 88
PMCCS_ModPow_X_X_X$catch$0 PROC

; 1265 :         {

  00000	48 89 54 24 10	 mov	 QWORD PTR [rsp+16], rdx
  00005	55		 push	 rbp
  00006	48 83 ec 20	 sub	 rsp, 32			; 00000020H
  0000a	48 8b ea	 mov	 rbp, rdx
__catch$PMCCS_ModPow_X_X_X$0:
; File z:\sources\lunor\repos\rougemeilland\palmtree.math.core.uint\palmtree.math.core.uint\pmc_exception.h

; 75   :             return (_code);

  0000d	48 8b 45 28	 mov	 rax, QWORD PTR ex$2[rbp]
  00011	8b 48 18	 mov	 ecx, DWORD PTR [rax+24]
  00014	89 4d 58	 mov	 DWORD PTR $T3[rbp], ecx
; File z:\sources\lunor\repos\rougemeilland\palmtree.math.core.uint\palmtree.math.core.uint\pmc_interface_csharp.cpp

; 1266 :             return (ex.GetStatusCode());

  00017	48 8d 05 00 00
	00 00		 lea	 rax, $LN8@PMCCS_ModP
  0001e	48 83 c4 20	 add	 rsp, 32			; 00000020H
  00022	5d		 pop	 rbp
  00023	c3		 ret	 0
  00024	cc		 int	 3
PMCCS_ModPow_X_X_X$catch$0 ENDP
text$x	ENDS
; Function compile flags: /Ogtpy
; File z:\sources\lunor\repos\rougemeilland\palmtree.math.core.uint\palmtree.math.core.uint\pmc_interface_csharp.cpp
;	COMDAT PMCCS_Pow_X_L
_TEXT	SEGMENT
$T1 = 32
ex$2 = 40
x$ = 64
n$ = 72
$T3 = 80
v$ = 80
PMCCS_Pow_X_L PROC					; COMDAT

; 1241 :     {

$LN13:
  00000	40 53		 push	 rbx
  00002	48 83 ec 30	 sub	 rsp, 48			; 00000030H
  00006	48 c7 44 24 20
	fe ff ff ff	 mov	 QWORD PTR $T1[rsp], -2
  0000f	49 8b d8	 mov	 rbx, r8

; 1242 :         if (v == nullptr)

  00012	4d 85 c0	 test	 r8, r8
  00015	75 0a		 jne	 SHORT $LN2@PMCCS_Pow_

; 1243 :             return (PMC_STATUS_ARGUMENT_NULL_ERROR);

  00017	41 8d 40 fe	 lea	 eax, QWORD PTR [r8-2]

; 1252 :         }
; 1253 :     }

  0001b	48 83 c4 30	 add	 rsp, 48			; 00000030H
  0001f	5b		 pop	 rbx
  00020	c3		 ret	 0
$LN2@PMCCS_Pow_:

; 1244 :         try
; 1245 :         {
; 1246 :             *v = PMC_Pow_X_L(x, n);

  00021	e8 00 00 00 00	 call	 ?PMC_Pow_X_L@Internal@Core@Math@Palmtree@@YAPEAU__tag_PMC_HANDLE_UINT@1234@PEAU51234@_K@Z ; Palmtree::Math::Core::Internal::PMC_Pow_X_L
  00026	48 89 03	 mov	 QWORD PTR [rbx], rax

; 1247 :             return (PMC_STATUS_OK);

  00029	33 c0		 xor	 eax, eax
  0002b	eb 04		 jmp	 SHORT $LN7@PMCCS_Pow_
$LN8@PMCCS_Pow_:

; 1248 :         }
; 1249 :         catch (const Palmtree::Math::Core::Internal::Exception& ex)
; 1250 :         {
; 1251 :             return (ex.GetStatusCode());

  0002d	8b 44 24 50	 mov	 eax, DWORD PTR $T3[rsp]
$LN7@PMCCS_Pow_:

; 1252 :         }
; 1253 :     }

  00031	48 83 c4 30	 add	 rsp, 48			; 00000030H
  00035	5b		 pop	 rbx
  00036	c3		 ret	 0
  00037	cc		 int	 3
PMCCS_Pow_X_L ENDP
_TEXT	ENDS
;	COMDAT text$x
text$x	SEGMENT
$T1 = 32
ex$2 = 40
x$ = 64
n$ = 72
$T3 = 80
v$ = 80
PMCCS_Pow_X_L$catch$0 PROC

; 1248 :         }
; 1249 :         catch (const Palmtree::Math::Core::Internal::Exception& ex)
; 1250 :         {

  00000	48 89 54 24 10	 mov	 QWORD PTR [rsp+16], rdx
  00005	55		 push	 rbp
  00006	48 83 ec 20	 sub	 rsp, 32			; 00000020H
  0000a	48 8b ea	 mov	 rbp, rdx
__catch$PMCCS_Pow_X_L$0:
; File z:\sources\lunor\repos\rougemeilland\palmtree.math.core.uint\palmtree.math.core.uint\pmc_exception.h

; 75   :             return (_code);

  0000d	48 8b 45 28	 mov	 rax, QWORD PTR ex$2[rbp]
  00011	8b 48 18	 mov	 ecx, DWORD PTR [rax+24]
  00014	89 4d 50	 mov	 DWORD PTR $T3[rbp], ecx
; File z:\sources\lunor\repos\rougemeilland\palmtree.math.core.uint\palmtree.math.core.uint\pmc_interface_csharp.cpp

; 1248 :         }
; 1249 :         catch (const Palmtree::Math::Core::Internal::Exception& ex)
; 1250 :         {
; 1251 :             return (ex.GetStatusCode());

  00017	48 8d 05 00 00
	00 00		 lea	 rax, $LN8@PMCCS_Pow_
  0001e	48 83 c4 20	 add	 rsp, 32			; 00000020H
  00022	5d		 pop	 rbp
  00023	c3		 ret	 0
  00024	cc		 int	 3
PMCCS_Pow_X_L$catch$0 ENDP
text$x	ENDS
; Function compile flags: /Ogtpy
; File z:\sources\lunor\repos\rougemeilland\palmtree.math.core.uint\palmtree.math.core.uint\pmc_exception.h
; File z:\sources\lunor\repos\rougemeilland\palmtree.math.core.uint\palmtree.math.core.uint\pmc_interface_csharp.cpp
;	COMDAT text$x
text$x	SEGMENT
$T1 = 32
ex$2 = 40
x$ = 64
n$ = 72
$T3 = 80
v$ = 80
PMCCS_Pow_X_L$catch$0 PROC

; 1250 :         {

  00000	48 89 54 24 10	 mov	 QWORD PTR [rsp+16], rdx
  00005	55		 push	 rbp
  00006	48 83 ec 20	 sub	 rsp, 32			; 00000020H
  0000a	48 8b ea	 mov	 rbp, rdx
__catch$PMCCS_Pow_X_L$0:
; File z:\sources\lunor\repos\rougemeilland\palmtree.math.core.uint\palmtree.math.core.uint\pmc_exception.h

; 75   :             return (_code);

  0000d	48 8b 45 28	 mov	 rax, QWORD PTR ex$2[rbp]
  00011	8b 48 18	 mov	 ecx, DWORD PTR [rax+24]
  00014	89 4d 50	 mov	 DWORD PTR $T3[rbp], ecx
; File z:\sources\lunor\repos\rougemeilland\palmtree.math.core.uint\palmtree.math.core.uint\pmc_interface_csharp.cpp

; 1251 :             return (ex.GetStatusCode());

  00017	48 8d 05 00 00
	00 00		 lea	 rax, $LN8@PMCCS_Pow_
  0001e	48 83 c4 20	 add	 rsp, 32			; 00000020H
  00022	5d		 pop	 rbp
  00023	c3		 ret	 0
  00024	cc		 int	 3
PMCCS_Pow_X_L$catch$0 ENDP
text$x	ENDS
; Function compile flags: /Ogtpy
; File z:\sources\lunor\repos\rougemeilland\palmtree.math.core.uint\palmtree.math.core.uint\pmc_interface_csharp.cpp
;	COMDAT PMCCS_Pow_X_I
_TEXT	SEGMENT
$T1 = 32
ex$2 = 40
x$ = 64
n$ = 72
$T3 = 80
v$ = 80
PMCCS_Pow_X_I PROC					; COMDAT

; 1226 :     {

$LN13:
  00000	40 53		 push	 rbx
  00002	48 83 ec 30	 sub	 rsp, 48			; 00000030H
  00006	48 c7 44 24 20
	fe ff ff ff	 mov	 QWORD PTR $T1[rsp], -2
  0000f	49 8b d8	 mov	 rbx, r8

; 1227 :         if (v == nullptr)

  00012	4d 85 c0	 test	 r8, r8
  00015	75 0a		 jne	 SHORT $LN2@PMCCS_Pow_

; 1228 :             return (PMC_STATUS_ARGUMENT_NULL_ERROR);

  00017	41 8d 40 fe	 lea	 eax, QWORD PTR [r8-2]

; 1237 :         }
; 1238 :     }

  0001b	48 83 c4 30	 add	 rsp, 48			; 00000030H
  0001f	5b		 pop	 rbx
  00020	c3		 ret	 0
$LN2@PMCCS_Pow_:

; 1229 :         try
; 1230 :         {
; 1231 :             *v = PMC_Pow_X_I(x, n);

  00021	e8 00 00 00 00	 call	 ?PMC_Pow_X_I@Internal@Core@Math@Palmtree@@YAPEAU__tag_PMC_HANDLE_UINT@1234@PEAU51234@I@Z ; Palmtree::Math::Core::Internal::PMC_Pow_X_I
  00026	48 89 03	 mov	 QWORD PTR [rbx], rax

; 1232 :             return (PMC_STATUS_OK);

  00029	33 c0		 xor	 eax, eax
  0002b	eb 04		 jmp	 SHORT $LN7@PMCCS_Pow_
$LN8@PMCCS_Pow_:

; 1233 :         }
; 1234 :         catch (const Palmtree::Math::Core::Internal::Exception& ex)
; 1235 :         {
; 1236 :             return (ex.GetStatusCode());

  0002d	8b 44 24 50	 mov	 eax, DWORD PTR $T3[rsp]
$LN7@PMCCS_Pow_:

; 1237 :         }
; 1238 :     }

  00031	48 83 c4 30	 add	 rsp, 48			; 00000030H
  00035	5b		 pop	 rbx
  00036	c3		 ret	 0
  00037	cc		 int	 3
PMCCS_Pow_X_I ENDP
_TEXT	ENDS
;	COMDAT text$x
text$x	SEGMENT
$T1 = 32
ex$2 = 40
x$ = 64
n$ = 72
$T3 = 80
v$ = 80
PMCCS_Pow_X_I$catch$0 PROC

; 1233 :         }
; 1234 :         catch (const Palmtree::Math::Core::Internal::Exception& ex)
; 1235 :         {

  00000	48 89 54 24 10	 mov	 QWORD PTR [rsp+16], rdx
  00005	55		 push	 rbp
  00006	48 83 ec 20	 sub	 rsp, 32			; 00000020H
  0000a	48 8b ea	 mov	 rbp, rdx
__catch$PMCCS_Pow_X_I$0:
; File z:\sources\lunor\repos\rougemeilland\palmtree.math.core.uint\palmtree.math.core.uint\pmc_exception.h

; 75   :             return (_code);

  0000d	48 8b 45 28	 mov	 rax, QWORD PTR ex$2[rbp]
  00011	8b 48 18	 mov	 ecx, DWORD PTR [rax+24]
  00014	89 4d 50	 mov	 DWORD PTR $T3[rbp], ecx
; File z:\sources\lunor\repos\rougemeilland\palmtree.math.core.uint\palmtree.math.core.uint\pmc_interface_csharp.cpp

; 1233 :         }
; 1234 :         catch (const Palmtree::Math::Core::Internal::Exception& ex)
; 1235 :         {
; 1236 :             return (ex.GetStatusCode());

  00017	48 8d 05 00 00
	00 00		 lea	 rax, $LN8@PMCCS_Pow_
  0001e	48 83 c4 20	 add	 rsp, 32			; 00000020H
  00022	5d		 pop	 rbp
  00023	c3		 ret	 0
  00024	cc		 int	 3
PMCCS_Pow_X_I$catch$0 ENDP
text$x	ENDS
; Function compile flags: /Ogtpy
; File z:\sources\lunor\repos\rougemeilland\palmtree.math.core.uint\palmtree.math.core.uint\pmc_exception.h
; File z:\sources\lunor\repos\rougemeilland\palmtree.math.core.uint\palmtree.math.core.uint\pmc_interface_csharp.cpp
;	COMDAT text$x
text$x	SEGMENT
$T1 = 32
ex$2 = 40
x$ = 64
n$ = 72
$T3 = 80
v$ = 80
PMCCS_Pow_X_I$catch$0 PROC

; 1235 :         {

  00000	48 89 54 24 10	 mov	 QWORD PTR [rsp+16], rdx
  00005	55		 push	 rbp
  00006	48 83 ec 20	 sub	 rsp, 32			; 00000020H
  0000a	48 8b ea	 mov	 rbp, rdx
__catch$PMCCS_Pow_X_I$0:
; File z:\sources\lunor\repos\rougemeilland\palmtree.math.core.uint\palmtree.math.core.uint\pmc_exception.h

; 75   :             return (_code);

  0000d	48 8b 45 28	 mov	 rax, QWORD PTR ex$2[rbp]
  00011	8b 48 18	 mov	 ecx, DWORD PTR [rax+24]
  00014	89 4d 50	 mov	 DWORD PTR $T3[rbp], ecx
; File z:\sources\lunor\repos\rougemeilland\palmtree.math.core.uint\palmtree.math.core.uint\pmc_interface_csharp.cpp

; 1236 :             return (ex.GetStatusCode());

  00017	48 8d 05 00 00
	00 00		 lea	 rax, $LN8@PMCCS_Pow_
  0001e	48 83 c4 20	 add	 rsp, 32			; 00000020H
  00022	5d		 pop	 rbp
  00023	c3		 ret	 0
  00024	cc		 int	 3
PMCCS_Pow_X_I$catch$0 ENDP
text$x	ENDS
; Function compile flags: /Ogtpy
; File z:\sources\lunor\repos\rougemeilland\palmtree.math.core.uint\palmtree.math.core.uint\pmc_interface_csharp.cpp
;	COMDAT PMCCS_GreatestCommonDivisor_X_X
_TEXT	SEGMENT
$T1 = 32
ex$2 = 40
u$ = 64
v$ = 72
$T3 = 80
w$ = 80
PMCCS_GreatestCommonDivisor_X_X PROC			; COMDAT

; 1211 :     {

$LN13:
  00000	40 53		 push	 rbx
  00002	48 83 ec 30	 sub	 rsp, 48			; 00000030H
  00006	48 c7 44 24 20
	fe ff ff ff	 mov	 QWORD PTR $T1[rsp], -2
  0000f	49 8b d8	 mov	 rbx, r8

; 1212 :         if (w == nullptr)

  00012	4d 85 c0	 test	 r8, r8
  00015	75 0a		 jne	 SHORT $LN2@PMCCS_Grea

; 1213 :             return (PMC_STATUS_ARGUMENT_NULL_ERROR);

  00017	41 8d 40 fe	 lea	 eax, QWORD PTR [r8-2]

; 1222 :         }
; 1223 :     }

  0001b	48 83 c4 30	 add	 rsp, 48			; 00000030H
  0001f	5b		 pop	 rbx
  00020	c3		 ret	 0
$LN2@PMCCS_Grea:

; 1214 :         try
; 1215 :         {
; 1216 :             *w = PMC_GreatestCommonDivisor_X_X(u, v);

  00021	e8 00 00 00 00	 call	 ?PMC_GreatestCommonDivisor_X_X@Internal@Core@Math@Palmtree@@YAPEAU__tag_PMC_HANDLE_UINT@1234@PEAU51234@0@Z ; Palmtree::Math::Core::Internal::PMC_GreatestCommonDivisor_X_X
  00026	48 89 03	 mov	 QWORD PTR [rbx], rax

; 1217 :             return (PMC_STATUS_OK);

  00029	33 c0		 xor	 eax, eax
  0002b	eb 04		 jmp	 SHORT $LN7@PMCCS_Grea
$LN8@PMCCS_Grea:

; 1218 :         }
; 1219 :         catch (const Palmtree::Math::Core::Internal::Exception& ex)
; 1220 :         {
; 1221 :             return (ex.GetStatusCode());

  0002d	8b 44 24 50	 mov	 eax, DWORD PTR $T3[rsp]
$LN7@PMCCS_Grea:

; 1222 :         }
; 1223 :     }

  00031	48 83 c4 30	 add	 rsp, 48			; 00000030H
  00035	5b		 pop	 rbx
  00036	c3		 ret	 0
  00037	cc		 int	 3
PMCCS_GreatestCommonDivisor_X_X ENDP
_TEXT	ENDS
;	COMDAT text$x
text$x	SEGMENT
$T1 = 32
ex$2 = 40
u$ = 64
v$ = 72
$T3 = 80
w$ = 80
PMCCS_GreatestCommonDivisor_X_X$catch$0 PROC

; 1218 :         }
; 1219 :         catch (const Palmtree::Math::Core::Internal::Exception& ex)
; 1220 :         {

  00000	48 89 54 24 10	 mov	 QWORD PTR [rsp+16], rdx
  00005	55		 push	 rbp
  00006	48 83 ec 20	 sub	 rsp, 32			; 00000020H
  0000a	48 8b ea	 mov	 rbp, rdx
__catch$PMCCS_GreatestCommonDivisor_X_X$0:
; File z:\sources\lunor\repos\rougemeilland\palmtree.math.core.uint\palmtree.math.core.uint\pmc_exception.h

; 75   :             return (_code);

  0000d	48 8b 45 28	 mov	 rax, QWORD PTR ex$2[rbp]
  00011	8b 48 18	 mov	 ecx, DWORD PTR [rax+24]
  00014	89 4d 50	 mov	 DWORD PTR $T3[rbp], ecx
; File z:\sources\lunor\repos\rougemeilland\palmtree.math.core.uint\palmtree.math.core.uint\pmc_interface_csharp.cpp

; 1218 :         }
; 1219 :         catch (const Palmtree::Math::Core::Internal::Exception& ex)
; 1220 :         {
; 1221 :             return (ex.GetStatusCode());

  00017	48 8d 05 00 00
	00 00		 lea	 rax, $LN8@PMCCS_Grea
  0001e	48 83 c4 20	 add	 rsp, 32			; 00000020H
  00022	5d		 pop	 rbp
  00023	c3		 ret	 0
  00024	cc		 int	 3
PMCCS_GreatestCommonDivisor_X_X$catch$0 ENDP
text$x	ENDS
; Function compile flags: /Ogtpy
; File z:\sources\lunor\repos\rougemeilland\palmtree.math.core.uint\palmtree.math.core.uint\pmc_exception.h
; File z:\sources\lunor\repos\rougemeilland\palmtree.math.core.uint\palmtree.math.core.uint\pmc_interface_csharp.cpp
;	COMDAT text$x
text$x	SEGMENT
$T1 = 32
ex$2 = 40
u$ = 64
v$ = 72
$T3 = 80
w$ = 80
PMCCS_GreatestCommonDivisor_X_X$catch$0 PROC

; 1220 :         {

  00000	48 89 54 24 10	 mov	 QWORD PTR [rsp+16], rdx
  00005	55		 push	 rbp
  00006	48 83 ec 20	 sub	 rsp, 32			; 00000020H
  0000a	48 8b ea	 mov	 rbp, rdx
__catch$PMCCS_GreatestCommonDivisor_X_X$0:
; File z:\sources\lunor\repos\rougemeilland\palmtree.math.core.uint\palmtree.math.core.uint\pmc_exception.h

; 75   :             return (_code);

  0000d	48 8b 45 28	 mov	 rax, QWORD PTR ex$2[rbp]
  00011	8b 48 18	 mov	 ecx, DWORD PTR [rax+24]
  00014	89 4d 50	 mov	 DWORD PTR $T3[rbp], ecx
; File z:\sources\lunor\repos\rougemeilland\palmtree.math.core.uint\palmtree.math.core.uint\pmc_interface_csharp.cpp

; 1221 :             return (ex.GetStatusCode());

  00017	48 8d 05 00 00
	00 00		 lea	 rax, $LN8@PMCCS_Grea
  0001e	48 83 c4 20	 add	 rsp, 32			; 00000020H
  00022	5d		 pop	 rbp
  00023	c3		 ret	 0
  00024	cc		 int	 3
PMCCS_GreatestCommonDivisor_X_X$catch$0 ENDP
text$x	ENDS
; Function compile flags: /Ogtpy
; File z:\sources\lunor\repos\rougemeilland\palmtree.math.core.uint\palmtree.math.core.uint\pmc_interface_csharp.cpp
;	COMDAT PMCCS_GreatestCommonDivisor_X_L
_TEXT	SEGMENT
$T1 = 32
ex$2 = 40
u$ = 64
v$ = 72
$T3 = 80
w$ = 80
PMCCS_GreatestCommonDivisor_X_L PROC			; COMDAT

; 1196 :     {

$LN13:
  00000	40 53		 push	 rbx
  00002	48 83 ec 30	 sub	 rsp, 48			; 00000030H
  00006	48 c7 44 24 20
	fe ff ff ff	 mov	 QWORD PTR $T1[rsp], -2
  0000f	49 8b d8	 mov	 rbx, r8

; 1197 :         if (w == nullptr)

  00012	4d 85 c0	 test	 r8, r8
  00015	75 0a		 jne	 SHORT $LN2@PMCCS_Grea

; 1198 :             return (PMC_STATUS_ARGUMENT_NULL_ERROR);

  00017	41 8d 40 fe	 lea	 eax, QWORD PTR [r8-2]

; 1207 :         }
; 1208 :     }

  0001b	48 83 c4 30	 add	 rsp, 48			; 00000030H
  0001f	5b		 pop	 rbx
  00020	c3		 ret	 0
$LN2@PMCCS_Grea:

; 1199 :         try
; 1200 :         {
; 1201 :             *w = PMC_GreatestCommonDivisor_X_L(u, v);

  00021	e8 00 00 00 00	 call	 ?PMC_GreatestCommonDivisor_X_L@Internal@Core@Math@Palmtree@@YAPEAU__tag_PMC_HANDLE_UINT@1234@PEAU51234@_K@Z ; Palmtree::Math::Core::Internal::PMC_GreatestCommonDivisor_X_L
  00026	48 89 03	 mov	 QWORD PTR [rbx], rax

; 1202 :             return (PMC_STATUS_OK);

  00029	33 c0		 xor	 eax, eax
  0002b	eb 04		 jmp	 SHORT $LN7@PMCCS_Grea
$LN8@PMCCS_Grea:

; 1203 :         }
; 1204 :         catch (const Palmtree::Math::Core::Internal::Exception& ex)
; 1205 :         {
; 1206 :             return (ex.GetStatusCode());

  0002d	8b 44 24 50	 mov	 eax, DWORD PTR $T3[rsp]
$LN7@PMCCS_Grea:

; 1207 :         }
; 1208 :     }

  00031	48 83 c4 30	 add	 rsp, 48			; 00000030H
  00035	5b		 pop	 rbx
  00036	c3		 ret	 0
  00037	cc		 int	 3
PMCCS_GreatestCommonDivisor_X_L ENDP
_TEXT	ENDS
;	COMDAT text$x
text$x	SEGMENT
$T1 = 32
ex$2 = 40
u$ = 64
v$ = 72
$T3 = 80
w$ = 80
PMCCS_GreatestCommonDivisor_X_L$catch$0 PROC

; 1203 :         }
; 1204 :         catch (const Palmtree::Math::Core::Internal::Exception& ex)
; 1205 :         {

  00000	48 89 54 24 10	 mov	 QWORD PTR [rsp+16], rdx
  00005	55		 push	 rbp
  00006	48 83 ec 20	 sub	 rsp, 32			; 00000020H
  0000a	48 8b ea	 mov	 rbp, rdx
__catch$PMCCS_GreatestCommonDivisor_X_L$0:
; File z:\sources\lunor\repos\rougemeilland\palmtree.math.core.uint\palmtree.math.core.uint\pmc_exception.h

; 75   :             return (_code);

  0000d	48 8b 45 28	 mov	 rax, QWORD PTR ex$2[rbp]
  00011	8b 48 18	 mov	 ecx, DWORD PTR [rax+24]
  00014	89 4d 50	 mov	 DWORD PTR $T3[rbp], ecx
; File z:\sources\lunor\repos\rougemeilland\palmtree.math.core.uint\palmtree.math.core.uint\pmc_interface_csharp.cpp

; 1203 :         }
; 1204 :         catch (const Palmtree::Math::Core::Internal::Exception& ex)
; 1205 :         {
; 1206 :             return (ex.GetStatusCode());

  00017	48 8d 05 00 00
	00 00		 lea	 rax, $LN8@PMCCS_Grea
  0001e	48 83 c4 20	 add	 rsp, 32			; 00000020H
  00022	5d		 pop	 rbp
  00023	c3		 ret	 0
  00024	cc		 int	 3
PMCCS_GreatestCommonDivisor_X_L$catch$0 ENDP
text$x	ENDS
; Function compile flags: /Ogtpy
; File z:\sources\lunor\repos\rougemeilland\palmtree.math.core.uint\palmtree.math.core.uint\pmc_exception.h
; File z:\sources\lunor\repos\rougemeilland\palmtree.math.core.uint\palmtree.math.core.uint\pmc_interface_csharp.cpp
;	COMDAT text$x
text$x	SEGMENT
$T1 = 32
ex$2 = 40
u$ = 64
v$ = 72
$T3 = 80
w$ = 80
PMCCS_GreatestCommonDivisor_X_L$catch$0 PROC

; 1205 :         {

  00000	48 89 54 24 10	 mov	 QWORD PTR [rsp+16], rdx
  00005	55		 push	 rbp
  00006	48 83 ec 20	 sub	 rsp, 32			; 00000020H
  0000a	48 8b ea	 mov	 rbp, rdx
__catch$PMCCS_GreatestCommonDivisor_X_L$0:
; File z:\sources\lunor\repos\rougemeilland\palmtree.math.core.uint\palmtree.math.core.uint\pmc_exception.h

; 75   :             return (_code);

  0000d	48 8b 45 28	 mov	 rax, QWORD PTR ex$2[rbp]
  00011	8b 48 18	 mov	 ecx, DWORD PTR [rax+24]
  00014	89 4d 50	 mov	 DWORD PTR $T3[rbp], ecx
; File z:\sources\lunor\repos\rougemeilland\palmtree.math.core.uint\palmtree.math.core.uint\pmc_interface_csharp.cpp

; 1206 :             return (ex.GetStatusCode());

  00017	48 8d 05 00 00
	00 00		 lea	 rax, $LN8@PMCCS_Grea
  0001e	48 83 c4 20	 add	 rsp, 32			; 00000020H
  00022	5d		 pop	 rbp
  00023	c3		 ret	 0
  00024	cc		 int	 3
PMCCS_GreatestCommonDivisor_X_L$catch$0 ENDP
text$x	ENDS
; Function compile flags: /Ogtpy
; File z:\sources\lunor\repos\rougemeilland\palmtree.math.core.uint\palmtree.math.core.uint\pmc_interface_csharp.cpp
;	COMDAT PMCCS_GreatestCommonDivisor_X_I
_TEXT	SEGMENT
$T1 = 32
ex$2 = 40
u$ = 64
v$ = 72
$T3 = 80
w$ = 80
PMCCS_GreatestCommonDivisor_X_I PROC			; COMDAT

; 1181 :     {

$LN13:
  00000	40 53		 push	 rbx
  00002	48 83 ec 30	 sub	 rsp, 48			; 00000030H
  00006	48 c7 44 24 20
	fe ff ff ff	 mov	 QWORD PTR $T1[rsp], -2
  0000f	49 8b d8	 mov	 rbx, r8

; 1182 :         if (w == nullptr)

  00012	4d 85 c0	 test	 r8, r8
  00015	75 0a		 jne	 SHORT $LN2@PMCCS_Grea

; 1183 :             return (PMC_STATUS_ARGUMENT_NULL_ERROR);

  00017	41 8d 40 fe	 lea	 eax, QWORD PTR [r8-2]

; 1192 :         }
; 1193 :     }

  0001b	48 83 c4 30	 add	 rsp, 48			; 00000030H
  0001f	5b		 pop	 rbx
  00020	c3		 ret	 0
$LN2@PMCCS_Grea:

; 1184 :         try
; 1185 :         {
; 1186 :             *w = PMC_GreatestCommonDivisor_X_I(u, v);

  00021	e8 00 00 00 00	 call	 ?PMC_GreatestCommonDivisor_X_I@Internal@Core@Math@Palmtree@@YAPEAU__tag_PMC_HANDLE_UINT@1234@PEAU51234@I@Z ; Palmtree::Math::Core::Internal::PMC_GreatestCommonDivisor_X_I
  00026	48 89 03	 mov	 QWORD PTR [rbx], rax

; 1187 :             return (PMC_STATUS_OK);

  00029	33 c0		 xor	 eax, eax
  0002b	eb 04		 jmp	 SHORT $LN7@PMCCS_Grea
$LN8@PMCCS_Grea:

; 1188 :         }
; 1189 :         catch (const Palmtree::Math::Core::Internal::Exception& ex)
; 1190 :         {
; 1191 :             return (ex.GetStatusCode());

  0002d	8b 44 24 50	 mov	 eax, DWORD PTR $T3[rsp]
$LN7@PMCCS_Grea:

; 1192 :         }
; 1193 :     }

  00031	48 83 c4 30	 add	 rsp, 48			; 00000030H
  00035	5b		 pop	 rbx
  00036	c3		 ret	 0
  00037	cc		 int	 3
PMCCS_GreatestCommonDivisor_X_I ENDP
_TEXT	ENDS
;	COMDAT text$x
text$x	SEGMENT
$T1 = 32
ex$2 = 40
u$ = 64
v$ = 72
$T3 = 80
w$ = 80
PMCCS_GreatestCommonDivisor_X_I$catch$0 PROC

; 1188 :         }
; 1189 :         catch (const Palmtree::Math::Core::Internal::Exception& ex)
; 1190 :         {

  00000	48 89 54 24 10	 mov	 QWORD PTR [rsp+16], rdx
  00005	55		 push	 rbp
  00006	48 83 ec 20	 sub	 rsp, 32			; 00000020H
  0000a	48 8b ea	 mov	 rbp, rdx
__catch$PMCCS_GreatestCommonDivisor_X_I$0:
; File z:\sources\lunor\repos\rougemeilland\palmtree.math.core.uint\palmtree.math.core.uint\pmc_exception.h

; 75   :             return (_code);

  0000d	48 8b 45 28	 mov	 rax, QWORD PTR ex$2[rbp]
  00011	8b 48 18	 mov	 ecx, DWORD PTR [rax+24]
  00014	89 4d 50	 mov	 DWORD PTR $T3[rbp], ecx
; File z:\sources\lunor\repos\rougemeilland\palmtree.math.core.uint\palmtree.math.core.uint\pmc_interface_csharp.cpp

; 1188 :         }
; 1189 :         catch (const Palmtree::Math::Core::Internal::Exception& ex)
; 1190 :         {
; 1191 :             return (ex.GetStatusCode());

  00017	48 8d 05 00 00
	00 00		 lea	 rax, $LN8@PMCCS_Grea
  0001e	48 83 c4 20	 add	 rsp, 32			; 00000020H
  00022	5d		 pop	 rbp
  00023	c3		 ret	 0
  00024	cc		 int	 3
PMCCS_GreatestCommonDivisor_X_I$catch$0 ENDP
text$x	ENDS
; Function compile flags: /Ogtpy
; File z:\sources\lunor\repos\rougemeilland\palmtree.math.core.uint\palmtree.math.core.uint\pmc_exception.h
; File z:\sources\lunor\repos\rougemeilland\palmtree.math.core.uint\palmtree.math.core.uint\pmc_interface_csharp.cpp
;	COMDAT text$x
text$x	SEGMENT
$T1 = 32
ex$2 = 40
u$ = 64
v$ = 72
$T3 = 80
w$ = 80
PMCCS_GreatestCommonDivisor_X_I$catch$0 PROC

; 1190 :         {

  00000	48 89 54 24 10	 mov	 QWORD PTR [rsp+16], rdx
  00005	55		 push	 rbp
  00006	48 83 ec 20	 sub	 rsp, 32			; 00000020H
  0000a	48 8b ea	 mov	 rbp, rdx
__catch$PMCCS_GreatestCommonDivisor_X_I$0:
; File z:\sources\lunor\repos\rougemeilland\palmtree.math.core.uint\palmtree.math.core.uint\pmc_exception.h

; 75   :             return (_code);

  0000d	48 8b 45 28	 mov	 rax, QWORD PTR ex$2[rbp]
  00011	8b 48 18	 mov	 ecx, DWORD PTR [rax+24]
  00014	89 4d 50	 mov	 DWORD PTR $T3[rbp], ecx
; File z:\sources\lunor\repos\rougemeilland\palmtree.math.core.uint\palmtree.math.core.uint\pmc_interface_csharp.cpp

; 1191 :             return (ex.GetStatusCode());

  00017	48 8d 05 00 00
	00 00		 lea	 rax, $LN8@PMCCS_Grea
  0001e	48 83 c4 20	 add	 rsp, 32			; 00000020H
  00022	5d		 pop	 rbp
  00023	c3		 ret	 0
  00024	cc		 int	 3
PMCCS_GreatestCommonDivisor_X_I$catch$0 ENDP
text$x	ENDS
; Function compile flags: /Ogtpy
; File z:\sources\lunor\repos\rougemeilland\palmtree.math.core.uint\palmtree.math.core.uint\pmc_interface_csharp.cpp
;	COMDAT PMCCS_GreatestCommonDivisor_L_X
_TEXT	SEGMENT
$T1 = 32
ex$2 = 40
u$ = 64
v$ = 72
$T3 = 80
w$ = 80
PMCCS_GreatestCommonDivisor_L_X PROC			; COMDAT

; 1166 :     {

$LN13:
  00000	40 53		 push	 rbx
  00002	48 83 ec 30	 sub	 rsp, 48			; 00000030H
  00006	48 c7 44 24 20
	fe ff ff ff	 mov	 QWORD PTR $T1[rsp], -2
  0000f	49 8b d8	 mov	 rbx, r8

; 1167 :         if (w == nullptr)

  00012	4d 85 c0	 test	 r8, r8
  00015	75 0a		 jne	 SHORT $LN2@PMCCS_Grea

; 1168 :             return (PMC_STATUS_ARGUMENT_NULL_ERROR);

  00017	41 8d 40 fe	 lea	 eax, QWORD PTR [r8-2]

; 1177 :         }
; 1178 :     }

  0001b	48 83 c4 30	 add	 rsp, 48			; 00000030H
  0001f	5b		 pop	 rbx
  00020	c3		 ret	 0
$LN2@PMCCS_Grea:

; 1169 :         try
; 1170 :         {
; 1171 :             *w = PMC_GreatestCommonDivisor_L_X(u, v);

  00021	e8 00 00 00 00	 call	 ?PMC_GreatestCommonDivisor_L_X@Internal@Core@Math@Palmtree@@YAPEAU__tag_PMC_HANDLE_UINT@1234@_KPEAU51234@@Z ; Palmtree::Math::Core::Internal::PMC_GreatestCommonDivisor_L_X
  00026	48 89 03	 mov	 QWORD PTR [rbx], rax

; 1172 :             return (PMC_STATUS_OK);

  00029	33 c0		 xor	 eax, eax
  0002b	eb 04		 jmp	 SHORT $LN7@PMCCS_Grea
$LN8@PMCCS_Grea:

; 1173 :         }
; 1174 :         catch (const Palmtree::Math::Core::Internal::Exception& ex)
; 1175 :         {
; 1176 :             return (ex.GetStatusCode());

  0002d	8b 44 24 50	 mov	 eax, DWORD PTR $T3[rsp]
$LN7@PMCCS_Grea:

; 1177 :         }
; 1178 :     }

  00031	48 83 c4 30	 add	 rsp, 48			; 00000030H
  00035	5b		 pop	 rbx
  00036	c3		 ret	 0
  00037	cc		 int	 3
PMCCS_GreatestCommonDivisor_L_X ENDP
_TEXT	ENDS
;	COMDAT text$x
text$x	SEGMENT
$T1 = 32
ex$2 = 40
u$ = 64
v$ = 72
$T3 = 80
w$ = 80
PMCCS_GreatestCommonDivisor_L_X$catch$0 PROC

; 1173 :         }
; 1174 :         catch (const Palmtree::Math::Core::Internal::Exception& ex)
; 1175 :         {

  00000	48 89 54 24 10	 mov	 QWORD PTR [rsp+16], rdx
  00005	55		 push	 rbp
  00006	48 83 ec 20	 sub	 rsp, 32			; 00000020H
  0000a	48 8b ea	 mov	 rbp, rdx
__catch$PMCCS_GreatestCommonDivisor_L_X$0:
; File z:\sources\lunor\repos\rougemeilland\palmtree.math.core.uint\palmtree.math.core.uint\pmc_exception.h

; 75   :             return (_code);

  0000d	48 8b 45 28	 mov	 rax, QWORD PTR ex$2[rbp]
  00011	8b 48 18	 mov	 ecx, DWORD PTR [rax+24]
  00014	89 4d 50	 mov	 DWORD PTR $T3[rbp], ecx
; File z:\sources\lunor\repos\rougemeilland\palmtree.math.core.uint\palmtree.math.core.uint\pmc_interface_csharp.cpp

; 1173 :         }
; 1174 :         catch (const Palmtree::Math::Core::Internal::Exception& ex)
; 1175 :         {
; 1176 :             return (ex.GetStatusCode());

  00017	48 8d 05 00 00
	00 00		 lea	 rax, $LN8@PMCCS_Grea
  0001e	48 83 c4 20	 add	 rsp, 32			; 00000020H
  00022	5d		 pop	 rbp
  00023	c3		 ret	 0
  00024	cc		 int	 3
PMCCS_GreatestCommonDivisor_L_X$catch$0 ENDP
text$x	ENDS
; Function compile flags: /Ogtpy
; File z:\sources\lunor\repos\rougemeilland\palmtree.math.core.uint\palmtree.math.core.uint\pmc_exception.h
; File z:\sources\lunor\repos\rougemeilland\palmtree.math.core.uint\palmtree.math.core.uint\pmc_interface_csharp.cpp
;	COMDAT text$x
text$x	SEGMENT
$T1 = 32
ex$2 = 40
u$ = 64
v$ = 72
$T3 = 80
w$ = 80
PMCCS_GreatestCommonDivisor_L_X$catch$0 PROC

; 1175 :         {

  00000	48 89 54 24 10	 mov	 QWORD PTR [rsp+16], rdx
  00005	55		 push	 rbp
  00006	48 83 ec 20	 sub	 rsp, 32			; 00000020H
  0000a	48 8b ea	 mov	 rbp, rdx
__catch$PMCCS_GreatestCommonDivisor_L_X$0:
; File z:\sources\lunor\repos\rougemeilland\palmtree.math.core.uint\palmtree.math.core.uint\pmc_exception.h

; 75   :             return (_code);

  0000d	48 8b 45 28	 mov	 rax, QWORD PTR ex$2[rbp]
  00011	8b 48 18	 mov	 ecx, DWORD PTR [rax+24]
  00014	89 4d 50	 mov	 DWORD PTR $T3[rbp], ecx
; File z:\sources\lunor\repos\rougemeilland\palmtree.math.core.uint\palmtree.math.core.uint\pmc_interface_csharp.cpp

; 1176 :             return (ex.GetStatusCode());

  00017	48 8d 05 00 00
	00 00		 lea	 rax, $LN8@PMCCS_Grea
  0001e	48 83 c4 20	 add	 rsp, 32			; 00000020H
  00022	5d		 pop	 rbp
  00023	c3		 ret	 0
  00024	cc		 int	 3
PMCCS_GreatestCommonDivisor_L_X$catch$0 ENDP
text$x	ENDS
; Function compile flags: /Ogtpy
; File z:\sources\lunor\repos\rougemeilland\palmtree.math.core.uint\palmtree.math.core.uint\pmc_interface_csharp.cpp
;	COMDAT PMCCS_GreatestCommonDivisor_I_X
_TEXT	SEGMENT
$T1 = 32
ex$2 = 40
u$ = 64
v$ = 72
$T3 = 80
w$ = 80
PMCCS_GreatestCommonDivisor_I_X PROC			; COMDAT

; 1151 :     {

$LN13:
  00000	40 53		 push	 rbx
  00002	48 83 ec 30	 sub	 rsp, 48			; 00000030H
  00006	48 c7 44 24 20
	fe ff ff ff	 mov	 QWORD PTR $T1[rsp], -2
  0000f	49 8b d8	 mov	 rbx, r8

; 1152 :         if (w == nullptr)

  00012	4d 85 c0	 test	 r8, r8
  00015	75 0a		 jne	 SHORT $LN2@PMCCS_Grea

; 1153 :             return (PMC_STATUS_ARGUMENT_NULL_ERROR);

  00017	41 8d 40 fe	 lea	 eax, QWORD PTR [r8-2]

; 1162 :         }
; 1163 :     }

  0001b	48 83 c4 30	 add	 rsp, 48			; 00000030H
  0001f	5b		 pop	 rbx
  00020	c3		 ret	 0
$LN2@PMCCS_Grea:

; 1154 :         try
; 1155 :         {
; 1156 :             *w = PMC_GreatestCommonDivisor_I_X(u, v);

  00021	e8 00 00 00 00	 call	 ?PMC_GreatestCommonDivisor_I_X@Internal@Core@Math@Palmtree@@YAPEAU__tag_PMC_HANDLE_UINT@1234@IPEAU51234@@Z ; Palmtree::Math::Core::Internal::PMC_GreatestCommonDivisor_I_X
  00026	48 89 03	 mov	 QWORD PTR [rbx], rax

; 1157 :             return (PMC_STATUS_OK);

  00029	33 c0		 xor	 eax, eax
  0002b	eb 04		 jmp	 SHORT $LN7@PMCCS_Grea
$LN8@PMCCS_Grea:

; 1158 :         }
; 1159 :         catch (const Palmtree::Math::Core::Internal::Exception& ex)
; 1160 :         {
; 1161 :             return (ex.GetStatusCode());

  0002d	8b 44 24 50	 mov	 eax, DWORD PTR $T3[rsp]
$LN7@PMCCS_Grea:

; 1162 :         }
; 1163 :     }

  00031	48 83 c4 30	 add	 rsp, 48			; 00000030H
  00035	5b		 pop	 rbx
  00036	c3		 ret	 0
  00037	cc		 int	 3
PMCCS_GreatestCommonDivisor_I_X ENDP
_TEXT	ENDS
;	COMDAT text$x
text$x	SEGMENT
$T1 = 32
ex$2 = 40
u$ = 64
v$ = 72
$T3 = 80
w$ = 80
PMCCS_GreatestCommonDivisor_I_X$catch$0 PROC

; 1158 :         }
; 1159 :         catch (const Palmtree::Math::Core::Internal::Exception& ex)
; 1160 :         {

  00000	48 89 54 24 10	 mov	 QWORD PTR [rsp+16], rdx
  00005	55		 push	 rbp
  00006	48 83 ec 20	 sub	 rsp, 32			; 00000020H
  0000a	48 8b ea	 mov	 rbp, rdx
__catch$PMCCS_GreatestCommonDivisor_I_X$0:
; File z:\sources\lunor\repos\rougemeilland\palmtree.math.core.uint\palmtree.math.core.uint\pmc_exception.h

; 75   :             return (_code);

  0000d	48 8b 45 28	 mov	 rax, QWORD PTR ex$2[rbp]
  00011	8b 48 18	 mov	 ecx, DWORD PTR [rax+24]
  00014	89 4d 50	 mov	 DWORD PTR $T3[rbp], ecx
; File z:\sources\lunor\repos\rougemeilland\palmtree.math.core.uint\palmtree.math.core.uint\pmc_interface_csharp.cpp

; 1158 :         }
; 1159 :         catch (const Palmtree::Math::Core::Internal::Exception& ex)
; 1160 :         {
; 1161 :             return (ex.GetStatusCode());

  00017	48 8d 05 00 00
	00 00		 lea	 rax, $LN8@PMCCS_Grea
  0001e	48 83 c4 20	 add	 rsp, 32			; 00000020H
  00022	5d		 pop	 rbp
  00023	c3		 ret	 0
  00024	cc		 int	 3
PMCCS_GreatestCommonDivisor_I_X$catch$0 ENDP
text$x	ENDS
; Function compile flags: /Ogtpy
; File z:\sources\lunor\repos\rougemeilland\palmtree.math.core.uint\palmtree.math.core.uint\pmc_exception.h
; File z:\sources\lunor\repos\rougemeilland\palmtree.math.core.uint\palmtree.math.core.uint\pmc_interface_csharp.cpp
;	COMDAT text$x
text$x	SEGMENT
$T1 = 32
ex$2 = 40
u$ = 64
v$ = 72
$T3 = 80
w$ = 80
PMCCS_GreatestCommonDivisor_I_X$catch$0 PROC

; 1160 :         {

  00000	48 89 54 24 10	 mov	 QWORD PTR [rsp+16], rdx
  00005	55		 push	 rbp
  00006	48 83 ec 20	 sub	 rsp, 32			; 00000020H
  0000a	48 8b ea	 mov	 rbp, rdx
__catch$PMCCS_GreatestCommonDivisor_I_X$0:
; File z:\sources\lunor\repos\rougemeilland\palmtree.math.core.uint\palmtree.math.core.uint\pmc_exception.h

; 75   :             return (_code);

  0000d	48 8b 45 28	 mov	 rax, QWORD PTR ex$2[rbp]
  00011	8b 48 18	 mov	 ecx, DWORD PTR [rax+24]
  00014	89 4d 50	 mov	 DWORD PTR $T3[rbp], ecx
; File z:\sources\lunor\repos\rougemeilland\palmtree.math.core.uint\palmtree.math.core.uint\pmc_interface_csharp.cpp

; 1161 :             return (ex.GetStatusCode());

  00017	48 8d 05 00 00
	00 00		 lea	 rax, $LN8@PMCCS_Grea
  0001e	48 83 c4 20	 add	 rsp, 32			; 00000020H
  00022	5d		 pop	 rbp
  00023	c3		 ret	 0
  00024	cc		 int	 3
PMCCS_GreatestCommonDivisor_I_X$catch$0 ENDP
text$x	ENDS
; Function compile flags: /Ogtpy
; File z:\sources\lunor\repos\rougemeilland\palmtree.math.core.uint\palmtree.math.core.uint\pmc_interface_csharp.cpp
;	COMDAT PMCCS_Equals_X_X
_TEXT	SEGMENT
$T1 = 32
ex$2 = 40
u$ = 64
v$ = 72
$T3 = 80
w$ = 80
PMCCS_Equals_X_X PROC					; COMDAT

; 1136 :     {

$LN13:
  00000	40 53		 push	 rbx
  00002	48 83 ec 30	 sub	 rsp, 48			; 00000030H
  00006	48 c7 44 24 20
	fe ff ff ff	 mov	 QWORD PTR $T1[rsp], -2
  0000f	49 8b d8	 mov	 rbx, r8

; 1137 :         if (w == nullptr)

  00012	4d 85 c0	 test	 r8, r8
  00015	75 0a		 jne	 SHORT $LN2@PMCCS_Equa

; 1138 :             return (PMC_STATUS_ARGUMENT_NULL_ERROR);

  00017	41 8d 40 fe	 lea	 eax, QWORD PTR [r8-2]

; 1147 :         }
; 1148 :     }

  0001b	48 83 c4 30	 add	 rsp, 48			; 00000030H
  0001f	5b		 pop	 rbx
  00020	c3		 ret	 0
$LN2@PMCCS_Equa:

; 1139 :         try
; 1140 :         {
; 1141 :             *w = PMC_Equals_X_X(u, v);

  00021	e8 00 00 00 00	 call	 ?PMC_Equals_X_X@Internal@Core@Math@Palmtree@@YAIPEAU__tag_PMC_HANDLE_UINT@1234@0@Z ; Palmtree::Math::Core::Internal::PMC_Equals_X_X
  00026	89 03		 mov	 DWORD PTR [rbx], eax

; 1142 :             return (PMC_STATUS_OK);

  00028	33 c0		 xor	 eax, eax
  0002a	eb 04		 jmp	 SHORT $LN7@PMCCS_Equa
$LN8@PMCCS_Equa:

; 1143 :         }
; 1144 :         catch (const Palmtree::Math::Core::Internal::Exception& ex)
; 1145 :         {
; 1146 :             return (ex.GetStatusCode());

  0002c	8b 44 24 50	 mov	 eax, DWORD PTR $T3[rsp]
$LN7@PMCCS_Equa:

; 1147 :         }
; 1148 :     }

  00030	48 83 c4 30	 add	 rsp, 48			; 00000030H
  00034	5b		 pop	 rbx
  00035	c3		 ret	 0
  00036	cc		 int	 3
PMCCS_Equals_X_X ENDP
_TEXT	ENDS
;	COMDAT text$x
text$x	SEGMENT
$T1 = 32
ex$2 = 40
u$ = 64
v$ = 72
$T3 = 80
w$ = 80
PMCCS_Equals_X_X$catch$0 PROC

; 1143 :         }
; 1144 :         catch (const Palmtree::Math::Core::Internal::Exception& ex)
; 1145 :         {

  00000	48 89 54 24 10	 mov	 QWORD PTR [rsp+16], rdx
  00005	55		 push	 rbp
  00006	48 83 ec 20	 sub	 rsp, 32			; 00000020H
  0000a	48 8b ea	 mov	 rbp, rdx
__catch$PMCCS_Equals_X_X$0:
; File z:\sources\lunor\repos\rougemeilland\palmtree.math.core.uint\palmtree.math.core.uint\pmc_exception.h

; 75   :             return (_code);

  0000d	48 8b 45 28	 mov	 rax, QWORD PTR ex$2[rbp]
  00011	8b 48 18	 mov	 ecx, DWORD PTR [rax+24]
  00014	89 4d 50	 mov	 DWORD PTR $T3[rbp], ecx
; File z:\sources\lunor\repos\rougemeilland\palmtree.math.core.uint\palmtree.math.core.uint\pmc_interface_csharp.cpp

; 1143 :         }
; 1144 :         catch (const Palmtree::Math::Core::Internal::Exception& ex)
; 1145 :         {
; 1146 :             return (ex.GetStatusCode());

  00017	48 8d 05 00 00
	00 00		 lea	 rax, $LN8@PMCCS_Equa
  0001e	48 83 c4 20	 add	 rsp, 32			; 00000020H
  00022	5d		 pop	 rbp
  00023	c3		 ret	 0
  00024	cc		 int	 3
PMCCS_Equals_X_X$catch$0 ENDP
text$x	ENDS
; Function compile flags: /Ogtpy
; File z:\sources\lunor\repos\rougemeilland\palmtree.math.core.uint\palmtree.math.core.uint\pmc_exception.h
; File z:\sources\lunor\repos\rougemeilland\palmtree.math.core.uint\palmtree.math.core.uint\pmc_interface_csharp.cpp
;	COMDAT text$x
text$x	SEGMENT
$T1 = 32
ex$2 = 40
u$ = 64
v$ = 72
$T3 = 80
w$ = 80
PMCCS_Equals_X_X$catch$0 PROC

; 1145 :         {

  00000	48 89 54 24 10	 mov	 QWORD PTR [rsp+16], rdx
  00005	55		 push	 rbp
  00006	48 83 ec 20	 sub	 rsp, 32			; 00000020H
  0000a	48 8b ea	 mov	 rbp, rdx
__catch$PMCCS_Equals_X_X$0:
; File z:\sources\lunor\repos\rougemeilland\palmtree.math.core.uint\palmtree.math.core.uint\pmc_exception.h

; 75   :             return (_code);

  0000d	48 8b 45 28	 mov	 rax, QWORD PTR ex$2[rbp]
  00011	8b 48 18	 mov	 ecx, DWORD PTR [rax+24]
  00014	89 4d 50	 mov	 DWORD PTR $T3[rbp], ecx
; File z:\sources\lunor\repos\rougemeilland\palmtree.math.core.uint\palmtree.math.core.uint\pmc_interface_csharp.cpp

; 1146 :             return (ex.GetStatusCode());

  00017	48 8d 05 00 00
	00 00		 lea	 rax, $LN8@PMCCS_Equa
  0001e	48 83 c4 20	 add	 rsp, 32			; 00000020H
  00022	5d		 pop	 rbp
  00023	c3		 ret	 0
  00024	cc		 int	 3
PMCCS_Equals_X_X$catch$0 ENDP
text$x	ENDS
; Function compile flags: /Ogtpy
; File z:\sources\lunor\repos\rougemeilland\palmtree.math.core.uint\palmtree.math.core.uint\pmc_interface_csharp.cpp
;	COMDAT PMCCS_Equals_X_L
_TEXT	SEGMENT
$T1 = 32
ex$2 = 40
u$ = 64
v$ = 72
$T3 = 80
w$ = 80
PMCCS_Equals_X_L PROC					; COMDAT

; 1121 :     {

$LN13:
  00000	40 53		 push	 rbx
  00002	48 83 ec 30	 sub	 rsp, 48			; 00000030H
  00006	48 c7 44 24 20
	fe ff ff ff	 mov	 QWORD PTR $T1[rsp], -2
  0000f	49 8b d8	 mov	 rbx, r8

; 1122 :         if (w == nullptr)

  00012	4d 85 c0	 test	 r8, r8
  00015	75 0a		 jne	 SHORT $LN2@PMCCS_Equa

; 1123 :             return (PMC_STATUS_ARGUMENT_NULL_ERROR);

  00017	41 8d 40 fe	 lea	 eax, QWORD PTR [r8-2]

; 1132 :         }
; 1133 :     }

  0001b	48 83 c4 30	 add	 rsp, 48			; 00000030H
  0001f	5b		 pop	 rbx
  00020	c3		 ret	 0
$LN2@PMCCS_Equa:

; 1124 :         try
; 1125 :         {
; 1126 :             *w = PMC_Equals_X_L(u, v);

  00021	e8 00 00 00 00	 call	 ?PMC_Equals_X_L@Internal@Core@Math@Palmtree@@YAIPEAU__tag_PMC_HANDLE_UINT@1234@_K@Z ; Palmtree::Math::Core::Internal::PMC_Equals_X_L
  00026	89 03		 mov	 DWORD PTR [rbx], eax

; 1127 :             return (PMC_STATUS_OK);

  00028	33 c0		 xor	 eax, eax
  0002a	eb 04		 jmp	 SHORT $LN7@PMCCS_Equa
$LN8@PMCCS_Equa:

; 1128 :         }
; 1129 :         catch (const Palmtree::Math::Core::Internal::Exception& ex)
; 1130 :         {
; 1131 :             return (ex.GetStatusCode());

  0002c	8b 44 24 50	 mov	 eax, DWORD PTR $T3[rsp]
$LN7@PMCCS_Equa:

; 1132 :         }
; 1133 :     }

  00030	48 83 c4 30	 add	 rsp, 48			; 00000030H
  00034	5b		 pop	 rbx
  00035	c3		 ret	 0
  00036	cc		 int	 3
PMCCS_Equals_X_L ENDP
_TEXT	ENDS
;	COMDAT text$x
text$x	SEGMENT
$T1 = 32
ex$2 = 40
u$ = 64
v$ = 72
$T3 = 80
w$ = 80
PMCCS_Equals_X_L$catch$0 PROC

; 1128 :         }
; 1129 :         catch (const Palmtree::Math::Core::Internal::Exception& ex)
; 1130 :         {

  00000	48 89 54 24 10	 mov	 QWORD PTR [rsp+16], rdx
  00005	55		 push	 rbp
  00006	48 83 ec 20	 sub	 rsp, 32			; 00000020H
  0000a	48 8b ea	 mov	 rbp, rdx
__catch$PMCCS_Equals_X_L$0:
; File z:\sources\lunor\repos\rougemeilland\palmtree.math.core.uint\palmtree.math.core.uint\pmc_exception.h

; 75   :             return (_code);

  0000d	48 8b 45 28	 mov	 rax, QWORD PTR ex$2[rbp]
  00011	8b 48 18	 mov	 ecx, DWORD PTR [rax+24]
  00014	89 4d 50	 mov	 DWORD PTR $T3[rbp], ecx
; File z:\sources\lunor\repos\rougemeilland\palmtree.math.core.uint\palmtree.math.core.uint\pmc_interface_csharp.cpp

; 1128 :         }
; 1129 :         catch (const Palmtree::Math::Core::Internal::Exception& ex)
; 1130 :         {
; 1131 :             return (ex.GetStatusCode());

  00017	48 8d 05 00 00
	00 00		 lea	 rax, $LN8@PMCCS_Equa
  0001e	48 83 c4 20	 add	 rsp, 32			; 00000020H
  00022	5d		 pop	 rbp
  00023	c3		 ret	 0
  00024	cc		 int	 3
PMCCS_Equals_X_L$catch$0 ENDP
text$x	ENDS
; Function compile flags: /Ogtpy
; File z:\sources\lunor\repos\rougemeilland\palmtree.math.core.uint\palmtree.math.core.uint\pmc_exception.h
; File z:\sources\lunor\repos\rougemeilland\palmtree.math.core.uint\palmtree.math.core.uint\pmc_interface_csharp.cpp
;	COMDAT text$x
text$x	SEGMENT
$T1 = 32
ex$2 = 40
u$ = 64
v$ = 72
$T3 = 80
w$ = 80
PMCCS_Equals_X_L$catch$0 PROC

; 1130 :         {

  00000	48 89 54 24 10	 mov	 QWORD PTR [rsp+16], rdx
  00005	55		 push	 rbp
  00006	48 83 ec 20	 sub	 rsp, 32			; 00000020H
  0000a	48 8b ea	 mov	 rbp, rdx
__catch$PMCCS_Equals_X_L$0:
; File z:\sources\lunor\repos\rougemeilland\palmtree.math.core.uint\palmtree.math.core.uint\pmc_exception.h

; 75   :             return (_code);

  0000d	48 8b 45 28	 mov	 rax, QWORD PTR ex$2[rbp]
  00011	8b 48 18	 mov	 ecx, DWORD PTR [rax+24]
  00014	89 4d 50	 mov	 DWORD PTR $T3[rbp], ecx
; File z:\sources\lunor\repos\rougemeilland\palmtree.math.core.uint\palmtree.math.core.uint\pmc_interface_csharp.cpp

; 1131 :             return (ex.GetStatusCode());

  00017	48 8d 05 00 00
	00 00		 lea	 rax, $LN8@PMCCS_Equa
  0001e	48 83 c4 20	 add	 rsp, 32			; 00000020H
  00022	5d		 pop	 rbp
  00023	c3		 ret	 0
  00024	cc		 int	 3
PMCCS_Equals_X_L$catch$0 ENDP
text$x	ENDS
; Function compile flags: /Ogtpy
; File z:\sources\lunor\repos\rougemeilland\palmtree.math.core.uint\palmtree.math.core.uint\pmc_interface_csharp.cpp
;	COMDAT PMCCS_Equals_X_I
_TEXT	SEGMENT
$T1 = 32
ex$2 = 40
u$ = 64
v$ = 72
$T3 = 80
w$ = 80
PMCCS_Equals_X_I PROC					; COMDAT

; 1106 :     {

$LN13:
  00000	40 53		 push	 rbx
  00002	48 83 ec 30	 sub	 rsp, 48			; 00000030H
  00006	48 c7 44 24 20
	fe ff ff ff	 mov	 QWORD PTR $T1[rsp], -2
  0000f	49 8b d8	 mov	 rbx, r8

; 1107 :         if (w == nullptr)

  00012	4d 85 c0	 test	 r8, r8
  00015	75 0a		 jne	 SHORT $LN2@PMCCS_Equa

; 1108 :             return (PMC_STATUS_ARGUMENT_NULL_ERROR);

  00017	41 8d 40 fe	 lea	 eax, QWORD PTR [r8-2]

; 1117 :         }
; 1118 :     }

  0001b	48 83 c4 30	 add	 rsp, 48			; 00000030H
  0001f	5b		 pop	 rbx
  00020	c3		 ret	 0
$LN2@PMCCS_Equa:

; 1109 :         try
; 1110 :         {
; 1111 :             *w = PMC_Equals_X_I(u, v);

  00021	e8 00 00 00 00	 call	 ?PMC_Equals_X_I@Internal@Core@Math@Palmtree@@YAIPEAU__tag_PMC_HANDLE_UINT@1234@I@Z ; Palmtree::Math::Core::Internal::PMC_Equals_X_I
  00026	89 03		 mov	 DWORD PTR [rbx], eax

; 1112 :             return (PMC_STATUS_OK);

  00028	33 c0		 xor	 eax, eax
  0002a	eb 04		 jmp	 SHORT $LN7@PMCCS_Equa
$LN8@PMCCS_Equa:

; 1113 :         }
; 1114 :         catch (const Palmtree::Math::Core::Internal::Exception& ex)
; 1115 :         {
; 1116 :             return (ex.GetStatusCode());

  0002c	8b 44 24 50	 mov	 eax, DWORD PTR $T3[rsp]
$LN7@PMCCS_Equa:

; 1117 :         }
; 1118 :     }

  00030	48 83 c4 30	 add	 rsp, 48			; 00000030H
  00034	5b		 pop	 rbx
  00035	c3		 ret	 0
  00036	cc		 int	 3
PMCCS_Equals_X_I ENDP
_TEXT	ENDS
;	COMDAT text$x
text$x	SEGMENT
$T1 = 32
ex$2 = 40
u$ = 64
v$ = 72
$T3 = 80
w$ = 80
PMCCS_Equals_X_I$catch$0 PROC

; 1113 :         }
; 1114 :         catch (const Palmtree::Math::Core::Internal::Exception& ex)
; 1115 :         {

  00000	48 89 54 24 10	 mov	 QWORD PTR [rsp+16], rdx
  00005	55		 push	 rbp
  00006	48 83 ec 20	 sub	 rsp, 32			; 00000020H
  0000a	48 8b ea	 mov	 rbp, rdx
__catch$PMCCS_Equals_X_I$0:
; File z:\sources\lunor\repos\rougemeilland\palmtree.math.core.uint\palmtree.math.core.uint\pmc_exception.h

; 75   :             return (_code);

  0000d	48 8b 45 28	 mov	 rax, QWORD PTR ex$2[rbp]
  00011	8b 48 18	 mov	 ecx, DWORD PTR [rax+24]
  00014	89 4d 50	 mov	 DWORD PTR $T3[rbp], ecx
; File z:\sources\lunor\repos\rougemeilland\palmtree.math.core.uint\palmtree.math.core.uint\pmc_interface_csharp.cpp

; 1113 :         }
; 1114 :         catch (const Palmtree::Math::Core::Internal::Exception& ex)
; 1115 :         {
; 1116 :             return (ex.GetStatusCode());

  00017	48 8d 05 00 00
	00 00		 lea	 rax, $LN8@PMCCS_Equa
  0001e	48 83 c4 20	 add	 rsp, 32			; 00000020H
  00022	5d		 pop	 rbp
  00023	c3		 ret	 0
  00024	cc		 int	 3
PMCCS_Equals_X_I$catch$0 ENDP
text$x	ENDS
; Function compile flags: /Ogtpy
; File z:\sources\lunor\repos\rougemeilland\palmtree.math.core.uint\palmtree.math.core.uint\pmc_exception.h
; File z:\sources\lunor\repos\rougemeilland\palmtree.math.core.uint\palmtree.math.core.uint\pmc_interface_csharp.cpp
;	COMDAT text$x
text$x	SEGMENT
$T1 = 32
ex$2 = 40
u$ = 64
v$ = 72
$T3 = 80
w$ = 80
PMCCS_Equals_X_I$catch$0 PROC

; 1115 :         {

  00000	48 89 54 24 10	 mov	 QWORD PTR [rsp+16], rdx
  00005	55		 push	 rbp
  00006	48 83 ec 20	 sub	 rsp, 32			; 00000020H
  0000a	48 8b ea	 mov	 rbp, rdx
__catch$PMCCS_Equals_X_I$0:
; File z:\sources\lunor\repos\rougemeilland\palmtree.math.core.uint\palmtree.math.core.uint\pmc_exception.h

; 75   :             return (_code);

  0000d	48 8b 45 28	 mov	 rax, QWORD PTR ex$2[rbp]
  00011	8b 48 18	 mov	 ecx, DWORD PTR [rax+24]
  00014	89 4d 50	 mov	 DWORD PTR $T3[rbp], ecx
; File z:\sources\lunor\repos\rougemeilland\palmtree.math.core.uint\palmtree.math.core.uint\pmc_interface_csharp.cpp

; 1116 :             return (ex.GetStatusCode());

  00017	48 8d 05 00 00
	00 00		 lea	 rax, $LN8@PMCCS_Equa
  0001e	48 83 c4 20	 add	 rsp, 32			; 00000020H
  00022	5d		 pop	 rbp
  00023	c3		 ret	 0
  00024	cc		 int	 3
PMCCS_Equals_X_I$catch$0 ENDP
text$x	ENDS
; Function compile flags: /Ogtpy
; File z:\sources\lunor\repos\rougemeilland\palmtree.math.core.uint\palmtree.math.core.uint\pmc_interface_csharp.cpp
;	COMDAT PMCCS_Equals_L_X
_TEXT	SEGMENT
$T1 = 32
ex$2 = 40
u$ = 64
v$ = 72
$T3 = 80
w$ = 80
PMCCS_Equals_L_X PROC					; COMDAT

; 1091 :     {

$LN13:
  00000	40 53		 push	 rbx
  00002	48 83 ec 30	 sub	 rsp, 48			; 00000030H
  00006	48 c7 44 24 20
	fe ff ff ff	 mov	 QWORD PTR $T1[rsp], -2
  0000f	49 8b d8	 mov	 rbx, r8

; 1092 :         if (w == nullptr)

  00012	4d 85 c0	 test	 r8, r8
  00015	75 0a		 jne	 SHORT $LN2@PMCCS_Equa

; 1093 :             return (PMC_STATUS_ARGUMENT_NULL_ERROR);

  00017	41 8d 40 fe	 lea	 eax, QWORD PTR [r8-2]

; 1102 :         }
; 1103 :     }

  0001b	48 83 c4 30	 add	 rsp, 48			; 00000030H
  0001f	5b		 pop	 rbx
  00020	c3		 ret	 0
$LN2@PMCCS_Equa:

; 1094 :         try
; 1095 :         {
; 1096 :             *w = PMC_Equals_L_X(u, v);

  00021	e8 00 00 00 00	 call	 ?PMC_Equals_L_X@Internal@Core@Math@Palmtree@@YAI_KPEAU__tag_PMC_HANDLE_UINT@1234@@Z ; Palmtree::Math::Core::Internal::PMC_Equals_L_X
  00026	89 03		 mov	 DWORD PTR [rbx], eax

; 1097 :             return (PMC_STATUS_OK);

  00028	33 c0		 xor	 eax, eax
  0002a	eb 04		 jmp	 SHORT $LN7@PMCCS_Equa
$LN8@PMCCS_Equa:

; 1098 :         }
; 1099 :         catch (const Palmtree::Math::Core::Internal::Exception& ex)
; 1100 :         {
; 1101 :             return (ex.GetStatusCode());

  0002c	8b 44 24 50	 mov	 eax, DWORD PTR $T3[rsp]
$LN7@PMCCS_Equa:

; 1102 :         }
; 1103 :     }

  00030	48 83 c4 30	 add	 rsp, 48			; 00000030H
  00034	5b		 pop	 rbx
  00035	c3		 ret	 0
  00036	cc		 int	 3
PMCCS_Equals_L_X ENDP
_TEXT	ENDS
;	COMDAT text$x
text$x	SEGMENT
$T1 = 32
ex$2 = 40
u$ = 64
v$ = 72
$T3 = 80
w$ = 80
PMCCS_Equals_L_X$catch$0 PROC

; 1098 :         }
; 1099 :         catch (const Palmtree::Math::Core::Internal::Exception& ex)
; 1100 :         {

  00000	48 89 54 24 10	 mov	 QWORD PTR [rsp+16], rdx
  00005	55		 push	 rbp
  00006	48 83 ec 20	 sub	 rsp, 32			; 00000020H
  0000a	48 8b ea	 mov	 rbp, rdx
__catch$PMCCS_Equals_L_X$0:
; File z:\sources\lunor\repos\rougemeilland\palmtree.math.core.uint\palmtree.math.core.uint\pmc_exception.h

; 75   :             return (_code);

  0000d	48 8b 45 28	 mov	 rax, QWORD PTR ex$2[rbp]
  00011	8b 48 18	 mov	 ecx, DWORD PTR [rax+24]
  00014	89 4d 50	 mov	 DWORD PTR $T3[rbp], ecx
; File z:\sources\lunor\repos\rougemeilland\palmtree.math.core.uint\palmtree.math.core.uint\pmc_interface_csharp.cpp

; 1098 :         }
; 1099 :         catch (const Palmtree::Math::Core::Internal::Exception& ex)
; 1100 :         {
; 1101 :             return (ex.GetStatusCode());

  00017	48 8d 05 00 00
	00 00		 lea	 rax, $LN8@PMCCS_Equa
  0001e	48 83 c4 20	 add	 rsp, 32			; 00000020H
  00022	5d		 pop	 rbp
  00023	c3		 ret	 0
  00024	cc		 int	 3
PMCCS_Equals_L_X$catch$0 ENDP
text$x	ENDS
; Function compile flags: /Ogtpy
; File z:\sources\lunor\repos\rougemeilland\palmtree.math.core.uint\palmtree.math.core.uint\pmc_exception.h
; File z:\sources\lunor\repos\rougemeilland\palmtree.math.core.uint\palmtree.math.core.uint\pmc_interface_csharp.cpp
;	COMDAT text$x
text$x	SEGMENT
$T1 = 32
ex$2 = 40
u$ = 64
v$ = 72
$T3 = 80
w$ = 80
PMCCS_Equals_L_X$catch$0 PROC

; 1100 :         {

  00000	48 89 54 24 10	 mov	 QWORD PTR [rsp+16], rdx
  00005	55		 push	 rbp
  00006	48 83 ec 20	 sub	 rsp, 32			; 00000020H
  0000a	48 8b ea	 mov	 rbp, rdx
__catch$PMCCS_Equals_L_X$0:
; File z:\sources\lunor\repos\rougemeilland\palmtree.math.core.uint\palmtree.math.core.uint\pmc_exception.h

; 75   :             return (_code);

  0000d	48 8b 45 28	 mov	 rax, QWORD PTR ex$2[rbp]
  00011	8b 48 18	 mov	 ecx, DWORD PTR [rax+24]
  00014	89 4d 50	 mov	 DWORD PTR $T3[rbp], ecx
; File z:\sources\lunor\repos\rougemeilland\palmtree.math.core.uint\palmtree.math.core.uint\pmc_interface_csharp.cpp

; 1101 :             return (ex.GetStatusCode());

  00017	48 8d 05 00 00
	00 00		 lea	 rax, $LN8@PMCCS_Equa
  0001e	48 83 c4 20	 add	 rsp, 32			; 00000020H
  00022	5d		 pop	 rbp
  00023	c3		 ret	 0
  00024	cc		 int	 3
PMCCS_Equals_L_X$catch$0 ENDP
text$x	ENDS
; Function compile flags: /Ogtpy
; File z:\sources\lunor\repos\rougemeilland\palmtree.math.core.uint\palmtree.math.core.uint\pmc_interface_csharp.cpp
;	COMDAT PMCCS_Equals_I_X
_TEXT	SEGMENT
$T1 = 32
ex$2 = 40
u$ = 64
v$ = 72
$T3 = 80
w$ = 80
PMCCS_Equals_I_X PROC					; COMDAT

; 1076 :     {

$LN13:
  00000	40 53		 push	 rbx
  00002	48 83 ec 30	 sub	 rsp, 48			; 00000030H
  00006	48 c7 44 24 20
	fe ff ff ff	 mov	 QWORD PTR $T1[rsp], -2
  0000f	49 8b d8	 mov	 rbx, r8

; 1077 :         if (w == nullptr)

  00012	4d 85 c0	 test	 r8, r8
  00015	75 0a		 jne	 SHORT $LN2@PMCCS_Equa

; 1078 :             return (PMC_STATUS_ARGUMENT_NULL_ERROR);

  00017	41 8d 40 fe	 lea	 eax, QWORD PTR [r8-2]

; 1087 :         }
; 1088 :     }

  0001b	48 83 c4 30	 add	 rsp, 48			; 00000030H
  0001f	5b		 pop	 rbx
  00020	c3		 ret	 0
$LN2@PMCCS_Equa:

; 1079 :         try
; 1080 :         {
; 1081 :             *w = PMC_Equals_I_X(u, v);

  00021	e8 00 00 00 00	 call	 ?PMC_Equals_I_X@Internal@Core@Math@Palmtree@@YAIIPEAU__tag_PMC_HANDLE_UINT@1234@@Z ; Palmtree::Math::Core::Internal::PMC_Equals_I_X
  00026	89 03		 mov	 DWORD PTR [rbx], eax

; 1082 :             return (PMC_STATUS_OK);

  00028	33 c0		 xor	 eax, eax
  0002a	eb 04		 jmp	 SHORT $LN7@PMCCS_Equa
$LN8@PMCCS_Equa:

; 1083 :         }
; 1084 :         catch (const Palmtree::Math::Core::Internal::Exception& ex)
; 1085 :         {
; 1086 :             return (ex.GetStatusCode());

  0002c	8b 44 24 50	 mov	 eax, DWORD PTR $T3[rsp]
$LN7@PMCCS_Equa:

; 1087 :         }
; 1088 :     }

  00030	48 83 c4 30	 add	 rsp, 48			; 00000030H
  00034	5b		 pop	 rbx
  00035	c3		 ret	 0
  00036	cc		 int	 3
PMCCS_Equals_I_X ENDP
_TEXT	ENDS
;	COMDAT text$x
text$x	SEGMENT
$T1 = 32
ex$2 = 40
u$ = 64
v$ = 72
$T3 = 80
w$ = 80
PMCCS_Equals_I_X$catch$0 PROC

; 1083 :         }
; 1084 :         catch (const Palmtree::Math::Core::Internal::Exception& ex)
; 1085 :         {

  00000	48 89 54 24 10	 mov	 QWORD PTR [rsp+16], rdx
  00005	55		 push	 rbp
  00006	48 83 ec 20	 sub	 rsp, 32			; 00000020H
  0000a	48 8b ea	 mov	 rbp, rdx
__catch$PMCCS_Equals_I_X$0:
; File z:\sources\lunor\repos\rougemeilland\palmtree.math.core.uint\palmtree.math.core.uint\pmc_exception.h

; 75   :             return (_code);

  0000d	48 8b 45 28	 mov	 rax, QWORD PTR ex$2[rbp]
  00011	8b 48 18	 mov	 ecx, DWORD PTR [rax+24]
  00014	89 4d 50	 mov	 DWORD PTR $T3[rbp], ecx
; File z:\sources\lunor\repos\rougemeilland\palmtree.math.core.uint\palmtree.math.core.uint\pmc_interface_csharp.cpp

; 1083 :         }
; 1084 :         catch (const Palmtree::Math::Core::Internal::Exception& ex)
; 1085 :         {
; 1086 :             return (ex.GetStatusCode());

  00017	48 8d 05 00 00
	00 00		 lea	 rax, $LN8@PMCCS_Equa
  0001e	48 83 c4 20	 add	 rsp, 32			; 00000020H
  00022	5d		 pop	 rbp
  00023	c3		 ret	 0
  00024	cc		 int	 3
PMCCS_Equals_I_X$catch$0 ENDP
text$x	ENDS
; Function compile flags: /Ogtpy
; File z:\sources\lunor\repos\rougemeilland\palmtree.math.core.uint\palmtree.math.core.uint\pmc_exception.h
; File z:\sources\lunor\repos\rougemeilland\palmtree.math.core.uint\palmtree.math.core.uint\pmc_interface_csharp.cpp
;	COMDAT text$x
text$x	SEGMENT
$T1 = 32
ex$2 = 40
u$ = 64
v$ = 72
$T3 = 80
w$ = 80
PMCCS_Equals_I_X$catch$0 PROC

; 1085 :         {

  00000	48 89 54 24 10	 mov	 QWORD PTR [rsp+16], rdx
  00005	55		 push	 rbp
  00006	48 83 ec 20	 sub	 rsp, 32			; 00000020H
  0000a	48 8b ea	 mov	 rbp, rdx
__catch$PMCCS_Equals_I_X$0:
; File z:\sources\lunor\repos\rougemeilland\palmtree.math.core.uint\palmtree.math.core.uint\pmc_exception.h

; 75   :             return (_code);

  0000d	48 8b 45 28	 mov	 rax, QWORD PTR ex$2[rbp]
  00011	8b 48 18	 mov	 ecx, DWORD PTR [rax+24]
  00014	89 4d 50	 mov	 DWORD PTR $T3[rbp], ecx
; File z:\sources\lunor\repos\rougemeilland\palmtree.math.core.uint\palmtree.math.core.uint\pmc_interface_csharp.cpp

; 1086 :             return (ex.GetStatusCode());

  00017	48 8d 05 00 00
	00 00		 lea	 rax, $LN8@PMCCS_Equa
  0001e	48 83 c4 20	 add	 rsp, 32			; 00000020H
  00022	5d		 pop	 rbp
  00023	c3		 ret	 0
  00024	cc		 int	 3
PMCCS_Equals_I_X$catch$0 ENDP
text$x	ENDS
; Function compile flags: /Ogtpy
; File z:\sources\lunor\repos\rougemeilland\palmtree.math.core.uint\palmtree.math.core.uint\pmc_interface_csharp.cpp
;	COMDAT PMCCS_Compare_X_X
_TEXT	SEGMENT
$T1 = 32
ex$2 = 40
u$ = 64
v$ = 72
$T3 = 80
w$ = 80
PMCCS_Compare_X_X PROC					; COMDAT

; 1061 :     {

$LN13:
  00000	40 53		 push	 rbx
  00002	48 83 ec 30	 sub	 rsp, 48			; 00000030H
  00006	48 c7 44 24 20
	fe ff ff ff	 mov	 QWORD PTR $T1[rsp], -2
  0000f	49 8b d8	 mov	 rbx, r8

; 1062 :         if (w == nullptr)

  00012	4d 85 c0	 test	 r8, r8
  00015	75 0a		 jne	 SHORT $LN2@PMCCS_Comp

; 1063 :             return (PMC_STATUS_ARGUMENT_NULL_ERROR);

  00017	41 8d 40 fe	 lea	 eax, QWORD PTR [r8-2]

; 1072 :         }
; 1073 :     }

  0001b	48 83 c4 30	 add	 rsp, 48			; 00000030H
  0001f	5b		 pop	 rbx
  00020	c3		 ret	 0
$LN2@PMCCS_Comp:

; 1064 :         try
; 1065 :         {
; 1066 :             *w = PMC_Compare_X_X(u, v);

  00021	e8 00 00 00 00	 call	 ?PMC_Compare_X_X@Internal@Core@Math@Palmtree@@YAHPEAU__tag_PMC_HANDLE_UINT@1234@0@Z ; Palmtree::Math::Core::Internal::PMC_Compare_X_X
  00026	89 03		 mov	 DWORD PTR [rbx], eax

; 1067 :             return (PMC_STATUS_OK);

  00028	33 c0		 xor	 eax, eax
  0002a	eb 04		 jmp	 SHORT $LN7@PMCCS_Comp
$LN8@PMCCS_Comp:

; 1068 :         }
; 1069 :         catch (const Palmtree::Math::Core::Internal::Exception& ex)
; 1070 :         {
; 1071 :             return (ex.GetStatusCode());

  0002c	8b 44 24 50	 mov	 eax, DWORD PTR $T3[rsp]
$LN7@PMCCS_Comp:

; 1072 :         }
; 1073 :     }

  00030	48 83 c4 30	 add	 rsp, 48			; 00000030H
  00034	5b		 pop	 rbx
  00035	c3		 ret	 0
  00036	cc		 int	 3
PMCCS_Compare_X_X ENDP
_TEXT	ENDS
;	COMDAT text$x
text$x	SEGMENT
$T1 = 32
ex$2 = 40
u$ = 64
v$ = 72
$T3 = 80
w$ = 80
PMCCS_Compare_X_X$catch$0 PROC

; 1068 :         }
; 1069 :         catch (const Palmtree::Math::Core::Internal::Exception& ex)
; 1070 :         {

  00000	48 89 54 24 10	 mov	 QWORD PTR [rsp+16], rdx
  00005	55		 push	 rbp
  00006	48 83 ec 20	 sub	 rsp, 32			; 00000020H
  0000a	48 8b ea	 mov	 rbp, rdx
__catch$PMCCS_Compare_X_X$0:
; File z:\sources\lunor\repos\rougemeilland\palmtree.math.core.uint\palmtree.math.core.uint\pmc_exception.h

; 75   :             return (_code);

  0000d	48 8b 45 28	 mov	 rax, QWORD PTR ex$2[rbp]
  00011	8b 48 18	 mov	 ecx, DWORD PTR [rax+24]
  00014	89 4d 50	 mov	 DWORD PTR $T3[rbp], ecx
; File z:\sources\lunor\repos\rougemeilland\palmtree.math.core.uint\palmtree.math.core.uint\pmc_interface_csharp.cpp

; 1068 :         }
; 1069 :         catch (const Palmtree::Math::Core::Internal::Exception& ex)
; 1070 :         {
; 1071 :             return (ex.GetStatusCode());

  00017	48 8d 05 00 00
	00 00		 lea	 rax, $LN8@PMCCS_Comp
  0001e	48 83 c4 20	 add	 rsp, 32			; 00000020H
  00022	5d		 pop	 rbp
  00023	c3		 ret	 0
  00024	cc		 int	 3
PMCCS_Compare_X_X$catch$0 ENDP
text$x	ENDS
; Function compile flags: /Ogtpy
; File z:\sources\lunor\repos\rougemeilland\palmtree.math.core.uint\palmtree.math.core.uint\pmc_exception.h
; File z:\sources\lunor\repos\rougemeilland\palmtree.math.core.uint\palmtree.math.core.uint\pmc_interface_csharp.cpp
;	COMDAT text$x
text$x	SEGMENT
$T1 = 32
ex$2 = 40
u$ = 64
v$ = 72
$T3 = 80
w$ = 80
PMCCS_Compare_X_X$catch$0 PROC

; 1070 :         {

  00000	48 89 54 24 10	 mov	 QWORD PTR [rsp+16], rdx
  00005	55		 push	 rbp
  00006	48 83 ec 20	 sub	 rsp, 32			; 00000020H
  0000a	48 8b ea	 mov	 rbp, rdx
__catch$PMCCS_Compare_X_X$0:
; File z:\sources\lunor\repos\rougemeilland\palmtree.math.core.uint\palmtree.math.core.uint\pmc_exception.h

; 75   :             return (_code);

  0000d	48 8b 45 28	 mov	 rax, QWORD PTR ex$2[rbp]
  00011	8b 48 18	 mov	 ecx, DWORD PTR [rax+24]
  00014	89 4d 50	 mov	 DWORD PTR $T3[rbp], ecx
; File z:\sources\lunor\repos\rougemeilland\palmtree.math.core.uint\palmtree.math.core.uint\pmc_interface_csharp.cpp

; 1071 :             return (ex.GetStatusCode());

  00017	48 8d 05 00 00
	00 00		 lea	 rax, $LN8@PMCCS_Comp
  0001e	48 83 c4 20	 add	 rsp, 32			; 00000020H
  00022	5d		 pop	 rbp
  00023	c3		 ret	 0
  00024	cc		 int	 3
PMCCS_Compare_X_X$catch$0 ENDP
text$x	ENDS
; Function compile flags: /Ogtpy
; File z:\sources\lunor\repos\rougemeilland\palmtree.math.core.uint\palmtree.math.core.uint\pmc_interface_csharp.cpp
;	COMDAT PMCCS_Compare_X_L
_TEXT	SEGMENT
$T1 = 32
ex$2 = 40
u$ = 64
v$ = 72
$T3 = 80
w$ = 80
PMCCS_Compare_X_L PROC					; COMDAT

; 1046 :     {

$LN13:
  00000	40 53		 push	 rbx
  00002	48 83 ec 30	 sub	 rsp, 48			; 00000030H
  00006	48 c7 44 24 20
	fe ff ff ff	 mov	 QWORD PTR $T1[rsp], -2
  0000f	49 8b d8	 mov	 rbx, r8

; 1047 :         if (w == nullptr)

  00012	4d 85 c0	 test	 r8, r8
  00015	75 0a		 jne	 SHORT $LN2@PMCCS_Comp

; 1048 :             return (PMC_STATUS_ARGUMENT_NULL_ERROR);

  00017	41 8d 40 fe	 lea	 eax, QWORD PTR [r8-2]

; 1057 :         }
; 1058 :     }

  0001b	48 83 c4 30	 add	 rsp, 48			; 00000030H
  0001f	5b		 pop	 rbx
  00020	c3		 ret	 0
$LN2@PMCCS_Comp:

; 1049 :         try
; 1050 :         {
; 1051 :             *w = PMC_Compare_X_L(u, v);

  00021	e8 00 00 00 00	 call	 ?PMC_Compare_X_L@Internal@Core@Math@Palmtree@@YAHPEAU__tag_PMC_HANDLE_UINT@1234@_K@Z ; Palmtree::Math::Core::Internal::PMC_Compare_X_L
  00026	89 03		 mov	 DWORD PTR [rbx], eax

; 1052 :             return (PMC_STATUS_OK);

  00028	33 c0		 xor	 eax, eax
  0002a	eb 04		 jmp	 SHORT $LN7@PMCCS_Comp
$LN8@PMCCS_Comp:

; 1053 :         }
; 1054 :         catch (const Palmtree::Math::Core::Internal::Exception& ex)
; 1055 :         {
; 1056 :             return (ex.GetStatusCode());

  0002c	8b 44 24 50	 mov	 eax, DWORD PTR $T3[rsp]
$LN7@PMCCS_Comp:

; 1057 :         }
; 1058 :     }

  00030	48 83 c4 30	 add	 rsp, 48			; 00000030H
  00034	5b		 pop	 rbx
  00035	c3		 ret	 0
  00036	cc		 int	 3
PMCCS_Compare_X_L ENDP
_TEXT	ENDS
;	COMDAT text$x
text$x	SEGMENT
$T1 = 32
ex$2 = 40
u$ = 64
v$ = 72
$T3 = 80
w$ = 80
PMCCS_Compare_X_L$catch$0 PROC

; 1053 :         }
; 1054 :         catch (const Palmtree::Math::Core::Internal::Exception& ex)
; 1055 :         {

  00000	48 89 54 24 10	 mov	 QWORD PTR [rsp+16], rdx
  00005	55		 push	 rbp
  00006	48 83 ec 20	 sub	 rsp, 32			; 00000020H
  0000a	48 8b ea	 mov	 rbp, rdx
__catch$PMCCS_Compare_X_L$0:
; File z:\sources\lunor\repos\rougemeilland\palmtree.math.core.uint\palmtree.math.core.uint\pmc_exception.h

; 75   :             return (_code);

  0000d	48 8b 45 28	 mov	 rax, QWORD PTR ex$2[rbp]
  00011	8b 48 18	 mov	 ecx, DWORD PTR [rax+24]
  00014	89 4d 50	 mov	 DWORD PTR $T3[rbp], ecx
; File z:\sources\lunor\repos\rougemeilland\palmtree.math.core.uint\palmtree.math.core.uint\pmc_interface_csharp.cpp

; 1053 :         }
; 1054 :         catch (const Palmtree::Math::Core::Internal::Exception& ex)
; 1055 :         {
; 1056 :             return (ex.GetStatusCode());

  00017	48 8d 05 00 00
	00 00		 lea	 rax, $LN8@PMCCS_Comp
  0001e	48 83 c4 20	 add	 rsp, 32			; 00000020H
  00022	5d		 pop	 rbp
  00023	c3		 ret	 0
  00024	cc		 int	 3
PMCCS_Compare_X_L$catch$0 ENDP
text$x	ENDS
; Function compile flags: /Ogtpy
; File z:\sources\lunor\repos\rougemeilland\palmtree.math.core.uint\palmtree.math.core.uint\pmc_exception.h
; File z:\sources\lunor\repos\rougemeilland\palmtree.math.core.uint\palmtree.math.core.uint\pmc_interface_csharp.cpp
;	COMDAT text$x
text$x	SEGMENT
$T1 = 32
ex$2 = 40
u$ = 64
v$ = 72
$T3 = 80
w$ = 80
PMCCS_Compare_X_L$catch$0 PROC

; 1055 :         {

  00000	48 89 54 24 10	 mov	 QWORD PTR [rsp+16], rdx
  00005	55		 push	 rbp
  00006	48 83 ec 20	 sub	 rsp, 32			; 00000020H
  0000a	48 8b ea	 mov	 rbp, rdx
__catch$PMCCS_Compare_X_L$0:
; File z:\sources\lunor\repos\rougemeilland\palmtree.math.core.uint\palmtree.math.core.uint\pmc_exception.h

; 75   :             return (_code);

  0000d	48 8b 45 28	 mov	 rax, QWORD PTR ex$2[rbp]
  00011	8b 48 18	 mov	 ecx, DWORD PTR [rax+24]
  00014	89 4d 50	 mov	 DWORD PTR $T3[rbp], ecx
; File z:\sources\lunor\repos\rougemeilland\palmtree.math.core.uint\palmtree.math.core.uint\pmc_interface_csharp.cpp

; 1056 :             return (ex.GetStatusCode());

  00017	48 8d 05 00 00
	00 00		 lea	 rax, $LN8@PMCCS_Comp
  0001e	48 83 c4 20	 add	 rsp, 32			; 00000020H
  00022	5d		 pop	 rbp
  00023	c3		 ret	 0
  00024	cc		 int	 3
PMCCS_Compare_X_L$catch$0 ENDP
text$x	ENDS
; Function compile flags: /Ogtpy
; File z:\sources\lunor\repos\rougemeilland\palmtree.math.core.uint\palmtree.math.core.uint\pmc_interface_csharp.cpp
;	COMDAT PMCCS_Compare_X_I
_TEXT	SEGMENT
$T1 = 32
ex$2 = 40
u$ = 64
v$ = 72
$T3 = 80
w$ = 80
PMCCS_Compare_X_I PROC					; COMDAT

; 1031 :     {

$LN13:
  00000	40 53		 push	 rbx
  00002	48 83 ec 30	 sub	 rsp, 48			; 00000030H
  00006	48 c7 44 24 20
	fe ff ff ff	 mov	 QWORD PTR $T1[rsp], -2
  0000f	49 8b d8	 mov	 rbx, r8

; 1032 :         if (w == nullptr)

  00012	4d 85 c0	 test	 r8, r8
  00015	75 0a		 jne	 SHORT $LN2@PMCCS_Comp

; 1033 :             return (PMC_STATUS_ARGUMENT_NULL_ERROR);

  00017	41 8d 40 fe	 lea	 eax, QWORD PTR [r8-2]

; 1042 :         }
; 1043 :     }

  0001b	48 83 c4 30	 add	 rsp, 48			; 00000030H
  0001f	5b		 pop	 rbx
  00020	c3		 ret	 0
$LN2@PMCCS_Comp:

; 1034 :         try
; 1035 :         {
; 1036 :             *w = PMC_Compare_X_I(u, v);

  00021	e8 00 00 00 00	 call	 ?PMC_Compare_X_I@Internal@Core@Math@Palmtree@@YAHPEAU__tag_PMC_HANDLE_UINT@1234@I@Z ; Palmtree::Math::Core::Internal::PMC_Compare_X_I
  00026	89 03		 mov	 DWORD PTR [rbx], eax

; 1037 :             return (PMC_STATUS_OK);

  00028	33 c0		 xor	 eax, eax
  0002a	eb 04		 jmp	 SHORT $LN7@PMCCS_Comp
$LN8@PMCCS_Comp:

; 1038 :         }
; 1039 :         catch (const Palmtree::Math::Core::Internal::Exception& ex)
; 1040 :         {
; 1041 :             return (ex.GetStatusCode());

  0002c	8b 44 24 50	 mov	 eax, DWORD PTR $T3[rsp]
$LN7@PMCCS_Comp:

; 1042 :         }
; 1043 :     }

  00030	48 83 c4 30	 add	 rsp, 48			; 00000030H
  00034	5b		 pop	 rbx
  00035	c3		 ret	 0
  00036	cc		 int	 3
PMCCS_Compare_X_I ENDP
_TEXT	ENDS
;	COMDAT text$x
text$x	SEGMENT
$T1 = 32
ex$2 = 40
u$ = 64
v$ = 72
$T3 = 80
w$ = 80
PMCCS_Compare_X_I$catch$0 PROC

; 1038 :         }
; 1039 :         catch (const Palmtree::Math::Core::Internal::Exception& ex)
; 1040 :         {

  00000	48 89 54 24 10	 mov	 QWORD PTR [rsp+16], rdx
  00005	55		 push	 rbp
  00006	48 83 ec 20	 sub	 rsp, 32			; 00000020H
  0000a	48 8b ea	 mov	 rbp, rdx
__catch$PMCCS_Compare_X_I$0:
; File z:\sources\lunor\repos\rougemeilland\palmtree.math.core.uint\palmtree.math.core.uint\pmc_exception.h

; 75   :             return (_code);

  0000d	48 8b 45 28	 mov	 rax, QWORD PTR ex$2[rbp]
  00011	8b 48 18	 mov	 ecx, DWORD PTR [rax+24]
  00014	89 4d 50	 mov	 DWORD PTR $T3[rbp], ecx
; File z:\sources\lunor\repos\rougemeilland\palmtree.math.core.uint\palmtree.math.core.uint\pmc_interface_csharp.cpp

; 1038 :         }
; 1039 :         catch (const Palmtree::Math::Core::Internal::Exception& ex)
; 1040 :         {
; 1041 :             return (ex.GetStatusCode());

  00017	48 8d 05 00 00
	00 00		 lea	 rax, $LN8@PMCCS_Comp
  0001e	48 83 c4 20	 add	 rsp, 32			; 00000020H
  00022	5d		 pop	 rbp
  00023	c3		 ret	 0
  00024	cc		 int	 3
PMCCS_Compare_X_I$catch$0 ENDP
text$x	ENDS
; Function compile flags: /Ogtpy
; File z:\sources\lunor\repos\rougemeilland\palmtree.math.core.uint\palmtree.math.core.uint\pmc_exception.h
; File z:\sources\lunor\repos\rougemeilland\palmtree.math.core.uint\palmtree.math.core.uint\pmc_interface_csharp.cpp
;	COMDAT text$x
text$x	SEGMENT
$T1 = 32
ex$2 = 40
u$ = 64
v$ = 72
$T3 = 80
w$ = 80
PMCCS_Compare_X_I$catch$0 PROC

; 1040 :         {

  00000	48 89 54 24 10	 mov	 QWORD PTR [rsp+16], rdx
  00005	55		 push	 rbp
  00006	48 83 ec 20	 sub	 rsp, 32			; 00000020H
  0000a	48 8b ea	 mov	 rbp, rdx
__catch$PMCCS_Compare_X_I$0:
; File z:\sources\lunor\repos\rougemeilland\palmtree.math.core.uint\palmtree.math.core.uint\pmc_exception.h

; 75   :             return (_code);

  0000d	48 8b 45 28	 mov	 rax, QWORD PTR ex$2[rbp]
  00011	8b 48 18	 mov	 ecx, DWORD PTR [rax+24]
  00014	89 4d 50	 mov	 DWORD PTR $T3[rbp], ecx
; File z:\sources\lunor\repos\rougemeilland\palmtree.math.core.uint\palmtree.math.core.uint\pmc_interface_csharp.cpp

; 1041 :             return (ex.GetStatusCode());

  00017	48 8d 05 00 00
	00 00		 lea	 rax, $LN8@PMCCS_Comp
  0001e	48 83 c4 20	 add	 rsp, 32			; 00000020H
  00022	5d		 pop	 rbp
  00023	c3		 ret	 0
  00024	cc		 int	 3
PMCCS_Compare_X_I$catch$0 ENDP
text$x	ENDS
; Function compile flags: /Ogtpy
; File z:\sources\lunor\repos\rougemeilland\palmtree.math.core.uint\palmtree.math.core.uint\pmc_interface_csharp.cpp
;	COMDAT PMCCS_Compare_L_X
_TEXT	SEGMENT
$T1 = 32
ex$2 = 40
u$ = 64
v$ = 72
$T3 = 80
w$ = 80
PMCCS_Compare_L_X PROC					; COMDAT

; 1016 :     {

$LN13:
  00000	40 53		 push	 rbx
  00002	48 83 ec 30	 sub	 rsp, 48			; 00000030H
  00006	48 c7 44 24 20
	fe ff ff ff	 mov	 QWORD PTR $T1[rsp], -2
  0000f	49 8b d8	 mov	 rbx, r8

; 1017 :         if (w == nullptr)

  00012	4d 85 c0	 test	 r8, r8
  00015	75 0a		 jne	 SHORT $LN2@PMCCS_Comp

; 1018 :             return (PMC_STATUS_ARGUMENT_NULL_ERROR);

  00017	41 8d 40 fe	 lea	 eax, QWORD PTR [r8-2]

; 1027 :         }
; 1028 :     }

  0001b	48 83 c4 30	 add	 rsp, 48			; 00000030H
  0001f	5b		 pop	 rbx
  00020	c3		 ret	 0
$LN2@PMCCS_Comp:

; 1019 :         try
; 1020 :         {
; 1021 :             *w = PMC_Compare_L_X(u, v);

  00021	e8 00 00 00 00	 call	 ?PMC_Compare_L_X@Internal@Core@Math@Palmtree@@YAH_KPEAU__tag_PMC_HANDLE_UINT@1234@@Z ; Palmtree::Math::Core::Internal::PMC_Compare_L_X
  00026	89 03		 mov	 DWORD PTR [rbx], eax

; 1022 :             return (PMC_STATUS_OK);

  00028	33 c0		 xor	 eax, eax
  0002a	eb 04		 jmp	 SHORT $LN7@PMCCS_Comp
$LN8@PMCCS_Comp:

; 1023 :         }
; 1024 :         catch (const Palmtree::Math::Core::Internal::Exception& ex)
; 1025 :         {
; 1026 :             return (ex.GetStatusCode());

  0002c	8b 44 24 50	 mov	 eax, DWORD PTR $T3[rsp]
$LN7@PMCCS_Comp:

; 1027 :         }
; 1028 :     }

  00030	48 83 c4 30	 add	 rsp, 48			; 00000030H
  00034	5b		 pop	 rbx
  00035	c3		 ret	 0
  00036	cc		 int	 3
PMCCS_Compare_L_X ENDP
_TEXT	ENDS
;	COMDAT text$x
text$x	SEGMENT
$T1 = 32
ex$2 = 40
u$ = 64
v$ = 72
$T3 = 80
w$ = 80
PMCCS_Compare_L_X$catch$0 PROC

; 1023 :         }
; 1024 :         catch (const Palmtree::Math::Core::Internal::Exception& ex)
; 1025 :         {

  00000	48 89 54 24 10	 mov	 QWORD PTR [rsp+16], rdx
  00005	55		 push	 rbp
  00006	48 83 ec 20	 sub	 rsp, 32			; 00000020H
  0000a	48 8b ea	 mov	 rbp, rdx
__catch$PMCCS_Compare_L_X$0:
; File z:\sources\lunor\repos\rougemeilland\palmtree.math.core.uint\palmtree.math.core.uint\pmc_exception.h

; 75   :             return (_code);

  0000d	48 8b 45 28	 mov	 rax, QWORD PTR ex$2[rbp]
  00011	8b 48 18	 mov	 ecx, DWORD PTR [rax+24]
  00014	89 4d 50	 mov	 DWORD PTR $T3[rbp], ecx
; File z:\sources\lunor\repos\rougemeilland\palmtree.math.core.uint\palmtree.math.core.uint\pmc_interface_csharp.cpp

; 1023 :         }
; 1024 :         catch (const Palmtree::Math::Core::Internal::Exception& ex)
; 1025 :         {
; 1026 :             return (ex.GetStatusCode());

  00017	48 8d 05 00 00
	00 00		 lea	 rax, $LN8@PMCCS_Comp
  0001e	48 83 c4 20	 add	 rsp, 32			; 00000020H
  00022	5d		 pop	 rbp
  00023	c3		 ret	 0
  00024	cc		 int	 3
PMCCS_Compare_L_X$catch$0 ENDP
text$x	ENDS
; Function compile flags: /Ogtpy
; File z:\sources\lunor\repos\rougemeilland\palmtree.math.core.uint\palmtree.math.core.uint\pmc_exception.h
; File z:\sources\lunor\repos\rougemeilland\palmtree.math.core.uint\palmtree.math.core.uint\pmc_interface_csharp.cpp
;	COMDAT text$x
text$x	SEGMENT
$T1 = 32
ex$2 = 40
u$ = 64
v$ = 72
$T3 = 80
w$ = 80
PMCCS_Compare_L_X$catch$0 PROC

; 1025 :         {

  00000	48 89 54 24 10	 mov	 QWORD PTR [rsp+16], rdx
  00005	55		 push	 rbp
  00006	48 83 ec 20	 sub	 rsp, 32			; 00000020H
  0000a	48 8b ea	 mov	 rbp, rdx
__catch$PMCCS_Compare_L_X$0:
; File z:\sources\lunor\repos\rougemeilland\palmtree.math.core.uint\palmtree.math.core.uint\pmc_exception.h

; 75   :             return (_code);

  0000d	48 8b 45 28	 mov	 rax, QWORD PTR ex$2[rbp]
  00011	8b 48 18	 mov	 ecx, DWORD PTR [rax+24]
  00014	89 4d 50	 mov	 DWORD PTR $T3[rbp], ecx
; File z:\sources\lunor\repos\rougemeilland\palmtree.math.core.uint\palmtree.math.core.uint\pmc_interface_csharp.cpp

; 1026 :             return (ex.GetStatusCode());

  00017	48 8d 05 00 00
	00 00		 lea	 rax, $LN8@PMCCS_Comp
  0001e	48 83 c4 20	 add	 rsp, 32			; 00000020H
  00022	5d		 pop	 rbp
  00023	c3		 ret	 0
  00024	cc		 int	 3
PMCCS_Compare_L_X$catch$0 ENDP
text$x	ENDS
; Function compile flags: /Ogtpy
; File z:\sources\lunor\repos\rougemeilland\palmtree.math.core.uint\palmtree.math.core.uint\pmc_interface_csharp.cpp
;	COMDAT PMCCS_Compare_I_X
_TEXT	SEGMENT
$T1 = 32
ex$2 = 40
u$ = 64
v$ = 72
$T3 = 80
w$ = 80
PMCCS_Compare_I_X PROC					; COMDAT

; 1001 :     {

$LN13:
  00000	40 53		 push	 rbx
  00002	48 83 ec 30	 sub	 rsp, 48			; 00000030H
  00006	48 c7 44 24 20
	fe ff ff ff	 mov	 QWORD PTR $T1[rsp], -2
  0000f	49 8b d8	 mov	 rbx, r8

; 1002 :         if (w == nullptr)

  00012	4d 85 c0	 test	 r8, r8
  00015	75 0a		 jne	 SHORT $LN2@PMCCS_Comp

; 1003 :             return (PMC_STATUS_ARGUMENT_NULL_ERROR);

  00017	41 8d 40 fe	 lea	 eax, QWORD PTR [r8-2]

; 1012 :         }
; 1013 :     }

  0001b	48 83 c4 30	 add	 rsp, 48			; 00000030H
  0001f	5b		 pop	 rbx
  00020	c3		 ret	 0
$LN2@PMCCS_Comp:

; 1004 :         try
; 1005 :         {
; 1006 :             *w = PMC_Compare_I_X(u, v);

  00021	e8 00 00 00 00	 call	 ?PMC_Compare_I_X@Internal@Core@Math@Palmtree@@YAHIPEAU__tag_PMC_HANDLE_UINT@1234@@Z ; Palmtree::Math::Core::Internal::PMC_Compare_I_X
  00026	89 03		 mov	 DWORD PTR [rbx], eax

; 1007 :             return (PMC_STATUS_OK);

  00028	33 c0		 xor	 eax, eax
  0002a	eb 04		 jmp	 SHORT $LN7@PMCCS_Comp
$LN8@PMCCS_Comp:

; 1008 :         }
; 1009 :         catch (const Palmtree::Math::Core::Internal::Exception& ex)
; 1010 :         {
; 1011 :             return (ex.GetStatusCode());

  0002c	8b 44 24 50	 mov	 eax, DWORD PTR $T3[rsp]
$LN7@PMCCS_Comp:

; 1012 :         }
; 1013 :     }

  00030	48 83 c4 30	 add	 rsp, 48			; 00000030H
  00034	5b		 pop	 rbx
  00035	c3		 ret	 0
  00036	cc		 int	 3
PMCCS_Compare_I_X ENDP
_TEXT	ENDS
;	COMDAT text$x
text$x	SEGMENT
$T1 = 32
ex$2 = 40
u$ = 64
v$ = 72
$T3 = 80
w$ = 80
PMCCS_Compare_I_X$catch$0 PROC

; 1008 :         }
; 1009 :         catch (const Palmtree::Math::Core::Internal::Exception& ex)
; 1010 :         {

  00000	48 89 54 24 10	 mov	 QWORD PTR [rsp+16], rdx
  00005	55		 push	 rbp
  00006	48 83 ec 20	 sub	 rsp, 32			; 00000020H
  0000a	48 8b ea	 mov	 rbp, rdx
__catch$PMCCS_Compare_I_X$0:
; File z:\sources\lunor\repos\rougemeilland\palmtree.math.core.uint\palmtree.math.core.uint\pmc_exception.h

; 75   :             return (_code);

  0000d	48 8b 45 28	 mov	 rax, QWORD PTR ex$2[rbp]
  00011	8b 48 18	 mov	 ecx, DWORD PTR [rax+24]
  00014	89 4d 50	 mov	 DWORD PTR $T3[rbp], ecx
; File z:\sources\lunor\repos\rougemeilland\palmtree.math.core.uint\palmtree.math.core.uint\pmc_interface_csharp.cpp

; 1008 :         }
; 1009 :         catch (const Palmtree::Math::Core::Internal::Exception& ex)
; 1010 :         {
; 1011 :             return (ex.GetStatusCode());

  00017	48 8d 05 00 00
	00 00		 lea	 rax, $LN8@PMCCS_Comp
  0001e	48 83 c4 20	 add	 rsp, 32			; 00000020H
  00022	5d		 pop	 rbp
  00023	c3		 ret	 0
  00024	cc		 int	 3
PMCCS_Compare_I_X$catch$0 ENDP
text$x	ENDS
; Function compile flags: /Ogtpy
; File z:\sources\lunor\repos\rougemeilland\palmtree.math.core.uint\palmtree.math.core.uint\pmc_exception.h
; File z:\sources\lunor\repos\rougemeilland\palmtree.math.core.uint\palmtree.math.core.uint\pmc_interface_csharp.cpp
;	COMDAT text$x
text$x	SEGMENT
$T1 = 32
ex$2 = 40
u$ = 64
v$ = 72
$T3 = 80
w$ = 80
PMCCS_Compare_I_X$catch$0 PROC

; 1010 :         {

  00000	48 89 54 24 10	 mov	 QWORD PTR [rsp+16], rdx
  00005	55		 push	 rbp
  00006	48 83 ec 20	 sub	 rsp, 32			; 00000020H
  0000a	48 8b ea	 mov	 rbp, rdx
__catch$PMCCS_Compare_I_X$0:
; File z:\sources\lunor\repos\rougemeilland\palmtree.math.core.uint\palmtree.math.core.uint\pmc_exception.h

; 75   :             return (_code);

  0000d	48 8b 45 28	 mov	 rax, QWORD PTR ex$2[rbp]
  00011	8b 48 18	 mov	 ecx, DWORD PTR [rax+24]
  00014	89 4d 50	 mov	 DWORD PTR $T3[rbp], ecx
; File z:\sources\lunor\repos\rougemeilland\palmtree.math.core.uint\palmtree.math.core.uint\pmc_interface_csharp.cpp

; 1011 :             return (ex.GetStatusCode());

  00017	48 8d 05 00 00
	00 00		 lea	 rax, $LN8@PMCCS_Comp
  0001e	48 83 c4 20	 add	 rsp, 32			; 00000020H
  00022	5d		 pop	 rbp
  00023	c3		 ret	 0
  00024	cc		 int	 3
PMCCS_Compare_I_X$catch$0 ENDP
text$x	ENDS
; Function compile flags: /Ogtpy
; File z:\sources\lunor\repos\rougemeilland\palmtree.math.core.uint\palmtree.math.core.uint\pmc_interface_csharp.cpp
;	COMDAT PMCCS_ExclusiveOr_X_X
_TEXT	SEGMENT
$T1 = 32
ex$2 = 40
u$ = 64
v$ = 72
$T3 = 80
w$ = 80
PMCCS_ExclusiveOr_X_X PROC				; COMDAT

; 986  :     {

$LN13:
  00000	40 53		 push	 rbx
  00002	48 83 ec 30	 sub	 rsp, 48			; 00000030H
  00006	48 c7 44 24 20
	fe ff ff ff	 mov	 QWORD PTR $T1[rsp], -2
  0000f	49 8b d8	 mov	 rbx, r8

; 987  :         if (w == nullptr)

  00012	4d 85 c0	 test	 r8, r8
  00015	75 0a		 jne	 SHORT $LN2@PMCCS_Excl

; 988  :             return (PMC_STATUS_ARGUMENT_NULL_ERROR);

  00017	41 8d 40 fe	 lea	 eax, QWORD PTR [r8-2]

; 997  :         }
; 998  :     }

  0001b	48 83 c4 30	 add	 rsp, 48			; 00000030H
  0001f	5b		 pop	 rbx
  00020	c3		 ret	 0
$LN2@PMCCS_Excl:

; 989  :         try
; 990  :         {
; 991  :             *w = PMC_ExclusiveOr_X_X(u, v);

  00021	e8 00 00 00 00	 call	 ?PMC_ExclusiveOr_X_X@Internal@Core@Math@Palmtree@@YAPEAU__tag_PMC_HANDLE_UINT@1234@PEAU51234@0@Z ; Palmtree::Math::Core::Internal::PMC_ExclusiveOr_X_X
  00026	48 89 03	 mov	 QWORD PTR [rbx], rax

; 992  :             return (PMC_STATUS_OK);

  00029	33 c0		 xor	 eax, eax
  0002b	eb 04		 jmp	 SHORT $LN7@PMCCS_Excl
$LN8@PMCCS_Excl:

; 993  :         }
; 994  :         catch (const Palmtree::Math::Core::Internal::Exception& ex)
; 995  :         {
; 996  :             return (ex.GetStatusCode());

  0002d	8b 44 24 50	 mov	 eax, DWORD PTR $T3[rsp]
$LN7@PMCCS_Excl:

; 997  :         }
; 998  :     }

  00031	48 83 c4 30	 add	 rsp, 48			; 00000030H
  00035	5b		 pop	 rbx
  00036	c3		 ret	 0
  00037	cc		 int	 3
PMCCS_ExclusiveOr_X_X ENDP
_TEXT	ENDS
;	COMDAT text$x
text$x	SEGMENT
$T1 = 32
ex$2 = 40
u$ = 64
v$ = 72
$T3 = 80
w$ = 80
PMCCS_ExclusiveOr_X_X$catch$0 PROC

; 993  :         }
; 994  :         catch (const Palmtree::Math::Core::Internal::Exception& ex)
; 995  :         {

  00000	48 89 54 24 10	 mov	 QWORD PTR [rsp+16], rdx
  00005	55		 push	 rbp
  00006	48 83 ec 20	 sub	 rsp, 32			; 00000020H
  0000a	48 8b ea	 mov	 rbp, rdx
__catch$PMCCS_ExclusiveOr_X_X$0:
; File z:\sources\lunor\repos\rougemeilland\palmtree.math.core.uint\palmtree.math.core.uint\pmc_exception.h

; 75   :             return (_code);

  0000d	48 8b 45 28	 mov	 rax, QWORD PTR ex$2[rbp]
  00011	8b 48 18	 mov	 ecx, DWORD PTR [rax+24]
  00014	89 4d 50	 mov	 DWORD PTR $T3[rbp], ecx
; File z:\sources\lunor\repos\rougemeilland\palmtree.math.core.uint\palmtree.math.core.uint\pmc_interface_csharp.cpp

; 993  :         }
; 994  :         catch (const Palmtree::Math::Core::Internal::Exception& ex)
; 995  :         {
; 996  :             return (ex.GetStatusCode());

  00017	48 8d 05 00 00
	00 00		 lea	 rax, $LN8@PMCCS_Excl
  0001e	48 83 c4 20	 add	 rsp, 32			; 00000020H
  00022	5d		 pop	 rbp
  00023	c3		 ret	 0
  00024	cc		 int	 3
PMCCS_ExclusiveOr_X_X$catch$0 ENDP
text$x	ENDS
; Function compile flags: /Ogtpy
; File z:\sources\lunor\repos\rougemeilland\palmtree.math.core.uint\palmtree.math.core.uint\pmc_exception.h
; File z:\sources\lunor\repos\rougemeilland\palmtree.math.core.uint\palmtree.math.core.uint\pmc_interface_csharp.cpp
;	COMDAT text$x
text$x	SEGMENT
$T1 = 32
ex$2 = 40
u$ = 64
v$ = 72
$T3 = 80
w$ = 80
PMCCS_ExclusiveOr_X_X$catch$0 PROC

; 995  :         {

  00000	48 89 54 24 10	 mov	 QWORD PTR [rsp+16], rdx
  00005	55		 push	 rbp
  00006	48 83 ec 20	 sub	 rsp, 32			; 00000020H
  0000a	48 8b ea	 mov	 rbp, rdx
__catch$PMCCS_ExclusiveOr_X_X$0:
; File z:\sources\lunor\repos\rougemeilland\palmtree.math.core.uint\palmtree.math.core.uint\pmc_exception.h

; 75   :             return (_code);

  0000d	48 8b 45 28	 mov	 rax, QWORD PTR ex$2[rbp]
  00011	8b 48 18	 mov	 ecx, DWORD PTR [rax+24]
  00014	89 4d 50	 mov	 DWORD PTR $T3[rbp], ecx
; File z:\sources\lunor\repos\rougemeilland\palmtree.math.core.uint\palmtree.math.core.uint\pmc_interface_csharp.cpp

; 996  :             return (ex.GetStatusCode());

  00017	48 8d 05 00 00
	00 00		 lea	 rax, $LN8@PMCCS_Excl
  0001e	48 83 c4 20	 add	 rsp, 32			; 00000020H
  00022	5d		 pop	 rbp
  00023	c3		 ret	 0
  00024	cc		 int	 3
PMCCS_ExclusiveOr_X_X$catch$0 ENDP
text$x	ENDS
; Function compile flags: /Ogtpy
; File z:\sources\lunor\repos\rougemeilland\palmtree.math.core.uint\palmtree.math.core.uint\pmc_interface_csharp.cpp
;	COMDAT PMCCS_ExclusiveOr_X_L
_TEXT	SEGMENT
$T1 = 32
ex$2 = 40
u$ = 64
v$ = 72
$T3 = 80
w$ = 80
PMCCS_ExclusiveOr_X_L PROC				; COMDAT

; 971  :     {

$LN13:
  00000	40 53		 push	 rbx
  00002	48 83 ec 30	 sub	 rsp, 48			; 00000030H
  00006	48 c7 44 24 20
	fe ff ff ff	 mov	 QWORD PTR $T1[rsp], -2
  0000f	49 8b d8	 mov	 rbx, r8

; 972  :         if (w == nullptr)

  00012	4d 85 c0	 test	 r8, r8
  00015	75 0a		 jne	 SHORT $LN2@PMCCS_Excl

; 973  :             return (PMC_STATUS_ARGUMENT_NULL_ERROR);

  00017	41 8d 40 fe	 lea	 eax, QWORD PTR [r8-2]

; 982  :         }
; 983  :     }

  0001b	48 83 c4 30	 add	 rsp, 48			; 00000030H
  0001f	5b		 pop	 rbx
  00020	c3		 ret	 0
$LN2@PMCCS_Excl:

; 974  :         try
; 975  :         {
; 976  :             *w = PMC_ExclusiveOr_X_L(u, v);

  00021	e8 00 00 00 00	 call	 ?PMC_ExclusiveOr_X_L@Internal@Core@Math@Palmtree@@YAPEAU__tag_PMC_HANDLE_UINT@1234@PEAU51234@_K@Z ; Palmtree::Math::Core::Internal::PMC_ExclusiveOr_X_L
  00026	48 89 03	 mov	 QWORD PTR [rbx], rax

; 977  :             return (PMC_STATUS_OK);

  00029	33 c0		 xor	 eax, eax
  0002b	eb 04		 jmp	 SHORT $LN7@PMCCS_Excl
$LN8@PMCCS_Excl:

; 978  :         }
; 979  :         catch (const Palmtree::Math::Core::Internal::Exception& ex)
; 980  :         {
; 981  :             return (ex.GetStatusCode());

  0002d	8b 44 24 50	 mov	 eax, DWORD PTR $T3[rsp]
$LN7@PMCCS_Excl:

; 982  :         }
; 983  :     }

  00031	48 83 c4 30	 add	 rsp, 48			; 00000030H
  00035	5b		 pop	 rbx
  00036	c3		 ret	 0
  00037	cc		 int	 3
PMCCS_ExclusiveOr_X_L ENDP
_TEXT	ENDS
;	COMDAT text$x
text$x	SEGMENT
$T1 = 32
ex$2 = 40
u$ = 64
v$ = 72
$T3 = 80
w$ = 80
PMCCS_ExclusiveOr_X_L$catch$0 PROC

; 978  :         }
; 979  :         catch (const Palmtree::Math::Core::Internal::Exception& ex)
; 980  :         {

  00000	48 89 54 24 10	 mov	 QWORD PTR [rsp+16], rdx
  00005	55		 push	 rbp
  00006	48 83 ec 20	 sub	 rsp, 32			; 00000020H
  0000a	48 8b ea	 mov	 rbp, rdx
__catch$PMCCS_ExclusiveOr_X_L$0:
; File z:\sources\lunor\repos\rougemeilland\palmtree.math.core.uint\palmtree.math.core.uint\pmc_exception.h

; 75   :             return (_code);

  0000d	48 8b 45 28	 mov	 rax, QWORD PTR ex$2[rbp]
  00011	8b 48 18	 mov	 ecx, DWORD PTR [rax+24]
  00014	89 4d 50	 mov	 DWORD PTR $T3[rbp], ecx
; File z:\sources\lunor\repos\rougemeilland\palmtree.math.core.uint\palmtree.math.core.uint\pmc_interface_csharp.cpp

; 978  :         }
; 979  :         catch (const Palmtree::Math::Core::Internal::Exception& ex)
; 980  :         {
; 981  :             return (ex.GetStatusCode());

  00017	48 8d 05 00 00
	00 00		 lea	 rax, $LN8@PMCCS_Excl
  0001e	48 83 c4 20	 add	 rsp, 32			; 00000020H
  00022	5d		 pop	 rbp
  00023	c3		 ret	 0
  00024	cc		 int	 3
PMCCS_ExclusiveOr_X_L$catch$0 ENDP
text$x	ENDS
; Function compile flags: /Ogtpy
; File z:\sources\lunor\repos\rougemeilland\palmtree.math.core.uint\palmtree.math.core.uint\pmc_exception.h
; File z:\sources\lunor\repos\rougemeilland\palmtree.math.core.uint\palmtree.math.core.uint\pmc_interface_csharp.cpp
;	COMDAT text$x
text$x	SEGMENT
$T1 = 32
ex$2 = 40
u$ = 64
v$ = 72
$T3 = 80
w$ = 80
PMCCS_ExclusiveOr_X_L$catch$0 PROC

; 980  :         {

  00000	48 89 54 24 10	 mov	 QWORD PTR [rsp+16], rdx
  00005	55		 push	 rbp
  00006	48 83 ec 20	 sub	 rsp, 32			; 00000020H
  0000a	48 8b ea	 mov	 rbp, rdx
__catch$PMCCS_ExclusiveOr_X_L$0:
; File z:\sources\lunor\repos\rougemeilland\palmtree.math.core.uint\palmtree.math.core.uint\pmc_exception.h

; 75   :             return (_code);

  0000d	48 8b 45 28	 mov	 rax, QWORD PTR ex$2[rbp]
  00011	8b 48 18	 mov	 ecx, DWORD PTR [rax+24]
  00014	89 4d 50	 mov	 DWORD PTR $T3[rbp], ecx
; File z:\sources\lunor\repos\rougemeilland\palmtree.math.core.uint\palmtree.math.core.uint\pmc_interface_csharp.cpp

; 981  :             return (ex.GetStatusCode());

  00017	48 8d 05 00 00
	00 00		 lea	 rax, $LN8@PMCCS_Excl
  0001e	48 83 c4 20	 add	 rsp, 32			; 00000020H
  00022	5d		 pop	 rbp
  00023	c3		 ret	 0
  00024	cc		 int	 3
PMCCS_ExclusiveOr_X_L$catch$0 ENDP
text$x	ENDS
; Function compile flags: /Ogtpy
; File z:\sources\lunor\repos\rougemeilland\palmtree.math.core.uint\palmtree.math.core.uint\pmc_interface_csharp.cpp
;	COMDAT PMCCS_ExclusiveOr_X_I
_TEXT	SEGMENT
$T1 = 32
ex$2 = 40
u$ = 64
v$ = 72
$T3 = 80
w$ = 80
PMCCS_ExclusiveOr_X_I PROC				; COMDAT

; 956  :     {

$LN13:
  00000	40 53		 push	 rbx
  00002	48 83 ec 30	 sub	 rsp, 48			; 00000030H
  00006	48 c7 44 24 20
	fe ff ff ff	 mov	 QWORD PTR $T1[rsp], -2
  0000f	49 8b d8	 mov	 rbx, r8

; 957  :         if (w == nullptr)

  00012	4d 85 c0	 test	 r8, r8
  00015	75 0a		 jne	 SHORT $LN2@PMCCS_Excl

; 958  :             return (PMC_STATUS_ARGUMENT_NULL_ERROR);

  00017	41 8d 40 fe	 lea	 eax, QWORD PTR [r8-2]

; 967  :         }
; 968  :     }

  0001b	48 83 c4 30	 add	 rsp, 48			; 00000030H
  0001f	5b		 pop	 rbx
  00020	c3		 ret	 0
$LN2@PMCCS_Excl:

; 959  :         try
; 960  :         {
; 961  :             *w = PMC_ExclusiveOr_X_I(u, v);

  00021	e8 00 00 00 00	 call	 ?PMC_ExclusiveOr_X_I@Internal@Core@Math@Palmtree@@YAPEAU__tag_PMC_HANDLE_UINT@1234@PEAU51234@I@Z ; Palmtree::Math::Core::Internal::PMC_ExclusiveOr_X_I
  00026	48 89 03	 mov	 QWORD PTR [rbx], rax

; 962  :             return (PMC_STATUS_OK);

  00029	33 c0		 xor	 eax, eax
  0002b	eb 04		 jmp	 SHORT $LN7@PMCCS_Excl
$LN8@PMCCS_Excl:

; 963  :         }
; 964  :         catch (const Palmtree::Math::Core::Internal::Exception& ex)
; 965  :         {
; 966  :             return (ex.GetStatusCode());

  0002d	8b 44 24 50	 mov	 eax, DWORD PTR $T3[rsp]
$LN7@PMCCS_Excl:

; 967  :         }
; 968  :     }

  00031	48 83 c4 30	 add	 rsp, 48			; 00000030H
  00035	5b		 pop	 rbx
  00036	c3		 ret	 0
  00037	cc		 int	 3
PMCCS_ExclusiveOr_X_I ENDP
_TEXT	ENDS
;	COMDAT text$x
text$x	SEGMENT
$T1 = 32
ex$2 = 40
u$ = 64
v$ = 72
$T3 = 80
w$ = 80
PMCCS_ExclusiveOr_X_I$catch$0 PROC

; 963  :         }
; 964  :         catch (const Palmtree::Math::Core::Internal::Exception& ex)
; 965  :         {

  00000	48 89 54 24 10	 mov	 QWORD PTR [rsp+16], rdx
  00005	55		 push	 rbp
  00006	48 83 ec 20	 sub	 rsp, 32			; 00000020H
  0000a	48 8b ea	 mov	 rbp, rdx
__catch$PMCCS_ExclusiveOr_X_I$0:
; File z:\sources\lunor\repos\rougemeilland\palmtree.math.core.uint\palmtree.math.core.uint\pmc_exception.h

; 75   :             return (_code);

  0000d	48 8b 45 28	 mov	 rax, QWORD PTR ex$2[rbp]
  00011	8b 48 18	 mov	 ecx, DWORD PTR [rax+24]
  00014	89 4d 50	 mov	 DWORD PTR $T3[rbp], ecx
; File z:\sources\lunor\repos\rougemeilland\palmtree.math.core.uint\palmtree.math.core.uint\pmc_interface_csharp.cpp

; 963  :         }
; 964  :         catch (const Palmtree::Math::Core::Internal::Exception& ex)
; 965  :         {
; 966  :             return (ex.GetStatusCode());

  00017	48 8d 05 00 00
	00 00		 lea	 rax, $LN8@PMCCS_Excl
  0001e	48 83 c4 20	 add	 rsp, 32			; 00000020H
  00022	5d		 pop	 rbp
  00023	c3		 ret	 0
  00024	cc		 int	 3
PMCCS_ExclusiveOr_X_I$catch$0 ENDP
text$x	ENDS
; Function compile flags: /Ogtpy
; File z:\sources\lunor\repos\rougemeilland\palmtree.math.core.uint\palmtree.math.core.uint\pmc_exception.h
; File z:\sources\lunor\repos\rougemeilland\palmtree.math.core.uint\palmtree.math.core.uint\pmc_interface_csharp.cpp
;	COMDAT text$x
text$x	SEGMENT
$T1 = 32
ex$2 = 40
u$ = 64
v$ = 72
$T3 = 80
w$ = 80
PMCCS_ExclusiveOr_X_I$catch$0 PROC

; 965  :         {

  00000	48 89 54 24 10	 mov	 QWORD PTR [rsp+16], rdx
  00005	55		 push	 rbp
  00006	48 83 ec 20	 sub	 rsp, 32			; 00000020H
  0000a	48 8b ea	 mov	 rbp, rdx
__catch$PMCCS_ExclusiveOr_X_I$0:
; File z:\sources\lunor\repos\rougemeilland\palmtree.math.core.uint\palmtree.math.core.uint\pmc_exception.h

; 75   :             return (_code);

  0000d	48 8b 45 28	 mov	 rax, QWORD PTR ex$2[rbp]
  00011	8b 48 18	 mov	 ecx, DWORD PTR [rax+24]
  00014	89 4d 50	 mov	 DWORD PTR $T3[rbp], ecx
; File z:\sources\lunor\repos\rougemeilland\palmtree.math.core.uint\palmtree.math.core.uint\pmc_interface_csharp.cpp

; 966  :             return (ex.GetStatusCode());

  00017	48 8d 05 00 00
	00 00		 lea	 rax, $LN8@PMCCS_Excl
  0001e	48 83 c4 20	 add	 rsp, 32			; 00000020H
  00022	5d		 pop	 rbp
  00023	c3		 ret	 0
  00024	cc		 int	 3
PMCCS_ExclusiveOr_X_I$catch$0 ENDP
text$x	ENDS
; Function compile flags: /Ogtpy
; File z:\sources\lunor\repos\rougemeilland\palmtree.math.core.uint\palmtree.math.core.uint\pmc_interface_csharp.cpp
;	COMDAT PMCCS_ExclusiveOr_L_X
_TEXT	SEGMENT
$T1 = 32
ex$2 = 40
u$ = 64
v$ = 72
$T3 = 80
w$ = 80
PMCCS_ExclusiveOr_L_X PROC				; COMDAT

; 941  :     {

$LN13:
  00000	40 53		 push	 rbx
  00002	48 83 ec 30	 sub	 rsp, 48			; 00000030H
  00006	48 c7 44 24 20
	fe ff ff ff	 mov	 QWORD PTR $T1[rsp], -2
  0000f	49 8b d8	 mov	 rbx, r8

; 942  :         if (w == nullptr)

  00012	4d 85 c0	 test	 r8, r8
  00015	75 0a		 jne	 SHORT $LN2@PMCCS_Excl

; 943  :             return (PMC_STATUS_ARGUMENT_NULL_ERROR);

  00017	41 8d 40 fe	 lea	 eax, QWORD PTR [r8-2]

; 952  :         }
; 953  :     }

  0001b	48 83 c4 30	 add	 rsp, 48			; 00000030H
  0001f	5b		 pop	 rbx
  00020	c3		 ret	 0
$LN2@PMCCS_Excl:

; 944  :         try
; 945  :         {
; 946  :             *w = PMC_ExclusiveOr_L_X(u, v);

  00021	e8 00 00 00 00	 call	 ?PMC_ExclusiveOr_L_X@Internal@Core@Math@Palmtree@@YAPEAU__tag_PMC_HANDLE_UINT@1234@_KPEAU51234@@Z ; Palmtree::Math::Core::Internal::PMC_ExclusiveOr_L_X
  00026	48 89 03	 mov	 QWORD PTR [rbx], rax

; 947  :             return (PMC_STATUS_OK);

  00029	33 c0		 xor	 eax, eax
  0002b	eb 04		 jmp	 SHORT $LN7@PMCCS_Excl
$LN8@PMCCS_Excl:

; 948  :         }
; 949  :         catch (const Palmtree::Math::Core::Internal::Exception& ex)
; 950  :         {
; 951  :             return (ex.GetStatusCode());

  0002d	8b 44 24 50	 mov	 eax, DWORD PTR $T3[rsp]
$LN7@PMCCS_Excl:

; 952  :         }
; 953  :     }

  00031	48 83 c4 30	 add	 rsp, 48			; 00000030H
  00035	5b		 pop	 rbx
  00036	c3		 ret	 0
  00037	cc		 int	 3
PMCCS_ExclusiveOr_L_X ENDP
_TEXT	ENDS
;	COMDAT text$x
text$x	SEGMENT
$T1 = 32
ex$2 = 40
u$ = 64
v$ = 72
$T3 = 80
w$ = 80
PMCCS_ExclusiveOr_L_X$catch$0 PROC

; 948  :         }
; 949  :         catch (const Palmtree::Math::Core::Internal::Exception& ex)
; 950  :         {

  00000	48 89 54 24 10	 mov	 QWORD PTR [rsp+16], rdx
  00005	55		 push	 rbp
  00006	48 83 ec 20	 sub	 rsp, 32			; 00000020H
  0000a	48 8b ea	 mov	 rbp, rdx
__catch$PMCCS_ExclusiveOr_L_X$0:
; File z:\sources\lunor\repos\rougemeilland\palmtree.math.core.uint\palmtree.math.core.uint\pmc_exception.h

; 75   :             return (_code);

  0000d	48 8b 45 28	 mov	 rax, QWORD PTR ex$2[rbp]
  00011	8b 48 18	 mov	 ecx, DWORD PTR [rax+24]
  00014	89 4d 50	 mov	 DWORD PTR $T3[rbp], ecx
; File z:\sources\lunor\repos\rougemeilland\palmtree.math.core.uint\palmtree.math.core.uint\pmc_interface_csharp.cpp

; 948  :         }
; 949  :         catch (const Palmtree::Math::Core::Internal::Exception& ex)
; 950  :         {
; 951  :             return (ex.GetStatusCode());

  00017	48 8d 05 00 00
	00 00		 lea	 rax, $LN8@PMCCS_Excl
  0001e	48 83 c4 20	 add	 rsp, 32			; 00000020H
  00022	5d		 pop	 rbp
  00023	c3		 ret	 0
  00024	cc		 int	 3
PMCCS_ExclusiveOr_L_X$catch$0 ENDP
text$x	ENDS
; Function compile flags: /Ogtpy
; File z:\sources\lunor\repos\rougemeilland\palmtree.math.core.uint\palmtree.math.core.uint\pmc_exception.h
; File z:\sources\lunor\repos\rougemeilland\palmtree.math.core.uint\palmtree.math.core.uint\pmc_interface_csharp.cpp
;	COMDAT text$x
text$x	SEGMENT
$T1 = 32
ex$2 = 40
u$ = 64
v$ = 72
$T3 = 80
w$ = 80
PMCCS_ExclusiveOr_L_X$catch$0 PROC

; 950  :         {

  00000	48 89 54 24 10	 mov	 QWORD PTR [rsp+16], rdx
  00005	55		 push	 rbp
  00006	48 83 ec 20	 sub	 rsp, 32			; 00000020H
  0000a	48 8b ea	 mov	 rbp, rdx
__catch$PMCCS_ExclusiveOr_L_X$0:
; File z:\sources\lunor\repos\rougemeilland\palmtree.math.core.uint\palmtree.math.core.uint\pmc_exception.h

; 75   :             return (_code);

  0000d	48 8b 45 28	 mov	 rax, QWORD PTR ex$2[rbp]
  00011	8b 48 18	 mov	 ecx, DWORD PTR [rax+24]
  00014	89 4d 50	 mov	 DWORD PTR $T3[rbp], ecx
; File z:\sources\lunor\repos\rougemeilland\palmtree.math.core.uint\palmtree.math.core.uint\pmc_interface_csharp.cpp

; 951  :             return (ex.GetStatusCode());

  00017	48 8d 05 00 00
	00 00		 lea	 rax, $LN8@PMCCS_Excl
  0001e	48 83 c4 20	 add	 rsp, 32			; 00000020H
  00022	5d		 pop	 rbp
  00023	c3		 ret	 0
  00024	cc		 int	 3
PMCCS_ExclusiveOr_L_X$catch$0 ENDP
text$x	ENDS
; Function compile flags: /Ogtpy
; File z:\sources\lunor\repos\rougemeilland\palmtree.math.core.uint\palmtree.math.core.uint\pmc_interface_csharp.cpp
;	COMDAT PMCCS_ExclusiveOr_I_X
_TEXT	SEGMENT
$T1 = 32
ex$2 = 40
u$ = 64
v$ = 72
$T3 = 80
w$ = 80
PMCCS_ExclusiveOr_I_X PROC				; COMDAT

; 926  :     {

$LN13:
  00000	40 53		 push	 rbx
  00002	48 83 ec 30	 sub	 rsp, 48			; 00000030H
  00006	48 c7 44 24 20
	fe ff ff ff	 mov	 QWORD PTR $T1[rsp], -2
  0000f	49 8b d8	 mov	 rbx, r8

; 927  :         if (w == nullptr)

  00012	4d 85 c0	 test	 r8, r8
  00015	75 0a		 jne	 SHORT $LN2@PMCCS_Excl

; 928  :             return (PMC_STATUS_ARGUMENT_NULL_ERROR);

  00017	41 8d 40 fe	 lea	 eax, QWORD PTR [r8-2]

; 937  :         }
; 938  :     }

  0001b	48 83 c4 30	 add	 rsp, 48			; 00000030H
  0001f	5b		 pop	 rbx
  00020	c3		 ret	 0
$LN2@PMCCS_Excl:

; 929  :         try
; 930  :         {
; 931  :             *w = PMC_ExclusiveOr_I_X(u, v);

  00021	e8 00 00 00 00	 call	 ?PMC_ExclusiveOr_I_X@Internal@Core@Math@Palmtree@@YAPEAU__tag_PMC_HANDLE_UINT@1234@IPEAU51234@@Z ; Palmtree::Math::Core::Internal::PMC_ExclusiveOr_I_X
  00026	48 89 03	 mov	 QWORD PTR [rbx], rax

; 932  :             return (PMC_STATUS_OK);

  00029	33 c0		 xor	 eax, eax
  0002b	eb 04		 jmp	 SHORT $LN7@PMCCS_Excl
$LN8@PMCCS_Excl:

; 933  :         }
; 934  :         catch (const Palmtree::Math::Core::Internal::Exception& ex)
; 935  :         {
; 936  :             return (ex.GetStatusCode());

  0002d	8b 44 24 50	 mov	 eax, DWORD PTR $T3[rsp]
$LN7@PMCCS_Excl:

; 937  :         }
; 938  :     }

  00031	48 83 c4 30	 add	 rsp, 48			; 00000030H
  00035	5b		 pop	 rbx
  00036	c3		 ret	 0
  00037	cc		 int	 3
PMCCS_ExclusiveOr_I_X ENDP
_TEXT	ENDS
;	COMDAT text$x
text$x	SEGMENT
$T1 = 32
ex$2 = 40
u$ = 64
v$ = 72
$T3 = 80
w$ = 80
PMCCS_ExclusiveOr_I_X$catch$0 PROC

; 933  :         }
; 934  :         catch (const Palmtree::Math::Core::Internal::Exception& ex)
; 935  :         {

  00000	48 89 54 24 10	 mov	 QWORD PTR [rsp+16], rdx
  00005	55		 push	 rbp
  00006	48 83 ec 20	 sub	 rsp, 32			; 00000020H
  0000a	48 8b ea	 mov	 rbp, rdx
__catch$PMCCS_ExclusiveOr_I_X$0:
; File z:\sources\lunor\repos\rougemeilland\palmtree.math.core.uint\palmtree.math.core.uint\pmc_exception.h

; 75   :             return (_code);

  0000d	48 8b 45 28	 mov	 rax, QWORD PTR ex$2[rbp]
  00011	8b 48 18	 mov	 ecx, DWORD PTR [rax+24]
  00014	89 4d 50	 mov	 DWORD PTR $T3[rbp], ecx
; File z:\sources\lunor\repos\rougemeilland\palmtree.math.core.uint\palmtree.math.core.uint\pmc_interface_csharp.cpp

; 933  :         }
; 934  :         catch (const Palmtree::Math::Core::Internal::Exception& ex)
; 935  :         {
; 936  :             return (ex.GetStatusCode());

  00017	48 8d 05 00 00
	00 00		 lea	 rax, $LN8@PMCCS_Excl
  0001e	48 83 c4 20	 add	 rsp, 32			; 00000020H
  00022	5d		 pop	 rbp
  00023	c3		 ret	 0
  00024	cc		 int	 3
PMCCS_ExclusiveOr_I_X$catch$0 ENDP
text$x	ENDS
; Function compile flags: /Ogtpy
; File z:\sources\lunor\repos\rougemeilland\palmtree.math.core.uint\palmtree.math.core.uint\pmc_exception.h
; File z:\sources\lunor\repos\rougemeilland\palmtree.math.core.uint\palmtree.math.core.uint\pmc_interface_csharp.cpp
;	COMDAT text$x
text$x	SEGMENT
$T1 = 32
ex$2 = 40
u$ = 64
v$ = 72
$T3 = 80
w$ = 80
PMCCS_ExclusiveOr_I_X$catch$0 PROC

; 935  :         {

  00000	48 89 54 24 10	 mov	 QWORD PTR [rsp+16], rdx
  00005	55		 push	 rbp
  00006	48 83 ec 20	 sub	 rsp, 32			; 00000020H
  0000a	48 8b ea	 mov	 rbp, rdx
__catch$PMCCS_ExclusiveOr_I_X$0:
; File z:\sources\lunor\repos\rougemeilland\palmtree.math.core.uint\palmtree.math.core.uint\pmc_exception.h

; 75   :             return (_code);

  0000d	48 8b 45 28	 mov	 rax, QWORD PTR ex$2[rbp]
  00011	8b 48 18	 mov	 ecx, DWORD PTR [rax+24]
  00014	89 4d 50	 mov	 DWORD PTR $T3[rbp], ecx
; File z:\sources\lunor\repos\rougemeilland\palmtree.math.core.uint\palmtree.math.core.uint\pmc_interface_csharp.cpp

; 936  :             return (ex.GetStatusCode());

  00017	48 8d 05 00 00
	00 00		 lea	 rax, $LN8@PMCCS_Excl
  0001e	48 83 c4 20	 add	 rsp, 32			; 00000020H
  00022	5d		 pop	 rbp
  00023	c3		 ret	 0
  00024	cc		 int	 3
PMCCS_ExclusiveOr_I_X$catch$0 ENDP
text$x	ENDS
; Function compile flags: /Ogtpy
; File z:\sources\lunor\repos\rougemeilland\palmtree.math.core.uint\palmtree.math.core.uint\pmc_interface_csharp.cpp
;	COMDAT PMCCS_BitwiseOr_X_X
_TEXT	SEGMENT
$T1 = 32
ex$2 = 40
u$ = 64
v$ = 72
$T3 = 80
w$ = 80
PMCCS_BitwiseOr_X_X PROC				; COMDAT

; 911  :     {

$LN13:
  00000	40 53		 push	 rbx
  00002	48 83 ec 30	 sub	 rsp, 48			; 00000030H
  00006	48 c7 44 24 20
	fe ff ff ff	 mov	 QWORD PTR $T1[rsp], -2
  0000f	49 8b d8	 mov	 rbx, r8

; 912  :         if (w == nullptr)

  00012	4d 85 c0	 test	 r8, r8
  00015	75 0a		 jne	 SHORT $LN2@PMCCS_Bitw

; 913  :             return (PMC_STATUS_ARGUMENT_NULL_ERROR);

  00017	41 8d 40 fe	 lea	 eax, QWORD PTR [r8-2]

; 922  :         }
; 923  :     }

  0001b	48 83 c4 30	 add	 rsp, 48			; 00000030H
  0001f	5b		 pop	 rbx
  00020	c3		 ret	 0
$LN2@PMCCS_Bitw:

; 914  :         try
; 915  :         {
; 916  :             *w = PMC_BitwiseOr_X_X(u, v);

  00021	e8 00 00 00 00	 call	 ?PMC_BitwiseOr_X_X@Internal@Core@Math@Palmtree@@YAPEAU__tag_PMC_HANDLE_UINT@1234@PEAU51234@0@Z ; Palmtree::Math::Core::Internal::PMC_BitwiseOr_X_X
  00026	48 89 03	 mov	 QWORD PTR [rbx], rax

; 917  :             return (PMC_STATUS_OK);

  00029	33 c0		 xor	 eax, eax
  0002b	eb 04		 jmp	 SHORT $LN7@PMCCS_Bitw
$LN8@PMCCS_Bitw:

; 918  :         }
; 919  :         catch (const Palmtree::Math::Core::Internal::Exception& ex)
; 920  :         {
; 921  :             return (ex.GetStatusCode());

  0002d	8b 44 24 50	 mov	 eax, DWORD PTR $T3[rsp]
$LN7@PMCCS_Bitw:

; 922  :         }
; 923  :     }

  00031	48 83 c4 30	 add	 rsp, 48			; 00000030H
  00035	5b		 pop	 rbx
  00036	c3		 ret	 0
  00037	cc		 int	 3
PMCCS_BitwiseOr_X_X ENDP
_TEXT	ENDS
;	COMDAT text$x
text$x	SEGMENT
$T1 = 32
ex$2 = 40
u$ = 64
v$ = 72
$T3 = 80
w$ = 80
PMCCS_BitwiseOr_X_X$catch$0 PROC

; 918  :         }
; 919  :         catch (const Palmtree::Math::Core::Internal::Exception& ex)
; 920  :         {

  00000	48 89 54 24 10	 mov	 QWORD PTR [rsp+16], rdx
  00005	55		 push	 rbp
  00006	48 83 ec 20	 sub	 rsp, 32			; 00000020H
  0000a	48 8b ea	 mov	 rbp, rdx
__catch$PMCCS_BitwiseOr_X_X$0:
; File z:\sources\lunor\repos\rougemeilland\palmtree.math.core.uint\palmtree.math.core.uint\pmc_exception.h

; 75   :             return (_code);

  0000d	48 8b 45 28	 mov	 rax, QWORD PTR ex$2[rbp]
  00011	8b 48 18	 mov	 ecx, DWORD PTR [rax+24]
  00014	89 4d 50	 mov	 DWORD PTR $T3[rbp], ecx
; File z:\sources\lunor\repos\rougemeilland\palmtree.math.core.uint\palmtree.math.core.uint\pmc_interface_csharp.cpp

; 918  :         }
; 919  :         catch (const Palmtree::Math::Core::Internal::Exception& ex)
; 920  :         {
; 921  :             return (ex.GetStatusCode());

  00017	48 8d 05 00 00
	00 00		 lea	 rax, $LN8@PMCCS_Bitw
  0001e	48 83 c4 20	 add	 rsp, 32			; 00000020H
  00022	5d		 pop	 rbp
  00023	c3		 ret	 0
  00024	cc		 int	 3
PMCCS_BitwiseOr_X_X$catch$0 ENDP
text$x	ENDS
; Function compile flags: /Ogtpy
; File z:\sources\lunor\repos\rougemeilland\palmtree.math.core.uint\palmtree.math.core.uint\pmc_exception.h
; File z:\sources\lunor\repos\rougemeilland\palmtree.math.core.uint\palmtree.math.core.uint\pmc_interface_csharp.cpp
;	COMDAT text$x
text$x	SEGMENT
$T1 = 32
ex$2 = 40
u$ = 64
v$ = 72
$T3 = 80
w$ = 80
PMCCS_BitwiseOr_X_X$catch$0 PROC

; 920  :         {

  00000	48 89 54 24 10	 mov	 QWORD PTR [rsp+16], rdx
  00005	55		 push	 rbp
  00006	48 83 ec 20	 sub	 rsp, 32			; 00000020H
  0000a	48 8b ea	 mov	 rbp, rdx
__catch$PMCCS_BitwiseOr_X_X$0:
; File z:\sources\lunor\repos\rougemeilland\palmtree.math.core.uint\palmtree.math.core.uint\pmc_exception.h

; 75   :             return (_code);

  0000d	48 8b 45 28	 mov	 rax, QWORD PTR ex$2[rbp]
  00011	8b 48 18	 mov	 ecx, DWORD PTR [rax+24]
  00014	89 4d 50	 mov	 DWORD PTR $T3[rbp], ecx
; File z:\sources\lunor\repos\rougemeilland\palmtree.math.core.uint\palmtree.math.core.uint\pmc_interface_csharp.cpp

; 921  :             return (ex.GetStatusCode());

  00017	48 8d 05 00 00
	00 00		 lea	 rax, $LN8@PMCCS_Bitw
  0001e	48 83 c4 20	 add	 rsp, 32			; 00000020H
  00022	5d		 pop	 rbp
  00023	c3		 ret	 0
  00024	cc		 int	 3
PMCCS_BitwiseOr_X_X$catch$0 ENDP
text$x	ENDS
; Function compile flags: /Ogtpy
; File z:\sources\lunor\repos\rougemeilland\palmtree.math.core.uint\palmtree.math.core.uint\pmc_interface_csharp.cpp
;	COMDAT PMCCS_BitwiseOr_X_L
_TEXT	SEGMENT
$T1 = 32
ex$2 = 40
u$ = 64
v$ = 72
$T3 = 80
w$ = 80
PMCCS_BitwiseOr_X_L PROC				; COMDAT

; 896  :     {

$LN13:
  00000	40 53		 push	 rbx
  00002	48 83 ec 30	 sub	 rsp, 48			; 00000030H
  00006	48 c7 44 24 20
	fe ff ff ff	 mov	 QWORD PTR $T1[rsp], -2
  0000f	49 8b d8	 mov	 rbx, r8

; 897  :         if (w == nullptr)

  00012	4d 85 c0	 test	 r8, r8
  00015	75 0a		 jne	 SHORT $LN2@PMCCS_Bitw

; 898  :             return (PMC_STATUS_ARGUMENT_NULL_ERROR);

  00017	41 8d 40 fe	 lea	 eax, QWORD PTR [r8-2]

; 907  :         }
; 908  :     }

  0001b	48 83 c4 30	 add	 rsp, 48			; 00000030H
  0001f	5b		 pop	 rbx
  00020	c3		 ret	 0
$LN2@PMCCS_Bitw:

; 899  :         try
; 900  :         {
; 901  :             *w = PMC_BitwiseOr_X_L(u, v);

  00021	e8 00 00 00 00	 call	 ?PMC_BitwiseOr_X_L@Internal@Core@Math@Palmtree@@YAPEAU__tag_PMC_HANDLE_UINT@1234@PEAU51234@_K@Z ; Palmtree::Math::Core::Internal::PMC_BitwiseOr_X_L
  00026	48 89 03	 mov	 QWORD PTR [rbx], rax

; 902  :             return (PMC_STATUS_OK);

  00029	33 c0		 xor	 eax, eax
  0002b	eb 04		 jmp	 SHORT $LN7@PMCCS_Bitw
$LN8@PMCCS_Bitw:

; 903  :         }
; 904  :         catch (const Palmtree::Math::Core::Internal::Exception& ex)
; 905  :         {
; 906  :             return (ex.GetStatusCode());

  0002d	8b 44 24 50	 mov	 eax, DWORD PTR $T3[rsp]
$LN7@PMCCS_Bitw:

; 907  :         }
; 908  :     }

  00031	48 83 c4 30	 add	 rsp, 48			; 00000030H
  00035	5b		 pop	 rbx
  00036	c3		 ret	 0
  00037	cc		 int	 3
PMCCS_BitwiseOr_X_L ENDP
_TEXT	ENDS
;	COMDAT text$x
text$x	SEGMENT
$T1 = 32
ex$2 = 40
u$ = 64
v$ = 72
$T3 = 80
w$ = 80
PMCCS_BitwiseOr_X_L$catch$0 PROC

; 903  :         }
; 904  :         catch (const Palmtree::Math::Core::Internal::Exception& ex)
; 905  :         {

  00000	48 89 54 24 10	 mov	 QWORD PTR [rsp+16], rdx
  00005	55		 push	 rbp
  00006	48 83 ec 20	 sub	 rsp, 32			; 00000020H
  0000a	48 8b ea	 mov	 rbp, rdx
__catch$PMCCS_BitwiseOr_X_L$0:
; File z:\sources\lunor\repos\rougemeilland\palmtree.math.core.uint\palmtree.math.core.uint\pmc_exception.h

; 75   :             return (_code);

  0000d	48 8b 45 28	 mov	 rax, QWORD PTR ex$2[rbp]
  00011	8b 48 18	 mov	 ecx, DWORD PTR [rax+24]
  00014	89 4d 50	 mov	 DWORD PTR $T3[rbp], ecx
; File z:\sources\lunor\repos\rougemeilland\palmtree.math.core.uint\palmtree.math.core.uint\pmc_interface_csharp.cpp

; 903  :         }
; 904  :         catch (const Palmtree::Math::Core::Internal::Exception& ex)
; 905  :         {
; 906  :             return (ex.GetStatusCode());

  00017	48 8d 05 00 00
	00 00		 lea	 rax, $LN8@PMCCS_Bitw
  0001e	48 83 c4 20	 add	 rsp, 32			; 00000020H
  00022	5d		 pop	 rbp
  00023	c3		 ret	 0
  00024	cc		 int	 3
PMCCS_BitwiseOr_X_L$catch$0 ENDP
text$x	ENDS
; Function compile flags: /Ogtpy
; File z:\sources\lunor\repos\rougemeilland\palmtree.math.core.uint\palmtree.math.core.uint\pmc_exception.h
; File z:\sources\lunor\repos\rougemeilland\palmtree.math.core.uint\palmtree.math.core.uint\pmc_interface_csharp.cpp
;	COMDAT text$x
text$x	SEGMENT
$T1 = 32
ex$2 = 40
u$ = 64
v$ = 72
$T3 = 80
w$ = 80
PMCCS_BitwiseOr_X_L$catch$0 PROC

; 905  :         {

  00000	48 89 54 24 10	 mov	 QWORD PTR [rsp+16], rdx
  00005	55		 push	 rbp
  00006	48 83 ec 20	 sub	 rsp, 32			; 00000020H
  0000a	48 8b ea	 mov	 rbp, rdx
__catch$PMCCS_BitwiseOr_X_L$0:
; File z:\sources\lunor\repos\rougemeilland\palmtree.math.core.uint\palmtree.math.core.uint\pmc_exception.h

; 75   :             return (_code);

  0000d	48 8b 45 28	 mov	 rax, QWORD PTR ex$2[rbp]
  00011	8b 48 18	 mov	 ecx, DWORD PTR [rax+24]
  00014	89 4d 50	 mov	 DWORD PTR $T3[rbp], ecx
; File z:\sources\lunor\repos\rougemeilland\palmtree.math.core.uint\palmtree.math.core.uint\pmc_interface_csharp.cpp

; 906  :             return (ex.GetStatusCode());

  00017	48 8d 05 00 00
	00 00		 lea	 rax, $LN8@PMCCS_Bitw
  0001e	48 83 c4 20	 add	 rsp, 32			; 00000020H
  00022	5d		 pop	 rbp
  00023	c3		 ret	 0
  00024	cc		 int	 3
PMCCS_BitwiseOr_X_L$catch$0 ENDP
text$x	ENDS
; Function compile flags: /Ogtpy
; File z:\sources\lunor\repos\rougemeilland\palmtree.math.core.uint\palmtree.math.core.uint\pmc_interface_csharp.cpp
;	COMDAT PMCCS_BitwiseOr_X_I
_TEXT	SEGMENT
$T1 = 32
ex$2 = 40
u$ = 64
v$ = 72
$T3 = 80
w$ = 80
PMCCS_BitwiseOr_X_I PROC				; COMDAT

; 881  :     {

$LN13:
  00000	40 53		 push	 rbx
  00002	48 83 ec 30	 sub	 rsp, 48			; 00000030H
  00006	48 c7 44 24 20
	fe ff ff ff	 mov	 QWORD PTR $T1[rsp], -2
  0000f	49 8b d8	 mov	 rbx, r8

; 882  :         if (w == nullptr)

  00012	4d 85 c0	 test	 r8, r8
  00015	75 0a		 jne	 SHORT $LN2@PMCCS_Bitw

; 883  :             return (PMC_STATUS_ARGUMENT_NULL_ERROR);

  00017	41 8d 40 fe	 lea	 eax, QWORD PTR [r8-2]

; 892  :         }
; 893  :     }

  0001b	48 83 c4 30	 add	 rsp, 48			; 00000030H
  0001f	5b		 pop	 rbx
  00020	c3		 ret	 0
$LN2@PMCCS_Bitw:

; 884  :         try
; 885  :         {
; 886  :             *w = PMC_BitwiseOr_X_I(u, v);

  00021	e8 00 00 00 00	 call	 ?PMC_BitwiseOr_X_I@Internal@Core@Math@Palmtree@@YAPEAU__tag_PMC_HANDLE_UINT@1234@PEAU51234@I@Z ; Palmtree::Math::Core::Internal::PMC_BitwiseOr_X_I
  00026	48 89 03	 mov	 QWORD PTR [rbx], rax

; 887  :             return (PMC_STATUS_OK);

  00029	33 c0		 xor	 eax, eax
  0002b	eb 04		 jmp	 SHORT $LN7@PMCCS_Bitw
$LN8@PMCCS_Bitw:

; 888  :         }
; 889  :         catch (const Palmtree::Math::Core::Internal::Exception& ex)
; 890  :         {
; 891  :             return (ex.GetStatusCode());

  0002d	8b 44 24 50	 mov	 eax, DWORD PTR $T3[rsp]
$LN7@PMCCS_Bitw:

; 892  :         }
; 893  :     }

  00031	48 83 c4 30	 add	 rsp, 48			; 00000030H
  00035	5b		 pop	 rbx
  00036	c3		 ret	 0
  00037	cc		 int	 3
PMCCS_BitwiseOr_X_I ENDP
_TEXT	ENDS
;	COMDAT text$x
text$x	SEGMENT
$T1 = 32
ex$2 = 40
u$ = 64
v$ = 72
$T3 = 80
w$ = 80
PMCCS_BitwiseOr_X_I$catch$0 PROC

; 888  :         }
; 889  :         catch (const Palmtree::Math::Core::Internal::Exception& ex)
; 890  :         {

  00000	48 89 54 24 10	 mov	 QWORD PTR [rsp+16], rdx
  00005	55		 push	 rbp
  00006	48 83 ec 20	 sub	 rsp, 32			; 00000020H
  0000a	48 8b ea	 mov	 rbp, rdx
__catch$PMCCS_BitwiseOr_X_I$0:
; File z:\sources\lunor\repos\rougemeilland\palmtree.math.core.uint\palmtree.math.core.uint\pmc_exception.h

; 75   :             return (_code);

  0000d	48 8b 45 28	 mov	 rax, QWORD PTR ex$2[rbp]
  00011	8b 48 18	 mov	 ecx, DWORD PTR [rax+24]
  00014	89 4d 50	 mov	 DWORD PTR $T3[rbp], ecx
; File z:\sources\lunor\repos\rougemeilland\palmtree.math.core.uint\palmtree.math.core.uint\pmc_interface_csharp.cpp

; 888  :         }
; 889  :         catch (const Palmtree::Math::Core::Internal::Exception& ex)
; 890  :         {
; 891  :             return (ex.GetStatusCode());

  00017	48 8d 05 00 00
	00 00		 lea	 rax, $LN8@PMCCS_Bitw
  0001e	48 83 c4 20	 add	 rsp, 32			; 00000020H
  00022	5d		 pop	 rbp
  00023	c3		 ret	 0
  00024	cc		 int	 3
PMCCS_BitwiseOr_X_I$catch$0 ENDP
text$x	ENDS
; Function compile flags: /Ogtpy
; File z:\sources\lunor\repos\rougemeilland\palmtree.math.core.uint\palmtree.math.core.uint\pmc_exception.h
; File z:\sources\lunor\repos\rougemeilland\palmtree.math.core.uint\palmtree.math.core.uint\pmc_interface_csharp.cpp
;	COMDAT text$x
text$x	SEGMENT
$T1 = 32
ex$2 = 40
u$ = 64
v$ = 72
$T3 = 80
w$ = 80
PMCCS_BitwiseOr_X_I$catch$0 PROC

; 890  :         {

  00000	48 89 54 24 10	 mov	 QWORD PTR [rsp+16], rdx
  00005	55		 push	 rbp
  00006	48 83 ec 20	 sub	 rsp, 32			; 00000020H
  0000a	48 8b ea	 mov	 rbp, rdx
__catch$PMCCS_BitwiseOr_X_I$0:
; File z:\sources\lunor\repos\rougemeilland\palmtree.math.core.uint\palmtree.math.core.uint\pmc_exception.h

; 75   :             return (_code);

  0000d	48 8b 45 28	 mov	 rax, QWORD PTR ex$2[rbp]
  00011	8b 48 18	 mov	 ecx, DWORD PTR [rax+24]
  00014	89 4d 50	 mov	 DWORD PTR $T3[rbp], ecx
; File z:\sources\lunor\repos\rougemeilland\palmtree.math.core.uint\palmtree.math.core.uint\pmc_interface_csharp.cpp

; 891  :             return (ex.GetStatusCode());

  00017	48 8d 05 00 00
	00 00		 lea	 rax, $LN8@PMCCS_Bitw
  0001e	48 83 c4 20	 add	 rsp, 32			; 00000020H
  00022	5d		 pop	 rbp
  00023	c3		 ret	 0
  00024	cc		 int	 3
PMCCS_BitwiseOr_X_I$catch$0 ENDP
text$x	ENDS
; Function compile flags: /Ogtpy
; File z:\sources\lunor\repos\rougemeilland\palmtree.math.core.uint\palmtree.math.core.uint\pmc_interface_csharp.cpp
;	COMDAT PMCCS_BitwiseOr_L_X
_TEXT	SEGMENT
$T1 = 32
ex$2 = 40
u$ = 64
v$ = 72
$T3 = 80
w$ = 80
PMCCS_BitwiseOr_L_X PROC				; COMDAT

; 866  :     {

$LN13:
  00000	40 53		 push	 rbx
  00002	48 83 ec 30	 sub	 rsp, 48			; 00000030H
  00006	48 c7 44 24 20
	fe ff ff ff	 mov	 QWORD PTR $T1[rsp], -2
  0000f	49 8b d8	 mov	 rbx, r8

; 867  :         if (w == nullptr)

  00012	4d 85 c0	 test	 r8, r8
  00015	75 0a		 jne	 SHORT $LN2@PMCCS_Bitw

; 868  :             return (PMC_STATUS_ARGUMENT_NULL_ERROR);

  00017	41 8d 40 fe	 lea	 eax, QWORD PTR [r8-2]

; 877  :         }
; 878  :     }

  0001b	48 83 c4 30	 add	 rsp, 48			; 00000030H
  0001f	5b		 pop	 rbx
  00020	c3		 ret	 0
$LN2@PMCCS_Bitw:

; 869  :         try
; 870  :         {
; 871  :             *w = PMC_BitwiseOr_L_X(u, v);

  00021	e8 00 00 00 00	 call	 ?PMC_BitwiseOr_L_X@Internal@Core@Math@Palmtree@@YAPEAU__tag_PMC_HANDLE_UINT@1234@_KPEAU51234@@Z ; Palmtree::Math::Core::Internal::PMC_BitwiseOr_L_X
  00026	48 89 03	 mov	 QWORD PTR [rbx], rax

; 872  :             return (PMC_STATUS_OK);

  00029	33 c0		 xor	 eax, eax
  0002b	eb 04		 jmp	 SHORT $LN7@PMCCS_Bitw
$LN8@PMCCS_Bitw:

; 873  :         }
; 874  :         catch (const Palmtree::Math::Core::Internal::Exception& ex)
; 875  :         {
; 876  :             return (ex.GetStatusCode());

  0002d	8b 44 24 50	 mov	 eax, DWORD PTR $T3[rsp]
$LN7@PMCCS_Bitw:

; 877  :         }
; 878  :     }

  00031	48 83 c4 30	 add	 rsp, 48			; 00000030H
  00035	5b		 pop	 rbx
  00036	c3		 ret	 0
  00037	cc		 int	 3
PMCCS_BitwiseOr_L_X ENDP
_TEXT	ENDS
;	COMDAT text$x
text$x	SEGMENT
$T1 = 32
ex$2 = 40
u$ = 64
v$ = 72
$T3 = 80
w$ = 80
PMCCS_BitwiseOr_L_X$catch$0 PROC

; 873  :         }
; 874  :         catch (const Palmtree::Math::Core::Internal::Exception& ex)
; 875  :         {

  00000	48 89 54 24 10	 mov	 QWORD PTR [rsp+16], rdx
  00005	55		 push	 rbp
  00006	48 83 ec 20	 sub	 rsp, 32			; 00000020H
  0000a	48 8b ea	 mov	 rbp, rdx
__catch$PMCCS_BitwiseOr_L_X$0:
; File z:\sources\lunor\repos\rougemeilland\palmtree.math.core.uint\palmtree.math.core.uint\pmc_exception.h

; 75   :             return (_code);

  0000d	48 8b 45 28	 mov	 rax, QWORD PTR ex$2[rbp]
  00011	8b 48 18	 mov	 ecx, DWORD PTR [rax+24]
  00014	89 4d 50	 mov	 DWORD PTR $T3[rbp], ecx
; File z:\sources\lunor\repos\rougemeilland\palmtree.math.core.uint\palmtree.math.core.uint\pmc_interface_csharp.cpp

; 873  :         }
; 874  :         catch (const Palmtree::Math::Core::Internal::Exception& ex)
; 875  :         {
; 876  :             return (ex.GetStatusCode());

  00017	48 8d 05 00 00
	00 00		 lea	 rax, $LN8@PMCCS_Bitw
  0001e	48 83 c4 20	 add	 rsp, 32			; 00000020H
  00022	5d		 pop	 rbp
  00023	c3		 ret	 0
  00024	cc		 int	 3
PMCCS_BitwiseOr_L_X$catch$0 ENDP
text$x	ENDS
; Function compile flags: /Ogtpy
; File z:\sources\lunor\repos\rougemeilland\palmtree.math.core.uint\palmtree.math.core.uint\pmc_exception.h
; File z:\sources\lunor\repos\rougemeilland\palmtree.math.core.uint\palmtree.math.core.uint\pmc_interface_csharp.cpp
;	COMDAT text$x
text$x	SEGMENT
$T1 = 32
ex$2 = 40
u$ = 64
v$ = 72
$T3 = 80
w$ = 80
PMCCS_BitwiseOr_L_X$catch$0 PROC

; 875  :         {

  00000	48 89 54 24 10	 mov	 QWORD PTR [rsp+16], rdx
  00005	55		 push	 rbp
  00006	48 83 ec 20	 sub	 rsp, 32			; 00000020H
  0000a	48 8b ea	 mov	 rbp, rdx
__catch$PMCCS_BitwiseOr_L_X$0:
; File z:\sources\lunor\repos\rougemeilland\palmtree.math.core.uint\palmtree.math.core.uint\pmc_exception.h

; 75   :             return (_code);

  0000d	48 8b 45 28	 mov	 rax, QWORD PTR ex$2[rbp]
  00011	8b 48 18	 mov	 ecx, DWORD PTR [rax+24]
  00014	89 4d 50	 mov	 DWORD PTR $T3[rbp], ecx
; File z:\sources\lunor\repos\rougemeilland\palmtree.math.core.uint\palmtree.math.core.uint\pmc_interface_csharp.cpp

; 876  :             return (ex.GetStatusCode());

  00017	48 8d 05 00 00
	00 00		 lea	 rax, $LN8@PMCCS_Bitw
  0001e	48 83 c4 20	 add	 rsp, 32			; 00000020H
  00022	5d		 pop	 rbp
  00023	c3		 ret	 0
  00024	cc		 int	 3
PMCCS_BitwiseOr_L_X$catch$0 ENDP
text$x	ENDS
; Function compile flags: /Ogtpy
; File z:\sources\lunor\repos\rougemeilland\palmtree.math.core.uint\palmtree.math.core.uint\pmc_interface_csharp.cpp
;	COMDAT PMCCS_BitwiseOr_I_X
_TEXT	SEGMENT
$T1 = 32
ex$2 = 40
u$ = 64
v$ = 72
$T3 = 80
w$ = 80
PMCCS_BitwiseOr_I_X PROC				; COMDAT

; 851  :     {

$LN13:
  00000	40 53		 push	 rbx
  00002	48 83 ec 30	 sub	 rsp, 48			; 00000030H
  00006	48 c7 44 24 20
	fe ff ff ff	 mov	 QWORD PTR $T1[rsp], -2
  0000f	49 8b d8	 mov	 rbx, r8

; 852  :         if (w == nullptr)

  00012	4d 85 c0	 test	 r8, r8
  00015	75 0a		 jne	 SHORT $LN2@PMCCS_Bitw

; 853  :             return (PMC_STATUS_ARGUMENT_NULL_ERROR);

  00017	41 8d 40 fe	 lea	 eax, QWORD PTR [r8-2]

; 862  :         }
; 863  :     }

  0001b	48 83 c4 30	 add	 rsp, 48			; 00000030H
  0001f	5b		 pop	 rbx
  00020	c3		 ret	 0
$LN2@PMCCS_Bitw:

; 854  :         try
; 855  :         {
; 856  :             *w = PMC_BitwiseOr_I_X(u, v);

  00021	e8 00 00 00 00	 call	 ?PMC_BitwiseOr_I_X@Internal@Core@Math@Palmtree@@YAPEAU__tag_PMC_HANDLE_UINT@1234@IPEAU51234@@Z ; Palmtree::Math::Core::Internal::PMC_BitwiseOr_I_X
  00026	48 89 03	 mov	 QWORD PTR [rbx], rax

; 857  :             return (PMC_STATUS_OK);

  00029	33 c0		 xor	 eax, eax
  0002b	eb 04		 jmp	 SHORT $LN7@PMCCS_Bitw
$LN8@PMCCS_Bitw:

; 858  :         }
; 859  :         catch (const Palmtree::Math::Core::Internal::Exception& ex)
; 860  :         {
; 861  :             return (ex.GetStatusCode());

  0002d	8b 44 24 50	 mov	 eax, DWORD PTR $T3[rsp]
$LN7@PMCCS_Bitw:

; 862  :         }
; 863  :     }

  00031	48 83 c4 30	 add	 rsp, 48			; 00000030H
  00035	5b		 pop	 rbx
  00036	c3		 ret	 0
  00037	cc		 int	 3
PMCCS_BitwiseOr_I_X ENDP
_TEXT	ENDS
;	COMDAT text$x
text$x	SEGMENT
$T1 = 32
ex$2 = 40
u$ = 64
v$ = 72
$T3 = 80
w$ = 80
PMCCS_BitwiseOr_I_X$catch$0 PROC

; 858  :         }
; 859  :         catch (const Palmtree::Math::Core::Internal::Exception& ex)
; 860  :         {

  00000	48 89 54 24 10	 mov	 QWORD PTR [rsp+16], rdx
  00005	55		 push	 rbp
  00006	48 83 ec 20	 sub	 rsp, 32			; 00000020H
  0000a	48 8b ea	 mov	 rbp, rdx
__catch$PMCCS_BitwiseOr_I_X$0:
; File z:\sources\lunor\repos\rougemeilland\palmtree.math.core.uint\palmtree.math.core.uint\pmc_exception.h

; 75   :             return (_code);

  0000d	48 8b 45 28	 mov	 rax, QWORD PTR ex$2[rbp]
  00011	8b 48 18	 mov	 ecx, DWORD PTR [rax+24]
  00014	89 4d 50	 mov	 DWORD PTR $T3[rbp], ecx
; File z:\sources\lunor\repos\rougemeilland\palmtree.math.core.uint\palmtree.math.core.uint\pmc_interface_csharp.cpp

; 858  :         }
; 859  :         catch (const Palmtree::Math::Core::Internal::Exception& ex)
; 860  :         {
; 861  :             return (ex.GetStatusCode());

  00017	48 8d 05 00 00
	00 00		 lea	 rax, $LN8@PMCCS_Bitw
  0001e	48 83 c4 20	 add	 rsp, 32			; 00000020H
  00022	5d		 pop	 rbp
  00023	c3		 ret	 0
  00024	cc		 int	 3
PMCCS_BitwiseOr_I_X$catch$0 ENDP
text$x	ENDS
; Function compile flags: /Ogtpy
; File z:\sources\lunor\repos\rougemeilland\palmtree.math.core.uint\palmtree.math.core.uint\pmc_exception.h
; File z:\sources\lunor\repos\rougemeilland\palmtree.math.core.uint\palmtree.math.core.uint\pmc_interface_csharp.cpp
;	COMDAT text$x
text$x	SEGMENT
$T1 = 32
ex$2 = 40
u$ = 64
v$ = 72
$T3 = 80
w$ = 80
PMCCS_BitwiseOr_I_X$catch$0 PROC

; 860  :         {

  00000	48 89 54 24 10	 mov	 QWORD PTR [rsp+16], rdx
  00005	55		 push	 rbp
  00006	48 83 ec 20	 sub	 rsp, 32			; 00000020H
  0000a	48 8b ea	 mov	 rbp, rdx
__catch$PMCCS_BitwiseOr_I_X$0:
; File z:\sources\lunor\repos\rougemeilland\palmtree.math.core.uint\palmtree.math.core.uint\pmc_exception.h

; 75   :             return (_code);

  0000d	48 8b 45 28	 mov	 rax, QWORD PTR ex$2[rbp]
  00011	8b 48 18	 mov	 ecx, DWORD PTR [rax+24]
  00014	89 4d 50	 mov	 DWORD PTR $T3[rbp], ecx
; File z:\sources\lunor\repos\rougemeilland\palmtree.math.core.uint\palmtree.math.core.uint\pmc_interface_csharp.cpp

; 861  :             return (ex.GetStatusCode());

  00017	48 8d 05 00 00
	00 00		 lea	 rax, $LN8@PMCCS_Bitw
  0001e	48 83 c4 20	 add	 rsp, 32			; 00000020H
  00022	5d		 pop	 rbp
  00023	c3		 ret	 0
  00024	cc		 int	 3
PMCCS_BitwiseOr_I_X$catch$0 ENDP
text$x	ENDS
; Function compile flags: /Ogtpy
; File z:\sources\lunor\repos\rougemeilland\palmtree.math.core.uint\palmtree.math.core.uint\pmc_interface_csharp.cpp
;	COMDAT PMCCS_BitwiseAnd_X_X
_TEXT	SEGMENT
$T1 = 32
ex$2 = 40
u$ = 64
v$ = 72
$T3 = 80
w$ = 80
PMCCS_BitwiseAnd_X_X PROC				; COMDAT

; 836  :     {

$LN13:
  00000	40 53		 push	 rbx
  00002	48 83 ec 30	 sub	 rsp, 48			; 00000030H
  00006	48 c7 44 24 20
	fe ff ff ff	 mov	 QWORD PTR $T1[rsp], -2
  0000f	49 8b d8	 mov	 rbx, r8

; 837  :         if (w == nullptr)

  00012	4d 85 c0	 test	 r8, r8
  00015	75 0a		 jne	 SHORT $LN2@PMCCS_Bitw

; 838  :             return (PMC_STATUS_ARGUMENT_NULL_ERROR);

  00017	41 8d 40 fe	 lea	 eax, QWORD PTR [r8-2]

; 847  :         }
; 848  :     }

  0001b	48 83 c4 30	 add	 rsp, 48			; 00000030H
  0001f	5b		 pop	 rbx
  00020	c3		 ret	 0
$LN2@PMCCS_Bitw:

; 839  :         try
; 840  :         {
; 841  :             *w = PMC_BitwiseAnd_X_X(u, v);

  00021	e8 00 00 00 00	 call	 ?PMC_BitwiseAnd_X_X@Internal@Core@Math@Palmtree@@YAPEAU__tag_PMC_HANDLE_UINT@1234@PEAU51234@0@Z ; Palmtree::Math::Core::Internal::PMC_BitwiseAnd_X_X
  00026	48 89 03	 mov	 QWORD PTR [rbx], rax

; 842  :             return (PMC_STATUS_OK);

  00029	33 c0		 xor	 eax, eax
  0002b	eb 04		 jmp	 SHORT $LN7@PMCCS_Bitw
$LN8@PMCCS_Bitw:

; 843  :         }
; 844  :         catch (const Palmtree::Math::Core::Internal::Exception& ex)
; 845  :         {
; 846  :             return (ex.GetStatusCode());

  0002d	8b 44 24 50	 mov	 eax, DWORD PTR $T3[rsp]
$LN7@PMCCS_Bitw:

; 847  :         }
; 848  :     }

  00031	48 83 c4 30	 add	 rsp, 48			; 00000030H
  00035	5b		 pop	 rbx
  00036	c3		 ret	 0
  00037	cc		 int	 3
PMCCS_BitwiseAnd_X_X ENDP
_TEXT	ENDS
;	COMDAT text$x
text$x	SEGMENT
$T1 = 32
ex$2 = 40
u$ = 64
v$ = 72
$T3 = 80
w$ = 80
PMCCS_BitwiseAnd_X_X$catch$0 PROC

; 843  :         }
; 844  :         catch (const Palmtree::Math::Core::Internal::Exception& ex)
; 845  :         {

  00000	48 89 54 24 10	 mov	 QWORD PTR [rsp+16], rdx
  00005	55		 push	 rbp
  00006	48 83 ec 20	 sub	 rsp, 32			; 00000020H
  0000a	48 8b ea	 mov	 rbp, rdx
__catch$PMCCS_BitwiseAnd_X_X$0:
; File z:\sources\lunor\repos\rougemeilland\palmtree.math.core.uint\palmtree.math.core.uint\pmc_exception.h

; 75   :             return (_code);

  0000d	48 8b 45 28	 mov	 rax, QWORD PTR ex$2[rbp]
  00011	8b 48 18	 mov	 ecx, DWORD PTR [rax+24]
  00014	89 4d 50	 mov	 DWORD PTR $T3[rbp], ecx
; File z:\sources\lunor\repos\rougemeilland\palmtree.math.core.uint\palmtree.math.core.uint\pmc_interface_csharp.cpp

; 843  :         }
; 844  :         catch (const Palmtree::Math::Core::Internal::Exception& ex)
; 845  :         {
; 846  :             return (ex.GetStatusCode());

  00017	48 8d 05 00 00
	00 00		 lea	 rax, $LN8@PMCCS_Bitw
  0001e	48 83 c4 20	 add	 rsp, 32			; 00000020H
  00022	5d		 pop	 rbp
  00023	c3		 ret	 0
  00024	cc		 int	 3
PMCCS_BitwiseAnd_X_X$catch$0 ENDP
text$x	ENDS
; Function compile flags: /Ogtpy
; File z:\sources\lunor\repos\rougemeilland\palmtree.math.core.uint\palmtree.math.core.uint\pmc_exception.h
; File z:\sources\lunor\repos\rougemeilland\palmtree.math.core.uint\palmtree.math.core.uint\pmc_interface_csharp.cpp
;	COMDAT text$x
text$x	SEGMENT
$T1 = 32
ex$2 = 40
u$ = 64
v$ = 72
$T3 = 80
w$ = 80
PMCCS_BitwiseAnd_X_X$catch$0 PROC

; 845  :         {

  00000	48 89 54 24 10	 mov	 QWORD PTR [rsp+16], rdx
  00005	55		 push	 rbp
  00006	48 83 ec 20	 sub	 rsp, 32			; 00000020H
  0000a	48 8b ea	 mov	 rbp, rdx
__catch$PMCCS_BitwiseAnd_X_X$0:
; File z:\sources\lunor\repos\rougemeilland\palmtree.math.core.uint\palmtree.math.core.uint\pmc_exception.h

; 75   :             return (_code);

  0000d	48 8b 45 28	 mov	 rax, QWORD PTR ex$2[rbp]
  00011	8b 48 18	 mov	 ecx, DWORD PTR [rax+24]
  00014	89 4d 50	 mov	 DWORD PTR $T3[rbp], ecx
; File z:\sources\lunor\repos\rougemeilland\palmtree.math.core.uint\palmtree.math.core.uint\pmc_interface_csharp.cpp

; 846  :             return (ex.GetStatusCode());

  00017	48 8d 05 00 00
	00 00		 lea	 rax, $LN8@PMCCS_Bitw
  0001e	48 83 c4 20	 add	 rsp, 32			; 00000020H
  00022	5d		 pop	 rbp
  00023	c3		 ret	 0
  00024	cc		 int	 3
PMCCS_BitwiseAnd_X_X$catch$0 ENDP
text$x	ENDS
; Function compile flags: /Ogtpy
; File z:\sources\lunor\repos\rougemeilland\palmtree.math.core.uint\palmtree.math.core.uint\pmc_interface_csharp.cpp
;	COMDAT PMCCS_BitwiseAnd_X_L
_TEXT	SEGMENT
$T1 = 32
ex$2 = 40
u$ = 64
v$ = 72
$T3 = 80
w$ = 80
PMCCS_BitwiseAnd_X_L PROC				; COMDAT

; 821  :     {

$LN13:
  00000	40 53		 push	 rbx
  00002	48 83 ec 30	 sub	 rsp, 48			; 00000030H
  00006	48 c7 44 24 20
	fe ff ff ff	 mov	 QWORD PTR $T1[rsp], -2
  0000f	49 8b d8	 mov	 rbx, r8

; 822  :         if (w == nullptr)

  00012	4d 85 c0	 test	 r8, r8
  00015	75 0a		 jne	 SHORT $LN2@PMCCS_Bitw

; 823  :             return (PMC_STATUS_ARGUMENT_NULL_ERROR);

  00017	41 8d 40 fe	 lea	 eax, QWORD PTR [r8-2]

; 832  :         }
; 833  :     }

  0001b	48 83 c4 30	 add	 rsp, 48			; 00000030H
  0001f	5b		 pop	 rbx
  00020	c3		 ret	 0
$LN2@PMCCS_Bitw:

; 824  :         try
; 825  :         {
; 826  :             *w = PMC_BitwiseAnd_X_L(u, v);

  00021	e8 00 00 00 00	 call	 ?PMC_BitwiseAnd_X_L@Internal@Core@Math@Palmtree@@YA_KPEAU__tag_PMC_HANDLE_UINT@1234@_K@Z ; Palmtree::Math::Core::Internal::PMC_BitwiseAnd_X_L
  00026	48 89 03	 mov	 QWORD PTR [rbx], rax

; 827  :             return (PMC_STATUS_OK);

  00029	33 c0		 xor	 eax, eax
  0002b	eb 04		 jmp	 SHORT $LN7@PMCCS_Bitw
$LN8@PMCCS_Bitw:

; 828  :         }
; 829  :         catch (const Palmtree::Math::Core::Internal::Exception& ex)
; 830  :         {
; 831  :             return (ex.GetStatusCode());

  0002d	8b 44 24 50	 mov	 eax, DWORD PTR $T3[rsp]
$LN7@PMCCS_Bitw:

; 832  :         }
; 833  :     }

  00031	48 83 c4 30	 add	 rsp, 48			; 00000030H
  00035	5b		 pop	 rbx
  00036	c3		 ret	 0
  00037	cc		 int	 3
PMCCS_BitwiseAnd_X_L ENDP
_TEXT	ENDS
;	COMDAT text$x
text$x	SEGMENT
$T1 = 32
ex$2 = 40
u$ = 64
v$ = 72
$T3 = 80
w$ = 80
PMCCS_BitwiseAnd_X_L$catch$0 PROC

; 828  :         }
; 829  :         catch (const Palmtree::Math::Core::Internal::Exception& ex)
; 830  :         {

  00000	48 89 54 24 10	 mov	 QWORD PTR [rsp+16], rdx
  00005	55		 push	 rbp
  00006	48 83 ec 20	 sub	 rsp, 32			; 00000020H
  0000a	48 8b ea	 mov	 rbp, rdx
__catch$PMCCS_BitwiseAnd_X_L$0:
; File z:\sources\lunor\repos\rougemeilland\palmtree.math.core.uint\palmtree.math.core.uint\pmc_exception.h

; 75   :             return (_code);

  0000d	48 8b 45 28	 mov	 rax, QWORD PTR ex$2[rbp]
  00011	8b 48 18	 mov	 ecx, DWORD PTR [rax+24]
  00014	89 4d 50	 mov	 DWORD PTR $T3[rbp], ecx
; File z:\sources\lunor\repos\rougemeilland\palmtree.math.core.uint\palmtree.math.core.uint\pmc_interface_csharp.cpp

; 828  :         }
; 829  :         catch (const Palmtree::Math::Core::Internal::Exception& ex)
; 830  :         {
; 831  :             return (ex.GetStatusCode());

  00017	48 8d 05 00 00
	00 00		 lea	 rax, $LN8@PMCCS_Bitw
  0001e	48 83 c4 20	 add	 rsp, 32			; 00000020H
  00022	5d		 pop	 rbp
  00023	c3		 ret	 0
  00024	cc		 int	 3
PMCCS_BitwiseAnd_X_L$catch$0 ENDP
text$x	ENDS
; Function compile flags: /Ogtpy
; File z:\sources\lunor\repos\rougemeilland\palmtree.math.core.uint\palmtree.math.core.uint\pmc_exception.h
; File z:\sources\lunor\repos\rougemeilland\palmtree.math.core.uint\palmtree.math.core.uint\pmc_interface_csharp.cpp
;	COMDAT text$x
text$x	SEGMENT
$T1 = 32
ex$2 = 40
u$ = 64
v$ = 72
$T3 = 80
w$ = 80
PMCCS_BitwiseAnd_X_L$catch$0 PROC

; 830  :         {

  00000	48 89 54 24 10	 mov	 QWORD PTR [rsp+16], rdx
  00005	55		 push	 rbp
  00006	48 83 ec 20	 sub	 rsp, 32			; 00000020H
  0000a	48 8b ea	 mov	 rbp, rdx
__catch$PMCCS_BitwiseAnd_X_L$0:
; File z:\sources\lunor\repos\rougemeilland\palmtree.math.core.uint\palmtree.math.core.uint\pmc_exception.h

; 75   :             return (_code);

  0000d	48 8b 45 28	 mov	 rax, QWORD PTR ex$2[rbp]
  00011	8b 48 18	 mov	 ecx, DWORD PTR [rax+24]
  00014	89 4d 50	 mov	 DWORD PTR $T3[rbp], ecx
; File z:\sources\lunor\repos\rougemeilland\palmtree.math.core.uint\palmtree.math.core.uint\pmc_interface_csharp.cpp

; 831  :             return (ex.GetStatusCode());

  00017	48 8d 05 00 00
	00 00		 lea	 rax, $LN8@PMCCS_Bitw
  0001e	48 83 c4 20	 add	 rsp, 32			; 00000020H
  00022	5d		 pop	 rbp
  00023	c3		 ret	 0
  00024	cc		 int	 3
PMCCS_BitwiseAnd_X_L$catch$0 ENDP
text$x	ENDS
; Function compile flags: /Ogtpy
; File z:\sources\lunor\repos\rougemeilland\palmtree.math.core.uint\palmtree.math.core.uint\pmc_interface_csharp.cpp
;	COMDAT PMCCS_BitwiseAnd_X_I
_TEXT	SEGMENT
$T1 = 32
ex$2 = 40
u$ = 64
v$ = 72
$T3 = 80
w$ = 80
PMCCS_BitwiseAnd_X_I PROC				; COMDAT

; 806  :     {

$LN13:
  00000	40 53		 push	 rbx
  00002	48 83 ec 30	 sub	 rsp, 48			; 00000030H
  00006	48 c7 44 24 20
	fe ff ff ff	 mov	 QWORD PTR $T1[rsp], -2
  0000f	49 8b d8	 mov	 rbx, r8

; 807  :         if (w == nullptr)

  00012	4d 85 c0	 test	 r8, r8
  00015	75 0a		 jne	 SHORT $LN2@PMCCS_Bitw

; 808  :             return (PMC_STATUS_ARGUMENT_NULL_ERROR);

  00017	41 8d 40 fe	 lea	 eax, QWORD PTR [r8-2]

; 817  :         }
; 818  :     }

  0001b	48 83 c4 30	 add	 rsp, 48			; 00000030H
  0001f	5b		 pop	 rbx
  00020	c3		 ret	 0
$LN2@PMCCS_Bitw:

; 809  :         try
; 810  :         {
; 811  :             *w = PMC_BitwiseAnd_X_I(u, v);

  00021	e8 00 00 00 00	 call	 ?PMC_BitwiseAnd_X_I@Internal@Core@Math@Palmtree@@YAIPEAU__tag_PMC_HANDLE_UINT@1234@I@Z ; Palmtree::Math::Core::Internal::PMC_BitwiseAnd_X_I
  00026	89 03		 mov	 DWORD PTR [rbx], eax

; 812  :             return (PMC_STATUS_OK);

  00028	33 c0		 xor	 eax, eax
  0002a	eb 04		 jmp	 SHORT $LN7@PMCCS_Bitw
$LN8@PMCCS_Bitw:

; 813  :         }
; 814  :         catch (const Palmtree::Math::Core::Internal::Exception& ex)
; 815  :         {
; 816  :             return (ex.GetStatusCode());

  0002c	8b 44 24 50	 mov	 eax, DWORD PTR $T3[rsp]
$LN7@PMCCS_Bitw:

; 817  :         }
; 818  :     }

  00030	48 83 c4 30	 add	 rsp, 48			; 00000030H
  00034	5b		 pop	 rbx
  00035	c3		 ret	 0
  00036	cc		 int	 3
PMCCS_BitwiseAnd_X_I ENDP
_TEXT	ENDS
;	COMDAT text$x
text$x	SEGMENT
$T1 = 32
ex$2 = 40
u$ = 64
v$ = 72
$T3 = 80
w$ = 80
PMCCS_BitwiseAnd_X_I$catch$0 PROC

; 813  :         }
; 814  :         catch (const Palmtree::Math::Core::Internal::Exception& ex)
; 815  :         {

  00000	48 89 54 24 10	 mov	 QWORD PTR [rsp+16], rdx
  00005	55		 push	 rbp
  00006	48 83 ec 20	 sub	 rsp, 32			; 00000020H
  0000a	48 8b ea	 mov	 rbp, rdx
__catch$PMCCS_BitwiseAnd_X_I$0:
; File z:\sources\lunor\repos\rougemeilland\palmtree.math.core.uint\palmtree.math.core.uint\pmc_exception.h

; 75   :             return (_code);

  0000d	48 8b 45 28	 mov	 rax, QWORD PTR ex$2[rbp]
  00011	8b 48 18	 mov	 ecx, DWORD PTR [rax+24]
  00014	89 4d 50	 mov	 DWORD PTR $T3[rbp], ecx
; File z:\sources\lunor\repos\rougemeilland\palmtree.math.core.uint\palmtree.math.core.uint\pmc_interface_csharp.cpp

; 813  :         }
; 814  :         catch (const Palmtree::Math::Core::Internal::Exception& ex)
; 815  :         {
; 816  :             return (ex.GetStatusCode());

  00017	48 8d 05 00 00
	00 00		 lea	 rax, $LN8@PMCCS_Bitw
  0001e	48 83 c4 20	 add	 rsp, 32			; 00000020H
  00022	5d		 pop	 rbp
  00023	c3		 ret	 0
  00024	cc		 int	 3
PMCCS_BitwiseAnd_X_I$catch$0 ENDP
text$x	ENDS
; Function compile flags: /Ogtpy
; File z:\sources\lunor\repos\rougemeilland\palmtree.math.core.uint\palmtree.math.core.uint\pmc_exception.h
; File z:\sources\lunor\repos\rougemeilland\palmtree.math.core.uint\palmtree.math.core.uint\pmc_interface_csharp.cpp
;	COMDAT text$x
text$x	SEGMENT
$T1 = 32
ex$2 = 40
u$ = 64
v$ = 72
$T3 = 80
w$ = 80
PMCCS_BitwiseAnd_X_I$catch$0 PROC

; 815  :         {

  00000	48 89 54 24 10	 mov	 QWORD PTR [rsp+16], rdx
  00005	55		 push	 rbp
  00006	48 83 ec 20	 sub	 rsp, 32			; 00000020H
  0000a	48 8b ea	 mov	 rbp, rdx
__catch$PMCCS_BitwiseAnd_X_I$0:
; File z:\sources\lunor\repos\rougemeilland\palmtree.math.core.uint\palmtree.math.core.uint\pmc_exception.h

; 75   :             return (_code);

  0000d	48 8b 45 28	 mov	 rax, QWORD PTR ex$2[rbp]
  00011	8b 48 18	 mov	 ecx, DWORD PTR [rax+24]
  00014	89 4d 50	 mov	 DWORD PTR $T3[rbp], ecx
; File z:\sources\lunor\repos\rougemeilland\palmtree.math.core.uint\palmtree.math.core.uint\pmc_interface_csharp.cpp

; 816  :             return (ex.GetStatusCode());

  00017	48 8d 05 00 00
	00 00		 lea	 rax, $LN8@PMCCS_Bitw
  0001e	48 83 c4 20	 add	 rsp, 32			; 00000020H
  00022	5d		 pop	 rbp
  00023	c3		 ret	 0
  00024	cc		 int	 3
PMCCS_BitwiseAnd_X_I$catch$0 ENDP
text$x	ENDS
; Function compile flags: /Ogtpy
; File z:\sources\lunor\repos\rougemeilland\palmtree.math.core.uint\palmtree.math.core.uint\pmc_interface_csharp.cpp
;	COMDAT PMCCS_BitwiseAnd_L_X
_TEXT	SEGMENT
$T1 = 32
ex$2 = 40
u$ = 64
v$ = 72
$T3 = 80
w$ = 80
PMCCS_BitwiseAnd_L_X PROC				; COMDAT

; 791  :     {

$LN13:
  00000	40 53		 push	 rbx
  00002	48 83 ec 30	 sub	 rsp, 48			; 00000030H
  00006	48 c7 44 24 20
	fe ff ff ff	 mov	 QWORD PTR $T1[rsp], -2
  0000f	49 8b d8	 mov	 rbx, r8

; 792  :         if (w == nullptr)

  00012	4d 85 c0	 test	 r8, r8
  00015	75 0a		 jne	 SHORT $LN2@PMCCS_Bitw

; 793  :             return (PMC_STATUS_ARGUMENT_NULL_ERROR);

  00017	41 8d 40 fe	 lea	 eax, QWORD PTR [r8-2]

; 802  :         }
; 803  :     }

  0001b	48 83 c4 30	 add	 rsp, 48			; 00000030H
  0001f	5b		 pop	 rbx
  00020	c3		 ret	 0
$LN2@PMCCS_Bitw:

; 794  :         try
; 795  :         {
; 796  :             *w = PMC_BitwiseAnd_L_X(u, v);

  00021	e8 00 00 00 00	 call	 ?PMC_BitwiseAnd_L_X@Internal@Core@Math@Palmtree@@YA_K_KPEAU__tag_PMC_HANDLE_UINT@1234@@Z ; Palmtree::Math::Core::Internal::PMC_BitwiseAnd_L_X
  00026	48 89 03	 mov	 QWORD PTR [rbx], rax

; 797  :             return (PMC_STATUS_OK);

  00029	33 c0		 xor	 eax, eax
  0002b	eb 04		 jmp	 SHORT $LN7@PMCCS_Bitw
$LN8@PMCCS_Bitw:

; 798  :         }
; 799  :         catch (const Palmtree::Math::Core::Internal::Exception& ex)
; 800  :         {
; 801  :             return (ex.GetStatusCode());

  0002d	8b 44 24 50	 mov	 eax, DWORD PTR $T3[rsp]
$LN7@PMCCS_Bitw:

; 802  :         }
; 803  :     }

  00031	48 83 c4 30	 add	 rsp, 48			; 00000030H
  00035	5b		 pop	 rbx
  00036	c3		 ret	 0
  00037	cc		 int	 3
PMCCS_BitwiseAnd_L_X ENDP
_TEXT	ENDS
;	COMDAT text$x
text$x	SEGMENT
$T1 = 32
ex$2 = 40
u$ = 64
v$ = 72
$T3 = 80
w$ = 80
PMCCS_BitwiseAnd_L_X$catch$0 PROC

; 798  :         }
; 799  :         catch (const Palmtree::Math::Core::Internal::Exception& ex)
; 800  :         {

  00000	48 89 54 24 10	 mov	 QWORD PTR [rsp+16], rdx
  00005	55		 push	 rbp
  00006	48 83 ec 20	 sub	 rsp, 32			; 00000020H
  0000a	48 8b ea	 mov	 rbp, rdx
__catch$PMCCS_BitwiseAnd_L_X$0:
; File z:\sources\lunor\repos\rougemeilland\palmtree.math.core.uint\palmtree.math.core.uint\pmc_exception.h

; 75   :             return (_code);

  0000d	48 8b 45 28	 mov	 rax, QWORD PTR ex$2[rbp]
  00011	8b 48 18	 mov	 ecx, DWORD PTR [rax+24]
  00014	89 4d 50	 mov	 DWORD PTR $T3[rbp], ecx
; File z:\sources\lunor\repos\rougemeilland\palmtree.math.core.uint\palmtree.math.core.uint\pmc_interface_csharp.cpp

; 798  :         }
; 799  :         catch (const Palmtree::Math::Core::Internal::Exception& ex)
; 800  :         {
; 801  :             return (ex.GetStatusCode());

  00017	48 8d 05 00 00
	00 00		 lea	 rax, $LN8@PMCCS_Bitw
  0001e	48 83 c4 20	 add	 rsp, 32			; 00000020H
  00022	5d		 pop	 rbp
  00023	c3		 ret	 0
  00024	cc		 int	 3
PMCCS_BitwiseAnd_L_X$catch$0 ENDP
text$x	ENDS
; Function compile flags: /Ogtpy
; File z:\sources\lunor\repos\rougemeilland\palmtree.math.core.uint\palmtree.math.core.uint\pmc_exception.h
; File z:\sources\lunor\repos\rougemeilland\palmtree.math.core.uint\palmtree.math.core.uint\pmc_interface_csharp.cpp
;	COMDAT text$x
text$x	SEGMENT
$T1 = 32
ex$2 = 40
u$ = 64
v$ = 72
$T3 = 80
w$ = 80
PMCCS_BitwiseAnd_L_X$catch$0 PROC

; 800  :         {

  00000	48 89 54 24 10	 mov	 QWORD PTR [rsp+16], rdx
  00005	55		 push	 rbp
  00006	48 83 ec 20	 sub	 rsp, 32			; 00000020H
  0000a	48 8b ea	 mov	 rbp, rdx
__catch$PMCCS_BitwiseAnd_L_X$0:
; File z:\sources\lunor\repos\rougemeilland\palmtree.math.core.uint\palmtree.math.core.uint\pmc_exception.h

; 75   :             return (_code);

  0000d	48 8b 45 28	 mov	 rax, QWORD PTR ex$2[rbp]
  00011	8b 48 18	 mov	 ecx, DWORD PTR [rax+24]
  00014	89 4d 50	 mov	 DWORD PTR $T3[rbp], ecx
; File z:\sources\lunor\repos\rougemeilland\palmtree.math.core.uint\palmtree.math.core.uint\pmc_interface_csharp.cpp

; 801  :             return (ex.GetStatusCode());

  00017	48 8d 05 00 00
	00 00		 lea	 rax, $LN8@PMCCS_Bitw
  0001e	48 83 c4 20	 add	 rsp, 32			; 00000020H
  00022	5d		 pop	 rbp
  00023	c3		 ret	 0
  00024	cc		 int	 3
PMCCS_BitwiseAnd_L_X$catch$0 ENDP
text$x	ENDS
; Function compile flags: /Ogtpy
; File z:\sources\lunor\repos\rougemeilland\palmtree.math.core.uint\palmtree.math.core.uint\pmc_interface_csharp.cpp
;	COMDAT PMCCS_BitwiseAnd_I_X
_TEXT	SEGMENT
$T1 = 32
ex$2 = 40
u$ = 64
v$ = 72
$T3 = 80
w$ = 80
PMCCS_BitwiseAnd_I_X PROC				; COMDAT

; 776  :     {

$LN13:
  00000	40 53		 push	 rbx
  00002	48 83 ec 30	 sub	 rsp, 48			; 00000030H
  00006	48 c7 44 24 20
	fe ff ff ff	 mov	 QWORD PTR $T1[rsp], -2
  0000f	49 8b d8	 mov	 rbx, r8

; 777  :         if (w == nullptr)

  00012	4d 85 c0	 test	 r8, r8
  00015	75 0a		 jne	 SHORT $LN2@PMCCS_Bitw

; 778  :             return (PMC_STATUS_ARGUMENT_NULL_ERROR);

  00017	41 8d 40 fe	 lea	 eax, QWORD PTR [r8-2]

; 787  :         }
; 788  :     }

  0001b	48 83 c4 30	 add	 rsp, 48			; 00000030H
  0001f	5b		 pop	 rbx
  00020	c3		 ret	 0
$LN2@PMCCS_Bitw:

; 779  :         try
; 780  :         {
; 781  :             *w = PMC_BitwiseAnd_I_X(u, v);

  00021	e8 00 00 00 00	 call	 ?PMC_BitwiseAnd_I_X@Internal@Core@Math@Palmtree@@YAIIPEAU__tag_PMC_HANDLE_UINT@1234@@Z ; Palmtree::Math::Core::Internal::PMC_BitwiseAnd_I_X
  00026	89 03		 mov	 DWORD PTR [rbx], eax

; 782  :             return (PMC_STATUS_OK);

  00028	33 c0		 xor	 eax, eax
  0002a	eb 04		 jmp	 SHORT $LN7@PMCCS_Bitw
$LN8@PMCCS_Bitw:

; 783  :         }
; 784  :         catch (const Palmtree::Math::Core::Internal::Exception& ex)
; 785  :         {
; 786  :             return (ex.GetStatusCode());

  0002c	8b 44 24 50	 mov	 eax, DWORD PTR $T3[rsp]
$LN7@PMCCS_Bitw:

; 787  :         }
; 788  :     }

  00030	48 83 c4 30	 add	 rsp, 48			; 00000030H
  00034	5b		 pop	 rbx
  00035	c3		 ret	 0
  00036	cc		 int	 3
PMCCS_BitwiseAnd_I_X ENDP
_TEXT	ENDS
;	COMDAT text$x
text$x	SEGMENT
$T1 = 32
ex$2 = 40
u$ = 64
v$ = 72
$T3 = 80
w$ = 80
PMCCS_BitwiseAnd_I_X$catch$0 PROC

; 783  :         }
; 784  :         catch (const Palmtree::Math::Core::Internal::Exception& ex)
; 785  :         {

  00000	48 89 54 24 10	 mov	 QWORD PTR [rsp+16], rdx
  00005	55		 push	 rbp
  00006	48 83 ec 20	 sub	 rsp, 32			; 00000020H
  0000a	48 8b ea	 mov	 rbp, rdx
__catch$PMCCS_BitwiseAnd_I_X$0:
; File z:\sources\lunor\repos\rougemeilland\palmtree.math.core.uint\palmtree.math.core.uint\pmc_exception.h

; 75   :             return (_code);

  0000d	48 8b 45 28	 mov	 rax, QWORD PTR ex$2[rbp]
  00011	8b 48 18	 mov	 ecx, DWORD PTR [rax+24]
  00014	89 4d 50	 mov	 DWORD PTR $T3[rbp], ecx
; File z:\sources\lunor\repos\rougemeilland\palmtree.math.core.uint\palmtree.math.core.uint\pmc_interface_csharp.cpp

; 783  :         }
; 784  :         catch (const Palmtree::Math::Core::Internal::Exception& ex)
; 785  :         {
; 786  :             return (ex.GetStatusCode());

  00017	48 8d 05 00 00
	00 00		 lea	 rax, $LN8@PMCCS_Bitw
  0001e	48 83 c4 20	 add	 rsp, 32			; 00000020H
  00022	5d		 pop	 rbp
  00023	c3		 ret	 0
  00024	cc		 int	 3
PMCCS_BitwiseAnd_I_X$catch$0 ENDP
text$x	ENDS
; Function compile flags: /Ogtpy
; File z:\sources\lunor\repos\rougemeilland\palmtree.math.core.uint\palmtree.math.core.uint\pmc_exception.h
; File z:\sources\lunor\repos\rougemeilland\palmtree.math.core.uint\palmtree.math.core.uint\pmc_interface_csharp.cpp
;	COMDAT text$x
text$x	SEGMENT
$T1 = 32
ex$2 = 40
u$ = 64
v$ = 72
$T3 = 80
w$ = 80
PMCCS_BitwiseAnd_I_X$catch$0 PROC

; 785  :         {

  00000	48 89 54 24 10	 mov	 QWORD PTR [rsp+16], rdx
  00005	55		 push	 rbp
  00006	48 83 ec 20	 sub	 rsp, 32			; 00000020H
  0000a	48 8b ea	 mov	 rbp, rdx
__catch$PMCCS_BitwiseAnd_I_X$0:
; File z:\sources\lunor\repos\rougemeilland\palmtree.math.core.uint\palmtree.math.core.uint\pmc_exception.h

; 75   :             return (_code);

  0000d	48 8b 45 28	 mov	 rax, QWORD PTR ex$2[rbp]
  00011	8b 48 18	 mov	 ecx, DWORD PTR [rax+24]
  00014	89 4d 50	 mov	 DWORD PTR $T3[rbp], ecx
; File z:\sources\lunor\repos\rougemeilland\palmtree.math.core.uint\palmtree.math.core.uint\pmc_interface_csharp.cpp

; 786  :             return (ex.GetStatusCode());

  00017	48 8d 05 00 00
	00 00		 lea	 rax, $LN8@PMCCS_Bitw
  0001e	48 83 c4 20	 add	 rsp, 32			; 00000020H
  00022	5d		 pop	 rbp
  00023	c3		 ret	 0
  00024	cc		 int	 3
PMCCS_BitwiseAnd_I_X$catch$0 ENDP
text$x	ENDS
; Function compile flags: /Ogtpy
; File z:\sources\lunor\repos\rougemeilland\palmtree.math.core.uint\palmtree.math.core.uint\pmc_interface_csharp.cpp
;	COMDAT PMCCS_LeftShift_X_I
_TEXT	SEGMENT
$T1 = 32
ex$2 = 40
p$ = 64
n$ = 72
$T3 = 80
o$ = 80
PMCCS_LeftShift_X_I PROC				; COMDAT

; 761  :     {

$LN13:
  00000	40 53		 push	 rbx
  00002	48 83 ec 30	 sub	 rsp, 48			; 00000030H
  00006	48 c7 44 24 20
	fe ff ff ff	 mov	 QWORD PTR $T1[rsp], -2
  0000f	49 8b d8	 mov	 rbx, r8

; 762  :         if (o == nullptr)

  00012	4d 85 c0	 test	 r8, r8
  00015	75 0a		 jne	 SHORT $LN2@PMCCS_Left

; 763  :             return (PMC_STATUS_ARGUMENT_NULL_ERROR);

  00017	41 8d 40 fe	 lea	 eax, QWORD PTR [r8-2]

; 772  :         }
; 773  :     }

  0001b	48 83 c4 30	 add	 rsp, 48			; 00000030H
  0001f	5b		 pop	 rbx
  00020	c3		 ret	 0
$LN2@PMCCS_Left:

; 764  :         try
; 765  :         {
; 766  :             *o = PMC_LeftShift_X_I(p, n);

  00021	e8 00 00 00 00	 call	 ?PMC_LeftShift_X_I@Internal@Core@Math@Palmtree@@YAPEAU__tag_PMC_HANDLE_UINT@1234@PEAU51234@H@Z ; Palmtree::Math::Core::Internal::PMC_LeftShift_X_I
  00026	48 89 03	 mov	 QWORD PTR [rbx], rax

; 767  :             return (PMC_STATUS_OK);

  00029	33 c0		 xor	 eax, eax
  0002b	eb 04		 jmp	 SHORT $LN7@PMCCS_Left
$LN8@PMCCS_Left:

; 768  :         }
; 769  :         catch (const Palmtree::Math::Core::Internal::Exception& ex)
; 770  :         {
; 771  :             return (ex.GetStatusCode());

  0002d	8b 44 24 50	 mov	 eax, DWORD PTR $T3[rsp]
$LN7@PMCCS_Left:

; 772  :         }
; 773  :     }

  00031	48 83 c4 30	 add	 rsp, 48			; 00000030H
  00035	5b		 pop	 rbx
  00036	c3		 ret	 0
  00037	cc		 int	 3
PMCCS_LeftShift_X_I ENDP
_TEXT	ENDS
;	COMDAT text$x
text$x	SEGMENT
$T1 = 32
ex$2 = 40
p$ = 64
n$ = 72
$T3 = 80
o$ = 80
PMCCS_LeftShift_X_I$catch$0 PROC

; 768  :         }
; 769  :         catch (const Palmtree::Math::Core::Internal::Exception& ex)
; 770  :         {

  00000	48 89 54 24 10	 mov	 QWORD PTR [rsp+16], rdx
  00005	55		 push	 rbp
  00006	48 83 ec 20	 sub	 rsp, 32			; 00000020H
  0000a	48 8b ea	 mov	 rbp, rdx
__catch$PMCCS_LeftShift_X_I$0:
; File z:\sources\lunor\repos\rougemeilland\palmtree.math.core.uint\palmtree.math.core.uint\pmc_exception.h

; 75   :             return (_code);

  0000d	48 8b 45 28	 mov	 rax, QWORD PTR ex$2[rbp]
  00011	8b 48 18	 mov	 ecx, DWORD PTR [rax+24]
  00014	89 4d 50	 mov	 DWORD PTR $T3[rbp], ecx
; File z:\sources\lunor\repos\rougemeilland\palmtree.math.core.uint\palmtree.math.core.uint\pmc_interface_csharp.cpp

; 768  :         }
; 769  :         catch (const Palmtree::Math::Core::Internal::Exception& ex)
; 770  :         {
; 771  :             return (ex.GetStatusCode());

  00017	48 8d 05 00 00
	00 00		 lea	 rax, $LN8@PMCCS_Left
  0001e	48 83 c4 20	 add	 rsp, 32			; 00000020H
  00022	5d		 pop	 rbp
  00023	c3		 ret	 0
  00024	cc		 int	 3
PMCCS_LeftShift_X_I$catch$0 ENDP
text$x	ENDS
; Function compile flags: /Ogtpy
; File z:\sources\lunor\repos\rougemeilland\palmtree.math.core.uint\palmtree.math.core.uint\pmc_exception.h
; File z:\sources\lunor\repos\rougemeilland\palmtree.math.core.uint\palmtree.math.core.uint\pmc_interface_csharp.cpp
;	COMDAT text$x
text$x	SEGMENT
$T1 = 32
ex$2 = 40
p$ = 64
n$ = 72
$T3 = 80
o$ = 80
PMCCS_LeftShift_X_I$catch$0 PROC

; 770  :         {

  00000	48 89 54 24 10	 mov	 QWORD PTR [rsp+16], rdx
  00005	55		 push	 rbp
  00006	48 83 ec 20	 sub	 rsp, 32			; 00000020H
  0000a	48 8b ea	 mov	 rbp, rdx
__catch$PMCCS_LeftShift_X_I$0:
; File z:\sources\lunor\repos\rougemeilland\palmtree.math.core.uint\palmtree.math.core.uint\pmc_exception.h

; 75   :             return (_code);

  0000d	48 8b 45 28	 mov	 rax, QWORD PTR ex$2[rbp]
  00011	8b 48 18	 mov	 ecx, DWORD PTR [rax+24]
  00014	89 4d 50	 mov	 DWORD PTR $T3[rbp], ecx
; File z:\sources\lunor\repos\rougemeilland\palmtree.math.core.uint\palmtree.math.core.uint\pmc_interface_csharp.cpp

; 771  :             return (ex.GetStatusCode());

  00017	48 8d 05 00 00
	00 00		 lea	 rax, $LN8@PMCCS_Left
  0001e	48 83 c4 20	 add	 rsp, 32			; 00000020H
  00022	5d		 pop	 rbp
  00023	c3		 ret	 0
  00024	cc		 int	 3
PMCCS_LeftShift_X_I$catch$0 ENDP
text$x	ENDS
; Function compile flags: /Ogtpy
; File z:\sources\lunor\repos\rougemeilland\palmtree.math.core.uint\palmtree.math.core.uint\pmc_interface_csharp.cpp
;	COMDAT PMCCS_RightShift_X_I
_TEXT	SEGMENT
$T1 = 32
ex$2 = 40
p$ = 64
n$ = 72
$T3 = 80
o$ = 80
PMCCS_RightShift_X_I PROC				; COMDAT

; 746  :     {

$LN13:
  00000	40 53		 push	 rbx
  00002	48 83 ec 30	 sub	 rsp, 48			; 00000030H
  00006	48 c7 44 24 20
	fe ff ff ff	 mov	 QWORD PTR $T1[rsp], -2
  0000f	49 8b d8	 mov	 rbx, r8

; 747  :         if (o == nullptr)

  00012	4d 85 c0	 test	 r8, r8
  00015	75 0a		 jne	 SHORT $LN2@PMCCS_Righ

; 748  :             return (PMC_STATUS_ARGUMENT_NULL_ERROR);

  00017	41 8d 40 fe	 lea	 eax, QWORD PTR [r8-2]

; 757  :         }
; 758  :     }

  0001b	48 83 c4 30	 add	 rsp, 48			; 00000030H
  0001f	5b		 pop	 rbx
  00020	c3		 ret	 0
$LN2@PMCCS_Righ:

; 749  :         try
; 750  :         {
; 751  :             *o = PMC_RightShift_X_I(p, n);

  00021	e8 00 00 00 00	 call	 ?PMC_RightShift_X_I@Internal@Core@Math@Palmtree@@YAPEAU__tag_PMC_HANDLE_UINT@1234@PEAU51234@H@Z ; Palmtree::Math::Core::Internal::PMC_RightShift_X_I
  00026	48 89 03	 mov	 QWORD PTR [rbx], rax

; 752  :             return (PMC_STATUS_OK);

  00029	33 c0		 xor	 eax, eax
  0002b	eb 04		 jmp	 SHORT $LN7@PMCCS_Righ
$LN8@PMCCS_Righ:

; 753  :         }
; 754  :         catch (const Palmtree::Math::Core::Internal::Exception& ex)
; 755  :         {
; 756  :             return (ex.GetStatusCode());

  0002d	8b 44 24 50	 mov	 eax, DWORD PTR $T3[rsp]
$LN7@PMCCS_Righ:

; 757  :         }
; 758  :     }

  00031	48 83 c4 30	 add	 rsp, 48			; 00000030H
  00035	5b		 pop	 rbx
  00036	c3		 ret	 0
  00037	cc		 int	 3
PMCCS_RightShift_X_I ENDP
_TEXT	ENDS
;	COMDAT text$x
text$x	SEGMENT
$T1 = 32
ex$2 = 40
p$ = 64
n$ = 72
$T3 = 80
o$ = 80
PMCCS_RightShift_X_I$catch$0 PROC

; 753  :         }
; 754  :         catch (const Palmtree::Math::Core::Internal::Exception& ex)
; 755  :         {

  00000	48 89 54 24 10	 mov	 QWORD PTR [rsp+16], rdx
  00005	55		 push	 rbp
  00006	48 83 ec 20	 sub	 rsp, 32			; 00000020H
  0000a	48 8b ea	 mov	 rbp, rdx
__catch$PMCCS_RightShift_X_I$0:
; File z:\sources\lunor\repos\rougemeilland\palmtree.math.core.uint\palmtree.math.core.uint\pmc_exception.h

; 75   :             return (_code);

  0000d	48 8b 45 28	 mov	 rax, QWORD PTR ex$2[rbp]
  00011	8b 48 18	 mov	 ecx, DWORD PTR [rax+24]
  00014	89 4d 50	 mov	 DWORD PTR $T3[rbp], ecx
; File z:\sources\lunor\repos\rougemeilland\palmtree.math.core.uint\palmtree.math.core.uint\pmc_interface_csharp.cpp

; 753  :         }
; 754  :         catch (const Palmtree::Math::Core::Internal::Exception& ex)
; 755  :         {
; 756  :             return (ex.GetStatusCode());

  00017	48 8d 05 00 00
	00 00		 lea	 rax, $LN8@PMCCS_Righ
  0001e	48 83 c4 20	 add	 rsp, 32			; 00000020H
  00022	5d		 pop	 rbp
  00023	c3		 ret	 0
  00024	cc		 int	 3
PMCCS_RightShift_X_I$catch$0 ENDP
text$x	ENDS
; Function compile flags: /Ogtpy
; File z:\sources\lunor\repos\rougemeilland\palmtree.math.core.uint\palmtree.math.core.uint\pmc_exception.h
; File z:\sources\lunor\repos\rougemeilland\palmtree.math.core.uint\palmtree.math.core.uint\pmc_interface_csharp.cpp
;	COMDAT text$x
text$x	SEGMENT
$T1 = 32
ex$2 = 40
p$ = 64
n$ = 72
$T3 = 80
o$ = 80
PMCCS_RightShift_X_I$catch$0 PROC

; 755  :         {

  00000	48 89 54 24 10	 mov	 QWORD PTR [rsp+16], rdx
  00005	55		 push	 rbp
  00006	48 83 ec 20	 sub	 rsp, 32			; 00000020H
  0000a	48 8b ea	 mov	 rbp, rdx
__catch$PMCCS_RightShift_X_I$0:
; File z:\sources\lunor\repos\rougemeilland\palmtree.math.core.uint\palmtree.math.core.uint\pmc_exception.h

; 75   :             return (_code);

  0000d	48 8b 45 28	 mov	 rax, QWORD PTR ex$2[rbp]
  00011	8b 48 18	 mov	 ecx, DWORD PTR [rax+24]
  00014	89 4d 50	 mov	 DWORD PTR $T3[rbp], ecx
; File z:\sources\lunor\repos\rougemeilland\palmtree.math.core.uint\palmtree.math.core.uint\pmc_interface_csharp.cpp

; 756  :             return (ex.GetStatusCode());

  00017	48 8d 05 00 00
	00 00		 lea	 rax, $LN8@PMCCS_Righ
  0001e	48 83 c4 20	 add	 rsp, 32			; 00000020H
  00022	5d		 pop	 rbp
  00023	c3		 ret	 0
  00024	cc		 int	 3
PMCCS_RightShift_X_I$catch$0 ENDP
text$x	ENDS
; Function compile flags: /Ogtpy
; File z:\sources\lunor\repos\rougemeilland\palmtree.math.core.uint\palmtree.math.core.uint\pmc_interface_csharp.cpp
;	COMDAT PMCCS_Remainder_X_X
_TEXT	SEGMENT
$T1 = 32
ex$2 = 40
u$ = 64
v$ = 72
$T3 = 80
r$ = 80
PMCCS_Remainder_X_X PROC				; COMDAT

; 731  :     {

$LN13:
  00000	40 53		 push	 rbx
  00002	48 83 ec 30	 sub	 rsp, 48			; 00000030H
  00006	48 c7 44 24 20
	fe ff ff ff	 mov	 QWORD PTR $T1[rsp], -2
  0000f	49 8b d8	 mov	 rbx, r8

; 732  :         if (r == nullptr)

  00012	4d 85 c0	 test	 r8, r8
  00015	75 0a		 jne	 SHORT $LN2@PMCCS_Rema

; 733  :             return (PMC_STATUS_ARGUMENT_NULL_ERROR);

  00017	41 8d 40 fe	 lea	 eax, QWORD PTR [r8-2]

; 742  :         }
; 743  :     }

  0001b	48 83 c4 30	 add	 rsp, 48			; 00000030H
  0001f	5b		 pop	 rbx
  00020	c3		 ret	 0
$LN2@PMCCS_Rema:

; 734  :         try
; 735  :         {
; 736  :             *r = PMC_DivRem_X_X(u, v, nullptr);

  00021	45 33 c0	 xor	 r8d, r8d
  00024	e8 00 00 00 00	 call	 ?PMC_DivRem_X_X@Internal@Core@Math@Palmtree@@YAPEAU__tag_PMC_HANDLE_UINT@1234@PEAU51234@0PEAPEAU51234@@Z ; Palmtree::Math::Core::Internal::PMC_DivRem_X_X
  00029	48 89 03	 mov	 QWORD PTR [rbx], rax

; 737  :             return (PMC_STATUS_OK);

  0002c	33 c0		 xor	 eax, eax
  0002e	eb 04		 jmp	 SHORT $LN7@PMCCS_Rema
$LN8@PMCCS_Rema:

; 738  :         }
; 739  :         catch (const Palmtree::Math::Core::Internal::Exception& ex)
; 740  :         {
; 741  :             return (ex.GetStatusCode());

  00030	8b 44 24 50	 mov	 eax, DWORD PTR $T3[rsp]
$LN7@PMCCS_Rema:

; 742  :         }
; 743  :     }

  00034	48 83 c4 30	 add	 rsp, 48			; 00000030H
  00038	5b		 pop	 rbx
  00039	c3		 ret	 0
  0003a	cc		 int	 3
PMCCS_Remainder_X_X ENDP
_TEXT	ENDS
;	COMDAT text$x
text$x	SEGMENT
$T1 = 32
ex$2 = 40
u$ = 64
v$ = 72
$T3 = 80
r$ = 80
PMCCS_Remainder_X_X$catch$0 PROC

; 738  :         }
; 739  :         catch (const Palmtree::Math::Core::Internal::Exception& ex)
; 740  :         {

  00000	48 89 54 24 10	 mov	 QWORD PTR [rsp+16], rdx
  00005	55		 push	 rbp
  00006	48 83 ec 20	 sub	 rsp, 32			; 00000020H
  0000a	48 8b ea	 mov	 rbp, rdx
__catch$PMCCS_Remainder_X_X$0:
; File z:\sources\lunor\repos\rougemeilland\palmtree.math.core.uint\palmtree.math.core.uint\pmc_exception.h

; 75   :             return (_code);

  0000d	48 8b 45 28	 mov	 rax, QWORD PTR ex$2[rbp]
  00011	8b 48 18	 mov	 ecx, DWORD PTR [rax+24]
  00014	89 4d 50	 mov	 DWORD PTR $T3[rbp], ecx
; File z:\sources\lunor\repos\rougemeilland\palmtree.math.core.uint\palmtree.math.core.uint\pmc_interface_csharp.cpp

; 738  :         }
; 739  :         catch (const Palmtree::Math::Core::Internal::Exception& ex)
; 740  :         {
; 741  :             return (ex.GetStatusCode());

  00017	48 8d 05 00 00
	00 00		 lea	 rax, $LN8@PMCCS_Rema
  0001e	48 83 c4 20	 add	 rsp, 32			; 00000020H
  00022	5d		 pop	 rbp
  00023	c3		 ret	 0
  00024	cc		 int	 3
PMCCS_Remainder_X_X$catch$0 ENDP
text$x	ENDS
; Function compile flags: /Ogtpy
; File z:\sources\lunor\repos\rougemeilland\palmtree.math.core.uint\palmtree.math.core.uint\pmc_exception.h
; File z:\sources\lunor\repos\rougemeilland\palmtree.math.core.uint\palmtree.math.core.uint\pmc_interface_csharp.cpp
;	COMDAT text$x
text$x	SEGMENT
$T1 = 32
ex$2 = 40
u$ = 64
v$ = 72
$T3 = 80
r$ = 80
PMCCS_Remainder_X_X$catch$0 PROC

; 740  :         {

  00000	48 89 54 24 10	 mov	 QWORD PTR [rsp+16], rdx
  00005	55		 push	 rbp
  00006	48 83 ec 20	 sub	 rsp, 32			; 00000020H
  0000a	48 8b ea	 mov	 rbp, rdx
__catch$PMCCS_Remainder_X_X$0:
; File z:\sources\lunor\repos\rougemeilland\palmtree.math.core.uint\palmtree.math.core.uint\pmc_exception.h

; 75   :             return (_code);

  0000d	48 8b 45 28	 mov	 rax, QWORD PTR ex$2[rbp]
  00011	8b 48 18	 mov	 ecx, DWORD PTR [rax+24]
  00014	89 4d 50	 mov	 DWORD PTR $T3[rbp], ecx
; File z:\sources\lunor\repos\rougemeilland\palmtree.math.core.uint\palmtree.math.core.uint\pmc_interface_csharp.cpp

; 741  :             return (ex.GetStatusCode());

  00017	48 8d 05 00 00
	00 00		 lea	 rax, $LN8@PMCCS_Rema
  0001e	48 83 c4 20	 add	 rsp, 32			; 00000020H
  00022	5d		 pop	 rbp
  00023	c3		 ret	 0
  00024	cc		 int	 3
PMCCS_Remainder_X_X$catch$0 ENDP
text$x	ENDS
; Function compile flags: /Ogtpy
; File z:\sources\lunor\repos\rougemeilland\palmtree.math.core.uint\palmtree.math.core.uint\pmc_interface_csharp.cpp
;	COMDAT PMCCS_Remainder_X_L
_TEXT	SEGMENT
$T1 = 32
ex$2 = 40
u$ = 64
v$ = 72
$T3 = 80
r$ = 80
PMCCS_Remainder_X_L PROC				; COMDAT

; 716  :     {

$LN13:
  00000	40 53		 push	 rbx
  00002	48 83 ec 30	 sub	 rsp, 48			; 00000030H
  00006	48 c7 44 24 20
	fe ff ff ff	 mov	 QWORD PTR $T1[rsp], -2
  0000f	49 8b d8	 mov	 rbx, r8

; 717  :         if (r == nullptr)

  00012	4d 85 c0	 test	 r8, r8
  00015	75 0a		 jne	 SHORT $LN2@PMCCS_Rema

; 718  :             return (PMC_STATUS_ARGUMENT_NULL_ERROR);

  00017	41 8d 40 fe	 lea	 eax, QWORD PTR [r8-2]

; 727  :         }
; 728  :     }

  0001b	48 83 c4 30	 add	 rsp, 48			; 00000030H
  0001f	5b		 pop	 rbx
  00020	c3		 ret	 0
$LN2@PMCCS_Rema:

; 719  :         try
; 720  :         {
; 721  :             *r = PMC_DivRem_X_L(u, v, nullptr);

  00021	45 33 c0	 xor	 r8d, r8d
  00024	e8 00 00 00 00	 call	 ?PMC_DivRem_X_L@Internal@Core@Math@Palmtree@@YA_KPEAU__tag_PMC_HANDLE_UINT@1234@_KPEAPEAU51234@@Z ; Palmtree::Math::Core::Internal::PMC_DivRem_X_L
  00029	48 89 03	 mov	 QWORD PTR [rbx], rax

; 722  :             return (PMC_STATUS_OK);

  0002c	33 c0		 xor	 eax, eax
  0002e	eb 04		 jmp	 SHORT $LN7@PMCCS_Rema
$LN8@PMCCS_Rema:

; 723  :         }
; 724  :         catch (const Palmtree::Math::Core::Internal::Exception& ex)
; 725  :         {
; 726  :             return (ex.GetStatusCode());

  00030	8b 44 24 50	 mov	 eax, DWORD PTR $T3[rsp]
$LN7@PMCCS_Rema:

; 727  :         }
; 728  :     }

  00034	48 83 c4 30	 add	 rsp, 48			; 00000030H
  00038	5b		 pop	 rbx
  00039	c3		 ret	 0
  0003a	cc		 int	 3
PMCCS_Remainder_X_L ENDP
_TEXT	ENDS
;	COMDAT text$x
text$x	SEGMENT
$T1 = 32
ex$2 = 40
u$ = 64
v$ = 72
$T3 = 80
r$ = 80
PMCCS_Remainder_X_L$catch$0 PROC

; 723  :         }
; 724  :         catch (const Palmtree::Math::Core::Internal::Exception& ex)
; 725  :         {

  00000	48 89 54 24 10	 mov	 QWORD PTR [rsp+16], rdx
  00005	55		 push	 rbp
  00006	48 83 ec 20	 sub	 rsp, 32			; 00000020H
  0000a	48 8b ea	 mov	 rbp, rdx
__catch$PMCCS_Remainder_X_L$0:
; File z:\sources\lunor\repos\rougemeilland\palmtree.math.core.uint\palmtree.math.core.uint\pmc_exception.h

; 75   :             return (_code);

  0000d	48 8b 45 28	 mov	 rax, QWORD PTR ex$2[rbp]
  00011	8b 48 18	 mov	 ecx, DWORD PTR [rax+24]
  00014	89 4d 50	 mov	 DWORD PTR $T3[rbp], ecx
; File z:\sources\lunor\repos\rougemeilland\palmtree.math.core.uint\palmtree.math.core.uint\pmc_interface_csharp.cpp

; 723  :         }
; 724  :         catch (const Palmtree::Math::Core::Internal::Exception& ex)
; 725  :         {
; 726  :             return (ex.GetStatusCode());

  00017	48 8d 05 00 00
	00 00		 lea	 rax, $LN8@PMCCS_Rema
  0001e	48 83 c4 20	 add	 rsp, 32			; 00000020H
  00022	5d		 pop	 rbp
  00023	c3		 ret	 0
  00024	cc		 int	 3
PMCCS_Remainder_X_L$catch$0 ENDP
text$x	ENDS
; Function compile flags: /Ogtpy
; File z:\sources\lunor\repos\rougemeilland\palmtree.math.core.uint\palmtree.math.core.uint\pmc_exception.h
; File z:\sources\lunor\repos\rougemeilland\palmtree.math.core.uint\palmtree.math.core.uint\pmc_interface_csharp.cpp
;	COMDAT text$x
text$x	SEGMENT
$T1 = 32
ex$2 = 40
u$ = 64
v$ = 72
$T3 = 80
r$ = 80
PMCCS_Remainder_X_L$catch$0 PROC

; 725  :         {

  00000	48 89 54 24 10	 mov	 QWORD PTR [rsp+16], rdx
  00005	55		 push	 rbp
  00006	48 83 ec 20	 sub	 rsp, 32			; 00000020H
  0000a	48 8b ea	 mov	 rbp, rdx
__catch$PMCCS_Remainder_X_L$0:
; File z:\sources\lunor\repos\rougemeilland\palmtree.math.core.uint\palmtree.math.core.uint\pmc_exception.h

; 75   :             return (_code);

  0000d	48 8b 45 28	 mov	 rax, QWORD PTR ex$2[rbp]
  00011	8b 48 18	 mov	 ecx, DWORD PTR [rax+24]
  00014	89 4d 50	 mov	 DWORD PTR $T3[rbp], ecx
; File z:\sources\lunor\repos\rougemeilland\palmtree.math.core.uint\palmtree.math.core.uint\pmc_interface_csharp.cpp

; 726  :             return (ex.GetStatusCode());

  00017	48 8d 05 00 00
	00 00		 lea	 rax, $LN8@PMCCS_Rema
  0001e	48 83 c4 20	 add	 rsp, 32			; 00000020H
  00022	5d		 pop	 rbp
  00023	c3		 ret	 0
  00024	cc		 int	 3
PMCCS_Remainder_X_L$catch$0 ENDP
text$x	ENDS
; Function compile flags: /Ogtpy
; File z:\sources\lunor\repos\rougemeilland\palmtree.math.core.uint\palmtree.math.core.uint\pmc_interface_csharp.cpp
;	COMDAT PMCCS_Remainder_X_I
_TEXT	SEGMENT
$T1 = 32
ex$2 = 40
u$ = 64
v$ = 72
$T3 = 80
r$ = 80
PMCCS_Remainder_X_I PROC				; COMDAT

; 701  :     {

$LN13:
  00000	40 53		 push	 rbx
  00002	48 83 ec 30	 sub	 rsp, 48			; 00000030H
  00006	48 c7 44 24 20
	fe ff ff ff	 mov	 QWORD PTR $T1[rsp], -2
  0000f	49 8b d8	 mov	 rbx, r8

; 702  :         if (r == nullptr)

  00012	4d 85 c0	 test	 r8, r8
  00015	75 0a		 jne	 SHORT $LN2@PMCCS_Rema

; 703  :             return (PMC_STATUS_ARGUMENT_NULL_ERROR);

  00017	41 8d 40 fe	 lea	 eax, QWORD PTR [r8-2]

; 712  :         }
; 713  :     }

  0001b	48 83 c4 30	 add	 rsp, 48			; 00000030H
  0001f	5b		 pop	 rbx
  00020	c3		 ret	 0
$LN2@PMCCS_Rema:

; 704  :         try
; 705  :         {
; 706  :             *r = PMC_DivRem_X_I(u, v, nullptr);

  00021	45 33 c0	 xor	 r8d, r8d
  00024	e8 00 00 00 00	 call	 ?PMC_DivRem_X_I@Internal@Core@Math@Palmtree@@YAIPEAU__tag_PMC_HANDLE_UINT@1234@IPEAPEAU51234@@Z ; Palmtree::Math::Core::Internal::PMC_DivRem_X_I
  00029	89 03		 mov	 DWORD PTR [rbx], eax

; 707  :             return (PMC_STATUS_OK);

  0002b	33 c0		 xor	 eax, eax
  0002d	eb 04		 jmp	 SHORT $LN7@PMCCS_Rema
$LN8@PMCCS_Rema:

; 708  :         }
; 709  :         catch (const Palmtree::Math::Core::Internal::Exception& ex)
; 710  :         {
; 711  :             return (ex.GetStatusCode());

  0002f	8b 44 24 50	 mov	 eax, DWORD PTR $T3[rsp]
$LN7@PMCCS_Rema:

; 712  :         }
; 713  :     }

  00033	48 83 c4 30	 add	 rsp, 48			; 00000030H
  00037	5b		 pop	 rbx
  00038	c3		 ret	 0
  00039	cc		 int	 3
PMCCS_Remainder_X_I ENDP
_TEXT	ENDS
;	COMDAT text$x
text$x	SEGMENT
$T1 = 32
ex$2 = 40
u$ = 64
v$ = 72
$T3 = 80
r$ = 80
PMCCS_Remainder_X_I$catch$0 PROC

; 708  :         }
; 709  :         catch (const Palmtree::Math::Core::Internal::Exception& ex)
; 710  :         {

  00000	48 89 54 24 10	 mov	 QWORD PTR [rsp+16], rdx
  00005	55		 push	 rbp
  00006	48 83 ec 20	 sub	 rsp, 32			; 00000020H
  0000a	48 8b ea	 mov	 rbp, rdx
__catch$PMCCS_Remainder_X_I$0:
; File z:\sources\lunor\repos\rougemeilland\palmtree.math.core.uint\palmtree.math.core.uint\pmc_exception.h

; 75   :             return (_code);

  0000d	48 8b 45 28	 mov	 rax, QWORD PTR ex$2[rbp]
  00011	8b 48 18	 mov	 ecx, DWORD PTR [rax+24]
  00014	89 4d 50	 mov	 DWORD PTR $T3[rbp], ecx
; File z:\sources\lunor\repos\rougemeilland\palmtree.math.core.uint\palmtree.math.core.uint\pmc_interface_csharp.cpp

; 708  :         }
; 709  :         catch (const Palmtree::Math::Core::Internal::Exception& ex)
; 710  :         {
; 711  :             return (ex.GetStatusCode());

  00017	48 8d 05 00 00
	00 00		 lea	 rax, $LN8@PMCCS_Rema
  0001e	48 83 c4 20	 add	 rsp, 32			; 00000020H
  00022	5d		 pop	 rbp
  00023	c3		 ret	 0
  00024	cc		 int	 3
PMCCS_Remainder_X_I$catch$0 ENDP
text$x	ENDS
; Function compile flags: /Ogtpy
; File z:\sources\lunor\repos\rougemeilland\palmtree.math.core.uint\palmtree.math.core.uint\pmc_exception.h
; File z:\sources\lunor\repos\rougemeilland\palmtree.math.core.uint\palmtree.math.core.uint\pmc_interface_csharp.cpp
;	COMDAT text$x
text$x	SEGMENT
$T1 = 32
ex$2 = 40
u$ = 64
v$ = 72
$T3 = 80
r$ = 80
PMCCS_Remainder_X_I$catch$0 PROC

; 710  :         {

  00000	48 89 54 24 10	 mov	 QWORD PTR [rsp+16], rdx
  00005	55		 push	 rbp
  00006	48 83 ec 20	 sub	 rsp, 32			; 00000020H
  0000a	48 8b ea	 mov	 rbp, rdx
__catch$PMCCS_Remainder_X_I$0:
; File z:\sources\lunor\repos\rougemeilland\palmtree.math.core.uint\palmtree.math.core.uint\pmc_exception.h

; 75   :             return (_code);

  0000d	48 8b 45 28	 mov	 rax, QWORD PTR ex$2[rbp]
  00011	8b 48 18	 mov	 ecx, DWORD PTR [rax+24]
  00014	89 4d 50	 mov	 DWORD PTR $T3[rbp], ecx
; File z:\sources\lunor\repos\rougemeilland\palmtree.math.core.uint\palmtree.math.core.uint\pmc_interface_csharp.cpp

; 711  :             return (ex.GetStatusCode());

  00017	48 8d 05 00 00
	00 00		 lea	 rax, $LN8@PMCCS_Rema
  0001e	48 83 c4 20	 add	 rsp, 32			; 00000020H
  00022	5d		 pop	 rbp
  00023	c3		 ret	 0
  00024	cc		 int	 3
PMCCS_Remainder_X_I$catch$0 ENDP
text$x	ENDS
; Function compile flags: /Ogtpy
; File z:\sources\lunor\repos\rougemeilland\palmtree.math.core.uint\palmtree.math.core.uint\pmc_interface_csharp.cpp
;	COMDAT PMCCS_Remainder_L_X
_TEXT	SEGMENT
$T1 = 32
ex$2 = 40
u$ = 64
v$ = 72
$T3 = 80
r$ = 80
PMCCS_Remainder_L_X PROC				; COMDAT

; 686  :     {

$LN13:
  00000	40 53		 push	 rbx
  00002	48 83 ec 30	 sub	 rsp, 48			; 00000030H
  00006	48 c7 44 24 20
	fe ff ff ff	 mov	 QWORD PTR $T1[rsp], -2
  0000f	49 8b d8	 mov	 rbx, r8

; 687  :         if (r == nullptr)

  00012	4d 85 c0	 test	 r8, r8
  00015	75 0a		 jne	 SHORT $LN2@PMCCS_Rema

; 688  :             return (PMC_STATUS_ARGUMENT_NULL_ERROR);

  00017	41 8d 40 fe	 lea	 eax, QWORD PTR [r8-2]

; 697  :         }
; 698  :     }

  0001b	48 83 c4 30	 add	 rsp, 48			; 00000030H
  0001f	5b		 pop	 rbx
  00020	c3		 ret	 0
$LN2@PMCCS_Rema:

; 689  :         try
; 690  :         {
; 691  :             *r = PMC_DivRem_L_X(u, v, nullptr);

  00021	45 33 c0	 xor	 r8d, r8d
  00024	e8 00 00 00 00	 call	 ?PMC_DivRem_L_X@Internal@Core@Math@Palmtree@@YA_K_KPEAU__tag_PMC_HANDLE_UINT@1234@PEA_K@Z ; Palmtree::Math::Core::Internal::PMC_DivRem_L_X
  00029	48 89 03	 mov	 QWORD PTR [rbx], rax

; 692  :             return (PMC_STATUS_OK);

  0002c	33 c0		 xor	 eax, eax
  0002e	eb 04		 jmp	 SHORT $LN7@PMCCS_Rema
$LN8@PMCCS_Rema:

; 693  :         }
; 694  :         catch (const Palmtree::Math::Core::Internal::Exception& ex)
; 695  :         {
; 696  :             return (ex.GetStatusCode());

  00030	8b 44 24 50	 mov	 eax, DWORD PTR $T3[rsp]
$LN7@PMCCS_Rema:

; 697  :         }
; 698  :     }

  00034	48 83 c4 30	 add	 rsp, 48			; 00000030H
  00038	5b		 pop	 rbx
  00039	c3		 ret	 0
  0003a	cc		 int	 3
PMCCS_Remainder_L_X ENDP
_TEXT	ENDS
;	COMDAT text$x
text$x	SEGMENT
$T1 = 32
ex$2 = 40
u$ = 64
v$ = 72
$T3 = 80
r$ = 80
PMCCS_Remainder_L_X$catch$0 PROC

; 693  :         }
; 694  :         catch (const Palmtree::Math::Core::Internal::Exception& ex)
; 695  :         {

  00000	48 89 54 24 10	 mov	 QWORD PTR [rsp+16], rdx
  00005	55		 push	 rbp
  00006	48 83 ec 20	 sub	 rsp, 32			; 00000020H
  0000a	48 8b ea	 mov	 rbp, rdx
__catch$PMCCS_Remainder_L_X$0:
; File z:\sources\lunor\repos\rougemeilland\palmtree.math.core.uint\palmtree.math.core.uint\pmc_exception.h

; 75   :             return (_code);

  0000d	48 8b 45 28	 mov	 rax, QWORD PTR ex$2[rbp]
  00011	8b 48 18	 mov	 ecx, DWORD PTR [rax+24]
  00014	89 4d 50	 mov	 DWORD PTR $T3[rbp], ecx
; File z:\sources\lunor\repos\rougemeilland\palmtree.math.core.uint\palmtree.math.core.uint\pmc_interface_csharp.cpp

; 693  :         }
; 694  :         catch (const Palmtree::Math::Core::Internal::Exception& ex)
; 695  :         {
; 696  :             return (ex.GetStatusCode());

  00017	48 8d 05 00 00
	00 00		 lea	 rax, $LN8@PMCCS_Rema
  0001e	48 83 c4 20	 add	 rsp, 32			; 00000020H
  00022	5d		 pop	 rbp
  00023	c3		 ret	 0
  00024	cc		 int	 3
PMCCS_Remainder_L_X$catch$0 ENDP
text$x	ENDS
; Function compile flags: /Ogtpy
; File z:\sources\lunor\repos\rougemeilland\palmtree.math.core.uint\palmtree.math.core.uint\pmc_exception.h
; File z:\sources\lunor\repos\rougemeilland\palmtree.math.core.uint\palmtree.math.core.uint\pmc_interface_csharp.cpp
;	COMDAT text$x
text$x	SEGMENT
$T1 = 32
ex$2 = 40
u$ = 64
v$ = 72
$T3 = 80
r$ = 80
PMCCS_Remainder_L_X$catch$0 PROC

; 695  :         {

  00000	48 89 54 24 10	 mov	 QWORD PTR [rsp+16], rdx
  00005	55		 push	 rbp
  00006	48 83 ec 20	 sub	 rsp, 32			; 00000020H
  0000a	48 8b ea	 mov	 rbp, rdx
__catch$PMCCS_Remainder_L_X$0:
; File z:\sources\lunor\repos\rougemeilland\palmtree.math.core.uint\palmtree.math.core.uint\pmc_exception.h

; 75   :             return (_code);

  0000d	48 8b 45 28	 mov	 rax, QWORD PTR ex$2[rbp]
  00011	8b 48 18	 mov	 ecx, DWORD PTR [rax+24]
  00014	89 4d 50	 mov	 DWORD PTR $T3[rbp], ecx
; File z:\sources\lunor\repos\rougemeilland\palmtree.math.core.uint\palmtree.math.core.uint\pmc_interface_csharp.cpp

; 696  :             return (ex.GetStatusCode());

  00017	48 8d 05 00 00
	00 00		 lea	 rax, $LN8@PMCCS_Rema
  0001e	48 83 c4 20	 add	 rsp, 32			; 00000020H
  00022	5d		 pop	 rbp
  00023	c3		 ret	 0
  00024	cc		 int	 3
PMCCS_Remainder_L_X$catch$0 ENDP
text$x	ENDS
; Function compile flags: /Ogtpy
; File z:\sources\lunor\repos\rougemeilland\palmtree.math.core.uint\palmtree.math.core.uint\pmc_interface_csharp.cpp
;	COMDAT PMCCS_Remainder_I_X
_TEXT	SEGMENT
$T1 = 32
ex$2 = 40
u$ = 64
v$ = 72
$T3 = 80
r$ = 80
PMCCS_Remainder_I_X PROC				; COMDAT

; 671  :     {

$LN13:
  00000	40 53		 push	 rbx
  00002	48 83 ec 30	 sub	 rsp, 48			; 00000030H
  00006	48 c7 44 24 20
	fe ff ff ff	 mov	 QWORD PTR $T1[rsp], -2
  0000f	49 8b d8	 mov	 rbx, r8

; 672  :         if (r == nullptr)

  00012	4d 85 c0	 test	 r8, r8
  00015	75 0a		 jne	 SHORT $LN2@PMCCS_Rema

; 673  :             return (PMC_STATUS_ARGUMENT_NULL_ERROR);

  00017	41 8d 40 fe	 lea	 eax, QWORD PTR [r8-2]

; 682  :         }
; 683  :     }

  0001b	48 83 c4 30	 add	 rsp, 48			; 00000030H
  0001f	5b		 pop	 rbx
  00020	c3		 ret	 0
$LN2@PMCCS_Rema:

; 674  :         try
; 675  :         {
; 676  :             *r = PMC_DivRem_I_X(u, v, nullptr);

  00021	45 33 c0	 xor	 r8d, r8d
  00024	e8 00 00 00 00	 call	 ?PMC_DivRem_I_X@Internal@Core@Math@Palmtree@@YAIIPEAU__tag_PMC_HANDLE_UINT@1234@PEAI@Z ; Palmtree::Math::Core::Internal::PMC_DivRem_I_X
  00029	89 03		 mov	 DWORD PTR [rbx], eax

; 677  :             return (PMC_STATUS_OK);

  0002b	33 c0		 xor	 eax, eax
  0002d	eb 04		 jmp	 SHORT $LN7@PMCCS_Rema
$LN8@PMCCS_Rema:

; 678  :         }
; 679  :         catch (const Palmtree::Math::Core::Internal::Exception& ex)
; 680  :         {
; 681  :             return (ex.GetStatusCode());

  0002f	8b 44 24 50	 mov	 eax, DWORD PTR $T3[rsp]
$LN7@PMCCS_Rema:

; 682  :         }
; 683  :     }

  00033	48 83 c4 30	 add	 rsp, 48			; 00000030H
  00037	5b		 pop	 rbx
  00038	c3		 ret	 0
  00039	cc		 int	 3
PMCCS_Remainder_I_X ENDP
_TEXT	ENDS
;	COMDAT text$x
text$x	SEGMENT
$T1 = 32
ex$2 = 40
u$ = 64
v$ = 72
$T3 = 80
r$ = 80
PMCCS_Remainder_I_X$catch$0 PROC

; 678  :         }
; 679  :         catch (const Palmtree::Math::Core::Internal::Exception& ex)
; 680  :         {

  00000	48 89 54 24 10	 mov	 QWORD PTR [rsp+16], rdx
  00005	55		 push	 rbp
  00006	48 83 ec 20	 sub	 rsp, 32			; 00000020H
  0000a	48 8b ea	 mov	 rbp, rdx
__catch$PMCCS_Remainder_I_X$0:
; File z:\sources\lunor\repos\rougemeilland\palmtree.math.core.uint\palmtree.math.core.uint\pmc_exception.h

; 75   :             return (_code);

  0000d	48 8b 45 28	 mov	 rax, QWORD PTR ex$2[rbp]
  00011	8b 48 18	 mov	 ecx, DWORD PTR [rax+24]
  00014	89 4d 50	 mov	 DWORD PTR $T3[rbp], ecx
; File z:\sources\lunor\repos\rougemeilland\palmtree.math.core.uint\palmtree.math.core.uint\pmc_interface_csharp.cpp

; 678  :         }
; 679  :         catch (const Palmtree::Math::Core::Internal::Exception& ex)
; 680  :         {
; 681  :             return (ex.GetStatusCode());

  00017	48 8d 05 00 00
	00 00		 lea	 rax, $LN8@PMCCS_Rema
  0001e	48 83 c4 20	 add	 rsp, 32			; 00000020H
  00022	5d		 pop	 rbp
  00023	c3		 ret	 0
  00024	cc		 int	 3
PMCCS_Remainder_I_X$catch$0 ENDP
text$x	ENDS
; Function compile flags: /Ogtpy
; File z:\sources\lunor\repos\rougemeilland\palmtree.math.core.uint\palmtree.math.core.uint\pmc_exception.h
; File z:\sources\lunor\repos\rougemeilland\palmtree.math.core.uint\palmtree.math.core.uint\pmc_interface_csharp.cpp
;	COMDAT text$x
text$x	SEGMENT
$T1 = 32
ex$2 = 40
u$ = 64
v$ = 72
$T3 = 80
r$ = 80
PMCCS_Remainder_I_X$catch$0 PROC

; 680  :         {

  00000	48 89 54 24 10	 mov	 QWORD PTR [rsp+16], rdx
  00005	55		 push	 rbp
  00006	48 83 ec 20	 sub	 rsp, 32			; 00000020H
  0000a	48 8b ea	 mov	 rbp, rdx
__catch$PMCCS_Remainder_I_X$0:
; File z:\sources\lunor\repos\rougemeilland\palmtree.math.core.uint\palmtree.math.core.uint\pmc_exception.h

; 75   :             return (_code);

  0000d	48 8b 45 28	 mov	 rax, QWORD PTR ex$2[rbp]
  00011	8b 48 18	 mov	 ecx, DWORD PTR [rax+24]
  00014	89 4d 50	 mov	 DWORD PTR $T3[rbp], ecx
; File z:\sources\lunor\repos\rougemeilland\palmtree.math.core.uint\palmtree.math.core.uint\pmc_interface_csharp.cpp

; 681  :             return (ex.GetStatusCode());

  00017	48 8d 05 00 00
	00 00		 lea	 rax, $LN8@PMCCS_Rema
  0001e	48 83 c4 20	 add	 rsp, 32			; 00000020H
  00022	5d		 pop	 rbp
  00023	c3		 ret	 0
  00024	cc		 int	 3
PMCCS_Remainder_I_X$catch$0 ENDP
text$x	ENDS
; Function compile flags: /Ogtpy
; File z:\sources\lunor\repos\rougemeilland\palmtree.math.core.uint\palmtree.math.core.uint\pmc_interface_csharp.cpp
;	COMDAT PMCCS_DivRem_X_X
_TEXT	SEGMENT
$T1 = 32
ex$2 = 40
u$ = 64
v$ = 72
q$ = 80
$T3 = 88
r$ = 88
PMCCS_DivRem_X_X PROC					; COMDAT

; 656  :     {

$LN13:
  00000	40 53		 push	 rbx
  00002	48 83 ec 30	 sub	 rsp, 48			; 00000030H
  00006	48 c7 44 24 20
	fe ff ff ff	 mov	 QWORD PTR $T1[rsp], -2
  0000f	49 8b d9	 mov	 rbx, r9

; 657  :         if (r == nullptr)

  00012	4d 85 c9	 test	 r9, r9
  00015	75 0a		 jne	 SHORT $LN2@PMCCS_DivR

; 658  :             return (PMC_STATUS_ARGUMENT_NULL_ERROR);

  00017	41 8d 41 fe	 lea	 eax, QWORD PTR [r9-2]

; 667  :         }
; 668  :     }

  0001b	48 83 c4 30	 add	 rsp, 48			; 00000030H
  0001f	5b		 pop	 rbx
  00020	c3		 ret	 0
$LN2@PMCCS_DivR:

; 659  :         try
; 660  :         {
; 661  :             *r = PMC_DivRem_X_X(u, v, q);

  00021	e8 00 00 00 00	 call	 ?PMC_DivRem_X_X@Internal@Core@Math@Palmtree@@YAPEAU__tag_PMC_HANDLE_UINT@1234@PEAU51234@0PEAPEAU51234@@Z ; Palmtree::Math::Core::Internal::PMC_DivRem_X_X
  00026	48 89 03	 mov	 QWORD PTR [rbx], rax

; 662  :             return (PMC_STATUS_OK);

  00029	33 c0		 xor	 eax, eax
  0002b	eb 04		 jmp	 SHORT $LN7@PMCCS_DivR
$LN8@PMCCS_DivR:

; 663  :         }
; 664  :         catch (const Palmtree::Math::Core::Internal::Exception& ex)
; 665  :         {
; 666  :             return (ex.GetStatusCode());

  0002d	8b 44 24 58	 mov	 eax, DWORD PTR $T3[rsp]
$LN7@PMCCS_DivR:

; 667  :         }
; 668  :     }

  00031	48 83 c4 30	 add	 rsp, 48			; 00000030H
  00035	5b		 pop	 rbx
  00036	c3		 ret	 0
  00037	cc		 int	 3
PMCCS_DivRem_X_X ENDP
_TEXT	ENDS
;	COMDAT text$x
text$x	SEGMENT
$T1 = 32
ex$2 = 40
u$ = 64
v$ = 72
q$ = 80
$T3 = 88
r$ = 88
PMCCS_DivRem_X_X$catch$0 PROC

; 663  :         }
; 664  :         catch (const Palmtree::Math::Core::Internal::Exception& ex)
; 665  :         {

  00000	48 89 54 24 10	 mov	 QWORD PTR [rsp+16], rdx
  00005	55		 push	 rbp
  00006	48 83 ec 20	 sub	 rsp, 32			; 00000020H
  0000a	48 8b ea	 mov	 rbp, rdx
__catch$PMCCS_DivRem_X_X$0:
; File z:\sources\lunor\repos\rougemeilland\palmtree.math.core.uint\palmtree.math.core.uint\pmc_exception.h

; 75   :             return (_code);

  0000d	48 8b 45 28	 mov	 rax, QWORD PTR ex$2[rbp]
  00011	8b 48 18	 mov	 ecx, DWORD PTR [rax+24]
  00014	89 4d 58	 mov	 DWORD PTR $T3[rbp], ecx
; File z:\sources\lunor\repos\rougemeilland\palmtree.math.core.uint\palmtree.math.core.uint\pmc_interface_csharp.cpp

; 663  :         }
; 664  :         catch (const Palmtree::Math::Core::Internal::Exception& ex)
; 665  :         {
; 666  :             return (ex.GetStatusCode());

  00017	48 8d 05 00 00
	00 00		 lea	 rax, $LN8@PMCCS_DivR
  0001e	48 83 c4 20	 add	 rsp, 32			; 00000020H
  00022	5d		 pop	 rbp
  00023	c3		 ret	 0
  00024	cc		 int	 3
PMCCS_DivRem_X_X$catch$0 ENDP
text$x	ENDS
; Function compile flags: /Ogtpy
; File z:\sources\lunor\repos\rougemeilland\palmtree.math.core.uint\palmtree.math.core.uint\pmc_exception.h
; File z:\sources\lunor\repos\rougemeilland\palmtree.math.core.uint\palmtree.math.core.uint\pmc_interface_csharp.cpp
;	COMDAT text$x
text$x	SEGMENT
$T1 = 32
ex$2 = 40
u$ = 64
v$ = 72
q$ = 80
$T3 = 88
r$ = 88
PMCCS_DivRem_X_X$catch$0 PROC

; 665  :         {

  00000	48 89 54 24 10	 mov	 QWORD PTR [rsp+16], rdx
  00005	55		 push	 rbp
  00006	48 83 ec 20	 sub	 rsp, 32			; 00000020H
  0000a	48 8b ea	 mov	 rbp, rdx
__catch$PMCCS_DivRem_X_X$0:
; File z:\sources\lunor\repos\rougemeilland\palmtree.math.core.uint\palmtree.math.core.uint\pmc_exception.h

; 75   :             return (_code);

  0000d	48 8b 45 28	 mov	 rax, QWORD PTR ex$2[rbp]
  00011	8b 48 18	 mov	 ecx, DWORD PTR [rax+24]
  00014	89 4d 58	 mov	 DWORD PTR $T3[rbp], ecx
; File z:\sources\lunor\repos\rougemeilland\palmtree.math.core.uint\palmtree.math.core.uint\pmc_interface_csharp.cpp

; 666  :             return (ex.GetStatusCode());

  00017	48 8d 05 00 00
	00 00		 lea	 rax, $LN8@PMCCS_DivR
  0001e	48 83 c4 20	 add	 rsp, 32			; 00000020H
  00022	5d		 pop	 rbp
  00023	c3		 ret	 0
  00024	cc		 int	 3
PMCCS_DivRem_X_X$catch$0 ENDP
text$x	ENDS
; Function compile flags: /Ogtpy
; File z:\sources\lunor\repos\rougemeilland\palmtree.math.core.uint\palmtree.math.core.uint\pmc_interface_csharp.cpp
;	COMDAT PMCCS_DivRem_X_L
_TEXT	SEGMENT
$T1 = 32
ex$2 = 40
u$ = 64
v$ = 72
q$ = 80
$T3 = 88
r$ = 88
PMCCS_DivRem_X_L PROC					; COMDAT

; 641  :     {

$LN13:
  00000	40 53		 push	 rbx
  00002	48 83 ec 30	 sub	 rsp, 48			; 00000030H
  00006	48 c7 44 24 20
	fe ff ff ff	 mov	 QWORD PTR $T1[rsp], -2
  0000f	49 8b d9	 mov	 rbx, r9

; 642  :         if (r == nullptr)

  00012	4d 85 c9	 test	 r9, r9
  00015	75 0a		 jne	 SHORT $LN2@PMCCS_DivR

; 643  :             return (PMC_STATUS_ARGUMENT_NULL_ERROR);

  00017	41 8d 41 fe	 lea	 eax, QWORD PTR [r9-2]

; 652  :         }
; 653  :     }

  0001b	48 83 c4 30	 add	 rsp, 48			; 00000030H
  0001f	5b		 pop	 rbx
  00020	c3		 ret	 0
$LN2@PMCCS_DivR:

; 644  :         try
; 645  :         {
; 646  :             *r = PMC_DivRem_X_L(u, v, q);

  00021	e8 00 00 00 00	 call	 ?PMC_DivRem_X_L@Internal@Core@Math@Palmtree@@YA_KPEAU__tag_PMC_HANDLE_UINT@1234@_KPEAPEAU51234@@Z ; Palmtree::Math::Core::Internal::PMC_DivRem_X_L
  00026	48 89 03	 mov	 QWORD PTR [rbx], rax

; 647  :             return (PMC_STATUS_OK);

  00029	33 c0		 xor	 eax, eax
  0002b	eb 04		 jmp	 SHORT $LN7@PMCCS_DivR
$LN8@PMCCS_DivR:

; 648  :         }
; 649  :         catch (const Palmtree::Math::Core::Internal::Exception& ex)
; 650  :         {
; 651  :             return (ex.GetStatusCode());

  0002d	8b 44 24 58	 mov	 eax, DWORD PTR $T3[rsp]
$LN7@PMCCS_DivR:

; 652  :         }
; 653  :     }

  00031	48 83 c4 30	 add	 rsp, 48			; 00000030H
  00035	5b		 pop	 rbx
  00036	c3		 ret	 0
  00037	cc		 int	 3
PMCCS_DivRem_X_L ENDP
_TEXT	ENDS
;	COMDAT text$x
text$x	SEGMENT
$T1 = 32
ex$2 = 40
u$ = 64
v$ = 72
q$ = 80
$T3 = 88
r$ = 88
PMCCS_DivRem_X_L$catch$0 PROC

; 648  :         }
; 649  :         catch (const Palmtree::Math::Core::Internal::Exception& ex)
; 650  :         {

  00000	48 89 54 24 10	 mov	 QWORD PTR [rsp+16], rdx
  00005	55		 push	 rbp
  00006	48 83 ec 20	 sub	 rsp, 32			; 00000020H
  0000a	48 8b ea	 mov	 rbp, rdx
__catch$PMCCS_DivRem_X_L$0:
; File z:\sources\lunor\repos\rougemeilland\palmtree.math.core.uint\palmtree.math.core.uint\pmc_exception.h

; 75   :             return (_code);

  0000d	48 8b 45 28	 mov	 rax, QWORD PTR ex$2[rbp]
  00011	8b 48 18	 mov	 ecx, DWORD PTR [rax+24]
  00014	89 4d 58	 mov	 DWORD PTR $T3[rbp], ecx
; File z:\sources\lunor\repos\rougemeilland\palmtree.math.core.uint\palmtree.math.core.uint\pmc_interface_csharp.cpp

; 648  :         }
; 649  :         catch (const Palmtree::Math::Core::Internal::Exception& ex)
; 650  :         {
; 651  :             return (ex.GetStatusCode());

  00017	48 8d 05 00 00
	00 00		 lea	 rax, $LN8@PMCCS_DivR
  0001e	48 83 c4 20	 add	 rsp, 32			; 00000020H
  00022	5d		 pop	 rbp
  00023	c3		 ret	 0
  00024	cc		 int	 3
PMCCS_DivRem_X_L$catch$0 ENDP
text$x	ENDS
; Function compile flags: /Ogtpy
; File z:\sources\lunor\repos\rougemeilland\palmtree.math.core.uint\palmtree.math.core.uint\pmc_exception.h
; File z:\sources\lunor\repos\rougemeilland\palmtree.math.core.uint\palmtree.math.core.uint\pmc_interface_csharp.cpp
;	COMDAT text$x
text$x	SEGMENT
$T1 = 32
ex$2 = 40
u$ = 64
v$ = 72
q$ = 80
$T3 = 88
r$ = 88
PMCCS_DivRem_X_L$catch$0 PROC

; 650  :         {

  00000	48 89 54 24 10	 mov	 QWORD PTR [rsp+16], rdx
  00005	55		 push	 rbp
  00006	48 83 ec 20	 sub	 rsp, 32			; 00000020H
  0000a	48 8b ea	 mov	 rbp, rdx
__catch$PMCCS_DivRem_X_L$0:
; File z:\sources\lunor\repos\rougemeilland\palmtree.math.core.uint\palmtree.math.core.uint\pmc_exception.h

; 75   :             return (_code);

  0000d	48 8b 45 28	 mov	 rax, QWORD PTR ex$2[rbp]
  00011	8b 48 18	 mov	 ecx, DWORD PTR [rax+24]
  00014	89 4d 58	 mov	 DWORD PTR $T3[rbp], ecx
; File z:\sources\lunor\repos\rougemeilland\palmtree.math.core.uint\palmtree.math.core.uint\pmc_interface_csharp.cpp

; 651  :             return (ex.GetStatusCode());

  00017	48 8d 05 00 00
	00 00		 lea	 rax, $LN8@PMCCS_DivR
  0001e	48 83 c4 20	 add	 rsp, 32			; 00000020H
  00022	5d		 pop	 rbp
  00023	c3		 ret	 0
  00024	cc		 int	 3
PMCCS_DivRem_X_L$catch$0 ENDP
text$x	ENDS
; Function compile flags: /Ogtpy
; File z:\sources\lunor\repos\rougemeilland\palmtree.math.core.uint\palmtree.math.core.uint\pmc_interface_csharp.cpp
;	COMDAT PMCCS_DivRem_X_I
_TEXT	SEGMENT
$T1 = 32
ex$2 = 40
u$ = 64
v$ = 72
q$ = 80
$T3 = 88
r$ = 88
PMCCS_DivRem_X_I PROC					; COMDAT

; 626  :     {

$LN13:
  00000	40 53		 push	 rbx
  00002	48 83 ec 30	 sub	 rsp, 48			; 00000030H
  00006	48 c7 44 24 20
	fe ff ff ff	 mov	 QWORD PTR $T1[rsp], -2
  0000f	49 8b d9	 mov	 rbx, r9

; 627  :         if (r == nullptr)

  00012	4d 85 c9	 test	 r9, r9
  00015	75 0a		 jne	 SHORT $LN2@PMCCS_DivR

; 628  :             return (PMC_STATUS_ARGUMENT_NULL_ERROR);

  00017	41 8d 41 fe	 lea	 eax, QWORD PTR [r9-2]

; 637  :         }
; 638  :     }

  0001b	48 83 c4 30	 add	 rsp, 48			; 00000030H
  0001f	5b		 pop	 rbx
  00020	c3		 ret	 0
$LN2@PMCCS_DivR:

; 629  :         try
; 630  :         {
; 631  :             *r = PMC_DivRem_X_I(u, v, q);

  00021	e8 00 00 00 00	 call	 ?PMC_DivRem_X_I@Internal@Core@Math@Palmtree@@YAIPEAU__tag_PMC_HANDLE_UINT@1234@IPEAPEAU51234@@Z ; Palmtree::Math::Core::Internal::PMC_DivRem_X_I
  00026	89 03		 mov	 DWORD PTR [rbx], eax

; 632  :             return (PMC_STATUS_OK);

  00028	33 c0		 xor	 eax, eax
  0002a	eb 04		 jmp	 SHORT $LN7@PMCCS_DivR
$LN8@PMCCS_DivR:

; 633  :         }
; 634  :         catch (const Palmtree::Math::Core::Internal::Exception& ex)
; 635  :         {
; 636  :             return (ex.GetStatusCode());

  0002c	8b 44 24 58	 mov	 eax, DWORD PTR $T3[rsp]
$LN7@PMCCS_DivR:

; 637  :         }
; 638  :     }

  00030	48 83 c4 30	 add	 rsp, 48			; 00000030H
  00034	5b		 pop	 rbx
  00035	c3		 ret	 0
  00036	cc		 int	 3
PMCCS_DivRem_X_I ENDP
_TEXT	ENDS
;	COMDAT text$x
text$x	SEGMENT
$T1 = 32
ex$2 = 40
u$ = 64
v$ = 72
q$ = 80
$T3 = 88
r$ = 88
PMCCS_DivRem_X_I$catch$0 PROC

; 633  :         }
; 634  :         catch (const Palmtree::Math::Core::Internal::Exception& ex)
; 635  :         {

  00000	48 89 54 24 10	 mov	 QWORD PTR [rsp+16], rdx
  00005	55		 push	 rbp
  00006	48 83 ec 20	 sub	 rsp, 32			; 00000020H
  0000a	48 8b ea	 mov	 rbp, rdx
__catch$PMCCS_DivRem_X_I$0:
; File z:\sources\lunor\repos\rougemeilland\palmtree.math.core.uint\palmtree.math.core.uint\pmc_exception.h

; 75   :             return (_code);

  0000d	48 8b 45 28	 mov	 rax, QWORD PTR ex$2[rbp]
  00011	8b 48 18	 mov	 ecx, DWORD PTR [rax+24]
  00014	89 4d 58	 mov	 DWORD PTR $T3[rbp], ecx
; File z:\sources\lunor\repos\rougemeilland\palmtree.math.core.uint\palmtree.math.core.uint\pmc_interface_csharp.cpp

; 633  :         }
; 634  :         catch (const Palmtree::Math::Core::Internal::Exception& ex)
; 635  :         {
; 636  :             return (ex.GetStatusCode());

  00017	48 8d 05 00 00
	00 00		 lea	 rax, $LN8@PMCCS_DivR
  0001e	48 83 c4 20	 add	 rsp, 32			; 00000020H
  00022	5d		 pop	 rbp
  00023	c3		 ret	 0
  00024	cc		 int	 3
PMCCS_DivRem_X_I$catch$0 ENDP
text$x	ENDS
; Function compile flags: /Ogtpy
; File z:\sources\lunor\repos\rougemeilland\palmtree.math.core.uint\palmtree.math.core.uint\pmc_exception.h
; File z:\sources\lunor\repos\rougemeilland\palmtree.math.core.uint\palmtree.math.core.uint\pmc_interface_csharp.cpp
;	COMDAT text$x
text$x	SEGMENT
$T1 = 32
ex$2 = 40
u$ = 64
v$ = 72
q$ = 80
$T3 = 88
r$ = 88
PMCCS_DivRem_X_I$catch$0 PROC

; 635  :         {

  00000	48 89 54 24 10	 mov	 QWORD PTR [rsp+16], rdx
  00005	55		 push	 rbp
  00006	48 83 ec 20	 sub	 rsp, 32			; 00000020H
  0000a	48 8b ea	 mov	 rbp, rdx
__catch$PMCCS_DivRem_X_I$0:
; File z:\sources\lunor\repos\rougemeilland\palmtree.math.core.uint\palmtree.math.core.uint\pmc_exception.h

; 75   :             return (_code);

  0000d	48 8b 45 28	 mov	 rax, QWORD PTR ex$2[rbp]
  00011	8b 48 18	 mov	 ecx, DWORD PTR [rax+24]
  00014	89 4d 58	 mov	 DWORD PTR $T3[rbp], ecx
; File z:\sources\lunor\repos\rougemeilland\palmtree.math.core.uint\palmtree.math.core.uint\pmc_interface_csharp.cpp

; 636  :             return (ex.GetStatusCode());

  00017	48 8d 05 00 00
	00 00		 lea	 rax, $LN8@PMCCS_DivR
  0001e	48 83 c4 20	 add	 rsp, 32			; 00000020H
  00022	5d		 pop	 rbp
  00023	c3		 ret	 0
  00024	cc		 int	 3
PMCCS_DivRem_X_I$catch$0 ENDP
text$x	ENDS
; Function compile flags: /Ogtpy
; File z:\sources\lunor\repos\rougemeilland\palmtree.math.core.uint\palmtree.math.core.uint\pmc_interface_csharp.cpp
;	COMDAT PMCCS_DivRem_L_X
_TEXT	SEGMENT
$T1 = 32
ex$2 = 40
u$ = 64
v$ = 72
q$ = 80
$T3 = 88
r$ = 88
PMCCS_DivRem_L_X PROC					; COMDAT

; 611  :     {

$LN13:
  00000	40 53		 push	 rbx
  00002	48 83 ec 30	 sub	 rsp, 48			; 00000030H
  00006	48 c7 44 24 20
	fe ff ff ff	 mov	 QWORD PTR $T1[rsp], -2
  0000f	49 8b d9	 mov	 rbx, r9

; 612  :         if (r == nullptr)

  00012	4d 85 c9	 test	 r9, r9
  00015	75 0a		 jne	 SHORT $LN2@PMCCS_DivR

; 613  :             return (PMC_STATUS_ARGUMENT_NULL_ERROR);

  00017	41 8d 41 fe	 lea	 eax, QWORD PTR [r9-2]

; 622  :         }
; 623  :     }

  0001b	48 83 c4 30	 add	 rsp, 48			; 00000030H
  0001f	5b		 pop	 rbx
  00020	c3		 ret	 0
$LN2@PMCCS_DivR:

; 614  :         try
; 615  :         {
; 616  :             *r = PMC_DivRem_L_X(u, v, q);

  00021	e8 00 00 00 00	 call	 ?PMC_DivRem_L_X@Internal@Core@Math@Palmtree@@YA_K_KPEAU__tag_PMC_HANDLE_UINT@1234@PEA_K@Z ; Palmtree::Math::Core::Internal::PMC_DivRem_L_X
  00026	48 89 03	 mov	 QWORD PTR [rbx], rax

; 617  :             return (PMC_STATUS_OK);

  00029	33 c0		 xor	 eax, eax
  0002b	eb 04		 jmp	 SHORT $LN7@PMCCS_DivR
$LN8@PMCCS_DivR:

; 618  :         }
; 619  :         catch (const Palmtree::Math::Core::Internal::Exception& ex)
; 620  :         {
; 621  :             return (ex.GetStatusCode());

  0002d	8b 44 24 58	 mov	 eax, DWORD PTR $T3[rsp]
$LN7@PMCCS_DivR:

; 622  :         }
; 623  :     }

  00031	48 83 c4 30	 add	 rsp, 48			; 00000030H
  00035	5b		 pop	 rbx
  00036	c3		 ret	 0
  00037	cc		 int	 3
PMCCS_DivRem_L_X ENDP
_TEXT	ENDS
;	COMDAT text$x
text$x	SEGMENT
$T1 = 32
ex$2 = 40
u$ = 64
v$ = 72
q$ = 80
$T3 = 88
r$ = 88
PMCCS_DivRem_L_X$catch$0 PROC

; 618  :         }
; 619  :         catch (const Palmtree::Math::Core::Internal::Exception& ex)
; 620  :         {

  00000	48 89 54 24 10	 mov	 QWORD PTR [rsp+16], rdx
  00005	55		 push	 rbp
  00006	48 83 ec 20	 sub	 rsp, 32			; 00000020H
  0000a	48 8b ea	 mov	 rbp, rdx
__catch$PMCCS_DivRem_L_X$0:
; File z:\sources\lunor\repos\rougemeilland\palmtree.math.core.uint\palmtree.math.core.uint\pmc_exception.h

; 75   :             return (_code);

  0000d	48 8b 45 28	 mov	 rax, QWORD PTR ex$2[rbp]
  00011	8b 48 18	 mov	 ecx, DWORD PTR [rax+24]
  00014	89 4d 58	 mov	 DWORD PTR $T3[rbp], ecx
; File z:\sources\lunor\repos\rougemeilland\palmtree.math.core.uint\palmtree.math.core.uint\pmc_interface_csharp.cpp

; 618  :         }
; 619  :         catch (const Palmtree::Math::Core::Internal::Exception& ex)
; 620  :         {
; 621  :             return (ex.GetStatusCode());

  00017	48 8d 05 00 00
	00 00		 lea	 rax, $LN8@PMCCS_DivR
  0001e	48 83 c4 20	 add	 rsp, 32			; 00000020H
  00022	5d		 pop	 rbp
  00023	c3		 ret	 0
  00024	cc		 int	 3
PMCCS_DivRem_L_X$catch$0 ENDP
text$x	ENDS
; Function compile flags: /Ogtpy
; File z:\sources\lunor\repos\rougemeilland\palmtree.math.core.uint\palmtree.math.core.uint\pmc_exception.h
; File z:\sources\lunor\repos\rougemeilland\palmtree.math.core.uint\palmtree.math.core.uint\pmc_interface_csharp.cpp
;	COMDAT text$x
text$x	SEGMENT
$T1 = 32
ex$2 = 40
u$ = 64
v$ = 72
q$ = 80
$T3 = 88
r$ = 88
PMCCS_DivRem_L_X$catch$0 PROC

; 620  :         {

  00000	48 89 54 24 10	 mov	 QWORD PTR [rsp+16], rdx
  00005	55		 push	 rbp
  00006	48 83 ec 20	 sub	 rsp, 32			; 00000020H
  0000a	48 8b ea	 mov	 rbp, rdx
__catch$PMCCS_DivRem_L_X$0:
; File z:\sources\lunor\repos\rougemeilland\palmtree.math.core.uint\palmtree.math.core.uint\pmc_exception.h

; 75   :             return (_code);

  0000d	48 8b 45 28	 mov	 rax, QWORD PTR ex$2[rbp]
  00011	8b 48 18	 mov	 ecx, DWORD PTR [rax+24]
  00014	89 4d 58	 mov	 DWORD PTR $T3[rbp], ecx
; File z:\sources\lunor\repos\rougemeilland\palmtree.math.core.uint\palmtree.math.core.uint\pmc_interface_csharp.cpp

; 621  :             return (ex.GetStatusCode());

  00017	48 8d 05 00 00
	00 00		 lea	 rax, $LN8@PMCCS_DivR
  0001e	48 83 c4 20	 add	 rsp, 32			; 00000020H
  00022	5d		 pop	 rbp
  00023	c3		 ret	 0
  00024	cc		 int	 3
PMCCS_DivRem_L_X$catch$0 ENDP
text$x	ENDS
; Function compile flags: /Ogtpy
; File z:\sources\lunor\repos\rougemeilland\palmtree.math.core.uint\palmtree.math.core.uint\pmc_interface_csharp.cpp
;	COMDAT PMCCS_DivRem_I_X
_TEXT	SEGMENT
$T1 = 32
ex$2 = 40
u$ = 64
v$ = 72
q$ = 80
$T3 = 88
r$ = 88
PMCCS_DivRem_I_X PROC					; COMDAT

; 596  :     {

$LN13:
  00000	40 53		 push	 rbx
  00002	48 83 ec 30	 sub	 rsp, 48			; 00000030H
  00006	48 c7 44 24 20
	fe ff ff ff	 mov	 QWORD PTR $T1[rsp], -2
  0000f	49 8b d9	 mov	 rbx, r9

; 597  :         if (r == nullptr)

  00012	4d 85 c9	 test	 r9, r9
  00015	75 0a		 jne	 SHORT $LN2@PMCCS_DivR

; 598  :             return (PMC_STATUS_ARGUMENT_NULL_ERROR);

  00017	41 8d 41 fe	 lea	 eax, QWORD PTR [r9-2]

; 607  :         }
; 608  :     }

  0001b	48 83 c4 30	 add	 rsp, 48			; 00000030H
  0001f	5b		 pop	 rbx
  00020	c3		 ret	 0
$LN2@PMCCS_DivR:

; 599  :         try
; 600  :         {
; 601  :             *r = PMC_DivRem_I_X(u, v, q);

  00021	e8 00 00 00 00	 call	 ?PMC_DivRem_I_X@Internal@Core@Math@Palmtree@@YAIIPEAU__tag_PMC_HANDLE_UINT@1234@PEAI@Z ; Palmtree::Math::Core::Internal::PMC_DivRem_I_X
  00026	89 03		 mov	 DWORD PTR [rbx], eax

; 602  :             return (PMC_STATUS_OK);

  00028	33 c0		 xor	 eax, eax
  0002a	eb 04		 jmp	 SHORT $LN7@PMCCS_DivR
$LN8@PMCCS_DivR:

; 603  :         }
; 604  :         catch (const Palmtree::Math::Core::Internal::Exception& ex)
; 605  :         {
; 606  :             return (ex.GetStatusCode());

  0002c	8b 44 24 58	 mov	 eax, DWORD PTR $T3[rsp]
$LN7@PMCCS_DivR:

; 607  :         }
; 608  :     }

  00030	48 83 c4 30	 add	 rsp, 48			; 00000030H
  00034	5b		 pop	 rbx
  00035	c3		 ret	 0
  00036	cc		 int	 3
PMCCS_DivRem_I_X ENDP
_TEXT	ENDS
;	COMDAT text$x
text$x	SEGMENT
$T1 = 32
ex$2 = 40
u$ = 64
v$ = 72
q$ = 80
$T3 = 88
r$ = 88
PMCCS_DivRem_I_X$catch$0 PROC

; 603  :         }
; 604  :         catch (const Palmtree::Math::Core::Internal::Exception& ex)
; 605  :         {

  00000	48 89 54 24 10	 mov	 QWORD PTR [rsp+16], rdx
  00005	55		 push	 rbp
  00006	48 83 ec 20	 sub	 rsp, 32			; 00000020H
  0000a	48 8b ea	 mov	 rbp, rdx
__catch$PMCCS_DivRem_I_X$0:
; File z:\sources\lunor\repos\rougemeilland\palmtree.math.core.uint\palmtree.math.core.uint\pmc_exception.h

; 75   :             return (_code);

  0000d	48 8b 45 28	 mov	 rax, QWORD PTR ex$2[rbp]
  00011	8b 48 18	 mov	 ecx, DWORD PTR [rax+24]
  00014	89 4d 58	 mov	 DWORD PTR $T3[rbp], ecx
; File z:\sources\lunor\repos\rougemeilland\palmtree.math.core.uint\palmtree.math.core.uint\pmc_interface_csharp.cpp

; 603  :         }
; 604  :         catch (const Palmtree::Math::Core::Internal::Exception& ex)
; 605  :         {
; 606  :             return (ex.GetStatusCode());

  00017	48 8d 05 00 00
	00 00		 lea	 rax, $LN8@PMCCS_DivR
  0001e	48 83 c4 20	 add	 rsp, 32			; 00000020H
  00022	5d		 pop	 rbp
  00023	c3		 ret	 0
  00024	cc		 int	 3
PMCCS_DivRem_I_X$catch$0 ENDP
text$x	ENDS
; Function compile flags: /Ogtpy
; File z:\sources\lunor\repos\rougemeilland\palmtree.math.core.uint\palmtree.math.core.uint\pmc_exception.h
; File z:\sources\lunor\repos\rougemeilland\palmtree.math.core.uint\palmtree.math.core.uint\pmc_interface_csharp.cpp
;	COMDAT text$x
text$x	SEGMENT
$T1 = 32
ex$2 = 40
u$ = 64
v$ = 72
q$ = 80
$T3 = 88
r$ = 88
PMCCS_DivRem_I_X$catch$0 PROC

; 605  :         {

  00000	48 89 54 24 10	 mov	 QWORD PTR [rsp+16], rdx
  00005	55		 push	 rbp
  00006	48 83 ec 20	 sub	 rsp, 32			; 00000020H
  0000a	48 8b ea	 mov	 rbp, rdx
__catch$PMCCS_DivRem_I_X$0:
; File z:\sources\lunor\repos\rougemeilland\palmtree.math.core.uint\palmtree.math.core.uint\pmc_exception.h

; 75   :             return (_code);

  0000d	48 8b 45 28	 mov	 rax, QWORD PTR ex$2[rbp]
  00011	8b 48 18	 mov	 ecx, DWORD PTR [rax+24]
  00014	89 4d 58	 mov	 DWORD PTR $T3[rbp], ecx
; File z:\sources\lunor\repos\rougemeilland\palmtree.math.core.uint\palmtree.math.core.uint\pmc_interface_csharp.cpp

; 606  :             return (ex.GetStatusCode());

  00017	48 8d 05 00 00
	00 00		 lea	 rax, $LN8@PMCCS_DivR
  0001e	48 83 c4 20	 add	 rsp, 32			; 00000020H
  00022	5d		 pop	 rbp
  00023	c3		 ret	 0
  00024	cc		 int	 3
PMCCS_DivRem_I_X$catch$0 ENDP
text$x	ENDS
; Function compile flags: /Ogtpy
; File z:\sources\lunor\repos\rougemeilland\palmtree.math.core.uint\palmtree.math.core.uint\pmc_interface_csharp.cpp
;	COMDAT PMCCS_Multiply_X_X
_TEXT	SEGMENT
$T1 = 32
ex$2 = 40
u$ = 64
v$ = 72
$T3 = 80
w$ = 80
PMCCS_Multiply_X_X PROC					; COMDAT

; 581  :     {

$LN13:
  00000	40 53		 push	 rbx
  00002	48 83 ec 30	 sub	 rsp, 48			; 00000030H
  00006	48 c7 44 24 20
	fe ff ff ff	 mov	 QWORD PTR $T1[rsp], -2
  0000f	49 8b d8	 mov	 rbx, r8

; 582  :         if (w == nullptr)

  00012	4d 85 c0	 test	 r8, r8
  00015	75 0a		 jne	 SHORT $LN2@PMCCS_Mult

; 583  :             return (PMC_STATUS_ARGUMENT_NULL_ERROR);

  00017	41 8d 40 fe	 lea	 eax, QWORD PTR [r8-2]

; 592  :         }
; 593  :     }

  0001b	48 83 c4 30	 add	 rsp, 48			; 00000030H
  0001f	5b		 pop	 rbx
  00020	c3		 ret	 0
$LN2@PMCCS_Mult:

; 584  :         try
; 585  :         {
; 586  :             *w = PMC_Multiply_X_X(u, v);

  00021	e8 00 00 00 00	 call	 ?PMC_Multiply_X_X@Internal@Core@Math@Palmtree@@YAPEAU__tag_PMC_HANDLE_UINT@1234@PEAU51234@0@Z ; Palmtree::Math::Core::Internal::PMC_Multiply_X_X
  00026	48 89 03	 mov	 QWORD PTR [rbx], rax

; 587  :             return (PMC_STATUS_OK);

  00029	33 c0		 xor	 eax, eax
  0002b	eb 04		 jmp	 SHORT $LN7@PMCCS_Mult
$LN8@PMCCS_Mult:

; 588  :         }
; 589  :         catch (const Palmtree::Math::Core::Internal::Exception& ex)
; 590  :         {
; 591  :             return (ex.GetStatusCode());

  0002d	8b 44 24 50	 mov	 eax, DWORD PTR $T3[rsp]
$LN7@PMCCS_Mult:

; 592  :         }
; 593  :     }

  00031	48 83 c4 30	 add	 rsp, 48			; 00000030H
  00035	5b		 pop	 rbx
  00036	c3		 ret	 0
  00037	cc		 int	 3
PMCCS_Multiply_X_X ENDP
_TEXT	ENDS
;	COMDAT text$x
text$x	SEGMENT
$T1 = 32
ex$2 = 40
u$ = 64
v$ = 72
$T3 = 80
w$ = 80
PMCCS_Multiply_X_X$catch$0 PROC

; 588  :         }
; 589  :         catch (const Palmtree::Math::Core::Internal::Exception& ex)
; 590  :         {

  00000	48 89 54 24 10	 mov	 QWORD PTR [rsp+16], rdx
  00005	55		 push	 rbp
  00006	48 83 ec 20	 sub	 rsp, 32			; 00000020H
  0000a	48 8b ea	 mov	 rbp, rdx
__catch$PMCCS_Multiply_X_X$0:
; File z:\sources\lunor\repos\rougemeilland\palmtree.math.core.uint\palmtree.math.core.uint\pmc_exception.h

; 75   :             return (_code);

  0000d	48 8b 45 28	 mov	 rax, QWORD PTR ex$2[rbp]
  00011	8b 48 18	 mov	 ecx, DWORD PTR [rax+24]
  00014	89 4d 50	 mov	 DWORD PTR $T3[rbp], ecx
; File z:\sources\lunor\repos\rougemeilland\palmtree.math.core.uint\palmtree.math.core.uint\pmc_interface_csharp.cpp

; 588  :         }
; 589  :         catch (const Palmtree::Math::Core::Internal::Exception& ex)
; 590  :         {
; 591  :             return (ex.GetStatusCode());

  00017	48 8d 05 00 00
	00 00		 lea	 rax, $LN8@PMCCS_Mult
  0001e	48 83 c4 20	 add	 rsp, 32			; 00000020H
  00022	5d		 pop	 rbp
  00023	c3		 ret	 0
  00024	cc		 int	 3
PMCCS_Multiply_X_X$catch$0 ENDP
text$x	ENDS
; Function compile flags: /Ogtpy
; File z:\sources\lunor\repos\rougemeilland\palmtree.math.core.uint\palmtree.math.core.uint\pmc_exception.h
; File z:\sources\lunor\repos\rougemeilland\palmtree.math.core.uint\palmtree.math.core.uint\pmc_interface_csharp.cpp
;	COMDAT text$x
text$x	SEGMENT
$T1 = 32
ex$2 = 40
u$ = 64
v$ = 72
$T3 = 80
w$ = 80
PMCCS_Multiply_X_X$catch$0 PROC

; 590  :         {

  00000	48 89 54 24 10	 mov	 QWORD PTR [rsp+16], rdx
  00005	55		 push	 rbp
  00006	48 83 ec 20	 sub	 rsp, 32			; 00000020H
  0000a	48 8b ea	 mov	 rbp, rdx
__catch$PMCCS_Multiply_X_X$0:
; File z:\sources\lunor\repos\rougemeilland\palmtree.math.core.uint\palmtree.math.core.uint\pmc_exception.h

; 75   :             return (_code);

  0000d	48 8b 45 28	 mov	 rax, QWORD PTR ex$2[rbp]
  00011	8b 48 18	 mov	 ecx, DWORD PTR [rax+24]
  00014	89 4d 50	 mov	 DWORD PTR $T3[rbp], ecx
; File z:\sources\lunor\repos\rougemeilland\palmtree.math.core.uint\palmtree.math.core.uint\pmc_interface_csharp.cpp

; 591  :             return (ex.GetStatusCode());

  00017	48 8d 05 00 00
	00 00		 lea	 rax, $LN8@PMCCS_Mult
  0001e	48 83 c4 20	 add	 rsp, 32			; 00000020H
  00022	5d		 pop	 rbp
  00023	c3		 ret	 0
  00024	cc		 int	 3
PMCCS_Multiply_X_X$catch$0 ENDP
text$x	ENDS
; Function compile flags: /Ogtpy
; File z:\sources\lunor\repos\rougemeilland\palmtree.math.core.uint\palmtree.math.core.uint\pmc_interface_csharp.cpp
;	COMDAT PMCCS_Multiply_X_L
_TEXT	SEGMENT
$T1 = 32
ex$2 = 40
u$ = 64
v$ = 72
$T3 = 80
w$ = 80
PMCCS_Multiply_X_L PROC					; COMDAT

; 566  :     {

$LN13:
  00000	40 53		 push	 rbx
  00002	48 83 ec 30	 sub	 rsp, 48			; 00000030H
  00006	48 c7 44 24 20
	fe ff ff ff	 mov	 QWORD PTR $T1[rsp], -2
  0000f	49 8b d8	 mov	 rbx, r8

; 567  :         if (w == nullptr)

  00012	4d 85 c0	 test	 r8, r8
  00015	75 0a		 jne	 SHORT $LN2@PMCCS_Mult

; 568  :             return (PMC_STATUS_ARGUMENT_NULL_ERROR);

  00017	41 8d 40 fe	 lea	 eax, QWORD PTR [r8-2]

; 577  :         }
; 578  :     }

  0001b	48 83 c4 30	 add	 rsp, 48			; 00000030H
  0001f	5b		 pop	 rbx
  00020	c3		 ret	 0
$LN2@PMCCS_Mult:

; 569  :         try
; 570  :         {
; 571  :             *w = PMC_Multiply_X_L(u, v);

  00021	e8 00 00 00 00	 call	 ?PMC_Multiply_X_L@Internal@Core@Math@Palmtree@@YAPEAU__tag_PMC_HANDLE_UINT@1234@PEAU51234@_K@Z ; Palmtree::Math::Core::Internal::PMC_Multiply_X_L
  00026	48 89 03	 mov	 QWORD PTR [rbx], rax

; 572  :             return (PMC_STATUS_OK);

  00029	33 c0		 xor	 eax, eax
  0002b	eb 04		 jmp	 SHORT $LN7@PMCCS_Mult
$LN8@PMCCS_Mult:

; 573  :         }
; 574  :         catch (const Palmtree::Math::Core::Internal::Exception& ex)
; 575  :         {
; 576  :             return (ex.GetStatusCode());

  0002d	8b 44 24 50	 mov	 eax, DWORD PTR $T3[rsp]
$LN7@PMCCS_Mult:

; 577  :         }
; 578  :     }

  00031	48 83 c4 30	 add	 rsp, 48			; 00000030H
  00035	5b		 pop	 rbx
  00036	c3		 ret	 0
  00037	cc		 int	 3
PMCCS_Multiply_X_L ENDP
_TEXT	ENDS
;	COMDAT text$x
text$x	SEGMENT
$T1 = 32
ex$2 = 40
u$ = 64
v$ = 72
$T3 = 80
w$ = 80
PMCCS_Multiply_X_L$catch$0 PROC

; 573  :         }
; 574  :         catch (const Palmtree::Math::Core::Internal::Exception& ex)
; 575  :         {

  00000	48 89 54 24 10	 mov	 QWORD PTR [rsp+16], rdx
  00005	55		 push	 rbp
  00006	48 83 ec 20	 sub	 rsp, 32			; 00000020H
  0000a	48 8b ea	 mov	 rbp, rdx
__catch$PMCCS_Multiply_X_L$0:
; File z:\sources\lunor\repos\rougemeilland\palmtree.math.core.uint\palmtree.math.core.uint\pmc_exception.h

; 75   :             return (_code);

  0000d	48 8b 45 28	 mov	 rax, QWORD PTR ex$2[rbp]
  00011	8b 48 18	 mov	 ecx, DWORD PTR [rax+24]
  00014	89 4d 50	 mov	 DWORD PTR $T3[rbp], ecx
; File z:\sources\lunor\repos\rougemeilland\palmtree.math.core.uint\palmtree.math.core.uint\pmc_interface_csharp.cpp

; 573  :         }
; 574  :         catch (const Palmtree::Math::Core::Internal::Exception& ex)
; 575  :         {
; 576  :             return (ex.GetStatusCode());

  00017	48 8d 05 00 00
	00 00		 lea	 rax, $LN8@PMCCS_Mult
  0001e	48 83 c4 20	 add	 rsp, 32			; 00000020H
  00022	5d		 pop	 rbp
  00023	c3		 ret	 0
  00024	cc		 int	 3
PMCCS_Multiply_X_L$catch$0 ENDP
text$x	ENDS
; Function compile flags: /Ogtpy
; File z:\sources\lunor\repos\rougemeilland\palmtree.math.core.uint\palmtree.math.core.uint\pmc_exception.h
; File z:\sources\lunor\repos\rougemeilland\palmtree.math.core.uint\palmtree.math.core.uint\pmc_interface_csharp.cpp
;	COMDAT text$x
text$x	SEGMENT
$T1 = 32
ex$2 = 40
u$ = 64
v$ = 72
$T3 = 80
w$ = 80
PMCCS_Multiply_X_L$catch$0 PROC

; 575  :         {

  00000	48 89 54 24 10	 mov	 QWORD PTR [rsp+16], rdx
  00005	55		 push	 rbp
  00006	48 83 ec 20	 sub	 rsp, 32			; 00000020H
  0000a	48 8b ea	 mov	 rbp, rdx
__catch$PMCCS_Multiply_X_L$0:
; File z:\sources\lunor\repos\rougemeilland\palmtree.math.core.uint\palmtree.math.core.uint\pmc_exception.h

; 75   :             return (_code);

  0000d	48 8b 45 28	 mov	 rax, QWORD PTR ex$2[rbp]
  00011	8b 48 18	 mov	 ecx, DWORD PTR [rax+24]
  00014	89 4d 50	 mov	 DWORD PTR $T3[rbp], ecx
; File z:\sources\lunor\repos\rougemeilland\palmtree.math.core.uint\palmtree.math.core.uint\pmc_interface_csharp.cpp

; 576  :             return (ex.GetStatusCode());

  00017	48 8d 05 00 00
	00 00		 lea	 rax, $LN8@PMCCS_Mult
  0001e	48 83 c4 20	 add	 rsp, 32			; 00000020H
  00022	5d		 pop	 rbp
  00023	c3		 ret	 0
  00024	cc		 int	 3
PMCCS_Multiply_X_L$catch$0 ENDP
text$x	ENDS
; Function compile flags: /Ogtpy
; File z:\sources\lunor\repos\rougemeilland\palmtree.math.core.uint\palmtree.math.core.uint\pmc_interface_csharp.cpp
;	COMDAT PMCCS_Multiply_X_I
_TEXT	SEGMENT
$T1 = 32
ex$2 = 40
u$ = 64
v$ = 72
$T3 = 80
w$ = 80
PMCCS_Multiply_X_I PROC					; COMDAT

; 551  :     {

$LN13:
  00000	40 53		 push	 rbx
  00002	48 83 ec 30	 sub	 rsp, 48			; 00000030H
  00006	48 c7 44 24 20
	fe ff ff ff	 mov	 QWORD PTR $T1[rsp], -2
  0000f	49 8b d8	 mov	 rbx, r8

; 552  :         if (w == nullptr)

  00012	4d 85 c0	 test	 r8, r8
  00015	75 0a		 jne	 SHORT $LN2@PMCCS_Mult

; 553  :             return (PMC_STATUS_ARGUMENT_NULL_ERROR);

  00017	41 8d 40 fe	 lea	 eax, QWORD PTR [r8-2]

; 562  :         }
; 563  :     }

  0001b	48 83 c4 30	 add	 rsp, 48			; 00000030H
  0001f	5b		 pop	 rbx
  00020	c3		 ret	 0
$LN2@PMCCS_Mult:

; 554  :         try
; 555  :         {
; 556  :             *w = PMC_Multiply_X_I(u, v);

  00021	e8 00 00 00 00	 call	 ?PMC_Multiply_X_I@Internal@Core@Math@Palmtree@@YAPEAU__tag_PMC_HANDLE_UINT@1234@PEAU51234@I@Z ; Palmtree::Math::Core::Internal::PMC_Multiply_X_I
  00026	48 89 03	 mov	 QWORD PTR [rbx], rax

; 557  :             return (PMC_STATUS_OK);

  00029	33 c0		 xor	 eax, eax
  0002b	eb 04		 jmp	 SHORT $LN7@PMCCS_Mult
$LN8@PMCCS_Mult:

; 558  :         }
; 559  :         catch (const Palmtree::Math::Core::Internal::Exception& ex)
; 560  :         {
; 561  :             return (ex.GetStatusCode());

  0002d	8b 44 24 50	 mov	 eax, DWORD PTR $T3[rsp]
$LN7@PMCCS_Mult:

; 562  :         }
; 563  :     }

  00031	48 83 c4 30	 add	 rsp, 48			; 00000030H
  00035	5b		 pop	 rbx
  00036	c3		 ret	 0
  00037	cc		 int	 3
PMCCS_Multiply_X_I ENDP
_TEXT	ENDS
;	COMDAT text$x
text$x	SEGMENT
$T1 = 32
ex$2 = 40
u$ = 64
v$ = 72
$T3 = 80
w$ = 80
PMCCS_Multiply_X_I$catch$0 PROC

; 558  :         }
; 559  :         catch (const Palmtree::Math::Core::Internal::Exception& ex)
; 560  :         {

  00000	48 89 54 24 10	 mov	 QWORD PTR [rsp+16], rdx
  00005	55		 push	 rbp
  00006	48 83 ec 20	 sub	 rsp, 32			; 00000020H
  0000a	48 8b ea	 mov	 rbp, rdx
__catch$PMCCS_Multiply_X_I$0:
; File z:\sources\lunor\repos\rougemeilland\palmtree.math.core.uint\palmtree.math.core.uint\pmc_exception.h

; 75   :             return (_code);

  0000d	48 8b 45 28	 mov	 rax, QWORD PTR ex$2[rbp]
  00011	8b 48 18	 mov	 ecx, DWORD PTR [rax+24]
  00014	89 4d 50	 mov	 DWORD PTR $T3[rbp], ecx
; File z:\sources\lunor\repos\rougemeilland\palmtree.math.core.uint\palmtree.math.core.uint\pmc_interface_csharp.cpp

; 558  :         }
; 559  :         catch (const Palmtree::Math::Core::Internal::Exception& ex)
; 560  :         {
; 561  :             return (ex.GetStatusCode());

  00017	48 8d 05 00 00
	00 00		 lea	 rax, $LN8@PMCCS_Mult
  0001e	48 83 c4 20	 add	 rsp, 32			; 00000020H
  00022	5d		 pop	 rbp
  00023	c3		 ret	 0
  00024	cc		 int	 3
PMCCS_Multiply_X_I$catch$0 ENDP
text$x	ENDS
; Function compile flags: /Ogtpy
; File z:\sources\lunor\repos\rougemeilland\palmtree.math.core.uint\palmtree.math.core.uint\pmc_exception.h
; File z:\sources\lunor\repos\rougemeilland\palmtree.math.core.uint\palmtree.math.core.uint\pmc_interface_csharp.cpp
;	COMDAT text$x
text$x	SEGMENT
$T1 = 32
ex$2 = 40
u$ = 64
v$ = 72
$T3 = 80
w$ = 80
PMCCS_Multiply_X_I$catch$0 PROC

; 560  :         {

  00000	48 89 54 24 10	 mov	 QWORD PTR [rsp+16], rdx
  00005	55		 push	 rbp
  00006	48 83 ec 20	 sub	 rsp, 32			; 00000020H
  0000a	48 8b ea	 mov	 rbp, rdx
__catch$PMCCS_Multiply_X_I$0:
; File z:\sources\lunor\repos\rougemeilland\palmtree.math.core.uint\palmtree.math.core.uint\pmc_exception.h

; 75   :             return (_code);

  0000d	48 8b 45 28	 mov	 rax, QWORD PTR ex$2[rbp]
  00011	8b 48 18	 mov	 ecx, DWORD PTR [rax+24]
  00014	89 4d 50	 mov	 DWORD PTR $T3[rbp], ecx
; File z:\sources\lunor\repos\rougemeilland\palmtree.math.core.uint\palmtree.math.core.uint\pmc_interface_csharp.cpp

; 561  :             return (ex.GetStatusCode());

  00017	48 8d 05 00 00
	00 00		 lea	 rax, $LN8@PMCCS_Mult
  0001e	48 83 c4 20	 add	 rsp, 32			; 00000020H
  00022	5d		 pop	 rbp
  00023	c3		 ret	 0
  00024	cc		 int	 3
PMCCS_Multiply_X_I$catch$0 ENDP
text$x	ENDS
; Function compile flags: /Ogtpy
; File z:\sources\lunor\repos\rougemeilland\palmtree.math.core.uint\palmtree.math.core.uint\pmc_interface_csharp.cpp
;	COMDAT PMCCS_Multiply_L_X
_TEXT	SEGMENT
$T1 = 32
ex$2 = 40
u$ = 64
v$ = 72
$T3 = 80
w$ = 80
PMCCS_Multiply_L_X PROC					; COMDAT

; 536  :     {

$LN13:
  00000	40 53		 push	 rbx
  00002	48 83 ec 30	 sub	 rsp, 48			; 00000030H
  00006	48 c7 44 24 20
	fe ff ff ff	 mov	 QWORD PTR $T1[rsp], -2
  0000f	49 8b d8	 mov	 rbx, r8

; 537  :         if (w == nullptr)

  00012	4d 85 c0	 test	 r8, r8
  00015	75 0a		 jne	 SHORT $LN2@PMCCS_Mult

; 538  :             return (PMC_STATUS_ARGUMENT_NULL_ERROR);

  00017	41 8d 40 fe	 lea	 eax, QWORD PTR [r8-2]

; 547  :         }
; 548  :     }

  0001b	48 83 c4 30	 add	 rsp, 48			; 00000030H
  0001f	5b		 pop	 rbx
  00020	c3		 ret	 0
$LN2@PMCCS_Mult:

; 539  :         try
; 540  :         {
; 541  :             *w = PMC_Multiply_L_X(u, v);

  00021	e8 00 00 00 00	 call	 ?PMC_Multiply_L_X@Internal@Core@Math@Palmtree@@YAPEAU__tag_PMC_HANDLE_UINT@1234@_KPEAU51234@@Z ; Palmtree::Math::Core::Internal::PMC_Multiply_L_X
  00026	48 89 03	 mov	 QWORD PTR [rbx], rax

; 542  :             return (PMC_STATUS_OK);

  00029	33 c0		 xor	 eax, eax
  0002b	eb 04		 jmp	 SHORT $LN7@PMCCS_Mult
$LN8@PMCCS_Mult:

; 543  :         }
; 544  :         catch (const Palmtree::Math::Core::Internal::Exception& ex)
; 545  :         {
; 546  :             return (ex.GetStatusCode());

  0002d	8b 44 24 50	 mov	 eax, DWORD PTR $T3[rsp]
$LN7@PMCCS_Mult:

; 547  :         }
; 548  :     }

  00031	48 83 c4 30	 add	 rsp, 48			; 00000030H
  00035	5b		 pop	 rbx
  00036	c3		 ret	 0
  00037	cc		 int	 3
PMCCS_Multiply_L_X ENDP
_TEXT	ENDS
;	COMDAT text$x
text$x	SEGMENT
$T1 = 32
ex$2 = 40
u$ = 64
v$ = 72
$T3 = 80
w$ = 80
PMCCS_Multiply_L_X$catch$0 PROC

; 543  :         }
; 544  :         catch (const Palmtree::Math::Core::Internal::Exception& ex)
; 545  :         {

  00000	48 89 54 24 10	 mov	 QWORD PTR [rsp+16], rdx
  00005	55		 push	 rbp
  00006	48 83 ec 20	 sub	 rsp, 32			; 00000020H
  0000a	48 8b ea	 mov	 rbp, rdx
__catch$PMCCS_Multiply_L_X$0:
; File z:\sources\lunor\repos\rougemeilland\palmtree.math.core.uint\palmtree.math.core.uint\pmc_exception.h

; 75   :             return (_code);

  0000d	48 8b 45 28	 mov	 rax, QWORD PTR ex$2[rbp]
  00011	8b 48 18	 mov	 ecx, DWORD PTR [rax+24]
  00014	89 4d 50	 mov	 DWORD PTR $T3[rbp], ecx
; File z:\sources\lunor\repos\rougemeilland\palmtree.math.core.uint\palmtree.math.core.uint\pmc_interface_csharp.cpp

; 543  :         }
; 544  :         catch (const Palmtree::Math::Core::Internal::Exception& ex)
; 545  :         {
; 546  :             return (ex.GetStatusCode());

  00017	48 8d 05 00 00
	00 00		 lea	 rax, $LN8@PMCCS_Mult
  0001e	48 83 c4 20	 add	 rsp, 32			; 00000020H
  00022	5d		 pop	 rbp
  00023	c3		 ret	 0
  00024	cc		 int	 3
PMCCS_Multiply_L_X$catch$0 ENDP
text$x	ENDS
; Function compile flags: /Ogtpy
; File z:\sources\lunor\repos\rougemeilland\palmtree.math.core.uint\palmtree.math.core.uint\pmc_exception.h
; File z:\sources\lunor\repos\rougemeilland\palmtree.math.core.uint\palmtree.math.core.uint\pmc_interface_csharp.cpp
;	COMDAT text$x
text$x	SEGMENT
$T1 = 32
ex$2 = 40
u$ = 64
v$ = 72
$T3 = 80
w$ = 80
PMCCS_Multiply_L_X$catch$0 PROC

; 545  :         {

  00000	48 89 54 24 10	 mov	 QWORD PTR [rsp+16], rdx
  00005	55		 push	 rbp
  00006	48 83 ec 20	 sub	 rsp, 32			; 00000020H
  0000a	48 8b ea	 mov	 rbp, rdx
__catch$PMCCS_Multiply_L_X$0:
; File z:\sources\lunor\repos\rougemeilland\palmtree.math.core.uint\palmtree.math.core.uint\pmc_exception.h

; 75   :             return (_code);

  0000d	48 8b 45 28	 mov	 rax, QWORD PTR ex$2[rbp]
  00011	8b 48 18	 mov	 ecx, DWORD PTR [rax+24]
  00014	89 4d 50	 mov	 DWORD PTR $T3[rbp], ecx
; File z:\sources\lunor\repos\rougemeilland\palmtree.math.core.uint\palmtree.math.core.uint\pmc_interface_csharp.cpp

; 546  :             return (ex.GetStatusCode());

  00017	48 8d 05 00 00
	00 00		 lea	 rax, $LN8@PMCCS_Mult
  0001e	48 83 c4 20	 add	 rsp, 32			; 00000020H
  00022	5d		 pop	 rbp
  00023	c3		 ret	 0
  00024	cc		 int	 3
PMCCS_Multiply_L_X$catch$0 ENDP
text$x	ENDS
; Function compile flags: /Ogtpy
; File z:\sources\lunor\repos\rougemeilland\palmtree.math.core.uint\palmtree.math.core.uint\pmc_interface_csharp.cpp
;	COMDAT PMCCS_Multiply_I_X
_TEXT	SEGMENT
$T1 = 32
ex$2 = 40
u$ = 64
v$ = 72
$T3 = 80
w$ = 80
PMCCS_Multiply_I_X PROC					; COMDAT

; 521  :     {

$LN13:
  00000	40 53		 push	 rbx
  00002	48 83 ec 30	 sub	 rsp, 48			; 00000030H
  00006	48 c7 44 24 20
	fe ff ff ff	 mov	 QWORD PTR $T1[rsp], -2
  0000f	49 8b d8	 mov	 rbx, r8

; 522  :         if (w == nullptr)

  00012	4d 85 c0	 test	 r8, r8
  00015	75 0a		 jne	 SHORT $LN2@PMCCS_Mult

; 523  :             return (PMC_STATUS_ARGUMENT_NULL_ERROR);

  00017	41 8d 40 fe	 lea	 eax, QWORD PTR [r8-2]

; 532  :         }
; 533  :     }

  0001b	48 83 c4 30	 add	 rsp, 48			; 00000030H
  0001f	5b		 pop	 rbx
  00020	c3		 ret	 0
$LN2@PMCCS_Mult:

; 524  :         try
; 525  :         {
; 526  :             *w = PMC_Multiply_I_X(u, v);

  00021	e8 00 00 00 00	 call	 ?PMC_Multiply_I_X@Internal@Core@Math@Palmtree@@YAPEAU__tag_PMC_HANDLE_UINT@1234@IPEAU51234@@Z ; Palmtree::Math::Core::Internal::PMC_Multiply_I_X
  00026	48 89 03	 mov	 QWORD PTR [rbx], rax

; 527  :             return (PMC_STATUS_OK);

  00029	33 c0		 xor	 eax, eax
  0002b	eb 04		 jmp	 SHORT $LN7@PMCCS_Mult
$LN8@PMCCS_Mult:

; 528  :         }
; 529  :         catch (const Palmtree::Math::Core::Internal::Exception& ex)
; 530  :         {
; 531  :             return (ex.GetStatusCode());

  0002d	8b 44 24 50	 mov	 eax, DWORD PTR $T3[rsp]
$LN7@PMCCS_Mult:

; 532  :         }
; 533  :     }

  00031	48 83 c4 30	 add	 rsp, 48			; 00000030H
  00035	5b		 pop	 rbx
  00036	c3		 ret	 0
  00037	cc		 int	 3
PMCCS_Multiply_I_X ENDP
_TEXT	ENDS
;	COMDAT text$x
text$x	SEGMENT
$T1 = 32
ex$2 = 40
u$ = 64
v$ = 72
$T3 = 80
w$ = 80
PMCCS_Multiply_I_X$catch$0 PROC

; 528  :         }
; 529  :         catch (const Palmtree::Math::Core::Internal::Exception& ex)
; 530  :         {

  00000	48 89 54 24 10	 mov	 QWORD PTR [rsp+16], rdx
  00005	55		 push	 rbp
  00006	48 83 ec 20	 sub	 rsp, 32			; 00000020H
  0000a	48 8b ea	 mov	 rbp, rdx
__catch$PMCCS_Multiply_I_X$0:
; File z:\sources\lunor\repos\rougemeilland\palmtree.math.core.uint\palmtree.math.core.uint\pmc_exception.h

; 75   :             return (_code);

  0000d	48 8b 45 28	 mov	 rax, QWORD PTR ex$2[rbp]
  00011	8b 48 18	 mov	 ecx, DWORD PTR [rax+24]
  00014	89 4d 50	 mov	 DWORD PTR $T3[rbp], ecx
; File z:\sources\lunor\repos\rougemeilland\palmtree.math.core.uint\palmtree.math.core.uint\pmc_interface_csharp.cpp

; 528  :         }
; 529  :         catch (const Palmtree::Math::Core::Internal::Exception& ex)
; 530  :         {
; 531  :             return (ex.GetStatusCode());

  00017	48 8d 05 00 00
	00 00		 lea	 rax, $LN8@PMCCS_Mult
  0001e	48 83 c4 20	 add	 rsp, 32			; 00000020H
  00022	5d		 pop	 rbp
  00023	c3		 ret	 0
  00024	cc		 int	 3
PMCCS_Multiply_I_X$catch$0 ENDP
text$x	ENDS
; Function compile flags: /Ogtpy
; File z:\sources\lunor\repos\rougemeilland\palmtree.math.core.uint\palmtree.math.core.uint\pmc_exception.h
; File z:\sources\lunor\repos\rougemeilland\palmtree.math.core.uint\palmtree.math.core.uint\pmc_interface_csharp.cpp
;	COMDAT text$x
text$x	SEGMENT
$T1 = 32
ex$2 = 40
u$ = 64
v$ = 72
$T3 = 80
w$ = 80
PMCCS_Multiply_I_X$catch$0 PROC

; 530  :         {

  00000	48 89 54 24 10	 mov	 QWORD PTR [rsp+16], rdx
  00005	55		 push	 rbp
  00006	48 83 ec 20	 sub	 rsp, 32			; 00000020H
  0000a	48 8b ea	 mov	 rbp, rdx
__catch$PMCCS_Multiply_I_X$0:
; File z:\sources\lunor\repos\rougemeilland\palmtree.math.core.uint\palmtree.math.core.uint\pmc_exception.h

; 75   :             return (_code);

  0000d	48 8b 45 28	 mov	 rax, QWORD PTR ex$2[rbp]
  00011	8b 48 18	 mov	 ecx, DWORD PTR [rax+24]
  00014	89 4d 50	 mov	 DWORD PTR $T3[rbp], ecx
; File z:\sources\lunor\repos\rougemeilland\palmtree.math.core.uint\palmtree.math.core.uint\pmc_interface_csharp.cpp

; 531  :             return (ex.GetStatusCode());

  00017	48 8d 05 00 00
	00 00		 lea	 rax, $LN8@PMCCS_Mult
  0001e	48 83 c4 20	 add	 rsp, 32			; 00000020H
  00022	5d		 pop	 rbp
  00023	c3		 ret	 0
  00024	cc		 int	 3
PMCCS_Multiply_I_X$catch$0 ENDP
text$x	ENDS
; Function compile flags: /Ogtpy
; File z:\sources\lunor\repos\rougemeilland\palmtree.math.core.uint\palmtree.math.core.uint\pmc_interface_csharp.cpp
;	COMDAT PMCCS_Subtruct_X_X
_TEXT	SEGMENT
$T1 = 32
ex$2 = 40
u$ = 64
v$ = 72
$T3 = 80
w$ = 80
PMCCS_Subtruct_X_X PROC					; COMDAT

; 506  :     {

$LN13:
  00000	40 53		 push	 rbx
  00002	48 83 ec 30	 sub	 rsp, 48			; 00000030H
  00006	48 c7 44 24 20
	fe ff ff ff	 mov	 QWORD PTR $T1[rsp], -2
  0000f	49 8b d8	 mov	 rbx, r8

; 507  :         if (w == nullptr)

  00012	4d 85 c0	 test	 r8, r8
  00015	75 0a		 jne	 SHORT $LN2@PMCCS_Subt

; 508  :             return (PMC_STATUS_ARGUMENT_NULL_ERROR);

  00017	41 8d 40 fe	 lea	 eax, QWORD PTR [r8-2]

; 517  :         }
; 518  :     }

  0001b	48 83 c4 30	 add	 rsp, 48			; 00000030H
  0001f	5b		 pop	 rbx
  00020	c3		 ret	 0
$LN2@PMCCS_Subt:

; 509  :         try
; 510  :         {
; 511  :             *w = PMC_Subtruct_X_X(u, v);

  00021	e8 00 00 00 00	 call	 ?PMC_Subtruct_X_X@Internal@Core@Math@Palmtree@@YAPEAU__tag_PMC_HANDLE_UINT@1234@PEAU51234@0@Z ; Palmtree::Math::Core::Internal::PMC_Subtruct_X_X
  00026	48 89 03	 mov	 QWORD PTR [rbx], rax

; 512  :             return (PMC_STATUS_OK);

  00029	33 c0		 xor	 eax, eax
  0002b	eb 04		 jmp	 SHORT $LN7@PMCCS_Subt
$LN8@PMCCS_Subt:

; 513  :         }
; 514  :         catch (const Palmtree::Math::Core::Internal::Exception& ex)
; 515  :         {
; 516  :             return (ex.GetStatusCode());

  0002d	8b 44 24 50	 mov	 eax, DWORD PTR $T3[rsp]
$LN7@PMCCS_Subt:

; 517  :         }
; 518  :     }

  00031	48 83 c4 30	 add	 rsp, 48			; 00000030H
  00035	5b		 pop	 rbx
  00036	c3		 ret	 0
  00037	cc		 int	 3
PMCCS_Subtruct_X_X ENDP
_TEXT	ENDS
;	COMDAT text$x
text$x	SEGMENT
$T1 = 32
ex$2 = 40
u$ = 64
v$ = 72
$T3 = 80
w$ = 80
PMCCS_Subtruct_X_X$catch$0 PROC

; 513  :         }
; 514  :         catch (const Palmtree::Math::Core::Internal::Exception& ex)
; 515  :         {

  00000	48 89 54 24 10	 mov	 QWORD PTR [rsp+16], rdx
  00005	55		 push	 rbp
  00006	48 83 ec 20	 sub	 rsp, 32			; 00000020H
  0000a	48 8b ea	 mov	 rbp, rdx
__catch$PMCCS_Subtruct_X_X$0:
; File z:\sources\lunor\repos\rougemeilland\palmtree.math.core.uint\palmtree.math.core.uint\pmc_exception.h

; 75   :             return (_code);

  0000d	48 8b 45 28	 mov	 rax, QWORD PTR ex$2[rbp]
  00011	8b 48 18	 mov	 ecx, DWORD PTR [rax+24]
  00014	89 4d 50	 mov	 DWORD PTR $T3[rbp], ecx
; File z:\sources\lunor\repos\rougemeilland\palmtree.math.core.uint\palmtree.math.core.uint\pmc_interface_csharp.cpp

; 513  :         }
; 514  :         catch (const Palmtree::Math::Core::Internal::Exception& ex)
; 515  :         {
; 516  :             return (ex.GetStatusCode());

  00017	48 8d 05 00 00
	00 00		 lea	 rax, $LN8@PMCCS_Subt
  0001e	48 83 c4 20	 add	 rsp, 32			; 00000020H
  00022	5d		 pop	 rbp
  00023	c3		 ret	 0
  00024	cc		 int	 3
PMCCS_Subtruct_X_X$catch$0 ENDP
text$x	ENDS
; Function compile flags: /Ogtpy
; File z:\sources\lunor\repos\rougemeilland\palmtree.math.core.uint\palmtree.math.core.uint\pmc_exception.h
; File z:\sources\lunor\repos\rougemeilland\palmtree.math.core.uint\palmtree.math.core.uint\pmc_interface_csharp.cpp
;	COMDAT text$x
text$x	SEGMENT
$T1 = 32
ex$2 = 40
u$ = 64
v$ = 72
$T3 = 80
w$ = 80
PMCCS_Subtruct_X_X$catch$0 PROC

; 515  :         {

  00000	48 89 54 24 10	 mov	 QWORD PTR [rsp+16], rdx
  00005	55		 push	 rbp
  00006	48 83 ec 20	 sub	 rsp, 32			; 00000020H
  0000a	48 8b ea	 mov	 rbp, rdx
__catch$PMCCS_Subtruct_X_X$0:
; File z:\sources\lunor\repos\rougemeilland\palmtree.math.core.uint\palmtree.math.core.uint\pmc_exception.h

; 75   :             return (_code);

  0000d	48 8b 45 28	 mov	 rax, QWORD PTR ex$2[rbp]
  00011	8b 48 18	 mov	 ecx, DWORD PTR [rax+24]
  00014	89 4d 50	 mov	 DWORD PTR $T3[rbp], ecx
; File z:\sources\lunor\repos\rougemeilland\palmtree.math.core.uint\palmtree.math.core.uint\pmc_interface_csharp.cpp

; 516  :             return (ex.GetStatusCode());

  00017	48 8d 05 00 00
	00 00		 lea	 rax, $LN8@PMCCS_Subt
  0001e	48 83 c4 20	 add	 rsp, 32			; 00000020H
  00022	5d		 pop	 rbp
  00023	c3		 ret	 0
  00024	cc		 int	 3
PMCCS_Subtruct_X_X$catch$0 ENDP
text$x	ENDS
; Function compile flags: /Ogtpy
; File z:\sources\lunor\repos\rougemeilland\palmtree.math.core.uint\palmtree.math.core.uint\pmc_interface_csharp.cpp
;	COMDAT PMCCS_Subtruct_X_L
_TEXT	SEGMENT
$T1 = 32
ex$2 = 40
u$ = 64
v$ = 72
$T3 = 80
w$ = 80
PMCCS_Subtruct_X_L PROC					; COMDAT

; 491  :     {

$LN13:
  00000	40 53		 push	 rbx
  00002	48 83 ec 30	 sub	 rsp, 48			; 00000030H
  00006	48 c7 44 24 20
	fe ff ff ff	 mov	 QWORD PTR $T1[rsp], -2
  0000f	49 8b d8	 mov	 rbx, r8

; 492  :         if (w == nullptr)

  00012	4d 85 c0	 test	 r8, r8
  00015	75 0a		 jne	 SHORT $LN2@PMCCS_Subt

; 493  :             return (PMC_STATUS_ARGUMENT_NULL_ERROR);

  00017	41 8d 40 fe	 lea	 eax, QWORD PTR [r8-2]

; 502  :         }
; 503  :     }

  0001b	48 83 c4 30	 add	 rsp, 48			; 00000030H
  0001f	5b		 pop	 rbx
  00020	c3		 ret	 0
$LN2@PMCCS_Subt:

; 494  :         try
; 495  :         {
; 496  :             *w = PMC_Subtruct_X_L(u, v);

  00021	e8 00 00 00 00	 call	 ?PMC_Subtruct_X_L@Internal@Core@Math@Palmtree@@YAPEAU__tag_PMC_HANDLE_UINT@1234@PEAU51234@_K@Z ; Palmtree::Math::Core::Internal::PMC_Subtruct_X_L
  00026	48 89 03	 mov	 QWORD PTR [rbx], rax

; 497  :             return (PMC_STATUS_OK);

  00029	33 c0		 xor	 eax, eax
  0002b	eb 04		 jmp	 SHORT $LN7@PMCCS_Subt
$LN8@PMCCS_Subt:

; 498  :         }
; 499  :         catch (const Palmtree::Math::Core::Internal::Exception& ex)
; 500  :         {
; 501  :             return (ex.GetStatusCode());

  0002d	8b 44 24 50	 mov	 eax, DWORD PTR $T3[rsp]
$LN7@PMCCS_Subt:

; 502  :         }
; 503  :     }

  00031	48 83 c4 30	 add	 rsp, 48			; 00000030H
  00035	5b		 pop	 rbx
  00036	c3		 ret	 0
  00037	cc		 int	 3
PMCCS_Subtruct_X_L ENDP
_TEXT	ENDS
;	COMDAT text$x
text$x	SEGMENT
$T1 = 32
ex$2 = 40
u$ = 64
v$ = 72
$T3 = 80
w$ = 80
PMCCS_Subtruct_X_L$catch$0 PROC

; 498  :         }
; 499  :         catch (const Palmtree::Math::Core::Internal::Exception& ex)
; 500  :         {

  00000	48 89 54 24 10	 mov	 QWORD PTR [rsp+16], rdx
  00005	55		 push	 rbp
  00006	48 83 ec 20	 sub	 rsp, 32			; 00000020H
  0000a	48 8b ea	 mov	 rbp, rdx
__catch$PMCCS_Subtruct_X_L$0:
; File z:\sources\lunor\repos\rougemeilland\palmtree.math.core.uint\palmtree.math.core.uint\pmc_exception.h

; 75   :             return (_code);

  0000d	48 8b 45 28	 mov	 rax, QWORD PTR ex$2[rbp]
  00011	8b 48 18	 mov	 ecx, DWORD PTR [rax+24]
  00014	89 4d 50	 mov	 DWORD PTR $T3[rbp], ecx
; File z:\sources\lunor\repos\rougemeilland\palmtree.math.core.uint\palmtree.math.core.uint\pmc_interface_csharp.cpp

; 498  :         }
; 499  :         catch (const Palmtree::Math::Core::Internal::Exception& ex)
; 500  :         {
; 501  :             return (ex.GetStatusCode());

  00017	48 8d 05 00 00
	00 00		 lea	 rax, $LN8@PMCCS_Subt
  0001e	48 83 c4 20	 add	 rsp, 32			; 00000020H
  00022	5d		 pop	 rbp
  00023	c3		 ret	 0
  00024	cc		 int	 3
PMCCS_Subtruct_X_L$catch$0 ENDP
text$x	ENDS
; Function compile flags: /Ogtpy
; File z:\sources\lunor\repos\rougemeilland\palmtree.math.core.uint\palmtree.math.core.uint\pmc_exception.h
; File z:\sources\lunor\repos\rougemeilland\palmtree.math.core.uint\palmtree.math.core.uint\pmc_interface_csharp.cpp
;	COMDAT text$x
text$x	SEGMENT
$T1 = 32
ex$2 = 40
u$ = 64
v$ = 72
$T3 = 80
w$ = 80
PMCCS_Subtruct_X_L$catch$0 PROC

; 500  :         {

  00000	48 89 54 24 10	 mov	 QWORD PTR [rsp+16], rdx
  00005	55		 push	 rbp
  00006	48 83 ec 20	 sub	 rsp, 32			; 00000020H
  0000a	48 8b ea	 mov	 rbp, rdx
__catch$PMCCS_Subtruct_X_L$0:
; File z:\sources\lunor\repos\rougemeilland\palmtree.math.core.uint\palmtree.math.core.uint\pmc_exception.h

; 75   :             return (_code);

  0000d	48 8b 45 28	 mov	 rax, QWORD PTR ex$2[rbp]
  00011	8b 48 18	 mov	 ecx, DWORD PTR [rax+24]
  00014	89 4d 50	 mov	 DWORD PTR $T3[rbp], ecx
; File z:\sources\lunor\repos\rougemeilland\palmtree.math.core.uint\palmtree.math.core.uint\pmc_interface_csharp.cpp

; 501  :             return (ex.GetStatusCode());

  00017	48 8d 05 00 00
	00 00		 lea	 rax, $LN8@PMCCS_Subt
  0001e	48 83 c4 20	 add	 rsp, 32			; 00000020H
  00022	5d		 pop	 rbp
  00023	c3		 ret	 0
  00024	cc		 int	 3
PMCCS_Subtruct_X_L$catch$0 ENDP
text$x	ENDS
; Function compile flags: /Ogtpy
; File z:\sources\lunor\repos\rougemeilland\palmtree.math.core.uint\palmtree.math.core.uint\pmc_interface_csharp.cpp
;	COMDAT PMCCS_Subtruct_X_I
_TEXT	SEGMENT
$T1 = 32
ex$2 = 40
u$ = 64
v$ = 72
$T3 = 80
w$ = 80
PMCCS_Subtruct_X_I PROC					; COMDAT

; 476  :     {

$LN13:
  00000	40 53		 push	 rbx
  00002	48 83 ec 30	 sub	 rsp, 48			; 00000030H
  00006	48 c7 44 24 20
	fe ff ff ff	 mov	 QWORD PTR $T1[rsp], -2
  0000f	49 8b d8	 mov	 rbx, r8

; 477  :         if (w == nullptr)

  00012	4d 85 c0	 test	 r8, r8
  00015	75 0a		 jne	 SHORT $LN2@PMCCS_Subt

; 478  :             return (PMC_STATUS_ARGUMENT_NULL_ERROR);

  00017	41 8d 40 fe	 lea	 eax, QWORD PTR [r8-2]

; 487  :         }
; 488  :     }

  0001b	48 83 c4 30	 add	 rsp, 48			; 00000030H
  0001f	5b		 pop	 rbx
  00020	c3		 ret	 0
$LN2@PMCCS_Subt:

; 479  :         try
; 480  :         {
; 481  :             *w = PMC_Subtruct_X_I(u, v);

  00021	e8 00 00 00 00	 call	 ?PMC_Subtruct_X_I@Internal@Core@Math@Palmtree@@YAPEAU__tag_PMC_HANDLE_UINT@1234@PEAU51234@I@Z ; Palmtree::Math::Core::Internal::PMC_Subtruct_X_I
  00026	48 89 03	 mov	 QWORD PTR [rbx], rax

; 482  :             return (PMC_STATUS_OK);

  00029	33 c0		 xor	 eax, eax
  0002b	eb 04		 jmp	 SHORT $LN7@PMCCS_Subt
$LN8@PMCCS_Subt:

; 483  :         }
; 484  :         catch (const Palmtree::Math::Core::Internal::Exception& ex)
; 485  :         {
; 486  :             return (ex.GetStatusCode());

  0002d	8b 44 24 50	 mov	 eax, DWORD PTR $T3[rsp]
$LN7@PMCCS_Subt:

; 487  :         }
; 488  :     }

  00031	48 83 c4 30	 add	 rsp, 48			; 00000030H
  00035	5b		 pop	 rbx
  00036	c3		 ret	 0
  00037	cc		 int	 3
PMCCS_Subtruct_X_I ENDP
_TEXT	ENDS
;	COMDAT text$x
text$x	SEGMENT
$T1 = 32
ex$2 = 40
u$ = 64
v$ = 72
$T3 = 80
w$ = 80
PMCCS_Subtruct_X_I$catch$0 PROC

; 483  :         }
; 484  :         catch (const Palmtree::Math::Core::Internal::Exception& ex)
; 485  :         {

  00000	48 89 54 24 10	 mov	 QWORD PTR [rsp+16], rdx
  00005	55		 push	 rbp
  00006	48 83 ec 20	 sub	 rsp, 32			; 00000020H
  0000a	48 8b ea	 mov	 rbp, rdx
__catch$PMCCS_Subtruct_X_I$0:
; File z:\sources\lunor\repos\rougemeilland\palmtree.math.core.uint\palmtree.math.core.uint\pmc_exception.h

; 75   :             return (_code);

  0000d	48 8b 45 28	 mov	 rax, QWORD PTR ex$2[rbp]
  00011	8b 48 18	 mov	 ecx, DWORD PTR [rax+24]
  00014	89 4d 50	 mov	 DWORD PTR $T3[rbp], ecx
; File z:\sources\lunor\repos\rougemeilland\palmtree.math.core.uint\palmtree.math.core.uint\pmc_interface_csharp.cpp

; 483  :         }
; 484  :         catch (const Palmtree::Math::Core::Internal::Exception& ex)
; 485  :         {
; 486  :             return (ex.GetStatusCode());

  00017	48 8d 05 00 00
	00 00		 lea	 rax, $LN8@PMCCS_Subt
  0001e	48 83 c4 20	 add	 rsp, 32			; 00000020H
  00022	5d		 pop	 rbp
  00023	c3		 ret	 0
  00024	cc		 int	 3
PMCCS_Subtruct_X_I$catch$0 ENDP
text$x	ENDS
; Function compile flags: /Ogtpy
; File z:\sources\lunor\repos\rougemeilland\palmtree.math.core.uint\palmtree.math.core.uint\pmc_exception.h
; File z:\sources\lunor\repos\rougemeilland\palmtree.math.core.uint\palmtree.math.core.uint\pmc_interface_csharp.cpp
;	COMDAT text$x
text$x	SEGMENT
$T1 = 32
ex$2 = 40
u$ = 64
v$ = 72
$T3 = 80
w$ = 80
PMCCS_Subtruct_X_I$catch$0 PROC

; 485  :         {

  00000	48 89 54 24 10	 mov	 QWORD PTR [rsp+16], rdx
  00005	55		 push	 rbp
  00006	48 83 ec 20	 sub	 rsp, 32			; 00000020H
  0000a	48 8b ea	 mov	 rbp, rdx
__catch$PMCCS_Subtruct_X_I$0:
; File z:\sources\lunor\repos\rougemeilland\palmtree.math.core.uint\palmtree.math.core.uint\pmc_exception.h

; 75   :             return (_code);

  0000d	48 8b 45 28	 mov	 rax, QWORD PTR ex$2[rbp]
  00011	8b 48 18	 mov	 ecx, DWORD PTR [rax+24]
  00014	89 4d 50	 mov	 DWORD PTR $T3[rbp], ecx
; File z:\sources\lunor\repos\rougemeilland\palmtree.math.core.uint\palmtree.math.core.uint\pmc_interface_csharp.cpp

; 486  :             return (ex.GetStatusCode());

  00017	48 8d 05 00 00
	00 00		 lea	 rax, $LN8@PMCCS_Subt
  0001e	48 83 c4 20	 add	 rsp, 32			; 00000020H
  00022	5d		 pop	 rbp
  00023	c3		 ret	 0
  00024	cc		 int	 3
PMCCS_Subtruct_X_I$catch$0 ENDP
text$x	ENDS
; Function compile flags: /Ogtpy
; File z:\sources\lunor\repos\rougemeilland\palmtree.math.core.uint\palmtree.math.core.uint\pmc_interface_csharp.cpp
;	COMDAT PMCCS_Subtruct_L_X
_TEXT	SEGMENT
$T1 = 32
ex$2 = 40
u$ = 64
v$ = 72
$T3 = 80
w$ = 80
PMCCS_Subtruct_L_X PROC					; COMDAT

; 461  :     {

$LN13:
  00000	40 53		 push	 rbx
  00002	48 83 ec 30	 sub	 rsp, 48			; 00000030H
  00006	48 c7 44 24 20
	fe ff ff ff	 mov	 QWORD PTR $T1[rsp], -2
  0000f	49 8b d8	 mov	 rbx, r8

; 462  :         if (w == nullptr)

  00012	4d 85 c0	 test	 r8, r8
  00015	75 0a		 jne	 SHORT $LN2@PMCCS_Subt

; 463  :             return (PMC_STATUS_ARGUMENT_NULL_ERROR);

  00017	41 8d 40 fe	 lea	 eax, QWORD PTR [r8-2]

; 472  :         }
; 473  :     }

  0001b	48 83 c4 30	 add	 rsp, 48			; 00000030H
  0001f	5b		 pop	 rbx
  00020	c3		 ret	 0
$LN2@PMCCS_Subt:

; 464  :         try
; 465  :         {
; 466  :             *w = PMC_Subtruct_L_X(u, v);

  00021	e8 00 00 00 00	 call	 ?PMC_Subtruct_L_X@Internal@Core@Math@Palmtree@@YA_K_KPEAU__tag_PMC_HANDLE_UINT@1234@@Z ; Palmtree::Math::Core::Internal::PMC_Subtruct_L_X
  00026	48 89 03	 mov	 QWORD PTR [rbx], rax

; 467  :             return (PMC_STATUS_OK);

  00029	33 c0		 xor	 eax, eax
  0002b	eb 04		 jmp	 SHORT $LN7@PMCCS_Subt
$LN8@PMCCS_Subt:

; 468  :         }
; 469  :         catch (const Palmtree::Math::Core::Internal::Exception& ex)
; 470  :         {
; 471  :             return (ex.GetStatusCode());

  0002d	8b 44 24 50	 mov	 eax, DWORD PTR $T3[rsp]
$LN7@PMCCS_Subt:

; 472  :         }
; 473  :     }

  00031	48 83 c4 30	 add	 rsp, 48			; 00000030H
  00035	5b		 pop	 rbx
  00036	c3		 ret	 0
  00037	cc		 int	 3
PMCCS_Subtruct_L_X ENDP
_TEXT	ENDS
;	COMDAT text$x
text$x	SEGMENT
$T1 = 32
ex$2 = 40
u$ = 64
v$ = 72
$T3 = 80
w$ = 80
PMCCS_Subtruct_L_X$catch$0 PROC

; 468  :         }
; 469  :         catch (const Palmtree::Math::Core::Internal::Exception& ex)
; 470  :         {

  00000	48 89 54 24 10	 mov	 QWORD PTR [rsp+16], rdx
  00005	55		 push	 rbp
  00006	48 83 ec 20	 sub	 rsp, 32			; 00000020H
  0000a	48 8b ea	 mov	 rbp, rdx
__catch$PMCCS_Subtruct_L_X$0:
; File z:\sources\lunor\repos\rougemeilland\palmtree.math.core.uint\palmtree.math.core.uint\pmc_exception.h

; 75   :             return (_code);

  0000d	48 8b 45 28	 mov	 rax, QWORD PTR ex$2[rbp]
  00011	8b 48 18	 mov	 ecx, DWORD PTR [rax+24]
  00014	89 4d 50	 mov	 DWORD PTR $T3[rbp], ecx
; File z:\sources\lunor\repos\rougemeilland\palmtree.math.core.uint\palmtree.math.core.uint\pmc_interface_csharp.cpp

; 468  :         }
; 469  :         catch (const Palmtree::Math::Core::Internal::Exception& ex)
; 470  :         {
; 471  :             return (ex.GetStatusCode());

  00017	48 8d 05 00 00
	00 00		 lea	 rax, $LN8@PMCCS_Subt
  0001e	48 83 c4 20	 add	 rsp, 32			; 00000020H
  00022	5d		 pop	 rbp
  00023	c3		 ret	 0
  00024	cc		 int	 3
PMCCS_Subtruct_L_X$catch$0 ENDP
text$x	ENDS
; Function compile flags: /Ogtpy
; File z:\sources\lunor\repos\rougemeilland\palmtree.math.core.uint\palmtree.math.core.uint\pmc_exception.h
; File z:\sources\lunor\repos\rougemeilland\palmtree.math.core.uint\palmtree.math.core.uint\pmc_interface_csharp.cpp
;	COMDAT text$x
text$x	SEGMENT
$T1 = 32
ex$2 = 40
u$ = 64
v$ = 72
$T3 = 80
w$ = 80
PMCCS_Subtruct_L_X$catch$0 PROC

; 470  :         {

  00000	48 89 54 24 10	 mov	 QWORD PTR [rsp+16], rdx
  00005	55		 push	 rbp
  00006	48 83 ec 20	 sub	 rsp, 32			; 00000020H
  0000a	48 8b ea	 mov	 rbp, rdx
__catch$PMCCS_Subtruct_L_X$0:
; File z:\sources\lunor\repos\rougemeilland\palmtree.math.core.uint\palmtree.math.core.uint\pmc_exception.h

; 75   :             return (_code);

  0000d	48 8b 45 28	 mov	 rax, QWORD PTR ex$2[rbp]
  00011	8b 48 18	 mov	 ecx, DWORD PTR [rax+24]
  00014	89 4d 50	 mov	 DWORD PTR $T3[rbp], ecx
; File z:\sources\lunor\repos\rougemeilland\palmtree.math.core.uint\palmtree.math.core.uint\pmc_interface_csharp.cpp

; 471  :             return (ex.GetStatusCode());

  00017	48 8d 05 00 00
	00 00		 lea	 rax, $LN8@PMCCS_Subt
  0001e	48 83 c4 20	 add	 rsp, 32			; 00000020H
  00022	5d		 pop	 rbp
  00023	c3		 ret	 0
  00024	cc		 int	 3
PMCCS_Subtruct_L_X$catch$0 ENDP
text$x	ENDS
; Function compile flags: /Ogtpy
; File z:\sources\lunor\repos\rougemeilland\palmtree.math.core.uint\palmtree.math.core.uint\pmc_interface_csharp.cpp
;	COMDAT PMCCS_Subtruct_I_X
_TEXT	SEGMENT
$T1 = 32
ex$2 = 40
u$ = 64
v$ = 72
$T3 = 80
w$ = 80
PMCCS_Subtruct_I_X PROC					; COMDAT

; 446  :     {

$LN13:
  00000	40 53		 push	 rbx
  00002	48 83 ec 30	 sub	 rsp, 48			; 00000030H
  00006	48 c7 44 24 20
	fe ff ff ff	 mov	 QWORD PTR $T1[rsp], -2
  0000f	49 8b d8	 mov	 rbx, r8

; 447  :         if (w == nullptr)

  00012	4d 85 c0	 test	 r8, r8
  00015	75 0a		 jne	 SHORT $LN2@PMCCS_Subt

; 448  :             return (PMC_STATUS_ARGUMENT_NULL_ERROR);

  00017	41 8d 40 fe	 lea	 eax, QWORD PTR [r8-2]

; 457  :         }
; 458  :     }

  0001b	48 83 c4 30	 add	 rsp, 48			; 00000030H
  0001f	5b		 pop	 rbx
  00020	c3		 ret	 0
$LN2@PMCCS_Subt:

; 449  :         try
; 450  :         {
; 451  :             *w = PMC_Subtruct_I_X(u, v);

  00021	e8 00 00 00 00	 call	 ?PMC_Subtruct_I_X@Internal@Core@Math@Palmtree@@YAIIPEAU__tag_PMC_HANDLE_UINT@1234@@Z ; Palmtree::Math::Core::Internal::PMC_Subtruct_I_X
  00026	89 03		 mov	 DWORD PTR [rbx], eax

; 452  :             return (PMC_STATUS_OK);

  00028	33 c0		 xor	 eax, eax
  0002a	eb 04		 jmp	 SHORT $LN7@PMCCS_Subt
$LN8@PMCCS_Subt:

; 453  :         }
; 454  :         catch (const Palmtree::Math::Core::Internal::Exception& ex)
; 455  :         {
; 456  :             return (ex.GetStatusCode());

  0002c	8b 44 24 50	 mov	 eax, DWORD PTR $T3[rsp]
$LN7@PMCCS_Subt:

; 457  :         }
; 458  :     }

  00030	48 83 c4 30	 add	 rsp, 48			; 00000030H
  00034	5b		 pop	 rbx
  00035	c3		 ret	 0
  00036	cc		 int	 3
PMCCS_Subtruct_I_X ENDP
_TEXT	ENDS
;	COMDAT text$x
text$x	SEGMENT
$T1 = 32
ex$2 = 40
u$ = 64
v$ = 72
$T3 = 80
w$ = 80
PMCCS_Subtruct_I_X$catch$0 PROC

; 453  :         }
; 454  :         catch (const Palmtree::Math::Core::Internal::Exception& ex)
; 455  :         {

  00000	48 89 54 24 10	 mov	 QWORD PTR [rsp+16], rdx
  00005	55		 push	 rbp
  00006	48 83 ec 20	 sub	 rsp, 32			; 00000020H
  0000a	48 8b ea	 mov	 rbp, rdx
__catch$PMCCS_Subtruct_I_X$0:
; File z:\sources\lunor\repos\rougemeilland\palmtree.math.core.uint\palmtree.math.core.uint\pmc_exception.h

; 75   :             return (_code);

  0000d	48 8b 45 28	 mov	 rax, QWORD PTR ex$2[rbp]
  00011	8b 48 18	 mov	 ecx, DWORD PTR [rax+24]
  00014	89 4d 50	 mov	 DWORD PTR $T3[rbp], ecx
; File z:\sources\lunor\repos\rougemeilland\palmtree.math.core.uint\palmtree.math.core.uint\pmc_interface_csharp.cpp

; 453  :         }
; 454  :         catch (const Palmtree::Math::Core::Internal::Exception& ex)
; 455  :         {
; 456  :             return (ex.GetStatusCode());

  00017	48 8d 05 00 00
	00 00		 lea	 rax, $LN8@PMCCS_Subt
  0001e	48 83 c4 20	 add	 rsp, 32			; 00000020H
  00022	5d		 pop	 rbp
  00023	c3		 ret	 0
  00024	cc		 int	 3
PMCCS_Subtruct_I_X$catch$0 ENDP
text$x	ENDS
; Function compile flags: /Ogtpy
; File z:\sources\lunor\repos\rougemeilland\palmtree.math.core.uint\palmtree.math.core.uint\pmc_exception.h
; File z:\sources\lunor\repos\rougemeilland\palmtree.math.core.uint\palmtree.math.core.uint\pmc_interface_csharp.cpp
;	COMDAT text$x
text$x	SEGMENT
$T1 = 32
ex$2 = 40
u$ = 64
v$ = 72
$T3 = 80
w$ = 80
PMCCS_Subtruct_I_X$catch$0 PROC

; 455  :         {

  00000	48 89 54 24 10	 mov	 QWORD PTR [rsp+16], rdx
  00005	55		 push	 rbp
  00006	48 83 ec 20	 sub	 rsp, 32			; 00000020H
  0000a	48 8b ea	 mov	 rbp, rdx
__catch$PMCCS_Subtruct_I_X$0:
; File z:\sources\lunor\repos\rougemeilland\palmtree.math.core.uint\palmtree.math.core.uint\pmc_exception.h

; 75   :             return (_code);

  0000d	48 8b 45 28	 mov	 rax, QWORD PTR ex$2[rbp]
  00011	8b 48 18	 mov	 ecx, DWORD PTR [rax+24]
  00014	89 4d 50	 mov	 DWORD PTR $T3[rbp], ecx
; File z:\sources\lunor\repos\rougemeilland\palmtree.math.core.uint\palmtree.math.core.uint\pmc_interface_csharp.cpp

; 456  :             return (ex.GetStatusCode());

  00017	48 8d 05 00 00
	00 00		 lea	 rax, $LN8@PMCCS_Subt
  0001e	48 83 c4 20	 add	 rsp, 32			; 00000020H
  00022	5d		 pop	 rbp
  00023	c3		 ret	 0
  00024	cc		 int	 3
PMCCS_Subtruct_I_X$catch$0 ENDP
text$x	ENDS
; Function compile flags: /Ogtpy
; File z:\sources\lunor\repos\rougemeilland\palmtree.math.core.uint\palmtree.math.core.uint\pmc_interface_csharp.cpp
;	COMDAT PMCCS_Add_X_X
_TEXT	SEGMENT
$T1 = 32
ex$2 = 40
u$ = 64
v$ = 72
$T3 = 80
w$ = 80
PMCCS_Add_X_X PROC					; COMDAT

; 431  :     {

$LN13:
  00000	40 53		 push	 rbx
  00002	48 83 ec 30	 sub	 rsp, 48			; 00000030H
  00006	48 c7 44 24 20
	fe ff ff ff	 mov	 QWORD PTR $T1[rsp], -2
  0000f	49 8b d8	 mov	 rbx, r8

; 432  :         if (w == nullptr)

  00012	4d 85 c0	 test	 r8, r8
  00015	75 0a		 jne	 SHORT $LN2@PMCCS_Add_

; 433  :             return (PMC_STATUS_ARGUMENT_NULL_ERROR);

  00017	41 8d 40 fe	 lea	 eax, QWORD PTR [r8-2]

; 442  :         }
; 443  :     }

  0001b	48 83 c4 30	 add	 rsp, 48			; 00000030H
  0001f	5b		 pop	 rbx
  00020	c3		 ret	 0
$LN2@PMCCS_Add_:

; 434  :         try
; 435  :         {
; 436  :             *w = PMC_Add_X_X(u, v);

  00021	e8 00 00 00 00	 call	 ?PMC_Add_X_X@Internal@Core@Math@Palmtree@@YAPEAU__tag_PMC_HANDLE_UINT@1234@PEAU51234@0@Z ; Palmtree::Math::Core::Internal::PMC_Add_X_X
  00026	48 89 03	 mov	 QWORD PTR [rbx], rax

; 437  :             return (PMC_STATUS_OK);

  00029	33 c0		 xor	 eax, eax
  0002b	eb 04		 jmp	 SHORT $LN7@PMCCS_Add_
$LN8@PMCCS_Add_:

; 438  :         }
; 439  :         catch (const Palmtree::Math::Core::Internal::Exception& ex)
; 440  :         {
; 441  :             return (ex.GetStatusCode());

  0002d	8b 44 24 50	 mov	 eax, DWORD PTR $T3[rsp]
$LN7@PMCCS_Add_:

; 442  :         }
; 443  :     }

  00031	48 83 c4 30	 add	 rsp, 48			; 00000030H
  00035	5b		 pop	 rbx
  00036	c3		 ret	 0
  00037	cc		 int	 3
PMCCS_Add_X_X ENDP
_TEXT	ENDS
;	COMDAT text$x
text$x	SEGMENT
$T1 = 32
ex$2 = 40
u$ = 64
v$ = 72
$T3 = 80
w$ = 80
PMCCS_Add_X_X$catch$0 PROC

; 438  :         }
; 439  :         catch (const Palmtree::Math::Core::Internal::Exception& ex)
; 440  :         {

  00000	48 89 54 24 10	 mov	 QWORD PTR [rsp+16], rdx
  00005	55		 push	 rbp
  00006	48 83 ec 20	 sub	 rsp, 32			; 00000020H
  0000a	48 8b ea	 mov	 rbp, rdx
__catch$PMCCS_Add_X_X$0:
; File z:\sources\lunor\repos\rougemeilland\palmtree.math.core.uint\palmtree.math.core.uint\pmc_exception.h

; 75   :             return (_code);

  0000d	48 8b 45 28	 mov	 rax, QWORD PTR ex$2[rbp]
  00011	8b 48 18	 mov	 ecx, DWORD PTR [rax+24]
  00014	89 4d 50	 mov	 DWORD PTR $T3[rbp], ecx
; File z:\sources\lunor\repos\rougemeilland\palmtree.math.core.uint\palmtree.math.core.uint\pmc_interface_csharp.cpp

; 438  :         }
; 439  :         catch (const Palmtree::Math::Core::Internal::Exception& ex)
; 440  :         {
; 441  :             return (ex.GetStatusCode());

  00017	48 8d 05 00 00
	00 00		 lea	 rax, $LN8@PMCCS_Add_
  0001e	48 83 c4 20	 add	 rsp, 32			; 00000020H
  00022	5d		 pop	 rbp
  00023	c3		 ret	 0
  00024	cc		 int	 3
PMCCS_Add_X_X$catch$0 ENDP
text$x	ENDS
; Function compile flags: /Ogtpy
; File z:\sources\lunor\repos\rougemeilland\palmtree.math.core.uint\palmtree.math.core.uint\pmc_exception.h
; File z:\sources\lunor\repos\rougemeilland\palmtree.math.core.uint\palmtree.math.core.uint\pmc_interface_csharp.cpp
;	COMDAT text$x
text$x	SEGMENT
$T1 = 32
ex$2 = 40
u$ = 64
v$ = 72
$T3 = 80
w$ = 80
PMCCS_Add_X_X$catch$0 PROC

; 440  :         {

  00000	48 89 54 24 10	 mov	 QWORD PTR [rsp+16], rdx
  00005	55		 push	 rbp
  00006	48 83 ec 20	 sub	 rsp, 32			; 00000020H
  0000a	48 8b ea	 mov	 rbp, rdx
__catch$PMCCS_Add_X_X$0:
; File z:\sources\lunor\repos\rougemeilland\palmtree.math.core.uint\palmtree.math.core.uint\pmc_exception.h

; 75   :             return (_code);

  0000d	48 8b 45 28	 mov	 rax, QWORD PTR ex$2[rbp]
  00011	8b 48 18	 mov	 ecx, DWORD PTR [rax+24]
  00014	89 4d 50	 mov	 DWORD PTR $T3[rbp], ecx
; File z:\sources\lunor\repos\rougemeilland\palmtree.math.core.uint\palmtree.math.core.uint\pmc_interface_csharp.cpp

; 441  :             return (ex.GetStatusCode());

  00017	48 8d 05 00 00
	00 00		 lea	 rax, $LN8@PMCCS_Add_
  0001e	48 83 c4 20	 add	 rsp, 32			; 00000020H
  00022	5d		 pop	 rbp
  00023	c3		 ret	 0
  00024	cc		 int	 3
PMCCS_Add_X_X$catch$0 ENDP
text$x	ENDS
; Function compile flags: /Ogtpy
; File z:\sources\lunor\repos\rougemeilland\palmtree.math.core.uint\palmtree.math.core.uint\pmc_interface_csharp.cpp
;	COMDAT PMCCS_Add_X_L
_TEXT	SEGMENT
$T1 = 32
ex$2 = 40
u$ = 64
v$ = 72
$T3 = 80
w$ = 80
PMCCS_Add_X_L PROC					; COMDAT

; 416  :     {

$LN13:
  00000	40 53		 push	 rbx
  00002	48 83 ec 30	 sub	 rsp, 48			; 00000030H
  00006	48 c7 44 24 20
	fe ff ff ff	 mov	 QWORD PTR $T1[rsp], -2
  0000f	49 8b d8	 mov	 rbx, r8

; 417  :         if (w == nullptr)

  00012	4d 85 c0	 test	 r8, r8
  00015	75 0a		 jne	 SHORT $LN2@PMCCS_Add_

; 418  :             return (PMC_STATUS_ARGUMENT_NULL_ERROR);

  00017	41 8d 40 fe	 lea	 eax, QWORD PTR [r8-2]

; 427  :         }
; 428  :     }

  0001b	48 83 c4 30	 add	 rsp, 48			; 00000030H
  0001f	5b		 pop	 rbx
  00020	c3		 ret	 0
$LN2@PMCCS_Add_:

; 419  :         try
; 420  :         {
; 421  :             *w = PMC_Add_X_L(u, v);

  00021	e8 00 00 00 00	 call	 ?PMC_Add_X_L@Internal@Core@Math@Palmtree@@YAPEAU__tag_PMC_HANDLE_UINT@1234@PEAU51234@_K@Z ; Palmtree::Math::Core::Internal::PMC_Add_X_L
  00026	48 89 03	 mov	 QWORD PTR [rbx], rax

; 422  :             return (PMC_STATUS_OK);

  00029	33 c0		 xor	 eax, eax
  0002b	eb 04		 jmp	 SHORT $LN7@PMCCS_Add_
$LN8@PMCCS_Add_:

; 423  :         }
; 424  :         catch (const Palmtree::Math::Core::Internal::Exception& ex)
; 425  :         {
; 426  :             return (ex.GetStatusCode());

  0002d	8b 44 24 50	 mov	 eax, DWORD PTR $T3[rsp]
$LN7@PMCCS_Add_:

; 427  :         }
; 428  :     }

  00031	48 83 c4 30	 add	 rsp, 48			; 00000030H
  00035	5b		 pop	 rbx
  00036	c3		 ret	 0
  00037	cc		 int	 3
PMCCS_Add_X_L ENDP
_TEXT	ENDS
;	COMDAT text$x
text$x	SEGMENT
$T1 = 32
ex$2 = 40
u$ = 64
v$ = 72
$T3 = 80
w$ = 80
PMCCS_Add_X_L$catch$0 PROC

; 423  :         }
; 424  :         catch (const Palmtree::Math::Core::Internal::Exception& ex)
; 425  :         {

  00000	48 89 54 24 10	 mov	 QWORD PTR [rsp+16], rdx
  00005	55		 push	 rbp
  00006	48 83 ec 20	 sub	 rsp, 32			; 00000020H
  0000a	48 8b ea	 mov	 rbp, rdx
__catch$PMCCS_Add_X_L$0:
; File z:\sources\lunor\repos\rougemeilland\palmtree.math.core.uint\palmtree.math.core.uint\pmc_exception.h

; 75   :             return (_code);

  0000d	48 8b 45 28	 mov	 rax, QWORD PTR ex$2[rbp]
  00011	8b 48 18	 mov	 ecx, DWORD PTR [rax+24]
  00014	89 4d 50	 mov	 DWORD PTR $T3[rbp], ecx
; File z:\sources\lunor\repos\rougemeilland\palmtree.math.core.uint\palmtree.math.core.uint\pmc_interface_csharp.cpp

; 423  :         }
; 424  :         catch (const Palmtree::Math::Core::Internal::Exception& ex)
; 425  :         {
; 426  :             return (ex.GetStatusCode());

  00017	48 8d 05 00 00
	00 00		 lea	 rax, $LN8@PMCCS_Add_
  0001e	48 83 c4 20	 add	 rsp, 32			; 00000020H
  00022	5d		 pop	 rbp
  00023	c3		 ret	 0
  00024	cc		 int	 3
PMCCS_Add_X_L$catch$0 ENDP
text$x	ENDS
; Function compile flags: /Ogtpy
; File z:\sources\lunor\repos\rougemeilland\palmtree.math.core.uint\palmtree.math.core.uint\pmc_exception.h
; File z:\sources\lunor\repos\rougemeilland\palmtree.math.core.uint\palmtree.math.core.uint\pmc_interface_csharp.cpp
;	COMDAT text$x
text$x	SEGMENT
$T1 = 32
ex$2 = 40
u$ = 64
v$ = 72
$T3 = 80
w$ = 80
PMCCS_Add_X_L$catch$0 PROC

; 425  :         {

  00000	48 89 54 24 10	 mov	 QWORD PTR [rsp+16], rdx
  00005	55		 push	 rbp
  00006	48 83 ec 20	 sub	 rsp, 32			; 00000020H
  0000a	48 8b ea	 mov	 rbp, rdx
__catch$PMCCS_Add_X_L$0:
; File z:\sources\lunor\repos\rougemeilland\palmtree.math.core.uint\palmtree.math.core.uint\pmc_exception.h

; 75   :             return (_code);

  0000d	48 8b 45 28	 mov	 rax, QWORD PTR ex$2[rbp]
  00011	8b 48 18	 mov	 ecx, DWORD PTR [rax+24]
  00014	89 4d 50	 mov	 DWORD PTR $T3[rbp], ecx
; File z:\sources\lunor\repos\rougemeilland\palmtree.math.core.uint\palmtree.math.core.uint\pmc_interface_csharp.cpp

; 426  :             return (ex.GetStatusCode());

  00017	48 8d 05 00 00
	00 00		 lea	 rax, $LN8@PMCCS_Add_
  0001e	48 83 c4 20	 add	 rsp, 32			; 00000020H
  00022	5d		 pop	 rbp
  00023	c3		 ret	 0
  00024	cc		 int	 3
PMCCS_Add_X_L$catch$0 ENDP
text$x	ENDS
; Function compile flags: /Ogtpy
; File z:\sources\lunor\repos\rougemeilland\palmtree.math.core.uint\palmtree.math.core.uint\pmc_interface_csharp.cpp
;	COMDAT PMCCS_Add_X_I
_TEXT	SEGMENT
$T1 = 32
ex$2 = 40
u$ = 64
v$ = 72
$T3 = 80
w$ = 80
PMCCS_Add_X_I PROC					; COMDAT

; 401  :     {

$LN13:
  00000	40 53		 push	 rbx
  00002	48 83 ec 30	 sub	 rsp, 48			; 00000030H
  00006	48 c7 44 24 20
	fe ff ff ff	 mov	 QWORD PTR $T1[rsp], -2
  0000f	49 8b d8	 mov	 rbx, r8

; 402  :         if (w == nullptr)

  00012	4d 85 c0	 test	 r8, r8
  00015	75 0a		 jne	 SHORT $LN2@PMCCS_Add_

; 403  :             return (PMC_STATUS_ARGUMENT_NULL_ERROR);

  00017	41 8d 40 fe	 lea	 eax, QWORD PTR [r8-2]

; 412  :         }
; 413  :     }

  0001b	48 83 c4 30	 add	 rsp, 48			; 00000030H
  0001f	5b		 pop	 rbx
  00020	c3		 ret	 0
$LN2@PMCCS_Add_:

; 404  :         try
; 405  :         {
; 406  :             *w = PMC_Add_X_I(u, v);

  00021	e8 00 00 00 00	 call	 ?PMC_Add_X_I@Internal@Core@Math@Palmtree@@YAPEAU__tag_PMC_HANDLE_UINT@1234@PEAU51234@I@Z ; Palmtree::Math::Core::Internal::PMC_Add_X_I
  00026	48 89 03	 mov	 QWORD PTR [rbx], rax

; 407  :             return (PMC_STATUS_OK);

  00029	33 c0		 xor	 eax, eax
  0002b	eb 04		 jmp	 SHORT $LN7@PMCCS_Add_
$LN8@PMCCS_Add_:

; 408  :         }
; 409  :         catch (const Palmtree::Math::Core::Internal::Exception& ex)
; 410  :         {
; 411  :             return (ex.GetStatusCode());

  0002d	8b 44 24 50	 mov	 eax, DWORD PTR $T3[rsp]
$LN7@PMCCS_Add_:

; 412  :         }
; 413  :     }

  00031	48 83 c4 30	 add	 rsp, 48			; 00000030H
  00035	5b		 pop	 rbx
  00036	c3		 ret	 0
  00037	cc		 int	 3
PMCCS_Add_X_I ENDP
_TEXT	ENDS
;	COMDAT text$x
text$x	SEGMENT
$T1 = 32
ex$2 = 40
u$ = 64
v$ = 72
$T3 = 80
w$ = 80
PMCCS_Add_X_I$catch$0 PROC

; 408  :         }
; 409  :         catch (const Palmtree::Math::Core::Internal::Exception& ex)
; 410  :         {

  00000	48 89 54 24 10	 mov	 QWORD PTR [rsp+16], rdx
  00005	55		 push	 rbp
  00006	48 83 ec 20	 sub	 rsp, 32			; 00000020H
  0000a	48 8b ea	 mov	 rbp, rdx
__catch$PMCCS_Add_X_I$0:
; File z:\sources\lunor\repos\rougemeilland\palmtree.math.core.uint\palmtree.math.core.uint\pmc_exception.h

; 75   :             return (_code);

  0000d	48 8b 45 28	 mov	 rax, QWORD PTR ex$2[rbp]
  00011	8b 48 18	 mov	 ecx, DWORD PTR [rax+24]
  00014	89 4d 50	 mov	 DWORD PTR $T3[rbp], ecx
; File z:\sources\lunor\repos\rougemeilland\palmtree.math.core.uint\palmtree.math.core.uint\pmc_interface_csharp.cpp

; 408  :         }
; 409  :         catch (const Palmtree::Math::Core::Internal::Exception& ex)
; 410  :         {
; 411  :             return (ex.GetStatusCode());

  00017	48 8d 05 00 00
	00 00		 lea	 rax, $LN8@PMCCS_Add_
  0001e	48 83 c4 20	 add	 rsp, 32			; 00000020H
  00022	5d		 pop	 rbp
  00023	c3		 ret	 0
  00024	cc		 int	 3
PMCCS_Add_X_I$catch$0 ENDP
text$x	ENDS
; Function compile flags: /Ogtpy
; File z:\sources\lunor\repos\rougemeilland\palmtree.math.core.uint\palmtree.math.core.uint\pmc_exception.h
; File z:\sources\lunor\repos\rougemeilland\palmtree.math.core.uint\palmtree.math.core.uint\pmc_interface_csharp.cpp
;	COMDAT text$x
text$x	SEGMENT
$T1 = 32
ex$2 = 40
u$ = 64
v$ = 72
$T3 = 80
w$ = 80
PMCCS_Add_X_I$catch$0 PROC

; 410  :         {

  00000	48 89 54 24 10	 mov	 QWORD PTR [rsp+16], rdx
  00005	55		 push	 rbp
  00006	48 83 ec 20	 sub	 rsp, 32			; 00000020H
  0000a	48 8b ea	 mov	 rbp, rdx
__catch$PMCCS_Add_X_I$0:
; File z:\sources\lunor\repos\rougemeilland\palmtree.math.core.uint\palmtree.math.core.uint\pmc_exception.h

; 75   :             return (_code);

  0000d	48 8b 45 28	 mov	 rax, QWORD PTR ex$2[rbp]
  00011	8b 48 18	 mov	 ecx, DWORD PTR [rax+24]
  00014	89 4d 50	 mov	 DWORD PTR $T3[rbp], ecx
; File z:\sources\lunor\repos\rougemeilland\palmtree.math.core.uint\palmtree.math.core.uint\pmc_interface_csharp.cpp

; 411  :             return (ex.GetStatusCode());

  00017	48 8d 05 00 00
	00 00		 lea	 rax, $LN8@PMCCS_Add_
  0001e	48 83 c4 20	 add	 rsp, 32			; 00000020H
  00022	5d		 pop	 rbp
  00023	c3		 ret	 0
  00024	cc		 int	 3
PMCCS_Add_X_I$catch$0 ENDP
text$x	ENDS
; Function compile flags: /Ogtpy
; File z:\sources\lunor\repos\rougemeilland\palmtree.math.core.uint\palmtree.math.core.uint\pmc_interface_csharp.cpp
;	COMDAT PMCCS_Add_L_X
_TEXT	SEGMENT
$T1 = 32
ex$2 = 40
u$ = 64
v$ = 72
$T3 = 80
w$ = 80
PMCCS_Add_L_X PROC					; COMDAT

; 386  :     {

$LN13:
  00000	40 53		 push	 rbx
  00002	48 83 ec 30	 sub	 rsp, 48			; 00000030H
  00006	48 c7 44 24 20
	fe ff ff ff	 mov	 QWORD PTR $T1[rsp], -2
  0000f	49 8b d8	 mov	 rbx, r8

; 387  :         if (w == nullptr)

  00012	4d 85 c0	 test	 r8, r8
  00015	75 0a		 jne	 SHORT $LN2@PMCCS_Add_

; 388  :             return (PMC_STATUS_ARGUMENT_NULL_ERROR);

  00017	41 8d 40 fe	 lea	 eax, QWORD PTR [r8-2]

; 397  :         }
; 398  :     }

  0001b	48 83 c4 30	 add	 rsp, 48			; 00000030H
  0001f	5b		 pop	 rbx
  00020	c3		 ret	 0
$LN2@PMCCS_Add_:

; 389  :         try
; 390  :         {
; 391  :             *w = PMC_Add_L_X(u, v);

  00021	e8 00 00 00 00	 call	 ?PMC_Add_L_X@Internal@Core@Math@Palmtree@@YAPEAU__tag_PMC_HANDLE_UINT@1234@_KPEAU51234@@Z ; Palmtree::Math::Core::Internal::PMC_Add_L_X
  00026	48 89 03	 mov	 QWORD PTR [rbx], rax

; 392  :             return (PMC_STATUS_OK);

  00029	33 c0		 xor	 eax, eax
  0002b	eb 04		 jmp	 SHORT $LN7@PMCCS_Add_
$LN8@PMCCS_Add_:

; 393  :         }
; 394  :         catch (const Palmtree::Math::Core::Internal::Exception& ex)
; 395  :         {
; 396  :             return (ex.GetStatusCode());

  0002d	8b 44 24 50	 mov	 eax, DWORD PTR $T3[rsp]
$LN7@PMCCS_Add_:

; 397  :         }
; 398  :     }

  00031	48 83 c4 30	 add	 rsp, 48			; 00000030H
  00035	5b		 pop	 rbx
  00036	c3		 ret	 0
  00037	cc		 int	 3
PMCCS_Add_L_X ENDP
_TEXT	ENDS
;	COMDAT text$x
text$x	SEGMENT
$T1 = 32
ex$2 = 40
u$ = 64
v$ = 72
$T3 = 80
w$ = 80
PMCCS_Add_L_X$catch$0 PROC

; 393  :         }
; 394  :         catch (const Palmtree::Math::Core::Internal::Exception& ex)
; 395  :         {

  00000	48 89 54 24 10	 mov	 QWORD PTR [rsp+16], rdx
  00005	55		 push	 rbp
  00006	48 83 ec 20	 sub	 rsp, 32			; 00000020H
  0000a	48 8b ea	 mov	 rbp, rdx
__catch$PMCCS_Add_L_X$0:
; File z:\sources\lunor\repos\rougemeilland\palmtree.math.core.uint\palmtree.math.core.uint\pmc_exception.h

; 75   :             return (_code);

  0000d	48 8b 45 28	 mov	 rax, QWORD PTR ex$2[rbp]
  00011	8b 48 18	 mov	 ecx, DWORD PTR [rax+24]
  00014	89 4d 50	 mov	 DWORD PTR $T3[rbp], ecx
; File z:\sources\lunor\repos\rougemeilland\palmtree.math.core.uint\palmtree.math.core.uint\pmc_interface_csharp.cpp

; 393  :         }
; 394  :         catch (const Palmtree::Math::Core::Internal::Exception& ex)
; 395  :         {
; 396  :             return (ex.GetStatusCode());

  00017	48 8d 05 00 00
	00 00		 lea	 rax, $LN8@PMCCS_Add_
  0001e	48 83 c4 20	 add	 rsp, 32			; 00000020H
  00022	5d		 pop	 rbp
  00023	c3		 ret	 0
  00024	cc		 int	 3
PMCCS_Add_L_X$catch$0 ENDP
text$x	ENDS
; Function compile flags: /Ogtpy
; File z:\sources\lunor\repos\rougemeilland\palmtree.math.core.uint\palmtree.math.core.uint\pmc_exception.h
; File z:\sources\lunor\repos\rougemeilland\palmtree.math.core.uint\palmtree.math.core.uint\pmc_interface_csharp.cpp
;	COMDAT text$x
text$x	SEGMENT
$T1 = 32
ex$2 = 40
u$ = 64
v$ = 72
$T3 = 80
w$ = 80
PMCCS_Add_L_X$catch$0 PROC

; 395  :         {

  00000	48 89 54 24 10	 mov	 QWORD PTR [rsp+16], rdx
  00005	55		 push	 rbp
  00006	48 83 ec 20	 sub	 rsp, 32			; 00000020H
  0000a	48 8b ea	 mov	 rbp, rdx
__catch$PMCCS_Add_L_X$0:
; File z:\sources\lunor\repos\rougemeilland\palmtree.math.core.uint\palmtree.math.core.uint\pmc_exception.h

; 75   :             return (_code);

  0000d	48 8b 45 28	 mov	 rax, QWORD PTR ex$2[rbp]
  00011	8b 48 18	 mov	 ecx, DWORD PTR [rax+24]
  00014	89 4d 50	 mov	 DWORD PTR $T3[rbp], ecx
; File z:\sources\lunor\repos\rougemeilland\palmtree.math.core.uint\palmtree.math.core.uint\pmc_interface_csharp.cpp

; 396  :             return (ex.GetStatusCode());

  00017	48 8d 05 00 00
	00 00		 lea	 rax, $LN8@PMCCS_Add_
  0001e	48 83 c4 20	 add	 rsp, 32			; 00000020H
  00022	5d		 pop	 rbp
  00023	c3		 ret	 0
  00024	cc		 int	 3
PMCCS_Add_L_X$catch$0 ENDP
text$x	ENDS
; Function compile flags: /Ogtpy
; File z:\sources\lunor\repos\rougemeilland\palmtree.math.core.uint\palmtree.math.core.uint\pmc_interface_csharp.cpp
;	COMDAT PMCCS_Add_I_X
_TEXT	SEGMENT
$T1 = 32
ex$2 = 40
u$ = 64
v$ = 72
$T3 = 80
w$ = 80
PMCCS_Add_I_X PROC					; COMDAT

; 371  :     {

$LN13:
  00000	40 53		 push	 rbx
  00002	48 83 ec 30	 sub	 rsp, 48			; 00000030H
  00006	48 c7 44 24 20
	fe ff ff ff	 mov	 QWORD PTR $T1[rsp], -2
  0000f	49 8b d8	 mov	 rbx, r8

; 372  :         if (w == nullptr)

  00012	4d 85 c0	 test	 r8, r8
  00015	75 0a		 jne	 SHORT $LN2@PMCCS_Add_

; 373  :             return (PMC_STATUS_ARGUMENT_NULL_ERROR);

  00017	41 8d 40 fe	 lea	 eax, QWORD PTR [r8-2]

; 382  :         }
; 383  :     }

  0001b	48 83 c4 30	 add	 rsp, 48			; 00000030H
  0001f	5b		 pop	 rbx
  00020	c3		 ret	 0
$LN2@PMCCS_Add_:

; 374  :         try
; 375  :         {
; 376  :             *w = PMC_Add_I_X(u, v);

  00021	e8 00 00 00 00	 call	 ?PMC_Add_I_X@Internal@Core@Math@Palmtree@@YAPEAU__tag_PMC_HANDLE_UINT@1234@IPEAU51234@@Z ; Palmtree::Math::Core::Internal::PMC_Add_I_X
  00026	48 89 03	 mov	 QWORD PTR [rbx], rax

; 377  :             return (PMC_STATUS_OK);

  00029	33 c0		 xor	 eax, eax
  0002b	eb 04		 jmp	 SHORT $LN7@PMCCS_Add_
$LN8@PMCCS_Add_:

; 378  :         }
; 379  :         catch (const Palmtree::Math::Core::Internal::Exception& ex)
; 380  :         {
; 381  :             return (ex.GetStatusCode());

  0002d	8b 44 24 50	 mov	 eax, DWORD PTR $T3[rsp]
$LN7@PMCCS_Add_:

; 382  :         }
; 383  :     }

  00031	48 83 c4 30	 add	 rsp, 48			; 00000030H
  00035	5b		 pop	 rbx
  00036	c3		 ret	 0
  00037	cc		 int	 3
PMCCS_Add_I_X ENDP
_TEXT	ENDS
;	COMDAT text$x
text$x	SEGMENT
$T1 = 32
ex$2 = 40
u$ = 64
v$ = 72
$T3 = 80
w$ = 80
PMCCS_Add_I_X$catch$0 PROC

; 378  :         }
; 379  :         catch (const Palmtree::Math::Core::Internal::Exception& ex)
; 380  :         {

  00000	48 89 54 24 10	 mov	 QWORD PTR [rsp+16], rdx
  00005	55		 push	 rbp
  00006	48 83 ec 20	 sub	 rsp, 32			; 00000020H
  0000a	48 8b ea	 mov	 rbp, rdx
__catch$PMCCS_Add_I_X$0:
; File z:\sources\lunor\repos\rougemeilland\palmtree.math.core.uint\palmtree.math.core.uint\pmc_exception.h

; 75   :             return (_code);

  0000d	48 8b 45 28	 mov	 rax, QWORD PTR ex$2[rbp]
  00011	8b 48 18	 mov	 ecx, DWORD PTR [rax+24]
  00014	89 4d 50	 mov	 DWORD PTR $T3[rbp], ecx
; File z:\sources\lunor\repos\rougemeilland\palmtree.math.core.uint\palmtree.math.core.uint\pmc_interface_csharp.cpp

; 378  :         }
; 379  :         catch (const Palmtree::Math::Core::Internal::Exception& ex)
; 380  :         {
; 381  :             return (ex.GetStatusCode());

  00017	48 8d 05 00 00
	00 00		 lea	 rax, $LN8@PMCCS_Add_
  0001e	48 83 c4 20	 add	 rsp, 32			; 00000020H
  00022	5d		 pop	 rbp
  00023	c3		 ret	 0
  00024	cc		 int	 3
PMCCS_Add_I_X$catch$0 ENDP
text$x	ENDS
; Function compile flags: /Ogtpy
; File z:\sources\lunor\repos\rougemeilland\palmtree.math.core.uint\palmtree.math.core.uint\pmc_exception.h
; File z:\sources\lunor\repos\rougemeilland\palmtree.math.core.uint\palmtree.math.core.uint\pmc_interface_csharp.cpp
;	COMDAT text$x
text$x	SEGMENT
$T1 = 32
ex$2 = 40
u$ = 64
v$ = 72
$T3 = 80
w$ = 80
PMCCS_Add_I_X$catch$0 PROC

; 380  :         {

  00000	48 89 54 24 10	 mov	 QWORD PTR [rsp+16], rdx
  00005	55		 push	 rbp
  00006	48 83 ec 20	 sub	 rsp, 32			; 00000020H
  0000a	48 8b ea	 mov	 rbp, rdx
__catch$PMCCS_Add_I_X$0:
; File z:\sources\lunor\repos\rougemeilland\palmtree.math.core.uint\palmtree.math.core.uint\pmc_exception.h

; 75   :             return (_code);

  0000d	48 8b 45 28	 mov	 rax, QWORD PTR ex$2[rbp]
  00011	8b 48 18	 mov	 ecx, DWORD PTR [rax+24]
  00014	89 4d 50	 mov	 DWORD PTR $T3[rbp], ecx
; File z:\sources\lunor\repos\rougemeilland\palmtree.math.core.uint\palmtree.math.core.uint\pmc_interface_csharp.cpp

; 381  :             return (ex.GetStatusCode());

  00017	48 8d 05 00 00
	00 00		 lea	 rax, $LN8@PMCCS_Add_
  0001e	48 83 c4 20	 add	 rsp, 32			; 00000020H
  00022	5d		 pop	 rbp
  00023	c3		 ret	 0
  00024	cc		 int	 3
PMCCS_Add_I_X$catch$0 ENDP
text$x	ENDS
; Function compile flags: /Ogtpy
; File z:\sources\lunor\repos\rougemeilland\palmtree.math.core.uint\palmtree.math.core.uint\pmc_interface_csharp.cpp
;	COMDAT PMCCS_TryParse
_TEXT	SEGMENT
$T1 = 48
ex$2 = 56
source$ = 80
number_styles$ = 88
format_option$ = 96
$T3 = 104
o$ = 104
result$ = 112
PMCCS_TryParse PROC					; COMDAT

; 342  :     {

$LN15:
  00000	48 83 ec 48	 sub	 rsp, 72			; 00000048H
  00004	48 c7 44 24 30
	fe ff ff ff	 mov	 QWORD PTR $T1[rsp], -2

; 343  :         const PMC_NUMBER_STYLE_CODE all_styles =
; 344  :             PMC_NUMBER_STYLE_ALLOW_LEADING_WHITE |
; 345  :             PMC_NUMBER_STYLE_ALLOW_TRAILING_WHITE |
; 346  :             PMC_NUMBER_STYLE_ALLOW_LEADING_SIGN |
; 347  :             PMC_NUMBER_STYLE_ALLOW_TRAILING_SIGN |
; 348  :             PMC_NUMBER_STYLE_ALLOW_PARENTHESES |
; 349  :             PMC_NUMBER_STYLE_ALLOW_DECIMAL_POINT |
; 350  :             PMC_NUMBER_STYLE_ALLOW_THOUSANDS |
; 351  :             PMC_NUMBER_STYLE_ALLOW_CURRENCY_SYMBOL |
; 352  :             PMC_NUMBER_STYLE_ALLOW_HEX_SPECIFIER;
; 353  :         if (o == nullptr)

  0000d	4d 85 c9	 test	 r9, r9
  00010	75 09		 jne	 SHORT $LN2@PMCCS_TryP

; 354  :             return (PMC_STATUS_ARGUMENT_NULL_ERROR);

  00012	41 8d 41 fe	 lea	 eax, QWORD PTR [r9-2]

; 367  :         }
; 368  :     }

  00016	48 83 c4 48	 add	 rsp, 72			; 00000048H
  0001a	c3		 ret	 0
$LN2@PMCCS_TryP:

; 355  :         if (number_styles & ~all_styles)

  0001b	f7 c2 80 fc ff
	ff		 test	 edx, -896		; fffffffffffffc80H
  00021	74 0a		 je	 SHORT $LN3@PMCCS_TryP

; 356  :             return (PMC_STATUS_ARGUMENT_ERROR);

  00023	b8 ff ff ff ff	 mov	 eax, -1

; 367  :         }
; 368  :     }

  00028	48 83 c4 48	 add	 rsp, 72			; 00000048H
  0002c	c3		 ret	 0
$LN3@PMCCS_TryP:

; 357  :         try
; 358  :         {
; 359  :             PMC_STATUS_CODE err = PMC_TryParse(source, number_styles, format_option, o, result);

  0002d	48 8b 44 24 70	 mov	 rax, QWORD PTR result$[rsp]
  00032	48 89 44 24 20	 mov	 QWORD PTR [rsp+32], rax
  00037	e8 00 00 00 00	 call	 ?PMC_TryParse@Internal@Core@Math@Palmtree@@YAHPEB_WHPEBU__tag_PMC_NUMBER_FORMAT_INFO@1234@PEAPEAU__tag_PMC_HANDLE_UINT@1234@PEAI@Z ; Palmtree::Math::Core::Internal::PMC_TryParse

; 360  :             if (err != PMC_STATUS_OK)

  0003c	85 c0		 test	 eax, eax
  0003e	75 08		 jne	 SHORT $LN9@PMCCS_TryP
$LN5@PMCCS_TryP:

; 361  :                 return (err);
; 362  :             return (PMC_STATUS_OK);

  00040	33 c0		 xor	 eax, eax
  00042	eb 04		 jmp	 SHORT $LN9@PMCCS_TryP
$LN10@PMCCS_TryP:

; 363  :         }
; 364  :         catch (const Palmtree::Math::Core::Internal::Exception& ex)
; 365  :         {
; 366  :             return (ex.GetStatusCode());

  00044	8b 44 24 68	 mov	 eax, DWORD PTR $T3[rsp]
$LN9@PMCCS_TryP:

; 367  :         }
; 368  :     }

  00048	48 83 c4 48	 add	 rsp, 72			; 00000048H
  0004c	c3		 ret	 0
  0004d	cc		 int	 3
PMCCS_TryParse ENDP
_TEXT	ENDS
;	COMDAT text$x
text$x	SEGMENT
$T1 = 48
ex$2 = 56
source$ = 80
number_styles$ = 88
format_option$ = 96
$T3 = 104
o$ = 104
result$ = 112
PMCCS_TryParse$catch$0 PROC

; 363  :         }
; 364  :         catch (const Palmtree::Math::Core::Internal::Exception& ex)
; 365  :         {

  00000	48 89 54 24 10	 mov	 QWORD PTR [rsp+16], rdx
  00005	55		 push	 rbp
  00006	48 83 ec 30	 sub	 rsp, 48			; 00000030H
  0000a	48 8b ea	 mov	 rbp, rdx
__catch$PMCCS_TryParse$0:
; File z:\sources\lunor\repos\rougemeilland\palmtree.math.core.uint\palmtree.math.core.uint\pmc_exception.h

; 75   :             return (_code);

  0000d	48 8b 45 38	 mov	 rax, QWORD PTR ex$2[rbp]
  00011	8b 48 18	 mov	 ecx, DWORD PTR [rax+24]
  00014	89 4d 68	 mov	 DWORD PTR $T3[rbp], ecx
; File z:\sources\lunor\repos\rougemeilland\palmtree.math.core.uint\palmtree.math.core.uint\pmc_interface_csharp.cpp

; 363  :         }
; 364  :         catch (const Palmtree::Math::Core::Internal::Exception& ex)
; 365  :         {
; 366  :             return (ex.GetStatusCode());

  00017	48 8d 05 00 00
	00 00		 lea	 rax, $LN10@PMCCS_TryP
  0001e	48 83 c4 30	 add	 rsp, 48			; 00000030H
  00022	5d		 pop	 rbp
  00023	c3		 ret	 0
  00024	cc		 int	 3
PMCCS_TryParse$catch$0 ENDP
text$x	ENDS
; Function compile flags: /Ogtpy
; File z:\sources\lunor\repos\rougemeilland\palmtree.math.core.uint\palmtree.math.core.uint\pmc_exception.h
; File z:\sources\lunor\repos\rougemeilland\palmtree.math.core.uint\palmtree.math.core.uint\pmc_interface_csharp.cpp
;	COMDAT text$x
text$x	SEGMENT
$T1 = 48
ex$2 = 56
source$ = 80
number_styles$ = 88
format_option$ = 96
$T3 = 104
o$ = 104
result$ = 112
PMCCS_TryParse$catch$0 PROC

; 365  :         {

  00000	48 89 54 24 10	 mov	 QWORD PTR [rsp+16], rdx
  00005	55		 push	 rbp
  00006	48 83 ec 30	 sub	 rsp, 48			; 00000030H
  0000a	48 8b ea	 mov	 rbp, rdx
__catch$PMCCS_TryParse$0:
; File z:\sources\lunor\repos\rougemeilland\palmtree.math.core.uint\palmtree.math.core.uint\pmc_exception.h

; 75   :             return (_code);

  0000d	48 8b 45 38	 mov	 rax, QWORD PTR ex$2[rbp]
  00011	8b 48 18	 mov	 ecx, DWORD PTR [rax+24]
  00014	89 4d 68	 mov	 DWORD PTR $T3[rbp], ecx
; File z:\sources\lunor\repos\rougemeilland\palmtree.math.core.uint\palmtree.math.core.uint\pmc_interface_csharp.cpp

; 366  :             return (ex.GetStatusCode());

  00017	48 8d 05 00 00
	00 00		 lea	 rax, $LN10@PMCCS_TryP
  0001e	48 83 c4 30	 add	 rsp, 48			; 00000030H
  00022	5d		 pop	 rbp
  00023	c3		 ret	 0
  00024	cc		 int	 3
PMCCS_TryParse$catch$0 ENDP
text$x	ENDS
; Function compile flags: /Ogtpy
; File z:\sources\lunor\repos\rougemeilland\palmtree.math.core.uint\palmtree.math.core.uint\pmc_interface_csharp.cpp
;	COMDAT PMCCS_Parse
_TEXT	SEGMENT
$T1 = 48
ex$2 = 56
source$ = 80
number_styles$ = 88
format_option$ = 96
$T3 = 104
result$4 = 104
o$ = 104
PMCCS_Parse PROC					; COMDAT

; 307  :     {

$LN16:
  00000	48 83 ec 48	 sub	 rsp, 72			; 00000048H
  00004	48 c7 44 24 30
	fe ff ff ff	 mov	 QWORD PTR $T1[rsp], -2

; 308  :         const PMC_NUMBER_STYLE_CODE all_styles = 
; 309  :             PMC_NUMBER_STYLE_ALLOW_LEADING_WHITE |
; 310  :             PMC_NUMBER_STYLE_ALLOW_TRAILING_WHITE |
; 311  :             PMC_NUMBER_STYLE_ALLOW_LEADING_SIGN |
; 312  :             PMC_NUMBER_STYLE_ALLOW_TRAILING_SIGN |
; 313  :             PMC_NUMBER_STYLE_ALLOW_PARENTHESES |
; 314  :             PMC_NUMBER_STYLE_ALLOW_DECIMAL_POINT |
; 315  :             PMC_NUMBER_STYLE_ALLOW_THOUSANDS |
; 316  :             PMC_NUMBER_STYLE_ALLOW_CURRENCY_SYMBOL |
; 317  :             PMC_NUMBER_STYLE_ALLOW_HEX_SPECIFIER;
; 318  :         if (o == nullptr)

  0000d	4d 85 c9	 test	 r9, r9
  00010	75 09		 jne	 SHORT $LN2@PMCCS_Pars

; 319  :             return (PMC_STATUS_ARGUMENT_NULL_ERROR);

  00012	41 8d 41 fe	 lea	 eax, QWORD PTR [r9-2]

; 338  :         }
; 339  :     }

  00016	48 83 c4 48	 add	 rsp, 72			; 00000048H
  0001a	c3		 ret	 0
$LN2@PMCCS_Pars:

; 320  :         if (number_styles & ~all_styles)

  0001b	f7 c2 80 fc ff
	ff		 test	 edx, -896		; fffffffffffffc80H
  00021	74 0a		 je	 SHORT $LN3@PMCCS_Pars

; 321  :             return (PMC_STATUS_ARGUMENT_ERROR);

  00023	b8 ff ff ff ff	 mov	 eax, -1

; 338  :         }
; 339  :     }

  00028	48 83 c4 48	 add	 rsp, 72			; 00000048H
  0002c	c3		 ret	 0
$LN3@PMCCS_Pars:

; 322  :         try
; 323  :         {
; 324  :             _UINT32_T result;
; 325  :             PMC_STATUS_CODE err = PMC_TryParse(source, number_styles | PMC_NUMBER_STYLE_ALLOW_EXCEPTION_THROWING, format_option, o, &result);

  0002d	0f ba ea 19	 bts	 edx, 25
  00031	48 8d 44 24 68	 lea	 rax, QWORD PTR result$4[rsp]
  00036	48 89 44 24 20	 mov	 QWORD PTR [rsp+32], rax
  0003b	e8 00 00 00 00	 call	 ?PMC_TryParse@Internal@Core@Math@Palmtree@@YAHPEB_WHPEBU__tag_PMC_NUMBER_FORMAT_INFO@1234@PEAPEAU__tag_PMC_HANDLE_UINT@1234@PEAI@Z ; Palmtree::Math::Core::Internal::PMC_TryParse

; 326  :             if (err != PMC_STATUS_OK)

  00040	85 c0		 test	 eax, eax
  00042	75 16		 jne	 SHORT $LN10@PMCCS_Pars
$LN5@PMCCS_Pars:

; 327  :                 return (err);
; 328  :             if (!result)

  00044	83 7c 24 68 00	 cmp	 DWORD PTR result$4[rsp], 0
  00049	75 07		 jne	 SHORT $LN6@PMCCS_Pars

; 329  :             {
; 330  :                 // [gB
; 331  :                 return (PMC_STATUS_INTERNAL_ERROR);

  0004b	b8 00 ff ff ff	 mov	 eax, -256		; ffffffffffffff00H
  00050	eb 08		 jmp	 SHORT $LN10@PMCCS_Pars
$LN6@PMCCS_Pars:

; 332  :             }
; 333  :             return (PMC_STATUS_OK);

  00052	33 c0		 xor	 eax, eax
  00054	eb 04		 jmp	 SHORT $LN10@PMCCS_Pars
$LN11@PMCCS_Pars:

; 334  :         }
; 335  :         catch (const Palmtree::Math::Core::Internal::Exception& ex)
; 336  :         {
; 337  :             return (ex.GetStatusCode());

  00056	8b 44 24 68	 mov	 eax, DWORD PTR $T3[rsp]
$LN10@PMCCS_Pars:

; 338  :         }
; 339  :     }

  0005a	48 83 c4 48	 add	 rsp, 72			; 00000048H
  0005e	c3		 ret	 0
  0005f	cc		 int	 3
PMCCS_Parse ENDP
_TEXT	ENDS
;	COMDAT text$x
text$x	SEGMENT
$T1 = 48
ex$2 = 56
source$ = 80
number_styles$ = 88
format_option$ = 96
$T3 = 104
result$4 = 104
o$ = 104
PMCCS_Parse$catch$0 PROC

; 334  :         }
; 335  :         catch (const Palmtree::Math::Core::Internal::Exception& ex)
; 336  :         {

  00000	48 89 54 24 10	 mov	 QWORD PTR [rsp+16], rdx
  00005	55		 push	 rbp
  00006	48 83 ec 30	 sub	 rsp, 48			; 00000030H
  0000a	48 8b ea	 mov	 rbp, rdx
__catch$PMCCS_Parse$0:
; File z:\sources\lunor\repos\rougemeilland\palmtree.math.core.uint\palmtree.math.core.uint\pmc_exception.h

; 75   :             return (_code);

  0000d	48 8b 45 38	 mov	 rax, QWORD PTR ex$2[rbp]
  00011	8b 48 18	 mov	 ecx, DWORD PTR [rax+24]
  00014	89 4d 68	 mov	 DWORD PTR $T3[rbp], ecx
; File z:\sources\lunor\repos\rougemeilland\palmtree.math.core.uint\palmtree.math.core.uint\pmc_interface_csharp.cpp

; 334  :         }
; 335  :         catch (const Palmtree::Math::Core::Internal::Exception& ex)
; 336  :         {
; 337  :             return (ex.GetStatusCode());

  00017	48 8d 05 00 00
	00 00		 lea	 rax, $LN11@PMCCS_Pars
  0001e	48 83 c4 30	 add	 rsp, 48			; 00000030H
  00022	5d		 pop	 rbp
  00023	c3		 ret	 0
  00024	cc		 int	 3
PMCCS_Parse$catch$0 ENDP
text$x	ENDS
; Function compile flags: /Ogtpy
; File z:\sources\lunor\repos\rougemeilland\palmtree.math.core.uint\palmtree.math.core.uint\pmc_exception.h
; File z:\sources\lunor\repos\rougemeilland\palmtree.math.core.uint\palmtree.math.core.uint\pmc_interface_csharp.cpp
;	COMDAT text$x
text$x	SEGMENT
$T1 = 48
ex$2 = 56
source$ = 80
number_styles$ = 88
format_option$ = 96
$T3 = 104
result$4 = 104
o$ = 104
PMCCS_Parse$catch$0 PROC

; 336  :         {

  00000	48 89 54 24 10	 mov	 QWORD PTR [rsp+16], rdx
  00005	55		 push	 rbp
  00006	48 83 ec 30	 sub	 rsp, 48			; 00000030H
  0000a	48 8b ea	 mov	 rbp, rdx
__catch$PMCCS_Parse$0:
; File z:\sources\lunor\repos\rougemeilland\palmtree.math.core.uint\palmtree.math.core.uint\pmc_exception.h

; 75   :             return (_code);

  0000d	48 8b 45 38	 mov	 rax, QWORD PTR ex$2[rbp]
  00011	8b 48 18	 mov	 ecx, DWORD PTR [rax+24]
  00014	89 4d 68	 mov	 DWORD PTR $T3[rbp], ecx
; File z:\sources\lunor\repos\rougemeilland\palmtree.math.core.uint\palmtree.math.core.uint\pmc_interface_csharp.cpp

; 337  :             return (ex.GetStatusCode());

  00017	48 8d 05 00 00
	00 00		 lea	 rax, $LN11@PMCCS_Pars
  0001e	48 83 c4 30	 add	 rsp, 48			; 00000030H
  00022	5d		 pop	 rbp
  00023	c3		 ret	 0
  00024	cc		 int	 3
PMCCS_Parse$catch$0 ENDP
text$x	ENDS
; Function compile flags: /Ogtpy
; File z:\sources\lunor\repos\rougemeilland\palmtree.math.core.uint\palmtree.math.core.uint\pmc_interface_csharp.cpp
;	COMDAT PMCCS_ToString
_TEXT	SEGMENT
$T1 = 48
ex$2 = 56
x$ = 80
format$ = 88
format_option$ = 96
buffer$ = 104
buffer_size$ = 112
$T3 = 120
r$4 = 120
size$ = 120
PMCCS_ToString PROC					; COMDAT

; 289  :     {

$LN14:
  00000	40 53		 push	 rbx
  00002	48 83 ec 40	 sub	 rsp, 64			; 00000040H
  00006	48 c7 44 24 30
	fe ff ff ff	 mov	 QWORD PTR $T1[rsp], -2

; 290  :         if (size == nullptr)

  0000f	48 8b 5c 24 78	 mov	 rbx, QWORD PTR size$[rsp]
  00014	48 85 db	 test	 rbx, rbx
  00017	75 09		 jne	 SHORT $LN2@PMCCS_ToSt

; 291  :             return (PMC_STATUS_ARGUMENT_NULL_ERROR);

  00019	8d 43 fe	 lea	 eax, QWORD PTR [rbx-2]

; 303  :         }
; 304  :     }

  0001c	48 83 c4 40	 add	 rsp, 64			; 00000040H
  00020	5b		 pop	 rbx
  00021	c3		 ret	 0
$LN2@PMCCS_ToSt:

; 292  :         try
; 293  :         {
; 294  :             size_t r = PMC_ToString(x, format, format_option, buffer, buffer_size);

  00022	48 63 44 24 70	 movsxd	 rax, DWORD PTR buffer_size$[rsp]
  00027	48 89 44 24 20	 mov	 QWORD PTR [rsp+32], rax
  0002c	e8 00 00 00 00	 call	 ?PMC_ToString@Internal@Core@Math@Palmtree@@YA_KPEAU__tag_PMC_HANDLE_UINT@1234@PEB_WPEBU__tag_PMC_NUMBER_FORMAT_INFO@1234@PEA_W_K@Z ; Palmtree::Math::Core::Internal::PMC_ToString
  00031	48 89 44 24 78	 mov	 QWORD PTR r$4[rsp], rax

; 295  :             if (r > 0x7fffffff)

  00036	48 3d ff ff ff
	7f		 cmp	 rax, 2147483647		; 7fffffffH
  0003c	76 07		 jbe	 SHORT $LN4@PMCCS_ToSt

; 296  :                 return (PMC_STATUS_NOT_ENOUGH_MEMORY);

  0003e	b8 f7 ff ff ff	 mov	 eax, -9
  00043	eb 0a		 jmp	 SHORT $LN8@PMCCS_ToSt
$LN4@PMCCS_ToSt:

; 297  :             *size = (_INT32_T)r;

  00045	89 03		 mov	 DWORD PTR [rbx], eax

; 298  :             return (PMC_STATUS_OK);

  00047	33 c0		 xor	 eax, eax
  00049	eb 04		 jmp	 SHORT $LN8@PMCCS_ToSt
$LN9@PMCCS_ToSt:

; 299  :         }
; 300  :         catch (const Palmtree::Math::Core::Internal::Exception& ex)
; 301  :         {
; 302  :             return (ex.GetStatusCode());

  0004b	8b 44 24 78	 mov	 eax, DWORD PTR $T3[rsp]
$LN8@PMCCS_ToSt:

; 303  :         }
; 304  :     }

  0004f	48 83 c4 40	 add	 rsp, 64			; 00000040H
  00053	5b		 pop	 rbx
  00054	c3		 ret	 0
  00055	cc		 int	 3
PMCCS_ToString ENDP
_TEXT	ENDS
;	COMDAT text$x
text$x	SEGMENT
$T1 = 48
ex$2 = 56
x$ = 80
format$ = 88
format_option$ = 96
buffer$ = 104
buffer_size$ = 112
$T3 = 120
r$4 = 120
size$ = 120
PMCCS_ToString$catch$0 PROC

; 299  :         }
; 300  :         catch (const Palmtree::Math::Core::Internal::Exception& ex)
; 301  :         {

  00000	48 89 54 24 10	 mov	 QWORD PTR [rsp+16], rdx
  00005	55		 push	 rbp
  00006	48 83 ec 30	 sub	 rsp, 48			; 00000030H
  0000a	48 8b ea	 mov	 rbp, rdx
__catch$PMCCS_ToString$0:
; File z:\sources\lunor\repos\rougemeilland\palmtree.math.core.uint\palmtree.math.core.uint\pmc_exception.h

; 75   :             return (_code);

  0000d	48 8b 45 38	 mov	 rax, QWORD PTR ex$2[rbp]
  00011	8b 48 18	 mov	 ecx, DWORD PTR [rax+24]
  00014	89 4d 78	 mov	 DWORD PTR $T3[rbp], ecx
; File z:\sources\lunor\repos\rougemeilland\palmtree.math.core.uint\palmtree.math.core.uint\pmc_interface_csharp.cpp

; 299  :         }
; 300  :         catch (const Palmtree::Math::Core::Internal::Exception& ex)
; 301  :         {
; 302  :             return (ex.GetStatusCode());

  00017	48 8d 05 00 00
	00 00		 lea	 rax, $LN9@PMCCS_ToSt
  0001e	48 83 c4 30	 add	 rsp, 48			; 00000030H
  00022	5d		 pop	 rbp
  00023	c3		 ret	 0
  00024	cc		 int	 3
PMCCS_ToString$catch$0 ENDP
text$x	ENDS
; Function compile flags: /Ogtpy
; File z:\sources\lunor\repos\rougemeilland\palmtree.math.core.uint\palmtree.math.core.uint\pmc_exception.h
; File z:\sources\lunor\repos\rougemeilland\palmtree.math.core.uint\palmtree.math.core.uint\pmc_interface_csharp.cpp
;	COMDAT text$x
text$x	SEGMENT
$T1 = 48
ex$2 = 56
x$ = 80
format$ = 88
format_option$ = 96
buffer$ = 104
buffer_size$ = 112
$T3 = 120
r$4 = 120
size$ = 120
PMCCS_ToString$catch$0 PROC

; 301  :         {

  00000	48 89 54 24 10	 mov	 QWORD PTR [rsp+16], rdx
  00005	55		 push	 rbp
  00006	48 83 ec 30	 sub	 rsp, 48			; 00000030H
  0000a	48 8b ea	 mov	 rbp, rdx
__catch$PMCCS_ToString$0:
; File z:\sources\lunor\repos\rougemeilland\palmtree.math.core.uint\palmtree.math.core.uint\pmc_exception.h

; 75   :             return (_code);

  0000d	48 8b 45 38	 mov	 rax, QWORD PTR ex$2[rbp]
  00011	8b 48 18	 mov	 ecx, DWORD PTR [rax+24]
  00014	89 4d 78	 mov	 DWORD PTR $T3[rbp], ecx
; File z:\sources\lunor\repos\rougemeilland\palmtree.math.core.uint\palmtree.math.core.uint\pmc_interface_csharp.cpp

; 302  :             return (ex.GetStatusCode());

  00017	48 8d 05 00 00
	00 00		 lea	 rax, $LN9@PMCCS_ToSt
  0001e	48 83 c4 30	 add	 rsp, 48			; 00000030H
  00022	5d		 pop	 rbp
  00023	c3		 ret	 0
  00024	cc		 int	 3
PMCCS_ToString$catch$0 ENDP
text$x	ENDS
; Function compile flags: /Ogtpy
; File z:\sources\lunor\repos\rougemeilland\palmtree.math.core.uint\palmtree.math.core.uint\pmc_interface_csharp.cpp
;	COMDAT PMCCS_To_X_L
_TEXT	SEGMENT
$T1 = 32
ex$2 = 40
p$ = 64
$T3 = 72
o$ = 72
PMCCS_To_X_L PROC					; COMDAT

; 274  :     {

$LN13:
  00000	40 53		 push	 rbx
  00002	48 83 ec 30	 sub	 rsp, 48			; 00000030H
  00006	48 c7 44 24 20
	fe ff ff ff	 mov	 QWORD PTR $T1[rsp], -2
  0000f	48 8b da	 mov	 rbx, rdx

; 275  :         if (o == nullptr)

  00012	48 85 d2	 test	 rdx, rdx
  00015	75 09		 jne	 SHORT $LN2@PMCCS_To_X

; 276  :             return (PMC_STATUS_ARGUMENT_NULL_ERROR);

  00017	8d 42 fe	 lea	 eax, QWORD PTR [rdx-2]

; 285  :         }
; 286  :     }

  0001a	48 83 c4 30	 add	 rsp, 48			; 00000030H
  0001e	5b		 pop	 rbx
  0001f	c3		 ret	 0
$LN2@PMCCS_To_X:

; 277  :         try
; 278  :         {
; 279  :             *o = PMC_To_X_L(p);

  00020	e8 00 00 00 00	 call	 ?PMC_To_X_L@Internal@Core@Math@Palmtree@@YA_KPEAU__tag_PMC_HANDLE_UINT@1234@@Z ; Palmtree::Math::Core::Internal::PMC_To_X_L
  00025	48 89 03	 mov	 QWORD PTR [rbx], rax

; 280  :             return (PMC_STATUS_OK);

  00028	33 c0		 xor	 eax, eax
  0002a	eb 04		 jmp	 SHORT $LN7@PMCCS_To_X
$LN8@PMCCS_To_X:

; 281  :         }
; 282  :         catch (const Palmtree::Math::Core::Internal::Exception& ex)
; 283  :         {
; 284  :             return (ex.GetStatusCode());

  0002c	8b 44 24 48	 mov	 eax, DWORD PTR $T3[rsp]
$LN7@PMCCS_To_X:

; 285  :         }
; 286  :     }

  00030	48 83 c4 30	 add	 rsp, 48			; 00000030H
  00034	5b		 pop	 rbx
  00035	c3		 ret	 0
  00036	cc		 int	 3
PMCCS_To_X_L ENDP
_TEXT	ENDS
;	COMDAT text$x
text$x	SEGMENT
$T1 = 32
ex$2 = 40
p$ = 64
$T3 = 72
o$ = 72
PMCCS_To_X_L$catch$0 PROC

; 281  :         }
; 282  :         catch (const Palmtree::Math::Core::Internal::Exception& ex)
; 283  :         {

  00000	48 89 54 24 10	 mov	 QWORD PTR [rsp+16], rdx
  00005	55		 push	 rbp
  00006	48 83 ec 20	 sub	 rsp, 32			; 00000020H
  0000a	48 8b ea	 mov	 rbp, rdx
__catch$PMCCS_To_X_L$0:
; File z:\sources\lunor\repos\rougemeilland\palmtree.math.core.uint\palmtree.math.core.uint\pmc_exception.h

; 75   :             return (_code);

  0000d	48 8b 45 28	 mov	 rax, QWORD PTR ex$2[rbp]
  00011	8b 48 18	 mov	 ecx, DWORD PTR [rax+24]
  00014	89 4d 48	 mov	 DWORD PTR $T3[rbp], ecx
; File z:\sources\lunor\repos\rougemeilland\palmtree.math.core.uint\palmtree.math.core.uint\pmc_interface_csharp.cpp

; 281  :         }
; 282  :         catch (const Palmtree::Math::Core::Internal::Exception& ex)
; 283  :         {
; 284  :             return (ex.GetStatusCode());

  00017	48 8d 05 00 00
	00 00		 lea	 rax, $LN8@PMCCS_To_X
  0001e	48 83 c4 20	 add	 rsp, 32			; 00000020H
  00022	5d		 pop	 rbp
  00023	c3		 ret	 0
  00024	cc		 int	 3
PMCCS_To_X_L$catch$0 ENDP
text$x	ENDS
; Function compile flags: /Ogtpy
; File z:\sources\lunor\repos\rougemeilland\palmtree.math.core.uint\palmtree.math.core.uint\pmc_exception.h
; File z:\sources\lunor\repos\rougemeilland\palmtree.math.core.uint\palmtree.math.core.uint\pmc_interface_csharp.cpp
;	COMDAT text$x
text$x	SEGMENT
$T1 = 32
ex$2 = 40
p$ = 64
$T3 = 72
o$ = 72
PMCCS_To_X_L$catch$0 PROC

; 283  :         {

  00000	48 89 54 24 10	 mov	 QWORD PTR [rsp+16], rdx
  00005	55		 push	 rbp
  00006	48 83 ec 20	 sub	 rsp, 32			; 00000020H
  0000a	48 8b ea	 mov	 rbp, rdx
__catch$PMCCS_To_X_L$0:
; File z:\sources\lunor\repos\rougemeilland\palmtree.math.core.uint\palmtree.math.core.uint\pmc_exception.h

; 75   :             return (_code);

  0000d	48 8b 45 28	 mov	 rax, QWORD PTR ex$2[rbp]
  00011	8b 48 18	 mov	 ecx, DWORD PTR [rax+24]
  00014	89 4d 48	 mov	 DWORD PTR $T3[rbp], ecx
; File z:\sources\lunor\repos\rougemeilland\palmtree.math.core.uint\palmtree.math.core.uint\pmc_interface_csharp.cpp

; 284  :             return (ex.GetStatusCode());

  00017	48 8d 05 00 00
	00 00		 lea	 rax, $LN8@PMCCS_To_X
  0001e	48 83 c4 20	 add	 rsp, 32			; 00000020H
  00022	5d		 pop	 rbp
  00023	c3		 ret	 0
  00024	cc		 int	 3
PMCCS_To_X_L$catch$0 ENDP
text$x	ENDS
; Function compile flags: /Ogtpy
; File z:\sources\lunor\repos\rougemeilland\palmtree.math.core.uint\palmtree.math.core.uint\pmc_interface_csharp.cpp
;	COMDAT PMCCS_To_X_I
_TEXT	SEGMENT
$T1 = 32
ex$2 = 40
p$ = 64
$T3 = 72
o$ = 72
PMCCS_To_X_I PROC					; COMDAT

; 259  :     {

$LN13:
  00000	40 53		 push	 rbx
  00002	48 83 ec 30	 sub	 rsp, 48			; 00000030H
  00006	48 c7 44 24 20
	fe ff ff ff	 mov	 QWORD PTR $T1[rsp], -2
  0000f	48 8b da	 mov	 rbx, rdx

; 260  :         if (o == nullptr)

  00012	48 85 d2	 test	 rdx, rdx
  00015	75 09		 jne	 SHORT $LN2@PMCCS_To_X

; 261  :             return (PMC_STATUS_ARGUMENT_NULL_ERROR);

  00017	8d 42 fe	 lea	 eax, QWORD PTR [rdx-2]

; 270  :         }
; 271  :     }

  0001a	48 83 c4 30	 add	 rsp, 48			; 00000030H
  0001e	5b		 pop	 rbx
  0001f	c3		 ret	 0
$LN2@PMCCS_To_X:

; 262  :         try
; 263  :         {
; 264  :             *o = PMC_To_X_I(p);

  00020	e8 00 00 00 00	 call	 ?PMC_To_X_I@Internal@Core@Math@Palmtree@@YAIPEAU__tag_PMC_HANDLE_UINT@1234@@Z ; Palmtree::Math::Core::Internal::PMC_To_X_I
  00025	89 03		 mov	 DWORD PTR [rbx], eax

; 265  :             return (PMC_STATUS_OK);

  00027	33 c0		 xor	 eax, eax
  00029	eb 04		 jmp	 SHORT $LN7@PMCCS_To_X
$LN8@PMCCS_To_X:

; 266  :         }
; 267  :         catch (const Palmtree::Math::Core::Internal::Exception& ex)
; 268  :         {
; 269  :             return (ex.GetStatusCode());

  0002b	8b 44 24 48	 mov	 eax, DWORD PTR $T3[rsp]
$LN7@PMCCS_To_X:

; 270  :         }
; 271  :     }

  0002f	48 83 c4 30	 add	 rsp, 48			; 00000030H
  00033	5b		 pop	 rbx
  00034	c3		 ret	 0
  00035	cc		 int	 3
PMCCS_To_X_I ENDP
_TEXT	ENDS
;	COMDAT text$x
text$x	SEGMENT
$T1 = 32
ex$2 = 40
p$ = 64
$T3 = 72
o$ = 72
PMCCS_To_X_I$catch$0 PROC

; 266  :         }
; 267  :         catch (const Palmtree::Math::Core::Internal::Exception& ex)
; 268  :         {

  00000	48 89 54 24 10	 mov	 QWORD PTR [rsp+16], rdx
  00005	55		 push	 rbp
  00006	48 83 ec 20	 sub	 rsp, 32			; 00000020H
  0000a	48 8b ea	 mov	 rbp, rdx
__catch$PMCCS_To_X_I$0:
; File z:\sources\lunor\repos\rougemeilland\palmtree.math.core.uint\palmtree.math.core.uint\pmc_exception.h

; 75   :             return (_code);

  0000d	48 8b 45 28	 mov	 rax, QWORD PTR ex$2[rbp]
  00011	8b 48 18	 mov	 ecx, DWORD PTR [rax+24]
  00014	89 4d 48	 mov	 DWORD PTR $T3[rbp], ecx
; File z:\sources\lunor\repos\rougemeilland\palmtree.math.core.uint\palmtree.math.core.uint\pmc_interface_csharp.cpp

; 266  :         }
; 267  :         catch (const Palmtree::Math::Core::Internal::Exception& ex)
; 268  :         {
; 269  :             return (ex.GetStatusCode());

  00017	48 8d 05 00 00
	00 00		 lea	 rax, $LN8@PMCCS_To_X
  0001e	48 83 c4 20	 add	 rsp, 32			; 00000020H
  00022	5d		 pop	 rbp
  00023	c3		 ret	 0
  00024	cc		 int	 3
PMCCS_To_X_I$catch$0 ENDP
text$x	ENDS
; Function compile flags: /Ogtpy
; File z:\sources\lunor\repos\rougemeilland\palmtree.math.core.uint\palmtree.math.core.uint\pmc_exception.h
; File z:\sources\lunor\repos\rougemeilland\palmtree.math.core.uint\palmtree.math.core.uint\pmc_interface_csharp.cpp
;	COMDAT text$x
text$x	SEGMENT
$T1 = 32
ex$2 = 40
p$ = 64
$T3 = 72
o$ = 72
PMCCS_To_X_I$catch$0 PROC

; 268  :         {

  00000	48 89 54 24 10	 mov	 QWORD PTR [rsp+16], rdx
  00005	55		 push	 rbp
  00006	48 83 ec 20	 sub	 rsp, 32			; 00000020H
  0000a	48 8b ea	 mov	 rbp, rdx
__catch$PMCCS_To_X_I$0:
; File z:\sources\lunor\repos\rougemeilland\palmtree.math.core.uint\palmtree.math.core.uint\pmc_exception.h

; 75   :             return (_code);

  0000d	48 8b 45 28	 mov	 rax, QWORD PTR ex$2[rbp]
  00011	8b 48 18	 mov	 ecx, DWORD PTR [rax+24]
  00014	89 4d 48	 mov	 DWORD PTR $T3[rbp], ecx
; File z:\sources\lunor\repos\rougemeilland\palmtree.math.core.uint\palmtree.math.core.uint\pmc_interface_csharp.cpp

; 269  :             return (ex.GetStatusCode());

  00017	48 8d 05 00 00
	00 00		 lea	 rax, $LN8@PMCCS_To_X
  0001e	48 83 c4 20	 add	 rsp, 32			; 00000020H
  00022	5d		 pop	 rbp
  00023	c3		 ret	 0
  00024	cc		 int	 3
PMCCS_To_X_I$catch$0 ENDP
text$x	ENDS
; Function compile flags: /Ogtpy
; File z:\sources\lunor\repos\rougemeilland\palmtree.math.core.uint\palmtree.math.core.uint\pmc_interface_csharp.cpp
;	COMDAT PMCCS_GetAllocatedMemorySize
_TEXT	SEGMENT
$T1 = 32
ex$2 = 40
$T3 = 64
size$ = 64
PMCCS_GetAllocatedMemorySize PROC			; COMDAT

; 244  :     {

$LN13:
  00000	40 53		 push	 rbx
  00002	48 83 ec 30	 sub	 rsp, 48			; 00000030H
  00006	48 c7 44 24 20
	fe ff ff ff	 mov	 QWORD PTR $T1[rsp], -2
  0000f	48 8b d9	 mov	 rbx, rcx

; 245  :         if (size == nullptr)

  00012	48 85 c9	 test	 rcx, rcx
  00015	75 09		 jne	 SHORT $LN2@PMCCS_GetA

; 246  :             return (PMC_STATUS_ARGUMENT_NULL_ERROR);

  00017	8d 41 fe	 lea	 eax, QWORD PTR [rcx-2]

; 255  :         }
; 256  :     }

  0001a	48 83 c4 30	 add	 rsp, 48			; 00000030H
  0001e	5b		 pop	 rbx
  0001f	c3		 ret	 0
$LN2@PMCCS_GetA:

; 247  :         try
; 248  :         {
; 249  :             *size = PMC_GetAllocatedMemorySize();

  00020	e8 00 00 00 00	 call	 ?PMC_GetAllocatedMemorySize@Internal@Core@Math@Palmtree@@YA_KXZ ; Palmtree::Math::Core::Internal::PMC_GetAllocatedMemorySize
  00025	48 89 03	 mov	 QWORD PTR [rbx], rax

; 250  :             return (PMC_STATUS_OK);

  00028	33 c0		 xor	 eax, eax
  0002a	eb 04		 jmp	 SHORT $LN7@PMCCS_GetA
$LN8@PMCCS_GetA:

; 251  :         }
; 252  :         catch (const Palmtree::Math::Core::Internal::Exception& ex)
; 253  :         {
; 254  :             return (ex.GetStatusCode());

  0002c	8b 44 24 40	 mov	 eax, DWORD PTR $T3[rsp]
$LN7@PMCCS_GetA:

; 255  :         }
; 256  :     }

  00030	48 83 c4 30	 add	 rsp, 48			; 00000030H
  00034	5b		 pop	 rbx
  00035	c3		 ret	 0
  00036	cc		 int	 3
PMCCS_GetAllocatedMemorySize ENDP
_TEXT	ENDS
;	COMDAT text$x
text$x	SEGMENT
$T1 = 32
ex$2 = 40
$T3 = 64
size$ = 64
PMCCS_GetAllocatedMemorySize$catch$0 PROC

; 251  :         }
; 252  :         catch (const Palmtree::Math::Core::Internal::Exception& ex)
; 253  :         {

  00000	48 89 54 24 10	 mov	 QWORD PTR [rsp+16], rdx
  00005	55		 push	 rbp
  00006	48 83 ec 20	 sub	 rsp, 32			; 00000020H
  0000a	48 8b ea	 mov	 rbp, rdx
__catch$PMCCS_GetAllocatedMemorySize$0:
; File z:\sources\lunor\repos\rougemeilland\palmtree.math.core.uint\palmtree.math.core.uint\pmc_exception.h

; 75   :             return (_code);

  0000d	48 8b 45 28	 mov	 rax, QWORD PTR ex$2[rbp]
  00011	8b 48 18	 mov	 ecx, DWORD PTR [rax+24]
  00014	89 4d 40	 mov	 DWORD PTR $T3[rbp], ecx
; File z:\sources\lunor\repos\rougemeilland\palmtree.math.core.uint\palmtree.math.core.uint\pmc_interface_csharp.cpp

; 251  :         }
; 252  :         catch (const Palmtree::Math::Core::Internal::Exception& ex)
; 253  :         {
; 254  :             return (ex.GetStatusCode());

  00017	48 8d 05 00 00
	00 00		 lea	 rax, $LN8@PMCCS_GetA
  0001e	48 83 c4 20	 add	 rsp, 32			; 00000020H
  00022	5d		 pop	 rbp
  00023	c3		 ret	 0
  00024	cc		 int	 3
PMCCS_GetAllocatedMemorySize$catch$0 ENDP
text$x	ENDS
; Function compile flags: /Ogtpy
; File z:\sources\lunor\repos\rougemeilland\palmtree.math.core.uint\palmtree.math.core.uint\pmc_exception.h
; File z:\sources\lunor\repos\rougemeilland\palmtree.math.core.uint\palmtree.math.core.uint\pmc_interface_csharp.cpp
;	COMDAT text$x
text$x	SEGMENT
$T1 = 32
ex$2 = 40
$T3 = 64
size$ = 64
PMCCS_GetAllocatedMemorySize$catch$0 PROC

; 253  :         {

  00000	48 89 54 24 10	 mov	 QWORD PTR [rsp+16], rdx
  00005	55		 push	 rbp
  00006	48 83 ec 20	 sub	 rsp, 32			; 00000020H
  0000a	48 8b ea	 mov	 rbp, rdx
__catch$PMCCS_GetAllocatedMemorySize$0:
; File z:\sources\lunor\repos\rougemeilland\palmtree.math.core.uint\palmtree.math.core.uint\pmc_exception.h

; 75   :             return (_code);

  0000d	48 8b 45 28	 mov	 rax, QWORD PTR ex$2[rbp]
  00011	8b 48 18	 mov	 ecx, DWORD PTR [rax+24]
  00014	89 4d 40	 mov	 DWORD PTR $T3[rbp], ecx
; File z:\sources\lunor\repos\rougemeilland\palmtree.math.core.uint\palmtree.math.core.uint\pmc_interface_csharp.cpp

; 254  :             return (ex.GetStatusCode());

  00017	48 8d 05 00 00
	00 00		 lea	 rax, $LN8@PMCCS_GetA
  0001e	48 83 c4 20	 add	 rsp, 32			; 00000020H
  00022	5d		 pop	 rbp
  00023	c3		 ret	 0
  00024	cc		 int	 3
PMCCS_GetAllocatedMemorySize$catch$0 ENDP
text$x	ENDS
; Function compile flags: /Ogtpy
; File z:\sources\lunor\repos\rougemeilland\palmtree.math.core.uint\palmtree.math.core.uint\pmc_interface_csharp.cpp
;	COMDAT PMCCS_Clone_X
_TEXT	SEGMENT
$T1 = 32
ex$2 = 40
x$ = 64
$T3 = 72
o$ = 72
PMCCS_Clone_X PROC					; COMDAT

; 229  :     {

$LN13:
  00000	40 53		 push	 rbx
  00002	48 83 ec 30	 sub	 rsp, 48			; 00000030H
  00006	48 c7 44 24 20
	fe ff ff ff	 mov	 QWORD PTR $T1[rsp], -2
  0000f	48 8b da	 mov	 rbx, rdx

; 230  :         if (o == nullptr)

  00012	48 85 d2	 test	 rdx, rdx
  00015	75 09		 jne	 SHORT $LN2@PMCCS_Clon

; 231  :             return (PMC_STATUS_ARGUMENT_NULL_ERROR);

  00017	8d 42 fe	 lea	 eax, QWORD PTR [rdx-2]

; 240  :         }
; 241  :     }

  0001a	48 83 c4 30	 add	 rsp, 48			; 00000030H
  0001e	5b		 pop	 rbx
  0001f	c3		 ret	 0
$LN2@PMCCS_Clon:

; 232  :         try
; 233  :         {
; 234  :             *o = PMC_Clone_X(x);

  00020	e8 00 00 00 00	 call	 ?PMC_Clone_X@Internal@Core@Math@Palmtree@@YAPEAU__tag_PMC_HANDLE_UINT@1234@PEAU51234@@Z ; Palmtree::Math::Core::Internal::PMC_Clone_X
  00025	48 89 03	 mov	 QWORD PTR [rbx], rax

; 235  :             return (PMC_STATUS_OK);

  00028	33 c0		 xor	 eax, eax
  0002a	eb 04		 jmp	 SHORT $LN7@PMCCS_Clon
$LN8@PMCCS_Clon:

; 236  :         }
; 237  :         catch (const Palmtree::Math::Core::Internal::Exception& ex)
; 238  :         {
; 239  :             return (ex.GetStatusCode());

  0002c	8b 44 24 48	 mov	 eax, DWORD PTR $T3[rsp]
$LN7@PMCCS_Clon:

; 240  :         }
; 241  :     }

  00030	48 83 c4 30	 add	 rsp, 48			; 00000030H
  00034	5b		 pop	 rbx
  00035	c3		 ret	 0
  00036	cc		 int	 3
PMCCS_Clone_X ENDP
_TEXT	ENDS
;	COMDAT text$x
text$x	SEGMENT
$T1 = 32
ex$2 = 40
x$ = 64
$T3 = 72
o$ = 72
PMCCS_Clone_X$catch$0 PROC

; 236  :         }
; 237  :         catch (const Palmtree::Math::Core::Internal::Exception& ex)
; 238  :         {

  00000	48 89 54 24 10	 mov	 QWORD PTR [rsp+16], rdx
  00005	55		 push	 rbp
  00006	48 83 ec 20	 sub	 rsp, 32			; 00000020H
  0000a	48 8b ea	 mov	 rbp, rdx
__catch$PMCCS_Clone_X$0:
; File z:\sources\lunor\repos\rougemeilland\palmtree.math.core.uint\palmtree.math.core.uint\pmc_exception.h

; 75   :             return (_code);

  0000d	48 8b 45 28	 mov	 rax, QWORD PTR ex$2[rbp]
  00011	8b 48 18	 mov	 ecx, DWORD PTR [rax+24]
  00014	89 4d 48	 mov	 DWORD PTR $T3[rbp], ecx
; File z:\sources\lunor\repos\rougemeilland\palmtree.math.core.uint\palmtree.math.core.uint\pmc_interface_csharp.cpp

; 236  :         }
; 237  :         catch (const Palmtree::Math::Core::Internal::Exception& ex)
; 238  :         {
; 239  :             return (ex.GetStatusCode());

  00017	48 8d 05 00 00
	00 00		 lea	 rax, $LN8@PMCCS_Clon
  0001e	48 83 c4 20	 add	 rsp, 32			; 00000020H
  00022	5d		 pop	 rbp
  00023	c3		 ret	 0
  00024	cc		 int	 3
PMCCS_Clone_X$catch$0 ENDP
text$x	ENDS
; Function compile flags: /Ogtpy
; File z:\sources\lunor\repos\rougemeilland\palmtree.math.core.uint\palmtree.math.core.uint\pmc_exception.h
; File z:\sources\lunor\repos\rougemeilland\palmtree.math.core.uint\palmtree.math.core.uint\pmc_interface_csharp.cpp
;	COMDAT text$x
text$x	SEGMENT
$T1 = 32
ex$2 = 40
x$ = 64
$T3 = 72
o$ = 72
PMCCS_Clone_X$catch$0 PROC

; 238  :         {

  00000	48 89 54 24 10	 mov	 QWORD PTR [rsp+16], rdx
  00005	55		 push	 rbp
  00006	48 83 ec 20	 sub	 rsp, 32			; 00000020H
  0000a	48 8b ea	 mov	 rbp, rdx
__catch$PMCCS_Clone_X$0:
; File z:\sources\lunor\repos\rougemeilland\palmtree.math.core.uint\palmtree.math.core.uint\pmc_exception.h

; 75   :             return (_code);

  0000d	48 8b 45 28	 mov	 rax, QWORD PTR ex$2[rbp]
  00011	8b 48 18	 mov	 ecx, DWORD PTR [rax+24]
  00014	89 4d 48	 mov	 DWORD PTR $T3[rbp], ecx
; File z:\sources\lunor\repos\rougemeilland\palmtree.math.core.uint\palmtree.math.core.uint\pmc_interface_csharp.cpp

; 239  :             return (ex.GetStatusCode());

  00017	48 8d 05 00 00
	00 00		 lea	 rax, $LN8@PMCCS_Clon
  0001e	48 83 c4 20	 add	 rsp, 32			; 00000020H
  00022	5d		 pop	 rbp
  00023	c3		 ret	 0
  00024	cc		 int	 3
PMCCS_Clone_X$catch$0 ENDP
text$x	ENDS
; Function compile flags: /Ogtpy
; File z:\sources\lunor\repos\rougemeilland\palmtree.math.core.uint\palmtree.math.core.uint\pmc_interface_csharp.cpp
;	COMDAT PMCCS_ToByteArray
_TEXT	SEGMENT
$T1 = 32
ex$2 = 40
p$ = 64
buffer$ = 72
buffer_size$ = 80
$T3 = 88
r$4 = 88
size$ = 88
PMCCS_ToByteArray PROC					; COMDAT

; 211  :     {

$LN14:
  00000	40 53		 push	 rbx
  00002	48 83 ec 30	 sub	 rsp, 48			; 00000030H
  00006	48 c7 44 24 20
	fe ff ff ff	 mov	 QWORD PTR $T1[rsp], -2
  0000f	49 8b d9	 mov	 rbx, r9

; 212  :         if (size == nullptr)

  00012	4d 85 c9	 test	 r9, r9
  00015	75 0a		 jne	 SHORT $LN2@PMCCS_ToBy

; 213  :             return (PMC_STATUS_ARGUMENT_NULL_ERROR);

  00017	41 8d 41 fe	 lea	 eax, QWORD PTR [r9-2]

; 225  :         }
; 226  :     }

  0001b	48 83 c4 30	 add	 rsp, 48			; 00000030H
  0001f	5b		 pop	 rbx
  00020	c3		 ret	 0
$LN2@PMCCS_ToBy:

; 214  :         try
; 215  :         {
; 216  :             size_t r = PMC_ToByteArray(p, buffer, buffer_size);

  00021	4d 63 c0	 movsxd	 r8, r8d
  00024	e8 00 00 00 00	 call	 ?PMC_ToByteArray@Internal@Core@Math@Palmtree@@YA_KPEAU__tag_PMC_HANDLE_UINT@1234@PEAE_K@Z ; Palmtree::Math::Core::Internal::PMC_ToByteArray
  00029	48 89 44 24 58	 mov	 QWORD PTR r$4[rsp], rax

; 217  :             if (r > 0x7fffffff)

  0002e	48 3d ff ff ff
	7f		 cmp	 rax, 2147483647		; 7fffffffH
  00034	76 07		 jbe	 SHORT $LN4@PMCCS_ToBy

; 218  :                 return (PMC_STATUS_NOT_ENOUGH_MEMORY);

  00036	b8 f7 ff ff ff	 mov	 eax, -9
  0003b	eb 0a		 jmp	 SHORT $LN8@PMCCS_ToBy
$LN4@PMCCS_ToBy:

; 219  :             *size = (_INT32_T)r;

  0003d	89 03		 mov	 DWORD PTR [rbx], eax

; 220  :             return (PMC_STATUS_OK);

  0003f	33 c0		 xor	 eax, eax
  00041	eb 04		 jmp	 SHORT $LN8@PMCCS_ToBy
$LN9@PMCCS_ToBy:

; 221  :         }
; 222  :         catch (const Palmtree::Math::Core::Internal::Exception& ex)
; 223  :         {
; 224  :             return (ex.GetStatusCode());

  00043	8b 44 24 58	 mov	 eax, DWORD PTR $T3[rsp]
$LN8@PMCCS_ToBy:

; 225  :         }
; 226  :     }

  00047	48 83 c4 30	 add	 rsp, 48			; 00000030H
  0004b	5b		 pop	 rbx
  0004c	c3		 ret	 0
  0004d	cc		 int	 3
PMCCS_ToByteArray ENDP
_TEXT	ENDS
;	COMDAT text$x
text$x	SEGMENT
$T1 = 32
ex$2 = 40
p$ = 64
buffer$ = 72
buffer_size$ = 80
$T3 = 88
r$4 = 88
size$ = 88
PMCCS_ToByteArray$catch$0 PROC

; 221  :         }
; 222  :         catch (const Palmtree::Math::Core::Internal::Exception& ex)
; 223  :         {

  00000	48 89 54 24 10	 mov	 QWORD PTR [rsp+16], rdx
  00005	55		 push	 rbp
  00006	48 83 ec 20	 sub	 rsp, 32			; 00000020H
  0000a	48 8b ea	 mov	 rbp, rdx
__catch$PMCCS_ToByteArray$0:
; File z:\sources\lunor\repos\rougemeilland\palmtree.math.core.uint\palmtree.math.core.uint\pmc_exception.h

; 75   :             return (_code);

  0000d	48 8b 45 28	 mov	 rax, QWORD PTR ex$2[rbp]
  00011	8b 48 18	 mov	 ecx, DWORD PTR [rax+24]
  00014	89 4d 58	 mov	 DWORD PTR $T3[rbp], ecx
; File z:\sources\lunor\repos\rougemeilland\palmtree.math.core.uint\palmtree.math.core.uint\pmc_interface_csharp.cpp

; 221  :         }
; 222  :         catch (const Palmtree::Math::Core::Internal::Exception& ex)
; 223  :         {
; 224  :             return (ex.GetStatusCode());

  00017	48 8d 05 00 00
	00 00		 lea	 rax, $LN9@PMCCS_ToBy
  0001e	48 83 c4 20	 add	 rsp, 32			; 00000020H
  00022	5d		 pop	 rbp
  00023	c3		 ret	 0
  00024	cc		 int	 3
PMCCS_ToByteArray$catch$0 ENDP
text$x	ENDS
; Function compile flags: /Ogtpy
; File z:\sources\lunor\repos\rougemeilland\palmtree.math.core.uint\palmtree.math.core.uint\pmc_exception.h
; File z:\sources\lunor\repos\rougemeilland\palmtree.math.core.uint\palmtree.math.core.uint\pmc_interface_csharp.cpp
;	COMDAT text$x
text$x	SEGMENT
$T1 = 32
ex$2 = 40
p$ = 64
buffer$ = 72
buffer_size$ = 80
$T3 = 88
r$4 = 88
size$ = 88
PMCCS_ToByteArray$catch$0 PROC

; 223  :         {

  00000	48 89 54 24 10	 mov	 QWORD PTR [rsp+16], rdx
  00005	55		 push	 rbp
  00006	48 83 ec 20	 sub	 rsp, 32			; 00000020H
  0000a	48 8b ea	 mov	 rbp, rdx
__catch$PMCCS_ToByteArray$0:
; File z:\sources\lunor\repos\rougemeilland\palmtree.math.core.uint\palmtree.math.core.uint\pmc_exception.h

; 75   :             return (_code);

  0000d	48 8b 45 28	 mov	 rax, QWORD PTR ex$2[rbp]
  00011	8b 48 18	 mov	 ecx, DWORD PTR [rax+24]
  00014	89 4d 58	 mov	 DWORD PTR $T3[rbp], ecx
; File z:\sources\lunor\repos\rougemeilland\palmtree.math.core.uint\palmtree.math.core.uint\pmc_interface_csharp.cpp

; 224  :             return (ex.GetStatusCode());

  00017	48 8d 05 00 00
	00 00		 lea	 rax, $LN9@PMCCS_ToBy
  0001e	48 83 c4 20	 add	 rsp, 32			; 00000020H
  00022	5d		 pop	 rbp
  00023	c3		 ret	 0
  00024	cc		 int	 3
PMCCS_ToByteArray$catch$0 ENDP
text$x	ENDS
; Function compile flags: /Ogtpy
; File z:\sources\lunor\repos\rougemeilland\palmtree.math.core.uint\palmtree.math.core.uint\pmc_interface_csharp.cpp
;	COMDAT PMCCS_FromByteArray
_TEXT	SEGMENT
$T1 = 32
ex$2 = 40
buffer$ = 64
count$ = 72
$T3 = 80
value$ = 80
PMCCS_FromByteArray PROC				; COMDAT

; 196  :     {

$LN13:
  00000	40 53		 push	 rbx
  00002	48 83 ec 30	 sub	 rsp, 48			; 00000030H
  00006	48 c7 44 24 20
	fe ff ff ff	 mov	 QWORD PTR $T1[rsp], -2
  0000f	49 8b d8	 mov	 rbx, r8

; 197  :         if (value == nullptr)

  00012	4d 85 c0	 test	 r8, r8
  00015	75 0a		 jne	 SHORT $LN2@PMCCS_From

; 198  :             return (PMC_STATUS_ARGUMENT_NULL_ERROR);

  00017	41 8d 40 fe	 lea	 eax, QWORD PTR [r8-2]

; 207  :         }
; 208  :     }

  0001b	48 83 c4 30	 add	 rsp, 48			; 00000030H
  0001f	5b		 pop	 rbx
  00020	c3		 ret	 0
$LN2@PMCCS_From:

; 199  :         try
; 200  :         {
; 201  :             *value = PMC_FromByteArray(buffer, count);

  00021	48 63 d2	 movsxd	 rdx, edx
  00024	e8 00 00 00 00	 call	 ?PMC_FromByteArray@Internal@Core@Math@Palmtree@@YAPEAU__tag_PMC_HANDLE_UINT@1234@PEBE_K@Z ; Palmtree::Math::Core::Internal::PMC_FromByteArray
  00029	48 89 03	 mov	 QWORD PTR [rbx], rax

; 202  :             return (PMC_STATUS_OK);

  0002c	33 c0		 xor	 eax, eax
  0002e	eb 04		 jmp	 SHORT $LN7@PMCCS_From
$LN8@PMCCS_From:

; 203  :         }
; 204  :         catch (const Palmtree::Math::Core::Internal::Exception& ex)
; 205  :         {
; 206  :             return (ex.GetStatusCode());

  00030	8b 44 24 50	 mov	 eax, DWORD PTR $T3[rsp]
$LN7@PMCCS_From:

; 207  :         }
; 208  :     }

  00034	48 83 c4 30	 add	 rsp, 48			; 00000030H
  00038	5b		 pop	 rbx
  00039	c3		 ret	 0
  0003a	cc		 int	 3
PMCCS_FromByteArray ENDP
_TEXT	ENDS
;	COMDAT text$x
text$x	SEGMENT
$T1 = 32
ex$2 = 40
buffer$ = 64
count$ = 72
$T3 = 80
value$ = 80
PMCCS_FromByteArray$catch$0 PROC

; 203  :         }
; 204  :         catch (const Palmtree::Math::Core::Internal::Exception& ex)
; 205  :         {

  00000	48 89 54 24 10	 mov	 QWORD PTR [rsp+16], rdx
  00005	55		 push	 rbp
  00006	48 83 ec 20	 sub	 rsp, 32			; 00000020H
  0000a	48 8b ea	 mov	 rbp, rdx
__catch$PMCCS_FromByteArray$0:
; File z:\sources\lunor\repos\rougemeilland\palmtree.math.core.uint\palmtree.math.core.uint\pmc_exception.h

; 75   :             return (_code);

  0000d	48 8b 45 28	 mov	 rax, QWORD PTR ex$2[rbp]
  00011	8b 48 18	 mov	 ecx, DWORD PTR [rax+24]
  00014	89 4d 50	 mov	 DWORD PTR $T3[rbp], ecx
; File z:\sources\lunor\repos\rougemeilland\palmtree.math.core.uint\palmtree.math.core.uint\pmc_interface_csharp.cpp

; 203  :         }
; 204  :         catch (const Palmtree::Math::Core::Internal::Exception& ex)
; 205  :         {
; 206  :             return (ex.GetStatusCode());

  00017	48 8d 05 00 00
	00 00		 lea	 rax, $LN8@PMCCS_From
  0001e	48 83 c4 20	 add	 rsp, 32			; 00000020H
  00022	5d		 pop	 rbp
  00023	c3		 ret	 0
  00024	cc		 int	 3
PMCCS_FromByteArray$catch$0 ENDP
text$x	ENDS
; Function compile flags: /Ogtpy
; File z:\sources\lunor\repos\rougemeilland\palmtree.math.core.uint\palmtree.math.core.uint\pmc_exception.h
; File z:\sources\lunor\repos\rougemeilland\palmtree.math.core.uint\palmtree.math.core.uint\pmc_interface_csharp.cpp
;	COMDAT text$x
text$x	SEGMENT
$T1 = 32
ex$2 = 40
buffer$ = 64
count$ = 72
$T3 = 80
value$ = 80
PMCCS_FromByteArray$catch$0 PROC

; 205  :         {

  00000	48 89 54 24 10	 mov	 QWORD PTR [rsp+16], rdx
  00005	55		 push	 rbp
  00006	48 83 ec 20	 sub	 rsp, 32			; 00000020H
  0000a	48 8b ea	 mov	 rbp, rdx
__catch$PMCCS_FromByteArray$0:
; File z:\sources\lunor\repos\rougemeilland\palmtree.math.core.uint\palmtree.math.core.uint\pmc_exception.h

; 75   :             return (_code);

  0000d	48 8b 45 28	 mov	 rax, QWORD PTR ex$2[rbp]
  00011	8b 48 18	 mov	 ecx, DWORD PTR [rax+24]
  00014	89 4d 50	 mov	 DWORD PTR $T3[rbp], ecx
; File z:\sources\lunor\repos\rougemeilland\palmtree.math.core.uint\palmtree.math.core.uint\pmc_interface_csharp.cpp

; 206  :             return (ex.GetStatusCode());

  00017	48 8d 05 00 00
	00 00		 lea	 rax, $LN8@PMCCS_From
  0001e	48 83 c4 20	 add	 rsp, 32			; 00000020H
  00022	5d		 pop	 rbp
  00023	c3		 ret	 0
  00024	cc		 int	 3
PMCCS_FromByteArray$catch$0 ENDP
text$x	ENDS
; Function compile flags: /Ogtpy
; File z:\sources\lunor\repos\rougemeilland\palmtree.math.core.uint\palmtree.math.core.uint\pmc_interface_csharp.cpp
;	COMDAT PMCCS_GetConstantValue_I
_TEXT	SEGMENT
$T1 = 32
ex$2 = 40
type$ = 64
$T3 = 72
value$ = 72
PMCCS_GetConstantValue_I PROC				; COMDAT

; 181  :     {

$LN13:
  00000	40 53		 push	 rbx
  00002	48 83 ec 30	 sub	 rsp, 48			; 00000030H
  00006	48 c7 44 24 20
	fe ff ff ff	 mov	 QWORD PTR $T1[rsp], -2
  0000f	48 8b da	 mov	 rbx, rdx

; 182  :         if (value == nullptr)

  00012	48 85 d2	 test	 rdx, rdx
  00015	75 09		 jne	 SHORT $LN2@PMCCS_GetC

; 183  :             return (PMC_STATUS_ARGUMENT_NULL_ERROR);

  00017	8d 42 fe	 lea	 eax, QWORD PTR [rdx-2]

; 192  :         }
; 193  :     }

  0001a	48 83 c4 30	 add	 rsp, 48			; 00000030H
  0001e	5b		 pop	 rbx
  0001f	c3		 ret	 0
$LN2@PMCCS_GetC:

; 184  :         try
; 185  :         {
; 186  :             *value = PMC_GetConstantValue_I(type);

  00020	e8 00 00 00 00	 call	 ?PMC_GetConstantValue_I@Internal@Core@Math@Palmtree@@YAPEAU__tag_PMC_HANDLE_UINT@1234@H@Z ; Palmtree::Math::Core::Internal::PMC_GetConstantValue_I
  00025	48 89 03	 mov	 QWORD PTR [rbx], rax

; 187  :             return (PMC_STATUS_OK);

  00028	33 c0		 xor	 eax, eax
  0002a	eb 04		 jmp	 SHORT $LN7@PMCCS_GetC
$LN8@PMCCS_GetC:

; 188  :         }
; 189  :         catch (const Palmtree::Math::Core::Internal::Exception& ex)
; 190  :         {
; 191  :             return (ex.GetStatusCode());

  0002c	8b 44 24 48	 mov	 eax, DWORD PTR $T3[rsp]
$LN7@PMCCS_GetC:

; 192  :         }
; 193  :     }

  00030	48 83 c4 30	 add	 rsp, 48			; 00000030H
  00034	5b		 pop	 rbx
  00035	c3		 ret	 0
  00036	cc		 int	 3
PMCCS_GetConstantValue_I ENDP
_TEXT	ENDS
;	COMDAT text$x
text$x	SEGMENT
$T1 = 32
ex$2 = 40
type$ = 64
$T3 = 72
value$ = 72
PMCCS_GetConstantValue_I$catch$0 PROC

; 188  :         }
; 189  :         catch (const Palmtree::Math::Core::Internal::Exception& ex)
; 190  :         {

  00000	48 89 54 24 10	 mov	 QWORD PTR [rsp+16], rdx
  00005	55		 push	 rbp
  00006	48 83 ec 20	 sub	 rsp, 32			; 00000020H
  0000a	48 8b ea	 mov	 rbp, rdx
__catch$PMCCS_GetConstantValue_I$0:
; File z:\sources\lunor\repos\rougemeilland\palmtree.math.core.uint\palmtree.math.core.uint\pmc_exception.h

; 75   :             return (_code);

  0000d	48 8b 45 28	 mov	 rax, QWORD PTR ex$2[rbp]
  00011	8b 48 18	 mov	 ecx, DWORD PTR [rax+24]
  00014	89 4d 48	 mov	 DWORD PTR $T3[rbp], ecx
; File z:\sources\lunor\repos\rougemeilland\palmtree.math.core.uint\palmtree.math.core.uint\pmc_interface_csharp.cpp

; 188  :         }
; 189  :         catch (const Palmtree::Math::Core::Internal::Exception& ex)
; 190  :         {
; 191  :             return (ex.GetStatusCode());

  00017	48 8d 05 00 00
	00 00		 lea	 rax, $LN8@PMCCS_GetC
  0001e	48 83 c4 20	 add	 rsp, 32			; 00000020H
  00022	5d		 pop	 rbp
  00023	c3		 ret	 0
  00024	cc		 int	 3
PMCCS_GetConstantValue_I$catch$0 ENDP
text$x	ENDS
; Function compile flags: /Ogtpy
; File z:\sources\lunor\repos\rougemeilland\palmtree.math.core.uint\palmtree.math.core.uint\pmc_exception.h
; File z:\sources\lunor\repos\rougemeilland\palmtree.math.core.uint\palmtree.math.core.uint\pmc_interface_csharp.cpp
;	COMDAT text$x
text$x	SEGMENT
$T1 = 32
ex$2 = 40
type$ = 64
$T3 = 72
value$ = 72
PMCCS_GetConstantValue_I$catch$0 PROC

; 190  :         {

  00000	48 89 54 24 10	 mov	 QWORD PTR [rsp+16], rdx
  00005	55		 push	 rbp
  00006	48 83 ec 20	 sub	 rsp, 32			; 00000020H
  0000a	48 8b ea	 mov	 rbp, rdx
__catch$PMCCS_GetConstantValue_I$0:
; File z:\sources\lunor\repos\rougemeilland\palmtree.math.core.uint\palmtree.math.core.uint\pmc_exception.h

; 75   :             return (_code);

  0000d	48 8b 45 28	 mov	 rax, QWORD PTR ex$2[rbp]
  00011	8b 48 18	 mov	 ecx, DWORD PTR [rax+24]
  00014	89 4d 48	 mov	 DWORD PTR $T3[rbp], ecx
; File z:\sources\lunor\repos\rougemeilland\palmtree.math.core.uint\palmtree.math.core.uint\pmc_interface_csharp.cpp

; 191  :             return (ex.GetStatusCode());

  00017	48 8d 05 00 00
	00 00		 lea	 rax, $LN8@PMCCS_GetC
  0001e	48 83 c4 20	 add	 rsp, 32			; 00000020H
  00022	5d		 pop	 rbp
  00023	c3		 ret	 0
  00024	cc		 int	 3
PMCCS_GetConstantValue_I$catch$0 ENDP
text$x	ENDS
; Function compile flags: /Ogtpy
; File z:\sources\lunor\repos\rougemeilland\palmtree.math.core.uint\palmtree.math.core.uint\pmc_interface_csharp.cpp
;	COMDAT PMCCS_Dispose
_TEXT	SEGMENT
$T1 = 32
ex$2 = 40
$T3 = 64
p$ = 64
PMCCS_Dispose PROC					; COMDAT

; 166  :     {

$LN13:
  00000	48 83 ec 38	 sub	 rsp, 56			; 00000038H
  00004	48 c7 44 24 20
	fe ff ff ff	 mov	 QWORD PTR $T1[rsp], -2

; 167  :         if (p == nullptr)

  0000d	48 85 c9	 test	 rcx, rcx
  00010	75 08		 jne	 SHORT $LN2@PMCCS_Disp

; 168  :             return (PMC_STATUS_ARGUMENT_NULL_ERROR);

  00012	8d 41 fe	 lea	 eax, QWORD PTR [rcx-2]

; 177  :         }
; 178  :     }

  00015	48 83 c4 38	 add	 rsp, 56			; 00000038H
  00019	c3		 ret	 0
$LN2@PMCCS_Disp:

; 169  :         try
; 170  :         {
; 171  :             PMC_Dispose(p);

  0001a	e8 00 00 00 00	 call	 ?PMC_Dispose@Internal@Core@Math@Palmtree@@YAXPEAU__tag_PMC_HANDLE_UINT@1234@@Z ; Palmtree::Math::Core::Internal::PMC_Dispose

; 172  :             return (PMC_STATUS_OK);

  0001f	33 c0		 xor	 eax, eax
  00021	eb 04		 jmp	 SHORT $LN7@PMCCS_Disp
$LN8@PMCCS_Disp:

; 173  :         }
; 174  :         catch (const Palmtree::Math::Core::Internal::Exception& ex)
; 175  :         {
; 176  :             return (ex.GetStatusCode());

  00023	8b 44 24 40	 mov	 eax, DWORD PTR $T3[rsp]
$LN7@PMCCS_Disp:

; 177  :         }
; 178  :     }

  00027	48 83 c4 38	 add	 rsp, 56			; 00000038H
  0002b	c3		 ret	 0
  0002c	cc		 int	 3
PMCCS_Dispose ENDP
_TEXT	ENDS
;	COMDAT text$x
text$x	SEGMENT
$T1 = 32
ex$2 = 40
$T3 = 64
p$ = 64
PMCCS_Dispose$catch$0 PROC

; 173  :         }
; 174  :         catch (const Palmtree::Math::Core::Internal::Exception& ex)
; 175  :         {

  00000	48 89 54 24 10	 mov	 QWORD PTR [rsp+16], rdx
  00005	55		 push	 rbp
  00006	48 83 ec 20	 sub	 rsp, 32			; 00000020H
  0000a	48 8b ea	 mov	 rbp, rdx
__catch$PMCCS_Dispose$0:
; File z:\sources\lunor\repos\rougemeilland\palmtree.math.core.uint\palmtree.math.core.uint\pmc_exception.h

; 75   :             return (_code);

  0000d	48 8b 45 28	 mov	 rax, QWORD PTR ex$2[rbp]
  00011	8b 48 18	 mov	 ecx, DWORD PTR [rax+24]
  00014	89 4d 40	 mov	 DWORD PTR $T3[rbp], ecx
; File z:\sources\lunor\repos\rougemeilland\palmtree.math.core.uint\palmtree.math.core.uint\pmc_interface_csharp.cpp

; 173  :         }
; 174  :         catch (const Palmtree::Math::Core::Internal::Exception& ex)
; 175  :         {
; 176  :             return (ex.GetStatusCode());

  00017	48 8d 05 00 00
	00 00		 lea	 rax, $LN8@PMCCS_Disp
  0001e	48 83 c4 20	 add	 rsp, 32			; 00000020H
  00022	5d		 pop	 rbp
  00023	c3		 ret	 0
  00024	cc		 int	 3
PMCCS_Dispose$catch$0 ENDP
text$x	ENDS
; Function compile flags: /Ogtpy
; File z:\sources\lunor\repos\rougemeilland\palmtree.math.core.uint\palmtree.math.core.uint\pmc_exception.h
; File z:\sources\lunor\repos\rougemeilland\palmtree.math.core.uint\palmtree.math.core.uint\pmc_interface_csharp.cpp
;	COMDAT text$x
text$x	SEGMENT
$T1 = 32
ex$2 = 40
$T3 = 64
p$ = 64
PMCCS_Dispose$catch$0 PROC

; 175  :         {

  00000	48 89 54 24 10	 mov	 QWORD PTR [rsp+16], rdx
  00005	55		 push	 rbp
  00006	48 83 ec 20	 sub	 rsp, 32			; 00000020H
  0000a	48 8b ea	 mov	 rbp, rdx
__catch$PMCCS_Dispose$0:
; File z:\sources\lunor\repos\rougemeilland\palmtree.math.core.uint\palmtree.math.core.uint\pmc_exception.h

; 75   :             return (_code);

  0000d	48 8b 45 28	 mov	 rax, QWORD PTR ex$2[rbp]
  00011	8b 48 18	 mov	 ecx, DWORD PTR [rax+24]
  00014	89 4d 40	 mov	 DWORD PTR $T3[rbp], ecx
; File z:\sources\lunor\repos\rougemeilland\palmtree.math.core.uint\palmtree.math.core.uint\pmc_interface_csharp.cpp

; 176  :             return (ex.GetStatusCode());

  00017	48 8d 05 00 00
	00 00		 lea	 rax, $LN8@PMCCS_Disp
  0001e	48 83 c4 20	 add	 rsp, 32			; 00000020H
  00022	5d		 pop	 rbp
  00023	c3		 ret	 0
  00024	cc		 int	 3
PMCCS_Dispose$catch$0 ENDP
text$x	ENDS
; Function compile flags: /Ogtpy
; File z:\sources\lunor\repos\rougemeilland\palmtree.math.core.uint\palmtree.math.core.uint\pmc_interface_csharp.cpp
;	COMDAT PMCCS_From_L
_TEXT	SEGMENT
$T1 = 32
ex$2 = 40
x$ = 64
$T3 = 72
o$ = 72
PMCCS_From_L PROC					; COMDAT

; 151  :     {

$LN13:
  00000	40 53		 push	 rbx
  00002	48 83 ec 30	 sub	 rsp, 48			; 00000030H
  00006	48 c7 44 24 20
	fe ff ff ff	 mov	 QWORD PTR $T1[rsp], -2
  0000f	48 8b da	 mov	 rbx, rdx

; 152  :         if (o == nullptr)

  00012	48 85 d2	 test	 rdx, rdx
  00015	75 09		 jne	 SHORT $LN2@PMCCS_From

; 153  :             return (PMC_STATUS_ARGUMENT_NULL_ERROR);

  00017	8d 42 fe	 lea	 eax, QWORD PTR [rdx-2]

; 162  :         }
; 163  :     }

  0001a	48 83 c4 30	 add	 rsp, 48			; 00000030H
  0001e	5b		 pop	 rbx
  0001f	c3		 ret	 0
$LN2@PMCCS_From:

; 154  :         try
; 155  :         {
; 156  :             *o = PMC_From_L(x);

  00020	e8 00 00 00 00	 call	 ?PMC_From_L@Internal@Core@Math@Palmtree@@YAPEAU__tag_PMC_HANDLE_UINT@1234@_K@Z ; Palmtree::Math::Core::Internal::PMC_From_L
  00025	48 89 03	 mov	 QWORD PTR [rbx], rax

; 157  :             return (PMC_STATUS_OK);

  00028	33 c0		 xor	 eax, eax
  0002a	eb 04		 jmp	 SHORT $LN7@PMCCS_From
$LN8@PMCCS_From:

; 158  :         }
; 159  :         catch (const Palmtree::Math::Core::Internal::Exception& ex)
; 160  :         {
; 161  :             return (ex.GetStatusCode());

  0002c	8b 44 24 48	 mov	 eax, DWORD PTR $T3[rsp]
$LN7@PMCCS_From:

; 162  :         }
; 163  :     }

  00030	48 83 c4 30	 add	 rsp, 48			; 00000030H
  00034	5b		 pop	 rbx
  00035	c3		 ret	 0
  00036	cc		 int	 3
PMCCS_From_L ENDP
_TEXT	ENDS
;	COMDAT text$x
text$x	SEGMENT
$T1 = 32
ex$2 = 40
x$ = 64
$T3 = 72
o$ = 72
PMCCS_From_L$catch$0 PROC

; 158  :         }
; 159  :         catch (const Palmtree::Math::Core::Internal::Exception& ex)
; 160  :         {

  00000	48 89 54 24 10	 mov	 QWORD PTR [rsp+16], rdx
  00005	55		 push	 rbp
  00006	48 83 ec 20	 sub	 rsp, 32			; 00000020H
  0000a	48 8b ea	 mov	 rbp, rdx
__catch$PMCCS_From_L$0:
; File z:\sources\lunor\repos\rougemeilland\palmtree.math.core.uint\palmtree.math.core.uint\pmc_exception.h

; 75   :             return (_code);

  0000d	48 8b 45 28	 mov	 rax, QWORD PTR ex$2[rbp]
  00011	8b 48 18	 mov	 ecx, DWORD PTR [rax+24]
  00014	89 4d 48	 mov	 DWORD PTR $T3[rbp], ecx
; File z:\sources\lunor\repos\rougemeilland\palmtree.math.core.uint\palmtree.math.core.uint\pmc_interface_csharp.cpp

; 158  :         }
; 159  :         catch (const Palmtree::Math::Core::Internal::Exception& ex)
; 160  :         {
; 161  :             return (ex.GetStatusCode());

  00017	48 8d 05 00 00
	00 00		 lea	 rax, $LN8@PMCCS_From
  0001e	48 83 c4 20	 add	 rsp, 32			; 00000020H
  00022	5d		 pop	 rbp
  00023	c3		 ret	 0
  00024	cc		 int	 3
PMCCS_From_L$catch$0 ENDP
text$x	ENDS
; Function compile flags: /Ogtpy
; File z:\sources\lunor\repos\rougemeilland\palmtree.math.core.uint\palmtree.math.core.uint\pmc_exception.h
; File z:\sources\lunor\repos\rougemeilland\palmtree.math.core.uint\palmtree.math.core.uint\pmc_interface_csharp.cpp
;	COMDAT text$x
text$x	SEGMENT
$T1 = 32
ex$2 = 40
x$ = 64
$T3 = 72
o$ = 72
PMCCS_From_L$catch$0 PROC

; 160  :         {

  00000	48 89 54 24 10	 mov	 QWORD PTR [rsp+16], rdx
  00005	55		 push	 rbp
  00006	48 83 ec 20	 sub	 rsp, 32			; 00000020H
  0000a	48 8b ea	 mov	 rbp, rdx
__catch$PMCCS_From_L$0:
; File z:\sources\lunor\repos\rougemeilland\palmtree.math.core.uint\palmtree.math.core.uint\pmc_exception.h

; 75   :             return (_code);

  0000d	48 8b 45 28	 mov	 rax, QWORD PTR ex$2[rbp]
  00011	8b 48 18	 mov	 ecx, DWORD PTR [rax+24]
  00014	89 4d 48	 mov	 DWORD PTR $T3[rbp], ecx
; File z:\sources\lunor\repos\rougemeilland\palmtree.math.core.uint\palmtree.math.core.uint\pmc_interface_csharp.cpp

; 161  :             return (ex.GetStatusCode());

  00017	48 8d 05 00 00
	00 00		 lea	 rax, $LN8@PMCCS_From
  0001e	48 83 c4 20	 add	 rsp, 32			; 00000020H
  00022	5d		 pop	 rbp
  00023	c3		 ret	 0
  00024	cc		 int	 3
PMCCS_From_L$catch$0 ENDP
text$x	ENDS
; Function compile flags: /Ogtpy
; File z:\sources\lunor\repos\rougemeilland\palmtree.math.core.uint\palmtree.math.core.uint\pmc_interface_csharp.cpp
;	COMDAT PMCCS_From_I
_TEXT	SEGMENT
$T1 = 32
ex$2 = 40
x$ = 64
$T3 = 72
o$ = 72
PMCCS_From_I PROC					; COMDAT

; 136  :     {

$LN13:
  00000	40 53		 push	 rbx
  00002	48 83 ec 30	 sub	 rsp, 48			; 00000030H
  00006	48 c7 44 24 20
	fe ff ff ff	 mov	 QWORD PTR $T1[rsp], -2
  0000f	48 8b da	 mov	 rbx, rdx

; 137  :         if (o == nullptr)

  00012	48 85 d2	 test	 rdx, rdx
  00015	75 09		 jne	 SHORT $LN2@PMCCS_From

; 138  :             return (PMC_STATUS_ARGUMENT_NULL_ERROR);

  00017	8d 42 fe	 lea	 eax, QWORD PTR [rdx-2]

; 147  :         }
; 148  :     }

  0001a	48 83 c4 30	 add	 rsp, 48			; 00000030H
  0001e	5b		 pop	 rbx
  0001f	c3		 ret	 0
$LN2@PMCCS_From:

; 139  :         try
; 140  :         {
; 141  :             *o = PMC_From_I(x);

  00020	e8 00 00 00 00	 call	 ?PMC_From_I@Internal@Core@Math@Palmtree@@YAPEAU__tag_PMC_HANDLE_UINT@1234@I@Z ; Palmtree::Math::Core::Internal::PMC_From_I
  00025	48 89 03	 mov	 QWORD PTR [rbx], rax

; 142  :             return (PMC_STATUS_OK);

  00028	33 c0		 xor	 eax, eax
  0002a	eb 04		 jmp	 SHORT $LN7@PMCCS_From
$LN8@PMCCS_From:

; 143  :         }
; 144  :         catch (const Palmtree::Math::Core::Internal::Exception& ex)
; 145  :         {
; 146  :             return (ex.GetStatusCode());

  0002c	8b 44 24 48	 mov	 eax, DWORD PTR $T3[rsp]
$LN7@PMCCS_From:

; 147  :         }
; 148  :     }

  00030	48 83 c4 30	 add	 rsp, 48			; 00000030H
  00034	5b		 pop	 rbx
  00035	c3		 ret	 0
  00036	cc		 int	 3
PMCCS_From_I ENDP
_TEXT	ENDS
;	COMDAT text$x
text$x	SEGMENT
$T1 = 32
ex$2 = 40
x$ = 64
$T3 = 72
o$ = 72
PMCCS_From_I$catch$0 PROC

; 143  :         }
; 144  :         catch (const Palmtree::Math::Core::Internal::Exception& ex)
; 145  :         {

  00000	48 89 54 24 10	 mov	 QWORD PTR [rsp+16], rdx
  00005	55		 push	 rbp
  00006	48 83 ec 20	 sub	 rsp, 32			; 00000020H
  0000a	48 8b ea	 mov	 rbp, rdx
__catch$PMCCS_From_I$0:
; File z:\sources\lunor\repos\rougemeilland\palmtree.math.core.uint\palmtree.math.core.uint\pmc_exception.h

; 75   :             return (_code);

  0000d	48 8b 45 28	 mov	 rax, QWORD PTR ex$2[rbp]
  00011	8b 48 18	 mov	 ecx, DWORD PTR [rax+24]
  00014	89 4d 48	 mov	 DWORD PTR $T3[rbp], ecx
; File z:\sources\lunor\repos\rougemeilland\palmtree.math.core.uint\palmtree.math.core.uint\pmc_interface_csharp.cpp

; 143  :         }
; 144  :         catch (const Palmtree::Math::Core::Internal::Exception& ex)
; 145  :         {
; 146  :             return (ex.GetStatusCode());

  00017	48 8d 05 00 00
	00 00		 lea	 rax, $LN8@PMCCS_From
  0001e	48 83 c4 20	 add	 rsp, 32			; 00000020H
  00022	5d		 pop	 rbp
  00023	c3		 ret	 0
  00024	cc		 int	 3
PMCCS_From_I$catch$0 ENDP
text$x	ENDS
; Function compile flags: /Ogtpy
; File z:\sources\lunor\repos\rougemeilland\palmtree.math.core.uint\palmtree.math.core.uint\pmc_exception.h
; File z:\sources\lunor\repos\rougemeilland\palmtree.math.core.uint\palmtree.math.core.uint\pmc_interface_csharp.cpp
;	COMDAT text$x
text$x	SEGMENT
$T1 = 32
ex$2 = 40
x$ = 64
$T3 = 72
o$ = 72
PMCCS_From_I$catch$0 PROC

; 145  :         {

  00000	48 89 54 24 10	 mov	 QWORD PTR [rsp+16], rdx
  00005	55		 push	 rbp
  00006	48 83 ec 20	 sub	 rsp, 32			; 00000020H
  0000a	48 8b ea	 mov	 rbp, rdx
__catch$PMCCS_From_I$0:
; File z:\sources\lunor\repos\rougemeilland\palmtree.math.core.uint\palmtree.math.core.uint\pmc_exception.h

; 75   :             return (_code);

  0000d	48 8b 45 28	 mov	 rax, QWORD PTR ex$2[rbp]
  00011	8b 48 18	 mov	 ecx, DWORD PTR [rax+24]
  00014	89 4d 48	 mov	 DWORD PTR $T3[rbp], ecx
; File z:\sources\lunor\repos\rougemeilland\palmtree.math.core.uint\palmtree.math.core.uint\pmc_interface_csharp.cpp

; 146  :             return (ex.GetStatusCode());

  00017	48 8d 05 00 00
	00 00		 lea	 rax, $LN8@PMCCS_From
  0001e	48 83 c4 20	 add	 rsp, 32			; 00000020H
  00022	5d		 pop	 rbp
  00023	c3		 ret	 0
  00024	cc		 int	 3
PMCCS_From_I$catch$0 ENDP
text$x	ENDS
; Function compile flags: /Ogtpy
; File z:\sources\lunor\repos\rougemeilland\palmtree.math.core.uint\palmtree.math.core.uint\pmc_interface_csharp.cpp
;	COMDAT PMCCS_GetStatisticsInfo
_TEXT	SEGMENT
p$ = 8
PMCCS_GetStatisticsInfo PROC				; COMDAT

; 132  :         PMC_GetStatisticsInfo(p);

  00000	e9 00 00 00 00	 jmp	 ?PMC_GetStatisticsInfo@Internal@Core@Math@Palmtree@@YAXPEAU__tag_PMC_STATISTICS_INFO@1234@@Z ; Palmtree::Math::Core::Internal::PMC_GetStatisticsInfo
PMCCS_GetStatisticsInfo ENDP
_TEXT	ENDS
; Function compile flags: /Ogtpy
; File z:\sources\lunor\repos\rougemeilland\palmtree.math.core.uint\palmtree.math.core.uint\pmc_interface_csharp.cpp
;	COMDAT PMCCS_GET_HASH_CODE
_TEXT	SEGMENT
$T1 = 0
ex$2 = 8
$T3 = 32
p$ = 32
r$ = 40
PMCCS_GET_HASH_CODE PROC				; COMDAT

; 114  :     {

$LN15:
  00000	48 83 ec 18	 sub	 rsp, 24
  00004	48 c7 04 24 fe
	ff ff ff	 mov	 QWORD PTR $T1[rsp], -2

; 115  :         if (p == nullptr)

  0000c	48 85 c9	 test	 rcx, rcx
  0000f	75 0a		 jne	 SHORT $LN2@PMCCS_GET_
$LN12@PMCCS_GET_:

; 127  :         }
; 128  :     }

  00011	b8 fe ff ff ff	 mov	 eax, -2
  00016	48 83 c4 18	 add	 rsp, 24
  0001a	c3		 ret	 0
$LN2@PMCCS_GET_:

; 116  :             return (PMC_STATUS_ARGUMENT_NULL_ERROR);
; 117  :         if (r == nullptr)

  0001b	48 85 d2	 test	 rdx, rdx
  0001e	74 f1		 je	 SHORT $LN12@PMCCS_GET_

; 118  :             return (PMC_STATUS_ARGUMENT_NULL_ERROR);
; 119  :         try
; 120  :         {
; 121  :             *r = (_INT32_T)p->HASH_CODE;

  00020	8b 01		 mov	 eax, DWORD PTR [rcx]
  00022	89 02		 mov	 DWORD PTR [rdx], eax

; 122  :             return (PMC_STATUS_OK);

  00024	33 c0		 xor	 eax, eax
  00026	eb 04		 jmp	 SHORT $LN8@PMCCS_GET_
$LN9@PMCCS_GET_:

; 123  :         }
; 124  :         catch (const Palmtree::Math::Core::Internal::Exception& ex)
; 125  :         {
; 126  :             return (ex.GetStatusCode());

  00028	8b 44 24 20	 mov	 eax, DWORD PTR $T3[rsp]
$LN8@PMCCS_GET_:

; 127  :         }
; 128  :     }

  0002c	48 83 c4 18	 add	 rsp, 24
  00030	c3		 ret	 0
  00031	cc		 int	 3
PMCCS_GET_HASH_CODE ENDP
_TEXT	ENDS
;	COMDAT text$x
text$x	SEGMENT
$T1 = 0
ex$2 = 8
$T3 = 32
p$ = 32
r$ = 40
PMCCS_GET_HASH_CODE$catch$0 PROC

; 123  :         }
; 124  :         catch (const Palmtree::Math::Core::Internal::Exception& ex)
; 125  :         {

  00000	48 89 54 24 10	 mov	 QWORD PTR [rsp+16], rdx
  00005	55		 push	 rbp
  00006	48 8b ea	 mov	 rbp, rdx
__catch$PMCCS_GET_HASH_CODE$0:
; File z:\sources\lunor\repos\rougemeilland\palmtree.math.core.uint\palmtree.math.core.uint\pmc_exception.h

; 75   :             return (_code);

  00009	48 8b 45 08	 mov	 rax, QWORD PTR ex$2[rbp]
  0000d	8b 48 18	 mov	 ecx, DWORD PTR [rax+24]
  00010	89 4d 20	 mov	 DWORD PTR $T3[rbp], ecx
; File z:\sources\lunor\repos\rougemeilland\palmtree.math.core.uint\palmtree.math.core.uint\pmc_interface_csharp.cpp

; 123  :         }
; 124  :         catch (const Palmtree::Math::Core::Internal::Exception& ex)
; 125  :         {
; 126  :             return (ex.GetStatusCode());

  00013	48 8d 05 00 00
	00 00		 lea	 rax, $LN9@PMCCS_GET_
  0001a	5d		 pop	 rbp
  0001b	c3		 ret	 0
  0001c	cc		 int	 3
PMCCS_GET_HASH_CODE$catch$0 ENDP
text$x	ENDS
; Function compile flags: /Ogtpy
; File z:\sources\lunor\repos\rougemeilland\palmtree.math.core.uint\palmtree.math.core.uint\pmc_exception.h
; File z:\sources\lunor\repos\rougemeilland\palmtree.math.core.uint\palmtree.math.core.uint\pmc_interface_csharp.cpp
;	COMDAT text$x
text$x	SEGMENT
$T1 = 0
ex$2 = 8
$T3 = 32
p$ = 32
r$ = 40
PMCCS_GET_HASH_CODE$catch$0 PROC

; 125  :         {

  00000	48 89 54 24 10	 mov	 QWORD PTR [rsp+16], rdx
  00005	55		 push	 rbp
  00006	48 8b ea	 mov	 rbp, rdx
__catch$PMCCS_GET_HASH_CODE$0:
; File z:\sources\lunor\repos\rougemeilland\palmtree.math.core.uint\palmtree.math.core.uint\pmc_exception.h

; 75   :             return (_code);

  00009	48 8b 45 08	 mov	 rax, QWORD PTR ex$2[rbp]
  0000d	8b 48 18	 mov	 ecx, DWORD PTR [rax+24]
  00010	89 4d 20	 mov	 DWORD PTR $T3[rbp], ecx
; File z:\sources\lunor\repos\rougemeilland\palmtree.math.core.uint\palmtree.math.core.uint\pmc_interface_csharp.cpp

; 126  :             return (ex.GetStatusCode());

  00013	48 8d 05 00 00
	00 00		 lea	 rax, $LN9@PMCCS_GET_
  0001a	5d		 pop	 rbp
  0001b	c3		 ret	 0
  0001c	cc		 int	 3
PMCCS_GET_HASH_CODE$catch$0 ENDP
text$x	ENDS
; Function compile flags: /Ogtpy
; File z:\sources\lunor\repos\rougemeilland\palmtree.math.core.uint\palmtree.math.core.uint\pmc_interface_csharp.cpp
;	COMDAT PMCCS_IS_ZERO
_TEXT	SEGMENT
$T1 = 0
ex$2 = 8
$T3 = 32
p$ = 32
r$ = 40
PMCCS_IS_ZERO PROC					; COMDAT

; 97   :     {

$LN15:
  00000	48 83 ec 18	 sub	 rsp, 24
  00004	48 c7 04 24 fe
	ff ff ff	 mov	 QWORD PTR $T1[rsp], -2

; 98   :         if (p == nullptr)

  0000c	48 85 c9	 test	 rcx, rcx
  0000f	75 0a		 jne	 SHORT $LN2@PMCCS_IS_Z
$LN12@PMCCS_IS_Z:

; 110  :         }
; 111  :     }

  00011	b8 fe ff ff ff	 mov	 eax, -2
  00016	48 83 c4 18	 add	 rsp, 24
  0001a	c3		 ret	 0
$LN2@PMCCS_IS_Z:

; 99   :             return (PMC_STATUS_ARGUMENT_NULL_ERROR);
; 100  :         if (r == nullptr)

  0001b	48 85 d2	 test	 rdx, rdx
  0001e	74 f1		 je	 SHORT $LN12@PMCCS_IS_Z

; 101  :             return (PMC_STATUS_ARGUMENT_NULL_ERROR);
; 102  :         try
; 103  :         {
; 104  :             *r = p->FLAGS.IS_ZERO;

  00020	8b 41 08	 mov	 eax, DWORD PTR [rcx+8]
  00023	83 e0 01	 and	 eax, 1
  00026	89 02		 mov	 DWORD PTR [rdx], eax

; 105  :             return (PMC_STATUS_OK);

  00028	33 c0		 xor	 eax, eax
  0002a	eb 04		 jmp	 SHORT $LN8@PMCCS_IS_Z
$LN9@PMCCS_IS_Z:

; 106  :         }
; 107  :         catch (const Palmtree::Math::Core::Internal::Exception& ex)
; 108  :         {
; 109  :             return (ex.GetStatusCode());

  0002c	8b 44 24 20	 mov	 eax, DWORD PTR $T3[rsp]
$LN8@PMCCS_IS_Z:

; 110  :         }
; 111  :     }

  00030	48 83 c4 18	 add	 rsp, 24
  00034	c3		 ret	 0
  00035	cc		 int	 3
PMCCS_IS_ZERO ENDP
_TEXT	ENDS
;	COMDAT text$x
text$x	SEGMENT
$T1 = 0
ex$2 = 8
$T3 = 32
p$ = 32
r$ = 40
PMCCS_IS_ZERO$catch$0 PROC

; 106  :         }
; 107  :         catch (const Palmtree::Math::Core::Internal::Exception& ex)
; 108  :         {

  00000	48 89 54 24 10	 mov	 QWORD PTR [rsp+16], rdx
  00005	55		 push	 rbp
  00006	48 8b ea	 mov	 rbp, rdx
__catch$PMCCS_IS_ZERO$0:
; File z:\sources\lunor\repos\rougemeilland\palmtree.math.core.uint\palmtree.math.core.uint\pmc_exception.h

; 75   :             return (_code);

  00009	48 8b 45 08	 mov	 rax, QWORD PTR ex$2[rbp]
  0000d	8b 48 18	 mov	 ecx, DWORD PTR [rax+24]
  00010	89 4d 20	 mov	 DWORD PTR $T3[rbp], ecx
; File z:\sources\lunor\repos\rougemeilland\palmtree.math.core.uint\palmtree.math.core.uint\pmc_interface_csharp.cpp

; 106  :         }
; 107  :         catch (const Palmtree::Math::Core::Internal::Exception& ex)
; 108  :         {
; 109  :             return (ex.GetStatusCode());

  00013	48 8d 05 00 00
	00 00		 lea	 rax, $LN9@PMCCS_IS_Z
  0001a	5d		 pop	 rbp
  0001b	c3		 ret	 0
  0001c	cc		 int	 3
PMCCS_IS_ZERO$catch$0 ENDP
text$x	ENDS
; Function compile flags: /Ogtpy
; File z:\sources\lunor\repos\rougemeilland\palmtree.math.core.uint\palmtree.math.core.uint\pmc_exception.h
; File z:\sources\lunor\repos\rougemeilland\palmtree.math.core.uint\palmtree.math.core.uint\pmc_interface_csharp.cpp
;	COMDAT text$x
text$x	SEGMENT
$T1 = 0
ex$2 = 8
$T3 = 32
p$ = 32
r$ = 40
PMCCS_IS_ZERO$catch$0 PROC

; 108  :         {

  00000	48 89 54 24 10	 mov	 QWORD PTR [rsp+16], rdx
  00005	55		 push	 rbp
  00006	48 8b ea	 mov	 rbp, rdx
__catch$PMCCS_IS_ZERO$0:
; File z:\sources\lunor\repos\rougemeilland\palmtree.math.core.uint\palmtree.math.core.uint\pmc_exception.h

; 75   :             return (_code);

  00009	48 8b 45 08	 mov	 rax, QWORD PTR ex$2[rbp]
  0000d	8b 48 18	 mov	 ecx, DWORD PTR [rax+24]
  00010	89 4d 20	 mov	 DWORD PTR $T3[rbp], ecx
; File z:\sources\lunor\repos\rougemeilland\palmtree.math.core.uint\palmtree.math.core.uint\pmc_interface_csharp.cpp

; 109  :             return (ex.GetStatusCode());

  00013	48 8d 05 00 00
	00 00		 lea	 rax, $LN9@PMCCS_IS_Z
  0001a	5d		 pop	 rbp
  0001b	c3		 ret	 0
  0001c	cc		 int	 3
PMCCS_IS_ZERO$catch$0 ENDP
text$x	ENDS
; Function compile flags: /Ogtpy
; File z:\sources\lunor\repos\rougemeilland\palmtree.math.core.uint\palmtree.math.core.uint\pmc_interface_csharp.cpp
;	COMDAT PMCCS_IS_POWER_OF_TWO
_TEXT	SEGMENT
$T1 = 0
ex$2 = 8
$T3 = 32
p$ = 32
r$ = 40
PMCCS_IS_POWER_OF_TWO PROC				; COMDAT

; 80   :     {

$LN15:
  00000	48 83 ec 18	 sub	 rsp, 24
  00004	48 c7 04 24 fe
	ff ff ff	 mov	 QWORD PTR $T1[rsp], -2

; 81   :         if (p == nullptr)

  0000c	48 85 c9	 test	 rcx, rcx
  0000f	75 0a		 jne	 SHORT $LN2@PMCCS_IS_P
$LN12@PMCCS_IS_P:

; 93   :         }
; 94   :     }

  00011	b8 fe ff ff ff	 mov	 eax, -2
  00016	48 83 c4 18	 add	 rsp, 24
  0001a	c3		 ret	 0
$LN2@PMCCS_IS_P:

; 82   :             return (PMC_STATUS_ARGUMENT_NULL_ERROR);
; 83   :         if (r == nullptr)

  0001b	48 85 d2	 test	 rdx, rdx
  0001e	74 f1		 je	 SHORT $LN12@PMCCS_IS_P

; 84   :             return (PMC_STATUS_ARGUMENT_NULL_ERROR);
; 85   :         try
; 86   :         {
; 87   :             *r = p->FLAGS.IS_POWER_OF_TWO;

  00020	8b 41 08	 mov	 eax, DWORD PTR [rcx+8]
  00023	c1 e8 03	 shr	 eax, 3
  00026	83 e0 01	 and	 eax, 1
  00029	89 02		 mov	 DWORD PTR [rdx], eax

; 88   :             return (PMC_STATUS_OK);

  0002b	33 c0		 xor	 eax, eax
  0002d	eb 04		 jmp	 SHORT $LN8@PMCCS_IS_P
$LN9@PMCCS_IS_P:

; 89   :         }
; 90   :         catch (const Palmtree::Math::Core::Internal::Exception& ex)
; 91   :         {
; 92   :             return (ex.GetStatusCode());

  0002f	8b 44 24 20	 mov	 eax, DWORD PTR $T3[rsp]
$LN8@PMCCS_IS_P:

; 93   :         }
; 94   :     }

  00033	48 83 c4 18	 add	 rsp, 24
  00037	c3		 ret	 0
  00038	cc		 int	 3
PMCCS_IS_POWER_OF_TWO ENDP
_TEXT	ENDS
;	COMDAT text$x
text$x	SEGMENT
$T1 = 0
ex$2 = 8
$T3 = 32
p$ = 32
r$ = 40
PMCCS_IS_POWER_OF_TWO$catch$0 PROC

; 89   :         }
; 90   :         catch (const Palmtree::Math::Core::Internal::Exception& ex)
; 91   :         {

  00000	48 89 54 24 10	 mov	 QWORD PTR [rsp+16], rdx
  00005	55		 push	 rbp
  00006	48 8b ea	 mov	 rbp, rdx
__catch$PMCCS_IS_POWER_OF_TWO$0:
; File z:\sources\lunor\repos\rougemeilland\palmtree.math.core.uint\palmtree.math.core.uint\pmc_exception.h

; 75   :             return (_code);

  00009	48 8b 45 08	 mov	 rax, QWORD PTR ex$2[rbp]
  0000d	8b 48 18	 mov	 ecx, DWORD PTR [rax+24]
  00010	89 4d 20	 mov	 DWORD PTR $T3[rbp], ecx
; File z:\sources\lunor\repos\rougemeilland\palmtree.math.core.uint\palmtree.math.core.uint\pmc_interface_csharp.cpp

; 89   :         }
; 90   :         catch (const Palmtree::Math::Core::Internal::Exception& ex)
; 91   :         {
; 92   :             return (ex.GetStatusCode());

  00013	48 8d 05 00 00
	00 00		 lea	 rax, $LN9@PMCCS_IS_P
  0001a	5d		 pop	 rbp
  0001b	c3		 ret	 0
  0001c	cc		 int	 3
PMCCS_IS_POWER_OF_TWO$catch$0 ENDP
text$x	ENDS
; Function compile flags: /Ogtpy
; File z:\sources\lunor\repos\rougemeilland\palmtree.math.core.uint\palmtree.math.core.uint\pmc_exception.h
; File z:\sources\lunor\repos\rougemeilland\palmtree.math.core.uint\palmtree.math.core.uint\pmc_interface_csharp.cpp
;	COMDAT text$x
text$x	SEGMENT
$T1 = 0
ex$2 = 8
$T3 = 32
p$ = 32
r$ = 40
PMCCS_IS_POWER_OF_TWO$catch$0 PROC

; 91   :         {

  00000	48 89 54 24 10	 mov	 QWORD PTR [rsp+16], rdx
  00005	55		 push	 rbp
  00006	48 8b ea	 mov	 rbp, rdx
__catch$PMCCS_IS_POWER_OF_TWO$0:
; File z:\sources\lunor\repos\rougemeilland\palmtree.math.core.uint\palmtree.math.core.uint\pmc_exception.h

; 75   :             return (_code);

  00009	48 8b 45 08	 mov	 rax, QWORD PTR ex$2[rbp]
  0000d	8b 48 18	 mov	 ecx, DWORD PTR [rax+24]
  00010	89 4d 20	 mov	 DWORD PTR $T3[rbp], ecx
; File z:\sources\lunor\repos\rougemeilland\palmtree.math.core.uint\palmtree.math.core.uint\pmc_interface_csharp.cpp

; 92   :             return (ex.GetStatusCode());

  00013	48 8d 05 00 00
	00 00		 lea	 rax, $LN9@PMCCS_IS_P
  0001a	5d		 pop	 rbp
  0001b	c3		 ret	 0
  0001c	cc		 int	 3
PMCCS_IS_POWER_OF_TWO$catch$0 ENDP
text$x	ENDS
; Function compile flags: /Ogtpy
; File z:\sources\lunor\repos\rougemeilland\palmtree.math.core.uint\palmtree.math.core.uint\pmc_interface_csharp.cpp
;	COMDAT PMCCS_IS_ONE
_TEXT	SEGMENT
$T1 = 0
ex$2 = 8
$T3 = 32
p$ = 32
r$ = 40
PMCCS_IS_ONE PROC					; COMDAT

; 63   :     {

$LN15:
  00000	48 83 ec 18	 sub	 rsp, 24
  00004	48 c7 04 24 fe
	ff ff ff	 mov	 QWORD PTR $T1[rsp], -2

; 64   :         if (p == nullptr)

  0000c	48 85 c9	 test	 rcx, rcx
  0000f	75 0a		 jne	 SHORT $LN2@PMCCS_IS_O
$LN12@PMCCS_IS_O:

; 76   :         }
; 77   :     }

  00011	b8 fe ff ff ff	 mov	 eax, -2
  00016	48 83 c4 18	 add	 rsp, 24
  0001a	c3		 ret	 0
$LN2@PMCCS_IS_O:

; 65   :             return (PMC_STATUS_ARGUMENT_NULL_ERROR);
; 66   :         if (r == nullptr)

  0001b	48 85 d2	 test	 rdx, rdx
  0001e	74 f1		 je	 SHORT $LN12@PMCCS_IS_O

; 67   :             return (PMC_STATUS_ARGUMENT_NULL_ERROR);
; 68   :         try
; 69   :         {
; 70   :             *r = p->FLAGS.IS_ONE;

  00020	8b 41 08	 mov	 eax, DWORD PTR [rcx+8]
  00023	d1 e8		 shr	 eax, 1
  00025	83 e0 01	 and	 eax, 1
  00028	89 02		 mov	 DWORD PTR [rdx], eax

; 71   :             return (PMC_STATUS_OK);

  0002a	33 c0		 xor	 eax, eax
  0002c	eb 04		 jmp	 SHORT $LN8@PMCCS_IS_O
$LN9@PMCCS_IS_O:

; 72   :         }
; 73   :         catch (const Palmtree::Math::Core::Internal::Exception& ex)
; 74   :         {
; 75   :             return (ex.GetStatusCode());

  0002e	8b 44 24 20	 mov	 eax, DWORD PTR $T3[rsp]
$LN8@PMCCS_IS_O:

; 76   :         }
; 77   :     }

  00032	48 83 c4 18	 add	 rsp, 24
  00036	c3		 ret	 0
  00037	cc		 int	 3
PMCCS_IS_ONE ENDP
_TEXT	ENDS
;	COMDAT text$x
text$x	SEGMENT
$T1 = 0
ex$2 = 8
$T3 = 32
p$ = 32
r$ = 40
PMCCS_IS_ONE$catch$0 PROC

; 72   :         }
; 73   :         catch (const Palmtree::Math::Core::Internal::Exception& ex)
; 74   :         {

  00000	48 89 54 24 10	 mov	 QWORD PTR [rsp+16], rdx
  00005	55		 push	 rbp
  00006	48 8b ea	 mov	 rbp, rdx
__catch$PMCCS_IS_ONE$0:
; File z:\sources\lunor\repos\rougemeilland\palmtree.math.core.uint\palmtree.math.core.uint\pmc_exception.h

; 75   :             return (_code);

  00009	48 8b 45 08	 mov	 rax, QWORD PTR ex$2[rbp]
  0000d	8b 48 18	 mov	 ecx, DWORD PTR [rax+24]
  00010	89 4d 20	 mov	 DWORD PTR $T3[rbp], ecx
; File z:\sources\lunor\repos\rougemeilland\palmtree.math.core.uint\palmtree.math.core.uint\pmc_interface_csharp.cpp

; 72   :         }
; 73   :         catch (const Palmtree::Math::Core::Internal::Exception& ex)
; 74   :         {
; 75   :             return (ex.GetStatusCode());

  00013	48 8d 05 00 00
	00 00		 lea	 rax, $LN9@PMCCS_IS_O
  0001a	5d		 pop	 rbp
  0001b	c3		 ret	 0
  0001c	cc		 int	 3
PMCCS_IS_ONE$catch$0 ENDP
text$x	ENDS
; Function compile flags: /Ogtpy
; File z:\sources\lunor\repos\rougemeilland\palmtree.math.core.uint\palmtree.math.core.uint\pmc_exception.h
; File z:\sources\lunor\repos\rougemeilland\palmtree.math.core.uint\palmtree.math.core.uint\pmc_interface_csharp.cpp
;	COMDAT text$x
text$x	SEGMENT
$T1 = 0
ex$2 = 8
$T3 = 32
p$ = 32
r$ = 40
PMCCS_IS_ONE$catch$0 PROC

; 74   :         {

  00000	48 89 54 24 10	 mov	 QWORD PTR [rsp+16], rdx
  00005	55		 push	 rbp
  00006	48 8b ea	 mov	 rbp, rdx
__catch$PMCCS_IS_ONE$0:
; File z:\sources\lunor\repos\rougemeilland\palmtree.math.core.uint\palmtree.math.core.uint\pmc_exception.h

; 75   :             return (_code);

  00009	48 8b 45 08	 mov	 rax, QWORD PTR ex$2[rbp]
  0000d	8b 48 18	 mov	 ecx, DWORD PTR [rax+24]
  00010	89 4d 20	 mov	 DWORD PTR $T3[rbp], ecx
; File z:\sources\lunor\repos\rougemeilland\palmtree.math.core.uint\palmtree.math.core.uint\pmc_interface_csharp.cpp

; 75   :             return (ex.GetStatusCode());

  00013	48 8d 05 00 00
	00 00		 lea	 rax, $LN9@PMCCS_IS_O
  0001a	5d		 pop	 rbp
  0001b	c3		 ret	 0
  0001c	cc		 int	 3
PMCCS_IS_ONE$catch$0 ENDP
text$x	ENDS
; Function compile flags: /Ogtpy
; File z:\sources\lunor\repos\rougemeilland\palmtree.math.core.uint\palmtree.math.core.uint\pmc_interface_csharp.cpp
;	COMDAT PMCCS_IS_EVEN
_TEXT	SEGMENT
$T1 = 0
ex$2 = 8
$T3 = 32
p$ = 32
r$ = 40
PMCCS_IS_EVEN PROC					; COMDAT

; 46   :     {

$LN15:
  00000	48 83 ec 18	 sub	 rsp, 24
  00004	48 c7 04 24 fe
	ff ff ff	 mov	 QWORD PTR $T1[rsp], -2

; 47   :         if (p == nullptr)

  0000c	48 85 c9	 test	 rcx, rcx
  0000f	75 0a		 jne	 SHORT $LN2@PMCCS_IS_E
$LN12@PMCCS_IS_E:

; 59   :         }
; 60   :     }

  00011	b8 fe ff ff ff	 mov	 eax, -2
  00016	48 83 c4 18	 add	 rsp, 24
  0001a	c3		 ret	 0
$LN2@PMCCS_IS_E:

; 48   :             return (PMC_STATUS_ARGUMENT_NULL_ERROR);
; 49   :         if (r == nullptr)

  0001b	48 85 d2	 test	 rdx, rdx
  0001e	74 f1		 je	 SHORT $LN12@PMCCS_IS_E

; 50   :             return (PMC_STATUS_ARGUMENT_NULL_ERROR);
; 51   :         try
; 52   :         {
; 53   :             *r = p->FLAGS.IS_EVEN;

  00020	8b 41 08	 mov	 eax, DWORD PTR [rcx+8]
  00023	c1 e8 02	 shr	 eax, 2
  00026	83 e0 01	 and	 eax, 1
  00029	89 02		 mov	 DWORD PTR [rdx], eax

; 54   :             return (PMC_STATUS_OK);

  0002b	33 c0		 xor	 eax, eax
  0002d	eb 04		 jmp	 SHORT $LN8@PMCCS_IS_E
$LN9@PMCCS_IS_E:

; 55   :         }
; 56   :         catch (const Palmtree::Math::Core::Internal::Exception& ex)
; 57   :         {
; 58   :             return (ex.GetStatusCode());

  0002f	8b 44 24 20	 mov	 eax, DWORD PTR $T3[rsp]
$LN8@PMCCS_IS_E:

; 59   :         }
; 60   :     }

  00033	48 83 c4 18	 add	 rsp, 24
  00037	c3		 ret	 0
  00038	cc		 int	 3
PMCCS_IS_EVEN ENDP
_TEXT	ENDS
;	COMDAT text$x
text$x	SEGMENT
$T1 = 0
ex$2 = 8
$T3 = 32
p$ = 32
r$ = 40
PMCCS_IS_EVEN$catch$0 PROC

; 55   :         }
; 56   :         catch (const Palmtree::Math::Core::Internal::Exception& ex)
; 57   :         {

  00000	48 89 54 24 10	 mov	 QWORD PTR [rsp+16], rdx
  00005	55		 push	 rbp
  00006	48 8b ea	 mov	 rbp, rdx
__catch$PMCCS_IS_EVEN$0:
; File z:\sources\lunor\repos\rougemeilland\palmtree.math.core.uint\palmtree.math.core.uint\pmc_exception.h

; 75   :             return (_code);

  00009	48 8b 45 08	 mov	 rax, QWORD PTR ex$2[rbp]
  0000d	8b 48 18	 mov	 ecx, DWORD PTR [rax+24]
  00010	89 4d 20	 mov	 DWORD PTR $T3[rbp], ecx
; File z:\sources\lunor\repos\rougemeilland\palmtree.math.core.uint\palmtree.math.core.uint\pmc_interface_csharp.cpp

; 55   :         }
; 56   :         catch (const Palmtree::Math::Core::Internal::Exception& ex)
; 57   :         {
; 58   :             return (ex.GetStatusCode());

  00013	48 8d 05 00 00
	00 00		 lea	 rax, $LN9@PMCCS_IS_E
  0001a	5d		 pop	 rbp
  0001b	c3		 ret	 0
  0001c	cc		 int	 3
PMCCS_IS_EVEN$catch$0 ENDP
text$x	ENDS
; Function compile flags: /Ogtpy
; File z:\sources\lunor\repos\rougemeilland\palmtree.math.core.uint\palmtree.math.core.uint\pmc_exception.h
; File z:\sources\lunor\repos\rougemeilland\palmtree.math.core.uint\palmtree.math.core.uint\pmc_interface_csharp.cpp
;	COMDAT text$x
text$x	SEGMENT
$T1 = 0
ex$2 = 8
$T3 = 32
p$ = 32
r$ = 40
PMCCS_IS_EVEN$catch$0 PROC

; 57   :         {

  00000	48 89 54 24 10	 mov	 QWORD PTR [rsp+16], rdx
  00005	55		 push	 rbp
  00006	48 8b ea	 mov	 rbp, rdx
__catch$PMCCS_IS_EVEN$0:
; File z:\sources\lunor\repos\rougemeilland\palmtree.math.core.uint\palmtree.math.core.uint\pmc_exception.h

; 75   :             return (_code);

  00009	48 8b 45 08	 mov	 rax, QWORD PTR ex$2[rbp]
  0000d	8b 48 18	 mov	 ecx, DWORD PTR [rax+24]
  00010	89 4d 20	 mov	 DWORD PTR $T3[rbp], ecx
; File z:\sources\lunor\repos\rougemeilland\palmtree.math.core.uint\palmtree.math.core.uint\pmc_interface_csharp.cpp

; 58   :             return (ex.GetStatusCode());

  00013	48 8d 05 00 00
	00 00		 lea	 rax, $LN9@PMCCS_IS_E
  0001a	5d		 pop	 rbp
  0001b	c3		 ret	 0
  0001c	cc		 int	 3
PMCCS_IS_EVEN$catch$0 ENDP
text$x	ENDS
; Function compile flags: /Ogtpy
; File z:\sources\lunor\repos\rougemeilland\palmtree.math.core.uint\palmtree.math.core.uint\pmc_interface_csharp.cpp
;	COMDAT PMCCS_GetConfigurationSettings
_TEXT	SEGMENT
key$ = 8
value_buffer$ = 16
value_buffer_size$ = 24
count$ = 32
PMCCS_GetConfigurationSettings PROC			; COMDAT

; 42   :         return (PMC_GetConfigurationSettings(key, value_buffer, value_buffer_size, count));

  00000	e9 00 00 00 00	 jmp	 ?PMC_GetConfigurationSettings@Internal@Core@Math@Palmtree@@YAHPEB_WPEA_WHPEAH@Z ; Palmtree::Math::Core::Internal::PMC_GetConfigurationSettings
PMCCS_GetConfigurationSettings ENDP
_TEXT	ENDS
; Function compile flags: /Ogtpy
; File z:\sources\lunor\repos\rougemeilland\palmtree.math.core.uint\palmtree.math.core.uint\pmc_interface_csharp.cpp
;	COMDAT PMCCS_UINT_Initialize
_TEXT	SEGMENT
conf$ = 48
PMCCS_UINT_Initialize PROC				; COMDAT

; 35   :     {

$LN4:
  00000	48 83 ec 28	 sub	 rsp, 40			; 00000028H

; 36   :         _UINT32_T success = PMC_UINT_Initialize(conf) != nullptr ? 1 : 0;

  00004	e8 00 00 00 00	 call	 PMC_UINT_Initialize
  00009	33 c9		 xor	 ecx, ecx
  0000b	48 85 c0	 test	 rax, rax
  0000e	0f 95 c1	 setne	 cl

; 37   :         return (success);

  00011	8b c1		 mov	 eax, ecx

; 38   :     }

  00013	48 83 c4 28	 add	 rsp, 40			; 00000028H
  00017	c3		 ret	 0
PMCCS_UINT_Initialize ENDP
_TEXT	ENDS
; Function compile flags: /Ogtpy
; File z:\sources\lunor\repos\rougemeilland\palmtree.math.core.uint\palmtree.math.core.uint\pmc_exception.h
;	COMDAT ?GetStatusCode@Exception@Internal@Core@Math@Palmtree@@QEBAHXZ
_TEXT	SEGMENT
this$ = 8
?GetStatusCode@Exception@Internal@Core@Math@Palmtree@@QEBAHXZ PROC ; Palmtree::Math::Core::Internal::Exception::GetStatusCode, COMDAT

; 75   :             return (_code);

  00000	8b 41 18	 mov	 eax, DWORD PTR [rcx+24]

; 76   :         }

  00003	c3		 ret	 0
?GetStatusCode@Exception@Internal@Core@Math@Palmtree@@QEBAHXZ ENDP ; Palmtree::Math::Core::Internal::Exception::GetStatusCode
_TEXT	ENDS
END
