; Listing generated by Microsoft (R) Optimizing Compiler Version 19.16.27027.1 

include listing.inc

INCLUDELIB MSVCRT
INCLUDELIB OLDNAMES

PUBLIC	??1exception@std@@UEAA@XZ			; std::exception::~exception
PUBLIC	?what@exception@std@@UEBAPEBDXZ			; std::exception::what
PUBLIC	??_Gexception@std@@UEAAPEAXI@Z			; std::exception::`scalar deleting destructor'
PUBLIC	??0Exception@Internal@Core@Math@Palmtree@@QEAA@AEBV01234@@Z ; Palmtree::Math::Core::Internal::Exception::Exception
PUBLIC	??1Exception@Internal@Core@Math@Palmtree@@UEAA@XZ ; Palmtree::Math::Core::Internal::Exception::~Exception
PUBLIC	??_GException@Internal@Core@Math@Palmtree@@UEAAPEAXI@Z ; Palmtree::Math::Core::Internal::Exception::`scalar deleting destructor'
PUBLIC	??0ArgumentNullException@Internal@Core@Math@Palmtree@@QEAA@PEB_W0@Z ; Palmtree::Math::Core::Internal::ArgumentNullException::ArgumentNullException
PUBLIC	??0ArgumentNullException@Internal@Core@Math@Palmtree@@QEAA@AEBV01234@@Z ; Palmtree::Math::Core::Internal::ArgumentNullException::ArgumentNullException
PUBLIC	??1ArgumentNullException@Internal@Core@Math@Palmtree@@UEAA@XZ ; Palmtree::Math::Core::Internal::ArgumentNullException::~ArgumentNullException
PUBLIC	??_GArgumentNullException@Internal@Core@Math@Palmtree@@UEAAPEAXI@Z ; Palmtree::Math::Core::Internal::ArgumentNullException::`scalar deleting destructor'
PUBLIC	??0OverflowException@Internal@Core@Math@Palmtree@@QEAA@PEB_W@Z ; Palmtree::Math::Core::Internal::OverflowException::OverflowException
PUBLIC	??0OverflowException@Internal@Core@Math@Palmtree@@QEAA@AEBV01234@@Z ; Palmtree::Math::Core::Internal::OverflowException::OverflowException
PUBLIC	??1OverflowException@Internal@Core@Math@Palmtree@@UEAA@XZ ; Palmtree::Math::Core::Internal::OverflowException::~OverflowException
PUBLIC	??_GOverflowException@Internal@Core@Math@Palmtree@@UEAAPEAXI@Z ; Palmtree::Math::Core::Internal::OverflowException::`scalar deleting destructor'
PUBLIC	??1InternalErrorException@Internal@Core@Math@Palmtree@@UEAA@XZ ; Palmtree::Math::Core::Internal::InternalErrorException::~InternalErrorException
PUBLIC	??_GInternalErrorException@Internal@Core@Math@Palmtree@@UEAAPEAXI@Z ; Palmtree::Math::Core::Internal::InternalErrorException::`scalar deleting destructor'
PUBLIC	?Subtruct_Imp@Internal@Core@Math@Palmtree@@YAXPEA_K_K0101@Z ; Palmtree::Math::Core::Internal::Subtruct_Imp
PUBLIC	?Initialize_Subtruct@Internal@Core@Math@Palmtree@@YAHPEAU_tag_PROCESSOR_FEATURES@1234@@Z ; Palmtree::Math::Core::Internal::Initialize_Subtruct
PUBLIC	?PMC_Subtruct_I_X@Internal@Core@Math@Palmtree@@YAIIPEAU__tag_PMC_HANDLE_UINT@1234@@Z ; Palmtree::Math::Core::Internal::PMC_Subtruct_I_X
PUBLIC	?PMC_Subtruct_L_X@Internal@Core@Math@Palmtree@@YA_K_KPEAU__tag_PMC_HANDLE_UINT@1234@@Z ; Palmtree::Math::Core::Internal::PMC_Subtruct_L_X
PUBLIC	?PMC_Subtruct_X_I@Internal@Core@Math@Palmtree@@YAPEAU__tag_PMC_HANDLE_UINT@1234@PEAU51234@I@Z ; Palmtree::Math::Core::Internal::PMC_Subtruct_X_I
PUBLIC	?PMC_Subtruct_X_L@Internal@Core@Math@Palmtree@@YAPEAU__tag_PMC_HANDLE_UINT@1234@PEAU51234@_K@Z ; Palmtree::Math::Core::Internal::PMC_Subtruct_X_L
PUBLIC	?PMC_Subtruct_X_X@Internal@Core@Math@Palmtree@@YAPEAU__tag_PMC_HANDLE_UINT@1234@PEAU51234@0@Z ; Palmtree::Math::Core::Internal::PMC_Subtruct_X_X
PUBLIC	??_7exception@std@@6B@				; std::exception::`vftable'
PUBLIC	??_C@_0BC@EOODALEL@Unknown?5exception@		; `string'
PUBLIC	??_7Exception@Internal@Core@Math@Palmtree@@6B@	; Palmtree::Math::Core::Internal::Exception::`vftable'
PUBLIC	??_7ArgumentNullException@Internal@Core@Math@Palmtree@@6B@ ; Palmtree::Math::Core::Internal::ArgumentNullException::`vftable'
PUBLIC	??_7OverflowException@Internal@Core@Math@Palmtree@@6B@ ; Palmtree::Math::Core::Internal::OverflowException::`vftable'
PUBLIC	??_7InternalErrorException@Internal@Core@Math@Palmtree@@6B@ ; Palmtree::Math::Core::Internal::InternalErrorException::`vftable'
PUBLIC	??_R0?AVInternalErrorException@Internal@Core@Math@Palmtree@@@8 ; Palmtree::Math::Core::Internal::InternalErrorException `RTTI Type Descriptor'
PUBLIC	??_R0?AVException@Internal@Core@Math@Palmtree@@@8 ; Palmtree::Math::Core::Internal::Exception `RTTI Type Descriptor'
PUBLIC	_CT??_R0?AVException@Internal@Core@Math@Palmtree@@@8??0Exception@Internal@Core@Math@Palmtree@@QEAA@AEBV01234@@Z48
PUBLIC	_TI2?AVOverflowException@Internal@Core@Math@Palmtree@@
PUBLIC	_CTA2?AVOverflowException@Internal@Core@Math@Palmtree@@
PUBLIC	??_R0?AVOverflowException@Internal@Core@Math@Palmtree@@@8 ; Palmtree::Math::Core::Internal::OverflowException `RTTI Type Descriptor'
PUBLIC	_CT??_R0?AVOverflowException@Internal@Core@Math@Palmtree@@@8??0OverflowException@Internal@Core@Math@Palmtree@@QEAA@AEBV01234@@Z48
PUBLIC	??_C@_1CK@EKOAHHOC@?$AA?$BL?$PP?$JH?$AAk?$PP?$II?$PP?$IK?$PP?$KK?$PP?$PM?$PP?P?$PP?$PM?$PP?U?$PP?m?$PP?$PM?$AAL?$AAz?$AA?$BP@ ; `string'
PUBLIC	_TI2?AVArgumentNullException@Internal@Core@Math@Palmtree@@
PUBLIC	_CTA2?AVArgumentNullException@Internal@Core@Math@Palmtree@@
PUBLIC	??_R0?AVArgumentNullException@Internal@Core@Math@Palmtree@@@8 ; Palmtree::Math::Core::Internal::ArgumentNullException `RTTI Type Descriptor'
PUBLIC	_CT??_R0?AVArgumentNullException@Internal@Core@Math@Palmtree@@@8??0ArgumentNullException@Internal@Core@Math@Palmtree@@QEAA@AEBV01234@@Z48
PUBLIC	??_C@_13JAOPNPKD@?$AAv@				; `string'
PUBLIC	??_C@_1CK@ECFIEPAC@?$AA?$BF?$AAp?$AAk?$AAn?$AAu?$AAl?$AAl?$AAp?$AAt?$AAr?$AAL?$AA?$AO?$AAH?$PP?$IJ?$PP?$IM@ ; `string'
PUBLIC	??_C@_13ICFKHAEN@?$AAu@				; `string'
PUBLIC	??_R4exception@std@@6B@				; std::exception::`RTTI Complete Object Locator'
PUBLIC	??_R0?AVexception@std@@@8			; std::exception `RTTI Type Descriptor'
PUBLIC	??_R3exception@std@@8				; std::exception::`RTTI Class Hierarchy Descriptor'
PUBLIC	??_R2exception@std@@8				; std::exception::`RTTI Base Class Array'
PUBLIC	??_R1A@?0A@EA@exception@std@@8			; std::exception::`RTTI Base Class Descriptor at (0,-1,0,64)'
PUBLIC	??_R4Exception@Internal@Core@Math@Palmtree@@6B@	; Palmtree::Math::Core::Internal::Exception::`RTTI Complete Object Locator'
PUBLIC	??_R3Exception@Internal@Core@Math@Palmtree@@8	; Palmtree::Math::Core::Internal::Exception::`RTTI Class Hierarchy Descriptor'
PUBLIC	??_R2Exception@Internal@Core@Math@Palmtree@@8	; Palmtree::Math::Core::Internal::Exception::`RTTI Base Class Array'
PUBLIC	??_R1A@?0A@EA@Exception@Internal@Core@Math@Palmtree@@8 ; Palmtree::Math::Core::Internal::Exception::`RTTI Base Class Descriptor at (0,-1,0,64)'
PUBLIC	??_R1A@?0A@EN@exception@std@@8			; std::exception::`RTTI Base Class Descriptor at (0,-1,0,77)'
PUBLIC	??_R4ArgumentNullException@Internal@Core@Math@Palmtree@@6B@ ; Palmtree::Math::Core::Internal::ArgumentNullException::`RTTI Complete Object Locator'
PUBLIC	??_R3ArgumentNullException@Internal@Core@Math@Palmtree@@8 ; Palmtree::Math::Core::Internal::ArgumentNullException::`RTTI Class Hierarchy Descriptor'
PUBLIC	??_R2ArgumentNullException@Internal@Core@Math@Palmtree@@8 ; Palmtree::Math::Core::Internal::ArgumentNullException::`RTTI Base Class Array'
PUBLIC	??_R1A@?0A@EA@ArgumentNullException@Internal@Core@Math@Palmtree@@8 ; Palmtree::Math::Core::Internal::ArgumentNullException::`RTTI Base Class Descriptor at (0,-1,0,64)'
PUBLIC	??_R4OverflowException@Internal@Core@Math@Palmtree@@6B@ ; Palmtree::Math::Core::Internal::OverflowException::`RTTI Complete Object Locator'
PUBLIC	??_R3OverflowException@Internal@Core@Math@Palmtree@@8 ; Palmtree::Math::Core::Internal::OverflowException::`RTTI Class Hierarchy Descriptor'
PUBLIC	??_R2OverflowException@Internal@Core@Math@Palmtree@@8 ; Palmtree::Math::Core::Internal::OverflowException::`RTTI Base Class Array'
PUBLIC	??_R1A@?0A@EA@OverflowException@Internal@Core@Math@Palmtree@@8 ; Palmtree::Math::Core::Internal::OverflowException::`RTTI Base Class Descriptor at (0,-1,0,64)'
PUBLIC	??_R4InternalErrorException@Internal@Core@Math@Palmtree@@6B@ ; Palmtree::Math::Core::Internal::InternalErrorException::`RTTI Complete Object Locator'
PUBLIC	??_R3InternalErrorException@Internal@Core@Math@Palmtree@@8 ; Palmtree::Math::Core::Internal::InternalErrorException::`RTTI Class Hierarchy Descriptor'
PUBLIC	??_R2InternalErrorException@Internal@Core@Math@Palmtree@@8 ; Palmtree::Math::Core::Internal::InternalErrorException::`RTTI Base Class Array'
PUBLIC	??_R1A@?0A@EA@InternalErrorException@Internal@Core@Math@Palmtree@@8 ; Palmtree::Math::Core::Internal::InternalErrorException::`RTTI Base Class Descriptor at (0,-1,0,64)'
EXTRN	??3@YAXPEAX_K@Z:PROC				; operator delete
EXTRN	__std_exception_destroy:PROC
EXTRN	??_Eexception@std@@UEAAPEAXI@Z:PROC		; std::exception::`vector deleting destructor'
EXTRN	??_EException@Internal@Core@Math@Palmtree@@UEAAPEAXI@Z:PROC ; Palmtree::Math::Core::Internal::Exception::`vector deleting destructor'
EXTRN	??_EArgumentNullException@Internal@Core@Math@Palmtree@@UEAAPEAXI@Z:PROC ; Palmtree::Math::Core::Internal::ArgumentNullException::`vector deleting destructor'
EXTRN	??_EOverflowException@Internal@Core@Math@Palmtree@@UEAAPEAXI@Z:PROC ; Palmtree::Math::Core::Internal::OverflowException::`vector deleting destructor'
EXTRN	??_EInternalErrorException@Internal@Core@Math@Palmtree@@UEAAPEAXI@Z:PROC ; Palmtree::Math::Core::Internal::InternalErrorException::`vector deleting destructor'
EXTRN	?CommitNumber@Internal@Core@Math@Palmtree@@YAXPEAU__tag_NUMBER_HEADER@1234@@Z:PROC ; Palmtree::Math::Core::Internal::CommitNumber
EXTRN	?CheckNumber@Internal@Core@Math@Palmtree@@YAXPEAU__tag_NUMBER_HEADER@1234@@Z:PROC ; Palmtree::Math::Core::Internal::CheckNumber
EXTRN	?DuplicateNumber@Internal@Core@Math@Palmtree@@YAPEAU__tag_NUMBER_HEADER@1234@PEAU51234@@Z:PROC ; Palmtree::Math::Core::Internal::DuplicateNumber
EXTRN	??0ResourceHolderUINT@Internal@Core@Math@Palmtree@@QEAA@XZ:PROC ; Palmtree::Math::Core::Internal::ResourceHolderUINT::ResourceHolderUINT
EXTRN	??1ResourceHolderUINT@Internal@Core@Math@Palmtree@@UEAA@XZ:PROC ; Palmtree::Math::Core::Internal::ResourceHolderUINT::~ResourceHolderUINT
EXTRN	?AllocateNumber@ResourceHolderUINT@Internal@Core@Math@Palmtree@@QEAAPEAU__tag_NUMBER_HEADER@2345@_K@Z:PROC ; Palmtree::Math::Core::Internal::ResourceHolderUINT::AllocateNumber
EXTRN	?HookNumber@ResourceHolderUINT@Internal@Core@Math@Palmtree@@QEAAXPEAU__tag_NUMBER_HEADER@2345@@Z:PROC ; Palmtree::Math::Core::Internal::ResourceHolderUINT::HookNumber
EXTRN	?DeallocateNumber@ResourceHolderUINT@Internal@Core@Math@Palmtree@@QEAAXPEAU__tag_NUMBER_HEADER@2345@@Z:PROC ; Palmtree::Math::Core::Internal::ResourceHolderUINT::DeallocateNumber
EXTRN	?CheckNumber@ResourceHolderUINT@Internal@Core@Math@Palmtree@@QEAAXPEAU__tag_NUMBER_HEADER@2345@@Z:PROC ; Palmtree::Math::Core::Internal::ResourceHolderUINT::CheckNumber
EXTRN	?UnlinkNumber@ResourceHolderUINT@Internal@Core@Math@Palmtree@@QEAAXPEAU__tag_NUMBER_HEADER@2345@@Z:PROC ; Palmtree::Math::Core::Internal::ResourceHolderUINT::UnlinkNumber
EXTRN	_CxxThrowException:PROC
EXTRN	__CxxFrameHandler3:PROC
EXTRN	?number_zero@Internal@Core@Math@Palmtree@@3U__tag_NUMBER_HEADER@1234@A:BYTE ; Palmtree::Math::Core::Internal::number_zero
EXTRN	??_7type_info@@6B@:BYTE				; type_info::`vftable'
;	COMDAT pdata
pdata	SEGMENT
$pdata$??1exception@std@@UEAA@XZ DD imagerel $LN5
	DD	imagerel $LN5+38
	DD	imagerel $unwind$??1exception@std@@UEAA@XZ
pdata	ENDS
;	COMDAT pdata
pdata	SEGMENT
$pdata$??_Gexception@std@@UEAAPEAXI@Z DD imagerel $LN9
	DD	imagerel $LN9+78
	DD	imagerel $unwind$??_Gexception@std@@UEAAPEAXI@Z
pdata	ENDS
;	COMDAT pdata
pdata	SEGMENT
$pdata$??0Exception@Internal@Core@Math@Palmtree@@IEAA@HPEB_W@Z DD imagerel $LN8
	DD	imagerel $LN8+70
	DD	imagerel $unwind$??0Exception@Internal@Core@Math@Palmtree@@IEAA@HPEB_W@Z
pdata	ENDS
;	COMDAT pdata
pdata	SEGMENT
$pdata$??0Exception@Internal@Core@Math@Palmtree@@IEAA@HPEB_W0@Z DD imagerel $LN8
	DD	imagerel $LN8+66
	DD	imagerel $unwind$??0Exception@Internal@Core@Math@Palmtree@@IEAA@HPEB_W0@Z
pdata	ENDS
;	COMDAT pdata
pdata	SEGMENT
$pdata$??0Exception@Internal@Core@Math@Palmtree@@QEAA@AEBV01234@@Z DD imagerel $LN8
	DD	imagerel $LN8+77
	DD	imagerel $unwind$??0Exception@Internal@Core@Math@Palmtree@@QEAA@AEBV01234@@Z
pdata	ENDS
;	COMDAT pdata
pdata	SEGMENT
$pdata$??1Exception@Internal@Core@Math@Palmtree@@UEAA@XZ DD imagerel $LN8
	DD	imagerel $LN8+53
	DD	imagerel $unwind$??1Exception@Internal@Core@Math@Palmtree@@UEAA@XZ
pdata	ENDS
;	COMDAT pdata
pdata	SEGMENT
$pdata$??_GException@Internal@Core@Math@Palmtree@@UEAAPEAXI@Z DD imagerel $LN12
	DD	imagerel $LN12+92
	DD	imagerel $unwind$??_GException@Internal@Core@Math@Palmtree@@UEAAPEAXI@Z
pdata	ENDS
;	COMDAT pdata
pdata	SEGMENT
$pdata$??0ArgumentNullException@Internal@Core@Math@Palmtree@@QEAA@PEB_W0@Z DD imagerel $LN11
	DD	imagerel $LN11+80
	DD	imagerel $unwind$??0ArgumentNullException@Internal@Core@Math@Palmtree@@QEAA@PEB_W0@Z
pdata	ENDS
;	COMDAT pdata
pdata	SEGMENT
$pdata$??0ArgumentNullException@Internal@Core@Math@Palmtree@@QEAA@AEBV01234@@Z DD imagerel $LN11
	DD	imagerel $LN11+87
	DD	imagerel $unwind$??0ArgumentNullException@Internal@Core@Math@Palmtree@@QEAA@AEBV01234@@Z
pdata	ENDS
;	COMDAT pdata
pdata	SEGMENT
$pdata$??1ArgumentNullException@Internal@Core@Math@Palmtree@@UEAA@XZ DD imagerel $LN11
	DD	imagerel $LN11+63
	DD	imagerel $unwind$??1ArgumentNullException@Internal@Core@Math@Palmtree@@UEAA@XZ
pdata	ENDS
;	COMDAT pdata
pdata	SEGMENT
$pdata$??_GArgumentNullException@Internal@Core@Math@Palmtree@@UEAAPEAXI@Z DD imagerel $LN15
	DD	imagerel $LN15+102
	DD	imagerel $unwind$??_GArgumentNullException@Internal@Core@Math@Palmtree@@UEAAPEAXI@Z
pdata	ENDS
;	COMDAT pdata
pdata	SEGMENT
$pdata$??0OverflowException@Internal@Core@Math@Palmtree@@QEAA@PEB_W@Z DD imagerel $LN11
	DD	imagerel $LN11+84
	DD	imagerel $unwind$??0OverflowException@Internal@Core@Math@Palmtree@@QEAA@PEB_W@Z
pdata	ENDS
;	COMDAT pdata
pdata	SEGMENT
$pdata$??0OverflowException@Internal@Core@Math@Palmtree@@QEAA@AEBV01234@@Z DD imagerel $LN11
	DD	imagerel $LN11+87
	DD	imagerel $unwind$??0OverflowException@Internal@Core@Math@Palmtree@@QEAA@AEBV01234@@Z
pdata	ENDS
;	COMDAT pdata
pdata	SEGMENT
$pdata$??1OverflowException@Internal@Core@Math@Palmtree@@UEAA@XZ DD imagerel $LN11
	DD	imagerel $LN11+63
	DD	imagerel $unwind$??1OverflowException@Internal@Core@Math@Palmtree@@UEAA@XZ
pdata	ENDS
;	COMDAT pdata
pdata	SEGMENT
$pdata$??_GOverflowException@Internal@Core@Math@Palmtree@@UEAAPEAXI@Z DD imagerel $LN15
	DD	imagerel $LN15+102
	DD	imagerel $unwind$??_GOverflowException@Internal@Core@Math@Palmtree@@UEAAPEAXI@Z
pdata	ENDS
;	COMDAT pdata
pdata	SEGMENT
$pdata$??0InternalErrorException@Internal@Core@Math@Palmtree@@QEAA@PEB_W0@Z DD imagerel $LN11
	DD	imagerel $LN11+80
	DD	imagerel $unwind$??0InternalErrorException@Internal@Core@Math@Palmtree@@QEAA@PEB_W0@Z
pdata	ENDS
;	COMDAT pdata
pdata	SEGMENT
$pdata$??1InternalErrorException@Internal@Core@Math@Palmtree@@UEAA@XZ DD imagerel $LN11
	DD	imagerel $LN11+63
	DD	imagerel $unwind$??1InternalErrorException@Internal@Core@Math@Palmtree@@UEAA@XZ
pdata	ENDS
;	COMDAT pdata
pdata	SEGMENT
$pdata$??_GInternalErrorException@Internal@Core@Math@Palmtree@@UEAAPEAXI@Z DD imagerel $LN15
	DD	imagerel $LN15+102
	DD	imagerel $unwind$??_GInternalErrorException@Internal@Core@Math@Palmtree@@UEAAPEAXI@Z
pdata	ENDS
;	COMDAT pdata
pdata	SEGMENT
$pdata$?Subtruct_Imp@Internal@Core@Math@Palmtree@@YAXPEA_K_K0101@Z DD imagerel $LN118
	DD	imagerel $LN118+947
	DD	imagerel $unwind$?Subtruct_Imp@Internal@Core@Math@Palmtree@@YAXPEA_K_K0101@Z
pdata	ENDS
;	COMDAT pdata
pdata	SEGMENT
$pdata$?PMC_Subtruct_I_X@Internal@Core@Math@Palmtree@@YAIIPEAU__tag_PMC_HANDLE_UINT@1234@@Z DD imagerel $LN24
	DD	imagerel $LN24+280
	DD	imagerel $unwind$?PMC_Subtruct_I_X@Internal@Core@Math@Palmtree@@YAIIPEAU__tag_PMC_HANDLE_UINT@1234@@Z
pdata	ENDS
;	COMDAT pdata
pdata	SEGMENT
$pdata$?PMC_Subtruct_L_X@Internal@Core@Math@Palmtree@@YA_K_KPEAU__tag_PMC_HANDLE_UINT@1234@@Z DD imagerel $LN57
	DD	imagerel $LN57+264
	DD	imagerel $unwind$?PMC_Subtruct_L_X@Internal@Core@Math@Palmtree@@YA_K_KPEAU__tag_PMC_HANDLE_UINT@1234@@Z
pdata	ENDS
;	COMDAT pdata
pdata	SEGMENT
$pdata$?PMC_Subtruct_X_I@Internal@Core@Math@Palmtree@@YAPEAU__tag_PMC_HANDLE_UINT@1234@PEAU51234@I@Z DD imagerel $LN32
	DD	imagerel $LN32+465
	DD	imagerel $unwind$?PMC_Subtruct_X_I@Internal@Core@Math@Palmtree@@YAPEAU__tag_PMC_HANDLE_UINT@1234@PEAU51234@I@Z
pdata	ENDS
;	COMDAT pdata
pdata	SEGMENT
$pdata$?PMC_Subtruct_X_L@Internal@Core@Math@Palmtree@@YAPEAU__tag_PMC_HANDLE_UINT@1234@PEAU51234@_K@Z DD imagerel $LN65
	DD	imagerel $LN65+464
	DD	imagerel $unwind$?PMC_Subtruct_X_L@Internal@Core@Math@Palmtree@@YAPEAU__tag_PMC_HANDLE_UINT@1234@PEAU51234@_K@Z
pdata	ENDS
;	COMDAT pdata
pdata	SEGMENT
$pdata$?PMC_Subtruct_X_X@Internal@Core@Math@Palmtree@@YAPEAU__tag_PMC_HANDLE_UINT@1234@PEAU51234@0@Z DD imagerel $LN25
	DD	imagerel $LN25+496
	DD	imagerel $unwind$?PMC_Subtruct_X_X@Internal@Core@Math@Palmtree@@YAPEAU__tag_PMC_HANDLE_UINT@1234@PEAU51234@0@Z
pdata	ENDS
;	COMDAT pdata
pdata	SEGMENT
$pdata$?DoBorrow@Internal@Core@Math@Palmtree@@YAXDPEA_K_K01@Z DD imagerel ?DoBorrow@Internal@Core@Math@Palmtree@@YAXDPEA_K_K01@Z
	DD	imagerel ?DoBorrow@Internal@Core@Math@Palmtree@@YAXDPEA_K_K01@Z+137
	DD	imagerel $unwind$?DoBorrow@Internal@Core@Math@Palmtree@@YAXDPEA_K_K01@Z
pdata	ENDS
;	COMDAT pdata
pdata	SEGMENT
$pdata$?Subtruct_X_2W@Internal@Core@Math@Palmtree@@YAXPEA_K_K1101@Z DD imagerel ?Subtruct_X_2W@Internal@Core@Math@Palmtree@@YAXPEA_K_K1101@Z
	DD	imagerel ?Subtruct_X_2W@Internal@Core@Math@Palmtree@@YAXPEA_K_K1101@Z+129
	DD	imagerel $unwind$?Subtruct_X_2W@Internal@Core@Math@Palmtree@@YAXPEA_K_K1101@Z
pdata	ENDS
;	COMDAT pdata
pdata	SEGMENT
$pdata$?PMC_Subtruct_X_I_Imp@Internal@Core@Math@Palmtree@@YAPEAU__tag_NUMBER_HEADER@1234@PEAU51234@I@Z DD imagerel ?PMC_Subtruct_X_I_Imp@Internal@Core@Math@Palmtree@@YAPEAU__tag_NUMBER_HEADER@1234@PEAU51234@I@Z
	DD	imagerel ?PMC_Subtruct_X_I_Imp@Internal@Core@Math@Palmtree@@YAPEAU__tag_NUMBER_HEADER@1234@PEAU51234@I@Z+349
	DD	imagerel $unwind$?PMC_Subtruct_X_I_Imp@Internal@Core@Math@Palmtree@@YAPEAU__tag_NUMBER_HEADER@1234@PEAU51234@I@Z
pdata	ENDS
;	COMDAT pdata
pdata	SEGMENT
$pdata$?PMC_Subtruct_X_L_Imp@Internal@Core@Math@Palmtree@@YAPEAU__tag_NUMBER_HEADER@1234@PEAU51234@_K@Z DD imagerel ?PMC_Subtruct_X_L_Imp@Internal@Core@Math@Palmtree@@YAPEAU__tag_NUMBER_HEADER@1234@PEAU51234@_K@Z
	DD	imagerel ?PMC_Subtruct_X_L_Imp@Internal@Core@Math@Palmtree@@YAPEAU__tag_NUMBER_HEADER@1234@PEAU51234@_K@Z+356
	DD	imagerel $unwind$?PMC_Subtruct_X_L_Imp@Internal@Core@Math@Palmtree@@YAPEAU__tag_NUMBER_HEADER@1234@PEAU51234@_K@Z
pdata	ENDS
;	COMDAT pdata
pdata	SEGMENT
$pdata$?PMC_Subtruct_X_X_Imp@Internal@Core@Math@Palmtree@@YAPEAU__tag_NUMBER_HEADER@1234@PEAU51234@0@Z DD imagerel ?PMC_Subtruct_X_X_Imp@Internal@Core@Math@Palmtree@@YAPEAU__tag_NUMBER_HEADER@1234@PEAU51234@0@Z
	DD	imagerel ?PMC_Subtruct_X_X_Imp@Internal@Core@Math@Palmtree@@YAPEAU__tag_NUMBER_HEADER@1234@PEAU51234@0@Z+321
	DD	imagerel $unwind$?PMC_Subtruct_X_X_Imp@Internal@Core@Math@Palmtree@@YAPEAU__tag_NUMBER_HEADER@1234@PEAU51234@0@Z
pdata	ENDS
;	COMDAT ??_R1A@?0A@EA@InternalErrorException@Internal@Core@Math@Palmtree@@8
rdata$r	SEGMENT
??_R1A@?0A@EA@InternalErrorException@Internal@Core@Math@Palmtree@@8 DD imagerel ??_R0?AVInternalErrorException@Internal@Core@Math@Palmtree@@@8 ; Palmtree::Math::Core::Internal::InternalErrorException::`RTTI Base Class Descriptor at (0,-1,0,64)'
	DD	02H
	DD	00H
	DD	0ffffffffH
	DD	00H
	DD	040H
	DD	imagerel ??_R3InternalErrorException@Internal@Core@Math@Palmtree@@8
rdata$r	ENDS
;	COMDAT ??_R2InternalErrorException@Internal@Core@Math@Palmtree@@8
rdata$r	SEGMENT
??_R2InternalErrorException@Internal@Core@Math@Palmtree@@8 DD imagerel ??_R1A@?0A@EA@InternalErrorException@Internal@Core@Math@Palmtree@@8 ; Palmtree::Math::Core::Internal::InternalErrorException::`RTTI Base Class Array'
	DD	imagerel ??_R1A@?0A@EA@Exception@Internal@Core@Math@Palmtree@@8
	DD	imagerel ??_R1A@?0A@EN@exception@std@@8
	ORG $+3
rdata$r	ENDS
;	COMDAT ??_R3InternalErrorException@Internal@Core@Math@Palmtree@@8
rdata$r	SEGMENT
??_R3InternalErrorException@Internal@Core@Math@Palmtree@@8 DD 00H ; Palmtree::Math::Core::Internal::InternalErrorException::`RTTI Class Hierarchy Descriptor'
	DD	00H
	DD	03H
	DD	imagerel ??_R2InternalErrorException@Internal@Core@Math@Palmtree@@8
rdata$r	ENDS
;	COMDAT ??_R4InternalErrorException@Internal@Core@Math@Palmtree@@6B@
rdata$r	SEGMENT
??_R4InternalErrorException@Internal@Core@Math@Palmtree@@6B@ DD 01H ; Palmtree::Math::Core::Internal::InternalErrorException::`RTTI Complete Object Locator'
	DD	00H
	DD	00H
	DD	imagerel ??_R0?AVInternalErrorException@Internal@Core@Math@Palmtree@@@8
	DD	imagerel ??_R3InternalErrorException@Internal@Core@Math@Palmtree@@8
	DD	imagerel ??_R4InternalErrorException@Internal@Core@Math@Palmtree@@6B@
rdata$r	ENDS
;	COMDAT ??_R1A@?0A@EA@OverflowException@Internal@Core@Math@Palmtree@@8
rdata$r	SEGMENT
??_R1A@?0A@EA@OverflowException@Internal@Core@Math@Palmtree@@8 DD imagerel ??_R0?AVOverflowException@Internal@Core@Math@Palmtree@@@8 ; Palmtree::Math::Core::Internal::OverflowException::`RTTI Base Class Descriptor at (0,-1,0,64)'
	DD	02H
	DD	00H
	DD	0ffffffffH
	DD	00H
	DD	040H
	DD	imagerel ??_R3OverflowException@Internal@Core@Math@Palmtree@@8
rdata$r	ENDS
;	COMDAT ??_R2OverflowException@Internal@Core@Math@Palmtree@@8
rdata$r	SEGMENT
??_R2OverflowException@Internal@Core@Math@Palmtree@@8 DD imagerel ??_R1A@?0A@EA@OverflowException@Internal@Core@Math@Palmtree@@8 ; Palmtree::Math::Core::Internal::OverflowException::`RTTI Base Class Array'
	DD	imagerel ??_R1A@?0A@EA@Exception@Internal@Core@Math@Palmtree@@8
	DD	imagerel ??_R1A@?0A@EN@exception@std@@8
	ORG $+3
rdata$r	ENDS
;	COMDAT ??_R3OverflowException@Internal@Core@Math@Palmtree@@8
rdata$r	SEGMENT
??_R3OverflowException@Internal@Core@Math@Palmtree@@8 DD 00H ; Palmtree::Math::Core::Internal::OverflowException::`RTTI Class Hierarchy Descriptor'
	DD	00H
	DD	03H
	DD	imagerel ??_R2OverflowException@Internal@Core@Math@Palmtree@@8
rdata$r	ENDS
;	COMDAT ??_R4OverflowException@Internal@Core@Math@Palmtree@@6B@
rdata$r	SEGMENT
??_R4OverflowException@Internal@Core@Math@Palmtree@@6B@ DD 01H ; Palmtree::Math::Core::Internal::OverflowException::`RTTI Complete Object Locator'
	DD	00H
	DD	00H
	DD	imagerel ??_R0?AVOverflowException@Internal@Core@Math@Palmtree@@@8
	DD	imagerel ??_R3OverflowException@Internal@Core@Math@Palmtree@@8
	DD	imagerel ??_R4OverflowException@Internal@Core@Math@Palmtree@@6B@
rdata$r	ENDS
;	COMDAT ??_R1A@?0A@EA@ArgumentNullException@Internal@Core@Math@Palmtree@@8
rdata$r	SEGMENT
??_R1A@?0A@EA@ArgumentNullException@Internal@Core@Math@Palmtree@@8 DD imagerel ??_R0?AVArgumentNullException@Internal@Core@Math@Palmtree@@@8 ; Palmtree::Math::Core::Internal::ArgumentNullException::`RTTI Base Class Descriptor at (0,-1,0,64)'
	DD	02H
	DD	00H
	DD	0ffffffffH
	DD	00H
	DD	040H
	DD	imagerel ??_R3ArgumentNullException@Internal@Core@Math@Palmtree@@8
rdata$r	ENDS
;	COMDAT ??_R2ArgumentNullException@Internal@Core@Math@Palmtree@@8
rdata$r	SEGMENT
??_R2ArgumentNullException@Internal@Core@Math@Palmtree@@8 DD imagerel ??_R1A@?0A@EA@ArgumentNullException@Internal@Core@Math@Palmtree@@8 ; Palmtree::Math::Core::Internal::ArgumentNullException::`RTTI Base Class Array'
	DD	imagerel ??_R1A@?0A@EA@Exception@Internal@Core@Math@Palmtree@@8
	DD	imagerel ??_R1A@?0A@EN@exception@std@@8
	ORG $+3
rdata$r	ENDS
;	COMDAT ??_R3ArgumentNullException@Internal@Core@Math@Palmtree@@8
rdata$r	SEGMENT
??_R3ArgumentNullException@Internal@Core@Math@Palmtree@@8 DD 00H ; Palmtree::Math::Core::Internal::ArgumentNullException::`RTTI Class Hierarchy Descriptor'
	DD	00H
	DD	03H
	DD	imagerel ??_R2ArgumentNullException@Internal@Core@Math@Palmtree@@8
rdata$r	ENDS
;	COMDAT ??_R4ArgumentNullException@Internal@Core@Math@Palmtree@@6B@
rdata$r	SEGMENT
??_R4ArgumentNullException@Internal@Core@Math@Palmtree@@6B@ DD 01H ; Palmtree::Math::Core::Internal::ArgumentNullException::`RTTI Complete Object Locator'
	DD	00H
	DD	00H
	DD	imagerel ??_R0?AVArgumentNullException@Internal@Core@Math@Palmtree@@@8
	DD	imagerel ??_R3ArgumentNullException@Internal@Core@Math@Palmtree@@8
	DD	imagerel ??_R4ArgumentNullException@Internal@Core@Math@Palmtree@@6B@
rdata$r	ENDS
;	COMDAT ??_R1A@?0A@EN@exception@std@@8
rdata$r	SEGMENT
??_R1A@?0A@EN@exception@std@@8 DD imagerel ??_R0?AVexception@std@@@8 ; std::exception::`RTTI Base Class Descriptor at (0,-1,0,77)'
	DD	00H
	DD	00H
	DD	0ffffffffH
	DD	00H
	DD	04dH
	DD	imagerel ??_R3exception@std@@8
rdata$r	ENDS
;	COMDAT ??_R1A@?0A@EA@Exception@Internal@Core@Math@Palmtree@@8
rdata$r	SEGMENT
??_R1A@?0A@EA@Exception@Internal@Core@Math@Palmtree@@8 DD imagerel ??_R0?AVException@Internal@Core@Math@Palmtree@@@8 ; Palmtree::Math::Core::Internal::Exception::`RTTI Base Class Descriptor at (0,-1,0,64)'
	DD	01H
	DD	00H
	DD	0ffffffffH
	DD	00H
	DD	040H
	DD	imagerel ??_R3Exception@Internal@Core@Math@Palmtree@@8
rdata$r	ENDS
;	COMDAT ??_R2Exception@Internal@Core@Math@Palmtree@@8
rdata$r	SEGMENT
??_R2Exception@Internal@Core@Math@Palmtree@@8 DD imagerel ??_R1A@?0A@EA@Exception@Internal@Core@Math@Palmtree@@8 ; Palmtree::Math::Core::Internal::Exception::`RTTI Base Class Array'
	DD	imagerel ??_R1A@?0A@EN@exception@std@@8
	ORG $+3
rdata$r	ENDS
;	COMDAT ??_R3Exception@Internal@Core@Math@Palmtree@@8
rdata$r	SEGMENT
??_R3Exception@Internal@Core@Math@Palmtree@@8 DD 00H	; Palmtree::Math::Core::Internal::Exception::`RTTI Class Hierarchy Descriptor'
	DD	00H
	DD	02H
	DD	imagerel ??_R2Exception@Internal@Core@Math@Palmtree@@8
rdata$r	ENDS
;	COMDAT ??_R4Exception@Internal@Core@Math@Palmtree@@6B@
rdata$r	SEGMENT
??_R4Exception@Internal@Core@Math@Palmtree@@6B@ DD 01H	; Palmtree::Math::Core::Internal::Exception::`RTTI Complete Object Locator'
	DD	00H
	DD	00H
	DD	imagerel ??_R0?AVException@Internal@Core@Math@Palmtree@@@8
	DD	imagerel ??_R3Exception@Internal@Core@Math@Palmtree@@8
	DD	imagerel ??_R4Exception@Internal@Core@Math@Palmtree@@6B@
rdata$r	ENDS
;	COMDAT ??_R1A@?0A@EA@exception@std@@8
rdata$r	SEGMENT
??_R1A@?0A@EA@exception@std@@8 DD imagerel ??_R0?AVexception@std@@@8 ; std::exception::`RTTI Base Class Descriptor at (0,-1,0,64)'
	DD	00H
	DD	00H
	DD	0ffffffffH
	DD	00H
	DD	040H
	DD	imagerel ??_R3exception@std@@8
rdata$r	ENDS
;	COMDAT ??_R2exception@std@@8
rdata$r	SEGMENT
??_R2exception@std@@8 DD imagerel ??_R1A@?0A@EA@exception@std@@8 ; std::exception::`RTTI Base Class Array'
	ORG $+3
rdata$r	ENDS
;	COMDAT ??_R3exception@std@@8
rdata$r	SEGMENT
??_R3exception@std@@8 DD 00H				; std::exception::`RTTI Class Hierarchy Descriptor'
	DD	00H
	DD	01H
	DD	imagerel ??_R2exception@std@@8
rdata$r	ENDS
;	COMDAT ??_R0?AVexception@std@@@8
data$r	SEGMENT
??_R0?AVexception@std@@@8 DQ FLAT:??_7type_info@@6B@	; std::exception `RTTI Type Descriptor'
	DQ	0000000000000000H
	DB	'.?AVexception@std@@', 00H
data$r	ENDS
;	COMDAT ??_R4exception@std@@6B@
rdata$r	SEGMENT
??_R4exception@std@@6B@ DD 01H				; std::exception::`RTTI Complete Object Locator'
	DD	00H
	DD	00H
	DD	imagerel ??_R0?AVexception@std@@@8
	DD	imagerel ??_R3exception@std@@8
	DD	imagerel ??_R4exception@std@@6B@
rdata$r	ENDS
;	COMDAT ??_C@_13ICFKHAEN@?$AAu@
CONST	SEGMENT
??_C@_13ICFKHAEN@?$AAu@ DB 'u', 00H, 00H, 00H		; `string'
CONST	ENDS
;	COMDAT ??_C@_1CK@ECFIEPAC@?$AA?$BF?$AAp?$AAk?$AAn?$AAu?$AAl?$AAl?$AAp?$AAt?$AAr?$AAL?$AA?$AO?$AAH?$PP?$IJ?$PP?$IM@
CONST	SEGMENT
??_C@_1CK@ECFIEPAC@?$AA?$BF?$AAp?$AAk?$AAn?$AAu?$AAl?$AAl?$AAp?$AAt?$AAr?$AAL?$AA?$AO?$AAH?$PP?$IJ?$PP?$IM@ DB 015H
	DB	'_pek0n', 00H, 'u', 00H, 'l', 00H, 'l', 00H, 'p', 00H, 't', 00H
	DB	'r', 00H, 'L0', 0eH, 'NH0', 089H, '0', 08cH, '0f0D0~0Y0', 02H, '0'
	DB	00H, 00H					; `string'
CONST	ENDS
;	COMDAT ??_C@_13JAOPNPKD@?$AAv@
CONST	SEGMENT
??_C@_13JAOPNPKD@?$AAv@ DB 'v', 00H, 00H, 00H		; `string'
CONST	ENDS
;	COMDAT _CT??_R0?AVArgumentNullException@Internal@Core@Math@Palmtree@@@8??0ArgumentNullException@Internal@Core@Math@Palmtree@@QEAA@AEBV01234@@Z48
xdata$x	SEGMENT
_CT??_R0?AVArgumentNullException@Internal@Core@Math@Palmtree@@@8??0ArgumentNullException@Internal@Core@Math@Palmtree@@QEAA@AEBV01234@@Z48 DD 00H
	DD	imagerel ??_R0?AVArgumentNullException@Internal@Core@Math@Palmtree@@@8
	DD	00H
	DD	0ffffffffH
	ORG $+4
	DD	030H
	DD	imagerel ??0ArgumentNullException@Internal@Core@Math@Palmtree@@QEAA@AEBV01234@@Z
xdata$x	ENDS
;	COMDAT ??_R0?AVArgumentNullException@Internal@Core@Math@Palmtree@@@8
data$r	SEGMENT
??_R0?AVArgumentNullException@Internal@Core@Math@Palmtree@@@8 DQ FLAT:??_7type_info@@6B@ ; Palmtree::Math::Core::Internal::ArgumentNullException `RTTI Type Descriptor'
	DQ	0000000000000000H
	DB	'.?AVArgumentNullException@Internal@Core@Math@Palmtree@@', 00H
data$r	ENDS
;	COMDAT _CTA2?AVArgumentNullException@Internal@Core@Math@Palmtree@@
xdata$x	SEGMENT
_CTA2?AVArgumentNullException@Internal@Core@Math@Palmtree@@ DD 02H
	DD	imagerel _CT??_R0?AVArgumentNullException@Internal@Core@Math@Palmtree@@@8??0ArgumentNullException@Internal@Core@Math@Palmtree@@QEAA@AEBV01234@@Z48
	DD	imagerel _CT??_R0?AVException@Internal@Core@Math@Palmtree@@@8??0Exception@Internal@Core@Math@Palmtree@@QEAA@AEBV01234@@Z48
xdata$x	ENDS
;	COMDAT _TI2?AVArgumentNullException@Internal@Core@Math@Palmtree@@
xdata$x	SEGMENT
_TI2?AVArgumentNullException@Internal@Core@Math@Palmtree@@ DD 00H
	DD	imagerel ??1ArgumentNullException@Internal@Core@Math@Palmtree@@UEAA@XZ
	DD	00H
	DD	imagerel _CTA2?AVArgumentNullException@Internal@Core@Math@Palmtree@@
xdata$x	ENDS
;	COMDAT ??_C@_1CK@EKOAHHOC@?$AA?$BL?$PP?$JH?$AAk?$PP?$II?$PP?$IK?$PP?$KK?$PP?$PM?$PP?P?$PP?$PM?$PP?U?$PP?m?$PP?$PM?$AAL?$AAz?$AA?$BP@
CONST	SEGMENT
??_C@_1CK@EKOAHHOC@?$AA?$BL?$PP?$JH?$AAk?$PP?$II?$PP?$IK?$PP?$KK?$PP?$PM?$PP?P?$PP?$PM?$PP?U?$PP?m?$PP?$PM?$AAL?$AAz?$AA?$BP@ DB 01bH
	DB	'n', 097H, '{k0', 088H, '0', 08aH, '0', 0aaH, '0', 0fcH, '0', 0d0H
	DB	'0', 0fcH, '0', 0d5H, '0', 0edH, '0', 0fcH, '0L0zv', 01fH, 'uW'
	DB	'0~0W0_0', 02H, '0', 00H, 00H		; `string'
CONST	ENDS
;	COMDAT _CT??_R0?AVOverflowException@Internal@Core@Math@Palmtree@@@8??0OverflowException@Internal@Core@Math@Palmtree@@QEAA@AEBV01234@@Z48
xdata$x	SEGMENT
_CT??_R0?AVOverflowException@Internal@Core@Math@Palmtree@@@8??0OverflowException@Internal@Core@Math@Palmtree@@QEAA@AEBV01234@@Z48 DD 00H
	DD	imagerel ??_R0?AVOverflowException@Internal@Core@Math@Palmtree@@@8
	DD	00H
	DD	0ffffffffH
	ORG $+4
	DD	030H
	DD	imagerel ??0OverflowException@Internal@Core@Math@Palmtree@@QEAA@AEBV01234@@Z
xdata$x	ENDS
;	COMDAT ??_R0?AVOverflowException@Internal@Core@Math@Palmtree@@@8
data$r	SEGMENT
??_R0?AVOverflowException@Internal@Core@Math@Palmtree@@@8 DQ FLAT:??_7type_info@@6B@ ; Palmtree::Math::Core::Internal::OverflowException `RTTI Type Descriptor'
	DQ	0000000000000000H
	DB	'.?AVOverflowException@Internal@Core@Math@Palmtree@@', 00H
data$r	ENDS
;	COMDAT _CTA2?AVOverflowException@Internal@Core@Math@Palmtree@@
xdata$x	SEGMENT
_CTA2?AVOverflowException@Internal@Core@Math@Palmtree@@ DD 02H
	DD	imagerel _CT??_R0?AVOverflowException@Internal@Core@Math@Palmtree@@@8??0OverflowException@Internal@Core@Math@Palmtree@@QEAA@AEBV01234@@Z48
	DD	imagerel _CT??_R0?AVException@Internal@Core@Math@Palmtree@@@8??0Exception@Internal@Core@Math@Palmtree@@QEAA@AEBV01234@@Z48
xdata$x	ENDS
;	COMDAT _TI2?AVOverflowException@Internal@Core@Math@Palmtree@@
xdata$x	SEGMENT
_TI2?AVOverflowException@Internal@Core@Math@Palmtree@@ DD 00H
	DD	imagerel ??1OverflowException@Internal@Core@Math@Palmtree@@UEAA@XZ
	DD	00H
	DD	imagerel _CTA2?AVOverflowException@Internal@Core@Math@Palmtree@@
xdata$x	ENDS
;	COMDAT _CT??_R0?AVException@Internal@Core@Math@Palmtree@@@8??0Exception@Internal@Core@Math@Palmtree@@QEAA@AEBV01234@@Z48
xdata$x	SEGMENT
_CT??_R0?AVException@Internal@Core@Math@Palmtree@@@8??0Exception@Internal@Core@Math@Palmtree@@QEAA@AEBV01234@@Z48 DD 00H
	DD	imagerel ??_R0?AVException@Internal@Core@Math@Palmtree@@@8
	DD	00H
	DD	0ffffffffH
	ORG $+4
	DD	030H
	DD	imagerel ??0Exception@Internal@Core@Math@Palmtree@@QEAA@AEBV01234@@Z
xdata$x	ENDS
;	COMDAT ??_R0?AVException@Internal@Core@Math@Palmtree@@@8
data$r	SEGMENT
??_R0?AVException@Internal@Core@Math@Palmtree@@@8 DQ FLAT:??_7type_info@@6B@ ; Palmtree::Math::Core::Internal::Exception `RTTI Type Descriptor'
	DQ	0000000000000000H
	DB	'.?AVException@Internal@Core@Math@Palmtree@@', 00H
data$r	ENDS
;	COMDAT ??_R0?AVInternalErrorException@Internal@Core@Math@Palmtree@@@8
data$r	SEGMENT
??_R0?AVInternalErrorException@Internal@Core@Math@Palmtree@@@8 DQ FLAT:??_7type_info@@6B@ ; Palmtree::Math::Core::Internal::InternalErrorException `RTTI Type Descriptor'
	DQ	0000000000000000H
	DB	'.?AVInternalErrorException@Internal@Core@Math@Palmtree@@'
	DB	00H
data$r	ENDS
;	COMDAT ??_7InternalErrorException@Internal@Core@Math@Palmtree@@6B@
CONST	SEGMENT
??_7InternalErrorException@Internal@Core@Math@Palmtree@@6B@ DQ FLAT:??_R4InternalErrorException@Internal@Core@Math@Palmtree@@6B@ ; Palmtree::Math::Core::Internal::InternalErrorException::`vftable'
	DQ	FLAT:??_EInternalErrorException@Internal@Core@Math@Palmtree@@UEAAPEAXI@Z
	DQ	FLAT:?what@exception@std@@UEBAPEBDXZ
CONST	ENDS
;	COMDAT ??_7OverflowException@Internal@Core@Math@Palmtree@@6B@
CONST	SEGMENT
??_7OverflowException@Internal@Core@Math@Palmtree@@6B@ DQ FLAT:??_R4OverflowException@Internal@Core@Math@Palmtree@@6B@ ; Palmtree::Math::Core::Internal::OverflowException::`vftable'
	DQ	FLAT:??_EOverflowException@Internal@Core@Math@Palmtree@@UEAAPEAXI@Z
	DQ	FLAT:?what@exception@std@@UEBAPEBDXZ
CONST	ENDS
;	COMDAT ??_7ArgumentNullException@Internal@Core@Math@Palmtree@@6B@
CONST	SEGMENT
??_7ArgumentNullException@Internal@Core@Math@Palmtree@@6B@ DQ FLAT:??_R4ArgumentNullException@Internal@Core@Math@Palmtree@@6B@ ; Palmtree::Math::Core::Internal::ArgumentNullException::`vftable'
	DQ	FLAT:??_EArgumentNullException@Internal@Core@Math@Palmtree@@UEAAPEAXI@Z
	DQ	FLAT:?what@exception@std@@UEBAPEBDXZ
CONST	ENDS
;	COMDAT ??_7Exception@Internal@Core@Math@Palmtree@@6B@
CONST	SEGMENT
??_7Exception@Internal@Core@Math@Palmtree@@6B@ DQ FLAT:??_R4Exception@Internal@Core@Math@Palmtree@@6B@ ; Palmtree::Math::Core::Internal::Exception::`vftable'
	DQ	FLAT:??_EException@Internal@Core@Math@Palmtree@@UEAAPEAXI@Z
	DQ	FLAT:?what@exception@std@@UEBAPEBDXZ
CONST	ENDS
;	COMDAT ??_C@_0BC@EOODALEL@Unknown?5exception@
CONST	SEGMENT
??_C@_0BC@EOODALEL@Unknown?5exception@ DB 'Unknown exception', 00H ; `string'
CONST	ENDS
;	COMDAT ??_7exception@std@@6B@
CONST	SEGMENT
??_7exception@std@@6B@ DQ FLAT:??_R4exception@std@@6B@	; std::exception::`vftable'
	DQ	FLAT:??_Eexception@std@@UEAAPEAXI@Z
	DQ	FLAT:?what@exception@std@@UEBAPEBDXZ
CONST	ENDS
;	COMDAT xdata
xdata	SEGMENT
$ip2state$?PMC_Subtruct_X_X_Imp@Internal@Core@Math@Palmtree@@YAPEAU__tag_NUMBER_HEADER@1234@PEAU51234@0@Z DD imagerel ?PMC_Subtruct_X_X_Imp@Internal@Core@Math@Palmtree@@YAPEAU__tag_NUMBER_HEADER@1234@PEAU51234@0@Z
	DD	0ffffffffH
	DD	imagerel ?PMC_Subtruct_X_X_Imp@Internal@Core@Math@Palmtree@@YAPEAU__tag_NUMBER_HEADER@1234@PEAU51234@0@Z+88
	DD	00H
	DD	imagerel ?PMC_Subtruct_X_X_Imp@Internal@Core@Math@Palmtree@@YAPEAU__tag_NUMBER_HEADER@1234@PEAU51234@0@Z+217
	DD	0ffffffffH
	DD	imagerel ?PMC_Subtruct_X_X_Imp@Internal@Core@Math@Palmtree@@YAPEAU__tag_NUMBER_HEADER@1234@PEAU51234@0@Z+251
	DD	00H
	DD	imagerel ?PMC_Subtruct_X_X_Imp@Internal@Core@Math@Palmtree@@YAPEAU__tag_NUMBER_HEADER@1234@PEAU51234@0@Z+286
	DD	0ffffffffH
xdata	ENDS
;	COMDAT xdata
xdata	SEGMENT
$stateUnwindMap$?PMC_Subtruct_X_X_Imp@Internal@Core@Math@Palmtree@@YAPEAU__tag_NUMBER_HEADER@1234@PEAU51234@0@Z DD 0ffffffffH
	DD	imagerel ?dtor$0@?0??PMC_Subtruct_X_X_Imp@Internal@Core@Math@Palmtree@@YAPEAU__tag_NUMBER_HEADER@1234@PEAU51234@0@Z@4HA
xdata	ENDS
;	COMDAT CONST
CONST	SEGMENT
$cppxdata$?PMC_Subtruct_X_X_Imp@Internal@Core@Math@Palmtree@@YAPEAU__tag_NUMBER_HEADER@1234@PEAU51234@0@Z DD 019930522H
	DD	01H
	DD	imagerel $stateUnwindMap$?PMC_Subtruct_X_X_Imp@Internal@Core@Math@Palmtree@@YAPEAU__tag_NUMBER_HEADER@1234@PEAU51234@0@Z
	DD	00H
	DD	00H
	DD	05H
	DD	imagerel $ip2state$?PMC_Subtruct_X_X_Imp@Internal@Core@Math@Palmtree@@YAPEAU__tag_NUMBER_HEADER@1234@PEAU51234@0@Z
	DD	030H
	DD	00H
	DD	00H
CONST	ENDS
;	COMDAT xdata
xdata	SEGMENT
$unwind$?PMC_Subtruct_X_X_Imp@Internal@Core@Math@Palmtree@@YAPEAU__tag_NUMBER_HEADER@1234@PEAU51234@0@Z DD 071b11H
	DD	017641bH
	DD	0163417H
	DD	014010bH
	DD	07004H
	DD	imagerel __CxxFrameHandler3
	DD	imagerel $cppxdata$?PMC_Subtruct_X_X_Imp@Internal@Core@Math@Palmtree@@YAPEAU__tag_NUMBER_HEADER@1234@PEAU51234@0@Z
xdata	ENDS
;	COMDAT xdata
xdata	SEGMENT
$ip2state$?PMC_Subtruct_X_L_Imp@Internal@Core@Math@Palmtree@@YAPEAU__tag_NUMBER_HEADER@1234@PEAU51234@_K@Z DD imagerel ?PMC_Subtruct_X_L_Imp@Internal@Core@Math@Palmtree@@YAPEAU__tag_NUMBER_HEADER@1234@PEAU51234@_K@Z
	DD	0ffffffffH
	DD	imagerel ?PMC_Subtruct_X_L_Imp@Internal@Core@Math@Palmtree@@YAPEAU__tag_NUMBER_HEADER@1234@PEAU51234@_K@Z+90
	DD	02H
	DD	imagerel ?PMC_Subtruct_X_L_Imp@Internal@Core@Math@Palmtree@@YAPEAU__tag_NUMBER_HEADER@1234@PEAU51234@_K@Z+248
	DD	0ffffffffH
	DD	imagerel ?PMC_Subtruct_X_L_Imp@Internal@Core@Math@Palmtree@@YAPEAU__tag_NUMBER_HEADER@1234@PEAU51234@_K@Z+286
	DD	02H
	DD	imagerel ?PMC_Subtruct_X_L_Imp@Internal@Core@Math@Palmtree@@YAPEAU__tag_NUMBER_HEADER@1234@PEAU51234@_K@Z+321
	DD	0ffffffffH
xdata	ENDS
;	COMDAT xdata
xdata	SEGMENT
$stateUnwindMap$?PMC_Subtruct_X_L_Imp@Internal@Core@Math@Palmtree@@YAPEAU__tag_NUMBER_HEADER@1234@PEAU51234@_K@Z DD 0ffffffffH
	DD	00H
	DD	0ffffffffH
	DD	00H
	DD	0ffffffffH
	DD	imagerel ?dtor$2@?0??PMC_Subtruct_X_L_Imp@Internal@Core@Math@Palmtree@@YAPEAU__tag_NUMBER_HEADER@1234@PEAU51234@_K@Z@4HA
xdata	ENDS
;	COMDAT CONST
CONST	SEGMENT
$cppxdata$?PMC_Subtruct_X_L_Imp@Internal@Core@Math@Palmtree@@YAPEAU__tag_NUMBER_HEADER@1234@PEAU51234@_K@Z DD 019930522H
	DD	03H
	DD	imagerel $stateUnwindMap$?PMC_Subtruct_X_L_Imp@Internal@Core@Math@Palmtree@@YAPEAU__tag_NUMBER_HEADER@1234@PEAU51234@_K@Z
	DD	00H
	DD	00H
	DD	05H
	DD	imagerel $ip2state$?PMC_Subtruct_X_L_Imp@Internal@Core@Math@Palmtree@@YAPEAU__tag_NUMBER_HEADER@1234@PEAU51234@_K@Z
	DD	030H
	DD	00H
	DD	00H
CONST	ENDS
;	COMDAT xdata
xdata	SEGMENT
$unwind$?PMC_Subtruct_X_L_Imp@Internal@Core@Math@Palmtree@@YAPEAU__tag_NUMBER_HEADER@1234@PEAU51234@_K@Z DD 091f11H
	DD	018641fH
	DD	017541bH
	DD	0163417H
	DD	014010bH
	DD	07004H
	DD	imagerel __CxxFrameHandler3
	DD	imagerel $cppxdata$?PMC_Subtruct_X_L_Imp@Internal@Core@Math@Palmtree@@YAPEAU__tag_NUMBER_HEADER@1234@PEAU51234@_K@Z
xdata	ENDS
;	COMDAT xdata
xdata	SEGMENT
$ip2state$?PMC_Subtruct_X_I_Imp@Internal@Core@Math@Palmtree@@YAPEAU__tag_NUMBER_HEADER@1234@PEAU51234@I@Z DD imagerel ?PMC_Subtruct_X_I_Imp@Internal@Core@Math@Palmtree@@YAPEAU__tag_NUMBER_HEADER@1234@PEAU51234@I@Z
	DD	0ffffffffH
	DD	imagerel ?PMC_Subtruct_X_I_Imp@Internal@Core@Math@Palmtree@@YAPEAU__tag_NUMBER_HEADER@1234@PEAU51234@I@Z+118
	DD	00H
	DD	imagerel ?PMC_Subtruct_X_I_Imp@Internal@Core@Math@Palmtree@@YAPEAU__tag_NUMBER_HEADER@1234@PEAU51234@I@Z+244
	DD	0ffffffffH
xdata	ENDS
;	COMDAT xdata
xdata	SEGMENT
$stateUnwindMap$?PMC_Subtruct_X_I_Imp@Internal@Core@Math@Palmtree@@YAPEAU__tag_NUMBER_HEADER@1234@PEAU51234@I@Z DD 0ffffffffH
	DD	imagerel ?dtor$0@?0??PMC_Subtruct_X_I_Imp@Internal@Core@Math@Palmtree@@YAPEAU__tag_NUMBER_HEADER@1234@PEAU51234@I@Z@4HA
xdata	ENDS
;	COMDAT CONST
CONST	SEGMENT
$cppxdata$?PMC_Subtruct_X_I_Imp@Internal@Core@Math@Palmtree@@YAPEAU__tag_NUMBER_HEADER@1234@PEAU51234@I@Z DD 019930522H
	DD	01H
	DD	imagerel $stateUnwindMap$?PMC_Subtruct_X_I_Imp@Internal@Core@Math@Palmtree@@YAPEAU__tag_NUMBER_HEADER@1234@PEAU51234@I@Z
	DD	00H
	DD	00H
	DD	03H
	DD	imagerel $ip2state$?PMC_Subtruct_X_I_Imp@Internal@Core@Math@Palmtree@@YAPEAU__tag_NUMBER_HEADER@1234@PEAU51234@I@Z
	DD	030H
	DD	00H
	DD	00H
CONST	ENDS
;	COMDAT xdata
xdata	SEGMENT
$unwind$?PMC_Subtruct_X_I_Imp@Internal@Core@Math@Palmtree@@YAPEAU__tag_NUMBER_HEADER@1234@PEAU51234@I@Z DD 081c11H
	DD	012641cH
	DD	0115418H
	DD	0103414H
	DD	07004d208H
	DD	imagerel __CxxFrameHandler3
	DD	imagerel $cppxdata$?PMC_Subtruct_X_I_Imp@Internal@Core@Math@Palmtree@@YAPEAU__tag_NUMBER_HEADER@1234@PEAU51234@I@Z
xdata	ENDS
;	COMDAT xdata
xdata	SEGMENT
$unwind$?Subtruct_X_2W@Internal@Core@Math@Palmtree@@YAXPEA_K_K1101@Z DD 010401H
	DD	0c204H
xdata	ENDS
;	COMDAT xdata
xdata	SEGMENT
$unwind$?DoBorrow@Internal@Core@Math@Palmtree@@YAXDPEA_K_K01@Z DD 010401H
	DD	0a204H
xdata	ENDS
;	COMDAT xdata
xdata	SEGMENT
$ip2state$?PMC_Subtruct_X_X@Internal@Core@Math@Palmtree@@YAPEAU__tag_PMC_HANDLE_UINT@1234@PEAU51234@0@Z DD imagerel ?PMC_Subtruct_X_X@Internal@Core@Math@Palmtree@@YAPEAU__tag_PMC_HANDLE_UINT@1234@PEAU51234@0@Z
	DD	0ffffffffH
	DD	imagerel ?PMC_Subtruct_X_X@Internal@Core@Math@Palmtree@@YAPEAU__tag_PMC_HANDLE_UINT@1234@PEAU51234@0@Z+75
	DD	00H
	DD	imagerel ?PMC_Subtruct_X_X@Internal@Core@Math@Palmtree@@YAPEAU__tag_PMC_HANDLE_UINT@1234@PEAU51234@0@Z+136
	DD	01H
	DD	imagerel ?PMC_Subtruct_X_X@Internal@Core@Math@Palmtree@@YAPEAU__tag_PMC_HANDLE_UINT@1234@PEAU51234@0@Z+265
	DD	00H
	DD	imagerel ?PMC_Subtruct_X_X@Internal@Core@Math@Palmtree@@YAPEAU__tag_PMC_HANDLE_UINT@1234@PEAU51234@0@Z+302
	DD	0ffffffffH
	DD	imagerel ?PMC_Subtruct_X_X@Internal@Core@Math@Palmtree@@YAPEAU__tag_PMC_HANDLE_UINT@1234@PEAU51234@0@Z+336
	DD	01H
	DD	imagerel ?PMC_Subtruct_X_X@Internal@Core@Math@Palmtree@@YAPEAU__tag_PMC_HANDLE_UINT@1234@PEAU51234@0@Z+377
	DD	0ffffffffH
	DD	imagerel ?PMC_Subtruct_X_X@Internal@Core@Math@Palmtree@@YAPEAU__tag_PMC_HANDLE_UINT@1234@PEAU51234@0@Z+461
	DD	00H
xdata	ENDS
;	COMDAT xdata
xdata	SEGMENT
$stateUnwindMap$?PMC_Subtruct_X_X@Internal@Core@Math@Palmtree@@YAPEAU__tag_PMC_HANDLE_UINT@1234@PEAU51234@0@Z DD 0ffffffffH
	DD	imagerel ?dtor$0@?0??PMC_Subtruct_X_X@Internal@Core@Math@Palmtree@@YAPEAU__tag_PMC_HANDLE_UINT@1234@PEAU51234@0@Z@4HA
	DD	00H
	DD	imagerel ?dtor$1@?0??PMC_Subtruct_X_X@Internal@Core@Math@Palmtree@@YAPEAU__tag_PMC_HANDLE_UINT@1234@PEAU51234@0@Z@4HA
xdata	ENDS
;	COMDAT CONST
CONST	SEGMENT
$cppxdata$?PMC_Subtruct_X_X@Internal@Core@Math@Palmtree@@YAPEAU__tag_PMC_HANDLE_UINT@1234@PEAU51234@0@Z DD 019930522H
	DD	02H
	DD	imagerel $stateUnwindMap$?PMC_Subtruct_X_X@Internal@Core@Math@Palmtree@@YAPEAU__tag_PMC_HANDLE_UINT@1234@PEAU51234@0@Z
	DD	00H
	DD	00H
	DD	08H
	DD	imagerel $ip2state$?PMC_Subtruct_X_X@Internal@Core@Math@Palmtree@@YAPEAU__tag_PMC_HANDLE_UINT@1234@PEAU51234@0@Z
	DD	060H
	DD	00H
	DD	00H
CONST	ENDS
;	COMDAT xdata
xdata	SEGMENT
$unwind$?PMC_Subtruct_X_X@Internal@Core@Math@Palmtree@@YAPEAU__tag_PMC_HANDLE_UINT@1234@PEAU51234@0@Z DD 071b11H
	DD	01b641bH
	DD	01a3417H
	DD	018010bH
	DD	07004H
	DD	imagerel __CxxFrameHandler3
	DD	imagerel $cppxdata$?PMC_Subtruct_X_X@Internal@Core@Math@Palmtree@@YAPEAU__tag_PMC_HANDLE_UINT@1234@PEAU51234@0@Z
xdata	ENDS
;	COMDAT xdata
xdata	SEGMENT
$ip2state$?PMC_Subtruct_X_L@Internal@Core@Math@Palmtree@@YAPEAU__tag_PMC_HANDLE_UINT@1234@PEAU51234@_K@Z DD imagerel ?PMC_Subtruct_X_L@Internal@Core@Math@Palmtree@@YAPEAU__tag_PMC_HANDLE_UINT@1234@PEAU51234@_K@Z
	DD	0ffffffffH
	DD	imagerel ?PMC_Subtruct_X_L@Internal@Core@Math@Palmtree@@YAPEAU__tag_PMC_HANDLE_UINT@1234@PEAU51234@_K@Z+58
	DD	00H
	DD	imagerel ?PMC_Subtruct_X_L@Internal@Core@Math@Palmtree@@YAPEAU__tag_PMC_HANDLE_UINT@1234@PEAU51234@_K@Z+117
	DD	03H
	DD	imagerel ?PMC_Subtruct_X_L@Internal@Core@Math@Palmtree@@YAPEAU__tag_PMC_HANDLE_UINT@1234@PEAU51234@_K@Z+275
	DD	00H
	DD	imagerel ?PMC_Subtruct_X_L@Internal@Core@Math@Palmtree@@YAPEAU__tag_PMC_HANDLE_UINT@1234@PEAU51234@_K@Z+312
	DD	0ffffffffH
	DD	imagerel ?PMC_Subtruct_X_L@Internal@Core@Math@Palmtree@@YAPEAU__tag_PMC_HANDLE_UINT@1234@PEAU51234@_K@Z+346
	DD	03H
	DD	imagerel ?PMC_Subtruct_X_L@Internal@Core@Math@Palmtree@@YAPEAU__tag_PMC_HANDLE_UINT@1234@PEAU51234@_K@Z+387
	DD	0ffffffffH
	DD	imagerel ?PMC_Subtruct_X_L@Internal@Core@Math@Palmtree@@YAPEAU__tag_PMC_HANDLE_UINT@1234@PEAU51234@_K@Z+429
	DD	00H
xdata	ENDS
;	COMDAT xdata
xdata	SEGMENT
$stateUnwindMap$?PMC_Subtruct_X_L@Internal@Core@Math@Palmtree@@YAPEAU__tag_PMC_HANDLE_UINT@1234@PEAU51234@_K@Z DD 0ffffffffH
	DD	imagerel ?dtor$0@?0??PMC_Subtruct_X_L@Internal@Core@Math@Palmtree@@YAPEAU__tag_PMC_HANDLE_UINT@1234@PEAU51234@_K@Z@4HA
	DD	00H
	DD	00H
	DD	00H
	DD	00H
	DD	00H
	DD	imagerel ?dtor$3@?0??PMC_Subtruct_X_L@Internal@Core@Math@Palmtree@@YAPEAU__tag_PMC_HANDLE_UINT@1234@PEAU51234@_K@Z@4HA
xdata	ENDS
;	COMDAT CONST
CONST	SEGMENT
$cppxdata$?PMC_Subtruct_X_L@Internal@Core@Math@Palmtree@@YAPEAU__tag_PMC_HANDLE_UINT@1234@PEAU51234@_K@Z DD 019930522H
	DD	04H
	DD	imagerel $stateUnwindMap$?PMC_Subtruct_X_L@Internal@Core@Math@Palmtree@@YAPEAU__tag_PMC_HANDLE_UINT@1234@PEAU51234@_K@Z
	DD	00H
	DD	00H
	DD	08H
	DD	imagerel $ip2state$?PMC_Subtruct_X_L@Internal@Core@Math@Palmtree@@YAPEAU__tag_PMC_HANDLE_UINT@1234@PEAU51234@_K@Z
	DD	060H
	DD	00H
	DD	00H
CONST	ENDS
;	COMDAT xdata
xdata	SEGMENT
$unwind$?PMC_Subtruct_X_L@Internal@Core@Math@Palmtree@@YAPEAU__tag_PMC_HANDLE_UINT@1234@PEAU51234@_K@Z DD 071b11H
	DD	01b641bH
	DD	01a3417H
	DD	018010bH
	DD	07004H
	DD	imagerel __CxxFrameHandler3
	DD	imagerel $cppxdata$?PMC_Subtruct_X_L@Internal@Core@Math@Palmtree@@YAPEAU__tag_PMC_HANDLE_UINT@1234@PEAU51234@_K@Z
xdata	ENDS
;	COMDAT xdata
xdata	SEGMENT
$ip2state$?PMC_Subtruct_X_I@Internal@Core@Math@Palmtree@@YAPEAU__tag_PMC_HANDLE_UINT@1234@PEAU51234@I@Z DD imagerel ?PMC_Subtruct_X_I@Internal@Core@Math@Palmtree@@YAPEAU__tag_PMC_HANDLE_UINT@1234@PEAU51234@I@Z
	DD	0ffffffffH
	DD	imagerel ?PMC_Subtruct_X_I@Internal@Core@Math@Palmtree@@YAPEAU__tag_PMC_HANDLE_UINT@1234@PEAU51234@I@Z+61
	DD	00H
	DD	imagerel ?PMC_Subtruct_X_I@Internal@Core@Math@Palmtree@@YAPEAU__tag_PMC_HANDLE_UINT@1234@PEAU51234@I@Z+152
	DD	01H
	DD	imagerel ?PMC_Subtruct_X_I@Internal@Core@Math@Palmtree@@YAPEAU__tag_PMC_HANDLE_UINT@1234@PEAU51234@I@Z+278
	DD	00H
	DD	imagerel ?PMC_Subtruct_X_I@Internal@Core@Math@Palmtree@@YAPEAU__tag_PMC_HANDLE_UINT@1234@PEAU51234@I@Z+315
	DD	0ffffffffH
	DD	imagerel ?PMC_Subtruct_X_I@Internal@Core@Math@Palmtree@@YAPEAU__tag_PMC_HANDLE_UINT@1234@PEAU51234@I@Z+353
	DD	00H
	DD	imagerel ?PMC_Subtruct_X_I@Internal@Core@Math@Palmtree@@YAPEAU__tag_PMC_HANDLE_UINT@1234@PEAU51234@I@Z+388
	DD	0ffffffffH
	DD	imagerel ?PMC_Subtruct_X_I@Internal@Core@Math@Palmtree@@YAPEAU__tag_PMC_HANDLE_UINT@1234@PEAU51234@I@Z+430
	DD	00H
xdata	ENDS
;	COMDAT xdata
xdata	SEGMENT
$stateUnwindMap$?PMC_Subtruct_X_I@Internal@Core@Math@Palmtree@@YAPEAU__tag_PMC_HANDLE_UINT@1234@PEAU51234@I@Z DD 0ffffffffH
	DD	imagerel ?dtor$0@?0??PMC_Subtruct_X_I@Internal@Core@Math@Palmtree@@YAPEAU__tag_PMC_HANDLE_UINT@1234@PEAU51234@I@Z@4HA
	DD	00H
	DD	imagerel ?dtor$1@?0??PMC_Subtruct_X_I@Internal@Core@Math@Palmtree@@YAPEAU__tag_PMC_HANDLE_UINT@1234@PEAU51234@I@Z@4HA
xdata	ENDS
;	COMDAT CONST
CONST	SEGMENT
$cppxdata$?PMC_Subtruct_X_I@Internal@Core@Math@Palmtree@@YAPEAU__tag_PMC_HANDLE_UINT@1234@PEAU51234@I@Z DD 019930522H
	DD	02H
	DD	imagerel $stateUnwindMap$?PMC_Subtruct_X_I@Internal@Core@Math@Palmtree@@YAPEAU__tag_PMC_HANDLE_UINT@1234@PEAU51234@I@Z
	DD	00H
	DD	00H
	DD	08H
	DD	imagerel $ip2state$?PMC_Subtruct_X_I@Internal@Core@Math@Palmtree@@YAPEAU__tag_PMC_HANDLE_UINT@1234@PEAU51234@I@Z
	DD	030H
	DD	00H
	DD	00H
CONST	ENDS
;	COMDAT xdata
xdata	SEGMENT
$unwind$?PMC_Subtruct_X_I@Internal@Core@Math@Palmtree@@YAPEAU__tag_PMC_HANDLE_UINT@1234@PEAU51234@I@Z DD 091f11H
	DD	016641fH
	DD	015541bH
	DD	0143417H
	DD	012010bH
	DD	07004H
	DD	imagerel __CxxFrameHandler3
	DD	imagerel $cppxdata$?PMC_Subtruct_X_I@Internal@Core@Math@Palmtree@@YAPEAU__tag_PMC_HANDLE_UINT@1234@PEAU51234@I@Z
xdata	ENDS
;	COMDAT xdata
xdata	SEGMENT
$unwind$?PMC_Subtruct_L_X@Internal@Core@Math@Palmtree@@YA_K_KPEAU__tag_PMC_HANDLE_UINT@1234@@Z DD 040a01H
	DD	0c340aH
	DD	07006920aH
xdata	ENDS
;	COMDAT xdata
xdata	SEGMENT
$unwind$?PMC_Subtruct_I_X@Internal@Core@Math@Palmtree@@YAIIPEAU__tag_PMC_HANDLE_UINT@1234@@Z DD 040a01H
	DD	0c340aH
	DD	07006920aH
xdata	ENDS
;	COMDAT xdata
xdata	SEGMENT
$unwind$?Subtruct_Imp@Internal@Core@Math@Palmtree@@YAXPEA_K_K0101@Z DD 020601H
	DD	030025206H
xdata	ENDS
;	COMDAT xdata
xdata	SEGMENT
$ip2state$??_GInternalErrorException@Internal@Core@Math@Palmtree@@UEAAPEAXI@Z DD imagerel ??_GInternalErrorException@Internal@Core@Math@Palmtree@@UEAAPEAXI@Z
	DD	0ffffffffH
xdata	ENDS
;	COMDAT xdata
xdata	SEGMENT
$stateUnwindMap$??_GInternalErrorException@Internal@Core@Math@Palmtree@@UEAAPEAXI@Z DD 0ffffffffH
	DD	imagerel ?dtor$0@?0???_GInternalErrorException@Internal@Core@Math@Palmtree@@UEAAPEAXI@Z@4HA
	DD	0ffffffffH
	DD	imagerel ?dtor$1@?0???_GInternalErrorException@Internal@Core@Math@Palmtree@@UEAAPEAXI@Z@4HA
xdata	ENDS
;	COMDAT CONST
CONST	SEGMENT
$cppxdata$??_GInternalErrorException@Internal@Core@Math@Palmtree@@UEAAPEAXI@Z DD 019930522H
	DD	02H
	DD	imagerel $stateUnwindMap$??_GInternalErrorException@Internal@Core@Math@Palmtree@@UEAAPEAXI@Z
	DD	00H
	DD	00H
	DD	01H
	DD	imagerel $ip2state$??_GInternalErrorException@Internal@Core@Math@Palmtree@@UEAAPEAXI@Z
	DD	020H
	DD	00H
	DD	04H
CONST	ENDS
;	COMDAT xdata
xdata	SEGMENT
$unwind$??_GInternalErrorException@Internal@Core@Math@Palmtree@@UEAAPEAXI@Z DD 041819H
	DD	093418H
	DD	07006520aH
	DD	imagerel __CxxFrameHandler3
	DD	imagerel $cppxdata$??_GInternalErrorException@Internal@Core@Math@Palmtree@@UEAAPEAXI@Z
xdata	ENDS
;	COMDAT xdata
xdata	SEGMENT
$ip2state$??1InternalErrorException@Internal@Core@Math@Palmtree@@UEAA@XZ DD imagerel ??1InternalErrorException@Internal@Core@Math@Palmtree@@UEAA@XZ
	DD	0ffffffffH
xdata	ENDS
;	COMDAT xdata
xdata	SEGMENT
$stateUnwindMap$??1InternalErrorException@Internal@Core@Math@Palmtree@@UEAA@XZ DD 0ffffffffH
	DD	imagerel ?dtor$0@?0???1InternalErrorException@Internal@Core@Math@Palmtree@@UEAA@XZ@4HA
	DD	0ffffffffH
	DD	imagerel ?dtor$1@?0???1InternalErrorException@Internal@Core@Math@Palmtree@@UEAA@XZ@4HA
xdata	ENDS
;	COMDAT CONST
CONST	SEGMENT
$cppxdata$??1InternalErrorException@Internal@Core@Math@Palmtree@@UEAA@XZ DD 019930522H
	DD	02H
	DD	imagerel $stateUnwindMap$??1InternalErrorException@Internal@Core@Math@Palmtree@@UEAA@XZ
	DD	00H
	DD	00H
	DD	01H
	DD	imagerel $ip2state$??1InternalErrorException@Internal@Core@Math@Palmtree@@UEAA@XZ
	DD	020H
	DD	00H
	DD	04H
CONST	ENDS
;	COMDAT xdata
xdata	SEGMENT
$unwind$??1InternalErrorException@Internal@Core@Math@Palmtree@@UEAA@XZ DD 011219H
	DD	06209H
	DD	imagerel __CxxFrameHandler3
	DD	imagerel $cppxdata$??1InternalErrorException@Internal@Core@Math@Palmtree@@UEAA@XZ
xdata	ENDS
;	COMDAT xdata
xdata	SEGMENT
$ip2state$??0InternalErrorException@Internal@Core@Math@Palmtree@@QEAA@PEB_W0@Z DD imagerel ??0InternalErrorException@Internal@Core@Math@Palmtree@@QEAA@PEB_W0@Z
	DD	0ffffffffH
	DD	imagerel ??0InternalErrorException@Internal@Core@Math@Palmtree@@QEAA@PEB_W0@Z+37
	DD	00H
	DD	imagerel ??0InternalErrorException@Internal@Core@Math@Palmtree@@QEAA@PEB_W0@Z+62
	DD	01H
	DD	imagerel ??0InternalErrorException@Internal@Core@Math@Palmtree@@QEAA@PEB_W0@Z+72
	DD	0ffffffffH
xdata	ENDS
;	COMDAT xdata
xdata	SEGMENT
$stateUnwindMap$??0InternalErrorException@Internal@Core@Math@Palmtree@@QEAA@PEB_W0@Z DD 0ffffffffH
	DD	imagerel ?dtor$1@?0???0InternalErrorException@Internal@Core@Math@Palmtree@@QEAA@PEB_W0@Z@4HA
	DD	0ffffffffH
	DD	imagerel ?dtor$0@?0???0InternalErrorException@Internal@Core@Math@Palmtree@@QEAA@PEB_W0@Z@4HA
xdata	ENDS
;	COMDAT CONST
CONST	SEGMENT
$cppxdata$??0InternalErrorException@Internal@Core@Math@Palmtree@@QEAA@PEB_W0@Z DD 019930522H
	DD	02H
	DD	imagerel $stateUnwindMap$??0InternalErrorException@Internal@Core@Math@Palmtree@@QEAA@PEB_W0@Z
	DD	00H
	DD	00H
	DD	04H
	DD	imagerel $ip2state$??0InternalErrorException@Internal@Core@Math@Palmtree@@QEAA@PEB_W0@Z
	DD	00H
	DD	00H
	DD	04H
CONST	ENDS
;	COMDAT xdata
xdata	SEGMENT
$unwind$??0InternalErrorException@Internal@Core@Math@Palmtree@@QEAA@PEB_W0@Z DD 011111H
	DD	02209H
	DD	imagerel __CxxFrameHandler3
	DD	imagerel $cppxdata$??0InternalErrorException@Internal@Core@Math@Palmtree@@QEAA@PEB_W0@Z
xdata	ENDS
;	COMDAT xdata
xdata	SEGMENT
$ip2state$??_GOverflowException@Internal@Core@Math@Palmtree@@UEAAPEAXI@Z DD imagerel ??_GOverflowException@Internal@Core@Math@Palmtree@@UEAAPEAXI@Z
	DD	0ffffffffH
xdata	ENDS
;	COMDAT xdata
xdata	SEGMENT
$stateUnwindMap$??_GOverflowException@Internal@Core@Math@Palmtree@@UEAAPEAXI@Z DD 0ffffffffH
	DD	imagerel ?dtor$0@?0???_GOverflowException@Internal@Core@Math@Palmtree@@UEAAPEAXI@Z@4HA
	DD	0ffffffffH
	DD	imagerel ?dtor$1@?0???_GOverflowException@Internal@Core@Math@Palmtree@@UEAAPEAXI@Z@4HA
xdata	ENDS
;	COMDAT CONST
CONST	SEGMENT
$cppxdata$??_GOverflowException@Internal@Core@Math@Palmtree@@UEAAPEAXI@Z DD 019930522H
	DD	02H
	DD	imagerel $stateUnwindMap$??_GOverflowException@Internal@Core@Math@Palmtree@@UEAAPEAXI@Z
	DD	00H
	DD	00H
	DD	01H
	DD	imagerel $ip2state$??_GOverflowException@Internal@Core@Math@Palmtree@@UEAAPEAXI@Z
	DD	020H
	DD	00H
	DD	04H
CONST	ENDS
;	COMDAT xdata
xdata	SEGMENT
$unwind$??_GOverflowException@Internal@Core@Math@Palmtree@@UEAAPEAXI@Z DD 041819H
	DD	093418H
	DD	07006520aH
	DD	imagerel __CxxFrameHandler3
	DD	imagerel $cppxdata$??_GOverflowException@Internal@Core@Math@Palmtree@@UEAAPEAXI@Z
xdata	ENDS
;	COMDAT xdata
xdata	SEGMENT
$ip2state$??1OverflowException@Internal@Core@Math@Palmtree@@UEAA@XZ DD imagerel ??1OverflowException@Internal@Core@Math@Palmtree@@UEAA@XZ
	DD	0ffffffffH
xdata	ENDS
;	COMDAT xdata
xdata	SEGMENT
$stateUnwindMap$??1OverflowException@Internal@Core@Math@Palmtree@@UEAA@XZ DD 0ffffffffH
	DD	imagerel ?dtor$0@?0???1OverflowException@Internal@Core@Math@Palmtree@@UEAA@XZ@4HA
	DD	0ffffffffH
	DD	imagerel ?dtor$1@?0???1OverflowException@Internal@Core@Math@Palmtree@@UEAA@XZ@4HA
xdata	ENDS
;	COMDAT CONST
CONST	SEGMENT
$cppxdata$??1OverflowException@Internal@Core@Math@Palmtree@@UEAA@XZ DD 019930522H
	DD	02H
	DD	imagerel $stateUnwindMap$??1OverflowException@Internal@Core@Math@Palmtree@@UEAA@XZ
	DD	00H
	DD	00H
	DD	01H
	DD	imagerel $ip2state$??1OverflowException@Internal@Core@Math@Palmtree@@UEAA@XZ
	DD	020H
	DD	00H
	DD	04H
CONST	ENDS
;	COMDAT xdata
xdata	SEGMENT
$unwind$??1OverflowException@Internal@Core@Math@Palmtree@@UEAA@XZ DD 011219H
	DD	06209H
	DD	imagerel __CxxFrameHandler3
	DD	imagerel $cppxdata$??1OverflowException@Internal@Core@Math@Palmtree@@UEAA@XZ
xdata	ENDS
;	COMDAT xdata
xdata	SEGMENT
$ip2state$??0OverflowException@Internal@Core@Math@Palmtree@@QEAA@AEBV01234@@Z DD imagerel ??0OverflowException@Internal@Core@Math@Palmtree@@QEAA@AEBV01234@@Z
	DD	0ffffffffH
	DD	imagerel ??0OverflowException@Internal@Core@Math@Palmtree@@QEAA@AEBV01234@@Z+37
	DD	00H
	DD	imagerel ??0OverflowException@Internal@Core@Math@Palmtree@@QEAA@AEBV01234@@Z+69
	DD	01H
	DD	imagerel ??0OverflowException@Internal@Core@Math@Palmtree@@QEAA@AEBV01234@@Z+79
	DD	0ffffffffH
xdata	ENDS
;	COMDAT xdata
xdata	SEGMENT
$stateUnwindMap$??0OverflowException@Internal@Core@Math@Palmtree@@QEAA@AEBV01234@@Z DD 0ffffffffH
	DD	imagerel ?dtor$1@?0???0OverflowException@Internal@Core@Math@Palmtree@@QEAA@AEBV01234@@Z@4HA
	DD	0ffffffffH
	DD	imagerel ?dtor$0@?0???0OverflowException@Internal@Core@Math@Palmtree@@QEAA@AEBV01234@@Z@4HA
xdata	ENDS
;	COMDAT CONST
CONST	SEGMENT
$cppxdata$??0OverflowException@Internal@Core@Math@Palmtree@@QEAA@AEBV01234@@Z DD 019930522H
	DD	02H
	DD	imagerel $stateUnwindMap$??0OverflowException@Internal@Core@Math@Palmtree@@QEAA@AEBV01234@@Z
	DD	00H
	DD	00H
	DD	04H
	DD	imagerel $ip2state$??0OverflowException@Internal@Core@Math@Palmtree@@QEAA@AEBV01234@@Z
	DD	00H
	DD	00H
	DD	04H
CONST	ENDS
;	COMDAT xdata
xdata	SEGMENT
$unwind$??0OverflowException@Internal@Core@Math@Palmtree@@QEAA@AEBV01234@@Z DD 011111H
	DD	02209H
	DD	imagerel __CxxFrameHandler3
	DD	imagerel $cppxdata$??0OverflowException@Internal@Core@Math@Palmtree@@QEAA@AEBV01234@@Z
xdata	ENDS
;	COMDAT xdata
xdata	SEGMENT
$ip2state$??0OverflowException@Internal@Core@Math@Palmtree@@QEAA@PEB_W@Z DD imagerel ??0OverflowException@Internal@Core@Math@Palmtree@@QEAA@PEB_W@Z
	DD	0ffffffffH
	DD	imagerel ??0OverflowException@Internal@Core@Math@Palmtree@@QEAA@PEB_W@Z+37
	DD	00H
	DD	imagerel ??0OverflowException@Internal@Core@Math@Palmtree@@QEAA@PEB_W@Z+66
	DD	01H
	DD	imagerel ??0OverflowException@Internal@Core@Math@Palmtree@@QEAA@PEB_W@Z+76
	DD	0ffffffffH
xdata	ENDS
;	COMDAT xdata
xdata	SEGMENT
$stateUnwindMap$??0OverflowException@Internal@Core@Math@Palmtree@@QEAA@PEB_W@Z DD 0ffffffffH
	DD	imagerel ?dtor$1@?0???0OverflowException@Internal@Core@Math@Palmtree@@QEAA@PEB_W@Z@4HA
	DD	0ffffffffH
	DD	imagerel ?dtor$0@?0???0OverflowException@Internal@Core@Math@Palmtree@@QEAA@PEB_W@Z@4HA
xdata	ENDS
;	COMDAT CONST
CONST	SEGMENT
$cppxdata$??0OverflowException@Internal@Core@Math@Palmtree@@QEAA@PEB_W@Z DD 019930522H
	DD	02H
	DD	imagerel $stateUnwindMap$??0OverflowException@Internal@Core@Math@Palmtree@@QEAA@PEB_W@Z
	DD	00H
	DD	00H
	DD	04H
	DD	imagerel $ip2state$??0OverflowException@Internal@Core@Math@Palmtree@@QEAA@PEB_W@Z
	DD	00H
	DD	00H
	DD	04H
CONST	ENDS
;	COMDAT xdata
xdata	SEGMENT
$unwind$??0OverflowException@Internal@Core@Math@Palmtree@@QEAA@PEB_W@Z DD 011111H
	DD	02209H
	DD	imagerel __CxxFrameHandler3
	DD	imagerel $cppxdata$??0OverflowException@Internal@Core@Math@Palmtree@@QEAA@PEB_W@Z
xdata	ENDS
;	COMDAT xdata
xdata	SEGMENT
$ip2state$??_GArgumentNullException@Internal@Core@Math@Palmtree@@UEAAPEAXI@Z DD imagerel ??_GArgumentNullException@Internal@Core@Math@Palmtree@@UEAAPEAXI@Z
	DD	0ffffffffH
xdata	ENDS
;	COMDAT xdata
xdata	SEGMENT
$stateUnwindMap$??_GArgumentNullException@Internal@Core@Math@Palmtree@@UEAAPEAXI@Z DD 0ffffffffH
	DD	imagerel ?dtor$0@?0???_GArgumentNullException@Internal@Core@Math@Palmtree@@UEAAPEAXI@Z@4HA
	DD	0ffffffffH
	DD	imagerel ?dtor$1@?0???_GArgumentNullException@Internal@Core@Math@Palmtree@@UEAAPEAXI@Z@4HA
xdata	ENDS
;	COMDAT CONST
CONST	SEGMENT
$cppxdata$??_GArgumentNullException@Internal@Core@Math@Palmtree@@UEAAPEAXI@Z DD 019930522H
	DD	02H
	DD	imagerel $stateUnwindMap$??_GArgumentNullException@Internal@Core@Math@Palmtree@@UEAAPEAXI@Z
	DD	00H
	DD	00H
	DD	01H
	DD	imagerel $ip2state$??_GArgumentNullException@Internal@Core@Math@Palmtree@@UEAAPEAXI@Z
	DD	020H
	DD	00H
	DD	04H
CONST	ENDS
;	COMDAT xdata
xdata	SEGMENT
$unwind$??_GArgumentNullException@Internal@Core@Math@Palmtree@@UEAAPEAXI@Z DD 041819H
	DD	093418H
	DD	07006520aH
	DD	imagerel __CxxFrameHandler3
	DD	imagerel $cppxdata$??_GArgumentNullException@Internal@Core@Math@Palmtree@@UEAAPEAXI@Z
xdata	ENDS
;	COMDAT xdata
xdata	SEGMENT
$ip2state$??1ArgumentNullException@Internal@Core@Math@Palmtree@@UEAA@XZ DD imagerel ??1ArgumentNullException@Internal@Core@Math@Palmtree@@UEAA@XZ
	DD	0ffffffffH
xdata	ENDS
;	COMDAT xdata
xdata	SEGMENT
$stateUnwindMap$??1ArgumentNullException@Internal@Core@Math@Palmtree@@UEAA@XZ DD 0ffffffffH
	DD	imagerel ?dtor$0@?0???1ArgumentNullException@Internal@Core@Math@Palmtree@@UEAA@XZ@4HA
	DD	0ffffffffH
	DD	imagerel ?dtor$1@?0???1ArgumentNullException@Internal@Core@Math@Palmtree@@UEAA@XZ@4HA
xdata	ENDS
;	COMDAT CONST
CONST	SEGMENT
$cppxdata$??1ArgumentNullException@Internal@Core@Math@Palmtree@@UEAA@XZ DD 019930522H
	DD	02H
	DD	imagerel $stateUnwindMap$??1ArgumentNullException@Internal@Core@Math@Palmtree@@UEAA@XZ
	DD	00H
	DD	00H
	DD	01H
	DD	imagerel $ip2state$??1ArgumentNullException@Internal@Core@Math@Palmtree@@UEAA@XZ
	DD	020H
	DD	00H
	DD	04H
CONST	ENDS
;	COMDAT xdata
xdata	SEGMENT
$unwind$??1ArgumentNullException@Internal@Core@Math@Palmtree@@UEAA@XZ DD 011219H
	DD	06209H
	DD	imagerel __CxxFrameHandler3
	DD	imagerel $cppxdata$??1ArgumentNullException@Internal@Core@Math@Palmtree@@UEAA@XZ
xdata	ENDS
;	COMDAT xdata
xdata	SEGMENT
$ip2state$??0ArgumentNullException@Internal@Core@Math@Palmtree@@QEAA@AEBV01234@@Z DD imagerel ??0ArgumentNullException@Internal@Core@Math@Palmtree@@QEAA@AEBV01234@@Z
	DD	0ffffffffH
	DD	imagerel ??0ArgumentNullException@Internal@Core@Math@Palmtree@@QEAA@AEBV01234@@Z+37
	DD	00H
	DD	imagerel ??0ArgumentNullException@Internal@Core@Math@Palmtree@@QEAA@AEBV01234@@Z+69
	DD	01H
	DD	imagerel ??0ArgumentNullException@Internal@Core@Math@Palmtree@@QEAA@AEBV01234@@Z+79
	DD	0ffffffffH
xdata	ENDS
;	COMDAT xdata
xdata	SEGMENT
$stateUnwindMap$??0ArgumentNullException@Internal@Core@Math@Palmtree@@QEAA@AEBV01234@@Z DD 0ffffffffH
	DD	imagerel ?dtor$1@?0???0ArgumentNullException@Internal@Core@Math@Palmtree@@QEAA@AEBV01234@@Z@4HA
	DD	0ffffffffH
	DD	imagerel ?dtor$0@?0???0ArgumentNullException@Internal@Core@Math@Palmtree@@QEAA@AEBV01234@@Z@4HA
xdata	ENDS
;	COMDAT CONST
CONST	SEGMENT
$cppxdata$??0ArgumentNullException@Internal@Core@Math@Palmtree@@QEAA@AEBV01234@@Z DD 019930522H
	DD	02H
	DD	imagerel $stateUnwindMap$??0ArgumentNullException@Internal@Core@Math@Palmtree@@QEAA@AEBV01234@@Z
	DD	00H
	DD	00H
	DD	04H
	DD	imagerel $ip2state$??0ArgumentNullException@Internal@Core@Math@Palmtree@@QEAA@AEBV01234@@Z
	DD	00H
	DD	00H
	DD	04H
CONST	ENDS
;	COMDAT xdata
xdata	SEGMENT
$unwind$??0ArgumentNullException@Internal@Core@Math@Palmtree@@QEAA@AEBV01234@@Z DD 011111H
	DD	02209H
	DD	imagerel __CxxFrameHandler3
	DD	imagerel $cppxdata$??0ArgumentNullException@Internal@Core@Math@Palmtree@@QEAA@AEBV01234@@Z
xdata	ENDS
;	COMDAT xdata
xdata	SEGMENT
$ip2state$??0ArgumentNullException@Internal@Core@Math@Palmtree@@QEAA@PEB_W0@Z DD imagerel ??0ArgumentNullException@Internal@Core@Math@Palmtree@@QEAA@PEB_W0@Z
	DD	0ffffffffH
	DD	imagerel ??0ArgumentNullException@Internal@Core@Math@Palmtree@@QEAA@PEB_W0@Z+37
	DD	00H
	DD	imagerel ??0ArgumentNullException@Internal@Core@Math@Palmtree@@QEAA@PEB_W0@Z+62
	DD	01H
	DD	imagerel ??0ArgumentNullException@Internal@Core@Math@Palmtree@@QEAA@PEB_W0@Z+72
	DD	0ffffffffH
xdata	ENDS
;	COMDAT xdata
xdata	SEGMENT
$stateUnwindMap$??0ArgumentNullException@Internal@Core@Math@Palmtree@@QEAA@PEB_W0@Z DD 0ffffffffH
	DD	imagerel ?dtor$1@?0???0ArgumentNullException@Internal@Core@Math@Palmtree@@QEAA@PEB_W0@Z@4HA
	DD	0ffffffffH
	DD	imagerel ?dtor$0@?0???0ArgumentNullException@Internal@Core@Math@Palmtree@@QEAA@PEB_W0@Z@4HA
xdata	ENDS
;	COMDAT CONST
CONST	SEGMENT
$cppxdata$??0ArgumentNullException@Internal@Core@Math@Palmtree@@QEAA@PEB_W0@Z DD 019930522H
	DD	02H
	DD	imagerel $stateUnwindMap$??0ArgumentNullException@Internal@Core@Math@Palmtree@@QEAA@PEB_W0@Z
	DD	00H
	DD	00H
	DD	04H
	DD	imagerel $ip2state$??0ArgumentNullException@Internal@Core@Math@Palmtree@@QEAA@PEB_W0@Z
	DD	00H
	DD	00H
	DD	04H
CONST	ENDS
;	COMDAT xdata
xdata	SEGMENT
$unwind$??0ArgumentNullException@Internal@Core@Math@Palmtree@@QEAA@PEB_W0@Z DD 011111H
	DD	02209H
	DD	imagerel __CxxFrameHandler3
	DD	imagerel $cppxdata$??0ArgumentNullException@Internal@Core@Math@Palmtree@@QEAA@PEB_W0@Z
xdata	ENDS
;	COMDAT xdata
xdata	SEGMENT
$ip2state$??_GException@Internal@Core@Math@Palmtree@@UEAAPEAXI@Z DD imagerel ??_GException@Internal@Core@Math@Palmtree@@UEAAPEAXI@Z
	DD	0ffffffffH
xdata	ENDS
;	COMDAT xdata
xdata	SEGMENT
$stateUnwindMap$??_GException@Internal@Core@Math@Palmtree@@UEAAPEAXI@Z DD 0ffffffffH
	DD	imagerel ?dtor$0@?0???_GException@Internal@Core@Math@Palmtree@@UEAAPEAXI@Z@4HA
xdata	ENDS
;	COMDAT CONST
CONST	SEGMENT
$cppxdata$??_GException@Internal@Core@Math@Palmtree@@UEAAPEAXI@Z DD 019930522H
	DD	01H
	DD	imagerel $stateUnwindMap$??_GException@Internal@Core@Math@Palmtree@@UEAAPEAXI@Z
	DD	00H
	DD	00H
	DD	01H
	DD	imagerel $ip2state$??_GException@Internal@Core@Math@Palmtree@@UEAAPEAXI@Z
	DD	020H
	DD	00H
	DD	04H
CONST	ENDS
;	COMDAT xdata
xdata	SEGMENT
$unwind$??_GException@Internal@Core@Math@Palmtree@@UEAAPEAXI@Z DD 041819H
	DD	093418H
	DD	07006520aH
	DD	imagerel __CxxFrameHandler3
	DD	imagerel $cppxdata$??_GException@Internal@Core@Math@Palmtree@@UEAAPEAXI@Z
xdata	ENDS
;	COMDAT xdata
xdata	SEGMENT
$ip2state$??1Exception@Internal@Core@Math@Palmtree@@UEAA@XZ DD imagerel ??1Exception@Internal@Core@Math@Palmtree@@UEAA@XZ
	DD	0ffffffffH
xdata	ENDS
;	COMDAT xdata
xdata	SEGMENT
$stateUnwindMap$??1Exception@Internal@Core@Math@Palmtree@@UEAA@XZ DD 0ffffffffH
	DD	imagerel ?dtor$0@?0???1Exception@Internal@Core@Math@Palmtree@@UEAA@XZ@4HA
xdata	ENDS
;	COMDAT CONST
CONST	SEGMENT
$cppxdata$??1Exception@Internal@Core@Math@Palmtree@@UEAA@XZ DD 019930522H
	DD	01H
	DD	imagerel $stateUnwindMap$??1Exception@Internal@Core@Math@Palmtree@@UEAA@XZ
	DD	00H
	DD	00H
	DD	01H
	DD	imagerel $ip2state$??1Exception@Internal@Core@Math@Palmtree@@UEAA@XZ
	DD	020H
	DD	00H
	DD	04H
CONST	ENDS
;	COMDAT xdata
xdata	SEGMENT
$unwind$??1Exception@Internal@Core@Math@Palmtree@@UEAA@XZ DD 011219H
	DD	06209H
	DD	imagerel __CxxFrameHandler3
	DD	imagerel $cppxdata$??1Exception@Internal@Core@Math@Palmtree@@UEAA@XZ
xdata	ENDS
;	COMDAT xdata
xdata	SEGMENT
$ip2state$??0Exception@Internal@Core@Math@Palmtree@@QEAA@AEBV01234@@Z DD imagerel ??0Exception@Internal@Core@Math@Palmtree@@QEAA@AEBV01234@@Z
	DD	0ffffffffH
	DD	imagerel ??0Exception@Internal@Core@Math@Palmtree@@QEAA@AEBV01234@@Z+37
	DD	00H
	DD	imagerel ??0Exception@Internal@Core@Math@Palmtree@@QEAA@AEBV01234@@Z+69
	DD	0ffffffffH
xdata	ENDS
;	COMDAT xdata
xdata	SEGMENT
$stateUnwindMap$??0Exception@Internal@Core@Math@Palmtree@@QEAA@AEBV01234@@Z DD 0ffffffffH
	DD	imagerel ?dtor$0@?0???0Exception@Internal@Core@Math@Palmtree@@QEAA@AEBV01234@@Z@4HA
xdata	ENDS
;	COMDAT CONST
CONST	SEGMENT
$cppxdata$??0Exception@Internal@Core@Math@Palmtree@@QEAA@AEBV01234@@Z DD 019930522H
	DD	01H
	DD	imagerel $stateUnwindMap$??0Exception@Internal@Core@Math@Palmtree@@QEAA@AEBV01234@@Z
	DD	00H
	DD	00H
	DD	03H
	DD	imagerel $ip2state$??0Exception@Internal@Core@Math@Palmtree@@QEAA@AEBV01234@@Z
	DD	00H
	DD	00H
	DD	04H
CONST	ENDS
;	COMDAT xdata
xdata	SEGMENT
$unwind$??0Exception@Internal@Core@Math@Palmtree@@QEAA@AEBV01234@@Z DD 011111H
	DD	02209H
	DD	imagerel __CxxFrameHandler3
	DD	imagerel $cppxdata$??0Exception@Internal@Core@Math@Palmtree@@QEAA@AEBV01234@@Z
xdata	ENDS
;	COMDAT xdata
xdata	SEGMENT
$ip2state$??0Exception@Internal@Core@Math@Palmtree@@IEAA@HPEB_W0@Z DD imagerel ??0Exception@Internal@Core@Math@Palmtree@@IEAA@HPEB_W0@Z
	DD	0ffffffffH
	DD	imagerel ??0Exception@Internal@Core@Math@Palmtree@@IEAA@HPEB_W0@Z+37
	DD	00H
	DD	imagerel ??0Exception@Internal@Core@Math@Palmtree@@IEAA@HPEB_W0@Z+58
	DD	0ffffffffH
xdata	ENDS
;	COMDAT xdata
xdata	SEGMENT
$stateUnwindMap$??0Exception@Internal@Core@Math@Palmtree@@IEAA@HPEB_W0@Z DD 0ffffffffH
	DD	imagerel ?dtor$0@?0???0Exception@Internal@Core@Math@Palmtree@@IEAA@HPEB_W0@Z@4HA
xdata	ENDS
;	COMDAT CONST
CONST	SEGMENT
$cppxdata$??0Exception@Internal@Core@Math@Palmtree@@IEAA@HPEB_W0@Z DD 019930522H
	DD	01H
	DD	imagerel $stateUnwindMap$??0Exception@Internal@Core@Math@Palmtree@@IEAA@HPEB_W0@Z
	DD	00H
	DD	00H
	DD	03H
	DD	imagerel $ip2state$??0Exception@Internal@Core@Math@Palmtree@@IEAA@HPEB_W0@Z
	DD	00H
	DD	00H
	DD	04H
CONST	ENDS
;	COMDAT xdata
xdata	SEGMENT
$unwind$??0Exception@Internal@Core@Math@Palmtree@@IEAA@HPEB_W0@Z DD 011111H
	DD	02209H
	DD	imagerel __CxxFrameHandler3
	DD	imagerel $cppxdata$??0Exception@Internal@Core@Math@Palmtree@@IEAA@HPEB_W0@Z
xdata	ENDS
;	COMDAT xdata
xdata	SEGMENT
$ip2state$??0Exception@Internal@Core@Math@Palmtree@@IEAA@HPEB_W@Z DD imagerel ??0Exception@Internal@Core@Math@Palmtree@@IEAA@HPEB_W@Z
	DD	0ffffffffH
	DD	imagerel ??0Exception@Internal@Core@Math@Palmtree@@IEAA@HPEB_W@Z+37
	DD	00H
	DD	imagerel ??0Exception@Internal@Core@Math@Palmtree@@IEAA@HPEB_W@Z+62
	DD	0ffffffffH
xdata	ENDS
;	COMDAT xdata
xdata	SEGMENT
$stateUnwindMap$??0Exception@Internal@Core@Math@Palmtree@@IEAA@HPEB_W@Z DD 0ffffffffH
	DD	imagerel ?dtor$0@?0???0Exception@Internal@Core@Math@Palmtree@@IEAA@HPEB_W@Z@4HA
xdata	ENDS
;	COMDAT CONST
CONST	SEGMENT
$cppxdata$??0Exception@Internal@Core@Math@Palmtree@@IEAA@HPEB_W@Z DD 019930522H
	DD	01H
	DD	imagerel $stateUnwindMap$??0Exception@Internal@Core@Math@Palmtree@@IEAA@HPEB_W@Z
	DD	00H
	DD	00H
	DD	03H
	DD	imagerel $ip2state$??0Exception@Internal@Core@Math@Palmtree@@IEAA@HPEB_W@Z
	DD	00H
	DD	00H
	DD	04H
CONST	ENDS
;	COMDAT xdata
xdata	SEGMENT
$unwind$??0Exception@Internal@Core@Math@Palmtree@@IEAA@HPEB_W@Z DD 011111H
	DD	02209H
	DD	imagerel __CxxFrameHandler3
	DD	imagerel $cppxdata$??0Exception@Internal@Core@Math@Palmtree@@IEAA@HPEB_W@Z
xdata	ENDS
;	COMDAT xdata
xdata	SEGMENT
$ip2state$??_Gexception@std@@UEAAPEAXI@Z DD imagerel ??_Gexception@std@@UEAAPEAXI@Z
	DD	0ffffffffH
xdata	ENDS
;	COMDAT CONST
CONST	SEGMENT
$cppxdata$??_Gexception@std@@UEAAPEAXI@Z DD 019930522H
	DD	00H
	DD	00H
	DD	00H
	DD	00H
	DD	01H
	DD	imagerel $ip2state$??_Gexception@std@@UEAAPEAXI@Z
	DD	020H
	DD	00H
	DD	04H
CONST	ENDS
;	COMDAT xdata
xdata	SEGMENT
$unwind$??_Gexception@std@@UEAAPEAXI@Z DD 041419H
	DD	083414H
	DD	070025206H
	DD	imagerel __CxxFrameHandler3
	DD	imagerel $cppxdata$??_Gexception@std@@UEAAPEAXI@Z
xdata	ENDS
;	COMDAT xdata
xdata	SEGMENT
$ip2state$??1exception@std@@UEAA@XZ DD imagerel ??1exception@std@@UEAA@XZ
	DD	0ffffffffH
xdata	ENDS
;	COMDAT CONST
CONST	SEGMENT
$cppxdata$??1exception@std@@UEAA@XZ DD 019930522H
	DD	00H
	DD	00H
	DD	00H
	DD	00H
	DD	01H
	DD	imagerel $ip2state$??1exception@std@@UEAA@XZ
	DD	020H
	DD	00H
	DD	04H
CONST	ENDS
;	COMDAT xdata
xdata	SEGMENT
$unwind$??1exception@std@@UEAA@XZ DD 010d19H
	DD	06204H
	DD	imagerel __CxxFrameHandler3
	DD	imagerel $cppxdata$??1exception@std@@UEAA@XZ
xdata	ENDS
; Function compile flags: /Ogtpy
; File z:\sources\lunor\repos\rougemeilland\palmtree.math.core.uint\palmtree.math.core.uint\pmc_subtruct.cpp
;	COMDAT ?PMC_Subtruct_X_X_Imp@Internal@Core@Math@Palmtree@@YAPEAU__tag_NUMBER_HEADER@1234@PEAU51234@0@Z
_TEXT	SEGMENT
root$1 = 56
$T2 = 56
$T3 = 104
u$ = 176
v$ = 184
?PMC_Subtruct_X_X_Imp@Internal@Core@Math@Palmtree@@YAPEAU__tag_NUMBER_HEADER@1234@PEAU51234@0@Z PROC ; Palmtree::Math::Core::Internal::PMC_Subtruct_X_X_Imp, COMDAT

; 652  :     {

  00000	48 8b c4	 mov	 rax, rsp
  00003	57		 push	 rdi
  00004	48 81 ec a0 00
	00 00		 sub	 rsp, 160		; 000000a0H
  0000b	48 c7 40 88 fe
	ff ff ff	 mov	 QWORD PTR [rax-120], -2
  00013	48 89 58 08	 mov	 QWORD PTR [rax+8], rbx
  00017	48 89 70 10	 mov	 QWORD PTR [rax+16], rsi
  0001b	48 8b fa	 mov	 rdi, rdx
  0001e	48 8b f1	 mov	 rsi, rcx

; 653  :         if (u->IS_ZERO)

  00021	f6 41 08 01	 test	 BYTE PTR [rcx+8], 1
  00025	74 16		 je	 SHORT $LN2@PMC_Subtru

; 654  :         {
; 655  :             if (v->IS_ZERO)

  00027	f6 42 08 01	 test	 BYTE PTR [rdx+8], 1
  0002b	0f 84 ed 00 00
	00		 je	 $LN4@PMC_Subtru

; 656  :             {
; 657  :                 // y  0 
; 658  : 
; 659  :                 // x  y  0  0 
; 660  :                 return (&number_zero);

  00031	48 8d 05 00 00
	00 00		 lea	 rax, OFFSET FLAT:?number_zero@Internal@Core@Math@Palmtree@@3U__tag_NUMBER_HEADER@1234@A ; Palmtree::Math::Core::Internal::number_zero
  00038	e9 a9 00 00 00	 jmp	 $LN7@PMC_Subtru
$LN2@PMC_Subtru:

; 668  :             }
; 669  :         }
; 670  :         else
; 671  :         {
; 672  :             // x  0 
; 673  : 
; 674  :             if (v->IS_ZERO)

  0003d	f6 42 08 01	 test	 BYTE PTR [rdx+8], 1
  00041	74 0a		 je	 SHORT $LN6@PMC_Subtru

; 675  :             {
; 676  :                 // y  0 
; 677  : 
; 678  :                 //  x  NUMBER_HEADER 
; 679  :                 return (DuplicateNumber(u));

  00043	e8 00 00 00 00	 call	 ?DuplicateNumber@Internal@Core@Math@Palmtree@@YAPEAU__tag_NUMBER_HEADER@1234@PEAU51234@@Z ; Palmtree::Math::Core::Internal::DuplicateNumber
  00048	e9 99 00 00 00	 jmp	 $LN7@PMC_Subtru
$LN6@PMC_Subtru:

; 680  :             }
; 681  :             else
; 682  :             {
; 683  :                 // x  y  0 
; 684  : 
; 685  :                 // x  y 
; 686  :                 ResourceHolderUINT root;

  0004d	48 8d 4c 24 38	 lea	 rcx, QWORD PTR root$1[rsp]
  00052	e8 00 00 00 00	 call	 ??0ResourceHolderUINT@Internal@Core@Math@Palmtree@@QEAA@XZ ; Palmtree::Math::Core::Internal::ResourceHolderUINT::ResourceHolderUINT
  00057	90		 npad	 1

; 687  :                 __UNIT_TYPE u_bit_count = u->UNIT_BIT_COUNT;

  00058	48 8b 56 20	 mov	 rdx, QWORD PTR [rsi+32]

; 688  :                 __UNIT_TYPE v_bit_count = v->UNIT_BIT_COUNT;
; 689  :                 if (u_bit_count < v_bit_count)

  0005c	48 3b 57 20	 cmp	 rdx, QWORD PTR [rdi+32]
  00060	0f 82 95 00 00
	00		 jb	 $LN15@PMC_Subtru

; 693  :                 }
; 694  :                 __UNIT_TYPE w_bit_count = u_bit_count;
; 695  :                 NUMBER_HEADER* w = root.AllocateNumber(w_bit_count);

  00066	48 8d 4c 24 38	 lea	 rcx, QWORD PTR root$1[rsp]
  0006b	e8 00 00 00 00	 call	 ?AllocateNumber@ResourceHolderUINT@Internal@Core@Math@Palmtree@@QEAAPEAU__tag_NUMBER_HEADER@2345@_K@Z ; Palmtree::Math::Core::Internal::ResourceHolderUINT::AllocateNumber
  00070	48 8b d8	 mov	 rbx, rax

; 696  :                 Subtruct_Imp(u->BLOCK, u->UNIT_WORD_COUNT, v->BLOCK, v->UNIT_WORD_COUNT, w->BLOCK, w->BLOCK_COUNT);

  00073	48 8b 48 38	 mov	 rcx, QWORD PTR [rax+56]
  00077	48 89 4c 24 28	 mov	 QWORD PTR [rsp+40], rcx
  0007c	48 8b 48 40	 mov	 rcx, QWORD PTR [rax+64]
  00080	48 89 4c 24 20	 mov	 QWORD PTR [rsp+32], rcx
  00085	4c 8b 4f 18	 mov	 r9, QWORD PTR [rdi+24]
  00089	4c 8b 47 40	 mov	 r8, QWORD PTR [rdi+64]
  0008d	48 8b 56 18	 mov	 rdx, QWORD PTR [rsi+24]
  00091	48 8b 4e 40	 mov	 rcx, QWORD PTR [rsi+64]
  00095	e8 00 00 00 00	 call	 ?Subtruct_Imp@Internal@Core@Math@Palmtree@@YAXPEA_K_K0101@Z ; Palmtree::Math::Core::Internal::Subtruct_Imp

; 697  :                 root.CheckNumber(w);

  0009a	48 8b d3	 mov	 rdx, rbx
  0009d	48 8d 4c 24 38	 lea	 rcx, QWORD PTR root$1[rsp]
  000a2	e8 00 00 00 00	 call	 ?CheckNumber@ResourceHolderUINT@Internal@Core@Math@Palmtree@@QEAAXPEAU__tag_NUMBER_HEADER@2345@@Z ; Palmtree::Math::Core::Internal::ResourceHolderUINT::CheckNumber

; 698  :                 CommitNumber(w);

  000a7	48 8b cb	 mov	 rcx, rbx
  000aa	e8 00 00 00 00	 call	 ?CommitNumber@Internal@Core@Math@Palmtree@@YAXPEAU__tag_NUMBER_HEADER@1234@@Z ; Palmtree::Math::Core::Internal::CommitNumber

; 699  :                 CommitNumber(w);

  000af	48 8b cb	 mov	 rcx, rbx
  000b2	e8 00 00 00 00	 call	 ?CommitNumber@Internal@Core@Math@Palmtree@@YAXPEAU__tag_NUMBER_HEADER@1234@@Z ; Palmtree::Math::Core::Internal::CommitNumber

; 700  :                 if (w->IS_ZERO)

  000b7	48 8b d3	 mov	 rdx, rbx
  000ba	48 8d 4c 24 38	 lea	 rcx, QWORD PTR root$1[rsp]
  000bf	f6 43 08 01	 test	 BYTE PTR [rbx+8], 1
  000c3	74 0e		 je	 SHORT $LN9@PMC_Subtru

; 701  :                 {
; 702  :                     root.DeallocateNumber(w);

  000c5	e8 00 00 00 00	 call	 ?DeallocateNumber@ResourceHolderUINT@Internal@Core@Math@Palmtree@@QEAAXPEAU__tag_NUMBER_HEADER@2345@@Z ; Palmtree::Math::Core::Internal::ResourceHolderUINT::DeallocateNumber

; 703  :                     w = &number_zero;

  000ca	48 8d 1d 00 00
	00 00		 lea	 rbx, OFFSET FLAT:?number_zero@Internal@Core@Math@Palmtree@@3U__tag_NUMBER_HEADER@1234@A ; Palmtree::Math::Core::Internal::number_zero

; 704  :                 }
; 705  :                 else

  000d1	eb 06		 jmp	 SHORT $LN10@PMC_Subtru
$LN9@PMC_Subtru:

; 706  :                     root.UnlinkNumber(w);

  000d3	e8 00 00 00 00	 call	 ?UnlinkNumber@ResourceHolderUINT@Internal@Core@Math@Palmtree@@QEAAXPEAU__tag_NUMBER_HEADER@2345@@Z ; Palmtree::Math::Core::Internal::ResourceHolderUINT::UnlinkNumber
  000d8	90		 npad	 1
$LN10@PMC_Subtru:

; 707  :                 return (w);

  000d9	48 8d 4c 24 38	 lea	 rcx, QWORD PTR root$1[rsp]
  000de	e8 00 00 00 00	 call	 ??1ResourceHolderUINT@Internal@Core@Math@Palmtree@@UEAA@XZ ; Palmtree::Math::Core::Internal::ResourceHolderUINT::~ResourceHolderUINT
  000e3	48 8b c3	 mov	 rax, rbx
$LN7@PMC_Subtru:

; 708  :             }
; 709  :         }
; 710  :     }

  000e6	4c 8d 9c 24 a0
	00 00 00	 lea	 r11, QWORD PTR [rsp+160]
  000ee	49 8b 5b 10	 mov	 rbx, QWORD PTR [r11+16]
  000f2	49 8b 73 18	 mov	 rsi, QWORD PTR [r11+24]
  000f6	49 8b e3	 mov	 rsp, r11
  000f9	5f		 pop	 rdi
  000fa	c3		 ret	 0
$LN15@PMC_Subtru:

; 690  :                 {
; 691  :                     // 
; 692  :                     throw OverflowException(L"");

  000fb	48 8d 15 00 00
	00 00		 lea	 rdx, OFFSET FLAT:??_C@_1CK@EKOAHHOC@?$AA?$BL?$PP?$JH?$AAk?$PP?$II?$PP?$IK?$PP?$KK?$PP?$PM?$PP?P?$PP?$PM?$PP?U?$PP?m?$PP?$PM?$AAL?$AAz?$AA?$BP@
  00102	48 8d 4c 24 68	 lea	 rcx, QWORD PTR $T3[rsp]
  00107	e8 00 00 00 00	 call	 ??0OverflowException@Internal@Core@Math@Palmtree@@QEAA@PEB_W@Z ; Palmtree::Math::Core::Internal::OverflowException::OverflowException
  0010c	48 8d 15 00 00
	00 00		 lea	 rdx, OFFSET FLAT:_TI2?AVOverflowException@Internal@Core@Math@Palmtree@@
  00113	48 8d 4c 24 68	 lea	 rcx, QWORD PTR $T3[rsp]
  00118	e8 00 00 00 00	 call	 _CxxThrowException
  0011d	90		 npad	 1
$LN4@PMC_Subtru:

; 661  :             }
; 662  :             else
; 663  :             {
; 664  :                 // y  0 
; 665  : 
; 666  :                 // 
; 667  :                 throw OverflowException(L"");

  0011e	48 8d 15 00 00
	00 00		 lea	 rdx, OFFSET FLAT:??_C@_1CK@EKOAHHOC@?$AA?$BL?$PP?$JH?$AAk?$PP?$II?$PP?$IK?$PP?$KK?$PP?$PM?$PP?P?$PP?$PM?$PP?U?$PP?m?$PP?$PM?$AAL?$AAz?$AA?$BP@
  00125	48 8d 4c 24 38	 lea	 rcx, QWORD PTR $T2[rsp]
  0012a	e8 00 00 00 00	 call	 ??0OverflowException@Internal@Core@Math@Palmtree@@QEAA@PEB_W@Z ; Palmtree::Math::Core::Internal::OverflowException::OverflowException
  0012f	48 8d 15 00 00
	00 00		 lea	 rdx, OFFSET FLAT:_TI2?AVOverflowException@Internal@Core@Math@Palmtree@@
  00136	48 8d 4c 24 38	 lea	 rcx, QWORD PTR $T2[rsp]
  0013b	e8 00 00 00 00	 call	 _CxxThrowException
  00140	cc		 int	 3
$LN13@PMC_Subtru:
?PMC_Subtruct_X_X_Imp@Internal@Core@Math@Palmtree@@YAPEAU__tag_NUMBER_HEADER@1234@PEAU51234@0@Z ENDP ; Palmtree::Math::Core::Internal::PMC_Subtruct_X_X_Imp
_TEXT	ENDS
;	COMDAT text$x
text$x	SEGMENT
root$1 = 56
$T2 = 56
$T3 = 104
u$ = 176
v$ = 184
?dtor$0@?0??PMC_Subtruct_X_X_Imp@Internal@Core@Math@Palmtree@@YAPEAU__tag_NUMBER_HEADER@1234@PEAU51234@0@Z@4HA PROC ; `Palmtree::Math::Core::Internal::PMC_Subtruct_X_X_Imp'::`1'::dtor$0
  00000	48 8d 8a 38 00
	00 00		 lea	 rcx, QWORD PTR root$1[rdx]
  00007	e9 00 00 00 00	 jmp	 ??1ResourceHolderUINT@Internal@Core@Math@Palmtree@@UEAA@XZ ; Palmtree::Math::Core::Internal::ResourceHolderUINT::~ResourceHolderUINT
?dtor$0@?0??PMC_Subtruct_X_X_Imp@Internal@Core@Math@Palmtree@@YAPEAU__tag_NUMBER_HEADER@1234@PEAU51234@0@Z@4HA ENDP ; `Palmtree::Math::Core::Internal::PMC_Subtruct_X_X_Imp'::`1'::dtor$0
text$x	ENDS
; Function compile flags: /Ogtpy
;	COMDAT text$x
text$x	SEGMENT
root$1 = 56
$T2 = 56
$T3 = 104
u$ = 176
v$ = 184
?dtor$0@?0??PMC_Subtruct_X_X_Imp@Internal@Core@Math@Palmtree@@YAPEAU__tag_NUMBER_HEADER@1234@PEAU51234@0@Z@4HA PROC ; `Palmtree::Math::Core::Internal::PMC_Subtruct_X_X_Imp'::`1'::dtor$0
  00000	48 8d 8a 38 00
	00 00		 lea	 rcx, QWORD PTR root$1[rdx]
  00007	e9 00 00 00 00	 jmp	 ??1ResourceHolderUINT@Internal@Core@Math@Palmtree@@UEAA@XZ ; Palmtree::Math::Core::Internal::ResourceHolderUINT::~ResourceHolderUINT
?dtor$0@?0??PMC_Subtruct_X_X_Imp@Internal@Core@Math@Palmtree@@YAPEAU__tag_NUMBER_HEADER@1234@PEAU51234@0@Z@4HA ENDP ; `Palmtree::Math::Core::Internal::PMC_Subtruct_X_X_Imp'::`1'::dtor$0
text$x	ENDS
; Function compile flags: /Ogtpy
; File z:\sources\lunor\repos\rougemeilland\palmtree.math.core.uint\palmtree.math.core.uint\pmc_subtruct.cpp
; File z:\sources\lunor\repos\rougemeilland\palmtree.math.core.uint\palmtree.math.core.uint\pmc_inline_func.h
; File z:\sources\lunor\repos\rougemeilland\palmtree.math.core.uint\palmtree.math.core.uint\pmc_subtruct.cpp
; File z:\sources\lunor\repos\rougemeilland\palmtree.math.core.uint\palmtree.math.core.uint\pmc_inline_func.h
; File z:\sources\lunor\repos\rougemeilland\palmtree.math.core.uint\palmtree.math.core.uint\pmc_subtruct.cpp
;	COMDAT ?PMC_Subtruct_X_L_Imp@Internal@Core@Math@Palmtree@@YAPEAU__tag_NUMBER_HEADER@1234@PEAU51234@_K@Z
_TEXT	SEGMENT
root$1 = 56
$T2 = 56
$T3 = 104
u$ = 176
v$ = 184
?PMC_Subtruct_X_L_Imp@Internal@Core@Math@Palmtree@@YAPEAU__tag_NUMBER_HEADER@1234@PEAU51234@_K@Z PROC ; Palmtree::Math::Core::Internal::PMC_Subtruct_X_L_Imp, COMDAT

; 506  :     {

  00000	48 8b c4	 mov	 rax, rsp
  00003	57		 push	 rdi
  00004	48 81 ec a0 00
	00 00		 sub	 rsp, 160		; 000000a0H
  0000b	48 c7 40 88 fe
	ff ff ff	 mov	 QWORD PTR [rax-120], -2
  00013	48 89 58 08	 mov	 QWORD PTR [rax+8], rbx
  00017	48 89 68 10	 mov	 QWORD PTR [rax+16], rbp
  0001b	48 89 70 18	 mov	 QWORD PTR [rax+24], rsi
  0001f	48 8b f2	 mov	 rsi, rdx
  00022	48 8b e9	 mov	 rbp, rcx

; 507  :         if (u->IS_ZERO)

  00025	f6 41 08 01	 test	 BYTE PTR [rcx+8], 1
  00029	74 15		 je	 SHORT $LN2@PMC_Subtru

; 508  :         {
; 509  :             // u  0 
; 510  : 
; 511  :             if (v == 0)

  0002b	48 85 d2	 test	 rdx, rdx
  0002e	0f 85 0d 01 00
	00		 jne	 $LN4@PMC_Subtru

; 512  :             {
; 513  :                 // v  0 
; 514  : 
; 515  :                 // u  v  0  0 
; 516  :                 return (&number_zero);

  00034	48 8d 05 00 00
	00 00		 lea	 rax, OFFSET FLAT:?number_zero@Internal@Core@Math@Palmtree@@3U__tag_NUMBER_HEADER@1234@A ; Palmtree::Math::Core::Internal::number_zero
  0003b	e9 c5 00 00 00	 jmp	 $LN9@PMC_Subtru
$LN2@PMC_Subtru:

; 524  :             }
; 525  :         }
; 526  :         else
; 527  :         {
; 528  :             // u  0 
; 529  : 
; 530  :             if (v == 0)

  00040	48 85 f6	 test	 rsi, rsi
  00043	75 0a		 jne	 SHORT $LN6@PMC_Subtru

; 531  :             {
; 532  :                 // v  0 
; 533  : 
; 534  :                 //  x  NUMBER_HEADER 
; 535  :                 return (DuplicateNumber(u));

  00045	e8 00 00 00 00	 call	 ?DuplicateNumber@Internal@Core@Math@Palmtree@@YAPEAU__tag_NUMBER_HEADER@1234@PEAU51234@@Z ; Palmtree::Math::Core::Internal::DuplicateNumber
  0004a	e9 b6 00 00 00	 jmp	 $LN9@PMC_Subtru
$LN6@PMC_Subtru:

; 536  :             }
; 537  :             else
; 538  :             {
; 539  :                 // u  v  0 
; 540  : 
; 541  :                 // u  v 
; 542  :                 if (__UNIT_TYPE_BIT_COUNT < sizeof(v) * 8)
; 543  :                 {
; 544  :                     // _UINT64_T  1 
; 545  : 
; 546  :                     __UNIT_TYPE u_bit_count = u->UNIT_BIT_COUNT;
; 547  :                     _UINT32_T v_hi;
; 548  :                     _UINT32_T v_lo = _FROMDWORDTOWORD(v, &v_hi);
; 549  :                     if (v_hi == 0)
; 550  :                     {
; 551  :                         // y  32bit 
; 552  :                         __UNIT_TYPE v_bit_count = sizeof(v_lo) * 8 - _LZCNT_ALT_32(v_lo);
; 553  :                         if (u_bit_count < v_bit_count)
; 554  :                         {
; 555  :                             // 
; 556  :                             throw OverflowException(L"");
; 557  :                         }
; 558  :                         else
; 559  :                         {
; 560  :                             ResourceHolderUINT root;
; 561  :                             __UNIT_TYPE w_bit_count = u_bit_count;
; 562  :                             NUMBER_HEADER* w = root.AllocateNumber(w_bit_count);
; 563  :                             Subtruct_X_1W(u->BLOCK, u->UNIT_WORD_COUNT, v_lo, w->BLOCK, w->BLOCK_COUNT);
; 564  :                             root.CheckNumber(w);
; 565  :                             CommitNumber(w);
; 566  :                             if (w->IS_ZERO)
; 567  :                             {
; 568  :                                 root.DeallocateNumber(w);
; 569  :                                 w = &number_zero;
; 570  :                             }
; 571  :                             else
; 572  :                                 root.UnlinkNumber(w);
; 573  :                             return (w);
; 574  :                         }
; 575  :                     }
; 576  :                     else
; 577  :                     {
; 578  :                         // y  32bit 
; 579  :                         ResourceHolderUINT root;
; 580  :                         __UNIT_TYPE v_bit_count = sizeof(v) * 8 - _LZCNT_ALT_32(v_hi);
; 581  :                         if (u_bit_count < v_bit_count)
; 582  :                         {
; 583  :                             // 
; 584  :                             throw OverflowException(L"");
; 585  :                         }
; 586  :                         __UNIT_TYPE w_bit_count = u_bit_count;
; 587  :                         NUMBER_HEADER* w = root.AllocateNumber(w_bit_count);
; 588  :                         Subtruct_X_2W(u->BLOCK, u->UNIT_WORD_COUNT, v_hi, v_lo, w->BLOCK, w->BLOCK_COUNT);
; 589  :                         root.CheckNumber(w);
; 590  :                         CommitNumber(w);
; 591  :                         if (w->IS_ZERO)
; 592  :                         {
; 593  :                             root.DeallocateNumber(w);
; 594  :                             w = &number_zero;
; 595  :                         }
; 596  :                         else
; 597  :                             root.UnlinkNumber(w);
; 598  :                         return (w);
; 599  :                     }
; 600  :                 }
; 601  :                 else
; 602  :                 {
; 603  :                     // _UINT64_T  1 
; 604  :                     ResourceHolderUINT root;

  0004f	48 8d 4c 24 38	 lea	 rcx, QWORD PTR root$1[rsp]
  00054	e8 00 00 00 00	 call	 ??0ResourceHolderUINT@Internal@Core@Math@Palmtree@@QEAA@XZ ; Palmtree::Math::Core::Internal::ResourceHolderUINT::ResourceHolderUINT
  00059	90		 npad	 1

; 605  :                     __UNIT_TYPE x_bit_count = u->UNIT_BIT_COUNT;

  0005a	48 8b 55 20	 mov	 rdx, QWORD PTR [rbp+32]
; File z:\sources\lunor\repos\rougemeilland\palmtree.math.core.uint\palmtree.math.core.uint\pmc_inline_func.h

; 469  :             _BitScanReverse64(&pos, x);

  0005e	48 0f bd c6	 bsr	 rax, rsi

; 470  : #elif defined(__GNUC__)
; 471  :             _UINT64_T pos;
; 472  :             __asm__("bsrq %1, %0" : "=r"(pos) : "rm"(x));
; 473  : #else
; 474  : #error unknown compiler
; 475  : #endif
; 476  : #else
; 477  : #error unknown platform
; 478  : #endif
; 479  :             return (sizeof(x) * 8 - 1 - pos);

  00062	b9 3f 00 00 00	 mov	 ecx, 63			; 0000003fH
  00067	2b c8		 sub	 ecx, eax
; File z:\sources\lunor\repos\rougemeilland\palmtree.math.core.uint\palmtree.math.core.uint\pmc_subtruct.cpp

; 606  :                     __UNIT_TYPE y_bit_count = sizeof(v) * 8 - _LZCNT_ALT_UNIT((__UNIT_TYPE)v);

  00069	48 63 c1	 movsxd	 rax, ecx
  0006c	b9 40 00 00 00	 mov	 ecx, 64			; 00000040H
  00071	48 2b c8	 sub	 rcx, rax

; 607  :                     if (x_bit_count < y_bit_count)

  00074	48 3b d1	 cmp	 rdx, rcx
  00077	0f 82 a1 00 00
	00		 jb	 $LN56@PMC_Subtru

; 611  :                     }
; 612  :                     __UNIT_TYPE w_bit_count = x_bit_count;
; 613  :                     NUMBER_HEADER* w = root.AllocateNumber(w_bit_count);

  0007d	48 8d 4c 24 38	 lea	 rcx, QWORD PTR root$1[rsp]
  00082	e8 00 00 00 00	 call	 ?AllocateNumber@ResourceHolderUINT@Internal@Core@Math@Palmtree@@QEAAPEAU__tag_NUMBER_HEADER@2345@_K@Z ; Palmtree::Math::Core::Internal::ResourceHolderUINT::AllocateNumber
  00087	48 8b f8	 mov	 rdi, rax

; 614  :                     Subtruct_X_1W(u->BLOCK, u->UNIT_WORD_COUNT, (__UNIT_TYPE)v, w->BLOCK, w->BLOCK_COUNT);

  0008a	48 8b 58 38	 mov	 rbx, QWORD PTR [rax+56]
  0008e	4c 8b 48 40	 mov	 r9, QWORD PTR [rax+64]
  00092	4c 8b 45 18	 mov	 r8, QWORD PTR [rbp+24]
  00096	48 8b 55 40	 mov	 rdx, QWORD PTR [rbp+64]

; 86   :         char c = _SUBTRUCT_UNIT(0, *up++, v, wp++);

  0009a	4d 8b d9	 mov	 r11, r9
  0009d	49 83 c1 08	 add	 r9, 8
  000a1	4c 8b 12	 mov	 r10, QWORD PTR [rdx]
  000a4	48 83 c2 08	 add	 rdx, 8
; File z:\sources\lunor\repos\rougemeilland\palmtree.math.core.uint\palmtree.math.core.uint\pmc_inline_func.h

; 202  :             return (_subborrow_u64(borrow, u, v, w));

  000a8	4c 2b d6	 sub	 r10, rsi
  000ab	0f 92 c1	 setb	 cl
  000ae	4d 89 13	 mov	 QWORD PTR [r11], r10
; File z:\sources\lunor\repos\rougemeilland\palmtree.math.core.uint\palmtree.math.core.uint\pmc_subtruct.cpp

; 87   :         --u_count;

  000b1	49 ff c8	 dec	 r8

; 88   :         --w_count;

  000b4	48 ff cb	 dec	 rbx

; 89   : 
; 90   :         // 
; 91   :         DoBorrow(c, up, u_count, wp, w_count);

  000b7	48 89 5c 24 20	 mov	 QWORD PTR [rsp+32], rbx
  000bc	e8 00 00 00 00	 call	 ?DoBorrow@Internal@Core@Math@Palmtree@@YAXDPEA_K_K01@Z ; Palmtree::Math::Core::Internal::DoBorrow

; 615  :                     root.CheckNumber(w);

  000c1	48 8b d7	 mov	 rdx, rdi
  000c4	48 8d 4c 24 38	 lea	 rcx, QWORD PTR root$1[rsp]
  000c9	e8 00 00 00 00	 call	 ?CheckNumber@ResourceHolderUINT@Internal@Core@Math@Palmtree@@QEAAXPEAU__tag_NUMBER_HEADER@2345@@Z ; Palmtree::Math::Core::Internal::ResourceHolderUINT::CheckNumber

; 616  :                     CommitNumber(w);

  000ce	48 8b cf	 mov	 rcx, rdi
  000d1	e8 00 00 00 00	 call	 ?CommitNumber@Internal@Core@Math@Palmtree@@YAXPEAU__tag_NUMBER_HEADER@1234@@Z ; Palmtree::Math::Core::Internal::CommitNumber

; 617  :                     if (w->IS_ZERO)

  000d6	48 8b d7	 mov	 rdx, rdi
  000d9	48 8d 4c 24 38	 lea	 rcx, QWORD PTR root$1[rsp]
  000de	f6 47 08 01	 test	 BYTE PTR [rdi+8], 1
  000e2	74 0e		 je	 SHORT $LN20@PMC_Subtru

; 618  :                     {
; 619  :                         root.DeallocateNumber(w);

  000e4	e8 00 00 00 00	 call	 ?DeallocateNumber@ResourceHolderUINT@Internal@Core@Math@Palmtree@@QEAAXPEAU__tag_NUMBER_HEADER@2345@@Z ; Palmtree::Math::Core::Internal::ResourceHolderUINT::DeallocateNumber

; 620  :                         w = &number_zero;

  000e9	48 8d 3d 00 00
	00 00		 lea	 rdi, OFFSET FLAT:?number_zero@Internal@Core@Math@Palmtree@@3U__tag_NUMBER_HEADER@1234@A ; Palmtree::Math::Core::Internal::number_zero

; 621  :                     }
; 622  :                     else

  000f0	eb 06		 jmp	 SHORT $LN21@PMC_Subtru
$LN20@PMC_Subtru:

; 623  :                         root.UnlinkNumber(w);

  000f2	e8 00 00 00 00	 call	 ?UnlinkNumber@ResourceHolderUINT@Internal@Core@Math@Palmtree@@QEAAXPEAU__tag_NUMBER_HEADER@2345@@Z ; Palmtree::Math::Core::Internal::ResourceHolderUINT::UnlinkNumber
  000f7	90		 npad	 1
$LN21@PMC_Subtru:

; 624  :                     return (w);

  000f8	48 8d 4c 24 38	 lea	 rcx, QWORD PTR root$1[rsp]
  000fd	e8 00 00 00 00	 call	 ??1ResourceHolderUINT@Internal@Core@Math@Palmtree@@UEAA@XZ ; Palmtree::Math::Core::Internal::ResourceHolderUINT::~ResourceHolderUINT
  00102	48 8b c7	 mov	 rax, rdi
$LN9@PMC_Subtru:

; 625  :                 }
; 626  :             }
; 627  :         }
; 628  :     }

  00105	4c 8d 9c 24 a0
	00 00 00	 lea	 r11, QWORD PTR [rsp+160]
  0010d	49 8b 5b 10	 mov	 rbx, QWORD PTR [r11+16]
  00111	49 8b 6b 18	 mov	 rbp, QWORD PTR [r11+24]
  00115	49 8b 73 20	 mov	 rsi, QWORD PTR [r11+32]
  00119	49 8b e3	 mov	 rsp, r11
  0011c	5f		 pop	 rdi
  0011d	c3		 ret	 0
$LN56@PMC_Subtru:

; 608  :                     {
; 609  :                         // 
; 610  :                         throw OverflowException(L"");

  0011e	48 8d 15 00 00
	00 00		 lea	 rdx, OFFSET FLAT:??_C@_1CK@EKOAHHOC@?$AA?$BL?$PP?$JH?$AAk?$PP?$II?$PP?$IK?$PP?$KK?$PP?$PM?$PP?P?$PP?$PM?$PP?U?$PP?m?$PP?$PM?$AAL?$AAz?$AA?$BP@
  00125	48 8d 4c 24 68	 lea	 rcx, QWORD PTR $T3[rsp]
  0012a	e8 00 00 00 00	 call	 ??0OverflowException@Internal@Core@Math@Palmtree@@QEAA@PEB_W@Z ; Palmtree::Math::Core::Internal::OverflowException::OverflowException
  0012f	48 8d 15 00 00
	00 00		 lea	 rdx, OFFSET FLAT:_TI2?AVOverflowException@Internal@Core@Math@Palmtree@@
  00136	48 8d 4c 24 68	 lea	 rcx, QWORD PTR $T3[rsp]
  0013b	e8 00 00 00 00	 call	 _CxxThrowException
  00140	90		 npad	 1
$LN4@PMC_Subtru:

; 517  :             }
; 518  :             else
; 519  :             {
; 520  :                 // v  0 
; 521  : 
; 522  :                 // 
; 523  :                 throw OverflowException(L"");

  00141	48 8d 15 00 00
	00 00		 lea	 rdx, OFFSET FLAT:??_C@_1CK@EKOAHHOC@?$AA?$BL?$PP?$JH?$AAk?$PP?$II?$PP?$IK?$PP?$KK?$PP?$PM?$PP?P?$PP?$PM?$PP?U?$PP?m?$PP?$PM?$AAL?$AAz?$AA?$BP@
  00148	48 8d 4c 24 38	 lea	 rcx, QWORD PTR $T2[rsp]
  0014d	e8 00 00 00 00	 call	 ??0OverflowException@Internal@Core@Math@Palmtree@@QEAA@PEB_W@Z ; Palmtree::Math::Core::Internal::OverflowException::OverflowException
  00152	48 8d 15 00 00
	00 00		 lea	 rdx, OFFSET FLAT:_TI2?AVOverflowException@Internal@Core@Math@Palmtree@@
  00159	48 8d 4c 24 38	 lea	 rcx, QWORD PTR $T2[rsp]
  0015e	e8 00 00 00 00	 call	 _CxxThrowException
  00163	cc		 int	 3
$LN54@PMC_Subtru:
?PMC_Subtruct_X_L_Imp@Internal@Core@Math@Palmtree@@YAPEAU__tag_NUMBER_HEADER@1234@PEAU51234@_K@Z ENDP ; Palmtree::Math::Core::Internal::PMC_Subtruct_X_L_Imp
_TEXT	ENDS
;	COMDAT text$x
text$x	SEGMENT
root$1 = 56
$T2 = 56
$T3 = 104
u$ = 176
v$ = 184
?dtor$2@?0??PMC_Subtruct_X_L_Imp@Internal@Core@Math@Palmtree@@YAPEAU__tag_NUMBER_HEADER@1234@PEAU51234@_K@Z@4HA PROC ; `Palmtree::Math::Core::Internal::PMC_Subtruct_X_L_Imp'::`1'::dtor$2
  00000	48 8d 8a 38 00
	00 00		 lea	 rcx, QWORD PTR root$1[rdx]
  00007	e9 00 00 00 00	 jmp	 ??1ResourceHolderUINT@Internal@Core@Math@Palmtree@@UEAA@XZ ; Palmtree::Math::Core::Internal::ResourceHolderUINT::~ResourceHolderUINT
?dtor$2@?0??PMC_Subtruct_X_L_Imp@Internal@Core@Math@Palmtree@@YAPEAU__tag_NUMBER_HEADER@1234@PEAU51234@_K@Z@4HA ENDP ; `Palmtree::Math::Core::Internal::PMC_Subtruct_X_L_Imp'::`1'::dtor$2
text$x	ENDS
; Function compile flags: /Ogtpy
;	COMDAT text$x
text$x	SEGMENT
root$1 = 56
$T2 = 56
$T3 = 104
u$ = 176
v$ = 184
?dtor$2@?0??PMC_Subtruct_X_L_Imp@Internal@Core@Math@Palmtree@@YAPEAU__tag_NUMBER_HEADER@1234@PEAU51234@_K@Z@4HA PROC ; `Palmtree::Math::Core::Internal::PMC_Subtruct_X_L_Imp'::`1'::dtor$2
  00000	48 8d 8a 38 00
	00 00		 lea	 rcx, QWORD PTR root$1[rdx]
  00007	e9 00 00 00 00	 jmp	 ??1ResourceHolderUINT@Internal@Core@Math@Palmtree@@UEAA@XZ ; Palmtree::Math::Core::Internal::ResourceHolderUINT::~ResourceHolderUINT
?dtor$2@?0??PMC_Subtruct_X_L_Imp@Internal@Core@Math@Palmtree@@YAPEAU__tag_NUMBER_HEADER@1234@PEAU51234@_K@Z@4HA ENDP ; `Palmtree::Math::Core::Internal::PMC_Subtruct_X_L_Imp'::`1'::dtor$2
text$x	ENDS
; Function compile flags: /Ogtpy
; File z:\sources\lunor\repos\rougemeilland\palmtree.math.core.uint\palmtree.math.core.uint\pmc_subtruct.cpp
; File z:\sources\lunor\repos\rougemeilland\palmtree.math.core.uint\palmtree.math.core.uint\pmc_inline_func.h
; File z:\sources\lunor\repos\rougemeilland\palmtree.math.core.uint\palmtree.math.core.uint\pmc_subtruct.cpp
; File z:\sources\lunor\repos\rougemeilland\palmtree.math.core.uint\palmtree.math.core.uint\pmc_inline_func.h
; File z:\sources\lunor\repos\rougemeilland\palmtree.math.core.uint\palmtree.math.core.uint\pmc_subtruct.cpp
;	COMDAT ?PMC_Subtruct_X_I_Imp@Internal@Core@Math@Palmtree@@YAPEAU__tag_NUMBER_HEADER@1234@PEAU51234@I@Z
_TEXT	SEGMENT
root$1 = 56
$T2 = 56
$T3 = 56
u$ = 128
v$ = 136
?PMC_Subtruct_X_I_Imp@Internal@Core@Math@Palmtree@@YAPEAU__tag_NUMBER_HEADER@1234@PEAU51234@I@Z PROC ; Palmtree::Math::Core::Internal::PMC_Subtruct_X_I_Imp, COMDAT

; 259  :     {

  00000	48 8b c4	 mov	 rax, rsp
  00003	57		 push	 rdi
  00004	48 83 ec 70	 sub	 rsp, 112		; 00000070H
  00008	48 c7 40 b8 fe
	ff ff ff	 mov	 QWORD PTR [rax-72], -2
  00010	48 89 58 08	 mov	 QWORD PTR [rax+8], rbx
  00014	48 89 68 10	 mov	 QWORD PTR [rax+16], rbp
  00018	48 89 70 18	 mov	 QWORD PTR [rax+24], rsi
  0001c	8b f2		 mov	 esi, edx
  0001e	48 8b e9	 mov	 rbp, rcx

; 260  :         if (u->IS_ZERO)

  00021	f6 41 08 01	 test	 BYTE PTR [rcx+8], 1
  00025	74 14		 je	 SHORT $LN2@PMC_Subtru

; 261  :         {
; 262  :             // u  0 
; 263  : 
; 264  :             if (v == 0)

  00027	85 d2		 test	 edx, edx
  00029	0f 85 0b 01 00
	00		 jne	 $LN4@PMC_Subtru

; 265  :             {
; 266  :                 // v  0 
; 267  : 
; 268  :                 // u  v  0  0 
; 269  :                 return (&number_zero);

  0002f	48 8d 05 00 00
	00 00		 lea	 rax, OFFSET FLAT:?number_zero@Internal@Core@Math@Palmtree@@3U__tag_NUMBER_HEADER@1234@A ; Palmtree::Math::Core::Internal::number_zero
  00036	e9 c6 00 00 00	 jmp	 $LN9@PMC_Subtru
$LN2@PMC_Subtru:

; 277  :             }
; 278  :         }
; 279  :         else
; 280  :         {
; 281  :             // u  0 
; 282  : 
; 283  :             if (v == 0)

  0003b	85 d2		 test	 edx, edx
  0003d	75 0a		 jne	 SHORT $LN6@PMC_Subtru

; 284  :             {
; 285  :                 // v  0 
; 286  : 
; 287  :                 //  x  NUMBER_HEADER 
; 288  :                 return (DuplicateNumber(u));

  0003f	e8 00 00 00 00	 call	 ?DuplicateNumber@Internal@Core@Math@Palmtree@@YAPEAU__tag_NUMBER_HEADER@1234@PEAU51234@@Z ; Palmtree::Math::Core::Internal::DuplicateNumber
  00044	e9 b8 00 00 00	 jmp	 $LN9@PMC_Subtru
$LN6@PMC_Subtru:

; 289  :             }
; 290  :             else
; 291  :             {
; 292  :                 // u  v  0 
; 293  : 
; 294  :                 // u  v 
; 295  :                 __UNIT_TYPE u_bit_count = u->UNIT_BIT_COUNT;

  00049	48 8b 59 20	 mov	 rbx, QWORD PTR [rcx+32]
; File z:\sources\lunor\repos\rougemeilland\palmtree.math.core.uint\palmtree.math.core.uint\pmc_inline_func.h

; 426  :             _BitScanReverse(&pos, x);

  0004d	0f bd c6	 bsr	 eax, esi

; 427  : #elif defined(__GNUC__)
; 428  :             __asm__("bsrl %1, %0" : "=r"(pos) : "rm"(x));
; 429  : #else
; 430  : #error unknown compiler
; 431  : #endif
; 432  :             return (sizeof(x) * 8 - 1 - pos);

  00050	b9 1f 00 00 00	 mov	 ecx, 31
  00055	2b c8		 sub	 ecx, eax
; File z:\sources\lunor\repos\rougemeilland\palmtree.math.core.uint\palmtree.math.core.uint\pmc_subtruct.cpp

; 296  :                 __UNIT_TYPE v_bit_count = sizeof(v) * 8 - _LZCNT_ALT_32(v);

  00057	48 63 c1	 movsxd	 rax, ecx
  0005a	b9 20 00 00 00	 mov	 ecx, 32			; 00000020H
  0005f	48 2b c8	 sub	 rcx, rax

; 297  :                 if (u_bit_count < v_bit_count)

  00062	48 3b d9	 cmp	 rbx, rcx
  00065	0f 82 ac 00 00
	00		 jb	 $LN23@PMC_Subtru

; 301  :                 }
; 302  :                 else
; 303  :                 {
; 304  :                     ResourceHolderUINT root;

  0006b	48 8d 4c 24 38	 lea	 rcx, QWORD PTR root$1[rsp]
  00070	e8 00 00 00 00	 call	 ??0ResourceHolderUINT@Internal@Core@Math@Palmtree@@QEAA@XZ ; Palmtree::Math::Core::Internal::ResourceHolderUINT::ResourceHolderUINT
  00075	90		 npad	 1

; 305  :                     __UNIT_TYPE w_bit_count = u_bit_count;
; 306  :                     NUMBER_HEADER* w = root.AllocateNumber(w_bit_count);

  00076	48 8b d3	 mov	 rdx, rbx
  00079	48 8d 4c 24 38	 lea	 rcx, QWORD PTR root$1[rsp]
  0007e	e8 00 00 00 00	 call	 ?AllocateNumber@ResourceHolderUINT@Internal@Core@Math@Palmtree@@QEAAPEAU__tag_NUMBER_HEADER@2345@_K@Z ; Palmtree::Math::Core::Internal::ResourceHolderUINT::AllocateNumber
  00083	48 8b f8	 mov	 rdi, rax

; 307  :                     Subtruct_X_1W(u->BLOCK, u->UNIT_WORD_COUNT, v, w->BLOCK, w->BLOCK_COUNT);

  00086	48 8b 58 38	 mov	 rbx, QWORD PTR [rax+56]
  0008a	4c 8b 48 40	 mov	 r9, QWORD PTR [rax+64]
  0008e	4c 8b 45 18	 mov	 r8, QWORD PTR [rbp+24]
  00092	48 8b 55 40	 mov	 rdx, QWORD PTR [rbp+64]

; 86   :         char c = _SUBTRUCT_UNIT(0, *up++, v, wp++);

  00096	4d 8b d9	 mov	 r11, r9
  00099	49 83 c1 08	 add	 r9, 8
  0009d	4c 8b 12	 mov	 r10, QWORD PTR [rdx]
  000a0	48 83 c2 08	 add	 rdx, 8
; File z:\sources\lunor\repos\rougemeilland\palmtree.math.core.uint\palmtree.math.core.uint\pmc_inline_func.h

; 202  :             return (_subborrow_u64(borrow, u, v, w));

  000a4	4c 2b d6	 sub	 r10, rsi
  000a7	0f 92 c1	 setb	 cl
  000aa	4d 89 13	 mov	 QWORD PTR [r11], r10
; File z:\sources\lunor\repos\rougemeilland\palmtree.math.core.uint\palmtree.math.core.uint\pmc_subtruct.cpp

; 87   :         --u_count;

  000ad	49 ff c8	 dec	 r8

; 88   :         --w_count;

  000b0	48 ff cb	 dec	 rbx

; 89   : 
; 90   :         // 
; 91   :         DoBorrow(c, up, u_count, wp, w_count);

  000b3	48 89 5c 24 20	 mov	 QWORD PTR [rsp+32], rbx
  000b8	e8 00 00 00 00	 call	 ?DoBorrow@Internal@Core@Math@Palmtree@@YAXDPEA_K_K01@Z ; Palmtree::Math::Core::Internal::DoBorrow

; 308  :                     root.CheckNumber(w);

  000bd	48 8b d7	 mov	 rdx, rdi
  000c0	48 8d 4c 24 38	 lea	 rcx, QWORD PTR root$1[rsp]
  000c5	e8 00 00 00 00	 call	 ?CheckNumber@ResourceHolderUINT@Internal@Core@Math@Palmtree@@QEAAXPEAU__tag_NUMBER_HEADER@2345@@Z ; Palmtree::Math::Core::Internal::ResourceHolderUINT::CheckNumber

; 309  :                     CommitNumber(w);

  000ca	48 8b cf	 mov	 rcx, rdi
  000cd	e8 00 00 00 00	 call	 ?CommitNumber@Internal@Core@Math@Palmtree@@YAXPEAU__tag_NUMBER_HEADER@1234@@Z ; Palmtree::Math::Core::Internal::CommitNumber

; 310  :                     if (w->IS_ZERO)

  000d2	48 8b d7	 mov	 rdx, rdi
  000d5	48 8d 4c 24 38	 lea	 rcx, QWORD PTR root$1[rsp]
  000da	f6 47 08 01	 test	 BYTE PTR [rdi+8], 1
  000de	74 0e		 je	 SHORT $LN10@PMC_Subtru

; 311  :                     {
; 312  :                         root.DeallocateNumber(w);

  000e0	e8 00 00 00 00	 call	 ?DeallocateNumber@ResourceHolderUINT@Internal@Core@Math@Palmtree@@QEAAXPEAU__tag_NUMBER_HEADER@2345@@Z ; Palmtree::Math::Core::Internal::ResourceHolderUINT::DeallocateNumber

; 313  :                         w = &number_zero;

  000e5	48 8d 3d 00 00
	00 00		 lea	 rdi, OFFSET FLAT:?number_zero@Internal@Core@Math@Palmtree@@3U__tag_NUMBER_HEADER@1234@A ; Palmtree::Math::Core::Internal::number_zero

; 314  :                     }
; 315  :                     else

  000ec	eb 06		 jmp	 SHORT $LN11@PMC_Subtru
$LN10@PMC_Subtru:

; 316  :                         root.UnlinkNumber(w);

  000ee	e8 00 00 00 00	 call	 ?UnlinkNumber@ResourceHolderUINT@Internal@Core@Math@Palmtree@@QEAAXPEAU__tag_NUMBER_HEADER@2345@@Z ; Palmtree::Math::Core::Internal::ResourceHolderUINT::UnlinkNumber
  000f3	90		 npad	 1
$LN11@PMC_Subtru:

; 317  :                     return (w);

  000f4	48 8d 4c 24 38	 lea	 rcx, QWORD PTR root$1[rsp]
  000f9	e8 00 00 00 00	 call	 ??1ResourceHolderUINT@Internal@Core@Math@Palmtree@@UEAA@XZ ; Palmtree::Math::Core::Internal::ResourceHolderUINT::~ResourceHolderUINT
  000fe	48 8b c7	 mov	 rax, rdi
$LN9@PMC_Subtru:

; 318  :                 }
; 319  :             }
; 320  :         }
; 321  :     }

  00101	4c 8d 5c 24 70	 lea	 r11, QWORD PTR [rsp+112]
  00106	49 8b 5b 10	 mov	 rbx, QWORD PTR [r11+16]
  0010a	49 8b 6b 18	 mov	 rbp, QWORD PTR [r11+24]
  0010e	49 8b 73 20	 mov	 rsi, QWORD PTR [r11+32]
  00112	49 8b e3	 mov	 rsp, r11
  00115	5f		 pop	 rdi
  00116	c3		 ret	 0
$LN23@PMC_Subtru:

; 298  :                 {
; 299  :                     // 
; 300  :                     throw OverflowException(L"");

  00117	48 8d 15 00 00
	00 00		 lea	 rdx, OFFSET FLAT:??_C@_1CK@EKOAHHOC@?$AA?$BL?$PP?$JH?$AAk?$PP?$II?$PP?$IK?$PP?$KK?$PP?$PM?$PP?P?$PP?$PM?$PP?U?$PP?m?$PP?$PM?$AAL?$AAz?$AA?$BP@
  0011e	48 8d 4c 24 38	 lea	 rcx, QWORD PTR $T2[rsp]
  00123	e8 00 00 00 00	 call	 ??0OverflowException@Internal@Core@Math@Palmtree@@QEAA@PEB_W@Z ; Palmtree::Math::Core::Internal::OverflowException::OverflowException
  00128	48 8d 15 00 00
	00 00		 lea	 rdx, OFFSET FLAT:_TI2?AVOverflowException@Internal@Core@Math@Palmtree@@
  0012f	48 8d 4c 24 38	 lea	 rcx, QWORD PTR $T2[rsp]
  00134	e8 00 00 00 00	 call	 _CxxThrowException
  00139	cc		 int	 3
$LN4@PMC_Subtru:

; 270  :             }
; 271  :             else
; 272  :             {
; 273  :                 // v  0 
; 274  : 
; 275  :                 // 
; 276  :                 throw OverflowException(L"");

  0013a	48 8d 15 00 00
	00 00		 lea	 rdx, OFFSET FLAT:??_C@_1CK@EKOAHHOC@?$AA?$BL?$PP?$JH?$AAk?$PP?$II?$PP?$IK?$PP?$KK?$PP?$PM?$PP?P?$PP?$PM?$PP?U?$PP?m?$PP?$PM?$AAL?$AAz?$AA?$BP@
  00141	48 8d 4c 24 38	 lea	 rcx, QWORD PTR $T3[rsp]
  00146	e8 00 00 00 00	 call	 ??0OverflowException@Internal@Core@Math@Palmtree@@QEAA@PEB_W@Z ; Palmtree::Math::Core::Internal::OverflowException::OverflowException
  0014b	48 8d 15 00 00
	00 00		 lea	 rdx, OFFSET FLAT:_TI2?AVOverflowException@Internal@Core@Math@Palmtree@@
  00152	48 8d 4c 24 38	 lea	 rcx, QWORD PTR $T3[rsp]
  00157	e8 00 00 00 00	 call	 _CxxThrowException
  0015c	cc		 int	 3
$LN21@PMC_Subtru:
?PMC_Subtruct_X_I_Imp@Internal@Core@Math@Palmtree@@YAPEAU__tag_NUMBER_HEADER@1234@PEAU51234@I@Z ENDP ; Palmtree::Math::Core::Internal::PMC_Subtruct_X_I_Imp
_TEXT	ENDS
;	COMDAT text$x
text$x	SEGMENT
root$1 = 56
$T2 = 56
$T3 = 56
u$ = 128
v$ = 136
?dtor$0@?0??PMC_Subtruct_X_I_Imp@Internal@Core@Math@Palmtree@@YAPEAU__tag_NUMBER_HEADER@1234@PEAU51234@I@Z@4HA PROC ; `Palmtree::Math::Core::Internal::PMC_Subtruct_X_I_Imp'::`1'::dtor$0
  00000	48 8d 8a 38 00
	00 00		 lea	 rcx, QWORD PTR root$1[rdx]
  00007	e9 00 00 00 00	 jmp	 ??1ResourceHolderUINT@Internal@Core@Math@Palmtree@@UEAA@XZ ; Palmtree::Math::Core::Internal::ResourceHolderUINT::~ResourceHolderUINT
?dtor$0@?0??PMC_Subtruct_X_I_Imp@Internal@Core@Math@Palmtree@@YAPEAU__tag_NUMBER_HEADER@1234@PEAU51234@I@Z@4HA ENDP ; `Palmtree::Math::Core::Internal::PMC_Subtruct_X_I_Imp'::`1'::dtor$0
text$x	ENDS
; Function compile flags: /Ogtpy
;	COMDAT text$x
text$x	SEGMENT
root$1 = 56
$T2 = 56
$T3 = 56
u$ = 128
v$ = 136
?dtor$0@?0??PMC_Subtruct_X_I_Imp@Internal@Core@Math@Palmtree@@YAPEAU__tag_NUMBER_HEADER@1234@PEAU51234@I@Z@4HA PROC ; `Palmtree::Math::Core::Internal::PMC_Subtruct_X_I_Imp'::`1'::dtor$0
  00000	48 8d 8a 38 00
	00 00		 lea	 rcx, QWORD PTR root$1[rdx]
  00007	e9 00 00 00 00	 jmp	 ??1ResourceHolderUINT@Internal@Core@Math@Palmtree@@UEAA@XZ ; Palmtree::Math::Core::Internal::ResourceHolderUINT::~ResourceHolderUINT
?dtor$0@?0??PMC_Subtruct_X_I_Imp@Internal@Core@Math@Palmtree@@YAPEAU__tag_NUMBER_HEADER@1234@PEAU51234@I@Z@4HA ENDP ; `Palmtree::Math::Core::Internal::PMC_Subtruct_X_I_Imp'::`1'::dtor$0
text$x	ENDS
; Function compile flags: /Ogtpy
; File z:\sources\lunor\repos\rougemeilland\palmtree.math.core.uint\palmtree.math.core.uint\pmc_subtruct.cpp
; File z:\sources\lunor\repos\rougemeilland\palmtree.math.core.uint\palmtree.math.core.uint\pmc_inline_func.h
; File z:\sources\lunor\repos\rougemeilland\palmtree.math.core.uint\palmtree.math.core.uint\pmc_subtruct.cpp
; File z:\sources\lunor\repos\rougemeilland\palmtree.math.core.uint\palmtree.math.core.uint\pmc_inline_func.h
; File z:\sources\lunor\repos\rougemeilland\palmtree.math.core.uint\palmtree.math.core.uint\pmc_subtruct.cpp
; File z:\sources\lunor\repos\rougemeilland\palmtree.math.core.uint\palmtree.math.core.uint\pmc_inline_func.h
; File z:\sources\lunor\repos\rougemeilland\palmtree.math.core.uint\palmtree.math.core.uint\pmc_subtruct.cpp
;	COMDAT ?Subtruct_X_2W@Internal@Core@Math@Palmtree@@YAXPEA_K_K1101@Z
_TEXT	SEGMENT
$T1 = 48
up$ = 112
u_count$ = 120
v_hi$ = 128
v_lo$ = 136
wp$ = 144
w_count$ = 152
?Subtruct_X_2W@Internal@Core@Math@Palmtree@@YAXPEA_K_K1101@Z PROC ; Palmtree::Math::Core::Internal::Subtruct_X_2W, COMDAT

; 96   :     {

  00000	48 83 ec 68	 sub	 rsp, 104		; 00000068H
  00004	4d 8b d8	 mov	 r11, r8
  00007	4d 8b d1	 mov	 r10, r9
  0000a	4c 8b c2	 mov	 r8, rdx
  0000d	48 8b d1	 mov	 rdx, rcx

; 97   :         if (u_count < 2)

  00010	49 83 f8 02	 cmp	 r8, 2
  00014	72 48		 jb	 SHORT $LN11@Subtruct_X

; 103  :         }
; 104  :         else
; 105  :         {
; 106  :             // x  2 
; 107  : 
; 108  :             // 
; 109  :             char c = _SUBTRUCT_UNIT(0, *up++, v_lo, wp++);

  00016	48 8b 01	 mov	 rax, QWORD PTR [rcx]
  00019	4c 8b 8c 24 90
	00 00 00	 mov	 r9, QWORD PTR wp$[rsp]
; File z:\sources\lunor\repos\rougemeilland\palmtree.math.core.uint\palmtree.math.core.uint\pmc_inline_func.h

; 202  :             return (_subborrow_u64(borrow, u, v, w));

  00021	49 2b c2	 sub	 rax, r10
  00024	49 89 01	 mov	 QWORD PTR [r9], rax
; File z:\sources\lunor\repos\rougemeilland\palmtree.math.core.uint\palmtree.math.core.uint\pmc_subtruct.cpp

; 112  :             c = _SUBTRUCT_UNIT(c, *up++, v_hi, wp++);

  00027	48 8b 41 08	 mov	 rax, QWORD PTR [rcx+8]
; File z:\sources\lunor\repos\rougemeilland\palmtree.math.core.uint\palmtree.math.core.uint\pmc_inline_func.h

; 202  :             return (_subborrow_u64(borrow, u, v, w));

  0002b	49 1b c3	 sbb	 rax, r11
  0002e	49 89 41 08	 mov	 QWORD PTR [r9+8], rax
; File z:\sources\lunor\repos\rougemeilland\palmtree.math.core.uint\palmtree.math.core.uint\pmc_subtruct.cpp

; 114  :             w_count -= 2;

  00032	48 8b 84 24 98
	00 00 00	 mov	 rax, QWORD PTR w_count$[rsp]
; File z:\sources\lunor\repos\rougemeilland\palmtree.math.core.uint\palmtree.math.core.uint\pmc_inline_func.h

; 202  :             return (_subborrow_u64(borrow, u, v, w));

  0003a	0f 92 c1	 setb	 cl
; File z:\sources\lunor\repos\rougemeilland\palmtree.math.core.uint\palmtree.math.core.uint\pmc_subtruct.cpp

; 114  :             w_count -= 2;

  0003d	48 83 c0 fe	 add	 rax, -2
  00041	49 83 c1 10	 add	 r9, 16
  00045	49 83 c0 fe	 add	 r8, -2

; 115  : 
; 116  :             // 
; 117  :             DoBorrow(c, up, u_count, wp, w_count);

  00049	48 89 84 24 90
	00 00 00	 mov	 QWORD PTR wp$[rsp], rax
  00051	48 83 c2 10	 add	 rdx, 16

; 118  :         }
; 119  :     }

  00055	48 83 c4 68	 add	 rsp, 104		; 00000068H

; 115  : 
; 116  :             // 
; 117  :             DoBorrow(c, up, u_count, wp, w_count);

  00059	e9 00 00 00 00	 jmp	 ?DoBorrow@Internal@Core@Math@Palmtree@@YAXDPEA_K_K01@Z ; Palmtree::Math::Core::Internal::DoBorrow
$LN11@Subtruct_X:

; 98   :         {
; 99   :             // u  1 
; 100  : 
; 101  :             // 
; 102  :             throw OverflowException(L"");

  0005e	48 8d 15 00 00
	00 00		 lea	 rdx, OFFSET FLAT:??_C@_1CK@EKOAHHOC@?$AA?$BL?$PP?$JH?$AAk?$PP?$II?$PP?$IK?$PP?$KK?$PP?$PM?$PP?P?$PP?$PM?$PP?U?$PP?m?$PP?$PM?$AAL?$AAz?$AA?$BP@
  00065	48 8d 4c 24 30	 lea	 rcx, QWORD PTR $T1[rsp]
  0006a	e8 00 00 00 00	 call	 ??0OverflowException@Internal@Core@Math@Palmtree@@QEAA@PEB_W@Z ; Palmtree::Math::Core::Internal::OverflowException::OverflowException
  0006f	48 8d 15 00 00
	00 00		 lea	 rdx, OFFSET FLAT:_TI2?AVOverflowException@Internal@Core@Math@Palmtree@@
  00076	48 8d 4c 24 30	 lea	 rcx, QWORD PTR $T1[rsp]
  0007b	e8 00 00 00 00	 call	 _CxxThrowException
  00080	cc		 int	 3
$LN9@Subtruct_X:
?Subtruct_X_2W@Internal@Core@Math@Palmtree@@YAXPEA_K_K1101@Z ENDP ; Palmtree::Math::Core::Internal::Subtruct_X_2W
_TEXT	ENDS
; Function compile flags: /Ogtpy
; File z:\sources\lunor\repos\rougemeilland\palmtree.math.core.uint\palmtree.math.core.uint\pmc_subtruct.cpp
; File z:\sources\lunor\repos\rougemeilland\palmtree.math.core.uint\palmtree.math.core.uint\pmc_inline_func.h
; File z:\sources\lunor\repos\rougemeilland\palmtree.math.core.uint\palmtree.math.core.uint\pmc_subtruct.cpp
; File z:\sources\lunor\repos\rougemeilland\palmtree.math.core.uint\palmtree.math.core.uint\pmc_inline_func.h
; File z:\sources\lunor\repos\rougemeilland\palmtree.math.core.uint\palmtree.math.core.uint\pmc_subtruct.cpp
; File z:\sources\lunor\repos\rougemeilland\palmtree.math.core.uint\palmtree.math.core.uint\pmc_inline_func.h
; File z:\sources\lunor\repos\rougemeilland\palmtree.math.core.uint\palmtree.math.core.uint\pmc_subtruct.cpp
;	COMDAT ?Subtruct_X_1W@Internal@Core@Math@Palmtree@@YAXPEA_K_K101@Z
_TEXT	SEGMENT
up$ = 8
u_count$ = 16
v$ = 24
wp$ = 32
w_count$ = 40
?Subtruct_X_1W@Internal@Core@Math@Palmtree@@YAXPEA_K_K101@Z PROC ; Palmtree::Math::Core::Internal::Subtruct_X_1W, COMDAT

; 85   :         // 
; 86   :         char c = _SUBTRUCT_UNIT(0, *up++, v, wp++);

  00000	48 8b 01	 mov	 rax, QWORD PTR [rcx]
  00003	4c 8b d1	 mov	 r10, rcx
; File z:\sources\lunor\repos\rougemeilland\palmtree.math.core.uint\palmtree.math.core.uint\pmc_inline_func.h

; 202  :             return (_subborrow_u64(borrow, u, v, w));

  00006	49 2b c0	 sub	 rax, r8
; File z:\sources\lunor\repos\rougemeilland\palmtree.math.core.uint\palmtree.math.core.uint\pmc_subtruct.cpp

; 87   :         --u_count;

  00009	4c 8d 42 ff	 lea	 r8, QWORD PTR [rdx-1]
; File z:\sources\lunor\repos\rougemeilland\palmtree.math.core.uint\palmtree.math.core.uint\pmc_inline_func.h

; 202  :             return (_subborrow_u64(borrow, u, v, w));

  0000d	49 89 01	 mov	 QWORD PTR [r9], rax
; File z:\sources\lunor\repos\rougemeilland\palmtree.math.core.uint\palmtree.math.core.uint\pmc_subtruct.cpp

; 88   :         --w_count;

  00010	48 8b 44 24 28	 mov	 rax, QWORD PTR w_count$[rsp]
; File z:\sources\lunor\repos\rougemeilland\palmtree.math.core.uint\palmtree.math.core.uint\pmc_inline_func.h

; 202  :             return (_subborrow_u64(borrow, u, v, w));

  00015	0f 92 c1	 setb	 cl
; File z:\sources\lunor\repos\rougemeilland\palmtree.math.core.uint\palmtree.math.core.uint\pmc_subtruct.cpp

; 88   :         --w_count;

  00018	48 ff c8	 dec	 rax
  0001b	49 8d 52 08	 lea	 rdx, QWORD PTR [r10+8]
  0001f	49 83 c1 08	 add	 r9, 8

; 89   : 
; 90   :         // 
; 91   :         DoBorrow(c, up, u_count, wp, w_count);

  00023	48 89 44 24 28	 mov	 QWORD PTR w_count$[rsp], rax
  00028	e9 00 00 00 00	 jmp	 ?DoBorrow@Internal@Core@Math@Palmtree@@YAXDPEA_K_K01@Z ; Palmtree::Math::Core::Internal::DoBorrow
?Subtruct_X_1W@Internal@Core@Math@Palmtree@@YAXPEA_K_K101@Z ENDP ; Palmtree::Math::Core::Internal::Subtruct_X_1W
_TEXT	ENDS
; Function compile flags: /Ogtpy
; File z:\sources\lunor\repos\rougemeilland\palmtree.math.core.uint\palmtree.math.core.uint\pmc_subtruct.cpp
; File z:\sources\lunor\repos\rougemeilland\palmtree.math.core.uint\palmtree.math.core.uint\pmc_inline_func.h
; File z:\sources\lunor\repos\rougemeilland\palmtree.math.core.uint\palmtree.math.core.uint\pmc_subtruct.cpp
;	COMDAT ?DoBorrow@Internal@Core@Math@Palmtree@@YAXDPEA_K_K01@Z
_TEXT	SEGMENT
$T1 = 32
c$ = 96
up$ = 104
u_count$ = 112
wp$ = 120
w_count$ = 128
?DoBorrow@Internal@Core@Math@Palmtree@@YAXDPEA_K_K01@Z PROC ; Palmtree::Math::Core::Internal::DoBorrow, COMDAT

; 38   :     {

  00000	48 83 ec 58	 sub	 rsp, 88			; 00000058H

; 39   :         // 
; 40   :         for (;;)
; 41   :         {
; 42   :             if (u_count <= 0)

  00004	4d 85 c0	 test	 r8, r8
  00007	74 2c		 je	 SHORT $LN17@DoBorrow
  00009	0f 1f 80 00 00
	00 00		 npad	 7
$LL2@DoBorrow:

; 52   :                 }
; 53   : 
; 54   :                 // x
; 55   : 
; 56   :                 return;
; 57   :             }
; 58   :             else if (c)

  00010	84 c9		 test	 cl, cl
  00012	74 27		 je	 SHORT $LN16@DoBorrow

; 59   :             {
; 60   :                 // x
; 61   : 
; 62   :                 // 
; 63   :                 c = _SUBTRUCT_UNIT(c, *up++, 0, wp++);

  00014	48 8b 02	 mov	 rax, QWORD PTR [rdx]
  00017	4d 8b d1	 mov	 r10, r9
  0001a	49 83 c1 08	 add	 r9, 8
  0001e	48 83 c2 08	 add	 rdx, 8
; File z:\sources\lunor\repos\rougemeilland\palmtree.math.core.uint\palmtree.math.core.uint\pmc_inline_func.h

; 202  :             return (_subborrow_u64(borrow, u, v, w));

  00022	80 c1 ff	 add	 cl, -1
  00025	48 83 d8 00	 sbb	 rax, 0
  00029	49 89 02	 mov	 QWORD PTR [r10], rax
  0002c	0f 92 c1	 setb	 cl
; File z:\sources\lunor\repos\rougemeilland\palmtree.math.core.uint\palmtree.math.core.uint\pmc_subtruct.cpp

; 64   :                 --u_count;

  0002f	49 83 e8 01	 sub	 r8, 1
  00033	75 db		 jne	 SHORT $LL2@DoBorrow
$LN17@DoBorrow:

; 43   :             {
; 44   :                 // x 
; 45   : 
; 46   :                 if (c)

  00035	84 c9		 test	 cl, cl
  00037	75 2d		 jne	 SHORT $LN25@DoBorrow
  00039	eb 26		 jmp	 SHORT $LN6@DoBorrow
$LN16@DoBorrow:

; 65   :                 --w_count;
; 66   :             }
; 67   :             else
; 68   :             {
; 69   :                 // x
; 70   : 
; 71   :                 // xz
; 72   :                 while (u_count > 0)

  0003b	4d 85 c0	 test	 r8, r8
  0003e	74 21		 je	 SHORT $LN6@DoBorrow
  00040	49 2b d1	 sub	 rdx, r9
  00043	0f 1f 40 00 66
	0f 1f 84 00 00
	00 00 00	 npad	 13
$LL5@DoBorrow:

; 73   :                 {
; 74   :                     *wp++ = *up++;

  00050	4a 8b 04 0a	 mov	 rax, QWORD PTR [rdx+r9]
  00054	49 89 01	 mov	 QWORD PTR [r9], rax
  00057	4d 8d 49 08	 lea	 r9, QWORD PTR [r9+8]

; 75   :                     --u_count;

  0005b	49 83 e8 01	 sub	 r8, 1
  0005f	75 ef		 jne	 SHORT $LL5@DoBorrow
$LN6@DoBorrow:

; 76   :                     --w_count;
; 77   :                 }
; 78   :                 return;
; 79   :             }
; 80   :         }
; 81   :     }

  00061	48 83 c4 58	 add	 rsp, 88			; 00000058H
  00065	c3		 ret	 0
$LN25@DoBorrow:

; 47   :                 {
; 48   :                     // 
; 49   : 
; 50   :                     // 
; 51   :                     throw OverflowException(L"");

  00066	48 8d 15 00 00
	00 00		 lea	 rdx, OFFSET FLAT:??_C@_1CK@EKOAHHOC@?$AA?$BL?$PP?$JH?$AAk?$PP?$II?$PP?$IK?$PP?$KK?$PP?$PM?$PP?P?$PP?$PM?$PP?U?$PP?m?$PP?$PM?$AAL?$AAz?$AA?$BP@
  0006d	48 8d 4c 24 20	 lea	 rcx, QWORD PTR $T1[rsp]
  00072	e8 00 00 00 00	 call	 ??0OverflowException@Internal@Core@Math@Palmtree@@QEAA@PEB_W@Z ; Palmtree::Math::Core::Internal::OverflowException::OverflowException
  00077	48 8d 15 00 00
	00 00		 lea	 rdx, OFFSET FLAT:_TI2?AVOverflowException@Internal@Core@Math@Palmtree@@
  0007e	48 8d 4c 24 20	 lea	 rcx, QWORD PTR $T1[rsp]
  00083	e8 00 00 00 00	 call	 _CxxThrowException
  00088	cc		 int	 3
$LN23@DoBorrow:
?DoBorrow@Internal@Core@Math@Palmtree@@YAXDPEA_K_K01@Z ENDP ; Palmtree::Math::Core::Internal::DoBorrow
_TEXT	ENDS
; Function compile flags: /Ogtpy
; File z:\sources\lunor\repos\rougemeilland\palmtree.math.core.uint\palmtree.math.core.uint\autogenerated_inline_func.h
; File z:\sources\lunor\repos\rougemeilland\palmtree.math.core.uint\palmtree.math.core.uint\pmc_inline_func.h
; File z:\sources\lunor\repos\rougemeilland\palmtree.math.core.uint\palmtree.math.core.uint\autogenerated_inline_func.h
; File z:\sources\lunor\repos\rougemeilland\palmtree.math.core.uint\palmtree.math.core.uint\pmc_inline_func.h
; File z:\sources\lunor\repos\rougemeilland\palmtree.math.core.uint\palmtree.math.core.uint\autogenerated_inline_func.h
;	COMDAT _SUBTRUCT_2WORDS_SBB
_TEXT	SEGMENT
c$ = 8
xp$ = 16
yp$ = 24
zp$ = 32
_SUBTRUCT_2WORDS_SBB PROC				; COMDAT

; 2315 : #ifdef _MSC_VER
; 2316 :     c = _SUBTRUCT_UNIT(c, xp[0], yp[0], &zp[0]);

  00000	48 8b 02	 mov	 rax, QWORD PTR [rdx]
; File z:\sources\lunor\repos\rougemeilland\palmtree.math.core.uint\palmtree.math.core.uint\pmc_inline_func.h

; 202  :             return (_subborrow_u64(borrow, u, v, w));

  00003	80 c1 ff	 add	 cl, -1
  00006	49 1b 00	 sbb	 rax, QWORD PTR [r8]
  00009	49 89 01	 mov	 QWORD PTR [r9], rax
; File z:\sources\lunor\repos\rougemeilland\palmtree.math.core.uint\palmtree.math.core.uint\autogenerated_inline_func.h

; 2317 :     c = _SUBTRUCT_UNIT(c, xp[1], yp[1], &zp[1]);

  0000c	48 8b 4a 08	 mov	 rcx, QWORD PTR [rdx+8]
; File z:\sources\lunor\repos\rougemeilland\palmtree.math.core.uint\palmtree.math.core.uint\pmc_inline_func.h

; 202  :             return (_subborrow_u64(borrow, u, v, w));

  00010	49 1b 48 08	 sbb	 rcx, QWORD PTR [r8+8]
  00014	49 89 49 08	 mov	 QWORD PTR [r9+8], rcx
  00018	0f 92 c0	 setb	 al
; File z:\sources\lunor\repos\rougemeilland\palmtree.math.core.uint\palmtree.math.core.uint\autogenerated_inline_func.h

; 2354 : }

  0001b	c3		 ret	 0
_SUBTRUCT_2WORDS_SBB ENDP
_TEXT	ENDS
; Function compile flags: /Ogtpy
; File z:\sources\lunor\repos\rougemeilland\palmtree.math.core.uint\palmtree.math.core.uint\autogenerated_inline_func.h
; File z:\sources\lunor\repos\rougemeilland\palmtree.math.core.uint\palmtree.math.core.uint\pmc_inline_func.h
; File z:\sources\lunor\repos\rougemeilland\palmtree.math.core.uint\palmtree.math.core.uint\autogenerated_inline_func.h
; File z:\sources\lunor\repos\rougemeilland\palmtree.math.core.uint\palmtree.math.core.uint\pmc_inline_func.h
; File z:\sources\lunor\repos\rougemeilland\palmtree.math.core.uint\palmtree.math.core.uint\autogenerated_inline_func.h
; File z:\sources\lunor\repos\rougemeilland\palmtree.math.core.uint\palmtree.math.core.uint\pmc_inline_func.h
; File z:\sources\lunor\repos\rougemeilland\palmtree.math.core.uint\palmtree.math.core.uint\autogenerated_inline_func.h
; File z:\sources\lunor\repos\rougemeilland\palmtree.math.core.uint\palmtree.math.core.uint\pmc_inline_func.h
; File z:\sources\lunor\repos\rougemeilland\palmtree.math.core.uint\palmtree.math.core.uint\autogenerated_inline_func.h
;	COMDAT _SUBTRUCT_4WORDS_SBB
_TEXT	SEGMENT
c$ = 8
xp$ = 16
yp$ = 24
zp$ = 32
_SUBTRUCT_4WORDS_SBB PROC				; COMDAT

; 2129 : #ifdef _MSC_VER
; 2130 :     c = _SUBTRUCT_UNIT(c, xp[0], yp[0], &zp[0]);

  00000	48 8b 02	 mov	 rax, QWORD PTR [rdx]
; File z:\sources\lunor\repos\rougemeilland\palmtree.math.core.uint\palmtree.math.core.uint\pmc_inline_func.h

; 202  :             return (_subborrow_u64(borrow, u, v, w));

  00003	80 c1 ff	 add	 cl, -1
  00006	49 1b 00	 sbb	 rax, QWORD PTR [r8]
  00009	49 89 01	 mov	 QWORD PTR [r9], rax
; File z:\sources\lunor\repos\rougemeilland\palmtree.math.core.uint\palmtree.math.core.uint\autogenerated_inline_func.h

; 2131 :     c = _SUBTRUCT_UNIT(c, xp[1], yp[1], &zp[1]);

  0000c	48 8b 42 08	 mov	 rax, QWORD PTR [rdx+8]
; File z:\sources\lunor\repos\rougemeilland\palmtree.math.core.uint\palmtree.math.core.uint\pmc_inline_func.h

; 202  :             return (_subborrow_u64(borrow, u, v, w));

  00010	49 1b 40 08	 sbb	 rax, QWORD PTR [r8+8]
  00014	49 89 41 08	 mov	 QWORD PTR [r9+8], rax
; File z:\sources\lunor\repos\rougemeilland\palmtree.math.core.uint\palmtree.math.core.uint\autogenerated_inline_func.h

; 2132 :     c = _SUBTRUCT_UNIT(c, xp[2], yp[2], &zp[2]);

  00018	48 8b 42 10	 mov	 rax, QWORD PTR [rdx+16]
; File z:\sources\lunor\repos\rougemeilland\palmtree.math.core.uint\palmtree.math.core.uint\pmc_inline_func.h

; 202  :             return (_subborrow_u64(borrow, u, v, w));

  0001c	49 1b 40 10	 sbb	 rax, QWORD PTR [r8+16]
  00020	49 89 41 10	 mov	 QWORD PTR [r9+16], rax
; File z:\sources\lunor\repos\rougemeilland\palmtree.math.core.uint\palmtree.math.core.uint\autogenerated_inline_func.h

; 2133 :     c = _SUBTRUCT_UNIT(c, xp[3], yp[3], &zp[3]);

  00024	48 8b 4a 18	 mov	 rcx, QWORD PTR [rdx+24]
; File z:\sources\lunor\repos\rougemeilland\palmtree.math.core.uint\palmtree.math.core.uint\pmc_inline_func.h

; 202  :             return (_subborrow_u64(borrow, u, v, w));

  00028	49 1b 48 18	 sbb	 rcx, QWORD PTR [r8+24]
  0002c	49 89 49 18	 mov	 QWORD PTR [r9+24], rcx
  00030	0f 92 c0	 setb	 al
; File z:\sources\lunor\repos\rougemeilland\palmtree.math.core.uint\palmtree.math.core.uint\autogenerated_inline_func.h

; 2182 : }

  00033	c3		 ret	 0
_SUBTRUCT_4WORDS_SBB ENDP
_TEXT	ENDS
; Function compile flags: /Ogtpy
; File z:\sources\lunor\repos\rougemeilland\palmtree.math.core.uint\palmtree.math.core.uint\autogenerated_inline_func.h
; File z:\sources\lunor\repos\rougemeilland\palmtree.math.core.uint\palmtree.math.core.uint\pmc_inline_func.h
; File z:\sources\lunor\repos\rougemeilland\palmtree.math.core.uint\palmtree.math.core.uint\autogenerated_inline_func.h
; File z:\sources\lunor\repos\rougemeilland\palmtree.math.core.uint\palmtree.math.core.uint\pmc_inline_func.h
; File z:\sources\lunor\repos\rougemeilland\palmtree.math.core.uint\palmtree.math.core.uint\autogenerated_inline_func.h
; File z:\sources\lunor\repos\rougemeilland\palmtree.math.core.uint\palmtree.math.core.uint\pmc_inline_func.h
; File z:\sources\lunor\repos\rougemeilland\palmtree.math.core.uint\palmtree.math.core.uint\autogenerated_inline_func.h
; File z:\sources\lunor\repos\rougemeilland\palmtree.math.core.uint\palmtree.math.core.uint\pmc_inline_func.h
; File z:\sources\lunor\repos\rougemeilland\palmtree.math.core.uint\palmtree.math.core.uint\autogenerated_inline_func.h
; File z:\sources\lunor\repos\rougemeilland\palmtree.math.core.uint\palmtree.math.core.uint\pmc_inline_func.h
; File z:\sources\lunor\repos\rougemeilland\palmtree.math.core.uint\palmtree.math.core.uint\autogenerated_inline_func.h
; File z:\sources\lunor\repos\rougemeilland\palmtree.math.core.uint\palmtree.math.core.uint\pmc_inline_func.h
; File z:\sources\lunor\repos\rougemeilland\palmtree.math.core.uint\palmtree.math.core.uint\autogenerated_inline_func.h
; File z:\sources\lunor\repos\rougemeilland\palmtree.math.core.uint\palmtree.math.core.uint\pmc_inline_func.h
; File z:\sources\lunor\repos\rougemeilland\palmtree.math.core.uint\palmtree.math.core.uint\autogenerated_inline_func.h
; File z:\sources\lunor\repos\rougemeilland\palmtree.math.core.uint\palmtree.math.core.uint\pmc_inline_func.h
; File z:\sources\lunor\repos\rougemeilland\palmtree.math.core.uint\palmtree.math.core.uint\autogenerated_inline_func.h
;	COMDAT _SUBTRUCT_8WORDS_SBB
_TEXT	SEGMENT
c$ = 8
xp$ = 16
yp$ = 24
zp$ = 32
_SUBTRUCT_8WORDS_SBB PROC				; COMDAT

; 1873 : #ifdef _MSC_VER
; 1874 :     c = _SUBTRUCT_UNIT(c, xp[0], yp[0], &zp[0]);

  00000	48 8b 02	 mov	 rax, QWORD PTR [rdx]
; File z:\sources\lunor\repos\rougemeilland\palmtree.math.core.uint\palmtree.math.core.uint\pmc_inline_func.h

; 202  :             return (_subborrow_u64(borrow, u, v, w));

  00003	80 c1 ff	 add	 cl, -1
  00006	49 1b 00	 sbb	 rax, QWORD PTR [r8]
  00009	49 89 01	 mov	 QWORD PTR [r9], rax
; File z:\sources\lunor\repos\rougemeilland\palmtree.math.core.uint\palmtree.math.core.uint\autogenerated_inline_func.h

; 1875 :     c = _SUBTRUCT_UNIT(c, xp[1], yp[1], &zp[1]);

  0000c	48 8b 42 08	 mov	 rax, QWORD PTR [rdx+8]
; File z:\sources\lunor\repos\rougemeilland\palmtree.math.core.uint\palmtree.math.core.uint\pmc_inline_func.h

; 202  :             return (_subborrow_u64(borrow, u, v, w));

  00010	49 1b 40 08	 sbb	 rax, QWORD PTR [r8+8]
  00014	49 89 41 08	 mov	 QWORD PTR [r9+8], rax
; File z:\sources\lunor\repos\rougemeilland\palmtree.math.core.uint\palmtree.math.core.uint\autogenerated_inline_func.h

; 1876 :     c = _SUBTRUCT_UNIT(c, xp[2], yp[2], &zp[2]);

  00018	48 8b 42 10	 mov	 rax, QWORD PTR [rdx+16]
; File z:\sources\lunor\repos\rougemeilland\palmtree.math.core.uint\palmtree.math.core.uint\pmc_inline_func.h

; 202  :             return (_subborrow_u64(borrow, u, v, w));

  0001c	49 1b 40 10	 sbb	 rax, QWORD PTR [r8+16]
  00020	49 89 41 10	 mov	 QWORD PTR [r9+16], rax
; File z:\sources\lunor\repos\rougemeilland\palmtree.math.core.uint\palmtree.math.core.uint\autogenerated_inline_func.h

; 1877 :     c = _SUBTRUCT_UNIT(c, xp[3], yp[3], &zp[3]);

  00024	48 8b 42 18	 mov	 rax, QWORD PTR [rdx+24]
; File z:\sources\lunor\repos\rougemeilland\palmtree.math.core.uint\palmtree.math.core.uint\pmc_inline_func.h

; 202  :             return (_subborrow_u64(borrow, u, v, w));

  00028	49 1b 40 18	 sbb	 rax, QWORD PTR [r8+24]
  0002c	49 89 41 18	 mov	 QWORD PTR [r9+24], rax
; File z:\sources\lunor\repos\rougemeilland\palmtree.math.core.uint\palmtree.math.core.uint\autogenerated_inline_func.h

; 1878 :     c = _SUBTRUCT_UNIT(c, xp[4], yp[4], &zp[4]);

  00030	48 8b 42 20	 mov	 rax, QWORD PTR [rdx+32]
; File z:\sources\lunor\repos\rougemeilland\palmtree.math.core.uint\palmtree.math.core.uint\pmc_inline_func.h

; 202  :             return (_subborrow_u64(borrow, u, v, w));

  00034	49 1b 40 20	 sbb	 rax, QWORD PTR [r8+32]
  00038	49 89 41 20	 mov	 QWORD PTR [r9+32], rax
; File z:\sources\lunor\repos\rougemeilland\palmtree.math.core.uint\palmtree.math.core.uint\autogenerated_inline_func.h

; 1879 :     c = _SUBTRUCT_UNIT(c, xp[5], yp[5], &zp[5]);

  0003c	48 8b 42 28	 mov	 rax, QWORD PTR [rdx+40]
; File z:\sources\lunor\repos\rougemeilland\palmtree.math.core.uint\palmtree.math.core.uint\pmc_inline_func.h

; 202  :             return (_subborrow_u64(borrow, u, v, w));

  00040	49 1b 40 28	 sbb	 rax, QWORD PTR [r8+40]
  00044	49 89 41 28	 mov	 QWORD PTR [r9+40], rax
; File z:\sources\lunor\repos\rougemeilland\palmtree.math.core.uint\palmtree.math.core.uint\autogenerated_inline_func.h

; 1880 :     c = _SUBTRUCT_UNIT(c, xp[6], yp[6], &zp[6]);

  00048	48 8b 42 30	 mov	 rax, QWORD PTR [rdx+48]
; File z:\sources\lunor\repos\rougemeilland\palmtree.math.core.uint\palmtree.math.core.uint\pmc_inline_func.h

; 202  :             return (_subborrow_u64(borrow, u, v, w));

  0004c	49 1b 40 30	 sbb	 rax, QWORD PTR [r8+48]
  00050	49 89 41 30	 mov	 QWORD PTR [r9+48], rax
; File z:\sources\lunor\repos\rougemeilland\palmtree.math.core.uint\palmtree.math.core.uint\autogenerated_inline_func.h

; 1881 :     c = _SUBTRUCT_UNIT(c, xp[7], yp[7], &zp[7]);

  00054	48 8b 4a 38	 mov	 rcx, QWORD PTR [rdx+56]
; File z:\sources\lunor\repos\rougemeilland\palmtree.math.core.uint\palmtree.math.core.uint\pmc_inline_func.h

; 202  :             return (_subborrow_u64(borrow, u, v, w));

  00058	49 1b 48 38	 sbb	 rcx, QWORD PTR [r8+56]
  0005c	49 89 49 38	 mov	 QWORD PTR [r9+56], rcx
  00060	0f 92 c0	 setb	 al
; File z:\sources\lunor\repos\rougemeilland\palmtree.math.core.uint\palmtree.math.core.uint\autogenerated_inline_func.h

; 1954 : }

  00063	c3		 ret	 0
_SUBTRUCT_8WORDS_SBB ENDP
_TEXT	ENDS
; Function compile flags: /Ogtpy
; File z:\sources\lunor\repos\rougemeilland\palmtree.math.core.uint\palmtree.math.core.uint\autogenerated_inline_func.h
; File z:\sources\lunor\repos\rougemeilland\palmtree.math.core.uint\palmtree.math.core.uint\pmc_inline_func.h
; File z:\sources\lunor\repos\rougemeilland\palmtree.math.core.uint\palmtree.math.core.uint\autogenerated_inline_func.h
; File z:\sources\lunor\repos\rougemeilland\palmtree.math.core.uint\palmtree.math.core.uint\pmc_inline_func.h
; File z:\sources\lunor\repos\rougemeilland\palmtree.math.core.uint\palmtree.math.core.uint\autogenerated_inline_func.h
; File z:\sources\lunor\repos\rougemeilland\palmtree.math.core.uint\palmtree.math.core.uint\pmc_inline_func.h
; File z:\sources\lunor\repos\rougemeilland\palmtree.math.core.uint\palmtree.math.core.uint\autogenerated_inline_func.h
; File z:\sources\lunor\repos\rougemeilland\palmtree.math.core.uint\palmtree.math.core.uint\pmc_inline_func.h
; File z:\sources\lunor\repos\rougemeilland\palmtree.math.core.uint\palmtree.math.core.uint\autogenerated_inline_func.h
; File z:\sources\lunor\repos\rougemeilland\palmtree.math.core.uint\palmtree.math.core.uint\pmc_inline_func.h
; File z:\sources\lunor\repos\rougemeilland\palmtree.math.core.uint\palmtree.math.core.uint\autogenerated_inline_func.h
; File z:\sources\lunor\repos\rougemeilland\palmtree.math.core.uint\palmtree.math.core.uint\pmc_inline_func.h
; File z:\sources\lunor\repos\rougemeilland\palmtree.math.core.uint\palmtree.math.core.uint\autogenerated_inline_func.h
; File z:\sources\lunor\repos\rougemeilland\palmtree.math.core.uint\palmtree.math.core.uint\pmc_inline_func.h
; File z:\sources\lunor\repos\rougemeilland\palmtree.math.core.uint\palmtree.math.core.uint\autogenerated_inline_func.h
; File z:\sources\lunor\repos\rougemeilland\palmtree.math.core.uint\palmtree.math.core.uint\pmc_inline_func.h
; File z:\sources\lunor\repos\rougemeilland\palmtree.math.core.uint\palmtree.math.core.uint\autogenerated_inline_func.h
; File z:\sources\lunor\repos\rougemeilland\palmtree.math.core.uint\palmtree.math.core.uint\pmc_inline_func.h
; File z:\sources\lunor\repos\rougemeilland\palmtree.math.core.uint\palmtree.math.core.uint\autogenerated_inline_func.h
; File z:\sources\lunor\repos\rougemeilland\palmtree.math.core.uint\palmtree.math.core.uint\pmc_inline_func.h
; File z:\sources\lunor\repos\rougemeilland\palmtree.math.core.uint\palmtree.math.core.uint\autogenerated_inline_func.h
; File z:\sources\lunor\repos\rougemeilland\palmtree.math.core.uint\palmtree.math.core.uint\pmc_inline_func.h
; File z:\sources\lunor\repos\rougemeilland\palmtree.math.core.uint\palmtree.math.core.uint\autogenerated_inline_func.h
; File z:\sources\lunor\repos\rougemeilland\palmtree.math.core.uint\palmtree.math.core.uint\pmc_inline_func.h
; File z:\sources\lunor\repos\rougemeilland\palmtree.math.core.uint\palmtree.math.core.uint\autogenerated_inline_func.h
; File z:\sources\lunor\repos\rougemeilland\palmtree.math.core.uint\palmtree.math.core.uint\pmc_inline_func.h
; File z:\sources\lunor\repos\rougemeilland\palmtree.math.core.uint\palmtree.math.core.uint\autogenerated_inline_func.h
; File z:\sources\lunor\repos\rougemeilland\palmtree.math.core.uint\palmtree.math.core.uint\pmc_inline_func.h
; File z:\sources\lunor\repos\rougemeilland\palmtree.math.core.uint\palmtree.math.core.uint\autogenerated_inline_func.h
; File z:\sources\lunor\repos\rougemeilland\palmtree.math.core.uint\palmtree.math.core.uint\pmc_inline_func.h
; File z:\sources\lunor\repos\rougemeilland\palmtree.math.core.uint\palmtree.math.core.uint\autogenerated_inline_func.h
; File z:\sources\lunor\repos\rougemeilland\palmtree.math.core.uint\palmtree.math.core.uint\pmc_inline_func.h
; File z:\sources\lunor\repos\rougemeilland\palmtree.math.core.uint\palmtree.math.core.uint\autogenerated_inline_func.h
;	COMDAT _SUBTRUCT_16WORDS_SBB
_TEXT	SEGMENT
c$ = 8
xp$ = 16
yp$ = 24
zp$ = 32
_SUBTRUCT_16WORDS_SBB PROC				; COMDAT

; 1477 : #ifdef _MSC_VER
; 1478 :     c = _SUBTRUCT_UNIT(c, xp[0], yp[0], &zp[0]);

  00000	48 8b 02	 mov	 rax, QWORD PTR [rdx]
; File z:\sources\lunor\repos\rougemeilland\palmtree.math.core.uint\palmtree.math.core.uint\pmc_inline_func.h

; 202  :             return (_subborrow_u64(borrow, u, v, w));

  00003	80 c1 ff	 add	 cl, -1
  00006	49 1b 00	 sbb	 rax, QWORD PTR [r8]
  00009	49 89 01	 mov	 QWORD PTR [r9], rax
; File z:\sources\lunor\repos\rougemeilland\palmtree.math.core.uint\palmtree.math.core.uint\autogenerated_inline_func.h

; 1479 :     c = _SUBTRUCT_UNIT(c, xp[1], yp[1], &zp[1]);

  0000c	48 8b 42 08	 mov	 rax, QWORD PTR [rdx+8]
; File z:\sources\lunor\repos\rougemeilland\palmtree.math.core.uint\palmtree.math.core.uint\pmc_inline_func.h

; 202  :             return (_subborrow_u64(borrow, u, v, w));

  00010	49 1b 40 08	 sbb	 rax, QWORD PTR [r8+8]
  00014	49 89 41 08	 mov	 QWORD PTR [r9+8], rax
; File z:\sources\lunor\repos\rougemeilland\palmtree.math.core.uint\palmtree.math.core.uint\autogenerated_inline_func.h

; 1480 :     c = _SUBTRUCT_UNIT(c, xp[2], yp[2], &zp[2]);

  00018	48 8b 42 10	 mov	 rax, QWORD PTR [rdx+16]
; File z:\sources\lunor\repos\rougemeilland\palmtree.math.core.uint\palmtree.math.core.uint\pmc_inline_func.h

; 202  :             return (_subborrow_u64(borrow, u, v, w));

  0001c	49 1b 40 10	 sbb	 rax, QWORD PTR [r8+16]
  00020	49 89 41 10	 mov	 QWORD PTR [r9+16], rax
; File z:\sources\lunor\repos\rougemeilland\palmtree.math.core.uint\palmtree.math.core.uint\autogenerated_inline_func.h

; 1481 :     c = _SUBTRUCT_UNIT(c, xp[3], yp[3], &zp[3]);

  00024	48 8b 42 18	 mov	 rax, QWORD PTR [rdx+24]
; File z:\sources\lunor\repos\rougemeilland\palmtree.math.core.uint\palmtree.math.core.uint\pmc_inline_func.h

; 202  :             return (_subborrow_u64(borrow, u, v, w));

  00028	49 1b 40 18	 sbb	 rax, QWORD PTR [r8+24]
  0002c	49 89 41 18	 mov	 QWORD PTR [r9+24], rax
; File z:\sources\lunor\repos\rougemeilland\palmtree.math.core.uint\palmtree.math.core.uint\autogenerated_inline_func.h

; 1482 :     c = _SUBTRUCT_UNIT(c, xp[4], yp[4], &zp[4]);

  00030	48 8b 42 20	 mov	 rax, QWORD PTR [rdx+32]
; File z:\sources\lunor\repos\rougemeilland\palmtree.math.core.uint\palmtree.math.core.uint\pmc_inline_func.h

; 202  :             return (_subborrow_u64(borrow, u, v, w));

  00034	49 1b 40 20	 sbb	 rax, QWORD PTR [r8+32]
  00038	49 89 41 20	 mov	 QWORD PTR [r9+32], rax
; File z:\sources\lunor\repos\rougemeilland\palmtree.math.core.uint\palmtree.math.core.uint\autogenerated_inline_func.h

; 1483 :     c = _SUBTRUCT_UNIT(c, xp[5], yp[5], &zp[5]);

  0003c	48 8b 42 28	 mov	 rax, QWORD PTR [rdx+40]
; File z:\sources\lunor\repos\rougemeilland\palmtree.math.core.uint\palmtree.math.core.uint\pmc_inline_func.h

; 202  :             return (_subborrow_u64(borrow, u, v, w));

  00040	49 1b 40 28	 sbb	 rax, QWORD PTR [r8+40]
  00044	49 89 41 28	 mov	 QWORD PTR [r9+40], rax
; File z:\sources\lunor\repos\rougemeilland\palmtree.math.core.uint\palmtree.math.core.uint\autogenerated_inline_func.h

; 1484 :     c = _SUBTRUCT_UNIT(c, xp[6], yp[6], &zp[6]);

  00048	48 8b 42 30	 mov	 rax, QWORD PTR [rdx+48]
; File z:\sources\lunor\repos\rougemeilland\palmtree.math.core.uint\palmtree.math.core.uint\pmc_inline_func.h

; 202  :             return (_subborrow_u64(borrow, u, v, w));

  0004c	49 1b 40 30	 sbb	 rax, QWORD PTR [r8+48]
  00050	49 89 41 30	 mov	 QWORD PTR [r9+48], rax
; File z:\sources\lunor\repos\rougemeilland\palmtree.math.core.uint\palmtree.math.core.uint\autogenerated_inline_func.h

; 1485 :     c = _SUBTRUCT_UNIT(c, xp[7], yp[7], &zp[7]);

  00054	48 8b 42 38	 mov	 rax, QWORD PTR [rdx+56]
; File z:\sources\lunor\repos\rougemeilland\palmtree.math.core.uint\palmtree.math.core.uint\pmc_inline_func.h

; 202  :             return (_subborrow_u64(borrow, u, v, w));

  00058	49 1b 40 38	 sbb	 rax, QWORD PTR [r8+56]
  0005c	49 89 41 38	 mov	 QWORD PTR [r9+56], rax
; File z:\sources\lunor\repos\rougemeilland\palmtree.math.core.uint\palmtree.math.core.uint\autogenerated_inline_func.h

; 1486 :     c = _SUBTRUCT_UNIT(c, xp[8], yp[8], &zp[8]);

  00060	48 8b 42 40	 mov	 rax, QWORD PTR [rdx+64]
; File z:\sources\lunor\repos\rougemeilland\palmtree.math.core.uint\palmtree.math.core.uint\pmc_inline_func.h

; 202  :             return (_subborrow_u64(borrow, u, v, w));

  00064	49 1b 40 40	 sbb	 rax, QWORD PTR [r8+64]
  00068	49 89 41 40	 mov	 QWORD PTR [r9+64], rax
; File z:\sources\lunor\repos\rougemeilland\palmtree.math.core.uint\palmtree.math.core.uint\autogenerated_inline_func.h

; 1487 :     c = _SUBTRUCT_UNIT(c, xp[9], yp[9], &zp[9]);

  0006c	48 8b 42 48	 mov	 rax, QWORD PTR [rdx+72]
; File z:\sources\lunor\repos\rougemeilland\palmtree.math.core.uint\palmtree.math.core.uint\pmc_inline_func.h

; 202  :             return (_subborrow_u64(borrow, u, v, w));

  00070	49 1b 40 48	 sbb	 rax, QWORD PTR [r8+72]
  00074	49 89 41 48	 mov	 QWORD PTR [r9+72], rax
; File z:\sources\lunor\repos\rougemeilland\palmtree.math.core.uint\palmtree.math.core.uint\autogenerated_inline_func.h

; 1488 :     c = _SUBTRUCT_UNIT(c, xp[10], yp[10], &zp[10]);

  00078	48 8b 42 50	 mov	 rax, QWORD PTR [rdx+80]
; File z:\sources\lunor\repos\rougemeilland\palmtree.math.core.uint\palmtree.math.core.uint\pmc_inline_func.h

; 202  :             return (_subborrow_u64(borrow, u, v, w));

  0007c	49 1b 40 50	 sbb	 rax, QWORD PTR [r8+80]
  00080	49 89 41 50	 mov	 QWORD PTR [r9+80], rax
; File z:\sources\lunor\repos\rougemeilland\palmtree.math.core.uint\palmtree.math.core.uint\autogenerated_inline_func.h

; 1489 :     c = _SUBTRUCT_UNIT(c, xp[11], yp[11], &zp[11]);

  00084	48 8b 42 58	 mov	 rax, QWORD PTR [rdx+88]
; File z:\sources\lunor\repos\rougemeilland\palmtree.math.core.uint\palmtree.math.core.uint\pmc_inline_func.h

; 202  :             return (_subborrow_u64(borrow, u, v, w));

  00088	49 1b 40 58	 sbb	 rax, QWORD PTR [r8+88]
  0008c	49 89 41 58	 mov	 QWORD PTR [r9+88], rax
; File z:\sources\lunor\repos\rougemeilland\palmtree.math.core.uint\palmtree.math.core.uint\autogenerated_inline_func.h

; 1490 :     c = _SUBTRUCT_UNIT(c, xp[12], yp[12], &zp[12]);

  00090	48 8b 42 60	 mov	 rax, QWORD PTR [rdx+96]
; File z:\sources\lunor\repos\rougemeilland\palmtree.math.core.uint\palmtree.math.core.uint\pmc_inline_func.h

; 202  :             return (_subborrow_u64(borrow, u, v, w));

  00094	49 1b 40 60	 sbb	 rax, QWORD PTR [r8+96]
  00098	49 89 41 60	 mov	 QWORD PTR [r9+96], rax
; File z:\sources\lunor\repos\rougemeilland\palmtree.math.core.uint\palmtree.math.core.uint\autogenerated_inline_func.h

; 1491 :     c = _SUBTRUCT_UNIT(c, xp[13], yp[13], &zp[13]);

  0009c	48 8b 42 68	 mov	 rax, QWORD PTR [rdx+104]
; File z:\sources\lunor\repos\rougemeilland\palmtree.math.core.uint\palmtree.math.core.uint\pmc_inline_func.h

; 202  :             return (_subborrow_u64(borrow, u, v, w));

  000a0	49 1b 40 68	 sbb	 rax, QWORD PTR [r8+104]
  000a4	49 89 41 68	 mov	 QWORD PTR [r9+104], rax
; File z:\sources\lunor\repos\rougemeilland\palmtree.math.core.uint\palmtree.math.core.uint\autogenerated_inline_func.h

; 1492 :     c = _SUBTRUCT_UNIT(c, xp[14], yp[14], &zp[14]);

  000a8	48 8b 42 70	 mov	 rax, QWORD PTR [rdx+112]
; File z:\sources\lunor\repos\rougemeilland\palmtree.math.core.uint\palmtree.math.core.uint\pmc_inline_func.h

; 202  :             return (_subborrow_u64(borrow, u, v, w));

  000ac	49 1b 40 70	 sbb	 rax, QWORD PTR [r8+112]
  000b0	49 89 41 70	 mov	 QWORD PTR [r9+112], rax
; File z:\sources\lunor\repos\rougemeilland\palmtree.math.core.uint\palmtree.math.core.uint\autogenerated_inline_func.h

; 1493 :     c = _SUBTRUCT_UNIT(c, xp[15], yp[15], &zp[15]);

  000b4	48 8b 4a 78	 mov	 rcx, QWORD PTR [rdx+120]
; File z:\sources\lunor\repos\rougemeilland\palmtree.math.core.uint\palmtree.math.core.uint\pmc_inline_func.h

; 202  :             return (_subborrow_u64(borrow, u, v, w));

  000b8	49 1b 48 78	 sbb	 rcx, QWORD PTR [r8+120]
  000bc	49 89 49 78	 mov	 QWORD PTR [r9+120], rcx
  000c0	0f 92 c0	 setb	 al
; File z:\sources\lunor\repos\rougemeilland\palmtree.math.core.uint\palmtree.math.core.uint\autogenerated_inline_func.h

; 1614 : }

  000c3	c3		 ret	 0
_SUBTRUCT_16WORDS_SBB ENDP
_TEXT	ENDS
; Function compile flags: /Ogtpy
; File z:\sources\lunor\repos\rougemeilland\palmtree.math.core.uint\palmtree.math.core.uint\autogenerated_inline_func.h
; File z:\sources\lunor\repos\rougemeilland\palmtree.math.core.uint\palmtree.math.core.uint\pmc_inline_func.h
; File z:\sources\lunor\repos\rougemeilland\palmtree.math.core.uint\palmtree.math.core.uint\autogenerated_inline_func.h
; File z:\sources\lunor\repos\rougemeilland\palmtree.math.core.uint\palmtree.math.core.uint\pmc_inline_func.h
; File z:\sources\lunor\repos\rougemeilland\palmtree.math.core.uint\palmtree.math.core.uint\autogenerated_inline_func.h
; File z:\sources\lunor\repos\rougemeilland\palmtree.math.core.uint\palmtree.math.core.uint\pmc_inline_func.h
; File z:\sources\lunor\repos\rougemeilland\palmtree.math.core.uint\palmtree.math.core.uint\autogenerated_inline_func.h
; File z:\sources\lunor\repos\rougemeilland\palmtree.math.core.uint\palmtree.math.core.uint\pmc_inline_func.h
; File z:\sources\lunor\repos\rougemeilland\palmtree.math.core.uint\palmtree.math.core.uint\autogenerated_inline_func.h
; File z:\sources\lunor\repos\rougemeilland\palmtree.math.core.uint\palmtree.math.core.uint\pmc_inline_func.h
; File z:\sources\lunor\repos\rougemeilland\palmtree.math.core.uint\palmtree.math.core.uint\autogenerated_inline_func.h
; File z:\sources\lunor\repos\rougemeilland\palmtree.math.core.uint\palmtree.math.core.uint\pmc_inline_func.h
; File z:\sources\lunor\repos\rougemeilland\palmtree.math.core.uint\palmtree.math.core.uint\autogenerated_inline_func.h
; File z:\sources\lunor\repos\rougemeilland\palmtree.math.core.uint\palmtree.math.core.uint\pmc_inline_func.h
; File z:\sources\lunor\repos\rougemeilland\palmtree.math.core.uint\palmtree.math.core.uint\autogenerated_inline_func.h
; File z:\sources\lunor\repos\rougemeilland\palmtree.math.core.uint\palmtree.math.core.uint\pmc_inline_func.h
; File z:\sources\lunor\repos\rougemeilland\palmtree.math.core.uint\palmtree.math.core.uint\autogenerated_inline_func.h
; File z:\sources\lunor\repos\rougemeilland\palmtree.math.core.uint\palmtree.math.core.uint\pmc_inline_func.h
; File z:\sources\lunor\repos\rougemeilland\palmtree.math.core.uint\palmtree.math.core.uint\autogenerated_inline_func.h
; File z:\sources\lunor\repos\rougemeilland\palmtree.math.core.uint\palmtree.math.core.uint\pmc_inline_func.h
; File z:\sources\lunor\repos\rougemeilland\palmtree.math.core.uint\palmtree.math.core.uint\autogenerated_inline_func.h
; File z:\sources\lunor\repos\rougemeilland\palmtree.math.core.uint\palmtree.math.core.uint\pmc_inline_func.h
; File z:\sources\lunor\repos\rougemeilland\palmtree.math.core.uint\palmtree.math.core.uint\autogenerated_inline_func.h
; File z:\sources\lunor\repos\rougemeilland\palmtree.math.core.uint\palmtree.math.core.uint\pmc_inline_func.h
; File z:\sources\lunor\repos\rougemeilland\palmtree.math.core.uint\palmtree.math.core.uint\autogenerated_inline_func.h
; File z:\sources\lunor\repos\rougemeilland\palmtree.math.core.uint\palmtree.math.core.uint\pmc_inline_func.h
; File z:\sources\lunor\repos\rougemeilland\palmtree.math.core.uint\palmtree.math.core.uint\autogenerated_inline_func.h
; File z:\sources\lunor\repos\rougemeilland\palmtree.math.core.uint\palmtree.math.core.uint\pmc_inline_func.h
; File z:\sources\lunor\repos\rougemeilland\palmtree.math.core.uint\palmtree.math.core.uint\autogenerated_inline_func.h
; File z:\sources\lunor\repos\rougemeilland\palmtree.math.core.uint\palmtree.math.core.uint\pmc_inline_func.h
; File z:\sources\lunor\repos\rougemeilland\palmtree.math.core.uint\palmtree.math.core.uint\autogenerated_inline_func.h
; File z:\sources\lunor\repos\rougemeilland\palmtree.math.core.uint\palmtree.math.core.uint\pmc_inline_func.h
; File z:\sources\lunor\repos\rougemeilland\palmtree.math.core.uint\palmtree.math.core.uint\autogenerated_inline_func.h
; File z:\sources\lunor\repos\rougemeilland\palmtree.math.core.uint\palmtree.math.core.uint\pmc_inline_func.h
; File z:\sources\lunor\repos\rougemeilland\palmtree.math.core.uint\palmtree.math.core.uint\autogenerated_inline_func.h
; File z:\sources\lunor\repos\rougemeilland\palmtree.math.core.uint\palmtree.math.core.uint\pmc_inline_func.h
; File z:\sources\lunor\repos\rougemeilland\palmtree.math.core.uint\palmtree.math.core.uint\autogenerated_inline_func.h
; File z:\sources\lunor\repos\rougemeilland\palmtree.math.core.uint\palmtree.math.core.uint\pmc_inline_func.h
; File z:\sources\lunor\repos\rougemeilland\palmtree.math.core.uint\palmtree.math.core.uint\autogenerated_inline_func.h
; File z:\sources\lunor\repos\rougemeilland\palmtree.math.core.uint\palmtree.math.core.uint\pmc_inline_func.h
; File z:\sources\lunor\repos\rougemeilland\palmtree.math.core.uint\palmtree.math.core.uint\autogenerated_inline_func.h
; File z:\sources\lunor\repos\rougemeilland\palmtree.math.core.uint\palmtree.math.core.uint\pmc_inline_func.h
; File z:\sources\lunor\repos\rougemeilland\palmtree.math.core.uint\palmtree.math.core.uint\autogenerated_inline_func.h
; File z:\sources\lunor\repos\rougemeilland\palmtree.math.core.uint\palmtree.math.core.uint\pmc_inline_func.h
; File z:\sources\lunor\repos\rougemeilland\palmtree.math.core.uint\palmtree.math.core.uint\autogenerated_inline_func.h
; File z:\sources\lunor\repos\rougemeilland\palmtree.math.core.uint\palmtree.math.core.uint\pmc_inline_func.h
; File z:\sources\lunor\repos\rougemeilland\palmtree.math.core.uint\palmtree.math.core.uint\autogenerated_inline_func.h
; File z:\sources\lunor\repos\rougemeilland\palmtree.math.core.uint\palmtree.math.core.uint\pmc_inline_func.h
; File z:\sources\lunor\repos\rougemeilland\palmtree.math.core.uint\palmtree.math.core.uint\autogenerated_inline_func.h
; File z:\sources\lunor\repos\rougemeilland\palmtree.math.core.uint\palmtree.math.core.uint\pmc_inline_func.h
; File z:\sources\lunor\repos\rougemeilland\palmtree.math.core.uint\palmtree.math.core.uint\autogenerated_inline_func.h
; File z:\sources\lunor\repos\rougemeilland\palmtree.math.core.uint\palmtree.math.core.uint\pmc_inline_func.h
; File z:\sources\lunor\repos\rougemeilland\palmtree.math.core.uint\palmtree.math.core.uint\autogenerated_inline_func.h
; File z:\sources\lunor\repos\rougemeilland\palmtree.math.core.uint\palmtree.math.core.uint\pmc_inline_func.h
; File z:\sources\lunor\repos\rougemeilland\palmtree.math.core.uint\palmtree.math.core.uint\autogenerated_inline_func.h
; File z:\sources\lunor\repos\rougemeilland\palmtree.math.core.uint\palmtree.math.core.uint\pmc_inline_func.h
; File z:\sources\lunor\repos\rougemeilland\palmtree.math.core.uint\palmtree.math.core.uint\autogenerated_inline_func.h
; File z:\sources\lunor\repos\rougemeilland\palmtree.math.core.uint\palmtree.math.core.uint\pmc_inline_func.h
; File z:\sources\lunor\repos\rougemeilland\palmtree.math.core.uint\palmtree.math.core.uint\autogenerated_inline_func.h
; File z:\sources\lunor\repos\rougemeilland\palmtree.math.core.uint\palmtree.math.core.uint\pmc_inline_func.h
; File z:\sources\lunor\repos\rougemeilland\palmtree.math.core.uint\palmtree.math.core.uint\autogenerated_inline_func.h
; File z:\sources\lunor\repos\rougemeilland\palmtree.math.core.uint\palmtree.math.core.uint\pmc_inline_func.h
; File z:\sources\lunor\repos\rougemeilland\palmtree.math.core.uint\palmtree.math.core.uint\autogenerated_inline_func.h
; File z:\sources\lunor\repos\rougemeilland\palmtree.math.core.uint\palmtree.math.core.uint\pmc_inline_func.h
; File z:\sources\lunor\repos\rougemeilland\palmtree.math.core.uint\palmtree.math.core.uint\autogenerated_inline_func.h
;	COMDAT _SUBTRUCT_32WORDS_SBB
_TEXT	SEGMENT
c$ = 8
xp$ = 16
yp$ = 24
zp$ = 32
_SUBTRUCT_32WORDS_SBB PROC				; COMDAT

; 801  : #ifdef _MSC_VER
; 802  :     c = _SUBTRUCT_UNIT(c, xp[0], yp[0], &zp[0]);

  00000	48 8b 02	 mov	 rax, QWORD PTR [rdx]
; File z:\sources\lunor\repos\rougemeilland\palmtree.math.core.uint\palmtree.math.core.uint\pmc_inline_func.h

; 202  :             return (_subborrow_u64(borrow, u, v, w));

  00003	80 c1 ff	 add	 cl, -1
  00006	49 1b 00	 sbb	 rax, QWORD PTR [r8]
  00009	49 89 01	 mov	 QWORD PTR [r9], rax
; File z:\sources\lunor\repos\rougemeilland\palmtree.math.core.uint\palmtree.math.core.uint\autogenerated_inline_func.h

; 803  :     c = _SUBTRUCT_UNIT(c, xp[1], yp[1], &zp[1]);

  0000c	48 8b 42 08	 mov	 rax, QWORD PTR [rdx+8]
; File z:\sources\lunor\repos\rougemeilland\palmtree.math.core.uint\palmtree.math.core.uint\pmc_inline_func.h

; 202  :             return (_subborrow_u64(borrow, u, v, w));

  00010	49 1b 40 08	 sbb	 rax, QWORD PTR [r8+8]
  00014	49 89 41 08	 mov	 QWORD PTR [r9+8], rax
; File z:\sources\lunor\repos\rougemeilland\palmtree.math.core.uint\palmtree.math.core.uint\autogenerated_inline_func.h

; 804  :     c = _SUBTRUCT_UNIT(c, xp[2], yp[2], &zp[2]);

  00018	48 8b 42 10	 mov	 rax, QWORD PTR [rdx+16]
; File z:\sources\lunor\repos\rougemeilland\palmtree.math.core.uint\palmtree.math.core.uint\pmc_inline_func.h

; 202  :             return (_subborrow_u64(borrow, u, v, w));

  0001c	49 1b 40 10	 sbb	 rax, QWORD PTR [r8+16]
  00020	49 89 41 10	 mov	 QWORD PTR [r9+16], rax
; File z:\sources\lunor\repos\rougemeilland\palmtree.math.core.uint\palmtree.math.core.uint\autogenerated_inline_func.h

; 805  :     c = _SUBTRUCT_UNIT(c, xp[3], yp[3], &zp[3]);

  00024	48 8b 42 18	 mov	 rax, QWORD PTR [rdx+24]
; File z:\sources\lunor\repos\rougemeilland\palmtree.math.core.uint\palmtree.math.core.uint\pmc_inline_func.h

; 202  :             return (_subborrow_u64(borrow, u, v, w));

  00028	49 1b 40 18	 sbb	 rax, QWORD PTR [r8+24]
  0002c	49 89 41 18	 mov	 QWORD PTR [r9+24], rax
; File z:\sources\lunor\repos\rougemeilland\palmtree.math.core.uint\palmtree.math.core.uint\autogenerated_inline_func.h

; 806  :     c = _SUBTRUCT_UNIT(c, xp[4], yp[4], &zp[4]);

  00030	48 8b 42 20	 mov	 rax, QWORD PTR [rdx+32]
; File z:\sources\lunor\repos\rougemeilland\palmtree.math.core.uint\palmtree.math.core.uint\pmc_inline_func.h

; 202  :             return (_subborrow_u64(borrow, u, v, w));

  00034	49 1b 40 20	 sbb	 rax, QWORD PTR [r8+32]
  00038	49 89 41 20	 mov	 QWORD PTR [r9+32], rax
; File z:\sources\lunor\repos\rougemeilland\palmtree.math.core.uint\palmtree.math.core.uint\autogenerated_inline_func.h

; 807  :     c = _SUBTRUCT_UNIT(c, xp[5], yp[5], &zp[5]);

  0003c	48 8b 42 28	 mov	 rax, QWORD PTR [rdx+40]
; File z:\sources\lunor\repos\rougemeilland\palmtree.math.core.uint\palmtree.math.core.uint\pmc_inline_func.h

; 202  :             return (_subborrow_u64(borrow, u, v, w));

  00040	49 1b 40 28	 sbb	 rax, QWORD PTR [r8+40]
  00044	49 89 41 28	 mov	 QWORD PTR [r9+40], rax
; File z:\sources\lunor\repos\rougemeilland\palmtree.math.core.uint\palmtree.math.core.uint\autogenerated_inline_func.h

; 808  :     c = _SUBTRUCT_UNIT(c, xp[6], yp[6], &zp[6]);

  00048	48 8b 42 30	 mov	 rax, QWORD PTR [rdx+48]
; File z:\sources\lunor\repos\rougemeilland\palmtree.math.core.uint\palmtree.math.core.uint\pmc_inline_func.h

; 202  :             return (_subborrow_u64(borrow, u, v, w));

  0004c	49 1b 40 30	 sbb	 rax, QWORD PTR [r8+48]
  00050	49 89 41 30	 mov	 QWORD PTR [r9+48], rax
; File z:\sources\lunor\repos\rougemeilland\palmtree.math.core.uint\palmtree.math.core.uint\autogenerated_inline_func.h

; 809  :     c = _SUBTRUCT_UNIT(c, xp[7], yp[7], &zp[7]);

  00054	48 8b 42 38	 mov	 rax, QWORD PTR [rdx+56]
; File z:\sources\lunor\repos\rougemeilland\palmtree.math.core.uint\palmtree.math.core.uint\pmc_inline_func.h

; 202  :             return (_subborrow_u64(borrow, u, v, w));

  00058	49 1b 40 38	 sbb	 rax, QWORD PTR [r8+56]
  0005c	49 89 41 38	 mov	 QWORD PTR [r9+56], rax
; File z:\sources\lunor\repos\rougemeilland\palmtree.math.core.uint\palmtree.math.core.uint\autogenerated_inline_func.h

; 810  :     c = _SUBTRUCT_UNIT(c, xp[8], yp[8], &zp[8]);

  00060	48 8b 42 40	 mov	 rax, QWORD PTR [rdx+64]
; File z:\sources\lunor\repos\rougemeilland\palmtree.math.core.uint\palmtree.math.core.uint\pmc_inline_func.h

; 202  :             return (_subborrow_u64(borrow, u, v, w));

  00064	49 1b 40 40	 sbb	 rax, QWORD PTR [r8+64]
  00068	49 89 41 40	 mov	 QWORD PTR [r9+64], rax
; File z:\sources\lunor\repos\rougemeilland\palmtree.math.core.uint\palmtree.math.core.uint\autogenerated_inline_func.h

; 811  :     c = _SUBTRUCT_UNIT(c, xp[9], yp[9], &zp[9]);

  0006c	48 8b 42 48	 mov	 rax, QWORD PTR [rdx+72]
; File z:\sources\lunor\repos\rougemeilland\palmtree.math.core.uint\palmtree.math.core.uint\pmc_inline_func.h

; 202  :             return (_subborrow_u64(borrow, u, v, w));

  00070	49 1b 40 48	 sbb	 rax, QWORD PTR [r8+72]
  00074	49 89 41 48	 mov	 QWORD PTR [r9+72], rax
; File z:\sources\lunor\repos\rougemeilland\palmtree.math.core.uint\palmtree.math.core.uint\autogenerated_inline_func.h

; 812  :     c = _SUBTRUCT_UNIT(c, xp[10], yp[10], &zp[10]);

  00078	48 8b 42 50	 mov	 rax, QWORD PTR [rdx+80]
; File z:\sources\lunor\repos\rougemeilland\palmtree.math.core.uint\palmtree.math.core.uint\pmc_inline_func.h

; 202  :             return (_subborrow_u64(borrow, u, v, w));

  0007c	49 1b 40 50	 sbb	 rax, QWORD PTR [r8+80]
  00080	49 89 41 50	 mov	 QWORD PTR [r9+80], rax
; File z:\sources\lunor\repos\rougemeilland\palmtree.math.core.uint\palmtree.math.core.uint\autogenerated_inline_func.h

; 813  :     c = _SUBTRUCT_UNIT(c, xp[11], yp[11], &zp[11]);

  00084	48 8b 42 58	 mov	 rax, QWORD PTR [rdx+88]
; File z:\sources\lunor\repos\rougemeilland\palmtree.math.core.uint\palmtree.math.core.uint\pmc_inline_func.h

; 202  :             return (_subborrow_u64(borrow, u, v, w));

  00088	49 1b 40 58	 sbb	 rax, QWORD PTR [r8+88]
  0008c	49 89 41 58	 mov	 QWORD PTR [r9+88], rax
; File z:\sources\lunor\repos\rougemeilland\palmtree.math.core.uint\palmtree.math.core.uint\autogenerated_inline_func.h

; 814  :     c = _SUBTRUCT_UNIT(c, xp[12], yp[12], &zp[12]);

  00090	48 8b 42 60	 mov	 rax, QWORD PTR [rdx+96]
; File z:\sources\lunor\repos\rougemeilland\palmtree.math.core.uint\palmtree.math.core.uint\pmc_inline_func.h

; 202  :             return (_subborrow_u64(borrow, u, v, w));

  00094	49 1b 40 60	 sbb	 rax, QWORD PTR [r8+96]
  00098	49 89 41 60	 mov	 QWORD PTR [r9+96], rax
; File z:\sources\lunor\repos\rougemeilland\palmtree.math.core.uint\palmtree.math.core.uint\autogenerated_inline_func.h

; 815  :     c = _SUBTRUCT_UNIT(c, xp[13], yp[13], &zp[13]);

  0009c	48 8b 42 68	 mov	 rax, QWORD PTR [rdx+104]
; File z:\sources\lunor\repos\rougemeilland\palmtree.math.core.uint\palmtree.math.core.uint\pmc_inline_func.h

; 202  :             return (_subborrow_u64(borrow, u, v, w));

  000a0	49 1b 40 68	 sbb	 rax, QWORD PTR [r8+104]
  000a4	49 89 41 68	 mov	 QWORD PTR [r9+104], rax
; File z:\sources\lunor\repos\rougemeilland\palmtree.math.core.uint\palmtree.math.core.uint\autogenerated_inline_func.h

; 816  :     c = _SUBTRUCT_UNIT(c, xp[14], yp[14], &zp[14]);

  000a8	48 8b 42 70	 mov	 rax, QWORD PTR [rdx+112]
; File z:\sources\lunor\repos\rougemeilland\palmtree.math.core.uint\palmtree.math.core.uint\pmc_inline_func.h

; 202  :             return (_subborrow_u64(borrow, u, v, w));

  000ac	49 1b 40 70	 sbb	 rax, QWORD PTR [r8+112]
  000b0	49 89 41 70	 mov	 QWORD PTR [r9+112], rax
; File z:\sources\lunor\repos\rougemeilland\palmtree.math.core.uint\palmtree.math.core.uint\autogenerated_inline_func.h

; 817  :     c = _SUBTRUCT_UNIT(c, xp[15], yp[15], &zp[15]);

  000b4	48 8b 42 78	 mov	 rax, QWORD PTR [rdx+120]
; File z:\sources\lunor\repos\rougemeilland\palmtree.math.core.uint\palmtree.math.core.uint\pmc_inline_func.h

; 202  :             return (_subborrow_u64(borrow, u, v, w));

  000b8	49 1b 40 78	 sbb	 rax, QWORD PTR [r8+120]
  000bc	49 89 41 78	 mov	 QWORD PTR [r9+120], rax
; File z:\sources\lunor\repos\rougemeilland\palmtree.math.core.uint\palmtree.math.core.uint\autogenerated_inline_func.h

; 818  :     c = _SUBTRUCT_UNIT(c, xp[16], yp[16], &zp[16]);

  000c0	48 8b 82 80 00
	00 00		 mov	 rax, QWORD PTR [rdx+128]
; File z:\sources\lunor\repos\rougemeilland\palmtree.math.core.uint\palmtree.math.core.uint\pmc_inline_func.h

; 202  :             return (_subborrow_u64(borrow, u, v, w));

  000c7	49 1b 80 80 00
	00 00		 sbb	 rax, QWORD PTR [r8+128]
  000ce	49 89 81 80 00
	00 00		 mov	 QWORD PTR [r9+128], rax
; File z:\sources\lunor\repos\rougemeilland\palmtree.math.core.uint\palmtree.math.core.uint\autogenerated_inline_func.h

; 819  :     c = _SUBTRUCT_UNIT(c, xp[17], yp[17], &zp[17]);

  000d5	48 8b 82 88 00
	00 00		 mov	 rax, QWORD PTR [rdx+136]
; File z:\sources\lunor\repos\rougemeilland\palmtree.math.core.uint\palmtree.math.core.uint\pmc_inline_func.h

; 202  :             return (_subborrow_u64(borrow, u, v, w));

  000dc	49 1b 80 88 00
	00 00		 sbb	 rax, QWORD PTR [r8+136]
  000e3	49 89 81 88 00
	00 00		 mov	 QWORD PTR [r9+136], rax
; File z:\sources\lunor\repos\rougemeilland\palmtree.math.core.uint\palmtree.math.core.uint\autogenerated_inline_func.h

; 820  :     c = _SUBTRUCT_UNIT(c, xp[18], yp[18], &zp[18]);

  000ea	48 8b 82 90 00
	00 00		 mov	 rax, QWORD PTR [rdx+144]
; File z:\sources\lunor\repos\rougemeilland\palmtree.math.core.uint\palmtree.math.core.uint\pmc_inline_func.h

; 202  :             return (_subborrow_u64(borrow, u, v, w));

  000f1	49 1b 80 90 00
	00 00		 sbb	 rax, QWORD PTR [r8+144]
  000f8	49 89 81 90 00
	00 00		 mov	 QWORD PTR [r9+144], rax
; File z:\sources\lunor\repos\rougemeilland\palmtree.math.core.uint\palmtree.math.core.uint\autogenerated_inline_func.h

; 821  :     c = _SUBTRUCT_UNIT(c, xp[19], yp[19], &zp[19]);

  000ff	48 8b 82 98 00
	00 00		 mov	 rax, QWORD PTR [rdx+152]
; File z:\sources\lunor\repos\rougemeilland\palmtree.math.core.uint\palmtree.math.core.uint\pmc_inline_func.h

; 202  :             return (_subborrow_u64(borrow, u, v, w));

  00106	49 1b 80 98 00
	00 00		 sbb	 rax, QWORD PTR [r8+152]
  0010d	49 89 81 98 00
	00 00		 mov	 QWORD PTR [r9+152], rax
; File z:\sources\lunor\repos\rougemeilland\palmtree.math.core.uint\palmtree.math.core.uint\autogenerated_inline_func.h

; 822  :     c = _SUBTRUCT_UNIT(c, xp[20], yp[20], &zp[20]);

  00114	48 8b 82 a0 00
	00 00		 mov	 rax, QWORD PTR [rdx+160]
; File z:\sources\lunor\repos\rougemeilland\palmtree.math.core.uint\palmtree.math.core.uint\pmc_inline_func.h

; 202  :             return (_subborrow_u64(borrow, u, v, w));

  0011b	49 1b 80 a0 00
	00 00		 sbb	 rax, QWORD PTR [r8+160]
  00122	49 89 81 a0 00
	00 00		 mov	 QWORD PTR [r9+160], rax
; File z:\sources\lunor\repos\rougemeilland\palmtree.math.core.uint\palmtree.math.core.uint\autogenerated_inline_func.h

; 823  :     c = _SUBTRUCT_UNIT(c, xp[21], yp[21], &zp[21]);

  00129	48 8b 82 a8 00
	00 00		 mov	 rax, QWORD PTR [rdx+168]
; File z:\sources\lunor\repos\rougemeilland\palmtree.math.core.uint\palmtree.math.core.uint\pmc_inline_func.h

; 202  :             return (_subborrow_u64(borrow, u, v, w));

  00130	49 1b 80 a8 00
	00 00		 sbb	 rax, QWORD PTR [r8+168]
  00137	49 89 81 a8 00
	00 00		 mov	 QWORD PTR [r9+168], rax
; File z:\sources\lunor\repos\rougemeilland\palmtree.math.core.uint\palmtree.math.core.uint\autogenerated_inline_func.h

; 824  :     c = _SUBTRUCT_UNIT(c, xp[22], yp[22], &zp[22]);

  0013e	48 8b 82 b0 00
	00 00		 mov	 rax, QWORD PTR [rdx+176]
; File z:\sources\lunor\repos\rougemeilland\palmtree.math.core.uint\palmtree.math.core.uint\pmc_inline_func.h

; 202  :             return (_subborrow_u64(borrow, u, v, w));

  00145	49 1b 80 b0 00
	00 00		 sbb	 rax, QWORD PTR [r8+176]
  0014c	49 89 81 b0 00
	00 00		 mov	 QWORD PTR [r9+176], rax
; File z:\sources\lunor\repos\rougemeilland\palmtree.math.core.uint\palmtree.math.core.uint\autogenerated_inline_func.h

; 825  :     c = _SUBTRUCT_UNIT(c, xp[23], yp[23], &zp[23]);

  00153	48 8b 82 b8 00
	00 00		 mov	 rax, QWORD PTR [rdx+184]
; File z:\sources\lunor\repos\rougemeilland\palmtree.math.core.uint\palmtree.math.core.uint\pmc_inline_func.h

; 202  :             return (_subborrow_u64(borrow, u, v, w));

  0015a	49 1b 80 b8 00
	00 00		 sbb	 rax, QWORD PTR [r8+184]
  00161	49 89 81 b8 00
	00 00		 mov	 QWORD PTR [r9+184], rax
; File z:\sources\lunor\repos\rougemeilland\palmtree.math.core.uint\palmtree.math.core.uint\autogenerated_inline_func.h

; 826  :     c = _SUBTRUCT_UNIT(c, xp[24], yp[24], &zp[24]);

  00168	48 8b 82 c0 00
	00 00		 mov	 rax, QWORD PTR [rdx+192]
; File z:\sources\lunor\repos\rougemeilland\palmtree.math.core.uint\palmtree.math.core.uint\pmc_inline_func.h

; 202  :             return (_subborrow_u64(borrow, u, v, w));

  0016f	49 1b 80 c0 00
	00 00		 sbb	 rax, QWORD PTR [r8+192]
  00176	49 89 81 c0 00
	00 00		 mov	 QWORD PTR [r9+192], rax
; File z:\sources\lunor\repos\rougemeilland\palmtree.math.core.uint\palmtree.math.core.uint\autogenerated_inline_func.h

; 827  :     c = _SUBTRUCT_UNIT(c, xp[25], yp[25], &zp[25]);

  0017d	48 8b 82 c8 00
	00 00		 mov	 rax, QWORD PTR [rdx+200]
; File z:\sources\lunor\repos\rougemeilland\palmtree.math.core.uint\palmtree.math.core.uint\pmc_inline_func.h

; 202  :             return (_subborrow_u64(borrow, u, v, w));

  00184	49 1b 80 c8 00
	00 00		 sbb	 rax, QWORD PTR [r8+200]
  0018b	49 89 81 c8 00
	00 00		 mov	 QWORD PTR [r9+200], rax
; File z:\sources\lunor\repos\rougemeilland\palmtree.math.core.uint\palmtree.math.core.uint\autogenerated_inline_func.h

; 828  :     c = _SUBTRUCT_UNIT(c, xp[26], yp[26], &zp[26]);

  00192	48 8b 82 d0 00
	00 00		 mov	 rax, QWORD PTR [rdx+208]
; File z:\sources\lunor\repos\rougemeilland\palmtree.math.core.uint\palmtree.math.core.uint\pmc_inline_func.h

; 202  :             return (_subborrow_u64(borrow, u, v, w));

  00199	49 1b 80 d0 00
	00 00		 sbb	 rax, QWORD PTR [r8+208]
  001a0	49 89 81 d0 00
	00 00		 mov	 QWORD PTR [r9+208], rax
; File z:\sources\lunor\repos\rougemeilland\palmtree.math.core.uint\palmtree.math.core.uint\autogenerated_inline_func.h

; 829  :     c = _SUBTRUCT_UNIT(c, xp[27], yp[27], &zp[27]);

  001a7	48 8b 82 d8 00
	00 00		 mov	 rax, QWORD PTR [rdx+216]
; File z:\sources\lunor\repos\rougemeilland\palmtree.math.core.uint\palmtree.math.core.uint\pmc_inline_func.h

; 202  :             return (_subborrow_u64(borrow, u, v, w));

  001ae	49 1b 80 d8 00
	00 00		 sbb	 rax, QWORD PTR [r8+216]
  001b5	49 89 81 d8 00
	00 00		 mov	 QWORD PTR [r9+216], rax
; File z:\sources\lunor\repos\rougemeilland\palmtree.math.core.uint\palmtree.math.core.uint\autogenerated_inline_func.h

; 830  :     c = _SUBTRUCT_UNIT(c, xp[28], yp[28], &zp[28]);

  001bc	48 8b 82 e0 00
	00 00		 mov	 rax, QWORD PTR [rdx+224]
; File z:\sources\lunor\repos\rougemeilland\palmtree.math.core.uint\palmtree.math.core.uint\pmc_inline_func.h

; 202  :             return (_subborrow_u64(borrow, u, v, w));

  001c3	49 1b 80 e0 00
	00 00		 sbb	 rax, QWORD PTR [r8+224]
  001ca	49 89 81 e0 00
	00 00		 mov	 QWORD PTR [r9+224], rax
; File z:\sources\lunor\repos\rougemeilland\palmtree.math.core.uint\palmtree.math.core.uint\autogenerated_inline_func.h

; 831  :     c = _SUBTRUCT_UNIT(c, xp[29], yp[29], &zp[29]);

  001d1	48 8b 82 e8 00
	00 00		 mov	 rax, QWORD PTR [rdx+232]
; File z:\sources\lunor\repos\rougemeilland\palmtree.math.core.uint\palmtree.math.core.uint\pmc_inline_func.h

; 202  :             return (_subborrow_u64(borrow, u, v, w));

  001d8	49 1b 80 e8 00
	00 00		 sbb	 rax, QWORD PTR [r8+232]
  001df	49 89 81 e8 00
	00 00		 mov	 QWORD PTR [r9+232], rax
; File z:\sources\lunor\repos\rougemeilland\palmtree.math.core.uint\palmtree.math.core.uint\autogenerated_inline_func.h

; 832  :     c = _SUBTRUCT_UNIT(c, xp[30], yp[30], &zp[30]);

  001e6	48 8b 82 f0 00
	00 00		 mov	 rax, QWORD PTR [rdx+240]
; File z:\sources\lunor\repos\rougemeilland\palmtree.math.core.uint\palmtree.math.core.uint\pmc_inline_func.h

; 202  :             return (_subborrow_u64(borrow, u, v, w));

  001ed	49 1b 80 f0 00
	00 00		 sbb	 rax, QWORD PTR [r8+240]
  001f4	49 89 81 f0 00
	00 00		 mov	 QWORD PTR [r9+240], rax
; File z:\sources\lunor\repos\rougemeilland\palmtree.math.core.uint\palmtree.math.core.uint\autogenerated_inline_func.h

; 833  :     c = _SUBTRUCT_UNIT(c, xp[31], yp[31], &zp[31]);

  001fb	48 8b 8a f8 00
	00 00		 mov	 rcx, QWORD PTR [rdx+248]
; File z:\sources\lunor\repos\rougemeilland\palmtree.math.core.uint\palmtree.math.core.uint\pmc_inline_func.h

; 202  :             return (_subborrow_u64(borrow, u, v, w));

  00202	49 1b 88 f8 00
	00 00		 sbb	 rcx, QWORD PTR [r8+248]
  00209	49 89 89 f8 00
	00 00		 mov	 QWORD PTR [r9+248], rcx
  00210	0f 92 c0	 setb	 al
; File z:\sources\lunor\repos\rougemeilland\palmtree.math.core.uint\palmtree.math.core.uint\autogenerated_inline_func.h

; 1050 : }

  00213	c3		 ret	 0
_SUBTRUCT_32WORDS_SBB ENDP
_TEXT	ENDS
; Function compile flags: /Ogtpy
; File z:\sources\lunor\repos\rougemeilland\palmtree.math.core.uint\palmtree.math.core.uint\pmc_inline_func.h
;	COMDAT _LZCNT_ALT_UNIT
_TEXT	SEGMENT
x$ = 8
_LZCNT_ALT_UNIT PROC					; COMDAT

; 455  :             if (x == 0)

  00000	48 85 c9	 test	 rcx, rcx
  00003	75 06		 jne	 SHORT $LN2@LZCNT_ALT_

; 456  :                 return (sizeof(x) * 8);

  00005	b8 40 00 00 00	 mov	 eax, 64			; 00000040H

; 480  :         }

  0000a	c3		 ret	 0
$LN2@LZCNT_ALT_:

; 457  : #ifdef _M_IX86
; 458  :             DWORD pos;
; 459  : #ifdef _MSC_VER
; 460  :             _BitScanReverse(&pos, x);
; 461  : #elif defined(__GNUC__)
; 462  :             __asm__("bsrl %1, %0" : "=r"(pos) : "rm"(x));
; 463  : #else
; 464  : #error unknown compiler
; 465  : #endif
; 466  : #elif defined(_M_X64)
; 467  : #ifdef _MSC_VER
; 468  :             DWORD pos;
; 469  :             _BitScanReverse64(&pos, x);

  0000b	48 0f bd c9	 bsr	 rcx, rcx

; 470  : #elif defined(__GNUC__)
; 471  :             _UINT64_T pos;
; 472  :             __asm__("bsrq %1, %0" : "=r"(pos) : "rm"(x));
; 473  : #else
; 474  : #error unknown compiler
; 475  : #endif
; 476  : #else
; 477  : #error unknown platform
; 478  : #endif
; 479  :             return (sizeof(x) * 8 - 1 - pos);

  0000f	b8 3f 00 00 00	 mov	 eax, 63			; 0000003fH
  00014	2b c1		 sub	 eax, ecx

; 480  :         }

  00016	c3		 ret	 0
_LZCNT_ALT_UNIT ENDP
_TEXT	ENDS
; Function compile flags: /Ogtpy
; File z:\sources\lunor\repos\rougemeilland\palmtree.math.core.uint\palmtree.math.core.uint\pmc_inline_func.h
;	COMDAT _LZCNT_ALT_32
_TEXT	SEGMENT
x$ = 8
_LZCNT_ALT_32 PROC					; COMDAT

; 422  :             if (x == 0)

  00000	85 c9		 test	 ecx, ecx
  00002	75 06		 jne	 SHORT $LN2@LZCNT_ALT_

; 423  :                 return (sizeof(x) * 8);

  00004	b8 20 00 00 00	 mov	 eax, 32			; 00000020H

; 433  :         }

  00009	c3		 ret	 0
$LN2@LZCNT_ALT_:

; 424  :             DWORD pos;
; 425  : #ifdef _MSC_VER
; 426  :             _BitScanReverse(&pos, x);

  0000a	0f bd c9	 bsr	 ecx, ecx

; 427  : #elif defined(__GNUC__)
; 428  :             __asm__("bsrl %1, %0" : "=r"(pos) : "rm"(x));
; 429  : #else
; 430  : #error unknown compiler
; 431  : #endif
; 432  :             return (sizeof(x) * 8 - 1 - pos);

  0000d	b8 1f 00 00 00	 mov	 eax, 31
  00012	2b c1		 sub	 eax, ecx

; 433  :         }

  00014	c3		 ret	 0
_LZCNT_ALT_32 ENDP
_TEXT	ENDS
; Function compile flags: /Ogtpy
; File z:\sources\lunor\repos\rougemeilland\palmtree.math.core.uint\palmtree.math.core.uint\pmc_inline_func.h
;	COMDAT _SUBTRUCT_UNIT
_TEXT	SEGMENT
borrow$ = 8
u$ = 16
v$ = 24
w$ = 32
_SUBTRUCT_UNIT PROC					; COMDAT

; 199  : #ifdef _M_IX86
; 200  :             return (_subborrow_u32(borrow, u, v, w));
; 201  : #elif defined(_M_X64)
; 202  :             return (_subborrow_u64(borrow, u, v, w));

  00000	80 c1 ff	 add	 cl, -1
  00003	49 1b d0	 sbb	 rdx, r8
  00006	49 89 11	 mov	 QWORD PTR [r9], rdx
  00009	0f 92 c0	 setb	 al

; 203  : #else
; 204  : #error unknown platform
; 205  : #endif
; 206  :         }

  0000c	c3		 ret	 0
_SUBTRUCT_UNIT ENDP
_TEXT	ENDS
; Function compile flags: /Ogtpy
; File z:\sources\lunor\repos\rougemeilland\palmtree.math.core.uint\palmtree.math.core.uint\pmc_inline_func.h
;	COMDAT _FROMDWORDTOWORD
_TEXT	SEGMENT
value$ = 8
result_high$ = 16
_FROMDWORDTOWORD PROC					; COMDAT

; 146  :             *result_high = (_UINT32_T)(value >> 32);

  00000	48 8b c1	 mov	 rax, rcx
  00003	48 c1 e8 20	 shr	 rax, 32			; 00000020H
  00007	89 02		 mov	 DWORD PTR [rdx], eax

; 147  :             return ((_UINT32_T)value);

  00009	8b c1		 mov	 eax, ecx

; 148  :         }

  0000b	c3		 ret	 0
_FROMDWORDTOWORD ENDP
_TEXT	ENDS
; Function compile flags: /Ogtpy
; File z:\sources\lunor\repos\rougemeilland\palmtree.math.core.uint\palmtree.math.core.uint\pmc_inline_func.h
;	COMDAT _FROMWORDTODWORD
_TEXT	SEGMENT
value_high$ = 8
value_low$ = 16
_FROMWORDTODWORD PROC					; COMDAT

; 141  :             return (((_UINT64_T)value_high << 32) | value_low);

  00000	8b c1		 mov	 eax, ecx
  00002	48 c1 e0 20	 shl	 rax, 32			; 00000020H
  00006	8b ca		 mov	 ecx, edx
  00008	48 0b c1	 or	 rax, rcx

; 142  :         }

  0000b	c3		 ret	 0
_FROMWORDTODWORD ENDP
_TEXT	ENDS
; Function compile flags: /Ogtpy
; File z:\sources\lunor\repos\rougemeilland\palmtree.math.core.uint\palmtree.math.core.uint\pmc_subtruct.cpp
;	COMDAT ?PMC_Subtruct_X_X@Internal@Core@Math@Palmtree@@YAPEAU__tag_PMC_HANDLE_UINT@1234@PEAU51234@0@Z
_TEXT	SEGMENT
root$1 = 48
$T2 = 48
$T3 = 48
$T4 = 48
root$ = 104
$T5 = 136
u$ = 208
v$ = 216
?PMC_Subtruct_X_X@Internal@Core@Math@Palmtree@@YAPEAU__tag_PMC_HANDLE_UINT@1234@PEAU51234@0@Z PROC ; Palmtree::Math::Core::Internal::PMC_Subtruct_X_X, COMDAT

; 713  :     {

$LN25:
  00000	48 8b c4	 mov	 rax, rsp
  00003	57		 push	 rdi
  00004	48 81 ec c0 00
	00 00		 sub	 rsp, 192		; 000000c0H
  0000b	48 c7 40 98 fe
	ff ff ff	 mov	 QWORD PTR [rax-104], -2
  00013	48 89 58 08	 mov	 QWORD PTR [rax+8], rbx
  00017	48 89 70 10	 mov	 QWORD PTR [rax+16], rsi
  0001b	48 8b fa	 mov	 rdi, rdx
  0001e	48 8b f1	 mov	 rsi, rcx

; 714  :         if (u == nullptr)

  00021	48 85 c9	 test	 rcx, rcx
  00024	0f 84 4f 01 00
	00		 je	 $LN21@PMC_Subtru

; 716  :         if (v == nullptr)

  0002a	48 85 d2	 test	 rdx, rdx
  0002d	0f 84 70 01 00
	00		 je	 $LN22@PMC_Subtru

; 718  :         NUMBER_HEADER* nu = (NUMBER_HEADER*)u;
; 719  :         NUMBER_HEADER* nv = (NUMBER_HEADER*)v;
; 720  :         CheckNumber(nu);

  00033	e8 00 00 00 00	 call	 ?CheckNumber@Internal@Core@Math@Palmtree@@YAXPEAU__tag_NUMBER_HEADER@1234@@Z ; Palmtree::Math::Core::Internal::CheckNumber

; 721  :         CheckNumber(nv);

  00038	48 8b cf	 mov	 rcx, rdi
  0003b	e8 00 00 00 00	 call	 ?CheckNumber@Internal@Core@Math@Palmtree@@YAXPEAU__tag_NUMBER_HEADER@1234@@Z ; Palmtree::Math::Core::Internal::CheckNumber

; 722  :         ResourceHolderUINT root;

  00040	48 8d 4c 24 68	 lea	 rcx, QWORD PTR root$[rsp]
  00045	e8 00 00 00 00	 call	 ??0ResourceHolderUINT@Internal@Core@Math@Palmtree@@QEAA@XZ ; Palmtree::Math::Core::Internal::ResourceHolderUINT::ResourceHolderUINT
  0004a	90		 npad	 1

; 653  :         if (u->IS_ZERO)

  0004b	f6 46 08 01	 test	 BYTE PTR [rsi+8], 1
  0004f	74 16		 je	 SHORT $LN7@PMC_Subtru

; 654  :         {
; 655  :             if (v->IS_ZERO)

  00051	f6 47 08 01	 test	 BYTE PTR [rdi+8], 1
  00055	0f 84 72 01 00
	00		 je	 $LN9@PMC_Subtru

; 656  :             {
; 657  :                 // y  0 
; 658  : 
; 659  :                 // x  y  0  0 
; 660  :                 return (&number_zero);

  0005b	48 8d 1d 00 00
	00 00		 lea	 rbx, OFFSET FLAT:?number_zero@Internal@Core@Math@Palmtree@@3U__tag_NUMBER_HEADER@1234@A ; Palmtree::Math::Core::Internal::number_zero
  00062	e9 ac 00 00 00	 jmp	 $LN12@PMC_Subtru
$LN7@PMC_Subtru:

; 668  :             }
; 669  :         }
; 670  :         else
; 671  :         {
; 672  :             // x  0 
; 673  : 
; 674  :             if (v->IS_ZERO)

  00067	f6 47 08 01	 test	 BYTE PTR [rdi+8], 1
  0006b	74 10		 je	 SHORT $LN11@PMC_Subtru

; 675  :             {
; 676  :                 // y  0 
; 677  : 
; 678  :                 //  x  NUMBER_HEADER 
; 679  :                 return (DuplicateNumber(u));

  0006d	48 8b ce	 mov	 rcx, rsi
  00070	e8 00 00 00 00	 call	 ?DuplicateNumber@Internal@Core@Math@Palmtree@@YAPEAU__tag_NUMBER_HEADER@1234@PEAU51234@@Z ; Palmtree::Math::Core::Internal::DuplicateNumber
  00075	48 8b d8	 mov	 rbx, rax
  00078	e9 96 00 00 00	 jmp	 $LN12@PMC_Subtru
$LN11@PMC_Subtru:

; 680  :             }
; 681  :             else
; 682  :             {
; 683  :                 // x  y  0 
; 684  : 
; 685  :                 // x  y 
; 686  :                 ResourceHolderUINT root;

  0007d	48 8d 4c 24 30	 lea	 rcx, QWORD PTR root$1[rsp]
  00082	e8 00 00 00 00	 call	 ??0ResourceHolderUINT@Internal@Core@Math@Palmtree@@QEAA@XZ ; Palmtree::Math::Core::Internal::ResourceHolderUINT::ResourceHolderUINT
  00087	90		 npad	 1

; 687  :                 __UNIT_TYPE u_bit_count = u->UNIT_BIT_COUNT;

  00088	48 8b 56 20	 mov	 rdx, QWORD PTR [rsi+32]

; 688  :                 __UNIT_TYPE v_bit_count = v->UNIT_BIT_COUNT;
; 689  :                 if (u_bit_count < v_bit_count)

  0008c	48 3b 57 20	 cmp	 rdx, QWORD PTR [rdi+32]
  00090	0f 82 ba 00 00
	00		 jb	 $LN23@PMC_Subtru

; 693  :                 }
; 694  :                 __UNIT_TYPE w_bit_count = u_bit_count;
; 695  :                 NUMBER_HEADER* w = root.AllocateNumber(w_bit_count);

  00096	48 8d 4c 24 30	 lea	 rcx, QWORD PTR root$1[rsp]
  0009b	e8 00 00 00 00	 call	 ?AllocateNumber@ResourceHolderUINT@Internal@Core@Math@Palmtree@@QEAAPEAU__tag_NUMBER_HEADER@2345@_K@Z ; Palmtree::Math::Core::Internal::ResourceHolderUINT::AllocateNumber
  000a0	48 8b d8	 mov	 rbx, rax

; 696  :                 Subtruct_Imp(u->BLOCK, u->UNIT_WORD_COUNT, v->BLOCK, v->UNIT_WORD_COUNT, w->BLOCK, w->BLOCK_COUNT);

  000a3	48 8b 40 38	 mov	 rax, QWORD PTR [rax+56]
  000a7	48 89 44 24 28	 mov	 QWORD PTR [rsp+40], rax
  000ac	48 8b 43 40	 mov	 rax, QWORD PTR [rbx+64]
  000b0	48 89 44 24 20	 mov	 QWORD PTR [rsp+32], rax
  000b5	4c 8b 4f 18	 mov	 r9, QWORD PTR [rdi+24]
  000b9	4c 8b 47 40	 mov	 r8, QWORD PTR [rdi+64]
  000bd	48 8b 56 18	 mov	 rdx, QWORD PTR [rsi+24]
  000c1	48 8b 4e 40	 mov	 rcx, QWORD PTR [rsi+64]
  000c5	e8 00 00 00 00	 call	 ?Subtruct_Imp@Internal@Core@Math@Palmtree@@YAXPEA_K_K0101@Z ; Palmtree::Math::Core::Internal::Subtruct_Imp

; 697  :                 root.CheckNumber(w);

  000ca	48 8b d3	 mov	 rdx, rbx
  000cd	48 8d 4c 24 30	 lea	 rcx, QWORD PTR root$1[rsp]
  000d2	e8 00 00 00 00	 call	 ?CheckNumber@ResourceHolderUINT@Internal@Core@Math@Palmtree@@QEAAXPEAU__tag_NUMBER_HEADER@2345@@Z ; Palmtree::Math::Core::Internal::ResourceHolderUINT::CheckNumber

; 698  :                 CommitNumber(w);

  000d7	48 8b cb	 mov	 rcx, rbx
  000da	e8 00 00 00 00	 call	 ?CommitNumber@Internal@Core@Math@Palmtree@@YAXPEAU__tag_NUMBER_HEADER@1234@@Z ; Palmtree::Math::Core::Internal::CommitNumber

; 699  :                 CommitNumber(w);

  000df	48 8b cb	 mov	 rcx, rbx
  000e2	e8 00 00 00 00	 call	 ?CommitNumber@Internal@Core@Math@Palmtree@@YAXPEAU__tag_NUMBER_HEADER@1234@@Z ; Palmtree::Math::Core::Internal::CommitNumber

; 700  :                 if (w->IS_ZERO)

  000e7	48 8b d3	 mov	 rdx, rbx
  000ea	48 8d 4c 24 30	 lea	 rcx, QWORD PTR root$1[rsp]
  000ef	f6 43 08 01	 test	 BYTE PTR [rbx+8], 1
  000f3	74 0e		 je	 SHORT $LN14@PMC_Subtru

; 701  :                 {
; 702  :                     root.DeallocateNumber(w);

  000f5	e8 00 00 00 00	 call	 ?DeallocateNumber@ResourceHolderUINT@Internal@Core@Math@Palmtree@@QEAAXPEAU__tag_NUMBER_HEADER@2345@@Z ; Palmtree::Math::Core::Internal::ResourceHolderUINT::DeallocateNumber

; 703  :                     w = &number_zero;

  000fa	48 8d 1d 00 00
	00 00		 lea	 rbx, OFFSET FLAT:?number_zero@Internal@Core@Math@Palmtree@@3U__tag_NUMBER_HEADER@1234@A ; Palmtree::Math::Core::Internal::number_zero

; 704  :                 }
; 705  :                 else

  00101	eb 06		 jmp	 SHORT $LN15@PMC_Subtru
$LN14@PMC_Subtru:

; 706  :                     root.UnlinkNumber(w);

  00103	e8 00 00 00 00	 call	 ?UnlinkNumber@ResourceHolderUINT@Internal@Core@Math@Palmtree@@QEAAXPEAU__tag_NUMBER_HEADER@2345@@Z ; Palmtree::Math::Core::Internal::ResourceHolderUINT::UnlinkNumber
  00108	90		 npad	 1
$LN15@PMC_Subtru:

; 707  :                 return (w);

  00109	48 8d 4c 24 30	 lea	 rcx, QWORD PTR root$1[rsp]
  0010e	e8 00 00 00 00	 call	 ??1ResourceHolderUINT@Internal@Core@Math@Palmtree@@UEAA@XZ ; Palmtree::Math::Core::Internal::ResourceHolderUINT::~ResourceHolderUINT
$LN12@PMC_Subtru:

; 723  :         NUMBER_HEADER* w = PMC_Subtruct_X_X_Imp(nu, nv);
; 724  :         root.HookNumber(w);

  00113	48 8b d3	 mov	 rdx, rbx
  00116	48 8d 4c 24 68	 lea	 rcx, QWORD PTR root$[rsp]
  0011b	e8 00 00 00 00	 call	 ?HookNumber@ResourceHolderUINT@Internal@Core@Math@Palmtree@@QEAAXPEAU__tag_NUMBER_HEADER@2345@@Z ; Palmtree::Math::Core::Internal::ResourceHolderUINT::HookNumber

; 725  : #ifdef _DEBUG
; 726  :         CheckNumber(w);
; 727  : #endif
; 728  :         root.UnlinkNumber(w);

  00120	48 8b d3	 mov	 rdx, rbx
  00123	48 8d 4c 24 68	 lea	 rcx, QWORD PTR root$[rsp]
  00128	e8 00 00 00 00	 call	 ?UnlinkNumber@ResourceHolderUINT@Internal@Core@Math@Palmtree@@QEAAXPEAU__tag_NUMBER_HEADER@2345@@Z ; Palmtree::Math::Core::Internal::ResourceHolderUINT::UnlinkNumber
  0012d	90		 npad	 1

; 729  :         return ((PMC_HANDLE_UINT)w);

  0012e	48 8d 4c 24 68	 lea	 rcx, QWORD PTR root$[rsp]
  00133	e8 00 00 00 00	 call	 ??1ResourceHolderUINT@Internal@Core@Math@Palmtree@@UEAA@XZ ; Palmtree::Math::Core::Internal::ResourceHolderUINT::~ResourceHolderUINT
  00138	48 8b c3	 mov	 rax, rbx

; 730  :     }

  0013b	4c 8d 9c 24 c0
	00 00 00	 lea	 r11, QWORD PTR [rsp+192]
  00143	49 8b 5b 10	 mov	 rbx, QWORD PTR [r11+16]
  00147	49 8b 73 18	 mov	 rsi, QWORD PTR [r11+24]
  0014b	49 8b e3	 mov	 rsp, r11
  0014e	5f		 pop	 rdi
  0014f	c3		 ret	 0
$LN23@PMC_Subtru:

; 692  :                     throw OverflowException(L"");

  00150	48 8d 15 00 00
	00 00		 lea	 rdx, OFFSET FLAT:??_C@_1CK@EKOAHHOC@?$AA?$BL?$PP?$JH?$AAk?$PP?$II?$PP?$IK?$PP?$KK?$PP?$PM?$PP?P?$PP?$PM?$PP?U?$PP?m?$PP?$PM?$AAL?$AAz?$AA?$BP@
  00157	48 8d 8c 24 88
	00 00 00	 lea	 rcx, QWORD PTR $T5[rsp]
  0015f	e8 00 00 00 00	 call	 ??0OverflowException@Internal@Core@Math@Palmtree@@QEAA@PEB_W@Z ; Palmtree::Math::Core::Internal::OverflowException::OverflowException
  00164	48 8d 15 00 00
	00 00		 lea	 rdx, OFFSET FLAT:_TI2?AVOverflowException@Internal@Core@Math@Palmtree@@
  0016b	48 8d 8c 24 88
	00 00 00	 lea	 rcx, QWORD PTR $T5[rsp]
  00173	e8 00 00 00 00	 call	 _CxxThrowException
  00178	90		 npad	 1
$LN21@PMC_Subtru:

; 715  :             throw ArgumentNullException(L"nullptr", L"u");

  00179	4c 8d 05 00 00
	00 00		 lea	 r8, OFFSET FLAT:??_C@_13ICFKHAEN@?$AAu@
  00180	48 8d 15 00 00
	00 00		 lea	 rdx, OFFSET FLAT:??_C@_1CK@ECFIEPAC@?$AA?$BF?$AAp?$AAk?$AAn?$AAu?$AAl?$AAl?$AAp?$AAt?$AAr?$AAL?$AA?$AO?$AAH?$PP?$IJ?$PP?$IM@
  00187	48 8d 4c 24 30	 lea	 rcx, QWORD PTR $T4[rsp]
  0018c	e8 00 00 00 00	 call	 ??0ArgumentNullException@Internal@Core@Math@Palmtree@@QEAA@PEB_W0@Z ; Palmtree::Math::Core::Internal::ArgumentNullException::ArgumentNullException
  00191	48 8d 15 00 00
	00 00		 lea	 rdx, OFFSET FLAT:_TI2?AVArgumentNullException@Internal@Core@Math@Palmtree@@
  00198	48 8d 4c 24 30	 lea	 rcx, QWORD PTR $T4[rsp]
  0019d	e8 00 00 00 00	 call	 _CxxThrowException
  001a2	cc		 int	 3
$LN22@PMC_Subtru:

; 717  :             throw ArgumentNullException(L"nullptr", L"v");

  001a3	4c 8d 05 00 00
	00 00		 lea	 r8, OFFSET FLAT:??_C@_13JAOPNPKD@?$AAv@
  001aa	48 8d 15 00 00
	00 00		 lea	 rdx, OFFSET FLAT:??_C@_1CK@ECFIEPAC@?$AA?$BF?$AAp?$AAk?$AAn?$AAu?$AAl?$AAl?$AAp?$AAt?$AAr?$AAL?$AA?$AO?$AAH?$PP?$IJ?$PP?$IM@
  001b1	48 8d 4c 24 30	 lea	 rcx, QWORD PTR $T3[rsp]
  001b6	e8 00 00 00 00	 call	 ??0ArgumentNullException@Internal@Core@Math@Palmtree@@QEAA@PEB_W0@Z ; Palmtree::Math::Core::Internal::ArgumentNullException::ArgumentNullException
  001bb	48 8d 15 00 00
	00 00		 lea	 rdx, OFFSET FLAT:_TI2?AVArgumentNullException@Internal@Core@Math@Palmtree@@
  001c2	48 8d 4c 24 30	 lea	 rcx, QWORD PTR $T3[rsp]
  001c7	e8 00 00 00 00	 call	 _CxxThrowException
  001cc	90		 npad	 1
$LN9@PMC_Subtru:

; 667  :                 throw OverflowException(L"");

  001cd	48 8d 15 00 00
	00 00		 lea	 rdx, OFFSET FLAT:??_C@_1CK@EKOAHHOC@?$AA?$BL?$PP?$JH?$AAk?$PP?$II?$PP?$IK?$PP?$KK?$PP?$PM?$PP?P?$PP?$PM?$PP?U?$PP?m?$PP?$PM?$AAL?$AAz?$AA?$BP@
  001d4	48 8d 4c 24 30	 lea	 rcx, QWORD PTR $T2[rsp]
  001d9	e8 00 00 00 00	 call	 ??0OverflowException@Internal@Core@Math@Palmtree@@QEAA@PEB_W@Z ; Palmtree::Math::Core::Internal::OverflowException::OverflowException
  001de	48 8d 15 00 00
	00 00		 lea	 rdx, OFFSET FLAT:_TI2?AVOverflowException@Internal@Core@Math@Palmtree@@
  001e5	48 8d 4c 24 30	 lea	 rcx, QWORD PTR $T2[rsp]
  001ea	e8 00 00 00 00	 call	 _CxxThrowException
  001ef	cc		 int	 3
$LN19@PMC_Subtru:
?PMC_Subtruct_X_X@Internal@Core@Math@Palmtree@@YAPEAU__tag_PMC_HANDLE_UINT@1234@PEAU51234@0@Z ENDP ; Palmtree::Math::Core::Internal::PMC_Subtruct_X_X
_TEXT	ENDS
;	COMDAT text$x
text$x	SEGMENT
root$1 = 48
$T2 = 48
$T3 = 48
$T4 = 48
root$ = 104
$T5 = 136
u$ = 208
v$ = 216
?dtor$0@?0??PMC_Subtruct_X_X@Internal@Core@Math@Palmtree@@YAPEAU__tag_PMC_HANDLE_UINT@1234@PEAU51234@0@Z@4HA PROC ; `Palmtree::Math::Core::Internal::PMC_Subtruct_X_X'::`1'::dtor$0
  00000	48 8d 8a 68 00
	00 00		 lea	 rcx, QWORD PTR root$[rdx]
  00007	e9 00 00 00 00	 jmp	 ??1ResourceHolderUINT@Internal@Core@Math@Palmtree@@UEAA@XZ ; Palmtree::Math::Core::Internal::ResourceHolderUINT::~ResourceHolderUINT
?dtor$0@?0??PMC_Subtruct_X_X@Internal@Core@Math@Palmtree@@YAPEAU__tag_PMC_HANDLE_UINT@1234@PEAU51234@0@Z@4HA ENDP ; `Palmtree::Math::Core::Internal::PMC_Subtruct_X_X'::`1'::dtor$0
text$x	ENDS
;	COMDAT text$x
text$x	SEGMENT
root$1 = 48
$T2 = 48
$T3 = 48
$T4 = 48
root$ = 104
$T5 = 136
u$ = 208
v$ = 216
?dtor$1@?0??PMC_Subtruct_X_X@Internal@Core@Math@Palmtree@@YAPEAU__tag_PMC_HANDLE_UINT@1234@PEAU51234@0@Z@4HA PROC ; `Palmtree::Math::Core::Internal::PMC_Subtruct_X_X'::`1'::dtor$1
  00000	48 8d 8a 30 00
	00 00		 lea	 rcx, QWORD PTR root$1[rdx]
  00007	e9 00 00 00 00	 jmp	 ??1ResourceHolderUINT@Internal@Core@Math@Palmtree@@UEAA@XZ ; Palmtree::Math::Core::Internal::ResourceHolderUINT::~ResourceHolderUINT
?dtor$1@?0??PMC_Subtruct_X_X@Internal@Core@Math@Palmtree@@YAPEAU__tag_PMC_HANDLE_UINT@1234@PEAU51234@0@Z@4HA ENDP ; `Palmtree::Math::Core::Internal::PMC_Subtruct_X_X'::`1'::dtor$1
text$x	ENDS
; Function compile flags: /Ogtpy
;	COMDAT text$x
text$x	SEGMENT
root$1 = 48
$T2 = 48
$T3 = 48
$T4 = 48
root$ = 104
$T5 = 136
u$ = 208
v$ = 216
?dtor$0@?0??PMC_Subtruct_X_X@Internal@Core@Math@Palmtree@@YAPEAU__tag_PMC_HANDLE_UINT@1234@PEAU51234@0@Z@4HA PROC ; `Palmtree::Math::Core::Internal::PMC_Subtruct_X_X'::`1'::dtor$0
  00000	48 8d 8a 68 00
	00 00		 lea	 rcx, QWORD PTR root$[rdx]
  00007	e9 00 00 00 00	 jmp	 ??1ResourceHolderUINT@Internal@Core@Math@Palmtree@@UEAA@XZ ; Palmtree::Math::Core::Internal::ResourceHolderUINT::~ResourceHolderUINT
?dtor$0@?0??PMC_Subtruct_X_X@Internal@Core@Math@Palmtree@@YAPEAU__tag_PMC_HANDLE_UINT@1234@PEAU51234@0@Z@4HA ENDP ; `Palmtree::Math::Core::Internal::PMC_Subtruct_X_X'::`1'::dtor$0
text$x	ENDS
; Function compile flags: /Ogtpy
;	COMDAT text$x
text$x	SEGMENT
root$1 = 48
$T2 = 48
$T3 = 48
$T4 = 48
root$ = 104
$T5 = 136
u$ = 208
v$ = 216
?dtor$1@?0??PMC_Subtruct_X_X@Internal@Core@Math@Palmtree@@YAPEAU__tag_PMC_HANDLE_UINT@1234@PEAU51234@0@Z@4HA PROC ; `Palmtree::Math::Core::Internal::PMC_Subtruct_X_X'::`1'::dtor$1
  00000	48 8d 8a 30 00
	00 00		 lea	 rcx, QWORD PTR root$1[rdx]
  00007	e9 00 00 00 00	 jmp	 ??1ResourceHolderUINT@Internal@Core@Math@Palmtree@@UEAA@XZ ; Palmtree::Math::Core::Internal::ResourceHolderUINT::~ResourceHolderUINT
?dtor$1@?0??PMC_Subtruct_X_X@Internal@Core@Math@Palmtree@@YAPEAU__tag_PMC_HANDLE_UINT@1234@PEAU51234@0@Z@4HA ENDP ; `Palmtree::Math::Core::Internal::PMC_Subtruct_X_X'::`1'::dtor$1
text$x	ENDS
; Function compile flags: /Ogtpy
; File z:\sources\lunor\repos\rougemeilland\palmtree.math.core.uint\palmtree.math.core.uint\pmc_subtruct.cpp
; File z:\sources\lunor\repos\rougemeilland\palmtree.math.core.uint\palmtree.math.core.uint\pmc_inline_func.h
; File z:\sources\lunor\repos\rougemeilland\palmtree.math.core.uint\palmtree.math.core.uint\pmc_subtruct.cpp
; File z:\sources\lunor\repos\rougemeilland\palmtree.math.core.uint\palmtree.math.core.uint\pmc_inline_func.h
; File z:\sources\lunor\repos\rougemeilland\palmtree.math.core.uint\palmtree.math.core.uint\pmc_subtruct.cpp
;	COMDAT ?PMC_Subtruct_X_L@Internal@Core@Math@Palmtree@@YAPEAU__tag_PMC_HANDLE_UINT@1234@PEAU51234@_K@Z
_TEXT	SEGMENT
root$1 = 48
$T2 = 48
$T3 = 48
root$ = 104
$T4 = 136
u$ = 208
v$ = 216
?PMC_Subtruct_X_L@Internal@Core@Math@Palmtree@@YAPEAU__tag_PMC_HANDLE_UINT@1234@PEAU51234@_K@Z PROC ; Palmtree::Math::Core::Internal::PMC_Subtruct_X_L, COMDAT

; 631  :     {

$LN65:
  00000	48 8b c4	 mov	 rax, rsp
  00003	57		 push	 rdi
  00004	48 81 ec c0 00
	00 00		 sub	 rsp, 192		; 000000c0H
  0000b	48 c7 40 98 fe
	ff ff ff	 mov	 QWORD PTR [rax-104], -2
  00013	48 89 58 08	 mov	 QWORD PTR [rax+8], rbx
  00017	48 89 70 10	 mov	 QWORD PTR [rax+16], rsi
  0001b	48 8b f2	 mov	 rsi, rdx
  0001e	48 8b f9	 mov	 rdi, rcx

; 632  :         if (__UNIT_TYPE_BIT_COUNT * 2 < sizeof(v) * 8)
; 633  :         {
; 634  :             // _UINT64_T  2 
; 635  :             throw InternalErrorException(L"", L"pmc_subtruct.cpp;PMC_Subtruct_X_L;1");
; 636  :         }
; 637  :         if (u == nullptr)

  00021	48 85 c9	 test	 rcx, rcx
  00024	0f 84 59 01 00
	00		 je	 $LN62@PMC_Subtru

; 639  :         NUMBER_HEADER* nu = (NUMBER_HEADER*)u;
; 640  :         CheckNumber(nu);

  0002a	e8 00 00 00 00	 call	 ?CheckNumber@Internal@Core@Math@Palmtree@@YAXPEAU__tag_NUMBER_HEADER@1234@@Z ; Palmtree::Math::Core::Internal::CheckNumber

; 641  :         ResourceHolderUINT root;

  0002f	48 8d 4c 24 68	 lea	 rcx, QWORD PTR root$[rsp]
  00034	e8 00 00 00 00	 call	 ??0ResourceHolderUINT@Internal@Core@Math@Palmtree@@QEAA@XZ ; Palmtree::Math::Core::Internal::ResourceHolderUINT::ResourceHolderUINT
  00039	90		 npad	 1

; 507  :         if (u->IS_ZERO)

  0003a	f6 47 08 01	 test	 BYTE PTR [rdi+8], 1
  0003e	74 15		 je	 SHORT $LN7@PMC_Subtru

; 508  :         {
; 509  :             // u  0 
; 510  : 
; 511  :             if (v == 0)

  00040	48 85 f6	 test	 rsi, rsi
  00043	0f 85 64 01 00
	00		 jne	 $LN9@PMC_Subtru

; 512  :             {
; 513  :                 // v  0 
; 514  : 
; 515  :                 // u  v  0  0 
; 516  :                 return (&number_zero);

  00049	48 8d 1d 00 00
	00 00		 lea	 rbx, OFFSET FLAT:?number_zero@Internal@Core@Math@Palmtree@@3U__tag_NUMBER_HEADER@1234@A ; Palmtree::Math::Core::Internal::number_zero
  00050	e9 c8 00 00 00	 jmp	 $LN14@PMC_Subtru
$LN7@PMC_Subtru:

; 524  :             }
; 525  :         }
; 526  :         else
; 527  :         {
; 528  :             // u  0 
; 529  : 
; 530  :             if (v == 0)

  00055	48 85 f6	 test	 rsi, rsi
  00058	75 10		 jne	 SHORT $LN11@PMC_Subtru

; 531  :             {
; 532  :                 // v  0 
; 533  : 
; 534  :                 //  x  NUMBER_HEADER 
; 535  :                 return (DuplicateNumber(u));

  0005a	48 8b cf	 mov	 rcx, rdi
  0005d	e8 00 00 00 00	 call	 ?DuplicateNumber@Internal@Core@Math@Palmtree@@YAPEAU__tag_NUMBER_HEADER@1234@PEAU51234@@Z ; Palmtree::Math::Core::Internal::DuplicateNumber
  00062	48 8b d8	 mov	 rbx, rax
  00065	e9 b3 00 00 00	 jmp	 $LN14@PMC_Subtru
$LN11@PMC_Subtru:

; 536  :             }
; 537  :             else
; 538  :             {
; 539  :                 // u  v  0 
; 540  : 
; 541  :                 // u  v 
; 542  :                 if (__UNIT_TYPE_BIT_COUNT < sizeof(v) * 8)
; 543  :                 {
; 544  :                     // _UINT64_T  1 
; 545  : 
; 546  :                     __UNIT_TYPE u_bit_count = u->UNIT_BIT_COUNT;
; 547  :                     _UINT32_T v_hi;
; 548  :                     _UINT32_T v_lo = _FROMDWORDTOWORD(v, &v_hi);
; 549  :                     if (v_hi == 0)
; 550  :                     {
; 551  :                         // y  32bit 
; 552  :                         __UNIT_TYPE v_bit_count = sizeof(v_lo) * 8 - _LZCNT_ALT_32(v_lo);
; 553  :                         if (u_bit_count < v_bit_count)
; 554  :                         {
; 555  :                             // 
; 556  :                             throw OverflowException(L"");
; 557  :                         }
; 558  :                         else
; 559  :                         {
; 560  :                             ResourceHolderUINT root;
; 561  :                             __UNIT_TYPE w_bit_count = u_bit_count;
; 562  :                             NUMBER_HEADER* w = root.AllocateNumber(w_bit_count);
; 563  :                             Subtruct_X_1W(u->BLOCK, u->UNIT_WORD_COUNT, v_lo, w->BLOCK, w->BLOCK_COUNT);
; 564  :                             root.CheckNumber(w);
; 565  :                             CommitNumber(w);
; 566  :                             if (w->IS_ZERO)
; 567  :                             {
; 568  :                                 root.DeallocateNumber(w);
; 569  :                                 w = &number_zero;
; 570  :                             }
; 571  :                             else
; 572  :                                 root.UnlinkNumber(w);
; 573  :                             return (w);
; 574  :                         }
; 575  :                     }
; 576  :                     else
; 577  :                     {
; 578  :                         // y  32bit 
; 579  :                         ResourceHolderUINT root;
; 580  :                         __UNIT_TYPE v_bit_count = sizeof(v) * 8 - _LZCNT_ALT_32(v_hi);
; 581  :                         if (u_bit_count < v_bit_count)
; 582  :                         {
; 583  :                             // 
; 584  :                             throw OverflowException(L"");
; 585  :                         }
; 586  :                         __UNIT_TYPE w_bit_count = u_bit_count;
; 587  :                         NUMBER_HEADER* w = root.AllocateNumber(w_bit_count);
; 588  :                         Subtruct_X_2W(u->BLOCK, u->UNIT_WORD_COUNT, v_hi, v_lo, w->BLOCK, w->BLOCK_COUNT);
; 589  :                         root.CheckNumber(w);
; 590  :                         CommitNumber(w);
; 591  :                         if (w->IS_ZERO)
; 592  :                         {
; 593  :                             root.DeallocateNumber(w);
; 594  :                             w = &number_zero;
; 595  :                         }
; 596  :                         else
; 597  :                             root.UnlinkNumber(w);
; 598  :                         return (w);
; 599  :                     }
; 600  :                 }
; 601  :                 else
; 602  :                 {
; 603  :                     // _UINT64_T  1 
; 604  :                     ResourceHolderUINT root;

  0006a	48 8d 4c 24 30	 lea	 rcx, QWORD PTR root$1[rsp]
  0006f	e8 00 00 00 00	 call	 ??0ResourceHolderUINT@Internal@Core@Math@Palmtree@@QEAA@XZ ; Palmtree::Math::Core::Internal::ResourceHolderUINT::ResourceHolderUINT
  00074	90		 npad	 1

; 605  :                     __UNIT_TYPE x_bit_count = u->UNIT_BIT_COUNT;

  00075	48 8b 57 20	 mov	 rdx, QWORD PTR [rdi+32]
; File z:\sources\lunor\repos\rougemeilland\palmtree.math.core.uint\palmtree.math.core.uint\pmc_inline_func.h

; 469  :             _BitScanReverse64(&pos, x);

  00079	48 0f bd c6	 bsr	 rax, rsi

; 470  : #elif defined(__GNUC__)
; 471  :             _UINT64_T pos;
; 472  :             __asm__("bsrq %1, %0" : "=r"(pos) : "rm"(x));
; 473  : #else
; 474  : #error unknown compiler
; 475  : #endif
; 476  : #else
; 477  : #error unknown platform
; 478  : #endif
; 479  :             return (sizeof(x) * 8 - 1 - pos);

  0007d	b9 3f 00 00 00	 mov	 ecx, 63			; 0000003fH
  00082	2b c8		 sub	 ecx, eax
; File z:\sources\lunor\repos\rougemeilland\palmtree.math.core.uint\palmtree.math.core.uint\pmc_subtruct.cpp

; 606  :                     __UNIT_TYPE y_bit_count = sizeof(v) * 8 - _LZCNT_ALT_UNIT((__UNIT_TYPE)v);

  00084	48 63 c1	 movsxd	 rax, ecx
  00087	b9 40 00 00 00	 mov	 ecx, 64			; 00000040H
  0008c	48 2b c8	 sub	 rcx, rax

; 607  :                     if (x_bit_count < y_bit_count)

  0008f	48 3b d1	 cmp	 rdx, rcx
  00092	0f 82 c2 00 00
	00		 jb	 $LN63@PMC_Subtru

; 611  :                     }
; 612  :                     __UNIT_TYPE w_bit_count = x_bit_count;
; 613  :                     NUMBER_HEADER* w = root.AllocateNumber(w_bit_count);

  00098	48 8d 4c 24 30	 lea	 rcx, QWORD PTR root$1[rsp]
  0009d	e8 00 00 00 00	 call	 ?AllocateNumber@ResourceHolderUINT@Internal@Core@Math@Palmtree@@QEAAPEAU__tag_NUMBER_HEADER@2345@_K@Z ; Palmtree::Math::Core::Internal::ResourceHolderUINT::AllocateNumber
  000a2	48 8b d8	 mov	 rbx, rax

; 614  :                     Subtruct_X_1W(u->BLOCK, u->UNIT_WORD_COUNT, (__UNIT_TYPE)v, w->BLOCK, w->BLOCK_COUNT);

  000a5	4c 8b 58 38	 mov	 r11, QWORD PTR [rax+56]
  000a9	4c 8b 48 40	 mov	 r9, QWORD PTR [rax+64]
  000ad	4c 8b 47 18	 mov	 r8, QWORD PTR [rdi+24]
  000b1	48 8b 57 40	 mov	 rdx, QWORD PTR [rdi+64]

; 86   :         char c = _SUBTRUCT_UNIT(0, *up++, v, wp++);

  000b5	4d 8b d1	 mov	 r10, r9
  000b8	49 83 c1 08	 add	 r9, 8
  000bc	48 8b 02	 mov	 rax, QWORD PTR [rdx]
  000bf	48 83 c2 08	 add	 rdx, 8
; File z:\sources\lunor\repos\rougemeilland\palmtree.math.core.uint\palmtree.math.core.uint\pmc_inline_func.h

; 202  :             return (_subborrow_u64(borrow, u, v, w));

  000c3	48 2b c6	 sub	 rax, rsi
  000c6	0f 92 c1	 setb	 cl
  000c9	49 89 02	 mov	 QWORD PTR [r10], rax
; File z:\sources\lunor\repos\rougemeilland\palmtree.math.core.uint\palmtree.math.core.uint\pmc_subtruct.cpp

; 87   :         --u_count;

  000cc	49 ff c8	 dec	 r8

; 88   :         --w_count;

  000cf	49 ff cb	 dec	 r11

; 89   : 
; 90   :         // 
; 91   :         DoBorrow(c, up, u_count, wp, w_count);

  000d2	4c 89 5c 24 20	 mov	 QWORD PTR [rsp+32], r11
  000d7	e8 00 00 00 00	 call	 ?DoBorrow@Internal@Core@Math@Palmtree@@YAXDPEA_K_K01@Z ; Palmtree::Math::Core::Internal::DoBorrow

; 615  :                     root.CheckNumber(w);

  000dc	48 8b d3	 mov	 rdx, rbx
  000df	48 8d 4c 24 30	 lea	 rcx, QWORD PTR root$1[rsp]
  000e4	e8 00 00 00 00	 call	 ?CheckNumber@ResourceHolderUINT@Internal@Core@Math@Palmtree@@QEAAXPEAU__tag_NUMBER_HEADER@2345@@Z ; Palmtree::Math::Core::Internal::ResourceHolderUINT::CheckNumber

; 616  :                     CommitNumber(w);

  000e9	48 8b cb	 mov	 rcx, rbx
  000ec	e8 00 00 00 00	 call	 ?CommitNumber@Internal@Core@Math@Palmtree@@YAXPEAU__tag_NUMBER_HEADER@1234@@Z ; Palmtree::Math::Core::Internal::CommitNumber

; 617  :                     if (w->IS_ZERO)

  000f1	48 8b d3	 mov	 rdx, rbx
  000f4	48 8d 4c 24 30	 lea	 rcx, QWORD PTR root$1[rsp]
  000f9	f6 43 08 01	 test	 BYTE PTR [rbx+8], 1
  000fd	74 0e		 je	 SHORT $LN25@PMC_Subtru

; 618  :                     {
; 619  :                         root.DeallocateNumber(w);

  000ff	e8 00 00 00 00	 call	 ?DeallocateNumber@ResourceHolderUINT@Internal@Core@Math@Palmtree@@QEAAXPEAU__tag_NUMBER_HEADER@2345@@Z ; Palmtree::Math::Core::Internal::ResourceHolderUINT::DeallocateNumber

; 620  :                         w = &number_zero;

  00104	48 8d 1d 00 00
	00 00		 lea	 rbx, OFFSET FLAT:?number_zero@Internal@Core@Math@Palmtree@@3U__tag_NUMBER_HEADER@1234@A ; Palmtree::Math::Core::Internal::number_zero

; 621  :                     }
; 622  :                     else

  0010b	eb 06		 jmp	 SHORT $LN26@PMC_Subtru
$LN25@PMC_Subtru:

; 623  :                         root.UnlinkNumber(w);

  0010d	e8 00 00 00 00	 call	 ?UnlinkNumber@ResourceHolderUINT@Internal@Core@Math@Palmtree@@QEAAXPEAU__tag_NUMBER_HEADER@2345@@Z ; Palmtree::Math::Core::Internal::ResourceHolderUINT::UnlinkNumber
  00112	90		 npad	 1
$LN26@PMC_Subtru:

; 624  :                     return (w);

  00113	48 8d 4c 24 30	 lea	 rcx, QWORD PTR root$1[rsp]
  00118	e8 00 00 00 00	 call	 ??1ResourceHolderUINT@Internal@Core@Math@Palmtree@@UEAA@XZ ; Palmtree::Math::Core::Internal::ResourceHolderUINT::~ResourceHolderUINT
$LN14@PMC_Subtru:

; 642  :         NUMBER_HEADER* w = PMC_Subtruct_X_L_Imp(nu, v);
; 643  :         root.HookNumber(w);

  0011d	48 8b d3	 mov	 rdx, rbx
  00120	48 8d 4c 24 68	 lea	 rcx, QWORD PTR root$[rsp]
  00125	e8 00 00 00 00	 call	 ?HookNumber@ResourceHolderUINT@Internal@Core@Math@Palmtree@@QEAAXPEAU__tag_NUMBER_HEADER@2345@@Z ; Palmtree::Math::Core::Internal::ResourceHolderUINT::HookNumber

; 644  : #ifdef _DEBUG
; 645  :         CheckNumber(w);
; 646  : #endif
; 647  :         root.UnlinkNumber(w);

  0012a	48 8b d3	 mov	 rdx, rbx
  0012d	48 8d 4c 24 68	 lea	 rcx, QWORD PTR root$[rsp]
  00132	e8 00 00 00 00	 call	 ?UnlinkNumber@ResourceHolderUINT@Internal@Core@Math@Palmtree@@QEAAXPEAU__tag_NUMBER_HEADER@2345@@Z ; Palmtree::Math::Core::Internal::ResourceHolderUINT::UnlinkNumber
  00137	90		 npad	 1

; 648  :         return ((PMC_HANDLE_UINT)w);

  00138	48 8d 4c 24 68	 lea	 rcx, QWORD PTR root$[rsp]
  0013d	e8 00 00 00 00	 call	 ??1ResourceHolderUINT@Internal@Core@Math@Palmtree@@UEAA@XZ ; Palmtree::Math::Core::Internal::ResourceHolderUINT::~ResourceHolderUINT
  00142	48 8b c3	 mov	 rax, rbx

; 649  :     }

  00145	4c 8d 9c 24 c0
	00 00 00	 lea	 r11, QWORD PTR [rsp+192]
  0014d	49 8b 5b 10	 mov	 rbx, QWORD PTR [r11+16]
  00151	49 8b 73 18	 mov	 rsi, QWORD PTR [r11+24]
  00155	49 8b e3	 mov	 rsp, r11
  00158	5f		 pop	 rdi
  00159	c3		 ret	 0
$LN63@PMC_Subtru:

; 610  :                         throw OverflowException(L"");

  0015a	48 8d 15 00 00
	00 00		 lea	 rdx, OFFSET FLAT:??_C@_1CK@EKOAHHOC@?$AA?$BL?$PP?$JH?$AAk?$PP?$II?$PP?$IK?$PP?$KK?$PP?$PM?$PP?P?$PP?$PM?$PP?U?$PP?m?$PP?$PM?$AAL?$AAz?$AA?$BP@
  00161	48 8d 8c 24 88
	00 00 00	 lea	 rcx, QWORD PTR $T4[rsp]
  00169	e8 00 00 00 00	 call	 ??0OverflowException@Internal@Core@Math@Palmtree@@QEAA@PEB_W@Z ; Palmtree::Math::Core::Internal::OverflowException::OverflowException
  0016e	48 8d 15 00 00
	00 00		 lea	 rdx, OFFSET FLAT:_TI2?AVOverflowException@Internal@Core@Math@Palmtree@@
  00175	48 8d 8c 24 88
	00 00 00	 lea	 rcx, QWORD PTR $T4[rsp]
  0017d	e8 00 00 00 00	 call	 _CxxThrowException
  00182	90		 npad	 1
$LN62@PMC_Subtru:

; 638  :             throw ArgumentNullException(L"nullptr", L"v");

  00183	4c 8d 05 00 00
	00 00		 lea	 r8, OFFSET FLAT:??_C@_13JAOPNPKD@?$AAv@
  0018a	48 8d 15 00 00
	00 00		 lea	 rdx, OFFSET FLAT:??_C@_1CK@ECFIEPAC@?$AA?$BF?$AAp?$AAk?$AAn?$AAu?$AAl?$AAl?$AAp?$AAt?$AAr?$AAL?$AA?$AO?$AAH?$PP?$IJ?$PP?$IM@
  00191	48 8d 4c 24 30	 lea	 rcx, QWORD PTR $T3[rsp]
  00196	e8 00 00 00 00	 call	 ??0ArgumentNullException@Internal@Core@Math@Palmtree@@QEAA@PEB_W0@Z ; Palmtree::Math::Core::Internal::ArgumentNullException::ArgumentNullException
  0019b	48 8d 15 00 00
	00 00		 lea	 rdx, OFFSET FLAT:_TI2?AVArgumentNullException@Internal@Core@Math@Palmtree@@
  001a2	48 8d 4c 24 30	 lea	 rcx, QWORD PTR $T3[rsp]
  001a7	e8 00 00 00 00	 call	 _CxxThrowException
  001ac	90		 npad	 1
$LN9@PMC_Subtru:

; 523  :                 throw OverflowException(L"");

  001ad	48 8d 15 00 00
	00 00		 lea	 rdx, OFFSET FLAT:??_C@_1CK@EKOAHHOC@?$AA?$BL?$PP?$JH?$AAk?$PP?$II?$PP?$IK?$PP?$KK?$PP?$PM?$PP?P?$PP?$PM?$PP?U?$PP?m?$PP?$PM?$AAL?$AAz?$AA?$BP@
  001b4	48 8d 4c 24 30	 lea	 rcx, QWORD PTR $T2[rsp]
  001b9	e8 00 00 00 00	 call	 ??0OverflowException@Internal@Core@Math@Palmtree@@QEAA@PEB_W@Z ; Palmtree::Math::Core::Internal::OverflowException::OverflowException
  001be	48 8d 15 00 00
	00 00		 lea	 rdx, OFFSET FLAT:_TI2?AVOverflowException@Internal@Core@Math@Palmtree@@
  001c5	48 8d 4c 24 30	 lea	 rcx, QWORD PTR $T2[rsp]
  001ca	e8 00 00 00 00	 call	 _CxxThrowException
  001cf	cc		 int	 3
$LN60@PMC_Subtru:
?PMC_Subtruct_X_L@Internal@Core@Math@Palmtree@@YAPEAU__tag_PMC_HANDLE_UINT@1234@PEAU51234@_K@Z ENDP ; Palmtree::Math::Core::Internal::PMC_Subtruct_X_L
_TEXT	ENDS
;	COMDAT text$x
text$x	SEGMENT
root$1 = 48
$T2 = 48
$T3 = 48
root$ = 104
$T4 = 136
u$ = 208
v$ = 216
?dtor$0@?0??PMC_Subtruct_X_L@Internal@Core@Math@Palmtree@@YAPEAU__tag_PMC_HANDLE_UINT@1234@PEAU51234@_K@Z@4HA PROC ; `Palmtree::Math::Core::Internal::PMC_Subtruct_X_L'::`1'::dtor$0
  00000	48 8d 8a 68 00
	00 00		 lea	 rcx, QWORD PTR root$[rdx]
  00007	e9 00 00 00 00	 jmp	 ??1ResourceHolderUINT@Internal@Core@Math@Palmtree@@UEAA@XZ ; Palmtree::Math::Core::Internal::ResourceHolderUINT::~ResourceHolderUINT
?dtor$0@?0??PMC_Subtruct_X_L@Internal@Core@Math@Palmtree@@YAPEAU__tag_PMC_HANDLE_UINT@1234@PEAU51234@_K@Z@4HA ENDP ; `Palmtree::Math::Core::Internal::PMC_Subtruct_X_L'::`1'::dtor$0
text$x	ENDS
;	COMDAT text$x
text$x	SEGMENT
root$1 = 48
$T2 = 48
$T3 = 48
root$ = 104
$T4 = 136
u$ = 208
v$ = 216
?dtor$3@?0??PMC_Subtruct_X_L@Internal@Core@Math@Palmtree@@YAPEAU__tag_PMC_HANDLE_UINT@1234@PEAU51234@_K@Z@4HA PROC ; `Palmtree::Math::Core::Internal::PMC_Subtruct_X_L'::`1'::dtor$3
  00000	48 8d 8a 30 00
	00 00		 lea	 rcx, QWORD PTR root$1[rdx]
  00007	e9 00 00 00 00	 jmp	 ??1ResourceHolderUINT@Internal@Core@Math@Palmtree@@UEAA@XZ ; Palmtree::Math::Core::Internal::ResourceHolderUINT::~ResourceHolderUINT
?dtor$3@?0??PMC_Subtruct_X_L@Internal@Core@Math@Palmtree@@YAPEAU__tag_PMC_HANDLE_UINT@1234@PEAU51234@_K@Z@4HA ENDP ; `Palmtree::Math::Core::Internal::PMC_Subtruct_X_L'::`1'::dtor$3
text$x	ENDS
; Function compile flags: /Ogtpy
;	COMDAT text$x
text$x	SEGMENT
root$1 = 48
$T2 = 48
$T3 = 48
root$ = 104
$T4 = 136
u$ = 208
v$ = 216
?dtor$0@?0??PMC_Subtruct_X_L@Internal@Core@Math@Palmtree@@YAPEAU__tag_PMC_HANDLE_UINT@1234@PEAU51234@_K@Z@4HA PROC ; `Palmtree::Math::Core::Internal::PMC_Subtruct_X_L'::`1'::dtor$0
  00000	48 8d 8a 68 00
	00 00		 lea	 rcx, QWORD PTR root$[rdx]
  00007	e9 00 00 00 00	 jmp	 ??1ResourceHolderUINT@Internal@Core@Math@Palmtree@@UEAA@XZ ; Palmtree::Math::Core::Internal::ResourceHolderUINT::~ResourceHolderUINT
?dtor$0@?0??PMC_Subtruct_X_L@Internal@Core@Math@Palmtree@@YAPEAU__tag_PMC_HANDLE_UINT@1234@PEAU51234@_K@Z@4HA ENDP ; `Palmtree::Math::Core::Internal::PMC_Subtruct_X_L'::`1'::dtor$0
text$x	ENDS
; Function compile flags: /Ogtpy
;	COMDAT text$x
text$x	SEGMENT
root$1 = 48
$T2 = 48
$T3 = 48
root$ = 104
$T4 = 136
u$ = 208
v$ = 216
?dtor$3@?0??PMC_Subtruct_X_L@Internal@Core@Math@Palmtree@@YAPEAU__tag_PMC_HANDLE_UINT@1234@PEAU51234@_K@Z@4HA PROC ; `Palmtree::Math::Core::Internal::PMC_Subtruct_X_L'::`1'::dtor$3
  00000	48 8d 8a 30 00
	00 00		 lea	 rcx, QWORD PTR root$1[rdx]
  00007	e9 00 00 00 00	 jmp	 ??1ResourceHolderUINT@Internal@Core@Math@Palmtree@@UEAA@XZ ; Palmtree::Math::Core::Internal::ResourceHolderUINT::~ResourceHolderUINT
?dtor$3@?0??PMC_Subtruct_X_L@Internal@Core@Math@Palmtree@@YAPEAU__tag_PMC_HANDLE_UINT@1234@PEAU51234@_K@Z@4HA ENDP ; `Palmtree::Math::Core::Internal::PMC_Subtruct_X_L'::`1'::dtor$3
text$x	ENDS
; Function compile flags: /Ogtpy
; File z:\sources\lunor\repos\rougemeilland\palmtree.math.core.uint\palmtree.math.core.uint\pmc_subtruct.cpp
; File z:\sources\lunor\repos\rougemeilland\palmtree.math.core.uint\palmtree.math.core.uint\pmc_inline_func.h
; File z:\sources\lunor\repos\rougemeilland\palmtree.math.core.uint\palmtree.math.core.uint\pmc_subtruct.cpp
; File z:\sources\lunor\repos\rougemeilland\palmtree.math.core.uint\palmtree.math.core.uint\pmc_inline_func.h
; File z:\sources\lunor\repos\rougemeilland\palmtree.math.core.uint\palmtree.math.core.uint\pmc_subtruct.cpp
;	COMDAT ?PMC_Subtruct_X_I@Internal@Core@Math@Palmtree@@YAPEAU__tag_PMC_HANDLE_UINT@1234@PEAU51234@I@Z
_TEXT	SEGMENT
root$1 = 56
$T2 = 56
$T3 = 56
$T4 = 56
root$ = 104
u$ = 160
v$ = 168
?PMC_Subtruct_X_I@Internal@Core@Math@Palmtree@@YAPEAU__tag_PMC_HANDLE_UINT@1234@PEAU51234@I@Z PROC ; Palmtree::Math::Core::Internal::PMC_Subtruct_X_I, COMDAT

; 324  :     {

$LN32:
  00000	48 8b c4	 mov	 rax, rsp
  00003	57		 push	 rdi
  00004	48 81 ec 90 00
	00 00		 sub	 rsp, 144		; 00000090H
  0000b	48 c7 40 98 fe
	ff ff ff	 mov	 QWORD PTR [rax-104], -2
  00013	48 89 58 08	 mov	 QWORD PTR [rax+8], rbx
  00017	48 89 68 10	 mov	 QWORD PTR [rax+16], rbp
  0001b	48 89 70 18	 mov	 QWORD PTR [rax+24], rsi
  0001f	8b ea		 mov	 ebp, edx
  00021	48 8b f1	 mov	 rsi, rcx

; 325  :         if (__UNIT_TYPE_BIT_COUNT < sizeof(v) * 8)
; 326  :         {
; 327  :             // _UINT32_T  1 
; 328  :             throw InternalErrorException(L"", L"pmc_subtruct.cpp;PMC_Subtruct_X_I;1");
; 329  :         }
; 330  :         if (u == nullptr)

  00024	48 85 c9	 test	 rcx, rcx
  00027	0f 84 57 01 00
	00		 je	 $LN29@PMC_Subtru

; 332  :         NUMBER_HEADER* nu = (NUMBER_HEADER*)u;
; 333  :         CheckNumber(nu);

  0002d	e8 00 00 00 00	 call	 ?CheckNumber@Internal@Core@Math@Palmtree@@YAXPEAU__tag_NUMBER_HEADER@1234@@Z ; Palmtree::Math::Core::Internal::CheckNumber

; 334  :         ResourceHolderUINT root;

  00032	48 8d 4c 24 68	 lea	 rcx, QWORD PTR root$[rsp]
  00037	e8 00 00 00 00	 call	 ??0ResourceHolderUINT@Internal@Core@Math@Palmtree@@QEAA@XZ ; Palmtree::Math::Core::Internal::ResourceHolderUINT::ResourceHolderUINT
  0003c	90		 npad	 1

; 260  :         if (u->IS_ZERO)

  0003d	f6 46 08 01	 test	 BYTE PTR [rsi+8], 1
  00041	74 14		 je	 SHORT $LN7@PMC_Subtru

; 261  :         {
; 262  :             // u  0 
; 263  : 
; 264  :             if (v == 0)

  00043	85 ed		 test	 ebp, ebp
  00045	0f 85 63 01 00
	00		 jne	 $LN9@PMC_Subtru

; 265  :             {
; 266  :                 // v  0 
; 267  : 
; 268  :                 // u  v  0  0 
; 269  :                 return (&number_zero);

  0004b	48 8d 3d 00 00
	00 00		 lea	 rdi, OFFSET FLAT:?number_zero@Internal@Core@Math@Palmtree@@3U__tag_NUMBER_HEADER@1234@A ; Palmtree::Math::Core::Internal::number_zero
  00052	e9 c9 00 00 00	 jmp	 $LN14@PMC_Subtru
$LN7@PMC_Subtru:

; 277  :             }
; 278  :         }
; 279  :         else
; 280  :         {
; 281  :             // u  0 
; 282  : 
; 283  :             if (v == 0)

  00057	85 ed		 test	 ebp, ebp
  00059	75 10		 jne	 SHORT $LN11@PMC_Subtru

; 284  :             {
; 285  :                 // v  0 
; 286  : 
; 287  :                 //  x  NUMBER_HEADER 
; 288  :                 return (DuplicateNumber(u));

  0005b	48 8b ce	 mov	 rcx, rsi
  0005e	e8 00 00 00 00	 call	 ?DuplicateNumber@Internal@Core@Math@Palmtree@@YAPEAU__tag_NUMBER_HEADER@1234@PEAU51234@@Z ; Palmtree::Math::Core::Internal::DuplicateNumber
  00063	48 8b f8	 mov	 rdi, rax
  00066	e9 b5 00 00 00	 jmp	 $LN14@PMC_Subtru
$LN11@PMC_Subtru:

; 289  :             }
; 290  :             else
; 291  :             {
; 292  :                 // u  v  0 
; 293  : 
; 294  :                 // u  v 
; 295  :                 __UNIT_TYPE u_bit_count = u->UNIT_BIT_COUNT;

  0006b	48 8b 5e 20	 mov	 rbx, QWORD PTR [rsi+32]
; File z:\sources\lunor\repos\rougemeilland\palmtree.math.core.uint\palmtree.math.core.uint\pmc_inline_func.h

; 426  :             _BitScanReverse(&pos, x);

  0006f	0f bd c5	 bsr	 eax, ebp

; 427  : #elif defined(__GNUC__)
; 428  :             __asm__("bsrl %1, %0" : "=r"(pos) : "rm"(x));
; 429  : #else
; 430  : #error unknown compiler
; 431  : #endif
; 432  :             return (sizeof(x) * 8 - 1 - pos);

  00072	b9 1f 00 00 00	 mov	 ecx, 31
  00077	2b c8		 sub	 ecx, eax
; File z:\sources\lunor\repos\rougemeilland\palmtree.math.core.uint\palmtree.math.core.uint\pmc_subtruct.cpp

; 296  :                 __UNIT_TYPE v_bit_count = sizeof(v) * 8 - _LZCNT_ALT_32(v);

  00079	48 63 c1	 movsxd	 rax, ecx
  0007c	b9 20 00 00 00	 mov	 ecx, 32			; 00000020H
  00081	48 2b c8	 sub	 rcx, rax

; 297  :                 if (u_bit_count < v_bit_count)

  00084	48 3b d9	 cmp	 rbx, rcx
  00087	0f 82 d4 00 00
	00		 jb	 $LN30@PMC_Subtru

; 301  :                 }
; 302  :                 else
; 303  :                 {
; 304  :                     ResourceHolderUINT root;

  0008d	48 8d 4c 24 38	 lea	 rcx, QWORD PTR root$1[rsp]
  00092	e8 00 00 00 00	 call	 ??0ResourceHolderUINT@Internal@Core@Math@Palmtree@@QEAA@XZ ; Palmtree::Math::Core::Internal::ResourceHolderUINT::ResourceHolderUINT
  00097	90		 npad	 1

; 305  :                     __UNIT_TYPE w_bit_count = u_bit_count;
; 306  :                     NUMBER_HEADER* w = root.AllocateNumber(w_bit_count);

  00098	48 8b d3	 mov	 rdx, rbx
  0009b	48 8d 4c 24 38	 lea	 rcx, QWORD PTR root$1[rsp]
  000a0	e8 00 00 00 00	 call	 ?AllocateNumber@ResourceHolderUINT@Internal@Core@Math@Palmtree@@QEAAPEAU__tag_NUMBER_HEADER@2345@_K@Z ; Palmtree::Math::Core::Internal::ResourceHolderUINT::AllocateNumber
  000a5	48 8b f8	 mov	 rdi, rax

; 307  :                     Subtruct_X_1W(u->BLOCK, u->UNIT_WORD_COUNT, v, w->BLOCK, w->BLOCK_COUNT);

  000a8	48 8b 58 38	 mov	 rbx, QWORD PTR [rax+56]
  000ac	4c 8b 48 40	 mov	 r9, QWORD PTR [rax+64]
  000b0	4c 8b 46 18	 mov	 r8, QWORD PTR [rsi+24]
  000b4	48 8b 56 40	 mov	 rdx, QWORD PTR [rsi+64]

; 86   :         char c = _SUBTRUCT_UNIT(0, *up++, v, wp++);

  000b8	4d 8b d9	 mov	 r11, r9
  000bb	49 83 c1 08	 add	 r9, 8
  000bf	4c 8b 12	 mov	 r10, QWORD PTR [rdx]
  000c2	48 83 c2 08	 add	 rdx, 8
; File z:\sources\lunor\repos\rougemeilland\palmtree.math.core.uint\palmtree.math.core.uint\pmc_inline_func.h

; 202  :             return (_subborrow_u64(borrow, u, v, w));

  000c6	4c 2b d5	 sub	 r10, rbp
  000c9	0f 92 c1	 setb	 cl
  000cc	4d 89 13	 mov	 QWORD PTR [r11], r10
; File z:\sources\lunor\repos\rougemeilland\palmtree.math.core.uint\palmtree.math.core.uint\pmc_subtruct.cpp

; 87   :         --u_count;

  000cf	49 ff c8	 dec	 r8

; 88   :         --w_count;

  000d2	48 ff cb	 dec	 rbx

; 89   : 
; 90   :         // 
; 91   :         DoBorrow(c, up, u_count, wp, w_count);

  000d5	48 89 5c 24 20	 mov	 QWORD PTR [rsp+32], rbx
  000da	e8 00 00 00 00	 call	 ?DoBorrow@Internal@Core@Math@Palmtree@@YAXDPEA_K_K01@Z ; Palmtree::Math::Core::Internal::DoBorrow

; 308  :                     root.CheckNumber(w);

  000df	48 8b d7	 mov	 rdx, rdi
  000e2	48 8d 4c 24 38	 lea	 rcx, QWORD PTR root$1[rsp]
  000e7	e8 00 00 00 00	 call	 ?CheckNumber@ResourceHolderUINT@Internal@Core@Math@Palmtree@@QEAAXPEAU__tag_NUMBER_HEADER@2345@@Z ; Palmtree::Math::Core::Internal::ResourceHolderUINT::CheckNumber

; 309  :                     CommitNumber(w);

  000ec	48 8b cf	 mov	 rcx, rdi
  000ef	e8 00 00 00 00	 call	 ?CommitNumber@Internal@Core@Math@Palmtree@@YAXPEAU__tag_NUMBER_HEADER@1234@@Z ; Palmtree::Math::Core::Internal::CommitNumber

; 310  :                     if (w->IS_ZERO)

  000f4	48 8b d7	 mov	 rdx, rdi
  000f7	48 8d 4c 24 38	 lea	 rcx, QWORD PTR root$1[rsp]
  000fc	f6 47 08 01	 test	 BYTE PTR [rdi+8], 1
  00100	74 0e		 je	 SHORT $LN15@PMC_Subtru

; 311  :                     {
; 312  :                         root.DeallocateNumber(w);

  00102	e8 00 00 00 00	 call	 ?DeallocateNumber@ResourceHolderUINT@Internal@Core@Math@Palmtree@@QEAAXPEAU__tag_NUMBER_HEADER@2345@@Z ; Palmtree::Math::Core::Internal::ResourceHolderUINT::DeallocateNumber

; 313  :                         w = &number_zero;

  00107	48 8d 3d 00 00
	00 00		 lea	 rdi, OFFSET FLAT:?number_zero@Internal@Core@Math@Palmtree@@3U__tag_NUMBER_HEADER@1234@A ; Palmtree::Math::Core::Internal::number_zero

; 314  :                     }
; 315  :                     else

  0010e	eb 06		 jmp	 SHORT $LN16@PMC_Subtru
$LN15@PMC_Subtru:

; 316  :                         root.UnlinkNumber(w);

  00110	e8 00 00 00 00	 call	 ?UnlinkNumber@ResourceHolderUINT@Internal@Core@Math@Palmtree@@QEAAXPEAU__tag_NUMBER_HEADER@2345@@Z ; Palmtree::Math::Core::Internal::ResourceHolderUINT::UnlinkNumber
  00115	90		 npad	 1
$LN16@PMC_Subtru:

; 317  :                     return (w);

  00116	48 8d 4c 24 38	 lea	 rcx, QWORD PTR root$1[rsp]
  0011b	e8 00 00 00 00	 call	 ??1ResourceHolderUINT@Internal@Core@Math@Palmtree@@UEAA@XZ ; Palmtree::Math::Core::Internal::ResourceHolderUINT::~ResourceHolderUINT
$LN14@PMC_Subtru:

; 335  :         NUMBER_HEADER* w = PMC_Subtruct_X_I_Imp(nu, v);
; 336  :         root.HookNumber(w);

  00120	48 8b d7	 mov	 rdx, rdi
  00123	48 8d 4c 24 68	 lea	 rcx, QWORD PTR root$[rsp]
  00128	e8 00 00 00 00	 call	 ?HookNumber@ResourceHolderUINT@Internal@Core@Math@Palmtree@@QEAAXPEAU__tag_NUMBER_HEADER@2345@@Z ; Palmtree::Math::Core::Internal::ResourceHolderUINT::HookNumber

; 337  : #ifdef _DEBUG
; 338  :         CheckNumber(w);
; 339  : #endif
; 340  :         root.UnlinkNumber(w);

  0012d	48 8b d7	 mov	 rdx, rdi
  00130	48 8d 4c 24 68	 lea	 rcx, QWORD PTR root$[rsp]
  00135	e8 00 00 00 00	 call	 ?UnlinkNumber@ResourceHolderUINT@Internal@Core@Math@Palmtree@@QEAAXPEAU__tag_NUMBER_HEADER@2345@@Z ; Palmtree::Math::Core::Internal::ResourceHolderUINT::UnlinkNumber
  0013a	90		 npad	 1

; 341  :         return ((PMC_HANDLE_UINT)w);

  0013b	48 8d 4c 24 68	 lea	 rcx, QWORD PTR root$[rsp]
  00140	e8 00 00 00 00	 call	 ??1ResourceHolderUINT@Internal@Core@Math@Palmtree@@UEAA@XZ ; Palmtree::Math::Core::Internal::ResourceHolderUINT::~ResourceHolderUINT
  00145	48 8b c7	 mov	 rax, rdi

; 342  :     }

  00148	4c 8d 9c 24 90
	00 00 00	 lea	 r11, QWORD PTR [rsp+144]
  00150	49 8b 5b 10	 mov	 rbx, QWORD PTR [r11+16]
  00154	49 8b 6b 18	 mov	 rbp, QWORD PTR [r11+24]
  00158	49 8b 73 20	 mov	 rsi, QWORD PTR [r11+32]
  0015c	49 8b e3	 mov	 rsp, r11
  0015f	5f		 pop	 rdi
  00160	c3		 ret	 0
$LN30@PMC_Subtru:

; 300  :                     throw OverflowException(L"");

  00161	48 8d 15 00 00
	00 00		 lea	 rdx, OFFSET FLAT:??_C@_1CK@EKOAHHOC@?$AA?$BL?$PP?$JH?$AAk?$PP?$II?$PP?$IK?$PP?$KK?$PP?$PM?$PP?P?$PP?$PM?$PP?U?$PP?m?$PP?$PM?$AAL?$AAz?$AA?$BP@
  00168	48 8d 4c 24 38	 lea	 rcx, QWORD PTR $T2[rsp]
  0016d	e8 00 00 00 00	 call	 ??0OverflowException@Internal@Core@Math@Palmtree@@QEAA@PEB_W@Z ; Palmtree::Math::Core::Internal::OverflowException::OverflowException
  00172	48 8d 15 00 00
	00 00		 lea	 rdx, OFFSET FLAT:_TI2?AVOverflowException@Internal@Core@Math@Palmtree@@
  00179	48 8d 4c 24 38	 lea	 rcx, QWORD PTR $T2[rsp]
  0017e	e8 00 00 00 00	 call	 _CxxThrowException
  00183	90		 npad	 1
$LN29@PMC_Subtru:

; 331  :             throw ArgumentNullException(L"nullptr", L"u");

  00184	4c 8d 05 00 00
	00 00		 lea	 r8, OFFSET FLAT:??_C@_13ICFKHAEN@?$AAu@
  0018b	48 8d 15 00 00
	00 00		 lea	 rdx, OFFSET FLAT:??_C@_1CK@ECFIEPAC@?$AA?$BF?$AAp?$AAk?$AAn?$AAu?$AAl?$AAl?$AAp?$AAt?$AAr?$AAL?$AA?$AO?$AAH?$PP?$IJ?$PP?$IM@
  00192	48 8d 4c 24 38	 lea	 rcx, QWORD PTR $T4[rsp]
  00197	e8 00 00 00 00	 call	 ??0ArgumentNullException@Internal@Core@Math@Palmtree@@QEAA@PEB_W0@Z ; Palmtree::Math::Core::Internal::ArgumentNullException::ArgumentNullException
  0019c	48 8d 15 00 00
	00 00		 lea	 rdx, OFFSET FLAT:_TI2?AVArgumentNullException@Internal@Core@Math@Palmtree@@
  001a3	48 8d 4c 24 38	 lea	 rcx, QWORD PTR $T4[rsp]
  001a8	e8 00 00 00 00	 call	 _CxxThrowException
  001ad	90		 npad	 1
$LN9@PMC_Subtru:

; 276  :                 throw OverflowException(L"");

  001ae	48 8d 15 00 00
	00 00		 lea	 rdx, OFFSET FLAT:??_C@_1CK@EKOAHHOC@?$AA?$BL?$PP?$JH?$AAk?$PP?$II?$PP?$IK?$PP?$KK?$PP?$PM?$PP?P?$PP?$PM?$PP?U?$PP?m?$PP?$PM?$AAL?$AAz?$AA?$BP@
  001b5	48 8d 4c 24 38	 lea	 rcx, QWORD PTR $T3[rsp]
  001ba	e8 00 00 00 00	 call	 ??0OverflowException@Internal@Core@Math@Palmtree@@QEAA@PEB_W@Z ; Palmtree::Math::Core::Internal::OverflowException::OverflowException
  001bf	48 8d 15 00 00
	00 00		 lea	 rdx, OFFSET FLAT:_TI2?AVOverflowException@Internal@Core@Math@Palmtree@@
  001c6	48 8d 4c 24 38	 lea	 rcx, QWORD PTR $T3[rsp]
  001cb	e8 00 00 00 00	 call	 _CxxThrowException
  001d0	cc		 int	 3
$LN27@PMC_Subtru:
?PMC_Subtruct_X_I@Internal@Core@Math@Palmtree@@YAPEAU__tag_PMC_HANDLE_UINT@1234@PEAU51234@I@Z ENDP ; Palmtree::Math::Core::Internal::PMC_Subtruct_X_I
_TEXT	ENDS
;	COMDAT text$x
text$x	SEGMENT
root$1 = 56
$T2 = 56
$T3 = 56
$T4 = 56
root$ = 104
u$ = 160
v$ = 168
?dtor$0@?0??PMC_Subtruct_X_I@Internal@Core@Math@Palmtree@@YAPEAU__tag_PMC_HANDLE_UINT@1234@PEAU51234@I@Z@4HA PROC ; `Palmtree::Math::Core::Internal::PMC_Subtruct_X_I'::`1'::dtor$0
  00000	48 8d 8a 68 00
	00 00		 lea	 rcx, QWORD PTR root$[rdx]
  00007	e9 00 00 00 00	 jmp	 ??1ResourceHolderUINT@Internal@Core@Math@Palmtree@@UEAA@XZ ; Palmtree::Math::Core::Internal::ResourceHolderUINT::~ResourceHolderUINT
?dtor$0@?0??PMC_Subtruct_X_I@Internal@Core@Math@Palmtree@@YAPEAU__tag_PMC_HANDLE_UINT@1234@PEAU51234@I@Z@4HA ENDP ; `Palmtree::Math::Core::Internal::PMC_Subtruct_X_I'::`1'::dtor$0
text$x	ENDS
;	COMDAT text$x
text$x	SEGMENT
root$1 = 56
$T2 = 56
$T3 = 56
$T4 = 56
root$ = 104
u$ = 160
v$ = 168
?dtor$1@?0??PMC_Subtruct_X_I@Internal@Core@Math@Palmtree@@YAPEAU__tag_PMC_HANDLE_UINT@1234@PEAU51234@I@Z@4HA PROC ; `Palmtree::Math::Core::Internal::PMC_Subtruct_X_I'::`1'::dtor$1
  00000	48 8d 8a 38 00
	00 00		 lea	 rcx, QWORD PTR root$1[rdx]
  00007	e9 00 00 00 00	 jmp	 ??1ResourceHolderUINT@Internal@Core@Math@Palmtree@@UEAA@XZ ; Palmtree::Math::Core::Internal::ResourceHolderUINT::~ResourceHolderUINT
?dtor$1@?0??PMC_Subtruct_X_I@Internal@Core@Math@Palmtree@@YAPEAU__tag_PMC_HANDLE_UINT@1234@PEAU51234@I@Z@4HA ENDP ; `Palmtree::Math::Core::Internal::PMC_Subtruct_X_I'::`1'::dtor$1
text$x	ENDS
; Function compile flags: /Ogtpy
;	COMDAT text$x
text$x	SEGMENT
root$1 = 56
$T2 = 56
$T3 = 56
$T4 = 56
root$ = 104
u$ = 160
v$ = 168
?dtor$0@?0??PMC_Subtruct_X_I@Internal@Core@Math@Palmtree@@YAPEAU__tag_PMC_HANDLE_UINT@1234@PEAU51234@I@Z@4HA PROC ; `Palmtree::Math::Core::Internal::PMC_Subtruct_X_I'::`1'::dtor$0
  00000	48 8d 8a 68 00
	00 00		 lea	 rcx, QWORD PTR root$[rdx]
  00007	e9 00 00 00 00	 jmp	 ??1ResourceHolderUINT@Internal@Core@Math@Palmtree@@UEAA@XZ ; Palmtree::Math::Core::Internal::ResourceHolderUINT::~ResourceHolderUINT
?dtor$0@?0??PMC_Subtruct_X_I@Internal@Core@Math@Palmtree@@YAPEAU__tag_PMC_HANDLE_UINT@1234@PEAU51234@I@Z@4HA ENDP ; `Palmtree::Math::Core::Internal::PMC_Subtruct_X_I'::`1'::dtor$0
text$x	ENDS
; Function compile flags: /Ogtpy
;	COMDAT text$x
text$x	SEGMENT
root$1 = 56
$T2 = 56
$T3 = 56
$T4 = 56
root$ = 104
u$ = 160
v$ = 168
?dtor$1@?0??PMC_Subtruct_X_I@Internal@Core@Math@Palmtree@@YAPEAU__tag_PMC_HANDLE_UINT@1234@PEAU51234@I@Z@4HA PROC ; `Palmtree::Math::Core::Internal::PMC_Subtruct_X_I'::`1'::dtor$1
  00000	48 8d 8a 38 00
	00 00		 lea	 rcx, QWORD PTR root$1[rdx]
  00007	e9 00 00 00 00	 jmp	 ??1ResourceHolderUINT@Internal@Core@Math@Palmtree@@UEAA@XZ ; Palmtree::Math::Core::Internal::ResourceHolderUINT::~ResourceHolderUINT
?dtor$1@?0??PMC_Subtruct_X_I@Internal@Core@Math@Palmtree@@YAPEAU__tag_PMC_HANDLE_UINT@1234@PEAU51234@I@Z@4HA ENDP ; `Palmtree::Math::Core::Internal::PMC_Subtruct_X_I'::`1'::dtor$1
text$x	ENDS
; Function compile flags: /Ogtpy
; File z:\sources\lunor\repos\rougemeilland\palmtree.math.core.uint\palmtree.math.core.uint\pmc_subtruct.cpp
; File z:\sources\lunor\repos\rougemeilland\palmtree.math.core.uint\palmtree.math.core.uint\pmc_inline_func.h
; File z:\sources\lunor\repos\rougemeilland\palmtree.math.core.uint\palmtree.math.core.uint\pmc_subtruct.cpp
; File z:\sources\lunor\repos\rougemeilland\palmtree.math.core.uint\palmtree.math.core.uint\pmc_inline_func.h
; File z:\sources\lunor\repos\rougemeilland\palmtree.math.core.uint\palmtree.math.core.uint\pmc_subtruct.cpp
;	COMDAT ?PMC_Subtruct_L_X@Internal@Core@Math@Palmtree@@YA_K_KPEAU__tag_PMC_HANDLE_UINT@1234@@Z
_TEXT	SEGMENT
$T1 = 32
$T2 = 32
$T3 = 32
$T4 = 32
u$ = 96
v$ = 104
?PMC_Subtruct_L_X@Internal@Core@Math@Palmtree@@YA_K_KPEAU__tag_PMC_HANDLE_UINT@1234@@Z PROC ; Palmtree::Math::Core::Internal::PMC_Subtruct_L_X, COMDAT

; 345  :     {

$LN57:
  00000	48 89 5c 24 08	 mov	 QWORD PTR [rsp+8], rbx
  00005	57		 push	 rdi
  00006	48 83 ec 50	 sub	 rsp, 80			; 00000050H
  0000a	48 8b fa	 mov	 rdi, rdx
  0000d	48 8b d9	 mov	 rbx, rcx

; 346  :         if (__UNIT_TYPE_BIT_COUNT * 2 < sizeof(u) * 8)
; 347  :         {
; 348  :             // _UINT64_T  2 
; 349  :             throw InternalErrorException(L"", L"pmc_subtruct.cpp;PMC_Subtruct_L_X;1");
; 350  :         }
; 351  :         if (v == nullptr)

  00010	48 85 d2	 test	 rdx, rdx
  00013	74 60		 je	 SHORT $LN54@PMC_Subtru

; 353  :         NUMBER_HEADER* nv = (NUMBER_HEADER*)v;
; 354  :         CheckNumber(nv);

  00015	48 8b ca	 mov	 rcx, rdx
  00018	e8 00 00 00 00	 call	 ?CheckNumber@Internal@Core@Math@Palmtree@@YAXPEAU__tag_NUMBER_HEADER@1234@@Z ; Palmtree::Math::Core::Internal::CheckNumber
  0001d	8b 47 08	 mov	 eax, DWORD PTR [rdi+8]
  00020	83 e0 01	 and	 eax, 1

; 355  :         if (u == 0)

  00023	48 85 db	 test	 rbx, rbx
  00026	75 11		 jne	 SHORT $LN4@PMC_Subtru

; 356  :         {
; 357  :             // u  0 
; 358  : 
; 359  :             if (nv->IS_ZERO)

  00028	85 c0		 test	 eax, eax
  0002a	74 73		 je	 SHORT $LN6@PMC_Subtru

; 360  :             {
; 361  :                 // v  0 
; 362  : 
; 363  :                 // x  y  0  0 
; 364  :                 return (0);

  0002c	33 c0		 xor	 eax, eax

; 494  :                         }
; 495  :                         else
; 496  :                         {
; 497  :                             return (temp_w);
; 498  :                         }
; 499  :                     }
; 500  :                 }
; 501  :             }
; 502  :         }
; 503  :     }

  0002e	48 8b 5c 24 60	 mov	 rbx, QWORD PTR [rsp+96]
  00033	48 83 c4 50	 add	 rsp, 80			; 00000050H
  00037	5f		 pop	 rdi
  00038	c3		 ret	 0
$LN4@PMC_Subtru:

; 372  :             }
; 373  :         }
; 374  :         else
; 375  :         {
; 376  :             // u  0 
; 377  : 
; 378  :             if (nv->IS_ZERO)

  00039	85 c0		 test	 eax, eax
  0003b	75 2a		 jne	 SHORT $LN26@PMC_Subtru
; File z:\sources\lunor\repos\rougemeilland\palmtree.math.core.uint\palmtree.math.core.uint\pmc_inline_func.h

; 469  :             _BitScanReverse64(&pos, x);

  0003d	48 0f bd c3	 bsr	 rax, rbx

; 470  : #elif defined(__GNUC__)
; 471  :             _UINT64_T pos;
; 472  :             __asm__("bsrq %1, %0" : "=r"(pos) : "rm"(x));
; 473  : #else
; 474  : #error unknown compiler
; 475  : #endif
; 476  : #else
; 477  : #error unknown platform
; 478  : #endif
; 479  :             return (sizeof(x) * 8 - 1 - pos);

  00041	b9 3f 00 00 00	 mov	 ecx, 63			; 0000003fH
  00046	2b c8		 sub	 ecx, eax
; File z:\sources\lunor\repos\rougemeilland\palmtree.math.core.uint\palmtree.math.core.uint\pmc_subtruct.cpp

; 473  :                     __UNIT_TYPE u_bit_count = sizeof(u) * 8 - _LZCNT_ALT_UNIT((__UNIT_TYPE)u);

  00048	48 63 c1	 movsxd	 rax, ecx
  0004b	b9 40 00 00 00	 mov	 ecx, 64			; 00000040H
  00050	48 2b c8	 sub	 rcx, rax

; 474  :                     __UNIT_TYPE v_bit_count = nv->UNIT_BIT_COUNT;
; 475  :                     if (u_bit_count < v_bit_count)

  00053	48 3b 4f 20	 cmp	 rcx, QWORD PTR [rdi+32]
  00057	72 69		 jb	 SHORT $LN55@PMC_Subtru

; 481  :                     }
; 482  :                     else
; 483  :                     {
; 484  :                         // u  v 
; 485  : 
; 486  :                         // u  64bit  v  64bit 
; 487  : 
; 488  :                         __UNIT_TYPE temp_w;
; 489  :                         char borrow = _SUBTRUCT_UNIT(0, (__UNIT_TYPE)u, nv->BLOCK[0], &temp_w);

  00059	48 8b 47 40	 mov	 rax, QWORD PTR [rdi+64]
; File z:\sources\lunor\repos\rougemeilland\palmtree.math.core.uint\palmtree.math.core.uint\pmc_inline_func.h

; 202  :             return (_subborrow_u64(borrow, u, v, w));

  0005d	48 2b 18	 sub	 rbx, QWORD PTR [rax]
  00060	0f 92 c0	 setb	 al
; File z:\sources\lunor\repos\rougemeilland\palmtree.math.core.uint\palmtree.math.core.uint\pmc_subtruct.cpp

; 490  :                         if (borrow)

  00063	84 c0		 test	 al, al
  00065	75 7e		 jne	 SHORT $LN56@PMC_Subtru
$LN26@PMC_Subtru:

; 494  :                         }
; 495  :                         else
; 496  :                         {
; 497  :                             return (temp_w);
; 498  :                         }
; 499  :                     }
; 500  :                 }
; 501  :             }
; 502  :         }
; 503  :     }

  00067	48 8b c3	 mov	 rax, rbx
  0006a	48 8b 5c 24 60	 mov	 rbx, QWORD PTR [rsp+96]
  0006f	48 83 c4 50	 add	 rsp, 80			; 00000050H
  00073	5f		 pop	 rdi
  00074	c3		 ret	 0
$LN54@PMC_Subtru:

; 352  :             throw ArgumentNullException(L"nullptr", L"v");

  00075	4c 8d 05 00 00
	00 00		 lea	 r8, OFFSET FLAT:??_C@_13JAOPNPKD@?$AAv@
  0007c	48 8d 15 00 00
	00 00		 lea	 rdx, OFFSET FLAT:??_C@_1CK@ECFIEPAC@?$AA?$BF?$AAp?$AAk?$AAn?$AAu?$AAl?$AAl?$AAp?$AAt?$AAr?$AAL?$AA?$AO?$AAH?$PP?$IJ?$PP?$IM@
  00083	48 8d 4c 24 20	 lea	 rcx, QWORD PTR $T4[rsp]
  00088	e8 00 00 00 00	 call	 ??0ArgumentNullException@Internal@Core@Math@Palmtree@@QEAA@PEB_W0@Z ; Palmtree::Math::Core::Internal::ArgumentNullException::ArgumentNullException
  0008d	48 8d 15 00 00
	00 00		 lea	 rdx, OFFSET FLAT:_TI2?AVArgumentNullException@Internal@Core@Math@Palmtree@@
  00094	48 8d 4c 24 20	 lea	 rcx, QWORD PTR $T4[rsp]
  00099	e8 00 00 00 00	 call	 _CxxThrowException
  0009e	cc		 int	 3
$LN6@PMC_Subtru:

; 365  :             }
; 366  :             else
; 367  :             {
; 368  :                 // v  0 
; 369  : 
; 370  :                 // 
; 371  :                 throw OverflowException(L"");

  0009f	48 8d 15 00 00
	00 00		 lea	 rdx, OFFSET FLAT:??_C@_1CK@EKOAHHOC@?$AA?$BL?$PP?$JH?$AAk?$PP?$II?$PP?$IK?$PP?$KK?$PP?$PM?$PP?P?$PP?$PM?$PP?U?$PP?m?$PP?$PM?$AAL?$AAz?$AA?$BP@
  000a6	48 8d 4c 24 20	 lea	 rcx, QWORD PTR $T3[rsp]
  000ab	e8 00 00 00 00	 call	 ??0OverflowException@Internal@Core@Math@Palmtree@@QEAA@PEB_W@Z ; Palmtree::Math::Core::Internal::OverflowException::OverflowException
  000b0	48 8d 15 00 00
	00 00		 lea	 rdx, OFFSET FLAT:_TI2?AVOverflowException@Internal@Core@Math@Palmtree@@
  000b7	48 8d 4c 24 20	 lea	 rcx, QWORD PTR $T3[rsp]
  000bc	e8 00 00 00 00	 call	 _CxxThrowException
  000c1	cc		 int	 3
$LN55@PMC_Subtru:

; 476  :                     {
; 477  :                         //  u < v 
; 478  : 
; 479  :                         // 
; 480  :                         throw OverflowException(L"");

  000c2	48 8d 15 00 00
	00 00		 lea	 rdx, OFFSET FLAT:??_C@_1CK@EKOAHHOC@?$AA?$BL?$PP?$JH?$AAk?$PP?$II?$PP?$IK?$PP?$KK?$PP?$PM?$PP?P?$PP?$PM?$PP?U?$PP?m?$PP?$PM?$AAL?$AAz?$AA?$BP@
  000c9	48 8d 4c 24 20	 lea	 rcx, QWORD PTR $T2[rsp]
  000ce	e8 00 00 00 00	 call	 ??0OverflowException@Internal@Core@Math@Palmtree@@QEAA@PEB_W@Z ; Palmtree::Math::Core::Internal::OverflowException::OverflowException
  000d3	48 8d 15 00 00
	00 00		 lea	 rdx, OFFSET FLAT:_TI2?AVOverflowException@Internal@Core@Math@Palmtree@@
  000da	48 8d 4c 24 20	 lea	 rcx, QWORD PTR $T2[rsp]
  000df	e8 00 00 00 00	 call	 _CxxThrowException
  000e4	cc		 int	 3
$LN56@PMC_Subtru:

; 491  :                         {
; 492  :                             // 
; 493  :                             throw OverflowException(L"");

  000e5	48 8d 15 00 00
	00 00		 lea	 rdx, OFFSET FLAT:??_C@_1CK@EKOAHHOC@?$AA?$BL?$PP?$JH?$AAk?$PP?$II?$PP?$IK?$PP?$KK?$PP?$PM?$PP?P?$PP?$PM?$PP?U?$PP?m?$PP?$PM?$AAL?$AAz?$AA?$BP@
  000ec	48 8d 4c 24 20	 lea	 rcx, QWORD PTR $T1[rsp]
  000f1	e8 00 00 00 00	 call	 ??0OverflowException@Internal@Core@Math@Palmtree@@QEAA@PEB_W@Z ; Palmtree::Math::Core::Internal::OverflowException::OverflowException
  000f6	48 8d 15 00 00
	00 00		 lea	 rdx, OFFSET FLAT:_TI2?AVOverflowException@Internal@Core@Math@Palmtree@@
  000fd	48 8d 4c 24 20	 lea	 rcx, QWORD PTR $T1[rsp]
  00102	e8 00 00 00 00	 call	 _CxxThrowException
  00107	cc		 int	 3
$LN52@PMC_Subtru:
?PMC_Subtruct_L_X@Internal@Core@Math@Palmtree@@YA_K_KPEAU__tag_PMC_HANDLE_UINT@1234@@Z ENDP ; Palmtree::Math::Core::Internal::PMC_Subtruct_L_X
_TEXT	ENDS
; Function compile flags: /Ogtpy
; File z:\sources\lunor\repos\rougemeilland\palmtree.math.core.uint\palmtree.math.core.uint\pmc_subtruct.cpp
; File z:\sources\lunor\repos\rougemeilland\palmtree.math.core.uint\palmtree.math.core.uint\pmc_inline_func.h
; File z:\sources\lunor\repos\rougemeilland\palmtree.math.core.uint\palmtree.math.core.uint\pmc_subtruct.cpp
; File z:\sources\lunor\repos\rougemeilland\palmtree.math.core.uint\palmtree.math.core.uint\pmc_inline_func.h
; File z:\sources\lunor\repos\rougemeilland\palmtree.math.core.uint\palmtree.math.core.uint\pmc_subtruct.cpp
;	COMDAT ?PMC_Subtruct_I_X@Internal@Core@Math@Palmtree@@YAIIPEAU__tag_PMC_HANDLE_UINT@1234@@Z
_TEXT	SEGMENT
$T1 = 32
$T2 = 32
$T3 = 32
$T4 = 32
u$ = 96
v$ = 104
?PMC_Subtruct_I_X@Internal@Core@Math@Palmtree@@YAIIPEAU__tag_PMC_HANDLE_UINT@1234@@Z PROC ; Palmtree::Math::Core::Internal::PMC_Subtruct_I_X, COMDAT

; 187  :     {

$LN24:
  00000	48 89 5c 24 08	 mov	 QWORD PTR [rsp+8], rbx
  00005	57		 push	 rdi
  00006	48 83 ec 50	 sub	 rsp, 80			; 00000050H
  0000a	8b f9		 mov	 edi, ecx
  0000c	48 8b da	 mov	 rbx, rdx

; 188  :         if (__UNIT_TYPE_BIT_COUNT < sizeof(u) * 8)
; 189  :         {
; 190  :             // _UINT32_T  1 
; 191  :             throw InternalErrorException(L"", L"pmc_subtruct.cpp;PMC_Subtruct_I_X;1");
; 192  :         }
; 193  :         if (v == nullptr)

  0000f	48 85 d2	 test	 rdx, rdx
  00012	74 71		 je	 SHORT $LN21@PMC_Subtru

; 195  :         NUMBER_HEADER* nv = (NUMBER_HEADER*)v;
; 196  :         CheckNumber(nv);

  00014	48 8b ca	 mov	 rcx, rdx
  00017	e8 00 00 00 00	 call	 ?CheckNumber@Internal@Core@Math@Palmtree@@YAXPEAU__tag_NUMBER_HEADER@1234@@Z ; Palmtree::Math::Core::Internal::CheckNumber
  0001c	8b 43 08	 mov	 eax, DWORD PTR [rbx+8]
  0001f	83 e0 01	 and	 eax, 1

; 197  :         if (u == 0)

  00022	85 ff		 test	 edi, edi
  00024	75 15		 jne	 SHORT $LN4@PMC_Subtru

; 198  :         {
; 199  :             // u  0 
; 200  : 
; 201  :             if (nv->IS_ZERO)

  00026	85 c0		 test	 eax, eax
  00028	0f 84 81 00 00
	00		 je	 $LN6@PMC_Subtru

; 202  :             {
; 203  :                 // v  0 
; 204  : 
; 205  :                 // u  v  0  0 
; 206  :                 return (0);

  0002e	33 c0		 xor	 eax, eax

; 251  :                     }
; 252  :                     return ((_UINT32_T)temp_w);
; 253  :                 }
; 254  :             }
; 255  :         }
; 256  :     }

  00030	48 8b 5c 24 60	 mov	 rbx, QWORD PTR [rsp+96]
  00035	48 83 c4 50	 add	 rsp, 80			; 00000050H
  00039	5f		 pop	 rdi
  0003a	c3		 ret	 0
$LN4@PMC_Subtru:

; 214  :             }
; 215  :         }
; 216  :         else
; 217  :         {
; 218  :             // u  0 
; 219  : 
; 220  :             if (nv->IS_ZERO)

  0003b	85 c0		 test	 eax, eax
  0003d	74 0d		 je	 SHORT $LN8@PMC_Subtru

; 221  :             {
; 222  :                 // v  0 
; 223  : 
; 224  :                 //  u 
; 225  :                 return (u);

  0003f	8b c7		 mov	 eax, edi

; 251  :                     }
; 252  :                     return ((_UINT32_T)temp_w);
; 253  :                 }
; 254  :             }
; 255  :         }
; 256  :     }

  00041	48 8b 5c 24 60	 mov	 rbx, QWORD PTR [rsp+96]
  00046	48 83 c4 50	 add	 rsp, 80			; 00000050H
  0004a	5f		 pop	 rdi
  0004b	c3		 ret	 0
$LN8@PMC_Subtru:
; File z:\sources\lunor\repos\rougemeilland\palmtree.math.core.uint\palmtree.math.core.uint\pmc_inline_func.h

; 426  :             _BitScanReverse(&pos, x);

  0004c	0f bd c7	 bsr	 eax, edi

; 427  : #elif defined(__GNUC__)
; 428  :             __asm__("bsrl %1, %0" : "=r"(pos) : "rm"(x));
; 429  : #else
; 430  : #error unknown compiler
; 431  : #endif
; 432  :             return (sizeof(x) * 8 - 1 - pos);

  0004f	b9 1f 00 00 00	 mov	 ecx, 31
  00054	2b c8		 sub	 ecx, eax
; File z:\sources\lunor\repos\rougemeilland\palmtree.math.core.uint\palmtree.math.core.uint\pmc_subtruct.cpp

; 232  :                 __UNIT_TYPE u_bit_count = sizeof(u) * 8 - _LZCNT_ALT_32(u);

  00056	48 63 c1	 movsxd	 rax, ecx
  00059	b9 20 00 00 00	 mov	 ecx, 32			; 00000020H
  0005e	48 2b c8	 sub	 rcx, rax

; 233  :                 __UNIT_TYPE v_bit_count = nv->UNIT_BIT_COUNT;
; 234  :                 if (u_bit_count < v_bit_count)

  00061	48 3b 4b 20	 cmp	 rcx, QWORD PTR [rbx+32]
  00065	72 6b		 jb	 SHORT $LN22@PMC_Subtru

; 239  :                 }
; 240  :                 else
; 241  :                 {
; 242  :                     // u  v 
; 243  : 
; 244  :                     // u  32bit v 32bit 
; 245  :                     __UNIT_TYPE temp_w;
; 246  :                     char borrow = _SUBTRUCT_UNIT(0, u, nv->BLOCK[0], &temp_w);

  00067	48 8b 43 40	 mov	 rax, QWORD PTR [rbx+64]
  0006b	48 8b cf	 mov	 rcx, rdi
; File z:\sources\lunor\repos\rougemeilland\palmtree.math.core.uint\palmtree.math.core.uint\pmc_inline_func.h

; 202  :             return (_subborrow_u64(borrow, u, v, w));

  0006e	48 2b 08	 sub	 rcx, QWORD PTR [rax]
  00071	0f 92 c0	 setb	 al
; File z:\sources\lunor\repos\rougemeilland\palmtree.math.core.uint\palmtree.math.core.uint\pmc_subtruct.cpp

; 247  :                     if (borrow)

  00074	84 c0		 test	 al, al
  00076	75 7d		 jne	 SHORT $LN23@PMC_Subtru

; 251  :                     }
; 252  :                     return ((_UINT32_T)temp_w);
; 253  :                 }
; 254  :             }
; 255  :         }
; 256  :     }

  00078	48 8b 5c 24 60	 mov	 rbx, QWORD PTR [rsp+96]
  0007d	8b c1		 mov	 eax, ecx
  0007f	48 83 c4 50	 add	 rsp, 80			; 00000050H
  00083	5f		 pop	 rdi
  00084	c3		 ret	 0
$LN21@PMC_Subtru:

; 194  :             throw ArgumentNullException(L"nullptr", L"v");

  00085	4c 8d 05 00 00
	00 00		 lea	 r8, OFFSET FLAT:??_C@_13JAOPNPKD@?$AAv@
  0008c	48 8d 15 00 00
	00 00		 lea	 rdx, OFFSET FLAT:??_C@_1CK@ECFIEPAC@?$AA?$BF?$AAp?$AAk?$AAn?$AAu?$AAl?$AAl?$AAp?$AAt?$AAr?$AAL?$AA?$AO?$AAH?$PP?$IJ?$PP?$IM@
  00093	48 8d 4c 24 20	 lea	 rcx, QWORD PTR $T4[rsp]
  00098	e8 00 00 00 00	 call	 ??0ArgumentNullException@Internal@Core@Math@Palmtree@@QEAA@PEB_W0@Z ; Palmtree::Math::Core::Internal::ArgumentNullException::ArgumentNullException
  0009d	48 8d 15 00 00
	00 00		 lea	 rdx, OFFSET FLAT:_TI2?AVArgumentNullException@Internal@Core@Math@Palmtree@@
  000a4	48 8d 4c 24 20	 lea	 rcx, QWORD PTR $T4[rsp]
  000a9	e8 00 00 00 00	 call	 _CxxThrowException
  000ae	cc		 int	 3
$LN6@PMC_Subtru:

; 207  :             }
; 208  :             else
; 209  :             {
; 210  :                 // v  0 
; 211  : 
; 212  :                 // 
; 213  :                 throw OverflowException(L"");

  000af	48 8d 15 00 00
	00 00		 lea	 rdx, OFFSET FLAT:??_C@_1CK@EKOAHHOC@?$AA?$BL?$PP?$JH?$AAk?$PP?$II?$PP?$IK?$PP?$KK?$PP?$PM?$PP?P?$PP?$PM?$PP?U?$PP?m?$PP?$PM?$AAL?$AAz?$AA?$BP@
  000b6	48 8d 4c 24 20	 lea	 rcx, QWORD PTR $T3[rsp]
  000bb	e8 00 00 00 00	 call	 ??0OverflowException@Internal@Core@Math@Palmtree@@QEAA@PEB_W@Z ; Palmtree::Math::Core::Internal::OverflowException::OverflowException
  000c0	48 8d 15 00 00
	00 00		 lea	 rdx, OFFSET FLAT:_TI2?AVOverflowException@Internal@Core@Math@Palmtree@@
  000c7	48 8d 4c 24 20	 lea	 rcx, QWORD PTR $T3[rsp]
  000cc	e8 00 00 00 00	 call	 _CxxThrowException
  000d1	cc		 int	 3
$LN22@PMC_Subtru:

; 235  :                 {
; 236  :                     //  u < v 
; 237  :                     // 
; 238  :                     throw OverflowException(L"");

  000d2	48 8d 15 00 00
	00 00		 lea	 rdx, OFFSET FLAT:??_C@_1CK@EKOAHHOC@?$AA?$BL?$PP?$JH?$AAk?$PP?$II?$PP?$IK?$PP?$KK?$PP?$PM?$PP?P?$PP?$PM?$PP?U?$PP?m?$PP?$PM?$AAL?$AAz?$AA?$BP@
  000d9	48 8d 4c 24 20	 lea	 rcx, QWORD PTR $T2[rsp]
  000de	e8 00 00 00 00	 call	 ??0OverflowException@Internal@Core@Math@Palmtree@@QEAA@PEB_W@Z ; Palmtree::Math::Core::Internal::OverflowException::OverflowException
  000e3	48 8d 15 00 00
	00 00		 lea	 rdx, OFFSET FLAT:_TI2?AVOverflowException@Internal@Core@Math@Palmtree@@
  000ea	48 8d 4c 24 20	 lea	 rcx, QWORD PTR $T2[rsp]
  000ef	e8 00 00 00 00	 call	 _CxxThrowException
  000f4	cc		 int	 3
$LN23@PMC_Subtru:

; 248  :                     {
; 249  :                         // 
; 250  :                         throw OverflowException(L"");

  000f5	48 8d 15 00 00
	00 00		 lea	 rdx, OFFSET FLAT:??_C@_1CK@EKOAHHOC@?$AA?$BL?$PP?$JH?$AAk?$PP?$II?$PP?$IK?$PP?$KK?$PP?$PM?$PP?P?$PP?$PM?$PP?U?$PP?m?$PP?$PM?$AAL?$AAz?$AA?$BP@
  000fc	48 8d 4c 24 20	 lea	 rcx, QWORD PTR $T1[rsp]
  00101	e8 00 00 00 00	 call	 ??0OverflowException@Internal@Core@Math@Palmtree@@QEAA@PEB_W@Z ; Palmtree::Math::Core::Internal::OverflowException::OverflowException
  00106	48 8d 15 00 00
	00 00		 lea	 rdx, OFFSET FLAT:_TI2?AVOverflowException@Internal@Core@Math@Palmtree@@
  0010d	48 8d 4c 24 20	 lea	 rcx, QWORD PTR $T1[rsp]
  00112	e8 00 00 00 00	 call	 _CxxThrowException
  00117	cc		 int	 3
$LN19@PMC_Subtru:
?PMC_Subtruct_I_X@Internal@Core@Math@Palmtree@@YAIIPEAU__tag_PMC_HANDLE_UINT@1234@@Z ENDP ; Palmtree::Math::Core::Internal::PMC_Subtruct_I_X
_TEXT	ENDS
; Function compile flags: /Ogtpy
; File z:\sources\lunor\repos\rougemeilland\palmtree.math.core.uint\palmtree.math.core.uint\pmc_subtruct.cpp
;	COMDAT ?Initialize_Subtruct@Internal@Core@Math@Palmtree@@YAHPEAU_tag_PROCESSOR_FEATURES@1234@@Z
_TEXT	SEGMENT
feature$ = 8
?Initialize_Subtruct@Internal@Core@Math@Palmtree@@YAHPEAU_tag_PROCESSOR_FEATURES@1234@@Z PROC ; Palmtree::Math::Core::Internal::Initialize_Subtruct, COMDAT

; 734  :         return (PMC_STATUS_OK);

  00000	33 c0		 xor	 eax, eax

; 735  :     }

  00002	c3		 ret	 0
?Initialize_Subtruct@Internal@Core@Math@Palmtree@@YAHPEAU_tag_PROCESSOR_FEATURES@1234@@Z ENDP ; Palmtree::Math::Core::Internal::Initialize_Subtruct
_TEXT	ENDS
; Function compile flags: /Ogtpy
; File z:\sources\lunor\repos\rougemeilland\palmtree.math.core.uint\palmtree.math.core.uint\pmc_subtruct.cpp
; File z:\sources\lunor\repos\rougemeilland\palmtree.math.core.uint\palmtree.math.core.uint\autogenerated_inline_func.h
; File z:\sources\lunor\repos\rougemeilland\palmtree.math.core.uint\palmtree.math.core.uint\pmc_inline_func.h
; File z:\sources\lunor\repos\rougemeilland\palmtree.math.core.uint\palmtree.math.core.uint\autogenerated_inline_func.h
; File z:\sources\lunor\repos\rougemeilland\palmtree.math.core.uint\palmtree.math.core.uint\pmc_inline_func.h
; File z:\sources\lunor\repos\rougemeilland\palmtree.math.core.uint\palmtree.math.core.uint\autogenerated_inline_func.h
; File z:\sources\lunor\repos\rougemeilland\palmtree.math.core.uint\palmtree.math.core.uint\pmc_inline_func.h
; File z:\sources\lunor\repos\rougemeilland\palmtree.math.core.uint\palmtree.math.core.uint\autogenerated_inline_func.h
; File z:\sources\lunor\repos\rougemeilland\palmtree.math.core.uint\palmtree.math.core.uint\pmc_inline_func.h
; File z:\sources\lunor\repos\rougemeilland\palmtree.math.core.uint\palmtree.math.core.uint\autogenerated_inline_func.h
; File z:\sources\lunor\repos\rougemeilland\palmtree.math.core.uint\palmtree.math.core.uint\pmc_inline_func.h
; File z:\sources\lunor\repos\rougemeilland\palmtree.math.core.uint\palmtree.math.core.uint\autogenerated_inline_func.h
; File z:\sources\lunor\repos\rougemeilland\palmtree.math.core.uint\palmtree.math.core.uint\pmc_inline_func.h
; File z:\sources\lunor\repos\rougemeilland\palmtree.math.core.uint\palmtree.math.core.uint\autogenerated_inline_func.h
; File z:\sources\lunor\repos\rougemeilland\palmtree.math.core.uint\palmtree.math.core.uint\pmc_inline_func.h
; File z:\sources\lunor\repos\rougemeilland\palmtree.math.core.uint\palmtree.math.core.uint\autogenerated_inline_func.h
; File z:\sources\lunor\repos\rougemeilland\palmtree.math.core.uint\palmtree.math.core.uint\pmc_inline_func.h
; File z:\sources\lunor\repos\rougemeilland\palmtree.math.core.uint\palmtree.math.core.uint\autogenerated_inline_func.h
; File z:\sources\lunor\repos\rougemeilland\palmtree.math.core.uint\palmtree.math.core.uint\pmc_inline_func.h
; File z:\sources\lunor\repos\rougemeilland\palmtree.math.core.uint\palmtree.math.core.uint\autogenerated_inline_func.h
; File z:\sources\lunor\repos\rougemeilland\palmtree.math.core.uint\palmtree.math.core.uint\pmc_inline_func.h
; File z:\sources\lunor\repos\rougemeilland\palmtree.math.core.uint\palmtree.math.core.uint\autogenerated_inline_func.h
; File z:\sources\lunor\repos\rougemeilland\palmtree.math.core.uint\palmtree.math.core.uint\pmc_inline_func.h
; File z:\sources\lunor\repos\rougemeilland\palmtree.math.core.uint\palmtree.math.core.uint\autogenerated_inline_func.h
; File z:\sources\lunor\repos\rougemeilland\palmtree.math.core.uint\palmtree.math.core.uint\pmc_inline_func.h
; File z:\sources\lunor\repos\rougemeilland\palmtree.math.core.uint\palmtree.math.core.uint\autogenerated_inline_func.h
; File z:\sources\lunor\repos\rougemeilland\palmtree.math.core.uint\palmtree.math.core.uint\pmc_inline_func.h
; File z:\sources\lunor\repos\rougemeilland\palmtree.math.core.uint\palmtree.math.core.uint\autogenerated_inline_func.h
; File z:\sources\lunor\repos\rougemeilland\palmtree.math.core.uint\palmtree.math.core.uint\pmc_inline_func.h
; File z:\sources\lunor\repos\rougemeilland\palmtree.math.core.uint\palmtree.math.core.uint\autogenerated_inline_func.h
; File z:\sources\lunor\repos\rougemeilland\palmtree.math.core.uint\palmtree.math.core.uint\pmc_inline_func.h
; File z:\sources\lunor\repos\rougemeilland\palmtree.math.core.uint\palmtree.math.core.uint\autogenerated_inline_func.h
; File z:\sources\lunor\repos\rougemeilland\palmtree.math.core.uint\palmtree.math.core.uint\pmc_inline_func.h
; File z:\sources\lunor\repos\rougemeilland\palmtree.math.core.uint\palmtree.math.core.uint\autogenerated_inline_func.h
; File z:\sources\lunor\repos\rougemeilland\palmtree.math.core.uint\palmtree.math.core.uint\pmc_inline_func.h
; File z:\sources\lunor\repos\rougemeilland\palmtree.math.core.uint\palmtree.math.core.uint\autogenerated_inline_func.h
; File z:\sources\lunor\repos\rougemeilland\palmtree.math.core.uint\palmtree.math.core.uint\pmc_inline_func.h
; File z:\sources\lunor\repos\rougemeilland\palmtree.math.core.uint\palmtree.math.core.uint\autogenerated_inline_func.h
; File z:\sources\lunor\repos\rougemeilland\palmtree.math.core.uint\palmtree.math.core.uint\pmc_inline_func.h
; File z:\sources\lunor\repos\rougemeilland\palmtree.math.core.uint\palmtree.math.core.uint\autogenerated_inline_func.h
; File z:\sources\lunor\repos\rougemeilland\palmtree.math.core.uint\palmtree.math.core.uint\pmc_inline_func.h
; File z:\sources\lunor\repos\rougemeilland\palmtree.math.core.uint\palmtree.math.core.uint\autogenerated_inline_func.h
; File z:\sources\lunor\repos\rougemeilland\palmtree.math.core.uint\palmtree.math.core.uint\pmc_inline_func.h
; File z:\sources\lunor\repos\rougemeilland\palmtree.math.core.uint\palmtree.math.core.uint\autogenerated_inline_func.h
; File z:\sources\lunor\repos\rougemeilland\palmtree.math.core.uint\palmtree.math.core.uint\pmc_inline_func.h
; File z:\sources\lunor\repos\rougemeilland\palmtree.math.core.uint\palmtree.math.core.uint\autogenerated_inline_func.h
; File z:\sources\lunor\repos\rougemeilland\palmtree.math.core.uint\palmtree.math.core.uint\pmc_inline_func.h
; File z:\sources\lunor\repos\rougemeilland\palmtree.math.core.uint\palmtree.math.core.uint\autogenerated_inline_func.h
; File z:\sources\lunor\repos\rougemeilland\palmtree.math.core.uint\palmtree.math.core.uint\pmc_inline_func.h
; File z:\sources\lunor\repos\rougemeilland\palmtree.math.core.uint\palmtree.math.core.uint\autogenerated_inline_func.h
; File z:\sources\lunor\repos\rougemeilland\palmtree.math.core.uint\palmtree.math.core.uint\pmc_inline_func.h
; File z:\sources\lunor\repos\rougemeilland\palmtree.math.core.uint\palmtree.math.core.uint\autogenerated_inline_func.h
; File z:\sources\lunor\repos\rougemeilland\palmtree.math.core.uint\palmtree.math.core.uint\pmc_inline_func.h
; File z:\sources\lunor\repos\rougemeilland\palmtree.math.core.uint\palmtree.math.core.uint\autogenerated_inline_func.h
; File z:\sources\lunor\repos\rougemeilland\palmtree.math.core.uint\palmtree.math.core.uint\pmc_inline_func.h
; File z:\sources\lunor\repos\rougemeilland\palmtree.math.core.uint\palmtree.math.core.uint\autogenerated_inline_func.h
; File z:\sources\lunor\repos\rougemeilland\palmtree.math.core.uint\palmtree.math.core.uint\pmc_inline_func.h
; File z:\sources\lunor\repos\rougemeilland\palmtree.math.core.uint\palmtree.math.core.uint\autogenerated_inline_func.h
; File z:\sources\lunor\repos\rougemeilland\palmtree.math.core.uint\palmtree.math.core.uint\pmc_inline_func.h
; File z:\sources\lunor\repos\rougemeilland\palmtree.math.core.uint\palmtree.math.core.uint\autogenerated_inline_func.h
; File z:\sources\lunor\repos\rougemeilland\palmtree.math.core.uint\palmtree.math.core.uint\pmc_inline_func.h
; File z:\sources\lunor\repos\rougemeilland\palmtree.math.core.uint\palmtree.math.core.uint\autogenerated_inline_func.h
; File z:\sources\lunor\repos\rougemeilland\palmtree.math.core.uint\palmtree.math.core.uint\pmc_inline_func.h
; File z:\sources\lunor\repos\rougemeilland\palmtree.math.core.uint\palmtree.math.core.uint\autogenerated_inline_func.h
; File z:\sources\lunor\repos\rougemeilland\palmtree.math.core.uint\palmtree.math.core.uint\pmc_inline_func.h
; File z:\sources\lunor\repos\rougemeilland\palmtree.math.core.uint\palmtree.math.core.uint\pmc_subtruct.cpp
; File z:\sources\lunor\repos\rougemeilland\palmtree.math.core.uint\palmtree.math.core.uint\autogenerated_inline_func.h
; File z:\sources\lunor\repos\rougemeilland\palmtree.math.core.uint\palmtree.math.core.uint\pmc_inline_func.h
; File z:\sources\lunor\repos\rougemeilland\palmtree.math.core.uint\palmtree.math.core.uint\autogenerated_inline_func.h
; File z:\sources\lunor\repos\rougemeilland\palmtree.math.core.uint\palmtree.math.core.uint\pmc_inline_func.h
; File z:\sources\lunor\repos\rougemeilland\palmtree.math.core.uint\palmtree.math.core.uint\autogenerated_inline_func.h
; File z:\sources\lunor\repos\rougemeilland\palmtree.math.core.uint\palmtree.math.core.uint\pmc_inline_func.h
; File z:\sources\lunor\repos\rougemeilland\palmtree.math.core.uint\palmtree.math.core.uint\autogenerated_inline_func.h
; File z:\sources\lunor\repos\rougemeilland\palmtree.math.core.uint\palmtree.math.core.uint\pmc_inline_func.h
; File z:\sources\lunor\repos\rougemeilland\palmtree.math.core.uint\palmtree.math.core.uint\autogenerated_inline_func.h
; File z:\sources\lunor\repos\rougemeilland\palmtree.math.core.uint\palmtree.math.core.uint\pmc_inline_func.h
; File z:\sources\lunor\repos\rougemeilland\palmtree.math.core.uint\palmtree.math.core.uint\autogenerated_inline_func.h
; File z:\sources\lunor\repos\rougemeilland\palmtree.math.core.uint\palmtree.math.core.uint\pmc_inline_func.h
; File z:\sources\lunor\repos\rougemeilland\palmtree.math.core.uint\palmtree.math.core.uint\autogenerated_inline_func.h
; File z:\sources\lunor\repos\rougemeilland\palmtree.math.core.uint\palmtree.math.core.uint\pmc_inline_func.h
; File z:\sources\lunor\repos\rougemeilland\palmtree.math.core.uint\palmtree.math.core.uint\autogenerated_inline_func.h
; File z:\sources\lunor\repos\rougemeilland\palmtree.math.core.uint\palmtree.math.core.uint\pmc_inline_func.h
; File z:\sources\lunor\repos\rougemeilland\palmtree.math.core.uint\palmtree.math.core.uint\pmc_subtruct.cpp
; File z:\sources\lunor\repos\rougemeilland\palmtree.math.core.uint\palmtree.math.core.uint\autogenerated_inline_func.h
; File z:\sources\lunor\repos\rougemeilland\palmtree.math.core.uint\palmtree.math.core.uint\pmc_inline_func.h
; File z:\sources\lunor\repos\rougemeilland\palmtree.math.core.uint\palmtree.math.core.uint\autogenerated_inline_func.h
; File z:\sources\lunor\repos\rougemeilland\palmtree.math.core.uint\palmtree.math.core.uint\pmc_inline_func.h
; File z:\sources\lunor\repos\rougemeilland\palmtree.math.core.uint\palmtree.math.core.uint\autogenerated_inline_func.h
; File z:\sources\lunor\repos\rougemeilland\palmtree.math.core.uint\palmtree.math.core.uint\pmc_inline_func.h
; File z:\sources\lunor\repos\rougemeilland\palmtree.math.core.uint\palmtree.math.core.uint\autogenerated_inline_func.h
; File z:\sources\lunor\repos\rougemeilland\palmtree.math.core.uint\palmtree.math.core.uint\pmc_inline_func.h
; File z:\sources\lunor\repos\rougemeilland\palmtree.math.core.uint\palmtree.math.core.uint\pmc_subtruct.cpp
; File z:\sources\lunor\repos\rougemeilland\palmtree.math.core.uint\palmtree.math.core.uint\autogenerated_inline_func.h
; File z:\sources\lunor\repos\rougemeilland\palmtree.math.core.uint\palmtree.math.core.uint\pmc_inline_func.h
; File z:\sources\lunor\repos\rougemeilland\palmtree.math.core.uint\palmtree.math.core.uint\autogenerated_inline_func.h
; File z:\sources\lunor\repos\rougemeilland\palmtree.math.core.uint\palmtree.math.core.uint\pmc_inline_func.h
; File z:\sources\lunor\repos\rougemeilland\palmtree.math.core.uint\palmtree.math.core.uint\pmc_subtruct.cpp
; File z:\sources\lunor\repos\rougemeilland\palmtree.math.core.uint\palmtree.math.core.uint\pmc_inline_func.h
; File z:\sources\lunor\repos\rougemeilland\palmtree.math.core.uint\palmtree.math.core.uint\pmc_subtruct.cpp
;	COMDAT ?Subtruct_Imp@Internal@Core@Math@Palmtree@@YAXPEA_K_K0101@Z
_TEXT	SEGMENT
up$ = 64
u_count$ = 72
vp$ = 80
v_count$ = 88
wp$ = 96
w_count$ = 104
?Subtruct_Imp@Internal@Core@Math@Palmtree@@YAXPEA_K_K0101@Z PROC ; Palmtree::Math::Core::Internal::Subtruct_Imp, COMDAT

; 123  :     {

$LN118:
  00000	40 53		 push	 rbx
  00002	48 83 ec 30	 sub	 rsp, 48			; 00000030H
  00006	48 8b da	 mov	 rbx, rdx

; 124  :         char c = 0;

  00009	45 32 d2	 xor	 r10b, r10b
  0000c	48 8b d1	 mov	 rdx, rcx
  0000f	4d 8b d9	 mov	 r11, r9

; 125  : 
; 126  :         //  32 
; 127  :         __UNIT_TYPE count = v_count >> 5;

  00012	49 8b c9	 mov	 rcx, r9

; 128  :         while (count != 0)

  00015	4c 8b 4c 24 60	 mov	 r9, QWORD PTR wp$[rsp]
  0001a	48 c1 e9 05	 shr	 rcx, 5
  0001e	48 85 c9	 test	 rcx, rcx
  00021	0f 84 3d 02 00
	00		 je	 $LN3@Subtruct_I
  00027	66 0f 1f 84 00
	00 00 00 00	 npad	 9
$LL2@Subtruct_I:
; File z:\sources\lunor\repos\rougemeilland\palmtree.math.core.uint\palmtree.math.core.uint\autogenerated_inline_func.h

; 802  :     c = _SUBTRUCT_UNIT(c, xp[0], yp[0], &zp[0]);

  00030	48 8b 02	 mov	 rax, QWORD PTR [rdx]
; File z:\sources\lunor\repos\rougemeilland\palmtree.math.core.uint\palmtree.math.core.uint\pmc_inline_func.h

; 202  :             return (_subborrow_u64(borrow, u, v, w));

  00033	41 80 c2 ff	 add	 r10b, -1
  00037	49 1b 00	 sbb	 rax, QWORD PTR [r8]
  0003a	49 89 01	 mov	 QWORD PTR [r9], rax
; File z:\sources\lunor\repos\rougemeilland\palmtree.math.core.uint\palmtree.math.core.uint\autogenerated_inline_func.h

; 803  :     c = _SUBTRUCT_UNIT(c, xp[1], yp[1], &zp[1]);

  0003d	48 8b 42 08	 mov	 rax, QWORD PTR [rdx+8]
; File z:\sources\lunor\repos\rougemeilland\palmtree.math.core.uint\palmtree.math.core.uint\pmc_inline_func.h

; 202  :             return (_subborrow_u64(borrow, u, v, w));

  00041	49 1b 40 08	 sbb	 rax, QWORD PTR [r8+8]
  00045	49 89 41 08	 mov	 QWORD PTR [r9+8], rax
; File z:\sources\lunor\repos\rougemeilland\palmtree.math.core.uint\palmtree.math.core.uint\autogenerated_inline_func.h

; 804  :     c = _SUBTRUCT_UNIT(c, xp[2], yp[2], &zp[2]);

  00049	48 8b 42 10	 mov	 rax, QWORD PTR [rdx+16]
