; Listing generated by Microsoft (R) Optimizing Compiler Version 19.16.27027.1 

include listing.inc

INCLUDELIB MSVCRT
INCLUDELIB OLDNAMES

PUBLIC	?statistics_info@Internal@Core@Math@Palmtree@@3U__tag_PMC_STATISTICS_INFO@1234@A ; Palmtree::Math::Core::Internal::statistics_info
_BSS	SEGMENT
?statistics_info@Internal@Core@Math@Palmtree@@3U__tag_PMC_STATISTICS_INFO@1234@A DB 010H DUP (?) ; Palmtree::Math::Core::Internal::statistics_info
_BSS	ENDS
PUBLIC	?PMC_GetStatisticsInfo@Internal@Core@Math@Palmtree@@YAXPEAU__tag_PMC_STATISTICS_INFO@1234@@Z ; Palmtree::Math::Core::Internal::PMC_GetStatisticsInfo
; Function compile flags: /Ogtpy
; File z:\sources\lunor\repos\rougemeilland\palmtree.math.core.uint\palmtree.math.core.uint\pmc_statistics.cpp
;	COMDAT ?PMC_GetStatisticsInfo@Internal@Core@Math@Palmtree@@YAXPEAU__tag_PMC_STATISTICS_INFO@1234@@Z
_TEXT	SEGMENT
buffer$ = 8
?PMC_GetStatisticsInfo@Internal@Core@Math@Palmtree@@YAXPEAU__tag_PMC_STATISTICS_INFO@1234@@Z PROC ; Palmtree::Math::Core::Internal::PMC_GetStatisticsInfo, COMDAT

; 38   :         buffer->COUNT_DIV32 = statistics_info.COUNT_DIV32;

  00000	8b 05 0c 00 00
	00		 mov	 eax, DWORD PTR ?statistics_info@Internal@Core@Math@Palmtree@@3U__tag_PMC_STATISTICS_INFO@1234@A+12
  00006	89 41 0c	 mov	 DWORD PTR [rcx+12], eax

; 39   :         buffer->COUNT_DIV64 = statistics_info.COUNT_DIV64;

  00009	8b 05 08 00 00
	00		 mov	 eax, DWORD PTR ?statistics_info@Internal@Core@Math@Palmtree@@3U__tag_PMC_STATISTICS_INFO@1234@A+8
  0000f	89 41 08	 mov	 DWORD PTR [rcx+8], eax

; 40   :         buffer->COUNT_MULTI32 = statistics_info.COUNT_MULTI32;

  00012	8b 05 04 00 00
	00		 mov	 eax, DWORD PTR ?statistics_info@Internal@Core@Math@Palmtree@@3U__tag_PMC_STATISTICS_INFO@1234@A+4
  00018	89 41 04	 mov	 DWORD PTR [rcx+4], eax

; 41   :         buffer->COUNT_MULTI64 = statistics_info.COUNT_MULTI64;

  0001b	8b 05 00 00 00
	00		 mov	 eax, DWORD PTR ?statistics_info@Internal@Core@Math@Palmtree@@3U__tag_PMC_STATISTICS_INFO@1234@A
  00021	89 01		 mov	 DWORD PTR [rcx], eax

; 42   :     }

  00023	c3		 ret	 0
?PMC_GetStatisticsInfo@Internal@Core@Math@Palmtree@@YAXPEAU__tag_PMC_STATISTICS_INFO@1234@@Z ENDP ; Palmtree::Math::Core::Internal::PMC_GetStatisticsInfo
_TEXT	ENDS
END
