; Listing generated by Microsoft (R) Optimizing Compiler Version 19.16.27027.1 

include listing.inc

INCLUDELIB MSVCRT
INCLUDELIB OLDNAMES

PUBLIC	??1exception@std@@UEAA@XZ			; std::exception::~exception
PUBLIC	?what@exception@std@@UEBAPEBDXZ			; std::exception::what
PUBLIC	??_Gexception@std@@UEAAPEAXI@Z			; std::exception::`scalar deleting destructor'
PUBLIC	??0Exception@Internal@Core@Math@Palmtree@@QEAA@AEBV01234@@Z ; Palmtree::Math::Core::Internal::Exception::Exception
PUBLIC	??1Exception@Internal@Core@Math@Palmtree@@UEAA@XZ ; Palmtree::Math::Core::Internal::Exception::~Exception
PUBLIC	??_GException@Internal@Core@Math@Palmtree@@UEAAPEAXI@Z ; Palmtree::Math::Core::Internal::Exception::`scalar deleting destructor'
PUBLIC	??0ArgumentNullException@Internal@Core@Math@Palmtree@@QEAA@PEB_W0@Z ; Palmtree::Math::Core::Internal::ArgumentNullException::ArgumentNullException
PUBLIC	??0ArgumentNullException@Internal@Core@Math@Palmtree@@QEAA@AEBV01234@@Z ; Palmtree::Math::Core::Internal::ArgumentNullException::ArgumentNullException
PUBLIC	??1ArgumentNullException@Internal@Core@Math@Palmtree@@UEAA@XZ ; Palmtree::Math::Core::Internal::ArgumentNullException::~ArgumentNullException
PUBLIC	??_GArgumentNullException@Internal@Core@Math@Palmtree@@UEAAPEAXI@Z ; Palmtree::Math::Core::Internal::ArgumentNullException::`scalar deleting destructor'
PUBLIC	??0InternalErrorException@Internal@Core@Math@Palmtree@@QEAA@PEB_W0@Z ; Palmtree::Math::Core::Internal::InternalErrorException::InternalErrorException
PUBLIC	??0InternalErrorException@Internal@Core@Math@Palmtree@@QEAA@AEBV01234@@Z ; Palmtree::Math::Core::Internal::InternalErrorException::InternalErrorException
PUBLIC	??1InternalErrorException@Internal@Core@Math@Palmtree@@UEAA@XZ ; Palmtree::Math::Core::Internal::InternalErrorException::~InternalErrorException
PUBLIC	??_GInternalErrorException@Internal@Core@Math@Palmtree@@UEAAPEAXI@Z ; Palmtree::Math::Core::Internal::InternalErrorException::`scalar deleting destructor'
PUBLIC	?PMC_Add_X_X_Imp@Internal@Core@Math@Palmtree@@YAPEAU__tag_NUMBER_HEADER@1234@PEAU51234@0@Z ; Palmtree::Math::Core::Internal::PMC_Add_X_X_Imp
PUBLIC	?Initialize_Add@Internal@Core@Math@Palmtree@@YAHPEAU_tag_PROCESSOR_FEATURES@1234@@Z ; Palmtree::Math::Core::Internal::Initialize_Add
PUBLIC	?PMC_Add_I_X@Internal@Core@Math@Palmtree@@YAPEAU__tag_PMC_HANDLE_UINT@1234@IPEAU51234@@Z ; Palmtree::Math::Core::Internal::PMC_Add_I_X
PUBLIC	?PMC_Add_L_X@Internal@Core@Math@Palmtree@@YAPEAU__tag_PMC_HANDLE_UINT@1234@_KPEAU51234@@Z ; Palmtree::Math::Core::Internal::PMC_Add_L_X
PUBLIC	?PMC_Add_X_I@Internal@Core@Math@Palmtree@@YAPEAU__tag_PMC_HANDLE_UINT@1234@PEAU51234@I@Z ; Palmtree::Math::Core::Internal::PMC_Add_X_I
PUBLIC	?PMC_Add_X_L@Internal@Core@Math@Palmtree@@YAPEAU__tag_PMC_HANDLE_UINT@1234@PEAU51234@_K@Z ; Palmtree::Math::Core::Internal::PMC_Add_X_L
PUBLIC	?PMC_Add_X_X@Internal@Core@Math@Palmtree@@YAPEAU__tag_PMC_HANDLE_UINT@1234@PEAU51234@0@Z ; Palmtree::Math::Core::Internal::PMC_Add_X_X
PUBLIC	??_7exception@std@@6B@				; std::exception::`vftable'
PUBLIC	??_C@_0BC@EOODALEL@Unknown?5exception@		; `string'
PUBLIC	??_7Exception@Internal@Core@Math@Palmtree@@6B@	; Palmtree::Math::Core::Internal::Exception::`vftable'
PUBLIC	??_7ArgumentNullException@Internal@Core@Math@Palmtree@@6B@ ; Palmtree::Math::Core::Internal::ArgumentNullException::`vftable'
PUBLIC	??_7InternalErrorException@Internal@Core@Math@Palmtree@@6B@ ; Palmtree::Math::Core::Internal::InternalErrorException::`vftable'
PUBLIC	_TI2?AVInternalErrorException@Internal@Core@Math@Palmtree@@
PUBLIC	_CTA2?AVInternalErrorException@Internal@Core@Math@Palmtree@@
PUBLIC	??_R0?AVInternalErrorException@Internal@Core@Math@Palmtree@@@8 ; Palmtree::Math::Core::Internal::InternalErrorException `RTTI Type Descriptor'
PUBLIC	_CT??_R0?AVInternalErrorException@Internal@Core@Math@Palmtree@@@8??0InternalErrorException@Internal@Core@Math@Palmtree@@QEAA@AEBV01234@@Z48
PUBLIC	??_R0?AVException@Internal@Core@Math@Palmtree@@@8 ; Palmtree::Math::Core::Internal::Exception `RTTI Type Descriptor'
PUBLIC	_CT??_R0?AVException@Internal@Core@Math@Palmtree@@@8??0Exception@Internal@Core@Math@Palmtree@@QEAA@AEBV01234@@Z48
PUBLIC	??_C@_1CM@CADFJOJJ@?$AAp?$AAc?$AAm?$AA_?$AAa?$AAd?$AAd?$AA?4?$AAc?$AAp?$AAp?$AA?$DL?$AAD?$AAo?$AAC@ ; `string'
PUBLIC	??_C@_1BM@FCPAHMHB@?$PP?$IF?$PP?h?$PP?$KI?$PP?i?$PP?$PM?$AAL?$AAz?$AA?$BP?$AAW?$AA?$HO?$AAW?$AA_?$AA?$AC@ ; `string'
PUBLIC	_TI2?AVArgumentNullException@Internal@Core@Math@Palmtree@@
PUBLIC	_CTA2?AVArgumentNullException@Internal@Core@Math@Palmtree@@
PUBLIC	??_R0?AVArgumentNullException@Internal@Core@Math@Palmtree@@@8 ; Palmtree::Math::Core::Internal::ArgumentNullException `RTTI Type Descriptor'
PUBLIC	_CT??_R0?AVArgumentNullException@Internal@Core@Math@Palmtree@@@8??0ArgumentNullException@Internal@Core@Math@Palmtree@@QEAA@AEBV01234@@Z48
PUBLIC	??_C@_13JAOPNPKD@?$AAv@				; `string'
PUBLIC	??_C@_1CK@ECFIEPAC@?$AA?$BF?$AAp?$AAk?$AAn?$AAu?$AAl?$AAl?$AAp?$AAt?$AAr?$AAL?$AA?$AO?$AAH?$PP?$IJ?$PP?$IM@ ; `string'
PUBLIC	??_C@_13ICFKHAEN@?$AAu@				; `string'
PUBLIC	??_R4exception@std@@6B@				; std::exception::`RTTI Complete Object Locator'
PUBLIC	??_R0?AVexception@std@@@8			; std::exception `RTTI Type Descriptor'
PUBLIC	??_R3exception@std@@8				; std::exception::`RTTI Class Hierarchy Descriptor'
PUBLIC	??_R2exception@std@@8				; std::exception::`RTTI Base Class Array'
PUBLIC	??_R1A@?0A@EA@exception@std@@8			; std::exception::`RTTI Base Class Descriptor at (0,-1,0,64)'
PUBLIC	??_R4Exception@Internal@Core@Math@Palmtree@@6B@	; Palmtree::Math::Core::Internal::Exception::`RTTI Complete Object Locator'
PUBLIC	??_R3Exception@Internal@Core@Math@Palmtree@@8	; Palmtree::Math::Core::Internal::Exception::`RTTI Class Hierarchy Descriptor'
PUBLIC	??_R2Exception@Internal@Core@Math@Palmtree@@8	; Palmtree::Math::Core::Internal::Exception::`RTTI Base Class Array'
PUBLIC	??_R1A@?0A@EA@Exception@Internal@Core@Math@Palmtree@@8 ; Palmtree::Math::Core::Internal::Exception::`RTTI Base Class Descriptor at (0,-1,0,64)'
PUBLIC	??_R1A@?0A@EN@exception@std@@8			; std::exception::`RTTI Base Class Descriptor at (0,-1,0,77)'
PUBLIC	??_R4ArgumentNullException@Internal@Core@Math@Palmtree@@6B@ ; Palmtree::Math::Core::Internal::ArgumentNullException::`RTTI Complete Object Locator'
PUBLIC	??_R3ArgumentNullException@Internal@Core@Math@Palmtree@@8 ; Palmtree::Math::Core::Internal::ArgumentNullException::`RTTI Class Hierarchy Descriptor'
PUBLIC	??_R2ArgumentNullException@Internal@Core@Math@Palmtree@@8 ; Palmtree::Math::Core::Internal::ArgumentNullException::`RTTI Base Class Array'
PUBLIC	??_R1A@?0A@EA@ArgumentNullException@Internal@Core@Math@Palmtree@@8 ; Palmtree::Math::Core::Internal::ArgumentNullException::`RTTI Base Class Descriptor at (0,-1,0,64)'
PUBLIC	??_R4InternalErrorException@Internal@Core@Math@Palmtree@@6B@ ; Palmtree::Math::Core::Internal::InternalErrorException::`RTTI Complete Object Locator'
PUBLIC	??_R3InternalErrorException@Internal@Core@Math@Palmtree@@8 ; Palmtree::Math::Core::Internal::InternalErrorException::`RTTI Class Hierarchy Descriptor'
PUBLIC	??_R2InternalErrorException@Internal@Core@Math@Palmtree@@8 ; Palmtree::Math::Core::Internal::InternalErrorException::`RTTI Base Class Array'
PUBLIC	??_R1A@?0A@EA@InternalErrorException@Internal@Core@Math@Palmtree@@8 ; Palmtree::Math::Core::Internal::InternalErrorException::`RTTI Base Class Descriptor at (0,-1,0,64)'
EXTRN	??3@YAXPEAX_K@Z:PROC				; operator delete
EXTRN	__std_exception_destroy:PROC
EXTRN	??_Eexception@std@@UEAAPEAXI@Z:PROC		; std::exception::`vector deleting destructor'
EXTRN	??_EException@Internal@Core@Math@Palmtree@@UEAAPEAXI@Z:PROC ; Palmtree::Math::Core::Internal::Exception::`vector deleting destructor'
EXTRN	??_EArgumentNullException@Internal@Core@Math@Palmtree@@UEAAPEAXI@Z:PROC ; Palmtree::Math::Core::Internal::ArgumentNullException::`vector deleting destructor'
EXTRN	??_EInternalErrorException@Internal@Core@Math@Palmtree@@UEAAPEAXI@Z:PROC ; Palmtree::Math::Core::Internal::InternalErrorException::`vector deleting destructor'
EXTRN	?CommitNumber@Internal@Core@Math@Palmtree@@YAXPEAU__tag_NUMBER_HEADER@1234@@Z:PROC ; Palmtree::Math::Core::Internal::CommitNumber
EXTRN	?CheckNumber@Internal@Core@Math@Palmtree@@YAXPEAU__tag_NUMBER_HEADER@1234@@Z:PROC ; Palmtree::Math::Core::Internal::CheckNumber
EXTRN	?DuplicateNumber@Internal@Core@Math@Palmtree@@YAPEAU__tag_NUMBER_HEADER@1234@PEAU51234@@Z:PROC ; Palmtree::Math::Core::Internal::DuplicateNumber
EXTRN	?From_I_Imp@Internal@Core@Math@Palmtree@@YAPEAU__tag_NUMBER_HEADER@1234@I@Z:PROC ; Palmtree::Math::Core::Internal::From_I_Imp
EXTRN	?From_L_Imp@Internal@Core@Math@Palmtree@@YAPEAU__tag_NUMBER_HEADER@1234@_K@Z:PROC ; Palmtree::Math::Core::Internal::From_L_Imp
EXTRN	??0ResourceHolderUINT@Internal@Core@Math@Palmtree@@QEAA@XZ:PROC ; Palmtree::Math::Core::Internal::ResourceHolderUINT::ResourceHolderUINT
EXTRN	??1ResourceHolderUINT@Internal@Core@Math@Palmtree@@UEAA@XZ:PROC ; Palmtree::Math::Core::Internal::ResourceHolderUINT::~ResourceHolderUINT
EXTRN	?AllocateNumber@ResourceHolderUINT@Internal@Core@Math@Palmtree@@QEAAPEAU__tag_NUMBER_HEADER@2345@_K@Z:PROC ; Palmtree::Math::Core::Internal::ResourceHolderUINT::AllocateNumber
EXTRN	?HookNumber@ResourceHolderUINT@Internal@Core@Math@Palmtree@@QEAAXPEAU__tag_NUMBER_HEADER@2345@@Z:PROC ; Palmtree::Math::Core::Internal::ResourceHolderUINT::HookNumber
EXTRN	?CheckNumber@ResourceHolderUINT@Internal@Core@Math@Palmtree@@QEAAXPEAU__tag_NUMBER_HEADER@2345@@Z:PROC ; Palmtree::Math::Core::Internal::ResourceHolderUINT::CheckNumber
EXTRN	?UnlinkNumber@ResourceHolderUINT@Internal@Core@Math@Palmtree@@QEAAXPEAU__tag_NUMBER_HEADER@2345@@Z:PROC ; Palmtree::Math::Core::Internal::ResourceHolderUINT::UnlinkNumber
EXTRN	_CxxThrowException:PROC
EXTRN	__CxxFrameHandler3:PROC
EXTRN	?number_zero@Internal@Core@Math@Palmtree@@3U__tag_NUMBER_HEADER@1234@A:BYTE ; Palmtree::Math::Core::Internal::number_zero
EXTRN	??_7type_info@@6B@:BYTE				; type_info::`vftable'
_BSS	SEGMENT
?fp_Add_Imp@Internal@Core@Math@Palmtree@@3P6AXPEA_K_K0101@ZEA DQ 01H DUP (?) ; Palmtree::Math::Core::Internal::fp_Add_Imp
_BSS	ENDS
;	COMDAT pdata
pdata	SEGMENT
$pdata$??1exception@std@@UEAA@XZ DD imagerel $LN5
	DD	imagerel $LN5+38
	DD	imagerel $unwind$??1exception@std@@UEAA@XZ
pdata	ENDS
;	COMDAT pdata
pdata	SEGMENT
$pdata$??_Gexception@std@@UEAAPEAXI@Z DD imagerel $LN9
	DD	imagerel $LN9+78
	DD	imagerel $unwind$??_Gexception@std@@UEAAPEAXI@Z
pdata	ENDS
;	COMDAT pdata
pdata	SEGMENT
$pdata$??0Exception@Internal@Core@Math@Palmtree@@IEAA@HPEB_W0@Z DD imagerel $LN8
	DD	imagerel $LN8+66
	DD	imagerel $unwind$??0Exception@Internal@Core@Math@Palmtree@@IEAA@HPEB_W0@Z
pdata	ENDS
;	COMDAT pdata
pdata	SEGMENT
$pdata$??0Exception@Internal@Core@Math@Palmtree@@QEAA@AEBV01234@@Z DD imagerel $LN8
	DD	imagerel $LN8+77
	DD	imagerel $unwind$??0Exception@Internal@Core@Math@Palmtree@@QEAA@AEBV01234@@Z
pdata	ENDS
;	COMDAT pdata
pdata	SEGMENT
$pdata$??1Exception@Internal@Core@Math@Palmtree@@UEAA@XZ DD imagerel $LN8
	DD	imagerel $LN8+53
	DD	imagerel $unwind$??1Exception@Internal@Core@Math@Palmtree@@UEAA@XZ
pdata	ENDS
;	COMDAT pdata
pdata	SEGMENT
$pdata$??_GException@Internal@Core@Math@Palmtree@@UEAAPEAXI@Z DD imagerel $LN12
	DD	imagerel $LN12+92
	DD	imagerel $unwind$??_GException@Internal@Core@Math@Palmtree@@UEAAPEAXI@Z
pdata	ENDS
;	COMDAT pdata
pdata	SEGMENT
$pdata$??0ArgumentNullException@Internal@Core@Math@Palmtree@@QEAA@PEB_W0@Z DD imagerel $LN11
	DD	imagerel $LN11+80
	DD	imagerel $unwind$??0ArgumentNullException@Internal@Core@Math@Palmtree@@QEAA@PEB_W0@Z
pdata	ENDS
;	COMDAT pdata
pdata	SEGMENT
$pdata$??0ArgumentNullException@Internal@Core@Math@Palmtree@@QEAA@AEBV01234@@Z DD imagerel $LN11
	DD	imagerel $LN11+87
	DD	imagerel $unwind$??0ArgumentNullException@Internal@Core@Math@Palmtree@@QEAA@AEBV01234@@Z
pdata	ENDS
;	COMDAT pdata
pdata	SEGMENT
$pdata$??1ArgumentNullException@Internal@Core@Math@Palmtree@@UEAA@XZ DD imagerel $LN11
	DD	imagerel $LN11+63
	DD	imagerel $unwind$??1ArgumentNullException@Internal@Core@Math@Palmtree@@UEAA@XZ
pdata	ENDS
;	COMDAT pdata
pdata	SEGMENT
$pdata$??_GArgumentNullException@Internal@Core@Math@Palmtree@@UEAAPEAXI@Z DD imagerel $LN15
	DD	imagerel $LN15+102
	DD	imagerel $unwind$??_GArgumentNullException@Internal@Core@Math@Palmtree@@UEAAPEAXI@Z
pdata	ENDS
;	COMDAT pdata
pdata	SEGMENT
$pdata$??0InternalErrorException@Internal@Core@Math@Palmtree@@QEAA@PEB_W0@Z DD imagerel $LN11
	DD	imagerel $LN11+80
	DD	imagerel $unwind$??0InternalErrorException@Internal@Core@Math@Palmtree@@QEAA@PEB_W0@Z
pdata	ENDS
;	COMDAT pdata
pdata	SEGMENT
$pdata$??0InternalErrorException@Internal@Core@Math@Palmtree@@QEAA@AEBV01234@@Z DD imagerel $LN11
	DD	imagerel $LN11+87
	DD	imagerel $unwind$??0InternalErrorException@Internal@Core@Math@Palmtree@@QEAA@AEBV01234@@Z
pdata	ENDS
;	COMDAT pdata
pdata	SEGMENT
$pdata$??1InternalErrorException@Internal@Core@Math@Palmtree@@UEAA@XZ DD imagerel $LN11
	DD	imagerel $LN11+63
	DD	imagerel $unwind$??1InternalErrorException@Internal@Core@Math@Palmtree@@UEAA@XZ
pdata	ENDS
;	COMDAT pdata
pdata	SEGMENT
$pdata$??_GInternalErrorException@Internal@Core@Math@Palmtree@@UEAAPEAXI@Z DD imagerel $LN15
	DD	imagerel $LN15+102
	DD	imagerel $unwind$??_GInternalErrorException@Internal@Core@Math@Palmtree@@UEAAPEAXI@Z
pdata	ENDS
;	COMDAT pdata
pdata	SEGMENT
$pdata$?PMC_Add_X_X_Imp@Internal@Core@Math@Palmtree@@YAPEAU__tag_NUMBER_HEADER@1234@PEAU51234@0@Z DD imagerel $LN15
	DD	imagerel $LN15+239
	DD	imagerel $unwind$?PMC_Add_X_X_Imp@Internal@Core@Math@Palmtree@@YAPEAU__tag_NUMBER_HEADER@1234@PEAU51234@0@Z
pdata	ENDS
;	COMDAT pdata
pdata	SEGMENT
$pdata$?PMC_Add_I_X@Internal@Core@Math@Palmtree@@YAPEAU__tag_PMC_HANDLE_UINT@1234@IPEAU51234@@Z DD imagerel $LN10
	DD	imagerel $LN10+167
	DD	imagerel $unwind$?PMC_Add_I_X@Internal@Core@Math@Palmtree@@YAPEAU__tag_PMC_HANDLE_UINT@1234@IPEAU51234@@Z
pdata	ENDS
;	COMDAT pdata
pdata	SEGMENT
$pdata$?PMC_Add_L_X@Internal@Core@Math@Palmtree@@YAPEAU__tag_PMC_HANDLE_UINT@1234@_KPEAU51234@@Z DD imagerel $LN10
	DD	imagerel $LN10+169
	DD	imagerel $unwind$?PMC_Add_L_X@Internal@Core@Math@Palmtree@@YAPEAU__tag_PMC_HANDLE_UINT@1234@_KPEAU51234@@Z
pdata	ENDS
;	COMDAT pdata
pdata	SEGMENT
$pdata$?PMC_Add_X_I@Internal@Core@Math@Palmtree@@YAPEAU__tag_PMC_HANDLE_UINT@1234@PEAU51234@I@Z DD imagerel $LN10
	DD	imagerel $LN10+164
	DD	imagerel $unwind$?PMC_Add_X_I@Internal@Core@Math@Palmtree@@YAPEAU__tag_PMC_HANDLE_UINT@1234@PEAU51234@I@Z
pdata	ENDS
;	COMDAT pdata
pdata	SEGMENT
$pdata$?PMC_Add_X_L@Internal@Core@Math@Palmtree@@YAPEAU__tag_PMC_HANDLE_UINT@1234@PEAU51234@_K@Z DD imagerel $LN10
	DD	imagerel $LN10+166
	DD	imagerel $unwind$?PMC_Add_X_L@Internal@Core@Math@Palmtree@@YAPEAU__tag_PMC_HANDLE_UINT@1234@PEAU51234@_K@Z
pdata	ENDS
;	COMDAT pdata
pdata	SEGMENT
$pdata$?PMC_Add_X_X@Internal@Core@Math@Palmtree@@YAPEAU__tag_PMC_HANDLE_UINT@1234@PEAU51234@0@Z DD imagerel $LN22
	DD	imagerel $LN22+404
	DD	imagerel $unwind$?PMC_Add_X_X@Internal@Core@Math@Palmtree@@YAPEAU__tag_PMC_HANDLE_UINT@1234@PEAU51234@0@Z
pdata	ENDS
;	COMDAT pdata
pdata	SEGMENT
$pdata$?DoCarry@Internal@Core@Math@Palmtree@@YAXDPEA_K_K01@Z DD imagerel ?DoCarry@Internal@Core@Math@Palmtree@@YAXDPEA_K_K01@Z
	DD	imagerel ?DoCarry@Internal@Core@Math@Palmtree@@YAXDPEA_K_K01@Z+156
	DD	imagerel $unwind$?DoCarry@Internal@Core@Math@Palmtree@@YAXDPEA_K_K01@Z
pdata	ENDS
;	COMDAT pdata
pdata	SEGMENT
$pdata$?Add_Imp_using_ADC@Internal@Core@Math@Palmtree@@YAXPEA_K_K0101@Z DD imagerel ?Add_Imp_using_ADC@Internal@Core@Math@Palmtree@@YAXPEA_K_K0101@Z
	DD	imagerel ?Add_Imp_using_ADC@Internal@Core@Math@Palmtree@@YAXPEA_K_K0101@Z+1016
	DD	imagerel $unwind$?Add_Imp_using_ADC@Internal@Core@Math@Palmtree@@YAXPEA_K_K0101@Z
pdata	ENDS
;	COMDAT pdata
pdata	SEGMENT
$pdata$?Add_Imp_using_ADCX@Internal@Core@Math@Palmtree@@YAXPEA_K_K0101@Z DD imagerel ?Add_Imp_using_ADCX@Internal@Core@Math@Palmtree@@YAXPEA_K_K0101@Z
	DD	imagerel ?Add_Imp_using_ADCX@Internal@Core@Math@Palmtree@@YAXPEA_K_K0101@Z+506
	DD	imagerel $unwind$?Add_Imp_using_ADCX@Internal@Core@Math@Palmtree@@YAXPEA_K_K0101@Z
pdata	ENDS
;	COMDAT pdata
pdata	SEGMENT
$pdata$?PMC_Add_X_I_Imp@Internal@Core@Math@Palmtree@@YAPEAU__tag_NUMBER_HEADER@1234@PEAU51234@I@Z DD imagerel ?PMC_Add_X_I_Imp@Internal@Core@Math@Palmtree@@YAPEAU__tag_NUMBER_HEADER@1234@PEAU51234@I@Z
	DD	imagerel ?PMC_Add_X_I_Imp@Internal@Core@Math@Palmtree@@YAPEAU__tag_NUMBER_HEADER@1234@PEAU51234@I@Z+265
	DD	imagerel $unwind$?PMC_Add_X_I_Imp@Internal@Core@Math@Palmtree@@YAPEAU__tag_NUMBER_HEADER@1234@PEAU51234@I@Z
pdata	ENDS
;	COMDAT pdata
pdata	SEGMENT
$pdata$?PMC_Add_X_L_Imp@Internal@Core@Math@Palmtree@@YAPEAU__tag_NUMBER_HEADER@1234@PEAU51234@_K@Z DD imagerel ?PMC_Add_X_L_Imp@Internal@Core@Math@Palmtree@@YAPEAU__tag_NUMBER_HEADER@1234@PEAU51234@_K@Z
	DD	imagerel ?PMC_Add_X_L_Imp@Internal@Core@Math@Palmtree@@YAPEAU__tag_NUMBER_HEADER@1234@PEAU51234@_K@Z+270
	DD	imagerel $unwind$?PMC_Add_X_L_Imp@Internal@Core@Math@Palmtree@@YAPEAU__tag_NUMBER_HEADER@1234@PEAU51234@_K@Z
pdata	ENDS
;	COMDAT ??_R1A@?0A@EA@InternalErrorException@Internal@Core@Math@Palmtree@@8
rdata$r	SEGMENT
??_R1A@?0A@EA@InternalErrorException@Internal@Core@Math@Palmtree@@8 DD imagerel ??_R0?AVInternalErrorException@Internal@Core@Math@Palmtree@@@8 ; Palmtree::Math::Core::Internal::InternalErrorException::`RTTI Base Class Descriptor at (0,-1,0,64)'
	DD	02H
	DD	00H
	DD	0ffffffffH
	DD	00H
	DD	040H
	DD	imagerel ??_R3InternalErrorException@Internal@Core@Math@Palmtree@@8
rdata$r	ENDS
;	COMDAT ??_R2InternalErrorException@Internal@Core@Math@Palmtree@@8
rdata$r	SEGMENT
??_R2InternalErrorException@Internal@Core@Math@Palmtree@@8 DD imagerel ??_R1A@?0A@EA@InternalErrorException@Internal@Core@Math@Palmtree@@8 ; Palmtree::Math::Core::Internal::InternalErrorException::`RTTI Base Class Array'
	DD	imagerel ??_R1A@?0A@EA@Exception@Internal@Core@Math@Palmtree@@8
	DD	imagerel ??_R1A@?0A@EN@exception@std@@8
	ORG $+3
rdata$r	ENDS
;	COMDAT ??_R3InternalErrorException@Internal@Core@Math@Palmtree@@8
rdata$r	SEGMENT
??_R3InternalErrorException@Internal@Core@Math@Palmtree@@8 DD 00H ; Palmtree::Math::Core::Internal::InternalErrorException::`RTTI Class Hierarchy Descriptor'
	DD	00H
	DD	03H
	DD	imagerel ??_R2InternalErrorException@Internal@Core@Math@Palmtree@@8
rdata$r	ENDS
;	COMDAT ??_R4InternalErrorException@Internal@Core@Math@Palmtree@@6B@
rdata$r	SEGMENT
??_R4InternalErrorException@Internal@Core@Math@Palmtree@@6B@ DD 01H ; Palmtree::Math::Core::Internal::InternalErrorException::`RTTI Complete Object Locator'
	DD	00H
	DD	00H
	DD	imagerel ??_R0?AVInternalErrorException@Internal@Core@Math@Palmtree@@@8
	DD	imagerel ??_R3InternalErrorException@Internal@Core@Math@Palmtree@@8
	DD	imagerel ??_R4InternalErrorException@Internal@Core@Math@Palmtree@@6B@
rdata$r	ENDS
;	COMDAT ??_R1A@?0A@EA@ArgumentNullException@Internal@Core@Math@Palmtree@@8
rdata$r	SEGMENT
??_R1A@?0A@EA@ArgumentNullException@Internal@Core@Math@Palmtree@@8 DD imagerel ??_R0?AVArgumentNullException@Internal@Core@Math@Palmtree@@@8 ; Palmtree::Math::Core::Internal::ArgumentNullException::`RTTI Base Class Descriptor at (0,-1,0,64)'
	DD	02H
	DD	00H
	DD	0ffffffffH
	DD	00H
	DD	040H
	DD	imagerel ??_R3ArgumentNullException@Internal@Core@Math@Palmtree@@8
rdata$r	ENDS
;	COMDAT ??_R2ArgumentNullException@Internal@Core@Math@Palmtree@@8
rdata$r	SEGMENT
??_R2ArgumentNullException@Internal@Core@Math@Palmtree@@8 DD imagerel ??_R1A@?0A@EA@ArgumentNullException@Internal@Core@Math@Palmtree@@8 ; Palmtree::Math::Core::Internal::ArgumentNullException::`RTTI Base Class Array'
	DD	imagerel ??_R1A@?0A@EA@Exception@Internal@Core@Math@Palmtree@@8
	DD	imagerel ??_R1A@?0A@EN@exception@std@@8
	ORG $+3
rdata$r	ENDS
;	COMDAT ??_R3ArgumentNullException@Internal@Core@Math@Palmtree@@8
rdata$r	SEGMENT
??_R3ArgumentNullException@Internal@Core@Math@Palmtree@@8 DD 00H ; Palmtree::Math::Core::Internal::ArgumentNullException::`RTTI Class Hierarchy Descriptor'
	DD	00H
	DD	03H
	DD	imagerel ??_R2ArgumentNullException@Internal@Core@Math@Palmtree@@8
rdata$r	ENDS
;	COMDAT ??_R4ArgumentNullException@Internal@Core@Math@Palmtree@@6B@
rdata$r	SEGMENT
??_R4ArgumentNullException@Internal@Core@Math@Palmtree@@6B@ DD 01H ; Palmtree::Math::Core::Internal::ArgumentNullException::`RTTI Complete Object Locator'
	DD	00H
	DD	00H
	DD	imagerel ??_R0?AVArgumentNullException@Internal@Core@Math@Palmtree@@@8
	DD	imagerel ??_R3ArgumentNullException@Internal@Core@Math@Palmtree@@8
	DD	imagerel ??_R4ArgumentNullException@Internal@Core@Math@Palmtree@@6B@
rdata$r	ENDS
;	COMDAT ??_R1A@?0A@EN@exception@std@@8
rdata$r	SEGMENT
??_R1A@?0A@EN@exception@std@@8 DD imagerel ??_R0?AVexception@std@@@8 ; std::exception::`RTTI Base Class Descriptor at (0,-1,0,77)'
	DD	00H
	DD	00H
	DD	0ffffffffH
	DD	00H
	DD	04dH
	DD	imagerel ??_R3exception@std@@8
rdata$r	ENDS
;	COMDAT ??_R1A@?0A@EA@Exception@Internal@Core@Math@Palmtree@@8
rdata$r	SEGMENT
??_R1A@?0A@EA@Exception@Internal@Core@Math@Palmtree@@8 DD imagerel ??_R0?AVException@Internal@Core@Math@Palmtree@@@8 ; Palmtree::Math::Core::Internal::Exception::`RTTI Base Class Descriptor at (0,-1,0,64)'
	DD	01H
	DD	00H
	DD	0ffffffffH
	DD	00H
	DD	040H
	DD	imagerel ??_R3Exception@Internal@Core@Math@Palmtree@@8
rdata$r	ENDS
;	COMDAT ??_R2Exception@Internal@Core@Math@Palmtree@@8
rdata$r	SEGMENT
??_R2Exception@Internal@Core@Math@Palmtree@@8 DD imagerel ??_R1A@?0A@EA@Exception@Internal@Core@Math@Palmtree@@8 ; Palmtree::Math::Core::Internal::Exception::`RTTI Base Class Array'
	DD	imagerel ??_R1A@?0A@EN@exception@std@@8
	ORG $+3
rdata$r	ENDS
;	COMDAT ??_R3Exception@Internal@Core@Math@Palmtree@@8
rdata$r	SEGMENT
??_R3Exception@Internal@Core@Math@Palmtree@@8 DD 00H	; Palmtree::Math::Core::Internal::Exception::`RTTI Class Hierarchy Descriptor'
	DD	00H
	DD	02H
	DD	imagerel ??_R2Exception@Internal@Core@Math@Palmtree@@8
rdata$r	ENDS
;	COMDAT ??_R4Exception@Internal@Core@Math@Palmtree@@6B@
rdata$r	SEGMENT
??_R4Exception@Internal@Core@Math@Palmtree@@6B@ DD 01H	; Palmtree::Math::Core::Internal::Exception::`RTTI Complete Object Locator'
	DD	00H
	DD	00H
	DD	imagerel ??_R0?AVException@Internal@Core@Math@Palmtree@@@8
	DD	imagerel ??_R3Exception@Internal@Core@Math@Palmtree@@8
	DD	imagerel ??_R4Exception@Internal@Core@Math@Palmtree@@6B@
rdata$r	ENDS
;	COMDAT ??_R1A@?0A@EA@exception@std@@8
rdata$r	SEGMENT
??_R1A@?0A@EA@exception@std@@8 DD imagerel ??_R0?AVexception@std@@@8 ; std::exception::`RTTI Base Class Descriptor at (0,-1,0,64)'
	DD	00H
	DD	00H
	DD	0ffffffffH
	DD	00H
	DD	040H
	DD	imagerel ??_R3exception@std@@8
rdata$r	ENDS
;	COMDAT ??_R2exception@std@@8
rdata$r	SEGMENT
??_R2exception@std@@8 DD imagerel ??_R1A@?0A@EA@exception@std@@8 ; std::exception::`RTTI Base Class Array'
	ORG $+3
rdata$r	ENDS
;	COMDAT ??_R3exception@std@@8
rdata$r	SEGMENT
??_R3exception@std@@8 DD 00H				; std::exception::`RTTI Class Hierarchy Descriptor'
	DD	00H
	DD	01H
	DD	imagerel ??_R2exception@std@@8
rdata$r	ENDS
;	COMDAT ??_R0?AVexception@std@@@8
data$r	SEGMENT
??_R0?AVexception@std@@@8 DQ FLAT:??_7type_info@@6B@	; std::exception `RTTI Type Descriptor'
	DQ	0000000000000000H
	DB	'.?AVexception@std@@', 00H
data$r	ENDS
;	COMDAT ??_R4exception@std@@6B@
rdata$r	SEGMENT
??_R4exception@std@@6B@ DD 01H				; std::exception::`RTTI Complete Object Locator'
	DD	00H
	DD	00H
	DD	imagerel ??_R0?AVexception@std@@@8
	DD	imagerel ??_R3exception@std@@8
	DD	imagerel ??_R4exception@std@@6B@
rdata$r	ENDS
;	COMDAT ??_C@_13ICFKHAEN@?$AAu@
CONST	SEGMENT
??_C@_13ICFKHAEN@?$AAu@ DB 'u', 00H, 00H, 00H		; `string'
CONST	ENDS
;	COMDAT ??_C@_1CK@ECFIEPAC@?$AA?$BF?$AAp?$AAk?$AAn?$AAu?$AAl?$AAl?$AAp?$AAt?$AAr?$AAL?$AA?$AO?$AAH?$PP?$IJ?$PP?$IM@
CONST	SEGMENT
??_C@_1CK@ECFIEPAC@?$AA?$BF?$AAp?$AAk?$AAn?$AAu?$AAl?$AAl?$AAp?$AAt?$AAr?$AAL?$AA?$AO?$AAH?$PP?$IJ?$PP?$IM@ DB 015H
	DB	'_pek0n', 00H, 'u', 00H, 'l', 00H, 'l', 00H, 'p', 00H, 't', 00H
	DB	'r', 00H, 'L0', 0eH, 'NH0', 089H, '0', 08cH, '0f0D0~0Y0', 02H, '0'
	DB	00H, 00H					; `string'
CONST	ENDS
;	COMDAT ??_C@_13JAOPNPKD@?$AAv@
CONST	SEGMENT
??_C@_13JAOPNPKD@?$AAv@ DB 'v', 00H, 00H, 00H		; `string'
CONST	ENDS
;	COMDAT _CT??_R0?AVArgumentNullException@Internal@Core@Math@Palmtree@@@8??0ArgumentNullException@Internal@Core@Math@Palmtree@@QEAA@AEBV01234@@Z48
xdata$x	SEGMENT
_CT??_R0?AVArgumentNullException@Internal@Core@Math@Palmtree@@@8??0ArgumentNullException@Internal@Core@Math@Palmtree@@QEAA@AEBV01234@@Z48 DD 00H
	DD	imagerel ??_R0?AVArgumentNullException@Internal@Core@Math@Palmtree@@@8
	DD	00H
	DD	0ffffffffH
	ORG $+4
	DD	030H
	DD	imagerel ??0ArgumentNullException@Internal@Core@Math@Palmtree@@QEAA@AEBV01234@@Z
xdata$x	ENDS
;	COMDAT ??_R0?AVArgumentNullException@Internal@Core@Math@Palmtree@@@8
data$r	SEGMENT
??_R0?AVArgumentNullException@Internal@Core@Math@Palmtree@@@8 DQ FLAT:??_7type_info@@6B@ ; Palmtree::Math::Core::Internal::ArgumentNullException `RTTI Type Descriptor'
	DQ	0000000000000000H
	DB	'.?AVArgumentNullException@Internal@Core@Math@Palmtree@@', 00H
data$r	ENDS
;	COMDAT _CTA2?AVArgumentNullException@Internal@Core@Math@Palmtree@@
xdata$x	SEGMENT
_CTA2?AVArgumentNullException@Internal@Core@Math@Palmtree@@ DD 02H
	DD	imagerel _CT??_R0?AVArgumentNullException@Internal@Core@Math@Palmtree@@@8??0ArgumentNullException@Internal@Core@Math@Palmtree@@QEAA@AEBV01234@@Z48
	DD	imagerel _CT??_R0?AVException@Internal@Core@Math@Palmtree@@@8??0Exception@Internal@Core@Math@Palmtree@@QEAA@AEBV01234@@Z48
xdata$x	ENDS
;	COMDAT _TI2?AVArgumentNullException@Internal@Core@Math@Palmtree@@
xdata$x	SEGMENT
_TI2?AVArgumentNullException@Internal@Core@Math@Palmtree@@ DD 00H
	DD	imagerel ??1ArgumentNullException@Internal@Core@Math@Palmtree@@UEAA@XZ
	DD	00H
	DD	imagerel _CTA2?AVArgumentNullException@Internal@Core@Math@Palmtree@@
xdata$x	ENDS
;	COMDAT ??_C@_1BM@FCPAHMHB@?$PP?$IF?$PP?h?$PP?$KI?$PP?i?$PP?$PM?$AAL?$AAz?$AA?$BP?$AAW?$AA?$HO?$AAW?$AA_?$AA?$AC@
CONST	SEGMENT
??_C@_1BM@FCPAHMHB@?$PP?$IF?$PP?h?$PP?$KI?$PP?i?$PP?$PM?$AAL?$AAz?$AA?$BP?$AAW?$AA?$HO?$AAW?$AA_?$AA?$AC@ DB 085H
	DB	'Q', 0e8H, 090H, 0a8H, '0', 0e9H, '0', 0fcH, '0L0zv', 01fH, 'u'
	DB	'W0~0W0_0', 02H, '0', 00H, 00H		; `string'
CONST	ENDS
;	COMDAT ??_C@_1CM@CADFJOJJ@?$AAp?$AAc?$AAm?$AA_?$AAa?$AAd?$AAd?$AA?4?$AAc?$AAp?$AAp?$AA?$DL?$AAD?$AAo?$AAC@
CONST	SEGMENT
??_C@_1CM@CADFJOJJ@?$AAp?$AAc?$AAm?$AA_?$AAa?$AAd?$AAd?$AA?4?$AAc?$AAp?$AAp?$AA?$DL?$AAD?$AAo?$AAC@ DB 'p'
	DB	00H, 'c', 00H, 'm', 00H, '_', 00H, 'a', 00H, 'd', 00H, 'd', 00H
	DB	'.', 00H, 'c', 00H, 'p', 00H, 'p', 00H, ';', 00H, 'D', 00H, 'o'
	DB	00H, 'C', 00H, 'a', 00H, 'r', 00H, 'r', 00H, 'y', 00H, ';', 00H
	DB	'1', 00H, 00H, 00H				; `string'
CONST	ENDS
;	COMDAT _CT??_R0?AVException@Internal@Core@Math@Palmtree@@@8??0Exception@Internal@Core@Math@Palmtree@@QEAA@AEBV01234@@Z48
xdata$x	SEGMENT
_CT??_R0?AVException@Internal@Core@Math@Palmtree@@@8??0Exception@Internal@Core@Math@Palmtree@@QEAA@AEBV01234@@Z48 DD 00H
	DD	imagerel ??_R0?AVException@Internal@Core@Math@Palmtree@@@8
	DD	00H
	DD	0ffffffffH
	ORG $+4
	DD	030H
	DD	imagerel ??0Exception@Internal@Core@Math@Palmtree@@QEAA@AEBV01234@@Z
xdata$x	ENDS
;	COMDAT ??_R0?AVException@Internal@Core@Math@Palmtree@@@8
data$r	SEGMENT
??_R0?AVException@Internal@Core@Math@Palmtree@@@8 DQ FLAT:??_7type_info@@6B@ ; Palmtree::Math::Core::Internal::Exception `RTTI Type Descriptor'
	DQ	0000000000000000H
	DB	'.?AVException@Internal@Core@Math@Palmtree@@', 00H
data$r	ENDS
;	COMDAT _CT??_R0?AVInternalErrorException@Internal@Core@Math@Palmtree@@@8??0InternalErrorException@Internal@Core@Math@Palmtree@@QEAA@AEBV01234@@Z48
xdata$x	SEGMENT
_CT??_R0?AVInternalErrorException@Internal@Core@Math@Palmtree@@@8??0InternalErrorException@Internal@Core@Math@Palmtree@@QEAA@AEBV01234@@Z48 DD 00H
	DD	imagerel ??_R0?AVInternalErrorException@Internal@Core@Math@Palmtree@@@8
	DD	00H
	DD	0ffffffffH
	ORG $+4
	DD	030H
	DD	imagerel ??0InternalErrorException@Internal@Core@Math@Palmtree@@QEAA@AEBV01234@@Z
xdata$x	ENDS
;	COMDAT ??_R0?AVInternalErrorException@Internal@Core@Math@Palmtree@@@8
data$r	SEGMENT
??_R0?AVInternalErrorException@Internal@Core@Math@Palmtree@@@8 DQ FLAT:??_7type_info@@6B@ ; Palmtree::Math::Core::Internal::InternalErrorException `RTTI Type Descriptor'
	DQ	0000000000000000H
	DB	'.?AVInternalErrorException@Internal@Core@Math@Palmtree@@'
	DB	00H
data$r	ENDS
;	COMDAT _CTA2?AVInternalErrorException@Internal@Core@Math@Palmtree@@
xdata$x	SEGMENT
_CTA2?AVInternalErrorException@Internal@Core@Math@Palmtree@@ DD 02H
	DD	imagerel _CT??_R0?AVInternalErrorException@Internal@Core@Math@Palmtree@@@8??0InternalErrorException@Internal@Core@Math@Palmtree@@QEAA@AEBV01234@@Z48
	DD	imagerel _CT??_R0?AVException@Internal@Core@Math@Palmtree@@@8??0Exception@Internal@Core@Math@Palmtree@@QEAA@AEBV01234@@Z48
xdata$x	ENDS
;	COMDAT _TI2?AVInternalErrorException@Internal@Core@Math@Palmtree@@
xdata$x	SEGMENT
_TI2?AVInternalErrorException@Internal@Core@Math@Palmtree@@ DD 00H
	DD	imagerel ??1InternalErrorException@Internal@Core@Math@Palmtree@@UEAA@XZ
	DD	00H
	DD	imagerel _CTA2?AVInternalErrorException@Internal@Core@Math@Palmtree@@
xdata$x	ENDS
;	COMDAT ??_7InternalErrorException@Internal@Core@Math@Palmtree@@6B@
CONST	SEGMENT
??_7InternalErrorException@Internal@Core@Math@Palmtree@@6B@ DQ FLAT:??_R4InternalErrorException@Internal@Core@Math@Palmtree@@6B@ ; Palmtree::Math::Core::Internal::InternalErrorException::`vftable'
	DQ	FLAT:??_EInternalErrorException@Internal@Core@Math@Palmtree@@UEAAPEAXI@Z
	DQ	FLAT:?what@exception@std@@UEBAPEBDXZ
CONST	ENDS
;	COMDAT ??_7ArgumentNullException@Internal@Core@Math@Palmtree@@6B@
CONST	SEGMENT
??_7ArgumentNullException@Internal@Core@Math@Palmtree@@6B@ DQ FLAT:??_R4ArgumentNullException@Internal@Core@Math@Palmtree@@6B@ ; Palmtree::Math::Core::Internal::ArgumentNullException::`vftable'
	DQ	FLAT:??_EArgumentNullException@Internal@Core@Math@Palmtree@@UEAAPEAXI@Z
	DQ	FLAT:?what@exception@std@@UEBAPEBDXZ
CONST	ENDS
;	COMDAT ??_7Exception@Internal@Core@Math@Palmtree@@6B@
CONST	SEGMENT
??_7Exception@Internal@Core@Math@Palmtree@@6B@ DQ FLAT:??_R4Exception@Internal@Core@Math@Palmtree@@6B@ ; Palmtree::Math::Core::Internal::Exception::`vftable'
	DQ	FLAT:??_EException@Internal@Core@Math@Palmtree@@UEAAPEAXI@Z
	DQ	FLAT:?what@exception@std@@UEBAPEBDXZ
CONST	ENDS
;	COMDAT ??_C@_0BC@EOODALEL@Unknown?5exception@
CONST	SEGMENT
??_C@_0BC@EOODALEL@Unknown?5exception@ DB 'Unknown exception', 00H ; `string'
CONST	ENDS
;	COMDAT ??_7exception@std@@6B@
CONST	SEGMENT
??_7exception@std@@6B@ DQ FLAT:??_R4exception@std@@6B@	; std::exception::`vftable'
	DQ	FLAT:??_Eexception@std@@UEAAPEAXI@Z
	DQ	FLAT:?what@exception@std@@UEBAPEBDXZ
CONST	ENDS
;	COMDAT xdata
xdata	SEGMENT
$ip2state$?PMC_Add_X_L_Imp@Internal@Core@Math@Palmtree@@YAPEAU__tag_NUMBER_HEADER@1234@PEAU51234@_K@Z DD imagerel ?PMC_Add_X_L_Imp@Internal@Core@Math@Palmtree@@YAPEAU__tag_NUMBER_HEADER@1234@PEAU51234@_K@Z
	DD	0ffffffffH
	DD	imagerel ?PMC_Add_X_L_Imp@Internal@Core@Math@Palmtree@@YAPEAU__tag_NUMBER_HEADER@1234@PEAU51234@_K@Z+96
	DD	02H
	DD	imagerel ?PMC_Add_X_L_Imp@Internal@Core@Math@Palmtree@@YAPEAU__tag_NUMBER_HEADER@1234@PEAU51234@_K@Z+233
	DD	0ffffffffH
xdata	ENDS
;	COMDAT xdata
xdata	SEGMENT
$stateUnwindMap$?PMC_Add_X_L_Imp@Internal@Core@Math@Palmtree@@YAPEAU__tag_NUMBER_HEADER@1234@PEAU51234@_K@Z DD 0ffffffffH
	DD	00H
	DD	0ffffffffH
	DD	00H
	DD	0ffffffffH
	DD	imagerel ?dtor$2@?0??PMC_Add_X_L_Imp@Internal@Core@Math@Palmtree@@YAPEAU__tag_NUMBER_HEADER@1234@PEAU51234@_K@Z@4HA
xdata	ENDS
;	COMDAT CONST
CONST	SEGMENT
$cppxdata$?PMC_Add_X_L_Imp@Internal@Core@Math@Palmtree@@YAPEAU__tag_NUMBER_HEADER@1234@PEAU51234@_K@Z DD 019930522H
	DD	03H
	DD	imagerel $stateUnwindMap$?PMC_Add_X_L_Imp@Internal@Core@Math@Palmtree@@YAPEAU__tag_NUMBER_HEADER@1234@PEAU51234@_K@Z
	DD	00H
	DD	00H
	DD	03H
	DD	imagerel $ip2state$?PMC_Add_X_L_Imp@Internal@Core@Math@Palmtree@@YAPEAU__tag_NUMBER_HEADER@1234@PEAU51234@_K@Z
	DD	030H
	DD	00H
	DD	00H
CONST	ENDS
;	COMDAT xdata
xdata	SEGMENT
$unwind$?PMC_Add_X_L_Imp@Internal@Core@Math@Palmtree@@YAPEAU__tag_NUMBER_HEADER@1234@PEAU51234@_K@Z DD 081c11H
	DD	010641cH
	DD	0f5418H
	DD	0e3414H
	DD	07004b208H
	DD	imagerel __CxxFrameHandler3
	DD	imagerel $cppxdata$?PMC_Add_X_L_Imp@Internal@Core@Math@Palmtree@@YAPEAU__tag_NUMBER_HEADER@1234@PEAU51234@_K@Z
xdata	ENDS
;	COMDAT xdata
xdata	SEGMENT
$ip2state$?PMC_Add_X_I_Imp@Internal@Core@Math@Palmtree@@YAPEAU__tag_NUMBER_HEADER@1234@PEAU51234@I@Z DD imagerel ?PMC_Add_X_I_Imp@Internal@Core@Math@Palmtree@@YAPEAU__tag_NUMBER_HEADER@1234@PEAU51234@I@Z
	DD	0ffffffffH
	DD	imagerel ?PMC_Add_X_I_Imp@Internal@Core@Math@Palmtree@@YAPEAU__tag_NUMBER_HEADER@1234@PEAU51234@I@Z+92
	DD	00H
	DD	imagerel ?PMC_Add_X_I_Imp@Internal@Core@Math@Palmtree@@YAPEAU__tag_NUMBER_HEADER@1234@PEAU51234@I@Z+228
	DD	0ffffffffH
xdata	ENDS
;	COMDAT xdata
xdata	SEGMENT
$stateUnwindMap$?PMC_Add_X_I_Imp@Internal@Core@Math@Palmtree@@YAPEAU__tag_NUMBER_HEADER@1234@PEAU51234@I@Z DD 0ffffffffH
	DD	imagerel ?dtor$0@?0??PMC_Add_X_I_Imp@Internal@Core@Math@Palmtree@@YAPEAU__tag_NUMBER_HEADER@1234@PEAU51234@I@Z@4HA
xdata	ENDS
;	COMDAT CONST
CONST	SEGMENT
$cppxdata$?PMC_Add_X_I_Imp@Internal@Core@Math@Palmtree@@YAPEAU__tag_NUMBER_HEADER@1234@PEAU51234@I@Z DD 019930522H
	DD	01H
	DD	imagerel $stateUnwindMap$?PMC_Add_X_I_Imp@Internal@Core@Math@Palmtree@@YAPEAU__tag_NUMBER_HEADER@1234@PEAU51234@I@Z
	DD	00H
	DD	00H
	DD	03H
	DD	imagerel $ip2state$?PMC_Add_X_I_Imp@Internal@Core@Math@Palmtree@@YAPEAU__tag_NUMBER_HEADER@1234@PEAU51234@I@Z
	DD	030H
	DD	00H
	DD	00H
CONST	ENDS
;	COMDAT xdata
xdata	SEGMENT
$unwind$?PMC_Add_X_I_Imp@Internal@Core@Math@Palmtree@@YAPEAU__tag_NUMBER_HEADER@1234@PEAU51234@I@Z DD 081c11H
	DD	010641cH
	DD	0f5418H
	DD	0e3414H
	DD	07004b208H
	DD	imagerel __CxxFrameHandler3
	DD	imagerel $cppxdata$?PMC_Add_X_I_Imp@Internal@Core@Math@Palmtree@@YAPEAU__tag_NUMBER_HEADER@1234@PEAU51234@I@Z
xdata	ENDS
;	COMDAT xdata
xdata	SEGMENT
$unwind$?Add_Imp_using_ADCX@Internal@Core@Math@Palmtree@@YAXPEA_K_K0101@Z DD 060f01H
	DD	09640fH
	DD	08340fH
	DD	0700b520fH
xdata	ENDS
;	COMDAT xdata
xdata	SEGMENT
$unwind$?Add_Imp_using_ADC@Internal@Core@Math@Palmtree@@YAXPEA_K_K0101@Z DD 040a01H
	DD	08340aH
	DD	07006520aH
xdata	ENDS
;	COMDAT xdata
xdata	SEGMENT
$unwind$?DoCarry@Internal@Core@Math@Palmtree@@YAXDPEA_K_K01@Z DD 010401H
	DD	0a204H
xdata	ENDS
;	COMDAT xdata
xdata	SEGMENT
$ip2state$?PMC_Add_X_X@Internal@Core@Math@Palmtree@@YAPEAU__tag_PMC_HANDLE_UINT@1234@PEAU51234@0@Z DD imagerel ?PMC_Add_X_X@Internal@Core@Math@Palmtree@@YAPEAU__tag_PMC_HANDLE_UINT@1234@PEAU51234@0@Z
	DD	0ffffffffH
	DD	imagerel ?PMC_Add_X_X@Internal@Core@Math@Palmtree@@YAPEAU__tag_PMC_HANDLE_UINT@1234@PEAU51234@0@Z+75
	DD	00H
	DD	imagerel ?PMC_Add_X_X@Internal@Core@Math@Palmtree@@YAPEAU__tag_PMC_HANDLE_UINT@1234@PEAU51234@0@Z+145
	DD	01H
	DD	imagerel ?PMC_Add_X_X@Internal@Core@Math@Palmtree@@YAPEAU__tag_PMC_HANDLE_UINT@1234@PEAU51234@0@Z+249
	DD	00H
	DD	imagerel ?PMC_Add_X_X@Internal@Core@Math@Palmtree@@YAPEAU__tag_PMC_HANDLE_UINT@1234@PEAU51234@0@Z+286
	DD	0ffffffffH
xdata	ENDS
;	COMDAT xdata
xdata	SEGMENT
$stateUnwindMap$?PMC_Add_X_X@Internal@Core@Math@Palmtree@@YAPEAU__tag_PMC_HANDLE_UINT@1234@PEAU51234@0@Z DD 0ffffffffH
	DD	imagerel ?dtor$0@?0??PMC_Add_X_X@Internal@Core@Math@Palmtree@@YAPEAU__tag_PMC_HANDLE_UINT@1234@PEAU51234@0@Z@4HA
	DD	00H
	DD	imagerel ?dtor$1@?0??PMC_Add_X_X@Internal@Core@Math@Palmtree@@YAPEAU__tag_PMC_HANDLE_UINT@1234@PEAU51234@0@Z@4HA
xdata	ENDS
;	COMDAT CONST
CONST	SEGMENT
$cppxdata$?PMC_Add_X_X@Internal@Core@Math@Palmtree@@YAPEAU__tag_PMC_HANDLE_UINT@1234@PEAU51234@0@Z DD 019930522H
	DD	02H
	DD	imagerel $stateUnwindMap$?PMC_Add_X_X@Internal@Core@Math@Palmtree@@YAPEAU__tag_PMC_HANDLE_UINT@1234@PEAU51234@0@Z
	DD	00H
	DD	00H
	DD	05H
	DD	imagerel $ip2state$?PMC_Add_X_X@Internal@Core@Math@Palmtree@@YAPEAU__tag_PMC_HANDLE_UINT@1234@PEAU51234@0@Z
	DD	030H
	DD	00H
	DD	00H
CONST	ENDS
;	COMDAT xdata
xdata	SEGMENT
$unwind$?PMC_Add_X_X@Internal@Core@Math@Palmtree@@YAPEAU__tag_PMC_HANDLE_UINT@1234@PEAU51234@0@Z DD 071b11H
	DD	015641bH
	DD	0143417H
	DD	012010bH
	DD	07004H
	DD	imagerel __CxxFrameHandler3
	DD	imagerel $cppxdata$?PMC_Add_X_X@Internal@Core@Math@Palmtree@@YAPEAU__tag_PMC_HANDLE_UINT@1234@PEAU51234@0@Z
xdata	ENDS
;	COMDAT xdata
xdata	SEGMENT
$ip2state$?PMC_Add_X_L@Internal@Core@Math@Palmtree@@YAPEAU__tag_PMC_HANDLE_UINT@1234@PEAU51234@_K@Z DD imagerel ?PMC_Add_X_L@Internal@Core@Math@Palmtree@@YAPEAU__tag_PMC_HANDLE_UINT@1234@PEAU51234@_K@Z
	DD	0ffffffffH
	DD	imagerel ?PMC_Add_X_L@Internal@Core@Math@Palmtree@@YAPEAU__tag_PMC_HANDLE_UINT@1234@PEAU51234@_K@Z+53
	DD	00H
	DD	imagerel ?PMC_Add_X_L@Internal@Core@Math@Palmtree@@YAPEAU__tag_PMC_HANDLE_UINT@1234@PEAU51234@_K@Z+94
	DD	0ffffffffH
xdata	ENDS
;	COMDAT xdata
xdata	SEGMENT
$stateUnwindMap$?PMC_Add_X_L@Internal@Core@Math@Palmtree@@YAPEAU__tag_PMC_HANDLE_UINT@1234@PEAU51234@_K@Z DD 0ffffffffH
	DD	imagerel ?dtor$0@?0??PMC_Add_X_L@Internal@Core@Math@Palmtree@@YAPEAU__tag_PMC_HANDLE_UINT@1234@PEAU51234@_K@Z@4HA
xdata	ENDS
;	COMDAT CONST
CONST	SEGMENT
$cppxdata$?PMC_Add_X_L@Internal@Core@Math@Palmtree@@YAPEAU__tag_PMC_HANDLE_UINT@1234@PEAU51234@_K@Z DD 019930522H
	DD	01H
	DD	imagerel $stateUnwindMap$?PMC_Add_X_L@Internal@Core@Math@Palmtree@@YAPEAU__tag_PMC_HANDLE_UINT@1234@PEAU51234@_K@Z
	DD	00H
	DD	00H
	DD	03H
	DD	imagerel $ip2state$?PMC_Add_X_L@Internal@Core@Math@Palmtree@@YAPEAU__tag_PMC_HANDLE_UINT@1234@PEAU51234@_K@Z
	DD	020H
	DD	00H
	DD	00H
CONST	ENDS
;	COMDAT xdata
xdata	SEGMENT
$unwind$?PMC_Add_X_L@Internal@Core@Math@Palmtree@@YAPEAU__tag_PMC_HANDLE_UINT@1234@PEAU51234@_K@Z DD 041a11H
	DD	012341aH
	DD	07002f209H
	DD	imagerel __CxxFrameHandler3
	DD	imagerel $cppxdata$?PMC_Add_X_L@Internal@Core@Math@Palmtree@@YAPEAU__tag_PMC_HANDLE_UINT@1234@PEAU51234@_K@Z
xdata	ENDS
;	COMDAT xdata
xdata	SEGMENT
$ip2state$?PMC_Add_X_I@Internal@Core@Math@Palmtree@@YAPEAU__tag_PMC_HANDLE_UINT@1234@PEAU51234@I@Z DD imagerel ?PMC_Add_X_I@Internal@Core@Math@Palmtree@@YAPEAU__tag_PMC_HANDLE_UINT@1234@PEAU51234@I@Z
	DD	0ffffffffH
	DD	imagerel ?PMC_Add_X_I@Internal@Core@Math@Palmtree@@YAPEAU__tag_PMC_HANDLE_UINT@1234@PEAU51234@I@Z+52
	DD	00H
	DD	imagerel ?PMC_Add_X_I@Internal@Core@Math@Palmtree@@YAPEAU__tag_PMC_HANDLE_UINT@1234@PEAU51234@I@Z+92
	DD	0ffffffffH
xdata	ENDS
;	COMDAT xdata
xdata	SEGMENT
$stateUnwindMap$?PMC_Add_X_I@Internal@Core@Math@Palmtree@@YAPEAU__tag_PMC_HANDLE_UINT@1234@PEAU51234@I@Z DD 0ffffffffH
	DD	imagerel ?dtor$0@?0??PMC_Add_X_I@Internal@Core@Math@Palmtree@@YAPEAU__tag_PMC_HANDLE_UINT@1234@PEAU51234@I@Z@4HA
xdata	ENDS
;	COMDAT CONST
CONST	SEGMENT
$cppxdata$?PMC_Add_X_I@Internal@Core@Math@Palmtree@@YAPEAU__tag_PMC_HANDLE_UINT@1234@PEAU51234@I@Z DD 019930522H
	DD	01H
	DD	imagerel $stateUnwindMap$?PMC_Add_X_I@Internal@Core@Math@Palmtree@@YAPEAU__tag_PMC_HANDLE_UINT@1234@PEAU51234@I@Z
	DD	00H
	DD	00H
	DD	03H
	DD	imagerel $ip2state$?PMC_Add_X_I@Internal@Core@Math@Palmtree@@YAPEAU__tag_PMC_HANDLE_UINT@1234@PEAU51234@I@Z
	DD	020H
	DD	00H
	DD	00H
CONST	ENDS
;	COMDAT xdata
xdata	SEGMENT
$unwind$?PMC_Add_X_I@Internal@Core@Math@Palmtree@@YAPEAU__tag_PMC_HANDLE_UINT@1234@PEAU51234@I@Z DD 041a11H
	DD	012341aH
	DD	07002f209H
	DD	imagerel __CxxFrameHandler3
	DD	imagerel $cppxdata$?PMC_Add_X_I@Internal@Core@Math@Palmtree@@YAPEAU__tag_PMC_HANDLE_UINT@1234@PEAU51234@I@Z
xdata	ENDS
;	COMDAT xdata
xdata	SEGMENT
$ip2state$?PMC_Add_L_X@Internal@Core@Math@Palmtree@@YAPEAU__tag_PMC_HANDLE_UINT@1234@_KPEAU51234@@Z DD imagerel ?PMC_Add_L_X@Internal@Core@Math@Palmtree@@YAPEAU__tag_PMC_HANDLE_UINT@1234@_KPEAU51234@@Z
	DD	0ffffffffH
	DD	imagerel ?PMC_Add_L_X@Internal@Core@Math@Palmtree@@YAPEAU__tag_PMC_HANDLE_UINT@1234@_KPEAU51234@@Z+56
	DD	00H
	DD	imagerel ?PMC_Add_L_X@Internal@Core@Math@Palmtree@@YAPEAU__tag_PMC_HANDLE_UINT@1234@_KPEAU51234@@Z+97
	DD	0ffffffffH
xdata	ENDS
;	COMDAT xdata
xdata	SEGMENT
$stateUnwindMap$?PMC_Add_L_X@Internal@Core@Math@Palmtree@@YAPEAU__tag_PMC_HANDLE_UINT@1234@_KPEAU51234@@Z DD 0ffffffffH
	DD	imagerel ?dtor$0@?0??PMC_Add_L_X@Internal@Core@Math@Palmtree@@YAPEAU__tag_PMC_HANDLE_UINT@1234@_KPEAU51234@@Z@4HA
xdata	ENDS
;	COMDAT CONST
CONST	SEGMENT
$cppxdata$?PMC_Add_L_X@Internal@Core@Math@Palmtree@@YAPEAU__tag_PMC_HANDLE_UINT@1234@_KPEAU51234@@Z DD 019930522H
	DD	01H
	DD	imagerel $stateUnwindMap$?PMC_Add_L_X@Internal@Core@Math@Palmtree@@YAPEAU__tag_PMC_HANDLE_UINT@1234@_KPEAU51234@@Z
	DD	00H
	DD	00H
	DD	03H
	DD	imagerel $ip2state$?PMC_Add_L_X@Internal@Core@Math@Palmtree@@YAPEAU__tag_PMC_HANDLE_UINT@1234@_KPEAU51234@@Z
	DD	020H
	DD	00H
	DD	00H
CONST	ENDS
;	COMDAT xdata
xdata	SEGMENT
$unwind$?PMC_Add_L_X@Internal@Core@Math@Palmtree@@YAPEAU__tag_PMC_HANDLE_UINT@1234@_KPEAU51234@@Z DD 041a11H
	DD	012341aH
	DD	07002f209H
	DD	imagerel __CxxFrameHandler3
	DD	imagerel $cppxdata$?PMC_Add_L_X@Internal@Core@Math@Palmtree@@YAPEAU__tag_PMC_HANDLE_UINT@1234@_KPEAU51234@@Z
xdata	ENDS
;	COMDAT xdata
xdata	SEGMENT
$ip2state$?PMC_Add_I_X@Internal@Core@Math@Palmtree@@YAPEAU__tag_PMC_HANDLE_UINT@1234@IPEAU51234@@Z DD imagerel ?PMC_Add_I_X@Internal@Core@Math@Palmtree@@YAPEAU__tag_PMC_HANDLE_UINT@1234@IPEAU51234@@Z
	DD	0ffffffffH
	DD	imagerel ?PMC_Add_I_X@Internal@Core@Math@Palmtree@@YAPEAU__tag_PMC_HANDLE_UINT@1234@IPEAU51234@@Z+55
	DD	00H
	DD	imagerel ?PMC_Add_I_X@Internal@Core@Math@Palmtree@@YAPEAU__tag_PMC_HANDLE_UINT@1234@IPEAU51234@@Z+95
	DD	0ffffffffH
xdata	ENDS
;	COMDAT xdata
xdata	SEGMENT
$stateUnwindMap$?PMC_Add_I_X@Internal@Core@Math@Palmtree@@YAPEAU__tag_PMC_HANDLE_UINT@1234@IPEAU51234@@Z DD 0ffffffffH
	DD	imagerel ?dtor$0@?0??PMC_Add_I_X@Internal@Core@Math@Palmtree@@YAPEAU__tag_PMC_HANDLE_UINT@1234@IPEAU51234@@Z@4HA
xdata	ENDS
;	COMDAT CONST
CONST	SEGMENT
$cppxdata$?PMC_Add_I_X@Internal@Core@Math@Palmtree@@YAPEAU__tag_PMC_HANDLE_UINT@1234@IPEAU51234@@Z DD 019930522H
	DD	01H
	DD	imagerel $stateUnwindMap$?PMC_Add_I_X@Internal@Core@Math@Palmtree@@YAPEAU__tag_PMC_HANDLE_UINT@1234@IPEAU51234@@Z
	DD	00H
	DD	00H
	DD	03H
	DD	imagerel $ip2state$?PMC_Add_I_X@Internal@Core@Math@Palmtree@@YAPEAU__tag_PMC_HANDLE_UINT@1234@IPEAU51234@@Z
	DD	020H
	DD	00H
	DD	00H
CONST	ENDS
;	COMDAT xdata
xdata	SEGMENT
$unwind$?PMC_Add_I_X@Internal@Core@Math@Palmtree@@YAPEAU__tag_PMC_HANDLE_UINT@1234@IPEAU51234@@Z DD 041a11H
	DD	012341aH
	DD	07002f209H
	DD	imagerel __CxxFrameHandler3
	DD	imagerel $cppxdata$?PMC_Add_I_X@Internal@Core@Math@Palmtree@@YAPEAU__tag_PMC_HANDLE_UINT@1234@IPEAU51234@@Z
xdata	ENDS
;	COMDAT xdata
xdata	SEGMENT
$ip2state$?PMC_Add_X_X_Imp@Internal@Core@Math@Palmtree@@YAPEAU__tag_NUMBER_HEADER@1234@PEAU51234@0@Z DD imagerel ?PMC_Add_X_X_Imp@Internal@Core@Math@Palmtree@@YAPEAU__tag_NUMBER_HEADER@1234@PEAU51234@0@Z
	DD	0ffffffffH
	DD	imagerel ?PMC_Add_X_X_Imp@Internal@Core@Math@Palmtree@@YAPEAU__tag_NUMBER_HEADER@1234@PEAU51234@0@Z+106
	DD	00H
	DD	imagerel ?PMC_Add_X_X_Imp@Internal@Core@Math@Palmtree@@YAPEAU__tag_NUMBER_HEADER@1234@PEAU51234@0@Z+210
	DD	0ffffffffH
xdata	ENDS
;	COMDAT xdata
xdata	SEGMENT
$stateUnwindMap$?PMC_Add_X_X_Imp@Internal@Core@Math@Palmtree@@YAPEAU__tag_NUMBER_HEADER@1234@PEAU51234@0@Z DD 0ffffffffH
	DD	imagerel ?dtor$0@?0??PMC_Add_X_X_Imp@Internal@Core@Math@Palmtree@@YAPEAU__tag_NUMBER_HEADER@1234@PEAU51234@0@Z@4HA
xdata	ENDS
;	COMDAT CONST
CONST	SEGMENT
$cppxdata$?PMC_Add_X_X_Imp@Internal@Core@Math@Palmtree@@YAPEAU__tag_NUMBER_HEADER@1234@PEAU51234@0@Z DD 019930522H
	DD	01H
	DD	imagerel $stateUnwindMap$?PMC_Add_X_X_Imp@Internal@Core@Math@Palmtree@@YAPEAU__tag_NUMBER_HEADER@1234@PEAU51234@0@Z
	DD	00H
	DD	00H
	DD	03H
	DD	imagerel $ip2state$?PMC_Add_X_X_Imp@Internal@Core@Math@Palmtree@@YAPEAU__tag_NUMBER_HEADER@1234@PEAU51234@0@Z
	DD	030H
	DD	00H
	DD	00H
CONST	ENDS
;	COMDAT xdata
xdata	SEGMENT
$unwind$?PMC_Add_X_X_Imp@Internal@Core@Math@Palmtree@@YAPEAU__tag_NUMBER_HEADER@1234@PEAU51234@0@Z DD 061911H
	DD	0f6419H
	DD	0e3414H
	DD	07002b206H
	DD	imagerel __CxxFrameHandler3
	DD	imagerel $cppxdata$?PMC_Add_X_X_Imp@Internal@Core@Math@Palmtree@@YAPEAU__tag_NUMBER_HEADER@1234@PEAU51234@0@Z
xdata	ENDS
;	COMDAT xdata
xdata	SEGMENT
$ip2state$??_GInternalErrorException@Internal@Core@Math@Palmtree@@UEAAPEAXI@Z DD imagerel ??_GInternalErrorException@Internal@Core@Math@Palmtree@@UEAAPEAXI@Z
	DD	0ffffffffH
xdata	ENDS
;	COMDAT xdata
xdata	SEGMENT
$stateUnwindMap$??_GInternalErrorException@Internal@Core@Math@Palmtree@@UEAAPEAXI@Z DD 0ffffffffH
	DD	imagerel ?dtor$0@?0???_GInternalErrorException@Internal@Core@Math@Palmtree@@UEAAPEAXI@Z@4HA
	DD	0ffffffffH
	DD	imagerel ?dtor$1@?0???_GInternalErrorException@Internal@Core@Math@Palmtree@@UEAAPEAXI@Z@4HA
xdata	ENDS
;	COMDAT CONST
CONST	SEGMENT
$cppxdata$??_GInternalErrorException@Internal@Core@Math@Palmtree@@UEAAPEAXI@Z DD 019930522H
	DD	02H
	DD	imagerel $stateUnwindMap$??_GInternalErrorException@Internal@Core@Math@Palmtree@@UEAAPEAXI@Z
	DD	00H
	DD	00H
	DD	01H
	DD	imagerel $ip2state$??_GInternalErrorException@Internal@Core@Math@Palmtree@@UEAAPEAXI@Z
	DD	020H
	DD	00H
	DD	04H
CONST	ENDS
;	COMDAT xdata
xdata	SEGMENT
$unwind$??_GInternalErrorException@Internal@Core@Math@Palmtree@@UEAAPEAXI@Z DD 041819H
	DD	093418H
	DD	07006520aH
	DD	imagerel __CxxFrameHandler3
	DD	imagerel $cppxdata$??_GInternalErrorException@Internal@Core@Math@Palmtree@@UEAAPEAXI@Z
xdata	ENDS
;	COMDAT xdata
xdata	SEGMENT
$ip2state$??1InternalErrorException@Internal@Core@Math@Palmtree@@UEAA@XZ DD imagerel ??1InternalErrorException@Internal@Core@Math@Palmtree@@UEAA@XZ
	DD	0ffffffffH
xdata	ENDS
;	COMDAT xdata
xdata	SEGMENT
$stateUnwindMap$??1InternalErrorException@Internal@Core@Math@Palmtree@@UEAA@XZ DD 0ffffffffH
	DD	imagerel ?dtor$0@?0???1InternalErrorException@Internal@Core@Math@Palmtree@@UEAA@XZ@4HA
	DD	0ffffffffH
	DD	imagerel ?dtor$1@?0???1InternalErrorException@Internal@Core@Math@Palmtree@@UEAA@XZ@4HA
xdata	ENDS
;	COMDAT CONST
CONST	SEGMENT
$cppxdata$??1InternalErrorException@Internal@Core@Math@Palmtree@@UEAA@XZ DD 019930522H
	DD	02H
	DD	imagerel $stateUnwindMap$??1InternalErrorException@Internal@Core@Math@Palmtree@@UEAA@XZ
	DD	00H
	DD	00H
	DD	01H
	DD	imagerel $ip2state$??1InternalErrorException@Internal@Core@Math@Palmtree@@UEAA@XZ
	DD	020H
	DD	00H
	DD	04H
CONST	ENDS
;	COMDAT xdata
xdata	SEGMENT
$unwind$??1InternalErrorException@Internal@Core@Math@Palmtree@@UEAA@XZ DD 011219H
	DD	06209H
	DD	imagerel __CxxFrameHandler3
	DD	imagerel $cppxdata$??1InternalErrorException@Internal@Core@Math@Palmtree@@UEAA@XZ
xdata	ENDS
;	COMDAT xdata
xdata	SEGMENT
$ip2state$??0InternalErrorException@Internal@Core@Math@Palmtree@@QEAA@AEBV01234@@Z DD imagerel ??0InternalErrorException@Internal@Core@Math@Palmtree@@QEAA@AEBV01234@@Z
	DD	0ffffffffH
	DD	imagerel ??0InternalErrorException@Internal@Core@Math@Palmtree@@QEAA@AEBV01234@@Z+37
	DD	00H
	DD	imagerel ??0InternalErrorException@Internal@Core@Math@Palmtree@@QEAA@AEBV01234@@Z+69
	DD	01H
	DD	imagerel ??0InternalErrorException@Internal@Core@Math@Palmtree@@QEAA@AEBV01234@@Z+79
	DD	0ffffffffH
xdata	ENDS
;	COMDAT xdata
xdata	SEGMENT
$stateUnwindMap$??0InternalErrorException@Internal@Core@Math@Palmtree@@QEAA@AEBV01234@@Z DD 0ffffffffH
	DD	imagerel ?dtor$1@?0???0InternalErrorException@Internal@Core@Math@Palmtree@@QEAA@AEBV01234@@Z@4HA
	DD	0ffffffffH
	DD	imagerel ?dtor$0@?0???0InternalErrorException@Internal@Core@Math@Palmtree@@QEAA@AEBV01234@@Z@4HA
xdata	ENDS
;	COMDAT CONST
CONST	SEGMENT
$cppxdata$??0InternalErrorException@Internal@Core@Math@Palmtree@@QEAA@AEBV01234@@Z DD 019930522H
	DD	02H
	DD	imagerel $stateUnwindMap$??0InternalErrorException@Internal@Core@Math@Palmtree@@QEAA@AEBV01234@@Z
	DD	00H
	DD	00H
	DD	04H
	DD	imagerel $ip2state$??0InternalErrorException@Internal@Core@Math@Palmtree@@QEAA@AEBV01234@@Z
	DD	00H
	DD	00H
	DD	04H
CONST	ENDS
;	COMDAT xdata
xdata	SEGMENT
$unwind$??0InternalErrorException@Internal@Core@Math@Palmtree@@QEAA@AEBV01234@@Z DD 011111H
	DD	02209H
	DD	imagerel __CxxFrameHandler3
	DD	imagerel $cppxdata$??0InternalErrorException@Internal@Core@Math@Palmtree@@QEAA@AEBV01234@@Z
xdata	ENDS
;	COMDAT xdata
xdata	SEGMENT
$ip2state$??0InternalErrorException@Internal@Core@Math@Palmtree@@QEAA@PEB_W0@Z DD imagerel ??0InternalErrorException@Internal@Core@Math@Palmtree@@QEAA@PEB_W0@Z
	DD	0ffffffffH
	DD	imagerel ??0InternalErrorException@Internal@Core@Math@Palmtree@@QEAA@PEB_W0@Z+37
	DD	00H
	DD	imagerel ??0InternalErrorException@Internal@Core@Math@Palmtree@@QEAA@PEB_W0@Z+62
	DD	01H
	DD	imagerel ??0InternalErrorException@Internal@Core@Math@Palmtree@@QEAA@PEB_W0@Z+72
	DD	0ffffffffH
xdata	ENDS
;	COMDAT xdata
xdata	SEGMENT
$stateUnwindMap$??0InternalErrorException@Internal@Core@Math@Palmtree@@QEAA@PEB_W0@Z DD 0ffffffffH
	DD	imagerel ?dtor$1@?0???0InternalErrorException@Internal@Core@Math@Palmtree@@QEAA@PEB_W0@Z@4HA
	DD	0ffffffffH
	DD	imagerel ?dtor$0@?0???0InternalErrorException@Internal@Core@Math@Palmtree@@QEAA@PEB_W0@Z@4HA
xdata	ENDS
;	COMDAT CONST
CONST	SEGMENT
$cppxdata$??0InternalErrorException@Internal@Core@Math@Palmtree@@QEAA@PEB_W0@Z DD 019930522H
	DD	02H
	DD	imagerel $stateUnwindMap$??0InternalErrorException@Internal@Core@Math@Palmtree@@QEAA@PEB_W0@Z
	DD	00H
	DD	00H
	DD	04H
	DD	imagerel $ip2state$??0InternalErrorException@Internal@Core@Math@Palmtree@@QEAA@PEB_W0@Z
	DD	00H
	DD	00H
	DD	04H
CONST	ENDS
;	COMDAT xdata
xdata	SEGMENT
$unwind$??0InternalErrorException@Internal@Core@Math@Palmtree@@QEAA@PEB_W0@Z DD 011111H
	DD	02209H
	DD	imagerel __CxxFrameHandler3
	DD	imagerel $cppxdata$??0InternalErrorException@Internal@Core@Math@Palmtree@@QEAA@PEB_W0@Z
xdata	ENDS
;	COMDAT xdata
xdata	SEGMENT
$ip2state$??_GArgumentNullException@Internal@Core@Math@Palmtree@@UEAAPEAXI@Z DD imagerel ??_GArgumentNullException@Internal@Core@Math@Palmtree@@UEAAPEAXI@Z
	DD	0ffffffffH
xdata	ENDS
;	COMDAT xdata
xdata	SEGMENT
$stateUnwindMap$??_GArgumentNullException@Internal@Core@Math@Palmtree@@UEAAPEAXI@Z DD 0ffffffffH
	DD	imagerel ?dtor$0@?0???_GArgumentNullException@Internal@Core@Math@Palmtree@@UEAAPEAXI@Z@4HA
	DD	0ffffffffH
	DD	imagerel ?dtor$1@?0???_GArgumentNullException@Internal@Core@Math@Palmtree@@UEAAPEAXI@Z@4HA
xdata	ENDS
;	COMDAT CONST
CONST	SEGMENT
$cppxdata$??_GArgumentNullException@Internal@Core@Math@Palmtree@@UEAAPEAXI@Z DD 019930522H
	DD	02H
	DD	imagerel $stateUnwindMap$??_GArgumentNullException@Internal@Core@Math@Palmtree@@UEAAPEAXI@Z
	DD	00H
	DD	00H
	DD	01H
	DD	imagerel $ip2state$??_GArgumentNullException@Internal@Core@Math@Palmtree@@UEAAPEAXI@Z
	DD	020H
	DD	00H
	DD	04H
CONST	ENDS
;	COMDAT xdata
xdata	SEGMENT
$unwind$??_GArgumentNullException@Internal@Core@Math@Palmtree@@UEAAPEAXI@Z DD 041819H
	DD	093418H
	DD	07006520aH
	DD	imagerel __CxxFrameHandler3
	DD	imagerel $cppxdata$??_GArgumentNullException@Internal@Core@Math@Palmtree@@UEAAPEAXI@Z
xdata	ENDS
;	COMDAT xdata
xdata	SEGMENT
$ip2state$??1ArgumentNullException@Internal@Core@Math@Palmtree@@UEAA@XZ DD imagerel ??1ArgumentNullException@Internal@Core@Math@Palmtree@@UEAA@XZ
	DD	0ffffffffH
xdata	ENDS
;	COMDAT xdata
xdata	SEGMENT
$stateUnwindMap$??1ArgumentNullException@Internal@Core@Math@Palmtree@@UEAA@XZ DD 0ffffffffH
	DD	imagerel ?dtor$0@?0???1ArgumentNullException@Internal@Core@Math@Palmtree@@UEAA@XZ@4HA
	DD	0ffffffffH
	DD	imagerel ?dtor$1@?0???1ArgumentNullException@Internal@Core@Math@Palmtree@@UEAA@XZ@4HA
xdata	ENDS
;	COMDAT CONST
CONST	SEGMENT
$cppxdata$??1ArgumentNullException@Internal@Core@Math@Palmtree@@UEAA@XZ DD 019930522H
	DD	02H
	DD	imagerel $stateUnwindMap$??1ArgumentNullException@Internal@Core@Math@Palmtree@@UEAA@XZ
	DD	00H
	DD	00H
	DD	01H
	DD	imagerel $ip2state$??1ArgumentNullException@Internal@Core@Math@Palmtree@@UEAA@XZ
	DD	020H
	DD	00H
	DD	04H
CONST	ENDS
;	COMDAT xdata
xdata	SEGMENT
$unwind$??1ArgumentNullException@Internal@Core@Math@Palmtree@@UEAA@XZ DD 011219H
	DD	06209H
	DD	imagerel __CxxFrameHandler3
	DD	imagerel $cppxdata$??1ArgumentNullException@Internal@Core@Math@Palmtree@@UEAA@XZ
xdata	ENDS
;	COMDAT xdata
xdata	SEGMENT
$ip2state$??0ArgumentNullException@Internal@Core@Math@Palmtree@@QEAA@AEBV01234@@Z DD imagerel ??0ArgumentNullException@Internal@Core@Math@Palmtree@@QEAA@AEBV01234@@Z
	DD	0ffffffffH
	DD	imagerel ??0ArgumentNullException@Internal@Core@Math@Palmtree@@QEAA@AEBV01234@@Z+37
	DD	00H
	DD	imagerel ??0ArgumentNullException@Internal@Core@Math@Palmtree@@QEAA@AEBV01234@@Z+69
	DD	01H
	DD	imagerel ??0ArgumentNullException@Internal@Core@Math@Palmtree@@QEAA@AEBV01234@@Z+79
	DD	0ffffffffH
xdata	ENDS
;	COMDAT xdata
xdata	SEGMENT
$stateUnwindMap$??0ArgumentNullException@Internal@Core@Math@Palmtree@@QEAA@AEBV01234@@Z DD 0ffffffffH
	DD	imagerel ?dtor$1@?0???0ArgumentNullException@Internal@Core@Math@Palmtree@@QEAA@AEBV01234@@Z@4HA
	DD	0ffffffffH
	DD	imagerel ?dtor$0@?0???0ArgumentNullException@Internal@Core@Math@Palmtree@@QEAA@AEBV01234@@Z@4HA
xdata	ENDS
;	COMDAT CONST
CONST	SEGMENT
$cppxdata$??0ArgumentNullException@Internal@Core@Math@Palmtree@@QEAA@AEBV01234@@Z DD 019930522H
	DD	02H
	DD	imagerel $stateUnwindMap$??0ArgumentNullException@Internal@Core@Math@Palmtree@@QEAA@AEBV01234@@Z
	DD	00H
	DD	00H
	DD	04H
	DD	imagerel $ip2state$??0ArgumentNullException@Internal@Core@Math@Palmtree@@QEAA@AEBV01234@@Z
	DD	00H
	DD	00H
	DD	04H
CONST	ENDS
;	COMDAT xdata
xdata	SEGMENT
$unwind$??0ArgumentNullException@Internal@Core@Math@Palmtree@@QEAA@AEBV01234@@Z DD 011111H
	DD	02209H
	DD	imagerel __CxxFrameHandler3
	DD	imagerel $cppxdata$??0ArgumentNullException@Internal@Core@Math@Palmtree@@QEAA@AEBV01234@@Z
xdata	ENDS
;	COMDAT xdata
xdata	SEGMENT
$ip2state$??0ArgumentNullException@Internal@Core@Math@Palmtree@@QEAA@PEB_W0@Z DD imagerel ??0ArgumentNullException@Internal@Core@Math@Palmtree@@QEAA@PEB_W0@Z
	DD	0ffffffffH
	DD	imagerel ??0ArgumentNullException@Internal@Core@Math@Palmtree@@QEAA@PEB_W0@Z+37
	DD	00H
	DD	imagerel ??0ArgumentNullException@Internal@Core@Math@Palmtree@@QEAA@PEB_W0@Z+62
	DD	01H
	DD	imagerel ??0ArgumentNullException@Internal@Core@Math@Palmtree@@QEAA@PEB_W0@Z+72
	DD	0ffffffffH
xdata	ENDS
;	COMDAT xdata
xdata	SEGMENT
$stateUnwindMap$??0ArgumentNullException@Internal@Core@Math@Palmtree@@QEAA@PEB_W0@Z DD 0ffffffffH
	DD	imagerel ?dtor$1@?0???0ArgumentNullException@Internal@Core@Math@Palmtree@@QEAA@PEB_W0@Z@4HA
	DD	0ffffffffH
	DD	imagerel ?dtor$0@?0???0ArgumentNullException@Internal@Core@Math@Palmtree@@QEAA@PEB_W0@Z@4HA
xdata	ENDS
;	COMDAT CONST
CONST	SEGMENT
$cppxdata$??0ArgumentNullException@Internal@Core@Math@Palmtree@@QEAA@PEB_W0@Z DD 019930522H
	DD	02H
	DD	imagerel $stateUnwindMap$??0ArgumentNullException@Internal@Core@Math@Palmtree@@QEAA@PEB_W0@Z
	DD	00H
	DD	00H
	DD	04H
	DD	imagerel $ip2state$??0ArgumentNullException@Internal@Core@Math@Palmtree@@QEAA@PEB_W0@Z
	DD	00H
	DD	00H
	DD	04H
CONST	ENDS
;	COMDAT xdata
xdata	SEGMENT
$unwind$??0ArgumentNullException@Internal@Core@Math@Palmtree@@QEAA@PEB_W0@Z DD 011111H
	DD	02209H
	DD	imagerel __CxxFrameHandler3
	DD	imagerel $cppxdata$??0ArgumentNullException@Internal@Core@Math@Palmtree@@QEAA@PEB_W0@Z
xdata	ENDS
;	COMDAT xdata
xdata	SEGMENT
$ip2state$??_GException@Internal@Core@Math@Palmtree@@UEAAPEAXI@Z DD imagerel ??_GException@Internal@Core@Math@Palmtree@@UEAAPEAXI@Z
	DD	0ffffffffH
xdata	ENDS
;	COMDAT xdata
xdata	SEGMENT
$stateUnwindMap$??_GException@Internal@Core@Math@Palmtree@@UEAAPEAXI@Z DD 0ffffffffH
	DD	imagerel ?dtor$0@?0???_GException@Internal@Core@Math@Palmtree@@UEAAPEAXI@Z@4HA
xdata	ENDS
;	COMDAT CONST
CONST	SEGMENT
$cppxdata$??_GException@Internal@Core@Math@Palmtree@@UEAAPEAXI@Z DD 019930522H
	DD	01H
	DD	imagerel $stateUnwindMap$??_GException@Internal@Core@Math@Palmtree@@UEAAPEAXI@Z
	DD	00H
	DD	00H
	DD	01H
	DD	imagerel $ip2state$??_GException@Internal@Core@Math@Palmtree@@UEAAPEAXI@Z
	DD	020H
	DD	00H
	DD	04H
CONST	ENDS
;	COMDAT xdata
xdata	SEGMENT
$unwind$??_GException@Internal@Core@Math@Palmtree@@UEAAPEAXI@Z DD 041819H
	DD	093418H
	DD	07006520aH
	DD	imagerel __CxxFrameHandler3
	DD	imagerel $cppxdata$??_GException@Internal@Core@Math@Palmtree@@UEAAPEAXI@Z
xdata	ENDS
;	COMDAT xdata
xdata	SEGMENT
$ip2state$??1Exception@Internal@Core@Math@Palmtree@@UEAA@XZ DD imagerel ??1Exception@Internal@Core@Math@Palmtree@@UEAA@XZ
	DD	0ffffffffH
xdata	ENDS
;	COMDAT xdata
xdata	SEGMENT
$stateUnwindMap$??1Exception@Internal@Core@Math@Palmtree@@UEAA@XZ DD 0ffffffffH
	DD	imagerel ?dtor$0@?0???1Exception@Internal@Core@Math@Palmtree@@UEAA@XZ@4HA
xdata	ENDS
;	COMDAT CONST
CONST	SEGMENT
$cppxdata$??1Exception@Internal@Core@Math@Palmtree@@UEAA@XZ DD 019930522H
	DD	01H
	DD	imagerel $stateUnwindMap$??1Exception@Internal@Core@Math@Palmtree@@UEAA@XZ
	DD	00H
	DD	00H
	DD	01H
	DD	imagerel $ip2state$??1Exception@Internal@Core@Math@Palmtree@@UEAA@XZ
	DD	020H
	DD	00H
	DD	04H
CONST	ENDS
;	COMDAT xdata
xdata	SEGMENT
$unwind$??1Exception@Internal@Core@Math@Palmtree@@UEAA@XZ DD 011219H
	DD	06209H
	DD	imagerel __CxxFrameHandler3
	DD	imagerel $cppxdata$??1Exception@Internal@Core@Math@Palmtree@@UEAA@XZ
xdata	ENDS
;	COMDAT xdata
xdata	SEGMENT
$ip2state$??0Exception@Internal@Core@Math@Palmtree@@QEAA@AEBV01234@@Z DD imagerel ??0Exception@Internal@Core@Math@Palmtree@@QEAA@AEBV01234@@Z
	DD	0ffffffffH
	DD	imagerel ??0Exception@Internal@Core@Math@Palmtree@@QEAA@AEBV01234@@Z+37
	DD	00H
	DD	imagerel ??0Exception@Internal@Core@Math@Palmtree@@QEAA@AEBV01234@@Z+69
	DD	0ffffffffH
xdata	ENDS
;	COMDAT xdata
xdata	SEGMENT
$stateUnwindMap$??0Exception@Internal@Core@Math@Palmtree@@QEAA@AEBV01234@@Z DD 0ffffffffH
	DD	imagerel ?dtor$0@?0???0Exception@Internal@Core@Math@Palmtree@@QEAA@AEBV01234@@Z@4HA
xdata	ENDS
;	COMDAT CONST
CONST	SEGMENT
$cppxdata$??0Exception@Internal@Core@Math@Palmtree@@QEAA@AEBV01234@@Z DD 019930522H
	DD	01H
	DD	imagerel $stateUnwindMap$??0Exception@Internal@Core@Math@Palmtree@@QEAA@AEBV01234@@Z
	DD	00H
	DD	00H
	DD	03H
	DD	imagerel $ip2state$??0Exception@Internal@Core@Math@Palmtree@@QEAA@AEBV01234@@Z
	DD	00H
	DD	00H
	DD	04H
CONST	ENDS
;	COMDAT xdata
xdata	SEGMENT
$unwind$??0Exception@Internal@Core@Math@Palmtree@@QEAA@AEBV01234@@Z DD 011111H
	DD	02209H
	DD	imagerel __CxxFrameHandler3
	DD	imagerel $cppxdata$??0Exception@Internal@Core@Math@Palmtree@@QEAA@AEBV01234@@Z
xdata	ENDS
;	COMDAT xdata
xdata	SEGMENT
$ip2state$??0Exception@Internal@Core@Math@Palmtree@@IEAA@HPEB_W0@Z DD imagerel ??0Exception@Internal@Core@Math@Palmtree@@IEAA@HPEB_W0@Z
	DD	0ffffffffH
	DD	imagerel ??0Exception@Internal@Core@Math@Palmtree@@IEAA@HPEB_W0@Z+37
	DD	00H
	DD	imagerel ??0Exception@Internal@Core@Math@Palmtree@@IEAA@HPEB_W0@Z+58
	DD	0ffffffffH
xdata	ENDS
;	COMDAT xdata
xdata	SEGMENT
$stateUnwindMap$??0Exception@Internal@Core@Math@Palmtree@@IEAA@HPEB_W0@Z DD 0ffffffffH
	DD	imagerel ?dtor$0@?0???0Exception@Internal@Core@Math@Palmtree@@IEAA@HPEB_W0@Z@4HA
xdata	ENDS
;	COMDAT CONST
CONST	SEGMENT
$cppxdata$??0Exception@Internal@Core@Math@Palmtree@@IEAA@HPEB_W0@Z DD 019930522H
	DD	01H
	DD	imagerel $stateUnwindMap$??0Exception@Internal@Core@Math@Palmtree@@IEAA@HPEB_W0@Z
	DD	00H
	DD	00H
	DD	03H
	DD	imagerel $ip2state$??0Exception@Internal@Core@Math@Palmtree@@IEAA@HPEB_W0@Z
	DD	00H
	DD	00H
	DD	04H
CONST	ENDS
;	COMDAT xdata
xdata	SEGMENT
$unwind$??0Exception@Internal@Core@Math@Palmtree@@IEAA@HPEB_W0@Z DD 011111H
	DD	02209H
	DD	imagerel __CxxFrameHandler3
	DD	imagerel $cppxdata$??0Exception@Internal@Core@Math@Palmtree@@IEAA@HPEB_W0@Z
xdata	ENDS
;	COMDAT xdata
xdata	SEGMENT
$ip2state$??_Gexception@std@@UEAAPEAXI@Z DD imagerel ??_Gexception@std@@UEAAPEAXI@Z
	DD	0ffffffffH
xdata	ENDS
;	COMDAT CONST
CONST	SEGMENT
$cppxdata$??_Gexception@std@@UEAAPEAXI@Z DD 019930522H
	DD	00H
	DD	00H
	DD	00H
	DD	00H
	DD	01H
	DD	imagerel $ip2state$??_Gexception@std@@UEAAPEAXI@Z
	DD	020H
	DD	00H
	DD	04H
CONST	ENDS
;	COMDAT xdata
xdata	SEGMENT
$unwind$??_Gexception@std@@UEAAPEAXI@Z DD 041419H
	DD	083414H
	DD	070025206H
	DD	imagerel __CxxFrameHandler3
	DD	imagerel $cppxdata$??_Gexception@std@@UEAAPEAXI@Z
xdata	ENDS
;	COMDAT xdata
xdata	SEGMENT
$ip2state$??1exception@std@@UEAA@XZ DD imagerel ??1exception@std@@UEAA@XZ
	DD	0ffffffffH
xdata	ENDS
;	COMDAT CONST
CONST	SEGMENT
$cppxdata$??1exception@std@@UEAA@XZ DD 019930522H
	DD	00H
	DD	00H
	DD	00H
	DD	00H
	DD	01H
	DD	imagerel $ip2state$??1exception@std@@UEAA@XZ
	DD	020H
	DD	00H
	DD	04H
CONST	ENDS
;	COMDAT xdata
xdata	SEGMENT
$unwind$??1exception@std@@UEAA@XZ DD 010d19H
	DD	06204H
	DD	imagerel __CxxFrameHandler3
	DD	imagerel $cppxdata$??1exception@std@@UEAA@XZ
xdata	ENDS
; Function compile flags: /Ogtpy
; File z:\sources\lunor\repos\rougemeilland\palmtree.math.core.uint\palmtree.math.core.uint\pmc_add.cpp
; File z:\sources\lunor\repos\rougemeilland\palmtree.math.core.uint\palmtree.math.core.uint\pmc_inline_func.h
; File z:\sources\lunor\repos\rougemeilland\palmtree.math.core.uint\palmtree.math.core.uint\pmc_add.cpp
; File z:\sources\lunor\repos\rougemeilland\palmtree.math.core.uint\palmtree.math.core.uint\pmc_inline_func.h
; File z:\sources\lunor\repos\rougemeilland\palmtree.math.core.uint\palmtree.math.core.uint\pmc_add.cpp
; File z:\sources\lunor\repos\rougemeilland\palmtree.math.core.uint\palmtree.math.core.uint\pmc_inline_func.h
; File z:\sources\lunor\repos\rougemeilland\palmtree.math.core.uint\palmtree.math.core.uint\pmc_add.cpp
;	COMDAT ?PMC_Add_X_L_Imp@Internal@Core@Math@Palmtree@@YAPEAU__tag_NUMBER_HEADER@1234@PEAU51234@_K@Z
_TEXT	SEGMENT
root$1 = 56
u$ = 112
v$ = 120
?PMC_Add_X_L_Imp@Internal@Core@Math@Palmtree@@YAPEAU__tag_NUMBER_HEADER@1234@PEAU51234@_K@Z PROC ; Palmtree::Math::Core::Internal::PMC_Add_X_L_Imp, COMDAT

; 390  :     {

  00000	48 8b c4	 mov	 rax, rsp
  00003	57		 push	 rdi
  00004	48 83 ec 60	 sub	 rsp, 96			; 00000060H
  00008	48 c7 40 c8 fe
	ff ff ff	 mov	 QWORD PTR [rax-56], -2
  00010	48 89 58 08	 mov	 QWORD PTR [rax+8], rbx
  00014	48 89 68 10	 mov	 QWORD PTR [rax+16], rbp
  00018	48 89 70 18	 mov	 QWORD PTR [rax+24], rsi
  0001c	48 8b f2	 mov	 rsi, rdx
  0001f	48 8b e9	 mov	 rbp, rcx

; 391  :         if (u->IS_ZERO)

  00022	f6 41 08 01	 test	 BYTE PTR [rcx+8], 1
  00026	74 1e		 je	 SHORT $LN2@PMC_Add_X_

; 392  :         {
; 393  :             // u  0 
; 394  : 
; 395  :             if (v == 0)

  00028	48 85 d2	 test	 rdx, rdx
  0002b	75 0c		 jne	 SHORT $LN4@PMC_Add_X_

; 396  :             {
; 397  :                 // v  0 
; 398  : 
; 399  :                 // u  v  0  0 
; 400  :                 return (&number_zero);

  0002d	48 8d 05 00 00
	00 00		 lea	 rax, OFFSET FLAT:?number_zero@Internal@Core@Math@Palmtree@@3U__tag_NUMBER_HEADER@1234@A ; Palmtree::Math::Core::Internal::number_zero
  00034	e9 bd 00 00 00	 jmp	 $LN9@PMC_Add_X_
$LN4@PMC_Add_X_:

; 401  :             }
; 402  :             else
; 403  :             {
; 404  :                 // v  0 
; 405  : 
; 406  :                 //  v  NUMBER_HEADER 
; 407  :                 return (From_L_Imp(v));

  00039	48 8b ce	 mov	 rcx, rsi
  0003c	e8 00 00 00 00	 call	 ?From_L_Imp@Internal@Core@Math@Palmtree@@YAPEAU__tag_NUMBER_HEADER@1234@_K@Z ; Palmtree::Math::Core::Internal::From_L_Imp
  00041	e9 b0 00 00 00	 jmp	 $LN9@PMC_Add_X_
$LN2@PMC_Add_X_:

; 408  :             }
; 409  :         }
; 410  :         else
; 411  :         {
; 412  :             // u  0 
; 413  : 
; 414  :             if (v == 0)

  00046	48 85 f6	 test	 rsi, rsi
  00049	75 0a		 jne	 SHORT $LN6@PMC_Add_X_

; 415  :             {
; 416  :                 // v  0 
; 417  : 
; 418  :                 //  u  NUMBER_HEADER 
; 419  :                 return (DuplicateNumber(u));

  0004b	e8 00 00 00 00	 call	 ?DuplicateNumber@Internal@Core@Math@Palmtree@@YAPEAU__tag_NUMBER_HEADER@1234@PEAU51234@@Z ; Palmtree::Math::Core::Internal::DuplicateNumber
  00050	e9 a1 00 00 00	 jmp	 $LN9@PMC_Add_X_
$LN6@PMC_Add_X_:

; 420  :             }
; 421  :             else
; 422  :             {
; 423  :                 // u  v  0 
; 424  : 
; 425  :                 // u  v 
; 426  :                 if (__UNIT_TYPE_BIT_COUNT < sizeof(v) * 8)
; 427  :                 {
; 428  :                     // _UINT64_T  1 
; 429  : 
; 430  :                     __UNIT_TYPE u_bit_count = u->UNIT_BIT_COUNT;
; 431  :                     _UINT32_T v_hi;
; 432  :                     _UINT32_T v_lo = _FROMDWORDTOWORD(v, &v_hi);
; 433  :                     if (v_hi == 0)
; 434  :                     {
; 435  :                         // y  32bit 
; 436  : 
; 437  :                         ResourceHolderUINT root;
; 438  :                         __UNIT_TYPE v_bit_count = sizeof(v_lo) * 8 - _LZCNT_ALT_32(v_lo);
; 439  :                         __UNIT_TYPE w_bit_count = _MAXIMUM_UNIT(u_bit_count, v_bit_count) + 1;
; 440  :                         NUMBER_HEADER* w = root.AllocateNumber(w_bit_count);
; 441  :                         Add_X_1W(u->BLOCK, u->UNIT_WORD_COUNT, v_lo, w->BLOCK, w->BLOCK_COUNT);
; 442  :                         root.CheckNumber(w);
; 443  :                         CommitNumber(w);
; 444  :                         root.UnlinkNumber(w);
; 445  :                         return (w);
; 446  :                     }
; 447  :                     else
; 448  :                     {
; 449  :                         // y  32bit 
; 450  : 
; 451  :                         ResourceHolderUINT root;
; 452  :                         __UNIT_TYPE v_bit_count = sizeof(v) * 8 - _LZCNT_ALT_32(v_hi);
; 453  :                         __UNIT_TYPE w_bit_count = _MAXIMUM_UNIT(u_bit_count, v_bit_count) + 1;
; 454  :                         NUMBER_HEADER* w = root.AllocateNumber(w_bit_count);
; 455  :                         Add_X_2W(u->BLOCK, u->UNIT_WORD_COUNT, v_hi, v_lo, w->BLOCK, w->BLOCK_COUNT);
; 456  :                         root.CheckNumber(w);
; 457  :                         CommitNumber(w);
; 458  :                         root.UnlinkNumber(w);
; 459  :                         return (w);
; 460  :                     }
; 461  :                 }
; 462  :                 else
; 463  :                 {
; 464  :                     // _UINT64_T  1 
; 465  : 
; 466  :                     ResourceHolderUINT root;

  00055	48 8d 4c 24 38	 lea	 rcx, QWORD PTR root$1[rsp]
  0005a	e8 00 00 00 00	 call	 ??0ResourceHolderUINT@Internal@Core@Math@Palmtree@@QEAA@XZ ; Palmtree::Math::Core::Internal::ResourceHolderUINT::ResourceHolderUINT
  0005f	90		 npad	 1
; File z:\sources\lunor\repos\rougemeilland\palmtree.math.core.uint\palmtree.math.core.uint\pmc_inline_func.h

; 469  :             _BitScanReverse64(&pos, x);

  00060	48 0f bd c6	 bsr	 rax, rsi

; 470  : #elif defined(__GNUC__)
; 471  :             _UINT64_T pos;
; 472  :             __asm__("bsrq %1, %0" : "=r"(pos) : "rm"(x));
; 473  : #else
; 474  : #error unknown compiler
; 475  : #endif
; 476  : #else
; 477  : #error unknown platform
; 478  : #endif
; 479  :             return (sizeof(x) * 8 - 1 - pos);

  00064	b9 3f 00 00 00	 mov	 ecx, 63			; 0000003fH
  00069	2b c8		 sub	 ecx, eax
; File z:\sources\lunor\repos\rougemeilland\palmtree.math.core.uint\palmtree.math.core.uint\pmc_add.cpp

; 468  :                     __UNIT_TYPE v_bit_count = sizeof(v) * 8 - _LZCNT_ALT_UNIT((__UNIT_TYPE)v);

  0006b	48 63 c1	 movsxd	 rax, ecx
  0006e	ba 40 00 00 00	 mov	 edx, 64			; 00000040H
  00073	48 2b d0	 sub	 rdx, rax
; File z:\sources\lunor\repos\rougemeilland\palmtree.math.core.uint\palmtree.math.core.uint\pmc_inline_func.h

; 167  :             return (x >= y ? x : y);

  00076	48 39 55 20	 cmp	 QWORD PTR [rbp+32], rdx
  0007a	48 0f 43 55 20	 cmovae	 rdx, QWORD PTR [rbp+32]
; File z:\sources\lunor\repos\rougemeilland\palmtree.math.core.uint\palmtree.math.core.uint\pmc_add.cpp

; 469  :                     __UNIT_TYPE w_bit_count = _MAXIMUM_UNIT(u_bit_count, v_bit_count) + 1;

  0007f	48 ff c2	 inc	 rdx

; 470  :                     NUMBER_HEADER* w = root.AllocateNumber(w_bit_count);

  00082	48 8d 4c 24 38	 lea	 rcx, QWORD PTR root$1[rsp]
  00087	e8 00 00 00 00	 call	 ?AllocateNumber@ResourceHolderUINT@Internal@Core@Math@Palmtree@@QEAAPEAU__tag_NUMBER_HEADER@2345@_K@Z ; Palmtree::Math::Core::Internal::ResourceHolderUINT::AllocateNumber
  0008c	48 8b f8	 mov	 rdi, rax

; 471  :                     Add_X_1W(u->BLOCK, u->UNIT_WORD_COUNT, (__UNIT_TYPE)v, w->BLOCK, w->BLOCK_COUNT);

  0008f	48 8b 58 38	 mov	 rbx, QWORD PTR [rax+56]
  00093	4c 8b 48 40	 mov	 r9, QWORD PTR [rax+64]
  00097	4c 8b 45 18	 mov	 r8, QWORD PTR [rbp+24]
  0009b	48 8b 55 40	 mov	 rdx, QWORD PTR [rbp+64]

; 95   :         c = _ADD_UNIT(0, *u_ptr++, v, w_ptr++);

  0009f	4d 8b d9	 mov	 r11, r9
  000a2	49 83 c1 08	 add	 r9, 8
  000a6	4c 8b 12	 mov	 r10, QWORD PTR [rdx]
  000a9	48 83 c2 08	 add	 rdx, 8
; File z:\sources\lunor\repos\rougemeilland\palmtree.math.core.uint\palmtree.math.core.uint\pmc_inline_func.h

; 180  :             return (_addcarry_u64(carry, u, v, w));

  000ad	4c 03 d6	 add	 r10, rsi
  000b0	0f 92 c1	 setb	 cl
  000b3	4d 89 13	 mov	 QWORD PTR [r11], r10
; File z:\sources\lunor\repos\rougemeilland\palmtree.math.core.uint\palmtree.math.core.uint\pmc_add.cpp

; 96   :         --u_count;

  000b6	49 ff c8	 dec	 r8

; 97   :         --w_count;

  000b9	48 ff cb	 dec	 rbx

; 98   : 
; 99   :         // 
; 100  :         DoCarry(c, u_ptr, u_count, w_ptr, w_count);

  000bc	48 89 5c 24 20	 mov	 QWORD PTR [rsp+32], rbx
  000c1	e8 00 00 00 00	 call	 ?DoCarry@Internal@Core@Math@Palmtree@@YAXDPEA_K_K01@Z ; Palmtree::Math::Core::Internal::DoCarry

; 472  :                     root.CheckNumber(w);

  000c6	48 8b d7	 mov	 rdx, rdi
  000c9	48 8d 4c 24 38	 lea	 rcx, QWORD PTR root$1[rsp]
  000ce	e8 00 00 00 00	 call	 ?CheckNumber@ResourceHolderUINT@Internal@Core@Math@Palmtree@@QEAAXPEAU__tag_NUMBER_HEADER@2345@@Z ; Palmtree::Math::Core::Internal::ResourceHolderUINT::CheckNumber

; 473  :                     CommitNumber(w);

  000d3	48 8b cf	 mov	 rcx, rdi
  000d6	e8 00 00 00 00	 call	 ?CommitNumber@Internal@Core@Math@Palmtree@@YAXPEAU__tag_NUMBER_HEADER@1234@@Z ; Palmtree::Math::Core::Internal::CommitNumber

; 474  :                     root.UnlinkNumber(w);

  000db	48 8b d7	 mov	 rdx, rdi
  000de	48 8d 4c 24 38	 lea	 rcx, QWORD PTR root$1[rsp]
  000e3	e8 00 00 00 00	 call	 ?UnlinkNumber@ResourceHolderUINT@Internal@Core@Math@Palmtree@@QEAAXPEAU__tag_NUMBER_HEADER@2345@@Z ; Palmtree::Math::Core::Internal::ResourceHolderUINT::UnlinkNumber
  000e8	90		 npad	 1

; 475  :                     return (w);

  000e9	48 8d 4c 24 38	 lea	 rcx, QWORD PTR root$1[rsp]
  000ee	e8 00 00 00 00	 call	 ??1ResourceHolderUINT@Internal@Core@Math@Palmtree@@UEAA@XZ ; Palmtree::Math::Core::Internal::ResourceHolderUINT::~ResourceHolderUINT
  000f3	48 8b c7	 mov	 rax, rdi
$LN9@PMC_Add_X_:

; 476  :                 }
; 477  :             }
; 478  :         }
; 479  :     }

  000f6	48 8b 5c 24 70	 mov	 rbx, QWORD PTR [rsp+112]
  000fb	48 8b 6c 24 78	 mov	 rbp, QWORD PTR [rsp+120]
  00100	48 8b b4 24 80
	00 00 00	 mov	 rsi, QWORD PTR [rsp+128]
  00108	48 83 c4 60	 add	 rsp, 96			; 00000060H
  0010c	5f		 pop	 rdi
  0010d	c3		 ret	 0
?PMC_Add_X_L_Imp@Internal@Core@Math@Palmtree@@YAPEAU__tag_NUMBER_HEADER@1234@PEAU51234@_K@Z ENDP ; Palmtree::Math::Core::Internal::PMC_Add_X_L_Imp
_TEXT	ENDS
;	COMDAT text$x
text$x	SEGMENT
root$1 = 56
u$ = 112
v$ = 120
?dtor$2@?0??PMC_Add_X_L_Imp@Internal@Core@Math@Palmtree@@YAPEAU__tag_NUMBER_HEADER@1234@PEAU51234@_K@Z@4HA PROC ; `Palmtree::Math::Core::Internal::PMC_Add_X_L_Imp'::`1'::dtor$2
  00000	48 8d 8a 38 00
	00 00		 lea	 rcx, QWORD PTR root$1[rdx]
  00007	e9 00 00 00 00	 jmp	 ??1ResourceHolderUINT@Internal@Core@Math@Palmtree@@UEAA@XZ ; Palmtree::Math::Core::Internal::ResourceHolderUINT::~ResourceHolderUINT
?dtor$2@?0??PMC_Add_X_L_Imp@Internal@Core@Math@Palmtree@@YAPEAU__tag_NUMBER_HEADER@1234@PEAU51234@_K@Z@4HA ENDP ; `Palmtree::Math::Core::Internal::PMC_Add_X_L_Imp'::`1'::dtor$2
text$x	ENDS
; Function compile flags: /Ogtpy
;	COMDAT text$x
text$x	SEGMENT
root$1 = 56
u$ = 112
v$ = 120
?dtor$2@?0??PMC_Add_X_L_Imp@Internal@Core@Math@Palmtree@@YAPEAU__tag_NUMBER_HEADER@1234@PEAU51234@_K@Z@4HA PROC ; `Palmtree::Math::Core::Internal::PMC_Add_X_L_Imp'::`1'::dtor$2
  00000	48 8d 8a 38 00
	00 00		 lea	 rcx, QWORD PTR root$1[rdx]
  00007	e9 00 00 00 00	 jmp	 ??1ResourceHolderUINT@Internal@Core@Math@Palmtree@@UEAA@XZ ; Palmtree::Math::Core::Internal::ResourceHolderUINT::~ResourceHolderUINT
?dtor$2@?0??PMC_Add_X_L_Imp@Internal@Core@Math@Palmtree@@YAPEAU__tag_NUMBER_HEADER@1234@PEAU51234@_K@Z@4HA ENDP ; `Palmtree::Math::Core::Internal::PMC_Add_X_L_Imp'::`1'::dtor$2
text$x	ENDS
; Function compile flags: /Ogtpy
; File z:\sources\lunor\repos\rougemeilland\palmtree.math.core.uint\palmtree.math.core.uint\pmc_add.cpp
; File z:\sources\lunor\repos\rougemeilland\palmtree.math.core.uint\palmtree.math.core.uint\pmc_inline_func.h
; File z:\sources\lunor\repos\rougemeilland\palmtree.math.core.uint\palmtree.math.core.uint\pmc_add.cpp
; File z:\sources\lunor\repos\rougemeilland\palmtree.math.core.uint\palmtree.math.core.uint\pmc_inline_func.h
; File z:\sources\lunor\repos\rougemeilland\palmtree.math.core.uint\palmtree.math.core.uint\pmc_add.cpp
; File z:\sources\lunor\repos\rougemeilland\palmtree.math.core.uint\palmtree.math.core.uint\pmc_inline_func.h
; File z:\sources\lunor\repos\rougemeilland\palmtree.math.core.uint\palmtree.math.core.uint\pmc_add.cpp
;	COMDAT ?PMC_Add_X_I_Imp@Internal@Core@Math@Palmtree@@YAPEAU__tag_NUMBER_HEADER@1234@PEAU51234@I@Z
_TEXT	SEGMENT
root$1 = 56
nu$ = 112
v$ = 120
?PMC_Add_X_I_Imp@Internal@Core@Math@Palmtree@@YAPEAU__tag_NUMBER_HEADER@1234@PEAU51234@I@Z PROC ; Palmtree::Math::Core::Internal::PMC_Add_X_I_Imp, COMDAT

; 299  :     {

  00000	48 8b c4	 mov	 rax, rsp
  00003	57		 push	 rdi
  00004	48 83 ec 60	 sub	 rsp, 96			; 00000060H
  00008	48 c7 40 c8 fe
	ff ff ff	 mov	 QWORD PTR [rax-56], -2
  00010	48 89 58 08	 mov	 QWORD PTR [rax+8], rbx
  00014	48 89 68 10	 mov	 QWORD PTR [rax+16], rbp
  00018	48 89 70 18	 mov	 QWORD PTR [rax+24], rsi
  0001c	8b f2		 mov	 esi, edx
  0001e	48 8b e9	 mov	 rbp, rcx

; 300  :         if (nu->IS_ZERO)

  00021	f6 41 08 01	 test	 BYTE PTR [rcx+8], 1
  00025	74 1c		 je	 SHORT $LN2@PMC_Add_X_

; 301  :         {
; 302  :             // x  0 
; 303  : 
; 304  :             if (v == 0)

  00027	85 d2		 test	 edx, edx
  00029	75 0c		 jne	 SHORT $LN4@PMC_Add_X_

; 305  :             {
; 306  :                 // y  0 
; 307  : 
; 308  :                 // x  y  0  0 
; 309  :                 return (&number_zero);

  0002b	48 8d 05 00 00
	00 00		 lea	 rax, OFFSET FLAT:?number_zero@Internal@Core@Math@Palmtree@@3U__tag_NUMBER_HEADER@1234@A ; Palmtree::Math::Core::Internal::number_zero
  00032	e9 ba 00 00 00	 jmp	 $LN7@PMC_Add_X_
$LN4@PMC_Add_X_:

; 310  :             }
; 311  :             else
; 312  :             {
; 313  :                 // y  0 
; 314  : 
; 315  :                 //  y  NUMBER_HEADER 
; 316  :                 return (From_I_Imp(v));

  00037	8b ce		 mov	 ecx, esi
  00039	e8 00 00 00 00	 call	 ?From_I_Imp@Internal@Core@Math@Palmtree@@YAPEAU__tag_NUMBER_HEADER@1234@I@Z ; Palmtree::Math::Core::Internal::From_I_Imp
  0003e	e9 ae 00 00 00	 jmp	 $LN7@PMC_Add_X_
$LN2@PMC_Add_X_:

; 317  :             }
; 318  :         }
; 319  :         else
; 320  :         {
; 321  :             // x  0 
; 322  : 
; 323  :             if (v == 0)

  00043	85 d2		 test	 edx, edx
  00045	75 0a		 jne	 SHORT $LN6@PMC_Add_X_

; 324  :             {
; 325  :                 // y  0 
; 326  : 
; 327  :                 //  x  NUMBER_HEADER 
; 328  :                 return (DuplicateNumber(nu));

  00047	e8 00 00 00 00	 call	 ?DuplicateNumber@Internal@Core@Math@Palmtree@@YAPEAU__tag_NUMBER_HEADER@1234@PEAU51234@@Z ; Palmtree::Math::Core::Internal::DuplicateNumber
  0004c	e9 a0 00 00 00	 jmp	 $LN7@PMC_Add_X_
$LN6@PMC_Add_X_:

; 329  :             }
; 330  :             else
; 331  :             {
; 332  :                 // x  y  0 
; 333  : 
; 334  :                 // x  y 
; 335  :                 ResourceHolderUINT root;

  00051	48 8d 4c 24 38	 lea	 rcx, QWORD PTR root$1[rsp]
  00056	e8 00 00 00 00	 call	 ??0ResourceHolderUINT@Internal@Core@Math@Palmtree@@QEAA@XZ ; Palmtree::Math::Core::Internal::ResourceHolderUINT::ResourceHolderUINT
  0005b	90		 npad	 1
; File z:\sources\lunor\repos\rougemeilland\palmtree.math.core.uint\palmtree.math.core.uint\pmc_inline_func.h

; 426  :             _BitScanReverse(&pos, x);

  0005c	0f bd c6	 bsr	 eax, esi

; 427  : #elif defined(__GNUC__)
; 428  :             __asm__("bsrl %1, %0" : "=r"(pos) : "rm"(x));
; 429  : #else
; 430  : #error unknown compiler
; 431  : #endif
; 432  :             return (sizeof(x) * 8 - 1 - pos);

  0005f	b9 1f 00 00 00	 mov	 ecx, 31
  00064	2b c8		 sub	 ecx, eax
; File z:\sources\lunor\repos\rougemeilland\palmtree.math.core.uint\palmtree.math.core.uint\pmc_add.cpp

; 337  :                 __UNIT_TYPE v_bit_count = sizeof(v) * 8 - _LZCNT_ALT_32(v);

  00066	48 63 c1	 movsxd	 rax, ecx
  00069	ba 20 00 00 00	 mov	 edx, 32			; 00000020H
  0006e	48 2b d0	 sub	 rdx, rax
; File z:\sources\lunor\repos\rougemeilland\palmtree.math.core.uint\palmtree.math.core.uint\pmc_inline_func.h

; 167  :             return (x >= y ? x : y);

  00071	48 39 55 20	 cmp	 QWORD PTR [rbp+32], rdx
  00075	48 0f 43 55 20	 cmovae	 rdx, QWORD PTR [rbp+32]
; File z:\sources\lunor\repos\rougemeilland\palmtree.math.core.uint\palmtree.math.core.uint\pmc_add.cpp

; 338  :                 __UNIT_TYPE w_bit_count = _MAXIMUM_UNIT(u_bit_count, v_bit_count) + 1;

  0007a	48 ff c2	 inc	 rdx

; 339  :                 NUMBER_HEADER* nw = root.AllocateNumber(w_bit_count);

  0007d	48 8d 4c 24 38	 lea	 rcx, QWORD PTR root$1[rsp]
  00082	e8 00 00 00 00	 call	 ?AllocateNumber@ResourceHolderUINT@Internal@Core@Math@Palmtree@@QEAAPEAU__tag_NUMBER_HEADER@2345@_K@Z ; Palmtree::Math::Core::Internal::ResourceHolderUINT::AllocateNumber
  00087	48 8b f8	 mov	 rdi, rax

; 340  :                 Add_X_1W(nu->BLOCK, nu->UNIT_WORD_COUNT, v, nw->BLOCK, nw->BLOCK_COUNT);

  0008a	48 8b 58 38	 mov	 rbx, QWORD PTR [rax+56]
  0008e	4c 8b 48 40	 mov	 r9, QWORD PTR [rax+64]
  00092	4c 8b 45 18	 mov	 r8, QWORD PTR [rbp+24]
  00096	48 8b 55 40	 mov	 rdx, QWORD PTR [rbp+64]

; 95   :         c = _ADD_UNIT(0, *u_ptr++, v, w_ptr++);

  0009a	4d 8b d9	 mov	 r11, r9
  0009d	49 83 c1 08	 add	 r9, 8
  000a1	4c 8b 12	 mov	 r10, QWORD PTR [rdx]
  000a4	48 83 c2 08	 add	 rdx, 8
; File z:\sources\lunor\repos\rougemeilland\palmtree.math.core.uint\palmtree.math.core.uint\pmc_inline_func.h

; 180  :             return (_addcarry_u64(carry, u, v, w));

  000a8	4c 03 d6	 add	 r10, rsi
  000ab	0f 92 c1	 setb	 cl
  000ae	4d 89 13	 mov	 QWORD PTR [r11], r10
; File z:\sources\lunor\repos\rougemeilland\palmtree.math.core.uint\palmtree.math.core.uint\pmc_add.cpp

; 96   :         --u_count;

  000b1	49 ff c8	 dec	 r8

; 97   :         --w_count;

  000b4	48 ff cb	 dec	 rbx

; 98   : 
; 99   :         // 
; 100  :         DoCarry(c, u_ptr, u_count, w_ptr, w_count);

  000b7	48 89 5c 24 20	 mov	 QWORD PTR [rsp+32], rbx
  000bc	e8 00 00 00 00	 call	 ?DoCarry@Internal@Core@Math@Palmtree@@YAXDPEA_K_K01@Z ; Palmtree::Math::Core::Internal::DoCarry

; 341  :                 root.CheckNumber(nw);

  000c1	48 8b d7	 mov	 rdx, rdi
  000c4	48 8d 4c 24 38	 lea	 rcx, QWORD PTR root$1[rsp]
  000c9	e8 00 00 00 00	 call	 ?CheckNumber@ResourceHolderUINT@Internal@Core@Math@Palmtree@@QEAAXPEAU__tag_NUMBER_HEADER@2345@@Z ; Palmtree::Math::Core::Internal::ResourceHolderUINT::CheckNumber

; 342  :                 CommitNumber(nw);

  000ce	48 8b cf	 mov	 rcx, rdi
  000d1	e8 00 00 00 00	 call	 ?CommitNumber@Internal@Core@Math@Palmtree@@YAXPEAU__tag_NUMBER_HEADER@1234@@Z ; Palmtree::Math::Core::Internal::CommitNumber

; 343  :                 root.UnlinkNumber(nw);

  000d6	48 8b d7	 mov	 rdx, rdi
  000d9	48 8d 4c 24 38	 lea	 rcx, QWORD PTR root$1[rsp]
  000de	e8 00 00 00 00	 call	 ?UnlinkNumber@ResourceHolderUINT@Internal@Core@Math@Palmtree@@QEAAXPEAU__tag_NUMBER_HEADER@2345@@Z ; Palmtree::Math::Core::Internal::ResourceHolderUINT::UnlinkNumber
  000e3	90		 npad	 1

; 344  :                 return (nw);

  000e4	48 8d 4c 24 38	 lea	 rcx, QWORD PTR root$1[rsp]
  000e9	e8 00 00 00 00	 call	 ??1ResourceHolderUINT@Internal@Core@Math@Palmtree@@UEAA@XZ ; Palmtree::Math::Core::Internal::ResourceHolderUINT::~ResourceHolderUINT
  000ee	48 8b c7	 mov	 rax, rdi
$LN7@PMC_Add_X_:

; 345  :             }
; 346  :         }
; 347  :     }

  000f1	48 8b 5c 24 70	 mov	 rbx, QWORD PTR [rsp+112]
  000f6	48 8b 6c 24 78	 mov	 rbp, QWORD PTR [rsp+120]
  000fb	48 8b b4 24 80
	00 00 00	 mov	 rsi, QWORD PTR [rsp+128]
  00103	48 83 c4 60	 add	 rsp, 96			; 00000060H
  00107	5f		 pop	 rdi
  00108	c3		 ret	 0
?PMC_Add_X_I_Imp@Internal@Core@Math@Palmtree@@YAPEAU__tag_NUMBER_HEADER@1234@PEAU51234@I@Z ENDP ; Palmtree::Math::Core::Internal::PMC_Add_X_I_Imp
_TEXT	ENDS
;	COMDAT text$x
text$x	SEGMENT
root$1 = 56
nu$ = 112
v$ = 120
?dtor$0@?0??PMC_Add_X_I_Imp@Internal@Core@Math@Palmtree@@YAPEAU__tag_NUMBER_HEADER@1234@PEAU51234@I@Z@4HA PROC ; `Palmtree::Math::Core::Internal::PMC_Add_X_I_Imp'::`1'::dtor$0
  00000	48 8d 8a 38 00
	00 00		 lea	 rcx, QWORD PTR root$1[rdx]
  00007	e9 00 00 00 00	 jmp	 ??1ResourceHolderUINT@Internal@Core@Math@Palmtree@@UEAA@XZ ; Palmtree::Math::Core::Internal::ResourceHolderUINT::~ResourceHolderUINT
?dtor$0@?0??PMC_Add_X_I_Imp@Internal@Core@Math@Palmtree@@YAPEAU__tag_NUMBER_HEADER@1234@PEAU51234@I@Z@4HA ENDP ; `Palmtree::Math::Core::Internal::PMC_Add_X_I_Imp'::`1'::dtor$0
text$x	ENDS
; Function compile flags: /Ogtpy
;	COMDAT text$x
text$x	SEGMENT
root$1 = 56
nu$ = 112
v$ = 120
?dtor$0@?0??PMC_Add_X_I_Imp@Internal@Core@Math@Palmtree@@YAPEAU__tag_NUMBER_HEADER@1234@PEAU51234@I@Z@4HA PROC ; `Palmtree::Math::Core::Internal::PMC_Add_X_I_Imp'::`1'::dtor$0
  00000	48 8d 8a 38 00
	00 00		 lea	 rcx, QWORD PTR root$1[rdx]
  00007	e9 00 00 00 00	 jmp	 ??1ResourceHolderUINT@Internal@Core@Math@Palmtree@@UEAA@XZ ; Palmtree::Math::Core::Internal::ResourceHolderUINT::~ResourceHolderUINT
?dtor$0@?0??PMC_Add_X_I_Imp@Internal@Core@Math@Palmtree@@YAPEAU__tag_NUMBER_HEADER@1234@PEAU51234@I@Z@4HA ENDP ; `Palmtree::Math::Core::Internal::PMC_Add_X_I_Imp'::`1'::dtor$0
text$x	ENDS
; Function compile flags: /Ogtpy
; File z:\sources\lunor\repos\rougemeilland\palmtree.math.core.uint\palmtree.math.core.uint\pmc_add.cpp
; File z:\sources\lunor\repos\rougemeilland\palmtree.math.core.uint\palmtree.math.core.uint\autogenerated_inline_func.h
; File z:\sources\lunor\repos\rougemeilland\palmtree.math.core.uint\palmtree.math.core.uint\pmc_inline_func.h
; File z:\sources\lunor\repos\rougemeilland\palmtree.math.core.uint\palmtree.math.core.uint\autogenerated_inline_func.h
; File z:\sources\lunor\repos\rougemeilland\palmtree.math.core.uint\palmtree.math.core.uint\pmc_inline_func.h
; File z:\sources\lunor\repos\rougemeilland\palmtree.math.core.uint\palmtree.math.core.uint\autogenerated_inline_func.h
; File z:\sources\lunor\repos\rougemeilland\palmtree.math.core.uint\palmtree.math.core.uint\pmc_inline_func.h
; File z:\sources\lunor\repos\rougemeilland\palmtree.math.core.uint\palmtree.math.core.uint\autogenerated_inline_func.h
; File z:\sources\lunor\repos\rougemeilland\palmtree.math.core.uint\palmtree.math.core.uint\pmc_inline_func.h
; File z:\sources\lunor\repos\rougemeilland\palmtree.math.core.uint\palmtree.math.core.uint\autogenerated_inline_func.h
; File z:\sources\lunor\repos\rougemeilland\palmtree.math.core.uint\palmtree.math.core.uint\pmc_inline_func.h
; File z:\sources\lunor\repos\rougemeilland\palmtree.math.core.uint\palmtree.math.core.uint\autogenerated_inline_func.h
; File z:\sources\lunor\repos\rougemeilland\palmtree.math.core.uint\palmtree.math.core.uint\pmc_inline_func.h
; File z:\sources\lunor\repos\rougemeilland\palmtree.math.core.uint\palmtree.math.core.uint\autogenerated_inline_func.h
; File z:\sources\lunor\repos\rougemeilland\palmtree.math.core.uint\palmtree.math.core.uint\pmc_inline_func.h
; File z:\sources\lunor\repos\rougemeilland\palmtree.math.core.uint\palmtree.math.core.uint\autogenerated_inline_func.h
; File z:\sources\lunor\repos\rougemeilland\palmtree.math.core.uint\palmtree.math.core.uint\pmc_inline_func.h
; File z:\sources\lunor\repos\rougemeilland\palmtree.math.core.uint\palmtree.math.core.uint\pmc_add.cpp
; File z:\sources\lunor\repos\rougemeilland\palmtree.math.core.uint\palmtree.math.core.uint\autogenerated_inline_func.h
; File z:\sources\lunor\repos\rougemeilland\palmtree.math.core.uint\palmtree.math.core.uint\pmc_inline_func.h
; File z:\sources\lunor\repos\rougemeilland\palmtree.math.core.uint\palmtree.math.core.uint\autogenerated_inline_func.h
; File z:\sources\lunor\repos\rougemeilland\palmtree.math.core.uint\palmtree.math.core.uint\pmc_inline_func.h
; File z:\sources\lunor\repos\rougemeilland\palmtree.math.core.uint\palmtree.math.core.uint\autogenerated_inline_func.h
; File z:\sources\lunor\repos\rougemeilland\palmtree.math.core.uint\palmtree.math.core.uint\pmc_inline_func.h
; File z:\sources\lunor\repos\rougemeilland\palmtree.math.core.uint\palmtree.math.core.uint\autogenerated_inline_func.h
; File z:\sources\lunor\repos\rougemeilland\palmtree.math.core.uint\palmtree.math.core.uint\pmc_inline_func.h
; File z:\sources\lunor\repos\rougemeilland\palmtree.math.core.uint\palmtree.math.core.uint\pmc_add.cpp
; File z:\sources\lunor\repos\rougemeilland\palmtree.math.core.uint\palmtree.math.core.uint\autogenerated_inline_func.h
; File z:\sources\lunor\repos\rougemeilland\palmtree.math.core.uint\palmtree.math.core.uint\pmc_inline_func.h
; File z:\sources\lunor\repos\rougemeilland\palmtree.math.core.uint\palmtree.math.core.uint\autogenerated_inline_func.h
; File z:\sources\lunor\repos\rougemeilland\palmtree.math.core.uint\palmtree.math.core.uint\pmc_inline_func.h
; File z:\sources\lunor\repos\rougemeilland\palmtree.math.core.uint\palmtree.math.core.uint\pmc_add.cpp
; File z:\sources\lunor\repos\rougemeilland\palmtree.math.core.uint\palmtree.math.core.uint\pmc_inline_func.h
; File z:\sources\lunor\repos\rougemeilland\palmtree.math.core.uint\palmtree.math.core.uint\pmc_add.cpp
;	COMDAT ?Add_Imp_using_ADCX@Internal@Core@Math@Palmtree@@YAXPEA_K_K0101@Z
_TEXT	SEGMENT
u_buf$ = 64
u_count$ = 72
v_buf$ = 80
v_count$ = 88
w_buf$ = 96
w_count$ = 104
?Add_Imp_using_ADCX@Internal@Core@Math@Palmtree@@YAXPEA_K_K0101@Z PROC ; Palmtree::Math::Core::Internal::Add_Imp_using_ADCX, COMDAT

; 222  :     {

  00000	48 89 5c 24 08	 mov	 QWORD PTR [rsp+8], rbx
  00005	48 89 74 24 10	 mov	 QWORD PTR [rsp+16], rsi
  0000a	57		 push	 rdi
  0000b	48 83 ec 30	 sub	 rsp, 48			; 00000030H

; 223  :         // x  y 
; 224  :         if (u_count < v_count)
; 225  :         {
; 226  :             __UNIT_TYPE* t_buf = u_buf;
; 227  :             u_buf = v_buf;
; 228  :             v_buf = t_buf;
; 229  :             __UNIT_TYPE t_count = u_count;
; 230  :             u_count = v_count;
; 231  :             v_count = t_count;
; 232  :         }
; 233  :         __UNIT_TYPE* up = u_buf;

  0000f	49 3b d1	 cmp	 rdx, r9
  00012	48 8b fa	 mov	 rdi, rdx
  00015	49 8b f1	 mov	 rsi, r9
  00018	4c 8b d1	 mov	 r10, rcx
  0001b	49 0f 43 f9	 cmovae	 rdi, r9
  0001f	48 0f 43 f2	 cmovae	 rsi, rdx

; 234  :         __UNIT_TYPE* vp = v_buf;
; 235  :         __UNIT_TYPE* wp = w_buf;

  00023	4c 8b 4c 24 60	 mov	 r9, QWORD PTR w_buf$[rsp]
  00028	4d 0f 43 d0	 cmovae	 r10, r8
  0002c	49 8b d0	 mov	 rdx, r8

; 236  :         char c = 0;
; 237  : 
; 238  :         //  32 
; 239  :         __UNIT_TYPE count = v_count >> 5;

  0002f	48 8b df	 mov	 rbx, rdi
  00032	48 0f 43 d1	 cmovae	 rdx, rcx
  00036	45 32 db	 xor	 r11b, r11b
  00039	48 c1 eb 05	 shr	 rbx, 5

; 240  :         while (count != 0)

  0003d	48 85 db	 test	 rbx, rbx
  00040	74 2b		 je	 SHORT $LN3@Add_Imp_us
$LL2@Add_Imp_us:

; 241  :         {
; 242  :             c = _ADD_32WORDS_ADCX(c, up, vp, wp);

  00042	4d 8b c2	 mov	 r8, r10
  00045	41 0f b6 cb	 movzx	 ecx, r11b
  00049	e8 00 00 00 00	 call	 _ADD_32WORDS_ADCX

; 243  :             up += 32;

  0004e	48 81 c2 00 01
	00 00		 add	 rdx, 256		; 00000100H

; 244  :             vp += 32;

  00055	49 81 c2 00 01
	00 00		 add	 r10, 256		; 00000100H

; 245  :             wp += 32;

  0005c	49 81 c1 00 01
	00 00		 add	 r9, 256			; 00000100H
  00063	44 0f b6 d8	 movzx	 r11d, al

; 246  :             --count;

  00067	48 83 eb 01	 sub	 rbx, 1
  0006b	75 d5		 jne	 SHORT $LL2@Add_Imp_us
$LN3@Add_Imp_us:

; 247  :         }
; 248  :         //  32 
; 249  : 
; 250  :         //  16  16 
; 251  :         if (v_count & 0x10)

  0006d	40 f6 c7 10	 test	 dil, 16
  00071	74 1c		 je	 SHORT $LN5@Add_Imp_us

; 252  :         {
; 253  :             c = _ADD_16WORDS_ADCX(c, up, vp, wp);

  00073	4d 8b c2	 mov	 r8, r10
  00076	41 0f b6 cb	 movzx	 ecx, r11b
  0007a	e8 00 00 00 00	 call	 _ADD_16WORDS_ADCX

; 254  :             up += 16;

  0007f	48 83 ea 80	 sub	 rdx, -128		; ffffffffffffff80H

; 255  :             vp += 16;

  00083	49 83 ea 80	 sub	 r10, -128		; ffffffffffffff80H

; 256  :             wp += 16;

  00087	49 83 e9 80	 sub	 r9, -128		; ffffffffffffff80H
  0008b	44 0f b6 d8	 movzx	 r11d, al
$LN5@Add_Imp_us:

; 257  :         }
; 258  :         //  16 
; 259  : 
; 260  :         //  8  8 
; 261  :         if (v_count & 0x8)

  0008f	40 f6 c7 08	 test	 dil, 8
  00093	0f 84 89 00 00
	00		 je	 $LN6@Add_Imp_us
; File z:\sources\lunor\repos\rougemeilland\palmtree.math.core.uint\palmtree.math.core.uint\autogenerated_inline_func.h

; 1704 :     c = _ADDX_UNIT(c, xp[0], yp[0], &zp[0]);

  00099	48 8b 02	 mov	 rax, QWORD PTR [rdx]
; File z:\sources\lunor\repos\rougemeilland\palmtree.math.core.uint\palmtree.math.core.uint\pmc_inline_func.h

; 191  :             return (_addcarryx_u64(carry, u, v, w));

  0009c	41 80 c3 ff	 add	 r11b, -1
  000a0	66 49 0f 38 f6
	02		 adcx	 rax, QWORD PTR [r10]
  000a6	49 89 01	 mov	 QWORD PTR [r9], rax
; File z:\sources\lunor\repos\rougemeilland\palmtree.math.core.uint\palmtree.math.core.uint\autogenerated_inline_func.h

; 1705 :     c = _ADDX_UNIT(c, xp[1], yp[1], &zp[1]);

  000a9	48 8b 42 08	 mov	 rax, QWORD PTR [rdx+8]
; File z:\sources\lunor\repos\rougemeilland\palmtree.math.core.uint\palmtree.math.core.uint\pmc_inline_func.h

; 191  :             return (_addcarryx_u64(carry, u, v, w));

  000ad	66 49 0f 38 f6
	42 08		 adcx	 rax, QWORD PTR [r10+8]
  000b4	49 89 41 08	 mov	 QWORD PTR [r9+8], rax
; File z:\sources\lunor\repos\rougemeilland\palmtree.math.core.uint\palmtree.math.core.uint\autogenerated_inline_func.h

; 1706 :     c = _ADDX_UNIT(c, xp[2], yp[2], &zp[2]);

  000b8	48 8b 42 10	 mov	 rax, QWORD PTR [rdx+16]
; File z:\sources\lunor\repos\rougemeilland\palmtree.math.core.uint\palmtree.math.core.uint\pmc_inline_func.h

; 191  :             return (_addcarryx_u64(carry, u, v, w));

  000bc	66 49 0f 38 f6
	42 10		 adcx	 rax, QWORD PTR [r10+16]
  000c3	49 89 41 10	 mov	 QWORD PTR [r9+16], rax
; File z:\sources\lunor\repos\rougemeilland\palmtree.math.core.uint\palmtree.math.core.uint\autogenerated_inline_func.h

; 1707 :     c = _ADDX_UNIT(c, xp[3], yp[3], &zp[3]);

  000c7	48 8b 42 18	 mov	 rax, QWORD PTR [rdx+24]
; File z:\sources\lunor\repos\rougemeilland\palmtree.math.core.uint\palmtree.math.core.uint\pmc_inline_func.h

; 191  :             return (_addcarryx_u64(carry, u, v, w));

  000cb	66 49 0f 38 f6
	42 18		 adcx	 rax, QWORD PTR [r10+24]
  000d2	49 89 41 18	 mov	 QWORD PTR [r9+24], rax
; File z:\sources\lunor\repos\rougemeilland\palmtree.math.core.uint\palmtree.math.core.uint\autogenerated_inline_func.h

; 1708 :     c = _ADDX_UNIT(c, xp[4], yp[4], &zp[4]);

  000d6	48 8b 42 20	 mov	 rax, QWORD PTR [rdx+32]
; File z:\sources\lunor\repos\rougemeilland\palmtree.math.core.uint\palmtree.math.core.uint\pmc_inline_func.h

; 191  :             return (_addcarryx_u64(carry, u, v, w));

  000da	66 49 0f 38 f6
	42 20		 adcx	 rax, QWORD PTR [r10+32]
  000e1	49 89 41 20	 mov	 QWORD PTR [r9+32], rax
; File z:\sources\lunor\repos\rougemeilland\palmtree.math.core.uint\palmtree.math.core.uint\autogenerated_inline_func.h

; 1709 :     c = _ADDX_UNIT(c, xp[5], yp[5], &zp[5]);

  000e5	48 8b 42 28	 mov	 rax, QWORD PTR [rdx+40]
; File z:\sources\lunor\repos\rougemeilland\palmtree.math.core.uint\palmtree.math.core.uint\pmc_inline_func.h

; 191  :             return (_addcarryx_u64(carry, u, v, w));

  000e9	66 49 0f 38 f6
	42 28		 adcx	 rax, QWORD PTR [r10+40]
  000f0	49 89 41 28	 mov	 QWORD PTR [r9+40], rax
; File z:\sources\lunor\repos\rougemeilland\palmtree.math.core.uint\palmtree.math.core.uint\autogenerated_inline_func.h

; 1710 :     c = _ADDX_UNIT(c, xp[6], yp[6], &zp[6]);

  000f4	48 8b 42 30	 mov	 rax, QWORD PTR [rdx+48]
; File z:\sources\lunor\repos\rougemeilland\palmtree.math.core.uint\palmtree.math.core.uint\pmc_inline_func.h

; 191  :             return (_addcarryx_u64(carry, u, v, w));

  000f8	66 49 0f 38 f6
	42 30		 adcx	 rax, QWORD PTR [r10+48]
  000ff	49 89 41 30	 mov	 QWORD PTR [r9+48], rax
; File z:\sources\lunor\repos\rougemeilland\palmtree.math.core.uint\palmtree.math.core.uint\autogenerated_inline_func.h

; 1711 :     c = _ADDX_UNIT(c, xp[7], yp[7], &zp[7]);

  00103	48 8b 42 38	 mov	 rax, QWORD PTR [rdx+56]
; File z:\sources\lunor\repos\rougemeilland\palmtree.math.core.uint\palmtree.math.core.uint\pmc_inline_func.h

; 191  :             return (_addcarryx_u64(carry, u, v, w));

  00107	66 49 0f 38 f6
	42 38		 adcx	 rax, QWORD PTR [r10+56]
  0010e	49 89 41 38	 mov	 QWORD PTR [r9+56], rax
  00112	41 0f 92 c3	 setb	 r11b
; File z:\sources\lunor\repos\rougemeilland\palmtree.math.core.uint\palmtree.math.core.uint\pmc_add.cpp

; 264  :             up += 8;

  00116	48 83 c2 40	 add	 rdx, 64			; 00000040H

; 265  :             vp += 8;

  0011a	49 83 c2 40	 add	 r10, 64			; 00000040H

; 266  :             wp += 8;

  0011e	49 83 c1 40	 add	 r9, 64			; 00000040H
$LN6@Add_Imp_us:

; 267  :         }
; 268  :         //  8 
; 269  : 
; 270  :         //  4  4 
; 271  :         if (v_count & 0x4)

  00122	40 f6 c7 04	 test	 dil, 4
  00126	74 4d		 je	 SHORT $LN7@Add_Imp_us
; File z:\sources\lunor\repos\rougemeilland\palmtree.math.core.uint\palmtree.math.core.uint\autogenerated_inline_func.h

; 2016 :     c = _ADDX_UNIT(c, xp[0], yp[0], &zp[0]);

  00128	48 8b 02	 mov	 rax, QWORD PTR [rdx]
; File z:\sources\lunor\repos\rougemeilland\palmtree.math.core.uint\palmtree.math.core.uint\pmc_inline_func.h

; 191  :             return (_addcarryx_u64(carry, u, v, w));

  0012b	41 80 c3 ff	 add	 r11b, -1
  0012f	66 49 0f 38 f6
	02		 adcx	 rax, QWORD PTR [r10]
  00135	49 89 01	 mov	 QWORD PTR [r9], rax
; File z:\sources\lunor\repos\rougemeilland\palmtree.math.core.uint\palmtree.math.core.uint\autogenerated_inline_func.h

; 2017 :     c = _ADDX_UNIT(c, xp[1], yp[1], &zp[1]);

  00138	48 8b 42 08	 mov	 rax, QWORD PTR [rdx+8]
; File z:\sources\lunor\repos\rougemeilland\palmtree.math.core.uint\palmtree.math.core.uint\pmc_inline_func.h

; 191  :             return (_addcarryx_u64(carry, u, v, w));

  0013c	66 49 0f 38 f6
	42 08		 adcx	 rax, QWORD PTR [r10+8]
  00143	49 89 41 08	 mov	 QWORD PTR [r9+8], rax
; File z:\sources\lunor\repos\rougemeilland\palmtree.math.core.uint\palmtree.math.core.uint\autogenerated_inline_func.h

; 2018 :     c = _ADDX_UNIT(c, xp[2], yp[2], &zp[2]);

  00147	48 8b 42 10	 mov	 rax, QWORD PTR [rdx+16]
; File z:\sources\lunor\repos\rougemeilland\palmtree.math.core.uint\palmtree.math.core.uint\pmc_inline_func.h

; 191  :             return (_addcarryx_u64(carry, u, v, w));

  0014b	66 49 0f 38 f6
	42 10		 adcx	 rax, QWORD PTR [r10+16]
  00152	49 89 41 10	 mov	 QWORD PTR [r9+16], rax
; File z:\sources\lunor\repos\rougemeilland\palmtree.math.core.uint\palmtree.math.core.uint\autogenerated_inline_func.h

; 2019 :     c = _ADDX_UNIT(c, xp[3], yp[3], &zp[3]);

  00156	48 8b 42 18	 mov	 rax, QWORD PTR [rdx+24]
; File z:\sources\lunor\repos\rougemeilland\palmtree.math.core.uint\palmtree.math.core.uint\pmc_inline_func.h

; 191  :             return (_addcarryx_u64(carry, u, v, w));

  0015a	66 49 0f 38 f6
	42 18		 adcx	 rax, QWORD PTR [r10+24]
  00161	49 89 41 18	 mov	 QWORD PTR [r9+24], rax
  00165	41 0f 92 c3	 setb	 r11b
; File z:\sources\lunor\repos\rougemeilland\palmtree.math.core.uint\palmtree.math.core.uint\pmc_add.cpp

; 274  :             up += 4;

  00169	48 83 c2 20	 add	 rdx, 32			; 00000020H

; 275  :             vp += 4;

  0016d	49 83 c2 20	 add	 r10, 32			; 00000020H

; 276  :             wp += 4;

  00171	49 83 c1 20	 add	 r9, 32			; 00000020H
$LN7@Add_Imp_us:

; 277  :         }
; 278  :         //  4 
; 279  : 
; 280  :         //  2  2 
; 281  :         if (v_count & 0x2)

  00175	40 f6 c7 02	 test	 dil, 2
  00179	74 2f		 je	 SHORT $LN8@Add_Imp_us
; File z:\sources\lunor\repos\rougemeilland\palmtree.math.core.uint\palmtree.math.core.uint\autogenerated_inline_func.h

; 2230 :     c = _ADDX_UNIT(c, xp[0], yp[0], &zp[0]);

  0017b	48 8b 02	 mov	 rax, QWORD PTR [rdx]
; File z:\sources\lunor\repos\rougemeilland\palmtree.math.core.uint\palmtree.math.core.uint\pmc_inline_func.h

; 191  :             return (_addcarryx_u64(carry, u, v, w));

  0017e	41 80 c3 ff	 add	 r11b, -1
  00182	66 49 0f 38 f6
	02		 adcx	 rax, QWORD PTR [r10]
  00188	49 89 01	 mov	 QWORD PTR [r9], rax
; File z:\sources\lunor\repos\rougemeilland\palmtree.math.core.uint\palmtree.math.core.uint\autogenerated_inline_func.h

; 2231 :     c = _ADDX_UNIT(c, xp[1], yp[1], &zp[1]);

  0018b	48 8b 42 08	 mov	 rax, QWORD PTR [rdx+8]
; File z:\sources\lunor\repos\rougemeilland\palmtree.math.core.uint\palmtree.math.core.uint\pmc_inline_func.h

; 191  :             return (_addcarryx_u64(carry, u, v, w));

  0018f	66 49 0f 38 f6
	42 08		 adcx	 rax, QWORD PTR [r10+8]
  00196	49 89 41 08	 mov	 QWORD PTR [r9+8], rax
  0019a	41 0f 92 c3	 setb	 r11b
; File z:\sources\lunor\repos\rougemeilland\palmtree.math.core.uint\palmtree.math.core.uint\pmc_add.cpp

; 284  :             up += 2;

  0019e	48 83 c2 10	 add	 rdx, 16

; 285  :             vp += 2;

  001a2	49 83 c2 10	 add	 r10, 16

; 286  :             wp += 2;

  001a6	49 83 c1 10	 add	 r9, 16
$LN8@Add_Imp_us:

; 287  :         }
; 288  :         //  2 
; 289  : 
; 290  :         //  1  1 
; 291  :         if (v_count & 0x1)

  001aa	40 f6 c7 01	 test	 dil, 1
  001ae	74 1f		 je	 SHORT $LN9@Add_Imp_us

; 292  :             c = _ADDX_UNIT(c, *up++, *vp++, wp++);

  001b0	48 8b 02	 mov	 rax, QWORD PTR [rdx]
  001b3	49 8b c9	 mov	 rcx, r9
  001b6	49 83 c1 08	 add	 r9, 8
  001ba	48 83 c2 08	 add	 rdx, 8
; File z:\sources\lunor\repos\rougemeilland\palmtree.math.core.uint\palmtree.math.core.uint\pmc_inline_func.h

; 191  :             return (_addcarryx_u64(carry, u, v, w));

  001be	41 80 c3 ff	 add	 r11b, -1
  001c2	66 49 0f 38 f6
	02		 adcx	 rax, QWORD PTR [r10]
  001c8	48 89 01	 mov	 QWORD PTR [rcx], rax
  001cb	41 0f 92 c3	 setb	 r11b
$LN9@Add_Imp_us:
; File z:\sources\lunor\repos\rougemeilland\palmtree.math.core.uint\palmtree.math.core.uint\pmc_add.cpp

; 295  :         DoCarry(c, up, u_count - v_count, wp, w_count - v_count);

  001cf	48 8b 44 24 68	 mov	 rax, QWORD PTR w_count$[rsp]
  001d4	48 2b f7	 sub	 rsi, rdi
  001d7	48 2b c7	 sub	 rax, rdi
  001da	4c 8b c6	 mov	 r8, rsi
  001dd	41 0f b6 cb	 movzx	 ecx, r11b
  001e1	48 89 44 24 60	 mov	 QWORD PTR w_buf$[rsp], rax

; 296  :     }

  001e6	48 8b 5c 24 40	 mov	 rbx, QWORD PTR [rsp+64]
  001eb	48 8b 74 24 48	 mov	 rsi, QWORD PTR [rsp+72]
  001f0	48 83 c4 30	 add	 rsp, 48			; 00000030H
  001f4	5f		 pop	 rdi

; 295  :         DoCarry(c, up, u_count - v_count, wp, w_count - v_count);

  001f5	e9 00 00 00 00	 jmp	 ?DoCarry@Internal@Core@Math@Palmtree@@YAXDPEA_K_K01@Z ; Palmtree::Math::Core::Internal::DoCarry
?Add_Imp_using_ADCX@Internal@Core@Math@Palmtree@@YAXPEA_K_K0101@Z ENDP ; Palmtree::Math::Core::Internal::Add_Imp_using_ADCX
_TEXT	ENDS
; Function compile flags: /Ogtpy
; File z:\sources\lunor\repos\rougemeilland\palmtree.math.core.uint\palmtree.math.core.uint\pmc_add.cpp
; File z:\sources\lunor\repos\rougemeilland\palmtree.math.core.uint\palmtree.math.core.uint\autogenerated_inline_func.h
; File z:\sources\lunor\repos\rougemeilland\palmtree.math.core.uint\palmtree.math.core.uint\pmc_inline_func.h
; File z:\sources\lunor\repos\rougemeilland\palmtree.math.core.uint\palmtree.math.core.uint\autogenerated_inline_func.h
; File z:\sources\lunor\repos\rougemeilland\palmtree.math.core.uint\palmtree.math.core.uint\pmc_inline_func.h
; File z:\sources\lunor\repos\rougemeilland\palmtree.math.core.uint\palmtree.math.core.uint\autogenerated_inline_func.h
; File z:\sources\lunor\repos\rougemeilland\palmtree.math.core.uint\palmtree.math.core.uint\pmc_inline_func.h
; File z:\sources\lunor\repos\rougemeilland\palmtree.math.core.uint\palmtree.math.core.uint\autogenerated_inline_func.h
; File z:\sources\lunor\repos\rougemeilland\palmtree.math.core.uint\palmtree.math.core.uint\pmc_inline_func.h
; File z:\sources\lunor\repos\rougemeilland\palmtree.math.core.uint\palmtree.math.core.uint\autogenerated_inline_func.h
; File z:\sources\lunor\repos\rougemeilland\palmtree.math.core.uint\palmtree.math.core.uint\pmc_inline_func.h
; File z:\sources\lunor\repos\rougemeilland\palmtree.math.core.uint\palmtree.math.core.uint\autogenerated_inline_func.h
; File z:\sources\lunor\repos\rougemeilland\palmtree.math.core.uint\palmtree.math.core.uint\pmc_inline_func.h
; File z:\sources\lunor\repos\rougemeilland\palmtree.math.core.uint\palmtree.math.core.uint\autogenerated_inline_func.h
; File z:\sources\lunor\repos\rougemeilland\palmtree.math.core.uint\palmtree.math.core.uint\pmc_inline_func.h
; File z:\sources\lunor\repos\rougemeilland\palmtree.math.core.uint\palmtree.math.core.uint\autogenerated_inline_func.h
; File z:\sources\lunor\repos\rougemeilland\palmtree.math.core.uint\palmtree.math.core.uint\pmc_inline_func.h
; File z:\sources\lunor\repos\rougemeilland\palmtree.math.core.uint\palmtree.math.core.uint\autogenerated_inline_func.h
; File z:\sources\lunor\repos\rougemeilland\palmtree.math.core.uint\palmtree.math.core.uint\pmc_inline_func.h
; File z:\sources\lunor\repos\rougemeilland\palmtree.math.core.uint\palmtree.math.core.uint\autogenerated_inline_func.h
; File z:\sources\lunor\repos\rougemeilland\palmtree.math.core.uint\palmtree.math.core.uint\pmc_inline_func.h
; File z:\sources\lunor\repos\rougemeilland\palmtree.math.core.uint\palmtree.math.core.uint\autogenerated_inline_func.h
; File z:\sources\lunor\repos\rougemeilland\palmtree.math.core.uint\palmtree.math.core.uint\pmc_inline_func.h
; File z:\sources\lunor\repos\rougemeilland\palmtree.math.core.uint\palmtree.math.core.uint\autogenerated_inline_func.h
; File z:\sources\lunor\repos\rougemeilland\palmtree.math.core.uint\palmtree.math.core.uint\pmc_inline_func.h
; File z:\sources\lunor\repos\rougemeilland\palmtree.math.core.uint\palmtree.math.core.uint\autogenerated_inline_func.h
; File z:\sources\lunor\repos\rougemeilland\palmtree.math.core.uint\palmtree.math.core.uint\pmc_inline_func.h
; File z:\sources\lunor\repos\rougemeilland\palmtree.math.core.uint\palmtree.math.core.uint\autogenerated_inline_func.h
; File z:\sources\lunor\repos\rougemeilland\palmtree.math.core.uint\palmtree.math.core.uint\pmc_inline_func.h
; File z:\sources\lunor\repos\rougemeilland\palmtree.math.core.uint\palmtree.math.core.uint\autogenerated_inline_func.h
; File z:\sources\lunor\repos\rougemeilland\palmtree.math.core.uint\palmtree.math.core.uint\pmc_inline_func.h
; File z:\sources\lunor\repos\rougemeilland\palmtree.math.core.uint\palmtree.math.core.uint\autogenerated_inline_func.h
; File z:\sources\lunor\repos\rougemeilland\palmtree.math.core.uint\palmtree.math.core.uint\pmc_inline_func.h
; File z:\sources\lunor\repos\rougemeilland\palmtree.math.core.uint\palmtree.math.core.uint\autogenerated_inline_func.h
; File z:\sources\lunor\repos\rougemeilland\palmtree.math.core.uint\palmtree.math.core.uint\pmc_inline_func.h
; File z:\sources\lunor\repos\rougemeilland\palmtree.math.core.uint\palmtree.math.core.uint\autogenerated_inline_func.h
; File z:\sources\lunor\repos\rougemeilland\palmtree.math.core.uint\palmtree.math.core.uint\pmc_inline_func.h
; File z:\sources\lunor\repos\rougemeilland\palmtree.math.core.uint\palmtree.math.core.uint\autogenerated_inline_func.h
; File z:\sources\lunor\repos\rougemeilland\palmtree.math.core.uint\palmtree.math.core.uint\pmc_inline_func.h
; File z:\sources\lunor\repos\rougemeilland\palmtree.math.core.uint\palmtree.math.core.uint\autogenerated_inline_func.h
; File z:\sources\lunor\repos\rougemeilland\palmtree.math.core.uint\palmtree.math.core.uint\pmc_inline_func.h
; File z:\sources\lunor\repos\rougemeilland\palmtree.math.core.uint\palmtree.math.core.uint\autogenerated_inline_func.h
; File z:\sources\lunor\repos\rougemeilland\palmtree.math.core.uint\palmtree.math.core.uint\pmc_inline_func.h
; File z:\sources\lunor\repos\rougemeilland\palmtree.math.core.uint\palmtree.math.core.uint\autogenerated_inline_func.h
; File z:\sources\lunor\repos\rougemeilland\palmtree.math.core.uint\palmtree.math.core.uint\pmc_inline_func.h
; File z:\sources\lunor\repos\rougemeilland\palmtree.math.core.uint\palmtree.math.core.uint\autogenerated_inline_func.h
; File z:\sources\lunor\repos\rougemeilland\palmtree.math.core.uint\palmtree.math.core.uint\pmc_inline_func.h
; File z:\sources\lunor\repos\rougemeilland\palmtree.math.core.uint\palmtree.math.core.uint\autogenerated_inline_func.h
; File z:\sources\lunor\repos\rougemeilland\palmtree.math.core.uint\palmtree.math.core.uint\pmc_inline_func.h
; File z:\sources\lunor\repos\rougemeilland\palmtree.math.core.uint\palmtree.math.core.uint\autogenerated_inline_func.h
; File z:\sources\lunor\repos\rougemeilland\palmtree.math.core.uint\palmtree.math.core.uint\pmc_inline_func.h
; File z:\sources\lunor\repos\rougemeilland\palmtree.math.core.uint\palmtree.math.core.uint\autogenerated_inline_func.h
; File z:\sources\lunor\repos\rougemeilland\palmtree.math.core.uint\palmtree.math.core.uint\pmc_inline_func.h
; File z:\sources\lunor\repos\rougemeilland\palmtree.math.core.uint\palmtree.math.core.uint\autogenerated_inline_func.h
; File z:\sources\lunor\repos\rougemeilland\palmtree.math.core.uint\palmtree.math.core.uint\pmc_inline_func.h
; File z:\sources\lunor\repos\rougemeilland\palmtree.math.core.uint\palmtree.math.core.uint\autogenerated_inline_func.h
; File z:\sources\lunor\repos\rougemeilland\palmtree.math.core.uint\palmtree.math.core.uint\pmc_inline_func.h
; File z:\sources\lunor\repos\rougemeilland\palmtree.math.core.uint\palmtree.math.core.uint\autogenerated_inline_func.h
; File z:\sources\lunor\repos\rougemeilland\palmtree.math.core.uint\palmtree.math.core.uint\pmc_inline_func.h
; File z:\sources\lunor\repos\rougemeilland\palmtree.math.core.uint\palmtree.math.core.uint\autogenerated_inline_func.h
; File z:\sources\lunor\repos\rougemeilland\palmtree.math.core.uint\palmtree.math.core.uint\pmc_inline_func.h
; File z:\sources\lunor\repos\rougemeilland\palmtree.math.core.uint\palmtree.math.core.uint\autogenerated_inline_func.h
; File z:\sources\lunor\repos\rougemeilland\palmtree.math.core.uint\palmtree.math.core.uint\pmc_inline_func.h
; File z:\sources\lunor\repos\rougemeilland\palmtree.math.core.uint\palmtree.math.core.uint\autogenerated_inline_func.h
; File z:\sources\lunor\repos\rougemeilland\palmtree.math.core.uint\palmtree.math.core.uint\pmc_inline_func.h
; File z:\sources\lunor\repos\rougemeilland\palmtree.math.core.uint\palmtree.math.core.uint\pmc_add.cpp
; File z:\sources\lunor\repos\rougemeilland\palmtree.math.core.uint\palmtree.math.core.uint\autogenerated_inline_func.h
; File z:\sources\lunor\repos\rougemeilland\palmtree.math.core.uint\palmtree.math.core.uint\pmc_inline_func.h
; File z:\sources\lunor\repos\rougemeilland\palmtree.math.core.uint\palmtree.math.core.uint\autogenerated_inline_func.h
; File z:\sources\lunor\repos\rougemeilland\palmtree.math.core.uint\palmtree.math.core.uint\pmc_inline_func.h
; File z:\sources\lunor\repos\rougemeilland\palmtree.math.core.uint\palmtree.math.core.uint\autogenerated_inline_func.h
; File z:\sources\lunor\repos\rougemeilland\palmtree.math.core.uint\palmtree.math.core.uint\pmc_inline_func.h
; File z:\sources\lunor\repos\rougemeilland\palmtree.math.core.uint\palmtree.math.core.uint\autogenerated_inline_func.h
; File z:\sources\lunor\repos\rougemeilland\palmtree.math.core.uint\palmtree.math.core.uint\pmc_inline_func.h
; File z:\sources\lunor\repos\rougemeilland\palmtree.math.core.uint\palmtree.math.core.uint\autogenerated_inline_func.h
; File z:\sources\lunor\repos\rougemeilland\palmtree.math.core.uint\palmtree.math.core.uint\pmc_inline_func.h
; File z:\sources\lunor\repos\rougemeilland\palmtree.math.core.uint\palmtree.math.core.uint\autogenerated_inline_func.h
; File z:\sources\lunor\repos\rougemeilland\palmtree.math.core.uint\palmtree.math.core.uint\pmc_inline_func.h
; File z:\sources\lunor\repos\rougemeilland\palmtree.math.core.uint\palmtree.math.core.uint\autogenerated_inline_func.h
; File z:\sources\lunor\repos\rougemeilland\palmtree.math.core.uint\palmtree.math.core.uint\pmc_inline_func.h
; File z:\sources\lunor\repos\rougemeilland\palmtree.math.core.uint\palmtree.math.core.uint\autogenerated_inline_func.h
; File z:\sources\lunor\repos\rougemeilland\palmtree.math.core.uint\palmtree.math.core.uint\pmc_inline_func.h
; File z:\sources\lunor\repos\rougemeilland\palmtree.math.core.uint\palmtree.math.core.uint\pmc_add.cpp
; File z:\sources\lunor\repos\rougemeilland\palmtree.math.core.uint\palmtree.math.core.uint\autogenerated_inline_func.h
; File z:\sources\lunor\repos\rougemeilland\palmtree.math.core.uint\palmtree.math.core.uint\pmc_inline_func.h
; File z:\sources\lunor\repos\rougemeilland\palmtree.math.core.uint\palmtree.math.core.uint\autogenerated_inline_func.h
; File z:\sources\lunor\repos\rougemeilland\palmtree.math.core.uint\palmtree.math.core.uint\pmc_inline_func.h
; File z:\sources\lunor\repos\rougemeilland\palmtree.math.core.uint\palmtree.math.core.uint\autogenerated_inline_func.h
; File z:\sources\lunor\repos\rougemeilland\palmtree.math.core.uint\palmtree.math.core.uint\pmc_inline_func.h
; File z:\sources\lunor\repos\rougemeilland\palmtree.math.core.uint\palmtree.math.core.uint\autogenerated_inline_func.h
; File z:\sources\lunor\repos\rougemeilland\palmtree.math.core.uint\palmtree.math.core.uint\pmc_inline_func.h
; File z:\sources\lunor\repos\rougemeilland\palmtree.math.core.uint\palmtree.math.core.uint\pmc_add.cpp
; File z:\sources\lunor\repos\rougemeilland\palmtree.math.core.uint\palmtree.math.core.uint\autogenerated_inline_func.h
; File z:\sources\lunor\repos\rougemeilland\palmtree.math.core.uint\palmtree.math.core.uint\pmc_inline_func.h
; File z:\sources\lunor\repos\rougemeilland\palmtree.math.core.uint\palmtree.math.core.uint\autogenerated_inline_func.h
; File z:\sources\lunor\repos\rougemeilland\palmtree.math.core.uint\palmtree.math.core.uint\pmc_inline_func.h
; File z:\sources\lunor\repos\rougemeilland\palmtree.math.core.uint\palmtree.math.core.uint\pmc_add.cpp
; File z:\sources\lunor\repos\rougemeilland\palmtree.math.core.uint\palmtree.math.core.uint\pmc_inline_func.h
; File z:\sources\lunor\repos\rougemeilland\palmtree.math.core.uint\palmtree.math.core.uint\pmc_add.cpp
;	COMDAT ?Add_Imp_using_ADC@Internal@Core@Math@Palmtree@@YAXPEA_K_K0101@Z
_TEXT	SEGMENT
u_buf$ = 64
u_count$ = 72
v_buf$ = 80
v_count$ = 88
w_buf$ = 96
w_count$ = 104
?Add_Imp_using_ADC@Internal@Core@Math@Palmtree@@YAXPEA_K_K0101@Z PROC ; Palmtree::Math::Core::Internal::Add_Imp_using_ADC, COMDAT

; 145  :     {

  00000	48 89 5c 24 08	 mov	 QWORD PTR [rsp+8], rbx
  00005	57		 push	 rdi
  00006	48 83 ec 30	 sub	 rsp, 48			; 00000030H

; 146  :         // x  y 
; 147  :         if (u_count < v_count)
; 148  :         {
; 149  :             __UNIT_TYPE* t_buf = u_buf;
; 150  :             u_buf = v_buf;
; 151  :             v_buf = t_buf;
; 152  :             __UNIT_TYPE t_count = u_count;
; 153  :             u_count = v_count;
; 154  :             v_count = t_count;
; 155  :         }
; 156  :         __UNIT_TYPE* up = u_buf;

  0000a	49 3b d1	 cmp	 rdx, r9
  0000d	48 8b da	 mov	 rbx, rdx
  00010	4d 8b d0	 mov	 r10, r8
  00013	49 8b f9	 mov	 rdi, r9
  00016	49 0f 43 d9	 cmovae	 rbx, r9
  0001a	48 0f 43 fa	 cmovae	 rdi, rdx

; 157  :         __UNIT_TYPE* vp = v_buf;
; 158  :         __UNIT_TYPE* wp = w_buf;

  0001e	4c 8b 4c 24 60	 mov	 r9, QWORD PTR w_buf$[rsp]
  00023	4c 8b c1	 mov	 r8, rcx
  00026	4d 0f 43 c2	 cmovae	 r8, r10

; 159  :         char c = 0;
; 160  : 
; 161  :         //  32 
; 162  :         __UNIT_TYPE count = v_count >> 5;

  0002a	48 8b d3	 mov	 rdx, rbx
  0002d	4c 0f 43 d1	 cmovae	 r10, rcx
  00031	48 c1 ea 05	 shr	 rdx, 5
  00035	45 32 db	 xor	 r11b, r11b

; 163  :         while (count != 0)

  00038	48 85 d2	 test	 rdx, rdx
  0003b	0f 84 62 02 00
	00		 je	 $LN3@Add_Imp_us

; 146  :         // x  y 
; 147  :         if (u_count < v_count)
; 148  :         {
; 149  :             __UNIT_TYPE* t_buf = u_buf;
; 150  :             u_buf = v_buf;
; 151  :             v_buf = t_buf;
; 152  :             __UNIT_TYPE t_count = u_count;
; 153  :             u_count = v_count;
; 154  :             v_count = t_count;
; 155  :         }
; 156  :         __UNIT_TYPE* up = u_buf;

  00041	49 8b c8	 mov	 rcx, r8
  00044	49 2b c9	 sub	 rcx, r9
  00047	66 0f 1f 84 00
	00 00 00 00	 npad	 9
$LL2@Add_Imp_us:
; File z:\sources\lunor\repos\rougemeilland\palmtree.math.core.uint\palmtree.math.core.uint\autogenerated_inline_func.h

; 43   :     c = _ADD_UNIT(c, xp[0], yp[0], &zp[0]);

  00050	49 8b 02	 mov	 rax, QWORD PTR [r10]
; File z:\sources\lunor\repos\rougemeilland\palmtree.math.core.uint\palmtree.math.core.uint\pmc_inline_func.h

; 180  :             return (_addcarry_u64(carry, u, v, w));

  00053	41 80 c3 ff	 add	 r11b, -1
  00057	49 13 00	 adc	 rax, QWORD PTR [r8]
  0005a	49 89 01	 mov	 QWORD PTR [r9], rax
; File z:\sources\lunor\repos\rougemeilland\palmtree.math.core.uint\palmtree.math.core.uint\autogenerated_inline_func.h

; 44   :     c = _ADD_UNIT(c, xp[1], yp[1], &zp[1]);

  0005d	49 8b 42 08	 mov	 rax, QWORD PTR [r10+8]
; File z:\sources\lunor\repos\rougemeilland\palmtree.math.core.uint\palmtree.math.core.uint\pmc_inline_func.h

; 180  :             return (_addcarry_u64(carry, u, v, w));

  00061	4a 13 44 09 08	 adc	 rax, QWORD PTR [rcx+r9+8]
  00066	49 89 41 08	 mov	 QWORD PTR [r9+8], rax
; File z:\sources\lunor\repos\rougemeilland\palmtree.math.core.uint\palmtree.math.core.uint\autogenerated_inline_func.h

; 45   :     c = _ADD_UNIT(c, xp[2], yp[2], &zp[2]);

  0006a	49 8b 42 10	 mov	 rax, QWORD PTR [r10+16]
; File z:\sources\lunor\repos\rougemeilland\palmtree.math.core.uint\palmtree.math.core.uint\pmc_inline_func.h

; 180  :             return (_addcarry_u64(carry, u, v, w));

  0006e	4a 13 44 09 10	 adc	 rax, QWORD PTR [rcx+r9+16]
  00073	49 89 41 10	 mov	 QWORD PTR [r9+16], rax
; File z:\sources\lunor\repos\rougemeilland\palmtree.math.core.uint\palmtree.math.core.uint\autogenerated_inline_func.h

; 46   :     c = _ADD_UNIT(c, xp[3], yp[3], &zp[3]);

  00077	49 8b 42 18	 mov	 rax, QWORD PTR [r10+24]
; File z:\sources\lunor\repos\rougemeilland\palmtree.math.core.uint\palmtree.math.core.uint\pmc_inline_func.h

; 180  :             return (_addcarry_u64(carry, u, v, w));

  0007b	4a 13 44 09 18	 adc	 rax, QWORD PTR [rcx+r9+24]
  00080	49 89 41 18	 mov	 QWORD PTR [r9+24], rax
; File z:\sources\lunor\repos\rougemeilland\palmtree.math.core.uint\palmtree.math.core.uint\autogenerated_inline_func.h

; 47   :     c = _ADD_UNIT(c, xp[4], yp[4], &zp[4]);

  00084	49 8b 42 20	 mov	 rax, QWORD PTR [r10+32]
; File z:\sources\lunor\repos\rougemeilland\palmtree.math.core.uint\palmtree.math.core.uint\pmc_inline_func.h

; 180  :             return (_addcarry_u64(carry, u, v, w));

  00088	4a 13 44 09 20	 adc	 rax, QWORD PTR [rcx+r9+32]
  0008d	49 89 41 20	 mov	 QWORD PTR [r9+32], rax
; File z:\sources\lunor\repos\rougemeilland\palmtree.math.core.uint\palmtree.math.core.uint\autogenerated_inline_func.h

; 48   :     c = _ADD_UNIT(c, xp[5], yp[5], &zp[5]);

  00091	49 8b 42 28	 mov	 rax, QWORD PTR [r10+40]
; File z:\sources\lunor\repos\rougemeilland\palmtree.math.core.uint\palmtree.math.core.uint\pmc_inline_func.h

; 180  :             return (_addcarry_u64(carry, u, v, w));

  00095	49 13 44 09 28	 adc	 rax, QWORD PTR [r9+rcx+40]
  0009a	49 89 41 28	 mov	 QWORD PTR [r9+40], rax
; File z:\sources\lunor\repos\rougemeilland\palmtree.math.core.uint\palmtree.math.core.uint\autogenerated_inline_func.h

; 49   :     c = _ADD_UNIT(c, xp[6], yp[6], &zp[6]);

  0009e	49 8b 42 30	 mov	 rax, QWORD PTR [r10+48]
; File z:\sources\lunor\repos\rougemeilland\palmtree.math.core.uint\palmtree.math.core.uint\pmc_inline_func.h

; 180  :             return (_addcarry_u64(carry, u, v, w));

  000a2	49 13 44 09 30	 adc	 rax, QWORD PTR [r9+rcx+48]
  000a7	49 89 41 30	 mov	 QWORD PTR [r9+48], rax
; File z:\sources\lunor\repos\rougemeilland\palmtree.math.core.uint\palmtree.math.core.uint\autogenerated_inline_func.h

; 50   :     c = _ADD_UNIT(c, xp[7], yp[7], &zp[7]);

  000ab	49 8b 42 38	 mov	 rax, QWORD PTR [r10+56]
; File z:\sources\lunor\repos\rougemeilland\palmtree.math.core.uint\palmtree.math.core.uint\pmc_inline_func.h

; 180  :             return (_addcarry_u64(carry, u, v, w));

  000af	49 13 44 09 38	 adc	 rax, QWORD PTR [r9+rcx+56]
  000b4	49 89 41 38	 mov	 QWORD PTR [r9+56], rax
; File z:\sources\lunor\repos\rougemeilland\palmtree.math.core.uint\palmtree.math.core.uint\autogenerated_inline_func.h

; 51   :     c = _ADD_UNIT(c, xp[8], yp[8], &zp[8]);

  000b8	49 8b 42 40	 mov	 rax, QWORD PTR [r10+64]
; File z:\sources\lunor\repos\rougemeilland\palmtree.math.core.uint\palmtree.math.core.uint\pmc_inline_func.h

; 180  :             return (_addcarry_u64(carry, u, v, w));

  000bc	49 13 44 09 40	 adc	 rax, QWORD PTR [r9+rcx+64]
  000c1	49 89 41 40	 mov	 QWORD PTR [r9+64], rax
; File z:\sources\lunor\repos\rougemeilland\palmtree.math.core.uint\palmtree.math.core.uint\autogenerated_inline_func.h

; 52   :     c = _ADD_UNIT(c, xp[9], yp[9], &zp[9]);

  000c5	49 8b 42 48	 mov	 rax, QWORD PTR [r10+72]
; File z:\sources\lunor\repos\rougemeilland\palmtree.math.core.uint\palmtree.math.core.uint\pmc_inline_func.h

; 180  :             return (_addcarry_u64(carry, u, v, w));

  000c9	49 13 44 09 48	 adc	 rax, QWORD PTR [r9+rcx+72]
  000ce	49 89 41 48	 mov	 QWORD PTR [r9+72], rax
; File z:\sources\lunor\repos\rougemeilland\palmtree.math.core.uint\palmtree.math.core.uint\autogenerated_inline_func.h

; 53   :     c = _ADD_UNIT(c, xp[10], yp[10], &zp[10]);

  000d2	49 8b 42 50	 mov	 rax, QWORD PTR [r10+80]
; File z:\sources\lunor\repos\rougemeilland\palmtree.math.core.uint\palmtree.math.core.uint\pmc_inline_func.h

; 180  :             return (_addcarry_u64(carry, u, v, w));

  000d6	49 13 44 09 50	 adc	 rax, QWORD PTR [r9+rcx+80]
  000db	49 89 41 50	 mov	 QWORD PTR [r9+80], rax
; File z:\sources\lunor\repos\rougemeilland\palmtree.math.core.uint\palmtree.math.core.uint\autogenerated_inline_func.h

; 54   :     c = _ADD_UNIT(c, xp[11], yp[11], &zp[11]);

  000df	49 8b 42 58	 mov	 rax, QWORD PTR [r10+88]
; File z:\sources\lunor\repos\rougemeilland\palmtree.math.core.uint\palmtree.math.core.uint\pmc_inline_func.h

; 180  :             return (_addcarry_u64(carry, u, v, w));

  000e3	49 13 44 09 58	 adc	 rax, QWORD PTR [r9+rcx+88]
  000e8	49 89 41 58	 mov	 QWORD PTR [r9+88], rax
; File z:\sources\lunor\repos\rougemeilland\palmtree.math.core.uint\palmtree.math.core.uint\autogenerated_inline_func.h

; 55   :     c = _ADD_UNIT(c, xp[12], yp[12], &zp[12]);

  000ec	49 8b 42 60	 mov	 rax, QWORD PTR [r10+96]
; File z:\sources\lunor\repos\rougemeilland\palmtree.math.core.uint\palmtree.math.core.uint\pmc_inline_func.h

; 180  :             return (_addcarry_u64(carry, u, v, w));

  000f0	49 13 44 09 60	 adc	 rax, QWORD PTR [r9+rcx+96]
  000f5	49 89 41 60	 mov	 QWORD PTR [r9+96], rax
; File z:\sources\lunor\repos\rougemeilland\palmtree.math.core.uint\palmtree.math.core.uint\autogenerated_inline_func.h

; 56   :     c = _ADD_UNIT(c, xp[13], yp[13], &zp[13]);

  000f9	49 8b 42 68	 mov	 rax, QWORD PTR [r10+104]
; File z:\sources\lunor\repos\rougemeilland\palmtree.math.core.uint\palmtree.math.core.uint\pmc_inline_func.h

; 180  :             return (_addcarry_u64(carry, u, v, w));

  000fd	49 13 44 09 68	 adc	 rax, QWORD PTR [r9+rcx+104]
  00102	49 89 41 68	 mov	 QWORD PTR [r9+104], rax
; File z:\sources\lunor\repos\rougemeilland\palmtree.math.core.uint\palmtree.math.core.uint\autogenerated_inline_func.h

; 57   :     c = _ADD_UNIT(c, xp[14], yp[14], &zp[14]);

  00106	49 8b 42 70	 mov	 rax, QWORD PTR [r10+112]
; File z:\sources\lunor\repos\rougemeilland\palmtree.math.core.uint\palmtree.math.core.uint\pmc_inline_func.h

; 180  :             return (_addcarry_u64(carry, u, v, w));

  0010a	49 13 44 09 70	 adc	 rax, QWORD PTR [r9+rcx+112]
  0010f	49 89 41 70	 mov	 QWORD PTR [r9+112], rax
; File z:\sources\lunor\repos\rougemeilland\palmtree.math.core.uint\palmtree.math.core.uint\autogenerated_inline_func.h

; 58   :     c = _ADD_UNIT(c, xp[15], yp[15], &zp[15]);

  00113	49 8b 42 78	 mov	 rax, QWORD PTR [r10+120]
; File z:\sources\lunor\repos\rougemeilland\palmtree.math.core.uint\palmtree.math.core.uint\pmc_inline_func.h

; 180  :             return (_addcarry_u64(carry, u, v, w));

  00117	49 13 44 09 78	 adc	 rax, QWORD PTR [r9+rcx+120]
  0011c	49 89 41 78	 mov	 QWORD PTR [r9+120], rax
; File z:\sources\lunor\repos\rougemeilland\palmtree.math.core.uint\palmtree.math.core.uint\autogenerated_inline_func.h

; 59   :     c = _ADD_UNIT(c, xp[16], yp[16], &zp[16]);

  00120	49 8b 82 80 00
	00 00		 mov	 rax, QWORD PTR [r10+128]
; File z:\sources\lunor\repos\rougemeilland\palmtree.math.core.uint\palmtree.math.core.uint\pmc_inline_func.h

; 180  :             return (_addcarry_u64(carry, u, v, w));

  00127	49 13 84 09 80
	00 00 00	 adc	 rax, QWORD PTR [r9+rcx+128]
  0012f	49 89 81 80 00
	00 00		 mov	 QWORD PTR [r9+128], rax
; File z:\sources\lunor\repos\rougemeilland\palmtree.math.core.uint\palmtree.math.core.uint\autogenerated_inline_func.h

; 60   :     c = _ADD_UNIT(c, xp[17], yp[17], &zp[17]);

  00136	49 8b 82 88 00
	00 00		 mov	 rax, QWORD PTR [r10+136]
; File z:\sources\lunor\repos\rougemeilland\palmtree.math.core.uint\palmtree.math.core.uint\pmc_inline_func.h

; 180  :             return (_addcarry_u64(carry, u, v, w));

  0013d	49 13 84 09 88
	00 00 00	 adc	 rax, QWORD PTR [r9+rcx+136]
  00145	49 89 81 88 00
	00 00		 mov	 QWORD PTR [r9+136], rax
; File z:\sources\lunor\repos\rougemeilland\palmtree.math.core.uint\palmtree.math.core.uint\autogenerated_inline_func.h

; 61   :     c = _ADD_UNIT(c, xp[18], yp[18], &zp[18]);

  0014c	49 8b 82 90 00
	00 00		 mov	 rax, QWORD PTR [r10+144]
; File z:\sources\lunor\repos\rougemeilland\palmtree.math.core.uint\palmtree.math.core.uint\pmc_inline_func.h

; 180  :             return (_addcarry_u64(carry, u, v, w));

  00153	49 13 84 09 90
	00 00 00	 adc	 rax, QWORD PTR [r9+rcx+144]
  0015b	49 89 81 90 00
	00 00		 mov	 QWORD PTR [r9+144], rax
; File z:\sources\lunor\repos\rougemeilland\palmtree.math.core.uint\palmtree.math.core.uint\autogenerated_inline_func.h

; 62   :     c = _ADD_UNIT(c, xp[19], yp[19], &zp[19]);

  00162	49 8b 82 98 00
	00 00		 mov	 rax, QWORD PTR [r10+152]
; File z:\sources\lunor\repos\rougemeilland\palmtree.math.core.uint\palmtree.math.core.uint\pmc_inline_func.h

; 180  :             return (_addcarry_u64(carry, u, v, w));

  00169	49 13 84 09 98
	00 00 00	 adc	 rax, QWORD PTR [r9+rcx+152]
  00171	49 89 81 98 00
	00 00		 mov	 QWORD PTR [r9+152], rax
; File z:\sources\lunor\repos\rougemeilland\palmtree.math.core.uint\palmtree.math.core.uint\autogenerated_inline_func.h

; 63   :     c = _ADD_UNIT(c, xp[20], yp[20], &zp[20]);

  00178	49 8b 82 a0 00
	00 00		 mov	 rax, QWORD PTR [r10+160]
; File z:\sources\lunor\repos\rougemeilland\palmtree.math.core.uint\palmtree.math.core.uint\pmc_inline_func.h

; 180  :             return (_addcarry_u64(carry, u, v, w));

  0017f	49 13 84 09 a0
	00 00 00	 adc	 rax, QWORD PTR [r9+rcx+160]
  00187	49 89 81 a0 00
	00 00		 mov	 QWORD PTR [r9+160], rax
; File z:\sources\lunor\repos\rougemeilland\palmtree.math.core.uint\palmtree.math.core.uint\autogenerated_inline_func.h

; 64   :     c = _ADD_UNIT(c, xp[21], yp[21], &zp[21]);

  0018e	49 8b 82 a8 00
	00 00		 mov	 rax, QWORD PTR [r10+168]
; File z:\sources\lunor\repos\rougemeilland\palmtree.math.core.uint\palmtree.math.core.uint\pmc_inline_func.h

; 180  :             return (_addcarry_u64(carry, u, v, w));

  00195	49 13 84 09 a8
	00 00 00	 adc	 rax, QWORD PTR [r9+rcx+168]
  0019d	49 89 81 a8 00
	00 00		 mov	 QWORD PTR [r9+168], rax
; File z:\sources\lunor\repos\rougemeilland\palmtree.math.core.uint\palmtree.math.core.uint\autogenerated_inline_func.h

; 65   :     c = _ADD_UNIT(c, xp[22], yp[22], &zp[22]);

  001a4	49 8b 82 b0 00
	00 00		 mov	 rax, QWORD PTR [r10+176]
; File z:\sources\lunor\repos\rougemeilland\palmtree.math.core.uint\palmtree.math.core.uint\pmc_inline_func.h

; 180  :             return (_addcarry_u64(carry, u, v, w));

  001ab	49 13 84 09 b0
	00 00 00	 adc	 rax, QWORD PTR [r9+rcx+176]
  001b3	49 89 81 b0 00
	00 00		 mov	 QWORD PTR [r9+176], rax
; File z:\sources\lunor\repos\rougemeilland\palmtree.math.core.uint\palmtree.math.core.uint\autogenerated_inline_func.h

; 66   :     c = _ADD_UNIT(c, xp[23], yp[23], &zp[23]);

  001ba	49 8b 82 b8 00
	00 00		 mov	 rax, QWORD PTR [r10+184]
; File z:\sources\lunor\repos\rougemeilland\palmtree.math.core.uint\palmtree.math.core.uint\pmc_inline_func.h

; 180  :             return (_addcarry_u64(carry, u, v, w));

  001c1	49 13 84 09 b8
	00 00 00	 adc	 rax, QWORD PTR [r9+rcx+184]
  001c9	49 89 81 b8 00
	00 00		 mov	 QWORD PTR [r9+184], rax
; File z:\sources\lunor\repos\rougemeilland\palmtree.math.core.uint\palmtree.math.core.uint\autogenerated_inline_func.h

; 67   :     c = _ADD_UNIT(c, xp[24], yp[24], &zp[24]);

  001d0	49 8b 82 c0 00
	00 00		 mov	 rax, QWORD PTR [r10+192]
; File z:\sources\lunor\repos\rougemeilland\palmtree.math.core.uint\palmtree.math.core.uint\pmc_inline_func.h

; 180  :             return (_addcarry_u64(carry, u, v, w));

  001d7	49 13 84 09 c0
	00 00 00	 adc	 rax, QWORD PTR [r9+rcx+192]
  001df	49 89 81 c0 00
	00 00		 mov	 QWORD PTR [r9+192], rax
; File z:\sources\lunor\repos\rougemeilland\palmtree.math.core.uint\palmtree.math.core.uint\autogenerated_inline_func.h

; 68   :     c = _ADD_UNIT(c, xp[25], yp[25], &zp[25]);

  001e6	49 8b 82 c8 00
	00 00		 mov	 rax, QWORD PTR [r10+200]
; File z:\sources\lunor\repos\rougemeilland\palmtree.math.core.uint\palmtree.math.core.uint\pmc_inline_func.h

; 180  :             return (_addcarry_u64(carry, u, v, w));

  001ed	49 13 84 09 c8
	00 00 00	 adc	 rax, QWORD PTR [r9+rcx+200]
  001f5	49 89 81 c8 00
	00 00		 mov	 QWORD PTR [r9+200], rax
; File z:\sources\lunor\repos\rougemeilland\palmtree.math.core.uint\palmtree.math.core.uint\autogenerated_inline_func.h

; 69   :     c = _ADD_UNIT(c, xp[26], yp[26], &zp[26]);

  001fc	49 8b 82 d0 00
	00 00		 mov	 rax, QWORD PTR [r10+208]
; File z:\sources\lunor\repos\rougemeilland\palmtree.math.core.uint\palmtree.math.core.uint\pmc_inline_func.h

; 180  :             return (_addcarry_u64(carry, u, v, w));

  00203	49 13 84 09 d0
	00 00 00	 adc	 rax, QWORD PTR [r9+rcx+208]
  0020b	49 89 81 d0 00
	00 00		 mov	 QWORD PTR [r9+208], rax
; File z:\sources\lunor\repos\rougemeilland\palmtree.math.core.uint\palmtree.math.core.uint\autogenerated_inline_func.h

; 70   :     c = _ADD_UNIT(c, xp[27], yp[27], &zp[27]);

  00212	49 8b 82 d8 00
	00 00		 mov	 rax, QWORD PTR [r10+216]
; File z:\sources\lunor\repos\rougemeilland\palmtree.math.core.uint\palmtree.math.core.uint\pmc_inline_func.h

; 180  :             return (_addcarry_u64(carry, u, v, w));

  00219	49 13 84 09 d8
	00 00 00	 adc	 rax, QWORD PTR [r9+rcx+216]
  00221	49 89 81 d8 00
	00 00		 mov	 QWORD PTR [r9+216], rax
; File z:\sources\lunor\repos\rougemeilland\palmtree.math.core.uint\palmtree.math.core.uint\autogenerated_inline_func.h

; 71   :     c = _ADD_UNIT(c, xp[28], yp[28], &zp[28]);

  00228	49 8b 82 e0 00
	00 00		 mov	 rax, QWORD PTR [r10+224]
; File z:\sources\lunor\repos\rougemeilland\palmtree.math.core.uint\palmtree.math.core.uint\pmc_inline_func.h

; 180  :             return (_addcarry_u64(carry, u, v, w));

  0022f	49 13 84 09 e0
	00 00 00	 adc	 rax, QWORD PTR [r9+rcx+224]
  00237	49 89 81 e0 00
	00 00		 mov	 QWORD PTR [r9+224], rax
; File z:\sources\lunor\repos\rougemeilland\palmtree.math.core.uint\palmtree.math.core.uint\autogenerated_inline_func.h

; 72   :     c = _ADD_UNIT(c, xp[29], yp[29], &zp[29]);

  0023e	49 8b 82 e8 00
	00 00		 mov	 rax, QWORD PTR [r10+232]
; File z:\sources\lunor\repos\rougemeilland\palmtree.math.core.uint\palmtree.math.core.uint\pmc_inline_func.h

; 180  :             return (_addcarry_u64(carry, u, v, w));

  00245	49 13 84 09 e8
	00 00 00	 adc	 rax, QWORD PTR [r9+rcx+232]
  0024d	49 89 81 e8 00
	00 00		 mov	 QWORD PTR [r9+232], rax
; File z:\sources\lunor\repos\rougemeilland\palmtree.math.core.uint\palmtree.math.core.uint\autogenerated_inline_func.h

; 73   :     c = _ADD_UNIT(c, xp[30], yp[30], &zp[30]);

  00254	49 8b 82 f0 00
	00 00		 mov	 rax, QWORD PTR [r10+240]
; File z:\sources\lunor\repos\rougemeilland\palmtree.math.core.uint\palmtree.math.core.uint\pmc_inline_func.h

; 180  :             return (_addcarry_u64(carry, u, v, w));

  0025b	49 13 84 09 f0
	00 00 00	 adc	 rax, QWORD PTR [r9+rcx+240]
  00263	49 89 81 f0 00
	00 00		 mov	 QWORD PTR [r9+240], rax
; File z:\sources\lunor\repos\rougemeilland\palmtree.math.core.uint\palmtree.math.core.uint\autogenerated_inline_func.h

; 74   :     c = _ADD_UNIT(c, xp[31], yp[31], &zp[31]);

  0026a	49 8b 82 f8 00
	00 00		 mov	 rax, QWORD PTR [r10+248]
; File z:\sources\lunor\repos\rougemeilland\palmtree.math.core.uint\palmtree.math.core.uint\pmc_inline_func.h

; 180  :             return (_addcarry_u64(carry, u, v, w));

  00271	49 13 84 09 f8
	00 00 00	 adc	 rax, QWORD PTR [r9+rcx+248]
  00279	49 89 81 f8 00
	00 00		 mov	 QWORD PTR [r9+248], rax
  00280	41 0f 92 c3	 setb	 r11b
; File z:\sources\lunor\repos\rougemeilland\palmtree.math.core.uint\palmtree.math.core.uint\pmc_add.cpp

; 166  :             up += 32;

  00284	49 81 c2 00 01
	00 00		 add	 r10, 256		; 00000100H

; 167  :             vp += 32;

  0028b	49 81 c0 00 01
	00 00		 add	 r8, 256			; 00000100H

; 168  :             wp += 32;

  00292	49 81 c1 00 01
	00 00		 add	 r9, 256			; 00000100H

; 169  :             --count;

  00299	48 83 ea 01	 sub	 rdx, 1
  0029d	0f 85 ad fd ff
	ff		 jne	 $LL2@Add_Imp_us
$LN3@Add_Imp_us:

; 170  :         }
; 171  :         //  32 
; 172  : 
; 173  :         //  16  16 
; 174  :         if (v_count & 0x10)

  002a3	f6 c3 10	 test	 bl, 16
  002a6	74 1c		 je	 SHORT $LN5@Add_Imp_us

; 175  :         {
; 176  :             c = _ADD_16WORDS_ADC(c, up, vp, wp);

  002a8	49 8b d2	 mov	 rdx, r10
  002ab	41 0f b6 cb	 movzx	 ecx, r11b
  002af	e8 00 00 00 00	 call	 _ADD_16WORDS_ADC

; 177  :             up += 16;

  002b4	49 83 ea 80	 sub	 r10, -128		; ffffffffffffff80H

; 178  :             vp += 16;

  002b8	49 83 e8 80	 sub	 r8, -128		; ffffffffffffff80H

; 179  :             wp += 16;

  002bc	49 83 e9 80	 sub	 r9, -128		; ffffffffffffff80H
  002c0	44 0f b6 d8	 movzx	 r11d, al
$LN5@Add_Imp_us:

; 180  :         }
; 181  :         //  16 
; 182  : 
; 183  :         //  8  8 
; 184  :         if (v_count & 0x8)

  002c4	f6 c3 08	 test	 bl, 8
  002c7	74 71		 je	 SHORT $LN6@Add_Imp_us
; File z:\sources\lunor\repos\rougemeilland\palmtree.math.core.uint\palmtree.math.core.uint\autogenerated_inline_func.h

; 1619 :     c = _ADD_UNIT(c, xp[0], yp[0], &zp[0]);

  002c9	49 8b 02	 mov	 rax, QWORD PTR [r10]
; File z:\sources\lunor\repos\rougemeilland\palmtree.math.core.uint\palmtree.math.core.uint\pmc_inline_func.h

; 180  :             return (_addcarry_u64(carry, u, v, w));

  002cc	41 80 c3 ff	 add	 r11b, -1
  002d0	49 13 00	 adc	 rax, QWORD PTR [r8]
  002d3	49 89 01	 mov	 QWORD PTR [r9], rax
; File z:\sources\lunor\repos\rougemeilland\palmtree.math.core.uint\palmtree.math.core.uint\autogenerated_inline_func.h

; 1620 :     c = _ADD_UNIT(c, xp[1], yp[1], &zp[1]);

  002d6	49 8b 42 08	 mov	 rax, QWORD PTR [r10+8]
; File z:\sources\lunor\repos\rougemeilland\palmtree.math.core.uint\palmtree.math.core.uint\pmc_inline_func.h

; 180  :             return (_addcarry_u64(carry, u, v, w));

  002da	49 13 40 08	 adc	 rax, QWORD PTR [r8+8]
  002de	49 89 41 08	 mov	 QWORD PTR [r9+8], rax
; File z:\sources\lunor\repos\rougemeilland\palmtree.math.core.uint\palmtree.math.core.uint\autogenerated_inline_func.h

; 1621 :     c = _ADD_UNIT(c, xp[2], yp[2], &zp[2]);

  002e2	49 8b 42 10	 mov	 rax, QWORD PTR [r10+16]
; File z:\sources\lunor\repos\rougemeilland\palmtree.math.core.uint\palmtree.math.core.uint\pmc_inline_func.h

; 180  :             return (_addcarry_u64(carry, u, v, w));

  002e6	49 13 40 10	 adc	 rax, QWORD PTR [r8+16]
  002ea	49 89 41 10	 mov	 QWORD PTR [r9+16], rax
; File z:\sources\lunor\repos\rougemeilland\palmtree.math.core.uint\palmtree.math.core.uint\autogenerated_inline_func.h

; 1622 :     c = _ADD_UNIT(c, xp[3], yp[3], &zp[3]);

  002ee	49 8b 42 18	 mov	 rax, QWORD PTR [r10+24]
; File z:\sources\lunor\repos\rougemeilland\palmtree.math.core.uint\palmtree.math.core.uint\pmc_inline_func.h

; 180  :             return (_addcarry_u64(carry, u, v, w));

  002f2	49 13 40 18	 adc	 rax, QWORD PTR [r8+24]
  002f6	49 89 41 18	 mov	 QWORD PTR [r9+24], rax
; File z:\sources\lunor\repos\rougemeilland\palmtree.math.core.uint\palmtree.math.core.uint\autogenerated_inline_func.h

; 1623 :     c = _ADD_UNIT(c, xp[4], yp[4], &zp[4]);

  002fa	49 8b 42 20	 mov	 rax, QWORD PTR [r10+32]
; File z:\sources\lunor\repos\rougemeilland\palmtree.math.core.uint\palmtree.math.core.uint\pmc_inline_func.h

; 180  :             return (_addcarry_u64(carry, u, v, w));

  002fe	49 13 40 20	 adc	 rax, QWORD PTR [r8+32]
  00302	49 89 41 20	 mov	 QWORD PTR [r9+32], rax
; File z:\sources\lunor\repos\rougemeilland\palmtree.math.core.uint\palmtree.math.core.uint\autogenerated_inline_func.h

; 1624 :     c = _ADD_UNIT(c, xp[5], yp[5], &zp[5]);

  00306	49 8b 42 28	 mov	 rax, QWORD PTR [r10+40]
; File z:\sources\lunor\repos\rougemeilland\palmtree.math.core.uint\palmtree.math.core.uint\pmc_inline_func.h

; 180  :             return (_addcarry_u64(carry, u, v, w));

  0030a	49 13 40 28	 adc	 rax, QWORD PTR [r8+40]
  0030e	49 89 41 28	 mov	 QWORD PTR [r9+40], rax
; File z:\sources\lunor\repos\rougemeilland\palmtree.math.core.uint\palmtree.math.core.uint\autogenerated_inline_func.h

; 1625 :     c = _ADD_UNIT(c, xp[6], yp[6], &zp[6]);

  00312	49 8b 42 30	 mov	 rax, QWORD PTR [r10+48]
; File z:\sources\lunor\repos\rougemeilland\palmtree.math.core.uint\palmtree.math.core.uint\pmc_inline_func.h

; 180  :             return (_addcarry_u64(carry, u, v, w));

  00316	49 13 40 30	 adc	 rax, QWORD PTR [r8+48]
  0031a	49 89 41 30	 mov	 QWORD PTR [r9+48], rax
; File z:\sources\lunor\repos\rougemeilland\palmtree.math.core.uint\palmtree.math.core.uint\autogenerated_inline_func.h

; 1626 :     c = _ADD_UNIT(c, xp[7], yp[7], &zp[7]);

  0031e	49 8b 42 38	 mov	 rax, QWORD PTR [r10+56]
; File z:\sources\lunor\repos\rougemeilland\palmtree.math.core.uint\palmtree.math.core.uint\pmc_inline_func.h

; 180  :             return (_addcarry_u64(carry, u, v, w));

  00322	49 13 40 38	 adc	 rax, QWORD PTR [r8+56]
  00326	49 89 41 38	 mov	 QWORD PTR [r9+56], rax
  0032a	41 0f 92 c3	 setb	 r11b
; File z:\sources\lunor\repos\rougemeilland\palmtree.math.core.uint\palmtree.math.core.uint\pmc_add.cpp

; 187  :             up += 8;

  0032e	49 83 c2 40	 add	 r10, 64			; 00000040H

; 188  :             vp += 8;

  00332	49 83 c0 40	 add	 r8, 64			; 00000040H

; 189  :             wp += 8;

  00336	49 83 c1 40	 add	 r9, 64			; 00000040H
$LN6@Add_Imp_us:

; 190  :         }
; 191  :         //  8 
; 192  : 
; 193  :         //  4  4 
; 194  :         if (v_count & 0x4)

  0033a	f6 c3 04	 test	 bl, 4
  0033d	74 41		 je	 SHORT $LN7@Add_Imp_us
; File z:\sources\lunor\repos\rougemeilland\palmtree.math.core.uint\palmtree.math.core.uint\autogenerated_inline_func.h

; 1959 :     c = _ADD_UNIT(c, xp[0], yp[0], &zp[0]);

  0033f	49 8b 02	 mov	 rax, QWORD PTR [r10]
; File z:\sources\lunor\repos\rougemeilland\palmtree.math.core.uint\palmtree.math.core.uint\pmc_inline_func.h

; 180  :             return (_addcarry_u64(carry, u, v, w));

  00342	41 80 c3 ff	 add	 r11b, -1
  00346	49 13 00	 adc	 rax, QWORD PTR [r8]
  00349	49 89 01	 mov	 QWORD PTR [r9], rax
; File z:\sources\lunor\repos\rougemeilland\palmtree.math.core.uint\palmtree.math.core.uint\autogenerated_inline_func.h

; 1960 :     c = _ADD_UNIT(c, xp[1], yp[1], &zp[1]);

  0034c	49 8b 42 08	 mov	 rax, QWORD PTR [r10+8]
; File z:\sources\lunor\repos\rougemeilland\palmtree.math.core.uint\palmtree.math.core.uint\pmc_inline_func.h

; 180  :             return (_addcarry_u64(carry, u, v, w));

  00350	49 13 40 08	 adc	 rax, QWORD PTR [r8+8]
  00354	49 89 41 08	 mov	 QWORD PTR [r9+8], rax
; File z:\sources\lunor\repos\rougemeilland\palmtree.math.core.uint\palmtree.math.core.uint\autogenerated_inline_func.h

; 1961 :     c = _ADD_UNIT(c, xp[2], yp[2], &zp[2]);

  00358	49 8b 42 10	 mov	 rax, QWORD PTR [r10+16]
; File z:\sources\lunor\repos\rougemeilland\palmtree.math.core.uint\palmtree.math.core.uint\pmc_inline_func.h

; 180  :             return (_addcarry_u64(carry, u, v, w));

  0035c	49 13 40 10	 adc	 rax, QWORD PTR [r8+16]
  00360	49 89 41 10	 mov	 QWORD PTR [r9+16], rax
; File z:\sources\lunor\repos\rougemeilland\palmtree.math.core.uint\palmtree.math.core.uint\autogenerated_inline_func.h

; 1962 :     c = _ADD_UNIT(c, xp[3], yp[3], &zp[3]);

  00364	49 8b 42 18	 mov	 rax, QWORD PTR [r10+24]
; File z:\sources\lunor\repos\rougemeilland\palmtree.math.core.uint\palmtree.math.core.uint\pmc_inline_func.h

; 180  :             return (_addcarry_u64(carry, u, v, w));

  00368	49 13 40 18	 adc	 rax, QWORD PTR [r8+24]
  0036c	49 89 41 18	 mov	 QWORD PTR [r9+24], rax
  00370	41 0f 92 c3	 setb	 r11b
; File z:\sources\lunor\repos\rougemeilland\palmtree.math.core.uint\palmtree.math.core.uint\pmc_add.cpp

; 197  :             up += 4;

  00374	49 83 c2 20	 add	 r10, 32			; 00000020H

; 198  :             vp += 4;

  00378	49 83 c0 20	 add	 r8, 32			; 00000020H

; 199  :             wp += 4;

  0037c	49 83 c1 20	 add	 r9, 32			; 00000020H
$LN7@Add_Imp_us:

; 200  :         }
; 201  :         //  4 
; 202  : 
; 203  :         //  2  2 
; 204  :         if (v_count & 0x2)

  00380	f6 c3 02	 test	 bl, 2
  00383	74 29		 je	 SHORT $LN8@Add_Imp_us
; File z:\sources\lunor\repos\rougemeilland\palmtree.math.core.uint\palmtree.math.core.uint\autogenerated_inline_func.h

; 2187 :     c = _ADD_UNIT(c, xp[0], yp[0], &zp[0]);

  00385	49 8b 02	 mov	 rax, QWORD PTR [r10]
; File z:\sources\lunor\repos\rougemeilland\palmtree.math.core.uint\palmtree.math.core.uint\pmc_inline_func.h

; 180  :             return (_addcarry_u64(carry, u, v, w));

  00388	41 80 c3 ff	 add	 r11b, -1
  0038c	49 13 00	 adc	 rax, QWORD PTR [r8]
  0038f	49 89 01	 mov	 QWORD PTR [r9], rax
; File z:\sources\lunor\repos\rougemeilland\palmtree.math.core.uint\palmtree.math.core.uint\autogenerated_inline_func.h

; 2188 :     c = _ADD_UNIT(c, xp[1], yp[1], &zp[1]);

  00392	49 8b 42 08	 mov	 rax, QWORD PTR [r10+8]
; File z:\sources\lunor\repos\rougemeilland\palmtree.math.core.uint\palmtree.math.core.uint\pmc_inline_func.h

; 180  :             return (_addcarry_u64(carry, u, v, w));

  00396	49 13 40 08	 adc	 rax, QWORD PTR [r8+8]
  0039a	49 89 41 08	 mov	 QWORD PTR [r9+8], rax
  0039e	41 0f 92 c3	 setb	 r11b
; File z:\sources\lunor\repos\rougemeilland\palmtree.math.core.uint\palmtree.math.core.uint\pmc_add.cpp

; 207  :             up += 2;

  003a2	49 83 c2 10	 add	 r10, 16

; 208  :             vp += 2;

  003a6	49 83 c0 10	 add	 r8, 16

; 209  :             wp += 2;

  003aa	49 83 c1 10	 add	 r9, 16
$LN8@Add_Imp_us:

; 210  :         }
; 211  :         //  2 
; 212  : 
; 213  :         //  1  1 
; 214  :         if (v_count & 0x1)

  003ae	f6 c3 01	 test	 bl, 1
  003b1	74 1c		 je	 SHORT $LN9@Add_Imp_us

; 215  :             c = _ADD_UNIT(c, *up++, *vp++, wp++);

  003b3	49 8b 02	 mov	 rax, QWORD PTR [r10]
  003b6	49 8b c9	 mov	 rcx, r9
  003b9	49 83 c1 08	 add	 r9, 8
  003bd	49 83 c2 08	 add	 r10, 8
; File z:\sources\lunor\repos\rougemeilland\palmtree.math.core.uint\palmtree.math.core.uint\pmc_inline_func.h

; 180  :             return (_addcarry_u64(carry, u, v, w));

  003c1	41 80 c3 ff	 add	 r11b, -1
  003c5	49 13 00	 adc	 rax, QWORD PTR [r8]
  003c8	48 89 01	 mov	 QWORD PTR [rcx], rax
  003cb	41 0f 92 c3	 setb	 r11b
$LN9@Add_Imp_us:
; File z:\sources\lunor\repos\rougemeilland\palmtree.math.core.uint\palmtree.math.core.uint\pmc_add.cpp

; 218  :         DoCarry(c, up, u_count - v_count, wp, w_count - v_count);

  003cf	48 8b 44 24 68	 mov	 rax, QWORD PTR w_count$[rsp]
  003d4	48 2b fb	 sub	 rdi, rbx
  003d7	48 2b c3	 sub	 rax, rbx
  003da	4c 8b c7	 mov	 r8, rdi
  003dd	49 8b d2	 mov	 rdx, r10
  003e0	48 89 44 24 60	 mov	 QWORD PTR w_buf$[rsp], rax
  003e5	41 0f b6 cb	 movzx	 ecx, r11b

; 219  :     }

  003e9	48 8b 5c 24 40	 mov	 rbx, QWORD PTR [rsp+64]
  003ee	48 83 c4 30	 add	 rsp, 48			; 00000030H
  003f2	5f		 pop	 rdi

; 218  :         DoCarry(c, up, u_count - v_count, wp, w_count - v_count);

  003f3	e9 00 00 00 00	 jmp	 ?DoCarry@Internal@Core@Math@Palmtree@@YAXDPEA_K_K01@Z ; Palmtree::Math::Core::Internal::DoCarry
?Add_Imp_using_ADC@Internal@Core@Math@Palmtree@@YAXPEA_K_K0101@Z ENDP ; Palmtree::Math::Core::Internal::Add_Imp_using_ADC
_TEXT	ENDS
; Function compile flags: /Ogtpy
; File z:\sources\lunor\repos\rougemeilland\palmtree.math.core.uint\palmtree.math.core.uint\pmc_add.cpp
; File z:\sources\lunor\repos\rougemeilland\palmtree.math.core.uint\palmtree.math.core.uint\pmc_inline_func.h
; File z:\sources\lunor\repos\rougemeilland\palmtree.math.core.uint\palmtree.math.core.uint\pmc_add.cpp
; File z:\sources\lunor\repos\rougemeilland\palmtree.math.core.uint\palmtree.math.core.uint\pmc_inline_func.h
; File z:\sources\lunor\repos\rougemeilland\palmtree.math.core.uint\palmtree.math.core.uint\pmc_add.cpp
; File z:\sources\lunor\repos\rougemeilland\palmtree.math.core.uint\palmtree.math.core.uint\pmc_inline_func.h
; File z:\sources\lunor\repos\rougemeilland\palmtree.math.core.uint\palmtree.math.core.uint\pmc_add.cpp
; File z:\sources\lunor\repos\rougemeilland\palmtree.math.core.uint\palmtree.math.core.uint\pmc_inline_func.h
; File z:\sources\lunor\repos\rougemeilland\palmtree.math.core.uint\palmtree.math.core.uint\pmc_add.cpp
; File z:\sources\lunor\repos\rougemeilland\palmtree.math.core.uint\palmtree.math.core.uint\pmc_inline_func.h
; File z:\sources\lunor\repos\rougemeilland\palmtree.math.core.uint\palmtree.math.core.uint\pmc_add.cpp
;	COMDAT ?Add_X_2W@Internal@Core@Math@Palmtree@@YAXPEA_K_K1101@Z
_TEXT	SEGMENT
u_buf$ = 8
u_count$ = 16
v_hi$ = 24
v_lo$ = 32
w_buf$ = 40
w_count$ = 48
?Add_X_2W@Internal@Core@Math@Palmtree@@YAXPEA_K_K1101@Z PROC ; Palmtree::Math::Core::Internal::Add_X_2W, COMDAT

; 105  :         __UNIT_TYPE* up = u_buf;
; 106  :         __UNIT_TYPE* wp = w_buf;

  00000	48 8b 01	 mov	 rax, QWORD PTR [rcx]
  00003	4c 8b da	 mov	 r11, rdx
  00006	4d 8b d1	 mov	 r10, r9
  00009	4c 8b 4c 24 28	 mov	 r9, QWORD PTR w_buf$[rsp]
  0000e	48 8b d1	 mov	 rdx, rcx

; 107  :         char c;
; 108  : 
; 109  :         if (u_count < 2)

  00011	49 83 fb 02	 cmp	 r11, 2
  00015	73 1e		 jae	 SHORT $LN2@Add_X_2W
; File z:\sources\lunor\repos\rougemeilland\palmtree.math.core.uint\palmtree.math.core.uint\pmc_inline_func.h

; 180  :             return (_addcarry_u64(carry, u, v, w));

  00017	49 03 c2	 add	 rax, r10
  0001a	49 89 01	 mov	 QWORD PTR [r9], rax
  0001d	49 83 d0 00	 adc	 r8, 0
  00021	4d 89 41 08	 mov	 QWORD PTR [r9+8], r8
  00025	0f 92 c0	 setb	 al
; File z:\sources\lunor\repos\rougemeilland\palmtree.math.core.uint\palmtree.math.core.uint\pmc_add.cpp

; 120  :             if (c)

  00028	84 c0		 test	 al, al
  0002a	74 3c		 je	 SHORT $LN3@Add_X_2W

; 121  :                 wp[2] = 1;

  0002c	49 c7 41 10 01
	00 00 00	 mov	 QWORD PTR [r9+16], 1

; 140  :         }
; 141  :     }

  00034	c3		 ret	 0
$LN2@Add_X_2W:
; File z:\sources\lunor\repos\rougemeilland\palmtree.math.core.uint\palmtree.math.core.uint\pmc_inline_func.h

; 180  :             return (_addcarry_u64(carry, u, v, w));

  00035	49 03 c2	 add	 rax, r10
  00038	49 89 01	 mov	 QWORD PTR [r9], rax
; File z:\sources\lunor\repos\rougemeilland\palmtree.math.core.uint\palmtree.math.core.uint\pmc_add.cpp

; 134  :             c = _ADD_UNIT(c, *up++, v_hi, wp++);

  0003b	48 8b 41 08	 mov	 rax, QWORD PTR [rcx+8]
; File z:\sources\lunor\repos\rougemeilland\palmtree.math.core.uint\palmtree.math.core.uint\pmc_inline_func.h

; 180  :             return (_addcarry_u64(carry, u, v, w));

  0003f	49 13 c0	 adc	 rax, r8
; File z:\sources\lunor\repos\rougemeilland\palmtree.math.core.uint\palmtree.math.core.uint\pmc_add.cpp

; 135  :             u_count -= 2;

  00042	4d 8d 43 fe	 lea	 r8, QWORD PTR [r11-2]
; File z:\sources\lunor\repos\rougemeilland\palmtree.math.core.uint\palmtree.math.core.uint\pmc_inline_func.h

; 180  :             return (_addcarry_u64(carry, u, v, w));

  00046	49 89 41 08	 mov	 QWORD PTR [r9+8], rax
; File z:\sources\lunor\repos\rougemeilland\palmtree.math.core.uint\palmtree.math.core.uint\pmc_add.cpp

; 136  :             w_count -= 2;

  0004a	48 8b 44 24 30	 mov	 rax, QWORD PTR w_count$[rsp]
; File z:\sources\lunor\repos\rougemeilland\palmtree.math.core.uint\palmtree.math.core.uint\pmc_inline_func.h

; 180  :             return (_addcarry_u64(carry, u, v, w));

  0004f	0f 92 c1	 setb	 cl
; File z:\sources\lunor\repos\rougemeilland\palmtree.math.core.uint\palmtree.math.core.uint\pmc_add.cpp

; 136  :             w_count -= 2;

  00052	48 83 c0 fe	 add	 rax, -2
  00056	49 83 c1 10	 add	 r9, 16
  0005a	48 83 c2 10	 add	 rdx, 16

; 137  : 
; 138  :             // 
; 139  :             DoCarry(c, up, u_count, wp, w_count);

  0005e	48 89 44 24 28	 mov	 QWORD PTR w_buf$[rsp], rax
  00063	e9 00 00 00 00	 jmp	 ?DoCarry@Internal@Core@Math@Palmtree@@YAXDPEA_K_K01@Z ; Palmtree::Math::Core::Internal::DoCarry
$LN3@Add_X_2W:

; 140  :         }
; 141  :     }

  00068	c3		 ret	 0
?Add_X_2W@Internal@Core@Math@Palmtree@@YAXPEA_K_K1101@Z ENDP ; Palmtree::Math::Core::Internal::Add_X_2W
_TEXT	ENDS
; Function compile flags: /Ogtpy
; File z:\sources\lunor\repos\rougemeilland\palmtree.math.core.uint\palmtree.math.core.uint\pmc_add.cpp
; File z:\sources\lunor\repos\rougemeilland\palmtree.math.core.uint\palmtree.math.core.uint\pmc_inline_func.h
; File z:\sources\lunor\repos\rougemeilland\palmtree.math.core.uint\palmtree.math.core.uint\pmc_add.cpp
; File z:\sources\lunor\repos\rougemeilland\palmtree.math.core.uint\palmtree.math.core.uint\pmc_inline_func.h
; File z:\sources\lunor\repos\rougemeilland\palmtree.math.core.uint\palmtree.math.core.uint\pmc_add.cpp
; File z:\sources\lunor\repos\rougemeilland\palmtree.math.core.uint\palmtree.math.core.uint\pmc_inline_func.h
; File z:\sources\lunor\repos\rougemeilland\palmtree.math.core.uint\palmtree.math.core.uint\pmc_add.cpp
;	COMDAT ?Add_X_1W@Internal@Core@Math@Palmtree@@YAXPEA_K_K101@Z
_TEXT	SEGMENT
u_ptr$ = 8
u_count$ = 16
v$ = 24
w_ptr$ = 32
w_count$ = 40
?Add_X_1W@Internal@Core@Math@Palmtree@@YAXPEA_K_K101@Z PROC ; Palmtree::Math::Core::Internal::Add_X_1W, COMDAT

; 92   :         char c;
; 93   : 
; 94   :         // 
; 95   :         c = _ADD_UNIT(0, *u_ptr++, v, w_ptr++);

  00000	48 8b 01	 mov	 rax, QWORD PTR [rcx]
  00003	4c 8b d1	 mov	 r10, rcx
; File z:\sources\lunor\repos\rougemeilland\palmtree.math.core.uint\palmtree.math.core.uint\pmc_inline_func.h

; 180  :             return (_addcarry_u64(carry, u, v, w));

  00006	49 03 c0	 add	 rax, r8
; File z:\sources\lunor\repos\rougemeilland\palmtree.math.core.uint\palmtree.math.core.uint\pmc_add.cpp

; 96   :         --u_count;

  00009	4c 8d 42 ff	 lea	 r8, QWORD PTR [rdx-1]
; File z:\sources\lunor\repos\rougemeilland\palmtree.math.core.uint\palmtree.math.core.uint\pmc_inline_func.h

; 180  :             return (_addcarry_u64(carry, u, v, w));

  0000d	49 89 01	 mov	 QWORD PTR [r9], rax
; File z:\sources\lunor\repos\rougemeilland\palmtree.math.core.uint\palmtree.math.core.uint\pmc_add.cpp

; 97   :         --w_count;

  00010	48 8b 44 24 28	 mov	 rax, QWORD PTR w_count$[rsp]
; File z:\sources\lunor\repos\rougemeilland\palmtree.math.core.uint\palmtree.math.core.uint\pmc_inline_func.h

; 180  :             return (_addcarry_u64(carry, u, v, w));

  00015	0f 92 c1	 setb	 cl
; File z:\sources\lunor\repos\rougemeilland\palmtree.math.core.uint\palmtree.math.core.uint\pmc_add.cpp

; 97   :         --w_count;

  00018	48 ff c8	 dec	 rax
  0001b	49 8d 52 08	 lea	 rdx, QWORD PTR [r10+8]
  0001f	49 83 c1 08	 add	 r9, 8

; 98   : 
; 99   :         // 
; 100  :         DoCarry(c, u_ptr, u_count, w_ptr, w_count);

  00023	48 89 44 24 28	 mov	 QWORD PTR w_count$[rsp], rax
  00028	e9 00 00 00 00	 jmp	 ?DoCarry@Internal@Core@Math@Palmtree@@YAXDPEA_K_K01@Z ; Palmtree::Math::Core::Internal::DoCarry
?Add_X_1W@Internal@Core@Math@Palmtree@@YAXPEA_K_K101@Z ENDP ; Palmtree::Math::Core::Internal::Add_X_1W
_TEXT	ENDS
; Function compile flags: /Ogtpy
; File z:\sources\lunor\repos\rougemeilland\palmtree.math.core.uint\palmtree.math.core.uint\pmc_add.cpp
; File z:\sources\lunor\repos\rougemeilland\palmtree.math.core.uint\palmtree.math.core.uint\pmc_inline_func.h
; File z:\sources\lunor\repos\rougemeilland\palmtree.math.core.uint\palmtree.math.core.uint\pmc_add.cpp
;	COMDAT ?DoCarry@Internal@Core@Math@Palmtree@@YAXDPEA_K_K01@Z
_TEXT	SEGMENT
$T1 = 32
c$ = 96
u_ptr$ = 104
u_count$ = 112
w_ptr$ = 120
w_count$ = 128
?DoCarry@Internal@Core@Math@Palmtree@@YAXDPEA_K_K01@Z PROC ; Palmtree::Math::Core::Internal::DoCarry, COMDAT

; 39   :     {

  00000	48 83 ec 58	 sub	 rsp, 88			; 00000058H

; 40   :         // 
; 41   :         for (;;)
; 42   :         {
; 43   :             if (u_count <= 0)

  00004	4c 8b 9c 24 80
	00 00 00	 mov	 r11, QWORD PTR w_count$[rsp]
  0000c	4d 85 c0	 test	 r8, r8
  0000f	74 28		 je	 SHORT $LN18@DoCarry
$LL2@DoCarry:

; 58   :                 }
; 59   : 
; 60   :                 // u 
; 61   : 
; 62   :                 return;
; 63   :             }
; 64   :             else if (c)

  00011	84 c9		 test	 cl, cl
  00013	74 2f		 je	 SHORT $LN17@DoCarry

; 65   :             {
; 66   :                 // u 
; 67   : 
; 68   :                 // 
; 69   :                 c = _ADD_UNIT(c, *u_ptr++, 0, w_ptr++);

  00015	48 8b 02	 mov	 rax, QWORD PTR [rdx]
  00018	4d 8b d1	 mov	 r10, r9
  0001b	49 83 c1 08	 add	 r9, 8
  0001f	48 83 c2 08	 add	 rdx, 8
; File z:\sources\lunor\repos\rougemeilland\palmtree.math.core.uint\palmtree.math.core.uint\pmc_inline_func.h

; 180  :             return (_addcarry_u64(carry, u, v, w));

  00023	80 c1 ff	 add	 cl, -1
  00026	48 83 d0 00	 adc	 rax, 0
  0002a	49 89 02	 mov	 QWORD PTR [r10], rax
  0002d	0f 92 c1	 setb	 cl
; File z:\sources\lunor\repos\rougemeilland\palmtree.math.core.uint\palmtree.math.core.uint\pmc_add.cpp

; 71   :                 --w_count;

  00030	49 ff cb	 dec	 r11
  00033	49 83 e8 01	 sub	 r8, 1
  00037	75 d8		 jne	 SHORT $LL2@DoCarry
$LN18@DoCarry:

; 44   :             {
; 45   :                 // u 
; 46   : 
; 47   :                 if (c)

  00039	84 c9		 test	 cl, cl
  0003b	74 30		 je	 SHORT $LN6@DoCarry

; 48   :                 {
; 49   :                     // 
; 50   :                     if (w_count <= 0)

  0003d	4d 85 db	 test	 r11, r11
  00040	74 30		 je	 SHORT $LN27@DoCarry
  00042	eb 22		 jmp	 SHORT $LN10@DoCarry
$LN17@DoCarry:

; 72   :             }
; 73   :             else
; 74   :             {
; 75   :                 // u 
; 76   : 
; 77   :                 // u z
; 78   :                 while (u_count > 0)

  00044	4d 85 c0	 test	 r8, r8
  00047	74 24		 je	 SHORT $LN6@DoCarry
  00049	49 2b d1	 sub	 rdx, r9
  0004c	0f 1f 40 00	 npad	 4
$LL5@DoCarry:

; 79   :                 {
; 80   :                     *w_ptr++ = *u_ptr++;

  00050	4a 8b 04 0a	 mov	 rax, QWORD PTR [rdx+r9]
  00054	49 89 01	 mov	 QWORD PTR [r9], rax
  00057	4d 8d 49 08	 lea	 r9, QWORD PTR [r9+8]

; 81   :                     --u_count;

  0005b	49 83 e8 01	 sub	 r8, 1
  0005f	75 ef		 jne	 SHORT $LL5@DoCarry

; 82   :                     --w_count;
; 83   :                 }
; 84   :                 return;
; 85   :             }
; 86   :         }
; 87   :     }

  00061	48 83 c4 58	 add	 rsp, 88			; 00000058H
  00065	c3		 ret	 0
$LN10@DoCarry:

; 56   :                     }
; 57   :                     *w_ptr = 1;

  00066	49 c7 01 01 00
	00 00		 mov	 QWORD PTR [r9], 1
$LN6@DoCarry:

; 82   :                     --w_count;
; 83   :                 }
; 84   :                 return;
; 85   :             }
; 86   :         }
; 87   :     }

  0006d	48 83 c4 58	 add	 rsp, 88			; 00000058H
  00071	c3		 ret	 0
$LN27@DoCarry:

; 51   :                     {
; 52   :                         //  w 
; 53   : 
; 54   :                         // w 
; 55   :                         throw InternalErrorException(L"", L"pcm_add.cpp;DoCarry;1");

  00072	4c 8d 05 00 00
	00 00		 lea	 r8, OFFSET FLAT:??_C@_1CM@CADFJOJJ@?$AAp?$AAc?$AAm?$AA_?$AAa?$AAd?$AAd?$AA?4?$AAc?$AAp?$AAp?$AA?$DL?$AAD?$AAo?$AAC@
  00079	48 8d 15 00 00
	00 00		 lea	 rdx, OFFSET FLAT:??_C@_1BM@FCPAHMHB@?$PP?$IF?$PP?h?$PP?$KI?$PP?i?$PP?$PM?$AAL?$AAz?$AA?$BP?$AAW?$AA?$HO?$AAW?$AA_?$AA?$AC@
  00080	48 8d 4c 24 20	 lea	 rcx, QWORD PTR $T1[rsp]
  00085	e8 00 00 00 00	 call	 ??0InternalErrorException@Internal@Core@Math@Palmtree@@QEAA@PEB_W0@Z ; Palmtree::Math::Core::Internal::InternalErrorException::InternalErrorException
  0008a	48 8d 15 00 00
	00 00		 lea	 rdx, OFFSET FLAT:_TI2?AVInternalErrorException@Internal@Core@Math@Palmtree@@
  00091	48 8d 4c 24 20	 lea	 rcx, QWORD PTR $T1[rsp]
  00096	e8 00 00 00 00	 call	 _CxxThrowException
  0009b	cc		 int	 3
$LN25@DoCarry:
?DoCarry@Internal@Core@Math@Palmtree@@YAXDPEA_K_K01@Z ENDP ; Palmtree::Math::Core::Internal::DoCarry
_TEXT	ENDS
; Function compile flags: /Ogtpy
; File z:\sources\lunor\repos\rougemeilland\palmtree.math.core.uint\palmtree.math.core.uint\autogenerated_inline_func.h
; File z:\sources\lunor\repos\rougemeilland\palmtree.math.core.uint\palmtree.math.core.uint\pmc_inline_func.h
; File z:\sources\lunor\repos\rougemeilland\palmtree.math.core.uint\palmtree.math.core.uint\autogenerated_inline_func.h
; File z:\sources\lunor\repos\rougemeilland\palmtree.math.core.uint\palmtree.math.core.uint\pmc_inline_func.h
; File z:\sources\lunor\repos\rougemeilland\palmtree.math.core.uint\palmtree.math.core.uint\autogenerated_inline_func.h
;	COMDAT _ADD_2WORDS_ADCX
_TEXT	SEGMENT
c$ = 8
xp$ = 16
yp$ = 24
zp$ = 32
_ADD_2WORDS_ADCX PROC					; COMDAT

; 2229 : #ifdef _MSC_VER
; 2230 :     c = _ADDX_UNIT(c, xp[0], yp[0], &zp[0]);

  00000	48 8b 02	 mov	 rax, QWORD PTR [rdx]
; File z:\sources\lunor\repos\rougemeilland\palmtree.math.core.uint\palmtree.math.core.uint\pmc_inline_func.h

; 191  :             return (_addcarryx_u64(carry, u, v, w));

  00003	80 c1 ff	 add	 cl, -1
  00006	66 49 0f 38 f6
	00		 adcx	 rax, QWORD PTR [r8]
  0000c	49 89 01	 mov	 QWORD PTR [r9], rax
; File z:\sources\lunor\repos\rougemeilland\palmtree.math.core.uint\palmtree.math.core.uint\autogenerated_inline_func.h

; 2231 :     c = _ADDX_UNIT(c, xp[1], yp[1], &zp[1]);

  0000f	48 8b 4a 08	 mov	 rcx, QWORD PTR [rdx+8]
; File z:\sources\lunor\repos\rougemeilland\palmtree.math.core.uint\palmtree.math.core.uint\pmc_inline_func.h

; 191  :             return (_addcarryx_u64(carry, u, v, w));

  00013	66 49 0f 38 f6
	48 08		 adcx	 rcx, QWORD PTR [r8+8]
  0001a	49 89 49 08	 mov	 QWORD PTR [r9+8], rcx
  0001e	0f 92 c0	 setb	 al
; File z:\sources\lunor\repos\rougemeilland\palmtree.math.core.uint\palmtree.math.core.uint\autogenerated_inline_func.h

; 2268 : }

  00021	c3		 ret	 0
_ADD_2WORDS_ADCX ENDP
_TEXT	ENDS
; Function compile flags: /Ogtpy
; File z:\sources\lunor\repos\rougemeilland\palmtree.math.core.uint\palmtree.math.core.uint\autogenerated_inline_func.h
; File z:\sources\lunor\repos\rougemeilland\palmtree.math.core.uint\palmtree.math.core.uint\pmc_inline_func.h
; File z:\sources\lunor\repos\rougemeilland\palmtree.math.core.uint\palmtree.math.core.uint\autogenerated_inline_func.h
; File z:\sources\lunor\repos\rougemeilland\palmtree.math.core.uint\palmtree.math.core.uint\pmc_inline_func.h
; File z:\sources\lunor\repos\rougemeilland\palmtree.math.core.uint\palmtree.math.core.uint\autogenerated_inline_func.h
;	COMDAT _ADD_2WORDS_ADC
_TEXT	SEGMENT
c$ = 8
xp$ = 16
yp$ = 24
zp$ = 32
_ADD_2WORDS_ADC PROC					; COMDAT

; 2186 : #ifdef _MSC_VER
; 2187 :     c = _ADD_UNIT(c, xp[0], yp[0], &zp[0]);

  00000	48 8b 02	 mov	 rax, QWORD PTR [rdx]
; File z:\sources\lunor\repos\rougemeilland\palmtree.math.core.uint\palmtree.math.core.uint\pmc_inline_func.h

; 180  :             return (_addcarry_u64(carry, u, v, w));

  00003	80 c1 ff	 add	 cl, -1
  00006	49 13 00	 adc	 rax, QWORD PTR [r8]
  00009	49 89 01	 mov	 QWORD PTR [r9], rax
; File z:\sources\lunor\repos\rougemeilland\palmtree.math.core.uint\palmtree.math.core.uint\autogenerated_inline_func.h

; 2188 :     c = _ADD_UNIT(c, xp[1], yp[1], &zp[1]);

  0000c	48 8b 4a 08	 mov	 rcx, QWORD PTR [rdx+8]
; File z:\sources\lunor\repos\rougemeilland\palmtree.math.core.uint\palmtree.math.core.uint\pmc_inline_func.h

; 180  :             return (_addcarry_u64(carry, u, v, w));

  00010	49 13 48 08	 adc	 rcx, QWORD PTR [r8+8]
  00014	49 89 49 08	 mov	 QWORD PTR [r9+8], rcx
  00018	0f 92 c0	 setb	 al
; File z:\sources\lunor\repos\rougemeilland\palmtree.math.core.uint\palmtree.math.core.uint\autogenerated_inline_func.h

; 2225 : }

  0001b	c3		 ret	 0
_ADD_2WORDS_ADC ENDP
_TEXT	ENDS
; Function compile flags: /Ogtpy
; File z:\sources\lunor\repos\rougemeilland\palmtree.math.core.uint\palmtree.math.core.uint\autogenerated_inline_func.h
; File z:\sources\lunor\repos\rougemeilland\palmtree.math.core.uint\palmtree.math.core.uint\pmc_inline_func.h
; File z:\sources\lunor\repos\rougemeilland\palmtree.math.core.uint\palmtree.math.core.uint\autogenerated_inline_func.h
; File z:\sources\lunor\repos\rougemeilland\palmtree.math.core.uint\palmtree.math.core.uint\pmc_inline_func.h
; File z:\sources\lunor\repos\rougemeilland\palmtree.math.core.uint\palmtree.math.core.uint\autogenerated_inline_func.h
; File z:\sources\lunor\repos\rougemeilland\palmtree.math.core.uint\palmtree.math.core.uint\pmc_inline_func.h
; File z:\sources\lunor\repos\rougemeilland\palmtree.math.core.uint\palmtree.math.core.uint\autogenerated_inline_func.h
; File z:\sources\lunor\repos\rougemeilland\palmtree.math.core.uint\palmtree.math.core.uint\pmc_inline_func.h
; File z:\sources\lunor\repos\rougemeilland\palmtree.math.core.uint\palmtree.math.core.uint\autogenerated_inline_func.h
;	COMDAT _ADD_4WORDS_ADCX
_TEXT	SEGMENT
c$ = 8
xp$ = 16
yp$ = 24
zp$ = 32
_ADD_4WORDS_ADCX PROC					; COMDAT

; 2015 : #ifdef _MSC_VER
; 2016 :     c = _ADDX_UNIT(c, xp[0], yp[0], &zp[0]);

  00000	48 8b 02	 mov	 rax, QWORD PTR [rdx]
; File z:\sources\lunor\repos\rougemeilland\palmtree.math.core.uint\palmtree.math.core.uint\pmc_inline_func.h

; 191  :             return (_addcarryx_u64(carry, u, v, w));

  00003	80 c1 ff	 add	 cl, -1
  00006	66 49 0f 38 f6
	00		 adcx	 rax, QWORD PTR [r8]
  0000c	49 89 01	 mov	 QWORD PTR [r9], rax
; File z:\sources\lunor\repos\rougemeilland\palmtree.math.core.uint\palmtree.math.core.uint\autogenerated_inline_func.h

; 2017 :     c = _ADDX_UNIT(c, xp[1], yp[1], &zp[1]);

  0000f	48 8b 42 08	 mov	 rax, QWORD PTR [rdx+8]
; File z:\sources\lunor\repos\rougemeilland\palmtree.math.core.uint\palmtree.math.core.uint\pmc_inline_func.h

; 191  :             return (_addcarryx_u64(carry, u, v, w));

  00013	66 49 0f 38 f6
	40 08		 adcx	 rax, QWORD PTR [r8+8]
  0001a	49 89 41 08	 mov	 QWORD PTR [r9+8], rax
; File z:\sources\lunor\repos\rougemeilland\palmtree.math.core.uint\palmtree.math.core.uint\autogenerated_inline_func.h

; 2018 :     c = _ADDX_UNIT(c, xp[2], yp[2], &zp[2]);

  0001e	48 8b 42 10	 mov	 rax, QWORD PTR [rdx+16]
; File z:\sources\lunor\repos\rougemeilland\palmtree.math.core.uint\palmtree.math.core.uint\pmc_inline_func.h

; 191  :             return (_addcarryx_u64(carry, u, v, w));

  00022	66 49 0f 38 f6
	40 10		 adcx	 rax, QWORD PTR [r8+16]
  00029	49 89 41 10	 mov	 QWORD PTR [r9+16], rax
; File z:\sources\lunor\repos\rougemeilland\palmtree.math.core.uint\palmtree.math.core.uint\autogenerated_inline_func.h

; 2019 :     c = _ADDX_UNIT(c, xp[3], yp[3], &zp[3]);

  0002d	48 8b 4a 18	 mov	 rcx, QWORD PTR [rdx+24]
; File z:\sources\lunor\repos\rougemeilland\palmtree.math.core.uint\palmtree.math.core.uint\pmc_inline_func.h

; 191  :             return (_addcarryx_u64(carry, u, v, w));

  00031	66 49 0f 38 f6
	48 18		 adcx	 rcx, QWORD PTR [r8+24]
  00038	49 89 49 18	 mov	 QWORD PTR [r9+24], rcx
  0003c	0f 92 c0	 setb	 al
; File z:\sources\lunor\repos\rougemeilland\palmtree.math.core.uint\palmtree.math.core.uint\autogenerated_inline_func.h

; 2068 : }

  0003f	c3		 ret	 0
_ADD_4WORDS_ADCX ENDP
_TEXT	ENDS
; Function compile flags: /Ogtpy
; File z:\sources\lunor\repos\rougemeilland\palmtree.math.core.uint\palmtree.math.core.uint\autogenerated_inline_func.h
; File z:\sources\lunor\repos\rougemeilland\palmtree.math.core.uint\palmtree.math.core.uint\pmc_inline_func.h
; File z:\sources\lunor\repos\rougemeilland\palmtree.math.core.uint\palmtree.math.core.uint\autogenerated_inline_func.h
; File z:\sources\lunor\repos\rougemeilland\palmtree.math.core.uint\palmtree.math.core.uint\pmc_inline_func.h
; File z:\sources\lunor\repos\rougemeilland\palmtree.math.core.uint\palmtree.math.core.uint\autogenerated_inline_func.h
; File z:\sources\lunor\repos\rougemeilland\palmtree.math.core.uint\palmtree.math.core.uint\pmc_inline_func.h
; File z:\sources\lunor\repos\rougemeilland\palmtree.math.core.uint\palmtree.math.core.uint\autogenerated_inline_func.h
; File z:\sources\lunor\repos\rougemeilland\palmtree.math.core.uint\palmtree.math.core.uint\pmc_inline_func.h
; File z:\sources\lunor\repos\rougemeilland\palmtree.math.core.uint\palmtree.math.core.uint\autogenerated_inline_func.h
;	COMDAT _ADD_4WORDS_ADC
_TEXT	SEGMENT
c$ = 8
xp$ = 16
yp$ = 24
zp$ = 32
_ADD_4WORDS_ADC PROC					; COMDAT

; 1958 : #ifdef _MSC_VER
; 1959 :     c = _ADD_UNIT(c, xp[0], yp[0], &zp[0]);

  00000	48 8b 02	 mov	 rax, QWORD PTR [rdx]
; File z:\sources\lunor\repos\rougemeilland\palmtree.math.core.uint\palmtree.math.core.uint\pmc_inline_func.h

; 180  :             return (_addcarry_u64(carry, u, v, w));

  00003	80 c1 ff	 add	 cl, -1
  00006	49 13 00	 adc	 rax, QWORD PTR [r8]
  00009	49 89 01	 mov	 QWORD PTR [r9], rax
; File z:\sources\lunor\repos\rougemeilland\palmtree.math.core.uint\palmtree.math.core.uint\autogenerated_inline_func.h

; 1960 :     c = _ADD_UNIT(c, xp[1], yp[1], &zp[1]);

  0000c	48 8b 42 08	 mov	 rax, QWORD PTR [rdx+8]
; File z:\sources\lunor\repos\rougemeilland\palmtree.math.core.uint\palmtree.math.core.uint\pmc_inline_func.h

; 180  :             return (_addcarry_u64(carry, u, v, w));

  00010	49 13 40 08	 adc	 rax, QWORD PTR [r8+8]
  00014	49 89 41 08	 mov	 QWORD PTR [r9+8], rax
; File z:\sources\lunor\repos\rougemeilland\palmtree.math.core.uint\palmtree.math.core.uint\autogenerated_inline_func.h

; 1961 :     c = _ADD_UNIT(c, xp[2], yp[2], &zp[2]);

  00018	48 8b 42 10	 mov	 rax, QWORD PTR [rdx+16]
; File z:\sources\lunor\repos\rougemeilland\palmtree.math.core.uint\palmtree.math.core.uint\pmc_inline_func.h

; 180  :             return (_addcarry_u64(carry, u, v, w));

  0001c	49 13 40 10	 adc	 rax, QWORD PTR [r8+16]
  00020	49 89 41 10	 mov	 QWORD PTR [r9+16], rax
; File z:\sources\lunor\repos\rougemeilland\palmtree.math.core.uint\palmtree.math.core.uint\autogenerated_inline_func.h

; 1962 :     c = _ADD_UNIT(c, xp[3], yp[3], &zp[3]);

  00024	48 8b 4a 18	 mov	 rcx, QWORD PTR [rdx+24]
; File z:\sources\lunor\repos\rougemeilland\palmtree.math.core.uint\palmtree.math.core.uint\pmc_inline_func.h

; 180  :             return (_addcarry_u64(carry, u, v, w));

  00028	49 13 48 18	 adc	 rcx, QWORD PTR [r8+24]
  0002c	49 89 49 18	 mov	 QWORD PTR [r9+24], rcx
  00030	0f 92 c0	 setb	 al
; File z:\sources\lunor\repos\rougemeilland\palmtree.math.core.uint\palmtree.math.core.uint\autogenerated_inline_func.h

; 2011 : }

  00033	c3		 ret	 0
_ADD_4WORDS_ADC ENDP
_TEXT	ENDS
; Function compile flags: /Ogtpy
; File z:\sources\lunor\repos\rougemeilland\palmtree.math.core.uint\palmtree.math.core.uint\autogenerated_inline_func.h
; File z:\sources\lunor\repos\rougemeilland\palmtree.math.core.uint\palmtree.math.core.uint\pmc_inline_func.h
; File z:\sources\lunor\repos\rougemeilland\palmtree.math.core.uint\palmtree.math.core.uint\autogenerated_inline_func.h
; File z:\sources\lunor\repos\rougemeilland\palmtree.math.core.uint\palmtree.math.core.uint\pmc_inline_func.h
; File z:\sources\lunor\repos\rougemeilland\palmtree.math.core.uint\palmtree.math.core.uint\autogenerated_inline_func.h
; File z:\sources\lunor\repos\rougemeilland\palmtree.math.core.uint\palmtree.math.core.uint\pmc_inline_func.h
; File z:\sources\lunor\repos\rougemeilland\palmtree.math.core.uint\palmtree.math.core.uint\autogenerated_inline_func.h
; File z:\sources\lunor\repos\rougemeilland\palmtree.math.core.uint\palmtree.math.core.uint\pmc_inline_func.h
; File z:\sources\lunor\repos\rougemeilland\palmtree.math.core.uint\palmtree.math.core.uint\autogenerated_inline_func.h
; File z:\sources\lunor\repos\rougemeilland\palmtree.math.core.uint\palmtree.math.core.uint\pmc_inline_func.h
; File z:\sources\lunor\repos\rougemeilland\palmtree.math.core.uint\palmtree.math.core.uint\autogenerated_inline_func.h
; File z:\sources\lunor\repos\rougemeilland\palmtree.math.core.uint\palmtree.math.core.uint\pmc_inline_func.h
; File z:\sources\lunor\repos\rougemeilland\palmtree.math.core.uint\palmtree.math.core.uint\autogenerated_inline_func.h
; File z:\sources\lunor\repos\rougemeilland\palmtree.math.core.uint\palmtree.math.core.uint\pmc_inline_func.h
; File z:\sources\lunor\repos\rougemeilland\palmtree.math.core.uint\palmtree.math.core.uint\autogenerated_inline_func.h
; File z:\sources\lunor\repos\rougemeilland\palmtree.math.core.uint\palmtree.math.core.uint\pmc_inline_func.h
; File z:\sources\lunor\repos\rougemeilland\palmtree.math.core.uint\palmtree.math.core.uint\autogenerated_inline_func.h
;	COMDAT _ADD_8WORDS_ADCX
_TEXT	SEGMENT
c$ = 8
xp$ = 16
yp$ = 24
zp$ = 32
_ADD_8WORDS_ADCX PROC					; COMDAT

; 1703 : #ifdef _MSC_VER
; 1704 :     c = _ADDX_UNIT(c, xp[0], yp[0], &zp[0]);

  00000	48 8b 02	 mov	 rax, QWORD PTR [rdx]
; File z:\sources\lunor\repos\rougemeilland\palmtree.math.core.uint\palmtree.math.core.uint\pmc_inline_func.h

; 191  :             return (_addcarryx_u64(carry, u, v, w));

  00003	80 c1 ff	 add	 cl, -1
  00006	66 49 0f 38 f6
	00		 adcx	 rax, QWORD PTR [r8]
  0000c	49 89 01	 mov	 QWORD PTR [r9], rax
; File z:\sources\lunor\repos\rougemeilland\palmtree.math.core.uint\palmtree.math.core.uint\autogenerated_inline_func.h

; 1705 :     c = _ADDX_UNIT(c, xp[1], yp[1], &zp[1]);

  0000f	48 8b 42 08	 mov	 rax, QWORD PTR [rdx+8]
; File z:\sources\lunor\repos\rougemeilland\palmtree.math.core.uint\palmtree.math.core.uint\pmc_inline_func.h

; 191  :             return (_addcarryx_u64(carry, u, v, w));

  00013	66 49 0f 38 f6
	40 08		 adcx	 rax, QWORD PTR [r8+8]
  0001a	49 89 41 08	 mov	 QWORD PTR [r9+8], rax
; File z:\sources\lunor\repos\rougemeilland\palmtree.math.core.uint\palmtree.math.core.uint\autogenerated_inline_func.h

; 1706 :     c = _ADDX_UNIT(c, xp[2], yp[2], &zp[2]);

  0001e	48 8b 42 10	 mov	 rax, QWORD PTR [rdx+16]
; File z:\sources\lunor\repos\rougemeilland\palmtree.math.core.uint\palmtree.math.core.uint\pmc_inline_func.h

; 191  :             return (_addcarryx_u64(carry, u, v, w));

  00022	66 49 0f 38 f6
	40 10		 adcx	 rax, QWORD PTR [r8+16]
  00029	49 89 41 10	 mov	 QWORD PTR [r9+16], rax
; File z:\sources\lunor\repos\rougemeilland\palmtree.math.core.uint\palmtree.math.core.uint\autogenerated_inline_func.h

; 1707 :     c = _ADDX_UNIT(c, xp[3], yp[3], &zp[3]);

  0002d	48 8b 42 18	 mov	 rax, QWORD PTR [rdx+24]
; File z:\sources\lunor\repos\rougemeilland\palmtree.math.core.uint\palmtree.math.core.uint\pmc_inline_func.h

; 191  :             return (_addcarryx_u64(carry, u, v, w));

  00031	66 49 0f 38 f6
	40 18		 adcx	 rax, QWORD PTR [r8+24]
  00038	49 89 41 18	 mov	 QWORD PTR [r9+24], rax
; File z:\sources\lunor\repos\rougemeilland\palmtree.math.core.uint\palmtree.math.core.uint\autogenerated_inline_func.h

; 1708 :     c = _ADDX_UNIT(c, xp[4], yp[4], &zp[4]);

  0003c	48 8b 42 20	 mov	 rax, QWORD PTR [rdx+32]
; File z:\sources\lunor\repos\rougemeilland\palmtree.math.core.uint\palmtree.math.core.uint\pmc_inline_func.h

; 191  :             return (_addcarryx_u64(carry, u, v, w));

  00040	66 49 0f 38 f6
	40 20		 adcx	 rax, QWORD PTR [r8+32]
  00047	49 89 41 20	 mov	 QWORD PTR [r9+32], rax
; File z:\sources\lunor\repos\rougemeilland\palmtree.math.core.uint\palmtree.math.core.uint\autogenerated_inline_func.h

; 1709 :     c = _ADDX_UNIT(c, xp[5], yp[5], &zp[5]);

  0004b	48 8b 42 28	 mov	 rax, QWORD PTR [rdx+40]
; File z:\sources\lunor\repos\rougemeilland\palmtree.math.core.uint\palmtree.math.core.uint\pmc_inline_func.h

; 191  :             return (_addcarryx_u64(carry, u, v, w));

  0004f	66 49 0f 38 f6
	40 28		 adcx	 rax, QWORD PTR [r8+40]
  00056	49 89 41 28	 mov	 QWORD PTR [r9+40], rax
; File z:\sources\lunor\repos\rougemeilland\palmtree.math.core.uint\palmtree.math.core.uint\autogenerated_inline_func.h

; 1710 :     c = _ADDX_UNIT(c, xp[6], yp[6], &zp[6]);

  0005a	48 8b 42 30	 mov	 rax, QWORD PTR [rdx+48]
; File z:\sources\lunor\repos\rougemeilland\palmtree.math.core.uint\palmtree.math.core.uint\pmc_inline_func.h

; 191  :             return (_addcarryx_u64(carry, u, v, w));

  0005e	66 49 0f 38 f6
	40 30		 adcx	 rax, QWORD PTR [r8+48]
  00065	49 89 41 30	 mov	 QWORD PTR [r9+48], rax
; File z:\sources\lunor\repos\rougemeilland\palmtree.math.core.uint\palmtree.math.core.uint\autogenerated_inline_func.h

; 1711 :     c = _ADDX_UNIT(c, xp[7], yp[7], &zp[7]);

  00069	48 8b 4a 38	 mov	 rcx, QWORD PTR [rdx+56]
; File z:\sources\lunor\repos\rougemeilland\palmtree.math.core.uint\palmtree.math.core.uint\pmc_inline_func.h

; 191  :             return (_addcarryx_u64(carry, u, v, w));

  0006d	66 49 0f 38 f6
	48 38		 adcx	 rcx, QWORD PTR [r8+56]
  00074	49 89 49 38	 mov	 QWORD PTR [r9+56], rcx
  00078	0f 92 c0	 setb	 al
; File z:\sources\lunor\repos\rougemeilland\palmtree.math.core.uint\palmtree.math.core.uint\autogenerated_inline_func.h

; 1784 : }

  0007b	c3		 ret	 0
_ADD_8WORDS_ADCX ENDP
_TEXT	ENDS
; Function compile flags: /Ogtpy
; File z:\sources\lunor\repos\rougemeilland\palmtree.math.core.uint\palmtree.math.core.uint\autogenerated_inline_func.h
; File z:\sources\lunor\repos\rougemeilland\palmtree.math.core.uint\palmtree.math.core.uint\pmc_inline_func.h
; File z:\sources\lunor\repos\rougemeilland\palmtree.math.core.uint\palmtree.math.core.uint\autogenerated_inline_func.h
; File z:\sources\lunor\repos\rougemeilland\palmtree.math.core.uint\palmtree.math.core.uint\pmc_inline_func.h
; File z:\sources\lunor\repos\rougemeilland\palmtree.math.core.uint\palmtree.math.core.uint\autogenerated_inline_func.h
; File z:\sources\lunor\repos\rougemeilland\palmtree.math.core.uint\palmtree.math.core.uint\pmc_inline_func.h
; File z:\sources\lunor\repos\rougemeilland\palmtree.math.core.uint\palmtree.math.core.uint\autogenerated_inline_func.h
; File z:\sources\lunor\repos\rougemeilland\palmtree.math.core.uint\palmtree.math.core.uint\pmc_inline_func.h
; File z:\sources\lunor\repos\rougemeilland\palmtree.math.core.uint\palmtree.math.core.uint\autogenerated_inline_func.h
; File z:\sources\lunor\repos\rougemeilland\palmtree.math.core.uint\palmtree.math.core.uint\pmc_inline_func.h
; File z:\sources\lunor\repos\rougemeilland\palmtree.math.core.uint\palmtree.math.core.uint\autogenerated_inline_func.h
; File z:\sources\lunor\repos\rougemeilland\palmtree.math.core.uint\palmtree.math.core.uint\pmc_inline_func.h
; File z:\sources\lunor\repos\rougemeilland\palmtree.math.core.uint\palmtree.math.core.uint\autogenerated_inline_func.h
; File z:\sources\lunor\repos\rougemeilland\palmtree.math.core.uint\palmtree.math.core.uint\pmc_inline_func.h
; File z:\sources\lunor\repos\rougemeilland\palmtree.math.core.uint\palmtree.math.core.uint\autogenerated_inline_func.h
; File z:\sources\lunor\repos\rougemeilland\palmtree.math.core.uint\palmtree.math.core.uint\pmc_inline_func.h
; File z:\sources\lunor\repos\rougemeilland\palmtree.math.core.uint\palmtree.math.core.uint\autogenerated_inline_func.h
;	COMDAT _ADD_8WORDS_ADC
_TEXT	SEGMENT
c$ = 8
xp$ = 16
yp$ = 24
zp$ = 32
_ADD_8WORDS_ADC PROC					; COMDAT

; 1618 : #ifdef _MSC_VER
; 1619 :     c = _ADD_UNIT(c, xp[0], yp[0], &zp[0]);

  00000	48 8b 02	 mov	 rax, QWORD PTR [rdx]
; File z:\sources\lunor\repos\rougemeilland\palmtree.math.core.uint\palmtree.math.core.uint\pmc_inline_func.h

; 180  :             return (_addcarry_u64(carry, u, v, w));

  00003	80 c1 ff	 add	 cl, -1
  00006	49 13 00	 adc	 rax, QWORD PTR [r8]
  00009	49 89 01	 mov	 QWORD PTR [r9], rax
; File z:\sources\lunor\repos\rougemeilland\palmtree.math.core.uint\palmtree.math.core.uint\autogenerated_inline_func.h

; 1620 :     c = _ADD_UNIT(c, xp[1], yp[1], &zp[1]);

  0000c	48 8b 42 08	 mov	 rax, QWORD PTR [rdx+8]
; File z:\sources\lunor\repos\rougemeilland\palmtree.math.core.uint\palmtree.math.core.uint\pmc_inline_func.h

; 180  :             return (_addcarry_u64(carry, u, v, w));

  00010	49 13 40 08	 adc	 rax, QWORD PTR [r8+8]
  00014	49 89 41 08	 mov	 QWORD PTR [r9+8], rax
; File z:\sources\lunor\repos\rougemeilland\palmtree.math.core.uint\palmtree.math.core.uint\autogenerated_inline_func.h

; 1621 :     c = _ADD_UNIT(c, xp[2], yp[2], &zp[2]);

  00018	48 8b 42 10	 mov	 rax, QWORD PTR [rdx+16]
; File z:\sources\lunor\repos\rougemeilland\palmtree.math.core.uint\palmtree.math.core.uint\pmc_inline_func.h

; 180  :             return (_addcarry_u64(carry, u, v, w));

  0001c	49 13 40 10	 adc	 rax, QWORD PTR [r8+16]
  00020	49 89 41 10	 mov	 QWORD PTR [r9+16], rax
; File z:\sources\lunor\repos\rougemeilland\palmtree.math.core.uint\palmtree.math.core.uint\autogenerated_inline_func.h

; 1622 :     c = _ADD_UNIT(c, xp[3], yp[3], &zp[3]);

  00024	48 8b 42 18	 mov	 rax, QWORD PTR [rdx+24]
; File z:\sources\lunor\repos\rougemeilland\palmtree.math.core.uint\palmtree.math.core.uint\pmc_inline_func.h

; 180  :             return (_addcarry_u64(carry, u, v, w));

  00028	49 13 40 18	 adc	 rax, QWORD PTR [r8+24]
  0002c	49 89 41 18	 mov	 QWORD PTR [r9+24], rax
; File z:\sources\lunor\repos\rougemeilland\palmtree.math.core.uint\palmtree.math.core.uint\autogenerated_inline_func.h

; 1623 :     c = _ADD_UNIT(c, xp[4], yp[4], &zp[4]);

  00030	48 8b 42 20	 mov	 rax, QWORD PTR [rdx+32]
; File z:\sources\lunor\repos\rougemeilland\palmtree.math.core.uint\palmtree.math.core.uint\pmc_inline_func.h

; 180  :             return (_addcarry_u64(carry, u, v, w));

  00034	49 13 40 20	 adc	 rax, QWORD PTR [r8+32]
  00038	49 89 41 20	 mov	 QWORD PTR [r9+32], rax
; File z:\sources\lunor\repos\rougemeilland\palmtree.math.core.uint\palmtree.math.core.uint\autogenerated_inline_func.h

; 1624 :     c = _ADD_UNIT(c, xp[5], yp[5], &zp[5]);

  0003c	48 8b 42 28	 mov	 rax, QWORD PTR [rdx+40]
; File z:\sources\lunor\repos\rougemeilland\palmtree.math.core.uint\palmtree.math.core.uint\pmc_inline_func.h

; 180  :             return (_addcarry_u64(carry, u, v, w));

  00040	49 13 40 28	 adc	 rax, QWORD PTR [r8+40]
  00044	49 89 41 28	 mov	 QWORD PTR [r9+40], rax
; File z:\sources\lunor\repos\rougemeilland\palmtree.math.core.uint\palmtree.math.core.uint\autogenerated_inline_func.h

; 1625 :     c = _ADD_UNIT(c, xp[6], yp[6], &zp[6]);

  00048	48 8b 42 30	 mov	 rax, QWORD PTR [rdx+48]
; File z:\sources\lunor\repos\rougemeilland\palmtree.math.core.uint\palmtree.math.core.uint\pmc_inline_func.h

; 180  :             return (_addcarry_u64(carry, u, v, w));

  0004c	49 13 40 30	 adc	 rax, QWORD PTR [r8+48]
  00050	49 89 41 30	 mov	 QWORD PTR [r9+48], rax
; File z:\sources\lunor\repos\rougemeilland\palmtree.math.core.uint\palmtree.math.core.uint\autogenerated_inline_func.h

; 1626 :     c = _ADD_UNIT(c, xp[7], yp[7], &zp[7]);

  00054	48 8b 4a 38	 mov	 rcx, QWORD PTR [rdx+56]
; File z:\sources\lunor\repos\rougemeilland\palmtree.math.core.uint\palmtree.math.core.uint\pmc_inline_func.h

; 180  :             return (_addcarry_u64(carry, u, v, w));

  00058	49 13 48 38	 adc	 rcx, QWORD PTR [r8+56]
  0005c	49 89 49 38	 mov	 QWORD PTR [r9+56], rcx
  00060	0f 92 c0	 setb	 al
; File z:\sources\lunor\repos\rougemeilland\palmtree.math.core.uint\palmtree.math.core.uint\autogenerated_inline_func.h

; 1699 : }

  00063	c3		 ret	 0
_ADD_8WORDS_ADC ENDP
_TEXT	ENDS
; Function compile flags: /Ogtpy
; File z:\sources\lunor\repos\rougemeilland\palmtree.math.core.uint\palmtree.math.core.uint\autogenerated_inline_func.h
; File z:\sources\lunor\repos\rougemeilland\palmtree.math.core.uint\palmtree.math.core.uint\pmc_inline_func.h
; File z:\sources\lunor\repos\rougemeilland\palmtree.math.core.uint\palmtree.math.core.uint\autogenerated_inline_func.h
; File z:\sources\lunor\repos\rougemeilland\palmtree.math.core.uint\palmtree.math.core.uint\pmc_inline_func.h
; File z:\sources\lunor\repos\rougemeilland\palmtree.math.core.uint\palmtree.math.core.uint\autogenerated_inline_func.h
; File z:\sources\lunor\repos\rougemeilland\palmtree.math.core.uint\palmtree.math.core.uint\pmc_inline_func.h
; File z:\sources\lunor\repos\rougemeilland\palmtree.math.core.uint\palmtree.math.core.uint\autogenerated_inline_func.h
; File z:\sources\lunor\repos\rougemeilland\palmtree.math.core.uint\palmtree.math.core.uint\pmc_inline_func.h
; File z:\sources\lunor\repos\rougemeilland\palmtree.math.core.uint\palmtree.math.core.uint\autogenerated_inline_func.h
; File z:\sources\lunor\repos\rougemeilland\palmtree.math.core.uint\palmtree.math.core.uint\pmc_inline_func.h
; File z:\sources\lunor\repos\rougemeilland\palmtree.math.core.uint\palmtree.math.core.uint\autogenerated_inline_func.h
; File z:\sources\lunor\repos\rougemeilland\palmtree.math.core.uint\palmtree.math.core.uint\pmc_inline_func.h
; File z:\sources\lunor\repos\rougemeilland\palmtree.math.core.uint\palmtree.math.core.uint\autogenerated_inline_func.h
; File z:\sources\lunor\repos\rougemeilland\palmtree.math.core.uint\palmtree.math.core.uint\pmc_inline_func.h
; File z:\sources\lunor\repos\rougemeilland\palmtree.math.core.uint\palmtree.math.core.uint\autogenerated_inline_func.h
; File z:\sources\lunor\repos\rougemeilland\palmtree.math.core.uint\palmtree.math.core.uint\pmc_inline_func.h
; File z:\sources\lunor\repos\rougemeilland\palmtree.math.core.uint\palmtree.math.core.uint\autogenerated_inline_func.h
; File z:\sources\lunor\repos\rougemeilland\palmtree.math.core.uint\palmtree.math.core.uint\pmc_inline_func.h
; File z:\sources\lunor\repos\rougemeilland\palmtree.math.core.uint\palmtree.math.core.uint\autogenerated_inline_func.h
; File z:\sources\lunor\repos\rougemeilland\palmtree.math.core.uint\palmtree.math.core.uint\pmc_inline_func.h
; File z:\sources\lunor\repos\rougemeilland\palmtree.math.core.uint\palmtree.math.core.uint\autogenerated_inline_func.h
; File z:\sources\lunor\repos\rougemeilland\palmtree.math.core.uint\palmtree.math.core.uint\pmc_inline_func.h
; File z:\sources\lunor\repos\rougemeilland\palmtree.math.core.uint\palmtree.math.core.uint\autogenerated_inline_func.h
; File z:\sources\lunor\repos\rougemeilland\palmtree.math.core.uint\palmtree.math.core.uint\pmc_inline_func.h
; File z:\sources\lunor\repos\rougemeilland\palmtree.math.core.uint\palmtree.math.core.uint\autogenerated_inline_func.h
; File z:\sources\lunor\repos\rougemeilland\palmtree.math.core.uint\palmtree.math.core.uint\pmc_inline_func.h
; File z:\sources\lunor\repos\rougemeilland\palmtree.math.core.uint\palmtree.math.core.uint\autogenerated_inline_func.h
; File z:\sources\lunor\repos\rougemeilland\palmtree.math.core.uint\palmtree.math.core.uint\pmc_inline_func.h
; File z:\sources\lunor\repos\rougemeilland\palmtree.math.core.uint\palmtree.math.core.uint\autogenerated_inline_func.h
; File z:\sources\lunor\repos\rougemeilland\palmtree.math.core.uint\palmtree.math.core.uint\pmc_inline_func.h
; File z:\sources\lunor\repos\rougemeilland\palmtree.math.core.uint\palmtree.math.core.uint\autogenerated_inline_func.h
; File z:\sources\lunor\repos\rougemeilland\palmtree.math.core.uint\palmtree.math.core.uint\pmc_inline_func.h
; File z:\sources\lunor\repos\rougemeilland\palmtree.math.core.uint\palmtree.math.core.uint\autogenerated_inline_func.h
;	COMDAT _ADD_16WORDS_ADCX
_TEXT	SEGMENT
c$ = 8
xp$ = 16
yp$ = 24
zp$ = 32
_ADD_16WORDS_ADCX PROC					; COMDAT

; 1195 : #ifdef _MSC_VER
; 1196 :     c = _ADDX_UNIT(c, xp[0], yp[0], &zp[0]);

  00000	48 8b 02	 mov	 rax, QWORD PTR [rdx]
; File z:\sources\lunor\repos\rougemeilland\palmtree.math.core.uint\palmtree.math.core.uint\pmc_inline_func.h

; 191  :             return (_addcarryx_u64(carry, u, v, w));

  00003	80 c1 ff	 add	 cl, -1
  00006	66 49 0f 38 f6
	00		 adcx	 rax, QWORD PTR [r8]
  0000c	49 89 01	 mov	 QWORD PTR [r9], rax
; File z:\sources\lunor\repos\rougemeilland\palmtree.math.core.uint\palmtree.math.core.uint\autogenerated_inline_func.h

; 1197 :     c = _ADDX_UNIT(c, xp[1], yp[1], &zp[1]);

  0000f	48 8b 42 08	 mov	 rax, QWORD PTR [rdx+8]
; File z:\sources\lunor\repos\rougemeilland\palmtree.math.core.uint\palmtree.math.core.uint\pmc_inline_func.h

; 191  :             return (_addcarryx_u64(carry, u, v, w));

  00013	66 49 0f 38 f6
	40 08		 adcx	 rax, QWORD PTR [r8+8]
  0001a	49 89 41 08	 mov	 QWORD PTR [r9+8], rax
; File z:\sources\lunor\repos\rougemeilland\palmtree.math.core.uint\palmtree.math.core.uint\autogenerated_inline_func.h

; 1198 :     c = _ADDX_UNIT(c, xp[2], yp[2], &zp[2]);

  0001e	48 8b 42 10	 mov	 rax, QWORD PTR [rdx+16]
; File z:\sources\lunor\repos\rougemeilland\palmtree.math.core.uint\palmtree.math.core.uint\pmc_inline_func.h

; 191  :             return (_addcarryx_u64(carry, u, v, w));

  00022	66 49 0f 38 f6
	40 10		 adcx	 rax, QWORD PTR [r8+16]
  00029	49 89 41 10	 mov	 QWORD PTR [r9+16], rax
; File z:\sources\lunor\repos\rougemeilland\palmtree.math.core.uint\palmtree.math.core.uint\autogenerated_inline_func.h

; 1199 :     c = _ADDX_UNIT(c, xp[3], yp[3], &zp[3]);

  0002d	48 8b 42 18	 mov	 rax, QWORD PTR [rdx+24]
; File z:\sources\lunor\repos\rougemeilland\palmtree.math.core.uint\palmtree.math.core.uint\pmc_inline_func.h

; 191  :             return (_addcarryx_u64(carry, u, v, w));

  00031	66 49 0f 38 f6
	40 18		 adcx	 rax, QWORD PTR [r8+24]
  00038	49 89 41 18	 mov	 QWORD PTR [r9+24], rax
; File z:\sources\lunor\repos\rougemeilland\palmtree.math.core.uint\palmtree.math.core.uint\autogenerated_inline_func.h

; 1200 :     c = _ADDX_UNIT(c, xp[4], yp[4], &zp[4]);

  0003c	48 8b 42 20	 mov	 rax, QWORD PTR [rdx+32]
; File z:\sources\lunor\repos\rougemeilland\palmtree.math.core.uint\palmtree.math.core.uint\pmc_inline_func.h

; 191  :             return (_addcarryx_u64(carry, u, v, w));

  00040	66 49 0f 38 f6
	40 20		 adcx	 rax, QWORD PTR [r8+32]
  00047	49 89 41 20	 mov	 QWORD PTR [r9+32], rax
; File z:\sources\lunor\repos\rougemeilland\palmtree.math.core.uint\palmtree.math.core.uint\autogenerated_inline_func.h

; 1201 :     c = _ADDX_UNIT(c, xp[5], yp[5], &zp[5]);

  0004b	48 8b 42 28	 mov	 rax, QWORD PTR [rdx+40]
; File z:\sources\lunor\repos\rougemeilland\palmtree.math.core.uint\palmtree.math.core.uint\pmc_inline_func.h

; 191  :             return (_addcarryx_u64(carry, u, v, w));

  0004f	66 49 0f 38 f6
	40 28		 adcx	 rax, QWORD PTR [r8+40]
  00056	49 89 41 28	 mov	 QWORD PTR [r9+40], rax
; File z:\sources\lunor\repos\rougemeilland\palmtree.math.core.uint\palmtree.math.core.uint\autogenerated_inline_func.h

; 1202 :     c = _ADDX_UNIT(c, xp[6], yp[6], &zp[6]);

  0005a	48 8b 42 30	 mov	 rax, QWORD PTR [rdx+48]
; File z:\sources\lunor\repos\rougemeilland\palmtree.math.core.uint\palmtree.math.core.uint\pmc_inline_func.h

; 191  :             return (_addcarryx_u64(carry, u, v, w));

  0005e	66 49 0f 38 f6
	40 30		 adcx	 rax, QWORD PTR [r8+48]
  00065	49 89 41 30	 mov	 QWORD PTR [r9+48], rax
; File z:\sources\lunor\repos\rougemeilland\palmtree.math.core.uint\palmtree.math.core.uint\autogenerated_inline_func.h

; 1203 :     c = _ADDX_UNIT(c, xp[7], yp[7], &zp[7]);

  00069	48 8b 42 38	 mov	 rax, QWORD PTR [rdx+56]
; File z:\sources\lunor\repos\rougemeilland\palmtree.math.core.uint\palmtree.math.core.uint\pmc_inline_func.h

; 191  :             return (_addcarryx_u64(carry, u, v, w));

  0006d	66 49 0f 38 f6
	40 38		 adcx	 rax, QWORD PTR [r8+56]
  00074	49 89 41 38	 mov	 QWORD PTR [r9+56], rax
; File z:\sources\lunor\repos\rougemeilland\palmtree.math.core.uint\palmtree.math.core.uint\autogenerated_inline_func.h

; 1204 :     c = _ADDX_UNIT(c, xp[8], yp[8], &zp[8]);

  00078	48 8b 42 40	 mov	 rax, QWORD PTR [rdx+64]
; File z:\sources\lunor\repos\rougemeilland\palmtree.math.core.uint\palmtree.math.core.uint\pmc_inline_func.h

; 191  :             return (_addcarryx_u64(carry, u, v, w));

  0007c	66 49 0f 38 f6
	40 40		 adcx	 rax, QWORD PTR [r8+64]
  00083	49 89 41 40	 mov	 QWORD PTR [r9+64], rax
; File z:\sources\lunor\repos\rougemeilland\palmtree.math.core.uint\palmtree.math.core.uint\autogenerated_inline_func.h

; 1205 :     c = _ADDX_UNIT(c, xp[9], yp[9], &zp[9]);

  00087	48 8b 42 48	 mov	 rax, QWORD PTR [rdx+72]
; File z:\sources\lunor\repos\rougemeilland\palmtree.math.core.uint\palmtree.math.core.uint\pmc_inline_func.h

; 191  :             return (_addcarryx_u64(carry, u, v, w));

  0008b	66 49 0f 38 f6
	40 48		 adcx	 rax, QWORD PTR [r8+72]
  00092	49 89 41 48	 mov	 QWORD PTR [r9+72], rax
; File z:\sources\lunor\repos\rougemeilland\palmtree.math.core.uint\palmtree.math.core.uint\autogenerated_inline_func.h

; 1206 :     c = _ADDX_UNIT(c, xp[10], yp[10], &zp[10]);

  00096	48 8b 42 50	 mov	 rax, QWORD PTR [rdx+80]
; File z:\sources\lunor\repos\rougemeilland\palmtree.math.core.uint\palmtree.math.core.uint\pmc_inline_func.h

; 191  :             return (_addcarryx_u64(carry, u, v, w));

  0009a	66 49 0f 38 f6
	40 50		 adcx	 rax, QWORD PTR [r8+80]
  000a1	49 89 41 50	 mov	 QWORD PTR [r9+80], rax
; File z:\sources\lunor\repos\rougemeilland\palmtree.math.core.uint\palmtree.math.core.uint\autogenerated_inline_func.h

; 1207 :     c = _ADDX_UNIT(c, xp[11], yp[11], &zp[11]);

  000a5	48 8b 42 58	 mov	 rax, QWORD PTR [rdx+88]
; File z:\sources\lunor\repos\rougemeilland\palmtree.math.core.uint\palmtree.math.core.uint\pmc_inline_func.h

; 191  :             return (_addcarryx_u64(carry, u, v, w));

  000a9	66 49 0f 38 f6
	40 58		 adcx	 rax, QWORD PTR [r8+88]
  000b0	49 89 41 58	 mov	 QWORD PTR [r9+88], rax
; File z:\sources\lunor\repos\rougemeilland\palmtree.math.core.uint\palmtree.math.core.uint\autogenerated_inline_func.h

; 1208 :     c = _ADDX_UNIT(c, xp[12], yp[12], &zp[12]);

  000b4	48 8b 42 60	 mov	 rax, QWORD PTR [rdx+96]
; File z:\sources\lunor\repos\rougemeilland\palmtree.math.core.uint\palmtree.math.core.uint\pmc_inline_func.h

; 191  :             return (_addcarryx_u64(carry, u, v, w));

  000b8	66 49 0f 38 f6
	40 60		 adcx	 rax, QWORD PTR [r8+96]
  000bf	49 89 41 60	 mov	 QWORD PTR [r9+96], rax
; File z:\sources\lunor\repos\rougemeilland\palmtree.math.core.uint\palmtree.math.core.uint\autogenerated_inline_func.h

; 1209 :     c = _ADDX_UNIT(c, xp[13], yp[13], &zp[13]);

  000c3	48 8b 42 68	 mov	 rax, QWORD PTR [rdx+104]
; File z:\sources\lunor\repos\rougemeilland\palmtree.math.core.uint\palmtree.math.core.uint\pmc_inline_func.h

; 191  :             return (_addcarryx_u64(carry, u, v, w));

  000c7	66 49 0f 38 f6
	40 68		 adcx	 rax, QWORD PTR [r8+104]
  000ce	49 89 41 68	 mov	 QWORD PTR [r9+104], rax
; File z:\sources\lunor\repos\rougemeilland\palmtree.math.core.uint\palmtree.math.core.uint\autogenerated_inline_func.h

; 1210 :     c = _ADDX_UNIT(c, xp[14], yp[14], &zp[14]);

  000d2	48 8b 42 70	 mov	 rax, QWORD PTR [rdx+112]
; File z:\sources\lunor\repos\rougemeilland\palmtree.math.core.uint\palmtree.math.core.uint\pmc_inline_func.h

; 191  :             return (_addcarryx_u64(carry, u, v, w));

  000d6	66 49 0f 38 f6
	40 70		 adcx	 rax, QWORD PTR [r8+112]
  000dd	49 89 41 70	 mov	 QWORD PTR [r9+112], rax
; File z:\sources\lunor\repos\rougemeilland\palmtree.math.core.uint\palmtree.math.core.uint\autogenerated_inline_func.h

; 1211 :     c = _ADDX_UNIT(c, xp[15], yp[15], &zp[15]);

  000e1	48 8b 4a 78	 mov	 rcx, QWORD PTR [rdx+120]
; File z:\sources\lunor\repos\rougemeilland\palmtree.math.core.uint\palmtree.math.core.uint\pmc_inline_func.h

; 191  :             return (_addcarryx_u64(carry, u, v, w));

  000e5	66 49 0f 38 f6
	48 78		 adcx	 rcx, QWORD PTR [r8+120]
  000ec	49 89 49 78	 mov	 QWORD PTR [r9+120], rcx
  000f0	0f 92 c0	 setb	 al
; File z:\sources\lunor\repos\rougemeilland\palmtree.math.core.uint\palmtree.math.core.uint\autogenerated_inline_func.h

; 1332 : }

  000f3	c3		 ret	 0
_ADD_16WORDS_ADCX ENDP
_TEXT	ENDS
; Function compile flags: /Ogtpy
; File z:\sources\lunor\repos\rougemeilland\palmtree.math.core.uint\palmtree.math.core.uint\autogenerated_inline_func.h
; File z:\sources\lunor\repos\rougemeilland\palmtree.math.core.uint\palmtree.math.core.uint\pmc_inline_func.h
; File z:\sources\lunor\repos\rougemeilland\palmtree.math.core.uint\palmtree.math.core.uint\autogenerated_inline_func.h
; File z:\sources\lunor\repos\rougemeilland\palmtree.math.core.uint\palmtree.math.core.uint\pmc_inline_func.h
; File z:\sources\lunor\repos\rougemeilland\palmtree.math.core.uint\palmtree.math.core.uint\autogenerated_inline_func.h
; File z:\sources\lunor\repos\rougemeilland\palmtree.math.core.uint\palmtree.math.core.uint\pmc_inline_func.h
; File z:\sources\lunor\repos\rougemeilland\palmtree.math.core.uint\palmtree.math.core.uint\autogenerated_inline_func.h
; File z:\sources\lunor\repos\rougemeilland\palmtree.math.core.uint\palmtree.math.core.uint\pmc_inline_func.h
; File z:\sources\lunor\repos\rougemeilland\palmtree.math.core.uint\palmtree.math.core.uint\autogenerated_inline_func.h
; File z:\sources\lunor\repos\rougemeilland\palmtree.math.core.uint\palmtree.math.core.uint\pmc_inline_func.h
; File z:\sources\lunor\repos\rougemeilland\palmtree.math.core.uint\palmtree.math.core.uint\autogenerated_inline_func.h
; File z:\sources\lunor\repos\rougemeilland\palmtree.math.core.uint\palmtree.math.core.uint\pmc_inline_func.h
; File z:\sources\lunor\repos\rougemeilland\palmtree.math.core.uint\palmtree.math.core.uint\autogenerated_inline_func.h
; File z:\sources\lunor\repos\rougemeilland\palmtree.math.core.uint\palmtree.math.core.uint\pmc_inline_func.h
; File z:\sources\lunor\repos\rougemeilland\palmtree.math.core.uint\palmtree.math.core.uint\autogenerated_inline_func.h
; File z:\sources\lunor\repos\rougemeilland\palmtree.math.core.uint\palmtree.math.core.uint\pmc_inline_func.h
; File z:\sources\lunor\repos\rougemeilland\palmtree.math.core.uint\palmtree.math.core.uint\autogenerated_inline_func.h
; File z:\sources\lunor\repos\rougemeilland\palmtree.math.core.uint\palmtree.math.core.uint\pmc_inline_func.h
; File z:\sources\lunor\repos\rougemeilland\palmtree.math.core.uint\palmtree.math.core.uint\autogenerated_inline_func.h
; File z:\sources\lunor\repos\rougemeilland\palmtree.math.core.uint\palmtree.math.core.uint\pmc_inline_func.h
; File z:\sources\lunor\repos\rougemeilland\palmtree.math.core.uint\palmtree.math.core.uint\autogenerated_inline_func.h
; File z:\sources\lunor\repos\rougemeilland\palmtree.math.core.uint\palmtree.math.core.uint\pmc_inline_func.h
; File z:\sources\lunor\repos\rougemeilland\palmtree.math.core.uint\palmtree.math.core.uint\autogenerated_inline_func.h
; File z:\sources\lunor\repos\rougemeilland\palmtree.math.core.uint\palmtree.math.core.uint\pmc_inline_func.h
; File z:\sources\lunor\repos\rougemeilland\palmtree.math.core.uint\palmtree.math.core.uint\autogenerated_inline_func.h
; File z:\sources\lunor\repos\rougemeilland\palmtree.math.core.uint\palmtree.math.core.uint\pmc_inline_func.h
; File z:\sources\lunor\repos\rougemeilland\palmtree.math.core.uint\palmtree.math.core.uint\autogenerated_inline_func.h
; File z:\sources\lunor\repos\rougemeilland\palmtree.math.core.uint\palmtree.math.core.uint\pmc_inline_func.h
; File z:\sources\lunor\repos\rougemeilland\palmtree.math.core.uint\palmtree.math.core.uint\autogenerated_inline_func.h
; File z:\sources\lunor\repos\rougemeilland\palmtree.math.core.uint\palmtree.math.core.uint\pmc_inline_func.h
; File z:\sources\lunor\repos\rougemeilland\palmtree.math.core.uint\palmtree.math.core.uint\autogenerated_inline_func.h
; File z:\sources\lunor\repos\rougemeilland\palmtree.math.core.uint\palmtree.math.core.uint\pmc_inline_func.h
; File z:\sources\lunor\repos\rougemeilland\palmtree.math.core.uint\palmtree.math.core.uint\autogenerated_inline_func.h
;	COMDAT _ADD_16WORDS_ADC
_TEXT	SEGMENT
c$ = 8
xp$ = 16
yp$ = 24
zp$ = 32
_ADD_16WORDS_ADC PROC					; COMDAT

; 1054 : #ifdef _MSC_VER
; 1055 :     c = _ADD_UNIT(c, xp[0], yp[0], &zp[0]);

  00000	48 8b 02	 mov	 rax, QWORD PTR [rdx]
; File z:\sources\lunor\repos\rougemeilland\palmtree.math.core.uint\palmtree.math.core.uint\pmc_inline_func.h

; 180  :             return (_addcarry_u64(carry, u, v, w));

  00003	80 c1 ff	 add	 cl, -1
  00006	49 13 00	 adc	 rax, QWORD PTR [r8]
  00009	49 89 01	 mov	 QWORD PTR [r9], rax
; File z:\sources\lunor\repos\rougemeilland\palmtree.math.core.uint\palmtree.math.core.uint\autogenerated_inline_func.h

; 1056 :     c = _ADD_UNIT(c, xp[1], yp[1], &zp[1]);

  0000c	48 8b 42 08	 mov	 rax, QWORD PTR [rdx+8]
; File z:\sources\lunor\repos\rougemeilland\palmtree.math.core.uint\palmtree.math.core.uint\pmc_inline_func.h

; 180  :             return (_addcarry_u64(carry, u, v, w));

  00010	49 13 40 08	 adc	 rax, QWORD PTR [r8+8]
  00014	49 89 41 08	 mov	 QWORD PTR [r9+8], rax
; File z:\sources\lunor\repos\rougemeilland\palmtree.math.core.uint\palmtree.math.core.uint\autogenerated_inline_func.h

; 1057 :     c = _ADD_UNIT(c, xp[2], yp[2], &zp[2]);

  00018	48 8b 42 10	 mov	 rax, QWORD PTR [rdx+16]
; File z:\sources\lunor\repos\rougemeilland\palmtree.math.core.uint\palmtree.math.core.uint\pmc_inline_func.h

; 180  :             return (_addcarry_u64(carry, u, v, w));

  0001c	49 13 40 10	 adc	 rax, QWORD PTR [r8+16]
  00020	49 89 41 10	 mov	 QWORD PTR [r9+16], rax
; File z:\sources\lunor\repos\rougemeilland\palmtree.math.core.uint\palmtree.math.core.uint\autogenerated_inline_func.h

; 1058 :     c = _ADD_UNIT(c, xp[3], yp[3], &zp[3]);

  00024	48 8b 42 18	 mov	 rax, QWORD PTR [rdx+24]
; File z:\sources\lunor\repos\rougemeilland\palmtree.math.core.uint\palmtree.math.core.uint\pmc_inline_func.h

; 180  :             return (_addcarry_u64(carry, u, v, w));

  00028	49 13 40 18	 adc	 rax, QWORD PTR [r8+24]
  0002c	49 89 41 18	 mov	 QWORD PTR [r9+24], rax
; File z:\sources\lunor\repos\rougemeilland\palmtree.math.core.uint\palmtree.math.core.uint\autogenerated_inline_func.h

; 1059 :     c = _ADD_UNIT(c, xp[4], yp[4], &zp[4]);

  00030	48 8b 42 20	 mov	 rax, QWORD PTR [rdx+32]
; File z:\sources\lunor\repos\rougemeilland\palmtree.math.core.uint\palmtree.math.core.uint\pmc_inline_func.h

; 180  :             return (_addcarry_u64(carry, u, v, w));

  00034	49 13 40 20	 adc	 rax, QWORD PTR [r8+32]
  00038	49 89 41 20	 mov	 QWORD PTR [r9+32], rax
; File z:\sources\lunor\repos\rougemeilland\palmtree.math.core.uint\palmtree.math.core.uint\autogenerated_inline_func.h

; 1060 :     c = _ADD_UNIT(c, xp[5], yp[5], &zp[5]);

  0003c	48 8b 42 28	 mov	 rax, QWORD PTR [rdx+40]
; File z:\sources\lunor\repos\rougemeilland\palmtree.math.core.uint\palmtree.math.core.uint\pmc_inline_func.h

; 180  :             return (_addcarry_u64(carry, u, v, w));

  00040	49 13 40 28	 adc	 rax, QWORD PTR [r8+40]
  00044	49 89 41 28	 mov	 QWORD PTR [r9+40], rax
; File z:\sources\lunor\repos\rougemeilland\palmtree.math.core.uint\palmtree.math.core.uint\autogenerated_inline_func.h

; 1061 :     c = _ADD_UNIT(c, xp[6], yp[6], &zp[6]);

  00048	48 8b 42 30	 mov	 rax, QWORD PTR [rdx+48]
; File z:\sources\lunor\repos\rougemeilland\palmtree.math.core.uint\palmtree.math.core.uint\pmc_inline_func.h

; 180  :             return (_addcarry_u64(carry, u, v, w));

  0004c	49 13 40 30	 adc	 rax, QWORD PTR [r8+48]
  00050	49 89 41 30	 mov	 QWORD PTR [r9+48], rax
; File z:\sources\lunor\repos\rougemeilland\palmtree.math.core.uint\palmtree.math.core.uint\autogenerated_inline_func.h

; 1062 :     c = _ADD_UNIT(c, xp[7], yp[7], &zp[7]);

  00054	48 8b 42 38	 mov	 rax, QWORD PTR [rdx+56]
; File z:\sources\lunor\repos\rougemeilland\palmtree.math.core.uint\palmtree.math.core.uint\pmc_inline_func.h

; 180  :             return (_addcarry_u64(carry, u, v, w));

  00058	49 13 40 38	 adc	 rax, QWORD PTR [r8+56]
  0005c	49 89 41 38	 mov	 QWORD PTR [r9+56], rax
; File z:\sources\lunor\repos\rougemeilland\palmtree.math.core.uint\palmtree.math.core.uint\autogenerated_inline_func.h

; 1063 :     c = _ADD_UNIT(c, xp[8], yp[8], &zp[8]);

  00060	48 8b 42 40	 mov	 rax, QWORD PTR [rdx+64]
; File z:\sources\lunor\repos\rougemeilland\palmtree.math.core.uint\palmtree.math.core.uint\pmc_inline_func.h

; 180  :             return (_addcarry_u64(carry, u, v, w));

  00064	49 13 40 40	 adc	 rax, QWORD PTR [r8+64]
  00068	49 89 41 40	 mov	 QWORD PTR [r9+64], rax
; File z:\sources\lunor\repos\rougemeilland\palmtree.math.core.uint\palmtree.math.core.uint\autogenerated_inline_func.h

; 1064 :     c = _ADD_UNIT(c, xp[9], yp[9], &zp[9]);

  0006c	48 8b 42 48	 mov	 rax, QWORD PTR [rdx+72]
; File z:\sources\lunor\repos\rougemeilland\palmtree.math.core.uint\palmtree.math.core.uint\pmc_inline_func.h

; 180  :             return (_addcarry_u64(carry, u, v, w));

  00070	49 13 40 48	 adc	 rax, QWORD PTR [r8+72]
  00074	49 89 41 48	 mov	 QWORD PTR [r9+72], rax
; File z:\sources\lunor\repos\rougemeilland\palmtree.math.core.uint\palmtree.math.core.uint\autogenerated_inline_func.h

; 1065 :     c = _ADD_UNIT(c, xp[10], yp[10], &zp[10]);

  00078	48 8b 42 50	 mov	 rax, QWORD PTR [rdx+80]
; File z:\sources\lunor\repos\rougemeilland\palmtree.math.core.uint\palmtree.math.core.uint\pmc_inline_func.h

; 180  :             return (_addcarry_u64(carry, u, v, w));

  0007c	49 13 40 50	 adc	 rax, QWORD PTR [r8+80]
  00080	49 89 41 50	 mov	 QWORD PTR [r9+80], rax
; File z:\sources\lunor\repos\rougemeilland\palmtree.math.core.uint\palmtree.math.core.uint\autogenerated_inline_func.h

; 1066 :     c = _ADD_UNIT(c, xp[11], yp[11], &zp[11]);

  00084	48 8b 42 58	 mov	 rax, QWORD PTR [rdx+88]
; File z:\sources\lunor\repos\rougemeilland\palmtree.math.core.uint\palmtree.math.core.uint\pmc_inline_func.h

; 180  :             return (_addcarry_u64(carry, u, v, w));

  00088	49 13 40 58	 adc	 rax, QWORD PTR [r8+88]
  0008c	49 89 41 58	 mov	 QWORD PTR [r9+88], rax
; File z:\sources\lunor\repos\rougemeilland\palmtree.math.core.uint\palmtree.math.core.uint\autogenerated_inline_func.h

; 1067 :     c = _ADD_UNIT(c, xp[12], yp[12], &zp[12]);

  00090	48 8b 42 60	 mov	 rax, QWORD PTR [rdx+96]
; File z:\sources\lunor\repos\rougemeilland\palmtree.math.core.uint\palmtree.math.core.uint\pmc_inline_func.h

; 180  :             return (_addcarry_u64(carry, u, v, w));

  00094	49 13 40 60	 adc	 rax, QWORD PTR [r8+96]
  00098	49 89 41 60	 mov	 QWORD PTR [r9+96], rax
; File z:\sources\lunor\repos\rougemeilland\palmtree.math.core.uint\palmtree.math.core.uint\autogenerated_inline_func.h

; 1068 :     c = _ADD_UNIT(c, xp[13], yp[13], &zp[13]);

  0009c	48 8b 42 68	 mov	 rax, QWORD PTR [rdx+104]
; File z:\sources\lunor\repos\rougemeilland\palmtree.math.core.uint\palmtree.math.core.uint\pmc_inline_func.h

; 180  :             return (_addcarry_u64(carry, u, v, w));

  000a0	49 13 40 68	 adc	 rax, QWORD PTR [r8+104]
  000a4	49 89 41 68	 mov	 QWORD PTR [r9+104], rax
; File z:\sources\lunor\repos\rougemeilland\palmtree.math.core.uint\palmtree.math.core.uint\autogenerated_inline_func.h

; 1069 :     c = _ADD_UNIT(c, xp[14], yp[14], &zp[14]);

  000a8	48 8b 42 70	 mov	 rax, QWORD PTR [rdx+112]
; File z:\sources\lunor\repos\rougemeilland\palmtree.math.core.uint\palmtree.math.core.uint\pmc_inline_func.h

; 180  :             return (_addcarry_u64(carry, u, v, w));

  000ac	49 13 40 70	 adc	 rax, QWORD PTR [r8+112]
  000b0	49 89 41 70	 mov	 QWORD PTR [r9+112], rax
; File z:\sources\lunor\repos\rougemeilland\palmtree.math.core.uint\palmtree.math.core.uint\autogenerated_inline_func.h

; 1070 :     c = _ADD_UNIT(c, xp[15], yp[15], &zp[15]);

  000b4	48 8b 4a 78	 mov	 rcx, QWORD PTR [rdx+120]
; File z:\sources\lunor\repos\rougemeilland\palmtree.math.core.uint\palmtree.math.core.uint\pmc_inline_func.h

; 180  :             return (_addcarry_u64(carry, u, v, w));

  000b8	49 13 48 78	 adc	 rcx, QWORD PTR [r8+120]
  000bc	49 89 49 78	 mov	 QWORD PTR [r9+120], rcx
  000c0	0f 92 c0	 setb	 al
; File z:\sources\lunor\repos\rougemeilland\palmtree.math.core.uint\palmtree.math.core.uint\autogenerated_inline_func.h

; 1191 : }

  000c3	c3		 ret	 0
_ADD_16WORDS_ADC ENDP
_TEXT	ENDS
; Function compile flags: /Ogtpy
; File z:\sources\lunor\repos\rougemeilland\palmtree.math.core.uint\palmtree.math.core.uint\autogenerated_inline_func.h
; File z:\sources\lunor\repos\rougemeilland\palmtree.math.core.uint\palmtree.math.core.uint\pmc_inline_func.h
; File z:\sources\lunor\repos\rougemeilland\palmtree.math.core.uint\palmtree.math.core.uint\autogenerated_inline_func.h
; File z:\sources\lunor\repos\rougemeilland\palmtree.math.core.uint\palmtree.math.core.uint\pmc_inline_func.h
; File z:\sources\lunor\repos\rougemeilland\palmtree.math.core.uint\palmtree.math.core.uint\autogenerated_inline_func.h
; File z:\sources\lunor\repos\rougemeilland\palmtree.math.core.uint\palmtree.math.core.uint\pmc_inline_func.h
; File z:\sources\lunor\repos\rougemeilland\palmtree.math.core.uint\palmtree.math.core.uint\autogenerated_inline_func.h
; File z:\sources\lunor\repos\rougemeilland\palmtree.math.core.uint\palmtree.math.core.uint\pmc_inline_func.h
; File z:\sources\lunor\repos\rougemeilland\palmtree.math.core.uint\palmtree.math.core.uint\autogenerated_inline_func.h
; File z:\sources\lunor\repos\rougemeilland\palmtree.math.core.uint\palmtree.math.core.uint\pmc_inline_func.h
; File z:\sources\lunor\repos\rougemeilland\palmtree.math.core.uint\palmtree.math.core.uint\autogenerated_inline_func.h
; File z:\sources\lunor\repos\rougemeilland\palmtree.math.core.uint\palmtree.math.core.uint\pmc_inline_func.h
; File z:\sources\lunor\repos\rougemeilland\palmtree.math.core.uint\palmtree.math.core.uint\autogenerated_inline_func.h
; File z:\sources\lunor\repos\rougemeilland\palmtree.math.core.uint\palmtree.math.core.uint\pmc_inline_func.h
; File z:\sources\lunor\repos\rougemeilland\palmtree.math.core.uint\palmtree.math.core.uint\autogenerated_inline_func.h
; File z:\sources\lunor\repos\rougemeilland\palmtree.math.core.uint\palmtree.math.core.uint\pmc_inline_func.h
; File z:\sources\lunor\repos\rougemeilland\palmtree.math.core.uint\palmtree.math.core.uint\autogenerated_inline_func.h
; File z:\sources\lunor\repos\rougemeilland\palmtree.math.core.uint\palmtree.math.core.uint\pmc_inline_func.h
; File z:\sources\lunor\repos\rougemeilland\palmtree.math.core.uint\palmtree.math.core.uint\autogenerated_inline_func.h
; File z:\sources\lunor\repos\rougemeilland\palmtree.math.core.uint\palmtree.math.core.uint\pmc_inline_func.h
; File z:\sources\lunor\repos\rougemeilland\palmtree.math.core.uint\palmtree.math.core.uint\autogenerated_inline_func.h
; File z:\sources\lunor\repos\rougemeilland\palmtree.math.core.uint\palmtree.math.core.uint\pmc_inline_func.h
; File z:\sources\lunor\repos\rougemeilland\palmtree.math.core.uint\palmtree.math.core.uint\autogenerated_inline_func.h
; File z:\sources\lunor\repos\rougemeilland\palmtree.math.core.uint\palmtree.math.core.uint\pmc_inline_func.h
; File z:\sources\lunor\repos\rougemeilland\palmtree.math.core.uint\palmtree.math.core.uint\autogenerated_inline_func.h
; File z:\sources\lunor\repos\rougemeilland\palmtree.math.core.uint\palmtree.math.core.uint\pmc_inline_func.h
; File z:\sources\lunor\repos\rougemeilland\palmtree.math.core.uint\palmtree.math.core.uint\autogenerated_inline_func.h
; File z:\sources\lunor\repos\rougemeilland\palmtree.math.core.uint\palmtree.math.core.uint\pmc_inline_func.h
; File z:\sources\lunor\repos\rougemeilland\palmtree.math.core.uint\palmtree.math.core.uint\autogenerated_inline_func.h
; File z:\sources\lunor\repos\rougemeilland\palmtree.math.core.uint\palmtree.math.core.uint\pmc_inline_func.h
; File z:\sources\lunor\repos\rougemeilland\palmtree.math.core.uint\palmtree.math.core.uint\autogenerated_inline_func.h
; File z:\sources\lunor\repos\rougemeilland\palmtree.math.core.uint\palmtree.math.core.uint\pmc_inline_func.h
; File z:\sources\lunor\repos\rougemeilland\palmtree.math.core.uint\palmtree.math.core.uint\autogenerated_inline_func.h
; File z:\sources\lunor\repos\rougemeilland\palmtree.math.core.uint\palmtree.math.core.uint\pmc_inline_func.h
; File z:\sources\lunor\repos\rougemeilland\palmtree.math.core.uint\palmtree.math.core.uint\autogenerated_inline_func.h
; File z:\sources\lunor\repos\rougemeilland\palmtree.math.core.uint\palmtree.math.core.uint\pmc_inline_func.h
; File z:\sources\lunor\repos\rougemeilland\palmtree.math.core.uint\palmtree.math.core.uint\autogenerated_inline_func.h
; File z:\sources\lunor\repos\rougemeilland\palmtree.math.core.uint\palmtree.math.core.uint\pmc_inline_func.h
; File z:\sources\lunor\repos\rougemeilland\palmtree.math.core.uint\palmtree.math.core.uint\autogenerated_inline_func.h
; File z:\sources\lunor\repos\rougemeilland\palmtree.math.core.uint\palmtree.math.core.uint\pmc_inline_func.h
; File z:\sources\lunor\repos\rougemeilland\palmtree.math.core.uint\palmtree.math.core.uint\autogenerated_inline_func.h
; File z:\sources\lunor\repos\rougemeilland\palmtree.math.core.uint\palmtree.math.core.uint\pmc_inline_func.h
; File z:\sources\lunor\repos\rougemeilland\palmtree.math.core.uint\palmtree.math.core.uint\autogenerated_inline_func.h
; File z:\sources\lunor\repos\rougemeilland\palmtree.math.core.uint\palmtree.math.core.uint\pmc_inline_func.h
; File z:\sources\lunor\repos\rougemeilland\palmtree.math.core.uint\palmtree.math.core.uint\autogenerated_inline_func.h
; File z:\sources\lunor\repos\rougemeilland\palmtree.math.core.uint\palmtree.math.core.uint\pmc_inline_func.h
; File z:\sources\lunor\repos\rougemeilland\palmtree.math.core.uint\palmtree.math.core.uint\autogenerated_inline_func.h
; File z:\sources\lunor\repos\rougemeilland\palmtree.math.core.uint\palmtree.math.core.uint\pmc_inline_func.h
; File z:\sources\lunor\repos\rougemeilland\palmtree.math.core.uint\palmtree.math.core.uint\autogenerated_inline_func.h
; File z:\sources\lunor\repos\rougemeilland\palmtree.math.core.uint\palmtree.math.core.uint\pmc_inline_func.h
; File z:\sources\lunor\repos\rougemeilland\palmtree.math.core.uint\palmtree.math.core.uint\autogenerated_inline_func.h
; File z:\sources\lunor\repos\rougemeilland\palmtree.math.core.uint\palmtree.math.core.uint\pmc_inline_func.h
; File z:\sources\lunor\repos\rougemeilland\palmtree.math.core.uint\palmtree.math.core.uint\autogenerated_inline_func.h
; File z:\sources\lunor\repos\rougemeilland\palmtree.math.core.uint\palmtree.math.core.uint\pmc_inline_func.h
; File z:\sources\lunor\repos\rougemeilland\palmtree.math.core.uint\palmtree.math.core.uint\autogenerated_inline_func.h
; File z:\sources\lunor\repos\rougemeilland\palmtree.math.core.uint\palmtree.math.core.uint\pmc_inline_func.h
; File z:\sources\lunor\repos\rougemeilland\palmtree.math.core.uint\palmtree.math.core.uint\autogenerated_inline_func.h
; File z:\sources\lunor\repos\rougemeilland\palmtree.math.core.uint\palmtree.math.core.uint\pmc_inline_func.h
; File z:\sources\lunor\repos\rougemeilland\palmtree.math.core.uint\palmtree.math.core.uint\autogenerated_inline_func.h
; File z:\sources\lunor\repos\rougemeilland\palmtree.math.core.uint\palmtree.math.core.uint\pmc_inline_func.h
; File z:\sources\lunor\repos\rougemeilland\palmtree.math.core.uint\palmtree.math.core.uint\autogenerated_inline_func.h
; File z:\sources\lunor\repos\rougemeilland\palmtree.math.core.uint\palmtree.math.core.uint\pmc_inline_func.h
; File z:\sources\lunor\repos\rougemeilland\palmtree.math.core.uint\palmtree.math.core.uint\autogenerated_inline_func.h
; File z:\sources\lunor\repos\rougemeilland\palmtree.math.core.uint\palmtree.math.core.uint\pmc_inline_func.h
; File z:\sources\lunor\repos\rougemeilland\palmtree.math.core.uint\palmtree.math.core.uint\autogenerated_inline_func.h
;	COMDAT _ADD_32WORDS_ADCX
_TEXT	SEGMENT
c$ = 8
xp$ = 16
yp$ = 24
zp$ = 32
_ADD_32WORDS_ADCX PROC					; COMDAT

; 295  : #ifdef _MSC_VER
; 296  :     c = _ADDX_UNIT(c, xp[0], yp[0], &zp[0]);

  00000	48 8b 02	 mov	 rax, QWORD PTR [rdx]
; File z:\sources\lunor\repos\rougemeilland\palmtree.math.core.uint\palmtree.math.core.uint\pmc_inline_func.h

; 191  :             return (_addcarryx_u64(carry, u, v, w));

  00003	80 c1 ff	 add	 cl, -1
  00006	66 49 0f 38 f6
	00		 adcx	 rax, QWORD PTR [r8]
  0000c	49 89 01	 mov	 QWORD PTR [r9], rax
; File z:\sources\lunor\repos\rougemeilland\palmtree.math.core.uint\palmtree.math.core.uint\autogenerated_inline_func.h

; 297  :     c = _ADDX_UNIT(c, xp[1], yp[1], &zp[1]);

  0000f	48 8b 42 08	 mov	 rax, QWORD PTR [rdx+8]
; File z:\sources\lunor\repos\rougemeilland\palmtree.math.core.uint\palmtree.math.core.uint\pmc_inline_func.h

; 191  :             return (_addcarryx_u64(carry, u, v, w));

  00013	66 49 0f 38 f6
	40 08		 adcx	 rax, QWORD PTR [r8+8]
  0001a	49 89 41 08	 mov	 QWORD PTR [r9+8], rax
; File z:\sources\lunor\repos\rougemeilland\palmtree.math.core.uint\palmtree.math.core.uint\autogenerated_inline_func.h

; 298  :     c = _ADDX_UNIT(c, xp[2], yp[2], &zp[2]);

  0001e	48 8b 42 10	 mov	 rax, QWORD PTR [rdx+16]
; File z:\sources\lunor\repos\rougemeilland\palmtree.math.core.uint\palmtree.math.core.uint\pmc_inline_func.h

; 191  :             return (_addcarryx_u64(carry, u, v, w));

  00022	66 49 0f 38 f6
	40 10		 adcx	 rax, QWORD PTR [r8+16]
  00029	49 89 41 10	 mov	 QWORD PTR [r9+16], rax
; File z:\sources\lunor\repos\rougemeilland\palmtree.math.core.uint\palmtree.math.core.uint\autogenerated_inline_func.h

; 299  :     c = _ADDX_UNIT(c, xp[3], yp[3], &zp[3]);

  0002d	48 8b 42 18	 mov	 rax, QWORD PTR [rdx+24]
; File z:\sources\lunor\repos\rougemeilland\palmtree.math.core.uint\palmtree.math.core.uint\pmc_inline_func.h

; 191  :             return (_addcarryx_u64(carry, u, v, w));

  00031	66 49 0f 38 f6
	40 18		 adcx	 rax, QWORD PTR [r8+24]
  00038	49 89 41 18	 mov	 QWORD PTR [r9+24], rax
; File z:\sources\lunor\repos\rougemeilland\palmtree.math.core.uint\palmtree.math.core.uint\autogenerated_inline_func.h

; 300  :     c = _ADDX_UNIT(c, xp[4], yp[4], &zp[4]);

  0003c	48 8b 42 20	 mov	 rax, QWORD PTR [rdx+32]
; File z:\sources\lunor\repos\rougemeilland\palmtree.math.core.uint\palmtree.math.core.uint\pmc_inline_func.h

; 191  :             return (_addcarryx_u64(carry, u, v, w));

  00040	66 49 0f 38 f6
	40 20		 adcx	 rax, QWORD PTR [r8+32]
  00047	49 89 41 20	 mov	 QWORD PTR [r9+32], rax
; File z:\sources\lunor\repos\rougemeilland\palmtree.math.core.uint\palmtree.math.core.uint\autogenerated_inline_func.h

; 301  :     c = _ADDX_UNIT(c, xp[5], yp[5], &zp[5]);

  0004b	48 8b 42 28	 mov	 rax, QWORD PTR [rdx+40]
; File z:\sources\lunor\repos\rougemeilland\palmtree.math.core.uint\palmtree.math.core.uint\pmc_inline_func.h

; 191  :             return (_addcarryx_u64(carry, u, v, w));

  0004f	66 49 0f 38 f6
	40 28		 adcx	 rax, QWORD PTR [r8+40]
  00056	49 89 41 28	 mov	 QWORD PTR [r9+40], rax
; File z:\sources\lunor\repos\rougemeilland\palmtree.math.core.uint\palmtree.math.core.uint\autogenerated_inline_func.h

; 302  :     c = _ADDX_UNIT(c, xp[6], yp[6], &zp[6]);

  0005a	48 8b 42 30	 mov	 rax, QWORD PTR [rdx+48]
; File z:\sources\lunor\repos\rougemeilland\palmtree.math.core.uint\palmtree.math.core.uint\pmc_inline_func.h

; 191  :             return (_addcarryx_u64(carry, u, v, w));

  0005e	66 49 0f 38 f6
	40 30		 adcx	 rax, QWORD PTR [r8+48]
  00065	49 89 41 30	 mov	 QWORD PTR [r9+48], rax
; File z:\sources\lunor\repos\rougemeilland\palmtree.math.core.uint\palmtree.math.core.uint\autogenerated_inline_func.h

; 303  :     c = _ADDX_UNIT(c, xp[7], yp[7], &zp[7]);

  00069	48 8b 42 38	 mov	 rax, QWORD PTR [rdx+56]
; File z:\sources\lunor\repos\rougemeilland\palmtree.math.core.uint\palmtree.math.core.uint\pmc_inline_func.h

; 191  :             return (_addcarryx_u64(carry, u, v, w));

  0006d	66 49 0f 38 f6
	40 38		 adcx	 rax, QWORD PTR [r8+56]
  00074	49 89 41 38	 mov	 QWORD PTR [r9+56], rax
; File z:\sources\lunor\repos\rougemeilland\palmtree.math.core.uint\palmtree.math.core.uint\autogenerated_inline_func.h

; 304  :     c = _ADDX_UNIT(c, xp[8], yp[8], &zp[8]);

  00078	48 8b 42 40	 mov	 rax, QWORD PTR [rdx+64]
; File z:\sources\lunor\repos\rougemeilland\palmtree.math.core.uint\palmtree.math.core.uint\pmc_inline_func.h

; 191  :             return (_addcarryx_u64(carry, u, v, w));

  0007c	66 49 0f 38 f6
	40 40		 adcx	 rax, QWORD PTR [r8+64]
  00083	49 89 41 40	 mov	 QWORD PTR [r9+64], rax
; File z:\sources\lunor\repos\rougemeilland\palmtree.math.core.uint\palmtree.math.core.uint\autogenerated_inline_func.h

; 305  :     c = _ADDX_UNIT(c, xp[9], yp[9], &zp[9]);

  00087	48 8b 42 48	 mov	 rax, QWORD PTR [rdx+72]
; File z:\sources\lunor\repos\rougemeilland\palmtree.math.core.uint\palmtree.math.core.uint\pmc_inline_func.h

; 191  :             return (_addcarryx_u64(carry, u, v, w));

  0008b	66 49 0f 38 f6
	40 48		 adcx	 rax, QWORD PTR [r8+72]
  00092	49 89 41 48	 mov	 QWORD PTR [r9+72], rax
; File z:\sources\lunor\repos\rougemeilland\palmtree.math.core.uint\palmtree.math.core.uint\autogenerated_inline_func.h

; 306  :     c = _ADDX_UNIT(c, xp[10], yp[10], &zp[10]);

  00096	48 8b 42 50	 mov	 rax, QWORD PTR [rdx+80]
; File z:\sources\lunor\repos\rougemeilland\palmtree.math.core.uint\palmtree.math.core.uint\pmc_inline_func.h

; 191  :             return (_addcarryx_u64(carry, u, v, w));

  0009a	66 49 0f 38 f6
	40 50		 adcx	 rax, QWORD PTR [r8+80]
  000a1	49 89 41 50	 mov	 QWORD PTR [r9+80], rax
; File z:\sources\lunor\repos\rougemeilland\palmtree.math.core.uint\palmtree.math.core.uint\autogenerated_inline_func.h

; 307  :     c = _ADDX_UNIT(c, xp[11], yp[11], &zp[11]);

  000a5	48 8b 42 58	 mov	 rax, QWORD PTR [rdx+88]
; File z:\sources\lunor\repos\rougemeilland\palmtree.math.core.uint\palmtree.math.core.uint\pmc_inline_func.h

; 191  :             return (_addcarryx_u64(carry, u, v, w));

  000a9	66 49 0f 38 f6
	40 58		 adcx	 rax, QWORD PTR [r8+88]
  000b0	49 89 41 58	 mov	 QWORD PTR [r9+88], rax
; File z:\sources\lunor\repos\rougemeilland\palmtree.math.core.uint\palmtree.math.core.uint\autogenerated_inline_func.h

; 308  :     c = _ADDX_UNIT(c, xp[12], yp[12], &zp[12]);

  000b4	48 8b 42 60	 mov	 rax, QWORD PTR [rdx+96]
; File z:\sources\lunor\repos\rougemeilland\palmtree.math.core.uint\palmtree.math.core.uint\pmc_inline_func.h

; 191  :             return (_addcarryx_u64(carry, u, v, w));

  000b8	66 49 0f 38 f6
	40 60		 adcx	 rax, QWORD PTR [r8+96]
  000bf	49 89 41 60	 mov	 QWORD PTR [r9+96], rax
; File z:\sources\lunor\repos\rougemeilland\palmtree.math.core.uint\palmtree.math.core.uint\autogenerated_inline_func.h

; 309  :     c = _ADDX_UNIT(c, xp[13], yp[13], &zp[13]);

  000c3	48 8b 42 68	 mov	 rax, QWORD PTR [rdx+104]
; File z:\sources\lunor\repos\rougemeilland\palmtree.math.core.uint\palmtree.math.core.uint\pmc_inline_func.h

; 191  :             return (_addcarryx_u64(carry, u, v, w));

  000c7	66 49 0f 38 f6
	40 68		 adcx	 rax, QWORD PTR [r8+104]
  000ce	49 89 41 68	 mov	 QWORD PTR [r9+104], rax
; File z:\sources\lunor\repos\rougemeilland\palmtree.math.core.uint\palmtree.math.core.uint\autogenerated_inline_func.h

; 310  :     c = _ADDX_UNIT(c, xp[14], yp[14], &zp[14]);

  000d2	48 8b 42 70	 mov	 rax, QWORD PTR [rdx+112]
; File z:\sources\lunor\repos\rougemeilland\palmtree.math.core.uint\palmtree.math.core.uint\pmc_inline_func.h

; 191  :             return (_addcarryx_u64(carry, u, v, w));

  000d6	66 49 0f 38 f6
	40 70		 adcx	 rax, QWORD PTR [r8+112]
  000dd	49 89 41 70	 mov	 QWORD PTR [r9+112], rax
; File z:\sources\lunor\repos\rougemeilland\palmtree.math.core.uint\palmtree.math.core.uint\autogenerated_inline_func.h

; 311  :     c = _ADDX_UNIT(c, xp[15], yp[15], &zp[15]);

  000e1	48 8b 42 78	 mov	 rax, QWORD PTR [rdx+120]
; File z:\sources\lunor\repos\rougemeilland\palmtree.math.core.uint\palmtree.math.core.uint\pmc_inline_func.h

; 191  :             return (_addcarryx_u64(carry, u, v, w));

  000e5	66 49 0f 38 f6
	40 78		 adcx	 rax, QWORD PTR [r8+120]
  000ec	49 89 41 78	 mov	 QWORD PTR [r9+120], rax
; File z:\sources\lunor\repos\rougemeilland\palmtree.math.core.uint\palmtree.math.core.uint\autogenerated_inline_func.h

; 312  :     c = _ADDX_UNIT(c, xp[16], yp[16], &zp[16]);

  000f0	48 8b 82 80 00
	00 00		 mov	 rax, QWORD PTR [rdx+128]
; File z:\sources\lunor\repos\rougemeilland\palmtree.math.core.uint\palmtree.math.core.uint\pmc_inline_func.h

; 191  :             return (_addcarryx_u64(carry, u, v, w));

  000f7	66 49 0f 38 f6
	80 80 00 00 00	 adcx	 rax, QWORD PTR [r8+128]
  00101	49 89 81 80 00
	00 00		 mov	 QWORD PTR [r9+128], rax
; File z:\sources\lunor\repos\rougemeilland\palmtree.math.core.uint\palmtree.math.core.uint\autogenerated_inline_func.h

; 313  :     c = _ADDX_UNIT(c, xp[17], yp[17], &zp[17]);

  00108	48 8b 82 88 00
	00 00		 mov	 rax, QWORD PTR [rdx+136]
; File z:\sources\lunor\repos\rougemeilland\palmtree.math.core.uint\palmtree.math.core.uint\pmc_inline_func.h

; 191  :             return (_addcarryx_u64(carry, u, v, w));

  0010f	66 49 0f 38 f6
	80 88 00 00 00	 adcx	 rax, QWORD PTR [r8+136]
  00119	49 89 81 88 00
	00 00		 mov	 QWORD PTR [r9+136], rax
; File z:\sources\lunor\repos\rougemeilland\palmtree.math.core.uint\palmtree.math.core.uint\autogenerated_inline_func.h

; 314  :     c = _ADDX_UNIT(c, xp[18], yp[18], &zp[18]);

  00120	48 8b 82 90 00
	00 00		 mov	 rax, QWORD PTR [rdx+144]
; File z:\sources\lunor\repos\rougemeilland\palmtree.math.core.uint\palmtree.math.core.uint\pmc_inline_func.h

; 191  :             return (_addcarryx_u64(carry, u, v, w));

  00127	66 49 0f 38 f6
	80 90 00 00 00	 adcx	 rax, QWORD PTR [r8+144]
  00131	49 89 81 90 00
	00 00		 mov	 QWORD PTR [r9+144], rax
; File z:\sources\lunor\repos\rougemeilland\palmtree.math.core.uint\palmtree.math.core.uint\autogenerated_inline_func.h

; 315  :     c = _ADDX_UNIT(c, xp[19], yp[19], &zp[19]);

  00138	48 8b 82 98 00
	00 00		 mov	 rax, QWORD PTR [rdx+152]
; File z:\sources\lunor\repos\rougemeilland\palmtree.math.core.uint\palmtree.math.core.uint\pmc_inline_func.h

; 191  :             return (_addcarryx_u64(carry, u, v, w));

  0013f	66 49 0f 38 f6
	80 98 00 00 00	 adcx	 rax, QWORD PTR [r8+152]
  00149	49 89 81 98 00
	00 00		 mov	 QWORD PTR [r9+152], rax
; File z:\sources\lunor\repos\rougemeilland\palmtree.math.core.uint\palmtree.math.core.uint\autogenerated_inline_func.h

; 316  :     c = _ADDX_UNIT(c, xp[20], yp[20], &zp[20]);

  00150	48 8b 82 a0 00
	00 00		 mov	 rax, QWORD PTR [rdx+160]
; File z:\sources\lunor\repos\rougemeilland\palmtree.math.core.uint\palmtree.math.core.uint\pmc_inline_func.h

; 191  :             return (_addcarryx_u64(carry, u, v, w));

  00157	66 49 0f 38 f6
	80 a0 00 00 00	 adcx	 rax, QWORD PTR [r8+160]
  00161	49 89 81 a0 00
	00 00		 mov	 QWORD PTR [r9+160], rax
; File z:\sources\lunor\repos\rougemeilland\palmtree.math.core.uint\palmtree.math.core.uint\autogenerated_inline_func.h

; 317  :     c = _ADDX_UNIT(c, xp[21], yp[21], &zp[21]);

  00168	48 8b 82 a8 00
	00 00		 mov	 rax, QWORD PTR [rdx+168]
; File z:\sources\lunor\repos\rougemeilland\palmtree.math.core.uint\palmtree.math.core.uint\pmc_inline_func.h

; 191  :             return (_addcarryx_u64(carry, u, v, w));

  0016f	66 49 0f 38 f6
	80 a8 00 00 00	 adcx	 rax, QWORD PTR [r8+168]
  00179	49 89 81 a8 00
	00 00		 mov	 QWORD PTR [r9+168], rax
; File z:\sources\lunor\repos\rougemeilland\palmtree.math.core.uint\palmtree.math.core.uint\autogenerated_inline_func.h

; 318  :     c = _ADDX_UNIT(c, xp[22], yp[22], &zp[22]);

  00180	48 8b 82 b0 00
	00 00		 mov	 rax, QWORD PTR [rdx+176]
; File z:\sources\lunor\repos\rougemeilland\palmtree.math.core.uint\palmtree.math.core.uint\pmc_inline_func.h

; 191  :             return (_addcarryx_u64(carry, u, v, w));

  00187	66 49 0f 38 f6
	80 b0 00 00 00	 adcx	 rax, QWORD PTR [r8+176]
  00191	49 89 81 b0 00
	00 00		 mov	 QWORD PTR [r9+176], rax
; File z:\sources\lunor\repos\rougemeilland\palmtree.math.core.uint\palmtree.math.core.uint\autogenerated_inline_func.h

; 319  :     c = _ADDX_UNIT(c, xp[23], yp[23], &zp[23]);

  00198	48 8b 82 b8 00
	00 00		 mov	 rax, QWORD PTR [rdx+184]
; File z:\sources\lunor\repos\rougemeilland\palmtree.math.core.uint\palmtree.math.core.uint\pmc_inline_func.h

; 191  :             return (_addcarryx_u64(carry, u, v, w));

  0019f	66 49 0f 38 f6
	80 b8 00 00 00	 adcx	 rax, QWORD PTR [r8+184]
  001a9	49 89 81 b8 00
	00 00		 mov	 QWORD PTR [r9+184], rax
; File z:\sources\lunor\repos\rougemeilland\palmtree.math.core.uint\palmtree.math.core.uint\autogenerated_inline_func.h

; 320  :     c = _ADDX_UNIT(c, xp[24], yp[24], &zp[24]);

  001b0	48 8b 82 c0 00
	00 00		 mov	 rax, QWORD PTR [rdx+192]
; File z:\sources\lunor\repos\rougemeilland\palmtree.math.core.uint\palmtree.math.core.uint\pmc_inline_func.h

; 191  :             return (_addcarryx_u64(carry, u, v, w));

  001b7	66 49 0f 38 f6
	80 c0 00 00 00	 adcx	 rax, QWORD PTR [r8+192]
  001c1	49 89 81 c0 00
	00 00		 mov	 QWORD PTR [r9+192], rax
; File z:\sources\lunor\repos\rougemeilland\palmtree.math.core.uint\palmtree.math.core.uint\autogenerated_inline_func.h

; 321  :     c = _ADDX_UNIT(c, xp[25], yp[25], &zp[25]);

  001c8	48 8b 82 c8 00
	00 00		 mov	 rax, QWORD PTR [rdx+200]
; File z:\sources\lunor\repos\rougemeilland\palmtree.math.core.uint\palmtree.math.core.uint\pmc_inline_func.h

; 191  :             return (_addcarryx_u64(carry, u, v, w));

  001cf	66 49 0f 38 f6
	80 c8 00 00 00	 adcx	 rax, QWORD PTR [r8+200]
  001d9	49 89 81 c8 00
	00 00		 mov	 QWORD PTR [r9+200], rax
; File z:\sources\lunor\repos\rougemeilland\palmtree.math.core.uint\palmtree.math.core.uint\autogenerated_inline_func.h

; 322  :     c = _ADDX_UNIT(c, xp[26], yp[26], &zp[26]);

  001e0	48 8b 82 d0 00
	00 00		 mov	 rax, QWORD PTR [rdx+208]
; File z:\sources\lunor\repos\rougemeilland\palmtree.math.core.uint\palmtree.math.core.uint\pmc_inline_func.h

; 191  :             return (_addcarryx_u64(carry, u, v, w));

  001e7	66 49 0f 38 f6
	80 d0 00 00 00	 adcx	 rax, QWORD PTR [r8+208]
  001f1	49 89 81 d0 00
	00 00		 mov	 QWORD PTR [r9+208], rax
; File z:\sources\lunor\repos\rougemeilland\palmtree.math.core.uint\palmtree.math.core.uint\autogenerated_inline_func.h

; 323  :     c = _ADDX_UNIT(c, xp[27], yp[27], &zp[27]);

  001f8	48 8b 82 d8 00
	00 00		 mov	 rax, QWORD PTR [rdx+216]
; File z:\sources\lunor\repos\rougemeilland\palmtree.math.core.uint\palmtree.math.core.uint\pmc_inline_func.h

; 191  :             return (_addcarryx_u64(carry, u, v, w));

  001ff	66 49 0f 38 f6
	80 d8 00 00 00	 adcx	 rax, QWORD PTR [r8+216]
  00209	49 89 81 d8 00
	00 00		 mov	 QWORD PTR [r9+216], rax
; File z:\sources\lunor\repos\rougemeilland\palmtree.math.core.uint\palmtree.math.core.uint\autogenerated_inline_func.h

; 324  :     c = _ADDX_UNIT(c, xp[28], yp[28], &zp[28]);

  00210	48 8b 82 e0 00
	00 00		 mov	 rax, QWORD PTR [rdx+224]
; File z:\sources\lunor\repos\rougemeilland\palmtree.math.core.uint\palmtree.math.core.uint\pmc_inline_func.h

; 191  :             return (_addcarryx_u64(carry, u, v, w));

  00217	66 49 0f 38 f6
	80 e0 00 00 00	 adcx	 rax, QWORD PTR [r8+224]
  00221	49 89 81 e0 00
	00 00		 mov	 QWORD PTR [r9+224], rax
; File z:\sources\lunor\repos\rougemeilland\palmtree.math.core.uint\palmtree.math.core.uint\autogenerated_inline_func.h

; 325  :     c = _ADDX_UNIT(c, xp[29], yp[29], &zp[29]);

  00228	48 8b 82 e8 00
	00 00		 mov	 rax, QWORD PTR [rdx+232]
; File z:\sources\lunor\repos\rougemeilland\palmtree.math.core.uint\palmtree.math.core.uint\pmc_inline_func.h

; 191  :             return (_addcarryx_u64(carry, u, v, w));

  0022f	66 49 0f 38 f6
	80 e8 00 00 00	 adcx	 rax, QWORD PTR [r8+232]
  00239	49 89 81 e8 00
	00 00		 mov	 QWORD PTR [r9+232], rax
; File z:\sources\lunor\repos\rougemeilland\palmtree.math.core.uint\palmtree.math.core.uint\autogenerated_inline_func.h

; 326  :     c = _ADDX_UNIT(c, xp[30], yp[30], &zp[30]);

  00240	48 8b 82 f0 00
	00 00		 mov	 rax, QWORD PTR [rdx+240]
; File z:\sources\lunor\repos\rougemeilland\palmtree.math.core.uint\palmtree.math.core.uint\pmc_inline_func.h

; 191  :             return (_addcarryx_u64(carry, u, v, w));

  00247	66 49 0f 38 f6
	80 f0 00 00 00	 adcx	 rax, QWORD PTR [r8+240]
  00251	49 89 81 f0 00
	00 00		 mov	 QWORD PTR [r9+240], rax
; File z:\sources\lunor\repos\rougemeilland\palmtree.math.core.uint\palmtree.math.core.uint\autogenerated_inline_func.h

; 327  :     c = _ADDX_UNIT(c, xp[31], yp[31], &zp[31]);

  00258	48 8b 8a f8 00
	00 00		 mov	 rcx, QWORD PTR [rdx+248]
; File z:\sources\lunor\repos\rougemeilland\palmtree.math.core.uint\palmtree.math.core.uint\pmc_inline_func.h

; 191  :             return (_addcarryx_u64(carry, u, v, w));

  0025f	66 49 0f 38 f6
	88 f8 00 00 00	 adcx	 rcx, QWORD PTR [r8+248]
  00269	49 89 89 f8 00
	00 00		 mov	 QWORD PTR [r9+248], rcx
  00270	0f 92 c0	 setb	 al
; File z:\sources\lunor\repos\rougemeilland\palmtree.math.core.uint\palmtree.math.core.uint\autogenerated_inline_func.h

; 544  : }

  00273	c3		 ret	 0
_ADD_32WORDS_ADCX ENDP
_TEXT	ENDS
; Function compile flags: /Ogtpy
; File z:\sources\lunor\repos\rougemeilland\palmtree.math.core.uint\palmtree.math.core.uint\autogenerated_inline_func.h
; File z:\sources\lunor\repos\rougemeilland\palmtree.math.core.uint\palmtree.math.core.uint\pmc_inline_func.h
; File z:\sources\lunor\repos\rougemeilland\palmtree.math.core.uint\palmtree.math.core.uint\autogenerated_inline_func.h
; File z:\sources\lunor\repos\rougemeilland\palmtree.math.core.uint\palmtree.math.core.uint\pmc_inline_func.h
; File z:\sources\lunor\repos\rougemeilland\palmtree.math.core.uint\palmtree.math.core.uint\autogenerated_inline_func.h
; File z:\sources\lunor\repos\rougemeilland\palmtree.math.core.uint\palmtree.math.core.uint\pmc_inline_func.h
; File z:\sources\lunor\repos\rougemeilland\palmtree.math.core.uint\palmtree.math.core.uint\autogenerated_inline_func.h
; File z:\sources\lunor\repos\rougemeilland\palmtree.math.core.uint\palmtree.math.core.uint\pmc_inline_func.h
; File z:\sources\lunor\repos\rougemeilland\palmtree.math.core.uint\palmtree.math.core.uint\autogenerated_inline_func.h
; File z:\sources\lunor\repos\rougemeilland\palmtree.math.core.uint\palmtree.math.core.uint\pmc_inline_func.h
; File z:\sources\lunor\repos\rougemeilland\palmtree.math.core.uint\palmtree.math.core.uint\autogenerated_inline_func.h
; File z:\sources\lunor\repos\rougemeilland\palmtree.math.core.uint\palmtree.math.core.uint\pmc_inline_func.h
; File z:\sources\lunor\repos\rougemeilland\palmtree.math.core.uint\palmtree.math.core.uint\autogenerated_inline_func.h
; File z:\sources\lunor\repos\rougemeilland\palmtree.math.core.uint\palmtree.math.core.uint\pmc_inline_func.h
; File z:\sources\lunor\repos\rougemeilland\palmtree.math.core.uint\palmtree.math.core.uint\autogenerated_inline_func.h
; File z:\sources\lunor\repos\rougemeilland\palmtree.math.core.uint\palmtree.math.core.uint\pmc_inline_func.h
; File z:\sources\lunor\repos\rougemeilland\palmtree.math.core.uint\palmtree.math.core.uint\autogenerated_inline_func.h
; File z:\sources\lunor\repos\rougemeilland\palmtree.math.core.uint\palmtree.math.core.uint\pmc_inline_func.h
; File z:\sources\lunor\repos\rougemeilland\palmtree.math.core.uint\palmtree.math.core.uint\autogenerated_inline_func.h
; File z:\sources\lunor\repos\rougemeilland\palmtree.math.core.uint\palmtree.math.core.uint\pmc_inline_func.h
; File z:\sources\lunor\repos\rougemeilland\palmtree.math.core.uint\palmtree.math.core.uint\autogenerated_inline_func.h
; File z:\sources\lunor\repos\rougemeilland\palmtree.math.core.uint\palmtree.math.core.uint\pmc_inline_func.h
; File z:\sources\lunor\repos\rougemeilland\palmtree.math.core.uint\palmtree.math.core.uint\autogenerated_inline_func.h
; File z:\sources\lunor\repos\rougemeilland\palmtree.math.core.uint\palmtree.math.core.uint\pmc_inline_func.h
; File z:\sources\lunor\repos\rougemeilland\palmtree.math.core.uint\palmtree.math.core.uint\autogenerated_inline_func.h
; File z:\sources\lunor\repos\rougemeilland\palmtree.math.core.uint\palmtree.math.core.uint\pmc_inline_func.h
; File z:\sources\lunor\repos\rougemeilland\palmtree.math.core.uint\palmtree.math.core.uint\autogenerated_inline_func.h
; File z:\sources\lunor\repos\rougemeilland\palmtree.math.core.uint\palmtree.math.core.uint\pmc_inline_func.h
; File z:\sources\lunor\repos\rougemeilland\palmtree.math.core.uint\palmtree.math.core.uint\autogenerated_inline_func.h
; File z:\sources\lunor\repos\rougemeilland\palmtree.math.core.uint\palmtree.math.core.uint\pmc_inline_func.h
; File z:\sources\lunor\repos\rougemeilland\palmtree.math.core.uint\palmtree.math.core.uint\autogenerated_inline_func.h
; File z:\sources\lunor\repos\rougemeilland\palmtree.math.core.uint\palmtree.math.core.uint\pmc_inline_func.h
; File z:\sources\lunor\repos\rougemeilland\palmtree.math.core.uint\palmtree.math.core.uint\autogenerated_inline_func.h
; File z:\sources\lunor\repos\rougemeilland\palmtree.math.core.uint\palmtree.math.core.uint\pmc_inline_func.h
; File z:\sources\lunor\repos\rougemeilland\palmtree.math.core.uint\palmtree.math.core.uint\autogenerated_inline_func.h
; File z:\sources\lunor\repos\rougemeilland\palmtree.math.core.uint\palmtree.math.core.uint\pmc_inline_func.h
; File z:\sources\lunor\repos\rougemeilland\palmtree.math.core.uint\palmtree.math.core.uint\autogenerated_inline_func.h
; File z:\sources\lunor\repos\rougemeilland\palmtree.math.core.uint\palmtree.math.core.uint\pmc_inline_func.h
; File z:\sources\lunor\repos\rougemeilland\palmtree.math.core.uint\palmtree.math.core.uint\autogenerated_inline_func.h
; File z:\sources\lunor\repos\rougemeilland\palmtree.math.core.uint\palmtree.math.core.uint\pmc_inline_func.h
; File z:\sources\lunor\repos\rougemeilland\palmtree.math.core.uint\palmtree.math.core.uint\autogenerated_inline_func.h
; File z:\sources\lunor\repos\rougemeilland\palmtree.math.core.uint\palmtree.math.core.uint\pmc_inline_func.h
; File z:\sources\lunor\repos\rougemeilland\palmtree.math.core.uint\palmtree.math.core.uint\autogenerated_inline_func.h
; File z:\sources\lunor\repos\rougemeilland\palmtree.math.core.uint\palmtree.math.core.uint\pmc_inline_func.h
; File z:\sources\lunor\repos\rougemeilland\palmtree.math.core.uint\palmtree.math.core.uint\autogenerated_inline_func.h
; File z:\sources\lunor\repos\rougemeilland\palmtree.math.core.uint\palmtree.math.core.uint\pmc_inline_func.h
; File z:\sources\lunor\repos\rougemeilland\palmtree.math.core.uint\palmtree.math.core.uint\autogenerated_inline_func.h
; File z:\sources\lunor\repos\rougemeilland\palmtree.math.core.uint\palmtree.math.core.uint\pmc_inline_func.h
; File z:\sources\lunor\repos\rougemeilland\palmtree.math.core.uint\palmtree.math.core.uint\autogenerated_inline_func.h
; File z:\sources\lunor\repos\rougemeilland\palmtree.math.core.uint\palmtree.math.core.uint\pmc_inline_func.h
; File z:\sources\lunor\repos\rougemeilland\palmtree.math.core.uint\palmtree.math.core.uint\autogenerated_inline_func.h
; File z:\sources\lunor\repos\rougemeilland\palmtree.math.core.uint\palmtree.math.core.uint\pmc_inline_func.h
; File z:\sources\lunor\repos\rougemeilland\palmtree.math.core.uint\palmtree.math.core.uint\autogenerated_inline_func.h
; File z:\sources\lunor\repos\rougemeilland\palmtree.math.core.uint\palmtree.math.core.uint\pmc_inline_func.h
; File z:\sources\lunor\repos\rougemeilland\palmtree.math.core.uint\palmtree.math.core.uint\autogenerated_inline_func.h
; File z:\sources\lunor\repos\rougemeilland\palmtree.math.core.uint\palmtree.math.core.uint\pmc_inline_func.h
; File z:\sources\lunor\repos\rougemeilland\palmtree.math.core.uint\palmtree.math.core.uint\autogenerated_inline_func.h
; File z:\sources\lunor\repos\rougemeilland\palmtree.math.core.uint\palmtree.math.core.uint\pmc_inline_func.h
; File z:\sources\lunor\repos\rougemeilland\palmtree.math.core.uint\palmtree.math.core.uint\autogenerated_inline_func.h
; File z:\sources\lunor\repos\rougemeilland\palmtree.math.core.uint\palmtree.math.core.uint\pmc_inline_func.h
; File z:\sources\lunor\repos\rougemeilland\palmtree.math.core.uint\palmtree.math.core.uint\autogenerated_inline_func.h
; File z:\sources\lunor\repos\rougemeilland\palmtree.math.core.uint\palmtree.math.core.uint\pmc_inline_func.h
; File z:\sources\lunor\repos\rougemeilland\palmtree.math.core.uint\palmtree.math.core.uint\autogenerated_inline_func.h
; File z:\sources\lunor\repos\rougemeilland\palmtree.math.core.uint\palmtree.math.core.uint\pmc_inline_func.h
; File z:\sources\lunor\repos\rougemeilland\palmtree.math.core.uint\palmtree.math.core.uint\autogenerated_inline_func.h
;	COMDAT _ADD_32WORDS_ADC
_TEXT	SEGMENT
c$ = 8
xp$ = 16
yp$ = 24
zp$ = 32
_ADD_32WORDS_ADC PROC					; COMDAT

; 42   : #ifdef _MSC_VER
; 43   :     c = _ADD_UNIT(c, xp[0], yp[0], &zp[0]);

  00000	48 8b 02	 mov	 rax, QWORD PTR [rdx]
; File z:\sources\lunor\repos\rougemeilland\palmtree.math.core.uint\palmtree.math.core.uint\pmc_inline_func.h

; 180  :             return (_addcarry_u64(carry, u, v, w));

  00003	80 c1 ff	 add	 cl, -1
  00006	49 13 00	 adc	 rax, QWORD PTR [r8]
  00009	49 89 01	 mov	 QWORD PTR [r9], rax
; File z:\sources\lunor\repos\rougemeilland\palmtree.math.core.uint\palmtree.math.core.uint\autogenerated_inline_func.h

; 44   :     c = _ADD_UNIT(c, xp[1], yp[1], &zp[1]);

  0000c	48 8b 42 08	 mov	 rax, QWORD PTR [rdx+8]
; File z:\sources\lunor\repos\rougemeilland\palmtree.math.core.uint\palmtree.math.core.uint\pmc_inline_func.h

; 180  :             return (_addcarry_u64(carry, u, v, w));

  00010	49 13 40 08	 adc	 rax, QWORD PTR [r8+8]
  00014	49 89 41 08	 mov	 QWORD PTR [r9+8], rax
; File z:\sources\lunor\repos\rougemeilland\palmtree.math.core.uint\palmtree.math.core.uint\autogenerated_inline_func.h

; 45   :     c = _ADD_UNIT(c, xp[2], yp[2], &zp[2]);

  00018	48 8b 42 10	 mov	 rax, QWORD PTR [rdx+16]
; File z:\sources\lunor\repos\rougemeilland\palmtree.math.core.uint\palmtree.math.core.uint\pmc_inline_func.h

; 180  :             return (_addcarry_u64(carry, u, v, w));

  0001c	49 13 40 10	 adc	 rax, QWORD PTR [r8+16]
  00020	49 89 41 10	 mov	 QWORD PTR [r9+16], rax
; File z:\sources\lunor\repos\rougemeilland\palmtree.math.core.uint\palmtree.math.core.uint\autogenerated_inline_func.h

; 46   :     c = _ADD_UNIT(c, xp[3], yp[3], &zp[3]);

  00024	48 8b 42 18	 mov	 rax, QWORD PTR [rdx+24]
; File z:\sources\lunor\repos\rougemeilland\palmtree.math.core.uint\palmtree.math.core.uint\pmc_inline_func.h

; 180  :             return (_addcarry_u64(carry, u, v, w));

  00028	49 13 40 18	 adc	 rax, QWORD PTR [r8+24]
  0002c	49 89 41 18	 mov	 QWORD PTR [r9+24], rax
; File z:\sources\lunor\repos\rougemeilland\palmtree.math.core.uint\palmtree.math.core.uint\autogenerated_inline_func.h

; 47   :     c = _ADD_UNIT(c, xp[4], yp[4], &zp[4]);

  00030	48 8b 42 20	 mov	 rax, QWORD PTR [rdx+32]
; File z:\sources\lunor\repos\rougemeilland\palmtree.math.core.uint\palmtree.math.core.uint\pmc_inline_func.h

; 180  :             return (_addcarry_u64(carry, u, v, w));

  00034	49 13 40 20	 adc	 rax, QWORD PTR [r8+32]
  00038	49 89 41 20	 mov	 QWORD PTR [r9+32], rax
; File z:\sources\lunor\repos\rougemeilland\palmtree.math.core.uint\palmtree.math.core.uint\autogenerated_inline_func.h

; 48   :     c = _ADD_UNIT(c, xp[5], yp[5], &zp[5]);

  0003c	48 8b 42 28	 mov	 rax, QWORD PTR [rdx+40]
; File z:\sources\lunor\repos\rougemeilland\palmtree.math.core.uint\palmtree.math.core.uint\pmc_inline_func.h

; 180  :             return (_addcarry_u64(carry, u, v, w));

  00040	49 13 40 28	 adc	 rax, QWORD PTR [r8+40]
  00044	49 89 41 28	 mov	 QWORD PTR [r9+40], rax
; File z:\sources\lunor\repos\rougemeilland\palmtree.math.core.uint\palmtree.math.core.uint\autogenerated_inline_func.h

; 49   :     c = _ADD_UNIT(c, xp[6], yp[6], &zp[6]);

  00048	48 8b 42 30	 mov	 rax, QWORD PTR [rdx+48]
; File z:\sources\lunor\repos\rougemeilland\palmtree.math.core.uint\palmtree.math.core.uint\pmc_inline_func.h

; 180  :             return (_addcarry_u64(carry, u, v, w));

  0004c	49 13 40 30	 adc	 rax, QWORD PTR [r8+48]
  00050	49 89 41 30	 mov	 QWORD PTR [r9+48], rax
; File z:\sources\lunor\repos\rougemeilland\palmtree.math.core.uint\palmtree.math.core.uint\autogenerated_inline_func.h

; 50   :     c = _ADD_UNIT(c, xp[7], yp[7], &zp[7]);

  00054	48 8b 42 38	 mov	 rax, QWORD PTR [rdx+56]
; File z:\sources\lunor\repos\rougemeilland\palmtree.math.core.uint\palmtree.math.core.uint\pmc_inline_func.h

; 180  :             return (_addcarry_u64(carry, u, v, w));

  00058	49 13 40 38	 adc	 rax, QWORD PTR [r8+56]
  0005c	49 89 41 38	 mov	 QWORD PTR [r9+56], rax
; File z:\sources\lunor\repos\rougemeilland\palmtree.math.core.uint\palmtree.math.core.uint\autogenerated_inline_func.h

; 51   :     c = _ADD_UNIT(c, xp[8], yp[8], &zp[8]);

  00060	48 8b 42 40	 mov	 rax, QWORD PTR [rdx+64]
; File z:\sources\lunor\repos\rougemeilland\palmtree.math.core.uint\palmtree.math.core.uint\pmc_inline_func.h

; 180  :             return (_addcarry_u64(carry, u, v, w));

  00064	49 13 40 40	 adc	 rax, QWORD PTR [r8+64]
  00068	49 89 41 40	 mov	 QWORD PTR [r9+64], rax
; File z:\sources\lunor\repos\rougemeilland\palmtree.math.core.uint\palmtree.math.core.uint\autogenerated_inline_func.h

; 52   :     c = _ADD_UNIT(c, xp[9], yp[9], &zp[9]);

  0006c	48 8b 42 48	 mov	 rax, QWORD PTR [rdx+72]
; File z:\sources\lunor\repos\rougemeilland\palmtree.math.core.uint\palmtree.math.core.uint\pmc_inline_func.h

; 180  :             return (_addcarry_u64(carry, u, v, w));

  00070	49 13 40 48	 adc	 rax, QWORD PTR [r8+72]
  00074	49 89 41 48	 mov	 QWORD PTR [r9+72], rax
; File z:\sources\lunor\repos\rougemeilland\palmtree.math.core.uint\palmtree.math.core.uint\autogenerated_inline_func.h

; 53   :     c = _ADD_UNIT(c, xp[10], yp[10], &zp[10]);

  00078	48 8b 42 50	 mov	 rax, QWORD PTR [rdx+80]
; File z:\sources\lunor\repos\rougemeilland\palmtree.math.core.uint\palmtree.math.core.uint\pmc_inline_func.h

; 180  :             return (_addcarry_u64(carry, u, v, w));

  0007c	49 13 40 50	 adc	 rax, QWORD PTR [r8+80]
  00080	49 89 41 50	 mov	 QWORD PTR [r9+80], rax
; File z:\sources\lunor\repos\rougemeilland\palmtree.math.core.uint\palmtree.math.core.uint\autogenerated_inline_func.h

; 54   :     c = _ADD_UNIT(c, xp[11], yp[11], &zp[11]);

  00084	48 8b 42 58	 mov	 rax, QWORD PTR [rdx+88]
; File z:\sources\lunor\repos\rougemeilland\palmtree.math.core.uint\palmtree.math.core.uint\pmc_inline_func.h

; 180  :             return (_addcarry_u64(carry, u, v, w));

  00088	49 13 40 58	 adc	 rax, QWORD PTR [r8+88]
  0008c	49 89 41 58	 mov	 QWORD PTR [r9+88], rax
; File z:\sources\lunor\repos\rougemeilland\palmtree.math.core.uint\palmtree.math.core.uint\autogenerated_inline_func.h

; 55   :     c = _ADD_UNIT(c, xp[12], yp[12], &zp[12]);

  00090	48 8b 42 60	 mov	 rax, QWORD PTR [rdx+96]
; File z:\sources\lunor\repos\rougemeilland\palmtree.math.core.uint\palmtree.math.core.uint\pmc_inline_func.h

; 180  :             return (_addcarry_u64(carry, u, v, w));

  00094	49 13 40 60	 adc	 rax, QWORD PTR [r8+96]
  00098	49 89 41 60	 mov	 QWORD PTR [r9+96], rax
; File z:\sources\lunor\repos\rougemeilland\palmtree.math.core.uint\palmtree.math.core.uint\autogenerated_inline_func.h

; 56   :     c = _ADD_UNIT(c, xp[13], yp[13], &zp[13]);

  0009c	48 8b 42 68	 mov	 rax, QWORD PTR [rdx+104]
; File z:\sources\lunor\repos\rougemeilland\palmtree.math.core.uint\palmtree.math.core.uint\pmc_inline_func.h

; 180  :             return (_addcarry_u64(carry, u, v, w));

  000a0	49 13 40 68	 adc	 rax, QWORD PTR [r8+104]
  000a4	49 89 41 68	 mov	 QWORD PTR [r9+104], rax
; File z:\sources\lunor\repos\rougemeilland\palmtree.math.core.uint\palmtree.math.core.uint\autogenerated_inline_func.h

; 57   :     c = _ADD_UNIT(c, xp[14], yp[14], &zp[14]);

  000a8	48 8b 42 70	 mov	 rax, QWORD PTR [rdx+112]
; File z:\sources\lunor\repos\rougemeilland\palmtree.math.core.uint\palmtree.math.core.uint\pmc_inline_func.h

; 180  :             return (_addcarry_u64(carry, u, v, w));

  000ac	49 13 40 70	 adc	 rax, QWORD PTR [r8+112]
  000b0	49 89 41 70	 mov	 QWORD PTR [r9+112], rax
; File z:\sources\lunor\repos\rougemeilland\palmtree.math.core.uint\palmtree.math.core.uint\autogenerated_inline_func.h

; 58   :     c = _ADD_UNIT(c, xp[15], yp[15], &zp[15]);

  000b4	48 8b 42 78	 mov	 rax, QWORD PTR [rdx+120]
; File z:\sources\lunor\repos\rougemeilland\palmtree.math.core.uint\palmtree.math.core.uint\pmc_inline_func.h

; 180  :             return (_addcarry_u64(carry, u, v, w));

  000b8	49 13 40 78	 adc	 rax, QWORD PTR [r8+120]
  000bc	49 89 41 78	 mov	 QWORD PTR [r9+120], rax
; File z:\sources\lunor\repos\rougemeilland\palmtree.math.core.uint\palmtree.math.core.uint\autogenerated_inline_func.h

; 59   :     c = _ADD_UNIT(c, xp[16], yp[16], &zp[16]);

  000c0	48 8b 82 80 00
	00 00		 mov	 rax, QWORD PTR [rdx+128]
; File z:\sources\lunor\repos\rougemeilland\palmtree.math.core.uint\palmtree.math.core.uint\pmc_inline_func.h

; 180  :             return (_addcarry_u64(carry, u, v, w));

  000c7	49 13 80 80 00
	00 00		 adc	 rax, QWORD PTR [r8+128]
  000ce	49 89 81 80 00
	00 00		 mov	 QWORD PTR [r9+128], rax
; File z:\sources\lunor\repos\rougemeilland\palmtree.math.core.uint\palmtree.math.core.uint\autogenerated_inline_func.h

; 60   :     c = _ADD_UNIT(c, xp[17], yp[17], &zp[17]);

  000d5	48 8b 82 88 00
	00 00		 mov	 rax, QWORD PTR [rdx+136]
; File z:\sources\lunor\repos\rougemeilland\palmtree.math.core.uint\palmtree.math.core.uint\pmc_inline_func.h

; 180  :             return (_addcarry_u64(carry, u, v, w));

  000dc	49 13 80 88 00
	00 00		 adc	 rax, QWORD PTR [r8+136]
  000e3	49 89 81 88 00
	00 00		 mov	 QWORD PTR [r9+136], rax
; File z:\sources\lunor\repos\rougemeilland\palmtree.math.core.uint\palmtree.math.core.uint\autogenerated_inline_func.h

; 61   :     c = _ADD_UNIT(c, xp[18], yp[18], &zp[18]);

  000ea	48 8b 82 90 00
	00 00		 mov	 rax, QWORD PTR [rdx+144]
; File z:\sources\lunor\repos\rougemeilland\palmtree.math.core.uint\palmtree.math.core.uint\pmc_inline_func.h

; 180  :             return (_addcarry_u64(carry, u, v, w));

  000f1	49 13 80 90 00
	00 00		 adc	 rax, QWORD PTR [r8+144]
  000f8	49 89 81 90 00
	00 00		 mov	 QWORD PTR [r9+144], rax
; File z:\sources\lunor\repos\rougemeilland\palmtree.math.core.uint\palmtree.math.core.uint\autogenerated_inline_func.h

; 62   :     c = _ADD_UNIT(c, xp[19], yp[19], &zp[19]);

  000ff	48 8b 82 98 00
	00 00		 mov	 rax, QWORD PTR [rdx+152]
; File z:\sources\lunor\repos\rougemeilland\palmtree.math.core.uint\palmtree.math.core.uint\pmc_inline_func.h

; 180  :             return (_addcarry_u64(carry, u, v, w));

  00106	49 13 80 98 00
	00 00		 adc	 rax, QWORD PTR [r8+152]
  0010d	49 89 81 98 00
	00 00		 mov	 QWORD PTR [r9+152], rax
; File z:\sources\lunor\repos\rougemeilland\palmtree.math.core.uint\palmtree.math.core.uint\autogenerated_inline_func.h

; 63   :     c = _ADD_UNIT(c, xp[20], yp[20], &zp[20]);

  00114	48 8b 82 a0 00
	00 00		 mov	 rax, QWORD PTR [rdx+160]
; File z:\sources\lunor\repos\rougemeilland\palmtree.math.core.uint\palmtree.math.core.uint\pmc_inline_func.h

; 180  :             return (_addcarry_u64(carry, u, v, w));

  0011b	49 13 80 a0 00
	00 00		 adc	 rax, QWORD PTR [r8+160]
  00122	49 89 81 a0 00
	00 00		 mov	 QWORD PTR [r9+160], rax
; File z:\sources\lunor\repos\rougemeilland\palmtree.math.core.uint\palmtree.math.core.uint\autogenerated_inline_func.h

; 64   :     c = _ADD_UNIT(c, xp[21], yp[21], &zp[21]);

  00129	48 8b 82 a8 00
	00 00		 mov	 rax, QWORD PTR [rdx+168]
; File z:\sources\lunor\repos\rougemeilland\palmtree.math.core.uint\palmtree.math.core.uint\pmc_inline_func.h

; 180  :             return (_addcarry_u64(carry, u, v, w));

  00130	49 13 80 a8 00
	00 00		 adc	 rax, QWORD PTR [r8+168]
  00137	49 89 81 a8 00
	00 00		 mov	 QWORD PTR [r9+168], rax
; File z:\sources\lunor\repos\rougemeilland\palmtree.math.core.uint\palmtree.math.core.uint\autogenerated_inline_func.h

; 65   :     c = _ADD_UNIT(c, xp[22], yp[22], &zp[22]);

  0013e	48 8b 82 b0 00
	00 00		 mov	 rax, QWORD PTR [rdx+176]
; File z:\sources\lunor\repos\rougemeilland\palmtree.math.core.uint\palmtree.math.core.uint\pmc_inline_func.h

; 180  :             return (_addcarry_u64(carry, u, v, w));

  00145	49 13 80 b0 00
	00 00		 adc	 rax, QWORD PTR [r8+176]
  0014c	49 89 81 b0 00
	00 00		 mov	 QWORD PTR [r9+176], rax
; File z:\sources\lunor\repos\rougemeilland\palmtree.math.core.uint\palmtree.math.core.uint\autogenerated_inline_func.h

; 66   :     c = _ADD_UNIT(c, xp[23], yp[23], &zp[23]);

  00153	48 8b 82 b8 00
	00 00		 mov	 rax, QWORD PTR [rdx+184]
; File z:\sources\lunor\repos\rougemeilland\palmtree.math.core.uint\palmtree.math.core.uint\pmc_inline_func.h

; 180  :             return (_addcarry_u64(carry, u, v, w));

  0015a	49 13 80 b8 00
	00 00		 adc	 rax, QWORD PTR [r8+184]
  00161	49 89 81 b8 00
	00 00		 mov	 QWORD PTR [r9+184], rax
; File z:\sources\lunor\repos\rougemeilland\palmtree.math.core.uint\palmtree.math.core.uint\autogenerated_inline_func.h

; 67   :     c = _ADD_UNIT(c, xp[24], yp[24], &zp[24]);

  00168	48 8b 82 c0 00
	00 00		 mov	 rax, QWORD PTR [rdx+192]
; File z:\sources\lunor\repos\rougemeilland\palmtree.math.core.uint\palmtree.math.core.uint\pmc_inline_func.h

; 180  :             return (_addcarry_u64(carry, u, v, w));

  0016f	49 13 80 c0 00
	00 00		 adc	 rax, QWORD PTR [r8+192]
  00176	49 89 81 c0 00
	00 00		 mov	 QWORD PTR [r9+192], rax
; File z:\sources\lunor\repos\rougemeilland\palmtree.math.core.uint\palmtree.math.core.uint\autogenerated_inline_func.h

; 68   :     c = _ADD_UNIT(c, xp[25], yp[25], &zp[25]);

  0017d	48 8b 82 c8 00
	00 00		 mov	 rax, QWORD PTR [rdx+200]
; File z:\sources\lunor\repos\rougemeilland\palmtree.math.core.uint\palmtree.math.core.uint\pmc_inline_func.h

; 180  :             return (_addcarry_u64(carry, u, v, w));

  00184	49 13 80 c8 00
	00 00		 adc	 rax, QWORD PTR [r8+200]
  0018b	49 89 81 c8 00
	00 00		 mov	 QWORD PTR [r9+200], rax
; File z:\sources\lunor\repos\rougemeilland\palmtree.math.core.uint\palmtree.math.core.uint\autogenerated_inline_func.h

; 69   :     c = _ADD_UNIT(c, xp[26], yp[26], &zp[26]);

  00192	48 8b 82 d0 00
	00 00		 mov	 rax, QWORD PTR [rdx+208]
; File z:\sources\lunor\repos\rougemeilland\palmtree.math.core.uint\palmtree.math.core.uint\pmc_inline_func.h

; 180  :             return (_addcarry_u64(carry, u, v, w));

  00199	49 13 80 d0 00
	00 00		 adc	 rax, QWORD PTR [r8+208]
  001a0	49 89 81 d0 00
	00 00		 mov	 QWORD PTR [r9+208], rax
; File z:\sources\lunor\repos\rougemeilland\palmtree.math.core.uint\palmtree.math.core.uint\autogenerated_inline_func.h

; 70   :     c = _ADD_UNIT(c, xp[27], yp[27], &zp[27]);

  001a7	48 8b 82 d8 00
	00 00		 mov	 rax, QWORD PTR [rdx+216]
; File z:\sources\lunor\repos\rougemeilland\palmtree.math.core.uint\palmtree.math.core.uint\pmc_inline_func.h

; 180  :             return (_addcarry_u64(carry, u, v, w));

  001ae	49 13 80 d8 00
	00 00		 adc	 rax, QWORD PTR [r8+216]
  001b5	49 89 81 d8 00
	00 00		 mov	 QWORD PTR [r9+216], rax
; File z:\sources\lunor\repos\rougemeilland\palmtree.math.core.uint\palmtree.math.core.uint\autogenerated_inline_func.h

; 71   :     c = _ADD_UNIT(c, xp[28], yp[28], &zp[28]);

  001bc	48 8b 82 e0 00
	00 00		 mov	 rax, QWORD PTR [rdx+224]
; File z:\sources\lunor\repos\rougemeilland\palmtree.math.core.uint\palmtree.math.core.uint\pmc_inline_func.h

; 180  :             return (_addcarry_u64(carry, u, v, w));

  001c3	49 13 80 e0 00
	00 00		 adc	 rax, QWORD PTR [r8+224]
  001ca	49 89 81 e0 00
	00 00		 mov	 QWORD PTR [r9+224], rax
; File z:\sources\lunor\repos\rougemeilland\palmtree.math.core.uint\palmtree.math.core.uint\autogenerated_inline_func.h

; 72   :     c = _ADD_UNIT(c, xp[29], yp[29], &zp[29]);

  001d1	48 8b 82 e8 00
	00 00		 mov	 rax, QWORD PTR [rdx+232]
; File z:\sources\lunor\repos\rougemeilland\palmtree.math.core.uint\palmtree.math.core.uint\pmc_inline_func.h

; 180  :             return (_addcarry_u64(carry, u, v, w));

  001d8	49 13 80 e8 00
	00 00		 adc	 rax, QWORD PTR [r8+232]
  001df	49 89 81 e8 00
	00 00		 mov	 QWORD PTR [r9+232], rax
; File z:\sources\lunor\repos\rougemeilland\palmtree.math.core.uint\palmtree.math.core.uint\autogenerated_inline_func.h

; 73   :     c = _ADD_UNIT(c, xp[30], yp[30], &zp[30]);

  001e6	48 8b 82 f0 00
	00 00		 mov	 rax, QWORD PTR [rdx+240]
; File z:\sources\lunor\repos\rougemeilland\palmtree.math.core.uint\palmtree.math.core.uint\pmc_inline_func.h

; 180  :             return (_addcarry_u64(carry, u, v, w));

  001ed	49 13 80 f0 00
	00 00		 adc	 rax, QWORD PTR [r8+240]
  001f4	49 89 81 f0 00
	00 00		 mov	 QWORD PTR [r9+240], rax
; File z:\sources\lunor\repos\rougemeilland\palmtree.math.core.uint\palmtree.math.core.uint\autogenerated_inline_func.h

; 74   :     c = _ADD_UNIT(c, xp[31], yp[31], &zp[31]);

  001fb	48 8b 8a f8 00
	00 00		 mov	 rcx, QWORD PTR [rdx+248]
; File z:\sources\lunor\repos\rougemeilland\palmtree.math.core.uint\palmtree.math.core.uint\pmc_inline_func.h

; 180  :             return (_addcarry_u64(carry, u, v, w));

  00202	49 13 88 f8 00
	00 00		 adc	 rcx, QWORD PTR [r8+248]
  00209	49 89 89 f8 00
	00 00		 mov	 QWORD PTR [r9+248], rcx
  00210	0f 92 c0	 setb	 al
; File z:\sources\lunor\repos\rougemeilland\palmtree.math.core.uint\palmtree.math.core.uint\autogenerated_inline_func.h

; 291  : }

  00213	c3		 ret	 0
_ADD_32WORDS_ADC ENDP
_TEXT	ENDS
; Function compile flags: /Ogtpy
; File z:\sources\lunor\repos\rougemeilland\palmtree.math.core.uint\palmtree.math.core.uint\pmc_inline_func.h
;	COMDAT _LZCNT_ALT_UNIT
_TEXT	SEGMENT
x$ = 8
_LZCNT_ALT_UNIT PROC					; COMDAT

; 455  :             if (x == 0)

  00000	48 85 c9	 test	 rcx, rcx
  00003	75 06		 jne	 SHORT $LN2@LZCNT_ALT_

; 456  :                 return (sizeof(x) * 8);

  00005	b8 40 00 00 00	 mov	 eax, 64			; 00000040H

; 480  :         }

  0000a	c3		 ret	 0
$LN2@LZCNT_ALT_:

; 457  : #ifdef _M_IX86
; 458  :             DWORD pos;
; 459  : #ifdef _MSC_VER
; 460  :             _BitScanReverse(&pos, x);
; 461  : #elif defined(__GNUC__)
; 462  :             __asm__("bsrl %1, %0" : "=r"(pos) : "rm"(x));
; 463  : #else
; 464  : #error unknown compiler
; 465  : #endif
; 466  : #elif defined(_M_X64)
; 467  : #ifdef _MSC_VER
; 468  :             DWORD pos;
; 469  :             _BitScanReverse64(&pos, x);

  0000b	48 0f bd c9	 bsr	 rcx, rcx

; 470  : #elif defined(__GNUC__)
; 471  :             _UINT64_T pos;
; 472  :             __asm__("bsrq %1, %0" : "=r"(pos) : "rm"(x));
; 473  : #else
; 474  : #error unknown compiler
; 475  : #endif
; 476  : #else
; 477  : #error unknown platform
; 478  : #endif
; 479  :             return (sizeof(x) * 8 - 1 - pos);

  0000f	b8 3f 00 00 00	 mov	 eax, 63			; 0000003fH
  00014	2b c1		 sub	 eax, ecx

; 480  :         }

  00016	c3		 ret	 0
_LZCNT_ALT_UNIT ENDP
_TEXT	ENDS
; Function compile flags: /Ogtpy
; File z:\sources\lunor\repos\rougemeilland\palmtree.math.core.uint\palmtree.math.core.uint\pmc_inline_func.h
;	COMDAT _LZCNT_ALT_32
_TEXT	SEGMENT
x$ = 8
_LZCNT_ALT_32 PROC					; COMDAT

; 422  :             if (x == 0)

  00000	85 c9		 test	 ecx, ecx
  00002	75 06		 jne	 SHORT $LN2@LZCNT_ALT_

; 423  :                 return (sizeof(x) * 8);

  00004	b8 20 00 00 00	 mov	 eax, 32			; 00000020H

; 433  :         }

  00009	c3		 ret	 0
$LN2@LZCNT_ALT_:

; 424  :             DWORD pos;
; 425  : #ifdef _MSC_VER
; 426  :             _BitScanReverse(&pos, x);

  0000a	0f bd c9	 bsr	 ecx, ecx

; 427  : #elif defined(__GNUC__)
; 428  :             __asm__("bsrl %1, %0" : "=r"(pos) : "rm"(x));
; 429  : #else
; 430  : #error unknown compiler
; 431  : #endif
; 432  :             return (sizeof(x) * 8 - 1 - pos);

  0000d	b8 1f 00 00 00	 mov	 eax, 31
  00012	2b c1		 sub	 eax, ecx

; 433  :         }

  00014	c3		 ret	 0
_LZCNT_ALT_32 ENDP
_TEXT	ENDS
; Function compile flags: /Ogtpy
; File z:\sources\lunor\repos\rougemeilland\palmtree.math.core.uint\palmtree.math.core.uint\pmc_inline_func.h
;	COMDAT _ADDX_UNIT
_TEXT	SEGMENT
carry$ = 8
u$ = 16
v$ = 24
w$ = 32
_ADDX_UNIT PROC						; COMDAT

; 188  : #ifdef _M_IX86
; 189  :             return (_addcarryx_u32(carry, u, v, w));
; 190  : #elif defined(_M_X64)
; 191  :             return (_addcarryx_u64(carry, u, v, w));

  00000	80 c1 ff	 add	 cl, -1
  00003	66 49 0f 38 f6
	d0		 adcx	 rdx, r8
  00009	49 89 11	 mov	 QWORD PTR [r9], rdx
  0000c	0f 92 c0	 setb	 al

; 192  : #else
; 193  : #error unknown platform
; 194  : #endif
; 195  :         }

  0000f	c3		 ret	 0
_ADDX_UNIT ENDP
_TEXT	ENDS
; Function compile flags: /Ogtpy
; File z:\sources\lunor\repos\rougemeilland\palmtree.math.core.uint\palmtree.math.core.uint\pmc_inline_func.h
;	COMDAT _ADD_UNIT
_TEXT	SEGMENT
carry$ = 8
u$ = 16
v$ = 24
w$ = 32
_ADD_UNIT PROC						; COMDAT

; 177  : #ifdef _M_IX86
; 178  :             return (_addcarry_u32(carry, u, v, w));
; 179  : #elif defined(_M_X64)
; 180  :             return (_addcarry_u64(carry, u, v, w));

  00000	80 c1 ff	 add	 cl, -1
  00003	49 13 d0	 adc	 rdx, r8
  00006	49 89 11	 mov	 QWORD PTR [r9], rdx
  00009	0f 92 c0	 setb	 al

; 181  : #else
; 182  : #error unknown platform
; 183  : #endif
; 184  :         }

  0000c	c3		 ret	 0
_ADD_UNIT ENDP
_TEXT	ENDS
; Function compile flags: /Ogtpy
; File z:\sources\lunor\repos\rougemeilland\palmtree.math.core.uint\palmtree.math.core.uint\pmc_inline_func.h
;	COMDAT _MAXIMUM_UNIT
_TEXT	SEGMENT
x$ = 8
y$ = 16
_MAXIMUM_UNIT PROC					; COMDAT

; 167  :             return (x >= y ? x : y);

  00000	48 3b ca	 cmp	 rcx, rdx
  00003	48 0f 43 d1	 cmovae	 rdx, rcx
  00007	48 8b c2	 mov	 rax, rdx

; 168  :         }

  0000a	c3		 ret	 0
_MAXIMUM_UNIT ENDP
_TEXT	ENDS
; Function compile flags: /Ogtpy
; File z:\sources\lunor\repos\rougemeilland\palmtree.math.core.uint\palmtree.math.core.uint\pmc_inline_func.h
;	COMDAT _FROMDWORDTOWORD
_TEXT	SEGMENT
value$ = 8
result_high$ = 16
_FROMDWORDTOWORD PROC					; COMDAT

; 146  :             *result_high = (_UINT32_T)(value >> 32);

  00000	48 8b c1	 mov	 rax, rcx
  00003	48 c1 e8 20	 shr	 rax, 32			; 00000020H
  00007	89 02		 mov	 DWORD PTR [rdx], eax

; 147  :             return ((_UINT32_T)value);

  00009	8b c1		 mov	 eax, ecx

; 148  :         }

  0000b	c3		 ret	 0
_FROMDWORDTOWORD ENDP
_TEXT	ENDS
; Function compile flags: /Ogtpy
; File z:\sources\lunor\repos\rougemeilland\palmtree.math.core.uint\palmtree.math.core.uint\pmc_add.cpp
; File z:\sources\lunor\repos\rougemeilland\palmtree.math.core.uint\palmtree.math.core.uint\pmc_inline_func.h
; File z:\sources\lunor\repos\rougemeilland\palmtree.math.core.uint\palmtree.math.core.uint\pmc_add.cpp
;	COMDAT ?PMC_Add_X_X@Internal@Core@Math@Palmtree@@YAPEAU__tag_PMC_HANDLE_UINT@1234@PEAU51234@0@Z
_TEXT	SEGMENT
root$1 = 56
$T2 = 56
$T3 = 56
root$ = 104
u$ = 160
v$ = 168
?PMC_Add_X_X@Internal@Core@Math@Palmtree@@YAPEAU__tag_PMC_HANDLE_UINT@1234@PEAU51234@0@Z PROC ; Palmtree::Math::Core::Internal::PMC_Add_X_X, COMDAT

; 551  :     {

$LN22:
  00000	48 8b c4	 mov	 rax, rsp
  00003	57		 push	 rdi
  00004	48 81 ec 90 00
	00 00		 sub	 rsp, 144		; 00000090H
  0000b	48 c7 40 98 fe
	ff ff ff	 mov	 QWORD PTR [rax-104], -2
  00013	48 89 58 08	 mov	 QWORD PTR [rax+8], rbx
  00017	48 89 70 10	 mov	 QWORD PTR [rax+16], rsi
  0001b	48 8b fa	 mov	 rdi, rdx
  0001e	48 8b f1	 mov	 rsi, rcx

; 552  :         if (u == nullptr)

  00021	48 85 c9	 test	 rcx, rcx
  00024	0f 84 40 01 00
	00		 je	 $LN19@PMC_Add_X_

; 554  :         if (v == nullptr)

  0002a	48 85 d2	 test	 rdx, rdx
  0002d	0f 84 0d 01 00
	00		 je	 $LN20@PMC_Add_X_

; 556  :         CheckNumber((NUMBER_HEADER*)u);

  00033	e8 00 00 00 00	 call	 ?CheckNumber@Internal@Core@Math@Palmtree@@YAXPEAU__tag_NUMBER_HEADER@1234@@Z ; Palmtree::Math::Core::Internal::CheckNumber

; 557  :         CheckNumber((NUMBER_HEADER*)v);

  00038	48 8b cf	 mov	 rcx, rdi
  0003b	e8 00 00 00 00	 call	 ?CheckNumber@Internal@Core@Math@Palmtree@@YAXPEAU__tag_NUMBER_HEADER@1234@@Z ; Palmtree::Math::Core::Internal::CheckNumber

; 558  :         ResourceHolderUINT root;

  00040	48 8d 4c 24 68	 lea	 rcx, QWORD PTR root$[rsp]
  00045	e8 00 00 00 00	 call	 ??0ResourceHolderUINT@Internal@Core@Math@Palmtree@@QEAA@XZ ; Palmtree::Math::Core::Internal::ResourceHolderUINT::ResourceHolderUINT
  0004a	90		 npad	 1

; 523  :         if (u->IS_ZERO)

  0004b	f6 46 08 01	 test	 BYTE PTR [rsi+8], 1
  0004f	74 22		 je	 SHORT $LN7@PMC_Add_X_

; 524  :         {
; 525  :             if (v->IS_ZERO)

  00051	f6 47 08 01	 test	 BYTE PTR [rdi+8], 1
  00055	74 0c		 je	 SHORT $LN9@PMC_Add_X_

; 526  :                 return (&number_zero);

  00057	48 8d 1d 00 00
	00 00		 lea	 rbx, OFFSET FLAT:?number_zero@Internal@Core@Math@Palmtree@@3U__tag_NUMBER_HEADER@1234@A ; Palmtree::Math::Core::Internal::number_zero
  0005e	e9 a0 00 00 00	 jmp	 $LN12@PMC_Add_X_
$LN9@PMC_Add_X_:

; 527  :             else
; 528  :                 return (DuplicateNumber(v));

  00063	48 8b cf	 mov	 rcx, rdi
  00066	e8 00 00 00 00	 call	 ?DuplicateNumber@Internal@Core@Math@Palmtree@@YAPEAU__tag_NUMBER_HEADER@1234@PEAU51234@@Z ; Palmtree::Math::Core::Internal::DuplicateNumber
  0006b	48 8b d8	 mov	 rbx, rax
  0006e	e9 90 00 00 00	 jmp	 $LN12@PMC_Add_X_
$LN7@PMC_Add_X_:

; 529  :         }
; 530  :         else
; 531  :         {
; 532  :             if (v->IS_ZERO)

  00073	f6 47 08 01	 test	 BYTE PTR [rdi+8], 1
  00077	74 0d		 je	 SHORT $LN11@PMC_Add_X_

; 533  :                 return (DuplicateNumber(u));

  00079	48 8b ce	 mov	 rcx, rsi
  0007c	e8 00 00 00 00	 call	 ?DuplicateNumber@Internal@Core@Math@Palmtree@@YAPEAU__tag_NUMBER_HEADER@1234@PEAU51234@@Z ; Palmtree::Math::Core::Internal::DuplicateNumber
  00081	48 8b d8	 mov	 rbx, rax
  00084	eb 7d		 jmp	 SHORT $LN12@PMC_Add_X_
$LN11@PMC_Add_X_:

; 534  :             else
; 535  :             {
; 536  :                 ResourceHolderUINT root;

  00086	48 8d 4c 24 38	 lea	 rcx, QWORD PTR root$1[rsp]
  0008b	e8 00 00 00 00	 call	 ??0ResourceHolderUINT@Internal@Core@Math@Palmtree@@QEAA@XZ ; Palmtree::Math::Core::Internal::ResourceHolderUINT::ResourceHolderUINT
  00090	90		 npad	 1

; 537  :                 __UNIT_TYPE u_bit_count = u->UNIT_BIT_COUNT;
; 538  :                 __UNIT_TYPE v_bit_count = v->UNIT_BIT_COUNT;

  00091	48 8b 57 20	 mov	 rdx, QWORD PTR [rdi+32]
; File z:\sources\lunor\repos\rougemeilland\palmtree.math.core.uint\palmtree.math.core.uint\pmc_inline_func.h

; 167  :             return (x >= y ? x : y);

  00095	48 39 56 20	 cmp	 QWORD PTR [rsi+32], rdx
  00099	48 0f 43 56 20	 cmovae	 rdx, QWORD PTR [rsi+32]
; File z:\sources\lunor\repos\rougemeilland\palmtree.math.core.uint\palmtree.math.core.uint\pmc_add.cpp

; 539  :                 __UNIT_TYPE w_bit_count = _MAXIMUM_UNIT(u_bit_count, v_bit_count) + 1;

  0009e	48 ff c2	 inc	 rdx

; 540  :                 NUMBER_HEADER* w = root.AllocateNumber(w_bit_count);

  000a1	48 8d 4c 24 38	 lea	 rcx, QWORD PTR root$1[rsp]
  000a6	e8 00 00 00 00	 call	 ?AllocateNumber@ResourceHolderUINT@Internal@Core@Math@Palmtree@@QEAAPEAU__tag_NUMBER_HEADER@2345@_K@Z ; Palmtree::Math::Core::Internal::ResourceHolderUINT::AllocateNumber
  000ab	48 8b d8	 mov	 rbx, rax

; 541  :                 (*fp_Add_Imp)(u->BLOCK, u->UNIT_WORD_COUNT, v->BLOCK, v->UNIT_WORD_COUNT, w->BLOCK, w->BLOCK_COUNT);

  000ae	48 8b 40 38	 mov	 rax, QWORD PTR [rax+56]
  000b2	48 89 44 24 28	 mov	 QWORD PTR [rsp+40], rax
  000b7	48 8b 43 40	 mov	 rax, QWORD PTR [rbx+64]
  000bb	48 89 44 24 20	 mov	 QWORD PTR [rsp+32], rax
  000c0	4c 8b 4f 18	 mov	 r9, QWORD PTR [rdi+24]
  000c4	4c 8b 47 40	 mov	 r8, QWORD PTR [rdi+64]
  000c8	48 8b 56 18	 mov	 rdx, QWORD PTR [rsi+24]
  000cc	48 8b 4e 40	 mov	 rcx, QWORD PTR [rsi+64]
  000d0	ff 15 00 00 00
	00		 call	 QWORD PTR ?fp_Add_Imp@Internal@Core@Math@Palmtree@@3P6AXPEA_K_K0101@ZEA

; 542  :                 root.CheckNumber(w);

  000d6	48 8b d3	 mov	 rdx, rbx
  000d9	48 8d 4c 24 38	 lea	 rcx, QWORD PTR root$1[rsp]
  000de	e8 00 00 00 00	 call	 ?CheckNumber@ResourceHolderUINT@Internal@Core@Math@Palmtree@@QEAAXPEAU__tag_NUMBER_HEADER@2345@@Z ; Palmtree::Math::Core::Internal::ResourceHolderUINT::CheckNumber

; 543  :                 CommitNumber(w);

  000e3	48 8b cb	 mov	 rcx, rbx
  000e6	e8 00 00 00 00	 call	 ?CommitNumber@Internal@Core@Math@Palmtree@@YAXPEAU__tag_NUMBER_HEADER@1234@@Z ; Palmtree::Math::Core::Internal::CommitNumber

; 544  :                 root.UnlinkNumber(w);

  000eb	48 8b d3	 mov	 rdx, rbx
  000ee	48 8d 4c 24 38	 lea	 rcx, QWORD PTR root$1[rsp]
  000f3	e8 00 00 00 00	 call	 ?UnlinkNumber@ResourceHolderUINT@Internal@Core@Math@Palmtree@@QEAAXPEAU__tag_NUMBER_HEADER@2345@@Z ; Palmtree::Math::Core::Internal::ResourceHolderUINT::UnlinkNumber
  000f8	90		 npad	 1

; 545  :                 return (w);

  000f9	48 8d 4c 24 38	 lea	 rcx, QWORD PTR root$1[rsp]
  000fe	e8 00 00 00 00	 call	 ??1ResourceHolderUINT@Internal@Core@Math@Palmtree@@UEAA@XZ ; Palmtree::Math::Core::Internal::ResourceHolderUINT::~ResourceHolderUINT
$LN12@PMC_Add_X_:

; 559  :         NUMBER_HEADER* w = PMC_Add_X_X_Imp((NUMBER_HEADER*)u, (NUMBER_HEADER*)v);
; 560  :         root.HookNumber(w);

  00103	48 8b d3	 mov	 rdx, rbx
  00106	48 8d 4c 24 68	 lea	 rcx, QWORD PTR root$[rsp]
  0010b	e8 00 00 00 00	 call	 ?HookNumber@ResourceHolderUINT@Internal@Core@Math@Palmtree@@QEAAXPEAU__tag_NUMBER_HEADER@2345@@Z ; Palmtree::Math::Core::Internal::ResourceHolderUINT::HookNumber

; 561  : #ifdef _DEBUG
; 562  :         CheckNumber(w);
; 563  : #endif
; 564  :         root.UnlinkNumber(w);

  00110	48 8b d3	 mov	 rdx, rbx
  00113	48 8d 4c 24 68	 lea	 rcx, QWORD PTR root$[rsp]
  00118	e8 00 00 00 00	 call	 ?UnlinkNumber@ResourceHolderUINT@Internal@Core@Math@Palmtree@@QEAAXPEAU__tag_NUMBER_HEADER@2345@@Z ; Palmtree::Math::Core::Internal::ResourceHolderUINT::UnlinkNumber
  0011d	90		 npad	 1

; 565  :         return ((PMC_HANDLE_UINT)w);

  0011e	48 8d 4c 24 68	 lea	 rcx, QWORD PTR root$[rsp]
  00123	e8 00 00 00 00	 call	 ??1ResourceHolderUINT@Internal@Core@Math@Palmtree@@UEAA@XZ ; Palmtree::Math::Core::Internal::ResourceHolderUINT::~ResourceHolderUINT
  00128	48 8b c3	 mov	 rax, rbx

; 566  :     }

  0012b	4c 8d 9c 24 90
	00 00 00	 lea	 r11, QWORD PTR [rsp+144]
  00133	49 8b 5b 10	 mov	 rbx, QWORD PTR [r11+16]
  00137	49 8b 73 18	 mov	 rsi, QWORD PTR [r11+24]
  0013b	49 8b e3	 mov	 rsp, r11
  0013e	5f		 pop	 rdi
  0013f	c3		 ret	 0
$LN20@PMC_Add_X_:

; 555  :             throw ArgumentNullException(L"nullptr", L"v");

  00140	4c 8d 05 00 00
	00 00		 lea	 r8, OFFSET FLAT:??_C@_13JAOPNPKD@?$AAv@
  00147	48 8d 15 00 00
	00 00		 lea	 rdx, OFFSET FLAT:??_C@_1CK@ECFIEPAC@?$AA?$BF?$AAp?$AAk?$AAn?$AAu?$AAl?$AAl?$AAp?$AAt?$AAr?$AAL?$AA?$AO?$AAH?$PP?$IJ?$PP?$IM@
  0014e	48 8d 4c 24 38	 lea	 rcx, QWORD PTR $T2[rsp]
  00153	e8 00 00 00 00	 call	 ??0ArgumentNullException@Internal@Core@Math@Palmtree@@QEAA@PEB_W0@Z ; Palmtree::Math::Core::Internal::ArgumentNullException::ArgumentNullException
  00158	48 8d 15 00 00
	00 00		 lea	 rdx, OFFSET FLAT:_TI2?AVArgumentNullException@Internal@Core@Math@Palmtree@@
  0015f	48 8d 4c 24 38	 lea	 rcx, QWORD PTR $T2[rsp]
  00164	e8 00 00 00 00	 call	 _CxxThrowException
  00169	cc		 int	 3
$LN19@PMC_Add_X_:

; 553  :             throw ArgumentNullException(L"nullptr", L"u");

  0016a	4c 8d 05 00 00
	00 00		 lea	 r8, OFFSET FLAT:??_C@_13ICFKHAEN@?$AAu@
  00171	48 8d 15 00 00
	00 00		 lea	 rdx, OFFSET FLAT:??_C@_1CK@ECFIEPAC@?$AA?$BF?$AAp?$AAk?$AAn?$AAu?$AAl?$AAl?$AAp?$AAt?$AAr?$AAL?$AA?$AO?$AAH?$PP?$IJ?$PP?$IM@
  00178	48 8d 4c 24 38	 lea	 rcx, QWORD PTR $T3[rsp]
  0017d	e8 00 00 00 00	 call	 ??0ArgumentNullException@Internal@Core@Math@Palmtree@@QEAA@PEB_W0@Z ; Palmtree::Math::Core::Internal::ArgumentNullException::ArgumentNullException
  00182	48 8d 15 00 00
	00 00		 lea	 rdx, OFFSET FLAT:_TI2?AVArgumentNullException@Internal@Core@Math@Palmtree@@
  00189	48 8d 4c 24 38	 lea	 rcx, QWORD PTR $T3[rsp]
  0018e	e8 00 00 00 00	 call	 _CxxThrowException
  00193	cc		 int	 3
$LN17@PMC_Add_X_:
?PMC_Add_X_X@Internal@Core@Math@Palmtree@@YAPEAU__tag_PMC_HANDLE_UINT@1234@PEAU51234@0@Z ENDP ; Palmtree::Math::Core::Internal::PMC_Add_X_X
_TEXT	ENDS
;	COMDAT text$x
text$x	SEGMENT
root$1 = 56
$T2 = 56
$T3 = 56
root$ = 104
u$ = 160
v$ = 168
?dtor$0@?0??PMC_Add_X_X@Internal@Core@Math@Palmtree@@YAPEAU__tag_PMC_HANDLE_UINT@1234@PEAU51234@0@Z@4HA PROC ; `Palmtree::Math::Core::Internal::PMC_Add_X_X'::`1'::dtor$0
  00000	48 8d 8a 68 00
	00 00		 lea	 rcx, QWORD PTR root$[rdx]
  00007	e9 00 00 00 00	 jmp	 ??1ResourceHolderUINT@Internal@Core@Math@Palmtree@@UEAA@XZ ; Palmtree::Math::Core::Internal::ResourceHolderUINT::~ResourceHolderUINT
?dtor$0@?0??PMC_Add_X_X@Internal@Core@Math@Palmtree@@YAPEAU__tag_PMC_HANDLE_UINT@1234@PEAU51234@0@Z@4HA ENDP ; `Palmtree::Math::Core::Internal::PMC_Add_X_X'::`1'::dtor$0
text$x	ENDS
;	COMDAT text$x
text$x	SEGMENT
root$1 = 56
$T2 = 56
$T3 = 56
root$ = 104
u$ = 160
v$ = 168
?dtor$1@?0??PMC_Add_X_X@Internal@Core@Math@Palmtree@@YAPEAU__tag_PMC_HANDLE_UINT@1234@PEAU51234@0@Z@4HA PROC ; `Palmtree::Math::Core::Internal::PMC_Add_X_X'::`1'::dtor$1
  00000	48 8d 8a 38 00
	00 00		 lea	 rcx, QWORD PTR root$1[rdx]
  00007	e9 00 00 00 00	 jmp	 ??1ResourceHolderUINT@Internal@Core@Math@Palmtree@@UEAA@XZ ; Palmtree::Math::Core::Internal::ResourceHolderUINT::~ResourceHolderUINT
?dtor$1@?0??PMC_Add_X_X@Internal@Core@Math@Palmtree@@YAPEAU__tag_PMC_HANDLE_UINT@1234@PEAU51234@0@Z@4HA ENDP ; `Palmtree::Math::Core::Internal::PMC_Add_X_X'::`1'::dtor$1
text$x	ENDS
; Function compile flags: /Ogtpy
;	COMDAT text$x
text$x	SEGMENT
root$1 = 56
$T2 = 56
$T3 = 56
root$ = 104
u$ = 160
v$ = 168
?dtor$0@?0??PMC_Add_X_X@Internal@Core@Math@Palmtree@@YAPEAU__tag_PMC_HANDLE_UINT@1234@PEAU51234@0@Z@4HA PROC ; `Palmtree::Math::Core::Internal::PMC_Add_X_X'::`1'::dtor$0
  00000	48 8d 8a 68 00
	00 00		 lea	 rcx, QWORD PTR root$[rdx]
  00007	e9 00 00 00 00	 jmp	 ??1ResourceHolderUINT@Internal@Core@Math@Palmtree@@UEAA@XZ ; Palmtree::Math::Core::Internal::ResourceHolderUINT::~ResourceHolderUINT
?dtor$0@?0??PMC_Add_X_X@Internal@Core@Math@Palmtree@@YAPEAU__tag_PMC_HANDLE_UINT@1234@PEAU51234@0@Z@4HA ENDP ; `Palmtree::Math::Core::Internal::PMC_Add_X_X'::`1'::dtor$0
text$x	ENDS
; Function compile flags: /Ogtpy
;	COMDAT text$x
text$x	SEGMENT
root$1 = 56
$T2 = 56
$T3 = 56
root$ = 104
u$ = 160
v$ = 168
?dtor$1@?0??PMC_Add_X_X@Internal@Core@Math@Palmtree@@YAPEAU__tag_PMC_HANDLE_UINT@1234@PEAU51234@0@Z@4HA PROC ; `Palmtree::Math::Core::Internal::PMC_Add_X_X'::`1'::dtor$1
  00000	48 8d 8a 38 00
	00 00		 lea	 rcx, QWORD PTR root$1[rdx]
  00007	e9 00 00 00 00	 jmp	 ??1ResourceHolderUINT@Internal@Core@Math@Palmtree@@UEAA@XZ ; Palmtree::Math::Core::Internal::ResourceHolderUINT::~ResourceHolderUINT
?dtor$1@?0??PMC_Add_X_X@Internal@Core@Math@Palmtree@@YAPEAU__tag_PMC_HANDLE_UINT@1234@PEAU51234@0@Z@4HA ENDP ; `Palmtree::Math::Core::Internal::PMC_Add_X_X'::`1'::dtor$1
text$x	ENDS
; Function compile flags: /Ogtpy
; File z:\sources\lunor\repos\rougemeilland\palmtree.math.core.uint\palmtree.math.core.uint\pmc_add.cpp
;	COMDAT ?PMC_Add_X_L@Internal@Core@Math@Palmtree@@YAPEAU__tag_PMC_HANDLE_UINT@1234@PEAU51234@_K@Z
_TEXT	SEGMENT
$T1 = 32
root$ = 40
$T2 = 72
u$ = 144
v$ = 152
?PMC_Add_X_L@Internal@Core@Math@Palmtree@@YAPEAU__tag_PMC_HANDLE_UINT@1234@PEAU51234@_K@Z PROC ; Palmtree::Math::Core::Internal::PMC_Add_X_L, COMDAT

; 502  :     {

$LN10:
  00000	40 57		 push	 rdi
  00002	48 81 ec 80 00
	00 00		 sub	 rsp, 128		; 00000080H
  00009	48 c7 44 24 20
	fe ff ff ff	 mov	 QWORD PTR $T1[rsp], -2
  00012	48 89 9c 24 90
	00 00 00	 mov	 QWORD PTR [rsp+144], rbx
  0001a	48 8b fa	 mov	 rdi, rdx
  0001d	48 8b d9	 mov	 rbx, rcx

; 503  :         if (__UNIT_TYPE_BIT_COUNT * 2 < sizeof(v) * 8)
; 504  :         {
; 505  :             // _UINT64_T  2 
; 506  :             throw InternalErrorException(L"", L"pmc_add.cpp;PMC_Add_X_L;1");
; 507  :         }
; 508  :         if (u == nullptr)

  00020	48 85 c9	 test	 rcx, rcx
  00023	74 57		 je	 SHORT $LN8@PMC_Add_X_

; 510  :         CheckNumber((NUMBER_HEADER*)u);

  00025	e8 00 00 00 00	 call	 ?CheckNumber@Internal@Core@Math@Palmtree@@YAXPEAU__tag_NUMBER_HEADER@1234@@Z ; Palmtree::Math::Core::Internal::CheckNumber

; 511  :         ResourceHolderUINT root;

  0002a	48 8d 4c 24 28	 lea	 rcx, QWORD PTR root$[rsp]
  0002f	e8 00 00 00 00	 call	 ??0ResourceHolderUINT@Internal@Core@Math@Palmtree@@QEAA@XZ ; Palmtree::Math::Core::Internal::ResourceHolderUINT::ResourceHolderUINT
  00034	90		 npad	 1

; 512  :         NUMBER_HEADER* w = PMC_Add_X_L_Imp((NUMBER_HEADER*)u, v);

  00035	48 8b d7	 mov	 rdx, rdi
  00038	48 8b cb	 mov	 rcx, rbx
  0003b	e8 00 00 00 00	 call	 ?PMC_Add_X_L_Imp@Internal@Core@Math@Palmtree@@YAPEAU__tag_NUMBER_HEADER@1234@PEAU51234@_K@Z ; Palmtree::Math::Core::Internal::PMC_Add_X_L_Imp
  00040	48 8b d8	 mov	 rbx, rax

; 513  :         root.HookNumber(w);

  00043	48 8b d0	 mov	 rdx, rax
  00046	48 8d 4c 24 28	 lea	 rcx, QWORD PTR root$[rsp]
  0004b	e8 00 00 00 00	 call	 ?HookNumber@ResourceHolderUINT@Internal@Core@Math@Palmtree@@QEAAXPEAU__tag_NUMBER_HEADER@2345@@Z ; Palmtree::Math::Core::Internal::ResourceHolderUINT::HookNumber

; 514  : #ifdef _DEBUG
; 515  :         CheckNumber((NUMBER_HEADER*)w);
; 516  : #endif
; 517  :         root.UnlinkNumber(w);

  00050	48 8b d3	 mov	 rdx, rbx
  00053	48 8d 4c 24 28	 lea	 rcx, QWORD PTR root$[rsp]
  00058	e8 00 00 00 00	 call	 ?UnlinkNumber@ResourceHolderUINT@Internal@Core@Math@Palmtree@@QEAAXPEAU__tag_NUMBER_HEADER@2345@@Z ; Palmtree::Math::Core::Internal::ResourceHolderUINT::UnlinkNumber
  0005d	90		 npad	 1

; 518  :         return ((PMC_HANDLE_UINT)w);

  0005e	48 8d 4c 24 28	 lea	 rcx, QWORD PTR root$[rsp]
  00063	e8 00 00 00 00	 call	 ??1ResourceHolderUINT@Internal@Core@Math@Palmtree@@UEAA@XZ ; Palmtree::Math::Core::Internal::ResourceHolderUINT::~ResourceHolderUINT
  00068	48 8b c3	 mov	 rax, rbx

; 519  :     }

  0006b	48 8b 9c 24 90
	00 00 00	 mov	 rbx, QWORD PTR [rsp+144]
  00073	48 81 c4 80 00
	00 00		 add	 rsp, 128		; 00000080H
  0007a	5f		 pop	 rdi
  0007b	c3		 ret	 0
$LN8@PMC_Add_X_:

; 509  :             throw ArgumentNullException(L"nullptr", L"u");

  0007c	4c 8d 05 00 00
	00 00		 lea	 r8, OFFSET FLAT:??_C@_13ICFKHAEN@?$AAu@
  00083	48 8d 15 00 00
	00 00		 lea	 rdx, OFFSET FLAT:??_C@_1CK@ECFIEPAC@?$AA?$BF?$AAp?$AAk?$AAn?$AAu?$AAl?$AAl?$AAp?$AAt?$AAr?$AAL?$AA?$AO?$AAH?$PP?$IJ?$PP?$IM@
  0008a	48 8d 4c 24 48	 lea	 rcx, QWORD PTR $T2[rsp]
  0008f	e8 00 00 00 00	 call	 ??0ArgumentNullException@Internal@Core@Math@Palmtree@@QEAA@PEB_W0@Z ; Palmtree::Math::Core::Internal::ArgumentNullException::ArgumentNullException
  00094	48 8d 15 00 00
	00 00		 lea	 rdx, OFFSET FLAT:_TI2?AVArgumentNullException@Internal@Core@Math@Palmtree@@
  0009b	48 8d 4c 24 48	 lea	 rcx, QWORD PTR $T2[rsp]
  000a0	e8 00 00 00 00	 call	 _CxxThrowException
  000a5	cc		 int	 3
$LN6@PMC_Add_X_:
?PMC_Add_X_L@Internal@Core@Math@Palmtree@@YAPEAU__tag_PMC_HANDLE_UINT@1234@PEAU51234@_K@Z ENDP ; Palmtree::Math::Core::Internal::PMC_Add_X_L
_TEXT	ENDS
;	COMDAT text$x
text$x	SEGMENT
$T1 = 32
root$ = 40
$T2 = 72
u$ = 144
v$ = 152
?dtor$0@?0??PMC_Add_X_L@Internal@Core@Math@Palmtree@@YAPEAU__tag_PMC_HANDLE_UINT@1234@PEAU51234@_K@Z@4HA PROC ; `Palmtree::Math::Core::Internal::PMC_Add_X_L'::`1'::dtor$0
  00000	48 8d 8a 28 00
	00 00		 lea	 rcx, QWORD PTR root$[rdx]
  00007	e9 00 00 00 00	 jmp	 ??1ResourceHolderUINT@Internal@Core@Math@Palmtree@@UEAA@XZ ; Palmtree::Math::Core::Internal::ResourceHolderUINT::~ResourceHolderUINT
?dtor$0@?0??PMC_Add_X_L@Internal@Core@Math@Palmtree@@YAPEAU__tag_PMC_HANDLE_UINT@1234@PEAU51234@_K@Z@4HA ENDP ; `Palmtree::Math::Core::Internal::PMC_Add_X_L'::`1'::dtor$0
text$x	ENDS
; Function compile flags: /Ogtpy
;	COMDAT text$x
text$x	SEGMENT
$T1 = 32
root$ = 40
$T2 = 72
u$ = 144
v$ = 152
?dtor$0@?0??PMC_Add_X_L@Internal@Core@Math@Palmtree@@YAPEAU__tag_PMC_HANDLE_UINT@1234@PEAU51234@_K@Z@4HA PROC ; `Palmtree::Math::Core::Internal::PMC_Add_X_L'::`1'::dtor$0
  00000	48 8d 8a 28 00
	00 00		 lea	 rcx, QWORD PTR root$[rdx]
  00007	e9 00 00 00 00	 jmp	 ??1ResourceHolderUINT@Internal@Core@Math@Palmtree@@UEAA@XZ ; Palmtree::Math::Core::Internal::ResourceHolderUINT::~ResourceHolderUINT
?dtor$0@?0??PMC_Add_X_L@Internal@Core@Math@Palmtree@@YAPEAU__tag_PMC_HANDLE_UINT@1234@PEAU51234@_K@Z@4HA ENDP ; `Palmtree::Math::Core::Internal::PMC_Add_X_L'::`1'::dtor$0
text$x	ENDS
; Function compile flags: /Ogtpy
; File z:\sources\lunor\repos\rougemeilland\palmtree.math.core.uint\palmtree.math.core.uint\pmc_add.cpp
;	COMDAT ?PMC_Add_X_I@Internal@Core@Math@Palmtree@@YAPEAU__tag_PMC_HANDLE_UINT@1234@PEAU51234@I@Z
_TEXT	SEGMENT
$T1 = 32
root$ = 40
$T2 = 72
u$ = 144
v$ = 152
?PMC_Add_X_I@Internal@Core@Math@Palmtree@@YAPEAU__tag_PMC_HANDLE_UINT@1234@PEAU51234@I@Z PROC ; Palmtree::Math::Core::Internal::PMC_Add_X_I, COMDAT

; 370  :     {

$LN10:
  00000	40 57		 push	 rdi
  00002	48 81 ec 80 00
	00 00		 sub	 rsp, 128		; 00000080H
  00009	48 c7 44 24 20
	fe ff ff ff	 mov	 QWORD PTR $T1[rsp], -2
  00012	48 89 9c 24 90
	00 00 00	 mov	 QWORD PTR [rsp+144], rbx
  0001a	8b fa		 mov	 edi, edx
  0001c	48 8b d9	 mov	 rbx, rcx

; 371  :         if (__UNIT_TYPE_BIT_COUNT < sizeof(v) * 8)
; 372  :         {
; 373  :             // _UINT32_T  1 
; 374  :             throw InternalErrorException(L"", L"pmc_add.cpp;PMC_Add_X_I;1");
; 375  :         }
; 376  :         if (u == nullptr)

  0001f	48 85 c9	 test	 rcx, rcx
  00022	74 56		 je	 SHORT $LN8@PMC_Add_X_

; 378  :         CheckNumber((NUMBER_HEADER*)u);

  00024	e8 00 00 00 00	 call	 ?CheckNumber@Internal@Core@Math@Palmtree@@YAXPEAU__tag_NUMBER_HEADER@1234@@Z ; Palmtree::Math::Core::Internal::CheckNumber

; 379  :         ResourceHolderUINT root;

  00029	48 8d 4c 24 28	 lea	 rcx, QWORD PTR root$[rsp]
  0002e	e8 00 00 00 00	 call	 ??0ResourceHolderUINT@Internal@Core@Math@Palmtree@@QEAA@XZ ; Palmtree::Math::Core::Internal::ResourceHolderUINT::ResourceHolderUINT
  00033	90		 npad	 1

; 380  :         NUMBER_HEADER* nw = PMC_Add_X_I_Imp((NUMBER_HEADER*)u, v);

  00034	8b d7		 mov	 edx, edi
  00036	48 8b cb	 mov	 rcx, rbx
  00039	e8 00 00 00 00	 call	 ?PMC_Add_X_I_Imp@Internal@Core@Math@Palmtree@@YAPEAU__tag_NUMBER_HEADER@1234@PEAU51234@I@Z ; Palmtree::Math::Core::Internal::PMC_Add_X_I_Imp
  0003e	48 8b d8	 mov	 rbx, rax

; 381  :         root.HookNumber(nw);

  00041	48 8b d0	 mov	 rdx, rax
  00044	48 8d 4c 24 28	 lea	 rcx, QWORD PTR root$[rsp]
  00049	e8 00 00 00 00	 call	 ?HookNumber@ResourceHolderUINT@Internal@Core@Math@Palmtree@@QEAAXPEAU__tag_NUMBER_HEADER@2345@@Z ; Palmtree::Math::Core::Internal::ResourceHolderUINT::HookNumber

; 382  : #ifdef _DEBUG
; 383  :         CheckNumber(nw);
; 384  : #endif
; 385  :         root.UnlinkNumber(nw);

  0004e	48 8b d3	 mov	 rdx, rbx
  00051	48 8d 4c 24 28	 lea	 rcx, QWORD PTR root$[rsp]
  00056	e8 00 00 00 00	 call	 ?UnlinkNumber@ResourceHolderUINT@Internal@Core@Math@Palmtree@@QEAAXPEAU__tag_NUMBER_HEADER@2345@@Z ; Palmtree::Math::Core::Internal::ResourceHolderUINT::UnlinkNumber
  0005b	90		 npad	 1

; 386  :         return ((PMC_HANDLE_UINT)nw);

  0005c	48 8d 4c 24 28	 lea	 rcx, QWORD PTR root$[rsp]
  00061	e8 00 00 00 00	 call	 ??1ResourceHolderUINT@Internal@Core@Math@Palmtree@@UEAA@XZ ; Palmtree::Math::Core::Internal::ResourceHolderUINT::~ResourceHolderUINT
  00066	48 8b c3	 mov	 rax, rbx

; 387  :     }

  00069	48 8b 9c 24 90
	00 00 00	 mov	 rbx, QWORD PTR [rsp+144]
  00071	48 81 c4 80 00
	00 00		 add	 rsp, 128		; 00000080H
  00078	5f		 pop	 rdi
  00079	c3		 ret	 0
$LN8@PMC_Add_X_:

; 377  :             throw ArgumentNullException(L"nullptr", L"u");

  0007a	4c 8d 05 00 00
	00 00		 lea	 r8, OFFSET FLAT:??_C@_13ICFKHAEN@?$AAu@
  00081	48 8d 15 00 00
	00 00		 lea	 rdx, OFFSET FLAT:??_C@_1CK@ECFIEPAC@?$AA?$BF?$AAp?$AAk?$AAn?$AAu?$AAl?$AAl?$AAp?$AAt?$AAr?$AAL?$AA?$AO?$AAH?$PP?$IJ?$PP?$IM@
  00088	48 8d 4c 24 48	 lea	 rcx, QWORD PTR $T2[rsp]
  0008d	e8 00 00 00 00	 call	 ??0ArgumentNullException@Internal@Core@Math@Palmtree@@QEAA@PEB_W0@Z ; Palmtree::Math::Core::Internal::ArgumentNullException::ArgumentNullException
  00092	48 8d 15 00 00
	00 00		 lea	 rdx, OFFSET FLAT:_TI2?AVArgumentNullException@Internal@Core@Math@Palmtree@@
  00099	48 8d 4c 24 48	 lea	 rcx, QWORD PTR $T2[rsp]
  0009e	e8 00 00 00 00	 call	 _CxxThrowException
  000a3	cc		 int	 3
$LN6@PMC_Add_X_:
?PMC_Add_X_I@Internal@Core@Math@Palmtree@@YAPEAU__tag_PMC_HANDLE_UINT@1234@PEAU51234@I@Z ENDP ; Palmtree::Math::Core::Internal::PMC_Add_X_I
_TEXT	ENDS
;	COMDAT text$x
text$x	SEGMENT
$T1 = 32
root$ = 40
$T2 = 72
u$ = 144
v$ = 152
?dtor$0@?0??PMC_Add_X_I@Internal@Core@Math@Palmtree@@YAPEAU__tag_PMC_HANDLE_UINT@1234@PEAU51234@I@Z@4HA PROC ; `Palmtree::Math::Core::Internal::PMC_Add_X_I'::`1'::dtor$0
  00000	48 8d 8a 28 00
	00 00		 lea	 rcx, QWORD PTR root$[rdx]
  00007	e9 00 00 00 00	 jmp	 ??1ResourceHolderUINT@Internal@Core@Math@Palmtree@@UEAA@XZ ; Palmtree::Math::Core::Internal::ResourceHolderUINT::~ResourceHolderUINT
?dtor$0@?0??PMC_Add_X_I@Internal@Core@Math@Palmtree@@YAPEAU__tag_PMC_HANDLE_UINT@1234@PEAU51234@I@Z@4HA ENDP ; `Palmtree::Math::Core::Internal::PMC_Add_X_I'::`1'::dtor$0
text$x	ENDS
; Function compile flags: /Ogtpy
;	COMDAT text$x
text$x	SEGMENT
$T1 = 32
root$ = 40
$T2 = 72
u$ = 144
v$ = 152
?dtor$0@?0??PMC_Add_X_I@Internal@Core@Math@Palmtree@@YAPEAU__tag_PMC_HANDLE_UINT@1234@PEAU51234@I@Z@4HA PROC ; `Palmtree::Math::Core::Internal::PMC_Add_X_I'::`1'::dtor$0
  00000	48 8d 8a 28 00
	00 00		 lea	 rcx, QWORD PTR root$[rdx]
  00007	e9 00 00 00 00	 jmp	 ??1ResourceHolderUINT@Internal@Core@Math@Palmtree@@UEAA@XZ ; Palmtree::Math::Core::Internal::ResourceHolderUINT::~ResourceHolderUINT
?dtor$0@?0??PMC_Add_X_I@Internal@Core@Math@Palmtree@@YAPEAU__tag_PMC_HANDLE_UINT@1234@PEAU51234@I@Z@4HA ENDP ; `Palmtree::Math::Core::Internal::PMC_Add_X_I'::`1'::dtor$0
text$x	ENDS
; Function compile flags: /Ogtpy
; File z:\sources\lunor\repos\rougemeilland\palmtree.math.core.uint\palmtree.math.core.uint\pmc_add.cpp
;	COMDAT ?PMC_Add_L_X@Internal@Core@Math@Palmtree@@YAPEAU__tag_PMC_HANDLE_UINT@1234@_KPEAU51234@@Z
_TEXT	SEGMENT
$T1 = 32
root$ = 40
$T2 = 72
u$ = 144
v$ = 152
?PMC_Add_L_X@Internal@Core@Math@Palmtree@@YAPEAU__tag_PMC_HANDLE_UINT@1234@_KPEAU51234@@Z PROC ; Palmtree::Math::Core::Internal::PMC_Add_L_X, COMDAT

; 482  :     {

$LN10:
  00000	40 57		 push	 rdi
  00002	48 81 ec 80 00
	00 00		 sub	 rsp, 128		; 00000080H
  00009	48 c7 44 24 20
	fe ff ff ff	 mov	 QWORD PTR $T1[rsp], -2
  00012	48 89 9c 24 90
	00 00 00	 mov	 QWORD PTR [rsp+144], rbx
  0001a	48 8b da	 mov	 rbx, rdx
  0001d	48 8b f9	 mov	 rdi, rcx

; 483  :         if (__UNIT_TYPE_BIT_COUNT * 2 < sizeof(u) * 8)
; 484  :         {
; 485  :             // _UINT64_T  2 
; 486  :             throw InternalErrorException(L"", L"pmc_add.cpp;PMC_Add_L_X;1");
; 487  :         }
; 488  :         if (v == nullptr)

  00020	48 85 d2	 test	 rdx, rdx
  00023	74 5a		 je	 SHORT $LN8@PMC_Add_L_

; 490  :         CheckNumber((NUMBER_HEADER*)v);

  00025	48 8b ca	 mov	 rcx, rdx
  00028	e8 00 00 00 00	 call	 ?CheckNumber@Internal@Core@Math@Palmtree@@YAXPEAU__tag_NUMBER_HEADER@1234@@Z ; Palmtree::Math::Core::Internal::CheckNumber

; 491  :         ResourceHolderUINT root;

  0002d	48 8d 4c 24 28	 lea	 rcx, QWORD PTR root$[rsp]
  00032	e8 00 00 00 00	 call	 ??0ResourceHolderUINT@Internal@Core@Math@Palmtree@@QEAA@XZ ; Palmtree::Math::Core::Internal::ResourceHolderUINT::ResourceHolderUINT
  00037	90		 npad	 1

; 492  :         NUMBER_HEADER* w = PMC_Add_X_L_Imp((NUMBER_HEADER*)v, u);

  00038	48 8b d7	 mov	 rdx, rdi
  0003b	48 8b cb	 mov	 rcx, rbx
  0003e	e8 00 00 00 00	 call	 ?PMC_Add_X_L_Imp@Internal@Core@Math@Palmtree@@YAPEAU__tag_NUMBER_HEADER@1234@PEAU51234@_K@Z ; Palmtree::Math::Core::Internal::PMC_Add_X_L_Imp
  00043	48 8b d8	 mov	 rbx, rax

; 493  :         root.HookNumber(w);

  00046	48 8b d0	 mov	 rdx, rax
  00049	48 8d 4c 24 28	 lea	 rcx, QWORD PTR root$[rsp]
  0004e	e8 00 00 00 00	 call	 ?HookNumber@ResourceHolderUINT@Internal@Core@Math@Palmtree@@QEAAXPEAU__tag_NUMBER_HEADER@2345@@Z ; Palmtree::Math::Core::Internal::ResourceHolderUINT::HookNumber

; 494  : #ifdef _DEBUG
; 495  :         CheckNumber((NUMBER_HEADER*)w);
; 496  : #endif
; 497  :         root.UnlinkNumber(w);

  00053	48 8b d3	 mov	 rdx, rbx
  00056	48 8d 4c 24 28	 lea	 rcx, QWORD PTR root$[rsp]
  0005b	e8 00 00 00 00	 call	 ?UnlinkNumber@ResourceHolderUINT@Internal@Core@Math@Palmtree@@QEAAXPEAU__tag_NUMBER_HEADER@2345@@Z ; Palmtree::Math::Core::Internal::ResourceHolderUINT::UnlinkNumber
  00060	90		 npad	 1

; 498  :         return ((PMC_HANDLE_UINT)w);

  00061	48 8d 4c 24 28	 lea	 rcx, QWORD PTR root$[rsp]
  00066	e8 00 00 00 00	 call	 ??1ResourceHolderUINT@Internal@Core@Math@Palmtree@@UEAA@XZ ; Palmtree::Math::Core::Internal::ResourceHolderUINT::~ResourceHolderUINT
  0006b	48 8b c3	 mov	 rax, rbx

; 499  :     }

  0006e	48 8b 9c 24 90
	00 00 00	 mov	 rbx, QWORD PTR [rsp+144]
  00076	48 81 c4 80 00
	00 00		 add	 rsp, 128		; 00000080H
  0007d	5f		 pop	 rdi
  0007e	c3		 ret	 0
$LN8@PMC_Add_L_:

; 489  :             throw ArgumentNullException(L"nullptr", L"v");

  0007f	4c 8d 05 00 00
	00 00		 lea	 r8, OFFSET FLAT:??_C@_13JAOPNPKD@?$AAv@
  00086	48 8d 15 00 00
	00 00		 lea	 rdx, OFFSET FLAT:??_C@_1CK@ECFIEPAC@?$AA?$BF?$AAp?$AAk?$AAn?$AAu?$AAl?$AAl?$AAp?$AAt?$AAr?$AAL?$AA?$AO?$AAH?$PP?$IJ?$PP?$IM@
  0008d	48 8d 4c 24 48	 lea	 rcx, QWORD PTR $T2[rsp]
  00092	e8 00 00 00 00	 call	 ??0ArgumentNullException@Internal@Core@Math@Palmtree@@QEAA@PEB_W0@Z ; Palmtree::Math::Core::Internal::ArgumentNullException::ArgumentNullException
  00097	48 8d 15 00 00
	00 00		 lea	 rdx, OFFSET FLAT:_TI2?AVArgumentNullException@Internal@Core@Math@Palmtree@@
  0009e	48 8d 4c 24 48	 lea	 rcx, QWORD PTR $T2[rsp]
  000a3	e8 00 00 00 00	 call	 _CxxThrowException
  000a8	cc		 int	 3
$LN6@PMC_Add_L_:
?PMC_Add_L_X@Internal@Core@Math@Palmtree@@YAPEAU__tag_PMC_HANDLE_UINT@1234@_KPEAU51234@@Z ENDP ; Palmtree::Math::Core::Internal::PMC_Add_L_X
_TEXT	ENDS
;	COMDAT text$x
text$x	SEGMENT
$T1 = 32
root$ = 40
$T2 = 72
u$ = 144
v$ = 152
?dtor$0@?0??PMC_Add_L_X@Internal@Core@Math@Palmtree@@YAPEAU__tag_PMC_HANDLE_UINT@1234@_KPEAU51234@@Z@4HA PROC ; `Palmtree::Math::Core::Internal::PMC_Add_L_X'::`1'::dtor$0
  00000	48 8d 8a 28 00
	00 00		 lea	 rcx, QWORD PTR root$[rdx]
  00007	e9 00 00 00 00	 jmp	 ??1ResourceHolderUINT@Internal@Core@Math@Palmtree@@UEAA@XZ ; Palmtree::Math::Core::Internal::ResourceHolderUINT::~ResourceHolderUINT
?dtor$0@?0??PMC_Add_L_X@Internal@Core@Math@Palmtree@@YAPEAU__tag_PMC_HANDLE_UINT@1234@_KPEAU51234@@Z@4HA ENDP ; `Palmtree::Math::Core::Internal::PMC_Add_L_X'::`1'::dtor$0
text$x	ENDS
; Function compile flags: /Ogtpy
;	COMDAT text$x
text$x	SEGMENT
$T1 = 32
root$ = 40
$T2 = 72
u$ = 144
v$ = 152
?dtor$0@?0??PMC_Add_L_X@Internal@Core@Math@Palmtree@@YAPEAU__tag_PMC_HANDLE_UINT@1234@_KPEAU51234@@Z@4HA PROC ; `Palmtree::Math::Core::Internal::PMC_Add_L_X'::`1'::dtor$0
  00000	48 8d 8a 28 00
	00 00		 lea	 rcx, QWORD PTR root$[rdx]
  00007	e9 00 00 00 00	 jmp	 ??1ResourceHolderUINT@Internal@Core@Math@Palmtree@@UEAA@XZ ; Palmtree::Math::Core::Internal::ResourceHolderUINT::~ResourceHolderUINT
?dtor$0@?0??PMC_Add_L_X@Internal@Core@Math@Palmtree@@YAPEAU__tag_PMC_HANDLE_UINT@1234@_KPEAU51234@@Z@4HA ENDP ; `Palmtree::Math::Core::Internal::PMC_Add_L_X'::`1'::dtor$0
text$x	ENDS
; Function compile flags: /Ogtpy
; File z:\sources\lunor\repos\rougemeilland\palmtree.math.core.uint\palmtree.math.core.uint\pmc_add.cpp
;	COMDAT ?PMC_Add_I_X@Internal@Core@Math@Palmtree@@YAPEAU__tag_PMC_HANDLE_UINT@1234@IPEAU51234@@Z
_TEXT	SEGMENT
$T1 = 32
root$ = 40
$T2 = 72
u$ = 144
v$ = 152
?PMC_Add_I_X@Internal@Core@Math@Palmtree@@YAPEAU__tag_PMC_HANDLE_UINT@1234@IPEAU51234@@Z PROC ; Palmtree::Math::Core::Internal::PMC_Add_I_X, COMDAT

; 350  :     {

$LN10:
  00000	40 57		 push	 rdi
  00002	48 81 ec 80 00
	00 00		 sub	 rsp, 128		; 00000080H
  00009	48 c7 44 24 20
	fe ff ff ff	 mov	 QWORD PTR $T1[rsp], -2
  00012	48 89 9c 24 90
	00 00 00	 mov	 QWORD PTR [rsp+144], rbx
  0001a	48 8b da	 mov	 rbx, rdx
  0001d	8b f9		 mov	 edi, ecx

; 351  :         if (__UNIT_TYPE_BIT_COUNT < sizeof(u) * 8)
; 352  :         {
; 353  :             // _UINT32_T  1 
; 354  :             throw InternalErrorException(L"", L"pmc_add.cpp;PMC_Add_I_X;1");
; 355  :         }
; 356  :         if (v == nullptr)

  0001f	48 85 d2	 test	 rdx, rdx
  00022	74 59		 je	 SHORT $LN8@PMC_Add_I_

; 358  :         CheckNumber((NUMBER_HEADER*)v);

  00024	48 8b ca	 mov	 rcx, rdx
  00027	e8 00 00 00 00	 call	 ?CheckNumber@Internal@Core@Math@Palmtree@@YAXPEAU__tag_NUMBER_HEADER@1234@@Z ; Palmtree::Math::Core::Internal::CheckNumber

; 359  :         ResourceHolderUINT root;

  0002c	48 8d 4c 24 28	 lea	 rcx, QWORD PTR root$[rsp]
  00031	e8 00 00 00 00	 call	 ??0ResourceHolderUINT@Internal@Core@Math@Palmtree@@QEAA@XZ ; Palmtree::Math::Core::Internal::ResourceHolderUINT::ResourceHolderUINT
  00036	90		 npad	 1

; 360  :         NUMBER_HEADER* nw =  PMC_Add_X_I_Imp((NUMBER_HEADER*)v, u);

  00037	8b d7		 mov	 edx, edi
  00039	48 8b cb	 mov	 rcx, rbx
  0003c	e8 00 00 00 00	 call	 ?PMC_Add_X_I_Imp@Internal@Core@Math@Palmtree@@YAPEAU__tag_NUMBER_HEADER@1234@PEAU51234@I@Z ; Palmtree::Math::Core::Internal::PMC_Add_X_I_Imp
  00041	48 8b d8	 mov	 rbx, rax

; 361  :         root.HookNumber(nw);

  00044	48 8b d0	 mov	 rdx, rax
  00047	48 8d 4c 24 28	 lea	 rcx, QWORD PTR root$[rsp]
  0004c	e8 00 00 00 00	 call	 ?HookNumber@ResourceHolderUINT@Internal@Core@Math@Palmtree@@QEAAXPEAU__tag_NUMBER_HEADER@2345@@Z ; Palmtree::Math::Core::Internal::ResourceHolderUINT::HookNumber

; 362  : #ifdef _DEBUG
; 363  :         CheckNumber(nw);
; 364  : #endif
; 365  :         root.UnlinkNumber(nw);

  00051	48 8b d3	 mov	 rdx, rbx
  00054	48 8d 4c 24 28	 lea	 rcx, QWORD PTR root$[rsp]
  00059	e8 00 00 00 00	 call	 ?UnlinkNumber@ResourceHolderUINT@Internal@Core@Math@Palmtree@@QEAAXPEAU__tag_NUMBER_HEADER@2345@@Z ; Palmtree::Math::Core::Internal::ResourceHolderUINT::UnlinkNumber
  0005e	90		 npad	 1

; 366  :         return ((PMC_HANDLE_UINT)nw);

  0005f	48 8d 4c 24 28	 lea	 rcx, QWORD PTR root$[rsp]
  00064	e8 00 00 00 00	 call	 ??1ResourceHolderUINT@Internal@Core@Math@Palmtree@@UEAA@XZ ; Palmtree::Math::Core::Internal::ResourceHolderUINT::~ResourceHolderUINT
  00069	48 8b c3	 mov	 rax, rbx

; 367  :     }

  0006c	48 8b 9c 24 90
	00 00 00	 mov	 rbx, QWORD PTR [rsp+144]
  00074	48 81 c4 80 00
	00 00		 add	 rsp, 128		; 00000080H
  0007b	5f		 pop	 rdi
  0007c	c3		 ret	 0
$LN8@PMC_Add_I_:

; 357  :             throw ArgumentNullException(L"nullptr", L"v");

  0007d	4c 8d 05 00 00
	00 00		 lea	 r8, OFFSET FLAT:??_C@_13JAOPNPKD@?$AAv@
  00084	48 8d 15 00 00
	00 00		 lea	 rdx, OFFSET FLAT:??_C@_1CK@ECFIEPAC@?$AA?$BF?$AAp?$AAk?$AAn?$AAu?$AAl?$AAl?$AAp?$AAt?$AAr?$AAL?$AA?$AO?$AAH?$PP?$IJ?$PP?$IM@
  0008b	48 8d 4c 24 48	 lea	 rcx, QWORD PTR $T2[rsp]
  00090	e8 00 00 00 00	 call	 ??0ArgumentNullException@Internal@Core@Math@Palmtree@@QEAA@PEB_W0@Z ; Palmtree::Math::Core::Internal::ArgumentNullException::ArgumentNullException
  00095	48 8d 15 00 00
	00 00		 lea	 rdx, OFFSET FLAT:_TI2?AVArgumentNullException@Internal@Core@Math@Palmtree@@
  0009c	48 8d 4c 24 48	 lea	 rcx, QWORD PTR $T2[rsp]
  000a1	e8 00 00 00 00	 call	 _CxxThrowException
  000a6	cc		 int	 3
$LN6@PMC_Add_I_:
?PMC_Add_I_X@Internal@Core@Math@Palmtree@@YAPEAU__tag_PMC_HANDLE_UINT@1234@IPEAU51234@@Z ENDP ; Palmtree::Math::Core::Internal::PMC_Add_I_X
_TEXT	ENDS
;	COMDAT text$x
text$x	SEGMENT
$T1 = 32
root$ = 40
$T2 = 72
u$ = 144
v$ = 152
?dtor$0@?0??PMC_Add_I_X@Internal@Core@Math@Palmtree@@YAPEAU__tag_PMC_HANDLE_UINT@1234@IPEAU51234@@Z@4HA PROC ; `Palmtree::Math::Core::Internal::PMC_Add_I_X'::`1'::dtor$0
  00000	48 8d 8a 28 00
	00 00		 lea	 rcx, QWORD PTR root$[rdx]
  00007	e9 00 00 00 00	 jmp	 ??1ResourceHolderUINT@Internal@Core@Math@Palmtree@@UEAA@XZ ; Palmtree::Math::Core::Internal::ResourceHolderUINT::~ResourceHolderUINT
?dtor$0@?0??PMC_Add_I_X@Internal@Core@Math@Palmtree@@YAPEAU__tag_PMC_HANDLE_UINT@1234@IPEAU51234@@Z@4HA ENDP ; `Palmtree::Math::Core::Internal::PMC_Add_I_X'::`1'::dtor$0
text$x	ENDS
; Function compile flags: /Ogtpy
;	COMDAT text$x
text$x	SEGMENT
$T1 = 32
root$ = 40
$T2 = 72
u$ = 144
v$ = 152
?dtor$0@?0??PMC_Add_I_X@Internal@Core@Math@Palmtree@@YAPEAU__tag_PMC_HANDLE_UINT@1234@IPEAU51234@@Z@4HA PROC ; `Palmtree::Math::Core::Internal::PMC_Add_I_X'::`1'::dtor$0
  00000	48 8d 8a 28 00
	00 00		 lea	 rcx, QWORD PTR root$[rdx]
  00007	e9 00 00 00 00	 jmp	 ??1ResourceHolderUINT@Internal@Core@Math@Palmtree@@UEAA@XZ ; Palmtree::Math::Core::Internal::ResourceHolderUINT::~ResourceHolderUINT
?dtor$0@?0??PMC_Add_I_X@Internal@Core@Math@Palmtree@@YAPEAU__tag_PMC_HANDLE_UINT@1234@IPEAU51234@@Z@4HA ENDP ; `Palmtree::Math::Core::Internal::PMC_Add_I_X'::`1'::dtor$0
text$x	ENDS
; Function compile flags: /Ogtpy
; File z:\sources\lunor\repos\rougemeilland\palmtree.math.core.uint\palmtree.math.core.uint\pmc_add.cpp
;	COMDAT ?Initialize_Add@Internal@Core@Math@Palmtree@@YAHPEAU_tag_PROCESSOR_FEATURES@1234@@Z
_TEXT	SEGMENT
feature$ = 8
?Initialize_Add@Internal@Core@Math@Palmtree@@YAHPEAU_tag_PROCESSOR_FEATURES@1234@@Z PROC ; Palmtree::Math::Core::Internal::Initialize_Add, COMDAT

; 570  :         fp_Add_Imp = feature->PROCESSOR_FEATURE_ADX ? Add_Imp_using_ADCX : Add_Imp_using_ADC;

  00000	f6 01 02	 test	 BYTE PTR [rcx], 2
  00003	48 8d 05 00 00
	00 00		 lea	 rax, OFFSET FLAT:?Add_Imp_using_ADC@Internal@Core@Math@Palmtree@@YAXPEA_K_K0101@Z ; Palmtree::Math::Core::Internal::Add_Imp_using_ADC
  0000a	48 8d 0d 00 00
	00 00		 lea	 rcx, OFFSET FLAT:?Add_Imp_using_ADCX@Internal@Core@Math@Palmtree@@YAXPEA_K_K0101@Z ; Palmtree::Math::Core::Internal::Add_Imp_using_ADCX
  00011	48 0f 45 c1	 cmovne	 rax, rcx
  00015	48 89 05 00 00
	00 00		 mov	 QWORD PTR ?fp_Add_Imp@Internal@Core@Math@Palmtree@@3P6AXPEA_K_K0101@ZEA, rax

; 571  :         return (PMC_STATUS_OK);

  0001c	33 c0		 xor	 eax, eax

; 572  :     }

  0001e	c3		 ret	 0
?Initialize_Add@Internal@Core@Math@Palmtree@@YAHPEAU_tag_PROCESSOR_FEATURES@1234@@Z ENDP ; Palmtree::Math::Core::Internal::Initialize_Add
_TEXT	ENDS
; Function compile flags: /Ogtpy
; File z:\sources\lunor\repos\rougemeilland\palmtree.math.core.uint\palmtree.math.core.uint\pmc_add.cpp
; File z:\sources\lunor\repos\rougemeilland\palmtree.math.core.uint\palmtree.math.core.uint\pmc_inline_func.h
; File z:\sources\lunor\repos\rougemeilland\palmtree.math.core.uint\palmtree.math.core.uint\pmc_add.cpp
;	COMDAT ?PMC_Add_X_X_Imp@Internal@Core@Math@Palmtree@@YAPEAU__tag_NUMBER_HEADER@1234@PEAU51234@0@Z
_TEXT	SEGMENT
$T1 = 48
root$2 = 56
u$ = 112
v$ = 120
?PMC_Add_X_X_Imp@Internal@Core@Math@Palmtree@@YAPEAU__tag_NUMBER_HEADER@1234@PEAU51234@0@Z PROC ; Palmtree::Math::Core::Internal::PMC_Add_X_X_Imp, COMDAT

; 522  :     {

$LN15:
  00000	40 57		 push	 rdi
  00002	48 83 ec 60	 sub	 rsp, 96			; 00000060H
  00006	48 c7 44 24 30
	fe ff ff ff	 mov	 QWORD PTR $T1[rsp], -2
  0000f	48 89 5c 24 70	 mov	 QWORD PTR [rsp+112], rbx
  00014	48 89 74 24 78	 mov	 QWORD PTR [rsp+120], rsi
  00019	48 8b fa	 mov	 rdi, rdx
  0001c	48 8b f1	 mov	 rsi, rcx

; 523  :         if (u->IS_ZERO)

  0001f	f6 41 08 01	 test	 BYTE PTR [rcx+8], 1
  00023	74 34		 je	 SHORT $LN2@PMC_Add_X_

; 524  :         {
; 525  :             if (v->IS_ZERO)

  00025	f6 42 08 01	 test	 BYTE PTR [rdx+8], 1
  00029	74 17		 je	 SHORT $LN4@PMC_Add_X_

; 526  :                 return (&number_zero);

  0002b	48 8d 05 00 00
	00 00		 lea	 rax, OFFSET FLAT:?number_zero@Internal@Core@Math@Palmtree@@3U__tag_NUMBER_HEADER@1234@A ; Palmtree::Math::Core::Internal::number_zero

; 546  :             }
; 547  :         }
; 548  :     }

  00032	48 8b 5c 24 70	 mov	 rbx, QWORD PTR [rsp+112]
  00037	48 8b 74 24 78	 mov	 rsi, QWORD PTR [rsp+120]
  0003c	48 83 c4 60	 add	 rsp, 96			; 00000060H
  00040	5f		 pop	 rdi
  00041	c3		 ret	 0
$LN4@PMC_Add_X_:

; 527  :             else
; 528  :                 return (DuplicateNumber(v));

  00042	48 8b cf	 mov	 rcx, rdi
$LN12@PMC_Add_X_:

; 546  :             }
; 547  :         }
; 548  :     }

  00045	48 8b 5c 24 70	 mov	 rbx, QWORD PTR [rsp+112]
  0004a	48 8b 74 24 78	 mov	 rsi, QWORD PTR [rsp+120]
  0004f	48 83 c4 60	 add	 rsp, 96			; 00000060H
  00053	5f		 pop	 rdi
  00054	e9 00 00 00 00	 jmp	 ?DuplicateNumber@Internal@Core@Math@Palmtree@@YAPEAU__tag_NUMBER_HEADER@1234@PEAU51234@@Z ; Palmtree::Math::Core::Internal::DuplicateNumber
$LN2@PMC_Add_X_:

; 529  :         }
; 530  :         else
; 531  :         {
; 532  :             if (v->IS_ZERO)

  00059	f6 42 08 01	 test	 BYTE PTR [rdx+8], 1
  0005d	75 e6		 jne	 SHORT $LN12@PMC_Add_X_

; 533  :                 return (DuplicateNumber(u));
; 534  :             else
; 535  :             {
; 536  :                 ResourceHolderUINT root;

  0005f	48 8d 4c 24 38	 lea	 rcx, QWORD PTR root$2[rsp]
  00064	e8 00 00 00 00	 call	 ??0ResourceHolderUINT@Internal@Core@Math@Palmtree@@QEAA@XZ ; Palmtree::Math::Core::Internal::ResourceHolderUINT::ResourceHolderUINT
  00069	90		 npad	 1

; 537  :                 __UNIT_TYPE u_bit_count = u->UNIT_BIT_COUNT;
; 538  :                 __UNIT_TYPE v_bit_count = v->UNIT_BIT_COUNT;

  0006a	48 8b 57 20	 mov	 rdx, QWORD PTR [rdi+32]
; File z:\sources\lunor\repos\rougemeilland\palmtree.math.core.uint\palmtree.math.core.uint\pmc_inline_func.h

; 167  :             return (x >= y ? x : y);

  0006e	48 39 56 20	 cmp	 QWORD PTR [rsi+32], rdx
  00072	48 0f 43 56 20	 cmovae	 rdx, QWORD PTR [rsi+32]
; File z:\sources\lunor\repos\rougemeilland\palmtree.math.core.uint\palmtree.math.core.uint\pmc_add.cpp

; 539  :                 __UNIT_TYPE w_bit_count = _MAXIMUM_UNIT(u_bit_count, v_bit_count) + 1;

  00077	48 ff c2	 inc	 rdx

; 540  :                 NUMBER_HEADER* w = root.AllocateNumber(w_bit_count);

  0007a	48 8d 4c 24 38	 lea	 rcx, QWORD PTR root$2[rsp]
  0007f	e8 00 00 00 00	 call	 ?AllocateNumber@ResourceHolderUINT@Internal@Core@Math@Palmtree@@QEAAPEAU__tag_NUMBER_HEADER@2345@_K@Z ; Palmtree::Math::Core::Internal::ResourceHolderUINT::AllocateNumber
  00084	48 8b d8	 mov	 rbx, rax

; 541  :                 (*fp_Add_Imp)(u->BLOCK, u->UNIT_WORD_COUNT, v->BLOCK, v->UNIT_WORD_COUNT, w->BLOCK, w->BLOCK_COUNT);

  00087	48 8b 48 38	 mov	 rcx, QWORD PTR [rax+56]
  0008b	48 89 4c 24 28	 mov	 QWORD PTR [rsp+40], rcx
  00090	48 8b 48 40	 mov	 rcx, QWORD PTR [rax+64]
  00094	48 89 4c 24 20	 mov	 QWORD PTR [rsp+32], rcx
  00099	4c 8b 4f 18	 mov	 r9, QWORD PTR [rdi+24]
  0009d	4c 8b 47 40	 mov	 r8, QWORD PTR [rdi+64]
  000a1	48 8b 56 18	 mov	 rdx, QWORD PTR [rsi+24]
  000a5	48 8b 4e 40	 mov	 rcx, QWORD PTR [rsi+64]
  000a9	ff 15 00 00 00
	00		 call	 QWORD PTR ?fp_Add_Imp@Internal@Core@Math@Palmtree@@3P6AXPEA_K_K0101@ZEA

; 542  :                 root.CheckNumber(w);

  000af	48 8b d3	 mov	 rdx, rbx
  000b2	48 8d 4c 24 38	 lea	 rcx, QWORD PTR root$2[rsp]
  000b7	e8 00 00 00 00	 call	 ?CheckNumber@ResourceHolderUINT@Internal@Core@Math@Palmtree@@QEAAXPEAU__tag_NUMBER_HEADER@2345@@Z ; Palmtree::Math::Core::Internal::ResourceHolderUINT::CheckNumber

; 543  :                 CommitNumber(w);

  000bc	48 8b cb	 mov	 rcx, rbx
  000bf	e8 00 00 00 00	 call	 ?CommitNumber@Internal@Core@Math@Palmtree@@YAXPEAU__tag_NUMBER_HEADER@1234@@Z ; Palmtree::Math::Core::Internal::CommitNumber

; 544  :                 root.UnlinkNumber(w);

  000c4	48 8b d3	 mov	 rdx, rbx
  000c7	48 8d 4c 24 38	 lea	 rcx, QWORD PTR root$2[rsp]
  000cc	e8 00 00 00 00	 call	 ?UnlinkNumber@ResourceHolderUINT@Internal@Core@Math@Palmtree@@QEAAXPEAU__tag_NUMBER_HEADER@2345@@Z ; Palmtree::Math::Core::Internal::ResourceHolderUINT::UnlinkNumber
  000d1	90		 npad	 1

; 545  :                 return (w);

  000d2	48 8d 4c 24 38	 lea	 rcx, QWORD PTR root$2[rsp]
  000d7	e8 00 00 00 00	 call	 ??1ResourceHolderUINT@Internal@Core@Math@Palmtree@@UEAA@XZ ; Palmtree::Math::Core::Internal::ResourceHolderUINT::~ResourceHolderUINT
  000dc	48 8b c3	 mov	 rax, rbx

; 546  :             }
; 547  :         }
; 548  :     }

  000df	48 8b 5c 24 70	 mov	 rbx, QWORD PTR [rsp+112]
  000e4	48 8b 74 24 78	 mov	 rsi, QWORD PTR [rsp+120]
  000e9	48 83 c4 60	 add	 rsp, 96			; 00000060H
  000ed	5f		 pop	 rdi
  000ee	c3		 ret	 0
?PMC_Add_X_X_Imp@Internal@Core@Math@Palmtree@@YAPEAU__tag_NUMBER_HEADER@1234@PEAU51234@0@Z ENDP ; Palmtree::Math::Core::Internal::PMC_Add_X_X_Imp
_TEXT	ENDS
;	COMDAT text$x
text$x	SEGMENT
$T1 = 48
root$2 = 56
u$ = 112
v$ = 120
?dtor$0@?0??PMC_Add_X_X_Imp@Internal@Core@Math@Palmtree@@YAPEAU__tag_NUMBER_HEADER@1234@PEAU51234@0@Z@4HA PROC ; `Palmtree::Math::Core::Internal::PMC_Add_X_X_Imp'::`1'::dtor$0
  00000	48 8d 8a 38 00
	00 00		 lea	 rcx, QWORD PTR root$2[rdx]
  00007	e9 00 00 00 00	 jmp	 ??1ResourceHolderUINT@Internal@Core@Math@Palmtree@@UEAA@XZ ; Palmtree::Math::Core::Internal::ResourceHolderUINT::~ResourceHolderUINT
?dtor$0@?0??PMC_Add_X_X_Imp@Internal@Core@Math@Palmtree@@YAPEAU__tag_NUMBER_HEADER@1234@PEAU51234@0@Z@4HA ENDP ; `Palmtree::Math::Core::Internal::PMC_Add_X_X_Imp'::`1'::dtor$0
text$x	ENDS
; Function compile flags: /Ogtpy
;	COMDAT text$x
text$x	SEGMENT
$T1 = 48
root$2 = 56
u$ = 112
v$ = 120
?dtor$0@?0??PMC_Add_X_X_Imp@Internal@Core@Math@Palmtree@@YAPEAU__tag_NUMBER_HEADER@1234@PEAU51234@0@Z@4HA PROC ; `Palmtree::Math::Core::Internal::PMC_Add_X_X_Imp'::`1'::dtor$0
  00000	48 8d 8a 38 00
	00 00		 lea	 rcx, QWORD PTR root$2[rdx]
  00007	e9 00 00 00 00	 jmp	 ??1ResourceHolderUINT@Internal@Core@Math@Palmtree@@UEAA@XZ ; Palmtree::Math::Core::Internal::ResourceHolderUINT::~ResourceHolderUINT
?dtor$0@?0??PMC_Add_X_X_Imp@Internal@Core@Math@Palmtree@@YAPEAU__tag_NUMBER_HEADER@1234@PEAU51234@0@Z@4HA ENDP ; `Palmtree::Math::Core::Internal::PMC_Add_X_X_Imp'::`1'::dtor$0
text$x	ENDS
; Function compile flags: /Ogtpy
; File z:\sources\lunor\repos\rougemeilland\palmtree.math.core.uint\palmtree.math.core.uint\pmc_exception.h
; File c:\program files (x86)\microsoft visual studio\2017\community\vc\tools\msvc\14.16.27023\include\vcruntime_exception.h
;	COMDAT ??_GInternalErrorException@Internal@Core@Math@Palmtree@@UEAAPEAXI@Z
_TEXT	SEGMENT
$T1 = 32
this$ = 64
__flags$ = 72
??_GInternalErrorException@Internal@Core@Math@Palmtree@@UEAAPEAXI@Z PROC ; Palmtree::Math::Core::Internal::InternalErrorException::`scalar deleting destructor', COMDAT
$LN15:
  00000	48 89 4c 24 08	 mov	 QWORD PTR [rsp+8], rcx
  00005	57		 push	 rdi
  00006	48 83 ec 30	 sub	 rsp, 48			; 00000030H
  0000a	48 c7 44 24 20
	fe ff ff ff	 mov	 QWORD PTR $T1[rsp], -2
  00013	48 89 5c 24 48	 mov	 QWORD PTR [rsp+72], rbx
  00018	8b da		 mov	 ebx, edx
  0001a	48 8b f9	 mov	 rdi, rcx
; File z:\sources\lunor\repos\rougemeilland\palmtree.math.core.uint\palmtree.math.core.uint\pmc_exception.h

; 295  :         {

  0001d	48 8d 05 00 00
	00 00		 lea	 rax, OFFSET FLAT:??_7InternalErrorException@Internal@Core@Math@Palmtree@@6B@
  00024	48 89 01	 mov	 QWORD PTR [rcx], rax

; 70   :         {

  00027	48 8d 05 00 00
	00 00		 lea	 rax, OFFSET FLAT:??_7Exception@Internal@Core@Math@Palmtree@@6B@
  0002e	48 89 01	 mov	 QWORD PTR [rcx], rax
; File c:\program files (x86)\microsoft visual studio\2017\community\vc\tools\msvc\14.16.27023\include\vcruntime_exception.h

; 85   :     {

  00031	48 8d 05 00 00
	00 00		 lea	 rax, OFFSET FLAT:??_7exception@std@@6B@
  00038	48 89 01	 mov	 QWORD PTR [rcx], rax

; 86   :         __std_exception_destroy(&_Data);

  0003b	48 83 c1 08	 add	 rcx, 8
  0003f	e8 00 00 00 00	 call	 __std_exception_destroy
  00044	90		 npad	 1
  00045	f6 c3 01	 test	 bl, 1
  00048	74 0e		 je	 SHORT $LN12@scalar
  0004a	ba 30 00 00 00	 mov	 edx, 48			; 00000030H
  0004f	48 8b cf	 mov	 rcx, rdi
  00052	e8 00 00 00 00	 call	 ??3@YAXPEAX_K@Z		; operator delete
  00057	90		 npad	 1
$LN12@scalar:
  00058	48 8b c7	 mov	 rax, rdi
  0005b	48 8b 5c 24 48	 mov	 rbx, QWORD PTR [rsp+72]
  00060	48 83 c4 30	 add	 rsp, 48			; 00000030H
  00064	5f		 pop	 rdi
  00065	c3		 ret	 0
??_GInternalErrorException@Internal@Core@Math@Palmtree@@UEAAPEAXI@Z ENDP ; Palmtree::Math::Core::Internal::InternalErrorException::`scalar deleting destructor'
_TEXT	ENDS
;	COMDAT text$x
text$x	SEGMENT
$T1 = 32
this$ = 64
__flags$ = 72
?dtor$0@?0???_GInternalErrorException@Internal@Core@Math@Palmtree@@UEAAPEAXI@Z@4HA PROC ; `Palmtree::Math::Core::Internal::InternalErrorException::`scalar deleting destructor''::`1'::dtor$0
  00000	48 8b 8a 40 00
	00 00		 mov	 rcx, QWORD PTR this$[rdx]
  00007	e9 00 00 00 00	 jmp	 ??1Exception@Internal@Core@Math@Palmtree@@UEAA@XZ ; Palmtree::Math::Core::Internal::Exception::~Exception
?dtor$0@?0???_GInternalErrorException@Internal@Core@Math@Palmtree@@UEAAPEAXI@Z@4HA ENDP ; `Palmtree::Math::Core::Internal::InternalErrorException::`scalar deleting destructor''::`1'::dtor$0
text$x	ENDS
;	COMDAT text$x
text$x	SEGMENT
$T1 = 32
this$ = 64
__flags$ = 72
?dtor$1@?0???_GInternalErrorException@Internal@Core@Math@Palmtree@@UEAAPEAXI@Z@4HA PROC ; `Palmtree::Math::Core::Internal::InternalErrorException::`scalar deleting destructor''::`1'::dtor$1
  00000	48 8b 8a 40 00
	00 00		 mov	 rcx, QWORD PTR this$[rdx]
  00007	e9 00 00 00 00	 jmp	 ??1exception@std@@UEAA@XZ ; std::exception::~exception
?dtor$1@?0???_GInternalErrorException@Internal@Core@Math@Palmtree@@UEAAPEAXI@Z@4HA ENDP ; `Palmtree::Math::Core::Internal::InternalErrorException::`scalar deleting destructor''::`1'::dtor$1
text$x	ENDS
; Function compile flags: /Ogtpy
;	COMDAT text$x
text$x	SEGMENT
$T1 = 32
this$ = 64
__flags$ = 72
?dtor$0@?0???_GInternalErrorException@Internal@Core@Math@Palmtree@@UEAAPEAXI@Z@4HA PROC ; `Palmtree::Math::Core::Internal::InternalErrorException::`scalar deleting destructor''::`1'::dtor$0
  00000	48 8b 8a 40 00
	00 00		 mov	 rcx, QWORD PTR this$[rdx]
  00007	e9 00 00 00 00	 jmp	 ??1Exception@Internal@Core@Math@Palmtree@@UEAA@XZ ; Palmtree::Math::Core::Internal::Exception::~Exception
?dtor$0@?0???_GInternalErrorException@Internal@Core@Math@Palmtree@@UEAAPEAXI@Z@4HA ENDP ; `Palmtree::Math::Core::Internal::InternalErrorException::`scalar deleting destructor''::`1'::dtor$0
text$x	ENDS
; Function compile flags: /Ogtpy
;	COMDAT text$x
text$x	SEGMENT
$T1 = 32
this$ = 64
__flags$ = 72
?dtor$1@?0???_GInternalErrorException@Internal@Core@Math@Palmtree@@UEAAPEAXI@Z@4HA PROC ; `Palmtree::Math::Core::Internal::InternalErrorException::`scalar deleting destructor''::`1'::dtor$1
  00000	48 8b 8a 40 00
	00 00		 mov	 rcx, QWORD PTR this$[rdx]
  00007	e9 00 00 00 00	 jmp	 ??1exception@std@@UEAA@XZ ; std::exception::~exception
?dtor$1@?0???_GInternalErrorException@Internal@Core@Math@Palmtree@@UEAAPEAXI@Z@4HA ENDP ; `Palmtree::Math::Core::Internal::InternalErrorException::`scalar deleting destructor''::`1'::dtor$1
text$x	ENDS
; Function compile flags: /Ogtpy
; File z:\sources\lunor\repos\rougemeilland\palmtree.math.core.uint\palmtree.math.core.uint\pmc_exception.h
; File c:\program files (x86)\microsoft visual studio\2017\community\vc\tools\msvc\14.16.27023\include\vcruntime_exception.h
; File z:\sources\lunor\repos\rougemeilland\palmtree.math.core.uint\palmtree.math.core.uint\pmc_exception.h
;	COMDAT ??1InternalErrorException@Internal@Core@Math@Palmtree@@UEAA@XZ
_TEXT	SEGMENT
$T1 = 32
this$ = 64
??1InternalErrorException@Internal@Core@Math@Palmtree@@UEAA@XZ PROC ; Palmtree::Math::Core::Internal::InternalErrorException::~InternalErrorException, COMDAT

; 295  :         {

$LN11:
  00000	48 89 4c 24 08	 mov	 QWORD PTR [rsp+8], rcx
  00005	48 83 ec 38	 sub	 rsp, 56			; 00000038H
  00009	48 c7 44 24 20
	fe ff ff ff	 mov	 QWORD PTR $T1[rsp], -2
  00012	48 8d 05 00 00
	00 00		 lea	 rax, OFFSET FLAT:??_7InternalErrorException@Internal@Core@Math@Palmtree@@6B@
  00019	48 89 01	 mov	 QWORD PTR [rcx], rax

; 70   :         {

  0001c	48 8d 05 00 00
	00 00		 lea	 rax, OFFSET FLAT:??_7Exception@Internal@Core@Math@Palmtree@@6B@
  00023	48 89 01	 mov	 QWORD PTR [rcx], rax
; File c:\program files (x86)\microsoft visual studio\2017\community\vc\tools\msvc\14.16.27023\include\vcruntime_exception.h

; 85   :     {

  00026	48 8d 05 00 00
	00 00		 lea	 rax, OFFSET FLAT:??_7exception@std@@6B@
  0002d	48 89 01	 mov	 QWORD PTR [rcx], rax

; 86   :         __std_exception_destroy(&_Data);

  00030	48 83 c1 08	 add	 rcx, 8
  00034	e8 00 00 00 00	 call	 __std_exception_destroy
  00039	90		 npad	 1
; File z:\sources\lunor\repos\rougemeilland\palmtree.math.core.uint\palmtree.math.core.uint\pmc_exception.h

; 296  :         }

  0003a	48 83 c4 38	 add	 rsp, 56			; 00000038H
  0003e	c3		 ret	 0
??1InternalErrorException@Internal@Core@Math@Palmtree@@UEAA@XZ ENDP ; Palmtree::Math::Core::Internal::InternalErrorException::~InternalErrorException
_TEXT	ENDS
;	COMDAT text$x
text$x	SEGMENT
$T1 = 32
this$ = 64
?dtor$0@?0???1InternalErrorException@Internal@Core@Math@Palmtree@@UEAA@XZ@4HA PROC ; `Palmtree::Math::Core::Internal::InternalErrorException::~InternalErrorException'::`1'::dtor$0
  00000	48 8b 8a 40 00
	00 00		 mov	 rcx, QWORD PTR this$[rdx]
  00007	e9 00 00 00 00	 jmp	 ??1Exception@Internal@Core@Math@Palmtree@@UEAA@XZ ; Palmtree::Math::Core::Internal::Exception::~Exception
?dtor$0@?0???1InternalErrorException@Internal@Core@Math@Palmtree@@UEAA@XZ@4HA ENDP ; `Palmtree::Math::Core::Internal::InternalErrorException::~InternalErrorException'::`1'::dtor$0
text$x	ENDS
;	COMDAT text$x
text$x	SEGMENT
$T1 = 32
this$ = 64
?dtor$1@?0???1InternalErrorException@Internal@Core@Math@Palmtree@@UEAA@XZ@4HA PROC ; `Palmtree::Math::Core::Internal::InternalErrorException::~InternalErrorException'::`1'::dtor$1
  00000	48 8b 8a 40 00
	00 00		 mov	 rcx, QWORD PTR this$[rdx]
  00007	e9 00 00 00 00	 jmp	 ??1exception@std@@UEAA@XZ ; std::exception::~exception
?dtor$1@?0???1InternalErrorException@Internal@Core@Math@Palmtree@@UEAA@XZ@4HA ENDP ; `Palmtree::Math::Core::Internal::InternalErrorException::~InternalErrorException'::`1'::dtor$1
text$x	ENDS
; Function compile flags: /Ogtpy
;	COMDAT text$x
text$x	SEGMENT
$T1 = 32
this$ = 64
?dtor$0@?0???1InternalErrorException@Internal@Core@Math@Palmtree@@UEAA@XZ@4HA PROC ; `Palmtree::Math::Core::Internal::InternalErrorException::~InternalErrorException'::`1'::dtor$0
  00000	48 8b 8a 40 00
	00 00		 mov	 rcx, QWORD PTR this$[rdx]
  00007	e9 00 00 00 00	 jmp	 ??1Exception@Internal@Core@Math@Palmtree@@UEAA@XZ ; Palmtree::Math::Core::Internal::Exception::~Exception
?dtor$0@?0???1InternalErrorException@Internal@Core@Math@Palmtree@@UEAA@XZ@4HA ENDP ; `Palmtree::Math::Core::Internal::InternalErrorException::~InternalErrorException'::`1'::dtor$0
text$x	ENDS
; Function compile flags: /Ogtpy
;	COMDAT text$x
text$x	SEGMENT
$T1 = 32
this$ = 64
?dtor$1@?0???1InternalErrorException@Internal@Core@Math@Palmtree@@UEAA@XZ@4HA PROC ; `Palmtree::Math::Core::Internal::InternalErrorException::~InternalErrorException'::`1'::dtor$1
  00000	48 8b 8a 40 00
	00 00		 mov	 rcx, QWORD PTR this$[rdx]
  00007	e9 00 00 00 00	 jmp	 ??1exception@std@@UEAA@XZ ; std::exception::~exception
?dtor$1@?0???1InternalErrorException@Internal@Core@Math@Palmtree@@UEAA@XZ@4HA ENDP ; `Palmtree::Math::Core::Internal::InternalErrorException::~InternalErrorException'::`1'::dtor$1
text$x	ENDS
; Function compile flags: /Ogtpy
; File z:\sources\lunor\repos\rougemeilland\palmtree.math.core.uint\palmtree.math.core.uint\pmc_exception.h
; File c:\program files (x86)\microsoft visual studio\2017\community\vc\tools\msvc\14.16.27023\include\vcruntime_exception.h
; File z:\sources\lunor\repos\rougemeilland\palmtree.math.core.uint\palmtree.math.core.uint\pmc_exception.h
;	COMDAT ??0InternalErrorException@Internal@Core@Math@Palmtree@@QEAA@AEBV01234@@Z
_TEXT	SEGMENT
$T1 = 0
this$ = 32
p$ = 40
??0InternalErrorException@Internal@Core@Math@Palmtree@@QEAA@AEBV01234@@Z PROC ; Palmtree::Math::Core::Internal::InternalErrorException::InternalErrorException, COMDAT

; 291  :         {

$LN11:
  00000	48 89 4c 24 08	 mov	 QWORD PTR [rsp+8], rcx
  00005	48 83 ec 18	 sub	 rsp, 24
  00009	48 c7 04 24 fe
	ff ff ff	 mov	 QWORD PTR $T1[rsp], -2
; File c:\program files (x86)\microsoft visual studio\2017\community\vc\tools\msvc\14.16.27023\include\vcruntime_exception.h

; 50   :     {

  00011	48 8d 05 00 00
	00 00		 lea	 rax, OFFSET FLAT:??_7exception@std@@6B@
  00018	48 89 01	 mov	 QWORD PTR [rcx], rax

; 49   :         : _Data()

  0001b	33 c0		 xor	 eax, eax
  0001d	48 89 41 08	 mov	 QWORD PTR [rcx+8], rax
  00021	48 89 41 10	 mov	 QWORD PTR [rcx+16], rax
; File z:\sources\lunor\repos\rougemeilland\palmtree.math.core.uint\palmtree.math.core.uint\pmc_exception.h

; 62   :         Exception(const Exception& p) noexcept(true)

  00025	48 8d 05 00 00
	00 00		 lea	 rax, OFFSET FLAT:??_7Exception@Internal@Core@Math@Palmtree@@6B@
  0002c	48 89 01	 mov	 QWORD PTR [rcx], rax

; 63   :         {
; 64   :             _code = p._code;

  0002f	8b 42 18	 mov	 eax, DWORD PTR [rdx+24]
  00032	89 41 18	 mov	 DWORD PTR [rcx+24], eax

; 65   :             _message = p._message;

  00035	48 8b 42 20	 mov	 rax, QWORD PTR [rdx+32]
  00039	48 89 41 20	 mov	 QWORD PTR [rcx+32], rax

; 66   :             _data = p._data;

  0003d	48 8b 42 28	 mov	 rax, QWORD PTR [rdx+40]
  00041	48 89 41 28	 mov	 QWORD PTR [rcx+40], rax

; 291  :         {

  00045	48 8d 05 00 00
	00 00		 lea	 rax, OFFSET FLAT:??_7InternalErrorException@Internal@Core@Math@Palmtree@@6B@
  0004c	48 89 01	 mov	 QWORD PTR [rcx], rax

; 292  :         }

  0004f	48 8b c1	 mov	 rax, rcx
  00052	48 83 c4 18	 add	 rsp, 24
  00056	c3		 ret	 0
??0InternalErrorException@Internal@Core@Math@Palmtree@@QEAA@AEBV01234@@Z ENDP ; Palmtree::Math::Core::Internal::InternalErrorException::InternalErrorException
_TEXT	ENDS
;	COMDAT text$x
text$x	SEGMENT
$T1 = 0
this$ = 32
p$ = 40
?dtor$1@?0???0InternalErrorException@Internal@Core@Math@Palmtree@@QEAA@AEBV01234@@Z@4HA PROC ; `Palmtree::Math::Core::Internal::InternalErrorException::InternalErrorException'::`1'::dtor$1
  00000	48 8b 8a 20 00
	00 00		 mov	 rcx, QWORD PTR this$[rdx]
  00007	e9 00 00 00 00	 jmp	 ??1exception@std@@UEAA@XZ ; std::exception::~exception
?dtor$1@?0???0InternalErrorException@Internal@Core@Math@Palmtree@@QEAA@AEBV01234@@Z@4HA ENDP ; `Palmtree::Math::Core::Internal::InternalErrorException::InternalErrorException'::`1'::dtor$1
text$x	ENDS
;	COMDAT text$x
text$x	SEGMENT
$T1 = 0
this$ = 32
p$ = 40
?dtor$0@?0???0InternalErrorException@Internal@Core@Math@Palmtree@@QEAA@AEBV01234@@Z@4HA PROC ; `Palmtree::Math::Core::Internal::InternalErrorException::InternalErrorException'::`1'::dtor$0
  00000	48 8b 8a 20 00
	00 00		 mov	 rcx, QWORD PTR this$[rdx]
  00007	e9 00 00 00 00	 jmp	 ??1Exception@Internal@Core@Math@Palmtree@@UEAA@XZ ; Palmtree::Math::Core::Internal::Exception::~Exception
?dtor$0@?0???0InternalErrorException@Internal@Core@Math@Palmtree@@QEAA@AEBV01234@@Z@4HA ENDP ; `Palmtree::Math::Core::Internal::InternalErrorException::InternalErrorException'::`1'::dtor$0
text$x	ENDS
; Function compile flags: /Ogtpy
;	COMDAT text$x
text$x	SEGMENT
$T1 = 0
this$ = 32
p$ = 40
?dtor$1@?0???0InternalErrorException@Internal@Core@Math@Palmtree@@QEAA@AEBV01234@@Z@4HA PROC ; `Palmtree::Math::Core::Internal::InternalErrorException::InternalErrorException'::`1'::dtor$1
  00000	48 8b 8a 20 00
	00 00		 mov	 rcx, QWORD PTR this$[rdx]
  00007	e9 00 00 00 00	 jmp	 ??1exception@std@@UEAA@XZ ; std::exception::~exception
?dtor$1@?0???0InternalErrorException@Internal@Core@Math@Palmtree@@QEAA@AEBV01234@@Z@4HA ENDP ; `Palmtree::Math::Core::Internal::InternalErrorException::InternalErrorException'::`1'::dtor$1
text$x	ENDS
; Function compile flags: /Ogtpy
;	COMDAT text$x
text$x	SEGMENT
$T1 = 0
this$ = 32
p$ = 40
?dtor$0@?0???0InternalErrorException@Internal@Core@Math@Palmtree@@QEAA@AEBV01234@@Z@4HA PROC ; `Palmtree::Math::Core::Internal::InternalErrorException::InternalErrorException'::`1'::dtor$0
  00000	48 8b 8a 20 00
	00 00		 mov	 rcx, QWORD PTR this$[rdx]
  00007	e9 00 00 00 00	 jmp	 ??1Exception@Internal@Core@Math@Palmtree@@UEAA@XZ ; Palmtree::Math::Core::Internal::Exception::~Exception
?dtor$0@?0???0InternalErrorException@Internal@Core@Math@Palmtree@@QEAA@AEBV01234@@Z@4HA ENDP ; `Palmtree::Math::Core::Internal::InternalErrorException::InternalErrorException'::`1'::dtor$0
text$x	ENDS
; Function compile flags: /Ogtpy
; File z:\sources\lunor\repos\rougemeilland\palmtree.math.core.uint\palmtree.math.core.uint\pmc_exception.h
; File c:\program files (x86)\microsoft visual studio\2017\community\vc\tools\msvc\14.16.27023\include\vcruntime_exception.h
; File z:\sources\lunor\repos\rougemeilland\palmtree.math.core.uint\palmtree.math.core.uint\pmc_exception.h
;	COMDAT ??0InternalErrorException@Internal@Core@Math@Palmtree@@QEAA@PEB_W0@Z
_TEXT	SEGMENT
$T1 = 0
this$ = 32
message$ = 40
data$ = 48
??0InternalErrorException@Internal@Core@Math@Palmtree@@QEAA@PEB_W0@Z PROC ; Palmtree::Math::Core::Internal::InternalErrorException::InternalErrorException, COMDAT

; 286  :         {

$LN11:
  00000	48 89 4c 24 08	 mov	 QWORD PTR [rsp+8], rcx
  00005	48 83 ec 18	 sub	 rsp, 24
  00009	48 c7 04 24 fe
	ff ff ff	 mov	 QWORD PTR $T1[rsp], -2
; File c:\program files (x86)\microsoft visual studio\2017\community\vc\tools\msvc\14.16.27023\include\vcruntime_exception.h

; 50   :     {

  00011	48 8d 05 00 00
	00 00		 lea	 rax, OFFSET FLAT:??_7exception@std@@6B@
  00018	48 89 01	 mov	 QWORD PTR [rcx], rax

; 49   :         : _Data()

  0001b	33 c0		 xor	 eax, eax
  0001d	48 89 41 08	 mov	 QWORD PTR [rcx+8], rax
  00021	48 89 41 10	 mov	 QWORD PTR [rcx+16], rax
; File z:\sources\lunor\repos\rougemeilland\palmtree.math.core.uint\palmtree.math.core.uint\pmc_exception.h

; 54   :         Exception(PMC_STATUS_CODE code, const wchar_t* message, const wchar_t* data) noexcept(true)

  00025	48 8d 05 00 00
	00 00		 lea	 rax, OFFSET FLAT:??_7Exception@Internal@Core@Math@Palmtree@@6B@
  0002c	48 89 01	 mov	 QWORD PTR [rcx], rax

; 55   :         {
; 56   :             _code = code;

  0002f	c7 41 18 00 ff
	ff ff		 mov	 DWORD PTR [rcx+24], -256 ; ffffffffffffff00H

; 57   :             _message = message;

  00036	48 89 51 20	 mov	 QWORD PTR [rcx+32], rdx

; 58   :             _data = data;

  0003a	4c 89 41 28	 mov	 QWORD PTR [rcx+40], r8

; 286  :         {

  0003e	48 8d 05 00 00
	00 00		 lea	 rax, OFFSET FLAT:??_7InternalErrorException@Internal@Core@Math@Palmtree@@6B@
  00045	48 89 01	 mov	 QWORD PTR [rcx], rax

; 287  :         }

  00048	48 8b c1	 mov	 rax, rcx
  0004b	48 83 c4 18	 add	 rsp, 24
  0004f	c3		 ret	 0
??0InternalErrorException@Internal@Core@Math@Palmtree@@QEAA@PEB_W0@Z ENDP ; Palmtree::Math::Core::Internal::InternalErrorException::InternalErrorException
_TEXT	ENDS
;	COMDAT text$x
text$x	SEGMENT
$T1 = 0
this$ = 32
message$ = 40
data$ = 48
?dtor$1@?0???0InternalErrorException@Internal@Core@Math@Palmtree@@QEAA@PEB_W0@Z@4HA PROC ; `Palmtree::Math::Core::Internal::InternalErrorException::InternalErrorException'::`1'::dtor$1
  00000	48 8b 8a 20 00
	00 00		 mov	 rcx, QWORD PTR this$[rdx]
  00007	e9 00 00 00 00	 jmp	 ??1exception@std@@UEAA@XZ ; std::exception::~exception
?dtor$1@?0???0InternalErrorException@Internal@Core@Math@Palmtree@@QEAA@PEB_W0@Z@4HA ENDP ; `Palmtree::Math::Core::Internal::InternalErrorException::InternalErrorException'::`1'::dtor$1
text$x	ENDS
;	COMDAT text$x
text$x	SEGMENT
$T1 = 0
this$ = 32
message$ = 40
data$ = 48
?dtor$0@?0???0InternalErrorException@Internal@Core@Math@Palmtree@@QEAA@PEB_W0@Z@4HA PROC ; `Palmtree::Math::Core::Internal::InternalErrorException::InternalErrorException'::`1'::dtor$0
  00000	48 8b 8a 20 00
	00 00		 mov	 rcx, QWORD PTR this$[rdx]
  00007	e9 00 00 00 00	 jmp	 ??1Exception@Internal@Core@Math@Palmtree@@UEAA@XZ ; Palmtree::Math::Core::Internal::Exception::~Exception
?dtor$0@?0???0InternalErrorException@Internal@Core@Math@Palmtree@@QEAA@PEB_W0@Z@4HA ENDP ; `Palmtree::Math::Core::Internal::InternalErrorException::InternalErrorException'::`1'::dtor$0
text$x	ENDS
; Function compile flags: /Ogtpy
;	COMDAT text$x
text$x	SEGMENT
$T1 = 0
this$ = 32
message$ = 40
data$ = 48
?dtor$1@?0???0InternalErrorException@Internal@Core@Math@Palmtree@@QEAA@PEB_W0@Z@4HA PROC ; `Palmtree::Math::Core::Internal::InternalErrorException::InternalErrorException'::`1'::dtor$1
  00000	48 8b 8a 20 00
	00 00		 mov	 rcx, QWORD PTR this$[rdx]
  00007	e9 00 00 00 00	 jmp	 ??1exception@std@@UEAA@XZ ; std::exception::~exception
?dtor$1@?0???0InternalErrorException@Internal@Core@Math@Palmtree@@QEAA@PEB_W0@Z@4HA ENDP ; `Palmtree::Math::Core::Internal::InternalErrorException::InternalErrorException'::`1'::dtor$1
text$x	ENDS
; Function compile flags: /Ogtpy
;	COMDAT text$x
text$x	SEGMENT
$T1 = 0
this$ = 32
message$ = 40
data$ = 48
?dtor$0@?0???0InternalErrorException@Internal@Core@Math@Palmtree@@QEAA@PEB_W0@Z@4HA PROC ; `Palmtree::Math::Core::Internal::InternalErrorException::InternalErrorException'::`1'::dtor$0
  00000	48 8b 8a 20 00
	00 00		 mov	 rcx, QWORD PTR this$[rdx]
  00007	e9 00 00 00 00	 jmp	 ??1Exception@Internal@Core@Math@Palmtree@@UEAA@XZ ; Palmtree::Math::Core::Internal::Exception::~Exception
?dtor$0@?0???0InternalErrorException@Internal@Core@Math@Palmtree@@QEAA@PEB_W0@Z@4HA ENDP ; `Palmtree::Math::Core::Internal::InternalErrorException::InternalErrorException'::`1'::dtor$0
text$x	ENDS
; Function compile flags: /Ogtpy
; File z:\sources\lunor\repos\rougemeilland\palmtree.math.core.uint\palmtree.math.core.uint\pmc_exception.h
; File c:\program files (x86)\microsoft visual studio\2017\community\vc\tools\msvc\14.16.27023\include\vcruntime_exception.h
;	COMDAT ??_GArgumentNullException@Internal@Core@Math@Palmtree@@UEAAPEAXI@Z
_TEXT	SEGMENT
$T1 = 32
this$ = 64
__flags$ = 72
??_GArgumentNullException@Internal@Core@Math@Palmtree@@UEAAPEAXI@Z PROC ; Palmtree::Math::Core::Internal::ArgumentNullException::`scalar deleting destructor', COMDAT
$LN15:
  00000	48 89 4c 24 08	 mov	 QWORD PTR [rsp+8], rcx
  00005	57		 push	 rdi
  00006	48 83 ec 30	 sub	 rsp, 48			; 00000030H
  0000a	48 c7 44 24 20
	fe ff ff ff	 mov	 QWORD PTR $T1[rsp], -2
  00013	48 89 5c 24 48	 mov	 QWORD PTR [rsp+72], rbx
  00018	8b da		 mov	 ebx, edx
  0001a	48 8b f9	 mov	 rdi, rcx
; File z:\sources\lunor\repos\rougemeilland\palmtree.math.core.uint\palmtree.math.core.uint\pmc_exception.h

; 124  :         {

  0001d	48 8d 05 00 00
	00 00		 lea	 rax, OFFSET FLAT:??_7ArgumentNullException@Internal@Core@Math@Palmtree@@6B@
  00024	48 89 01	 mov	 QWORD PTR [rcx], rax

; 70   :         {

  00027	48 8d 05 00 00
	00 00		 lea	 rax, OFFSET FLAT:??_7Exception@Internal@Core@Math@Palmtree@@6B@
  0002e	48 89 01	 mov	 QWORD PTR [rcx], rax
; File c:\program files (x86)\microsoft visual studio\2017\community\vc\tools\msvc\14.16.27023\include\vcruntime_exception.h

; 85   :     {

  00031	48 8d 05 00 00
	00 00		 lea	 rax, OFFSET FLAT:??_7exception@std@@6B@
  00038	48 89 01	 mov	 QWORD PTR [rcx], rax

; 86   :         __std_exception_destroy(&_Data);

  0003b	48 83 c1 08	 add	 rcx, 8
  0003f	e8 00 00 00 00	 call	 __std_exception_destroy
  00044	90		 npad	 1
  00045	f6 c3 01	 test	 bl, 1
  00048	74 0e		 je	 SHORT $LN12@scalar
  0004a	ba 30 00 00 00	 mov	 edx, 48			; 00000030H
  0004f	48 8b cf	 mov	 rcx, rdi
  00052	e8 00 00 00 00	 call	 ??3@YAXPEAX_K@Z		; operator delete
  00057	90		 npad	 1
$LN12@scalar:
  00058	48 8b c7	 mov	 rax, rdi
  0005b	48 8b 5c 24 48	 mov	 rbx, QWORD PTR [rsp+72]
  00060	48 83 c4 30	 add	 rsp, 48			; 00000030H
  00064	5f		 pop	 rdi
  00065	c3		 ret	 0
??_GArgumentNullException@Internal@Core@Math@Palmtree@@UEAAPEAXI@Z ENDP ; Palmtree::Math::Core::Internal::ArgumentNullException::`scalar deleting destructor'
_TEXT	ENDS
;	COMDAT text$x
text$x	SEGMENT
$T1 = 32
this$ = 64
__flags$ = 72
?dtor$0@?0???_GArgumentNullException@Internal@Core@Math@Palmtree@@UEAAPEAXI@Z@4HA PROC ; `Palmtree::Math::Core::Internal::ArgumentNullException::`scalar deleting destructor''::`1'::dtor$0
  00000	48 8b 8a 40 00
	00 00		 mov	 rcx, QWORD PTR this$[rdx]
  00007	e9 00 00 00 00	 jmp	 ??1Exception@Internal@Core@Math@Palmtree@@UEAA@XZ ; Palmtree::Math::Core::Internal::Exception::~Exception
?dtor$0@?0???_GArgumentNullException@Internal@Core@Math@Palmtree@@UEAAPEAXI@Z@4HA ENDP ; `Palmtree::Math::Core::Internal::ArgumentNullException::`scalar deleting destructor''::`1'::dtor$0
text$x	ENDS
;	COMDAT text$x
text$x	SEGMENT
$T1 = 32
this$ = 64
__flags$ = 72
?dtor$1@?0???_GArgumentNullException@Internal@Core@Math@Palmtree@@UEAAPEAXI@Z@4HA PROC ; `Palmtree::Math::Core::Internal::ArgumentNullException::`scalar deleting destructor''::`1'::dtor$1
  00000	48 8b 8a 40 00
	00 00		 mov	 rcx, QWORD PTR this$[rdx]
  00007	e9 00 00 00 00	 jmp	 ??1exception@std@@UEAA@XZ ; std::exception::~exception
?dtor$1@?0???_GArgumentNullException@Internal@Core@Math@Palmtree@@UEAAPEAXI@Z@4HA ENDP ; `Palmtree::Math::Core::Internal::ArgumentNullException::`scalar deleting destructor''::`1'::dtor$1
text$x	ENDS
; Function compile flags: /Ogtpy
;	COMDAT text$x
text$x	SEGMENT
$T1 = 32
this$ = 64
__flags$ = 72
?dtor$0@?0???_GArgumentNullException@Internal@Core@Math@Palmtree@@UEAAPEAXI@Z@4HA PROC ; `Palmtree::Math::Core::Internal::ArgumentNullException::`scalar deleting destructor''::`1'::dtor$0
  00000	48 8b 8a 40 00
	00 00		 mov	 rcx, QWORD PTR this$[rdx]
  00007	e9 00 00 00 00	 jmp	 ??1Exception@Internal@Core@Math@Palmtree@@UEAA@XZ ; Palmtree::Math::Core::Internal::Exception::~Exception
?dtor$0@?0???_GArgumentNullException@Internal@Core@Math@Palmtree@@UEAAPEAXI@Z@4HA ENDP ; `Palmtree::Math::Core::Internal::ArgumentNullException::`scalar deleting destructor''::`1'::dtor$0
text$x	ENDS
; Function compile flags: /Ogtpy
;	COMDAT text$x
text$x	SEGMENT
$T1 = 32
this$ = 64
__flags$ = 72
?dtor$1@?0???_GArgumentNullException@Internal@Core@Math@Palmtree@@UEAAPEAXI@Z@4HA PROC ; `Palmtree::Math::Core::Internal::ArgumentNullException::`scalar deleting destructor''::`1'::dtor$1
  00000	48 8b 8a 40 00
	00 00		 mov	 rcx, QWORD PTR this$[rdx]
  00007	e9 00 00 00 00	 jmp	 ??1exception@std@@UEAA@XZ ; std::exception::~exception
?dtor$1@?0???_GArgumentNullException@Internal@Core@Math@Palmtree@@UEAAPEAXI@Z@4HA ENDP ; `Palmtree::Math::Core::Internal::ArgumentNullException::`scalar deleting destructor''::`1'::dtor$1
text$x	ENDS
; Function compile flags: /Ogtpy
; File z:\sources\lunor\repos\rougemeilland\palmtree.math.core.uint\palmtree.math.core.uint\pmc_exception.h
; File c:\program files (x86)\microsoft visual studio\2017\community\vc\tools\msvc\14.16.27023\include\vcruntime_exception.h
; File z:\sources\lunor\repos\rougemeilland\palmtree.math.core.uint\palmtree.math.core.uint\pmc_exception.h
;	COMDAT ??1ArgumentNullException@Internal@Core@Math@Palmtree@@UEAA@XZ
_TEXT	SEGMENT
$T1 = 32
this$ = 64
??1ArgumentNullException@Internal@Core@Math@Palmtree@@UEAA@XZ PROC ; Palmtree::Math::Core::Internal::ArgumentNullException::~ArgumentNullException, COMDAT

; 124  :         {

$LN11:
  00000	48 89 4c 24 08	 mov	 QWORD PTR [rsp+8], rcx
  00005	48 83 ec 38	 sub	 rsp, 56			; 00000038H
  00009	48 c7 44 24 20
	fe ff ff ff	 mov	 QWORD PTR $T1[rsp], -2
  00012	48 8d 05 00 00
	00 00		 lea	 rax, OFFSET FLAT:??_7ArgumentNullException@Internal@Core@Math@Palmtree@@6B@
  00019	48 89 01	 mov	 QWORD PTR [rcx], rax

; 70   :         {

  0001c	48 8d 05 00 00
	00 00		 lea	 rax, OFFSET FLAT:??_7Exception@Internal@Core@Math@Palmtree@@6B@
  00023	48 89 01	 mov	 QWORD PTR [rcx], rax
; File c:\program files (x86)\microsoft visual studio\2017\community\vc\tools\msvc\14.16.27023\include\vcruntime_exception.h

; 85   :     {

  00026	48 8d 05 00 00
	00 00		 lea	 rax, OFFSET FLAT:??_7exception@std@@6B@
  0002d	48 89 01	 mov	 QWORD PTR [rcx], rax

; 86   :         __std_exception_destroy(&_Data);

  00030	48 83 c1 08	 add	 rcx, 8
  00034	e8 00 00 00 00	 call	 __std_exception_destroy
  00039	90		 npad	 1
; File z:\sources\lunor\repos\rougemeilland\palmtree.math.core.uint\palmtree.math.core.uint\pmc_exception.h

; 125  :         }

  0003a	48 83 c4 38	 add	 rsp, 56			; 00000038H
  0003e	c3		 ret	 0
??1ArgumentNullException@Internal@Core@Math@Palmtree@@UEAA@XZ ENDP ; Palmtree::Math::Core::Internal::ArgumentNullException::~ArgumentNullException
_TEXT	ENDS
;	COMDAT text$x
text$x	SEGMENT
$T1 = 32
this$ = 64
?dtor$0@?0???1ArgumentNullException@Internal@Core@Math@Palmtree@@UEAA@XZ@4HA PROC ; `Palmtree::Math::Core::Internal::ArgumentNullException::~ArgumentNullException'::`1'::dtor$0
  00000	48 8b 8a 40 00
	00 00		 mov	 rcx, QWORD PTR this$[rdx]
  00007	e9 00 00 00 00	 jmp	 ??1Exception@Internal@Core@Math@Palmtree@@UEAA@XZ ; Palmtree::Math::Core::Internal::Exception::~Exception
?dtor$0@?0???1ArgumentNullException@Internal@Core@Math@Palmtree@@UEAA@XZ@4HA ENDP ; `Palmtree::Math::Core::Internal::ArgumentNullException::~ArgumentNullException'::`1'::dtor$0
text$x	ENDS
;	COMDAT text$x
text$x	SEGMENT
$T1 = 32
this$ = 64
?dtor$1@?0???1ArgumentNullException@Internal@Core@Math@Palmtree@@UEAA@XZ@4HA PROC ; `Palmtree::Math::Core::Internal::ArgumentNullException::~ArgumentNullException'::`1'::dtor$1
  00000	48 8b 8a 40 00
	00 00		 mov	 rcx, QWORD PTR this$[rdx]
  00007	e9 00 00 00 00	 jmp	 ??1exception@std@@UEAA@XZ ; std::exception::~exception
?dtor$1@?0???1ArgumentNullException@Internal@Core@Math@Palmtree@@UEAA@XZ@4HA ENDP ; `Palmtree::Math::Core::Internal::ArgumentNullException::~ArgumentNullException'::`1'::dtor$1
text$x	ENDS
; Function compile flags: /Ogtpy
;	COMDAT text$x
text$x	SEGMENT
$T1 = 32
this$ = 64
?dtor$0@?0???1ArgumentNullException@Internal@Core@Math@Palmtree@@UEAA@XZ@4HA PROC ; `Palmtree::Math::Core::Internal::ArgumentNullException::~ArgumentNullException'::`1'::dtor$0
  00000	48 8b 8a 40 00
	00 00		 mov	 rcx, QWORD PTR this$[rdx]
  00007	e9 00 00 00 00	 jmp	 ??1Exception@Internal@Core@Math@Palmtree@@UEAA@XZ ; Palmtree::Math::Core::Internal::Exception::~Exception
?dtor$0@?0???1ArgumentNullException@Internal@Core@Math@Palmtree@@UEAA@XZ@4HA ENDP ; `Palmtree::Math::Core::Internal::ArgumentNullException::~ArgumentNullException'::`1'::dtor$0
text$x	ENDS
; Function compile flags: /Ogtpy
;	COMDAT text$x
text$x	SEGMENT
$T1 = 32
this$ = 64
?dtor$1@?0???1ArgumentNullException@Internal@Core@Math@Palmtree@@UEAA@XZ@4HA PROC ; `Palmtree::Math::Core::Internal::ArgumentNullException::~ArgumentNullException'::`1'::dtor$1
  00000	48 8b 8a 40 00
	00 00		 mov	 rcx, QWORD PTR this$[rdx]
  00007	e9 00 00 00 00	 jmp	 ??1exception@std@@UEAA@XZ ; std::exception::~exception
?dtor$1@?0???1ArgumentNullException@Internal@Core@Math@Palmtree@@UEAA@XZ@4HA ENDP ; `Palmtree::Math::Core::Internal::ArgumentNullException::~ArgumentNullException'::`1'::dtor$1
text$x	ENDS
; Function compile flags: /Ogtpy
; File z:\sources\lunor\repos\rougemeilland\palmtree.math.core.uint\palmtree.math.core.uint\pmc_exception.h
; File c:\program files (x86)\microsoft visual studio\2017\community\vc\tools\msvc\14.16.27023\include\vcruntime_exception.h
; File z:\sources\lunor\repos\rougemeilland\palmtree.math.core.uint\palmtree.math.core.uint\pmc_exception.h
;	COMDAT ??0ArgumentNullException@Internal@Core@Math@Palmtree@@QEAA@AEBV01234@@Z
_TEXT	SEGMENT
$T1 = 0
this$ = 32
p$ = 40
??0ArgumentNullException@Internal@Core@Math@Palmtree@@QEAA@AEBV01234@@Z PROC ; Palmtree::Math::Core::Internal::ArgumentNullException::ArgumentNullException, COMDAT

; 120  :         {

$LN11:
  00000	48 89 4c 24 08	 mov	 QWORD PTR [rsp+8], rcx
  00005	48 83 ec 18	 sub	 rsp, 24
  00009	48 c7 04 24 fe
	ff ff ff	 mov	 QWORD PTR $T1[rsp], -2
; File c:\program files (x86)\microsoft visual studio\2017\community\vc\tools\msvc\14.16.27023\include\vcruntime_exception.h

; 50   :     {

  00011	48 8d 05 00 00
	00 00		 lea	 rax, OFFSET FLAT:??_7exception@std@@6B@
  00018	48 89 01	 mov	 QWORD PTR [rcx], rax

; 49   :         : _Data()

  0001b	33 c0		 xor	 eax, eax
  0001d	48 89 41 08	 mov	 QWORD PTR [rcx+8], rax
  00021	48 89 41 10	 mov	 QWORD PTR [rcx+16], rax
; File z:\sources\lunor\repos\rougemeilland\palmtree.math.core.uint\palmtree.math.core.uint\pmc_exception.h

; 62   :         Exception(const Exception& p) noexcept(true)

  00025	48 8d 05 00 00
	00 00		 lea	 rax, OFFSET FLAT:??_7Exception@Internal@Core@Math@Palmtree@@6B@
  0002c	48 89 01	 mov	 QWORD PTR [rcx], rax

; 63   :         {
; 64   :             _code = p._code;

  0002f	8b 42 18	 mov	 eax, DWORD PTR [rdx+24]
  00032	89 41 18	 mov	 DWORD PTR [rcx+24], eax

; 65   :             _message = p._message;

  00035	48 8b 42 20	 mov	 rax, QWORD PTR [rdx+32]
  00039	48 89 41 20	 mov	 QWORD PTR [rcx+32], rax

; 66   :             _data = p._data;

  0003d	48 8b 42 28	 mov	 rax, QWORD PTR [rdx+40]
  00041	48 89 41 28	 mov	 QWORD PTR [rcx+40], rax

; 120  :         {

  00045	48 8d 05 00 00
	00 00		 lea	 rax, OFFSET FLAT:??_7ArgumentNullException@Internal@Core@Math@Palmtree@@6B@
  0004c	48 89 01	 mov	 QWORD PTR [rcx], rax

; 121  :         }

  0004f	48 8b c1	 mov	 rax, rcx
  00052	48 83 c4 18	 add	 rsp, 24
  00056	c3		 ret	 0
??0ArgumentNullException@Internal@Core@Math@Palmtree@@QEAA@AEBV01234@@Z ENDP ; Palmtree::Math::Core::Internal::ArgumentNullException::ArgumentNullException
_TEXT	ENDS
;	COMDAT text$x
text$x	SEGMENT
$T1 = 0
this$ = 32
p$ = 40
?dtor$1@?0???0ArgumentNullException@Internal@Core@Math@Palmtree@@QEAA@AEBV01234@@Z@4HA PROC ; `Palmtree::Math::Core::Internal::ArgumentNullException::ArgumentNullException'::`1'::dtor$1
  00000	48 8b 8a 20 00
	00 00		 mov	 rcx, QWORD PTR this$[rdx]
  00007	e9 00 00 00 00	 jmp	 ??1exception@std@@UEAA@XZ ; std::exception::~exception
?dtor$1@?0???0ArgumentNullException@Internal@Core@Math@Palmtree@@QEAA@AEBV01234@@Z@4HA ENDP ; `Palmtree::Math::Core::Internal::ArgumentNullException::ArgumentNullException'::`1'::dtor$1
text$x	ENDS
;	COMDAT text$x
text$x	SEGMENT
$T1 = 0
this$ = 32
p$ = 40
?dtor$0@?0???0ArgumentNullException@Internal@Core@Math@Palmtree@@QEAA@AEBV01234@@Z@4HA PROC ; `Palmtree::Math::Core::Internal::ArgumentNullException::ArgumentNullException'::`1'::dtor$0
  00000	48 8b 8a 20 00
	00 00		 mov	 rcx, QWORD PTR this$[rdx]
  00007	e9 00 00 00 00	 jmp	 ??1Exception@Internal@Core@Math@Palmtree@@UEAA@XZ ; Palmtree::Math::Core::Internal::Exception::~Exception
?dtor$0@?0???0ArgumentNullException@Internal@Core@Math@Palmtree@@QEAA@AEBV01234@@Z@4HA ENDP ; `Palmtree::Math::Core::Internal::ArgumentNullException::ArgumentNullException'::`1'::dtor$0
text$x	ENDS
; Function compile flags: /Ogtpy
;	COMDAT text$x
text$x	SEGMENT
$T1 = 0
this$ = 32
p$ = 40
?dtor$1@?0???0ArgumentNullException@Internal@Core@Math@Palmtree@@QEAA@AEBV01234@@Z@4HA PROC ; `Palmtree::Math::Core::Internal::ArgumentNullException::ArgumentNullException'::`1'::dtor$1
  00000	48 8b 8a 20 00
	00 00		 mov	 rcx, QWORD PTR this$[rdx]
  00007	e9 00 00 00 00	 jmp	 ??1exception@std@@UEAA@XZ ; std::exception::~exception
?dtor$1@?0???0ArgumentNullException@Internal@Core@Math@Palmtree@@QEAA@AEBV01234@@Z@4HA ENDP ; `Palmtree::Math::Core::Internal::ArgumentNullException::ArgumentNullException'::`1'::dtor$1
text$x	ENDS
; Function compile flags: /Ogtpy
;	COMDAT text$x
text$x	SEGMENT
$T1 = 0
this$ = 32
p$ = 40
?dtor$0@?0???0ArgumentNullException@Internal@Core@Math@Palmtree@@QEAA@AEBV01234@@Z@4HA PROC ; `Palmtree::Math::Core::Internal::ArgumentNullException::ArgumentNullException'::`1'::dtor$0
  00000	48 8b 8a 20 00
	00 00		 mov	 rcx, QWORD PTR this$[rdx]
  00007	e9 00 00 00 00	 jmp	 ??1Exception@Internal@Core@Math@Palmtree@@UEAA@XZ ; Palmtree::Math::Core::Internal::Exception::~Exception
?dtor$0@?0???0ArgumentNullException@Internal@Core@Math@Palmtree@@QEAA@AEBV01234@@Z@4HA ENDP ; `Palmtree::Math::Core::Internal::ArgumentNullException::ArgumentNullException'::`1'::dtor$0
text$x	ENDS
; Function compile flags: /Ogtpy
; File z:\sources\lunor\repos\rougemeilland\palmtree.math.core.uint\palmtree.math.core.uint\pmc_exception.h
; File c:\program files (x86)\microsoft visual studio\2017\community\vc\tools\msvc\14.16.27023\include\vcruntime_exception.h
; File z:\sources\lunor\repos\rougemeilland\palmtree.math.core.uint\palmtree.math.core.uint\pmc_exception.h
;	COMDAT ??0ArgumentNullException@Internal@Core@Math@Palmtree@@QEAA@PEB_W0@Z
_TEXT	SEGMENT
$T1 = 0
this$ = 32
message$ = 40
param_name$ = 48
??0ArgumentNullException@Internal@Core@Math@Palmtree@@QEAA@PEB_W0@Z PROC ; Palmtree::Math::Core::Internal::ArgumentNullException::ArgumentNullException, COMDAT

; 115  :         {

$LN11:
  00000	48 89 4c 24 08	 mov	 QWORD PTR [rsp+8], rcx
  00005	48 83 ec 18	 sub	 rsp, 24
  00009	48 c7 04 24 fe
	ff ff ff	 mov	 QWORD PTR $T1[rsp], -2
; File c:\program files (x86)\microsoft visual studio\2017\community\vc\tools\msvc\14.16.27023\include\vcruntime_exception.h

; 50   :     {

  00011	48 8d 05 00 00
	00 00		 lea	 rax, OFFSET FLAT:??_7exception@std@@6B@
  00018	48 89 01	 mov	 QWORD PTR [rcx], rax

; 49   :         : _Data()

  0001b	33 c0		 xor	 eax, eax
  0001d	48 89 41 08	 mov	 QWORD PTR [rcx+8], rax
  00021	48 89 41 10	 mov	 QWORD PTR [rcx+16], rax
; File z:\sources\lunor\repos\rougemeilland\palmtree.math.core.uint\palmtree.math.core.uint\pmc_exception.h

; 54   :         Exception(PMC_STATUS_CODE code, const wchar_t* message, const wchar_t* data) noexcept(true)

  00025	48 8d 05 00 00
	00 00		 lea	 rax, OFFSET FLAT:??_7Exception@Internal@Core@Math@Palmtree@@6B@
  0002c	48 89 01	 mov	 QWORD PTR [rcx], rax

; 55   :         {
; 56   :             _code = code;

  0002f	c7 41 18 fe ff
	ff ff		 mov	 DWORD PTR [rcx+24], -2

; 57   :             _message = message;

  00036	48 89 51 20	 mov	 QWORD PTR [rcx+32], rdx

; 58   :             _data = data;

  0003a	4c 89 41 28	 mov	 QWORD PTR [rcx+40], r8

; 115  :         {

  0003e	48 8d 05 00 00
	00 00		 lea	 rax, OFFSET FLAT:??_7ArgumentNullException@Internal@Core@Math@Palmtree@@6B@
  00045	48 89 01	 mov	 QWORD PTR [rcx], rax

; 116  :         }

  00048	48 8b c1	 mov	 rax, rcx
  0004b	48 83 c4 18	 add	 rsp, 24
  0004f	c3		 ret	 0
??0ArgumentNullException@Internal@Core@Math@Palmtree@@QEAA@PEB_W0@Z ENDP ; Palmtree::Math::Core::Internal::ArgumentNullException::ArgumentNullException
_TEXT	ENDS
;	COMDAT text$x
text$x	SEGMENT
$T1 = 0
this$ = 32
message$ = 40
param_name$ = 48
?dtor$1@?0???0ArgumentNullException@Internal@Core@Math@Palmtree@@QEAA@PEB_W0@Z@4HA PROC ; `Palmtree::Math::Core::Internal::ArgumentNullException::ArgumentNullException'::`1'::dtor$1
  00000	48 8b 8a 20 00
	00 00		 mov	 rcx, QWORD PTR this$[rdx]
  00007	e9 00 00 00 00	 jmp	 ??1exception@std@@UEAA@XZ ; std::exception::~exception
?dtor$1@?0???0ArgumentNullException@Internal@Core@Math@Palmtree@@QEAA@PEB_W0@Z@4HA ENDP ; `Palmtree::Math::Core::Internal::ArgumentNullException::ArgumentNullException'::`1'::dtor$1
text$x	ENDS
;	COMDAT text$x
text$x	SEGMENT
$T1 = 0
this$ = 32
message$ = 40
param_name$ = 48
?dtor$0@?0???0ArgumentNullException@Internal@Core@Math@Palmtree@@QEAA@PEB_W0@Z@4HA PROC ; `Palmtree::Math::Core::Internal::ArgumentNullException::ArgumentNullException'::`1'::dtor$0
  00000	48 8b 8a 20 00
	00 00		 mov	 rcx, QWORD PTR this$[rdx]
  00007	e9 00 00 00 00	 jmp	 ??1Exception@Internal@Core@Math@Palmtree@@UEAA@XZ ; Palmtree::Math::Core::Internal::Exception::~Exception
?dtor$0@?0???0ArgumentNullException@Internal@Core@Math@Palmtree@@QEAA@PEB_W0@Z@4HA ENDP ; `Palmtree::Math::Core::Internal::ArgumentNullException::ArgumentNullException'::`1'::dtor$0
text$x	ENDS
; Function compile flags: /Ogtpy
;	COMDAT text$x
text$x	SEGMENT
$T1 = 0
this$ = 32
message$ = 40
param_name$ = 48
?dtor$1@?0???0ArgumentNullException@Internal@Core@Math@Palmtree@@QEAA@PEB_W0@Z@4HA PROC ; `Palmtree::Math::Core::Internal::ArgumentNullException::ArgumentNullException'::`1'::dtor$1
  00000	48 8b 8a 20 00
	00 00		 mov	 rcx, QWORD PTR this$[rdx]
  00007	e9 00 00 00 00	 jmp	 ??1exception@std@@UEAA@XZ ; std::exception::~exception
?dtor$1@?0???0ArgumentNullException@Internal@Core@Math@Palmtree@@QEAA@PEB_W0@Z@4HA ENDP ; `Palmtree::Math::Core::Internal::ArgumentNullException::ArgumentNullException'::`1'::dtor$1
text$x	ENDS
; Function compile flags: /Ogtpy
;	COMDAT text$x
text$x	SEGMENT
$T1 = 0
this$ = 32
message$ = 40
param_name$ = 48
?dtor$0@?0???0ArgumentNullException@Internal@Core@Math@Palmtree@@QEAA@PEB_W0@Z@4HA PROC ; `Palmtree::Math::Core::Internal::ArgumentNullException::ArgumentNullException'::`1'::dtor$0
  00000	48 8b 8a 20 00
	00 00		 mov	 rcx, QWORD PTR this$[rdx]
  00007	e9 00 00 00 00	 jmp	 ??1Exception@Internal@Core@Math@Palmtree@@UEAA@XZ ; Palmtree::Math::Core::Internal::Exception::~Exception
?dtor$0@?0???0ArgumentNullException@Internal@Core@Math@Palmtree@@QEAA@PEB_W0@Z@4HA ENDP ; `Palmtree::Math::Core::Internal::ArgumentNullException::ArgumentNullException'::`1'::dtor$0
text$x	ENDS
; Function compile flags: /Ogtpy
; File z:\sources\lunor\repos\rougemeilland\palmtree.math.core.uint\palmtree.math.core.uint\pmc_exception.h
; File c:\program files (x86)\microsoft visual studio\2017\community\vc\tools\msvc\14.16.27023\include\vcruntime_exception.h
;	COMDAT ??_GException@Internal@Core@Math@Palmtree@@UEAAPEAXI@Z
_TEXT	SEGMENT
$T1 = 32
this$ = 64
__flags$ = 72
??_GException@Internal@Core@Math@Palmtree@@UEAAPEAXI@Z PROC ; Palmtree::Math::Core::Internal::Exception::`scalar deleting destructor', COMDAT
$LN12:
  00000	48 89 4c 24 08	 mov	 QWORD PTR [rsp+8], rcx
  00005	57		 push	 rdi
  00006	48 83 ec 30	 sub	 rsp, 48			; 00000030H
  0000a	48 c7 44 24 20
	fe ff ff ff	 mov	 QWORD PTR $T1[rsp], -2
  00013	48 89 5c 24 48	 mov	 QWORD PTR [rsp+72], rbx
  00018	8b da		 mov	 ebx, edx
  0001a	48 8b f9	 mov	 rdi, rcx
; File z:\sources\lunor\repos\rougemeilland\palmtree.math.core.uint\palmtree.math.core.uint\pmc_exception.h

; 70   :         {

  0001d	48 8d 05 00 00
	00 00		 lea	 rax, OFFSET FLAT:??_7Exception@Internal@Core@Math@Palmtree@@6B@
  00024	48 89 01	 mov	 QWORD PTR [rcx], rax
; File c:\program files (x86)\microsoft visual studio\2017\community\vc\tools\msvc\14.16.27023\include\vcruntime_exception.h

; 85   :     {

  00027	48 8d 05 00 00
	00 00		 lea	 rax, OFFSET FLAT:??_7exception@std@@6B@
  0002e	48 89 01	 mov	 QWORD PTR [rcx], rax

; 86   :         __std_exception_destroy(&_Data);

  00031	48 83 c1 08	 add	 rcx, 8
  00035	e8 00 00 00 00	 call	 __std_exception_destroy
  0003a	90		 npad	 1
  0003b	f6 c3 01	 test	 bl, 1
  0003e	74 0e		 je	 SHORT $LN9@scalar
  00040	ba 30 00 00 00	 mov	 edx, 48			; 00000030H
  00045	48 8b cf	 mov	 rcx, rdi
  00048	e8 00 00 00 00	 call	 ??3@YAXPEAX_K@Z		; operator delete
  0004d	90		 npad	 1
$LN9@scalar:
  0004e	48 8b c7	 mov	 rax, rdi
  00051	48 8b 5c 24 48	 mov	 rbx, QWORD PTR [rsp+72]
  00056	48 83 c4 30	 add	 rsp, 48			; 00000030H
  0005a	5f		 pop	 rdi
  0005b	c3		 ret	 0
??_GException@Internal@Core@Math@Palmtree@@UEAAPEAXI@Z ENDP ; Palmtree::Math::Core::Internal::Exception::`scalar deleting destructor'
_TEXT	ENDS
;	COMDAT text$x
text$x	SEGMENT
$T1 = 32
this$ = 64
__flags$ = 72
?dtor$0@?0???_GException@Internal@Core@Math@Palmtree@@UEAAPEAXI@Z@4HA PROC ; `Palmtree::Math::Core::Internal::Exception::`scalar deleting destructor''::`1'::dtor$0
  00000	48 8b 8a 40 00
	00 00		 mov	 rcx, QWORD PTR this$[rdx]
  00007	e9 00 00 00 00	 jmp	 ??1exception@std@@UEAA@XZ ; std::exception::~exception
?dtor$0@?0???_GException@Internal@Core@Math@Palmtree@@UEAAPEAXI@Z@4HA ENDP ; `Palmtree::Math::Core::Internal::Exception::`scalar deleting destructor''::`1'::dtor$0
text$x	ENDS
; Function compile flags: /Ogtpy
;	COMDAT text$x
text$x	SEGMENT
$T1 = 32
this$ = 64
__flags$ = 72
?dtor$0@?0???_GException@Internal@Core@Math@Palmtree@@UEAAPEAXI@Z@4HA PROC ; `Palmtree::Math::Core::Internal::Exception::`scalar deleting destructor''::`1'::dtor$0
  00000	48 8b 8a 40 00
	00 00		 mov	 rcx, QWORD PTR this$[rdx]
  00007	e9 00 00 00 00	 jmp	 ??1exception@std@@UEAA@XZ ; std::exception::~exception
?dtor$0@?0???_GException@Internal@Core@Math@Palmtree@@UEAAPEAXI@Z@4HA ENDP ; `Palmtree::Math::Core::Internal::Exception::`scalar deleting destructor''::`1'::dtor$0
text$x	ENDS
; Function compile flags: /Ogtpy
; File z:\sources\lunor\repos\rougemeilland\palmtree.math.core.uint\palmtree.math.core.uint\pmc_exception.h
; File c:\program files (x86)\microsoft visual studio\2017\community\vc\tools\msvc\14.16.27023\include\vcruntime_exception.h
; File z:\sources\lunor\repos\rougemeilland\palmtree.math.core.uint\palmtree.math.core.uint\pmc_exception.h
;	COMDAT ??1Exception@Internal@Core@Math@Palmtree@@UEAA@XZ
_TEXT	SEGMENT
$T1 = 32
this$ = 64
??1Exception@Internal@Core@Math@Palmtree@@UEAA@XZ PROC	; Palmtree::Math::Core::Internal::Exception::~Exception, COMDAT

; 70   :         {

$LN8:
  00000	48 89 4c 24 08	 mov	 QWORD PTR [rsp+8], rcx
  00005	48 83 ec 38	 sub	 rsp, 56			; 00000038H
  00009	48 c7 44 24 20
	fe ff ff ff	 mov	 QWORD PTR $T1[rsp], -2
  00012	48 8d 05 00 00
	00 00		 lea	 rax, OFFSET FLAT:??_7Exception@Internal@Core@Math@Palmtree@@6B@
  00019	48 89 01	 mov	 QWORD PTR [rcx], rax
; File c:\program files (x86)\microsoft visual studio\2017\community\vc\tools\msvc\14.16.27023\include\vcruntime_exception.h

; 85   :     {

  0001c	48 8d 05 00 00
	00 00		 lea	 rax, OFFSET FLAT:??_7exception@std@@6B@
  00023	48 89 01	 mov	 QWORD PTR [rcx], rax

; 86   :         __std_exception_destroy(&_Data);

  00026	48 83 c1 08	 add	 rcx, 8
  0002a	e8 00 00 00 00	 call	 __std_exception_destroy
  0002f	90		 npad	 1
; File z:\sources\lunor\repos\rougemeilland\palmtree.math.core.uint\palmtree.math.core.uint\pmc_exception.h

; 71   :         }

  00030	48 83 c4 38	 add	 rsp, 56			; 00000038H
  00034	c3		 ret	 0
??1Exception@Internal@Core@Math@Palmtree@@UEAA@XZ ENDP	; Palmtree::Math::Core::Internal::Exception::~Exception
_TEXT	ENDS
;	COMDAT text$x
text$x	SEGMENT
$T1 = 32
this$ = 64
?dtor$0@?0???1Exception@Internal@Core@Math@Palmtree@@UEAA@XZ@4HA PROC ; `Palmtree::Math::Core::Internal::Exception::~Exception'::`1'::dtor$0
  00000	48 8b 8a 40 00
	00 00		 mov	 rcx, QWORD PTR this$[rdx]
  00007	e9 00 00 00 00	 jmp	 ??1exception@std@@UEAA@XZ ; std::exception::~exception
?dtor$0@?0???1Exception@Internal@Core@Math@Palmtree@@UEAA@XZ@4HA ENDP ; `Palmtree::Math::Core::Internal::Exception::~Exception'::`1'::dtor$0
text$x	ENDS
; Function compile flags: /Ogtpy
;	COMDAT text$x
text$x	SEGMENT
$T1 = 32
this$ = 64
?dtor$0@?0???1Exception@Internal@Core@Math@Palmtree@@UEAA@XZ@4HA PROC ; `Palmtree::Math::Core::Internal::Exception::~Exception'::`1'::dtor$0
  00000	48 8b 8a 40 00
	00 00		 mov	 rcx, QWORD PTR this$[rdx]
  00007	e9 00 00 00 00	 jmp	 ??1exception@std@@UEAA@XZ ; std::exception::~exception
?dtor$0@?0???1Exception@Internal@Core@Math@Palmtree@@UEAA@XZ@4HA ENDP ; `Palmtree::Math::Core::Internal::Exception::~Exception'::`1'::dtor$0
text$x	ENDS
; Function compile flags: /Ogtpy
; File z:\sources\lunor\repos\rougemeilland\palmtree.math.core.uint\palmtree.math.core.uint\pmc_exception.h
; File c:\program files (x86)\microsoft visual studio\2017\community\vc\tools\msvc\14.16.27023\include\vcruntime_exception.h
; File z:\sources\lunor\repos\rougemeilland\palmtree.math.core.uint\palmtree.math.core.uint\pmc_exception.h
;	COMDAT ??0Exception@Internal@Core@Math@Palmtree@@QEAA@AEBV01234@@Z
_TEXT	SEGMENT
$T1 = 0
this$ = 32
p$ = 40
??0Exception@Internal@Core@Math@Palmtree@@QEAA@AEBV01234@@Z PROC ; Palmtree::Math::Core::Internal::Exception::Exception, COMDAT

; 62   :         Exception(const Exception& p) noexcept(true)

$LN8:
  00000	48 89 4c 24 08	 mov	 QWORD PTR [rsp+8], rcx
  00005	48 83 ec 18	 sub	 rsp, 24
  00009	48 c7 04 24 fe
	ff ff ff	 mov	 QWORD PTR $T1[rsp], -2
; File c:\program files (x86)\microsoft visual studio\2017\community\vc\tools\msvc\14.16.27023\include\vcruntime_exception.h

; 50   :     {

  00011	48 8d 05 00 00
	00 00		 lea	 rax, OFFSET FLAT:??_7exception@std@@6B@
  00018	48 89 01	 mov	 QWORD PTR [rcx], rax

; 49   :         : _Data()

  0001b	33 c0		 xor	 eax, eax
  0001d	48 89 41 08	 mov	 QWORD PTR [rcx+8], rax
  00021	48 89 41 10	 mov	 QWORD PTR [rcx+16], rax
; File z:\sources\lunor\repos\rougemeilland\palmtree.math.core.uint\palmtree.math.core.uint\pmc_exception.h

; 62   :         Exception(const Exception& p) noexcept(true)

  00025	48 8d 05 00 00
	00 00		 lea	 rax, OFFSET FLAT:??_7Exception@Internal@Core@Math@Palmtree@@6B@
  0002c	48 89 01	 mov	 QWORD PTR [rcx], rax

; 63   :         {
; 64   :             _code = p._code;

  0002f	8b 42 18	 mov	 eax, DWORD PTR [rdx+24]
  00032	89 41 18	 mov	 DWORD PTR [rcx+24], eax

; 65   :             _message = p._message;

  00035	48 8b 42 20	 mov	 rax, QWORD PTR [rdx+32]
  00039	48 89 41 20	 mov	 QWORD PTR [rcx+32], rax

; 66   :             _data = p._data;

  0003d	48 8b 42 28	 mov	 rax, QWORD PTR [rdx+40]
  00041	48 89 41 28	 mov	 QWORD PTR [rcx+40], rax

; 67   :         }

  00045	48 8b c1	 mov	 rax, rcx
  00048	48 83 c4 18	 add	 rsp, 24
  0004c	c3		 ret	 0
??0Exception@Internal@Core@Math@Palmtree@@QEAA@AEBV01234@@Z ENDP ; Palmtree::Math::Core::Internal::Exception::Exception
_TEXT	ENDS
;	COMDAT text$x
text$x	SEGMENT
$T1 = 0
this$ = 32
p$ = 40
?dtor$0@?0???0Exception@Internal@Core@Math@Palmtree@@QEAA@AEBV01234@@Z@4HA PROC ; `Palmtree::Math::Core::Internal::Exception::Exception'::`1'::dtor$0
  00000	48 8b 8a 20 00
	00 00		 mov	 rcx, QWORD PTR this$[rdx]
  00007	e9 00 00 00 00	 jmp	 ??1exception@std@@UEAA@XZ ; std::exception::~exception
?dtor$0@?0???0Exception@Internal@Core@Math@Palmtree@@QEAA@AEBV01234@@Z@4HA ENDP ; `Palmtree::Math::Core::Internal::Exception::Exception'::`1'::dtor$0
text$x	ENDS
; Function compile flags: /Ogtpy
;	COMDAT text$x
text$x	SEGMENT
$T1 = 0
this$ = 32
p$ = 40
?dtor$0@?0???0Exception@Internal@Core@Math@Palmtree@@QEAA@AEBV01234@@Z@4HA PROC ; `Palmtree::Math::Core::Internal::Exception::Exception'::`1'::dtor$0
  00000	48 8b 8a 20 00
	00 00		 mov	 rcx, QWORD PTR this$[rdx]
  00007	e9 00 00 00 00	 jmp	 ??1exception@std@@UEAA@XZ ; std::exception::~exception
?dtor$0@?0???0Exception@Internal@Core@Math@Palmtree@@QEAA@AEBV01234@@Z@4HA ENDP ; `Palmtree::Math::Core::Internal::Exception::Exception'::`1'::dtor$0
text$x	ENDS
; Function compile flags: /Ogtpy
; File z:\sources\lunor\repos\rougemeilland\palmtree.math.core.uint\palmtree.math.core.uint\pmc_exception.h
; File c:\program files (x86)\microsoft visual studio\2017\community\vc\tools\msvc\14.16.27023\include\vcruntime_exception.h
; File z:\sources\lunor\repos\rougemeilland\palmtree.math.core.uint\palmtree.math.core.uint\pmc_exception.h
;	COMDAT ??0Exception@Internal@Core@Math@Palmtree@@IEAA@HPEB_W0@Z
_TEXT	SEGMENT
$T1 = 0
this$ = 32
code$ = 40
message$ = 48
data$ = 56
??0Exception@Internal@Core@Math@Palmtree@@IEAA@HPEB_W0@Z PROC ; Palmtree::Math::Core::Internal::Exception::Exception, COMDAT

; 54   :         Exception(PMC_STATUS_CODE code, const wchar_t* message, const wchar_t* data) noexcept(true)

$LN8:
  00000	48 89 4c 24 08	 mov	 QWORD PTR [rsp+8], rcx
  00005	48 83 ec 18	 sub	 rsp, 24
  00009	48 c7 04 24 fe
	ff ff ff	 mov	 QWORD PTR $T1[rsp], -2
; File c:\program files (x86)\microsoft visual studio\2017\community\vc\tools\msvc\14.16.27023\include\vcruntime_exception.h

; 50   :     {

  00011	48 8d 05 00 00
	00 00		 lea	 rax, OFFSET FLAT:??_7exception@std@@6B@
  00018	48 89 01	 mov	 QWORD PTR [rcx], rax

; 49   :         : _Data()

  0001b	33 c0		 xor	 eax, eax
  0001d	48 89 41 08	 mov	 QWORD PTR [rcx+8], rax
  00021	48 89 41 10	 mov	 QWORD PTR [rcx+16], rax
; File z:\sources\lunor\repos\rougemeilland\palmtree.math.core.uint\palmtree.math.core.uint\pmc_exception.h

; 54   :         Exception(PMC_STATUS_CODE code, const wchar_t* message, const wchar_t* data) noexcept(true)

  00025	48 8d 05 00 00
	00 00		 lea	 rax, OFFSET FLAT:??_7Exception@Internal@Core@Math@Palmtree@@6B@
  0002c	48 89 01	 mov	 QWORD PTR [rcx], rax

; 55   :         {
; 56   :             _code = code;

  0002f	89 51 18	 mov	 DWORD PTR [rcx+24], edx

; 57   :             _message = message;

  00032	4c 89 41 20	 mov	 QWORD PTR [rcx+32], r8

; 58   :             _data = data;

  00036	4c 89 49 28	 mov	 QWORD PTR [rcx+40], r9

; 59   :         }

  0003a	48 8b c1	 mov	 rax, rcx
  0003d	48 83 c4 18	 add	 rsp, 24
  00041	c3		 ret	 0
??0Exception@Internal@Core@Math@Palmtree@@IEAA@HPEB_W0@Z ENDP ; Palmtree::Math::Core::Internal::Exception::Exception
_TEXT	ENDS
;	COMDAT text$x
text$x	SEGMENT
$T1 = 0
this$ = 32
code$ = 40
message$ = 48
data$ = 56
?dtor$0@?0???0Exception@Internal@Core@Math@Palmtree@@IEAA@HPEB_W0@Z@4HA PROC ; `Palmtree::Math::Core::Internal::Exception::Exception'::`1'::dtor$0
  00000	48 8b 8a 20 00
	00 00		 mov	 rcx, QWORD PTR this$[rdx]
  00007	e9 00 00 00 00	 jmp	 ??1exception@std@@UEAA@XZ ; std::exception::~exception
?dtor$0@?0???0Exception@Internal@Core@Math@Palmtree@@IEAA@HPEB_W0@Z@4HA ENDP ; `Palmtree::Math::Core::Internal::Exception::Exception'::`1'::dtor$0
text$x	ENDS
; Function compile flags: /Ogtpy
;	COMDAT text$x
text$x	SEGMENT
$T1 = 0
this$ = 32
code$ = 40
message$ = 48
data$ = 56
?dtor$0@?0???0Exception@Internal@Core@Math@Palmtree@@IEAA@HPEB_W0@Z@4HA PROC ; `Palmtree::Math::Core::Internal::Exception::Exception'::`1'::dtor$0
  00000	48 8b 8a 20 00
	00 00		 mov	 rcx, QWORD PTR this$[rdx]
  00007	e9 00 00 00 00	 jmp	 ??1exception@std@@UEAA@XZ ; std::exception::~exception
?dtor$0@?0???0Exception@Internal@Core@Math@Palmtree@@IEAA@HPEB_W0@Z@4HA ENDP ; `Palmtree::Math::Core::Internal::Exception::Exception'::`1'::dtor$0
text$x	ENDS
; Function compile flags: /Ogtpy
; File c:\program files (x86)\microsoft visual studio\2017\community\vc\tools\msvc\14.16.27023\include\vcruntime_exception.h
;	COMDAT ??_Gexception@std@@UEAAPEAXI@Z
_TEXT	SEGMENT
$T1 = 32
this$ = 64
__flags$ = 72
??_Gexception@std@@UEAAPEAXI@Z PROC			; std::exception::`scalar deleting destructor', COMDAT
$LN9:
  00000	40 57		 push	 rdi
  00002	48 83 ec 30	 sub	 rsp, 48			; 00000030H
  00006	48 c7 44 24 20
	fe ff ff ff	 mov	 QWORD PTR $T1[rsp], -2
  0000f	48 89 5c 24 40	 mov	 QWORD PTR [rsp+64], rbx
  00014	8b da		 mov	 ebx, edx
  00016	48 8b f9	 mov	 rdi, rcx

; 85   :     {

  00019	48 8d 05 00 00
	00 00		 lea	 rax, OFFSET FLAT:??_7exception@std@@6B@
  00020	48 89 01	 mov	 QWORD PTR [rcx], rax

; 86   :         __std_exception_destroy(&_Data);

  00023	48 83 c1 08	 add	 rcx, 8
  00027	e8 00 00 00 00	 call	 __std_exception_destroy
  0002c	90		 npad	 1
  0002d	f6 c3 01	 test	 bl, 1
  00030	74 0e		 je	 SHORT $LN6@scalar
  00032	ba 18 00 00 00	 mov	 edx, 24
  00037	48 8b cf	 mov	 rcx, rdi
  0003a	e8 00 00 00 00	 call	 ??3@YAXPEAX_K@Z		; operator delete
  0003f	90		 npad	 1
$LN6@scalar:
  00040	48 8b c7	 mov	 rax, rdi
  00043	48 8b 5c 24 40	 mov	 rbx, QWORD PTR [rsp+64]
  00048	48 83 c4 30	 add	 rsp, 48			; 00000030H
  0004c	5f		 pop	 rdi
  0004d	c3		 ret	 0
??_Gexception@std@@UEAAPEAXI@Z ENDP			; std::exception::`scalar deleting destructor'
_TEXT	ENDS
; Function compile flags: /Ogtpy
; File c:\program files (x86)\microsoft visual studio\2017\community\vc\tools\msvc\14.16.27023\include\vcruntime_exception.h
;	COMDAT ?what@exception@std@@UEBAPEBDXZ
_TEXT	SEGMENT
this$ = 8
?what@exception@std@@UEBAPEBDXZ PROC			; std::exception::what, COMDAT

; 91   :         return _Data._What ? _Data._What : "Unknown exception";

  00000	48 8b 51 08	 mov	 rdx, QWORD PTR [rcx+8]
  00004	48 8d 05 00 00
	00 00		 lea	 rax, OFFSET FLAT:??_C@_0BC@EOODALEL@Unknown?5exception@
  0000b	48 85 d2	 test	 rdx, rdx
  0000e	48 0f 45 c2	 cmovne	 rax, rdx

; 92   :     }

  00012	c3		 ret	 0
?what@exception@std@@UEBAPEBDXZ ENDP			; std::exception::what
_TEXT	ENDS
; Function compile flags: /Ogtpy
; File c:\program files (x86)\microsoft visual studio\2017\community\vc\tools\msvc\14.16.27023\include\vcruntime_exception.h
;	COMDAT ??1exception@std@@UEAA@XZ
_TEXT	SEGMENT
$T1 = 32
this$ = 64
??1exception@std@@UEAA@XZ PROC				; std::exception::~exception, COMDAT

; 85   :     {

$LN5:
  00000	48 83 ec 38	 sub	 rsp, 56			; 00000038H
  00004	48 c7 44 24 20
	fe ff ff ff	 mov	 QWORD PTR $T1[rsp], -2
  0000d	48 8d 05 00 00
	00 00		 lea	 rax, OFFSET FLAT:??_7exception@std@@6B@
  00014	48 89 01	 mov	 QWORD PTR [rcx], rax

; 86   :         __std_exception_destroy(&_Data);

  00017	48 83 c1 08	 add	 rcx, 8
  0001b	e8 00 00 00 00	 call	 __std_exception_destroy
  00020	90		 npad	 1

; 87   :     }

  00021	48 83 c4 38	 add	 rsp, 56			; 00000038H
  00025	c3		 ret	 0
??1exception@std@@UEAA@XZ ENDP				; std::exception::~exception
_TEXT	ENDS
; Function compile flags: /Ogtpy
; File c:\program files (x86)\microsoft visual studio\2017\community\vc\tools\msvc\14.16.27023\include\vcruntime_exception.h
;	COMDAT ??0exception@std@@QEAA@XZ
_TEXT	SEGMENT
this$ = 8
??0exception@std@@QEAA@XZ PROC				; std::exception::exception, COMDAT

; 50   :     {

  00000	48 8d 05 00 00
	00 00		 lea	 rax, OFFSET FLAT:??_7exception@std@@6B@
  00007	48 89 01	 mov	 QWORD PTR [rcx], rax
  0000a	33 c0		 xor	 eax, eax
  0000c	48 89 41 08	 mov	 QWORD PTR [rcx+8], rax
  00010	48 89 41 10	 mov	 QWORD PTR [rcx+16], rax

; 51   :     }

  00014	48 8b c1	 mov	 rax, rcx
  00017	c3		 ret	 0
??0exception@std@@QEAA@XZ ENDP				; std::exception::exception
_TEXT	ENDS
END
