; Listing generated by Microsoft (R) Optimizing Compiler Version 19.16.27027.1 

	TITLE	Z:\Sources\Lunor\Repos\rougemeilland\Palmtree.Math.Core.Uint\Palmtree.Math.Core.Uint\dllmain.cpp
	.686P
	.XMM
	include listing.inc
	.model	flat

INCLUDELIB MSVCRT
INCLUDELIB OLDNAMES

PUBLIC	_DllMain@12
EXTRN	?AllocateHeapArea@Internal@Core@Math@Palmtree@@YAHXZ:PROC ; Palmtree::Math::Core::Internal::AllocateHeapArea
EXTRN	?DeallocateHeapArea@Internal@Core@Math@Palmtree@@YAXXZ:PROC ; Palmtree::Math::Core::Internal::DeallocateHeapArea
; Function compile flags: /Ogtp
; File z:\sources\lunor\repos\rougemeilland\palmtree.math.core.uint\palmtree.math.core.uint\dllmain.cpp
;	COMDAT _DllMain@12
_TEXT	SEGMENT
_hinstDLL$ = 8						; size = 4
_dwReason$ = 12						; size = 4
_lpvReserved$ = 16					; size = 4
_DllMain@12 PROC					; COMDAT

; 39   :         {

  00000	55		 push	 ebp
  00001	8b ec		 mov	 ebp, esp

; 40   :             BOOL result = TRUE;
; 41   :             switch (dwReason)

  00003	8b 45 0c	 mov	 eax, DWORD PTR _dwReason$[ebp]
  00006	56		 push	 esi
  00007	be 01 00 00 00	 mov	 esi, 1
  0000c	83 f8 03	 cmp	 eax, 3
  0000f	77 10		 ja	 SHORT $LN9@DllMain
  00011	ff 24 85 00 00
	00 00		 jmp	 DWORD PTR $LN12@DllMain[eax*4]
$LN4@DllMain:

; 42   :             {
; 43   :             case DLL_PROCESS_ATTACH: // DLLがプロセスのアドレス空間にマッピングされた。
; 44   :                 if (!AllocateHeapArea())

  00018	e8 00 00 00 00	 call	 ?AllocateHeapArea@Internal@Core@Math@Palmtree@@YAHXZ ; Palmtree::Math::Core::Internal::AllocateHeapArea
  0001d	85 c0		 test	 eax, eax
  0001f	75 02		 jne	 SHORT $LN2@DllMain
$LN9@DllMain:

; 56   :                 break;
; 57   :             default:
; 58   :                 result = FALSE;
; 59   :                 break;
; 60   :             }
; 61   :             return (result);

  00021	33 f6		 xor	 esi, esi
$LN2@DllMain:
  00023	8b c6		 mov	 eax, esi
  00025	5e		 pop	 esi

; 62   :         }

  00026	5d		 pop	 ebp
  00027	c2 0c 00	 ret	 12			; 0000000cH
$LN8@DllMain:

; 45   :                     result = FALSE;
; 46   :                 break;
; 47   : 
; 48   :             case DLL_THREAD_ATTACH: // スレッドが作成されようとしている。
; 49   :                 break;
; 50   : 
; 51   :             case DLL_THREAD_DETACH: // スレッドが破棄されようとしている。
; 52   :                 break;
; 53   : 
; 54   :             case DLL_PROCESS_DETACH: // DLLのマッピングが解除されようとしている。
; 55   :                 DeallocateHeapArea();

  0002a	e8 00 00 00 00	 call	 ?DeallocateHeapArea@Internal@Core@Math@Palmtree@@YAXXZ ; Palmtree::Math::Core::Internal::DeallocateHeapArea

; 56   :                 break;
; 57   :             default:
; 58   :                 result = FALSE;
; 59   :                 break;
; 60   :             }
; 61   :             return (result);

  0002f	8b c6		 mov	 eax, esi
  00031	5e		 pop	 esi

; 62   :         }

  00032	5d		 pop	 ebp
  00033	c2 0c 00	 ret	 12			; 0000000cH
  00036	66 90		 npad	 2
$LN12@DllMain:
  00038	00 00 00 00	 DD	 $LN8@DllMain
  0003c	00 00 00 00	 DD	 $LN4@DllMain
  00040	00 00 00 00	 DD	 $LN2@DllMain
  00044	00 00 00 00	 DD	 $LN2@DllMain
_DllMain@12 ENDP
_TEXT	ENDS
END
