; Listing generated by Microsoft (R) Optimizing Compiler Version 19.16.27026.1 

	TITLE	Z:\Sources\Lunor\Repos\rougemeilland\Palmtree.Math.Core.Uint\Palmtree.Math.Core.Uint\memory.c
	.686P
	.XMM
	include listing.inc
	.model	flat

INCLUDELIB MSVCRT
INCLUDELIB OLDNAMES

_DATA	SEGMENT
COMM	_number_zero:BYTE:024H
COMM	_number_one:BYTE:024H
COMM	_hLocalHeap:DWORD
_DATA	ENDS
PUBLIC	_AllocateHeapArea
PUBLIC	_DeallocateHeapArea
PUBLIC	_AllocateBlock
PUBLIC	_DeallocateBlock
PUBLIC	_CheckBlockLight
PUBLIC	_AttatchNumber
PUBLIC	_AllocateNumber
PUBLIC	_DetatchNumber
PUBLIC	_DeallocateNumber
PUBLIC	_CommitNumber
PUBLIC	_CheckNumber
PUBLIC	_DuplicateNumber
PUBLIC	_Initialize_Memory
PUBLIC	_PMC_Dispose@4
EXTRN	__imp__HeapCreate@12:PROC
EXTRN	__imp__HeapDestroy@4:PROC
EXTRN	__imp__HeapAlloc@12:PROC
EXTRN	__imp__HeapFree@12:PROC
; Function compile flags: /Ogtp
; File z:\sources\lunor\repos\rougemeilland\palmtree.math.core.uint\palmtree.math.core.uint\memory.c
; File z:\sources\lunor\repos\rougemeilland\palmtree.math.core.uint\palmtree.math.core.uint\pmc_inline_func.h
; File z:\sources\lunor\repos\rougemeilland\palmtree.math.core.uint\palmtree.math.core.uint\memory.c
;	COMDAT _GetTrailingZeroBitCount
_TEXT	SEGMENT
_p$ = 8							; size = 4
_word_count$ = 12					; size = 4
_GetTrailingZeroBitCount PROC				; COMDAT

; 456  : {

	push	ebp
	mov	ebp, esp

; 457  :     __UNIT_TYPE bit_count = 0;
; 458  :     while (word_count > 0)

	mov	eax, DWORD PTR _word_count$[ebp]
	xor	edx, edx
	push	esi
	test	eax, eax
	je	SHORT $LN3@GetTrailin
	mov	ecx, DWORD PTR _p$[ebp]
$LL2@GetTrailin:

; 459  :     {
; 460  :         --word_count;
; 461  :         if (*p != 0)

	mov	esi, DWORD PTR [ecx]
	dec	eax
	test	esi, esi
	jne	SHORT $LN10@GetTrailin

; 463  :         bit_count += __UNIT_TYPE_BIT_COUNT;

	add	edx, 32					; 00000020H

; 464  :         ++p;

	add	ecx, 4
	test	eax, eax
	jne	SHORT $LL2@GetTrailin
$LN3@GetTrailin:

; 465  :     }
; 466  :     // このルートには到達しないはず
; 467  :     return (0);

	xor	eax, eax
	pop	esi

; 468  : }

	pop	ebp
	ret	0
$LN10@GetTrailin:
; File z:\sources\lunor\repos\rougemeilland\palmtree.math.core.uint\palmtree.math.core.uint\pmc_inline_func.h

; 708  :         _BitScanForward(&pos, x);

	bsf	eax, esi
	pop	esi
; File z:\sources\lunor\repos\rougemeilland\palmtree.math.core.uint\palmtree.math.core.uint\memory.c

; 462  :             return (bit_count + _TZCNT_ALT_UNIT(*p));

	add	eax, edx

; 468  : }

	pop	ebp
	ret	0
_GetTrailingZeroBitCount ENDP
_TEXT	ENDS
; Function compile flags: /Ogtp
; File z:\sources\lunor\repos\rougemeilland\palmtree.math.core.uint\palmtree.math.core.uint\memory.c
; File z:\sources\lunor\repos\rougemeilland\palmtree.math.core.uint\palmtree.math.core.uint\pmc_inline_func.h
; File z:\sources\lunor\repos\rougemeilland\palmtree.math.core.uint\palmtree.math.core.uint\memory.c
; File z:\sources\lunor\repos\rougemeilland\palmtree.math.core.uint\palmtree.math.core.uint\pmc_inline_func.h
; File z:\sources\lunor\repos\rougemeilland\palmtree.math.core.uint\palmtree.math.core.uint\memory.c
; File z:\sources\lunor\repos\rougemeilland\palmtree.math.core.uint\palmtree.math.core.uint\pmc_inline_func.h
; File z:\sources\lunor\repos\rougemeilland\palmtree.math.core.uint\palmtree.math.core.uint\memory.c
;	COMDAT _GetEffectiveBitLength
_TEXT	SEGMENT
_p$ = 8							; size = 4
_word_count$ = 12					; size = 4
_effective_word_count$ = 16				; size = 4
_GetEffectiveBitLength PROC				; COMDAT

; 434  : {

	push	ebp
	mov	ebp, esp

; 435  :     if (p == NULL)

	mov	eax, DWORD PTR _p$[ebp]
	test	eax, eax
	je	SHORT $LN3@GetEffecti

; 436  :     {
; 437  :         *effective_word_count = 0;
; 438  :         return (0);
; 439  :     }
; 440  :     p += word_count;

	mov	edx, DWORD PTR _word_count$[ebp]
	lea	ecx, DWORD PTR [eax+edx*4]

; 441  :     while (word_count != 0)

	test	edx, edx
	je	SHORT $LN3@GetEffecti
$LL2@GetEffecti:

; 442  :     {
; 443  :         --p;
; 444  :         if (*p != 0)

	cmp	DWORD PTR [ecx-4], 0
	lea	ecx, DWORD PTR [ecx-4]
	jne	SHORT $LN11@GetEffecti

; 448  :         }
; 449  :         --word_count;

	sub	edx, 1
	jne	SHORT $LL2@GetEffecti
$LN3@GetEffecti:

; 450  :     }
; 451  :     *effective_word_count = 0;

	mov	eax, DWORD PTR _effective_word_count$[ebp]
	mov	DWORD PTR [eax], 0

; 452  :     return (0);

	xor	eax, eax

; 453  : }

	pop	ebp
	ret	0
$LN11@GetEffecti:

; 445  :         {
; 446  :             *effective_word_count = word_count;

	mov	eax, DWORD PTR _effective_word_count$[ebp]
	mov	DWORD PTR [eax], edx

; 447  :             return (word_count * __UNIT_TYPE_BIT_COUNT - _LZCNT_ALT_UNIT(*p));

	mov	eax, DWORD PTR [ecx]
; File z:\sources\lunor\repos\rougemeilland\palmtree.math.core.uint\palmtree.math.core.uint\pmc_inline_func.h

; 623  :         if (x == 0)

	test	eax, eax
	jne	SHORT $LN8@GetEffecti

; 624  :             return (sizeof(x) * 8);

	mov	eax, 32					; 00000020H
; File z:\sources\lunor\repos\rougemeilland\palmtree.math.core.uint\palmtree.math.core.uint\memory.c

; 447  :             return (word_count * __UNIT_TYPE_BIT_COUNT - _LZCNT_ALT_UNIT(*p));

	shl	edx, 5
	sub	edx, eax
	mov	eax, edx

; 453  : }

	pop	ebp
	ret	0
$LN8@GetEffecti:
; File z:\sources\lunor\repos\rougemeilland\palmtree.math.core.uint\palmtree.math.core.uint\pmc_inline_func.h

; 628  :         _BitScanReverse(&pos, x);

	bsr	ecx, eax

; 647  :         return (sizeof(x) * 8 - 1 - pos);

	mov	eax, 31					; 0000001fH
; File z:\sources\lunor\repos\rougemeilland\palmtree.math.core.uint\palmtree.math.core.uint\memory.c

; 447  :             return (word_count * __UNIT_TYPE_BIT_COUNT - _LZCNT_ALT_UNIT(*p));

	shl	edx, 5
; File z:\sources\lunor\repos\rougemeilland\palmtree.math.core.uint\palmtree.math.core.uint\pmc_inline_func.h

; 647  :         return (sizeof(x) * 8 - 1 - pos);

	sub	eax, ecx
; File z:\sources\lunor\repos\rougemeilland\palmtree.math.core.uint\palmtree.math.core.uint\memory.c

; 447  :             return (word_count * __UNIT_TYPE_BIT_COUNT - _LZCNT_ALT_UNIT(*p));

	sub	edx, eax
	mov	eax, edx

; 453  : }

	pop	ebp
	ret	0
_GetEffectiveBitLength ENDP
_TEXT	ENDS
; Function compile flags: /Ogtp
; File z:\sources\lunor\repos\rougemeilland\palmtree.math.core.uint\palmtree.math.core.uint\memory.c
; File z:\sources\lunor\repos\rougemeilland\palmtree.math.core.uint\palmtree.math.core.uint\pmc_inline_func.h
; File z:\sources\lunor\repos\rougemeilland\palmtree.math.core.uint\palmtree.math.core.uint\memory.c
; File z:\sources\lunor\repos\rougemeilland\palmtree.math.core.uint\palmtree.math.core.uint\pmc_inline_func.h
; File z:\sources\lunor\repos\rougemeilland\palmtree.math.core.uint\palmtree.math.core.uint\memory.c
;	COMDAT _CleanUpNumber
_TEXT	SEGMENT
_p$ = 8							; size = 4
_CleanUpNumber PROC					; COMDAT

; 387  : {

	push	ebp
	mov	ebp, esp
	push	esi

; 388  :     if (p->BLOCK != NULL)

	mov	esi, DWORD PTR _p$[ebp]
	mov	eax, DWORD PTR [esi+32]
	test	eax, eax
	je	SHORT $LN2@CleanUpNum

; 389  :     {
; 390  :         DeallocateBlock(p->BLOCK, p->BLOCK_COUNT);

	mov	ecx, DWORD PTR [esi+28]

; 201  :         __UNIT_TYPE* p = buffer - 1;

	lea	edx, DWORD PTR [eax-4]

; 202  :         if (*p != buffer_words)

	cmp	DWORD PTR [edx], ecx
	jne	SHORT $LN7@CleanUpNum

; 203  :         {
; 204  :             // もし、buffer の指す内容が壊れていることが明らかならば、二重解放の恐れがあるので解放処理はしない。
; 205  :         }
; 206  :         else
; 207  :         {
; 208  :             // 使用済みのバッファを既定のデータで塗りつぶす。
; 209  :             _FILL_MEMORY_UNIT(p, DEFAULT_MEMORY_DATA, buffer_words + 2);

	push	edi

; 211  :             HeapFree(hLocalHeap, 0, p);

	push	edx
	add	ecx, 2
; File z:\sources\lunor\repos\rougemeilland\palmtree.math.core.uint\palmtree.math.core.uint\pmc_inline_func.h

; 161  :         __stosd((unsigned long*)d, x, (unsigned long)count);

	mov	edi, edx
	mov	eax, -858993460				; ccccccccH
; File z:\sources\lunor\repos\rougemeilland\palmtree.math.core.uint\palmtree.math.core.uint\memory.c

; 211  :             HeapFree(hLocalHeap, 0, p);

	push	0
; File z:\sources\lunor\repos\rougemeilland\palmtree.math.core.uint\palmtree.math.core.uint\pmc_inline_func.h

; 161  :         __stosd((unsigned long*)d, x, (unsigned long)count);

	rep stosd
; File z:\sources\lunor\repos\rougemeilland\palmtree.math.core.uint\palmtree.math.core.uint\memory.c

; 211  :             HeapFree(hLocalHeap, 0, p);

	push	DWORD PTR _hLocalHeap
	call	DWORD PTR __imp__HeapFree@12
	pop	edi
$LN7@CleanUpNum:

; 391  :         p->BLOCK = NULL;

	mov	DWORD PTR [esi+32], 0
$LN2@CleanUpNum:
	pop	esi

; 392  :     }
; 393  : }

	pop	ebp
	ret	0
_CleanUpNumber ENDP
_TEXT	ENDS
; Function compile flags: /Ogtp
; File z:\sources\lunor\repos\rougemeilland\palmtree.math.core.uint\palmtree.math.core.uint\memory.c
; File z:\sources\lunor\repos\rougemeilland\palmtree.math.core.uint\palmtree.math.core.uint\pmc_inline_func.h
; File z:\sources\lunor\repos\rougemeilland\palmtree.math.core.uint\palmtree.math.core.uint\memory.c
;	COMDAT _InitializeNumber
_TEXT	SEGMENT
_p$ = 8							; size = 4
_bit_count$ = 12					; size = 4
_light_check_code$ = 16					; size = 4
_InitializeNumber PROC					; COMDAT

; 359  : {

	push	ebp
	mov	ebp, esp
	push	esi
	push	edi

; 360  :     if (bit_count > 0)

	mov	edi, DWORD PTR _bit_count$[ebp]
	test	edi, edi
	je	SHORT $LN2@Initialize
; File z:\sources\lunor\repos\rougemeilland\palmtree.math.core.uint\palmtree.math.core.uint\pmc_inline_func.h

; 187  :         return ((u + v - 1) / v);

	lea	esi, DWORD PTR [edi+31]
	shr	esi, 5
; File z:\sources\lunor\repos\rougemeilland\palmtree.math.core.uint\palmtree.math.core.uint\memory.c

; 163  : 	__UNIT_TYPE bytes = words2 * __UNIT_TYPE_BYTE_COUNT;

	lea	eax, DWORD PTR [esi*4+8]

; 164  : 	__UNIT_TYPE* buffer = (__UNIT_TYPE*)HeapAlloc(hLocalHeap, HEAP_ZERO_MEMORY, bytes);

	push	eax
	push	8
	push	DWORD PTR _hLocalHeap
	call	DWORD PTR __imp__HeapAlloc@12

; 165  : 	if (buffer == NULL)

	test	eax, eax
	je	SHORT $LN40@Initialize

; 166  : 		return (NULL);
; 167  : 	buffer[0] = words1;
; 168  :     *allocated_block_words = words1;
; 169  : #ifdef _DEBUG
; 170  :     // 乱数もどきを生成する。
; 171  : #ifdef _M_IX86
; 172  :     __UNIT_TYPE r = GetTickCount();
; 173  : #elif defined(_M_IX64)
; 174  : #ifdef _MSC_VER
; 175  :     __UNIT_TYPE r = GetTickCount64();
; 176  : #elif defined(__GNUC__)
; 177  :     _UINT32_T temp = GetTickCount();
; 178  :     __UNIT_TYPE r = _FROMWORDTODWORD(temp, temp);
; 179  : #else
; 180  : #error unknown compiler
; 181  : #endif
; 182  : #else
; 183  : #error unknown platform
; 184  : #endif
; 185  :     __UNIT_TYPE check_code = configuration_info.MEMORY_VERIFICATION_ENABLED ? CalculateCheckCode(&buffer[1], words1) : CHECK_CODE_INIT | r;
; 186  : #else
; 187  :     __UNIT_TYPE check_code = 0;
; 188  : #endif
; 189  :     buffer[words1 + 1] = check_code ^ (__UNIT_TYPE)&buffer[words1 + 1];

	lea	ecx, DWORD PTR [esi+1]
	mov	DWORD PTR [eax], esi
	lea	ecx, DWORD PTR [eax+ecx*4]
	mov	DWORD PTR [ecx], ecx

; 190  :     if (code != NULL)

	mov	ecx, DWORD PTR _light_check_code$[ebp]
	test	ecx, ecx
	je	SHORT $LN8@Initialize

; 191  :         *code = check_code;

	mov	DWORD PTR [ecx], 0
$LN8@Initialize:

; 192  :     return (&buffer[1]);

	lea	ecx, DWORD PTR [eax+4]

; 361  :     {
; 362  :         __UNIT_TYPE word_count;
; 363  :         __UNIT_TYPE* block = AllocateBlock(bit_count, &word_count, light_check_code);
; 364  :         if (block == NULL)

	test	ecx, ecx
	jne	SHORT $LN3@Initialize
$LN40@Initialize:
	pop	edi

; 365  :             return (PMC_STATUS_NOT_ENOUGH_MEMORY);

	mov	eax, -5					; fffffffbH

; 384  : }

	pop	esi
	pop	ebp
	ret	0
$LN2@Initialize:

; 366  :         ClearNumberHeader(p);
; 367  :         p->SIGNATURE1 = PMC_SIGNATURE;
; 368  :         p->SIGNATURE2 = PMC_UINT_SIGNATURE;
; 369  :         p->UNIT_BIT_COUNT = bit_count;
; 370  :         p->BLOCK_COUNT = word_count;
; 371  :         p->BLOCK = block;
; 372  :     }
; 373  :     else
; 374  :     {
; 375  :         // bit_count に 0 が与えられるのは、数値が 0 の場合。
; 376  :         ClearNumberHeader(p);
; 377  :         p->SIGNATURE1 = PMC_SIGNATURE;
; 378  :         p->SIGNATURE2 = PMC_UINT_SIGNATURE;
; 379  :         p->UNIT_BIT_COUNT = 0;
; 380  :         p->BLOCK_COUNT = 0;
; 381  :         p->BLOCK = NULL;

	xor	ecx, ecx
	xor	esi, esi
	xor	edi, edi
$LN3@Initialize:

; 382  :     }
; 383  :     return (PMC_STATUS_OK);

	mov	eax, DWORD PTR _p$[ebp]
	mov	DWORD PTR [eax+8], 0
	mov	DWORD PTR [eax+16], 0
	mov	DWORD PTR [eax+20], 0
	mov	DWORD PTR [eax+24], 0
	mov	DWORD PTR [eax], 1231244656		; 49634d70H
	mov	DWORD PTR [eax+4], 1416522069		; 546e6955H
	mov	DWORD PTR [eax+12], edi
	mov	DWORD PTR [eax+28], esi
	pop	edi
	mov	DWORD PTR [eax+32], ecx
	xor	eax, eax

; 384  : }

	pop	esi
	pop	ebp
	ret	0
_InitializeNumber ENDP
_TEXT	ENDS
; Function compile flags: /Ogtp
; File z:\sources\lunor\repos\rougemeilland\palmtree.math.core.uint\palmtree.math.core.uint\memory.c
;	COMDAT _FillNumberHeader
_TEXT	SEGMENT
_p$ = 8							; size = 4
_FillNumberHeader PROC					; COMDAT

; 315  : {

	push	ebp
	mov	ebp, esp

; 316  : #ifdef _M_IX64
; 317  :     if (sizeof(*p) == sizeof(_UINT64_T) * 8)
; 318  :     {
; 319  :         _UINT64_T* __p = (_UINT64_T*)p;
; 320  :         __p[0] = DEFAULT_MEMORY_DATA;
; 321  :         __p[1] = DEFAULT_MEMORY_DATA;
; 322  :         __p[2] = DEFAULT_MEMORY_DATA;
; 323  :         __p[3] = DEFAULT_MEMORY_DATA;
; 324  :         __p[4] = DEFAULT_MEMORY_DATA;
; 325  :         __p[5] = DEFAULT_MEMORY_DATA;
; 326  :         __p[6] = DEFAULT_MEMORY_DATA;
; 327  :         __p[7] = DEFAULT_MEMORY_DATA;
; 328  :     }
; 329  :     else if (sizeof(*p) % sizeof(_UINT64_T) == 0)
; 330  :         _FILL_MEMORY_64((_UINT64_T*)p, DEFAULT_MEMORY_DATA, sizeof(*p) / sizeof(_UINT64_T));
; 331  :     else
; 332  :     {
; 333  : #endif
; 334  :         if (sizeof(*p) == sizeof(_UINT32_T) * 9)
; 335  :         {
; 336  :             _UINT32_T* __p = (_UINT32_T*)p;
; 337  :             __p[0] = (_UINT32_T)DEFAULT_MEMORY_DATA;

	mov	eax, DWORD PTR _p$[ebp]
	mov	DWORD PTR [eax], -858993460		; ccccccccH

; 338  :             __p[1] = (_UINT32_T)DEFAULT_MEMORY_DATA;

	mov	DWORD PTR [eax+4], -858993460		; ccccccccH

; 339  :             __p[2] = (_UINT32_T)DEFAULT_MEMORY_DATA;

	mov	DWORD PTR [eax+8], -858993460		; ccccccccH

; 340  :             __p[3] = (_UINT32_T)DEFAULT_MEMORY_DATA;

	mov	DWORD PTR [eax+12], -858993460		; ccccccccH

; 341  :             __p[4] = (_UINT32_T)DEFAULT_MEMORY_DATA;

	mov	DWORD PTR [eax+16], -858993460		; ccccccccH

; 342  :             __p[5] = (_UINT32_T)DEFAULT_MEMORY_DATA;

	mov	DWORD PTR [eax+20], -858993460		; ccccccccH

; 343  :             __p[6] = (_UINT32_T)DEFAULT_MEMORY_DATA;

	mov	DWORD PTR [eax+24], -858993460		; ccccccccH

; 344  :             __p[7] = (_UINT32_T)DEFAULT_MEMORY_DATA;

	mov	DWORD PTR [eax+28], -858993460		; ccccccccH

; 345  :             __p[8] = (_UINT32_T)DEFAULT_MEMORY_DATA;

	mov	DWORD PTR [eax+32], -858993460		; ccccccccH

; 346  :         }
; 347  :         else if (sizeof(*p) % sizeof(_UINT32_T) == 0)
; 348  :             _FILL_MEMORY_32((_UINT32_T*)p, (_UINT32_T)DEFAULT_MEMORY_DATA, sizeof(*p) / sizeof(_UINT32_T));
; 349  :         else if (sizeof(*p) % sizeof(_UINT16_T) == 0)
; 350  :             _FILL_MEMORY_16((_UINT16_T*)p, (_UINT16_T)DEFAULT_MEMORY_DATA, sizeof(*p) / sizeof(_UINT16_T));
; 351  :         else
; 352  :             _FILL_MEMORY_BYTE(p, (unsigned char)DEFAULT_MEMORY_DATA, sizeof(*p));
; 353  : #ifdef _M_IX64
; 354  :     }
; 355  : #endif
; 356  : }

	pop	ebp
	ret	0
_FillNumberHeader ENDP
_TEXT	ENDS
; Function compile flags: /Ogtp
; File z:\sources\lunor\repos\rougemeilland\palmtree.math.core.uint\palmtree.math.core.uint\memory.c
;	COMDAT _ClearNumberHeader
_TEXT	SEGMENT
_p$ = 8							; size = 4
_ClearNumberHeader PROC					; COMDAT

; 271  : {

	push	ebp
	mov	ebp, esp

; 272  : #ifdef _M_IX64
; 273  :     if (sizeof(*p) == sizeof(_UINT64_T) * 8)
; 274  :     {
; 275  :         _UINT64_T* __p = (_UINT64_T*)p;
; 276  :         __p[0] = 0;
; 277  :         __p[1] = 0;
; 278  :         __p[2] = 0;
; 279  :         __p[3] = 0;
; 280  :         __p[4] = 0;
; 281  :         __p[5] = 0;
; 282  :         __p[6] = 0;
; 283  :         __p[7] = 0;
; 284  :     }
; 285  :     else if (sizeof(*p) % sizeof(_UINT64_T) == 0)
; 286  :         _ZERO_MEMORY_64((_UINT64_T*)p, sizeof(*p) / sizeof(_UINT64_T));
; 287  :     else
; 288  :     {
; 289  : #endif
; 290  :         if (sizeof(*p) == sizeof(_UINT32_T) * 9)
; 291  :         {
; 292  :             _UINT32_T* __p = (_UINT32_T*)p;
; 293  :             __p[0] = 0;

	mov	eax, DWORD PTR _p$[ebp]
	mov	DWORD PTR [eax], 0

; 294  :             __p[1] = 0;

	mov	DWORD PTR [eax+4], 0

; 295  :             __p[2] = 0;

	mov	DWORD PTR [eax+8], 0

; 296  :             __p[3] = 0;

	mov	DWORD PTR [eax+12], 0

; 297  :             __p[4] = 0;

	mov	DWORD PTR [eax+16], 0

; 298  :             __p[5] = 0;

	mov	DWORD PTR [eax+20], 0

; 299  :             __p[6] = 0;

	mov	DWORD PTR [eax+24], 0

; 300  :             __p[7] = 0;

	mov	DWORD PTR [eax+28], 0

; 301  :             __p[8] = 0;

	mov	DWORD PTR [eax+32], 0

; 302  :         }
; 303  :         else if (sizeof(*p) % sizeof(_UINT32_T) == 0)
; 304  :             _ZERO_MEMORY_32((_UINT32_T*)p, sizeof(*p) / sizeof(_UINT32_T));
; 305  :         else if (sizeof(*p) % sizeof(_UINT16_T) == 0)
; 306  :             _ZERO_MEMORY_16((_UINT16_T*)p, sizeof(*p) / sizeof(_UINT16_T));
; 307  :         else
; 308  :             _ZERO_MEMORY_BYTE(p, sizeof(*p));
; 309  : #ifdef _M_IX64
; 310  :     }
; 311  : #endif
; 312  : }

	pop	ebp
	ret	0
_ClearNumberHeader ENDP
_TEXT	ENDS
; Function compile flags: /Ogtp
; File z:\sources\lunor\repos\rougemeilland\palmtree.math.core.uint\palmtree.math.core.uint\memory.c
;	COMDAT _CheckBlock
_TEXT	SEGMENT
_buffer$ = 8						; size = 4
_CheckBlock PROC					; COMDAT

; 235  : #ifdef _DEBUG
; 236  :     if (buffer == NULL)
; 237  :         return (PMC_STATUS_OK);
; 238  :     --buffer;
; 239  :     __UNIT_TYPE words = buffer[0];
; 240  :     __UNIT_TYPE code_desired = buffer[words + 1];
; 241  :     __UNIT_TYPE code_actual = CalculateCheckCode(&buffer[1], words);
; 242  :     if (code_actual == code_desired)
; 243  :         return (PMC_STATUS_OK);
; 244  :     else
; 245  :         return (PMC_STATUS_BAD_BUFFER);
; 246  : #else
; 247  :     return (PMC_STATUS_OK);

	xor	eax, eax

; 248  : #endif
; 249  : }

	ret	0
_CheckBlock ENDP
_TEXT	ENDS
; Function compile flags: /Ogtp
; File z:\sources\lunor\repos\rougemeilland\palmtree.math.core.uint\palmtree.math.core.uint\memory.c
;	COMDAT _CommitBlock
_TEXT	SEGMENT
_buffer$ = 8						; size = 4
_CommitBlock PROC					; COMDAT

; 218  : {

	push	ebp
	mov	ebp, esp

; 219  :     if (buffer != NULL)

	mov	ecx, DWORD PTR _buffer$[ebp]
	test	ecx, ecx
	je	SHORT $LN2@CommitBloc

; 220  :     {
; 221  :         --buffer;
; 222  :         __UNIT_TYPE words = buffer[0];
; 223  : #ifdef _DEBUG
; 224  :         __UNIT_TYPE code = CalculateCheckCode(&buffer[1], words);
; 225  : #else
; 226  :         __UNIT_TYPE code = 0;
; 227  : #endif
; 228  :         buffer[words + 1] = code;

	mov	eax, DWORD PTR [ecx-4]
	mov	DWORD PTR [ecx+eax*4], 0
$LN2@CommitBloc:

; 229  :     }
; 230  : }

	pop	ebp
	ret	0
_CommitBlock ENDP
_TEXT	ENDS
; Function compile flags: /Ogtp
; File z:\sources\lunor\repos\rougemeilland\palmtree.math.core.uint\palmtree.math.core.uint\memory.c
; File z:\sources\lunor\repos\rougemeilland\palmtree.math.core.uint\palmtree.math.core.uint\pmc_inline_func.h
; File z:\sources\lunor\repos\rougemeilland\palmtree.math.core.uint\palmtree.math.core.uint\memory.c
; File z:\sources\lunor\repos\rougemeilland\palmtree.math.core.uint\palmtree.math.core.uint\pmc_inline_func.h
; File z:\sources\lunor\repos\rougemeilland\palmtree.math.core.uint\palmtree.math.core.uint\memory.c
; File z:\sources\lunor\repos\rougemeilland\palmtree.math.core.uint\palmtree.math.core.uint\pmc_inline_func.h
; File z:\sources\lunor\repos\rougemeilland\palmtree.math.core.uint\palmtree.math.core.uint\memory.c
; File z:\sources\lunor\repos\rougemeilland\palmtree.math.core.uint\palmtree.math.core.uint\pmc_inline_func.h
; File z:\sources\lunor\repos\rougemeilland\palmtree.math.core.uint\palmtree.math.core.uint\memory.c
; File z:\sources\lunor\repos\rougemeilland\palmtree.math.core.uint\palmtree.math.core.uint\pmc_inline_func.h
; File z:\sources\lunor\repos\rougemeilland\palmtree.math.core.uint\palmtree.math.core.uint\memory.c
; File z:\sources\lunor\repos\rougemeilland\palmtree.math.core.uint\palmtree.math.core.uint\pmc_inline_func.h
; File z:\sources\lunor\repos\rougemeilland\palmtree.math.core.uint\palmtree.math.core.uint\memory.c
; File z:\sources\lunor\repos\rougemeilland\palmtree.math.core.uint\palmtree.math.core.uint\pmc_inline_func.h
; File z:\sources\lunor\repos\rougemeilland\palmtree.math.core.uint\palmtree.math.core.uint\memory.c
; File z:\sources\lunor\repos\rougemeilland\palmtree.math.core.uint\palmtree.math.core.uint\pmc_inline_func.h
; File z:\sources\lunor\repos\rougemeilland\palmtree.math.core.uint\palmtree.math.core.uint\memory.c
; File z:\sources\lunor\repos\rougemeilland\palmtree.math.core.uint\palmtree.math.core.uint\pmc_inline_func.h
; File z:\sources\lunor\repos\rougemeilland\palmtree.math.core.uint\palmtree.math.core.uint\memory.c
; File z:\sources\lunor\repos\rougemeilland\palmtree.math.core.uint\palmtree.math.core.uint\pmc_inline_func.h
; File z:\sources\lunor\repos\rougemeilland\palmtree.math.core.uint\palmtree.math.core.uint\memory.c
; File z:\sources\lunor\repos\rougemeilland\palmtree.math.core.uint\palmtree.math.core.uint\pmc_inline_func.h
; File z:\sources\lunor\repos\rougemeilland\palmtree.math.core.uint\palmtree.math.core.uint\memory.c
; File z:\sources\lunor\repos\rougemeilland\palmtree.math.core.uint\palmtree.math.core.uint\pmc_inline_func.h
; File z:\sources\lunor\repos\rougemeilland\palmtree.math.core.uint\palmtree.math.core.uint\memory.c
; File z:\sources\lunor\repos\rougemeilland\palmtree.math.core.uint\palmtree.math.core.uint\pmc_inline_func.h
; File z:\sources\lunor\repos\rougemeilland\palmtree.math.core.uint\palmtree.math.core.uint\memory.c
; File z:\sources\lunor\repos\rougemeilland\palmtree.math.core.uint\palmtree.math.core.uint\pmc_inline_func.h
; File z:\sources\lunor\repos\rougemeilland\palmtree.math.core.uint\palmtree.math.core.uint\memory.c
; File z:\sources\lunor\repos\rougemeilland\palmtree.math.core.uint\palmtree.math.core.uint\pmc_inline_func.h
; File z:\sources\lunor\repos\rougemeilland\palmtree.math.core.uint\palmtree.math.core.uint\memory.c
; File z:\sources\lunor\repos\rougemeilland\palmtree.math.core.uint\palmtree.math.core.uint\pmc_inline_func.h
; File z:\sources\lunor\repos\rougemeilland\palmtree.math.core.uint\palmtree.math.core.uint\memory.c
; File z:\sources\lunor\repos\rougemeilland\palmtree.math.core.uint\palmtree.math.core.uint\pmc_inline_func.h
; File z:\sources\lunor\repos\rougemeilland\palmtree.math.core.uint\palmtree.math.core.uint\memory.c
; File z:\sources\lunor\repos\rougemeilland\palmtree.math.core.uint\palmtree.math.core.uint\pmc_inline_func.h
; File z:\sources\lunor\repos\rougemeilland\palmtree.math.core.uint\palmtree.math.core.uint\memory.c
; File z:\sources\lunor\repos\rougemeilland\palmtree.math.core.uint\palmtree.math.core.uint\pmc_inline_func.h
; File z:\sources\lunor\repos\rougemeilland\palmtree.math.core.uint\palmtree.math.core.uint\memory.c
; File z:\sources\lunor\repos\rougemeilland\palmtree.math.core.uint\palmtree.math.core.uint\pmc_inline_func.h
; File z:\sources\lunor\repos\rougemeilland\palmtree.math.core.uint\palmtree.math.core.uint\memory.c
; File z:\sources\lunor\repos\rougemeilland\palmtree.math.core.uint\palmtree.math.core.uint\pmc_inline_func.h
; File z:\sources\lunor\repos\rougemeilland\palmtree.math.core.uint\palmtree.math.core.uint\memory.c
; File z:\sources\lunor\repos\rougemeilland\palmtree.math.core.uint\palmtree.math.core.uint\pmc_inline_func.h
; File z:\sources\lunor\repos\rougemeilland\palmtree.math.core.uint\palmtree.math.core.uint\memory.c
; File z:\sources\lunor\repos\rougemeilland\palmtree.math.core.uint\palmtree.math.core.uint\pmc_inline_func.h
; File z:\sources\lunor\repos\rougemeilland\palmtree.math.core.uint\palmtree.math.core.uint\memory.c
; File z:\sources\lunor\repos\rougemeilland\palmtree.math.core.uint\palmtree.math.core.uint\pmc_inline_func.h
; File z:\sources\lunor\repos\rougemeilland\palmtree.math.core.uint\palmtree.math.core.uint\memory.c
; File z:\sources\lunor\repos\rougemeilland\palmtree.math.core.uint\palmtree.math.core.uint\pmc_inline_func.h
; File z:\sources\lunor\repos\rougemeilland\palmtree.math.core.uint\palmtree.math.core.uint\memory.c
; File z:\sources\lunor\repos\rougemeilland\palmtree.math.core.uint\palmtree.math.core.uint\pmc_inline_func.h
; File z:\sources\lunor\repos\rougemeilland\palmtree.math.core.uint\palmtree.math.core.uint\memory.c
; File z:\sources\lunor\repos\rougemeilland\palmtree.math.core.uint\palmtree.math.core.uint\pmc_inline_func.h
; File z:\sources\lunor\repos\rougemeilland\palmtree.math.core.uint\palmtree.math.core.uint\memory.c
; File z:\sources\lunor\repos\rougemeilland\palmtree.math.core.uint\palmtree.math.core.uint\pmc_inline_func.h
; File z:\sources\lunor\repos\rougemeilland\palmtree.math.core.uint\palmtree.math.core.uint\memory.c
; File z:\sources\lunor\repos\rougemeilland\palmtree.math.core.uint\palmtree.math.core.uint\pmc_inline_func.h
; File z:\sources\lunor\repos\rougemeilland\palmtree.math.core.uint\palmtree.math.core.uint\memory.c
; File z:\sources\lunor\repos\rougemeilland\palmtree.math.core.uint\palmtree.math.core.uint\pmc_inline_func.h
; File z:\sources\lunor\repos\rougemeilland\palmtree.math.core.uint\palmtree.math.core.uint\memory.c
; File z:\sources\lunor\repos\rougemeilland\palmtree.math.core.uint\palmtree.math.core.uint\pmc_inline_func.h
; File z:\sources\lunor\repos\rougemeilland\palmtree.math.core.uint\palmtree.math.core.uint\memory.c
; File z:\sources\lunor\repos\rougemeilland\palmtree.math.core.uint\palmtree.math.core.uint\pmc_inline_func.h
; File z:\sources\lunor\repos\rougemeilland\palmtree.math.core.uint\palmtree.math.core.uint\memory.c
; File z:\sources\lunor\repos\rougemeilland\palmtree.math.core.uint\palmtree.math.core.uint\pmc_inline_func.h
; File z:\sources\lunor\repos\rougemeilland\palmtree.math.core.uint\palmtree.math.core.uint\memory.c
; File z:\sources\lunor\repos\rougemeilland\palmtree.math.core.uint\palmtree.math.core.uint\pmc_inline_func.h
; File z:\sources\lunor\repos\rougemeilland\palmtree.math.core.uint\palmtree.math.core.uint\memory.c
; File z:\sources\lunor\repos\rougemeilland\palmtree.math.core.uint\palmtree.math.core.uint\pmc_inline_func.h
; File z:\sources\lunor\repos\rougemeilland\palmtree.math.core.uint\palmtree.math.core.uint\memory.c
; File z:\sources\lunor\repos\rougemeilland\palmtree.math.core.uint\palmtree.math.core.uint\pmc_inline_func.h
; File z:\sources\lunor\repos\rougemeilland\palmtree.math.core.uint\palmtree.math.core.uint\memory.c
; File z:\sources\lunor\repos\rougemeilland\palmtree.math.core.uint\palmtree.math.core.uint\pmc_inline_func.h
; File z:\sources\lunor\repos\rougemeilland\palmtree.math.core.uint\palmtree.math.core.uint\memory.c
; File z:\sources\lunor\repos\rougemeilland\palmtree.math.core.uint\palmtree.math.core.uint\pmc_inline_func.h
; File z:\sources\lunor\repos\rougemeilland\palmtree.math.core.uint\palmtree.math.core.uint\memory.c
; File z:\sources\lunor\repos\rougemeilland\palmtree.math.core.uint\palmtree.math.core.uint\pmc_inline_func.h
; File z:\sources\lunor\repos\rougemeilland\palmtree.math.core.uint\palmtree.math.core.uint\memory.c
; File z:\sources\lunor\repos\rougemeilland\palmtree.math.core.uint\palmtree.math.core.uint\pmc_inline_func.h
; File z:\sources\lunor\repos\rougemeilland\palmtree.math.core.uint\palmtree.math.core.uint\memory.c
; File z:\sources\lunor\repos\rougemeilland\palmtree.math.core.uint\palmtree.math.core.uint\pmc_inline_func.h
; File z:\sources\lunor\repos\rougemeilland\palmtree.math.core.uint\palmtree.math.core.uint\memory.c
; File z:\sources\lunor\repos\rougemeilland\palmtree.math.core.uint\palmtree.math.core.uint\pmc_inline_func.h
; File z:\sources\lunor\repos\rougemeilland\palmtree.math.core.uint\palmtree.math.core.uint\memory.c
; File z:\sources\lunor\repos\rougemeilland\palmtree.math.core.uint\palmtree.math.core.uint\pmc_inline_func.h
; File z:\sources\lunor\repos\rougemeilland\palmtree.math.core.uint\palmtree.math.core.uint\memory.c
; File z:\sources\lunor\repos\rougemeilland\palmtree.math.core.uint\palmtree.math.core.uint\pmc_inline_func.h
; File z:\sources\lunor\repos\rougemeilland\palmtree.math.core.uint\palmtree.math.core.uint\memory.c
; File z:\sources\lunor\repos\rougemeilland\palmtree.math.core.uint\palmtree.math.core.uint\pmc_inline_func.h
; File z:\sources\lunor\repos\rougemeilland\palmtree.math.core.uint\palmtree.math.core.uint\memory.c
; File z:\sources\lunor\repos\rougemeilland\palmtree.math.core.uint\palmtree.math.core.uint\pmc_inline_func.h
; File z:\sources\lunor\repos\rougemeilland\palmtree.math.core.uint\palmtree.math.core.uint\memory.c
; File z:\sources\lunor\repos\rougemeilland\palmtree.math.core.uint\palmtree.math.core.uint\pmc_inline_func.h
; File z:\sources\lunor\repos\rougemeilland\palmtree.math.core.uint\palmtree.math.core.uint\memory.c
; File z:\sources\lunor\repos\rougemeilland\palmtree.math.core.uint\palmtree.math.core.uint\pmc_inline_func.h
; File z:\sources\lunor\repos\rougemeilland\palmtree.math.core.uint\palmtree.math.core.uint\memory.c
; File z:\sources\lunor\repos\rougemeilland\palmtree.math.core.uint\palmtree.math.core.uint\pmc_inline_func.h
; File z:\sources\lunor\repos\rougemeilland\palmtree.math.core.uint\palmtree.math.core.uint\memory.c
; File z:\sources\lunor\repos\rougemeilland\palmtree.math.core.uint\palmtree.math.core.uint\pmc_inline_func.h
; File z:\sources\lunor\repos\rougemeilland\palmtree.math.core.uint\palmtree.math.core.uint\memory.c
; File z:\sources\lunor\repos\rougemeilland\palmtree.math.core.uint\palmtree.math.core.uint\pmc_inline_func.h
; File z:\sources\lunor\repos\rougemeilland\palmtree.math.core.uint\palmtree.math.core.uint\memory.c
; File z:\sources\lunor\repos\rougemeilland\palmtree.math.core.uint\palmtree.math.core.uint\pmc_inline_func.h
; File z:\sources\lunor\repos\rougemeilland\palmtree.math.core.uint\palmtree.math.core.uint\memory.c
; File z:\sources\lunor\repos\rougemeilland\palmtree.math.core.uint\palmtree.math.core.uint\pmc_inline_func.h
; File z:\sources\lunor\repos\rougemeilland\palmtree.math.core.uint\palmtree.math.core.uint\memory.c
; File z:\sources\lunor\repos\rougemeilland\palmtree.math.core.uint\palmtree.math.core.uint\pmc_inline_func.h
; File z:\sources\lunor\repos\rougemeilland\palmtree.math.core.uint\palmtree.math.core.uint\memory.c
; File z:\sources\lunor\repos\rougemeilland\palmtree.math.core.uint\palmtree.math.core.uint\pmc_inline_func.h
; File z:\sources\lunor\repos\rougemeilland\palmtree.math.core.uint\palmtree.math.core.uint\memory.c
; File z:\sources\lunor\repos\rougemeilland\palmtree.math.core.uint\palmtree.math.core.uint\pmc_inline_func.h
; File z:\sources\lunor\repos\rougemeilland\palmtree.math.core.uint\palmtree.math.core.uint\memory.c
; File z:\sources\lunor\repos\rougemeilland\palmtree.math.core.uint\palmtree.math.core.uint\pmc_inline_func.h
; File z:\sources\lunor\repos\rougemeilland\palmtree.math.core.uint\palmtree.math.core.uint\memory.c
; File z:\sources\lunor\repos\rougemeilland\palmtree.math.core.uint\palmtree.math.core.uint\pmc_inline_func.h
; File z:\sources\lunor\repos\rougemeilland\palmtree.math.core.uint\palmtree.math.core.uint\memory.c
; File z:\sources\lunor\repos\rougemeilland\palmtree.math.core.uint\palmtree.math.core.uint\pmc_inline_func.h
; File z:\sources\lunor\repos\rougemeilland\palmtree.math.core.uint\palmtree.math.core.uint\memory.c
; File z:\sources\lunor\repos\rougemeilland\palmtree.math.core.uint\palmtree.math.core.uint\pmc_inline_func.h
; File z:\sources\lunor\repos\rougemeilland\palmtree.math.core.uint\palmtree.math.core.uint\memory.c
; File z:\sources\lunor\repos\rougemeilland\palmtree.math.core.uint\palmtree.math.core.uint\pmc_inline_func.h
; File z:\sources\lunor\repos\rougemeilland\palmtree.math.core.uint\palmtree.math.core.uint\memory.c
; File z:\sources\lunor\repos\rougemeilland\palmtree.math.core.uint\palmtree.math.core.uint\pmc_inline_func.h
; File z:\sources\lunor\repos\rougemeilland\palmtree.math.core.uint\palmtree.math.core.uint\memory.c
; File z:\sources\lunor\repos\rougemeilland\palmtree.math.core.uint\palmtree.math.core.uint\pmc_inline_func.h
; File z:\sources\lunor\repos\rougemeilland\palmtree.math.core.uint\palmtree.math.core.uint\memory.c
;	COMDAT _CalculateCheckCode
_TEXT	SEGMENT
_p$ = 8							; size = 4
_words$ = 12						; size = 4
_CalculateCheckCode PROC				; COMDAT

; 53   : {

	push	ebp
	mov	ebp, esp

; 54   : 	__UNIT_TYPE code = CHECK_CODE_INIT;
; 55   : 	
; 56   :     __UNIT_TYPE count = words >> 5;
; 57   : 	while (count != 0)

	mov	ecx, DWORD PTR _p$[ebp]
	mov	eax, -2071690108			; 84848484H
	push	ebx
	mov	ebx, DWORD PTR _words$[ebp]
	mov	edx, ebx
	shr	edx, 5
	test	edx, edx
	je	$LN3@CalculateC
	npad	4
$LL2@CalculateC:
; File z:\sources\lunor\repos\rougemeilland\palmtree.math.core.uint\palmtree.math.core.uint\pmc_inline_func.h

; 476  :         return (_rotl(x, count));

	rol	eax, 3
; File z:\sources\lunor\repos\rougemeilland\palmtree.math.core.uint\palmtree.math.core.uint\memory.c

; 59   :         code = _ROTATE_L_UNIT(code, 3) ^ p[0];

	xor	eax, DWORD PTR [ecx]
; File z:\sources\lunor\repos\rougemeilland\palmtree.math.core.uint\palmtree.math.core.uint\pmc_inline_func.h

; 476  :         return (_rotl(x, count));

	rol	eax, 3
; File z:\sources\lunor\repos\rougemeilland\palmtree.math.core.uint\palmtree.math.core.uint\memory.c

; 60   :         code = _ROTATE_L_UNIT(code, 3) ^ p[1];

	xor	eax, DWORD PTR [ecx+4]
; File z:\sources\lunor\repos\rougemeilland\palmtree.math.core.uint\palmtree.math.core.uint\pmc_inline_func.h

; 476  :         return (_rotl(x, count));

	rol	eax, 3
; File z:\sources\lunor\repos\rougemeilland\palmtree.math.core.uint\palmtree.math.core.uint\memory.c

; 61   :         code = _ROTATE_L_UNIT(code, 3) ^ p[2];

	xor	eax, DWORD PTR [ecx+8]
; File z:\sources\lunor\repos\rougemeilland\palmtree.math.core.uint\palmtree.math.core.uint\pmc_inline_func.h

; 476  :         return (_rotl(x, count));

	rol	eax, 3
; File z:\sources\lunor\repos\rougemeilland\palmtree.math.core.uint\palmtree.math.core.uint\memory.c

; 62   :         code = _ROTATE_L_UNIT(code, 3) ^ p[3];

	xor	eax, DWORD PTR [ecx+12]
; File z:\sources\lunor\repos\rougemeilland\palmtree.math.core.uint\palmtree.math.core.uint\pmc_inline_func.h

; 476  :         return (_rotl(x, count));

	rol	eax, 3
; File z:\sources\lunor\repos\rougemeilland\palmtree.math.core.uint\palmtree.math.core.uint\memory.c

; 63   :         code = _ROTATE_L_UNIT(code, 3) ^ p[4];

	xor	eax, DWORD PTR [ecx+16]
; File z:\sources\lunor\repos\rougemeilland\palmtree.math.core.uint\palmtree.math.core.uint\pmc_inline_func.h

; 476  :         return (_rotl(x, count));

	rol	eax, 3
; File z:\sources\lunor\repos\rougemeilland\palmtree.math.core.uint\palmtree.math.core.uint\memory.c

; 64   :         code = _ROTATE_L_UNIT(code, 3) ^ p[5];

	xor	eax, DWORD PTR [ecx+20]
; File z:\sources\lunor\repos\rougemeilland\palmtree.math.core.uint\palmtree.math.core.uint\pmc_inline_func.h

; 476  :         return (_rotl(x, count));

	rol	eax, 3
; File z:\sources\lunor\repos\rougemeilland\palmtree.math.core.uint\palmtree.math.core.uint\memory.c

; 65   :         code = _ROTATE_L_UNIT(code, 3) ^ p[6];

	xor	eax, DWORD PTR [ecx+24]
; File z:\sources\lunor\repos\rougemeilland\palmtree.math.core.uint\palmtree.math.core.uint\pmc_inline_func.h

; 476  :         return (_rotl(x, count));

	rol	eax, 3
; File z:\sources\lunor\repos\rougemeilland\palmtree.math.core.uint\palmtree.math.core.uint\memory.c

; 66   :         code = _ROTATE_L_UNIT(code, 3) ^ p[7];

	xor	eax, DWORD PTR [ecx+28]
; File z:\sources\lunor\repos\rougemeilland\palmtree.math.core.uint\palmtree.math.core.uint\pmc_inline_func.h

; 476  :         return (_rotl(x, count));

	rol	eax, 3
; File z:\sources\lunor\repos\rougemeilland\palmtree.math.core.uint\palmtree.math.core.uint\memory.c

; 67   :         code = _ROTATE_L_UNIT(code, 3) ^ p[8];

	xor	eax, DWORD PTR [ecx+32]
; File z:\sources\lunor\repos\rougemeilland\palmtree.math.core.uint\palmtree.math.core.uint\pmc_inline_func.h

; 476  :         return (_rotl(x, count));

	rol	eax, 3
; File z:\sources\lunor\repos\rougemeilland\palmtree.math.core.uint\palmtree.math.core.uint\memory.c

; 68   :         code = _ROTATE_L_UNIT(code, 3) ^ p[9];

	xor	eax, DWORD PTR [ecx+36]
; File z:\sources\lunor\repos\rougemeilland\palmtree.math.core.uint\palmtree.math.core.uint\pmc_inline_func.h

; 476  :         return (_rotl(x, count));

	rol	eax, 3
; File z:\sources\lunor\repos\rougemeilland\palmtree.math.core.uint\palmtree.math.core.uint\memory.c

; 69   :         code = _ROTATE_L_UNIT(code, 3) ^ p[10];

	xor	eax, DWORD PTR [ecx+40]
; File z:\sources\lunor\repos\rougemeilland\palmtree.math.core.uint\palmtree.math.core.uint\pmc_inline_func.h

; 476  :         return (_rotl(x, count));

	rol	eax, 3
; File z:\sources\lunor\repos\rougemeilland\palmtree.math.core.uint\palmtree.math.core.uint\memory.c

; 70   :         code = _ROTATE_L_UNIT(code, 3) ^ p[11];

	xor	eax, DWORD PTR [ecx+44]
; File z:\sources\lunor\repos\rougemeilland\palmtree.math.core.uint\palmtree.math.core.uint\pmc_inline_func.h

; 476  :         return (_rotl(x, count));

	rol	eax, 3
; File z:\sources\lunor\repos\rougemeilland\palmtree.math.core.uint\palmtree.math.core.uint\memory.c

; 71   :         code = _ROTATE_L_UNIT(code, 3) ^ p[12];

	xor	eax, DWORD PTR [ecx+48]
; File z:\sources\lunor\repos\rougemeilland\palmtree.math.core.uint\palmtree.math.core.uint\pmc_inline_func.h

; 476  :         return (_rotl(x, count));

	rol	eax, 3
; File z:\sources\lunor\repos\rougemeilland\palmtree.math.core.uint\palmtree.math.core.uint\memory.c

; 72   :         code = _ROTATE_L_UNIT(code, 3) ^ p[13];

	xor	eax, DWORD PTR [ecx+52]
; File z:\sources\lunor\repos\rougemeilland\palmtree.math.core.uint\palmtree.math.core.uint\pmc_inline_func.h

; 476  :         return (_rotl(x, count));

	rol	eax, 3
; File z:\sources\lunor\repos\rougemeilland\palmtree.math.core.uint\palmtree.math.core.uint\memory.c

; 73   :         code = _ROTATE_L_UNIT(code, 3) ^ p[14];

	xor	eax, DWORD PTR [ecx+56]
; File z:\sources\lunor\repos\rougemeilland\palmtree.math.core.uint\palmtree.math.core.uint\pmc_inline_func.h

; 476  :         return (_rotl(x, count));

	rol	eax, 3
; File z:\sources\lunor\repos\rougemeilland\palmtree.math.core.uint\palmtree.math.core.uint\memory.c

; 74   :         code = _ROTATE_L_UNIT(code, 3) ^ p[15];

	xor	eax, DWORD PTR [ecx+60]
; File z:\sources\lunor\repos\rougemeilland\palmtree.math.core.uint\palmtree.math.core.uint\pmc_inline_func.h

; 476  :         return (_rotl(x, count));

	rol	eax, 3
; File z:\sources\lunor\repos\rougemeilland\palmtree.math.core.uint\palmtree.math.core.uint\memory.c

; 75   :         code = _ROTATE_L_UNIT(code, 3) ^ p[16];

	xor	eax, DWORD PTR [ecx+64]
; File z:\sources\lunor\repos\rougemeilland\palmtree.math.core.uint\palmtree.math.core.uint\pmc_inline_func.h

; 476  :         return (_rotl(x, count));

	rol	eax, 3
; File z:\sources\lunor\repos\rougemeilland\palmtree.math.core.uint\palmtree.math.core.uint\memory.c

; 76   :         code = _ROTATE_L_UNIT(code, 3) ^ p[17];

	xor	eax, DWORD PTR [ecx+68]
; File z:\sources\lunor\repos\rougemeilland\palmtree.math.core.uint\palmtree.math.core.uint\pmc_inline_func.h

; 476  :         return (_rotl(x, count));

	rol	eax, 3
; File z:\sources\lunor\repos\rougemeilland\palmtree.math.core.uint\palmtree.math.core.uint\memory.c

; 77   :         code = _ROTATE_L_UNIT(code, 3) ^ p[18];

	xor	eax, DWORD PTR [ecx+72]
; File z:\sources\lunor\repos\rougemeilland\palmtree.math.core.uint\palmtree.math.core.uint\pmc_inline_func.h

; 476  :         return (_rotl(x, count));

	rol	eax, 3
; File z:\sources\lunor\repos\rougemeilland\palmtree.math.core.uint\palmtree.math.core.uint\memory.c

; 78   :         code = _ROTATE_L_UNIT(code, 3) ^ p[19];

	xor	eax, DWORD PTR [ecx+76]
; File z:\sources\lunor\repos\rougemeilland\palmtree.math.core.uint\palmtree.math.core.uint\pmc_inline_func.h

; 476  :         return (_rotl(x, count));

	rol	eax, 3
; File z:\sources\lunor\repos\rougemeilland\palmtree.math.core.uint\palmtree.math.core.uint\memory.c

; 79   :         code = _ROTATE_L_UNIT(code, 3) ^ p[20];

	xor	eax, DWORD PTR [ecx+80]
; File z:\sources\lunor\repos\rougemeilland\palmtree.math.core.uint\palmtree.math.core.uint\pmc_inline_func.h

; 476  :         return (_rotl(x, count));

	rol	eax, 3
; File z:\sources\lunor\repos\rougemeilland\palmtree.math.core.uint\palmtree.math.core.uint\memory.c

; 80   :         code = _ROTATE_L_UNIT(code, 3) ^ p[21];

	xor	eax, DWORD PTR [ecx+84]
; File z:\sources\lunor\repos\rougemeilland\palmtree.math.core.uint\palmtree.math.core.uint\pmc_inline_func.h

; 476  :         return (_rotl(x, count));

	rol	eax, 3
; File z:\sources\lunor\repos\rougemeilland\palmtree.math.core.uint\palmtree.math.core.uint\memory.c

; 81   :         code = _ROTATE_L_UNIT(code, 3) ^ p[22];

	xor	eax, DWORD PTR [ecx+88]
; File z:\sources\lunor\repos\rougemeilland\palmtree.math.core.uint\palmtree.math.core.uint\pmc_inline_func.h

; 476  :         return (_rotl(x, count));

	rol	eax, 3
; File z:\sources\lunor\repos\rougemeilland\palmtree.math.core.uint\palmtree.math.core.uint\memory.c

; 82   :         code = _ROTATE_L_UNIT(code, 3) ^ p[23];

	xor	eax, DWORD PTR [ecx+92]
; File z:\sources\lunor\repos\rougemeilland\palmtree.math.core.uint\palmtree.math.core.uint\pmc_inline_func.h

; 476  :         return (_rotl(x, count));

	rol	eax, 3
; File z:\sources\lunor\repos\rougemeilland\palmtree.math.core.uint\palmtree.math.core.uint\memory.c

; 83   :         code = _ROTATE_L_UNIT(code, 3) ^ p[24];

	xor	eax, DWORD PTR [ecx+96]
; File z:\sources\lunor\repos\rougemeilland\palmtree.math.core.uint\palmtree.math.core.uint\pmc_inline_func.h

; 476  :         return (_rotl(x, count));

	rol	eax, 3
; File z:\sources\lunor\repos\rougemeilland\palmtree.math.core.uint\palmtree.math.core.uint\memory.c

; 84   :         code = _ROTATE_L_UNIT(code, 3) ^ p[25];

	xor	eax, DWORD PTR [ecx+100]
; File z:\sources\lunor\repos\rougemeilland\palmtree.math.core.uint\palmtree.math.core.uint\pmc_inline_func.h

; 476  :         return (_rotl(x, count));

	rol	eax, 3
; File z:\sources\lunor\repos\rougemeilland\palmtree.math.core.uint\palmtree.math.core.uint\memory.c

; 85   :         code = _ROTATE_L_UNIT(code, 3) ^ p[26];

	xor	eax, DWORD PTR [ecx+104]
; File z:\sources\lunor\repos\rougemeilland\palmtree.math.core.uint\palmtree.math.core.uint\pmc_inline_func.h

; 476  :         return (_rotl(x, count));

	rol	eax, 3
; File z:\sources\lunor\repos\rougemeilland\palmtree.math.core.uint\palmtree.math.core.uint\memory.c

; 86   :         code = _ROTATE_L_UNIT(code, 3) ^ p[27];

	xor	eax, DWORD PTR [ecx+108]
; File z:\sources\lunor\repos\rougemeilland\palmtree.math.core.uint\palmtree.math.core.uint\pmc_inline_func.h

; 476  :         return (_rotl(x, count));

	rol	eax, 3
; File z:\sources\lunor\repos\rougemeilland\palmtree.math.core.uint\palmtree.math.core.uint\memory.c

; 87   :         code = _ROTATE_L_UNIT(code, 3) ^ p[28];

	xor	eax, DWORD PTR [ecx+112]
; File z:\sources\lunor\repos\rougemeilland\palmtree.math.core.uint\palmtree.math.core.uint\pmc_inline_func.h

; 476  :         return (_rotl(x, count));

	rol	eax, 3
; File z:\sources\lunor\repos\rougemeilland\palmtree.math.core.uint\palmtree.math.core.uint\memory.c

; 88   :         code = _ROTATE_L_UNIT(code, 3) ^ p[29];

	xor	eax, DWORD PTR [ecx+116]
; File z:\sources\lunor\repos\rougemeilland\palmtree.math.core.uint\palmtree.math.core.uint\pmc_inline_func.h

; 476  :         return (_rotl(x, count));

	rol	eax, 3
; File z:\sources\lunor\repos\rougemeilland\palmtree.math.core.uint\palmtree.math.core.uint\memory.c

; 89   :         code = _ROTATE_L_UNIT(code, 3) ^ p[30];

	xor	eax, DWORD PTR [ecx+120]
; File z:\sources\lunor\repos\rougemeilland\palmtree.math.core.uint\palmtree.math.core.uint\pmc_inline_func.h

; 476  :         return (_rotl(x, count));

	rol	eax, 3
; File z:\sources\lunor\repos\rougemeilland\palmtree.math.core.uint\palmtree.math.core.uint\memory.c

; 90   :         code = _ROTATE_L_UNIT(code, 3) ^ p[31];

	xor	eax, DWORD PTR [ecx+124]

; 91   :         p += 32;

	sub	ecx, -128				; ffffff80H

; 92   :         --count;

	sub	edx, 1
	jne	$LL2@CalculateC
$LN3@CalculateC:

; 93   :     }
; 94   : 
; 95   : 	if (words & 0x10)

	test	bl, 16					; 00000010H
	je	SHORT $LN4@CalculateC
; File z:\sources\lunor\repos\rougemeilland\palmtree.math.core.uint\palmtree.math.core.uint\pmc_inline_func.h

; 476  :         return (_rotl(x, count));

	rol	eax, 3
; File z:\sources\lunor\repos\rougemeilland\palmtree.math.core.uint\palmtree.math.core.uint\memory.c

; 97   :         code = _ROTATE_L_UNIT(code, 3) ^ p[0];

	xor	eax, DWORD PTR [ecx]
; File z:\sources\lunor\repos\rougemeilland\palmtree.math.core.uint\palmtree.math.core.uint\pmc_inline_func.h

; 476  :         return (_rotl(x, count));

	rol	eax, 3
; File z:\sources\lunor\repos\rougemeilland\palmtree.math.core.uint\palmtree.math.core.uint\memory.c

; 98   :         code = _ROTATE_L_UNIT(code, 3) ^ p[1];

	xor	eax, DWORD PTR [ecx+4]
; File z:\sources\lunor\repos\rougemeilland\palmtree.math.core.uint\palmtree.math.core.uint\pmc_inline_func.h

; 476  :         return (_rotl(x, count));

	rol	eax, 3
; File z:\sources\lunor\repos\rougemeilland\palmtree.math.core.uint\palmtree.math.core.uint\memory.c

; 99   :         code = _ROTATE_L_UNIT(code, 3) ^ p[2];

	xor	eax, DWORD PTR [ecx+8]
; File z:\sources\lunor\repos\rougemeilland\palmtree.math.core.uint\palmtree.math.core.uint\pmc_inline_func.h

; 476  :         return (_rotl(x, count));

	rol	eax, 3
; File z:\sources\lunor\repos\rougemeilland\palmtree.math.core.uint\palmtree.math.core.uint\memory.c

; 100  :         code = _ROTATE_L_UNIT(code, 3) ^ p[3];

	xor	eax, DWORD PTR [ecx+12]
; File z:\sources\lunor\repos\rougemeilland\palmtree.math.core.uint\palmtree.math.core.uint\pmc_inline_func.h

; 476  :         return (_rotl(x, count));

	rol	eax, 3
; File z:\sources\lunor\repos\rougemeilland\palmtree.math.core.uint\palmtree.math.core.uint\memory.c

; 101  :         code = _ROTATE_L_UNIT(code, 3) ^ p[4];

	xor	eax, DWORD PTR [ecx+16]
; File z:\sources\lunor\repos\rougemeilland\palmtree.math.core.uint\palmtree.math.core.uint\pmc_inline_func.h

; 476  :         return (_rotl(x, count));

	rol	eax, 3
; File z:\sources\lunor\repos\rougemeilland\palmtree.math.core.uint\palmtree.math.core.uint\memory.c

; 102  :         code = _ROTATE_L_UNIT(code, 3) ^ p[5];

	xor	eax, DWORD PTR [ecx+20]
; File z:\sources\lunor\repos\rougemeilland\palmtree.math.core.uint\palmtree.math.core.uint\pmc_inline_func.h

; 476  :         return (_rotl(x, count));

	rol	eax, 3
; File z:\sources\lunor\repos\rougemeilland\palmtree.math.core.uint\palmtree.math.core.uint\memory.c

; 103  :         code = _ROTATE_L_UNIT(code, 3) ^ p[6];

	xor	eax, DWORD PTR [ecx+24]
; File z:\sources\lunor\repos\rougemeilland\palmtree.math.core.uint\palmtree.math.core.uint\pmc_inline_func.h

; 476  :         return (_rotl(x, count));

	rol	eax, 3
; File z:\sources\lunor\repos\rougemeilland\palmtree.math.core.uint\palmtree.math.core.uint\memory.c

; 104  :         code = _ROTATE_L_UNIT(code, 3) ^ p[7];

	xor	eax, DWORD PTR [ecx+28]
; File z:\sources\lunor\repos\rougemeilland\palmtree.math.core.uint\palmtree.math.core.uint\pmc_inline_func.h

; 476  :         return (_rotl(x, count));

	rol	eax, 3
; File z:\sources\lunor\repos\rougemeilland\palmtree.math.core.uint\palmtree.math.core.uint\memory.c

; 105  :         code = _ROTATE_L_UNIT(code, 3) ^ p[8];

	xor	eax, DWORD PTR [ecx+32]
; File z:\sources\lunor\repos\rougemeilland\palmtree.math.core.uint\palmtree.math.core.uint\pmc_inline_func.h

; 476  :         return (_rotl(x, count));

	rol	eax, 3
; File z:\sources\lunor\repos\rougemeilland\palmtree.math.core.uint\palmtree.math.core.uint\memory.c

; 106  :         code = _ROTATE_L_UNIT(code, 3) ^ p[9];

	xor	eax, DWORD PTR [ecx+36]
; File z:\sources\lunor\repos\rougemeilland\palmtree.math.core.uint\palmtree.math.core.uint\pmc_inline_func.h

; 476  :         return (_rotl(x, count));

	rol	eax, 3
; File z:\sources\lunor\repos\rougemeilland\palmtree.math.core.uint\palmtree.math.core.uint\memory.c

; 107  :         code = _ROTATE_L_UNIT(code, 3) ^ p[10];

	xor	eax, DWORD PTR [ecx+40]
; File z:\sources\lunor\repos\rougemeilland\palmtree.math.core.uint\palmtree.math.core.uint\pmc_inline_func.h

; 476  :         return (_rotl(x, count));

	rol	eax, 3
; File z:\sources\lunor\repos\rougemeilland\palmtree.math.core.uint\palmtree.math.core.uint\memory.c

; 108  :         code = _ROTATE_L_UNIT(code, 3) ^ p[11];

	xor	eax, DWORD PTR [ecx+44]
; File z:\sources\lunor\repos\rougemeilland\palmtree.math.core.uint\palmtree.math.core.uint\pmc_inline_func.h

; 476  :         return (_rotl(x, count));

	rol	eax, 3
; File z:\sources\lunor\repos\rougemeilland\palmtree.math.core.uint\palmtree.math.core.uint\memory.c

; 109  :         code = _ROTATE_L_UNIT(code, 3) ^ p[12];

	xor	eax, DWORD PTR [ecx+48]
; File z:\sources\lunor\repos\rougemeilland\palmtree.math.core.uint\palmtree.math.core.uint\pmc_inline_func.h

; 476  :         return (_rotl(x, count));

	rol	eax, 3
; File z:\sources\lunor\repos\rougemeilland\palmtree.math.core.uint\palmtree.math.core.uint\memory.c

; 110  :         code = _ROTATE_L_UNIT(code, 3) ^ p[13];

	xor	eax, DWORD PTR [ecx+52]
; File z:\sources\lunor\repos\rougemeilland\palmtree.math.core.uint\palmtree.math.core.uint\pmc_inline_func.h

; 476  :         return (_rotl(x, count));

	rol	eax, 3
; File z:\sources\lunor\repos\rougemeilland\palmtree.math.core.uint\palmtree.math.core.uint\memory.c

; 111  :         code = _ROTATE_L_UNIT(code, 3) ^ p[14];

	xor	eax, DWORD PTR [ecx+56]
; File z:\sources\lunor\repos\rougemeilland\palmtree.math.core.uint\palmtree.math.core.uint\pmc_inline_func.h

; 476  :         return (_rotl(x, count));

	rol	eax, 3
; File z:\sources\lunor\repos\rougemeilland\palmtree.math.core.uint\palmtree.math.core.uint\memory.c

; 112  :         code = _ROTATE_L_UNIT(code, 3) ^ p[15];

	xor	eax, DWORD PTR [ecx+60]

; 113  :         p += 16;

	add	ecx, 64					; 00000040H
$LN4@CalculateC:

; 114  :     }
; 115  : 
; 116  :     if (words & 0x8)

	test	bl, 8
	je	SHORT $LN5@CalculateC
; File z:\sources\lunor\repos\rougemeilland\palmtree.math.core.uint\palmtree.math.core.uint\pmc_inline_func.h

; 476  :         return (_rotl(x, count));

	rol	eax, 3
; File z:\sources\lunor\repos\rougemeilland\palmtree.math.core.uint\palmtree.math.core.uint\memory.c

; 118  :         code = _ROTATE_L_UNIT(code, 3) ^ p[0];

	xor	eax, DWORD PTR [ecx]
; File z:\sources\lunor\repos\rougemeilland\palmtree.math.core.uint\palmtree.math.core.uint\pmc_inline_func.h

; 476  :         return (_rotl(x, count));

	rol	eax, 3
; File z:\sources\lunor\repos\rougemeilland\palmtree.math.core.uint\palmtree.math.core.uint\memory.c

; 119  :         code = _ROTATE_L_UNIT(code, 3) ^ p[1];

	xor	eax, DWORD PTR [ecx+4]
; File z:\sources\lunor\repos\rougemeilland\palmtree.math.core.uint\palmtree.math.core.uint\pmc_inline_func.h

; 476  :         return (_rotl(x, count));

	rol	eax, 3
; File z:\sources\lunor\repos\rougemeilland\palmtree.math.core.uint\palmtree.math.core.uint\memory.c

; 120  :         code = _ROTATE_L_UNIT(code, 3) ^ p[2];

	xor	eax, DWORD PTR [ecx+8]
; File z:\sources\lunor\repos\rougemeilland\palmtree.math.core.uint\palmtree.math.core.uint\pmc_inline_func.h

; 476  :         return (_rotl(x, count));

	rol	eax, 3
; File z:\sources\lunor\repos\rougemeilland\palmtree.math.core.uint\palmtree.math.core.uint\memory.c

; 121  :         code = _ROTATE_L_UNIT(code, 3) ^ p[3];

	xor	eax, DWORD PTR [ecx+12]
; File z:\sources\lunor\repos\rougemeilland\palmtree.math.core.uint\palmtree.math.core.uint\pmc_inline_func.h

; 476  :         return (_rotl(x, count));

	rol	eax, 3
; File z:\sources\lunor\repos\rougemeilland\palmtree.math.core.uint\palmtree.math.core.uint\memory.c

; 122  :         code = _ROTATE_L_UNIT(code, 3) ^ p[4];

	xor	eax, DWORD PTR [ecx+16]
; File z:\sources\lunor\repos\rougemeilland\palmtree.math.core.uint\palmtree.math.core.uint\pmc_inline_func.h

; 476  :         return (_rotl(x, count));

	rol	eax, 3
; File z:\sources\lunor\repos\rougemeilland\palmtree.math.core.uint\palmtree.math.core.uint\memory.c

; 123  :         code = _ROTATE_L_UNIT(code, 3) ^ p[5];

	xor	eax, DWORD PTR [ecx+20]
; File z:\sources\lunor\repos\rougemeilland\palmtree.math.core.uint\palmtree.math.core.uint\pmc_inline_func.h

; 476  :         return (_rotl(x, count));

	rol	eax, 3
; File z:\sources\lunor\repos\rougemeilland\palmtree.math.core.uint\palmtree.math.core.uint\memory.c

; 124  :         code = _ROTATE_L_UNIT(code, 3) ^ p[6];

	xor	eax, DWORD PTR [ecx+24]
; File z:\sources\lunor\repos\rougemeilland\palmtree.math.core.uint\palmtree.math.core.uint\pmc_inline_func.h

; 476  :         return (_rotl(x, count));

	rol	eax, 3
; File z:\sources\lunor\repos\rougemeilland\palmtree.math.core.uint\palmtree.math.core.uint\memory.c

; 125  :         code = _ROTATE_L_UNIT(code, 3) ^ p[7];

	xor	eax, DWORD PTR [ecx+28]

; 126  :         p += 8;

	add	ecx, 32					; 00000020H
$LN5@CalculateC:

; 127  :     }
; 128  : 
; 129  :     if (words & 0x4)

	test	bl, 4
	je	SHORT $LN6@CalculateC
; File z:\sources\lunor\repos\rougemeilland\palmtree.math.core.uint\palmtree.math.core.uint\pmc_inline_func.h

; 476  :         return (_rotl(x, count));

	rol	eax, 3
; File z:\sources\lunor\repos\rougemeilland\palmtree.math.core.uint\palmtree.math.core.uint\memory.c

; 131  :         code = _ROTATE_L_UNIT(code, 3) ^ p[0];

	xor	eax, DWORD PTR [ecx]
; File z:\sources\lunor\repos\rougemeilland\palmtree.math.core.uint\palmtree.math.core.uint\pmc_inline_func.h

; 476  :         return (_rotl(x, count));

	rol	eax, 3
; File z:\sources\lunor\repos\rougemeilland\palmtree.math.core.uint\palmtree.math.core.uint\memory.c

; 132  :         code = _ROTATE_L_UNIT(code, 3) ^ p[1];

	xor	eax, DWORD PTR [ecx+4]
; File z:\sources\lunor\repos\rougemeilland\palmtree.math.core.uint\palmtree.math.core.uint\pmc_inline_func.h

; 476  :         return (_rotl(x, count));

	rol	eax, 3
; File z:\sources\lunor\repos\rougemeilland\palmtree.math.core.uint\palmtree.math.core.uint\memory.c

; 133  :         code = _ROTATE_L_UNIT(code, 3) ^ p[2];

	xor	eax, DWORD PTR [ecx+8]
; File z:\sources\lunor\repos\rougemeilland\palmtree.math.core.uint\palmtree.math.core.uint\pmc_inline_func.h

; 476  :         return (_rotl(x, count));

	rol	eax, 3
; File z:\sources\lunor\repos\rougemeilland\palmtree.math.core.uint\palmtree.math.core.uint\memory.c

; 134  :         code = _ROTATE_L_UNIT(code, 3) ^ p[3];

	xor	eax, DWORD PTR [ecx+12]

; 135  :         p += 4;

	add	ecx, 16					; 00000010H
$LN6@CalculateC:

; 136  :     }
; 137  : 
; 138  :     if (words & 0x2)

	test	bl, 2
	je	SHORT $LN7@CalculateC
; File z:\sources\lunor\repos\rougemeilland\palmtree.math.core.uint\palmtree.math.core.uint\pmc_inline_func.h

; 476  :         return (_rotl(x, count));

	rol	eax, 3
; File z:\sources\lunor\repos\rougemeilland\palmtree.math.core.uint\palmtree.math.core.uint\memory.c

; 140  :         code = _ROTATE_L_UNIT(code, 3) ^ p[0];

	xor	eax, DWORD PTR [ecx]
; File z:\sources\lunor\repos\rougemeilland\palmtree.math.core.uint\palmtree.math.core.uint\pmc_inline_func.h

; 476  :         return (_rotl(x, count));

	rol	eax, 3
; File z:\sources\lunor\repos\rougemeilland\palmtree.math.core.uint\palmtree.math.core.uint\memory.c

; 141  :         code = _ROTATE_L_UNIT(code, 3) ^ p[1];

	xor	eax, DWORD PTR [ecx+4]

; 142  :         p += 2;

	add	ecx, 8
$LN7@CalculateC:

; 143  :     }
; 144  : 
; 145  :     if (words & 0x1)

	test	bl, 1
	pop	ebx
	je	SHORT $LN8@CalculateC
; File z:\sources\lunor\repos\rougemeilland\palmtree.math.core.uint\palmtree.math.core.uint\pmc_inline_func.h

; 476  :         return (_rotl(x, count));

	rol	eax, 3
; File z:\sources\lunor\repos\rougemeilland\palmtree.math.core.uint\palmtree.math.core.uint\memory.c

; 146  :         code = _ROTATE_L_UNIT(code, 3) ^ p[0];

	xor	eax, DWORD PTR [ecx]
$LN8@CalculateC:

; 147  :     
; 148  :     return (code);
; 149  : }

	pop	ebp
	ret	0
_CalculateCheckCode ENDP
_TEXT	ENDS
; Function compile flags: /Ogtp
; File z:\sources\lunor\repos\rougemeilland\palmtree.math.core.uint\palmtree.math.core.uint\pmc_inline_func.h
;	COMDAT __TZCNT_ALT_UNIT
_TEXT	SEGMENT
_x$ = 8							; size = 4
__TZCNT_ALT_UNIT PROC					; COMDAT

; 702  :     {

	push	ebp
	mov	ebp, esp

; 703  :         if (x == 0)

	mov	eax, DWORD PTR _x$[ebp]
	test	eax, eax
	jne	SHORT $LN2@TZCNT_ALT_

; 704  :             return (sizeof(x) * 8);

	mov	eax, 32					; 00000020H

; 709  : #elif defined(__GNUC__)
; 710  :         __asm__("bsfl %1, %0" : "=r"(pos) : "rm"(x));
; 711  : #else
; 712  : #error unknown compiler
; 713  : #endif
; 714  : #elif defined(_M_X64)
; 715  : #ifdef _MSC_VER
; 716  :         _UINT32_T pos;
; 717  :         _BitScanForward64(&pos, x);
; 718  : #elif defined(__GNUC__)
; 719  :         _UINT64_T pos;
; 720  :         __asm__("bsfq %1, %0" : "=r"(pos) : "rm"(x));
; 721  : #else
; 722  : #error unknown compiler
; 723  : #endif
; 724  : #else
; 725  : #error unknown platform
; 726  : #endif
; 727  :         return (pos);
; 728  :     }

	pop	ebp
	ret	0
$LN2@TZCNT_ALT_:

; 705  : #ifdef _M_IX86
; 706  :         _UINT32_T pos;
; 707  : #ifdef _MSC_VER
; 708  :         _BitScanForward(&pos, x);

	bsf	eax, eax

; 709  : #elif defined(__GNUC__)
; 710  :         __asm__("bsfl %1, %0" : "=r"(pos) : "rm"(x));
; 711  : #else
; 712  : #error unknown compiler
; 713  : #endif
; 714  : #elif defined(_M_X64)
; 715  : #ifdef _MSC_VER
; 716  :         _UINT32_T pos;
; 717  :         _BitScanForward64(&pos, x);
; 718  : #elif defined(__GNUC__)
; 719  :         _UINT64_T pos;
; 720  :         __asm__("bsfq %1, %0" : "=r"(pos) : "rm"(x));
; 721  : #else
; 722  : #error unknown compiler
; 723  : #endif
; 724  : #else
; 725  : #error unknown platform
; 726  : #endif
; 727  :         return (pos);
; 728  :     }

	pop	ebp
	ret	0
__TZCNT_ALT_UNIT ENDP
_TEXT	ENDS
; Function compile flags: /Ogtp
; File z:\sources\lunor\repos\rougemeilland\palmtree.math.core.uint\palmtree.math.core.uint\pmc_inline_func.h
;	COMDAT __LZCNT_ALT_UNIT
_TEXT	SEGMENT
_x$ = 8							; size = 4
__LZCNT_ALT_UNIT PROC					; COMDAT

; 622  :     {

	push	ebp
	mov	ebp, esp

; 623  :         if (x == 0)

	mov	eax, DWORD PTR _x$[ebp]
	test	eax, eax
	jne	SHORT $LN2@LZCNT_ALT_

; 624  :             return (sizeof(x) * 8);

	mov	eax, 32					; 00000020H

; 648  :     }

	pop	ebp
	ret	0
$LN2@LZCNT_ALT_:

; 625  : #ifdef _M_IX86
; 626  :         _UINT32_T pos;
; 627  : #ifdef _MSC_VER
; 628  :         _BitScanReverse(&pos, x);

	bsr	ecx, eax

; 629  : #elif defined(__GNUC__)
; 630  :         __asm__("bsrl %1, %0" : "=r"(pos) : "rm"(x));
; 631  : #else
; 632  : #error unknown compiler
; 633  : #endif
; 634  : #elif defined(_M_X64)
; 635  : #ifdef _MSC_VER
; 636  :         _UINT32_T pos;
; 637  :         _BitScanReverse64(&pos, x);
; 638  : #elif defined(__GNUC__)
; 639  :         _UINT64_T pos;
; 640  :         __asm__("bsrq %1, %0" : "=r"(pos) : "rm"(x));
; 641  : #else
; 642  : #error unknown compiler
; 643  : #endif
; 644  : #else
; 645  : #error unknown platform
; 646  : #endif
; 647  :         return (sizeof(x) * 8 - 1 - pos);

	mov	eax, 31					; 0000001fH
	sub	eax, ecx

; 648  :     }

	pop	ebp
	ret	0
__LZCNT_ALT_UNIT ENDP
_TEXT	ENDS
; Function compile flags: /Ogtp
; File z:\sources\lunor\repos\rougemeilland\palmtree.math.core.uint\palmtree.math.core.uint\pmc_inline_func.h
;	COMDAT __ROTATE_L_UNIT
_TEXT	SEGMENT
_x$ = 8							; size = 4
_count$ = 12						; size = 4
__ROTATE_L_UNIT PROC					; COMDAT

; 474  :     {

	push	ebp
	mov	ebp, esp

; 475  : #ifdef _M_IX86
; 476  :         return (_rotl(x, count));

	mov	eax, DWORD PTR _x$[ebp]
	mov	ecx, DWORD PTR _count$[ebp]
	rol	eax, cl

; 477  : #elif defined(_M_X64)
; 478  :         return (_rotl64(x, count));
; 479  : #else
; 480  : #error unknown platform
; 481  : #endif
; 482  :     }

	pop	ebp
	ret	0
__ROTATE_L_UNIT ENDP
_TEXT	ENDS
; Function compile flags: /Ogtp
; File z:\sources\lunor\repos\rougemeilland\palmtree.math.core.uint\palmtree.math.core.uint\pmc_inline_func.h
;	COMDAT __DIVIDE_CEILING_UNIT
_TEXT	SEGMENT
_u$ = 8							; size = 4
_v$ = 12						; size = 4
__DIVIDE_CEILING_UNIT PROC				; COMDAT

; 186  :     {

	push	ebp
	mov	ebp, esp

; 187  :         return ((u + v - 1) / v);

	mov	eax, DWORD PTR _u$[ebp]
	xor	edx, edx
	dec	eax
	add	eax, DWORD PTR _v$[ebp]
	div	DWORD PTR _v$[ebp]

; 188  :     }

	pop	ebp
	ret	0
__DIVIDE_CEILING_UNIT ENDP
_TEXT	ENDS
; Function compile flags: /Ogtp
; File z:\sources\lunor\repos\rougemeilland\palmtree.math.core.uint\palmtree.math.core.uint\pmc_inline_func.h
;	COMDAT __FILL_MEMORY_UNIT
_TEXT	SEGMENT
_d$ = 8							; size = 4
_x$ = 12						; size = 4
_count$ = 16						; size = 4
__FILL_MEMORY_UNIT PROC					; COMDAT

; 159  :     {

	push	ebp
	mov	ebp, esp

; 160  : #ifdef _M_IX86
; 161  :         __stosd((unsigned long*)d, x, (unsigned long)count);

	mov	ecx, DWORD PTR _count$[ebp]
	mov	eax, DWORD PTR _x$[ebp]
	push	edi
	mov	edi, DWORD PTR _d$[ebp]
	rep stosd
	pop	edi

; 162  : #elif defined(_M_X64)
; 163  :         __stosq(d, x, count);
; 164  : #else
; 165  : #error unknown platform
; 166  : #endif
; 167  :     }

	pop	ebp
	ret	0
__FILL_MEMORY_UNIT ENDP
_TEXT	ENDS
; Function compile flags: /Ogtp
; File z:\sources\lunor\repos\rougemeilland\palmtree.math.core.uint\palmtree.math.core.uint\pmc_inline_func.h
;	COMDAT __FILL_MEMORY_32
_TEXT	SEGMENT
_d$ = 8							; size = 4
_x$ = 12						; size = 4
_count$ = 16						; size = 4
__FILL_MEMORY_32 PROC					; COMDAT

; 147  :     {

	push	ebp
	mov	ebp, esp

; 148  :         __stosd((unsigned long*)d, x, count);

	mov	ecx, DWORD PTR _count$[ebp]
	mov	eax, DWORD PTR _x$[ebp]
	push	edi
	mov	edi, DWORD PTR _d$[ebp]
	rep stosd
	pop	edi

; 149  :     }

	pop	ebp
	ret	0
__FILL_MEMORY_32 ENDP
_TEXT	ENDS
; Function compile flags: /Ogtp
; File z:\sources\lunor\repos\rougemeilland\palmtree.math.core.uint\palmtree.math.core.uint\pmc_inline_func.h
;	COMDAT __FILL_MEMORY_16
_TEXT	SEGMENT
_d$ = 8							; size = 4
_x$ = 12						; size = 2
_count$ = 16						; size = 4
__FILL_MEMORY_16 PROC					; COMDAT

; 142  :     {

	push	ebp
	mov	ebp, esp

; 143  :         __stosw(d, x, count);

	mov	ax, WORD PTR _x$[ebp]
	mov	ecx, DWORD PTR _count$[ebp]
	push	edi
	mov	edi, DWORD PTR _d$[ebp]
	rep stosw
	pop	edi

; 144  :     }

	pop	ebp
	ret	0
__FILL_MEMORY_16 ENDP
_TEXT	ENDS
; Function compile flags: /Ogtp
; File z:\sources\lunor\repos\rougemeilland\palmtree.math.core.uint\palmtree.math.core.uint\pmc_inline_func.h
;	COMDAT __FILL_MEMORY_BYTE
_TEXT	SEGMENT
_d$ = 8							; size = 4
_x$ = 12						; size = 1
_count$ = 16						; size = 4
__FILL_MEMORY_BYTE PROC					; COMDAT

; 137  :     {

	push	ebp
	mov	ebp, esp

; 138  :         __stosb(d, x, count);

	mov	al, BYTE PTR _x$[ebp]
	mov	ecx, DWORD PTR _count$[ebp]
	push	edi
	mov	edi, DWORD PTR _d$[ebp]
	rep stosb
	pop	edi

; 139  :     }

	pop	ebp
	ret	0
__FILL_MEMORY_BYTE ENDP
_TEXT	ENDS
; Function compile flags: /Ogtp
; File z:\sources\lunor\repos\rougemeilland\palmtree.math.core.uint\palmtree.math.core.uint\pmc_inline_func.h
;	COMDAT __ZERO_MEMORY_32
_TEXT	SEGMENT
_d$ = 8							; size = 4
_count$ = 12						; size = 4
__ZERO_MEMORY_32 PROC					; COMDAT

; 97   :     {

	push	ebp
	mov	ebp, esp

; 98   :         __stosd((unsigned long*)d, 0, count);

	mov	ecx, DWORD PTR _count$[ebp]
	xor	eax, eax
	push	edi
	mov	edi, DWORD PTR _d$[ebp]
	rep stosd
	pop	edi

; 99   :     }

	pop	ebp
	ret	0
__ZERO_MEMORY_32 ENDP
_TEXT	ENDS
; Function compile flags: /Ogtp
; File z:\sources\lunor\repos\rougemeilland\palmtree.math.core.uint\palmtree.math.core.uint\pmc_inline_func.h
;	COMDAT __ZERO_MEMORY_16
_TEXT	SEGMENT
_d$ = 8							; size = 4
_count$ = 12						; size = 4
__ZERO_MEMORY_16 PROC					; COMDAT

; 92   :     {

	push	ebp
	mov	ebp, esp

; 93   :         __stosw(d, 0, count);

	mov	ecx, DWORD PTR _count$[ebp]
	xor	eax, eax
	push	edi
	mov	edi, DWORD PTR _d$[ebp]
	rep stosw
	pop	edi

; 94   :     }

	pop	ebp
	ret	0
__ZERO_MEMORY_16 ENDP
_TEXT	ENDS
; Function compile flags: /Ogtp
; File z:\sources\lunor\repos\rougemeilland\palmtree.math.core.uint\palmtree.math.core.uint\pmc_inline_func.h
;	COMDAT __ZERO_MEMORY_BYTE
_TEXT	SEGMENT
_d$ = 8							; size = 4
_count$ = 12						; size = 4
__ZERO_MEMORY_BYTE PROC					; COMDAT

; 87   :     {

	push	ebp
	mov	ebp, esp

; 88   :         __stosb(d, 0, count);

	mov	ecx, DWORD PTR _count$[ebp]
	xor	al, al
	push	edi
	mov	edi, DWORD PTR _d$[ebp]
	rep stosb
	pop	edi

; 89   :     }

	pop	ebp
	ret	0
__ZERO_MEMORY_BYTE ENDP
_TEXT	ENDS
; Function compile flags: /Ogtp
; File z:\sources\lunor\repos\rougemeilland\palmtree.math.core.uint\palmtree.math.core.uint\pmc_inline_func.h
;	COMDAT __COPY_MEMORY_UNIT
_TEXT	SEGMENT
_d$ = 8							; size = 4
_s$ = 12						; size = 4
_count$ = 16						; size = 4
__COPY_MEMORY_UNIT PROC					; COMDAT

; 59   :     {

	push	ebp
	mov	ebp, esp

; 60   : #ifdef _M_IX86
; 61   :         __movsd((unsigned long *)d, (unsigned long *)s, (unsigned long)count);

	mov	ecx, DWORD PTR _count$[ebp]
	push	esi
	mov	esi, DWORD PTR _s$[ebp]
	push	edi
	mov	edi, DWORD PTR _d$[ebp]
	rep movsd
	pop	edi
	pop	esi

; 62   : #elif defined(_M_X64)
; 63   :         __movsq(d, s, count);
; 64   : #else
; 65   : #error unknown platform
; 66   : #endif
; 67   :     }

	pop	ebp
	ret	0
__COPY_MEMORY_UNIT ENDP
_TEXT	ENDS
; Function compile flags: /Ogtp
; File z:\sources\lunor\repos\rougemeilland\palmtree.math.core.uint\palmtree.math.core.uint\memory.c
; File z:\sources\lunor\repos\rougemeilland\palmtree.math.core.uint\palmtree.math.core.uint\pmc_inline_func.h
; File z:\sources\lunor\repos\rougemeilland\palmtree.math.core.uint\palmtree.math.core.uint\memory.c
; File z:\sources\lunor\repos\rougemeilland\palmtree.math.core.uint\palmtree.math.core.uint\pmc_inline_func.h
; File z:\sources\lunor\repos\rougemeilland\palmtree.math.core.uint\palmtree.math.core.uint\memory.c
;	COMDAT _PMC_Dispose@4
_TEXT	SEGMENT
_p$ = 8							; size = 4
_PMC_Dispose@4 PROC					; COMDAT

; 547  : {

	push	ebp
	mov	ebp, esp
	push	esi

; 505  :     if (p->SIGNATURE1 != PMC_SIGNATURE || p->SIGNATURE2 != PMC_UINT_SIGNATURE)

	mov	esi, DWORD PTR _p$[ebp]
	cmp	DWORD PTR [esi], 1231244656		; 49634d70H
	jne	$LN14@PMC_Dispos
	cmp	DWORD PTR [esi+4], 1416522069		; 546e6955H
	jne	$LN14@PMC_Dispos

; 426  :     if (p == NULL || p->IS_STATIC)

	test	BYTE PTR [esi+24], 1
	jne	SHORT $LN14@PMC_Dispos

; 388  :     if (p->BLOCK != NULL)

	mov	eax, DWORD PTR [esi+32]
	test	eax, eax
	je	SHORT $LN22@PMC_Dispos

; 389  :     {
; 390  :         DeallocateBlock(p->BLOCK, p->BLOCK_COUNT);

	mov	ecx, DWORD PTR [esi+28]

; 201  :         __UNIT_TYPE* p = buffer - 1;

	lea	edx, DWORD PTR [eax-4]

; 202  :         if (*p != buffer_words)

	cmp	DWORD PTR [edx], ecx
	jne	SHORT $LN22@PMC_Dispos

; 203  :         {
; 204  :             // もし、buffer の指す内容が壊れていることが明らかならば、二重解放の恐れがあるので解放処理はしない。
; 205  :         }
; 206  :         else
; 207  :         {
; 208  :             // 使用済みのバッファを既定のデータで塗りつぶす。
; 209  :             _FILL_MEMORY_UNIT(p, DEFAULT_MEMORY_DATA, buffer_words + 2);

	push	edi

; 211  :             HeapFree(hLocalHeap, 0, p);

	push	edx
	add	ecx, 2
; File z:\sources\lunor\repos\rougemeilland\palmtree.math.core.uint\palmtree.math.core.uint\pmc_inline_func.h

; 161  :         __stosd((unsigned long*)d, x, (unsigned long)count);

	mov	edi, edx
	mov	eax, -858993460				; ccccccccH
; File z:\sources\lunor\repos\rougemeilland\palmtree.math.core.uint\palmtree.math.core.uint\memory.c

; 211  :             HeapFree(hLocalHeap, 0, p);

	push	0
; File z:\sources\lunor\repos\rougemeilland\palmtree.math.core.uint\palmtree.math.core.uint\pmc_inline_func.h

; 161  :         __stosd((unsigned long*)d, x, (unsigned long)count);

	rep stosd
; File z:\sources\lunor\repos\rougemeilland\palmtree.math.core.uint\palmtree.math.core.uint\memory.c

; 211  :             HeapFree(hLocalHeap, 0, p);

	push	DWORD PTR _hLocalHeap
	call	DWORD PTR __imp__HeapFree@12
	pop	edi
$LN22@PMC_Dispos:

; 430  :     HeapFree(hLocalHeap, 0, p);

	push	esi
	push	0

; 337  :             __p[0] = (_UINT32_T)DEFAULT_MEMORY_DATA;

	mov	DWORD PTR [esi], -858993460		; ccccccccH

; 338  :             __p[1] = (_UINT32_T)DEFAULT_MEMORY_DATA;

	mov	DWORD PTR [esi+4], -858993460		; ccccccccH

; 339  :             __p[2] = (_UINT32_T)DEFAULT_MEMORY_DATA;

	mov	DWORD PTR [esi+8], -858993460		; ccccccccH

; 340  :             __p[3] = (_UINT32_T)DEFAULT_MEMORY_DATA;

	mov	DWORD PTR [esi+12], -858993460		; ccccccccH

; 341  :             __p[4] = (_UINT32_T)DEFAULT_MEMORY_DATA;

	mov	DWORD PTR [esi+16], -858993460		; ccccccccH

; 342  :             __p[5] = (_UINT32_T)DEFAULT_MEMORY_DATA;

	mov	DWORD PTR [esi+20], -858993460		; ccccccccH

; 343  :             __p[6] = (_UINT32_T)DEFAULT_MEMORY_DATA;

	mov	DWORD PTR [esi+24], -858993460		; ccccccccH

; 344  :             __p[7] = (_UINT32_T)DEFAULT_MEMORY_DATA;

	mov	DWORD PTR [esi+28], -858993460		; ccccccccH

; 345  :             __p[8] = (_UINT32_T)DEFAULT_MEMORY_DATA;

	mov	DWORD PTR [esi+32], -858993460		; ccccccccH

; 430  :     HeapFree(hLocalHeap, 0, p);

	push	DWORD PTR _hLocalHeap
	call	DWORD PTR __imp__HeapFree@12
$LN14@PMC_Dispos:
	pop	esi

; 548  :     NUMBER_HEADER* np = (NUMBER_HEADER*)p;
; 549  :     PMC_STATUS_CODE result = CheckNumber(np);
; 550  :     if (result != PMC_STATUS_OK)
; 551  :         return;
; 552  :     DeallocateNumber(np);
; 553  :     return;
; 554  : }

	pop	ebp
	ret	4
_PMC_Dispose@4 ENDP
_TEXT	ENDS
; Function compile flags: /Ogtp
; File z:\sources\lunor\repos\rougemeilland\palmtree.math.core.uint\palmtree.math.core.uint\memory.c
; File z:\sources\lunor\repos\rougemeilland\palmtree.math.core.uint\palmtree.math.core.uint\pmc_inline_func.h
; File z:\sources\lunor\repos\rougemeilland\palmtree.math.core.uint\palmtree.math.core.uint\memory.c
; File z:\sources\lunor\repos\rougemeilland\palmtree.math.core.uint\palmtree.math.core.uint\pmc_inline_func.h
; File z:\sources\lunor\repos\rougemeilland\palmtree.math.core.uint\palmtree.math.core.uint\memory.c
; File z:\sources\lunor\repos\rougemeilland\palmtree.math.core.uint\palmtree.math.core.uint\pmc_inline_func.h
; File z:\sources\lunor\repos\rougemeilland\palmtree.math.core.uint\palmtree.math.core.uint\memory.c
; File z:\sources\lunor\repos\rougemeilland\palmtree.math.core.uint\palmtree.math.core.uint\pmc_inline_func.h
; File z:\sources\lunor\repos\rougemeilland\palmtree.math.core.uint\palmtree.math.core.uint\memory.c
;	COMDAT _Initialize_Memory
_TEXT	SEGMENT
_feature$ = 8						; size = 4
_Initialize_Memory PROC					; COMDAT

; 557  : {

	push	esi

; 558  :     PMC_STATUS_CODE result = PMC_STATUS_OK;
; 559  : 
; 560  :     BOOL number_zero_ok = TRUE;
; 561  :     BOOL number_one_ok = TRUE;
; 562  :     if (result == PMC_STATUS_OK)
; 563  :     {
; 564  :         result = AttatchNumber(&number_zero, 0);
; 565  :         if (result == PMC_STATUS_OK)
; 566  :         {
; 567  :             CommitNumber(&number_zero);

	push	OFFSET _number_zero

; 295  :             __p[2] = 0;

	mov	DWORD PTR _number_zero+8, 0

; 296  :             __p[3] = 0;
; 297  :             __p[4] = 0;

	mov	DWORD PTR _number_zero+16, 0

; 298  :             __p[5] = 0;

	mov	DWORD PTR _number_zero+20, 0

; 377  :         p->SIGNATURE1 = PMC_SIGNATURE;

	mov	DWORD PTR _number_zero, 1231244656	; 49634d70H

; 378  :         p->SIGNATURE2 = PMC_UINT_SIGNATURE;

	mov	DWORD PTR _number_zero+4, 1416522069	; 546e6955H

; 379  :         p->UNIT_BIT_COUNT = 0;

	mov	DWORD PTR _number_zero+12, 0

; 380  :         p->BLOCK_COUNT = 0;

	mov	DWORD PTR _number_zero+28, 0

; 381  :         p->BLOCK = NULL;

	mov	DWORD PTR _number_zero+32, 0

; 400  :     p->IS_STATIC = TRUE;

	mov	DWORD PTR _number_zero+24, 1

; 558  :     PMC_STATUS_CODE result = PMC_STATUS_OK;
; 559  : 
; 560  :     BOOL number_zero_ok = TRUE;
; 561  :     BOOL number_one_ok = TRUE;
; 562  :     if (result == PMC_STATUS_OK)
; 563  :     {
; 564  :         result = AttatchNumber(&number_zero, 0);
; 565  :         if (result == PMC_STATUS_OK)
; 566  :         {
; 567  :             CommitNumber(&number_zero);

	call	_CommitNumber
	add	esp, 4

; 164  : 	__UNIT_TYPE* buffer = (__UNIT_TYPE*)HeapAlloc(hLocalHeap, HEAP_ZERO_MEMORY, bytes);

	push	12					; 0000000cH
	push	8
	push	DWORD PTR _hLocalHeap
	call	DWORD PTR __imp__HeapAlloc@12

; 165  : 	if (buffer == NULL)

	test	eax, eax
	je	SHORT $LN122@Initialize

; 166  : 		return (NULL);
; 167  : 	buffer[0] = words1;
; 168  :     *allocated_block_words = words1;
; 169  : #ifdef _DEBUG
; 170  :     // 乱数もどきを生成する。
; 171  : #ifdef _M_IX86
; 172  :     __UNIT_TYPE r = GetTickCount();
; 173  : #elif defined(_M_IX64)
; 174  : #ifdef _MSC_VER
; 175  :     __UNIT_TYPE r = GetTickCount64();
; 176  : #elif defined(__GNUC__)
; 177  :     _UINT32_T temp = GetTickCount();
; 178  :     __UNIT_TYPE r = _FROMWORDTODWORD(temp, temp);
; 179  : #else
; 180  : #error unknown compiler
; 181  : #endif
; 182  : #else
; 183  : #error unknown platform
; 184  : #endif
; 185  :     __UNIT_TYPE check_code = configuration_info.MEMORY_VERIFICATION_ENABLED ? CalculateCheckCode(&buffer[1], words1) : CHECK_CODE_INIT | r;
; 186  : #else
; 187  :     __UNIT_TYPE check_code = 0;
; 188  : #endif
; 189  :     buffer[words1 + 1] = check_code ^ (__UNIT_TYPE)&buffer[words1 + 1];

	lea	ecx, DWORD PTR [eax+4]
	mov	DWORD PTR [eax], 1
	add	eax, 8
	mov	DWORD PTR [ecx+4], eax

; 364  :         if (block == NULL)

	test	ecx, ecx
	je	SHORT $LN122@Initialize

; 295  :             __p[2] = 0;

	mov	DWORD PTR _number_one+8, 0

; 398  :     if (result != PMC_STATUS_OK)

	xor	esi, esi

; 297  :             __p[4] = 0;

	mov	DWORD PTR _number_one+16, 0

; 298  :             __p[5] = 0;

	mov	DWORD PTR _number_one+20, 0

; 367  :         p->SIGNATURE1 = PMC_SIGNATURE;

	mov	DWORD PTR _number_one, 1231244656	; 49634d70H

; 368  :         p->SIGNATURE2 = PMC_UINT_SIGNATURE;

	mov	DWORD PTR _number_one+4, 1416522069	; 546e6955H

; 369  :         p->UNIT_BIT_COUNT = bit_count;

	mov	DWORD PTR _number_one+12, 1

; 370  :         p->BLOCK_COUNT = word_count;

	mov	DWORD PTR _number_one+28, 1

; 371  :         p->BLOCK = block;

	mov	DWORD PTR _number_one+32, ecx

; 400  :     p->IS_STATIC = TRUE;

	mov	DWORD PTR _number_one+24, 1
	jmp	SHORT $LN52@Initialize
$LN122@Initialize:

; 365  :             return (PMC_STATUS_NOT_ENOUGH_MEMORY);

	mov	ecx, DWORD PTR _number_one+32
	mov	esi, -5					; fffffffbH
$LN52@Initialize:

; 568  :             number_zero_ok = TRUE;
; 569  :         }
; 570  :     }
; 571  : 
; 572  :     if (result == PMC_STATUS_OK)
; 573  :     {
; 574  :         result = AttatchNumber(&number_one, 1);
; 575  :         if (result == PMC_STATUS_OK)

	test	esi, esi
	jne	SHORT $LN5@Initialize

; 576  :         {
; 577  :             number_one.BLOCK[0] = 1;
; 578  :             CommitNumber(&number_one);

	push	OFFSET _number_one
	mov	DWORD PTR [ecx], 1
	call	_CommitNumber
	add	esp, 4

; 579  :             number_one_ok = TRUE;
; 580  :         }
; 581  :     }
; 582  : 
; 583  :     if (result != PMC_STATUS_OK)
; 584  :     {
; 585  :         if (number_zero_ok)
; 586  :             DetatchNumber(&number_zero);
; 587  :         if (number_one_ok)
; 588  :             DetatchNumber(&number_one);
; 589  :     }
; 590  : 
; 591  :     return (result);

	xor	eax, eax
	pop	esi

; 592  : }

	ret	0
$LN5@Initialize:

; 419  :     if (p == NULL || !p->IS_STATIC)

	test	BYTE PTR _number_zero+24, 1
	push	edi
	je	SHORT $LN96@Initialize

; 388  :     if (p->BLOCK != NULL)

	mov	eax, DWORD PTR _number_zero+32
	test	eax, eax
	je	SHORT $LN96@Initialize

; 389  :     {
; 390  :         DeallocateBlock(p->BLOCK, p->BLOCK_COUNT);

	mov	edi, DWORD PTR _number_zero+28

; 201  :         __UNIT_TYPE* p = buffer - 1;

	lea	edx, DWORD PTR [eax-4]

; 202  :         if (*p != buffer_words)

	cmp	DWORD PTR [edx], edi
	jne	SHORT $LN104@Initialize

; 211  :             HeapFree(hLocalHeap, 0, p);

	push	edx
	lea	ecx, DWORD PTR [edi+2]
; File z:\sources\lunor\repos\rougemeilland\palmtree.math.core.uint\palmtree.math.core.uint\pmc_inline_func.h

; 161  :         __stosd((unsigned long*)d, x, (unsigned long)count);

	mov	eax, -858993460				; ccccccccH
	mov	edi, edx
; File z:\sources\lunor\repos\rougemeilland\palmtree.math.core.uint\palmtree.math.core.uint\memory.c

; 211  :             HeapFree(hLocalHeap, 0, p);

	push	0
; File z:\sources\lunor\repos\rougemeilland\palmtree.math.core.uint\palmtree.math.core.uint\pmc_inline_func.h

; 161  :         __stosd((unsigned long*)d, x, (unsigned long)count);

	rep stosd
; File z:\sources\lunor\repos\rougemeilland\palmtree.math.core.uint\palmtree.math.core.uint\memory.c

; 211  :             HeapFree(hLocalHeap, 0, p);

	push	DWORD PTR _hLocalHeap
	call	DWORD PTR __imp__HeapFree@12
	mov	ecx, DWORD PTR _number_one+32
$LN104@Initialize:

; 391  :         p->BLOCK = NULL;

	mov	DWORD PTR _number_zero+32, 0
$LN96@Initialize:

; 419  :     if (p == NULL || !p->IS_STATIC)

	test	BYTE PTR _number_one+24, 1
	je	SHORT $LN123@Initialize

; 388  :     if (p->BLOCK != NULL)

	test	ecx, ecx
	je	SHORT $LN123@Initialize

; 389  :     {
; 390  :         DeallocateBlock(p->BLOCK, p->BLOCK_COUNT);

	mov	edi, DWORD PTR _number_one+28

; 201  :         __UNIT_TYPE* p = buffer - 1;

	lea	edx, DWORD PTR [ecx-4]

; 202  :         if (*p != buffer_words)

	cmp	DWORD PTR [edx], edi
	jne	SHORT $LN118@Initialize

; 211  :             HeapFree(hLocalHeap, 0, p);

	push	edx
	lea	ecx, DWORD PTR [edi+2]
; File z:\sources\lunor\repos\rougemeilland\palmtree.math.core.uint\palmtree.math.core.uint\pmc_inline_func.h

; 161  :         __stosd((unsigned long*)d, x, (unsigned long)count);

	mov	eax, -858993460				; ccccccccH
	mov	edi, edx
; File z:\sources\lunor\repos\rougemeilland\palmtree.math.core.uint\palmtree.math.core.uint\memory.c

; 211  :             HeapFree(hLocalHeap, 0, p);

	push	0
; File z:\sources\lunor\repos\rougemeilland\palmtree.math.core.uint\palmtree.math.core.uint\pmc_inline_func.h

; 161  :         __stosd((unsigned long*)d, x, (unsigned long)count);

	rep stosd
; File z:\sources\lunor\repos\rougemeilland\palmtree.math.core.uint\palmtree.math.core.uint\memory.c

; 211  :             HeapFree(hLocalHeap, 0, p);

	push	DWORD PTR _hLocalHeap
	call	DWORD PTR __imp__HeapFree@12
$LN118@Initialize:

; 391  :         p->BLOCK = NULL;

	mov	DWORD PTR _number_one+32, 0
$LN123@Initialize:
	pop	edi

; 579  :             number_one_ok = TRUE;
; 580  :         }
; 581  :     }
; 582  : 
; 583  :     if (result != PMC_STATUS_OK)
; 584  :     {
; 585  :         if (number_zero_ok)
; 586  :             DetatchNumber(&number_zero);
; 587  :         if (number_one_ok)
; 588  :             DetatchNumber(&number_one);
; 589  :     }
; 590  : 
; 591  :     return (result);

	mov	eax, esi
	pop	esi

; 592  : }

	ret	0
_Initialize_Memory ENDP
_TEXT	ENDS
; Function compile flags: /Ogtp
; File z:\sources\lunor\repos\rougemeilland\palmtree.math.core.uint\palmtree.math.core.uint\memory.c
; File z:\sources\lunor\repos\rougemeilland\palmtree.math.core.uint\palmtree.math.core.uint\pmc_inline_func.h
; File z:\sources\lunor\repos\rougemeilland\palmtree.math.core.uint\palmtree.math.core.uint\memory.c
;	COMDAT _DuplicateNumber
_TEXT	SEGMENT
_x$ = 8							; size = 4
_op$ = 12						; size = 4
_DuplicateNumber PROC					; COMDAT

; 523  : {

	push	ebp
	mov	ebp, esp
	push	esi

; 524  :     if (x->IS_STATIC)

	mov	esi, DWORD PTR _x$[ebp]
	mov	eax, DWORD PTR [esi+24]
	test	al, 1
	je	SHORT $LN2@DuplicateN

; 525  :     {
; 526  :         *op = x;

	mov	eax, DWORD PTR _op$[ebp]
	mov	DWORD PTR [eax], esi

; 527  :         return (PMC_STATUS_OK);

	xor	eax, eax
	pop	esi

; 543  : }

	pop	ebp
	ret	0
$LN2@DuplicateN:

; 528  :     }
; 529  :     if (x->IS_ZERO)

	test	al, 2
	je	SHORT $LN3@DuplicateN

; 530  :     {
; 531  :         *op = &number_zero;

	mov	eax, DWORD PTR _op$[ebp]
	pop	esi
	mov	DWORD PTR [eax], OFFSET _number_zero

; 532  :         return (PMC_STATUS_OK);

	xor	eax, eax

; 543  : }

	pop	ebp
	ret	0
$LN3@DuplicateN:
	push	ebx
	push	edi

; 533  :     }
; 534  :     __UNIT_TYPE x_bit_count = x->UNIT_BIT_COUNT;

	mov	edi, DWORD PTR [esi+12]

; 406  :     NUMBER_HEADER* p = (NUMBER_HEADER*)HeapAlloc(hLocalHeap, HEAP_ZERO_MEMORY, sizeof(NUMBER_HEADER));

	push	36					; 00000024H
	push	8
	push	DWORD PTR _hLocalHeap
	call	DWORD PTR __imp__HeapAlloc@12
	mov	ebx, eax

; 407  :     if (p == NULL)

	test	ebx, ebx
	jne	SHORT $LN7@DuplicateN
	pop	edi

; 408  :         return (PMC_STATUS_NOT_ENOUGH_MEMORY);

	lea	eax, DWORD PTR [ebx-5]
	pop	ebx
	pop	esi

; 543  : }

	pop	ebp
	ret	0
$LN7@DuplicateN:

; 409  :     PMC_STATUS_CODE result = InitializeNumber(p, bit_count, light_check_code);

	push	0
	push	edi
	push	ebx
	call	_InitializeNumber
	add	esp, 12					; 0000000cH

; 410  :     if (result != PMC_STATUS_OK)

	test	eax, eax
	jne	SHORT $LN15@DuplicateN

; 411  :         return (result);
; 412  :     p->IS_STATIC = FALSE;

	and	DWORD PTR [ebx+24], -2			; fffffffeH
; File z:\sources\lunor\repos\rougemeilland\palmtree.math.core.uint\palmtree.math.core.uint\pmc_inline_func.h

; 187  :         return ((u + v - 1) / v);

	lea	ecx, DWORD PTR [edi+31]

; 61   :         __movsd((unsigned long *)d, (unsigned long *)s, (unsigned long)count);

	mov	edi, DWORD PTR [ebx+32]
	mov	esi, DWORD PTR [esi+32]

; 187  :         return ((u + v - 1) / v);

	shr	ecx, 5

; 61   :         __movsd((unsigned long *)d, (unsigned long *)s, (unsigned long)count);

	rep movsd
; File z:\sources\lunor\repos\rougemeilland\palmtree.math.core.uint\palmtree.math.core.uint\memory.c

; 540  :     CommitNumber(o);

	push	ebx
	call	_CommitNumber

; 541  :     *op = o;

	mov	eax, DWORD PTR _op$[ebp]
	add	esp, 4
	mov	DWORD PTR [eax], ebx

; 542  :     return (PMC_STATUS_OK);

	xor	eax, eax
$LN15@DuplicateN:
	pop	edi
	pop	ebx
	pop	esi

; 543  : }

	pop	ebp
	ret	0
_DuplicateNumber ENDP
_TEXT	ENDS
; Function compile flags: /Ogtp
; File z:\sources\lunor\repos\rougemeilland\palmtree.math.core.uint\palmtree.math.core.uint\memory.c
;	COMDAT _CheckNumber
_TEXT	SEGMENT
_p$ = 8							; size = 4
_CheckNumber PROC					; COMDAT

; 504  : {

	push	ebp
	mov	ebp, esp

; 505  :     if (p->SIGNATURE1 != PMC_SIGNATURE || p->SIGNATURE2 != PMC_UINT_SIGNATURE)

	mov	eax, DWORD PTR _p$[ebp]
	cmp	DWORD PTR [eax], 1231244656		; 49634d70H
	jne	SHORT $LN3@CheckNumbe
	cmp	DWORD PTR [eax+4], 1416522069		; 546e6955H
	jne	SHORT $LN3@CheckNumbe

; 507  :     if (!p->IS_ZERO)
; 508  :     {
; 509  :         PMC_STATUS_CODE result;
; 510  :         if ((result = CheckBlock(p->BLOCK)) != PMC_STATUS_OK)
; 511  :             return (result);
; 512  : #ifdef _DEBUG
; 513  :         __UNIT_TYPE desired_hash_code = CalculateCheckCode(p->BLOCK, p->UNIT_WORD_COUNT);
; 514  :         if (desired_hash_code != p->HASH_CODE)
; 515  :             return (PMC_STATUS_BAD_BUFFER);
; 516  : #endif
; 517  :     }
; 518  :     return (PMC_STATUS_OK);

	xor	eax, eax

; 519  : }

	pop	ebp
	ret	0
$LN3@CheckNumbe:

; 506  :         return (PMC_STATUS_BAD_BUFFER);

	mov	eax, -257				; fffffeffH

; 519  : }

	pop	ebp
	ret	0
_CheckNumber ENDP
_TEXT	ENDS
; Function compile flags: /Ogtp
; File z:\sources\lunor\repos\rougemeilland\palmtree.math.core.uint\palmtree.math.core.uint\memory.c
; File z:\sources\lunor\repos\rougemeilland\palmtree.math.core.uint\palmtree.math.core.uint\pmc_inline_func.h
; File z:\sources\lunor\repos\rougemeilland\palmtree.math.core.uint\palmtree.math.core.uint\memory.c
; File z:\sources\lunor\repos\rougemeilland\palmtree.math.core.uint\palmtree.math.core.uint\pmc_inline_func.h
; File z:\sources\lunor\repos\rougemeilland\palmtree.math.core.uint\palmtree.math.core.uint\memory.c
; File z:\sources\lunor\repos\rougemeilland\palmtree.math.core.uint\palmtree.math.core.uint\pmc_inline_func.h
; File z:\sources\lunor\repos\rougemeilland\palmtree.math.core.uint\palmtree.math.core.uint\memory.c
; File z:\sources\lunor\repos\rougemeilland\palmtree.math.core.uint\palmtree.math.core.uint\pmc_inline_func.h
; File z:\sources\lunor\repos\rougemeilland\palmtree.math.core.uint\palmtree.math.core.uint\memory.c
;	COMDAT _CommitNumber
_TEXT	SEGMENT
_p$ = 8							; size = 4
_CommitNumber PROC					; COMDAT

; 471  : {

	push	ebp
	mov	ebp, esp
	push	esi
	push	edi

; 472  :     CommitBlock(p->BLOCK);

	mov	edi, DWORD PTR _p$[ebp]
	mov	ecx, DWORD PTR [edi+32]

; 219  :     if (buffer != NULL)

	test	ecx, ecx
	je	SHORT $LN8@CommitNumb

; 220  :     {
; 221  :         --buffer;
; 222  :         __UNIT_TYPE words = buffer[0];
; 223  : #ifdef _DEBUG
; 224  :         __UNIT_TYPE code = CalculateCheckCode(&buffer[1], words);
; 225  : #else
; 226  :         __UNIT_TYPE code = 0;
; 227  : #endif
; 228  :         buffer[words + 1] = code;

	mov	eax, DWORD PTR [ecx-4]
	mov	DWORD PTR [ecx+eax*4], 0
	mov	ecx, DWORD PTR [edi+32]
$LN8@CommitNumb:

; 473  :     p->UNIT_BIT_COUNT = GetEffectiveBitLength(p->BLOCK, p->BLOCK_COUNT, &p->UNIT_WORD_COUNT);

	mov	esi, DWORD PTR [edi+28]

; 435  :     if (p == NULL)

	test	ecx, ecx
	je	SHORT $LN12@CommitNumb

; 436  :     {
; 437  :         *effective_word_count = 0;
; 438  :         return (0);
; 439  :     }
; 440  :     p += word_count;

	lea	eax, DWORD PTR [ecx+esi*4]

; 441  :     while (word_count != 0)

	test	esi, esi
	je	SHORT $LN12@CommitNumb
	npad	6
$LL11@CommitNumb:

; 442  :     {
; 443  :         --p;
; 444  :         if (*p != 0)

	cmp	DWORD PTR [eax-4], 0
	lea	eax, DWORD PTR [eax-4]
	jne	SHORT $LN29@CommitNumb

; 448  :         }
; 449  :         --word_count;

	sub	esi, 1
	jne	SHORT $LL11@CommitNumb
$LN12@CommitNumb:

; 473  :     p->UNIT_BIT_COUNT = GetEffectiveBitLength(p->BLOCK, p->BLOCK_COUNT, &p->UNIT_WORD_COUNT);

	xor	esi, esi
	mov	DWORD PTR [edi+8], esi
$LN10@CommitNumb:
	mov	DWORD PTR [edi+12], esi

; 474  :     if (p->UNIT_BIT_COUNT <= 0)

	test	esi, esi
	jne	SHORT $LN2@CommitNumb

; 475  :     {
; 476  :         p->HASH_CODE = 0;
; 477  :         p->IS_ZERO = TRUE;

	mov	eax, DWORD PTR [edi+24]
	and	eax, -21				; ffffffebH
	mov	DWORD PTR [edi+16], esi

; 478  :         p->IS_ONE = FALSE;
; 479  :         p->IS_EVEN = TRUE;
; 480  :         p->TRAILING_ZERO_BITS_COUNT = 0;

	mov	DWORD PTR [edi+20], esi

; 481  :         p->IS_POWER_OF_TWO = FALSE;

	or	eax, 10					; 0000000aH

; 500  :     }
; 501  : }

	mov	DWORD PTR [edi+24], eax
	pop	edi
	pop	esi
	pop	ebp
	ret	0
$LN29@CommitNumb:

; 446  :             *effective_word_count = word_count;

	mov	DWORD PTR [edi+8], esi

; 447  :             return (word_count * __UNIT_TYPE_BIT_COUNT - _LZCNT_ALT_UNIT(*p));

	mov	eax, DWORD PTR [eax]
; File z:\sources\lunor\repos\rougemeilland\palmtree.math.core.uint\palmtree.math.core.uint\pmc_inline_func.h

; 623  :         if (x == 0)

	test	eax, eax
	jne	SHORT $LN17@CommitNumb

; 624  :             return (sizeof(x) * 8);

	mov	ecx, 32					; 00000020H
; File z:\sources\lunor\repos\rougemeilland\palmtree.math.core.uint\palmtree.math.core.uint\memory.c

; 447  :             return (word_count * __UNIT_TYPE_BIT_COUNT - _LZCNT_ALT_UNIT(*p));

	shl	esi, 5
	sub	esi, ecx
	jmp	SHORT $LN10@CommitNumb
$LN17@CommitNumb:
; File z:\sources\lunor\repos\rougemeilland\palmtree.math.core.uint\palmtree.math.core.uint\pmc_inline_func.h

; 628  :         _BitScanReverse(&pos, x);

	bsr	eax, eax

; 647  :         return (sizeof(x) * 8 - 1 - pos);

	mov	ecx, 31					; 0000001fH
; File z:\sources\lunor\repos\rougemeilland\palmtree.math.core.uint\palmtree.math.core.uint\memory.c

; 447  :             return (word_count * __UNIT_TYPE_BIT_COUNT - _LZCNT_ALT_UNIT(*p));

	shl	esi, 5
; File z:\sources\lunor\repos\rougemeilland\palmtree.math.core.uint\palmtree.math.core.uint\pmc_inline_func.h

; 647  :         return (sizeof(x) * 8 - 1 - pos);

	sub	ecx, eax
; File z:\sources\lunor\repos\rougemeilland\palmtree.math.core.uint\palmtree.math.core.uint\memory.c

; 447  :             return (word_count * __UNIT_TYPE_BIT_COUNT - _LZCNT_ALT_UNIT(*p));

	sub	esi, ecx
	jmp	SHORT $LN10@CommitNumb
$LN2@CommitNumb:

; 482  :     }
; 483  :     else if (p->UNIT_BIT_COUNT == 1)

	push	DWORD PTR [edi+8]
	push	DWORD PTR [edi+32]
	call	_CalculateCheckCode
	mov	DWORD PTR [edi+16], eax
	add	esp, 8
	mov	edx, DWORD PTR [edi+24]
	and	edx, -3					; fffffffdH
	mov	DWORD PTR [edi+24], edx
	mov	ecx, DWORD PTR [edi+32]
	cmp	esi, 1
	jne	SHORT $LN4@CommitNumb

; 484  :     {
; 485  :         p->HASH_CODE = CalculateCheckCode(p->BLOCK, p->UNIT_WORD_COUNT);
; 486  :         p->IS_ZERO = FALSE;
; 487  :         p->IS_ONE = p->BLOCK[0] == 1; // 無条件でTRUEでも大丈夫だが念のため。

	mov	eax, DWORD PTR [ecx]
	mov	esi, 4
	xor	ecx, ecx

; 488  :         p->IS_EVEN = FALSE;
; 489  :         p->TRAILING_ZERO_BITS_COUNT = 0;

	mov	DWORD PTR [edi+20], 0
	cmp	eax, 1
	cmove	ecx, esi
	and	edx, -5					; fffffffbH

; 490  :         p->IS_POWER_OF_TWO = TRUE;

	or	ecx, edx
	and	ecx, -9					; fffffff7H
	or	ecx, 16					; 00000010H

; 500  :     }
; 501  : }

	mov	DWORD PTR [edi+24], ecx
	pop	edi
	pop	esi
	pop	ebp
	ret	0
$LN4@CommitNumb:

; 491  :     }
; 492  :     else
; 493  :     {
; 494  :         p->HASH_CODE = CalculateCheckCode(p->BLOCK, p->UNIT_WORD_COUNT);
; 495  :         p->IS_ZERO = FALSE;
; 496  :         p->IS_ONE = FALSE;

	and	edx, -5					; fffffffbH
	mov	DWORD PTR [edi+24], edx

; 497  :         p->IS_EVEN = !(p->BLOCK[0] & 1);

	mov	eax, DWORD PTR [ecx]
	shl	eax, 3
	not	eax
	xor	eax, edx
	and	eax, 8
	xor	eax, edx

; 457  :     __UNIT_TYPE bit_count = 0;

	xor	edx, edx

; 497  :         p->IS_EVEN = !(p->BLOCK[0] & 1);

	mov	DWORD PTR [edi+24], eax

; 498  :         p->TRAILING_ZERO_BITS_COUNT = GetTrailingZeroBitCount(p->BLOCK, p->UNIT_WORD_COUNT);

	mov	eax, DWORD PTR [edi+8]

; 458  :     while (word_count > 0)

	test	eax, eax
	je	SHORT $LN21@CommitNumb
$LL20@CommitNumb:

; 459  :     {
; 460  :         --word_count;
; 461  :         if (*p != 0)

	mov	esi, DWORD PTR [ecx]
	dec	eax
	test	esi, esi
	jne	SHORT $LN30@CommitNumb

; 463  :         bit_count += __UNIT_TYPE_BIT_COUNT;

	add	edx, 32					; 00000020H

; 464  :         ++p;

	add	ecx, 4
	test	eax, eax
	jne	SHORT $LL20@CommitNumb
$LN21@CommitNumb:

; 465  :     }
; 466  :     // このルートには到達しないはず
; 467  :     return (0);

	xor	eax, eax
$LN19@CommitNumb:

; 498  :         p->TRAILING_ZERO_BITS_COUNT = GetTrailingZeroBitCount(p->BLOCK, p->UNIT_WORD_COUNT);

	mov	DWORD PTR [edi+20], eax

; 499  :         p->IS_POWER_OF_TWO = p->TRAILING_ZERO_BITS_COUNT + 1 == p->UNIT_BIT_COUNT;

	xor	ecx, ecx
	inc	eax
	mov	edx, 16					; 00000010H
	cmp	eax, DWORD PTR [edi+12]
	mov	eax, DWORD PTR [edi+24]
	cmove	ecx, edx
	and	eax, -17				; ffffffefH
	or	ecx, eax

; 500  :     }
; 501  : }

	mov	DWORD PTR [edi+24], ecx
	pop	edi
	pop	esi
	pop	ebp
	ret	0
$LN30@CommitNumb:
; File z:\sources\lunor\repos\rougemeilland\palmtree.math.core.uint\palmtree.math.core.uint\pmc_inline_func.h

; 708  :         _BitScanForward(&pos, x);

	bsf	eax, esi
; File z:\sources\lunor\repos\rougemeilland\palmtree.math.core.uint\palmtree.math.core.uint\memory.c

; 462  :             return (bit_count + _TZCNT_ALT_UNIT(*p));

	add	eax, edx
	jmp	SHORT $LN19@CommitNumb
_CommitNumber ENDP
_TEXT	ENDS
; Function compile flags: /Ogtp
; File z:\sources\lunor\repos\rougemeilland\palmtree.math.core.uint\palmtree.math.core.uint\memory.c
; File z:\sources\lunor\repos\rougemeilland\palmtree.math.core.uint\palmtree.math.core.uint\pmc_inline_func.h
; File z:\sources\lunor\repos\rougemeilland\palmtree.math.core.uint\palmtree.math.core.uint\memory.c
; File z:\sources\lunor\repos\rougemeilland\palmtree.math.core.uint\palmtree.math.core.uint\pmc_inline_func.h
; File z:\sources\lunor\repos\rougemeilland\palmtree.math.core.uint\palmtree.math.core.uint\memory.c
;	COMDAT _DeallocateNumber
_TEXT	SEGMENT
_p$ = 8							; size = 4
_DeallocateNumber PROC					; COMDAT

; 425  : {

	push	ebp
	mov	ebp, esp
	push	esi

; 426  :     if (p == NULL || p->IS_STATIC)

	mov	esi, DWORD PTR _p$[ebp]
	test	esi, esi
	je	$LN3@Deallocate
	test	BYTE PTR [esi+24], 1
	jne	SHORT $LN3@Deallocate

; 388  :     if (p->BLOCK != NULL)

	mov	eax, DWORD PTR [esi+32]
	test	eax, eax
	je	SHORT $LN11@Deallocate

; 389  :     {
; 390  :         DeallocateBlock(p->BLOCK, p->BLOCK_COUNT);

	mov	ecx, DWORD PTR [esi+28]

; 201  :         __UNIT_TYPE* p = buffer - 1;

	lea	edx, DWORD PTR [eax-4]

; 202  :         if (*p != buffer_words)

	cmp	DWORD PTR [edx], ecx
	jne	SHORT $LN11@Deallocate

; 203  :         {
; 204  :             // もし、buffer の指す内容が壊れていることが明らかならば、二重解放の恐れがあるので解放処理はしない。
; 205  :         }
; 206  :         else
; 207  :         {
; 208  :             // 使用済みのバッファを既定のデータで塗りつぶす。
; 209  :             _FILL_MEMORY_UNIT(p, DEFAULT_MEMORY_DATA, buffer_words + 2);

	push	edi

; 211  :             HeapFree(hLocalHeap, 0, p);

	push	edx
	add	ecx, 2
; File z:\sources\lunor\repos\rougemeilland\palmtree.math.core.uint\palmtree.math.core.uint\pmc_inline_func.h

; 161  :         __stosd((unsigned long*)d, x, (unsigned long)count);

	mov	edi, edx
	mov	eax, -858993460				; ccccccccH
; File z:\sources\lunor\repos\rougemeilland\palmtree.math.core.uint\palmtree.math.core.uint\memory.c

; 211  :             HeapFree(hLocalHeap, 0, p);

	push	0
; File z:\sources\lunor\repos\rougemeilland\palmtree.math.core.uint\palmtree.math.core.uint\pmc_inline_func.h

; 161  :         __stosd((unsigned long*)d, x, (unsigned long)count);

	rep stosd
; File z:\sources\lunor\repos\rougemeilland\palmtree.math.core.uint\palmtree.math.core.uint\memory.c

; 211  :             HeapFree(hLocalHeap, 0, p);

	push	DWORD PTR _hLocalHeap
	call	DWORD PTR __imp__HeapFree@12
	pop	edi
$LN11@Deallocate:

; 427  :         return;
; 428  :     CleanUpNumber(p);
; 429  :     FillNumberHeader(p);
; 430  :     HeapFree(hLocalHeap, 0, p);

	push	esi
	push	0

; 337  :             __p[0] = (_UINT32_T)DEFAULT_MEMORY_DATA;

	mov	DWORD PTR [esi], -858993460		; ccccccccH

; 338  :             __p[1] = (_UINT32_T)DEFAULT_MEMORY_DATA;

	mov	DWORD PTR [esi+4], -858993460		; ccccccccH

; 339  :             __p[2] = (_UINT32_T)DEFAULT_MEMORY_DATA;

	mov	DWORD PTR [esi+8], -858993460		; ccccccccH

; 340  :             __p[3] = (_UINT32_T)DEFAULT_MEMORY_DATA;

	mov	DWORD PTR [esi+12], -858993460		; ccccccccH

; 341  :             __p[4] = (_UINT32_T)DEFAULT_MEMORY_DATA;

	mov	DWORD PTR [esi+16], -858993460		; ccccccccH

; 342  :             __p[5] = (_UINT32_T)DEFAULT_MEMORY_DATA;

	mov	DWORD PTR [esi+20], -858993460		; ccccccccH

; 343  :             __p[6] = (_UINT32_T)DEFAULT_MEMORY_DATA;

	mov	DWORD PTR [esi+24], -858993460		; ccccccccH

; 344  :             __p[7] = (_UINT32_T)DEFAULT_MEMORY_DATA;

	mov	DWORD PTR [esi+28], -858993460		; ccccccccH

; 345  :             __p[8] = (_UINT32_T)DEFAULT_MEMORY_DATA;

	mov	DWORD PTR [esi+32], -858993460		; ccccccccH

; 427  :         return;
; 428  :     CleanUpNumber(p);
; 429  :     FillNumberHeader(p);
; 430  :     HeapFree(hLocalHeap, 0, p);

	push	DWORD PTR _hLocalHeap
	call	DWORD PTR __imp__HeapFree@12
$LN3@Deallocate:
	pop	esi

; 431  : }

	pop	ebp
	ret	0
_DeallocateNumber ENDP
_TEXT	ENDS
; Function compile flags: /Ogtp
; File z:\sources\lunor\repos\rougemeilland\palmtree.math.core.uint\palmtree.math.core.uint\memory.c
; File z:\sources\lunor\repos\rougemeilland\palmtree.math.core.uint\palmtree.math.core.uint\pmc_inline_func.h
; File z:\sources\lunor\repos\rougemeilland\palmtree.math.core.uint\palmtree.math.core.uint\memory.c
; File z:\sources\lunor\repos\rougemeilland\palmtree.math.core.uint\palmtree.math.core.uint\pmc_inline_func.h
; File z:\sources\lunor\repos\rougemeilland\palmtree.math.core.uint\palmtree.math.core.uint\memory.c
;	COMDAT _DetatchNumber
_TEXT	SEGMENT
_p$ = 8							; size = 4
_DetatchNumber PROC					; COMDAT

; 418  : {

	push	ebp
	mov	ebp, esp
	push	esi

; 419  :     if (p == NULL || !p->IS_STATIC)

	mov	esi, DWORD PTR _p$[ebp]
	test	esi, esi
	je	SHORT $LN3@DetatchNum
	test	BYTE PTR [esi+24], 1
	je	SHORT $LN3@DetatchNum

; 388  :     if (p->BLOCK != NULL)

	mov	eax, DWORD PTR [esi+32]
	test	eax, eax
	je	SHORT $LN3@DetatchNum

; 389  :     {
; 390  :         DeallocateBlock(p->BLOCK, p->BLOCK_COUNT);

	mov	ecx, DWORD PTR [esi+28]

; 201  :         __UNIT_TYPE* p = buffer - 1;

	lea	edx, DWORD PTR [eax-4]

; 202  :         if (*p != buffer_words)

	cmp	DWORD PTR [edx], ecx
	jne	SHORT $LN11@DetatchNum

; 203  :         {
; 204  :             // もし、buffer の指す内容が壊れていることが明らかならば、二重解放の恐れがあるので解放処理はしない。
; 205  :         }
; 206  :         else
; 207  :         {
; 208  :             // 使用済みのバッファを既定のデータで塗りつぶす。
; 209  :             _FILL_MEMORY_UNIT(p, DEFAULT_MEMORY_DATA, buffer_words + 2);

	push	edi

; 211  :             HeapFree(hLocalHeap, 0, p);

	push	edx
	add	ecx, 2
; File z:\sources\lunor\repos\rougemeilland\palmtree.math.core.uint\palmtree.math.core.uint\pmc_inline_func.h

; 161  :         __stosd((unsigned long*)d, x, (unsigned long)count);

	mov	edi, edx
	mov	eax, -858993460				; ccccccccH
; File z:\sources\lunor\repos\rougemeilland\palmtree.math.core.uint\palmtree.math.core.uint\memory.c

; 211  :             HeapFree(hLocalHeap, 0, p);

	push	0
; File z:\sources\lunor\repos\rougemeilland\palmtree.math.core.uint\palmtree.math.core.uint\pmc_inline_func.h

; 161  :         __stosd((unsigned long*)d, x, (unsigned long)count);

	rep stosd
; File z:\sources\lunor\repos\rougemeilland\palmtree.math.core.uint\palmtree.math.core.uint\memory.c

; 211  :             HeapFree(hLocalHeap, 0, p);

	push	DWORD PTR _hLocalHeap
	call	DWORD PTR __imp__HeapFree@12
	pop	edi
$LN11@DetatchNum:

; 391  :         p->BLOCK = NULL;

	mov	DWORD PTR [esi+32], 0
$LN3@DetatchNum:
	pop	esi

; 420  :         return;
; 421  :     CleanUpNumber(p);
; 422  : }

	pop	ebp
	ret	0
_DetatchNumber ENDP
_TEXT	ENDS
; Function compile flags: /Ogtp
; File z:\sources\lunor\repos\rougemeilland\palmtree.math.core.uint\palmtree.math.core.uint\memory.c
;	COMDAT _AllocateNumber
_TEXT	SEGMENT
_pp$ = 8						; size = 4
_bit_count$ = 12					; size = 4
_light_check_code$ = 16					; size = 4
_AllocateNumber PROC					; COMDAT

; 405  : {

	push	ebp
	mov	ebp, esp
	push	esi

; 406  :     NUMBER_HEADER* p = (NUMBER_HEADER*)HeapAlloc(hLocalHeap, HEAP_ZERO_MEMORY, sizeof(NUMBER_HEADER));

	push	36					; 00000024H
	push	8
	push	DWORD PTR _hLocalHeap
	call	DWORD PTR __imp__HeapAlloc@12
	mov	esi, eax

; 407  :     if (p == NULL)

	test	esi, esi
	jne	SHORT $LN2@AllocateNu

; 408  :         return (PMC_STATUS_NOT_ENOUGH_MEMORY);

	lea	eax, DWORD PTR [esi-5]
	pop	esi

; 415  : }

	pop	ebp
	ret	0
$LN2@AllocateNu:

; 409  :     PMC_STATUS_CODE result = InitializeNumber(p, bit_count, light_check_code);

	push	DWORD PTR _light_check_code$[ebp]
	push	DWORD PTR _bit_count$[ebp]
	push	esi
	call	_InitializeNumber
	add	esp, 12					; 0000000cH

; 410  :     if (result != PMC_STATUS_OK)

	test	eax, eax
	jne	SHORT $LN1@AllocateNu

; 411  :         return (result);
; 412  :     p->IS_STATIC = FALSE;
; 413  :     *pp = p;

	mov	eax, DWORD PTR _pp$[ebp]
	and	DWORD PTR [esi+24], -2			; fffffffeH
	mov	DWORD PTR [eax], esi

; 414  :     return (PMC_STATUS_OK);

	xor	eax, eax
$LN1@AllocateNu:
	pop	esi

; 415  : }

	pop	ebp
	ret	0
_AllocateNumber ENDP
_TEXT	ENDS
; Function compile flags: /Ogtp
; File z:\sources\lunor\repos\rougemeilland\palmtree.math.core.uint\palmtree.math.core.uint\memory.c
;	COMDAT _AttatchNumber
_TEXT	SEGMENT
_p$ = 8							; size = 4
_bit_count$ = 12					; size = 4
_AttatchNumber PROC					; COMDAT

; 396  : {

	push	ebp
	mov	ebp, esp
	push	esi

; 397  :     PMC_STATUS_CODE result = InitializeNumber(p, bit_count, NULL);

	mov	esi, DWORD PTR _p$[ebp]
	push	0
	push	DWORD PTR _bit_count$[ebp]
	push	esi
	call	_InitializeNumber
	add	esp, 12					; 0000000cH

; 398  :     if (result != PMC_STATUS_OK)

	test	eax, eax
	jne	SHORT $LN1@AttatchNum

; 399  :         return (result);
; 400  :     p->IS_STATIC = TRUE;

	or	DWORD PTR [esi+24], 1
$LN1@AttatchNum:
	pop	esi

; 401  :     return (PMC_STATUS_OK);
; 402  : }

	pop	ebp
	ret	0
_AttatchNumber ENDP
_TEXT	ENDS
; Function compile flags: /Ogtp
; File z:\sources\lunor\repos\rougemeilland\palmtree.math.core.uint\palmtree.math.core.uint\memory.c
;	COMDAT _CheckBlockLight
_TEXT	SEGMENT
_buffer$ = 8						; size = 4
_code$ = 12						; size = 4
_CheckBlockLight PROC					; COMDAT

; 254  : #ifdef _DEBUG
; 255  :     if (buffer == NULL)
; 256  :         return (PMC_STATUS_OK);
; 257  :     --buffer;
; 258  :     __UNIT_TYPE words = buffer[0];
; 259  :     __UNIT_TYPE code_desired = buffer[words + 1] ^ (__UNIT_TYPE)&buffer[words + 1];
; 260  :     __UNIT_TYPE code_actual = code;
; 261  :     if (code_actual == code_desired)
; 262  :         return (PMC_STATUS_OK);
; 263  :     else
; 264  :         return (PMC_STATUS_BAD_BUFFER);
; 265  : #else
; 266  :     return (PMC_STATUS_OK);

	xor	eax, eax

; 267  : #endif
; 268  : }

	ret	0
_CheckBlockLight ENDP
_TEXT	ENDS
; Function compile flags: /Ogtp
; File z:\sources\lunor\repos\rougemeilland\palmtree.math.core.uint\palmtree.math.core.uint\memory.c
; File z:\sources\lunor\repos\rougemeilland\palmtree.math.core.uint\palmtree.math.core.uint\pmc_inline_func.h
; File z:\sources\lunor\repos\rougemeilland\palmtree.math.core.uint\palmtree.math.core.uint\memory.c
; File z:\sources\lunor\repos\rougemeilland\palmtree.math.core.uint\palmtree.math.core.uint\pmc_inline_func.h
; File z:\sources\lunor\repos\rougemeilland\palmtree.math.core.uint\palmtree.math.core.uint\memory.c
;	COMDAT _DeallocateBlock
_TEXT	SEGMENT
_buffer$ = 8						; size = 4
_buffer_words$ = 12					; size = 4
_DeallocateBlock PROC					; COMDAT

; 198  : {

	push	ebp
	mov	ebp, esp

; 199  : 	if (buffer != NULL)

	mov	eax, DWORD PTR _buffer$[ebp]
	test	eax, eax
	je	SHORT $LN4@Deallocate

; 200  : 	{
; 201  :         __UNIT_TYPE* p = buffer - 1;
; 202  :         if (*p != buffer_words)

	mov	ecx, DWORD PTR _buffer_words$[ebp]
	lea	edx, DWORD PTR [eax-4]
	cmp	DWORD PTR [edx], ecx
	jne	SHORT $LN4@Deallocate

; 203  :         {
; 204  :             // もし、buffer の指す内容が壊れていることが明らかならば、二重解放の恐れがあるので解放処理はしない。
; 205  :         }
; 206  :         else
; 207  :         {
; 208  :             // 使用済みのバッファを既定のデータで塗りつぶす。
; 209  :             _FILL_MEMORY_UNIT(p, DEFAULT_MEMORY_DATA, buffer_words + 2);

	push	edi

; 211  :             HeapFree(hLocalHeap, 0, p);

	push	edx
	add	ecx, 2
; File z:\sources\lunor\repos\rougemeilland\palmtree.math.core.uint\palmtree.math.core.uint\pmc_inline_func.h

; 161  :         __stosd((unsigned long*)d, x, (unsigned long)count);

	mov	edi, edx
	mov	eax, -858993460				; ccccccccH
; File z:\sources\lunor\repos\rougemeilland\palmtree.math.core.uint\palmtree.math.core.uint\memory.c

; 211  :             HeapFree(hLocalHeap, 0, p);

	push	0
; File z:\sources\lunor\repos\rougemeilland\palmtree.math.core.uint\palmtree.math.core.uint\pmc_inline_func.h

; 161  :         __stosd((unsigned long*)d, x, (unsigned long)count);

	rep stosd
; File z:\sources\lunor\repos\rougemeilland\palmtree.math.core.uint\palmtree.math.core.uint\memory.c

; 211  :             HeapFree(hLocalHeap, 0, p);

	push	DWORD PTR _hLocalHeap
	call	DWORD PTR __imp__HeapFree@12
	pop	edi
$LN4@Deallocate:

; 212  :         }
; 213  : 	}
; 214  : }

	pop	ebp
	ret	0
_DeallocateBlock ENDP
_TEXT	ENDS
; Function compile flags: /Ogtp
; File z:\sources\lunor\repos\rougemeilland\palmtree.math.core.uint\palmtree.math.core.uint\memory.c
; File z:\sources\lunor\repos\rougemeilland\palmtree.math.core.uint\palmtree.math.core.uint\pmc_inline_func.h
; File z:\sources\lunor\repos\rougemeilland\palmtree.math.core.uint\palmtree.math.core.uint\memory.c
;	COMDAT _AllocateBlock
_TEXT	SEGMENT
_bits$ = 8						; size = 4
_allocated_block_words$ = 12				; size = 4
_code$ = 16						; size = 4
_AllocateBlock PROC					; COMDAT

; 156  : {

	push	ebp
	mov	ebp, esp
	push	esi
; File z:\sources\lunor\repos\rougemeilland\palmtree.math.core.uint\palmtree.math.core.uint\pmc_inline_func.h

; 187  :         return ((u + v - 1) / v);

	mov	esi, DWORD PTR _bits$[ebp]
	lea	esi, DWORD PTR [esi+31]
	shr	esi, 5
; File z:\sources\lunor\repos\rougemeilland\palmtree.math.core.uint\palmtree.math.core.uint\memory.c

; 163  : 	__UNIT_TYPE bytes = words2 * __UNIT_TYPE_BYTE_COUNT;

	lea	eax, DWORD PTR [esi*4+8]

; 164  : 	__UNIT_TYPE* buffer = (__UNIT_TYPE*)HeapAlloc(hLocalHeap, HEAP_ZERO_MEMORY, bytes);

	push	eax
	push	8
	push	DWORD PTR _hLocalHeap
	call	DWORD PTR __imp__HeapAlloc@12
	mov	ecx, eax

; 165  : 	if (buffer == NULL)

	test	ecx, ecx
	jne	SHORT $LN2@AllocateBl
	pop	esi

; 193  : }

	pop	ebp
	ret	0
$LN2@AllocateBl:

; 166  : 		return (NULL);
; 167  : 	buffer[0] = words1;
; 168  :     *allocated_block_words = words1;

	mov	eax, DWORD PTR _allocated_block_words$[ebp]
	mov	DWORD PTR [ecx], esi
	mov	DWORD PTR [eax], esi

; 169  : #ifdef _DEBUG
; 170  :     // 乱数もどきを生成する。
; 171  : #ifdef _M_IX86
; 172  :     __UNIT_TYPE r = GetTickCount();
; 173  : #elif defined(_M_IX64)
; 174  : #ifdef _MSC_VER
; 175  :     __UNIT_TYPE r = GetTickCount64();
; 176  : #elif defined(__GNUC__)
; 177  :     _UINT32_T temp = GetTickCount();
; 178  :     __UNIT_TYPE r = _FROMWORDTODWORD(temp, temp);
; 179  : #else
; 180  : #error unknown compiler
; 181  : #endif
; 182  : #else
; 183  : #error unknown platform
; 184  : #endif
; 185  :     __UNIT_TYPE check_code = configuration_info.MEMORY_VERIFICATION_ENABLED ? CalculateCheckCode(&buffer[1], words1) : CHECK_CODE_INIT | r;
; 186  : #else
; 187  :     __UNIT_TYPE check_code = 0;
; 188  : #endif
; 189  :     buffer[words1 + 1] = check_code ^ (__UNIT_TYPE)&buffer[words1 + 1];

	lea	eax, DWORD PTR [esi+1]
	lea	eax, DWORD PTR [ecx+eax*4]
	mov	DWORD PTR [eax], eax

; 190  :     if (code != NULL)

	mov	eax, DWORD PTR _code$[ebp]
	test	eax, eax
	je	SHORT $LN3@AllocateBl

; 191  :         *code = check_code;

	mov	DWORD PTR [eax], 0
$LN3@AllocateBl:

; 192  :     return (&buffer[1]);

	lea	eax, DWORD PTR [ecx+4]
	pop	esi

; 193  : }

	pop	ebp
	ret	0
_AllocateBlock ENDP
_TEXT	ENDS
; Function compile flags: /Ogtp
; File z:\sources\lunor\repos\rougemeilland\palmtree.math.core.uint\palmtree.math.core.uint\memory.c
;	COMDAT _DeallocateHeapArea
_TEXT	SEGMENT
_DeallocateHeapArea PROC				; COMDAT

; 604  :     if (hLocalHeap != NULL)

	mov	eax, DWORD PTR _hLocalHeap
	test	eax, eax
	je	SHORT $LN2@Deallocate

; 605  :     {
; 606  :         HeapDestroy(hLocalHeap);

	push	eax
	call	DWORD PTR __imp__HeapDestroy@4

; 607  :         hLocalHeap = NULL;

	mov	DWORD PTR _hLocalHeap, 0
$LN2@Deallocate:

; 608  :     }
; 609  : }

	ret	0
_DeallocateHeapArea ENDP
_TEXT	ENDS
; Function compile flags: /Ogtp
; File z:\sources\lunor\repos\rougemeilland\palmtree.math.core.uint\palmtree.math.core.uint\memory.c
;	COMDAT _AllocateHeapArea
_TEXT	SEGMENT
_AllocateHeapArea PROC					; COMDAT

; 596  :     hLocalHeap = HeapCreate(0, 0x1000, 0);

	push	0
	push	4096					; 00001000H
	push	0
	call	DWORD PTR __imp__HeapCreate@12

; 597  :     if (hLocalHeap == NULL)

	xor	ecx, ecx
	mov	DWORD PTR _hLocalHeap, eax
	test	eax, eax
	setne	cl
	mov	eax, ecx

; 598  :         return (FALSE);
; 599  :     return (TRUE);
; 600  : }

	ret	0
_AllocateHeapArea ENDP
_TEXT	ENDS
END
