; Listing generated by Microsoft (R) Optimizing Compiler Version 19.16.27027.1 

	TITLE	Z:\Sources\Lunor\Repos\rougemeilland\Palmtree.Math.Core.Uint\Palmtree.Math.Core.Uint\pmc_memory.cpp
	.686P
	.XMM
	include listing.inc
	.model	flat

INCLUDELIB MSVCRT
INCLUDELIB OLDNAMES

PUBLIC	?hLocalHeap@Internal@Core@Math@Palmtree@@3PAXA	; Palmtree::Math::Core::Internal::hLocalHeap
PUBLIC	?mcs@Internal@Core@Math@Palmtree@@3U_RTL_CRITICAL_SECTION@@A ; Palmtree::Math::Core::Internal::mcs
PUBLIC	?number_zero@Internal@Core@Math@Palmtree@@3U__tag_NUMBER_HEADER@1234@A ; Palmtree::Math::Core::Internal::number_zero
PUBLIC	?number_one@Internal@Core@Math@Palmtree@@3U__tag_NUMBER_HEADER@1234@A ; Palmtree::Math::Core::Internal::number_one
_BSS	SEGMENT
?hLocalHeap@Internal@Core@Math@Palmtree@@3PAXA DD 01H DUP (?) ; Palmtree::Math::Core::Internal::hLocalHeap
?mcs@Internal@Core@Math@Palmtree@@3U_RTL_CRITICAL_SECTION@@A DB 018H DUP (?) ; Palmtree::Math::Core::Internal::mcs
?number_zero@Internal@Core@Math@Palmtree@@3U__tag_NUMBER_HEADER@1234@A DB 02cH DUP (?) ; Palmtree::Math::Core::Internal::number_zero
?number_one@Internal@Core@Math@Palmtree@@3U__tag_NUMBER_HEADER@1234@A DB 02cH DUP (?) ; Palmtree::Math::Core::Internal::number_one
_BSS	ENDS
PUBLIC	??1exception@std@@UAE@XZ			; std::exception::~exception
PUBLIC	?what@exception@std@@UBEPBDXZ			; std::exception::what
PUBLIC	??_Gexception@std@@UAEPAXI@Z			; std::exception::`scalar deleting destructor'
PUBLIC	??0Exception@Internal@Core@Math@Palmtree@@QAE@ABV01234@@Z ; Palmtree::Math::Core::Internal::Exception::Exception
PUBLIC	??1Exception@Internal@Core@Math@Palmtree@@UAE@XZ ; Palmtree::Math::Core::Internal::Exception::~Exception
PUBLIC	??_GException@Internal@Core@Math@Palmtree@@UAEPAXI@Z ; Palmtree::Math::Core::Internal::Exception::`scalar deleting destructor'
PUBLIC	??0ArgumentException@Internal@Core@Math@Palmtree@@QAE@PB_W@Z ; Palmtree::Math::Core::Internal::ArgumentException::ArgumentException
PUBLIC	??0ArgumentException@Internal@Core@Math@Palmtree@@QAE@ABV01234@@Z ; Palmtree::Math::Core::Internal::ArgumentException::ArgumentException
PUBLIC	??1ArgumentException@Internal@Core@Math@Palmtree@@UAE@XZ ; Palmtree::Math::Core::Internal::ArgumentException::~ArgumentException
PUBLIC	??_GArgumentException@Internal@Core@Math@Palmtree@@UAEPAXI@Z ; Palmtree::Math::Core::Internal::ArgumentException::`scalar deleting destructor'
PUBLIC	??0ArgumentNullException@Internal@Core@Math@Palmtree@@QAE@PB_W0@Z ; Palmtree::Math::Core::Internal::ArgumentNullException::ArgumentNullException
PUBLIC	??0ArgumentNullException@Internal@Core@Math@Palmtree@@QAE@ABV01234@@Z ; Palmtree::Math::Core::Internal::ArgumentNullException::ArgumentNullException
PUBLIC	??1ArgumentNullException@Internal@Core@Math@Palmtree@@UAE@XZ ; Palmtree::Math::Core::Internal::ArgumentNullException::~ArgumentNullException
PUBLIC	??_GArgumentNullException@Internal@Core@Math@Palmtree@@UAEPAXI@Z ; Palmtree::Math::Core::Internal::ArgumentNullException::`scalar deleting destructor'
PUBLIC	??0NotEnoughMemoryException@Internal@Core@Math@Palmtree@@QAE@PB_W@Z ; Palmtree::Math::Core::Internal::NotEnoughMemoryException::NotEnoughMemoryException
PUBLIC	??0NotEnoughMemoryException@Internal@Core@Math@Palmtree@@QAE@ABV01234@@Z ; Palmtree::Math::Core::Internal::NotEnoughMemoryException::NotEnoughMemoryException
PUBLIC	??1NotEnoughMemoryException@Internal@Core@Math@Palmtree@@UAE@XZ ; Palmtree::Math::Core::Internal::NotEnoughMemoryException::~NotEnoughMemoryException
PUBLIC	??_GNotEnoughMemoryException@Internal@Core@Math@Palmtree@@UAEPAXI@Z ; Palmtree::Math::Core::Internal::NotEnoughMemoryException::`scalar deleting destructor'
PUBLIC	??0InternalErrorException@Internal@Core@Math@Palmtree@@QAE@PB_W0@Z ; Palmtree::Math::Core::Internal::InternalErrorException::InternalErrorException
PUBLIC	??0InternalErrorException@Internal@Core@Math@Palmtree@@QAE@ABV01234@@Z ; Palmtree::Math::Core::Internal::InternalErrorException::InternalErrorException
PUBLIC	??1InternalErrorException@Internal@Core@Math@Palmtree@@UAE@XZ ; Palmtree::Math::Core::Internal::InternalErrorException::~InternalErrorException
PUBLIC	??_GInternalErrorException@Internal@Core@Math@Palmtree@@UAEPAXI@Z ; Palmtree::Math::Core::Internal::InternalErrorException::`scalar deleting destructor'
PUBLIC	??0BadBufferException@Internal@Core@Math@Palmtree@@QAE@PB_W0@Z ; Palmtree::Math::Core::Internal::BadBufferException::BadBufferException
PUBLIC	??0BadBufferException@Internal@Core@Math@Palmtree@@QAE@ABV01234@@Z ; Palmtree::Math::Core::Internal::BadBufferException::BadBufferException
PUBLIC	??1BadBufferException@Internal@Core@Math@Palmtree@@UAE@XZ ; Palmtree::Math::Core::Internal::BadBufferException::~BadBufferException
PUBLIC	??_GBadBufferException@Internal@Core@Math@Palmtree@@UAEPAXI@Z ; Palmtree::Math::Core::Internal::BadBufferException::`scalar deleting destructor'
PUBLIC	?AllocateHeapArea@Internal@Core@Math@Palmtree@@YAHXZ ; Palmtree::Math::Core::Internal::AllocateHeapArea
PUBLIC	?DeallocateHeapArea@Internal@Core@Math@Palmtree@@YAXXZ ; Palmtree::Math::Core::Internal::DeallocateHeapArea
PUBLIC	?CommitNumber@Internal@Core@Math@Palmtree@@YAXPAU__tag_NUMBER_HEADER@1234@@Z ; Palmtree::Math::Core::Internal::CommitNumber
PUBLIC	?CheckNumber@Internal@Core@Math@Palmtree@@YAXPAU__tag_NUMBER_HEADER@1234@@Z ; Palmtree::Math::Core::Internal::CheckNumber
PUBLIC	?DuplicateNumber@Internal@Core@Math@Palmtree@@YAPAU__tag_NUMBER_HEADER@1234@PAU51234@@Z ; Palmtree::Math::Core::Internal::DuplicateNumber
PUBLIC	?Initialize_Memory@Internal@Core@Math@Palmtree@@YAHPAU_tag_PROCESSOR_FEATURES@1234@@Z ; Palmtree::Math::Core::Internal::Initialize_Memory
PUBLIC	?PMC_Dispose@Internal@Core@Math@Palmtree@@YGXPAU__tag_PMC_HANDLE_UINT@1234@@Z ; Palmtree::Math::Core::Internal::PMC_Dispose
PUBLIC	?PMC_GetConstantValue_I@Internal@Core@Math@Palmtree@@YGPAU__tag_PMC_HANDLE_UINT@1234@H@Z ; Palmtree::Math::Core::Internal::PMC_GetConstantValue_I
PUBLIC	?PMC_Clone_X@Internal@Core@Math@Palmtree@@YGPAU__tag_PMC_HANDLE_UINT@1234@PAU51234@@Z ; Palmtree::Math::Core::Internal::PMC_Clone_X
PUBLIC	?PMC_GetAllocatedMemorySize@Internal@Core@Math@Palmtree@@YG_KXZ ; Palmtree::Math::Core::Internal::PMC_GetAllocatedMemorySize
PUBLIC	??0Lock@Internal@Core@Math@Palmtree@@QAE@XZ	; Palmtree::Math::Core::Internal::Lock::Lock
PUBLIC	??1Lock@Internal@Core@Math@Palmtree@@QAE@XZ	; Palmtree::Math::Core::Internal::Lock::~Lock
PUBLIC	??1__ChainBufferTag@ResourceHolder@Internal@Core@Math@Palmtree@@UAE@XZ ; Palmtree::Math::Core::Internal::ResourceHolder::__ChainBufferTag::~__ChainBufferTag
PUBLIC	?Clear@__ChainBufferTag@ResourceHolder@Internal@Core@Math@Palmtree@@UAEXXZ ; Palmtree::Math::Core::Internal::ResourceHolder::__ChainBufferTag::Clear
PUBLIC	?Check@__ChainBufferTag@ResourceHolder@Internal@Core@Math@Palmtree@@UAEXXZ ; Palmtree::Math::Core::Internal::ResourceHolder::__ChainBufferTag::Check
PUBLIC	??_G__ChainBufferTag@ResourceHolder@Internal@Core@Math@Palmtree@@UAEPAXI@Z ; Palmtree::Math::Core::Internal::ResourceHolder::__ChainBufferTag::`scalar deleting destructor'
PUBLIC	??1__RootTag@ResourceHolder@Internal@Core@Math@Palmtree@@UAE@XZ ; Palmtree::Math::Core::Internal::ResourceHolder::__RootTag::~__RootTag
PUBLIC	?EqualsBufferAddress@__RootTag@ResourceHolder@Internal@Core@Math@Palmtree@@UAEHPAX@Z ; Palmtree::Math::Core::Internal::ResourceHolder::__RootTag::EqualsBufferAddress
PUBLIC	?Destruct@__RootTag@ResourceHolder@Internal@Core@Math@Palmtree@@UAEXXZ ; Palmtree::Math::Core::Internal::ResourceHolder::__RootTag::Destruct
PUBLIC	??_G__RootTag@ResourceHolder@Internal@Core@Math@Palmtree@@UAEPAXI@Z ; Palmtree::Math::Core::Internal::ResourceHolder::__RootTag::`scalar deleting destructor'
PUBLIC	??1ResourceHolder@Internal@Core@Math@Palmtree@@UAE@XZ ; Palmtree::Math::Core::Internal::ResourceHolder::~ResourceHolder
PUBLIC	??_GResourceHolder@Internal@Core@Math@Palmtree@@UAEPAXI@Z ; Palmtree::Math::Core::Internal::ResourceHolder::`scalar deleting destructor'
PUBLIC	??0__GenericChainBufferTag@ResourceHolderUINT@Internal@Core@Math@Palmtree@@QAE@PAX@Z ; Palmtree::Math::Core::Internal::ResourceHolderUINT::__GenericChainBufferTag::__GenericChainBufferTag
PUBLIC	??1__GenericChainBufferTag@ResourceHolderUINT@Internal@Core@Math@Palmtree@@UAE@XZ ; Palmtree::Math::Core::Internal::ResourceHolderUINT::__GenericChainBufferTag::~__GenericChainBufferTag
PUBLIC	?EqualsBufferAddress@__GenericChainBufferTag@ResourceHolderUINT@Internal@Core@Math@Palmtree@@UAEHPAX@Z ; Palmtree::Math::Core::Internal::ResourceHolderUINT::__GenericChainBufferTag::EqualsBufferAddress
PUBLIC	?Destruct@__GenericChainBufferTag@ResourceHolderUINT@Internal@Core@Math@Palmtree@@UAEXXZ ; Palmtree::Math::Core::Internal::ResourceHolderUINT::__GenericChainBufferTag::Destruct
PUBLIC	??_G__GenericChainBufferTag@ResourceHolderUINT@Internal@Core@Math@Palmtree@@UAEPAXI@Z ; Palmtree::Math::Core::Internal::ResourceHolderUINT::__GenericChainBufferTag::`scalar deleting destructor'
PUBLIC	??0____UNIT_TYPE_Array_ChainBufferTag@ResourceHolderUINT@Internal@Core@Math@Palmtree@@QAE@PAIII@Z ; Palmtree::Math::Core::Internal::ResourceHolderUINT::____UNIT_TYPE_Array_ChainBufferTag::____UNIT_TYPE_Array_ChainBufferTag
PUBLIC	??1____UNIT_TYPE_Array_ChainBufferTag@ResourceHolderUINT@Internal@Core@Math@Palmtree@@UAE@XZ ; Palmtree::Math::Core::Internal::ResourceHolderUINT::____UNIT_TYPE_Array_ChainBufferTag::~____UNIT_TYPE_Array_ChainBufferTag
PUBLIC	?EqualsBufferAddress@____UNIT_TYPE_Array_ChainBufferTag@ResourceHolderUINT@Internal@Core@Math@Palmtree@@UAEHPAX@Z ; Palmtree::Math::Core::Internal::ResourceHolderUINT::____UNIT_TYPE_Array_ChainBufferTag::EqualsBufferAddress
PUBLIC	?Clear@____UNIT_TYPE_Array_ChainBufferTag@ResourceHolderUINT@Internal@Core@Math@Palmtree@@UAEXXZ ; Palmtree::Math::Core::Internal::ResourceHolderUINT::____UNIT_TYPE_Array_ChainBufferTag::Clear
PUBLIC	?Check@____UNIT_TYPE_Array_ChainBufferTag@ResourceHolderUINT@Internal@Core@Math@Palmtree@@UAEXXZ ; Palmtree::Math::Core::Internal::ResourceHolderUINT::____UNIT_TYPE_Array_ChainBufferTag::Check
PUBLIC	?Destruct@____UNIT_TYPE_Array_ChainBufferTag@ResourceHolderUINT@Internal@Core@Math@Palmtree@@UAEXXZ ; Palmtree::Math::Core::Internal::ResourceHolderUINT::____UNIT_TYPE_Array_ChainBufferTag::Destruct
PUBLIC	??_G____UNIT_TYPE_Array_ChainBufferTag@ResourceHolderUINT@Internal@Core@Math@Palmtree@@UAEPAXI@Z ; Palmtree::Math::Core::Internal::ResourceHolderUINT::____UNIT_TYPE_Array_ChainBufferTag::`scalar deleting destructor'
PUBLIC	??0__StringChainBufferTag@ResourceHolderUINT@Internal@Core@Math@Palmtree@@QAE@PAIII@Z ; Palmtree::Math::Core::Internal::ResourceHolderUINT::__StringChainBufferTag::__StringChainBufferTag
PUBLIC	??1__StringChainBufferTag@ResourceHolderUINT@Internal@Core@Math@Palmtree@@UAE@XZ ; Palmtree::Math::Core::Internal::ResourceHolderUINT::__StringChainBufferTag::~__StringChainBufferTag
PUBLIC	?EqualsBufferAddress@__StringChainBufferTag@ResourceHolderUINT@Internal@Core@Math@Palmtree@@UAEHPAX@Z ; Palmtree::Math::Core::Internal::ResourceHolderUINT::__StringChainBufferTag::EqualsBufferAddress
PUBLIC	?Clear@__StringChainBufferTag@ResourceHolderUINT@Internal@Core@Math@Palmtree@@UAEXXZ ; Palmtree::Math::Core::Internal::ResourceHolderUINT::__StringChainBufferTag::Clear
PUBLIC	?Check@__StringChainBufferTag@ResourceHolderUINT@Internal@Core@Math@Palmtree@@UAEXXZ ; Palmtree::Math::Core::Internal::ResourceHolderUINT::__StringChainBufferTag::Check
PUBLIC	?Destruct@__StringChainBufferTag@ResourceHolderUINT@Internal@Core@Math@Palmtree@@UAEXXZ ; Palmtree::Math::Core::Internal::ResourceHolderUINT::__StringChainBufferTag::Destruct
PUBLIC	??_G__StringChainBufferTag@ResourceHolderUINT@Internal@Core@Math@Palmtree@@UAEPAXI@Z ; Palmtree::Math::Core::Internal::ResourceHolderUINT::__StringChainBufferTag::`scalar deleting destructor'
PUBLIC	??0__DynamicNumberChainBufferTag@ResourceHolderUINT@Internal@Core@Math@Palmtree@@QAE@PAU__tag_NUMBER_HEADER@2345@@Z ; Palmtree::Math::Core::Internal::ResourceHolderUINT::__DynamicNumberChainBufferTag::__DynamicNumberChainBufferTag
PUBLIC	??1__DynamicNumberChainBufferTag@ResourceHolderUINT@Internal@Core@Math@Palmtree@@UAE@XZ ; Palmtree::Math::Core::Internal::ResourceHolderUINT::__DynamicNumberChainBufferTag::~__DynamicNumberChainBufferTag
PUBLIC	?EqualsBufferAddress@__DynamicNumberChainBufferTag@ResourceHolderUINT@Internal@Core@Math@Palmtree@@UAEHPAX@Z ; Palmtree::Math::Core::Internal::ResourceHolderUINT::__DynamicNumberChainBufferTag::EqualsBufferAddress
PUBLIC	?Check@__DynamicNumberChainBufferTag@ResourceHolderUINT@Internal@Core@Math@Palmtree@@UAEXXZ ; Palmtree::Math::Core::Internal::ResourceHolderUINT::__DynamicNumberChainBufferTag::Check
PUBLIC	?Destruct@__DynamicNumberChainBufferTag@ResourceHolderUINT@Internal@Core@Math@Palmtree@@UAEXXZ ; Palmtree::Math::Core::Internal::ResourceHolderUINT::__DynamicNumberChainBufferTag::Destruct
PUBLIC	??_G__DynamicNumberChainBufferTag@ResourceHolderUINT@Internal@Core@Math@Palmtree@@UAEPAXI@Z ; Palmtree::Math::Core::Internal::ResourceHolderUINT::__DynamicNumberChainBufferTag::`scalar deleting destructor'
PUBLIC	??0__NumberHandleHookingChainBufferTag@ResourceHolderUINT@Internal@Core@Math@Palmtree@@QAE@PAU__tag_NUMBER_HEADER@2345@@Z ; Palmtree::Math::Core::Internal::ResourceHolderUINT::__NumberHandleHookingChainBufferTag::__NumberHandleHookingChainBufferTag
PUBLIC	??1__NumberHandleHookingChainBufferTag@ResourceHolderUINT@Internal@Core@Math@Palmtree@@UAE@XZ ; Palmtree::Math::Core::Internal::ResourceHolderUINT::__NumberHandleHookingChainBufferTag::~__NumberHandleHookingChainBufferTag
PUBLIC	?EqualsBufferAddress@__NumberHandleHookingChainBufferTag@ResourceHolderUINT@Internal@Core@Math@Palmtree@@UAEHPAX@Z ; Palmtree::Math::Core::Internal::ResourceHolderUINT::__NumberHandleHookingChainBufferTag::EqualsBufferAddress
PUBLIC	?Check@__NumberHandleHookingChainBufferTag@ResourceHolderUINT@Internal@Core@Math@Palmtree@@UAEXXZ ; Palmtree::Math::Core::Internal::ResourceHolderUINT::__NumberHandleHookingChainBufferTag::Check
PUBLIC	?Destruct@__NumberHandleHookingChainBufferTag@ResourceHolderUINT@Internal@Core@Math@Palmtree@@UAEXXZ ; Palmtree::Math::Core::Internal::ResourceHolderUINT::__NumberHandleHookingChainBufferTag::Destruct
PUBLIC	??_G__NumberHandleHookingChainBufferTag@ResourceHolderUINT@Internal@Core@Math@Palmtree@@UAEPAXI@Z ; Palmtree::Math::Core::Internal::ResourceHolderUINT::__NumberHandleHookingChainBufferTag::`scalar deleting destructor'
PUBLIC	??0__StaticNumberChainBufferTag@ResourceHolderUINT@Internal@Core@Math@Palmtree@@QAE@PAU__tag_NUMBER_HEADER@2345@@Z ; Palmtree::Math::Core::Internal::ResourceHolderUINT::__StaticNumberChainBufferTag::__StaticNumberChainBufferTag
PUBLIC	??1__StaticNumberChainBufferTag@ResourceHolderUINT@Internal@Core@Math@Palmtree@@UAE@XZ ; Palmtree::Math::Core::Internal::ResourceHolderUINT::__StaticNumberChainBufferTag::~__StaticNumberChainBufferTag
PUBLIC	?EqualsBufferAddress@__StaticNumberChainBufferTag@ResourceHolderUINT@Internal@Core@Math@Palmtree@@UAEHPAX@Z ; Palmtree::Math::Core::Internal::ResourceHolderUINT::__StaticNumberChainBufferTag::EqualsBufferAddress
PUBLIC	?Check@__StaticNumberChainBufferTag@ResourceHolderUINT@Internal@Core@Math@Palmtree@@UAEXXZ ; Palmtree::Math::Core::Internal::ResourceHolderUINT::__StaticNumberChainBufferTag::Check
PUBLIC	?Destruct@__StaticNumberChainBufferTag@ResourceHolderUINT@Internal@Core@Math@Palmtree@@UAEXXZ ; Palmtree::Math::Core::Internal::ResourceHolderUINT::__StaticNumberChainBufferTag::Destruct
PUBLIC	??_G__StaticNumberChainBufferTag@ResourceHolderUINT@Internal@Core@Math@Palmtree@@UAEPAXI@Z ; Palmtree::Math::Core::Internal::ResourceHolderUINT::__StaticNumberChainBufferTag::`scalar deleting destructor'
PUBLIC	??0ResourceHolderUINT@Internal@Core@Math@Palmtree@@QAE@XZ ; Palmtree::Math::Core::Internal::ResourceHolderUINT::ResourceHolderUINT
PUBLIC	??1ResourceHolderUINT@Internal@Core@Math@Palmtree@@UAE@XZ ; Palmtree::Math::Core::Internal::ResourceHolderUINT::~ResourceHolderUINT
PUBLIC	?AllocateBytes@ResourceHolderUINT@Internal@Core@Math@Palmtree@@QAEPAXI@Z ; Palmtree::Math::Core::Internal::ResourceHolderUINT::AllocateBytes
PUBLIC	?DeallocateBytes@ResourceHolderUINT@Internal@Core@Math@Palmtree@@QAEXPAX@Z ; Palmtree::Math::Core::Internal::ResourceHolderUINT::DeallocateBytes
PUBLIC	?UnlinkBytes@ResourceHolderUINT@Internal@Core@Math@Palmtree@@QAEXPAX@Z ; Palmtree::Math::Core::Internal::ResourceHolderUINT::UnlinkBytes
PUBLIC	?AllocateBlock@ResourceHolderUINT@Internal@Core@Math@Palmtree@@QAEPAII@Z ; Palmtree::Math::Core::Internal::ResourceHolderUINT::AllocateBlock
PUBLIC	?ClearBlock@ResourceHolderUINT@Internal@Core@Math@Palmtree@@QAEXPAI@Z ; Palmtree::Math::Core::Internal::ResourceHolderUINT::ClearBlock
PUBLIC	?DeallocateBlock@ResourceHolderUINT@Internal@Core@Math@Palmtree@@QAEXPAI@Z ; Palmtree::Math::Core::Internal::ResourceHolderUINT::DeallocateBlock
PUBLIC	?CheckBlock@ResourceHolderUINT@Internal@Core@Math@Palmtree@@QAEXPAI@Z ; Palmtree::Math::Core::Internal::ResourceHolderUINT::CheckBlock
PUBLIC	?UnlinkBlock@ResourceHolderUINT@Internal@Core@Math@Palmtree@@QAEXPAI@Z ; Palmtree::Math::Core::Internal::ResourceHolderUINT::UnlinkBlock
PUBLIC	?AllocateString@ResourceHolderUINT@Internal@Core@Math@Palmtree@@QAEPA_WI@Z ; Palmtree::Math::Core::Internal::ResourceHolderUINT::AllocateString
PUBLIC	?ClearString@ResourceHolderUINT@Internal@Core@Math@Palmtree@@QAEXPA_W@Z ; Palmtree::Math::Core::Internal::ResourceHolderUINT::ClearString
PUBLIC	?DeallocateString@ResourceHolderUINT@Internal@Core@Math@Palmtree@@QAEXPA_W@Z ; Palmtree::Math::Core::Internal::ResourceHolderUINT::DeallocateString
PUBLIC	?CheckString@ResourceHolderUINT@Internal@Core@Math@Palmtree@@QAEXPA_W@Z ; Palmtree::Math::Core::Internal::ResourceHolderUINT::CheckString
PUBLIC	?UnlinkString@ResourceHolderUINT@Internal@Core@Math@Palmtree@@QAEXPA_W@Z ; Palmtree::Math::Core::Internal::ResourceHolderUINT::UnlinkString
PUBLIC	?AllocateNumber@ResourceHolderUINT@Internal@Core@Math@Palmtree@@QAEPAU__tag_NUMBER_HEADER@2345@I@Z ; Palmtree::Math::Core::Internal::ResourceHolderUINT::AllocateNumber
PUBLIC	?HookNumber@ResourceHolderUINT@Internal@Core@Math@Palmtree@@QAEXPAU__tag_NUMBER_HEADER@2345@@Z ; Palmtree::Math::Core::Internal::ResourceHolderUINT::HookNumber
PUBLIC	?DeallocateNumber@ResourceHolderUINT@Internal@Core@Math@Palmtree@@QAEXPAU__tag_NUMBER_HEADER@2345@@Z ; Palmtree::Math::Core::Internal::ResourceHolderUINT::DeallocateNumber
PUBLIC	?CheckNumber@ResourceHolderUINT@Internal@Core@Math@Palmtree@@QAEXPAU__tag_NUMBER_HEADER@2345@@Z ; Palmtree::Math::Core::Internal::ResourceHolderUINT::CheckNumber
PUBLIC	?UnlinkNumber@ResourceHolderUINT@Internal@Core@Math@Palmtree@@QAEXPAU__tag_NUMBER_HEADER@2345@@Z ; Palmtree::Math::Core::Internal::ResourceHolderUINT::UnlinkNumber
PUBLIC	?AttatchStaticNumber@ResourceHolderUINT@Internal@Core@Math@Palmtree@@QAEXPAU__tag_NUMBER_HEADER@2345@I@Z ; Palmtree::Math::Core::Internal::ResourceHolderUINT::AttatchStaticNumber
PUBLIC	?DetatchStaticNumber@ResourceHolderUINT@Internal@Core@Math@Palmtree@@QAEXPAU__tag_NUMBER_HEADER@2345@@Z ; Palmtree::Math::Core::Internal::ResourceHolderUINT::DetatchStaticNumber
PUBLIC	?UnlinkStatickNumber@ResourceHolderUINT@Internal@Core@Math@Palmtree@@QAEXPAU__tag_NUMBER_HEADER@2345@@Z ; Palmtree::Math::Core::Internal::ResourceHolderUINT::UnlinkStatickNumber
PUBLIC	??_GResourceHolderUINT@Internal@Core@Math@Palmtree@@UAEPAXI@Z ; Palmtree::Math::Core::Internal::ResourceHolderUINT::`scalar deleting destructor'
PUBLIC	??_7exception@std@@6B@				; std::exception::`vftable'
PUBLIC	??_C@_0BC@EOODALEL@Unknown?5exception@		; `string'
PUBLIC	??_7Exception@Internal@Core@Math@Palmtree@@6B@	; Palmtree::Math::Core::Internal::Exception::`vftable'
PUBLIC	??_7ArgumentException@Internal@Core@Math@Palmtree@@6B@ ; Palmtree::Math::Core::Internal::ArgumentException::`vftable'
PUBLIC	??_7ArgumentNullException@Internal@Core@Math@Palmtree@@6B@ ; Palmtree::Math::Core::Internal::ArgumentNullException::`vftable'
PUBLIC	??_7NotEnoughMemoryException@Internal@Core@Math@Palmtree@@6B@ ; Palmtree::Math::Core::Internal::NotEnoughMemoryException::`vftable'
PUBLIC	??_7InternalErrorException@Internal@Core@Math@Palmtree@@6B@ ; Palmtree::Math::Core::Internal::InternalErrorException::`vftable'
PUBLIC	??_7BadBufferException@Internal@Core@Math@Palmtree@@6B@ ; Palmtree::Math::Core::Internal::BadBufferException::`vftable'
PUBLIC	??_7__ChainBufferTag@ResourceHolder@Internal@Core@Math@Palmtree@@6B@ ; Palmtree::Math::Core::Internal::ResourceHolder::__ChainBufferTag::`vftable'
PUBLIC	??_7__RootTag@ResourceHolder@Internal@Core@Math@Palmtree@@6B@ ; Palmtree::Math::Core::Internal::ResourceHolder::__RootTag::`vftable'
PUBLIC	??_7ResourceHolder@Internal@Core@Math@Palmtree@@6B@ ; Palmtree::Math::Core::Internal::ResourceHolder::`vftable'
PUBLIC	__TI2?AVInternalErrorException@Internal@Core@Math@Palmtree@@
PUBLIC	__CTA2?AVInternalErrorException@Internal@Core@Math@Palmtree@@
PUBLIC	??_R0?AVInternalErrorException@Internal@Core@Math@Palmtree@@@8 ; Palmtree::Math::Core::Internal::InternalErrorException `RTTI Type Descriptor'
PUBLIC	__CT??_R0?AVInternalErrorException@Internal@Core@Math@Palmtree@@@8??0InternalErrorException@Internal@Core@Math@Palmtree@@QAE@ABV01234@@Z24
PUBLIC	??_R0?AVException@Internal@Core@Math@Palmtree@@@8 ; Palmtree::Math::Core::Internal::Exception `RTTI Type Descriptor'
PUBLIC	__CT??_R0?AVException@Internal@Core@Math@Palmtree@@@8??0Exception@Internal@Core@Math@Palmtree@@QAE@ABV01234@@Z24
PUBLIC	??_C@_1IM@LGDAALAB@?$AAp?$AAm?$AAc?$AA_?$AAr?$AAe?$AAs?$AAo?$AAu?$AAr?$AAc?$AAe?$AAh?$AAo?$AAl@ ; `string'
PUBLIC	??_C@_1CG@CNOPPENL@?$PP?$II?$AA?$BP?$AAW?$AAf?$AAD?$AAj?$AAD?$PP?$LD?$PP?$PM?$PP?I?$AAk?$AA0?$AAT?$AAW?$AA?$HO@ ; `string'
PUBLIC	??_7__GenericChainBufferTag@ResourceHolderUINT@Internal@Core@Math@Palmtree@@6B@ ; Palmtree::Math::Core::Internal::ResourceHolderUINT::__GenericChainBufferTag::`vftable'
PUBLIC	??_7____UNIT_TYPE_Array_ChainBufferTag@ResourceHolderUINT@Internal@Core@Math@Palmtree@@6B@ ; Palmtree::Math::Core::Internal::ResourceHolderUINT::____UNIT_TYPE_Array_ChainBufferTag::`vftable'
PUBLIC	??_7__StringChainBufferTag@ResourceHolderUINT@Internal@Core@Math@Palmtree@@6B@ ; Palmtree::Math::Core::Internal::ResourceHolderUINT::__StringChainBufferTag::`vftable'
PUBLIC	??_7__DynamicNumberChainBufferTag@ResourceHolderUINT@Internal@Core@Math@Palmtree@@6B@ ; Palmtree::Math::Core::Internal::ResourceHolderUINT::__DynamicNumberChainBufferTag::`vftable'
PUBLIC	??_7__NumberHandleHookingChainBufferTag@ResourceHolderUINT@Internal@Core@Math@Palmtree@@6B@ ; Palmtree::Math::Core::Internal::ResourceHolderUINT::__NumberHandleHookingChainBufferTag::`vftable'
PUBLIC	??_7__StaticNumberChainBufferTag@ResourceHolderUINT@Internal@Core@Math@Palmtree@@6B@ ; Palmtree::Math::Core::Internal::ResourceHolderUINT::__StaticNumberChainBufferTag::`vftable'
PUBLIC	??_7ResourceHolderUINT@Internal@Core@Math@Palmtree@@6B@ ; Palmtree::Math::Core::Internal::ResourceHolderUINT::`vftable'
PUBLIC	__TI2?AVNotEnoughMemoryException@Internal@Core@Math@Palmtree@@
PUBLIC	__CTA2?AVNotEnoughMemoryException@Internal@Core@Math@Palmtree@@
PUBLIC	??_R0?AVNotEnoughMemoryException@Internal@Core@Math@Palmtree@@@8 ; Palmtree::Math::Core::Internal::NotEnoughMemoryException `RTTI Type Descriptor'
PUBLIC	__CT??_R0?AVNotEnoughMemoryException@Internal@Core@Math@Palmtree@@@8??0NotEnoughMemoryException@Internal@Core@Math@Palmtree@@QAE@ABV01234@@Z24
PUBLIC	??_C@_1CE@PIPAACFA@?$PP?R?$PP?$PM?$PP?W?$PP?a?$PP?b?$PP?j?$AA?$BI?$PP?$NP?$AAL?$AA?$AN?$PP?$LD?$AAW?$AAf?$AAD?$AA?$HO@ ; `string'
PUBLIC	__TI2?AVBadBufferException@Internal@Core@Math@Palmtree@@
PUBLIC	__CTA2?AVBadBufferException@Internal@Core@Math@Palmtree@@
PUBLIC	??_R0?AVBadBufferException@Internal@Core@Math@Palmtree@@@8 ; Palmtree::Math::Core::Internal::BadBufferException `RTTI Type Descriptor'
PUBLIC	__CT??_R0?AVBadBufferException@Internal@Core@Math@Palmtree@@@8??0BadBufferException@Internal@Core@Math@Palmtree@@QAE@ABV01234@@Z28
PUBLIC	??_C@_1EC@LJDADMNE@?$AAp?$AAm?$AAc?$AA_?$AAm?$AAe?$AAm?$AAo?$AAr?$AAy?$AA?4?$AAc?$AAp?$AAp?$AA?$DL@ ; `string'
PUBLIC	??_C@_1CE@JCIJLGOL@?$PP?a?$PP?b?$PP?j?$AA?$BI?$PP?$NP?$AAn?$AA?$AN?$AAt?$AA?$AI?$PP?$JC?$AA?$BM?$PP?z?$AAW?$AA?$HO?$AAW@ ; `string'
PUBLIC	??_C@_1EC@KLIFJDDK@?$AAp?$AAm?$AAc?$AA_?$AAm?$AAe?$AAm?$AAo?$AAr?$AAy?$AA?4?$AAc?$AAp?$AAp?$AA?$DL@ ; `string'
PUBLIC	??_C@_1DK@CHNNDIJP@?$AAp?$AAm?$AAc?$AA_?$AAm?$AAe?$AAm?$AAo?$AAr?$AAy?$AA?4?$AAc?$AAp?$AAp?$AA?$DL@ ; `string'
PUBLIC	__TI2?AVArgumentException@Internal@Core@Math@Palmtree@@
PUBLIC	__CTA2?AVArgumentException@Internal@Core@Math@Palmtree@@
PUBLIC	??_R0?AVArgumentException@Internal@Core@Math@Palmtree@@@8 ; Palmtree::Math::Core::Internal::ArgumentException `RTTI Type Descriptor'
PUBLIC	__CT??_R0?AVArgumentException@Internal@Core@Math@Palmtree@@@8??0ArgumentException@Internal@Core@Math@Palmtree@@QAE@ABV01234@@Z24
PUBLIC	??_C@_1BO@CNNKDNIF@?$AA?$BF?$AAp?$AAt?$AAy?$AAp?$AAe?$AAL?$AA?$CK?$PP?e?$AAn?$AA$?$AAg?$AAY?$AA?$AC@ ; `string'
PUBLIC	__TI2?AVArgumentNullException@Internal@Core@Math@Palmtree@@
PUBLIC	__CTA2?AVArgumentNullException@Internal@Core@Math@Palmtree@@
PUBLIC	??_R0?AVArgumentNullException@Internal@Core@Math@Palmtree@@@8 ; Palmtree::Math::Core::Internal::ArgumentNullException `RTTI Type Descriptor'
PUBLIC	__CT??_R0?AVArgumentNullException@Internal@Core@Math@Palmtree@@@8??0ArgumentNullException@Internal@Core@Math@Palmtree@@QAE@ABV01234@@Z24
PUBLIC	??_C@_13HADAKIJA@?$AAx@				; `string'
PUBLIC	??_C@_1CK@ECFIEPAC@?$AA?$BF?$AAp?$AAk?$AAn?$AAu?$AAl?$AAl?$AAp?$AAt?$AAr?$AAL?$AA?$AO?$AAH?$PP?$IJ?$PP?$IM@ ; `string'
PUBLIC	??_C@_1GC@NKBJLGGD@?$AAp?$AAm?$AAc?$AA_?$AAm?$AAe?$AAm?$AAo?$AAr?$AAy?$AA?4?$AAc?$AAp?$AAp?$AA?$DL@ ; `string'
PUBLIC	??_C@_1GA@CKNLMDDM@?$AAp?$AAm?$AAc?$AA_?$AAm?$AAe?$AAm?$AAo?$AAr?$AAy?$AA?4?$AAc?$AAp?$AAp?$AA?$DL@ ; `string'
PUBLIC	??_C@_1GC@OHMCPHEJ@?$AAp?$AAm?$AAc?$AA_?$AAm?$AAe?$AAm?$AAo?$AAr?$AAy?$AA?4?$AAc?$AAp?$AAp?$AA?$DL@ ; `string'
PUBLIC	??_C@_1GC@BDIILODP@?$AAp?$AAm?$AAc?$AA_?$AAm?$AAe?$AAm?$AAo?$AAr?$AAy?$AA?4?$AAc?$AAp?$AAp?$AA?$DL@ ; `string'
PUBLIC	??_C@_1GE@JOBLOAGO@?$AAp?$AAm?$AAc?$AA_?$AAm?$AAe?$AAm?$AAo?$AAr?$AAy?$AA?4?$AAc?$AAp?$AAp?$AA?$DL@ ; `string'
PUBLIC	??_C@_1HC@IJKAGPMK@?$AAp?$AAm?$AAc?$AA_?$AAm?$AAe?$AAm?$AAo?$AAr?$AAy?$AA?4?$AAc?$AAp?$AAp?$AA?$DL@ ; `string'
PUBLIC	??_C@_1FA@MMJFBJGB@?$AAp?$AAm?$AAc?$AA_?$AAm?$AAe?$AAm?$AAo?$AAr?$AAy?$AA?4?$AAc?$AAp?$AAp?$AA?$DL@ ; `string'
PUBLIC	??_C@_1BM@FCPAHMHB@?$PP?$IF?$PP?h?$PP?$KI?$PP?i?$PP?$PM?$AAL?$AAz?$AA?$BP?$AAW?$AA?$HO?$AAW?$AA_?$AA?$AC@ ; `string'
PUBLIC	??_C@_1FA@NOCALGIP@?$AAp?$AAm?$AAc?$AA_?$AAm?$AAe?$AAm?$AAo?$AAr?$AAy?$AA?4?$AAc?$AAp?$AAp?$AA?$DL@ ; `string'
PUBLIC	??_C@_1FA@GGJMNBOK@?$AAp?$AAm?$AAc?$AA_?$AAm?$AAe?$AAm?$AAo?$AAr?$AAy?$AA?4?$AAc?$AAp?$AAp?$AA?$DL@ ; `string'
PUBLIC	??_R4exception@std@@6B@				; std::exception::`RTTI Complete Object Locator'
PUBLIC	??_R0?AVexception@std@@@8			; std::exception `RTTI Type Descriptor'
PUBLIC	??_R3exception@std@@8				; std::exception::`RTTI Class Hierarchy Descriptor'
PUBLIC	??_R2exception@std@@8				; std::exception::`RTTI Base Class Array'
PUBLIC	??_R1A@?0A@EA@exception@std@@8			; std::exception::`RTTI Base Class Descriptor at (0,-1,0,64)'
PUBLIC	??_R4Exception@Internal@Core@Math@Palmtree@@6B@	; Palmtree::Math::Core::Internal::Exception::`RTTI Complete Object Locator'
PUBLIC	??_R3Exception@Internal@Core@Math@Palmtree@@8	; Palmtree::Math::Core::Internal::Exception::`RTTI Class Hierarchy Descriptor'
PUBLIC	??_R2Exception@Internal@Core@Math@Palmtree@@8	; Palmtree::Math::Core::Internal::Exception::`RTTI Base Class Array'
PUBLIC	??_R1A@?0A@EA@Exception@Internal@Core@Math@Palmtree@@8 ; Palmtree::Math::Core::Internal::Exception::`RTTI Base Class Descriptor at (0,-1,0,64)'
PUBLIC	??_R1A@?0A@EN@exception@std@@8			; std::exception::`RTTI Base Class Descriptor at (0,-1,0,77)'
PUBLIC	??_R4ArgumentException@Internal@Core@Math@Palmtree@@6B@ ; Palmtree::Math::Core::Internal::ArgumentException::`RTTI Complete Object Locator'
PUBLIC	??_R3ArgumentException@Internal@Core@Math@Palmtree@@8 ; Palmtree::Math::Core::Internal::ArgumentException::`RTTI Class Hierarchy Descriptor'
PUBLIC	??_R2ArgumentException@Internal@Core@Math@Palmtree@@8 ; Palmtree::Math::Core::Internal::ArgumentException::`RTTI Base Class Array'
PUBLIC	??_R1A@?0A@EA@ArgumentException@Internal@Core@Math@Palmtree@@8 ; Palmtree::Math::Core::Internal::ArgumentException::`RTTI Base Class Descriptor at (0,-1,0,64)'
PUBLIC	??_R4ArgumentNullException@Internal@Core@Math@Palmtree@@6B@ ; Palmtree::Math::Core::Internal::ArgumentNullException::`RTTI Complete Object Locator'
PUBLIC	??_R3ArgumentNullException@Internal@Core@Math@Palmtree@@8 ; Palmtree::Math::Core::Internal::ArgumentNullException::`RTTI Class Hierarchy Descriptor'
PUBLIC	??_R2ArgumentNullException@Internal@Core@Math@Palmtree@@8 ; Palmtree::Math::Core::Internal::ArgumentNullException::`RTTI Base Class Array'
PUBLIC	??_R1A@?0A@EA@ArgumentNullException@Internal@Core@Math@Palmtree@@8 ; Palmtree::Math::Core::Internal::ArgumentNullException::`RTTI Base Class Descriptor at (0,-1,0,64)'
PUBLIC	??_R4NotEnoughMemoryException@Internal@Core@Math@Palmtree@@6B@ ; Palmtree::Math::Core::Internal::NotEnoughMemoryException::`RTTI Complete Object Locator'
PUBLIC	??_R3NotEnoughMemoryException@Internal@Core@Math@Palmtree@@8 ; Palmtree::Math::Core::Internal::NotEnoughMemoryException::`RTTI Class Hierarchy Descriptor'
PUBLIC	??_R2NotEnoughMemoryException@Internal@Core@Math@Palmtree@@8 ; Palmtree::Math::Core::Internal::NotEnoughMemoryException::`RTTI Base Class Array'
PUBLIC	??_R1A@?0A@EA@NotEnoughMemoryException@Internal@Core@Math@Palmtree@@8 ; Palmtree::Math::Core::Internal::NotEnoughMemoryException::`RTTI Base Class Descriptor at (0,-1,0,64)'
PUBLIC	??_R4InternalErrorException@Internal@Core@Math@Palmtree@@6B@ ; Palmtree::Math::Core::Internal::InternalErrorException::`RTTI Complete Object Locator'
PUBLIC	??_R3InternalErrorException@Internal@Core@Math@Palmtree@@8 ; Palmtree::Math::Core::Internal::InternalErrorException::`RTTI Class Hierarchy Descriptor'
PUBLIC	??_R2InternalErrorException@Internal@Core@Math@Palmtree@@8 ; Palmtree::Math::Core::Internal::InternalErrorException::`RTTI Base Class Array'
PUBLIC	??_R1A@?0A@EA@InternalErrorException@Internal@Core@Math@Palmtree@@8 ; Palmtree::Math::Core::Internal::InternalErrorException::`RTTI Base Class Descriptor at (0,-1,0,64)'
PUBLIC	??_R4BadBufferException@Internal@Core@Math@Palmtree@@6B@ ; Palmtree::Math::Core::Internal::BadBufferException::`RTTI Complete Object Locator'
PUBLIC	??_R3BadBufferException@Internal@Core@Math@Palmtree@@8 ; Palmtree::Math::Core::Internal::BadBufferException::`RTTI Class Hierarchy Descriptor'
PUBLIC	??_R2BadBufferException@Internal@Core@Math@Palmtree@@8 ; Palmtree::Math::Core::Internal::BadBufferException::`RTTI Base Class Array'
PUBLIC	??_R1A@?0A@EA@BadBufferException@Internal@Core@Math@Palmtree@@8 ; Palmtree::Math::Core::Internal::BadBufferException::`RTTI Base Class Descriptor at (0,-1,0,64)'
PUBLIC	??_R4ResourceHolder@Internal@Core@Math@Palmtree@@6B@ ; Palmtree::Math::Core::Internal::ResourceHolder::`RTTI Complete Object Locator'
PUBLIC	??_R0?AVResourceHolder@Internal@Core@Math@Palmtree@@@8 ; Palmtree::Math::Core::Internal::ResourceHolder `RTTI Type Descriptor'
PUBLIC	??_R3ResourceHolder@Internal@Core@Math@Palmtree@@8 ; Palmtree::Math::Core::Internal::ResourceHolder::`RTTI Class Hierarchy Descriptor'
PUBLIC	??_R2ResourceHolder@Internal@Core@Math@Palmtree@@8 ; Palmtree::Math::Core::Internal::ResourceHolder::`RTTI Base Class Array'
PUBLIC	??_R1A@?0A@EA@ResourceHolder@Internal@Core@Math@Palmtree@@8 ; Palmtree::Math::Core::Internal::ResourceHolder::`RTTI Base Class Descriptor at (0,-1,0,64)'
PUBLIC	??_R4__ChainBufferTag@ResourceHolder@Internal@Core@Math@Palmtree@@6B@ ; Palmtree::Math::Core::Internal::ResourceHolder::__ChainBufferTag::`RTTI Complete Object Locator'
PUBLIC	??_R0?AV__ChainBufferTag@ResourceHolder@Internal@Core@Math@Palmtree@@@8 ; Palmtree::Math::Core::Internal::ResourceHolder::__ChainBufferTag `RTTI Type Descriptor'
PUBLIC	??_R3__ChainBufferTag@ResourceHolder@Internal@Core@Math@Palmtree@@8 ; Palmtree::Math::Core::Internal::ResourceHolder::__ChainBufferTag::`RTTI Class Hierarchy Descriptor'
PUBLIC	??_R2__ChainBufferTag@ResourceHolder@Internal@Core@Math@Palmtree@@8 ; Palmtree::Math::Core::Internal::ResourceHolder::__ChainBufferTag::`RTTI Base Class Array'
PUBLIC	??_R1A@?0A@EA@__ChainBufferTag@ResourceHolder@Internal@Core@Math@Palmtree@@8 ; Palmtree::Math::Core::Internal::ResourceHolder::__ChainBufferTag::`RTTI Base Class Descriptor at (0,-1,0,64)'
PUBLIC	??_R4__RootTag@ResourceHolder@Internal@Core@Math@Palmtree@@6B@ ; Palmtree::Math::Core::Internal::ResourceHolder::__RootTag::`RTTI Complete Object Locator'
PUBLIC	??_R0?AV__RootTag@ResourceHolder@Internal@Core@Math@Palmtree@@@8 ; Palmtree::Math::Core::Internal::ResourceHolder::__RootTag `RTTI Type Descriptor'
PUBLIC	??_R3__RootTag@ResourceHolder@Internal@Core@Math@Palmtree@@8 ; Palmtree::Math::Core::Internal::ResourceHolder::__RootTag::`RTTI Class Hierarchy Descriptor'
PUBLIC	??_R2__RootTag@ResourceHolder@Internal@Core@Math@Palmtree@@8 ; Palmtree::Math::Core::Internal::ResourceHolder::__RootTag::`RTTI Base Class Array'
PUBLIC	??_R1A@?0A@EA@__RootTag@ResourceHolder@Internal@Core@Math@Palmtree@@8 ; Palmtree::Math::Core::Internal::ResourceHolder::__RootTag::`RTTI Base Class Descriptor at (0,-1,0,64)'
PUBLIC	??_R4ResourceHolderUINT@Internal@Core@Math@Palmtree@@6B@ ; Palmtree::Math::Core::Internal::ResourceHolderUINT::`RTTI Complete Object Locator'
PUBLIC	??_R0?AVResourceHolderUINT@Internal@Core@Math@Palmtree@@@8 ; Palmtree::Math::Core::Internal::ResourceHolderUINT `RTTI Type Descriptor'
PUBLIC	??_R3ResourceHolderUINT@Internal@Core@Math@Palmtree@@8 ; Palmtree::Math::Core::Internal::ResourceHolderUINT::`RTTI Class Hierarchy Descriptor'
PUBLIC	??_R2ResourceHolderUINT@Internal@Core@Math@Palmtree@@8 ; Palmtree::Math::Core::Internal::ResourceHolderUINT::`RTTI Base Class Array'
PUBLIC	??_R1A@?0A@EA@ResourceHolderUINT@Internal@Core@Math@Palmtree@@8 ; Palmtree::Math::Core::Internal::ResourceHolderUINT::`RTTI Base Class Descriptor at (0,-1,0,64)'
PUBLIC	??_R1A@?0A@EN@ResourceHolder@Internal@Core@Math@Palmtree@@8 ; Palmtree::Math::Core::Internal::ResourceHolder::`RTTI Base Class Descriptor at (0,-1,0,77)'
PUBLIC	??_R4__GenericChainBufferTag@ResourceHolderUINT@Internal@Core@Math@Palmtree@@6B@ ; Palmtree::Math::Core::Internal::ResourceHolderUINT::__GenericChainBufferTag::`RTTI Complete Object Locator'
PUBLIC	??_R0?AV__GenericChainBufferTag@ResourceHolderUINT@Internal@Core@Math@Palmtree@@@8 ; Palmtree::Math::Core::Internal::ResourceHolderUINT::__GenericChainBufferTag `RTTI Type Descriptor'
PUBLIC	??_R3__GenericChainBufferTag@ResourceHolderUINT@Internal@Core@Math@Palmtree@@8 ; Palmtree::Math::Core::Internal::ResourceHolderUINT::__GenericChainBufferTag::`RTTI Class Hierarchy Descriptor'
PUBLIC	??_R2__GenericChainBufferTag@ResourceHolderUINT@Internal@Core@Math@Palmtree@@8 ; Palmtree::Math::Core::Internal::ResourceHolderUINT::__GenericChainBufferTag::`RTTI Base Class Array'
PUBLIC	??_R1A@?0A@EA@__GenericChainBufferTag@ResourceHolderUINT@Internal@Core@Math@Palmtree@@8 ; Palmtree::Math::Core::Internal::ResourceHolderUINT::__GenericChainBufferTag::`RTTI Base Class Descriptor at (0,-1,0,64)'
PUBLIC	??_R4____UNIT_TYPE_Array_ChainBufferTag@ResourceHolderUINT@Internal@Core@Math@Palmtree@@6B@ ; Palmtree::Math::Core::Internal::ResourceHolderUINT::____UNIT_TYPE_Array_ChainBufferTag::`RTTI Complete Object Locator'
PUBLIC	??_R0?AV____UNIT_TYPE_Array_ChainBufferTag@ResourceHolderUINT@Internal@Core@Math@Palmtree@@@8 ; Palmtree::Math::Core::Internal::ResourceHolderUINT::____UNIT_TYPE_Array_ChainBufferTag `RTTI Type Descriptor'
PUBLIC	??_R3____UNIT_TYPE_Array_ChainBufferTag@ResourceHolderUINT@Internal@Core@Math@Palmtree@@8 ; Palmtree::Math::Core::Internal::ResourceHolderUINT::____UNIT_TYPE_Array_ChainBufferTag::`RTTI Class Hierarchy Descriptor'
PUBLIC	??_R2____UNIT_TYPE_Array_ChainBufferTag@ResourceHolderUINT@Internal@Core@Math@Palmtree@@8 ; Palmtree::Math::Core::Internal::ResourceHolderUINT::____UNIT_TYPE_Array_ChainBufferTag::`RTTI Base Class Array'
PUBLIC	??_R1A@?0A@EA@____UNIT_TYPE_Array_ChainBufferTag@ResourceHolderUINT@Internal@Core@Math@Palmtree@@8 ; Palmtree::Math::Core::Internal::ResourceHolderUINT::____UNIT_TYPE_Array_ChainBufferTag::`RTTI Base Class Descriptor at (0,-1,0,64)'
PUBLIC	??_R4__StringChainBufferTag@ResourceHolderUINT@Internal@Core@Math@Palmtree@@6B@ ; Palmtree::Math::Core::Internal::ResourceHolderUINT::__StringChainBufferTag::`RTTI Complete Object Locator'
PUBLIC	??_R0?AV__StringChainBufferTag@ResourceHolderUINT@Internal@Core@Math@Palmtree@@@8 ; Palmtree::Math::Core::Internal::ResourceHolderUINT::__StringChainBufferTag `RTTI Type Descriptor'
PUBLIC	??_R3__StringChainBufferTag@ResourceHolderUINT@Internal@Core@Math@Palmtree@@8 ; Palmtree::Math::Core::Internal::ResourceHolderUINT::__StringChainBufferTag::`RTTI Class Hierarchy Descriptor'
PUBLIC	??_R2__StringChainBufferTag@ResourceHolderUINT@Internal@Core@Math@Palmtree@@8 ; Palmtree::Math::Core::Internal::ResourceHolderUINT::__StringChainBufferTag::`RTTI Base Class Array'
PUBLIC	??_R1A@?0A@EA@__StringChainBufferTag@ResourceHolderUINT@Internal@Core@Math@Palmtree@@8 ; Palmtree::Math::Core::Internal::ResourceHolderUINT::__StringChainBufferTag::`RTTI Base Class Descriptor at (0,-1,0,64)'
PUBLIC	??_R4__DynamicNumberChainBufferTag@ResourceHolderUINT@Internal@Core@Math@Palmtree@@6B@ ; Palmtree::Math::Core::Internal::ResourceHolderUINT::__DynamicNumberChainBufferTag::`RTTI Complete Object Locator'
PUBLIC	??_R0?AV__DynamicNumberChainBufferTag@ResourceHolderUINT@Internal@Core@Math@Palmtree@@@8 ; Palmtree::Math::Core::Internal::ResourceHolderUINT::__DynamicNumberChainBufferTag `RTTI Type Descriptor'
PUBLIC	??_R3__DynamicNumberChainBufferTag@ResourceHolderUINT@Internal@Core@Math@Palmtree@@8 ; Palmtree::Math::Core::Internal::ResourceHolderUINT::__DynamicNumberChainBufferTag::`RTTI Class Hierarchy Descriptor'
PUBLIC	??_R2__DynamicNumberChainBufferTag@ResourceHolderUINT@Internal@Core@Math@Palmtree@@8 ; Palmtree::Math::Core::Internal::ResourceHolderUINT::__DynamicNumberChainBufferTag::`RTTI Base Class Array'
PUBLIC	??_R1A@?0A@EA@__DynamicNumberChainBufferTag@ResourceHolderUINT@Internal@Core@Math@Palmtree@@8 ; Palmtree::Math::Core::Internal::ResourceHolderUINT::__DynamicNumberChainBufferTag::`RTTI Base Class Descriptor at (0,-1,0,64)'
PUBLIC	??_R4__NumberHandleHookingChainBufferTag@ResourceHolderUINT@Internal@Core@Math@Palmtree@@6B@ ; Palmtree::Math::Core::Internal::ResourceHolderUINT::__NumberHandleHookingChainBufferTag::`RTTI Complete Object Locator'
PUBLIC	??_R0?AV__NumberHandleHookingChainBufferTag@ResourceHolderUINT@Internal@Core@Math@Palmtree@@@8 ; Palmtree::Math::Core::Internal::ResourceHolderUINT::__NumberHandleHookingChainBufferTag `RTTI Type Descriptor'
PUBLIC	??_R3__NumberHandleHookingChainBufferTag@ResourceHolderUINT@Internal@Core@Math@Palmtree@@8 ; Palmtree::Math::Core::Internal::ResourceHolderUINT::__NumberHandleHookingChainBufferTag::`RTTI Class Hierarchy Descriptor'
PUBLIC	??_R2__NumberHandleHookingChainBufferTag@ResourceHolderUINT@Internal@Core@Math@Palmtree@@8 ; Palmtree::Math::Core::Internal::ResourceHolderUINT::__NumberHandleHookingChainBufferTag::`RTTI Base Class Array'
PUBLIC	??_R1A@?0A@EA@__NumberHandleHookingChainBufferTag@ResourceHolderUINT@Internal@Core@Math@Palmtree@@8 ; Palmtree::Math::Core::Internal::ResourceHolderUINT::__NumberHandleHookingChainBufferTag::`RTTI Base Class Descriptor at (0,-1,0,64)'
PUBLIC	??_R4__StaticNumberChainBufferTag@ResourceHolderUINT@Internal@Core@Math@Palmtree@@6B@ ; Palmtree::Math::Core::Internal::ResourceHolderUINT::__StaticNumberChainBufferTag::`RTTI Complete Object Locator'
PUBLIC	??_R0?AV__StaticNumberChainBufferTag@ResourceHolderUINT@Internal@Core@Math@Palmtree@@@8 ; Palmtree::Math::Core::Internal::ResourceHolderUINT::__StaticNumberChainBufferTag `RTTI Type Descriptor'
PUBLIC	??_R3__StaticNumberChainBufferTag@ResourceHolderUINT@Internal@Core@Math@Palmtree@@8 ; Palmtree::Math::Core::Internal::ResourceHolderUINT::__StaticNumberChainBufferTag::`RTTI Class Hierarchy Descriptor'
PUBLIC	??_R2__StaticNumberChainBufferTag@ResourceHolderUINT@Internal@Core@Math@Palmtree@@8 ; Palmtree::Math::Core::Internal::ResourceHolderUINT::__StaticNumberChainBufferTag::`RTTI Base Class Array'
PUBLIC	??_R1A@?0A@EA@__StaticNumberChainBufferTag@ResourceHolderUINT@Internal@Core@Math@Palmtree@@8 ; Palmtree::Math::Core::Internal::ResourceHolderUINT::__StaticNumberChainBufferTag::`RTTI Base Class Descriptor at (0,-1,0,64)'
EXTRN	__purecall:PROC
EXTRN	??2@YAPAXI@Z:PROC				; operator new
EXTRN	??3@YAXPAXI@Z:PROC				; operator delete
EXTRN	__imp__GetLastError@0:PROC
EXTRN	__imp__HeapCreate@12:PROC
EXTRN	__imp__HeapDestroy@4:PROC
EXTRN	__imp__HeapAlloc@12:PROC
EXTRN	__imp__HeapFree@12:PROC
EXTRN	__imp__HeapLock@4:PROC
EXTRN	__imp__HeapUnlock@4:PROC
EXTRN	__imp__HeapWalk@8:PROC
EXTRN	__imp__InitializeCriticalSection@4:PROC
EXTRN	__imp__EnterCriticalSection@4:PROC
EXTRN	__imp__LeaveCriticalSection@4:PROC
EXTRN	___std_exception_destroy:PROC
EXTRN	??_Eexception@std@@UAEPAXI@Z:PROC		; std::exception::`vector deleting destructor'
EXTRN	??_EException@Internal@Core@Math@Palmtree@@UAEPAXI@Z:PROC ; Palmtree::Math::Core::Internal::Exception::`vector deleting destructor'
EXTRN	??_EArgumentException@Internal@Core@Math@Palmtree@@UAEPAXI@Z:PROC ; Palmtree::Math::Core::Internal::ArgumentException::`vector deleting destructor'
EXTRN	??_EArgumentNullException@Internal@Core@Math@Palmtree@@UAEPAXI@Z:PROC ; Palmtree::Math::Core::Internal::ArgumentNullException::`vector deleting destructor'
EXTRN	??_ENotEnoughMemoryException@Internal@Core@Math@Palmtree@@UAEPAXI@Z:PROC ; Palmtree::Math::Core::Internal::NotEnoughMemoryException::`vector deleting destructor'
EXTRN	??_EInternalErrorException@Internal@Core@Math@Palmtree@@UAEPAXI@Z:PROC ; Palmtree::Math::Core::Internal::InternalErrorException::`vector deleting destructor'
EXTRN	??_EBadBufferException@Internal@Core@Math@Palmtree@@UAEPAXI@Z:PROC ; Palmtree::Math::Core::Internal::BadBufferException::`vector deleting destructor'
EXTRN	??_E__ChainBufferTag@ResourceHolder@Internal@Core@Math@Palmtree@@UAEPAXI@Z:PROC ; Palmtree::Math::Core::Internal::ResourceHolder::__ChainBufferTag::`vector deleting destructor'
EXTRN	??_E__RootTag@ResourceHolder@Internal@Core@Math@Palmtree@@UAEPAXI@Z:PROC ; Palmtree::Math::Core::Internal::ResourceHolder::__RootTag::`vector deleting destructor'
EXTRN	??_EResourceHolder@Internal@Core@Math@Palmtree@@UAEPAXI@Z:PROC ; Palmtree::Math::Core::Internal::ResourceHolder::`vector deleting destructor'
EXTRN	??_E__GenericChainBufferTag@ResourceHolderUINT@Internal@Core@Math@Palmtree@@UAEPAXI@Z:PROC ; Palmtree::Math::Core::Internal::ResourceHolderUINT::__GenericChainBufferTag::`vector deleting destructor'
EXTRN	??_E____UNIT_TYPE_Array_ChainBufferTag@ResourceHolderUINT@Internal@Core@Math@Palmtree@@UAEPAXI@Z:PROC ; Palmtree::Math::Core::Internal::ResourceHolderUINT::____UNIT_TYPE_Array_ChainBufferTag::`vector deleting destructor'
EXTRN	??_E__StringChainBufferTag@ResourceHolderUINT@Internal@Core@Math@Palmtree@@UAEPAXI@Z:PROC ; Palmtree::Math::Core::Internal::ResourceHolderUINT::__StringChainBufferTag::`vector deleting destructor'
EXTRN	??_E__DynamicNumberChainBufferTag@ResourceHolderUINT@Internal@Core@Math@Palmtree@@UAEPAXI@Z:PROC ; Palmtree::Math::Core::Internal::ResourceHolderUINT::__DynamicNumberChainBufferTag::`vector deleting destructor'
EXTRN	??_E__NumberHandleHookingChainBufferTag@ResourceHolderUINT@Internal@Core@Math@Palmtree@@UAEPAXI@Z:PROC ; Palmtree::Math::Core::Internal::ResourceHolderUINT::__NumberHandleHookingChainBufferTag::`vector deleting destructor'
EXTRN	??_E__StaticNumberChainBufferTag@ResourceHolderUINT@Internal@Core@Math@Palmtree@@UAEPAXI@Z:PROC ; Palmtree::Math::Core::Internal::ResourceHolderUINT::__StaticNumberChainBufferTag::`vector deleting destructor'
EXTRN	??_EResourceHolderUINT@Internal@Core@Math@Palmtree@@UAEPAXI@Z:PROC ; Palmtree::Math::Core::Internal::ResourceHolderUINT::`vector deleting destructor'
EXTRN	@__security_check_cookie@4:PROC
EXTRN	__CxxThrowException@8:PROC
EXTRN	___CxxFrameHandler3:PROC
EXTRN	??_7type_info@@6B@:QWORD			; type_info::`vftable'
EXTRN	___security_cookie:DWORD
;	COMDAT ??_R1A@?0A@EA@__StaticNumberChainBufferTag@ResourceHolderUINT@Internal@Core@Math@Palmtree@@8
rdata$r	SEGMENT
??_R1A@?0A@EA@__StaticNumberChainBufferTag@ResourceHolderUINT@Internal@Core@Math@Palmtree@@8 DD FLAT:??_R0?AV__StaticNumberChainBufferTag@ResourceHolderUINT@Internal@Core@Math@Palmtree@@@8 ; Palmtree::Math::Core::Internal::ResourceHolderUINT::__StaticNumberChainBufferTag::`RTTI Base Class Descriptor at (0,-1,0,64)'
	DD	01H
	DD	00H
	DD	0ffffffffH
	DD	00H
	DD	040H
	DD	FLAT:??_R3__StaticNumberChainBufferTag@ResourceHolderUINT@Internal@Core@Math@Palmtree@@8
rdata$r	ENDS
;	COMDAT ??_R2__StaticNumberChainBufferTag@ResourceHolderUINT@Internal@Core@Math@Palmtree@@8
rdata$r	SEGMENT
??_R2__StaticNumberChainBufferTag@ResourceHolderUINT@Internal@Core@Math@Palmtree@@8 DD FLAT:??_R1A@?0A@EA@__StaticNumberChainBufferTag@ResourceHolderUINT@Internal@Core@Math@Palmtree@@8 ; Palmtree::Math::Core::Internal::ResourceHolderUINT::__StaticNumberChainBufferTag::`RTTI Base Class Array'
	DD	FLAT:??_R1A@?0A@EA@__ChainBufferTag@ResourceHolder@Internal@Core@Math@Palmtree@@8
rdata$r	ENDS
;	COMDAT ??_R3__StaticNumberChainBufferTag@ResourceHolderUINT@Internal@Core@Math@Palmtree@@8
rdata$r	SEGMENT
??_R3__StaticNumberChainBufferTag@ResourceHolderUINT@Internal@Core@Math@Palmtree@@8 DD 00H ; Palmtree::Math::Core::Internal::ResourceHolderUINT::__StaticNumberChainBufferTag::`RTTI Class Hierarchy Descriptor'
	DD	00H
	DD	02H
	DD	FLAT:??_R2__StaticNumberChainBufferTag@ResourceHolderUINT@Internal@Core@Math@Palmtree@@8
rdata$r	ENDS
;	COMDAT ??_R0?AV__StaticNumberChainBufferTag@ResourceHolderUINT@Internal@Core@Math@Palmtree@@@8
data$r	SEGMENT
??_R0?AV__StaticNumberChainBufferTag@ResourceHolderUINT@Internal@Core@Math@Palmtree@@@8 DD FLAT:??_7type_info@@6B@ ; Palmtree::Math::Core::Internal::ResourceHolderUINT::__StaticNumberChainBufferTag `RTTI Type Descriptor'
	DD	00H
	DB	'.?AV__StaticNumberChainBufferTag@ResourceHolderUINT@Inte'
	DB	'rnal@Core@Math@Palmtree@@', 00H
data$r	ENDS
;	COMDAT ??_R4__StaticNumberChainBufferTag@ResourceHolderUINT@Internal@Core@Math@Palmtree@@6B@
rdata$r	SEGMENT
??_R4__StaticNumberChainBufferTag@ResourceHolderUINT@Internal@Core@Math@Palmtree@@6B@ DD 00H ; Palmtree::Math::Core::Internal::ResourceHolderUINT::__StaticNumberChainBufferTag::`RTTI Complete Object Locator'
	DD	00H
	DD	00H
	DD	FLAT:??_R0?AV__StaticNumberChainBufferTag@ResourceHolderUINT@Internal@Core@Math@Palmtree@@@8
	DD	FLAT:??_R3__StaticNumberChainBufferTag@ResourceHolderUINT@Internal@Core@Math@Palmtree@@8
rdata$r	ENDS
;	COMDAT ??_R1A@?0A@EA@__NumberHandleHookingChainBufferTag@ResourceHolderUINT@Internal@Core@Math@Palmtree@@8
rdata$r	SEGMENT
??_R1A@?0A@EA@__NumberHandleHookingChainBufferTag@ResourceHolderUINT@Internal@Core@Math@Palmtree@@8 DD FLAT:??_R0?AV__NumberHandleHookingChainBufferTag@ResourceHolderUINT@Internal@Core@Math@Palmtree@@@8 ; Palmtree::Math::Core::Internal::ResourceHolderUINT::__NumberHandleHookingChainBufferTag::`RTTI Base Class Descriptor at (0,-1,0,64)'
	DD	01H
	DD	00H
	DD	0ffffffffH
	DD	00H
	DD	040H
	DD	FLAT:??_R3__NumberHandleHookingChainBufferTag@ResourceHolderUINT@Internal@Core@Math@Palmtree@@8
rdata$r	ENDS
;	COMDAT ??_R2__NumberHandleHookingChainBufferTag@ResourceHolderUINT@Internal@Core@Math@Palmtree@@8
rdata$r	SEGMENT
??_R2__NumberHandleHookingChainBufferTag@ResourceHolderUINT@Internal@Core@Math@Palmtree@@8 DD FLAT:??_R1A@?0A@EA@__NumberHandleHookingChainBufferTag@ResourceHolderUINT@Internal@Core@Math@Palmtree@@8 ; Palmtree::Math::Core::Internal::ResourceHolderUINT::__NumberHandleHookingChainBufferTag::`RTTI Base Class Array'
	DD	FLAT:??_R1A@?0A@EA@__ChainBufferTag@ResourceHolder@Internal@Core@Math@Palmtree@@8
rdata$r	ENDS
;	COMDAT ??_R3__NumberHandleHookingChainBufferTag@ResourceHolderUINT@Internal@Core@Math@Palmtree@@8
rdata$r	SEGMENT
??_R3__NumberHandleHookingChainBufferTag@ResourceHolderUINT@Internal@Core@Math@Palmtree@@8 DD 00H ; Palmtree::Math::Core::Internal::ResourceHolderUINT::__NumberHandleHookingChainBufferTag::`RTTI Class Hierarchy Descriptor'
	DD	00H
	DD	02H
	DD	FLAT:??_R2__NumberHandleHookingChainBufferTag@ResourceHolderUINT@Internal@Core@Math@Palmtree@@8
rdata$r	ENDS
;	COMDAT ??_R0?AV__NumberHandleHookingChainBufferTag@ResourceHolderUINT@Internal@Core@Math@Palmtree@@@8
data$r	SEGMENT
??_R0?AV__NumberHandleHookingChainBufferTag@ResourceHolderUINT@Internal@Core@Math@Palmtree@@@8 DD FLAT:??_7type_info@@6B@ ; Palmtree::Math::Core::Internal::ResourceHolderUINT::__NumberHandleHookingChainBufferTag `RTTI Type Descriptor'
	DD	00H
	DB	'.?AV__NumberHandleHookingChainBufferTag@ResourceHolderUI'
	DB	'NT@Internal@Core@Math@Palmtree@@', 00H
data$r	ENDS
;	COMDAT ??_R4__NumberHandleHookingChainBufferTag@ResourceHolderUINT@Internal@Core@Math@Palmtree@@6B@
rdata$r	SEGMENT
??_R4__NumberHandleHookingChainBufferTag@ResourceHolderUINT@Internal@Core@Math@Palmtree@@6B@ DD 00H ; Palmtree::Math::Core::Internal::ResourceHolderUINT::__NumberHandleHookingChainBufferTag::`RTTI Complete Object Locator'
	DD	00H
	DD	00H
	DD	FLAT:??_R0?AV__NumberHandleHookingChainBufferTag@ResourceHolderUINT@Internal@Core@Math@Palmtree@@@8
	DD	FLAT:??_R3__NumberHandleHookingChainBufferTag@ResourceHolderUINT@Internal@Core@Math@Palmtree@@8
rdata$r	ENDS
;	COMDAT ??_R1A@?0A@EA@__DynamicNumberChainBufferTag@ResourceHolderUINT@Internal@Core@Math@Palmtree@@8
rdata$r	SEGMENT
??_R1A@?0A@EA@__DynamicNumberChainBufferTag@ResourceHolderUINT@Internal@Core@Math@Palmtree@@8 DD FLAT:??_R0?AV__DynamicNumberChainBufferTag@ResourceHolderUINT@Internal@Core@Math@Palmtree@@@8 ; Palmtree::Math::Core::Internal::ResourceHolderUINT::__DynamicNumberChainBufferTag::`RTTI Base Class Descriptor at (0,-1,0,64)'
	DD	01H
	DD	00H
	DD	0ffffffffH
	DD	00H
	DD	040H
	DD	FLAT:??_R3__DynamicNumberChainBufferTag@ResourceHolderUINT@Internal@Core@Math@Palmtree@@8
rdata$r	ENDS
;	COMDAT ??_R2__DynamicNumberChainBufferTag@ResourceHolderUINT@Internal@Core@Math@Palmtree@@8
rdata$r	SEGMENT
??_R2__DynamicNumberChainBufferTag@ResourceHolderUINT@Internal@Core@Math@Palmtree@@8 DD FLAT:??_R1A@?0A@EA@__DynamicNumberChainBufferTag@ResourceHolderUINT@Internal@Core@Math@Palmtree@@8 ; Palmtree::Math::Core::Internal::ResourceHolderUINT::__DynamicNumberChainBufferTag::`RTTI Base Class Array'
	DD	FLAT:??_R1A@?0A@EA@__ChainBufferTag@ResourceHolder@Internal@Core@Math@Palmtree@@8
rdata$r	ENDS
;	COMDAT ??_R3__DynamicNumberChainBufferTag@ResourceHolderUINT@Internal@Core@Math@Palmtree@@8
rdata$r	SEGMENT
??_R3__DynamicNumberChainBufferTag@ResourceHolderUINT@Internal@Core@Math@Palmtree@@8 DD 00H ; Palmtree::Math::Core::Internal::ResourceHolderUINT::__DynamicNumberChainBufferTag::`RTTI Class Hierarchy Descriptor'
	DD	00H
	DD	02H
	DD	FLAT:??_R2__DynamicNumberChainBufferTag@ResourceHolderUINT@Internal@Core@Math@Palmtree@@8
rdata$r	ENDS
;	COMDAT ??_R0?AV__DynamicNumberChainBufferTag@ResourceHolderUINT@Internal@Core@Math@Palmtree@@@8
data$r	SEGMENT
??_R0?AV__DynamicNumberChainBufferTag@ResourceHolderUINT@Internal@Core@Math@Palmtree@@@8 DD FLAT:??_7type_info@@6B@ ; Palmtree::Math::Core::Internal::ResourceHolderUINT::__DynamicNumberChainBufferTag `RTTI Type Descriptor'
	DD	00H
	DB	'.?AV__DynamicNumberChainBufferTag@ResourceHolderUINT@Int'
	DB	'ernal@Core@Math@Palmtree@@', 00H
data$r	ENDS
;	COMDAT ??_R4__DynamicNumberChainBufferTag@ResourceHolderUINT@Internal@Core@Math@Palmtree@@6B@
rdata$r	SEGMENT
??_R4__DynamicNumberChainBufferTag@ResourceHolderUINT@Internal@Core@Math@Palmtree@@6B@ DD 00H ; Palmtree::Math::Core::Internal::ResourceHolderUINT::__DynamicNumberChainBufferTag::`RTTI Complete Object Locator'
	DD	00H
	DD	00H
	DD	FLAT:??_R0?AV__DynamicNumberChainBufferTag@ResourceHolderUINT@Internal@Core@Math@Palmtree@@@8
	DD	FLAT:??_R3__DynamicNumberChainBufferTag@ResourceHolderUINT@Internal@Core@Math@Palmtree@@8
rdata$r	ENDS
;	COMDAT ??_R1A@?0A@EA@__StringChainBufferTag@ResourceHolderUINT@Internal@Core@Math@Palmtree@@8
rdata$r	SEGMENT
??_R1A@?0A@EA@__StringChainBufferTag@ResourceHolderUINT@Internal@Core@Math@Palmtree@@8 DD FLAT:??_R0?AV__StringChainBufferTag@ResourceHolderUINT@Internal@Core@Math@Palmtree@@@8 ; Palmtree::Math::Core::Internal::ResourceHolderUINT::__StringChainBufferTag::`RTTI Base Class Descriptor at (0,-1,0,64)'
	DD	01H
	DD	00H
	DD	0ffffffffH
	DD	00H
	DD	040H
	DD	FLAT:??_R3__StringChainBufferTag@ResourceHolderUINT@Internal@Core@Math@Palmtree@@8
rdata$r	ENDS
;	COMDAT ??_R2__StringChainBufferTag@ResourceHolderUINT@Internal@Core@Math@Palmtree@@8
rdata$r	SEGMENT
??_R2__StringChainBufferTag@ResourceHolderUINT@Internal@Core@Math@Palmtree@@8 DD FLAT:??_R1A@?0A@EA@__StringChainBufferTag@ResourceHolderUINT@Internal@Core@Math@Palmtree@@8 ; Palmtree::Math::Core::Internal::ResourceHolderUINT::__StringChainBufferTag::`RTTI Base Class Array'
	DD	FLAT:??_R1A@?0A@EA@__ChainBufferTag@ResourceHolder@Internal@Core@Math@Palmtree@@8
rdata$r	ENDS
;	COMDAT ??_R3__StringChainBufferTag@ResourceHolderUINT@Internal@Core@Math@Palmtree@@8
rdata$r	SEGMENT
??_R3__StringChainBufferTag@ResourceHolderUINT@Internal@Core@Math@Palmtree@@8 DD 00H ; Palmtree::Math::Core::Internal::ResourceHolderUINT::__StringChainBufferTag::`RTTI Class Hierarchy Descriptor'
	DD	00H
	DD	02H
	DD	FLAT:??_R2__StringChainBufferTag@ResourceHolderUINT@Internal@Core@Math@Palmtree@@8
rdata$r	ENDS
;	COMDAT ??_R0?AV__StringChainBufferTag@ResourceHolderUINT@Internal@Core@Math@Palmtree@@@8
data$r	SEGMENT
??_R0?AV__StringChainBufferTag@ResourceHolderUINT@Internal@Core@Math@Palmtree@@@8 DD FLAT:??_7type_info@@6B@ ; Palmtree::Math::Core::Internal::ResourceHolderUINT::__StringChainBufferTag `RTTI Type Descriptor'
	DD	00H
	DB	'.?AV__StringChainBufferTag@ResourceHolderUINT@Internal@C'
	DB	'ore@Math@Palmtree@@', 00H
data$r	ENDS
;	COMDAT ??_R4__StringChainBufferTag@ResourceHolderUINT@Internal@Core@Math@Palmtree@@6B@
rdata$r	SEGMENT
??_R4__StringChainBufferTag@ResourceHolderUINT@Internal@Core@Math@Palmtree@@6B@ DD 00H ; Palmtree::Math::Core::Internal::ResourceHolderUINT::__StringChainBufferTag::`RTTI Complete Object Locator'
	DD	00H
	DD	00H
	DD	FLAT:??_R0?AV__StringChainBufferTag@ResourceHolderUINT@Internal@Core@Math@Palmtree@@@8
	DD	FLAT:??_R3__StringChainBufferTag@ResourceHolderUINT@Internal@Core@Math@Palmtree@@8
rdata$r	ENDS
;	COMDAT ??_R1A@?0A@EA@____UNIT_TYPE_Array_ChainBufferTag@ResourceHolderUINT@Internal@Core@Math@Palmtree@@8
rdata$r	SEGMENT
??_R1A@?0A@EA@____UNIT_TYPE_Array_ChainBufferTag@ResourceHolderUINT@Internal@Core@Math@Palmtree@@8 DD FLAT:??_R0?AV____UNIT_TYPE_Array_ChainBufferTag@ResourceHolderUINT@Internal@Core@Math@Palmtree@@@8 ; Palmtree::Math::Core::Internal::ResourceHolderUINT::____UNIT_TYPE_Array_ChainBufferTag::`RTTI Base Class Descriptor at (0,-1,0,64)'
	DD	01H
	DD	00H
	DD	0ffffffffH
	DD	00H
	DD	040H
	DD	FLAT:??_R3____UNIT_TYPE_Array_ChainBufferTag@ResourceHolderUINT@Internal@Core@Math@Palmtree@@8
rdata$r	ENDS
;	COMDAT ??_R2____UNIT_TYPE_Array_ChainBufferTag@ResourceHolderUINT@Internal@Core@Math@Palmtree@@8
rdata$r	SEGMENT
??_R2____UNIT_TYPE_Array_ChainBufferTag@ResourceHolderUINT@Internal@Core@Math@Palmtree@@8 DD FLAT:??_R1A@?0A@EA@____UNIT_TYPE_Array_ChainBufferTag@ResourceHolderUINT@Internal@Core@Math@Palmtree@@8 ; Palmtree::Math::Core::Internal::ResourceHolderUINT::____UNIT_TYPE_Array_ChainBufferTag::`RTTI Base Class Array'
	DD	FLAT:??_R1A@?0A@EA@__ChainBufferTag@ResourceHolder@Internal@Core@Math@Palmtree@@8
rdata$r	ENDS
;	COMDAT ??_R3____UNIT_TYPE_Array_ChainBufferTag@ResourceHolderUINT@Internal@Core@Math@Palmtree@@8
rdata$r	SEGMENT
??_R3____UNIT_TYPE_Array_ChainBufferTag@ResourceHolderUINT@Internal@Core@Math@Palmtree@@8 DD 00H ; Palmtree::Math::Core::Internal::ResourceHolderUINT::____UNIT_TYPE_Array_ChainBufferTag::`RTTI Class Hierarchy Descriptor'
	DD	00H
	DD	02H
	DD	FLAT:??_R2____UNIT_TYPE_Array_ChainBufferTag@ResourceHolderUINT@Internal@Core@Math@Palmtree@@8
rdata$r	ENDS
;	COMDAT ??_R0?AV____UNIT_TYPE_Array_ChainBufferTag@ResourceHolderUINT@Internal@Core@Math@Palmtree@@@8
data$r	SEGMENT
??_R0?AV____UNIT_TYPE_Array_ChainBufferTag@ResourceHolderUINT@Internal@Core@Math@Palmtree@@@8 DD FLAT:??_7type_info@@6B@ ; Palmtree::Math::Core::Internal::ResourceHolderUINT::____UNIT_TYPE_Array_ChainBufferTag `RTTI Type Descriptor'
	DD	00H
	DB	'.?AV____UNIT_TYPE_Array_ChainBufferTag@ResourceHolderUIN'
	DB	'T@Internal@Core@Math@Palmtree@@', 00H
data$r	ENDS
;	COMDAT ??_R4____UNIT_TYPE_Array_ChainBufferTag@ResourceHolderUINT@Internal@Core@Math@Palmtree@@6B@
rdata$r	SEGMENT
??_R4____UNIT_TYPE_Array_ChainBufferTag@ResourceHolderUINT@Internal@Core@Math@Palmtree@@6B@ DD 00H ; Palmtree::Math::Core::Internal::ResourceHolderUINT::____UNIT_TYPE_Array_ChainBufferTag::`RTTI Complete Object Locator'
	DD	00H
	DD	00H
	DD	FLAT:??_R0?AV____UNIT_TYPE_Array_ChainBufferTag@ResourceHolderUINT@Internal@Core@Math@Palmtree@@@8
	DD	FLAT:??_R3____UNIT_TYPE_Array_ChainBufferTag@ResourceHolderUINT@Internal@Core@Math@Palmtree@@8
rdata$r	ENDS
;	COMDAT ??_R1A@?0A@EA@__GenericChainBufferTag@ResourceHolderUINT@Internal@Core@Math@Palmtree@@8
rdata$r	SEGMENT
??_R1A@?0A@EA@__GenericChainBufferTag@ResourceHolderUINT@Internal@Core@Math@Palmtree@@8 DD FLAT:??_R0?AV__GenericChainBufferTag@ResourceHolderUINT@Internal@Core@Math@Palmtree@@@8 ; Palmtree::Math::Core::Internal::ResourceHolderUINT::__GenericChainBufferTag::`RTTI Base Class Descriptor at (0,-1,0,64)'
	DD	01H
	DD	00H
	DD	0ffffffffH
	DD	00H
	DD	040H
	DD	FLAT:??_R3__GenericChainBufferTag@ResourceHolderUINT@Internal@Core@Math@Palmtree@@8
rdata$r	ENDS
;	COMDAT ??_R2__GenericChainBufferTag@ResourceHolderUINT@Internal@Core@Math@Palmtree@@8
rdata$r	SEGMENT
??_R2__GenericChainBufferTag@ResourceHolderUINT@Internal@Core@Math@Palmtree@@8 DD FLAT:??_R1A@?0A@EA@__GenericChainBufferTag@ResourceHolderUINT@Internal@Core@Math@Palmtree@@8 ; Palmtree::Math::Core::Internal::ResourceHolderUINT::__GenericChainBufferTag::`RTTI Base Class Array'
	DD	FLAT:??_R1A@?0A@EA@__ChainBufferTag@ResourceHolder@Internal@Core@Math@Palmtree@@8
rdata$r	ENDS
;	COMDAT ??_R3__GenericChainBufferTag@ResourceHolderUINT@Internal@Core@Math@Palmtree@@8
rdata$r	SEGMENT
??_R3__GenericChainBufferTag@ResourceHolderUINT@Internal@Core@Math@Palmtree@@8 DD 00H ; Palmtree::Math::Core::Internal::ResourceHolderUINT::__GenericChainBufferTag::`RTTI Class Hierarchy Descriptor'
	DD	00H
	DD	02H
	DD	FLAT:??_R2__GenericChainBufferTag@ResourceHolderUINT@Internal@Core@Math@Palmtree@@8
rdata$r	ENDS
;	COMDAT ??_R0?AV__GenericChainBufferTag@ResourceHolderUINT@Internal@Core@Math@Palmtree@@@8
data$r	SEGMENT
??_R0?AV__GenericChainBufferTag@ResourceHolderUINT@Internal@Core@Math@Palmtree@@@8 DD FLAT:??_7type_info@@6B@ ; Palmtree::Math::Core::Internal::ResourceHolderUINT::__GenericChainBufferTag `RTTI Type Descriptor'
	DD	00H
	DB	'.?AV__GenericChainBufferTag@ResourceHolderUINT@Internal@'
	DB	'Core@Math@Palmtree@@', 00H
data$r	ENDS
;	COMDAT ??_R4__GenericChainBufferTag@ResourceHolderUINT@Internal@Core@Math@Palmtree@@6B@
rdata$r	SEGMENT
??_R4__GenericChainBufferTag@ResourceHolderUINT@Internal@Core@Math@Palmtree@@6B@ DD 00H ; Palmtree::Math::Core::Internal::ResourceHolderUINT::__GenericChainBufferTag::`RTTI Complete Object Locator'
	DD	00H
	DD	00H
	DD	FLAT:??_R0?AV__GenericChainBufferTag@ResourceHolderUINT@Internal@Core@Math@Palmtree@@@8
	DD	FLAT:??_R3__GenericChainBufferTag@ResourceHolderUINT@Internal@Core@Math@Palmtree@@8
rdata$r	ENDS
;	COMDAT ??_R1A@?0A@EN@ResourceHolder@Internal@Core@Math@Palmtree@@8
rdata$r	SEGMENT
??_R1A@?0A@EN@ResourceHolder@Internal@Core@Math@Palmtree@@8 DD FLAT:??_R0?AVResourceHolder@Internal@Core@Math@Palmtree@@@8 ; Palmtree::Math::Core::Internal::ResourceHolder::`RTTI Base Class Descriptor at (0,-1,0,77)'
	DD	00H
	DD	00H
	DD	0ffffffffH
	DD	00H
	DD	04dH
	DD	FLAT:??_R3ResourceHolder@Internal@Core@Math@Palmtree@@8
rdata$r	ENDS
;	COMDAT ??_R1A@?0A@EA@ResourceHolderUINT@Internal@Core@Math@Palmtree@@8
rdata$r	SEGMENT
??_R1A@?0A@EA@ResourceHolderUINT@Internal@Core@Math@Palmtree@@8 DD FLAT:??_R0?AVResourceHolderUINT@Internal@Core@Math@Palmtree@@@8 ; Palmtree::Math::Core::Internal::ResourceHolderUINT::`RTTI Base Class Descriptor at (0,-1,0,64)'
	DD	01H
	DD	00H
	DD	0ffffffffH
	DD	00H
	DD	040H
	DD	FLAT:??_R3ResourceHolderUINT@Internal@Core@Math@Palmtree@@8
rdata$r	ENDS
;	COMDAT ??_R2ResourceHolderUINT@Internal@Core@Math@Palmtree@@8
rdata$r	SEGMENT
??_R2ResourceHolderUINT@Internal@Core@Math@Palmtree@@8 DD FLAT:??_R1A@?0A@EA@ResourceHolderUINT@Internal@Core@Math@Palmtree@@8 ; Palmtree::Math::Core::Internal::ResourceHolderUINT::`RTTI Base Class Array'
	DD	FLAT:??_R1A@?0A@EN@ResourceHolder@Internal@Core@Math@Palmtree@@8
rdata$r	ENDS
;	COMDAT ??_R3ResourceHolderUINT@Internal@Core@Math@Palmtree@@8
rdata$r	SEGMENT
??_R3ResourceHolderUINT@Internal@Core@Math@Palmtree@@8 DD 00H ; Palmtree::Math::Core::Internal::ResourceHolderUINT::`RTTI Class Hierarchy Descriptor'
	DD	00H
	DD	02H
	DD	FLAT:??_R2ResourceHolderUINT@Internal@Core@Math@Palmtree@@8
rdata$r	ENDS
;	COMDAT ??_R0?AVResourceHolderUINT@Internal@Core@Math@Palmtree@@@8
data$r	SEGMENT
??_R0?AVResourceHolderUINT@Internal@Core@Math@Palmtree@@@8 DD FLAT:??_7type_info@@6B@ ; Palmtree::Math::Core::Internal::ResourceHolderUINT `RTTI Type Descriptor'
	DD	00H
	DB	'.?AVResourceHolderUINT@Internal@Core@Math@Palmtree@@', 00H
data$r	ENDS
;	COMDAT ??_R4ResourceHolderUINT@Internal@Core@Math@Palmtree@@6B@
rdata$r	SEGMENT
??_R4ResourceHolderUINT@Internal@Core@Math@Palmtree@@6B@ DD 00H ; Palmtree::Math::Core::Internal::ResourceHolderUINT::`RTTI Complete Object Locator'
	DD	00H
	DD	00H
	DD	FLAT:??_R0?AVResourceHolderUINT@Internal@Core@Math@Palmtree@@@8
	DD	FLAT:??_R3ResourceHolderUINT@Internal@Core@Math@Palmtree@@8
rdata$r	ENDS
;	COMDAT ??_R1A@?0A@EA@__RootTag@ResourceHolder@Internal@Core@Math@Palmtree@@8
rdata$r	SEGMENT
??_R1A@?0A@EA@__RootTag@ResourceHolder@Internal@Core@Math@Palmtree@@8 DD FLAT:??_R0?AV__RootTag@ResourceHolder@Internal@Core@Math@Palmtree@@@8 ; Palmtree::Math::Core::Internal::ResourceHolder::__RootTag::`RTTI Base Class Descriptor at (0,-1,0,64)'
	DD	01H
	DD	00H
	DD	0ffffffffH
	DD	00H
	DD	040H
	DD	FLAT:??_R3__RootTag@ResourceHolder@Internal@Core@Math@Palmtree@@8
rdata$r	ENDS
;	COMDAT ??_R2__RootTag@ResourceHolder@Internal@Core@Math@Palmtree@@8
rdata$r	SEGMENT
??_R2__RootTag@ResourceHolder@Internal@Core@Math@Palmtree@@8 DD FLAT:??_R1A@?0A@EA@__RootTag@ResourceHolder@Internal@Core@Math@Palmtree@@8 ; Palmtree::Math::Core::Internal::ResourceHolder::__RootTag::`RTTI Base Class Array'
	DD	FLAT:??_R1A@?0A@EA@__ChainBufferTag@ResourceHolder@Internal@Core@Math@Palmtree@@8
rdata$r	ENDS
;	COMDAT ??_R3__RootTag@ResourceHolder@Internal@Core@Math@Palmtree@@8
rdata$r	SEGMENT
??_R3__RootTag@ResourceHolder@Internal@Core@Math@Palmtree@@8 DD 00H ; Palmtree::Math::Core::Internal::ResourceHolder::__RootTag::`RTTI Class Hierarchy Descriptor'
	DD	00H
	DD	02H
	DD	FLAT:??_R2__RootTag@ResourceHolder@Internal@Core@Math@Palmtree@@8
rdata$r	ENDS
;	COMDAT ??_R0?AV__RootTag@ResourceHolder@Internal@Core@Math@Palmtree@@@8
data$r	SEGMENT
??_R0?AV__RootTag@ResourceHolder@Internal@Core@Math@Palmtree@@@8 DD FLAT:??_7type_info@@6B@ ; Palmtree::Math::Core::Internal::ResourceHolder::__RootTag `RTTI Type Descriptor'
	DD	00H
	DB	'.?AV__RootTag@ResourceHolder@Internal@Core@Math@Palmtree'
	DB	'@@', 00H
data$r	ENDS
;	COMDAT ??_R4__RootTag@ResourceHolder@Internal@Core@Math@Palmtree@@6B@
rdata$r	SEGMENT
??_R4__RootTag@ResourceHolder@Internal@Core@Math@Palmtree@@6B@ DD 00H ; Palmtree::Math::Core::Internal::ResourceHolder::__RootTag::`RTTI Complete Object Locator'
	DD	00H
	DD	00H
	DD	FLAT:??_R0?AV__RootTag@ResourceHolder@Internal@Core@Math@Palmtree@@@8
	DD	FLAT:??_R3__RootTag@ResourceHolder@Internal@Core@Math@Palmtree@@8
rdata$r	ENDS
;	COMDAT ??_R1A@?0A@EA@__ChainBufferTag@ResourceHolder@Internal@Core@Math@Palmtree@@8
rdata$r	SEGMENT
??_R1A@?0A@EA@__ChainBufferTag@ResourceHolder@Internal@Core@Math@Palmtree@@8 DD FLAT:??_R0?AV__ChainBufferTag@ResourceHolder@Internal@Core@Math@Palmtree@@@8 ; Palmtree::Math::Core::Internal::ResourceHolder::__ChainBufferTag::`RTTI Base Class Descriptor at (0,-1,0,64)'
	DD	00H
	DD	00H
	DD	0ffffffffH
	DD	00H
	DD	040H
	DD	FLAT:??_R3__ChainBufferTag@ResourceHolder@Internal@Core@Math@Palmtree@@8
rdata$r	ENDS
;	COMDAT ??_R2__ChainBufferTag@ResourceHolder@Internal@Core@Math@Palmtree@@8
rdata$r	SEGMENT
??_R2__ChainBufferTag@ResourceHolder@Internal@Core@Math@Palmtree@@8 DD FLAT:??_R1A@?0A@EA@__ChainBufferTag@ResourceHolder@Internal@Core@Math@Palmtree@@8 ; Palmtree::Math::Core::Internal::ResourceHolder::__ChainBufferTag::`RTTI Base Class Array'
rdata$r	ENDS
;	COMDAT ??_R3__ChainBufferTag@ResourceHolder@Internal@Core@Math@Palmtree@@8
rdata$r	SEGMENT
??_R3__ChainBufferTag@ResourceHolder@Internal@Core@Math@Palmtree@@8 DD 00H ; Palmtree::Math::Core::Internal::ResourceHolder::__ChainBufferTag::`RTTI Class Hierarchy Descriptor'
	DD	00H
	DD	01H
	DD	FLAT:??_R2__ChainBufferTag@ResourceHolder@Internal@Core@Math@Palmtree@@8
rdata$r	ENDS
;	COMDAT ??_R0?AV__ChainBufferTag@ResourceHolder@Internal@Core@Math@Palmtree@@@8
data$r	SEGMENT
??_R0?AV__ChainBufferTag@ResourceHolder@Internal@Core@Math@Palmtree@@@8 DD FLAT:??_7type_info@@6B@ ; Palmtree::Math::Core::Internal::ResourceHolder::__ChainBufferTag `RTTI Type Descriptor'
	DD	00H
	DB	'.?AV__ChainBufferTag@ResourceHolder@Internal@Core@Math@P'
	DB	'almtree@@', 00H
data$r	ENDS
;	COMDAT ??_R4__ChainBufferTag@ResourceHolder@Internal@Core@Math@Palmtree@@6B@
rdata$r	SEGMENT
??_R4__ChainBufferTag@ResourceHolder@Internal@Core@Math@Palmtree@@6B@ DD 00H ; Palmtree::Math::Core::Internal::ResourceHolder::__ChainBufferTag::`RTTI Complete Object Locator'
	DD	00H
	DD	00H
	DD	FLAT:??_R0?AV__ChainBufferTag@ResourceHolder@Internal@Core@Math@Palmtree@@@8
	DD	FLAT:??_R3__ChainBufferTag@ResourceHolder@Internal@Core@Math@Palmtree@@8
rdata$r	ENDS
;	COMDAT ??_R1A@?0A@EA@ResourceHolder@Internal@Core@Math@Palmtree@@8
rdata$r	SEGMENT
??_R1A@?0A@EA@ResourceHolder@Internal@Core@Math@Palmtree@@8 DD FLAT:??_R0?AVResourceHolder@Internal@Core@Math@Palmtree@@@8 ; Palmtree::Math::Core::Internal::ResourceHolder::`RTTI Base Class Descriptor at (0,-1,0,64)'
	DD	00H
	DD	00H
	DD	0ffffffffH
	DD	00H
	DD	040H
	DD	FLAT:??_R3ResourceHolder@Internal@Core@Math@Palmtree@@8
rdata$r	ENDS
;	COMDAT ??_R2ResourceHolder@Internal@Core@Math@Palmtree@@8
rdata$r	SEGMENT
??_R2ResourceHolder@Internal@Core@Math@Palmtree@@8 DD FLAT:??_R1A@?0A@EA@ResourceHolder@Internal@Core@Math@Palmtree@@8 ; Palmtree::Math::Core::Internal::ResourceHolder::`RTTI Base Class Array'
rdata$r	ENDS
;	COMDAT ??_R3ResourceHolder@Internal@Core@Math@Palmtree@@8
rdata$r	SEGMENT
??_R3ResourceHolder@Internal@Core@Math@Palmtree@@8 DD 00H ; Palmtree::Math::Core::Internal::ResourceHolder::`RTTI Class Hierarchy Descriptor'
	DD	00H
	DD	01H
	DD	FLAT:??_R2ResourceHolder@Internal@Core@Math@Palmtree@@8
rdata$r	ENDS
;	COMDAT ??_R0?AVResourceHolder@Internal@Core@Math@Palmtree@@@8
data$r	SEGMENT
??_R0?AVResourceHolder@Internal@Core@Math@Palmtree@@@8 DD FLAT:??_7type_info@@6B@ ; Palmtree::Math::Core::Internal::ResourceHolder `RTTI Type Descriptor'
	DD	00H
	DB	'.?AVResourceHolder@Internal@Core@Math@Palmtree@@', 00H
data$r	ENDS
;	COMDAT ??_R4ResourceHolder@Internal@Core@Math@Palmtree@@6B@
rdata$r	SEGMENT
??_R4ResourceHolder@Internal@Core@Math@Palmtree@@6B@ DD 00H ; Palmtree::Math::Core::Internal::ResourceHolder::`RTTI Complete Object Locator'
	DD	00H
	DD	00H
	DD	FLAT:??_R0?AVResourceHolder@Internal@Core@Math@Palmtree@@@8
	DD	FLAT:??_R3ResourceHolder@Internal@Core@Math@Palmtree@@8
rdata$r	ENDS
;	COMDAT ??_R1A@?0A@EA@BadBufferException@Internal@Core@Math@Palmtree@@8
rdata$r	SEGMENT
??_R1A@?0A@EA@BadBufferException@Internal@Core@Math@Palmtree@@8 DD FLAT:??_R0?AVBadBufferException@Internal@Core@Math@Palmtree@@@8 ; Palmtree::Math::Core::Internal::BadBufferException::`RTTI Base Class Descriptor at (0,-1,0,64)'
	DD	02H
	DD	00H
	DD	0ffffffffH
	DD	00H
	DD	040H
	DD	FLAT:??_R3BadBufferException@Internal@Core@Math@Palmtree@@8
rdata$r	ENDS
;	COMDAT ??_R2BadBufferException@Internal@Core@Math@Palmtree@@8
rdata$r	SEGMENT
??_R2BadBufferException@Internal@Core@Math@Palmtree@@8 DD FLAT:??_R1A@?0A@EA@BadBufferException@Internal@Core@Math@Palmtree@@8 ; Palmtree::Math::Core::Internal::BadBufferException::`RTTI Base Class Array'
	DD	FLAT:??_R1A@?0A@EA@Exception@Internal@Core@Math@Palmtree@@8
	DD	FLAT:??_R1A@?0A@EN@exception@std@@8
rdata$r	ENDS
;	COMDAT ??_R3BadBufferException@Internal@Core@Math@Palmtree@@8
rdata$r	SEGMENT
??_R3BadBufferException@Internal@Core@Math@Palmtree@@8 DD 00H ; Palmtree::Math::Core::Internal::BadBufferException::`RTTI Class Hierarchy Descriptor'
	DD	00H
	DD	03H
	DD	FLAT:??_R2BadBufferException@Internal@Core@Math@Palmtree@@8
rdata$r	ENDS
;	COMDAT ??_R4BadBufferException@Internal@Core@Math@Palmtree@@6B@
rdata$r	SEGMENT
??_R4BadBufferException@Internal@Core@Math@Palmtree@@6B@ DD 00H ; Palmtree::Math::Core::Internal::BadBufferException::`RTTI Complete Object Locator'
	DD	00H
	DD	00H
	DD	FLAT:??_R0?AVBadBufferException@Internal@Core@Math@Palmtree@@@8
	DD	FLAT:??_R3BadBufferException@Internal@Core@Math@Palmtree@@8
rdata$r	ENDS
;	COMDAT ??_R1A@?0A@EA@InternalErrorException@Internal@Core@Math@Palmtree@@8
rdata$r	SEGMENT
??_R1A@?0A@EA@InternalErrorException@Internal@Core@Math@Palmtree@@8 DD FLAT:??_R0?AVInternalErrorException@Internal@Core@Math@Palmtree@@@8 ; Palmtree::Math::Core::Internal::InternalErrorException::`RTTI Base Class Descriptor at (0,-1,0,64)'
	DD	02H
	DD	00H
	DD	0ffffffffH
	DD	00H
	DD	040H
	DD	FLAT:??_R3InternalErrorException@Internal@Core@Math@Palmtree@@8
rdata$r	ENDS
;	COMDAT ??_R2InternalErrorException@Internal@Core@Math@Palmtree@@8
rdata$r	SEGMENT
??_R2InternalErrorException@Internal@Core@Math@Palmtree@@8 DD FLAT:??_R1A@?0A@EA@InternalErrorException@Internal@Core@Math@Palmtree@@8 ; Palmtree::Math::Core::Internal::InternalErrorException::`RTTI Base Class Array'
	DD	FLAT:??_R1A@?0A@EA@Exception@Internal@Core@Math@Palmtree@@8
	DD	FLAT:??_R1A@?0A@EN@exception@std@@8
rdata$r	ENDS
;	COMDAT ??_R3InternalErrorException@Internal@Core@Math@Palmtree@@8
rdata$r	SEGMENT
??_R3InternalErrorException@Internal@Core@Math@Palmtree@@8 DD 00H ; Palmtree::Math::Core::Internal::InternalErrorException::`RTTI Class Hierarchy Descriptor'
	DD	00H
	DD	03H
	DD	FLAT:??_R2InternalErrorException@Internal@Core@Math@Palmtree@@8
rdata$r	ENDS
;	COMDAT ??_R4InternalErrorException@Internal@Core@Math@Palmtree@@6B@
rdata$r	SEGMENT
??_R4InternalErrorException@Internal@Core@Math@Palmtree@@6B@ DD 00H ; Palmtree::Math::Core::Internal::InternalErrorException::`RTTI Complete Object Locator'
	DD	00H
	DD	00H
	DD	FLAT:??_R0?AVInternalErrorException@Internal@Core@Math@Palmtree@@@8
	DD	FLAT:??_R3InternalErrorException@Internal@Core@Math@Palmtree@@8
rdata$r	ENDS
;	COMDAT ??_R1A@?0A@EA@NotEnoughMemoryException@Internal@Core@Math@Palmtree@@8
rdata$r	SEGMENT
??_R1A@?0A@EA@NotEnoughMemoryException@Internal@Core@Math@Palmtree@@8 DD FLAT:??_R0?AVNotEnoughMemoryException@Internal@Core@Math@Palmtree@@@8 ; Palmtree::Math::Core::Internal::NotEnoughMemoryException::`RTTI Base Class Descriptor at (0,-1,0,64)'
	DD	02H
	DD	00H
	DD	0ffffffffH
	DD	00H
	DD	040H
	DD	FLAT:??_R3NotEnoughMemoryException@Internal@Core@Math@Palmtree@@8
rdata$r	ENDS
;	COMDAT ??_R2NotEnoughMemoryException@Internal@Core@Math@Palmtree@@8
rdata$r	SEGMENT
??_R2NotEnoughMemoryException@Internal@Core@Math@Palmtree@@8 DD FLAT:??_R1A@?0A@EA@NotEnoughMemoryException@Internal@Core@Math@Palmtree@@8 ; Palmtree::Math::Core::Internal::NotEnoughMemoryException::`RTTI Base Class Array'
	DD	FLAT:??_R1A@?0A@EA@Exception@Internal@Core@Math@Palmtree@@8
	DD	FLAT:??_R1A@?0A@EN@exception@std@@8
rdata$r	ENDS
;	COMDAT ??_R3NotEnoughMemoryException@Internal@Core@Math@Palmtree@@8
rdata$r	SEGMENT
??_R3NotEnoughMemoryException@Internal@Core@Math@Palmtree@@8 DD 00H ; Palmtree::Math::Core::Internal::NotEnoughMemoryException::`RTTI Class Hierarchy Descriptor'
	DD	00H
	DD	03H
	DD	FLAT:??_R2NotEnoughMemoryException@Internal@Core@Math@Palmtree@@8
rdata$r	ENDS
;	COMDAT ??_R4NotEnoughMemoryException@Internal@Core@Math@Palmtree@@6B@
rdata$r	SEGMENT
??_R4NotEnoughMemoryException@Internal@Core@Math@Palmtree@@6B@ DD 00H ; Palmtree::Math::Core::Internal::NotEnoughMemoryException::`RTTI Complete Object Locator'
	DD	00H
	DD	00H
	DD	FLAT:??_R0?AVNotEnoughMemoryException@Internal@Core@Math@Palmtree@@@8
	DD	FLAT:??_R3NotEnoughMemoryException@Internal@Core@Math@Palmtree@@8
rdata$r	ENDS
;	COMDAT ??_R1A@?0A@EA@ArgumentNullException@Internal@Core@Math@Palmtree@@8
rdata$r	SEGMENT
??_R1A@?0A@EA@ArgumentNullException@Internal@Core@Math@Palmtree@@8 DD FLAT:??_R0?AVArgumentNullException@Internal@Core@Math@Palmtree@@@8 ; Palmtree::Math::Core::Internal::ArgumentNullException::`RTTI Base Class Descriptor at (0,-1,0,64)'
	DD	02H
	DD	00H
	DD	0ffffffffH
	DD	00H
	DD	040H
	DD	FLAT:??_R3ArgumentNullException@Internal@Core@Math@Palmtree@@8
rdata$r	ENDS
;	COMDAT ??_R2ArgumentNullException@Internal@Core@Math@Palmtree@@8
rdata$r	SEGMENT
??_R2ArgumentNullException@Internal@Core@Math@Palmtree@@8 DD FLAT:??_R1A@?0A@EA@ArgumentNullException@Internal@Core@Math@Palmtree@@8 ; Palmtree::Math::Core::Internal::ArgumentNullException::`RTTI Base Class Array'
	DD	FLAT:??_R1A@?0A@EA@Exception@Internal@Core@Math@Palmtree@@8
	DD	FLAT:??_R1A@?0A@EN@exception@std@@8
rdata$r	ENDS
;	COMDAT ??_R3ArgumentNullException@Internal@Core@Math@Palmtree@@8
rdata$r	SEGMENT
??_R3ArgumentNullException@Internal@Core@Math@Palmtree@@8 DD 00H ; Palmtree::Math::Core::Internal::ArgumentNullException::`RTTI Class Hierarchy Descriptor'
	DD	00H
	DD	03H
	DD	FLAT:??_R2ArgumentNullException@Internal@Core@Math@Palmtree@@8
rdata$r	ENDS
;	COMDAT ??_R4ArgumentNullException@Internal@Core@Math@Palmtree@@6B@
rdata$r	SEGMENT
??_R4ArgumentNullException@Internal@Core@Math@Palmtree@@6B@ DD 00H ; Palmtree::Math::Core::Internal::ArgumentNullException::`RTTI Complete Object Locator'
	DD	00H
	DD	00H
	DD	FLAT:??_R0?AVArgumentNullException@Internal@Core@Math@Palmtree@@@8
	DD	FLAT:??_R3ArgumentNullException@Internal@Core@Math@Palmtree@@8
rdata$r	ENDS
;	COMDAT ??_R1A@?0A@EA@ArgumentException@Internal@Core@Math@Palmtree@@8
rdata$r	SEGMENT
??_R1A@?0A@EA@ArgumentException@Internal@Core@Math@Palmtree@@8 DD FLAT:??_R0?AVArgumentException@Internal@Core@Math@Palmtree@@@8 ; Palmtree::Math::Core::Internal::ArgumentException::`RTTI Base Class Descriptor at (0,-1,0,64)'
	DD	02H
	DD	00H
	DD	0ffffffffH
	DD	00H
	DD	040H
	DD	FLAT:??_R3ArgumentException@Internal@Core@Math@Palmtree@@8
rdata$r	ENDS
;	COMDAT ??_R2ArgumentException@Internal@Core@Math@Palmtree@@8
rdata$r	SEGMENT
??_R2ArgumentException@Internal@Core@Math@Palmtree@@8 DD FLAT:??_R1A@?0A@EA@ArgumentException@Internal@Core@Math@Palmtree@@8 ; Palmtree::Math::Core::Internal::ArgumentException::`RTTI Base Class Array'
	DD	FLAT:??_R1A@?0A@EA@Exception@Internal@Core@Math@Palmtree@@8
	DD	FLAT:??_R1A@?0A@EN@exception@std@@8
rdata$r	ENDS
;	COMDAT ??_R3ArgumentException@Internal@Core@Math@Palmtree@@8
rdata$r	SEGMENT
??_R3ArgumentException@Internal@Core@Math@Palmtree@@8 DD 00H ; Palmtree::Math::Core::Internal::ArgumentException::`RTTI Class Hierarchy Descriptor'
	DD	00H
	DD	03H
	DD	FLAT:??_R2ArgumentException@Internal@Core@Math@Palmtree@@8
rdata$r	ENDS
;	COMDAT ??_R4ArgumentException@Internal@Core@Math@Palmtree@@6B@
rdata$r	SEGMENT
??_R4ArgumentException@Internal@Core@Math@Palmtree@@6B@ DD 00H ; Palmtree::Math::Core::Internal::ArgumentException::`RTTI Complete Object Locator'
	DD	00H
	DD	00H
	DD	FLAT:??_R0?AVArgumentException@Internal@Core@Math@Palmtree@@@8
	DD	FLAT:??_R3ArgumentException@Internal@Core@Math@Palmtree@@8
rdata$r	ENDS
;	COMDAT ??_R1A@?0A@EN@exception@std@@8
rdata$r	SEGMENT
??_R1A@?0A@EN@exception@std@@8 DD FLAT:??_R0?AVexception@std@@@8 ; std::exception::`RTTI Base Class Descriptor at (0,-1,0,77)'
	DD	00H
	DD	00H
	DD	0ffffffffH
	DD	00H
	DD	04dH
	DD	FLAT:??_R3exception@std@@8
rdata$r	ENDS
;	COMDAT ??_R1A@?0A@EA@Exception@Internal@Core@Math@Palmtree@@8
rdata$r	SEGMENT
??_R1A@?0A@EA@Exception@Internal@Core@Math@Palmtree@@8 DD FLAT:??_R0?AVException@Internal@Core@Math@Palmtree@@@8 ; Palmtree::Math::Core::Internal::Exception::`RTTI Base Class Descriptor at (0,-1,0,64)'
	DD	01H
	DD	00H
	DD	0ffffffffH
	DD	00H
	DD	040H
	DD	FLAT:??_R3Exception@Internal@Core@Math@Palmtree@@8
rdata$r	ENDS
;	COMDAT ??_R2Exception@Internal@Core@Math@Palmtree@@8
rdata$r	SEGMENT
??_R2Exception@Internal@Core@Math@Palmtree@@8 DD FLAT:??_R1A@?0A@EA@Exception@Internal@Core@Math@Palmtree@@8 ; Palmtree::Math::Core::Internal::Exception::`RTTI Base Class Array'
	DD	FLAT:??_R1A@?0A@EN@exception@std@@8
rdata$r	ENDS
;	COMDAT ??_R3Exception@Internal@Core@Math@Palmtree@@8
rdata$r	SEGMENT
??_R3Exception@Internal@Core@Math@Palmtree@@8 DD 00H	; Palmtree::Math::Core::Internal::Exception::`RTTI Class Hierarchy Descriptor'
	DD	00H
	DD	02H
	DD	FLAT:??_R2Exception@Internal@Core@Math@Palmtree@@8
rdata$r	ENDS
;	COMDAT ??_R4Exception@Internal@Core@Math@Palmtree@@6B@
rdata$r	SEGMENT
??_R4Exception@Internal@Core@Math@Palmtree@@6B@ DD 00H	; Palmtree::Math::Core::Internal::Exception::`RTTI Complete Object Locator'
	DD	00H
	DD	00H
	DD	FLAT:??_R0?AVException@Internal@Core@Math@Palmtree@@@8
	DD	FLAT:??_R3Exception@Internal@Core@Math@Palmtree@@8
rdata$r	ENDS
;	COMDAT ??_R1A@?0A@EA@exception@std@@8
rdata$r	SEGMENT
??_R1A@?0A@EA@exception@std@@8 DD FLAT:??_R0?AVexception@std@@@8 ; std::exception::`RTTI Base Class Descriptor at (0,-1,0,64)'
	DD	00H
	DD	00H
	DD	0ffffffffH
	DD	00H
	DD	040H
	DD	FLAT:??_R3exception@std@@8
rdata$r	ENDS
;	COMDAT ??_R2exception@std@@8
rdata$r	SEGMENT
??_R2exception@std@@8 DD FLAT:??_R1A@?0A@EA@exception@std@@8 ; std::exception::`RTTI Base Class Array'
rdata$r	ENDS
;	COMDAT ??_R3exception@std@@8
rdata$r	SEGMENT
??_R3exception@std@@8 DD 00H				; std::exception::`RTTI Class Hierarchy Descriptor'
	DD	00H
	DD	01H
	DD	FLAT:??_R2exception@std@@8
rdata$r	ENDS
;	COMDAT ??_R0?AVexception@std@@@8
data$r	SEGMENT
??_R0?AVexception@std@@@8 DD FLAT:??_7type_info@@6B@	; std::exception `RTTI Type Descriptor'
	DD	00H
	DB	'.?AVexception@std@@', 00H
data$r	ENDS
;	COMDAT ??_R4exception@std@@6B@
rdata$r	SEGMENT
??_R4exception@std@@6B@ DD 00H				; std::exception::`RTTI Complete Object Locator'
	DD	00H
	DD	00H
	DD	FLAT:??_R0?AVexception@std@@@8
	DD	FLAT:??_R3exception@std@@8
rdata$r	ENDS
;	COMDAT ??_C@_1FA@GGJMNBOK@?$AAp?$AAm?$AAc?$AA_?$AAm?$AAe?$AAm?$AAo?$AAr?$AAy?$AA?4?$AAc?$AAp?$AAp?$AA?$DL@
CONST	SEGMENT
??_C@_1FA@GGJMNBOK@?$AAp?$AAm?$AAc?$AA_?$AAm?$AAe?$AAm?$AAo?$AAr?$AAy?$AA?4?$AAc?$AAp?$AAp?$AA?$DL@ DB 'p'
	DB	00H, 'm', 00H, 'c', 00H, '_', 00H, 'm', 00H, 'e', 00H, 'm', 00H
	DB	'o', 00H, 'r', 00H, 'y', 00H, '.', 00H, 'c', 00H, 'p', 00H, 'p'
	DB	00H, ';', 00H, 'G', 00H, 'e', 00H, 't', 00H, 'A', 00H, 'l', 00H
	DB	'l', 00H, 'o', 00H, 'c', 00H, 'a', 00H, 't', 00H, 'e', 00H, 'd'
	DB	00H, 'M', 00H, 'e', 00H, 'm', 00H, 'o', 00H, 'r', 00H, 'y', 00H
	DB	'S', 00H, 'i', 00H, 'z', 00H, 'e', 00H, ';', 00H, '3', 00H, 00H
	DB	00H						; `string'
CONST	ENDS
;	COMDAT ??_C@_1FA@NOCALGIP@?$AAp?$AAm?$AAc?$AA_?$AAm?$AAe?$AAm?$AAo?$AAr?$AAy?$AA?4?$AAc?$AAp?$AAp?$AA?$DL@
CONST	SEGMENT
??_C@_1FA@NOCALGIP@?$AAp?$AAm?$AAc?$AA_?$AAm?$AAe?$AAm?$AAo?$AAr?$AAy?$AA?4?$AAc?$AAp?$AAp?$AA?$DL@ DB 'p'
	DB	00H, 'm', 00H, 'c', 00H, '_', 00H, 'm', 00H, 'e', 00H, 'm', 00H
	DB	'o', 00H, 'r', 00H, 'y', 00H, '.', 00H, 'c', 00H, 'p', 00H, 'p'
	DB	00H, ';', 00H, 'G', 00H, 'e', 00H, 't', 00H, 'A', 00H, 'l', 00H
	DB	'l', 00H, 'o', 00H, 'c', 00H, 'a', 00H, 't', 00H, 'e', 00H, 'd'
	DB	00H, 'M', 00H, 'e', 00H, 'm', 00H, 'o', 00H, 'r', 00H, 'y', 00H
	DB	'S', 00H, 'i', 00H, 'z', 00H, 'e', 00H, ';', 00H, '2', 00H, 00H
	DB	00H						; `string'
CONST	ENDS
;	COMDAT ??_C@_1BM@FCPAHMHB@?$PP?$IF?$PP?h?$PP?$KI?$PP?i?$PP?$PM?$AAL?$AAz?$AA?$BP?$AAW?$AA?$HO?$AAW?$AA_?$AA?$AC@
CONST	SEGMENT
??_C@_1BM@FCPAHMHB@?$PP?$IF?$PP?h?$PP?$KI?$PP?i?$PP?$PM?$AAL?$AAz?$AA?$BP?$AAW?$AA?$HO?$AAW?$AA_?$AA?$AC@ DB 085H
	DB	'Q', 0e8H, 090H, 0a8H, '0', 0e9H, '0', 0fcH, '0L0zv', 01fH, 'u'
	DB	'W0~0W0_0', 02H, '0', 00H, 00H		; `string'
CONST	ENDS
;	COMDAT ??_C@_1FA@MMJFBJGB@?$AAp?$AAm?$AAc?$AA_?$AAm?$AAe?$AAm?$AAo?$AAr?$AAy?$AA?4?$AAc?$AAp?$AAp?$AA?$DL@
CONST	SEGMENT
??_C@_1FA@MMJFBJGB@?$AAp?$AAm?$AAc?$AA_?$AAm?$AAe?$AAm?$AAo?$AAr?$AAy?$AA?4?$AAc?$AAp?$AAp?$AA?$DL@ DB 'p'
	DB	00H, 'm', 00H, 'c', 00H, '_', 00H, 'm', 00H, 'e', 00H, 'm', 00H
	DB	'o', 00H, 'r', 00H, 'y', 00H, '.', 00H, 'c', 00H, 'p', 00H, 'p'
	DB	00H, ';', 00H, 'G', 00H, 'e', 00H, 't', 00H, 'A', 00H, 'l', 00H
	DB	'l', 00H, 'o', 00H, 'c', 00H, 'a', 00H, 't', 00H, 'e', 00H, 'd'
	DB	00H, 'M', 00H, 'e', 00H, 'm', 00H, 'o', 00H, 'r', 00H, 'y', 00H
	DB	'S', 00H, 'i', 00H, 'z', 00H, 'e', 00H, ';', 00H, '1', 00H, 00H
	DB	00H						; `string'
CONST	ENDS
;	COMDAT ??_C@_1HC@IJKAGPMK@?$AAp?$AAm?$AAc?$AA_?$AAm?$AAe?$AAm?$AAo?$AAr?$AAy?$AA?4?$AAc?$AAp?$AAp?$AA?$DL@
CONST	SEGMENT
??_C@_1HC@IJKAGPMK@?$AAp?$AAm?$AAc?$AA_?$AAm?$AAe?$AAm?$AAo?$AAr?$AAy?$AA?4?$AAc?$AAp?$AAp?$AA?$DL@ DB 'p'
	DB	00H, 'm', 00H, 'c', 00H, '_', 00H, 'm', 00H, 'e', 00H, 'm', 00H
	DB	'o', 00H, 'r', 00H, 'y', 00H, '.', 00H, 'c', 00H, 'p', 00H, 'p'
	DB	00H, ';', 00H, 'R', 00H, 'e', 00H, 's', 00H, 'o', 00H, 'u', 00H
	DB	'r', 00H, 'c', 00H, 'e', 00H, 'H', 00H, 'o', 00H, 'l', 00H, 'd'
	DB	00H, 'e', 00H, 'r', 00H, 'U', 00H, 'I', 00H, 'N', 00H, 'T', 00H
	DB	':', 00H, ':', 00H, 'U', 00H, 'n', 00H, 'l', 00H, 'i', 00H, 'n'
	DB	00H, 'k', 00H, 'S', 00H, 't', 00H, 'a', 00H, 't', 00H, 'i', 00H
	DB	'c', 00H, 'k', 00H, 'N', 00H, 'u', 00H, 'm', 00H, 'b', 00H, 'e'
	DB	00H, 'r', 00H, ';', 00H, '1', 00H, 00H, 00H	; `string'
CONST	ENDS
;	COMDAT ??_C@_1GE@JOBLOAGO@?$AAp?$AAm?$AAc?$AA_?$AAm?$AAe?$AAm?$AAo?$AAr?$AAy?$AA?4?$AAc?$AAp?$AAp?$AA?$DL@
CONST	SEGMENT
??_C@_1GE@JOBLOAGO@?$AAp?$AAm?$AAc?$AA_?$AAm?$AAe?$AAm?$AAo?$AAr?$AAy?$AA?4?$AAc?$AAp?$AAp?$AA?$DL@ DB 'p'
	DB	00H, 'm', 00H, 'c', 00H, '_', 00H, 'm', 00H, 'e', 00H, 'm', 00H
	DB	'o', 00H, 'r', 00H, 'y', 00H, '.', 00H, 'c', 00H, 'p', 00H, 'p'
	DB	00H, ';', 00H, 'R', 00H, 'e', 00H, 's', 00H, 'o', 00H, 'u', 00H
	DB	'r', 00H, 'c', 00H, 'e', 00H, 'H', 00H, 'o', 00H, 'l', 00H, 'd'
	DB	00H, 'e', 00H, 'r', 00H, 'U', 00H, 'I', 00H, 'N', 00H, 'T', 00H
	DB	':', 00H, ':', 00H, 'U', 00H, 'n', 00H, 'l', 00H, 'i', 00H, 'n'
	DB	00H, 'k', 00H, 'N', 00H, 'u', 00H, 'm', 00H, 'b', 00H, 'e', 00H
	DB	'r', 00H, ';', 00H, '1', 00H, 00H, 00H	; `string'
CONST	ENDS
;	COMDAT ??_C@_1GC@BDIILODP@?$AAp?$AAm?$AAc?$AA_?$AAm?$AAe?$AAm?$AAo?$AAr?$AAy?$AA?4?$AAc?$AAp?$AAp?$AA?$DL@
CONST	SEGMENT
??_C@_1GC@BDIILODP@?$AAp?$AAm?$AAc?$AA_?$AAm?$AAe?$AAm?$AAo?$AAr?$AAy?$AA?4?$AAc?$AAp?$AAp?$AA?$DL@ DB 'p'
	DB	00H, 'm', 00H, 'c', 00H, '_', 00H, 'm', 00H, 'e', 00H, 'm', 00H
	DB	'o', 00H, 'r', 00H, 'y', 00H, '.', 00H, 'c', 00H, 'p', 00H, 'p'
	DB	00H, ';', 00H, 'R', 00H, 'e', 00H, 's', 00H, 'o', 00H, 'u', 00H
	DB	'r', 00H, 'c', 00H, 'e', 00H, 'H', 00H, 'o', 00H, 'l', 00H, 'd'
	DB	00H, 'e', 00H, 'r', 00H, 'U', 00H, 'I', 00H, 'N', 00H, 'T', 00H
	DB	':', 00H, ':', 00H, 'C', 00H, 'l', 00H, 'e', 00H, 'a', 00H, 'r'
	DB	00H, 'S', 00H, 't', 00H, 'r', 00H, 'i', 00H, 'n', 00H, 'g', 00H
	DB	';', 00H, '1', 00H, 00H, 00H			; `string'
CONST	ENDS
;	COMDAT ??_C@_1GC@OHMCPHEJ@?$AAp?$AAm?$AAc?$AA_?$AAm?$AAe?$AAm?$AAo?$AAr?$AAy?$AA?4?$AAc?$AAp?$AAp?$AA?$DL@
CONST	SEGMENT
??_C@_1GC@OHMCPHEJ@?$AAp?$AAm?$AAc?$AA_?$AAm?$AAe?$AAm?$AAo?$AAr?$AAy?$AA?4?$AAc?$AAp?$AAp?$AA?$DL@ DB 'p'
	DB	00H, 'm', 00H, 'c', 00H, '_', 00H, 'm', 00H, 'e', 00H, 'm', 00H
	DB	'o', 00H, 'r', 00H, 'y', 00H, '.', 00H, 'c', 00H, 'p', 00H, 'p'
	DB	00H, ';', 00H, 'R', 00H, 'e', 00H, 's', 00H, 'o', 00H, 'u', 00H
	DB	'r', 00H, 'c', 00H, 'e', 00H, 'H', 00H, 'o', 00H, 'l', 00H, 'd'
	DB	00H, 'e', 00H, 'r', 00H, 'U', 00H, 'I', 00H, 'N', 00H, 'T', 00H
	DB	':', 00H, ':', 00H, 'U', 00H, 'n', 00H, 'l', 00H, 'i', 00H, 'n'
	DB	00H, 'k', 00H, 'B', 00H, 'l', 00H, 'o', 00H, 'c', 00H, 'k', 00H
	DB	';', 00H, '1', 00H, 00H, 00H			; `string'
CONST	ENDS
;	COMDAT ??_C@_1GA@CKNLMDDM@?$AAp?$AAm?$AAc?$AA_?$AAm?$AAe?$AAm?$AAo?$AAr?$AAy?$AA?4?$AAc?$AAp?$AAp?$AA?$DL@
CONST	SEGMENT
??_C@_1GA@CKNLMDDM@?$AAp?$AAm?$AAc?$AA_?$AAm?$AAe?$AAm?$AAo?$AAr?$AAy?$AA?4?$AAc?$AAp?$AAp?$AA?$DL@ DB 'p'
	DB	00H, 'm', 00H, 'c', 00H, '_', 00H, 'm', 00H, 'e', 00H, 'm', 00H
	DB	'o', 00H, 'r', 00H, 'y', 00H, '.', 00H, 'c', 00H, 'p', 00H, 'p'
	DB	00H, ';', 00H, 'R', 00H, 'e', 00H, 's', 00H, 'o', 00H, 'u', 00H
	DB	'r', 00H, 'c', 00H, 'e', 00H, 'H', 00H, 'o', 00H, 'l', 00H, 'd'
	DB	00H, 'e', 00H, 'r', 00H, 'U', 00H, 'I', 00H, 'N', 00H, 'T', 00H
	DB	':', 00H, ':', 00H, 'C', 00H, 'l', 00H, 'e', 00H, 'a', 00H, 'r'
	DB	00H, 'B', 00H, 'l', 00H, 'o', 00H, 'c', 00H, 'k', 00H, ';', 00H
	DB	'1', 00H, 00H, 00H				; `string'
CONST	ENDS
;	COMDAT ??_C@_1GC@NKBJLGGD@?$AAp?$AAm?$AAc?$AA_?$AAm?$AAe?$AAm?$AAo?$AAr?$AAy?$AA?4?$AAc?$AAp?$AAp?$AA?$DL@
CONST	SEGMENT
??_C@_1GC@NKBJLGGD@?$AAp?$AAm?$AAc?$AA_?$AAm?$AAe?$AAm?$AAo?$AAr?$AAy?$AA?4?$AAc?$AAp?$AAp?$AA?$DL@ DB 'p'
	DB	00H, 'm', 00H, 'c', 00H, '_', 00H, 'm', 00H, 'e', 00H, 'm', 00H
	DB	'o', 00H, 'r', 00H, 'y', 00H, '.', 00H, 'c', 00H, 'p', 00H, 'p'
	DB	00H, ';', 00H, 'R', 00H, 'e', 00H, 's', 00H, 'o', 00H, 'u', 00H
	DB	'r', 00H, 'c', 00H, 'e', 00H, 'H', 00H, 'o', 00H, 'l', 00H, 'd'
	DB	00H, 'e', 00H, 'r', 00H, 'U', 00H, 'I', 00H, 'N', 00H, 'T', 00H
	DB	':', 00H, ':', 00H, 'U', 00H, 'n', 00H, 'l', 00H, 'i', 00H, 'n'
	DB	00H, 'k', 00H, 'B', 00H, 'y', 00H, 't', 00H, 'e', 00H, 's', 00H
	DB	';', 00H, '1', 00H, 00H, 00H			; `string'
CONST	ENDS
;	COMDAT ??_C@_1CK@ECFIEPAC@?$AA?$BF?$AAp?$AAk?$AAn?$AAu?$AAl?$AAl?$AAp?$AAt?$AAr?$AAL?$AA?$AO?$AAH?$PP?$IJ?$PP?$IM@
CONST	SEGMENT
??_C@_1CK@ECFIEPAC@?$AA?$BF?$AAp?$AAk?$AAn?$AAu?$AAl?$AAl?$AAp?$AAt?$AAr?$AAL?$AA?$AO?$AAH?$PP?$IJ?$PP?$IM@ DB 015H
	DB	'_pek0n', 00H, 'u', 00H, 'l', 00H, 'l', 00H, 'p', 00H, 't', 00H
	DB	'r', 00H, 'L0', 0eH, 'NH0', 089H, '0', 08cH, '0f0D0~0Y0', 02H, '0'
	DB	00H, 00H					; `string'
CONST	ENDS
;	COMDAT ??_C@_13HADAKIJA@?$AAx@
CONST	SEGMENT
??_C@_13HADAKIJA@?$AAx@ DB 'x', 00H, 00H, 00H		; `string'
CONST	ENDS
;	COMDAT __CT??_R0?AVArgumentNullException@Internal@Core@Math@Palmtree@@@8??0ArgumentNullException@Internal@Core@Math@Palmtree@@QAE@ABV01234@@Z24
xdata$x	SEGMENT
__CT??_R0?AVArgumentNullException@Internal@Core@Math@Palmtree@@@8??0ArgumentNullException@Internal@Core@Math@Palmtree@@QAE@ABV01234@@Z24 DD 00H
	DD	FLAT:??_R0?AVArgumentNullException@Internal@Core@Math@Palmtree@@@8
	DD	00H
	DD	0ffffffffH
	ORG $+4
	DD	018H
	DD	FLAT:??0ArgumentNullException@Internal@Core@Math@Palmtree@@QAE@ABV01234@@Z
xdata$x	ENDS
;	COMDAT ??_R0?AVArgumentNullException@Internal@Core@Math@Palmtree@@@8
data$r	SEGMENT
??_R0?AVArgumentNullException@Internal@Core@Math@Palmtree@@@8 DD FLAT:??_7type_info@@6B@ ; Palmtree::Math::Core::Internal::ArgumentNullException `RTTI Type Descriptor'
	DD	00H
	DB	'.?AVArgumentNullException@Internal@Core@Math@Palmtree@@', 00H
data$r	ENDS
;	COMDAT __CTA2?AVArgumentNullException@Internal@Core@Math@Palmtree@@
xdata$x	SEGMENT
__CTA2?AVArgumentNullException@Internal@Core@Math@Palmtree@@ DD 02H
	DD	FLAT:__CT??_R0?AVArgumentNullException@Internal@Core@Math@Palmtree@@@8??0ArgumentNullException@Internal@Core@Math@Palmtree@@QAE@ABV01234@@Z24
	DD	FLAT:__CT??_R0?AVException@Internal@Core@Math@Palmtree@@@8??0Exception@Internal@Core@Math@Palmtree@@QAE@ABV01234@@Z24
xdata$x	ENDS
;	COMDAT __TI2?AVArgumentNullException@Internal@Core@Math@Palmtree@@
xdata$x	SEGMENT
__TI2?AVArgumentNullException@Internal@Core@Math@Palmtree@@ DD 00H
	DD	FLAT:??1ArgumentNullException@Internal@Core@Math@Palmtree@@UAE@XZ
	DD	00H
	DD	FLAT:__CTA2?AVArgumentNullException@Internal@Core@Math@Palmtree@@
xdata$x	ENDS
;	COMDAT ??_C@_1BO@CNNKDNIF@?$AA?$BF?$AAp?$AAt?$AAy?$AAp?$AAe?$AAL?$AA?$CK?$PP?e?$AAn?$AA$?$AAg?$AAY?$AA?$AC@
CONST	SEGMENT
??_C@_1BO@CNNKDNIF@?$AA?$BF?$AAp?$AAt?$AAy?$AAp?$AAe?$AAL?$AA?$CK?$PP?e?$AAn?$AA$?$AAg?$AAY?$AA?$AC@ DB 015H
	DB	'_pet', 00H, 'y', 00H, 'p', 00H, 'e', 00H, 'L0*g', 0e5H, 'wn0$'
	DB	'Pg0Y0', 02H, '0', 00H, 00H			; `string'
CONST	ENDS
;	COMDAT __CT??_R0?AVArgumentException@Internal@Core@Math@Palmtree@@@8??0ArgumentException@Internal@Core@Math@Palmtree@@QAE@ABV01234@@Z24
xdata$x	SEGMENT
__CT??_R0?AVArgumentException@Internal@Core@Math@Palmtree@@@8??0ArgumentException@Internal@Core@Math@Palmtree@@QAE@ABV01234@@Z24 DD 00H
	DD	FLAT:??_R0?AVArgumentException@Internal@Core@Math@Palmtree@@@8
	DD	00H
	DD	0ffffffffH
	ORG $+4
	DD	018H
	DD	FLAT:??0ArgumentException@Internal@Core@Math@Palmtree@@QAE@ABV01234@@Z
xdata$x	ENDS
;	COMDAT ??_R0?AVArgumentException@Internal@Core@Math@Palmtree@@@8
data$r	SEGMENT
??_R0?AVArgumentException@Internal@Core@Math@Palmtree@@@8 DD FLAT:??_7type_info@@6B@ ; Palmtree::Math::Core::Internal::ArgumentException `RTTI Type Descriptor'
	DD	00H
	DB	'.?AVArgumentException@Internal@Core@Math@Palmtree@@', 00H
data$r	ENDS
;	COMDAT __CTA2?AVArgumentException@Internal@Core@Math@Palmtree@@
xdata$x	SEGMENT
__CTA2?AVArgumentException@Internal@Core@Math@Palmtree@@ DD 02H
	DD	FLAT:__CT??_R0?AVArgumentException@Internal@Core@Math@Palmtree@@@8??0ArgumentException@Internal@Core@Math@Palmtree@@QAE@ABV01234@@Z24
	DD	FLAT:__CT??_R0?AVException@Internal@Core@Math@Palmtree@@@8??0Exception@Internal@Core@Math@Palmtree@@QAE@ABV01234@@Z24
xdata$x	ENDS
;	COMDAT __TI2?AVArgumentException@Internal@Core@Math@Palmtree@@
xdata$x	SEGMENT
__TI2?AVArgumentException@Internal@Core@Math@Palmtree@@ DD 00H
	DD	FLAT:??1ArgumentException@Internal@Core@Math@Palmtree@@UAE@XZ
	DD	00H
	DD	FLAT:__CTA2?AVArgumentException@Internal@Core@Math@Palmtree@@
xdata$x	ENDS
;	COMDAT ??_C@_1DK@CHNNDIJP@?$AAp?$AAm?$AAc?$AA_?$AAm?$AAe?$AAm?$AAo?$AAr?$AAy?$AA?4?$AAc?$AAp?$AAp?$AA?$DL@
CONST	SEGMENT
??_C@_1DK@CHNNDIJP@?$AAp?$AAm?$AAc?$AA_?$AAm?$AAe?$AAm?$AAo?$AAr?$AAy?$AA?4?$AAc?$AAp?$AAp?$AA?$DL@ DB 'p'
	DB	00H, 'm', 00H, 'c', 00H, '_', 00H, 'm', 00H, 'e', 00H, 'm', 00H
	DB	'o', 00H, 'r', 00H, 'y', 00H, '.', 00H, 'c', 00H, 'p', 00H, 'p'
	DB	00H, ';', 00H, 'C', 00H, 'h', 00H, 'e', 00H, 'c', 00H, 'k', 00H
	DB	'N', 00H, 'u', 00H, 'm', 00H, 'b', 00H, 'e', 00H, 'r', 00H, ';'
	DB	00H, '1', 00H, 00H, 00H			; `string'
CONST	ENDS
;	COMDAT ??_C@_1EC@KLIFJDDK@?$AAp?$AAm?$AAc?$AA_?$AAm?$AAe?$AAm?$AAo?$AAr?$AAy?$AA?4?$AAc?$AAp?$AAp?$AA?$DL@
CONST	SEGMENT
??_C@_1EC@KLIFJDDK@?$AAp?$AAm?$AAc?$AA_?$AAm?$AAe?$AAm?$AAo?$AAr?$AAy?$AA?4?$AAc?$AAp?$AAp?$AA?$DL@ DB 'p'
	DB	00H, 'm', 00H, 'c', 00H, '_', 00H, 'm', 00H, 'e', 00H, 'm', 00H
	DB	'o', 00H, 'r', 00H, 'y', 00H, '.', 00H, 'c', 00H, 'p', 00H, 'p'
	DB	00H, ';', 00H, 'C', 00H, 'h', 00H, 'e', 00H, 'c', 00H, 'k', 00H
	DB	'B', 00H, 'l', 00H, 'o', 00H, 'c', 00H, 'k', 00H, 'L', 00H, 'i'
	DB	00H, 'g', 00H, 'h', 00H, 't', 00H, ';', 00H, '2', 00H, 00H, 00H ; `string'
CONST	ENDS
;	COMDAT ??_C@_1CE@JCIJLGOL@?$PP?a?$PP?b?$PP?j?$AA?$BI?$PP?$NP?$AAn?$AA?$AN?$AAt?$AA?$AI?$PP?$JC?$AA?$BM?$PP?z?$AAW?$AA?$HO?$AAW@
CONST	SEGMENT
??_C@_1CE@JCIJLGOL@?$PP?a?$PP?b?$PP?j?$AA?$BI?$PP?$NP?$AAn?$AA?$AN?$AAt?$AA?$AI?$PP?$JC?$AA?$BM?$PP?z?$AAW?$AA?$HO?$AAW@ DB 0e1H
	DB	'0', 0e2H, '0', 0eaH, '0', 018H, 098H, 0dfH, 'Wn0', 0dH, 'Nte', 08H
	DB	'T', 092H, '0', 01cH, 'i', 0faH, 'QW0~0W0_0', 02H, '0', 00H, 00H ; `string'
CONST	ENDS
;	COMDAT ??_C@_1EC@LJDADMNE@?$AAp?$AAm?$AAc?$AA_?$AAm?$AAe?$AAm?$AAo?$AAr?$AAy?$AA?4?$AAc?$AAp?$AAp?$AA?$DL@
CONST	SEGMENT
??_C@_1EC@LJDADMNE@?$AAp?$AAm?$AAc?$AA_?$AAm?$AAe?$AAm?$AAo?$AAr?$AAy?$AA?4?$AAc?$AAp?$AAp?$AA?$DL@ DB 'p'
	DB	00H, 'm', 00H, 'c', 00H, '_', 00H, 'm', 00H, 'e', 00H, 'm', 00H
	DB	'o', 00H, 'r', 00H, 'y', 00H, '.', 00H, 'c', 00H, 'p', 00H, 'p'
	DB	00H, ';', 00H, 'C', 00H, 'h', 00H, 'e', 00H, 'c', 00H, 'k', 00H
	DB	'B', 00H, 'l', 00H, 'o', 00H, 'c', 00H, 'k', 00H, 'L', 00H, 'i'
	DB	00H, 'g', 00H, 'h', 00H, 't', 00H, ';', 00H, '1', 00H, 00H, 00H ; `string'
CONST	ENDS
;	COMDAT __CT??_R0?AVBadBufferException@Internal@Core@Math@Palmtree@@@8??0BadBufferException@Internal@Core@Math@Palmtree@@QAE@ABV01234@@Z28
xdata$x	SEGMENT
__CT??_R0?AVBadBufferException@Internal@Core@Math@Palmtree@@@8??0BadBufferException@Internal@Core@Math@Palmtree@@QAE@ABV01234@@Z28 DD 00H
	DD	FLAT:??_R0?AVBadBufferException@Internal@Core@Math@Palmtree@@@8
	DD	00H
	DD	0ffffffffH
	ORG $+4
	DD	01cH
	DD	FLAT:??0BadBufferException@Internal@Core@Math@Palmtree@@QAE@ABV01234@@Z
xdata$x	ENDS
;	COMDAT ??_R0?AVBadBufferException@Internal@Core@Math@Palmtree@@@8
data$r	SEGMENT
??_R0?AVBadBufferException@Internal@Core@Math@Palmtree@@@8 DD FLAT:??_7type_info@@6B@ ; Palmtree::Math::Core::Internal::BadBufferException `RTTI Type Descriptor'
	DD	00H
	DB	'.?AVBadBufferException@Internal@Core@Math@Palmtree@@', 00H
data$r	ENDS
;	COMDAT __CTA2?AVBadBufferException@Internal@Core@Math@Palmtree@@
xdata$x	SEGMENT
__CTA2?AVBadBufferException@Internal@Core@Math@Palmtree@@ DD 02H
	DD	FLAT:__CT??_R0?AVBadBufferException@Internal@Core@Math@Palmtree@@@8??0BadBufferException@Internal@Core@Math@Palmtree@@QAE@ABV01234@@Z28
	DD	FLAT:__CT??_R0?AVException@Internal@Core@Math@Palmtree@@@8??0Exception@Internal@Core@Math@Palmtree@@QAE@ABV01234@@Z24
xdata$x	ENDS
;	COMDAT __TI2?AVBadBufferException@Internal@Core@Math@Palmtree@@
xdata$x	SEGMENT
__TI2?AVBadBufferException@Internal@Core@Math@Palmtree@@ DD 00H
	DD	FLAT:??1BadBufferException@Internal@Core@Math@Palmtree@@UAE@XZ
	DD	00H
	DD	FLAT:__CTA2?AVBadBufferException@Internal@Core@Math@Palmtree@@
xdata$x	ENDS
;	COMDAT ??_C@_1CE@PIPAACFA@?$PP?R?$PP?$PM?$PP?W?$PP?a?$PP?b?$PP?j?$AA?$BI?$PP?$NP?$AAL?$AA?$AN?$PP?$LD?$AAW?$AAf?$AAD?$AA?$HO@
CONST	SEGMENT
??_C@_1CE@PIPAACFA@?$PP?R?$PP?$PM?$PP?W?$PP?a?$PP?b?$PP?j?$AA?$BI?$PP?$NP?$AAL?$AA?$AN?$PP?$LD?$AAW?$AAf?$AAD?$AA?$HO@ DB 0d2H
	DB	'0', 0fcH, '0', 0d7H, '0', 0e1H, '0', 0e2H, '0', 0eaH, '0', 018H
	DB	098H, 0dfH, 'WL0', 0dH, 'N', 0b3H, 08dH, 'W0f0D0~0Y0', 02H, '0'
	DB	00H, 00H					; `string'
CONST	ENDS
;	COMDAT __CT??_R0?AVNotEnoughMemoryException@Internal@Core@Math@Palmtree@@@8??0NotEnoughMemoryException@Internal@Core@Math@Palmtree@@QAE@ABV01234@@Z24
xdata$x	SEGMENT
__CT??_R0?AVNotEnoughMemoryException@Internal@Core@Math@Palmtree@@@8??0NotEnoughMemoryException@Internal@Core@Math@Palmtree@@QAE@ABV01234@@Z24 DD 00H
	DD	FLAT:??_R0?AVNotEnoughMemoryException@Internal@Core@Math@Palmtree@@@8
	DD	00H
	DD	0ffffffffH
	ORG $+4
	DD	018H
	DD	FLAT:??0NotEnoughMemoryException@Internal@Core@Math@Palmtree@@QAE@ABV01234@@Z
xdata$x	ENDS
;	COMDAT ??_R0?AVNotEnoughMemoryException@Internal@Core@Math@Palmtree@@@8
data$r	SEGMENT
??_R0?AVNotEnoughMemoryException@Internal@Core@Math@Palmtree@@@8 DD FLAT:??_7type_info@@6B@ ; Palmtree::Math::Core::Internal::NotEnoughMemoryException `RTTI Type Descriptor'
	DD	00H
	DB	'.?AVNotEnoughMemoryException@Internal@Core@Math@Palmtree'
	DB	'@@', 00H
data$r	ENDS
;	COMDAT __CTA2?AVNotEnoughMemoryException@Internal@Core@Math@Palmtree@@
xdata$x	SEGMENT
__CTA2?AVNotEnoughMemoryException@Internal@Core@Math@Palmtree@@ DD 02H
	DD	FLAT:__CT??_R0?AVNotEnoughMemoryException@Internal@Core@Math@Palmtree@@@8??0NotEnoughMemoryException@Internal@Core@Math@Palmtree@@QAE@ABV01234@@Z24
	DD	FLAT:__CT??_R0?AVException@Internal@Core@Math@Palmtree@@@8??0Exception@Internal@Core@Math@Palmtree@@QAE@ABV01234@@Z24
xdata$x	ENDS
;	COMDAT __TI2?AVNotEnoughMemoryException@Internal@Core@Math@Palmtree@@
xdata$x	SEGMENT
__TI2?AVNotEnoughMemoryException@Internal@Core@Math@Palmtree@@ DD 00H
	DD	FLAT:??1NotEnoughMemoryException@Internal@Core@Math@Palmtree@@UAE@XZ
	DD	00H
	DD	FLAT:__CTA2?AVNotEnoughMemoryException@Internal@Core@Math@Palmtree@@
xdata$x	ENDS
;	COMDAT ??_7ResourceHolderUINT@Internal@Core@Math@Palmtree@@6B@
CONST	SEGMENT
??_7ResourceHolderUINT@Internal@Core@Math@Palmtree@@6B@ DD FLAT:??_R4ResourceHolderUINT@Internal@Core@Math@Palmtree@@6B@ ; Palmtree::Math::Core::Internal::ResourceHolderUINT::`vftable'
	DD	FLAT:??_EResourceHolderUINT@Internal@Core@Math@Palmtree@@UAEPAXI@Z
CONST	ENDS
;	COMDAT ??_7__StaticNumberChainBufferTag@ResourceHolderUINT@Internal@Core@Math@Palmtree@@6B@
CONST	SEGMENT
??_7__StaticNumberChainBufferTag@ResourceHolderUINT@Internal@Core@Math@Palmtree@@6B@ DD FLAT:??_R4__StaticNumberChainBufferTag@ResourceHolderUINT@Internal@Core@Math@Palmtree@@6B@ ; Palmtree::Math::Core::Internal::ResourceHolderUINT::__StaticNumberChainBufferTag::`vftable'
	DD	FLAT:??_E__StaticNumberChainBufferTag@ResourceHolderUINT@Internal@Core@Math@Palmtree@@UAEPAXI@Z
	DD	FLAT:?EqualsBufferAddress@__StaticNumberChainBufferTag@ResourceHolderUINT@Internal@Core@Math@Palmtree@@UAEHPAX@Z
	DD	FLAT:?Clear@__ChainBufferTag@ResourceHolder@Internal@Core@Math@Palmtree@@UAEXXZ
	DD	FLAT:?Check@__StaticNumberChainBufferTag@ResourceHolderUINT@Internal@Core@Math@Palmtree@@UAEXXZ
	DD	FLAT:?Destruct@__StaticNumberChainBufferTag@ResourceHolderUINT@Internal@Core@Math@Palmtree@@UAEXXZ
CONST	ENDS
;	COMDAT ??_7__NumberHandleHookingChainBufferTag@ResourceHolderUINT@Internal@Core@Math@Palmtree@@6B@
CONST	SEGMENT
??_7__NumberHandleHookingChainBufferTag@ResourceHolderUINT@Internal@Core@Math@Palmtree@@6B@ DD FLAT:??_R4__NumberHandleHookingChainBufferTag@ResourceHolderUINT@Internal@Core@Math@Palmtree@@6B@ ; Palmtree::Math::Core::Internal::ResourceHolderUINT::__NumberHandleHookingChainBufferTag::`vftable'
	DD	FLAT:??_E__NumberHandleHookingChainBufferTag@ResourceHolderUINT@Internal@Core@Math@Palmtree@@UAEPAXI@Z
	DD	FLAT:?EqualsBufferAddress@__NumberHandleHookingChainBufferTag@ResourceHolderUINT@Internal@Core@Math@Palmtree@@UAEHPAX@Z
	DD	FLAT:?Clear@__ChainBufferTag@ResourceHolder@Internal@Core@Math@Palmtree@@UAEXXZ
	DD	FLAT:?Check@__NumberHandleHookingChainBufferTag@ResourceHolderUINT@Internal@Core@Math@Palmtree@@UAEXXZ
	DD	FLAT:?Destruct@__NumberHandleHookingChainBufferTag@ResourceHolderUINT@Internal@Core@Math@Palmtree@@UAEXXZ
CONST	ENDS
;	COMDAT ??_7__DynamicNumberChainBufferTag@ResourceHolderUINT@Internal@Core@Math@Palmtree@@6B@
CONST	SEGMENT
??_7__DynamicNumberChainBufferTag@ResourceHolderUINT@Internal@Core@Math@Palmtree@@6B@ DD FLAT:??_R4__DynamicNumberChainBufferTag@ResourceHolderUINT@Internal@Core@Math@Palmtree@@6B@ ; Palmtree::Math::Core::Internal::ResourceHolderUINT::__DynamicNumberChainBufferTag::`vftable'
	DD	FLAT:??_E__DynamicNumberChainBufferTag@ResourceHolderUINT@Internal@Core@Math@Palmtree@@UAEPAXI@Z
	DD	FLAT:?EqualsBufferAddress@__DynamicNumberChainBufferTag@ResourceHolderUINT@Internal@Core@Math@Palmtree@@UAEHPAX@Z
	DD	FLAT:?Clear@__ChainBufferTag@ResourceHolder@Internal@Core@Math@Palmtree@@UAEXXZ
	DD	FLAT:?Check@__DynamicNumberChainBufferTag@ResourceHolderUINT@Internal@Core@Math@Palmtree@@UAEXXZ
	DD	FLAT:?Destruct@__DynamicNumberChainBufferTag@ResourceHolderUINT@Internal@Core@Math@Palmtree@@UAEXXZ
CONST	ENDS
;	COMDAT ??_7__StringChainBufferTag@ResourceHolderUINT@Internal@Core@Math@Palmtree@@6B@
CONST	SEGMENT
??_7__StringChainBufferTag@ResourceHolderUINT@Internal@Core@Math@Palmtree@@6B@ DD FLAT:??_R4__StringChainBufferTag@ResourceHolderUINT@Internal@Core@Math@Palmtree@@6B@ ; Palmtree::Math::Core::Internal::ResourceHolderUINT::__StringChainBufferTag::`vftable'
	DD	FLAT:??_E__StringChainBufferTag@ResourceHolderUINT@Internal@Core@Math@Palmtree@@UAEPAXI@Z
	DD	FLAT:?EqualsBufferAddress@__StringChainBufferTag@ResourceHolderUINT@Internal@Core@Math@Palmtree@@UAEHPAX@Z
	DD	FLAT:?Clear@__StringChainBufferTag@ResourceHolderUINT@Internal@Core@Math@Palmtree@@UAEXXZ
	DD	FLAT:?Check@__StringChainBufferTag@ResourceHolderUINT@Internal@Core@Math@Palmtree@@UAEXXZ
	DD	FLAT:?Destruct@__StringChainBufferTag@ResourceHolderUINT@Internal@Core@Math@Palmtree@@UAEXXZ
CONST	ENDS
;	COMDAT ??_7____UNIT_TYPE_Array_ChainBufferTag@ResourceHolderUINT@Internal@Core@Math@Palmtree@@6B@
CONST	SEGMENT
??_7____UNIT_TYPE_Array_ChainBufferTag@ResourceHolderUINT@Internal@Core@Math@Palmtree@@6B@ DD FLAT:??_R4____UNIT_TYPE_Array_ChainBufferTag@ResourceHolderUINT@Internal@Core@Math@Palmtree@@6B@ ; Palmtree::Math::Core::Internal::ResourceHolderUINT::____UNIT_TYPE_Array_ChainBufferTag::`vftable'
	DD	FLAT:??_E____UNIT_TYPE_Array_ChainBufferTag@ResourceHolderUINT@Internal@Core@Math@Palmtree@@UAEPAXI@Z
	DD	FLAT:?EqualsBufferAddress@____UNIT_TYPE_Array_ChainBufferTag@ResourceHolderUINT@Internal@Core@Math@Palmtree@@UAEHPAX@Z
	DD	FLAT:?Clear@____UNIT_TYPE_Array_ChainBufferTag@ResourceHolderUINT@Internal@Core@Math@Palmtree@@UAEXXZ
	DD	FLAT:?Check@____UNIT_TYPE_Array_ChainBufferTag@ResourceHolderUINT@Internal@Core@Math@Palmtree@@UAEXXZ
	DD	FLAT:?Destruct@____UNIT_TYPE_Array_ChainBufferTag@ResourceHolderUINT@Internal@Core@Math@Palmtree@@UAEXXZ
CONST	ENDS
;	COMDAT ??_7__GenericChainBufferTag@ResourceHolderUINT@Internal@Core@Math@Palmtree@@6B@
CONST	SEGMENT
??_7__GenericChainBufferTag@ResourceHolderUINT@Internal@Core@Math@Palmtree@@6B@ DD FLAT:??_R4__GenericChainBufferTag@ResourceHolderUINT@Internal@Core@Math@Palmtree@@6B@ ; Palmtree::Math::Core::Internal::ResourceHolderUINT::__GenericChainBufferTag::`vftable'
	DD	FLAT:??_E__GenericChainBufferTag@ResourceHolderUINT@Internal@Core@Math@Palmtree@@UAEPAXI@Z
	DD	FLAT:?EqualsBufferAddress@__GenericChainBufferTag@ResourceHolderUINT@Internal@Core@Math@Palmtree@@UAEHPAX@Z
	DD	FLAT:?Clear@__ChainBufferTag@ResourceHolder@Internal@Core@Math@Palmtree@@UAEXXZ
	DD	FLAT:?Check@__ChainBufferTag@ResourceHolder@Internal@Core@Math@Palmtree@@UAEXXZ
	DD	FLAT:?Destruct@__GenericChainBufferTag@ResourceHolderUINT@Internal@Core@Math@Palmtree@@UAEXXZ
CONST	ENDS
;	COMDAT ??_C@_1CG@CNOPPENL@?$PP?$II?$AA?$BP?$AAW?$AAf?$AAD?$AAj?$AAD?$PP?$LD?$PP?$PM?$PP?I?$AAk?$AA0?$AAT?$AAW?$AA?$HO@
CONST	SEGMENT
??_C@_1CG@CNOPPENL@?$PP?$II?$AA?$BP?$AAW?$AAf?$AAD?$AAj?$AAD?$PP?$LD?$PP?$PM?$PP?I?$AAk?$AA0?$AAT?$AAW?$AA?$HO@ DB 088H
	DB	'N', 01fH, 'gW0f0D0j0D0', 0b3H, '0', 0fcH, '0', 0c9H, '0k00RT', 090H
	DB	'W0~0W0_0', 02H, '0', 00H, 00H		; `string'
CONST	ENDS
;	COMDAT ??_C@_1IM@LGDAALAB@?$AAp?$AAm?$AAc?$AA_?$AAr?$AAe?$AAs?$AAo?$AAu?$AAr?$AAc?$AAe?$AAh?$AAo?$AAl@
CONST	SEGMENT
??_C@_1IM@LGDAALAB@?$AAp?$AAm?$AAc?$AA_?$AAr?$AAe?$AAs?$AAo?$AAu?$AAr?$AAc?$AAe?$AAh?$AAo?$AAl@ DB 'p'
	DB	00H, 'm', 00H, 'c', 00H, '_', 00H, 'r', 00H, 'e', 00H, 's', 00H
	DB	'o', 00H, 'u', 00H, 'r', 00H, 'c', 00H, 'e', 00H, 'h', 00H, 'o'
	DB	00H, 'l', 00H, 'd', 00H, 'e', 00H, 'r', 00H, '.', 00H, 'h', 00H
	DB	';', 00H, 'R', 00H, 'e', 00H, 's', 00H, 'o', 00H, 'u', 00H, 'r'
	DB	00H, 'c', 00H, 'e', 00H, 'H', 00H, 'o', 00H, 'l', 00H, 'd', 00H
	DB	'e', 00H, 'r', 00H, ':', 00H, ':', 00H, '_', 00H, '_', 00H, 'R'
	DB	00H, 'o', 00H, 'o', 00H, 't', 00H, 'T', 00H, 'a', 00H, 'g', 00H
	DB	':', 00H, ':', 00H, 'E', 00H, 'q', 00H, 'u', 00H, 'a', 00H, 'l'
	DB	00H, 's', 00H, 'B', 00H, 'u', 00H, 'f', 00H, 'f', 00H, 'e', 00H
	DB	'r', 00H, 'A', 00H, 'd', 00H, 'd', 00H, 'r', 00H, 'e', 00H, 's'
	DB	00H, 's', 00H, ';', 00H, '1', 00H, 00H, 00H	; `string'
CONST	ENDS
;	COMDAT __CT??_R0?AVException@Internal@Core@Math@Palmtree@@@8??0Exception@Internal@Core@Math@Palmtree@@QAE@ABV01234@@Z24
xdata$x	SEGMENT
__CT??_R0?AVException@Internal@Core@Math@Palmtree@@@8??0Exception@Internal@Core@Math@Palmtree@@QAE@ABV01234@@Z24 DD 00H
	DD	FLAT:??_R0?AVException@Internal@Core@Math@Palmtree@@@8
	DD	00H
	DD	0ffffffffH
	ORG $+4
	DD	018H
	DD	FLAT:??0Exception@Internal@Core@Math@Palmtree@@QAE@ABV01234@@Z
xdata$x	ENDS
;	COMDAT ??_R0?AVException@Internal@Core@Math@Palmtree@@@8
data$r	SEGMENT
??_R0?AVException@Internal@Core@Math@Palmtree@@@8 DD FLAT:??_7type_info@@6B@ ; Palmtree::Math::Core::Internal::Exception `RTTI Type Descriptor'
	DD	00H
	DB	'.?AVException@Internal@Core@Math@Palmtree@@', 00H
data$r	ENDS
;	COMDAT __CT??_R0?AVInternalErrorException@Internal@Core@Math@Palmtree@@@8??0InternalErrorException@Internal@Core@Math@Palmtree@@QAE@ABV01234@@Z24
xdata$x	SEGMENT
__CT??_R0?AVInternalErrorException@Internal@Core@Math@Palmtree@@@8??0InternalErrorException@Internal@Core@Math@Palmtree@@QAE@ABV01234@@Z24 DD 00H
	DD	FLAT:??_R0?AVInternalErrorException@Internal@Core@Math@Palmtree@@@8
	DD	00H
	DD	0ffffffffH
	ORG $+4
	DD	018H
	DD	FLAT:??0InternalErrorException@Internal@Core@Math@Palmtree@@QAE@ABV01234@@Z
xdata$x	ENDS
;	COMDAT ??_R0?AVInternalErrorException@Internal@Core@Math@Palmtree@@@8
data$r	SEGMENT
??_R0?AVInternalErrorException@Internal@Core@Math@Palmtree@@@8 DD FLAT:??_7type_info@@6B@ ; Palmtree::Math::Core::Internal::InternalErrorException `RTTI Type Descriptor'
	DD	00H
	DB	'.?AVInternalErrorException@Internal@Core@Math@Palmtree@@'
	DB	00H
data$r	ENDS
;	COMDAT __CTA2?AVInternalErrorException@Internal@Core@Math@Palmtree@@
xdata$x	SEGMENT
__CTA2?AVInternalErrorException@Internal@Core@Math@Palmtree@@ DD 02H
	DD	FLAT:__CT??_R0?AVInternalErrorException@Internal@Core@Math@Palmtree@@@8??0InternalErrorException@Internal@Core@Math@Palmtree@@QAE@ABV01234@@Z24
	DD	FLAT:__CT??_R0?AVException@Internal@Core@Math@Palmtree@@@8??0Exception@Internal@Core@Math@Palmtree@@QAE@ABV01234@@Z24
xdata$x	ENDS
;	COMDAT __TI2?AVInternalErrorException@Internal@Core@Math@Palmtree@@
xdata$x	SEGMENT
__TI2?AVInternalErrorException@Internal@Core@Math@Palmtree@@ DD 00H
	DD	FLAT:??1InternalErrorException@Internal@Core@Math@Palmtree@@UAE@XZ
	DD	00H
	DD	FLAT:__CTA2?AVInternalErrorException@Internal@Core@Math@Palmtree@@
xdata$x	ENDS
;	COMDAT ??_7ResourceHolder@Internal@Core@Math@Palmtree@@6B@
CONST	SEGMENT
??_7ResourceHolder@Internal@Core@Math@Palmtree@@6B@ DD FLAT:??_R4ResourceHolder@Internal@Core@Math@Palmtree@@6B@ ; Palmtree::Math::Core::Internal::ResourceHolder::`vftable'
	DD	FLAT:??_EResourceHolder@Internal@Core@Math@Palmtree@@UAEPAXI@Z
CONST	ENDS
;	COMDAT ??_7__RootTag@ResourceHolder@Internal@Core@Math@Palmtree@@6B@
CONST	SEGMENT
??_7__RootTag@ResourceHolder@Internal@Core@Math@Palmtree@@6B@ DD FLAT:??_R4__RootTag@ResourceHolder@Internal@Core@Math@Palmtree@@6B@ ; Palmtree::Math::Core::Internal::ResourceHolder::__RootTag::`vftable'
	DD	FLAT:??_E__RootTag@ResourceHolder@Internal@Core@Math@Palmtree@@UAEPAXI@Z
	DD	FLAT:?EqualsBufferAddress@__RootTag@ResourceHolder@Internal@Core@Math@Palmtree@@UAEHPAX@Z
	DD	FLAT:?Clear@__ChainBufferTag@ResourceHolder@Internal@Core@Math@Palmtree@@UAEXXZ
	DD	FLAT:?Check@__ChainBufferTag@ResourceHolder@Internal@Core@Math@Palmtree@@UAEXXZ
	DD	FLAT:?Destruct@__RootTag@ResourceHolder@Internal@Core@Math@Palmtree@@UAEXXZ
CONST	ENDS
;	COMDAT ??_7__ChainBufferTag@ResourceHolder@Internal@Core@Math@Palmtree@@6B@
CONST	SEGMENT
??_7__ChainBufferTag@ResourceHolder@Internal@Core@Math@Palmtree@@6B@ DD FLAT:??_R4__ChainBufferTag@ResourceHolder@Internal@Core@Math@Palmtree@@6B@ ; Palmtree::Math::Core::Internal::ResourceHolder::__ChainBufferTag::`vftable'
	DD	FLAT:??_E__ChainBufferTag@ResourceHolder@Internal@Core@Math@Palmtree@@UAEPAXI@Z
	DD	FLAT:__purecall
	DD	FLAT:?Clear@__ChainBufferTag@ResourceHolder@Internal@Core@Math@Palmtree@@UAEXXZ
	DD	FLAT:?Check@__ChainBufferTag@ResourceHolder@Internal@Core@Math@Palmtree@@UAEXXZ
	DD	FLAT:__purecall
CONST	ENDS
;	COMDAT ??_7BadBufferException@Internal@Core@Math@Palmtree@@6B@
CONST	SEGMENT
??_7BadBufferException@Internal@Core@Math@Palmtree@@6B@ DD FLAT:??_R4BadBufferException@Internal@Core@Math@Palmtree@@6B@ ; Palmtree::Math::Core::Internal::BadBufferException::`vftable'
	DD	FLAT:??_EBadBufferException@Internal@Core@Math@Palmtree@@UAEPAXI@Z
	DD	FLAT:?what@exception@std@@UBEPBDXZ
CONST	ENDS
;	COMDAT ??_7InternalErrorException@Internal@Core@Math@Palmtree@@6B@
CONST	SEGMENT
??_7InternalErrorException@Internal@Core@Math@Palmtree@@6B@ DD FLAT:??_R4InternalErrorException@Internal@Core@Math@Palmtree@@6B@ ; Palmtree::Math::Core::Internal::InternalErrorException::`vftable'
	DD	FLAT:??_EInternalErrorException@Internal@Core@Math@Palmtree@@UAEPAXI@Z
	DD	FLAT:?what@exception@std@@UBEPBDXZ
CONST	ENDS
;	COMDAT ??_7NotEnoughMemoryException@Internal@Core@Math@Palmtree@@6B@
CONST	SEGMENT
??_7NotEnoughMemoryException@Internal@Core@Math@Palmtree@@6B@ DD FLAT:??_R4NotEnoughMemoryException@Internal@Core@Math@Palmtree@@6B@ ; Palmtree::Math::Core::Internal::NotEnoughMemoryException::`vftable'
	DD	FLAT:??_ENotEnoughMemoryException@Internal@Core@Math@Palmtree@@UAEPAXI@Z
	DD	FLAT:?what@exception@std@@UBEPBDXZ
CONST	ENDS
;	COMDAT ??_7ArgumentNullException@Internal@Core@Math@Palmtree@@6B@
CONST	SEGMENT
??_7ArgumentNullException@Internal@Core@Math@Palmtree@@6B@ DD FLAT:??_R4ArgumentNullException@Internal@Core@Math@Palmtree@@6B@ ; Palmtree::Math::Core::Internal::ArgumentNullException::`vftable'
	DD	FLAT:??_EArgumentNullException@Internal@Core@Math@Palmtree@@UAEPAXI@Z
	DD	FLAT:?what@exception@std@@UBEPBDXZ
CONST	ENDS
;	COMDAT ??_7ArgumentException@Internal@Core@Math@Palmtree@@6B@
CONST	SEGMENT
??_7ArgumentException@Internal@Core@Math@Palmtree@@6B@ DD FLAT:??_R4ArgumentException@Internal@Core@Math@Palmtree@@6B@ ; Palmtree::Math::Core::Internal::ArgumentException::`vftable'
	DD	FLAT:??_EArgumentException@Internal@Core@Math@Palmtree@@UAEPAXI@Z
	DD	FLAT:?what@exception@std@@UBEPBDXZ
CONST	ENDS
;	COMDAT ??_7Exception@Internal@Core@Math@Palmtree@@6B@
CONST	SEGMENT
??_7Exception@Internal@Core@Math@Palmtree@@6B@ DD FLAT:??_R4Exception@Internal@Core@Math@Palmtree@@6B@ ; Palmtree::Math::Core::Internal::Exception::`vftable'
	DD	FLAT:??_EException@Internal@Core@Math@Palmtree@@UAEPAXI@Z
	DD	FLAT:?what@exception@std@@UBEPBDXZ
CONST	ENDS
;	COMDAT ??_C@_0BC@EOODALEL@Unknown?5exception@
CONST	SEGMENT
??_C@_0BC@EOODALEL@Unknown?5exception@ DB 'Unknown exception', 00H ; `string'
CONST	ENDS
;	COMDAT ??_7exception@std@@6B@
CONST	SEGMENT
??_7exception@std@@6B@ DD FLAT:??_R4exception@std@@6B@	; std::exception::`vftable'
	DD	FLAT:??_Eexception@std@@UAEPAXI@Z
	DD	FLAT:?what@exception@std@@UBEPBDXZ
CONST	ENDS
;	COMDAT xdata$x
xdata$x	SEGMENT
__ehfuncinfo$?AllocateNumber@Internal@Core@Math@Palmtree@@YAPAU__tag_NUMBER_HEADER@1234@I@Z DD 019930522H
	DD	09H
	DD	FLAT:__unwindtable$?AllocateNumber@Internal@Core@Math@Palmtree@@YAPAU__tag_NUMBER_HEADER@1234@I@Z
	DD	2 DUP(00H)
	DD	2 DUP(00H)
	DD	00H
	DD	00H
__unwindtable$?AllocateNumber@Internal@Core@Math@Palmtree@@YAPAU__tag_NUMBER_HEADER@1234@I@Z DD 0ffffffffH
	DD	FLAT:__unwindfunclet$?AllocateNumber@Internal@Core@Math@Palmtree@@YAPAU__tag_NUMBER_HEADER@1234@I@Z$3
	DD	0ffffffffH
	DD	FLAT:__unwindfunclet$?AllocateNumber@Internal@Core@Math@Palmtree@@YAPAU__tag_NUMBER_HEADER@1234@I@Z$2
	DD	0ffffffffH
	DD	FLAT:__unwindfunclet$?AllocateNumber@Internal@Core@Math@Palmtree@@YAPAU__tag_NUMBER_HEADER@1234@I@Z$1
	DD	0ffffffffH
	DD	FLAT:__unwindfunclet$?AllocateNumber@Internal@Core@Math@Palmtree@@YAPAU__tag_NUMBER_HEADER@1234@I@Z$0
	DD	03H
	DD	FLAT:__unwindfunclet$?AllocateNumber@Internal@Core@Math@Palmtree@@YAPAU__tag_NUMBER_HEADER@1234@I@Z$4
	DD	04H
	DD	FLAT:__unwindfunclet$?AllocateNumber@Internal@Core@Math@Palmtree@@YAPAU__tag_NUMBER_HEADER@1234@I@Z$5
	DD	05H
	DD	FLAT:__unwindfunclet$?AllocateNumber@Internal@Core@Math@Palmtree@@YAPAU__tag_NUMBER_HEADER@1234@I@Z$6
	DD	03H
	DD	FLAT:__unwindfunclet$?AllocateNumber@Internal@Core@Math@Palmtree@@YAPAU__tag_NUMBER_HEADER@1234@I@Z$7
	DD	0ffffffffH
	DD	FLAT:__unwindfunclet$?AllocateNumber@Internal@Core@Math@Palmtree@@YAPAU__tag_NUMBER_HEADER@1234@I@Z$8
xdata$x	ENDS
;	COMDAT xdata$x
xdata$x	SEGMENT
__unwindtable$??_GResourceHolderUINT@Internal@Core@Math@Palmtree@@UAEPAXI@Z DD 0ffffffffH
	DD	FLAT:__unwindfunclet$??_GResourceHolderUINT@Internal@Core@Math@Palmtree@@UAEPAXI@Z$0
__ehfuncinfo$??_GResourceHolderUINT@Internal@Core@Math@Palmtree@@UAEPAXI@Z DD 019930522H
	DD	01H
	DD	FLAT:__unwindtable$??_GResourceHolderUINT@Internal@Core@Math@Palmtree@@UAEPAXI@Z
	DD	2 DUP(00H)
	DD	2 DUP(00H)
	DD	00H
	DD	04H
xdata$x	ENDS
;	COMDAT xdata$x
xdata$x	SEGMENT
__unwindtable$?UnlinkStatickNumber@ResourceHolderUINT@Internal@Core@Math@Palmtree@@QAEXPAU__tag_NUMBER_HEADER@2345@@Z DD 0ffffffffH
	DD	FLAT:__unwindfunclet$?UnlinkStatickNumber@ResourceHolderUINT@Internal@Core@Math@Palmtree@@QAEXPAU__tag_NUMBER_HEADER@2345@@Z$0
__ehfuncinfo$?UnlinkStatickNumber@ResourceHolderUINT@Internal@Core@Math@Palmtree@@QAEXPAU__tag_NUMBER_HEADER@2345@@Z DD 019930522H
	DD	01H
	DD	FLAT:__unwindtable$?UnlinkStatickNumber@ResourceHolderUINT@Internal@Core@Math@Palmtree@@QAEXPAU__tag_NUMBER_HEADER@2345@@Z
	DD	2 DUP(00H)
	DD	2 DUP(00H)
	DD	00H
	DD	00H
xdata$x	ENDS
;	COMDAT xdata$x
xdata$x	SEGMENT
__unwindtable$?DetatchStaticNumber@ResourceHolderUINT@Internal@Core@Math@Palmtree@@QAEXPAU__tag_NUMBER_HEADER@2345@@Z DD 0ffffffffH
	DD	FLAT:__unwindfunclet$?DetatchStaticNumber@ResourceHolderUINT@Internal@Core@Math@Palmtree@@QAEXPAU__tag_NUMBER_HEADER@2345@@Z$0
__ehfuncinfo$?DetatchStaticNumber@ResourceHolderUINT@Internal@Core@Math@Palmtree@@QAEXPAU__tag_NUMBER_HEADER@2345@@Z DD 019930522H
	DD	01H
	DD	FLAT:__unwindtable$?DetatchStaticNumber@ResourceHolderUINT@Internal@Core@Math@Palmtree@@QAEXPAU__tag_NUMBER_HEADER@2345@@Z
	DD	2 DUP(00H)
	DD	2 DUP(00H)
	DD	00H
	DD	00H
xdata$x	ENDS
;	COMDAT xdata$x
xdata$x	SEGMENT
__unwindtable$?AttatchStaticNumber@ResourceHolderUINT@Internal@Core@Math@Palmtree@@QAEXPAU__tag_NUMBER_HEADER@2345@I@Z DD 0ffffffffH
	DD	FLAT:__unwindfunclet$?AttatchStaticNumber@ResourceHolderUINT@Internal@Core@Math@Palmtree@@QAEXPAU__tag_NUMBER_HEADER@2345@I@Z$0
	DD	00H
	DD	FLAT:__unwindfunclet$?AttatchStaticNumber@ResourceHolderUINT@Internal@Core@Math@Palmtree@@QAEXPAU__tag_NUMBER_HEADER@2345@I@Z$1
	DD	01H
	DD	FLAT:__unwindfunclet$?AttatchStaticNumber@ResourceHolderUINT@Internal@Core@Math@Palmtree@@QAEXPAU__tag_NUMBER_HEADER@2345@I@Z$2
__ehfuncinfo$?AttatchStaticNumber@ResourceHolderUINT@Internal@Core@Math@Palmtree@@QAEXPAU__tag_NUMBER_HEADER@2345@I@Z DD 019930522H
	DD	03H
	DD	FLAT:__unwindtable$?AttatchStaticNumber@ResourceHolderUINT@Internal@Core@Math@Palmtree@@QAEXPAU__tag_NUMBER_HEADER@2345@I@Z
	DD	2 DUP(00H)
	DD	2 DUP(00H)
	DD	00H
	DD	00H
xdata$x	ENDS
;	COMDAT xdata$x
xdata$x	SEGMENT
__unwindtable$?UnlinkNumber@ResourceHolderUINT@Internal@Core@Math@Palmtree@@QAEXPAU__tag_NUMBER_HEADER@2345@@Z DD 0ffffffffH
	DD	FLAT:__unwindfunclet$?UnlinkNumber@ResourceHolderUINT@Internal@Core@Math@Palmtree@@QAEXPAU__tag_NUMBER_HEADER@2345@@Z$0
__ehfuncinfo$?UnlinkNumber@ResourceHolderUINT@Internal@Core@Math@Palmtree@@QAEXPAU__tag_NUMBER_HEADER@2345@@Z DD 019930522H
	DD	01H
	DD	FLAT:__unwindtable$?UnlinkNumber@ResourceHolderUINT@Internal@Core@Math@Palmtree@@QAEXPAU__tag_NUMBER_HEADER@2345@@Z
	DD	2 DUP(00H)
	DD	2 DUP(00H)
	DD	00H
	DD	00H
xdata$x	ENDS
;	COMDAT xdata$x
xdata$x	SEGMENT
__unwindtable$?DeallocateNumber@ResourceHolderUINT@Internal@Core@Math@Palmtree@@QAEXPAU__tag_NUMBER_HEADER@2345@@Z DD 0ffffffffH
	DD	FLAT:__unwindfunclet$?DeallocateNumber@ResourceHolderUINT@Internal@Core@Math@Palmtree@@QAEXPAU__tag_NUMBER_HEADER@2345@@Z$0
__ehfuncinfo$?DeallocateNumber@ResourceHolderUINT@Internal@Core@Math@Palmtree@@QAEXPAU__tag_NUMBER_HEADER@2345@@Z DD 019930522H
	DD	01H
	DD	FLAT:__unwindtable$?DeallocateNumber@ResourceHolderUINT@Internal@Core@Math@Palmtree@@QAEXPAU__tag_NUMBER_HEADER@2345@@Z
	DD	2 DUP(00H)
	DD	2 DUP(00H)
	DD	00H
	DD	00H
xdata$x	ENDS
;	COMDAT xdata$x
xdata$x	SEGMENT
__unwindtable$?HookNumber@ResourceHolderUINT@Internal@Core@Math@Palmtree@@QAEXPAU__tag_NUMBER_HEADER@2345@@Z DD 0ffffffffH
	DD	FLAT:__unwindfunclet$?HookNumber@ResourceHolderUINT@Internal@Core@Math@Palmtree@@QAEXPAU__tag_NUMBER_HEADER@2345@@Z$0
	DD	00H
	DD	FLAT:__unwindfunclet$?HookNumber@ResourceHolderUINT@Internal@Core@Math@Palmtree@@QAEXPAU__tag_NUMBER_HEADER@2345@@Z$1
	DD	01H
	DD	FLAT:__unwindfunclet$?HookNumber@ResourceHolderUINT@Internal@Core@Math@Palmtree@@QAEXPAU__tag_NUMBER_HEADER@2345@@Z$2
__ehfuncinfo$?HookNumber@ResourceHolderUINT@Internal@Core@Math@Palmtree@@QAEXPAU__tag_NUMBER_HEADER@2345@@Z DD 019930522H
	DD	03H
	DD	FLAT:__unwindtable$?HookNumber@ResourceHolderUINT@Internal@Core@Math@Palmtree@@QAEXPAU__tag_NUMBER_HEADER@2345@@Z
	DD	2 DUP(00H)
	DD	2 DUP(00H)
	DD	00H
	DD	00H
xdata$x	ENDS
;	COMDAT xdata$x
xdata$x	SEGMENT
__unwindtable$?AllocateNumber@ResourceHolderUINT@Internal@Core@Math@Palmtree@@QAEPAU__tag_NUMBER_HEADER@2345@I@Z DD 0ffffffffH
	DD	FLAT:__unwindfunclet$?AllocateNumber@ResourceHolderUINT@Internal@Core@Math@Palmtree@@QAEPAU__tag_NUMBER_HEADER@2345@I@Z$0
	DD	00H
	DD	FLAT:__unwindfunclet$?AllocateNumber@ResourceHolderUINT@Internal@Core@Math@Palmtree@@QAEPAU__tag_NUMBER_HEADER@2345@I@Z$1
	DD	01H
	DD	FLAT:__unwindfunclet$?AllocateNumber@ResourceHolderUINT@Internal@Core@Math@Palmtree@@QAEPAU__tag_NUMBER_HEADER@2345@I@Z$2
__ehfuncinfo$?AllocateNumber@ResourceHolderUINT@Internal@Core@Math@Palmtree@@QAEPAU__tag_NUMBER_HEADER@2345@I@Z DD 019930522H
	DD	03H
	DD	FLAT:__unwindtable$?AllocateNumber@ResourceHolderUINT@Internal@Core@Math@Palmtree@@QAEPAU__tag_NUMBER_HEADER@2345@I@Z
	DD	2 DUP(00H)
	DD	2 DUP(00H)
	DD	00H
	DD	00H
xdata$x	ENDS
;	COMDAT xdata$x
xdata$x	SEGMENT
__unwindtable$?UnlinkString@ResourceHolderUINT@Internal@Core@Math@Palmtree@@QAEXPA_W@Z DD 0ffffffffH
	DD	FLAT:__unwindfunclet$?UnlinkString@ResourceHolderUINT@Internal@Core@Math@Palmtree@@QAEXPA_W@Z$0
__ehfuncinfo$?UnlinkString@ResourceHolderUINT@Internal@Core@Math@Palmtree@@QAEXPA_W@Z DD 019930522H
	DD	01H
	DD	FLAT:__unwindtable$?UnlinkString@ResourceHolderUINT@Internal@Core@Math@Palmtree@@QAEXPA_W@Z
	DD	2 DUP(00H)
	DD	2 DUP(00H)
	DD	00H
	DD	00H
xdata$x	ENDS
;	COMDAT xdata$x
xdata$x	SEGMENT
__unwindtable$?DeallocateString@ResourceHolderUINT@Internal@Core@Math@Palmtree@@QAEXPA_W@Z DD 0ffffffffH
	DD	FLAT:__unwindfunclet$?DeallocateString@ResourceHolderUINT@Internal@Core@Math@Palmtree@@QAEXPA_W@Z$0
__ehfuncinfo$?DeallocateString@ResourceHolderUINT@Internal@Core@Math@Palmtree@@QAEXPA_W@Z DD 019930522H
	DD	01H
	DD	FLAT:__unwindtable$?DeallocateString@ResourceHolderUINT@Internal@Core@Math@Palmtree@@QAEXPA_W@Z
	DD	2 DUP(00H)
	DD	2 DUP(00H)
	DD	00H
	DD	00H
xdata$x	ENDS
;	COMDAT xdata$x
xdata$x	SEGMENT
__unwindtable$?ClearString@ResourceHolderUINT@Internal@Core@Math@Palmtree@@QAEXPA_W@Z DD 0ffffffffH
	DD	FLAT:__unwindfunclet$?ClearString@ResourceHolderUINT@Internal@Core@Math@Palmtree@@QAEXPA_W@Z$0
__ehfuncinfo$?ClearString@ResourceHolderUINT@Internal@Core@Math@Palmtree@@QAEXPA_W@Z DD 019930522H
	DD	01H
	DD	FLAT:__unwindtable$?ClearString@ResourceHolderUINT@Internal@Core@Math@Palmtree@@QAEXPA_W@Z
	DD	2 DUP(00H)
	DD	2 DUP(00H)
	DD	00H
	DD	00H
xdata$x	ENDS
;	COMDAT xdata$x
xdata$x	SEGMENT
__unwindtable$?AllocateString@ResourceHolderUINT@Internal@Core@Math@Palmtree@@QAEPA_WI@Z DD 0ffffffffH
	DD	FLAT:__unwindfunclet$?AllocateString@ResourceHolderUINT@Internal@Core@Math@Palmtree@@QAEPA_WI@Z$0
	DD	00H
	DD	FLAT:__unwindfunclet$?AllocateString@ResourceHolderUINT@Internal@Core@Math@Palmtree@@QAEPA_WI@Z$1
	DD	01H
	DD	FLAT:__unwindfunclet$?AllocateString@ResourceHolderUINT@Internal@Core@Math@Palmtree@@QAEPA_WI@Z$2
__ehfuncinfo$?AllocateString@ResourceHolderUINT@Internal@Core@Math@Palmtree@@QAEPA_WI@Z DD 019930522H
	DD	03H
	DD	FLAT:__unwindtable$?AllocateString@ResourceHolderUINT@Internal@Core@Math@Palmtree@@QAEPA_WI@Z
	DD	2 DUP(00H)
	DD	2 DUP(00H)
	DD	00H
	DD	00H
xdata$x	ENDS
;	COMDAT xdata$x
xdata$x	SEGMENT
__unwindtable$?UnlinkBlock@ResourceHolderUINT@Internal@Core@Math@Palmtree@@QAEXPAI@Z DD 0ffffffffH
	DD	FLAT:__unwindfunclet$?UnlinkBlock@ResourceHolderUINT@Internal@Core@Math@Palmtree@@QAEXPAI@Z$0
__ehfuncinfo$?UnlinkBlock@ResourceHolderUINT@Internal@Core@Math@Palmtree@@QAEXPAI@Z DD 019930522H
	DD	01H
	DD	FLAT:__unwindtable$?UnlinkBlock@ResourceHolderUINT@Internal@Core@Math@Palmtree@@QAEXPAI@Z
	DD	2 DUP(00H)
	DD	2 DUP(00H)
	DD	00H
	DD	00H
xdata$x	ENDS
;	COMDAT xdata$x
xdata$x	SEGMENT
__unwindtable$?DeallocateBlock@ResourceHolderUINT@Internal@Core@Math@Palmtree@@QAEXPAI@Z DD 0ffffffffH
	DD	FLAT:__unwindfunclet$?DeallocateBlock@ResourceHolderUINT@Internal@Core@Math@Palmtree@@QAEXPAI@Z$0
__ehfuncinfo$?DeallocateBlock@ResourceHolderUINT@Internal@Core@Math@Palmtree@@QAEXPAI@Z DD 019930522H
	DD	01H
	DD	FLAT:__unwindtable$?DeallocateBlock@ResourceHolderUINT@Internal@Core@Math@Palmtree@@QAEXPAI@Z
	DD	2 DUP(00H)
	DD	2 DUP(00H)
	DD	00H
	DD	00H
xdata$x	ENDS
;	COMDAT xdata$x
xdata$x	SEGMENT
__unwindtable$?ClearBlock@ResourceHolderUINT@Internal@Core@Math@Palmtree@@QAEXPAI@Z DD 0ffffffffH
	DD	FLAT:__unwindfunclet$?ClearBlock@ResourceHolderUINT@Internal@Core@Math@Palmtree@@QAEXPAI@Z$0
__ehfuncinfo$?ClearBlock@ResourceHolderUINT@Internal@Core@Math@Palmtree@@QAEXPAI@Z DD 019930522H
	DD	01H
	DD	FLAT:__unwindtable$?ClearBlock@ResourceHolderUINT@Internal@Core@Math@Palmtree@@QAEXPAI@Z
	DD	2 DUP(00H)
	DD	2 DUP(00H)
	DD	00H
	DD	00H
xdata$x	ENDS
;	COMDAT xdata$x
xdata$x	SEGMENT
__unwindtable$?AllocateBlock@ResourceHolderUINT@Internal@Core@Math@Palmtree@@QAEPAII@Z DD 0ffffffffH
	DD	FLAT:__unwindfunclet$?AllocateBlock@ResourceHolderUINT@Internal@Core@Math@Palmtree@@QAEPAII@Z$0
	DD	00H
	DD	FLAT:__unwindfunclet$?AllocateBlock@ResourceHolderUINT@Internal@Core@Math@Palmtree@@QAEPAII@Z$1
	DD	01H
	DD	FLAT:__unwindfunclet$?AllocateBlock@ResourceHolderUINT@Internal@Core@Math@Palmtree@@QAEPAII@Z$2
__ehfuncinfo$?AllocateBlock@ResourceHolderUINT@Internal@Core@Math@Palmtree@@QAEPAII@Z DD 019930522H
	DD	03H
	DD	FLAT:__unwindtable$?AllocateBlock@ResourceHolderUINT@Internal@Core@Math@Palmtree@@QAEPAII@Z
	DD	2 DUP(00H)
	DD	2 DUP(00H)
	DD	00H
	DD	00H
xdata$x	ENDS
;	COMDAT xdata$x
xdata$x	SEGMENT
__unwindtable$?UnlinkBytes@ResourceHolderUINT@Internal@Core@Math@Palmtree@@QAEXPAX@Z DD 0ffffffffH
	DD	FLAT:__unwindfunclet$?UnlinkBytes@ResourceHolderUINT@Internal@Core@Math@Palmtree@@QAEXPAX@Z$0
__ehfuncinfo$?UnlinkBytes@ResourceHolderUINT@Internal@Core@Math@Palmtree@@QAEXPAX@Z DD 019930522H
	DD	01H
	DD	FLAT:__unwindtable$?UnlinkBytes@ResourceHolderUINT@Internal@Core@Math@Palmtree@@QAEXPAX@Z
	DD	2 DUP(00H)
	DD	2 DUP(00H)
	DD	00H
	DD	00H
xdata$x	ENDS
;	COMDAT xdata$x
xdata$x	SEGMENT
__unwindtable$?DeallocateBytes@ResourceHolderUINT@Internal@Core@Math@Palmtree@@QAEXPAX@Z DD 0ffffffffH
	DD	FLAT:__unwindfunclet$?DeallocateBytes@ResourceHolderUINT@Internal@Core@Math@Palmtree@@QAEXPAX@Z$0
__ehfuncinfo$?DeallocateBytes@ResourceHolderUINT@Internal@Core@Math@Palmtree@@QAEXPAX@Z DD 019930522H
	DD	01H
	DD	FLAT:__unwindtable$?DeallocateBytes@ResourceHolderUINT@Internal@Core@Math@Palmtree@@QAEXPAX@Z
	DD	2 DUP(00H)
	DD	2 DUP(00H)
	DD	00H
	DD	00H
xdata$x	ENDS
;	COMDAT xdata$x
xdata$x	SEGMENT
__unwindtable$?AllocateBytes@ResourceHolderUINT@Internal@Core@Math@Palmtree@@QAEPAXI@Z DD 0ffffffffH
	DD	FLAT:__unwindfunclet$?AllocateBytes@ResourceHolderUINT@Internal@Core@Math@Palmtree@@QAEPAXI@Z$0
	DD	00H
	DD	FLAT:__unwindfunclet$?AllocateBytes@ResourceHolderUINT@Internal@Core@Math@Palmtree@@QAEPAXI@Z$1
	DD	01H
	DD	FLAT:__unwindfunclet$?AllocateBytes@ResourceHolderUINT@Internal@Core@Math@Palmtree@@QAEPAXI@Z$2
__ehfuncinfo$?AllocateBytes@ResourceHolderUINT@Internal@Core@Math@Palmtree@@QAEPAXI@Z DD 019930522H
	DD	03H
	DD	FLAT:__unwindtable$?AllocateBytes@ResourceHolderUINT@Internal@Core@Math@Palmtree@@QAEPAXI@Z
	DD	2 DUP(00H)
	DD	2 DUP(00H)
	DD	00H
	DD	00H
xdata$x	ENDS
;	COMDAT xdata$x
xdata$x	SEGMENT
__unwindtable$??1ResourceHolderUINT@Internal@Core@Math@Palmtree@@UAE@XZ DD 0ffffffffH
	DD	FLAT:__unwindfunclet$??1ResourceHolderUINT@Internal@Core@Math@Palmtree@@UAE@XZ$0
__ehfuncinfo$??1ResourceHolderUINT@Internal@Core@Math@Palmtree@@UAE@XZ DD 019930522H
	DD	01H
	DD	FLAT:__unwindtable$??1ResourceHolderUINT@Internal@Core@Math@Palmtree@@UAE@XZ
	DD	2 DUP(00H)
	DD	2 DUP(00H)
	DD	00H
	DD	04H
xdata$x	ENDS
;	COMDAT xdata$x
xdata$x	SEGMENT
__unwindtable$??0ResourceHolderUINT@Internal@Core@Math@Palmtree@@QAE@XZ DD 0ffffffffH
	DD	FLAT:__unwindfunclet$??0ResourceHolderUINT@Internal@Core@Math@Palmtree@@QAE@XZ$2
	DD	0ffffffffH
	DD	FLAT:__unwindfunclet$??0ResourceHolderUINT@Internal@Core@Math@Palmtree@@QAE@XZ$1
	DD	0ffffffffH
	DD	FLAT:__unwindfunclet$??0ResourceHolderUINT@Internal@Core@Math@Palmtree@@QAE@XZ$0
__ehfuncinfo$??0ResourceHolderUINT@Internal@Core@Math@Palmtree@@QAE@XZ DD 019930522H
	DD	03H
	DD	FLAT:__unwindtable$??0ResourceHolderUINT@Internal@Core@Math@Palmtree@@QAE@XZ
	DD	2 DUP(00H)
	DD	2 DUP(00H)
	DD	00H
	DD	00H
xdata$x	ENDS
;	COMDAT xdata$x
xdata$x	SEGMENT
__unwindtable$??_G__StaticNumberChainBufferTag@ResourceHolderUINT@Internal@Core@Math@Palmtree@@UAEPAXI@Z DD 0ffffffffH
	DD	FLAT:__unwindfunclet$??_G__StaticNumberChainBufferTag@ResourceHolderUINT@Internal@Core@Math@Palmtree@@UAEPAXI@Z$0
__ehfuncinfo$??_G__StaticNumberChainBufferTag@ResourceHolderUINT@Internal@Core@Math@Palmtree@@UAEPAXI@Z DD 019930522H
	DD	01H
	DD	FLAT:__unwindtable$??_G__StaticNumberChainBufferTag@ResourceHolderUINT@Internal@Core@Math@Palmtree@@UAEPAXI@Z
	DD	2 DUP(00H)
	DD	2 DUP(00H)
	DD	00H
	DD	04H
xdata$x	ENDS
;	COMDAT xdata$x
xdata$x	SEGMENT
__unwindtable$??1__StaticNumberChainBufferTag@ResourceHolderUINT@Internal@Core@Math@Palmtree@@UAE@XZ DD 0ffffffffH
	DD	FLAT:__unwindfunclet$??1__StaticNumberChainBufferTag@ResourceHolderUINT@Internal@Core@Math@Palmtree@@UAE@XZ$0
__ehfuncinfo$??1__StaticNumberChainBufferTag@ResourceHolderUINT@Internal@Core@Math@Palmtree@@UAE@XZ DD 019930522H
	DD	01H
	DD	FLAT:__unwindtable$??1__StaticNumberChainBufferTag@ResourceHolderUINT@Internal@Core@Math@Palmtree@@UAE@XZ
	DD	2 DUP(00H)
	DD	2 DUP(00H)
	DD	00H
	DD	04H
xdata$x	ENDS
;	COMDAT xdata$x
xdata$x	SEGMENT
__unwindtable$??0__StaticNumberChainBufferTag@ResourceHolderUINT@Internal@Core@Math@Palmtree@@QAE@PAU__tag_NUMBER_HEADER@2345@@Z DD 0ffffffffH
	DD	FLAT:__unwindfunclet$??0__StaticNumberChainBufferTag@ResourceHolderUINT@Internal@Core@Math@Palmtree@@QAE@PAU__tag_NUMBER_HEADER@2345@@Z$0
__ehfuncinfo$??0__StaticNumberChainBufferTag@ResourceHolderUINT@Internal@Core@Math@Palmtree@@QAE@PAU__tag_NUMBER_HEADER@2345@@Z DD 019930522H
	DD	01H
	DD	FLAT:__unwindtable$??0__StaticNumberChainBufferTag@ResourceHolderUINT@Internal@Core@Math@Palmtree@@QAE@PAU__tag_NUMBER_HEADER@2345@@Z
	DD	2 DUP(00H)
	DD	2 DUP(00H)
	DD	00H
	DD	00H
xdata$x	ENDS
;	COMDAT xdata$x
xdata$x	SEGMENT
__unwindtable$??_G__NumberHandleHookingChainBufferTag@ResourceHolderUINT@Internal@Core@Math@Palmtree@@UAEPAXI@Z DD 0ffffffffH
	DD	FLAT:__unwindfunclet$??_G__NumberHandleHookingChainBufferTag@ResourceHolderUINT@Internal@Core@Math@Palmtree@@UAEPAXI@Z$0
__ehfuncinfo$??_G__NumberHandleHookingChainBufferTag@ResourceHolderUINT@Internal@Core@Math@Palmtree@@UAEPAXI@Z DD 019930522H
	DD	01H
	DD	FLAT:__unwindtable$??_G__NumberHandleHookingChainBufferTag@ResourceHolderUINT@Internal@Core@Math@Palmtree@@UAEPAXI@Z
	DD	2 DUP(00H)
	DD	2 DUP(00H)
	DD	00H
	DD	04H
xdata$x	ENDS
;	COMDAT xdata$x
xdata$x	SEGMENT
__unwindtable$??1__NumberHandleHookingChainBufferTag@ResourceHolderUINT@Internal@Core@Math@Palmtree@@UAE@XZ DD 0ffffffffH
	DD	FLAT:__unwindfunclet$??1__NumberHandleHookingChainBufferTag@ResourceHolderUINT@Internal@Core@Math@Palmtree@@UAE@XZ$0
__ehfuncinfo$??1__NumberHandleHookingChainBufferTag@ResourceHolderUINT@Internal@Core@Math@Palmtree@@UAE@XZ DD 019930522H
	DD	01H
	DD	FLAT:__unwindtable$??1__NumberHandleHookingChainBufferTag@ResourceHolderUINT@Internal@Core@Math@Palmtree@@UAE@XZ
	DD	2 DUP(00H)
	DD	2 DUP(00H)
	DD	00H
	DD	04H
xdata$x	ENDS
;	COMDAT xdata$x
xdata$x	SEGMENT
__unwindtable$??0__NumberHandleHookingChainBufferTag@ResourceHolderUINT@Internal@Core@Math@Palmtree@@QAE@PAU__tag_NUMBER_HEADER@2345@@Z DD 0ffffffffH
	DD	FLAT:__unwindfunclet$??0__NumberHandleHookingChainBufferTag@ResourceHolderUINT@Internal@Core@Math@Palmtree@@QAE@PAU__tag_NUMBER_HEADER@2345@@Z$0
__ehfuncinfo$??0__NumberHandleHookingChainBufferTag@ResourceHolderUINT@Internal@Core@Math@Palmtree@@QAE@PAU__tag_NUMBER_HEADER@2345@@Z DD 019930522H
	DD	01H
	DD	FLAT:__unwindtable$??0__NumberHandleHookingChainBufferTag@ResourceHolderUINT@Internal@Core@Math@Palmtree@@QAE@PAU__tag_NUMBER_HEADER@2345@@Z
	DD	2 DUP(00H)
	DD	2 DUP(00H)
	DD	00H
	DD	00H
xdata$x	ENDS
;	COMDAT xdata$x
xdata$x	SEGMENT
__unwindtable$??_G__DynamicNumberChainBufferTag@ResourceHolderUINT@Internal@Core@Math@Palmtree@@UAEPAXI@Z DD 0ffffffffH
	DD	FLAT:__unwindfunclet$??_G__DynamicNumberChainBufferTag@ResourceHolderUINT@Internal@Core@Math@Palmtree@@UAEPAXI@Z$0
__ehfuncinfo$??_G__DynamicNumberChainBufferTag@ResourceHolderUINT@Internal@Core@Math@Palmtree@@UAEPAXI@Z DD 019930522H
	DD	01H
	DD	FLAT:__unwindtable$??_G__DynamicNumberChainBufferTag@ResourceHolderUINT@Internal@Core@Math@Palmtree@@UAEPAXI@Z
	DD	2 DUP(00H)
	DD	2 DUP(00H)
	DD	00H
	DD	04H
xdata$x	ENDS
;	COMDAT xdata$x
xdata$x	SEGMENT
__unwindtable$??1__DynamicNumberChainBufferTag@ResourceHolderUINT@Internal@Core@Math@Palmtree@@UAE@XZ DD 0ffffffffH
	DD	FLAT:__unwindfunclet$??1__DynamicNumberChainBufferTag@ResourceHolderUINT@Internal@Core@Math@Palmtree@@UAE@XZ$0
__ehfuncinfo$??1__DynamicNumberChainBufferTag@ResourceHolderUINT@Internal@Core@Math@Palmtree@@UAE@XZ DD 019930522H
	DD	01H
	DD	FLAT:__unwindtable$??1__DynamicNumberChainBufferTag@ResourceHolderUINT@Internal@Core@Math@Palmtree@@UAE@XZ
	DD	2 DUP(00H)
	DD	2 DUP(00H)
	DD	00H
	DD	04H
xdata$x	ENDS
;	COMDAT xdata$x
xdata$x	SEGMENT
__unwindtable$??0__DynamicNumberChainBufferTag@ResourceHolderUINT@Internal@Core@Math@Palmtree@@QAE@PAU__tag_NUMBER_HEADER@2345@@Z DD 0ffffffffH
	DD	FLAT:__unwindfunclet$??0__DynamicNumberChainBufferTag@ResourceHolderUINT@Internal@Core@Math@Palmtree@@QAE@PAU__tag_NUMBER_HEADER@2345@@Z$0
__ehfuncinfo$??0__DynamicNumberChainBufferTag@ResourceHolderUINT@Internal@Core@Math@Palmtree@@QAE@PAU__tag_NUMBER_HEADER@2345@@Z DD 019930522H
	DD	01H
	DD	FLAT:__unwindtable$??0__DynamicNumberChainBufferTag@ResourceHolderUINT@Internal@Core@Math@Palmtree@@QAE@PAU__tag_NUMBER_HEADER@2345@@Z
	DD	2 DUP(00H)
	DD	2 DUP(00H)
	DD	00H
	DD	00H
xdata$x	ENDS
;	COMDAT xdata$x
xdata$x	SEGMENT
__unwindtable$??_G__StringChainBufferTag@ResourceHolderUINT@Internal@Core@Math@Palmtree@@UAEPAXI@Z DD 0ffffffffH
	DD	FLAT:__unwindfunclet$??_G__StringChainBufferTag@ResourceHolderUINT@Internal@Core@Math@Palmtree@@UAEPAXI@Z$0
__ehfuncinfo$??_G__StringChainBufferTag@ResourceHolderUINT@Internal@Core@Math@Palmtree@@UAEPAXI@Z DD 019930522H
	DD	01H
	DD	FLAT:__unwindtable$??_G__StringChainBufferTag@ResourceHolderUINT@Internal@Core@Math@Palmtree@@UAEPAXI@Z
	DD	2 DUP(00H)
	DD	2 DUP(00H)
	DD	00H
	DD	04H
xdata$x	ENDS
;	COMDAT xdata$x
xdata$x	SEGMENT
__unwindtable$??1__StringChainBufferTag@ResourceHolderUINT@Internal@Core@Math@Palmtree@@UAE@XZ DD 0ffffffffH
	DD	FLAT:__unwindfunclet$??1__StringChainBufferTag@ResourceHolderUINT@Internal@Core@Math@Palmtree@@UAE@XZ$0
__ehfuncinfo$??1__StringChainBufferTag@ResourceHolderUINT@Internal@Core@Math@Palmtree@@UAE@XZ DD 019930522H
	DD	01H
	DD	FLAT:__unwindtable$??1__StringChainBufferTag@ResourceHolderUINT@Internal@Core@Math@Palmtree@@UAE@XZ
	DD	2 DUP(00H)
	DD	2 DUP(00H)
	DD	00H
	DD	04H
xdata$x	ENDS
;	COMDAT xdata$x
xdata$x	SEGMENT
__unwindtable$??0__StringChainBufferTag@ResourceHolderUINT@Internal@Core@Math@Palmtree@@QAE@PAIII@Z DD 0ffffffffH
	DD	FLAT:__unwindfunclet$??0__StringChainBufferTag@ResourceHolderUINT@Internal@Core@Math@Palmtree@@QAE@PAIII@Z$0
__ehfuncinfo$??0__StringChainBufferTag@ResourceHolderUINT@Internal@Core@Math@Palmtree@@QAE@PAIII@Z DD 019930522H
	DD	01H
	DD	FLAT:__unwindtable$??0__StringChainBufferTag@ResourceHolderUINT@Internal@Core@Math@Palmtree@@QAE@PAIII@Z
	DD	2 DUP(00H)
	DD	2 DUP(00H)
	DD	00H
	DD	00H
xdata$x	ENDS
;	COMDAT xdata$x
xdata$x	SEGMENT
__unwindtable$??_G____UNIT_TYPE_Array_ChainBufferTag@ResourceHolderUINT@Internal@Core@Math@Palmtree@@UAEPAXI@Z DD 0ffffffffH
	DD	FLAT:__unwindfunclet$??_G____UNIT_TYPE_Array_ChainBufferTag@ResourceHolderUINT@Internal@Core@Math@Palmtree@@UAEPAXI@Z$0
__ehfuncinfo$??_G____UNIT_TYPE_Array_ChainBufferTag@ResourceHolderUINT@Internal@Core@Math@Palmtree@@UAEPAXI@Z DD 019930522H
	DD	01H
	DD	FLAT:__unwindtable$??_G____UNIT_TYPE_Array_ChainBufferTag@ResourceHolderUINT@Internal@Core@Math@Palmtree@@UAEPAXI@Z
	DD	2 DUP(00H)
	DD	2 DUP(00H)
	DD	00H
	DD	04H
xdata$x	ENDS
;	COMDAT xdata$x
xdata$x	SEGMENT
__unwindtable$??1____UNIT_TYPE_Array_ChainBufferTag@ResourceHolderUINT@Internal@Core@Math@Palmtree@@UAE@XZ DD 0ffffffffH
	DD	FLAT:__unwindfunclet$??1____UNIT_TYPE_Array_ChainBufferTag@ResourceHolderUINT@Internal@Core@Math@Palmtree@@UAE@XZ$0
__ehfuncinfo$??1____UNIT_TYPE_Array_ChainBufferTag@ResourceHolderUINT@Internal@Core@Math@Palmtree@@UAE@XZ DD 019930522H
	DD	01H
	DD	FLAT:__unwindtable$??1____UNIT_TYPE_Array_ChainBufferTag@ResourceHolderUINT@Internal@Core@Math@Palmtree@@UAE@XZ
	DD	2 DUP(00H)
	DD	2 DUP(00H)
	DD	00H
	DD	04H
xdata$x	ENDS
;	COMDAT xdata$x
xdata$x	SEGMENT
__unwindtable$??0____UNIT_TYPE_Array_ChainBufferTag@ResourceHolderUINT@Internal@Core@Math@Palmtree@@QAE@PAIII@Z DD 0ffffffffH
	DD	FLAT:__unwindfunclet$??0____UNIT_TYPE_Array_ChainBufferTag@ResourceHolderUINT@Internal@Core@Math@Palmtree@@QAE@PAIII@Z$0
__ehfuncinfo$??0____UNIT_TYPE_Array_ChainBufferTag@ResourceHolderUINT@Internal@Core@Math@Palmtree@@QAE@PAIII@Z DD 019930522H
	DD	01H
	DD	FLAT:__unwindtable$??0____UNIT_TYPE_Array_ChainBufferTag@ResourceHolderUINT@Internal@Core@Math@Palmtree@@QAE@PAIII@Z
	DD	2 DUP(00H)
	DD	2 DUP(00H)
	DD	00H
	DD	00H
xdata$x	ENDS
;	COMDAT xdata$x
xdata$x	SEGMENT
__unwindtable$??_G__GenericChainBufferTag@ResourceHolderUINT@Internal@Core@Math@Palmtree@@UAEPAXI@Z DD 0ffffffffH
	DD	FLAT:__unwindfunclet$??_G__GenericChainBufferTag@ResourceHolderUINT@Internal@Core@Math@Palmtree@@UAEPAXI@Z$0
__ehfuncinfo$??_G__GenericChainBufferTag@ResourceHolderUINT@Internal@Core@Math@Palmtree@@UAEPAXI@Z DD 019930522H
	DD	01H
	DD	FLAT:__unwindtable$??_G__GenericChainBufferTag@ResourceHolderUINT@Internal@Core@Math@Palmtree@@UAEPAXI@Z
	DD	2 DUP(00H)
	DD	2 DUP(00H)
	DD	00H
	DD	04H
xdata$x	ENDS
;	COMDAT xdata$x
xdata$x	SEGMENT
__unwindtable$??1__GenericChainBufferTag@ResourceHolderUINT@Internal@Core@Math@Palmtree@@UAE@XZ DD 0ffffffffH
	DD	FLAT:__unwindfunclet$??1__GenericChainBufferTag@ResourceHolderUINT@Internal@Core@Math@Palmtree@@UAE@XZ$0
__ehfuncinfo$??1__GenericChainBufferTag@ResourceHolderUINT@Internal@Core@Math@Palmtree@@UAE@XZ DD 019930522H
	DD	01H
	DD	FLAT:__unwindtable$??1__GenericChainBufferTag@ResourceHolderUINT@Internal@Core@Math@Palmtree@@UAE@XZ
	DD	2 DUP(00H)
	DD	2 DUP(00H)
	DD	00H
	DD	04H
xdata$x	ENDS
;	COMDAT xdata$x
xdata$x	SEGMENT
__unwindtable$??0__GenericChainBufferTag@ResourceHolderUINT@Internal@Core@Math@Palmtree@@QAE@PAX@Z DD 0ffffffffH
	DD	FLAT:__unwindfunclet$??0__GenericChainBufferTag@ResourceHolderUINT@Internal@Core@Math@Palmtree@@QAE@PAX@Z$0
__ehfuncinfo$??0__GenericChainBufferTag@ResourceHolderUINT@Internal@Core@Math@Palmtree@@QAE@PAX@Z DD 019930522H
	DD	01H
	DD	FLAT:__unwindtable$??0__GenericChainBufferTag@ResourceHolderUINT@Internal@Core@Math@Palmtree@@QAE@PAX@Z
	DD	2 DUP(00H)
	DD	2 DUP(00H)
	DD	00H
	DD	00H
xdata$x	ENDS
;	COMDAT xdata$x
xdata$x	SEGMENT
__unwindtable$??1ResourceHolder@Internal@Core@Math@Palmtree@@UAE@XZ DD 0ffffffffH
	DD	FLAT:__unwindfunclet$??1ResourceHolder@Internal@Core@Math@Palmtree@@UAE@XZ$0
	DD	00H
	DD	FLAT:__unwindfunclet$??1ResourceHolder@Internal@Core@Math@Palmtree@@UAE@XZ$1
	DD	0ffffffffH
	DD	FLAT:__unwindfunclet$??1ResourceHolder@Internal@Core@Math@Palmtree@@UAE@XZ$2
__ehfuncinfo$??1ResourceHolder@Internal@Core@Math@Palmtree@@UAE@XZ DD 019930522H
	DD	03H
	DD	FLAT:__unwindtable$??1ResourceHolder@Internal@Core@Math@Palmtree@@UAE@XZ
	DD	2 DUP(00H)
	DD	2 DUP(00H)
	DD	00H
	DD	04H
xdata$x	ENDS
;	COMDAT xdata$x
xdata$x	SEGMENT
__unwindtable$??0ResourceHolder@Internal@Core@Math@Palmtree@@IAE@XZ DD 0ffffffffH
	DD	FLAT:__unwindfunclet$??0ResourceHolder@Internal@Core@Math@Palmtree@@IAE@XZ$1
	DD	0ffffffffH
	DD	FLAT:__unwindfunclet$??0ResourceHolder@Internal@Core@Math@Palmtree@@IAE@XZ$0
__ehfuncinfo$??0ResourceHolder@Internal@Core@Math@Palmtree@@IAE@XZ DD 019930522H
	DD	02H
	DD	FLAT:__unwindtable$??0ResourceHolder@Internal@Core@Math@Palmtree@@IAE@XZ
	DD	2 DUP(00H)
	DD	2 DUP(00H)
	DD	00H
	DD	00H
xdata$x	ENDS
;	COMDAT xdata$x
xdata$x	SEGMENT
__unwindtable$??_G__RootTag@ResourceHolder@Internal@Core@Math@Palmtree@@UAEPAXI@Z DD 0ffffffffH
	DD	FLAT:__unwindfunclet$??_G__RootTag@ResourceHolder@Internal@Core@Math@Palmtree@@UAEPAXI@Z$0
__ehfuncinfo$??_G__RootTag@ResourceHolder@Internal@Core@Math@Palmtree@@UAEPAXI@Z DD 019930522H
	DD	01H
	DD	FLAT:__unwindtable$??_G__RootTag@ResourceHolder@Internal@Core@Math@Palmtree@@UAEPAXI@Z
	DD	2 DUP(00H)
	DD	2 DUP(00H)
	DD	00H
	DD	04H
xdata$x	ENDS
;	COMDAT xdata$x
xdata$x	SEGMENT
__unwindtable$??1__RootTag@ResourceHolder@Internal@Core@Math@Palmtree@@UAE@XZ DD 0ffffffffH
	DD	FLAT:__unwindfunclet$??1__RootTag@ResourceHolder@Internal@Core@Math@Palmtree@@UAE@XZ$0
__ehfuncinfo$??1__RootTag@ResourceHolder@Internal@Core@Math@Palmtree@@UAE@XZ DD 019930522H
	DD	01H
	DD	FLAT:__unwindtable$??1__RootTag@ResourceHolder@Internal@Core@Math@Palmtree@@UAE@XZ
	DD	2 DUP(00H)
	DD	2 DUP(00H)
	DD	00H
	DD	04H
xdata$x	ENDS
;	COMDAT xdata$x
xdata$x	SEGMENT
__unwindtable$??0__RootTag@ResourceHolder@Internal@Core@Math@Palmtree@@QAE@XZ DD 0ffffffffH
	DD	FLAT:__unwindfunclet$??0__RootTag@ResourceHolder@Internal@Core@Math@Palmtree@@QAE@XZ$0
__ehfuncinfo$??0__RootTag@ResourceHolder@Internal@Core@Math@Palmtree@@QAE@XZ DD 019930522H
	DD	01H
	DD	FLAT:__unwindtable$??0__RootTag@ResourceHolder@Internal@Core@Math@Palmtree@@QAE@XZ
	DD	2 DUP(00H)
	DD	2 DUP(00H)
	DD	00H
	DD	00H
xdata$x	ENDS
;	COMDAT xdata$x
xdata$x	SEGMENT
__ehfuncinfo$??1Lock@Internal@Core@Math@Palmtree@@QAE@XZ DD 019930522H
	DD	00H
	DD	00H
	DD	2 DUP(00H)
	DD	2 DUP(00H)
	DD	00H
	DD	04H
xdata$x	ENDS
;	COMDAT xdata$x
xdata$x	SEGMENT
__ehfuncinfo$?PMC_Clone_X@Internal@Core@Math@Palmtree@@YGPAU__tag_PMC_HANDLE_UINT@1234@PAU51234@@Z DD 019930522H
	DD	09H
	DD	FLAT:__unwindtable$?PMC_Clone_X@Internal@Core@Math@Palmtree@@YGPAU__tag_PMC_HANDLE_UINT@1234@PAU51234@@Z
	DD	2 DUP(00H)
	DD	2 DUP(00H)
	DD	00H
	DD	00H
__unwindtable$?PMC_Clone_X@Internal@Core@Math@Palmtree@@YGPAU__tag_PMC_HANDLE_UINT@1234@PAU51234@@Z DD 0ffffffffH
	DD	FLAT:__unwindfunclet$?PMC_Clone_X@Internal@Core@Math@Palmtree@@YGPAU__tag_PMC_HANDLE_UINT@1234@PAU51234@@Z$3
	DD	0ffffffffH
	DD	FLAT:__unwindfunclet$?PMC_Clone_X@Internal@Core@Math@Palmtree@@YGPAU__tag_PMC_HANDLE_UINT@1234@PAU51234@@Z$2
	DD	0ffffffffH
	DD	FLAT:__unwindfunclet$?PMC_Clone_X@Internal@Core@Math@Palmtree@@YGPAU__tag_PMC_HANDLE_UINT@1234@PAU51234@@Z$1
	DD	0ffffffffH
	DD	FLAT:__unwindfunclet$?PMC_Clone_X@Internal@Core@Math@Palmtree@@YGPAU__tag_PMC_HANDLE_UINT@1234@PAU51234@@Z$0
	DD	03H
	DD	FLAT:__unwindfunclet$?PMC_Clone_X@Internal@Core@Math@Palmtree@@YGPAU__tag_PMC_HANDLE_UINT@1234@PAU51234@@Z$4
	DD	04H
	DD	FLAT:__unwindfunclet$?PMC_Clone_X@Internal@Core@Math@Palmtree@@YGPAU__tag_PMC_HANDLE_UINT@1234@PAU51234@@Z$5
	DD	05H
	DD	FLAT:__unwindfunclet$?PMC_Clone_X@Internal@Core@Math@Palmtree@@YGPAU__tag_PMC_HANDLE_UINT@1234@PAU51234@@Z$6
	DD	03H
	DD	FLAT:__unwindfunclet$?PMC_Clone_X@Internal@Core@Math@Palmtree@@YGPAU__tag_PMC_HANDLE_UINT@1234@PAU51234@@Z$7
	DD	0ffffffffH
	DD	FLAT:__unwindfunclet$?PMC_Clone_X@Internal@Core@Math@Palmtree@@YGPAU__tag_PMC_HANDLE_UINT@1234@PAU51234@@Z$8
xdata$x	ENDS
;	COMDAT xdata$x
xdata$x	SEGMENT
__catchsym$?Initialize_Memory@Internal@Core@Math@Palmtree@@YAHPAU_tag_PROCESSOR_FEATURES@1234@@Z$8 DD 09H
	DD	FLAT:??_R0?AVException@Internal@Core@Math@Palmtree@@@8
	DD	0ffffffe8H
	DD	FLAT:__catch$?Initialize_Memory@Internal@Core@Math@Palmtree@@YAHPAU_tag_PROCESSOR_FEATURES@1234@@Z$0
__tryblocktable$?Initialize_Memory@Internal@Core@Math@Palmtree@@YAHPAU_tag_PROCESSOR_FEATURES@1234@@Z DD 04H
	DD	04H
	DD	05H
	DD	01H
	DD	FLAT:__catchsym$?Initialize_Memory@Internal@Core@Math@Palmtree@@YAHPAU_tag_PROCESSOR_FEATURES@1234@@Z$8
__ehfuncinfo$?Initialize_Memory@Internal@Core@Math@Palmtree@@YAHPAU_tag_PROCESSOR_FEATURES@1234@@Z DD 019930522H
	DD	08H
	DD	FLAT:__unwindtable$?Initialize_Memory@Internal@Core@Math@Palmtree@@YAHPAU_tag_PROCESSOR_FEATURES@1234@@Z
	DD	01H
	DD	FLAT:__tryblocktable$?Initialize_Memory@Internal@Core@Math@Palmtree@@YAHPAU_tag_PROCESSOR_FEATURES@1234@@Z
	DD	2 DUP(00H)
	DD	00H
	DD	00H
__unwindtable$?Initialize_Memory@Internal@Core@Math@Palmtree@@YAHPAU_tag_PROCESSOR_FEATURES@1234@@Z DD 0ffffffffH
	DD	FLAT:__unwindfunclet$?Initialize_Memory@Internal@Core@Math@Palmtree@@YAHPAU_tag_PROCESSOR_FEATURES@1234@@Z$5
	DD	0ffffffffH
	DD	FLAT:__unwindfunclet$?Initialize_Memory@Internal@Core@Math@Palmtree@@YAHPAU_tag_PROCESSOR_FEATURES@1234@@Z$4
	DD	0ffffffffH
	DD	FLAT:__unwindfunclet$?Initialize_Memory@Internal@Core@Math@Palmtree@@YAHPAU_tag_PROCESSOR_FEATURES@1234@@Z$3
	DD	0ffffffffH
	DD	FLAT:__unwindfunclet$?Initialize_Memory@Internal@Core@Math@Palmtree@@YAHPAU_tag_PROCESSOR_FEATURES@1234@@Z$2
	DD	03H
	DD	00H
	DD	03H
	DD	00H
	DD	0ffffffffH
	DD	FLAT:__unwindfunclet$?Initialize_Memory@Internal@Core@Math@Palmtree@@YAHPAU_tag_PROCESSOR_FEATURES@1234@@Z$6
	DD	0ffffffffH
	DD	00H
xdata$x	ENDS
;	COMDAT xdata$x
xdata$x	SEGMENT
__ehfuncinfo$?DeallocateHeapArea@Internal@Core@Math@Palmtree@@YAXXZ DD 019930522H
	DD	00H
	DD	00H
	DD	2 DUP(00H)
	DD	2 DUP(00H)
	DD	00H
	DD	04H
xdata$x	ENDS
;	COMDAT xdata$x
xdata$x	SEGMENT
__ehfuncinfo$?AllocateHeapArea@Internal@Core@Math@Palmtree@@YAHXZ DD 019930522H
	DD	00H
	DD	00H
	DD	2 DUP(00H)
	DD	2 DUP(00H)
	DD	00H
	DD	04H
xdata$x	ENDS
;	COMDAT xdata$x
xdata$x	SEGMENT
__unwindtable$??_GBadBufferException@Internal@Core@Math@Palmtree@@UAEPAXI@Z DD 0ffffffffH
	DD	FLAT:__unwindfunclet$??_GBadBufferException@Internal@Core@Math@Palmtree@@UAEPAXI@Z$0
	DD	0ffffffffH
	DD	FLAT:__unwindfunclet$??_GBadBufferException@Internal@Core@Math@Palmtree@@UAEPAXI@Z$1
__ehfuncinfo$??_GBadBufferException@Internal@Core@Math@Palmtree@@UAEPAXI@Z DD 019930522H
	DD	02H
	DD	FLAT:__unwindtable$??_GBadBufferException@Internal@Core@Math@Palmtree@@UAEPAXI@Z
	DD	2 DUP(00H)
	DD	2 DUP(00H)
	DD	00H
	DD	04H
xdata$x	ENDS
;	COMDAT xdata$x
xdata$x	SEGMENT
__unwindtable$??1BadBufferException@Internal@Core@Math@Palmtree@@UAE@XZ DD 0ffffffffH
	DD	FLAT:__unwindfunclet$??1BadBufferException@Internal@Core@Math@Palmtree@@UAE@XZ$0
	DD	0ffffffffH
	DD	FLAT:__unwindfunclet$??1BadBufferException@Internal@Core@Math@Palmtree@@UAE@XZ$1
__ehfuncinfo$??1BadBufferException@Internal@Core@Math@Palmtree@@UAE@XZ DD 019930522H
	DD	02H
	DD	FLAT:__unwindtable$??1BadBufferException@Internal@Core@Math@Palmtree@@UAE@XZ
	DD	2 DUP(00H)
	DD	2 DUP(00H)
	DD	00H
	DD	04H
xdata$x	ENDS
;	COMDAT xdata$x
xdata$x	SEGMENT
__unwindtable$??0BadBufferException@Internal@Core@Math@Palmtree@@QAE@ABV01234@@Z DD 0ffffffffH
	DD	FLAT:__unwindfunclet$??0BadBufferException@Internal@Core@Math@Palmtree@@QAE@ABV01234@@Z$1
	DD	0ffffffffH
	DD	FLAT:__unwindfunclet$??0BadBufferException@Internal@Core@Math@Palmtree@@QAE@ABV01234@@Z$0
__ehfuncinfo$??0BadBufferException@Internal@Core@Math@Palmtree@@QAE@ABV01234@@Z DD 019930522H
	DD	02H
	DD	FLAT:__unwindtable$??0BadBufferException@Internal@Core@Math@Palmtree@@QAE@ABV01234@@Z
	DD	2 DUP(00H)
	DD	2 DUP(00H)
	DD	00H
	DD	04H
xdata$x	ENDS
;	COMDAT xdata$x
xdata$x	SEGMENT
__unwindtable$??0BadBufferException@Internal@Core@Math@Palmtree@@QAE@PB_W0@Z DD 0ffffffffH
	DD	FLAT:__unwindfunclet$??0BadBufferException@Internal@Core@Math@Palmtree@@QAE@PB_W0@Z$1
	DD	0ffffffffH
	DD	FLAT:__unwindfunclet$??0BadBufferException@Internal@Core@Math@Palmtree@@QAE@PB_W0@Z$0
__ehfuncinfo$??0BadBufferException@Internal@Core@Math@Palmtree@@QAE@PB_W0@Z DD 019930522H
	DD	02H
	DD	FLAT:__unwindtable$??0BadBufferException@Internal@Core@Math@Palmtree@@QAE@PB_W0@Z
	DD	2 DUP(00H)
	DD	2 DUP(00H)
	DD	00H
	DD	04H
xdata$x	ENDS
;	COMDAT xdata$x
xdata$x	SEGMENT
__unwindtable$??_GInternalErrorException@Internal@Core@Math@Palmtree@@UAEPAXI@Z DD 0ffffffffH
	DD	FLAT:__unwindfunclet$??_GInternalErrorException@Internal@Core@Math@Palmtree@@UAEPAXI@Z$0
	DD	0ffffffffH
	DD	FLAT:__unwindfunclet$??_GInternalErrorException@Internal@Core@Math@Palmtree@@UAEPAXI@Z$1
__ehfuncinfo$??_GInternalErrorException@Internal@Core@Math@Palmtree@@UAEPAXI@Z DD 019930522H
	DD	02H
	DD	FLAT:__unwindtable$??_GInternalErrorException@Internal@Core@Math@Palmtree@@UAEPAXI@Z
	DD	2 DUP(00H)
	DD	2 DUP(00H)
	DD	00H
	DD	04H
xdata$x	ENDS
;	COMDAT xdata$x
xdata$x	SEGMENT
__unwindtable$??1InternalErrorException@Internal@Core@Math@Palmtree@@UAE@XZ DD 0ffffffffH
	DD	FLAT:__unwindfunclet$??1InternalErrorException@Internal@Core@Math@Palmtree@@UAE@XZ$0
	DD	0ffffffffH
	DD	FLAT:__unwindfunclet$??1InternalErrorException@Internal@Core@Math@Palmtree@@UAE@XZ$1
__ehfuncinfo$??1InternalErrorException@Internal@Core@Math@Palmtree@@UAE@XZ DD 019930522H
	DD	02H
	DD	FLAT:__unwindtable$??1InternalErrorException@Internal@Core@Math@Palmtree@@UAE@XZ
	DD	2 DUP(00H)
	DD	2 DUP(00H)
	DD	00H
	DD	04H
xdata$x	ENDS
;	COMDAT xdata$x
xdata$x	SEGMENT
__unwindtable$??0InternalErrorException@Internal@Core@Math@Palmtree@@QAE@ABV01234@@Z DD 0ffffffffH
	DD	FLAT:__unwindfunclet$??0InternalErrorException@Internal@Core@Math@Palmtree@@QAE@ABV01234@@Z$1
	DD	0ffffffffH
	DD	FLAT:__unwindfunclet$??0InternalErrorException@Internal@Core@Math@Palmtree@@QAE@ABV01234@@Z$0
__ehfuncinfo$??0InternalErrorException@Internal@Core@Math@Palmtree@@QAE@ABV01234@@Z DD 019930522H
	DD	02H
	DD	FLAT:__unwindtable$??0InternalErrorException@Internal@Core@Math@Palmtree@@QAE@ABV01234@@Z
	DD	2 DUP(00H)
	DD	2 DUP(00H)
	DD	00H
	DD	04H
xdata$x	ENDS
;	COMDAT xdata$x
xdata$x	SEGMENT
__unwindtable$??0InternalErrorException@Internal@Core@Math@Palmtree@@QAE@PB_W0@Z DD 0ffffffffH
	DD	FLAT:__unwindfunclet$??0InternalErrorException@Internal@Core@Math@Palmtree@@QAE@PB_W0@Z$1
	DD	0ffffffffH
	DD	FLAT:__unwindfunclet$??0InternalErrorException@Internal@Core@Math@Palmtree@@QAE@PB_W0@Z$0
__ehfuncinfo$??0InternalErrorException@Internal@Core@Math@Palmtree@@QAE@PB_W0@Z DD 019930522H
	DD	02H
	DD	FLAT:__unwindtable$??0InternalErrorException@Internal@Core@Math@Palmtree@@QAE@PB_W0@Z
	DD	2 DUP(00H)
	DD	2 DUP(00H)
	DD	00H
	DD	04H
xdata$x	ENDS
;	COMDAT xdata$x
xdata$x	SEGMENT
__unwindtable$??_GNotEnoughMemoryException@Internal@Core@Math@Palmtree@@UAEPAXI@Z DD 0ffffffffH
	DD	FLAT:__unwindfunclet$??_GNotEnoughMemoryException@Internal@Core@Math@Palmtree@@UAEPAXI@Z$0
	DD	0ffffffffH
	DD	FLAT:__unwindfunclet$??_GNotEnoughMemoryException@Internal@Core@Math@Palmtree@@UAEPAXI@Z$1
__ehfuncinfo$??_GNotEnoughMemoryException@Internal@Core@Math@Palmtree@@UAEPAXI@Z DD 019930522H
	DD	02H
	DD	FLAT:__unwindtable$??_GNotEnoughMemoryException@Internal@Core@Math@Palmtree@@UAEPAXI@Z
	DD	2 DUP(00H)
	DD	2 DUP(00H)
	DD	00H
	DD	04H
xdata$x	ENDS
;	COMDAT xdata$x
xdata$x	SEGMENT
__unwindtable$??1NotEnoughMemoryException@Internal@Core@Math@Palmtree@@UAE@XZ DD 0ffffffffH
	DD	FLAT:__unwindfunclet$??1NotEnoughMemoryException@Internal@Core@Math@Palmtree@@UAE@XZ$0
	DD	0ffffffffH
	DD	FLAT:__unwindfunclet$??1NotEnoughMemoryException@Internal@Core@Math@Palmtree@@UAE@XZ$1
__ehfuncinfo$??1NotEnoughMemoryException@Internal@Core@Math@Palmtree@@UAE@XZ DD 019930522H
	DD	02H
	DD	FLAT:__unwindtable$??1NotEnoughMemoryException@Internal@Core@Math@Palmtree@@UAE@XZ
	DD	2 DUP(00H)
	DD	2 DUP(00H)
	DD	00H
	DD	04H
xdata$x	ENDS
;	COMDAT xdata$x
xdata$x	SEGMENT
__unwindtable$??0NotEnoughMemoryException@Internal@Core@Math@Palmtree@@QAE@ABV01234@@Z DD 0ffffffffH
	DD	FLAT:__unwindfunclet$??0NotEnoughMemoryException@Internal@Core@Math@Palmtree@@QAE@ABV01234@@Z$1
	DD	0ffffffffH
	DD	FLAT:__unwindfunclet$??0NotEnoughMemoryException@Internal@Core@Math@Palmtree@@QAE@ABV01234@@Z$0
__ehfuncinfo$??0NotEnoughMemoryException@Internal@Core@Math@Palmtree@@QAE@ABV01234@@Z DD 019930522H
	DD	02H
	DD	FLAT:__unwindtable$??0NotEnoughMemoryException@Internal@Core@Math@Palmtree@@QAE@ABV01234@@Z
	DD	2 DUP(00H)
	DD	2 DUP(00H)
	DD	00H
	DD	04H
xdata$x	ENDS
;	COMDAT xdata$x
xdata$x	SEGMENT
__unwindtable$??0NotEnoughMemoryException@Internal@Core@Math@Palmtree@@QAE@PB_W@Z DD 0ffffffffH
	DD	FLAT:__unwindfunclet$??0NotEnoughMemoryException@Internal@Core@Math@Palmtree@@QAE@PB_W@Z$1
	DD	0ffffffffH
	DD	FLAT:__unwindfunclet$??0NotEnoughMemoryException@Internal@Core@Math@Palmtree@@QAE@PB_W@Z$0
__ehfuncinfo$??0NotEnoughMemoryException@Internal@Core@Math@Palmtree@@QAE@PB_W@Z DD 019930522H
	DD	02H
	DD	FLAT:__unwindtable$??0NotEnoughMemoryException@Internal@Core@Math@Palmtree@@QAE@PB_W@Z
	DD	2 DUP(00H)
	DD	2 DUP(00H)
	DD	00H
	DD	04H
xdata$x	ENDS
;	COMDAT xdata$x
xdata$x	SEGMENT
__unwindtable$??_GArgumentNullException@Internal@Core@Math@Palmtree@@UAEPAXI@Z DD 0ffffffffH
	DD	FLAT:__unwindfunclet$??_GArgumentNullException@Internal@Core@Math@Palmtree@@UAEPAXI@Z$0
	DD	0ffffffffH
	DD	FLAT:__unwindfunclet$??_GArgumentNullException@Internal@Core@Math@Palmtree@@UAEPAXI@Z$1
__ehfuncinfo$??_GArgumentNullException@Internal@Core@Math@Palmtree@@UAEPAXI@Z DD 019930522H
	DD	02H
	DD	FLAT:__unwindtable$??_GArgumentNullException@Internal@Core@Math@Palmtree@@UAEPAXI@Z
	DD	2 DUP(00H)
	DD	2 DUP(00H)
	DD	00H
	DD	04H
xdata$x	ENDS
;	COMDAT xdata$x
xdata$x	SEGMENT
__unwindtable$??1ArgumentNullException@Internal@Core@Math@Palmtree@@UAE@XZ DD 0ffffffffH
	DD	FLAT:__unwindfunclet$??1ArgumentNullException@Internal@Core@Math@Palmtree@@UAE@XZ$0
	DD	0ffffffffH
	DD	FLAT:__unwindfunclet$??1ArgumentNullException@Internal@Core@Math@Palmtree@@UAE@XZ$1
__ehfuncinfo$??1ArgumentNullException@Internal@Core@Math@Palmtree@@UAE@XZ DD 019930522H
	DD	02H
	DD	FLAT:__unwindtable$??1ArgumentNullException@Internal@Core@Math@Palmtree@@UAE@XZ
	DD	2 DUP(00H)
	DD	2 DUP(00H)
	DD	00H
	DD	04H
xdata$x	ENDS
;	COMDAT xdata$x
xdata$x	SEGMENT
__unwindtable$??0ArgumentNullException@Internal@Core@Math@Palmtree@@QAE@ABV01234@@Z DD 0ffffffffH
	DD	FLAT:__unwindfunclet$??0ArgumentNullException@Internal@Core@Math@Palmtree@@QAE@ABV01234@@Z$1
	DD	0ffffffffH
	DD	FLAT:__unwindfunclet$??0ArgumentNullException@Internal@Core@Math@Palmtree@@QAE@ABV01234@@Z$0
__ehfuncinfo$??0ArgumentNullException@Internal@Core@Math@Palmtree@@QAE@ABV01234@@Z DD 019930522H
	DD	02H
	DD	FLAT:__unwindtable$??0ArgumentNullException@Internal@Core@Math@Palmtree@@QAE@ABV01234@@Z
	DD	2 DUP(00H)
	DD	2 DUP(00H)
	DD	00H
	DD	04H
xdata$x	ENDS
;	COMDAT xdata$x
xdata$x	SEGMENT
__unwindtable$??0ArgumentNullException@Internal@Core@Math@Palmtree@@QAE@PB_W0@Z DD 0ffffffffH
	DD	FLAT:__unwindfunclet$??0ArgumentNullException@Internal@Core@Math@Palmtree@@QAE@PB_W0@Z$1
	DD	0ffffffffH
	DD	FLAT:__unwindfunclet$??0ArgumentNullException@Internal@Core@Math@Palmtree@@QAE@PB_W0@Z$0
__ehfuncinfo$??0ArgumentNullException@Internal@Core@Math@Palmtree@@QAE@PB_W0@Z DD 019930522H
	DD	02H
	DD	FLAT:__unwindtable$??0ArgumentNullException@Internal@Core@Math@Palmtree@@QAE@PB_W0@Z
	DD	2 DUP(00H)
	DD	2 DUP(00H)
	DD	00H
	DD	04H
xdata$x	ENDS
;	COMDAT xdata$x
xdata$x	SEGMENT
__unwindtable$??_GArgumentException@Internal@Core@Math@Palmtree@@UAEPAXI@Z DD 0ffffffffH
	DD	FLAT:__unwindfunclet$??_GArgumentException@Internal@Core@Math@Palmtree@@UAEPAXI@Z$0
	DD	0ffffffffH
	DD	FLAT:__unwindfunclet$??_GArgumentException@Internal@Core@Math@Palmtree@@UAEPAXI@Z$1
__ehfuncinfo$??_GArgumentException@Internal@Core@Math@Palmtree@@UAEPAXI@Z DD 019930522H
	DD	02H
	DD	FLAT:__unwindtable$??_GArgumentException@Internal@Core@Math@Palmtree@@UAEPAXI@Z
	DD	2 DUP(00H)
	DD	2 DUP(00H)
	DD	00H
	DD	04H
xdata$x	ENDS
;	COMDAT xdata$x
xdata$x	SEGMENT
__unwindtable$??1ArgumentException@Internal@Core@Math@Palmtree@@UAE@XZ DD 0ffffffffH
	DD	FLAT:__unwindfunclet$??1ArgumentException@Internal@Core@Math@Palmtree@@UAE@XZ$0
	DD	0ffffffffH
	DD	FLAT:__unwindfunclet$??1ArgumentException@Internal@Core@Math@Palmtree@@UAE@XZ$1
__ehfuncinfo$??1ArgumentException@Internal@Core@Math@Palmtree@@UAE@XZ DD 019930522H
	DD	02H
	DD	FLAT:__unwindtable$??1ArgumentException@Internal@Core@Math@Palmtree@@UAE@XZ
	DD	2 DUP(00H)
	DD	2 DUP(00H)
	DD	00H
	DD	04H
xdata$x	ENDS
;	COMDAT xdata$x
xdata$x	SEGMENT
__unwindtable$??0ArgumentException@Internal@Core@Math@Palmtree@@QAE@ABV01234@@Z DD 0ffffffffH
	DD	FLAT:__unwindfunclet$??0ArgumentException@Internal@Core@Math@Palmtree@@QAE@ABV01234@@Z$1
	DD	0ffffffffH
	DD	FLAT:__unwindfunclet$??0ArgumentException@Internal@Core@Math@Palmtree@@QAE@ABV01234@@Z$0
__ehfuncinfo$??0ArgumentException@Internal@Core@Math@Palmtree@@QAE@ABV01234@@Z DD 019930522H
	DD	02H
	DD	FLAT:__unwindtable$??0ArgumentException@Internal@Core@Math@Palmtree@@QAE@ABV01234@@Z
	DD	2 DUP(00H)
	DD	2 DUP(00H)
	DD	00H
	DD	04H
xdata$x	ENDS
;	COMDAT xdata$x
xdata$x	SEGMENT
__unwindtable$??0ArgumentException@Internal@Core@Math@Palmtree@@QAE@PB_W@Z DD 0ffffffffH
	DD	FLAT:__unwindfunclet$??0ArgumentException@Internal@Core@Math@Palmtree@@QAE@PB_W@Z$1
	DD	0ffffffffH
	DD	FLAT:__unwindfunclet$??0ArgumentException@Internal@Core@Math@Palmtree@@QAE@PB_W@Z$0
__ehfuncinfo$??0ArgumentException@Internal@Core@Math@Palmtree@@QAE@PB_W@Z DD 019930522H
	DD	02H
	DD	FLAT:__unwindtable$??0ArgumentException@Internal@Core@Math@Palmtree@@QAE@PB_W@Z
	DD	2 DUP(00H)
	DD	2 DUP(00H)
	DD	00H
	DD	04H
xdata$x	ENDS
;	COMDAT xdata$x
xdata$x	SEGMENT
__unwindtable$??_GException@Internal@Core@Math@Palmtree@@UAEPAXI@Z DD 0ffffffffH
	DD	FLAT:__unwindfunclet$??_GException@Internal@Core@Math@Palmtree@@UAEPAXI@Z$0
__ehfuncinfo$??_GException@Internal@Core@Math@Palmtree@@UAEPAXI@Z DD 019930522H
	DD	01H
	DD	FLAT:__unwindtable$??_GException@Internal@Core@Math@Palmtree@@UAEPAXI@Z
	DD	2 DUP(00H)
	DD	2 DUP(00H)
	DD	00H
	DD	04H
xdata$x	ENDS
;	COMDAT xdata$x
xdata$x	SEGMENT
__unwindtable$??1Exception@Internal@Core@Math@Palmtree@@UAE@XZ DD 0ffffffffH
	DD	FLAT:__unwindfunclet$??1Exception@Internal@Core@Math@Palmtree@@UAE@XZ$0
__ehfuncinfo$??1Exception@Internal@Core@Math@Palmtree@@UAE@XZ DD 019930522H
	DD	01H
	DD	FLAT:__unwindtable$??1Exception@Internal@Core@Math@Palmtree@@UAE@XZ
	DD	2 DUP(00H)
	DD	2 DUP(00H)
	DD	00H
	DD	04H
xdata$x	ENDS
;	COMDAT xdata$x
xdata$x	SEGMENT
__unwindtable$??0Exception@Internal@Core@Math@Palmtree@@QAE@ABV01234@@Z DD 0ffffffffH
	DD	FLAT:__unwindfunclet$??0Exception@Internal@Core@Math@Palmtree@@QAE@ABV01234@@Z$0
__ehfuncinfo$??0Exception@Internal@Core@Math@Palmtree@@QAE@ABV01234@@Z DD 019930522H
	DD	01H
	DD	FLAT:__unwindtable$??0Exception@Internal@Core@Math@Palmtree@@QAE@ABV01234@@Z
	DD	2 DUP(00H)
	DD	2 DUP(00H)
	DD	00H
	DD	04H
xdata$x	ENDS
;	COMDAT xdata$x
xdata$x	SEGMENT
__unwindtable$??0Exception@Internal@Core@Math@Palmtree@@IAE@HPB_W0@Z DD 0ffffffffH
	DD	FLAT:__unwindfunclet$??0Exception@Internal@Core@Math@Palmtree@@IAE@HPB_W0@Z$0
__ehfuncinfo$??0Exception@Internal@Core@Math@Palmtree@@IAE@HPB_W0@Z DD 019930522H
	DD	01H
	DD	FLAT:__unwindtable$??0Exception@Internal@Core@Math@Palmtree@@IAE@HPB_W0@Z
	DD	2 DUP(00H)
	DD	2 DUP(00H)
	DD	00H
	DD	04H
xdata$x	ENDS
;	COMDAT xdata$x
xdata$x	SEGMENT
__unwindtable$??0Exception@Internal@Core@Math@Palmtree@@IAE@HPB_W@Z DD 0ffffffffH
	DD	FLAT:__unwindfunclet$??0Exception@Internal@Core@Math@Palmtree@@IAE@HPB_W@Z$0
__ehfuncinfo$??0Exception@Internal@Core@Math@Palmtree@@IAE@HPB_W@Z DD 019930522H
	DD	01H
	DD	FLAT:__unwindtable$??0Exception@Internal@Core@Math@Palmtree@@IAE@HPB_W@Z
	DD	2 DUP(00H)
	DD	2 DUP(00H)
	DD	00H
	DD	04H
xdata$x	ENDS
;	COMDAT xdata$x
xdata$x	SEGMENT
__ehfuncinfo$??_Gexception@std@@UAEPAXI@Z DD 019930522H
	DD	00H
	DD	00H
	DD	2 DUP(00H)
	DD	2 DUP(00H)
	DD	00H
	DD	04H
xdata$x	ENDS
;	COMDAT xdata$x
xdata$x	SEGMENT
__ehfuncinfo$??1exception@std@@UAE@XZ DD 019930522H
	DD	00H
	DD	00H
	DD	2 DUP(00H)
	DD	2 DUP(00H)
	DD	00H
	DD	04H
xdata$x	ENDS
; Function compile flags: /Ogtp
; File z:\sources\lunor\repos\rougemeilland\palmtree.math.core.uint\palmtree.math.core.uint\pmc_memory.cpp
;	COMDAT ?GetAllocatedMemorySize_Imp@Internal@Core@Math@Palmtree@@YAHPA_K@Z
_TEXT	SEGMENT
_Entry$ = -28						; size = 28
_size$ = 8						; size = 4
?GetAllocatedMemorySize_Imp@Internal@Core@Math@Palmtree@@YAHPA_K@Z PROC ; Palmtree::Math::Core::Internal::GetAllocatedMemorySize_Imp, COMDAT

; 980  :     {

  00000	55		 push	 ebp
  00001	8b ec		 mov	 ebp, esp
  00003	83 ec 1c	 sub	 esp, 28			; 0000001cH
  00006	56		 push	 esi

; 981  :         *size = 0;

  00007	8b 75 08	 mov	 esi, DWORD PTR _size$[ebp]

; 982  :         DWORD LastError;
; 983  :         PROCESS_HEAP_ENTRY Entry;
; 984  :         Entry.lpData = NULL;
; 985  :         while (HeapWalk(hLocalHeap, &Entry))

  0000a	8d 45 e4	 lea	 eax, DWORD PTR _Entry$[ebp]
  0000d	57		 push	 edi
  0000e	8b 3d 00 00 00
	00		 mov	 edi, DWORD PTR __imp__HeapWalk@8
  00014	50		 push	 eax
  00015	c7 06 00 00 00
	00		 mov	 DWORD PTR [esi], 0
  0001b	c7 46 04 00 00
	00 00		 mov	 DWORD PTR [esi+4], 0
  00022	ff 35 00 00 00
	00		 push	 DWORD PTR ?hLocalHeap@Internal@Core@Math@Palmtree@@3PAXA ; Palmtree::Math::Core::Internal::hLocalHeap
  00028	c7 45 e4 00 00
	00 00		 mov	 DWORD PTR _Entry$[ebp], 0
  0002f	ff d7		 call	 edi
  00031	85 c0		 test	 eax, eax
  00033	74 1f		 je	 SHORT $LN3@GetAllocat
$LL2@GetAllocat:

; 986  :         {
; 987  :             BOOL is_allocated = FALSE;
; 988  :             if ((Entry.wFlags & PROCESS_HEAP_ENTRY_BUSY) != 0)

  00035	f6 45 ee 04	 test	 BYTE PTR _Entry$[ebp+10], 4
  00039	74 09		 je	 SHORT $LN12@GetAllocat

; 989  :             {
; 990  :                 //_tprintf(TEXT("Allocated block"));
; 991  :                 is_allocated = TRUE;
; 992  : 
; 993  :                 if ((Entry.wFlags & PROCESS_HEAP_ENTRY_MOVEABLE) != 0)
; 994  :                 {
; 995  :                     //_tprintf(TEXT(", movable with HANDLE %#p"), Entry.Block.hMem);
; 996  :                 }
; 997  : 
; 998  :                 if ((Entry.wFlags & PROCESS_HEAP_ENTRY_DDESHARE) != 0)
; 999  :                 {
; 1000 :                     //_tprintf(TEXT(", DDESHARE"));
; 1001 :                 }
; 1002 :             }
; 1003 :             else if ((Entry.wFlags & PROCESS_HEAP_REGION) != 0)
; 1004 :             {
; 1005 :                 //_tprintf(TEXT("Region\n  %d bytes committed\n") \
; 1006 :                 //    TEXT("  %d bytes uncommitted\n  First block address: %#p\n") \
; 1007 :                 //    TEXT("  Last block address: %#p\n"),
; 1008 :                 //    Entry.Region.dwCommittedSize,
; 1009 :                 //    Entry.Region.dwUnCommittedSize,
; 1010 :                 //    Entry.Region.lpFirstBlock,
; 1011 :                 //    Entry.Region.lpLastBlock);
; 1012 :             }
; 1013 :             else if ((Entry.wFlags & PROCESS_HEAP_UNCOMMITTED_RANGE) != 0)
; 1014 :             {
; 1015 :                 //_tprintf(TEXT("Uncommitted range\n"));
; 1016 :             }
; 1017 :             else
; 1018 :             {
; 1019 :                 //_tprintf(TEXT("Block\n"));
; 1020 :             }
; 1021 : 
; 1022 :             //_tprintf(TEXT("  Data portion begins at: %#p\n  Size: %d bytes\n") \
; 1023 :             //    TEXT("  Overhead: %d bytes\n  Region index: %d\n\n"),
; 1024 :             //    Entry.lpData,
; 1025 :             //    Entry.cbData,
; 1026 :             //    Entry.cbOverhead,
; 1027 :             //    Entry.iRegionIndex);
; 1028 :             if (is_allocated)
; 1029 :                 *size += Entry.cbData;

  0003b	8b 45 e8	 mov	 eax, DWORD PTR _Entry$[ebp+4]
  0003e	01 06		 add	 DWORD PTR [esi], eax
  00040	83 56 04 00	 adc	 DWORD PTR [esi+4], 0
$LN12@GetAllocat:

; 982  :         DWORD LastError;
; 983  :         PROCESS_HEAP_ENTRY Entry;
; 984  :         Entry.lpData = NULL;
; 985  :         while (HeapWalk(hLocalHeap, &Entry))

  00044	8d 45 e4	 lea	 eax, DWORD PTR _Entry$[ebp]
  00047	50		 push	 eax
  00048	ff 35 00 00 00
	00		 push	 DWORD PTR ?hLocalHeap@Internal@Core@Math@Palmtree@@3PAXA ; Palmtree::Math::Core::Internal::hLocalHeap
  0004e	ff d7		 call	 edi
  00050	85 c0		 test	 eax, eax
  00052	75 e1		 jne	 SHORT $LL2@GetAllocat
$LN3@GetAllocat:

; 1030 :         }
; 1031 :         LastError = GetLastError();

  00054	ff 15 00 00 00
	00		 call	 DWORD PTR __imp__GetLastError@0

; 1032 :         if (LastError != ERROR_NO_MORE_ITEMS)

  0005a	33 c9		 xor	 ecx, ecx
  0005c	3d 03 01 00 00	 cmp	 eax, 259		; 00000103H
  00061	5f		 pop	 edi
  00062	0f 94 c1	 sete	 cl
  00065	8b c1		 mov	 eax, ecx
  00067	5e		 pop	 esi

; 1033 :         {
; 1034 :             //_tprintf(TEXT("HeapWalk failed with LastError %d.\n"), LastError);
; 1035 :             return (FALSE);
; 1036 :         }
; 1037 :         return (TRUE);
; 1038 :     }

  00068	8b e5		 mov	 esp, ebp
  0006a	5d		 pop	 ebp
  0006b	c3		 ret	 0
?GetAllocatedMemorySize_Imp@Internal@Core@Math@Palmtree@@YAHPA_K@Z ENDP ; Palmtree::Math::Core::Internal::GetAllocatedMemorySize_Imp
_TEXT	ENDS
; Function compile flags: /Ogtp
; File z:\sources\lunor\repos\rougemeilland\palmtree.math.core.uint\palmtree.math.core.uint\pmc_memory.cpp
; File z:\sources\lunor\repos\rougemeilland\palmtree.math.core.uint\palmtree.math.core.uint\pmc_inline_func.h
; File z:\sources\lunor\repos\rougemeilland\palmtree.math.core.uint\palmtree.math.core.uint\pmc_memory.cpp
;	COMDAT ?GetTrailingZeroBitCount@Internal@Core@Math@Palmtree@@YAIPAII@Z
_TEXT	SEGMENT
_p$ = 8							; size = 4
_word_count$ = 12					; size = 4
?GetTrailingZeroBitCount@Internal@Core@Math@Palmtree@@YAIPAII@Z PROC ; Palmtree::Math::Core::Internal::GetTrailingZeroBitCount, COMDAT

; 460  :     {

  00000	55		 push	 ebp
  00001	8b ec		 mov	 ebp, esp

; 461  :         __UNIT_TYPE bit_count = 0;
; 462  :         while (word_count > 0)

  00003	8b 45 0c	 mov	 eax, DWORD PTR _word_count$[ebp]
  00006	33 d2		 xor	 edx, edx
  00008	56		 push	 esi
  00009	85 c0		 test	 eax, eax
  0000b	74 14		 je	 SHORT $LN3@GetTrailin
  0000d	8b 4d 08	 mov	 ecx, DWORD PTR _p$[ebp]
$LL2@GetTrailin:

; 463  :         {
; 464  :             --word_count;
; 465  :             if (*p != 0)

  00010	8b 31		 mov	 esi, DWORD PTR [ecx]
  00012	48		 dec	 eax
  00013	85 f6		 test	 esi, esi
  00015	75 0f		 jne	 SHORT $LN10@GetTrailin

; 467  :             bit_count += __UNIT_TYPE_BIT_COUNT;

  00017	83 c2 20	 add	 edx, 32			; 00000020H

; 468  :             ++p;

  0001a	83 c1 04	 add	 ecx, 4
  0001d	85 c0		 test	 eax, eax
  0001f	75 ef		 jne	 SHORT $LL2@GetTrailin
$LN3@GetTrailin:

; 469  :         }
; 470  :         // 
; 471  :         return (0);

  00021	33 c0		 xor	 eax, eax
  00023	5e		 pop	 esi

; 472  :     }

  00024	5d		 pop	 ebp
  00025	c3		 ret	 0
$LN10@GetTrailin:
; File z:\sources\lunor\repos\rougemeilland\palmtree.math.core.uint\palmtree.math.core.uint\pmc_inline_func.h

; 511  :             _BitScanForward(&pos, x);

  00026	0f bc c6	 bsf	 eax, esi
  00029	5e		 pop	 esi
; File z:\sources\lunor\repos\rougemeilland\palmtree.math.core.uint\palmtree.math.core.uint\pmc_memory.cpp

; 466  :                 return (bit_count + _TZCNT_ALT_UNIT(*p));

  0002a	03 c2		 add	 eax, edx

; 472  :     }

  0002c	5d		 pop	 ebp
  0002d	c3		 ret	 0
?GetTrailingZeroBitCount@Internal@Core@Math@Palmtree@@YAIPAII@Z ENDP ; Palmtree::Math::Core::Internal::GetTrailingZeroBitCount
_TEXT	ENDS
; Function compile flags: /Ogtp
; File z:\sources\lunor\repos\rougemeilland\palmtree.math.core.uint\palmtree.math.core.uint\pmc_memory.cpp
; File z:\sources\lunor\repos\rougemeilland\palmtree.math.core.uint\palmtree.math.core.uint\pmc_inline_func.h
; File z:\sources\lunor\repos\rougemeilland\palmtree.math.core.uint\palmtree.math.core.uint\pmc_memory.cpp
; File z:\sources\lunor\repos\rougemeilland\palmtree.math.core.uint\palmtree.math.core.uint\pmc_inline_func.h
; File z:\sources\lunor\repos\rougemeilland\palmtree.math.core.uint\palmtree.math.core.uint\pmc_memory.cpp
; File z:\sources\lunor\repos\rougemeilland\palmtree.math.core.uint\palmtree.math.core.uint\pmc_inline_func.h
; File z:\sources\lunor\repos\rougemeilland\palmtree.math.core.uint\palmtree.math.core.uint\pmc_memory.cpp
;	COMDAT ?GetEffectiveBitLength@Internal@Core@Math@Palmtree@@YAIPAII0@Z
_TEXT	SEGMENT
_p$ = 8							; size = 4
_word_count$ = 12					; size = 4
_effective_word_count$ = 16				; size = 4
?GetEffectiveBitLength@Internal@Core@Math@Palmtree@@YAIPAII0@Z PROC ; Palmtree::Math::Core::Internal::GetEffectiveBitLength, COMDAT

; 438  :     {

  00000	55		 push	 ebp
  00001	8b ec		 mov	 ebp, esp

; 439  :         if (p == nullptr)

  00003	8b 45 08	 mov	 eax, DWORD PTR _p$[ebp]
  00006	85 c0		 test	 eax, eax
  00008	74 18		 je	 SHORT $LN3@GetEffecti

; 440  :         {
; 441  :             *effective_word_count = 0;
; 442  :             return (0);
; 443  :         }
; 444  :         p += word_count;

  0000a	8b 55 0c	 mov	 edx, DWORD PTR _word_count$[ebp]
  0000d	8d 0c 90	 lea	 ecx, DWORD PTR [eax+edx*4]

; 445  :         while (word_count != 0)

  00010	85 d2		 test	 edx, edx
  00012	74 0e		 je	 SHORT $LN3@GetEffecti
$LL2@GetEffecti:

; 446  :         {
; 447  :             --p;
; 448  :             if (*p != 0)

  00014	83 79 fc 00	 cmp	 DWORD PTR [ecx-4], 0
  00018	8d 49 fc	 lea	 ecx, DWORD PTR [ecx-4]
  0001b	75 12		 jne	 SHORT $LN11@GetEffecti

; 452  :             }
; 453  :             --word_count;

  0001d	83 ea 01	 sub	 edx, 1
  00020	75 f2		 jne	 SHORT $LL2@GetEffecti
$LN3@GetEffecti:

; 454  :         }
; 455  :         *effective_word_count = 0;

  00022	8b 45 10	 mov	 eax, DWORD PTR _effective_word_count$[ebp]
  00025	c7 00 00 00 00
	00		 mov	 DWORD PTR [eax], 0

; 456  :         return (0);

  0002b	33 c0		 xor	 eax, eax

; 457  :     }

  0002d	5d		 pop	 ebp
  0002e	c3		 ret	 0
$LN11@GetEffecti:

; 449  :             {
; 450  :                 *effective_word_count = word_count;

  0002f	8b 45 10	 mov	 eax, DWORD PTR _effective_word_count$[ebp]
  00032	89 10		 mov	 DWORD PTR [eax], edx

; 451  :                 return (word_count * __UNIT_TYPE_BIT_COUNT - _LZCNT_ALT_UNIT(*p));

  00034	8b 01		 mov	 eax, DWORD PTR [ecx]
; File z:\sources\lunor\repos\rougemeilland\palmtree.math.core.uint\palmtree.math.core.uint\pmc_inline_func.h

; 455  :             if (x == 0)

  00036	85 c0		 test	 eax, eax
  00038	75 0e		 jne	 SHORT $LN8@GetEffecti

; 456  :                 return (sizeof(x) * 8);

  0003a	b8 20 00 00 00	 mov	 eax, 32			; 00000020H
; File z:\sources\lunor\repos\rougemeilland\palmtree.math.core.uint\palmtree.math.core.uint\pmc_memory.cpp

; 451  :                 return (word_count * __UNIT_TYPE_BIT_COUNT - _LZCNT_ALT_UNIT(*p));

  0003f	c1 e2 05	 shl	 edx, 5
  00042	2b d0		 sub	 edx, eax
  00044	8b c2		 mov	 eax, edx

; 457  :     }

  00046	5d		 pop	 ebp
  00047	c3		 ret	 0
$LN8@GetEffecti:
; File z:\sources\lunor\repos\rougemeilland\palmtree.math.core.uint\palmtree.math.core.uint\pmc_inline_func.h

; 460  :             _BitScanReverse(&pos, x);

  00048	0f bd c8	 bsr	 ecx, eax

; 479  :             return (sizeof(x) * 8 - 1 - pos);

  0004b	b8 1f 00 00 00	 mov	 eax, 31			; 0000001fH
; File z:\sources\lunor\repos\rougemeilland\palmtree.math.core.uint\palmtree.math.core.uint\pmc_memory.cpp

; 451  :                 return (word_count * __UNIT_TYPE_BIT_COUNT - _LZCNT_ALT_UNIT(*p));

  00050	c1 e2 05	 shl	 edx, 5
; File z:\sources\lunor\repos\rougemeilland\palmtree.math.core.uint\palmtree.math.core.uint\pmc_inline_func.h

; 479  :             return (sizeof(x) * 8 - 1 - pos);

  00053	2b c1		 sub	 eax, ecx
; File z:\sources\lunor\repos\rougemeilland\palmtree.math.core.uint\palmtree.math.core.uint\pmc_memory.cpp

; 451  :                 return (word_count * __UNIT_TYPE_BIT_COUNT - _LZCNT_ALT_UNIT(*p));

  00055	2b d0		 sub	 edx, eax
  00057	8b c2		 mov	 eax, edx

; 457  :     }

  00059	5d		 pop	 ebp
  0005a	c3		 ret	 0
?GetEffectiveBitLength@Internal@Core@Math@Palmtree@@YAIPAII0@Z ENDP ; Palmtree::Math::Core::Internal::GetEffectiveBitLength
_TEXT	ENDS
; Function compile flags: /Ogtp
; File z:\sources\lunor\repos\rougemeilland\palmtree.math.core.uint\palmtree.math.core.uint\pmc_memory.cpp
; File z:\sources\lunor\repos\rougemeilland\palmtree.math.core.uint\palmtree.math.core.uint\pmc_inline_func.h
; File z:\sources\lunor\repos\rougemeilland\palmtree.math.core.uint\palmtree.math.core.uint\pmc_memory.cpp
; File z:\sources\lunor\repos\rougemeilland\palmtree.math.core.uint\palmtree.math.core.uint\pmc_inline_func.h
; File z:\sources\lunor\repos\rougemeilland\palmtree.math.core.uint\palmtree.math.core.uint\pmc_memory.cpp
;	COMDAT ?DeallocateNumber@Internal@Core@Math@Palmtree@@YAXPAU__tag_NUMBER_HEADER@1234@@Z
_TEXT	SEGMENT
_p$ = 8							; size = 4
?DeallocateNumber@Internal@Core@Math@Palmtree@@YAXPAU__tag_NUMBER_HEADER@1234@@Z PROC ; Palmtree::Math::Core::Internal::DeallocateNumber, COMDAT

; 423  :     {

  00000	55		 push	 ebp
  00001	8b ec		 mov	 ebp, esp
  00003	56		 push	 esi

; 424  :         if (p != nullptr && !p->IS_STATIC)

  00004	8b 75 08	 mov	 esi, DWORD PTR _p$[ebp]
  00007	85 f6		 test	 esi, esi
  00009	0f 84 96 00 00
	00		 je	 $LN2@Deallocate
  0000f	f6 46 1c 01	 test	 BYTE PTR [esi+28], 1
  00013	0f 85 8c 00 00
	00		 jne	 $LN2@Deallocate

; 386  :         if (p->BLOCK != nullptr)

  00019	8b 56 24	 mov	 edx, DWORD PTR [esi+36]
  0001c	85 d2		 test	 edx, edx
  0001e	74 2a		 je	 SHORT $LN7@Deallocate

; 220  :         _FILL_MEMORY_UNIT(p, DEFAULT_MEMORY_DATA, buffer_words + 2);

  00020	8b 4e 20	 mov	 ecx, DWORD PTR [esi+32]
  00023	83 c2 fc	 add	 edx, -4			; fffffffcH
  00026	57		 push	 edi

; 222  :         HeapFree(hLocalHeap, 0, p);

  00027	52		 push	 edx

; 391  :             p->BLOCK = nullptr;

  00028	c7 46 24 00 00
	00 00		 mov	 DWORD PTR [esi+36], 0

; 220  :         _FILL_MEMORY_UNIT(p, DEFAULT_MEMORY_DATA, buffer_words + 2);

  0002f	83 c1 02	 add	 ecx, 2
; File z:\sources\lunor\repos\rougemeilland\palmtree.math.core.uint\palmtree.math.core.uint\pmc_inline_func.h

; 131  :             __stosd((unsigned long*)d, x, (unsigned long)count);

  00032	8b fa		 mov	 edi, edx
  00034	b8 cc cc cc cc	 mov	 eax, -858993460		; ccccccccH
; File z:\sources\lunor\repos\rougemeilland\palmtree.math.core.uint\palmtree.math.core.uint\pmc_memory.cpp

; 222  :         HeapFree(hLocalHeap, 0, p);

  00039	6a 00		 push	 0
; File z:\sources\lunor\repos\rougemeilland\palmtree.math.core.uint\palmtree.math.core.uint\pmc_inline_func.h

; 131  :             __stosd((unsigned long*)d, x, (unsigned long)count);

  0003b	f3 ab		 rep stosd
; File z:\sources\lunor\repos\rougemeilland\palmtree.math.core.uint\palmtree.math.core.uint\pmc_memory.cpp

; 222  :         HeapFree(hLocalHeap, 0, p);

  0003d	ff 35 00 00 00
	00		 push	 DWORD PTR ?hLocalHeap@Internal@Core@Math@Palmtree@@3PAXA ; Palmtree::Math::Core::Internal::hLocalHeap
  00043	ff 15 00 00 00
	00		 call	 DWORD PTR __imp__HeapFree@12
  00049	5f		 pop	 edi
$LN7@Deallocate:

; 425  :         {
; 426  :             CleanUpNumber(p);
; 427  :             FillNumberHeader(p);
; 428  :             HeapFree(hLocalHeap, 0, p);

  0004a	56		 push	 esi
  0004b	6a 00		 push	 0

; 322  :                 __p[0] = (_UINT32_T)DEFAULT_MEMORY_DATA;

  0004d	c7 06 cc cc cc
	cc		 mov	 DWORD PTR [esi], -858993460 ; ccccccccH

; 323  :                 __p[1] = (_UINT32_T)DEFAULT_MEMORY_DATA;

  00053	c7 46 04 cc cc
	cc cc		 mov	 DWORD PTR [esi+4], -858993460 ; ccccccccH

; 324  :                 __p[2] = (_UINT32_T)DEFAULT_MEMORY_DATA;

  0005a	c7 46 08 cc cc
	cc cc		 mov	 DWORD PTR [esi+8], -858993460 ; ccccccccH

; 325  :                 __p[3] = (_UINT32_T)DEFAULT_MEMORY_DATA;

  00061	c7 46 0c cc cc
	cc cc		 mov	 DWORD PTR [esi+12], -858993460 ; ccccccccH

; 326  :                 __p[4] = (_UINT32_T)DEFAULT_MEMORY_DATA;

  00068	c7 46 10 cc cc
	cc cc		 mov	 DWORD PTR [esi+16], -858993460 ; ccccccccH

; 327  :                 __p[5] = (_UINT32_T)DEFAULT_MEMORY_DATA;

  0006f	c7 46 14 cc cc
	cc cc		 mov	 DWORD PTR [esi+20], -858993460 ; ccccccccH

; 328  :                 __p[6] = (_UINT32_T)DEFAULT_MEMORY_DATA;

  00076	c7 46 18 cc cc
	cc cc		 mov	 DWORD PTR [esi+24], -858993460 ; ccccccccH

; 329  :                 __p[7] = (_UINT32_T)DEFAULT_MEMORY_DATA;

  0007d	c7 46 1c cc cc
	cc cc		 mov	 DWORD PTR [esi+28], -858993460 ; ccccccccH

; 330  :                 __p[8] = (_UINT32_T)DEFAULT_MEMORY_DATA;

  00084	c7 46 20 cc cc
	cc cc		 mov	 DWORD PTR [esi+32], -858993460 ; ccccccccH

; 331  :                 __p[9] = (_UINT32_T)DEFAULT_MEMORY_DATA;

  0008b	c7 46 24 cc cc
	cc cc		 mov	 DWORD PTR [esi+36], -858993460 ; ccccccccH

; 332  :                 __p[10] = (_UINT32_T)DEFAULT_MEMORY_DATA;

  00092	c7 46 28 cc cc
	cc cc		 mov	 DWORD PTR [esi+40], -858993460 ; ccccccccH

; 425  :         {
; 426  :             CleanUpNumber(p);
; 427  :             FillNumberHeader(p);
; 428  :             HeapFree(hLocalHeap, 0, p);

  00099	ff 35 00 00 00
	00		 push	 DWORD PTR ?hLocalHeap@Internal@Core@Math@Palmtree@@3PAXA ; Palmtree::Math::Core::Internal::hLocalHeap
  0009f	ff 15 00 00 00
	00		 call	 DWORD PTR __imp__HeapFree@12
$LN2@Deallocate:
  000a5	5e		 pop	 esi

; 429  : #ifdef _LOG_MEMORY
; 430  :             {
; 431  :                 wprintf(L"0x%08lx: delete header 0x%016llx\n", GetCurrentThreadId(), (unsigned long long)p);
; 432  :             }
; 433  : #endif
; 434  :         }
; 435  :     }

  000a6	5d		 pop	 ebp
  000a7	c3		 ret	 0
?DeallocateNumber@Internal@Core@Math@Palmtree@@YAXPAU__tag_NUMBER_HEADER@1234@@Z ENDP ; Palmtree::Math::Core::Internal::DeallocateNumber
_TEXT	ENDS
; Function compile flags: /Ogtp
; File z:\sources\lunor\repos\rougemeilland\palmtree.math.core.uint\palmtree.math.core.uint\pmc_memory.cpp
; File z:\sources\lunor\repos\rougemeilland\palmtree.math.core.uint\palmtree.math.core.uint\pmc_inline_func.h
; File z:\sources\lunor\repos\rougemeilland\palmtree.math.core.uint\palmtree.math.core.uint\pmc_memory.cpp
; File z:\sources\lunor\repos\rougemeilland\palmtree.math.core.uint\palmtree.math.core.uint\pmc_inline_func.h
; File z:\sources\lunor\repos\rougemeilland\palmtree.math.core.uint\palmtree.math.core.uint\pmc_memory.cpp
; File z:\sources\lunor\repos\rougemeilland\palmtree.math.core.uint\palmtree.math.core.uint\pmc_inline_func.h
; File z:\sources\lunor\repos\rougemeilland\palmtree.math.core.uint\palmtree.math.core.uint\pmc_memory.cpp
;	COMDAT ?DetatchNumber@Internal@Core@Math@Palmtree@@YAXPAU__tag_NUMBER_HEADER@1234@@Z
_TEXT	SEGMENT
_p$ = 8							; size = 4
?DetatchNumber@Internal@Core@Math@Palmtree@@YAXPAU__tag_NUMBER_HEADER@1234@@Z PROC ; Palmtree::Math::Core::Internal::DetatchNumber, COMDAT

; 417  :     {

  00000	55		 push	 ebp
  00001	8b ec		 mov	 ebp, esp

; 418  :         if (p != nullptr && p->IS_STATIC)

  00003	8b 4d 08	 mov	 ecx, DWORD PTR _p$[ebp]
  00006	85 c9		 test	 ecx, ecx
  00008	74 37		 je	 SHORT $LN7@DetatchNum
  0000a	f6 41 1c 01	 test	 BYTE PTR [ecx+28], 1
  0000e	74 31		 je	 SHORT $LN7@DetatchNum

; 386  :         if (p->BLOCK != nullptr)

  00010	8b 51 24	 mov	 edx, DWORD PTR [ecx+36]
  00013	85 d2		 test	 edx, edx
  00015	74 2a		 je	 SHORT $LN7@DetatchNum

; 212  :         __UNIT_TYPE* p = buffer - 1;

  00017	57		 push	 edi

; 391  :             p->BLOCK = nullptr;

  00018	c7 41 24 00 00
	00 00		 mov	 DWORD PTR [ecx+36], 0

; 212  :         __UNIT_TYPE* p = buffer - 1;

  0001f	83 c2 fc	 add	 edx, -4			; fffffffcH

; 213  : #ifdef _DEBUG
; 214  :         if (*p != buffer_words)
; 215  :             throw BadBufferException(L"", L"pmc_memory.cpp;DeallocateBlock;1");
; 216  :         if (p[buffer_words+1] != check_code)
; 217  :             throw BadBufferException(L"", L"pmc_memory.cpp;DeallocateBlock;2");
; 218  : #endif
; 219  :         // 
; 220  :         _FILL_MEMORY_UNIT(p, DEFAULT_MEMORY_DATA, buffer_words + 2);

  00022	8b 49 20	 mov	 ecx, DWORD PTR [ecx+32]
; File z:\sources\lunor\repos\rougemeilland\palmtree.math.core.uint\palmtree.math.core.uint\pmc_inline_func.h

; 131  :             __stosd((unsigned long*)d, x, (unsigned long)count);

  00025	8b fa		 mov	 edi, edx
; File z:\sources\lunor\repos\rougemeilland\palmtree.math.core.uint\palmtree.math.core.uint\pmc_memory.cpp

; 222  :         HeapFree(hLocalHeap, 0, p);

  00027	52		 push	 edx
  00028	83 c1 02	 add	 ecx, 2
; File z:\sources\lunor\repos\rougemeilland\palmtree.math.core.uint\palmtree.math.core.uint\pmc_inline_func.h

; 131  :             __stosd((unsigned long*)d, x, (unsigned long)count);

  0002b	b8 cc cc cc cc	 mov	 eax, -858993460		; ccccccccH
; File z:\sources\lunor\repos\rougemeilland\palmtree.math.core.uint\palmtree.math.core.uint\pmc_memory.cpp

; 222  :         HeapFree(hLocalHeap, 0, p);

  00030	6a 00		 push	 0
; File z:\sources\lunor\repos\rougemeilland\palmtree.math.core.uint\palmtree.math.core.uint\pmc_inline_func.h

; 131  :             __stosd((unsigned long*)d, x, (unsigned long)count);

  00032	f3 ab		 rep stosd
; File z:\sources\lunor\repos\rougemeilland\palmtree.math.core.uint\palmtree.math.core.uint\pmc_memory.cpp

; 222  :         HeapFree(hLocalHeap, 0, p);

  00034	ff 35 00 00 00
	00		 push	 DWORD PTR ?hLocalHeap@Internal@Core@Math@Palmtree@@3PAXA ; Palmtree::Math::Core::Internal::hLocalHeap
  0003a	ff 15 00 00 00
	00		 call	 DWORD PTR __imp__HeapFree@12
  00040	5f		 pop	 edi
$LN7@DetatchNum:

; 419  :             CleanUpNumber(p);
; 420  :     }

  00041	5d		 pop	 ebp
  00042	c3		 ret	 0
?DetatchNumber@Internal@Core@Math@Palmtree@@YAXPAU__tag_NUMBER_HEADER@1234@@Z ENDP ; Palmtree::Math::Core::Internal::DetatchNumber
_TEXT	ENDS
; Function compile flags: /Ogtp
; File z:\sources\lunor\repos\rougemeilland\palmtree.math.core.uint\palmtree.math.core.uint\pmc_memory.cpp
; File z:\sources\lunor\repos\rougemeilland\palmtree.math.core.uint\palmtree.math.core.uint\pmc_resourceholder.h
; File z:\sources\lunor\repos\rougemeilland\palmtree.math.core.uint\palmtree.math.core.uint\pmc_memory.cpp
; File z:\sources\lunor\repos\rougemeilland\palmtree.math.core.uint\palmtree.math.core.uint\pmc_resourceholder.h
; File z:\sources\lunor\repos\rougemeilland\palmtree.math.core.uint\palmtree.math.core.uint\pmc_memory.cpp
; File z:\sources\lunor\repos\rougemeilland\palmtree.math.core.uint\palmtree.math.core.uint\pmc_resourceholder.h
; File z:\sources\lunor\repos\rougemeilland\palmtree.math.core.uint\palmtree.math.core.uint\pmc_memory.cpp
; File z:\sources\lunor\repos\rougemeilland\palmtree.math.core.uint\palmtree.math.core.uint\pmc_resourceholder.h
; File z:\sources\lunor\repos\rougemeilland\palmtree.math.core.uint\palmtree.math.core.uint\pmc_memory.cpp
;	COMDAT ?AllocateNumber@Internal@Core@Math@Palmtree@@YAPAU__tag_NUMBER_HEADER@1234@I@Z
_TEXT	SEGMENT
_lock_obj$2 = -62					; size = 1
_lock_obj$3 = -61					; size = 1
$T4 = -60						; size = 28
$T5 = -56						; size = 24
_root$ = -32						; size = 16
$T6 = -16						; size = 4
_this$7 = -16						; size = 4
__$EHRec$ = -12						; size = 12
_bit_count$ = 8						; size = 4
?AllocateNumber@Internal@Core@Math@Palmtree@@YAPAU__tag_NUMBER_HEADER@1234@I@Z PROC ; Palmtree::Math::Core::Internal::AllocateNumber, COMDAT

; 407  :     {

  00000	55		 push	 ebp
  00001	8b ec		 mov	 ebp, esp
  00003	6a ff		 push	 -1
  00005	68 00 00 00 00	 push	 __ehhandler$?AllocateNumber@Internal@Core@Math@Palmtree@@YAPAU__tag_NUMBER_HEADER@1234@I@Z
  0000a	64 a1 00 00 00
	00		 mov	 eax, DWORD PTR fs:0
  00010	50		 push	 eax
  00011	83 ec 34	 sub	 esp, 52			; 00000034H
  00014	56		 push	 esi
  00015	57		 push	 edi
  00016	a1 00 00 00 00	 mov	 eax, DWORD PTR ___security_cookie
  0001b	33 c5		 xor	 eax, ebp
  0001d	50		 push	 eax
  0001e	8d 45 f4	 lea	 eax, DWORD PTR __$EHRec$[ebp]
  00021	64 a3 00 00 00
	00		 mov	 DWORD PTR fs:0, eax
; File z:\sources\lunor\repos\rougemeilland\palmtree.math.core.uint\palmtree.math.core.uint\pmc_resourceholder.h

; 136  :         ResourceHolder()

  00027	8d 45 e4	 lea	 eax, DWORD PTR _root$[ebp+4]
  0002a	c7 45 e0 00 00
	00 00		 mov	 DWORD PTR _root$[ebp], OFFSET ??_7ResourceHolder@Internal@Core@Math@Palmtree@@6B@
  00031	89 45 f0	 mov	 DWORD PTR _this$7[ebp], eax

; 57   :             __ChainBufferTag()

  00034	c7 45 e4 00 00
	00 00		 mov	 DWORD PTR _root$[ebp+4], OFFSET ??_7__ChainBufferTag@ResourceHolder@Internal@Core@Math@Palmtree@@6B@

; 58   :             {
; 59   :                 _next = this;

  0003b	89 45 e8	 mov	 DWORD PTR _root$[ebp+8], eax

; 60   :                 _prev = this;

  0003e	89 45 ec	 mov	 DWORD PTR _root$[ebp+12], eax

; 114  :             __RootTag()

  00041	c7 45 fc 00 00
	00 00		 mov	 DWORD PTR __$EHRec$[ebp+8], 0
  00048	c7 45 e4 00 00
	00 00		 mov	 DWORD PTR _root$[ebp+4], OFFSET ??_7__RootTag@ResourceHolder@Internal@Core@Math@Palmtree@@6B@
; File z:\sources\lunor\repos\rougemeilland\palmtree.math.core.uint\palmtree.math.core.uint\pmc_memory.cpp

; 751  :     {

  0004f	c7 45 fc 02 00
	00 00		 mov	 DWORD PTR __$EHRec$[ebp+8], 2
  00056	c7 45 e0 00 00
	00 00		 mov	 DWORD PTR _root$[ebp], OFFSET ??_7ResourceHolderUINT@Internal@Core@Math@Palmtree@@6B@

; 408  :         ResourceHolderUINT root;

  0005d	c7 45 fc 03 00
	00 00		 mov	 DWORD PTR __$EHRec$[ebp+8], 3

; 586  :         EnterCriticalSection(&mcs);

  00064	8b 35 00 00 00
	00		 mov	 esi, DWORD PTR __imp__EnterCriticalSection@4
  0006a	68 00 00 00 00	 push	 OFFSET ?mcs@Internal@Core@Math@Palmtree@@3U_RTL_CRITICAL_SECTION@@A ; Palmtree::Math::Core::Internal::mcs
  0006f	ff d6		 call	 esi

; 760  :         Lock lock_obj;

  00071	c6 45 fc 04	 mov	 BYTE PTR __$EHRec$[ebp+8], 4

; 761  :         void* buffer = HeapAlloc(hLocalHeap, HEAP_ZERO_MEMORY, size);

  00075	6a 2c		 push	 44			; 0000002cH
  00077	6a 08		 push	 8
  00079	ff 35 00 00 00
	00		 push	 DWORD PTR ?hLocalHeap@Internal@Core@Math@Palmtree@@3PAXA ; Palmtree::Math::Core::Internal::hLocalHeap
  0007f	ff 15 00 00 00
	00		 call	 DWORD PTR __imp__HeapAlloc@12
  00085	8b f8		 mov	 edi, eax

; 762  :         if (buffer == nullptr)

  00087	85 ff		 test	 edi, edi
  00089	0f 84 fc 00 00
	00		 je	 $LN69@AllocateNu

; 764  : #ifdef _LOG_MEMORY
; 765  :         {
; 766  :             wprintf(L"0x%08lx: new header 0x%016llx\n", GetCurrentThreadId(), (unsigned long long)buffer);
; 767  :         }
; 768  :         #endif
; 769  :         __ChainBufferTag* tag = new __GenericChainBufferTag(buffer);

  0008f	6a 10		 push	 16			; 00000010H
  00091	e8 00 00 00 00	 call	 ??2@YAPAXI@Z		; operator new
  00096	8b c8		 mov	 ecx, eax
  00098	83 c4 04	 add	 esp, 4
  0009b	89 4d f0	 mov	 DWORD PTR $T6[ebp], ecx
  0009e	c6 45 fc 05	 mov	 BYTE PTR __$EHRec$[ebp+8], 5
  000a2	85 c9		 test	 ecx, ecx
  000a4	74 1f		 je	 SHORT $LN18@AllocateNu
; File z:\sources\lunor\repos\rougemeilland\palmtree.math.core.uint\palmtree.math.core.uint\pmc_resourceholder.h

; 57   :             __ChainBufferTag()

  000a6	c7 01 00 00 00
	00		 mov	 DWORD PTR [ecx], OFFSET ??_7__ChainBufferTag@ResourceHolder@Internal@Core@Math@Palmtree@@6B@

; 58   :             {
; 59   :                 _next = this;

  000ac	89 49 04	 mov	 DWORD PTR [ecx+4], ecx

; 60   :                 _prev = this;

  000af	89 49 08	 mov	 DWORD PTR [ecx+8], ecx
; File z:\sources\lunor\repos\rougemeilland\palmtree.math.core.uint\palmtree.math.core.uint\pmc_memory.cpp

; 595  :     {

  000b2	c6 45 fc 06	 mov	 BYTE PTR __$EHRec$[ebp+8], 6
  000b6	c7 01 00 00 00
	00		 mov	 DWORD PTR [ecx], OFFSET ??_7__GenericChainBufferTag@ResourceHolderUINT@Internal@Core@Math@Palmtree@@6B@

; 596  :         _buffer = buffer;

  000bc	89 79 0c	 mov	 DWORD PTR [ecx+12], edi

; 597  :     }

  000bf	c6 45 fc 05	 mov	 BYTE PTR __$EHRec$[ebp+8], 5

; 769  :         __ChainBufferTag* tag = new __GenericChainBufferTag(buffer);

  000c3	eb 02		 jmp	 SHORT $LN19@AllocateNu
$LN18@AllocateNu:
  000c5	33 c9		 xor	 ecx, ecx
$LN19@AllocateNu:
  000c7	c6 45 fc 04	 mov	 BYTE PTR __$EHRec$[ebp+8], 4
; File z:\sources\lunor\repos\rougemeilland\palmtree.math.core.uint\palmtree.math.core.uint\pmc_resourceholder.h

; 71   :                 tag->_prev = this;

  000cb	8d 55 e4	 lea	 edx, DWORD PTR _root$[ebp+4]
  000ce	8b 45 e8	 mov	 eax, DWORD PTR _root$[ebp+8]
  000d1	89 41 04	 mov	 DWORD PTR [ecx+4], eax
  000d4	89 51 08	 mov	 DWORD PTR [ecx+8], edx

; 72   :                 tag->_next->_prev = tag;

  000d7	89 48 08	 mov	 DWORD PTR [eax+8], ecx

; 73   :                 tag->_prev->_next = tag;

  000da	8b 41 08	 mov	 eax, DWORD PTR [ecx+8]
  000dd	89 48 04	 mov	 DWORD PTR [eax+4], ecx
; File z:\sources\lunor\repos\rougemeilland\palmtree.math.core.uint\palmtree.math.core.uint\pmc_memory.cpp

; 771  :         return (buffer);

  000e0	c6 45 fc 03	 mov	 BYTE PTR __$EHRec$[ebp+8], 3

; 591  :         LeaveCriticalSection(&mcs);

  000e4	68 00 00 00 00	 push	 OFFSET ?mcs@Internal@Core@Math@Palmtree@@3U_RTL_CRITICAL_SECTION@@A ; Palmtree::Math::Core::Internal::mcs
  000e9	ff 15 00 00 00
	00		 call	 DWORD PTR __imp__LeaveCriticalSection@4

; 409  :         NUMBER_HEADER* p = (NUMBER_HEADER*)root.AllocateBytes(sizeof(NUMBER_HEADER));
; 410  :         InitializeNumber(p, bit_count);

  000ef	ff 75 08	 push	 DWORD PTR _bit_count$[ebp]
  000f2	57		 push	 edi
  000f3	e8 00 00 00 00	 call	 ?InitializeNumber@Internal@Core@Math@Palmtree@@YAXPAU__tag_NUMBER_HEADER@1234@I@Z ; Palmtree::Math::Core::Internal::InitializeNumber

; 411  :         p->IS_STATIC = false;

  000f8	83 67 1c fe	 and	 DWORD PTR [edi+28], -2	; fffffffeH
  000fc	83 c4 08	 add	 esp, 8

; 586  :         EnterCriticalSection(&mcs);

  000ff	68 00 00 00 00	 push	 OFFSET ?mcs@Internal@Core@Math@Palmtree@@3U_RTL_CRITICAL_SECTION@@A ; Palmtree::Math::Core::Internal::mcs
  00104	ff d6		 call	 esi

; 788  :         Lock lock_obj;

  00106	c6 45 fc 07	 mov	 BYTE PTR __$EHRec$[ebp+8], 7
; File z:\sources\lunor\repos\rougemeilland\palmtree.math.core.uint\palmtree.math.core.uint\pmc_resourceholder.h

; 89   :                 return (_next);

  0010a	8d 45 e4	 lea	 eax, DWORD PTR _root$[ebp+4]
  0010d	8b 75 e8	 mov	 esi, DWORD PTR _root$[ebp+8]
  00110	3b f0		 cmp	 esi, eax

; 161  :             for (__ChainBufferTag* tag = _root_tag.Next(); tag != &_root_tag; tag = tag->Next())

  00112	0f 84 8e 00 00
	00		 je	 $LN65@AllocateNu
$LL45@AllocateNu:

; 162  :             {
; 163  :                 if (tag->EqualsBufferAddress(buffer))

  00118	8b 06		 mov	 eax, DWORD PTR [esi]
  0011a	8b ce		 mov	 ecx, esi
  0011c	57		 push	 edi
  0011d	ff 50 04	 call	 DWORD PTR [eax+4]
  00120	85 c0		 test	 eax, eax
  00122	75 0c		 jne	 SHORT $LN37@AllocateNu

; 89   :                 return (_next);

  00124	8b 76 04	 mov	 esi, DWORD PTR [esi+4]

; 161  :             for (__ChainBufferTag* tag = _root_tag.Next(); tag != &_root_tag; tag = tag->Next())

  00127	8d 45 e4	 lea	 eax, DWORD PTR _root$[ebp+4]
  0012a	3b f0		 cmp	 esi, eax
  0012c	74 78		 je	 SHORT $LN65@AllocateNu
  0012e	eb e8		 jmp	 SHORT $LL45@AllocateNu
$LN37@AllocateNu:

; 78   :                 if (_next != this)

  00130	8b 4e 04	 mov	 ecx, DWORD PTR [esi+4]
  00133	3b ce		 cmp	 ecx, esi
  00135	74 15		 je	 SHORT $LN53@AllocateNu

; 79   :                 {
; 80   :                     _next->_prev = _prev;

  00137	8b 46 08	 mov	 eax, DWORD PTR [esi+8]
  0013a	89 41 08	 mov	 DWORD PTR [ecx+8], eax

; 81   :                     _prev->_next = _next;

  0013d	8b 4e 08	 mov	 ecx, DWORD PTR [esi+8]
  00140	8b 46 04	 mov	 eax, DWORD PTR [esi+4]
  00143	89 41 04	 mov	 DWORD PTR [ecx+4], eax

; 82   :                     _next = this;

  00146	89 76 04	 mov	 DWORD PTR [esi+4], esi

; 83   :                     _prev = this;

  00149	89 76 08	 mov	 DWORD PTR [esi+8], esi
$LN53@AllocateNu:
; File z:\sources\lunor\repos\rougemeilland\palmtree.math.core.uint\palmtree.math.core.uint\pmc_memory.cpp

; 793  :     }

  0014c	c6 45 fc 03	 mov	 BYTE PTR __$EHRec$[ebp+8], 3

; 591  :         LeaveCriticalSection(&mcs);

  00150	68 00 00 00 00	 push	 OFFSET ?mcs@Internal@Core@Math@Palmtree@@3U_RTL_CRITICAL_SECTION@@A ; Palmtree::Math::Core::Internal::mcs
  00155	ff 15 00 00 00
	00		 call	 DWORD PTR __imp__LeaveCriticalSection@4

; 412  :         root.UnlinkBytes((void*)p);
; 413  :         return (p);

  0015b	c7 45 fc ff ff
	ff ff		 mov	 DWORD PTR __$EHRec$[ebp+8], -1

; 755  :     {

  00162	c7 45 e0 00 00
	00 00		 mov	 DWORD PTR _root$[ebp], OFFSET ??_7ResourceHolderUINT@Internal@Core@Math@Palmtree@@6B@

; 756  :     }

  00169	c7 45 fc ff ff
	ff ff		 mov	 DWORD PTR __$EHRec$[ebp+8], -1
  00170	8d 4d e0	 lea	 ecx, DWORD PTR _root$[ebp]
  00173	e8 00 00 00 00	 call	 ??1ResourceHolder@Internal@Core@Math@Palmtree@@UAE@XZ ; Palmtree::Math::Core::Internal::ResourceHolder::~ResourceHolder

; 412  :         root.UnlinkBytes((void*)p);
; 413  :         return (p);

  00178	8b c7		 mov	 eax, edi

; 414  :     }

  0017a	8b 4d f4	 mov	 ecx, DWORD PTR __$EHRec$[ebp]
  0017d	64 89 0d 00 00
	00 00		 mov	 DWORD PTR fs:0, ecx
  00184	59		 pop	 ecx
  00185	5f		 pop	 edi
  00186	5e		 pop	 esi
  00187	8b e5		 mov	 esp, ebp
  00189	5d		 pop	 ebp
  0018a	c3		 ret	 0
$LN69@AllocateNu:

; 763  :             throw NotEnoughMemoryException(L"");

  0018b	68 00 00 00 00	 push	 OFFSET ??_C@_1CE@PIPAACFA@?$PP?R?$PP?$PM?$PP?W?$PP?a?$PP?b?$PP?j?$AA?$BI?$PP?$NP?$AAL?$AA?$AN?$PP?$LD?$AAW?$AAf?$AAD?$AA?$HO@
  00190	8d 4d c8	 lea	 ecx, DWORD PTR $T5[ebp]
  00193	e8 00 00 00 00	 call	 ??0NotEnoughMemoryException@Internal@Core@Math@Palmtree@@QAE@PB_W@Z ; Palmtree::Math::Core::Internal::NotEnoughMemoryException::NotEnoughMemoryException
  00198	68 00 00 00 00	 push	 OFFSET __TI2?AVNotEnoughMemoryException@Internal@Core@Math@Palmtree@@
  0019d	8d 45 c8	 lea	 eax, DWORD PTR $T5[ebp]
  001a0	50		 push	 eax
  001a1	e8 00 00 00 00	 call	 __CxxThrowException@8
$LN65@AllocateNu:

; 791  :             throw BadBufferException(L"", L"pmc_memory.cpp;ResourceHolderUINT::UnlinkBytes;1");

  001a6	68 00 00 00 00	 push	 OFFSET ??_C@_1GC@NKBJLGGD@?$AAp?$AAm?$AAc?$AA_?$AAm?$AAe?$AAm?$AAo?$AAr?$AAy?$AA?4?$AAc?$AAp?$AAp?$AA?$DL@
  001ab	68 00 00 00 00	 push	 OFFSET ??_C@_1CE@JCIJLGOL@?$PP?a?$PP?b?$PP?j?$AA?$BI?$PP?$NP?$AAn?$AA?$AN?$AAt?$AA?$AI?$PP?$JC?$AA?$BM?$PP?z?$AAW?$AA?$HO?$AAW@
  001b0	8d 4d c4	 lea	 ecx, DWORD PTR $T4[ebp]
  001b3	e8 00 00 00 00	 call	 ??0BadBufferException@Internal@Core@Math@Palmtree@@QAE@PB_W0@Z ; Palmtree::Math::Core::Internal::BadBufferException::BadBufferException
  001b8	68 00 00 00 00	 push	 OFFSET __TI2?AVBadBufferException@Internal@Core@Math@Palmtree@@
  001bd	8d 45 c4	 lea	 eax, DWORD PTR $T4[ebp]
  001c0	50		 push	 eax
  001c1	e8 00 00 00 00	 call	 __CxxThrowException@8
$LN67@AllocateNu:
  001c6	cc		 int	 3
_TEXT	ENDS
;	COMDAT text$x
text$x	SEGMENT
__unwindfunclet$?AllocateNumber@Internal@Core@Math@Palmtree@@YAPAU__tag_NUMBER_HEADER@1234@I@Z$3:
  00000	8b 4d f0	 mov	 ecx, DWORD PTR _this$7[ebp]
  00003	e9 00 00 00 00	 jmp	 ??1__ChainBufferTag@ResourceHolder@Internal@Core@Math@Palmtree@@UAE@XZ ; Palmtree::Math::Core::Internal::ResourceHolder::__ChainBufferTag::~__ChainBufferTag
__unwindfunclet$?AllocateNumber@Internal@Core@Math@Palmtree@@YAPAU__tag_NUMBER_HEADER@1234@I@Z$2:
  00008	8d 4d e4	 lea	 ecx, DWORD PTR _root$[ebp+4]
  0000b	e9 00 00 00 00	 jmp	 ??1__RootTag@ResourceHolder@Internal@Core@Math@Palmtree@@UAE@XZ ; Palmtree::Math::Core::Internal::ResourceHolder::__RootTag::~__RootTag
__unwindfunclet$?AllocateNumber@Internal@Core@Math@Palmtree@@YAPAU__tag_NUMBER_HEADER@1234@I@Z$1:
  00010	8d 4d e0	 lea	 ecx, DWORD PTR _root$[ebp]
  00013	e9 00 00 00 00	 jmp	 ??1ResourceHolder@Internal@Core@Math@Palmtree@@UAE@XZ ; Palmtree::Math::Core::Internal::ResourceHolder::~ResourceHolder
__unwindfunclet$?AllocateNumber@Internal@Core@Math@Palmtree@@YAPAU__tag_NUMBER_HEADER@1234@I@Z$0:
  00018	8d 4d e0	 lea	 ecx, DWORD PTR _root$[ebp]
  0001b	e9 00 00 00 00	 jmp	 ??1ResourceHolderUINT@Internal@Core@Math@Palmtree@@UAE@XZ ; Palmtree::Math::Core::Internal::ResourceHolderUINT::~ResourceHolderUINT
__unwindfunclet$?AllocateNumber@Internal@Core@Math@Palmtree@@YAPAU__tag_NUMBER_HEADER@1234@I@Z$4:
  00020	8d 4d c3	 lea	 ecx, DWORD PTR _lock_obj$3[ebp]
  00023	e9 00 00 00 00	 jmp	 ??1Lock@Internal@Core@Math@Palmtree@@QAE@XZ ; Palmtree::Math::Core::Internal::Lock::~Lock
__unwindfunclet$?AllocateNumber@Internal@Core@Math@Palmtree@@YAPAU__tag_NUMBER_HEADER@1234@I@Z$5:
  00028	6a 10		 push	 16			; 00000010H
  0002a	8b 45 f0	 mov	 eax, DWORD PTR $T6[ebp]
  0002d	50		 push	 eax
  0002e	e8 00 00 00 00	 call	 ??3@YAXPAXI@Z		; operator delete
  00033	83 c4 08	 add	 esp, 8
  00036	c3		 ret	 0
__unwindfunclet$?AllocateNumber@Internal@Core@Math@Palmtree@@YAPAU__tag_NUMBER_HEADER@1234@I@Z$6:
  00037	8b 4d f0	 mov	 ecx, DWORD PTR $T6[ebp]
  0003a	e9 00 00 00 00	 jmp	 ??1__ChainBufferTag@ResourceHolder@Internal@Core@Math@Palmtree@@UAE@XZ ; Palmtree::Math::Core::Internal::ResourceHolder::__ChainBufferTag::~__ChainBufferTag
__unwindfunclet$?AllocateNumber@Internal@Core@Math@Palmtree@@YAPAU__tag_NUMBER_HEADER@1234@I@Z$7:
  0003f	8d 4d c2	 lea	 ecx, DWORD PTR _lock_obj$2[ebp]
  00042	e9 00 00 00 00	 jmp	 ??1Lock@Internal@Core@Math@Palmtree@@QAE@XZ ; Palmtree::Math::Core::Internal::Lock::~Lock
__unwindfunclet$?AllocateNumber@Internal@Core@Math@Palmtree@@YAPAU__tag_NUMBER_HEADER@1234@I@Z$8:
  00047	8d 4d e0	 lea	 ecx, DWORD PTR _root$[ebp]
  0004a	e9 00 00 00 00	 jmp	 ??1ResourceHolder@Internal@Core@Math@Palmtree@@UAE@XZ ; Palmtree::Math::Core::Internal::ResourceHolder::~ResourceHolder
__ehhandler$?AllocateNumber@Internal@Core@Math@Palmtree@@YAPAU__tag_NUMBER_HEADER@1234@I@Z:
  0004f	8b 54 24 08	 mov	 edx, DWORD PTR [esp+8]
  00053	8d 42 0c	 lea	 eax, DWORD PTR [edx+12]
  00056	8b 4a c0	 mov	 ecx, DWORD PTR [edx-64]
  00059	33 c8		 xor	 ecx, eax
  0005b	e8 00 00 00 00	 call	 @__security_check_cookie@4
  00060	b8 00 00 00 00	 mov	 eax, OFFSET __ehfuncinfo$?AllocateNumber@Internal@Core@Math@Palmtree@@YAPAU__tag_NUMBER_HEADER@1234@I@Z
  00065	e9 00 00 00 00	 jmp	 ___CxxFrameHandler3
text$x	ENDS
?AllocateNumber@Internal@Core@Math@Palmtree@@YAPAU__tag_NUMBER_HEADER@1234@I@Z ENDP ; Palmtree::Math::Core::Internal::AllocateNumber
; Function compile flags: /Ogtp
; File z:\sources\lunor\repos\rougemeilland\palmtree.math.core.uint\palmtree.math.core.uint\pmc_memory.cpp
;	COMDAT ?AttatchNumber@Internal@Core@Math@Palmtree@@YAXPAU__tag_NUMBER_HEADER@1234@I@Z
_TEXT	SEGMENT
_p$ = 8							; size = 4
_bit_count$ = 12					; size = 4
?AttatchNumber@Internal@Core@Math@Palmtree@@YAXPAU__tag_NUMBER_HEADER@1234@I@Z PROC ; Palmtree::Math::Core::Internal::AttatchNumber, COMDAT

; 401  :     {

  00000	55		 push	 ebp
  00001	8b ec		 mov	 ebp, esp
  00003	56		 push	 esi

; 402  :         InitializeNumber(p, bit_count);

  00004	ff 75 0c	 push	 DWORD PTR _bit_count$[ebp]
  00007	8b 75 08	 mov	 esi, DWORD PTR _p$[ebp]
  0000a	56		 push	 esi
  0000b	e8 00 00 00 00	 call	 ?InitializeNumber@Internal@Core@Math@Palmtree@@YAXPAU__tag_NUMBER_HEADER@1234@I@Z ; Palmtree::Math::Core::Internal::InitializeNumber
  00010	83 c4 08	 add	 esp, 8

; 403  :         p->IS_STATIC = true;

  00013	83 4e 1c 01	 or	 DWORD PTR [esi+28], 1
  00017	5e		 pop	 esi

; 404  :     }

  00018	5d		 pop	 ebp
  00019	c3		 ret	 0
?AttatchNumber@Internal@Core@Math@Palmtree@@YAXPAU__tag_NUMBER_HEADER@1234@I@Z ENDP ; Palmtree::Math::Core::Internal::AttatchNumber
_TEXT	ENDS
; Function compile flags: /Ogtp
; File z:\sources\lunor\repos\rougemeilland\palmtree.math.core.uint\palmtree.math.core.uint\pmc_memory.cpp
; File z:\sources\lunor\repos\rougemeilland\palmtree.math.core.uint\palmtree.math.core.uint\pmc_inline_func.h
; File z:\sources\lunor\repos\rougemeilland\palmtree.math.core.uint\palmtree.math.core.uint\pmc_memory.cpp
; File z:\sources\lunor\repos\rougemeilland\palmtree.math.core.uint\palmtree.math.core.uint\pmc_inline_func.h
; File z:\sources\lunor\repos\rougemeilland\palmtree.math.core.uint\palmtree.math.core.uint\pmc_memory.cpp
; File z:\sources\lunor\repos\rougemeilland\palmtree.math.core.uint\palmtree.math.core.uint\pmc_inline_func.h
; File z:\sources\lunor\repos\rougemeilland\palmtree.math.core.uint\palmtree.math.core.uint\pmc_memory.cpp
;	COMDAT ?CleanUpNumber@Internal@Core@Math@Palmtree@@YAXPAU__tag_NUMBER_HEADER@1234@@Z
_TEXT	SEGMENT
_p$ = 8							; size = 4
?CleanUpNumber@Internal@Core@Math@Palmtree@@YAXPAU__tag_NUMBER_HEADER@1234@@Z PROC ; Palmtree::Math::Core::Internal::CleanUpNumber, COMDAT

; 385  :     {

  00000	55		 push	 ebp
  00001	8b ec		 mov	 ebp, esp

; 386  :         if (p->BLOCK != nullptr)

  00003	8b 4d 08	 mov	 ecx, DWORD PTR _p$[ebp]
  00006	8b 51 24	 mov	 edx, DWORD PTR [ecx+36]
  00009	85 d2		 test	 edx, edx
  0000b	74 2a		 je	 SHORT $LN4@CleanUpNum

; 212  :         __UNIT_TYPE* p = buffer - 1;

  0000d	57		 push	 edi

; 387  :         {
; 388  :             __UNIT_TYPE* block = p->BLOCK;
; 389  :             __UNIT_TYPE block_count = p->BLOCK_COUNT;
; 390  :             __UNIT_TYPE block_check_code = p->BLOCK_CHECK_CODE;
; 391  :             p->BLOCK = nullptr;

  0000e	c7 41 24 00 00
	00 00		 mov	 DWORD PTR [ecx+36], 0

; 212  :         __UNIT_TYPE* p = buffer - 1;

  00015	83 c2 fc	 add	 edx, -4			; fffffffcH

; 213  : #ifdef _DEBUG
; 214  :         if (*p != buffer_words)
; 215  :             throw BadBufferException(L"", L"pmc_memory.cpp;DeallocateBlock;1");
; 216  :         if (p[buffer_words+1] != check_code)
; 217  :             throw BadBufferException(L"", L"pmc_memory.cpp;DeallocateBlock;2");
; 218  : #endif
; 219  :         // 
; 220  :         _FILL_MEMORY_UNIT(p, DEFAULT_MEMORY_DATA, buffer_words + 2);

  00018	8b 49 20	 mov	 ecx, DWORD PTR [ecx+32]
; File z:\sources\lunor\repos\rougemeilland\palmtree.math.core.uint\palmtree.math.core.uint\pmc_inline_func.h

; 131  :             __stosd((unsigned long*)d, x, (unsigned long)count);

  0001b	8b fa		 mov	 edi, edx
; File z:\sources\lunor\repos\rougemeilland\palmtree.math.core.uint\palmtree.math.core.uint\pmc_memory.cpp

; 222  :         HeapFree(hLocalHeap, 0, p);

  0001d	52		 push	 edx
  0001e	83 c1 02	 add	 ecx, 2
; File z:\sources\lunor\repos\rougemeilland\palmtree.math.core.uint\palmtree.math.core.uint\pmc_inline_func.h

; 131  :             __stosd((unsigned long*)d, x, (unsigned long)count);

  00021	b8 cc cc cc cc	 mov	 eax, -858993460		; ccccccccH
; File z:\sources\lunor\repos\rougemeilland\palmtree.math.core.uint\palmtree.math.core.uint\pmc_memory.cpp

; 222  :         HeapFree(hLocalHeap, 0, p);

  00026	6a 00		 push	 0
; File z:\sources\lunor\repos\rougemeilland\palmtree.math.core.uint\palmtree.math.core.uint\pmc_inline_func.h

; 131  :             __stosd((unsigned long*)d, x, (unsigned long)count);

  00028	f3 ab		 rep stosd
; File z:\sources\lunor\repos\rougemeilland\palmtree.math.core.uint\palmtree.math.core.uint\pmc_memory.cpp

; 222  :         HeapFree(hLocalHeap, 0, p);

  0002a	ff 35 00 00 00
	00		 push	 DWORD PTR ?hLocalHeap@Internal@Core@Math@Palmtree@@3PAXA ; Palmtree::Math::Core::Internal::hLocalHeap
  00030	ff 15 00 00 00
	00		 call	 DWORD PTR __imp__HeapFree@12
  00036	5f		 pop	 edi
$LN4@CleanUpNum:

; 392  : #ifdef _LOG_MEMORY
; 393  :             {
; 394  :                 wprintf(L"0x%08lx: unlink 0x%016llx->0x%016llx\n", GetCurrentThreadId(), (unsigned long long)p, (unsigned long long)(block - 1));
; 395  :             }
; 396  : #endif
; 397  :             DeallocateBlock(block, block_count, block_check_code);        }
; 398  :     }

  00037	5d		 pop	 ebp
  00038	c3		 ret	 0
?CleanUpNumber@Internal@Core@Math@Palmtree@@YAXPAU__tag_NUMBER_HEADER@1234@@Z ENDP ; Palmtree::Math::Core::Internal::CleanUpNumber
_TEXT	ENDS
; Function compile flags: /Ogtp
; File z:\sources\lunor\repos\rougemeilland\palmtree.math.core.uint\palmtree.math.core.uint\pmc_memory.cpp
;	COMDAT ?InitializeNumber@Internal@Core@Math@Palmtree@@YAXPAU__tag_NUMBER_HEADER@1234@I@Z
_TEXT	SEGMENT
_check_code$1 = -4					; size = 4
_p$ = 8							; size = 4
_word_count$2 = 12					; size = 4
_bit_count$ = 12					; size = 4
?InitializeNumber@Internal@Core@Math@Palmtree@@YAXPAU__tag_NUMBER_HEADER@1234@I@Z PROC ; Palmtree::Math::Core::Internal::InitializeNumber, COMDAT

; 350  :     {

  00000	55		 push	 ebp
  00001	8b ec		 mov	 ebp, esp
  00003	51		 push	 ecx
  00004	56		 push	 esi
  00005	8b 75 08	 mov	 esi, DWORD PTR _p$[ebp]
  00008	57		 push	 edi

; 351  :         if (bit_count > 0)

  00009	8b 7d 0c	 mov	 edi, DWORD PTR _bit_count$[ebp]
  0000c	85 ff		 test	 edi, edi
  0000e	74 1f		 je	 SHORT $LN2@Initialize

; 352  :         {
; 353  :             __UNIT_TYPE word_count;
; 354  :             __UNIT_TYPE check_code;
; 355  :             __UNIT_TYPE* block = AllocateBlock(bit_count, &word_count, &check_code);

  00010	8d 45 fc	 lea	 eax, DWORD PTR _check_code$1[ebp]
  00013	50		 push	 eax
  00014	8d 45 0c	 lea	 eax, DWORD PTR _word_count$2[ebp]
  00017	50		 push	 eax
  00018	57		 push	 edi
  00019	e8 00 00 00 00	 call	 ?AllocateBlock@Internal@Core@Math@Palmtree@@YAPAIIPAI0@Z ; Palmtree::Math::Core::Internal::AllocateBlock

; 356  :             ClearNumberHeader(p);
; 357  :             p->SIGNATURE1 = PMC_SIGNATURE;
; 358  :             p->SIGNATURE2 = PMC_UINT_SIGNATURE;
; 359  :             p->UNIT_BIT_COUNT = bit_count;
; 360  :             p->BLOCK_COUNT = word_count;

  0001e	8b 4d 0c	 mov	 ecx, DWORD PTR _word_count$2[ebp]
  00021	83 c4 0c	 add	 esp, 12			; 0000000cH
  00024	89 4e 20	 mov	 DWORD PTR [esi+32], ecx

; 361  :             p->BLOCK = block;
; 362  :             p->BLOCK_CHECK_CODE = check_code;

  00027	8b 4d fc	 mov	 ecx, DWORD PTR _check_code$1[ebp]
  0002a	89 4e 28	 mov	 DWORD PTR [esi+40], ecx

; 363  :             p->IS_COMMITTED = false;
; 364  : #ifdef _LOG_MEMORY
; 365  :             {
; 366  :                 wprintf(L"0x%08lx: link 0x%016llx->0x%016llx\n", GetCurrentThreadId(), (unsigned long long)p, (unsigned long long)(block - 1));
; 367  :             }
; 368  : #endif
; 369  :         }
; 370  :         else

  0002d	eb 12		 jmp	 SHORT $LN3@Initialize
$LN2@Initialize:

; 371  :         {
; 372  :             // bit_count  0  0 
; 373  :             ClearNumberHeader(p);
; 374  :             p->SIGNATURE1 = PMC_SIGNATURE;
; 375  :             p->SIGNATURE2 = PMC_UINT_SIGNATURE;
; 376  :             p->UNIT_BIT_COUNT = 0;
; 377  :             p->BLOCK_COUNT = 0;
; 378  :             p->BLOCK = nullptr;
; 379  :             p->BLOCK_CHECK_CODE = 0;
; 380  :             p->IS_COMMITTED = false;

  0002f	33 c0		 xor	 eax, eax
  00031	c7 46 20 00 00
	00 00		 mov	 DWORD PTR [esi+32], 0
  00038	c7 46 28 00 00
	00 00		 mov	 DWORD PTR [esi+40], 0
  0003f	33 ff		 xor	 edi, edi
$LN3@Initialize:

; 381  :         }
; 382  :     }

  00041	c7 06 00 00 00
	00		 mov	 DWORD PTR [esi], 0
  00047	c7 46 04 00 00
	00 00		 mov	 DWORD PTR [esi+4], 0
  0004e	c7 46 10 00 00
	00 00		 mov	 DWORD PTR [esi+16], 0
  00055	c7 46 18 00 00
	00 00		 mov	 DWORD PTR [esi+24], 0
  0005c	c7 46 1c 00 00
	00 00		 mov	 DWORD PTR [esi+28], 0
  00063	c7 46 08 70 4d
	63 49		 mov	 DWORD PTR [esi+8], 1231244656 ; 49634d70H
  0006a	c7 46 0c 55 69
	6e 54		 mov	 DWORD PTR [esi+12], 1416522069 ; 546e6955H
  00071	89 7e 14	 mov	 DWORD PTR [esi+20], edi
  00074	5f		 pop	 edi
  00075	89 46 24	 mov	 DWORD PTR [esi+36], eax
  00078	5e		 pop	 esi
  00079	8b e5		 mov	 esp, ebp
  0007b	5d		 pop	 ebp
  0007c	c3		 ret	 0
?InitializeNumber@Internal@Core@Math@Palmtree@@YAXPAU__tag_NUMBER_HEADER@1234@I@Z ENDP ; Palmtree::Math::Core::Internal::InitializeNumber
_TEXT	ENDS
; Function compile flags: /Ogtp
; File z:\sources\lunor\repos\rougemeilland\palmtree.math.core.uint\palmtree.math.core.uint\pmc_memory.cpp
;	COMDAT ?FillNumberHeader@Internal@Core@Math@Palmtree@@YAXPAU__tag_NUMBER_HEADER@1234@@Z
_TEXT	SEGMENT
_p$ = 8							; size = 4
?FillNumberHeader@Internal@Core@Math@Palmtree@@YAXPAU__tag_NUMBER_HEADER@1234@@Z PROC ; Palmtree::Math::Core::Internal::FillNumberHeader, COMDAT

; 300  :     {

  00000	55		 push	 ebp
  00001	8b ec		 mov	 ebp, esp

; 301  : #ifdef _M_X64
; 302  :         if (sizeof(*p) == sizeof(_UINT64_T) * 10)
; 303  :         {
; 304  :             _UINT64_T* __p = (_UINT64_T*)p;
; 305  :             __p[0] = DEFAULT_MEMORY_DATA;
; 306  :             __p[1] = DEFAULT_MEMORY_DATA;
; 307  :             __p[2] = DEFAULT_MEMORY_DATA;
; 308  :             __p[3] = DEFAULT_MEMORY_DATA;
; 309  :             __p[4] = DEFAULT_MEMORY_DATA;
; 310  :             __p[5] = DEFAULT_MEMORY_DATA;
; 311  :             __p[6] = DEFAULT_MEMORY_DATA;
; 312  :             __p[7] = DEFAULT_MEMORY_DATA;
; 313  :             __p[8] = DEFAULT_MEMORY_DATA;
; 314  :             __p[9] = DEFAULT_MEMORY_DATA;
; 315  :         }
; 316  :         else
; 317  :         {
; 318  : #endif
; 319  :             if (sizeof(*p) == sizeof(_UINT32_T) * 11)
; 320  :             {
; 321  :                 _UINT32_T* __p = (_UINT32_T*)p;
; 322  :                 __p[0] = (_UINT32_T)DEFAULT_MEMORY_DATA;

  00003	8b 45 08	 mov	 eax, DWORD PTR _p$[ebp]
  00006	c7 00 cc cc cc
	cc		 mov	 DWORD PTR [eax], -858993460 ; ccccccccH

; 323  :                 __p[1] = (_UINT32_T)DEFAULT_MEMORY_DATA;

  0000c	c7 40 04 cc cc
	cc cc		 mov	 DWORD PTR [eax+4], -858993460 ; ccccccccH

; 324  :                 __p[2] = (_UINT32_T)DEFAULT_MEMORY_DATA;

  00013	c7 40 08 cc cc
	cc cc		 mov	 DWORD PTR [eax+8], -858993460 ; ccccccccH

; 325  :                 __p[3] = (_UINT32_T)DEFAULT_MEMORY_DATA;

  0001a	c7 40 0c cc cc
	cc cc		 mov	 DWORD PTR [eax+12], -858993460 ; ccccccccH

; 326  :                 __p[4] = (_UINT32_T)DEFAULT_MEMORY_DATA;

  00021	c7 40 10 cc cc
	cc cc		 mov	 DWORD PTR [eax+16], -858993460 ; ccccccccH

; 327  :                 __p[5] = (_UINT32_T)DEFAULT_MEMORY_DATA;

  00028	c7 40 14 cc cc
	cc cc		 mov	 DWORD PTR [eax+20], -858993460 ; ccccccccH

; 328  :                 __p[6] = (_UINT32_T)DEFAULT_MEMORY_DATA;

  0002f	c7 40 18 cc cc
	cc cc		 mov	 DWORD PTR [eax+24], -858993460 ; ccccccccH

; 329  :                 __p[7] = (_UINT32_T)DEFAULT_MEMORY_DATA;

  00036	c7 40 1c cc cc
	cc cc		 mov	 DWORD PTR [eax+28], -858993460 ; ccccccccH

; 330  :                 __p[8] = (_UINT32_T)DEFAULT_MEMORY_DATA;

  0003d	c7 40 20 cc cc
	cc cc		 mov	 DWORD PTR [eax+32], -858993460 ; ccccccccH

; 331  :                 __p[9] = (_UINT32_T)DEFAULT_MEMORY_DATA;

  00044	c7 40 24 cc cc
	cc cc		 mov	 DWORD PTR [eax+36], -858993460 ; ccccccccH

; 332  :                 __p[10] = (_UINT32_T)DEFAULT_MEMORY_DATA;

  0004b	c7 40 28 cc cc
	cc cc		 mov	 DWORD PTR [eax+40], -858993460 ; ccccccccH

; 333  :             }
; 334  : #ifdef _M_X64
; 335  :             else if (sizeof(*p) % sizeof(_UINT64_T) == 0)
; 336  :                 _FILL_MEMORY_64((_UINT64_T*)p, DEFAULT_MEMORY_DATA, sizeof(*p) / sizeof(_UINT64_T));
; 337  : #endif
; 338  :             else if (sizeof(*p) % sizeof(_UINT32_T) == 0)
; 339  :                 _FILL_MEMORY_32((_UINT32_T*)p, (_UINT32_T)DEFAULT_MEMORY_DATA, sizeof(*p) / sizeof(_UINT32_T));
; 340  :             else if (sizeof(*p) % sizeof(_UINT16_T) == 0)
; 341  :                 _FILL_MEMORY_16((_UINT16_T*)p, (_UINT16_T)DEFAULT_MEMORY_DATA, sizeof(*p) / sizeof(_UINT16_T));
; 342  :             else
; 343  :                 _FILL_MEMORY_BYTE(p, (unsigned char)DEFAULT_MEMORY_DATA, sizeof(*p));
; 344  : #ifdef _M_X64
; 345  :         }
; 346  : #endif
; 347  :     }

  00052	5d		 pop	 ebp
  00053	c3		 ret	 0
?FillNumberHeader@Internal@Core@Math@Palmtree@@YAXPAU__tag_NUMBER_HEADER@1234@@Z ENDP ; Palmtree::Math::Core::Internal::FillNumberHeader
_TEXT	ENDS
; Function compile flags: /Ogtp
; File z:\sources\lunor\repos\rougemeilland\palmtree.math.core.uint\palmtree.math.core.uint\pmc_memory.cpp
;	COMDAT ?ClearNumberHeader@Internal@Core@Math@Palmtree@@YAXPAU__tag_NUMBER_HEADER@1234@@Z
_TEXT	SEGMENT
_p$ = 8							; size = 4
?ClearNumberHeader@Internal@Core@Math@Palmtree@@YAXPAU__tag_NUMBER_HEADER@1234@@Z PROC ; Palmtree::Math::Core::Internal::ClearNumberHeader, COMDAT

; 250  :     {

  00000	55		 push	 ebp
  00001	8b ec		 mov	 ebp, esp

; 251  : #ifdef _M_X64
; 252  :         if (sizeof(*p) == sizeof(_UINT64_T) * 10)
; 253  :         {
; 254  :             _UINT64_T* __p = (_UINT64_T*)p;
; 255  :             __p[0] = 0;
; 256  :             __p[1] = 0;
; 257  :             __p[2] = 0;
; 258  :             __p[3] = 0;
; 259  :             __p[4] = 0;
; 260  :             __p[5] = 0;
; 261  :             __p[6] = 0;
; 262  :             __p[7] = 0;
; 263  :             __p[8] = 0;
; 264  :             __p[9] = 0;
; 265  :         }
; 266  :         else
; 267  :         {
; 268  : #endif
; 269  :             if (sizeof(*p) == sizeof(_UINT32_T) * 11)
; 270  :             {
; 271  :                 _UINT32_T* __p = (_UINT32_T*)p;
; 272  :                 __p[0] = 0;

  00003	8b 45 08	 mov	 eax, DWORD PTR _p$[ebp]
  00006	c7 00 00 00 00
	00		 mov	 DWORD PTR [eax], 0

; 273  :                 __p[1] = 0;

  0000c	c7 40 04 00 00
	00 00		 mov	 DWORD PTR [eax+4], 0

; 274  :                 __p[2] = 0;

  00013	c7 40 08 00 00
	00 00		 mov	 DWORD PTR [eax+8], 0

; 275  :                 __p[3] = 0;

  0001a	c7 40 0c 00 00
	00 00		 mov	 DWORD PTR [eax+12], 0

; 276  :                 __p[4] = 0;

  00021	c7 40 10 00 00
	00 00		 mov	 DWORD PTR [eax+16], 0

; 277  :                 __p[5] = 0;

  00028	c7 40 14 00 00
	00 00		 mov	 DWORD PTR [eax+20], 0

; 278  :                 __p[6] = 0;

  0002f	c7 40 18 00 00
	00 00		 mov	 DWORD PTR [eax+24], 0

; 279  :                 __p[7] = 0;

  00036	c7 40 1c 00 00
	00 00		 mov	 DWORD PTR [eax+28], 0

; 280  :                 __p[8] = 0;

  0003d	c7 40 20 00 00
	00 00		 mov	 DWORD PTR [eax+32], 0

; 281  :                 __p[9] = 0;

  00044	c7 40 24 00 00
	00 00		 mov	 DWORD PTR [eax+36], 0

; 282  :                 __p[10] = 0;

  0004b	c7 40 28 00 00
	00 00		 mov	 DWORD PTR [eax+40], 0

; 283  :             }
; 284  : #ifdef _M_X64
; 285  :             else if (sizeof(*p) % sizeof(_UINT64_T) == 0)
; 286  :                 _ZERO_MEMORY_64((_UINT64_T*)p, sizeof(*p) / sizeof(_UINT64_T));
; 287  : #endif
; 288  :             else if (sizeof(*p) % sizeof(_UINT32_T) == 0)
; 289  :                 _ZERO_MEMORY_32((_UINT32_T*)p, sizeof(*p) / sizeof(_UINT32_T));
; 290  :             else if (sizeof(*p) % sizeof(_UINT16_T) == 0)
; 291  :                 _ZERO_MEMORY_16((_UINT16_T*)p, sizeof(*p) / sizeof(_UINT16_T));
; 292  :             else
; 293  :                 _ZERO_MEMORY_BYTE(p, sizeof(*p));
; 294  : #ifdef _M_X64
; 295  :         }
; 296  : #endif
; 297  :     }

  00052	5d		 pop	 ebp
  00053	c3		 ret	 0
?ClearNumberHeader@Internal@Core@Math@Palmtree@@YAXPAU__tag_NUMBER_HEADER@1234@@Z ENDP ; Palmtree::Math::Core::Internal::ClearNumberHeader
_TEXT	ENDS
; Function compile flags: /Ogtp
; File z:\sources\lunor\repos\rougemeilland\palmtree.math.core.uint\palmtree.math.core.uint\pmc_memory.cpp
;	COMDAT ?CheckBlock@Internal@Core@Math@Palmtree@@YAXPAIII@Z
_TEXT	SEGMENT
$T1 = -28						; size = 28
_buffer$ = 8						; size = 4
_count$ = 12						; size = 4
_code$ = 16						; size = 4
?CheckBlock@Internal@Core@Math@Palmtree@@YAXPAIII@Z PROC ; Palmtree::Math::Core::Internal::CheckBlock, COMDAT

; 232  :     {

  00000	55		 push	 ebp
  00001	8b ec		 mov	 ebp, esp

; 233  : //#ifdef _DEBUG
; 234  :         if (buffer == nullptr)

  00003	8b 4d 08	 mov	 ecx, DWORD PTR _buffer$[ebp]
  00006	83 ec 1c	 sub	 esp, 28			; 0000001cH
  00009	85 c9		 test	 ecx, ecx
  0000b	74 17		 je	 SHORT $LN4@CheckBlock

; 235  :             return;
; 236  :         --buffer;
; 237  :         __UNIT_TYPE words = buffer[0];

  0000d	8b 51 fc	 mov	 edx, DWORD PTR [ecx-4]

; 238  :         if (words != count)

  00010	3b 55 0c	 cmp	 edx, DWORD PTR _count$[ebp]
  00013	75 13		 jne	 SHORT $LN9@CheckBlock

; 240  :         __UNIT_TYPE code_actual = buffer[words + 1];
; 241  :         __UNIT_TYPE code_desired = code;
; 242  :         if (code_desired != code_actual)

  00015	8b 45 10	 mov	 eax, DWORD PTR _code$[ebp]
  00018	3b 04 91	 cmp	 eax, DWORD PTR [ecx+edx*4]
  0001b	74 07		 je	 SHORT $LN4@CheckBlock

; 243  :             throw BadBufferException(L"", L"pmc_memory.cpp;CheckBlockLight;2");

  0001d	68 00 00 00 00	 push	 OFFSET ??_C@_1EC@KLIFJDDK@?$AAp?$AAm?$AAc?$AA_?$AAm?$AAe?$AAm?$AAo?$AAr?$AAy?$AA?4?$AAc?$AAp?$AAp?$AA?$DL@
  00022	eb 09		 jmp	 SHORT $LN7@CheckBlock
$LN4@CheckBlock:

; 244  : //#else
; 245  : //        return;
; 246  : //#endif
; 247  :     }

  00024	8b e5		 mov	 esp, ebp
  00026	5d		 pop	 ebp
  00027	c3		 ret	 0
$LN9@CheckBlock:

; 239  :             throw BadBufferException(L"", L"pmc_memory.cpp;CheckBlockLight;1");

  00028	68 00 00 00 00	 push	 OFFSET ??_C@_1EC@LJDADMNE@?$AAp?$AAm?$AAc?$AA_?$AAm?$AAe?$AAm?$AAo?$AAr?$AAy?$AA?4?$AAc?$AAp?$AAp?$AA?$DL@
$LN7@CheckBlock:

; 244  : //#else
; 245  : //        return;
; 246  : //#endif
; 247  :     }

  0002d	68 00 00 00 00	 push	 OFFSET ??_C@_1CE@JCIJLGOL@?$PP?a?$PP?b?$PP?j?$AA?$BI?$PP?$NP?$AAn?$AA?$AN?$AAt?$AA?$AI?$PP?$JC?$AA?$BM?$PP?z?$AAW?$AA?$HO?$AAW@
  00032	8d 4d e4	 lea	 ecx, DWORD PTR $T1[ebp]
  00035	e8 00 00 00 00	 call	 ??0BadBufferException@Internal@Core@Math@Palmtree@@QAE@PB_W0@Z ; Palmtree::Math::Core::Internal::BadBufferException::BadBufferException
  0003a	68 00 00 00 00	 push	 OFFSET __TI2?AVBadBufferException@Internal@Core@Math@Palmtree@@
  0003f	8d 45 e4	 lea	 eax, DWORD PTR $T1[ebp]
  00042	50		 push	 eax
  00043	e8 00 00 00 00	 call	 __CxxThrowException@8
$LN6@CheckBlock:
  00048	cc		 int	 3
?CheckBlock@Internal@Core@Math@Palmtree@@YAXPAIII@Z ENDP ; Palmtree::Math::Core::Internal::CheckBlock
_TEXT	ENDS
; Function compile flags: /Ogtp
; File z:\sources\lunor\repos\rougemeilland\palmtree.math.core.uint\palmtree.math.core.uint\pmc_memory.cpp
; File z:\sources\lunor\repos\rougemeilland\palmtree.math.core.uint\palmtree.math.core.uint\pmc_inline_func.h
; File z:\sources\lunor\repos\rougemeilland\palmtree.math.core.uint\palmtree.math.core.uint\pmc_memory.cpp
; File z:\sources\lunor\repos\rougemeilland\palmtree.math.core.uint\palmtree.math.core.uint\pmc_inline_func.h
; File z:\sources\lunor\repos\rougemeilland\palmtree.math.core.uint\palmtree.math.core.uint\pmc_memory.cpp
;	COMDAT ?DeallocateBlock@Internal@Core@Math@Palmtree@@YAXPAIII@Z
_TEXT	SEGMENT
_buffer$ = 8						; size = 4
_buffer_words$ = 12					; size = 4
_check_code$ = 16					; size = 4
?DeallocateBlock@Internal@Core@Math@Palmtree@@YAXPAIII@Z PROC ; Palmtree::Math::Core::Internal::DeallocateBlock, COMDAT

; 209  :     {

  00000	55		 push	 ebp
  00001	8b ec		 mov	 ebp, esp

; 210  :         if (buffer == nullptr)

  00003	8b 55 08	 mov	 edx, DWORD PTR _buffer$[ebp]
  00006	85 d2		 test	 edx, edx
  00008	74 23		 je	 SHORT $LN1@Deallocate

; 211  :             return;
; 212  :         __UNIT_TYPE* p = buffer - 1;
; 213  : #ifdef _DEBUG
; 214  :         if (*p != buffer_words)
; 215  :             throw BadBufferException(L"", L"pmc_memory.cpp;DeallocateBlock;1");
; 216  :         if (p[buffer_words+1] != check_code)
; 217  :             throw BadBufferException(L"", L"pmc_memory.cpp;DeallocateBlock;2");
; 218  : #endif
; 219  :         // 
; 220  :         _FILL_MEMORY_UNIT(p, DEFAULT_MEMORY_DATA, buffer_words + 2);

  0000a	8b 4d 0c	 mov	 ecx, DWORD PTR _buffer_words$[ebp]
  0000d	83 c2 fc	 add	 edx, -4			; fffffffcH
  00010	57		 push	 edi

; 222  :         HeapFree(hLocalHeap, 0, p);

  00011	52		 push	 edx
  00012	83 c1 02	 add	 ecx, 2
; File z:\sources\lunor\repos\rougemeilland\palmtree.math.core.uint\palmtree.math.core.uint\pmc_inline_func.h

; 131  :             __stosd((unsigned long*)d, x, (unsigned long)count);

  00015	8b fa		 mov	 edi, edx
  00017	b8 cc cc cc cc	 mov	 eax, -858993460		; ccccccccH
; File z:\sources\lunor\repos\rougemeilland\palmtree.math.core.uint\palmtree.math.core.uint\pmc_memory.cpp

; 222  :         HeapFree(hLocalHeap, 0, p);

  0001c	6a 00		 push	 0
; File z:\sources\lunor\repos\rougemeilland\palmtree.math.core.uint\palmtree.math.core.uint\pmc_inline_func.h

; 131  :             __stosd((unsigned long*)d, x, (unsigned long)count);

  0001e	f3 ab		 rep stosd
; File z:\sources\lunor\repos\rougemeilland\palmtree.math.core.uint\palmtree.math.core.uint\pmc_memory.cpp

; 222  :         HeapFree(hLocalHeap, 0, p);

  00020	ff 35 00 00 00
	00		 push	 DWORD PTR ?hLocalHeap@Internal@Core@Math@Palmtree@@3PAXA ; Palmtree::Math::Core::Internal::hLocalHeap
  00026	ff 15 00 00 00
	00		 call	 DWORD PTR __imp__HeapFree@12
  0002c	5f		 pop	 edi
$LN1@Deallocate:

; 223  : #ifdef _LOG_MEMORY
; 224  :         {
; 225  :             wprintf(L"0x%08lx: delete block 0x%016llx\n", GetCurrentThreadId(), (unsigned long long)p);
; 226  :         }
; 227  : #endif
; 228  :     }

  0002d	5d		 pop	 ebp
  0002e	c3		 ret	 0
?DeallocateBlock@Internal@Core@Math@Palmtree@@YAXPAIII@Z ENDP ; Palmtree::Math::Core::Internal::DeallocateBlock
_TEXT	ENDS
; Function compile flags: /Ogtp
; File z:\sources\lunor\repos\rougemeilland\palmtree.math.core.uint\palmtree.math.core.uint\pmc_memory.cpp
; File z:\sources\lunor\repos\rougemeilland\palmtree.math.core.uint\palmtree.math.core.uint\pmc_inline_func.h
; File z:\sources\lunor\repos\rougemeilland\palmtree.math.core.uint\palmtree.math.core.uint\pmc_memory.cpp
;	COMDAT ?AllocateBlock@Internal@Core@Math@Palmtree@@YAPAIIPAI0@Z
_TEXT	SEGMENT
$T1 = -24						; size = 24
_bits$ = 8						; size = 4
_allocated_block_words$ = 12				; size = 4
_code$ = 16						; size = 4
?AllocateBlock@Internal@Core@Math@Palmtree@@YAPAIIPAI0@Z PROC ; Palmtree::Math::Core::Internal::AllocateBlock, COMDAT

; 163  :     {

  00000	55		 push	 ebp
  00001	8b ec		 mov	 ebp, esp
  00003	83 ec 18	 sub	 esp, 24			; 00000018H
  00006	56		 push	 esi
; File z:\sources\lunor\repos\rougemeilland\palmtree.math.core.uint\palmtree.math.core.uint\pmc_inline_func.h

; 157  :             return ((u + v - 1) / v);

  00007	8b 75 08	 mov	 esi, DWORD PTR _bits$[ebp]
  0000a	8d 76 1f	 lea	 esi, DWORD PTR [esi+31]
  0000d	c1 ee 05	 shr	 esi, 5
; File z:\sources\lunor\repos\rougemeilland\palmtree.math.core.uint\palmtree.math.core.uint\pmc_memory.cpp

; 170  :         __UNIT_TYPE bytes = words2 * __UNIT_TYPE_BYTE_COUNT;

  00010	8d 04 b5 08 00
	00 00		 lea	 eax, DWORD PTR [esi*4+8]

; 171  :         __UNIT_TYPE* buffer = (__UNIT_TYPE*)HeapAlloc(hLocalHeap, HEAP_ZERO_MEMORY, bytes);

  00017	50		 push	 eax
  00018	6a 08		 push	 8
  0001a	ff 35 00 00 00
	00		 push	 DWORD PTR ?hLocalHeap@Internal@Core@Math@Palmtree@@3PAXA ; Palmtree::Math::Core::Internal::hLocalHeap
  00020	ff 15 00 00 00
	00		 call	 DWORD PTR __imp__HeapAlloc@12
  00026	8b c8		 mov	 ecx, eax

; 172  :         if (buffer == nullptr)

  00028	85 c9		 test	 ecx, ecx
  0002a	74 20		 je	 SHORT $LN8@AllocateBl

; 174  : #ifdef _LOG_MEMORY
; 175  :         {
; 176  :             wprintf(L"0x%08lx: new block 0x%016llx\n", GetCurrentThreadId(), (unsigned long long)buffer);
; 177  :         }
; 178  : #endif
; 179  :         buffer[0] = words1;
; 180  :         *allocated_block_words = words1;

  0002c	8b 45 0c	 mov	 eax, DWORD PTR _allocated_block_words$[ebp]
  0002f	89 31		 mov	 DWORD PTR [ecx], esi
  00031	89 30		 mov	 DWORD PTR [eax], esi

; 181  : #ifdef _DEBUG
; 182  :         // 
; 183  : #ifdef _M_IX86
; 184  :         __UNIT_TYPE r = GetTickCount();
; 185  : #elif defined(_M_X64)
; 186  : #ifdef _MSC_VER
; 187  :         __UNIT_TYPE r = GetTickCount64();
; 188  : #elif defined(__GNUC__)
; 189  :         _UINT32_T temp = GetTickCount();
; 190  :         __UNIT_TYPE r = _FROMWORDTODWORD(temp, temp);
; 191  : #else
; 192  : #error unknown compiler
; 193  : #endif
; 194  : #else
; 195  : #error unknown platform
; 196  : #endif
; 197  :         __UNIT_TYPE check_code = CHECK_CODE_INIT | r;
; 198  : #else
; 199  :         __UNIT_TYPE check_code = 0;
; 200  : #endif
; 201  :         buffer[words1 + 1] = check_code;
; 202  :         *code = check_code;

  00033	8b 45 10	 mov	 eax, DWORD PTR _code$[ebp]
  00036	c7 44 b1 04 00
	00 00 00	 mov	 DWORD PTR [ecx+esi*4+4], 0

; 203  :         return (&buffer[1]);

  0003e	5e		 pop	 esi
  0003f	c7 00 00 00 00
	00		 mov	 DWORD PTR [eax], 0
  00045	8d 41 04	 lea	 eax, DWORD PTR [ecx+4]

; 204  :     }

  00048	8b e5		 mov	 esp, ebp
  0004a	5d		 pop	 ebp
  0004b	c3		 ret	 0
$LN8@AllocateBl:

; 173  :             throw NotEnoughMemoryException(L"");

  0004c	68 00 00 00 00	 push	 OFFSET ??_C@_1CE@PIPAACFA@?$PP?R?$PP?$PM?$PP?W?$PP?a?$PP?b?$PP?j?$AA?$BI?$PP?$NP?$AAL?$AA?$AN?$PP?$LD?$AAW?$AAf?$AAD?$AA?$HO@
  00051	8d 4d e8	 lea	 ecx, DWORD PTR $T1[ebp]
  00054	e8 00 00 00 00	 call	 ??0NotEnoughMemoryException@Internal@Core@Math@Palmtree@@QAE@PB_W@Z ; Palmtree::Math::Core::Internal::NotEnoughMemoryException::NotEnoughMemoryException
  00059	68 00 00 00 00	 push	 OFFSET __TI2?AVNotEnoughMemoryException@Internal@Core@Math@Palmtree@@
  0005e	8d 45 e8	 lea	 eax, DWORD PTR $T1[ebp]
  00061	50		 push	 eax
  00062	e8 00 00 00 00	 call	 __CxxThrowException@8
$LN6@AllocateBl:
  00067	cc		 int	 3
?AllocateBlock@Internal@Core@Math@Palmtree@@YAPAIIPAI0@Z ENDP ; Palmtree::Math::Core::Internal::AllocateBlock
_TEXT	ENDS
; Function compile flags: /Ogtp
; File z:\sources\lunor\repos\rougemeilland\palmtree.math.core.uint\palmtree.math.core.uint\pmc_memory.cpp
; File z:\sources\lunor\repos\rougemeilland\palmtree.math.core.uint\palmtree.math.core.uint\pmc_inline_func.h
; File z:\sources\lunor\repos\rougemeilland\palmtree.math.core.uint\palmtree.math.core.uint\pmc_memory.cpp
; File z:\sources\lunor\repos\rougemeilland\palmtree.math.core.uint\palmtree.math.core.uint\pmc_inline_func.h
; File z:\sources\lunor\repos\rougemeilland\palmtree.math.core.uint\palmtree.math.core.uint\pmc_memory.cpp
; File z:\sources\lunor\repos\rougemeilland\palmtree.math.core.uint\palmtree.math.core.uint\pmc_inline_func.h
; File z:\sources\lunor\repos\rougemeilland\palmtree.math.core.uint\palmtree.math.core.uint\pmc_memory.cpp
; File z:\sources\lunor\repos\rougemeilland\palmtree.math.core.uint\palmtree.math.core.uint\pmc_inline_func.h
; File z:\sources\lunor\repos\rougemeilland\palmtree.math.core.uint\palmtree.math.core.uint\pmc_memory.cpp
; File z:\sources\lunor\repos\rougemeilland\palmtree.math.core.uint\palmtree.math.core.uint\pmc_inline_func.h
; File z:\sources\lunor\repos\rougemeilland\palmtree.math.core.uint\palmtree.math.core.uint\pmc_memory.cpp
; File z:\sources\lunor\repos\rougemeilland\palmtree.math.core.uint\palmtree.math.core.uint\pmc_inline_func.h
; File z:\sources\lunor\repos\rougemeilland\palmtree.math.core.uint\palmtree.math.core.uint\pmc_memory.cpp
; File z:\sources\lunor\repos\rougemeilland\palmtree.math.core.uint\palmtree.math.core.uint\pmc_inline_func.h
; File z:\sources\lunor\repos\rougemeilland\palmtree.math.core.uint\palmtree.math.core.uint\pmc_memory.cpp
; File z:\sources\lunor\repos\rougemeilland\palmtree.math.core.uint\palmtree.math.core.uint\pmc_inline_func.h
; File z:\sources\lunor\repos\rougemeilland\palmtree.math.core.uint\palmtree.math.core.uint\pmc_memory.cpp
; File z:\sources\lunor\repos\rougemeilland\palmtree.math.core.uint\palmtree.math.core.uint\pmc_inline_func.h
; File z:\sources\lunor\repos\rougemeilland\palmtree.math.core.uint\palmtree.math.core.uint\pmc_memory.cpp
; File z:\sources\lunor\repos\rougemeilland\palmtree.math.core.uint\palmtree.math.core.uint\pmc_inline_func.h
; File z:\sources\lunor\repos\rougemeilland\palmtree.math.core.uint\palmtree.math.core.uint\pmc_memory.cpp
; File z:\sources\lunor\repos\rougemeilland\palmtree.math.core.uint\palmtree.math.core.uint\pmc_inline_func.h
; File z:\sources\lunor\repos\rougemeilland\palmtree.math.core.uint\palmtree.math.core.uint\pmc_memory.cpp
; File z:\sources\lunor\repos\rougemeilland\palmtree.math.core.uint\palmtree.math.core.uint\pmc_inline_func.h
; File z:\sources\lunor\repos\rougemeilland\palmtree.math.core.uint\palmtree.math.core.uint\pmc_memory.cpp
; File z:\sources\lunor\repos\rougemeilland\palmtree.math.core.uint\palmtree.math.core.uint\pmc_inline_func.h
; File z:\sources\lunor\repos\rougemeilland\palmtree.math.core.uint\palmtree.math.core.uint\pmc_memory.cpp
; File z:\sources\lunor\repos\rougemeilland\palmtree.math.core.uint\palmtree.math.core.uint\pmc_inline_func.h
; File z:\sources\lunor\repos\rougemeilland\palmtree.math.core.uint\palmtree.math.core.uint\pmc_memory.cpp
; File z:\sources\lunor\repos\rougemeilland\palmtree.math.core.uint\palmtree.math.core.uint\pmc_inline_func.h
; File z:\sources\lunor\repos\rougemeilland\palmtree.math.core.uint\palmtree.math.core.uint\pmc_memory.cpp
; File z:\sources\lunor\repos\rougemeilland\palmtree.math.core.uint\palmtree.math.core.uint\pmc_inline_func.h
; File z:\sources\lunor\repos\rougemeilland\palmtree.math.core.uint\palmtree.math.core.uint\pmc_memory.cpp
; File z:\sources\lunor\repos\rougemeilland\palmtree.math.core.uint\palmtree.math.core.uint\pmc_inline_func.h
; File z:\sources\lunor\repos\rougemeilland\palmtree.math.core.uint\palmtree.math.core.uint\pmc_memory.cpp
; File z:\sources\lunor\repos\rougemeilland\palmtree.math.core.uint\palmtree.math.core.uint\pmc_inline_func.h
; File z:\sources\lunor\repos\rougemeilland\palmtree.math.core.uint\palmtree.math.core.uint\pmc_memory.cpp
; File z:\sources\lunor\repos\rougemeilland\palmtree.math.core.uint\palmtree.math.core.uint\pmc_inline_func.h
; File z:\sources\lunor\repos\rougemeilland\palmtree.math.core.uint\palmtree.math.core.uint\pmc_memory.cpp
; File z:\sources\lunor\repos\rougemeilland\palmtree.math.core.uint\palmtree.math.core.uint\pmc_inline_func.h
; File z:\sources\lunor\repos\rougemeilland\palmtree.math.core.uint\palmtree.math.core.uint\pmc_memory.cpp
; File z:\sources\lunor\repos\rougemeilland\palmtree.math.core.uint\palmtree.math.core.uint\pmc_inline_func.h
; File z:\sources\lunor\repos\rougemeilland\palmtree.math.core.uint\palmtree.math.core.uint\pmc_memory.cpp
; File z:\sources\lunor\repos\rougemeilland\palmtree.math.core.uint\palmtree.math.core.uint\pmc_inline_func.h
; File z:\sources\lunor\repos\rougemeilland\palmtree.math.core.uint\palmtree.math.core.uint\pmc_memory.cpp
; File z:\sources\lunor\repos\rougemeilland\palmtree.math.core.uint\palmtree.math.core.uint\pmc_inline_func.h
; File z:\sources\lunor\repos\rougemeilland\palmtree.math.core.uint\palmtree.math.core.uint\pmc_memory.cpp
; File z:\sources\lunor\repos\rougemeilland\palmtree.math.core.uint\palmtree.math.core.uint\pmc_inline_func.h
; File z:\sources\lunor\repos\rougemeilland\palmtree.math.core.uint\palmtree.math.core.uint\pmc_memory.cpp
; File z:\sources\lunor\repos\rougemeilland\palmtree.math.core.uint\palmtree.math.core.uint\pmc_inline_func.h
; File z:\sources\lunor\repos\rougemeilland\palmtree.math.core.uint\palmtree.math.core.uint\pmc_memory.cpp
; File z:\sources\lunor\repos\rougemeilland\palmtree.math.core.uint\palmtree.math.core.uint\pmc_inline_func.h
; File z:\sources\lunor\repos\rougemeilland\palmtree.math.core.uint\palmtree.math.core.uint\pmc_memory.cpp
; File z:\sources\lunor\repos\rougemeilland\palmtree.math.core.uint\palmtree.math.core.uint\pmc_inline_func.h
; File z:\sources\lunor\repos\rougemeilland\palmtree.math.core.uint\palmtree.math.core.uint\pmc_memory.cpp
; File z:\sources\lunor\repos\rougemeilland\palmtree.math.core.uint\palmtree.math.core.uint\pmc_inline_func.h
; File z:\sources\lunor\repos\rougemeilland\palmtree.math.core.uint\palmtree.math.core.uint\pmc_memory.cpp
; File z:\sources\lunor\repos\rougemeilland\palmtree.math.core.uint\palmtree.math.core.uint\pmc_inline_func.h
; File z:\sources\lunor\repos\rougemeilland\palmtree.math.core.uint\palmtree.math.core.uint\pmc_memory.cpp
; File z:\sources\lunor\repos\rougemeilland\palmtree.math.core.uint\palmtree.math.core.uint\pmc_inline_func.h
; File z:\sources\lunor\repos\rougemeilland\palmtree.math.core.uint\palmtree.math.core.uint\pmc_memory.cpp
; File z:\sources\lunor\repos\rougemeilland\palmtree.math.core.uint\palmtree.math.core.uint\pmc_inline_func.h
; File z:\sources\lunor\repos\rougemeilland\palmtree.math.core.uint\palmtree.math.core.uint\pmc_memory.cpp
; File z:\sources\lunor\repos\rougemeilland\palmtree.math.core.uint\palmtree.math.core.uint\pmc_inline_func.h
; File z:\sources\lunor\repos\rougemeilland\palmtree.math.core.uint\palmtree.math.core.uint\pmc_memory.cpp
; File z:\sources\lunor\repos\rougemeilland\palmtree.math.core.uint\palmtree.math.core.uint\pmc_inline_func.h
; File z:\sources\lunor\repos\rougemeilland\palmtree.math.core.uint\palmtree.math.core.uint\pmc_memory.cpp
; File z:\sources\lunor\repos\rougemeilland\palmtree.math.core.uint\palmtree.math.core.uint\pmc_inline_func.h
; File z:\sources\lunor\repos\rougemeilland\palmtree.math.core.uint\palmtree.math.core.uint\pmc_memory.cpp
; File z:\sources\lunor\repos\rougemeilland\palmtree.math.core.uint\palmtree.math.core.uint\pmc_inline_func.h
; File z:\sources\lunor\repos\rougemeilland\palmtree.math.core.uint\palmtree.math.core.uint\pmc_memory.cpp
; File z:\sources\lunor\repos\rougemeilland\palmtree.math.core.uint\palmtree.math.core.uint\pmc_inline_func.h
; File z:\sources\lunor\repos\rougemeilland\palmtree.math.core.uint\palmtree.math.core.uint\pmc_memory.cpp
; File z:\sources\lunor\repos\rougemeilland\palmtree.math.core.uint\palmtree.math.core.uint\pmc_inline_func.h
; File z:\sources\lunor\repos\rougemeilland\palmtree.math.core.uint\palmtree.math.core.uint\pmc_memory.cpp
; File z:\sources\lunor\repos\rougemeilland\palmtree.math.core.uint\palmtree.math.core.uint\pmc_inline_func.h
; File z:\sources\lunor\repos\rougemeilland\palmtree.math.core.uint\palmtree.math.core.uint\pmc_memory.cpp
; File z:\sources\lunor\repos\rougemeilland\palmtree.math.core.uint\palmtree.math.core.uint\pmc_inline_func.h
; File z:\sources\lunor\repos\rougemeilland\palmtree.math.core.uint\palmtree.math.core.uint\pmc_memory.cpp
; File z:\sources\lunor\repos\rougemeilland\palmtree.math.core.uint\palmtree.math.core.uint\pmc_inline_func.h
; File z:\sources\lunor\repos\rougemeilland\palmtree.math.core.uint\palmtree.math.core.uint\pmc_memory.cpp
; File z:\sources\lunor\repos\rougemeilland\palmtree.math.core.uint\palmtree.math.core.uint\pmc_inline_func.h
; File z:\sources\lunor\repos\rougemeilland\palmtree.math.core.uint\palmtree.math.core.uint\pmc_memory.cpp
; File z:\sources\lunor\repos\rougemeilland\palmtree.math.core.uint\palmtree.math.core.uint\pmc_inline_func.h
; File z:\sources\lunor\repos\rougemeilland\palmtree.math.core.uint\palmtree.math.core.uint\pmc_memory.cpp
; File z:\sources\lunor\repos\rougemeilland\palmtree.math.core.uint\palmtree.math.core.uint\pmc_inline_func.h
; File z:\sources\lunor\repos\rougemeilland\palmtree.math.core.uint\palmtree.math.core.uint\pmc_memory.cpp
; File z:\sources\lunor\repos\rougemeilland\palmtree.math.core.uint\palmtree.math.core.uint\pmc_inline_func.h
; File z:\sources\lunor\repos\rougemeilland\palmtree.math.core.uint\palmtree.math.core.uint\pmc_memory.cpp
; File z:\sources\lunor\repos\rougemeilland\palmtree.math.core.uint\palmtree.math.core.uint\pmc_inline_func.h
; File z:\sources\lunor\repos\rougemeilland\palmtree.math.core.uint\palmtree.math.core.uint\pmc_memory.cpp
; File z:\sources\lunor\repos\rougemeilland\palmtree.math.core.uint\palmtree.math.core.uint\pmc_inline_func.h
; File z:\sources\lunor\repos\rougemeilland\palmtree.math.core.uint\palmtree.math.core.uint\pmc_memory.cpp
; File z:\sources\lunor\repos\rougemeilland\palmtree.math.core.uint\palmtree.math.core.uint\pmc_inline_func.h
; File z:\sources\lunor\repos\rougemeilland\palmtree.math.core.uint\palmtree.math.core.uint\pmc_memory.cpp
; File z:\sources\lunor\repos\rougemeilland\palmtree.math.core.uint\palmtree.math.core.uint\pmc_inline_func.h
; File z:\sources\lunor\repos\rougemeilland\palmtree.math.core.uint\palmtree.math.core.uint\pmc_memory.cpp
; File z:\sources\lunor\repos\rougemeilland\palmtree.math.core.uint\palmtree.math.core.uint\pmc_inline_func.h
; File z:\sources\lunor\repos\rougemeilland\palmtree.math.core.uint\palmtree.math.core.uint\pmc_memory.cpp
; File z:\sources\lunor\repos\rougemeilland\palmtree.math.core.uint\palmtree.math.core.uint\pmc_inline_func.h
; File z:\sources\lunor\repos\rougemeilland\palmtree.math.core.uint\palmtree.math.core.uint\pmc_memory.cpp
; File z:\sources\lunor\repos\rougemeilland\palmtree.math.core.uint\palmtree.math.core.uint\pmc_inline_func.h
; File z:\sources\lunor\repos\rougemeilland\palmtree.math.core.uint\palmtree.math.core.uint\pmc_memory.cpp
; File z:\sources\lunor\repos\rougemeilland\palmtree.math.core.uint\palmtree.math.core.uint\pmc_inline_func.h
; File z:\sources\lunor\repos\rougemeilland\palmtree.math.core.uint\palmtree.math.core.uint\pmc_memory.cpp
; File z:\sources\lunor\repos\rougemeilland\palmtree.math.core.uint\palmtree.math.core.uint\pmc_inline_func.h
; File z:\sources\lunor\repos\rougemeilland\palmtree.math.core.uint\palmtree.math.core.uint\pmc_memory.cpp
; File z:\sources\lunor\repos\rougemeilland\palmtree.math.core.uint\palmtree.math.core.uint\pmc_inline_func.h
; File z:\sources\lunor\repos\rougemeilland\palmtree.math.core.uint\palmtree.math.core.uint\pmc_memory.cpp
; File z:\sources\lunor\repos\rougemeilland\palmtree.math.core.uint\palmtree.math.core.uint\pmc_inline_func.h
; File z:\sources\lunor\repos\rougemeilland\palmtree.math.core.uint\palmtree.math.core.uint\pmc_memory.cpp
; File z:\sources\lunor\repos\rougemeilland\palmtree.math.core.uint\palmtree.math.core.uint\pmc_inline_func.h
; File z:\sources\lunor\repos\rougemeilland\palmtree.math.core.uint\palmtree.math.core.uint\pmc_memory.cpp
; File z:\sources\lunor\repos\rougemeilland\palmtree.math.core.uint\palmtree.math.core.uint\pmc_inline_func.h
; File z:\sources\lunor\repos\rougemeilland\palmtree.math.core.uint\palmtree.math.core.uint\pmc_memory.cpp
; File z:\sources\lunor\repos\rougemeilland\palmtree.math.core.uint\palmtree.math.core.uint\pmc_inline_func.h
; File z:\sources\lunor\repos\rougemeilland\palmtree.math.core.uint\palmtree.math.core.uint\pmc_memory.cpp
; File z:\sources\lunor\repos\rougemeilland\palmtree.math.core.uint\palmtree.math.core.uint\pmc_inline_func.h
; File z:\sources\lunor\repos\rougemeilland\palmtree.math.core.uint\palmtree.math.core.uint\pmc_memory.cpp
; File z:\sources\lunor\repos\rougemeilland\palmtree.math.core.uint\palmtree.math.core.uint\pmc_inline_func.h
; File z:\sources\lunor\repos\rougemeilland\palmtree.math.core.uint\palmtree.math.core.uint\pmc_memory.cpp
; File z:\sources\lunor\repos\rougemeilland\palmtree.math.core.uint\palmtree.math.core.uint\pmc_inline_func.h
; File z:\sources\lunor\repos\rougemeilland\palmtree.math.core.uint\palmtree.math.core.uint\pmc_memory.cpp
; File z:\sources\lunor\repos\rougemeilland\palmtree.math.core.uint\palmtree.math.core.uint\pmc_inline_func.h
; File z:\sources\lunor\repos\rougemeilland\palmtree.math.core.uint\palmtree.math.core.uint\pmc_memory.cpp
; File z:\sources\lunor\repos\rougemeilland\palmtree.math.core.uint\palmtree.math.core.uint\pmc_inline_func.h
; File z:\sources\lunor\repos\rougemeilland\palmtree.math.core.uint\palmtree.math.core.uint\pmc_memory.cpp
;	COMDAT ?CalculateHashCode@Internal@Core@Math@Palmtree@@YAIPAII@Z
_TEXT	SEGMENT
_p$ = 8							; size = 4
_words$ = 12						; size = 4
?CalculateHashCode@Internal@Core@Math@Palmtree@@YAIPAII@Z PROC ; Palmtree::Math::Core::Internal::CalculateHashCode, COMDAT

; 59   :     {

  00000	55		 push	 ebp
  00001	8b ec		 mov	 ebp, esp

; 60   :         __UNIT_TYPE code = CHECK_CODE_INIT;
; 61   : 
; 62   :         __UNIT_TYPE count = words >> 5;
; 63   :         while (count != 0)

  00003	8b 4d 08	 mov	 ecx, DWORD PTR _p$[ebp]
  00006	b8 84 84 84 84	 mov	 eax, -2071690108	; 84848484H
  0000b	53		 push	 ebx
  0000c	8b 5d 0c	 mov	 ebx, DWORD PTR _words$[ebp]
  0000f	8b d3		 mov	 edx, ebx
  00011	c1 ea 05	 shr	 edx, 5
  00014	85 d2		 test	 edx, edx
  00016	0f 84 cf 00 00
	00		 je	 $LN3@CalculateH
  0001c	0f 1f 40 00	 npad	 4
$LL2@CalculateH:
; File z:\sources\lunor\repos\rougemeilland\palmtree.math.core.uint\palmtree.math.core.uint\pmc_inline_func.h

; 331  :             return (_rotl(x, count));

  00020	c1 c0 03	 rol	 eax, 3
; File z:\sources\lunor\repos\rougemeilland\palmtree.math.core.uint\palmtree.math.core.uint\pmc_memory.cpp

; 65   :             code = _ROTATE_L_UNIT(code, 3) ^ p[0];

  00023	33 01		 xor	 eax, DWORD PTR [ecx]
; File z:\sources\lunor\repos\rougemeilland\palmtree.math.core.uint\palmtree.math.core.uint\pmc_inline_func.h

; 331  :             return (_rotl(x, count));

  00025	c1 c0 03	 rol	 eax, 3
; File z:\sources\lunor\repos\rougemeilland\palmtree.math.core.uint\palmtree.math.core.uint\pmc_memory.cpp

; 66   :             code = _ROTATE_L_UNIT(code, 3) ^ p[1];

  00028	33 41 04	 xor	 eax, DWORD PTR [ecx+4]
; File z:\sources\lunor\repos\rougemeilland\palmtree.math.core.uint\palmtree.math.core.uint\pmc_inline_func.h

; 331  :             return (_rotl(x, count));

  0002b	c1 c0 03	 rol	 eax, 3
; File z:\sources\lunor\repos\rougemeilland\palmtree.math.core.uint\palmtree.math.core.uint\pmc_memory.cpp

; 67   :             code = _ROTATE_L_UNIT(code, 3) ^ p[2];

  0002e	33 41 08	 xor	 eax, DWORD PTR [ecx+8]
; File z:\sources\lunor\repos\rougemeilland\palmtree.math.core.uint\palmtree.math.core.uint\pmc_inline_func.h

; 331  :             return (_rotl(x, count));

  00031	c1 c0 03	 rol	 eax, 3
; File z:\sources\lunor\repos\rougemeilland\palmtree.math.core.uint\palmtree.math.core.uint\pmc_memory.cpp

; 68   :             code = _ROTATE_L_UNIT(code, 3) ^ p[3];

  00034	33 41 0c	 xor	 eax, DWORD PTR [ecx+12]
; File z:\sources\lunor\repos\rougemeilland\palmtree.math.core.uint\palmtree.math.core.uint\pmc_inline_func.h

; 331  :             return (_rotl(x, count));

  00037	c1 c0 03	 rol	 eax, 3
; File z:\sources\lunor\repos\rougemeilland\palmtree.math.core.uint\palmtree.math.core.uint\pmc_memory.cpp

; 69   :             code = _ROTATE_L_UNIT(code, 3) ^ p[4];

  0003a	33 41 10	 xor	 eax, DWORD PTR [ecx+16]
; File z:\sources\lunor\repos\rougemeilland\palmtree.math.core.uint\palmtree.math.core.uint\pmc_inline_func.h

; 331  :             return (_rotl(x, count));

  0003d	c1 c0 03	 rol	 eax, 3
; File z:\sources\lunor\repos\rougemeilland\palmtree.math.core.uint\palmtree.math.core.uint\pmc_memory.cpp

; 70   :             code = _ROTATE_L_UNIT(code, 3) ^ p[5];

  00040	33 41 14	 xor	 eax, DWORD PTR [ecx+20]
; File z:\sources\lunor\repos\rougemeilland\palmtree.math.core.uint\palmtree.math.core.uint\pmc_inline_func.h

; 331  :             return (_rotl(x, count));

  00043	c1 c0 03	 rol	 eax, 3
; File z:\sources\lunor\repos\rougemeilland\palmtree.math.core.uint\palmtree.math.core.uint\pmc_memory.cpp

; 71   :             code = _ROTATE_L_UNIT(code, 3) ^ p[6];

  00046	33 41 18	 xor	 eax, DWORD PTR [ecx+24]
; File z:\sources\lunor\repos\rougemeilland\palmtree.math.core.uint\palmtree.math.core.uint\pmc_inline_func.h

; 331  :             return (_rotl(x, count));

  00049	c1 c0 03	 rol	 eax, 3
; File z:\sources\lunor\repos\rougemeilland\palmtree.math.core.uint\palmtree.math.core.uint\pmc_memory.cpp

; 72   :             code = _ROTATE_L_UNIT(code, 3) ^ p[7];

  0004c	33 41 1c	 xor	 eax, DWORD PTR [ecx+28]
; File z:\sources\lunor\repos\rougemeilland\palmtree.math.core.uint\palmtree.math.core.uint\pmc_inline_func.h

; 331  :             return (_rotl(x, count));

  0004f	c1 c0 03	 rol	 eax, 3
; File z:\sources\lunor\repos\rougemeilland\palmtree.math.core.uint\palmtree.math.core.uint\pmc_memory.cpp

; 73   :             code = _ROTATE_L_UNIT(code, 3) ^ p[8];

  00052	33 41 20	 xor	 eax, DWORD PTR [ecx+32]
; File z:\sources\lunor\repos\rougemeilland\palmtree.math.core.uint\palmtree.math.core.uint\pmc_inline_func.h

; 331  :             return (_rotl(x, count));

  00055	c1 c0 03	 rol	 eax, 3
; File z:\sources\lunor\repos\rougemeilland\palmtree.math.core.uint\palmtree.math.core.uint\pmc_memory.cpp

; 74   :             code = _ROTATE_L_UNIT(code, 3) ^ p[9];

  00058	33 41 24	 xor	 eax, DWORD PTR [ecx+36]
; File z:\sources\lunor\repos\rougemeilland\palmtree.math.core.uint\palmtree.math.core.uint\pmc_inline_func.h

; 331  :             return (_rotl(x, count));

  0005b	c1 c0 03	 rol	 eax, 3
; File z:\sources\lunor\repos\rougemeilland\palmtree.math.core.uint\palmtree.math.core.uint\pmc_memory.cpp

; 75   :             code = _ROTATE_L_UNIT(code, 3) ^ p[10];

  0005e	33 41 28	 xor	 eax, DWORD PTR [ecx+40]
; File z:\sources\lunor\repos\rougemeilland\palmtree.math.core.uint\palmtree.math.core.uint\pmc_inline_func.h

; 331  :             return (_rotl(x, count));

  00061	c1 c0 03	 rol	 eax, 3
; File z:\sources\lunor\repos\rougemeilland\palmtree.math.core.uint\palmtree.math.core.uint\pmc_memory.cpp

; 76   :             code = _ROTATE_L_UNIT(code, 3) ^ p[11];

  00064	33 41 2c	 xor	 eax, DWORD PTR [ecx+44]
; File z:\sources\lunor\repos\rougemeilland\palmtree.math.core.uint\palmtree.math.core.uint\pmc_inline_func.h

; 331  :             return (_rotl(x, count));

  00067	c1 c0 03	 rol	 eax, 3
; File z:\sources\lunor\repos\rougemeilland\palmtree.math.core.uint\palmtree.math.core.uint\pmc_memory.cpp

; 77   :             code = _ROTATE_L_UNIT(code, 3) ^ p[12];

  0006a	33 41 30	 xor	 eax, DWORD PTR [ecx+48]
; File z:\sources\lunor\repos\rougemeilland\palmtree.math.core.uint\palmtree.math.core.uint\pmc_inline_func.h

; 331  :             return (_rotl(x, count));

  0006d	c1 c0 03	 rol	 eax, 3
; File z:\sources\lunor\repos\rougemeilland\palmtree.math.core.uint\palmtree.math.core.uint\pmc_memory.cpp

; 78   :             code = _ROTATE_L_UNIT(code, 3) ^ p[13];

  00070	33 41 34	 xor	 eax, DWORD PTR [ecx+52]
; File z:\sources\lunor\repos\rougemeilland\palmtree.math.core.uint\palmtree.math.core.uint\pmc_inline_func.h

; 331  :             return (_rotl(x, count));

  00073	c1 c0 03	 rol	 eax, 3
; File z:\sources\lunor\repos\rougemeilland\palmtree.math.core.uint\palmtree.math.core.uint\pmc_memory.cpp

; 79   :             code = _ROTATE_L_UNIT(code, 3) ^ p[14];

  00076	33 41 38	 xor	 eax, DWORD PTR [ecx+56]
; File z:\sources\lunor\repos\rougemeilland\palmtree.math.core.uint\palmtree.math.core.uint\pmc_inline_func.h

; 331  :             return (_rotl(x, count));

  00079	c1 c0 03	 rol	 eax, 3
; File z:\sources\lunor\repos\rougemeilland\palmtree.math.core.uint\palmtree.math.core.uint\pmc_memory.cpp

; 80   :             code = _ROTATE_L_UNIT(code, 3) ^ p[15];

  0007c	33 41 3c	 xor	 eax, DWORD PTR [ecx+60]
; File z:\sources\lunor\repos\rougemeilland\palmtree.math.core.uint\palmtree.math.core.uint\pmc_inline_func.h

; 331  :             return (_rotl(x, count));

  0007f	c1 c0 03	 rol	 eax, 3
; File z:\sources\lunor\repos\rougemeilland\palmtree.math.core.uint\palmtree.math.core.uint\pmc_memory.cpp

; 81   :             code = _ROTATE_L_UNIT(code, 3) ^ p[16];

  00082	33 41 40	 xor	 eax, DWORD PTR [ecx+64]
; File z:\sources\lunor\repos\rougemeilland\palmtree.math.core.uint\palmtree.math.core.uint\pmc_inline_func.h

; 331  :             return (_rotl(x, count));

  00085	c1 c0 03	 rol	 eax, 3
; File z:\sources\lunor\repos\rougemeilland\palmtree.math.core.uint\palmtree.math.core.uint\pmc_memory.cpp

; 82   :             code = _ROTATE_L_UNIT(code, 3) ^ p[17];

  00088	33 41 44	 xor	 eax, DWORD PTR [ecx+68]
; File z:\sources\lunor\repos\rougemeilland\palmtree.math.core.uint\palmtree.math.core.uint\pmc_inline_func.h

; 331  :             return (_rotl(x, count));

  0008b	c1 c0 03	 rol	 eax, 3
; File z:\sources\lunor\repos\rougemeilland\palmtree.math.core.uint\palmtree.math.core.uint\pmc_memory.cpp

; 83   :             code = _ROTATE_L_UNIT(code, 3) ^ p[18];

  0008e	33 41 48	 xor	 eax, DWORD PTR [ecx+72]
; File z:\sources\lunor\repos\rougemeilland\palmtree.math.core.uint\palmtree.math.core.uint\pmc_inline_func.h

; 331  :             return (_rotl(x, count));

  00091	c1 c0 03	 rol	 eax, 3
; File z:\sources\lunor\repos\rougemeilland\palmtree.math.core.uint\palmtree.math.core.uint\pmc_memory.cpp

; 84   :             code = _ROTATE_L_UNIT(code, 3) ^ p[19];

  00094	33 41 4c	 xor	 eax, DWORD PTR [ecx+76]
; File z:\sources\lunor\repos\rougemeilland\palmtree.math.core.uint\palmtree.math.core.uint\pmc_inline_func.h

; 331  :             return (_rotl(x, count));

  00097	c1 c0 03	 rol	 eax, 3
; File z:\sources\lunor\repos\rougemeilland\palmtree.math.core.uint\palmtree.math.core.uint\pmc_memory.cpp

; 85   :             code = _ROTATE_L_UNIT(code, 3) ^ p[20];

  0009a	33 41 50	 xor	 eax, DWORD PTR [ecx+80]
; File z:\sources\lunor\repos\rougemeilland\palmtree.math.core.uint\palmtree.math.core.uint\pmc_inline_func.h

; 331  :             return (_rotl(x, count));

  0009d	c1 c0 03	 rol	 eax, 3
; File z:\sources\lunor\repos\rougemeilland\palmtree.math.core.uint\palmtree.math.core.uint\pmc_memory.cpp

; 86   :             code = _ROTATE_L_UNIT(code, 3) ^ p[21];

  000a0	33 41 54	 xor	 eax, DWORD PTR [ecx+84]
; File z:\sources\lunor\repos\rougemeilland\palmtree.math.core.uint\palmtree.math.core.uint\pmc_inline_func.h

; 331  :             return (_rotl(x, count));

  000a3	c1 c0 03	 rol	 eax, 3
; File z:\sources\lunor\repos\rougemeilland\palmtree.math.core.uint\palmtree.math.core.uint\pmc_memory.cpp

; 87   :             code = _ROTATE_L_UNIT(code, 3) ^ p[22];

  000a6	33 41 58	 xor	 eax, DWORD PTR [ecx+88]
; File z:\sources\lunor\repos\rougemeilland\palmtree.math.core.uint\palmtree.math.core.uint\pmc_inline_func.h

; 331  :             return (_rotl(x, count));

  000a9	c1 c0 03	 rol	 eax, 3
; File z:\sources\lunor\repos\rougemeilland\palmtree.math.core.uint\palmtree.math.core.uint\pmc_memory.cpp

; 88   :             code = _ROTATE_L_UNIT(code, 3) ^ p[23];

  000ac	33 41 5c	 xor	 eax, DWORD PTR [ecx+92]
; File z:\sources\lunor\repos\rougemeilland\palmtree.math.core.uint\palmtree.math.core.uint\pmc_inline_func.h

; 331  :             return (_rotl(x, count));

  000af	c1 c0 03	 rol	 eax, 3
; File z:\sources\lunor\repos\rougemeilland\palmtree.math.core.uint\palmtree.math.core.uint\pmc_memory.cpp

; 89   :             code = _ROTATE_L_UNIT(code, 3) ^ p[24];

  000b2	33 41 60	 xor	 eax, DWORD PTR [ecx+96]
; File z:\sources\lunor\repos\rougemeilland\palmtree.math.core.uint\palmtree.math.core.uint\pmc_inline_func.h

; 331  :             return (_rotl(x, count));

  000b5	c1 c0 03	 rol	 eax, 3
; File z:\sources\lunor\repos\rougemeilland\palmtree.math.core.uint\palmtree.math.core.uint\pmc_memory.cpp

; 90   :             code = _ROTATE_L_UNIT(code, 3) ^ p[25];

  000b8	33 41 64	 xor	 eax, DWORD PTR [ecx+100]
; File z:\sources\lunor\repos\rougemeilland\palmtree.math.core.uint\palmtree.math.core.uint\pmc_inline_func.h

; 331  :             return (_rotl(x, count));

  000bb	c1 c0 03	 rol	 eax, 3
; File z:\sources\lunor\repos\rougemeilland\palmtree.math.core.uint\palmtree.math.core.uint\pmc_memory.cpp

; 91   :             code = _ROTATE_L_UNIT(code, 3) ^ p[26];

  000be	33 41 68	 xor	 eax, DWORD PTR [ecx+104]
; File z:\sources\lunor\repos\rougemeilland\palmtree.math.core.uint\palmtree.math.core.uint\pmc_inline_func.h

; 331  :             return (_rotl(x, count));

  000c1	c1 c0 03	 rol	 eax, 3
; File z:\sources\lunor\repos\rougemeilland\palmtree.math.core.uint\palmtree.math.core.uint\pmc_memory.cpp

; 92   :             code = _ROTATE_L_UNIT(code, 3) ^ p[27];

  000c4	33 41 6c	 xor	 eax, DWORD PTR [ecx+108]
; File z:\sources\lunor\repos\rougemeilland\palmtree.math.core.uint\palmtree.math.core.uint\pmc_inline_func.h

; 331  :             return (_rotl(x, count));

  000c7	c1 c0 03	 rol	 eax, 3
; File z:\sources\lunor\repos\rougemeilland\palmtree.math.core.uint\palmtree.math.core.uint\pmc_memory.cpp

; 93   :             code = _ROTATE_L_UNIT(code, 3) ^ p[28];

  000ca	33 41 70	 xor	 eax, DWORD PTR [ecx+112]
; File z:\sources\lunor\repos\rougemeilland\palmtree.math.core.uint\palmtree.math.core.uint\pmc_inline_func.h

; 331  :             return (_rotl(x, count));

  000cd	c1 c0 03	 rol	 eax, 3
; File z:\sources\lunor\repos\rougemeilland\palmtree.math.core.uint\palmtree.math.core.uint\pmc_memory.cpp

; 94   :             code = _ROTATE_L_UNIT(code, 3) ^ p[29];

  000d0	33 41 74	 xor	 eax, DWORD PTR [ecx+116]
; File z:\sources\lunor\repos\rougemeilland\palmtree.math.core.uint\palmtree.math.core.uint\pmc_inline_func.h

; 331  :             return (_rotl(x, count));

  000d3	c1 c0 03	 rol	 eax, 3
; File z:\sources\lunor\repos\rougemeilland\palmtree.math.core.uint\palmtree.math.core.uint\pmc_memory.cpp

; 95   :             code = _ROTATE_L_UNIT(code, 3) ^ p[30];

  000d6	33 41 78	 xor	 eax, DWORD PTR [ecx+120]
; File z:\sources\lunor\repos\rougemeilland\palmtree.math.core.uint\palmtree.math.core.uint\pmc_inline_func.h

; 331  :             return (_rotl(x, count));

  000d9	c1 c0 03	 rol	 eax, 3
; File z:\sources\lunor\repos\rougemeilland\palmtree.math.core.uint\palmtree.math.core.uint\pmc_memory.cpp

; 96   :             code = _ROTATE_L_UNIT(code, 3) ^ p[31];

  000dc	33 41 7c	 xor	 eax, DWORD PTR [ecx+124]

; 97   :             p += 32;

  000df	83 e9 80	 sub	 ecx, -128		; ffffff80H

; 98   :             --count;

  000e2	83 ea 01	 sub	 edx, 1
  000e5	0f 85 35 ff ff
	ff		 jne	 $LL2@CalculateH
$LN3@CalculateH:

; 99   :         }
; 100  : 
; 101  :         if (words & 0x10)

  000eb	f6 c3 10	 test	 bl, 16			; 00000010H
  000ee	74 62		 je	 SHORT $LN4@CalculateH
; File z:\sources\lunor\repos\rougemeilland\palmtree.math.core.uint\palmtree.math.core.uint\pmc_inline_func.h

; 331  :             return (_rotl(x, count));

  000f0	c1 c0 03	 rol	 eax, 3
; File z:\sources\lunor\repos\rougemeilland\palmtree.math.core.uint\palmtree.math.core.uint\pmc_memory.cpp

; 103  :             code = _ROTATE_L_UNIT(code, 3) ^ p[0];

  000f3	33 01		 xor	 eax, DWORD PTR [ecx]
; File z:\sources\lunor\repos\rougemeilland\palmtree.math.core.uint\palmtree.math.core.uint\pmc_inline_func.h

; 331  :             return (_rotl(x, count));

  000f5	c1 c0 03	 rol	 eax, 3
; File z:\sources\lunor\repos\rougemeilland\palmtree.math.core.uint\palmtree.math.core.uint\pmc_memory.cpp

; 104  :             code = _ROTATE_L_UNIT(code, 3) ^ p[1];

  000f8	33 41 04	 xor	 eax, DWORD PTR [ecx+4]
; File z:\sources\lunor\repos\rougemeilland\palmtree.math.core.uint\palmtree.math.core.uint\pmc_inline_func.h

; 331  :             return (_rotl(x, count));

  000fb	c1 c0 03	 rol	 eax, 3
; File z:\sources\lunor\repos\rougemeilland\palmtree.math.core.uint\palmtree.math.core.uint\pmc_memory.cpp

; 105  :             code = _ROTATE_L_UNIT(code, 3) ^ p[2];

  000fe	33 41 08	 xor	 eax, DWORD PTR [ecx+8]
; File z:\sources\lunor\repos\rougemeilland\palmtree.math.core.uint\palmtree.math.core.uint\pmc_inline_func.h

; 331  :             return (_rotl(x, count));

  00101	c1 c0 03	 rol	 eax, 3
; File z:\sources\lunor\repos\rougemeilland\palmtree.math.core.uint\palmtree.math.core.uint\pmc_memory.cpp

; 106  :             code = _ROTATE_L_UNIT(code, 3) ^ p[3];

  00104	33 41 0c	 xor	 eax, DWORD PTR [ecx+12]
; File z:\sources\lunor\repos\rougemeilland\palmtree.math.core.uint\palmtree.math.core.uint\pmc_inline_func.h

; 331  :             return (_rotl(x, count));

  00107	c1 c0 03	 rol	 eax, 3
; File z:\sources\lunor\repos\rougemeilland\palmtree.math.core.uint\palmtree.math.core.uint\pmc_memory.cpp

; 107  :             code = _ROTATE_L_UNIT(code, 3) ^ p[4];

  0010a	33 41 10	 xor	 eax, DWORD PTR [ecx+16]
; File z:\sources\lunor\repos\rougemeilland\palmtree.math.core.uint\palmtree.math.core.uint\pmc_inline_func.h

; 331  :             return (_rotl(x, count));

  0010d	c1 c0 03	 rol	 eax, 3
; File z:\sources\lunor\repos\rougemeilland\palmtree.math.core.uint\palmtree.math.core.uint\pmc_memory.cpp

; 108  :             code = _ROTATE_L_UNIT(code, 3) ^ p[5];

  00110	33 41 14	 xor	 eax, DWORD PTR [ecx+20]
; File z:\sources\lunor\repos\rougemeilland\palmtree.math.core.uint\palmtree.math.core.uint\pmc_inline_func.h

; 331  :             return (_rotl(x, count));

  00113	c1 c0 03	 rol	 eax, 3
; File z:\sources\lunor\repos\rougemeilland\palmtree.math.core.uint\palmtree.math.core.uint\pmc_memory.cpp

; 109  :             code = _ROTATE_L_UNIT(code, 3) ^ p[6];

  00116	33 41 18	 xor	 eax, DWORD PTR [ecx+24]
; File z:\sources\lunor\repos\rougemeilland\palmtree.math.core.uint\palmtree.math.core.uint\pmc_inline_func.h

; 331  :             return (_rotl(x, count));

  00119	c1 c0 03	 rol	 eax, 3
; File z:\sources\lunor\repos\rougemeilland\palmtree.math.core.uint\palmtree.math.core.uint\pmc_memory.cpp

; 110  :             code = _ROTATE_L_UNIT(code, 3) ^ p[7];

  0011c	33 41 1c	 xor	 eax, DWORD PTR [ecx+28]
; File z:\sources\lunor\repos\rougemeilland\palmtree.math.core.uint\palmtree.math.core.uint\pmc_inline_func.h

; 331  :             return (_rotl(x, count));

  0011f	c1 c0 03	 rol	 eax, 3
