; Listing generated by Microsoft (R) Optimizing Compiler Version 19.16.27026.1 

	TITLE	Z:\Sources\Lunor\Repos\rougemeilland\Palmtree.Math.Core.Uint\Palmtree.Math.Core.Uint\pmc_modpow.c
	.686P
	.XMM
	include listing.inc
	.model	flat

INCLUDELIB MSVCRT
INCLUDELIB OLDNAMES

PUBLIC	_Initialize_ModPow
PUBLIC	_PMC_ModPow_X_X_X@16
EXTRN	_AllocateBlock:PROC
EXTRN	_DeallocateBlock:PROC
EXTRN	_CheckBlockLight:PROC
EXTRN	_AllocateNumber:PROC
EXTRN	_DeallocateNumber:PROC
EXTRN	_CommitNumber:PROC
EXTRN	_CheckNumber:PROC
EXTRN	_DuplicateNumber:PROC
EXTRN	_Multiply_X_X_Imp:PROC
EXTRN	_DivRem_X_X:PROC
EXTRN	_Compare_Imp:PROC
EXTRN	_number_zero:BYTE
EXTRN	_number_one:BYTE
; Function compile flags: /Ogtp
; File z:\sources\lunor\repos\rougemeilland\palmtree.math.core.uint\palmtree.math.core.uint\pmc_modpow.c
;	COMDAT _PMC_ModPow_X_X_X_Imp
_TEXT	SEGMENT
_v$ = 8							; size = 4
_e$ = 12						; size = 4
_m$ = 16						; size = 4
_r$ = 20						; size = 4
_PMC_ModPow_X_X_X_Imp PROC				; COMDAT

; 507  : {

	push	ebp
	mov	ebp, esp

; 508  :     PMC_STATUS_CODE result;
; 509  : 
; 510  :     if (m->IS_ZERO)

	mov	ecx, DWORD PTR _m$[ebp]
	mov	edx, DWORD PTR [ecx+24]
	test	dl, 2
	je	SHORT $LN2@PMC_ModPow

; 511  :     {
; 512  :         // m が 0 の場合
; 513  : 
; 514  :         // 0 による除算は許されないのでエラーを通知する
; 515  :         return (PMC_STATUS_DIVISION_BY_ZERO);

	mov	eax, -3					; fffffffdH

; 599  : }

	pop	ebp
	ret	0
$LN2@PMC_ModPow:
	push	esi

; 516  :     }
; 517  :     else if (m->IS_ONE)

	mov	esi, DWORD PTR _v$[ebp]
	mov	eax, DWORD PTR [esi+24]
	and	eax, 2
	test	dl, 4
	je	SHORT $LN4@PMC_ModPow

; 518  :     {
; 519  :         // m が 1 の場合
; 520  :         if (v->IS_ZERO)

	test	eax, eax
	je	SHORT $LN12@PMC_ModPow

; 521  :         {
; 522  :             // v が 0 の場合
; 523  :             if (e->IS_ZERO)

	mov	eax, DWORD PTR _e$[ebp]
	test	BYTE PTR [eax+24], 2
	jne	SHORT $LN24@PMC_ModPow
$LN12@PMC_ModPow:

; 594  :                     return (result);
; 595  :             }
; 596  :         }
; 597  :     }
; 598  :     return (PMC_STATUS_OK);

	mov	eax, DWORD PTR _r$[ebp]
	pop	esi
	mov	DWORD PTR [eax], OFFSET _number_zero
	xor	eax, eax

; 599  : }

	pop	ebp
	ret	0
$LN4@PMC_ModPow:

; 524  :             {
; 525  :                 // e が 0 の場合
; 526  : 
; 527  :                 // 0 の 0 乗となるので、エラーを返す
; 528  :                 return (PMC_STATUS_ARGUMENT_ERROR);
; 529  :             }
; 530  :             else
; 531  :             {
; 532  :                 // e が 0 ではない場合
; 533  : 
; 534  :                 // v の e 乗がどんな値であっても 1 では必ず割り切れるので剰余は 0 となる。
; 535  :                 *r = &number_zero;
; 536  :             }
; 537  :         }
; 538  :         else
; 539  :         {
; 540  :             // v が 0 ではない場合
; 541  : 
; 542  :             // v の e 乗がどんな値であっても 1 では必ず割り切れるので剰余は 0 となる。
; 543  :             *r = &number_zero;
; 544  :         }
; 545  :     }
; 546  :     else
; 547  :     {
; 548  :         // m が 2 以上の場合
; 549  :         if (v->IS_ZERO)

	test	eax, eax
	je	SHORT $LN10@PMC_ModPow

; 550  :         {
; 551  :             // v が 0 の場合
; 552  :             if (e->IS_ZERO)

	mov	eax, DWORD PTR _e$[ebp]
	test	BYTE PTR [eax+24], 2
	je	SHORT $LN12@PMC_ModPow
$LN24@PMC_ModPow:

; 553  :             {
; 554  :                 // e が 0 の場合
; 555  : 
; 556  :                 // 0 の 0 乗となるので、エラーを返す
; 557  :                 return (PMC_STATUS_ARGUMENT_ERROR);

	or	eax, -1
	pop	esi

; 599  : }

	pop	ebp
	ret	0
$LN10@PMC_ModPow:

; 558  :             }
; 559  :             else
; 560  :             {
; 561  :                 // e が 0 ではない場合
; 562  : 
; 563  :                 *r = &number_zero;
; 564  :             }
; 565  :         }
; 566  :         else if (v->IS_ONE)

	test	BYTE PTR [esi+24], 4
	jne	SHORT $LN23@PMC_ModPow

; 567  :         {
; 568  :             // v が 1 の場合
; 569  : 
; 570  :             // 1 を何乗しても 1 であり、1 を 2 以上の数で割ればその剰余は必ず 1 となる
; 571  :             *r = &number_one;
; 572  :         }
; 573  :         else
; 574  :         {
; 575  :             // v が 2 以上の場合
; 576  :             if (e->IS_ZERO)

	mov	edx, DWORD PTR _e$[ebp]
	mov	eax, DWORD PTR [edx+24]
	test	al, 2
	jne	SHORT $LN23@PMC_ModPow

; 580  :             }
; 581  :             else if (e->IS_ONE)

	push	DWORD PTR _r$[ebp]
	push	ecx
	test	al, 4
	je	SHORT $LN18@PMC_ModPow

; 582  :             {
; 583  :                 // e が 1 の場合
; 584  : 
; 585  :                 // v % m を計算して返す
; 586  :                 if ((result = Remainder(v, m, r)) != PMC_STATUS_OK)

	push	esi
	call	_Remainder
	add	esp, 12					; 0000000cH
	test	eax, eax
	je	SHORT $LN21@PMC_ModPow
	pop	esi

; 599  : }

	pop	ebp
	ret	0
$LN18@PMC_ModPow:

; 587  :                     return (result);
; 588  :             }
; 589  :             else
; 590  :             {
; 591  :                 // v、e、m がすべて 2 以上である場合
; 592  :                 // v の e 乗 の m による剰余を計算して返す
; 593  :                 if ((result = ModulePower(v, e, m, r)) != PMC_STATUS_OK)

	push	edx
	push	esi
	call	_ModulePower
	add	esp, 16					; 00000010H
	test	eax, eax
	je	SHORT $LN21@PMC_ModPow
	pop	esi

; 599  : }

	pop	ebp
	ret	0
$LN23@PMC_ModPow:

; 577  :             {
; 578  :                 // e が 0 の場合
; 579  :                 *r = &number_one;

	mov	eax, DWORD PTR _r$[ebp]
	mov	DWORD PTR [eax], OFFSET _number_one
$LN21@PMC_ModPow:

; 594  :                     return (result);
; 595  :             }
; 596  :         }
; 597  :     }
; 598  :     return (PMC_STATUS_OK);

	xor	eax, eax
	pop	esi

; 599  : }

	pop	ebp
	ret	0
_PMC_ModPow_X_X_X_Imp ENDP
_TEXT	ENDS
; Function compile flags: /Ogtp
; File z:\sources\lunor\repos\rougemeilland\palmtree.math.core.uint\palmtree.math.core.uint\pmc_modpow.c
; File z:\sources\lunor\repos\rougemeilland\palmtree.math.core.uint\palmtree.math.core.uint\pmc_inline_func.h
; File z:\sources\lunor\repos\rougemeilland\palmtree.math.core.uint\palmtree.math.core.uint\pmc_modpow.c
; File z:\sources\lunor\repos\rougemeilland\palmtree.math.core.uint\palmtree.math.core.uint\pmc_inline_func.h
; File z:\sources\lunor\repos\rougemeilland\palmtree.math.core.uint\palmtree.math.core.uint\pmc_modpow.c
; File z:\sources\lunor\repos\rougemeilland\palmtree.math.core.uint\palmtree.math.core.uint\pmc_inline_func.h
; File z:\sources\lunor\repos\rougemeilland\palmtree.math.core.uint\palmtree.math.core.uint\pmc_modpow.c
; File z:\sources\lunor\repos\rougemeilland\palmtree.math.core.uint\palmtree.math.core.uint\pmc_inline_func.h
; File z:\sources\lunor\repos\rougemeilland\palmtree.math.core.uint\palmtree.math.core.uint\pmc_modpow.c
; File z:\sources\lunor\repos\rougemeilland\palmtree.math.core.uint\palmtree.math.core.uint\pmc_inline_func.h
; File z:\sources\lunor\repos\rougemeilland\palmtree.math.core.uint\palmtree.math.core.uint\pmc_modpow.c
; File z:\sources\lunor\repos\rougemeilland\palmtree.math.core.uint\palmtree.math.core.uint\pmc_inline_func.h
; File z:\sources\lunor\repos\rougemeilland\palmtree.math.core.uint\palmtree.math.core.uint\pmc_modpow.c
; File z:\sources\lunor\repos\rougemeilland\palmtree.math.core.uint\palmtree.math.core.uint\pmc_inline_func.h
; File z:\sources\lunor\repos\rougemeilland\palmtree.math.core.uint\palmtree.math.core.uint\pmc_modpow.c
; File z:\sources\lunor\repos\rougemeilland\palmtree.math.core.uint\palmtree.math.core.uint\pmc_inline_func.h
; File z:\sources\lunor\repos\rougemeilland\palmtree.math.core.uint\palmtree.math.core.uint\pmc_modpow.c
; File z:\sources\lunor\repos\rougemeilland\palmtree.math.core.uint\palmtree.math.core.uint\pmc_inline_func.h
; File z:\sources\lunor\repos\rougemeilland\palmtree.math.core.uint\palmtree.math.core.uint\pmc_modpow.c
; File z:\sources\lunor\repos\rougemeilland\palmtree.math.core.uint\palmtree.math.core.uint\pmc_inline_func.h
; File z:\sources\lunor\repos\rougemeilland\palmtree.math.core.uint\palmtree.math.core.uint\pmc_modpow.c
;	COMDAT _ModulePower
_TEXT	SEGMENT
_r_check_code$ = -92					; size = 4
tv912 = -88						; size = 4
_v_2_buf_code$ = -84					; size = 4
_t$1$ = -80						; size = 4
_t$1$ = -80						; size = 4
_q_buf_code$ = -76					; size = 4
_work_v_buf_code$ = -72					; size = 4
_m_count$1$ = -68					; size = 4
_e_mask$1$ = -64					; size = 4
_work_2_buf_code$ = -60					; size = 4
_work_1_buf_code$ = -56					; size = 4
_m_buf$1$ = -52						; size = 4
_v_count$1$ = -48					; size = 4
_e_count$1$ = -44					; size = 4
_work_2_buf_words$ = -40				; size = 4
_q_buf_words$ = -36					; size = 4
_work_v_buf_words$ = -32				; size = 4
_w_ptr$1$ = -28						; size = 4
_v_2_buf_words$ = -24					; size = 4
_q_buf$1$ = -20						; size = 4
_work_1_buf_words$ = -16				; size = 4
_work_2_buf$1$ = -12					; size = 4
_v_2_buf$1$ = -8					; size = 4
_work_1_buf$1$ = -4					; size = 4
_u_ptr$1$ = 8						; size = 4
_v$ = 8							; size = 4
_e$ = 12						; size = 4
tv967 = 16						; size = 4
_work_v_buf$1$ = 16					; size = 4
_m$ = 16						; size = 4
_r$ = 20						; size = 4
_ModulePower PROC					; COMDAT

; 162  : {

	push	ebp
	mov	ebp, esp
	sub	esp, 92					; 0000005cH
	push	ebx
	push	esi

; 163  : #ifdef DO_TRACE
; 164  :     ReportIN(v, e, m);
; 165  : #endif
; 166  :     PMC_STATUS_CODE result;
; 167  :     __UNIT_TYPE* m_buf = m->BLOCK;
; 168  :     __UNIT_TYPE m_count = m->UNIT_WORD_COUNT;
; 169  : 
; 170  :     // 作業域を獲得する
; 171  : 
; 172  :     __UNIT_TYPE v_2_bit_count = v->UNIT_WORD_COUNT * __UNIT_TYPE_BIT_COUNT + __UNIT_TYPE_BIT_COUNT;

	mov	esi, DWORD PTR _v$[ebp]

; 173  :     __UNIT_TYPE v_2_buf_code;
; 174  :     __UNIT_TYPE v_2_buf_words;
; 175  :     __UNIT_TYPE* v_2_buf = AllocateBlock(v_2_bit_count, &v_2_buf_words, &v_2_buf_code);

	lea	ecx, DWORD PTR _v_2_buf_code$[ebp]
	push	edi
	mov	edi, DWORD PTR _m$[ebp]
	push	ecx
	lea	ecx, DWORD PTR _v_2_buf_words$[ebp]
	push	ecx
	mov	eax, DWORD PTR [edi+32]
	mov	ebx, DWORD PTR [edi+8]
	mov	DWORD PTR _m_buf$1$[ebp], eax
	mov	eax, DWORD PTR [esi+8]
	inc	eax
	mov	DWORD PTR _m_count$1$[ebp], ebx
	shl	eax, 5
	push	eax
	call	_AllocateBlock
	add	esp, 12					; 0000000cH
	mov	DWORD PTR _v_2_buf$1$[ebp], eax

; 176  :     if (v_2_buf == NULL)

	test	eax, eax
	je	SHORT $LN126@ModulePowe

; 177  :     {
; 178  :         return (PMC_STATUS_NOT_ENOUGH_MEMORY);
; 179  :     }
; 180  : 
; 181  :     __UNIT_TYPE work_1_bit_count = m_count * 2 * __UNIT_TYPE_BIT_COUNT + __UNIT_TYPE_BIT_COUNT;
; 182  :     __UNIT_TYPE work_1_buf_code;
; 183  :     __UNIT_TYPE work_1_buf_words;
; 184  :     __UNIT_TYPE* work_1_buf = AllocateBlock(work_1_bit_count, &work_1_buf_words, &work_1_buf_code);

	lea	ecx, DWORD PTR _work_1_buf_code$[ebp]
	mov	eax, ebx
	push	ecx
	shl	eax, 6
	lea	ecx, DWORD PTR _work_1_buf_words$[ebp]
	add	eax, 32					; 00000020H
	push	ecx
	push	eax
	mov	DWORD PTR tv967[ebp], eax
	call	_AllocateBlock
	add	esp, 12					; 0000000cH
	mov	DWORD PTR _work_1_buf$1$[ebp], eax

; 185  :     if (work_1_buf == NULL)

	test	eax, eax
	jne	SHORT $LN11@ModulePowe

; 186  :     {
; 187  :         DeallocateBlock(v_2_buf, v_2_buf_words);

	push	DWORD PTR _v_2_buf_words$[ebp]
	push	DWORD PTR _v_2_buf$1$[ebp]
	call	_DeallocateBlock
	add	esp, 8
$LN126@ModulePowe:

; 500  : #ifdef DO_TRACE
; 501  :     ReportOUT(*r);
; 502  : #endif
; 503  :     return (PMC_STATUS_OK);
; 504  : }

	pop	edi
	pop	esi
	mov	eax, -5					; fffffffbH
	pop	ebx
	mov	esp, ebp
	pop	ebp
	ret	0
$LN11@ModulePowe:

; 188  :         return (PMC_STATUS_NOT_ENOUGH_MEMORY);
; 189  :     }
; 190  : 
; 191  :     __UNIT_TYPE work_2_bit_count = m_count * 2 * __UNIT_TYPE_BIT_COUNT + __UNIT_TYPE_BIT_COUNT;
; 192  :     __UNIT_TYPE work_2_buf_code;
; 193  :     __UNIT_TYPE work_2_buf_words;
; 194  :     __UNIT_TYPE* work_2_buf = AllocateBlock(work_2_bit_count, &work_2_buf_words, &work_2_buf_code);

	lea	eax, DWORD PTR _work_2_buf_code$[ebp]
	push	eax
	lea	eax, DWORD PTR _work_2_buf_words$[ebp]
	push	eax
	push	DWORD PTR tv967[ebp]
	call	_AllocateBlock
	add	esp, 12					; 0000000cH
	mov	DWORD PTR _work_2_buf$1$[ebp], eax

; 195  :     if (work_2_buf == NULL)

	test	eax, eax
	jne	SHORT $LN12@ModulePowe

; 196  :     {
; 197  :         DeallocateBlock(work_1_buf, work_1_buf_words);

	push	DWORD PTR _work_1_buf_words$[ebp]
	push	DWORD PTR _work_1_buf$1$[ebp]
	call	_DeallocateBlock

; 198  :         DeallocateBlock(v_2_buf, v_2_buf_words);

	push	DWORD PTR _v_2_buf_words$[ebp]
	push	DWORD PTR _v_2_buf$1$[ebp]
	call	_DeallocateBlock
	add	esp, 16					; 00000010H

; 199  :         return (PMC_STATUS_NOT_ENOUGH_MEMORY);

	mov	eax, -5					; fffffffbH
	pop	edi

; 500  : #ifdef DO_TRACE
; 501  :     ReportOUT(*r);
; 502  : #endif
; 503  :     return (PMC_STATUS_OK);
; 504  : }

	pop	esi
	pop	ebx
	mov	esp, ebp
	pop	ebp
	ret	0
$LN12@ModulePowe:

; 200  :     }
; 201  : 
; 202  :     __UNIT_TYPE work_v_bit_count = m_count * __UNIT_TYPE_BIT_COUNT;
; 203  :     __UNIT_TYPE work_v_buf_code;
; 204  :     __UNIT_TYPE work_v_buf_words;
; 205  :     __UNIT_TYPE* work_v_buf = AllocateBlock(work_v_bit_count, &work_v_buf_words, &work_v_buf_code);

	lea	eax, DWORD PTR _work_v_buf_code$[ebp]
	push	eax
	lea	eax, DWORD PTR _work_v_buf_words$[ebp]
	push	eax
	mov	eax, ebx
	shl	eax, 5
	push	eax
	call	_AllocateBlock
	add	esp, 12					; 0000000cH
	mov	DWORD PTR _work_v_buf$1$[ebp], eax

; 206  :     if (work_v_buf == NULL)

	test	eax, eax
	jne	SHORT $LN13@ModulePowe

; 207  :     {
; 208  :         DeallocateBlock(work_2_buf, work_2_buf_words);

	push	DWORD PTR _work_2_buf_words$[ebp]
	push	DWORD PTR _work_2_buf$1$[ebp]
	call	_DeallocateBlock

; 209  :         DeallocateBlock(work_1_buf, work_1_buf_words);

	push	DWORD PTR _work_1_buf_words$[ebp]
	push	DWORD PTR _work_1_buf$1$[ebp]
	call	_DeallocateBlock

; 210  :         DeallocateBlock(v_2_buf, v_2_buf_words);

	push	DWORD PTR _v_2_buf_words$[ebp]
	push	DWORD PTR _v_2_buf$1$[ebp]
	call	_DeallocateBlock
	add	esp, 24					; 00000018H

; 211  :         return (PMC_STATUS_NOT_ENOUGH_MEMORY);

	mov	eax, -5					; fffffffbH
	pop	edi

; 500  : #ifdef DO_TRACE
; 501  :     ReportOUT(*r);
; 502  : #endif
; 503  :     return (PMC_STATUS_OK);
; 504  : }

	pop	esi
	pop	ebx
	mov	esp, ebp
	pop	ebp
	ret	0
$LN13@ModulePowe:

; 212  :     }
; 213  : 
; 214  :     __UNIT_TYPE q_buf_bit_count = _MAXIMUM_UNIT(v->UNIT_BIT_COUNT, m->UNIT_BIT_COUNT * 2) - m->UNIT_BIT_COUNT + 1 + __UNIT_TYPE_BIT_COUNT;

	mov	ecx, DWORD PTR [edi+12]

; 217  :     __UNIT_TYPE* q_buf = AllocateBlock(q_buf_bit_count, &q_buf_words, &q_buf_code);

	lea	ebx, DWORD PTR _q_buf_code$[ebp]
	push	ebx
	lea	ebx, DWORD PTR _q_buf_words$[ebp]
	push	ebx
	lea	edx, DWORD PTR [ecx+ecx]
; File z:\sources\lunor\repos\rougemeilland\palmtree.math.core.uint\palmtree.math.core.uint\pmc_inline_func.h

; 204  :         return (x >= y ? x : y);

	cmp	DWORD PTR [esi+12], edx
	cmovae	edx, DWORD PTR [esi+12]
; File z:\sources\lunor\repos\rougemeilland\palmtree.math.core.uint\palmtree.math.core.uint\pmc_modpow.c

; 217  :     __UNIT_TYPE* q_buf = AllocateBlock(q_buf_bit_count, &q_buf_words, &q_buf_code);

	sub	edx, ecx
	add	edx, 33					; 00000021H
	push	edx
	call	_AllocateBlock

; 218  :     if (q_buf == NULL)

	mov	ebx, DWORD PTR _m_count$1$[ebp]
	add	esp, 12					; 0000000cH
	mov	DWORD PTR _q_buf$1$[ebp], eax
	test	eax, eax
	jne	SHORT $LN14@ModulePowe

; 219  :     {
; 220  :         DeallocateBlock(work_v_buf, work_v_buf_words);

	push	DWORD PTR _work_v_buf_words$[ebp]
	push	DWORD PTR _work_v_buf$1$[ebp]
	call	_DeallocateBlock

; 221  :         DeallocateBlock(work_2_buf, work_2_buf_words);

	push	DWORD PTR _work_2_buf_words$[ebp]
	push	DWORD PTR _work_2_buf$1$[ebp]
	call	_DeallocateBlock

; 222  :         DeallocateBlock(work_1_buf, work_1_buf_words);

	push	DWORD PTR _work_1_buf_words$[ebp]
	push	DWORD PTR _work_1_buf$1$[ebp]
	call	_DeallocateBlock

; 223  :         DeallocateBlock(v_2_buf, v_2_buf_words);

	push	DWORD PTR _v_2_buf_words$[ebp]
	push	DWORD PTR _v_2_buf$1$[ebp]
	call	_DeallocateBlock
	add	esp, 32					; 00000020H

; 224  :         return (PMC_STATUS_NOT_ENOUGH_MEMORY);

	mov	eax, -5					; fffffffbH
	pop	edi

; 500  : #ifdef DO_TRACE
; 501  :     ReportOUT(*r);
; 502  : #endif
; 503  :     return (PMC_STATUS_OK);
; 504  : }

	pop	esi
	pop	ebx
	mov	esp, ebp
	pop	ebp
	ret	0
$LN14@ModulePowe:

; 225  :     }
; 226  : 
; 227  :     __UNIT_TYPE r_bit_count = m->UNIT_BIT_COUNT;
; 228  :     __UNIT_TYPE r_check_code;
; 229  :     if ((result = AllocateNumber(r, r_bit_count, &r_check_code)) != PMC_STATUS_OK)

	lea	eax, DWORD PTR _r_check_code$[ebp]
	push	eax
	push	DWORD PTR [edi+12]
	mov	edi, DWORD PTR _r$[ebp]
	push	edi
	call	_AllocateNumber
	add	esp, 12					; 0000000cH
	test	eax, eax
	je	SHORT $LN15@ModulePowe

; 230  :     {
; 231  :         DeallocateBlock(q_buf, q_buf_words);

	push	DWORD PTR _q_buf_words$[ebp]
	push	DWORD PTR _q_buf$1$[ebp]
	call	_DeallocateBlock

; 232  :         DeallocateBlock(work_v_buf, work_v_buf_words);

	push	DWORD PTR _work_v_buf_words$[ebp]
	push	DWORD PTR _work_v_buf$1$[ebp]
	call	_DeallocateBlock

; 233  :         DeallocateBlock(work_2_buf, work_2_buf_words);

	push	DWORD PTR _work_2_buf_words$[ebp]
	push	DWORD PTR _work_2_buf$1$[ebp]
	call	_DeallocateBlock

; 234  :         DeallocateBlock(work_1_buf, work_1_buf_words);

	push	DWORD PTR _work_1_buf_words$[ebp]
	push	DWORD PTR _work_1_buf$1$[ebp]
	call	_DeallocateBlock

; 235  :         DeallocateBlock(v_2_buf, v_2_buf_words);

	push	DWORD PTR _v_2_buf_words$[ebp]
	push	DWORD PTR _v_2_buf$1$[ebp]
	call	_DeallocateBlock
	add	esp, 40					; 00000028H

; 236  :         return (PMC_STATUS_NOT_ENOUGH_MEMORY);

	mov	eax, -5					; fffffffbH
	pop	edi

; 500  : #ifdef DO_TRACE
; 501  :     ReportOUT(*r);
; 502  : #endif
; 503  :     return (PMC_STATUS_OK);
; 504  : }

	pop	esi
	pop	ebx
	mov	esp, ebp
	pop	ebp
	ret	0
$LN15@ModulePowe:

; 237  :     }
; 238  : 
; 239  :     __UNIT_TYPE v_count;
; 240  :     int cmp = Compare_Easy(v->BLOCK, v->UNIT_WORD_COUNT, m_buf, m_count);

	mov	eax, DWORD PTR [esi+8]

; 89   :     if (u_count > v_count)

	cmp	eax, ebx
	jbe	$LN50@ModulePowe

; 90   :         return (1);

	mov	eax, 1
$LN16@ModulePowe:

; 253  :         *r = &number_zero;
; 254  : #ifdef DO_TRACE
; 255  :         ReportOUT(*r);
; 256  : #endif
; 257  :         return (PMC_STATUS_OK);
; 258  :     }
; 259  :     else if (cmp > 0)

	mov	ecx, DWORD PTR [esi+8]
	mov	esi, DWORD PTR [esi+32]
	test	eax, eax
	jle	$LN18@ModulePowe

; 260  :     {
; 261  :         // v > m である場合
; 262  : 
; 263  :         // v2 を v % m に設定する。
; 264  : 
; 265  :         DivRem_X_X(v->BLOCK, v->UNIT_WORD_COUNT, m_buf, m_count, work_v_buf, q_buf, v_2_buf);

	push	DWORD PTR _v_2_buf$1$[ebp]
	mov	edi, DWORD PTR _q_buf$1$[ebp]
	push	edi
	push	DWORD PTR _work_v_buf$1$[ebp]
	push	ebx
	push	DWORD PTR _m_buf$1$[ebp]
	push	ecx
	push	esi
	call	_DivRem_X_X

; 266  :         if ((result = CheckBlockLight(work_v_buf, work_v_buf_code)) != PMC_STATUS_OK)

	push	DWORD PTR _work_v_buf_code$[ebp]
	push	DWORD PTR _work_v_buf$1$[ebp]
	call	_CheckBlockLight
	add	esp, 36					; 00000024H
	test	eax, eax
	jne	$LN1@ModulePowe

; 267  :             return (result);
; 268  :         if ((result = CheckBlockLight(q_buf, q_buf_code)) != PMC_STATUS_OK)

	push	DWORD PTR _q_buf_code$[ebp]
	push	edi
	call	_CheckBlockLight
	add	esp, 8
	test	eax, eax
	jne	$LN1@ModulePowe

; 269  :             return (result);
; 270  :         if ((result = CheckBlockLight(v_2_buf, v_2_buf_code)) != PMC_STATUS_OK)

	push	DWORD PTR _v_2_buf_code$[ebp]
	mov	esi, DWORD PTR _v_2_buf$1$[ebp]
	push	esi
	call	_CheckBlockLight
	add	esp, 8
	test	eax, eax
	jne	$LN1@ModulePowe

; 271  :             return (result);
; 272  :         v_count = m_count;

	mov	ecx, ebx
	mov	DWORD PTR _v_count$1$[ebp], ecx

; 273  :         while (v_count > 0 && v_2_buf[v_count - 1] == 0)

	test	ebx, ebx
	je	$LN118@ModulePowe

; 271  :             return (result);
; 272  :         v_count = m_count;

	lea	eax, DWORD PTR [ebx-1]
	lea	eax, DWORD PTR [esi+eax*4]
	npad	1
$LL2@ModulePowe:

; 273  :         while (v_count > 0 && v_2_buf[v_count - 1] == 0)

	cmp	DWORD PTR [eax], 0
	jne	$LN3@ModulePowe

; 274  :             --v_count;

	dec	ecx
	sub	eax, 4
	mov	DWORD PTR _v_count$1$[ebp], ecx
	test	ecx, ecx
	jne	SHORT $LL2@ModulePowe

; 275  : 
; 276  :         if (v_count <= 0)

	jmp	SHORT $LN118@ModulePowe
$LN50@ModulePowe:

; 91   :     else if (u_count < v_count)

	jae	SHORT $LN52@ModulePowe

; 92   :         return (-1);

	or	eax, -1
	jmp	$LN16@ModulePowe
$LN52@ModulePowe:

; 93   :     else
; 94   :         return (Compare_Imp(u, v, u_count));

	push	eax
	push	DWORD PTR _m_buf$1$[ebp]
	push	DWORD PTR [esi+32]
	call	_Compare_Imp
	add	esp, 12					; 0000000cH

; 241  :     if (cmp == 0)

	test	eax, eax
	jne	$LN16@ModulePowe

; 242  :     {
; 243  :         // v == m である場合
; 244  : 
; 245  :         // v を何乗してもその剰余は 0 であるため、0 を返す。
; 246  : 
; 247  :         DeallocateNumber(*r);

	push	DWORD PTR [edi]
	call	_DeallocateNumber

; 248  :         DeallocateBlock(q_buf, q_buf_words);

	push	DWORD PTR _q_buf_words$[ebp]
	push	DWORD PTR _q_buf$1$[ebp]
	call	_DeallocateBlock

; 249  :         DeallocateBlock(work_v_buf, work_v_buf_words);

	push	DWORD PTR _work_v_buf_words$[ebp]
	push	DWORD PTR _work_v_buf$1$[ebp]
	call	_DeallocateBlock

; 250  :         DeallocateBlock(work_2_buf, work_2_buf_words);

	push	DWORD PTR _work_2_buf_words$[ebp]
	push	DWORD PTR _work_2_buf$1$[ebp]
	call	_DeallocateBlock

; 251  :         DeallocateBlock(work_1_buf, work_1_buf_words);

	push	DWORD PTR _work_1_buf_words$[ebp]
	push	DWORD PTR _work_1_buf$1$[ebp]
	call	_DeallocateBlock

; 252  :         DeallocateBlock(v_2_buf, v_2_buf_words);

	push	DWORD PTR _v_2_buf_words$[ebp]
	push	DWORD PTR _v_2_buf$1$[ebp]
	call	_DeallocateBlock

; 500  : #ifdef DO_TRACE
; 501  :     ReportOUT(*r);
; 502  : #endif
; 503  :     return (PMC_STATUS_OK);
; 504  : }

	add	esp, 44					; 0000002cH
	mov	DWORD PTR [edi], OFFSET _number_zero
	xor	eax, eax
	pop	edi
	pop	esi
	pop	ebx
	mov	esp, ebp
	pop	ebp
	ret	0
$LN3@ModulePowe:

; 275  : 
; 276  :         if (v_count <= 0)

	test	ecx, ecx
	jne	SHORT $LN19@ModulePowe
$LN118@ModulePowe:

; 277  :         {
; 278  :             // v2 が 0 になってしまった場合はべき乗を繰り返しても 0 になることが確定なので 0 を返す
; 279  :             DeallocateNumber(*r);

	mov	ebx, DWORD PTR _r$[ebp]
	push	DWORD PTR [ebx]
	call	_DeallocateNumber

; 280  :             DeallocateBlock(q_buf, q_buf_words);

	push	DWORD PTR _q_buf_words$[ebp]
	push	edi
	call	_DeallocateBlock

; 281  :             DeallocateBlock(work_v_buf, work_v_buf_words);

	push	DWORD PTR _work_v_buf_words$[ebp]
	push	DWORD PTR _work_v_buf$1$[ebp]
	call	_DeallocateBlock

; 282  :             DeallocateBlock(work_2_buf, work_2_buf_words);

	push	DWORD PTR _work_2_buf_words$[ebp]
	push	DWORD PTR _work_2_buf$1$[ebp]
	call	_DeallocateBlock

; 283  :             DeallocateBlock(work_1_buf, work_1_buf_words);

	push	DWORD PTR _work_1_buf_words$[ebp]
	push	DWORD PTR _work_1_buf$1$[ebp]
	call	_DeallocateBlock

; 284  :             DeallocateBlock(v_2_buf, v_2_buf_words);

	push	DWORD PTR _v_2_buf_words$[ebp]
	push	esi
	call	_DeallocateBlock

; 500  : #ifdef DO_TRACE
; 501  :     ReportOUT(*r);
; 502  : #endif
; 503  :     return (PMC_STATUS_OK);
; 504  : }

	add	esp, 44					; 0000002cH
	mov	DWORD PTR [ebx], OFFSET _number_zero
	xor	eax, eax
	pop	edi
	pop	esi
	pop	ebx
	mov	esp, ebp
	pop	ebp
	ret	0
$LN18@ModulePowe:

; 297  :         v_count = v->UNIT_WORD_COUNT;

	mov	eax, DWORD PTR _v$[ebp]
; File z:\sources\lunor\repos\rougemeilland\palmtree.math.core.uint\palmtree.math.core.uint\pmc_inline_func.h

; 68   :         __movsd((unsigned long *)d, (unsigned long *)s, (unsigned long)count);

	mov	edi, DWORD PTR _v_2_buf$1$[ebp]
	rep movsd
; File z:\sources\lunor\repos\rougemeilland\palmtree.math.core.uint\palmtree.math.core.uint\pmc_modpow.c

; 297  :         v_count = v->UNIT_WORD_COUNT;

	mov	eax, DWORD PTR [eax+8]
	mov	esi, DWORD PTR _v_2_buf$1$[ebp]
	mov	DWORD PTR _v_count$1$[ebp], eax
$LN19@ModulePowe:

; 298  :     }
; 299  : 
; 300  : #ifdef DO_TRACE
; 301  :     ReportLabel("vの初期化");
; 302  :     ReportDump("v", v_2_buf, v_count);
; 303  : #endif
; 304  :     __UNIT_TYPE e_count = e->UNIT_WORD_COUNT;

	mov	eax, DWORD PTR _e$[ebp]
	mov	ecx, DWORD PTR [eax+8]

; 305  :     __UNIT_TYPE e_mask = ~((__UNIT_TYPE)-1 >> 1);
; 306  :     e_mask = e_mask >> _LZCNT_ALT_UNIT(e->BLOCK[e_count - 1]);

	mov	eax, DWORD PTR [eax+32]
	mov	DWORD PTR _e_count$1$[ebp], ecx
	mov	eax, DWORD PTR [eax+ecx*4-4]
; File z:\sources\lunor\repos\rougemeilland\palmtree.math.core.uint\palmtree.math.core.uint\pmc_inline_func.h

; 630  :         if (x == 0)

	test	eax, eax
	jne	SHORT $LN58@ModulePowe

; 631  :             return (sizeof(x) * 8);

	lea	ecx, DWORD PTR [eax+32]
	jmp	SHORT $LN57@ModulePowe
$LN58@ModulePowe:

; 632  : #ifdef _M_IX86
; 633  :         _UINT32_T pos;
; 634  : #ifdef _MSC_VER
; 635  :         _BitScanReverse(&pos, x);

	bsr	eax, eax

; 636  : #elif defined(__GNUC__)
; 637  :         __asm__("bsrl %1, %0" : "=r"(pos) : "rm"(x));
; 638  : #else
; 639  : #error unknown compiler
; 640  : #endif
; 641  : #elif defined(_M_X64)
; 642  : #ifdef _MSC_VER
; 643  :         _UINT32_T pos;
; 644  :         _BitScanReverse64(&pos, x);
; 645  : #elif defined(__GNUC__)
; 646  :         _UINT64_T pos;
; 647  :         __asm__("bsrq %1, %0" : "=r"(pos) : "rm"(x));
; 648  : #else
; 649  : #error unknown compiler
; 650  : #endif
; 651  : #else
; 652  : #error unknown platform
; 653  : #endif
; 654  :         return (sizeof(x) * 8 - 1 - pos);

	mov	ecx, 31					; 0000001fH
	sub	ecx, eax
$LN57@ModulePowe:
; File z:\sources\lunor\repos\rougemeilland\palmtree.math.core.uint\palmtree.math.core.uint\pmc_modpow.c

; 316  :     __UNIT_TYPE* u_ptr = work_1_buf;

	mov	edx, DWORD PTR _work_1_buf$1$[ebp]
	mov	eax, -2147483648			; 80000000H
	mov	edi, eax
	mov	DWORD PTR tv912[ebp], eax
	shr	edi, cl
; File z:\sources\lunor\repos\rougemeilland\palmtree.math.core.uint\palmtree.math.core.uint\pmc_inline_func.h

; 68   :         __movsd((unsigned long *)d, (unsigned long *)s, (unsigned long)count);

	mov	ecx, ebx
; File z:\sources\lunor\repos\rougemeilland\palmtree.math.core.uint\palmtree.math.core.uint\pmc_modpow.c

; 321  :     while (e_count > 0)

	cmp	DWORD PTR _e_count$1$[ebp], 0
	mov	ebx, DWORD PTR _v_count$1$[ebp]
	mov	DWORD PTR _e_mask$1$[ebp], edi
; File z:\sources\lunor\repos\rougemeilland\palmtree.math.core.uint\palmtree.math.core.uint\pmc_inline_func.h

; 68   :         __movsd((unsigned long *)d, (unsigned long *)s, (unsigned long)count);

	mov	edi, DWORD PTR _work_1_buf$1$[ebp]
	rep movsd
; File z:\sources\lunor\repos\rougemeilland\palmtree.math.core.uint\palmtree.math.core.uint\pmc_modpow.c

; 318  :     __UNIT_TYPE* w_ptr = work_2_buf;

	mov	edi, DWORD PTR _work_2_buf$1$[ebp]
	mov	DWORD PTR _u_ptr$1$[ebp], edx
	mov	DWORD PTR _w_ptr$1$[ebp], edi

; 321  :     while (e_count > 0)

	jbe	$LN5@ModulePowe
	mov	esi, DWORD PTR _m_count$1$[ebp]
$LL4@ModulePowe:

; 322  :     {
; 323  : #ifdef DO_TRACE
; 324  :         ReportLabel("ループ開始");
; 325  :         ReportVar("e_count", e_count);
; 326  :         ReportVar("e_mask", e_mask);
; 327  : #endif
; 328  : 
; 329  :         // 次の桁の準備をする
; 330  :         e_mask >>= 1;

	mov	eax, DWORD PTR _e_mask$1$[ebp]
	shr	eax, 1
	mov	ecx, eax

; 331  :         if (e_mask == 0)

	cmove	eax, DWORD PTR tv912[ebp]
	mov	DWORD PTR _e_mask$1$[ebp], eax

; 332  :         {
; 333  :             e_mask = ~((__UNIT_TYPE)-1 >> 1);
; 334  :             --e_count;
; 335  :         }
; 336  : 
; 337  :         if (e_count <= 0)

	mov	eax, DWORD PTR _e_count$1$[ebp]
	dec	eax
	test	ecx, ecx
	cmovne	eax, DWORD PTR _e_count$1$[ebp]
	mov	DWORD PTR _e_count$1$[ebp], eax
	test	eax, eax
	je	$LN5@ModulePowe
; File z:\sources\lunor\repos\rougemeilland\palmtree.math.core.uint\palmtree.math.core.uint\pmc_inline_func.h

; 118  :         __stosd((unsigned long*)d, 0, (unsigned long)count);

	mov	ecx, DWORD PTR _work_1_buf_words$[ebp]
	xor	eax, eax
	rep stosd
; File z:\sources\lunor\repos\rougemeilland\palmtree.math.core.uint\palmtree.math.core.uint\pmc_modpow.c

; 352  :         Multiply_X_X_Imp(u_ptr, u_count, u_ptr, u_count, w_ptr);

	mov	edi, DWORD PTR _w_ptr$1$[ebp]
	push	edi
	push	ebx
	push	edx
	push	ebx
	push	edx
	call	_Multiply_X_X_Imp

; 353  :         if ((result = CheckBlockLight(work_1_buf, work_1_buf_code)) != PMC_STATUS_OK)

	push	DWORD PTR _work_1_buf_code$[ebp]
	push	DWORD PTR _work_1_buf$1$[ebp]
	call	_CheckBlockLight
	add	esp, 28					; 0000001cH
	test	eax, eax
	jne	$LN1@ModulePowe

; 354  :             return (result);
; 355  :         if ((result = CheckBlockLight(work_2_buf, work_2_buf_code)) != PMC_STATUS_OK)

	push	DWORD PTR _work_2_buf_code$[ebp]
	push	DWORD PTR _work_2_buf$1$[ebp]
	call	_CheckBlockLight
	add	esp, 8
	test	eax, eax
	jne	$LN1@ModulePowe

; 99   :     __UNIT_TYPE* t = *u;

	mov	eax, DWORD PTR _u_ptr$1$[ebp]

; 101  :     *v = t;

	lea	ecx, DWORD PTR [ebx+ebx]
	mov	edx, edi
	mov	DWORD PTR _t$1$[ebp], eax
	mov	DWORD PTR _w_ptr$1$[ebp], eax

; 356  :             return (result);
; 357  :         SwapPointer(&u_ptr, &w_ptr);
; 358  :         u_count *= 2;
; 359  :         if (u_ptr[u_count - 1] == 0)
; 360  :             --u_count;
; 361  : #ifdef DO_TRACE
; 362  :         ReportDump("w", u_ptr, u_count);
; 363  : #endif
; 364  : 
; 365  :         // w := u % m を計算する
; 366  : #ifdef DO_TRACE
; 367  :         ReportLabel("w := u % m");
; 368  :         ReportDump("u", u_ptr, u_count);
; 369  :         ReportDump("m", m_buf, m_count);
; 370  : #endif
; 371  :         if (u_count >= m_count)

	lea	eax, DWORD PTR [ecx-1]

; 100  :     *u = *v;

	mov	DWORD PTR _u_ptr$1$[ebp], edx

; 356  :             return (result);
; 357  :         SwapPointer(&u_ptr, &w_ptr);
; 358  :         u_count *= 2;
; 359  :         if (u_ptr[u_count - 1] == 0)
; 360  :             --u_count;
; 361  : #ifdef DO_TRACE
; 362  :         ReportDump("w", u_ptr, u_count);
; 363  : #endif
; 364  : 
; 365  :         // w := u % m を計算する
; 366  : #ifdef DO_TRACE
; 367  :         ReportLabel("w := u % m");
; 368  :         ReportDump("u", u_ptr, u_count);
; 369  :         ReportDump("m", m_buf, m_count);
; 370  : #endif
; 371  :         if (u_count >= m_count)

	cmp	DWORD PTR [edx+ebx*8-4], 0
	cmovne	eax, ecx
	mov	ebx, eax
	cmp	ebx, esi
	jb	$LN123@ModulePowe
; File z:\sources\lunor\repos\rougemeilland\palmtree.math.core.uint\palmtree.math.core.uint\pmc_inline_func.h

; 118  :         __stosd((unsigned long*)d, 0, (unsigned long)count);

	mov	ecx, DWORD PTR _work_v_buf_words$[ebp]
	xor	eax, eax
	mov	edi, DWORD PTR _work_v_buf$1$[ebp]
	rep stosd
	mov	ecx, DWORD PTR _q_buf_words$[ebp]
	mov	edi, DWORD PTR _q_buf$1$[ebp]
	rep stosd
	mov	ecx, DWORD PTR _work_1_buf_words$[ebp]
	mov	edi, DWORD PTR _t$1$[ebp]
	rep stosd
; File z:\sources\lunor\repos\rougemeilland\palmtree.math.core.uint\palmtree.math.core.uint\pmc_modpow.c

; 376  :             DivRem_X_X(u_ptr, u_count, m_buf, m_count, work_v_buf, q_buf, w_ptr);

	mov	edi, DWORD PTR _t$1$[ebp]
	push	edi
	push	DWORD PTR _q_buf$1$[ebp]
	push	DWORD PTR _work_v_buf$1$[ebp]
	push	esi
	push	DWORD PTR _m_buf$1$[ebp]
	push	ebx
	push	edx
	call	_DivRem_X_X

; 377  :             if ((result = CheckBlockLight(work_v_buf, work_v_buf_code)) != PMC_STATUS_OK)

	push	DWORD PTR _work_v_buf_code$[ebp]
	push	DWORD PTR _work_v_buf$1$[ebp]
	call	_CheckBlockLight
	add	esp, 36					; 00000024H
	test	eax, eax
	jne	$LN1@ModulePowe

; 378  :                 return (result);
; 379  :             if ((result = CheckBlockLight(q_buf, q_buf_code)) != PMC_STATUS_OK)

	push	DWORD PTR _q_buf_code$[ebp]
	push	DWORD PTR _q_buf$1$[ebp]
	call	_CheckBlockLight
	add	esp, 8
	test	eax, eax
	jne	$LN1@ModulePowe

; 380  :                 return (result);
; 381  :             if ((result = CheckBlockLight(work_1_buf, work_1_buf_code)) != PMC_STATUS_OK)

	push	DWORD PTR _work_1_buf_code$[ebp]
	push	DWORD PTR _work_1_buf$1$[ebp]
	call	_CheckBlockLight
	add	esp, 8
	test	eax, eax
	jne	$LN1@ModulePowe

; 382  :                 return (result);
; 383  :             if ((result = CheckBlockLight(work_2_buf, work_2_buf_code)) != PMC_STATUS_OK)

	push	DWORD PTR _work_2_buf_code$[ebp]
	push	DWORD PTR _work_2_buf$1$[ebp]
	call	_CheckBlockLight
	add	esp, 8
	test	eax, eax
	jne	$LN1@ModulePowe

; 99   :     __UNIT_TYPE* t = *u;

	mov	ecx, DWORD PTR _u_ptr$1$[ebp]

; 100  :     *u = *v;

	mov	edx, edi
	mov	DWORD PTR _w_ptr$1$[ebp], ecx

; 384  :                 return (result);
; 385  :             SwapPointer(&u_ptr, &w_ptr);
; 386  :             u_count = m_count;

	mov	ebx, esi

; 100  :     *u = *v;

	mov	DWORD PTR _u_ptr$1$[ebp], edi

; 387  :             while (u_count > 0 && u_ptr[u_count - 1] == 0)

	test	esi, esi
	je	SHORT $LN99@ModulePowe

; 99   :     __UNIT_TYPE* t = *u;

	lea	eax, DWORD PTR [edi-4]
	lea	eax, DWORD PTR [eax+esi*4]
$LL6@ModulePowe:

; 387  :             while (u_count > 0 && u_ptr[u_count - 1] == 0)

	cmp	DWORD PTR [eax], 0
	jne	SHORT $LN7@ModulePowe

; 388  :                 --u_count;

	sub	eax, 4
	sub	ebx, 1
	jne	SHORT $LL6@ModulePowe
$LN99@ModulePowe:

; 500  : #ifdef DO_TRACE
; 501  :     ReportOUT(*r);
; 502  : #endif
; 503  :     return (PMC_STATUS_OK);
; 504  : }

	mov	ebx, DWORD PTR _r$[ebp]
	push	DWORD PTR [ebx]
	call	_DeallocateNumber
	push	DWORD PTR _q_buf_words$[ebp]
	push	DWORD PTR _q_buf$1$[ebp]
	call	_DeallocateBlock
	push	DWORD PTR _work_v_buf_words$[ebp]
	push	DWORD PTR _work_v_buf$1$[ebp]
	call	_DeallocateBlock
	push	DWORD PTR _work_2_buf_words$[ebp]
	push	DWORD PTR _work_2_buf$1$[ebp]
	call	_DeallocateBlock
	push	DWORD PTR _work_1_buf_words$[ebp]
	push	DWORD PTR _work_1_buf$1$[ebp]
	call	_DeallocateBlock
	push	DWORD PTR _v_2_buf_words$[ebp]
	push	DWORD PTR _v_2_buf$1$[ebp]
	call	_DeallocateBlock
	add	esp, 44					; 0000002cH
	mov	DWORD PTR [ebx], OFFSET _number_zero
	xor	eax, eax
	pop	edi
	pop	esi
	pop	ebx
	mov	esp, ebp
	pop	ebp
	ret	0
$LN123@ModulePowe:

; 356  :             return (result);
; 357  :         SwapPointer(&u_ptr, &w_ptr);
; 358  :         u_count *= 2;
; 359  :         if (u_ptr[u_count - 1] == 0)
; 360  :             --u_count;
; 361  : #ifdef DO_TRACE
; 362  :         ReportDump("w", u_ptr, u_count);
; 363  : #endif
; 364  : 
; 365  :         // w := u % m を計算する
; 366  : #ifdef DO_TRACE
; 367  :         ReportLabel("w := u % m");
; 368  :         ReportDump("u", u_ptr, u_count);
; 369  :         ReportDump("m", m_buf, m_count);
; 370  : #endif
; 371  :         if (u_count >= m_count)

	mov	ecx, DWORD PTR _w_ptr$1$[ebp]
$LN7@ModulePowe:

; 389  : 
; 390  :             if (u_count <= 0)
; 391  :             {
; 392  :                 // 剰余が 0 になった場合はこれ以上続行しても解が 0 以外にはならないので、処理を中断して 0 を返す
; 393  :                 DeallocateNumber(*r);
; 394  :                 DeallocateBlock(q_buf, q_buf_words);
; 395  :                 DeallocateBlock(work_v_buf, work_v_buf_words);
; 396  :                 DeallocateBlock(work_2_buf, work_2_buf_words);
; 397  :                 DeallocateBlock(work_1_buf, work_1_buf_words);
; 398  :                 DeallocateBlock(v_2_buf, v_2_buf_words);
; 399  :                 *r = &number_zero;
; 400  : #ifdef DO_TRACE
; 401  :                 ReportOUT(*r);
; 402  : #endif
; 403  :                 return (PMC_STATUS_OK);
; 404  :             }
; 405  :         }
; 406  : #ifdef DO_TRACE
; 407  :         ReportDump("w", u_ptr, u_count);
; 408  : #endif
; 409  : 
; 410  : #ifdef DO_TRACE
; 411  :         ReportLabel("e のビット検査");
; 412  :         ReportDump("e", e->BLOCK, e->UNIT_WORD_COUNT);
; 413  :         ReportVar("e_count", e_count);
; 414  :         ReportVar("e_mask", e_mask);
; 415  :         ReportVar("e_mask & e->BLOCK[e_count - 1]", e_mask & e->BLOCK[e_count - 1]);
; 416  : #endif
; 417  :         if (e_mask & e->BLOCK[e_count - 1])

	mov	eax, DWORD PTR _e$[ebp]
	mov	esi, DWORD PTR _e_count$1$[ebp]
	mov	edi, DWORD PTR _e_mask$1$[ebp]
	mov	eax, DWORD PTR [eax+32]
	test	DWORD PTR [eax+esi*4-4], edi
	mov	esi, DWORD PTR _m_count$1$[ebp]
	je	$LN122@ModulePowe
; File z:\sources\lunor\repos\rougemeilland\palmtree.math.core.uint\palmtree.math.core.uint\pmc_inline_func.h

; 118  :         __stosd((unsigned long*)d, 0, (unsigned long)count);

	mov	edi, ecx
	xor	eax, eax
	mov	ecx, DWORD PTR _work_1_buf_words$[ebp]
	rep stosd
; File z:\sources\lunor\repos\rougemeilland\palmtree.math.core.uint\palmtree.math.core.uint\pmc_modpow.c

; 429  :             Multiply_X_X_Imp(u_ptr, u_count, v_ptr, v_count, w_ptr);

	mov	edi, DWORD PTR _w_ptr$1$[ebp]
	push	edi
	push	DWORD PTR _v_count$1$[ebp]
	push	DWORD PTR _v_2_buf$1$[ebp]
	push	ebx
	push	edx
	call	_Multiply_X_X_Imp

; 430  :             if ((result = CheckBlockLight(work_1_buf, work_1_buf_code)) != PMC_STATUS_OK)

	push	DWORD PTR _work_1_buf_code$[ebp]
	push	DWORD PTR _work_1_buf$1$[ebp]
	call	_CheckBlockLight
	add	esp, 28					; 0000001cH
	test	eax, eax
	jne	$LN1@ModulePowe

; 431  :                 return (result);
; 432  :             if ((result = CheckBlockLight(work_2_buf, work_2_buf_code)) != PMC_STATUS_OK)

	push	DWORD PTR _work_2_buf_code$[ebp]
	push	DWORD PTR _work_2_buf$1$[ebp]
	call	_CheckBlockLight
	add	esp, 8
	test	eax, eax
	jne	$LN1@ModulePowe

; 433  :                 return (result);
; 434  :             SwapPointer(&u_ptr, &w_ptr);
; 435  :             u_count += v_count;

	add	ebx, DWORD PTR _v_count$1$[ebp]

; 100  :     *u = *v;

	mov	edx, edi
	mov	eax, DWORD PTR _u_ptr$1$[ebp]

; 101  :     *v = t;

	mov	edi, eax
	mov	DWORD PTR _t$1$[ebp], eax
	mov	DWORD PTR _u_ptr$1$[ebp], edx

; 436  :             if (u_ptr[u_count - 1] == 0)
; 437  :                 --u_count;
; 438  : #ifdef DO_TRACE
; 439  :             ReportDump("w", u_ptr, u_count);
; 440  : #endif
; 441  : 
; 442  :             // w := u % m を計算する
; 443  : 
; 444  : #ifdef DO_TRACE
; 445  :             ReportLabel("w := u % m");
; 446  :             ReportDump("u", u_ptr, u_count);
; 447  :             ReportDump("m", m_buf, m_count);
; 448  : #endif
; 449  :             if (u_count >= m_count)

	cmp	DWORD PTR [edx+ebx*4-4], 0
	lea	eax, DWORD PTR [ebx-1]

; 101  :     *v = t;

	mov	DWORD PTR _w_ptr$1$[ebp], edi

; 436  :             if (u_ptr[u_count - 1] == 0)
; 437  :                 --u_count;
; 438  : #ifdef DO_TRACE
; 439  :             ReportDump("w", u_ptr, u_count);
; 440  : #endif
; 441  : 
; 442  :             // w := u % m を計算する
; 443  : 
; 444  : #ifdef DO_TRACE
; 445  :             ReportLabel("w := u % m");
; 446  :             ReportDump("u", u_ptr, u_count);
; 447  :             ReportDump("m", m_buf, m_count);
; 448  : #endif
; 449  :             if (u_count >= m_count)

	cmovne	eax, ebx
	mov	ebx, eax
	cmp	ebx, esi
	jb	$LL4@ModulePowe
; File z:\sources\lunor\repos\rougemeilland\palmtree.math.core.uint\palmtree.math.core.uint\pmc_inline_func.h

; 118  :         __stosd((unsigned long*)d, 0, (unsigned long)count);

	mov	ecx, DWORD PTR _work_v_buf_words$[ebp]
	xor	eax, eax
	mov	edi, DWORD PTR _work_v_buf$1$[ebp]
	rep stosd
	mov	ecx, DWORD PTR _q_buf_words$[ebp]
	mov	edi, DWORD PTR _q_buf$1$[ebp]
	rep stosd
	mov	ecx, DWORD PTR _work_1_buf_words$[ebp]
	mov	edi, DWORD PTR _t$1$[ebp]
	rep stosd
; File z:\sources\lunor\repos\rougemeilland\palmtree.math.core.uint\palmtree.math.core.uint\pmc_modpow.c

; 454  :                 DivRem_X_X(u_ptr, u_count, m_buf, m_count, work_v_buf, q_buf, w_ptr);

	mov	edi, DWORD PTR _t$1$[ebp]
	push	edi
	push	DWORD PTR _q_buf$1$[ebp]
	push	DWORD PTR _work_v_buf$1$[ebp]
	push	esi
	push	DWORD PTR _m_buf$1$[ebp]
	push	ebx
	push	edx
	call	_DivRem_X_X

; 455  :                 if ((result = CheckBlockLight(work_v_buf, work_v_buf_code)) != PMC_STATUS_OK)

	push	DWORD PTR _work_v_buf_code$[ebp]
	push	DWORD PTR _work_v_buf$1$[ebp]
	call	_CheckBlockLight
	add	esp, 36					; 00000024H
	test	eax, eax
	jne	$LN1@ModulePowe

; 456  :                     return (result);
; 457  :                 if ((result = CheckBlockLight(q_buf, q_buf_code)) != PMC_STATUS_OK)

	push	DWORD PTR _q_buf_code$[ebp]
	push	DWORD PTR _q_buf$1$[ebp]
	call	_CheckBlockLight
	add	esp, 8
	test	eax, eax
	jne	$LN1@ModulePowe

; 458  :                     return (result);
; 459  :                 if ((result = CheckBlockLight(work_1_buf, work_1_buf_code)) != PMC_STATUS_OK)

	push	DWORD PTR _work_1_buf_code$[ebp]
	push	DWORD PTR _work_1_buf$1$[ebp]
	call	_CheckBlockLight
	add	esp, 8
	test	eax, eax
	jne	$LN1@ModulePowe

; 460  :                     return (result);
; 461  :                 if ((result = CheckBlockLight(work_2_buf, work_2_buf_code)) != PMC_STATUS_OK)

	push	DWORD PTR _work_2_buf_code$[ebp]
	push	DWORD PTR _work_2_buf$1$[ebp]
	call	_CheckBlockLight
	add	esp, 8
	test	eax, eax
	jne	$LN1@ModulePowe

; 99   :     __UNIT_TYPE* t = *u;

	mov	eax, DWORD PTR _u_ptr$1$[ebp]

; 100  :     *u = *v;

	mov	edx, edi
	mov	DWORD PTR _w_ptr$1$[ebp], eax

; 462  :                     return (result);
; 463  :                 SwapPointer(&u_ptr, &w_ptr);
; 464  :                 u_count = m_count;

	mov	ebx, esi

; 100  :     *u = *v;

	mov	DWORD PTR _u_ptr$1$[ebp], edx

; 465  :                 while (u_count > 0 && u_ptr[u_count - 1] == 0)

	test	esi, esi
	je	$LN99@ModulePowe

; 99   :     __UNIT_TYPE* t = *u;

	lea	eax, DWORD PTR [esi-1]
	lea	eax, DWORD PTR [edi+eax*4]
$LL8@ModulePowe:

; 465  :                 while (u_count > 0 && u_ptr[u_count - 1] == 0)

	cmp	DWORD PTR [eax], 0
	jne	SHORT $LN124@ModulePowe

; 466  :                     --u_count;

	sub	eax, 4
	sub	ebx, 1
	jne	SHORT $LL8@ModulePowe

; 465  :                 while (u_count > 0 && u_ptr[u_count - 1] == 0)

	jmp	$LN99@ModulePowe
$LN122@ModulePowe:

; 389  : 
; 390  :             if (u_count <= 0)
; 391  :             {
; 392  :                 // 剰余が 0 になった場合はこれ以上続行しても解が 0 以外にはならないので、処理を中断して 0 を返す
; 393  :                 DeallocateNumber(*r);
; 394  :                 DeallocateBlock(q_buf, q_buf_words);
; 395  :                 DeallocateBlock(work_v_buf, work_v_buf_words);
; 396  :                 DeallocateBlock(work_2_buf, work_2_buf_words);
; 397  :                 DeallocateBlock(work_1_buf, work_1_buf_words);
; 398  :                 DeallocateBlock(v_2_buf, v_2_buf_words);
; 399  :                 *r = &number_zero;
; 400  : #ifdef DO_TRACE
; 401  :                 ReportOUT(*r);
; 402  : #endif
; 403  :                 return (PMC_STATUS_OK);
; 404  :             }
; 405  :         }
; 406  : #ifdef DO_TRACE
; 407  :         ReportDump("w", u_ptr, u_count);
; 408  : #endif
; 409  : 
; 410  : #ifdef DO_TRACE
; 411  :         ReportLabel("e のビット検査");
; 412  :         ReportDump("e", e->BLOCK, e->UNIT_WORD_COUNT);
; 413  :         ReportVar("e_count", e_count);
; 414  :         ReportVar("e_mask", e_mask);
; 415  :         ReportVar("e_mask & e->BLOCK[e_count - 1]", e_mask & e->BLOCK[e_count - 1]);
; 416  : #endif
; 417  :         if (e_mask & e->BLOCK[e_count - 1])

	mov	edx, DWORD PTR _u_ptr$1$[ebp]
$LN124@ModulePowe:

; 322  :     {
; 323  : #ifdef DO_TRACE
; 324  :         ReportLabel("ループ開始");
; 325  :         ReportVar("e_count", e_count);
; 326  :         ReportVar("e_mask", e_mask);
; 327  : #endif
; 328  : 
; 329  :         // 次の桁の準備をする
; 330  :         e_mask >>= 1;

	mov	edi, DWORD PTR _w_ptr$1$[ebp]
	jmp	$LL4@ModulePowe
$LN5@ModulePowe:
; File z:\sources\lunor\repos\rougemeilland\palmtree.math.core.uint\palmtree.math.core.uint\pmc_inline_func.h

; 68   :         __movsd((unsigned long *)d, (unsigned long *)s, (unsigned long)count);

	mov	eax, DWORD PTR _r$[ebp]
	mov	esi, edx
	mov	ecx, ebx
	mov	edi, DWORD PTR [eax]
	mov	edi, DWORD PTR [edi+32]
	rep movsd
; File z:\sources\lunor\repos\rougemeilland\palmtree.math.core.uint\palmtree.math.core.uint\pmc_modpow.c

; 492  :     if ((result = CheckBlockLight((*r)->BLOCK, r_check_code)) != PMC_STATUS_OK)

	mov	eax, DWORD PTR [eax]
	push	DWORD PTR _r_check_code$[ebp]
	push	DWORD PTR [eax+32]
	call	_CheckBlockLight
	add	esp, 8
	test	eax, eax
	jne	SHORT $LN1@ModulePowe

; 493  :         return (result);
; 494  :     CommitNumber(*r);

	mov	ebx, DWORD PTR _r$[ebp]
	push	DWORD PTR [ebx]
	call	_CommitNumber

; 495  :     DeallocateBlock(q_buf, q_buf_words);

	push	DWORD PTR _q_buf_words$[ebp]
	push	DWORD PTR _q_buf$1$[ebp]
	call	_DeallocateBlock

; 496  :     DeallocateBlock(work_v_buf, work_v_buf_words);

	push	DWORD PTR _work_v_buf_words$[ebp]
	push	DWORD PTR _work_v_buf$1$[ebp]
	call	_DeallocateBlock

; 497  :     DeallocateBlock(work_2_buf, work_2_buf_words);

	push	DWORD PTR _work_2_buf_words$[ebp]
	push	DWORD PTR _work_2_buf$1$[ebp]
	call	_DeallocateBlock

; 498  :     DeallocateBlock(work_1_buf, work_1_buf_words);

	push	DWORD PTR _work_1_buf_words$[ebp]
	push	DWORD PTR _work_1_buf$1$[ebp]
	call	_DeallocateBlock

; 499  :     DeallocateBlock(v_2_buf, v_2_buf_words);

	push	DWORD PTR _v_2_buf_words$[ebp]
	push	DWORD PTR _v_2_buf$1$[ebp]
	call	_DeallocateBlock

; 500  : #ifdef DO_TRACE
; 501  :     ReportOUT(*r);
; 502  : #endif
; 503  :     return (PMC_STATUS_OK);
; 504  : }

	add	esp, 44					; 0000002cH
	xor	eax, eax
$LN1@ModulePowe:
	pop	edi
	pop	esi
	pop	ebx
	mov	esp, ebp
	pop	ebp
	ret	0
_ModulePower ENDP
_TEXT	ENDS
; Function compile flags: /Ogtp
; File z:\sources\lunor\repos\rougemeilland\palmtree.math.core.uint\palmtree.math.core.uint\pmc_modpow.c
; File z:\sources\lunor\repos\rougemeilland\palmtree.math.core.uint\palmtree.math.core.uint\pmc_inline_func.h
; File z:\sources\lunor\repos\rougemeilland\palmtree.math.core.uint\palmtree.math.core.uint\pmc_modpow.c
;	COMDAT _Remainder
_TEXT	SEGMENT
_r_check_code$1 = -24					; size = 4
_q_buf_code$2 = -20					; size = 4
_work_v_buf_code$3 = -16				; size = 4
_work_v_buf$1$ = -12					; size = 4
_q_buf$1$ = -8						; size = 4
_q_buf_words$4 = -4					; size = 4
_work_v_buf_words$5 = 8					; size = 4
_u$ = 8							; size = 4
_v$ = 12						; size = 4
_r$ = 16						; size = 4
_Remainder PROC						; COMDAT

; 105  : {

	push	ebp
	mov	ebp, esp
	sub	esp, 24					; 00000018H
	push	ebx

; 106  :     PMC_STATUS_CODE result;
; 107  : 
; 108  :     if (u->UNIT_BIT_COUNT < v->UNIT_BIT_COUNT)

	mov	ebx, DWORD PTR _u$[ebp]
	push	esi
	mov	esi, DWORD PTR _v$[ebp]
	push	edi
	mov	eax, DWORD PTR [esi+12]
	cmp	DWORD PTR [ebx+12], eax
	jae	SHORT $LN2@Remainder

; 109  :     {
; 110  :         if ((result = DuplicateNumber(u, r)) != PMC_STATUS_OK)

	push	DWORD PTR _r$[ebp]
	push	ebx
	call	_DuplicateNumber
	add	esp, 8
	test	eax, eax
	je	$LN3@Remainder

; 159  : }

	pop	edi
	pop	esi
	pop	ebx
	mov	esp, ebp
	pop	ebp
	ret	0
$LN2@Remainder:

; 111  :             return (result);
; 112  :     }
; 113  :     else
; 114  :     {
; 115  :         __UNIT_TYPE work_v_buf_code;
; 116  :         __UNIT_TYPE work_v_buf_words;
; 117  :         __UNIT_TYPE* work_v_buf = AllocateBlock(v->UNIT_BIT_COUNT, &work_v_buf_words, &work_v_buf_code);

	lea	ecx, DWORD PTR _work_v_buf_code$3[ebp]
	push	ecx
	lea	ecx, DWORD PTR _work_v_buf_words$5[ebp]
	push	ecx
	push	eax
	call	_AllocateBlock
	mov	edi, eax
	add	esp, 12					; 0000000cH
	mov	DWORD PTR _work_v_buf$1$[ebp], edi

; 118  :         if (work_v_buf == NULL)

	test	edi, edi
	je	SHORT $LN16@Remainder

; 119  :         {
; 120  :             return (PMC_STATUS_NOT_ENOUGH_MEMORY);
; 121  :         }
; 122  :         __UNIT_TYPE q_buf_code;
; 123  :         __UNIT_TYPE q_buf_words;
; 124  :         __UNIT_TYPE* q_buf = AllocateBlock(u->UNIT_BIT_COUNT - v->UNIT_BIT_COUNT + 1 + __UNIT_TYPE_BIT_COUNT, &q_buf_words, &q_buf_code);

	lea	eax, DWORD PTR _q_buf_code$2[ebp]
	push	eax
	lea	eax, DWORD PTR _q_buf_words$4[ebp]
	push	eax
	mov	eax, DWORD PTR [ebx+12]
	sub	eax, DWORD PTR [esi+12]
	add	eax, 33					; 00000021H
	push	eax
	call	_AllocateBlock
	mov	esi, eax
	add	esp, 12					; 0000000cH
	mov	DWORD PTR _q_buf$1$[ebp], esi

; 125  :         if (q_buf == NULL)

	test	esi, esi
	jne	SHORT $LN6@Remainder

; 126  :         {
; 127  :             DeallocateBlock(work_v_buf, work_v_buf_words);

	push	DWORD PTR _work_v_buf_words$5[ebp]
	push	edi
	call	_DeallocateBlock
	add	esp, 8
$LN16@Remainder:

; 159  : }

	pop	edi
	pop	esi
	mov	eax, -5					; fffffffbH
	pop	ebx
	mov	esp, ebp
	pop	ebp
	ret	0
$LN6@Remainder:

; 128  :             return (PMC_STATUS_NOT_ENOUGH_MEMORY);
; 129  :         }
; 130  :         __UNIT_TYPE r_check_code;
; 131  :         if ((result = AllocateNumber(r, u->UNIT_BIT_COUNT + __UNIT_TYPE_BIT_COUNT, &r_check_code)) != PMC_STATUS_OK)

	lea	eax, DWORD PTR _r_check_code$1[ebp]
	push	eax
	mov	eax, DWORD PTR [ebx+12]
	add	eax, 32					; 00000020H
	push	eax
	push	DWORD PTR _r$[ebp]
	call	_AllocateNumber
	add	esp, 12					; 0000000cH
	test	eax, eax
	je	SHORT $LN7@Remainder

; 132  :         {
; 133  :             DeallocateBlock(q_buf, q_buf_words);

	push	DWORD PTR _q_buf_words$4[ebp]
	push	esi
	call	_DeallocateBlock

; 134  :             DeallocateBlock(work_v_buf, work_v_buf_words);

	push	DWORD PTR _work_v_buf_words$5[ebp]
	push	edi
	call	_DeallocateBlock
	add	esp, 16					; 00000010H

; 135  :             return (PMC_STATUS_NOT_ENOUGH_MEMORY);

	mov	eax, -5					; fffffffbH
	pop	edi

; 159  : }

	pop	esi
	pop	ebx
	mov	esp, ebp
	pop	ebp
	ret	0
$LN7@Remainder:

; 136  :         }
; 137  : 
; 138  :         if (u->UNIT_WORD_COUNT < v->UNIT_WORD_COUNT)

	mov	ecx, DWORD PTR _v$[ebp]
	mov	edx, DWORD PTR [ebx+8]
	mov	eax, DWORD PTR _r$[ebp]
	cmp	edx, DWORD PTR [ecx+8]
	jae	SHORT $LN8@Remainder

; 139  :         {
; 140  :             q_buf[0] = 0;

	mov	DWORD PTR [esi], 0
; File z:\sources\lunor\repos\rougemeilland\palmtree.math.core.uint\palmtree.math.core.uint\pmc_inline_func.h

; 68   :         __movsd((unsigned long *)d, (unsigned long *)s, (unsigned long)count);

	mov	edi, DWORD PTR [eax]
	mov	esi, DWORD PTR [ebx+32]
	mov	ecx, DWORD PTR [ebx+8]
	mov	edi, DWORD PTR [edi+32]
	rep movsd
; File z:\sources\lunor\repos\rougemeilland\palmtree.math.core.uint\palmtree.math.core.uint\pmc_modpow.c

; 142  :         }

	mov	esi, DWORD PTR _q_buf$1$[ebp]
	mov	edi, DWORD PTR _work_v_buf$1$[ebp]
	jmp	SHORT $LN12@Remainder
$LN8@Remainder:

; 143  :         else
; 144  :         {
; 145  :             DivRem_X_X(u->BLOCK, u->UNIT_WORD_COUNT, v->BLOCK, v->UNIT_WORD_COUNT, work_v_buf, q_buf, (*r)->BLOCK);

	mov	eax, DWORD PTR [eax]
	push	DWORD PTR [eax+32]
	push	esi
	push	edi
	push	DWORD PTR [ecx+8]
	push	DWORD PTR [ecx+32]
	push	edx
	push	DWORD PTR [ebx+32]
	call	_DivRem_X_X

; 146  :             if ((result = CheckBlockLight(work_v_buf, work_v_buf_code)) != PMC_STATUS_OK)

	push	DWORD PTR _work_v_buf_code$3[ebp]
	push	edi
	call	_CheckBlockLight
	add	esp, 36					; 00000024H
	test	eax, eax
	jne	SHORT $LN1@Remainder

; 147  :                 return (result);
; 148  :             if ((result = CheckBlockLight(q_buf, q_buf_code)) != PMC_STATUS_OK)

	push	DWORD PTR _q_buf_code$2[ebp]
	push	esi
	call	_CheckBlockLight
	add	esp, 8
	test	eax, eax
	jne	SHORT $LN1@Remainder

; 149  :                 return (result);
; 150  :             if ((result = CheckBlockLight((*r)->BLOCK, r_check_code)) != PMC_STATUS_OK)

	mov	eax, DWORD PTR _r$[ebp]
	push	DWORD PTR _r_check_code$1[ebp]
	mov	eax, DWORD PTR [eax]
	push	DWORD PTR [eax+32]
	call	_CheckBlockLight
	add	esp, 8
	test	eax, eax
	jne	SHORT $LN1@Remainder
$LN12@Remainder:

; 151  :                 return (result);
; 152  :         }
; 153  : 
; 154  :         DeallocateBlock(q_buf, q_buf_words);

	push	DWORD PTR _q_buf_words$4[ebp]
	push	esi
	call	_DeallocateBlock

; 155  :         DeallocateBlock(work_v_buf, work_v_buf_words);

	push	DWORD PTR _work_v_buf_words$5[ebp]
	push	edi
	call	_DeallocateBlock

; 156  :         CommitNumber(*r);

	mov	eax, DWORD PTR _r$[ebp]
	push	DWORD PTR [eax]
	call	_CommitNumber
	add	esp, 20					; 00000014H
$LN3@Remainder:

; 157  :     }
; 158  :     return (PMC_STATUS_OK);

	xor	eax, eax
$LN1@Remainder:
	pop	edi

; 159  : }

	pop	esi
	pop	ebx
	mov	esp, ebp
	pop	ebp
	ret	0
_Remainder ENDP
_TEXT	ENDS
; Function compile flags: /Ogtp
; File z:\sources\lunor\repos\rougemeilland\palmtree.math.core.uint\palmtree.math.core.uint\pmc_modpow.c
;	COMDAT _SwapPointer
_TEXT	SEGMENT
_u$ = 8							; size = 4
_v$ = 12						; size = 4
_SwapPointer PROC					; COMDAT

; 98   : {

	push	ebp
	mov	ebp, esp

; 99   :     __UNIT_TYPE* t = *u;

	mov	edx, DWORD PTR _u$[ebp]

; 100  :     *u = *v;

	mov	ecx, DWORD PTR _v$[ebp]
	push	esi
	mov	esi, DWORD PTR [edx]
	mov	eax, DWORD PTR [ecx]
	mov	DWORD PTR [edx], eax

; 101  :     *v = t;

	mov	DWORD PTR [ecx], esi
	pop	esi

; 102  : }

	pop	ebp
	ret	0
_SwapPointer ENDP
_TEXT	ENDS
; Function compile flags: /Ogtp
; File z:\sources\lunor\repos\rougemeilland\palmtree.math.core.uint\palmtree.math.core.uint\pmc_modpow.c
;	COMDAT _Compare_Easy
_TEXT	SEGMENT
_u$ = 8							; size = 4
_u_count$ = 12						; size = 4
_v$ = 16						; size = 4
_v_count$ = 20						; size = 4
_Compare_Easy PROC					; COMDAT

; 88   : {

	push	ebp
	mov	ebp, esp

; 89   :     if (u_count > v_count)

	mov	eax, DWORD PTR _u_count$[ebp]
	cmp	eax, DWORD PTR _v_count$[ebp]
	jbe	SHORT $LN2@Compare_Ea

; 90   :         return (1);

	mov	eax, 1

; 95   : }

	pop	ebp
	ret	0
$LN2@Compare_Ea:

; 91   :     else if (u_count < v_count)

	jae	SHORT $LN4@Compare_Ea

; 92   :         return (-1);

	or	eax, -1

; 95   : }

	pop	ebp
	ret	0
$LN4@Compare_Ea:

; 93   :     else
; 94   :         return (Compare_Imp(u, v, u_count));

	push	eax
	push	DWORD PTR _v$[ebp]
	push	DWORD PTR _u$[ebp]
	call	_Compare_Imp
	add	esp, 12					; 0000000cH

; 95   : }

	pop	ebp
	ret	0
_Compare_Easy ENDP
_TEXT	ENDS
; Function compile flags: /Ogtp
; File z:\sources\lunor\repos\rougemeilland\palmtree.math.core.uint\palmtree.math.core.uint\pmc_inline_func.h
;	COMDAT __LZCNT_ALT_UNIT
_TEXT	SEGMENT
_x$ = 8							; size = 4
__LZCNT_ALT_UNIT PROC					; COMDAT

; 629  :     {

	push	ebp
	mov	ebp, esp

; 630  :         if (x == 0)

	mov	eax, DWORD PTR _x$[ebp]
	test	eax, eax
	jne	SHORT $LN2@LZCNT_ALT_

; 631  :             return (sizeof(x) * 8);

	mov	eax, 32					; 00000020H

; 655  :     }

	pop	ebp
	ret	0
$LN2@LZCNT_ALT_:

; 632  : #ifdef _M_IX86
; 633  :         _UINT32_T pos;
; 634  : #ifdef _MSC_VER
; 635  :         _BitScanReverse(&pos, x);

	bsr	ecx, eax

; 636  : #elif defined(__GNUC__)
; 637  :         __asm__("bsrl %1, %0" : "=r"(pos) : "rm"(x));
; 638  : #else
; 639  : #error unknown compiler
; 640  : #endif
; 641  : #elif defined(_M_X64)
; 642  : #ifdef _MSC_VER
; 643  :         _UINT32_T pos;
; 644  :         _BitScanReverse64(&pos, x);
; 645  : #elif defined(__GNUC__)
; 646  :         _UINT64_T pos;
; 647  :         __asm__("bsrq %1, %0" : "=r"(pos) : "rm"(x));
; 648  : #else
; 649  : #error unknown compiler
; 650  : #endif
; 651  : #else
; 652  : #error unknown platform
; 653  : #endif
; 654  :         return (sizeof(x) * 8 - 1 - pos);

	mov	eax, 31					; 0000001fH
	sub	eax, ecx

; 655  :     }

	pop	ebp
	ret	0
__LZCNT_ALT_UNIT ENDP
_TEXT	ENDS
; Function compile flags: /Ogtp
; File z:\sources\lunor\repos\rougemeilland\palmtree.math.core.uint\palmtree.math.core.uint\pmc_inline_func.h
;	COMDAT __MAXIMUM_UNIT
_TEXT	SEGMENT
_x$ = 8							; size = 4
_y$ = 12						; size = 4
__MAXIMUM_UNIT PROC					; COMDAT

; 203  :     {

	push	ebp
	mov	ebp, esp

; 204  :         return (x >= y ? x : y);

	mov	eax, DWORD PTR _y$[ebp]
	cmp	DWORD PTR _x$[ebp], eax
	cmovae	eax, DWORD PTR _x$[ebp]

; 205  :     }

	pop	ebp
	ret	0
__MAXIMUM_UNIT ENDP
_TEXT	ENDS
; Function compile flags: /Ogtp
; File z:\sources\lunor\repos\rougemeilland\palmtree.math.core.uint\palmtree.math.core.uint\pmc_inline_func.h
;	COMDAT __ZERO_MEMORY_UNIT
_TEXT	SEGMENT
_d$ = 8							; size = 4
_count$ = 12						; size = 4
__ZERO_MEMORY_UNIT PROC					; COMDAT

; 116  :     {

	push	ebp
	mov	ebp, esp

; 117  : #ifdef _M_IX86
; 118  :         __stosd((unsigned long*)d, 0, (unsigned long)count);

	mov	ecx, DWORD PTR _count$[ebp]
	xor	eax, eax
	push	edi
	mov	edi, DWORD PTR _d$[ebp]
	rep stosd
	pop	edi

; 119  : #elif defined(_M_X64)
; 120  :         __stosq(d, 0, count);
; 121  : #else
; 122  : #error unknown platform
; 123  : #endif
; 124  :     }

	pop	ebp
	ret	0
__ZERO_MEMORY_UNIT ENDP
_TEXT	ENDS
; Function compile flags: /Ogtp
; File z:\sources\lunor\repos\rougemeilland\palmtree.math.core.uint\palmtree.math.core.uint\pmc_inline_func.h
;	COMDAT __COPY_MEMORY_UNIT
_TEXT	SEGMENT
_d$ = 8							; size = 4
_s$ = 12						; size = 4
_count$ = 16						; size = 4
__COPY_MEMORY_UNIT PROC					; COMDAT

; 66   :     {

	push	ebp
	mov	ebp, esp

; 67   : #ifdef _M_IX86
; 68   :         __movsd((unsigned long *)d, (unsigned long *)s, (unsigned long)count);

	mov	ecx, DWORD PTR _count$[ebp]
	push	esi
	mov	esi, DWORD PTR _s$[ebp]
	push	edi
	mov	edi, DWORD PTR _d$[ebp]
	rep movsd
	pop	edi
	pop	esi

; 69   : #elif defined(_M_X64)
; 70   :         __movsq(d, s, count);
; 71   : #else
; 72   : #error unknown platform
; 73   : #endif
; 74   :     }

	pop	ebp
	ret	0
__COPY_MEMORY_UNIT ENDP
_TEXT	ENDS
; Function compile flags: /Ogtp
; File z:\sources\lunor\repos\rougemeilland\palmtree.math.core.uint\palmtree.math.core.uint\pmc_modpow.c
;	COMDAT _PMC_ModPow_X_X_X@16
_TEXT	SEGMENT
_v$ = 8							; size = 4
_e$ = 12						; size = 4
_m$ = 16						; size = 4
_r$ = 20						; size = 4
_PMC_ModPow_X_X_X@16 PROC				; COMDAT

; 602  : {

	push	ebp
	mov	ebp, esp
	push	ebx

; 603  :     if (v == NULL)

	mov	ebx, DWORD PTR _v$[ebp]
	push	esi
	push	edi
	test	ebx, ebx
	je	SHORT $LN35@PMC_ModPow

; 604  :         return (PMC_STATUS_ARGUMENT_ERROR);
; 605  :     if (e == NULL)

	mov	edi, DWORD PTR _e$[ebp]
	test	edi, edi
	je	SHORT $LN35@PMC_ModPow

; 606  :         return (PMC_STATUS_ARGUMENT_ERROR);
; 607  :     if (m == NULL)

	cmp	DWORD PTR _m$[ebp], 0
	je	SHORT $LN35@PMC_ModPow

; 608  :         return (PMC_STATUS_ARGUMENT_ERROR);
; 609  :     if (r == NULL)

	mov	esi, DWORD PTR _r$[ebp]
	test	esi, esi
	je	SHORT $LN35@PMC_ModPow

; 610  :         return (PMC_STATUS_ARGUMENT_ERROR);
; 611  :     PMC_STATUS_CODE result;
; 612  :     if ((result = CheckNumber((NUMBER_HEADER*)v)) != PMC_STATUS_OK)

	push	ebx
	call	_CheckNumber
	add	esp, 4
	test	eax, eax
	jne	SHORT $LN1@PMC_ModPow

; 613  :         return (result);
; 614  :     if ((result = CheckNumber((NUMBER_HEADER*)e)) != PMC_STATUS_OK)

	push	edi
	call	_CheckNumber
	add	esp, 4
	test	eax, eax
	jne	SHORT $LN1@PMC_ModPow

; 615  :         return (result);
; 616  :     if ((result = CheckNumber((NUMBER_HEADER*)m)) != PMC_STATUS_OK)

	push	DWORD PTR _m$[ebp]
	call	_CheckNumber
	add	esp, 4
	test	eax, eax
	jne	SHORT $LN1@PMC_ModPow

; 510  :     if (m->IS_ZERO)

	mov	eax, DWORD PTR _m$[ebp]
	mov	edx, DWORD PTR [eax+24]
	test	dl, 2
	je	SHORT $LN12@PMC_ModPow

; 625  : }

	pop	edi
	pop	esi

; 515  :         return (PMC_STATUS_DIVISION_BY_ZERO);

	mov	eax, -3					; fffffffdH

; 625  : }

	pop	ebx
	pop	ebp
	ret	16					; 00000010H
$LN12@PMC_ModPow:

; 517  :     else if (m->IS_ONE)

	mov	ecx, DWORD PTR [ebx+24]
	and	ecx, 2
	test	dl, 4
	je	SHORT $LN14@PMC_ModPow

; 518  :     {
; 519  :         // m が 1 の場合
; 520  :         if (v->IS_ZERO)

	test	ecx, ecx
	je	SHORT $LN22@PMC_ModPow

; 521  :         {
; 522  :             // v が 0 の場合
; 523  :             if (e->IS_ZERO)

	test	BYTE PTR [edi+24], 2
	je	SHORT $LN22@PMC_ModPow
$LN35@PMC_ModPow:

; 625  : }

	or	eax, -1
$LN1@PMC_ModPow:
	pop	edi
	pop	esi
	pop	ebx
	pop	ebp
	ret	16					; 00000010H
$LN14@PMC_ModPow:

; 549  :         if (v->IS_ZERO)

	test	ecx, ecx
	je	SHORT $LN20@PMC_ModPow

; 550  :         {
; 551  :             // v が 0 の場合
; 552  :             if (e->IS_ZERO)

	test	BYTE PTR [edi+24], 2
	jne	SHORT $LN35@PMC_ModPow
$LN22@PMC_ModPow:
	pop	edi

; 620  : #ifdef _DEBUG
; 621  :     if ((result = CheckNumber(*r)) != PMC_STATUS_OK)
; 622  :         return (result);
; 623  : #endif
; 624  :     return (PMC_STATUS_OK);

	mov	DWORD PTR [esi], OFFSET _number_zero
	xor	eax, eax

; 625  : }

	pop	esi
	pop	ebx
	pop	ebp
	ret	16					; 00000010H
$LN20@PMC_ModPow:

; 566  :         else if (v->IS_ONE)

	test	BYTE PTR [ebx+24], 4
	jne	SHORT $LN34@PMC_ModPow

; 567  :         {
; 568  :             // v が 1 の場合
; 569  : 
; 570  :             // 1 を何乗しても 1 であり、1 を 2 以上の数で割ればその剰余は必ず 1 となる
; 571  :             *r = &number_one;
; 572  :         }
; 573  :         else
; 574  :         {
; 575  :             // v が 2 以上の場合
; 576  :             if (e->IS_ZERO)

	mov	ecx, DWORD PTR [edi+24]
	test	cl, 2
	jne	SHORT $LN34@PMC_ModPow

; 580  :             }
; 581  :             else if (e->IS_ONE)

	push	esi
	push	eax
	test	cl, 4
	je	SHORT $LN28@PMC_ModPow

; 582  :             {
; 583  :                 // e が 1 の場合
; 584  : 
; 585  :                 // v % m を計算して返す
; 586  :                 if ((result = Remainder(v, m, r)) != PMC_STATUS_OK)

	push	ebx
	call	_Remainder
	add	esp, 12					; 0000000cH

; 587  :                     return (result);

	jmp	SHORT $LN37@PMC_ModPow
$LN28@PMC_ModPow:

; 588  :             }
; 589  :             else
; 590  :             {
; 591  :                 // v、e、m がすべて 2 以上である場合
; 592  :                 // v の e 乗 の m による剰余を計算して返す
; 593  :                 if ((result = ModulePower(v, e, m, r)) != PMC_STATUS_OK)

	push	edi
	push	ebx
	call	_ModulePower
	add	esp, 16					; 00000010H
$LN37@PMC_ModPow:

; 617  :         return (result);
; 618  :     if ((result = PMC_ModPow_X_X_X_Imp((NUMBER_HEADER*)v, (NUMBER_HEADER*)e, (NUMBER_HEADER*)m, (NUMBER_HEADER**)r)) != PMC_STATUS_OK)
; 619  :         return (result);

	test	eax, eax
	je	SHORT $LN9@PMC_ModPow

; 625  : }

	pop	edi
	pop	esi
	pop	ebx
	pop	ebp
	ret	16					; 00000010H
$LN34@PMC_ModPow:

; 579  :                 *r = &number_one;

	mov	DWORD PTR [esi], OFFSET _number_one
$LN9@PMC_ModPow:
	pop	edi

; 625  : }

	pop	esi
	xor	eax, eax
	pop	ebx
	pop	ebp
	ret	16					; 00000010H
_PMC_ModPow_X_X_X@16 ENDP
_TEXT	ENDS
; Function compile flags: /Ogtp
; File z:\sources\lunor\repos\rougemeilland\palmtree.math.core.uint\palmtree.math.core.uint\pmc_modpow.c
;	COMDAT _Initialize_ModPow
_TEXT	SEGMENT
_feature$ = 8						; size = 4
_Initialize_ModPow PROC					; COMDAT

; 629  :     return (PMC_STATUS_OK);

	xor	eax, eax

; 630  : }

	ret	0
_Initialize_ModPow ENDP
_TEXT	ENDS
END
