; Listing generated by Microsoft (R) Optimizing Compiler Version 19.16.27027.1 

	TITLE	Z:\Sources\Lunor\Repos\rougemeilland\Palmtree.Math.Core.Uint\Palmtree.Math.Core.Uint\pmc_greatestcommondivisor.cpp
	.686P
	.XMM
	include listing.inc
	.model	flat

INCLUDELIB MSVCRT
INCLUDELIB OLDNAMES

PUBLIC	??1exception@std@@UAE@XZ			; std::exception::~exception
PUBLIC	?what@exception@std@@UBEPBDXZ			; std::exception::what
PUBLIC	??_Gexception@std@@UAEPAXI@Z			; std::exception::`scalar deleting destructor'
PUBLIC	??0Exception@Internal@Core@Math@Palmtree@@QAE@ABV01234@@Z ; Palmtree::Math::Core::Internal::Exception::Exception
PUBLIC	??1Exception@Internal@Core@Math@Palmtree@@UAE@XZ ; Palmtree::Math::Core::Internal::Exception::~Exception
PUBLIC	??_GException@Internal@Core@Math@Palmtree@@UAEPAXI@Z ; Palmtree::Math::Core::Internal::Exception::`scalar deleting destructor'
PUBLIC	??0ArgumentNullException@Internal@Core@Math@Palmtree@@QAE@PB_W0@Z ; Palmtree::Math::Core::Internal::ArgumentNullException::ArgumentNullException
PUBLIC	??0ArgumentNullException@Internal@Core@Math@Palmtree@@QAE@ABV01234@@Z ; Palmtree::Math::Core::Internal::ArgumentNullException::ArgumentNullException
PUBLIC	??1ArgumentNullException@Internal@Core@Math@Palmtree@@UAE@XZ ; Palmtree::Math::Core::Internal::ArgumentNullException::~ArgumentNullException
PUBLIC	??_GArgumentNullException@Internal@Core@Math@Palmtree@@UAEPAXI@Z ; Palmtree::Math::Core::Internal::ArgumentNullException::`scalar deleting destructor'
PUBLIC	??0ArithmeticException@Internal@Core@Math@Palmtree@@QAE@PB_W@Z ; Palmtree::Math::Core::Internal::ArithmeticException::ArithmeticException
PUBLIC	??1ArithmeticException@Internal@Core@Math@Palmtree@@UAE@XZ ; Palmtree::Math::Core::Internal::ArithmeticException::~ArithmeticException
PUBLIC	??0ArithmeticException@Internal@Core@Math@Palmtree@@QAE@ABV01234@@Z ; Palmtree::Math::Core::Internal::ArithmeticException::ArithmeticException
PUBLIC	??_GArithmeticException@Internal@Core@Math@Palmtree@@UAEPAXI@Z ; Palmtree::Math::Core::Internal::ArithmeticException::`scalar deleting destructor'
PUBLIC	??0InternalErrorException@Internal@Core@Math@Palmtree@@QAE@PB_W0@Z ; Palmtree::Math::Core::Internal::InternalErrorException::InternalErrorException
PUBLIC	??0InternalErrorException@Internal@Core@Math@Palmtree@@QAE@ABV01234@@Z ; Palmtree::Math::Core::Internal::InternalErrorException::InternalErrorException
PUBLIC	??1InternalErrorException@Internal@Core@Math@Palmtree@@UAE@XZ ; Palmtree::Math::Core::Internal::InternalErrorException::~InternalErrorException
PUBLIC	??_GInternalErrorException@Internal@Core@Math@Palmtree@@UAEPAXI@Z ; Palmtree::Math::Core::Internal::InternalErrorException::`scalar deleting destructor'
PUBLIC	?Initialize_GreatestCommonDivisor@Internal@Core@Math@Palmtree@@YAHPAU_tag_PROCESSOR_FEATURES@1234@@Z ; Palmtree::Math::Core::Internal::Initialize_GreatestCommonDivisor
PUBLIC	?PMC_GreatestCommonDivisor_I_X@Internal@Core@Math@Palmtree@@YGPAU__tag_PMC_HANDLE_UINT@1234@IPAU51234@@Z ; Palmtree::Math::Core::Internal::PMC_GreatestCommonDivisor_I_X
PUBLIC	?PMC_GreatestCommonDivisor_L_X@Internal@Core@Math@Palmtree@@YGPAU__tag_PMC_HANDLE_UINT@1234@_KPAU51234@@Z ; Palmtree::Math::Core::Internal::PMC_GreatestCommonDivisor_L_X
PUBLIC	?PMC_GreatestCommonDivisor_X_I@Internal@Core@Math@Palmtree@@YGPAU__tag_PMC_HANDLE_UINT@1234@PAU51234@I@Z ; Palmtree::Math::Core::Internal::PMC_GreatestCommonDivisor_X_I
PUBLIC	?PMC_GreatestCommonDivisor_X_L@Internal@Core@Math@Palmtree@@YGPAU__tag_PMC_HANDLE_UINT@1234@PAU51234@_K@Z ; Palmtree::Math::Core::Internal::PMC_GreatestCommonDivisor_X_L
PUBLIC	?PMC_GreatestCommonDivisor_X_X@Internal@Core@Math@Palmtree@@YGPAU__tag_PMC_HANDLE_UINT@1234@PAU51234@0@Z ; Palmtree::Math::Core::Internal::PMC_GreatestCommonDivisor_X_X
PUBLIC	??_7exception@std@@6B@				; std::exception::`vftable'
PUBLIC	??_C@_0BC@EOODALEL@Unknown?5exception@		; `string'
PUBLIC	??_7Exception@Internal@Core@Math@Palmtree@@6B@	; Palmtree::Math::Core::Internal::Exception::`vftable'
PUBLIC	??_7ArgumentNullException@Internal@Core@Math@Palmtree@@6B@ ; Palmtree::Math::Core::Internal::ArgumentNullException::`vftable'
PUBLIC	??_7ArithmeticException@Internal@Core@Math@Palmtree@@6B@ ; Palmtree::Math::Core::Internal::ArithmeticException::`vftable'
PUBLIC	??_7InternalErrorException@Internal@Core@Math@Palmtree@@6B@ ; Palmtree::Math::Core::Internal::InternalErrorException::`vftable'
PUBLIC	__TI2?AVInternalErrorException@Internal@Core@Math@Palmtree@@
PUBLIC	__CTA2?AVInternalErrorException@Internal@Core@Math@Palmtree@@
PUBLIC	??_R0?AVInternalErrorException@Internal@Core@Math@Palmtree@@@8 ; Palmtree::Math::Core::Internal::InternalErrorException `RTTI Type Descriptor'
PUBLIC	__CT??_R0?AVInternalErrorException@Internal@Core@Math@Palmtree@@@8??0InternalErrorException@Internal@Core@Math@Palmtree@@QAE@ABV01234@@Z24
PUBLIC	??_R0?AVException@Internal@Core@Math@Palmtree@@@8 ; Palmtree::Math::Core::Internal::Exception `RTTI Type Descriptor'
PUBLIC	__CT??_R0?AVException@Internal@Core@Math@Palmtree@@@8??0Exception@Internal@Core@Math@Palmtree@@QAE@ABV01234@@Z24
PUBLIC	??_C@_1CG@CNOPPENL@?$PP?$II?$AA?$BP?$AAW?$AAf?$AAD?$AAj?$AAD?$PP?$LD?$PP?$PM?$PP?I?$AAk?$AA0?$AAT?$AAW?$AA?$HO@ ; `string'
PUBLIC	??_C@_1HE@ECAGDGPP@?$AAp?$AAm?$AAc?$AA_?$AAg?$AAr?$AAe?$AAa?$AAt?$AAe?$AAs?$AAt?$AAc?$AAo?$AAm@ ; `string'
PUBLIC	??_C@_1HK@DNJBGJKK@?$AAp?$AAm?$AAc?$AA_?$AAg?$AAr?$AAe?$AAa?$AAt?$AAe?$AAs?$AAt?$AAc?$AAo?$AAm@ ; `string'
PUBLIC	__TI2?AVArithmeticException@Internal@Core@Math@Palmtree@@
PUBLIC	__CTA2?AVArithmeticException@Internal@Core@Math@Palmtree@@
PUBLIC	??_R0?AVArithmeticException@Internal@Core@Math@Palmtree@@@8 ; Palmtree::Math::Core::Internal::ArithmeticException `RTTI Type Descriptor'
PUBLIC	__CT??_R0?AVArithmeticException@Internal@Core@Math@Palmtree@@@8??0ArithmeticException@Internal@Core@Math@Palmtree@@QAE@ABV01234@@Z24
PUBLIC	??_C@_1DO@NPBJHMD@?$AA?$BF?$AAp?$AAL?$AA2?$AAd?$AAh?$PP?$IC?$AA0?$AAj?$AAn?$AAg?$AAG?$AAC?$AAD?$PP?$JC@ ; `string'
PUBLIC	__TI2?AVArgumentNullException@Internal@Core@Math@Palmtree@@
PUBLIC	__CTA2?AVArgumentNullException@Internal@Core@Math@Palmtree@@
PUBLIC	??_R0?AVArgumentNullException@Internal@Core@Math@Palmtree@@@8 ; Palmtree::Math::Core::Internal::ArgumentNullException `RTTI Type Descriptor'
PUBLIC	__CT??_R0?AVArgumentNullException@Internal@Core@Math@Palmtree@@@8??0ArgumentNullException@Internal@Core@Math@Palmtree@@QAE@ABV01234@@Z24
PUBLIC	??_C@_13JAOPNPKD@?$AAv@				; `string'
PUBLIC	??_C@_1CK@ECFIEPAC@?$AA?$BF?$AAp?$AAk?$AAn?$AAu?$AAl?$AAl?$AAp?$AAt?$AAr?$AAL?$AA?$AO?$AAH?$PP?$IJ?$PP?$IM@ ; `string'
PUBLIC	??_C@_13ICFKHAEN@?$AAu@				; `string'
PUBLIC	??_R4exception@std@@6B@				; std::exception::`RTTI Complete Object Locator'
PUBLIC	??_R0?AVexception@std@@@8			; std::exception `RTTI Type Descriptor'
PUBLIC	??_R3exception@std@@8				; std::exception::`RTTI Class Hierarchy Descriptor'
PUBLIC	??_R2exception@std@@8				; std::exception::`RTTI Base Class Array'
PUBLIC	??_R1A@?0A@EA@exception@std@@8			; std::exception::`RTTI Base Class Descriptor at (0,-1,0,64)'
PUBLIC	??_R4Exception@Internal@Core@Math@Palmtree@@6B@	; Palmtree::Math::Core::Internal::Exception::`RTTI Complete Object Locator'
PUBLIC	??_R3Exception@Internal@Core@Math@Palmtree@@8	; Palmtree::Math::Core::Internal::Exception::`RTTI Class Hierarchy Descriptor'
PUBLIC	??_R2Exception@Internal@Core@Math@Palmtree@@8	; Palmtree::Math::Core::Internal::Exception::`RTTI Base Class Array'
PUBLIC	??_R1A@?0A@EA@Exception@Internal@Core@Math@Palmtree@@8 ; Palmtree::Math::Core::Internal::Exception::`RTTI Base Class Descriptor at (0,-1,0,64)'
PUBLIC	??_R1A@?0A@EN@exception@std@@8			; std::exception::`RTTI Base Class Descriptor at (0,-1,0,77)'
PUBLIC	??_R4ArgumentNullException@Internal@Core@Math@Palmtree@@6B@ ; Palmtree::Math::Core::Internal::ArgumentNullException::`RTTI Complete Object Locator'
PUBLIC	??_R3ArgumentNullException@Internal@Core@Math@Palmtree@@8 ; Palmtree::Math::Core::Internal::ArgumentNullException::`RTTI Class Hierarchy Descriptor'
PUBLIC	??_R2ArgumentNullException@Internal@Core@Math@Palmtree@@8 ; Palmtree::Math::Core::Internal::ArgumentNullException::`RTTI Base Class Array'
PUBLIC	??_R1A@?0A@EA@ArgumentNullException@Internal@Core@Math@Palmtree@@8 ; Palmtree::Math::Core::Internal::ArgumentNullException::`RTTI Base Class Descriptor at (0,-1,0,64)'
PUBLIC	??_R4ArithmeticException@Internal@Core@Math@Palmtree@@6B@ ; Palmtree::Math::Core::Internal::ArithmeticException::`RTTI Complete Object Locator'
PUBLIC	??_R3ArithmeticException@Internal@Core@Math@Palmtree@@8 ; Palmtree::Math::Core::Internal::ArithmeticException::`RTTI Class Hierarchy Descriptor'
PUBLIC	??_R2ArithmeticException@Internal@Core@Math@Palmtree@@8 ; Palmtree::Math::Core::Internal::ArithmeticException::`RTTI Base Class Array'
PUBLIC	??_R1A@?0A@EA@ArithmeticException@Internal@Core@Math@Palmtree@@8 ; Palmtree::Math::Core::Internal::ArithmeticException::`RTTI Base Class Descriptor at (0,-1,0,64)'
PUBLIC	??_R4InternalErrorException@Internal@Core@Math@Palmtree@@6B@ ; Palmtree::Math::Core::Internal::InternalErrorException::`RTTI Complete Object Locator'
PUBLIC	??_R3InternalErrorException@Internal@Core@Math@Palmtree@@8 ; Palmtree::Math::Core::Internal::InternalErrorException::`RTTI Class Hierarchy Descriptor'
PUBLIC	??_R2InternalErrorException@Internal@Core@Math@Palmtree@@8 ; Palmtree::Math::Core::Internal::InternalErrorException::`RTTI Base Class Array'
PUBLIC	??_R1A@?0A@EA@InternalErrorException@Internal@Core@Math@Palmtree@@8 ; Palmtree::Math::Core::Internal::InternalErrorException::`RTTI Base Class Descriptor at (0,-1,0,64)'
EXTRN	??3@YAXPAXI@Z:PROC				; operator delete
EXTRN	___std_exception_destroy:PROC
EXTRN	??_Eexception@std@@UAEPAXI@Z:PROC		; std::exception::`vector deleting destructor'
EXTRN	??_EException@Internal@Core@Math@Palmtree@@UAEPAXI@Z:PROC ; Palmtree::Math::Core::Internal::Exception::`vector deleting destructor'
EXTRN	??_EArgumentNullException@Internal@Core@Math@Palmtree@@UAEPAXI@Z:PROC ; Palmtree::Math::Core::Internal::ArgumentNullException::`vector deleting destructor'
EXTRN	??_EArithmeticException@Internal@Core@Math@Palmtree@@UAEPAXI@Z:PROC ; Palmtree::Math::Core::Internal::ArithmeticException::`vector deleting destructor'
EXTRN	??_EInternalErrorException@Internal@Core@Math@Palmtree@@UAEPAXI@Z:PROC ; Palmtree::Math::Core::Internal::InternalErrorException::`vector deleting destructor'
EXTRN	?CommitNumber@Internal@Core@Math@Palmtree@@YAXPAU__tag_NUMBER_HEADER@1234@@Z:PROC ; Palmtree::Math::Core::Internal::CommitNumber
EXTRN	?CheckNumber@Internal@Core@Math@Palmtree@@YAXPAU__tag_NUMBER_HEADER@1234@@Z:PROC ; Palmtree::Math::Core::Internal::CheckNumber
EXTRN	?DuplicateNumber@Internal@Core@Math@Palmtree@@YAPAU__tag_NUMBER_HEADER@1234@PAU51234@@Z:PROC ; Palmtree::Math::Core::Internal::DuplicateNumber
EXTRN	?From_I_Imp@Internal@Core@Math@Palmtree@@YAPAU__tag_NUMBER_HEADER@1234@I@Z:PROC ; Palmtree::Math::Core::Internal::From_I_Imp
EXTRN	?From_L_Imp@Internal@Core@Math@Palmtree@@YAPAU__tag_NUMBER_HEADER@1234@_K@Z:PROC ; Palmtree::Math::Core::Internal::From_L_Imp
EXTRN	?RightShift_Imp@Internal@Core@Math@Palmtree@@YAXPAIII0H@Z:PROC ; Palmtree::Math::Core::Internal::RightShift_Imp
EXTRN	?LeftShift_Imp@Internal@Core@Math@Palmtree@@YAXPAIII0H@Z:PROC ; Palmtree::Math::Core::Internal::LeftShift_Imp
EXTRN	?Subtruct_Imp@Internal@Core@Math@Palmtree@@YAXPAII0I0I@Z:PROC ; Palmtree::Math::Core::Internal::Subtruct_Imp
EXTRN	?Compare_Imp@Internal@Core@Math@Palmtree@@YAHPAI0I@Z:PROC ; Palmtree::Math::Core::Internal::Compare_Imp
EXTRN	??0ResourceHolderUINT@Internal@Core@Math@Palmtree@@QAE@XZ:PROC ; Palmtree::Math::Core::Internal::ResourceHolderUINT::ResourceHolderUINT
EXTRN	??1ResourceHolderUINT@Internal@Core@Math@Palmtree@@UAE@XZ:PROC ; Palmtree::Math::Core::Internal::ResourceHolderUINT::~ResourceHolderUINT
EXTRN	?AllocateBlock@ResourceHolderUINT@Internal@Core@Math@Palmtree@@QAEPAII@Z:PROC ; Palmtree::Math::Core::Internal::ResourceHolderUINT::AllocateBlock
EXTRN	?DeallocateBlock@ResourceHolderUINT@Internal@Core@Math@Palmtree@@QAEXPAI@Z:PROC ; Palmtree::Math::Core::Internal::ResourceHolderUINT::DeallocateBlock
EXTRN	?CheckBlock@ResourceHolderUINT@Internal@Core@Math@Palmtree@@QAEXPAI@Z:PROC ; Palmtree::Math::Core::Internal::ResourceHolderUINT::CheckBlock
EXTRN	?AllocateNumber@ResourceHolderUINT@Internal@Core@Math@Palmtree@@QAEPAU__tag_NUMBER_HEADER@2345@I@Z:PROC ; Palmtree::Math::Core::Internal::ResourceHolderUINT::AllocateNumber
EXTRN	?HookNumber@ResourceHolderUINT@Internal@Core@Math@Palmtree@@QAEXPAU__tag_NUMBER_HEADER@2345@@Z:PROC ; Palmtree::Math::Core::Internal::ResourceHolderUINT::HookNumber
EXTRN	?CheckNumber@ResourceHolderUINT@Internal@Core@Math@Palmtree@@QAEXPAU__tag_NUMBER_HEADER@2345@@Z:PROC ; Palmtree::Math::Core::Internal::ResourceHolderUINT::CheckNumber
EXTRN	?UnlinkNumber@ResourceHolderUINT@Internal@Core@Math@Palmtree@@QAEXPAU__tag_NUMBER_HEADER@2345@@Z:PROC ; Palmtree::Math::Core::Internal::ResourceHolderUINT::UnlinkNumber
EXTRN	@__security_check_cookie@4:PROC
EXTRN	__CxxThrowException@8:PROC
EXTRN	___CxxFrameHandler3:PROC
EXTRN	??_7type_info@@6B@:QWORD			; type_info::`vftable'
EXTRN	___security_cookie:DWORD
;	COMDAT ??_R1A@?0A@EA@InternalErrorException@Internal@Core@Math@Palmtree@@8
rdata$r	SEGMENT
??_R1A@?0A@EA@InternalErrorException@Internal@Core@Math@Palmtree@@8 DD FLAT:??_R0?AVInternalErrorException@Internal@Core@Math@Palmtree@@@8 ; Palmtree::Math::Core::Internal::InternalErrorException::`RTTI Base Class Descriptor at (0,-1,0,64)'
	DD	02H
	DD	00H
	DD	0ffffffffH
	DD	00H
	DD	040H
	DD	FLAT:??_R3InternalErrorException@Internal@Core@Math@Palmtree@@8
rdata$r	ENDS
;	COMDAT ??_R2InternalErrorException@Internal@Core@Math@Palmtree@@8
rdata$r	SEGMENT
??_R2InternalErrorException@Internal@Core@Math@Palmtree@@8 DD FLAT:??_R1A@?0A@EA@InternalErrorException@Internal@Core@Math@Palmtree@@8 ; Palmtree::Math::Core::Internal::InternalErrorException::`RTTI Base Class Array'
	DD	FLAT:??_R1A@?0A@EA@Exception@Internal@Core@Math@Palmtree@@8
	DD	FLAT:??_R1A@?0A@EN@exception@std@@8
rdata$r	ENDS
;	COMDAT ??_R3InternalErrorException@Internal@Core@Math@Palmtree@@8
rdata$r	SEGMENT
??_R3InternalErrorException@Internal@Core@Math@Palmtree@@8 DD 00H ; Palmtree::Math::Core::Internal::InternalErrorException::`RTTI Class Hierarchy Descriptor'
	DD	00H
	DD	03H
	DD	FLAT:??_R2InternalErrorException@Internal@Core@Math@Palmtree@@8
rdata$r	ENDS
;	COMDAT ??_R4InternalErrorException@Internal@Core@Math@Palmtree@@6B@
rdata$r	SEGMENT
??_R4InternalErrorException@Internal@Core@Math@Palmtree@@6B@ DD 00H ; Palmtree::Math::Core::Internal::InternalErrorException::`RTTI Complete Object Locator'
	DD	00H
	DD	00H
	DD	FLAT:??_R0?AVInternalErrorException@Internal@Core@Math@Palmtree@@@8
	DD	FLAT:??_R3InternalErrorException@Internal@Core@Math@Palmtree@@8
rdata$r	ENDS
;	COMDAT ??_R1A@?0A@EA@ArithmeticException@Internal@Core@Math@Palmtree@@8
rdata$r	SEGMENT
??_R1A@?0A@EA@ArithmeticException@Internal@Core@Math@Palmtree@@8 DD FLAT:??_R0?AVArithmeticException@Internal@Core@Math@Palmtree@@@8 ; Palmtree::Math::Core::Internal::ArithmeticException::`RTTI Base Class Descriptor at (0,-1,0,64)'
	DD	02H
	DD	00H
	DD	0ffffffffH
	DD	00H
	DD	040H
	DD	FLAT:??_R3ArithmeticException@Internal@Core@Math@Palmtree@@8
rdata$r	ENDS
;	COMDAT ??_R2ArithmeticException@Internal@Core@Math@Palmtree@@8
rdata$r	SEGMENT
??_R2ArithmeticException@Internal@Core@Math@Palmtree@@8 DD FLAT:??_R1A@?0A@EA@ArithmeticException@Internal@Core@Math@Palmtree@@8 ; Palmtree::Math::Core::Internal::ArithmeticException::`RTTI Base Class Array'
	DD	FLAT:??_R1A@?0A@EA@Exception@Internal@Core@Math@Palmtree@@8
	DD	FLAT:??_R1A@?0A@EN@exception@std@@8
rdata$r	ENDS
;	COMDAT ??_R3ArithmeticException@Internal@Core@Math@Palmtree@@8
rdata$r	SEGMENT
??_R3ArithmeticException@Internal@Core@Math@Palmtree@@8 DD 00H ; Palmtree::Math::Core::Internal::ArithmeticException::`RTTI Class Hierarchy Descriptor'
	DD	00H
	DD	03H
	DD	FLAT:??_R2ArithmeticException@Internal@Core@Math@Palmtree@@8
rdata$r	ENDS
;	COMDAT ??_R4ArithmeticException@Internal@Core@Math@Palmtree@@6B@
rdata$r	SEGMENT
??_R4ArithmeticException@Internal@Core@Math@Palmtree@@6B@ DD 00H ; Palmtree::Math::Core::Internal::ArithmeticException::`RTTI Complete Object Locator'
	DD	00H
	DD	00H
	DD	FLAT:??_R0?AVArithmeticException@Internal@Core@Math@Palmtree@@@8
	DD	FLAT:??_R3ArithmeticException@Internal@Core@Math@Palmtree@@8
rdata$r	ENDS
;	COMDAT ??_R1A@?0A@EA@ArgumentNullException@Internal@Core@Math@Palmtree@@8
rdata$r	SEGMENT
??_R1A@?0A@EA@ArgumentNullException@Internal@Core@Math@Palmtree@@8 DD FLAT:??_R0?AVArgumentNullException@Internal@Core@Math@Palmtree@@@8 ; Palmtree::Math::Core::Internal::ArgumentNullException::`RTTI Base Class Descriptor at (0,-1,0,64)'
	DD	02H
	DD	00H
	DD	0ffffffffH
	DD	00H
	DD	040H
	DD	FLAT:??_R3ArgumentNullException@Internal@Core@Math@Palmtree@@8
rdata$r	ENDS
;	COMDAT ??_R2ArgumentNullException@Internal@Core@Math@Palmtree@@8
rdata$r	SEGMENT
??_R2ArgumentNullException@Internal@Core@Math@Palmtree@@8 DD FLAT:??_R1A@?0A@EA@ArgumentNullException@Internal@Core@Math@Palmtree@@8 ; Palmtree::Math::Core::Internal::ArgumentNullException::`RTTI Base Class Array'
	DD	FLAT:??_R1A@?0A@EA@Exception@Internal@Core@Math@Palmtree@@8
	DD	FLAT:??_R1A@?0A@EN@exception@std@@8
rdata$r	ENDS
;	COMDAT ??_R3ArgumentNullException@Internal@Core@Math@Palmtree@@8
rdata$r	SEGMENT
??_R3ArgumentNullException@Internal@Core@Math@Palmtree@@8 DD 00H ; Palmtree::Math::Core::Internal::ArgumentNullException::`RTTI Class Hierarchy Descriptor'
	DD	00H
	DD	03H
	DD	FLAT:??_R2ArgumentNullException@Internal@Core@Math@Palmtree@@8
rdata$r	ENDS
;	COMDAT ??_R4ArgumentNullException@Internal@Core@Math@Palmtree@@6B@
rdata$r	SEGMENT
??_R4ArgumentNullException@Internal@Core@Math@Palmtree@@6B@ DD 00H ; Palmtree::Math::Core::Internal::ArgumentNullException::`RTTI Complete Object Locator'
	DD	00H
	DD	00H
	DD	FLAT:??_R0?AVArgumentNullException@Internal@Core@Math@Palmtree@@@8
	DD	FLAT:??_R3ArgumentNullException@Internal@Core@Math@Palmtree@@8
rdata$r	ENDS
;	COMDAT ??_R1A@?0A@EN@exception@std@@8
rdata$r	SEGMENT
??_R1A@?0A@EN@exception@std@@8 DD FLAT:??_R0?AVexception@std@@@8 ; std::exception::`RTTI Base Class Descriptor at (0,-1,0,77)'
	DD	00H
	DD	00H
	DD	0ffffffffH
	DD	00H
	DD	04dH
	DD	FLAT:??_R3exception@std@@8
rdata$r	ENDS
;	COMDAT ??_R1A@?0A@EA@Exception@Internal@Core@Math@Palmtree@@8
rdata$r	SEGMENT
??_R1A@?0A@EA@Exception@Internal@Core@Math@Palmtree@@8 DD FLAT:??_R0?AVException@Internal@Core@Math@Palmtree@@@8 ; Palmtree::Math::Core::Internal::Exception::`RTTI Base Class Descriptor at (0,-1,0,64)'
	DD	01H
	DD	00H
	DD	0ffffffffH
	DD	00H
	DD	040H
	DD	FLAT:??_R3Exception@Internal@Core@Math@Palmtree@@8
rdata$r	ENDS
;	COMDAT ??_R2Exception@Internal@Core@Math@Palmtree@@8
rdata$r	SEGMENT
??_R2Exception@Internal@Core@Math@Palmtree@@8 DD FLAT:??_R1A@?0A@EA@Exception@Internal@Core@Math@Palmtree@@8 ; Palmtree::Math::Core::Internal::Exception::`RTTI Base Class Array'
	DD	FLAT:??_R1A@?0A@EN@exception@std@@8
rdata$r	ENDS
;	COMDAT ??_R3Exception@Internal@Core@Math@Palmtree@@8
rdata$r	SEGMENT
??_R3Exception@Internal@Core@Math@Palmtree@@8 DD 00H	; Palmtree::Math::Core::Internal::Exception::`RTTI Class Hierarchy Descriptor'
	DD	00H
	DD	02H
	DD	FLAT:??_R2Exception@Internal@Core@Math@Palmtree@@8
rdata$r	ENDS
;	COMDAT ??_R4Exception@Internal@Core@Math@Palmtree@@6B@
rdata$r	SEGMENT
??_R4Exception@Internal@Core@Math@Palmtree@@6B@ DD 00H	; Palmtree::Math::Core::Internal::Exception::`RTTI Complete Object Locator'
	DD	00H
	DD	00H
	DD	FLAT:??_R0?AVException@Internal@Core@Math@Palmtree@@@8
	DD	FLAT:??_R3Exception@Internal@Core@Math@Palmtree@@8
rdata$r	ENDS
;	COMDAT ??_R1A@?0A@EA@exception@std@@8
rdata$r	SEGMENT
??_R1A@?0A@EA@exception@std@@8 DD FLAT:??_R0?AVexception@std@@@8 ; std::exception::`RTTI Base Class Descriptor at (0,-1,0,64)'
	DD	00H
	DD	00H
	DD	0ffffffffH
	DD	00H
	DD	040H
	DD	FLAT:??_R3exception@std@@8
rdata$r	ENDS
;	COMDAT ??_R2exception@std@@8
rdata$r	SEGMENT
??_R2exception@std@@8 DD FLAT:??_R1A@?0A@EA@exception@std@@8 ; std::exception::`RTTI Base Class Array'
rdata$r	ENDS
;	COMDAT ??_R3exception@std@@8
rdata$r	SEGMENT
??_R3exception@std@@8 DD 00H				; std::exception::`RTTI Class Hierarchy Descriptor'
	DD	00H
	DD	01H
	DD	FLAT:??_R2exception@std@@8
rdata$r	ENDS
;	COMDAT ??_R0?AVexception@std@@@8
data$r	SEGMENT
??_R0?AVexception@std@@@8 DD FLAT:??_7type_info@@6B@	; std::exception `RTTI Type Descriptor'
	DD	00H
	DB	'.?AVexception@std@@', 00H
data$r	ENDS
;	COMDAT ??_R4exception@std@@6B@
rdata$r	SEGMENT
??_R4exception@std@@6B@ DD 00H				; std::exception::`RTTI Complete Object Locator'
	DD	00H
	DD	00H
	DD	FLAT:??_R0?AVexception@std@@@8
	DD	FLAT:??_R3exception@std@@8
rdata$r	ENDS
;	COMDAT ??_C@_13ICFKHAEN@?$AAu@
CONST	SEGMENT
??_C@_13ICFKHAEN@?$AAu@ DB 'u', 00H, 00H, 00H		; `string'
CONST	ENDS
;	COMDAT ??_C@_1CK@ECFIEPAC@?$AA?$BF?$AAp?$AAk?$AAn?$AAu?$AAl?$AAl?$AAp?$AAt?$AAr?$AAL?$AA?$AO?$AAH?$PP?$IJ?$PP?$IM@
CONST	SEGMENT
??_C@_1CK@ECFIEPAC@?$AA?$BF?$AAp?$AAk?$AAn?$AAu?$AAl?$AAl?$AAp?$AAt?$AAr?$AAL?$AA?$AO?$AAH?$PP?$IJ?$PP?$IM@ DB 015H
	DB	'_pek0n', 00H, 'u', 00H, 'l', 00H, 'l', 00H, 'p', 00H, 't', 00H
	DB	'r', 00H, 'L0', 0eH, 'NH0', 089H, '0', 08cH, '0f0D0~0Y0', 02H, '0'
	DB	00H, 00H					; `string'
CONST	ENDS
;	COMDAT ??_C@_13JAOPNPKD@?$AAv@
CONST	SEGMENT
??_C@_13JAOPNPKD@?$AAv@ DB 'v', 00H, 00H, 00H		; `string'
CONST	ENDS
;	COMDAT __CT??_R0?AVArgumentNullException@Internal@Core@Math@Palmtree@@@8??0ArgumentNullException@Internal@Core@Math@Palmtree@@QAE@ABV01234@@Z24
xdata$x	SEGMENT
__CT??_R0?AVArgumentNullException@Internal@Core@Math@Palmtree@@@8??0ArgumentNullException@Internal@Core@Math@Palmtree@@QAE@ABV01234@@Z24 DD 00H
	DD	FLAT:??_R0?AVArgumentNullException@Internal@Core@Math@Palmtree@@@8
	DD	00H
	DD	0ffffffffH
	ORG $+4
	DD	018H
	DD	FLAT:??0ArgumentNullException@Internal@Core@Math@Palmtree@@QAE@ABV01234@@Z
xdata$x	ENDS
;	COMDAT ??_R0?AVArgumentNullException@Internal@Core@Math@Palmtree@@@8
data$r	SEGMENT
??_R0?AVArgumentNullException@Internal@Core@Math@Palmtree@@@8 DD FLAT:??_7type_info@@6B@ ; Palmtree::Math::Core::Internal::ArgumentNullException `RTTI Type Descriptor'
	DD	00H
	DB	'.?AVArgumentNullException@Internal@Core@Math@Palmtree@@', 00H
data$r	ENDS
;	COMDAT __CTA2?AVArgumentNullException@Internal@Core@Math@Palmtree@@
xdata$x	SEGMENT
__CTA2?AVArgumentNullException@Internal@Core@Math@Palmtree@@ DD 02H
	DD	FLAT:__CT??_R0?AVArgumentNullException@Internal@Core@Math@Palmtree@@@8??0ArgumentNullException@Internal@Core@Math@Palmtree@@QAE@ABV01234@@Z24
	DD	FLAT:__CT??_R0?AVException@Internal@Core@Math@Palmtree@@@8??0Exception@Internal@Core@Math@Palmtree@@QAE@ABV01234@@Z24
xdata$x	ENDS
;	COMDAT __TI2?AVArgumentNullException@Internal@Core@Math@Palmtree@@
xdata$x	SEGMENT
__TI2?AVArgumentNullException@Internal@Core@Math@Palmtree@@ DD 00H
	DD	FLAT:??1ArgumentNullException@Internal@Core@Math@Palmtree@@UAE@XZ
	DD	00H
	DD	FLAT:__CTA2?AVArgumentNullException@Internal@Core@Math@Palmtree@@
xdata$x	ENDS
;	COMDAT ??_C@_1DO@NPBJHMD@?$AA?$BF?$AAp?$AAL?$AA2?$AAd?$AAh?$PP?$IC?$AA0?$AAj?$AAn?$AAg?$AAG?$AAC?$AAD?$PP?$JC@
CONST	SEGMENT
??_C@_1DO@NPBJHMD@?$AA?$BF?$AAp?$AAL?$AA2?$AAd?$AAh?$PP?$IC?$AA0?$AAj?$AAn?$AAg?$AAG?$AAC?$AAD?$PP?$JC@ DB 015H
	DB	'_peL02', 00H, 'd0h0', 082H, '00', 00H, 'j0n0g0G', 00H, 'C', 00H
	DB	'D', 00H, 092H, '0', 00H, 'N', 0fH, 'ak0Bl', 081H, '0', 08bH, '0'
	DB	'S0h0L0g0M0~0[0', 093H, '0', 02H, '0', 00H, 00H ; `string'
CONST	ENDS
;	COMDAT __CT??_R0?AVArithmeticException@Internal@Core@Math@Palmtree@@@8??0ArithmeticException@Internal@Core@Math@Palmtree@@QAE@ABV01234@@Z24
xdata$x	SEGMENT
__CT??_R0?AVArithmeticException@Internal@Core@Math@Palmtree@@@8??0ArithmeticException@Internal@Core@Math@Palmtree@@QAE@ABV01234@@Z24 DD 00H
	DD	FLAT:??_R0?AVArithmeticException@Internal@Core@Math@Palmtree@@@8
	DD	00H
	DD	0ffffffffH
	ORG $+4
	DD	018H
	DD	FLAT:??0ArithmeticException@Internal@Core@Math@Palmtree@@QAE@ABV01234@@Z
xdata$x	ENDS
;	COMDAT ??_R0?AVArithmeticException@Internal@Core@Math@Palmtree@@@8
data$r	SEGMENT
??_R0?AVArithmeticException@Internal@Core@Math@Palmtree@@@8 DD FLAT:??_7type_info@@6B@ ; Palmtree::Math::Core::Internal::ArithmeticException `RTTI Type Descriptor'
	DD	00H
	DB	'.?AVArithmeticException@Internal@Core@Math@Palmtree@@', 00H
data$r	ENDS
;	COMDAT __CTA2?AVArithmeticException@Internal@Core@Math@Palmtree@@
xdata$x	SEGMENT
__CTA2?AVArithmeticException@Internal@Core@Math@Palmtree@@ DD 02H
	DD	FLAT:__CT??_R0?AVArithmeticException@Internal@Core@Math@Palmtree@@@8??0ArithmeticException@Internal@Core@Math@Palmtree@@QAE@ABV01234@@Z24
	DD	FLAT:__CT??_R0?AVException@Internal@Core@Math@Palmtree@@@8??0Exception@Internal@Core@Math@Palmtree@@QAE@ABV01234@@Z24
xdata$x	ENDS
;	COMDAT __TI2?AVArithmeticException@Internal@Core@Math@Palmtree@@
xdata$x	SEGMENT
__TI2?AVArithmeticException@Internal@Core@Math@Palmtree@@ DD 00H
	DD	FLAT:??1ArithmeticException@Internal@Core@Math@Palmtree@@UAE@XZ
	DD	00H
	DD	FLAT:__CTA2?AVArithmeticException@Internal@Core@Math@Palmtree@@
xdata$x	ENDS
;	COMDAT ??_C@_1HK@DNJBGJKK@?$AAp?$AAm?$AAc?$AA_?$AAg?$AAr?$AAe?$AAa?$AAt?$AAe?$AAs?$AAt?$AAc?$AAo?$AAm@
CONST	SEGMENT
??_C@_1HK@DNJBGJKK@?$AAp?$AAm?$AAc?$AA_?$AAg?$AAr?$AAe?$AAa?$AAt?$AAe?$AAs?$AAt?$AAc?$AAo?$AAm@ DB 'p'
	DB	00H, 'm', 00H, 'c', 00H, '_', 00H, 'g', 00H, 'r', 00H, 'e', 00H
	DB	'a', 00H, 't', 00H, 'e', 00H, 's', 00H, 't', 00H, 'c', 00H, 'o'
	DB	00H, 'm', 00H, 'm', 00H, 'o', 00H, 'n', 00H, 'd', 00H, 'i', 00H
	DB	'v', 00H, 'i', 00H, 's', 00H, 'o', 00H, 'r', 00H, '.', 00H, 'c'
	DB	00H, 'p', 00H, 'p', 00H, ';', 00H, 'G', 00H, 'r', 00H, 'e', 00H
	DB	'a', 00H, 't', 00H, 'e', 00H, 's', 00H, 't', 00H, 'C', 00H, 'o'
	DB	00H, 'm', 00H, 'm', 00H, 'o', 00H, 'n', 00H, 'D', 00H, 'i', 00H
	DB	'v', 00H, 'i', 00H, 's', 00H, 'o', 00H, 'r', 00H, '_', 00H, '1'
	DB	00H, 'W', 00H, '_', 00H, 'I', 00H, 'm', 00H, 'p', 00H, ';', 00H
	DB	'1', 00H, 00H, 00H				; `string'
CONST	ENDS
;	COMDAT ??_C@_1HE@ECAGDGPP@?$AAp?$AAm?$AAc?$AA_?$AAg?$AAr?$AAe?$AAa?$AAt?$AAe?$AAs?$AAt?$AAc?$AAo?$AAm@
CONST	SEGMENT
??_C@_1HE@ECAGDGPP@?$AAp?$AAm?$AAc?$AA_?$AAg?$AAr?$AAe?$AAa?$AAt?$AAe?$AAs?$AAt?$AAc?$AAo?$AAm@ DB 'p'
	DB	00H, 'm', 00H, 'c', 00H, '_', 00H, 'g', 00H, 'r', 00H, 'e', 00H
	DB	'a', 00H, 't', 00H, 'e', 00H, 's', 00H, 't', 00H, 'c', 00H, 'o'
	DB	00H, 'm', 00H, 'm', 00H, 'o', 00H, 'n', 00H, 'd', 00H, 'i', 00H
	DB	'v', 00H, 'i', 00H, 's', 00H, 'o', 00H, 'r', 00H, '.', 00H, 'c'
	DB	00H, 'p', 00H, 'p', 00H, ';', 00H, 'G', 00H, 'r', 00H, 'e', 00H
	DB	'a', 00H, 't', 00H, 'e', 00H, 's', 00H, 't', 00H, 'C', 00H, 'o'
	DB	00H, 'm', 00H, 'm', 00H, 'o', 00H, 'n', 00H, 'D', 00H, 'i', 00H
	DB	'v', 00H, 'i', 00H, 's', 00H, 'o', 00H, 'r', 00H, '_', 00H, 'I'
	DB	00H, 'm', 00H, 'p', 00H, ';', 00H, '1', 00H, 00H, 00H ; `string'
CONST	ENDS
;	COMDAT ??_C@_1CG@CNOPPENL@?$PP?$II?$AA?$BP?$AAW?$AAf?$AAD?$AAj?$AAD?$PP?$LD?$PP?$PM?$PP?I?$AAk?$AA0?$AAT?$AAW?$AA?$HO@
CONST	SEGMENT
??_C@_1CG@CNOPPENL@?$PP?$II?$AA?$BP?$AAW?$AAf?$AAD?$AAj?$AAD?$PP?$LD?$PP?$PM?$PP?I?$AAk?$AA0?$AAT?$AAW?$AA?$HO@ DB 088H
	DB	'N', 01fH, 'gW0f0D0j0D0', 0b3H, '0', 0fcH, '0', 0c9H, '0k00RT', 090H
	DB	'W0~0W0_0', 02H, '0', 00H, 00H		; `string'
CONST	ENDS
;	COMDAT __CT??_R0?AVException@Internal@Core@Math@Palmtree@@@8??0Exception@Internal@Core@Math@Palmtree@@QAE@ABV01234@@Z24
xdata$x	SEGMENT
__CT??_R0?AVException@Internal@Core@Math@Palmtree@@@8??0Exception@Internal@Core@Math@Palmtree@@QAE@ABV01234@@Z24 DD 00H
	DD	FLAT:??_R0?AVException@Internal@Core@Math@Palmtree@@@8
	DD	00H
	DD	0ffffffffH
	ORG $+4
	DD	018H
	DD	FLAT:??0Exception@Internal@Core@Math@Palmtree@@QAE@ABV01234@@Z
xdata$x	ENDS
;	COMDAT ??_R0?AVException@Internal@Core@Math@Palmtree@@@8
data$r	SEGMENT
??_R0?AVException@Internal@Core@Math@Palmtree@@@8 DD FLAT:??_7type_info@@6B@ ; Palmtree::Math::Core::Internal::Exception `RTTI Type Descriptor'
	DD	00H
	DB	'.?AVException@Internal@Core@Math@Palmtree@@', 00H
data$r	ENDS
;	COMDAT __CT??_R0?AVInternalErrorException@Internal@Core@Math@Palmtree@@@8??0InternalErrorException@Internal@Core@Math@Palmtree@@QAE@ABV01234@@Z24
xdata$x	SEGMENT
__CT??_R0?AVInternalErrorException@Internal@Core@Math@Palmtree@@@8??0InternalErrorException@Internal@Core@Math@Palmtree@@QAE@ABV01234@@Z24 DD 00H
	DD	FLAT:??_R0?AVInternalErrorException@Internal@Core@Math@Palmtree@@@8
	DD	00H
	DD	0ffffffffH
	ORG $+4
	DD	018H
	DD	FLAT:??0InternalErrorException@Internal@Core@Math@Palmtree@@QAE@ABV01234@@Z
xdata$x	ENDS
;	COMDAT ??_R0?AVInternalErrorException@Internal@Core@Math@Palmtree@@@8
data$r	SEGMENT
??_R0?AVInternalErrorException@Internal@Core@Math@Palmtree@@@8 DD FLAT:??_7type_info@@6B@ ; Palmtree::Math::Core::Internal::InternalErrorException `RTTI Type Descriptor'
	DD	00H
	DB	'.?AVInternalErrorException@Internal@Core@Math@Palmtree@@'
	DB	00H
data$r	ENDS
;	COMDAT __CTA2?AVInternalErrorException@Internal@Core@Math@Palmtree@@
xdata$x	SEGMENT
__CTA2?AVInternalErrorException@Internal@Core@Math@Palmtree@@ DD 02H
	DD	FLAT:__CT??_R0?AVInternalErrorException@Internal@Core@Math@Palmtree@@@8??0InternalErrorException@Internal@Core@Math@Palmtree@@QAE@ABV01234@@Z24
	DD	FLAT:__CT??_R0?AVException@Internal@Core@Math@Palmtree@@@8??0Exception@Internal@Core@Math@Palmtree@@QAE@ABV01234@@Z24
xdata$x	ENDS
;	COMDAT __TI2?AVInternalErrorException@Internal@Core@Math@Palmtree@@
xdata$x	SEGMENT
__TI2?AVInternalErrorException@Internal@Core@Math@Palmtree@@ DD 00H
	DD	FLAT:??1InternalErrorException@Internal@Core@Math@Palmtree@@UAE@XZ
	DD	00H
	DD	FLAT:__CTA2?AVInternalErrorException@Internal@Core@Math@Palmtree@@
xdata$x	ENDS
;	COMDAT ??_7InternalErrorException@Internal@Core@Math@Palmtree@@6B@
CONST	SEGMENT
??_7InternalErrorException@Internal@Core@Math@Palmtree@@6B@ DD FLAT:??_R4InternalErrorException@Internal@Core@Math@Palmtree@@6B@ ; Palmtree::Math::Core::Internal::InternalErrorException::`vftable'
	DD	FLAT:??_EInternalErrorException@Internal@Core@Math@Palmtree@@UAEPAXI@Z
	DD	FLAT:?what@exception@std@@UBEPBDXZ
CONST	ENDS
;	COMDAT ??_7ArithmeticException@Internal@Core@Math@Palmtree@@6B@
CONST	SEGMENT
??_7ArithmeticException@Internal@Core@Math@Palmtree@@6B@ DD FLAT:??_R4ArithmeticException@Internal@Core@Math@Palmtree@@6B@ ; Palmtree::Math::Core::Internal::ArithmeticException::`vftable'
	DD	FLAT:??_EArithmeticException@Internal@Core@Math@Palmtree@@UAEPAXI@Z
	DD	FLAT:?what@exception@std@@UBEPBDXZ
CONST	ENDS
;	COMDAT ??_7ArgumentNullException@Internal@Core@Math@Palmtree@@6B@
CONST	SEGMENT
??_7ArgumentNullException@Internal@Core@Math@Palmtree@@6B@ DD FLAT:??_R4ArgumentNullException@Internal@Core@Math@Palmtree@@6B@ ; Palmtree::Math::Core::Internal::ArgumentNullException::`vftable'
	DD	FLAT:??_EArgumentNullException@Internal@Core@Math@Palmtree@@UAEPAXI@Z
	DD	FLAT:?what@exception@std@@UBEPBDXZ
CONST	ENDS
;	COMDAT ??_7Exception@Internal@Core@Math@Palmtree@@6B@
CONST	SEGMENT
??_7Exception@Internal@Core@Math@Palmtree@@6B@ DD FLAT:??_R4Exception@Internal@Core@Math@Palmtree@@6B@ ; Palmtree::Math::Core::Internal::Exception::`vftable'
	DD	FLAT:??_EException@Internal@Core@Math@Palmtree@@UAEPAXI@Z
	DD	FLAT:?what@exception@std@@UBEPBDXZ
CONST	ENDS
;	COMDAT ??_C@_0BC@EOODALEL@Unknown?5exception@
CONST	SEGMENT
??_C@_0BC@EOODALEL@Unknown?5exception@ DB 'Unknown exception', 00H ; `string'
CONST	ENDS
;	COMDAT ??_7exception@std@@6B@
CONST	SEGMENT
??_7exception@std@@6B@ DD FLAT:??_R4exception@std@@6B@	; std::exception::`vftable'
	DD	FLAT:??_Eexception@std@@UAEPAXI@Z
	DD	FLAT:?what@exception@std@@UBEPBDXZ
CONST	ENDS
;	COMDAT xdata$x
xdata$x	SEGMENT
__unwindtable$?PMC_GreatestCommonDivisor_X_X_Imp@Internal@Core@Math@Palmtree@@YAPAU__tag_NUMBER_HEADER@1234@PAU51234@0@Z DD 0ffffffffH
	DD	FLAT:__unwindfunclet$?PMC_GreatestCommonDivisor_X_X_Imp@Internal@Core@Math@Palmtree@@YAPAU__tag_NUMBER_HEADER@1234@PAU51234@0@Z$0
__ehfuncinfo$?PMC_GreatestCommonDivisor_X_X_Imp@Internal@Core@Math@Palmtree@@YAPAU__tag_NUMBER_HEADER@1234@PAU51234@0@Z DD 019930522H
	DD	01H
	DD	FLAT:__unwindtable$?PMC_GreatestCommonDivisor_X_X_Imp@Internal@Core@Math@Palmtree@@YAPAU__tag_NUMBER_HEADER@1234@PAU51234@0@Z
	DD	2 DUP(00H)
	DD	2 DUP(00H)
	DD	00H
	DD	00H
xdata$x	ENDS
;	COMDAT xdata$x
xdata$x	SEGMENT
__unwindtable$?PMC_GreatestCommonDivisor_X_L_Imp@Internal@Core@Math@Palmtree@@YAPAU__tag_NUMBER_HEADER@1234@PAU51234@_K@Z DD 0ffffffffH
	DD	FLAT:__unwindfunclet$?PMC_GreatestCommonDivisor_X_L_Imp@Internal@Core@Math@Palmtree@@YAPAU__tag_NUMBER_HEADER@1234@PAU51234@_K@Z$0
	DD	0ffffffffH
	DD	FLAT:__unwindfunclet$?PMC_GreatestCommonDivisor_X_L_Imp@Internal@Core@Math@Palmtree@@YAPAU__tag_NUMBER_HEADER@1234@PAU51234@_K@Z$1
	DD	0ffffffffH
	DD	00H
__ehfuncinfo$?PMC_GreatestCommonDivisor_X_L_Imp@Internal@Core@Math@Palmtree@@YAPAU__tag_NUMBER_HEADER@1234@PAU51234@_K@Z DD 019930522H
	DD	03H
	DD	FLAT:__unwindtable$?PMC_GreatestCommonDivisor_X_L_Imp@Internal@Core@Math@Palmtree@@YAPAU__tag_NUMBER_HEADER@1234@PAU51234@_K@Z
	DD	2 DUP(00H)
	DD	2 DUP(00H)
	DD	00H
	DD	00H
xdata$x	ENDS
;	COMDAT xdata$x
xdata$x	SEGMENT
__unwindtable$?PMC_GreatestCommonDivisor_X_I_Imp@Internal@Core@Math@Palmtree@@YAPAU__tag_NUMBER_HEADER@1234@PAU51234@I@Z DD 0ffffffffH
	DD	FLAT:__unwindfunclet$?PMC_GreatestCommonDivisor_X_I_Imp@Internal@Core@Math@Palmtree@@YAPAU__tag_NUMBER_HEADER@1234@PAU51234@I@Z$0
__ehfuncinfo$?PMC_GreatestCommonDivisor_X_I_Imp@Internal@Core@Math@Palmtree@@YAPAU__tag_NUMBER_HEADER@1234@PAU51234@I@Z DD 019930522H
	DD	01H
	DD	FLAT:__unwindtable$?PMC_GreatestCommonDivisor_X_I_Imp@Internal@Core@Math@Palmtree@@YAPAU__tag_NUMBER_HEADER@1234@PAU51234@I@Z
	DD	2 DUP(00H)
	DD	2 DUP(00H)
	DD	00H
	DD	00H
xdata$x	ENDS
;	COMDAT xdata$x
xdata$x	SEGMENT
__unwindtable$?PMC_GreatestCommonDivisor_X_X@Internal@Core@Math@Palmtree@@YGPAU__tag_PMC_HANDLE_UINT@1234@PAU51234@0@Z DD 0ffffffffH
	DD	FLAT:__unwindfunclet$?PMC_GreatestCommonDivisor_X_X@Internal@Core@Math@Palmtree@@YGPAU__tag_PMC_HANDLE_UINT@1234@PAU51234@0@Z$0
__ehfuncinfo$?PMC_GreatestCommonDivisor_X_X@Internal@Core@Math@Palmtree@@YGPAU__tag_PMC_HANDLE_UINT@1234@PAU51234@0@Z DD 019930522H
	DD	01H
	DD	FLAT:__unwindtable$?PMC_GreatestCommonDivisor_X_X@Internal@Core@Math@Palmtree@@YGPAU__tag_PMC_HANDLE_UINT@1234@PAU51234@0@Z
	DD	2 DUP(00H)
	DD	2 DUP(00H)
	DD	00H
	DD	00H
xdata$x	ENDS
;	COMDAT xdata$x
xdata$x	SEGMENT
__unwindtable$?PMC_GreatestCommonDivisor_X_L@Internal@Core@Math@Palmtree@@YGPAU__tag_PMC_HANDLE_UINT@1234@PAU51234@_K@Z DD 0ffffffffH
	DD	FLAT:__unwindfunclet$?PMC_GreatestCommonDivisor_X_L@Internal@Core@Math@Palmtree@@YGPAU__tag_PMC_HANDLE_UINT@1234@PAU51234@_K@Z$0
__ehfuncinfo$?PMC_GreatestCommonDivisor_X_L@Internal@Core@Math@Palmtree@@YGPAU__tag_PMC_HANDLE_UINT@1234@PAU51234@_K@Z DD 019930522H
	DD	01H
	DD	FLAT:__unwindtable$?PMC_GreatestCommonDivisor_X_L@Internal@Core@Math@Palmtree@@YGPAU__tag_PMC_HANDLE_UINT@1234@PAU51234@_K@Z
	DD	2 DUP(00H)
	DD	2 DUP(00H)
	DD	00H
	DD	00H
xdata$x	ENDS
;	COMDAT xdata$x
xdata$x	SEGMENT
__unwindtable$?PMC_GreatestCommonDivisor_X_I@Internal@Core@Math@Palmtree@@YGPAU__tag_PMC_HANDLE_UINT@1234@PAU51234@I@Z DD 0ffffffffH
	DD	FLAT:__unwindfunclet$?PMC_GreatestCommonDivisor_X_I@Internal@Core@Math@Palmtree@@YGPAU__tag_PMC_HANDLE_UINT@1234@PAU51234@I@Z$0
__ehfuncinfo$?PMC_GreatestCommonDivisor_X_I@Internal@Core@Math@Palmtree@@YGPAU__tag_PMC_HANDLE_UINT@1234@PAU51234@I@Z DD 019930522H
	DD	01H
	DD	FLAT:__unwindtable$?PMC_GreatestCommonDivisor_X_I@Internal@Core@Math@Palmtree@@YGPAU__tag_PMC_HANDLE_UINT@1234@PAU51234@I@Z
	DD	2 DUP(00H)
	DD	2 DUP(00H)
	DD	00H
	DD	00H
xdata$x	ENDS
;	COMDAT xdata$x
xdata$x	SEGMENT
__unwindtable$?PMC_GreatestCommonDivisor_L_X@Internal@Core@Math@Palmtree@@YGPAU__tag_PMC_HANDLE_UINT@1234@_KPAU51234@@Z DD 0ffffffffH
	DD	FLAT:__unwindfunclet$?PMC_GreatestCommonDivisor_L_X@Internal@Core@Math@Palmtree@@YGPAU__tag_PMC_HANDLE_UINT@1234@_KPAU51234@@Z$0
__ehfuncinfo$?PMC_GreatestCommonDivisor_L_X@Internal@Core@Math@Palmtree@@YGPAU__tag_PMC_HANDLE_UINT@1234@_KPAU51234@@Z DD 019930522H
	DD	01H
	DD	FLAT:__unwindtable$?PMC_GreatestCommonDivisor_L_X@Internal@Core@Math@Palmtree@@YGPAU__tag_PMC_HANDLE_UINT@1234@_KPAU51234@@Z
	DD	2 DUP(00H)
	DD	2 DUP(00H)
	DD	00H
	DD	00H
xdata$x	ENDS
;	COMDAT xdata$x
xdata$x	SEGMENT
__unwindtable$?PMC_GreatestCommonDivisor_I_X@Internal@Core@Math@Palmtree@@YGPAU__tag_PMC_HANDLE_UINT@1234@IPAU51234@@Z DD 0ffffffffH
	DD	FLAT:__unwindfunclet$?PMC_GreatestCommonDivisor_I_X@Internal@Core@Math@Palmtree@@YGPAU__tag_PMC_HANDLE_UINT@1234@IPAU51234@@Z$0
__ehfuncinfo$?PMC_GreatestCommonDivisor_I_X@Internal@Core@Math@Palmtree@@YGPAU__tag_PMC_HANDLE_UINT@1234@IPAU51234@@Z DD 019930522H
	DD	01H
	DD	FLAT:__unwindtable$?PMC_GreatestCommonDivisor_I_X@Internal@Core@Math@Palmtree@@YGPAU__tag_PMC_HANDLE_UINT@1234@IPAU51234@@Z
	DD	2 DUP(00H)
	DD	2 DUP(00H)
	DD	00H
	DD	00H
xdata$x	ENDS
;	COMDAT xdata$x
xdata$x	SEGMENT
__unwindtable$??_GInternalErrorException@Internal@Core@Math@Palmtree@@UAEPAXI@Z DD 0ffffffffH
	DD	FLAT:__unwindfunclet$??_GInternalErrorException@Internal@Core@Math@Palmtree@@UAEPAXI@Z$0
	DD	0ffffffffH
	DD	FLAT:__unwindfunclet$??_GInternalErrorException@Internal@Core@Math@Palmtree@@UAEPAXI@Z$1
__ehfuncinfo$??_GInternalErrorException@Internal@Core@Math@Palmtree@@UAEPAXI@Z DD 019930522H
	DD	02H
	DD	FLAT:__unwindtable$??_GInternalErrorException@Internal@Core@Math@Palmtree@@UAEPAXI@Z
	DD	2 DUP(00H)
	DD	2 DUP(00H)
	DD	00H
	DD	04H
xdata$x	ENDS
;	COMDAT xdata$x
xdata$x	SEGMENT
__unwindtable$??1InternalErrorException@Internal@Core@Math@Palmtree@@UAE@XZ DD 0ffffffffH
	DD	FLAT:__unwindfunclet$??1InternalErrorException@Internal@Core@Math@Palmtree@@UAE@XZ$0
	DD	0ffffffffH
	DD	FLAT:__unwindfunclet$??1InternalErrorException@Internal@Core@Math@Palmtree@@UAE@XZ$1
__ehfuncinfo$??1InternalErrorException@Internal@Core@Math@Palmtree@@UAE@XZ DD 019930522H
	DD	02H
	DD	FLAT:__unwindtable$??1InternalErrorException@Internal@Core@Math@Palmtree@@UAE@XZ
	DD	2 DUP(00H)
	DD	2 DUP(00H)
	DD	00H
	DD	04H
xdata$x	ENDS
;	COMDAT xdata$x
xdata$x	SEGMENT
__unwindtable$??0InternalErrorException@Internal@Core@Math@Palmtree@@QAE@ABV01234@@Z DD 0ffffffffH
	DD	FLAT:__unwindfunclet$??0InternalErrorException@Internal@Core@Math@Palmtree@@QAE@ABV01234@@Z$1
	DD	0ffffffffH
	DD	FLAT:__unwindfunclet$??0InternalErrorException@Internal@Core@Math@Palmtree@@QAE@ABV01234@@Z$0
__ehfuncinfo$??0InternalErrorException@Internal@Core@Math@Palmtree@@QAE@ABV01234@@Z DD 019930522H
	DD	02H
	DD	FLAT:__unwindtable$??0InternalErrorException@Internal@Core@Math@Palmtree@@QAE@ABV01234@@Z
	DD	2 DUP(00H)
	DD	2 DUP(00H)
	DD	00H
	DD	04H
xdata$x	ENDS
;	COMDAT xdata$x
xdata$x	SEGMENT
__unwindtable$??0InternalErrorException@Internal@Core@Math@Palmtree@@QAE@PB_W0@Z DD 0ffffffffH
	DD	FLAT:__unwindfunclet$??0InternalErrorException@Internal@Core@Math@Palmtree@@QAE@PB_W0@Z$1
	DD	0ffffffffH
	DD	FLAT:__unwindfunclet$??0InternalErrorException@Internal@Core@Math@Palmtree@@QAE@PB_W0@Z$0
__ehfuncinfo$??0InternalErrorException@Internal@Core@Math@Palmtree@@QAE@PB_W0@Z DD 019930522H
	DD	02H
	DD	FLAT:__unwindtable$??0InternalErrorException@Internal@Core@Math@Palmtree@@QAE@PB_W0@Z
	DD	2 DUP(00H)
	DD	2 DUP(00H)
	DD	00H
	DD	04H
xdata$x	ENDS
;	COMDAT xdata$x
xdata$x	SEGMENT
__unwindtable$??_GArithmeticException@Internal@Core@Math@Palmtree@@UAEPAXI@Z DD 0ffffffffH
	DD	FLAT:__unwindfunclet$??_GArithmeticException@Internal@Core@Math@Palmtree@@UAEPAXI@Z$0
	DD	0ffffffffH
	DD	FLAT:__unwindfunclet$??_GArithmeticException@Internal@Core@Math@Palmtree@@UAEPAXI@Z$1
__ehfuncinfo$??_GArithmeticException@Internal@Core@Math@Palmtree@@UAEPAXI@Z DD 019930522H
	DD	02H
	DD	FLAT:__unwindtable$??_GArithmeticException@Internal@Core@Math@Palmtree@@UAEPAXI@Z
	DD	2 DUP(00H)
	DD	2 DUP(00H)
	DD	00H
	DD	04H
xdata$x	ENDS
;	COMDAT xdata$x
xdata$x	SEGMENT
__unwindtable$??0ArithmeticException@Internal@Core@Math@Palmtree@@QAE@ABV01234@@Z DD 0ffffffffH
	DD	FLAT:__unwindfunclet$??0ArithmeticException@Internal@Core@Math@Palmtree@@QAE@ABV01234@@Z$1
	DD	0ffffffffH
	DD	FLAT:__unwindfunclet$??0ArithmeticException@Internal@Core@Math@Palmtree@@QAE@ABV01234@@Z$0
__ehfuncinfo$??0ArithmeticException@Internal@Core@Math@Palmtree@@QAE@ABV01234@@Z DD 019930522H
	DD	02H
	DD	FLAT:__unwindtable$??0ArithmeticException@Internal@Core@Math@Palmtree@@QAE@ABV01234@@Z
	DD	2 DUP(00H)
	DD	2 DUP(00H)
	DD	00H
	DD	04H
xdata$x	ENDS
;	COMDAT xdata$x
xdata$x	SEGMENT
__unwindtable$??1ArithmeticException@Internal@Core@Math@Palmtree@@UAE@XZ DD 0ffffffffH
	DD	FLAT:__unwindfunclet$??1ArithmeticException@Internal@Core@Math@Palmtree@@UAE@XZ$0
	DD	0ffffffffH
	DD	FLAT:__unwindfunclet$??1ArithmeticException@Internal@Core@Math@Palmtree@@UAE@XZ$1
__ehfuncinfo$??1ArithmeticException@Internal@Core@Math@Palmtree@@UAE@XZ DD 019930522H
	DD	02H
	DD	FLAT:__unwindtable$??1ArithmeticException@Internal@Core@Math@Palmtree@@UAE@XZ
	DD	2 DUP(00H)
	DD	2 DUP(00H)
	DD	00H
	DD	04H
xdata$x	ENDS
;	COMDAT xdata$x
xdata$x	SEGMENT
__unwindtable$??0ArithmeticException@Internal@Core@Math@Palmtree@@QAE@PB_W@Z DD 0ffffffffH
	DD	FLAT:__unwindfunclet$??0ArithmeticException@Internal@Core@Math@Palmtree@@QAE@PB_W@Z$1
	DD	0ffffffffH
	DD	FLAT:__unwindfunclet$??0ArithmeticException@Internal@Core@Math@Palmtree@@QAE@PB_W@Z$0
__ehfuncinfo$??0ArithmeticException@Internal@Core@Math@Palmtree@@QAE@PB_W@Z DD 019930522H
	DD	02H
	DD	FLAT:__unwindtable$??0ArithmeticException@Internal@Core@Math@Palmtree@@QAE@PB_W@Z
	DD	2 DUP(00H)
	DD	2 DUP(00H)
	DD	00H
	DD	04H
xdata$x	ENDS
;	COMDAT xdata$x
xdata$x	SEGMENT
__unwindtable$??_GArgumentNullException@Internal@Core@Math@Palmtree@@UAEPAXI@Z DD 0ffffffffH
	DD	FLAT:__unwindfunclet$??_GArgumentNullException@Internal@Core@Math@Palmtree@@UAEPAXI@Z$0
	DD	0ffffffffH
	DD	FLAT:__unwindfunclet$??_GArgumentNullException@Internal@Core@Math@Palmtree@@UAEPAXI@Z$1
__ehfuncinfo$??_GArgumentNullException@Internal@Core@Math@Palmtree@@UAEPAXI@Z DD 019930522H
	DD	02H
	DD	FLAT:__unwindtable$??_GArgumentNullException@Internal@Core@Math@Palmtree@@UAEPAXI@Z
	DD	2 DUP(00H)
	DD	2 DUP(00H)
	DD	00H
	DD	04H
xdata$x	ENDS
;	COMDAT xdata$x
xdata$x	SEGMENT
__unwindtable$??1ArgumentNullException@Internal@Core@Math@Palmtree@@UAE@XZ DD 0ffffffffH
	DD	FLAT:__unwindfunclet$??1ArgumentNullException@Internal@Core@Math@Palmtree@@UAE@XZ$0
	DD	0ffffffffH
	DD	FLAT:__unwindfunclet$??1ArgumentNullException@Internal@Core@Math@Palmtree@@UAE@XZ$1
__ehfuncinfo$??1ArgumentNullException@Internal@Core@Math@Palmtree@@UAE@XZ DD 019930522H
	DD	02H
	DD	FLAT:__unwindtable$??1ArgumentNullException@Internal@Core@Math@Palmtree@@UAE@XZ
	DD	2 DUP(00H)
	DD	2 DUP(00H)
	DD	00H
	DD	04H
xdata$x	ENDS
;	COMDAT xdata$x
xdata$x	SEGMENT
__unwindtable$??0ArgumentNullException@Internal@Core@Math@Palmtree@@QAE@ABV01234@@Z DD 0ffffffffH
	DD	FLAT:__unwindfunclet$??0ArgumentNullException@Internal@Core@Math@Palmtree@@QAE@ABV01234@@Z$1
	DD	0ffffffffH
	DD	FLAT:__unwindfunclet$??0ArgumentNullException@Internal@Core@Math@Palmtree@@QAE@ABV01234@@Z$0
__ehfuncinfo$??0ArgumentNullException@Internal@Core@Math@Palmtree@@QAE@ABV01234@@Z DD 019930522H
	DD	02H
	DD	FLAT:__unwindtable$??0ArgumentNullException@Internal@Core@Math@Palmtree@@QAE@ABV01234@@Z
	DD	2 DUP(00H)
	DD	2 DUP(00H)
	DD	00H
	DD	04H
xdata$x	ENDS
;	COMDAT xdata$x
xdata$x	SEGMENT
__unwindtable$??0ArgumentNullException@Internal@Core@Math@Palmtree@@QAE@PB_W0@Z DD 0ffffffffH
	DD	FLAT:__unwindfunclet$??0ArgumentNullException@Internal@Core@Math@Palmtree@@QAE@PB_W0@Z$1
	DD	0ffffffffH
	DD	FLAT:__unwindfunclet$??0ArgumentNullException@Internal@Core@Math@Palmtree@@QAE@PB_W0@Z$0
__ehfuncinfo$??0ArgumentNullException@Internal@Core@Math@Palmtree@@QAE@PB_W0@Z DD 019930522H
	DD	02H
	DD	FLAT:__unwindtable$??0ArgumentNullException@Internal@Core@Math@Palmtree@@QAE@PB_W0@Z
	DD	2 DUP(00H)
	DD	2 DUP(00H)
	DD	00H
	DD	04H
xdata$x	ENDS
;	COMDAT xdata$x
xdata$x	SEGMENT
__unwindtable$??_GException@Internal@Core@Math@Palmtree@@UAEPAXI@Z DD 0ffffffffH
	DD	FLAT:__unwindfunclet$??_GException@Internal@Core@Math@Palmtree@@UAEPAXI@Z$0
__ehfuncinfo$??_GException@Internal@Core@Math@Palmtree@@UAEPAXI@Z DD 019930522H
	DD	01H
	DD	FLAT:__unwindtable$??_GException@Internal@Core@Math@Palmtree@@UAEPAXI@Z
	DD	2 DUP(00H)
	DD	2 DUP(00H)
	DD	00H
	DD	04H
xdata$x	ENDS
;	COMDAT xdata$x
xdata$x	SEGMENT
__unwindtable$??1Exception@Internal@Core@Math@Palmtree@@UAE@XZ DD 0ffffffffH
	DD	FLAT:__unwindfunclet$??1Exception@Internal@Core@Math@Palmtree@@UAE@XZ$0
__ehfuncinfo$??1Exception@Internal@Core@Math@Palmtree@@UAE@XZ DD 019930522H
	DD	01H
	DD	FLAT:__unwindtable$??1Exception@Internal@Core@Math@Palmtree@@UAE@XZ
	DD	2 DUP(00H)
	DD	2 DUP(00H)
	DD	00H
	DD	04H
xdata$x	ENDS
;	COMDAT xdata$x
xdata$x	SEGMENT
__unwindtable$??0Exception@Internal@Core@Math@Palmtree@@QAE@ABV01234@@Z DD 0ffffffffH
	DD	FLAT:__unwindfunclet$??0Exception@Internal@Core@Math@Palmtree@@QAE@ABV01234@@Z$0
__ehfuncinfo$??0Exception@Internal@Core@Math@Palmtree@@QAE@ABV01234@@Z DD 019930522H
	DD	01H
	DD	FLAT:__unwindtable$??0Exception@Internal@Core@Math@Palmtree@@QAE@ABV01234@@Z
	DD	2 DUP(00H)
	DD	2 DUP(00H)
	DD	00H
	DD	04H
xdata$x	ENDS
;	COMDAT xdata$x
xdata$x	SEGMENT
__unwindtable$??0Exception@Internal@Core@Math@Palmtree@@IAE@HPB_W0@Z DD 0ffffffffH
	DD	FLAT:__unwindfunclet$??0Exception@Internal@Core@Math@Palmtree@@IAE@HPB_W0@Z$0
__ehfuncinfo$??0Exception@Internal@Core@Math@Palmtree@@IAE@HPB_W0@Z DD 019930522H
	DD	01H
	DD	FLAT:__unwindtable$??0Exception@Internal@Core@Math@Palmtree@@IAE@HPB_W0@Z
	DD	2 DUP(00H)
	DD	2 DUP(00H)
	DD	00H
	DD	04H
xdata$x	ENDS
;	COMDAT xdata$x
xdata$x	SEGMENT
__unwindtable$??0Exception@Internal@Core@Math@Palmtree@@IAE@HPB_W@Z DD 0ffffffffH
	DD	FLAT:__unwindfunclet$??0Exception@Internal@Core@Math@Palmtree@@IAE@HPB_W@Z$0
__ehfuncinfo$??0Exception@Internal@Core@Math@Palmtree@@IAE@HPB_W@Z DD 019930522H
	DD	01H
	DD	FLAT:__unwindtable$??0Exception@Internal@Core@Math@Palmtree@@IAE@HPB_W@Z
	DD	2 DUP(00H)
	DD	2 DUP(00H)
	DD	00H
	DD	04H
xdata$x	ENDS
;	COMDAT xdata$x
xdata$x	SEGMENT
__ehfuncinfo$??_Gexception@std@@UAEPAXI@Z DD 019930522H
	DD	00H
	DD	00H
	DD	2 DUP(00H)
	DD	2 DUP(00H)
	DD	00H
	DD	04H
xdata$x	ENDS
;	COMDAT xdata$x
xdata$x	SEGMENT
__ehfuncinfo$??1exception@std@@UAE@XZ DD 019930522H
	DD	00H
	DD	00H
	DD	2 DUP(00H)
	DD	2 DUP(00H)
	DD	00H
	DD	04H
xdata$x	ENDS
; Function compile flags: /Ogtp
; File z:\sources\lunor\repos\rougemeilland\palmtree.math.core.uint\palmtree.math.core.uint\pmc_greatestcommondivisor.cpp
; File z:\sources\lunor\repos\rougemeilland\palmtree.math.core.uint\palmtree.math.core.uint\pmc_inline_func.h
; File z:\sources\lunor\repos\rougemeilland\palmtree.math.core.uint\palmtree.math.core.uint\pmc_greatestcommondivisor.cpp
; File z:\sources\lunor\repos\rougemeilland\palmtree.math.core.uint\palmtree.math.core.uint\pmc_inline_func.h
; File z:\sources\lunor\repos\rougemeilland\palmtree.math.core.uint\palmtree.math.core.uint\pmc_greatestcommondivisor.cpp
; File z:\sources\lunor\repos\rougemeilland\palmtree.math.core.uint\palmtree.math.core.uint\pmc_inline_func.h
; File z:\sources\lunor\repos\rougemeilland\palmtree.math.core.uint\palmtree.math.core.uint\pmc_greatestcommondivisor.cpp
; File z:\sources\lunor\repos\rougemeilland\palmtree.math.core.uint\palmtree.math.core.uint\pmc_inline_func.h
; File z:\sources\lunor\repos\rougemeilland\palmtree.math.core.uint\palmtree.math.core.uint\pmc_greatestcommondivisor.cpp
; File z:\sources\lunor\repos\rougemeilland\palmtree.math.core.uint\palmtree.math.core.uint\pmc_inline_func.h
; File z:\sources\lunor\repos\rougemeilland\palmtree.math.core.uint\palmtree.math.core.uint\pmc_greatestcommondivisor.cpp
; File z:\sources\lunor\repos\rougemeilland\palmtree.math.core.uint\palmtree.math.core.uint\pmc_inline_func.h
; File z:\sources\lunor\repos\rougemeilland\palmtree.math.core.uint\palmtree.math.core.uint\pmc_greatestcommondivisor.cpp
; File z:\sources\lunor\repos\rougemeilland\palmtree.math.core.uint\palmtree.math.core.uint\pmc_inline_func.h
; File z:\sources\lunor\repos\rougemeilland\palmtree.math.core.uint\palmtree.math.core.uint\pmc_greatestcommondivisor.cpp
; File z:\sources\lunor\repos\rougemeilland\palmtree.math.core.uint\palmtree.math.core.uint\pmc_inline_func.h
; File z:\sources\lunor\repos\rougemeilland\palmtree.math.core.uint\palmtree.math.core.uint\pmc_greatestcommondivisor.cpp
;	COMDAT ?PMC_GreatestCommonDivisor_X_X_Imp@Internal@Core@Math@Palmtree@@YAPAU__tag_NUMBER_HEADER@1234@PAU51234@0@Z
_TEXT	SEGMENT
$T2 = -56						; size = 24
_root$3 = -48						; size = 16
_k$1$ = -32						; size = 4
_w$1$ = -28						; size = 4
_work_bit_count$1$ = -24				; size = 4
_w_buf_count$4 = -24					; size = 4
_v_tzcnt$1$ = -20					; size = 4
_work_v_buf$1$ = -16					; size = 4
__$EHRec$ = -12						; size = 12
_work_u_buf$1$ = 8					; size = 4
_u$ = 8							; size = 4
_v$ = 12						; size = 4
?PMC_GreatestCommonDivisor_X_X_Imp@Internal@Core@Math@Palmtree@@YAPAU__tag_NUMBER_HEADER@1234@PAU51234@0@Z PROC ; Palmtree::Math::Core::Internal::PMC_GreatestCommonDivisor_X_X_Imp, COMDAT

; 395  :     {

  00000	55		 push	 ebp
  00001	8b ec		 mov	 ebp, esp
  00003	6a ff		 push	 -1
  00005	68 00 00 00 00	 push	 __ehhandler$?PMC_GreatestCommonDivisor_X_X_Imp@Internal@Core@Math@Palmtree@@YAPAU__tag_NUMBER_HEADER@1234@PAU51234@0@Z
  0000a	64 a1 00 00 00
	00		 mov	 eax, DWORD PTR fs:0
  00010	50		 push	 eax
  00011	83 ec 2c	 sub	 esp, 44			; 0000002cH
  00014	53		 push	 ebx
  00015	56		 push	 esi
  00016	57		 push	 edi
  00017	a1 00 00 00 00	 mov	 eax, DWORD PTR ___security_cookie
  0001c	33 c5		 xor	 eax, ebp
  0001e	50		 push	 eax
  0001f	8d 45 f4	 lea	 eax, DWORD PTR __$EHRec$[ebp]
  00022	64 a3 00 00 00
	00		 mov	 DWORD PTR fs:0, eax

; 396  :         if (u->IS_ZERO)

  00028	8b 5d 08	 mov	 ebx, DWORD PTR _u$[ebp]
  0002b	f6 43 04 01	 test	 BYTE PTR [ebx+4], 1
  0002f	74 28		 je	 SHORT $LN2@PMC_Greate

; 397  :         {
; 398  :             // u が 0 である場合
; 399  : 
; 400  :             if (v->IS_ZERO)

  00031	8b 45 0c	 mov	 eax, DWORD PTR _v$[ebp]
  00034	f6 40 04 01	 test	 BYTE PTR [eax+4], 1
  00038	0f 85 ec 01 00
	00		 jne	 $LN29@PMC_Greate

; 406  :             }
; 407  :             else
; 408  :             {
; 409  :                 // v が 0 ではない場合
; 410  : 
; 411  :                 // GCD は v そのものであるため、v を計算結果として返す。
; 412  :                 return (DuplicateNumber(v));

  0003e	50		 push	 eax
  0003f	e8 00 00 00 00	 call	 ?DuplicateNumber@Internal@Core@Math@Palmtree@@YAPAU__tag_NUMBER_HEADER@1234@PAU51234@@Z ; Palmtree::Math::Core::Internal::DuplicateNumber
  00044	83 c4 04	 add	 esp, 4

; 477  :                 }
; 478  :             }
; 479  :         }
; 480  :     }

  00047	8b 4d f4	 mov	 ecx, DWORD PTR __$EHRec$[ebp]
  0004a	64 89 0d 00 00
	00 00		 mov	 DWORD PTR fs:0, ecx
  00051	59		 pop	 ecx
  00052	5f		 pop	 edi
  00053	5e		 pop	 esi
  00054	5b		 pop	 ebx
  00055	8b e5		 mov	 esp, ebp
  00057	5d		 pop	 ebp
  00058	c3		 ret	 0
$LN2@PMC_Greate:

; 413  :             }
; 414  :         }
; 415  :         else
; 416  :         {
; 417  :             // u が 0 ではない場合
; 418  : 
; 419  :             if (v->IS_ZERO)

  00059	8b 75 0c	 mov	 esi, DWORD PTR _v$[ebp]
  0005c	f6 46 04 01	 test	 BYTE PTR [esi+4], 1
  00060	74 1b		 je	 SHORT $LN6@PMC_Greate

; 420  :             {
; 421  :                 // v が 0 である場合
; 422  : 
; 423  :                 // GCD は u そのものであるため、u を計算結果として返す。
; 424  :                 return (DuplicateNumber(u));

  00062	53		 push	 ebx
  00063	e8 00 00 00 00	 call	 ?DuplicateNumber@Internal@Core@Math@Palmtree@@YAPAU__tag_NUMBER_HEADER@1234@PAU51234@@Z ; Palmtree::Math::Core::Internal::DuplicateNumber
  00068	83 c4 04	 add	 esp, 4

; 477  :                 }
; 478  :             }
; 479  :         }
; 480  :     }

  0006b	8b 4d f4	 mov	 ecx, DWORD PTR __$EHRec$[ebp]
  0006e	64 89 0d 00 00
	00 00		 mov	 DWORD PTR fs:0, ecx
  00075	59		 pop	 ecx
  00076	5f		 pop	 edi
  00077	5e		 pop	 esi
  00078	5b		 pop	 ebx
  00079	8b e5		 mov	 esp, ebp
  0007b	5d		 pop	 ebp
  0007c	c3		 ret	 0
$LN6@PMC_Greate:

; 425  :             }
; 426  :             else
; 427  :             {
; 428  :                 // u と v がともに 0 ではない場合
; 429  : 
; 430  :                 // u と v の GCD を計算する
; 431  :                 ResourceHolderUINT root;

  0007d	8d 4d d0	 lea	 ecx, DWORD PTR _root$3[ebp]
  00080	e8 00 00 00 00	 call	 ??0ResourceHolderUINT@Internal@Core@Math@Palmtree@@QAE@XZ ; Palmtree::Math::Core::Internal::ResourceHolderUINT::ResourceHolderUINT
  00085	c7 45 fc 00 00
	00 00		 mov	 DWORD PTR __$EHRec$[ebp+8], 0

; 435  :                 if (work_bit_count <= __UNIT_TYPE_BIT_COUNT)

  0008c	8d 4d d0	 lea	 ecx, DWORD PTR _root$3[ebp]
  0008f	8b 7e 14	 mov	 edi, DWORD PTR [esi+20]
; File z:\sources\lunor\repos\rougemeilland\palmtree.math.core.uint\palmtree.math.core.uint\pmc_inline_func.h

; 167  :             return (x >= y ? x : y);

  00092	39 7b 14	 cmp	 DWORD PTR [ebx+20], edi
  00095	0f 43 7b 14	 cmovae	 edi, DWORD PTR [ebx+20]
  00099	89 7d e8	 mov	 DWORD PTR _work_bit_count$1$[ebp], edi
; File z:\sources\lunor\repos\rougemeilland\palmtree.math.core.uint\palmtree.math.core.uint\pmc_greatestcommondivisor.cpp

; 435  :                 if (work_bit_count <= __UNIT_TYPE_BIT_COUNT)

  0009c	83 ff 20	 cmp	 edi, 32			; 00000020H
  0009f	77 61		 ja	 SHORT $LN8@PMC_Greate

; 436  :                 {
; 437  :                     // u と v がともに 1 ワードで表現できる場合
; 438  :                     NUMBER_HEADER* w = root.AllocateNumber(__UNIT_TYPE_BIT_COUNT);

  000a1	6a 20		 push	 32			; 00000020H
  000a3	e8 00 00 00 00	 call	 ?AllocateNumber@ResourceHolderUINT@Internal@Core@Math@Palmtree@@QAEPAU__tag_NUMBER_HEADER@2345@I@Z ; Palmtree::Math::Core::Internal::ResourceHolderUINT::AllocateNumber

; 439  :                     w->BLOCK[0] = GreatestCommonDivisor_1W_Imp(u->BLOCK[0], v->BLOCK[0]);

  000a8	8b 4d 0c	 mov	 ecx, DWORD PTR _v$[ebp]
  000ab	8b f0		 mov	 esi, eax
  000ad	8b 49 24	 mov	 ecx, DWORD PTR [ecx+36]
  000b0	ff 31		 push	 DWORD PTR [ecx]
  000b2	8b 4b 24	 mov	 ecx, DWORD PTR [ebx+36]
  000b5	ff 31		 push	 DWORD PTR [ecx]
  000b7	e8 00 00 00 00	 call	 ?GreatestCommonDivisor_1W_Imp@Internal@Core@Math@Palmtree@@YAIII@Z ; Palmtree::Math::Core::Internal::GreatestCommonDivisor_1W_Imp
  000bc	8b 4e 24	 mov	 ecx, DWORD PTR [esi+36]
  000bf	83 c4 08	 add	 esp, 8
  000c2	89 01		 mov	 DWORD PTR [ecx], eax

; 440  :                     root.CheckNumber(w);

  000c4	8d 4d d0	 lea	 ecx, DWORD PTR _root$3[ebp]
  000c7	56		 push	 esi
  000c8	e8 00 00 00 00	 call	 ?CheckNumber@ResourceHolderUINT@Internal@Core@Math@Palmtree@@QAEXPAU__tag_NUMBER_HEADER@2345@@Z ; Palmtree::Math::Core::Internal::ResourceHolderUINT::CheckNumber

; 441  :                     CommitNumber(w);

  000cd	56		 push	 esi
  000ce	e8 00 00 00 00	 call	 ?CommitNumber@Internal@Core@Math@Palmtree@@YAXPAU__tag_NUMBER_HEADER@1234@@Z ; Palmtree::Math::Core::Internal::CommitNumber
  000d3	83 c4 04	 add	 esp, 4

; 442  :                     root.UnlinkNumber(w);

  000d6	8d 4d d0	 lea	 ecx, DWORD PTR _root$3[ebp]
  000d9	56		 push	 esi
  000da	e8 00 00 00 00	 call	 ?UnlinkNumber@ResourceHolderUINT@Internal@Core@Math@Palmtree@@QAEXPAU__tag_NUMBER_HEADER@2345@@Z ; Palmtree::Math::Core::Internal::ResourceHolderUINT::UnlinkNumber

; 443  :                     return (w);

  000df	c7 45 fc ff ff
	ff ff		 mov	 DWORD PTR __$EHRec$[ebp+8], -1
  000e6	8d 4d d0	 lea	 ecx, DWORD PTR _root$3[ebp]
  000e9	e8 00 00 00 00	 call	 ??1ResourceHolderUINT@Internal@Core@Math@Palmtree@@UAE@XZ ; Palmtree::Math::Core::Internal::ResourceHolderUINT::~ResourceHolderUINT
  000ee	8b c6		 mov	 eax, esi

; 477  :                 }
; 478  :             }
; 479  :         }
; 480  :     }

  000f0	8b 4d f4	 mov	 ecx, DWORD PTR __$EHRec$[ebp]
  000f3	64 89 0d 00 00
	00 00		 mov	 DWORD PTR fs:0, ecx
  000fa	59		 pop	 ecx
  000fb	5f		 pop	 edi
  000fc	5e		 pop	 esi
  000fd	5b		 pop	 ebx
  000fe	8b e5		 mov	 esp, ebp
  00100	5d		 pop	 ebp
  00101	c3		 ret	 0
$LN8@PMC_Greate:

; 444  :                 }
; 445  :                 else
; 446  :                 {
; 447  :                     // u と v のどちらかが 1 ワードで表現できない場合
; 448  :                     __UNIT_TYPE* work_u_buf = root.AllocateBlock(work_bit_count);

  00102	57		 push	 edi
  00103	e8 00 00 00 00	 call	 ?AllocateBlock@ResourceHolderUINT@Internal@Core@Math@Palmtree@@QAEPAII@Z ; Palmtree::Math::Core::Internal::ResourceHolderUINT::AllocateBlock

; 449  :                     __UNIT_TYPE* work_v_buf = root.AllocateBlock(work_bit_count);

  00108	57		 push	 edi
  00109	8d 4d d0	 lea	 ecx, DWORD PTR _root$3[ebp]
  0010c	89 45 08	 mov	 DWORD PTR _work_u_buf$1$[ebp], eax
  0010f	e8 00 00 00 00	 call	 ?AllocateBlock@ResourceHolderUINT@Internal@Core@Math@Palmtree@@QAEPAII@Z ; Palmtree::Math::Core::Internal::ResourceHolderUINT::AllocateBlock

; 450  :                     NUMBER_HEADER* w = root.AllocateNumber(work_bit_count);

  00114	57		 push	 edi
  00115	8d 4d d0	 lea	 ecx, DWORD PTR _root$3[ebp]
  00118	89 45 f0	 mov	 DWORD PTR _work_v_buf$1$[ebp], eax
  0011b	e8 00 00 00 00	 call	 ?AllocateNumber@ResourceHolderUINT@Internal@Core@Math@Palmtree@@QAEPAU__tag_NUMBER_HEADER@2345@I@Z ; Palmtree::Math::Core::Internal::ResourceHolderUINT::AllocateNumber

; 451  : 
; 452  :                     __UNIT_TYPE u_tzcnt = u->TRAILING_ZERO_BITS_COUNT;

  00120	8b 4b 18	 mov	 ecx, DWORD PTR [ebx+24]
  00123	89 45 e4	 mov	 DWORD PTR _w$1$[ebp], eax

; 453  :                     __UNIT_TYPE v_tzcnt = v->TRAILING_ZERO_BITS_COUNT;

  00126	8b 46 18	 mov	 eax, DWORD PTR [esi+24]
; File z:\sources\lunor\repos\rougemeilland\palmtree.math.core.uint\palmtree.math.core.uint\pmc_inline_func.h

; 172  :             return (x <= y ? x : y);

  00129	3b c8		 cmp	 ecx, eax
  0012b	8b d0		 mov	 edx, eax
; File z:\sources\lunor\repos\rougemeilland\palmtree.math.core.uint\palmtree.math.core.uint\pmc_greatestcommondivisor.cpp

; 453  :                     __UNIT_TYPE v_tzcnt = v->TRAILING_ZERO_BITS_COUNT;

  0012d	89 45 ec	 mov	 DWORD PTR _v_tzcnt$1$[ebp], eax
; File z:\sources\lunor\repos\rougemeilland\palmtree.math.core.uint\palmtree.math.core.uint\pmc_inline_func.h

; 172  :             return (x <= y ? x : y);

  00130	0f 46 d1	 cmovbe	 edx, ecx
  00133	89 55 e0	 mov	 DWORD PTR _k$1$[ebp], edx
; File z:\sources\lunor\repos\rougemeilland\palmtree.math.core.uint\palmtree.math.core.uint\pmc_greatestcommondivisor.cpp

; 455  :                     if (u_tzcnt > 0)

  00136	85 c9		 test	 ecx, ecx
  00138	74 19		 je	 SHORT $LN10@PMC_Greate

; 456  :                         RightShift_Imp(u->BLOCK, u->UNIT_WORD_COUNT, u_tzcnt, work_u_buf, FALSE);

  0013a	6a 00		 push	 0
  0013c	ff 75 08	 push	 DWORD PTR _work_u_buf$1$[ebp]
  0013f	51		 push	 ecx
  00140	ff 73 10	 push	 DWORD PTR [ebx+16]
  00143	ff 73 24	 push	 DWORD PTR [ebx+36]
  00146	e8 00 00 00 00	 call	 ?RightShift_Imp@Internal@Core@Math@Palmtree@@YAXPAIII0H@Z ; Palmtree::Math::Core::Internal::RightShift_Imp

; 457  :                     else

  0014b	8b 45 ec	 mov	 eax, DWORD PTR _v_tzcnt$1$[ebp]
  0014e	83 c4 14	 add	 esp, 20			; 00000014H
  00151	eb 0e		 jmp	 SHORT $LN11@PMC_Greate
$LN10@PMC_Greate:
; File z:\sources\lunor\repos\rougemeilland\palmtree.math.core.uint\palmtree.math.core.uint\pmc_inline_func.h

; 65   :             __movsd((unsigned long *)d, (unsigned long *)s, (unsigned long)count);

  00153	8b 7d 08	 mov	 edi, DWORD PTR _work_u_buf$1$[ebp]
  00156	8b 73 24	 mov	 esi, DWORD PTR [ebx+36]
  00159	8b 4b 10	 mov	 ecx, DWORD PTR [ebx+16]
  0015c	f3 a5		 rep movsd
  0015e	8b 75 0c	 mov	 esi, DWORD PTR _v$[ebp]
$LN11@PMC_Greate:
; File z:\sources\lunor\repos\rougemeilland\palmtree.math.core.uint\palmtree.math.core.uint\pmc_greatestcommondivisor.cpp

; 459  :                     if (v_tzcnt > 0)

  00161	8b 5d f0	 mov	 ebx, DWORD PTR _work_v_buf$1$[ebp]
  00164	85 c0		 test	 eax, eax
  00166	74 14		 je	 SHORT $LN12@PMC_Greate

; 460  :                         RightShift_Imp(v->BLOCK, v->UNIT_WORD_COUNT, v_tzcnt, work_v_buf, FALSE);

  00168	6a 00		 push	 0
  0016a	53		 push	 ebx
  0016b	50		 push	 eax
  0016c	ff 76 10	 push	 DWORD PTR [esi+16]
  0016f	ff 76 24	 push	 DWORD PTR [esi+36]
  00172	e8 00 00 00 00	 call	 ?RightShift_Imp@Internal@Core@Math@Palmtree@@YAXPAIII0H@Z ; Palmtree::Math::Core::Internal::RightShift_Imp
  00177	83 c4 14	 add	 esp, 20			; 00000014H

; 461  :                     else

  0017a	eb 0d		 jmp	 SHORT $LN13@PMC_Greate
$LN12@PMC_Greate:
; File z:\sources\lunor\repos\rougemeilland\palmtree.math.core.uint\palmtree.math.core.uint\pmc_inline_func.h

; 65   :             __movsd((unsigned long *)d, (unsigned long *)s, (unsigned long)count);

  0017c	8b 4d 0c	 mov	 ecx, DWORD PTR _v$[ebp]
  0017f	8b fb		 mov	 edi, ebx
  00181	8b 76 24	 mov	 esi, DWORD PTR [esi+36]
  00184	8b 49 10	 mov	 ecx, DWORD PTR [ecx+16]
  00187	f3 a5		 rep movsd
$LN13@PMC_Greate:
; File z:\sources\lunor\repos\rougemeilland\palmtree.math.core.uint\palmtree.math.core.uint\pmc_greatestcommondivisor.cpp

; 465  :                     GreatestCommonDivisor_Imp(work_u_buf, work_v_buf, _DIVIDE_CEILING_UNIT(work_bit_count, __UNIT_TYPE_BIT_COUNT), w->BLOCK, &w_buf_count);

  00189	8b 7d e4	 mov	 edi, DWORD PTR _w$1$[ebp]
  0018c	8d 4d e8	 lea	 ecx, DWORD PTR _w_buf_count$4[ebp]
; File z:\sources\lunor\repos\rougemeilland\palmtree.math.core.uint\palmtree.math.core.uint\pmc_inline_func.h

; 157  :             return ((u + v - 1) / v);

  0018f	8b 45 e8	 mov	 eax, DWORD PTR _work_bit_count$1$[ebp]
; File z:\sources\lunor\repos\rougemeilland\palmtree.math.core.uint\palmtree.math.core.uint\pmc_greatestcommondivisor.cpp

; 465  :                     GreatestCommonDivisor_Imp(work_u_buf, work_v_buf, _DIVIDE_CEILING_UNIT(work_bit_count, __UNIT_TYPE_BIT_COUNT), w->BLOCK, &w_buf_count);

  00192	8b 75 08	 mov	 esi, DWORD PTR _work_u_buf$1$[ebp]
; File z:\sources\lunor\repos\rougemeilland\palmtree.math.core.uint\palmtree.math.core.uint\pmc_inline_func.h

; 157  :             return ((u + v - 1) / v);

  00195	83 c0 1f	 add	 eax, 31			; 0000001fH
; File z:\sources\lunor\repos\rougemeilland\palmtree.math.core.uint\palmtree.math.core.uint\pmc_greatestcommondivisor.cpp

; 465  :                     GreatestCommonDivisor_Imp(work_u_buf, work_v_buf, _DIVIDE_CEILING_UNIT(work_bit_count, __UNIT_TYPE_BIT_COUNT), w->BLOCK, &w_buf_count);

  00198	51		 push	 ecx
  00199	ff 77 24	 push	 DWORD PTR [edi+36]
; File z:\sources\lunor\repos\rougemeilland\palmtree.math.core.uint\palmtree.math.core.uint\pmc_inline_func.h

; 157  :             return ((u + v - 1) / v);

  0019c	c1 e8 05	 shr	 eax, 5
; File z:\sources\lunor\repos\rougemeilland\palmtree.math.core.uint\palmtree.math.core.uint\pmc_greatestcommondivisor.cpp

; 465  :                     GreatestCommonDivisor_Imp(work_u_buf, work_v_buf, _DIVIDE_CEILING_UNIT(work_bit_count, __UNIT_TYPE_BIT_COUNT), w->BLOCK, &w_buf_count);

  0019f	50		 push	 eax
  001a0	53		 push	 ebx
  001a1	56		 push	 esi
  001a2	e8 00 00 00 00	 call	 ?GreatestCommonDivisor_Imp@Internal@Core@Math@Palmtree@@YAXPAI0I00@Z ; Palmtree::Math::Core::Internal::GreatestCommonDivisor_Imp
  001a7	83 c4 14	 add	 esp, 20			; 00000014H

; 466  :                     root.CheckBlock(work_u_buf);

  001aa	8d 4d d0	 lea	 ecx, DWORD PTR _root$3[ebp]
  001ad	56		 push	 esi
  001ae	e8 00 00 00 00	 call	 ?CheckBlock@ResourceHolderUINT@Internal@Core@Math@Palmtree@@QAEXPAI@Z ; Palmtree::Math::Core::Internal::ResourceHolderUINT::CheckBlock

; 467  :                     root.CheckBlock(work_v_buf);

  001b3	53		 push	 ebx
  001b4	8d 4d d0	 lea	 ecx, DWORD PTR _root$3[ebp]
  001b7	e8 00 00 00 00	 call	 ?CheckBlock@ResourceHolderUINT@Internal@Core@Math@Palmtree@@QAEXPAI@Z ; Palmtree::Math::Core::Internal::ResourceHolderUINT::CheckBlock

; 468  :                     root.CheckNumber(w);

  001bc	57		 push	 edi
  001bd	8d 4d d0	 lea	 ecx, DWORD PTR _root$3[ebp]
  001c0	e8 00 00 00 00	 call	 ?CheckNumber@ResourceHolderUINT@Internal@Core@Math@Palmtree@@QAEXPAU__tag_NUMBER_HEADER@2345@@Z ; Palmtree::Math::Core::Internal::ResourceHolderUINT::CheckNumber

; 469  :                     root.DeallocateBlock(work_v_buf);

  001c5	53		 push	 ebx
  001c6	8d 4d d0	 lea	 ecx, DWORD PTR _root$3[ebp]
  001c9	e8 00 00 00 00	 call	 ?DeallocateBlock@ResourceHolderUINT@Internal@Core@Math@Palmtree@@QAEXPAI@Z ; Palmtree::Math::Core::Internal::ResourceHolderUINT::DeallocateBlock

; 470  :                     root.DeallocateBlock(work_u_buf);

  001ce	56		 push	 esi
  001cf	8d 4d d0	 lea	 ecx, DWORD PTR _root$3[ebp]
  001d2	e8 00 00 00 00	 call	 ?DeallocateBlock@ResourceHolderUINT@Internal@Core@Math@Palmtree@@QAEXPAI@Z ; Palmtree::Math::Core::Internal::ResourceHolderUINT::DeallocateBlock

; 471  : 
; 472  :                     LeftShift_Imp(w->BLOCK, w_buf_count, k, w->BLOCK, TRUE);

  001d7	8b 47 24	 mov	 eax, DWORD PTR [edi+36]
  001da	6a 01		 push	 1
  001dc	50		 push	 eax
  001dd	ff 75 e0	 push	 DWORD PTR _k$1$[ebp]
  001e0	ff 75 e8	 push	 DWORD PTR _w_buf_count$4[ebp]
  001e3	50		 push	 eax
  001e4	e8 00 00 00 00	 call	 ?LeftShift_Imp@Internal@Core@Math@Palmtree@@YAXPAIII0H@Z ; Palmtree::Math::Core::Internal::LeftShift_Imp
  001e9	83 c4 14	 add	 esp, 20			; 00000014H

; 473  :                     root.CheckNumber(w);

  001ec	8d 4d d0	 lea	 ecx, DWORD PTR _root$3[ebp]
  001ef	57		 push	 edi
  001f0	e8 00 00 00 00	 call	 ?CheckNumber@ResourceHolderUINT@Internal@Core@Math@Palmtree@@QAEXPAU__tag_NUMBER_HEADER@2345@@Z ; Palmtree::Math::Core::Internal::ResourceHolderUINT::CheckNumber

; 474  :                     CommitNumber(w);

  001f5	57		 push	 edi
  001f6	e8 00 00 00 00	 call	 ?CommitNumber@Internal@Core@Math@Palmtree@@YAXPAU__tag_NUMBER_HEADER@1234@@Z ; Palmtree::Math::Core::Internal::CommitNumber
  001fb	83 c4 04	 add	 esp, 4

; 475  :                     root.UnlinkNumber(w);

  001fe	8d 4d d0	 lea	 ecx, DWORD PTR _root$3[ebp]
  00201	57		 push	 edi
  00202	e8 00 00 00 00	 call	 ?UnlinkNumber@ResourceHolderUINT@Internal@Core@Math@Palmtree@@QAEXPAU__tag_NUMBER_HEADER@2345@@Z ; Palmtree::Math::Core::Internal::ResourceHolderUINT::UnlinkNumber

; 476  :                     return (w);

  00207	c7 45 fc ff ff
	ff ff		 mov	 DWORD PTR __$EHRec$[ebp+8], -1
  0020e	8d 4d d0	 lea	 ecx, DWORD PTR _root$3[ebp]
  00211	e8 00 00 00 00	 call	 ??1ResourceHolderUINT@Internal@Core@Math@Palmtree@@UAE@XZ ; Palmtree::Math::Core::Internal::ResourceHolderUINT::~ResourceHolderUINT
  00216	8b c7		 mov	 eax, edi

; 477  :                 }
; 478  :             }
; 479  :         }
; 480  :     }

  00218	8b 4d f4	 mov	 ecx, DWORD PTR __$EHRec$[ebp]
  0021b	64 89 0d 00 00
	00 00		 mov	 DWORD PTR fs:0, ecx
  00222	59		 pop	 ecx
  00223	5f		 pop	 edi
  00224	5e		 pop	 esi
  00225	5b		 pop	 ebx
  00226	8b e5		 mov	 esp, ebp
  00228	5d		 pop	 ebp
  00229	c3		 ret	 0
$LN29@PMC_Greate:

; 401  :             {
; 402  :                 // v が 0 である場合
; 403  : 
; 404  :                 // u と v がともに 0 であり、GCD は一意に存在しないため、エラーを返す。
; 405  :                 throw ArithmeticException(L"引数が2つとも0なのでGCDを一意に求めることができません。");

  0022a	68 00 00 00 00	 push	 OFFSET ??_C@_1DO@NPBJHMD@?$AA?$BF?$AAp?$AAL?$AA2?$AAd?$AAh?$PP?$IC?$AA0?$AAj?$AAn?$AAg?$AAG?$AAC?$AAD?$PP?$JC@
  0022f	8d 4d c8	 lea	 ecx, DWORD PTR $T2[ebp]
  00232	e8 00 00 00 00	 call	 ??0ArithmeticException@Internal@Core@Math@Palmtree@@QAE@PB_W@Z ; Palmtree::Math::Core::Internal::ArithmeticException::ArithmeticException
  00237	68 00 00 00 00	 push	 OFFSET __TI2?AVArithmeticException@Internal@Core@Math@Palmtree@@
  0023c	8d 45 c8	 lea	 eax, DWORD PTR $T2[ebp]
  0023f	50		 push	 eax
  00240	e8 00 00 00 00	 call	 __CxxThrowException@8
$LN27@PMC_Greate:
  00245	cc		 int	 3
_TEXT	ENDS
;	COMDAT text$x
text$x	SEGMENT
__unwindfunclet$?PMC_GreatestCommonDivisor_X_X_Imp@Internal@Core@Math@Palmtree@@YAPAU__tag_NUMBER_HEADER@1234@PAU51234@0@Z$0:
  00000	8d 4d d0	 lea	 ecx, DWORD PTR _root$3[ebp]
  00003	e9 00 00 00 00	 jmp	 ??1ResourceHolderUINT@Internal@Core@Math@Palmtree@@UAE@XZ ; Palmtree::Math::Core::Internal::ResourceHolderUINT::~ResourceHolderUINT
__ehhandler$?PMC_GreatestCommonDivisor_X_X_Imp@Internal@Core@Math@Palmtree@@YAPAU__tag_NUMBER_HEADER@1234@PAU51234@0@Z:
  00008	8b 54 24 08	 mov	 edx, DWORD PTR [esp+8]
  0000c	8d 42 0c	 lea	 eax, DWORD PTR [edx+12]
  0000f	8b 4a c4	 mov	 ecx, DWORD PTR [edx-60]
  00012	33 c8		 xor	 ecx, eax
  00014	e8 00 00 00 00	 call	 @__security_check_cookie@4
  00019	b8 00 00 00 00	 mov	 eax, OFFSET __ehfuncinfo$?PMC_GreatestCommonDivisor_X_X_Imp@Internal@Core@Math@Palmtree@@YAPAU__tag_NUMBER_HEADER@1234@PAU51234@0@Z
  0001e	e9 00 00 00 00	 jmp	 ___CxxFrameHandler3
text$x	ENDS
?PMC_GreatestCommonDivisor_X_X_Imp@Internal@Core@Math@Palmtree@@YAPAU__tag_NUMBER_HEADER@1234@PAU51234@0@Z ENDP ; Palmtree::Math::Core::Internal::PMC_GreatestCommonDivisor_X_X_Imp
; Function compile flags: /Ogtp
; File z:\sources\lunor\repos\rougemeilland\palmtree.math.core.uint\palmtree.math.core.uint\pmc_greatestcommondivisor.cpp
; File z:\sources\lunor\repos\rougemeilland\palmtree.math.core.uint\palmtree.math.core.uint\pmc_inline_func.h
; File z:\sources\lunor\repos\rougemeilland\palmtree.math.core.uint\palmtree.math.core.uint\pmc_greatestcommondivisor.cpp
; File z:\sources\lunor\repos\rougemeilland\palmtree.math.core.uint\palmtree.math.core.uint\pmc_inline_func.h
; File z:\sources\lunor\repos\rougemeilland\palmtree.math.core.uint\palmtree.math.core.uint\pmc_greatestcommondivisor.cpp
; File z:\sources\lunor\repos\rougemeilland\palmtree.math.core.uint\palmtree.math.core.uint\pmc_inline_func.h
; File z:\sources\lunor\repos\rougemeilland\palmtree.math.core.uint\palmtree.math.core.uint\pmc_greatestcommondivisor.cpp
; File z:\sources\lunor\repos\rougemeilland\palmtree.math.core.uint\palmtree.math.core.uint\pmc_inline_func.h
; File z:\sources\lunor\repos\rougemeilland\palmtree.math.core.uint\palmtree.math.core.uint\pmc_greatestcommondivisor.cpp
; File z:\sources\lunor\repos\rougemeilland\palmtree.math.core.uint\palmtree.math.core.uint\pmc_inline_func.h
; File z:\sources\lunor\repos\rougemeilland\palmtree.math.core.uint\palmtree.math.core.uint\pmc_greatestcommondivisor.cpp
; File z:\sources\lunor\repos\rougemeilland\palmtree.math.core.uint\palmtree.math.core.uint\pmc_inline_func.h
; File z:\sources\lunor\repos\rougemeilland\palmtree.math.core.uint\palmtree.math.core.uint\pmc_greatestcommondivisor.cpp
; File z:\sources\lunor\repos\rougemeilland\palmtree.math.core.uint\palmtree.math.core.uint\pmc_inline_func.h
; File z:\sources\lunor\repos\rougemeilland\palmtree.math.core.uint\palmtree.math.core.uint\pmc_greatestcommondivisor.cpp
; File z:\sources\lunor\repos\rougemeilland\palmtree.math.core.uint\palmtree.math.core.uint\pmc_inline_func.h
; File z:\sources\lunor\repos\rougemeilland\palmtree.math.core.uint\palmtree.math.core.uint\pmc_greatestcommondivisor.cpp
; File z:\sources\lunor\repos\rougemeilland\palmtree.math.core.uint\palmtree.math.core.uint\pmc_inline_func.h
; File z:\sources\lunor\repos\rougemeilland\palmtree.math.core.uint\palmtree.math.core.uint\pmc_greatestcommondivisor.cpp
; File z:\sources\lunor\repos\rougemeilland\palmtree.math.core.uint\palmtree.math.core.uint\pmc_inline_func.h
; File z:\sources\lunor\repos\rougemeilland\palmtree.math.core.uint\palmtree.math.core.uint\pmc_greatestcommondivisor.cpp
; File z:\sources\lunor\repos\rougemeilland\palmtree.math.core.uint\palmtree.math.core.uint\pmc_inline_func.h
; File z:\sources\lunor\repos\rougemeilland\palmtree.math.core.uint\palmtree.math.core.uint\pmc_greatestcommondivisor.cpp
; File z:\sources\lunor\repos\rougemeilland\palmtree.math.core.uint\palmtree.math.core.uint\pmc_inline_func.h
; File z:\sources\lunor\repos\rougemeilland\palmtree.math.core.uint\palmtree.math.core.uint\pmc_greatestcommondivisor.cpp
; File z:\sources\lunor\repos\rougemeilland\palmtree.math.core.uint\palmtree.math.core.uint\pmc_inline_func.h
; File z:\sources\lunor\repos\rougemeilland\palmtree.math.core.uint\palmtree.math.core.uint\pmc_greatestcommondivisor.cpp
; File z:\sources\lunor\repos\rougemeilland\palmtree.math.core.uint\palmtree.math.core.uint\pmc_inline_func.h
; File z:\sources\lunor\repos\rougemeilland\palmtree.math.core.uint\palmtree.math.core.uint\pmc_greatestcommondivisor.cpp
; File z:\sources\lunor\repos\rougemeilland\palmtree.math.core.uint\palmtree.math.core.uint\pmc_inline_func.h
; File z:\sources\lunor\repos\rougemeilland\palmtree.math.core.uint\palmtree.math.core.uint\pmc_greatestcommondivisor.cpp
; File z:\sources\lunor\repos\rougemeilland\palmtree.math.core.uint\palmtree.math.core.uint\pmc_inline_func.h
; File z:\sources\lunor\repos\rougemeilland\palmtree.math.core.uint\palmtree.math.core.uint\pmc_greatestcommondivisor.cpp
;	COMDAT ?PMC_GreatestCommonDivisor_X_L_Imp@Internal@Core@Math@Palmtree@@YAPAU__tag_NUMBER_HEADER@1234@PAU51234@_K@Z
_TEXT	SEGMENT
$T2 = -56						; size = 24
_root$3 = -48						; size = 16
_root$4 = -48						; size = 16
_work_v_buf$1$ = -32					; size = 4
_k$1$ = -32						; size = 4
_w$1$ = -28						; size = 4
_w$1$ = -28						; size = 4
_k$1$ = -24						; size = 4
_work_bit_count$1$ = -24				; size = 4
_w_buf_count$5 = -24					; size = 4
_v_tzcnt$1$ = -20					; size = 4
_work_v_buf$1$ = -20					; size = 4
$T6 = -16						; size = 4
_work_u_buf$1$ = -16					; size = 4
__$EHRec$ = -12						; size = 12
_work_bit_count$1$ = 8					; size = 4
_work_u_buf$1$ = 8					; size = 4
_u_bit_count$1$ = 8					; size = 4
_w_buf_count$7 = 8					; size = 4
_u$ = 8							; size = 4
_v$ = 12						; size = 8
?PMC_GreatestCommonDivisor_X_L_Imp@Internal@Core@Math@Palmtree@@YAPAU__tag_NUMBER_HEADER@1234@PAU51234@_K@Z PROC ; Palmtree::Math::Core::Internal::PMC_GreatestCommonDivisor_X_L_Imp, COMDAT

; 215  :     {

  00000	55		 push	 ebp
  00001	8b ec		 mov	 ebp, esp
  00003	6a ff		 push	 -1
  00005	68 00 00 00 00	 push	 __ehhandler$?PMC_GreatestCommonDivisor_X_L_Imp@Internal@Core@Math@Palmtree@@YAPAU__tag_NUMBER_HEADER@1234@PAU51234@_K@Z
  0000a	64 a1 00 00 00
	00		 mov	 eax, DWORD PTR fs:0
  00010	50		 push	 eax
  00011	83 ec 2c	 sub	 esp, 44			; 0000002cH
  00014	53		 push	 ebx
  00015	56		 push	 esi
  00016	57		 push	 edi
  00017	a1 00 00 00 00	 mov	 eax, DWORD PTR ___security_cookie
  0001c	33 c5		 xor	 eax, ebp
  0001e	50		 push	 eax
  0001f	8d 45 f4	 lea	 eax, DWORD PTR __$EHRec$[ebp]
  00022	64 a3 00 00 00
	00		 mov	 DWORD PTR fs:0, eax

; 216  :         if (u->IS_ZERO)

  00028	8b 5d 08	 mov	 ebx, DWORD PTR _u$[ebp]
  0002b	f6 43 04 01	 test	 BYTE PTR [ebx+4], 1
  0002f	74 2c		 je	 SHORT $LN2@PMC_Greate

; 217  :         {
; 218  :             // u が 0 である場合
; 219  : 
; 220  :             if (v == 0)

  00031	8b 4d 0c	 mov	 ecx, DWORD PTR _v$[ebp]
  00034	8b c1		 mov	 eax, ecx
  00036	8b 55 10	 mov	 edx, DWORD PTR _v$[ebp+4]
  00039	0b c2		 or	 eax, edx
  0003b	0f 84 0b 03 00
	00		 je	 $LN79@PMC_Greate

; 226  :             }
; 227  :             else
; 228  :             {
; 229  :                 // v が 0 ではない場合
; 230  : 
; 231  :                 // GCD は v そのものであるため、v を計算結果として返す。
; 232  :                 return (From_L_Imp(v));

  00041	52		 push	 edx
  00042	51		 push	 ecx
  00043	e8 00 00 00 00	 call	 ?From_L_Imp@Internal@Core@Math@Palmtree@@YAPAU__tag_NUMBER_HEADER@1234@_K@Z ; Palmtree::Math::Core::Internal::From_L_Imp
  00048	83 c4 08	 add	 esp, 8

; 340  :                     }
; 341  :                 }
; 342  :                 else
; 343  :                 {
; 344  :                     // _UINT64_T が 1 ワードで表現できる場合
; 345  :                     ResourceHolderUINT root;
; 346  :                     if (u->UNIT_WORD_COUNT <= 1)
; 347  :                     {
; 348  :                         // u と v がともに 1 ワードで表現できる場合
; 349  :                         NUMBER_HEADER* w = root.AllocateNumber(__UNIT_TYPE_BIT_COUNT);
; 350  :                         w->BLOCK[0] = GreatestCommonDivisor_1W_Imp(u->BLOCK[0], (__UNIT_TYPE)v);
; 351  :                         root.CheckNumber(w);
; 352  :                         CommitNumber(w);
; 353  :                         root.UnlinkNumber(w);
; 354  :                         return (w);
; 355  :                     }
; 356  :                     else
; 357  :                     {
; 358  :                         // u と v のどちらかが 1 ワードで表現できない場合
; 359  :                         __UNIT_TYPE u_bit_count = u->UNIT_BIT_COUNT;
; 360  :                         __UNIT_TYPE v_bit_count = sizeof(v) * 8 - _LZCNT_ALT_UNIT((__UNIT_TYPE)v);
; 361  :                         __UNIT_TYPE work_bit_count = _MAXIMUM_UNIT(u_bit_count, v_bit_count);
; 362  : 
; 363  :                         __UNIT_TYPE* work_u_buf = root.AllocateBlock(work_bit_count);
; 364  :                         __UNIT_TYPE* work_v_buf = root.AllocateBlock(work_bit_count);
; 365  :                         NUMBER_HEADER* w = root.AllocateNumber(work_bit_count);
; 366  :                         __UNIT_TYPE u_tzcnt = u->TRAILING_ZERO_BITS_COUNT;
; 367  :                         __UNIT_TYPE v_tzcnt = _TZCNT_ALT_UNIT((__UNIT_TYPE)v);
; 368  :                         __UNIT_TYPE k = _MINIMUM_UNIT(u_tzcnt, v_tzcnt);
; 369  :                         if (u_tzcnt > 0)
; 370  :                             RightShift_Imp(u->BLOCK, u->UNIT_WORD_COUNT, u_tzcnt, work_u_buf, FALSE);
; 371  :                         else
; 372  :                             _COPY_MEMORY_UNIT(work_u_buf, u->BLOCK, u->UNIT_WORD_COUNT);
; 373  :                         work_v_buf[0] = (__UNIT_TYPE)(v >> v_tzcnt);
; 374  : 
; 375  :                         __UNIT_TYPE w_buf_count;
; 376  :                         GreatestCommonDivisor_Imp(work_u_buf, work_v_buf, _DIVIDE_CEILING_UNIT(work_bit_count, __UNIT_TYPE_BIT_COUNT), w->BLOCK, &w_buf_count);
; 377  :                         root.CheckBlock(work_u_buf);
; 378  :                         root.CheckBlock(work_v_buf);
; 379  :                         root.CheckNumber(w);
; 380  :                         root.DeallocateBlock(work_v_buf);
; 381  :                         root.DeallocateBlock(work_u_buf);
; 382  : 
; 383  :                         LeftShift_Imp(w->BLOCK, w_buf_count, k, w->BLOCK, TRUE);
; 384  :                         root.CheckNumber(w);
; 385  :                         CommitNumber(w);
; 386  :                         root.UnlinkNumber(w);
; 387  :                         return (w);
; 388  :                     }
; 389  :                 }
; 390  :             }
; 391  :         }
; 392  :     }

  0004b	8b 4d f4	 mov	 ecx, DWORD PTR __$EHRec$[ebp]
  0004e	64 89 0d 00 00
	00 00		 mov	 DWORD PTR fs:0, ecx
  00055	59		 pop	 ecx
  00056	5f		 pop	 edi
  00057	5e		 pop	 esi
  00058	5b		 pop	 ebx
  00059	8b e5		 mov	 esp, ebp
  0005b	5d		 pop	 ebp
  0005c	c3		 ret	 0
$LN2@PMC_Greate:

; 233  :             }
; 234  :         }
; 235  :         else
; 236  :         {
; 237  :             // u が 0 ではない場合
; 238  : 
; 239  :             if (v == 0)

  0005d	8b 7d 0c	 mov	 edi, DWORD PTR _v$[ebp]
  00060	8b c7		 mov	 eax, edi
  00062	8b 75 10	 mov	 esi, DWORD PTR _v$[ebp+4]
  00065	0b c6		 or	 eax, esi
  00067	75 1b		 jne	 SHORT $LN6@PMC_Greate

; 240  :             {
; 241  :                 // v が 0 である場合
; 242  : 
; 243  :                 // GCD は u そのものであるため、u を計算結果として返す。
; 244  :                 return (DuplicateNumber(u));

  00069	53		 push	 ebx
  0006a	e8 00 00 00 00	 call	 ?DuplicateNumber@Internal@Core@Math@Palmtree@@YAPAU__tag_NUMBER_HEADER@1234@PAU51234@@Z ; Palmtree::Math::Core::Internal::DuplicateNumber
  0006f	83 c4 04	 add	 esp, 4

; 340  :                     }
; 341  :                 }
; 342  :                 else
; 343  :                 {
; 344  :                     // _UINT64_T が 1 ワードで表現できる場合
; 345  :                     ResourceHolderUINT root;
; 346  :                     if (u->UNIT_WORD_COUNT <= 1)
; 347  :                     {
; 348  :                         // u と v がともに 1 ワードで表現できる場合
; 349  :                         NUMBER_HEADER* w = root.AllocateNumber(__UNIT_TYPE_BIT_COUNT);
; 350  :                         w->BLOCK[0] = GreatestCommonDivisor_1W_Imp(u->BLOCK[0], (__UNIT_TYPE)v);
; 351  :                         root.CheckNumber(w);
; 352  :                         CommitNumber(w);
; 353  :                         root.UnlinkNumber(w);
; 354  :                         return (w);
; 355  :                     }
; 356  :                     else
; 357  :                     {
; 358  :                         // u と v のどちらかが 1 ワードで表現できない場合
; 359  :                         __UNIT_TYPE u_bit_count = u->UNIT_BIT_COUNT;
; 360  :                         __UNIT_TYPE v_bit_count = sizeof(v) * 8 - _LZCNT_ALT_UNIT((__UNIT_TYPE)v);
; 361  :                         __UNIT_TYPE work_bit_count = _MAXIMUM_UNIT(u_bit_count, v_bit_count);
; 362  : 
; 363  :                         __UNIT_TYPE* work_u_buf = root.AllocateBlock(work_bit_count);
; 364  :                         __UNIT_TYPE* work_v_buf = root.AllocateBlock(work_bit_count);
; 365  :                         NUMBER_HEADER* w = root.AllocateNumber(work_bit_count);
; 366  :                         __UNIT_TYPE u_tzcnt = u->TRAILING_ZERO_BITS_COUNT;
; 367  :                         __UNIT_TYPE v_tzcnt = _TZCNT_ALT_UNIT((__UNIT_TYPE)v);
; 368  :                         __UNIT_TYPE k = _MINIMUM_UNIT(u_tzcnt, v_tzcnt);
; 369  :                         if (u_tzcnt > 0)
; 370  :                             RightShift_Imp(u->BLOCK, u->UNIT_WORD_COUNT, u_tzcnt, work_u_buf, FALSE);
; 371  :                         else
; 372  :                             _COPY_MEMORY_UNIT(work_u_buf, u->BLOCK, u->UNIT_WORD_COUNT);
; 373  :                         work_v_buf[0] = (__UNIT_TYPE)(v >> v_tzcnt);
; 374  : 
; 375  :                         __UNIT_TYPE w_buf_count;
; 376  :                         GreatestCommonDivisor_Imp(work_u_buf, work_v_buf, _DIVIDE_CEILING_UNIT(work_bit_count, __UNIT_TYPE_BIT_COUNT), w->BLOCK, &w_buf_count);
; 377  :                         root.CheckBlock(work_u_buf);
; 378  :                         root.CheckBlock(work_v_buf);
; 379  :                         root.CheckNumber(w);
; 380  :                         root.DeallocateBlock(work_v_buf);
; 381  :                         root.DeallocateBlock(work_u_buf);
; 382  : 
; 383  :                         LeftShift_Imp(w->BLOCK, w_buf_count, k, w->BLOCK, TRUE);
; 384  :                         root.CheckNumber(w);
; 385  :                         CommitNumber(w);
; 386  :                         root.UnlinkNumber(w);
; 387  :                         return (w);
; 388  :                     }
; 389  :                 }
; 390  :             }
; 391  :         }
; 392  :     }

  00072	8b 4d f4	 mov	 ecx, DWORD PTR __$EHRec$[ebp]
  00075	64 89 0d 00 00
	00 00		 mov	 DWORD PTR fs:0, ecx
  0007c	59		 pop	 ecx
  0007d	5f		 pop	 edi
  0007e	5e		 pop	 esi
  0007f	5b		 pop	 ebx
  00080	8b e5		 mov	 esp, ebp
  00082	5d		 pop	 ebp
  00083	c3		 ret	 0
$LN6@PMC_Greate:

; 245  :             }
; 246  :             else
; 247  :             {
; 248  :                 // u と v がともに 0 ではない場合
; 249  : 
; 250  :                 // u と v の GCD を計算する
; 251  :                 if (__UNIT_TYPE_BIT_COUNT < sizeof(v) * 8)
; 252  :                 {
; 253  :                     // _UINT64_T が 1 ワードで表現しきれない場合
; 254  : 
; 255  :                     __UNIT_TYPE u_bit_count = u->UNIT_BIT_COUNT;

  00084	8b 43 14	 mov	 eax, DWORD PTR [ebx+20]

; 256  :                     _UINT32_T v_hi;
; 257  :                     _UINT32_T v_lo = _FROMDWORDTOWORD(v, &v_hi);
; 258  :                     if (v_hi == 0)

  00087	8d 4d d0	 lea	 ecx, DWORD PTR _root$4[ebp]
  0008a	89 45 08	 mov	 DWORD PTR _u_bit_count$1$[ebp], eax
  0008d	e8 00 00 00 00	 call	 ??0ResourceHolderUINT@Internal@Core@Math@Palmtree@@QAE@XZ ; Palmtree::Math::Core::Internal::ResourceHolderUINT::ResourceHolderUINT
  00092	85 f6		 test	 esi, esi
  00094	0f 85 5f 01 00
	00		 jne	 $LN10@PMC_Greate

; 259  :                     {
; 260  :                         // v の値が 32bit で表現可能な場合
; 261  :                         ResourceHolderUINT root;

  0009a	89 75 fc	 mov	 DWORD PTR __$EHRec$[ebp+8], esi

; 262  :                         if (u->UNIT_WORD_COUNT <= 1)

  0009d	83 7b 10 01	 cmp	 DWORD PTR [ebx+16], 1
  000a1	77 5d		 ja	 SHORT $LN12@PMC_Greate

; 263  :                         {
; 264  :                             // u と v がともに 1 ワードで表現できる場合
; 265  :                             NUMBER_HEADER* w = root.AllocateNumber(__UNIT_TYPE_BIT_COUNT);

  000a3	6a 20		 push	 32			; 00000020H
  000a5	8d 4d d0	 lea	 ecx, DWORD PTR _root$4[ebp]
  000a8	e8 00 00 00 00	 call	 ?AllocateNumber@ResourceHolderUINT@Internal@Core@Math@Palmtree@@QAEPAU__tag_NUMBER_HEADER@2345@I@Z ; Palmtree::Math::Core::Internal::ResourceHolderUINT::AllocateNumber

; 266  :                             w->BLOCK[0] = GreatestCommonDivisor_1W_Imp(u->BLOCK[0], v_lo);

  000ad	8b 4b 24	 mov	 ecx, DWORD PTR [ebx+36]
  000b0	8b f0		 mov	 esi, eax
  000b2	57		 push	 edi
  000b3	ff 31		 push	 DWORD PTR [ecx]
  000b5	e8 00 00 00 00	 call	 ?GreatestCommonDivisor_1W_Imp@Internal@Core@Math@Palmtree@@YAIII@Z ; Palmtree::Math::Core::Internal::GreatestCommonDivisor_1W_Imp
  000ba	8b 4e 24	 mov	 ecx, DWORD PTR [esi+36]
  000bd	83 c4 08	 add	 esp, 8
  000c0	89 01		 mov	 DWORD PTR [ecx], eax
$LN77@PMC_Greate:

; 340  :                     }
; 341  :                 }
; 342  :                 else
; 343  :                 {
; 344  :                     // _UINT64_T が 1 ワードで表現できる場合
; 345  :                     ResourceHolderUINT root;
; 346  :                     if (u->UNIT_WORD_COUNT <= 1)
; 347  :                     {
; 348  :                         // u と v がともに 1 ワードで表現できる場合
; 349  :                         NUMBER_HEADER* w = root.AllocateNumber(__UNIT_TYPE_BIT_COUNT);
; 350  :                         w->BLOCK[0] = GreatestCommonDivisor_1W_Imp(u->BLOCK[0], (__UNIT_TYPE)v);
; 351  :                         root.CheckNumber(w);
; 352  :                         CommitNumber(w);
; 353  :                         root.UnlinkNumber(w);
; 354  :                         return (w);
; 355  :                     }
; 356  :                     else
; 357  :                     {
; 358  :                         // u と v のどちらかが 1 ワードで表現できない場合
; 359  :                         __UNIT_TYPE u_bit_count = u->UNIT_BIT_COUNT;
; 360  :                         __UNIT_TYPE v_bit_count = sizeof(v) * 8 - _LZCNT_ALT_UNIT((__UNIT_TYPE)v);
; 361  :                         __UNIT_TYPE work_bit_count = _MAXIMUM_UNIT(u_bit_count, v_bit_count);
; 362  : 
; 363  :                         __UNIT_TYPE* work_u_buf = root.AllocateBlock(work_bit_count);
; 364  :                         __UNIT_TYPE* work_v_buf = root.AllocateBlock(work_bit_count);
; 365  :                         NUMBER_HEADER* w = root.AllocateNumber(work_bit_count);
; 366  :                         __UNIT_TYPE u_tzcnt = u->TRAILING_ZERO_BITS_COUNT;
; 367  :                         __UNIT_TYPE v_tzcnt = _TZCNT_ALT_UNIT((__UNIT_TYPE)v);
; 368  :                         __UNIT_TYPE k = _MINIMUM_UNIT(u_tzcnt, v_tzcnt);
; 369  :                         if (u_tzcnt > 0)
; 370  :                             RightShift_Imp(u->BLOCK, u->UNIT_WORD_COUNT, u_tzcnt, work_u_buf, FALSE);
; 371  :                         else
; 372  :                             _COPY_MEMORY_UNIT(work_u_buf, u->BLOCK, u->UNIT_WORD_COUNT);
; 373  :                         work_v_buf[0] = (__UNIT_TYPE)(v >> v_tzcnt);
; 374  : 
; 375  :                         __UNIT_TYPE w_buf_count;
; 376  :                         GreatestCommonDivisor_Imp(work_u_buf, work_v_buf, _DIVIDE_CEILING_UNIT(work_bit_count, __UNIT_TYPE_BIT_COUNT), w->BLOCK, &w_buf_count);
; 377  :                         root.CheckBlock(work_u_buf);
; 378  :                         root.CheckBlock(work_v_buf);
; 379  :                         root.CheckNumber(w);
; 380  :                         root.DeallocateBlock(work_v_buf);
; 381  :                         root.DeallocateBlock(work_u_buf);
; 382  : 
; 383  :                         LeftShift_Imp(w->BLOCK, w_buf_count, k, w->BLOCK, TRUE);
; 384  :                         root.CheckNumber(w);
; 385  :                         CommitNumber(w);
; 386  :                         root.UnlinkNumber(w);
; 387  :                         return (w);
; 388  :                     }
; 389  :                 }
; 390  :             }
; 391  :         }
; 392  :     }

  000c2	56		 push	 esi
  000c3	8d 4d d0	 lea	 ecx, DWORD PTR _root$4[ebp]
  000c6	e8 00 00 00 00	 call	 ?CheckNumber@ResourceHolderUINT@Internal@Core@Math@Palmtree@@QAEXPAU__tag_NUMBER_HEADER@2345@@Z ; Palmtree::Math::Core::Internal::ResourceHolderUINT::CheckNumber
  000cb	56		 push	 esi
  000cc	e8 00 00 00 00	 call	 ?CommitNumber@Internal@Core@Math@Palmtree@@YAXPAU__tag_NUMBER_HEADER@1234@@Z ; Palmtree::Math::Core::Internal::CommitNumber
  000d1	83 c4 04	 add	 esp, 4
  000d4	8d 4d d0	 lea	 ecx, DWORD PTR _root$4[ebp]
  000d7	56		 push	 esi
  000d8	e8 00 00 00 00	 call	 ?UnlinkNumber@ResourceHolderUINT@Internal@Core@Math@Palmtree@@QAEXPAU__tag_NUMBER_HEADER@2345@@Z ; Palmtree::Math::Core::Internal::ResourceHolderUINT::UnlinkNumber
  000dd	c7 45 fc ff ff
	ff ff		 mov	 DWORD PTR __$EHRec$[ebp+8], -1
  000e4	8d 4d d0	 lea	 ecx, DWORD PTR _root$4[ebp]
  000e7	e8 00 00 00 00	 call	 ??1ResourceHolderUINT@Internal@Core@Math@Palmtree@@UAE@XZ ; Palmtree::Math::Core::Internal::ResourceHolderUINT::~ResourceHolderUINT
  000ec	8b c6		 mov	 eax, esi
  000ee	8b 4d f4	 mov	 ecx, DWORD PTR __$EHRec$[ebp]
  000f1	64 89 0d 00 00
	00 00		 mov	 DWORD PTR fs:0, ecx
  000f8	59		 pop	 ecx
  000f9	5f		 pop	 edi
  000fa	5e		 pop	 esi
  000fb	5b		 pop	 ebx
  000fc	8b e5		 mov	 esp, ebp
  000fe	5d		 pop	 ebp
  000ff	c3		 ret	 0
$LN12@PMC_Greate:

; 267  :                             root.CheckNumber(w);
; 268  :                             CommitNumber(w);
; 269  :                             root.UnlinkNumber(w);
; 270  :                             return (w);
; 271  :                         }
; 272  :                         else
; 273  :                         {
; 274  :                             // u と v のどちらかが 1 ワードで表現できない場合
; 275  :                             __UNIT_TYPE v_bit_count = sizeof(v_lo) * 8 - _LZCNT_ALT_32(v_lo);

  00100	57		 push	 edi
  00101	e8 00 00 00 00	 call	 __LZCNT_ALT_32
  00106	be 20 00 00 00	 mov	 esi, 32			; 00000020H

; 277  :                             __UNIT_TYPE* work_u_buf = root.AllocateBlock(work_bit_count);

  0010b	8d 4d d0	 lea	 ecx, DWORD PTR _root$4[ebp]
  0010e	2b f0		 sub	 esi, eax
  00110	83 c4 04	 add	 esp, 4
; File z:\sources\lunor\repos\rougemeilland\palmtree.math.core.uint\palmtree.math.core.uint\pmc_inline_func.h

; 167  :             return (x >= y ? x : y);

  00113	39 75 08	 cmp	 DWORD PTR _u_bit_count$1$[ebp], esi
  00116	0f 43 75 08	 cmovae	 esi, DWORD PTR _u_bit_count$1$[ebp]
; File z:\sources\lunor\repos\rougemeilland\palmtree.math.core.uint\palmtree.math.core.uint\pmc_greatestcommondivisor.cpp

; 277  :                             __UNIT_TYPE* work_u_buf = root.AllocateBlock(work_bit_count);

  0011a	56		 push	 esi
; File z:\sources\lunor\repos\rougemeilland\palmtree.math.core.uint\palmtree.math.core.uint\pmc_inline_func.h

; 167  :             return (x >= y ? x : y);

  0011b	89 75 e8	 mov	 DWORD PTR _work_bit_count$1$[ebp], esi
; File z:\sources\lunor\repos\rougemeilland\palmtree.math.core.uint\palmtree.math.core.uint\pmc_greatestcommondivisor.cpp

; 277  :                             __UNIT_TYPE* work_u_buf = root.AllocateBlock(work_bit_count);

  0011e	e8 00 00 00 00	 call	 ?AllocateBlock@ResourceHolderUINT@Internal@Core@Math@Palmtree@@QAEPAII@Z ; Palmtree::Math::Core::Internal::ResourceHolderUINT::AllocateBlock

; 278  :                             __UNIT_TYPE* work_v_buf = root.AllocateBlock(work_bit_count);

  00123	56		 push	 esi
  00124	8d 4d d0	 lea	 ecx, DWORD PTR _root$4[ebp]
  00127	89 45 08	 mov	 DWORD PTR _work_u_buf$1$[ebp], eax
  0012a	e8 00 00 00 00	 call	 ?AllocateBlock@ResourceHolderUINT@Internal@Core@Math@Palmtree@@QAEPAII@Z ; Palmtree::Math::Core::Internal::ResourceHolderUINT::AllocateBlock

; 279  :                             NUMBER_HEADER* w = root.AllocateNumber(work_bit_count);

  0012f	56		 push	 esi
  00130	8d 4d d0	 lea	 ecx, DWORD PTR _root$4[ebp]
  00133	89 45 ec	 mov	 DWORD PTR _work_v_buf$1$[ebp], eax
  00136	e8 00 00 00 00	 call	 ?AllocateNumber@ResourceHolderUINT@Internal@Core@Math@Palmtree@@QAEPAU__tag_NUMBER_HEADER@2345@I@Z ; Palmtree::Math::Core::Internal::ResourceHolderUINT::AllocateNumber

; 280  : 
; 281  :                             __UNIT_TYPE u_tzcnt = u->TRAILING_ZERO_BITS_COUNT;

  0013b	8b 4b 18	 mov	 ecx, DWORD PTR [ebx+24]
  0013e	89 45 e4	 mov	 DWORD PTR _w$1$[ebp], eax
; File z:\sources\lunor\repos\rougemeilland\palmtree.math.core.uint\palmtree.math.core.uint\pmc_inline_func.h

; 507  :                 return (sizeof(x) * 8);

  00141	b8 20 00 00 00	 mov	 eax, 32			; 00000020H
  00146	85 ff		 test	 edi, edi
  00148	74 03		 je	 SHORT $LN75@PMC_Greate

; 511  :             _BitScanForward(&pos, x);

  0014a	0f bc c7	 bsf	 eax, edi
$LN75@PMC_Greate:

; 172  :             return (x <= y ? x : y);

  0014d	3b c8		 cmp	 ecx, eax
  0014f	89 45 f0	 mov	 DWORD PTR $T6[ebp], eax
  00152	8b d0		 mov	 edx, eax
  00154	0f 46 d1	 cmovbe	 edx, ecx
  00157	89 55 e0	 mov	 DWORD PTR _k$1$[ebp], edx
; File z:\sources\lunor\repos\rougemeilland\palmtree.math.core.uint\palmtree.math.core.uint\pmc_greatestcommondivisor.cpp

; 284  :                             if (u_tzcnt > 0)

  0015a	85 c9		 test	 ecx, ecx
  0015c	74 19		 je	 SHORT $LN14@PMC_Greate

; 285  :                                 RightShift_Imp(u->BLOCK, u->UNIT_WORD_COUNT, u_tzcnt, work_u_buf, FALSE);

  0015e	6a 00		 push	 0
  00160	ff 75 08	 push	 DWORD PTR _work_u_buf$1$[ebp]
  00163	51		 push	 ecx
  00164	ff 73 10	 push	 DWORD PTR [ebx+16]
  00167	ff 73 24	 push	 DWORD PTR [ebx+36]
  0016a	e8 00 00 00 00	 call	 ?RightShift_Imp@Internal@Core@Math@Palmtree@@YAXPAIII0H@Z ; Palmtree::Math::Core::Internal::RightShift_Imp

; 286  :                             else

  0016f	8b 45 f0	 mov	 eax, DWORD PTR $T6[ebp]
  00172	83 c4 14	 add	 esp, 20			; 00000014H
  00175	eb 11		 jmp	 SHORT $LN15@PMC_Greate
$LN14@PMC_Greate:
; File z:\sources\lunor\repos\rougemeilland\palmtree.math.core.uint\palmtree.math.core.uint\pmc_inline_func.h

; 65   :             __movsd((unsigned long *)d, (unsigned long *)s, (unsigned long)count);

  00177	8b 7d 08	 mov	 edi, DWORD PTR _work_u_buf$1$[ebp]
  0017a	8b 73 24	 mov	 esi, DWORD PTR [ebx+36]
  0017d	8b 4b 10	 mov	 ecx, DWORD PTR [ebx+16]
  00180	f3 a5		 rep movsd
  00182	8b 7d 0c	 mov	 edi, DWORD PTR _v$[ebp]
  00185	8b 75 e8	 mov	 esi, DWORD PTR _work_bit_count$1$[ebp]
$LN15@PMC_Greate:
; File z:\sources\lunor\repos\rougemeilland\palmtree.math.core.uint\palmtree.math.core.uint\pmc_greatestcommondivisor.cpp

; 291  :                             GreatestCommonDivisor_Imp(work_u_buf, work_v_buf, _DIVIDE_CEILING_UNIT(work_bit_count, __UNIT_TYPE_BIT_COUNT), w->BLOCK, &w_buf_count);

  00188	8b 5d 08	 mov	 ebx, DWORD PTR _work_u_buf$1$[ebp]
  0018b	8b c8		 mov	 ecx, eax
  0018d	8b 45 ec	 mov	 eax, DWORD PTR _work_v_buf$1$[ebp]
  00190	d3 ef		 shr	 edi, cl
  00192	8d 4d e8	 lea	 ecx, DWORD PTR _w_buf_count$5[ebp]
  00195	51		 push	 ecx
  00196	89 38		 mov	 DWORD PTR [eax], edi
; File z:\sources\lunor\repos\rougemeilland\palmtree.math.core.uint\palmtree.math.core.uint\pmc_inline_func.h

; 157  :             return ((u + v - 1) / v);

  00198	8d 46 1f	 lea	 eax, DWORD PTR [esi+31]
; File z:\sources\lunor\repos\rougemeilland\palmtree.math.core.uint\palmtree.math.core.uint\pmc_greatestcommondivisor.cpp

; 291  :                             GreatestCommonDivisor_Imp(work_u_buf, work_v_buf, _DIVIDE_CEILING_UNIT(work_bit_count, __UNIT_TYPE_BIT_COUNT), w->BLOCK, &w_buf_count);

  0019b	8b 75 e4	 mov	 esi, DWORD PTR _w$1$[ebp]
  0019e	8b 7d ec	 mov	 edi, DWORD PTR _work_v_buf$1$[ebp]
; File z:\sources\lunor\repos\rougemeilland\palmtree.math.core.uint\palmtree.math.core.uint\pmc_inline_func.h

; 157  :             return ((u + v - 1) / v);

  001a1	c1 e8 05	 shr	 eax, 5
; File z:\sources\lunor\repos\rougemeilland\palmtree.math.core.uint\palmtree.math.core.uint\pmc_greatestcommondivisor.cpp

; 291  :                             GreatestCommonDivisor_Imp(work_u_buf, work_v_buf, _DIVIDE_CEILING_UNIT(work_bit_count, __UNIT_TYPE_BIT_COUNT), w->BLOCK, &w_buf_count);

  001a4	ff 76 24	 push	 DWORD PTR [esi+36]
  001a7	50		 push	 eax
  001a8	57		 push	 edi
  001a9	53		 push	 ebx
  001aa	e8 00 00 00 00	 call	 ?GreatestCommonDivisor_Imp@Internal@Core@Math@Palmtree@@YAXPAI0I00@Z ; Palmtree::Math::Core::Internal::GreatestCommonDivisor_Imp
  001af	83 c4 14	 add	 esp, 20			; 00000014H

; 292  :                             root.CheckBlock(work_u_buf);

  001b2	8d 4d d0	 lea	 ecx, DWORD PTR _root$4[ebp]
  001b5	53		 push	 ebx
  001b6	e8 00 00 00 00	 call	 ?CheckBlock@ResourceHolderUINT@Internal@Core@Math@Palmtree@@QAEXPAI@Z ; Palmtree::Math::Core::Internal::ResourceHolderUINT::CheckBlock

; 293  :                             root.CheckBlock(work_v_buf);

  001bb	57		 push	 edi
  001bc	8d 4d d0	 lea	 ecx, DWORD PTR _root$4[ebp]
  001bf	e8 00 00 00 00	 call	 ?CheckBlock@ResourceHolderUINT@Internal@Core@Math@Palmtree@@QAEXPAI@Z ; Palmtree::Math::Core::Internal::ResourceHolderUINT::CheckBlock

; 294  :                             root.CheckNumber(w);

  001c4	56		 push	 esi
  001c5	8d 4d d0	 lea	 ecx, DWORD PTR _root$4[ebp]
  001c8	e8 00 00 00 00	 call	 ?CheckNumber@ResourceHolderUINT@Internal@Core@Math@Palmtree@@QAEXPAU__tag_NUMBER_HEADER@2345@@Z ; Palmtree::Math::Core::Internal::ResourceHolderUINT::CheckNumber

; 295  :                             root.DeallocateBlock(work_v_buf);

  001cd	57		 push	 edi
  001ce	8d 4d d0	 lea	 ecx, DWORD PTR _root$4[ebp]
  001d1	e8 00 00 00 00	 call	 ?DeallocateBlock@ResourceHolderUINT@Internal@Core@Math@Palmtree@@QAEXPAI@Z ; Palmtree::Math::Core::Internal::ResourceHolderUINT::DeallocateBlock

; 296  :                             root.DeallocateBlock(work_u_buf);

  001d6	53		 push	 ebx
  001d7	8d 4d d0	 lea	 ecx, DWORD PTR _root$4[ebp]
  001da	e8 00 00 00 00	 call	 ?DeallocateBlock@ResourceHolderUINT@Internal@Core@Math@Palmtree@@QAEXPAI@Z ; Palmtree::Math::Core::Internal::ResourceHolderUINT::DeallocateBlock

; 297  : 
; 298  :                             LeftShift_Imp(w->BLOCK, w_buf_count, k, w->BLOCK, TRUE);

  001df	8b 46 24	 mov	 eax, DWORD PTR [esi+36]
  001e2	6a 01		 push	 1
  001e4	50		 push	 eax
  001e5	ff 75 e0	 push	 DWORD PTR _k$1$[ebp]
  001e8	ff 75 e8	 push	 DWORD PTR _w_buf_count$5[ebp]
  001eb	50		 push	 eax
  001ec	e8 00 00 00 00	 call	 ?LeftShift_Imp@Internal@Core@Math@Palmtree@@YAXPAIII0H@Z ; Palmtree::Math::Core::Internal::LeftShift_Imp
  001f1	83 c4 14	 add	 esp, 20			; 00000014H

; 299  :                             root.CheckNumber(w);
; 300  :                             CommitNumber(w);
; 301  :                             root.UnlinkNumber(w);
; 302  :                             return (w);

  001f4	e9 c9 fe ff ff	 jmp	 $LN77@PMC_Greate
$LN10@PMC_Greate:

; 303  :                         }
; 304  :                     }
; 305  :                     else
; 306  :                     {
; 307  :                         // y の値が 32bit では表現できない場合
; 308  :                         ResourceHolderUINT root;

  001f9	c7 45 fc 01 00
	00 00		 mov	 DWORD PTR __$EHRec$[ebp+8], 1
; File z:\sources\lunor\repos\rougemeilland\palmtree.math.core.uint\palmtree.math.core.uint\pmc_inline_func.h

; 432  :             return (sizeof(x) * 8 - 1 - pos);

  00200	b9 1f 00 00 00	 mov	 ecx, 31			; 0000001fH
  00205	0f bd c6	 bsr	 eax, esi
; File z:\sources\lunor\repos\rougemeilland\palmtree.math.core.uint\palmtree.math.core.uint\pmc_greatestcommondivisor.cpp

; 309  :                         __UNIT_TYPE v_bit_count = sizeof(v) * 8 - _LZCNT_ALT_32(v_hi);

  00208	ba 40 00 00 00	 mov	 edx, 64			; 00000040H
; File z:\sources\lunor\repos\rougemeilland\palmtree.math.core.uint\palmtree.math.core.uint\pmc_inline_func.h

; 432  :             return (sizeof(x) * 8 - 1 - pos);

  0020d	2b c8		 sub	 ecx, eax
; File z:\sources\lunor\repos\rougemeilland\palmtree.math.core.uint\palmtree.math.core.uint\pmc_greatestcommondivisor.cpp

; 309  :                         __UNIT_TYPE v_bit_count = sizeof(v) * 8 - _LZCNT_ALT_32(v_hi);

  0020f	2b d1		 sub	 edx, ecx

; 311  :                         __UNIT_TYPE* work_u_buf = root.AllocateBlock(work_bit_count);

  00211	8d 4d d0	 lea	 ecx, DWORD PTR _root$3[ebp]
; File z:\sources\lunor\repos\rougemeilland\palmtree.math.core.uint\palmtree.math.core.uint\pmc_inline_func.h

; 167  :             return (x >= y ? x : y);

  00214	39 55 08	 cmp	 DWORD PTR _u_bit_count$1$[ebp], edx
  00217	0f 43 55 08	 cmovae	 edx, DWORD PTR _u_bit_count$1$[ebp]
; File z:\sources\lunor\repos\rougemeilland\palmtree.math.core.uint\palmtree.math.core.uint\pmc_greatestcommondivisor.cpp

; 311  :                         __UNIT_TYPE* work_u_buf = root.AllocateBlock(work_bit_count);

  0021b	52		 push	 edx
; File z:\sources\lunor\repos\rougemeilland\palmtree.math.core.uint\palmtree.math.core.uint\pmc_inline_func.h

; 167  :             return (x >= y ? x : y);

  0021c	89 55 08	 mov	 DWORD PTR _work_bit_count$1$[ebp], edx
; File z:\sources\lunor\repos\rougemeilland\palmtree.math.core.uint\palmtree.math.core.uint\pmc_greatestcommondivisor.cpp

; 311  :                         __UNIT_TYPE* work_u_buf = root.AllocateBlock(work_bit_count);

  0021f	e8 00 00 00 00	 call	 ?AllocateBlock@ResourceHolderUINT@Internal@Core@Math@Palmtree@@QAEPAII@Z ; Palmtree::Math::Core::Internal::ResourceHolderUINT::AllocateBlock

; 312  :                         __UNIT_TYPE* work_v_buf = root.AllocateBlock(work_bit_count);

  00224	ff 75 08	 push	 DWORD PTR _work_bit_count$1$[ebp]
  00227	8d 4d d0	 lea	 ecx, DWORD PTR _root$3[ebp]
  0022a	89 45 f0	 mov	 DWORD PTR _work_u_buf$1$[ebp], eax
  0022d	e8 00 00 00 00	 call	 ?AllocateBlock@ResourceHolderUINT@Internal@Core@Math@Palmtree@@QAEPAII@Z ; Palmtree::Math::Core::Internal::ResourceHolderUINT::AllocateBlock

; 313  :                         NUMBER_HEADER* w = root.AllocateNumber(work_bit_count);

  00232	ff 75 08	 push	 DWORD PTR _work_bit_count$1$[ebp]
  00235	8d 4d d0	 lea	 ecx, DWORD PTR _root$3[ebp]
  00238	89 45 e0	 mov	 DWORD PTR _work_v_buf$1$[ebp], eax
  0023b	e8 00 00 00 00	 call	 ?AllocateNumber@ResourceHolderUINT@Internal@Core@Math@Palmtree@@QAEPAU__tag_NUMBER_HEADER@2345@I@Z ; Palmtree::Math::Core::Internal::ResourceHolderUINT::AllocateNumber

; 314  : 
; 315  :                         __UNIT_TYPE u_tzcnt = u->TRAILING_ZERO_BITS_COUNT;

  00240	8b 53 18	 mov	 edx, DWORD PTR [ebx+24]
  00243	89 45 e4	 mov	 DWORD PTR _w$1$[ebp], eax

; 316  :                         __UNIT_TYPE v_tzcnt = v_lo == 0 ? 32 + _TZCNT_ALT_UNIT(v_hi) : _TZCNT_ALT_UNIT(v_lo);

  00246	85 ff		 test	 edi, edi
  00248	75 08		 jne	 SHORT $LN24@PMC_Greate
; File z:\sources\lunor\repos\rougemeilland\palmtree.math.core.uint\palmtree.math.core.uint\pmc_inline_func.h

; 511  :             _BitScanForward(&pos, x);

  0024a	0f bc c6	 bsf	 eax, esi
; File z:\sources\lunor\repos\rougemeilland\palmtree.math.core.uint\palmtree.math.core.uint\pmc_greatestcommondivisor.cpp

; 316  :                         __UNIT_TYPE v_tzcnt = v_lo == 0 ? 32 + _TZCNT_ALT_UNIT(v_hi) : _TZCNT_ALT_UNIT(v_lo);

  0024d	83 c0 20	 add	 eax, 32			; 00000020H
  00250	eb 03		 jmp	 SHORT $LN76@PMC_Greate
$LN24@PMC_Greate:
; File z:\sources\lunor\repos\rougemeilland\palmtree.math.core.uint\palmtree.math.core.uint\pmc_inline_func.h

; 511  :             _BitScanForward(&pos, x);

  00252	0f bc c7	 bsf	 eax, edi
$LN76@PMC_Greate:

; 172  :             return (x <= y ? x : y);

  00255	3b d0		 cmp	 edx, eax
  00257	89 45 ec	 mov	 DWORD PTR _v_tzcnt$1$[ebp], eax
  0025a	8b c8		 mov	 ecx, eax
  0025c	0f 46 ca	 cmovbe	 ecx, edx
  0025f	89 4d e8	 mov	 DWORD PTR _k$1$[ebp], ecx
; File z:\sources\lunor\repos\rougemeilland\palmtree.math.core.uint\palmtree.math.core.uint\pmc_greatestcommondivisor.cpp

; 318  :                         if (u_tzcnt > 0)

  00262	85 d2		 test	 edx, edx
  00264	74 19		 je	 SHORT $LN16@PMC_Greate

; 319  :                             RightShift_Imp(u->BLOCK, u->UNIT_WORD_COUNT, u_tzcnt, work_u_buf, FALSE);

  00266	6a 00		 push	 0
  00268	ff 75 f0	 push	 DWORD PTR _work_u_buf$1$[ebp]
  0026b	52		 push	 edx
  0026c	ff 73 10	 push	 DWORD PTR [ebx+16]
  0026f	ff 73 24	 push	 DWORD PTR [ebx+36]
  00272	e8 00 00 00 00	 call	 ?RightShift_Imp@Internal@Core@Math@Palmtree@@YAXPAIII0H@Z ; Palmtree::Math::Core::Internal::RightShift_Imp

; 320  :                         else

  00277	8b 45 ec	 mov	 eax, DWORD PTR _v_tzcnt$1$[ebp]
  0027a	83 c4 14	 add	 esp, 20			; 00000014H
  0027d	eb 11		 jmp	 SHORT $LN17@PMC_Greate
$LN16@PMC_Greate:
; File z:\sources\lunor\repos\rougemeilland\palmtree.math.core.uint\palmtree.math.core.uint\pmc_inline_func.h

; 65   :             __movsd((unsigned long *)d, (unsigned long *)s, (unsigned long)count);

  0027f	8b 7d f0	 mov	 edi, DWORD PTR _work_u_buf$1$[ebp]
  00282	8b 73 24	 mov	 esi, DWORD PTR [ebx+36]
  00285	8b 4b 10	 mov	 ecx, DWORD PTR [ebx+16]
  00288	f3 a5		 rep movsd
  0028a	8b 7d 0c	 mov	 edi, DWORD PTR _v$[ebp]
  0028d	8b 75 10	 mov	 esi, DWORD PTR _v$[ebp+4]
$LN17@PMC_Greate:
; File z:\sources\lunor\repos\rougemeilland\palmtree.math.core.uint\palmtree.math.core.uint\pmc_greatestcommondivisor.cpp

; 322  :                         work_v_buf[0] = v_lo;

  00290	8b 5d e0	 mov	 ebx, DWORD PTR _work_v_buf$1$[ebp]
  00293	89 3b		 mov	 DWORD PTR [ebx], edi

; 323  :                         work_v_buf[1] = v_hi;

  00295	89 73 04	 mov	 DWORD PTR [ebx+4], esi

; 324  :                         if (v_tzcnt > 0)

  00298	85 c0		 test	 eax, eax
  0029a	74 0f		 je	 SHORT $LN18@PMC_Greate

; 325  :                             RightShift_Imp(work_v_buf, 2, v_tzcnt, work_v_buf, TRUE);

  0029c	6a 01		 push	 1
  0029e	53		 push	 ebx
  0029f	50		 push	 eax
  002a0	6a 02		 push	 2
  002a2	53		 push	 ebx
  002a3	e8 00 00 00 00	 call	 ?RightShift_Imp@Internal@Core@Math@Palmtree@@YAXPAIII0H@Z ; Palmtree::Math::Core::Internal::RightShift_Imp
  002a8	83 c4 14	 add	 esp, 20			; 00000014H
$LN18@PMC_Greate:

; 328  :                         GreatestCommonDivisor_Imp(work_u_buf, work_v_buf, _DIVIDE_CEILING_UNIT(work_bit_count, __UNIT_TYPE_BIT_COUNT), w->BLOCK, &w_buf_count);

  002ab	8b 7d e4	 mov	 edi, DWORD PTR _w$1$[ebp]
  002ae	8d 4d 08	 lea	 ecx, DWORD PTR _w_buf_count$7[ebp]
; File z:\sources\lunor\repos\rougemeilland\palmtree.math.core.uint\palmtree.math.core.uint\pmc_inline_func.h

; 157  :             return ((u + v - 1) / v);

  002b1	8b 45 08	 mov	 eax, DWORD PTR _work_bit_count$1$[ebp]
; File z:\sources\lunor\repos\rougemeilland\palmtree.math.core.uint\palmtree.math.core.uint\pmc_greatestcommondivisor.cpp

; 328  :                         GreatestCommonDivisor_Imp(work_u_buf, work_v_buf, _DIVIDE_CEILING_UNIT(work_bit_count, __UNIT_TYPE_BIT_COUNT), w->BLOCK, &w_buf_count);

  002b4	8b 75 f0	 mov	 esi, DWORD PTR _work_u_buf$1$[ebp]
; File z:\sources\lunor\repos\rougemeilland\palmtree.math.core.uint\palmtree.math.core.uint\pmc_inline_func.h

; 157  :             return ((u + v - 1) / v);

  002b7	83 c0 1f	 add	 eax, 31			; 0000001fH
; File z:\sources\lunor\repos\rougemeilland\palmtree.math.core.uint\palmtree.math.core.uint\pmc_greatestcommondivisor.cpp

; 328  :                         GreatestCommonDivisor_Imp(work_u_buf, work_v_buf, _DIVIDE_CEILING_UNIT(work_bit_count, __UNIT_TYPE_BIT_COUNT), w->BLOCK, &w_buf_count);

  002ba	51		 push	 ecx
  002bb	ff 77 24	 push	 DWORD PTR [edi+36]
; File z:\sources\lunor\repos\rougemeilland\palmtree.math.core.uint\palmtree.math.core.uint\pmc_inline_func.h

; 157  :             return ((u + v - 1) / v);

  002be	c1 e8 05	 shr	 eax, 5
; File z:\sources\lunor\repos\rougemeilland\palmtree.math.core.uint\palmtree.math.core.uint\pmc_greatestcommondivisor.cpp

; 328  :                         GreatestCommonDivisor_Imp(work_u_buf, work_v_buf, _DIVIDE_CEILING_UNIT(work_bit_count, __UNIT_TYPE_BIT_COUNT), w->BLOCK, &w_buf_count);

  002c1	50		 push	 eax
  002c2	53		 push	 ebx
  002c3	56		 push	 esi
  002c4	e8 00 00 00 00	 call	 ?GreatestCommonDivisor_Imp@Internal@Core@Math@Palmtree@@YAXPAI0I00@Z ; Palmtree::Math::Core::Internal::GreatestCommonDivisor_Imp
  002c9	83 c4 14	 add	 esp, 20			; 00000014H

; 329  :                         root.CheckBlock(work_u_buf);

  002cc	8d 4d d0	 lea	 ecx, DWORD PTR _root$3[ebp]
  002cf	56		 push	 esi
  002d0	e8 00 00 00 00	 call	 ?CheckBlock@ResourceHolderUINT@Internal@Core@Math@Palmtree@@QAEXPAI@Z ; Palmtree::Math::Core::Internal::ResourceHolderUINT::CheckBlock

; 330  :                         root.CheckBlock(work_v_buf);

  002d5	53		 push	 ebx
  002d6	8d 4d d0	 lea	 ecx, DWORD PTR _root$3[ebp]
  002d9	e8 00 00 00 00	 call	 ?CheckBlock@ResourceHolderUINT@Internal@Core@Math@Palmtree@@QAEXPAI@Z ; Palmtree::Math::Core::Internal::ResourceHolderUINT::CheckBlock

; 331  :                         root.CheckNumber(w);

  002de	57		 push	 edi
  002df	8d 4d d0	 lea	 ecx, DWORD PTR _root$3[ebp]
  002e2	e8 00 00 00 00	 call	 ?CheckNumber@ResourceHolderUINT@Internal@Core@Math@Palmtree@@QAEXPAU__tag_NUMBER_HEADER@2345@@Z ; Palmtree::Math::Core::Internal::ResourceHolderUINT::CheckNumber

; 332  :                         root.DeallocateBlock(work_v_buf);

  002e7	53		 push	 ebx
  002e8	8d 4d d0	 lea	 ecx, DWORD PTR _root$3[ebp]
  002eb	e8 00 00 00 00	 call	 ?DeallocateBlock@ResourceHolderUINT@Internal@Core@Math@Palmtree@@QAEXPAI@Z ; Palmtree::Math::Core::Internal::ResourceHolderUINT::DeallocateBlock

; 333  :                         root.DeallocateBlock(work_u_buf);

  002f0	56		 push	 esi
  002f1	8d 4d d0	 lea	 ecx, DWORD PTR _root$3[ebp]
  002f4	e8 00 00 00 00	 call	 ?DeallocateBlock@ResourceHolderUINT@Internal@Core@Math@Palmtree@@QAEXPAI@Z ; Palmtree::Math::Core::Internal::ResourceHolderUINT::DeallocateBlock

; 334  : 
; 335  :                         LeftShift_Imp(w->BLOCK, w_buf_count, k, w->BLOCK, TRUE);

  002f9	8b 47 24	 mov	 eax, DWORD PTR [edi+36]
  002fc	6a 01		 push	 1
  002fe	50		 push	 eax
  002ff	ff 75 e8	 push	 DWORD PTR _k$1$[ebp]
  00302	ff 75 08	 push	 DWORD PTR _w_buf_count$7[ebp]
  00305	50		 push	 eax
  00306	e8 00 00 00 00	 call	 ?LeftShift_Imp@Internal@Core@Math@Palmtree@@YAXPAIII0H@Z ; Palmtree::Math::Core::Internal::LeftShift_Imp
  0030b	83 c4 14	 add	 esp, 20			; 00000014H

; 336  :                         root.CheckNumber(w);

  0030e	8d 4d d0	 lea	 ecx, DWORD PTR _root$3[ebp]
  00311	57		 push	 edi
  00312	e8 00 00 00 00	 call	 ?CheckNumber@ResourceHolderUINT@Internal@Core@Math@Palmtree@@QAEXPAU__tag_NUMBER_HEADER@2345@@Z ; Palmtree::Math::Core::Internal::ResourceHolderUINT::CheckNumber

; 337  :                         CommitNumber(w);

  00317	57		 push	 edi
  00318	e8 00 00 00 00	 call	 ?CommitNumber@Internal@Core@Math@Palmtree@@YAXPAU__tag_NUMBER_HEADER@1234@@Z ; Palmtree::Math::Core::Internal::CommitNumber
  0031d	83 c4 04	 add	 esp, 4

; 338  :                         root.UnlinkNumber(w);

  00320	8d 4d d0	 lea	 ecx, DWORD PTR _root$3[ebp]
  00323	57		 push	 edi
  00324	e8 00 00 00 00	 call	 ?UnlinkNumber@ResourceHolderUINT@Internal@Core@Math@Palmtree@@QAEXPAU__tag_NUMBER_HEADER@2345@@Z ; Palmtree::Math::Core::Internal::ResourceHolderUINT::UnlinkNumber

; 339  :                         return (w);

  00329	c7 45 fc ff ff
	ff ff		 mov	 DWORD PTR __$EHRec$[ebp+8], -1
  00330	8d 4d d0	 lea	 ecx, DWORD PTR _root$3[ebp]
  00333	e8 00 00 00 00	 call	 ??1ResourceHolderUINT@Internal@Core@Math@Palmtree@@UAE@XZ ; Palmtree::Math::Core::Internal::ResourceHolderUINT::~ResourceHolderUINT
  00338	8b c7		 mov	 eax, edi

; 340  :                     }
; 341  :                 }
; 342  :                 else
; 343  :                 {
; 344  :                     // _UINT64_T が 1 ワードで表現できる場合
; 345  :                     ResourceHolderUINT root;
; 346  :                     if (u->UNIT_WORD_COUNT <= 1)
; 347  :                     {
; 348  :                         // u と v がともに 1 ワードで表現できる場合
; 349  :                         NUMBER_HEADER* w = root.AllocateNumber(__UNIT_TYPE_BIT_COUNT);
; 350  :                         w->BLOCK[0] = GreatestCommonDivisor_1W_Imp(u->BLOCK[0], (__UNIT_TYPE)v);
; 351  :                         root.CheckNumber(w);
; 352  :                         CommitNumber(w);
; 353  :                         root.UnlinkNumber(w);
; 354  :                         return (w);
; 355  :                     }
; 356  :                     else
; 357  :                     {
; 358  :                         // u と v のどちらかが 1 ワードで表現できない場合
; 359  :                         __UNIT_TYPE u_bit_count = u->UNIT_BIT_COUNT;
; 360  :                         __UNIT_TYPE v_bit_count = sizeof(v) * 8 - _LZCNT_ALT_UNIT((__UNIT_TYPE)v);
; 361  :                         __UNIT_TYPE work_bit_count = _MAXIMUM_UNIT(u_bit_count, v_bit_count);
; 362  : 
; 363  :                         __UNIT_TYPE* work_u_buf = root.AllocateBlock(work_bit_count);
; 364  :                         __UNIT_TYPE* work_v_buf = root.AllocateBlock(work_bit_count);
; 365  :                         NUMBER_HEADER* w = root.AllocateNumber(work_bit_count);
; 366  :                         __UNIT_TYPE u_tzcnt = u->TRAILING_ZERO_BITS_COUNT;
; 367  :                         __UNIT_TYPE v_tzcnt = _TZCNT_ALT_UNIT((__UNIT_TYPE)v);
; 368  :                         __UNIT_TYPE k = _MINIMUM_UNIT(u_tzcnt, v_tzcnt);
; 369  :                         if (u_tzcnt > 0)
; 370  :                             RightShift_Imp(u->BLOCK, u->UNIT_WORD_COUNT, u_tzcnt, work_u_buf, FALSE);
; 371  :                         else
; 372  :                             _COPY_MEMORY_UNIT(work_u_buf, u->BLOCK, u->UNIT_WORD_COUNT);
; 373  :                         work_v_buf[0] = (__UNIT_TYPE)(v >> v_tzcnt);
; 374  : 
; 375  :                         __UNIT_TYPE w_buf_count;
; 376  :                         GreatestCommonDivisor_Imp(work_u_buf, work_v_buf, _DIVIDE_CEILING_UNIT(work_bit_count, __UNIT_TYPE_BIT_COUNT), w->BLOCK, &w_buf_count);
; 377  :                         root.CheckBlock(work_u_buf);
; 378  :                         root.CheckBlock(work_v_buf);
; 379  :                         root.CheckNumber(w);
; 380  :                         root.DeallocateBlock(work_v_buf);
; 381  :                         root.DeallocateBlock(work_u_buf);
; 382  : 
; 383  :                         LeftShift_Imp(w->BLOCK, w_buf_count, k, w->BLOCK, TRUE);
; 384  :                         root.CheckNumber(w);
; 385  :                         CommitNumber(w);
; 386  :                         root.UnlinkNumber(w);
; 387  :                         return (w);
; 388  :                     }
; 389  :                 }
; 390  :             }
; 391  :         }
; 392  :     }

  0033a	8b 4d f4	 mov	 ecx, DWORD PTR __$EHRec$[ebp]
  0033d	64 89 0d 00 00
	00 00		 mov	 DWORD PTR fs:0, ecx
  00344	59		 pop	 ecx
  00345	5f		 pop	 edi
  00346	5e		 pop	 esi
  00347	5b		 pop	 ebx
  00348	8b e5		 mov	 esp, ebp
  0034a	5d		 pop	 ebp
  0034b	c3		 ret	 0
$LN79@PMC_Greate:

; 221  :             {
; 222  :                 // v が 0 である場合
; 223  : 
; 224  :                 // u と v がともに 0 であり、GCD は一意に存在しないため、エラーを返す。
; 225  :                 throw ArithmeticException(L"引数が2つとも0なのでGCDを一意に求めることができません。");

  0034c	68 00 00 00 00	 push	 OFFSET ??_C@_1DO@NPBJHMD@?$AA?$BF?$AAp?$AAL?$AA2?$AAd?$AAh?$PP?$IC?$AA0?$AAj?$AAn?$AAg?$AAG?$AAC?$AAD?$PP?$JC@
  00351	8d 4d c8	 lea	 ecx, DWORD PTR $T2[ebp]
  00354	e8 00 00 00 00	 call	 ??0ArithmeticException@Internal@Core@Math@Palmtree@@QAE@PB_W@Z ; Palmtree::Math::Core::Internal::ArithmeticException::ArithmeticException
  00359	68 00 00 00 00	 push	 OFFSET __TI2?AVArithmeticException@Internal@Core@Math@Palmtree@@
  0035e	8d 45 c8	 lea	 eax, DWORD PTR $T2[ebp]
  00361	50		 push	 eax
  00362	e8 00 00 00 00	 call	 __CxxThrowException@8
$LN74@PMC_Greate:
  00367	cc		 int	 3
_TEXT	ENDS
;	COMDAT text$x
text$x	SEGMENT
__unwindfunclet$?PMC_GreatestCommonDivisor_X_L_Imp@Internal@Core@Math@Palmtree@@YAPAU__tag_NUMBER_HEADER@1234@PAU51234@_K@Z$0:
  00000	8d 4d d0	 lea	 ecx, DWORD PTR _root$4[ebp]
  00003	e9 00 00 00 00	 jmp	 ??1ResourceHolderUINT@Internal@Core@Math@Palmtree@@UAE@XZ ; Palmtree::Math::Core::Internal::ResourceHolderUINT::~ResourceHolderUINT
__unwindfunclet$?PMC_GreatestCommonDivisor_X_L_Imp@Internal@Core@Math@Palmtree@@YAPAU__tag_NUMBER_HEADER@1234@PAU51234@_K@Z$1:
  00008	8d 4d d0	 lea	 ecx, DWORD PTR _root$3[ebp]
  0000b	e9 00 00 00 00	 jmp	 ??1ResourceHolderUINT@Internal@Core@Math@Palmtree@@UAE@XZ ; Palmtree::Math::Core::Internal::ResourceHolderUINT::~ResourceHolderUINT
__ehhandler$?PMC_GreatestCommonDivisor_X_L_Imp@Internal@Core@Math@Palmtree@@YAPAU__tag_NUMBER_HEADER@1234@PAU51234@_K@Z:
  00010	8b 54 24 08	 mov	 edx, DWORD PTR [esp+8]
  00014	8d 42 0c	 lea	 eax, DWORD PTR [edx+12]
  00017	8b 4a c4	 mov	 ecx, DWORD PTR [edx-60]
  0001a	33 c8		 xor	 ecx, eax
  0001c	e8 00 00 00 00	 call	 @__security_check_cookie@4
  00021	b8 00 00 00 00	 mov	 eax, OFFSET __ehfuncinfo$?PMC_GreatestCommonDivisor_X_L_Imp@Internal@Core@Math@Palmtree@@YAPAU__tag_NUMBER_HEADER@1234@PAU51234@_K@Z
  00026	e9 00 00 00 00	 jmp	 ___CxxFrameHandler3
text$x	ENDS
?PMC_GreatestCommonDivisor_X_L_Imp@Internal@Core@Math@Palmtree@@YAPAU__tag_NUMBER_HEADER@1234@PAU51234@_K@Z ENDP ; Palmtree::Math::Core::Internal::PMC_GreatestCommonDivisor_X_L_Imp
; Function compile flags: /Ogtp
; File z:\sources\lunor\repos\rougemeilland\palmtree.math.core.uint\palmtree.math.core.uint\pmc_greatestcommondivisor.cpp
; File z:\sources\lunor\repos\rougemeilland\palmtree.math.core.uint\palmtree.math.core.uint\pmc_inline_func.h
; File z:\sources\lunor\repos\rougemeilland\palmtree.math.core.uint\palmtree.math.core.uint\pmc_greatestcommondivisor.cpp
; File z:\sources\lunor\repos\rougemeilland\palmtree.math.core.uint\palmtree.math.core.uint\pmc_inline_func.h
; File z:\sources\lunor\repos\rougemeilland\palmtree.math.core.uint\palmtree.math.core.uint\pmc_greatestcommondivisor.cpp
; File z:\sources\lunor\repos\rougemeilland\palmtree.math.core.uint\palmtree.math.core.uint\pmc_inline_func.h
; File z:\sources\lunor\repos\rougemeilland\palmtree.math.core.uint\palmtree.math.core.uint\pmc_greatestcommondivisor.cpp
; File z:\sources\lunor\repos\rougemeilland\palmtree.math.core.uint\palmtree.math.core.uint\pmc_inline_func.h
; File z:\sources\lunor\repos\rougemeilland\palmtree.math.core.uint\palmtree.math.core.uint\pmc_greatestcommondivisor.cpp
; File z:\sources\lunor\repos\rougemeilland\palmtree.math.core.uint\palmtree.math.core.uint\pmc_inline_func.h
; File z:\sources\lunor\repos\rougemeilland\palmtree.math.core.uint\palmtree.math.core.uint\pmc_greatestcommondivisor.cpp
; File z:\sources\lunor\repos\rougemeilland\palmtree.math.core.uint\palmtree.math.core.uint\pmc_inline_func.h
; File z:\sources\lunor\repos\rougemeilland\palmtree.math.core.uint\palmtree.math.core.uint\pmc_greatestcommondivisor.cpp
; File z:\sources\lunor\repos\rougemeilland\palmtree.math.core.uint\palmtree.math.core.uint\pmc_inline_func.h
; File z:\sources\lunor\repos\rougemeilland\palmtree.math.core.uint\palmtree.math.core.uint\pmc_greatestcommondivisor.cpp
;	COMDAT ?PMC_GreatestCommonDivisor_X_I_Imp@Internal@Core@Math@Palmtree@@YAPAU__tag_NUMBER_HEADER@1234@PAU51234@I@Z
_TEXT	SEGMENT
$T2 = -56						; size = 24
_root$3 = -48						; size = 16
_k$1$ = -32						; size = 4
_w$1$ = -28						; size = 4
_work_u_buf$1$ = -24					; size = 4
_pos$1$ = -20						; size = 4
_work_v_buf$1$ = -16					; size = 4
__$EHRec$ = -12						; size = 12
_work_bit_count$1$ = 8					; size = 4
_w_buf_count$4 = 8					; size = 4
_u$ = 8							; size = 4
_v$ = 12						; size = 4
?PMC_GreatestCommonDivisor_X_I_Imp@Internal@Core@Math@Palmtree@@YAPAU__tag_NUMBER_HEADER@1234@PAU51234@I@Z PROC ; Palmtree::Math::Core::Internal::PMC_GreatestCommonDivisor_X_I_Imp, COMDAT

; 133  :     {

  00000	55		 push	 ebp
  00001	8b ec		 mov	 ebp, esp
  00003	6a ff		 push	 -1
  00005	68 00 00 00 00	 push	 __ehhandler$?PMC_GreatestCommonDivisor_X_I_Imp@Internal@Core@Math@Palmtree@@YAPAU__tag_NUMBER_HEADER@1234@PAU51234@I@Z
  0000a	64 a1 00 00 00
	00		 mov	 eax, DWORD PTR fs:0
  00010	50		 push	 eax
  00011	83 ec 2c	 sub	 esp, 44			; 0000002cH
  00014	53		 push	 ebx
  00015	56		 push	 esi
  00016	57		 push	 edi
  00017	a1 00 00 00 00	 mov	 eax, DWORD PTR ___security_cookie
  0001c	33 c5		 xor	 eax, ebp
  0001e	50		 push	 eax
  0001f	8d 45 f4	 lea	 eax, DWORD PTR __$EHRec$[ebp]
  00022	64 a3 00 00 00
	00		 mov	 DWORD PTR fs:0, eax

; 134  :         if (u->IS_ZERO)

  00028	8b 5d 08	 mov	 ebx, DWORD PTR _u$[ebp]
  0002b	f6 43 04 01	 test	 BYTE PTR [ebx+4], 1
  0002f	74 26		 je	 SHORT $LN2@PMC_Greate

; 135  :         {
; 136  :             // u が 0 である場合
; 137  : 
; 138  :             if (v == 0)

  00031	8b 45 0c	 mov	 eax, DWORD PTR _v$[ebp]
  00034	85 c0		 test	 eax, eax
  00036	0f 84 dc 01 00
	00		 je	 $LN31@PMC_Greate

; 144  :             }
; 145  :             else
; 146  :             {
; 147  :                 // v が 0 ではない場合
; 148  : 
; 149  :                 // GCD は v そのものであるため、v を計算結果として返す。
; 150  :                 return (From_I_Imp(v));

  0003c	50		 push	 eax
  0003d	e8 00 00 00 00	 call	 ?From_I_Imp@Internal@Core@Math@Palmtree@@YAPAU__tag_NUMBER_HEADER@1234@I@Z ; Palmtree::Math::Core::Internal::From_I_Imp
  00042	83 c4 04	 add	 esp, 4

; 209  :                 }
; 210  :             }
; 211  :         }
; 212  :     }

  00045	8b 4d f4	 mov	 ecx, DWORD PTR __$EHRec$[ebp]
  00048	64 89 0d 00 00
	00 00		 mov	 DWORD PTR fs:0, ecx
  0004f	59		 pop	 ecx
  00050	5f		 pop	 edi
  00051	5e		 pop	 esi
  00052	5b		 pop	 ebx
  00053	8b e5		 mov	 esp, ebp
  00055	5d		 pop	 ebp
  00056	c3		 ret	 0
$LN2@PMC_Greate:

; 151  :             }
; 152  :         }
; 153  :         else
; 154  :         {
; 155  :             // u が 0 ではない場合
; 156  : 
; 157  :             if (v == 0)

  00057	8b 7d 0c	 mov	 edi, DWORD PTR _v$[ebp]
  0005a	85 ff		 test	 edi, edi
  0005c	75 1b		 jne	 SHORT $LN6@PMC_Greate

; 158  :             {
; 159  :                 // v が 0 である場合
; 160  : 
; 161  :                 // GCD は u そのものであるため、u を計算結果として返す。
; 162  :                 return (DuplicateNumber(u));

  0005e	53		 push	 ebx
  0005f	e8 00 00 00 00	 call	 ?DuplicateNumber@Internal@Core@Math@Palmtree@@YAPAU__tag_NUMBER_HEADER@1234@PAU51234@@Z ; Palmtree::Math::Core::Internal::DuplicateNumber
  00064	83 c4 04	 add	 esp, 4

; 209  :                 }
; 210  :             }
; 211  :         }
; 212  :     }

  00067	8b 4d f4	 mov	 ecx, DWORD PTR __$EHRec$[ebp]
  0006a	64 89 0d 00 00
	00 00		 mov	 DWORD PTR fs:0, ecx
  00071	59		 pop	 ecx
  00072	5f		 pop	 edi
  00073	5e		 pop	 esi
  00074	5b		 pop	 ebx
  00075	8b e5		 mov	 esp, ebp
  00077	5d		 pop	 ebp
  00078	c3		 ret	 0
$LN6@PMC_Greate:

; 163  :             }
; 164  :             else
; 165  :             {
; 166  :                 // u と v がともに 0 ではない場合
; 167  :                 // u と v の GCD を計算する
; 168  : 
; 169  :                 ResourceHolderUINT root;

  00079	8d 4d d0	 lea	 ecx, DWORD PTR _root$3[ebp]
  0007c	e8 00 00 00 00	 call	 ??0ResourceHolderUINT@Internal@Core@Math@Palmtree@@QAE@XZ ; Palmtree::Math::Core::Internal::ResourceHolderUINT::ResourceHolderUINT
  00081	c7 45 fc 00 00
	00 00		 mov	 DWORD PTR __$EHRec$[ebp+8], 0

; 170  :                 if (u->UNIT_WORD_COUNT <= 1)

  00088	83 7b 10 01	 cmp	 DWORD PTR [ebx+16], 1
  0008c	77 5d		 ja	 SHORT $LN8@PMC_Greate

; 171  :                 {
; 172  :                     // u と v がともに 1 ワードで表現できる場合
; 173  :                     NUMBER_HEADER* w = root.AllocateNumber(__UNIT_TYPE_BIT_COUNT);

  0008e	6a 20		 push	 32			; 00000020H
  00090	8d 4d d0	 lea	 ecx, DWORD PTR _root$3[ebp]
  00093	e8 00 00 00 00	 call	 ?AllocateNumber@ResourceHolderUINT@Internal@Core@Math@Palmtree@@QAEPAU__tag_NUMBER_HEADER@2345@I@Z ; Palmtree::Math::Core::Internal::ResourceHolderUINT::AllocateNumber

; 174  :                     w->BLOCK[0] = GreatestCommonDivisor_1W_Imp(u->BLOCK[0], v);

  00098	8b 4b 24	 mov	 ecx, DWORD PTR [ebx+36]
  0009b	8b f0		 mov	 esi, eax
  0009d	57		 push	 edi
  0009e	ff 31		 push	 DWORD PTR [ecx]
  000a0	e8 00 00 00 00	 call	 ?GreatestCommonDivisor_1W_Imp@Internal@Core@Math@Palmtree@@YAIII@Z ; Palmtree::Math::Core::Internal::GreatestCommonDivisor_1W_Imp
  000a5	8b 4e 24	 mov	 ecx, DWORD PTR [esi+36]
  000a8	83 c4 08	 add	 esp, 8
  000ab	89 01		 mov	 DWORD PTR [ecx], eax

; 175  :                     root.CheckNumber(w);

  000ad	8d 4d d0	 lea	 ecx, DWORD PTR _root$3[ebp]
  000b0	56		 push	 esi
  000b1	e8 00 00 00 00	 call	 ?CheckNumber@ResourceHolderUINT@Internal@Core@Math@Palmtree@@QAEXPAU__tag_NUMBER_HEADER@2345@@Z ; Palmtree::Math::Core::Internal::ResourceHolderUINT::CheckNumber

; 176  :                     CommitNumber(w);

  000b6	56		 push	 esi
  000b7	e8 00 00 00 00	 call	 ?CommitNumber@Internal@Core@Math@Palmtree@@YAXPAU__tag_NUMBER_HEADER@1234@@Z ; Palmtree::Math::Core::Internal::CommitNumber
  000bc	83 c4 04	 add	 esp, 4

; 177  :                     root.UnlinkNumber(w);

  000bf	8d 4d d0	 lea	 ecx, DWORD PTR _root$3[ebp]
  000c2	56		 push	 esi
  000c3	e8 00 00 00 00	 call	 ?UnlinkNumber@ResourceHolderUINT@Internal@Core@Math@Palmtree@@QAEXPAU__tag_NUMBER_HEADER@2345@@Z ; Palmtree::Math::Core::Internal::ResourceHolderUINT::UnlinkNumber

; 178  :                     return (w);

  000c8	c7 45 fc ff ff
	ff ff		 mov	 DWORD PTR __$EHRec$[ebp+8], -1
  000cf	8d 4d d0	 lea	 ecx, DWORD PTR _root$3[ebp]
  000d2	e8 00 00 00 00	 call	 ??1ResourceHolderUINT@Internal@Core@Math@Palmtree@@UAE@XZ ; Palmtree::Math::Core::Internal::ResourceHolderUINT::~ResourceHolderUINT
  000d7	8b c6		 mov	 eax, esi

; 209  :                 }
; 210  :             }
; 211  :         }
; 212  :     }

  000d9	8b 4d f4	 mov	 ecx, DWORD PTR __$EHRec$[ebp]
  000dc	64 89 0d 00 00
	00 00		 mov	 DWORD PTR fs:0, ecx
  000e3	59		 pop	 ecx
  000e4	5f		 pop	 edi
  000e5	5e		 pop	 esi
  000e6	5b		 pop	 ebx
  000e7	8b e5		 mov	 esp, ebp
  000e9	5d		 pop	 ebp
  000ea	c3		 ret	 0
$LN8@PMC_Greate:
; File z:\sources\lunor\repos\rougemeilland\palmtree.math.core.uint\palmtree.math.core.uint\pmc_inline_func.h

; 426  :             _BitScanReverse(&pos, x);

  000eb	0f bd c7	 bsr	 eax, edi

; 427  : #elif defined(__GNUC__)
; 428  :             __asm__("bsrl %1, %0" : "=r"(pos) : "rm"(x));
; 429  : #else
; 430  : #error unknown compiler
; 431  : #endif
; 432  :             return (sizeof(x) * 8 - 1 - pos);

  000ee	b9 1f 00 00 00	 mov	 ecx, 31			; 0000001fH
  000f3	2b c8		 sub	 ecx, eax
; File z:\sources\lunor\repos\rougemeilland\palmtree.math.core.uint\palmtree.math.core.uint\pmc_greatestcommondivisor.cpp

; 184  :                     __UNIT_TYPE v_bit_count = sizeof(v) * 8 - _LZCNT_ALT_32(v);

  000f5	b8 20 00 00 00	 mov	 eax, 32			; 00000020H
  000fa	2b c1		 sub	 eax, ecx

; 186  :                     __UNIT_TYPE* work_u_buf = root.AllocateBlock(work_bit_count);

  000fc	8d 4d d0	 lea	 ecx, DWORD PTR _root$3[ebp]
; File z:\sources\lunor\repos\rougemeilland\palmtree.math.core.uint\palmtree.math.core.uint\pmc_inline_func.h

; 167  :             return (x >= y ? x : y);

  000ff	39 43 14	 cmp	 DWORD PTR [ebx+20], eax
  00102	0f 43 43 14	 cmovae	 eax, DWORD PTR [ebx+20]
; File z:\sources\lunor\repos\rougemeilland\palmtree.math.core.uint\palmtree.math.core.uint\pmc_greatestcommondivisor.cpp

; 186  :                     __UNIT_TYPE* work_u_buf = root.AllocateBlock(work_bit_count);

  00106	50		 push	 eax
; File z:\sources\lunor\repos\rougemeilland\palmtree.math.core.uint\palmtree.math.core.uint\pmc_inline_func.h

; 167  :             return (x >= y ? x : y);

  00107	89 45 08	 mov	 DWORD PTR _work_bit_count$1$[ebp], eax
; File z:\sources\lunor\repos\rougemeilland\palmtree.math.core.uint\palmtree.math.core.uint\pmc_greatestcommondivisor.cpp

; 186  :                     __UNIT_TYPE* work_u_buf = root.AllocateBlock(work_bit_count);

  0010a	e8 00 00 00 00	 call	 ?AllocateBlock@ResourceHolderUINT@Internal@Core@Math@Palmtree@@QAEPAII@Z ; Palmtree::Math::Core::Internal::ResourceHolderUINT::AllocateBlock

; 187  :                     __UNIT_TYPE* work_v_buf = root.AllocateBlock(work_bit_count);

  0010f	ff 75 08	 push	 DWORD PTR _work_bit_count$1$[ebp]
  00112	8b f0		 mov	 esi, eax
  00114	8d 4d d0	 lea	 ecx, DWORD PTR _root$3[ebp]
  00117	89 75 e8	 mov	 DWORD PTR _work_u_buf$1$[ebp], esi
  0011a	e8 00 00 00 00	 call	 ?AllocateBlock@ResourceHolderUINT@Internal@Core@Math@Palmtree@@QAEPAII@Z ; Palmtree::Math::Core::Internal::ResourceHolderUINT::AllocateBlock

; 188  :                     NUMBER_HEADER* w = root.AllocateNumber(work_bit_count);

  0011f	ff 75 08	 push	 DWORD PTR _work_bit_count$1$[ebp]
  00122	8d 4d d0	 lea	 ecx, DWORD PTR _root$3[ebp]
  00125	89 45 f0	 mov	 DWORD PTR _work_v_buf$1$[ebp], eax
  00128	e8 00 00 00 00	 call	 ?AllocateNumber@ResourceHolderUINT@Internal@Core@Math@Palmtree@@QAEPAU__tag_NUMBER_HEADER@2345@I@Z ; Palmtree::Math::Core::Internal::ResourceHolderUINT::AllocateNumber

; 189  :                     __UNIT_TYPE u_tzcnt = u->TRAILING_ZERO_BITS_COUNT;

  0012d	8b 4b 18	 mov	 ecx, DWORD PTR [ebx+24]
  00130	89 45 e4	 mov	 DWORD PTR _w$1$[ebp], eax
; File z:\sources\lunor\repos\rougemeilland\palmtree.math.core.uint\palmtree.math.core.uint\pmc_inline_func.h

; 511  :             _BitScanForward(&pos, x);

  00133	0f bc c7	 bsf	 eax, edi

; 172  :             return (x <= y ? x : y);

  00136	3b c8		 cmp	 ecx, eax

; 511  :             _BitScanForward(&pos, x);

  00138	89 45 ec	 mov	 DWORD PTR _pos$1$[ebp], eax

; 172  :             return (x <= y ? x : y);

  0013b	8b d0		 mov	 edx, eax
  0013d	0f 46 d1	 cmovbe	 edx, ecx
  00140	89 55 e0	 mov	 DWORD PTR _k$1$[ebp], edx
; File z:\sources\lunor\repos\rougemeilland\palmtree.math.core.uint\palmtree.math.core.uint\pmc_greatestcommondivisor.cpp

; 192  :                     if (u_tzcnt > 0)

  00143	85 c9		 test	 ecx, ecx
  00145	74 17		 je	 SHORT $LN10@PMC_Greate

; 193  :                         RightShift_Imp(u->BLOCK, u->UNIT_WORD_COUNT, u_tzcnt, work_u_buf, FALSE);

  00147	6a 00		 push	 0
  00149	56		 push	 esi
  0014a	51		 push	 ecx
  0014b	ff 73 10	 push	 DWORD PTR [ebx+16]
  0014e	ff 73 24	 push	 DWORD PTR [ebx+36]
  00151	e8 00 00 00 00	 call	 ?RightShift_Imp@Internal@Core@Math@Palmtree@@YAXPAIII0H@Z ; Palmtree::Math::Core::Internal::RightShift_Imp

; 194  :                     else

  00156	8b 45 ec	 mov	 eax, DWORD PTR _pos$1$[ebp]
  00159	83 c4 14	 add	 esp, 20			; 00000014H
  0015c	eb 10		 jmp	 SHORT $LN11@PMC_Greate
$LN10@PMC_Greate:
; File z:\sources\lunor\repos\rougemeilland\palmtree.math.core.uint\palmtree.math.core.uint\pmc_inline_func.h

; 65   :             __movsd((unsigned long *)d, (unsigned long *)s, (unsigned long)count);

  0015e	8b 4b 10	 mov	 ecx, DWORD PTR [ebx+16]
  00161	8b fe		 mov	 edi, esi
  00163	8b 73 24	 mov	 esi, DWORD PTR [ebx+36]
  00166	f3 a5		 rep movsd
  00168	8b 7d 0c	 mov	 edi, DWORD PTR _v$[ebp]
  0016b	8b 75 e8	 mov	 esi, DWORD PTR _work_u_buf$1$[ebp]
$LN11@PMC_Greate:
; File z:\sources\lunor\repos\rougemeilland\palmtree.math.core.uint\palmtree.math.core.uint\pmc_greatestcommondivisor.cpp

; 198  :                     GreatestCommonDivisor_Imp(work_u_buf, work_v_buf, _DIVIDE_CEILING_UNIT(work_bit_count, __UNIT_TYPE_BIT_COUNT), w->BLOCK, &w_buf_count);

  0016e	8b 5d e4	 mov	 ebx, DWORD PTR _w$1$[ebp]
  00171	8b c8		 mov	 ecx, eax
  00173	8b 45 f0	 mov	 eax, DWORD PTR _work_v_buf$1$[ebp]
  00176	d3 ef		 shr	 edi, cl
  00178	8d 4d 08	 lea	 ecx, DWORD PTR _w_buf_count$4[ebp]
  0017b	51		 push	 ecx
  0017c	89 38		 mov	 DWORD PTR [eax], edi
; File z:\sources\lunor\repos\rougemeilland\palmtree.math.core.uint\palmtree.math.core.uint\pmc_inline_func.h

; 157  :             return ((u + v - 1) / v);

  0017e	8b 45 08	 mov	 eax, DWORD PTR _work_bit_count$1$[ebp]
; File z:\sources\lunor\repos\rougemeilland\palmtree.math.core.uint\palmtree.math.core.uint\pmc_greatestcommondivisor.cpp

; 198  :                     GreatestCommonDivisor_Imp(work_u_buf, work_v_buf, _DIVIDE_CEILING_UNIT(work_bit_count, __UNIT_TYPE_BIT_COUNT), w->BLOCK, &w_buf_count);

  00181	ff 73 24	 push	 DWORD PTR [ebx+36]
  00184	8b 7d f0	 mov	 edi, DWORD PTR _work_v_buf$1$[ebp]
; File z:\sources\lunor\repos\rougemeilland\palmtree.math.core.uint\palmtree.math.core.uint\pmc_inline_func.h

; 157  :             return ((u + v - 1) / v);

  00187	83 c0 1f	 add	 eax, 31			; 0000001fH
  0018a	c1 e8 05	 shr	 eax, 5
; File z:\sources\lunor\repos\rougemeilland\palmtree.math.core.uint\palmtree.math.core.uint\pmc_greatestcommondivisor.cpp

; 198  :                     GreatestCommonDivisor_Imp(work_u_buf, work_v_buf, _DIVIDE_CEILING_UNIT(work_bit_count, __UNIT_TYPE_BIT_COUNT), w->BLOCK, &w_buf_count);

  0018d	50		 push	 eax
  0018e	57		 push	 edi
  0018f	56		 push	 esi
  00190	e8 00 00 00 00	 call	 ?GreatestCommonDivisor_Imp@Internal@Core@Math@Palmtree@@YAXPAI0I00@Z ; Palmtree::Math::Core::Internal::GreatestCommonDivisor_Imp
  00195	83 c4 14	 add	 esp, 20			; 00000014H

; 199  :                     root.CheckBlock(work_u_buf);

  00198	8d 4d d0	 lea	 ecx, DWORD PTR _root$3[ebp]
  0019b	56		 push	 esi
  0019c	e8 00 00 00 00	 call	 ?CheckBlock@ResourceHolderUINT@Internal@Core@Math@Palmtree@@QAEXPAI@Z ; Palmtree::Math::Core::Internal::ResourceHolderUINT::CheckBlock

; 200  :                     root.CheckBlock(work_v_buf);

  001a1	57		 push	 edi
  001a2	8d 4d d0	 lea	 ecx, DWORD PTR _root$3[ebp]
  001a5	e8 00 00 00 00	 call	 ?CheckBlock@ResourceHolderUINT@Internal@Core@Math@Palmtree@@QAEXPAI@Z ; Palmtree::Math::Core::Internal::ResourceHolderUINT::CheckBlock

; 201  :                     root.CheckNumber(w);

  001aa	53		 push	 ebx
  001ab	8d 4d d0	 lea	 ecx, DWORD PTR _root$3[ebp]
  001ae	e8 00 00 00 00	 call	 ?CheckNumber@ResourceHolderUINT@Internal@Core@Math@Palmtree@@QAEXPAU__tag_NUMBER_HEADER@2345@@Z ; Palmtree::Math::Core::Internal::ResourceHolderUINT::CheckNumber

; 202  :                     root.DeallocateBlock(work_v_buf);

  001b3	57		 push	 edi
  001b4	8d 4d d0	 lea	 ecx, DWORD PTR _root$3[ebp]
  001b7	e8 00 00 00 00	 call	 ?DeallocateBlock@ResourceHolderUINT@Internal@Core@Math@Palmtree@@QAEXPAI@Z ; Palmtree::Math::Core::Internal::ResourceHolderUINT::DeallocateBlock

; 203  :                     root.DeallocateBlock(work_u_buf);

  001bc	56		 push	 esi
  001bd	8d 4d d0	 lea	 ecx, DWORD PTR _root$3[ebp]
  001c0	e8 00 00 00 00	 call	 ?DeallocateBlock@ResourceHolderUINT@Internal@Core@Math@Palmtree@@QAEXPAI@Z ; Palmtree::Math::Core::Internal::ResourceHolderUINT::DeallocateBlock

; 204  :                     LeftShift_Imp(w->BLOCK, w_buf_count, k, w->BLOCK, TRUE);

  001c5	8b 43 24	 mov	 eax, DWORD PTR [ebx+36]
  001c8	6a 01		 push	 1
  001ca	50		 push	 eax
  001cb	ff 75 e0	 push	 DWORD PTR _k$1$[ebp]
  001ce	ff 75 08	 push	 DWORD PTR _w_buf_count$4[ebp]
  001d1	50		 push	 eax
  001d2	e8 00 00 00 00	 call	 ?LeftShift_Imp@Internal@Core@Math@Palmtree@@YAXPAIII0H@Z ; Palmtree::Math::Core::Internal::LeftShift_Imp
  001d7	83 c4 14	 add	 esp, 20			; 00000014H

; 205  :                     root.CheckNumber(w);

  001da	8d 4d d0	 lea	 ecx, DWORD PTR _root$3[ebp]
  001dd	53		 push	 ebx
  001de	e8 00 00 00 00	 call	 ?CheckNumber@ResourceHolderUINT@Internal@Core@Math@Palmtree@@QAEXPAU__tag_NUMBER_HEADER@2345@@Z ; Palmtree::Math::Core::Internal::ResourceHolderUINT::CheckNumber

; 206  :                     CommitNumber(w);

  001e3	53		 push	 ebx
  001e4	e8 00 00 00 00	 call	 ?CommitNumber@Internal@Core@Math@Palmtree@@YAXPAU__tag_NUMBER_HEADER@1234@@Z ; Palmtree::Math::Core::Internal::CommitNumber
  001e9	83 c4 04	 add	 esp, 4

; 207  :                     root.UnlinkNumber(w);

  001ec	8d 4d d0	 lea	 ecx, DWORD PTR _root$3[ebp]
  001ef	53		 push	 ebx
  001f0	e8 00 00 00 00	 call	 ?UnlinkNumber@ResourceHolderUINT@Internal@Core@Math@Palmtree@@QAEXPAU__tag_NUMBER_HEADER@2345@@Z ; Palmtree::Math::Core::Internal::ResourceHolderUINT::UnlinkNumber

; 208  :                     return (w);

  001f5	c7 45 fc ff ff
	ff ff		 mov	 DWORD PTR __$EHRec$[ebp+8], -1
  001fc	8d 4d d0	 lea	 ecx, DWORD PTR _root$3[ebp]
  001ff	e8 00 00 00 00	 call	 ??1ResourceHolderUINT@Internal@Core@Math@Palmtree@@UAE@XZ ; Palmtree::Math::Core::Internal::ResourceHolderUINT::~ResourceHolderUINT
  00204	8b c3		 mov	 eax, ebx

; 209  :                 }
; 210  :             }
; 211  :         }
; 212  :     }

  00206	8b 4d f4	 mov	 ecx, DWORD PTR __$EHRec$[ebp]
  00209	64 89 0d 00 00
	00 00		 mov	 DWORD PTR fs:0, ecx
  00210	59		 pop	 ecx
  00211	5f		 pop	 edi
  00212	5e		 pop	 esi
  00213	5b		 pop	 ebx
  00214	8b e5		 mov	 esp, ebp
  00216	5d		 pop	 ebp
  00217	c3		 ret	 0
$LN31@PMC_Greate:

; 139  :             {
; 140  :                 // v が 0 である場合
; 141  : 
; 142  :                 // u と v がともに 0 であり、GCD は一意に存在しないため、エラーを返す。
; 143  :                 throw ArithmeticException(L"引数が2つとも0なのでGCDを一意に求めることができません。");

  00218	68 00 00 00 00	 push	 OFFSET ??_C@_1DO@NPBJHMD@?$AA?$BF?$AAp?$AAL?$AA2?$AAd?$AAh?$PP?$IC?$AA0?$AAj?$AAn?$AAg?$AAG?$AAC?$AAD?$PP?$JC@
  0021d	8d 4d c8	 lea	 ecx, DWORD PTR $T2[ebp]
  00220	e8 00 00 00 00	 call	 ??0ArithmeticException@Internal@Core@Math@Palmtree@@QAE@PB_W@Z ; Palmtree::Math::Core::Internal::ArithmeticException::ArithmeticException
  00225	68 00 00 00 00	 push	 OFFSET __TI2?AVArithmeticException@Internal@Core@Math@Palmtree@@
  0022a	8d 45 c8	 lea	 eax, DWORD PTR $T2[ebp]
  0022d	50		 push	 eax
  0022e	e8 00 00 00 00	 call	 __CxxThrowException@8
$LN29@PMC_Greate:
  00233	cc		 int	 3
_TEXT	ENDS
;	COMDAT text$x
text$x	SEGMENT
__unwindfunclet$?PMC_GreatestCommonDivisor_X_I_Imp@Internal@Core@Math@Palmtree@@YAPAU__tag_NUMBER_HEADER@1234@PAU51234@I@Z$0:
  00000	8d 4d d0	 lea	 ecx, DWORD PTR _root$3[ebp]
  00003	e9 00 00 00 00	 jmp	 ??1ResourceHolderUINT@Internal@Core@Math@Palmtree@@UAE@XZ ; Palmtree::Math::Core::Internal::ResourceHolderUINT::~ResourceHolderUINT
__ehhandler$?PMC_GreatestCommonDivisor_X_I_Imp@Internal@Core@Math@Palmtree@@YAPAU__tag_NUMBER_HEADER@1234@PAU51234@I@Z:
  00008	8b 54 24 08	 mov	 edx, DWORD PTR [esp+8]
  0000c	8d 42 0c	 lea	 eax, DWORD PTR [edx+12]
  0000f	8b 4a c4	 mov	 ecx, DWORD PTR [edx-60]
  00012	33 c8		 xor	 ecx, eax
  00014	e8 00 00 00 00	 call	 @__security_check_cookie@4
  00019	b8 00 00 00 00	 mov	 eax, OFFSET __ehfuncinfo$?PMC_GreatestCommonDivisor_X_I_Imp@Internal@Core@Math@Palmtree@@YAPAU__tag_NUMBER_HEADER@1234@PAU51234@I@Z
  0001e	e9 00 00 00 00	 jmp	 ___CxxFrameHandler3
text$x	ENDS
?PMC_GreatestCommonDivisor_X_I_Imp@Internal@Core@Math@Palmtree@@YAPAU__tag_NUMBER_HEADER@1234@PAU51234@I@Z ENDP ; Palmtree::Math::Core::Internal::PMC_GreatestCommonDivisor_X_I_Imp
; Function compile flags: /Ogtp
; File z:\sources\lunor\repos\rougemeilland\palmtree.math.core.uint\palmtree.math.core.uint\pmc_greatestcommondivisor.cpp
; File z:\sources\lunor\repos\rougemeilland\palmtree.math.core.uint\palmtree.math.core.uint\pmc_inline_func.h
; File z:\sources\lunor\repos\rougemeilland\palmtree.math.core.uint\palmtree.math.core.uint\pmc_greatestcommondivisor.cpp
; File z:\sources\lunor\repos\rougemeilland\palmtree.math.core.uint\palmtree.math.core.uint\pmc_inline_func.h
; File z:\sources\lunor\repos\rougemeilland\palmtree.math.core.uint\palmtree.math.core.uint\pmc_greatestcommondivisor.cpp
; File z:\sources\lunor\repos\rougemeilland\palmtree.math.core.uint\palmtree.math.core.uint\pmc_inline_func.h
; File z:\sources\lunor\repos\rougemeilland\palmtree.math.core.uint\palmtree.math.core.uint\pmc_greatestcommondivisor.cpp
; File z:\sources\lunor\repos\rougemeilland\palmtree.math.core.uint\palmtree.math.core.uint\pmc_inline_func.h
; File z:\sources\lunor\repos\rougemeilland\palmtree.math.core.uint\palmtree.math.core.uint\pmc_greatestcommondivisor.cpp
;	COMDAT ?GreatestCommonDivisor_1W_Imp@Internal@Core@Math@Palmtree@@YAIII@Z
_TEXT	SEGMENT
$T1 = -24						; size = 24
_u$ = 8							; size = 4
_v$ = 12						; size = 4
?GreatestCommonDivisor_1W_Imp@Internal@Core@Math@Palmtree@@YAIII@Z PROC ; Palmtree::Math::Core::Internal::GreatestCommonDivisor_1W_Imp, COMDAT

; 86   :     {

  00000	55		 push	 ebp
  00001	8b ec		 mov	 ebp, esp
; File z:\sources\lunor\repos\rougemeilland\palmtree.math.core.uint\palmtree.math.core.uint\pmc_inline_func.h

; 506  :             if (x == 0)

  00003	8b 55 08	 mov	 edx, DWORD PTR _u$[ebp]
; File z:\sources\lunor\repos\rougemeilland\palmtree.math.core.uint\palmtree.math.core.uint\pmc_greatestcommondivisor.cpp

; 86   :     {

  00006	83 ec 18	 sub	 esp, 24			; 00000018H
; File z:\sources\lunor\repos\rougemeilland\palmtree.math.core.uint\palmtree.math.core.uint\pmc_inline_func.h

; 507  :                 return (sizeof(x) * 8);

  00009	b9 20 00 00 00	 mov	 ecx, 32			; 00000020H
  0000e	85 d2		 test	 edx, edx
  00010	74 03		 je	 SHORT $LN13@GreatestCo

; 508  : #ifdef _M_IX86
; 509  :             DWORD pos;
; 510  : #ifdef _MSC_VER
; 511  :             _BitScanForward(&pos, x);

  00012	0f bc ca	 bsf	 ecx, edx
$LN13@GreatestCo:
  00015	53		 push	 ebx
  00016	56		 push	 esi

; 506  :             if (x == 0)

  00017	8b 75 0c	 mov	 esi, DWORD PTR _v$[ebp]
  0001a	57		 push	 edi

; 507  :                 return (sizeof(x) * 8);

  0001b	bf 20 00 00 00	 mov	 edi, 32			; 00000020H
  00020	85 f6		 test	 esi, esi
  00022	74 03		 je	 SHORT $LN16@GreatestCo

; 508  : #ifdef _M_IX86
; 509  :             DWORD pos;
; 510  : #ifdef _MSC_VER
; 511  :             _BitScanForward(&pos, x);

  00024	0f bc fe	 bsf	 edi, esi
$LN16@GreatestCo:
; File z:\sources\lunor\repos\rougemeilland\palmtree.math.core.uint\palmtree.math.core.uint\pmc_greatestcommondivisor.cpp

; 91   :             k = u_tz_count < v_tz_count ? u_tz_count : v_tz_count;

  00027	3b cf		 cmp	 ecx, edi
  00029	8b df		 mov	 ebx, edi

; 92   :             if (u_tz_count > 0)
; 93   :                 u >>= u_tz_count;
; 94   :             if (v_tz_count > 0)

  0002b	8b c2		 mov	 eax, edx
  0002d	0f 4c d9	 cmovl	 ebx, ecx
  00030	d3 e8		 shr	 eax, cl
  00032	85 c9		 test	 ecx, ecx
  00034	0f 4e c2	 cmovle	 eax, edx

; 99   :             if (u == 0 || v == 0)

  00037	85 c0		 test	 eax, eax
  00039	74 45		 je	 SHORT $LN8@GreatestCo
  0003b	8b d6		 mov	 edx, esi
  0003d	8b cf		 mov	 ecx, edi
  0003f	d3 ea		 shr	 edx, cl
  00041	85 ff		 test	 edi, edi
  00043	0f 4e d6	 cmovle	 edx, esi
$LL2@GreatestCo:
  00046	85 d2		 test	 edx, edx
  00048	74 36		 je	 SHORT $LN8@GreatestCo

; 103  :             }
; 104  :             if (u == v)

  0004a	3b c2		 cmp	 eax, edx
  0004c	74 27		 je	 SHORT $LN24@GreatestCo

; 119  :             u = u - v;

  0004e	8b f0		 mov	 esi, eax
; File z:\sources\lunor\repos\rougemeilland\palmtree.math.core.uint\palmtree.math.core.uint\pmc_inline_func.h

; 507  :                 return (sizeof(x) * 8);

  00050	b9 20 00 00 00	 mov	 ecx, 32			; 00000020H
; File z:\sources\lunor\repos\rougemeilland\palmtree.math.core.uint\palmtree.math.core.uint\pmc_greatestcommondivisor.cpp

; 119  :             u = u - v;

  00055	0f 43 f2	 cmovae	 esi, edx
  00058	0f 43 d0	 cmovae	 edx, eax
  0005b	8b c2		 mov	 eax, edx
  0005d	2b c6		 sub	 eax, esi
  0005f	8b d0		 mov	 edx, eax
; File z:\sources\lunor\repos\rougemeilland\palmtree.math.core.uint\palmtree.math.core.uint\pmc_inline_func.h

; 506  :             if (x == 0)

  00061	74 03		 je	 SHORT $LN19@GreatestCo

; 508  : #ifdef _M_IX86
; 509  :             DWORD pos;
; 510  : #ifdef _MSC_VER
; 511  :             _BitScanForward(&pos, x);

  00063	0f bc c8	 bsf	 ecx, eax
$LN19@GreatestCo:
; File z:\sources\lunor\repos\rougemeilland\palmtree.math.core.uint\palmtree.math.core.uint\pmc_greatestcommondivisor.cpp

; 99   :             if (u == 0 || v == 0)

  00066	d3 e8		 shr	 eax, cl
  00068	85 c9		 test	 ecx, ecx
  0006a	0f 4e c2	 cmovle	 eax, edx
  0006d	8b d6		 mov	 edx, esi
  0006f	85 c0		 test	 eax, eax
  00071	74 0d		 je	 SHORT $LN8@GreatestCo
  00073	eb d1		 jmp	 SHORT $LL2@GreatestCo
$LN24@GreatestCo:

; 120  : 
; 121  :             // この時点で u は偶数
; 122  : 
; 123  :             // u が奇数になるまで u を右シフトする
; 124  :             {
; 125  :                 int u_tz_count = _TZCNT_ALT_UNIT(u);
; 126  :                 if (u_tz_count > 0)
; 127  :                     u >>= u_tz_count;
; 128  :             }
; 129  :         }
; 130  :     }

  00075	5f		 pop	 edi
  00076	8b cb		 mov	 ecx, ebx
  00078	5e		 pop	 esi
  00079	d3 e0		 shl	 eax, cl
  0007b	5b		 pop	 ebx
  0007c	8b e5		 mov	 esp, ebp
  0007e	5d		 pop	 ebp
  0007f	c3		 ret	 0
$LN8@GreatestCo:

; 100  :             {
; 101  :                 // このルートへの到達はあり得ないはず。
; 102  :                 throw InternalErrorException(L"予期していないコードに到達しました。", L"pmc_greatestcommondivisor.cpp;GreatestCommonDivisor_1W_Imp;1");

  00080	68 00 00 00 00	 push	 OFFSET ??_C@_1HK@DNJBGJKK@?$AAp?$AAm?$AAc?$AA_?$AAg?$AAr?$AAe?$AAa?$AAt?$AAe?$AAs?$AAt?$AAc?$AAo?$AAm@
  00085	68 00 00 00 00	 push	 OFFSET ??_C@_1CG@CNOPPENL@?$PP?$II?$AA?$BP?$AAW?$AAf?$AAD?$AAj?$AAD?$PP?$LD?$PP?$PM?$PP?I?$AAk?$AA0?$AAT?$AAW?$AA?$HO@
  0008a	8d 4d e8	 lea	 ecx, DWORD PTR $T1[ebp]
  0008d	e8 00 00 00 00	 call	 ??0InternalErrorException@Internal@Core@Math@Palmtree@@QAE@PB_W0@Z ; Palmtree::Math::Core::Internal::InternalErrorException::InternalErrorException
  00092	68 00 00 00 00	 push	 OFFSET __TI2?AVInternalErrorException@Internal@Core@Math@Palmtree@@
  00097	8d 45 e8	 lea	 eax, DWORD PTR $T1[ebp]
  0009a	50		 push	 eax
  0009b	e8 00 00 00 00	 call	 __CxxThrowException@8
$LN27@GreatestCo:
  000a0	cc		 int	 3
?GreatestCommonDivisor_1W_Imp@Internal@Core@Math@Palmtree@@YAIII@Z ENDP ; Palmtree::Math::Core::Internal::GreatestCommonDivisor_1W_Imp
_TEXT	ENDS
; Function compile flags: /Ogtp
; File z:\sources\lunor\repos\rougemeilland\palmtree.math.core.uint\palmtree.math.core.uint\pmc_greatestcommondivisor.cpp
; File z:\sources\lunor\repos\rougemeilland\palmtree.math.core.uint\palmtree.math.core.uint\pmc_inline_func.h
; File z:\sources\lunor\repos\rougemeilland\palmtree.math.core.uint\palmtree.math.core.uint\pmc_greatestcommondivisor.cpp
; File z:\sources\lunor\repos\rougemeilland\palmtree.math.core.uint\palmtree.math.core.uint\pmc_inline_func.h
; File z:\sources\lunor\repos\rougemeilland\palmtree.math.core.uint\palmtree.math.core.uint\pmc_greatestcommondivisor.cpp
; File z:\sources\lunor\repos\rougemeilland\palmtree.math.core.uint\palmtree.math.core.uint\pmc_inline_func.h
; File z:\sources\lunor\repos\rougemeilland\palmtree.math.core.uint\palmtree.math.core.uint\pmc_greatestcommondivisor.cpp
;	COMDAT ?GreatestCommonDivisor_Imp@Internal@Core@Math@Palmtree@@YAXPAI0I00@Z
_TEXT	SEGMENT
$T1 = -24						; size = 24
_p1_buf$ = 8						; size = 4
_p2_buf$ = 12						; size = 4
_word_count$ = 16					; size = 4
_w_buf$ = 20						; size = 4
_w_buf_count$ = 24					; size = 4
?GreatestCommonDivisor_Imp@Internal@Core@Math@Palmtree@@YAXPAI0I00@Z PROC ; Palmtree::Math::Core::Internal::GreatestCommonDivisor_Imp, COMDAT

; 37   :     {

  00000	55		 push	 ebp
  00001	8b ec		 mov	 ebp, esp
  00003	83 ec 18	 sub	 esp, 24			; 00000018H
  00006	53		 push	 ebx

; 38   :         __UNIT_TYPE* u = p1_buf;
; 39   :         __UNIT_TYPE* v = p2_buf;

  00007	8b 5d 10	 mov	 ebx, DWORD PTR _word_count$[ebp]
  0000a	56		 push	 esi
  0000b	8b 75 08	 mov	 esi, DWORD PTR _p1_buf$[ebp]
  0000e	57		 push	 edi
  0000f	8b 7d 0c	 mov	 edi, DWORD PTR _p2_buf$[ebp]
$LL2@GreatestCo:

; 40   :         for (;;)
; 41   :         {
; 42   :             while (word_count > 0 && u[word_count - 1] == 0 && v[word_count - 1] == 0)

  00012	85 db		 test	 ebx, ebx
  00014	0f 84 92 00 00
	00		 je	 $LN23@GreatestCo
  0001a	8d 43 ff	 lea	 eax, DWORD PTR [ebx-1]
  0001d	8b ce		 mov	 ecx, esi
  0001f	8d 04 87	 lea	 eax, DWORD PTR [edi+eax*4]
  00022	2b cf		 sub	 ecx, edi
$LL5@GreatestCo:
  00024	83 3c 01 00	 cmp	 DWORD PTR [ecx+eax], 0
  00028	75 0d		 jne	 SHORT $LN33@GreatestCo
  0002a	83 38 00	 cmp	 DWORD PTR [eax], 0
  0002d	75 08		 jne	 SHORT $LN33@GreatestCo

; 43   :                 --word_count;

  0002f	83 e8 04	 sub	 eax, 4
  00032	83 eb 01	 sub	 ebx, 1
  00035	75 ed		 jne	 SHORT $LL5@GreatestCo
$LN33@GreatestCo:

; 44   :             if (word_count <= 0)

  00037	85 db		 test	 ebx, ebx
  00039	74 71		 je	 SHORT $LN23@GreatestCo

; 48   :             }
; 49   :             int c = Compare_Imp(u, v, word_count);

  0003b	53		 push	 ebx
  0003c	57		 push	 edi
  0003d	56		 push	 esi
  0003e	e8 00 00 00 00	 call	 ?Compare_Imp@Internal@Core@Math@Palmtree@@YAHPAI0I@Z ; Palmtree::Math::Core::Internal::Compare_Imp
  00043	83 c4 0c	 add	 esp, 12			; 0000000cH

; 50   :             if (c == 0)

  00046	85 c0		 test	 eax, eax
  00048	74 4f		 je	 SHORT $LN24@GreatestCo

; 57   :                 return;
; 58   :             }
; 59   :             if (c < 0)

  0004a	79 06		 jns	 SHORT $LN11@GreatestCo

; 60   :             {
; 61   :                 __UNIT_TYPE* tt = u;

  0004c	8b c6		 mov	 eax, esi

; 62   :                 u = v;

  0004e	8b f7		 mov	 esi, edi

; 63   :                 v = tt;

  00050	8b f8		 mov	 edi, eax
$LN11@GreatestCo:

; 64   :             }
; 65   :             // この時点で u > v かつ u と v はともに奇数である
; 66   : 
; 67   :             Subtruct_Imp(u, word_count, v, word_count, u, word_count);

  00052	53		 push	 ebx
  00053	56		 push	 esi
  00054	53		 push	 ebx
  00055	57		 push	 edi
  00056	53		 push	 ebx
  00057	56		 push	 esi
  00058	e8 00 00 00 00	 call	 ?Subtruct_Imp@Internal@Core@Math@Palmtree@@YAXPAII0I0I@Z ; Palmtree::Math::Core::Internal::Subtruct_Imp

; 68   : 
; 69   :             // この時点で u は偶数
; 70   : 
; 71   :             // u が奇数になるまで u を右シフトする
; 72   :             __UNIT_TYPE* t_ptr = u;
; 73   :             int tz_count = 0;
; 74   :             while (*t_ptr == 0)

  0005d	8b 16		 mov	 edx, DWORD PTR [esi]
  0005f	83 c4 18	 add	 esp, 24			; 00000018H
  00062	33 c0		 xor	 eax, eax
  00064	8b ce		 mov	 ecx, esi
  00066	85 d2		 test	 edx, edx
  00068	75 13		 jne	 SHORT $LN17@GreatestCo
  0006a	66 0f 1f 44 00
	00		 npad	 6
$LL7@GreatestCo:
  00070	8b 51 04	 mov	 edx, DWORD PTR [ecx+4]

; 75   :             {
; 76   :                 ++t_ptr;

  00073	8d 49 04	 lea	 ecx, DWORD PTR [ecx+4]

; 77   :                 tz_count += __UNIT_TYPE_BIT_COUNT;

  00076	83 c0 20	 add	 eax, 32			; 00000020H
  00079	85 d2		 test	 edx, edx
  0007b	74 f3		 je	 SHORT $LL7@GreatestCo
$LN17@GreatestCo:
; File z:\sources\lunor\repos\rougemeilland\palmtree.math.core.uint\palmtree.math.core.uint\pmc_inline_func.h

; 511  :             _BitScanForward(&pos, x);

  0007d	0f bc ca	 bsf	 ecx, edx
; File z:\sources\lunor\repos\rougemeilland\palmtree.math.core.uint\palmtree.math.core.uint\pmc_greatestcommondivisor.cpp

; 79   :             tz_count += _TZCNT_ALT_UNIT(*t_ptr);

  00080	03 c1		 add	 eax, ecx

; 80   :             if (tz_count > 0)

  00082	85 c0		 test	 eax, eax
  00084	7e 8c		 jle	 SHORT $LL2@GreatestCo

; 81   :                 RightShift_Imp(u, word_count, tz_count, u, TRUE);

  00086	6a 01		 push	 1
  00088	56		 push	 esi
  00089	50		 push	 eax
  0008a	53		 push	 ebx
  0008b	56		 push	 esi
  0008c	e8 00 00 00 00	 call	 ?RightShift_Imp@Internal@Core@Math@Palmtree@@YAXPAIII0H@Z ; Palmtree::Math::Core::Internal::RightShift_Imp
  00091	83 c4 14	 add	 esp, 20			; 00000014H

; 82   :         }

  00094	e9 79 ff ff ff	 jmp	 $LL2@GreatestCo
$LN24@GreatestCo:
; File z:\sources\lunor\repos\rougemeilland\palmtree.math.core.uint\palmtree.math.core.uint\pmc_inline_func.h

; 65   :             __movsd((unsigned long *)d, (unsigned long *)s, (unsigned long)count);

  00099	8b 7d 14	 mov	 edi, DWORD PTR _w_buf$[ebp]
  0009c	8b cb		 mov	 ecx, ebx
; File z:\sources\lunor\repos\rougemeilland\palmtree.math.core.uint\palmtree.math.core.uint\pmc_greatestcommondivisor.cpp

; 56   :                 *w_buf_count = word_count;

  0009e	8b 45 18	 mov	 eax, DWORD PTR _w_buf_count$[ebp]
; File z:\sources\lunor\repos\rougemeilland\palmtree.math.core.uint\palmtree.math.core.uint\pmc_inline_func.h

; 65   :             __movsd((unsigned long *)d, (unsigned long *)s, (unsigned long)count);

  000a1	f3 a5		 rep movsd
; File z:\sources\lunor\repos\rougemeilland\palmtree.math.core.uint\palmtree.math.core.uint\pmc_greatestcommondivisor.cpp

; 56   :                 *w_buf_count = word_count;

  000a3	5f		 pop	 edi
  000a4	5e		 pop	 esi
  000a5	89 18		 mov	 DWORD PTR [eax], ebx
  000a7	5b		 pop	 ebx

; 83   :     }

  000a8	8b e5		 mov	 esp, ebp
  000aa	5d		 pop	 ebp
  000ab	c3		 ret	 0
$LN23@GreatestCo:

; 45   :             {
; 46   :                 // このルートへの到達はあり得ないはず。
; 47   :                 throw InternalErrorException(L"予期していないコードに到達しました。", L"pmc_greatestcommondivisor.cpp;GreatestCommonDivisor_Imp;1");

  000ac	68 00 00 00 00	 push	 OFFSET ??_C@_1HE@ECAGDGPP@?$AAp?$AAm?$AAc?$AA_?$AAg?$AAr?$AAe?$AAa?$AAt?$AAe?$AAs?$AAt?$AAc?$AAo?$AAm@
  000b1	68 00 00 00 00	 push	 OFFSET ??_C@_1CG@CNOPPENL@?$PP?$II?$AA?$BP?$AAW?$AAf?$AAD?$AAj?$AAD?$PP?$LD?$PP?$PM?$PP?I?$AAk?$AA0?$AAT?$AAW?$AA?$HO@
  000b6	8d 4d e8	 lea	 ecx, DWORD PTR $T1[ebp]
  000b9	e8 00 00 00 00	 call	 ??0InternalErrorException@Internal@Core@Math@Palmtree@@QAE@PB_W0@Z ; Palmtree::Math::Core::Internal::InternalErrorException::InternalErrorException
  000be	68 00 00 00 00	 push	 OFFSET __TI2?AVInternalErrorException@Internal@Core@Math@Palmtree@@
  000c3	8d 45 e8	 lea	 eax, DWORD PTR $T1[ebp]
  000c6	50		 push	 eax
  000c7	e8 00 00 00 00	 call	 __CxxThrowException@8
$LN34@GreatestCo:
  000cc	cc		 int	 3
?GreatestCommonDivisor_Imp@Internal@Core@Math@Palmtree@@YAXPAI0I00@Z ENDP ; Palmtree::Math::Core::Internal::GreatestCommonDivisor_Imp
_TEXT	ENDS
; Function compile flags: /Ogtp
; File z:\sources\lunor\repos\rougemeilland\palmtree.math.core.uint\palmtree.math.core.uint\pmc_inline_func.h
;	COMDAT __TZCNT_ALT_UNIT
_TEXT	SEGMENT
_x$ = 8							; size = 4
__TZCNT_ALT_UNIT PROC					; COMDAT

; 505  :         {

  00000	55		 push	 ebp
  00001	8b ec		 mov	 ebp, esp

; 506  :             if (x == 0)

  00003	8b 45 08	 mov	 eax, DWORD PTR _x$[ebp]
  00006	85 c0		 test	 eax, eax
  00008	75 07		 jne	 SHORT $LN2@TZCNT_ALT_

; 507  :                 return (sizeof(x) * 8);

  0000a	b8 20 00 00 00	 mov	 eax, 32			; 00000020H

; 512  : #elif defined(__GNUC__)
; 513  :             __asm__("bsfl %1, %0" : "=r"(pos) : "rm"(x));
; 514  : #else
; 515  : #error unknown compiler
; 516  : #endif
; 517  : #elif defined(_M_X64)
; 518  : #ifdef _MSC_VER
; 519  :             DWORD pos;
; 520  :             _BitScanForward64(&pos, x);
; 521  : #elif defined(__GNUC__)
; 522  :             _UINT64_T pos;
; 523  :             __asm__("bsfq %1, %0" : "=r"(pos) : "rm"(x));
; 524  : #else
; 525  : #error unknown compiler
; 526  : #endif
; 527  : #else
; 528  : #error unknown platform
; 529  : #endif
; 530  :             return (pos);
; 531  :         }

  0000f	5d		 pop	 ebp
  00010	c3		 ret	 0
$LN2@TZCNT_ALT_:

; 508  : #ifdef _M_IX86
; 509  :             DWORD pos;
; 510  : #ifdef _MSC_VER
; 511  :             _BitScanForward(&pos, x);

  00011	0f bc c0	 bsf	 eax, eax

; 512  : #elif defined(__GNUC__)
; 513  :             __asm__("bsfl %1, %0" : "=r"(pos) : "rm"(x));
; 514  : #else
; 515  : #error unknown compiler
; 516  : #endif
; 517  : #elif defined(_M_X64)
; 518  : #ifdef _MSC_VER
; 519  :             DWORD pos;
; 520  :             _BitScanForward64(&pos, x);
; 521  : #elif defined(__GNUC__)
; 522  :             _UINT64_T pos;
; 523  :             __asm__("bsfq %1, %0" : "=r"(pos) : "rm"(x));
; 524  : #else
; 525  : #error unknown compiler
; 526  : #endif
; 527  : #else
; 528  : #error unknown platform
; 529  : #endif
; 530  :             return (pos);
; 531  :         }

  00014	5d		 pop	 ebp
  00015	c3		 ret	 0
__TZCNT_ALT_UNIT ENDP
_TEXT	ENDS
; Function compile flags: /Ogtp
; File z:\sources\lunor\repos\rougemeilland\palmtree.math.core.uint\palmtree.math.core.uint\pmc_inline_func.h
;	COMDAT __LZCNT_ALT_UNIT
_TEXT	SEGMENT
_x$ = 8							; size = 4
__LZCNT_ALT_UNIT PROC					; COMDAT

; 454  :         {

  00000	55		 push	 ebp
  00001	8b ec		 mov	 ebp, esp

; 455  :             if (x == 0)

  00003	8b 45 08	 mov	 eax, DWORD PTR _x$[ebp]
  00006	85 c0		 test	 eax, eax
  00008	75 07		 jne	 SHORT $LN2@LZCNT_ALT_

; 456  :                 return (sizeof(x) * 8);

  0000a	b8 20 00 00 00	 mov	 eax, 32			; 00000020H

; 480  :         }

  0000f	5d		 pop	 ebp
  00010	c3		 ret	 0
$LN2@LZCNT_ALT_:

; 457  : #ifdef _M_IX86
; 458  :             DWORD pos;
; 459  : #ifdef _MSC_VER
; 460  :             _BitScanReverse(&pos, x);

  00011	0f bd c8	 bsr	 ecx, eax

; 461  : #elif defined(__GNUC__)
; 462  :             __asm__("bsrl %1, %0" : "=r"(pos) : "rm"(x));
; 463  : #else
; 464  : #error unknown compiler
; 465  : #endif
; 466  : #elif defined(_M_X64)
; 467  : #ifdef _MSC_VER
; 468  :             DWORD pos;
; 469  :             _BitScanReverse64(&pos, x);
; 470  : #elif defined(__GNUC__)
; 471  :             _UINT64_T pos;
; 472  :             __asm__("bsrq %1, %0" : "=r"(pos) : "rm"(x));
; 473  : #else
; 474  : #error unknown compiler
; 475  : #endif
; 476  : #else
; 477  : #error unknown platform
; 478  : #endif
; 479  :             return (sizeof(x) * 8 - 1 - pos);

  00014	b8 1f 00 00 00	 mov	 eax, 31			; 0000001fH
  00019	2b c1		 sub	 eax, ecx

; 480  :         }

  0001b	5d		 pop	 ebp
  0001c	c3		 ret	 0
__LZCNT_ALT_UNIT ENDP
_TEXT	ENDS
; Function compile flags: /Ogtp
; File z:\sources\lunor\repos\rougemeilland\palmtree.math.core.uint\palmtree.math.core.uint\pmc_inline_func.h
;	COMDAT __LZCNT_ALT_32
_TEXT	SEGMENT
_x$ = 8							; size = 4
__LZCNT_ALT_32 PROC					; COMDAT

; 421  :         {

  00000	55		 push	 ebp
  00001	8b ec		 mov	 ebp, esp

; 422  :             if (x == 0)

  00003	8b 45 08	 mov	 eax, DWORD PTR _x$[ebp]
  00006	85 c0		 test	 eax, eax
  00008	75 07		 jne	 SHORT $LN2@LZCNT_ALT_

; 423  :                 return (sizeof(x) * 8);

  0000a	b8 20 00 00 00	 mov	 eax, 32			; 00000020H

; 433  :         }

  0000f	5d		 pop	 ebp
  00010	c3		 ret	 0
$LN2@LZCNT_ALT_:

; 424  :             DWORD pos;
; 425  : #ifdef _MSC_VER
; 426  :             _BitScanReverse(&pos, x);

  00011	0f bd c8	 bsr	 ecx, eax

; 427  : #elif defined(__GNUC__)
; 428  :             __asm__("bsrl %1, %0" : "=r"(pos) : "rm"(x));
; 429  : #else
; 430  : #error unknown compiler
; 431  : #endif
; 432  :             return (sizeof(x) * 8 - 1 - pos);

  00014	b8 1f 00 00 00	 mov	 eax, 31			; 0000001fH
  00019	2b c1		 sub	 eax, ecx

; 433  :         }

  0001b	5d		 pop	 ebp
  0001c	c3		 ret	 0
__LZCNT_ALT_32 ENDP
_TEXT	ENDS
; Function compile flags: /Ogtp
; File z:\sources\lunor\repos\rougemeilland\palmtree.math.core.uint\palmtree.math.core.uint\pmc_inline_func.h
;	COMDAT __MINIMUM_UNIT
_TEXT	SEGMENT
_x$ = 8							; size = 4
_y$ = 12						; size = 4
__MINIMUM_UNIT PROC					; COMDAT

; 171  :         {

  00000	55		 push	 ebp
  00001	8b ec		 mov	 ebp, esp

; 172  :             return (x <= y ? x : y);

  00003	8b 45 0c	 mov	 eax, DWORD PTR _y$[ebp]
  00006	39 45 08	 cmp	 DWORD PTR _x$[ebp], eax
  00009	0f 46 45 08	 cmovbe	 eax, DWORD PTR _x$[ebp]

; 173  :         }

  0000d	5d		 pop	 ebp
  0000e	c3		 ret	 0
__MINIMUM_UNIT ENDP
_TEXT	ENDS
; Function compile flags: /Ogtp
; File z:\sources\lunor\repos\rougemeilland\palmtree.math.core.uint\palmtree.math.core.uint\pmc_inline_func.h
;	COMDAT __MAXIMUM_UNIT
_TEXT	SEGMENT
_x$ = 8							; size = 4
_y$ = 12						; size = 4
__MAXIMUM_UNIT PROC					; COMDAT

; 166  :         {

  00000	55		 push	 ebp
  00001	8b ec		 mov	 ebp, esp

; 167  :             return (x >= y ? x : y);

  00003	8b 45 0c	 mov	 eax, DWORD PTR _y$[ebp]
  00006	39 45 08	 cmp	 DWORD PTR _x$[ebp], eax
  00009	0f 43 45 08	 cmovae	 eax, DWORD PTR _x$[ebp]

; 168  :         }

  0000d	5d		 pop	 ebp
  0000e	c3		 ret	 0
__MAXIMUM_UNIT ENDP
_TEXT	ENDS
; Function compile flags: /Ogtp
; File z:\sources\lunor\repos\rougemeilland\palmtree.math.core.uint\palmtree.math.core.uint\pmc_inline_func.h
;	COMDAT __DIVIDE_CEILING_UNIT
_TEXT	SEGMENT
_u$ = 8							; size = 4
_v$ = 12						; size = 4
__DIVIDE_CEILING_UNIT PROC				; COMDAT

; 156  :         {

  00000	55		 push	 ebp
  00001	8b ec		 mov	 ebp, esp

; 157  :             return ((u + v - 1) / v);

  00003	8b 45 08	 mov	 eax, DWORD PTR _u$[ebp]
  00006	33 d2		 xor	 edx, edx
  00008	48		 dec	 eax
  00009	03 45 0c	 add	 eax, DWORD PTR _v$[ebp]
  0000c	f7 75 0c	 div	 DWORD PTR _v$[ebp]

; 158  :         }

  0000f	5d		 pop	 ebp
  00010	c3		 ret	 0
__DIVIDE_CEILING_UNIT ENDP
_TEXT	ENDS
; Function compile flags: /Ogtp
; File z:\sources\lunor\repos\rougemeilland\palmtree.math.core.uint\palmtree.math.core.uint\pmc_inline_func.h
;	COMDAT __FROMDWORDTOWORD
_TEXT	SEGMENT
_value$ = 8						; size = 8
_result_high$ = 16					; size = 4
__FROMDWORDTOWORD PROC					; COMDAT

; 145  :         {

  00000	55		 push	 ebp
  00001	8b ec		 mov	 ebp, esp

; 146  :             *result_high = (_UINT32_T)(value >> 32);

  00003	8b 45 10	 mov	 eax, DWORD PTR _result_high$[ebp]
  00006	8b 4d 0c	 mov	 ecx, DWORD PTR _value$[ebp+4]
  00009	89 08		 mov	 DWORD PTR [eax], ecx

; 147  :             return ((_UINT32_T)value);

  0000b	8b 45 08	 mov	 eax, DWORD PTR _value$[ebp]

; 148  :         }

  0000e	5d		 pop	 ebp
  0000f	c3		 ret	 0
__FROMDWORDTOWORD ENDP
_TEXT	ENDS
; Function compile flags: /Ogtp
; File z:\sources\lunor\repos\rougemeilland\palmtree.math.core.uint\palmtree.math.core.uint\pmc_inline_func.h
;	COMDAT __COPY_MEMORY_UNIT
_TEXT	SEGMENT
_d$ = 8							; size = 4
_s$ = 12						; size = 4
_count$ = 16						; size = 4
__COPY_MEMORY_UNIT PROC					; COMDAT

; 63   :         {

  00000	55		 push	 ebp
  00001	8b ec		 mov	 ebp, esp

; 64   : #ifdef _M_IX86
; 65   :             __movsd((unsigned long *)d, (unsigned long *)s, (unsigned long)count);

  00003	8b 4d 10	 mov	 ecx, DWORD PTR _count$[ebp]
  00006	56		 push	 esi
  00007	8b 75 0c	 mov	 esi, DWORD PTR _s$[ebp]
  0000a	57		 push	 edi
  0000b	8b 7d 08	 mov	 edi, DWORD PTR _d$[ebp]
  0000e	f3 a5		 rep movsd
  00010	5f		 pop	 edi
  00011	5e		 pop	 esi

; 66   : #elif defined(_M_X64)
; 67   :             __movsq(d, s, count);
; 68   : #else
; 69   : #error unknown platform
; 70   : #endif
; 71   :         }

  00012	5d		 pop	 ebp
  00013	c3		 ret	 0
__COPY_MEMORY_UNIT ENDP
_TEXT	ENDS
; Function compile flags: /Ogtp
; File z:\sources\lunor\repos\rougemeilland\palmtree.math.core.uint\palmtree.math.core.uint\pmc_greatestcommondivisor.cpp
;	COMDAT ?PMC_GreatestCommonDivisor_X_X@Internal@Core@Math@Palmtree@@YGPAU__tag_PMC_HANDLE_UINT@1234@PAU51234@0@Z
_TEXT	SEGMENT
$T2 = -52						; size = 24
_root$ = -28						; size = 16
__$EHRec$ = -12						; size = 12
_u$ = 8							; size = 4
_v$ = 12						; size = 4
?PMC_GreatestCommonDivisor_X_X@Internal@Core@Math@Palmtree@@YGPAU__tag_PMC_HANDLE_UINT@1234@PAU51234@0@Z PROC ; Palmtree::Math::Core::Internal::PMC_GreatestCommonDivisor_X_X, COMDAT

; 563  :     {

  00000	55		 push	 ebp
  00001	8b ec		 mov	 ebp, esp
  00003	6a ff		 push	 -1
  00005	68 00 00 00 00	 push	 __ehhandler$?PMC_GreatestCommonDivisor_X_X@Internal@Core@Math@Palmtree@@YGPAU__tag_PMC_HANDLE_UINT@1234@PAU51234@0@Z
  0000a	64 a1 00 00 00
	00		 mov	 eax, DWORD PTR fs:0
  00010	50		 push	 eax
  00011	83 ec 28	 sub	 esp, 40			; 00000028H
  00014	56		 push	 esi
  00015	57		 push	 edi
  00016	a1 00 00 00 00	 mov	 eax, DWORD PTR ___security_cookie
  0001b	33 c5		 xor	 eax, ebp
  0001d	50		 push	 eax
  0001e	8d 45 f4	 lea	 eax, DWORD PTR __$EHRec$[ebp]
  00021	64 a3 00 00 00
	00		 mov	 DWORD PTR fs:0, eax

; 564  :         if (u == nullptr)

  00027	8b 75 08	 mov	 esi, DWORD PTR _u$[ebp]
  0002a	85 f6		 test	 esi, esi
  0002c	74 6e		 je	 SHORT $LN10@PMC_Greate

; 566  :         if (v == nullptr)

  0002e	8b 7d 0c	 mov	 edi, DWORD PTR _v$[ebp]
  00031	85 ff		 test	 edi, edi
  00033	75 07		 jne	 SHORT $LN3@PMC_Greate

; 567  :             throw ArgumentNullException(L"引数にnullptrが与えられています。", L"v");

  00035	68 00 00 00 00	 push	 OFFSET ??_C@_13JAOPNPKD@?$AAv@
  0003a	eb 65		 jmp	 SHORT $LN8@PMC_Greate
$LN3@PMC_Greate:

; 568  :         NUMBER_HEADER* nu = (NUMBER_HEADER*)u;
; 569  :         NUMBER_HEADER* nv = (NUMBER_HEADER*)v;
; 570  :         CheckNumber(nu);

  0003c	56		 push	 esi
  0003d	e8 00 00 00 00	 call	 ?CheckNumber@Internal@Core@Math@Palmtree@@YAXPAU__tag_NUMBER_HEADER@1234@@Z ; Palmtree::Math::Core::Internal::CheckNumber

; 571  :         CheckNumber(nv);

  00042	57		 push	 edi
  00043	e8 00 00 00 00	 call	 ?CheckNumber@Internal@Core@Math@Palmtree@@YAXPAU__tag_NUMBER_HEADER@1234@@Z ; Palmtree::Math::Core::Internal::CheckNumber
  00048	83 c4 08	 add	 esp, 8

; 572  :         ResourceHolderUINT root;

  0004b	8d 4d e4	 lea	 ecx, DWORD PTR _root$[ebp]
  0004e	e8 00 00 00 00	 call	 ??0ResourceHolderUINT@Internal@Core@Math@Palmtree@@QAE@XZ ; Palmtree::Math::Core::Internal::ResourceHolderUINT::ResourceHolderUINT
  00053	c7 45 fc 00 00
	00 00		 mov	 DWORD PTR __$EHRec$[ebp+8], 0

; 573  :         NUMBER_HEADER* w = PMC_GreatestCommonDivisor_X_X_Imp(nu, nv);

  0005a	57		 push	 edi
  0005b	56		 push	 esi
  0005c	e8 00 00 00 00	 call	 ?PMC_GreatestCommonDivisor_X_X_Imp@Internal@Core@Math@Palmtree@@YAPAU__tag_NUMBER_HEADER@1234@PAU51234@0@Z ; Palmtree::Math::Core::Internal::PMC_GreatestCommonDivisor_X_X_Imp
  00061	83 c4 08	 add	 esp, 8

; 574  :         root.HookNumber(w);

  00064	8d 4d e4	 lea	 ecx, DWORD PTR _root$[ebp]
  00067	8b f0		 mov	 esi, eax
  00069	56		 push	 esi
  0006a	e8 00 00 00 00	 call	 ?HookNumber@ResourceHolderUINT@Internal@Core@Math@Palmtree@@QAEXPAU__tag_NUMBER_HEADER@2345@@Z ; Palmtree::Math::Core::Internal::ResourceHolderUINT::HookNumber

; 575  : #ifdef _DEBUG
; 576  :         CheckNumber(w);
; 577  : #endif
; 578  :         root.UnlinkNumber(w);

  0006f	56		 push	 esi
  00070	8d 4d e4	 lea	 ecx, DWORD PTR _root$[ebp]
  00073	e8 00 00 00 00	 call	 ?UnlinkNumber@ResourceHolderUINT@Internal@Core@Math@Palmtree@@QAEXPAU__tag_NUMBER_HEADER@2345@@Z ; Palmtree::Math::Core::Internal::ResourceHolderUINT::UnlinkNumber

; 579  :         return ((PMC_HANDLE_UINT)w);

  00078	c7 45 fc ff ff
	ff ff		 mov	 DWORD PTR __$EHRec$[ebp+8], -1
  0007f	8d 4d e4	 lea	 ecx, DWORD PTR _root$[ebp]
  00082	e8 00 00 00 00	 call	 ??1ResourceHolderUINT@Internal@Core@Math@Palmtree@@UAE@XZ ; Palmtree::Math::Core::Internal::ResourceHolderUINT::~ResourceHolderUINT
  00087	8b c6		 mov	 eax, esi

; 580  :     }

  00089	8b 4d f4	 mov	 ecx, DWORD PTR __$EHRec$[ebp]
  0008c	64 89 0d 00 00
	00 00		 mov	 DWORD PTR fs:0, ecx
  00093	59		 pop	 ecx
  00094	5f		 pop	 edi
  00095	5e		 pop	 esi
  00096	8b e5		 mov	 esp, ebp
  00098	5d		 pop	 ebp
  00099	c2 08 00	 ret	 8
$LN10@PMC_Greate:

; 565  :             throw ArgumentNullException(L"引数にnullptrが与えられています。", L"u");

  0009c	68 00 00 00 00	 push	 OFFSET ??_C@_13ICFKHAEN@?$AAu@
$LN8@PMC_Greate:

; 580  :     }

  000a1	68 00 00 00 00	 push	 OFFSET ??_C@_1CK@ECFIEPAC@?$AA?$BF?$AAp?$AAk?$AAn?$AAu?$AAl?$AAl?$AAp?$AAt?$AAr?$AAL?$AA?$AO?$AAH?$PP?$IJ?$PP?$IM@
  000a6	8d 4d cc	 lea	 ecx, DWORD PTR $T2[ebp]
  000a9	e8 00 00 00 00	 call	 ??0ArgumentNullException@Internal@Core@Math@Palmtree@@QAE@PB_W0@Z ; Palmtree::Math::Core::Internal::ArgumentNullException::ArgumentNullException
  000ae	68 00 00 00 00	 push	 OFFSET __TI2?AVArgumentNullException@Internal@Core@Math@Palmtree@@
  000b3	8d 45 cc	 lea	 eax, DWORD PTR $T2[ebp]
  000b6	50		 push	 eax
  000b7	e8 00 00 00 00	 call	 __CxxThrowException@8
$LN7@PMC_Greate:
  000bc	cc		 int	 3
_TEXT	ENDS
;	COMDAT text$x
text$x	SEGMENT
__unwindfunclet$?PMC_GreatestCommonDivisor_X_X@Internal@Core@Math@Palmtree@@YGPAU__tag_PMC_HANDLE_UINT@1234@PAU51234@0@Z$0:
  00000	8d 4d e4	 lea	 ecx, DWORD PTR _root$[ebp]
  00003	e9 00 00 00 00	 jmp	 ??1ResourceHolderUINT@Internal@Core@Math@Palmtree@@UAE@XZ ; Palmtree::Math::Core::Internal::ResourceHolderUINT::~ResourceHolderUINT
__ehhandler$?PMC_GreatestCommonDivisor_X_X@Internal@Core@Math@Palmtree@@YGPAU__tag_PMC_HANDLE_UINT@1234@PAU51234@0@Z:
  00008	8b 54 24 08	 mov	 edx, DWORD PTR [esp+8]
  0000c	8d 42 0c	 lea	 eax, DWORD PTR [edx+12]
  0000f	8b 4a cc	 mov	 ecx, DWORD PTR [edx-52]
  00012	33 c8		 xor	 ecx, eax
  00014	e8 00 00 00 00	 call	 @__security_check_cookie@4
  00019	b8 00 00 00 00	 mov	 eax, OFFSET __ehfuncinfo$?PMC_GreatestCommonDivisor_X_X@Internal@Core@Math@Palmtree@@YGPAU__tag_PMC_HANDLE_UINT@1234@PAU51234@0@Z
  0001e	e9 00 00 00 00	 jmp	 ___CxxFrameHandler3
text$x	ENDS
?PMC_GreatestCommonDivisor_X_X@Internal@Core@Math@Palmtree@@YGPAU__tag_PMC_HANDLE_UINT@1234@PAU51234@0@Z ENDP ; Palmtree::Math::Core::Internal::PMC_GreatestCommonDivisor_X_X
; Function compile flags: /Ogtp
; File z:\sources\lunor\repos\rougemeilland\palmtree.math.core.uint\palmtree.math.core.uint\pmc_greatestcommondivisor.cpp
;	COMDAT ?PMC_GreatestCommonDivisor_X_L@Internal@Core@Math@Palmtree@@YGPAU__tag_PMC_HANDLE_UINT@1234@PAU51234@_K@Z
_TEXT	SEGMENT
$T2 = -52						; size = 24
_root$ = -28						; size = 16
__$EHRec$ = -12						; size = 12
_u$ = 8							; size = 4
_v$ = 12						; size = 8
?PMC_GreatestCommonDivisor_X_L@Internal@Core@Math@Palmtree@@YGPAU__tag_PMC_HANDLE_UINT@1234@PAU51234@_K@Z PROC ; Palmtree::Math::Core::Internal::PMC_GreatestCommonDivisor_X_L, COMDAT

; 543  :     {

  00000	55		 push	 ebp
  00001	8b ec		 mov	 ebp, esp
  00003	6a ff		 push	 -1
  00005	68 00 00 00 00	 push	 __ehhandler$?PMC_GreatestCommonDivisor_X_L@Internal@Core@Math@Palmtree@@YGPAU__tag_PMC_HANDLE_UINT@1234@PAU51234@_K@Z
  0000a	64 a1 00 00 00
	00		 mov	 eax, DWORD PTR fs:0
  00010	50		 push	 eax
  00011	83 ec 28	 sub	 esp, 40			; 00000028H
  00014	56		 push	 esi
  00015	a1 00 00 00 00	 mov	 eax, DWORD PTR ___security_cookie
  0001a	33 c5		 xor	 eax, ebp
  0001c	50		 push	 eax
  0001d	8d 45 f4	 lea	 eax, DWORD PTR __$EHRec$[ebp]
  00020	64 a3 00 00 00
	00		 mov	 DWORD PTR fs:0, eax

; 544  :         if (__UNIT_TYPE_BIT_COUNT * 2 < sizeof(v) * 8)
; 545  :         {
; 546  :             // _UINT64_T が 2 ワードで表現しきれない処理系には対応しない
; 547  :             throw InternalErrorException(L"予期していないコードに到達しました。", L"pmc_greatestcommondivisor.cpp;PMC_GreatestCommonDivisor_X_L;1");
; 548  :         }
; 549  :         if (u == nullptr)

  00026	8b 75 08	 mov	 esi, DWORD PTR _u$[ebp]
  00029	85 f6		 test	 esi, esi
  0002b	74 5e		 je	 SHORT $LN9@PMC_Greate

; 551  :         CheckNumber((NUMBER_HEADER*)u);

  0002d	56		 push	 esi
  0002e	e8 00 00 00 00	 call	 ?CheckNumber@Internal@Core@Math@Palmtree@@YAXPAU__tag_NUMBER_HEADER@1234@@Z ; Palmtree::Math::Core::Internal::CheckNumber
  00033	83 c4 04	 add	 esp, 4

; 552  :         ResourceHolderUINT root;

  00036	8d 4d e4	 lea	 ecx, DWORD PTR _root$[ebp]
  00039	e8 00 00 00 00	 call	 ??0ResourceHolderUINT@Internal@Core@Math@Palmtree@@QAE@XZ ; Palmtree::Math::Core::Internal::ResourceHolderUINT::ResourceHolderUINT
  0003e	c7 45 fc 00 00
	00 00		 mov	 DWORD PTR __$EHRec$[ebp+8], 0

; 553  :         NUMBER_HEADER* w = PMC_GreatestCommonDivisor_X_L_Imp((NUMBER_HEADER*)u, v);

  00045	ff 75 10	 push	 DWORD PTR _v$[ebp+4]
  00048	ff 75 0c	 push	 DWORD PTR _v$[ebp]
  0004b	56		 push	 esi
  0004c	e8 00 00 00 00	 call	 ?PMC_GreatestCommonDivisor_X_L_Imp@Internal@Core@Math@Palmtree@@YAPAU__tag_NUMBER_HEADER@1234@PAU51234@_K@Z ; Palmtree::Math::Core::Internal::PMC_GreatestCommonDivisor_X_L_Imp
  00051	83 c4 0c	 add	 esp, 12			; 0000000cH

; 554  :         root.HookNumber(w);

  00054	8d 4d e4	 lea	 ecx, DWORD PTR _root$[ebp]
  00057	8b f0		 mov	 esi, eax
  00059	56		 push	 esi
  0005a	e8 00 00 00 00	 call	 ?HookNumber@ResourceHolderUINT@Internal@Core@Math@Palmtree@@QAEXPAU__tag_NUMBER_HEADER@2345@@Z ; Palmtree::Math::Core::Internal::ResourceHolderUINT::HookNumber

; 555  : #ifdef _DEBUG
; 556  :         CheckNumber(w);
; 557  : #endif
; 558  :         root.UnlinkNumber(w);

  0005f	56		 push	 esi
  00060	8d 4d e4	 lea	 ecx, DWORD PTR _root$[ebp]
  00063	e8 00 00 00 00	 call	 ?UnlinkNumber@ResourceHolderUINT@Internal@Core@Math@Palmtree@@QAEXPAU__tag_NUMBER_HEADER@2345@@Z ; Palmtree::Math::Core::Internal::ResourceHolderUINT::UnlinkNumber

; 559  :         return ((PMC_HANDLE_UINT)w);

  00068	c7 45 fc ff ff
	ff ff		 mov	 DWORD PTR __$EHRec$[ebp+8], -1
  0006f	8d 4d e4	 lea	 ecx, DWORD PTR _root$[ebp]
  00072	e8 00 00 00 00	 call	 ??1ResourceHolderUINT@Internal@Core@Math@Palmtree@@UAE@XZ ; Palmtree::Math::Core::Internal::ResourceHolderUINT::~ResourceHolderUINT
  00077	8b c6		 mov	 eax, esi

; 560  :     }

  00079	8b 4d f4	 mov	 ecx, DWORD PTR __$EHRec$[ebp]
  0007c	64 89 0d 00 00
	00 00		 mov	 DWORD PTR fs:0, ecx
  00083	59		 pop	 ecx
  00084	5e		 pop	 esi
  00085	8b e5		 mov	 esp, ebp
  00087	5d		 pop	 ebp
  00088	c2 0c 00	 ret	 12			; 0000000cH
$LN9@PMC_Greate:

; 550  :             throw ArgumentNullException(L"引数にnullptrが与えられています。", L"u");

  0008b	68 00 00 00 00	 push	 OFFSET ??_C@_13ICFKHAEN@?$AAu@
  00090	68 00 00 00 00	 push	 OFFSET ??_C@_1CK@ECFIEPAC@?$AA?$BF?$AAp?$AAk?$AAn?$AAu?$AAl?$AAl?$AAp?$AAt?$AAr?$AAL?$AA?$AO?$AAH?$PP?$IJ?$PP?$IM@
  00095	8d 4d cc	 lea	 ecx, DWORD PTR $T2[ebp]
  00098	e8 00 00 00 00	 call	 ??0ArgumentNullException@Internal@Core@Math@Palmtree@@QAE@PB_W0@Z ; Palmtree::Math::Core::Internal::ArgumentNullException::ArgumentNullException
  0009d	68 00 00 00 00	 push	 OFFSET __TI2?AVArgumentNullException@Internal@Core@Math@Palmtree@@
  000a2	8d 45 cc	 lea	 eax, DWORD PTR $T2[ebp]
  000a5	50		 push	 eax
  000a6	e8 00 00 00 00	 call	 __CxxThrowException@8
$LN7@PMC_Greate:
  000ab	cc		 int	 3
_TEXT	ENDS
;	COMDAT text$x
text$x	SEGMENT
__unwindfunclet$?PMC_GreatestCommonDivisor_X_L@Internal@Core@Math@Palmtree@@YGPAU__tag_PMC_HANDLE_UINT@1234@PAU51234@_K@Z$0:
  00000	8d 4d e4	 lea	 ecx, DWORD PTR _root$[ebp]
  00003	e9 00 00 00 00	 jmp	 ??1ResourceHolderUINT@Internal@Core@Math@Palmtree@@UAE@XZ ; Palmtree::Math::Core::Internal::ResourceHolderUINT::~ResourceHolderUINT
__ehhandler$?PMC_GreatestCommonDivisor_X_L@Internal@Core@Math@Palmtree@@YGPAU__tag_PMC_HANDLE_UINT@1234@PAU51234@_K@Z:
  00008	8b 54 24 08	 mov	 edx, DWORD PTR [esp+8]
  0000c	8d 42 0c	 lea	 eax, DWORD PTR [edx+12]
  0000f	8b 4a d0	 mov	 ecx, DWORD PTR [edx-48]
  00012	33 c8		 xor	 ecx, eax
  00014	e8 00 00 00 00	 call	 @__security_check_cookie@4
  00019	b8 00 00 00 00	 mov	 eax, OFFSET __ehfuncinfo$?PMC_GreatestCommonDivisor_X_L@Internal@Core@Math@Palmtree@@YGPAU__tag_PMC_HANDLE_UINT@1234@PAU51234@_K@Z
  0001e	e9 00 00 00 00	 jmp	 ___CxxFrameHandler3
text$x	ENDS
?PMC_GreatestCommonDivisor_X_L@Internal@Core@Math@Palmtree@@YGPAU__tag_PMC_HANDLE_UINT@1234@PAU51234@_K@Z ENDP ; Palmtree::Math::Core::Internal::PMC_GreatestCommonDivisor_X_L
; Function compile flags: /Ogtp
; File z:\sources\lunor\repos\rougemeilland\palmtree.math.core.uint\palmtree.math.core.uint\pmc_greatestcommondivisor.cpp
;	COMDAT ?PMC_GreatestCommonDivisor_X_I@Internal@Core@Math@Palmtree@@YGPAU__tag_PMC_HANDLE_UINT@1234@PAU51234@I@Z
_TEXT	SEGMENT
$T2 = -52						; size = 24
_root$ = -28						; size = 16
__$EHRec$ = -12						; size = 12
_u$ = 8							; size = 4
_v$ = 12						; size = 4
?PMC_GreatestCommonDivisor_X_I@Internal@Core@Math@Palmtree@@YGPAU__tag_PMC_HANDLE_UINT@1234@PAU51234@I@Z PROC ; Palmtree::Math::Core::Internal::PMC_GreatestCommonDivisor_X_I, COMDAT

; 503  :     {

  00000	55		 push	 ebp
  00001	8b ec		 mov	 ebp, esp
  00003	6a ff		 push	 -1
  00005	68 00 00 00 00	 push	 __ehhandler$?PMC_GreatestCommonDivisor_X_I@Internal@Core@Math@Palmtree@@YGPAU__tag_PMC_HANDLE_UINT@1234@PAU51234@I@Z
  0000a	64 a1 00 00 00
	00		 mov	 eax, DWORD PTR fs:0
  00010	50		 push	 eax
  00011	83 ec 28	 sub	 esp, 40			; 00000028H
  00014	56		 push	 esi
  00015	a1 00 00 00 00	 mov	 eax, DWORD PTR ___security_cookie
  0001a	33 c5		 xor	 eax, ebp
  0001c	50		 push	 eax
  0001d	8d 45 f4	 lea	 eax, DWORD PTR __$EHRec$[ebp]
  00020	64 a3 00 00 00
	00		 mov	 DWORD PTR fs:0, eax

; 504  :         if (__UNIT_TYPE_BIT_COUNT < sizeof(v) * 8)
; 505  :         {
; 506  :             // _UINT32_T が 1 ワードで表現しきれない処理系には対応しない
; 507  :             throw InternalErrorException(L"予期していないコードに到達しました。", L"pmc_greatestcommondivisor.cpp;PMC_GreatestCommonDivisor_X_I;1");
; 508  :         }
; 509  :         if (u == nullptr)

  00026	8b 75 08	 mov	 esi, DWORD PTR _u$[ebp]
  00029	85 f6		 test	 esi, esi
  0002b	74 5b		 je	 SHORT $LN9@PMC_Greate

; 511  :         CheckNumber((NUMBER_HEADER*)u);

  0002d	56		 push	 esi
  0002e	e8 00 00 00 00	 call	 ?CheckNumber@Internal@Core@Math@Palmtree@@YAXPAU__tag_NUMBER_HEADER@1234@@Z ; Palmtree::Math::Core::Internal::CheckNumber
  00033	83 c4 04	 add	 esp, 4

; 512  :         ResourceHolderUINT root;

  00036	8d 4d e4	 lea	 ecx, DWORD PTR _root$[ebp]
  00039	e8 00 00 00 00	 call	 ??0ResourceHolderUINT@Internal@Core@Math@Palmtree@@QAE@XZ ; Palmtree::Math::Core::Internal::ResourceHolderUINT::ResourceHolderUINT
  0003e	c7 45 fc 00 00
	00 00		 mov	 DWORD PTR __$EHRec$[ebp+8], 0

; 513  :         NUMBER_HEADER* w = PMC_GreatestCommonDivisor_X_I_Imp((NUMBER_HEADER*)u, v);

  00045	ff 75 0c	 push	 DWORD PTR _v$[ebp]
  00048	56		 push	 esi
  00049	e8 00 00 00 00	 call	 ?PMC_GreatestCommonDivisor_X_I_Imp@Internal@Core@Math@Palmtree@@YAPAU__tag_NUMBER_HEADER@1234@PAU51234@I@Z ; Palmtree::Math::Core::Internal::PMC_GreatestCommonDivisor_X_I_Imp
  0004e	83 c4 08	 add	 esp, 8

; 514  :         root.HookNumber(w);

  00051	8d 4d e4	 lea	 ecx, DWORD PTR _root$[ebp]
  00054	8b f0		 mov	 esi, eax
  00056	56		 push	 esi
  00057	e8 00 00 00 00	 call	 ?HookNumber@ResourceHolderUINT@Internal@Core@Math@Palmtree@@QAEXPAU__tag_NUMBER_HEADER@2345@@Z ; Palmtree::Math::Core::Internal::ResourceHolderUINT::HookNumber

; 515  : #ifdef _DEBUG
; 516  :         CheckNumber(w);
; 517  : #endif
; 518  :         root.UnlinkNumber(w);

  0005c	56		 push	 esi
  0005d	8d 4d e4	 lea	 ecx, DWORD PTR _root$[ebp]
  00060	e8 00 00 00 00	 call	 ?UnlinkNumber@ResourceHolderUINT@Internal@Core@Math@Palmtree@@QAEXPAU__tag_NUMBER_HEADER@2345@@Z ; Palmtree::Math::Core::Internal::ResourceHolderUINT::UnlinkNumber

; 519  :         return ((PMC_HANDLE_UINT)w);

  00065	c7 45 fc ff ff
	ff ff		 mov	 DWORD PTR __$EHRec$[ebp+8], -1
  0006c	8d 4d e4	 lea	 ecx, DWORD PTR _root$[ebp]
  0006f	e8 00 00 00 00	 call	 ??1ResourceHolderUINT@Internal@Core@Math@Palmtree@@UAE@XZ ; Palmtree::Math::Core::Internal::ResourceHolderUINT::~ResourceHolderUINT
  00074	8b c6		 mov	 eax, esi

; 520  :     }

  00076	8b 4d f4	 mov	 ecx, DWORD PTR __$EHRec$[ebp]
  00079	64 89 0d 00 00
	00 00		 mov	 DWORD PTR fs:0, ecx
  00080	59		 pop	 ecx
  00081	5e		 pop	 esi
  00082	8b e5		 mov	 esp, ebp
  00084	5d		 pop	 ebp
  00085	c2 08 00	 ret	 8
$LN9@PMC_Greate:

; 510  :             throw ArgumentNullException(L"引数にnullptrが与えられています。", L"u");

  00088	68 00 00 00 00	 push	 OFFSET ??_C@_13ICFKHAEN@?$AAu@
  0008d	68 00 00 00 00	 push	 OFFSET ??_C@_1CK@ECFIEPAC@?$AA?$BF?$AAp?$AAk?$AAn?$AAu?$AAl?$AAl?$AAp?$AAt?$AAr?$AAL?$AA?$AO?$AAH?$PP?$IJ?$PP?$IM@
  00092	8d 4d cc	 lea	 ecx, DWORD PTR $T2[ebp]
  00095	e8 00 00 00 00	 call	 ??0ArgumentNullException@Internal@Core@Math@Palmtree@@QAE@PB_W0@Z ; Palmtree::Math::Core::Internal::ArgumentNullException::ArgumentNullException
  0009a	68 00 00 00 00	 push	 OFFSET __TI2?AVArgumentNullException@Internal@Core@Math@Palmtree@@
  0009f	8d 45 cc	 lea	 eax, DWORD PTR $T2[ebp]
  000a2	50		 push	 eax
  000a3	e8 00 00 00 00	 call	 __CxxThrowException@8
$LN7@PMC_Greate:
  000a8	cc		 int	 3
_TEXT	ENDS
;	COMDAT text$x
text$x	SEGMENT
__unwindfunclet$?PMC_GreatestCommonDivisor_X_I@Internal@Core@Math@Palmtree@@YGPAU__tag_PMC_HANDLE_UINT@1234@PAU51234@I@Z$0:
  00000	8d 4d e4	 lea	 ecx, DWORD PTR _root$[ebp]
  00003	e9 00 00 00 00	 jmp	 ??1ResourceHolderUINT@Internal@Core@Math@Palmtree@@UAE@XZ ; Palmtree::Math::Core::Internal::ResourceHolderUINT::~ResourceHolderUINT
__ehhandler$?PMC_GreatestCommonDivisor_X_I@Internal@Core@Math@Palmtree@@YGPAU__tag_PMC_HANDLE_UINT@1234@PAU51234@I@Z:
  00008	8b 54 24 08	 mov	 edx, DWORD PTR [esp+8]
  0000c	8d 42 0c	 lea	 eax, DWORD PTR [edx+12]
  0000f	8b 4a d0	 mov	 ecx, DWORD PTR [edx-48]
  00012	33 c8		 xor	 ecx, eax
  00014	e8 00 00 00 00	 call	 @__security_check_cookie@4
  00019	b8 00 00 00 00	 mov	 eax, OFFSET __ehfuncinfo$?PMC_GreatestCommonDivisor_X_I@Internal@Core@Math@Palmtree@@YGPAU__tag_PMC_HANDLE_UINT@1234@PAU51234@I@Z
  0001e	e9 00 00 00 00	 jmp	 ___CxxFrameHandler3
text$x	ENDS
?PMC_GreatestCommonDivisor_X_I@Internal@Core@Math@Palmtree@@YGPAU__tag_PMC_HANDLE_UINT@1234@PAU51234@I@Z ENDP ; Palmtree::Math::Core::Internal::PMC_GreatestCommonDivisor_X_I
; Function compile flags: /Ogtp
; File z:\sources\lunor\repos\rougemeilland\palmtree.math.core.uint\palmtree.math.core.uint\pmc_greatestcommondivisor.cpp
;	COMDAT ?PMC_GreatestCommonDivisor_L_X@Internal@Core@Math@Palmtree@@YGPAU__tag_PMC_HANDLE_UINT@1234@_KPAU51234@@Z
_TEXT	SEGMENT
$T2 = -52						; size = 24
_root$ = -28						; size = 16
__$EHRec$ = -12						; size = 12
_u$ = 8							; size = 8
_v$ = 16						; size = 4
?PMC_GreatestCommonDivisor_L_X@Internal@Core@Math@Palmtree@@YGPAU__tag_PMC_HANDLE_UINT@1234@_KPAU51234@@Z PROC ; Palmtree::Math::Core::Internal::PMC_GreatestCommonDivisor_L_X, COMDAT

; 523  :     {

  00000	55		 push	 ebp
  00001	8b ec		 mov	 ebp, esp
  00003	6a ff		 push	 -1
  00005	68 00 00 00 00	 push	 __ehhandler$?PMC_GreatestCommonDivisor_L_X@Internal@Core@Math@Palmtree@@YGPAU__tag_PMC_HANDLE_UINT@1234@_KPAU51234@@Z
  0000a	64 a1 00 00 00
	00		 mov	 eax, DWORD PTR fs:0
  00010	50		 push	 eax
  00011	83 ec 28	 sub	 esp, 40			; 00000028H
  00014	56		 push	 esi
  00015	a1 00 00 00 00	 mov	 eax, DWORD PTR ___security_cookie
  0001a	33 c5		 xor	 eax, ebp
  0001c	50		 push	 eax
  0001d	8d 45 f4	 lea	 eax, DWORD PTR __$EHRec$[ebp]
  00020	64 a3 00 00 00
	00		 mov	 DWORD PTR fs:0, eax

; 524  :         if (__UNIT_TYPE_BIT_COUNT * 2 < sizeof(u) * 8)
; 525  :         {
; 526  :             // _UINT64_T が 2 ワードで表現しきれない処理系には対応しない
; 527  :             throw InternalErrorException(L"予期していないコードに到達しました。", L"pmc_greatestcommondivisor.cpp;PMC_GreatestCommonDivisor_L_X;1");
; 528  :         }
; 529  :         if (v == nullptr)

  00026	8b 75 10	 mov	 esi, DWORD PTR _v$[ebp]
  00029	85 f6		 test	 esi, esi
  0002b	74 5e		 je	 SHORT $LN9@PMC_Greate

; 531  :         CheckNumber((NUMBER_HEADER*)v);

  0002d	56		 push	 esi
  0002e	e8 00 00 00 00	 call	 ?CheckNumber@Internal@Core@Math@Palmtree@@YAXPAU__tag_NUMBER_HEADER@1234@@Z ; Palmtree::Math::Core::Internal::CheckNumber
  00033	83 c4 04	 add	 esp, 4

; 532  :         ResourceHolderUINT root;

  00036	8d 4d e4	 lea	 ecx, DWORD PTR _root$[ebp]
  00039	e8 00 00 00 00	 call	 ??0ResourceHolderUINT@Internal@Core@Math@Palmtree@@QAE@XZ ; Palmtree::Math::Core::Internal::ResourceHolderUINT::ResourceHolderUINT
  0003e	c7 45 fc 00 00
	00 00		 mov	 DWORD PTR __$EHRec$[ebp+8], 0

; 533  :         NUMBER_HEADER* w = PMC_GreatestCommonDivisor_X_L_Imp((NUMBER_HEADER*)v, u);

  00045	ff 75 0c	 push	 DWORD PTR _u$[ebp+4]
  00048	ff 75 08	 push	 DWORD PTR _u$[ebp]
  0004b	56		 push	 esi
  0004c	e8 00 00 00 00	 call	 ?PMC_GreatestCommonDivisor_X_L_Imp@Internal@Core@Math@Palmtree@@YAPAU__tag_NUMBER_HEADER@1234@PAU51234@_K@Z ; Palmtree::Math::Core::Internal::PMC_GreatestCommonDivisor_X_L_Imp
  00051	83 c4 0c	 add	 esp, 12			; 0000000cH

; 534  :         root.HookNumber(w);

  00054	8d 4d e4	 lea	 ecx, DWORD PTR _root$[ebp]
  00057	8b f0		 mov	 esi, eax
  00059	56		 push	 esi
  0005a	e8 00 00 00 00	 call	 ?HookNumber@ResourceHolderUINT@Internal@Core@Math@Palmtree@@QAEXPAU__tag_NUMBER_HEADER@2345@@Z ; Palmtree::Math::Core::Internal::ResourceHolderUINT::HookNumber

; 535  : #ifdef _DEBUG
; 536  :         CheckNumber(w);
; 537  : #endif
; 538  :         root.UnlinkNumber(w);

  0005f	56		 push	 esi
  00060	8d 4d e4	 lea	 ecx, DWORD PTR _root$[ebp]
  00063	e8 00 00 00 00	 call	 ?UnlinkNumber@ResourceHolderUINT@Internal@Core@Math@Palmtree@@QAEXPAU__tag_NUMBER_HEADER@2345@@Z ; Palmtree::Math::Core::Internal::ResourceHolderUINT::UnlinkNumber

; 539  :         return ((PMC_HANDLE_UINT)w);

  00068	c7 45 fc ff ff
	ff ff		 mov	 DWORD PTR __$EHRec$[ebp+8], -1
  0006f	8d 4d e4	 lea	 ecx, DWORD PTR _root$[ebp]
  00072	e8 00 00 00 00	 call	 ??1ResourceHolderUINT@Internal@Core@Math@Palmtree@@UAE@XZ ; Palmtree::Math::Core::Internal::ResourceHolderUINT::~ResourceHolderUINT
  00077	8b c6		 mov	 eax, esi

; 540  :     }

  00079	8b 4d f4	 mov	 ecx, DWORD PTR __$EHRec$[ebp]
  0007c	64 89 0d 00 00
	00 00		 mov	 DWORD PTR fs:0, ecx
  00083	59		 pop	 ecx
  00084	5e		 pop	 esi
  00085	8b e5		 mov	 esp, ebp
  00087	5d		 pop	 ebp
  00088	c2 0c 00	 ret	 12			; 0000000cH
$LN9@PMC_Greate:

; 530  :             throw ArgumentNullException(L"引数にnullptrが与えられています。", L"v");

  0008b	68 00 00 00 00	 push	 OFFSET ??_C@_13JAOPNPKD@?$AAv@
  00090	68 00 00 00 00	 push	 OFFSET ??_C@_1CK@ECFIEPAC@?$AA?$BF?$AAp?$AAk?$AAn?$AAu?$AAl?$AAl?$AAp?$AAt?$AAr?$AAL?$AA?$AO?$AAH?$PP?$IJ?$PP?$IM@
  00095	8d 4d cc	 lea	 ecx, DWORD PTR $T2[ebp]
  00098	e8 00 00 00 00	 call	 ??0ArgumentNullException@Internal@Core@Math@Palmtree@@QAE@PB_W0@Z ; Palmtree::Math::Core::Internal::ArgumentNullException::ArgumentNullException
  0009d	68 00 00 00 00	 push	 OFFSET __TI2?AVArgumentNullException@Internal@Core@Math@Palmtree@@
  000a2	8d 45 cc	 lea	 eax, DWORD PTR $T2[ebp]
  000a5	50		 push	 eax
  000a6	e8 00 00 00 00	 call	 __CxxThrowException@8
$LN7@PMC_Greate:
  000ab	cc		 int	 3
_TEXT	ENDS
;	COMDAT text$x
text$x	SEGMENT
__unwindfunclet$?PMC_GreatestCommonDivisor_L_X@Internal@Core@Math@Palmtree@@YGPAU__tag_PMC_HANDLE_UINT@1234@_KPAU51234@@Z$0:
  00000	8d 4d e4	 lea	 ecx, DWORD PTR _root$[ebp]
  00003	e9 00 00 00 00	 jmp	 ??1ResourceHolderUINT@Internal@Core@Math@Palmtree@@UAE@XZ ; Palmtree::Math::Core::Internal::ResourceHolderUINT::~ResourceHolderUINT
__ehhandler$?PMC_GreatestCommonDivisor_L_X@Internal@Core@Math@Palmtree@@YGPAU__tag_PMC_HANDLE_UINT@1234@_KPAU51234@@Z:
  00008	8b 54 24 08	 mov	 edx, DWORD PTR [esp+8]
  0000c	8d 42 0c	 lea	 eax, DWORD PTR [edx+12]
  0000f	8b 4a d0	 mov	 ecx, DWORD PTR [edx-48]
  00012	33 c8		 xor	 ecx, eax
  00014	e8 00 00 00 00	 call	 @__security_check_cookie@4
  00019	b8 00 00 00 00	 mov	 eax, OFFSET __ehfuncinfo$?PMC_GreatestCommonDivisor_L_X@Internal@Core@Math@Palmtree@@YGPAU__tag_PMC_HANDLE_UINT@1234@_KPAU51234@@Z
  0001e	e9 00 00 00 00	 jmp	 ___CxxFrameHandler3
text$x	ENDS
?PMC_GreatestCommonDivisor_L_X@Internal@Core@Math@Palmtree@@YGPAU__tag_PMC_HANDLE_UINT@1234@_KPAU51234@@Z ENDP ; Palmtree::Math::Core::Internal::PMC_GreatestCommonDivisor_L_X
; Function compile flags: /Ogtp
; File z:\sources\lunor\repos\rougemeilland\palmtree.math.core.uint\palmtree.math.core.uint\pmc_greatestcommondivisor.cpp
;	COMDAT ?PMC_GreatestCommonDivisor_I_X@Internal@Core@Math@Palmtree@@YGPAU__tag_PMC_HANDLE_UINT@1234@IPAU51234@@Z
_TEXT	SEGMENT
$T2 = -52						; size = 24
_root$ = -28						; size = 16
__$EHRec$ = -12						; size = 12
_u$ = 8							; size = 4
_v$ = 12						; size = 4
?PMC_GreatestCommonDivisor_I_X@Internal@Core@Math@Palmtree@@YGPAU__tag_PMC_HANDLE_UINT@1234@IPAU51234@@Z PROC ; Palmtree::Math::Core::Internal::PMC_GreatestCommonDivisor_I_X, COMDAT

; 483  :     {

  00000	55		 push	 ebp
  00001	8b ec		 mov	 ebp, esp
  00003	6a ff		 push	 -1
  00005	68 00 00 00 00	 push	 __ehhandler$?PMC_GreatestCommonDivisor_I_X@Internal@Core@Math@Palmtree@@YGPAU__tag_PMC_HANDLE_UINT@1234@IPAU51234@@Z
  0000a	64 a1 00 00 00
	00		 mov	 eax, DWORD PTR fs:0
  00010	50		 push	 eax
  00011	83 ec 28	 sub	 esp, 40			; 00000028H
  00014	56		 push	 esi
  00015	a1 00 00 00 00	 mov	 eax, DWORD PTR ___security_cookie
  0001a	33 c5		 xor	 eax, ebp
  0001c	50		 push	 eax
  0001d	8d 45 f4	 lea	 eax, DWORD PTR __$EHRec$[ebp]
  00020	64 a3 00 00 00
	00		 mov	 DWORD PTR fs:0, eax

; 484  :         if (__UNIT_TYPE_BIT_COUNT < sizeof(u) * 8)
; 485  :         {
; 486  :             // _UINT32_T が 1 ワードで表現しきれない処理系には対応しない
; 487  :             throw InternalErrorException(L"予期していないコードに到達しました。", L"pmc_greatestcommondivisor.cpp;PMC_GreatestCommonDivisor_I_X;1");
; 488  :         }
; 489  :         if (v == nullptr)

  00026	8b 75 0c	 mov	 esi, DWORD PTR _v$[ebp]
  00029	85 f6		 test	 esi, esi
  0002b	74 5b		 je	 SHORT $LN9@PMC_Greate

; 491  :         CheckNumber((NUMBER_HEADER*)v);

  0002d	56		 push	 esi
  0002e	e8 00 00 00 00	 call	 ?CheckNumber@Internal@Core@Math@Palmtree@@YAXPAU__tag_NUMBER_HEADER@1234@@Z ; Palmtree::Math::Core::Internal::CheckNumber
  00033	83 c4 04	 add	 esp, 4

; 492  :         ResourceHolderUINT root;

  00036	8d 4d e4	 lea	 ecx, DWORD PTR _root$[ebp]
  00039	e8 00 00 00 00	 call	 ??0ResourceHolderUINT@Internal@Core@Math@Palmtree@@QAE@XZ ; Palmtree::Math::Core::Internal::ResourceHolderUINT::ResourceHolderUINT
  0003e	c7 45 fc 00 00
	00 00		 mov	 DWORD PTR __$EHRec$[ebp+8], 0

; 493  :         NUMBER_HEADER* w = PMC_GreatestCommonDivisor_X_I_Imp((NUMBER_HEADER*)v, u);

  00045	ff 75 08	 push	 DWORD PTR _u$[ebp]
  00048	56		 push	 esi
  00049	e8 00 00 00 00	 call	 ?PMC_GreatestCommonDivisor_X_I_Imp@Internal@Core@Math@Palmtree@@YAPAU__tag_NUMBER_HEADER@1234@PAU51234@I@Z ; Palmtree::Math::Core::Internal::PMC_GreatestCommonDivisor_X_I_Imp
  0004e	83 c4 08	 add	 esp, 8

; 494  :         root.HookNumber(w);

  00051	8d 4d e4	 lea	 ecx, DWORD PTR _root$[ebp]
  00054	8b f0		 mov	 esi, eax
  00056	56		 push	 esi
  00057	e8 00 00 00 00	 call	 ?HookNumber@ResourceHolderUINT@Internal@Core@Math@Palmtree@@QAEXPAU__tag_NUMBER_HEADER@2345@@Z ; Palmtree::Math::Core::Internal::ResourceHolderUINT::HookNumber

; 495  : #ifdef _DEBUG
; 496  :         CheckNumber(w);
; 497  : #endif
; 498  :         root.UnlinkNumber(w);

  0005c	56		 push	 esi
  0005d	8d 4d e4	 lea	 ecx, DWORD PTR _root$[ebp]
  00060	e8 00 00 00 00	 call	 ?UnlinkNumber@ResourceHolderUINT@Internal@Core@Math@Palmtree@@QAEXPAU__tag_NUMBER_HEADER@2345@@Z ; Palmtree::Math::Core::Internal::ResourceHolderUINT::UnlinkNumber

; 499  :         return ((PMC_HANDLE_UINT)w);

  00065	c7 45 fc ff ff
	ff ff		 mov	 DWORD PTR __$EHRec$[ebp+8], -1
  0006c	8d 4d e4	 lea	 ecx, DWORD PTR _root$[ebp]
  0006f	e8 00 00 00 00	 call	 ??1ResourceHolderUINT@Internal@Core@Math@Palmtree@@UAE@XZ ; Palmtree::Math::Core::Internal::ResourceHolderUINT::~ResourceHolderUINT
  00074	8b c6		 mov	 eax, esi

; 500  :     }

  00076	8b 4d f4	 mov	 ecx, DWORD PTR __$EHRec$[ebp]
  00079	64 89 0d 00 00
	00 00		 mov	 DWORD PTR fs:0, ecx
  00080	59		 pop	 ecx
  00081	5e		 pop	 esi
  00082	8b e5		 mov	 esp, ebp
  00084	5d		 pop	 ebp
  00085	c2 08 00	 ret	 8
$LN9@PMC_Greate:

; 490  :             throw ArgumentNullException(L"引数にnullptrが与えられています。", L"v");

  00088	68 00 00 00 00	 push	 OFFSET ??_C@_13JAOPNPKD@?$AAv@
  0008d	68 00 00 00 00	 push	 OFFSET ??_C@_1CK@ECFIEPAC@?$AA?$BF?$AAp?$AAk?$AAn?$AAu?$AAl?$AAl?$AAp?$AAt?$AAr?$AAL?$AA?$AO?$AAH?$PP?$IJ?$PP?$IM@
  00092	8d 4d cc	 lea	 ecx, DWORD PTR $T2[ebp]
  00095	e8 00 00 00 00	 call	 ??0ArgumentNullException@Internal@Core@Math@Palmtree@@QAE@PB_W0@Z ; Palmtree::Math::Core::Internal::ArgumentNullException::ArgumentNullException
  0009a	68 00 00 00 00	 push	 OFFSET __TI2?AVArgumentNullException@Internal@Core@Math@Palmtree@@
  0009f	8d 45 cc	 lea	 eax, DWORD PTR $T2[ebp]
  000a2	50		 push	 eax
  000a3	e8 00 00 00 00	 call	 __CxxThrowException@8
$LN7@PMC_Greate:
  000a8	cc		 int	 3
_TEXT	ENDS
;	COMDAT text$x
text$x	SEGMENT
__unwindfunclet$?PMC_GreatestCommonDivisor_I_X@Internal@Core@Math@Palmtree@@YGPAU__tag_PMC_HANDLE_UINT@1234@IPAU51234@@Z$0:
  00000	8d 4d e4	 lea	 ecx, DWORD PTR _root$[ebp]
  00003	e9 00 00 00 00	 jmp	 ??1ResourceHolderUINT@Internal@Core@Math@Palmtree@@UAE@XZ ; Palmtree::Math::Core::Internal::ResourceHolderUINT::~ResourceHolderUINT
__ehhandler$?PMC_GreatestCommonDivisor_I_X@Internal@Core@Math@Palmtree@@YGPAU__tag_PMC_HANDLE_UINT@1234@IPAU51234@@Z:
  00008	8b 54 24 08	 mov	 edx, DWORD PTR [esp+8]
  0000c	8d 42 0c	 lea	 eax, DWORD PTR [edx+12]
  0000f	8b 4a d0	 mov	 ecx, DWORD PTR [edx-48]
  00012	33 c8		 xor	 ecx, eax
  00014	e8 00 00 00 00	 call	 @__security_check_cookie@4
  00019	b8 00 00 00 00	 mov	 eax, OFFSET __ehfuncinfo$?PMC_GreatestCommonDivisor_I_X@Internal@Core@Math@Palmtree@@YGPAU__tag_PMC_HANDLE_UINT@1234@IPAU51234@@Z
  0001e	e9 00 00 00 00	 jmp	 ___CxxFrameHandler3
text$x	ENDS
?PMC_GreatestCommonDivisor_I_X@Internal@Core@Math@Palmtree@@YGPAU__tag_PMC_HANDLE_UINT@1234@IPAU51234@@Z ENDP ; Palmtree::Math::Core::Internal::PMC_GreatestCommonDivisor_I_X
; Function compile flags: /Ogtp
; File z:\sources\lunor\repos\rougemeilland\palmtree.math.core.uint\palmtree.math.core.uint\pmc_greatestcommondivisor.cpp
;	COMDAT ?Initialize_GreatestCommonDivisor@Internal@Core@Math@Palmtree@@YAHPAU_tag_PROCESSOR_FEATURES@1234@@Z
_TEXT	SEGMENT
_feature$ = 8						; size = 4
?Initialize_GreatestCommonDivisor@Internal@Core@Math@Palmtree@@YAHPAU_tag_PROCESSOR_FEATURES@1234@@Z PROC ; Palmtree::Math::Core::Internal::Initialize_GreatestCommonDivisor, COMDAT

; 584  :         return (PMC_STATUS_OK);

  00000	33 c0		 xor	 eax, eax

; 585  :     }

  00002	c3		 ret	 0
?Initialize_GreatestCommonDivisor@Internal@Core@Math@Palmtree@@YAHPAU_tag_PROCESSOR_FEATURES@1234@@Z ENDP ; Palmtree::Math::Core::Internal::Initialize_GreatestCommonDivisor
_TEXT	ENDS
; Function compile flags: /Ogtp
; File z:\sources\lunor\repos\rougemeilland\palmtree.math.core.uint\palmtree.math.core.uint\pmc_exception.h
; File c:\program files (x86)\microsoft visual studio\2017\community\vc\tools\msvc\14.16.27023\include\vcruntime_exception.h
;	COMDAT ??_GInternalErrorException@Internal@Core@Math@Palmtree@@UAEPAXI@Z
_TEXT	SEGMENT
_this$ = -16						; size = 4
__$EHRec$ = -12						; size = 12
___flags$ = 8						; size = 4
??_GInternalErrorException@Internal@Core@Math@Palmtree@@UAEPAXI@Z PROC ; Palmtree::Math::Core::Internal::InternalErrorException::`scalar deleting destructor', COMDAT
; _this$ = ecx
  00000	55		 push	 ebp
  00001	8b ec		 mov	 ebp, esp
  00003	6a ff		 push	 -1
  00005	68 00 00 00 00	 push	 __ehhandler$??_GInternalErrorException@Internal@Core@Math@Palmtree@@UAEPAXI@Z
  0000a	64 a1 00 00 00
	00		 mov	 eax, DWORD PTR fs:0
  00010	50		 push	 eax
  00011	51		 push	 ecx
  00012	56		 push	 esi
  00013	a1 00 00 00 00	 mov	 eax, DWORD PTR ___security_cookie
  00018	33 c5		 xor	 eax, ebp
  0001a	50		 push	 eax
  0001b	8d 45 f4	 lea	 eax, DWORD PTR __$EHRec$[ebp]
  0001e	64 a3 00 00 00
	00		 mov	 DWORD PTR fs:0, eax
  00024	8b f1		 mov	 esi, ecx
  00026	89 75 f0	 mov	 DWORD PTR _this$[ebp], esi
; File z:\sources\lunor\repos\rougemeilland\palmtree.math.core.uint\palmtree.math.core.uint\pmc_exception.h

; 295  :         {

  00029	c7 06 00 00 00
	00		 mov	 DWORD PTR [esi], OFFSET ??_7InternalErrorException@Internal@Core@Math@Palmtree@@6B@

; 296  :         }

  0002f	c7 45 fc ff ff
	ff ff		 mov	 DWORD PTR __$EHRec$[ebp+8], -1

; 70   :         {

  00036	c7 06 00 00 00
	00		 mov	 DWORD PTR [esi], OFFSET ??_7Exception@Internal@Core@Math@Palmtree@@6B@

; 71   :         }

  0003c	c7 45 fc ff ff
	ff ff		 mov	 DWORD PTR __$EHRec$[ebp+8], -1
; File c:\program files (x86)\microsoft visual studio\2017\community\vc\tools\msvc\14.16.27023\include\vcruntime_exception.h

; 86   :         __std_exception_destroy(&_Data);

  00043	8d 46 04	 lea	 eax, DWORD PTR [esi+4]
  00046	50		 push	 eax
  00047	c7 06 00 00 00
	00		 mov	 DWORD PTR [esi], OFFSET ??_7exception@std@@6B@
  0004d	e8 00 00 00 00	 call	 ___std_exception_destroy
  00052	83 c4 04	 add	 esp, 4
  00055	f6 45 08 01	 test	 BYTE PTR ___flags$[ebp], 1
  00059	74 0b		 je	 SHORT $LN12@scalar
  0005b	6a 18		 push	 24			; 00000018H
  0005d	56		 push	 esi
  0005e	e8 00 00 00 00	 call	 ??3@YAXPAXI@Z		; operator delete
  00063	83 c4 08	 add	 esp, 8
$LN12@scalar:
  00066	8b c6		 mov	 eax, esi
  00068	8b 4d f4	 mov	 ecx, DWORD PTR __$EHRec$[ebp]
  0006b	64 89 0d 00 00
	00 00		 mov	 DWORD PTR fs:0, ecx
  00072	59		 pop	 ecx
  00073	5e		 pop	 esi
  00074	8b e5		 mov	 esp, ebp
  00076	5d		 pop	 ebp
  00077	c2 04 00	 ret	 4
_TEXT	ENDS
;	COMDAT text$x
text$x	SEGMENT
__unwindfunclet$??_GInternalErrorException@Internal@Core@Math@Palmtree@@UAEPAXI@Z$0:
  00000	8b 4d f0	 mov	 ecx, DWORD PTR _this$[ebp]
  00003	e9 00 00 00 00	 jmp	 ??1Exception@Internal@Core@Math@Palmtree@@UAE@XZ ; Palmtree::Math::Core::Internal::Exception::~Exception
__unwindfunclet$??_GInternalErrorException@Internal@Core@Math@Palmtree@@UAEPAXI@Z$1:
  00008	8b 4d f0	 mov	 ecx, DWORD PTR _this$[ebp]
  0000b	e9 00 00 00 00	 jmp	 ??1exception@std@@UAE@XZ ; std::exception::~exception
__ehhandler$??_GInternalErrorException@Internal@Core@Math@Palmtree@@UAEPAXI@Z:
  00010	8b 54 24 08	 mov	 edx, DWORD PTR [esp+8]
  00014	8d 42 0c	 lea	 eax, DWORD PTR [edx+12]
  00017	8b 4a f4	 mov	 ecx, DWORD PTR [edx-12]
  0001a	33 c8		 xor	 ecx, eax
  0001c	e8 00 00 00 00	 call	 @__security_check_cookie@4
  00021	b8 00 00 00 00	 mov	 eax, OFFSET __ehfuncinfo$??_GInternalErrorException@Internal@Core@Math@Palmtree@@UAEPAXI@Z
  00026	e9 00 00 00 00	 jmp	 ___CxxFrameHandler3
text$x	ENDS
??_GInternalErrorException@Internal@Core@Math@Palmtree@@UAEPAXI@Z ENDP ; Palmtree::Math::Core::Internal::InternalErrorException::`scalar deleting destructor'
; Function compile flags: /Ogtp
; File z:\sources\lunor\repos\rougemeilland\palmtree.math.core.uint\palmtree.math.core.uint\pmc_exception.h
; File c:\program files (x86)\microsoft visual studio\2017\community\vc\tools\msvc\14.16.27023\include\vcruntime_exception.h
; File z:\sources\lunor\repos\rougemeilland\palmtree.math.core.uint\palmtree.math.core.uint\pmc_exception.h
;	COMDAT ??1InternalErrorException@Internal@Core@Math@Palmtree@@UAE@XZ
_TEXT	SEGMENT
_this$ = -16						; size = 4
__$EHRec$ = -12						; size = 12
??1InternalErrorException@Internal@Core@Math@Palmtree@@UAE@XZ PROC ; Palmtree::Math::Core::Internal::InternalErrorException::~InternalErrorException, COMDAT
; _this$ = ecx

; 295  :         {

  00000	55		 push	 ebp
  00001	8b ec		 mov	 ebp, esp
  00003	6a ff		 push	 -1
  00005	68 00 00 00 00	 push	 __ehhandler$??1InternalErrorException@Internal@Core@Math@Palmtree@@UAE@XZ
  0000a	64 a1 00 00 00
	00		 mov	 eax, DWORD PTR fs:0
  00010	50		 push	 eax
  00011	51		 push	 ecx
  00012	a1 00 00 00 00	 mov	 eax, DWORD PTR ___security_cookie
  00017	33 c5		 xor	 eax, ebp
  00019	50		 push	 eax
  0001a	8d 45 f4	 lea	 eax, DWORD PTR __$EHRec$[ebp]
  0001d	64 a3 00 00 00
	00		 mov	 DWORD PTR fs:0, eax
  00023	89 4d f0	 mov	 DWORD PTR _this$[ebp], ecx
  00026	c7 01 00 00 00
	00		 mov	 DWORD PTR [ecx], OFFSET ??_7InternalErrorException@Internal@Core@Math@Palmtree@@6B@

; 296  :         }

  0002c	c7 45 fc ff ff
	ff ff		 mov	 DWORD PTR __$EHRec$[ebp+8], -1

; 70   :         {

  00033	c7 01 00 00 00
	00		 mov	 DWORD PTR [ecx], OFFSET ??_7Exception@Internal@Core@Math@Palmtree@@6B@

; 71   :         }

  00039	c7 45 fc ff ff
	ff ff		 mov	 DWORD PTR __$EHRec$[ebp+8], -1
; File c:\program files (x86)\microsoft visual studio\2017\community\vc\tools\msvc\14.16.27023\include\vcruntime_exception.h

; 86   :         __std_exception_destroy(&_Data);

  00040	8d 41 04	 lea	 eax, DWORD PTR [ecx+4]
  00043	50		 push	 eax
  00044	c7 01 00 00 00
	00		 mov	 DWORD PTR [ecx], OFFSET ??_7exception@std@@6B@
  0004a	e8 00 00 00 00	 call	 ___std_exception_destroy
  0004f	83 c4 04	 add	 esp, 4
; File z:\sources\lunor\repos\rougemeilland\palmtree.math.core.uint\palmtree.math.core.uint\pmc_exception.h

; 296  :         }

  00052	8b 4d f4	 mov	 ecx, DWORD PTR __$EHRec$[ebp]
  00055	64 89 0d 00 00
	00 00		 mov	 DWORD PTR fs:0, ecx
  0005c	59		 pop	 ecx
  0005d	8b e5		 mov	 esp, ebp
  0005f	5d		 pop	 ebp
  00060	c3		 ret	 0
_TEXT	ENDS
;	COMDAT text$x
text$x	SEGMENT
__unwindfunclet$??1InternalErrorException@Internal@Core@Math@Palmtree@@UAE@XZ$0:
  00000	8b 4d f0	 mov	 ecx, DWORD PTR _this$[ebp]
  00003	e9 00 00 00 00	 jmp	 ??1Exception@Internal@Core@Math@Palmtree@@UAE@XZ ; Palmtree::Math::Core::Internal::Exception::~Exception
__unwindfunclet$??1InternalErrorException@Internal@Core@Math@Palmtree@@UAE@XZ$1:
  00008	8b 4d f0	 mov	 ecx, DWORD PTR _this$[ebp]
  0000b	e9 00 00 00 00	 jmp	 ??1exception@std@@UAE@XZ ; std::exception::~exception
__ehhandler$??1InternalErrorException@Internal@Core@Math@Palmtree@@UAE@XZ:
  00010	8b 54 24 08	 mov	 edx, DWORD PTR [esp+8]
  00014	8d 42 0c	 lea	 eax, DWORD PTR [edx+12]
  00017	8b 4a f8	 mov	 ecx, DWORD PTR [edx-8]
  0001a	33 c8		 xor	 ecx, eax
  0001c	e8 00 00 00 00	 call	 @__security_check_cookie@4
  00021	b8 00 00 00 00	 mov	 eax, OFFSET __ehfuncinfo$??1InternalErrorException@Internal@Core@Math@Palmtree@@UAE@XZ
  00026	e9 00 00 00 00	 jmp	 ___CxxFrameHandler3
text$x	ENDS
??1InternalErrorException@Internal@Core@Math@Palmtree@@UAE@XZ ENDP ; Palmtree::Math::Core::Internal::InternalErrorException::~InternalErrorException
; Function compile flags: /Ogtp
; File z:\sources\lunor\repos\rougemeilland\palmtree.math.core.uint\palmtree.math.core.uint\pmc_exception.h
; File c:\program files (x86)\microsoft visual studio\2017\community\vc\tools\msvc\14.16.27023\include\vcruntime_exception.h
; File z:\sources\lunor\repos\rougemeilland\palmtree.math.core.uint\palmtree.math.core.uint\pmc_exception.h
;	COMDAT ??0InternalErrorException@Internal@Core@Math@Palmtree@@QAE@ABV01234@@Z
_TEXT	SEGMENT
_this$ = -16						; size = 4
__$EHRec$ = -12						; size = 12
_p$ = 8							; size = 4
??0InternalErrorException@Internal@Core@Math@Palmtree@@QAE@ABV01234@@Z PROC ; Palmtree::Math::Core::Internal::InternalErrorException::InternalErrorException, COMDAT
; _this$ = ecx

; 291  :         {

  00000	55		 push	 ebp
  00001	8b ec		 mov	 ebp, esp
  00003	6a ff		 push	 -1
  00005	68 00 00 00 00	 push	 __ehhandler$??0InternalErrorException@Internal@Core@Math@Palmtree@@QAE@ABV01234@@Z
  0000a	64 a1 00 00 00
	00		 mov	 eax, DWORD PTR fs:0
  00010	50		 push	 eax
  00011	51		 push	 ecx
  00012	a1 00 00 00 00	 mov	 eax, DWORD PTR ___security_cookie
  00017	33 c5		 xor	 eax, ebp
  00019	50		 push	 eax
  0001a	8d 45 f4	 lea	 eax, DWORD PTR __$EHRec$[ebp]
  0001d	64 a3 00 00 00
	00		 mov	 DWORD PTR fs:0, eax
  00023	8b d1		 mov	 edx, ecx
  00025	89 55 f0	 mov	 DWORD PTR _this$[ebp], edx
  00028	0f 57 c0	 xorps	 xmm0, xmm0
; File c:\program files (x86)\microsoft visual studio\2017\community\vc\tools\msvc\14.16.27023\include\vcruntime_exception.h

; 50   :     {

  0002b	c7 02 00 00 00
	00		 mov	 DWORD PTR [edx], OFFSET ??_7exception@std@@6B@
  00031	66 0f d6 42 04	 movq	 QWORD PTR [edx+4], xmm0
; File z:\sources\lunor\repos\rougemeilland\palmtree.math.core.uint\palmtree.math.core.uint\pmc_exception.h

; 62   :         Exception(const Exception& p) noexcept(true)

  00036	c7 45 fc 00 00
	00 00		 mov	 DWORD PTR __$EHRec$[ebp+8], 0

; 63   :         {
; 64   :             _code = p._code;

  0003d	8b 4d 08	 mov	 ecx, DWORD PTR _p$[ebp]
  00040	c7 02 00 00 00
	00		 mov	 DWORD PTR [edx], OFFSET ??_7Exception@Internal@Core@Math@Palmtree@@6B@
  00046	8b 41 0c	 mov	 eax, DWORD PTR [ecx+12]
  00049	89 42 0c	 mov	 DWORD PTR [edx+12], eax

; 65   :             _message = p._message;

  0004c	8b 41 10	 mov	 eax, DWORD PTR [ecx+16]
  0004f	89 42 10	 mov	 DWORD PTR [edx+16], eax

; 66   :             _data = p._data;

  00052	8b 41 14	 mov	 eax, DWORD PTR [ecx+20]
  00055	89 42 14	 mov	 DWORD PTR [edx+20], eax

; 67   :         }
; 68   : 
; 69   :         virtual ~Exception() noexcept(true)
; 70   :         {
; 71   :         }
; 72   : 
; 73   :         PMC_STATUS_CODE GetStatusCode() const noexcept(true)
; 74   :         {
; 75   :             return (_code);
; 76   :         }
; 77   : 
; 78   :         wchar_t const* What() const noexcept(true)
; 79   :         {
; 80   :             return (_message);
; 81   :         }
; 82   : 
; 83   :         wchar_t const* Data() const noexcept(true)
; 84   :         {
; 85   :             return (_data);
; 86   :         }
; 87   : 
; 88   :     };
; 89   : 
; 90   :     class ArgumentException
; 91   :         : public Exception
; 92   :     {
; 93   :     public:
; 94   :         ArgumentException(const wchar_t* message) noexcept(true)
; 95   :             : Exception(PMC_STATUS_ARGUMENT_ERROR, message)
; 96   :         {
; 97   :         }
; 98   : 
; 99   :         ArgumentException(const ArgumentException& p) noexcept(true)
; 100  :             : Exception(p)
; 101  :         {
; 102  :         }
; 103  : 
; 104  :         virtual ~ArgumentException() noexcept(true)
; 105  :         {
; 106  :         }
; 107  :     };
; 108  : 
; 109  :     class ArgumentNullException
; 110  :         : public Exception
; 111  :     {
; 112  :     public:
; 113  :         ArgumentNullException(const wchar_t* message, const wchar_t* param_name) noexcept(true)
; 114  :             : Exception(PMC_STATUS_ARGUMENT_NULL_ERROR, message, param_name)
; 115  :         {
; 116  :         }
; 117  : 
; 118  :         ArgumentNullException(const ArgumentNullException& p) noexcept(true)
; 119  :             : Exception(p)
; 120  :         {
; 121  :         }
; 122  : 
; 123  :         virtual ~ArgumentNullException() noexcept(true)
; 124  :         {
; 125  :         }
; 126  :     };
; 127  : 
; 128  :     class ArgumentOutOfRangeException
; 129  :         : public Exception
; 130  :     {
; 131  :     public:
; 132  :         ArgumentOutOfRangeException(const wchar_t* message) noexcept(true)
; 133  :             : Exception(PMC_STATUS_ARGUMENT_OUT_OF_RANGE_ERROR, message)
; 134  :         {
; 135  :         }
; 136  : 
; 137  :         ArgumentOutOfRangeException(const ArgumentOutOfRangeException& p) noexcept(true)
; 138  :             : Exception(p)
; 139  :         {
; 140  :         }
; 141  : 
; 142  :         virtual ~ArgumentOutOfRangeException() noexcept(true)
; 143  :         {
; 144  :         }
; 145  :     };
; 146  : 
; 147  :     class OverflowException
; 148  :         : public Exception
; 149  :     {
; 150  :     public:
; 151  :         OverflowException(const wchar_t* message) noexcept(true)
; 152  :             : Exception(PMC_STATUS_OVERFLOW, message)
; 153  :         {
; 154  :         }
; 155  : 
; 156  :         OverflowException(const OverflowException& p) noexcept(true)
; 157  :             : Exception(p)
; 158  :         {
; 159  :         }
; 160  : 
; 161  :         virtual ~OverflowException() noexcept(true)
; 162  :         {
; 163  :         }
; 164  :     };
; 165  : 
; 166  :     class DivisionByZeroException
; 167  :         : public Exception
; 168  :     {
; 169  :     public:
; 170  :         DivisionByZeroException(const wchar_t* message) noexcept(true)
; 171  :             : Exception(PMC_STATUS_DIVISION_BY_ZERO, message)
; 172  :         {
; 173  :         }
; 174  : 
; 175  :         DivisionByZeroException(const DivisionByZeroException& p) noexcept(true)
; 176  :             : Exception(p)
; 177  :         {
; 178  :         }
; 179  : 
; 180  :         virtual ~DivisionByZeroException() noexcept(true)
; 181  :         {
; 182  :         }
; 183  :     };
; 184  : 
; 185  :     class ArithmeticException
; 186  :         : public Exception
; 187  :     {
; 188  :     public:
; 189  :         ArithmeticException(const wchar_t* message) noexcept(true)
; 190  :             : Exception(PMC_STATUS_ARITHMETIC_ERROR, message)
; 191  :         {
; 192  :         }
; 193  : 
; 194  :         ArithmeticException(const OverflowException& p) noexcept(true)
; 195  :             : Exception(p)
; 196  :         {
; 197  :         }
; 198  : 
; 199  :         virtual ~ArithmeticException() noexcept(true)
; 200  :         {
; 201  :         }
; 202  :     };
; 203  : 
; 204  :     class FormatException
; 205  :         : public Exception
; 206  :     {
; 207  :     public:
; 208  :         FormatException(const wchar_t* message) noexcept(true)
; 209  :             : Exception(PMC_STATUS_FORMAT_ERROR, message)
; 210  :         {
; 211  :         }
; 212  : 
; 213  :         FormatException(const FormatException& p) noexcept(true)
; 214  :             : Exception(p)
; 215  :         {
; 216  :         }
; 217  : 
; 218  :         virtual ~FormatException() noexcept(true)
; 219  :         {
; 220  :         }
; 221  :     };
; 222  : 
; 223  :     class InsufficientBufferException
; 224  :         : public Exception
; 225  :     {
; 226  :     public:
; 227  :         InsufficientBufferException(const wchar_t* message)
; 228  :             : Exception(PMC_STATUS_INSUFFICIENT_BUFFER, message)
; 229  :         {
; 230  :         }
; 231  : 
; 232  :         InsufficientBufferException(const InsufficientBufferException& p) noexcept(true)
; 233  :             : Exception(p)
; 234  :         {
; 235  :         }
; 236  : 
; 237  :         virtual ~InsufficientBufferException() noexcept(true)
; 238  :         {
; 239  :         }
; 240  :     };
; 241  : 
; 242  :     class NotEnoughMemoryException
; 243  :         : public Exception
; 244  :     {
; 245  :     public:
; 246  :         NotEnoughMemoryException(const wchar_t* message) noexcept(true)
; 247  :             : Exception(PMC_STATUS_NOT_ENOUGH_MEMORY, message)
; 248  :         {
; 249  :         }
; 250  : 
; 251  :         NotEnoughMemoryException(const NotEnoughMemoryException& p) noexcept(true)
; 252  :             : Exception(p)
; 253  :         {
; 254  :         }
; 255  : 
; 256  :         virtual ~NotEnoughMemoryException() noexcept(true)
; 257  :         {
; 258  :         }
; 259  :     };
; 260  : 
; 261  :     class NotSupportedException
; 262  :         : public Exception
; 263  :     {
; 264  :     public:
; 265  :         NotSupportedException(const wchar_t* message) noexcept(true)
; 266  :             : Exception(PMC_STATUS_NOT_SUPPORTED, message)
; 267  :         {
; 268  :         }
; 269  : 
; 270  :         NotSupportedException(const NotSupportedException& p) noexcept(true)
; 271  :             : Exception(p)
; 272  :         {
; 273  :         }
; 274  : 
; 275  :         virtual ~NotSupportedException() noexcept(true)
; 276  :         {
; 277  :         }
; 278  :     };
; 279  : 
; 280  :     class InternalErrorException
; 281  :         : public Exception
; 282  :     {
; 283  :     public:
; 284  :         InternalErrorException(const wchar_t* message, const wchar_t* data) noexcept(true)
; 285  :             : Exception(PMC_STATUS_INTERNAL_ERROR, message, data)
; 286  :         {
; 287  :         }
; 288  : 
; 289  :         InternalErrorException(const InternalErrorException& p) noexcept(true)
; 290  :             : Exception(p)

  00058	c7 45 fc 01 00
	00 00		 mov	 DWORD PTR __$EHRec$[ebp+8], 1

; 291  :         {

  0005f	c7 02 00 00 00
	00		 mov	 DWORD PTR [edx], OFFSET ??_7InternalErrorException@Internal@Core@Math@Palmtree@@6B@

; 292  :         }

  00065	c7 45 fc ff ff
	ff ff		 mov	 DWORD PTR __$EHRec$[ebp+8], -1
  0006c	8b c2		 mov	 eax, edx
  0006e	8b 4d f4	 mov	 ecx, DWORD PTR __$EHRec$[ebp]
  00071	64 89 0d 00 00
	00 00		 mov	 DWORD PTR fs:0, ecx
  00078	59		 pop	 ecx
  00079	8b e5		 mov	 esp, ebp
  0007b	5d		 pop	 ebp
  0007c	c2 04 00	 ret	 4
_TEXT	ENDS
;	COMDAT text$x
text$x	SEGMENT
__unwindfunclet$??0InternalErrorException@Internal@Core@Math@Palmtree@@QAE@ABV01234@@Z$1:
  00000	8b 4d f0	 mov	 ecx, DWORD PTR _this$[ebp]
  00003	e9 00 00 00 00	 jmp	 ??1exception@std@@UAE@XZ ; std::exception::~exception
__unwindfunclet$??0InternalErrorException@Internal@Core@Math@Palmtree@@QAE@ABV01234@@Z$0:
  00008	8b 4d f0	 mov	 ecx, DWORD PTR _this$[ebp]
  0000b	e9 00 00 00 00	 jmp	 ??1Exception@Internal@Core@Math@Palmtree@@UAE@XZ ; Palmtree::Math::Core::Internal::Exception::~Exception
__ehhandler$??0InternalErrorException@Internal@Core@Math@Palmtree@@QAE@ABV01234@@Z:
  00010	8b 54 24 08	 mov	 edx, DWORD PTR [esp+8]
  00014	8d 42 0c	 lea	 eax, DWORD PTR [edx+12]
  00017	8b 4a f8	 mov	 ecx, DWORD PTR [edx-8]
  0001a	33 c8		 xor	 ecx, eax
  0001c	e8 00 00 00 00	 call	 @__security_check_cookie@4
  00021	b8 00 00 00 00	 mov	 eax, OFFSET __ehfuncinfo$??0InternalErrorException@Internal@Core@Math@Palmtree@@QAE@ABV01234@@Z
  00026	e9 00 00 00 00	 jmp	 ___CxxFrameHandler3
text$x	ENDS
??0InternalErrorException@Internal@Core@Math@Palmtree@@QAE@ABV01234@@Z ENDP ; Palmtree::Math::Core::Internal::InternalErrorException::InternalErrorException
; Function compile flags: /Ogtp
; File z:\sources\lunor\repos\rougemeilland\palmtree.math.core.uint\palmtree.math.core.uint\pmc_exception.h
; File c:\program files (x86)\microsoft visual studio\2017\community\vc\tools\msvc\14.16.27023\include\vcruntime_exception.h
; File z:\sources\lunor\repos\rougemeilland\palmtree.math.core.uint\palmtree.math.core.uint\pmc_exception.h
;	COMDAT ??0InternalErrorException@Internal@Core@Math@Palmtree@@QAE@PB_W0@Z
_TEXT	SEGMENT
_this$ = -16						; size = 4
__$EHRec$ = -12						; size = 12
_message$ = 8						; size = 4
_data$ = 12						; size = 4
??0InternalErrorException@Internal@Core@Math@Palmtree@@QAE@PB_W0@Z PROC ; Palmtree::Math::Core::Internal::InternalErrorException::InternalErrorException, COMDAT
; _this$ = ecx

; 286  :         {

  00000	55		 push	 ebp
  00001	8b ec		 mov	 ebp, esp
  00003	6a ff		 push	 -1
  00005	68 00 00 00 00	 push	 __ehhandler$??0InternalErrorException@Internal@Core@Math@Palmtree@@QAE@PB_W0@Z
  0000a	64 a1 00 00 00
	00		 mov	 eax, DWORD PTR fs:0
  00010	50		 push	 eax
  00011	51		 push	 ecx
  00012	a1 00 00 00 00	 mov	 eax, DWORD PTR ___security_cookie
  00017	33 c5		 xor	 eax, ebp
  00019	50		 push	 eax
  0001a	8d 45 f4	 lea	 eax, DWORD PTR __$EHRec$[ebp]
  0001d	64 a3 00 00 00
	00		 mov	 DWORD PTR fs:0, eax
  00023	89 4d f0	 mov	 DWORD PTR _this$[ebp], ecx
  00026	0f 57 c0	 xorps	 xmm0, xmm0
; File c:\program files (x86)\microsoft visual studio\2017\community\vc\tools\msvc\14.16.27023\include\vcruntime_exception.h

; 50   :     {

  00029	c7 01 00 00 00
	00		 mov	 DWORD PTR [ecx], OFFSET ??_7exception@std@@6B@
  0002f	66 0f d6 41 04	 movq	 QWORD PTR [ecx+4], xmm0
; File z:\sources\lunor\repos\rougemeilland\palmtree.math.core.uint\palmtree.math.core.uint\pmc_exception.h

; 54   :         Exception(PMC_STATUS_CODE code, const wchar_t* message, const wchar_t* data) noexcept(true)

  00034	c7 45 fc 00 00
	00 00		 mov	 DWORD PTR __$EHRec$[ebp+8], 0

; 55   :         {
; 56   :             _code = code;
; 57   :             _message = message;

  0003b	8b 45 08	 mov	 eax, DWORD PTR _message$[ebp]
  0003e	89 41 10	 mov	 DWORD PTR [ecx+16], eax

; 58   :             _data = data;

  00041	8b 45 0c	 mov	 eax, DWORD PTR _data$[ebp]
  00044	c7 01 00 00 00
	00		 mov	 DWORD PTR [ecx], OFFSET ??_7Exception@Internal@Core@Math@Palmtree@@6B@
  0004a	c7 41 0c 00 ff
	ff ff		 mov	 DWORD PTR [ecx+12], -256 ; ffffff00H
  00051	89 41 14	 mov	 DWORD PTR [ecx+20], eax

; 59   :         }
; 60   : 
; 61   :     public:
; 62   :         Exception(const Exception& p) noexcept(true)
; 63   :         {
; 64   :             _code = p._code;
; 65   :             _message = p._message;
; 66   :             _data = p._data;
; 67   :         }
; 68   : 
; 69   :         virtual ~Exception() noexcept(true)
; 70   :         {
; 71   :         }
; 72   : 
; 73   :         PMC_STATUS_CODE GetStatusCode() const noexcept(true)
; 74   :         {
; 75   :             return (_code);
; 76   :         }
; 77   : 
; 78   :         wchar_t const* What() const noexcept(true)
; 79   :         {
; 80   :             return (_message);
; 81   :         }
; 82   : 
; 83   :         wchar_t const* Data() const noexcept(true)
; 84   :         {
; 85   :             return (_data);
; 86   :         }
; 87   : 
; 88   :     };
; 89   : 
; 90   :     class ArgumentException
; 91   :         : public Exception
; 92   :     {
; 93   :     public:
; 94   :         ArgumentException(const wchar_t* message) noexcept(true)
; 95   :             : Exception(PMC_STATUS_ARGUMENT_ERROR, message)
; 96   :         {
; 97   :         }
; 98   : 
; 99   :         ArgumentException(const ArgumentException& p) noexcept(true)
; 100  :             : Exception(p)
; 101  :         {
; 102  :         }
; 103  : 
; 104  :         virtual ~ArgumentException() noexcept(true)
; 105  :         {
; 106  :         }
; 107  :     };
; 108  : 
; 109  :     class ArgumentNullException
; 110  :         : public Exception
; 111  :     {
; 112  :     public:
; 113  :         ArgumentNullException(const wchar_t* message, const wchar_t* param_name) noexcept(true)
; 114  :             : Exception(PMC_STATUS_ARGUMENT_NULL_ERROR, message, param_name)
; 115  :         {
; 116  :         }
; 117  : 
; 118  :         ArgumentNullException(const ArgumentNullException& p) noexcept(true)
; 119  :             : Exception(p)
; 120  :         {
; 121  :         }
; 122  : 
; 123  :         virtual ~ArgumentNullException() noexcept(true)
; 124  :         {
; 125  :         }
; 126  :     };
; 127  : 
; 128  :     class ArgumentOutOfRangeException
; 129  :         : public Exception
; 130  :     {
; 131  :     public:
; 132  :         ArgumentOutOfRangeException(const wchar_t* message) noexcept(true)
; 133  :             : Exception(PMC_STATUS_ARGUMENT_OUT_OF_RANGE_ERROR, message)
; 134  :         {
; 135  :         }
; 136  : 
; 137  :         ArgumentOutOfRangeException(const ArgumentOutOfRangeException& p) noexcept(true)
; 138  :             : Exception(p)
; 139  :         {
; 140  :         }
; 141  : 
; 142  :         virtual ~ArgumentOutOfRangeException() noexcept(true)
; 143  :         {
; 144  :         }
; 145  :     };
; 146  : 
; 147  :     class OverflowException
; 148  :         : public Exception
; 149  :     {
; 150  :     public:
; 151  :         OverflowException(const wchar_t* message) noexcept(true)
; 152  :             : Exception(PMC_STATUS_OVERFLOW, message)
; 153  :         {
; 154  :         }
; 155  : 
; 156  :         OverflowException(const OverflowException& p) noexcept(true)
; 157  :             : Exception(p)
; 158  :         {
; 159  :         }
; 160  : 
; 161  :         virtual ~OverflowException() noexcept(true)
; 162  :         {
; 163  :         }
; 164  :     };
; 165  : 
; 166  :     class DivisionByZeroException
; 167  :         : public Exception
; 168  :     {
; 169  :     public:
; 170  :         DivisionByZeroException(const wchar_t* message) noexcept(true)
; 171  :             : Exception(PMC_STATUS_DIVISION_BY_ZERO, message)
; 172  :         {
; 173  :         }
; 174  : 
; 175  :         DivisionByZeroException(const DivisionByZeroException& p) noexcept(true)
; 176  :             : Exception(p)
; 177  :         {
; 178  :         }
; 179  : 
; 180  :         virtual ~DivisionByZeroException() noexcept(true)
; 181  :         {
; 182  :         }
; 183  :     };
; 184  : 
; 185  :     class ArithmeticException
; 186  :         : public Exception
; 187  :     {
; 188  :     public:
; 189  :         ArithmeticException(const wchar_t* message) noexcept(true)
; 190  :             : Exception(PMC_STATUS_ARITHMETIC_ERROR, message)
; 191  :         {
; 192  :         }
; 193  : 
; 194  :         ArithmeticException(const OverflowException& p) noexcept(true)
; 195  :             : Exception(p)
; 196  :         {
; 197  :         }
; 198  : 
; 199  :         virtual ~ArithmeticException() noexcept(true)
; 200  :         {
; 201  :         }
; 202  :     };
; 203  : 
; 204  :     class FormatException
; 205  :         : public Exception
; 206  :     {
; 207  :     public:
; 208  :         FormatException(const wchar_t* message) noexcept(true)
; 209  :             : Exception(PMC_STATUS_FORMAT_ERROR, message)
; 210  :         {
; 211  :         }
; 212  : 
; 213  :         FormatException(const FormatException& p) noexcept(true)
; 214  :             : Exception(p)
; 215  :         {
; 216  :         }
; 217  : 
; 218  :         virtual ~FormatException() noexcept(true)
; 219  :         {
; 220  :         }
; 221  :     };
; 222  : 
; 223  :     class InsufficientBufferException
; 224  :         : public Exception
; 225  :     {
; 226  :     public:
; 227  :         InsufficientBufferException(const wchar_t* message)
; 228  :             : Exception(PMC_STATUS_INSUFFICIENT_BUFFER, message)
; 229  :         {
; 230  :         }
; 231  : 
; 232  :         InsufficientBufferException(const InsufficientBufferException& p) noexcept(true)
; 233  :             : Exception(p)
; 234  :         {
; 235  :         }
; 236  : 
; 237  :         virtual ~InsufficientBufferException() noexcept(true)
; 238  :         {
; 239  :         }
; 240  :     };
; 241  : 
; 242  :     class NotEnoughMemoryException
; 243  :         : public Exception
; 244  :     {
; 245  :     public:
; 246  :         NotEnoughMemoryException(const wchar_t* message) noexcept(true)
; 247  :             : Exception(PMC_STATUS_NOT_ENOUGH_MEMORY, message)
; 248  :         {
; 249  :         }
; 250  : 
; 251  :         NotEnoughMemoryException(const NotEnoughMemoryException& p) noexcept(true)
; 252  :             : Exception(p)
; 253  :         {
; 254  :         }
; 255  : 
; 256  :         virtual ~NotEnoughMemoryException() noexcept(true)
; 257  :         {
; 258  :         }
; 259  :     };
; 260  : 
; 261  :     class NotSupportedException
; 262  :         : public Exception
; 263  :     {
; 264  :     public:
; 265  :         NotSupportedException(const wchar_t* message) noexcept(true)
; 266  :             : Exception(PMC_STATUS_NOT_SUPPORTED, message)
; 267  :         {
; 268  :         }
; 269  : 
; 270  :         NotSupportedException(const NotSupportedException& p) noexcept(true)
; 271  :             : Exception(p)
; 272  :         {
; 273  :         }
; 274  : 
; 275  :         virtual ~NotSupportedException() noexcept(true)
; 276  :         {
; 277  :         }
; 278  :     };
; 279  : 
; 280  :     class InternalErrorException
; 281  :         : public Exception
; 282  :     {
; 283  :     public:
; 284  :         InternalErrorException(const wchar_t* message, const wchar_t* data) noexcept(true)
; 285  :             : Exception(PMC_STATUS_INTERNAL_ERROR, message, data)

  00054	c7 45 fc 01 00
	00 00		 mov	 DWORD PTR __$EHRec$[ebp+8], 1

; 286  :         {

  0005b	c7 01 00 00 00
	00		 mov	 DWORD PTR [ecx], OFFSET ??_7InternalErrorException@Internal@Core@Math@Palmtree@@6B@

; 287  :         }

  00061	c7 45 fc ff ff
	ff ff		 mov	 DWORD PTR __$EHRec$[ebp+8], -1
  00068	8b c1		 mov	 eax, ecx
  0006a	8b 4d f4	 mov	 ecx, DWORD PTR __$EHRec$[ebp]
  0006d	64 89 0d 00 00
	00 00		 mov	 DWORD PTR fs:0, ecx
  00074	59		 pop	 ecx
  00075	8b e5		 mov	 esp, ebp
  00077	5d		 pop	 ebp
  00078	c2 08 00	 ret	 8
_TEXT	ENDS
;	COMDAT text$x
text$x	SEGMENT
__unwindfunclet$??0InternalErrorException@Internal@Core@Math@Palmtree@@QAE@PB_W0@Z$1:
  00000	8b 4d f0	 mov	 ecx, DWORD PTR _this$[ebp]
  00003	e9 00 00 00 00	 jmp	 ??1exception@std@@UAE@XZ ; std::exception::~exception
__unwindfunclet$??0InternalErrorException@Internal@Core@Math@Palmtree@@QAE@PB_W0@Z$0:
  00008	8b 4d f0	 mov	 ecx, DWORD PTR _this$[ebp]
  0000b	e9 00 00 00 00	 jmp	 ??1Exception@Internal@Core@Math@Palmtree@@UAE@XZ ; Palmtree::Math::Core::Internal::Exception::~Exception
__ehhandler$??0InternalErrorException@Internal@Core@Math@Palmtree@@QAE@PB_W0@Z:
  00010	8b 54 24 08	 mov	 edx, DWORD PTR [esp+8]
  00014	8d 42 0c	 lea	 eax, DWORD PTR [edx+12]
  00017	8b 4a f8	 mov	 ecx, DWORD PTR [edx-8]
  0001a	33 c8		 xor	 ecx, eax
  0001c	e8 00 00 00 00	 call	 @__security_check_cookie@4
  00021	b8 00 00 00 00	 mov	 eax, OFFSET __ehfuncinfo$??0InternalErrorException@Internal@Core@Math@Palmtree@@QAE@PB_W0@Z
  00026	e9 00 00 00 00	 jmp	 ___CxxFrameHandler3
text$x	ENDS
??0InternalErrorException@Internal@Core@Math@Palmtree@@QAE@PB_W0@Z ENDP ; Palmtree::Math::Core::Internal::InternalErrorException::InternalErrorException
; Function compile flags: /Ogtp
; File z:\sources\lunor\repos\rougemeilland\palmtree.math.core.uint\palmtree.math.core.uint\pmc_exception.h
; File c:\program files (x86)\microsoft visual studio\2017\community\vc\tools\msvc\14.16.27023\include\vcruntime_exception.h
;	COMDAT ??_GArithmeticException@Internal@Core@Math@Palmtree@@UAEPAXI@Z
_TEXT	SEGMENT
_this$ = -16						; size = 4
__$EHRec$ = -12						; size = 12
___flags$ = 8						; size = 4
??_GArithmeticException@Internal@Core@Math@Palmtree@@UAEPAXI@Z PROC ; Palmtree::Math::Core::Internal::ArithmeticException::`scalar deleting destructor', COMDAT
; _this$ = ecx
  00000	55		 push	 ebp
  00001	8b ec		 mov	 ebp, esp
  00003	6a ff		 push	 -1
  00005	68 00 00 00 00	 push	 __ehhandler$??_GArithmeticException@Internal@Core@Math@Palmtree@@UAEPAXI@Z
  0000a	64 a1 00 00 00
	00		 mov	 eax, DWORD PTR fs:0
  00010	50		 push	 eax
  00011	51		 push	 ecx
  00012	56		 push	 esi
  00013	a1 00 00 00 00	 mov	 eax, DWORD PTR ___security_cookie
  00018	33 c5		 xor	 eax, ebp
  0001a	50		 push	 eax
  0001b	8d 45 f4	 lea	 eax, DWORD PTR __$EHRec$[ebp]
  0001e	64 a3 00 00 00
	00		 mov	 DWORD PTR fs:0, eax
  00024	8b f1		 mov	 esi, ecx
  00026	89 75 f0	 mov	 DWORD PTR _this$[ebp], esi
; File z:\sources\lunor\repos\rougemeilland\palmtree.math.core.uint\palmtree.math.core.uint\pmc_exception.h

; 200  :         {

  00029	c7 06 00 00 00
	00		 mov	 DWORD PTR [esi], OFFSET ??_7ArithmeticException@Internal@Core@Math@Palmtree@@6B@

; 201  :         }

  0002f	c7 45 fc ff ff
	ff ff		 mov	 DWORD PTR __$EHRec$[ebp+8], -1

; 70   :         {

  00036	c7 06 00 00 00
	00		 mov	 DWORD PTR [esi], OFFSET ??_7Exception@Internal@Core@Math@Palmtree@@6B@

; 71   :         }

  0003c	c7 45 fc ff ff
	ff ff		 mov	 DWORD PTR __$EHRec$[ebp+8], -1
; File c:\program files (x86)\microsoft visual studio\2017\community\vc\tools\msvc\14.16.27023\include\vcruntime_exception.h

; 86   :         __std_exception_destroy(&_Data);

  00043	8d 46 04	 lea	 eax, DWORD PTR [esi+4]
  00046	50		 push	 eax
  00047	c7 06 00 00 00
	00		 mov	 DWORD PTR [esi], OFFSET ??_7exception@std@@6B@
  0004d	e8 00 00 00 00	 call	 ___std_exception_destroy
  00052	83 c4 04	 add	 esp, 4
  00055	f6 45 08 01	 test	 BYTE PTR ___flags$[ebp], 1
  00059	74 0b		 je	 SHORT $LN12@scalar
  0005b	6a 18		 push	 24			; 00000018H
  0005d	56		 push	 esi
  0005e	e8 00 00 00 00	 call	 ??3@YAXPAXI@Z		; operator delete
  00063	83 c4 08	 add	 esp, 8
$LN12@scalar:
  00066	8b c6		 mov	 eax, esi
  00068	8b 4d f4	 mov	 ecx, DWORD PTR __$EHRec$[ebp]
  0006b	64 89 0d 00 00
	00 00		 mov	 DWORD PTR fs:0, ecx
  00072	59		 pop	 ecx
  00073	5e		 pop	 esi
  00074	8b e5		 mov	 esp, ebp
  00076	5d		 pop	 ebp
  00077	c2 04 00	 ret	 4
_TEXT	ENDS
;	COMDAT text$x
text$x	SEGMENT
__unwindfunclet$??_GArithmeticException@Internal@Core@Math@Palmtree@@UAEPAXI@Z$0:
  00000	8b 4d f0	 mov	 ecx, DWORD PTR _this$[ebp]
  00003	e9 00 00 00 00	 jmp	 ??1Exception@Internal@Core@Math@Palmtree@@UAE@XZ ; Palmtree::Math::Core::Internal::Exception::~Exception
__unwindfunclet$??_GArithmeticException@Internal@Core@Math@Palmtree@@UAEPAXI@Z$1:
  00008	8b 4d f0	 mov	 ecx, DWORD PTR _this$[ebp]
  0000b	e9 00 00 00 00	 jmp	 ??1exception@std@@UAE@XZ ; std::exception::~exception
__ehhandler$??_GArithmeticException@Internal@Core@Math@Palmtree@@UAEPAXI@Z:
  00010	8b 54 24 08	 mov	 edx, DWORD PTR [esp+8]
  00014	8d 42 0c	 lea	 eax, DWORD PTR [edx+12]
  00017	8b 4a f4	 mov	 ecx, DWORD PTR [edx-12]
  0001a	33 c8		 xor	 ecx, eax
  0001c	e8 00 00 00 00	 call	 @__security_check_cookie@4
  00021	b8 00 00 00 00	 mov	 eax, OFFSET __ehfuncinfo$??_GArithmeticException@Internal@Core@Math@Palmtree@@UAEPAXI@Z
  00026	e9 00 00 00 00	 jmp	 ___CxxFrameHandler3
text$x	ENDS
??_GArithmeticException@Internal@Core@Math@Palmtree@@UAEPAXI@Z ENDP ; Palmtree::Math::Core::Internal::ArithmeticException::`scalar deleting destructor'
; Function compile flags: /Ogtp
; File c:\program files (x86)\microsoft visual studio\2017\community\vc\tools\msvc\14.16.27023\include\vcruntime_exception.h
; File z:\sources\lunor\repos\rougemeilland\palmtree.math.core.uint\palmtree.math.core.uint\pmc_exception.h
;	COMDAT ??0ArithmeticException@Internal@Core@Math@Palmtree@@QAE@ABV01234@@Z
_TEXT	SEGMENT
_this$ = -16						; size = 4
__$EHRec$ = -12						; size = 12
___that$ = 8						; size = 4
??0ArithmeticException@Internal@Core@Math@Palmtree@@QAE@ABV01234@@Z PROC ; Palmtree::Math::Core::Internal::ArithmeticException::ArithmeticException, COMDAT
; _this$ = ecx
  00000	55		 push	 ebp
  00001	8b ec		 mov	 ebp, esp
  00003	6a ff		 push	 -1
  00005	68 00 00 00 00	 push	 __ehhandler$??0ArithmeticException@Internal@Core@Math@Palmtree@@QAE@ABV01234@@Z
  0000a	64 a1 00 00 00
	00		 mov	 eax, DWORD PTR fs:0
  00010	50		 push	 eax
  00011	51		 push	 ecx
  00012	a1 00 00 00 00	 mov	 eax, DWORD PTR ___security_cookie
  00017	33 c5		 xor	 eax, ebp
  00019	50		 push	 eax
  0001a	8d 45 f4	 lea	 eax, DWORD PTR __$EHRec$[ebp]
  0001d	64 a3 00 00 00
	00		 mov	 DWORD PTR fs:0, eax
  00023	8b d1		 mov	 edx, ecx
  00025	89 55 f0	 mov	 DWORD PTR _this$[ebp], edx
  00028	0f 57 c0	 xorps	 xmm0, xmm0
; File c:\program files (x86)\microsoft visual studio\2017\community\vc\tools\msvc\14.16.27023\include\vcruntime_exception.h

; 50   :     {

  0002b	c7 02 00 00 00
	00		 mov	 DWORD PTR [edx], OFFSET ??_7exception@std@@6B@
  00031	66 0f d6 42 04	 movq	 QWORD PTR [edx+4], xmm0
; File z:\sources\lunor\repos\rougemeilland\palmtree.math.core.uint\palmtree.math.core.uint\pmc_exception.h

; 62   :         Exception(const Exception& p) noexcept(true)

  00036	c7 45 fc 00 00
	00 00		 mov	 DWORD PTR __$EHRec$[ebp+8], 0

; 63   :         {
; 64   :             _code = p._code;

  0003d	8b 4d 08	 mov	 ecx, DWORD PTR ___that$[ebp]
  00040	c7 02 00 00 00
	00		 mov	 DWORD PTR [edx], OFFSET ??_7Exception@Internal@Core@Math@Palmtree@@6B@
  00046	8b 41 0c	 mov	 eax, DWORD PTR [ecx+12]
  00049	89 42 0c	 mov	 DWORD PTR [edx+12], eax

; 65   :             _message = p._message;

  0004c	8b 41 10	 mov	 eax, DWORD PTR [ecx+16]
  0004f	89 42 10	 mov	 DWORD PTR [edx+16], eax

; 66   :             _data = p._data;

  00052	8b 41 14	 mov	 eax, DWORD PTR [ecx+20]
  00055	89 42 14	 mov	 DWORD PTR [edx+20], eax
  00058	c7 45 fc 01 00
	00 00		 mov	 DWORD PTR __$EHRec$[ebp+8], 1
  0005f	c7 02 00 00 00
	00		 mov	 DWORD PTR [edx], OFFSET ??_7ArithmeticException@Internal@Core@Math@Palmtree@@6B@
  00065	c7 45 fc ff ff
	ff ff		 mov	 DWORD PTR __$EHRec$[ebp+8], -1
  0006c	8b c2		 mov	 eax, edx
  0006e	8b 4d f4	 mov	 ecx, DWORD PTR __$EHRec$[ebp]
  00071	64 89 0d 00 00
	00 00		 mov	 DWORD PTR fs:0, ecx
  00078	59		 pop	 ecx
  00079	8b e5		 mov	 esp, ebp
  0007b	5d		 pop	 ebp
  0007c	c2 04 00	 ret	 4
_TEXT	ENDS
;	COMDAT text$x
text$x	SEGMENT
__unwindfunclet$??0ArithmeticException@Internal@Core@Math@Palmtree@@QAE@ABV01234@@Z$1:
  00000	8b 4d f0	 mov	 ecx, DWORD PTR _this$[ebp]
  00003	e9 00 00 00 00	 jmp	 ??1exception@std@@UAE@XZ ; std::exception::~exception
__unwindfunclet$??0ArithmeticException@Internal@Core@Math@Palmtree@@QAE@ABV01234@@Z$0:
  00008	8b 4d f0	 mov	 ecx, DWORD PTR _this$[ebp]
  0000b	e9 00 00 00 00	 jmp	 ??1Exception@Internal@Core@Math@Palmtree@@UAE@XZ ; Palmtree::Math::Core::Internal::Exception::~Exception
__ehhandler$??0ArithmeticException@Internal@Core@Math@Palmtree@@QAE@ABV01234@@Z:
  00010	8b 54 24 08	 mov	 edx, DWORD PTR [esp+8]
  00014	8d 42 0c	 lea	 eax, DWORD PTR [edx+12]
  00017	8b 4a f8	 mov	 ecx, DWORD PTR [edx-8]
  0001a	33 c8		 xor	 ecx, eax
  0001c	e8 00 00 00 00	 call	 @__security_check_cookie@4
  00021	b8 00 00 00 00	 mov	 eax, OFFSET __ehfuncinfo$??0ArithmeticException@Internal@Core@Math@Palmtree@@QAE@ABV01234@@Z
  00026	e9 00 00 00 00	 jmp	 ___CxxFrameHandler3
text$x	ENDS
??0ArithmeticException@Internal@Core@Math@Palmtree@@QAE@ABV01234@@Z ENDP ; Palmtree::Math::Core::Internal::ArithmeticException::ArithmeticException
; Function compile flags: /Ogtp
; File z:\sources\lunor\repos\rougemeilland\palmtree.math.core.uint\palmtree.math.core.uint\pmc_exception.h
; File c:\program files (x86)\microsoft visual studio\2017\community\vc\tools\msvc\14.16.27023\include\vcruntime_exception.h
; File z:\sources\lunor\repos\rougemeilland\palmtree.math.core.uint\palmtree.math.core.uint\pmc_exception.h
;	COMDAT ??1ArithmeticException@Internal@Core@Math@Palmtree@@UAE@XZ
_TEXT	SEGMENT
_this$ = -16						; size = 4
__$EHRec$ = -12						; size = 12
??1ArithmeticException@Internal@Core@Math@Palmtree@@UAE@XZ PROC ; Palmtree::Math::Core::Internal::ArithmeticException::~ArithmeticException, COMDAT
; _this$ = ecx

; 200  :         {

  00000	55		 push	 ebp
  00001	8b ec		 mov	 ebp, esp
  00003	6a ff		 push	 -1
  00005	68 00 00 00 00	 push	 __ehhandler$??1ArithmeticException@Internal@Core@Math@Palmtree@@UAE@XZ
  0000a	64 a1 00 00 00
	00		 mov	 eax, DWORD PTR fs:0
  00010	50		 push	 eax
  00011	51		 push	 ecx
  00012	a1 00 00 00 00	 mov	 eax, DWORD PTR ___security_cookie
  00017	33 c5		 xor	 eax, ebp
  00019	50		 push	 eax
  0001a	8d 45 f4	 lea	 eax, DWORD PTR __$EHRec$[ebp]
  0001d	64 a3 00 00 00
	00		 mov	 DWORD PTR fs:0, eax
  00023	89 4d f0	 mov	 DWORD PTR _this$[ebp], ecx
  00026	c7 01 00 00 00
	00		 mov	 DWORD PTR [ecx], OFFSET ??_7ArithmeticException@Internal@Core@Math@Palmtree@@6B@

; 201  :         }

  0002c	c7 45 fc ff ff
	ff ff		 mov	 DWORD PTR __$EHRec$[ebp+8], -1

; 70   :         {

  00033	c7 01 00 00 00
	00		 mov	 DWORD PTR [ecx], OFFSET ??_7Exception@Internal@Core@Math@Palmtree@@6B@

; 71   :         }

  00039	c7 45 fc ff ff
	ff ff		 mov	 DWORD PTR __$EHRec$[ebp+8], -1
; File c:\program files (x86)\microsoft visual studio\2017\community\vc\tools\msvc\14.16.27023\include\vcruntime_exception.h

; 86   :         __std_exception_destroy(&_Data);

  00040	8d 41 04	 lea	 eax, DWORD PTR [ecx+4]
  00043	50		 push	 eax
  00044	c7 01 00 00 00
	00		 mov	 DWORD PTR [ecx], OFFSET ??_7exception@std@@6B@
  0004a	e8 00 00 00 00	 call	 ___std_exception_destroy
  0004f	83 c4 04	 add	 esp, 4
; File z:\sources\lunor\repos\rougemeilland\palmtree.math.core.uint\palmtree.math.core.uint\pmc_exception.h

; 201  :         }

  00052	8b 4d f4	 mov	 ecx, DWORD PTR __$EHRec$[ebp]
  00055	64 89 0d 00 00
	00 00		 mov	 DWORD PTR fs:0, ecx
  0005c	59		 pop	 ecx
  0005d	8b e5		 mov	 esp, ebp
  0005f	5d		 pop	 ebp
  00060	c3		 ret	 0
_TEXT	ENDS
;	COMDAT text$x
text$x	SEGMENT
__unwindfunclet$??1ArithmeticException@Internal@Core@Math@Palmtree@@UAE@XZ$0:
  00000	8b 4d f0	 mov	 ecx, DWORD PTR _this$[ebp]
  00003	e9 00 00 00 00	 jmp	 ??1Exception@Internal@Core@Math@Palmtree@@UAE@XZ ; Palmtree::Math::Core::Internal::Exception::~Exception
__unwindfunclet$??1ArithmeticException@Internal@Core@Math@Palmtree@@UAE@XZ$1:
  00008	8b 4d f0	 mov	 ecx, DWORD PTR _this$[ebp]
  0000b	e9 00 00 00 00	 jmp	 ??1exception@std@@UAE@XZ ; std::exception::~exception
__ehhandler$??1ArithmeticException@Internal@Core@Math@Palmtree@@UAE@XZ:
  00010	8b 54 24 08	 mov	 edx, DWORD PTR [esp+8]
  00014	8d 42 0c	 lea	 eax, DWORD PTR [edx+12]
  00017	8b 4a f8	 mov	 ecx, DWORD PTR [edx-8]
  0001a	33 c8		 xor	 ecx, eax
  0001c	e8 00 00 00 00	 call	 @__security_check_cookie@4
  00021	b8 00 00 00 00	 mov	 eax, OFFSET __ehfuncinfo$??1ArithmeticException@Internal@Core@Math@Palmtree@@UAE@XZ
  00026	e9 00 00 00 00	 jmp	 ___CxxFrameHandler3
text$x	ENDS
??1ArithmeticException@Internal@Core@Math@Palmtree@@UAE@XZ ENDP ; Palmtree::Math::Core::Internal::ArithmeticException::~ArithmeticException
; Function compile flags: /Ogtp
; File z:\sources\lunor\repos\rougemeilland\palmtree.math.core.uint\palmtree.math.core.uint\pmc_exception.h
; File c:\program files (x86)\microsoft visual studio\2017\community\vc\tools\msvc\14.16.27023\include\vcruntime_exception.h
; File z:\sources\lunor\repos\rougemeilland\palmtree.math.core.uint\palmtree.math.core.uint\pmc_exception.h
;	COMDAT ??0ArithmeticException@Internal@Core@Math@Palmtree@@QAE@PB_W@Z
_TEXT	SEGMENT
_this$ = -16						; size = 4
__$EHRec$ = -12						; size = 12
_message$ = 8						; size = 4
??0ArithmeticException@Internal@Core@Math@Palmtree@@QAE@PB_W@Z PROC ; Palmtree::Math::Core::Internal::ArithmeticException::ArithmeticException, COMDAT
; _this$ = ecx

; 191  :         {

  00000	55		 push	 ebp
  00001	8b ec		 mov	 ebp, esp
  00003	6a ff		 push	 -1
  00005	68 00 00 00 00	 push	 __ehhandler$??0ArithmeticException@Internal@Core@Math@Palmtree@@QAE@PB_W@Z
  0000a	64 a1 00 00 00
	00		 mov	 eax, DWORD PTR fs:0
  00010	50		 push	 eax
  00011	51		 push	 ecx
  00012	a1 00 00 00 00	 mov	 eax, DWORD PTR ___security_cookie
  00017	33 c5		 xor	 eax, ebp
  00019	50		 push	 eax
  0001a	8d 45 f4	 lea	 eax, DWORD PTR __$EHRec$[ebp]
  0001d	64 a3 00 00 00
	00		 mov	 DWORD PTR fs:0, eax
  00023	89 4d f0	 mov	 DWORD PTR _this$[ebp], ecx
  00026	0f 57 c0	 xorps	 xmm0, xmm0
; File c:\program files (x86)\microsoft visual studio\2017\community\vc\tools\msvc\14.16.27023\include\vcruntime_exception.h

; 50   :     {

  00029	c7 01 00 00 00
	00		 mov	 DWORD PTR [ecx], OFFSET ??_7exception@std@@6B@
  0002f	66 0f d6 41 04	 movq	 QWORD PTR [ecx+4], xmm0
; File z:\sources\lunor\repos\rougemeilland\palmtree.math.core.uint\palmtree.math.core.uint\pmc_exception.h

; 47   :         Exception(PMC_STATUS_CODE code, const wchar_t* message) noexcept(true)

  00034	c7 45 fc 00 00
	00 00		 mov	 DWORD PTR __$EHRec$[ebp+8], 0

; 48   :         {
; 49   :             _code = code;
; 50   :             _message = message;

  0003b	8b 45 08	 mov	 eax, DWORD PTR _message$[ebp]
  0003e	c7 01 00 00 00
	00		 mov	 DWORD PTR [ecx], OFFSET ??_7Exception@Internal@Core@Math@Palmtree@@6B@
  00044	c7 41 0c fa ff
	ff ff		 mov	 DWORD PTR [ecx+12], -6	; fffffffaH
  0004b	89 41 10	 mov	 DWORD PTR [ecx+16], eax

; 51   :             _data = nullptr;

  0004e	c7 41 14 00 00
	00 00		 mov	 DWORD PTR [ecx+20], 0

; 52   :         }
; 53   : 
; 54   :         Exception(PMC_STATUS_CODE code, const wchar_t* message, const wchar_t* data) noexcept(true)
; 55   :         {
; 56   :             _code = code;
; 57   :             _message = message;
; 58   :             _data = data;
; 59   :         }
; 60   : 
; 61   :     public:
; 62   :         Exception(const Exception& p) noexcept(true)
; 63   :         {
; 64   :             _code = p._code;
; 65   :             _message = p._message;
; 66   :             _data = p._data;
; 67   :         }
; 68   : 
; 69   :         virtual ~Exception() noexcept(true)
; 70   :         {
; 71   :         }
; 72   : 
; 73   :         PMC_STATUS_CODE GetStatusCode() const noexcept(true)
; 74   :         {
; 75   :             return (_code);
; 76   :         }
; 77   : 
; 78   :         wchar_t const* What() const noexcept(true)
; 79   :         {
; 80   :             return (_message);
; 81   :         }
; 82   : 
; 83   :         wchar_t const* Data() const noexcept(true)
; 84   :         {
; 85   :             return (_data);
; 86   :         }
; 87   : 
; 88   :     };
; 89   : 
; 90   :     class ArgumentException
; 91   :         : public Exception
; 92   :     {
; 93   :     public:
; 94   :         ArgumentException(const wchar_t* message) noexcept(true)
; 95   :             : Exception(PMC_STATUS_ARGUMENT_ERROR, message)
; 96   :         {
; 97   :         }
; 98   : 
; 99   :         ArgumentException(const ArgumentException& p) noexcept(true)
; 100  :             : Exception(p)
; 101  :         {
; 102  :         }
; 103  : 
; 104  :         virtual ~ArgumentException() noexcept(true)
; 105  :         {
; 106  :         }
; 107  :     };
; 108  : 
; 109  :     class ArgumentNullException
; 110  :         : public Exception
; 111  :     {
; 112  :     public:
; 113  :         ArgumentNullException(const wchar_t* message, const wchar_t* param_name) noexcept(true)
; 114  :             : Exception(PMC_STATUS_ARGUMENT_NULL_ERROR, message, param_name)
; 115  :         {
; 116  :         }
; 117  : 
; 118  :         ArgumentNullException(const ArgumentNullException& p) noexcept(true)
; 119  :             : Exception(p)
; 120  :         {
; 121  :         }
; 122  : 
; 123  :         virtual ~ArgumentNullException() noexcept(true)
; 124  :         {
; 125  :         }
; 126  :     };
; 127  : 
; 128  :     class ArgumentOutOfRangeException
; 129  :         : public Exception
; 130  :     {
; 131  :     public:
; 132  :         ArgumentOutOfRangeException(const wchar_t* message) noexcept(true)
; 133  :             : Exception(PMC_STATUS_ARGUMENT_OUT_OF_RANGE_ERROR, message)
; 134  :         {
; 135  :         }
; 136  : 
; 137  :         ArgumentOutOfRangeException(const ArgumentOutOfRangeException& p) noexcept(true)
; 138  :             : Exception(p)
; 139  :         {
; 140  :         }
; 141  : 
; 142  :         virtual ~ArgumentOutOfRangeException() noexcept(true)
; 143  :         {
; 144  :         }
; 145  :     };
; 146  : 
; 147  :     class OverflowException
; 148  :         : public Exception
; 149  :     {
; 150  :     public:
; 151  :         OverflowException(const wchar_t* message) noexcept(true)
; 152  :             : Exception(PMC_STATUS_OVERFLOW, message)
; 153  :         {
; 154  :         }
; 155  : 
; 156  :         OverflowException(const OverflowException& p) noexcept(true)
; 157  :             : Exception(p)
; 158  :         {
; 159  :         }
; 160  : 
; 161  :         virtual ~OverflowException() noexcept(true)
; 162  :         {
; 163  :         }
; 164  :     };
; 165  : 
; 166  :     class DivisionByZeroException
; 167  :         : public Exception
; 168  :     {
; 169  :     public:
; 170  :         DivisionByZeroException(const wchar_t* message) noexcept(true)
; 171  :             : Exception(PMC_STATUS_DIVISION_BY_ZERO, message)
; 172  :         {
; 173  :         }
; 174  : 
; 175  :         DivisionByZeroException(const DivisionByZeroException& p) noexcept(true)
; 176  :             : Exception(p)
; 177  :         {
; 178  :         }
; 179  : 
; 180  :         virtual ~DivisionByZeroException() noexcept(true)
; 181  :         {
; 182  :         }
; 183  :     };
; 184  : 
; 185  :     class ArithmeticException
; 186  :         : public Exception
; 187  :     {
; 188  :     public:
; 189  :         ArithmeticException(const wchar_t* message) noexcept(true)
; 190  :             : Exception(PMC_STATUS_ARITHMETIC_ERROR, message)

  00055	c7 45 fc 01 00
	00 00		 mov	 DWORD PTR __$EHRec$[ebp+8], 1

; 191  :         {

  0005c	c7 01 00 00 00
	00		 mov	 DWORD PTR [ecx], OFFSET ??_7ArithmeticException@Internal@Core@Math@Palmtree@@6B@

; 192  :         }

  00062	c7 45 fc ff ff
	ff ff		 mov	 DWORD PTR __$EHRec$[ebp+8], -1
  00069	8b c1		 mov	 eax, ecx
  0006b	8b 4d f4	 mov	 ecx, DWORD PTR __$EHRec$[ebp]
  0006e	64 89 0d 00 00
	00 00		 mov	 DWORD PTR fs:0, ecx
  00075	59		 pop	 ecx
  00076	8b e5		 mov	 esp, ebp
  00078	5d		 pop	 ebp
  00079	c2 04 00	 ret	 4
_TEXT	ENDS
;	COMDAT text$x
text$x	SEGMENT
__unwindfunclet$??0ArithmeticException@Internal@Core@Math@Palmtree@@QAE@PB_W@Z$1:
  00000	8b 4d f0	 mov	 ecx, DWORD PTR _this$[ebp]
  00003	e9 00 00 00 00	 jmp	 ??1exception@std@@UAE@XZ ; std::exception::~exception
__unwindfunclet$??0ArithmeticException@Internal@Core@Math@Palmtree@@QAE@PB_W@Z$0:
  00008	8b 4d f0	 mov	 ecx, DWORD PTR _this$[ebp]
  0000b	e9 00 00 00 00	 jmp	 ??1Exception@Internal@Core@Math@Palmtree@@UAE@XZ ; Palmtree::Math::Core::Internal::Exception::~Exception
__ehhandler$??0ArithmeticException@Internal@Core@Math@Palmtree@@QAE@PB_W@Z:
  00010	8b 54 24 08	 mov	 edx, DWORD PTR [esp+8]
  00014	8d 42 0c	 lea	 eax, DWORD PTR [edx+12]
  00017	8b 4a f8	 mov	 ecx, DWORD PTR [edx-8]
  0001a	33 c8		 xor	 ecx, eax
  0001c	e8 00 00 00 00	 call	 @__security_check_cookie@4
  00021	b8 00 00 00 00	 mov	 eax, OFFSET __ehfuncinfo$??0ArithmeticException@Internal@Core@Math@Palmtree@@QAE@PB_W@Z
  00026	e9 00 00 00 00	 jmp	 ___CxxFrameHandler3
text$x	ENDS
??0ArithmeticException@Internal@Core@Math@Palmtree@@QAE@PB_W@Z ENDP ; Palmtree::Math::Core::Internal::ArithmeticException::ArithmeticException
; Function compile flags: /Ogtp
; File z:\sources\lunor\repos\rougemeilland\palmtree.math.core.uint\palmtree.math.core.uint\pmc_exception.h
; File c:\program files (x86)\microsoft visual studio\2017\community\vc\tools\msvc\14.16.27023\include\vcruntime_exception.h
;	COMDAT ??_GArgumentNullException@Internal@Core@Math@Palmtree@@UAEPAXI@Z
_TEXT	SEGMENT
_this$ = -16						; size = 4
__$EHRec$ = -12						; size = 12
___flags$ = 8						; size = 4
??_GArgumentNullException@Internal@Core@Math@Palmtree@@UAEPAXI@Z PROC ; Palmtree::Math::Core::Internal::ArgumentNullException::`scalar deleting destructor', COMDAT
; _this$ = ecx
  00000	55		 push	 ebp
  00001	8b ec		 mov	 ebp, esp
  00003	6a ff		 push	 -1
  00005	68 00 00 00 00	 push	 __ehhandler$??_GArgumentNullException@Internal@Core@Math@Palmtree@@UAEPAXI@Z
  0000a	64 a1 00 00 00
	00		 mov	 eax, DWORD PTR fs:0
  00010	50		 push	 eax
  00011	51		 push	 ecx
  00012	56		 push	 esi
  00013	a1 00 00 00 00	 mov	 eax, DWORD PTR ___security_cookie
  00018	33 c5		 xor	 eax, ebp
  0001a	50		 push	 eax
  0001b	8d 45 f4	 lea	 eax, DWORD PTR __$EHRec$[ebp]
  0001e	64 a3 00 00 00
	00		 mov	 DWORD PTR fs:0, eax
  00024	8b f1		 mov	 esi, ecx
  00026	89 75 f0	 mov	 DWORD PTR _this$[ebp], esi
; File z:\sources\lunor\repos\rougemeilland\palmtree.math.core.uint\palmtree.math.core.uint\pmc_exception.h

; 124  :         {

  00029	c7 06 00 00 00
	00		 mov	 DWORD PTR [esi], OFFSET ??_7ArgumentNullException@Internal@Core@Math@Palmtree@@6B@

; 125  :         }

  0002f	c7 45 fc ff ff
	ff ff		 mov	 DWORD PTR __$EHRec$[ebp+8], -1

; 70   :         {

  00036	c7 06 00 00 00
	00		 mov	 DWORD PTR [esi], OFFSET ??_7Exception@Internal@Core@Math@Palmtree@@6B@

; 71   :         }

  0003c	c7 45 fc ff ff
	ff ff		 mov	 DWORD PTR __$EHRec$[ebp+8], -1
; File c:\program files (x86)\microsoft visual studio\2017\community\vc\tools\msvc\14.16.27023\include\vcruntime_exception.h

; 86   :         __std_exception_destroy(&_Data);

  00043	8d 46 04	 lea	 eax, DWORD PTR [esi+4]
  00046	50		 push	 eax
  00047	c7 06 00 00 00
	00		 mov	 DWORD PTR [esi], OFFSET ??_7exception@std@@6B@
  0004d	e8 00 00 00 00	 call	 ___std_exception_destroy
  00052	83 c4 04	 add	 esp, 4
  00055	f6 45 08 01	 test	 BYTE PTR ___flags$[ebp], 1
  00059	74 0b		 je	 SHORT $LN12@scalar
  0005b	6a 18		 push	 24			; 00000018H
  0005d	56		 push	 esi
  0005e	e8 00 00 00 00	 call	 ??3@YAXPAXI@Z		; operator delete
  00063	83 c4 08	 add	 esp, 8
$LN12@scalar:
  00066	8b c6		 mov	 eax, esi
  00068	8b 4d f4	 mov	 ecx, DWORD PTR __$EHRec$[ebp]
  0006b	64 89 0d 00 00
	00 00		 mov	 DWORD PTR fs:0, ecx
  00072	59		 pop	 ecx
  00073	5e		 pop	 esi
  00074	8b e5		 mov	 esp, ebp
  00076	5d		 pop	 ebp
  00077	c2 04 00	 ret	 4
_TEXT	ENDS
;	COMDAT text$x
text$x	SEGMENT
__unwindfunclet$??_GArgumentNullException@Internal@Core@Math@Palmtree@@UAEPAXI@Z$0:
  00000	8b 4d f0	 mov	 ecx, DWORD PTR _this$[ebp]
  00003	e9 00 00 00 00	 jmp	 ??1Exception@Internal@Core@Math@Palmtree@@UAE@XZ ; Palmtree::Math::Core::Internal::Exception::~Exception
__unwindfunclet$??_GArgumentNullException@Internal@Core@Math@Palmtree@@UAEPAXI@Z$1:
  00008	8b 4d f0	 mov	 ecx, DWORD PTR _this$[ebp]
  0000b	e9 00 00 00 00	 jmp	 ??1exception@std@@UAE@XZ ; std::exception::~exception
__ehhandler$??_GArgumentNullException@Internal@Core@Math@Palmtree@@UAEPAXI@Z:
  00010	8b 54 24 08	 mov	 edx, DWORD PTR [esp+8]
  00014	8d 42 0c	 lea	 eax, DWORD PTR [edx+12]
  00017	8b 4a f4	 mov	 ecx, DWORD PTR [edx-12]
  0001a	33 c8		 xor	 ecx, eax
  0001c	e8 00 00 00 00	 call	 @__security_check_cookie@4
  00021	b8 00 00 00 00	 mov	 eax, OFFSET __ehfuncinfo$??_GArgumentNullException@Internal@Core@Math@Palmtree@@UAEPAXI@Z
  00026	e9 00 00 00 00	 jmp	 ___CxxFrameHandler3
text$x	ENDS
??_GArgumentNullException@Internal@Core@Math@Palmtree@@UAEPAXI@Z ENDP ; Palmtree::Math::Core::Internal::ArgumentNullException::`scalar deleting destructor'
; Function compile flags: /Ogtp
; File z:\sources\lunor\repos\rougemeilland\palmtree.math.core.uint\palmtree.math.core.uint\pmc_exception.h
; File c:\program files (x86)\microsoft visual studio\2017\community\vc\tools\msvc\14.16.27023\include\vcruntime_exception.h
; File z:\sources\lunor\repos\rougemeilland\palmtree.math.core.uint\palmtree.math.core.uint\pmc_exception.h
;	COMDAT ??1ArgumentNullException@Internal@Core@Math@Palmtree@@UAE@XZ
_TEXT	SEGMENT
_this$ = -16						; size = 4
__$EHRec$ = -12						; size = 12
??1ArgumentNullException@Internal@Core@Math@Palmtree@@UAE@XZ PROC ; Palmtree::Math::Core::Internal::ArgumentNullException::~ArgumentNullException, COMDAT
; _this$ = ecx

; 124  :         {

  00000	55		 push	 ebp
  00001	8b ec		 mov	 ebp, esp
  00003	6a ff		 push	 -1
  00005	68 00 00 00 00	 push	 __ehhandler$??1ArgumentNullException@Internal@Core@Math@Palmtree@@UAE@XZ
  0000a	64 a1 00 00 00
	00		 mov	 eax, DWORD PTR fs:0
  00010	50		 push	 eax
  00011	51		 push	 ecx
  00012	a1 00 00 00 00	 mov	 eax, DWORD PTR ___security_cookie
  00017	33 c5		 xor	 eax, ebp
  00019	50		 push	 eax
  0001a	8d 45 f4	 lea	 eax, DWORD PTR __$EHRec$[ebp]
  0001d	64 a3 00 00 00
	00		 mov	 DWORD PTR fs:0, eax
  00023	89 4d f0	 mov	 DWORD PTR _this$[ebp], ecx
  00026	c7 01 00 00 00
	00		 mov	 DWORD PTR [ecx], OFFSET ??_7ArgumentNullException@Internal@Core@Math@Palmtree@@6B@

; 125  :         }

  0002c	c7 45 fc ff ff
	ff ff		 mov	 DWORD PTR __$EHRec$[ebp+8], -1

; 70   :         {

  00033	c7 01 00 00 00
	00		 mov	 DWORD PTR [ecx], OFFSET ??_7Exception@Internal@Core@Math@Palmtree@@6B@

; 71   :         }

  00039	c7 45 fc ff ff
	ff ff		 mov	 DWORD PTR __$EHRec$[ebp+8], -1
; File c:\program files (x86)\microsoft visual studio\2017\community\vc\tools\msvc\14.16.27023\include\vcruntime_exception.h

; 86   :         __std_exception_destroy(&_Data);

  00040	8d 41 04	 lea	 eax, DWORD PTR [ecx+4]
  00043	50		 push	 eax
  00044	c7 01 00 00 00
	00		 mov	 DWORD PTR [ecx], OFFSET ??_7exception@std@@6B@
  0004a	e8 00 00 00 00	 call	 ___std_exception_destroy
  0004f	83 c4 04	 add	 esp, 4
; File z:\sources\lunor\repos\rougemeilland\palmtree.math.core.uint\palmtree.math.core.uint\pmc_exception.h

; 125  :         }

  00052	8b 4d f4	 mov	 ecx, DWORD PTR __$EHRec$[ebp]
  00055	64 89 0d 00 00
	00 00		 mov	 DWORD PTR fs:0, ecx
  0005c	59		 pop	 ecx
  0005d	8b e5		 mov	 esp, ebp
  0005f	5d		 pop	 ebp
  00060	c3		 ret	 0
_TEXT	ENDS
;	COMDAT text$x
text$x	SEGMENT
__unwindfunclet$??1ArgumentNullException@Internal@Core@Math@Palmtree@@UAE@XZ$0:
  00000	8b 4d f0	 mov	 ecx, DWORD PTR _this$[ebp]
  00003	e9 00 00 00 00	 jmp	 ??1Exception@Internal@Core@Math@Palmtree@@UAE@XZ ; Palmtree::Math::Core::Internal::Exception::~Exception
__unwindfunclet$??1ArgumentNullException@Internal@Core@Math@Palmtree@@UAE@XZ$1:
  00008	8b 4d f0	 mov	 ecx, DWORD PTR _this$[ebp]
  0000b	e9 00 00 00 00	 jmp	 ??1exception@std@@UAE@XZ ; std::exception::~exception
__ehhandler$??1ArgumentNullException@Internal@Core@Math@Palmtree@@UAE@XZ:
  00010	8b 54 24 08	 mov	 edx, DWORD PTR [esp+8]
  00014	8d 42 0c	 lea	 eax, DWORD PTR [edx+12]
  00017	8b 4a f8	 mov	 ecx, DWORD PTR [edx-8]
  0001a	33 c8		 xor	 ecx, eax
  0001c	e8 00 00 00 00	 call	 @__security_check_cookie@4
  00021	b8 00 00 00 00	 mov	 eax, OFFSET __ehfuncinfo$??1ArgumentNullException@Internal@Core@Math@Palmtree@@UAE@XZ
  00026	e9 00 00 00 00	 jmp	 ___CxxFrameHandler3
text$x	ENDS
??1ArgumentNullException@Internal@Core@Math@Palmtree@@UAE@XZ ENDP ; Palmtree::Math::Core::Internal::ArgumentNullException::~ArgumentNullException
; Function compile flags: /Ogtp
; File z:\sources\lunor\repos\rougemeilland\palmtree.math.core.uint\palmtree.math.core.uint\pmc_exception.h
