; Listing generated by Microsoft (R) Optimizing Compiler Version 19.16.27027.1 

	TITLE	Z:\Sources\Lunor\Repos\rougemeilland\Palmtree.Math.Core.Uint\Palmtree.Math.Core.Uint\pmc_tostring.cpp
	.686P
	.XMM
	include listing.inc
	.model	flat

INCLUDELIB MSVCRT
INCLUDELIB OLDNAMES

PUBLIC	??1exception@std@@UAE@XZ			; std::exception::~exception
PUBLIC	?what@exception@std@@UBEPBDXZ			; std::exception::what
PUBLIC	??_Gexception@std@@UAEPAXI@Z			; std::exception::`scalar deleting destructor'
PUBLIC	??0Exception@Internal@Core@Math@Palmtree@@QAE@ABV01234@@Z ; Palmtree::Math::Core::Internal::Exception::Exception
PUBLIC	??1Exception@Internal@Core@Math@Palmtree@@UAE@XZ ; Palmtree::Math::Core::Internal::Exception::~Exception
PUBLIC	??_GException@Internal@Core@Math@Palmtree@@UAEPAXI@Z ; Palmtree::Math::Core::Internal::Exception::`scalar deleting destructor'
PUBLIC	??0ArgumentNullException@Internal@Core@Math@Palmtree@@QAE@PB_W0@Z ; Palmtree::Math::Core::Internal::ArgumentNullException::ArgumentNullException
PUBLIC	??0ArgumentNullException@Internal@Core@Math@Palmtree@@QAE@ABV01234@@Z ; Palmtree::Math::Core::Internal::ArgumentNullException::ArgumentNullException
PUBLIC	??1ArgumentNullException@Internal@Core@Math@Palmtree@@UAE@XZ ; Palmtree::Math::Core::Internal::ArgumentNullException::~ArgumentNullException
PUBLIC	??_GArgumentNullException@Internal@Core@Math@Palmtree@@UAEPAXI@Z ; Palmtree::Math::Core::Internal::ArgumentNullException::`scalar deleting destructor'
PUBLIC	??0FormatException@Internal@Core@Math@Palmtree@@QAE@PB_W@Z ; Palmtree::Math::Core::Internal::FormatException::FormatException
PUBLIC	??0FormatException@Internal@Core@Math@Palmtree@@QAE@ABV01234@@Z ; Palmtree::Math::Core::Internal::FormatException::FormatException
PUBLIC	??1FormatException@Internal@Core@Math@Palmtree@@UAE@XZ ; Palmtree::Math::Core::Internal::FormatException::~FormatException
PUBLIC	??_GFormatException@Internal@Core@Math@Palmtree@@UAEPAXI@Z ; Palmtree::Math::Core::Internal::FormatException::`scalar deleting destructor'
PUBLIC	??0InsufficientBufferException@Internal@Core@Math@Palmtree@@QAE@PB_W@Z ; Palmtree::Math::Core::Internal::InsufficientBufferException::InsufficientBufferException
PUBLIC	??0InsufficientBufferException@Internal@Core@Math@Palmtree@@QAE@ABV01234@@Z ; Palmtree::Math::Core::Internal::InsufficientBufferException::InsufficientBufferException
PUBLIC	??1InsufficientBufferException@Internal@Core@Math@Palmtree@@UAE@XZ ; Palmtree::Math::Core::Internal::InsufficientBufferException::~InsufficientBufferException
PUBLIC	??_GInsufficientBufferException@Internal@Core@Math@Palmtree@@UAEPAXI@Z ; Palmtree::Math::Core::Internal::InsufficientBufferException::`scalar deleting destructor'
PUBLIC	??0NotSupportedException@Internal@Core@Math@Palmtree@@QAE@PB_W@Z ; Palmtree::Math::Core::Internal::NotSupportedException::NotSupportedException
PUBLIC	??0NotSupportedException@Internal@Core@Math@Palmtree@@QAE@ABV01234@@Z ; Palmtree::Math::Core::Internal::NotSupportedException::NotSupportedException
PUBLIC	??1NotSupportedException@Internal@Core@Math@Palmtree@@UAE@XZ ; Palmtree::Math::Core::Internal::NotSupportedException::~NotSupportedException
PUBLIC	??_GNotSupportedException@Internal@Core@Math@Palmtree@@UAEPAXI@Z ; Palmtree::Math::Core::Internal::NotSupportedException::`scalar deleting destructor'
PUBLIC	??0InternalErrorException@Internal@Core@Math@Palmtree@@QAE@PB_W0@Z ; Palmtree::Math::Core::Internal::InternalErrorException::InternalErrorException
PUBLIC	??0InternalErrorException@Internal@Core@Math@Palmtree@@QAE@ABV01234@@Z ; Palmtree::Math::Core::Internal::InternalErrorException::InternalErrorException
PUBLIC	??1InternalErrorException@Internal@Core@Math@Palmtree@@UAE@XZ ; Palmtree::Math::Core::Internal::InternalErrorException::~InternalErrorException
PUBLIC	??_GInternalErrorException@Internal@Core@Math@Palmtree@@UAEPAXI@Z ; Palmtree::Math::Core::Internal::InternalErrorException::`scalar deleting destructor'
PUBLIC	?PeekChar@StringReader@Internal@Core@Math@Palmtree@@UAE_WXZ ; Palmtree::Math::Core::Internal::StringReader::PeekChar
PUBLIC	?Progress@StringReader@Internal@Core@Math@Palmtree@@UAEXXZ ; Palmtree::Math::Core::Internal::StringReader::Progress
PUBLIC	?StartsWith@StringReader@Internal@Core@Math@Palmtree@@UAEHPB_W@Z ; Palmtree::Math::Core::Internal::StringReader::StartsWith
PUBLIC	?SkipString@StringReader@Internal@Core@Math@Palmtree@@UAEXPB_W@Z ; Palmtree::Math::Core::Internal::StringReader::SkipString
PUBLIC	?PeekChar@ReverseStringReader@Internal@Core@Math@Palmtree@@UAE_WXZ ; Palmtree::Math::Core::Internal::ReverseStringReader::PeekChar
PUBLIC	?Progress@ReverseStringReader@Internal@Core@Math@Palmtree@@UAEXXZ ; Palmtree::Math::Core::Internal::ReverseStringReader::Progress
PUBLIC	?StartsWith@ReverseStringReader@Internal@Core@Math@Palmtree@@UAEHPB_W@Z ; Palmtree::Math::Core::Internal::ReverseStringReader::StartsWith
PUBLIC	?SkipString@ReverseStringReader@Internal@Core@Math@Palmtree@@UAEXPB_W@Z ; Palmtree::Math::Core::Internal::ReverseStringReader::SkipString
PUBLIC	?Write@StringWriter@Internal@Core@Math@Palmtree@@UAEX_W@Z ; Palmtree::Math::Core::Internal::StringWriter::Write
PUBLIC	?Write@StringWriter@Internal@Core@Math@Palmtree@@UAEXPB_W@Z ; Palmtree::Math::Core::Internal::StringWriter::Write
PUBLIC	?GetString@StringWriter@Internal@Core@Math@Palmtree@@UAEPA_WXZ ; Palmtree::Math::Core::Internal::StringWriter::GetString
PUBLIC	??0ReverseStringWriter@Internal@Core@Math@Palmtree@@QAE@PA_WI@Z ; Palmtree::Math::Core::Internal::ReverseStringWriter::ReverseStringWriter
PUBLIC	?Write@ReverseStringWriter@Internal@Core@Math@Palmtree@@UAEX_W@Z ; Palmtree::Math::Core::Internal::ReverseStringWriter::Write
PUBLIC	?Write@ReverseStringWriter@Internal@Core@Math@Palmtree@@UAEXPB_W@Z ; Palmtree::Math::Core::Internal::ReverseStringWriter::Write
PUBLIC	?GetString@ReverseStringWriter@Internal@Core@Math@Palmtree@@UAEPA_WXZ ; Palmtree::Math::Core::Internal::ReverseStringWriter::GetString
PUBLIC	?InitializeNumberFormatoInfo@Internal@Core@Math@Palmtree@@YAXPAU__tag_PMC_NUMBER_FORMAT_INFO@1234@@Z ; Palmtree::Math::Core::Internal::InitializeNumberFormatoInfo
PUBLIC	?Initialize_ToString@Internal@Core@Math@Palmtree@@YAHPAU_tag_PROCESSOR_FEATURES@1234@@Z ; Palmtree::Math::Core::Internal::Initialize_ToString
PUBLIC	?PMC_InitializeNumberFormatInfo@Internal@Core@Math@Palmtree@@YGXPAU__tag_PMC_NUMBER_FORMAT_INFO@1234@@Z ; Palmtree::Math::Core::Internal::PMC_InitializeNumberFormatInfo
PUBLIC	?PMC_ToString@Internal@Core@Math@Palmtree@@YGIPAU__tag_PMC_HANDLE_UINT@1234@PB_WPBU__tag_PMC_NUMBER_FORMAT_INFO@1234@PA_WI@Z ; Palmtree::Math::Core::Internal::PMC_ToString
PUBLIC	??0ThousandSeparatedStringWriter@DecimalFromatter@Internal@Core@Math@Palmtree@@QAE@PAVStringWriter@2345@_WPBU__tag_PMC_NUMBER_FORMAT_INFO@2345@@Z ; Palmtree::Math::Core::Internal::DecimalFromatter::ThousandSeparatedStringWriter::ThousandSeparatedStringWriter
PUBLIC	?Write@ThousandSeparatedStringWriter@DecimalFromatter@Internal@Core@Math@Palmtree@@UAEX_W@Z ; Palmtree::Math::Core::Internal::DecimalFromatter::ThousandSeparatedStringWriter::Write
PUBLIC	?Write@ThousandSeparatedStringWriter@DecimalFromatter@Internal@Core@Math@Palmtree@@UAEXPB_W@Z ; Palmtree::Math::Core::Internal::DecimalFromatter::ThousandSeparatedStringWriter::Write
PUBLIC	?GetString@ThousandSeparatedStringWriter@DecimalFromatter@Internal@Core@Math@Palmtree@@UAEPA_WXZ ; Palmtree::Math::Core::Internal::DecimalFromatter::ThousandSeparatedStringWriter::GetString
PUBLIC	?Format@Formatter@DecimalFromatter@Internal@Core@Math@Palmtree@@QAEXDPAU__tag_NUMBER_HEADER@3456@PAVStringWriter@3456@@Z ; Palmtree::Math::Core::Internal::DecimalFromatter::Formatter::Format
PUBLIC	?FormatInternally@Formatter@DecimalFromatter@Internal@Core@Math@Palmtree@@MAEXPAU__tag_NUMBER_HEADER@3456@PAVStringWriter@3456@@Z ; Palmtree::Math::Core::Internal::DecimalFromatter::Formatter::FormatInternally
PUBLIC	?ConstructSimpleNumberSequence@Formatter@DecimalFromatter@Internal@Core@Math@Palmtree@@AAEPA_WPAIIPA_WI@Z ; Palmtree::Math::Core::Internal::DecimalFromatter::Formatter::ConstructSimpleNumberSequence
PUBLIC	?GetDefaultPrecisionValue@FormatterTypeC@DecimalFromatter@Internal@Core@Math@Palmtree@@MAEHXZ ; Palmtree::Math::Core::Internal::DecimalFromatter::FormatterTypeC::GetDefaultPrecisionValue
PUBLIC	?WriteZeroValue@FormatterTypeC@DecimalFromatter@Internal@Core@Math@Palmtree@@MAEXPAVStringWriter@3456@@Z ; Palmtree::Math::Core::Internal::DecimalFromatter::FormatterTypeC::WriteZeroValue
PUBLIC	?WritePrefix@FormatterTypeC@DecimalFromatter@Internal@Core@Math@Palmtree@@MAEXDPAVStringWriter@3456@@Z ; Palmtree::Math::Core::Internal::DecimalFromatter::FormatterTypeC::WritePrefix
PUBLIC	?FormatNumberSequence@FormatterTypeC@DecimalFromatter@Internal@Core@Math@Palmtree@@MAEXPB_WPAVStringWriter@3456@@Z ; Palmtree::Math::Core::Internal::DecimalFromatter::FormatterTypeC::FormatNumberSequence
PUBLIC	?WriteSuffix@FormatterTypeC@DecimalFromatter@Internal@Core@Math@Palmtree@@MAEXDPAVStringWriter@3456@@Z ; Palmtree::Math::Core::Internal::DecimalFromatter::FormatterTypeC::WriteSuffix
PUBLIC	?GetDefaultPrecisionValue@FormatterTypeD@DecimalFromatter@Internal@Core@Math@Palmtree@@MAEHXZ ; Palmtree::Math::Core::Internal::DecimalFromatter::FormatterTypeD::GetDefaultPrecisionValue
PUBLIC	?WriteZeroValue@FormatterTypeD@DecimalFromatter@Internal@Core@Math@Palmtree@@MAEXPAVStringWriter@3456@@Z ; Palmtree::Math::Core::Internal::DecimalFromatter::FormatterTypeD::WriteZeroValue
PUBLIC	?WritePrefix@FormatterTypeD@DecimalFromatter@Internal@Core@Math@Palmtree@@MAEXDPAVStringWriter@3456@@Z ; Palmtree::Math::Core::Internal::DecimalFromatter::FormatterTypeD::WritePrefix
PUBLIC	?FormatNumberSequence@FormatterTypeD@DecimalFromatter@Internal@Core@Math@Palmtree@@MAEXPB_WPAVStringWriter@3456@@Z ; Palmtree::Math::Core::Internal::DecimalFromatter::FormatterTypeD::FormatNumberSequence
PUBLIC	?WriteSuffix@FormatterTypeD@DecimalFromatter@Internal@Core@Math@Palmtree@@MAEXDPAVStringWriter@3456@@Z ; Palmtree::Math::Core::Internal::DecimalFromatter::FormatterTypeD::WriteSuffix
PUBLIC	?GetDefaultPrecisionValue@FormatterTypeE@DecimalFromatter@Internal@Core@Math@Palmtree@@MAEHXZ ; Palmtree::Math::Core::Internal::DecimalFromatter::FormatterTypeE::GetDefaultPrecisionValue
PUBLIC	?WriteZeroValue@FormatterTypeE@DecimalFromatter@Internal@Core@Math@Palmtree@@MAEXPAVStringWriter@3456@@Z ; Palmtree::Math::Core::Internal::DecimalFromatter::FormatterTypeE::WriteZeroValue
PUBLIC	?FormatInternally@FormatterTypeE@DecimalFromatter@Internal@Core@Math@Palmtree@@MAEXPAU__tag_NUMBER_HEADER@3456@PAVStringWriter@3456@@Z ; Palmtree::Math::Core::Internal::DecimalFromatter::FormatterTypeE::FormatInternally
PUBLIC	?WritePrefix@FormatterTypeE@DecimalFromatter@Internal@Core@Math@Palmtree@@MAEXDPAVStringWriter@3456@@Z ; Palmtree::Math::Core::Internal::DecimalFromatter::FormatterTypeE::WritePrefix
PUBLIC	?FormatNumberSequence@FormatterTypeE@DecimalFromatter@Internal@Core@Math@Palmtree@@MAEXPB_WPAVStringWriter@3456@@Z ; Palmtree::Math::Core::Internal::DecimalFromatter::FormatterTypeE::FormatNumberSequence
PUBLIC	?WriteSuffix@FormatterTypeE@DecimalFromatter@Internal@Core@Math@Palmtree@@MAEXDPAVStringWriter@3456@@Z ; Palmtree::Math::Core::Internal::DecimalFromatter::FormatterTypeE::WriteSuffix
PUBLIC	?GetDefaultPrecisionValue@FormatterTypeF@DecimalFromatter@Internal@Core@Math@Palmtree@@MAEHXZ ; Palmtree::Math::Core::Internal::DecimalFromatter::FormatterTypeF::GetDefaultPrecisionValue
PUBLIC	?WriteZeroValue@FormatterTypeF@DecimalFromatter@Internal@Core@Math@Palmtree@@MAEXPAVStringWriter@3456@@Z ; Palmtree::Math::Core::Internal::DecimalFromatter::FormatterTypeF::WriteZeroValue
PUBLIC	?WritePrefix@FormatterTypeF@DecimalFromatter@Internal@Core@Math@Palmtree@@MAEXDPAVStringWriter@3456@@Z ; Palmtree::Math::Core::Internal::DecimalFromatter::FormatterTypeF::WritePrefix
PUBLIC	?FormatNumberSequence@FormatterTypeF@DecimalFromatter@Internal@Core@Math@Palmtree@@MAEXPB_WPAVStringWriter@3456@@Z ; Palmtree::Math::Core::Internal::DecimalFromatter::FormatterTypeF::FormatNumberSequence
PUBLIC	?WriteSuffix@FormatterTypeF@DecimalFromatter@Internal@Core@Math@Palmtree@@MAEXDPAVStringWriter@3456@@Z ; Palmtree::Math::Core::Internal::DecimalFromatter::FormatterTypeF::WriteSuffix
PUBLIC	?GetDefaultPrecisionValue@FormatterTypeN@DecimalFromatter@Internal@Core@Math@Palmtree@@MAEHXZ ; Palmtree::Math::Core::Internal::DecimalFromatter::FormatterTypeN::GetDefaultPrecisionValue
PUBLIC	?WriteZeroValue@FormatterTypeN@DecimalFromatter@Internal@Core@Math@Palmtree@@MAEXPAVStringWriter@3456@@Z ; Palmtree::Math::Core::Internal::DecimalFromatter::FormatterTypeN::WriteZeroValue
PUBLIC	?WritePrefix@FormatterTypeN@DecimalFromatter@Internal@Core@Math@Palmtree@@MAEXDPAVStringWriter@3456@@Z ; Palmtree::Math::Core::Internal::DecimalFromatter::FormatterTypeN::WritePrefix
PUBLIC	?FormatNumberSequence@FormatterTypeN@DecimalFromatter@Internal@Core@Math@Palmtree@@MAEXPB_WPAVStringWriter@3456@@Z ; Palmtree::Math::Core::Internal::DecimalFromatter::FormatterTypeN::FormatNumberSequence
PUBLIC	?WriteSuffix@FormatterTypeN@DecimalFromatter@Internal@Core@Math@Palmtree@@MAEXDPAVStringWriter@3456@@Z ; Palmtree::Math::Core::Internal::DecimalFromatter::FormatterTypeN::WriteSuffix
PUBLIC	?GetDefaultPrecisionValue@FormatterTypeP@DecimalFromatter@Internal@Core@Math@Palmtree@@MAEHXZ ; Palmtree::Math::Core::Internal::DecimalFromatter::FormatterTypeP::GetDefaultPrecisionValue
PUBLIC	?WriteZeroValue@FormatterTypeP@DecimalFromatter@Internal@Core@Math@Palmtree@@MAEXPAVStringWriter@3456@@Z ; Palmtree::Math::Core::Internal::DecimalFromatter::FormatterTypeP::WriteZeroValue
PUBLIC	?FormatInternally@FormatterTypeP@DecimalFromatter@Internal@Core@Math@Palmtree@@MAEXPAU__tag_NUMBER_HEADER@3456@PAVStringWriter@3456@@Z ; Palmtree::Math::Core::Internal::DecimalFromatter::FormatterTypeP::FormatInternally
PUBLIC	?WritePrefix@FormatterTypeP@DecimalFromatter@Internal@Core@Math@Palmtree@@MAEXDPAVStringWriter@3456@@Z ; Palmtree::Math::Core::Internal::DecimalFromatter::FormatterTypeP::WritePrefix
PUBLIC	?FormatNumberSequence@FormatterTypeP@DecimalFromatter@Internal@Core@Math@Palmtree@@MAEXPB_WPAVStringWriter@3456@@Z ; Palmtree::Math::Core::Internal::DecimalFromatter::FormatterTypeP::FormatNumberSequence
PUBLIC	?WriteSuffix@FormatterTypeP@DecimalFromatter@Internal@Core@Math@Palmtree@@MAEXDPAVStringWriter@3456@@Z ; Palmtree::Math::Core::Internal::DecimalFromatter::FormatterTypeP::WriteSuffix
PUBLIC	??_7exception@std@@6B@				; std::exception::`vftable'
PUBLIC	??_C@_0BC@EOODALEL@Unknown?5exception@		; `string'
PUBLIC	??_7Exception@Internal@Core@Math@Palmtree@@6B@	; Palmtree::Math::Core::Internal::Exception::`vftable'
PUBLIC	??_7ArgumentNullException@Internal@Core@Math@Palmtree@@6B@ ; Palmtree::Math::Core::Internal::ArgumentNullException::`vftable'
PUBLIC	??_7FormatException@Internal@Core@Math@Palmtree@@6B@ ; Palmtree::Math::Core::Internal::FormatException::`vftable'
PUBLIC	??_7InsufficientBufferException@Internal@Core@Math@Palmtree@@6B@ ; Palmtree::Math::Core::Internal::InsufficientBufferException::`vftable'
PUBLIC	??_7NotSupportedException@Internal@Core@Math@Palmtree@@6B@ ; Palmtree::Math::Core::Internal::NotSupportedException::`vftable'
PUBLIC	??_7InternalErrorException@Internal@Core@Math@Palmtree@@6B@ ; Palmtree::Math::Core::Internal::InternalErrorException::`vftable'
PUBLIC	??_7StringReader@Internal@Core@Math@Palmtree@@6B@ ; Palmtree::Math::Core::Internal::StringReader::`vftable'
PUBLIC	__TI2?AVInternalErrorException@Internal@Core@Math@Palmtree@@
PUBLIC	__CTA2?AVInternalErrorException@Internal@Core@Math@Palmtree@@
PUBLIC	??_R0?AVInternalErrorException@Internal@Core@Math@Palmtree@@@8 ; Palmtree::Math::Core::Internal::InternalErrorException `RTTI Type Descriptor'
PUBLIC	__CT??_R0?AVInternalErrorException@Internal@Core@Math@Palmtree@@@8??0InternalErrorException@Internal@Core@Math@Palmtree@@QAE@ABV01234@@Z24
PUBLIC	??_R0?AVException@Internal@Core@Math@Palmtree@@@8 ; Palmtree::Math::Core::Internal::Exception `RTTI Type Descriptor'
PUBLIC	__CT??_R0?AVException@Internal@Core@Math@Palmtree@@@8??0Exception@Internal@Core@Math@Palmtree@@QAE@ABV01234@@Z24
PUBLIC	??_C@_1FA@CNGEABBJ@?$AAp?$AAm?$AAc?$AA_?$AAs?$AAt?$AAr?$AAi?$AAn?$AAg?$AAi?$AAo?$AA?4?$AAh?$AA?$DL@ ; `string'
PUBLIC	??_C@_1BM@FCPAHMHB@?$PP?$IF?$PP?h?$PP?$KI?$PP?i?$PP?$PM?$AAL?$AAz?$AA?$BP?$AAW?$AA?$HO?$AAW?$AA_?$AA?$AC@ ; `string'
PUBLIC	??_C@_1FE@KONPIGEM@?$AAp?$AAm?$AAc?$AA_?$AAs?$AAt?$AAr?$AAi?$AAn?$AAg?$AAi?$AAo?$AA?4?$AAh?$AA?$DL@ ; `string'
PUBLIC	??_7ReverseStringReader@Internal@Core@Math@Palmtree@@6B@ ; Palmtree::Math::Core::Internal::ReverseStringReader::`vftable'
PUBLIC	??_C@_1FO@BNHGDLLE@?$AAp?$AAm?$AAc?$AA_?$AAs?$AAt?$AAr?$AAi?$AAn?$AAg?$AAi?$AAo?$AA?4?$AAh?$AA?$DL@ ; `string'
PUBLIC	??_C@_1GC@GGAPGHKN@?$AAp?$AAm?$AAc?$AA_?$AAs?$AAt?$AAr?$AAi?$AAn?$AAg?$AAi?$AAo?$AA?4?$AAh?$AA?$DL@ ; `string'
PUBLIC	??_7StringWriter@Internal@Core@Math@Palmtree@@6B@ ; Palmtree::Math::Core::Internal::StringWriter::`vftable'
PUBLIC	__TI2?AVInsufficientBufferException@Internal@Core@Math@Palmtree@@
PUBLIC	__CTA2?AVInsufficientBufferException@Internal@Core@Math@Palmtree@@
PUBLIC	??_R0?AVInsufficientBufferException@Internal@Core@Math@Palmtree@@@8 ; Palmtree::Math::Core::Internal::InsufficientBufferException `RTTI Type Descriptor'
PUBLIC	__CT??_R0?AVInsufficientBufferException@Internal@Core@Math@Palmtree@@@8??0InsufficientBufferException@Internal@Core@Math@Palmtree@@QAE@ABV01234@@Z24
PUBLIC	??_C@_1CO@JABAMCFP@?$PP?x?$AAM?$PP?$LM?$AA?$HP?$AAH?$PP?P?$PP?C?$PP?U?$PP?$KB?$AAn?$PP?$LF?$PP?$KE?$PP?$LK?$AAL?$AA?$AN@ ; `string'
PUBLIC	??_7ReverseStringWriter@Internal@Core@Math@Palmtree@@6B@ ; Palmtree::Math::Core::Internal::ReverseStringWriter::`vftable'
PUBLIC	??_7ThousandSeparatedStringWriter@DecimalFromatter@Internal@Core@Math@Palmtree@@6B@ ; Palmtree::Math::Core::Internal::DecimalFromatter::ThousandSeparatedStringWriter::`vftable'
PUBLIC	??_7Formatter@DecimalFromatter@Internal@Core@Math@Palmtree@@6B@ ; Palmtree::Math::Core::Internal::DecimalFromatter::Formatter::`vftable'
PUBLIC	??_C@_1EK@CCPHDNPL@?$AAp?$AAm?$AAc?$AA_?$AAt?$AAo?$AAs?$AAt?$AAr?$AAi?$AAn?$AAg?$AA?4?$AAc?$AAp@ ; `string'
PUBLIC	??_7FormatterTypeC@DecimalFromatter@Internal@Core@Math@Palmtree@@6B@ ; Palmtree::Math::Core::Internal::DecimalFromatter::FormatterTypeC::`vftable'
PUBLIC	??_7FormatterTypeD@DecimalFromatter@Internal@Core@Math@Palmtree@@6B@ ; Palmtree::Math::Core::Internal::DecimalFromatter::FormatterTypeD::`vftable'
PUBLIC	??_7FormatterTypeE@DecimalFromatter@Internal@Core@Math@Palmtree@@6B@ ; Palmtree::Math::Core::Internal::DecimalFromatter::FormatterTypeE::`vftable'
PUBLIC	??_C@_19NKFEMDNP@?$AA?$CL?$AA0?$AA0?$AA0@	; `string'
PUBLIC	??_C@_19GGGBJDH@?$AA?$CF?$AA0?$AA3?$AAd@	; `string'
PUBLIC	??_7FormatterTypeF@DecimalFromatter@Internal@Core@Math@Palmtree@@6B@ ; Palmtree::Math::Core::Internal::DecimalFromatter::FormatterTypeF::`vftable'
PUBLIC	??_7FormatterTypeN@DecimalFromatter@Internal@Core@Math@Palmtree@@6B@ ; Palmtree::Math::Core::Internal::DecimalFromatter::FormatterTypeN::`vftable'
PUBLIC	??_7FormatterTypeP@DecimalFromatter@Internal@Core@Math@Palmtree@@6B@ ; Palmtree::Math::Core::Internal::DecimalFromatter::FormatterTypeP::`vftable'
PUBLIC	__TI2?AVNotSupportedException@Internal@Core@Math@Palmtree@@
PUBLIC	__CTA2?AVNotSupportedException@Internal@Core@Math@Palmtree@@
PUBLIC	??_R0?AVNotSupportedException@Internal@Core@Math@Palmtree@@@8 ; Palmtree::Math::Core::Internal::NotSupportedException `RTTI Type Descriptor'
PUBLIC	__CT??_R0?AVNotSupportedException@Internal@Core@Math@Palmtree@@@8??0NotSupportedException@Internal@Core@Math@Palmtree@@QAE@ABV01234@@Z24
PUBLIC	??_C@_1DO@MFGCBHKN@?$PP?$KL?$PP?$LJ?$PP?$LP?$PP?$OA?$PP?x?$AA?$AP?$AAk?$PP?$II?$PP?$IL?$AAT?$AAo?$AAS?$AAt?$AAr?$AAi@ ; `string'
PUBLIC	__TI2?AVFormatException@Internal@Core@Math@Palmtree@@
PUBLIC	__CTA2?AVFormatException@Internal@Core@Math@Palmtree@@
PUBLIC	??_R0?AVFormatException@Internal@Core@Math@Palmtree@@@8 ; Palmtree::Math::Core::Internal::FormatException `RTTI Type Descriptor'
PUBLIC	__CT??_R0?AVFormatException@Internal@Core@Math@Palmtree@@@8??0FormatException@Internal@Core@Math@Palmtree@@QAE@ABV01234@@Z24
PUBLIC	??_C@_1BI@BIIKHCEK@?$AA?$CK?$PP?e?$AAn?$PP?x?$AA?$AP?$AA?$AH?$PP?$JK?$AAP?$AAg?$AAY?$AA?$AC@ ; `string'
PUBLIC	__TI2?AVArgumentNullException@Internal@Core@Math@Palmtree@@
PUBLIC	__CTA2?AVArgumentNullException@Internal@Core@Math@Palmtree@@
PUBLIC	??_R0?AVArgumentNullException@Internal@Core@Math@Palmtree@@@8 ; Palmtree::Math::Core::Internal::ArgumentNullException `RTTI Type Descriptor'
PUBLIC	__CT??_R0?AVArgumentNullException@Internal@Core@Math@Palmtree@@@8??0ArgumentNullException@Internal@Core@Math@Palmtree@@QAE@ABV01234@@Z24
PUBLIC	??_C@_13HADAKIJA@?$AAx@				; `string'
PUBLIC	??_C@_1CK@ECFIEPAC@?$AA?$BF?$AAp?$AAk?$AAn?$AAu?$AAl?$AAl?$AAp?$AAt?$AAr?$AAL?$AA?$AO?$AAH?$PP?$IJ?$PP?$IM@ ; `string'
PUBLIC	??_C@_13JOFGPIOO@?$AA?4@			; `string'
PUBLIC	??_C@_13DEFPDAGF@?$AA?0@			; `string'
PUBLIC	??_C@_13DMCFHHKM@?$AA3@				; `string'
PUBLIC	??_C@_13BMLCKOLB@?$PP?$KE@			; `string'
PUBLIC	??_C@_13IMODFHAA@?$AA?9@			; `string'
PUBLIC	??_C@_13EJFHHPOP@?$AA?$CF@			; `string'
PUBLIC	??_C@_13BGNNJOKC@?$AA0@				; `string'
PUBLIC	??_C@_13KJIIAINM@?$AA?$CL@			; `string'
PUBLIC	??_R4exception@std@@6B@				; std::exception::`RTTI Complete Object Locator'
PUBLIC	??_R0?AVexception@std@@@8			; std::exception `RTTI Type Descriptor'
PUBLIC	??_R3exception@std@@8				; std::exception::`RTTI Class Hierarchy Descriptor'
PUBLIC	??_R2exception@std@@8				; std::exception::`RTTI Base Class Array'
PUBLIC	??_R1A@?0A@EA@exception@std@@8			; std::exception::`RTTI Base Class Descriptor at (0,-1,0,64)'
PUBLIC	??_R4Exception@Internal@Core@Math@Palmtree@@6B@	; Palmtree::Math::Core::Internal::Exception::`RTTI Complete Object Locator'
PUBLIC	??_R3Exception@Internal@Core@Math@Palmtree@@8	; Palmtree::Math::Core::Internal::Exception::`RTTI Class Hierarchy Descriptor'
PUBLIC	??_R2Exception@Internal@Core@Math@Palmtree@@8	; Palmtree::Math::Core::Internal::Exception::`RTTI Base Class Array'
PUBLIC	??_R1A@?0A@EA@Exception@Internal@Core@Math@Palmtree@@8 ; Palmtree::Math::Core::Internal::Exception::`RTTI Base Class Descriptor at (0,-1,0,64)'
PUBLIC	??_R1A@?0A@EN@exception@std@@8			; std::exception::`RTTI Base Class Descriptor at (0,-1,0,77)'
PUBLIC	??_R4ArgumentNullException@Internal@Core@Math@Palmtree@@6B@ ; Palmtree::Math::Core::Internal::ArgumentNullException::`RTTI Complete Object Locator'
PUBLIC	??_R3ArgumentNullException@Internal@Core@Math@Palmtree@@8 ; Palmtree::Math::Core::Internal::ArgumentNullException::`RTTI Class Hierarchy Descriptor'
PUBLIC	??_R2ArgumentNullException@Internal@Core@Math@Palmtree@@8 ; Palmtree::Math::Core::Internal::ArgumentNullException::`RTTI Base Class Array'
PUBLIC	??_R1A@?0A@EA@ArgumentNullException@Internal@Core@Math@Palmtree@@8 ; Palmtree::Math::Core::Internal::ArgumentNullException::`RTTI Base Class Descriptor at (0,-1,0,64)'
PUBLIC	??_R4FormatException@Internal@Core@Math@Palmtree@@6B@ ; Palmtree::Math::Core::Internal::FormatException::`RTTI Complete Object Locator'
PUBLIC	??_R3FormatException@Internal@Core@Math@Palmtree@@8 ; Palmtree::Math::Core::Internal::FormatException::`RTTI Class Hierarchy Descriptor'
PUBLIC	??_R2FormatException@Internal@Core@Math@Palmtree@@8 ; Palmtree::Math::Core::Internal::FormatException::`RTTI Base Class Array'
PUBLIC	??_R1A@?0A@EA@FormatException@Internal@Core@Math@Palmtree@@8 ; Palmtree::Math::Core::Internal::FormatException::`RTTI Base Class Descriptor at (0,-1,0,64)'
PUBLIC	??_R4InsufficientBufferException@Internal@Core@Math@Palmtree@@6B@ ; Palmtree::Math::Core::Internal::InsufficientBufferException::`RTTI Complete Object Locator'
PUBLIC	??_R3InsufficientBufferException@Internal@Core@Math@Palmtree@@8 ; Palmtree::Math::Core::Internal::InsufficientBufferException::`RTTI Class Hierarchy Descriptor'
PUBLIC	??_R2InsufficientBufferException@Internal@Core@Math@Palmtree@@8 ; Palmtree::Math::Core::Internal::InsufficientBufferException::`RTTI Base Class Array'
PUBLIC	??_R1A@?0A@EA@InsufficientBufferException@Internal@Core@Math@Palmtree@@8 ; Palmtree::Math::Core::Internal::InsufficientBufferException::`RTTI Base Class Descriptor at (0,-1,0,64)'
PUBLIC	??_R4NotSupportedException@Internal@Core@Math@Palmtree@@6B@ ; Palmtree::Math::Core::Internal::NotSupportedException::`RTTI Complete Object Locator'
PUBLIC	??_R3NotSupportedException@Internal@Core@Math@Palmtree@@8 ; Palmtree::Math::Core::Internal::NotSupportedException::`RTTI Class Hierarchy Descriptor'
PUBLIC	??_R2NotSupportedException@Internal@Core@Math@Palmtree@@8 ; Palmtree::Math::Core::Internal::NotSupportedException::`RTTI Base Class Array'
PUBLIC	??_R1A@?0A@EA@NotSupportedException@Internal@Core@Math@Palmtree@@8 ; Palmtree::Math::Core::Internal::NotSupportedException::`RTTI Base Class Descriptor at (0,-1,0,64)'
PUBLIC	??_R4InternalErrorException@Internal@Core@Math@Palmtree@@6B@ ; Palmtree::Math::Core::Internal::InternalErrorException::`RTTI Complete Object Locator'
PUBLIC	??_R3InternalErrorException@Internal@Core@Math@Palmtree@@8 ; Palmtree::Math::Core::Internal::InternalErrorException::`RTTI Class Hierarchy Descriptor'
PUBLIC	??_R2InternalErrorException@Internal@Core@Math@Palmtree@@8 ; Palmtree::Math::Core::Internal::InternalErrorException::`RTTI Base Class Array'
PUBLIC	??_R1A@?0A@EA@InternalErrorException@Internal@Core@Math@Palmtree@@8 ; Palmtree::Math::Core::Internal::InternalErrorException::`RTTI Base Class Descriptor at (0,-1,0,64)'
PUBLIC	??_R4StringReader@Internal@Core@Math@Palmtree@@6B@ ; Palmtree::Math::Core::Internal::StringReader::`RTTI Complete Object Locator'
PUBLIC	??_R0?AVStringReader@Internal@Core@Math@Palmtree@@@8 ; Palmtree::Math::Core::Internal::StringReader `RTTI Type Descriptor'
PUBLIC	??_R3StringReader@Internal@Core@Math@Palmtree@@8 ; Palmtree::Math::Core::Internal::StringReader::`RTTI Class Hierarchy Descriptor'
PUBLIC	??_R2StringReader@Internal@Core@Math@Palmtree@@8 ; Palmtree::Math::Core::Internal::StringReader::`RTTI Base Class Array'
PUBLIC	??_R1A@?0A@EA@StringReader@Internal@Core@Math@Palmtree@@8 ; Palmtree::Math::Core::Internal::StringReader::`RTTI Base Class Descriptor at (0,-1,0,64)'
PUBLIC	??_R4ReverseStringReader@Internal@Core@Math@Palmtree@@6B@ ; Palmtree::Math::Core::Internal::ReverseStringReader::`RTTI Complete Object Locator'
PUBLIC	??_R0?AVReverseStringReader@Internal@Core@Math@Palmtree@@@8 ; Palmtree::Math::Core::Internal::ReverseStringReader `RTTI Type Descriptor'
PUBLIC	??_R3ReverseStringReader@Internal@Core@Math@Palmtree@@8 ; Palmtree::Math::Core::Internal::ReverseStringReader::`RTTI Class Hierarchy Descriptor'
PUBLIC	??_R2ReverseStringReader@Internal@Core@Math@Palmtree@@8 ; Palmtree::Math::Core::Internal::ReverseStringReader::`RTTI Base Class Array'
PUBLIC	??_R1A@?0A@EA@ReverseStringReader@Internal@Core@Math@Palmtree@@8 ; Palmtree::Math::Core::Internal::ReverseStringReader::`RTTI Base Class Descriptor at (0,-1,0,64)'
PUBLIC	??_R4StringWriter@Internal@Core@Math@Palmtree@@6B@ ; Palmtree::Math::Core::Internal::StringWriter::`RTTI Complete Object Locator'
PUBLIC	??_R0?AVStringWriter@Internal@Core@Math@Palmtree@@@8 ; Palmtree::Math::Core::Internal::StringWriter `RTTI Type Descriptor'
PUBLIC	??_R3StringWriter@Internal@Core@Math@Palmtree@@8 ; Palmtree::Math::Core::Internal::StringWriter::`RTTI Class Hierarchy Descriptor'
PUBLIC	??_R2StringWriter@Internal@Core@Math@Palmtree@@8 ; Palmtree::Math::Core::Internal::StringWriter::`RTTI Base Class Array'
PUBLIC	??_R1A@?0A@EA@StringWriter@Internal@Core@Math@Palmtree@@8 ; Palmtree::Math::Core::Internal::StringWriter::`RTTI Base Class Descriptor at (0,-1,0,64)'
PUBLIC	??_R4ReverseStringWriter@Internal@Core@Math@Palmtree@@6B@ ; Palmtree::Math::Core::Internal::ReverseStringWriter::`RTTI Complete Object Locator'
PUBLIC	??_R0?AVReverseStringWriter@Internal@Core@Math@Palmtree@@@8 ; Palmtree::Math::Core::Internal::ReverseStringWriter `RTTI Type Descriptor'
PUBLIC	??_R3ReverseStringWriter@Internal@Core@Math@Palmtree@@8 ; Palmtree::Math::Core::Internal::ReverseStringWriter::`RTTI Class Hierarchy Descriptor'
PUBLIC	??_R2ReverseStringWriter@Internal@Core@Math@Palmtree@@8 ; Palmtree::Math::Core::Internal::ReverseStringWriter::`RTTI Base Class Array'
PUBLIC	??_R1A@?0A@EA@ReverseStringWriter@Internal@Core@Math@Palmtree@@8 ; Palmtree::Math::Core::Internal::ReverseStringWriter::`RTTI Base Class Descriptor at (0,-1,0,64)'
PUBLIC	??_R4ThousandSeparatedStringWriter@DecimalFromatter@Internal@Core@Math@Palmtree@@6B@ ; Palmtree::Math::Core::Internal::DecimalFromatter::ThousandSeparatedStringWriter::`RTTI Complete Object Locator'
PUBLIC	??_R0?AVThousandSeparatedStringWriter@DecimalFromatter@Internal@Core@Math@Palmtree@@@8 ; Palmtree::Math::Core::Internal::DecimalFromatter::ThousandSeparatedStringWriter `RTTI Type Descriptor'
PUBLIC	??_R3ThousandSeparatedStringWriter@DecimalFromatter@Internal@Core@Math@Palmtree@@8 ; Palmtree::Math::Core::Internal::DecimalFromatter::ThousandSeparatedStringWriter::`RTTI Class Hierarchy Descriptor'
PUBLIC	??_R2ThousandSeparatedStringWriter@DecimalFromatter@Internal@Core@Math@Palmtree@@8 ; Palmtree::Math::Core::Internal::DecimalFromatter::ThousandSeparatedStringWriter::`RTTI Base Class Array'
PUBLIC	??_R1A@?0A@EA@ThousandSeparatedStringWriter@DecimalFromatter@Internal@Core@Math@Palmtree@@8 ; Palmtree::Math::Core::Internal::DecimalFromatter::ThousandSeparatedStringWriter::`RTTI Base Class Descriptor at (0,-1,0,64)'
PUBLIC	??_R4Formatter@DecimalFromatter@Internal@Core@Math@Palmtree@@6B@ ; Palmtree::Math::Core::Internal::DecimalFromatter::Formatter::`RTTI Complete Object Locator'
PUBLIC	??_R0?AVFormatter@DecimalFromatter@Internal@Core@Math@Palmtree@@@8 ; Palmtree::Math::Core::Internal::DecimalFromatter::Formatter `RTTI Type Descriptor'
PUBLIC	??_R3Formatter@DecimalFromatter@Internal@Core@Math@Palmtree@@8 ; Palmtree::Math::Core::Internal::DecimalFromatter::Formatter::`RTTI Class Hierarchy Descriptor'
PUBLIC	??_R2Formatter@DecimalFromatter@Internal@Core@Math@Palmtree@@8 ; Palmtree::Math::Core::Internal::DecimalFromatter::Formatter::`RTTI Base Class Array'
PUBLIC	??_R1A@?0A@EA@Formatter@DecimalFromatter@Internal@Core@Math@Palmtree@@8 ; Palmtree::Math::Core::Internal::DecimalFromatter::Formatter::`RTTI Base Class Descriptor at (0,-1,0,64)'
PUBLIC	??_R4FormatterTypeC@DecimalFromatter@Internal@Core@Math@Palmtree@@6B@ ; Palmtree::Math::Core::Internal::DecimalFromatter::FormatterTypeC::`RTTI Complete Object Locator'
PUBLIC	??_R0?AVFormatterTypeC@DecimalFromatter@Internal@Core@Math@Palmtree@@@8 ; Palmtree::Math::Core::Internal::DecimalFromatter::FormatterTypeC `RTTI Type Descriptor'
PUBLIC	??_R3FormatterTypeC@DecimalFromatter@Internal@Core@Math@Palmtree@@8 ; Palmtree::Math::Core::Internal::DecimalFromatter::FormatterTypeC::`RTTI Class Hierarchy Descriptor'
PUBLIC	??_R2FormatterTypeC@DecimalFromatter@Internal@Core@Math@Palmtree@@8 ; Palmtree::Math::Core::Internal::DecimalFromatter::FormatterTypeC::`RTTI Base Class Array'
PUBLIC	??_R1A@?0A@EA@FormatterTypeC@DecimalFromatter@Internal@Core@Math@Palmtree@@8 ; Palmtree::Math::Core::Internal::DecimalFromatter::FormatterTypeC::`RTTI Base Class Descriptor at (0,-1,0,64)'
PUBLIC	??_R4FormatterTypeD@DecimalFromatter@Internal@Core@Math@Palmtree@@6B@ ; Palmtree::Math::Core::Internal::DecimalFromatter::FormatterTypeD::`RTTI Complete Object Locator'
PUBLIC	??_R0?AVFormatterTypeD@DecimalFromatter@Internal@Core@Math@Palmtree@@@8 ; Palmtree::Math::Core::Internal::DecimalFromatter::FormatterTypeD `RTTI Type Descriptor'
PUBLIC	??_R3FormatterTypeD@DecimalFromatter@Internal@Core@Math@Palmtree@@8 ; Palmtree::Math::Core::Internal::DecimalFromatter::FormatterTypeD::`RTTI Class Hierarchy Descriptor'
PUBLIC	??_R2FormatterTypeD@DecimalFromatter@Internal@Core@Math@Palmtree@@8 ; Palmtree::Math::Core::Internal::DecimalFromatter::FormatterTypeD::`RTTI Base Class Array'
PUBLIC	??_R1A@?0A@EA@FormatterTypeD@DecimalFromatter@Internal@Core@Math@Palmtree@@8 ; Palmtree::Math::Core::Internal::DecimalFromatter::FormatterTypeD::`RTTI Base Class Descriptor at (0,-1,0,64)'
PUBLIC	??_R4FormatterTypeE@DecimalFromatter@Internal@Core@Math@Palmtree@@6B@ ; Palmtree::Math::Core::Internal::DecimalFromatter::FormatterTypeE::`RTTI Complete Object Locator'
PUBLIC	??_R0?AVFormatterTypeE@DecimalFromatter@Internal@Core@Math@Palmtree@@@8 ; Palmtree::Math::Core::Internal::DecimalFromatter::FormatterTypeE `RTTI Type Descriptor'
PUBLIC	??_R3FormatterTypeE@DecimalFromatter@Internal@Core@Math@Palmtree@@8 ; Palmtree::Math::Core::Internal::DecimalFromatter::FormatterTypeE::`RTTI Class Hierarchy Descriptor'
PUBLIC	??_R2FormatterTypeE@DecimalFromatter@Internal@Core@Math@Palmtree@@8 ; Palmtree::Math::Core::Internal::DecimalFromatter::FormatterTypeE::`RTTI Base Class Array'
PUBLIC	??_R1A@?0A@EA@FormatterTypeE@DecimalFromatter@Internal@Core@Math@Palmtree@@8 ; Palmtree::Math::Core::Internal::DecimalFromatter::FormatterTypeE::`RTTI Base Class Descriptor at (0,-1,0,64)'
PUBLIC	??_R4FormatterTypeF@DecimalFromatter@Internal@Core@Math@Palmtree@@6B@ ; Palmtree::Math::Core::Internal::DecimalFromatter::FormatterTypeF::`RTTI Complete Object Locator'
PUBLIC	??_R0?AVFormatterTypeF@DecimalFromatter@Internal@Core@Math@Palmtree@@@8 ; Palmtree::Math::Core::Internal::DecimalFromatter::FormatterTypeF `RTTI Type Descriptor'
PUBLIC	??_R3FormatterTypeF@DecimalFromatter@Internal@Core@Math@Palmtree@@8 ; Palmtree::Math::Core::Internal::DecimalFromatter::FormatterTypeF::`RTTI Class Hierarchy Descriptor'
PUBLIC	??_R2FormatterTypeF@DecimalFromatter@Internal@Core@Math@Palmtree@@8 ; Palmtree::Math::Core::Internal::DecimalFromatter::FormatterTypeF::`RTTI Base Class Array'
PUBLIC	??_R1A@?0A@EA@FormatterTypeF@DecimalFromatter@Internal@Core@Math@Palmtree@@8 ; Palmtree::Math::Core::Internal::DecimalFromatter::FormatterTypeF::`RTTI Base Class Descriptor at (0,-1,0,64)'
PUBLIC	??_R4FormatterTypeN@DecimalFromatter@Internal@Core@Math@Palmtree@@6B@ ; Palmtree::Math::Core::Internal::DecimalFromatter::FormatterTypeN::`RTTI Complete Object Locator'
PUBLIC	??_R0?AVFormatterTypeN@DecimalFromatter@Internal@Core@Math@Palmtree@@@8 ; Palmtree::Math::Core::Internal::DecimalFromatter::FormatterTypeN `RTTI Type Descriptor'
PUBLIC	??_R3FormatterTypeN@DecimalFromatter@Internal@Core@Math@Palmtree@@8 ; Palmtree::Math::Core::Internal::DecimalFromatter::FormatterTypeN::`RTTI Class Hierarchy Descriptor'
PUBLIC	??_R2FormatterTypeN@DecimalFromatter@Internal@Core@Math@Palmtree@@8 ; Palmtree::Math::Core::Internal::DecimalFromatter::FormatterTypeN::`RTTI Base Class Array'
PUBLIC	??_R1A@?0A@EA@FormatterTypeN@DecimalFromatter@Internal@Core@Math@Palmtree@@8 ; Palmtree::Math::Core::Internal::DecimalFromatter::FormatterTypeN::`RTTI Base Class Descriptor at (0,-1,0,64)'
PUBLIC	??_R4FormatterTypeP@DecimalFromatter@Internal@Core@Math@Palmtree@@6B@ ; Palmtree::Math::Core::Internal::DecimalFromatter::FormatterTypeP::`RTTI Complete Object Locator'
PUBLIC	??_R0?AVFormatterTypeP@DecimalFromatter@Internal@Core@Math@Palmtree@@@8 ; Palmtree::Math::Core::Internal::DecimalFromatter::FormatterTypeP `RTTI Type Descriptor'
PUBLIC	??_R3FormatterTypeP@DecimalFromatter@Internal@Core@Math@Palmtree@@8 ; Palmtree::Math::Core::Internal::DecimalFromatter::FormatterTypeP::`RTTI Class Hierarchy Descriptor'
PUBLIC	??_R2FormatterTypeP@DecimalFromatter@Internal@Core@Math@Palmtree@@8 ; Palmtree::Math::Core::Internal::DecimalFromatter::FormatterTypeP::`RTTI Base Class Array'
PUBLIC	??_R1A@?0A@EA@FormatterTypeP@DecimalFromatter@Internal@Core@Math@Palmtree@@8 ; Palmtree::Math::Core::Internal::DecimalFromatter::FormatterTypeP::`RTTI Base Class Descriptor at (0,-1,0,64)'
PUBLIC	__xmm@41f00000000000000000000000000000
EXTRN	__purecall:PROC
EXTRN	??3@YAXPAXI@Z:PROC				; operator delete
EXTRN	__imp__lstrcpyW@8:PROC
EXTRN	__imp__lstrlenW@4:PROC
EXTRN	__imp__wsprintfW:PROC
EXTRN	___std_exception_destroy:PROC
EXTRN	??_Eexception@std@@UAEPAXI@Z:PROC		; std::exception::`vector deleting destructor'
EXTRN	??_EException@Internal@Core@Math@Palmtree@@UAEPAXI@Z:PROC ; Palmtree::Math::Core::Internal::Exception::`vector deleting destructor'
EXTRN	??_EArgumentNullException@Internal@Core@Math@Palmtree@@UAEPAXI@Z:PROC ; Palmtree::Math::Core::Internal::ArgumentNullException::`vector deleting destructor'
EXTRN	??_EFormatException@Internal@Core@Math@Palmtree@@UAEPAXI@Z:PROC ; Palmtree::Math::Core::Internal::FormatException::`vector deleting destructor'
EXTRN	??_EInsufficientBufferException@Internal@Core@Math@Palmtree@@UAEPAXI@Z:PROC ; Palmtree::Math::Core::Internal::InsufficientBufferException::`vector deleting destructor'
EXTRN	??_ENotSupportedException@Internal@Core@Math@Palmtree@@UAEPAXI@Z:PROC ; Palmtree::Math::Core::Internal::NotSupportedException::`vector deleting destructor'
EXTRN	??_EInternalErrorException@Internal@Core@Math@Palmtree@@UAEPAXI@Z:PROC ; Palmtree::Math::Core::Internal::InternalErrorException::`vector deleting destructor'
EXTRN	?CheckNumber@Internal@Core@Math@Palmtree@@YAXPAU__tag_NUMBER_HEADER@1234@@Z:PROC ; Palmtree::Math::Core::Internal::CheckNumber
EXTRN	?DivRem_X_1W@Internal@Core@Math@Palmtree@@YAXPAIII00@Z:PROC ; Palmtree::Math::Core::Internal::DivRem_X_1W
EXTRN	?PMC_Add_X_X_Imp@Internal@Core@Math@Palmtree@@YAPAU__tag_NUMBER_HEADER@1234@PAU51234@0@Z:PROC ; Palmtree::Math::Core::Internal::PMC_Add_X_X_Imp
EXTRN	?PMC_Multiply_X_I_Imp@Internal@Core@Math@Palmtree@@YAPAU__tag_NUMBER_HEADER@1234@PAU51234@I@Z:PROC ; Palmtree::Math::Core::Internal::PMC_Multiply_X_I_Imp
EXTRN	?PMC_TimesOfExponentOf10_Imp@Internal@Core@Math@Palmtree@@YAPAU__tag_NUMBER_HEADER@1234@II@Z:PROC ; Palmtree::Math::Core::Internal::PMC_TimesOfExponentOf10_Imp
EXTRN	?PMC_Floor_Log10_Imp@Internal@Core@Math@Palmtree@@YAIPAU__tag_NUMBER_HEADER@1234@@Z:PROC ; Palmtree::Math::Core::Internal::PMC_Floor_Log10_Imp
EXTRN	??0ResourceHolderUINT@Internal@Core@Math@Palmtree@@QAE@XZ:PROC ; Palmtree::Math::Core::Internal::ResourceHolderUINT::ResourceHolderUINT
EXTRN	??1ResourceHolderUINT@Internal@Core@Math@Palmtree@@UAE@XZ:PROC ; Palmtree::Math::Core::Internal::ResourceHolderUINT::~ResourceHolderUINT
EXTRN	?AllocateBlock@ResourceHolderUINT@Internal@Core@Math@Palmtree@@QAEPAII@Z:PROC ; Palmtree::Math::Core::Internal::ResourceHolderUINT::AllocateBlock
EXTRN	?ClearBlock@ResourceHolderUINT@Internal@Core@Math@Palmtree@@QAEXPAI@Z:PROC ; Palmtree::Math::Core::Internal::ResourceHolderUINT::ClearBlock
EXTRN	?DeallocateBlock@ResourceHolderUINT@Internal@Core@Math@Palmtree@@QAEXPAI@Z:PROC ; Palmtree::Math::Core::Internal::ResourceHolderUINT::DeallocateBlock
EXTRN	?CheckBlock@ResourceHolderUINT@Internal@Core@Math@Palmtree@@QAEXPAI@Z:PROC ; Palmtree::Math::Core::Internal::ResourceHolderUINT::CheckBlock
EXTRN	?AllocateString@ResourceHolderUINT@Internal@Core@Math@Palmtree@@QAEPA_WI@Z:PROC ; Palmtree::Math::Core::Internal::ResourceHolderUINT::AllocateString
EXTRN	?DeallocateString@ResourceHolderUINT@Internal@Core@Math@Palmtree@@QAEXPA_W@Z:PROC ; Palmtree::Math::Core::Internal::ResourceHolderUINT::DeallocateString
EXTRN	?HookNumber@ResourceHolderUINT@Internal@Core@Math@Palmtree@@QAEXPAU__tag_NUMBER_HEADER@2345@@Z:PROC ; Palmtree::Math::Core::Internal::ResourceHolderUINT::HookNumber
EXTRN	@__security_check_cookie@4:PROC
EXTRN	__CxxThrowException@8:PROC
EXTRN	___CxxFrameHandler3:PROC
EXTRN	__aulldiv:PROC
EXTRN	__aulldvrm:PROC
EXTRN	__dtoui3:PROC
EXTRN	_floor:PROC
EXTRN	??_7type_info@@6B@:QWORD			; type_info::`vftable'
EXTRN	?statistics_info@Internal@Core@Math@Palmtree@@3U__tag_PMC_STATISTICS_INFO@1234@A:BYTE ; Palmtree::Math::Core::Internal::statistics_info
EXTRN	___security_cookie:DWORD
EXTRN	__fltused:DWORD
_BSS	SEGMENT
?default_number_format_option@Internal@Core@Math@Palmtree@@3U__tag_PMC_NUMBER_FORMAT_INFO@1234@A DB 01e4H DUP (?) ; Palmtree::Math::Core::Internal::default_number_format_option
_BSS	ENDS
;	COMDAT __xmm@41f00000000000000000000000000000
CONST	SEGMENT
__xmm@41f00000000000000000000000000000 DB 00H, 00H, 00H, 00H, 00H, 00H, 00H
	DB	00H, 00H, 00H, 00H, 00H, 00H, 00H, 0f0H, 'A'
CONST	ENDS
;	COMDAT ??_R1A@?0A@EA@FormatterTypeP@DecimalFromatter@Internal@Core@Math@Palmtree@@8
rdata$r	SEGMENT
??_R1A@?0A@EA@FormatterTypeP@DecimalFromatter@Internal@Core@Math@Palmtree@@8 DD FLAT:??_R0?AVFormatterTypeP@DecimalFromatter@Internal@Core@Math@Palmtree@@@8 ; Palmtree::Math::Core::Internal::DecimalFromatter::FormatterTypeP::`RTTI Base Class Descriptor at (0,-1,0,64)'
	DD	01H
	DD	00H
	DD	0ffffffffH
	DD	00H
	DD	040H
	DD	FLAT:??_R3FormatterTypeP@DecimalFromatter@Internal@Core@Math@Palmtree@@8
rdata$r	ENDS
;	COMDAT ??_R2FormatterTypeP@DecimalFromatter@Internal@Core@Math@Palmtree@@8
rdata$r	SEGMENT
??_R2FormatterTypeP@DecimalFromatter@Internal@Core@Math@Palmtree@@8 DD FLAT:??_R1A@?0A@EA@FormatterTypeP@DecimalFromatter@Internal@Core@Math@Palmtree@@8 ; Palmtree::Math::Core::Internal::DecimalFromatter::FormatterTypeP::`RTTI Base Class Array'
	DD	FLAT:??_R1A@?0A@EA@Formatter@DecimalFromatter@Internal@Core@Math@Palmtree@@8
rdata$r	ENDS
;	COMDAT ??_R3FormatterTypeP@DecimalFromatter@Internal@Core@Math@Palmtree@@8
rdata$r	SEGMENT
??_R3FormatterTypeP@DecimalFromatter@Internal@Core@Math@Palmtree@@8 DD 00H ; Palmtree::Math::Core::Internal::DecimalFromatter::FormatterTypeP::`RTTI Class Hierarchy Descriptor'
	DD	00H
	DD	02H
	DD	FLAT:??_R2FormatterTypeP@DecimalFromatter@Internal@Core@Math@Palmtree@@8
rdata$r	ENDS
;	COMDAT ??_R0?AVFormatterTypeP@DecimalFromatter@Internal@Core@Math@Palmtree@@@8
data$r	SEGMENT
??_R0?AVFormatterTypeP@DecimalFromatter@Internal@Core@Math@Palmtree@@@8 DD FLAT:??_7type_info@@6B@ ; Palmtree::Math::Core::Internal::DecimalFromatter::FormatterTypeP `RTTI Type Descriptor'
	DD	00H
	DB	'.?AVFormatterTypeP@DecimalFromatter@Internal@Core@Math@P'
	DB	'almtree@@', 00H
data$r	ENDS
;	COMDAT ??_R4FormatterTypeP@DecimalFromatter@Internal@Core@Math@Palmtree@@6B@
rdata$r	SEGMENT
??_R4FormatterTypeP@DecimalFromatter@Internal@Core@Math@Palmtree@@6B@ DD 00H ; Palmtree::Math::Core::Internal::DecimalFromatter::FormatterTypeP::`RTTI Complete Object Locator'
	DD	00H
	DD	00H
	DD	FLAT:??_R0?AVFormatterTypeP@DecimalFromatter@Internal@Core@Math@Palmtree@@@8
	DD	FLAT:??_R3FormatterTypeP@DecimalFromatter@Internal@Core@Math@Palmtree@@8
rdata$r	ENDS
;	COMDAT ??_R1A@?0A@EA@FormatterTypeN@DecimalFromatter@Internal@Core@Math@Palmtree@@8
rdata$r	SEGMENT
??_R1A@?0A@EA@FormatterTypeN@DecimalFromatter@Internal@Core@Math@Palmtree@@8 DD FLAT:??_R0?AVFormatterTypeN@DecimalFromatter@Internal@Core@Math@Palmtree@@@8 ; Palmtree::Math::Core::Internal::DecimalFromatter::FormatterTypeN::`RTTI Base Class Descriptor at (0,-1,0,64)'
	DD	01H
	DD	00H
	DD	0ffffffffH
	DD	00H
	DD	040H
	DD	FLAT:??_R3FormatterTypeN@DecimalFromatter@Internal@Core@Math@Palmtree@@8
rdata$r	ENDS
;	COMDAT ??_R2FormatterTypeN@DecimalFromatter@Internal@Core@Math@Palmtree@@8
rdata$r	SEGMENT
??_R2FormatterTypeN@DecimalFromatter@Internal@Core@Math@Palmtree@@8 DD FLAT:??_R1A@?0A@EA@FormatterTypeN@DecimalFromatter@Internal@Core@Math@Palmtree@@8 ; Palmtree::Math::Core::Internal::DecimalFromatter::FormatterTypeN::`RTTI Base Class Array'
	DD	FLAT:??_R1A@?0A@EA@Formatter@DecimalFromatter@Internal@Core@Math@Palmtree@@8
rdata$r	ENDS
;	COMDAT ??_R3FormatterTypeN@DecimalFromatter@Internal@Core@Math@Palmtree@@8
rdata$r	SEGMENT
??_R3FormatterTypeN@DecimalFromatter@Internal@Core@Math@Palmtree@@8 DD 00H ; Palmtree::Math::Core::Internal::DecimalFromatter::FormatterTypeN::`RTTI Class Hierarchy Descriptor'
	DD	00H
	DD	02H
	DD	FLAT:??_R2FormatterTypeN@DecimalFromatter@Internal@Core@Math@Palmtree@@8
rdata$r	ENDS
;	COMDAT ??_R0?AVFormatterTypeN@DecimalFromatter@Internal@Core@Math@Palmtree@@@8
data$r	SEGMENT
??_R0?AVFormatterTypeN@DecimalFromatter@Internal@Core@Math@Palmtree@@@8 DD FLAT:??_7type_info@@6B@ ; Palmtree::Math::Core::Internal::DecimalFromatter::FormatterTypeN `RTTI Type Descriptor'
	DD	00H
	DB	'.?AVFormatterTypeN@DecimalFromatter@Internal@Core@Math@P'
	DB	'almtree@@', 00H
data$r	ENDS
;	COMDAT ??_R4FormatterTypeN@DecimalFromatter@Internal@Core@Math@Palmtree@@6B@
rdata$r	SEGMENT
??_R4FormatterTypeN@DecimalFromatter@Internal@Core@Math@Palmtree@@6B@ DD 00H ; Palmtree::Math::Core::Internal::DecimalFromatter::FormatterTypeN::`RTTI Complete Object Locator'
	DD	00H
	DD	00H
	DD	FLAT:??_R0?AVFormatterTypeN@DecimalFromatter@Internal@Core@Math@Palmtree@@@8
	DD	FLAT:??_R3FormatterTypeN@DecimalFromatter@Internal@Core@Math@Palmtree@@8
rdata$r	ENDS
;	COMDAT ??_R1A@?0A@EA@FormatterTypeF@DecimalFromatter@Internal@Core@Math@Palmtree@@8
rdata$r	SEGMENT
??_R1A@?0A@EA@FormatterTypeF@DecimalFromatter@Internal@Core@Math@Palmtree@@8 DD FLAT:??_R0?AVFormatterTypeF@DecimalFromatter@Internal@Core@Math@Palmtree@@@8 ; Palmtree::Math::Core::Internal::DecimalFromatter::FormatterTypeF::`RTTI Base Class Descriptor at (0,-1,0,64)'
	DD	01H
	DD	00H
	DD	0ffffffffH
	DD	00H
	DD	040H
	DD	FLAT:??_R3FormatterTypeF@DecimalFromatter@Internal@Core@Math@Palmtree@@8
rdata$r	ENDS
;	COMDAT ??_R2FormatterTypeF@DecimalFromatter@Internal@Core@Math@Palmtree@@8
rdata$r	SEGMENT
??_R2FormatterTypeF@DecimalFromatter@Internal@Core@Math@Palmtree@@8 DD FLAT:??_R1A@?0A@EA@FormatterTypeF@DecimalFromatter@Internal@Core@Math@Palmtree@@8 ; Palmtree::Math::Core::Internal::DecimalFromatter::FormatterTypeF::`RTTI Base Class Array'
	DD	FLAT:??_R1A@?0A@EA@Formatter@DecimalFromatter@Internal@Core@Math@Palmtree@@8
rdata$r	ENDS
;	COMDAT ??_R3FormatterTypeF@DecimalFromatter@Internal@Core@Math@Palmtree@@8
rdata$r	SEGMENT
??_R3FormatterTypeF@DecimalFromatter@Internal@Core@Math@Palmtree@@8 DD 00H ; Palmtree::Math::Core::Internal::DecimalFromatter::FormatterTypeF::`RTTI Class Hierarchy Descriptor'
	DD	00H
	DD	02H
	DD	FLAT:??_R2FormatterTypeF@DecimalFromatter@Internal@Core@Math@Palmtree@@8
rdata$r	ENDS
;	COMDAT ??_R0?AVFormatterTypeF@DecimalFromatter@Internal@Core@Math@Palmtree@@@8
data$r	SEGMENT
??_R0?AVFormatterTypeF@DecimalFromatter@Internal@Core@Math@Palmtree@@@8 DD FLAT:??_7type_info@@6B@ ; Palmtree::Math::Core::Internal::DecimalFromatter::FormatterTypeF `RTTI Type Descriptor'
	DD	00H
	DB	'.?AVFormatterTypeF@DecimalFromatter@Internal@Core@Math@P'
	DB	'almtree@@', 00H
data$r	ENDS
;	COMDAT ??_R4FormatterTypeF@DecimalFromatter@Internal@Core@Math@Palmtree@@6B@
rdata$r	SEGMENT
??_R4FormatterTypeF@DecimalFromatter@Internal@Core@Math@Palmtree@@6B@ DD 00H ; Palmtree::Math::Core::Internal::DecimalFromatter::FormatterTypeF::`RTTI Complete Object Locator'
	DD	00H
	DD	00H
	DD	FLAT:??_R0?AVFormatterTypeF@DecimalFromatter@Internal@Core@Math@Palmtree@@@8
	DD	FLAT:??_R3FormatterTypeF@DecimalFromatter@Internal@Core@Math@Palmtree@@8
rdata$r	ENDS
;	COMDAT ??_R1A@?0A@EA@FormatterTypeE@DecimalFromatter@Internal@Core@Math@Palmtree@@8
rdata$r	SEGMENT
??_R1A@?0A@EA@FormatterTypeE@DecimalFromatter@Internal@Core@Math@Palmtree@@8 DD FLAT:??_R0?AVFormatterTypeE@DecimalFromatter@Internal@Core@Math@Palmtree@@@8 ; Palmtree::Math::Core::Internal::DecimalFromatter::FormatterTypeE::`RTTI Base Class Descriptor at (0,-1,0,64)'
	DD	01H
	DD	00H
	DD	0ffffffffH
	DD	00H
	DD	040H
	DD	FLAT:??_R3FormatterTypeE@DecimalFromatter@Internal@Core@Math@Palmtree@@8
rdata$r	ENDS
;	COMDAT ??_R2FormatterTypeE@DecimalFromatter@Internal@Core@Math@Palmtree@@8
rdata$r	SEGMENT
??_R2FormatterTypeE@DecimalFromatter@Internal@Core@Math@Palmtree@@8 DD FLAT:??_R1A@?0A@EA@FormatterTypeE@DecimalFromatter@Internal@Core@Math@Palmtree@@8 ; Palmtree::Math::Core::Internal::DecimalFromatter::FormatterTypeE::`RTTI Base Class Array'
	DD	FLAT:??_R1A@?0A@EA@Formatter@DecimalFromatter@Internal@Core@Math@Palmtree@@8
rdata$r	ENDS
;	COMDAT ??_R3FormatterTypeE@DecimalFromatter@Internal@Core@Math@Palmtree@@8
rdata$r	SEGMENT
??_R3FormatterTypeE@DecimalFromatter@Internal@Core@Math@Palmtree@@8 DD 00H ; Palmtree::Math::Core::Internal::DecimalFromatter::FormatterTypeE::`RTTI Class Hierarchy Descriptor'
	DD	00H
	DD	02H
	DD	FLAT:??_R2FormatterTypeE@DecimalFromatter@Internal@Core@Math@Palmtree@@8
rdata$r	ENDS
;	COMDAT ??_R0?AVFormatterTypeE@DecimalFromatter@Internal@Core@Math@Palmtree@@@8
data$r	SEGMENT
??_R0?AVFormatterTypeE@DecimalFromatter@Internal@Core@Math@Palmtree@@@8 DD FLAT:??_7type_info@@6B@ ; Palmtree::Math::Core::Internal::DecimalFromatter::FormatterTypeE `RTTI Type Descriptor'
	DD	00H
	DB	'.?AVFormatterTypeE@DecimalFromatter@Internal@Core@Math@P'
	DB	'almtree@@', 00H
data$r	ENDS
;	COMDAT ??_R4FormatterTypeE@DecimalFromatter@Internal@Core@Math@Palmtree@@6B@
rdata$r	SEGMENT
??_R4FormatterTypeE@DecimalFromatter@Internal@Core@Math@Palmtree@@6B@ DD 00H ; Palmtree::Math::Core::Internal::DecimalFromatter::FormatterTypeE::`RTTI Complete Object Locator'
	DD	00H
	DD	00H
	DD	FLAT:??_R0?AVFormatterTypeE@DecimalFromatter@Internal@Core@Math@Palmtree@@@8
	DD	FLAT:??_R3FormatterTypeE@DecimalFromatter@Internal@Core@Math@Palmtree@@8
rdata$r	ENDS
;	COMDAT ??_R1A@?0A@EA@FormatterTypeD@DecimalFromatter@Internal@Core@Math@Palmtree@@8
rdata$r	SEGMENT
??_R1A@?0A@EA@FormatterTypeD@DecimalFromatter@Internal@Core@Math@Palmtree@@8 DD FLAT:??_R0?AVFormatterTypeD@DecimalFromatter@Internal@Core@Math@Palmtree@@@8 ; Palmtree::Math::Core::Internal::DecimalFromatter::FormatterTypeD::`RTTI Base Class Descriptor at (0,-1,0,64)'
	DD	01H
	DD	00H
	DD	0ffffffffH
	DD	00H
	DD	040H
	DD	FLAT:??_R3FormatterTypeD@DecimalFromatter@Internal@Core@Math@Palmtree@@8
rdata$r	ENDS
;	COMDAT ??_R2FormatterTypeD@DecimalFromatter@Internal@Core@Math@Palmtree@@8
rdata$r	SEGMENT
??_R2FormatterTypeD@DecimalFromatter@Internal@Core@Math@Palmtree@@8 DD FLAT:??_R1A@?0A@EA@FormatterTypeD@DecimalFromatter@Internal@Core@Math@Palmtree@@8 ; Palmtree::Math::Core::Internal::DecimalFromatter::FormatterTypeD::`RTTI Base Class Array'
	DD	FLAT:??_R1A@?0A@EA@Formatter@DecimalFromatter@Internal@Core@Math@Palmtree@@8
rdata$r	ENDS
;	COMDAT ??_R3FormatterTypeD@DecimalFromatter@Internal@Core@Math@Palmtree@@8
rdata$r	SEGMENT
??_R3FormatterTypeD@DecimalFromatter@Internal@Core@Math@Palmtree@@8 DD 00H ; Palmtree::Math::Core::Internal::DecimalFromatter::FormatterTypeD::`RTTI Class Hierarchy Descriptor'
	DD	00H
	DD	02H
	DD	FLAT:??_R2FormatterTypeD@DecimalFromatter@Internal@Core@Math@Palmtree@@8
rdata$r	ENDS
;	COMDAT ??_R0?AVFormatterTypeD@DecimalFromatter@Internal@Core@Math@Palmtree@@@8
data$r	SEGMENT
??_R0?AVFormatterTypeD@DecimalFromatter@Internal@Core@Math@Palmtree@@@8 DD FLAT:??_7type_info@@6B@ ; Palmtree::Math::Core::Internal::DecimalFromatter::FormatterTypeD `RTTI Type Descriptor'
	DD	00H
	DB	'.?AVFormatterTypeD@DecimalFromatter@Internal@Core@Math@P'
	DB	'almtree@@', 00H
data$r	ENDS
;	COMDAT ??_R4FormatterTypeD@DecimalFromatter@Internal@Core@Math@Palmtree@@6B@
rdata$r	SEGMENT
??_R4FormatterTypeD@DecimalFromatter@Internal@Core@Math@Palmtree@@6B@ DD 00H ; Palmtree::Math::Core::Internal::DecimalFromatter::FormatterTypeD::`RTTI Complete Object Locator'
	DD	00H
	DD	00H
	DD	FLAT:??_R0?AVFormatterTypeD@DecimalFromatter@Internal@Core@Math@Palmtree@@@8
	DD	FLAT:??_R3FormatterTypeD@DecimalFromatter@Internal@Core@Math@Palmtree@@8
rdata$r	ENDS
;	COMDAT ??_R1A@?0A@EA@FormatterTypeC@DecimalFromatter@Internal@Core@Math@Palmtree@@8
rdata$r	SEGMENT
??_R1A@?0A@EA@FormatterTypeC@DecimalFromatter@Internal@Core@Math@Palmtree@@8 DD FLAT:??_R0?AVFormatterTypeC@DecimalFromatter@Internal@Core@Math@Palmtree@@@8 ; Palmtree::Math::Core::Internal::DecimalFromatter::FormatterTypeC::`RTTI Base Class Descriptor at (0,-1,0,64)'
	DD	01H
	DD	00H
	DD	0ffffffffH
	DD	00H
	DD	040H
	DD	FLAT:??_R3FormatterTypeC@DecimalFromatter@Internal@Core@Math@Palmtree@@8
rdata$r	ENDS
;	COMDAT ??_R2FormatterTypeC@DecimalFromatter@Internal@Core@Math@Palmtree@@8
rdata$r	SEGMENT
??_R2FormatterTypeC@DecimalFromatter@Internal@Core@Math@Palmtree@@8 DD FLAT:??_R1A@?0A@EA@FormatterTypeC@DecimalFromatter@Internal@Core@Math@Palmtree@@8 ; Palmtree::Math::Core::Internal::DecimalFromatter::FormatterTypeC::`RTTI Base Class Array'
	DD	FLAT:??_R1A@?0A@EA@Formatter@DecimalFromatter@Internal@Core@Math@Palmtree@@8
rdata$r	ENDS
;	COMDAT ??_R3FormatterTypeC@DecimalFromatter@Internal@Core@Math@Palmtree@@8
rdata$r	SEGMENT
??_R3FormatterTypeC@DecimalFromatter@Internal@Core@Math@Palmtree@@8 DD 00H ; Palmtree::Math::Core::Internal::DecimalFromatter::FormatterTypeC::`RTTI Class Hierarchy Descriptor'
	DD	00H
	DD	02H
	DD	FLAT:??_R2FormatterTypeC@DecimalFromatter@Internal@Core@Math@Palmtree@@8
rdata$r	ENDS
;	COMDAT ??_R0?AVFormatterTypeC@DecimalFromatter@Internal@Core@Math@Palmtree@@@8
data$r	SEGMENT
??_R0?AVFormatterTypeC@DecimalFromatter@Internal@Core@Math@Palmtree@@@8 DD FLAT:??_7type_info@@6B@ ; Palmtree::Math::Core::Internal::DecimalFromatter::FormatterTypeC `RTTI Type Descriptor'
	DD	00H
	DB	'.?AVFormatterTypeC@DecimalFromatter@Internal@Core@Math@P'
	DB	'almtree@@', 00H
data$r	ENDS
;	COMDAT ??_R4FormatterTypeC@DecimalFromatter@Internal@Core@Math@Palmtree@@6B@
rdata$r	SEGMENT
??_R4FormatterTypeC@DecimalFromatter@Internal@Core@Math@Palmtree@@6B@ DD 00H ; Palmtree::Math::Core::Internal::DecimalFromatter::FormatterTypeC::`RTTI Complete Object Locator'
	DD	00H
	DD	00H
	DD	FLAT:??_R0?AVFormatterTypeC@DecimalFromatter@Internal@Core@Math@Palmtree@@@8
	DD	FLAT:??_R3FormatterTypeC@DecimalFromatter@Internal@Core@Math@Palmtree@@8
rdata$r	ENDS
;	COMDAT ??_R1A@?0A@EA@Formatter@DecimalFromatter@Internal@Core@Math@Palmtree@@8
rdata$r	SEGMENT
??_R1A@?0A@EA@Formatter@DecimalFromatter@Internal@Core@Math@Palmtree@@8 DD FLAT:??_R0?AVFormatter@DecimalFromatter@Internal@Core@Math@Palmtree@@@8 ; Palmtree::Math::Core::Internal::DecimalFromatter::Formatter::`RTTI Base Class Descriptor at (0,-1,0,64)'
	DD	00H
	DD	00H
	DD	0ffffffffH
	DD	00H
	DD	040H
	DD	FLAT:??_R3Formatter@DecimalFromatter@Internal@Core@Math@Palmtree@@8
rdata$r	ENDS
;	COMDAT ??_R2Formatter@DecimalFromatter@Internal@Core@Math@Palmtree@@8
rdata$r	SEGMENT
??_R2Formatter@DecimalFromatter@Internal@Core@Math@Palmtree@@8 DD FLAT:??_R1A@?0A@EA@Formatter@DecimalFromatter@Internal@Core@Math@Palmtree@@8 ; Palmtree::Math::Core::Internal::DecimalFromatter::Formatter::`RTTI Base Class Array'
rdata$r	ENDS
;	COMDAT ??_R3Formatter@DecimalFromatter@Internal@Core@Math@Palmtree@@8
rdata$r	SEGMENT
??_R3Formatter@DecimalFromatter@Internal@Core@Math@Palmtree@@8 DD 00H ; Palmtree::Math::Core::Internal::DecimalFromatter::Formatter::`RTTI Class Hierarchy Descriptor'
	DD	00H
	DD	01H
	DD	FLAT:??_R2Formatter@DecimalFromatter@Internal@Core@Math@Palmtree@@8
rdata$r	ENDS
;	COMDAT ??_R0?AVFormatter@DecimalFromatter@Internal@Core@Math@Palmtree@@@8
data$r	SEGMENT
??_R0?AVFormatter@DecimalFromatter@Internal@Core@Math@Palmtree@@@8 DD FLAT:??_7type_info@@6B@ ; Palmtree::Math::Core::Internal::DecimalFromatter::Formatter `RTTI Type Descriptor'
	DD	00H
	DB	'.?AVFormatter@DecimalFromatter@Internal@Core@Math@Palmtr'
	DB	'ee@@', 00H
data$r	ENDS
;	COMDAT ??_R4Formatter@DecimalFromatter@Internal@Core@Math@Palmtree@@6B@
rdata$r	SEGMENT
??_R4Formatter@DecimalFromatter@Internal@Core@Math@Palmtree@@6B@ DD 00H ; Palmtree::Math::Core::Internal::DecimalFromatter::Formatter::`RTTI Complete Object Locator'
	DD	00H
	DD	00H
	DD	FLAT:??_R0?AVFormatter@DecimalFromatter@Internal@Core@Math@Palmtree@@@8
	DD	FLAT:??_R3Formatter@DecimalFromatter@Internal@Core@Math@Palmtree@@8
rdata$r	ENDS
;	COMDAT ??_R1A@?0A@EA@ThousandSeparatedStringWriter@DecimalFromatter@Internal@Core@Math@Palmtree@@8
rdata$r	SEGMENT
??_R1A@?0A@EA@ThousandSeparatedStringWriter@DecimalFromatter@Internal@Core@Math@Palmtree@@8 DD FLAT:??_R0?AVThousandSeparatedStringWriter@DecimalFromatter@Internal@Core@Math@Palmtree@@@8 ; Palmtree::Math::Core::Internal::DecimalFromatter::ThousandSeparatedStringWriter::`RTTI Base Class Descriptor at (0,-1,0,64)'
	DD	01H
	DD	00H
	DD	0ffffffffH
	DD	00H
	DD	040H
	DD	FLAT:??_R3ThousandSeparatedStringWriter@DecimalFromatter@Internal@Core@Math@Palmtree@@8
rdata$r	ENDS
;	COMDAT ??_R2ThousandSeparatedStringWriter@DecimalFromatter@Internal@Core@Math@Palmtree@@8
rdata$r	SEGMENT
??_R2ThousandSeparatedStringWriter@DecimalFromatter@Internal@Core@Math@Palmtree@@8 DD FLAT:??_R1A@?0A@EA@ThousandSeparatedStringWriter@DecimalFromatter@Internal@Core@Math@Palmtree@@8 ; Palmtree::Math::Core::Internal::DecimalFromatter::ThousandSeparatedStringWriter::`RTTI Base Class Array'
	DD	FLAT:??_R1A@?0A@EA@StringWriter@Internal@Core@Math@Palmtree@@8
rdata$r	ENDS
;	COMDAT ??_R3ThousandSeparatedStringWriter@DecimalFromatter@Internal@Core@Math@Palmtree@@8
rdata$r	SEGMENT
??_R3ThousandSeparatedStringWriter@DecimalFromatter@Internal@Core@Math@Palmtree@@8 DD 00H ; Palmtree::Math::Core::Internal::DecimalFromatter::ThousandSeparatedStringWriter::`RTTI Class Hierarchy Descriptor'
	DD	00H
	DD	02H
	DD	FLAT:??_R2ThousandSeparatedStringWriter@DecimalFromatter@Internal@Core@Math@Palmtree@@8
rdata$r	ENDS
;	COMDAT ??_R0?AVThousandSeparatedStringWriter@DecimalFromatter@Internal@Core@Math@Palmtree@@@8
data$r	SEGMENT
??_R0?AVThousandSeparatedStringWriter@DecimalFromatter@Internal@Core@Math@Palmtree@@@8 DD FLAT:??_7type_info@@6B@ ; Palmtree::Math::Core::Internal::DecimalFromatter::ThousandSeparatedStringWriter `RTTI Type Descriptor'
	DD	00H
	DB	'.?AVThousandSeparatedStringWriter@DecimalFromatter@Inter'
	DB	'nal@Core@Math@Palmtree@@', 00H
data$r	ENDS
;	COMDAT ??_R4ThousandSeparatedStringWriter@DecimalFromatter@Internal@Core@Math@Palmtree@@6B@
rdata$r	SEGMENT
??_R4ThousandSeparatedStringWriter@DecimalFromatter@Internal@Core@Math@Palmtree@@6B@ DD 00H ; Palmtree::Math::Core::Internal::DecimalFromatter::ThousandSeparatedStringWriter::`RTTI Complete Object Locator'
	DD	00H
	DD	00H
	DD	FLAT:??_R0?AVThousandSeparatedStringWriter@DecimalFromatter@Internal@Core@Math@Palmtree@@@8
	DD	FLAT:??_R3ThousandSeparatedStringWriter@DecimalFromatter@Internal@Core@Math@Palmtree@@8
rdata$r	ENDS
;	COMDAT ??_R1A@?0A@EA@ReverseStringWriter@Internal@Core@Math@Palmtree@@8
rdata$r	SEGMENT
??_R1A@?0A@EA@ReverseStringWriter@Internal@Core@Math@Palmtree@@8 DD FLAT:??_R0?AVReverseStringWriter@Internal@Core@Math@Palmtree@@@8 ; Palmtree::Math::Core::Internal::ReverseStringWriter::`RTTI Base Class Descriptor at (0,-1,0,64)'
	DD	01H
	DD	00H
	DD	0ffffffffH
	DD	00H
	DD	040H
	DD	FLAT:??_R3ReverseStringWriter@Internal@Core@Math@Palmtree@@8
rdata$r	ENDS
;	COMDAT ??_R2ReverseStringWriter@Internal@Core@Math@Palmtree@@8
rdata$r	SEGMENT
??_R2ReverseStringWriter@Internal@Core@Math@Palmtree@@8 DD FLAT:??_R1A@?0A@EA@ReverseStringWriter@Internal@Core@Math@Palmtree@@8 ; Palmtree::Math::Core::Internal::ReverseStringWriter::`RTTI Base Class Array'
	DD	FLAT:??_R1A@?0A@EA@StringWriter@Internal@Core@Math@Palmtree@@8
rdata$r	ENDS
;	COMDAT ??_R3ReverseStringWriter@Internal@Core@Math@Palmtree@@8
rdata$r	SEGMENT
??_R3ReverseStringWriter@Internal@Core@Math@Palmtree@@8 DD 00H ; Palmtree::Math::Core::Internal::ReverseStringWriter::`RTTI Class Hierarchy Descriptor'
	DD	00H
	DD	02H
	DD	FLAT:??_R2ReverseStringWriter@Internal@Core@Math@Palmtree@@8
rdata$r	ENDS
;	COMDAT ??_R0?AVReverseStringWriter@Internal@Core@Math@Palmtree@@@8
data$r	SEGMENT
??_R0?AVReverseStringWriter@Internal@Core@Math@Palmtree@@@8 DD FLAT:??_7type_info@@6B@ ; Palmtree::Math::Core::Internal::ReverseStringWriter `RTTI Type Descriptor'
	DD	00H
	DB	'.?AVReverseStringWriter@Internal@Core@Math@Palmtree@@', 00H
data$r	ENDS
;	COMDAT ??_R4ReverseStringWriter@Internal@Core@Math@Palmtree@@6B@
rdata$r	SEGMENT
??_R4ReverseStringWriter@Internal@Core@Math@Palmtree@@6B@ DD 00H ; Palmtree::Math::Core::Internal::ReverseStringWriter::`RTTI Complete Object Locator'
	DD	00H
	DD	00H
	DD	FLAT:??_R0?AVReverseStringWriter@Internal@Core@Math@Palmtree@@@8
	DD	FLAT:??_R3ReverseStringWriter@Internal@Core@Math@Palmtree@@8
rdata$r	ENDS
;	COMDAT ??_R1A@?0A@EA@StringWriter@Internal@Core@Math@Palmtree@@8
rdata$r	SEGMENT
??_R1A@?0A@EA@StringWriter@Internal@Core@Math@Palmtree@@8 DD FLAT:??_R0?AVStringWriter@Internal@Core@Math@Palmtree@@@8 ; Palmtree::Math::Core::Internal::StringWriter::`RTTI Base Class Descriptor at (0,-1,0,64)'
	DD	00H
	DD	00H
	DD	0ffffffffH
	DD	00H
	DD	040H
	DD	FLAT:??_R3StringWriter@Internal@Core@Math@Palmtree@@8
rdata$r	ENDS
;	COMDAT ??_R2StringWriter@Internal@Core@Math@Palmtree@@8
rdata$r	SEGMENT
??_R2StringWriter@Internal@Core@Math@Palmtree@@8 DD FLAT:??_R1A@?0A@EA@StringWriter@Internal@Core@Math@Palmtree@@8 ; Palmtree::Math::Core::Internal::StringWriter::`RTTI Base Class Array'
rdata$r	ENDS
;	COMDAT ??_R3StringWriter@Internal@Core@Math@Palmtree@@8
rdata$r	SEGMENT
??_R3StringWriter@Internal@Core@Math@Palmtree@@8 DD 00H	; Palmtree::Math::Core::Internal::StringWriter::`RTTI Class Hierarchy Descriptor'
	DD	00H
	DD	01H
	DD	FLAT:??_R2StringWriter@Internal@Core@Math@Palmtree@@8
rdata$r	ENDS
;	COMDAT ??_R0?AVStringWriter@Internal@Core@Math@Palmtree@@@8
data$r	SEGMENT
??_R0?AVStringWriter@Internal@Core@Math@Palmtree@@@8 DD FLAT:??_7type_info@@6B@ ; Palmtree::Math::Core::Internal::StringWriter `RTTI Type Descriptor'
	DD	00H
	DB	'.?AVStringWriter@Internal@Core@Math@Palmtree@@', 00H
data$r	ENDS
;	COMDAT ??_R4StringWriter@Internal@Core@Math@Palmtree@@6B@
rdata$r	SEGMENT
??_R4StringWriter@Internal@Core@Math@Palmtree@@6B@ DD 00H ; Palmtree::Math::Core::Internal::StringWriter::`RTTI Complete Object Locator'
	DD	00H
	DD	00H
	DD	FLAT:??_R0?AVStringWriter@Internal@Core@Math@Palmtree@@@8
	DD	FLAT:??_R3StringWriter@Internal@Core@Math@Palmtree@@8
rdata$r	ENDS
;	COMDAT ??_R1A@?0A@EA@ReverseStringReader@Internal@Core@Math@Palmtree@@8
rdata$r	SEGMENT
??_R1A@?0A@EA@ReverseStringReader@Internal@Core@Math@Palmtree@@8 DD FLAT:??_R0?AVReverseStringReader@Internal@Core@Math@Palmtree@@@8 ; Palmtree::Math::Core::Internal::ReverseStringReader::`RTTI Base Class Descriptor at (0,-1,0,64)'
	DD	01H
	DD	00H
	DD	0ffffffffH
	DD	00H
	DD	040H
	DD	FLAT:??_R3ReverseStringReader@Internal@Core@Math@Palmtree@@8
rdata$r	ENDS
;	COMDAT ??_R2ReverseStringReader@Internal@Core@Math@Palmtree@@8
rdata$r	SEGMENT
??_R2ReverseStringReader@Internal@Core@Math@Palmtree@@8 DD FLAT:??_R1A@?0A@EA@ReverseStringReader@Internal@Core@Math@Palmtree@@8 ; Palmtree::Math::Core::Internal::ReverseStringReader::`RTTI Base Class Array'
	DD	FLAT:??_R1A@?0A@EA@StringReader@Internal@Core@Math@Palmtree@@8
rdata$r	ENDS
;	COMDAT ??_R3ReverseStringReader@Internal@Core@Math@Palmtree@@8
rdata$r	SEGMENT
??_R3ReverseStringReader@Internal@Core@Math@Palmtree@@8 DD 00H ; Palmtree::Math::Core::Internal::ReverseStringReader::`RTTI Class Hierarchy Descriptor'
	DD	00H
	DD	02H
	DD	FLAT:??_R2ReverseStringReader@Internal@Core@Math@Palmtree@@8
rdata$r	ENDS
;	COMDAT ??_R0?AVReverseStringReader@Internal@Core@Math@Palmtree@@@8
data$r	SEGMENT
??_R0?AVReverseStringReader@Internal@Core@Math@Palmtree@@@8 DD FLAT:??_7type_info@@6B@ ; Palmtree::Math::Core::Internal::ReverseStringReader `RTTI Type Descriptor'
	DD	00H
	DB	'.?AVReverseStringReader@Internal@Core@Math@Palmtree@@', 00H
data$r	ENDS
;	COMDAT ??_R4ReverseStringReader@Internal@Core@Math@Palmtree@@6B@
rdata$r	SEGMENT
??_R4ReverseStringReader@Internal@Core@Math@Palmtree@@6B@ DD 00H ; Palmtree::Math::Core::Internal::ReverseStringReader::`RTTI Complete Object Locator'
	DD	00H
	DD	00H
	DD	FLAT:??_R0?AVReverseStringReader@Internal@Core@Math@Palmtree@@@8
	DD	FLAT:??_R3ReverseStringReader@Internal@Core@Math@Palmtree@@8
rdata$r	ENDS
;	COMDAT ??_R1A@?0A@EA@StringReader@Internal@Core@Math@Palmtree@@8
rdata$r	SEGMENT
??_R1A@?0A@EA@StringReader@Internal@Core@Math@Palmtree@@8 DD FLAT:??_R0?AVStringReader@Internal@Core@Math@Palmtree@@@8 ; Palmtree::Math::Core::Internal::StringReader::`RTTI Base Class Descriptor at (0,-1,0,64)'
	DD	00H
	DD	00H
	DD	0ffffffffH
	DD	00H
	DD	040H
	DD	FLAT:??_R3StringReader@Internal@Core@Math@Palmtree@@8
rdata$r	ENDS
;	COMDAT ??_R2StringReader@Internal@Core@Math@Palmtree@@8
rdata$r	SEGMENT
??_R2StringReader@Internal@Core@Math@Palmtree@@8 DD FLAT:??_R1A@?0A@EA@StringReader@Internal@Core@Math@Palmtree@@8 ; Palmtree::Math::Core::Internal::StringReader::`RTTI Base Class Array'
rdata$r	ENDS
;	COMDAT ??_R3StringReader@Internal@Core@Math@Palmtree@@8
rdata$r	SEGMENT
??_R3StringReader@Internal@Core@Math@Palmtree@@8 DD 00H	; Palmtree::Math::Core::Internal::StringReader::`RTTI Class Hierarchy Descriptor'
	DD	00H
	DD	01H
	DD	FLAT:??_R2StringReader@Internal@Core@Math@Palmtree@@8
rdata$r	ENDS
;	COMDAT ??_R0?AVStringReader@Internal@Core@Math@Palmtree@@@8
data$r	SEGMENT
??_R0?AVStringReader@Internal@Core@Math@Palmtree@@@8 DD FLAT:??_7type_info@@6B@ ; Palmtree::Math::Core::Internal::StringReader `RTTI Type Descriptor'
	DD	00H
	DB	'.?AVStringReader@Internal@Core@Math@Palmtree@@', 00H
data$r	ENDS
;	COMDAT ??_R4StringReader@Internal@Core@Math@Palmtree@@6B@
rdata$r	SEGMENT
??_R4StringReader@Internal@Core@Math@Palmtree@@6B@ DD 00H ; Palmtree::Math::Core::Internal::StringReader::`RTTI Complete Object Locator'
	DD	00H
	DD	00H
	DD	FLAT:??_R0?AVStringReader@Internal@Core@Math@Palmtree@@@8
	DD	FLAT:??_R3StringReader@Internal@Core@Math@Palmtree@@8
rdata$r	ENDS
;	COMDAT ??_R1A@?0A@EA@InternalErrorException@Internal@Core@Math@Palmtree@@8
rdata$r	SEGMENT
??_R1A@?0A@EA@InternalErrorException@Internal@Core@Math@Palmtree@@8 DD FLAT:??_R0?AVInternalErrorException@Internal@Core@Math@Palmtree@@@8 ; Palmtree::Math::Core::Internal::InternalErrorException::`RTTI Base Class Descriptor at (0,-1,0,64)'
	DD	02H
	DD	00H
	DD	0ffffffffH
	DD	00H
	DD	040H
	DD	FLAT:??_R3InternalErrorException@Internal@Core@Math@Palmtree@@8
rdata$r	ENDS
;	COMDAT ??_R2InternalErrorException@Internal@Core@Math@Palmtree@@8
rdata$r	SEGMENT
??_R2InternalErrorException@Internal@Core@Math@Palmtree@@8 DD FLAT:??_R1A@?0A@EA@InternalErrorException@Internal@Core@Math@Palmtree@@8 ; Palmtree::Math::Core::Internal::InternalErrorException::`RTTI Base Class Array'
	DD	FLAT:??_R1A@?0A@EA@Exception@Internal@Core@Math@Palmtree@@8
	DD	FLAT:??_R1A@?0A@EN@exception@std@@8
rdata$r	ENDS
;	COMDAT ??_R3InternalErrorException@Internal@Core@Math@Palmtree@@8
rdata$r	SEGMENT
??_R3InternalErrorException@Internal@Core@Math@Palmtree@@8 DD 00H ; Palmtree::Math::Core::Internal::InternalErrorException::`RTTI Class Hierarchy Descriptor'
	DD	00H
	DD	03H
	DD	FLAT:??_R2InternalErrorException@Internal@Core@Math@Palmtree@@8
rdata$r	ENDS
;	COMDAT ??_R4InternalErrorException@Internal@Core@Math@Palmtree@@6B@
rdata$r	SEGMENT
??_R4InternalErrorException@Internal@Core@Math@Palmtree@@6B@ DD 00H ; Palmtree::Math::Core::Internal::InternalErrorException::`RTTI Complete Object Locator'
	DD	00H
	DD	00H
	DD	FLAT:??_R0?AVInternalErrorException@Internal@Core@Math@Palmtree@@@8
	DD	FLAT:??_R3InternalErrorException@Internal@Core@Math@Palmtree@@8
rdata$r	ENDS
;	COMDAT ??_R1A@?0A@EA@NotSupportedException@Internal@Core@Math@Palmtree@@8
rdata$r	SEGMENT
??_R1A@?0A@EA@NotSupportedException@Internal@Core@Math@Palmtree@@8 DD FLAT:??_R0?AVNotSupportedException@Internal@Core@Math@Palmtree@@@8 ; Palmtree::Math::Core::Internal::NotSupportedException::`RTTI Base Class Descriptor at (0,-1,0,64)'
	DD	02H
	DD	00H
	DD	0ffffffffH
	DD	00H
	DD	040H
	DD	FLAT:??_R3NotSupportedException@Internal@Core@Math@Palmtree@@8
rdata$r	ENDS
;	COMDAT ??_R2NotSupportedException@Internal@Core@Math@Palmtree@@8
rdata$r	SEGMENT
??_R2NotSupportedException@Internal@Core@Math@Palmtree@@8 DD FLAT:??_R1A@?0A@EA@NotSupportedException@Internal@Core@Math@Palmtree@@8 ; Palmtree::Math::Core::Internal::NotSupportedException::`RTTI Base Class Array'
	DD	FLAT:??_R1A@?0A@EA@Exception@Internal@Core@Math@Palmtree@@8
	DD	FLAT:??_R1A@?0A@EN@exception@std@@8
rdata$r	ENDS
;	COMDAT ??_R3NotSupportedException@Internal@Core@Math@Palmtree@@8
rdata$r	SEGMENT
??_R3NotSupportedException@Internal@Core@Math@Palmtree@@8 DD 00H ; Palmtree::Math::Core::Internal::NotSupportedException::`RTTI Class Hierarchy Descriptor'
	DD	00H
	DD	03H
	DD	FLAT:??_R2NotSupportedException@Internal@Core@Math@Palmtree@@8
rdata$r	ENDS
;	COMDAT ??_R4NotSupportedException@Internal@Core@Math@Palmtree@@6B@
rdata$r	SEGMENT
??_R4NotSupportedException@Internal@Core@Math@Palmtree@@6B@ DD 00H ; Palmtree::Math::Core::Internal::NotSupportedException::`RTTI Complete Object Locator'
	DD	00H
	DD	00H
	DD	FLAT:??_R0?AVNotSupportedException@Internal@Core@Math@Palmtree@@@8
	DD	FLAT:??_R3NotSupportedException@Internal@Core@Math@Palmtree@@8
rdata$r	ENDS
;	COMDAT ??_R1A@?0A@EA@InsufficientBufferException@Internal@Core@Math@Palmtree@@8
rdata$r	SEGMENT
??_R1A@?0A@EA@InsufficientBufferException@Internal@Core@Math@Palmtree@@8 DD FLAT:??_R0?AVInsufficientBufferException@Internal@Core@Math@Palmtree@@@8 ; Palmtree::Math::Core::Internal::InsufficientBufferException::`RTTI Base Class Descriptor at (0,-1,0,64)'
	DD	02H
	DD	00H
	DD	0ffffffffH
	DD	00H
	DD	040H
	DD	FLAT:??_R3InsufficientBufferException@Internal@Core@Math@Palmtree@@8
rdata$r	ENDS
;	COMDAT ??_R2InsufficientBufferException@Internal@Core@Math@Palmtree@@8
rdata$r	SEGMENT
??_R2InsufficientBufferException@Internal@Core@Math@Palmtree@@8 DD FLAT:??_R1A@?0A@EA@InsufficientBufferException@Internal@Core@Math@Palmtree@@8 ; Palmtree::Math::Core::Internal::InsufficientBufferException::`RTTI Base Class Array'
	DD	FLAT:??_R1A@?0A@EA@Exception@Internal@Core@Math@Palmtree@@8
	DD	FLAT:??_R1A@?0A@EN@exception@std@@8
rdata$r	ENDS
;	COMDAT ??_R3InsufficientBufferException@Internal@Core@Math@Palmtree@@8
rdata$r	SEGMENT
??_R3InsufficientBufferException@Internal@Core@Math@Palmtree@@8 DD 00H ; Palmtree::Math::Core::Internal::InsufficientBufferException::`RTTI Class Hierarchy Descriptor'
	DD	00H
	DD	03H
	DD	FLAT:??_R2InsufficientBufferException@Internal@Core@Math@Palmtree@@8
rdata$r	ENDS
;	COMDAT ??_R4InsufficientBufferException@Internal@Core@Math@Palmtree@@6B@
rdata$r	SEGMENT
??_R4InsufficientBufferException@Internal@Core@Math@Palmtree@@6B@ DD 00H ; Palmtree::Math::Core::Internal::InsufficientBufferException::`RTTI Complete Object Locator'
	DD	00H
	DD	00H
	DD	FLAT:??_R0?AVInsufficientBufferException@Internal@Core@Math@Palmtree@@@8
	DD	FLAT:??_R3InsufficientBufferException@Internal@Core@Math@Palmtree@@8
rdata$r	ENDS
;	COMDAT ??_R1A@?0A@EA@FormatException@Internal@Core@Math@Palmtree@@8
rdata$r	SEGMENT
??_R1A@?0A@EA@FormatException@Internal@Core@Math@Palmtree@@8 DD FLAT:??_R0?AVFormatException@Internal@Core@Math@Palmtree@@@8 ; Palmtree::Math::Core::Internal::FormatException::`RTTI Base Class Descriptor at (0,-1,0,64)'
	DD	02H
	DD	00H
	DD	0ffffffffH
	DD	00H
	DD	040H
	DD	FLAT:??_R3FormatException@Internal@Core@Math@Palmtree@@8
rdata$r	ENDS
;	COMDAT ??_R2FormatException@Internal@Core@Math@Palmtree@@8
rdata$r	SEGMENT
??_R2FormatException@Internal@Core@Math@Palmtree@@8 DD FLAT:??_R1A@?0A@EA@FormatException@Internal@Core@Math@Palmtree@@8 ; Palmtree::Math::Core::Internal::FormatException::`RTTI Base Class Array'
	DD	FLAT:??_R1A@?0A@EA@Exception@Internal@Core@Math@Palmtree@@8
	DD	FLAT:??_R1A@?0A@EN@exception@std@@8
rdata$r	ENDS
;	COMDAT ??_R3FormatException@Internal@Core@Math@Palmtree@@8
rdata$r	SEGMENT
??_R3FormatException@Internal@Core@Math@Palmtree@@8 DD 00H ; Palmtree::Math::Core::Internal::FormatException::`RTTI Class Hierarchy Descriptor'
	DD	00H
	DD	03H
	DD	FLAT:??_R2FormatException@Internal@Core@Math@Palmtree@@8
rdata$r	ENDS
;	COMDAT ??_R4FormatException@Internal@Core@Math@Palmtree@@6B@
rdata$r	SEGMENT
??_R4FormatException@Internal@Core@Math@Palmtree@@6B@ DD 00H ; Palmtree::Math::Core::Internal::FormatException::`RTTI Complete Object Locator'
	DD	00H
	DD	00H
	DD	FLAT:??_R0?AVFormatException@Internal@Core@Math@Palmtree@@@8
	DD	FLAT:??_R3FormatException@Internal@Core@Math@Palmtree@@8
rdata$r	ENDS
;	COMDAT ??_R1A@?0A@EA@ArgumentNullException@Internal@Core@Math@Palmtree@@8
rdata$r	SEGMENT
??_R1A@?0A@EA@ArgumentNullException@Internal@Core@Math@Palmtree@@8 DD FLAT:??_R0?AVArgumentNullException@Internal@Core@Math@Palmtree@@@8 ; Palmtree::Math::Core::Internal::ArgumentNullException::`RTTI Base Class Descriptor at (0,-1,0,64)'
	DD	02H
	DD	00H
	DD	0ffffffffH
	DD	00H
	DD	040H
	DD	FLAT:??_R3ArgumentNullException@Internal@Core@Math@Palmtree@@8
rdata$r	ENDS
;	COMDAT ??_R2ArgumentNullException@Internal@Core@Math@Palmtree@@8
rdata$r	SEGMENT
??_R2ArgumentNullException@Internal@Core@Math@Palmtree@@8 DD FLAT:??_R1A@?0A@EA@ArgumentNullException@Internal@Core@Math@Palmtree@@8 ; Palmtree::Math::Core::Internal::ArgumentNullException::`RTTI Base Class Array'
	DD	FLAT:??_R1A@?0A@EA@Exception@Internal@Core@Math@Palmtree@@8
	DD	FLAT:??_R1A@?0A@EN@exception@std@@8
rdata$r	ENDS
;	COMDAT ??_R3ArgumentNullException@Internal@Core@Math@Palmtree@@8
rdata$r	SEGMENT
??_R3ArgumentNullException@Internal@Core@Math@Palmtree@@8 DD 00H ; Palmtree::Math::Core::Internal::ArgumentNullException::`RTTI Class Hierarchy Descriptor'
	DD	00H
	DD	03H
	DD	FLAT:??_R2ArgumentNullException@Internal@Core@Math@Palmtree@@8
rdata$r	ENDS
;	COMDAT ??_R4ArgumentNullException@Internal@Core@Math@Palmtree@@6B@
rdata$r	SEGMENT
??_R4ArgumentNullException@Internal@Core@Math@Palmtree@@6B@ DD 00H ; Palmtree::Math::Core::Internal::ArgumentNullException::`RTTI Complete Object Locator'
	DD	00H
	DD	00H
	DD	FLAT:??_R0?AVArgumentNullException@Internal@Core@Math@Palmtree@@@8
	DD	FLAT:??_R3ArgumentNullException@Internal@Core@Math@Palmtree@@8
rdata$r	ENDS
;	COMDAT ??_R1A@?0A@EN@exception@std@@8
rdata$r	SEGMENT
??_R1A@?0A@EN@exception@std@@8 DD FLAT:??_R0?AVexception@std@@@8 ; std::exception::`RTTI Base Class Descriptor at (0,-1,0,77)'
	DD	00H
	DD	00H
	DD	0ffffffffH
	DD	00H
	DD	04dH
	DD	FLAT:??_R3exception@std@@8
rdata$r	ENDS
;	COMDAT ??_R1A@?0A@EA@Exception@Internal@Core@Math@Palmtree@@8
rdata$r	SEGMENT
??_R1A@?0A@EA@Exception@Internal@Core@Math@Palmtree@@8 DD FLAT:??_R0?AVException@Internal@Core@Math@Palmtree@@@8 ; Palmtree::Math::Core::Internal::Exception::`RTTI Base Class Descriptor at (0,-1,0,64)'
	DD	01H
	DD	00H
	DD	0ffffffffH
	DD	00H
	DD	040H
	DD	FLAT:??_R3Exception@Internal@Core@Math@Palmtree@@8
rdata$r	ENDS
;	COMDAT ??_R2Exception@Internal@Core@Math@Palmtree@@8
rdata$r	SEGMENT
??_R2Exception@Internal@Core@Math@Palmtree@@8 DD FLAT:??_R1A@?0A@EA@Exception@Internal@Core@Math@Palmtree@@8 ; Palmtree::Math::Core::Internal::Exception::`RTTI Base Class Array'
	DD	FLAT:??_R1A@?0A@EN@exception@std@@8
rdata$r	ENDS
;	COMDAT ??_R3Exception@Internal@Core@Math@Palmtree@@8
rdata$r	SEGMENT
??_R3Exception@Internal@Core@Math@Palmtree@@8 DD 00H	; Palmtree::Math::Core::Internal::Exception::`RTTI Class Hierarchy Descriptor'
	DD	00H
	DD	02H
	DD	FLAT:??_R2Exception@Internal@Core@Math@Palmtree@@8
rdata$r	ENDS
;	COMDAT ??_R4Exception@Internal@Core@Math@Palmtree@@6B@
rdata$r	SEGMENT
??_R4Exception@Internal@Core@Math@Palmtree@@6B@ DD 00H	; Palmtree::Math::Core::Internal::Exception::`RTTI Complete Object Locator'
	DD	00H
	DD	00H
	DD	FLAT:??_R0?AVException@Internal@Core@Math@Palmtree@@@8
	DD	FLAT:??_R3Exception@Internal@Core@Math@Palmtree@@8
rdata$r	ENDS
;	COMDAT ??_R1A@?0A@EA@exception@std@@8
rdata$r	SEGMENT
??_R1A@?0A@EA@exception@std@@8 DD FLAT:??_R0?AVexception@std@@@8 ; std::exception::`RTTI Base Class Descriptor at (0,-1,0,64)'
	DD	00H
	DD	00H
	DD	0ffffffffH
	DD	00H
	DD	040H
	DD	FLAT:??_R3exception@std@@8
rdata$r	ENDS
;	COMDAT ??_R2exception@std@@8
rdata$r	SEGMENT
??_R2exception@std@@8 DD FLAT:??_R1A@?0A@EA@exception@std@@8 ; std::exception::`RTTI Base Class Array'
rdata$r	ENDS
;	COMDAT ??_R3exception@std@@8
rdata$r	SEGMENT
??_R3exception@std@@8 DD 00H				; std::exception::`RTTI Class Hierarchy Descriptor'
	DD	00H
	DD	01H
	DD	FLAT:??_R2exception@std@@8
rdata$r	ENDS
;	COMDAT ??_R0?AVexception@std@@@8
data$r	SEGMENT
??_R0?AVexception@std@@@8 DD FLAT:??_7type_info@@6B@	; std::exception `RTTI Type Descriptor'
	DD	00H
	DB	'.?AVexception@std@@', 00H
data$r	ENDS
;	COMDAT ??_R4exception@std@@6B@
rdata$r	SEGMENT
??_R4exception@std@@6B@ DD 00H				; std::exception::`RTTI Complete Object Locator'
	DD	00H
	DD	00H
	DD	FLAT:??_R0?AVexception@std@@@8
	DD	FLAT:??_R3exception@std@@8
rdata$r	ENDS
;	COMDAT ??_C@_13KJIIAINM@?$AA?$CL@
CONST	SEGMENT
??_C@_13KJIIAINM@?$AA?$CL@ DB '+', 00H, 00H, 00H	; `string'
CONST	ENDS
;	COMDAT ??_C@_13BGNNJOKC@?$AA0@
CONST	SEGMENT
??_C@_13BGNNJOKC@?$AA0@ DB '0 ', 00H, 00H		; `string'
CONST	ENDS
;	COMDAT ??_C@_13EJFHHPOP@?$AA?$CF@
CONST	SEGMENT
??_C@_13EJFHHPOP@?$AA?$CF@ DB '%', 00H, 00H, 00H	; `string'
CONST	ENDS
;	COMDAT ??_C@_13IMODFHAA@?$AA?9@
CONST	SEGMENT
??_C@_13IMODFHAA@?$AA?9@ DB '-', 00H, 00H, 00H		; `string'
CONST	ENDS
;	COMDAT ??_C@_13BMLCKOLB@?$PP?$KE@
CONST	SEGMENT
??_C@_13BMLCKOLB@?$PP?$KE@ DB 0a4H, 00H, 00H, 00H	; `string'
CONST	ENDS
;	COMDAT ??_C@_13DMCFHHKM@?$AA3@
CONST	SEGMENT
??_C@_13DMCFHHKM@?$AA3@ DB '3', 00H, 00H, 00H		; `string'
CONST	ENDS
;	COMDAT ??_C@_13DEFPDAGF@?$AA?0@
CONST	SEGMENT
??_C@_13DEFPDAGF@?$AA?0@ DB ',', 00H, 00H, 00H		; `string'
CONST	ENDS
;	COMDAT ??_C@_13JOFGPIOO@?$AA?4@
CONST	SEGMENT
??_C@_13JOFGPIOO@?$AA?4@ DB '.', 00H, 00H, 00H		; `string'
CONST	ENDS
;	COMDAT ??_C@_1CK@ECFIEPAC@?$AA?$BF?$AAp?$AAk?$AAn?$AAu?$AAl?$AAl?$AAp?$AAt?$AAr?$AAL?$AA?$AO?$AAH?$PP?$IJ?$PP?$IM@
CONST	SEGMENT
??_C@_1CK@ECFIEPAC@?$AA?$BF?$AAp?$AAk?$AAn?$AAu?$AAl?$AAl?$AAp?$AAt?$AAr?$AAL?$AA?$AO?$AAH?$PP?$IJ?$PP?$IM@ DB 015H
	DB	'_pek0n', 00H, 'u', 00H, 'l', 00H, 'l', 00H, 'p', 00H, 't', 00H
	DB	'r', 00H, 'L0', 0eH, 'NH0', 089H, '0', 08cH, '0f0D0~0Y0', 02H, '0'
	DB	00H, 00H					; `string'
CONST	ENDS
;	COMDAT ??_C@_13HADAKIJA@?$AAx@
CONST	SEGMENT
??_C@_13HADAKIJA@?$AAx@ DB 'x', 00H, 00H, 00H		; `string'
CONST	ENDS
;	COMDAT __CT??_R0?AVArgumentNullException@Internal@Core@Math@Palmtree@@@8??0ArgumentNullException@Internal@Core@Math@Palmtree@@QAE@ABV01234@@Z24
xdata$x	SEGMENT
__CT??_R0?AVArgumentNullException@Internal@Core@Math@Palmtree@@@8??0ArgumentNullException@Internal@Core@Math@Palmtree@@QAE@ABV01234@@Z24 DD 00H
	DD	FLAT:??_R0?AVArgumentNullException@Internal@Core@Math@Palmtree@@@8
	DD	00H
	DD	0ffffffffH
	ORG $+4
	DD	018H
	DD	FLAT:??0ArgumentNullException@Internal@Core@Math@Palmtree@@QAE@ABV01234@@Z
xdata$x	ENDS
;	COMDAT ??_R0?AVArgumentNullException@Internal@Core@Math@Palmtree@@@8
data$r	SEGMENT
??_R0?AVArgumentNullException@Internal@Core@Math@Palmtree@@@8 DD FLAT:??_7type_info@@6B@ ; Palmtree::Math::Core::Internal::ArgumentNullException `RTTI Type Descriptor'
	DD	00H
	DB	'.?AVArgumentNullException@Internal@Core@Math@Palmtree@@', 00H
data$r	ENDS
;	COMDAT __CTA2?AVArgumentNullException@Internal@Core@Math@Palmtree@@
xdata$x	SEGMENT
__CTA2?AVArgumentNullException@Internal@Core@Math@Palmtree@@ DD 02H
	DD	FLAT:__CT??_R0?AVArgumentNullException@Internal@Core@Math@Palmtree@@@8??0ArgumentNullException@Internal@Core@Math@Palmtree@@QAE@ABV01234@@Z24
	DD	FLAT:__CT??_R0?AVException@Internal@Core@Math@Palmtree@@@8??0Exception@Internal@Core@Math@Palmtree@@QAE@ABV01234@@Z24
xdata$x	ENDS
;	COMDAT __TI2?AVArgumentNullException@Internal@Core@Math@Palmtree@@
xdata$x	SEGMENT
__TI2?AVArgumentNullException@Internal@Core@Math@Palmtree@@ DD 00H
	DD	FLAT:??1ArgumentNullException@Internal@Core@Math@Palmtree@@UAE@XZ
	DD	00H
	DD	FLAT:__CTA2?AVArgumentNullException@Internal@Core@Math@Palmtree@@
xdata$x	ENDS
;	COMDAT ??_C@_1BI@BIIKHCEK@?$AA?$CK?$PP?e?$AAn?$PP?x?$AA?$AP?$AA?$AH?$PP?$JK?$AAP?$AAg?$AAY?$AA?$AC@
CONST	SEGMENT
??_C@_1BI@BIIKHCEK@?$AA?$CK?$PP?e?$AAn?$PP?x?$AA?$AP?$AA?$AH?$PP?$JK?$AAP?$AAg?$AAY?$AA?$AC@ DB '*'
	DB	'g', 0e5H, 'wn0', 0f8H, 'f', 0fH, '_', 07H, 'c', 09aH, '[P[g0Y'
	DB	'0', 02H, '0', 00H, 00H			; `string'
CONST	ENDS
;	COMDAT __CT??_R0?AVFormatException@Internal@Core@Math@Palmtree@@@8??0FormatException@Internal@Core@Math@Palmtree@@QAE@ABV01234@@Z24
xdata$x	SEGMENT
__CT??_R0?AVFormatException@Internal@Core@Math@Palmtree@@@8??0FormatException@Internal@Core@Math@Palmtree@@QAE@ABV01234@@Z24 DD 00H
	DD	FLAT:??_R0?AVFormatException@Internal@Core@Math@Palmtree@@@8
	DD	00H
	DD	0ffffffffH
	ORG $+4
	DD	018H
	DD	FLAT:??0FormatException@Internal@Core@Math@Palmtree@@QAE@ABV01234@@Z
xdata$x	ENDS
;	COMDAT ??_R0?AVFormatException@Internal@Core@Math@Palmtree@@@8
data$r	SEGMENT
??_R0?AVFormatException@Internal@Core@Math@Palmtree@@@8 DD FLAT:??_7type_info@@6B@ ; Palmtree::Math::Core::Internal::FormatException `RTTI Type Descriptor'
	DD	00H
	DB	'.?AVFormatException@Internal@Core@Math@Palmtree@@', 00H
data$r	ENDS
;	COMDAT __CTA2?AVFormatException@Internal@Core@Math@Palmtree@@
xdata$x	SEGMENT
__CTA2?AVFormatException@Internal@Core@Math@Palmtree@@ DD 02H
	DD	FLAT:__CT??_R0?AVFormatException@Internal@Core@Math@Palmtree@@@8??0FormatException@Internal@Core@Math@Palmtree@@QAE@ABV01234@@Z24
	DD	FLAT:__CT??_R0?AVException@Internal@Core@Math@Palmtree@@@8??0Exception@Internal@Core@Math@Palmtree@@QAE@ABV01234@@Z24
xdata$x	ENDS
;	COMDAT __TI2?AVFormatException@Internal@Core@Math@Palmtree@@
xdata$x	SEGMENT
__TI2?AVFormatException@Internal@Core@Math@Palmtree@@ DD 00H
	DD	FLAT:??1FormatException@Internal@Core@Math@Palmtree@@UAE@XZ
	DD	00H
	DD	FLAT:__CTA2?AVFormatException@Internal@Core@Math@Palmtree@@
xdata$x	ENDS
;	COMDAT ??_C@_1DO@MFGCBHKN@?$PP?$KL?$PP?$LJ?$PP?$LP?$PP?$OA?$PP?x?$AA?$AP?$AAk?$PP?$II?$PP?$IL?$AAT?$AAo?$AAS?$AAt?$AAr?$AAi@
CONST	SEGMENT
??_C@_1DO@MFGCBHKN@?$PP?$KL?$PP?$LJ?$PP?$LP?$PP?$OA?$PP?x?$AA?$AP?$AAk?$PP?$II?$PP?$IL?$AAT?$AAo?$AAS?$AAt?$AAr?$AAi@ DB 0abH
	DB	'0', 0b9H, '0', 0bfH, '0', 0e0H, '0', 0f8H, 'f', 0fH, '_k0', 088H
	DB	'0', 08bH, '0T', 00H, 'o', 00H, 'S', 00H, 't', 00H, 'r', 00H, 'i'
	DB	00H, 'n', 00H, 'g', 00H, 'o0', 0b5H, '0', 0ddH, '0', 0fcH, '0', 0c8H
	DB	'0U0', 08cH, '0f0D0~0[0', 093H, '0', 02H, '0', 00H, 00H ; `string'
CONST	ENDS
;	COMDAT __CT??_R0?AVNotSupportedException@Internal@Core@Math@Palmtree@@@8??0NotSupportedException@Internal@Core@Math@Palmtree@@QAE@ABV01234@@Z24
xdata$x	SEGMENT
__CT??_R0?AVNotSupportedException@Internal@Core@Math@Palmtree@@@8??0NotSupportedException@Internal@Core@Math@Palmtree@@QAE@ABV01234@@Z24 DD 00H
	DD	FLAT:??_R0?AVNotSupportedException@Internal@Core@Math@Palmtree@@@8
	DD	00H
	DD	0ffffffffH
	ORG $+4
	DD	018H
	DD	FLAT:??0NotSupportedException@Internal@Core@Math@Palmtree@@QAE@ABV01234@@Z
xdata$x	ENDS
;	COMDAT ??_R0?AVNotSupportedException@Internal@Core@Math@Palmtree@@@8
data$r	SEGMENT
??_R0?AVNotSupportedException@Internal@Core@Math@Palmtree@@@8 DD FLAT:??_7type_info@@6B@ ; Palmtree::Math::Core::Internal::NotSupportedException `RTTI Type Descriptor'
	DD	00H
	DB	'.?AVNotSupportedException@Internal@Core@Math@Palmtree@@', 00H
data$r	ENDS
;	COMDAT __CTA2?AVNotSupportedException@Internal@Core@Math@Palmtree@@
xdata$x	SEGMENT
__CTA2?AVNotSupportedException@Internal@Core@Math@Palmtree@@ DD 02H
	DD	FLAT:__CT??_R0?AVNotSupportedException@Internal@Core@Math@Palmtree@@@8??0NotSupportedException@Internal@Core@Math@Palmtree@@QAE@ABV01234@@Z24
	DD	FLAT:__CT??_R0?AVException@Internal@Core@Math@Palmtree@@@8??0Exception@Internal@Core@Math@Palmtree@@QAE@ABV01234@@Z24
xdata$x	ENDS
;	COMDAT __TI2?AVNotSupportedException@Internal@Core@Math@Palmtree@@
xdata$x	SEGMENT
__TI2?AVNotSupportedException@Internal@Core@Math@Palmtree@@ DD 00H
	DD	FLAT:??1NotSupportedException@Internal@Core@Math@Palmtree@@UAE@XZ
	DD	00H
	DD	FLAT:__CTA2?AVNotSupportedException@Internal@Core@Math@Palmtree@@
xdata$x	ENDS
_DATA	SEGMENT
?hexadecimal_lower_digits@HexaDecimalFormatter@Internal@Core@Math@Palmtree@@3PA_WA DB '0'
	DB	00H, '1', 00H, '2', 00H, '3', 00H, '4', 00H, '5', 00H, '6', 00H
	DB	'7', 00H, '8', 00H, '9', 00H, 'a', 00H, 'b', 00H, 'c', 00H, 'd'
	DB	00H, 'e', 00H, 'f', 00H, 00H, 00H		; Palmtree::Math::Core::Internal::HexaDecimalFormatter::hexadecimal_lower_digits
	ORG $+2
?hexadecimal_upper_digits@HexaDecimalFormatter@Internal@Core@Math@Palmtree@@3PA_WA DB '0'
	DB	00H, '1', 00H, '2', 00H, '3', 00H, '4', 00H, '5', 00H, '6', 00H
	DB	'7', 00H, '8', 00H, '9', 00H, 'A', 00H, 'B', 00H, 'C', 00H, 'D'
	DB	00H, 'E', 00H, 'F', 00H, 00H, 00H		; Palmtree::Math::Core::Internal::HexaDecimalFormatter::hexadecimal_upper_digits
_DATA	ENDS
;	COMDAT ??_7FormatterTypeP@DecimalFromatter@Internal@Core@Math@Palmtree@@6B@
CONST	SEGMENT
??_7FormatterTypeP@DecimalFromatter@Internal@Core@Math@Palmtree@@6B@ DD FLAT:??_R4FormatterTypeP@DecimalFromatter@Internal@Core@Math@Palmtree@@6B@ ; Palmtree::Math::Core::Internal::DecimalFromatter::FormatterTypeP::`vftable'
	DD	FLAT:?GetDefaultPrecisionValue@FormatterTypeP@DecimalFromatter@Internal@Core@Math@Palmtree@@MAEHXZ
	DD	FLAT:?FormatInternally@FormatterTypeP@DecimalFromatter@Internal@Core@Math@Palmtree@@MAEXPAU__tag_NUMBER_HEADER@3456@PAVStringWriter@3456@@Z
	DD	FLAT:?WriteZeroValue@FormatterTypeP@DecimalFromatter@Internal@Core@Math@Palmtree@@MAEXPAVStringWriter@3456@@Z
	DD	FLAT:?WritePrefix@FormatterTypeP@DecimalFromatter@Internal@Core@Math@Palmtree@@MAEXDPAVStringWriter@3456@@Z
	DD	FLAT:?FormatNumberSequence@FormatterTypeP@DecimalFromatter@Internal@Core@Math@Palmtree@@MAEXPB_WPAVStringWriter@3456@@Z
	DD	FLAT:?WriteSuffix@FormatterTypeP@DecimalFromatter@Internal@Core@Math@Palmtree@@MAEXDPAVStringWriter@3456@@Z
CONST	ENDS
;	COMDAT ??_7FormatterTypeN@DecimalFromatter@Internal@Core@Math@Palmtree@@6B@
CONST	SEGMENT
??_7FormatterTypeN@DecimalFromatter@Internal@Core@Math@Palmtree@@6B@ DD FLAT:??_R4FormatterTypeN@DecimalFromatter@Internal@Core@Math@Palmtree@@6B@ ; Palmtree::Math::Core::Internal::DecimalFromatter::FormatterTypeN::`vftable'
	DD	FLAT:?GetDefaultPrecisionValue@FormatterTypeN@DecimalFromatter@Internal@Core@Math@Palmtree@@MAEHXZ
	DD	FLAT:?FormatInternally@Formatter@DecimalFromatter@Internal@Core@Math@Palmtree@@MAEXPAU__tag_NUMBER_HEADER@3456@PAVStringWriter@3456@@Z
	DD	FLAT:?WriteZeroValue@FormatterTypeN@DecimalFromatter@Internal@Core@Math@Palmtree@@MAEXPAVStringWriter@3456@@Z
	DD	FLAT:?WritePrefix@FormatterTypeN@DecimalFromatter@Internal@Core@Math@Palmtree@@MAEXDPAVStringWriter@3456@@Z
	DD	FLAT:?FormatNumberSequence@FormatterTypeN@DecimalFromatter@Internal@Core@Math@Palmtree@@MAEXPB_WPAVStringWriter@3456@@Z
	DD	FLAT:?WriteSuffix@FormatterTypeN@DecimalFromatter@Internal@Core@Math@Palmtree@@MAEXDPAVStringWriter@3456@@Z
CONST	ENDS
;	COMDAT ??_7FormatterTypeF@DecimalFromatter@Internal@Core@Math@Palmtree@@6B@
CONST	SEGMENT
??_7FormatterTypeF@DecimalFromatter@Internal@Core@Math@Palmtree@@6B@ DD FLAT:??_R4FormatterTypeF@DecimalFromatter@Internal@Core@Math@Palmtree@@6B@ ; Palmtree::Math::Core::Internal::DecimalFromatter::FormatterTypeF::`vftable'
	DD	FLAT:?GetDefaultPrecisionValue@FormatterTypeF@DecimalFromatter@Internal@Core@Math@Palmtree@@MAEHXZ
	DD	FLAT:?FormatInternally@Formatter@DecimalFromatter@Internal@Core@Math@Palmtree@@MAEXPAU__tag_NUMBER_HEADER@3456@PAVStringWriter@3456@@Z
	DD	FLAT:?WriteZeroValue@FormatterTypeF@DecimalFromatter@Internal@Core@Math@Palmtree@@MAEXPAVStringWriter@3456@@Z
	DD	FLAT:?WritePrefix@FormatterTypeF@DecimalFromatter@Internal@Core@Math@Palmtree@@MAEXDPAVStringWriter@3456@@Z
	DD	FLAT:?FormatNumberSequence@FormatterTypeF@DecimalFromatter@Internal@Core@Math@Palmtree@@MAEXPB_WPAVStringWriter@3456@@Z
	DD	FLAT:?WriteSuffix@FormatterTypeF@DecimalFromatter@Internal@Core@Math@Palmtree@@MAEXDPAVStringWriter@3456@@Z
CONST	ENDS
;	COMDAT ??_C@_19GGGBJDH@?$AA?$CF?$AA0?$AA3?$AAd@
CONST	SEGMENT
??_C@_19GGGBJDH@?$AA?$CF?$AA0?$AA3?$AAd@ DB '%', 00H, '0', 00H, '3', 00H, 'd'
	DB	00H, 00H, 00H				; `string'
CONST	ENDS
;	COMDAT ??_C@_19NKFEMDNP@?$AA?$CL?$AA0?$AA0?$AA0@
CONST	SEGMENT
??_C@_19NKFEMDNP@?$AA?$CL?$AA0?$AA0?$AA0@ DB '+', 00H, '0', 00H, '0', 00H
	DB	'0', 00H, 00H, 00H				; `string'
CONST	ENDS
;	COMDAT ??_7FormatterTypeE@DecimalFromatter@Internal@Core@Math@Palmtree@@6B@
CONST	SEGMENT
??_7FormatterTypeE@DecimalFromatter@Internal@Core@Math@Palmtree@@6B@ DD FLAT:??_R4FormatterTypeE@DecimalFromatter@Internal@Core@Math@Palmtree@@6B@ ; Palmtree::Math::Core::Internal::DecimalFromatter::FormatterTypeE::`vftable'
	DD	FLAT:?GetDefaultPrecisionValue@FormatterTypeE@DecimalFromatter@Internal@Core@Math@Palmtree@@MAEHXZ
	DD	FLAT:?FormatInternally@FormatterTypeE@DecimalFromatter@Internal@Core@Math@Palmtree@@MAEXPAU__tag_NUMBER_HEADER@3456@PAVStringWriter@3456@@Z
	DD	FLAT:?WriteZeroValue@FormatterTypeE@DecimalFromatter@Internal@Core@Math@Palmtree@@MAEXPAVStringWriter@3456@@Z
	DD	FLAT:?WritePrefix@FormatterTypeE@DecimalFromatter@Internal@Core@Math@Palmtree@@MAEXDPAVStringWriter@3456@@Z
	DD	FLAT:?FormatNumberSequence@FormatterTypeE@DecimalFromatter@Internal@Core@Math@Palmtree@@MAEXPB_WPAVStringWriter@3456@@Z
	DD	FLAT:?WriteSuffix@FormatterTypeE@DecimalFromatter@Internal@Core@Math@Palmtree@@MAEXDPAVStringWriter@3456@@Z
CONST	ENDS
;	COMDAT ??_7FormatterTypeD@DecimalFromatter@Internal@Core@Math@Palmtree@@6B@
CONST	SEGMENT
??_7FormatterTypeD@DecimalFromatter@Internal@Core@Math@Palmtree@@6B@ DD FLAT:??_R4FormatterTypeD@DecimalFromatter@Internal@Core@Math@Palmtree@@6B@ ; Palmtree::Math::Core::Internal::DecimalFromatter::FormatterTypeD::`vftable'
	DD	FLAT:?GetDefaultPrecisionValue@FormatterTypeD@DecimalFromatter@Internal@Core@Math@Palmtree@@MAEHXZ
	DD	FLAT:?FormatInternally@Formatter@DecimalFromatter@Internal@Core@Math@Palmtree@@MAEXPAU__tag_NUMBER_HEADER@3456@PAVStringWriter@3456@@Z
	DD	FLAT:?WriteZeroValue@FormatterTypeD@DecimalFromatter@Internal@Core@Math@Palmtree@@MAEXPAVStringWriter@3456@@Z
	DD	FLAT:?WritePrefix@FormatterTypeD@DecimalFromatter@Internal@Core@Math@Palmtree@@MAEXDPAVStringWriter@3456@@Z
	DD	FLAT:?FormatNumberSequence@FormatterTypeD@DecimalFromatter@Internal@Core@Math@Palmtree@@MAEXPB_WPAVStringWriter@3456@@Z
	DD	FLAT:?WriteSuffix@FormatterTypeD@DecimalFromatter@Internal@Core@Math@Palmtree@@MAEXDPAVStringWriter@3456@@Z
CONST	ENDS
;	COMDAT ??_7FormatterTypeC@DecimalFromatter@Internal@Core@Math@Palmtree@@6B@
CONST	SEGMENT
??_7FormatterTypeC@DecimalFromatter@Internal@Core@Math@Palmtree@@6B@ DD FLAT:??_R4FormatterTypeC@DecimalFromatter@Internal@Core@Math@Palmtree@@6B@ ; Palmtree::Math::Core::Internal::DecimalFromatter::FormatterTypeC::`vftable'
	DD	FLAT:?GetDefaultPrecisionValue@FormatterTypeC@DecimalFromatter@Internal@Core@Math@Palmtree@@MAEHXZ
	DD	FLAT:?FormatInternally@Formatter@DecimalFromatter@Internal@Core@Math@Palmtree@@MAEXPAU__tag_NUMBER_HEADER@3456@PAVStringWriter@3456@@Z
	DD	FLAT:?WriteZeroValue@FormatterTypeC@DecimalFromatter@Internal@Core@Math@Palmtree@@MAEXPAVStringWriter@3456@@Z
	DD	FLAT:?WritePrefix@FormatterTypeC@DecimalFromatter@Internal@Core@Math@Palmtree@@MAEXDPAVStringWriter@3456@@Z
	DD	FLAT:?FormatNumberSequence@FormatterTypeC@DecimalFromatter@Internal@Core@Math@Palmtree@@MAEXPB_WPAVStringWriter@3456@@Z
	DD	FLAT:?WriteSuffix@FormatterTypeC@DecimalFromatter@Internal@Core@Math@Palmtree@@MAEXDPAVStringWriter@3456@@Z
CONST	ENDS
;	COMDAT ??_C@_1EK@CCPHDNPL@?$AAp?$AAm?$AAc?$AA_?$AAt?$AAo?$AAs?$AAt?$AAr?$AAi?$AAn?$AAg?$AA?4?$AAc?$AAp@
CONST	SEGMENT
??_C@_1EK@CCPHDNPL@?$AAp?$AAm?$AAc?$AA_?$AAt?$AAo?$AAs?$AAt?$AAr?$AAi?$AAn?$AAg?$AA?4?$AAc?$AAp@ DB 'p'
	DB	00H, 'm', 00H, 'c', 00H, '_', 00H, 't', 00H, 'o', 00H, 's', 00H
	DB	't', 00H, 'r', 00H, 'i', 00H, 'n', 00H, 'g', 00H, '.', 00H, 'c'
	DB	00H, 'p', 00H, 'p', 00H, ';', 00H, 'F', 00H, 'o', 00H, 'r', 00H
	DB	'm', 00H, 'a', 00H, 't', 00H, 't', 00H, 'e', 00H, 'r', 00H, ':'
	DB	00H, ':', 00H, 'F', 00H, 'o', 00H, 'r', 00H, 'm', 00H, 'a', 00H
	DB	't', 00H, ';', 00H, '1', 00H, 00H, 00H	; `string'
CONST	ENDS
;	COMDAT ??_7Formatter@DecimalFromatter@Internal@Core@Math@Palmtree@@6B@
CONST	SEGMENT
??_7Formatter@DecimalFromatter@Internal@Core@Math@Palmtree@@6B@ DD FLAT:??_R4Formatter@DecimalFromatter@Internal@Core@Math@Palmtree@@6B@ ; Palmtree::Math::Core::Internal::DecimalFromatter::Formatter::`vftable'
	DD	FLAT:__purecall
	DD	FLAT:?FormatInternally@Formatter@DecimalFromatter@Internal@Core@Math@Palmtree@@MAEXPAU__tag_NUMBER_HEADER@3456@PAVStringWriter@3456@@Z
	DD	FLAT:__purecall
	DD	FLAT:__purecall
	DD	FLAT:__purecall
	DD	FLAT:__purecall
CONST	ENDS
;	COMDAT ??_7ThousandSeparatedStringWriter@DecimalFromatter@Internal@Core@Math@Palmtree@@6B@
CONST	SEGMENT
??_7ThousandSeparatedStringWriter@DecimalFromatter@Internal@Core@Math@Palmtree@@6B@ DD FLAT:??_R4ThousandSeparatedStringWriter@DecimalFromatter@Internal@Core@Math@Palmtree@@6B@ ; Palmtree::Math::Core::Internal::DecimalFromatter::ThousandSeparatedStringWriter::`vftable'
	DD	FLAT:?Write@ThousandSeparatedStringWriter@DecimalFromatter@Internal@Core@Math@Palmtree@@UAEXPB_W@Z
	DD	FLAT:?Write@ThousandSeparatedStringWriter@DecimalFromatter@Internal@Core@Math@Palmtree@@UAEX_W@Z
	DD	FLAT:?GetString@ThousandSeparatedStringWriter@DecimalFromatter@Internal@Core@Math@Palmtree@@UAEPA_WXZ
CONST	ENDS
;	COMDAT ??_7ReverseStringWriter@Internal@Core@Math@Palmtree@@6B@
CONST	SEGMENT
??_7ReverseStringWriter@Internal@Core@Math@Palmtree@@6B@ DD FLAT:??_R4ReverseStringWriter@Internal@Core@Math@Palmtree@@6B@ ; Palmtree::Math::Core::Internal::ReverseStringWriter::`vftable'
	DD	FLAT:?Write@ReverseStringWriter@Internal@Core@Math@Palmtree@@UAEXPB_W@Z
	DD	FLAT:?Write@ReverseStringWriter@Internal@Core@Math@Palmtree@@UAEX_W@Z
	DD	FLAT:?GetString@ReverseStringWriter@Internal@Core@Math@Palmtree@@UAEPA_WXZ
CONST	ENDS
;	COMDAT ??_C@_1CO@JABAMCFP@?$PP?x?$AAM?$PP?$LM?$AA?$HP?$AAH?$PP?P?$PP?C?$PP?U?$PP?$KB?$AAn?$PP?$LF?$PP?$KE?$PP?$LK?$AAL?$AA?$AN@
CONST	SEGMENT
??_C@_1CO@JABAMCFP@?$PP?x?$AAM?$PP?$LM?$AA?$HP?$AAH?$PP?P?$PP?C?$PP?U?$PP?$KB?$AAn?$PP?$LF?$PP?$KE?$PP?$LK?$AAL?$AA?$AN@ DB 0f8H
	DB	'fM0', 0bcH, 08fH, 07fH, '0HQ', 0d0H, '0', 0c3H, '0', 0d5H, '0'
	DB	0a1H, '0n0', 0b5H, '0', 0a4H, '0', 0baH, '0L0', 0dH, 'N', 0b3H
	DB	08dH, 'W0f0D0~0Y0', 02H, '0', 00H, 00H	; `string'
CONST	ENDS
;	COMDAT __CT??_R0?AVInsufficientBufferException@Internal@Core@Math@Palmtree@@@8??0InsufficientBufferException@Internal@Core@Math@Palmtree@@QAE@ABV01234@@Z24
xdata$x	SEGMENT
__CT??_R0?AVInsufficientBufferException@Internal@Core@Math@Palmtree@@@8??0InsufficientBufferException@Internal@Core@Math@Palmtree@@QAE@ABV01234@@Z24 DD 00H
	DD	FLAT:??_R0?AVInsufficientBufferException@Internal@Core@Math@Palmtree@@@8
	DD	00H
	DD	0ffffffffH
	ORG $+4
	DD	018H
	DD	FLAT:??0InsufficientBufferException@Internal@Core@Math@Palmtree@@QAE@ABV01234@@Z
xdata$x	ENDS
;	COMDAT ??_R0?AVInsufficientBufferException@Internal@Core@Math@Palmtree@@@8
data$r	SEGMENT
??_R0?AVInsufficientBufferException@Internal@Core@Math@Palmtree@@@8 DD FLAT:??_7type_info@@6B@ ; Palmtree::Math::Core::Internal::InsufficientBufferException `RTTI Type Descriptor'
	DD	00H
	DB	'.?AVInsufficientBufferException@Internal@Core@Math@Palmt'
	DB	'ree@@', 00H
data$r	ENDS
;	COMDAT __CTA2?AVInsufficientBufferException@Internal@Core@Math@Palmtree@@
xdata$x	SEGMENT
__CTA2?AVInsufficientBufferException@Internal@Core@Math@Palmtree@@ DD 02H
	DD	FLAT:__CT??_R0?AVInsufficientBufferException@Internal@Core@Math@Palmtree@@@8??0InsufficientBufferException@Internal@Core@Math@Palmtree@@QAE@ABV01234@@Z24
	DD	FLAT:__CT??_R0?AVException@Internal@Core@Math@Palmtree@@@8??0Exception@Internal@Core@Math@Palmtree@@QAE@ABV01234@@Z24
xdata$x	ENDS
;	COMDAT __TI2?AVInsufficientBufferException@Internal@Core@Math@Palmtree@@
xdata$x	SEGMENT
__TI2?AVInsufficientBufferException@Internal@Core@Math@Palmtree@@ DD 00H
	DD	FLAT:??1InsufficientBufferException@Internal@Core@Math@Palmtree@@UAE@XZ
	DD	00H
	DD	FLAT:__CTA2?AVInsufficientBufferException@Internal@Core@Math@Palmtree@@
xdata$x	ENDS
;	COMDAT ??_7StringWriter@Internal@Core@Math@Palmtree@@6B@
CONST	SEGMENT
??_7StringWriter@Internal@Core@Math@Palmtree@@6B@ DD FLAT:??_R4StringWriter@Internal@Core@Math@Palmtree@@6B@ ; Palmtree::Math::Core::Internal::StringWriter::`vftable'
	DD	FLAT:?Write@StringWriter@Internal@Core@Math@Palmtree@@UAEXPB_W@Z
	DD	FLAT:?Write@StringWriter@Internal@Core@Math@Palmtree@@UAEX_W@Z
	DD	FLAT:?GetString@StringWriter@Internal@Core@Math@Palmtree@@UAEPA_WXZ
CONST	ENDS
;	COMDAT ??_C@_1GC@GGAPGHKN@?$AAp?$AAm?$AAc?$AA_?$AAs?$AAt?$AAr?$AAi?$AAn?$AAg?$AAi?$AAo?$AA?4?$AAh?$AA?$DL@
CONST	SEGMENT
??_C@_1GC@GGAPGHKN@?$AAp?$AAm?$AAc?$AA_?$AAs?$AAt?$AAr?$AAi?$AAn?$AAg?$AAi?$AAo?$AA?4?$AAh?$AA?$DL@ DB 'p'
	DB	00H, 'm', 00H, 'c', 00H, '_', 00H, 's', 00H, 't', 00H, 'r', 00H
	DB	'i', 00H, 'n', 00H, 'g', 00H, 'i', 00H, 'o', 00H, '.', 00H, 'h'
	DB	00H, ';', 00H, 'R', 00H, 'e', 00H, 'v', 00H, 'e', 00H, 'r', 00H
	DB	's', 00H, 'e', 00H, 'S', 00H, 't', 00H, 'r', 00H, 'i', 00H, 'n'
	DB	00H, 'g', 00H, 'R', 00H, 'e', 00H, 'a', 00H, 'd', 00H, 'e', 00H
	DB	'r', 00H, ':', 00H, ':', 00H, 'S', 00H, 'k', 00H, 'i', 00H, 'p'
	DB	00H, 'S', 00H, 't', 00H, 'r', 00H, 'i', 00H, 'n', 00H, 'g', 00H
	DB	';', 00H, '1', 00H, 00H, 00H			; `string'
CONST	ENDS
;	COMDAT ??_C@_1FO@BNHGDLLE@?$AAp?$AAm?$AAc?$AA_?$AAs?$AAt?$AAr?$AAi?$AAn?$AAg?$AAi?$AAo?$AA?4?$AAh?$AA?$DL@
CONST	SEGMENT
??_C@_1FO@BNHGDLLE@?$AAp?$AAm?$AAc?$AA_?$AAs?$AAt?$AAr?$AAi?$AAn?$AAg?$AAi?$AAo?$AA?4?$AAh?$AA?$DL@ DB 'p'
	DB	00H, 'm', 00H, 'c', 00H, '_', 00H, 's', 00H, 't', 00H, 'r', 00H
	DB	'i', 00H, 'n', 00H, 'g', 00H, 'i', 00H, 'o', 00H, '.', 00H, 'h'
	DB	00H, ';', 00H, 'R', 00H, 'e', 00H, 'v', 00H, 'e', 00H, 'r', 00H
	DB	's', 00H, 'e', 00H, 'S', 00H, 't', 00H, 'r', 00H, 'i', 00H, 'n'
	DB	00H, 'g', 00H, 'R', 00H, 'e', 00H, 'a', 00H, 'd', 00H, 'e', 00H
	DB	'r', 00H, ':', 00H, ':', 00H, 'P', 00H, 'r', 00H, 'o', 00H, 'g'
	DB	00H, 'r', 00H, 'e', 00H, 's', 00H, 's', 00H, ';', 00H, '1', 00H
	DB	00H, 00H					; `string'
CONST	ENDS
;	COMDAT ??_7ReverseStringReader@Internal@Core@Math@Palmtree@@6B@
CONST	SEGMENT
??_7ReverseStringReader@Internal@Core@Math@Palmtree@@6B@ DD FLAT:??_R4ReverseStringReader@Internal@Core@Math@Palmtree@@6B@ ; Palmtree::Math::Core::Internal::ReverseStringReader::`vftable'
	DD	FLAT:?PeekChar@ReverseStringReader@Internal@Core@Math@Palmtree@@UAE_WXZ
	DD	FLAT:?Progress@ReverseStringReader@Internal@Core@Math@Palmtree@@UAEXXZ
	DD	FLAT:?StartsWith@ReverseStringReader@Internal@Core@Math@Palmtree@@UAEHPB_W@Z
	DD	FLAT:?SkipString@ReverseStringReader@Internal@Core@Math@Palmtree@@UAEXPB_W@Z
CONST	ENDS
;	COMDAT ??_C@_1FE@KONPIGEM@?$AAp?$AAm?$AAc?$AA_?$AAs?$AAt?$AAr?$AAi?$AAn?$AAg?$AAi?$AAo?$AA?4?$AAh?$AA?$DL@
CONST	SEGMENT
??_C@_1FE@KONPIGEM@?$AAp?$AAm?$AAc?$AA_?$AAs?$AAt?$AAr?$AAi?$AAn?$AAg?$AAi?$AAo?$AA?4?$AAh?$AA?$DL@ DB 'p'
	DB	00H, 'm', 00H, 'c', 00H, '_', 00H, 's', 00H, 't', 00H, 'r', 00H
	DB	'i', 00H, 'n', 00H, 'g', 00H, 'i', 00H, 'o', 00H, '.', 00H, 'h'
	DB	00H, ';', 00H, 'S', 00H, 't', 00H, 'r', 00H, 'i', 00H, 'n', 00H
	DB	'g', 00H, 'R', 00H, 'e', 00H, 'a', 00H, 'd', 00H, 'e', 00H, 'r'
	DB	00H, ':', 00H, ':', 00H, 'S', 00H, 'k', 00H, 'i', 00H, 'p', 00H
	DB	'S', 00H, 't', 00H, 'r', 00H, 'i', 00H, 'n', 00H, 'g', 00H, ';'
	DB	00H, '1', 00H, 00H, 00H			; `string'
CONST	ENDS
;	COMDAT ??_C@_1BM@FCPAHMHB@?$PP?$IF?$PP?h?$PP?$KI?$PP?i?$PP?$PM?$AAL?$AAz?$AA?$BP?$AAW?$AA?$HO?$AAW?$AA_?$AA?$AC@
CONST	SEGMENT
??_C@_1BM@FCPAHMHB@?$PP?$IF?$PP?h?$PP?$KI?$PP?i?$PP?$PM?$AAL?$AAz?$AA?$BP?$AAW?$AA?$HO?$AAW?$AA_?$AA?$AC@ DB 085H
	DB	'Q', 0e8H, 090H, 0a8H, '0', 0e9H, '0', 0fcH, '0L0zv', 01fH, 'u'
	DB	'W0~0W0_0', 02H, '0', 00H, 00H		; `string'
CONST	ENDS
;	COMDAT ??_C@_1FA@CNGEABBJ@?$AAp?$AAm?$AAc?$AA_?$AAs?$AAt?$AAr?$AAi?$AAn?$AAg?$AAi?$AAo?$AA?4?$AAh?$AA?$DL@
CONST	SEGMENT
??_C@_1FA@CNGEABBJ@?$AAp?$AAm?$AAc?$AA_?$AAs?$AAt?$AAr?$AAi?$AAn?$AAg?$AAi?$AAo?$AA?4?$AAh?$AA?$DL@ DB 'p'
	DB	00H, 'm', 00H, 'c', 00H, '_', 00H, 's', 00H, 't', 00H, 'r', 00H
	DB	'i', 00H, 'n', 00H, 'g', 00H, 'i', 00H, 'o', 00H, '.', 00H, 'h'
	DB	00H, ';', 00H, 'S', 00H, 't', 00H, 'r', 00H, 'i', 00H, 'n', 00H
	DB	'g', 00H, 'R', 00H, 'e', 00H, 'a', 00H, 'd', 00H, 'e', 00H, 'r'
	DB	00H, ':', 00H, ':', 00H, 'P', 00H, 'r', 00H, 'o', 00H, 'g', 00H
	DB	'r', 00H, 'e', 00H, 's', 00H, 's', 00H, ';', 00H, '1', 00H, 00H
	DB	00H						; `string'
CONST	ENDS
;	COMDAT __CT??_R0?AVException@Internal@Core@Math@Palmtree@@@8??0Exception@Internal@Core@Math@Palmtree@@QAE@ABV01234@@Z24
xdata$x	SEGMENT
__CT??_R0?AVException@Internal@Core@Math@Palmtree@@@8??0Exception@Internal@Core@Math@Palmtree@@QAE@ABV01234@@Z24 DD 00H
	DD	FLAT:??_R0?AVException@Internal@Core@Math@Palmtree@@@8
	DD	00H
	DD	0ffffffffH
	ORG $+4
	DD	018H
	DD	FLAT:??0Exception@Internal@Core@Math@Palmtree@@QAE@ABV01234@@Z
xdata$x	ENDS
;	COMDAT ??_R0?AVException@Internal@Core@Math@Palmtree@@@8
data$r	SEGMENT
??_R0?AVException@Internal@Core@Math@Palmtree@@@8 DD FLAT:??_7type_info@@6B@ ; Palmtree::Math::Core::Internal::Exception `RTTI Type Descriptor'
	DD	00H
	DB	'.?AVException@Internal@Core@Math@Palmtree@@', 00H
data$r	ENDS
;	COMDAT __CT??_R0?AVInternalErrorException@Internal@Core@Math@Palmtree@@@8??0InternalErrorException@Internal@Core@Math@Palmtree@@QAE@ABV01234@@Z24
xdata$x	SEGMENT
__CT??_R0?AVInternalErrorException@Internal@Core@Math@Palmtree@@@8??0InternalErrorException@Internal@Core@Math@Palmtree@@QAE@ABV01234@@Z24 DD 00H
	DD	FLAT:??_R0?AVInternalErrorException@Internal@Core@Math@Palmtree@@@8
	DD	00H
	DD	0ffffffffH
	ORG $+4
	DD	018H
	DD	FLAT:??0InternalErrorException@Internal@Core@Math@Palmtree@@QAE@ABV01234@@Z
xdata$x	ENDS
;	COMDAT ??_R0?AVInternalErrorException@Internal@Core@Math@Palmtree@@@8
data$r	SEGMENT
??_R0?AVInternalErrorException@Internal@Core@Math@Palmtree@@@8 DD FLAT:??_7type_info@@6B@ ; Palmtree::Math::Core::Internal::InternalErrorException `RTTI Type Descriptor'
	DD	00H
	DB	'.?AVInternalErrorException@Internal@Core@Math@Palmtree@@'
	DB	00H
data$r	ENDS
;	COMDAT __CTA2?AVInternalErrorException@Internal@Core@Math@Palmtree@@
xdata$x	SEGMENT
__CTA2?AVInternalErrorException@Internal@Core@Math@Palmtree@@ DD 02H
	DD	FLAT:__CT??_R0?AVInternalErrorException@Internal@Core@Math@Palmtree@@@8??0InternalErrorException@Internal@Core@Math@Palmtree@@QAE@ABV01234@@Z24
	DD	FLAT:__CT??_R0?AVException@Internal@Core@Math@Palmtree@@@8??0Exception@Internal@Core@Math@Palmtree@@QAE@ABV01234@@Z24
xdata$x	ENDS
;	COMDAT __TI2?AVInternalErrorException@Internal@Core@Math@Palmtree@@
xdata$x	SEGMENT
__TI2?AVInternalErrorException@Internal@Core@Math@Palmtree@@ DD 00H
	DD	FLAT:??1InternalErrorException@Internal@Core@Math@Palmtree@@UAE@XZ
	DD	00H
	DD	FLAT:__CTA2?AVInternalErrorException@Internal@Core@Math@Palmtree@@
xdata$x	ENDS
;	COMDAT ??_7StringReader@Internal@Core@Math@Palmtree@@6B@
CONST	SEGMENT
??_7StringReader@Internal@Core@Math@Palmtree@@6B@ DD FLAT:??_R4StringReader@Internal@Core@Math@Palmtree@@6B@ ; Palmtree::Math::Core::Internal::StringReader::`vftable'
	DD	FLAT:?PeekChar@StringReader@Internal@Core@Math@Palmtree@@UAE_WXZ
	DD	FLAT:?Progress@StringReader@Internal@Core@Math@Palmtree@@UAEXXZ
	DD	FLAT:?StartsWith@StringReader@Internal@Core@Math@Palmtree@@UAEHPB_W@Z
	DD	FLAT:?SkipString@StringReader@Internal@Core@Math@Palmtree@@UAEXPB_W@Z
CONST	ENDS
;	COMDAT ??_7InternalErrorException@Internal@Core@Math@Palmtree@@6B@
CONST	SEGMENT
??_7InternalErrorException@Internal@Core@Math@Palmtree@@6B@ DD FLAT:??_R4InternalErrorException@Internal@Core@Math@Palmtree@@6B@ ; Palmtree::Math::Core::Internal::InternalErrorException::`vftable'
	DD	FLAT:??_EInternalErrorException@Internal@Core@Math@Palmtree@@UAEPAXI@Z
	DD	FLAT:?what@exception@std@@UBEPBDXZ
CONST	ENDS
;	COMDAT ??_7NotSupportedException@Internal@Core@Math@Palmtree@@6B@
CONST	SEGMENT
??_7NotSupportedException@Internal@Core@Math@Palmtree@@6B@ DD FLAT:??_R4NotSupportedException@Internal@Core@Math@Palmtree@@6B@ ; Palmtree::Math::Core::Internal::NotSupportedException::`vftable'
	DD	FLAT:??_ENotSupportedException@Internal@Core@Math@Palmtree@@UAEPAXI@Z
	DD	FLAT:?what@exception@std@@UBEPBDXZ
CONST	ENDS
;	COMDAT ??_7InsufficientBufferException@Internal@Core@Math@Palmtree@@6B@
CONST	SEGMENT
??_7InsufficientBufferException@Internal@Core@Math@Palmtree@@6B@ DD FLAT:??_R4InsufficientBufferException@Internal@Core@Math@Palmtree@@6B@ ; Palmtree::Math::Core::Internal::InsufficientBufferException::`vftable'
	DD	FLAT:??_EInsufficientBufferException@Internal@Core@Math@Palmtree@@UAEPAXI@Z
	DD	FLAT:?what@exception@std@@UBEPBDXZ
CONST	ENDS
;	COMDAT ??_7FormatException@Internal@Core@Math@Palmtree@@6B@
CONST	SEGMENT
??_7FormatException@Internal@Core@Math@Palmtree@@6B@ DD FLAT:??_R4FormatException@Internal@Core@Math@Palmtree@@6B@ ; Palmtree::Math::Core::Internal::FormatException::`vftable'
	DD	FLAT:??_EFormatException@Internal@Core@Math@Palmtree@@UAEPAXI@Z
	DD	FLAT:?what@exception@std@@UBEPBDXZ
CONST	ENDS
;	COMDAT ??_7ArgumentNullException@Internal@Core@Math@Palmtree@@6B@
CONST	SEGMENT
??_7ArgumentNullException@Internal@Core@Math@Palmtree@@6B@ DD FLAT:??_R4ArgumentNullException@Internal@Core@Math@Palmtree@@6B@ ; Palmtree::Math::Core::Internal::ArgumentNullException::`vftable'
	DD	FLAT:??_EArgumentNullException@Internal@Core@Math@Palmtree@@UAEPAXI@Z
	DD	FLAT:?what@exception@std@@UBEPBDXZ
CONST	ENDS
;	COMDAT ??_7Exception@Internal@Core@Math@Palmtree@@6B@
CONST	SEGMENT
??_7Exception@Internal@Core@Math@Palmtree@@6B@ DD FLAT:??_R4Exception@Internal@Core@Math@Palmtree@@6B@ ; Palmtree::Math::Core::Internal::Exception::`vftable'
	DD	FLAT:??_EException@Internal@Core@Math@Palmtree@@UAEPAXI@Z
	DD	FLAT:?what@exception@std@@UBEPBDXZ
CONST	ENDS
;	COMDAT ??_C@_0BC@EOODALEL@Unknown?5exception@
CONST	SEGMENT
??_C@_0BC@EOODALEL@Unknown?5exception@ DB 'Unknown exception', 00H ; `string'
CONST	ENDS
;	COMDAT ??_7exception@std@@6B@
CONST	SEGMENT
??_7exception@std@@6B@ DD FLAT:??_R4exception@std@@6B@	; std::exception::`vftable'
	DD	FLAT:??_Eexception@std@@UAEPAXI@Z
	DD	FLAT:?what@exception@std@@UBEPBDXZ
CONST	ENDS
;	COMDAT xdata$x
xdata$x	SEGMENT
__unwindtable$?ToStringX@HexaDecimalFormatter@Internal@Core@Math@Palmtree@@YAIDPAU__tag_NUMBER_HEADER@2345@_WHPBU__tag_PMC_NUMBER_FORMAT_INFO@2345@PA_WI@Z DD 0ffffffffH
	DD	FLAT:__unwindfunclet$?ToStringX@HexaDecimalFormatter@Internal@Core@Math@Palmtree@@YAIDPAU__tag_NUMBER_HEADER@2345@_WHPBU__tag_PMC_NUMBER_FORMAT_INFO@2345@PA_WI@Z$0
__ehfuncinfo$?ToStringX@HexaDecimalFormatter@Internal@Core@Math@Palmtree@@YAIDPAU__tag_NUMBER_HEADER@2345@_WHPBU__tag_PMC_NUMBER_FORMAT_INFO@2345@PA_WI@Z DD 019930522H
	DD	01H
	DD	FLAT:__unwindtable$?ToStringX@HexaDecimalFormatter@Internal@Core@Math@Palmtree@@YAIDPAU__tag_NUMBER_HEADER@2345@_WHPBU__tag_PMC_NUMBER_FORMAT_INFO@2345@PA_WI@Z
	DD	2 DUP(00H)
	DD	2 DUP(00H)
	DD	00H
	DD	00H
xdata$x	ENDS
;	COMDAT xdata$x
xdata$x	SEGMENT
__unwindtable$?FormatNumberSequence@FormatterTypeP@DecimalFromatter@Internal@Core@Math@Palmtree@@MAEXPB_WPAVStringWriter@3456@@Z DD 0ffffffffH
	DD	FLAT:__unwindfunclet$?FormatNumberSequence@FormatterTypeP@DecimalFromatter@Internal@Core@Math@Palmtree@@MAEXPB_WPAVStringWriter@3456@@Z$0
__ehfuncinfo$?FormatNumberSequence@FormatterTypeP@DecimalFromatter@Internal@Core@Math@Palmtree@@MAEXPB_WPAVStringWriter@3456@@Z DD 019930522H
	DD	01H
	DD	FLAT:__unwindtable$?FormatNumberSequence@FormatterTypeP@DecimalFromatter@Internal@Core@Math@Palmtree@@MAEXPB_WPAVStringWriter@3456@@Z
	DD	2 DUP(00H)
	DD	2 DUP(00H)
	DD	00H
	DD	00H
xdata$x	ENDS
;	COMDAT xdata$x
xdata$x	SEGMENT
__unwindtable$?FormatInternally@FormatterTypeP@DecimalFromatter@Internal@Core@Math@Palmtree@@MAEXPAU__tag_NUMBER_HEADER@3456@PAVStringWriter@3456@@Z DD 0ffffffffH
	DD	FLAT:__unwindfunclet$?FormatInternally@FormatterTypeP@DecimalFromatter@Internal@Core@Math@Palmtree@@MAEXPAU__tag_NUMBER_HEADER@3456@PAVStringWriter@3456@@Z$0
__ehfuncinfo$?FormatInternally@FormatterTypeP@DecimalFromatter@Internal@Core@Math@Palmtree@@MAEXPAU__tag_NUMBER_HEADER@3456@PAVStringWriter@3456@@Z DD 019930522H
	DD	01H
	DD	FLAT:__unwindtable$?FormatInternally@FormatterTypeP@DecimalFromatter@Internal@Core@Math@Palmtree@@MAEXPAU__tag_NUMBER_HEADER@3456@PAVStringWriter@3456@@Z
	DD	2 DUP(00H)
	DD	2 DUP(00H)
	DD	00H
	DD	00H
xdata$x	ENDS
;	COMDAT xdata$x
xdata$x	SEGMENT
__unwindtable$?FormatNumberSequence@FormatterTypeN@DecimalFromatter@Internal@Core@Math@Palmtree@@MAEXPB_WPAVStringWriter@3456@@Z DD 0ffffffffH
	DD	FLAT:__unwindfunclet$?FormatNumberSequence@FormatterTypeN@DecimalFromatter@Internal@Core@Math@Palmtree@@MAEXPB_WPAVStringWriter@3456@@Z$0
__ehfuncinfo$?FormatNumberSequence@FormatterTypeN@DecimalFromatter@Internal@Core@Math@Palmtree@@MAEXPB_WPAVStringWriter@3456@@Z DD 019930522H
	DD	01H
	DD	FLAT:__unwindtable$?FormatNumberSequence@FormatterTypeN@DecimalFromatter@Internal@Core@Math@Palmtree@@MAEXPB_WPAVStringWriter@3456@@Z
	DD	2 DUP(00H)
	DD	2 DUP(00H)
	DD	00H
	DD	00H
xdata$x	ENDS
;	COMDAT xdata$x
xdata$x	SEGMENT
__unwindtable$?FormatInternally@FormatterTypeE@DecimalFromatter@Internal@Core@Math@Palmtree@@MAEXPAU__tag_NUMBER_HEADER@3456@PAVStringWriter@3456@@Z DD 0ffffffffH
	DD	FLAT:__unwindfunclet$?FormatInternally@FormatterTypeE@DecimalFromatter@Internal@Core@Math@Palmtree@@MAEXPAU__tag_NUMBER_HEADER@3456@PAVStringWriter@3456@@Z$0
__ehfuncinfo$?FormatInternally@FormatterTypeE@DecimalFromatter@Internal@Core@Math@Palmtree@@MAEXPAU__tag_NUMBER_HEADER@3456@PAVStringWriter@3456@@Z DD 019930522H
	DD	01H
	DD	FLAT:__unwindtable$?FormatInternally@FormatterTypeE@DecimalFromatter@Internal@Core@Math@Palmtree@@MAEXPAU__tag_NUMBER_HEADER@3456@PAVStringWriter@3456@@Z
	DD	2 DUP(00H)
	DD	2 DUP(00H)
	DD	00H
	DD	00H
xdata$x	ENDS
;	COMDAT xdata$x
xdata$x	SEGMENT
__unwindtable$?FormatNumberSequence@FormatterTypeC@DecimalFromatter@Internal@Core@Math@Palmtree@@MAEXPB_WPAVStringWriter@3456@@Z DD 0ffffffffH
	DD	FLAT:__unwindfunclet$?FormatNumberSequence@FormatterTypeC@DecimalFromatter@Internal@Core@Math@Palmtree@@MAEXPB_WPAVStringWriter@3456@@Z$0
__ehfuncinfo$?FormatNumberSequence@FormatterTypeC@DecimalFromatter@Internal@Core@Math@Palmtree@@MAEXPB_WPAVStringWriter@3456@@Z DD 019930522H
	DD	01H
	DD	FLAT:__unwindtable$?FormatNumberSequence@FormatterTypeC@DecimalFromatter@Internal@Core@Math@Palmtree@@MAEXPB_WPAVStringWriter@3456@@Z
	DD	2 DUP(00H)
	DD	2 DUP(00H)
	DD	00H
	DD	00H
xdata$x	ENDS
;	COMDAT xdata$x
xdata$x	SEGMENT
__unwindtable$?ConvertAs10nBasedNumber@Formatter@DecimalFromatter@Internal@Core@Math@Palmtree@@AAEIPAU__tag_NUMBER_HEADER@3456@PAI@Z DD 0ffffffffH
	DD	FLAT:__unwindfunclet$?ConvertAs10nBasedNumber@Formatter@DecimalFromatter@Internal@Core@Math@Palmtree@@AAEIPAU__tag_NUMBER_HEADER@3456@PAI@Z$0
__ehfuncinfo$?ConvertAs10nBasedNumber@Formatter@DecimalFromatter@Internal@Core@Math@Palmtree@@AAEIPAU__tag_NUMBER_HEADER@3456@PAI@Z DD 019930522H
	DD	01H
	DD	FLAT:__unwindtable$?ConvertAs10nBasedNumber@Formatter@DecimalFromatter@Internal@Core@Math@Palmtree@@AAEIPAU__tag_NUMBER_HEADER@3456@PAI@Z
	DD	2 DUP(00H)
	DD	2 DUP(00H)
	DD	00H
	DD	00H
xdata$x	ENDS
;	COMDAT xdata$x
xdata$x	SEGMENT
__unwindtable$?FormatInternally@Formatter@DecimalFromatter@Internal@Core@Math@Palmtree@@MAEXPAU__tag_NUMBER_HEADER@3456@PAVStringWriter@3456@@Z DD 0ffffffffH
	DD	FLAT:__unwindfunclet$?FormatInternally@Formatter@DecimalFromatter@Internal@Core@Math@Palmtree@@MAEXPAU__tag_NUMBER_HEADER@3456@PAVStringWriter@3456@@Z$0
	DD	00H
	DD	FLAT:__unwindfunclet$?FormatInternally@Formatter@DecimalFromatter@Internal@Core@Math@Palmtree@@MAEXPAU__tag_NUMBER_HEADER@3456@PAVStringWriter@3456@@Z$1
__ehfuncinfo$?FormatInternally@Formatter@DecimalFromatter@Internal@Core@Math@Palmtree@@MAEXPAU__tag_NUMBER_HEADER@3456@PAVStringWriter@3456@@Z DD 019930522H
	DD	02H
	DD	FLAT:__unwindtable$?FormatInternally@Formatter@DecimalFromatter@Internal@Core@Math@Palmtree@@MAEXPAU__tag_NUMBER_HEADER@3456@PAVStringWriter@3456@@Z
	DD	2 DUP(00H)
	DD	2 DUP(00H)
	DD	00H
	DD	00H
xdata$x	ENDS
;	COMDAT xdata$x
xdata$x	SEGMENT
__unwindtable$??_GInternalErrorException@Internal@Core@Math@Palmtree@@UAEPAXI@Z DD 0ffffffffH
	DD	FLAT:__unwindfunclet$??_GInternalErrorException@Internal@Core@Math@Palmtree@@UAEPAXI@Z$0
	DD	0ffffffffH
	DD	FLAT:__unwindfunclet$??_GInternalErrorException@Internal@Core@Math@Palmtree@@UAEPAXI@Z$1
__ehfuncinfo$??_GInternalErrorException@Internal@Core@Math@Palmtree@@UAEPAXI@Z DD 019930522H
	DD	02H
	DD	FLAT:__unwindtable$??_GInternalErrorException@Internal@Core@Math@Palmtree@@UAEPAXI@Z
	DD	2 DUP(00H)
	DD	2 DUP(00H)
	DD	00H
	DD	04H
xdata$x	ENDS
;	COMDAT xdata$x
xdata$x	SEGMENT
__unwindtable$??1InternalErrorException@Internal@Core@Math@Palmtree@@UAE@XZ DD 0ffffffffH
	DD	FLAT:__unwindfunclet$??1InternalErrorException@Internal@Core@Math@Palmtree@@UAE@XZ$0
	DD	0ffffffffH
	DD	FLAT:__unwindfunclet$??1InternalErrorException@Internal@Core@Math@Palmtree@@UAE@XZ$1
__ehfuncinfo$??1InternalErrorException@Internal@Core@Math@Palmtree@@UAE@XZ DD 019930522H
	DD	02H
	DD	FLAT:__unwindtable$??1InternalErrorException@Internal@Core@Math@Palmtree@@UAE@XZ
	DD	2 DUP(00H)
	DD	2 DUP(00H)
	DD	00H
	DD	04H
xdata$x	ENDS
;	COMDAT xdata$x
xdata$x	SEGMENT
__unwindtable$??0InternalErrorException@Internal@Core@Math@Palmtree@@QAE@ABV01234@@Z DD 0ffffffffH
	DD	FLAT:__unwindfunclet$??0InternalErrorException@Internal@Core@Math@Palmtree@@QAE@ABV01234@@Z$1
	DD	0ffffffffH
	DD	FLAT:__unwindfunclet$??0InternalErrorException@Internal@Core@Math@Palmtree@@QAE@ABV01234@@Z$0
__ehfuncinfo$??0InternalErrorException@Internal@Core@Math@Palmtree@@QAE@ABV01234@@Z DD 019930522H
	DD	02H
	DD	FLAT:__unwindtable$??0InternalErrorException@Internal@Core@Math@Palmtree@@QAE@ABV01234@@Z
	DD	2 DUP(00H)
	DD	2 DUP(00H)
	DD	00H
	DD	04H
xdata$x	ENDS
;	COMDAT xdata$x
xdata$x	SEGMENT
__unwindtable$??0InternalErrorException@Internal@Core@Math@Palmtree@@QAE@PB_W0@Z DD 0ffffffffH
	DD	FLAT:__unwindfunclet$??0InternalErrorException@Internal@Core@Math@Palmtree@@QAE@PB_W0@Z$1
	DD	0ffffffffH
	DD	FLAT:__unwindfunclet$??0InternalErrorException@Internal@Core@Math@Palmtree@@QAE@PB_W0@Z$0
__ehfuncinfo$??0InternalErrorException@Internal@Core@Math@Palmtree@@QAE@PB_W0@Z DD 019930522H
	DD	02H
	DD	FLAT:__unwindtable$??0InternalErrorException@Internal@Core@Math@Palmtree@@QAE@PB_W0@Z
	DD	2 DUP(00H)
	DD	2 DUP(00H)
	DD	00H
	DD	04H
xdata$x	ENDS
;	COMDAT xdata$x
xdata$x	SEGMENT
__unwindtable$??_GNotSupportedException@Internal@Core@Math@Palmtree@@UAEPAXI@Z DD 0ffffffffH
	DD	FLAT:__unwindfunclet$??_GNotSupportedException@Internal@Core@Math@Palmtree@@UAEPAXI@Z$0
	DD	0ffffffffH
	DD	FLAT:__unwindfunclet$??_GNotSupportedException@Internal@Core@Math@Palmtree@@UAEPAXI@Z$1
__ehfuncinfo$??_GNotSupportedException@Internal@Core@Math@Palmtree@@UAEPAXI@Z DD 019930522H
	DD	02H
	DD	FLAT:__unwindtable$??_GNotSupportedException@Internal@Core@Math@Palmtree@@UAEPAXI@Z
	DD	2 DUP(00H)
	DD	2 DUP(00H)
	DD	00H
	DD	04H
xdata$x	ENDS
;	COMDAT xdata$x
xdata$x	SEGMENT
__unwindtable$??1NotSupportedException@Internal@Core@Math@Palmtree@@UAE@XZ DD 0ffffffffH
	DD	FLAT:__unwindfunclet$??1NotSupportedException@Internal@Core@Math@Palmtree@@UAE@XZ$0
	DD	0ffffffffH
	DD	FLAT:__unwindfunclet$??1NotSupportedException@Internal@Core@Math@Palmtree@@UAE@XZ$1
__ehfuncinfo$??1NotSupportedException@Internal@Core@Math@Palmtree@@UAE@XZ DD 019930522H
	DD	02H
	DD	FLAT:__unwindtable$??1NotSupportedException@Internal@Core@Math@Palmtree@@UAE@XZ
	DD	2 DUP(00H)
	DD	2 DUP(00H)
	DD	00H
	DD	04H
xdata$x	ENDS
;	COMDAT xdata$x
xdata$x	SEGMENT
__unwindtable$??0NotSupportedException@Internal@Core@Math@Palmtree@@QAE@ABV01234@@Z DD 0ffffffffH
	DD	FLAT:__unwindfunclet$??0NotSupportedException@Internal@Core@Math@Palmtree@@QAE@ABV01234@@Z$1
	DD	0ffffffffH
	DD	FLAT:__unwindfunclet$??0NotSupportedException@Internal@Core@Math@Palmtree@@QAE@ABV01234@@Z$0
__ehfuncinfo$??0NotSupportedException@Internal@Core@Math@Palmtree@@QAE@ABV01234@@Z DD 019930522H
	DD	02H
	DD	FLAT:__unwindtable$??0NotSupportedException@Internal@Core@Math@Palmtree@@QAE@ABV01234@@Z
	DD	2 DUP(00H)
	DD	2 DUP(00H)
	DD	00H
	DD	04H
xdata$x	ENDS
;	COMDAT xdata$x
xdata$x	SEGMENT
__unwindtable$??0NotSupportedException@Internal@Core@Math@Palmtree@@QAE@PB_W@Z DD 0ffffffffH
	DD	FLAT:__unwindfunclet$??0NotSupportedException@Internal@Core@Math@Palmtree@@QAE@PB_W@Z$1
	DD	0ffffffffH
	DD	FLAT:__unwindfunclet$??0NotSupportedException@Internal@Core@Math@Palmtree@@QAE@PB_W@Z$0
__ehfuncinfo$??0NotSupportedException@Internal@Core@Math@Palmtree@@QAE@PB_W@Z DD 019930522H
	DD	02H
	DD	FLAT:__unwindtable$??0NotSupportedException@Internal@Core@Math@Palmtree@@QAE@PB_W@Z
	DD	2 DUP(00H)
	DD	2 DUP(00H)
	DD	00H
	DD	04H
xdata$x	ENDS
;	COMDAT xdata$x
xdata$x	SEGMENT
__unwindtable$??_GInsufficientBufferException@Internal@Core@Math@Palmtree@@UAEPAXI@Z DD 0ffffffffH
	DD	FLAT:__unwindfunclet$??_GInsufficientBufferException@Internal@Core@Math@Palmtree@@UAEPAXI@Z$0
	DD	0ffffffffH
	DD	FLAT:__unwindfunclet$??_GInsufficientBufferException@Internal@Core@Math@Palmtree@@UAEPAXI@Z$1
__ehfuncinfo$??_GInsufficientBufferException@Internal@Core@Math@Palmtree@@UAEPAXI@Z DD 019930522H
	DD	02H
	DD	FLAT:__unwindtable$??_GInsufficientBufferException@Internal@Core@Math@Palmtree@@UAEPAXI@Z
	DD	2 DUP(00H)
	DD	2 DUP(00H)
	DD	00H
	DD	04H
xdata$x	ENDS
;	COMDAT xdata$x
xdata$x	SEGMENT
__unwindtable$??1InsufficientBufferException@Internal@Core@Math@Palmtree@@UAE@XZ DD 0ffffffffH
	DD	FLAT:__unwindfunclet$??1InsufficientBufferException@Internal@Core@Math@Palmtree@@UAE@XZ$0
	DD	0ffffffffH
	DD	FLAT:__unwindfunclet$??1InsufficientBufferException@Internal@Core@Math@Palmtree@@UAE@XZ$1
__ehfuncinfo$??1InsufficientBufferException@Internal@Core@Math@Palmtree@@UAE@XZ DD 019930522H
	DD	02H
	DD	FLAT:__unwindtable$??1InsufficientBufferException@Internal@Core@Math@Palmtree@@UAE@XZ
	DD	2 DUP(00H)
	DD	2 DUP(00H)
	DD	00H
	DD	04H
xdata$x	ENDS
;	COMDAT xdata$x
xdata$x	SEGMENT
__unwindtable$??0InsufficientBufferException@Internal@Core@Math@Palmtree@@QAE@ABV01234@@Z DD 0ffffffffH
	DD	FLAT:__unwindfunclet$??0InsufficientBufferException@Internal@Core@Math@Palmtree@@QAE@ABV01234@@Z$1
	DD	0ffffffffH
	DD	FLAT:__unwindfunclet$??0InsufficientBufferException@Internal@Core@Math@Palmtree@@QAE@ABV01234@@Z$0
__ehfuncinfo$??0InsufficientBufferException@Internal@Core@Math@Palmtree@@QAE@ABV01234@@Z DD 019930522H
	DD	02H
	DD	FLAT:__unwindtable$??0InsufficientBufferException@Internal@Core@Math@Palmtree@@QAE@ABV01234@@Z
	DD	2 DUP(00H)
	DD	2 DUP(00H)
	DD	00H
	DD	04H
xdata$x	ENDS
;	COMDAT xdata$x
xdata$x	SEGMENT
__unwindtable$??0InsufficientBufferException@Internal@Core@Math@Palmtree@@QAE@PB_W@Z DD 0ffffffffH
	DD	FLAT:__unwindfunclet$??0InsufficientBufferException@Internal@Core@Math@Palmtree@@QAE@PB_W@Z$1
	DD	0ffffffffH
	DD	FLAT:__unwindfunclet$??0InsufficientBufferException@Internal@Core@Math@Palmtree@@QAE@PB_W@Z$0
__ehfuncinfo$??0InsufficientBufferException@Internal@Core@Math@Palmtree@@QAE@PB_W@Z DD 019930522H
	DD	02H
	DD	FLAT:__unwindtable$??0InsufficientBufferException@Internal@Core@Math@Palmtree@@QAE@PB_W@Z
	DD	2 DUP(00H)
	DD	2 DUP(00H)
	DD	00H
	DD	00H
xdata$x	ENDS
;	COMDAT xdata$x
xdata$x	SEGMENT
__unwindtable$??_GFormatException@Internal@Core@Math@Palmtree@@UAEPAXI@Z DD 0ffffffffH
	DD	FLAT:__unwindfunclet$??_GFormatException@Internal@Core@Math@Palmtree@@UAEPAXI@Z$0
	DD	0ffffffffH
	DD	FLAT:__unwindfunclet$??_GFormatException@Internal@Core@Math@Palmtree@@UAEPAXI@Z$1
__ehfuncinfo$??_GFormatException@Internal@Core@Math@Palmtree@@UAEPAXI@Z DD 019930522H
	DD	02H
	DD	FLAT:__unwindtable$??_GFormatException@Internal@Core@Math@Palmtree@@UAEPAXI@Z
	DD	2 DUP(00H)
	DD	2 DUP(00H)
	DD	00H
	DD	04H
xdata$x	ENDS
;	COMDAT xdata$x
xdata$x	SEGMENT
__unwindtable$??1FormatException@Internal@Core@Math@Palmtree@@UAE@XZ DD 0ffffffffH
	DD	FLAT:__unwindfunclet$??1FormatException@Internal@Core@Math@Palmtree@@UAE@XZ$0
	DD	0ffffffffH
	DD	FLAT:__unwindfunclet$??1FormatException@Internal@Core@Math@Palmtree@@UAE@XZ$1
__ehfuncinfo$??1FormatException@Internal@Core@Math@Palmtree@@UAE@XZ DD 019930522H
	DD	02H
	DD	FLAT:__unwindtable$??1FormatException@Internal@Core@Math@Palmtree@@UAE@XZ
	DD	2 DUP(00H)
	DD	2 DUP(00H)
	DD	00H
	DD	04H
xdata$x	ENDS
;	COMDAT xdata$x
xdata$x	SEGMENT
__unwindtable$??0FormatException@Internal@Core@Math@Palmtree@@QAE@ABV01234@@Z DD 0ffffffffH
	DD	FLAT:__unwindfunclet$??0FormatException@Internal@Core@Math@Palmtree@@QAE@ABV01234@@Z$1
	DD	0ffffffffH
	DD	FLAT:__unwindfunclet$??0FormatException@Internal@Core@Math@Palmtree@@QAE@ABV01234@@Z$0
__ehfuncinfo$??0FormatException@Internal@Core@Math@Palmtree@@QAE@ABV01234@@Z DD 019930522H
	DD	02H
	DD	FLAT:__unwindtable$??0FormatException@Internal@Core@Math@Palmtree@@QAE@ABV01234@@Z
	DD	2 DUP(00H)
	DD	2 DUP(00H)
	DD	00H
	DD	04H
xdata$x	ENDS
;	COMDAT xdata$x
xdata$x	SEGMENT
__unwindtable$??0FormatException@Internal@Core@Math@Palmtree@@QAE@PB_W@Z DD 0ffffffffH
	DD	FLAT:__unwindfunclet$??0FormatException@Internal@Core@Math@Palmtree@@QAE@PB_W@Z$1
	DD	0ffffffffH
	DD	FLAT:__unwindfunclet$??0FormatException@Internal@Core@Math@Palmtree@@QAE@PB_W@Z$0
__ehfuncinfo$??0FormatException@Internal@Core@Math@Palmtree@@QAE@PB_W@Z DD 019930522H
	DD	02H
	DD	FLAT:__unwindtable$??0FormatException@Internal@Core@Math@Palmtree@@QAE@PB_W@Z
	DD	2 DUP(00H)
	DD	2 DUP(00H)
	DD	00H
	DD	04H
xdata$x	ENDS
;	COMDAT xdata$x
xdata$x	SEGMENT
__unwindtable$??_GArgumentNullException@Internal@Core@Math@Palmtree@@UAEPAXI@Z DD 0ffffffffH
	DD	FLAT:__unwindfunclet$??_GArgumentNullException@Internal@Core@Math@Palmtree@@UAEPAXI@Z$0
	DD	0ffffffffH
	DD	FLAT:__unwindfunclet$??_GArgumentNullException@Internal@Core@Math@Palmtree@@UAEPAXI@Z$1
__ehfuncinfo$??_GArgumentNullException@Internal@Core@Math@Palmtree@@UAEPAXI@Z DD 019930522H
	DD	02H
	DD	FLAT:__unwindtable$??_GArgumentNullException@Internal@Core@Math@Palmtree@@UAEPAXI@Z
	DD	2 DUP(00H)
	DD	2 DUP(00H)
	DD	00H
	DD	04H
xdata$x	ENDS
;	COMDAT xdata$x
xdata$x	SEGMENT
__unwindtable$??1ArgumentNullException@Internal@Core@Math@Palmtree@@UAE@XZ DD 0ffffffffH
	DD	FLAT:__unwindfunclet$??1ArgumentNullException@Internal@Core@Math@Palmtree@@UAE@XZ$0
	DD	0ffffffffH
	DD	FLAT:__unwindfunclet$??1ArgumentNullException@Internal@Core@Math@Palmtree@@UAE@XZ$1
__ehfuncinfo$??1ArgumentNullException@Internal@Core@Math@Palmtree@@UAE@XZ DD 019930522H
	DD	02H
	DD	FLAT:__unwindtable$??1ArgumentNullException@Internal@Core@Math@Palmtree@@UAE@XZ
	DD	2 DUP(00H)
	DD	2 DUP(00H)
	DD	00H
	DD	04H
xdata$x	ENDS
;	COMDAT xdata$x
xdata$x	SEGMENT
__unwindtable$??0ArgumentNullException@Internal@Core@Math@Palmtree@@QAE@ABV01234@@Z DD 0ffffffffH
	DD	FLAT:__unwindfunclet$??0ArgumentNullException@Internal@Core@Math@Palmtree@@QAE@ABV01234@@Z$1
	DD	0ffffffffH
	DD	FLAT:__unwindfunclet$??0ArgumentNullException@Internal@Core@Math@Palmtree@@QAE@ABV01234@@Z$0
__ehfuncinfo$??0ArgumentNullException@Internal@Core@Math@Palmtree@@QAE@ABV01234@@Z DD 019930522H
	DD	02H
	DD	FLAT:__unwindtable$??0ArgumentNullException@Internal@Core@Math@Palmtree@@QAE@ABV01234@@Z
	DD	2 DUP(00H)
	DD	2 DUP(00H)
	DD	00H
	DD	04H
xdata$x	ENDS
;	COMDAT xdata$x
xdata$x	SEGMENT
__unwindtable$??0ArgumentNullException@Internal@Core@Math@Palmtree@@QAE@PB_W0@Z DD 0ffffffffH
	DD	FLAT:__unwindfunclet$??0ArgumentNullException@Internal@Core@Math@Palmtree@@QAE@PB_W0@Z$1
	DD	0ffffffffH
	DD	FLAT:__unwindfunclet$??0ArgumentNullException@Internal@Core@Math@Palmtree@@QAE@PB_W0@Z$0
__ehfuncinfo$??0ArgumentNullException@Internal@Core@Math@Palmtree@@QAE@PB_W0@Z DD 019930522H
	DD	02H
	DD	FLAT:__unwindtable$??0ArgumentNullException@Internal@Core@Math@Palmtree@@QAE@PB_W0@Z
	DD	2 DUP(00H)
	DD	2 DUP(00H)
	DD	00H
	DD	04H
xdata$x	ENDS
;	COMDAT xdata$x
xdata$x	SEGMENT
__unwindtable$??_GException@Internal@Core@Math@Palmtree@@UAEPAXI@Z DD 0ffffffffH
	DD	FLAT:__unwindfunclet$??_GException@Internal@Core@Math@Palmtree@@UAEPAXI@Z$0
__ehfuncinfo$??_GException@Internal@Core@Math@Palmtree@@UAEPAXI@Z DD 019930522H
	DD	01H
	DD	FLAT:__unwindtable$??_GException@Internal@Core@Math@Palmtree@@UAEPAXI@Z
	DD	2 DUP(00H)
	DD	2 DUP(00H)
	DD	00H
	DD	04H
xdata$x	ENDS
;	COMDAT xdata$x
xdata$x	SEGMENT
__unwindtable$??1Exception@Internal@Core@Math@Palmtree@@UAE@XZ DD 0ffffffffH
	DD	FLAT:__unwindfunclet$??1Exception@Internal@Core@Math@Palmtree@@UAE@XZ$0
__ehfuncinfo$??1Exception@Internal@Core@Math@Palmtree@@UAE@XZ DD 019930522H
	DD	01H
	DD	FLAT:__unwindtable$??1Exception@Internal@Core@Math@Palmtree@@UAE@XZ
	DD	2 DUP(00H)
	DD	2 DUP(00H)
	DD	00H
	DD	04H
xdata$x	ENDS
;	COMDAT xdata$x
xdata$x	SEGMENT
__unwindtable$??0Exception@Internal@Core@Math@Palmtree@@QAE@ABV01234@@Z DD 0ffffffffH
	DD	FLAT:__unwindfunclet$??0Exception@Internal@Core@Math@Palmtree@@QAE@ABV01234@@Z$0
__ehfuncinfo$??0Exception@Internal@Core@Math@Palmtree@@QAE@ABV01234@@Z DD 019930522H
	DD	01H
	DD	FLAT:__unwindtable$??0Exception@Internal@Core@Math@Palmtree@@QAE@ABV01234@@Z
	DD	2 DUP(00H)
	DD	2 DUP(00H)
	DD	00H
	DD	04H
xdata$x	ENDS
;	COMDAT xdata$x
xdata$x	SEGMENT
__unwindtable$??0Exception@Internal@Core@Math@Palmtree@@IAE@HPB_W0@Z DD 0ffffffffH
	DD	FLAT:__unwindfunclet$??0Exception@Internal@Core@Math@Palmtree@@IAE@HPB_W0@Z$0
__ehfuncinfo$??0Exception@Internal@Core@Math@Palmtree@@IAE@HPB_W0@Z DD 019930522H
	DD	01H
	DD	FLAT:__unwindtable$??0Exception@Internal@Core@Math@Palmtree@@IAE@HPB_W0@Z
	DD	2 DUP(00H)
	DD	2 DUP(00H)
	DD	00H
	DD	04H
xdata$x	ENDS
;	COMDAT xdata$x
xdata$x	SEGMENT
__unwindtable$??0Exception@Internal@Core@Math@Palmtree@@IAE@HPB_W@Z DD 0ffffffffH
	DD	FLAT:__unwindfunclet$??0Exception@Internal@Core@Math@Palmtree@@IAE@HPB_W@Z$0
__ehfuncinfo$??0Exception@Internal@Core@Math@Palmtree@@IAE@HPB_W@Z DD 019930522H
	DD	01H
	DD	FLAT:__unwindtable$??0Exception@Internal@Core@Math@Palmtree@@IAE@HPB_W@Z
	DD	2 DUP(00H)
	DD	2 DUP(00H)
	DD	00H
	DD	04H
xdata$x	ENDS
;	COMDAT xdata$x
xdata$x	SEGMENT
__ehfuncinfo$??_Gexception@std@@UAEPAXI@Z DD 019930522H
	DD	00H
	DD	00H
	DD	2 DUP(00H)
	DD	2 DUP(00H)
	DD	00H
	DD	04H
xdata$x	ENDS
;	COMDAT xdata$x
xdata$x	SEGMENT
__ehfuncinfo$??1exception@std@@UAE@XZ DD 019930522H
	DD	00H
	DD	00H
	DD	2 DUP(00H)
	DD	2 DUP(00H)
	DD	00H
	DD	04H
xdata$x	ENDS
; Function compile flags: /Ogtp
; File z:\sources\lunor\repos\rougemeilland\palmtree.math.core.uint\palmtree.math.core.uint\pmc_tostring.cpp
; File z:\sources\lunor\repos\rougemeilland\palmtree.math.core.uint\palmtree.math.core.uint\pmc_stringio.h
; File z:\sources\lunor\repos\rougemeilland\palmtree.math.core.uint\palmtree.math.core.uint\pmc_tostring.cpp
; File z:\sources\lunor\repos\rougemeilland\palmtree.math.core.uint\palmtree.math.core.uint\pmc_stringio.h
; File z:\sources\lunor\repos\rougemeilland\palmtree.math.core.uint\palmtree.math.core.uint\pmc_tostring.cpp
; File z:\sources\lunor\repos\rougemeilland\palmtree.math.core.uint\palmtree.math.core.uint\pmc_stringio.h
; File z:\sources\lunor\repos\rougemeilland\palmtree.math.core.uint\palmtree.math.core.uint\pmc_tostring.cpp
; File z:\sources\lunor\repos\rougemeilland\palmtree.math.core.uint\palmtree.math.core.uint\pmc_stringio.h
; File z:\sources\lunor\repos\rougemeilland\palmtree.math.core.uint\palmtree.math.core.uint\pmc_tostring.cpp
; File z:\sources\lunor\repos\rougemeilland\palmtree.math.core.uint\palmtree.math.core.uint\pmc_stringio.h
; File z:\sources\lunor\repos\rougemeilland\palmtree.math.core.uint\palmtree.math.core.uint\pmc_tostring.cpp
; File z:\sources\lunor\repos\rougemeilland\palmtree.math.core.uint\palmtree.math.core.uint\pmc_stringio.h
; File z:\sources\lunor\repos\rougemeilland\palmtree.math.core.uint\palmtree.math.core.uint\pmc_tostring.cpp
; File z:\sources\lunor\repos\rougemeilland\palmtree.math.core.uint\palmtree.math.core.uint\pmc_stringio.h
; File z:\sources\lunor\repos\rougemeilland\palmtree.math.core.uint\palmtree.math.core.uint\pmc_tostring.cpp
; File z:\sources\lunor\repos\rougemeilland\palmtree.math.core.uint\palmtree.math.core.uint\pmc_stringio.h
; File z:\sources\lunor\repos\rougemeilland\palmtree.math.core.uint\palmtree.math.core.uint\pmc_tostring.cpp
; File z:\sources\lunor\repos\rougemeilland\palmtree.math.core.uint\palmtree.math.core.uint\pmc_stringio.h
; File z:\sources\lunor\repos\rougemeilland\palmtree.math.core.uint\palmtree.math.core.uint\pmc_tostring.cpp
; File z:\sources\lunor\repos\rougemeilland\palmtree.math.core.uint\palmtree.math.core.uint\pmc_stringio.h
; File z:\sources\lunor\repos\rougemeilland\palmtree.math.core.uint\palmtree.math.core.uint\pmc_tostring.cpp
; File z:\sources\lunor\repos\rougemeilland\palmtree.math.core.uint\palmtree.math.core.uint\pmc_stringio.h
; File z:\sources\lunor\repos\rougemeilland\palmtree.math.core.uint\palmtree.math.core.uint\pmc_tostring.cpp
; File z:\sources\lunor\repos\rougemeilland\palmtree.math.core.uint\palmtree.math.core.uint\pmc_stringio.h
; File z:\sources\lunor\repos\rougemeilland\palmtree.math.core.uint\palmtree.math.core.uint\pmc_tostring.cpp
; File z:\sources\lunor\repos\rougemeilland\palmtree.math.core.uint\palmtree.math.core.uint\pmc_stringio.h
; File z:\sources\lunor\repos\rougemeilland\palmtree.math.core.uint\palmtree.math.core.uint\pmc_tostring.cpp
; File z:\sources\lunor\repos\rougemeilland\palmtree.math.core.uint\palmtree.math.core.uint\pmc_stringio.h
; File z:\sources\lunor\repos\rougemeilland\palmtree.math.core.uint\palmtree.math.core.uint\pmc_tostring.cpp
;	COMDAT ?ToString_Imp@Internal@Core@Math@Palmtree@@YAIDPAU__tag_NUMBER_HEADER@1234@PB_WPBU__tag_PMC_NUMBER_FORMAT_INFO@1234@PA_WI@Z
_TEXT	SEGMENT
_formatter$1 = -44					; size = 24
_formatter$2 = -44					; size = 24
_formatter$3 = -44					; size = 24
_formatter$4 = -44					; size = 24
_formatter$5 = -44					; size = 24
$T6 = -44						; size = 24
_writer$7 = -20						; size = 20
_writer$8 = -20						; size = 20
_writer$9 = -20						; size = 20
_writer$10 = -20					; size = 20
_writer$11 = -20					; size = 20
_x_sign$ = 8						; size = 1
_x_abs$ = 12						; size = 4
_format$ = 16						; size = 4
_format_option$ = 20					; size = 4
_buffer$ = 24						; size = 4
_buffer_size$ = 28					; size = 4
?ToString_Imp@Internal@Core@Math@Palmtree@@YAIDPAU__tag_NUMBER_HEADER@1234@PB_WPBU__tag_PMC_NUMBER_FORMAT_INFO@1234@PA_WI@Z PROC ; Palmtree::Math::Core::Internal::ToString_Imp, COMDAT

; 1343 :     {

  00000	55		 push	 ebp
  00001	8b ec		 mov	 ebp, esp

; 1308 :         if (format == nullptr)

  00003	8b 4d 10	 mov	 ecx, DWORD PTR _format$[ebp]

; 1343 :     {

  00006	83 ec 2c	 sub	 esp, 44			; 0000002cH
  00009	56		 push	 esi

; 1308 :         if (format == nullptr)

  0000a	85 c9		 test	 ecx, ecx
  0000c	75 0b		 jne	 SHORT $LN18@ToString_I

; 1309 :         {
; 1310 :             *format_type = L'D';

  0000e	8d 51 44	 lea	 edx, DWORD PTR [ecx+68]

; 1311 :             *precision = -1;

  00011	83 c9 ff	 or	 ecx, -1

; 1312 :             return (TRUE);

  00014	e9 b4 00 00 00	 jmp	 $LN4@ToString_I
$LN18@ToString_I:

; 1313 :         }
; 1314 :         else if (format[0] == L'\0')

  00019	0f b7 11	 movzx	 edx, WORD PTR [ecx]
  0001c	66 85 d2	 test	 dx, dx
  0001f	75 0d		 jne	 SHORT $LN20@ToString_I

; 1315 :         {
; 1316 :             *format_type = L'D';

  00021	ba 44 00 00 00	 mov	 edx, 68			; 00000044H

; 1317 :             *precision = -1;

  00026	83 c9 ff	 or	 ecx, -1

; 1318 :             return (TRUE);

  00029	e9 9f 00 00 00	 jmp	 $LN4@ToString_I
$LN20@ToString_I:

; 1319 :         }
; 1320 :         else if (__IS_ALPHA(format[0]) && format[1] == L'\0')

  0002e	8b f2		 mov	 esi, edx
  00030	57		 push	 edi

; 1292 :         if (c >= L'A' && c <= L'Z')

  00031	8d 46 bf	 lea	 eax, DWORD PTR [esi-65]
  00034	0f b7 f8	 movzx	 edi, ax
  00037	66 83 f8 19	 cmp	 ax, 25			; 00000019H
  0003b	76 09		 jbe	 SHORT $LN121@ToString_I

; 1293 :             return (TRUE);
; 1294 :         if (c >= L'a' && c <= L'z')

  0003d	8d 46 9f	 lea	 eax, DWORD PTR [esi-97]
  00040	66 83 f8 19	 cmp	 ax, 25			; 00000019H
  00044	77 0c		 ja	 SHORT $LN128@ToString_I
$LN121@ToString_I:

; 1320 :         else if (__IS_ALPHA(format[0]) && format[1] == L'\0')

  00046	66 83 79 02 00	 cmp	 WORD PTR [ecx+2], 0
  0004b	75 05		 jne	 SHORT $LN128@ToString_I

; 1321 :         {
; 1322 :             *format_type = format[0];
; 1323 :             *precision = -1;

  0004d	83 c9 ff	 or	 ecx, -1

; 1324 :             return (TRUE);

  00050	eb 7a		 jmp	 SHORT $LN130@ToString_I
$LN128@ToString_I:

; 1325 :         }
; 1326 :         else if (__IS_ALPHA(format[0]) && __IS_DIGIT(format[1]) && format[2] == L'\0')

  00052	8b c2		 mov	 eax, edx

; 1292 :         if (c >= L'A' && c <= L'Z')

  00054	83 ff 19	 cmp	 edi, 25			; 00000019H
  00057	76 09		 jbe	 SHORT $LN122@ToString_I

; 1293 :             return (TRUE);
; 1294 :         if (c >= L'a' && c <= L'z')

  00059	83 c0 9f	 add	 eax, -97		; ffffff9fH
  0005c	66 83 f8 19	 cmp	 ax, 25			; 00000019H
  00060	77 19		 ja	 SHORT $LN24@ToString_I
$LN122@ToString_I:

; 1326 :         else if (__IS_ALPHA(format[0]) && __IS_DIGIT(format[1]) && format[2] == L'\0')

  00062	0f b7 71 02	 movzx	 esi, WORD PTR [ecx+2]

; 1301 :         if (c >= L'0' && c <= L'9')

  00066	8d 46 d0	 lea	 eax, DWORD PTR [esi-48]
  00069	66 83 f8 09	 cmp	 ax, 9
  0006d	77 0c		 ja	 SHORT $LN24@ToString_I

; 1326 :         else if (__IS_ALPHA(format[0]) && __IS_DIGIT(format[1]) && format[2] == L'\0')

  0006f	66 83 79 04 00	 cmp	 WORD PTR [ecx+4], 0
  00074	75 05		 jne	 SHORT $LN24@ToString_I

; 1327 :         {
; 1328 :             *format_type = format[0];
; 1329 :             *precision = format[1] - L'0';

  00076	8d 4e d0	 lea	 ecx, DWORD PTR [esi-48]

; 1330 :             return (TRUE);

  00079	eb 51		 jmp	 SHORT $LN130@ToString_I
$LN24@ToString_I:

; 1331 :         }
; 1332 :         else if (__IS_ALPHA(format[0]) && __IS_DIGIT(format[1]) && __IS_DIGIT(format[2]) && format[3] == L'\0')

  0007b	8b c2		 mov	 eax, edx

; 1292 :         if (c >= L'A' && c <= L'Z')

  0007d	83 ff 19	 cmp	 edi, 25			; 00000019H
  00080	76 0d		 jbe	 SHORT $LN124@ToString_I

; 1293 :             return (TRUE);
; 1294 :         if (c >= L'a' && c <= L'z')

  00082	83 c0 9f	 add	 eax, -97		; ffffff9fH
  00085	66 83 f8 19	 cmp	 ax, 25			; 00000019H
  00089	0f 87 e0 01 00
	00		 ja	 $LN26@ToString_I
$LN124@ToString_I:

; 1332 :         else if (__IS_ALPHA(format[0]) && __IS_DIGIT(format[1]) && __IS_DIGIT(format[2]) && format[3] == L'\0')

  0008f	0f b7 71 02	 movzx	 esi, WORD PTR [ecx+2]

; 1301 :         if (c >= L'0' && c <= L'9')

  00093	8d 46 d0	 lea	 eax, DWORD PTR [esi-48]
  00096	66 83 f8 09	 cmp	 ax, 9
  0009a	0f 87 cf 01 00
	00		 ja	 $LN26@ToString_I

; 1332 :         else if (__IS_ALPHA(format[0]) && __IS_DIGIT(format[1]) && __IS_DIGIT(format[2]) && format[3] == L'\0')

  000a0	0f b7 79 04	 movzx	 edi, WORD PTR [ecx+4]

; 1301 :         if (c >= L'0' && c <= L'9')

  000a4	8d 47 d0	 lea	 eax, DWORD PTR [edi-48]
  000a7	66 83 f8 09	 cmp	 ax, 9
  000ab	0f 87 be 01 00
	00		 ja	 $LN26@ToString_I

; 1332 :         else if (__IS_ALPHA(format[0]) && __IS_DIGIT(format[1]) && __IS_DIGIT(format[2]) && format[3] == L'\0')

  000b1	66 83 79 06 00	 cmp	 WORD PTR [ecx+6], 0
  000b6	0f 85 b3 01 00
	00		 jne	 $LN26@ToString_I

; 1333 :         {
; 1334 :             *format_type = format[0];
; 1335 :             *precision = (format[1] - L'0') * 10 + (format[2] - L'0');

  000bc	8b c6		 mov	 eax, esi
  000be	8d 0c 80	 lea	 ecx, DWORD PTR [eax+eax*4]
  000c1	8b c7		 mov	 eax, edi
  000c3	8d 89 f8 fe ff
	ff		 lea	 ecx, DWORD PTR [ecx-264]
  000c9	8d 0c 48	 lea	 ecx, DWORD PTR [eax+ecx*2]
$LN130@ToString_I:
  000cc	5f		 pop	 edi
$LN4@ToString_I:

; 1348 :         else
; 1349 :         {
; 1350 :             switch (format_type)

  000cd	0f b7 c2	 movzx	 eax, dx
  000d0	83 c0 bd	 add	 eax, -67		; ffffffbdH
  000d3	83 f8 35	 cmp	 eax, 53			; 00000035H
  000d6	0f 87 a8 01 00
	00		 ja	 $LN15@ToString_I
  000dc	0f b6 80 00 00
	00 00		 movzx	 eax, BYTE PTR $LN129@ToString_I[eax]
  000e3	ff 24 85 00 00
	00 00		 jmp	 DWORD PTR $LN138@ToString_I[eax*4]
$LN6@ToString_I:
; File z:\sources\lunor\repos\rougemeilland\palmtree.math.core.uint\palmtree.math.core.uint\pmc_stringio.h

; 209  :             : StringWriter(buffer, buffer, buffer != nullptr ? buffer + size : nullptr)

  000ea	8b 55 18	 mov	 edx, DWORD PTR _buffer$[ebp]
  000ed	85 d2		 test	 edx, edx
  000ef	74 08		 je	 SHORT $LN54@ToString_I
  000f1	8b 45 1c	 mov	 eax, DWORD PTR _buffer_size$[ebp]
  000f4	8d 04 42	 lea	 eax, DWORD PTR [edx+eax*2]
  000f7	eb 02		 jmp	 SHORT $LN55@ToString_I
$LN54@ToString_I:
  000f9	33 c0		 xor	 eax, eax
$LN55@ToString_I:

; 203  :             _eob = eob;

  000fb	89 45 f8	 mov	 DWORD PTR _writer$11[ebp+12], eax
; File z:\sources\lunor\repos\rougemeilland\palmtree.math.core.uint\palmtree.math.core.uint\pmc_tostring.cpp

; 158  :                 _format_type = format_type;

  000fe	b8 43 00 00 00	 mov	 eax, 67			; 00000043H

; 358  :             {

  00103	c7 45 d4 00 00
	00 00		 mov	 DWORD PTR _formatter$5[ebp], OFFSET ??_7FormatterTypeC@DecimalFromatter@Internal@Core@Math@Palmtree@@6B@
$LN136@ToString_I:

; 1381 :             }
; 1382 :         }
; 1383 :     }

  0010a	66 89 45 e0	 mov	 WORD PTR _formatter$5[ebp+12], ax
  0010e	89 55 f4	 mov	 DWORD PTR _writer$11[ebp+8], edx
  00111	89 55 f0	 mov	 DWORD PTR _writer$11[ebp+4], edx
$LN135@ToString_I:
  00114	8b 45 14	 mov	 eax, DWORD PTR _format_option$[ebp]
  00117	89 45 e8	 mov	 DWORD PTR _formatter$5[ebp+20], eax
  0011a	8d 45 ec	 lea	 eax, DWORD PTR _writer$11[ebp]
  0011d	50		 push	 eax
  0011e	ff 75 0c	 push	 DWORD PTR _x_abs$[ebp]
  00121	89 4d e4	 mov	 DWORD PTR _formatter$5[ebp+16], ecx
  00124	8d 4d d4	 lea	 ecx, DWORD PTR _formatter$5[ebp]
  00127	ff 75 08	 push	 DWORD PTR _x_sign$[ebp]
  0012a	c7 45 fc 00 00
	00 00		 mov	 DWORD PTR _writer$11[ebp+16], 0
  00131	c7 45 ec 00 00
	00 00		 mov	 DWORD PTR _writer$11[ebp], OFFSET ??_7StringWriter@Internal@Core@Math@Palmtree@@6B@
  00138	c7 45 d8 00 ca
	9a 3b		 mov	 DWORD PTR _formatter$5[ebp+4], 1000000000 ; 3b9aca00H
  0013f	c7 45 dc 09 00
	00 00		 mov	 DWORD PTR _formatter$5[ebp+8], 9
  00146	e8 00 00 00 00	 call	 ?Format@Formatter@DecimalFromatter@Internal@Core@Math@Palmtree@@QAEXDPAU__tag_NUMBER_HEADER@3456@PAVStringWriter@3456@@Z ; Palmtree::Math::Core::Internal::DecimalFromatter::Formatter::Format
  0014b	8b 45 fc	 mov	 eax, DWORD PTR _writer$11[ebp+16]
  0014e	5e		 pop	 esi
  0014f	8b e5		 mov	 esp, ebp
  00151	5d		 pop	 ebp
  00152	c3		 ret	 0
$LN7@ToString_I:
  00153	ff 75 1c	 push	 DWORD PTR _buffer_size$[ebp]
  00156	ff 75 18	 push	 DWORD PTR _buffer$[ebp]
  00159	ff 75 14	 push	 DWORD PTR _format_option$[ebp]
  0015c	51		 push	 ecx
$LN133@ToString_I:
  0015d	6a 44		 push	 68			; 00000044H
  0015f	ff 75 0c	 push	 DWORD PTR _x_abs$[ebp]
  00162	ff 75 08	 push	 DWORD PTR _x_sign$[ebp]
  00165	e8 00 00 00 00	 call	 ?ToStringD@DecimalFromatter@Internal@Core@Math@Palmtree@@YAIDPAU__tag_NUMBER_HEADER@2345@_WHPBU__tag_PMC_NUMBER_FORMAT_INFO@2345@PA_WI@Z ; Palmtree::Math::Core::Internal::DecimalFromatter::ToStringD
  0016a	83 c4 1c	 add	 esp, 28			; 0000001cH
  0016d	5e		 pop	 esi
  0016e	8b e5		 mov	 esp, ebp
  00170	5d		 pop	 ebp
  00171	c3		 ret	 0
$LN8@ToString_I:
; File z:\sources\lunor\repos\rougemeilland\palmtree.math.core.uint\palmtree.math.core.uint\pmc_stringio.h

; 209  :             : StringWriter(buffer, buffer, buffer != nullptr ? buffer + size : nullptr)

  00172	8b 75 18	 mov	 esi, DWORD PTR _buffer$[ebp]
  00175	85 f6		 test	 esi, esi
  00177	74 08		 je	 SHORT $LN68@ToString_I
  00179	8b 45 1c	 mov	 eax, DWORD PTR _buffer_size$[ebp]
  0017c	8d 04 46	 lea	 eax, DWORD PTR [esi+eax*2]
  0017f	eb 02		 jmp	 SHORT $LN69@ToString_I
$LN68@ToString_I:
  00181	33 c0		 xor	 eax, eax
$LN69@ToString_I:

; 201  :             _p = p;

  00183	89 75 f0	 mov	 DWORD PTR _writer$10[ebp+4], esi

; 202  :             _sob = sob;

  00186	89 75 f4	 mov	 DWORD PTR _writer$10[ebp+8], esi

; 203  :             _eob = eob;

  00189	89 45 f8	 mov	 DWORD PTR _writer$10[ebp+12], eax
; File z:\sources\lunor\repos\rougemeilland\palmtree.math.core.uint\palmtree.math.core.uint\pmc_tostring.cpp

; 158  :                 _format_type = format_type;

  0018c	66 89 55 e0	 mov	 WORD PTR _formatter$4[ebp+12], dx

; 605  :             {

  00190	c7 45 d4 00 00
	00 00		 mov	 DWORD PTR _formatter$4[ebp], OFFSET ??_7FormatterTypeE@DecimalFromatter@Internal@Core@Math@Palmtree@@6B@

; 1351 :             {
; 1352 :             case L'c':
; 1353 :             case L'C':
; 1354 :                 return (DecimalFromatter::ToStringC(x_sign, x_abs, L'C', precision, format_option, buffer, buffer_size));
; 1355 :             case L'd':
; 1356 :             case L'D':
; 1357 :                 return (DecimalFromatter::ToStringD(x_sign, x_abs, L'D', precision, format_option, buffer, buffer_size));
; 1358 :             case L'e':
; 1359 :             case L'E':
; 1360 :                 return (DecimalFromatter::ToStringE(x_sign, x_abs, format_type, precision, format_option, buffer, buffer_size));

  00197	e9 78 ff ff ff	 jmp	 $LN135@ToString_I
$LN9@ToString_I:
; File z:\sources\lunor\repos\rougemeilland\palmtree.math.core.uint\palmtree.math.core.uint\pmc_stringio.h

; 209  :             : StringWriter(buffer, buffer, buffer != nullptr ? buffer + size : nullptr)

  0019c	8b 55 18	 mov	 edx, DWORD PTR _buffer$[ebp]
  0019f	85 d2		 test	 edx, edx
  001a1	74 1a		 je	 SHORT $LN82@ToString_I
  001a3	8b 45 1c	 mov	 eax, DWORD PTR _buffer_size$[ebp]
; File z:\sources\lunor\repos\rougemeilland\palmtree.math.core.uint\palmtree.math.core.uint\pmc_tostring.cpp

; 689  :             {

  001a6	c7 45 d4 00 00
	00 00		 mov	 DWORD PTR _formatter$3[ebp], OFFSET ??_7FormatterTypeF@DecimalFromatter@Internal@Core@Math@Palmtree@@6B@
; File z:\sources\lunor\repos\rougemeilland\palmtree.math.core.uint\palmtree.math.core.uint\pmc_stringio.h

; 209  :             : StringWriter(buffer, buffer, buffer != nullptr ? buffer + size : nullptr)

  001ad	8d 04 42	 lea	 eax, DWORD PTR [edx+eax*2]

; 203  :             _eob = eob;

  001b0	89 45 f8	 mov	 DWORD PTR _writer$9[ebp+12], eax
; File z:\sources\lunor\repos\rougemeilland\palmtree.math.core.uint\palmtree.math.core.uint\pmc_tostring.cpp

; 158  :                 _format_type = format_type;

  001b3	b8 46 00 00 00	 mov	 eax, 70			; 00000046H

; 1361 :             case L'f':
; 1362 :             case L'F':
; 1363 :                 return (DecimalFromatter::ToStringF(x_sign, x_abs, L'F', precision, format_option, buffer, buffer_size));

  001b8	e9 4d ff ff ff	 jmp	 $LN136@ToString_I
$LN82@ToString_I:
; File z:\sources\lunor\repos\rougemeilland\palmtree.math.core.uint\palmtree.math.core.uint\pmc_stringio.h

; 209  :             : StringWriter(buffer, buffer, buffer != nullptr ? buffer + size : nullptr)

  001bd	33 c0		 xor	 eax, eax
; File z:\sources\lunor\repos\rougemeilland\palmtree.math.core.uint\palmtree.math.core.uint\pmc_tostring.cpp

; 689  :             {

  001bf	c7 45 d4 00 00
	00 00		 mov	 DWORD PTR _formatter$3[ebp], OFFSET ??_7FormatterTypeF@DecimalFromatter@Internal@Core@Math@Palmtree@@6B@
; File z:\sources\lunor\repos\rougemeilland\palmtree.math.core.uint\palmtree.math.core.uint\pmc_stringio.h

; 203  :             _eob = eob;

  001c6	89 45 f8	 mov	 DWORD PTR _writer$9[ebp+12], eax
; File z:\sources\lunor\repos\rougemeilland\palmtree.math.core.uint\palmtree.math.core.uint\pmc_tostring.cpp

; 158  :                 _format_type = format_type;

  001c9	b8 46 00 00 00	 mov	 eax, 70			; 00000046H

; 1361 :             case L'f':
; 1362 :             case L'F':
; 1363 :                 return (DecimalFromatter::ToStringF(x_sign, x_abs, L'F', precision, format_option, buffer, buffer_size));

  001ce	e9 37 ff ff ff	 jmp	 $LN136@ToString_I
$LN11@ToString_I:
; File z:\sources\lunor\repos\rougemeilland\palmtree.math.core.uint\palmtree.math.core.uint\pmc_stringio.h

; 209  :             : StringWriter(buffer, buffer, buffer != nullptr ? buffer + size : nullptr)

  001d3	8b 55 18	 mov	 edx, DWORD PTR _buffer$[ebp]
  001d6	85 d2		 test	 edx, edx
  001d8	74 1a		 je	 SHORT $LN96@ToString_I
  001da	8b 45 1c	 mov	 eax, DWORD PTR _buffer_size$[ebp]
; File z:\sources\lunor\repos\rougemeilland\palmtree.math.core.uint\palmtree.math.core.uint\pmc_tostring.cpp

; 735  :             {

  001dd	c7 45 d4 00 00
	00 00		 mov	 DWORD PTR _formatter$2[ebp], OFFSET ??_7FormatterTypeN@DecimalFromatter@Internal@Core@Math@Palmtree@@6B@
; File z:\sources\lunor\repos\rougemeilland\palmtree.math.core.uint\palmtree.math.core.uint\pmc_stringio.h

; 209  :             : StringWriter(buffer, buffer, buffer != nullptr ? buffer + size : nullptr)

  001e4	8d 04 42	 lea	 eax, DWORD PTR [edx+eax*2]

; 203  :             _eob = eob;

  001e7	89 45 f8	 mov	 DWORD PTR _writer$8[ebp+12], eax
; File z:\sources\lunor\repos\rougemeilland\palmtree.math.core.uint\palmtree.math.core.uint\pmc_tostring.cpp

; 158  :                 _format_type = format_type;

  001ea	b8 4e 00 00 00	 mov	 eax, 78			; 0000004eH

; 1364 :             case L'g':
; 1365 :             case L'G':
; 1366 :                 return (DecimalFromatter::ToStringD(x_sign, x_abs, L'D', precision, format_option, buffer, buffer_size));
; 1367 :             case L'n':
; 1368 :             case L'N':
; 1369 :                 return (DecimalFromatter::ToStringN(x_sign, x_abs, L'N', precision, format_option, buffer, buffer_size));

  001ef	e9 16 ff ff ff	 jmp	 $LN136@ToString_I
$LN96@ToString_I:
; File z:\sources\lunor\repos\rougemeilland\palmtree.math.core.uint\palmtree.math.core.uint\pmc_stringio.h

; 209  :             : StringWriter(buffer, buffer, buffer != nullptr ? buffer + size : nullptr)

  001f4	33 c0		 xor	 eax, eax
; File z:\sources\lunor\repos\rougemeilland\palmtree.math.core.uint\palmtree.math.core.uint\pmc_tostring.cpp

; 735  :             {

  001f6	c7 45 d4 00 00
	00 00		 mov	 DWORD PTR _formatter$2[ebp], OFFSET ??_7FormatterTypeN@DecimalFromatter@Internal@Core@Math@Palmtree@@6B@
; File z:\sources\lunor\repos\rougemeilland\palmtree.math.core.uint\palmtree.math.core.uint\pmc_stringio.h

; 203  :             _eob = eob;

  001fd	89 45 f8	 mov	 DWORD PTR _writer$8[ebp+12], eax
; File z:\sources\lunor\repos\rougemeilland\palmtree.math.core.uint\palmtree.math.core.uint\pmc_tostring.cpp

; 158  :                 _format_type = format_type;

  00200	b8 4e 00 00 00	 mov	 eax, 78			; 0000004eH

; 1364 :             case L'g':
; 1365 :             case L'G':
; 1366 :                 return (DecimalFromatter::ToStringD(x_sign, x_abs, L'D', precision, format_option, buffer, buffer_size));
; 1367 :             case L'n':
; 1368 :             case L'N':
; 1369 :                 return (DecimalFromatter::ToStringN(x_sign, x_abs, L'N', precision, format_option, buffer, buffer_size));

  00205	e9 00 ff ff ff	 jmp	 $LN136@ToString_I
$LN12@ToString_I:
; File z:\sources\lunor\repos\rougemeilland\palmtree.math.core.uint\palmtree.math.core.uint\pmc_stringio.h

; 209  :             : StringWriter(buffer, buffer, buffer != nullptr ? buffer + size : nullptr)

  0020a	8b 55 18	 mov	 edx, DWORD PTR _buffer$[ebp]
  0020d	85 d2		 test	 edx, edx
  0020f	74 1a		 je	 SHORT $LN110@ToString_I
  00211	8b 45 1c	 mov	 eax, DWORD PTR _buffer_size$[ebp]
; File z:\sources\lunor\repos\rougemeilland\palmtree.math.core.uint\palmtree.math.core.uint\pmc_tostring.cpp

; 835  :             {

  00214	c7 45 d4 00 00
	00 00		 mov	 DWORD PTR _formatter$1[ebp], OFFSET ??_7FormatterTypeP@DecimalFromatter@Internal@Core@Math@Palmtree@@6B@
; File z:\sources\lunor\repos\rougemeilland\palmtree.math.core.uint\palmtree.math.core.uint\pmc_stringio.h

; 209  :             : StringWriter(buffer, buffer, buffer != nullptr ? buffer + size : nullptr)

  0021b	8d 04 42	 lea	 eax, DWORD PTR [edx+eax*2]

; 203  :             _eob = eob;

  0021e	89 45 f8	 mov	 DWORD PTR _writer$7[ebp+12], eax
; File z:\sources\lunor\repos\rougemeilland\palmtree.math.core.uint\palmtree.math.core.uint\pmc_tostring.cpp

; 158  :                 _format_type = format_type;

  00221	b8 50 00 00 00	 mov	 eax, 80			; 00000050H

; 1370 :             case L'p':
; 1371 :             case L'P':
; 1372 :                 return (DecimalFromatter::ToStringP(x_sign, x_abs, L'P', precision, format_option, buffer, buffer_size));

  00226	e9 df fe ff ff	 jmp	 $LN136@ToString_I
$LN110@ToString_I:
; File z:\sources\lunor\repos\rougemeilland\palmtree.math.core.uint\palmtree.math.core.uint\pmc_stringio.h

; 209  :             : StringWriter(buffer, buffer, buffer != nullptr ? buffer + size : nullptr)

  0022b	33 c0		 xor	 eax, eax
; File z:\sources\lunor\repos\rougemeilland\palmtree.math.core.uint\palmtree.math.core.uint\pmc_tostring.cpp

; 835  :             {

  0022d	c7 45 d4 00 00
	00 00		 mov	 DWORD PTR _formatter$1[ebp], OFFSET ??_7FormatterTypeP@DecimalFromatter@Internal@Core@Math@Palmtree@@6B@
; File z:\sources\lunor\repos\rougemeilland\palmtree.math.core.uint\palmtree.math.core.uint\pmc_stringio.h

; 203  :             _eob = eob;

  00234	89 45 f8	 mov	 DWORD PTR _writer$7[ebp+12], eax
; File z:\sources\lunor\repos\rougemeilland\palmtree.math.core.uint\palmtree.math.core.uint\pmc_tostring.cpp

; 158  :                 _format_type = format_type;

  00237	b8 50 00 00 00	 mov	 eax, 80			; 00000050H

; 1370 :             case L'p':
; 1371 :             case L'P':
; 1372 :                 return (DecimalFromatter::ToStringP(x_sign, x_abs, L'P', precision, format_option, buffer, buffer_size));

  0023c	e9 c9 fe ff ff	 jmp	 $LN136@ToString_I
$LN13@ToString_I:

; 1373 :             case L'r':
; 1374 :             case L'R':
; 1375 :                 return (DecimalFromatter::ToStringD(x_sign, x_abs, L'D', 0, format_option, buffer, buffer_size));

  00241	ff 75 1c	 push	 DWORD PTR _buffer_size$[ebp]
  00244	ff 75 18	 push	 DWORD PTR _buffer$[ebp]
  00247	ff 75 14	 push	 DWORD PTR _format_option$[ebp]
  0024a	6a 00		 push	 0
  0024c	e9 0c ff ff ff	 jmp	 $LN133@ToString_I
$LN14@ToString_I:

; 1376 :             case L'x':
; 1377 :             case L'X':
; 1378 :                 return (HexaDecimalFormatter::ToStringX(x_sign, x_abs, format_type, precision, format_option, buffer, buffer_size));

  00251	ff 75 1c	 push	 DWORD PTR _buffer_size$[ebp]
  00254	ff 75 18	 push	 DWORD PTR _buffer$[ebp]
  00257	ff 75 14	 push	 DWORD PTR _format_option$[ebp]
  0025a	51		 push	 ecx
  0025b	52		 push	 edx
  0025c	ff 75 0c	 push	 DWORD PTR _x_abs$[ebp]
  0025f	ff 75 08	 push	 DWORD PTR _x_sign$[ebp]
  00262	e8 00 00 00 00	 call	 ?ToStringX@HexaDecimalFormatter@Internal@Core@Math@Palmtree@@YAIDPAU__tag_NUMBER_HEADER@2345@_WHPBU__tag_PMC_NUMBER_FORMAT_INFO@2345@PA_WI@Z ; Palmtree::Math::Core::Internal::HexaDecimalFormatter::ToStringX

; 1381 :             }
; 1382 :         }
; 1383 :     }

  00267	83 c4 1c	 add	 esp, 28			; 0000001cH
  0026a	5e		 pop	 esi
  0026b	8b e5		 mov	 esp, ebp
  0026d	5d		 pop	 ebp
  0026e	c3		 ret	 0
$LN26@ToString_I:

; 1344 :         wchar_t format_type;
; 1345 :         int precision;
; 1346 :         if (!ParseStandardFormat(format, &format_type, &precision))
; 1347 :             return (CustomFormatter::ToStringCustom(x_sign, x_abs, format, format_option, buffer, buffer_size));

  0026f	ff 75 1c	 push	 DWORD PTR _buffer_size$[ebp]
  00272	ff 75 18	 push	 DWORD PTR _buffer$[ebp]
  00275	ff 75 14	 push	 DWORD PTR _format_option$[ebp]
  00278	51		 push	 ecx
  00279	ff 75 0c	 push	 DWORD PTR _x_abs$[ebp]
  0027c	ff 75 08	 push	 DWORD PTR _x_sign$[ebp]
  0027f	e8 00 00 00 00	 call	 ?ToStringCustom@CustomFormatter@Internal@Core@Math@Palmtree@@YAIDPAU__tag_NUMBER_HEADER@2345@PB_WPBU__tag_PMC_NUMBER_FORMAT_INFO@2345@PA_WI@Z ; Palmtree::Math::Core::Internal::CustomFormatter::ToStringCustom
$LN15@ToString_I:

; 1379 :             default:
; 1380 :                 throw FormatException(L"");

  00284	68 00 00 00 00	 push	 OFFSET ??_C@_1BI@BIIKHCEK@?$AA?$CK?$PP?e?$AAn?$PP?x?$AA?$AP?$AA?$AH?$PP?$JK?$AAP?$AAg?$AAY?$AA?$AC@
  00289	8d 4d d4	 lea	 ecx, DWORD PTR $T6[ebp]
  0028c	e8 00 00 00 00	 call	 ??0FormatException@Internal@Core@Math@Palmtree@@QAE@PB_W@Z ; Palmtree::Math::Core::Internal::FormatException::FormatException
  00291	68 00 00 00 00	 push	 OFFSET __TI2?AVFormatException@Internal@Core@Math@Palmtree@@
  00296	8d 45 d4	 lea	 eax, DWORD PTR $T6[ebp]
  00299	50		 push	 eax
  0029a	e8 00 00 00 00	 call	 __CxxThrowException@8
$LN131@ToString_I:
  0029f	90		 npad	 1
$LN138@ToString_I:

; 1381 :             }
; 1382 :         }
; 1383 :     }

  002a0	00 00 00 00	 DD	 $LN6@ToString_I
  002a4	00 00 00 00	 DD	 $LN7@ToString_I
  002a8	00 00 00 00	 DD	 $LN8@ToString_I
  002ac	00 00 00 00	 DD	 $LN9@ToString_I
  002b0	00 00 00 00	 DD	 $LN11@ToString_I
  002b4	00 00 00 00	 DD	 $LN12@ToString_I
  002b8	00 00 00 00	 DD	 $LN13@ToString_I
  002bc	00 00 00 00	 DD	 $LN14@ToString_I
  002c0	00 00 00 00	 DD	 $LN15@ToString_I
$LN129@ToString_I:
  002c4	00		 DB	 0
  002c5	01		 DB	 1
  002c6	02		 DB	 2
  002c7	03		 DB	 3
  002c8	01		 DB	 1
  002c9	08		 DB	 8
  002ca	08		 DB	 8
  002cb	08		 DB	 8
  002cc	08		 DB	 8
  002cd	08		 DB	 8
  002ce	08		 DB	 8
  002cf	04		 DB	 4
  002d0	08		 DB	 8
  002d1	05		 DB	 5
  002d2	08		 DB	 8
  002d3	06		 DB	 6
  002d4	08		 DB	 8
  002d5	08		 DB	 8
  002d6	08		 DB	 8
  002d7	08		 DB	 8
  002d8	08		 DB	 8
  002d9	07		 DB	 7
  002da	08		 DB	 8
  002db	08		 DB	 8
  002dc	08		 DB	 8
  002dd	08		 DB	 8
  002de	08		 DB	 8
  002df	08		 DB	 8
  002e0	08		 DB	 8
  002e1	08		 DB	 8
  002e2	08		 DB	 8
  002e3	08		 DB	 8
  002e4	00		 DB	 0
  002e5	01		 DB	 1
  002e6	02		 DB	 2
  002e7	03		 DB	 3
  002e8	01		 DB	 1
  002e9	08		 DB	 8
  002ea	08		 DB	 8
  002eb	08		 DB	 8
  002ec	08		 DB	 8
  002ed	08		 DB	 8
  002ee	08		 DB	 8
  002ef	04		 DB	 4
  002f0	08		 DB	 8
  002f1	05		 DB	 5
  002f2	08		 DB	 8
  002f3	06		 DB	 6
  002f4	08		 DB	 8
  002f5	08		 DB	 8
  002f6	08		 DB	 8
  002f7	08		 DB	 8
  002f8	08		 DB	 8
  002f9	07		 DB	 7
?ToString_Imp@Internal@Core@Math@Palmtree@@YAIDPAU__tag_NUMBER_HEADER@1234@PB_WPBU__tag_PMC_NUMBER_FORMAT_INFO@1234@PA_WI@Z ENDP ; Palmtree::Math::Core::Internal::ToString_Imp
_TEXT	ENDS
; Function compile flags: /Ogtp
; File z:\sources\lunor\repos\rougemeilland\palmtree.math.core.uint\palmtree.math.core.uint\pmc_tostring.cpp
;	COMDAT ?ParseStandardFormat@Internal@Core@Math@Palmtree@@YAHPB_WPA_WPAH@Z
_TEXT	SEGMENT
_format$ = 8						; size = 4
_format_type$ = 12					; size = 4
_precision$ = 16					; size = 4
?ParseStandardFormat@Internal@Core@Math@Palmtree@@YAHPB_WPA_WPAH@Z PROC ; Palmtree::Math::Core::Internal::ParseStandardFormat, COMDAT

; 1307 :     {

  00000	55		 push	 ebp
  00001	8b ec		 mov	 ebp, esp

; 1308 :         if (format == nullptr)

  00003	8b 55 08	 mov	 edx, DWORD PTR _format$[ebp]
  00006	85 d2		 test	 edx, edx
  00008	0f 84 e2 00 00
	00		 je	 $LN42@ParseStand

; 1309 :         {
; 1310 :             *format_type = L'D';
; 1311 :             *precision = -1;
; 1312 :             return (TRUE);
; 1313 :         }
; 1314 :         else if (format[0] == L'\0')

  0000e	0f b7 0a	 movzx	 ecx, WORD PTR [edx]
  00011	66 85 c9	 test	 cx, cx
  00014	0f 84 d6 00 00
	00		 je	 $LN42@ParseStand

; 1319 :         }
; 1320 :         else if (__IS_ALPHA(format[0]) && format[1] == L'\0')

  0001a	56		 push	 esi
  0001b	8b f1		 mov	 esi, ecx
  0001d	57		 push	 edi

; 1292 :         if (c >= L'A' && c <= L'Z')

  0001e	8d 46 bf	 lea	 eax, DWORD PTR [esi-65]
  00021	0f b7 f8	 movzx	 edi, ax
  00024	66 83 f8 19	 cmp	 ax, 25			; 00000019H
  00028	76 09		 jbe	 SHORT $LN35@ParseStand

; 1293 :             return (TRUE);
; 1294 :         if (c >= L'a' && c <= L'z')

  0002a	8d 46 9f	 lea	 eax, DWORD PTR [esi-97]
  0002d	66 83 f8 19	 cmp	 ax, 25			; 00000019H
  00031	77 1f		 ja	 SHORT $LN41@ParseStand
$LN35@ParseStand:

; 1319 :         }
; 1320 :         else if (__IS_ALPHA(format[0]) && format[1] == L'\0')

  00033	66 83 7a 02 00	 cmp	 WORD PTR [edx+2], 0
  00038	75 18		 jne	 SHORT $LN41@ParseStand

; 1321 :         {
; 1322 :             *format_type = format[0];

  0003a	8b 45 0c	 mov	 eax, DWORD PTR _format_type$[ebp]
  0003d	5f		 pop	 edi
  0003e	5e		 pop	 esi
  0003f	66 89 08	 mov	 WORD PTR [eax], cx

; 1323 :             *precision = -1;

  00042	8b 45 10	 mov	 eax, DWORD PTR _precision$[ebp]
  00045	c7 00 ff ff ff
	ff		 mov	 DWORD PTR [eax], -1

; 1330 :             return (TRUE);

  0004b	b8 01 00 00 00	 mov	 eax, 1

; 1340 :     }

  00050	5d		 pop	 ebp
  00051	c3		 ret	 0
$LN41@ParseStand:

; 1324 :             return (TRUE);
; 1325 :         }
; 1326 :         else if (__IS_ALPHA(format[0]) && __IS_DIGIT(format[1]) && format[2] == L'\0')

  00052	8b c1		 mov	 eax, ecx

; 1292 :         if (c >= L'A' && c <= L'Z')

  00054	83 ff 19	 cmp	 edi, 25			; 00000019H
  00057	76 09		 jbe	 SHORT $LN36@ParseStand

; 1293 :             return (TRUE);
; 1294 :         if (c >= L'a' && c <= L'z')

  00059	83 c0 9f	 add	 eax, -97		; ffffff9fH
  0005c	66 83 f8 19	 cmp	 ax, 25			; 00000019H
  00060	77 2f		 ja	 SHORT $LN8@ParseStand
$LN36@ParseStand:

; 1324 :             return (TRUE);
; 1325 :         }
; 1326 :         else if (__IS_ALPHA(format[0]) && __IS_DIGIT(format[1]) && format[2] == L'\0')

  00062	0f b7 42 02	 movzx	 eax, WORD PTR [edx+2]

; 1301 :         if (c >= L'0' && c <= L'9')

  00066	83 c0 d0	 add	 eax, -48		; ffffffd0H
  00069	66 83 f8 09	 cmp	 ax, 9
  0006d	77 22		 ja	 SHORT $LN8@ParseStand

; 1324 :             return (TRUE);
; 1325 :         }
; 1326 :         else if (__IS_ALPHA(format[0]) && __IS_DIGIT(format[1]) && format[2] == L'\0')

  0006f	66 83 7a 04 00	 cmp	 WORD PTR [edx+4], 0
  00074	75 1b		 jne	 SHORT $LN8@ParseStand

; 1327 :         {
; 1328 :             *format_type = format[0];

  00076	8b 45 0c	 mov	 eax, DWORD PTR _format_type$[ebp]
  00079	5f		 pop	 edi
  0007a	5e		 pop	 esi
  0007b	66 89 08	 mov	 WORD PTR [eax], cx

; 1329 :             *precision = format[1] - L'0';

  0007e	8b 45 10	 mov	 eax, DWORD PTR _precision$[ebp]
  00081	0f b7 4a 02	 movzx	 ecx, WORD PTR [edx+2]
  00085	83 e9 30	 sub	 ecx, 48			; 00000030H
  00088	89 08		 mov	 DWORD PTR [eax], ecx

; 1330 :             return (TRUE);

  0008a	b8 01 00 00 00	 mov	 eax, 1

; 1340 :     }

  0008f	5d		 pop	 ebp
  00090	c3		 ret	 0
$LN8@ParseStand:

; 1331 :         }
; 1332 :         else if (__IS_ALPHA(format[0]) && __IS_DIGIT(format[1]) && __IS_DIGIT(format[2]) && format[3] == L'\0')

  00091	8b c1		 mov	 eax, ecx

; 1292 :         if (c >= L'A' && c <= L'Z')

  00093	83 ff 19	 cmp	 edi, 25			; 00000019H
  00096	76 09		 jbe	 SHORT $LN38@ParseStand

; 1293 :             return (TRUE);
; 1294 :         if (c >= L'a' && c <= L'z')

  00098	83 c0 9f	 add	 eax, -97		; ffffff9fH
  0009b	66 83 f8 19	 cmp	 ax, 25			; 00000019H
  0009f	77 49		 ja	 SHORT $LN10@ParseStand
$LN38@ParseStand:

; 1331 :         }
; 1332 :         else if (__IS_ALPHA(format[0]) && __IS_DIGIT(format[1]) && __IS_DIGIT(format[2]) && format[3] == L'\0')

  000a1	0f b7 42 02	 movzx	 eax, WORD PTR [edx+2]

; 1301 :         if (c >= L'0' && c <= L'9')

  000a5	83 c0 d0	 add	 eax, -48		; ffffffd0H
  000a8	66 83 f8 09	 cmp	 ax, 9
  000ac	77 3c		 ja	 SHORT $LN10@ParseStand

; 1331 :         }
; 1332 :         else if (__IS_ALPHA(format[0]) && __IS_DIGIT(format[1]) && __IS_DIGIT(format[2]) && format[3] == L'\0')

  000ae	0f b7 42 04	 movzx	 eax, WORD PTR [edx+4]

; 1301 :         if (c >= L'0' && c <= L'9')

  000b2	83 c0 d0	 add	 eax, -48		; ffffffd0H
  000b5	66 83 f8 09	 cmp	 ax, 9
  000b9	77 2f		 ja	 SHORT $LN10@ParseStand

; 1331 :         }
; 1332 :         else if (__IS_ALPHA(format[0]) && __IS_DIGIT(format[1]) && __IS_DIGIT(format[2]) && format[3] == L'\0')

  000bb	66 83 7a 06 00	 cmp	 WORD PTR [edx+6], 0
  000c0	75 28		 jne	 SHORT $LN10@ParseStand

; 1333 :         {
; 1334 :             *format_type = format[0];

  000c2	8b 45 0c	 mov	 eax, DWORD PTR _format_type$[ebp]
  000c5	5f		 pop	 edi
  000c6	5e		 pop	 esi
  000c7	66 89 08	 mov	 WORD PTR [eax], cx

; 1335 :             *precision = (format[1] - L'0') * 10 + (format[2] - L'0');

  000ca	0f b7 42 02	 movzx	 eax, WORD PTR [edx+2]
  000ce	8d 0c 80	 lea	 ecx, DWORD PTR [eax+eax*4]
  000d1	0f b7 42 04	 movzx	 eax, WORD PTR [edx+4]
  000d5	8d 89 f8 fe ff
	ff		 lea	 ecx, DWORD PTR [ecx-264]
  000db	8d 0c 48	 lea	 ecx, DWORD PTR [eax+ecx*2]
  000de	8b 45 10	 mov	 eax, DWORD PTR _precision$[ebp]
  000e1	89 08		 mov	 DWORD PTR [eax], ecx
  000e3	b8 01 00 00 00	 mov	 eax, 1

; 1340 :     }

  000e8	5d		 pop	 ebp
  000e9	c3		 ret	 0
$LN10@ParseStand:
  000ea	5f		 pop	 edi

; 1336 :             return (TRUE);
; 1337 :         }
; 1338 :         else
; 1339 :             return (FALSE);

  000eb	33 c0		 xor	 eax, eax
  000ed	5e		 pop	 esi

; 1340 :     }

  000ee	5d		 pop	 ebp
  000ef	c3		 ret	 0
$LN42@ParseStand:

; 1315 :         {
; 1316 :             *format_type = L'D';

  000f0	8b 45 0c	 mov	 eax, DWORD PTR _format_type$[ebp]
  000f3	b9 44 00 00 00	 mov	 ecx, 68			; 00000044H
  000f8	66 89 08	 mov	 WORD PTR [eax], cx

; 1317 :             *precision = -1;

  000fb	8b 45 10	 mov	 eax, DWORD PTR _precision$[ebp]
  000fe	c7 00 ff ff ff
	ff		 mov	 DWORD PTR [eax], -1

; 1318 :             return (TRUE);

  00104	8d 41 bd	 lea	 eax, DWORD PTR [ecx-67]

; 1340 :     }

  00107	5d		 pop	 ebp
  00108	c3		 ret	 0
?ParseStandardFormat@Internal@Core@Math@Palmtree@@YAHPB_WPA_WPAH@Z ENDP ; Palmtree::Math::Core::Internal::ParseStandardFormat
_TEXT	ENDS
; Function compile flags: /Ogtp
; File z:\sources\lunor\repos\rougemeilland\palmtree.math.core.uint\palmtree.math.core.uint\pmc_tostring.cpp
;	COMDAT ?__IS_DIGIT@Internal@Core@Math@Palmtree@@YAH_W@Z
_TEXT	SEGMENT
_c$ = 8							; size = 2
?__IS_DIGIT@Internal@Core@Math@Palmtree@@YAH_W@Z PROC	; Palmtree::Math::Core::Internal::__IS_DIGIT, COMDAT

; 1300 :     {

  00000	55		 push	 ebp
  00001	8b ec		 mov	 ebp, esp

; 1301 :         if (c >= L'0' && c <= L'9')

  00003	8b 45 08	 mov	 eax, DWORD PTR _c$[ebp]
  00006	66 b9 09 00	 mov	 cx, 9
  0000a	83 c0 d0	 add	 eax, -48		; ffffffd0H
  0000d	66 3b c8	 cmp	 cx, ax
  00010	1b c0		 sbb	 eax, eax
  00012	40		 inc	 eax

; 1302 :             return (TRUE);
; 1303 :         return (FALSE);
; 1304 :     }

  00013	5d		 pop	 ebp
  00014	c3		 ret	 0
?__IS_DIGIT@Internal@Core@Math@Palmtree@@YAH_W@Z ENDP	; Palmtree::Math::Core::Internal::__IS_DIGIT
_TEXT	ENDS
; Function compile flags: /Ogtp
; File z:\sources\lunor\repos\rougemeilland\palmtree.math.core.uint\palmtree.math.core.uint\pmc_tostring.cpp
;	COMDAT ?__IS_ALPHA@Internal@Core@Math@Palmtree@@YAH_W@Z
_TEXT	SEGMENT
_c$ = 8							; size = 2
?__IS_ALPHA@Internal@Core@Math@Palmtree@@YAH_W@Z PROC	; Palmtree::Math::Core::Internal::__IS_ALPHA, COMDAT

; 1291 :     {

  00000	55		 push	 ebp
  00001	8b ec		 mov	 ebp, esp

; 1292 :         if (c >= L'A' && c <= L'Z')

  00003	8b 4d 08	 mov	 ecx, DWORD PTR _c$[ebp]
  00006	8d 41 bf	 lea	 eax, DWORD PTR [ecx-65]
  00009	66 83 f8 19	 cmp	 ax, 25			; 00000019H
  0000d	76 0d		 jbe	 SHORT $LN5@IS_ALPHA

; 1293 :             return (TRUE);
; 1294 :         if (c >= L'a' && c <= L'z')

  0000f	8d 41 9f	 lea	 eax, DWORD PTR [ecx-97]
  00012	66 83 f8 19	 cmp	 ax, 25			; 00000019H
  00016	76 04		 jbe	 SHORT $LN5@IS_ALPHA

; 1296 :         return (FALSE);

  00018	33 c0		 xor	 eax, eax

; 1297 :     }

  0001a	5d		 pop	 ebp
  0001b	c3		 ret	 0
$LN5@IS_ALPHA:

; 1295 :             return (TRUE);

  0001c	b8 01 00 00 00	 mov	 eax, 1

; 1297 :     }

  00021	5d		 pop	 ebp
  00022	c3		 ret	 0
?__IS_ALPHA@Internal@Core@Math@Palmtree@@YAH_W@Z ENDP	; Palmtree::Math::Core::Internal::__IS_ALPHA
_TEXT	ENDS
; Function compile flags: /Ogtp
; File z:\sources\lunor\repos\rougemeilland\palmtree.math.core.uint\palmtree.math.core.uint\pmc_tostring.cpp
;	COMDAT ?ToStringCustom@CustomFormatter@Internal@Core@Math@Palmtree@@YAIDPAU__tag_NUMBER_HEADER@2345@PB_WPBU__tag_PMC_NUMBER_FORMAT_INFO@2345@PA_WI@Z
_TEXT	SEGMENT
$T1 = -24						; size = 24
_x_sign$ = 8						; size = 1
_x_abs$ = 12						; size = 4
_format$ = 16						; size = 4
_format_option$ = 20					; size = 4
_buffer$ = 24						; size = 4
_buffer_size$ = 28					; size = 4
?ToStringCustom@CustomFormatter@Internal@Core@Math@Palmtree@@YAIDPAU__tag_NUMBER_HEADER@2345@PB_WPBU__tag_PMC_NUMBER_FORMAT_INFO@2345@PA_WI@Z PROC ; Palmtree::Math::Core::Internal::CustomFormatter::ToStringCustom, COMDAT

; 1267 :         {

  00000	55		 push	 ebp
  00001	8b ec		 mov	 ebp, esp
  00003	83 ec 18	 sub	 esp, 24			; 00000018H

; 1268 :             // 
; 1269 :             // %%2100*100%100*1000%(-1.23456789).ToString("0%0") => -12%3 
; 1270 :             // '#', '0', '.', ',''#', '0'
; 1271 :             // 1
; 1272 :             // 1
; 1273 :             // '.'',' '0', '#'  ',' 
; 1274 :             // '0''#''0'
; 1275 :             // '0''#''0'
; 1276 :             // '.' '0' '#''#' 
; 1277 :             //  '#', '0''+'
; 1278 :             // EE(+-)
; 1279 :             // (1.23456789).ToString("0.0E+#0  000") => 1.2E+34  568
; 1280 :             // E
; 1281 :             // (-0.0123456789).ToString("0.0E+0  000") => -1.2E-2  346
; 1282 :             // '.' (-0.0123456789).ToString("0.0 00.00") => -0.0 1235
; 1283 :             // ';'
; 1284 : 
; 1285 :             throw NotSupportedException(L"ToString");

  00006	8d 4d e8	 lea	 ecx, DWORD PTR $T1[ebp]
  00009	68 00 00 00 00	 push	 OFFSET ??_C@_1DO@MFGCBHKN@?$PP?$KL?$PP?$LJ?$PP?$LP?$PP?$OA?$PP?x?$AA?$AP?$AAk?$PP?$II?$PP?$IL?$AAT?$AAo?$AAS?$AAt?$AAr?$AAi@
  0000e	e8 00 00 00 00	 call	 ??0NotSupportedException@Internal@Core@Math@Palmtree@@QAE@PB_W@Z ; Palmtree::Math::Core::Internal::NotSupportedException::NotSupportedException
  00013	68 00 00 00 00	 push	 OFFSET __TI2?AVNotSupportedException@Internal@Core@Math@Palmtree@@
  00018	8d 45 e8	 lea	 eax, DWORD PTR $T1[ebp]
  0001b	50		 push	 eax
  0001c	e8 00 00 00 00	 call	 __CxxThrowException@8
$LN3@ToStringCu:
  00021	cc		 int	 3
?ToStringCustom@CustomFormatter@Internal@Core@Math@Palmtree@@YAIDPAU__tag_NUMBER_HEADER@2345@PB_WPBU__tag_PMC_NUMBER_FORMAT_INFO@2345@PA_WI@Z ENDP ; Palmtree::Math::Core::Internal::CustomFormatter::ToStringCustom
_TEXT	ENDS
; Function compile flags: /Ogtp
; File z:\sources\lunor\repos\rougemeilland\palmtree.math.core.uint\palmtree.math.core.uint\pmc_tostring.cpp
; File z:\sources\lunor\repos\rougemeilland\palmtree.math.core.uint\palmtree.math.core.uint\pmc_stringio.h
; File z:\sources\lunor\repos\rougemeilland\palmtree.math.core.uint\palmtree.math.core.uint\pmc_tostring.cpp
; File z:\sources\lunor\repos\rougemeilland\palmtree.math.core.uint\palmtree.math.core.uint\pmc_stringio.h
; File z:\sources\lunor\repos\rougemeilland\palmtree.math.core.uint\palmtree.math.core.uint\pmc_tostring.cpp
; File z:\sources\lunor\repos\rougemeilland\palmtree.math.core.uint\palmtree.math.core.uint\pmc_stringio.h
; File z:\sources\lunor\repos\rougemeilland\palmtree.math.core.uint\palmtree.math.core.uint\pmc_tostring.cpp
; File z:\sources\lunor\repos\rougemeilland\palmtree.math.core.uint\palmtree.math.core.uint\pmc_stringio.h
; File z:\sources\lunor\repos\rougemeilland\palmtree.math.core.uint\palmtree.math.core.uint\pmc_tostring.cpp
; File z:\sources\lunor\repos\rougemeilland\palmtree.math.core.uint\palmtree.math.core.uint\pmc_inline_func.h
; File z:\sources\lunor\repos\rougemeilland\palmtree.math.core.uint\palmtree.math.core.uint\pmc_tostring.cpp
; File z:\sources\lunor\repos\rougemeilland\palmtree.math.core.uint\palmtree.math.core.uint\pmc_inline_func.h
; File z:\sources\lunor\repos\rougemeilland\palmtree.math.core.uint\palmtree.math.core.uint\pmc_tostring.cpp
; File z:\sources\lunor\repos\rougemeilland\palmtree.math.core.uint\palmtree.math.core.uint\pmc_inline_func.h
; File z:\sources\lunor\repos\rougemeilland\palmtree.math.core.uint\palmtree.math.core.uint\pmc_tostring.cpp
; File z:\sources\lunor\repos\rougemeilland\palmtree.math.core.uint\palmtree.math.core.uint\pmc_inline_func.h
; File z:\sources\lunor\repos\rougemeilland\palmtree.math.core.uint\palmtree.math.core.uint\pmc_tostring.cpp
; File z:\sources\lunor\repos\rougemeilland\palmtree.math.core.uint\palmtree.math.core.uint\pmc_stringio.h
; File z:\sources\lunor\repos\rougemeilland\palmtree.math.core.uint\palmtree.math.core.uint\pmc_tostring.cpp
; File z:\sources\lunor\repos\rougemeilland\palmtree.math.core.uint\palmtree.math.core.uint\pmc_stringio.h
; File z:\sources\lunor\repos\rougemeilland\palmtree.math.core.uint\palmtree.math.core.uint\pmc_tostring.cpp
;	COMDAT ?ToStringX@HexaDecimalFormatter@Internal@Core@Math@Palmtree@@YAIDPAU__tag_NUMBER_HEADER@2345@_WHPBU__tag_PMC_NUMBER_FORMAT_INFO@2345@PA_WI@Z
_TEXT	SEGMENT
_writer$ = -52						; size = 20
_root$2 = -32						; size = 16
_count$1$ = -16						; size = 4
__$EHRec$ = -12						; size = 12
_x_sign$ = 8						; size = 1
tv679 = 12						; size = 4
_x_abs$ = 12						; size = 4
_format_type$ = 16					; size = 2
_leading_zero_digit_count$1$ = 20			; size = 4
_temp_buf_bit_count$1$ = 20				; size = 4
_precision$ = 20					; size = 4
_format_option$ = 24					; size = 4
_buffer$ = 28						; size = 4
_buffer_size$ = 32					; size = 4
?ToStringX@HexaDecimalFormatter@Internal@Core@Math@Palmtree@@YAIDPAU__tag_NUMBER_HEADER@2345@_WHPBU__tag_PMC_NUMBER_FORMAT_INFO@2345@PA_WI@Z PROC ; Palmtree::Math::Core::Internal::HexaDecimalFormatter::ToStringX, COMDAT

; 1136 :         {

  00000	55		 push	 ebp
  00001	8b ec		 mov	 ebp, esp
  00003	6a ff		 push	 -1
  00005	68 00 00 00 00	 push	 __ehhandler$?ToStringX@HexaDecimalFormatter@Internal@Core@Math@Palmtree@@YAIDPAU__tag_NUMBER_HEADER@2345@_WHPBU__tag_PMC_NUMBER_FORMAT_INFO@2345@PA_WI@Z
  0000a	64 a1 00 00 00
	00		 mov	 eax, DWORD PTR fs:0
  00010	50		 push	 eax
  00011	83 ec 28	 sub	 esp, 40			; 00000028H
  00014	53		 push	 ebx
  00015	56		 push	 esi
  00016	57		 push	 edi
  00017	a1 00 00 00 00	 mov	 eax, DWORD PTR ___security_cookie
  0001c	33 c5		 xor	 eax, ebp
  0001e	50		 push	 eax
  0001f	8d 45 f4	 lea	 eax, DWORD PTR __$EHRec$[ebp]
  00022	64 a3 00 00 00
	00		 mov	 DWORD PTR fs:0, eax
; File z:\sources\lunor\repos\rougemeilland\palmtree.math.core.uint\palmtree.math.core.uint\pmc_stringio.h

; 209  :             : StringWriter(buffer, buffer, buffer != nullptr ? buffer + size : nullptr)

  00028	8b 4d 1c	 mov	 ecx, DWORD PTR _buffer$[ebp]
  0002b	bb 01 00 00 00	 mov	 ebx, 1
  00030	39 5d 14	 cmp	 DWORD PTR _precision$[ebp], ebx
  00033	0f 4d 5d 14	 cmovge	 ebx, DWORD PTR _precision$[ebp]
  00037	89 5d f0	 mov	 DWORD PTR _count$1$[ebp], ebx
  0003a	85 c9		 test	 ecx, ecx
  0003c	74 08		 je	 SHORT $LN31@ToStringX
  0003e	8b 45 20	 mov	 eax, DWORD PTR _buffer_size$[ebp]
  00041	8d 04 41	 lea	 eax, DWORD PTR [ecx+eax*2]
  00044	eb 02		 jmp	 SHORT $LN32@ToStringX
$LN31@ToStringX:
  00046	33 c0		 xor	 eax, eax
$LN32@ToStringX:
; File z:\sources\lunor\repos\rougemeilland\palmtree.math.core.uint\palmtree.math.core.uint\pmc_tostring.cpp

; 1141 :             if (x_abs->IS_ZERO)

  00048	8b 75 0c	 mov	 esi, DWORD PTR _x_abs$[ebp]
; File z:\sources\lunor\repos\rougemeilland\palmtree.math.core.uint\palmtree.math.core.uint\pmc_stringio.h

; 201  :             _p = p;

  0004b	89 4d d0	 mov	 DWORD PTR _writer$[ebp+4], ecx

; 202  :             _sob = sob;

  0004e	89 4d d4	 mov	 DWORD PTR _writer$[ebp+8], ecx

; 204  :             _written = 0;

  00051	33 c9		 xor	 ecx, ecx
  00053	89 45 d8	 mov	 DWORD PTR _writer$[ebp+12], eax

; 210  :         {

  00056	b8 00 00 00 00	 mov	 eax, OFFSET ??_7StringWriter@Internal@Core@Math@Palmtree@@6B@
; File z:\sources\lunor\repos\rougemeilland\palmtree.math.core.uint\palmtree.math.core.uint\pmc_tostring.cpp

; 1141 :             if (x_abs->IS_ZERO)

  0005b	f6 46 04 01	 test	 BYTE PTR [esi+4], 1
; File z:\sources\lunor\repos\rougemeilland\palmtree.math.core.uint\palmtree.math.core.uint\pmc_stringio.h

; 204  :             _written = 0;

  0005f	89 4d dc	 mov	 DWORD PTR _writer$[ebp+16], ecx

; 210  :         {

  00062	89 45 cc	 mov	 DWORD PTR _writer$[ebp], eax
; File z:\sources\lunor\repos\rougemeilland\palmtree.math.core.uint\palmtree.math.core.uint\pmc_tostring.cpp

; 1141 :             if (x_abs->IS_ZERO)

  00065	74 32		 je	 SHORT $LN11@ToStringX
; File z:\sources\lunor\repos\rougemeilland\palmtree.math.core.uint\palmtree.math.core.uint\pmc_stringio.h

; 227  :             while (count > 0)

  00067	85 db		 test	 ebx, ebx
  00069	74 1a		 je	 SHORT $LN37@ToStringX
  0006b	0f 1f 44 00 00	 npad	 5
$LL36@ToStringX:

; 228  :             {
; 229  :                 Write(c);

  00070	6a 30		 push	 48			; 00000030H
  00072	8d 4d cc	 lea	 ecx, DWORD PTR _writer$[ebp]
  00075	ff 50 04	 call	 DWORD PTR [eax+4]

; 230  :                 --count;

  00078	83 eb 01	 sub	 ebx, 1
  0007b	74 05		 je	 SHORT $LN95@ToStringX

; 227  :             while (count > 0)

  0007d	8b 45 cc	 mov	 eax, DWORD PTR _writer$[ebp]
  00080	eb ee		 jmp	 SHORT $LL36@ToStringX
$LN95@ToStringX:
  00082	8b 4d dc	 mov	 ecx, DWORD PTR _writer$[ebp+16]
$LN37@ToStringX:
; File z:\sources\lunor\repos\rougemeilland\palmtree.math.core.uint\palmtree.math.core.uint\pmc_tostring.cpp

; 1147 :                 return (writer.GetLength());

  00085	8b c1		 mov	 eax, ecx

; 1259 :             }
; 1260 :         }

  00087	8b 4d f4	 mov	 ecx, DWORD PTR __$EHRec$[ebp]
  0008a	64 89 0d 00 00
	00 00		 mov	 DWORD PTR fs:0, ecx
  00091	59		 pop	 ecx
  00092	5f		 pop	 edi
  00093	5e		 pop	 esi
  00094	5b		 pop	 ebx
  00095	8b e5		 mov	 esp, ebp
  00097	5d		 pop	 ebp
  00098	c3		 ret	 0
$LN11@ToStringX:

; 1148 :             }
; 1149 :             else
; 1150 :             {
; 1151 :                 // x != 0 
; 1152 :                 ResourceHolderUINT root;

  00099	8d 4d e0	 lea	 ecx, DWORD PTR _root$2[ebp]
  0009c	e8 00 00 00 00	 call	 ??0ResourceHolderUINT@Internal@Core@Math@Palmtree@@QAE@XZ ; Palmtree::Math::Core::Internal::ResourceHolderUINT::ResourceHolderUINT
  000a1	c7 45 fc 00 00
	00 00		 mov	 DWORD PTR __$EHRec$[ebp+8], 0

; 1153 :                 __UNIT_TYPE temp_buf_bit_count = x_abs->UNIT_BIT_COUNT + 4;
; 1154 :                 __UNIT_TYPE* temp_buf = root.AllocateBlock(temp_buf_bit_count);

  000a8	8d 4d e0	 lea	 ecx, DWORD PTR _root$2[ebp]
  000ab	8b 46 14	 mov	 eax, DWORD PTR [esi+20]
  000ae	83 c0 04	 add	 eax, 4
  000b1	50		 push	 eax
  000b2	89 45 14	 mov	 DWORD PTR _temp_buf_bit_count$1$[ebp], eax
  000b5	e8 00 00 00 00	 call	 ?AllocateBlock@ResourceHolderUINT@Internal@Core@Math@Palmtree@@QAEPAII@Z ; Palmtree::Math::Core::Internal::ResourceHolderUINT::AllocateBlock

; 1155 :                 __UNIT_TYPE output_len;
; 1156 :                 wchar_t filling_char;
; 1157 :                 if (x_sign >= 0)

  000ba	80 7d 08 00	 cmp	 BYTE PTR _x_sign$[ebp], 0
  000be	8b d8		 mov	 ebx, eax
  000c0	7c 60		 jl	 SHORT $LN13@ToStringX
; File z:\sources\lunor\repos\rougemeilland\palmtree.math.core.uint\palmtree.math.core.uint\pmc_inline_func.h

; 65   :             __movsd((unsigned long *)d, (unsigned long *)s, (unsigned long)count);

  000c2	8b 4d 0c	 mov	 ecx, DWORD PTR _x_abs$[ebp]
  000c5	8b fb		 mov	 edi, ebx

; 157  :             return ((u + v - 1) / v);

  000c7	8b 45 14	 mov	 eax, DWORD PTR _temp_buf_bit_count$1$[ebp]

; 65   :             __movsd((unsigned long *)d, (unsigned long *)s, (unsigned long)count);

  000ca	8b 76 24	 mov	 esi, DWORD PTR [esi+36]

; 157  :             return ((u + v - 1) / v);

  000cd	83 c0 1f	 add	 eax, 31			; 0000001fH
  000d0	c1 e8 05	 shr	 eax, 5

; 65   :             __movsd((unsigned long *)d, (unsigned long *)s, (unsigned long)count);

  000d3	8b 49 10	 mov	 ecx, DWORD PTR [ecx+16]
  000d6	f3 a5		 rep movsd
; File z:\sources\lunor\repos\rougemeilland\palmtree.math.core.uint\palmtree.math.core.uint\pmc_tostring.cpp

; 1164 :                     unsigned char* ptr = (unsigned char*)&temp_buf[temp_buf_word_count] - 1;

  000d8	8d 3c 85 ff ff
	ff ff		 lea	 edi, DWORD PTR [eax*4-1]
  000df	03 fb		 add	 edi, ebx
  000e1	8d 34 c5 00 00
	00 00		 lea	 esi, DWORD PTR [eax*8]

; 1165 :                     while (ptr >= (unsigned char*)temp_buf)

  000e8	3b fb		 cmp	 edi, ebx
  000ea	72 2c		 jb	 SHORT $LN63@ToStringX
  000ec	8a 0f		 mov	 cl, BYTE PTR [edi]
  000ee	8d 57 ff	 lea	 edx, DWORD PTR [edi-1]
$LL2@ToStringX:

; 1166 :                     {
; 1167 :                         if ((ptr[0] >> 4) != 0 || (ptr[0] & 0xf) >= 0x8)

  000f1	f6 c1 f0	 test	 cl, 240			; 000000f0H
  000f4	75 22		 jne	 SHORT $LN63@ToStringX
  000f6	8a c1		 mov	 al, cl
  000f8	24 0f		 and	 al, 15			; 0000000fH
  000fa	3c 08		 cmp	 al, 8
  000fc	73 1a		 jae	 SHORT $LN63@ToStringX

; 1168 :                             break;
; 1169 :                         //  '0'  '0''7'
; 1170 :                         //  '0' 
; 1171 :                         --output_len;

  000fe	4e		 dec	 esi

; 1172 : 
; 1173 :                         if (&ptr[-1] < (unsigned char*)temp_buf)

  000ff	3b d3		 cmp	 edx, ebx
  00101	72 15		 jb	 SHORT $LN63@ToStringX

; 1174 :                             break;
; 1175 : 
; 1176 :                         if (ptr[0] != 0 || (ptr[-1] >> 4) >= 0x8)

  00103	84 c9		 test	 cl, cl
  00105	75 11		 jne	 SHORT $LN63@ToStringX
  00107	8a 0a		 mov	 cl, BYTE PTR [edx]
  00109	8a c1		 mov	 al, cl
  0010b	24 f0		 and	 al, 240			; 000000f0H
  0010d	3c 80		 cmp	 al, 128			; 00000080H
  0010f	73 07		 jae	 SHORT $LN63@ToStringX

; 1177 :                             break;
; 1178 :                         //  '0'  '0''7'
; 1179 :                         //  '0' 
; 1180 :                         --output_len;
; 1181 : 
; 1182 :                         --ptr;

  00111	4f		 dec	 edi
  00112	4e		 dec	 esi
  00113	4a		 dec	 edx
  00114	3b fb		 cmp	 edi, ebx
  00116	73 d9		 jae	 SHORT $LL2@ToStringX
$LN63@ToStringX:

; 1183 :                     }
; 1184 :                     filling_char = L'0';

  00118	bf 30 00 00 00	 mov	 edi, 48			; 00000030H

; 1185 :                 }
; 1186 :                 else

  0011d	e9 8a 00 00 00	 jmp	 $LN14@ToStringX
$LN13@ToStringX:

; 1187 :                 {
; 1188 :                     // x < 0 
; 1189 : 
; 1190 :                     __UNIT_TYPE *in_ptr = x_abs->BLOCK;
; 1191 :                     __UNIT_TYPE *out_ptr = temp_buf;
; 1192 :                     __UNIT_TYPE count = x_abs->UNIT_WORD_COUNT;

  00122	8b 4e 10	 mov	 ecx, DWORD PTR [esi+16]

; 1193 :                     char carry = 1;

  00125	b2 01		 mov	 dl, 1
  00127	8b 7e 24	 mov	 edi, DWORD PTR [esi+36]

; 1194 :                     while (count > 0)

  0012a	85 c9		 test	 ecx, ecx
  0012c	74 23		 je	 SHORT $LN5@ToStringX
  0012e	8b f3		 mov	 esi, ebx
$LL4@ToStringX:

; 1195 :                     {
; 1196 :                         carry = _ADD_UNIT(carry, ~*in_ptr, 0, out_ptr);

  00130	8b 07		 mov	 eax, DWORD PTR [edi]

; 1197 :                         ++in_ptr;

  00132	8d 7f 04	 lea	 edi, DWORD PTR [edi+4]
; File z:\sources\lunor\repos\rougemeilland\palmtree.math.core.uint\palmtree.math.core.uint\pmc_inline_func.h

; 178  :             return (_addcarry_u32(carry, u, v, w));

  00135	80 c2 ff	 add	 dl, 255			; 000000ffH
; File z:\sources\lunor\repos\rougemeilland\palmtree.math.core.uint\palmtree.math.core.uint\pmc_tostring.cpp

; 1198 :                         ++out_ptr;

  00138	8d 76 04	 lea	 esi, DWORD PTR [esi+4]
  0013b	f7 d0		 not	 eax
; File z:\sources\lunor\repos\rougemeilland\palmtree.math.core.uint\palmtree.math.core.uint\pmc_inline_func.h

; 178  :             return (_addcarry_u32(carry, u, v, w));

  0013d	83 d0 00	 adc	 eax, 0
  00140	89 46 fc	 mov	 DWORD PTR [esi-4], eax
  00143	0f 92 c2	 setb	 dl
; File z:\sources\lunor\repos\rougemeilland\palmtree.math.core.uint\palmtree.math.core.uint\pmc_tostring.cpp

; 1199 :                         --count;

  00146	83 e9 01	 sub	 ecx, 1
  00149	75 e5		 jne	 SHORT $LL4@ToStringX
  0014b	8b 75 0c	 mov	 esi, DWORD PTR _x_abs$[ebp]
  0014e	8b 4e 10	 mov	 ecx, DWORD PTR [esi+16]
$LN5@ToStringX:

; 1200 :                     }
; 1201 :                     output_len = x_abs->UNIT_WORD_COUNT * (__UNIT_TYPE_BIT_COUNT / 4);
; 1202 :                     unsigned char* ptr = (unsigned char*)&temp_buf[x_abs->UNIT_WORD_COUNT] - 1;

  00151	8d 53 ff	 lea	 edx, DWORD PTR [ebx-1]
  00154	8d 14 8a	 lea	 edx, DWORD PTR [edx+ecx*4]
  00157	8d 34 cd 00 00
	00 00		 lea	 esi, DWORD PTR [ecx*8]

; 1203 :                     while (ptr >= (unsigned char*)temp_buf)

  0015e	3b d3		 cmp	 edx, ebx
  00160	72 35		 jb	 SHORT $LN66@ToStringX
  00162	8a 0a		 mov	 cl, BYTE PTR [edx]
  00164	8d 7a ff	 lea	 edi, DWORD PTR [edx-1]
$LL6@ToStringX:

; 1204 :                     {
; 1205 :                         if ((ptr[0] >> 4) != 0xf || (ptr[0] & 0xf) < 0x8)

  00167	8a c1		 mov	 al, cl
  00169	24 f0		 and	 al, 240			; 000000f0H
  0016b	3c f0		 cmp	 al, 240			; 000000f0H
  0016d	75 28		 jne	 SHORT $LN66@ToStringX
  0016f	80 e1 0f	 and	 cl, 15			; 0000000fH
  00172	80 f9 08	 cmp	 cl, 8
  00175	72 20		 jb	 SHORT $LN66@ToStringX

; 1206 :                             break;
; 1207 :                         //  'F'  '8''F'
; 1208 :                         //  'F' 
; 1209 :                         *ptr &= 0x0f;
; 1210 :                         --output_len;

  00177	4e		 dec	 esi
  00178	88 0a		 mov	 BYTE PTR [edx], cl

; 1211 : 
; 1212 :                         if (&ptr[-1] < (unsigned char*)temp_buf)

  0017a	3b fb		 cmp	 edi, ebx
  0017c	72 19		 jb	 SHORT $LN66@ToStringX

; 1213 :                             break;
; 1214 : 
; 1215 :                         if (ptr[0] == 0xf || (ptr[-1] >> 4) < 0x8)

  0017e	80 f9 0f	 cmp	 cl, 15			; 0000000fH
  00181	74 14		 je	 SHORT $LN66@ToStringX
  00183	8a 0f		 mov	 cl, BYTE PTR [edi]
  00185	8a c1		 mov	 al, cl
  00187	24 f0		 and	 al, 240			; 000000f0H
  00189	3c 80		 cmp	 al, 128			; 00000080H
  0018b	72 0a		 jb	 SHORT $LN66@ToStringX

; 1216 :                             break;
; 1217 :                         //  'F'  '8''F'
; 1218 :                         //  'F' 
; 1219 :                         *ptr = 0;

  0018d	c6 02 00	 mov	 BYTE PTR [edx], 0

; 1220 :                         --output_len;

  00190	4e		 dec	 esi

; 1221 : 
; 1222 :                         --ptr;

  00191	4a		 dec	 edx
  00192	4f		 dec	 edi
  00193	3b d3		 cmp	 edx, ebx
  00195	73 d0		 jae	 SHORT $LL6@ToStringX
$LN66@ToStringX:

; 1223 :                     }
; 1224 :                     filling_char = format_type == L'X' ? L'F' : L'f';

  00197	66 83 7d 10 58	 cmp	 WORD PTR _format_type$[ebp], 88 ; 00000058H
  0019c	b8 66 00 00 00	 mov	 eax, 102		; 00000066H
  001a1	b9 46 00 00 00	 mov	 ecx, 70			; 00000046H
  001a6	0f 44 c1	 cmove	 eax, ecx
  001a9	0f b7 f8	 movzx	 edi, ax
$LN14@ToStringX:

; 1225 :                 }
; 1226 :                 root.CheckBlock(temp_buf);

  001ac	53		 push	 ebx
  001ad	8d 4d e0	 lea	 ecx, DWORD PTR _root$2[ebp]
  001b0	e8 00 00 00 00	 call	 ?CheckBlock@ResourceHolderUINT@Internal@Core@Math@Palmtree@@QAEXPAI@Z ; Palmtree::Math::Core::Internal::ResourceHolderUINT::CheckBlock
; File z:\sources\lunor\repos\rougemeilland\palmtree.math.core.uint\palmtree.math.core.uint\pmc_inline_func.h

; 157  :             return ((u + v - 1) / v);

  001b5	8d 46 07	 lea	 eax, DWORD PTR [esi+7]
  001b8	c1 e8 03	 shr	 eax, 3
  001bb	89 45 0c	 mov	 DWORD PTR tv679[ebp], eax
; File z:\sources\lunor\repos\rougemeilland\palmtree.math.core.uint\palmtree.math.core.uint\pmc_tostring.cpp

; 1232 :                 unsigned int leading_zero_digit_count = (unsigned int)(_DIVIDE_CEILING_UNIT(output_len, __UNIT_TYPE_BIT_COUNT / 4) * (__UNIT_TYPE_BIT_COUNT / 4) - output_len);

  001be	c1 e0 03	 shl	 eax, 3
  001c1	2b c6		 sub	 eax, esi
  001c3	89 45 14	 mov	 DWORD PTR _leading_zero_digit_count$1$[ebp], eax

; 1233 : 
; 1234 : 
; 1235 :                 __UNIT_TYPE filling_digit_len; // 
; 1236 :                 __UNIT_TYPE total_length; // 
; 1237 :                 if (output_len < (__UNIT_TYPE)precision)
; 1238 :                 {
; 1239 :                     filling_digit_len = precision - output_len;
; 1240 :                     total_length = precision;
; 1241 :                 }
; 1242 :                 else
; 1243 :                 {
; 1244 :                     filling_digit_len = 0;
; 1245 :                     total_length = output_len;
; 1246 :                 }
; 1247 :                 writer.Write(filling_char, filling_digit_len);

  001c6	8b 45 f0	 mov	 eax, DWORD PTR _count$1$[ebp]
  001c9	2b c6		 sub	 eax, esi
  001cb	3b 75 f0	 cmp	 esi, DWORD PTR _count$1$[ebp]
  001ce	1b f6		 sbb	 esi, esi
  001d0	23 f0		 and	 esi, eax
; File z:\sources\lunor\repos\rougemeilland\palmtree.math.core.uint\palmtree.math.core.uint\pmc_stringio.h

; 227  :             while (count > 0)

  001d2	76 0f		 jbe	 SHORT $LN51@ToStringX
$LL50@ToStringX:

; 228  :             {
; 229  :                 Write(c);

  001d4	8b 45 cc	 mov	 eax, DWORD PTR _writer$[ebp]
  001d7	8d 4d cc	 lea	 ecx, DWORD PTR _writer$[ebp]
  001da	57		 push	 edi
  001db	ff 50 04	 call	 DWORD PTR [eax+4]

; 230  :                 --count;

  001de	83 ee 01	 sub	 esi, 1
  001e1	75 f1		 jne	 SHORT $LL50@ToStringX
$LN51@ToStringX:
; File z:\sources\lunor\repos\rougemeilland\palmtree.math.core.uint\palmtree.math.core.uint\pmc_tostring.cpp

; 1249 :                 __UNIT_TYPE* s_ptr = &temp_buf[_DIVIDE_CEILING_UNIT(output_len, __UNIT_TYPE_BIT_COUNT / 4) - 1];

  001e3	8b 45 0c	 mov	 eax, DWORD PTR tv679[ebp]

; 1250 :                 wchar_t* digit_table = format_type == L'X' ? hexadecimal_upper_digits : hexadecimal_lower_digits;

  001e6	bf 00 00 00 00	 mov	 edi, OFFSET ?hexadecimal_upper_digits@HexaDecimalFormatter@Internal@Core@Math@Palmtree@@3PA_WA
  001eb	66 83 7d 10 58	 cmp	 WORD PTR _format_type$[ebp], 88 ; 00000058H
  001f0	8d 34 83	 lea	 esi, DWORD PTR [ebx+eax*4]
  001f3	b8 00 00 00 00	 mov	 eax, OFFSET ?hexadecimal_lower_digits@HexaDecimalFormatter@Internal@Core@Math@Palmtree@@3PA_WA
  001f8	0f 45 f8	 cmovne	 edi, eax

; 1251 :                 OutputHexNumberSequenceOneWord(*s_ptr, leading_zero_digit_count, digit_table, &writer);

  001fb	8d 45 cc	 lea	 eax, DWORD PTR _writer$[ebp]
  001fe	50		 push	 eax
  001ff	57		 push	 edi
  00200	ff 75 14	 push	 DWORD PTR _leading_zero_digit_count$1$[ebp]
  00203	ff 76 fc	 push	 DWORD PTR [esi-4]
  00206	e8 00 00 00 00	 call	 ?OutputHexNumberSequenceOneWord@HexaDecimalFormatter@Internal@Core@Math@Palmtree@@YAXIIPA_WPAVStringWriter@2345@@Z ; Palmtree::Math::Core::Internal::HexaDecimalFormatter::OutputHexNumberSequenceOneWord
  0020b	83 ee 08	 sub	 esi, 8
  0020e	83 c4 10	 add	 esp, 16			; 00000010H

; 1252 :                 --s_ptr;
; 1253 :                 while (s_ptr >= temp_buf)

  00211	3b f3		 cmp	 esi, ebx
  00213	72 18		 jb	 SHORT $LN9@ToStringX
$LL8@ToStringX:

; 1254 :                 {
; 1255 :                     OutputHexNumberSequenceOneWord(*s_ptr, 0, digit_table, &writer);

  00215	8d 45 cc	 lea	 eax, DWORD PTR _writer$[ebp]
  00218	50		 push	 eax
  00219	57		 push	 edi
  0021a	6a 00		 push	 0
  0021c	ff 36		 push	 DWORD PTR [esi]
  0021e	e8 00 00 00 00	 call	 ?OutputHexNumberSequenceOneWord@HexaDecimalFormatter@Internal@Core@Math@Palmtree@@YAXIIPA_WPAVStringWriter@2345@@Z ; Palmtree::Math::Core::Internal::HexaDecimalFormatter::OutputHexNumberSequenceOneWord

; 1256 :                     --s_ptr;

  00223	83 ee 04	 sub	 esi, 4
  00226	83 c4 10	 add	 esp, 16			; 00000010H
  00229	3b f3		 cmp	 esi, ebx
  0022b	73 e8		 jae	 SHORT $LL8@ToStringX
$LN9@ToStringX:
; File z:\sources\lunor\repos\rougemeilland\palmtree.math.core.uint\palmtree.math.core.uint\pmc_stringio.h

; 250  :             return (_written);

  0022d	8b 75 dc	 mov	 esi, DWORD PTR _writer$[ebp+16]
; File z:\sources\lunor\repos\rougemeilland\palmtree.math.core.uint\palmtree.math.core.uint\pmc_tostring.cpp

; 1258 :                 return (writer.GetLength());

  00230	c7 45 fc ff ff
	ff ff		 mov	 DWORD PTR __$EHRec$[ebp+8], -1
  00237	8d 4d e0	 lea	 ecx, DWORD PTR _root$2[ebp]
  0023a	e8 00 00 00 00	 call	 ??1ResourceHolderUINT@Internal@Core@Math@Palmtree@@UAE@XZ ; Palmtree::Math::Core::Internal::ResourceHolderUINT::~ResourceHolderUINT
  0023f	8b c6		 mov	 eax, esi

; 1259 :             }
; 1260 :         }

  00241	8b 4d f4	 mov	 ecx, DWORD PTR __$EHRec$[ebp]
  00244	64 89 0d 00 00
	00 00		 mov	 DWORD PTR fs:0, ecx
  0024b	59		 pop	 ecx
  0024c	5f		 pop	 edi
  0024d	5e		 pop	 esi
  0024e	5b		 pop	 ebx
  0024f	8b e5		 mov	 esp, ebp
  00251	5d		 pop	 ebp
  00252	c3		 ret	 0
_TEXT	ENDS
;	COMDAT text$x
text$x	SEGMENT
__unwindfunclet$?ToStringX@HexaDecimalFormatter@Internal@Core@Math@Palmtree@@YAIDPAU__tag_NUMBER_HEADER@2345@_WHPBU__tag_PMC_NUMBER_FORMAT_INFO@2345@PA_WI@Z$0:
  00000	8d 4d e0	 lea	 ecx, DWORD PTR _root$2[ebp]
  00003	e9 00 00 00 00	 jmp	 ??1ResourceHolderUINT@Internal@Core@Math@Palmtree@@UAE@XZ ; Palmtree::Math::Core::Internal::ResourceHolderUINT::~ResourceHolderUINT
__ehhandler$?ToStringX@HexaDecimalFormatter@Internal@Core@Math@Palmtree@@YAIDPAU__tag_NUMBER_HEADER@2345@_WHPBU__tag_PMC_NUMBER_FORMAT_INFO@2345@PA_WI@Z:
  00008	8b 54 24 08	 mov	 edx, DWORD PTR [esp+8]
  0000c	8d 42 0c	 lea	 eax, DWORD PTR [edx+12]
  0000f	8b 4a c8	 mov	 ecx, DWORD PTR [edx-56]
  00012	33 c8		 xor	 ecx, eax
  00014	e8 00 00 00 00	 call	 @__security_check_cookie@4
  00019	b8 00 00 00 00	 mov	 eax, OFFSET __ehfuncinfo$?ToStringX@HexaDecimalFormatter@Internal@Core@Math@Palmtree@@YAIDPAU__tag_NUMBER_HEADER@2345@_WHPBU__tag_PMC_NUMBER_FORMAT_INFO@2345@PA_WI@Z
  0001e	e9 00 00 00 00	 jmp	 ___CxxFrameHandler3
text$x	ENDS
?ToStringX@HexaDecimalFormatter@Internal@Core@Math@Palmtree@@YAIDPAU__tag_NUMBER_HEADER@2345@_WHPBU__tag_PMC_NUMBER_FORMAT_INFO@2345@PA_WI@Z ENDP ; Palmtree::Math::Core::Internal::HexaDecimalFormatter::ToStringX
; Function compile flags: /Ogtp
; File z:\sources\lunor\repos\rougemeilland\palmtree.math.core.uint\palmtree.math.core.uint\pmc_tostring.cpp
; File z:\sources\lunor\repos\rougemeilland\palmtree.math.core.uint\palmtree.math.core.uint\pmc_inline_func.h
; File z:\sources\lunor\repos\rougemeilland\palmtree.math.core.uint\palmtree.math.core.uint\pmc_tostring.cpp
; File z:\sources\lunor\repos\rougemeilland\palmtree.math.core.uint\palmtree.math.core.uint\pmc_inline_func.h
; File z:\sources\lunor\repos\rougemeilland\palmtree.math.core.uint\palmtree.math.core.uint\pmc_tostring.cpp
; File z:\sources\lunor\repos\rougemeilland\palmtree.math.core.uint\palmtree.math.core.uint\pmc_inline_func.h
; File z:\sources\lunor\repos\rougemeilland\palmtree.math.core.uint\palmtree.math.core.uint\pmc_tostring.cpp
; File z:\sources\lunor\repos\rougemeilland\palmtree.math.core.uint\palmtree.math.core.uint\pmc_inline_func.h
; File z:\sources\lunor\repos\rougemeilland\palmtree.math.core.uint\palmtree.math.core.uint\pmc_tostring.cpp
; File z:\sources\lunor\repos\rougemeilland\palmtree.math.core.uint\palmtree.math.core.uint\pmc_inline_func.h
; File z:\sources\lunor\repos\rougemeilland\palmtree.math.core.uint\palmtree.math.core.uint\pmc_tostring.cpp
; File z:\sources\lunor\repos\rougemeilland\palmtree.math.core.uint\palmtree.math.core.uint\pmc_inline_func.h
; File z:\sources\lunor\repos\rougemeilland\palmtree.math.core.uint\palmtree.math.core.uint\pmc_tostring.cpp
; File z:\sources\lunor\repos\rougemeilland\palmtree.math.core.uint\palmtree.math.core.uint\pmc_inline_func.h
; File z:\sources\lunor\repos\rougemeilland\palmtree.math.core.uint\palmtree.math.core.uint\pmc_tostring.cpp
; File z:\sources\lunor\repos\rougemeilland\palmtree.math.core.uint\palmtree.math.core.uint\pmc_inline_func.h
; File z:\sources\lunor\repos\rougemeilland\palmtree.math.core.uint\palmtree.math.core.uint\pmc_tostring.cpp
; File z:\sources\lunor\repos\rougemeilland\palmtree.math.core.uint\palmtree.math.core.uint\pmc_inline_func.h
; File z:\sources\lunor\repos\rougemeilland\palmtree.math.core.uint\palmtree.math.core.uint\pmc_tostring.cpp
; File z:\sources\lunor\repos\rougemeilland\palmtree.math.core.uint\palmtree.math.core.uint\pmc_inline_func.h
; File z:\sources\lunor\repos\rougemeilland\palmtree.math.core.uint\palmtree.math.core.uint\pmc_tostring.cpp
; File z:\sources\lunor\repos\rougemeilland\palmtree.math.core.uint\palmtree.math.core.uint\pmc_inline_func.h
; File z:\sources\lunor\repos\rougemeilland\palmtree.math.core.uint\palmtree.math.core.uint\pmc_tostring.cpp
; File z:\sources\lunor\repos\rougemeilland\palmtree.math.core.uint\palmtree.math.core.uint\pmc_inline_func.h
; File z:\sources\lunor\repos\rougemeilland\palmtree.math.core.uint\palmtree.math.core.uint\pmc_tostring.cpp
; File z:\sources\lunor\repos\rougemeilland\palmtree.math.core.uint\palmtree.math.core.uint\pmc_inline_func.h
; File z:\sources\lunor\repos\rougemeilland\palmtree.math.core.uint\palmtree.math.core.uint\pmc_tostring.cpp
; File z:\sources\lunor\repos\rougemeilland\palmtree.math.core.uint\palmtree.math.core.uint\pmc_inline_func.h
; File z:\sources\lunor\repos\rougemeilland\palmtree.math.core.uint\palmtree.math.core.uint\pmc_tostring.cpp
; File z:\sources\lunor\repos\rougemeilland\palmtree.math.core.uint\palmtree.math.core.uint\pmc_inline_func.h
; File z:\sources\lunor\repos\rougemeilland\palmtree.math.core.uint\palmtree.math.core.uint\pmc_tostring.cpp
; File z:\sources\lunor\repos\rougemeilland\palmtree.math.core.uint\palmtree.math.core.uint\pmc_inline_func.h
; File z:\sources\lunor\repos\rougemeilland\palmtree.math.core.uint\palmtree.math.core.uint\pmc_tostring.cpp
; File z:\sources\lunor\repos\rougemeilland\palmtree.math.core.uint\palmtree.math.core.uint\pmc_inline_func.h
; File z:\sources\lunor\repos\rougemeilland\palmtree.math.core.uint\palmtree.math.core.uint\pmc_tostring.cpp
; File z:\sources\lunor\repos\rougemeilland\palmtree.math.core.uint\palmtree.math.core.uint\pmc_inline_func.h
; File z:\sources\lunor\repos\rougemeilland\palmtree.math.core.uint\palmtree.math.core.uint\pmc_tostring.cpp
; File z:\sources\lunor\repos\rougemeilland\palmtree.math.core.uint\palmtree.math.core.uint\pmc_inline_func.h
; File z:\sources\lunor\repos\rougemeilland\palmtree.math.core.uint\palmtree.math.core.uint\pmc_tostring.cpp
; File z:\sources\lunor\repos\rougemeilland\palmtree.math.core.uint\palmtree.math.core.uint\pmc_inline_func.h
; File z:\sources\lunor\repos\rougemeilland\palmtree.math.core.uint\palmtree.math.core.uint\pmc_tostring.cpp
; File z:\sources\lunor\repos\rougemeilland\palmtree.math.core.uint\palmtree.math.core.uint\pmc_inline_func.h
; File z:\sources\lunor\repos\rougemeilland\palmtree.math.core.uint\palmtree.math.core.uint\pmc_tostring.cpp
; File z:\sources\lunor\repos\rougemeilland\palmtree.math.core.uint\palmtree.math.core.uint\pmc_inline_func.h
; File z:\sources\lunor\repos\rougemeilland\palmtree.math.core.uint\palmtree.math.core.uint\pmc_tostring.cpp
; File z:\sources\lunor\repos\rougemeilland\palmtree.math.core.uint\palmtree.math.core.uint\pmc_inline_func.h
; File z:\sources\lunor\repos\rougemeilland\palmtree.math.core.uint\palmtree.math.core.uint\pmc_tostring.cpp
; File z:\sources\lunor\repos\rougemeilland\palmtree.math.core.uint\palmtree.math.core.uint\pmc_inline_func.h
; File z:\sources\lunor\repos\rougemeilland\palmtree.math.core.uint\palmtree.math.core.uint\pmc_tostring.cpp
; File z:\sources\lunor\repos\rougemeilland\palmtree.math.core.uint\palmtree.math.core.uint\pmc_inline_func.h
; File z:\sources\lunor\repos\rougemeilland\palmtree.math.core.uint\palmtree.math.core.uint\pmc_tostring.cpp
; File z:\sources\lunor\repos\rougemeilland\palmtree.math.core.uint\palmtree.math.core.uint\pmc_inline_func.h
; File z:\sources\lunor\repos\rougemeilland\palmtree.math.core.uint\palmtree.math.core.uint\pmc_tostring.cpp
; File z:\sources\lunor\repos\rougemeilland\palmtree.math.core.uint\palmtree.math.core.uint\pmc_inline_func.h
; File z:\sources\lunor\repos\rougemeilland\palmtree.math.core.uint\palmtree.math.core.uint\pmc_tostring.cpp
; File z:\sources\lunor\repos\rougemeilland\palmtree.math.core.uint\palmtree.math.core.uint\pmc_inline_func.h
; File z:\sources\lunor\repos\rougemeilland\palmtree.math.core.uint\palmtree.math.core.uint\pmc_tostring.cpp
; File z:\sources\lunor\repos\rougemeilland\palmtree.math.core.uint\palmtree.math.core.uint\pmc_inline_func.h
; File z:\sources\lunor\repos\rougemeilland\palmtree.math.core.uint\palmtree.math.core.uint\pmc_tostring.cpp
; File z:\sources\lunor\repos\rougemeilland\palmtree.math.core.uint\palmtree.math.core.uint\pmc_inline_func.h
; File z:\sources\lunor\repos\rougemeilland\palmtree.math.core.uint\palmtree.math.core.uint\pmc_tostring.cpp
; File z:\sources\lunor\repos\rougemeilland\palmtree.math.core.uint\palmtree.math.core.uint\pmc_inline_func.h
; File z:\sources\lunor\repos\rougemeilland\palmtree.math.core.uint\palmtree.math.core.uint\pmc_tostring.cpp
;	COMDAT ?OutputHexNumberSequenceOneWord@HexaDecimalFormatter@Internal@Core@Math@Palmtree@@YAXIIPA_WPAVStringWriter@2345@@Z
_TEXT	SEGMENT
_count$1$ = -4						; size = 4
_x$ = 8							; size = 4
_skip_digit_len$ = 12					; size = 4
_digit_table$ = 16					; size = 4
_writer$ = 20						; size = 4
?OutputHexNumberSequenceOneWord@HexaDecimalFormatter@Internal@Core@Math@Palmtree@@YAXIIPA_WPAVStringWriter@2345@@Z PROC ; Palmtree::Math::Core::Internal::HexaDecimalFormatter::OutputHexNumberSequenceOneWord, COMDAT

; 1075 :         {

  00000	55		 push	 ebp
  00001	8b ec		 mov	 ebp, esp
  00003	51		 push	 ecx

; 1076 :             if (sizeof(__UNIT_TYPE) > sizeof(_UINT64_T))
; 1077 :             {
; 1078 :                 // 64bit  __UNIT_TYPE 
; 1079 :                 // 
; 1080 :                 throw InternalErrorException(L"", L"pmc_tostring.cpp;OutputHexNumberSequenceOneWord;1");
; 1081 :             }
; 1082 :             unsigned int count = __UNIT_TYPE_BIT_COUNT / 4;
; 1083 :             if (skip_digit_len > 0)

  00004	8b 55 0c	 mov	 edx, DWORD PTR _skip_digit_len$[ebp]
  00007	b8 08 00 00 00	 mov	 eax, 8
  0000c	89 45 fc	 mov	 DWORD PTR _count$1$[ebp], eax
  0000f	53		 push	 ebx
  00010	56		 push	 esi
  00011	8b 75 08	 mov	 esi, DWORD PTR _x$[ebp]
  00014	57		 push	 edi
  00015	85 d2		 test	 edx, edx
  00017	74 0e		 je	 SHORT $LN3@OutputHexN

; 1084 :             {
; 1085 :                 x = _ROTATE_L_UNIT(x, 4 * skip_digit_len);

  00019	8d 0c 95 00 00
	00 00		 lea	 ecx, DWORD PTR [edx*4]
; File z:\sources\lunor\repos\rougemeilland\palmtree.math.core.uint\palmtree.math.core.uint\pmc_inline_func.h

; 331  :             return (_rotl(x, count));

  00020	d3 c6		 rol	 esi, cl
; File z:\sources\lunor\repos\rougemeilland\palmtree.math.core.uint\palmtree.math.core.uint\pmc_tostring.cpp

; 1086 :                 count -= skip_digit_len;

  00022	2b c2		 sub	 eax, edx
  00024	89 45 fc	 mov	 DWORD PTR _count$1$[ebp], eax
$LN3@OutputHexN:

; 1087 :             }
; 1088 :             if (count & 0x10)

  00027	8b 7d 14	 mov	 edi, DWORD PTR _writer$[ebp]
  0002a	8b 5d 10	 mov	 ebx, DWORD PTR _digit_table$[ebp]
  0002d	a8 10		 test	 al, 16			; 00000010H
  0002f	0f 84 2f 01 00
	00		 je	 $LN4@OutputHexN

; 1090 :                 x = _ROTATE_L_UNIT(x, 4); writer->Write(digit_table[x & 0x0f]);

  00035	8b 17		 mov	 edx, DWORD PTR [edi]
  00037	8b cf		 mov	 ecx, edi
; File z:\sources\lunor\repos\rougemeilland\palmtree.math.core.uint\palmtree.math.core.uint\pmc_inline_func.h

; 331  :             return (_rotl(x, count));

  00039	c1 c6 04	 rol	 esi, 4
; File z:\sources\lunor\repos\rougemeilland\palmtree.math.core.uint\palmtree.math.core.uint\pmc_tostring.cpp

; 1090 :                 x = _ROTATE_L_UNIT(x, 4); writer->Write(digit_table[x & 0x0f]);

  0003c	8b c6		 mov	 eax, esi
  0003e	83 e0 0f	 and	 eax, 15			; 0000000fH
  00041	0f b7 04 43	 movzx	 eax, WORD PTR [ebx+eax*2]
  00045	50		 push	 eax
  00046	ff 52 04	 call	 DWORD PTR [edx+4]

; 1091 :                 x = _ROTATE_L_UNIT(x, 4); writer->Write(digit_table[x & 0x0f]);

  00049	8b 17		 mov	 edx, DWORD PTR [edi]
  0004b	8b cf		 mov	 ecx, edi
; File z:\sources\lunor\repos\rougemeilland\palmtree.math.core.uint\palmtree.math.core.uint\pmc_inline_func.h

; 331  :             return (_rotl(x, count));

  0004d	c1 c6 04	 rol	 esi, 4
; File z:\sources\lunor\repos\rougemeilland\palmtree.math.core.uint\palmtree.math.core.uint\pmc_tostring.cpp

; 1091 :                 x = _ROTATE_L_UNIT(x, 4); writer->Write(digit_table[x & 0x0f]);

  00050	8b c6		 mov	 eax, esi
  00052	83 e0 0f	 and	 eax, 15			; 0000000fH
  00055	0f b7 04 43	 movzx	 eax, WORD PTR [ebx+eax*2]
  00059	50		 push	 eax
  0005a	ff 52 04	 call	 DWORD PTR [edx+4]

; 1092 :                 x = _ROTATE_L_UNIT(x, 4); writer->Write(digit_table[x & 0x0f]);

  0005d	8b 17		 mov	 edx, DWORD PTR [edi]
  0005f	8b cf		 mov	 ecx, edi
; File z:\sources\lunor\repos\rougemeilland\palmtree.math.core.uint\palmtree.math.core.uint\pmc_inline_func.h

; 331  :             return (_rotl(x, count));

  00061	c1 c6 04	 rol	 esi, 4
; File z:\sources\lunor\repos\rougemeilland\palmtree.math.core.uint\palmtree.math.core.uint\pmc_tostring.cpp

; 1092 :                 x = _ROTATE_L_UNIT(x, 4); writer->Write(digit_table[x & 0x0f]);

  00064	8b c6		 mov	 eax, esi
  00066	83 e0 0f	 and	 eax, 15			; 0000000fH
  00069	0f b7 04 43	 movzx	 eax, WORD PTR [ebx+eax*2]
  0006d	50		 push	 eax
  0006e	ff 52 04	 call	 DWORD PTR [edx+4]

; 1093 :                 x = _ROTATE_L_UNIT(x, 4); writer->Write(digit_table[x & 0x0f]);

  00071	8b 17		 mov	 edx, DWORD PTR [edi]
  00073	8b cf		 mov	 ecx, edi
; File z:\sources\lunor\repos\rougemeilland\palmtree.math.core.uint\palmtree.math.core.uint\pmc_inline_func.h

; 331  :             return (_rotl(x, count));

  00075	c1 c6 04	 rol	 esi, 4
; File z:\sources\lunor\repos\rougemeilland\palmtree.math.core.uint\palmtree.math.core.uint\pmc_tostring.cpp

; 1093 :                 x = _ROTATE_L_UNIT(x, 4); writer->Write(digit_table[x & 0x0f]);

  00078	8b c6		 mov	 eax, esi
  0007a	83 e0 0f	 and	 eax, 15			; 0000000fH
  0007d	0f b7 04 43	 movzx	 eax, WORD PTR [ebx+eax*2]
  00081	50		 push	 eax
  00082	ff 52 04	 call	 DWORD PTR [edx+4]

; 1094 :                 x = _ROTATE_L_UNIT(x, 4); writer->Write(digit_table[x & 0x0f]);

  00085	8b 17		 mov	 edx, DWORD PTR [edi]
  00087	8b cf		 mov	 ecx, edi
; File z:\sources\lunor\repos\rougemeilland\palmtree.math.core.uint\palmtree.math.core.uint\pmc_inline_func.h

; 331  :             return (_rotl(x, count));

  00089	c1 c6 04	 rol	 esi, 4
; File z:\sources\lunor\repos\rougemeilland\palmtree.math.core.uint\palmtree.math.core.uint\pmc_tostring.cpp

; 1094 :                 x = _ROTATE_L_UNIT(x, 4); writer->Write(digit_table[x & 0x0f]);

  0008c	8b c6		 mov	 eax, esi
  0008e	83 e0 0f	 and	 eax, 15			; 0000000fH
  00091	0f b7 04 43	 movzx	 eax, WORD PTR [ebx+eax*2]
  00095	50		 push	 eax
  00096	ff 52 04	 call	 DWORD PTR [edx+4]

; 1095 :                 x = _ROTATE_L_UNIT(x, 4); writer->Write(digit_table[x & 0x0f]);

  00099	8b 17		 mov	 edx, DWORD PTR [edi]
  0009b	8b cf		 mov	 ecx, edi
; File z:\sources\lunor\repos\rougemeilland\palmtree.math.core.uint\palmtree.math.core.uint\pmc_inline_func.h

; 331  :             return (_rotl(x, count));

  0009d	c1 c6 04	 rol	 esi, 4
; File z:\sources\lunor\repos\rougemeilland\palmtree.math.core.uint\palmtree.math.core.uint\pmc_tostring.cpp

; 1095 :                 x = _ROTATE_L_UNIT(x, 4); writer->Write(digit_table[x & 0x0f]);

  000a0	8b c6		 mov	 eax, esi
  000a2	83 e0 0f	 and	 eax, 15			; 0000000fH
  000a5	0f b7 04 43	 movzx	 eax, WORD PTR [ebx+eax*2]
  000a9	50		 push	 eax
  000aa	ff 52 04	 call	 DWORD PTR [edx+4]

; 1096 :                 x = _ROTATE_L_UNIT(x, 4); writer->Write(digit_table[x & 0x0f]);

  000ad	8b 17		 mov	 edx, DWORD PTR [edi]
  000af	8b cf		 mov	 ecx, edi
; File z:\sources\lunor\repos\rougemeilland\palmtree.math.core.uint\palmtree.math.core.uint\pmc_inline_func.h

; 331  :             return (_rotl(x, count));

  000b1	c1 c6 04	 rol	 esi, 4
; File z:\sources\lunor\repos\rougemeilland\palmtree.math.core.uint\palmtree.math.core.uint\pmc_tostring.cpp

; 1096 :                 x = _ROTATE_L_UNIT(x, 4); writer->Write(digit_table[x & 0x0f]);

  000b4	8b c6		 mov	 eax, esi
  000b6	83 e0 0f	 and	 eax, 15			; 0000000fH
  000b9	0f b7 04 43	 movzx	 eax, WORD PTR [ebx+eax*2]
  000bd	50		 push	 eax
  000be	ff 52 04	 call	 DWORD PTR [edx+4]

; 1097 :                 x = _ROTATE_L_UNIT(x, 4); writer->Write(digit_table[x & 0x0f]);

  000c1	8b 17		 mov	 edx, DWORD PTR [edi]
  000c3	8b cf		 mov	 ecx, edi
; File z:\sources\lunor\repos\rougemeilland\palmtree.math.core.uint\palmtree.math.core.uint\pmc_inline_func.h

; 331  :             return (_rotl(x, count));

  000c5	c1 c6 04	 rol	 esi, 4
; File z:\sources\lunor\repos\rougemeilland\palmtree.math.core.uint\palmtree.math.core.uint\pmc_tostring.cpp

; 1097 :                 x = _ROTATE_L_UNIT(x, 4); writer->Write(digit_table[x & 0x0f]);

  000c8	8b c6		 mov	 eax, esi
  000ca	83 e0 0f	 and	 eax, 15			; 0000000fH
  000cd	0f b7 04 43	 movzx	 eax, WORD PTR [ebx+eax*2]
  000d1	50		 push	 eax
  000d2	ff 52 04	 call	 DWORD PTR [edx+4]

; 1098 :                 x = _ROTATE_L_UNIT(x, 4); writer->Write(digit_table[x & 0x0f]);

  000d5	8b 17		 mov	 edx, DWORD PTR [edi]
  000d7	8b cf		 mov	 ecx, edi
; File z:\sources\lunor\repos\rougemeilland\palmtree.math.core.uint\palmtree.math.core.uint\pmc_inline_func.h

; 331  :             return (_rotl(x, count));

  000d9	c1 c6 04	 rol	 esi, 4
; File z:\sources\lunor\repos\rougemeilland\palmtree.math.core.uint\palmtree.math.core.uint\pmc_tostring.cpp

; 1098 :                 x = _ROTATE_L_UNIT(x, 4); writer->Write(digit_table[x & 0x0f]);

  000dc	8b c6		 mov	 eax, esi
  000de	83 e0 0f	 and	 eax, 15			; 0000000fH
  000e1	0f b7 04 43	 movzx	 eax, WORD PTR [ebx+eax*2]
  000e5	50		 push	 eax
  000e6	ff 52 04	 call	 DWORD PTR [edx+4]

; 1099 :                 x = _ROTATE_L_UNIT(x, 4); writer->Write(digit_table[x & 0x0f]);

  000e9	8b 17		 mov	 edx, DWORD PTR [edi]
  000eb	8b cf		 mov	 ecx, edi
; File z:\sources\lunor\repos\rougemeilland\palmtree.math.core.uint\palmtree.math.core.uint\pmc_inline_func.h

; 331  :             return (_rotl(x, count));

  000ed	c1 c6 04	 rol	 esi, 4
; File z:\sources\lunor\repos\rougemeilland\palmtree.math.core.uint\palmtree.math.core.uint\pmc_tostring.cpp

; 1099 :                 x = _ROTATE_L_UNIT(x, 4); writer->Write(digit_table[x & 0x0f]);

  000f0	8b c6		 mov	 eax, esi
  000f2	83 e0 0f	 and	 eax, 15			; 0000000fH
  000f5	0f b7 04 43	 movzx	 eax, WORD PTR [ebx+eax*2]
  000f9	50		 push	 eax
  000fa	ff 52 04	 call	 DWORD PTR [edx+4]
; File z:\sources\lunor\repos\rougemeilland\palmtree.math.core.uint\palmtree.math.core.uint\pmc_inline_func.h

; 331  :             return (_rotl(x, count));

  000fd	c1 c6 04	 rol	 esi, 4
; File z:\sources\lunor\repos\rougemeilland\palmtree.math.core.uint\palmtree.math.core.uint\pmc_tostring.cpp

; 1100 :                 x = _ROTATE_L_UNIT(x, 4); writer->Write(digit_table[x & 0x0f]);

  00100	8b 17		 mov	 edx, DWORD PTR [edi]
  00102	8b c6		 mov	 eax, esi
  00104	83 e0 0f	 and	 eax, 15			; 0000000fH
  00107	8b cf		 mov	 ecx, edi
  00109	0f b7 04 43	 movzx	 eax, WORD PTR [ebx+eax*2]
  0010d	50		 push	 eax
  0010e	ff 52 04	 call	 DWORD PTR [edx+4]

; 1101 :                 x = _ROTATE_L_UNIT(x, 4); writer->Write(digit_table[x & 0x0f]);

  00111	8b 17		 mov	 edx, DWORD PTR [edi]
  00113	8b cf		 mov	 ecx, edi
; File z:\sources\lunor\repos\rougemeilland\palmtree.math.core.uint\palmtree.math.core.uint\pmc_inline_func.h

; 331  :             return (_rotl(x, count));

  00115	c1 c6 04	 rol	 esi, 4
; File z:\sources\lunor\repos\rougemeilland\palmtree.math.core.uint\palmtree.math.core.uint\pmc_tostring.cpp

; 1101 :                 x = _ROTATE_L_UNIT(x, 4); writer->Write(digit_table[x & 0x0f]);

  00118	8b c6		 mov	 eax, esi
  0011a	83 e0 0f	 and	 eax, 15			; 0000000fH
  0011d	0f b7 04 43	 movzx	 eax, WORD PTR [ebx+eax*2]
  00121	50		 push	 eax
  00122	ff 52 04	 call	 DWORD PTR [edx+4]

; 1102 :                 x = _ROTATE_L_UNIT(x, 4); writer->Write(digit_table[x & 0x0f]);

  00125	8b 17		 mov	 edx, DWORD PTR [edi]
  00127	8b cf		 mov	 ecx, edi
; File z:\sources\lunor\repos\rougemeilland\palmtree.math.core.uint\palmtree.math.core.uint\pmc_inline_func.h

; 331  :             return (_rotl(x, count));

  00129	c1 c6 04	 rol	 esi, 4
; File z:\sources\lunor\repos\rougemeilland\palmtree.math.core.uint\palmtree.math.core.uint\pmc_tostring.cpp

; 1102 :                 x = _ROTATE_L_UNIT(x, 4); writer->Write(digit_table[x & 0x0f]);

  0012c	8b c6		 mov	 eax, esi
  0012e	83 e0 0f	 and	 eax, 15			; 0000000fH
  00131	0f b7 04 43	 movzx	 eax, WORD PTR [ebx+eax*2]
  00135	50		 push	 eax
  00136	ff 52 04	 call	 DWORD PTR [edx+4]

; 1103 :                 x = _ROTATE_L_UNIT(x, 4); writer->Write(digit_table[x & 0x0f]);

  00139	8b 17		 mov	 edx, DWORD PTR [edi]
  0013b	8b cf		 mov	 ecx, edi
; File z:\sources\lunor\repos\rougemeilland\palmtree.math.core.uint\palmtree.math.core.uint\pmc_inline_func.h

; 331  :             return (_rotl(x, count));

  0013d	c1 c6 04	 rol	 esi, 4
; File z:\sources\lunor\repos\rougemeilland\palmtree.math.core.uint\palmtree.math.core.uint\pmc_tostring.cpp

; 1103 :                 x = _ROTATE_L_UNIT(x, 4); writer->Write(digit_table[x & 0x0f]);

  00140	8b c6		 mov	 eax, esi
  00142	83 e0 0f	 and	 eax, 15			; 0000000fH
  00145	0f b7 04 43	 movzx	 eax, WORD PTR [ebx+eax*2]
  00149	50		 push	 eax
  0014a	ff 52 04	 call	 DWORD PTR [edx+4]

; 1104 :                 x = _ROTATE_L_UNIT(x, 4); writer->Write(digit_table[x & 0x0f]);

  0014d	8b 17		 mov	 edx, DWORD PTR [edi]
  0014f	8b cf		 mov	 ecx, edi
; File z:\sources\lunor\repos\rougemeilland\palmtree.math.core.uint\palmtree.math.core.uint\pmc_inline_func.h

; 331  :             return (_rotl(x, count));

  00151	c1 c6 04	 rol	 esi, 4
; File z:\sources\lunor\repos\rougemeilland\palmtree.math.core.uint\palmtree.math.core.uint\pmc_tostring.cpp

; 1104 :                 x = _ROTATE_L_UNIT(x, 4); writer->Write(digit_table[x & 0x0f]);

  00154	8b c6		 mov	 eax, esi
  00156	83 e0 0f	 and	 eax, 15			; 0000000fH
  00159	0f b7 04 43	 movzx	 eax, WORD PTR [ebx+eax*2]
  0015d	50		 push	 eax
  0015e	ff 52 04	 call	 DWORD PTR [edx+4]
  00161	8b 45 fc	 mov	 eax, DWORD PTR _count$1$[ebp]
$LN4@OutputHexN:

; 1105 :             }
; 1106 :             if (count & 0x8)

  00164	a8 08		 test	 al, 8
  00166	0f 84 a3 00 00
	00		 je	 $LN5@OutputHexN

; 1108 :                 x = _ROTATE_L_UNIT(x, 4); writer->Write(digit_table[x & 0x0f]);

  0016c	8b 17		 mov	 edx, DWORD PTR [edi]
  0016e	8b cf		 mov	 ecx, edi
; File z:\sources\lunor\repos\rougemeilland\palmtree.math.core.uint\palmtree.math.core.uint\pmc_inline_func.h

; 331  :             return (_rotl(x, count));

  00170	c1 c6 04	 rol	 esi, 4
; File z:\sources\lunor\repos\rougemeilland\palmtree.math.core.uint\palmtree.math.core.uint\pmc_tostring.cpp

; 1108 :                 x = _ROTATE_L_UNIT(x, 4); writer->Write(digit_table[x & 0x0f]);

  00173	8b c6		 mov	 eax, esi
  00175	83 e0 0f	 and	 eax, 15			; 0000000fH
  00178	0f b7 04 43	 movzx	 eax, WORD PTR [ebx+eax*2]
  0017c	50		 push	 eax
  0017d	ff 52 04	 call	 DWORD PTR [edx+4]

; 1109 :                 x = _ROTATE_L_UNIT(x, 4); writer->Write(digit_table[x & 0x0f]);

  00180	8b 17		 mov	 edx, DWORD PTR [edi]
  00182	8b cf		 mov	 ecx, edi
; File z:\sources\lunor\repos\rougemeilland\palmtree.math.core.uint\palmtree.math.core.uint\pmc_inline_func.h

; 331  :             return (_rotl(x, count));

  00184	c1 c6 04	 rol	 esi, 4
; File z:\sources\lunor\repos\rougemeilland\palmtree.math.core.uint\palmtree.math.core.uint\pmc_tostring.cpp

; 1109 :                 x = _ROTATE_L_UNIT(x, 4); writer->Write(digit_table[x & 0x0f]);

  00187	8b c6		 mov	 eax, esi
  00189	83 e0 0f	 and	 eax, 15			; 0000000fH
  0018c	0f b7 04 43	 movzx	 eax, WORD PTR [ebx+eax*2]
  00190	50		 push	 eax
  00191	ff 52 04	 call	 DWORD PTR [edx+4]

; 1110 :                 x = _ROTATE_L_UNIT(x, 4); writer->Write(digit_table[x & 0x0f]);

  00194	8b 17		 mov	 edx, DWORD PTR [edi]
  00196	8b cf		 mov	 ecx, edi
; File z:\sources\lunor\repos\rougemeilland\palmtree.math.core.uint\palmtree.math.core.uint\pmc_inline_func.h

; 331  :             return (_rotl(x, count));

  00198	c1 c6 04	 rol	 esi, 4
; File z:\sources\lunor\repos\rougemeilland\palmtree.math.core.uint\palmtree.math.core.uint\pmc_tostring.cpp

; 1110 :                 x = _ROTATE_L_UNIT(x, 4); writer->Write(digit_table[x & 0x0f]);

  0019b	8b c6		 mov	 eax, esi
  0019d	83 e0 0f	 and	 eax, 15			; 0000000fH
  001a0	0f b7 04 43	 movzx	 eax, WORD PTR [ebx+eax*2]
  001a4	50		 push	 eax
  001a5	ff 52 04	 call	 DWORD PTR [edx+4]

; 1111 :                 x = _ROTATE_L_UNIT(x, 4); writer->Write(digit_table[x & 0x0f]);

  001a8	8b 17		 mov	 edx, DWORD PTR [edi]
  001aa	8b cf		 mov	 ecx, edi
; File z:\sources\lunor\repos\rougemeilland\palmtree.math.core.uint\palmtree.math.core.uint\pmc_inline_func.h

; 331  :             return (_rotl(x, count));

  001ac	c1 c6 04	 rol	 esi, 4
; File z:\sources\lunor\repos\rougemeilland\palmtree.math.core.uint\palmtree.math.core.uint\pmc_tostring.cpp

; 1111 :                 x = _ROTATE_L_UNIT(x, 4); writer->Write(digit_table[x & 0x0f]);

  001af	8b c6		 mov	 eax, esi
  001b1	83 e0 0f	 and	 eax, 15			; 0000000fH
  001b4	0f b7 04 43	 movzx	 eax, WORD PTR [ebx+eax*2]
  001b8	50		 push	 eax
  001b9	ff 52 04	 call	 DWORD PTR [edx+4]

; 1112 :                 x = _ROTATE_L_UNIT(x, 4); writer->Write(digit_table[x & 0x0f]);

  001bc	8b 17		 mov	 edx, DWORD PTR [edi]
  001be	8b cf		 mov	 ecx, edi
; File z:\sources\lunor\repos\rougemeilland\palmtree.math.core.uint\palmtree.math.core.uint\pmc_inline_func.h

; 331  :             return (_rotl(x, count));

  001c0	c1 c6 04	 rol	 esi, 4
; File z:\sources\lunor\repos\rougemeilland\palmtree.math.core.uint\palmtree.math.core.uint\pmc_tostring.cpp

; 1112 :                 x = _ROTATE_L_UNIT(x, 4); writer->Write(digit_table[x & 0x0f]);

  001c3	8b c6		 mov	 eax, esi
  001c5	83 e0 0f	 and	 eax, 15			; 0000000fH
  001c8	0f b7 04 43	 movzx	 eax, WORD PTR [ebx+eax*2]
  001cc	50		 push	 eax
  001cd	ff 52 04	 call	 DWORD PTR [edx+4]

; 1113 :                 x = _ROTATE_L_UNIT(x, 4); writer->Write(digit_table[x & 0x0f]);

  001d0	8b 17		 mov	 edx, DWORD PTR [edi]
  001d2	8b cf		 mov	 ecx, edi
; File z:\sources\lunor\repos\rougemeilland\palmtree.math.core.uint\palmtree.math.core.uint\pmc_inline_func.h

; 331  :             return (_rotl(x, count));

  001d4	c1 c6 04	 rol	 esi, 4
; File z:\sources\lunor\repos\rougemeilland\palmtree.math.core.uint\palmtree.math.core.uint\pmc_tostring.cpp

; 1113 :                 x = _ROTATE_L_UNIT(x, 4); writer->Write(digit_table[x & 0x0f]);

  001d7	8b c6		 mov	 eax, esi
  001d9	83 e0 0f	 and	 eax, 15			; 0000000fH
  001dc	0f b7 04 43	 movzx	 eax, WORD PTR [ebx+eax*2]
  001e0	50		 push	 eax
  001e1	ff 52 04	 call	 DWORD PTR [edx+4]

; 1114 :                 x = _ROTATE_L_UNIT(x, 4); writer->Write(digit_table[x & 0x0f]);

  001e4	8b 17		 mov	 edx, DWORD PTR [edi]
  001e6	8b cf		 mov	 ecx, edi
; File z:\sources\lunor\repos\rougemeilland\palmtree.math.core.uint\palmtree.math.core.uint\pmc_inline_func.h

; 331  :             return (_rotl(x, count));

  001e8	c1 c6 04	 rol	 esi, 4
; File z:\sources\lunor\repos\rougemeilland\palmtree.math.core.uint\palmtree.math.core.uint\pmc_tostring.cpp

; 1114 :                 x = _ROTATE_L_UNIT(x, 4); writer->Write(digit_table[x & 0x0f]);

  001eb	8b c6		 mov	 eax, esi
  001ed	83 e0 0f	 and	 eax, 15			; 0000000fH
  001f0	0f b7 04 43	 movzx	 eax, WORD PTR [ebx+eax*2]
  001f4	50		 push	 eax
  001f5	ff 52 04	 call	 DWORD PTR [edx+4]

; 1115 :                 x = _ROTATE_L_UNIT(x, 4); writer->Write(digit_table[x & 0x0f]);

  001f8	8b 17		 mov	 edx, DWORD PTR [edi]
  001fa	8b cf		 mov	 ecx, edi
; File z:\sources\lunor\repos\rougemeilland\palmtree.math.core.uint\palmtree.math.core.uint\pmc_inline_func.h

; 331  :             return (_rotl(x, count));

  001fc	c1 c6 04	 rol	 esi, 4
; File z:\sources\lunor\repos\rougemeilland\palmtree.math.core.uint\palmtree.math.core.uint\pmc_tostring.cpp

; 1115 :                 x = _ROTATE_L_UNIT(x, 4); writer->Write(digit_table[x & 0x0f]);

  001ff	8b c6		 mov	 eax, esi
  00201	83 e0 0f	 and	 eax, 15			; 0000000fH
  00204	0f b7 04 43	 movzx	 eax, WORD PTR [ebx+eax*2]
  00208	50		 push	 eax
  00209	ff 52 04	 call	 DWORD PTR [edx+4]
  0020c	8b 45 fc	 mov	 eax, DWORD PTR _count$1$[ebp]
$LN5@OutputHexN:

; 1116 :             }
; 1117 :             if (count & 0x4)

  0020f	a8 04		 test	 al, 4
  00211	74 53		 je	 SHORT $LN6@OutputHexN

; 1119 :                 x = _ROTATE_L_UNIT(x, 4); writer->Write(digit_table[x & 0x0f]);

  00213	8b 17		 mov	 edx, DWORD PTR [edi]
  00215	8b cf		 mov	 ecx, edi
; File z:\sources\lunor\repos\rougemeilland\palmtree.math.core.uint\palmtree.math.core.uint\pmc_inline_func.h

; 331  :             return (_rotl(x, count));

  00217	c1 c6 04	 rol	 esi, 4
; File z:\sources\lunor\repos\rougemeilland\palmtree.math.core.uint\palmtree.math.core.uint\pmc_tostring.cpp

; 1119 :                 x = _ROTATE_L_UNIT(x, 4); writer->Write(digit_table[x & 0x0f]);

  0021a	8b c6		 mov	 eax, esi
  0021c	83 e0 0f	 and	 eax, 15			; 0000000fH
  0021f	0f b7 04 43	 movzx	 eax, WORD PTR [ebx+eax*2]
  00223	50		 push	 eax
  00224	ff 52 04	 call	 DWORD PTR [edx+4]

; 1120 :                 x = _ROTATE_L_UNIT(x, 4); writer->Write(digit_table[x & 0x0f]);

  00227	8b 17		 mov	 edx, DWORD PTR [edi]
  00229	8b cf		 mov	 ecx, edi
; File z:\sources\lunor\repos\rougemeilland\palmtree.math.core.uint\palmtree.math.core.uint\pmc_inline_func.h

; 331  :             return (_rotl(x, count));

  0022b	c1 c6 04	 rol	 esi, 4
; File z:\sources\lunor\repos\rougemeilland\palmtree.math.core.uint\palmtree.math.core.uint\pmc_tostring.cpp

; 1120 :                 x = _ROTATE_L_UNIT(x, 4); writer->Write(digit_table[x & 0x0f]);

  0022e	8b c6		 mov	 eax, esi
  00230	83 e0 0f	 and	 eax, 15			; 0000000fH
  00233	0f b7 04 43	 movzx	 eax, WORD PTR [ebx+eax*2]
  00237	50		 push	 eax
  00238	ff 52 04	 call	 DWORD PTR [edx+4]

; 1121 :                 x = _ROTATE_L_UNIT(x, 4); writer->Write(digit_table[x & 0x0f]);

  0023b	8b 17		 mov	 edx, DWORD PTR [edi]
  0023d	8b cf		 mov	 ecx, edi
; File z:\sources\lunor\repos\rougemeilland\palmtree.math.core.uint\palmtree.math.core.uint\pmc_inline_func.h

; 331  :             return (_rotl(x, count));

  0023f	c1 c6 04	 rol	 esi, 4
; File z:\sources\lunor\repos\rougemeilland\palmtree.math.core.uint\palmtree.math.core.uint\pmc_tostring.cpp

; 1121 :                 x = _ROTATE_L_UNIT(x, 4); writer->Write(digit_table[x & 0x0f]);

  00242	8b c6		 mov	 eax, esi
  00244	83 e0 0f	 and	 eax, 15			; 0000000fH
  00247	0f b7 04 43	 movzx	 eax, WORD PTR [ebx+eax*2]
  0024b	50		 push	 eax
  0024c	ff 52 04	 call	 DWORD PTR [edx+4]

; 1122 :                 x = _ROTATE_L_UNIT(x, 4); writer->Write(digit_table[x & 0x0f]);

  0024f	8b 17		 mov	 edx, DWORD PTR [edi]
  00251	8b cf		 mov	 ecx, edi
; File z:\sources\lunor\repos\rougemeilland\palmtree.math.core.uint\palmtree.math.core.uint\pmc_inline_func.h

; 331  :             return (_rotl(x, count));

  00253	c1 c6 04	 rol	 esi, 4
; File z:\sources\lunor\repos\rougemeilland\palmtree.math.core.uint\palmtree.math.core.uint\pmc_tostring.cpp

; 1122 :                 x = _ROTATE_L_UNIT(x, 4); writer->Write(digit_table[x & 0x0f]);

  00256	8b c6		 mov	 eax, esi
  00258	83 e0 0f	 and	 eax, 15			; 0000000fH
  0025b	0f b7 04 43	 movzx	 eax, WORD PTR [ebx+eax*2]
  0025f	50		 push	 eax
  00260	ff 52 04	 call	 DWORD PTR [edx+4]
  00263	8b 45 fc	 mov	 eax, DWORD PTR _count$1$[ebp]
$LN6@OutputHexN:

; 1123 :             }
; 1124 :             if (count & 0x2)

  00266	a8 02		 test	 al, 2
  00268	74 2b		 je	 SHORT $LN7@OutputHexN

; 1126 :                 x = _ROTATE_L_UNIT(x, 4); writer->Write(digit_table[x & 0x0f]);

  0026a	8b 17		 mov	 edx, DWORD PTR [edi]
  0026c	8b cf		 mov	 ecx, edi
; File z:\sources\lunor\repos\rougemeilland\palmtree.math.core.uint\palmtree.math.core.uint\pmc_inline_func.h

; 331  :             return (_rotl(x, count));

  0026e	c1 c6 04	 rol	 esi, 4
; File z:\sources\lunor\repos\rougemeilland\palmtree.math.core.uint\palmtree.math.core.uint\pmc_tostring.cpp

; 1126 :                 x = _ROTATE_L_UNIT(x, 4); writer->Write(digit_table[x & 0x0f]);

  00271	8b c6		 mov	 eax, esi
  00273	83 e0 0f	 and	 eax, 15			; 0000000fH
  00276	0f b7 04 43	 movzx	 eax, WORD PTR [ebx+eax*2]
  0027a	50		 push	 eax
  0027b	ff 52 04	 call	 DWORD PTR [edx+4]

; 1127 :                 x = _ROTATE_L_UNIT(x, 4); writer->Write(digit_table[x & 0x0f]);

  0027e	8b 17		 mov	 edx, DWORD PTR [edi]
  00280	8b cf		 mov	 ecx, edi
; File z:\sources\lunor\repos\rougemeilland\palmtree.math.core.uint\palmtree.math.core.uint\pmc_inline_func.h

; 331  :             return (_rotl(x, count));

  00282	c1 c6 04	 rol	 esi, 4
; File z:\sources\lunor\repos\rougemeilland\palmtree.math.core.uint\palmtree.math.core.uint\pmc_tostring.cpp

; 1127 :                 x = _ROTATE_L_UNIT(x, 4); writer->Write(digit_table[x & 0x0f]);

  00285	8b c6		 mov	 eax, esi
  00287	83 e0 0f	 and	 eax, 15			; 0000000fH
  0028a	0f b7 04 43	 movzx	 eax, WORD PTR [ebx+eax*2]
  0028e	50		 push	 eax
  0028f	ff 52 04	 call	 DWORD PTR [edx+4]
  00292	8b 45 fc	 mov	 eax, DWORD PTR _count$1$[ebp]
$LN7@OutputHexN:

; 1128 :             }
; 1129 :             if (count & 0x1)

  00295	a8 01		 test	 al, 1
  00297	74 12		 je	 SHORT $LN8@OutputHexN

; 1131 :                 x = _ROTATE_L_UNIT(x, 4); writer->Write(digit_table[x & 0x0f]);

  00299	8b 17		 mov	 edx, DWORD PTR [edi]
  0029b	8b cf		 mov	 ecx, edi
; File z:\sources\lunor\repos\rougemeilland\palmtree.math.core.uint\palmtree.math.core.uint\pmc_inline_func.h

; 331  :             return (_rotl(x, count));

  0029d	c1 c6 04	 rol	 esi, 4
; File z:\sources\lunor\repos\rougemeilland\palmtree.math.core.uint\palmtree.math.core.uint\pmc_tostring.cpp

; 1131 :                 x = _ROTATE_L_UNIT(x, 4); writer->Write(digit_table[x & 0x0f]);

  002a0	83 e6 0f	 and	 esi, 15			; 0000000fH
  002a3	0f b7 04 73	 movzx	 eax, WORD PTR [ebx+esi*2]
  002a7	50		 push	 eax
  002a8	ff 52 04	 call	 DWORD PTR [edx+4]
$LN8@OutputHexN:

; 1132 :             }
; 1133 :         }

  002ab	5f		 pop	 edi
  002ac	5e		 pop	 esi
  002ad	5b		 pop	 ebx
  002ae	8b e5		 mov	 esp, ebp
  002b0	5d		 pop	 ebp
  002b1	c3		 ret	 0
?OutputHexNumberSequenceOneWord@HexaDecimalFormatter@Internal@Core@Math@Palmtree@@YAXIIPA_WPAVStringWriter@2345@@Z ENDP ; Palmtree::Math::Core::Internal::HexaDecimalFormatter::OutputHexNumberSequenceOneWord
_TEXT	ENDS
; Function compile flags: /Ogtp
; File z:\sources\lunor\repos\rougemeilland\palmtree.math.core.uint\palmtree.math.core.uint\pmc_tostring.cpp
; File z:\sources\lunor\repos\rougemeilland\palmtree.math.core.uint\palmtree.math.core.uint\pmc_stringio.h
; File z:\sources\lunor\repos\rougemeilland\palmtree.math.core.uint\palmtree.math.core.uint\pmc_tostring.cpp
; File z:\sources\lunor\repos\rougemeilland\palmtree.math.core.uint\palmtree.math.core.uint\pmc_stringio.h
; File z:\sources\lunor\repos\rougemeilland\palmtree.math.core.uint\palmtree.math.core.uint\pmc_tostring.cpp
; File z:\sources\lunor\repos\rougemeilland\palmtree.math.core.uint\palmtree.math.core.uint\pmc_stringio.h
; File z:\sources\lunor\repos\rougemeilland\palmtree.math.core.uint\palmtree.math.core.uint\pmc_tostring.cpp
; File z:\sources\lunor\repos\rougemeilland\palmtree.math.core.uint\palmtree.math.core.uint\pmc_stringio.h
; File z:\sources\lunor\repos\rougemeilland\palmtree.math.core.uint\palmtree.math.core.uint\pmc_tostring.cpp
; File z:\sources\lunor\repos\rougemeilland\palmtree.math.core.uint\palmtree.math.core.uint\pmc_stringio.h
; File z:\sources\lunor\repos\rougemeilland\palmtree.math.core.uint\palmtree.math.core.uint\pmc_tostring.cpp
;	COMDAT ?ToStringP@DecimalFromatter@Internal@Core@Math@Palmtree@@YAIDPAU__tag_NUMBER_HEADER@2345@_WHPBU__tag_PMC_NUMBER_FORMAT_INFO@2345@PA_WI@Z
_TEXT	SEGMENT
_formatter$ = -44					; size = 24
_writer$ = -20						; size = 20
_x_sign$ = 8						; size = 1
_x_abs$ = 12						; size = 4
_format_type$ = 16					; size = 2
_precision$ = 20					; size = 4
_format_option$ = 24					; size = 4
_buffer$ = 28						; size = 4
_buffer_size$ = 32					; size = 4
?ToStringP@DecimalFromatter@Internal@Core@Math@Palmtree@@YAIDPAU__tag_NUMBER_HEADER@2345@_WHPBU__tag_PMC_NUMBER_FORMAT_INFO@2345@PA_WI@Z PROC ; Palmtree::Math::Core::Internal::DecimalFromatter::ToStringP, COMDAT

; 1059 :         {

  00000	55		 push	 ebp
  00001	8b ec		 mov	 ebp, esp
; File z:\sources\lunor\repos\rougemeilland\palmtree.math.core.uint\palmtree.math.core.uint\pmc_stringio.h

; 209  :             : StringWriter(buffer, buffer, buffer != nullptr ? buffer + size : nullptr)

  00003	8b 4d 1c	 mov	 ecx, DWORD PTR _buffer$[ebp]
; File z:\sources\lunor\repos\rougemeilland\palmtree.math.core.uint\palmtree.math.core.uint\pmc_tostring.cpp

; 1059 :         {

  00006	83 ec 2c	 sub	 esp, 44			; 0000002cH
; File z:\sources\lunor\repos\rougemeilland\palmtree.math.core.uint\palmtree.math.core.uint\pmc_stringio.h

; 209  :             : StringWriter(buffer, buffer, buffer != nullptr ? buffer + size : nullptr)

  00009	85 c9		 test	 ecx, ecx
  0000b	74 08		 je	 SHORT $LN5@ToStringP
  0000d	8b 45 20	 mov	 eax, DWORD PTR _buffer_size$[ebp]
  00010	8d 04 41	 lea	 eax, DWORD PTR [ecx+eax*2]
  00013	eb 02		 jmp	 SHORT $LN6@ToStringP
$LN5@ToStringP:
  00015	33 c0		 xor	 eax, eax
$LN6@ToStringP:

; 203  :             _eob = eob;

  00017	89 45 f8	 mov	 DWORD PTR _writer$[ebp+12], eax
; File z:\sources\lunor\repos\rougemeilland\palmtree.math.core.uint\palmtree.math.core.uint\pmc_tostring.cpp

; 158  :                 _format_type = format_type;

  0001a	b8 50 00 00 00	 mov	 eax, 80			; 00000050H
  0001f	66 89 45 e0	 mov	 WORD PTR _formatter$[ebp+12], ax

; 159  :                 _precision = precision;

  00023	8b 45 14	 mov	 eax, DWORD PTR _precision$[ebp]
  00026	89 45 e4	 mov	 DWORD PTR _formatter$[ebp+16], eax

; 160  :                 _number_format_info = number_format_info;

  00029	8b 45 18	 mov	 eax, DWORD PTR _format_option$[ebp]
  0002c	89 45 e8	 mov	 DWORD PTR _formatter$[ebp+20], eax

; 1062 :             formatter.Format(x_sign, x_abs, &writer);

  0002f	8d 45 ec	 lea	 eax, DWORD PTR _writer$[ebp]
  00032	50		 push	 eax
  00033	ff 75 0c	 push	 DWORD PTR _x_abs$[ebp]
; File z:\sources\lunor\repos\rougemeilland\palmtree.math.core.uint\palmtree.math.core.uint\pmc_stringio.h

; 201  :             _p = p;

  00036	89 4d f0	 mov	 DWORD PTR _writer$[ebp+4], ecx
; File z:\sources\lunor\repos\rougemeilland\palmtree.math.core.uint\palmtree.math.core.uint\pmc_tostring.cpp

; 1062 :             formatter.Format(x_sign, x_abs, &writer);

  00039	ff 75 08	 push	 DWORD PTR _x_sign$[ebp]
; File z:\sources\lunor\repos\rougemeilland\palmtree.math.core.uint\palmtree.math.core.uint\pmc_stringio.h

; 202  :             _sob = sob;

  0003c	89 4d f4	 mov	 DWORD PTR _writer$[ebp+8], ecx
; File z:\sources\lunor\repos\rougemeilland\palmtree.math.core.uint\palmtree.math.core.uint\pmc_tostring.cpp

; 1062 :             formatter.Format(x_sign, x_abs, &writer);

  0003f	8d 4d d4	 lea	 ecx, DWORD PTR _formatter$[ebp]
; File z:\sources\lunor\repos\rougemeilland\palmtree.math.core.uint\palmtree.math.core.uint\pmc_stringio.h

; 204  :             _written = 0;

  00042	c7 45 fc 00 00
	00 00		 mov	 DWORD PTR _writer$[ebp+16], 0

; 210  :         {

  00049	c7 45 ec 00 00
	00 00		 mov	 DWORD PTR _writer$[ebp], OFFSET ??_7StringWriter@Internal@Core@Math@Palmtree@@6B@
; File z:\sources\lunor\repos\rougemeilland\palmtree.math.core.uint\palmtree.math.core.uint\pmc_tostring.cpp

; 141  :             const __UNIT_TYPE _10n_base_number = 1000000000U; // 10^9

  00050	c7 45 d8 00 ca
	9a 3b		 mov	 DWORD PTR _formatter$[ebp+4], 1000000000 ; 3b9aca00H

; 142  :             const int digit_count_on_word = 9;

  00057	c7 45 dc 09 00
	00 00		 mov	 DWORD PTR _formatter$[ebp+8], 9

; 835  :             {

  0005e	c7 45 d4 00 00
	00 00		 mov	 DWORD PTR _formatter$[ebp], OFFSET ??_7FormatterTypeP@DecimalFromatter@Internal@Core@Math@Palmtree@@6B@

; 1062 :             formatter.Format(x_sign, x_abs, &writer);

  00065	e8 00 00 00 00	 call	 ?Format@Formatter@DecimalFromatter@Internal@Core@Math@Palmtree@@QAEXDPAU__tag_NUMBER_HEADER@3456@PAVStringWriter@3456@@Z ; Palmtree::Math::Core::Internal::DecimalFromatter::Formatter::Format

; 1063 :             return (writer.GetLength());

  0006a	8b 45 fc	 mov	 eax, DWORD PTR _writer$[ebp+16]

; 1064 :         }

  0006d	8b e5		 mov	 esp, ebp
  0006f	5d		 pop	 ebp
  00070	c3		 ret	 0
?ToStringP@DecimalFromatter@Internal@Core@Math@Palmtree@@YAIDPAU__tag_NUMBER_HEADER@2345@_WHPBU__tag_PMC_NUMBER_FORMAT_INFO@2345@PA_WI@Z ENDP ; Palmtree::Math::Core::Internal::DecimalFromatter::ToStringP
_TEXT	ENDS
; Function compile flags: /Ogtp
; File z:\sources\lunor\repos\rougemeilland\palmtree.math.core.uint\palmtree.math.core.uint\pmc_tostring.cpp
; File z:\sources\lunor\repos\rougemeilland\palmtree.math.core.uint\palmtree.math.core.uint\pmc_stringio.h
; File z:\sources\lunor\repos\rougemeilland\palmtree.math.core.uint\palmtree.math.core.uint\pmc_tostring.cpp
; File z:\sources\lunor\repos\rougemeilland\palmtree.math.core.uint\palmtree.math.core.uint\pmc_stringio.h
; File z:\sources\lunor\repos\rougemeilland\palmtree.math.core.uint\palmtree.math.core.uint\pmc_tostring.cpp
; File z:\sources\lunor\repos\rougemeilland\palmtree.math.core.uint\palmtree.math.core.uint\pmc_stringio.h
; File z:\sources\lunor\repos\rougemeilland\palmtree.math.core.uint\palmtree.math.core.uint\pmc_tostring.cpp
; File z:\sources\lunor\repos\rougemeilland\palmtree.math.core.uint\palmtree.math.core.uint\pmc_stringio.h
; File z:\sources\lunor\repos\rougemeilland\palmtree.math.core.uint\palmtree.math.core.uint\pmc_tostring.cpp
; File z:\sources\lunor\repos\rougemeilland\palmtree.math.core.uint\palmtree.math.core.uint\pmc_stringio.h
; File z:\sources\lunor\repos\rougemeilland\palmtree.math.core.uint\palmtree.math.core.uint\pmc_tostring.cpp
;	COMDAT ?ToStringN@DecimalFromatter@Internal@Core@Math@Palmtree@@YAIDPAU__tag_NUMBER_HEADER@2345@_WHPBU__tag_PMC_NUMBER_FORMAT_INFO@2345@PA_WI@Z
_TEXT	SEGMENT
_formatter$ = -44					; size = 24
_writer$ = -20						; size = 20
_x_sign$ = 8						; size = 1
_x_abs$ = 12						; size = 4
_format_type$ = 16					; size = 2
_precision$ = 20					; size = 4
_format_option$ = 24					; size = 4
_buffer$ = 28						; size = 4
_buffer_size$ = 32					; size = 4
?ToStringN@DecimalFromatter@Internal@Core@Math@Palmtree@@YAIDPAU__tag_NUMBER_HEADER@2345@_WHPBU__tag_PMC_NUMBER_FORMAT_INFO@2345@PA_WI@Z PROC ; Palmtree::Math::Core::Internal::DecimalFromatter::ToStringN, COMDAT

; 1050 :         {

  00000	55		 push	 ebp
  00001	8b ec		 mov	 ebp, esp
; File z:\sources\lunor\repos\rougemeilland\palmtree.math.core.uint\palmtree.math.core.uint\pmc_stringio.h

; 209  :             : StringWriter(buffer, buffer, buffer != nullptr ? buffer + size : nullptr)

  00003	8b 4d 1c	 mov	 ecx, DWORD PTR _buffer$[ebp]
; File z:\sources\lunor\repos\rougemeilland\palmtree.math.core.uint\palmtree.math.core.uint\pmc_tostring.cpp

; 1050 :         {

  00006	83 ec 2c	 sub	 esp, 44			; 0000002cH
; File z:\sources\lunor\repos\rougemeilland\palmtree.math.core.uint\palmtree.math.core.uint\pmc_stringio.h

; 209  :             : StringWriter(buffer, buffer, buffer != nullptr ? buffer + size : nullptr)

  00009	85 c9		 test	 ecx, ecx
  0000b	74 08		 je	 SHORT $LN5@ToStringN
  0000d	8b 45 20	 mov	 eax, DWORD PTR _buffer_size$[ebp]
  00010	8d 04 41	 lea	 eax, DWORD PTR [ecx+eax*2]
  00013	eb 02		 jmp	 SHORT $LN6@ToStringN
$LN5@ToStringN:
  00015	33 c0		 xor	 eax, eax
$LN6@ToStringN:

; 203  :             _eob = eob;

  00017	89 45 f8	 mov	 DWORD PTR _writer$[ebp+12], eax
; File z:\sources\lunor\repos\rougemeilland\palmtree.math.core.uint\palmtree.math.core.uint\pmc_tostring.cpp

; 158  :                 _format_type = format_type;

  0001a	b8 4e 00 00 00	 mov	 eax, 78			; 0000004eH
  0001f	66 89 45 e0	 mov	 WORD PTR _formatter$[ebp+12], ax

; 159  :                 _precision = precision;

  00023	8b 45 14	 mov	 eax, DWORD PTR _precision$[ebp]
  00026	89 45 e4	 mov	 DWORD PTR _formatter$[ebp+16], eax

; 160  :                 _number_format_info = number_format_info;

  00029	8b 45 18	 mov	 eax, DWORD PTR _format_option$[ebp]
  0002c	89 45 e8	 mov	 DWORD PTR _formatter$[ebp+20], eax

; 1053 :             formatter.Format(x_sign, x_abs, &writer);

  0002f	8d 45 ec	 lea	 eax, DWORD PTR _writer$[ebp]
  00032	50		 push	 eax
  00033	ff 75 0c	 push	 DWORD PTR _x_abs$[ebp]
; File z:\sources\lunor\repos\rougemeilland\palmtree.math.core.uint\palmtree.math.core.uint\pmc_stringio.h

; 201  :             _p = p;

  00036	89 4d f0	 mov	 DWORD PTR _writer$[ebp+4], ecx
; File z:\sources\lunor\repos\rougemeilland\palmtree.math.core.uint\palmtree.math.core.uint\pmc_tostring.cpp

; 1053 :             formatter.Format(x_sign, x_abs, &writer);

  00039	ff 75 08	 push	 DWORD PTR _x_sign$[ebp]
; File z:\sources\lunor\repos\rougemeilland\palmtree.math.core.uint\palmtree.math.core.uint\pmc_stringio.h

; 202  :             _sob = sob;

  0003c	89 4d f4	 mov	 DWORD PTR _writer$[ebp+8], ecx
; File z:\sources\lunor\repos\rougemeilland\palmtree.math.core.uint\palmtree.math.core.uint\pmc_tostring.cpp

; 1053 :             formatter.Format(x_sign, x_abs, &writer);

  0003f	8d 4d d4	 lea	 ecx, DWORD PTR _formatter$[ebp]
; File z:\sources\lunor\repos\rougemeilland\palmtree.math.core.uint\palmtree.math.core.uint\pmc_stringio.h

; 204  :             _written = 0;

  00042	c7 45 fc 00 00
	00 00		 mov	 DWORD PTR _writer$[ebp+16], 0

; 210  :         {

  00049	c7 45 ec 00 00
	00 00		 mov	 DWORD PTR _writer$[ebp], OFFSET ??_7StringWriter@Internal@Core@Math@Palmtree@@6B@
; File z:\sources\lunor\repos\rougemeilland\palmtree.math.core.uint\palmtree.math.core.uint\pmc_tostring.cpp

; 141  :             const __UNIT_TYPE _10n_base_number = 1000000000U; // 10^9

  00050	c7 45 d8 00 ca
	9a 3b		 mov	 DWORD PTR _formatter$[ebp+4], 1000000000 ; 3b9aca00H

; 142  :             const int digit_count_on_word = 9;

  00057	c7 45 dc 09 00
	00 00		 mov	 DWORD PTR _formatter$[ebp+8], 9

; 735  :             {

  0005e	c7 45 d4 00 00
	00 00		 mov	 DWORD PTR _formatter$[ebp], OFFSET ??_7FormatterTypeN@DecimalFromatter@Internal@Core@Math@Palmtree@@6B@

; 1053 :             formatter.Format(x_sign, x_abs, &writer);

  00065	e8 00 00 00 00	 call	 ?Format@Formatter@DecimalFromatter@Internal@Core@Math@Palmtree@@QAEXDPAU__tag_NUMBER_HEADER@3456@PAVStringWriter@3456@@Z ; Palmtree::Math::Core::Internal::DecimalFromatter::Formatter::Format

; 1054 :             return (writer.GetLength());

  0006a	8b 45 fc	 mov	 eax, DWORD PTR _writer$[ebp+16]

; 1055 :         }

  0006d	8b e5		 mov	 esp, ebp
  0006f	5d		 pop	 ebp
  00070	c3		 ret	 0
?ToStringN@DecimalFromatter@Internal@Core@Math@Palmtree@@YAIDPAU__tag_NUMBER_HEADER@2345@_WHPBU__tag_PMC_NUMBER_FORMAT_INFO@2345@PA_WI@Z ENDP ; Palmtree::Math::Core::Internal::DecimalFromatter::ToStringN
_TEXT	ENDS
; Function compile flags: /Ogtp
; File z:\sources\lunor\repos\rougemeilland\palmtree.math.core.uint\palmtree.math.core.uint\pmc_tostring.cpp
; File z:\sources\lunor\repos\rougemeilland\palmtree.math.core.uint\palmtree.math.core.uint\pmc_stringio.h
; File z:\sources\lunor\repos\rougemeilland\palmtree.math.core.uint\palmtree.math.core.uint\pmc_tostring.cpp
; File z:\sources\lunor\repos\rougemeilland\palmtree.math.core.uint\palmtree.math.core.uint\pmc_stringio.h
; File z:\sources\lunor\repos\rougemeilland\palmtree.math.core.uint\palmtree.math.core.uint\pmc_tostring.cpp
; File z:\sources\lunor\repos\rougemeilland\palmtree.math.core.uint\palmtree.math.core.uint\pmc_stringio.h
; File z:\sources\lunor\repos\rougemeilland\palmtree.math.core.uint\palmtree.math.core.uint\pmc_tostring.cpp
; File z:\sources\lunor\repos\rougemeilland\palmtree.math.core.uint\palmtree.math.core.uint\pmc_stringio.h
; File z:\sources\lunor\repos\rougemeilland\palmtree.math.core.uint\palmtree.math.core.uint\pmc_tostring.cpp
; File z:\sources\lunor\repos\rougemeilland\palmtree.math.core.uint\palmtree.math.core.uint\pmc_stringio.h
; File z:\sources\lunor\repos\rougemeilland\palmtree.math.core.uint\palmtree.math.core.uint\pmc_tostring.cpp
;	COMDAT ?ToStringF@DecimalFromatter@Internal@Core@Math@Palmtree@@YAIDPAU__tag_NUMBER_HEADER@2345@_WHPBU__tag_PMC_NUMBER_FORMAT_INFO@2345@PA_WI@Z
_TEXT	SEGMENT
_formatter$ = -44					; size = 24
_writer$ = -20						; size = 20
_x_sign$ = 8						; size = 1
_x_abs$ = 12						; size = 4
_format_type$ = 16					; size = 2
_precision$ = 20					; size = 4
_format_option$ = 24					; size = 4
_buffer$ = 28						; size = 4
_buffer_size$ = 32					; size = 4
?ToStringF@DecimalFromatter@Internal@Core@Math@Palmtree@@YAIDPAU__tag_NUMBER_HEADER@2345@_WHPBU__tag_PMC_NUMBER_FORMAT_INFO@2345@PA_WI@Z PROC ; Palmtree::Math::Core::Internal::DecimalFromatter::ToStringF, COMDAT

; 1042 :         {

  00000	55		 push	 ebp
  00001	8b ec		 mov	 ebp, esp
; File z:\sources\lunor\repos\rougemeilland\palmtree.math.core.uint\palmtree.math.core.uint\pmc_stringio.h

; 209  :             : StringWriter(buffer, buffer, buffer != nullptr ? buffer + size : nullptr)

  00003	8b 4d 1c	 mov	 ecx, DWORD PTR _buffer$[ebp]
; File z:\sources\lunor\repos\rougemeilland\palmtree.math.core.uint\palmtree.math.core.uint\pmc_tostring.cpp

; 1042 :         {

  00006	83 ec 2c	 sub	 esp, 44			; 0000002cH
; File z:\sources\lunor\repos\rougemeilland\palmtree.math.core.uint\palmtree.math.core.uint\pmc_stringio.h

; 209  :             : StringWriter(buffer, buffer, buffer != nullptr ? buffer + size : nullptr)

  00009	85 c9		 test	 ecx, ecx
  0000b	74 08		 je	 SHORT $LN5@ToStringF
  0000d	8b 45 20	 mov	 eax, DWORD PTR _buffer_size$[ebp]
  00010	8d 04 41	 lea	 eax, DWORD PTR [ecx+eax*2]
  00013	eb 02		 jmp	 SHORT $LN6@ToStringF
$LN5@ToStringF:
  00015	33 c0		 xor	 eax, eax
$LN6@ToStringF:

; 203  :             _eob = eob;

  00017	89 45 f8	 mov	 DWORD PTR _writer$[ebp+12], eax
; File z:\sources\lunor\repos\rougemeilland\palmtree.math.core.uint\palmtree.math.core.uint\pmc_tostring.cpp

; 158  :                 _format_type = format_type;

  0001a	b8 46 00 00 00	 mov	 eax, 70			; 00000046H
  0001f	66 89 45 e0	 mov	 WORD PTR _formatter$[ebp+12], ax

; 159  :                 _precision = precision;

  00023	8b 45 14	 mov	 eax, DWORD PTR _precision$[ebp]
  00026	89 45 e4	 mov	 DWORD PTR _formatter$[ebp+16], eax

; 160  :                 _number_format_info = number_format_info;

  00029	8b 45 18	 mov	 eax, DWORD PTR _format_option$[ebp]
  0002c	89 45 e8	 mov	 DWORD PTR _formatter$[ebp+20], eax

; 1045 :             formatter.Format(x_sign, x_abs, &writer);

  0002f	8d 45 ec	 lea	 eax, DWORD PTR _writer$[ebp]
  00032	50		 push	 eax
  00033	ff 75 0c	 push	 DWORD PTR _x_abs$[ebp]
; File z:\sources\lunor\repos\rougemeilland\palmtree.math.core.uint\palmtree.math.core.uint\pmc_stringio.h

; 201  :             _p = p;

  00036	89 4d f0	 mov	 DWORD PTR _writer$[ebp+4], ecx
; File z:\sources\lunor\repos\rougemeilland\palmtree.math.core.uint\palmtree.math.core.uint\pmc_tostring.cpp

; 1045 :             formatter.Format(x_sign, x_abs, &writer);

  00039	ff 75 08	 push	 DWORD PTR _x_sign$[ebp]
; File z:\sources\lunor\repos\rougemeilland\palmtree.math.core.uint\palmtree.math.core.uint\pmc_stringio.h

; 202  :             _sob = sob;

  0003c	89 4d f4	 mov	 DWORD PTR _writer$[ebp+8], ecx
; File z:\sources\lunor\repos\rougemeilland\palmtree.math.core.uint\palmtree.math.core.uint\pmc_tostring.cpp

; 1045 :             formatter.Format(x_sign, x_abs, &writer);

  0003f	8d 4d d4	 lea	 ecx, DWORD PTR _formatter$[ebp]
; File z:\sources\lunor\repos\rougemeilland\palmtree.math.core.uint\palmtree.math.core.uint\pmc_stringio.h

; 204  :             _written = 0;

  00042	c7 45 fc 00 00
	00 00		 mov	 DWORD PTR _writer$[ebp+16], 0

; 210  :         {

  00049	c7 45 ec 00 00
	00 00		 mov	 DWORD PTR _writer$[ebp], OFFSET ??_7StringWriter@Internal@Core@Math@Palmtree@@6B@
; File z:\sources\lunor\repos\rougemeilland\palmtree.math.core.uint\palmtree.math.core.uint\pmc_tostring.cpp

; 141  :             const __UNIT_TYPE _10n_base_number = 1000000000U; // 10^9

  00050	c7 45 d8 00 ca
	9a 3b		 mov	 DWORD PTR _formatter$[ebp+4], 1000000000 ; 3b9aca00H

; 142  :             const int digit_count_on_word = 9;

  00057	c7 45 dc 09 00
	00 00		 mov	 DWORD PTR _formatter$[ebp+8], 9

; 689  :             {

  0005e	c7 45 d4 00 00
	00 00		 mov	 DWORD PTR _formatter$[ebp], OFFSET ??_7FormatterTypeF@DecimalFromatter@Internal@Core@Math@Palmtree@@6B@

; 1045 :             formatter.Format(x_sign, x_abs, &writer);

  00065	e8 00 00 00 00	 call	 ?Format@Formatter@DecimalFromatter@Internal@Core@Math@Palmtree@@QAEXDPAU__tag_NUMBER_HEADER@3456@PAVStringWriter@3456@@Z ; Palmtree::Math::Core::Internal::DecimalFromatter::Formatter::Format

; 1046 :             return (writer.GetLength());

  0006a	8b 45 fc	 mov	 eax, DWORD PTR _writer$[ebp+16]

; 1047 :         }

  0006d	8b e5		 mov	 esp, ebp
  0006f	5d		 pop	 ebp
  00070	c3		 ret	 0
?ToStringF@DecimalFromatter@Internal@Core@Math@Palmtree@@YAIDPAU__tag_NUMBER_HEADER@2345@_WHPBU__tag_PMC_NUMBER_FORMAT_INFO@2345@PA_WI@Z ENDP ; Palmtree::Math::Core::Internal::DecimalFromatter::ToStringF
_TEXT	ENDS
; Function compile flags: /Ogtp
; File z:\sources\lunor\repos\rougemeilland\palmtree.math.core.uint\palmtree.math.core.uint\pmc_tostring.cpp
; File z:\sources\lunor\repos\rougemeilland\palmtree.math.core.uint\palmtree.math.core.uint\pmc_stringio.h
; File z:\sources\lunor\repos\rougemeilland\palmtree.math.core.uint\palmtree.math.core.uint\pmc_tostring.cpp
; File z:\sources\lunor\repos\rougemeilland\palmtree.math.core.uint\palmtree.math.core.uint\pmc_stringio.h
; File z:\sources\lunor\repos\rougemeilland\palmtree.math.core.uint\palmtree.math.core.uint\pmc_tostring.cpp
; File z:\sources\lunor\repos\rougemeilland\palmtree.math.core.uint\palmtree.math.core.uint\pmc_stringio.h
; File z:\sources\lunor\repos\rougemeilland\palmtree.math.core.uint\palmtree.math.core.uint\pmc_tostring.cpp
; File z:\sources\lunor\repos\rougemeilland\palmtree.math.core.uint\palmtree.math.core.uint\pmc_stringio.h
; File z:\sources\lunor\repos\rougemeilland\palmtree.math.core.uint\palmtree.math.core.uint\pmc_tostring.cpp
; File z:\sources\lunor\repos\rougemeilland\palmtree.math.core.uint\palmtree.math.core.uint\pmc_stringio.h
; File z:\sources\lunor\repos\rougemeilland\palmtree.math.core.uint\palmtree.math.core.uint\pmc_tostring.cpp
;	COMDAT ?ToStringE@DecimalFromatter@Internal@Core@Math@Palmtree@@YAIDPAU__tag_NUMBER_HEADER@2345@_WHPBU__tag_PMC_NUMBER_FORMAT_INFO@2345@PA_WI@Z
_TEXT	SEGMENT
_formatter$ = -44					; size = 24
_writer$ = -20						; size = 20
_x_sign$ = 8						; size = 1
_x_abs$ = 12						; size = 4
_format_type$ = 16					; size = 2
_precision$ = 20					; size = 4
_format_option$ = 24					; size = 4
_buffer$ = 28						; size = 4
_buffer_size$ = 32					; size = 4
?ToStringE@DecimalFromatter@Internal@Core@Math@Palmtree@@YAIDPAU__tag_NUMBER_HEADER@2345@_WHPBU__tag_PMC_NUMBER_FORMAT_INFO@2345@PA_WI@Z PROC ; Palmtree::Math::Core::Internal::DecimalFromatter::ToStringE, COMDAT

; 1034 :         {

  00000	55		 push	 ebp
  00001	8b ec		 mov	 ebp, esp
; File z:\sources\lunor\repos\rougemeilland\palmtree.math.core.uint\palmtree.math.core.uint\pmc_stringio.h

; 209  :             : StringWriter(buffer, buffer, buffer != nullptr ? buffer + size : nullptr)

  00003	8b 4d 1c	 mov	 ecx, DWORD PTR _buffer$[ebp]
; File z:\sources\lunor\repos\rougemeilland\palmtree.math.core.uint\palmtree.math.core.uint\pmc_tostring.cpp

; 1034 :         {

  00006	83 ec 2c	 sub	 esp, 44			; 0000002cH
; File z:\sources\lunor\repos\rougemeilland\palmtree.math.core.uint\palmtree.math.core.uint\pmc_stringio.h

; 209  :             : StringWriter(buffer, buffer, buffer != nullptr ? buffer + size : nullptr)

  00009	85 c9		 test	 ecx, ecx
  0000b	74 08		 je	 SHORT $LN5@ToStringE
  0000d	8b 45 20	 mov	 eax, DWORD PTR _buffer_size$[ebp]
  00010	8d 04 41	 lea	 eax, DWORD PTR [ecx+eax*2]
  00013	eb 02		 jmp	 SHORT $LN6@ToStringE
$LN5@ToStringE:
  00015	33 c0		 xor	 eax, eax
$LN6@ToStringE:

; 203  :             _eob = eob;

  00017	89 45 f8	 mov	 DWORD PTR _writer$[ebp+12], eax
; File z:\sources\lunor\repos\rougemeilland\palmtree.math.core.uint\palmtree.math.core.uint\pmc_tostring.cpp

; 158  :                 _format_type = format_type;

  0001a	66 8b 45 10	 mov	 ax, WORD PTR _format_type$[ebp]
  0001e	66 89 45 e0	 mov	 WORD PTR _formatter$[ebp+12], ax

; 159  :                 _precision = precision;

  00022	8b 45 14	 mov	 eax, DWORD PTR _precision$[ebp]
  00025	89 45 e4	 mov	 DWORD PTR _formatter$[ebp+16], eax

; 160  :                 _number_format_info = number_format_info;

  00028	8b 45 18	 mov	 eax, DWORD PTR _format_option$[ebp]
  0002b	89 45 e8	 mov	 DWORD PTR _formatter$[ebp+20], eax

; 1037 :             formatter.Format(x_sign, x_abs, &writer);

  0002e	8d 45 ec	 lea	 eax, DWORD PTR _writer$[ebp]
  00031	50		 push	 eax
  00032	ff 75 0c	 push	 DWORD PTR _x_abs$[ebp]
; File z:\sources\lunor\repos\rougemeilland\palmtree.math.core.uint\palmtree.math.core.uint\pmc_stringio.h

; 201  :             _p = p;

  00035	89 4d f0	 mov	 DWORD PTR _writer$[ebp+4], ecx
; File z:\sources\lunor\repos\rougemeilland\palmtree.math.core.uint\palmtree.math.core.uint\pmc_tostring.cpp

; 1037 :             formatter.Format(x_sign, x_abs, &writer);

  00038	ff 75 08	 push	 DWORD PTR _x_sign$[ebp]
; File z:\sources\lunor\repos\rougemeilland\palmtree.math.core.uint\palmtree.math.core.uint\pmc_stringio.h

; 202  :             _sob = sob;

  0003b	89 4d f4	 mov	 DWORD PTR _writer$[ebp+8], ecx
; File z:\sources\lunor\repos\rougemeilland\palmtree.math.core.uint\palmtree.math.core.uint\pmc_tostring.cpp

; 1037 :             formatter.Format(x_sign, x_abs, &writer);

  0003e	8d 4d d4	 lea	 ecx, DWORD PTR _formatter$[ebp]
; File z:\sources\lunor\repos\rougemeilland\palmtree.math.core.uint\palmtree.math.core.uint\pmc_stringio.h

; 204  :             _written = 0;

  00041	c7 45 fc 00 00
	00 00		 mov	 DWORD PTR _writer$[ebp+16], 0

; 210  :         {

  00048	c7 45 ec 00 00
	00 00		 mov	 DWORD PTR _writer$[ebp], OFFSET ??_7StringWriter@Internal@Core@Math@Palmtree@@6B@
; File z:\sources\lunor\repos\rougemeilland\palmtree.math.core.uint\palmtree.math.core.uint\pmc_tostring.cpp

; 141  :             const __UNIT_TYPE _10n_base_number = 1000000000U; // 10^9

  0004f	c7 45 d8 00 ca
	9a 3b		 mov	 DWORD PTR _formatter$[ebp+4], 1000000000 ; 3b9aca00H

; 142  :             const int digit_count_on_word = 9;

  00056	c7 45 dc 09 00
	00 00		 mov	 DWORD PTR _formatter$[ebp+8], 9

; 605  :             {

  0005d	c7 45 d4 00 00
	00 00		 mov	 DWORD PTR _formatter$[ebp], OFFSET ??_7FormatterTypeE@DecimalFromatter@Internal@Core@Math@Palmtree@@6B@

; 1037 :             formatter.Format(x_sign, x_abs, &writer);

  00064	e8 00 00 00 00	 call	 ?Format@Formatter@DecimalFromatter@Internal@Core@Math@Palmtree@@QAEXDPAU__tag_NUMBER_HEADER@3456@PAVStringWriter@3456@@Z ; Palmtree::Math::Core::Internal::DecimalFromatter::Formatter::Format

; 1038 :             return (writer.GetLength());

  00069	8b 45 fc	 mov	 eax, DWORD PTR _writer$[ebp+16]

; 1039 :         }

  0006c	8b e5		 mov	 esp, ebp
  0006e	5d		 pop	 ebp
  0006f	c3		 ret	 0
?ToStringE@DecimalFromatter@Internal@Core@Math@Palmtree@@YAIDPAU__tag_NUMBER_HEADER@2345@_WHPBU__tag_PMC_NUMBER_FORMAT_INFO@2345@PA_WI@Z ENDP ; Palmtree::Math::Core::Internal::DecimalFromatter::ToStringE
_TEXT	ENDS
; Function compile flags: /Ogtp
; File z:\sources\lunor\repos\rougemeilland\palmtree.math.core.uint\palmtree.math.core.uint\pmc_tostring.cpp
; File z:\sources\lunor\repos\rougemeilland\palmtree.math.core.uint\palmtree.math.core.uint\pmc_stringio.h
; File z:\sources\lunor\repos\rougemeilland\palmtree.math.core.uint\palmtree.math.core.uint\pmc_tostring.cpp
; File z:\sources\lunor\repos\rougemeilland\palmtree.math.core.uint\palmtree.math.core.uint\pmc_stringio.h
; File z:\sources\lunor\repos\rougemeilland\palmtree.math.core.uint\palmtree.math.core.uint\pmc_tostring.cpp
; File z:\sources\lunor\repos\rougemeilland\palmtree.math.core.uint\palmtree.math.core.uint\pmc_stringio.h
; File z:\sources\lunor\repos\rougemeilland\palmtree.math.core.uint\palmtree.math.core.uint\pmc_tostring.cpp
; File z:\sources\lunor\repos\rougemeilland\palmtree.math.core.uint\palmtree.math.core.uint\pmc_stringio.h
; File z:\sources\lunor\repos\rougemeilland\palmtree.math.core.uint\palmtree.math.core.uint\pmc_tostring.cpp
; File z:\sources\lunor\repos\rougemeilland\palmtree.math.core.uint\palmtree.math.core.uint\pmc_stringio.h
; File z:\sources\lunor\repos\rougemeilland\palmtree.math.core.uint\palmtree.math.core.uint\pmc_tostring.cpp
;	COMDAT ?ToStringD@DecimalFromatter@Internal@Core@Math@Palmtree@@YAIDPAU__tag_NUMBER_HEADER@2345@_WHPBU__tag_PMC_NUMBER_FORMAT_INFO@2345@PA_WI@Z
_TEXT	SEGMENT
_formatter$ = -44					; size = 24
_writer$ = -20						; size = 20
_x_sign$ = 8						; size = 1
_x_abs$ = 12						; size = 4
_format_type$ = 16					; size = 2
_precision$ = 20					; size = 4
_format_option$ = 24					; size = 4
_buffer$ = 28						; size = 4
_buffer_size$ = 32					; size = 4
?ToStringD@DecimalFromatter@Internal@Core@Math@Palmtree@@YAIDPAU__tag_NUMBER_HEADER@2345@_WHPBU__tag_PMC_NUMBER_FORMAT_INFO@2345@PA_WI@Z PROC ; Palmtree::Math::Core::Internal::DecimalFromatter::ToStringD, COMDAT

; 1026 :         {

  00000	55		 push	 ebp
  00001	8b ec		 mov	 ebp, esp
; File z:\sources\lunor\repos\rougemeilland\palmtree.math.core.uint\palmtree.math.core.uint\pmc_stringio.h

; 209  :             : StringWriter(buffer, buffer, buffer != nullptr ? buffer + size : nullptr)

  00003	8b 4d 1c	 mov	 ecx, DWORD PTR _buffer$[ebp]
; File z:\sources\lunor\repos\rougemeilland\palmtree.math.core.uint\palmtree.math.core.uint\pmc_tostring.cpp

; 1026 :         {

  00006	83 ec 2c	 sub	 esp, 44			; 0000002cH
; File z:\sources\lunor\repos\rougemeilland\palmtree.math.core.uint\palmtree.math.core.uint\pmc_stringio.h

; 209  :             : StringWriter(buffer, buffer, buffer != nullptr ? buffer + size : nullptr)

  00009	85 c9		 test	 ecx, ecx
  0000b	74 08		 je	 SHORT $LN5@ToStringD
  0000d	8b 45 20	 mov	 eax, DWORD PTR _buffer_size$[ebp]
  00010	8d 04 41	 lea	 eax, DWORD PTR [ecx+eax*2]
  00013	eb 02		 jmp	 SHORT $LN6@ToStringD
$LN5@ToStringD:
  00015	33 c0		 xor	 eax, eax
$LN6@ToStringD:

; 203  :             _eob = eob;

  00017	89 45 f8	 mov	 DWORD PTR _writer$[ebp+12], eax
; File z:\sources\lunor\repos\rougemeilland\palmtree.math.core.uint\palmtree.math.core.uint\pmc_tostring.cpp

; 158  :                 _format_type = format_type;

  0001a	b8 44 00 00 00	 mov	 eax, 68			; 00000044H
  0001f	66 89 45 e0	 mov	 WORD PTR _formatter$[ebp+12], ax

; 159  :                 _precision = precision;

  00023	8b 45 14	 mov	 eax, DWORD PTR _precision$[ebp]
  00026	89 45 e4	 mov	 DWORD PTR _formatter$[ebp+16], eax

; 160  :                 _number_format_info = number_format_info;

  00029	8b 45 18	 mov	 eax, DWORD PTR _format_option$[ebp]
  0002c	89 45 e8	 mov	 DWORD PTR _formatter$[ebp+20], eax

; 1029 :             formatter.Format(x_sign, x_abs, &writer);

  0002f	8d 45 ec	 lea	 eax, DWORD PTR _writer$[ebp]
  00032	50		 push	 eax
  00033	ff 75 0c	 push	 DWORD PTR _x_abs$[ebp]
; File z:\sources\lunor\repos\rougemeilland\palmtree.math.core.uint\palmtree.math.core.uint\pmc_stringio.h

; 201  :             _p = p;

  00036	89 4d f0	 mov	 DWORD PTR _writer$[ebp+4], ecx
; File z:\sources\lunor\repos\rougemeilland\palmtree.math.core.uint\palmtree.math.core.uint\pmc_tostring.cpp

; 1029 :             formatter.Format(x_sign, x_abs, &writer);

  00039	ff 75 08	 push	 DWORD PTR _x_sign$[ebp]
; File z:\sources\lunor\repos\rougemeilland\palmtree.math.core.uint\palmtree.math.core.uint\pmc_stringio.h

; 202  :             _sob = sob;

  0003c	89 4d f4	 mov	 DWORD PTR _writer$[ebp+8], ecx
; File z:\sources\lunor\repos\rougemeilland\palmtree.math.core.uint\palmtree.math.core.uint\pmc_tostring.cpp

; 1029 :             formatter.Format(x_sign, x_abs, &writer);

  0003f	8d 4d d4	 lea	 ecx, DWORD PTR _formatter$[ebp]
; File z:\sources\lunor\repos\rougemeilland\palmtree.math.core.uint\palmtree.math.core.uint\pmc_stringio.h

; 204  :             _written = 0;

  00042	c7 45 fc 00 00
	00 00		 mov	 DWORD PTR _writer$[ebp+16], 0

; 210  :         {

  00049	c7 45 ec 00 00
	00 00		 mov	 DWORD PTR _writer$[ebp], OFFSET ??_7StringWriter@Internal@Core@Math@Palmtree@@6B@
; File z:\sources\lunor\repos\rougemeilland\palmtree.math.core.uint\palmtree.math.core.uint\pmc_tostring.cpp

; 141  :             const __UNIT_TYPE _10n_base_number = 1000000000U; // 10^9

  00050	c7 45 d8 00 ca
	9a 3b		 mov	 DWORD PTR _formatter$[ebp+4], 1000000000 ; 3b9aca00H

; 142  :             const int digit_count_on_word = 9;

  00057	c7 45 dc 09 00
	00 00		 mov	 DWORD PTR _formatter$[ebp+8], 9

; 568  :             {

  0005e	c7 45 d4 00 00
