; Listing generated by Microsoft (R) Optimizing Compiler Version 19.16.27027.1 

	TITLE	Z:\Sources\Lunor\Repos\rougemeilland\Palmtree.Math.Core.Uint\Palmtree.Math.Core.Uint\pmc_interface_csharp.cpp
	.686P
	.XMM
	include listing.inc
	.model	flat

INCLUDELIB MSVCRT
INCLUDELIB OLDNAMES

PUBLIC	_PMCCS_UINT_Initialize@4
PUBLIC	_PMCCS_GetConfigurationSettings@16
PUBLIC	_PMCCS_IS_EVEN@8
PUBLIC	_PMCCS_IS_ONE@8
PUBLIC	_PMCCS_IS_POWER_OF_TWO@8
PUBLIC	_PMCCS_IS_ZERO@8
PUBLIC	_PMCCS_GET_HASH_CODE@8
PUBLIC	_PMCCS_GetStatisticsInfo@4
PUBLIC	_PMCCS_From_I@8
PUBLIC	_PMCCS_From_L@12
PUBLIC	_PMCCS_Dispose@4
PUBLIC	_PMCCS_GetConstantValue_I@8
PUBLIC	_PMCCS_FromByteArray@12
PUBLIC	_PMCCS_ToByteArray@16
PUBLIC	_PMCCS_Clone_X@8
PUBLIC	_PMCCS_GetAllocatedMemorySize@4
PUBLIC	_PMCCS_To_X_I@8
PUBLIC	_PMCCS_To_X_L@8
PUBLIC	_PMCCS_ToString@24
PUBLIC	_PMCCS_Parse@16
PUBLIC	_PMCCS_TryParse@20
PUBLIC	_PMCCS_Add_I_X@12
PUBLIC	_PMCCS_Add_L_X@16
PUBLIC	_PMCCS_Add_X_I@12
PUBLIC	_PMCCS_Add_X_L@16
PUBLIC	_PMCCS_Add_X_X@12
PUBLIC	_PMCCS_Subtruct_I_X@12
PUBLIC	_PMCCS_Subtruct_L_X@16
PUBLIC	_PMCCS_Subtruct_X_I@12
PUBLIC	_PMCCS_Subtruct_X_L@16
PUBLIC	_PMCCS_Subtruct_X_X@12
PUBLIC	_PMCCS_Multiply_I_X@12
PUBLIC	_PMCCS_Multiply_L_X@16
PUBLIC	_PMCCS_Multiply_X_I@12
PUBLIC	_PMCCS_Multiply_X_L@16
PUBLIC	_PMCCS_Multiply_X_X@12
PUBLIC	_PMCCS_DivRem_I_X@16
PUBLIC	_PMCCS_DivRem_L_X@20
PUBLIC	_PMCCS_DivRem_X_I@16
PUBLIC	_PMCCS_DivRem_X_L@20
PUBLIC	_PMCCS_DivRem_X_X@16
PUBLIC	_PMCCS_Remainder_I_X@12
PUBLIC	_PMCCS_Remainder_L_X@16
PUBLIC	_PMCCS_Remainder_X_I@12
PUBLIC	_PMCCS_Remainder_X_L@16
PUBLIC	_PMCCS_Remainder_X_X@12
PUBLIC	_PMCCS_RightShift_X_I@12
PUBLIC	_PMCCS_LeftShift_X_I@12
PUBLIC	_PMCCS_BitwiseAnd_I_X@12
PUBLIC	_PMCCS_BitwiseAnd_L_X@16
PUBLIC	_PMCCS_BitwiseAnd_X_I@12
PUBLIC	_PMCCS_BitwiseAnd_X_L@16
PUBLIC	_PMCCS_BitwiseAnd_X_X@12
PUBLIC	_PMCCS_BitwiseOr_I_X@12
PUBLIC	_PMCCS_BitwiseOr_L_X@16
PUBLIC	_PMCCS_BitwiseOr_X_I@12
PUBLIC	_PMCCS_BitwiseOr_X_L@16
PUBLIC	_PMCCS_BitwiseOr_X_X@12
PUBLIC	_PMCCS_ExclusiveOr_I_X@12
PUBLIC	_PMCCS_ExclusiveOr_L_X@16
PUBLIC	_PMCCS_ExclusiveOr_X_I@12
PUBLIC	_PMCCS_ExclusiveOr_X_L@16
PUBLIC	_PMCCS_ExclusiveOr_X_X@12
PUBLIC	_PMCCS_Compare_I_X@12
PUBLIC	_PMCCS_Compare_L_X@16
PUBLIC	_PMCCS_Compare_X_I@12
PUBLIC	_PMCCS_Compare_X_L@16
PUBLIC	_PMCCS_Compare_X_X@12
PUBLIC	_PMCCS_Equals_I_X@12
PUBLIC	_PMCCS_Equals_L_X@16
PUBLIC	_PMCCS_Equals_X_I@12
PUBLIC	_PMCCS_Equals_X_L@16
PUBLIC	_PMCCS_Equals_X_X@12
PUBLIC	_PMCCS_GreatestCommonDivisor_I_X@12
PUBLIC	_PMCCS_GreatestCommonDivisor_L_X@16
PUBLIC	_PMCCS_GreatestCommonDivisor_X_I@12
PUBLIC	_PMCCS_GreatestCommonDivisor_X_L@16
PUBLIC	_PMCCS_GreatestCommonDivisor_X_X@12
PUBLIC	_PMCCS_Pow_X_I@12
PUBLIC	_PMCCS_Pow_X_L@16
PUBLIC	_PMCCS_ModPow_X_X_X@16
PUBLIC	??_R0?AVException@Internal@Core@Math@Palmtree@@@8 ; Palmtree::Math::Core::Internal::Exception `RTTI Type Descriptor'
EXTRN	_PMC_UINT_Initialize@4:PROC
EXTRN	?PMC_GetConfigurationSettings@Internal@Core@Math@Palmtree@@YGHPB_WPA_WHPAH@Z:PROC ; Palmtree::Math::Core::Internal::PMC_GetConfigurationSettings
EXTRN	?PMC_GetStatisticsInfo@Internal@Core@Math@Palmtree@@YGXPAU__tag_PMC_STATISTICS_INFO@1234@@Z:PROC ; Palmtree::Math::Core::Internal::PMC_GetStatisticsInfo
EXTRN	?PMC_From_I@Internal@Core@Math@Palmtree@@YGPAU__tag_PMC_HANDLE_UINT@1234@I@Z:PROC ; Palmtree::Math::Core::Internal::PMC_From_I
EXTRN	?PMC_From_L@Internal@Core@Math@Palmtree@@YGPAU__tag_PMC_HANDLE_UINT@1234@_K@Z:PROC ; Palmtree::Math::Core::Internal::PMC_From_L
EXTRN	?PMC_Dispose@Internal@Core@Math@Palmtree@@YGXPAU__tag_PMC_HANDLE_UINT@1234@@Z:PROC ; Palmtree::Math::Core::Internal::PMC_Dispose
EXTRN	?PMC_GetConstantValue_I@Internal@Core@Math@Palmtree@@YGPAU__tag_PMC_HANDLE_UINT@1234@H@Z:PROC ; Palmtree::Math::Core::Internal::PMC_GetConstantValue_I
EXTRN	?PMC_FromByteArray@Internal@Core@Math@Palmtree@@YGPAU__tag_PMC_HANDLE_UINT@1234@PBEI@Z:PROC ; Palmtree::Math::Core::Internal::PMC_FromByteArray
EXTRN	?PMC_ToByteArray@Internal@Core@Math@Palmtree@@YGIPAU__tag_PMC_HANDLE_UINT@1234@PAEI@Z:PROC ; Palmtree::Math::Core::Internal::PMC_ToByteArray
EXTRN	?PMC_Clone_X@Internal@Core@Math@Palmtree@@YGPAU__tag_PMC_HANDLE_UINT@1234@PAU51234@@Z:PROC ; Palmtree::Math::Core::Internal::PMC_Clone_X
EXTRN	?PMC_GetAllocatedMemorySize@Internal@Core@Math@Palmtree@@YG_KXZ:PROC ; Palmtree::Math::Core::Internal::PMC_GetAllocatedMemorySize
EXTRN	?PMC_To_X_I@Internal@Core@Math@Palmtree@@YGIPAU__tag_PMC_HANDLE_UINT@1234@@Z:PROC ; Palmtree::Math::Core::Internal::PMC_To_X_I
EXTRN	?PMC_To_X_L@Internal@Core@Math@Palmtree@@YG_KPAU__tag_PMC_HANDLE_UINT@1234@@Z:PROC ; Palmtree::Math::Core::Internal::PMC_To_X_L
EXTRN	?PMC_ToString@Internal@Core@Math@Palmtree@@YGIPAU__tag_PMC_HANDLE_UINT@1234@PB_WPBU__tag_PMC_NUMBER_FORMAT_INFO@1234@PA_WI@Z:PROC ; Palmtree::Math::Core::Internal::PMC_ToString
EXTRN	?PMC_TryParse@Internal@Core@Math@Palmtree@@YGHPB_WHPBU__tag_PMC_NUMBER_FORMAT_INFO@1234@PAPAU__tag_PMC_HANDLE_UINT@1234@PAI@Z:PROC ; Palmtree::Math::Core::Internal::PMC_TryParse
EXTRN	?PMC_Add_I_X@Internal@Core@Math@Palmtree@@YGPAU__tag_PMC_HANDLE_UINT@1234@IPAU51234@@Z:PROC ; Palmtree::Math::Core::Internal::PMC_Add_I_X
EXTRN	?PMC_Add_L_X@Internal@Core@Math@Palmtree@@YGPAU__tag_PMC_HANDLE_UINT@1234@_KPAU51234@@Z:PROC ; Palmtree::Math::Core::Internal::PMC_Add_L_X
EXTRN	?PMC_Add_X_I@Internal@Core@Math@Palmtree@@YGPAU__tag_PMC_HANDLE_UINT@1234@PAU51234@I@Z:PROC ; Palmtree::Math::Core::Internal::PMC_Add_X_I
EXTRN	?PMC_Add_X_L@Internal@Core@Math@Palmtree@@YGPAU__tag_PMC_HANDLE_UINT@1234@PAU51234@_K@Z:PROC ; Palmtree::Math::Core::Internal::PMC_Add_X_L
EXTRN	?PMC_Add_X_X@Internal@Core@Math@Palmtree@@YGPAU__tag_PMC_HANDLE_UINT@1234@PAU51234@0@Z:PROC ; Palmtree::Math::Core::Internal::PMC_Add_X_X
EXTRN	?PMC_Subtruct_I_X@Internal@Core@Math@Palmtree@@YGIIPAU__tag_PMC_HANDLE_UINT@1234@@Z:PROC ; Palmtree::Math::Core::Internal::PMC_Subtruct_I_X
EXTRN	?PMC_Subtruct_L_X@Internal@Core@Math@Palmtree@@YG_K_KPAU__tag_PMC_HANDLE_UINT@1234@@Z:PROC ; Palmtree::Math::Core::Internal::PMC_Subtruct_L_X
EXTRN	?PMC_Subtruct_X_I@Internal@Core@Math@Palmtree@@YGPAU__tag_PMC_HANDLE_UINT@1234@PAU51234@I@Z:PROC ; Palmtree::Math::Core::Internal::PMC_Subtruct_X_I
EXTRN	?PMC_Subtruct_X_L@Internal@Core@Math@Palmtree@@YGPAU__tag_PMC_HANDLE_UINT@1234@PAU51234@_K@Z:PROC ; Palmtree::Math::Core::Internal::PMC_Subtruct_X_L
EXTRN	?PMC_Subtruct_X_X@Internal@Core@Math@Palmtree@@YGPAU__tag_PMC_HANDLE_UINT@1234@PAU51234@0@Z:PROC ; Palmtree::Math::Core::Internal::PMC_Subtruct_X_X
EXTRN	?PMC_Multiply_I_X@Internal@Core@Math@Palmtree@@YGPAU__tag_PMC_HANDLE_UINT@1234@IPAU51234@@Z:PROC ; Palmtree::Math::Core::Internal::PMC_Multiply_I_X
EXTRN	?PMC_Multiply_L_X@Internal@Core@Math@Palmtree@@YGPAU__tag_PMC_HANDLE_UINT@1234@_KPAU51234@@Z:PROC ; Palmtree::Math::Core::Internal::PMC_Multiply_L_X
EXTRN	?PMC_Multiply_X_I@Internal@Core@Math@Palmtree@@YGPAU__tag_PMC_HANDLE_UINT@1234@PAU51234@I@Z:PROC ; Palmtree::Math::Core::Internal::PMC_Multiply_X_I
EXTRN	?PMC_Multiply_X_L@Internal@Core@Math@Palmtree@@YGPAU__tag_PMC_HANDLE_UINT@1234@PAU51234@_K@Z:PROC ; Palmtree::Math::Core::Internal::PMC_Multiply_X_L
EXTRN	?PMC_Multiply_X_X@Internal@Core@Math@Palmtree@@YGPAU__tag_PMC_HANDLE_UINT@1234@PAU51234@0@Z:PROC ; Palmtree::Math::Core::Internal::PMC_Multiply_X_X
EXTRN	?PMC_DivRem_I_X@Internal@Core@Math@Palmtree@@YGIIPAU__tag_PMC_HANDLE_UINT@1234@PAI@Z:PROC ; Palmtree::Math::Core::Internal::PMC_DivRem_I_X
EXTRN	?PMC_DivRem_L_X@Internal@Core@Math@Palmtree@@YG_K_KPAU__tag_PMC_HANDLE_UINT@1234@PA_K@Z:PROC ; Palmtree::Math::Core::Internal::PMC_DivRem_L_X
EXTRN	?PMC_DivRem_X_I@Internal@Core@Math@Palmtree@@YGIPAU__tag_PMC_HANDLE_UINT@1234@IPAPAU51234@@Z:PROC ; Palmtree::Math::Core::Internal::PMC_DivRem_X_I
EXTRN	?PMC_DivRem_X_L@Internal@Core@Math@Palmtree@@YG_KPAU__tag_PMC_HANDLE_UINT@1234@_KPAPAU51234@@Z:PROC ; Palmtree::Math::Core::Internal::PMC_DivRem_X_L
EXTRN	?PMC_DivRem_X_X@Internal@Core@Math@Palmtree@@YGPAU__tag_PMC_HANDLE_UINT@1234@PAU51234@0PAPAU51234@@Z:PROC ; Palmtree::Math::Core::Internal::PMC_DivRem_X_X
EXTRN	?PMC_RightShift_X_I@Internal@Core@Math@Palmtree@@YGPAU__tag_PMC_HANDLE_UINT@1234@PAU51234@H@Z:PROC ; Palmtree::Math::Core::Internal::PMC_RightShift_X_I
EXTRN	?PMC_LeftShift_X_I@Internal@Core@Math@Palmtree@@YGPAU__tag_PMC_HANDLE_UINT@1234@PAU51234@H@Z:PROC ; Palmtree::Math::Core::Internal::PMC_LeftShift_X_I
EXTRN	?PMC_BitwiseAnd_I_X@Internal@Core@Math@Palmtree@@YGIIPAU__tag_PMC_HANDLE_UINT@1234@@Z:PROC ; Palmtree::Math::Core::Internal::PMC_BitwiseAnd_I_X
EXTRN	?PMC_BitwiseAnd_L_X@Internal@Core@Math@Palmtree@@YG_K_KPAU__tag_PMC_HANDLE_UINT@1234@@Z:PROC ; Palmtree::Math::Core::Internal::PMC_BitwiseAnd_L_X
EXTRN	?PMC_BitwiseAnd_X_I@Internal@Core@Math@Palmtree@@YGIPAU__tag_PMC_HANDLE_UINT@1234@I@Z:PROC ; Palmtree::Math::Core::Internal::PMC_BitwiseAnd_X_I
EXTRN	?PMC_BitwiseAnd_X_L@Internal@Core@Math@Palmtree@@YG_KPAU__tag_PMC_HANDLE_UINT@1234@_K@Z:PROC ; Palmtree::Math::Core::Internal::PMC_BitwiseAnd_X_L
EXTRN	?PMC_BitwiseAnd_X_X@Internal@Core@Math@Palmtree@@YGPAU__tag_PMC_HANDLE_UINT@1234@PAU51234@0@Z:PROC ; Palmtree::Math::Core::Internal::PMC_BitwiseAnd_X_X
EXTRN	?PMC_BitwiseOr_I_X@Internal@Core@Math@Palmtree@@YGPAU__tag_PMC_HANDLE_UINT@1234@IPAU51234@@Z:PROC ; Palmtree::Math::Core::Internal::PMC_BitwiseOr_I_X
EXTRN	?PMC_BitwiseOr_L_X@Internal@Core@Math@Palmtree@@YGPAU__tag_PMC_HANDLE_UINT@1234@_KPAU51234@@Z:PROC ; Palmtree::Math::Core::Internal::PMC_BitwiseOr_L_X
EXTRN	?PMC_BitwiseOr_X_I@Internal@Core@Math@Palmtree@@YGPAU__tag_PMC_HANDLE_UINT@1234@PAU51234@I@Z:PROC ; Palmtree::Math::Core::Internal::PMC_BitwiseOr_X_I
EXTRN	?PMC_BitwiseOr_X_L@Internal@Core@Math@Palmtree@@YGPAU__tag_PMC_HANDLE_UINT@1234@PAU51234@_K@Z:PROC ; Palmtree::Math::Core::Internal::PMC_BitwiseOr_X_L
EXTRN	?PMC_BitwiseOr_X_X@Internal@Core@Math@Palmtree@@YGPAU__tag_PMC_HANDLE_UINT@1234@PAU51234@0@Z:PROC ; Palmtree::Math::Core::Internal::PMC_BitwiseOr_X_X
EXTRN	?PMC_ExclusiveOr_I_X@Internal@Core@Math@Palmtree@@YGPAU__tag_PMC_HANDLE_UINT@1234@IPAU51234@@Z:PROC ; Palmtree::Math::Core::Internal::PMC_ExclusiveOr_I_X
EXTRN	?PMC_ExclusiveOr_L_X@Internal@Core@Math@Palmtree@@YGPAU__tag_PMC_HANDLE_UINT@1234@_KPAU51234@@Z:PROC ; Palmtree::Math::Core::Internal::PMC_ExclusiveOr_L_X
EXTRN	?PMC_ExclusiveOr_X_I@Internal@Core@Math@Palmtree@@YGPAU__tag_PMC_HANDLE_UINT@1234@PAU51234@I@Z:PROC ; Palmtree::Math::Core::Internal::PMC_ExclusiveOr_X_I
EXTRN	?PMC_ExclusiveOr_X_L@Internal@Core@Math@Palmtree@@YGPAU__tag_PMC_HANDLE_UINT@1234@PAU51234@_K@Z:PROC ; Palmtree::Math::Core::Internal::PMC_ExclusiveOr_X_L
EXTRN	?PMC_ExclusiveOr_X_X@Internal@Core@Math@Palmtree@@YGPAU__tag_PMC_HANDLE_UINT@1234@PAU51234@0@Z:PROC ; Palmtree::Math::Core::Internal::PMC_ExclusiveOr_X_X
EXTRN	?PMC_Compare_I_X@Internal@Core@Math@Palmtree@@YGHIPAU__tag_PMC_HANDLE_UINT@1234@@Z:PROC ; Palmtree::Math::Core::Internal::PMC_Compare_I_X
EXTRN	?PMC_Compare_L_X@Internal@Core@Math@Palmtree@@YGH_KPAU__tag_PMC_HANDLE_UINT@1234@@Z:PROC ; Palmtree::Math::Core::Internal::PMC_Compare_L_X
EXTRN	?PMC_Compare_X_I@Internal@Core@Math@Palmtree@@YGHPAU__tag_PMC_HANDLE_UINT@1234@I@Z:PROC ; Palmtree::Math::Core::Internal::PMC_Compare_X_I
EXTRN	?PMC_Compare_X_L@Internal@Core@Math@Palmtree@@YGHPAU__tag_PMC_HANDLE_UINT@1234@_K@Z:PROC ; Palmtree::Math::Core::Internal::PMC_Compare_X_L
EXTRN	?PMC_Compare_X_X@Internal@Core@Math@Palmtree@@YGHPAU__tag_PMC_HANDLE_UINT@1234@0@Z:PROC ; Palmtree::Math::Core::Internal::PMC_Compare_X_X
EXTRN	?PMC_Equals_I_X@Internal@Core@Math@Palmtree@@YGIIPAU__tag_PMC_HANDLE_UINT@1234@@Z:PROC ; Palmtree::Math::Core::Internal::PMC_Equals_I_X
EXTRN	?PMC_Equals_L_X@Internal@Core@Math@Palmtree@@YGI_KPAU__tag_PMC_HANDLE_UINT@1234@@Z:PROC ; Palmtree::Math::Core::Internal::PMC_Equals_L_X
EXTRN	?PMC_Equals_X_I@Internal@Core@Math@Palmtree@@YGIPAU__tag_PMC_HANDLE_UINT@1234@I@Z:PROC ; Palmtree::Math::Core::Internal::PMC_Equals_X_I
EXTRN	?PMC_Equals_X_L@Internal@Core@Math@Palmtree@@YGIPAU__tag_PMC_HANDLE_UINT@1234@_K@Z:PROC ; Palmtree::Math::Core::Internal::PMC_Equals_X_L
EXTRN	?PMC_Equals_X_X@Internal@Core@Math@Palmtree@@YGIPAU__tag_PMC_HANDLE_UINT@1234@0@Z:PROC ; Palmtree::Math::Core::Internal::PMC_Equals_X_X
EXTRN	?PMC_GreatestCommonDivisor_I_X@Internal@Core@Math@Palmtree@@YGPAU__tag_PMC_HANDLE_UINT@1234@IPAU51234@@Z:PROC ; Palmtree::Math::Core::Internal::PMC_GreatestCommonDivisor_I_X
EXTRN	?PMC_GreatestCommonDivisor_L_X@Internal@Core@Math@Palmtree@@YGPAU__tag_PMC_HANDLE_UINT@1234@_KPAU51234@@Z:PROC ; Palmtree::Math::Core::Internal::PMC_GreatestCommonDivisor_L_X
EXTRN	?PMC_GreatestCommonDivisor_X_I@Internal@Core@Math@Palmtree@@YGPAU__tag_PMC_HANDLE_UINT@1234@PAU51234@I@Z:PROC ; Palmtree::Math::Core::Internal::PMC_GreatestCommonDivisor_X_I
EXTRN	?PMC_GreatestCommonDivisor_X_L@Internal@Core@Math@Palmtree@@YGPAU__tag_PMC_HANDLE_UINT@1234@PAU51234@_K@Z:PROC ; Palmtree::Math::Core::Internal::PMC_GreatestCommonDivisor_X_L
EXTRN	?PMC_GreatestCommonDivisor_X_X@Internal@Core@Math@Palmtree@@YGPAU__tag_PMC_HANDLE_UINT@1234@PAU51234@0@Z:PROC ; Palmtree::Math::Core::Internal::PMC_GreatestCommonDivisor_X_X
EXTRN	?PMC_Pow_X_I@Internal@Core@Math@Palmtree@@YGPAU__tag_PMC_HANDLE_UINT@1234@PAU51234@I@Z:PROC ; Palmtree::Math::Core::Internal::PMC_Pow_X_I
EXTRN	?PMC_Pow_X_L@Internal@Core@Math@Palmtree@@YGPAU__tag_PMC_HANDLE_UINT@1234@PAU51234@_K@Z:PROC ; Palmtree::Math::Core::Internal::PMC_Pow_X_L
EXTRN	?PMC_ModPow_X_X_X@Internal@Core@Math@Palmtree@@YGPAU__tag_PMC_HANDLE_UINT@1234@PAU51234@00@Z:PROC ; Palmtree::Math::Core::Internal::PMC_ModPow_X_X_X
EXTRN	@__security_check_cookie@4:PROC
EXTRN	___CxxFrameHandler3:PROC
EXTRN	??_7type_info@@6B@:QWORD			; type_info::`vftable'
EXTRN	___security_cookie:DWORD
;	COMDAT ??_R0?AVException@Internal@Core@Math@Palmtree@@@8
data$r	SEGMENT
??_R0?AVException@Internal@Core@Math@Palmtree@@@8 DD FLAT:??_7type_info@@6B@ ; Palmtree::Math::Core::Internal::Exception `RTTI Type Descriptor'
	DD	00H
	DB	'.?AVException@Internal@Core@Math@Palmtree@@', 00H
data$r	ENDS
;	COMDAT xdata$x
xdata$x	SEGMENT
__catchsym$_PMCCS_ModPow_X_X_X@16$2 DD 09H
	DD	FLAT:??_R0?AVException@Internal@Core@Math@Palmtree@@@8
	DD	0ffffffecH
	DD	FLAT:__catch$_PMCCS_ModPow_X_X_X@16$0
__unwindtable$_PMCCS_ModPow_X_X_X@16 DD 0ffffffffH
	DD	00H
	DD	0ffffffffH
	DD	00H
__tryblocktable$_PMCCS_ModPow_X_X_X@16 DD 00H
	DD	00H
	DD	01H
	DD	01H
	DD	FLAT:__catchsym$_PMCCS_ModPow_X_X_X@16$2
__ehfuncinfo$_PMCCS_ModPow_X_X_X@16 DD 019930522H
	DD	02H
	DD	FLAT:__unwindtable$_PMCCS_ModPow_X_X_X@16
	DD	01H
	DD	FLAT:__tryblocktable$_PMCCS_ModPow_X_X_X@16
	DD	2 DUP(00H)
	DD	00H
	DD	00H
xdata$x	ENDS
;	COMDAT xdata$x
xdata$x	SEGMENT
__catchsym$_PMCCS_Pow_X_L@16$2 DD 09H
	DD	FLAT:??_R0?AVException@Internal@Core@Math@Palmtree@@@8
	DD	0ffffffecH
	DD	FLAT:__catch$_PMCCS_Pow_X_L@16$0
__unwindtable$_PMCCS_Pow_X_L@16 DD 0ffffffffH
	DD	00H
	DD	0ffffffffH
	DD	00H
__tryblocktable$_PMCCS_Pow_X_L@16 DD 00H
	DD	00H
	DD	01H
	DD	01H
	DD	FLAT:__catchsym$_PMCCS_Pow_X_L@16$2
__ehfuncinfo$_PMCCS_Pow_X_L@16 DD 019930522H
	DD	02H
	DD	FLAT:__unwindtable$_PMCCS_Pow_X_L@16
	DD	01H
	DD	FLAT:__tryblocktable$_PMCCS_Pow_X_L@16
	DD	2 DUP(00H)
	DD	00H
	DD	00H
xdata$x	ENDS
;	COMDAT xdata$x
xdata$x	SEGMENT
__catchsym$_PMCCS_Pow_X_I@12$2 DD 09H
	DD	FLAT:??_R0?AVException@Internal@Core@Math@Palmtree@@@8
	DD	0ffffffecH
	DD	FLAT:__catch$_PMCCS_Pow_X_I@12$0
__unwindtable$_PMCCS_Pow_X_I@12 DD 0ffffffffH
	DD	00H
	DD	0ffffffffH
	DD	00H
__tryblocktable$_PMCCS_Pow_X_I@12 DD 00H
	DD	00H
	DD	01H
	DD	01H
	DD	FLAT:__catchsym$_PMCCS_Pow_X_I@12$2
__ehfuncinfo$_PMCCS_Pow_X_I@12 DD 019930522H
	DD	02H
	DD	FLAT:__unwindtable$_PMCCS_Pow_X_I@12
	DD	01H
	DD	FLAT:__tryblocktable$_PMCCS_Pow_X_I@12
	DD	2 DUP(00H)
	DD	00H
	DD	00H
xdata$x	ENDS
;	COMDAT xdata$x
xdata$x	SEGMENT
__catchsym$_PMCCS_GreatestCommonDivisor_X_X@12$2 DD 09H
	DD	FLAT:??_R0?AVException@Internal@Core@Math@Palmtree@@@8
	DD	0ffffffecH
	DD	FLAT:__catch$_PMCCS_GreatestCommonDivisor_X_X@12$0
__unwindtable$_PMCCS_GreatestCommonDivisor_X_X@12 DD 0ffffffffH
	DD	00H
	DD	0ffffffffH
	DD	00H
__tryblocktable$_PMCCS_GreatestCommonDivisor_X_X@12 DD 00H
	DD	00H
	DD	01H
	DD	01H
	DD	FLAT:__catchsym$_PMCCS_GreatestCommonDivisor_X_X@12$2
__ehfuncinfo$_PMCCS_GreatestCommonDivisor_X_X@12 DD 019930522H
	DD	02H
	DD	FLAT:__unwindtable$_PMCCS_GreatestCommonDivisor_X_X@12
	DD	01H
	DD	FLAT:__tryblocktable$_PMCCS_GreatestCommonDivisor_X_X@12
	DD	2 DUP(00H)
	DD	00H
	DD	00H
xdata$x	ENDS
;	COMDAT xdata$x
xdata$x	SEGMENT
__catchsym$_PMCCS_GreatestCommonDivisor_X_L@16$2 DD 09H
	DD	FLAT:??_R0?AVException@Internal@Core@Math@Palmtree@@@8
	DD	0ffffffecH
	DD	FLAT:__catch$_PMCCS_GreatestCommonDivisor_X_L@16$0
__unwindtable$_PMCCS_GreatestCommonDivisor_X_L@16 DD 0ffffffffH
	DD	00H
	DD	0ffffffffH
	DD	00H
__tryblocktable$_PMCCS_GreatestCommonDivisor_X_L@16 DD 00H
	DD	00H
	DD	01H
	DD	01H
	DD	FLAT:__catchsym$_PMCCS_GreatestCommonDivisor_X_L@16$2
__ehfuncinfo$_PMCCS_GreatestCommonDivisor_X_L@16 DD 019930522H
	DD	02H
	DD	FLAT:__unwindtable$_PMCCS_GreatestCommonDivisor_X_L@16
	DD	01H
	DD	FLAT:__tryblocktable$_PMCCS_GreatestCommonDivisor_X_L@16
	DD	2 DUP(00H)
	DD	00H
	DD	00H
xdata$x	ENDS
;	COMDAT xdata$x
xdata$x	SEGMENT
__catchsym$_PMCCS_GreatestCommonDivisor_X_I@12$2 DD 09H
	DD	FLAT:??_R0?AVException@Internal@Core@Math@Palmtree@@@8
	DD	0ffffffecH
	DD	FLAT:__catch$_PMCCS_GreatestCommonDivisor_X_I@12$0
__unwindtable$_PMCCS_GreatestCommonDivisor_X_I@12 DD 0ffffffffH
	DD	00H
	DD	0ffffffffH
	DD	00H
__tryblocktable$_PMCCS_GreatestCommonDivisor_X_I@12 DD 00H
	DD	00H
	DD	01H
	DD	01H
	DD	FLAT:__catchsym$_PMCCS_GreatestCommonDivisor_X_I@12$2
__ehfuncinfo$_PMCCS_GreatestCommonDivisor_X_I@12 DD 019930522H
	DD	02H
	DD	FLAT:__unwindtable$_PMCCS_GreatestCommonDivisor_X_I@12
	DD	01H
	DD	FLAT:__tryblocktable$_PMCCS_GreatestCommonDivisor_X_I@12
	DD	2 DUP(00H)
	DD	00H
	DD	00H
xdata$x	ENDS
;	COMDAT xdata$x
xdata$x	SEGMENT
__catchsym$_PMCCS_GreatestCommonDivisor_L_X@16$2 DD 09H
	DD	FLAT:??_R0?AVException@Internal@Core@Math@Palmtree@@@8
	DD	0ffffffecH
	DD	FLAT:__catch$_PMCCS_GreatestCommonDivisor_L_X@16$0
__unwindtable$_PMCCS_GreatestCommonDivisor_L_X@16 DD 0ffffffffH
	DD	00H
	DD	0ffffffffH
	DD	00H
__tryblocktable$_PMCCS_GreatestCommonDivisor_L_X@16 DD 00H
	DD	00H
	DD	01H
	DD	01H
	DD	FLAT:__catchsym$_PMCCS_GreatestCommonDivisor_L_X@16$2
__ehfuncinfo$_PMCCS_GreatestCommonDivisor_L_X@16 DD 019930522H
	DD	02H
	DD	FLAT:__unwindtable$_PMCCS_GreatestCommonDivisor_L_X@16
	DD	01H
	DD	FLAT:__tryblocktable$_PMCCS_GreatestCommonDivisor_L_X@16
	DD	2 DUP(00H)
	DD	00H
	DD	00H
xdata$x	ENDS
;	COMDAT xdata$x
xdata$x	SEGMENT
__catchsym$_PMCCS_GreatestCommonDivisor_I_X@12$2 DD 09H
	DD	FLAT:??_R0?AVException@Internal@Core@Math@Palmtree@@@8
	DD	0ffffffecH
	DD	FLAT:__catch$_PMCCS_GreatestCommonDivisor_I_X@12$0
__unwindtable$_PMCCS_GreatestCommonDivisor_I_X@12 DD 0ffffffffH
	DD	00H
	DD	0ffffffffH
	DD	00H
__tryblocktable$_PMCCS_GreatestCommonDivisor_I_X@12 DD 00H
	DD	00H
	DD	01H
	DD	01H
	DD	FLAT:__catchsym$_PMCCS_GreatestCommonDivisor_I_X@12$2
__ehfuncinfo$_PMCCS_GreatestCommonDivisor_I_X@12 DD 019930522H
	DD	02H
	DD	FLAT:__unwindtable$_PMCCS_GreatestCommonDivisor_I_X@12
	DD	01H
	DD	FLAT:__tryblocktable$_PMCCS_GreatestCommonDivisor_I_X@12
	DD	2 DUP(00H)
	DD	00H
	DD	00H
xdata$x	ENDS
;	COMDAT xdata$x
xdata$x	SEGMENT
__catchsym$_PMCCS_Equals_X_X@12$2 DD 09H
	DD	FLAT:??_R0?AVException@Internal@Core@Math@Palmtree@@@8
	DD	0ffffffecH
	DD	FLAT:__catch$_PMCCS_Equals_X_X@12$0
__unwindtable$_PMCCS_Equals_X_X@12 DD 0ffffffffH
	DD	00H
	DD	0ffffffffH
	DD	00H
__tryblocktable$_PMCCS_Equals_X_X@12 DD 00H
	DD	00H
	DD	01H
	DD	01H
	DD	FLAT:__catchsym$_PMCCS_Equals_X_X@12$2
__ehfuncinfo$_PMCCS_Equals_X_X@12 DD 019930522H
	DD	02H
	DD	FLAT:__unwindtable$_PMCCS_Equals_X_X@12
	DD	01H
	DD	FLAT:__tryblocktable$_PMCCS_Equals_X_X@12
	DD	2 DUP(00H)
	DD	00H
	DD	00H
xdata$x	ENDS
;	COMDAT xdata$x
xdata$x	SEGMENT
__catchsym$_PMCCS_Equals_X_L@16$2 DD 09H
	DD	FLAT:??_R0?AVException@Internal@Core@Math@Palmtree@@@8
	DD	0ffffffecH
	DD	FLAT:__catch$_PMCCS_Equals_X_L@16$0
__unwindtable$_PMCCS_Equals_X_L@16 DD 0ffffffffH
	DD	00H
	DD	0ffffffffH
	DD	00H
__tryblocktable$_PMCCS_Equals_X_L@16 DD 00H
	DD	00H
	DD	01H
	DD	01H
	DD	FLAT:__catchsym$_PMCCS_Equals_X_L@16$2
__ehfuncinfo$_PMCCS_Equals_X_L@16 DD 019930522H
	DD	02H
	DD	FLAT:__unwindtable$_PMCCS_Equals_X_L@16
	DD	01H
	DD	FLAT:__tryblocktable$_PMCCS_Equals_X_L@16
	DD	2 DUP(00H)
	DD	00H
	DD	00H
xdata$x	ENDS
;	COMDAT xdata$x
xdata$x	SEGMENT
__catchsym$_PMCCS_Equals_X_I@12$2 DD 09H
	DD	FLAT:??_R0?AVException@Internal@Core@Math@Palmtree@@@8
	DD	0ffffffecH
	DD	FLAT:__catch$_PMCCS_Equals_X_I@12$0
__unwindtable$_PMCCS_Equals_X_I@12 DD 0ffffffffH
	DD	00H
	DD	0ffffffffH
	DD	00H
__tryblocktable$_PMCCS_Equals_X_I@12 DD 00H
	DD	00H
	DD	01H
	DD	01H
	DD	FLAT:__catchsym$_PMCCS_Equals_X_I@12$2
__ehfuncinfo$_PMCCS_Equals_X_I@12 DD 019930522H
	DD	02H
	DD	FLAT:__unwindtable$_PMCCS_Equals_X_I@12
	DD	01H
	DD	FLAT:__tryblocktable$_PMCCS_Equals_X_I@12
	DD	2 DUP(00H)
	DD	00H
	DD	00H
xdata$x	ENDS
;	COMDAT xdata$x
xdata$x	SEGMENT
__catchsym$_PMCCS_Equals_L_X@16$2 DD 09H
	DD	FLAT:??_R0?AVException@Internal@Core@Math@Palmtree@@@8
	DD	0ffffffecH
	DD	FLAT:__catch$_PMCCS_Equals_L_X@16$0
__unwindtable$_PMCCS_Equals_L_X@16 DD 0ffffffffH
	DD	00H
	DD	0ffffffffH
	DD	00H
__tryblocktable$_PMCCS_Equals_L_X@16 DD 00H
	DD	00H
	DD	01H
	DD	01H
	DD	FLAT:__catchsym$_PMCCS_Equals_L_X@16$2
__ehfuncinfo$_PMCCS_Equals_L_X@16 DD 019930522H
	DD	02H
	DD	FLAT:__unwindtable$_PMCCS_Equals_L_X@16
	DD	01H
	DD	FLAT:__tryblocktable$_PMCCS_Equals_L_X@16
	DD	2 DUP(00H)
	DD	00H
	DD	00H
xdata$x	ENDS
;	COMDAT xdata$x
xdata$x	SEGMENT
__catchsym$_PMCCS_Equals_I_X@12$2 DD 09H
	DD	FLAT:??_R0?AVException@Internal@Core@Math@Palmtree@@@8
	DD	0ffffffecH
	DD	FLAT:__catch$_PMCCS_Equals_I_X@12$0
__unwindtable$_PMCCS_Equals_I_X@12 DD 0ffffffffH
	DD	00H
	DD	0ffffffffH
	DD	00H
__tryblocktable$_PMCCS_Equals_I_X@12 DD 00H
	DD	00H
	DD	01H
	DD	01H
	DD	FLAT:__catchsym$_PMCCS_Equals_I_X@12$2
__ehfuncinfo$_PMCCS_Equals_I_X@12 DD 019930522H
	DD	02H
	DD	FLAT:__unwindtable$_PMCCS_Equals_I_X@12
	DD	01H
	DD	FLAT:__tryblocktable$_PMCCS_Equals_I_X@12
	DD	2 DUP(00H)
	DD	00H
	DD	00H
xdata$x	ENDS
;	COMDAT xdata$x
xdata$x	SEGMENT
__catchsym$_PMCCS_Compare_X_X@12$2 DD 09H
	DD	FLAT:??_R0?AVException@Internal@Core@Math@Palmtree@@@8
	DD	0ffffffecH
	DD	FLAT:__catch$_PMCCS_Compare_X_X@12$0
__unwindtable$_PMCCS_Compare_X_X@12 DD 0ffffffffH
	DD	00H
	DD	0ffffffffH
	DD	00H
__tryblocktable$_PMCCS_Compare_X_X@12 DD 00H
	DD	00H
	DD	01H
	DD	01H
	DD	FLAT:__catchsym$_PMCCS_Compare_X_X@12$2
__ehfuncinfo$_PMCCS_Compare_X_X@12 DD 019930522H
	DD	02H
	DD	FLAT:__unwindtable$_PMCCS_Compare_X_X@12
	DD	01H
	DD	FLAT:__tryblocktable$_PMCCS_Compare_X_X@12
	DD	2 DUP(00H)
	DD	00H
	DD	00H
xdata$x	ENDS
;	COMDAT xdata$x
xdata$x	SEGMENT
__catchsym$_PMCCS_Compare_X_L@16$2 DD 09H
	DD	FLAT:??_R0?AVException@Internal@Core@Math@Palmtree@@@8
	DD	0ffffffecH
	DD	FLAT:__catch$_PMCCS_Compare_X_L@16$0
__unwindtable$_PMCCS_Compare_X_L@16 DD 0ffffffffH
	DD	00H
	DD	0ffffffffH
	DD	00H
__tryblocktable$_PMCCS_Compare_X_L@16 DD 00H
	DD	00H
	DD	01H
	DD	01H
	DD	FLAT:__catchsym$_PMCCS_Compare_X_L@16$2
__ehfuncinfo$_PMCCS_Compare_X_L@16 DD 019930522H
	DD	02H
	DD	FLAT:__unwindtable$_PMCCS_Compare_X_L@16
	DD	01H
	DD	FLAT:__tryblocktable$_PMCCS_Compare_X_L@16
	DD	2 DUP(00H)
	DD	00H
	DD	00H
xdata$x	ENDS
;	COMDAT xdata$x
xdata$x	SEGMENT
__catchsym$_PMCCS_Compare_X_I@12$2 DD 09H
	DD	FLAT:??_R0?AVException@Internal@Core@Math@Palmtree@@@8
	DD	0ffffffecH
	DD	FLAT:__catch$_PMCCS_Compare_X_I@12$0
__unwindtable$_PMCCS_Compare_X_I@12 DD 0ffffffffH
	DD	00H
	DD	0ffffffffH
	DD	00H
__tryblocktable$_PMCCS_Compare_X_I@12 DD 00H
	DD	00H
	DD	01H
	DD	01H
	DD	FLAT:__catchsym$_PMCCS_Compare_X_I@12$2
__ehfuncinfo$_PMCCS_Compare_X_I@12 DD 019930522H
	DD	02H
	DD	FLAT:__unwindtable$_PMCCS_Compare_X_I@12
	DD	01H
	DD	FLAT:__tryblocktable$_PMCCS_Compare_X_I@12
	DD	2 DUP(00H)
	DD	00H
	DD	00H
xdata$x	ENDS
;	COMDAT xdata$x
xdata$x	SEGMENT
__catchsym$_PMCCS_Compare_L_X@16$2 DD 09H
	DD	FLAT:??_R0?AVException@Internal@Core@Math@Palmtree@@@8
	DD	0ffffffecH
	DD	FLAT:__catch$_PMCCS_Compare_L_X@16$0
__unwindtable$_PMCCS_Compare_L_X@16 DD 0ffffffffH
	DD	00H
	DD	0ffffffffH
	DD	00H
__tryblocktable$_PMCCS_Compare_L_X@16 DD 00H
	DD	00H
	DD	01H
	DD	01H
	DD	FLAT:__catchsym$_PMCCS_Compare_L_X@16$2
__ehfuncinfo$_PMCCS_Compare_L_X@16 DD 019930522H
	DD	02H
	DD	FLAT:__unwindtable$_PMCCS_Compare_L_X@16
	DD	01H
	DD	FLAT:__tryblocktable$_PMCCS_Compare_L_X@16
	DD	2 DUP(00H)
	DD	00H
	DD	00H
xdata$x	ENDS
;	COMDAT xdata$x
xdata$x	SEGMENT
__catchsym$_PMCCS_Compare_I_X@12$2 DD 09H
	DD	FLAT:??_R0?AVException@Internal@Core@Math@Palmtree@@@8
	DD	0ffffffecH
	DD	FLAT:__catch$_PMCCS_Compare_I_X@12$0
__unwindtable$_PMCCS_Compare_I_X@12 DD 0ffffffffH
	DD	00H
	DD	0ffffffffH
	DD	00H
__tryblocktable$_PMCCS_Compare_I_X@12 DD 00H
	DD	00H
	DD	01H
	DD	01H
	DD	FLAT:__catchsym$_PMCCS_Compare_I_X@12$2
__ehfuncinfo$_PMCCS_Compare_I_X@12 DD 019930522H
	DD	02H
	DD	FLAT:__unwindtable$_PMCCS_Compare_I_X@12
	DD	01H
	DD	FLAT:__tryblocktable$_PMCCS_Compare_I_X@12
	DD	2 DUP(00H)
	DD	00H
	DD	00H
xdata$x	ENDS
;	COMDAT xdata$x
xdata$x	SEGMENT
__catchsym$_PMCCS_ExclusiveOr_X_X@12$2 DD 09H
	DD	FLAT:??_R0?AVException@Internal@Core@Math@Palmtree@@@8
	DD	0ffffffecH
	DD	FLAT:__catch$_PMCCS_ExclusiveOr_X_X@12$0
__unwindtable$_PMCCS_ExclusiveOr_X_X@12 DD 0ffffffffH
	DD	00H
	DD	0ffffffffH
	DD	00H
__tryblocktable$_PMCCS_ExclusiveOr_X_X@12 DD 00H
	DD	00H
	DD	01H
	DD	01H
	DD	FLAT:__catchsym$_PMCCS_ExclusiveOr_X_X@12$2
__ehfuncinfo$_PMCCS_ExclusiveOr_X_X@12 DD 019930522H
	DD	02H
	DD	FLAT:__unwindtable$_PMCCS_ExclusiveOr_X_X@12
	DD	01H
	DD	FLAT:__tryblocktable$_PMCCS_ExclusiveOr_X_X@12
	DD	2 DUP(00H)
	DD	00H
	DD	00H
xdata$x	ENDS
;	COMDAT xdata$x
xdata$x	SEGMENT
__catchsym$_PMCCS_ExclusiveOr_X_L@16$2 DD 09H
	DD	FLAT:??_R0?AVException@Internal@Core@Math@Palmtree@@@8
	DD	0ffffffecH
	DD	FLAT:__catch$_PMCCS_ExclusiveOr_X_L@16$0
__unwindtable$_PMCCS_ExclusiveOr_X_L@16 DD 0ffffffffH
	DD	00H
	DD	0ffffffffH
	DD	00H
__tryblocktable$_PMCCS_ExclusiveOr_X_L@16 DD 00H
	DD	00H
	DD	01H
	DD	01H
	DD	FLAT:__catchsym$_PMCCS_ExclusiveOr_X_L@16$2
__ehfuncinfo$_PMCCS_ExclusiveOr_X_L@16 DD 019930522H
	DD	02H
	DD	FLAT:__unwindtable$_PMCCS_ExclusiveOr_X_L@16
	DD	01H
	DD	FLAT:__tryblocktable$_PMCCS_ExclusiveOr_X_L@16
	DD	2 DUP(00H)
	DD	00H
	DD	00H
xdata$x	ENDS
;	COMDAT xdata$x
xdata$x	SEGMENT
__catchsym$_PMCCS_ExclusiveOr_X_I@12$2 DD 09H
	DD	FLAT:??_R0?AVException@Internal@Core@Math@Palmtree@@@8
	DD	0ffffffecH
	DD	FLAT:__catch$_PMCCS_ExclusiveOr_X_I@12$0
__unwindtable$_PMCCS_ExclusiveOr_X_I@12 DD 0ffffffffH
	DD	00H
	DD	0ffffffffH
	DD	00H
__tryblocktable$_PMCCS_ExclusiveOr_X_I@12 DD 00H
	DD	00H
	DD	01H
	DD	01H
	DD	FLAT:__catchsym$_PMCCS_ExclusiveOr_X_I@12$2
__ehfuncinfo$_PMCCS_ExclusiveOr_X_I@12 DD 019930522H
	DD	02H
	DD	FLAT:__unwindtable$_PMCCS_ExclusiveOr_X_I@12
	DD	01H
	DD	FLAT:__tryblocktable$_PMCCS_ExclusiveOr_X_I@12
	DD	2 DUP(00H)
	DD	00H
	DD	00H
xdata$x	ENDS
;	COMDAT xdata$x
xdata$x	SEGMENT
__catchsym$_PMCCS_ExclusiveOr_L_X@16$2 DD 09H
	DD	FLAT:??_R0?AVException@Internal@Core@Math@Palmtree@@@8
	DD	0ffffffecH
	DD	FLAT:__catch$_PMCCS_ExclusiveOr_L_X@16$0
__unwindtable$_PMCCS_ExclusiveOr_L_X@16 DD 0ffffffffH
	DD	00H
	DD	0ffffffffH
	DD	00H
__tryblocktable$_PMCCS_ExclusiveOr_L_X@16 DD 00H
	DD	00H
	DD	01H
	DD	01H
	DD	FLAT:__catchsym$_PMCCS_ExclusiveOr_L_X@16$2
__ehfuncinfo$_PMCCS_ExclusiveOr_L_X@16 DD 019930522H
	DD	02H
	DD	FLAT:__unwindtable$_PMCCS_ExclusiveOr_L_X@16
	DD	01H
	DD	FLAT:__tryblocktable$_PMCCS_ExclusiveOr_L_X@16
	DD	2 DUP(00H)
	DD	00H
	DD	00H
xdata$x	ENDS
;	COMDAT xdata$x
xdata$x	SEGMENT
__catchsym$_PMCCS_ExclusiveOr_I_X@12$2 DD 09H
	DD	FLAT:??_R0?AVException@Internal@Core@Math@Palmtree@@@8
	DD	0ffffffecH
	DD	FLAT:__catch$_PMCCS_ExclusiveOr_I_X@12$0
__unwindtable$_PMCCS_ExclusiveOr_I_X@12 DD 0ffffffffH
	DD	00H
	DD	0ffffffffH
	DD	00H
__tryblocktable$_PMCCS_ExclusiveOr_I_X@12 DD 00H
	DD	00H
	DD	01H
	DD	01H
	DD	FLAT:__catchsym$_PMCCS_ExclusiveOr_I_X@12$2
__ehfuncinfo$_PMCCS_ExclusiveOr_I_X@12 DD 019930522H
	DD	02H
	DD	FLAT:__unwindtable$_PMCCS_ExclusiveOr_I_X@12
	DD	01H
	DD	FLAT:__tryblocktable$_PMCCS_ExclusiveOr_I_X@12
	DD	2 DUP(00H)
	DD	00H
	DD	00H
xdata$x	ENDS
;	COMDAT xdata$x
xdata$x	SEGMENT
__catchsym$_PMCCS_BitwiseOr_X_X@12$2 DD 09H
	DD	FLAT:??_R0?AVException@Internal@Core@Math@Palmtree@@@8
	DD	0ffffffecH
	DD	FLAT:__catch$_PMCCS_BitwiseOr_X_X@12$0
__unwindtable$_PMCCS_BitwiseOr_X_X@12 DD 0ffffffffH
	DD	00H
	DD	0ffffffffH
	DD	00H
__tryblocktable$_PMCCS_BitwiseOr_X_X@12 DD 00H
	DD	00H
	DD	01H
	DD	01H
	DD	FLAT:__catchsym$_PMCCS_BitwiseOr_X_X@12$2
__ehfuncinfo$_PMCCS_BitwiseOr_X_X@12 DD 019930522H
	DD	02H
	DD	FLAT:__unwindtable$_PMCCS_BitwiseOr_X_X@12
	DD	01H
	DD	FLAT:__tryblocktable$_PMCCS_BitwiseOr_X_X@12
	DD	2 DUP(00H)
	DD	00H
	DD	00H
xdata$x	ENDS
;	COMDAT xdata$x
xdata$x	SEGMENT
__catchsym$_PMCCS_BitwiseOr_X_L@16$2 DD 09H
	DD	FLAT:??_R0?AVException@Internal@Core@Math@Palmtree@@@8
	DD	0ffffffecH
	DD	FLAT:__catch$_PMCCS_BitwiseOr_X_L@16$0
__unwindtable$_PMCCS_BitwiseOr_X_L@16 DD 0ffffffffH
	DD	00H
	DD	0ffffffffH
	DD	00H
__tryblocktable$_PMCCS_BitwiseOr_X_L@16 DD 00H
	DD	00H
	DD	01H
	DD	01H
	DD	FLAT:__catchsym$_PMCCS_BitwiseOr_X_L@16$2
__ehfuncinfo$_PMCCS_BitwiseOr_X_L@16 DD 019930522H
	DD	02H
	DD	FLAT:__unwindtable$_PMCCS_BitwiseOr_X_L@16
	DD	01H
	DD	FLAT:__tryblocktable$_PMCCS_BitwiseOr_X_L@16
	DD	2 DUP(00H)
	DD	00H
	DD	00H
xdata$x	ENDS
;	COMDAT xdata$x
xdata$x	SEGMENT
__catchsym$_PMCCS_BitwiseOr_X_I@12$2 DD 09H
	DD	FLAT:??_R0?AVException@Internal@Core@Math@Palmtree@@@8
	DD	0ffffffecH
	DD	FLAT:__catch$_PMCCS_BitwiseOr_X_I@12$0
__unwindtable$_PMCCS_BitwiseOr_X_I@12 DD 0ffffffffH
	DD	00H
	DD	0ffffffffH
	DD	00H
__tryblocktable$_PMCCS_BitwiseOr_X_I@12 DD 00H
	DD	00H
	DD	01H
	DD	01H
	DD	FLAT:__catchsym$_PMCCS_BitwiseOr_X_I@12$2
__ehfuncinfo$_PMCCS_BitwiseOr_X_I@12 DD 019930522H
	DD	02H
	DD	FLAT:__unwindtable$_PMCCS_BitwiseOr_X_I@12
	DD	01H
	DD	FLAT:__tryblocktable$_PMCCS_BitwiseOr_X_I@12
	DD	2 DUP(00H)
	DD	00H
	DD	00H
xdata$x	ENDS
;	COMDAT xdata$x
xdata$x	SEGMENT
__catchsym$_PMCCS_BitwiseOr_L_X@16$2 DD 09H
	DD	FLAT:??_R0?AVException@Internal@Core@Math@Palmtree@@@8
	DD	0ffffffecH
	DD	FLAT:__catch$_PMCCS_BitwiseOr_L_X@16$0
__unwindtable$_PMCCS_BitwiseOr_L_X@16 DD 0ffffffffH
	DD	00H
	DD	0ffffffffH
	DD	00H
__tryblocktable$_PMCCS_BitwiseOr_L_X@16 DD 00H
	DD	00H
	DD	01H
	DD	01H
	DD	FLAT:__catchsym$_PMCCS_BitwiseOr_L_X@16$2
__ehfuncinfo$_PMCCS_BitwiseOr_L_X@16 DD 019930522H
	DD	02H
	DD	FLAT:__unwindtable$_PMCCS_BitwiseOr_L_X@16
	DD	01H
	DD	FLAT:__tryblocktable$_PMCCS_BitwiseOr_L_X@16
	DD	2 DUP(00H)
	DD	00H
	DD	00H
xdata$x	ENDS
;	COMDAT xdata$x
xdata$x	SEGMENT
__catchsym$_PMCCS_BitwiseOr_I_X@12$2 DD 09H
	DD	FLAT:??_R0?AVException@Internal@Core@Math@Palmtree@@@8
	DD	0ffffffecH
	DD	FLAT:__catch$_PMCCS_BitwiseOr_I_X@12$0
__unwindtable$_PMCCS_BitwiseOr_I_X@12 DD 0ffffffffH
	DD	00H
	DD	0ffffffffH
	DD	00H
__tryblocktable$_PMCCS_BitwiseOr_I_X@12 DD 00H
	DD	00H
	DD	01H
	DD	01H
	DD	FLAT:__catchsym$_PMCCS_BitwiseOr_I_X@12$2
__ehfuncinfo$_PMCCS_BitwiseOr_I_X@12 DD 019930522H
	DD	02H
	DD	FLAT:__unwindtable$_PMCCS_BitwiseOr_I_X@12
	DD	01H
	DD	FLAT:__tryblocktable$_PMCCS_BitwiseOr_I_X@12
	DD	2 DUP(00H)
	DD	00H
	DD	00H
xdata$x	ENDS
;	COMDAT xdata$x
xdata$x	SEGMENT
__catchsym$_PMCCS_BitwiseAnd_X_X@12$2 DD 09H
	DD	FLAT:??_R0?AVException@Internal@Core@Math@Palmtree@@@8
	DD	0ffffffecH
	DD	FLAT:__catch$_PMCCS_BitwiseAnd_X_X@12$0
__unwindtable$_PMCCS_BitwiseAnd_X_X@12 DD 0ffffffffH
	DD	00H
	DD	0ffffffffH
	DD	00H
__tryblocktable$_PMCCS_BitwiseAnd_X_X@12 DD 00H
	DD	00H
	DD	01H
	DD	01H
	DD	FLAT:__catchsym$_PMCCS_BitwiseAnd_X_X@12$2
__ehfuncinfo$_PMCCS_BitwiseAnd_X_X@12 DD 019930522H
	DD	02H
	DD	FLAT:__unwindtable$_PMCCS_BitwiseAnd_X_X@12
	DD	01H
	DD	FLAT:__tryblocktable$_PMCCS_BitwiseAnd_X_X@12
	DD	2 DUP(00H)
	DD	00H
	DD	00H
xdata$x	ENDS
;	COMDAT xdata$x
xdata$x	SEGMENT
__catchsym$_PMCCS_BitwiseAnd_X_L@16$2 DD 09H
	DD	FLAT:??_R0?AVException@Internal@Core@Math@Palmtree@@@8
	DD	0ffffffecH
	DD	FLAT:__catch$_PMCCS_BitwiseAnd_X_L@16$0
__unwindtable$_PMCCS_BitwiseAnd_X_L@16 DD 0ffffffffH
	DD	00H
	DD	0ffffffffH
	DD	00H
__tryblocktable$_PMCCS_BitwiseAnd_X_L@16 DD 00H
	DD	00H
	DD	01H
	DD	01H
	DD	FLAT:__catchsym$_PMCCS_BitwiseAnd_X_L@16$2
__ehfuncinfo$_PMCCS_BitwiseAnd_X_L@16 DD 019930522H
	DD	02H
	DD	FLAT:__unwindtable$_PMCCS_BitwiseAnd_X_L@16
	DD	01H
	DD	FLAT:__tryblocktable$_PMCCS_BitwiseAnd_X_L@16
	DD	2 DUP(00H)
	DD	00H
	DD	00H
xdata$x	ENDS
;	COMDAT xdata$x
xdata$x	SEGMENT
__catchsym$_PMCCS_BitwiseAnd_X_I@12$2 DD 09H
	DD	FLAT:??_R0?AVException@Internal@Core@Math@Palmtree@@@8
	DD	0ffffffecH
	DD	FLAT:__catch$_PMCCS_BitwiseAnd_X_I@12$0
__unwindtable$_PMCCS_BitwiseAnd_X_I@12 DD 0ffffffffH
	DD	00H
	DD	0ffffffffH
	DD	00H
__tryblocktable$_PMCCS_BitwiseAnd_X_I@12 DD 00H
	DD	00H
	DD	01H
	DD	01H
	DD	FLAT:__catchsym$_PMCCS_BitwiseAnd_X_I@12$2
__ehfuncinfo$_PMCCS_BitwiseAnd_X_I@12 DD 019930522H
	DD	02H
	DD	FLAT:__unwindtable$_PMCCS_BitwiseAnd_X_I@12
	DD	01H
	DD	FLAT:__tryblocktable$_PMCCS_BitwiseAnd_X_I@12
	DD	2 DUP(00H)
	DD	00H
	DD	00H
xdata$x	ENDS
;	COMDAT xdata$x
xdata$x	SEGMENT
__catchsym$_PMCCS_BitwiseAnd_L_X@16$2 DD 09H
	DD	FLAT:??_R0?AVException@Internal@Core@Math@Palmtree@@@8
	DD	0ffffffecH
	DD	FLAT:__catch$_PMCCS_BitwiseAnd_L_X@16$0
__unwindtable$_PMCCS_BitwiseAnd_L_X@16 DD 0ffffffffH
	DD	00H
	DD	0ffffffffH
	DD	00H
__tryblocktable$_PMCCS_BitwiseAnd_L_X@16 DD 00H
	DD	00H
	DD	01H
	DD	01H
	DD	FLAT:__catchsym$_PMCCS_BitwiseAnd_L_X@16$2
__ehfuncinfo$_PMCCS_BitwiseAnd_L_X@16 DD 019930522H
	DD	02H
	DD	FLAT:__unwindtable$_PMCCS_BitwiseAnd_L_X@16
	DD	01H
	DD	FLAT:__tryblocktable$_PMCCS_BitwiseAnd_L_X@16
	DD	2 DUP(00H)
	DD	00H
	DD	00H
xdata$x	ENDS
;	COMDAT xdata$x
xdata$x	SEGMENT
__catchsym$_PMCCS_BitwiseAnd_I_X@12$2 DD 09H
	DD	FLAT:??_R0?AVException@Internal@Core@Math@Palmtree@@@8
	DD	0ffffffecH
	DD	FLAT:__catch$_PMCCS_BitwiseAnd_I_X@12$0
__unwindtable$_PMCCS_BitwiseAnd_I_X@12 DD 0ffffffffH
	DD	00H
	DD	0ffffffffH
	DD	00H
__tryblocktable$_PMCCS_BitwiseAnd_I_X@12 DD 00H
	DD	00H
	DD	01H
	DD	01H
	DD	FLAT:__catchsym$_PMCCS_BitwiseAnd_I_X@12$2
__ehfuncinfo$_PMCCS_BitwiseAnd_I_X@12 DD 019930522H
	DD	02H
	DD	FLAT:__unwindtable$_PMCCS_BitwiseAnd_I_X@12
	DD	01H
	DD	FLAT:__tryblocktable$_PMCCS_BitwiseAnd_I_X@12
	DD	2 DUP(00H)
	DD	00H
	DD	00H
xdata$x	ENDS
;	COMDAT xdata$x
xdata$x	SEGMENT
__catchsym$_PMCCS_LeftShift_X_I@12$2 DD 09H
	DD	FLAT:??_R0?AVException@Internal@Core@Math@Palmtree@@@8
	DD	0ffffffecH
	DD	FLAT:__catch$_PMCCS_LeftShift_X_I@12$0
__unwindtable$_PMCCS_LeftShift_X_I@12 DD 0ffffffffH
	DD	00H
	DD	0ffffffffH
	DD	00H
__tryblocktable$_PMCCS_LeftShift_X_I@12 DD 00H
	DD	00H
	DD	01H
	DD	01H
	DD	FLAT:__catchsym$_PMCCS_LeftShift_X_I@12$2
__ehfuncinfo$_PMCCS_LeftShift_X_I@12 DD 019930522H
	DD	02H
	DD	FLAT:__unwindtable$_PMCCS_LeftShift_X_I@12
	DD	01H
	DD	FLAT:__tryblocktable$_PMCCS_LeftShift_X_I@12
	DD	2 DUP(00H)
	DD	00H
	DD	00H
xdata$x	ENDS
;	COMDAT xdata$x
xdata$x	SEGMENT
__catchsym$_PMCCS_RightShift_X_I@12$2 DD 09H
	DD	FLAT:??_R0?AVException@Internal@Core@Math@Palmtree@@@8
	DD	0ffffffecH
	DD	FLAT:__catch$_PMCCS_RightShift_X_I@12$0
__unwindtable$_PMCCS_RightShift_X_I@12 DD 0ffffffffH
	DD	00H
	DD	0ffffffffH
	DD	00H
__tryblocktable$_PMCCS_RightShift_X_I@12 DD 00H
	DD	00H
	DD	01H
	DD	01H
	DD	FLAT:__catchsym$_PMCCS_RightShift_X_I@12$2
__ehfuncinfo$_PMCCS_RightShift_X_I@12 DD 019930522H
	DD	02H
	DD	FLAT:__unwindtable$_PMCCS_RightShift_X_I@12
	DD	01H
	DD	FLAT:__tryblocktable$_PMCCS_RightShift_X_I@12
	DD	2 DUP(00H)
	DD	00H
	DD	00H
xdata$x	ENDS
;	COMDAT xdata$x
xdata$x	SEGMENT
__catchsym$_PMCCS_Remainder_X_X@12$2 DD 09H
	DD	FLAT:??_R0?AVException@Internal@Core@Math@Palmtree@@@8
	DD	0ffffffecH
	DD	FLAT:__catch$_PMCCS_Remainder_X_X@12$0
__unwindtable$_PMCCS_Remainder_X_X@12 DD 0ffffffffH
	DD	00H
	DD	0ffffffffH
	DD	00H
__tryblocktable$_PMCCS_Remainder_X_X@12 DD 00H
	DD	00H
	DD	01H
	DD	01H
	DD	FLAT:__catchsym$_PMCCS_Remainder_X_X@12$2
__ehfuncinfo$_PMCCS_Remainder_X_X@12 DD 019930522H
	DD	02H
	DD	FLAT:__unwindtable$_PMCCS_Remainder_X_X@12
	DD	01H
	DD	FLAT:__tryblocktable$_PMCCS_Remainder_X_X@12
	DD	2 DUP(00H)
	DD	00H
	DD	00H
xdata$x	ENDS
;	COMDAT xdata$x
xdata$x	SEGMENT
__catchsym$_PMCCS_Remainder_X_L@16$2 DD 09H
	DD	FLAT:??_R0?AVException@Internal@Core@Math@Palmtree@@@8
	DD	0ffffffecH
	DD	FLAT:__catch$_PMCCS_Remainder_X_L@16$0
__unwindtable$_PMCCS_Remainder_X_L@16 DD 0ffffffffH
	DD	00H
	DD	0ffffffffH
	DD	00H
__tryblocktable$_PMCCS_Remainder_X_L@16 DD 00H
	DD	00H
	DD	01H
	DD	01H
	DD	FLAT:__catchsym$_PMCCS_Remainder_X_L@16$2
__ehfuncinfo$_PMCCS_Remainder_X_L@16 DD 019930522H
	DD	02H
	DD	FLAT:__unwindtable$_PMCCS_Remainder_X_L@16
	DD	01H
	DD	FLAT:__tryblocktable$_PMCCS_Remainder_X_L@16
	DD	2 DUP(00H)
	DD	00H
	DD	00H
xdata$x	ENDS
;	COMDAT xdata$x
xdata$x	SEGMENT
__catchsym$_PMCCS_Remainder_X_I@12$2 DD 09H
	DD	FLAT:??_R0?AVException@Internal@Core@Math@Palmtree@@@8
	DD	0ffffffecH
	DD	FLAT:__catch$_PMCCS_Remainder_X_I@12$0
__unwindtable$_PMCCS_Remainder_X_I@12 DD 0ffffffffH
	DD	00H
	DD	0ffffffffH
	DD	00H
__tryblocktable$_PMCCS_Remainder_X_I@12 DD 00H
	DD	00H
	DD	01H
	DD	01H
	DD	FLAT:__catchsym$_PMCCS_Remainder_X_I@12$2
__ehfuncinfo$_PMCCS_Remainder_X_I@12 DD 019930522H
	DD	02H
	DD	FLAT:__unwindtable$_PMCCS_Remainder_X_I@12
	DD	01H
	DD	FLAT:__tryblocktable$_PMCCS_Remainder_X_I@12
	DD	2 DUP(00H)
	DD	00H
	DD	00H
xdata$x	ENDS
;	COMDAT xdata$x
xdata$x	SEGMENT
__catchsym$_PMCCS_Remainder_L_X@16$2 DD 09H
	DD	FLAT:??_R0?AVException@Internal@Core@Math@Palmtree@@@8
	DD	0ffffffecH
	DD	FLAT:__catch$_PMCCS_Remainder_L_X@16$0
__unwindtable$_PMCCS_Remainder_L_X@16 DD 0ffffffffH
	DD	00H
	DD	0ffffffffH
	DD	00H
__tryblocktable$_PMCCS_Remainder_L_X@16 DD 00H
	DD	00H
	DD	01H
	DD	01H
	DD	FLAT:__catchsym$_PMCCS_Remainder_L_X@16$2
__ehfuncinfo$_PMCCS_Remainder_L_X@16 DD 019930522H
	DD	02H
	DD	FLAT:__unwindtable$_PMCCS_Remainder_L_X@16
	DD	01H
	DD	FLAT:__tryblocktable$_PMCCS_Remainder_L_X@16
	DD	2 DUP(00H)
	DD	00H
	DD	00H
xdata$x	ENDS
;	COMDAT xdata$x
xdata$x	SEGMENT
__catchsym$_PMCCS_Remainder_I_X@12$2 DD 09H
	DD	FLAT:??_R0?AVException@Internal@Core@Math@Palmtree@@@8
	DD	0ffffffecH
	DD	FLAT:__catch$_PMCCS_Remainder_I_X@12$0
__unwindtable$_PMCCS_Remainder_I_X@12 DD 0ffffffffH
	DD	00H
	DD	0ffffffffH
	DD	00H
__tryblocktable$_PMCCS_Remainder_I_X@12 DD 00H
	DD	00H
	DD	01H
	DD	01H
	DD	FLAT:__catchsym$_PMCCS_Remainder_I_X@12$2
__ehfuncinfo$_PMCCS_Remainder_I_X@12 DD 019930522H
	DD	02H
	DD	FLAT:__unwindtable$_PMCCS_Remainder_I_X@12
	DD	01H
	DD	FLAT:__tryblocktable$_PMCCS_Remainder_I_X@12
	DD	2 DUP(00H)
	DD	00H
	DD	00H
xdata$x	ENDS
;	COMDAT xdata$x
xdata$x	SEGMENT
__catchsym$_PMCCS_DivRem_X_X@16$2 DD 09H
	DD	FLAT:??_R0?AVException@Internal@Core@Math@Palmtree@@@8
	DD	0ffffffecH
	DD	FLAT:__catch$_PMCCS_DivRem_X_X@16$0
__unwindtable$_PMCCS_DivRem_X_X@16 DD 0ffffffffH
	DD	00H
	DD	0ffffffffH
	DD	00H
__tryblocktable$_PMCCS_DivRem_X_X@16 DD 00H
	DD	00H
	DD	01H
	DD	01H
	DD	FLAT:__catchsym$_PMCCS_DivRem_X_X@16$2
__ehfuncinfo$_PMCCS_DivRem_X_X@16 DD 019930522H
	DD	02H
	DD	FLAT:__unwindtable$_PMCCS_DivRem_X_X@16
	DD	01H
	DD	FLAT:__tryblocktable$_PMCCS_DivRem_X_X@16
	DD	2 DUP(00H)
	DD	00H
	DD	00H
xdata$x	ENDS
;	COMDAT xdata$x
xdata$x	SEGMENT
__catchsym$_PMCCS_DivRem_X_L@20$2 DD 09H
	DD	FLAT:??_R0?AVException@Internal@Core@Math@Palmtree@@@8
	DD	0ffffffecH
	DD	FLAT:__catch$_PMCCS_DivRem_X_L@20$0
__unwindtable$_PMCCS_DivRem_X_L@20 DD 0ffffffffH
	DD	00H
	DD	0ffffffffH
	DD	00H
__tryblocktable$_PMCCS_DivRem_X_L@20 DD 00H
	DD	00H
	DD	01H
	DD	01H
	DD	FLAT:__catchsym$_PMCCS_DivRem_X_L@20$2
__ehfuncinfo$_PMCCS_DivRem_X_L@20 DD 019930522H
	DD	02H
	DD	FLAT:__unwindtable$_PMCCS_DivRem_X_L@20
	DD	01H
	DD	FLAT:__tryblocktable$_PMCCS_DivRem_X_L@20
	DD	2 DUP(00H)
	DD	00H
	DD	00H
xdata$x	ENDS
;	COMDAT xdata$x
xdata$x	SEGMENT
__catchsym$_PMCCS_DivRem_X_I@16$2 DD 09H
	DD	FLAT:??_R0?AVException@Internal@Core@Math@Palmtree@@@8
	DD	0ffffffecH
	DD	FLAT:__catch$_PMCCS_DivRem_X_I@16$0
__unwindtable$_PMCCS_DivRem_X_I@16 DD 0ffffffffH
	DD	00H
	DD	0ffffffffH
	DD	00H
__tryblocktable$_PMCCS_DivRem_X_I@16 DD 00H
	DD	00H
	DD	01H
	DD	01H
	DD	FLAT:__catchsym$_PMCCS_DivRem_X_I@16$2
__ehfuncinfo$_PMCCS_DivRem_X_I@16 DD 019930522H
	DD	02H
	DD	FLAT:__unwindtable$_PMCCS_DivRem_X_I@16
	DD	01H
	DD	FLAT:__tryblocktable$_PMCCS_DivRem_X_I@16
	DD	2 DUP(00H)
	DD	00H
	DD	00H
xdata$x	ENDS
;	COMDAT xdata$x
xdata$x	SEGMENT
__catchsym$_PMCCS_DivRem_L_X@20$2 DD 09H
	DD	FLAT:??_R0?AVException@Internal@Core@Math@Palmtree@@@8
	DD	0ffffffecH
	DD	FLAT:__catch$_PMCCS_DivRem_L_X@20$0
__unwindtable$_PMCCS_DivRem_L_X@20 DD 0ffffffffH
	DD	00H
	DD	0ffffffffH
	DD	00H
__tryblocktable$_PMCCS_DivRem_L_X@20 DD 00H
	DD	00H
	DD	01H
	DD	01H
	DD	FLAT:__catchsym$_PMCCS_DivRem_L_X@20$2
__ehfuncinfo$_PMCCS_DivRem_L_X@20 DD 019930522H
	DD	02H
	DD	FLAT:__unwindtable$_PMCCS_DivRem_L_X@20
	DD	01H
	DD	FLAT:__tryblocktable$_PMCCS_DivRem_L_X@20
	DD	2 DUP(00H)
	DD	00H
	DD	00H
xdata$x	ENDS
;	COMDAT xdata$x
xdata$x	SEGMENT
__catchsym$_PMCCS_DivRem_I_X@16$2 DD 09H
	DD	FLAT:??_R0?AVException@Internal@Core@Math@Palmtree@@@8
	DD	0ffffffecH
	DD	FLAT:__catch$_PMCCS_DivRem_I_X@16$0
__unwindtable$_PMCCS_DivRem_I_X@16 DD 0ffffffffH
	DD	00H
	DD	0ffffffffH
	DD	00H
__tryblocktable$_PMCCS_DivRem_I_X@16 DD 00H
	DD	00H
	DD	01H
	DD	01H
	DD	FLAT:__catchsym$_PMCCS_DivRem_I_X@16$2
__ehfuncinfo$_PMCCS_DivRem_I_X@16 DD 019930522H
	DD	02H
	DD	FLAT:__unwindtable$_PMCCS_DivRem_I_X@16
	DD	01H
	DD	FLAT:__tryblocktable$_PMCCS_DivRem_I_X@16
	DD	2 DUP(00H)
	DD	00H
	DD	00H
xdata$x	ENDS
;	COMDAT xdata$x
xdata$x	SEGMENT
__catchsym$_PMCCS_Multiply_X_X@12$2 DD 09H
	DD	FLAT:??_R0?AVException@Internal@Core@Math@Palmtree@@@8
	DD	0ffffffecH
	DD	FLAT:__catch$_PMCCS_Multiply_X_X@12$0
__unwindtable$_PMCCS_Multiply_X_X@12 DD 0ffffffffH
	DD	00H
	DD	0ffffffffH
	DD	00H
__tryblocktable$_PMCCS_Multiply_X_X@12 DD 00H
	DD	00H
	DD	01H
	DD	01H
	DD	FLAT:__catchsym$_PMCCS_Multiply_X_X@12$2
__ehfuncinfo$_PMCCS_Multiply_X_X@12 DD 019930522H
	DD	02H
	DD	FLAT:__unwindtable$_PMCCS_Multiply_X_X@12
	DD	01H
	DD	FLAT:__tryblocktable$_PMCCS_Multiply_X_X@12
	DD	2 DUP(00H)
	DD	00H
	DD	00H
xdata$x	ENDS
;	COMDAT xdata$x
xdata$x	SEGMENT
__catchsym$_PMCCS_Multiply_X_L@16$2 DD 09H
	DD	FLAT:??_R0?AVException@Internal@Core@Math@Palmtree@@@8
	DD	0ffffffecH
	DD	FLAT:__catch$_PMCCS_Multiply_X_L@16$0
__unwindtable$_PMCCS_Multiply_X_L@16 DD 0ffffffffH
	DD	00H
	DD	0ffffffffH
	DD	00H
__tryblocktable$_PMCCS_Multiply_X_L@16 DD 00H
	DD	00H
	DD	01H
	DD	01H
	DD	FLAT:__catchsym$_PMCCS_Multiply_X_L@16$2
__ehfuncinfo$_PMCCS_Multiply_X_L@16 DD 019930522H
	DD	02H
	DD	FLAT:__unwindtable$_PMCCS_Multiply_X_L@16
	DD	01H
	DD	FLAT:__tryblocktable$_PMCCS_Multiply_X_L@16
	DD	2 DUP(00H)
	DD	00H
	DD	00H
xdata$x	ENDS
;	COMDAT xdata$x
xdata$x	SEGMENT
__catchsym$_PMCCS_Multiply_X_I@12$2 DD 09H
	DD	FLAT:??_R0?AVException@Internal@Core@Math@Palmtree@@@8
	DD	0ffffffecH
	DD	FLAT:__catch$_PMCCS_Multiply_X_I@12$0
__unwindtable$_PMCCS_Multiply_X_I@12 DD 0ffffffffH
	DD	00H
	DD	0ffffffffH
	DD	00H
__tryblocktable$_PMCCS_Multiply_X_I@12 DD 00H
	DD	00H
	DD	01H
	DD	01H
	DD	FLAT:__catchsym$_PMCCS_Multiply_X_I@12$2
__ehfuncinfo$_PMCCS_Multiply_X_I@12 DD 019930522H
	DD	02H
	DD	FLAT:__unwindtable$_PMCCS_Multiply_X_I@12
	DD	01H
	DD	FLAT:__tryblocktable$_PMCCS_Multiply_X_I@12
	DD	2 DUP(00H)
	DD	00H
	DD	00H
xdata$x	ENDS
;	COMDAT xdata$x
xdata$x	SEGMENT
__catchsym$_PMCCS_Multiply_L_X@16$2 DD 09H
	DD	FLAT:??_R0?AVException@Internal@Core@Math@Palmtree@@@8
	DD	0ffffffecH
	DD	FLAT:__catch$_PMCCS_Multiply_L_X@16$0
__unwindtable$_PMCCS_Multiply_L_X@16 DD 0ffffffffH
	DD	00H
	DD	0ffffffffH
	DD	00H
__tryblocktable$_PMCCS_Multiply_L_X@16 DD 00H
	DD	00H
	DD	01H
	DD	01H
	DD	FLAT:__catchsym$_PMCCS_Multiply_L_X@16$2
__ehfuncinfo$_PMCCS_Multiply_L_X@16 DD 019930522H
	DD	02H
	DD	FLAT:__unwindtable$_PMCCS_Multiply_L_X@16
	DD	01H
	DD	FLAT:__tryblocktable$_PMCCS_Multiply_L_X@16
	DD	2 DUP(00H)
	DD	00H
	DD	00H
xdata$x	ENDS
;	COMDAT xdata$x
xdata$x	SEGMENT
__catchsym$_PMCCS_Multiply_I_X@12$2 DD 09H
	DD	FLAT:??_R0?AVException@Internal@Core@Math@Palmtree@@@8
	DD	0ffffffecH
	DD	FLAT:__catch$_PMCCS_Multiply_I_X@12$0
__unwindtable$_PMCCS_Multiply_I_X@12 DD 0ffffffffH
	DD	00H
	DD	0ffffffffH
	DD	00H
__tryblocktable$_PMCCS_Multiply_I_X@12 DD 00H
	DD	00H
	DD	01H
	DD	01H
	DD	FLAT:__catchsym$_PMCCS_Multiply_I_X@12$2
__ehfuncinfo$_PMCCS_Multiply_I_X@12 DD 019930522H
	DD	02H
	DD	FLAT:__unwindtable$_PMCCS_Multiply_I_X@12
	DD	01H
	DD	FLAT:__tryblocktable$_PMCCS_Multiply_I_X@12
	DD	2 DUP(00H)
	DD	00H
	DD	00H
xdata$x	ENDS
;	COMDAT xdata$x
xdata$x	SEGMENT
__catchsym$_PMCCS_Subtruct_X_X@12$2 DD 09H
	DD	FLAT:??_R0?AVException@Internal@Core@Math@Palmtree@@@8
	DD	0ffffffecH
	DD	FLAT:__catch$_PMCCS_Subtruct_X_X@12$0
__unwindtable$_PMCCS_Subtruct_X_X@12 DD 0ffffffffH
	DD	00H
	DD	0ffffffffH
	DD	00H
__tryblocktable$_PMCCS_Subtruct_X_X@12 DD 00H
	DD	00H
	DD	01H
	DD	01H
	DD	FLAT:__catchsym$_PMCCS_Subtruct_X_X@12$2
__ehfuncinfo$_PMCCS_Subtruct_X_X@12 DD 019930522H
	DD	02H
	DD	FLAT:__unwindtable$_PMCCS_Subtruct_X_X@12
	DD	01H
	DD	FLAT:__tryblocktable$_PMCCS_Subtruct_X_X@12
	DD	2 DUP(00H)
	DD	00H
	DD	00H
xdata$x	ENDS
;	COMDAT xdata$x
xdata$x	SEGMENT
__catchsym$_PMCCS_Subtruct_X_L@16$2 DD 09H
	DD	FLAT:??_R0?AVException@Internal@Core@Math@Palmtree@@@8
	DD	0ffffffecH
	DD	FLAT:__catch$_PMCCS_Subtruct_X_L@16$0
__unwindtable$_PMCCS_Subtruct_X_L@16 DD 0ffffffffH
	DD	00H
	DD	0ffffffffH
	DD	00H
__tryblocktable$_PMCCS_Subtruct_X_L@16 DD 00H
	DD	00H
	DD	01H
	DD	01H
	DD	FLAT:__catchsym$_PMCCS_Subtruct_X_L@16$2
__ehfuncinfo$_PMCCS_Subtruct_X_L@16 DD 019930522H
	DD	02H
	DD	FLAT:__unwindtable$_PMCCS_Subtruct_X_L@16
	DD	01H
	DD	FLAT:__tryblocktable$_PMCCS_Subtruct_X_L@16
	DD	2 DUP(00H)
	DD	00H
	DD	00H
xdata$x	ENDS
;	COMDAT xdata$x
xdata$x	SEGMENT
__catchsym$_PMCCS_Subtruct_X_I@12$2 DD 09H
	DD	FLAT:??_R0?AVException@Internal@Core@Math@Palmtree@@@8
	DD	0ffffffecH
	DD	FLAT:__catch$_PMCCS_Subtruct_X_I@12$0
__unwindtable$_PMCCS_Subtruct_X_I@12 DD 0ffffffffH
	DD	00H
	DD	0ffffffffH
	DD	00H
__tryblocktable$_PMCCS_Subtruct_X_I@12 DD 00H
	DD	00H
	DD	01H
	DD	01H
	DD	FLAT:__catchsym$_PMCCS_Subtruct_X_I@12$2
__ehfuncinfo$_PMCCS_Subtruct_X_I@12 DD 019930522H
	DD	02H
	DD	FLAT:__unwindtable$_PMCCS_Subtruct_X_I@12
	DD	01H
	DD	FLAT:__tryblocktable$_PMCCS_Subtruct_X_I@12
	DD	2 DUP(00H)
	DD	00H
	DD	00H
xdata$x	ENDS
;	COMDAT xdata$x
xdata$x	SEGMENT
__catchsym$_PMCCS_Subtruct_L_X@16$2 DD 09H
	DD	FLAT:??_R0?AVException@Internal@Core@Math@Palmtree@@@8
	DD	0ffffffecH
	DD	FLAT:__catch$_PMCCS_Subtruct_L_X@16$0
__unwindtable$_PMCCS_Subtruct_L_X@16 DD 0ffffffffH
	DD	00H
	DD	0ffffffffH
	DD	00H
__tryblocktable$_PMCCS_Subtruct_L_X@16 DD 00H
	DD	00H
	DD	01H
	DD	01H
	DD	FLAT:__catchsym$_PMCCS_Subtruct_L_X@16$2
__ehfuncinfo$_PMCCS_Subtruct_L_X@16 DD 019930522H
	DD	02H
	DD	FLAT:__unwindtable$_PMCCS_Subtruct_L_X@16
	DD	01H
	DD	FLAT:__tryblocktable$_PMCCS_Subtruct_L_X@16
	DD	2 DUP(00H)
	DD	00H
	DD	00H
xdata$x	ENDS
;	COMDAT xdata$x
xdata$x	SEGMENT
__catchsym$_PMCCS_Subtruct_I_X@12$2 DD 09H
	DD	FLAT:??_R0?AVException@Internal@Core@Math@Palmtree@@@8
	DD	0ffffffecH
	DD	FLAT:__catch$_PMCCS_Subtruct_I_X@12$0
__unwindtable$_PMCCS_Subtruct_I_X@12 DD 0ffffffffH
	DD	00H
	DD	0ffffffffH
	DD	00H
__tryblocktable$_PMCCS_Subtruct_I_X@12 DD 00H
	DD	00H
	DD	01H
	DD	01H
	DD	FLAT:__catchsym$_PMCCS_Subtruct_I_X@12$2
__ehfuncinfo$_PMCCS_Subtruct_I_X@12 DD 019930522H
	DD	02H
	DD	FLAT:__unwindtable$_PMCCS_Subtruct_I_X@12
	DD	01H
	DD	FLAT:__tryblocktable$_PMCCS_Subtruct_I_X@12
	DD	2 DUP(00H)
	DD	00H
	DD	00H
xdata$x	ENDS
;	COMDAT xdata$x
xdata$x	SEGMENT
__catchsym$_PMCCS_Add_X_X@12$2 DD 09H
	DD	FLAT:??_R0?AVException@Internal@Core@Math@Palmtree@@@8
	DD	0ffffffecH
	DD	FLAT:__catch$_PMCCS_Add_X_X@12$0
__unwindtable$_PMCCS_Add_X_X@12 DD 0ffffffffH
	DD	00H
	DD	0ffffffffH
	DD	00H
__tryblocktable$_PMCCS_Add_X_X@12 DD 00H
	DD	00H
	DD	01H
	DD	01H
	DD	FLAT:__catchsym$_PMCCS_Add_X_X@12$2
__ehfuncinfo$_PMCCS_Add_X_X@12 DD 019930522H
	DD	02H
	DD	FLAT:__unwindtable$_PMCCS_Add_X_X@12
	DD	01H
	DD	FLAT:__tryblocktable$_PMCCS_Add_X_X@12
	DD	2 DUP(00H)
	DD	00H
	DD	00H
xdata$x	ENDS
;	COMDAT xdata$x
xdata$x	SEGMENT
__catchsym$_PMCCS_Add_X_L@16$2 DD 09H
	DD	FLAT:??_R0?AVException@Internal@Core@Math@Palmtree@@@8
	DD	0ffffffecH
	DD	FLAT:__catch$_PMCCS_Add_X_L@16$0
__unwindtable$_PMCCS_Add_X_L@16 DD 0ffffffffH
	DD	00H
	DD	0ffffffffH
	DD	00H
__tryblocktable$_PMCCS_Add_X_L@16 DD 00H
	DD	00H
	DD	01H
	DD	01H
	DD	FLAT:__catchsym$_PMCCS_Add_X_L@16$2
__ehfuncinfo$_PMCCS_Add_X_L@16 DD 019930522H
	DD	02H
	DD	FLAT:__unwindtable$_PMCCS_Add_X_L@16
	DD	01H
	DD	FLAT:__tryblocktable$_PMCCS_Add_X_L@16
	DD	2 DUP(00H)
	DD	00H
	DD	00H
xdata$x	ENDS
;	COMDAT xdata$x
xdata$x	SEGMENT
__catchsym$_PMCCS_Add_X_I@12$2 DD 09H
	DD	FLAT:??_R0?AVException@Internal@Core@Math@Palmtree@@@8
	DD	0ffffffecH
	DD	FLAT:__catch$_PMCCS_Add_X_I@12$0
__unwindtable$_PMCCS_Add_X_I@12 DD 0ffffffffH
	DD	00H
	DD	0ffffffffH
	DD	00H
__tryblocktable$_PMCCS_Add_X_I@12 DD 00H
	DD	00H
	DD	01H
	DD	01H
	DD	FLAT:__catchsym$_PMCCS_Add_X_I@12$2
__ehfuncinfo$_PMCCS_Add_X_I@12 DD 019930522H
	DD	02H
	DD	FLAT:__unwindtable$_PMCCS_Add_X_I@12
	DD	01H
	DD	FLAT:__tryblocktable$_PMCCS_Add_X_I@12
	DD	2 DUP(00H)
	DD	00H
	DD	00H
xdata$x	ENDS
;	COMDAT xdata$x
xdata$x	SEGMENT
__catchsym$_PMCCS_Add_L_X@16$2 DD 09H
	DD	FLAT:??_R0?AVException@Internal@Core@Math@Palmtree@@@8
	DD	0ffffffecH
	DD	FLAT:__catch$_PMCCS_Add_L_X@16$0
__unwindtable$_PMCCS_Add_L_X@16 DD 0ffffffffH
	DD	00H
	DD	0ffffffffH
	DD	00H
__tryblocktable$_PMCCS_Add_L_X@16 DD 00H
	DD	00H
	DD	01H
	DD	01H
	DD	FLAT:__catchsym$_PMCCS_Add_L_X@16$2
__ehfuncinfo$_PMCCS_Add_L_X@16 DD 019930522H
	DD	02H
	DD	FLAT:__unwindtable$_PMCCS_Add_L_X@16
	DD	01H
	DD	FLAT:__tryblocktable$_PMCCS_Add_L_X@16
	DD	2 DUP(00H)
	DD	00H
	DD	00H
xdata$x	ENDS
;	COMDAT xdata$x
xdata$x	SEGMENT
__catchsym$_PMCCS_Add_I_X@12$2 DD 09H
	DD	FLAT:??_R0?AVException@Internal@Core@Math@Palmtree@@@8
	DD	0ffffffecH
	DD	FLAT:__catch$_PMCCS_Add_I_X@12$0
__unwindtable$_PMCCS_Add_I_X@12 DD 0ffffffffH
	DD	00H
	DD	0ffffffffH
	DD	00H
__tryblocktable$_PMCCS_Add_I_X@12 DD 00H
	DD	00H
	DD	01H
	DD	01H
	DD	FLAT:__catchsym$_PMCCS_Add_I_X@12$2
__ehfuncinfo$_PMCCS_Add_I_X@12 DD 019930522H
	DD	02H
	DD	FLAT:__unwindtable$_PMCCS_Add_I_X@12
	DD	01H
	DD	FLAT:__tryblocktable$_PMCCS_Add_I_X@12
	DD	2 DUP(00H)
	DD	00H
	DD	00H
xdata$x	ENDS
;	COMDAT xdata$x
xdata$x	SEGMENT
__catchsym$_PMCCS_TryParse@20$2 DD 09H
	DD	FLAT:??_R0?AVException@Internal@Core@Math@Palmtree@@@8
	DD	0ffffffecH
	DD	FLAT:__catch$_PMCCS_TryParse@20$0
__unwindtable$_PMCCS_TryParse@20 DD 0ffffffffH
	DD	00H
	DD	0ffffffffH
	DD	00H
__tryblocktable$_PMCCS_TryParse@20 DD 00H
	DD	00H
	DD	01H
	DD	01H
	DD	FLAT:__catchsym$_PMCCS_TryParse@20$2
__ehfuncinfo$_PMCCS_TryParse@20 DD 019930522H
	DD	02H
	DD	FLAT:__unwindtable$_PMCCS_TryParse@20
	DD	01H
	DD	FLAT:__tryblocktable$_PMCCS_TryParse@20
	DD	2 DUP(00H)
	DD	00H
	DD	00H
xdata$x	ENDS
;	COMDAT xdata$x
xdata$x	SEGMENT
__catchsym$_PMCCS_Parse@16$2 DD 09H
	DD	FLAT:??_R0?AVException@Internal@Core@Math@Palmtree@@@8
	DD	0ffffffecH
	DD	FLAT:__catch$_PMCCS_Parse@16$0
__unwindtable$_PMCCS_Parse@16 DD 0ffffffffH
	DD	00H
	DD	0ffffffffH
	DD	00H
__tryblocktable$_PMCCS_Parse@16 DD 00H
	DD	00H
	DD	01H
	DD	01H
	DD	FLAT:__catchsym$_PMCCS_Parse@16$2
__ehfuncinfo$_PMCCS_Parse@16 DD 019930522H
	DD	02H
	DD	FLAT:__unwindtable$_PMCCS_Parse@16
	DD	01H
	DD	FLAT:__tryblocktable$_PMCCS_Parse@16
	DD	2 DUP(00H)
	DD	00H
	DD	00H
xdata$x	ENDS
;	COMDAT xdata$x
xdata$x	SEGMENT
__catchsym$_PMCCS_ToString@24$2 DD 09H
	DD	FLAT:??_R0?AVException@Internal@Core@Math@Palmtree@@@8
	DD	0ffffffecH
	DD	FLAT:__catch$_PMCCS_ToString@24$0
__unwindtable$_PMCCS_ToString@24 DD 0ffffffffH
	DD	00H
	DD	0ffffffffH
	DD	00H
__tryblocktable$_PMCCS_ToString@24 DD 00H
	DD	00H
	DD	01H
	DD	01H
	DD	FLAT:__catchsym$_PMCCS_ToString@24$2
__ehfuncinfo$_PMCCS_ToString@24 DD 019930522H
	DD	02H
	DD	FLAT:__unwindtable$_PMCCS_ToString@24
	DD	01H
	DD	FLAT:__tryblocktable$_PMCCS_ToString@24
	DD	2 DUP(00H)
	DD	00H
	DD	00H
xdata$x	ENDS
;	COMDAT xdata$x
xdata$x	SEGMENT
__catchsym$_PMCCS_To_X_L@8$2 DD 09H
	DD	FLAT:??_R0?AVException@Internal@Core@Math@Palmtree@@@8
	DD	0ffffffecH
	DD	FLAT:__catch$_PMCCS_To_X_L@8$0
__unwindtable$_PMCCS_To_X_L@8 DD 0ffffffffH
	DD	00H
	DD	0ffffffffH
	DD	00H
__tryblocktable$_PMCCS_To_X_L@8 DD 00H
	DD	00H
	DD	01H
	DD	01H
	DD	FLAT:__catchsym$_PMCCS_To_X_L@8$2
__ehfuncinfo$_PMCCS_To_X_L@8 DD 019930522H
	DD	02H
	DD	FLAT:__unwindtable$_PMCCS_To_X_L@8
	DD	01H
	DD	FLAT:__tryblocktable$_PMCCS_To_X_L@8
	DD	2 DUP(00H)
	DD	00H
	DD	00H
xdata$x	ENDS
;	COMDAT xdata$x
xdata$x	SEGMENT
__catchsym$_PMCCS_To_X_I@8$2 DD 09H
	DD	FLAT:??_R0?AVException@Internal@Core@Math@Palmtree@@@8
	DD	0ffffffecH
	DD	FLAT:__catch$_PMCCS_To_X_I@8$0
__unwindtable$_PMCCS_To_X_I@8 DD 0ffffffffH
	DD	00H
	DD	0ffffffffH
	DD	00H
__tryblocktable$_PMCCS_To_X_I@8 DD 00H
	DD	00H
	DD	01H
	DD	01H
	DD	FLAT:__catchsym$_PMCCS_To_X_I@8$2
__ehfuncinfo$_PMCCS_To_X_I@8 DD 019930522H
	DD	02H
	DD	FLAT:__unwindtable$_PMCCS_To_X_I@8
	DD	01H
	DD	FLAT:__tryblocktable$_PMCCS_To_X_I@8
	DD	2 DUP(00H)
	DD	00H
	DD	00H
xdata$x	ENDS
;	COMDAT xdata$x
xdata$x	SEGMENT
__catchsym$_PMCCS_GetAllocatedMemorySize@4$2 DD 09H
	DD	FLAT:??_R0?AVException@Internal@Core@Math@Palmtree@@@8
	DD	0ffffffecH
	DD	FLAT:__catch$_PMCCS_GetAllocatedMemorySize@4$0
__unwindtable$_PMCCS_GetAllocatedMemorySize@4 DD 0ffffffffH
	DD	00H
	DD	0ffffffffH
	DD	00H
__tryblocktable$_PMCCS_GetAllocatedMemorySize@4 DD 00H
	DD	00H
	DD	01H
	DD	01H
	DD	FLAT:__catchsym$_PMCCS_GetAllocatedMemorySize@4$2
__ehfuncinfo$_PMCCS_GetAllocatedMemorySize@4 DD 019930522H
	DD	02H
	DD	FLAT:__unwindtable$_PMCCS_GetAllocatedMemorySize@4
	DD	01H
	DD	FLAT:__tryblocktable$_PMCCS_GetAllocatedMemorySize@4
	DD	2 DUP(00H)
	DD	00H
	DD	00H
xdata$x	ENDS
;	COMDAT xdata$x
xdata$x	SEGMENT
__catchsym$_PMCCS_Clone_X@8$2 DD 09H
	DD	FLAT:??_R0?AVException@Internal@Core@Math@Palmtree@@@8
	DD	0ffffffecH
	DD	FLAT:__catch$_PMCCS_Clone_X@8$0
__unwindtable$_PMCCS_Clone_X@8 DD 0ffffffffH
	DD	00H
	DD	0ffffffffH
	DD	00H
__tryblocktable$_PMCCS_Clone_X@8 DD 00H
	DD	00H
	DD	01H
	DD	01H
	DD	FLAT:__catchsym$_PMCCS_Clone_X@8$2
__ehfuncinfo$_PMCCS_Clone_X@8 DD 019930522H
	DD	02H
	DD	FLAT:__unwindtable$_PMCCS_Clone_X@8
	DD	01H
	DD	FLAT:__tryblocktable$_PMCCS_Clone_X@8
	DD	2 DUP(00H)
	DD	00H
	DD	00H
xdata$x	ENDS
;	COMDAT xdata$x
xdata$x	SEGMENT
__catchsym$_PMCCS_ToByteArray@16$2 DD 09H
	DD	FLAT:??_R0?AVException@Internal@Core@Math@Palmtree@@@8
	DD	0ffffffecH
	DD	FLAT:__catch$_PMCCS_ToByteArray@16$0
__unwindtable$_PMCCS_ToByteArray@16 DD 0ffffffffH
	DD	00H
	DD	0ffffffffH
	DD	00H
__tryblocktable$_PMCCS_ToByteArray@16 DD 00H
	DD	00H
	DD	01H
	DD	01H
	DD	FLAT:__catchsym$_PMCCS_ToByteArray@16$2
__ehfuncinfo$_PMCCS_ToByteArray@16 DD 019930522H
	DD	02H
	DD	FLAT:__unwindtable$_PMCCS_ToByteArray@16
	DD	01H
	DD	FLAT:__tryblocktable$_PMCCS_ToByteArray@16
	DD	2 DUP(00H)
	DD	00H
	DD	00H
xdata$x	ENDS
;	COMDAT xdata$x
xdata$x	SEGMENT
__catchsym$_PMCCS_FromByteArray@12$2 DD 09H
	DD	FLAT:??_R0?AVException@Internal@Core@Math@Palmtree@@@8
	DD	0ffffffecH
	DD	FLAT:__catch$_PMCCS_FromByteArray@12$0
__unwindtable$_PMCCS_FromByteArray@12 DD 0ffffffffH
	DD	00H
	DD	0ffffffffH
	DD	00H
__tryblocktable$_PMCCS_FromByteArray@12 DD 00H
	DD	00H
	DD	01H
	DD	01H
	DD	FLAT:__catchsym$_PMCCS_FromByteArray@12$2
__ehfuncinfo$_PMCCS_FromByteArray@12 DD 019930522H
	DD	02H
	DD	FLAT:__unwindtable$_PMCCS_FromByteArray@12
	DD	01H
	DD	FLAT:__tryblocktable$_PMCCS_FromByteArray@12
	DD	2 DUP(00H)
	DD	00H
	DD	00H
xdata$x	ENDS
;	COMDAT xdata$x
xdata$x	SEGMENT
__catchsym$_PMCCS_GetConstantValue_I@8$2 DD 09H
	DD	FLAT:??_R0?AVException@Internal@Core@Math@Palmtree@@@8
	DD	0ffffffecH
	DD	FLAT:__catch$_PMCCS_GetConstantValue_I@8$0
__unwindtable$_PMCCS_GetConstantValue_I@8 DD 0ffffffffH
	DD	00H
	DD	0ffffffffH
	DD	00H
__tryblocktable$_PMCCS_GetConstantValue_I@8 DD 00H
	DD	00H
	DD	01H
	DD	01H
	DD	FLAT:__catchsym$_PMCCS_GetConstantValue_I@8$2
__ehfuncinfo$_PMCCS_GetConstantValue_I@8 DD 019930522H
	DD	02H
	DD	FLAT:__unwindtable$_PMCCS_GetConstantValue_I@8
	DD	01H
	DD	FLAT:__tryblocktable$_PMCCS_GetConstantValue_I@8
	DD	2 DUP(00H)
	DD	00H
	DD	00H
xdata$x	ENDS
;	COMDAT xdata$x
xdata$x	SEGMENT
__catchsym$_PMCCS_Dispose@4$2 DD 09H
	DD	FLAT:??_R0?AVException@Internal@Core@Math@Palmtree@@@8
	DD	0ffffffecH
	DD	FLAT:__catch$_PMCCS_Dispose@4$0
__unwindtable$_PMCCS_Dispose@4 DD 0ffffffffH
	DD	00H
	DD	0ffffffffH
	DD	00H
__tryblocktable$_PMCCS_Dispose@4 DD 00H
	DD	00H
	DD	01H
	DD	01H
	DD	FLAT:__catchsym$_PMCCS_Dispose@4$2
__ehfuncinfo$_PMCCS_Dispose@4 DD 019930522H
	DD	02H
	DD	FLAT:__unwindtable$_PMCCS_Dispose@4
	DD	01H
	DD	FLAT:__tryblocktable$_PMCCS_Dispose@4
	DD	2 DUP(00H)
	DD	00H
	DD	00H
xdata$x	ENDS
;	COMDAT xdata$x
xdata$x	SEGMENT
__catchsym$_PMCCS_From_L@12$2 DD 09H
	DD	FLAT:??_R0?AVException@Internal@Core@Math@Palmtree@@@8
	DD	0ffffffecH
	DD	FLAT:__catch$_PMCCS_From_L@12$0
__unwindtable$_PMCCS_From_L@12 DD 0ffffffffH
	DD	00H
	DD	0ffffffffH
	DD	00H
__tryblocktable$_PMCCS_From_L@12 DD 00H
	DD	00H
	DD	01H
	DD	01H
	DD	FLAT:__catchsym$_PMCCS_From_L@12$2
__ehfuncinfo$_PMCCS_From_L@12 DD 019930522H
	DD	02H
	DD	FLAT:__unwindtable$_PMCCS_From_L@12
	DD	01H
	DD	FLAT:__tryblocktable$_PMCCS_From_L@12
	DD	2 DUP(00H)
	DD	00H
	DD	00H
xdata$x	ENDS
;	COMDAT xdata$x
xdata$x	SEGMENT
__catchsym$_PMCCS_From_I@8$2 DD 09H
	DD	FLAT:??_R0?AVException@Internal@Core@Math@Palmtree@@@8
	DD	0ffffffecH
	DD	FLAT:__catch$_PMCCS_From_I@8$0
__unwindtable$_PMCCS_From_I@8 DD 0ffffffffH
	DD	00H
	DD	0ffffffffH
	DD	00H
__tryblocktable$_PMCCS_From_I@8 DD 00H
	DD	00H
	DD	01H
	DD	01H
	DD	FLAT:__catchsym$_PMCCS_From_I@8$2
__ehfuncinfo$_PMCCS_From_I@8 DD 019930522H
	DD	02H
	DD	FLAT:__unwindtable$_PMCCS_From_I@8
	DD	01H
	DD	FLAT:__tryblocktable$_PMCCS_From_I@8
	DD	2 DUP(00H)
	DD	00H
	DD	00H
xdata$x	ENDS
;	COMDAT xdata$x
xdata$x	SEGMENT
__catchsym$_PMCCS_GET_HASH_CODE@8$2 DD 09H
	DD	FLAT:??_R0?AVException@Internal@Core@Math@Palmtree@@@8
	DD	0ffffffecH
	DD	FLAT:__catch$_PMCCS_GET_HASH_CODE@8$0
__unwindtable$_PMCCS_GET_HASH_CODE@8 DD 0ffffffffH
	DD	00H
	DD	0ffffffffH
	DD	00H
__tryblocktable$_PMCCS_GET_HASH_CODE@8 DD 00H
	DD	00H
	DD	01H
	DD	01H
	DD	FLAT:__catchsym$_PMCCS_GET_HASH_CODE@8$2
__ehfuncinfo$_PMCCS_GET_HASH_CODE@8 DD 019930522H
	DD	02H
	DD	FLAT:__unwindtable$_PMCCS_GET_HASH_CODE@8
	DD	01H
	DD	FLAT:__tryblocktable$_PMCCS_GET_HASH_CODE@8
	DD	2 DUP(00H)
	DD	00H
	DD	00H
xdata$x	ENDS
;	COMDAT xdata$x
xdata$x	SEGMENT
__catchsym$_PMCCS_IS_ZERO@8$2 DD 09H
	DD	FLAT:??_R0?AVException@Internal@Core@Math@Palmtree@@@8
	DD	0ffffffecH
	DD	FLAT:__catch$_PMCCS_IS_ZERO@8$0
__unwindtable$_PMCCS_IS_ZERO@8 DD 0ffffffffH
	DD	00H
	DD	0ffffffffH
	DD	00H
__tryblocktable$_PMCCS_IS_ZERO@8 DD 00H
	DD	00H
	DD	01H
	DD	01H
	DD	FLAT:__catchsym$_PMCCS_IS_ZERO@8$2
__ehfuncinfo$_PMCCS_IS_ZERO@8 DD 019930522H
	DD	02H
	DD	FLAT:__unwindtable$_PMCCS_IS_ZERO@8
	DD	01H
	DD	FLAT:__tryblocktable$_PMCCS_IS_ZERO@8
	DD	2 DUP(00H)
	DD	00H
	DD	00H
xdata$x	ENDS
;	COMDAT xdata$x
xdata$x	SEGMENT
__catchsym$_PMCCS_IS_POWER_OF_TWO@8$2 DD 09H
	DD	FLAT:??_R0?AVException@Internal@Core@Math@Palmtree@@@8
	DD	0ffffffecH
	DD	FLAT:__catch$_PMCCS_IS_POWER_OF_TWO@8$0
__unwindtable$_PMCCS_IS_POWER_OF_TWO@8 DD 0ffffffffH
	DD	00H
	DD	0ffffffffH
	DD	00H
__tryblocktable$_PMCCS_IS_POWER_OF_TWO@8 DD 00H
	DD	00H
	DD	01H
	DD	01H
	DD	FLAT:__catchsym$_PMCCS_IS_POWER_OF_TWO@8$2
__ehfuncinfo$_PMCCS_IS_POWER_OF_TWO@8 DD 019930522H
	DD	02H
	DD	FLAT:__unwindtable$_PMCCS_IS_POWER_OF_TWO@8
	DD	01H
	DD	FLAT:__tryblocktable$_PMCCS_IS_POWER_OF_TWO@8
	DD	2 DUP(00H)
	DD	00H
	DD	00H
xdata$x	ENDS
;	COMDAT xdata$x
xdata$x	SEGMENT
__catchsym$_PMCCS_IS_ONE@8$2 DD 09H
	DD	FLAT:??_R0?AVException@Internal@Core@Math@Palmtree@@@8
	DD	0ffffffecH
	DD	FLAT:__catch$_PMCCS_IS_ONE@8$0
__unwindtable$_PMCCS_IS_ONE@8 DD 0ffffffffH
	DD	00H
	DD	0ffffffffH
	DD	00H
__tryblocktable$_PMCCS_IS_ONE@8 DD 00H
	DD	00H
	DD	01H
	DD	01H
	DD	FLAT:__catchsym$_PMCCS_IS_ONE@8$2
__ehfuncinfo$_PMCCS_IS_ONE@8 DD 019930522H
	DD	02H
	DD	FLAT:__unwindtable$_PMCCS_IS_ONE@8
	DD	01H
	DD	FLAT:__tryblocktable$_PMCCS_IS_ONE@8
	DD	2 DUP(00H)
	DD	00H
	DD	00H
xdata$x	ENDS
;	COMDAT xdata$x
xdata$x	SEGMENT
__catchsym$_PMCCS_IS_EVEN@8$2 DD 09H
	DD	FLAT:??_R0?AVException@Internal@Core@Math@Palmtree@@@8
	DD	0ffffffecH
	DD	FLAT:__catch$_PMCCS_IS_EVEN@8$0
__unwindtable$_PMCCS_IS_EVEN@8 DD 0ffffffffH
	DD	00H
	DD	0ffffffffH
	DD	00H
__tryblocktable$_PMCCS_IS_EVEN@8 DD 00H
	DD	00H
	DD	01H
	DD	01H
	DD	FLAT:__catchsym$_PMCCS_IS_EVEN@8$2
__ehfuncinfo$_PMCCS_IS_EVEN@8 DD 019930522H
	DD	02H
	DD	FLAT:__unwindtable$_PMCCS_IS_EVEN@8
	DD	01H
	DD	FLAT:__tryblocktable$_PMCCS_IS_EVEN@8
	DD	2 DUP(00H)
	DD	00H
	DD	00H
xdata$x	ENDS
; Function compile flags: /Ogtp
; File z:\sources\lunor\repos\rougemeilland\palmtree.math.core.uint\palmtree.math.core.uint\pmc_interface_csharp.cpp
; File z:\sources\lunor\repos\rougemeilland\palmtree.math.core.uint\palmtree.math.core.uint\pmc_exception.h
; File z:\sources\lunor\repos\rougemeilland\palmtree.math.core.uint\palmtree.math.core.uint\pmc_interface_csharp.cpp
;	COMDAT _PMCCS_ModPow_X_X_X@16
_TEXT	SEGMENT
_ex$2 = -20						; size = 4
__$EHRec$ = -16						; size = 16
_v$ = 8							; size = 4
_e$ = 12						; size = 4
_m$ = 16						; size = 4
$T3 = 20						; size = 4
_r$ = 20						; size = 4
_PMCCS_ModPow_X_X_X@16 PROC				; COMDAT

; 1232 :     {

  00000	55		 push	 ebp
  00001	8b ec		 mov	 ebp, esp
  00003	6a ff		 push	 -1
  00005	68 00 00 00 00	 push	 __ehhandler$_PMCCS_ModPow_X_X_X@16
  0000a	64 a1 00 00 00
	00		 mov	 eax, DWORD PTR fs:0
  00010	50		 push	 eax
  00011	83 ec 08	 sub	 esp, 8
  00014	53		 push	 ebx
  00015	56		 push	 esi
  00016	57		 push	 edi
  00017	a1 00 00 00 00	 mov	 eax, DWORD PTR ___security_cookie
  0001c	33 c5		 xor	 eax, ebp
  0001e	50		 push	 eax
  0001f	8d 45 f4	 lea	 eax, DWORD PTR __$EHRec$[ebp+4]
  00022	64 a3 00 00 00
	00		 mov	 DWORD PTR fs:0, eax
  00028	89 65 f0	 mov	 DWORD PTR __$EHRec$[ebp], esp

; 1233 :         if (r == nullptr)

  0002b	8b 75 14	 mov	 esi, DWORD PTR _r$[ebp]
  0002e	85 f6		 test	 esi, esi
  00030	75 17		 jne	 SHORT $LN2@PMCCS_ModP

; 1234 :             return (PMC_STATUS_ARGUMENT_NULL_ERROR);

  00032	8d 46 fe	 lea	 eax, DWORD PTR [esi-2]

; 1243 :         }
; 1244 :     }

  00035	8b 4d f4	 mov	 ecx, DWORD PTR __$EHRec$[ebp+4]
  00038	64 89 0d 00 00
	00 00		 mov	 DWORD PTR fs:0, ecx
  0003f	59		 pop	 ecx
  00040	5f		 pop	 edi
  00041	5e		 pop	 esi
  00042	5b		 pop	 ebx
  00043	8b e5		 mov	 esp, ebp
  00045	5d		 pop	 ebp
  00046	c2 10 00	 ret	 16			; 00000010H
$LN2@PMCCS_ModP:

; 1235 :         try

  00049	c7 45 fc 00 00
	00 00		 mov	 DWORD PTR __$EHRec$[ebp+12], 0

; 1236 :         {
; 1237 :             *r = PMC_ModPow_X_X_X(v, e, m);

  00050	ff 75 10	 push	 DWORD PTR _m$[ebp]
  00053	ff 75 0c	 push	 DWORD PTR _e$[ebp]
  00056	ff 75 08	 push	 DWORD PTR _v$[ebp]
  00059	e8 00 00 00 00	 call	 ?PMC_ModPow_X_X_X@Internal@Core@Math@Palmtree@@YGPAU__tag_PMC_HANDLE_UINT@1234@PAU51234@00@Z ; Palmtree::Math::Core::Internal::PMC_ModPow_X_X_X
  0005e	89 06		 mov	 DWORD PTR [esi], eax

; 1238 :             return (PMC_STATUS_OK);

  00060	33 c0		 xor	 eax, eax

; 1243 :         }
; 1244 :     }

  00062	8b 4d f4	 mov	 ecx, DWORD PTR __$EHRec$[ebp+4]
  00065	64 89 0d 00 00
	00 00		 mov	 DWORD PTR fs:0, ecx
  0006c	59		 pop	 ecx
  0006d	5f		 pop	 edi
  0006e	5e		 pop	 esi
  0006f	5b		 pop	 ebx
  00070	8b e5		 mov	 esp, ebp
  00072	5d		 pop	 ebp
  00073	c2 10 00	 ret	 16			; 00000010H
__catch$_PMCCS_ModPow_X_X_X@16$0:
; File z:\sources\lunor\repos\rougemeilland\palmtree.math.core.uint\palmtree.math.core.uint\pmc_exception.h

; 75   :             return (_code);

  00076	8b 45 ec	 mov	 eax, DWORD PTR _ex$2[ebp]
  00079	8b 40 0c	 mov	 eax, DWORD PTR [eax+12]
  0007c	89 45 14	 mov	 DWORD PTR $T3[ebp], eax
; File z:\sources\lunor\repos\rougemeilland\palmtree.math.core.uint\palmtree.math.core.uint\pmc_interface_csharp.cpp

; 1242 :             return (ex.GetStatusCode());

  0007f	b8 00 00 00 00	 mov	 eax, $LN8@PMCCS_ModP
  00084	c3		 ret	 0
$LN8@PMCCS_ModP:
; File z:\sources\lunor\repos\rougemeilland\palmtree.math.core.uint\palmtree.math.core.uint\pmc_exception.h
  00085	c7 45 fc ff ff
	ff ff		 mov	 DWORD PTR __$EHRec$[ebp+12], -1
; File z:\sources\lunor\repos\rougemeilland\palmtree.math.core.uint\palmtree.math.core.uint\pmc_interface_csharp.cpp

; 1242 :             return (ex.GetStatusCode());

  0008c	8b 45 14	 mov	 eax, DWORD PTR $T3[ebp]

; 1243 :         }
; 1244 :     }

  0008f	8b 4d f4	 mov	 ecx, DWORD PTR __$EHRec$[ebp+4]
  00092	64 89 0d 00 00
	00 00		 mov	 DWORD PTR fs:0, ecx
  00099	59		 pop	 ecx
  0009a	5f		 pop	 edi
  0009b	5e		 pop	 esi
  0009c	5b		 pop	 ebx
  0009d	8b e5		 mov	 esp, ebp
  0009f	5d		 pop	 ebp
  000a0	c2 10 00	 ret	 16			; 00000010H
_TEXT	ENDS
;	COMDAT text$x
text$x	SEGMENT
__ehhandler$_PMCCS_ModPow_X_X_X@16:
  00000	8b 54 24 08	 mov	 edx, DWORD PTR [esp+8]
  00004	8d 42 0c	 lea	 eax, DWORD PTR [edx+12]
  00007	8b 4a e8	 mov	 ecx, DWORD PTR [edx-24]
  0000a	33 c8		 xor	 ecx, eax
  0000c	e8 00 00 00 00	 call	 @__security_check_cookie@4
  00011	b8 00 00 00 00	 mov	 eax, OFFSET __ehfuncinfo$_PMCCS_ModPow_X_X_X@16
  00016	e9 00 00 00 00	 jmp	 ___CxxFrameHandler3
text$x	ENDS
_PMCCS_ModPow_X_X_X@16 ENDP
; Function compile flags: /Ogtp
; File z:\sources\lunor\repos\rougemeilland\palmtree.math.core.uint\palmtree.math.core.uint\pmc_interface_csharp.cpp
; File z:\sources\lunor\repos\rougemeilland\palmtree.math.core.uint\palmtree.math.core.uint\pmc_exception.h
; File z:\sources\lunor\repos\rougemeilland\palmtree.math.core.uint\palmtree.math.core.uint\pmc_interface_csharp.cpp
;	COMDAT _PMCCS_Pow_X_L@16
_TEXT	SEGMENT
_ex$2 = -20						; size = 4
__$EHRec$ = -16						; size = 16
_x$ = 8							; size = 4
_n$ = 12						; size = 8
$T3 = 20						; size = 4
_v$ = 20						; size = 4
_PMCCS_Pow_X_L@16 PROC					; COMDAT

; 1217 :     {

  00000	55		 push	 ebp
  00001	8b ec		 mov	 ebp, esp
  00003	6a ff		 push	 -1
  00005	68 00 00 00 00	 push	 __ehhandler$_PMCCS_Pow_X_L@16
  0000a	64 a1 00 00 00
	00		 mov	 eax, DWORD PTR fs:0
  00010	50		 push	 eax
  00011	83 ec 08	 sub	 esp, 8
  00014	53		 push	 ebx
  00015	56		 push	 esi
  00016	57		 push	 edi
  00017	a1 00 00 00 00	 mov	 eax, DWORD PTR ___security_cookie
  0001c	33 c5		 xor	 eax, ebp
  0001e	50		 push	 eax
  0001f	8d 45 f4	 lea	 eax, DWORD PTR __$EHRec$[ebp+4]
  00022	64 a3 00 00 00
	00		 mov	 DWORD PTR fs:0, eax
  00028	89 65 f0	 mov	 DWORD PTR __$EHRec$[ebp], esp

; 1218 :         if (v == nullptr)

  0002b	8b 75 14	 mov	 esi, DWORD PTR _v$[ebp]
  0002e	85 f6		 test	 esi, esi
  00030	75 17		 jne	 SHORT $LN2@PMCCS_Pow_

; 1219 :             return (PMC_STATUS_ARGUMENT_NULL_ERROR);

  00032	8d 46 fe	 lea	 eax, DWORD PTR [esi-2]

; 1228 :         }
; 1229 :     }

  00035	8b 4d f4	 mov	 ecx, DWORD PTR __$EHRec$[ebp+4]
  00038	64 89 0d 00 00
	00 00		 mov	 DWORD PTR fs:0, ecx
  0003f	59		 pop	 ecx
  00040	5f		 pop	 edi
  00041	5e		 pop	 esi
  00042	5b		 pop	 ebx
  00043	8b e5		 mov	 esp, ebp
  00045	5d		 pop	 ebp
  00046	c2 10 00	 ret	 16			; 00000010H
$LN2@PMCCS_Pow_:

; 1220 :         try

  00049	c7 45 fc 00 00
	00 00		 mov	 DWORD PTR __$EHRec$[ebp+12], 0

; 1221 :         {
; 1222 :             *v = PMC_Pow_X_L(x, n);

  00050	ff 75 10	 push	 DWORD PTR _n$[ebp+4]
  00053	ff 75 0c	 push	 DWORD PTR _n$[ebp]
  00056	ff 75 08	 push	 DWORD PTR _x$[ebp]
  00059	e8 00 00 00 00	 call	 ?PMC_Pow_X_L@Internal@Core@Math@Palmtree@@YGPAU__tag_PMC_HANDLE_UINT@1234@PAU51234@_K@Z ; Palmtree::Math::Core::Internal::PMC_Pow_X_L
  0005e	89 06		 mov	 DWORD PTR [esi], eax

; 1223 :             return (PMC_STATUS_OK);

  00060	33 c0		 xor	 eax, eax

; 1228 :         }
; 1229 :     }

  00062	8b 4d f4	 mov	 ecx, DWORD PTR __$EHRec$[ebp+4]
  00065	64 89 0d 00 00
	00 00		 mov	 DWORD PTR fs:0, ecx
  0006c	59		 pop	 ecx
  0006d	5f		 pop	 edi
  0006e	5e		 pop	 esi
  0006f	5b		 pop	 ebx
  00070	8b e5		 mov	 esp, ebp
  00072	5d		 pop	 ebp
  00073	c2 10 00	 ret	 16			; 00000010H
__catch$_PMCCS_Pow_X_L@16$0:
; File z:\sources\lunor\repos\rougemeilland\palmtree.math.core.uint\palmtree.math.core.uint\pmc_exception.h

; 75   :             return (_code);

  00076	8b 45 ec	 mov	 eax, DWORD PTR _ex$2[ebp]
  00079	8b 40 0c	 mov	 eax, DWORD PTR [eax+12]
  0007c	89 45 14	 mov	 DWORD PTR $T3[ebp], eax
; File z:\sources\lunor\repos\rougemeilland\palmtree.math.core.uint\palmtree.math.core.uint\pmc_interface_csharp.cpp

; 1227 :             return (ex.GetStatusCode());

  0007f	b8 00 00 00 00	 mov	 eax, $LN8@PMCCS_Pow_
  00084	c3		 ret	 0
$LN8@PMCCS_Pow_:
; File z:\sources\lunor\repos\rougemeilland\palmtree.math.core.uint\palmtree.math.core.uint\pmc_exception.h
  00085	c7 45 fc ff ff
	ff ff		 mov	 DWORD PTR __$EHRec$[ebp+12], -1
; File z:\sources\lunor\repos\rougemeilland\palmtree.math.core.uint\palmtree.math.core.uint\pmc_interface_csharp.cpp

; 1227 :             return (ex.GetStatusCode());

  0008c	8b 45 14	 mov	 eax, DWORD PTR $T3[ebp]

; 1228 :         }
; 1229 :     }

  0008f	8b 4d f4	 mov	 ecx, DWORD PTR __$EHRec$[ebp+4]
  00092	64 89 0d 00 00
	00 00		 mov	 DWORD PTR fs:0, ecx
  00099	59		 pop	 ecx
  0009a	5f		 pop	 edi
  0009b	5e		 pop	 esi
  0009c	5b		 pop	 ebx
  0009d	8b e5		 mov	 esp, ebp
  0009f	5d		 pop	 ebp
  000a0	c2 10 00	 ret	 16			; 00000010H
_TEXT	ENDS
;	COMDAT text$x
text$x	SEGMENT
__ehhandler$_PMCCS_Pow_X_L@16:
  00000	8b 54 24 08	 mov	 edx, DWORD PTR [esp+8]
  00004	8d 42 0c	 lea	 eax, DWORD PTR [edx+12]
  00007	8b 4a e8	 mov	 ecx, DWORD PTR [edx-24]
  0000a	33 c8		 xor	 ecx, eax
  0000c	e8 00 00 00 00	 call	 @__security_check_cookie@4
  00011	b8 00 00 00 00	 mov	 eax, OFFSET __ehfuncinfo$_PMCCS_Pow_X_L@16
  00016	e9 00 00 00 00	 jmp	 ___CxxFrameHandler3
text$x	ENDS
_PMCCS_Pow_X_L@16 ENDP
; Function compile flags: /Ogtp
; File z:\sources\lunor\repos\rougemeilland\palmtree.math.core.uint\palmtree.math.core.uint\pmc_interface_csharp.cpp
; File z:\sources\lunor\repos\rougemeilland\palmtree.math.core.uint\palmtree.math.core.uint\pmc_exception.h
; File z:\sources\lunor\repos\rougemeilland\palmtree.math.core.uint\palmtree.math.core.uint\pmc_interface_csharp.cpp
;	COMDAT _PMCCS_Pow_X_I@12
_TEXT	SEGMENT
_ex$2 = -20						; size = 4
__$EHRec$ = -16						; size = 16
_x$ = 8							; size = 4
_n$ = 12						; size = 4
$T3 = 16						; size = 4
_v$ = 16						; size = 4
_PMCCS_Pow_X_I@12 PROC					; COMDAT

; 1202 :     {

  00000	55		 push	 ebp
  00001	8b ec		 mov	 ebp, esp
  00003	6a ff		 push	 -1
  00005	68 00 00 00 00	 push	 __ehhandler$_PMCCS_Pow_X_I@12
  0000a	64 a1 00 00 00
	00		 mov	 eax, DWORD PTR fs:0
  00010	50		 push	 eax
  00011	83 ec 08	 sub	 esp, 8
  00014	53		 push	 ebx
  00015	56		 push	 esi
  00016	57		 push	 edi
  00017	a1 00 00 00 00	 mov	 eax, DWORD PTR ___security_cookie
  0001c	33 c5		 xor	 eax, ebp
  0001e	50		 push	 eax
  0001f	8d 45 f4	 lea	 eax, DWORD PTR __$EHRec$[ebp+4]
  00022	64 a3 00 00 00
	00		 mov	 DWORD PTR fs:0, eax
  00028	89 65 f0	 mov	 DWORD PTR __$EHRec$[ebp], esp

; 1203 :         if (v == nullptr)

  0002b	8b 75 10	 mov	 esi, DWORD PTR _v$[ebp]
  0002e	85 f6		 test	 esi, esi
  00030	75 17		 jne	 SHORT $LN2@PMCCS_Pow_

; 1204 :             return (PMC_STATUS_ARGUMENT_NULL_ERROR);

  00032	8d 46 fe	 lea	 eax, DWORD PTR [esi-2]

; 1213 :         }
; 1214 :     }

  00035	8b 4d f4	 mov	 ecx, DWORD PTR __$EHRec$[ebp+4]
  00038	64 89 0d 00 00
	00 00		 mov	 DWORD PTR fs:0, ecx
  0003f	59		 pop	 ecx
  00040	5f		 pop	 edi
  00041	5e		 pop	 esi
  00042	5b		 pop	 ebx
  00043	8b e5		 mov	 esp, ebp
  00045	5d		 pop	 ebp
  00046	c2 0c 00	 ret	 12			; 0000000cH
$LN2@PMCCS_Pow_:

; 1205 :         try

  00049	c7 45 fc 00 00
	00 00		 mov	 DWORD PTR __$EHRec$[ebp+12], 0

; 1206 :         {
; 1207 :             *v = PMC_Pow_X_I(x, n);

  00050	ff 75 0c	 push	 DWORD PTR _n$[ebp]
  00053	ff 75 08	 push	 DWORD PTR _x$[ebp]
  00056	e8 00 00 00 00	 call	 ?PMC_Pow_X_I@Internal@Core@Math@Palmtree@@YGPAU__tag_PMC_HANDLE_UINT@1234@PAU51234@I@Z ; Palmtree::Math::Core::Internal::PMC_Pow_X_I
  0005b	89 06		 mov	 DWORD PTR [esi], eax

; 1208 :             return (PMC_STATUS_OK);

  0005d	33 c0		 xor	 eax, eax

; 1213 :         }
; 1214 :     }

  0005f	8b 4d f4	 mov	 ecx, DWORD PTR __$EHRec$[ebp+4]
  00062	64 89 0d 00 00
	00 00		 mov	 DWORD PTR fs:0, ecx
  00069	59		 pop	 ecx
  0006a	5f		 pop	 edi
  0006b	5e		 pop	 esi
  0006c	5b		 pop	 ebx
  0006d	8b e5		 mov	 esp, ebp
  0006f	5d		 pop	 ebp
  00070	c2 0c 00	 ret	 12			; 0000000cH
__catch$_PMCCS_Pow_X_I@12$0:
; File z:\sources\lunor\repos\rougemeilland\palmtree.math.core.uint\palmtree.math.core.uint\pmc_exception.h

; 75   :             return (_code);

  00073	8b 45 ec	 mov	 eax, DWORD PTR _ex$2[ebp]
  00076	8b 40 0c	 mov	 eax, DWORD PTR [eax+12]
  00079	89 45 10	 mov	 DWORD PTR $T3[ebp], eax
; File z:\sources\lunor\repos\rougemeilland\palmtree.math.core.uint\palmtree.math.core.uint\pmc_interface_csharp.cpp

; 1212 :             return (ex.GetStatusCode());

  0007c	b8 00 00 00 00	 mov	 eax, $LN8@PMCCS_Pow_
  00081	c3		 ret	 0
$LN8@PMCCS_Pow_:
; File z:\sources\lunor\repos\rougemeilland\palmtree.math.core.uint\palmtree.math.core.uint\pmc_exception.h
  00082	c7 45 fc ff ff
	ff ff		 mov	 DWORD PTR __$EHRec$[ebp+12], -1
; File z:\sources\lunor\repos\rougemeilland\palmtree.math.core.uint\palmtree.math.core.uint\pmc_interface_csharp.cpp

; 1212 :             return (ex.GetStatusCode());

  00089	8b 45 10	 mov	 eax, DWORD PTR $T3[ebp]

; 1213 :         }
; 1214 :     }

  0008c	8b 4d f4	 mov	 ecx, DWORD PTR __$EHRec$[ebp+4]
  0008f	64 89 0d 00 00
	00 00		 mov	 DWORD PTR fs:0, ecx
  00096	59		 pop	 ecx
  00097	5f		 pop	 edi
  00098	5e		 pop	 esi
  00099	5b		 pop	 ebx
  0009a	8b e5		 mov	 esp, ebp
  0009c	5d		 pop	 ebp
  0009d	c2 0c 00	 ret	 12			; 0000000cH
_TEXT	ENDS
;	COMDAT text$x
text$x	SEGMENT
__ehhandler$_PMCCS_Pow_X_I@12:
  00000	8b 54 24 08	 mov	 edx, DWORD PTR [esp+8]
  00004	8d 42 0c	 lea	 eax, DWORD PTR [edx+12]
  00007	8b 4a e8	 mov	 ecx, DWORD PTR [edx-24]
  0000a	33 c8		 xor	 ecx, eax
  0000c	e8 00 00 00 00	 call	 @__security_check_cookie@4
  00011	b8 00 00 00 00	 mov	 eax, OFFSET __ehfuncinfo$_PMCCS_Pow_X_I@12
  00016	e9 00 00 00 00	 jmp	 ___CxxFrameHandler3
text$x	ENDS
_PMCCS_Pow_X_I@12 ENDP
; Function compile flags: /Ogtp
; File z:\sources\lunor\repos\rougemeilland\palmtree.math.core.uint\palmtree.math.core.uint\pmc_interface_csharp.cpp
; File z:\sources\lunor\repos\rougemeilland\palmtree.math.core.uint\palmtree.math.core.uint\pmc_exception.h
; File z:\sources\lunor\repos\rougemeilland\palmtree.math.core.uint\palmtree.math.core.uint\pmc_interface_csharp.cpp
;	COMDAT _PMCCS_GreatestCommonDivisor_X_X@12
_TEXT	SEGMENT
_ex$2 = -20						; size = 4
__$EHRec$ = -16						; size = 16
_u$ = 8							; size = 4
_v$ = 12						; size = 4
$T3 = 16						; size = 4
_w$ = 16						; size = 4
_PMCCS_GreatestCommonDivisor_X_X@12 PROC		; COMDAT

; 1187 :     {

  00000	55		 push	 ebp
  00001	8b ec		 mov	 ebp, esp
  00003	6a ff		 push	 -1
  00005	68 00 00 00 00	 push	 __ehhandler$_PMCCS_GreatestCommonDivisor_X_X@12
  0000a	64 a1 00 00 00
	00		 mov	 eax, DWORD PTR fs:0
  00010	50		 push	 eax
  00011	83 ec 08	 sub	 esp, 8
  00014	53		 push	 ebx
  00015	56		 push	 esi
  00016	57		 push	 edi
  00017	a1 00 00 00 00	 mov	 eax, DWORD PTR ___security_cookie
  0001c	33 c5		 xor	 eax, ebp
  0001e	50		 push	 eax
  0001f	8d 45 f4	 lea	 eax, DWORD PTR __$EHRec$[ebp+4]
  00022	64 a3 00 00 00
	00		 mov	 DWORD PTR fs:0, eax
  00028	89 65 f0	 mov	 DWORD PTR __$EHRec$[ebp], esp

; 1188 :         if (w == nullptr)

  0002b	8b 75 10	 mov	 esi, DWORD PTR _w$[ebp]
  0002e	85 f6		 test	 esi, esi
  00030	75 17		 jne	 SHORT $LN2@PMCCS_Grea

; 1189 :             return (PMC_STATUS_ARGUMENT_NULL_ERROR);

  00032	8d 46 fe	 lea	 eax, DWORD PTR [esi-2]

; 1198 :         }
; 1199 :     }

  00035	8b 4d f4	 mov	 ecx, DWORD PTR __$EHRec$[ebp+4]
  00038	64 89 0d 00 00
	00 00		 mov	 DWORD PTR fs:0, ecx
  0003f	59		 pop	 ecx
  00040	5f		 pop	 edi
  00041	5e		 pop	 esi
  00042	5b		 pop	 ebx
  00043	8b e5		 mov	 esp, ebp
  00045	5d		 pop	 ebp
  00046	c2 0c 00	 ret	 12			; 0000000cH
$LN2@PMCCS_Grea:

; 1190 :         try

  00049	c7 45 fc 00 00
	00 00		 mov	 DWORD PTR __$EHRec$[ebp+12], 0

; 1191 :         {
; 1192 :             *w = PMC_GreatestCommonDivisor_X_X(u, v);

  00050	ff 75 0c	 push	 DWORD PTR _v$[ebp]
  00053	ff 75 08	 push	 DWORD PTR _u$[ebp]
  00056	e8 00 00 00 00	 call	 ?PMC_GreatestCommonDivisor_X_X@Internal@Core@Math@Palmtree@@YGPAU__tag_PMC_HANDLE_UINT@1234@PAU51234@0@Z ; Palmtree::Math::Core::Internal::PMC_GreatestCommonDivisor_X_X
  0005b	89 06		 mov	 DWORD PTR [esi], eax

; 1193 :             return (PMC_STATUS_OK);

  0005d	33 c0		 xor	 eax, eax

; 1198 :         }
; 1199 :     }

  0005f	8b 4d f4	 mov	 ecx, DWORD PTR __$EHRec$[ebp+4]
  00062	64 89 0d 00 00
	00 00		 mov	 DWORD PTR fs:0, ecx
  00069	59		 pop	 ecx
  0006a	5f		 pop	 edi
  0006b	5e		 pop	 esi
  0006c	5b		 pop	 ebx
  0006d	8b e5		 mov	 esp, ebp
  0006f	5d		 pop	 ebp
  00070	c2 0c 00	 ret	 12			; 0000000cH
__catch$_PMCCS_GreatestCommonDivisor_X_X@12$0:
; File z:\sources\lunor\repos\rougemeilland\palmtree.math.core.uint\palmtree.math.core.uint\pmc_exception.h

; 75   :             return (_code);

  00073	8b 45 ec	 mov	 eax, DWORD PTR _ex$2[ebp]
  00076	8b 40 0c	 mov	 eax, DWORD PTR [eax+12]
  00079	89 45 10	 mov	 DWORD PTR $T3[ebp], eax
; File z:\sources\lunor\repos\rougemeilland\palmtree.math.core.uint\palmtree.math.core.uint\pmc_interface_csharp.cpp

; 1197 :             return (ex.GetStatusCode());

  0007c	b8 00 00 00 00	 mov	 eax, $LN8@PMCCS_Grea
  00081	c3		 ret	 0
$LN8@PMCCS_Grea:
; File z:\sources\lunor\repos\rougemeilland\palmtree.math.core.uint\palmtree.math.core.uint\pmc_exception.h
  00082	c7 45 fc ff ff
	ff ff		 mov	 DWORD PTR __$EHRec$[ebp+12], -1
; File z:\sources\lunor\repos\rougemeilland\palmtree.math.core.uint\palmtree.math.core.uint\pmc_interface_csharp.cpp

; 1197 :             return (ex.GetStatusCode());

  00089	8b 45 10	 mov	 eax, DWORD PTR $T3[ebp]

; 1198 :         }
; 1199 :     }

  0008c	8b 4d f4	 mov	 ecx, DWORD PTR __$EHRec$[ebp+4]
  0008f	64 89 0d 00 00
	00 00		 mov	 DWORD PTR fs:0, ecx
  00096	59		 pop	 ecx
  00097	5f		 pop	 edi
  00098	5e		 pop	 esi
  00099	5b		 pop	 ebx
  0009a	8b e5		 mov	 esp, ebp
  0009c	5d		 pop	 ebp
  0009d	c2 0c 00	 ret	 12			; 0000000cH
_TEXT	ENDS
;	COMDAT text$x
text$x	SEGMENT
__ehhandler$_PMCCS_GreatestCommonDivisor_X_X@12:
  00000	8b 54 24 08	 mov	 edx, DWORD PTR [esp+8]
  00004	8d 42 0c	 lea	 eax, DWORD PTR [edx+12]
  00007	8b 4a e8	 mov	 ecx, DWORD PTR [edx-24]
  0000a	33 c8		 xor	 ecx, eax
  0000c	e8 00 00 00 00	 call	 @__security_check_cookie@4
  00011	b8 00 00 00 00	 mov	 eax, OFFSET __ehfuncinfo$_PMCCS_GreatestCommonDivisor_X_X@12
  00016	e9 00 00 00 00	 jmp	 ___CxxFrameHandler3
text$x	ENDS
_PMCCS_GreatestCommonDivisor_X_X@12 ENDP
; Function compile flags: /Ogtp
; File z:\sources\lunor\repos\rougemeilland\palmtree.math.core.uint\palmtree.math.core.uint\pmc_interface_csharp.cpp
; File z:\sources\lunor\repos\rougemeilland\palmtree.math.core.uint\palmtree.math.core.uint\pmc_exception.h
; File z:\sources\lunor\repos\rougemeilland\palmtree.math.core.uint\palmtree.math.core.uint\pmc_interface_csharp.cpp
;	COMDAT _PMCCS_GreatestCommonDivisor_X_L@16
_TEXT	SEGMENT
_ex$2 = -20						; size = 4
__$EHRec$ = -16						; size = 16
_u$ = 8							; size = 4
_v$ = 12						; size = 8
$T3 = 20						; size = 4
_w$ = 20						; size = 4
_PMCCS_GreatestCommonDivisor_X_L@16 PROC		; COMDAT

; 1172 :     {

  00000	55		 push	 ebp
  00001	8b ec		 mov	 ebp, esp
  00003	6a ff		 push	 -1
  00005	68 00 00 00 00	 push	 __ehhandler$_PMCCS_GreatestCommonDivisor_X_L@16
  0000a	64 a1 00 00 00
	00		 mov	 eax, DWORD PTR fs:0
  00010	50		 push	 eax
  00011	83 ec 08	 sub	 esp, 8
  00014	53		 push	 ebx
  00015	56		 push	 esi
  00016	57		 push	 edi
  00017	a1 00 00 00 00	 mov	 eax, DWORD PTR ___security_cookie
  0001c	33 c5		 xor	 eax, ebp
  0001e	50		 push	 eax
  0001f	8d 45 f4	 lea	 eax, DWORD PTR __$EHRec$[ebp+4]
  00022	64 a3 00 00 00
	00		 mov	 DWORD PTR fs:0, eax
  00028	89 65 f0	 mov	 DWORD PTR __$EHRec$[ebp], esp

; 1173 :         if (w == nullptr)

  0002b	8b 75 14	 mov	 esi, DWORD PTR _w$[ebp]
  0002e	85 f6		 test	 esi, esi
  00030	75 17		 jne	 SHORT $LN2@PMCCS_Grea

; 1174 :             return (PMC_STATUS_ARGUMENT_NULL_ERROR);

  00032	8d 46 fe	 lea	 eax, DWORD PTR [esi-2]

; 1183 :         }
; 1184 :     }

  00035	8b 4d f4	 mov	 ecx, DWORD PTR __$EHRec$[ebp+4]
  00038	64 89 0d 00 00
	00 00		 mov	 DWORD PTR fs:0, ecx
  0003f	59		 pop	 ecx
  00040	5f		 pop	 edi
  00041	5e		 pop	 esi
  00042	5b		 pop	 ebx
  00043	8b e5		 mov	 esp, ebp
  00045	5d		 pop	 ebp
  00046	c2 10 00	 ret	 16			; 00000010H
$LN2@PMCCS_Grea:

; 1175 :         try

  00049	c7 45 fc 00 00
	00 00		 mov	 DWORD PTR __$EHRec$[ebp+12], 0

; 1176 :         {
; 1177 :             *w = PMC_GreatestCommonDivisor_X_L(u, v);

  00050	ff 75 10	 push	 DWORD PTR _v$[ebp+4]
  00053	ff 75 0c	 push	 DWORD PTR _v$[ebp]
  00056	ff 75 08	 push	 DWORD PTR _u$[ebp]
  00059	e8 00 00 00 00	 call	 ?PMC_GreatestCommonDivisor_X_L@Internal@Core@Math@Palmtree@@YGPAU__tag_PMC_HANDLE_UINT@1234@PAU51234@_K@Z ; Palmtree::Math::Core::Internal::PMC_GreatestCommonDivisor_X_L
  0005e	89 06		 mov	 DWORD PTR [esi], eax

; 1178 :             return (PMC_STATUS_OK);

  00060	33 c0		 xor	 eax, eax

; 1183 :         }
; 1184 :     }

  00062	8b 4d f4	 mov	 ecx, DWORD PTR __$EHRec$[ebp+4]
  00065	64 89 0d 00 00
	00 00		 mov	 DWORD PTR fs:0, ecx
  0006c	59		 pop	 ecx
  0006d	5f		 pop	 edi
  0006e	5e		 pop	 esi
  0006f	5b		 pop	 ebx
  00070	8b e5		 mov	 esp, ebp
  00072	5d		 pop	 ebp
  00073	c2 10 00	 ret	 16			; 00000010H
__catch$_PMCCS_GreatestCommonDivisor_X_L@16$0:
; File z:\sources\lunor\repos\rougemeilland\palmtree.math.core.uint\palmtree.math.core.uint\pmc_exception.h

; 75   :             return (_code);

  00076	8b 45 ec	 mov	 eax, DWORD PTR _ex$2[ebp]
  00079	8b 40 0c	 mov	 eax, DWORD PTR [eax+12]
  0007c	89 45 14	 mov	 DWORD PTR $T3[ebp], eax
; File z:\sources\lunor\repos\rougemeilland\palmtree.math.core.uint\palmtree.math.core.uint\pmc_interface_csharp.cpp

; 1182 :             return (ex.GetStatusCode());

  0007f	b8 00 00 00 00	 mov	 eax, $LN8@PMCCS_Grea
  00084	c3		 ret	 0
$LN8@PMCCS_Grea:
; File z:\sources\lunor\repos\rougemeilland\palmtree.math.core.uint\palmtree.math.core.uint\pmc_exception.h
  00085	c7 45 fc ff ff
	ff ff		 mov	 DWORD PTR __$EHRec$[ebp+12], -1
; File z:\sources\lunor\repos\rougemeilland\palmtree.math.core.uint\palmtree.math.core.uint\pmc_interface_csharp.cpp

; 1182 :             return (ex.GetStatusCode());

  0008c	8b 45 14	 mov	 eax, DWORD PTR $T3[ebp]

; 1183 :         }
; 1184 :     }

  0008f	8b 4d f4	 mov	 ecx, DWORD PTR __$EHRec$[ebp+4]
  00092	64 89 0d 00 00
	00 00		 mov	 DWORD PTR fs:0, ecx
  00099	59		 pop	 ecx
  0009a	5f		 pop	 edi
  0009b	5e		 pop	 esi
  0009c	5b		 pop	 ebx
  0009d	8b e5		 mov	 esp, ebp
  0009f	5d		 pop	 ebp
  000a0	c2 10 00	 ret	 16			; 00000010H
_TEXT	ENDS
;	COMDAT text$x
text$x	SEGMENT
__ehhandler$_PMCCS_GreatestCommonDivisor_X_L@16:
  00000	8b 54 24 08	 mov	 edx, DWORD PTR [esp+8]
  00004	8d 42 0c	 lea	 eax, DWORD PTR [edx+12]
  00007	8b 4a e8	 mov	 ecx, DWORD PTR [edx-24]
  0000a	33 c8		 xor	 ecx, eax
  0000c	e8 00 00 00 00	 call	 @__security_check_cookie@4
  00011	b8 00 00 00 00	 mov	 eax, OFFSET __ehfuncinfo$_PMCCS_GreatestCommonDivisor_X_L@16
  00016	e9 00 00 00 00	 jmp	 ___CxxFrameHandler3
text$x	ENDS
_PMCCS_GreatestCommonDivisor_X_L@16 ENDP
; Function compile flags: /Ogtp
; File z:\sources\lunor\repos\rougemeilland\palmtree.math.core.uint\palmtree.math.core.uint\pmc_interface_csharp.cpp
; File z:\sources\lunor\repos\rougemeilland\palmtree.math.core.uint\palmtree.math.core.uint\pmc_exception.h
; File z:\sources\lunor\repos\rougemeilland\palmtree.math.core.uint\palmtree.math.core.uint\pmc_interface_csharp.cpp
;	COMDAT _PMCCS_GreatestCommonDivisor_X_I@12
_TEXT	SEGMENT
_ex$2 = -20						; size = 4
__$EHRec$ = -16						; size = 16
_u$ = 8							; size = 4
_v$ = 12						; size = 4
$T3 = 16						; size = 4
_w$ = 16						; size = 4
_PMCCS_GreatestCommonDivisor_X_I@12 PROC		; COMDAT

; 1157 :     {

  00000	55		 push	 ebp
  00001	8b ec		 mov	 ebp, esp
  00003	6a ff		 push	 -1
  00005	68 00 00 00 00	 push	 __ehhandler$_PMCCS_GreatestCommonDivisor_X_I@12
  0000a	64 a1 00 00 00
	00		 mov	 eax, DWORD PTR fs:0
  00010	50		 push	 eax
  00011	83 ec 08	 sub	 esp, 8
  00014	53		 push	 ebx
  00015	56		 push	 esi
  00016	57		 push	 edi
  00017	a1 00 00 00 00	 mov	 eax, DWORD PTR ___security_cookie
  0001c	33 c5		 xor	 eax, ebp
  0001e	50		 push	 eax
  0001f	8d 45 f4	 lea	 eax, DWORD PTR __$EHRec$[ebp+4]
  00022	64 a3 00 00 00
	00		 mov	 DWORD PTR fs:0, eax
  00028	89 65 f0	 mov	 DWORD PTR __$EHRec$[ebp], esp

; 1158 :         if (w == nullptr)

  0002b	8b 75 10	 mov	 esi, DWORD PTR _w$[ebp]
  0002e	85 f6		 test	 esi, esi
  00030	75 17		 jne	 SHORT $LN2@PMCCS_Grea

; 1159 :             return (PMC_STATUS_ARGUMENT_NULL_ERROR);

  00032	8d 46 fe	 lea	 eax, DWORD PTR [esi-2]

; 1168 :         }
; 1169 :     }

  00035	8b 4d f4	 mov	 ecx, DWORD PTR __$EHRec$[ebp+4]
  00038	64 89 0d 00 00
	00 00		 mov	 DWORD PTR fs:0, ecx
  0003f	59		 pop	 ecx
  00040	5f		 pop	 edi
  00041	5e		 pop	 esi
  00042	5b		 pop	 ebx
  00043	8b e5		 mov	 esp, ebp
  00045	5d		 pop	 ebp
  00046	c2 0c 00	 ret	 12			; 0000000cH
$LN2@PMCCS_Grea:

; 1160 :         try

  00049	c7 45 fc 00 00
	00 00		 mov	 DWORD PTR __$EHRec$[ebp+12], 0

; 1161 :         {
; 1162 :             *w = PMC_GreatestCommonDivisor_X_I(u, v);

  00050	ff 75 0c	 push	 DWORD PTR _v$[ebp]
  00053	ff 75 08	 push	 DWORD PTR _u$[ebp]
  00056	e8 00 00 00 00	 call	 ?PMC_GreatestCommonDivisor_X_I@Internal@Core@Math@Palmtree@@YGPAU__tag_PMC_HANDLE_UINT@1234@PAU51234@I@Z ; Palmtree::Math::Core::Internal::PMC_GreatestCommonDivisor_X_I
  0005b	89 06		 mov	 DWORD PTR [esi], eax

; 1163 :             return (PMC_STATUS_OK);

  0005d	33 c0		 xor	 eax, eax

; 1168 :         }
; 1169 :     }

  0005f	8b 4d f4	 mov	 ecx, DWORD PTR __$EHRec$[ebp+4]
  00062	64 89 0d 00 00
	00 00		 mov	 DWORD PTR fs:0, ecx
  00069	59		 pop	 ecx
  0006a	5f		 pop	 edi
  0006b	5e		 pop	 esi
  0006c	5b		 pop	 ebx
  0006d	8b e5		 mov	 esp, ebp
  0006f	5d		 pop	 ebp
  00070	c2 0c 00	 ret	 12			; 0000000cH
__catch$_PMCCS_GreatestCommonDivisor_X_I@12$0:
; File z:\sources\lunor\repos\rougemeilland\palmtree.math.core.uint\palmtree.math.core.uint\pmc_exception.h

; 75   :             return (_code);

  00073	8b 45 ec	 mov	 eax, DWORD PTR _ex$2[ebp]
  00076	8b 40 0c	 mov	 eax, DWORD PTR [eax+12]
  00079	89 45 10	 mov	 DWORD PTR $T3[ebp], eax
; File z:\sources\lunor\repos\rougemeilland\palmtree.math.core.uint\palmtree.math.core.uint\pmc_interface_csharp.cpp

; 1167 :             return (ex.GetStatusCode());

  0007c	b8 00 00 00 00	 mov	 eax, $LN8@PMCCS_Grea
  00081	c3		 ret	 0
$LN8@PMCCS_Grea:
; File z:\sources\lunor\repos\rougemeilland\palmtree.math.core.uint\palmtree.math.core.uint\pmc_exception.h
  00082	c7 45 fc ff ff
	ff ff		 mov	 DWORD PTR __$EHRec$[ebp+12], -1
; File z:\sources\lunor\repos\rougemeilland\palmtree.math.core.uint\palmtree.math.core.uint\pmc_interface_csharp.cpp

; 1167 :             return (ex.GetStatusCode());

  00089	8b 45 10	 mov	 eax, DWORD PTR $T3[ebp]

; 1168 :         }
; 1169 :     }

  0008c	8b 4d f4	 mov	 ecx, DWORD PTR __$EHRec$[ebp+4]
  0008f	64 89 0d 00 00
	00 00		 mov	 DWORD PTR fs:0, ecx
  00096	59		 pop	 ecx
  00097	5f		 pop	 edi
  00098	5e		 pop	 esi
  00099	5b		 pop	 ebx
  0009a	8b e5		 mov	 esp, ebp
  0009c	5d		 pop	 ebp
  0009d	c2 0c 00	 ret	 12			; 0000000cH
_TEXT	ENDS
;	COMDAT text$x
text$x	SEGMENT
__ehhandler$_PMCCS_GreatestCommonDivisor_X_I@12:
  00000	8b 54 24 08	 mov	 edx, DWORD PTR [esp+8]
  00004	8d 42 0c	 lea	 eax, DWORD PTR [edx+12]
  00007	8b 4a e8	 mov	 ecx, DWORD PTR [edx-24]
  0000a	33 c8		 xor	 ecx, eax
  0000c	e8 00 00 00 00	 call	 @__security_check_cookie@4
  00011	b8 00 00 00 00	 mov	 eax, OFFSET __ehfuncinfo$_PMCCS_GreatestCommonDivisor_X_I@12
  00016	e9 00 00 00 00	 jmp	 ___CxxFrameHandler3
text$x	ENDS
_PMCCS_GreatestCommonDivisor_X_I@12 ENDP
; Function compile flags: /Ogtp
; File z:\sources\lunor\repos\rougemeilland\palmtree.math.core.uint\palmtree.math.core.uint\pmc_interface_csharp.cpp
; File z:\sources\lunor\repos\rougemeilland\palmtree.math.core.uint\palmtree.math.core.uint\pmc_exception.h
; File z:\sources\lunor\repos\rougemeilland\palmtree.math.core.uint\palmtree.math.core.uint\pmc_interface_csharp.cpp
;	COMDAT _PMCCS_GreatestCommonDivisor_L_X@16
_TEXT	SEGMENT
_ex$2 = -20						; size = 4
__$EHRec$ = -16						; size = 16
_u$ = 8							; size = 8
_v$ = 16						; size = 4
$T3 = 20						; size = 4
_w$ = 20						; size = 4
_PMCCS_GreatestCommonDivisor_L_X@16 PROC		; COMDAT

; 1142 :     {

  00000	55		 push	 ebp
  00001	8b ec		 mov	 ebp, esp
  00003	6a ff		 push	 -1
  00005	68 00 00 00 00	 push	 __ehhandler$_PMCCS_GreatestCommonDivisor_L_X@16
  0000a	64 a1 00 00 00
	00		 mov	 eax, DWORD PTR fs:0
  00010	50		 push	 eax
  00011	83 ec 08	 sub	 esp, 8
  00014	53		 push	 ebx
  00015	56		 push	 esi
  00016	57		 push	 edi
  00017	a1 00 00 00 00	 mov	 eax, DWORD PTR ___security_cookie
  0001c	33 c5		 xor	 eax, ebp
  0001e	50		 push	 eax
  0001f	8d 45 f4	 lea	 eax, DWORD PTR __$EHRec$[ebp+4]
  00022	64 a3 00 00 00
	00		 mov	 DWORD PTR fs:0, eax
  00028	89 65 f0	 mov	 DWORD PTR __$EHRec$[ebp], esp

; 1143 :         if (w == nullptr)

  0002b	8b 75 14	 mov	 esi, DWORD PTR _w$[ebp]
  0002e	85 f6		 test	 esi, esi
  00030	75 17		 jne	 SHORT $LN2@PMCCS_Grea

; 1144 :             return (PMC_STATUS_ARGUMENT_NULL_ERROR);

  00032	8d 46 fe	 lea	 eax, DWORD PTR [esi-2]

; 1153 :         }
; 1154 :     }

  00035	8b 4d f4	 mov	 ecx, DWORD PTR __$EHRec$[ebp+4]
  00038	64 89 0d 00 00
	00 00		 mov	 DWORD PTR fs:0, ecx
  0003f	59		 pop	 ecx
  00040	5f		 pop	 edi
  00041	5e		 pop	 esi
  00042	5b		 pop	 ebx
  00043	8b e5		 mov	 esp, ebp
  00045	5d		 pop	 ebp
  00046	c2 10 00	 ret	 16			; 00000010H
$LN2@PMCCS_Grea:

; 1145 :         try

  00049	c7 45 fc 00 00
	00 00		 mov	 DWORD PTR __$EHRec$[ebp+12], 0

; 1146 :         {
; 1147 :             *w = PMC_GreatestCommonDivisor_L_X(u, v);

  00050	ff 75 10	 push	 DWORD PTR _v$[ebp]
  00053	ff 75 0c	 push	 DWORD PTR _u$[ebp+4]
  00056	ff 75 08	 push	 DWORD PTR _u$[ebp]
  00059	e8 00 00 00 00	 call	 ?PMC_GreatestCommonDivisor_L_X@Internal@Core@Math@Palmtree@@YGPAU__tag_PMC_HANDLE_UINT@1234@_KPAU51234@@Z ; Palmtree::Math::Core::Internal::PMC_GreatestCommonDivisor_L_X
  0005e	89 06		 mov	 DWORD PTR [esi], eax

; 1148 :             return (PMC_STATUS_OK);

  00060	33 c0		 xor	 eax, eax

; 1153 :         }
; 1154 :     }

  00062	8b 4d f4	 mov	 ecx, DWORD PTR __$EHRec$[ebp+4]
  00065	64 89 0d 00 00
	00 00		 mov	 DWORD PTR fs:0, ecx
  0006c	59		 pop	 ecx
  0006d	5f		 pop	 edi
  0006e	5e		 pop	 esi
  0006f	5b		 pop	 ebx
  00070	8b e5		 mov	 esp, ebp
  00072	5d		 pop	 ebp
  00073	c2 10 00	 ret	 16			; 00000010H
__catch$_PMCCS_GreatestCommonDivisor_L_X@16$0:
; File z:\sources\lunor\repos\rougemeilland\palmtree.math.core.uint\palmtree.math.core.uint\pmc_exception.h

; 75   :             return (_code);

  00076	8b 45 ec	 mov	 eax, DWORD PTR _ex$2[ebp]
  00079	8b 40 0c	 mov	 eax, DWORD PTR [eax+12]
  0007c	89 45 14	 mov	 DWORD PTR $T3[ebp], eax
; File z:\sources\lunor\repos\rougemeilland\palmtree.math.core.uint\palmtree.math.core.uint\pmc_interface_csharp.cpp

; 1152 :             return (ex.GetStatusCode());

  0007f	b8 00 00 00 00	 mov	 eax, $LN8@PMCCS_Grea
  00084	c3		 ret	 0
$LN8@PMCCS_Grea:
; File z:\sources\lunor\repos\rougemeilland\palmtree.math.core.uint\palmtree.math.core.uint\pmc_exception.h
  00085	c7 45 fc ff ff
	ff ff		 mov	 DWORD PTR __$EHRec$[ebp+12], -1
; File z:\sources\lunor\repos\rougemeilland\palmtree.math.core.uint\palmtree.math.core.uint\pmc_interface_csharp.cpp

; 1152 :             return (ex.GetStatusCode());

  0008c	8b 45 14	 mov	 eax, DWORD PTR $T3[ebp]

; 1153 :         }
; 1154 :     }

  0008f	8b 4d f4	 mov	 ecx, DWORD PTR __$EHRec$[ebp+4]
  00092	64 89 0d 00 00
	00 00		 mov	 DWORD PTR fs:0, ecx
  00099	59		 pop	 ecx
  0009a	5f		 pop	 edi
  0009b	5e		 pop	 esi
  0009c	5b		 pop	 ebx
  0009d	8b e5		 mov	 esp, ebp
  0009f	5d		 pop	 ebp
  000a0	c2 10 00	 ret	 16			; 00000010H
_TEXT	ENDS
;	COMDAT text$x
text$x	SEGMENT
__ehhandler$_PMCCS_GreatestCommonDivisor_L_X@16:
  00000	8b 54 24 08	 mov	 edx, DWORD PTR [esp+8]
  00004	8d 42 0c	 lea	 eax, DWORD PTR [edx+12]
  00007	8b 4a e8	 mov	 ecx, DWORD PTR [edx-24]
  0000a	33 c8		 xor	 ecx, eax
  0000c	e8 00 00 00 00	 call	 @__security_check_cookie@4
  00011	b8 00 00 00 00	 mov	 eax, OFFSET __ehfuncinfo$_PMCCS_GreatestCommonDivisor_L_X@16
  00016	e9 00 00 00 00	 jmp	 ___CxxFrameHandler3
text$x	ENDS
_PMCCS_GreatestCommonDivisor_L_X@16 ENDP
; Function compile flags: /Ogtp
; File z:\sources\lunor\repos\rougemeilland\palmtree.math.core.uint\palmtree.math.core.uint\pmc_interface_csharp.cpp
; File z:\sources\lunor\repos\rougemeilland\palmtree.math.core.uint\palmtree.math.core.uint\pmc_exception.h
; File z:\sources\lunor\repos\rougemeilland\palmtree.math.core.uint\palmtree.math.core.uint\pmc_interface_csharp.cpp
;	COMDAT _PMCCS_GreatestCommonDivisor_I_X@12
_TEXT	SEGMENT
_ex$2 = -20						; size = 4
__$EHRec$ = -16						; size = 16
_u$ = 8							; size = 4
_v$ = 12						; size = 4
$T3 = 16						; size = 4
_w$ = 16						; size = 4
_PMCCS_GreatestCommonDivisor_I_X@12 PROC		; COMDAT

; 1127 :     {

  00000	55		 push	 ebp
  00001	8b ec		 mov	 ebp, esp
  00003	6a ff		 push	 -1
  00005	68 00 00 00 00	 push	 __ehhandler$_PMCCS_GreatestCommonDivisor_I_X@12
  0000a	64 a1 00 00 00
	00		 mov	 eax, DWORD PTR fs:0
  00010	50		 push	 eax
  00011	83 ec 08	 sub	 esp, 8
  00014	53		 push	 ebx
  00015	56		 push	 esi
  00016	57		 push	 edi
  00017	a1 00 00 00 00	 mov	 eax, DWORD PTR ___security_cookie
  0001c	33 c5		 xor	 eax, ebp
  0001e	50		 push	 eax
  0001f	8d 45 f4	 lea	 eax, DWORD PTR __$EHRec$[ebp+4]
  00022	64 a3 00 00 00
	00		 mov	 DWORD PTR fs:0, eax
  00028	89 65 f0	 mov	 DWORD PTR __$EHRec$[ebp], esp

; 1128 :         if (w == nullptr)

  0002b	8b 75 10	 mov	 esi, DWORD PTR _w$[ebp]
  0002e	85 f6		 test	 esi, esi
  00030	75 17		 jne	 SHORT $LN2@PMCCS_Grea

; 1129 :             return (PMC_STATUS_ARGUMENT_NULL_ERROR);

  00032	8d 46 fe	 lea	 eax, DWORD PTR [esi-2]

; 1138 :         }
; 1139 :     }

  00035	8b 4d f4	 mov	 ecx, DWORD PTR __$EHRec$[ebp+4]
  00038	64 89 0d 00 00
	00 00		 mov	 DWORD PTR fs:0, ecx
  0003f	59		 pop	 ecx
  00040	5f		 pop	 edi
  00041	5e		 pop	 esi
  00042	5b		 pop	 ebx
  00043	8b e5		 mov	 esp, ebp
  00045	5d		 pop	 ebp
  00046	c2 0c 00	 ret	 12			; 0000000cH
$LN2@PMCCS_Grea:

; 1130 :         try

  00049	c7 45 fc 00 00
	00 00		 mov	 DWORD PTR __$EHRec$[ebp+12], 0

; 1131 :         {
; 1132 :             *w = PMC_GreatestCommonDivisor_I_X(u, v);

  00050	ff 75 0c	 push	 DWORD PTR _v$[ebp]
  00053	ff 75 08	 push	 DWORD PTR _u$[ebp]
  00056	e8 00 00 00 00	 call	 ?PMC_GreatestCommonDivisor_I_X@Internal@Core@Math@Palmtree@@YGPAU__tag_PMC_HANDLE_UINT@1234@IPAU51234@@Z ; Palmtree::Math::Core::Internal::PMC_GreatestCommonDivisor_I_X
  0005b	89 06		 mov	 DWORD PTR [esi], eax

; 1133 :             return (PMC_STATUS_OK);

  0005d	33 c0		 xor	 eax, eax

; 1138 :         }
; 1139 :     }

  0005f	8b 4d f4	 mov	 ecx, DWORD PTR __$EHRec$[ebp+4]
  00062	64 89 0d 00 00
	00 00		 mov	 DWORD PTR fs:0, ecx
  00069	59		 pop	 ecx
  0006a	5f		 pop	 edi
  0006b	5e		 pop	 esi
  0006c	5b		 pop	 ebx
  0006d	8b e5		 mov	 esp, ebp
  0006f	5d		 pop	 ebp
  00070	c2 0c 00	 ret	 12			; 0000000cH
__catch$_PMCCS_GreatestCommonDivisor_I_X@12$0:
; File z:\sources\lunor\repos\rougemeilland\palmtree.math.core.uint\palmtree.math.core.uint\pmc_exception.h

; 75   :             return (_code);

  00073	8b 45 ec	 mov	 eax, DWORD PTR _ex$2[ebp]
  00076	8b 40 0c	 mov	 eax, DWORD PTR [eax+12]
  00079	89 45 10	 mov	 DWORD PTR $T3[ebp], eax
; File z:\sources\lunor\repos\rougemeilland\palmtree.math.core.uint\palmtree.math.core.uint\pmc_interface_csharp.cpp

; 1137 :             return (ex.GetStatusCode());

  0007c	b8 00 00 00 00	 mov	 eax, $LN8@PMCCS_Grea
  00081	c3		 ret	 0
$LN8@PMCCS_Grea:
; File z:\sources\lunor\repos\rougemeilland\palmtree.math.core.uint\palmtree.math.core.uint\pmc_exception.h
  00082	c7 45 fc ff ff
	ff ff		 mov	 DWORD PTR __$EHRec$[ebp+12], -1
; File z:\sources\lunor\repos\rougemeilland\palmtree.math.core.uint\palmtree.math.core.uint\pmc_interface_csharp.cpp

; 1137 :             return (ex.GetStatusCode());

  00089	8b 45 10	 mov	 eax, DWORD PTR $T3[ebp]

; 1138 :         }
; 1139 :     }

  0008c	8b 4d f4	 mov	 ecx, DWORD PTR __$EHRec$[ebp+4]
  0008f	64 89 0d 00 00
	00 00		 mov	 DWORD PTR fs:0, ecx
  00096	59		 pop	 ecx
  00097	5f		 pop	 edi
  00098	5e		 pop	 esi
  00099	5b		 pop	 ebx
  0009a	8b e5		 mov	 esp, ebp
  0009c	5d		 pop	 ebp
  0009d	c2 0c 00	 ret	 12			; 0000000cH
_TEXT	ENDS
;	COMDAT text$x
text$x	SEGMENT
__ehhandler$_PMCCS_GreatestCommonDivisor_I_X@12:
  00000	8b 54 24 08	 mov	 edx, DWORD PTR [esp+8]
  00004	8d 42 0c	 lea	 eax, DWORD PTR [edx+12]
  00007	8b 4a e8	 mov	 ecx, DWORD PTR [edx-24]
  0000a	33 c8		 xor	 ecx, eax
  0000c	e8 00 00 00 00	 call	 @__security_check_cookie@4
  00011	b8 00 00 00 00	 mov	 eax, OFFSET __ehfuncinfo$_PMCCS_GreatestCommonDivisor_I_X@12
  00016	e9 00 00 00 00	 jmp	 ___CxxFrameHandler3
text$x	ENDS
_PMCCS_GreatestCommonDivisor_I_X@12 ENDP
; Function compile flags: /Ogtp
; File z:\sources\lunor\repos\rougemeilland\palmtree.math.core.uint\palmtree.math.core.uint\pmc_interface_csharp.cpp
; File z:\sources\lunor\repos\rougemeilland\palmtree.math.core.uint\palmtree.math.core.uint\pmc_exception.h
; File z:\sources\lunor\repos\rougemeilland\palmtree.math.core.uint\palmtree.math.core.uint\pmc_interface_csharp.cpp
;	COMDAT _PMCCS_Equals_X_X@12
_TEXT	SEGMENT
_ex$2 = -20						; size = 4
__$EHRec$ = -16						; size = 16
_u$ = 8							; size = 4
_v$ = 12						; size = 4
$T3 = 16						; size = 4
_w$ = 16						; size = 4
_PMCCS_Equals_X_X@12 PROC				; COMDAT

; 1112 :     {

  00000	55		 push	 ebp
  00001	8b ec		 mov	 ebp, esp
  00003	6a ff		 push	 -1
  00005	68 00 00 00 00	 push	 __ehhandler$_PMCCS_Equals_X_X@12
  0000a	64 a1 00 00 00
	00		 mov	 eax, DWORD PTR fs:0
  00010	50		 push	 eax
  00011	83 ec 08	 sub	 esp, 8
  00014	53		 push	 ebx
  00015	56		 push	 esi
  00016	57		 push	 edi
  00017	a1 00 00 00 00	 mov	 eax, DWORD PTR ___security_cookie
  0001c	33 c5		 xor	 eax, ebp
  0001e	50		 push	 eax
  0001f	8d 45 f4	 lea	 eax, DWORD PTR __$EHRec$[ebp+4]
  00022	64 a3 00 00 00
	00		 mov	 DWORD PTR fs:0, eax
  00028	89 65 f0	 mov	 DWORD PTR __$EHRec$[ebp], esp

; 1113 :         if (w == nullptr)

  0002b	8b 75 10	 mov	 esi, DWORD PTR _w$[ebp]
  0002e	85 f6		 test	 esi, esi
  00030	75 17		 jne	 SHORT $LN2@PMCCS_Equa

; 1114 :             return (PMC_STATUS_ARGUMENT_NULL_ERROR);

  00032	8d 46 fe	 lea	 eax, DWORD PTR [esi-2]

; 1123 :         }
; 1124 :     }

  00035	8b 4d f4	 mov	 ecx, DWORD PTR __$EHRec$[ebp+4]
  00038	64 89 0d 00 00
	00 00		 mov	 DWORD PTR fs:0, ecx
  0003f	59		 pop	 ecx
  00040	5f		 pop	 edi
  00041	5e		 pop	 esi
  00042	5b		 pop	 ebx
  00043	8b e5		 mov	 esp, ebp
  00045	5d		 pop	 ebp
  00046	c2 0c 00	 ret	 12			; 0000000cH
$LN2@PMCCS_Equa:

; 1115 :         try

  00049	c7 45 fc 00 00
	00 00		 mov	 DWORD PTR __$EHRec$[ebp+12], 0

; 1116 :         {
; 1117 :             *w = PMC_Equals_X_X(u, v);

  00050	ff 75 0c	 push	 DWORD PTR _v$[ebp]
  00053	ff 75 08	 push	 DWORD PTR _u$[ebp]
  00056	e8 00 00 00 00	 call	 ?PMC_Equals_X_X@Internal@Core@Math@Palmtree@@YGIPAU__tag_PMC_HANDLE_UINT@1234@0@Z ; Palmtree::Math::Core::Internal::PMC_Equals_X_X
  0005b	89 06		 mov	 DWORD PTR [esi], eax

; 1118 :             return (PMC_STATUS_OK);

  0005d	33 c0		 xor	 eax, eax

; 1123 :         }
; 1124 :     }

  0005f	8b 4d f4	 mov	 ecx, DWORD PTR __$EHRec$[ebp+4]
  00062	64 89 0d 00 00
	00 00		 mov	 DWORD PTR fs:0, ecx
  00069	59		 pop	 ecx
  0006a	5f		 pop	 edi
  0006b	5e		 pop	 esi
  0006c	5b		 pop	 ebx
  0006d	8b e5		 mov	 esp, ebp
  0006f	5d		 pop	 ebp
  00070	c2 0c 00	 ret	 12			; 0000000cH
__catch$_PMCCS_Equals_X_X@12$0:
; File z:\sources\lunor\repos\rougemeilland\palmtree.math.core.uint\palmtree.math.core.uint\pmc_exception.h

; 75   :             return (_code);

  00073	8b 45 ec	 mov	 eax, DWORD PTR _ex$2[ebp]
  00076	8b 40 0c	 mov	 eax, DWORD PTR [eax+12]
  00079	89 45 10	 mov	 DWORD PTR $T3[ebp], eax
; File z:\sources\lunor\repos\rougemeilland\palmtree.math.core.uint\palmtree.math.core.uint\pmc_interface_csharp.cpp

; 1122 :             return (ex.GetStatusCode());

  0007c	b8 00 00 00 00	 mov	 eax, $LN8@PMCCS_Equa
  00081	c3		 ret	 0
$LN8@PMCCS_Equa:
; File z:\sources\lunor\repos\rougemeilland\palmtree.math.core.uint\palmtree.math.core.uint\pmc_exception.h
  00082	c7 45 fc ff ff
	ff ff		 mov	 DWORD PTR __$EHRec$[ebp+12], -1
; File z:\sources\lunor\repos\rougemeilland\palmtree.math.core.uint\palmtree.math.core.uint\pmc_interface_csharp.cpp

; 1122 :             return (ex.GetStatusCode());

  00089	8b 45 10	 mov	 eax, DWORD PTR $T3[ebp]

; 1123 :         }
; 1124 :     }

  0008c	8b 4d f4	 mov	 ecx, DWORD PTR __$EHRec$[ebp+4]
  0008f	64 89 0d 00 00
	00 00		 mov	 DWORD PTR fs:0, ecx
  00096	59		 pop	 ecx
  00097	5f		 pop	 edi
  00098	5e		 pop	 esi
  00099	5b		 pop	 ebx
  0009a	8b e5		 mov	 esp, ebp
  0009c	5d		 pop	 ebp
  0009d	c2 0c 00	 ret	 12			; 0000000cH
_TEXT	ENDS
;	COMDAT text$x
text$x	SEGMENT
__ehhandler$_PMCCS_Equals_X_X@12:
  00000	8b 54 24 08	 mov	 edx, DWORD PTR [esp+8]
  00004	8d 42 0c	 lea	 eax, DWORD PTR [edx+12]
  00007	8b 4a e8	 mov	 ecx, DWORD PTR [edx-24]
  0000a	33 c8		 xor	 ecx, eax
  0000c	e8 00 00 00 00	 call	 @__security_check_cookie@4
  00011	b8 00 00 00 00	 mov	 eax, OFFSET __ehfuncinfo$_PMCCS_Equals_X_X@12
  00016	e9 00 00 00 00	 jmp	 ___CxxFrameHandler3
text$x	ENDS
_PMCCS_Equals_X_X@12 ENDP
; Function compile flags: /Ogtp
; File z:\sources\lunor\repos\rougemeilland\palmtree.math.core.uint\palmtree.math.core.uint\pmc_interface_csharp.cpp
; File z:\sources\lunor\repos\rougemeilland\palmtree.math.core.uint\palmtree.math.core.uint\pmc_exception.h
; File z:\sources\lunor\repos\rougemeilland\palmtree.math.core.uint\palmtree.math.core.uint\pmc_interface_csharp.cpp
;	COMDAT _PMCCS_Equals_X_L@16
_TEXT	SEGMENT
_ex$2 = -20						; size = 4
__$EHRec$ = -16						; size = 16
_u$ = 8							; size = 4
_v$ = 12						; size = 8
$T3 = 20						; size = 4
_w$ = 20						; size = 4
_PMCCS_Equals_X_L@16 PROC				; COMDAT

; 1097 :     {

  00000	55		 push	 ebp
  00001	8b ec		 mov	 ebp, esp
  00003	6a ff		 push	 -1
  00005	68 00 00 00 00	 push	 __ehhandler$_PMCCS_Equals_X_L@16
  0000a	64 a1 00 00 00
	00		 mov	 eax, DWORD PTR fs:0
  00010	50		 push	 eax
  00011	83 ec 08	 sub	 esp, 8
  00014	53		 push	 ebx
  00015	56		 push	 esi
  00016	57		 push	 edi
  00017	a1 00 00 00 00	 mov	 eax, DWORD PTR ___security_cookie
  0001c	33 c5		 xor	 eax, ebp
  0001e	50		 push	 eax
  0001f	8d 45 f4	 lea	 eax, DWORD PTR __$EHRec$[ebp+4]
  00022	64 a3 00 00 00
	00		 mov	 DWORD PTR fs:0, eax
  00028	89 65 f0	 mov	 DWORD PTR __$EHRec$[ebp], esp

; 1098 :         if (w == nullptr)

  0002b	8b 75 14	 mov	 esi, DWORD PTR _w$[ebp]
  0002e	85 f6		 test	 esi, esi
  00030	75 17		 jne	 SHORT $LN2@PMCCS_Equa

; 1099 :             return (PMC_STATUS_ARGUMENT_NULL_ERROR);

  00032	8d 46 fe	 lea	 eax, DWORD PTR [esi-2]

; 1108 :         }
; 1109 :     }

  00035	8b 4d f4	 mov	 ecx, DWORD PTR __$EHRec$[ebp+4]
  00038	64 89 0d 00 00
	00 00		 mov	 DWORD PTR fs:0, ecx
  0003f	59		 pop	 ecx
  00040	5f		 pop	 edi
  00041	5e		 pop	 esi
  00042	5b		 pop	 ebx
  00043	8b e5		 mov	 esp, ebp
  00045	5d		 pop	 ebp
  00046	c2 10 00	 ret	 16			; 00000010H
$LN2@PMCCS_Equa:

; 1100 :         try

  00049	c7 45 fc 00 00
	00 00		 mov	 DWORD PTR __$EHRec$[ebp+12], 0

; 1101 :         {
; 1102 :             *w = PMC_Equals_X_L(u, v);

  00050	ff 75 10	 push	 DWORD PTR _v$[ebp+4]
  00053	ff 75 0c	 push	 DWORD PTR _v$[ebp]
  00056	ff 75 08	 push	 DWORD PTR _u$[ebp]
  00059	e8 00 00 00 00	 call	 ?PMC_Equals_X_L@Internal@Core@Math@Palmtree@@YGIPAU__tag_PMC_HANDLE_UINT@1234@_K@Z ; Palmtree::Math::Core::Internal::PMC_Equals_X_L
  0005e	89 06		 mov	 DWORD PTR [esi], eax

; 1103 :             return (PMC_STATUS_OK);

  00060	33 c0		 xor	 eax, eax

; 1108 :         }
; 1109 :     }

  00062	8b 4d f4	 mov	 ecx, DWORD PTR __$EHRec$[ebp+4]
  00065	64 89 0d 00 00
	00 00		 mov	 DWORD PTR fs:0, ecx
  0006c	59		 pop	 ecx
  0006d	5f		 pop	 edi
  0006e	5e		 pop	 esi
  0006f	5b		 pop	 ebx
  00070	8b e5		 mov	 esp, ebp
  00072	5d		 pop	 ebp
  00073	c2 10 00	 ret	 16			; 00000010H
__catch$_PMCCS_Equals_X_L@16$0:
; File z:\sources\lunor\repos\rougemeilland\palmtree.math.core.uint\palmtree.math.core.uint\pmc_exception.h

; 75   :             return (_code);

  00076	8b 45 ec	 mov	 eax, DWORD PTR _ex$2[ebp]
  00079	8b 40 0c	 mov	 eax, DWORD PTR [eax+12]
  0007c	89 45 14	 mov	 DWORD PTR $T3[ebp], eax
; File z:\sources\lunor\repos\rougemeilland\palmtree.math.core.uint\palmtree.math.core.uint\pmc_interface_csharp.cpp

; 1107 :             return (ex.GetStatusCode());

  0007f	b8 00 00 00 00	 mov	 eax, $LN8@PMCCS_Equa
  00084	c3		 ret	 0
$LN8@PMCCS_Equa:
; File z:\sources\lunor\repos\rougemeilland\palmtree.math.core.uint\palmtree.math.core.uint\pmc_exception.h
  00085	c7 45 fc ff ff
	ff ff		 mov	 DWORD PTR __$EHRec$[ebp+12], -1
; File z:\sources\lunor\repos\rougemeilland\palmtree.math.core.uint\palmtree.math.core.uint\pmc_interface_csharp.cpp

; 1107 :             return (ex.GetStatusCode());

  0008c	8b 45 14	 mov	 eax, DWORD PTR $T3[ebp]

; 1108 :         }
; 1109 :     }

  0008f	8b 4d f4	 mov	 ecx, DWORD PTR __$EHRec$[ebp+4]
  00092	64 89 0d 00 00
	00 00		 mov	 DWORD PTR fs:0, ecx
  00099	59		 pop	 ecx
  0009a	5f		 pop	 edi
  0009b	5e		 pop	 esi
  0009c	5b		 pop	 ebx
  0009d	8b e5		 mov	 esp, ebp
  0009f	5d		 pop	 ebp
  000a0	c2 10 00	 ret	 16			; 00000010H
_TEXT	ENDS
;	COMDAT text$x
text$x	SEGMENT
__ehhandler$_PMCCS_Equals_X_L@16:
  00000	8b 54 24 08	 mov	 edx, DWORD PTR [esp+8]
  00004	8d 42 0c	 lea	 eax, DWORD PTR [edx+12]
  00007	8b 4a e8	 mov	 ecx, DWORD PTR [edx-24]
  0000a	33 c8		 xor	 ecx, eax
  0000c	e8 00 00 00 00	 call	 @__security_check_cookie@4
  00011	b8 00 00 00 00	 mov	 eax, OFFSET __ehfuncinfo$_PMCCS_Equals_X_L@16
  00016	e9 00 00 00 00	 jmp	 ___CxxFrameHandler3
text$x	ENDS
_PMCCS_Equals_X_L@16 ENDP
; Function compile flags: /Ogtp
; File z:\sources\lunor\repos\rougemeilland\palmtree.math.core.uint\palmtree.math.core.uint\pmc_interface_csharp.cpp
; File z:\sources\lunor\repos\rougemeilland\palmtree.math.core.uint\palmtree.math.core.uint\pmc_exception.h
; File z:\sources\lunor\repos\rougemeilland\palmtree.math.core.uint\palmtree.math.core.uint\pmc_interface_csharp.cpp
;	COMDAT _PMCCS_Equals_X_I@12
_TEXT	SEGMENT
_ex$2 = -20						; size = 4
__$EHRec$ = -16						; size = 16
_u$ = 8							; size = 4
_v$ = 12						; size = 4
$T3 = 16						; size = 4
_w$ = 16						; size = 4
_PMCCS_Equals_X_I@12 PROC				; COMDAT

; 1082 :     {

  00000	55		 push	 ebp
  00001	8b ec		 mov	 ebp, esp
  00003	6a ff		 push	 -1
  00005	68 00 00 00 00	 push	 __ehhandler$_PMCCS_Equals_X_I@12
  0000a	64 a1 00 00 00
	00		 mov	 eax, DWORD PTR fs:0
  00010	50		 push	 eax
  00011	83 ec 08	 sub	 esp, 8
  00014	53		 push	 ebx
  00015	56		 push	 esi
  00016	57		 push	 edi
  00017	a1 00 00 00 00	 mov	 eax, DWORD PTR ___security_cookie
  0001c	33 c5		 xor	 eax, ebp
  0001e	50		 push	 eax
  0001f	8d 45 f4	 lea	 eax, DWORD PTR __$EHRec$[ebp+4]
  00022	64 a3 00 00 00
	00		 mov	 DWORD PTR fs:0, eax
  00028	89 65 f0	 mov	 DWORD PTR __$EHRec$[ebp], esp

; 1083 :         if (w == nullptr)

  0002b	8b 75 10	 mov	 esi, DWORD PTR _w$[ebp]
  0002e	85 f6		 test	 esi, esi
  00030	75 17		 jne	 SHORT $LN2@PMCCS_Equa

; 1084 :             return (PMC_STATUS_ARGUMENT_NULL_ERROR);

  00032	8d 46 fe	 lea	 eax, DWORD PTR [esi-2]

; 1093 :         }
; 1094 :     }

  00035	8b 4d f4	 mov	 ecx, DWORD PTR __$EHRec$[ebp+4]
  00038	64 89 0d 00 00
	00 00		 mov	 DWORD PTR fs:0, ecx
  0003f	59		 pop	 ecx
  00040	5f		 pop	 edi
  00041	5e		 pop	 esi
  00042	5b		 pop	 ebx
  00043	8b e5		 mov	 esp, ebp
  00045	5d		 pop	 ebp
  00046	c2 0c 00	 ret	 12			; 0000000cH
$LN2@PMCCS_Equa:

; 1085 :         try

  00049	c7 45 fc 00 00
	00 00		 mov	 DWORD PTR __$EHRec$[ebp+12], 0

; 1086 :         {
; 1087 :             *w = PMC_Equals_X_I(u, v);

  00050	ff 75 0c	 push	 DWORD PTR _v$[ebp]
  00053	ff 75 08	 push	 DWORD PTR _u$[ebp]
  00056	e8 00 00 00 00	 call	 ?PMC_Equals_X_I@Internal@Core@Math@Palmtree@@YGIPAU__tag_PMC_HANDLE_UINT@1234@I@Z ; Palmtree::Math::Core::Internal::PMC_Equals_X_I
  0005b	89 06		 mov	 DWORD PTR [esi], eax

; 1088 :             return (PMC_STATUS_OK);

  0005d	33 c0		 xor	 eax, eax

; 1093 :         }
; 1094 :     }

  0005f	8b 4d f4	 mov	 ecx, DWORD PTR __$EHRec$[ebp+4]
  00062	64 89 0d 00 00
	00 00		 mov	 DWORD PTR fs:0, ecx
  00069	59		 pop	 ecx
  0006a	5f		 pop	 edi
  0006b	5e		 pop	 esi
  0006c	5b		 pop	 ebx
  0006d	8b e5		 mov	 esp, ebp
  0006f	5d		 pop	 ebp
  00070	c2 0c 00	 ret	 12			; 0000000cH
__catch$_PMCCS_Equals_X_I@12$0:
; File z:\sources\lunor\repos\rougemeilland\palmtree.math.core.uint\palmtree.math.core.uint\pmc_exception.h

; 75   :             return (_code);

  00073	8b 45 ec	 mov	 eax, DWORD PTR _ex$2[ebp]
  00076	8b 40 0c	 mov	 eax, DWORD PTR [eax+12]
  00079	89 45 10	 mov	 DWORD PTR $T3[ebp], eax
; File z:\sources\lunor\repos\rougemeilland\palmtree.math.core.uint\palmtree.math.core.uint\pmc_interface_csharp.cpp

; 1092 :             return (ex.GetStatusCode());

  0007c	b8 00 00 00 00	 mov	 eax, $LN8@PMCCS_Equa
  00081	c3		 ret	 0
$LN8@PMCCS_Equa:
; File z:\sources\lunor\repos\rougemeilland\palmtree.math.core.uint\palmtree.math.core.uint\pmc_exception.h
  00082	c7 45 fc ff ff
	ff ff		 mov	 DWORD PTR __$EHRec$[ebp+12], -1
; File z:\sources\lunor\repos\rougemeilland\palmtree.math.core.uint\palmtree.math.core.uint\pmc_interface_csharp.cpp

; 1092 :             return (ex.GetStatusCode());

  00089	8b 45 10	 mov	 eax, DWORD PTR $T3[ebp]

; 1093 :         }
; 1094 :     }

  0008c	8b 4d f4	 mov	 ecx, DWORD PTR __$EHRec$[ebp+4]
  0008f	64 89 0d 00 00
	00 00		 mov	 DWORD PTR fs:0, ecx
  00096	59		 pop	 ecx
  00097	5f		 pop	 edi
  00098	5e		 pop	 esi
  00099	5b		 pop	 ebx
  0009a	8b e5		 mov	 esp, ebp
  0009c	5d		 pop	 ebp
  0009d	c2 0c 00	 ret	 12			; 0000000cH
_TEXT	ENDS
;	COMDAT text$x
text$x	SEGMENT
__ehhandler$_PMCCS_Equals_X_I@12:
  00000	8b 54 24 08	 mov	 edx, DWORD PTR [esp+8]
  00004	8d 42 0c	 lea	 eax, DWORD PTR [edx+12]
  00007	8b 4a e8	 mov	 ecx, DWORD PTR [edx-24]
  0000a	33 c8		 xor	 ecx, eax
  0000c	e8 00 00 00 00	 call	 @__security_check_cookie@4
  00011	b8 00 00 00 00	 mov	 eax, OFFSET __ehfuncinfo$_PMCCS_Equals_X_I@12
  00016	e9 00 00 00 00	 jmp	 ___CxxFrameHandler3
text$x	ENDS
_PMCCS_Equals_X_I@12 ENDP
; Function compile flags: /Ogtp
; File z:\sources\lunor\repos\rougemeilland\palmtree.math.core.uint\palmtree.math.core.uint\pmc_interface_csharp.cpp
; File z:\sources\lunor\repos\rougemeilland\palmtree.math.core.uint\palmtree.math.core.uint\pmc_exception.h
; File z:\sources\lunor\repos\rougemeilland\palmtree.math.core.uint\palmtree.math.core.uint\pmc_interface_csharp.cpp
;	COMDAT _PMCCS_Equals_L_X@16
_TEXT	SEGMENT
_ex$2 = -20						; size = 4
__$EHRec$ = -16						; size = 16
_u$ = 8							; size = 8
_v$ = 16						; size = 4
$T3 = 20						; size = 4
_w$ = 20						; size = 4
_PMCCS_Equals_L_X@16 PROC				; COMDAT

; 1067 :     {

  00000	55		 push	 ebp
  00001	8b ec		 mov	 ebp, esp
  00003	6a ff		 push	 -1
  00005	68 00 00 00 00	 push	 __ehhandler$_PMCCS_Equals_L_X@16
  0000a	64 a1 00 00 00
	00		 mov	 eax, DWORD PTR fs:0
  00010	50		 push	 eax
  00011	83 ec 08	 sub	 esp, 8
  00014	53		 push	 ebx
  00015	56		 push	 esi
  00016	57		 push	 edi
  00017	a1 00 00 00 00	 mov	 eax, DWORD PTR ___security_cookie
  0001c	33 c5		 xor	 eax, ebp
  0001e	50		 push	 eax
  0001f	8d 45 f4	 lea	 eax, DWORD PTR __$EHRec$[ebp+4]
  00022	64 a3 00 00 00
	00		 mov	 DWORD PTR fs:0, eax
  00028	89 65 f0	 mov	 DWORD PTR __$EHRec$[ebp], esp

; 1068 :         if (w == nullptr)

  0002b	8b 75 14	 mov	 esi, DWORD PTR _w$[ebp]
  0002e	85 f6		 test	 esi, esi
  00030	75 17		 jne	 SHORT $LN2@PMCCS_Equa

; 1069 :             return (PMC_STATUS_ARGUMENT_NULL_ERROR);

  00032	8d 46 fe	 lea	 eax, DWORD PTR [esi-2]

; 1078 :         }
; 1079 :     }

  00035	8b 4d f4	 mov	 ecx, DWORD PTR __$EHRec$[ebp+4]
  00038	64 89 0d 00 00
	00 00		 mov	 DWORD PTR fs:0, ecx
  0003f	59		 pop	 ecx
  00040	5f		 pop	 edi
  00041	5e		 pop	 esi
  00042	5b		 pop	 ebx
  00043	8b e5		 mov	 esp, ebp
  00045	5d		 pop	 ebp
  00046	c2 10 00	 ret	 16			; 00000010H
$LN2@PMCCS_Equa:

; 1070 :         try

  00049	c7 45 fc 00 00
	00 00		 mov	 DWORD PTR __$EHRec$[ebp+12], 0

; 1071 :         {
; 1072 :             *w = PMC_Equals_L_X(u, v);

  00050	ff 75 10	 push	 DWORD PTR _v$[ebp]
  00053	ff 75 0c	 push	 DWORD PTR _u$[ebp+4]
  00056	ff 75 08	 push	 DWORD PTR _u$[ebp]
  00059	e8 00 00 00 00	 call	 ?PMC_Equals_L_X@Internal@Core@Math@Palmtree@@YGI_KPAU__tag_PMC_HANDLE_UINT@1234@@Z ; Palmtree::Math::Core::Internal::PMC_Equals_L_X
  0005e	89 06		 mov	 DWORD PTR [esi], eax

; 1073 :             return (PMC_STATUS_OK);

  00060	33 c0		 xor	 eax, eax

; 1078 :         }
; 1079 :     }

  00062	8b 4d f4	 mov	 ecx, DWORD PTR __$EHRec$[ebp+4]
  00065	64 89 0d 00 00
	00 00		 mov	 DWORD PTR fs:0, ecx
  0006c	59		 pop	 ecx
  0006d	5f		 pop	 edi
  0006e	5e		 pop	 esi
  0006f	5b		 pop	 ebx
  00070	8b e5		 mov	 esp, ebp
  00072	5d		 pop	 ebp
  00073	c2 10 00	 ret	 16			; 00000010H
__catch$_PMCCS_Equals_L_X@16$0:
; File z:\sources\lunor\repos\rougemeilland\palmtree.math.core.uint\palmtree.math.core.uint\pmc_exception.h

; 75   :             return (_code);

  00076	8b 45 ec	 mov	 eax, DWORD PTR _ex$2[ebp]
  00079	8b 40 0c	 mov	 eax, DWORD PTR [eax+12]
  0007c	89 45 14	 mov	 DWORD PTR $T3[ebp], eax
; File z:\sources\lunor\repos\rougemeilland\palmtree.math.core.uint\palmtree.math.core.uint\pmc_interface_csharp.cpp

; 1077 :             return (ex.GetStatusCode());

  0007f	b8 00 00 00 00	 mov	 eax, $LN8@PMCCS_Equa
  00084	c3		 ret	 0
$LN8@PMCCS_Equa:
; File z:\sources\lunor\repos\rougemeilland\palmtree.math.core.uint\palmtree.math.core.uint\pmc_exception.h
  00085	c7 45 fc ff ff
	ff ff		 mov	 DWORD PTR __$EHRec$[ebp+12], -1
; File z:\sources\lunor\repos\rougemeilland\palmtree.math.core.uint\palmtree.math.core.uint\pmc_interface_csharp.cpp

; 1077 :             return (ex.GetStatusCode());

  0008c	8b 45 14	 mov	 eax, DWORD PTR $T3[ebp]

; 1078 :         }
; 1079 :     }

  0008f	8b 4d f4	 mov	 ecx, DWORD PTR __$EHRec$[ebp+4]
  00092	64 89 0d 00 00
	00 00		 mov	 DWORD PTR fs:0, ecx
  00099	59		 pop	 ecx
  0009a	5f		 pop	 edi
  0009b	5e		 pop	 esi
  0009c	5b		 pop	 ebx
  0009d	8b e5		 mov	 esp, ebp
  0009f	5d		 pop	 ebp
  000a0	c2 10 00	 ret	 16			; 00000010H
_TEXT	ENDS
;	COMDAT text$x
text$x	SEGMENT
__ehhandler$_PMCCS_Equals_L_X@16:
  00000	8b 54 24 08	 mov	 edx, DWORD PTR [esp+8]
  00004	8d 42 0c	 lea	 eax, DWORD PTR [edx+12]
  00007	8b 4a e8	 mov	 ecx, DWORD PTR [edx-24]
  0000a	33 c8		 xor	 ecx, eax
  0000c	e8 00 00 00 00	 call	 @__security_check_cookie@4
  00011	b8 00 00 00 00	 mov	 eax, OFFSET __ehfuncinfo$_PMCCS_Equals_L_X@16
  00016	e9 00 00 00 00	 jmp	 ___CxxFrameHandler3
text$x	ENDS
_PMCCS_Equals_L_X@16 ENDP
; Function compile flags: /Ogtp
; File z:\sources\lunor\repos\rougemeilland\palmtree.math.core.uint\palmtree.math.core.uint\pmc_interface_csharp.cpp
; File z:\sources\lunor\repos\rougemeilland\palmtree.math.core.uint\palmtree.math.core.uint\pmc_exception.h
; File z:\sources\lunor\repos\rougemeilland\palmtree.math.core.uint\palmtree.math.core.uint\pmc_interface_csharp.cpp
;	COMDAT _PMCCS_Equals_I_X@12
_TEXT	SEGMENT
_ex$2 = -20						; size = 4
__$EHRec$ = -16						; size = 16
_u$ = 8							; size = 4
_v$ = 12						; size = 4
$T3 = 16						; size = 4
_w$ = 16						; size = 4
_PMCCS_Equals_I_X@12 PROC				; COMDAT

; 1052 :     {

  00000	55		 push	 ebp
  00001	8b ec		 mov	 ebp, esp
  00003	6a ff		 push	 -1
  00005	68 00 00 00 00	 push	 __ehhandler$_PMCCS_Equals_I_X@12
  0000a	64 a1 00 00 00
	00		 mov	 eax, DWORD PTR fs:0
  00010	50		 push	 eax
  00011	83 ec 08	 sub	 esp, 8
  00014	53		 push	 ebx
  00015	56		 push	 esi
  00016	57		 push	 edi
  00017	a1 00 00 00 00	 mov	 eax, DWORD PTR ___security_cookie
  0001c	33 c5		 xor	 eax, ebp
  0001e	50		 push	 eax
  0001f	8d 45 f4	 lea	 eax, DWORD PTR __$EHRec$[ebp+4]
  00022	64 a3 00 00 00
	00		 mov	 DWORD PTR fs:0, eax
  00028	89 65 f0	 mov	 DWORD PTR __$EHRec$[ebp], esp

; 1053 :         if (w == nullptr)

  0002b	8b 75 10	 mov	 esi, DWORD PTR _w$[ebp]
  0002e	85 f6		 test	 esi, esi
  00030	75 17		 jne	 SHORT $LN2@PMCCS_Equa

; 1054 :             return (PMC_STATUS_ARGUMENT_NULL_ERROR);

  00032	8d 46 fe	 lea	 eax, DWORD PTR [esi-2]

; 1063 :         }
; 1064 :     }

  00035	8b 4d f4	 mov	 ecx, DWORD PTR __$EHRec$[ebp+4]
  00038	64 89 0d 00 00
	00 00		 mov	 DWORD PTR fs:0, ecx
  0003f	59		 pop	 ecx
  00040	5f		 pop	 edi
  00041	5e		 pop	 esi
  00042	5b		 pop	 ebx
  00043	8b e5		 mov	 esp, ebp
  00045	5d		 pop	 ebp
  00046	c2 0c 00	 ret	 12			; 0000000cH
$LN2@PMCCS_Equa:

; 1055 :         try

  00049	c7 45 fc 00 00
	00 00		 mov	 DWORD PTR __$EHRec$[ebp+12], 0

; 1056 :         {
; 1057 :             *w = PMC_Equals_I_X(u, v);

  00050	ff 75 0c	 push	 DWORD PTR _v$[ebp]
  00053	ff 75 08	 push	 DWORD PTR _u$[ebp]
  00056	e8 00 00 00 00	 call	 ?PMC_Equals_I_X@Internal@Core@Math@Palmtree@@YGIIPAU__tag_PMC_HANDLE_UINT@1234@@Z ; Palmtree::Math::Core::Internal::PMC_Equals_I_X
  0005b	89 06		 mov	 DWORD PTR [esi], eax

; 1058 :             return (PMC_STATUS_OK);

  0005d	33 c0		 xor	 eax, eax

; 1063 :         }
; 1064 :     }

  0005f	8b 4d f4	 mov	 ecx, DWORD PTR __$EHRec$[ebp+4]
  00062	64 89 0d 00 00
	00 00		 mov	 DWORD PTR fs:0, ecx
  00069	59		 pop	 ecx
  0006a	5f		 pop	 edi
  0006b	5e		 pop	 esi
  0006c	5b		 pop	 ebx
  0006d	8b e5		 mov	 esp, ebp
  0006f	5d		 pop	 ebp
  00070	c2 0c 00	 ret	 12			; 0000000cH
__catch$_PMCCS_Equals_I_X@12$0:
; File z:\sources\lunor\repos\rougemeilland\palmtree.math.core.uint\palmtree.math.core.uint\pmc_exception.h

; 75   :             return (_code);

  00073	8b 45 ec	 mov	 eax, DWORD PTR _ex$2[ebp]
  00076	8b 40 0c	 mov	 eax, DWORD PTR [eax+12]
  00079	89 45 10	 mov	 DWORD PTR $T3[ebp], eax
; File z:\sources\lunor\repos\rougemeilland\palmtree.math.core.uint\palmtree.math.core.uint\pmc_interface_csharp.cpp

; 1062 :             return (ex.GetStatusCode());

  0007c	b8 00 00 00 00	 mov	 eax, $LN8@PMCCS_Equa
  00081	c3		 ret	 0
$LN8@PMCCS_Equa:
; File z:\sources\lunor\repos\rougemeilland\palmtree.math.core.uint\palmtree.math.core.uint\pmc_exception.h
  00082	c7 45 fc ff ff
	ff ff		 mov	 DWORD PTR __$EHRec$[ebp+12], -1
; File z:\sources\lunor\repos\rougemeilland\palmtree.math.core.uint\palmtree.math.core.uint\pmc_interface_csharp.cpp

; 1062 :             return (ex.GetStatusCode());

  00089	8b 45 10	 mov	 eax, DWORD PTR $T3[ebp]

; 1063 :         }
; 1064 :     }

  0008c	8b 4d f4	 mov	 ecx, DWORD PTR __$EHRec$[ebp+4]
  0008f	64 89 0d 00 00
	00 00		 mov	 DWORD PTR fs:0, ecx
  00096	59		 pop	 ecx
  00097	5f		 pop	 edi
  00098	5e		 pop	 esi
  00099	5b		 pop	 ebx
  0009a	8b e5		 mov	 esp, ebp
  0009c	5d		 pop	 ebp
  0009d	c2 0c 00	 ret	 12			; 0000000cH
_TEXT	ENDS
;	COMDAT text$x
text$x	SEGMENT
__ehhandler$_PMCCS_Equals_I_X@12:
  00000	8b 54 24 08	 mov	 edx, DWORD PTR [esp+8]
  00004	8d 42 0c	 lea	 eax, DWORD PTR [edx+12]
  00007	8b 4a e8	 mov	 ecx, DWORD PTR [edx-24]
  0000a	33 c8		 xor	 ecx, eax
  0000c	e8 00 00 00 00	 call	 @__security_check_cookie@4
  00011	b8 00 00 00 00	 mov	 eax, OFFSET __ehfuncinfo$_PMCCS_Equals_I_X@12
  00016	e9 00 00 00 00	 jmp	 ___CxxFrameHandler3
text$x	ENDS
_PMCCS_Equals_I_X@12 ENDP
; Function compile flags: /Ogtp
; File z:\sources\lunor\repos\rougemeilland\palmtree.math.core.uint\palmtree.math.core.uint\pmc_interface_csharp.cpp
; File z:\sources\lunor\repos\rougemeilland\palmtree.math.core.uint\palmtree.math.core.uint\pmc_exception.h
; File z:\sources\lunor\repos\rougemeilland\palmtree.math.core.uint\palmtree.math.core.uint\pmc_interface_csharp.cpp
;	COMDAT _PMCCS_Compare_X_X@12
_TEXT	SEGMENT
_ex$2 = -20						; size = 4
__$EHRec$ = -16						; size = 16
_u$ = 8							; size = 4
_v$ = 12						; size = 4
$T3 = 16						; size = 4
_w$ = 16						; size = 4
_PMCCS_Compare_X_X@12 PROC				; COMDAT

; 1037 :     {

  00000	55		 push	 ebp
  00001	8b ec		 mov	 ebp, esp
  00003	6a ff		 push	 -1
  00005	68 00 00 00 00	 push	 __ehhandler$_PMCCS_Compare_X_X@12
  0000a	64 a1 00 00 00
	00		 mov	 eax, DWORD PTR fs:0
  00010	50		 push	 eax
  00011	83 ec 08	 sub	 esp, 8
  00014	53		 push	 ebx
  00015	56		 push	 esi
  00016	57		 push	 edi
  00017	a1 00 00 00 00	 mov	 eax, DWORD PTR ___security_cookie
  0001c	33 c5		 xor	 eax, ebp
  0001e	50		 push	 eax
  0001f	8d 45 f4	 lea	 eax, DWORD PTR __$EHRec$[ebp+4]
  00022	64 a3 00 00 00
	00		 mov	 DWORD PTR fs:0, eax
  00028	89 65 f0	 mov	 DWORD PTR __$EHRec$[ebp], esp

; 1038 :         if (w == nullptr)

  0002b	8b 75 10	 mov	 esi, DWORD PTR _w$[ebp]
  0002e	85 f6		 test	 esi, esi
  00030	75 17		 jne	 SHORT $LN2@PMCCS_Comp

; 1039 :             return (PMC_STATUS_ARGUMENT_NULL_ERROR);

  00032	8d 46 fe	 lea	 eax, DWORD PTR [esi-2]

; 1048 :         }
; 1049 :     }

  00035	8b 4d f4	 mov	 ecx, DWORD PTR __$EHRec$[ebp+4]
  00038	64 89 0d 00 00
	00 00		 mov	 DWORD PTR fs:0, ecx
  0003f	59		 pop	 ecx
  00040	5f		 pop	 edi
  00041	5e		 pop	 esi
  00042	5b		 pop	 ebx
  00043	8b e5		 mov	 esp, ebp
  00045	5d		 pop	 ebp
  00046	c2 0c 00	 ret	 12			; 0000000cH
$LN2@PMCCS_Comp:

; 1040 :         try

  00049	c7 45 fc 00 00
	00 00		 mov	 DWORD PTR __$EHRec$[ebp+12], 0

; 1041 :         {
; 1042 :             *w = PMC_Compare_X_X(u, v);

  00050	ff 75 0c	 push	 DWORD PTR _v$[ebp]
  00053	ff 75 08	 push	 DWORD PTR _u$[ebp]
  00056	e8 00 00 00 00	 call	 ?PMC_Compare_X_X@Internal@Core@Math@Palmtree@@YGHPAU__tag_PMC_HANDLE_UINT@1234@0@Z ; Palmtree::Math::Core::Internal::PMC_Compare_X_X
  0005b	89 06		 mov	 DWORD PTR [esi], eax

; 1043 :             return (PMC_STATUS_OK);

  0005d	33 c0		 xor	 eax, eax

; 1048 :         }
; 1049 :     }

  0005f	8b 4d f4	 mov	 ecx, DWORD PTR __$EHRec$[ebp+4]
  00062	64 89 0d 00 00
	00 00		 mov	 DWORD PTR fs:0, ecx
  00069	59		 pop	 ecx
  0006a	5f		 pop	 edi
  0006b	5e		 pop	 esi
  0006c	5b		 pop	 ebx
  0006d	8b e5		 mov	 esp, ebp
  0006f	5d		 pop	 ebp
  00070	c2 0c 00	 ret	 12			; 0000000cH
__catch$_PMCCS_Compare_X_X@12$0:
; File z:\sources\lunor\repos\rougemeilland\palmtree.math.core.uint\palmtree.math.core.uint\pmc_exception.h

; 75   :             return (_code);

  00073	8b 45 ec	 mov	 eax, DWORD PTR _ex$2[ebp]
  00076	8b 40 0c	 mov	 eax, DWORD PTR [eax+12]
  00079	89 45 10	 mov	 DWORD PTR $T3[ebp], eax
; File z:\sources\lunor\repos\rougemeilland\palmtree.math.core.uint\palmtree.math.core.uint\pmc_interface_csharp.cpp

; 1047 :             return (ex.GetStatusCode());

  0007c	b8 00 00 00 00	 mov	 eax, $LN8@PMCCS_Comp
  00081	c3		 ret	 0
$LN8@PMCCS_Comp:
; File z:\sources\lunor\repos\rougemeilland\palmtree.math.core.uint\palmtree.math.core.uint\pmc_exception.h
  00082	c7 45 fc ff ff
	ff ff		 mov	 DWORD PTR __$EHRec$[ebp+12], -1
; File z:\sources\lunor\repos\rougemeilland\palmtree.math.core.uint\palmtree.math.core.uint\pmc_interface_csharp.cpp

; 1047 :             return (ex.GetStatusCode());

  00089	8b 45 10	 mov	 eax, DWORD PTR $T3[ebp]

; 1048 :         }
; 1049 :     }

  0008c	8b 4d f4	 mov	 ecx, DWORD PTR __$EHRec$[ebp+4]
  0008f	64 89 0d 00 00
	00 00		 mov	 DWORD PTR fs:0, ecx
  00096	59		 pop	 ecx
  00097	5f		 pop	 edi
  00098	5e		 pop	 esi
  00099	5b		 pop	 ebx
  0009a	8b e5		 mov	 esp, ebp
  0009c	5d		 pop	 ebp
  0009d	c2 0c 00	 ret	 12			; 0000000cH
_TEXT	ENDS
;	COMDAT text$x
text$x	SEGMENT
__ehhandler$_PMCCS_Compare_X_X@12:
  00000	8b 54 24 08	 mov	 edx, DWORD PTR [esp+8]
  00004	8d 42 0c	 lea	 eax, DWORD PTR [edx+12]
  00007	8b 4a e8	 mov	 ecx, DWORD PTR [edx-24]
  0000a	33 c8		 xor	 ecx, eax
  0000c	e8 00 00 00 00	 call	 @__security_check_cookie@4
  00011	b8 00 00 00 00	 mov	 eax, OFFSET __ehfuncinfo$_PMCCS_Compare_X_X@12
  00016	e9 00 00 00 00	 jmp	 ___CxxFrameHandler3
text$x	ENDS
_PMCCS_Compare_X_X@12 ENDP
; Function compile flags: /Ogtp
; File z:\sources\lunor\repos\rougemeilland\palmtree.math.core.uint\palmtree.math.core.uint\pmc_interface_csharp.cpp
; File z:\sources\lunor\repos\rougemeilland\palmtree.math.core.uint\palmtree.math.core.uint\pmc_exception.h
; File z:\sources\lunor\repos\rougemeilland\palmtree.math.core.uint\palmtree.math.core.uint\pmc_interface_csharp.cpp
;	COMDAT _PMCCS_Compare_X_L@16
_TEXT	SEGMENT
_ex$2 = -20						; size = 4
__$EHRec$ = -16						; size = 16
_u$ = 8							; size = 4
_v$ = 12						; size = 8
$T3 = 20						; size = 4
_w$ = 20						; size = 4
_PMCCS_Compare_X_L@16 PROC				; COMDAT

; 1022 :     {

  00000	55		 push	 ebp
  00001	8b ec		 mov	 ebp, esp
  00003	6a ff		 push	 -1
  00005	68 00 00 00 00	 push	 __ehhandler$_PMCCS_Compare_X_L@16
  0000a	64 a1 00 00 00
	00		 mov	 eax, DWORD PTR fs:0
  00010	50		 push	 eax
  00011	83 ec 08	 sub	 esp, 8
  00014	53		 push	 ebx
  00015	56		 push	 esi
  00016	57		 push	 edi
  00017	a1 00 00 00 00	 mov	 eax, DWORD PTR ___security_cookie
  0001c	33 c5		 xor	 eax, ebp
  0001e	50		 push	 eax
  0001f	8d 45 f4	 lea	 eax, DWORD PTR __$EHRec$[ebp+4]
  00022	64 a3 00 00 00
	00		 mov	 DWORD PTR fs:0, eax
  00028	89 65 f0	 mov	 DWORD PTR __$EHRec$[ebp], esp

; 1023 :         if (w == nullptr)

  0002b	8b 75 14	 mov	 esi, DWORD PTR _w$[ebp]
  0002e	85 f6		 test	 esi, esi
  00030	75 17		 jne	 SHORT $LN2@PMCCS_Comp

; 1024 :             return (PMC_STATUS_ARGUMENT_NULL_ERROR);

  00032	8d 46 fe	 lea	 eax, DWORD PTR [esi-2]

; 1033 :         }
; 1034 :     }

  00035	8b 4d f4	 mov	 ecx, DWORD PTR __$EHRec$[ebp+4]
  00038	64 89 0d 00 00
	00 00		 mov	 DWORD PTR fs:0, ecx
  0003f	59		 pop	 ecx
  00040	5f		 pop	 edi
  00041	5e		 pop	 esi
  00042	5b		 pop	 ebx
  00043	8b e5		 mov	 esp, ebp
  00045	5d		 pop	 ebp
  00046	c2 10 00	 ret	 16			; 00000010H
$LN2@PMCCS_Comp:

; 1025 :         try

  00049	c7 45 fc 00 00
	00 00		 mov	 DWORD PTR __$EHRec$[ebp+12], 0

; 1026 :         {
; 1027 :             *w = PMC_Compare_X_L(u, v);

  00050	ff 75 10	 push	 DWORD PTR _v$[ebp+4]
  00053	ff 75 0c	 push	 DWORD PTR _v$[ebp]
  00056	ff 75 08	 push	 DWORD PTR _u$[ebp]
  00059	e8 00 00 00 00	 call	 ?PMC_Compare_X_L@Internal@Core@Math@Palmtree@@YGHPAU__tag_PMC_HANDLE_UINT@1234@_K@Z ; Palmtree::Math::Core::Internal::PMC_Compare_X_L
  0005e	89 06		 mov	 DWORD PTR [esi], eax

; 1028 :             return (PMC_STATUS_OK);

  00060	33 c0		 xor	 eax, eax

; 1033 :         }
; 1034 :     }

  00062	8b 4d f4	 mov	 ecx, DWORD PTR __$EHRec$[ebp+4]
  00065	64 89 0d 00 00
	00 00		 mov	 DWORD PTR fs:0, ecx
  0006c	59		 pop	 ecx
  0006d	5f		 pop	 edi
  0006e	5e		 pop	 esi
  0006f	5b		 pop	 ebx
  00070	8b e5		 mov	 esp, ebp
  00072	5d		 pop	 ebp
  00073	c2 10 00	 ret	 16			; 00000010H
__catch$_PMCCS_Compare_X_L@16$0:
; File z:\sources\lunor\repos\rougemeilland\palmtree.math.core.uint\palmtree.math.core.uint\pmc_exception.h

; 75   :             return (_code);

  00076	8b 45 ec	 mov	 eax, DWORD PTR _ex$2[ebp]
  00079	8b 40 0c	 mov	 eax, DWORD PTR [eax+12]
  0007c	89 45 14	 mov	 DWORD PTR $T3[ebp], eax
; File z:\sources\lunor\repos\rougemeilland\palmtree.math.core.uint\palmtree.math.core.uint\pmc_interface_csharp.cpp

; 1032 :             return (ex.GetStatusCode());

  0007f	b8 00 00 00 00	 mov	 eax, $LN8@PMCCS_Comp
  00084	c3		 ret	 0
$LN8@PMCCS_Comp:
; File z:\sources\lunor\repos\rougemeilland\palmtree.math.core.uint\palmtree.math.core.uint\pmc_exception.h
  00085	c7 45 fc ff ff
	ff ff		 mov	 DWORD PTR __$EHRec$[ebp+12], -1
; File z:\sources\lunor\repos\rougemeilland\palmtree.math.core.uint\palmtree.math.core.uint\pmc_interface_csharp.cpp

; 1032 :             return (ex.GetStatusCode());

  0008c	8b 45 14	 mov	 eax, DWORD PTR $T3[ebp]

; 1033 :         }
; 1034 :     }

  0008f	8b 4d f4	 mov	 ecx, DWORD PTR __$EHRec$[ebp+4]
  00092	64 89 0d 00 00
	00 00		 mov	 DWORD PTR fs:0, ecx
  00099	59		 pop	 ecx
  0009a	5f		 pop	 edi
  0009b	5e		 pop	 esi
  0009c	5b		 pop	 ebx
  0009d	8b e5		 mov	 esp, ebp
  0009f	5d		 pop	 ebp
  000a0	c2 10 00	 ret	 16			; 00000010H
_TEXT	ENDS
;	COMDAT text$x
text$x	SEGMENT
__ehhandler$_PMCCS_Compare_X_L@16:
  00000	8b 54 24 08	 mov	 edx, DWORD PTR [esp+8]
  00004	8d 42 0c	 lea	 eax, DWORD PTR [edx+12]
  00007	8b 4a e8	 mov	 ecx, DWORD PTR [edx-24]
  0000a	33 c8		 xor	 ecx, eax
  0000c	e8 00 00 00 00	 call	 @__security_check_cookie@4
  00011	b8 00 00 00 00	 mov	 eax, OFFSET __ehfuncinfo$_PMCCS_Compare_X_L@16
  00016	e9 00 00 00 00	 jmp	 ___CxxFrameHandler3
text$x	ENDS
_PMCCS_Compare_X_L@16 ENDP
; Function compile flags: /Ogtp
; File z:\sources\lunor\repos\rougemeilland\palmtree.math.core.uint\palmtree.math.core.uint\pmc_interface_csharp.cpp
; File z:\sources\lunor\repos\rougemeilland\palmtree.math.core.uint\palmtree.math.core.uint\pmc_exception.h
; File z:\sources\lunor\repos\rougemeilland\palmtree.math.core.uint\palmtree.math.core.uint\pmc_interface_csharp.cpp
;	COMDAT _PMCCS_Compare_X_I@12
_TEXT	SEGMENT
_ex$2 = -20						; size = 4
__$EHRec$ = -16						; size = 16
_u$ = 8							; size = 4
_v$ = 12						; size = 4
$T3 = 16						; size = 4
_w$ = 16						; size = 4
_PMCCS_Compare_X_I@12 PROC				; COMDAT

; 1007 :     {

  00000	55		 push	 ebp
  00001	8b ec		 mov	 ebp, esp
  00003	6a ff		 push	 -1
  00005	68 00 00 00 00	 push	 __ehhandler$_PMCCS_Compare_X_I@12
  0000a	64 a1 00 00 00
	00		 mov	 eax, DWORD PTR fs:0
  00010	50		 push	 eax
  00011	83 ec 08	 sub	 esp, 8
  00014	53		 push	 ebx
  00015	56		 push	 esi
  00016	57		 push	 edi
  00017	a1 00 00 00 00	 mov	 eax, DWORD PTR ___security_cookie
  0001c	33 c5		 xor	 eax, ebp
  0001e	50		 push	 eax
  0001f	8d 45 f4	 lea	 eax, DWORD PTR __$EHRec$[ebp+4]
  00022	64 a3 00 00 00
	00		 mov	 DWORD PTR fs:0, eax
  00028	89 65 f0	 mov	 DWORD PTR __$EHRec$[ebp], esp

; 1008 :         if (w == nullptr)

  0002b	8b 75 10	 mov	 esi, DWORD PTR _w$[ebp]
  0002e	85 f6		 test	 esi, esi
  00030	75 17		 jne	 SHORT $LN2@PMCCS_Comp

; 1009 :             return (PMC_STATUS_ARGUMENT_NULL_ERROR);

  00032	8d 46 fe	 lea	 eax, DWORD PTR [esi-2]

; 1018 :         }
; 1019 :     }

  00035	8b 4d f4	 mov	 ecx, DWORD PTR __$EHRec$[ebp+4]
  00038	64 89 0d 00 00
	00 00		 mov	 DWORD PTR fs:0, ecx
  0003f	59		 pop	 ecx
  00040	5f		 pop	 edi
  00041	5e		 pop	 esi
  00042	5b		 pop	 ebx
  00043	8b e5		 mov	 esp, ebp
  00045	5d		 pop	 ebp
  00046	c2 0c 00	 ret	 12			; 0000000cH
$LN2@PMCCS_Comp:

; 1010 :         try

  00049	c7 45 fc 00 00
	00 00		 mov	 DWORD PTR __$EHRec$[ebp+12], 0

; 1011 :         {
; 1012 :             *w = PMC_Compare_X_I(u, v);

  00050	ff 75 0c	 push	 DWORD PTR _v$[ebp]
  00053	ff 75 08	 push	 DWORD PTR _u$[ebp]
  00056	e8 00 00 00 00	 call	 ?PMC_Compare_X_I@Internal@Core@Math@Palmtree@@YGHPAU__tag_PMC_HANDLE_UINT@1234@I@Z ; Palmtree::Math::Core::Internal::PMC_Compare_X_I
  0005b	89 06		 mov	 DWORD PTR [esi], eax

; 1013 :             return (PMC_STATUS_OK);

  0005d	33 c0		 xor	 eax, eax

; 1018 :         }
; 1019 :     }

  0005f	8b 4d f4	 mov	 ecx, DWORD PTR __$EHRec$[ebp+4]
  00062	64 89 0d 00 00
	00 00		 mov	 DWORD PTR fs:0, ecx
  00069	59		 pop	 ecx
  0006a	5f		 pop	 edi
  0006b	5e		 pop	 esi
  0006c	5b		 pop	 ebx
  0006d	8b e5		 mov	 esp, ebp
  0006f	5d		 pop	 ebp
  00070	c2 0c 00	 ret	 12			; 0000000cH
__catch$_PMCCS_Compare_X_I@12$0:
; File z:\sources\lunor\repos\rougemeilland\palmtree.math.core.uint\palmtree.math.core.uint\pmc_exception.h

; 75   :             return (_code);

  00073	8b 45 ec	 mov	 eax, DWORD PTR _ex$2[ebp]
  00076	8b 40 0c	 mov	 eax, DWORD PTR [eax+12]
  00079	89 45 10	 mov	 DWORD PTR $T3[ebp], eax
; File z:\sources\lunor\repos\rougemeilland\palmtree.math.core.uint\palmtree.math.core.uint\pmc_interface_csharp.cpp

; 1017 :             return (ex.GetStatusCode());

  0007c	b8 00 00 00 00	 mov	 eax, $LN8@PMCCS_Comp
  00081	c3		 ret	 0
$LN8@PMCCS_Comp:
; File z:\sources\lunor\repos\rougemeilland\palmtree.math.core.uint\palmtree.math.core.uint\pmc_exception.h
  00082	c7 45 fc ff ff
	ff ff		 mov	 DWORD PTR __$EHRec$[ebp+12], -1
; File z:\sources\lunor\repos\rougemeilland\palmtree.math.core.uint\palmtree.math.core.uint\pmc_interface_csharp.cpp

; 1017 :             return (ex.GetStatusCode());

  00089	8b 45 10	 mov	 eax, DWORD PTR $T3[ebp]

; 1018 :         }
; 1019 :     }

  0008c	8b 4d f4	 mov	 ecx, DWORD PTR __$EHRec$[ebp+4]
  0008f	64 89 0d 00 00
	00 00		 mov	 DWORD PTR fs:0, ecx
  00096	59		 pop	 ecx
  00097	5f		 pop	 edi
  00098	5e		 pop	 esi
  00099	5b		 pop	 ebx
  0009a	8b e5		 mov	 esp, ebp
  0009c	5d		 pop	 ebp
  0009d	c2 0c 00	 ret	 12			; 0000000cH
_TEXT	ENDS
;	COMDAT text$x
text$x	SEGMENT
__ehhandler$_PMCCS_Compare_X_I@12:
  00000	8b 54 24 08	 mov	 edx, DWORD PTR [esp+8]
  00004	8d 42 0c	 lea	 eax, DWORD PTR [edx+12]
  00007	8b 4a e8	 mov	 ecx, DWORD PTR [edx-24]
  0000a	33 c8		 xor	 ecx, eax
  0000c	e8 00 00 00 00	 call	 @__security_check_cookie@4
  00011	b8 00 00 00 00	 mov	 eax, OFFSET __ehfuncinfo$_PMCCS_Compare_X_I@12
  00016	e9 00 00 00 00	 jmp	 ___CxxFrameHandler3
text$x	ENDS
_PMCCS_Compare_X_I@12 ENDP
; Function compile flags: /Ogtp
; File z:\sources\lunor\repos\rougemeilland\palmtree.math.core.uint\palmtree.math.core.uint\pmc_interface_csharp.cpp
; File z:\sources\lunor\repos\rougemeilland\palmtree.math.core.uint\palmtree.math.core.uint\pmc_exception.h
; File z:\sources\lunor\repos\rougemeilland\palmtree.math.core.uint\palmtree.math.core.uint\pmc_interface_csharp.cpp
;	COMDAT _PMCCS_Compare_L_X@16
_TEXT	SEGMENT
_ex$2 = -20						; size = 4
__$EHRec$ = -16						; size = 16
_u$ = 8							; size = 8
_v$ = 16						; size = 4
$T3 = 20						; size = 4
_w$ = 20						; size = 4
_PMCCS_Compare_L_X@16 PROC				; COMDAT

; 992  :     {

  00000	55		 push	 ebp
  00001	8b ec		 mov	 ebp, esp
  00003	6a ff		 push	 -1
  00005	68 00 00 00 00	 push	 __ehhandler$_PMCCS_Compare_L_X@16
  0000a	64 a1 00 00 00
	00		 mov	 eax, DWORD PTR fs:0
  00010	50		 push	 eax
  00011	83 ec 08	 sub	 esp, 8
  00014	53		 push	 ebx
  00015	56		 push	 esi
  00016	57		 push	 edi
  00017	a1 00 00 00 00	 mov	 eax, DWORD PTR ___security_cookie
  0001c	33 c5		 xor	 eax, ebp
  0001e	50		 push	 eax
  0001f	8d 45 f4	 lea	 eax, DWORD PTR __$EHRec$[ebp+4]
  00022	64 a3 00 00 00
	00		 mov	 DWORD PTR fs:0, eax
  00028	89 65 f0	 mov	 DWORD PTR __$EHRec$[ebp], esp

; 993  :         if (w == nullptr)

  0002b	8b 75 14	 mov	 esi, DWORD PTR _w$[ebp]
  0002e	85 f6		 test	 esi, esi
  00030	75 17		 jne	 SHORT $LN2@PMCCS_Comp

; 994  :             return (PMC_STATUS_ARGUMENT_NULL_ERROR);

  00032	8d 46 fe	 lea	 eax, DWORD PTR [esi-2]

; 1003 :         }
; 1004 :     }

  00035	8b 4d f4	 mov	 ecx, DWORD PTR __$EHRec$[ebp+4]
  00038	64 89 0d 00 00
	00 00		 mov	 DWORD PTR fs:0, ecx
  0003f	59		 pop	 ecx
  00040	5f		 pop	 edi
  00041	5e		 pop	 esi
  00042	5b		 pop	 ebx
  00043	8b e5		 mov	 esp, ebp
  00045	5d		 pop	 ebp
  00046	c2 10 00	 ret	 16			; 00000010H
$LN2@PMCCS_Comp:

; 995  :         try

  00049	c7 45 fc 00 00
	00 00		 mov	 DWORD PTR __$EHRec$[ebp+12], 0

; 996  :         {
; 997  :             *w = PMC_Compare_L_X(u, v);

  00050	ff 75 10	 push	 DWORD PTR _v$[ebp]
  00053	ff 75 0c	 push	 DWORD PTR _u$[ebp+4]
  00056	ff 75 08	 push	 DWORD PTR _u$[ebp]
  00059	e8 00 00 00 00	 call	 ?PMC_Compare_L_X@Internal@Core@Math@Palmtree@@YGH_KPAU__tag_PMC_HANDLE_UINT@1234@@Z ; Palmtree::Math::Core::Internal::PMC_Compare_L_X
  0005e	89 06		 mov	 DWORD PTR [esi], eax

; 998  :             return (PMC_STATUS_OK);

  00060	33 c0		 xor	 eax, eax

; 1003 :         }
; 1004 :     }

  00062	8b 4d f4	 mov	 ecx, DWORD PTR __$EHRec$[ebp+4]
  00065	64 89 0d 00 00
	00 00		 mov	 DWORD PTR fs:0, ecx
  0006c	59		 pop	 ecx
  0006d	5f		 pop	 edi
  0006e	5e		 pop	 esi
  0006f	5b		 pop	 ebx
  00070	8b e5		 mov	 esp, ebp
  00072	5d		 pop	 ebp
  00073	c2 10 00	 ret	 16			; 00000010H
__catch$_PMCCS_Compare_L_X@16$0:
; File z:\sources\lunor\repos\rougemeilland\palmtree.math.core.uint\palmtree.math.core.uint\pmc_exception.h

; 75   :             return (_code);

  00076	8b 45 ec	 mov	 eax, DWORD PTR _ex$2[ebp]
  00079	8b 40 0c	 mov	 eax, DWORD PTR [eax+12]
  0007c	89 45 14	 mov	 DWORD PTR $T3[ebp], eax
; File z:\sources\lunor\repos\rougemeilland\palmtree.math.core.uint\palmtree.math.core.uint\pmc_interface_csharp.cpp

; 1002 :             return (ex.GetStatusCode());

  0007f	b8 00 00 00 00	 mov	 eax, $LN8@PMCCS_Comp
  00084	c3		 ret	 0
$LN8@PMCCS_Comp:
; File z:\sources\lunor\repos\rougemeilland\palmtree.math.core.uint\palmtree.math.core.uint\pmc_exception.h
  00085	c7 45 fc ff ff
	ff ff		 mov	 DWORD PTR __$EHRec$[ebp+12], -1
; File z:\sources\lunor\repos\rougemeilland\palmtree.math.core.uint\palmtree.math.core.uint\pmc_interface_csharp.cpp

; 1002 :             return (ex.GetStatusCode());

  0008c	8b 45 14	 mov	 eax, DWORD PTR $T3[ebp]

; 1003 :         }
; 1004 :     }

  0008f	8b 4d f4	 mov	 ecx, DWORD PTR __$EHRec$[ebp+4]
  00092	64 89 0d 00 00
	00 00		 mov	 DWORD PTR fs:0, ecx
  00099	59		 pop	 ecx
  0009a	5f		 pop	 edi
  0009b	5e		 pop	 esi
  0009c	5b		 pop	 ebx
  0009d	8b e5		 mov	 esp, ebp
  0009f	5d		 pop	 ebp
  000a0	c2 10 00	 ret	 16			; 00000010H
_TEXT	ENDS
;	COMDAT text$x
text$x	SEGMENT
__ehhandler$_PMCCS_Compare_L_X@16:
  00000	8b 54 24 08	 mov	 edx, DWORD PTR [esp+8]
  00004	8d 42 0c	 lea	 eax, DWORD PTR [edx+12]
  00007	8b 4a e8	 mov	 ecx, DWORD PTR [edx-24]
  0000a	33 c8		 xor	 ecx, eax
  0000c	e8 00 00 00 00	 call	 @__security_check_cookie@4
  00011	b8 00 00 00 00	 mov	 eax, OFFSET __ehfuncinfo$_PMCCS_Compare_L_X@16
  00016	e9 00 00 00 00	 jmp	 ___CxxFrameHandler3
text$x	ENDS
_PMCCS_Compare_L_X@16 ENDP
; Function compile flags: /Ogtp
; File z:\sources\lunor\repos\rougemeilland\palmtree.math.core.uint\palmtree.math.core.uint\pmc_interface_csharp.cpp
; File z:\sources\lunor\repos\rougemeilland\palmtree.math.core.uint\palmtree.math.core.uint\pmc_exception.h
; File z:\sources\lunor\repos\rougemeilland\palmtree.math.core.uint\palmtree.math.core.uint\pmc_interface_csharp.cpp
;	COMDAT _PMCCS_Compare_I_X@12
_TEXT	SEGMENT
_ex$2 = -20						; size = 4
__$EHRec$ = -16						; size = 16
_u$ = 8							; size = 4
_v$ = 12						; size = 4
$T3 = 16						; size = 4
_w$ = 16						; size = 4
_PMCCS_Compare_I_X@12 PROC				; COMDAT

; 977  :     {

  00000	55		 push	 ebp
  00001	8b ec		 mov	 ebp, esp
  00003	6a ff		 push	 -1
  00005	68 00 00 00 00	 push	 __ehhandler$_PMCCS_Compare_I_X@12
  0000a	64 a1 00 00 00
	00		 mov	 eax, DWORD PTR fs:0
  00010	50		 push	 eax
  00011	83 ec 08	 sub	 esp, 8
  00014	53		 push	 ebx
  00015	56		 push	 esi
  00016	57		 push	 edi
  00017	a1 00 00 00 00	 mov	 eax, DWORD PTR ___security_cookie
  0001c	33 c5		 xor	 eax, ebp
  0001e	50		 push	 eax
  0001f	8d 45 f4	 lea	 eax, DWORD PTR __$EHRec$[ebp+4]
  00022	64 a3 00 00 00
	00		 mov	 DWORD PTR fs:0, eax
  00028	89 65 f0	 mov	 DWORD PTR __$EHRec$[ebp], esp

; 978  :         if (w == nullptr)

  0002b	8b 75 10	 mov	 esi, DWORD PTR _w$[ebp]
  0002e	85 f6		 test	 esi, esi
  00030	75 17		 jne	 SHORT $LN2@PMCCS_Comp

; 979  :             return (PMC_STATUS_ARGUMENT_NULL_ERROR);

  00032	8d 46 fe	 lea	 eax, DWORD PTR [esi-2]

; 988  :         }
; 989  :     }

  00035	8b 4d f4	 mov	 ecx, DWORD PTR __$EHRec$[ebp+4]
  00038	64 89 0d 00 00
	00 00		 mov	 DWORD PTR fs:0, ecx
  0003f	59		 pop	 ecx
  00040	5f		 pop	 edi
  00041	5e		 pop	 esi
  00042	5b		 pop	 ebx
  00043	8b e5		 mov	 esp, ebp
  00045	5d		 pop	 ebp
  00046	c2 0c 00	 ret	 12			; 0000000cH
$LN2@PMCCS_Comp:

; 980  :         try

  00049	c7 45 fc 00 00
	00 00		 mov	 DWORD PTR __$EHRec$[ebp+12], 0

; 981  :         {
; 982  :             *w = PMC_Compare_I_X(u, v);

  00050	ff 75 0c	 push	 DWORD PTR _v$[ebp]
  00053	ff 75 08	 push	 DWORD PTR _u$[ebp]
  00056	e8 00 00 00 00	 call	 ?PMC_Compare_I_X@Internal@Core@Math@Palmtree@@YGHIPAU__tag_PMC_HANDLE_UINT@1234@@Z ; Palmtree::Math::Core::Internal::PMC_Compare_I_X
  0005b	89 06		 mov	 DWORD PTR [esi], eax

; 983  :             return (PMC_STATUS_OK);

  0005d	33 c0		 xor	 eax, eax

; 988  :         }
; 989  :     }

  0005f	8b 4d f4	 mov	 ecx, DWORD PTR __$EHRec$[ebp+4]
  00062	64 89 0d 00 00
	00 00		 mov	 DWORD PTR fs:0, ecx
  00069	59		 pop	 ecx
  0006a	5f		 pop	 edi
  0006b	5e		 pop	 esi
  0006c	5b		 pop	 ebx
  0006d	8b e5		 mov	 esp, ebp
  0006f	5d		 pop	 ebp
  00070	c2 0c 00	 ret	 12			; 0000000cH
__catch$_PMCCS_Compare_I_X@12$0:
; File z:\sources\lunor\repos\rougemeilland\palmtree.math.core.uint\palmtree.math.core.uint\pmc_exception.h

; 75   :             return (_code);

  00073	8b 45 ec	 mov	 eax, DWORD PTR _ex$2[ebp]
  00076	8b 40 0c	 mov	 eax, DWORD PTR [eax+12]
  00079	89 45 10	 mov	 DWORD PTR $T3[ebp], eax
; File z:\sources\lunor\repos\rougemeilland\palmtree.math.core.uint\palmtree.math.core.uint\pmc_interface_csharp.cpp

; 987  :             return (ex.GetStatusCode());

  0007c	b8 00 00 00 00	 mov	 eax, $LN8@PMCCS_Comp
  00081	c3		 ret	 0
$LN8@PMCCS_Comp:
; File z:\sources\lunor\repos\rougemeilland\palmtree.math.core.uint\palmtree.math.core.uint\pmc_exception.h
  00082	c7 45 fc ff ff
	ff ff		 mov	 DWORD PTR __$EHRec$[ebp+12], -1
; File z:\sources\lunor\repos\rougemeilland\palmtree.math.core.uint\palmtree.math.core.uint\pmc_interface_csharp.cpp

; 987  :             return (ex.GetStatusCode());

  00089	8b 45 10	 mov	 eax, DWORD PTR $T3[ebp]

; 988  :         }
; 989  :     }

  0008c	8b 4d f4	 mov	 ecx, DWORD PTR __$EHRec$[ebp+4]
  0008f	64 89 0d 00 00
	00 00		 mov	 DWORD PTR fs:0, ecx
  00096	59		 pop	 ecx
  00097	5f		 pop	 edi
  00098	5e		 pop	 esi
  00099	5b		 pop	 ebx
  0009a	8b e5		 mov	 esp, ebp
  0009c	5d		 pop	 ebp
  0009d	c2 0c 00	 ret	 12			; 0000000cH
_TEXT	ENDS
;	COMDAT text$x
text$x	SEGMENT
__ehhandler$_PMCCS_Compare_I_X@12:
  00000	8b 54 24 08	 mov	 edx, DWORD PTR [esp+8]
  00004	8d 42 0c	 lea	 eax, DWORD PTR [edx+12]
  00007	8b 4a e8	 mov	 ecx, DWORD PTR [edx-24]
  0000a	33 c8		 xor	 ecx, eax
  0000c	e8 00 00 00 00	 call	 @__security_check_cookie@4
  00011	b8 00 00 00 00	 mov	 eax, OFFSET __ehfuncinfo$_PMCCS_Compare_I_X@12
  00016	e9 00 00 00 00	 jmp	 ___CxxFrameHandler3
text$x	ENDS
_PMCCS_Compare_I_X@12 ENDP
; Function compile flags: /Ogtp
; File z:\sources\lunor\repos\rougemeilland\palmtree.math.core.uint\palmtree.math.core.uint\pmc_interface_csharp.cpp
; File z:\sources\lunor\repos\rougemeilland\palmtree.math.core.uint\palmtree.math.core.uint\pmc_exception.h
; File z:\sources\lunor\repos\rougemeilland\palmtree.math.core.uint\palmtree.math.core.uint\pmc_interface_csharp.cpp
;	COMDAT _PMCCS_ExclusiveOr_X_X@12
_TEXT	SEGMENT
_ex$2 = -20						; size = 4
__$EHRec$ = -16						; size = 16
_u$ = 8							; size = 4
_v$ = 12						; size = 4
$T3 = 16						; size = 4
_w$ = 16						; size = 4
_PMCCS_ExclusiveOr_X_X@12 PROC				; COMDAT

; 962  :     {

  00000	55		 push	 ebp
  00001	8b ec		 mov	 ebp, esp
  00003	6a ff		 push	 -1
  00005	68 00 00 00 00	 push	 __ehhandler$_PMCCS_ExclusiveOr_X_X@12
  0000a	64 a1 00 00 00
	00		 mov	 eax, DWORD PTR fs:0
  00010	50		 push	 eax
  00011	83 ec 08	 sub	 esp, 8
  00014	53		 push	 ebx
  00015	56		 push	 esi
  00016	57		 push	 edi
  00017	a1 00 00 00 00	 mov	 eax, DWORD PTR ___security_cookie
  0001c	33 c5		 xor	 eax, ebp
  0001e	50		 push	 eax
  0001f	8d 45 f4	 lea	 eax, DWORD PTR __$EHRec$[ebp+4]
  00022	64 a3 00 00 00
	00		 mov	 DWORD PTR fs:0, eax
  00028	89 65 f0	 mov	 DWORD PTR __$EHRec$[ebp], esp

; 963  :         if (w == nullptr)

  0002b	8b 75 10	 mov	 esi, DWORD PTR _w$[ebp]
  0002e	85 f6		 test	 esi, esi
  00030	75 17		 jne	 SHORT $LN2@PMCCS_Excl

; 964  :             return (PMC_STATUS_ARGUMENT_NULL_ERROR);

  00032	8d 46 fe	 lea	 eax, DWORD PTR [esi-2]

; 973  :         }
; 974  :     }

  00035	8b 4d f4	 mov	 ecx, DWORD PTR __$EHRec$[ebp+4]
  00038	64 89 0d 00 00
	00 00		 mov	 DWORD PTR fs:0, ecx
  0003f	59		 pop	 ecx
  00040	5f		 pop	 edi
  00041	5e		 pop	 esi
  00042	5b		 pop	 ebx
  00043	8b e5		 mov	 esp, ebp
  00045	5d		 pop	 ebp
  00046	c2 0c 00	 ret	 12			; 0000000cH
$LN2@PMCCS_Excl:

; 965  :         try

  00049	c7 45 fc 00 00
	00 00		 mov	 DWORD PTR __$EHRec$[ebp+12], 0

; 966  :         {
; 967  :             *w = PMC_ExclusiveOr_X_X(u, v);

  00050	ff 75 0c	 push	 DWORD PTR _v$[ebp]
  00053	ff 75 08	 push	 DWORD PTR _u$[ebp]
  00056	e8 00 00 00 00	 call	 ?PMC_ExclusiveOr_X_X@Internal@Core@Math@Palmtree@@YGPAU__tag_PMC_HANDLE_UINT@1234@PAU51234@0@Z ; Palmtree::Math::Core::Internal::PMC_ExclusiveOr_X_X
  0005b	89 06		 mov	 DWORD PTR [esi], eax

; 968  :             return (PMC_STATUS_OK);

  0005d	33 c0		 xor	 eax, eax

; 973  :         }
; 974  :     }

  0005f	8b 4d f4	 mov	 ecx, DWORD PTR __$EHRec$[ebp+4]
  00062	64 89 0d 00 00
	00 00		 mov	 DWORD PTR fs:0, ecx
  00069	59		 pop	 ecx
  0006a	5f		 pop	 edi
  0006b	5e		 pop	 esi
  0006c	5b		 pop	 ebx
  0006d	8b e5		 mov	 esp, ebp
  0006f	5d		 pop	 ebp
  00070	c2 0c 00	 ret	 12			; 0000000cH
__catch$_PMCCS_ExclusiveOr_X_X@12$0:
; File z:\sources\lunor\repos\rougemeilland\palmtree.math.core.uint\palmtree.math.core.uint\pmc_exception.h

; 75   :             return (_code);

  00073	8b 45 ec	 mov	 eax, DWORD PTR _ex$2[ebp]
  00076	8b 40 0c	 mov	 eax, DWORD PTR [eax+12]
  00079	89 45 10	 mov	 DWORD PTR $T3[ebp], eax
; File z:\sources\lunor\repos\rougemeilland\palmtree.math.core.uint\palmtree.math.core.uint\pmc_interface_csharp.cpp

; 972  :             return (ex.GetStatusCode());

  0007c	b8 00 00 00 00	 mov	 eax, $LN8@PMCCS_Excl
  00081	c3		 ret	 0
$LN8@PMCCS_Excl:
; File z:\sources\lunor\repos\rougemeilland\palmtree.math.core.uint\palmtree.math.core.uint\pmc_exception.h
  00082	c7 45 fc ff ff
	ff ff		 mov	 DWORD PTR __$EHRec$[ebp+12], -1
; File z:\sources\lunor\repos\rougemeilland\palmtree.math.core.uint\palmtree.math.core.uint\pmc_interface_csharp.cpp

; 972  :             return (ex.GetStatusCode());

  00089	8b 45 10	 mov	 eax, DWORD PTR $T3[ebp]

; 973  :         }
; 974  :     }

  0008c	8b 4d f4	 mov	 ecx, DWORD PTR __$EHRec$[ebp+4]
  0008f	64 89 0d 00 00
	00 00		 mov	 DWORD PTR fs:0, ecx
  00096	59		 pop	 ecx
  00097	5f		 pop	 edi
  00098	5e		 pop	 esi
  00099	5b		 pop	 ebx
  0009a	8b e5		 mov	 esp, ebp
  0009c	5d		 pop	 ebp
  0009d	c2 0c 00	 ret	 12			; 0000000cH
_TEXT	ENDS
;	COMDAT text$x
text$x	SEGMENT
__ehhandler$_PMCCS_ExclusiveOr_X_X@12:
  00000	8b 54 24 08	 mov	 edx, DWORD PTR [esp+8]
  00004	8d 42 0c	 lea	 eax, DWORD PTR [edx+12]
  00007	8b 4a e8	 mov	 ecx, DWORD PTR [edx-24]
  0000a	33 c8		 xor	 ecx, eax
  0000c	e8 00 00 00 00	 call	 @__security_check_cookie@4
  00011	b8 00 00 00 00	 mov	 eax, OFFSET __ehfuncinfo$_PMCCS_ExclusiveOr_X_X@12
  00016	e9 00 00 00 00	 jmp	 ___CxxFrameHandler3
text$x	ENDS
_PMCCS_ExclusiveOr_X_X@12 ENDP
; Function compile flags: /Ogtp
; File z:\sources\lunor\repos\rougemeilland\palmtree.math.core.uint\palmtree.math.core.uint\pmc_interface_csharp.cpp
; File z:\sources\lunor\repos\rougemeilland\palmtree.math.core.uint\palmtree.math.core.uint\pmc_exception.h
; File z:\sources\lunor\repos\rougemeilland\palmtree.math.core.uint\palmtree.math.core.uint\pmc_interface_csharp.cpp
;	COMDAT _PMCCS_ExclusiveOr_X_L@16
_TEXT	SEGMENT
_ex$2 = -20						; size = 4
__$EHRec$ = -16						; size = 16
_u$ = 8							; size = 4
_v$ = 12						; size = 8
$T3 = 20						; size = 4
_w$ = 20						; size = 4
_PMCCS_ExclusiveOr_X_L@16 PROC				; COMDAT

; 947  :     {

  00000	55		 push	 ebp
  00001	8b ec		 mov	 ebp, esp
  00003	6a ff		 push	 -1
  00005	68 00 00 00 00	 push	 __ehhandler$_PMCCS_ExclusiveOr_X_L@16
  0000a	64 a1 00 00 00
	00		 mov	 eax, DWORD PTR fs:0
  00010	50		 push	 eax
  00011	83 ec 08	 sub	 esp, 8
  00014	53		 push	 ebx
  00015	56		 push	 esi
  00016	57		 push	 edi
  00017	a1 00 00 00 00	 mov	 eax, DWORD PTR ___security_cookie
  0001c	33 c5		 xor	 eax, ebp
  0001e	50		 push	 eax
  0001f	8d 45 f4	 lea	 eax, DWORD PTR __$EHRec$[ebp+4]
  00022	64 a3 00 00 00
	00		 mov	 DWORD PTR fs:0, eax
  00028	89 65 f0	 mov	 DWORD PTR __$EHRec$[ebp], esp

; 948  :         if (w == nullptr)

  0002b	8b 75 14	 mov	 esi, DWORD PTR _w$[ebp]
  0002e	85 f6		 test	 esi, esi
  00030	75 17		 jne	 SHORT $LN2@PMCCS_Excl

; 949  :             return (PMC_STATUS_ARGUMENT_NULL_ERROR);

  00032	8d 46 fe	 lea	 eax, DWORD PTR [esi-2]

; 958  :         }
; 959  :     }

  00035	8b 4d f4	 mov	 ecx, DWORD PTR __$EHRec$[ebp+4]
  00038	64 89 0d 00 00
	00 00		 mov	 DWORD PTR fs:0, ecx
  0003f	59		 pop	 ecx
  00040	5f		 pop	 edi
  00041	5e		 pop	 esi
  00042	5b		 pop	 ebx
  00043	8b e5		 mov	 esp, ebp
  00045	5d		 pop	 ebp
  00046	c2 10 00	 ret	 16			; 00000010H
$LN2@PMCCS_Excl:

; 950  :         try

  00049	c7 45 fc 00 00
	00 00		 mov	 DWORD PTR __$EHRec$[ebp+12], 0

; 951  :         {
; 952  :             *w = PMC_ExclusiveOr_X_L(u, v);

  00050	ff 75 10	 push	 DWORD PTR _v$[ebp+4]
  00053	ff 75 0c	 push	 DWORD PTR _v$[ebp]
  00056	ff 75 08	 push	 DWORD PTR _u$[ebp]
  00059	e8 00 00 00 00	 call	 ?PMC_ExclusiveOr_X_L@Internal@Core@Math@Palmtree@@YGPAU__tag_PMC_HANDLE_UINT@1234@PAU51234@_K@Z ; Palmtree::Math::Core::Internal::PMC_ExclusiveOr_X_L
  0005e	89 06		 mov	 DWORD PTR [esi], eax

; 953  :             return (PMC_STATUS_OK);

  00060	33 c0		 xor	 eax, eax

; 958  :         }
; 959  :     }

  00062	8b 4d f4	 mov	 ecx, DWORD PTR __$EHRec$[ebp+4]
  00065	64 89 0d 00 00
	00 00		 mov	 DWORD PTR fs:0, ecx
  0006c	59		 pop	 ecx
  0006d	5f		 pop	 edi
  0006e	5e		 pop	 esi
  0006f	5b		 pop	 ebx
  00070	8b e5		 mov	 esp, ebp
  00072	5d		 pop	 ebp
  00073	c2 10 00	 ret	 16			; 00000010H
__catch$_PMCCS_ExclusiveOr_X_L@16$0:
; File z:\sources\lunor\repos\rougemeilland\palmtree.math.core.uint\palmtree.math.core.uint\pmc_exception.h

; 75   :             return (_code);

  00076	8b 45 ec	 mov	 eax, DWORD PTR _ex$2[ebp]
  00079	8b 40 0c	 mov	 eax, DWORD PTR [eax+12]
  0007c	89 45 14	 mov	 DWORD PTR $T3[ebp], eax
; File z:\sources\lunor\repos\rougemeilland\palmtree.math.core.uint\palmtree.math.core.uint\pmc_interface_csharp.cpp

; 957  :             return (ex.GetStatusCode());

  0007f	b8 00 00 00 00	 mov	 eax, $LN8@PMCCS_Excl
  00084	c3		 ret	 0
$LN8@PMCCS_Excl:
; File z:\sources\lunor\repos\rougemeilland\palmtree.math.core.uint\palmtree.math.core.uint\pmc_exception.h
  00085	c7 45 fc ff ff
	ff ff		 mov	 DWORD PTR __$EHRec$[ebp+12], -1
; File z:\sources\lunor\repos\rougemeilland\palmtree.math.core.uint\palmtree.math.core.uint\pmc_interface_csharp.cpp

; 957  :             return (ex.GetStatusCode());

  0008c	8b 45 14	 mov	 eax, DWORD PTR $T3[ebp]

; 958  :         }
; 959  :     }

  0008f	8b 4d f4	 mov	 ecx, DWORD PTR __$EHRec$[ebp+4]
  00092	64 89 0d 00 00
	00 00		 mov	 DWORD PTR fs:0, ecx
  00099	59		 pop	 ecx
  0009a	5f		 pop	 edi
  0009b	5e		 pop	 esi
  0009c	5b		 pop	 ebx
  0009d	8b e5		 mov	 esp, ebp
  0009f	5d		 pop	 ebp
  000a0	c2 10 00	 ret	 16			; 00000010H
_TEXT	ENDS
;	COMDAT text$x
text$x	SEGMENT
__ehhandler$_PMCCS_ExclusiveOr_X_L@16:
  00000	8b 54 24 08	 mov	 edx, DWORD PTR [esp+8]
  00004	8d 42 0c	 lea	 eax, DWORD PTR [edx+12]
  00007	8b 4a e8	 mov	 ecx, DWORD PTR [edx-24]
  0000a	33 c8		 xor	 ecx, eax
  0000c	e8 00 00 00 00	 call	 @__security_check_cookie@4
  00011	b8 00 00 00 00	 mov	 eax, OFFSET __ehfuncinfo$_PMCCS_ExclusiveOr_X_L@16
  00016	e9 00 00 00 00	 jmp	 ___CxxFrameHandler3
text$x	ENDS
_PMCCS_ExclusiveOr_X_L@16 ENDP
; Function compile flags: /Ogtp
; File z:\sources\lunor\repos\rougemeilland\palmtree.math.core.uint\palmtree.math.core.uint\pmc_interface_csharp.cpp
; File z:\sources\lunor\repos\rougemeilland\palmtree.math.core.uint\palmtree.math.core.uint\pmc_exception.h
; File z:\sources\lunor\repos\rougemeilland\palmtree.math.core.uint\palmtree.math.core.uint\pmc_interface_csharp.cpp
;	COMDAT _PMCCS_ExclusiveOr_X_I@12
_TEXT	SEGMENT
_ex$2 = -20						; size = 4
__$EHRec$ = -16						; size = 16
_u$ = 8							; size = 4
_v$ = 12						; size = 4
$T3 = 16						; size = 4
_w$ = 16						; size = 4
_PMCCS_ExclusiveOr_X_I@12 PROC				; COMDAT

; 932  :     {

  00000	55		 push	 ebp
  00001	8b ec		 mov	 ebp, esp
  00003	6a ff		 push	 -1
  00005	68 00 00 00 00	 push	 __ehhandler$_PMCCS_ExclusiveOr_X_I@12
  0000a	64 a1 00 00 00
	00		 mov	 eax, DWORD PTR fs:0
  00010	50		 push	 eax
  00011	83 ec 08	 sub	 esp, 8
  00014	53		 push	 ebx
  00015	56		 push	 esi
  00016	57		 push	 edi
  00017	a1 00 00 00 00	 mov	 eax, DWORD PTR ___security_cookie
  0001c	33 c5		 xor	 eax, ebp
  0001e	50		 push	 eax
  0001f	8d 45 f4	 lea	 eax, DWORD PTR __$EHRec$[ebp+4]
  00022	64 a3 00 00 00
	00		 mov	 DWORD PTR fs:0, eax
  00028	89 65 f0	 mov	 DWORD PTR __$EHRec$[ebp], esp

; 933  :         if (w == nullptr)

  0002b	8b 75 10	 mov	 esi, DWORD PTR _w$[ebp]
  0002e	85 f6		 test	 esi, esi
  00030	75 17		 jne	 SHORT $LN2@PMCCS_Excl

; 934  :             return (PMC_STATUS_ARGUMENT_NULL_ERROR);

  00032	8d 46 fe	 lea	 eax, DWORD PTR [esi-2]

; 943  :         }
; 944  :     }

  00035	8b 4d f4	 mov	 ecx, DWORD PTR __$EHRec$[ebp+4]
  00038	64 89 0d 00 00
	00 00		 mov	 DWORD PTR fs:0, ecx
  0003f	59		 pop	 ecx
  00040	5f		 pop	 edi
  00041	5e		 pop	 esi
  00042	5b		 pop	 ebx
  00043	8b e5		 mov	 esp, ebp
  00045	5d		 pop	 ebp
  00046	c2 0c 00	 ret	 12			; 0000000cH
$LN2@PMCCS_Excl:

; 935  :         try

  00049	c7 45 fc 00 00
	00 00		 mov	 DWORD PTR __$EHRec$[ebp+12], 0

; 936  :         {
; 937  :             *w = PMC_ExclusiveOr_X_I(u, v);

  00050	ff 75 0c	 push	 DWORD PTR _v$[ebp]
  00053	ff 75 08	 push	 DWORD PTR _u$[ebp]
  00056	e8 00 00 00 00	 call	 ?PMC_ExclusiveOr_X_I@Internal@Core@Math@Palmtree@@YGPAU__tag_PMC_HANDLE_UINT@1234@PAU51234@I@Z ; Palmtree::Math::Core::Internal::PMC_ExclusiveOr_X_I
  0005b	89 06		 mov	 DWORD PTR [esi], eax

; 938  :             return (PMC_STATUS_OK);

  0005d	33 c0		 xor	 eax, eax

; 943  :         }
; 944  :     }

  0005f	8b 4d f4	 mov	 ecx, DWORD PTR __$EHRec$[ebp+4]
  00062	64 89 0d 00 00
	00 00		 mov	 DWORD PTR fs:0, ecx
  00069	59		 pop	 ecx
  0006a	5f		 pop	 edi
  0006b	5e		 pop	 esi
  0006c	5b		 pop	 ebx
  0006d	8b e5		 mov	 esp, ebp
  0006f	5d		 pop	 ebp
  00070	c2 0c 00	 ret	 12			; 0000000cH
__catch$_PMCCS_ExclusiveOr_X_I@12$0:
; File z:\sources\lunor\repos\rougemeilland\palmtree.math.core.uint\palmtree.math.core.uint\pmc_exception.h

; 75   :             return (_code);

  00073	8b 45 ec	 mov	 eax, DWORD PTR _ex$2[ebp]
  00076	8b 40 0c	 mov	 eax, DWORD PTR [eax+12]
  00079	89 45 10	 mov	 DWORD PTR $T3[ebp], eax
; File z:\sources\lunor\repos\rougemeilland\palmtree.math.core.uint\palmtree.math.core.uint\pmc_interface_csharp.cpp

; 942  :             return (ex.GetStatusCode());

  0007c	b8 00 00 00 00	 mov	 eax, $LN8@PMCCS_Excl
  00081	c3		 ret	 0
$LN8@PMCCS_Excl:
; File z:\sources\lunor\repos\rougemeilland\palmtree.math.core.uint\palmtree.math.core.uint\pmc_exception.h
  00082	c7 45 fc ff ff
	ff ff		 mov	 DWORD PTR __$EHRec$[ebp+12], -1
; File z:\sources\lunor\repos\rougemeilland\palmtree.math.core.uint\palmtree.math.core.uint\pmc_interface_csharp.cpp

; 942  :             return (ex.GetStatusCode());

  00089	8b 45 10	 mov	 eax, DWORD PTR $T3[ebp]

; 943  :         }
; 944  :     }

  0008c	8b 4d f4	 mov	 ecx, DWORD PTR __$EHRec$[ebp+4]
  0008f	64 89 0d 00 00
	00 00		 mov	 DWORD PTR fs:0, ecx
  00096	59		 pop	 ecx
  00097	5f		 pop	 edi
  00098	5e		 pop	 esi
  00099	5b		 pop	 ebx
  0009a	8b e5		 mov	 esp, ebp
  0009c	5d		 pop	 ebp
  0009d	c2 0c 00	 ret	 12			; 0000000cH
_TEXT	ENDS
;	COMDAT text$x
text$x	SEGMENT
__ehhandler$_PMCCS_ExclusiveOr_X_I@12:
  00000	8b 54 24 08	 mov	 edx, DWORD PTR [esp+8]
  00004	8d 42 0c	 lea	 eax, DWORD PTR [edx+12]
  00007	8b 4a e8	 mov	 ecx, DWORD PTR [edx-24]
  0000a	33 c8		 xor	 ecx, eax
  0000c	e8 00 00 00 00	 call	 @__security_check_cookie@4
  00011	b8 00 00 00 00	 mov	 eax, OFFSET __ehfuncinfo$_PMCCS_ExclusiveOr_X_I@12
  00016	e9 00 00 00 00	 jmp	 ___CxxFrameHandler3
text$x	ENDS
_PMCCS_ExclusiveOr_X_I@12 ENDP
; Function compile flags: /Ogtp
; File z:\sources\lunor\repos\rougemeilland\palmtree.math.core.uint\palmtree.math.core.uint\pmc_interface_csharp.cpp
; File z:\sources\lunor\repos\rougemeilland\palmtree.math.core.uint\palmtree.math.core.uint\pmc_exception.h
; File z:\sources\lunor\repos\rougemeilland\palmtree.math.core.uint\palmtree.math.core.uint\pmc_interface_csharp.cpp
;	COMDAT _PMCCS_ExclusiveOr_L_X@16
_TEXT	SEGMENT
_ex$2 = -20						; size = 4
__$EHRec$ = -16						; size = 16
_u$ = 8							; size = 8
_v$ = 16						; size = 4
$T3 = 20						; size = 4
_w$ = 20						; size = 4
_PMCCS_ExclusiveOr_L_X@16 PROC				; COMDAT

; 917  :     {

  00000	55		 push	 ebp
  00001	8b ec		 mov	 ebp, esp
  00003	6a ff		 push	 -1
  00005	68 00 00 00 00	 push	 __ehhandler$_PMCCS_ExclusiveOr_L_X@16
  0000a	64 a1 00 00 00
	00		 mov	 eax, DWORD PTR fs:0
  00010	50		 push	 eax
  00011	83 ec 08	 sub	 esp, 8
  00014	53		 push	 ebx
  00015	56		 push	 esi
  00016	57		 push	 edi
  00017	a1 00 00 00 00	 mov	 eax, DWORD PTR ___security_cookie
  0001c	33 c5		 xor	 eax, ebp
  0001e	50		 push	 eax
  0001f	8d 45 f4	 lea	 eax, DWORD PTR __$EHRec$[ebp+4]
  00022	64 a3 00 00 00
	00		 mov	 DWORD PTR fs:0, eax
  00028	89 65 f0	 mov	 DWORD PTR __$EHRec$[ebp], esp

; 918  :         if (w == nullptr)

  0002b	8b 75 14	 mov	 esi, DWORD PTR _w$[ebp]
  0002e	85 f6		 test	 esi, esi
  00030	75 17		 jne	 SHORT $LN2@PMCCS_Excl

; 919  :             return (PMC_STATUS_ARGUMENT_NULL_ERROR);

  00032	8d 46 fe	 lea	 eax, DWORD PTR [esi-2]

; 928  :         }
; 929  :     }

  00035	8b 4d f4	 mov	 ecx, DWORD PTR __$EHRec$[ebp+4]
  00038	64 89 0d 00 00
	00 00		 mov	 DWORD PTR fs:0, ecx
  0003f	59		 pop	 ecx
  00040	5f		 pop	 edi
  00041	5e		 pop	 esi
  00042	5b		 pop	 ebx
  00043	8b e5		 mov	 esp, ebp
  00045	5d		 pop	 ebp
  00046	c2 10 00	 ret	 16			; 00000010H
$LN2@PMCCS_Excl:

; 920  :         try

  00049	c7 45 fc 00 00
	00 00		 mov	 DWORD PTR __$EHRec$[ebp+12], 0

; 921  :         {
; 922  :             *w = PMC_ExclusiveOr_L_X(u, v);

  00050	ff 75 10	 push	 DWORD PTR _v$[ebp]
  00053	ff 75 0c	 push	 DWORD PTR _u$[ebp+4]
  00056	ff 75 08	 push	 DWORD PTR _u$[ebp]
  00059	e8 00 00 00 00	 call	 ?PMC_ExclusiveOr_L_X@Internal@Core@Math@Palmtree@@YGPAU__tag_PMC_HANDLE_UINT@1234@_KPAU51234@@Z ; Palmtree::Math::Core::Internal::PMC_ExclusiveOr_L_X
  0005e	89 06		 mov	 DWORD PTR [esi], eax

; 923  :             return (PMC_STATUS_OK);

  00060	33 c0		 xor	 eax, eax

; 928  :         }
; 929  :     }

  00062	8b 4d f4	 mov	 ecx, DWORD PTR __$EHRec$[ebp+4]
  00065	64 89 0d 00 00
	00 00		 mov	 DWORD PTR fs:0, ecx
  0006c	59		 pop	 ecx
  0006d	5f		 pop	 edi
  0006e	5e		 pop	 esi
  0006f	5b		 pop	 ebx
  00070	8b e5		 mov	 esp, ebp
  00072	5d		 pop	 ebp
  00073	c2 10 00	 ret	 16			; 00000010H
__catch$_PMCCS_ExclusiveOr_L_X@16$0:
; File z:\sources\lunor\repos\rougemeilland\palmtree.math.core.uint\palmtree.math.core.uint\pmc_exception.h

; 75   :             return (_code);

  00076	8b 45 ec	 mov	 eax, DWORD PTR _ex$2[ebp]
  00079	8b 40 0c	 mov	 eax, DWORD PTR [eax+12]
  0007c	89 45 14	 mov	 DWORD PTR $T3[ebp], eax
; File z:\sources\lunor\repos\rougemeilland\palmtree.math.core.uint\palmtree.math.core.uint\pmc_interface_csharp.cpp

; 927  :             return (ex.GetStatusCode());

  0007f	b8 00 00 00 00	 mov	 eax, $LN8@PMCCS_Excl
  00084	c3		 ret	 0
$LN8@PMCCS_Excl:
; File z:\sources\lunor\repos\rougemeilland\palmtree.math.core.uint\palmtree.math.core.uint\pmc_exception.h
  00085	c7 45 fc ff ff
	ff ff		 mov	 DWORD PTR __$EHRec$[ebp+12], -1
; File z:\sources\lunor\repos\rougemeilland\palmtree.math.core.uint\palmtree.math.core.uint\pmc_interface_csharp.cpp

; 927  :             return (ex.GetStatusCode());

  0008c	8b 45 14	 mov	 eax, DWORD PTR $T3[ebp]

; 928  :         }
; 929  :     }

  0008f	8b 4d f4	 mov	 ecx, DWORD PTR __$EHRec$[ebp+4]
  00092	64 89 0d 00 00
	00 00		 mov	 DWORD PTR fs:0, ecx
  00099	59		 pop	 ecx
  0009a	5f		 pop	 edi
  0009b	5e		 pop	 esi
  0009c	5b		 pop	 ebx
  0009d	8b e5		 mov	 esp, ebp
  0009f	5d		 pop	 ebp
  000a0	c2 10 00	 ret	 16			; 00000010H
_TEXT	ENDS
;	COMDAT text$x
text$x	SEGMENT
__ehhandler$_PMCCS_ExclusiveOr_L_X@16:
  00000	8b 54 24 08	 mov	 edx, DWORD PTR [esp+8]
  00004	8d 42 0c	 lea	 eax, DWORD PTR [edx+12]
  00007	8b 4a e8	 mov	 ecx, DWORD PTR [edx-24]
  0000a	33 c8		 xor	 ecx, eax
  0000c	e8 00 00 00 00	 call	 @__security_check_cookie@4
  00011	b8 00 00 00 00	 mov	 eax, OFFSET __ehfuncinfo$_PMCCS_ExclusiveOr_L_X@16
  00016	e9 00 00 00 00	 jmp	 ___CxxFrameHandler3
text$x	ENDS
_PMCCS_ExclusiveOr_L_X@16 ENDP
; Function compile flags: /Ogtp
; File z:\sources\lunor\repos\rougemeilland\palmtree.math.core.uint\palmtree.math.core.uint\pmc_interface_csharp.cpp
; File z:\sources\lunor\repos\rougemeilland\palmtree.math.core.uint\palmtree.math.core.uint\pmc_exception.h
; File z:\sources\lunor\repos\rougemeilland\palmtree.math.core.uint\palmtree.math.core.uint\pmc_interface_csharp.cpp
;	COMDAT _PMCCS_ExclusiveOr_I_X@12
_TEXT	SEGMENT
_ex$2 = -20						; size = 4
__$EHRec$ = -16						; size = 16
_u$ = 8							; size = 4
_v$ = 12						; size = 4
$T3 = 16						; size = 4
_w$ = 16						; size = 4
_PMCCS_ExclusiveOr_I_X@12 PROC				; COMDAT

; 902  :     {

  00000	55		 push	 ebp
  00001	8b ec		 mov	 ebp, esp
  00003	6a ff		 push	 -1
  00005	68 00 00 00 00	 push	 __ehhandler$_PMCCS_ExclusiveOr_I_X@12
  0000a	64 a1 00 00 00
	00		 mov	 eax, DWORD PTR fs:0
  00010	50		 push	 eax
  00011	83 ec 08	 sub	 esp, 8
  00014	53		 push	 ebx
  00015	56		 push	 esi
  00016	57		 push	 edi
  00017	a1 00 00 00 00	 mov	 eax, DWORD PTR ___security_cookie
  0001c	33 c5		 xor	 eax, ebp
  0001e	50		 push	 eax
  0001f	8d 45 f4	 lea	 eax, DWORD PTR __$EHRec$[ebp+4]
  00022	64 a3 00 00 00
	00		 mov	 DWORD PTR fs:0, eax
  00028	89 65 f0	 mov	 DWORD PTR __$EHRec$[ebp], esp

; 903  :         if (w == nullptr)

  0002b	8b 75 10	 mov	 esi, DWORD PTR _w$[ebp]
  0002e	85 f6		 test	 esi, esi
  00030	75 17		 jne	 SHORT $LN2@PMCCS_Excl

; 904  :             return (PMC_STATUS_ARGUMENT_NULL_ERROR);

  00032	8d 46 fe	 lea	 eax, DWORD PTR [esi-2]

; 913  :         }
; 914  :     }

  00035	8b 4d f4	 mov	 ecx, DWORD PTR __$EHRec$[ebp+4]
  00038	64 89 0d 00 00
	00 00		 mov	 DWORD PTR fs:0, ecx
  0003f	59		 pop	 ecx
  00040	5f		 pop	 edi
  00041	5e		 pop	 esi
  00042	5b		 pop	 ebx
  00043	8b e5		 mov	 esp, ebp
  00045	5d		 pop	 ebp
  00046	c2 0c 00	 ret	 12			; 0000000cH
$LN2@PMCCS_Excl:

; 905  :         try

  00049	c7 45 fc 00 00
	00 00		 mov	 DWORD PTR __$EHRec$[ebp+12], 0

; 906  :         {
; 907  :             *w = PMC_ExclusiveOr_I_X(u, v);

  00050	ff 75 0c	 push	 DWORD PTR _v$[ebp]
  00053	ff 75 08	 push	 DWORD PTR _u$[ebp]
  00056	e8 00 00 00 00	 call	 ?PMC_ExclusiveOr_I_X@Internal@Core@Math@Palmtree@@YGPAU__tag_PMC_HANDLE_UINT@1234@IPAU51234@@Z ; Palmtree::Math::Core::Internal::PMC_ExclusiveOr_I_X
  0005b	89 06		 mov	 DWORD PTR [esi], eax

; 908  :             return (PMC_STATUS_OK);

  0005d	33 c0		 xor	 eax, eax

; 913  :         }
; 914  :     }

  0005f	8b 4d f4	 mov	 ecx, DWORD PTR __$EHRec$[ebp+4]
  00062	64 89 0d 00 00
	00 00		 mov	 DWORD PTR fs:0, ecx
  00069	59		 pop	 ecx
  0006a	5f		 pop	 edi
  0006b	5e		 pop	 esi
  0006c	5b		 pop	 ebx
  0006d	8b e5		 mov	 esp, ebp
  0006f	5d		 pop	 ebp
  00070	c2 0c 00	 ret	 12			; 0000000cH
__catch$_PMCCS_ExclusiveOr_I_X@12$0:
; File z:\sources\lunor\repos\rougemeilland\palmtree.math.core.uint\palmtree.math.core.uint\pmc_exception.h

; 75   :             return (_code);

  00073	8b 45 ec	 mov	 eax, DWORD PTR _ex$2[ebp]
  00076	8b 40 0c	 mov	 eax, DWORD PTR [eax+12]
  00079	89 45 10	 mov	 DWORD PTR $T3[ebp], eax
; File z:\sources\lunor\repos\rougemeilland\palmtree.math.core.uint\palmtree.math.core.uint\pmc_interface_csharp.cpp

; 912  :             return (ex.GetStatusCode());

  0007c	b8 00 00 00 00	 mov	 eax, $LN8@PMCCS_Excl
  00081	c3		 ret	 0
$LN8@PMCCS_Excl:
; File z:\sources\lunor\repos\rougemeilland\palmtree.math.core.uint\palmtree.math.core.uint\pmc_exception.h
  00082	c7 45 fc ff ff
	ff ff		 mov	 DWORD PTR __$EHRec$[ebp+12], -1
; File z:\sources\lunor\repos\rougemeilland\palmtree.math.core.uint\palmtree.math.core.uint\pmc_interface_csharp.cpp

; 912  :             return (ex.GetStatusCode());

  00089	8b 45 10	 mov	 eax, DWORD PTR $T3[ebp]

; 913  :         }
; 914  :     }

  0008c	8b 4d f4	 mov	 ecx, DWORD PTR __$EHRec$[ebp+4]
  0008f	64 89 0d 00 00
	00 00		 mov	 DWORD PTR fs:0, ecx
  00096	59		 pop	 ecx
  00097	5f		 pop	 edi
  00098	5e		 pop	 esi
  00099	5b		 pop	 ebx
  0009a	8b e5		 mov	 esp, ebp
  0009c	5d		 pop	 ebp
  0009d	c2 0c 00	 ret	 12			; 0000000cH
_TEXT	ENDS
;	COMDAT text$x
text$x	SEGMENT
__ehhandler$_PMCCS_ExclusiveOr_I_X@12:
  00000	8b 54 24 08	 mov	 edx, DWORD PTR [esp+8]
  00004	8d 42 0c	 lea	 eax, DWORD PTR [edx+12]
  00007	8b 4a e8	 mov	 ecx, DWORD PTR [edx-24]
  0000a	33 c8		 xor	 ecx, eax
  0000c	e8 00 00 00 00	 call	 @__security_check_cookie@4
  00011	b8 00 00 00 00	 mov	 eax, OFFSET __ehfuncinfo$_PMCCS_ExclusiveOr_I_X@12
  00016	e9 00 00 00 00	 jmp	 ___CxxFrameHandler3
text$x	ENDS
_PMCCS_ExclusiveOr_I_X@12 ENDP
; Function compile flags: /Ogtp
; File z:\sources\lunor\repos\rougemeilland\palmtree.math.core.uint\palmtree.math.core.uint\pmc_interface_csharp.cpp
; File z:\sources\lunor\repos\rougemeilland\palmtree.math.core.uint\palmtree.math.core.uint\pmc_exception.h
; File z:\sources\lunor\repos\rougemeilland\palmtree.math.core.uint\palmtree.math.core.uint\pmc_interface_csharp.cpp
;	COMDAT _PMCCS_BitwiseOr_X_X@12
_TEXT	SEGMENT
_ex$2 = -20						; size = 4
__$EHRec$ = -16						; size = 16
_u$ = 8							; size = 4
_v$ = 12						; size = 4
$T3 = 16						; size = 4
_w$ = 16						; size = 4
_PMCCS_BitwiseOr_X_X@12 PROC				; COMDAT

; 887  :     {

  00000	55		 push	 ebp
  00001	8b ec		 mov	 ebp, esp
  00003	6a ff		 push	 -1
  00005	68 00 00 00 00	 push	 __ehhandler$_PMCCS_BitwiseOr_X_X@12
  0000a	64 a1 00 00 00
	00		 mov	 eax, DWORD PTR fs:0
  00010	50		 push	 eax
  00011	83 ec 08	 sub	 esp, 8
  00014	53		 push	 ebx
  00015	56		 push	 esi
  00016	57		 push	 edi
  00017	a1 00 00 00 00	 mov	 eax, DWORD PTR ___security_cookie
  0001c	33 c5		 xor	 eax, ebp
  0001e	50		 push	 eax
  0001f	8d 45 f4	 lea	 eax, DWORD PTR __$EHRec$[ebp+4]
  00022	64 a3 00 00 00
	00		 mov	 DWORD PTR fs:0, eax
  00028	89 65 f0	 mov	 DWORD PTR __$EHRec$[ebp], esp

; 888  :         if (w == nullptr)

  0002b	8b 75 10	 mov	 esi, DWORD PTR _w$[ebp]
  0002e	85 f6		 test	 esi, esi
  00030	75 17		 jne	 SHORT $LN2@PMCCS_Bitw

; 889  :             return (PMC_STATUS_ARGUMENT_NULL_ERROR);

  00032	8d 46 fe	 lea	 eax, DWORD PTR [esi-2]

; 898  :         }
; 899  :     }

  00035	8b 4d f4	 mov	 ecx, DWORD PTR __$EHRec$[ebp+4]
  00038	64 89 0d 00 00
	00 00		 mov	 DWORD PTR fs:0, ecx
  0003f	59		 pop	 ecx
  00040	5f		 pop	 edi
  00041	5e		 pop	 esi
  00042	5b		 pop	 ebx
  00043	8b e5		 mov	 esp, ebp
  00045	5d		 pop	 ebp
  00046	c2 0c 00	 ret	 12			; 0000000cH
$LN2@PMCCS_Bitw:

; 890  :         try

  00049	c7 45 fc 00 00
	00 00		 mov	 DWORD PTR __$EHRec$[ebp+12], 0

; 891  :         {
; 892  :             *w = PMC_BitwiseOr_X_X(u, v);

  00050	ff 75 0c	 push	 DWORD PTR _v$[ebp]
  00053	ff 75 08	 push	 DWORD PTR _u$[ebp]
  00056	e8 00 00 00 00	 call	 ?PMC_BitwiseOr_X_X@Internal@Core@Math@Palmtree@@YGPAU__tag_PMC_HANDLE_UINT@1234@PAU51234@0@Z ; Palmtree::Math::Core::Internal::PMC_BitwiseOr_X_X
  0005b	89 06		 mov	 DWORD PTR [esi], eax

; 893  :             return (PMC_STATUS_OK);

  0005d	33 c0		 xor	 eax, eax

; 898  :         }
; 899  :     }

  0005f	8b 4d f4	 mov	 ecx, DWORD PTR __$EHRec$[ebp+4]
  00062	64 89 0d 00 00
	00 00		 mov	 DWORD PTR fs:0, ecx
  00069	59		 pop	 ecx
  0006a	5f		 pop	 edi
  0006b	5e		 pop	 esi
  0006c	5b		 pop	 ebx
  0006d	8b e5		 mov	 esp, ebp
  0006f	5d		 pop	 ebp
  00070	c2 0c 00	 ret	 12			; 0000000cH
__catch$_PMCCS_BitwiseOr_X_X@12$0:
; File z:\sources\lunor\repos\rougemeilland\palmtree.math.core.uint\palmtree.math.core.uint\pmc_exception.h

; 75   :             return (_code);

  00073	8b 45 ec	 mov	 eax, DWORD PTR _ex$2[ebp]
  00076	8b 40 0c	 mov	 eax, DWORD PTR [eax+12]
  00079	89 45 10	 mov	 DWORD PTR $T3[ebp], eax
; File z:\sources\lunor\repos\rougemeilland\palmtree.math.core.uint\palmtree.math.core.uint\pmc_interface_csharp.cpp

; 897  :             return (ex.GetStatusCode());

  0007c	b8 00 00 00 00	 mov	 eax, $LN8@PMCCS_Bitw
  00081	c3		 ret	 0
$LN8@PMCCS_Bitw:
; File z:\sources\lunor\repos\rougemeilland\palmtree.math.core.uint\palmtree.math.core.uint\pmc_exception.h
  00082	c7 45 fc ff ff
	ff ff		 mov	 DWORD PTR __$EHRec$[ebp+12], -1
; File z:\sources\lunor\repos\rougemeilland\palmtree.math.core.uint\palmtree.math.core.uint\pmc_interface_csharp.cpp

; 897  :             return (ex.GetStatusCode());

  00089	8b 45 10	 mov	 eax, DWORD PTR $T3[ebp]

; 898  :         }
; 899  :     }

  0008c	8b 4d f4	 mov	 ecx, DWORD PTR __$EHRec$[ebp+4]
  0008f	64 89 0d 00 00
	00 00		 mov	 DWORD PTR fs:0, ecx
  00096	59		 pop	 ecx
  00097	5f		 pop	 edi
  00098	5e		 pop	 esi
  00099	5b		 pop	 ebx
  0009a	8b e5		 mov	 esp, ebp
  0009c	5d		 pop	 ebp
  0009d	c2 0c 00	 ret	 12			; 0000000cH
_TEXT	ENDS
;	COMDAT text$x
text$x	SEGMENT
__ehhandler$_PMCCS_BitwiseOr_X_X@12:
  00000	8b 54 24 08	 mov	 edx, DWORD PTR [esp+8]
  00004	8d 42 0c	 lea	 eax, DWORD PTR [edx+12]
  00007	8b 4a e8	 mov	 ecx, DWORD PTR [edx-24]
  0000a	33 c8		 xor	 ecx, eax
  0000c	e8 00 00 00 00	 call	 @__security_check_cookie@4
  00011	b8 00 00 00 00	 mov	 eax, OFFSET __ehfuncinfo$_PMCCS_BitwiseOr_X_X@12
  00016	e9 00 00 00 00	 jmp	 ___CxxFrameHandler3
text$x	ENDS
_PMCCS_BitwiseOr_X_X@12 ENDP
; Function compile flags: /Ogtp
; File z:\sources\lunor\repos\rougemeilland\palmtree.math.core.uint\palmtree.math.core.uint\pmc_interface_csharp.cpp
; File z:\sources\lunor\repos\rougemeilland\palmtree.math.core.uint\palmtree.math.core.uint\pmc_exception.h
; File z:\sources\lunor\repos\rougemeilland\palmtree.math.core.uint\palmtree.math.core.uint\pmc_interface_csharp.cpp
;	COMDAT _PMCCS_BitwiseOr_X_L@16
_TEXT	SEGMENT
_ex$2 = -20						; size = 4
__$EHRec$ = -16						; size = 16
_u$ = 8							; size = 4
_v$ = 12						; size = 8
$T3 = 20						; size = 4
_w$ = 20						; size = 4
_PMCCS_BitwiseOr_X_L@16 PROC				; COMDAT

; 872  :     {

  00000	55		 push	 ebp
  00001	8b ec		 mov	 ebp, esp
  00003	6a ff		 push	 -1
  00005	68 00 00 00 00	 push	 __ehhandler$_PMCCS_BitwiseOr_X_L@16
  0000a	64 a1 00 00 00
	00		 mov	 eax, DWORD PTR fs:0
  00010	50		 push	 eax
  00011	83 ec 08	 sub	 esp, 8
  00014	53		 push	 ebx
  00015	56		 push	 esi
  00016	57		 push	 edi
  00017	a1 00 00 00 00	 mov	 eax, DWORD PTR ___security_cookie
  0001c	33 c5		 xor	 eax, ebp
  0001e	50		 push	 eax
  0001f	8d 45 f4	 lea	 eax, DWORD PTR __$EHRec$[ebp+4]
  00022	64 a3 00 00 00
	00		 mov	 DWORD PTR fs:0, eax
  00028	89 65 f0	 mov	 DWORD PTR __$EHRec$[ebp], esp

; 873  :         if (w == nullptr)

  0002b	8b 75 14	 mov	 esi, DWORD PTR _w$[ebp]
  0002e	85 f6		 test	 esi, esi
  00030	75 17		 jne	 SHORT $LN2@PMCCS_Bitw

; 874  :             return (PMC_STATUS_ARGUMENT_NULL_ERROR);

  00032	8d 46 fe	 lea	 eax, DWORD PTR [esi-2]

; 883  :         }
; 884  :     }

  00035	8b 4d f4	 mov	 ecx, DWORD PTR __$EHRec$[ebp+4]
  00038	64 89 0d 00 00
	00 00		 mov	 DWORD PTR fs:0, ecx
  0003f	59		 pop	 ecx
  00040	5f		 pop	 edi
  00041	5e		 pop	 esi
  00042	5b		 pop	 ebx
  00043	8b e5		 mov	 esp, ebp
  00045	5d		 pop	 ebp
  00046	c2 10 00	 ret	 16			; 00000010H
$LN2@PMCCS_Bitw:

; 875  :         try

  00049	c7 45 fc 00 00
	00 00		 mov	 DWORD PTR __$EHRec$[ebp+12], 0

; 876  :         {
; 877  :             *w = PMC_BitwiseOr_X_L(u, v);

  00050	ff 75 10	 push	 DWORD PTR _v$[ebp+4]
  00053	ff 75 0c	 push	 DWORD PTR _v$[ebp]
  00056	ff 75 08	 push	 DWORD PTR _u$[ebp]
  00059	e8 00 00 00 00	 call	 ?PMC_BitwiseOr_X_L@Internal@Core@Math@Palmtree@@YGPAU__tag_PMC_HANDLE_UINT@1234@PAU51234@_K@Z ; Palmtree::Math::Core::Internal::PMC_BitwiseOr_X_L
  0005e	89 06		 mov	 DWORD PTR [esi], eax

; 878  :             return (PMC_STATUS_OK);

  00060	33 c0		 xor	 eax, eax

; 883  :         }
; 884  :     }

  00062	8b 4d f4	 mov	 ecx, DWORD PTR __$EHRec$[ebp+4]
  00065	64 89 0d 00 00
	00 00		 mov	 DWORD PTR fs:0, ecx
  0006c	59		 pop	 ecx
  0006d	5f		 pop	 edi
  0006e	5e		 pop	 esi
  0006f	5b		 pop	 ebx
  00070	8b e5		 mov	 esp, ebp
  00072	5d		 pop	 ebp
  00073	c2 10 00	 ret	 16			; 00000010H
__catch$_PMCCS_BitwiseOr_X_L@16$0:
; File z:\sources\lunor\repos\rougemeilland\palmtree.math.core.uint\palmtree.math.core.uint\pmc_exception.h

; 75   :             return (_code);

  00076	8b 45 ec	 mov	 eax, DWORD PTR _ex$2[ebp]
  00079	8b 40 0c	 mov	 eax, DWORD PTR [eax+12]
  0007c	89 45 14	 mov	 DWORD PTR $T3[ebp], eax
; File z:\sources\lunor\repos\rougemeilland\palmtree.math.core.uint\palmtree.math.core.uint\pmc_interface_csharp.cpp

; 882  :             return (ex.GetStatusCode());

  0007f	b8 00 00 00 00	 mov	 eax, $LN8@PMCCS_Bitw
  00084	c3		 ret	 0
$LN8@PMCCS_Bitw:
; File z:\sources\lunor\repos\rougemeilland\palmtree.math.core.uint\palmtree.math.core.uint\pmc_exception.h
  00085	c7 45 fc ff ff
	ff ff		 mov	 DWORD PTR __$EHRec$[ebp+12], -1
; File z:\sources\lunor\repos\rougemeilland\palmtree.math.core.uint\palmtree.math.core.uint\pmc_interface_csharp.cpp

; 882  :             return (ex.GetStatusCode());

  0008c	8b 45 14	 mov	 eax, DWORD PTR $T3[ebp]

; 883  :         }
; 884  :     }

  0008f	8b 4d f4	 mov	 ecx, DWORD PTR __$EHRec$[ebp+4]
  00092	64 89 0d 00 00
	00 00		 mov	 DWORD PTR fs:0, ecx
  00099	59		 pop	 ecx
  0009a	5f		 pop	 edi
  0009b	5e		 pop	 esi
  0009c	5b		 pop	 ebx
  0009d	8b e5		 mov	 esp, ebp
  0009f	5d		 pop	 ebp
  000a0	c2 10 00	 ret	 16			; 00000010H
_TEXT	ENDS
;	COMDAT text$x
text$x	SEGMENT
__ehhandler$_PMCCS_BitwiseOr_X_L@16:
  00000	8b 54 24 08	 mov	 edx, DWORD PTR [esp+8]
  00004	8d 42 0c	 lea	 eax, DWORD PTR [edx+12]
  00007	8b 4a e8	 mov	 ecx, DWORD PTR [edx-24]
  0000a	33 c8		 xor	 ecx, eax
  0000c	e8 00 00 00 00	 call	 @__security_check_cookie@4
  00011	b8 00 00 00 00	 mov	 eax, OFFSET __ehfuncinfo$_PMCCS_BitwiseOr_X_L@16
  00016	e9 00 00 00 00	 jmp	 ___CxxFrameHandler3
text$x	ENDS
_PMCCS_BitwiseOr_X_L@16 ENDP
; Function compile flags: /Ogtp
; File z:\sources\lunor\repos\rougemeilland\palmtree.math.core.uint\palmtree.math.core.uint\pmc_interface_csharp.cpp
; File z:\sources\lunor\repos\rougemeilland\palmtree.math.core.uint\palmtree.math.core.uint\pmc_exception.h
; File z:\sources\lunor\repos\rougemeilland\palmtree.math.core.uint\palmtree.math.core.uint\pmc_interface_csharp.cpp
;	COMDAT _PMCCS_BitwiseOr_X_I@12
_TEXT	SEGMENT
_ex$2 = -20						; size = 4
__$EHRec$ = -16						; size = 16
_u$ = 8							; size = 4
_v$ = 12						; size = 4
$T3 = 16						; size = 4
_w$ = 16						; size = 4
_PMCCS_BitwiseOr_X_I@12 PROC				; COMDAT

; 857  :     {

  00000	55		 push	 ebp
  00001	8b ec		 mov	 ebp, esp
  00003	6a ff		 push	 -1
  00005	68 00 00 00 00	 push	 __ehhandler$_PMCCS_BitwiseOr_X_I@12
  0000a	64 a1 00 00 00
	00		 mov	 eax, DWORD PTR fs:0
  00010	50		 push	 eax
  00011	83 ec 08	 sub	 esp, 8
  00014	53		 push	 ebx
  00015	56		 push	 esi
  00016	57		 push	 edi
  00017	a1 00 00 00 00	 mov	 eax, DWORD PTR ___security_cookie
  0001c	33 c5		 xor	 eax, ebp
  0001e	50		 push	 eax
  0001f	8d 45 f4	 lea	 eax, DWORD PTR __$EHRec$[ebp+4]
  00022	64 a3 00 00 00
	00		 mov	 DWORD PTR fs:0, eax
  00028	89 65 f0	 mov	 DWORD PTR __$EHRec$[ebp], esp

; 858  :         if (w == nullptr)

  0002b	8b 75 10	 mov	 esi, DWORD PTR _w$[ebp]
  0002e	85 f6		 test	 esi, esi
  00030	75 17		 jne	 SHORT $LN2@PMCCS_Bitw

; 859  :             return (PMC_STATUS_ARGUMENT_NULL_ERROR);

  00032	8d 46 fe	 lea	 eax, DWORD PTR [esi-2]

; 868  :         }
; 869  :     }

  00035	8b 4d f4	 mov	 ecx, DWORD PTR __$EHRec$[ebp+4]
  00038	64 89 0d 00 00
	00 00		 mov	 DWORD PTR fs:0, ecx
  0003f	59		 pop	 ecx
  00040	5f		 pop	 edi
  00041	5e		 pop	 esi
  00042	5b		 pop	 ebx
  00043	8b e5		 mov	 esp, ebp
  00045	5d		 pop	 ebp
  00046	c2 0c 00	 ret	 12			; 0000000cH
$LN2@PMCCS_Bitw:

; 860  :         try

  00049	c7 45 fc 00 00
	00 00		 mov	 DWORD PTR __$EHRec$[ebp+12], 0

; 861  :         {
; 862  :             *w = PMC_BitwiseOr_X_I(u, v);

  00050	ff 75 0c	 push	 DWORD PTR _v$[ebp]
  00053	ff 75 08	 push	 DWORD PTR _u$[ebp]
  00056	e8 00 00 00 00	 call	 ?PMC_BitwiseOr_X_I@Internal@Core@Math@Palmtree@@YGPAU__tag_PMC_HANDLE_UINT@1234@PAU51234@I@Z ; Palmtree::Math::Core::Internal::PMC_BitwiseOr_X_I
  0005b	89 06		 mov	 DWORD PTR [esi], eax

; 863  :             return (PMC_STATUS_OK);

  0005d	33 c0		 xor	 eax, eax

; 868  :         }
; 869  :     }

  0005f	8b 4d f4	 mov	 ecx, DWORD PTR __$EHRec$[ebp+4]
  00062	64 89 0d 00 00
	00 00		 mov	 DWORD PTR fs:0, ecx
  00069	59		 pop	 ecx
  0006a	5f		 pop	 edi
  0006b	5e		 pop	 esi
  0006c	5b		 pop	 ebx
  0006d	8b e5		 mov	 esp, ebp
  0006f	5d		 pop	 ebp
  00070	c2 0c 00	 ret	 12			; 0000000cH
__catch$_PMCCS_BitwiseOr_X_I@12$0:
; File z:\sources\lunor\repos\rougemeilland\palmtree.math.core.uint\palmtree.math.core.uint\pmc_exception.h

; 75   :             return (_code);

  00073	8b 45 ec	 mov	 eax, DWORD PTR _ex$2[ebp]
  00076	8b 40 0c	 mov	 eax, DWORD PTR [eax+12]
  00079	89 45 10	 mov	 DWORD PTR $T3[ebp], eax
; File z:\sources\lunor\repos\rougemeilland\palmtree.math.core.uint\palmtree.math.core.uint\pmc_interface_csharp.cpp

; 867  :             return (ex.GetStatusCode());

  0007c	b8 00 00 00 00	 mov	 eax, $LN8@PMCCS_Bitw
  00081	c3		 ret	 0
$LN8@PMCCS_Bitw:
; File z:\sources\lunor\repos\rougemeilland\palmtree.math.core.uint\palmtree.math.core.uint\pmc_exception.h
  00082	c7 45 fc ff ff
	ff ff		 mov	 DWORD PTR __$EHRec$[ebp+12], -1
; File z:\sources\lunor\repos\rougemeilland\palmtree.math.core.uint\palmtree.math.core.uint\pmc_interface_csharp.cpp

; 867  :             return (ex.GetStatusCode());

  00089	8b 45 10	 mov	 eax, DWORD PTR $T3[ebp]

; 868  :         }
; 869  :     }

  0008c	8b 4d f4	 mov	 ecx, DWORD PTR __$EHRec$[ebp+4]
  0008f	64 89 0d 00 00
	00 00		 mov	 DWORD PTR fs:0, ecx
  00096	59		 pop	 ecx
  00097	5f		 pop	 edi
  00098	5e		 pop	 esi
  00099	5b		 pop	 ebx
  0009a	8b e5		 mov	 esp, ebp
  0009c	5d		 pop	 ebp
  0009d	c2 0c 00	 ret	 12			; 0000000cH
_TEXT	ENDS
;	COMDAT text$x
text$x	SEGMENT
__ehhandler$_PMCCS_BitwiseOr_X_I@12:
  00000	8b 54 24 08	 mov	 edx, DWORD PTR [esp+8]
  00004	8d 42 0c	 lea	 eax, DWORD PTR [edx+12]
  00007	8b 4a e8	 mov	 ecx, DWORD PTR [edx-24]
  0000a	33 c8		 xor	 ecx, eax
  0000c	e8 00 00 00 00	 call	 @__security_check_cookie@4
  00011	b8 00 00 00 00	 mov	 eax, OFFSET __ehfuncinfo$_PMCCS_BitwiseOr_X_I@12
  00016	e9 00 00 00 00	 jmp	 ___CxxFrameHandler3
text$x	ENDS
_PMCCS_BitwiseOr_X_I@12 ENDP
; Function compile flags: /Ogtp
; File z:\sources\lunor\repos\rougemeilland\palmtree.math.core.uint\palmtree.math.core.uint\pmc_interface_csharp.cpp
; File z:\sources\lunor\repos\rougemeilland\palmtree.math.core.uint\palmtree.math.core.uint\pmc_exception.h
; File z:\sources\lunor\repos\rougemeilland\palmtree.math.core.uint\palmtree.math.core.uint\pmc_interface_csharp.cpp
;	COMDAT _PMCCS_BitwiseOr_L_X@16
_TEXT	SEGMENT
_ex$2 = -20						; size = 4
__$EHRec$ = -16						; size = 16
_u$ = 8							; size = 8
_v$ = 16						; size = 4
$T3 = 20						; size = 4
_w$ = 20						; size = 4
_PMCCS_BitwiseOr_L_X@16 PROC				; COMDAT

; 842  :     {

  00000	55		 push	 ebp
  00001	8b ec		 mov	 ebp, esp
  00003	6a ff		 push	 -1
  00005	68 00 00 00 00	 push	 __ehhandler$_PMCCS_BitwiseOr_L_X@16
  0000a	64 a1 00 00 00
	00		 mov	 eax, DWORD PTR fs:0
  00010	50		 push	 eax
  00011	83 ec 08	 sub	 esp, 8
  00014	53		 push	 ebx
  00015	56		 push	 esi
  00016	57		 push	 edi
  00017	a1 00 00 00 00	 mov	 eax, DWORD PTR ___security_cookie
  0001c	33 c5		 xor	 eax, ebp
  0001e	50		 push	 eax
  0001f	8d 45 f4	 lea	 eax, DWORD PTR __$EHRec$[ebp+4]
  00022	64 a3 00 00 00
	00		 mov	 DWORD PTR fs:0, eax
  00028	89 65 f0	 mov	 DWORD PTR __$EHRec$[ebp], esp

; 843  :         if (w == nullptr)

  0002b	8b 75 14	 mov	 esi, DWORD PTR _w$[ebp]
  0002e	85 f6		 test	 esi, esi
  00030	75 17		 jne	 SHORT $LN2@PMCCS_Bitw

; 844  :             return (PMC_STATUS_ARGUMENT_NULL_ERROR);

  00032	8d 46 fe	 lea	 eax, DWORD PTR [esi-2]

; 853  :         }
; 854  :     }

  00035	8b 4d f4	 mov	 ecx, DWORD PTR __$EHRec$[ebp+4]
  00038	64 89 0d 00 00
	00 00		 mov	 DWORD PTR fs:0, ecx
  0003f	59		 pop	 ecx
  00040	5f		 pop	 edi
  00041	5e		 pop	 esi
  00042	5b		 pop	 ebx
  00043	8b e5		 mov	 esp, ebp
  00045	5d		 pop	 ebp
  00046	c2 10 00	 ret	 16			; 00000010H
$LN2@PMCCS_Bitw:

; 845  :         try

  00049	c7 45 fc 00 00
	00 00		 mov	 DWORD PTR __$EHRec$[ebp+12], 0

; 846  :         {
; 847  :             *w = PMC_BitwiseOr_L_X(u, v);

  00050	ff 75 10	 push	 DWORD PTR _v$[ebp]
  00053	ff 75 0c	 push	 DWORD PTR _u$[ebp+4]
  00056	ff 75 08	 push	 DWORD PTR _u$[ebp]
  00059	e8 00 00 00 00	 call	 ?PMC_BitwiseOr_L_X@Internal@Core@Math@Palmtree@@YGPAU__tag_PMC_HANDLE_UINT@1234@_KPAU51234@@Z ; Palmtree::Math::Core::Internal::PMC_BitwiseOr_L_X
  0005e	89 06		 mov	 DWORD PTR [esi], eax

; 848  :             return (PMC_STATUS_OK);

  00060	33 c0		 xor	 eax, eax

; 853  :         }
; 854  :     }

  00062	8b 4d f4	 mov	 ecx, DWORD PTR __$EHRec$[ebp+4]
  00065	64 89 0d 00 00
	00 00		 mov	 DWORD PTR fs:0, ecx
  0006c	59		 pop	 ecx
  0006d	5f		 pop	 edi
  0006e	5e		 pop	 esi
  0006f	5b		 pop	 ebx
  00070	8b e5		 mov	 esp, ebp
  00072	5d		 pop	 ebp
  00073	c2 10 00	 ret	 16			; 00000010H
__catch$_PMCCS_BitwiseOr_L_X@16$0:
; File z:\sources\lunor\repos\rougemeilland\palmtree.math.core.uint\palmtree.math.core.uint\pmc_exception.h

; 75   :             return (_code);

  00076	8b 45 ec	 mov	 eax, DWORD PTR _ex$2[ebp]
  00079	8b 40 0c	 mov	 eax, DWORD PTR [eax+12]
  0007c	89 45 14	 mov	 DWORD PTR $T3[ebp], eax
; File z:\sources\lunor\repos\rougemeilland\palmtree.math.core.uint\palmtree.math.core.uint\pmc_interface_csharp.cpp

; 852  :             return (ex.GetStatusCode());

  0007f	b8 00 00 00 00	 mov	 eax, $LN8@PMCCS_Bitw
  00084	c3		 ret	 0
$LN8@PMCCS_Bitw:
; File z:\sources\lunor\repos\rougemeilland\palmtree.math.core.uint\palmtree.math.core.uint\pmc_exception.h
  00085	c7 45 fc ff ff
	ff ff		 mov	 DWORD PTR __$EHRec$[ebp+12], -1
; File z:\sources\lunor\repos\rougemeilland\palmtree.math.core.uint\palmtree.math.core.uint\pmc_interface_csharp.cpp

; 852  :             return (ex.GetStatusCode());

  0008c	8b 45 14	 mov	 eax, DWORD PTR $T3[ebp]

; 853  :         }
; 854  :     }

  0008f	8b 4d f4	 mov	 ecx, DWORD PTR __$EHRec$[ebp+4]
  00092	64 89 0d 00 00
	00 00		 mov	 DWORD PTR fs:0, ecx
  00099	59		 pop	 ecx
  0009a	5f		 pop	 edi
  0009b	5e		 pop	 esi
  0009c	5b		 pop	 ebx
  0009d	8b e5		 mov	 esp, ebp
  0009f	5d		 pop	 ebp
  000a0	c2 10 00	 ret	 16			; 00000010H
_TEXT	ENDS
;	COMDAT text$x
text$x	SEGMENT
__ehhandler$_PMCCS_BitwiseOr_L_X@16:
  00000	8b 54 24 08	 mov	 edx, DWORD PTR [esp+8]
  00004	8d 42 0c	 lea	 eax, DWORD PTR [edx+12]
  00007	8b 4a e8	 mov	 ecx, DWORD PTR [edx-24]
  0000a	33 c8		 xor	 ecx, eax
  0000c	e8 00 00 00 00	 call	 @__security_check_cookie@4
  00011	b8 00 00 00 00	 mov	 eax, OFFSET __ehfuncinfo$_PMCCS_BitwiseOr_L_X@16
  00016	e9 00 00 00 00	 jmp	 ___CxxFrameHandler3
text$x	ENDS
_PMCCS_BitwiseOr_L_X@16 ENDP
; Function compile flags: /Ogtp
; File z:\sources\lunor\repos\rougemeilland\palmtree.math.core.uint\palmtree.math.core.uint\pmc_interface_csharp.cpp
; File z:\sources\lunor\repos\rougemeilland\palmtree.math.core.uint\palmtree.math.core.uint\pmc_exception.h
; File z:\sources\lunor\repos\rougemeilland\palmtree.math.core.uint\palmtree.math.core.uint\pmc_interface_csharp.cpp
;	COMDAT _PMCCS_BitwiseOr_I_X@12
_TEXT	SEGMENT
_ex$2 = -20						; size = 4
__$EHRec$ = -16						; size = 16
_u$ = 8							; size = 4
_v$ = 12						; size = 4
$T3 = 16						; size = 4
_w$ = 16						; size = 4
_PMCCS_BitwiseOr_I_X@12 PROC				; COMDAT

; 827  :     {

  00000	55		 push	 ebp
  00001	8b ec		 mov	 ebp, esp
  00003	6a ff		 push	 -1
  00005	68 00 00 00 00	 push	 __ehhandler$_PMCCS_BitwiseOr_I_X@12
  0000a	64 a1 00 00 00
	00		 mov	 eax, DWORD PTR fs:0
  00010	50		 push	 eax
  00011	83 ec 08	 sub	 esp, 8
  00014	53		 push	 ebx
  00015	56		 push	 esi
  00016	57		 push	 edi
  00017	a1 00 00 00 00	 mov	 eax, DWORD PTR ___security_cookie
  0001c	33 c5		 xor	 eax, ebp
  0001e	50		 push	 eax
  0001f	8d 45 f4	 lea	 eax, DWORD PTR __$EHRec$[ebp+4]
  00022	64 a3 00 00 00
	00		 mov	 DWORD PTR fs:0, eax
  00028	89 65 f0	 mov	 DWORD PTR __$EHRec$[ebp], esp

; 828  :         if (w == nullptr)

  0002b	8b 75 10	 mov	 esi, DWORD PTR _w$[ebp]
  0002e	85 f6		 test	 esi, esi
  00030	75 17		 jne	 SHORT $LN2@PMCCS_Bitw

; 829  :             return (PMC_STATUS_ARGUMENT_NULL_ERROR);

  00032	8d 46 fe	 lea	 eax, DWORD PTR [esi-2]

; 838  :         }
; 839  :     }

  00035	8b 4d f4	 mov	 ecx, DWORD PTR __$EHRec$[ebp+4]
  00038	64 89 0d 00 00
	00 00		 mov	 DWORD PTR fs:0, ecx
  0003f	59		 pop	 ecx
  00040	5f		 pop	 edi
  00041	5e		 pop	 esi
  00042	5b		 pop	 ebx
  00043	8b e5		 mov	 esp, ebp
  00045	5d		 pop	 ebp
  00046	c2 0c 00	 ret	 12			; 0000000cH
$LN2@PMCCS_Bitw:

; 830  :         try

  00049	c7 45 fc 00 00
	00 00		 mov	 DWORD PTR __$EHRec$[ebp+12], 0

; 831  :         {
; 832  :             *w = PMC_BitwiseOr_I_X(u, v);

  00050	ff 75 0c	 push	 DWORD PTR _v$[ebp]
  00053	ff 75 08	 push	 DWORD PTR _u$[ebp]
  00056	e8 00 00 00 00	 call	 ?PMC_BitwiseOr_I_X@Internal@Core@Math@Palmtree@@YGPAU__tag_PMC_HANDLE_UINT@1234@IPAU51234@@Z ; Palmtree::Math::Core::Internal::PMC_BitwiseOr_I_X
  0005b	89 06		 mov	 DWORD PTR [esi], eax

; 833  :             return (PMC_STATUS_OK);

  0005d	33 c0		 xor	 eax, eax

; 838  :         }
; 839  :     }

  0005f	8b 4d f4	 mov	 ecx, DWORD PTR __$EHRec$[ebp+4]
  00062	64 89 0d 00 00
	00 00		 mov	 DWORD PTR fs:0, ecx
  00069	59		 pop	 ecx
  0006a	5f		 pop	 edi
  0006b	5e		 pop	 esi
  0006c	5b		 pop	 ebx
  0006d	8b e5		 mov	 esp, ebp
  0006f	5d		 pop	 ebp
  00070	c2 0c 00	 ret	 12			; 0000000cH
__catch$_PMCCS_BitwiseOr_I_X@12$0:
; File z:\sources\lunor\repos\rougemeilland\palmtree.math.core.uint\palmtree.math.core.uint\pmc_exception.h

; 75   :             return (_code);

  00073	8b 45 ec	 mov	 eax, DWORD PTR _ex$2[ebp]
  00076	8b 40 0c	 mov	 eax, DWORD PTR [eax+12]
  00079	89 45 10	 mov	 DWORD PTR $T3[ebp], eax
; File z:\sources\lunor\repos\rougemeilland\palmtree.math.core.uint\palmtree.math.core.uint\pmc_interface_csharp.cpp

; 837  :             return (ex.GetStatusCode());

  0007c	b8 00 00 00 00	 mov	 eax, $LN8@PMCCS_Bitw
  00081	c3		 ret	 0
$LN8@PMCCS_Bitw:
; File z:\sources\lunor\repos\rougemeilland\palmtree.math.core.uint\palmtree.math.core.uint\pmc_exception.h
  00082	c7 45 fc ff ff
	ff ff		 mov	 DWORD PTR __$EHRec$[ebp+12], -1
; File z:\sources\lunor\repos\rougemeilland\palmtree.math.core.uint\palmtree.math.core.uint\pmc_interface_csharp.cpp

; 837  :             return (ex.GetStatusCode());

  00089	8b 45 10	 mov	 eax, DWORD PTR $T3[ebp]

; 838  :         }
; 839  :     }

  0008c	8b 4d f4	 mov	 ecx, DWORD PTR __$EHRec$[ebp+4]
  0008f	64 89 0d 00 00
	00 00		 mov	 DWORD PTR fs:0, ecx
  00096	59		 pop	 ecx
  00097	5f		 pop	 edi
  00098	5e		 pop	 esi
  00099	5b		 pop	 ebx
  0009a	8b e5		 mov	 esp, ebp
  0009c	5d		 pop	 ebp
  0009d	c2 0c 00	 ret	 12			; 0000000cH
_TEXT	ENDS
;	COMDAT text$x
text$x	SEGMENT
__ehhandler$_PMCCS_BitwiseOr_I_X@12:
  00000	8b 54 24 08	 mov	 edx, DWORD PTR [esp+8]
  00004	8d 42 0c	 lea	 eax, DWORD PTR [edx+12]
  00007	8b 4a e8	 mov	 ecx, DWORD PTR [edx-24]
  0000a	33 c8		 xor	 ecx, eax
  0000c	e8 00 00 00 00	 call	 @__security_check_cookie@4
  00011	b8 00 00 00 00	 mov	 eax, OFFSET __ehfuncinfo$_PMCCS_BitwiseOr_I_X@12
  00016	e9 00 00 00 00	 jmp	 ___CxxFrameHandler3
text$x	ENDS
_PMCCS_BitwiseOr_I_X@12 ENDP
; Function compile flags: /Ogtp
; File z:\sources\lunor\repos\rougemeilland\palmtree.math.core.uint\palmtree.math.core.uint\pmc_interface_csharp.cpp
; File z:\sources\lunor\repos\rougemeilland\palmtree.math.core.uint\palmtree.math.core.uint\pmc_exception.h
; File z:\sources\lunor\repos\rougemeilland\palmtree.math.core.uint\palmtree.math.core.uint\pmc_interface_csharp.cpp
;	COMDAT _PMCCS_BitwiseAnd_X_X@12
_TEXT	SEGMENT
_ex$2 = -20						; size = 4
__$EHRec$ = -16						; size = 16
_u$ = 8							; size = 4
_v$ = 12						; size = 4
$T3 = 16						; size = 4
_w$ = 16						; size = 4
_PMCCS_BitwiseAnd_X_X@12 PROC				; COMDAT

; 812  :     {

  00000	55		 push	 ebp
  00001	8b ec		 mov	 ebp, esp
  00003	6a ff		 push	 -1
  00005	68 00 00 00 00	 push	 __ehhandler$_PMCCS_BitwiseAnd_X_X@12
  0000a	64 a1 00 00 00
	00		 mov	 eax, DWORD PTR fs:0
  00010	50		 push	 eax
  00011	83 ec 08	 sub	 esp, 8
  00014	53		 push	 ebx
  00015	56		 push	 esi
  00016	57		 push	 edi
  00017	a1 00 00 00 00	 mov	 eax, DWORD PTR ___security_cookie
  0001c	33 c5		 xor	 eax, ebp
  0001e	50		 push	 eax
  0001f	8d 45 f4	 lea	 eax, DWORD PTR __$EHRec$[ebp+4]
  00022	64 a3 00 00 00
	00		 mov	 DWORD PTR fs:0, eax
  00028	89 65 f0	 mov	 DWORD PTR __$EHRec$[ebp], esp

; 813  :         if (w == nullptr)

  0002b	8b 75 10	 mov	 esi, DWORD PTR _w$[ebp]
  0002e	85 f6		 test	 esi, esi
  00030	75 17		 jne	 SHORT $LN2@PMCCS_Bitw

; 814  :             return (PMC_STATUS_ARGUMENT_NULL_ERROR);

  00032	8d 46 fe	 lea	 eax, DWORD PTR [esi-2]

; 823  :         }
; 824  :     }

  00035	8b 4d f4	 mov	 ecx, DWORD PTR __$EHRec$[ebp+4]
  00038	64 89 0d 00 00
	00 00		 mov	 DWORD PTR fs:0, ecx
  0003f	59		 pop	 ecx
  00040	5f		 pop	 edi
  00041	5e		 pop	 esi
  00042	5b		 pop	 ebx
  00043	8b e5		 mov	 esp, ebp
  00045	5d		 pop	 ebp
  00046	c2 0c 00	 ret	 12			; 0000000cH
$LN2@PMCCS_Bitw:

; 815  :         try

  00049	c7 45 fc 00 00
	00 00		 mov	 DWORD PTR __$EHRec$[ebp+12], 0

; 816  :         {
; 817  :             *w = PMC_BitwiseAnd_X_X(u, v);

  00050	ff 75 0c	 push	 DWORD PTR _v$[ebp]
  00053	ff 75 08	 push	 DWORD PTR _u$[ebp]
  00056	e8 00 00 00 00	 call	 ?PMC_BitwiseAnd_X_X@Internal@Core@Math@Palmtree@@YGPAU__tag_PMC_HANDLE_UINT@1234@PAU51234@0@Z ; Palmtree::Math::Core::Internal::PMC_BitwiseAnd_X_X
  0005b	89 06		 mov	 DWORD PTR [esi], eax

; 818  :             return (PMC_STATUS_OK);

  0005d	33 c0		 xor	 eax, eax

; 823  :         }
; 824  :     }

  0005f	8b 4d f4	 mov	 ecx, DWORD PTR __$EHRec$[ebp+4]
  00062	64 89 0d 00 00
	00 00		 mov	 DWORD PTR fs:0, ecx
  00069	59		 pop	 ecx
  0006a	5f		 pop	 edi
  0006b	5e		 pop	 esi
  0006c	5b		 pop	 ebx
  0006d	8b e5		 mov	 esp, ebp
  0006f	5d		 pop	 ebp
  00070	c2 0c 00	 ret	 12			; 0000000cH
__catch$_PMCCS_BitwiseAnd_X_X@12$0:
; File z:\sources\lunor\repos\rougemeilland\palmtree.math.core.uint\palmtree.math.core.uint\pmc_exception.h

; 75   :             return (_code);

  00073	8b 45 ec	 mov	 eax, DWORD PTR _ex$2[ebp]
  00076	8b 40 0c	 mov	 eax, DWORD PTR [eax+12]
  00079	89 45 10	 mov	 DWORD PTR $T3[ebp], eax
; File z:\sources\lunor\repos\rougemeilland\palmtree.math.core.uint\palmtree.math.core.uint\pmc_interface_csharp.cpp

; 822  :             return (ex.GetStatusCode());

  0007c	b8 00 00 00 00	 mov	 eax, $LN8@PMCCS_Bitw
  00081	c3		 ret	 0
$LN8@PMCCS_Bitw:
; File z:\sources\lunor\repos\rougemeilland\palmtree.math.core.uint\palmtree.math.core.uint\pmc_exception.h
  00082	c7 45 fc ff ff
	ff ff		 mov	 DWORD PTR __$EHRec$[ebp+12], -1
; File z:\sources\lunor\repos\rougemeilland\palmtree.math.core.uint\palmtree.math.core.uint\pmc_interface_csharp.cpp

; 822  :             return (ex.GetStatusCode());

  00089	8b 45 10	 mov	 eax, DWORD PTR $T3[ebp]

; 823  :         }
; 824  :     }

  0008c	8b 4d f4	 mov	 ecx, DWORD PTR __$EHRec$[ebp+4]
  0008f	64 89 0d 00 00
	00 00		 mov	 DWORD PTR fs:0, ecx
  00096	59		 pop	 ecx
  00097	5f		 pop	 edi
  00098	5e		 pop	 esi
  00099	5b		 pop	 ebx
  0009a	8b e5		 mov	 esp, ebp
  0009c	5d		 pop	 ebp
  0009d	c2 0c 00	 ret	 12			; 0000000cH
_TEXT	ENDS
;	COMDAT text$x
text$x	SEGMENT
__ehhandler$_PMCCS_BitwiseAnd_X_X@12:
  00000	8b 54 24 08	 mov	 edx, DWORD PTR [esp+8]
  00004	8d 42 0c	 lea	 eax, DWORD PTR [edx+12]
  00007	8b 4a e8	 mov	 ecx, DWORD PTR [edx-24]
  0000a	33 c8		 xor	 ecx, eax
  0000c	e8 00 00 00 00	 call	 @__security_check_cookie@4
  00011	b8 00 00 00 00	 mov	 eax, OFFSET __ehfuncinfo$_PMCCS_BitwiseAnd_X_X@12
  00016	e9 00 00 00 00	 jmp	 ___CxxFrameHandler3
text$x	ENDS
_PMCCS_BitwiseAnd_X_X@12 ENDP
; Function compile flags: /Ogtp
; File z:\sources\lunor\repos\rougemeilland\palmtree.math.core.uint\palmtree.math.core.uint\pmc_interface_csharp.cpp
; File z:\sources\lunor\repos\rougemeilland\palmtree.math.core.uint\palmtree.math.core.uint\pmc_exception.h
; File z:\sources\lunor\repos\rougemeilland\palmtree.math.core.uint\palmtree.math.core.uint\pmc_interface_csharp.cpp
;	COMDAT _PMCCS_BitwiseAnd_X_L@16
_TEXT	SEGMENT
_ex$2 = -20						; size = 4
__$EHRec$ = -16						; size = 16
_u$ = 8							; size = 4
_v$ = 12						; size = 8
$T3 = 20						; size = 4
_w$ = 20						; size = 4
_PMCCS_BitwiseAnd_X_L@16 PROC				; COMDAT

; 797  :     {

  00000	55		 push	 ebp
  00001	8b ec		 mov	 ebp, esp
  00003	6a ff		 push	 -1
  00005	68 00 00 00 00	 push	 __ehhandler$_PMCCS_BitwiseAnd_X_L@16
  0000a	64 a1 00 00 00
	00		 mov	 eax, DWORD PTR fs:0
  00010	50		 push	 eax
  00011	83 ec 08	 sub	 esp, 8
  00014	53		 push	 ebx
  00015	56		 push	 esi
  00016	57		 push	 edi
  00017	a1 00 00 00 00	 mov	 eax, DWORD PTR ___security_cookie
  0001c	33 c5		 xor	 eax, ebp
  0001e	50		 push	 eax
  0001f	8d 45 f4	 lea	 eax, DWORD PTR __$EHRec$[ebp+4]
  00022	64 a3 00 00 00
	00		 mov	 DWORD PTR fs:0, eax
  00028	89 65 f0	 mov	 DWORD PTR __$EHRec$[ebp], esp

; 798  :         if (w == nullptr)

  0002b	8b 75 14	 mov	 esi, DWORD PTR _w$[ebp]
  0002e	85 f6		 test	 esi, esi
  00030	75 17		 jne	 SHORT $LN2@PMCCS_Bitw

; 799  :             return (PMC_STATUS_ARGUMENT_NULL_ERROR);

  00032	8d 46 fe	 lea	 eax, DWORD PTR [esi-2]

; 808  :         }
; 809  :     }

  00035	8b 4d f4	 mov	 ecx, DWORD PTR __$EHRec$[ebp+4]
  00038	64 89 0d 00 00
	00 00		 mov	 DWORD PTR fs:0, ecx
  0003f	59		 pop	 ecx
  00040	5f		 pop	 edi
  00041	5e		 pop	 esi
  00042	5b		 pop	 ebx
  00043	8b e5		 mov	 esp, ebp
  00045	5d		 pop	 ebp
  00046	c2 10 00	 ret	 16			; 00000010H
$LN2@PMCCS_Bitw:

; 800  :         try

  00049	c7 45 fc 00 00
	00 00		 mov	 DWORD PTR __$EHRec$[ebp+12], 0

; 801  :         {
; 802  :             *w = PMC_BitwiseAnd_X_L(u, v);

  00050	ff 75 10	 push	 DWORD PTR _v$[ebp+4]
  00053	ff 75 0c	 push	 DWORD PTR _v$[ebp]
  00056	ff 75 08	 push	 DWORD PTR _u$[ebp]
  00059	e8 00 00 00 00	 call	 ?PMC_BitwiseAnd_X_L@Internal@Core@Math@Palmtree@@YG_KPAU__tag_PMC_HANDLE_UINT@1234@_K@Z ; Palmtree::Math::Core::Internal::PMC_BitwiseAnd_X_L
  0005e	89 06		 mov	 DWORD PTR [esi], eax
  00060	89 56 04	 mov	 DWORD PTR [esi+4], edx

; 803  :             return (PMC_STATUS_OK);

  00063	33 c0		 xor	 eax, eax

; 808  :         }
; 809  :     }

  00065	8b 4d f4	 mov	 ecx, DWORD PTR __$EHRec$[ebp+4]
  00068	64 89 0d 00 00
	00 00		 mov	 DWORD PTR fs:0, ecx
  0006f	59		 pop	 ecx
  00070	5f		 pop	 edi
  00071	5e		 pop	 esi
  00072	5b		 pop	 ebx
  00073	8b e5		 mov	 esp, ebp
  00075	5d		 pop	 ebp
  00076	c2 10 00	 ret	 16			; 00000010H
__catch$_PMCCS_BitwiseAnd_X_L@16$0:
; File z:\sources\lunor\repos\rougemeilland\palmtree.math.core.uint\palmtree.math.core.uint\pmc_exception.h

; 75   :             return (_code);

  00079	8b 45 ec	 mov	 eax, DWORD PTR _ex$2[ebp]
  0007c	8b 40 0c	 mov	 eax, DWORD PTR [eax+12]
  0007f	89 45 14	 mov	 DWORD PTR $T3[ebp], eax
; File z:\sources\lunor\repos\rougemeilland\palmtree.math.core.uint\palmtree.math.core.uint\pmc_interface_csharp.cpp

; 807  :             return (ex.GetStatusCode());

  00082	b8 00 00 00 00	 mov	 eax, $LN8@PMCCS_Bitw
  00087	c3		 ret	 0
$LN8@PMCCS_Bitw:
; File z:\sources\lunor\repos\rougemeilland\palmtree.math.core.uint\palmtree.math.core.uint\pmc_exception.h
  00088	c7 45 fc ff ff
	ff ff		 mov	 DWORD PTR __$EHRec$[ebp+12], -1
; File z:\sources\lunor\repos\rougemeilland\palmtree.math.core.uint\palmtree.math.core.uint\pmc_interface_csharp.cpp

; 807  :             return (ex.GetStatusCode());

  0008f	8b 45 14	 mov	 eax, DWORD PTR $T3[ebp]

; 808  :         }
; 809  :     }

  00092	8b 4d f4	 mov	 ecx, DWORD PTR __$EHRec$[ebp+4]
  00095	64 89 0d 00 00
	00 00		 mov	 DWORD PTR fs:0, ecx
  0009c	59		 pop	 ecx
  0009d	5f		 pop	 edi
  0009e	5e		 pop	 esi
  0009f	5b		 pop	 ebx
  000a0	8b e5		 mov	 esp, ebp
  000a2	5d		 pop	 ebp
  000a3	c2 10 00	 ret	 16			; 00000010H
_TEXT	ENDS
;	COMDAT text$x
text$x	SEGMENT
__ehhandler$_PMCCS_BitwiseAnd_X_L@16:
  00000	8b 54 24 08	 mov	 edx, DWORD PTR [esp+8]
  00004	8d 42 0c	 lea	 eax, DWORD PTR [edx+12]
  00007	8b 4a e8	 mov	 ecx, DWORD PTR [edx-24]
  0000a	33 c8		 xor	 ecx, eax
  0000c	e8 00 00 00 00	 call	 @__security_check_cookie@4
  00011	b8 00 00 00 00	 mov	 eax, OFFSET __ehfuncinfo$_PMCCS_BitwiseAnd_X_L@16
  00016	e9 00 00 00 00	 jmp	 ___CxxFrameHandler3
text$x	ENDS
_PMCCS_BitwiseAnd_X_L@16 ENDP
; Function compile flags: /Ogtp
; File z:\sources\lunor\repos\rougemeilland\palmtree.math.core.uint\palmtree.math.core.uint\pmc_interface_csharp.cpp
; File z:\sources\lunor\repos\rougemeilland\palmtree.math.core.uint\palmtree.math.core.uint\pmc_exception.h
; File z:\sources\lunor\repos\rougemeilland\palmtree.math.core.uint\palmtree.math.core.uint\pmc_interface_csharp.cpp
;	COMDAT _PMCCS_BitwiseAnd_X_I@12
_TEXT	SEGMENT
_ex$2 = -20						; size = 4
__$EHRec$ = -16						; size = 16
_u$ = 8							; size = 4
_v$ = 12						; size = 4
$T3 = 16						; size = 4
_w$ = 16						; size = 4
_PMCCS_BitwiseAnd_X_I@12 PROC				; COMDAT

; 782  :     {

  00000	55		 push	 ebp
  00001	8b ec		 mov	 ebp, esp
  00003	6a ff		 push	 -1
  00005	68 00 00 00 00	 push	 __ehhandler$_PMCCS_BitwiseAnd_X_I@12
  0000a	64 a1 00 00 00
	00		 mov	 eax, DWORD PTR fs:0
  00010	50		 push	 eax
  00011	83 ec 08	 sub	 esp, 8
  00014	53		 push	 ebx
  00015	56		 push	 esi
  00016	57		 push	 edi
  00017	a1 00 00 00 00	 mov	 eax, DWORD PTR ___security_cookie
  0001c	33 c5		 xor	 eax, ebp
  0001e	50		 push	 eax
  0001f	8d 45 f4	 lea	 eax, DWORD PTR __$EHRec$[ebp+4]
  00022	64 a3 00 00 00
	00		 mov	 DWORD PTR fs:0, eax
  00028	89 65 f0	 mov	 DWORD PTR __$EHRec$[ebp], esp

; 783  :         if (w == nullptr)

  0002b	8b 75 10	 mov	 esi, DWORD PTR _w$[ebp]
  0002e	85 f6		 test	 esi, esi
  00030	75 17		 jne	 SHORT $LN2@PMCCS_Bitw

; 784  :             return (PMC_STATUS_ARGUMENT_NULL_ERROR);

  00032	8d 46 fe	 lea	 eax, DWORD PTR [esi-2]

; 793  :         }
; 794  :     }

  00035	8b 4d f4	 mov	 ecx, DWORD PTR __$EHRec$[ebp+4]
  00038	64 89 0d 00 00
	00 00		 mov	 DWORD PTR fs:0, ecx
  0003f	59		 pop	 ecx
  00040	5f		 pop	 edi
  00041	5e		 pop	 esi
  00042	5b		 pop	 ebx
  00043	8b e5		 mov	 esp, ebp
  00045	5d		 pop	 ebp
  00046	c2 0c 00	 ret	 12			; 0000000cH
$LN2@PMCCS_Bitw:

; 785  :         try

  00049	c7 45 fc 00 00
	00 00		 mov	 DWORD PTR __$EHRec$[ebp+12], 0

; 786  :         {
; 787  :             *w = PMC_BitwiseAnd_X_I(u, v);

  00050	ff 75 0c	 push	 DWORD PTR _v$[ebp]
  00053	ff 75 08	 push	 DWORD PTR _u$[ebp]
  00056	e8 00 00 00 00	 call	 ?PMC_BitwiseAnd_X_I@Internal@Core@Math@Palmtree@@YGIPAU__tag_PMC_HANDLE_UINT@1234@I@Z ; Palmtree::Math::Core::Internal::PMC_BitwiseAnd_X_I
  0005b	89 06		 mov	 DWORD PTR [esi], eax

; 788  :             return (PMC_STATUS_OK);

  0005d	33 c0		 xor	 eax, eax

; 793  :         }
; 794  :     }

  0005f	8b 4d f4	 mov	 ecx, DWORD PTR __$EHRec$[ebp+4]
  00062	64 89 0d 00 00
	00 00		 mov	 DWORD PTR fs:0, ecx
  00069	59		 pop	 ecx
  0006a	5f		 pop	 edi
  0006b	5e		 pop	 esi
  0006c	5b		 pop	 ebx
  0006d	8b e5		 mov	 esp, ebp
  0006f	5d		 pop	 ebp
  00070	c2 0c 00	 ret	 12			; 0000000cH
__catch$_PMCCS_BitwiseAnd_X_I@12$0:
; File z:\sources\lunor\repos\rougemeilland\palmtree.math.core.uint\palmtree.math.core.uint\pmc_exception.h

; 75   :             return (_code);

  00073	8b 45 ec	 mov	 eax, DWORD PTR _ex$2[ebp]
  00076	8b 40 0c	 mov	 eax, DWORD PTR [eax+12]
  00079	89 45 10	 mov	 DWORD PTR $T3[ebp], eax
; File z:\sources\lunor\repos\rougemeilland\palmtree.math.core.uint\palmtree.math.core.uint\pmc_interface_csharp.cpp

; 792  :             return (ex.GetStatusCode());

  0007c	b8 00 00 00 00	 mov	 eax, $LN8@PMCCS_Bitw
  00081	c3		 ret	 0
$LN8@PMCCS_Bitw:
; File z:\sources\lunor\repos\rougemeilland\palmtree.math.core.uint\palmtree.math.core.uint\pmc_exception.h
  00082	c7 45 fc ff ff
	ff ff		 mov	 DWORD PTR __$EHRec$[ebp+12], -1
; File z:\sources\lunor\repos\rougemeilland\palmtree.math.core.uint\palmtree.math.core.uint\pmc_interface_csharp.cpp

; 792  :             return (ex.GetStatusCode());

  00089	8b 45 10	 mov	 eax, DWORD PTR $T3[ebp]

; 793  :         }
; 794  :     }

  0008c	8b 4d f4	 mov	 ecx, DWORD PTR __$EHRec$[ebp+4]
  0008f	64 89 0d 00 00
	00 00		 mov	 DWORD PTR fs:0, ecx
  00096	59		 pop	 ecx
  00097	5f		 pop	 edi
  00098	5e		 pop	 esi
  00099	5b		 pop	 ebx
  0009a	8b e5		 mov	 esp, ebp
  0009c	5d		 pop	 ebp
  0009d	c2 0c 00	 ret	 12			; 0000000cH
_TEXT	ENDS
;	COMDAT text$x
text$x	SEGMENT
__ehhandler$_PMCCS_BitwiseAnd_X_I@12:
  00000	8b 54 24 08	 mov	 edx, DWORD PTR [esp+8]
  00004	8d 42 0c	 lea	 eax, DWORD PTR [edx+12]
  00007	8b 4a e8	 mov	 ecx, DWORD PTR [edx-24]
  0000a	33 c8		 xor	 ecx, eax
  0000c	e8 00 00 00 00	 call	 @__security_check_cookie@4
  00011	b8 00 00 00 00	 mov	 eax, OFFSET __ehfuncinfo$_PMCCS_BitwiseAnd_X_I@12
  00016	e9 00 00 00 00	 jmp	 ___CxxFrameHandler3
text$x	ENDS
_PMCCS_BitwiseAnd_X_I@12 ENDP
; Function compile flags: /Ogtp
; File z:\sources\lunor\repos\rougemeilland\palmtree.math.core.uint\palmtree.math.core.uint\pmc_interface_csharp.cpp
; File z:\sources\lunor\repos\rougemeilland\palmtree.math.core.uint\palmtree.math.core.uint\pmc_exception.h
; File z:\sources\lunor\repos\rougemeilland\palmtree.math.core.uint\palmtree.math.core.uint\pmc_interface_csharp.cpp
;	COMDAT _PMCCS_BitwiseAnd_L_X@16
_TEXT	SEGMENT
_ex$2 = -20						; size = 4
__$EHRec$ = -16						; size = 16
_u$ = 8							; size = 8
_v$ = 16						; size = 4
$T3 = 20						; size = 4
_w$ = 20						; size = 4
_PMCCS_BitwiseAnd_L_X@16 PROC				; COMDAT

; 767  :     {

  00000	55		 push	 ebp
  00001	8b ec		 mov	 ebp, esp
  00003	6a ff		 push	 -1
  00005	68 00 00 00 00	 push	 __ehhandler$_PMCCS_BitwiseAnd_L_X@16
  0000a	64 a1 00 00 00
	00		 mov	 eax, DWORD PTR fs:0
  00010	50		 push	 eax
  00011	83 ec 08	 sub	 esp, 8
  00014	53		 push	 ebx
  00015	56		 push	 esi
  00016	57		 push	 edi
  00017	a1 00 00 00 00	 mov	 eax, DWORD PTR ___security_cookie
  0001c	33 c5		 xor	 eax, ebp
  0001e	50		 push	 eax
  0001f	8d 45 f4	 lea	 eax, DWORD PTR __$EHRec$[ebp+4]
  00022	64 a3 00 00 00
	00		 mov	 DWORD PTR fs:0, eax
  00028	89 65 f0	 mov	 DWORD PTR __$EHRec$[ebp], esp

; 768  :         if (w == nullptr)

  0002b	8b 75 14	 mov	 esi, DWORD PTR _w$[ebp]
  0002e	85 f6		 test	 esi, esi
  00030	75 17		 jne	 SHORT $LN2@PMCCS_Bitw

; 769  :             return (PMC_STATUS_ARGUMENT_NULL_ERROR);

  00032	8d 46 fe	 lea	 eax, DWORD PTR [esi-2]

; 778  :         }
; 779  :     }

  00035	8b 4d f4	 mov	 ecx, DWORD PTR __$EHRec$[ebp+4]
  00038	64 89 0d 00 00
	00 00		 mov	 DWORD PTR fs:0, ecx
  0003f	59		 pop	 ecx
  00040	5f		 pop	 edi
  00041	5e		 pop	 esi
  00042	5b		 pop	 ebx
  00043	8b e5		 mov	 esp, ebp
  00045	5d		 pop	 ebp
  00046	c2 10 00	 ret	 16			; 00000010H
$LN2@PMCCS_Bitw:

; 770  :         try

  00049	c7 45 fc 00 00
	00 00		 mov	 DWORD PTR __$EHRec$[ebp+12], 0

; 771  :         {
; 772  :             *w = PMC_BitwiseAnd_L_X(u, v);

  00050	ff 75 10	 push	 DWORD PTR _v$[ebp]
  00053	ff 75 0c	 push	 DWORD PTR _u$[ebp+4]
  00056	ff 75 08	 push	 DWORD PTR _u$[ebp]
  00059	e8 00 00 00 00	 call	 ?PMC_BitwiseAnd_L_X@Internal@Core@Math@Palmtree@@YG_K_KPAU__tag_PMC_HANDLE_UINT@1234@@Z ; Palmtree::Math::Core::Internal::PMC_BitwiseAnd_L_X
  0005e	89 06		 mov	 DWORD PTR [esi], eax
  00060	89 56 04	 mov	 DWORD PTR [esi+4], edx

; 773  :             return (PMC_STATUS_OK);

  00063	33 c0		 xor	 eax, eax

; 778  :         }
; 779  :     }

  00065	8b 4d f4	 mov	 ecx, DWORD PTR __$EHRec$[ebp+4]
  00068	64 89 0d 00 00
	00 00		 mov	 DWORD PTR fs:0, ecx
  0006f	59		 pop	 ecx
  00070	5f		 pop	 edi
  00071	5e		 pop	 esi
  00072	5b		 pop	 ebx
  00073	8b e5		 mov	 esp, ebp
  00075	5d		 pop	 ebp
  00076	c2 10 00	 ret	 16			; 00000010H
__catch$_PMCCS_BitwiseAnd_L_X@16$0:
; File z:\sources\lunor\repos\rougemeilland\palmtree.math.core.uint\palmtree.math.core.uint\pmc_exception.h

; 75   :             return (_code);

  00079	8b 45 ec	 mov	 eax, DWORD PTR _ex$2[ebp]
  0007c	8b 40 0c	 mov	 eax, DWORD PTR [eax+12]
  0007f	89 45 14	 mov	 DWORD PTR $T3[ebp], eax
; File z:\sources\lunor\repos\rougemeilland\palmtree.math.core.uint\palmtree.math.core.uint\pmc_interface_csharp.cpp

; 777  :             return (ex.GetStatusCode());

  00082	b8 00 00 00 00	 mov	 eax, $LN8@PMCCS_Bitw
  00087	c3		 ret	 0
$LN8@PMCCS_Bitw:
; File z:\sources\lunor\repos\rougemeilland\palmtree.math.core.uint\palmtree.math.core.uint\pmc_exception.h
  00088	c7 45 fc ff ff
	ff ff		 mov	 DWORD PTR __$EHRec$[ebp+12], -1
; File z:\sources\lunor\repos\rougemeilland\palmtree.math.core.uint\palmtree.math.core.uint\pmc_interface_csharp.cpp

; 777  :             return (ex.GetStatusCode());

  0008f	8b 45 14	 mov	 eax, DWORD PTR $T3[ebp]

; 778  :         }
; 779  :     }

  00092	8b 4d f4	 mov	 ecx, DWORD PTR __$EHRec$[ebp+4]
  00095	64 89 0d 00 00
	00 00		 mov	 DWORD PTR fs:0, ecx
  0009c	59		 pop	 ecx
  0009d	5f		 pop	 edi
  0009e	5e		 pop	 esi
  0009f	5b		 pop	 ebx
  000a0	8b e5		 mov	 esp, ebp
  000a2	5d		 pop	 ebp
  000a3	c2 10 00	 ret	 16			; 00000010H
_TEXT	ENDS
;	COMDAT text$x
text$x	SEGMENT
__ehhandler$_PMCCS_BitwiseAnd_L_X@16:
  00000	8b 54 24 08	 mov	 edx, DWORD PTR [esp+8]
  00004	8d 42 0c	 lea	 eax, DWORD PTR [edx+12]
  00007	8b 4a e8	 mov	 ecx, DWORD PTR [edx-24]
  0000a	33 c8		 xor	 ecx, eax
  0000c	e8 00 00 00 00	 call	 @__security_check_cookie@4
  00011	b8 00 00 00 00	 mov	 eax, OFFSET __ehfuncinfo$_PMCCS_BitwiseAnd_L_X@16
  00016	e9 00 00 00 00	 jmp	 ___CxxFrameHandler3
text$x	ENDS
_PMCCS_BitwiseAnd_L_X@16 ENDP
; Function compile flags: /Ogtp
; File z:\sources\lunor\repos\rougemeilland\palmtree.math.core.uint\palmtree.math.core.uint\pmc_interface_csharp.cpp
; File z:\sources\lunor\repos\rougemeilland\palmtree.math.core.uint\palmtree.math.core.uint\pmc_exception.h
; File z:\sources\lunor\repos\rougemeilland\palmtree.math.core.uint\palmtree.math.core.uint\pmc_interface_csharp.cpp
;	COMDAT _PMCCS_BitwiseAnd_I_X@12
_TEXT	SEGMENT
_ex$2 = -20						; size = 4
__$EHRec$ = -16						; size = 16
_u$ = 8							; size = 4
_v$ = 12						; size = 4
$T3 = 16						; size = 4
_w$ = 16						; size = 4
_PMCCS_BitwiseAnd_I_X@12 PROC				; COMDAT

; 752  :     {

  00000	55		 push	 ebp
  00001	8b ec		 mov	 ebp, esp
  00003	6a ff		 push	 -1
  00005	68 00 00 00 00	 push	 __ehhandler$_PMCCS_BitwiseAnd_I_X@12
  0000a	64 a1 00 00 00
	00		 mov	 eax, DWORD PTR fs:0
  00010	50		 push	 eax
  00011	83 ec 08	 sub	 esp, 8
  00014	53		 push	 ebx
  00015	56		 push	 esi
  00016	57		 push	 edi
  00017	a1 00 00 00 00	 mov	 eax, DWORD PTR ___security_cookie
  0001c	33 c5		 xor	 eax, ebp
  0001e	50		 push	 eax
  0001f	8d 45 f4	 lea	 eax, DWORD PTR __$EHRec$[ebp+4]
  00022	64 a3 00 00 00
	00		 mov	 DWORD PTR fs:0, eax
  00028	89 65 f0	 mov	 DWORD PTR __$EHRec$[ebp], esp

; 753  :         if (w == nullptr)

  0002b	8b 75 10	 mov	 esi, DWORD PTR _w$[ebp]
  0002e	85 f6		 test	 esi, esi
  00030	75 17		 jne	 SHORT $LN2@PMCCS_Bitw

; 754  :             return (PMC_STATUS_ARGUMENT_NULL_ERROR);

  00032	8d 46 fe	 lea	 eax, DWORD PTR [esi-2]

; 763  :         }
; 764  :     }

  00035	8b 4d f4	 mov	 ecx, DWORD PTR __$EHRec$[ebp+4]
  00038	64 89 0d 00 00
	00 00		 mov	 DWORD PTR fs:0, ecx
  0003f	59		 pop	 ecx
  00040	5f		 pop	 edi
  00041	5e		 pop	 esi
  00042	5b		 pop	 ebx
  00043	8b e5		 mov	 esp, ebp
  00045	5d		 pop	 ebp
  00046	c2 0c 00	 ret	 12			; 0000000cH
$LN2@PMCCS_Bitw:

; 755  :         try

  00049	c7 45 fc 00 00
	00 00		 mov	 DWORD PTR __$EHRec$[ebp+12], 0

; 756  :         {
; 757  :             *w = PMC_BitwiseAnd_I_X(u, v);

  00050	ff 75 0c	 push	 DWORD PTR _v$[ebp]
  00053	ff 75 08	 push	 DWORD PTR _u$[ebp]
  00056	e8 00 00 00 00	 call	 ?PMC_BitwiseAnd_I_X@Internal@Core@Math@Palmtree@@YGIIPAU__tag_PMC_HANDLE_UINT@1234@@Z ; Palmtree::Math::Core::Internal::PMC_BitwiseAnd_I_X
  0005b	89 06		 mov	 DWORD PTR [esi], eax

; 758  :             return (PMC_STATUS_OK);

  0005d	33 c0		 xor	 eax, eax

; 763  :         }
; 764  :     }

  0005f	8b 4d f4	 mov	 ecx, DWORD PTR __$EHRec$[ebp+4]
  00062	64 89 0d 00 00
	00 00		 mov	 DWORD PTR fs:0, ecx
  00069	59		 pop	 ecx
  0006a	5f		 pop	 edi
  0006b	5e		 pop	 esi
  0006c	5b		 pop	 ebx
  0006d	8b e5		 mov	 esp, ebp
  0006f	5d		 pop	 ebp
  00070	c2 0c 00	 ret	 12			; 0000000cH
__catch$_PMCCS_BitwiseAnd_I_X@12$0:
; File z:\sources\lunor\repos\rougemeilland\palmtree.math.core.uint\palmtree.math.core.uint\pmc_exception.h

; 75   :             return (_code);

  00073	8b 45 ec	 mov	 eax, DWORD PTR _ex$2[ebp]
  00076	8b 40 0c	 mov	 eax, DWORD PTR [eax+12]
  00079	89 45 10	 mov	 DWORD PTR $T3[ebp], eax
; File z:\sources\lunor\repos\rougemeilland\palmtree.math.core.uint\palmtree.math.core.uint\pmc_interface_csharp.cpp

; 762  :             return (ex.GetStatusCode());

  0007c	b8 00 00 00 00	 mov	 eax, $LN8@PMCCS_Bitw
  00081	c3		 ret	 0
$LN8@PMCCS_Bitw:
; File z:\sources\lunor\repos\rougemeilland\palmtree.math.core.uint\palmtree.math.core.uint\pmc_exception.h
  00082	c7 45 fc ff ff
	ff ff		 mov	 DWORD PTR __$EHRec$[ebp+12], -1
; File z:\sources\lunor\repos\rougemeilland\palmtree.math.core.uint\palmtree.math.core.uint\pmc_interface_csharp.cpp

; 762  :             return (ex.GetStatusCode());

  00089	8b 45 10	 mov	 eax, DWORD PTR $T3[ebp]

; 763  :         }
; 764  :     }

  0008c	8b 4d f4	 mov	 ecx, DWORD PTR __$EHRec$[ebp+4]
  0008f	64 89 0d 00 00
	00 00		 mov	 DWORD PTR fs:0, ecx
  00096	59		 pop	 ecx
  00097	5f		 pop	 edi
  00098	5e		 pop	 esi
  00099	5b		 pop	 ebx
  0009a	8b e5		 mov	 esp, ebp
  0009c	5d		 pop	 ebp
  0009d	c2 0c 00	 ret	 12			; 0000000cH
_TEXT	ENDS
;	COMDAT text$x
text$x	SEGMENT
__ehhandler$_PMCCS_BitwiseAnd_I_X@12:
  00000	8b 54 24 08	 mov	 edx, DWORD PTR [esp+8]
  00004	8d 42 0c	 lea	 eax, DWORD PTR [edx+12]
  00007	8b 4a e8	 mov	 ecx, DWORD PTR [edx-24]
  0000a	33 c8		 xor	 ecx, eax
  0000c	e8 00 00 00 00	 call	 @__security_check_cookie@4
  00011	b8 00 00 00 00	 mov	 eax, OFFSET __ehfuncinfo$_PMCCS_BitwiseAnd_I_X@12
  00016	e9 00 00 00 00	 jmp	 ___CxxFrameHandler3
text$x	ENDS
_PMCCS_BitwiseAnd_I_X@12 ENDP
; Function compile flags: /Ogtp
; File z:\sources\lunor\repos\rougemeilland\palmtree.math.core.uint\palmtree.math.core.uint\pmc_interface_csharp.cpp
; File z:\sources\lunor\repos\rougemeilland\palmtree.math.core.uint\palmtree.math.core.uint\pmc_exception.h
; File z:\sources\lunor\repos\rougemeilland\palmtree.math.core.uint\palmtree.math.core.uint\pmc_interface_csharp.cpp
;	COMDAT _PMCCS_LeftShift_X_I@12
_TEXT	SEGMENT
_ex$2 = -20						; size = 4
__$EHRec$ = -16						; size = 16
_p$ = 8							; size = 4
_n$ = 12						; size = 4
$T3 = 16						; size = 4
_o$ = 16						; size = 4
_PMCCS_LeftShift_X_I@12 PROC				; COMDAT

; 737  :     {

  00000	55		 push	 ebp
  00001	8b ec		 mov	 ebp, esp
  00003	6a ff		 push	 -1
  00005	68 00 00 00 00	 push	 __ehhandler$_PMCCS_LeftShift_X_I@12
  0000a	64 a1 00 00 00
	00		 mov	 eax, DWORD PTR fs:0
  00010	50		 push	 eax
  00011	83 ec 08	 sub	 esp, 8
  00014	53		 push	 ebx
  00015	56		 push	 esi
  00016	57		 push	 edi
  00017	a1 00 00 00 00	 mov	 eax, DWORD PTR ___security_cookie
  0001c	33 c5		 xor	 eax, ebp
  0001e	50		 push	 eax
  0001f	8d 45 f4	 lea	 eax, DWORD PTR __$EHRec$[ebp+4]
  00022	64 a3 00 00 00
	00		 mov	 DWORD PTR fs:0, eax
  00028	89 65 f0	 mov	 DWORD PTR __$EHRec$[ebp], esp

; 738  :         if (o == nullptr)

  0002b	8b 75 10	 mov	 esi, DWORD PTR _o$[ebp]
  0002e	85 f6		 test	 esi, esi
  00030	75 17		 jne	 SHORT $LN2@PMCCS_Left

; 739  :             return (PMC_STATUS_ARGUMENT_NULL_ERROR);

  00032	8d 46 fe	 lea	 eax, DWORD PTR [esi-2]

; 748  :         }
; 749  :     }

  00035	8b 4d f4	 mov	 ecx, DWORD PTR __$EHRec$[ebp+4]
  00038	64 89 0d 00 00
	00 00		 mov	 DWORD PTR fs:0, ecx
  0003f	59		 pop	 ecx
  00040	5f		 pop	 edi
  00041	5e		 pop	 esi
  00042	5b		 pop	 ebx
  00043	8b e5		 mov	 esp, ebp
  00045	5d		 pop	 ebp
  00046	c2 0c 00	 ret	 12			; 0000000cH
$LN2@PMCCS_Left:

; 740  :         try

  00049	c7 45 fc 00 00
	00 00		 mov	 DWORD PTR __$EHRec$[ebp+12], 0

; 741  :         {
; 742  :             *o = PMC_LeftShift_X_I(p, n);

  00050	ff 75 0c	 push	 DWORD PTR _n$[ebp]
  00053	ff 75 08	 push	 DWORD PTR _p$[ebp]
  00056	e8 00 00 00 00	 call	 ?PMC_LeftShift_X_I@Internal@Core@Math@Palmtree@@YGPAU__tag_PMC_HANDLE_UINT@1234@PAU51234@H@Z ; Palmtree::Math::Core::Internal::PMC_LeftShift_X_I
  0005b	89 06		 mov	 DWORD PTR [esi], eax

; 743  :             return (PMC_STATUS_OK);

  0005d	33 c0		 xor	 eax, eax

; 748  :         }
; 749  :     }

  0005f	8b 4d f4	 mov	 ecx, DWORD PTR __$EHRec$[ebp+4]
  00062	64 89 0d 00 00
	00 00		 mov	 DWORD PTR fs:0, ecx
  00069	59		 pop	 ecx
  0006a	5f		 pop	 edi
  0006b	5e		 pop	 esi
  0006c	5b		 pop	 ebx
  0006d	8b e5		 mov	 esp, ebp
  0006f	5d		 pop	 ebp
  00070	c2 0c 00	 ret	 12			; 0000000cH
__catch$_PMCCS_LeftShift_X_I@12$0:
; File z:\sources\lunor\repos\rougemeilland\palmtree.math.core.uint\palmtree.math.core.uint\pmc_exception.h

; 75   :             return (_code);

  00073	8b 45 ec	 mov	 eax, DWORD PTR _ex$2[ebp]
  00076	8b 40 0c	 mov	 eax, DWORD PTR [eax+12]
  00079	89 45 10	 mov	 DWORD PTR $T3[ebp], eax
; File z:\sources\lunor\repos\rougemeilland\palmtree.math.core.uint\palmtree.math.core.uint\pmc_interface_csharp.cpp

; 747  :             return (ex.GetStatusCode());

  0007c	b8 00 00 00 00	 mov	 eax, $LN8@PMCCS_Left
  00081	c3		 ret	 0
$LN8@PMCCS_Left:
; File z:\sources\lunor\repos\rougemeilland\palmtree.math.core.uint\palmtree.math.core.uint\pmc_exception.h
  00082	c7 45 fc ff ff
	ff ff		 mov	 DWORD PTR __$EHRec$[ebp+12], -1
; File z:\sources\lunor\repos\rougemeilland\palmtree.math.core.uint\palmtree.math.core.uint\pmc_interface_csharp.cpp

; 747  :             return (ex.GetStatusCode());

  00089	8b 45 10	 mov	 eax, DWORD PTR $T3[ebp]

; 748  :         }
; 749  :     }

  0008c	8b 4d f4	 mov	 ecx, DWORD PTR __$EHRec$[ebp+4]
  0008f	64 89 0d 00 00
	00 00		 mov	 DWORD PTR fs:0, ecx
  00096	59		 pop	 ecx
  00097	5f		 pop	 edi
  00098	5e		 pop	 esi
  00099	5b		 pop	 ebx
  0009a	8b e5		 mov	 esp, ebp
  0009c	5d		 pop	 ebp
  0009d	c2 0c 00	 ret	 12			; 0000000cH
_TEXT	ENDS
;	COMDAT text$x
text$x	SEGMENT
__ehhandler$_PMCCS_LeftShift_X_I@12:
  00000	8b 54 24 08	 mov	 edx, DWORD PTR [esp+8]
  00004	8d 42 0c	 lea	 eax, DWORD PTR [edx+12]
  00007	8b 4a e8	 mov	 ecx, DWORD PTR [edx-24]
  0000a	33 c8		 xor	 ecx, eax
  0000c	e8 00 00 00 00	 call	 @__security_check_cookie@4
  00011	b8 00 00 00 00	 mov	 eax, OFFSET __ehfuncinfo$_PMCCS_LeftShift_X_I@12
  00016	e9 00 00 00 00	 jmp	 ___CxxFrameHandler3
text$x	ENDS
_PMCCS_LeftShift_X_I@12 ENDP
; Function compile flags: /Ogtp
; File z:\sources\lunor\repos\rougemeilland\palmtree.math.core.uint\palmtree.math.core.uint\pmc_interface_csharp.cpp
; File z:\sources\lunor\repos\rougemeilland\palmtree.math.core.uint\palmtree.math.core.uint\pmc_exception.h
; File z:\sources\lunor\repos\rougemeilland\palmtree.math.core.uint\palmtree.math.core.uint\pmc_interface_csharp.cpp
;	COMDAT _PMCCS_RightShift_X_I@12
_TEXT	SEGMENT
_ex$2 = -20						; size = 4
__$EHRec$ = -16						; size = 16
_p$ = 8							; size = 4
_n$ = 12						; size = 4
$T3 = 16						; size = 4
_o$ = 16						; size = 4
_PMCCS_RightShift_X_I@12 PROC				; COMDAT

; 722  :     {

  00000	55		 push	 ebp
  00001	8b ec		 mov	 ebp, esp
  00003	6a ff		 push	 -1
  00005	68 00 00 00 00	 push	 __ehhandler$_PMCCS_RightShift_X_I@12
  0000a	64 a1 00 00 00
	00		 mov	 eax, DWORD PTR fs:0
  00010	50		 push	 eax
  00011	83 ec 08	 sub	 esp, 8
  00014	53		 push	 ebx
  00015	56		 push	 esi
  00016	57		 push	 edi
  00017	a1 00 00 00 00	 mov	 eax, DWORD PTR ___security_cookie
  0001c	33 c5		 xor	 eax, ebp
  0001e	50		 push	 eax
  0001f	8d 45 f4	 lea	 eax, DWORD PTR __$EHRec$[ebp+4]
  00022	64 a3 00 00 00
	00		 mov	 DWORD PTR fs:0, eax
  00028	89 65 f0	 mov	 DWORD PTR __$EHRec$[ebp], esp

; 723  :         if (o == nullptr)

  0002b	8b 75 10	 mov	 esi, DWORD PTR _o$[ebp]
  0002e	85 f6		 test	 esi, esi
  00030	75 17		 jne	 SHORT $LN2@PMCCS_Righ

; 724  :             return (PMC_STATUS_ARGUMENT_NULL_ERROR);

  00032	8d 46 fe	 lea	 eax, DWORD PTR [esi-2]

; 733  :         }
; 734  :     }

  00035	8b 4d f4	 mov	 ecx, DWORD PTR __$EHRec$[ebp+4]
  00038	64 89 0d 00 00
	00 00		 mov	 DWORD PTR fs:0, ecx
  0003f	59		 pop	 ecx
  00040	5f		 pop	 edi
  00041	5e		 pop	 esi
  00042	5b		 pop	 ebx
  00043	8b e5		 mov	 esp, ebp
  00045	5d		 pop	 ebp
  00046	c2 0c 00	 ret	 12			; 0000000cH
$LN2@PMCCS_Righ:

; 725  :         try

  00049	c7 45 fc 00 00
	00 00		 mov	 DWORD PTR __$EHRec$[ebp+12], 0

; 726  :         {
; 727  :             *o = PMC_RightShift_X_I(p, n);

  00050	ff 75 0c	 push	 DWORD PTR _n$[ebp]
  00053	ff 75 08	 push	 DWORD PTR _p$[ebp]
  00056	e8 00 00 00 00	 call	 ?PMC_RightShift_X_I@Internal@Core@Math@Palmtree@@YGPAU__tag_PMC_HANDLE_UINT@1234@PAU51234@H@Z ; Palmtree::Math::Core::Internal::PMC_RightShift_X_I
  0005b	89 06		 mov	 DWORD PTR [esi], eax

; 728  :             return (PMC_STATUS_OK);

  0005d	33 c0		 xor	 eax, eax

; 733  :         }
; 734  :     }

  0005f	8b 4d f4	 mov	 ecx, DWORD PTR __$EHRec$[ebp+4]
  00062	64 89 0d 00 00
	00 00		 mov	 DWORD PTR fs:0, ecx
  00069	59		 pop	 ecx
  0006a	5f		 pop	 edi
  0006b	5e		 pop	 esi
  0006c	5b		 pop	 ebx
  0006d	8b e5		 mov	 esp, ebp
  0006f	5d		 pop	 ebp
  00070	c2 0c 00	 ret	 12			; 0000000cH
__catch$_PMCCS_RightShift_X_I@12$0:
; File z:\sources\lunor\repos\rougemeilland\palmtree.math.core.uint\palmtree.math.core.uint\pmc_exception.h

; 75   :             return (_code);

  00073	8b 45 ec	 mov	 eax, DWORD PTR _ex$2[ebp]
  00076	8b 40 0c	 mov	 eax, DWORD PTR [eax+12]
  00079	89 45 10	 mov	 DWORD PTR $T3[ebp], eax
; File z:\sources\lunor\repos\rougemeilland\palmtree.math.core.uint\palmtree.math.core.uint\pmc_interface_csharp.cpp

; 732  :             return (ex.GetStatusCode());

  0007c	b8 00 00 00 00	 mov	 eax, $LN8@PMCCS_Righ
  00081	c3		 ret	 0
$LN8@PMCCS_Righ:
; File z:\sources\lunor\repos\rougemeilland\palmtree.math.core.uint\palmtree.math.core.uint\pmc_exception.h
  00082	c7 45 fc ff ff
	ff ff		 mov	 DWORD PTR __$EHRec$[ebp+12], -1
; File z:\sources\lunor\repos\rougemeilland\palmtree.math.core.uint\palmtree.math.core.uint\pmc_interface_csharp.cpp

; 732  :             return (ex.GetStatusCode());

  00089	8b 45 10	 mov	 eax, DWORD PTR $T3[ebp]

; 733  :         }
; 734  :     }

  0008c	8b 4d f4	 mov	 ecx, DWORD PTR __$EHRec$[ebp+4]
  0008f	64 89 0d 00 00
	00 00		 mov	 DWORD PTR fs:0, ecx
  00096	59		 pop	 ecx
  00097	5f		 pop	 edi
  00098	5e		 pop	 esi
  00099	5b		 pop	 ebx
  0009a	8b e5		 mov	 esp, ebp
  0009c	5d		 pop	 ebp
  0009d	c2 0c 00	 ret	 12			; 0000000cH
_TEXT	ENDS
;	COMDAT text$x
text$x	SEGMENT
__ehhandler$_PMCCS_RightShift_X_I@12:
  00000	8b 54 24 08	 mov	 edx, DWORD PTR [esp+8]
  00004	8d 42 0c	 lea	 eax, DWORD PTR [edx+12]
  00007	8b 4a e8	 mov	 ecx, DWORD PTR [edx-24]
  0000a	33 c8		 xor	 ecx, eax
  0000c	e8 00 00 00 00	 call	 @__security_check_cookie@4
  00011	b8 00 00 00 00	 mov	 eax, OFFSET __ehfuncinfo$_PMCCS_RightShift_X_I@12
  00016	e9 00 00 00 00	 jmp	 ___CxxFrameHandler3
text$x	ENDS
_PMCCS_RightShift_X_I@12 ENDP
; Function compile flags: /Ogtp
; File z:\sources\lunor\repos\rougemeilland\palmtree.math.core.uint\palmtree.math.core.uint\pmc_interface_csharp.cpp
; File z:\sources\lunor\repos\rougemeilland\palmtree.math.core.uint\palmtree.math.core.uint\pmc_exception.h
; File z:\sources\lunor\repos\rougemeilland\palmtree.math.core.uint\palmtree.math.core.uint\pmc_interface_csharp.cpp
;	COMDAT _PMCCS_Remainder_X_X@12
_TEXT	SEGMENT
_ex$2 = -20						; size = 4
__$EHRec$ = -16						; size = 16
_u$ = 8							; size = 4
_v$ = 12						; size = 4
$T3 = 16						; size = 4
_r$ = 16						; size = 4
_PMCCS_Remainder_X_X@12 PROC				; COMDAT

; 707  :     {

  00000	55		 push	 ebp
  00001	8b ec		 mov	 ebp, esp
  00003	6a ff		 push	 -1
  00005	68 00 00 00 00	 push	 __ehhandler$_PMCCS_Remainder_X_X@12
  0000a	64 a1 00 00 00
	00		 mov	 eax, DWORD PTR fs:0
  00010	50		 push	 eax
  00011	83 ec 08	 sub	 esp, 8
  00014	53		 push	 ebx
  00015	56		 push	 esi
  00016	57		 push	 edi
  00017	a1 00 00 00 00	 mov	 eax, DWORD PTR ___security_cookie
  0001c	33 c5		 xor	 eax, ebp
  0001e	50		 push	 eax
  0001f	8d 45 f4	 lea	 eax, DWORD PTR __$EHRec$[ebp+4]
  00022	64 a3 00 00 00
	00		 mov	 DWORD PTR fs:0, eax
  00028	89 65 f0	 mov	 DWORD PTR __$EHRec$[ebp], esp

; 708  :         if (r == nullptr)

  0002b	8b 75 10	 mov	 esi, DWORD PTR _r$[ebp]
  0002e	85 f6		 test	 esi, esi
  00030	75 17		 jne	 SHORT $LN2@PMCCS_Rema

; 709  :             return (PMC_STATUS_ARGUMENT_NULL_ERROR);

  00032	8d 46 fe	 lea	 eax, DWORD PTR [esi-2]

; 718  :         }
; 719  :     }

  00035	8b 4d f4	 mov	 ecx, DWORD PTR __$EHRec$[ebp+4]
  00038	64 89 0d 00 00
	00 00		 mov	 DWORD PTR fs:0, ecx
  0003f	59		 pop	 ecx
  00040	5f		 pop	 edi
  00041	5e		 pop	 esi
  00042	5b		 pop	 ebx
  00043	8b e5		 mov	 esp, ebp
  00045	5d		 pop	 ebp
  00046	c2 0c 00	 ret	 12			; 0000000cH
$LN2@PMCCS_Rema:

; 710  :         try

  00049	c7 45 fc 00 00
	00 00		 mov	 DWORD PTR __$EHRec$[ebp+12], 0

; 711  :         {
; 712  :             *r = PMC_DivRem_X_X(u, v, nullptr);

  00050	6a 00		 push	 0
  00052	ff 75 0c	 push	 DWORD PTR _v$[ebp]
  00055	ff 75 08	 push	 DWORD PTR _u$[ebp]
  00058	e8 00 00 00 00	 call	 ?PMC_DivRem_X_X@Internal@Core@Math@Palmtree@@YGPAU__tag_PMC_HANDLE_UINT@1234@PAU51234@0PAPAU51234@@Z ; Palmtree::Math::Core::Internal::PMC_DivRem_X_X
  0005d	89 06		 mov	 DWORD PTR [esi], eax

; 713  :             return (PMC_STATUS_OK);

  0005f	33 c0		 xor	 eax, eax

; 718  :         }
; 719  :     }

  00061	8b 4d f4	 mov	 ecx, DWORD PTR __$EHRec$[ebp+4]
  00064	64 89 0d 00 00
	00 00		 mov	 DWORD PTR fs:0, ecx
  0006b	59		 pop	 ecx
  0006c	5f		 pop	 edi
  0006d	5e		 pop	 esi
  0006e	5b		 pop	 ebx
  0006f	8b e5		 mov	 esp, ebp
  00071	5d		 pop	 ebp
  00072	c2 0c 00	 ret	 12			; 0000000cH
__catch$_PMCCS_Remainder_X_X@12$0:
; File z:\sources\lunor\repos\rougemeilland\palmtree.math.core.uint\palmtree.math.core.uint\pmc_exception.h

; 75   :             return (_code);

  00075	8b 45 ec	 mov	 eax, DWORD PTR _ex$2[ebp]
  00078	8b 40 0c	 mov	 eax, DWORD PTR [eax+12]
  0007b	89 45 10	 mov	 DWORD PTR $T3[ebp], eax
; File z:\sources\lunor\repos\rougemeilland\palmtree.math.core.uint\palmtree.math.core.uint\pmc_interface_csharp.cpp

; 717  :             return (ex.GetStatusCode());

  0007e	b8 00 00 00 00	 mov	 eax, $LN8@PMCCS_Rema
  00083	c3		 ret	 0
$LN8@PMCCS_Rema:
; File z:\sources\lunor\repos\rougemeilland\palmtree.math.core.uint\palmtree.math.core.uint\pmc_exception.h
  00084	c7 45 fc ff ff
	ff ff		 mov	 DWORD PTR __$EHRec$[ebp+12], -1
; File z:\sources\lunor\repos\rougemeilland\palmtree.math.core.uint\palmtree.math.core.uint\pmc_interface_csharp.cpp

; 717  :             return (ex.GetStatusCode());

  0008b	8b 45 10	 mov	 eax, DWORD PTR $T3[ebp]

; 718  :         }
; 719  :     }

  0008e	8b 4d f4	 mov	 ecx, DWORD PTR __$EHRec$[ebp+4]
  00091	64 89 0d 00 00
	00 00		 mov	 DWORD PTR fs:0, ecx
  00098	59		 pop	 ecx
  00099	5f		 pop	 edi
  0009a	5e		 pop	 esi
  0009b	5b		 pop	 ebx
  0009c	8b e5		 mov	 esp, ebp
  0009e	5d		 pop	 ebp
  0009f	c2 0c 00	 ret	 12			; 0000000cH
_TEXT	ENDS
;	COMDAT text$x
text$x	SEGMENT
__ehhandler$_PMCCS_Remainder_X_X@12:
  00000	8b 54 24 08	 mov	 edx, DWORD PTR [esp+8]
  00004	8d 42 0c	 lea	 eax, DWORD PTR [edx+12]
  00007	8b 4a e8	 mov	 ecx, DWORD PTR [edx-24]
  0000a	33 c8		 xor	 ecx, eax
  0000c	e8 00 00 00 00	 call	 @__security_check_cookie@4
  00011	b8 00 00 00 00	 mov	 eax, OFFSET __ehfuncinfo$_PMCCS_Remainder_X_X@12
  00016	e9 00 00 00 00	 jmp	 ___CxxFrameHandler3
text$x	ENDS
_PMCCS_Remainder_X_X@12 ENDP
; Function compile flags: /Ogtp
; File z:\sources\lunor\repos\rougemeilland\palmtree.math.core.uint\palmtree.math.core.uint\pmc_interface_csharp.cpp
; File z:\sources\lunor\repos\rougemeilland\palmtree.math.core.uint\palmtree.math.core.uint\pmc_exception.h
; File z:\sources\lunor\repos\rougemeilland\palmtree.math.core.uint\palmtree.math.core.uint\pmc_interface_csharp.cpp
;	COMDAT _PMCCS_Remainder_X_L@16
_TEXT	SEGMENT
_ex$2 = -20						; size = 4
__$EHRec$ = -16						; size = 16
_u$ = 8							; size = 4
_v$ = 12						; size = 8
$T3 = 20						; size = 4
_r$ = 20						; size = 4
_PMCCS_Remainder_X_L@16 PROC				; COMDAT

; 692  :     {

  00000	55		 push	 ebp
  00001	8b ec		 mov	 ebp, esp
  00003	6a ff		 push	 -1
  00005	68 00 00 00 00	 push	 __ehhandler$_PMCCS_Remainder_X_L@16
  0000a	64 a1 00 00 00
	00		 mov	 eax, DWORD PTR fs:0
  00010	50		 push	 eax
  00011	83 ec 08	 sub	 esp, 8
  00014	53		 push	 ebx
  00015	56		 push	 esi
  00016	57		 push	 edi
  00017	a1 00 00 00 00	 mov	 eax, DWORD PTR ___security_cookie
  0001c	33 c5		 xor	 eax, ebp
  0001e	50		 push	 eax
  0001f	8d 45 f4	 lea	 eax, DWORD PTR __$EHRec$[ebp+4]
  00022	64 a3 00 00 00
	00		 mov	 DWORD PTR fs:0, eax
  00028	89 65 f0	 mov	 DWORD PTR __$EHRec$[ebp], esp

; 693  :         if (r == nullptr)

  0002b	8b 75 14	 mov	 esi, DWORD PTR _r$[ebp]
  0002e	85 f6		 test	 esi, esi
  00030	75 17		 jne	 SHORT $LN2@PMCCS_Rema

; 694  :             return (PMC_STATUS_ARGUMENT_NULL_ERROR);

  00032	8d 46 fe	 lea	 eax, DWORD PTR [esi-2]

; 703  :         }
; 704  :     }

  00035	8b 4d f4	 mov	 ecx, DWORD PTR __$EHRec$[ebp+4]
  00038	64 89 0d 00 00
	00 00		 mov	 DWORD PTR fs:0, ecx
  0003f	59		 pop	 ecx
  00040	5f		 pop	 edi
  00041	5e		 pop	 esi
  00042	5b		 pop	 ebx
  00043	8b e5		 mov	 esp, ebp
  00045	5d		 pop	 ebp
  00046	c2 10 00	 ret	 16			; 00000010H
$LN2@PMCCS_Rema:

; 695  :         try

  00049	c7 45 fc 00 00
	00 00		 mov	 DWORD PTR __$EHRec$[ebp+12], 0

; 696  :         {
; 697  :             *r = PMC_DivRem_X_L(u, v, nullptr);

  00050	6a 00		 push	 0
  00052	ff 75 10	 push	 DWORD PTR _v$[ebp+4]
  00055	ff 75 0c	 push	 DWORD PTR _v$[ebp]
  00058	ff 75 08	 push	 DWORD PTR _u$[ebp]
  0005b	e8 00 00 00 00	 call	 ?PMC_DivRem_X_L@Internal@Core@Math@Palmtree@@YG_KPAU__tag_PMC_HANDLE_UINT@1234@_KPAPAU51234@@Z ; Palmtree::Math::Core::Internal::PMC_DivRem_X_L
  00060	89 06		 mov	 DWORD PTR [esi], eax
  00062	89 56 04	 mov	 DWORD PTR [esi+4], edx

; 698  :             return (PMC_STATUS_OK);

  00065	33 c0		 xor	 eax, eax

; 703  :         }
; 704  :     }

  00067	8b 4d f4	 mov	 ecx, DWORD PTR __$EHRec$[ebp+4]
  0006a	64 89 0d 00 00
	00 00		 mov	 DWORD PTR fs:0, ecx
  00071	59		 pop	 ecx
  00072	5f		 pop	 edi
  00073	5e		 pop	 esi
  00074	5b		 pop	 ebx
  00075	8b e5		 mov	 esp, ebp
  00077	5d		 pop	 ebp
  00078	c2 10 00	 ret	 16			; 00000010H
__catch$_PMCCS_Remainder_X_L@16$0:
; File z:\sources\lunor\repos\rougemeilland\palmtree.math.core.uint\palmtree.math.core.uint\pmc_exception.h

; 75   :             return (_code);

  0007b	8b 45 ec	 mov	 eax, DWORD PTR _ex$2[ebp]
  0007e	8b 40 0c	 mov	 eax, DWORD PTR [eax+12]
  00081	89 45 14	 mov	 DWORD PTR $T3[ebp], eax
; File z:\sources\lunor\repos\rougemeilland\palmtree.math.core.uint\palmtree.math.core.uint\pmc_interface_csharp.cpp

; 702  :             return (ex.GetStatusCode());

  00084	b8 00 00 00 00	 mov	 eax, $LN8@PMCCS_Rema
  00089	c3		 ret	 0
$LN8@PMCCS_Rema:
; File z:\sources\lunor\repos\rougemeilland\palmtree.math.core.uint\palmtree.math.core.uint\pmc_exception.h
  0008a	c7 45 fc ff ff
	ff ff		 mov	 DWORD PTR __$EHRec$[ebp+12], -1
; File z:\sources\lunor\repos\rougemeilland\palmtree.math.core.uint\palmtree.math.core.uint\pmc_interface_csharp.cpp

; 702  :             return (ex.GetStatusCode());

  00091	8b 45 14	 mov	 eax, DWORD PTR $T3[ebp]

; 703  :         }
; 704  :     }

  00094	8b 4d f4	 mov	 ecx, DWORD PTR __$EHRec$[ebp+4]
  00097	64 89 0d 00 00
	00 00		 mov	 DWORD PTR fs:0, ecx
  0009e	59		 pop	 ecx
  0009f	5f		 pop	 edi
  000a0	5e		 pop	 esi
  000a1	5b		 pop	 ebx
  000a2	8b e5		 mov	 esp, ebp
  000a4	5d		 pop	 ebp
  000a5	c2 10 00	 ret	 16			; 00000010H
_TEXT	ENDS
;	COMDAT text$x
text$x	SEGMENT
__ehhandler$_PMCCS_Remainder_X_L@16:
  00000	8b 54 24 08	 mov	 edx, DWORD PTR [esp+8]
  00004	8d 42 0c	 lea	 eax, DWORD PTR [edx+12]
  00007	8b 4a e8	 mov	 ecx, DWORD PTR [edx-24]
  0000a	33 c8		 xor	 ecx, eax
  0000c	e8 00 00 00 00	 call	 @__security_check_cookie@4
  00011	b8 00 00 00 00	 mov	 eax, OFFSET __ehfuncinfo$_PMCCS_Remainder_X_L@16
  00016	e9 00 00 00 00	 jmp	 ___CxxFrameHandler3
text$x	ENDS
_PMCCS_Remainder_X_L@16 ENDP
; Function compile flags: /Ogtp
; File z:\sources\lunor\repos\rougemeilland\palmtree.math.core.uint\palmtree.math.core.uint\pmc_interface_csharp.cpp
; File z:\sources\lunor\repos\rougemeilland\palmtree.math.core.uint\palmtree.math.core.uint\pmc_exception.h
; File z:\sources\lunor\repos\rougemeilland\palmtree.math.core.uint\palmtree.math.core.uint\pmc_interface_csharp.cpp
;	COMDAT _PMCCS_Remainder_X_I@12
_TEXT	SEGMENT
_ex$2 = -20						; size = 4
__$EHRec$ = -16						; size = 16
_u$ = 8							; size = 4
_v$ = 12						; size = 4
$T3 = 16						; size = 4
_r$ = 16						; size = 4
_PMCCS_Remainder_X_I@12 PROC				; COMDAT

; 677  :     {

  00000	55		 push	 ebp
  00001	8b ec		 mov	 ebp, esp
  00003	6a ff		 push	 -1
  00005	68 00 00 00 00	 push	 __ehhandler$_PMCCS_Remainder_X_I@12
  0000a	64 a1 00 00 00
	00		 mov	 eax, DWORD PTR fs:0
  00010	50		 push	 eax
  00011	83 ec 08	 sub	 esp, 8
  00014	53		 push	 ebx
  00015	56		 push	 esi
  00016	57		 push	 edi
  00017	a1 00 00 00 00	 mov	 eax, DWORD PTR ___security_cookie
  0001c	33 c5		 xor	 eax, ebp
  0001e	50		 push	 eax
  0001f	8d 45 f4	 lea	 eax, DWORD PTR __$EHRec$[ebp+4]
  00022	64 a3 00 00 00
	00		 mov	 DWORD PTR fs:0, eax
  00028	89 65 f0	 mov	 DWORD PTR __$EHRec$[ebp], esp

; 678  :         if (r == nullptr)

  0002b	8b 75 10	 mov	 esi, DWORD PTR _r$[ebp]
  0002e	85 f6		 test	 esi, esi
  00030	75 17		 jne	 SHORT $LN2@PMCCS_Rema

; 679  :             return (PMC_STATUS_ARGUMENT_NULL_ERROR);

  00032	8d 46 fe	 lea	 eax, DWORD PTR [esi-2]

; 688  :         }
; 689  :     }

  00035	8b 4d f4	 mov	 ecx, DWORD PTR __$EHRec$[ebp+4]
  00038	64 89 0d 00 00
	00 00		 mov	 DWORD PTR fs:0, ecx
  0003f	59		 pop	 ecx
  00040	5f		 pop	 edi
  00041	5e		 pop	 esi
  00042	5b		 pop	 ebx
  00043	8b e5		 mov	 esp, ebp
  00045	5d		 pop	 ebp
  00046	c2 0c 00	 ret	 12			; 0000000cH
$LN2@PMCCS_Rema:

; 680  :         try

  00049	c7 45 fc 00 00
	00 00		 mov	 DWORD PTR __$EHRec$[ebp+12], 0

; 681  :         {
; 682  :             *r = PMC_DivRem_X_I(u, v, nullptr);

  00050	6a 00		 push	 0
  00052	ff 75 0c	 push	 DWORD PTR _v$[ebp]
  00055	ff 75 08	 push	 DWORD PTR _u$[ebp]
  00058	e8 00 00 00 00	 call	 ?PMC_DivRem_X_I@Internal@Core@Math@Palmtree@@YGIPAU__tag_PMC_HANDLE_UINT@1234@IPAPAU51234@@Z ; Palmtree::Math::Core::Internal::PMC_DivRem_X_I
  0005d	89 06		 mov	 DWORD PTR [esi], eax

; 683  :             return (PMC_STATUS_OK);

  0005f	33 c0		 xor	 eax, eax

; 688  :         }
; 689  :     }

  00061	8b 4d f4	 mov	 ecx, DWORD PTR __$EHRec$[ebp+4]
  00064	64 89 0d 00 00
	00 00		 mov	 DWORD PTR fs:0, ecx
  0006b	59		 pop	 ecx
  0006c	5f		 pop	 edi
  0006d	5e		 pop	 esi
  0006e	5b		 pop	 ebx
  0006f	8b e5		 mov	 esp, ebp
  00071	5d		 pop	 ebp
  00072	c2 0c 00	 ret	 12			; 0000000cH
__catch$_PMCCS_Remainder_X_I@12$0:
; File z:\sources\lunor\repos\rougemeilland\palmtree.math.core.uint\palmtree.math.core.uint\pmc_exception.h

; 75   :             return (_code);

  00075	8b 45 ec	 mov	 eax, DWORD PTR _ex$2[ebp]
  00078	8b 40 0c	 mov	 eax, DWORD PTR [eax+12]
  0007b	89 45 10	 mov	 DWORD PTR $T3[ebp], eax
; File z:\sources\lunor\repos\rougemeilland\palmtree.math.core.uint\palmtree.math.core.uint\pmc_interface_csharp.cpp

; 687  :             return (ex.GetStatusCode());

  0007e	b8 00 00 00 00	 mov	 eax, $LN8@PMCCS_Rema
  00083	c3		 ret	 0
$LN8@PMCCS_Rema:
; File z:\sources\lunor\repos\rougemeilland\palmtree.math.core.uint\palmtree.math.core.uint\pmc_exception.h
  00084	c7 45 fc ff ff
	ff ff		 mov	 DWORD PTR __$EHRec$[ebp+12], -1
; File z:\sources\lunor\repos\rougemeilland\palmtree.math.core.uint\palmtree.math.core.uint\pmc_interface_csharp.cpp

; 687  :             return (ex.GetStatusCode());

  0008b	8b 45 10	 mov	 eax, DWORD PTR $T3[ebp]

; 688  :         }
; 689  :     }

  0008e	8b 4d f4	 mov	 ecx, DWORD PTR __$EHRec$[ebp+4]
  00091	64 89 0d 00 00
	00 00		 mov	 DWORD PTR fs:0, ecx
  00098	59		 pop	 ecx
  00099	5f		 pop	 edi
  0009a	5e		 pop	 esi
  0009b	5b		 pop	 ebx
  0009c	8b e5		 mov	 esp, ebp
  0009e	5d		 pop	 ebp
  0009f	c2 0c 00	 ret	 12			; 0000000cH
_TEXT	ENDS
;	COMDAT text$x
text$x	SEGMENT
__ehhandler$_PMCCS_Remainder_X_I@12:
  00000	8b 54 24 08	 mov	 edx, DWORD PTR [esp+8]
  00004	8d 42 0c	 lea	 eax, DWORD PTR [edx+12]
  00007	8b 4a e8	 mov	 ecx, DWORD PTR [edx-24]
  0000a	33 c8		 xor	 ecx, eax
  0000c	e8 00 00 00 00	 call	 @__security_check_cookie@4
  00011	b8 00 00 00 00	 mov	 eax, OFFSET __ehfuncinfo$_PMCCS_Remainder_X_I@12
  00016	e9 00 00 00 00	 jmp	 ___CxxFrameHandler3
text$x	ENDS
_PMCCS_Remainder_X_I@12 ENDP
; Function compile flags: /Ogtp
; File z:\sources\lunor\repos\rougemeilland\palmtree.math.core.uint\palmtree.math.core.uint\pmc_interface_csharp.cpp
; File z:\sources\lunor\repos\rougemeilland\palmtree.math.core.uint\palmtree.math.core.uint\pmc_exception.h
; File z:\sources\lunor\repos\rougemeilland\palmtree.math.core.uint\palmtree.math.core.uint\pmc_interface_csharp.cpp
;	COMDAT _PMCCS_Remainder_L_X@16
_TEXT	SEGMENT
_ex$2 = -20						; size = 4
__$EHRec$ = -16						; size = 16
_u$ = 8							; size = 8
_v$ = 16						; size = 4
$T3 = 20						; size = 4
_r$ = 20						; size = 4
_PMCCS_Remainder_L_X@16 PROC				; COMDAT

; 662  :     {

  00000	55		 push	 ebp
  00001	8b ec		 mov	 ebp, esp
  00003	6a ff		 push	 -1
  00005	68 00 00 00 00	 push	 __ehhandler$_PMCCS_Remainder_L_X@16
  0000a	64 a1 00 00 00
	00		 mov	 eax, DWORD PTR fs:0
  00010	50		 push	 eax
  00011	83 ec 08	 sub	 esp, 8
  00014	53		 push	 ebx
  00015	56		 push	 esi
  00016	57		 push	 edi
  00017	a1 00 00 00 00	 mov	 eax, DWORD PTR ___security_cookie
  0001c	33 c5		 xor	 eax, ebp
  0001e	50		 push	 eax
  0001f	8d 45 f4	 lea	 eax, DWORD PTR __$EHRec$[ebp+4]
  00022	64 a3 00 00 00
	00		 mov	 DWORD PTR fs:0, eax
  00028	89 65 f0	 mov	 DWORD PTR __$EHRec$[ebp], esp

; 663  :         if (r == nullptr)

  0002b	8b 75 14	 mov	 esi, DWORD PTR _r$[ebp]
  0002e	85 f6		 test	 esi, esi
  00030	75 17		 jne	 SHORT $LN2@PMCCS_Rema

; 664  :             return (PMC_STATUS_ARGUMENT_NULL_ERROR);

  00032	8d 46 fe	 lea	 eax, DWORD PTR [esi-2]

; 673  :         }
; 674  :     }

  00035	8b 4d f4	 mov	 ecx, DWORD PTR __$EHRec$[ebp+4]
  00038	64 89 0d 00 00
	00 00		 mov	 DWORD PTR fs:0, ecx
  0003f	59		 pop	 ecx
  00040	5f		 pop	 edi
  00041	5e		 pop	 esi
  00042	5b		 pop	 ebx
  00043	8b e5		 mov	 esp, ebp
  00045	5d		 pop	 ebp
  00046	c2 10 00	 ret	 16			; 00000010H
$LN2@PMCCS_Rema:

; 665  :         try

  00049	c7 45 fc 00 00
	00 00		 mov	 DWORD PTR __$EHRec$[ebp+12], 0

; 666  :         {
; 667  :             *r = PMC_DivRem_L_X(u, v, nullptr);

  00050	6a 00		 push	 0
  00052	ff 75 10	 push	 DWORD PTR _v$[ebp]
  00055	ff 75 0c	 push	 DWORD PTR _u$[ebp+4]
  00058	ff 75 08	 push	 DWORD PTR _u$[ebp]
  0005b	e8 00 00 00 00	 call	 ?PMC_DivRem_L_X@Internal@Core@Math@Palmtree@@YG_K_KPAU__tag_PMC_HANDLE_UINT@1234@PA_K@Z ; Palmtree::Math::Core::Internal::PMC_DivRem_L_X
  00060	89 06		 mov	 DWORD PTR [esi], eax
  00062	89 56 04	 mov	 DWORD PTR [esi+4], edx

; 668  :             return (PMC_STATUS_OK);

  00065	33 c0		 xor	 eax, eax

; 673  :         }
; 674  :     }

  00067	8b 4d f4	 mov	 ecx, DWORD PTR __$EHRec$[ebp+4]
  0006a	64 89 0d 00 00
	00 00		 mov	 DWORD PTR fs:0, ecx
  00071	59		 pop	 ecx
  00072	5f		 pop	 edi
  00073	5e		 pop	 esi
  00074	5b		 pop	 ebx
  00075	8b e5		 mov	 esp, ebp
  00077	5d		 pop	 ebp
  00078	c2 10 00	 ret	 16			; 00000010H
__catch$_PMCCS_Remainder_L_X@16$0:
; File z:\sources\lunor\repos\rougemeilland\palmtree.math.core.uint\palmtree.math.core.uint\pmc_exception.h

; 75   :             return (_code);

  0007b	8b 45 ec	 mov	 eax, DWORD PTR _ex$2[ebp]
  0007e	8b 40 0c	 mov	 eax, DWORD PTR [eax+12]
  00081	89 45 14	 mov	 DWORD PTR $T3[ebp], eax
; File z:\sources\lunor\repos\rougemeilland\palmtree.math.core.uint\palmtree.math.core.uint\pmc_interface_csharp.cpp

; 672  :             return (ex.GetStatusCode());

  00084	b8 00 00 00 00	 mov	 eax, $LN8@PMCCS_Rema
  00089	c3		 ret	 0
$LN8@PMCCS_Rema:
; File z:\sources\lunor\repos\rougemeilland\palmtree.math.core.uint\palmtree.math.core.uint\pmc_exception.h
  0008a	c7 45 fc ff ff
	ff ff		 mov	 DWORD PTR __$EHRec$[ebp+12], -1
; File z:\sources\lunor\repos\rougemeilland\palmtree.math.core.uint\palmtree.math.core.uint\pmc_interface_csharp.cpp

; 672  :             return (ex.GetStatusCode());

  00091	8b 45 14	 mov	 eax, DWORD PTR $T3[ebp]

; 673  :         }
; 674  :     }

  00094	8b 4d f4	 mov	 ecx, DWORD PTR __$EHRec$[ebp+4]
  00097	64 89 0d 00 00
	00 00		 mov	 DWORD PTR fs:0, ecx
  0009e	59		 pop	 ecx
  0009f	5f		 pop	 edi
  000a0	5e		 pop	 esi
  000a1	5b		 pop	 ebx
  000a2	8b e5		 mov	 esp, ebp
  000a4	5d		 pop	 ebp
  000a5	c2 10 00	 ret	 16			; 00000010H
_TEXT	ENDS
;	COMDAT text$x
text$x	SEGMENT
__ehhandler$_PMCCS_Remainder_L_X@16:
  00000	8b 54 24 08	 mov	 edx, DWORD PTR [esp+8]
  00004	8d 42 0c	 lea	 eax, DWORD PTR [edx+12]
  00007	8b 4a e8	 mov	 ecx, DWORD PTR [edx-24]
  0000a	33 c8		 xor	 ecx, eax
  0000c	e8 00 00 00 00	 call	 @__security_check_cookie@4
  00011	b8 00 00 00 00	 mov	 eax, OFFSET __ehfuncinfo$_PMCCS_Remainder_L_X@16
  00016	e9 00 00 00 00	 jmp	 ___CxxFrameHandler3
text$x	ENDS
_PMCCS_Remainder_L_X@16 ENDP
; Function compile flags: /Ogtp
; File z:\sources\lunor\repos\rougemeilland\palmtree.math.core.uint\palmtree.math.core.uint\pmc_interface_csharp.cpp
; File z:\sources\lunor\repos\rougemeilland\palmtree.math.core.uint\palmtree.math.core.uint\pmc_exception.h
; File z:\sources\lunor\repos\rougemeilland\palmtree.math.core.uint\palmtree.math.core.uint\pmc_interface_csharp.cpp
;	COMDAT _PMCCS_Remainder_I_X@12
_TEXT	SEGMENT
_ex$2 = -20						; size = 4
__$EHRec$ = -16						; size = 16
_u$ = 8							; size = 4
_v$ = 12						; size = 4
$T3 = 16						; size = 4
_r$ = 16						; size = 4
_PMCCS_Remainder_I_X@12 PROC				; COMDAT

; 647  :     {

  00000	55		 push	 ebp
  00001	8b ec		 mov	 ebp, esp
  00003	6a ff		 push	 -1
  00005	68 00 00 00 00	 push	 __ehhandler$_PMCCS_Remainder_I_X@12
  0000a	64 a1 00 00 00
	00		 mov	 eax, DWORD PTR fs:0
  00010	50		 push	 eax
  00011	83 ec 08	 sub	 esp, 8
  00014	53		 push	 ebx
  00015	56		 push	 esi
  00016	57		 push	 edi
  00017	a1 00 00 00 00	 mov	 eax, DWORD PTR ___security_cookie
  0001c	33 c5		 xor	 eax, ebp
  0001e	50		 push	 eax
  0001f	8d 45 f4	 lea	 eax, DWORD PTR __$EHRec$[ebp+4]
  00022	64 a3 00 00 00
	00		 mov	 DWORD PTR fs:0, eax
  00028	89 65 f0	 mov	 DWORD PTR __$EHRec$[ebp], esp

; 648  :         if (r == nullptr)

  0002b	8b 75 10	 mov	 esi, DWORD PTR _r$[ebp]
  0002e	85 f6		 test	 esi, esi
  00030	75 17		 jne	 SHORT $LN2@PMCCS_Rema

; 649  :             return (PMC_STATUS_ARGUMENT_NULL_ERROR);

  00032	8d 46 fe	 lea	 eax, DWORD PTR [esi-2]

; 658  :         }
; 659  :     }

  00035	8b 4d f4	 mov	 ecx, DWORD PTR __$EHRec$[ebp+4]
  00038	64 89 0d 00 00
	00 00		 mov	 DWORD PTR fs:0, ecx
  0003f	59		 pop	 ecx
  00040	5f		 pop	 edi
  00041	5e		 pop	 esi
  00042	5b		 pop	 ebx
  00043	8b e5		 mov	 esp, ebp
  00045	5d		 pop	 ebp
  00046	c2 0c 00	 ret	 12			; 0000000cH
$LN2@PMCCS_Rema:

; 650  :         try

  00049	c7 45 fc 00 00
	00 00		 mov	 DWORD PTR __$EHRec$[ebp+12], 0

; 651  :         {
; 652  :             *r = PMC_DivRem_I_X(u, v, nullptr);

  00050	6a 00		 push	 0
  00052	ff 75 0c	 push	 DWORD PTR _v$[ebp]
  00055	ff 75 08	 push	 DWORD PTR _u$[ebp]
  00058	e8 00 00 00 00	 call	 ?PMC_DivRem_I_X@Internal@Core@Math@Palmtree@@YGIIPAU__tag_PMC_HANDLE_UINT@1234@PAI@Z ; Palmtree::Math::Core::Internal::PMC_DivRem_I_X
  0005d	89 06		 mov	 DWORD PTR [esi], eax

; 653  :             return (PMC_STATUS_OK);

  0005f	33 c0		 xor	 eax, eax

; 658  :         }
; 659  :     }

  00061	8b 4d f4	 mov	 ecx, DWORD PTR __$EHRec$[ebp+4]
  00064	64 89 0d 00 00
	00 00		 mov	 DWORD PTR fs:0, ecx
  0006b	59		 pop	 ecx
  0006c	5f		 pop	 edi
  0006d	5e		 pop	 esi
  0006e	5b		 pop	 ebx
  0006f	8b e5		 mov	 esp, ebp
  00071	5d		 pop	 ebp
  00072	c2 0c 00	 ret	 12			; 0000000cH
__catch$_PMCCS_Remainder_I_X@12$0:
; File z:\sources\lunor\repos\rougemeilland\palmtree.math.core.uint\palmtree.math.core.uint\pmc_exception.h

; 75   :             return (_code);

  00075	8b 45 ec	 mov	 eax, DWORD PTR _ex$2[ebp]
  00078	8b 40 0c	 mov	 eax, DWORD PTR [eax+12]
  0007b	89 45 10	 mov	 DWORD PTR $T3[ebp], eax
; File z:\sources\lunor\repos\rougemeilland\palmtree.math.core.uint\palmtree.math.core.uint\pmc_interface_csharp.cpp

; 657  :             return (ex.GetStatusCode());

  0007e	b8 00 00 00 00	 mov	 eax, $LN8@PMCCS_Rema
  00083	c3		 ret	 0
$LN8@PMCCS_Rema:
; File z:\sources\lunor\repos\rougemeilland\palmtree.math.core.uint\palmtree.math.core.uint\pmc_exception.h
  00084	c7 45 fc ff ff
	ff ff		 mov	 DWORD PTR __$EHRec$[ebp+12], -1
; File z:\sources\lunor\repos\rougemeilland\palmtree.math.core.uint\palmtree.math.core.uint\pmc_interface_csharp.cpp

; 657  :             return (ex.GetStatusCode());

  0008b	8b 45 10	 mov	 eax, DWORD PTR $T3[ebp]

; 658  :         }
; 659  :     }

  0008e	8b 4d f4	 mov	 ecx, DWORD PTR __$EHRec$[ebp+4]
  00091	64 89 0d 00 00
	00 00		 mov	 DWORD PTR fs:0, ecx
  00098	59		 pop	 ecx
  00099	5f		 pop	 edi
  0009a	5e		 pop	 esi
  0009b	5b		 pop	 ebx
  0009c	8b e5		 mov	 esp, ebp
  0009e	5d		 pop	 ebp
  0009f	c2 0c 00	 ret	 12			; 0000000cH
_TEXT	ENDS
;	COMDAT text$x
text$x	SEGMENT
__ehhandler$_PMCCS_Remainder_I_X@12:
  00000	8b 54 24 08	 mov	 edx, DWORD PTR [esp+8]
  00004	8d 42 0c	 lea	 eax, DWORD PTR [edx+12]
  00007	8b 4a e8	 mov	 ecx, DWORD PTR [edx-24]
  0000a	33 c8		 xor	 ecx, eax
  0000c	e8 00 00 00 00	 call	 @__security_check_cookie@4
  00011	b8 00 00 00 00	 mov	 eax, OFFSET __ehfuncinfo$_PMCCS_Remainder_I_X@12
  00016	e9 00 00 00 00	 jmp	 ___CxxFrameHandler3
text$x	ENDS
_PMCCS_Remainder_I_X@12 ENDP
; Function compile flags: /Ogtp
; File z:\sources\lunor\repos\rougemeilland\palmtree.math.core.uint\palmtree.math.core.uint\pmc_interface_csharp.cpp
; File z:\sources\lunor\repos\rougemeilland\palmtree.math.core.uint\palmtree.math.core.uint\pmc_exception.h
; File z:\sources\lunor\repos\rougemeilland\palmtree.math.core.uint\palmtree.math.core.uint\pmc_interface_csharp.cpp
;	COMDAT _PMCCS_DivRem_X_X@16
_TEXT	SEGMENT
_ex$2 = -20						; size = 4
__$EHRec$ = -16						; size = 16
_u$ = 8							; size = 4
_v$ = 12						; size = 4
_q$ = 16						; size = 4
$T3 = 20						; size = 4
_r$ = 20						; size = 4
_PMCCS_DivRem_X_X@16 PROC				; COMDAT

; 632  :     {

  00000	55		 push	 ebp
  00001	8b ec		 mov	 ebp, esp
  00003	6a ff		 push	 -1
  00005	68 00 00 00 00	 push	 __ehhandler$_PMCCS_DivRem_X_X@16
  0000a	64 a1 00 00 00
	00		 mov	 eax, DWORD PTR fs:0
  00010	50		 push	 eax
  00011	83 ec 08	 sub	 esp, 8
  00014	53		 push	 ebx
  00015	56		 push	 esi
  00016	57		 push	 edi
  00017	a1 00 00 00 00	 mov	 eax, DWORD PTR ___security_cookie
  0001c	33 c5		 xor	 eax, ebp
  0001e	50		 push	 eax
  0001f	8d 45 f4	 lea	 eax, DWORD PTR __$EHRec$[ebp+4]
  00022	64 a3 00 00 00
	00		 mov	 DWORD PTR fs:0, eax
  00028	89 65 f0	 mov	 DWORD PTR __$EHRec$[ebp], esp

; 633  :         if (r == nullptr)

  0002b	8b 75 14	 mov	 esi, DWORD PTR _r$[ebp]
  0002e	85 f6		 test	 esi, esi
  00030	75 17		 jne	 SHORT $LN2@PMCCS_DivR

; 634  :             return (PMC_STATUS_ARGUMENT_NULL_ERROR);

  00032	8d 46 fe	 lea	 eax, DWORD PTR [esi-2]

; 643  :         }
; 644  :     }

  00035	8b 4d f4	 mov	 ecx, DWORD PTR __$EHRec$[ebp+4]
  00038	64 89 0d 00 00
	00 00		 mov	 DWORD PTR fs:0, ecx
  0003f	59		 pop	 ecx
  00040	5f		 pop	 edi
  00041	5e		 pop	 esi
  00042	5b		 pop	 ebx
  00043	8b e5		 mov	 esp, ebp
  00045	5d		 pop	 ebp
  00046	c2 10 00	 ret	 16			; 00000010H
$LN2@PMCCS_DivR:

; 635  :         try

  00049	c7 45 fc 00 00
	00 00		 mov	 DWORD PTR __$EHRec$[ebp+12], 0

; 636  :         {
; 637  :             *r = PMC_DivRem_X_X(u, v, q);

  00050	ff 75 10	 push	 DWORD PTR _q$[ebp]
  00053	ff 75 0c	 push	 DWORD PTR _v$[ebp]
  00056	ff 75 08	 push	 DWORD PTR _u$[ebp]
  00059	e8 00 00 00 00	 call	 ?PMC_DivRem_X_X@Internal@Core@Math@Palmtree@@YGPAU__tag_PMC_HANDLE_UINT@1234@PAU51234@0PAPAU51234@@Z ; Palmtree::Math::Core::Internal::PMC_DivRem_X_X
  0005e	89 06		 mov	 DWORD PTR [esi], eax

; 638  :             return (PMC_STATUS_OK);

  00060	33 c0		 xor	 eax, eax

; 643  :         }
; 644  :     }

  00062	8b 4d f4	 mov	 ecx, DWORD PTR __$EHRec$[ebp+4]
  00065	64 89 0d 00 00
	00 00		 mov	 DWORD PTR fs:0, ecx
  0006c	59		 pop	 ecx
  0006d	5f		 pop	 edi
  0006e	5e		 pop	 esi
  0006f	5b		 pop	 ebx
  00070	8b e5		 mov	 esp, ebp
  00072	5d		 pop	 ebp
  00073	c2 10 00	 ret	 16			; 00000010H
__catch$_PMCCS_DivRem_X_X@16$0:
; File z:\sources\lunor\repos\rougemeilland\palmtree.math.core.uint\palmtree.math.core.uint\pmc_exception.h

; 75   :             return (_code);

  00076	8b 45 ec	 mov	 eax, DWORD PTR _ex$2[ebp]
  00079	8b 40 0c	 mov	 eax, DWORD PTR [eax+12]
  0007c	89 45 14	 mov	 DWORD PTR $T3[ebp], eax
; File z:\sources\lunor\repos\rougemeilland\palmtree.math.core.uint\palmtree.math.core.uint\pmc_interface_csharp.cpp

; 642  :             return (ex.GetStatusCode());

  0007f	b8 00 00 00 00	 mov	 eax, $LN8@PMCCS_DivR
  00084	c3		 ret	 0
$LN8@PMCCS_DivR:
; File z:\sources\lunor\repos\rougemeilland\palmtree.math.core.uint\palmtree.math.core.uint\pmc_exception.h
  00085	c7 45 fc ff ff
	ff ff		 mov	 DWORD PTR __$EHRec$[ebp+12], -1
; File z:\sources\lunor\repos\rougemeilland\palmtree.math.core.uint\palmtree.math.core.uint\pmc_interface_csharp.cpp

; 642  :             return (ex.GetStatusCode());

  0008c	8b 45 14	 mov	 eax, DWORD PTR $T3[ebp]

; 643  :         }
; 644  :     }

  0008f	8b 4d f4	 mov	 ecx, DWORD PTR __$EHRec$[ebp+4]
  00092	64 89 0d 00 00
	00 00		 mov	 DWORD PTR fs:0, ecx
  00099	59		 pop	 ecx
  0009a	5f		 pop	 edi
  0009b	5e		 pop	 esi
  0009c	5b		 pop	 ebx
  0009d	8b e5		 mov	 esp, ebp
  0009f	5d		 pop	 ebp
  000a0	c2 10 00	 ret	 16			; 00000010H
_TEXT	ENDS
;	COMDAT text$x
text$x	SEGMENT
__ehhandler$_PMCCS_DivRem_X_X@16:
  00000	8b 54 24 08	 mov	 edx, DWORD PTR [esp+8]
  00004	8d 42 0c	 lea	 eax, DWORD PTR [edx+12]
  00007	8b 4a e8	 mov	 ecx, DWORD PTR [edx-24]
  0000a	33 c8		 xor	 ecx, eax
  0000c	e8 00 00 00 00	 call	 @__security_check_cookie@4
  00011	b8 00 00 00 00	 mov	 eax, OFFSET __ehfuncinfo$_PMCCS_DivRem_X_X@16
  00016	e9 00 00 00 00	 jmp	 ___CxxFrameHandler3
text$x	ENDS
_PMCCS_DivRem_X_X@16 ENDP
; Function compile flags: /Ogtp
; File z:\sources\lunor\repos\rougemeilland\palmtree.math.core.uint\palmtree.math.core.uint\pmc_interface_csharp.cpp
; File z:\sources\lunor\repos\rougemeilland\palmtree.math.core.uint\palmtree.math.core.uint\pmc_exception.h
; File z:\sources\lunor\repos\rougemeilland\palmtree.math.core.uint\palmtree.math.core.uint\pmc_interface_csharp.cpp
;	COMDAT _PMCCS_DivRem_X_L@20
_TEXT	SEGMENT
_ex$2 = -20						; size = 4
__$EHRec$ = -16						; size = 16
_u$ = 8							; size = 4
_v$ = 12						; size = 8
_q$ = 20						; size = 4
$T3 = 24						; size = 4
_r$ = 24						; size = 4
_PMCCS_DivRem_X_L@20 PROC				; COMDAT

; 617  :     {

  00000	55		 push	 ebp
  00001	8b ec		 mov	 ebp, esp
  00003	6a ff		 push	 -1
  00005	68 00 00 00 00	 push	 __ehhandler$_PMCCS_DivRem_X_L@20
  0000a	64 a1 00 00 00
	00		 mov	 eax, DWORD PTR fs:0
  00010	50		 push	 eax
  00011	83 ec 08	 sub	 esp, 8
  00014	53		 push	 ebx
  00015	56		 push	 esi
  00016	57		 push	 edi
  00017	a1 00 00 00 00	 mov	 eax, DWORD PTR ___security_cookie
  0001c	33 c5		 xor	 eax, ebp
  0001e	50		 push	 eax
  0001f	8d 45 f4	 lea	 eax, DWORD PTR __$EHRec$[ebp+4]
  00022	64 a3 00 00 00
	00		 mov	 DWORD PTR fs:0, eax
  00028	89 65 f0	 mov	 DWORD PTR __$EHRec$[ebp], esp

; 618  :         if (r == nullptr)

  0002b	8b 75 18	 mov	 esi, DWORD PTR _r$[ebp]
  0002e	85 f6		 test	 esi, esi
  00030	75 17		 jne	 SHORT $LN2@PMCCS_DivR

; 619  :             return (PMC_STATUS_ARGUMENT_NULL_ERROR);

  00032	8d 46 fe	 lea	 eax, DWORD PTR [esi-2]

; 628  :         }
; 629  :     }

  00035	8b 4d f4	 mov	 ecx, DWORD PTR __$EHRec$[ebp+4]
  00038	64 89 0d 00 00
	00 00		 mov	 DWORD PTR fs:0, ecx
  0003f	59		 pop	 ecx
  00040	5f		 pop	 edi
  00041	5e		 pop	 esi
  00042	5b		 pop	 ebx
  00043	8b e5		 mov	 esp, ebp
  00045	5d		 pop	 ebp
  00046	c2 14 00	 ret	 20			; 00000014H
$LN2@PMCCS_DivR:

; 620  :         try

  00049	c7 45 fc 00 00
	00 00		 mov	 DWORD PTR __$EHRec$[ebp+12], 0

; 621  :         {
; 622  :             *r = PMC_DivRem_X_L(u, v, q);

  00050	ff 75 14	 push	 DWORD PTR _q$[ebp]
  00053	ff 75 10	 push	 DWORD PTR _v$[ebp+4]
  00056	ff 75 0c	 push	 DWORD PTR _v$[ebp]
  00059	ff 75 08	 push	 DWORD PTR _u$[ebp]
  0005c	e8 00 00 00 00	 call	 ?PMC_DivRem_X_L@Internal@Core@Math@Palmtree@@YG_KPAU__tag_PMC_HANDLE_UINT@1234@_KPAPAU51234@@Z ; Palmtree::Math::Core::Internal::PMC_DivRem_X_L
  00061	89 06		 mov	 DWORD PTR [esi], eax
  00063	89 56 04	 mov	 DWORD PTR [esi+4], edx

; 623  :             return (PMC_STATUS_OK);

  00066	33 c0		 xor	 eax, eax

; 628  :         }
; 629  :     }

  00068	8b 4d f4	 mov	 ecx, DWORD PTR __$EHRec$[ebp+4]
  0006b	64 89 0d 00 00
	00 00		 mov	 DWORD PTR fs:0, ecx
  00072	59		 pop	 ecx
  00073	5f		 pop	 edi
  00074	5e		 pop	 esi
  00075	5b		 pop	 ebx
  00076	8b e5		 mov	 esp, ebp
  00078	5d		 pop	 ebp
  00079	c2 14 00	 ret	 20			; 00000014H
__catch$_PMCCS_DivRem_X_L@20$0:
; File z:\sources\lunor\repos\rougemeilland\palmtree.math.core.uint\palmtree.math.core.uint\pmc_exception.h

; 75   :             return (_code);

  0007c	8b 45 ec	 mov	 eax, DWORD PTR _ex$2[ebp]
  0007f	8b 40 0c	 mov	 eax, DWORD PTR [eax+12]
  00082	89 45 18	 mov	 DWORD PTR $T3[ebp], eax
; File z:\sources\lunor\repos\rougemeilland\palmtree.math.core.uint\palmtree.math.core.uint\pmc_interface_csharp.cpp

; 627  :             return (ex.GetStatusCode());

  00085	b8 00 00 00 00	 mov	 eax, $LN8@PMCCS_DivR
  0008a	c3		 ret	 0
$LN8@PMCCS_DivR:
; File z:\sources\lunor\repos\rougemeilland\palmtree.math.core.uint\palmtree.math.core.uint\pmc_exception.h
  0008b	c7 45 fc ff ff
	ff ff		 mov	 DWORD PTR __$EHRec$[ebp+12], -1
; File z:\sources\lunor\repos\rougemeilland\palmtree.math.core.uint\palmtree.math.core.uint\pmc_interface_csharp.cpp

; 627  :             return (ex.GetStatusCode());

  00092	8b 45 18	 mov	 eax, DWORD PTR $T3[ebp]

; 628  :         }
; 629  :     }

  00095	8b 4d f4	 mov	 ecx, DWORD PTR __$EHRec$[ebp+4]
  00098	64 89 0d 00 00
	00 00		 mov	 DWORD PTR fs:0, ecx
  0009f	59		 pop	 ecx
  000a0	5f		 pop	 edi
  000a1	5e		 pop	 esi
  000a2	5b		 pop	 ebx
  000a3	8b e5		 mov	 esp, ebp
  000a5	5d		 pop	 ebp
  000a6	c2 14 00	 ret	 20			; 00000014H
_TEXT	ENDS
;	COMDAT text$x
text$x	SEGMENT
__ehhandler$_PMCCS_DivRem_X_L@20:
  00000	8b 54 24 08	 mov	 edx, DWORD PTR [esp+8]
  00004	8d 42 0c	 lea	 eax, DWORD PTR [edx+12]
  00007	8b 4a e8	 mov	 ecx, DWORD PTR [edx-24]
  0000a	33 c8		 xor	 ecx, eax
  0000c	e8 00 00 00 00	 call	 @__security_check_cookie@4
  00011	b8 00 00 00 00	 mov	 eax, OFFSET __ehfuncinfo$_PMCCS_DivRem_X_L@20
  00016	e9 00 00 00 00	 jmp	 ___CxxFrameHandler3
text$x	ENDS
_PMCCS_DivRem_X_L@20 ENDP
; Function compile flags: /Ogtp
; File z:\sources\lunor\repos\rougemeilland\palmtree.math.core.uint\palmtree.math.core.uint\pmc_interface_csharp.cpp
; File z:\sources\lunor\repos\rougemeilland\palmtree.math.core.uint\palmtree.math.core.uint\pmc_exception.h
; File z:\sources\lunor\repos\rougemeilland\palmtree.math.core.uint\palmtree.math.core.uint\pmc_interface_csharp.cpp
;	COMDAT _PMCCS_DivRem_X_I@16
_TEXT	SEGMENT
_ex$2 = -20						; size = 4
__$EHRec$ = -16						; size = 16
_u$ = 8							; size = 4
_v$ = 12						; size = 4
_q$ = 16						; size = 4
$T3 = 20						; size = 4
_r$ = 20						; size = 4
_PMCCS_DivRem_X_I@16 PROC				; COMDAT

; 602  :     {

  00000	55		 push	 ebp
  00001	8b ec		 mov	 ebp, esp
  00003	6a ff		 push	 -1
  00005	68 00 00 00 00	 push	 __ehhandler$_PMCCS_DivRem_X_I@16
  0000a	64 a1 00 00 00
	00		 mov	 eax, DWORD PTR fs:0
  00010	50		 push	 eax
  00011	83 ec 08	 sub	 esp, 8
  00014	53		 push	 ebx
  00015	56		 push	 esi
  00016	57		 push	 edi
  00017	a1 00 00 00 00	 mov	 eax, DWORD PTR ___security_cookie
  0001c	33 c5		 xor	 eax, ebp
  0001e	50		 push	 eax
  0001f	8d 45 f4	 lea	 eax, DWORD PTR __$EHRec$[ebp+4]
  00022	64 a3 00 00 00
	00		 mov	 DWORD PTR fs:0, eax
  00028	89 65 f0	 mov	 DWORD PTR __$EHRec$[ebp], esp

; 603  :         if (r == nullptr)

  0002b	8b 75 14	 mov	 esi, DWORD PTR _r$[ebp]
  0002e	85 f6		 test	 esi, esi
  00030	75 17		 jne	 SHORT $LN2@PMCCS_DivR

; 604  :             return (PMC_STATUS_ARGUMENT_NULL_ERROR);

  00032	8d 46 fe	 lea	 eax, DWORD PTR [esi-2]

; 613  :         }
; 614  :     }

  00035	8b 4d f4	 mov	 ecx, DWORD PTR __$EHRec$[ebp+4]
  00038	64 89 0d 00 00
	00 00		 mov	 DWORD PTR fs:0, ecx
  0003f	59		 pop	 ecx
  00040	5f		 pop	 edi
  00041	5e		 pop	 esi
  00042	5b		 pop	 ebx
  00043	8b e5		 mov	 esp, ebp
  00045	5d		 pop	 ebp
  00046	c2 10 00	 ret	 16			; 00000010H
$LN2@PMCCS_DivR:

; 605  :         try

  00049	c7 45 fc 00 00
	00 00		 mov	 DWORD PTR __$EHRec$[ebp+12], 0

; 606  :         {
; 607  :             *r = PMC_DivRem_X_I(u, v, q);

  00050	ff 75 10	 push	 DWORD PTR _q$[ebp]
  00053	ff 75 0c	 push	 DWORD PTR _v$[ebp]
  00056	ff 75 08	 push	 DWORD PTR _u$[ebp]
  00059	e8 00 00 00 00	 call	 ?PMC_DivRem_X_I@Internal@Core@Math@Palmtree@@YGIPAU__tag_PMC_HANDLE_UINT@1234@IPAPAU51234@@Z ; Palmtree::Math::Core::Internal::PMC_DivRem_X_I
  0005e	89 06		 mov	 DWORD PTR [esi], eax

; 608  :             return (PMC_STATUS_OK);

  00060	33 c0		 xor	 eax, eax

; 613  :         }
; 614  :     }

  00062	8b 4d f4	 mov	 ecx, DWORD PTR __$EHRec$[ebp+4]
  00065	64 89 0d 00 00
	00 00		 mov	 DWORD PTR fs:0, ecx
  0006c	59		 pop	 ecx
  0006d	5f		 pop	 edi
  0006e	5e		 pop	 esi
  0006f	5b		 pop	 ebx
  00070	8b e5		 mov	 esp, ebp
  00072	5d		 pop	 ebp
  00073	c2 10 00	 ret	 16			; 00000010H
__catch$_PMCCS_DivRem_X_I@16$0:
; File z:\sources\lunor\repos\rougemeilland\palmtree.math.core.uint\palmtree.math.core.uint\pmc_exception.h

; 75   :             return (_code);

  00076	8b 45 ec	 mov	 eax, DWORD PTR _ex$2[ebp]
  00079	8b 40 0c	 mov	 eax, DWORD PTR [eax+12]
  0007c	89 45 14	 mov	 DWORD PTR $T3[ebp], eax
; File z:\sources\lunor\repos\rougemeilland\palmtree.math.core.uint\palmtree.math.core.uint\pmc_interface_csharp.cpp

; 612  :             return (ex.GetStatusCode());

  0007f	b8 00 00 00 00	 mov	 eax, $LN8@PMCCS_DivR
  00084	c3		 ret	 0
$LN8@PMCCS_DivR:
; File z:\sources\lunor\repos\rougemeilland\palmtree.math.core.uint\palmtree.math.core.uint\pmc_exception.h
  00085	c7 45 fc ff ff
	ff ff		 mov	 DWORD PTR __$EHRec$[ebp+12], -1
; File z:\sources\lunor\repos\rougemeilland\palmtree.math.core.uint\palmtree.math.core.uint\pmc_interface_csharp.cpp

; 612  :             return (ex.GetStatusCode());

  0008c	8b 45 14	 mov	 eax, DWORD PTR $T3[ebp]

; 613  :         }
; 614  :     }

  0008f	8b 4d f4	 mov	 ecx, DWORD PTR __$EHRec$[ebp+4]
  00092	64 89 0d 00 00
	00 00		 mov	 DWORD PTR fs:0, ecx
  00099	59		 pop	 ecx
  0009a	5f		 pop	 edi
  0009b	5e		 pop	 esi
  0009c	5b		 pop	 ebx
  0009d	8b e5		 mov	 esp, ebp
  0009f	5d		 pop	 ebp
  000a0	c2 10 00	 ret	 16			; 00000010H
_TEXT	ENDS
;	COMDAT text$x
text$x	SEGMENT
__ehhandler$_PMCCS_DivRem_X_I@16:
  00000	8b 54 24 08	 mov	 edx, DWORD PTR [esp+8]
  00004	8d 42 0c	 lea	 eax, DWORD PTR [edx+12]
  00007	8b 4a e8	 mov	 ecx, DWORD PTR [edx-24]
  0000a	33 c8		 xor	 ecx, eax
  0000c	e8 00 00 00 00	 call	 @__security_check_cookie@4
  00011	b8 00 00 00 00	 mov	 eax, OFFSET __ehfuncinfo$_PMCCS_DivRem_X_I@16
  00016	e9 00 00 00 00	 jmp	 ___CxxFrameHandler3
text$x	ENDS
_PMCCS_DivRem_X_I@16 ENDP
; Function compile flags: /Ogtp
; File z:\sources\lunor\repos\rougemeilland\palmtree.math.core.uint\palmtree.math.core.uint\pmc_interface_csharp.cpp
; File z:\sources\lunor\repos\rougemeilland\palmtree.math.core.uint\palmtree.math.core.uint\pmc_exception.h
; File z:\sources\lunor\repos\rougemeilland\palmtree.math.core.uint\palmtree.math.core.uint\pmc_interface_csharp.cpp
;	COMDAT _PMCCS_DivRem_L_X@20
_TEXT	SEGMENT
_ex$2 = -20						; size = 4
__$EHRec$ = -16						; size = 16
_u$ = 8							; size = 8
_v$ = 16						; size = 4
_q$ = 20						; size = 4
$T3 = 24						; size = 4
_r$ = 24						; size = 4
_PMCCS_DivRem_L_X@20 PROC				; COMDAT

; 587  :     {

  00000	55		 push	 ebp
  00001	8b ec		 mov	 ebp, esp
  00003	6a ff		 push	 -1
  00005	68 00 00 00 00	 push	 __ehhandler$_PMCCS_DivRem_L_X@20
  0000a	64 a1 00 00 00
	00		 mov	 eax, DWORD PTR fs:0
  00010	50		 push	 eax
  00011	83 ec 08	 sub	 esp, 8
  00014	53		 push	 ebx
  00015	56		 push	 esi
  00016	57		 push	 edi
  00017	a1 00 00 00 00	 mov	 eax, DWORD PTR ___security_cookie
  0001c	33 c5		 xor	 eax, ebp
  0001e	50		 push	 eax
  0001f	8d 45 f4	 lea	 eax, DWORD PTR __$EHRec$[ebp+4]
  00022	64 a3 00 00 00
	00		 mov	 DWORD PTR fs:0, eax
  00028	89 65 f0	 mov	 DWORD PTR __$EHRec$[ebp], esp

; 588  :         if (r == nullptr)

  0002b	8b 75 18	 mov	 esi, DWORD PTR _r$[ebp]
  0002e	85 f6		 test	 esi, esi
  00030	75 17		 jne	 SHORT $LN2@PMCCS_DivR

; 589  :             return (PMC_STATUS_ARGUMENT_NULL_ERROR);

  00032	8d 46 fe	 lea	 eax, DWORD PTR [esi-2]

; 598  :         }
; 599  :     }

  00035	8b 4d f4	 mov	 ecx, DWORD PTR __$EHRec$[ebp+4]
  00038	64 89 0d 00 00
	00 00		 mov	 DWORD PTR fs:0, ecx
  0003f	59		 pop	 ecx
  00040	5f		 pop	 edi
  00041	5e		 pop	 esi
  00042	5b		 pop	 ebx
  00043	8b e5		 mov	 esp, ebp
  00045	5d		 pop	 ebp
  00046	c2 14 00	 ret	 20			; 00000014H
$LN2@PMCCS_DivR:

; 590  :         try

  00049	c7 45 fc 00 00
	00 00		 mov	 DWORD PTR __$EHRec$[ebp+12], 0

; 591  :         {
; 592  :             *r = PMC_DivRem_L_X(u, v, q);

  00050	ff 75 14	 push	 DWORD PTR _q$[ebp]
  00053	ff 75 10	 push	 DWORD PTR _v$[ebp]
  00056	ff 75 0c	 push	 DWORD PTR _u$[ebp+4]
  00059	ff 75 08	 push	 DWORD PTR _u$[ebp]
  0005c	e8 00 00 00 00	 call	 ?PMC_DivRem_L_X@Internal@Core@Math@Palmtree@@YG_K_KPAU__tag_PMC_HANDLE_UINT@1234@PA_K@Z ; Palmtree::Math::Core::Internal::PMC_DivRem_L_X
  00061	89 06		 mov	 DWORD PTR [esi], eax
  00063	89 56 04	 mov	 DWORD PTR [esi+4], edx

; 593  :             return (PMC_STATUS_OK);

  00066	33 c0		 xor	 eax, eax

; 598  :         }
; 599  :     }

  00068	8b 4d f4	 mov	 ecx, DWORD PTR __$EHRec$[ebp+4]
  0006b	64 89 0d 00 00
	00 00		 mov	 DWORD PTR fs:0, ecx
  00072	59		 pop	 ecx
  00073	5f		 pop	 edi
  00074	5e		 pop	 esi
  00075	5b		 pop	 ebx
  00076	8b e5		 mov	 esp, ebp
  00078	5d		 pop	 ebp
  00079	c2 14 00	 ret	 20			; 00000014H
__catch$_PMCCS_DivRem_L_X@20$0:
; File z:\sources\lunor\repos\rougemeilland\palmtree.math.core.uint\palmtree.math.core.uint\pmc_exception.h

; 75   :             return (_code);

  0007c	8b 45 ec	 mov	 eax, DWORD PTR _ex$2[ebp]
  0007f	8b 40 0c	 mov	 eax, DWORD PTR [eax+12]
  00082	89 45 18	 mov	 DWORD PTR $T3[ebp], eax
; File z:\sources\lunor\repos\rougemeilland\palmtree.math.core.uint\palmtree.math.core.uint\pmc_interface_csharp.cpp

; 597  :             return (ex.GetStatusCode());

  00085	b8 00 00 00 00	 mov	 eax, $LN8@PMCCS_DivR
  0008a	c3		 ret	 0
$LN8@PMCCS_DivR:
; File z:\sources\lunor\repos\rougemeilland\palmtree.math.core.uint\palmtree.math.core.uint\pmc_exception.h
  0008b	c7 45 fc ff ff
	ff ff		 mov	 DWORD PTR __$EHRec$[ebp+12], -1
; File z:\sources\lunor\repos\rougemeilland\palmtree.math.core.uint\palmtree.math.core.uint\pmc_interface_csharp.cpp

; 597  :             return (ex.GetStatusCode());

  00092	8b 45 18	 mov	 eax, DWORD PTR $T3[ebp]

; 598  :         }
; 599  :     }

  00095	8b 4d f4	 mov	 ecx, DWORD PTR __$EHRec$[ebp+4]
  00098	64 89 0d 00 00
	00 00		 mov	 DWORD PTR fs:0, ecx
  0009f	59		 pop	 ecx
  000a0	5f		 pop	 edi
  000a1	5e		 pop	 esi
  000a2	5b		 pop	 ebx
  000a3	8b e5		 mov	 esp, ebp
  000a5	5d		 pop	 ebp
  000a6	c2 14 00	 ret	 20			; 00000014H
_TEXT	ENDS
;	COMDAT text$x
text$x	SEGMENT
__ehhandler$_PMCCS_DivRem_L_X@20:
  00000	8b 54 24 08	 mov	 edx, DWORD PTR [esp+8]
  00004	8d 42 0c	 lea	 eax, DWORD PTR [edx+12]
  00007	8b 4a e8	 mov	 ecx, DWORD PTR [edx-24]
  0000a	33 c8		 xor	 ecx, eax
  0000c	e8 00 00 00 00	 call	 @__security_check_cookie@4
  00011	b8 00 00 00 00	 mov	 eax, OFFSET __ehfuncinfo$_PMCCS_DivRem_L_X@20
  00016	e9 00 00 00 00	 jmp	 ___CxxFrameHandler3
text$x	ENDS
_PMCCS_DivRem_L_X@20 ENDP
; Function compile flags: /Ogtp
; File z:\sources\lunor\repos\rougemeilland\palmtree.math.core.uint\palmtree.math.core.uint\pmc_interface_csharp.cpp
; File z:\sources\lunor\repos\rougemeilland\palmtree.math.core.uint\palmtree.math.core.uint\pmc_exception.h
; File z:\sources\lunor\repos\rougemeilland\palmtree.math.core.uint\palmtree.math.core.uint\pmc_interface_csharp.cpp
;	COMDAT _PMCCS_DivRem_I_X@16
_TEXT	SEGMENT
_ex$2 = -20						; size = 4
__$EHRec$ = -16						; size = 16
_u$ = 8							; size = 4
_v$ = 12						; size = 4
_q$ = 16						; size = 4
$T3 = 20						; size = 4
_r$ = 20						; size = 4
_PMCCS_DivRem_I_X@16 PROC				; COMDAT

; 572  :     {

  00000	55		 push	 ebp
  00001	8b ec		 mov	 ebp, esp
  00003	6a ff		 push	 -1
  00005	68 00 00 00 00	 push	 __ehhandler$_PMCCS_DivRem_I_X@16
  0000a	64 a1 00 00 00
	00		 mov	 eax, DWORD PTR fs:0
  00010	50		 push	 eax
  00011	83 ec 08	 sub	 esp, 8
  00014	53		 push	 ebx
  00015	56		 push	 esi
  00016	57		 push	 edi
  00017	a1 00 00 00 00	 mov	 eax, DWORD PTR ___security_cookie
  0001c	33 c5		 xor	 eax, ebp
  0001e	50		 push	 eax
  0001f	8d 45 f4	 lea	 eax, DWORD PTR __$EHRec$[ebp+4]
  00022	64 a3 00 00 00
	00		 mov	 DWORD PTR fs:0, eax
  00028	89 65 f0	 mov	 DWORD PTR __$EHRec$[ebp], esp

; 573  :         if (r == nullptr)

  0002b	8b 75 14	 mov	 esi, DWORD PTR _r$[ebp]
  0002e	85 f6		 test	 esi, esi
  00030	75 17		 jne	 SHORT $LN2@PMCCS_DivR

; 574  :             return (PMC_STATUS_ARGUMENT_NULL_ERROR);

  00032	8d 46 fe	 lea	 eax, DWORD PTR [esi-2]

; 583  :         }
; 584  :     }

  00035	8b 4d f4	 mov	 ecx, DWORD PTR __$EHRec$[ebp+4]
  00038	64 89 0d 00 00
	00 00		 mov	 DWORD PTR fs:0, ecx
  0003f	59		 pop	 ecx
  00040	5f		 pop	 edi
  00041	5e		 pop	 esi
  00042	5b		 pop	 ebx
  00043	8b e5		 mov	 esp, ebp
  00045	5d		 pop	 ebp
  00046	c2 10 00	 ret	 16			; 00000010H
$LN2@PMCCS_DivR:

; 575  :         try

  00049	c7 45 fc 00 00
	00 00		 mov	 DWORD PTR __$EHRec$[ebp+12], 0

; 576  :         {
; 577  :             *r = PMC_DivRem_I_X(u, v, q);

  00050	ff 75 10	 push	 DWORD PTR _q$[ebp]
  00053	ff 75 0c	 push	 DWORD PTR _v$[ebp]
  00056	ff 75 08	 push	 DWORD PTR _u$[ebp]
  00059	e8 00 00 00 00	 call	 ?PMC_DivRem_I_X@Internal@Core@Math@Palmtree@@YGIIPAU__tag_PMC_HANDLE_UINT@1234@PAI@Z ; Palmtree::Math::Core::Internal::PMC_DivRem_I_X
  0005e	89 06		 mov	 DWORD PTR [esi], eax

; 578  :             return (PMC_STATUS_OK);

  00060	33 c0		 xor	 eax, eax

; 583  :         }
; 584  :     }

  00062	8b 4d f4	 mov	 ecx, DWORD PTR __$EHRec$[ebp+4]
  00065	64 89 0d 00 00
	00 00		 mov	 DWORD PTR fs:0, ecx
  0006c	59		 pop	 ecx
  0006d	5f		 pop	 edi
  0006e	5e		 pop	 esi
  0006f	5b		 pop	 ebx
  00070	8b e5		 mov	 esp, ebp
  00072	5d		 pop	 ebp
  00073	c2 10 00	 ret	 16			; 00000010H
__catch$_PMCCS_DivRem_I_X@16$0:
; File z:\sources\lunor\repos\rougemeilland\palmtree.math.core.uint\palmtree.math.core.uint\pmc_exception.h

; 75   :             return (_code);

  00076	8b 45 ec	 mov	 eax, DWORD PTR _ex$2[ebp]
  00079	8b 40 0c	 mov	 eax, DWORD PTR [eax+12]
  0007c	89 45 14	 mov	 DWORD PTR $T3[ebp], eax
; File z:\sources\lunor\repos\rougemeilland\palmtree.math.core.uint\palmtree.math.core.uint\pmc_interface_csharp.cpp

; 582  :             return (ex.GetStatusCode());

  0007f	b8 00 00 00 00	 mov	 eax, $LN8@PMCCS_DivR
  00084	c3		 ret	 0
$LN8@PMCCS_DivR:
; File z:\sources\lunor\repos\rougemeilland\palmtree.math.core.uint\palmtree.math.core.uint\pmc_exception.h
  00085	c7 45 fc ff ff
	ff ff		 mov	 DWORD PTR __$EHRec$[ebp+12], -1
; File z:\sources\lunor\repos\rougemeilland\palmtree.math.core.uint\palmtree.math.core.uint\pmc_interface_csharp.cpp

; 582  :             return (ex.GetStatusCode());

  0008c	8b 45 14	 mov	 eax, DWORD PTR $T3[ebp]

; 583  :         }
; 584  :     }

  0008f	8b 4d f4	 mov	 ecx, DWORD PTR __$EHRec$[ebp+4]
  00092	64 89 0d 00 00
	00 00		 mov	 DWORD PTR fs:0, ecx
  00099	59		 pop	 ecx
  0009a	5f		 pop	 edi
  0009b	5e		 pop	 esi
  0009c	5b		 pop	 ebx
  0009d	8b e5		 mov	 esp, ebp
  0009f	5d		 pop	 ebp
  000a0	c2 10 00	 ret	 16			; 00000010H
_TEXT	ENDS
;	COMDAT text$x
text$x	SEGMENT
__ehhandler$_PMCCS_DivRem_I_X@16:
  00000	8b 54 24 08	 mov	 edx, DWORD PTR [esp+8]
  00004	8d 42 0c	 lea	 eax, DWORD PTR [edx+12]
  00007	8b 4a e8	 mov	 ecx, DWORD PTR [edx-24]
  0000a	33 c8		 xor	 ecx, eax
  0000c	e8 00 00 00 00	 call	 @__security_check_cookie@4
  00011	b8 00 00 00 00	 mov	 eax, OFFSET __ehfuncinfo$_PMCCS_DivRem_I_X@16
  00016	e9 00 00 00 00	 jmp	 ___CxxFrameHandler3
text$x	ENDS
_PMCCS_DivRem_I_X@16 ENDP
; Function compile flags: /Ogtp
; File z:\sources\lunor\repos\rougemeilland\palmtree.math.core.uint\palmtree.math.core.uint\pmc_interface_csharp.cpp
; File z:\sources\lunor\repos\rougemeilland\palmtree.math.core.uint\palmtree.math.core.uint\pmc_exception.h
; File z:\sources\lunor\repos\rougemeilland\palmtree.math.core.uint\palmtree.math.core.uint\pmc_interface_csharp.cpp
;	COMDAT _PMCCS_Multiply_X_X@12
_TEXT	SEGMENT
_ex$2 = -20						; size = 4
__$EHRec$ = -16						; size = 16
_u$ = 8							; size = 4
_v$ = 12						; size = 4
$T3 = 16						; size = 4
_w$ = 16						; size = 4
_PMCCS_Multiply_X_X@12 PROC				; COMDAT

; 557  :     {

  00000	55		 push	 ebp
  00001	8b ec		 mov	 ebp, esp
  00003	6a ff		 push	 -1
  00005	68 00 00 00 00	 push	 __ehhandler$_PMCCS_Multiply_X_X@12
  0000a	64 a1 00 00 00
	00		 mov	 eax, DWORD PTR fs:0
  00010	50		 push	 eax
  00011	83 ec 08	 sub	 esp, 8
  00014	53		 push	 ebx
  00015	56		 push	 esi
  00016	57		 push	 edi
  00017	a1 00 00 00 00	 mov	 eax, DWORD PTR ___security_cookie
  0001c	33 c5		 xor	 eax, ebp
  0001e	50		 push	 eax
  0001f	8d 45 f4	 lea	 eax, DWORD PTR __$EHRec$[ebp+4]
  00022	64 a3 00 00 00
	00		 mov	 DWORD PTR fs:0, eax
  00028	89 65 f0	 mov	 DWORD PTR __$EHRec$[ebp], esp

; 558  :         if (w == nullptr)

  0002b	8b 75 10	 mov	 esi, DWORD PTR _w$[ebp]
  0002e	85 f6		 test	 esi, esi
  00030	75 17		 jne	 SHORT $LN2@PMCCS_Mult

; 559  :             return (PMC_STATUS_ARGUMENT_NULL_ERROR);

  00032	8d 46 fe	 lea	 eax, DWORD PTR [esi-2]

; 568  :         }
; 569  :     }

  00035	8b 4d f4	 mov	 ecx, DWORD PTR __$EHRec$[ebp+4]
  00038	64 89 0d 00 00
	00 00		 mov	 DWORD PTR fs:0, ecx
  0003f	59		 pop	 ecx
  00040	5f		 pop	 edi
  00041	5e		 pop	 esi
  00042	5b		 pop	 ebx
  00043	8b e5		 mov	 esp, ebp
  00045	5d		 pop	 ebp
  00046	c2 0c 00	 ret	 12			; 0000000cH
$LN2@PMCCS_Mult:

; 560  :         try

  00049	c7 45 fc 00 00
	00 00		 mov	 DWORD PTR __$EHRec$[ebp+12], 0

; 561  :         {
; 562  :             *w = PMC_Multiply_X_X(u, v);

  00050	ff 75 0c	 push	 DWORD PTR _v$[ebp]
  00053	ff 75 08	 push	 DWORD PTR _u$[ebp]
  00056	e8 00 00 00 00	 call	 ?PMC_Multiply_X_X@Internal@Core@Math@Palmtree@@YGPAU__tag_PMC_HANDLE_UINT@1234@PAU51234@0@Z ; Palmtree::Math::Core::Internal::PMC_Multiply_X_X
  0005b	89 06		 mov	 DWORD PTR [esi], eax

; 563  :             return (PMC_STATUS_OK);

  0005d	33 c0		 xor	 eax, eax

; 568  :         }
; 569  :     }

  0005f	8b 4d f4	 mov	 ecx, DWORD PTR __$EHRec$[ebp+4]
  00062	64 89 0d 00 00
	00 00		 mov	 DWORD PTR fs:0, ecx
  00069	59		 pop	 ecx
  0006a	5f		 pop	 edi
  0006b	5e		 pop	 esi
  0006c	5b		 pop	 ebx
  0006d	8b e5		 mov	 esp, ebp
  0006f	5d		 pop	 ebp
  00070	c2 0c 00	 ret	 12			; 0000000cH
__catch$_PMCCS_Multiply_X_X@12$0:
; File z:\sources\lunor\repos\rougemeilland\palmtree.math.core.uint\palmtree.math.core.uint\pmc_exception.h

; 75   :             return (_code);

  00073	8b 45 ec	 mov	 eax, DWORD PTR _ex$2[ebp]
  00076	8b 40 0c	 mov	 eax, DWORD PTR [eax+12]
  00079	89 45 10	 mov	 DWORD PTR $T3[ebp], eax
; File z:\sources\lunor\repos\rougemeilland\palmtree.math.core.uint\palmtree.math.core.uint\pmc_interface_csharp.cpp

; 567  :             return (ex.GetStatusCode());

  0007c	b8 00 00 00 00	 mov	 eax, $LN8@PMCCS_Mult
  00081	c3		 ret	 0
$LN8@PMCCS_Mult:
; File z:\sources\lunor\repos\rougemeilland\palmtree.math.core.uint\palmtree.math.core.uint\pmc_exception.h
  00082	c7 45 fc ff ff
	ff ff		 mov	 DWORD PTR __$EHRec$[ebp+12], -1
; File z:\sources\lunor\repos\rougemeilland\palmtree.math.core.uint\palmtree.math.core.uint\pmc_interface_csharp.cpp

; 567  :             return (ex.GetStatusCode());

  00089	8b 45 10	 mov	 eax, DWORD PTR $T3[ebp]

; 568  :         }
; 569  :     }

  0008c	8b 4d f4	 mov	 ecx, DWORD PTR __$EHRec$[ebp+4]
  0008f	64 89 0d 00 00
	00 00		 mov	 DWORD PTR fs:0, ecx
  00096	59		 pop	 ecx
  00097	5f		 pop	 edi
  00098	5e		 pop	 esi
  00099	5b		 pop	 ebx
  0009a	8b e5		 mov	 esp, ebp
  0009c	5d		 pop	 ebp
  0009d	c2 0c 00	 ret	 12			; 0000000cH
_TEXT	ENDS
;	COMDAT text$x
text$x	SEGMENT
__ehhandler$_PMCCS_Multiply_X_X@12:
  00000	8b 54 24 08	 mov	 edx, DWORD PTR [esp+8]
  00004	8d 42 0c	 lea	 eax, DWORD PTR [edx+12]
  00007	8b 4a e8	 mov	 ecx, DWORD PTR [edx-24]
  0000a	33 c8		 xor	 ecx, eax
  0000c	e8 00 00 00 00	 call	 @__security_check_cookie@4
  00011	b8 00 00 00 00	 mov	 eax, OFFSET __ehfuncinfo$_PMCCS_Multiply_X_X@12
  00016	e9 00 00 00 00	 jmp	 ___CxxFrameHandler3
text$x	ENDS
_PMCCS_Multiply_X_X@12 ENDP
; Function compile flags: /Ogtp
; File z:\sources\lunor\repos\rougemeilland\palmtree.math.core.uint\palmtree.math.core.uint\pmc_interface_csharp.cpp
; File z:\sources\lunor\repos\rougemeilland\palmtree.math.core.uint\palmtree.math.core.uint\pmc_exception.h
; File z:\sources\lunor\repos\rougemeilland\palmtree.math.core.uint\palmtree.math.core.uint\pmc_interface_csharp.cpp
;	COMDAT _PMCCS_Multiply_X_L@16
_TEXT	SEGMENT
_ex$2 = -20						; size = 4
__$EHRec$ = -16						; size = 16
_u$ = 8							; size = 4
_v$ = 12						; size = 8
$T3 = 20						; size = 4
_w$ = 20						; size = 4
_PMCCS_Multiply_X_L@16 PROC				; COMDAT

; 542  :     {

  00000	55		 push	 ebp
  00001	8b ec		 mov	 ebp, esp
  00003	6a ff		 push	 -1
  00005	68 00 00 00 00	 push	 __ehhandler$_PMCCS_Multiply_X_L@16
  0000a	64 a1 00 00 00
	00		 mov	 eax, DWORD PTR fs:0
  00010	50		 push	 eax
  00011	83 ec 08	 sub	 esp, 8
  00014	53		 push	 ebx
  00015	56		 push	 esi
  00016	57		 push	 edi
  00017	a1 00 00 00 00	 mov	 eax, DWORD PTR ___security_cookie
  0001c	33 c5		 xor	 eax, ebp
  0001e	50		 push	 eax
  0001f	8d 45 f4	 lea	 eax, DWORD PTR __$EHRec$[ebp+4]
  00022	64 a3 00 00 00
	00		 mov	 DWORD PTR fs:0, eax
  00028	89 65 f0	 mov	 DWORD PTR __$EHRec$[ebp], esp

; 543  :         if (w == nullptr)

  0002b	8b 75 14	 mov	 esi, DWORD PTR _w$[ebp]
  0002e	85 f6		 test	 esi, esi
  00030	75 17		 jne	 SHORT $LN2@PMCCS_Mult

; 544  :             return (PMC_STATUS_ARGUMENT_NULL_ERROR);

  00032	8d 46 fe	 lea	 eax, DWORD PTR [esi-2]

; 553  :         }
; 554  :     }

  00035	8b 4d f4	 mov	 ecx, DWORD PTR __$EHRec$[ebp+4]
  00038	64 89 0d 00 00
	00 00		 mov	 DWORD PTR fs:0, ecx
  0003f	59		 pop	 ecx
  00040	5f		 pop	 edi
  00041	5e		 pop	 esi
  00042	5b		 pop	 ebx
  00043	8b e5		 mov	 esp, ebp
  00045	5d		 pop	 ebp
  00046	c2 10 00	 ret	 16			; 00000010H
$LN2@PMCCS_Mult:

; 545  :         try

  00049	c7 45 fc 00 00
	00 00		 mov	 DWORD PTR __$EHRec$[ebp+12], 0

; 546  :         {
; 547  :             *w = PMC_Multiply_X_L(u, v);

  00050	ff 75 10	 push	 DWORD PTR _v$[ebp+4]
  00053	ff 75 0c	 push	 DWORD PTR _v$[ebp]
  00056	ff 75 08	 push	 DWORD PTR _u$[ebp]
  00059	e8 00 00 00 00	 call	 ?PMC_Multiply_X_L@Internal@Core@Math@Palmtree@@YGPAU__tag_PMC_HANDLE_UINT@1234@PAU51234@_K@Z ; Palmtree::Math::Core::Internal::PMC_Multiply_X_L
  0005e	89 06		 mov	 DWORD PTR [esi], eax

; 548  :             return (PMC_STATUS_OK);

  00060	33 c0		 xor	 eax, eax

; 553  :         }
; 554  :     }

  00062	8b 4d f4	 mov	 ecx, DWORD PTR __$EHRec$[ebp+4]
  00065	64 89 0d 00 00
	00 00		 mov	 DWORD PTR fs:0, ecx
  0006c	59		 pop	 ecx
  0006d	5f		 pop	 edi
  0006e	5e		 pop	 esi
  0006f	5b		 pop	 ebx
  00070	8b e5		 mov	 esp, ebp
  00072	5d		 pop	 ebp
  00073	c2 10 00	 ret	 16			; 00000010H
__catch$_PMCCS_Multiply_X_L@16$0:
; File z:\sources\lunor\repos\rougemeilland\palmtree.math.core.uint\palmtree.math.core.uint\pmc_exception.h

; 75   :             return (_code);

  00076	8b 45 ec	 mov	 eax, DWORD PTR _ex$2[ebp]
  00079	8b 40 0c	 mov	 eax, DWORD PTR [eax+12]
  0007c	89 45 14	 mov	 DWORD PTR $T3[ebp], eax
; File z:\sources\lunor\repos\rougemeilland\palmtree.math.core.uint\palmtree.math.core.uint\pmc_interface_csharp.cpp

; 552  :             return (ex.GetStatusCode());

  0007f	b8 00 00 00 00	 mov	 eax, $LN8@PMCCS_Mult
  00084	c3		 ret	 0
$LN8@PMCCS_Mult:
; File z:\sources\lunor\repos\rougemeilland\palmtree.math.core.uint\palmtree.math.core.uint\pmc_exception.h
  00085	c7 45 fc ff ff
	ff ff		 mov	 DWORD PTR __$EHRec$[ebp+12], -1
; File z:\sources\lunor\repos\rougemeilland\palmtree.math.core.uint\palmtree.math.core.uint\pmc_interface_csharp.cpp

; 552  :             return (ex.GetStatusCode());

  0008c	8b 45 14	 mov	 eax, DWORD PTR $T3[ebp]

; 553  :         }
; 554  :     }

  0008f	8b 4d f4	 mov	 ecx, DWORD PTR __$EHRec$[ebp+4]
  00092	64 89 0d 00 00
	00 00		 mov	 DWORD PTR fs:0, ecx
  00099	59		 pop	 ecx
  0009a	5f		 pop	 edi
  0009b	5e		 pop	 esi
  0009c	5b		 pop	 ebx
  0009d	8b e5		 mov	 esp, ebp
  0009f	5d		 pop	 ebp
  000a0	c2 10 00	 ret	 16			; 00000010H
_TEXT	ENDS
;	COMDAT text$x
text$x	SEGMENT
__ehhandler$_PMCCS_Multiply_X_L@16:
  00000	8b 54 24 08	 mov	 edx, DWORD PTR [esp+8]
  00004	8d 42 0c	 lea	 eax, DWORD PTR [edx+12]
  00007	8b 4a e8	 mov	 ecx, DWORD PTR [edx-24]
  0000a	33 c8		 xor	 ecx, eax
  0000c	e8 00 00 00 00	 call	 @__security_check_cookie@4
  00011	b8 00 00 00 00	 mov	 eax, OFFSET __ehfuncinfo$_PMCCS_Multiply_X_L@16
  00016	e9 00 00 00 00	 jmp	 ___CxxFrameHandler3
text$x	ENDS
_PMCCS_Multiply_X_L@16 ENDP
; Function compile flags: /Ogtp
; File z:\sources\lunor\repos\rougemeilland\palmtree.math.core.uint\palmtree.math.core.uint\pmc_interface_csharp.cpp
; File z:\sources\lunor\repos\rougemeilland\palmtree.math.core.uint\palmtree.math.core.uint\pmc_exception.h
; File z:\sources\lunor\repos\rougemeilland\palmtree.math.core.uint\palmtree.math.core.uint\pmc_interface_csharp.cpp
;	COMDAT _PMCCS_Multiply_X_I@12
_TEXT	SEGMENT
_ex$2 = -20						; size = 4
__$EHRec$ = -16						; size = 16
_u$ = 8							; size = 4
_v$ = 12						; size = 4
$T3 = 16						; size = 4
_w$ = 16						; size = 4
_PMCCS_Multiply_X_I@12 PROC				; COMDAT

; 527  :     {

  00000	55		 push	 ebp
  00001	8b ec		 mov	 ebp, esp
  00003	6a ff		 push	 -1
  00005	68 00 00 00 00	 push	 __ehhandler$_PMCCS_Multiply_X_I@12
  0000a	64 a1 00 00 00
	00		 mov	 eax, DWORD PTR fs:0
  00010	50		 push	 eax
  00011	83 ec 08	 sub	 esp, 8
  00014	53		 push	 ebx
  00015	56		 push	 esi
  00016	57		 push	 edi
  00017	a1 00 00 00 00	 mov	 eax, DWORD PTR ___security_cookie
  0001c	33 c5		 xor	 eax, ebp
  0001e	50		 push	 eax
  0001f	8d 45 f4	 lea	 eax, DWORD PTR __$EHRec$[ebp+4]
  00022	64 a3 00 00 00
	00		 mov	 DWORD PTR fs:0, eax
  00028	89 65 f0	 mov	 DWORD PTR __$EHRec$[ebp], esp

; 528  :         if (w == nullptr)

  0002b	8b 75 10	 mov	 esi, DWORD PTR _w$[ebp]
  0002e	85 f6		 test	 esi, esi
  00030	75 17		 jne	 SHORT $LN2@PMCCS_Mult

; 529  :             return (PMC_STATUS_ARGUMENT_NULL_ERROR);

  00032	8d 46 fe	 lea	 eax, DWORD PTR [esi-2]

; 538  :         }
; 539  :     }

  00035	8b 4d f4	 mov	 ecx, DWORD PTR __$EHRec$[ebp+4]
  00038	64 89 0d 00 00
	00 00		 mov	 DWORD PTR fs:0, ecx
  0003f	59		 pop	 ecx
  00040	5f		 pop	 edi
  00041	5e		 pop	 esi
  00042	5b		 pop	 ebx
  00043	8b e5		 mov	 esp, ebp
  00045	5d		 pop	 ebp
  00046	c2 0c 00	 ret	 12			; 0000000cH
$LN2@PMCCS_Mult:

; 530  :         try

  00049	c7 45 fc 00 00
	00 00		 mov	 DWORD PTR __$EHRec$[ebp+12], 0

; 531  :         {
; 532  :             *w = PMC_Multiply_X_I(u, v);

  00050	ff 75 0c	 push	 DWORD PTR _v$[ebp]
  00053	ff 75 08	 push	 DWORD PTR _u$[ebp]
  00056	e8 00 00 00 00	 call	 ?PMC_Multiply_X_I@Internal@Core@Math@Palmtree@@YGPAU__tag_PMC_HANDLE_UINT@1234@PAU51234@I@Z ; Palmtree::Math::Core::Internal::PMC_Multiply_X_I
  0005b	89 06		 mov	 DWORD PTR [esi], eax

; 533  :             return (PMC_STATUS_OK);

  0005d	33 c0		 xor	 eax, eax

; 538  :         }
; 539  :     }

  0005f	8b 4d f4	 mov	 ecx, DWORD PTR __$EHRec$[ebp+4]
  00062	64 89 0d 00 00
	00 00		 mov	 DWORD PTR fs:0, ecx
  00069	59		 pop	 ecx
  0006a	5f		 pop	 edi
  0006b	5e		 pop	 esi
  0006c	5b		 pop	 ebx
  0006d	8b e5		 mov	 esp, ebp
  0006f	5d		 pop	 ebp
  00070	c2 0c 00	 ret	 12			; 0000000cH
__catch$_PMCCS_Multiply_X_I@12$0:
; File z:\sources\lunor\repos\rougemeilland\palmtree.math.core.uint\palmtree.math.core.uint\pmc_exception.h

; 75   :             return (_code);

  00073	8b 45 ec	 mov	 eax, DWORD PTR _ex$2[ebp]
  00076	8b 40 0c	 mov	 eax, DWORD PTR [eax+12]
  00079	89 45 10	 mov	 DWORD PTR $T3[ebp], eax
; File z:\sources\lunor\repos\rougemeilland\palmtree.math.core.uint\palmtree.math.core.uint\pmc_interface_csharp.cpp

; 537  :             return (ex.GetStatusCode());

  0007c	b8 00 00 00 00	 mov	 eax, $LN8@PMCCS_Mult
  00081	c3		 ret	 0
$LN8@PMCCS_Mult:
; File z:\sources\lunor\repos\rougemeilland\palmtree.math.core.uint\palmtree.math.core.uint\pmc_exception.h
  00082	c7 45 fc ff ff
	ff ff		 mov	 DWORD PTR __$EHRec$[ebp+12], -1
; File z:\sources\lunor\repos\rougemeilland\palmtree.math.core.uint\palmtree.math.core.uint\pmc_interface_csharp.cpp

; 537  :             return (ex.GetStatusCode());

  00089	8b 45 10	 mov	 eax, DWORD PTR $T3[ebp]

; 538  :         }
; 539  :     }

  0008c	8b 4d f4	 mov	 ecx, DWORD PTR __$EHRec$[ebp+4]
  0008f	64 89 0d 00 00
	00 00		 mov	 DWORD PTR fs:0, ecx
  00096	59		 pop	 ecx
  00097	5f		 pop	 edi
  00098	5e		 pop	 esi
  00099	5b		 pop	 ebx
  0009a	8b e5		 mov	 esp, ebp
  0009c	5d		 pop	 ebp
  0009d	c2 0c 00	 ret	 12			; 0000000cH
_TEXT	ENDS
;	COMDAT text$x
text$x	SEGMENT
__ehhandler$_PMCCS_Multiply_X_I@12:
  00000	8b 54 24 08	 mov	 edx, DWORD PTR [esp+8]
  00004	8d 42 0c	 lea	 eax, DWORD PTR [edx+12]
  00007	8b 4a e8	 mov	 ecx, DWORD PTR [edx-24]
  0000a	33 c8		 xor	 ecx, eax
  0000c	e8 00 00 00 00	 call	 @__security_check_cookie@4
  00011	b8 00 00 00 00	 mov	 eax, OFFSET __ehfuncinfo$_PMCCS_Multiply_X_I@12
  00016	e9 00 00 00 00	 jmp	 ___CxxFrameHandler3
text$x	ENDS
_PMCCS_Multiply_X_I@12 ENDP
; Function compile flags: /Ogtp
; File z:\sources\lunor\repos\rougemeilland\palmtree.math.core.uint\palmtree.math.core.uint\pmc_interface_csharp.cpp
; File z:\sources\lunor\repos\rougemeilland\palmtree.math.core.uint\palmtree.math.core.uint\pmc_exception.h
; File z:\sources\lunor\repos\rougemeilland\palmtree.math.core.uint\palmtree.math.core.uint\pmc_interface_csharp.cpp
;	COMDAT _PMCCS_Multiply_L_X@16
_TEXT	SEGMENT
_ex$2 = -20						; size = 4
__$EHRec$ = -16						; size = 16
_u$ = 8							; size = 8
_v$ = 16						; size = 4
$T3 = 20						; size = 4
_w$ = 20						; size = 4
_PMCCS_Multiply_L_X@16 PROC				; COMDAT

; 512  :     {

  00000	55		 push	 ebp
  00001	8b ec		 mov	 ebp, esp
  00003	6a ff		 push	 -1
  00005	68 00 00 00 00	 push	 __ehhandler$_PMCCS_Multiply_L_X@16
  0000a	64 a1 00 00 00
	00		 mov	 eax, DWORD PTR fs:0
  00010	50		 push	 eax
  00011	83 ec 08	 sub	 esp, 8
  00014	53		 push	 ebx
  00015	56		 push	 esi
  00016	57		 push	 edi
  00017	a1 00 00 00 00	 mov	 eax, DWORD PTR ___security_cookie
  0001c	33 c5		 xor	 eax, ebp
  0001e	50		 push	 eax
  0001f	8d 45 f4	 lea	 eax, DWORD PTR __$EHRec$[ebp+4]
  00022	64 a3 00 00 00
	00		 mov	 DWORD PTR fs:0, eax
  00028	89 65 f0	 mov	 DWORD PTR __$EHRec$[ebp], esp

; 513  :         if (w == nullptr)

  0002b	8b 75 14	 mov	 esi, DWORD PTR _w$[ebp]
  0002e	85 f6		 test	 esi, esi
  00030	75 17		 jne	 SHORT $LN2@PMCCS_Mult

; 514  :             return (PMC_STATUS_ARGUMENT_NULL_ERROR);

  00032	8d 46 fe	 lea	 eax, DWORD PTR [esi-2]

; 523  :         }
; 524  :     }

  00035	8b 4d f4	 mov	 ecx, DWORD PTR __$EHRec$[ebp+4]
  00038	64 89 0d 00 00
	00 00		 mov	 DWORD PTR fs:0, ecx
  0003f	59		 pop	 ecx
  00040	5f		 pop	 edi
  00041	5e		 pop	 esi
  00042	5b		 pop	 ebx
  00043	8b e5		 mov	 esp, ebp
  00045	5d		 pop	 ebp
  00046	c2 10 00	 ret	 16			; 00000010H
$LN2@PMCCS_Mult:

; 515  :         try

  00049	c7 45 fc 00 00
	00 00		 mov	 DWORD PTR __$EHRec$[ebp+12], 0

; 516  :         {
; 517  :             *w = PMC_Multiply_L_X(u, v);

  00050	ff 75 10	 push	 DWORD PTR _v$[ebp]
  00053	ff 75 0c	 push	 DWORD PTR _u$[ebp+4]
  00056	ff 75 08	 push	 DWORD PTR _u$[ebp]
  00059	e8 00 00 00 00	 call	 ?PMC_Multiply_L_X@Internal@Core@Math@Palmtree@@YGPAU__tag_PMC_HANDLE_UINT@1234@_KPAU51234@@Z ; Palmtree::Math::Core::Internal::PMC_Multiply_L_X
  0005e	89 06		 mov	 DWORD PTR [esi], eax

; 518  :             return (PMC_STATUS_OK);

  00060	33 c0		 xor	 eax, eax

; 523  :         }
; 524  :     }

  00062	8b 4d f4	 mov	 ecx, DWORD PTR __$EHRec$[ebp+4]
  00065	64 89 0d 00 00
	00 00		 mov	 DWORD PTR fs:0, ecx
  0006c	59		 pop	 ecx
  0006d	5f		 pop	 edi
  0006e	5e		 pop	 esi
  0006f	5b		 pop	 ebx
  00070	8b e5		 mov	 esp, ebp
  00072	5d		 pop	 ebp
  00073	c2 10 00	 ret	 16			; 00000010H
__catch$_PMCCS_Multiply_L_X@16$0:
; File z:\sources\lunor\repos\rougemeilland\palmtree.math.core.uint\palmtree.math.core.uint\pmc_exception.h

; 75   :             return (_code);

  00076	8b 45 ec	 mov	 eax, DWORD PTR _ex$2[ebp]
  00079	8b 40 0c	 mov	 eax, DWORD PTR [eax+12]
  0007c	89 45 14	 mov	 DWORD PTR $T3[ebp], eax
; File z:\sources\lunor\repos\rougemeilland\palmtree.math.core.uint\palmtree.math.core.uint\pmc_interface_csharp.cpp

; 522  :             return (ex.GetStatusCode());

  0007f	b8 00 00 00 00	 mov	 eax, $LN8@PMCCS_Mult
  00084	c3		 ret	 0
$LN8@PMCCS_Mult:
; File z:\sources\lunor\repos\rougemeilland\palmtree.math.core.uint\palmtree.math.core.uint\pmc_exception.h
  00085	c7 45 fc ff ff
	ff ff		 mov	 DWORD PTR __$EHRec$[ebp+12], -1
; File z:\sources\lunor\repos\rougemeilland\palmtree.math.core.uint\palmtree.math.core.uint\pmc_interface_csharp.cpp

; 522  :             return (ex.GetStatusCode());

  0008c	8b 45 14	 mov	 eax, DWORD PTR $T3[ebp]

; 523  :         }
; 524  :     }

  0008f	8b 4d f4	 mov	 ecx, DWORD PTR __$EHRec$[ebp+4]
  00092	64 89 0d 00 00
	00 00		 mov	 DWORD PTR fs:0, ecx
  00099	59		 pop	 ecx
  0009a	5f		 pop	 edi
  0009b	5e		 pop	 esi
  0009c	5b		 pop	 ebx
  0009d	8b e5		 mov	 esp, ebp
  0009f	5d		 pop	 ebp
  000a0	c2 10 00	 ret	 16			; 00000010H
_TEXT	ENDS
;	COMDAT text$x
text$x	SEGMENT
__ehhandler$_PMCCS_Multiply_L_X@16:
  00000	8b 54 24 08	 mov	 edx, DWORD PTR [esp+8]
  00004	8d 42 0c	 lea	 eax, DWORD PTR [edx+12]
  00007	8b 4a e8	 mov	 ecx, DWORD PTR [edx-24]
  0000a	33 c8		 xor	 ecx, eax
  0000c	e8 00 00 00 00	 call	 @__security_check_cookie@4
  00011	b8 00 00 00 00	 mov	 eax, OFFSET __ehfuncinfo$_PMCCS_Multiply_L_X@16
  00016	e9 00 00 00 00	 jmp	 ___CxxFrameHandler3
text$x	ENDS
_PMCCS_Multiply_L_X@16 ENDP
; Function compile flags: /Ogtp
; File z:\sources\lunor\repos\rougemeilland\palmtree.math.core.uint\palmtree.math.core.uint\pmc_interface_csharp.cpp
; File z:\sources\lunor\repos\rougemeilland\palmtree.math.core.uint\palmtree.math.core.uint\pmc_exception.h
; File z:\sources\lunor\repos\rougemeilland\palmtree.math.core.uint\palmtree.math.core.uint\pmc_interface_csharp.cpp
;	COMDAT _PMCCS_Multiply_I_X@12
_TEXT	SEGMENT
_ex$2 = -20						; size = 4
__$EHRec$ = -16						; size = 16
_u$ = 8							; size = 4
_v$ = 12						; size = 4
$T3 = 16						; size = 4
_w$ = 16						; size = 4
_PMCCS_Multiply_I_X@12 PROC				; COMDAT

; 497  :     {

  00000	55		 push	 ebp
  00001	8b ec		 mov	 ebp, esp
  00003	6a ff		 push	 -1
  00005	68 00 00 00 00	 push	 __ehhandler$_PMCCS_Multiply_I_X@12
  0000a	64 a1 00 00 00
	00		 mov	 eax, DWORD PTR fs:0
  00010	50		 push	 eax
  00011	83 ec 08	 sub	 esp, 8
  00014	53		 push	 ebx
  00015	56		 push	 esi
  00016	57		 push	 edi
  00017	a1 00 00 00 00	 mov	 eax, DWORD PTR ___security_cookie
  0001c	33 c5		 xor	 eax, ebp
  0001e	50		 push	 eax
  0001f	8d 45 f4	 lea	 eax, DWORD PTR __$EHRec$[ebp+4]
  00022	64 a3 00 00 00
	00		 mov	 DWORD PTR fs:0, eax
  00028	89 65 f0	 mov	 DWORD PTR __$EHRec$[ebp], esp

; 498  :         if (w == nullptr)

  0002b	8b 75 10	 mov	 esi, DWORD PTR _w$[ebp]
  0002e	85 f6		 test	 esi, esi
  00030	75 17		 jne	 SHORT $LN2@PMCCS_Mult

; 499  :             return (PMC_STATUS_ARGUMENT_NULL_ERROR);

  00032	8d 46 fe	 lea	 eax, DWORD PTR [esi-2]

; 508  :         }
; 509  :     }

  00035	8b 4d f4	 mov	 ecx, DWORD PTR __$EHRec$[ebp+4]
  00038	64 89 0d 00 00
	00 00		 mov	 DWORD PTR fs:0, ecx
  0003f	59		 pop	 ecx
  00040	5f		 pop	 edi
  00041	5e		 pop	 esi
  00042	5b		 pop	 ebx
  00043	8b e5		 mov	 esp, ebp
  00045	5d		 pop	 ebp
  00046	c2 0c 00	 ret	 12			; 0000000cH
$LN2@PMCCS_Mult:

; 500  :         try

  00049	c7 45 fc 00 00
	00 00		 mov	 DWORD PTR __$EHRec$[ebp+12], 0

; 501  :         {
; 502  :             *w = PMC_Multiply_I_X(u, v);

  00050	ff 75 0c	 push	 DWORD PTR _v$[ebp]
  00053	ff 75 08	 push	 DWORD PTR _u$[ebp]
  00056	e8 00 00 00 00	 call	 ?PMC_Multiply_I_X@Internal@Core@Math@Palmtree@@YGPAU__tag_PMC_HANDLE_UINT@1234@IPAU51234@@Z ; Palmtree::Math::Core::Internal::PMC_Multiply_I_X
  0005b	89 06		 mov	 DWORD PTR [esi], eax

; 503  :             return (PMC_STATUS_OK);

  0005d	33 c0		 xor	 eax, eax

; 508  :         }
; 509  :     }

  0005f	8b 4d f4	 mov	 ecx, DWORD PTR __$EHRec$[ebp+4]
  00062	64 89 0d 00 00
	00 00		 mov	 DWORD PTR fs:0, ecx
  00069	59		 pop	 ecx
  0006a	5f		 pop	 edi
  0006b	5e		 pop	 esi
  0006c	5b		 pop	 ebx
  0006d	8b e5		 mov	 esp, ebp
  0006f	5d		 pop	 ebp
  00070	c2 0c 00	 ret	 12			; 0000000cH
__catch$_PMCCS_Multiply_I_X@12$0:
; File z:\sources\lunor\repos\rougemeilland\palmtree.math.core.uint\palmtree.math.core.uint\pmc_exception.h

; 75   :             return (_code);

  00073	8b 45 ec	 mov	 eax, DWORD PTR _ex$2[ebp]
  00076	8b 40 0c	 mov	 eax, DWORD PTR [eax+12]
  00079	89 45 10	 mov	 DWORD PTR $T3[ebp], eax
; File z:\sources\lunor\repos\rougemeilland\palmtree.math.core.uint\palmtree.math.core.uint\pmc_interface_csharp.cpp

; 507  :             return (ex.GetStatusCode());

  0007c	b8 00 00 00 00	 mov	 eax, $LN8@PMCCS_Mult
  00081	c3		 ret	 0
$LN8@PMCCS_Mult:
; File z:\sources\lunor\repos\rougemeilland\palmtree.math.core.uint\palmtree.math.core.uint\pmc_exception.h
  00082	c7 45 fc ff ff
	ff ff		 mov	 DWORD PTR __$EHRec$[ebp+12], -1
; File z:\sources\lunor\repos\rougemeilland\palmtree.math.core.uint\palmtree.math.core.uint\pmc_interface_csharp.cpp

; 507  :             return (ex.GetStatusCode());

  00089	8b 45 10	 mov	 eax, DWORD PTR $T3[ebp]

; 508  :         }
; 509  :     }

  0008c	8b 4d f4	 mov	 ecx, DWORD PTR __$EHRec$[ebp+4]
  0008f	64 89 0d 00 00
	00 00		 mov	 DWORD PTR fs:0, ecx
  00096	59		 pop	 ecx
  00097	5f		 pop	 edi
  00098	5e		 pop	 esi
  00099	5b		 pop	 ebx
  0009a	8b e5		 mov	 esp, ebp
  0009c	5d		 pop	 ebp
  0009d	c2 0c 00	 ret	 12			; 0000000cH
_TEXT	ENDS
;	COMDAT text$x
text$x	SEGMENT
__ehhandler$_PMCCS_Multiply_I_X@12:
  00000	8b 54 24 08	 mov	 edx, DWORD PTR [esp+8]
  00004	8d 42 0c	 lea	 eax, DWORD PTR [edx+12]
  00007	8b 4a e8	 mov	 ecx, DWORD PTR [edx-24]
  0000a	33 c8		 xor	 ecx, eax
  0000c	e8 00 00 00 00	 call	 @__security_check_cookie@4
  00011	b8 00 00 00 00	 mov	 eax, OFFSET __ehfuncinfo$_PMCCS_Multiply_I_X@12
  00016	e9 00 00 00 00	 jmp	 ___CxxFrameHandler3
text$x	ENDS
_PMCCS_Multiply_I_X@12 ENDP
; Function compile flags: /Ogtp
; File z:\sources\lunor\repos\rougemeilland\palmtree.math.core.uint\palmtree.math.core.uint\pmc_interface_csharp.cpp
; File z:\sources\lunor\repos\rougemeilland\palmtree.math.core.uint\palmtree.math.core.uint\pmc_exception.h
; File z:\sources\lunor\repos\rougemeilland\palmtree.math.core.uint\palmtree.math.core.uint\pmc_interface_csharp.cpp
;	COMDAT _PMCCS_Subtruct_X_X@12
_TEXT	SEGMENT
_ex$2 = -20						; size = 4
__$EHRec$ = -16						; size = 16
_u$ = 8							; size = 4
_v$ = 12						; size = 4
$T3 = 16						; size = 4
_w$ = 16						; size = 4
_PMCCS_Subtruct_X_X@12 PROC				; COMDAT

; 482  :     {

  00000	55		 push	 ebp
  00001	8b ec		 mov	 ebp, esp
  00003	6a ff		 push	 -1
  00005	68 00 00 00 00	 push	 __ehhandler$_PMCCS_Subtruct_X_X@12
  0000a	64 a1 00 00 00
	00		 mov	 eax, DWORD PTR fs:0
  00010	50		 push	 eax
  00011	83 ec 08	 sub	 esp, 8
  00014	53		 push	 ebx
  00015	56		 push	 esi
  00016	57		 push	 edi
  00017	a1 00 00 00 00	 mov	 eax, DWORD PTR ___security_cookie
  0001c	33 c5		 xor	 eax, ebp
  0001e	50		 push	 eax
  0001f	8d 45 f4	 lea	 eax, DWORD PTR __$EHRec$[ebp+4]
  00022	64 a3 00 00 00
	00		 mov	 DWORD PTR fs:0, eax
  00028	89 65 f0	 mov	 DWORD PTR __$EHRec$[ebp], esp

; 483  :         if (w == nullptr)

  0002b	8b 75 10	 mov	 esi, DWORD PTR _w$[ebp]
  0002e	85 f6		 test	 esi, esi
  00030	75 17		 jne	 SHORT $LN2@PMCCS_Subt

; 484  :             return (PMC_STATUS_ARGUMENT_NULL_ERROR);

  00032	8d 46 fe	 lea	 eax, DWORD PTR [esi-2]

; 493  :         }
; 494  :     }

  00035	8b 4d f4	 mov	 ecx, DWORD PTR __$EHRec$[ebp+4]
  00038	64 89 0d 00 00
	00 00		 mov	 DWORD PTR fs:0, ecx
  0003f	59		 pop	 ecx
  00040	5f		 pop	 edi
  00041	5e		 pop	 esi
  00042	5b		 pop	 ebx
  00043	8b e5		 mov	 esp, ebp
  00045	5d		 pop	 ebp
  00046	c2 0c 00	 ret	 12			; 0000000cH
$LN2@PMCCS_Subt:

; 485  :         try

  00049	c7 45 fc 00 00
	00 00		 mov	 DWORD PTR __$EHRec$[ebp+12], 0

; 486  :         {
; 487  :             *w = PMC_Subtruct_X_X(u, v);

  00050	ff 75 0c	 push	 DWORD PTR _v$[ebp]
  00053	ff 75 08	 push	 DWORD PTR _u$[ebp]
  00056	e8 00 00 00 00	 call	 ?PMC_Subtruct_X_X@Internal@Core@Math@Palmtree@@YGPAU__tag_PMC_HANDLE_UINT@1234@PAU51234@0@Z ; Palmtree::Math::Core::Internal::PMC_Subtruct_X_X
  0005b	89 06		 mov	 DWORD PTR [esi], eax

; 488  :             return (PMC_STATUS_OK);

  0005d	33 c0		 xor	 eax, eax

; 493  :         }
; 494  :     }

  0005f	8b 4d f4	 mov	 ecx, DWORD PTR __$EHRec$[ebp+4]
  00062	64 89 0d 00 00
	00 00		 mov	 DWORD PTR fs:0, ecx
  00069	59		 pop	 ecx
  0006a	5f		 pop	 edi
  0006b	5e		 pop	 esi
  0006c	5b		 pop	 ebx
  0006d	8b e5		 mov	 esp, ebp
  0006f	5d		 pop	 ebp
  00070	c2 0c 00	 ret	 12			; 0000000cH
__catch$_PMCCS_Subtruct_X_X@12$0:
; File z:\sources\lunor\repos\rougemeilland\palmtree.math.core.uint\palmtree.math.core.uint\pmc_exception.h

; 75   :             return (_code);

  00073	8b 45 ec	 mov	 eax, DWORD PTR _ex$2[ebp]
  00076	8b 40 0c	 mov	 eax, DWORD PTR [eax+12]
  00079	89 45 10	 mov	 DWORD PTR $T3[ebp], eax
; File z:\sources\lunor\repos\rougemeilland\palmtree.math.core.uint\palmtree.math.core.uint\pmc_interface_csharp.cpp

; 492  :             return (ex.GetStatusCode());

  0007c	b8 00 00 00 00	 mov	 eax, $LN8@PMCCS_Subt
  00081	c3		 ret	 0
$LN8@PMCCS_Subt:
; File z:\sources\lunor\repos\rougemeilland\palmtree.math.core.uint\palmtree.math.core.uint\pmc_exception.h
  00082	c7 45 fc ff ff
	ff ff		 mov	 DWORD PTR __$EHRec$[ebp+12], -1
; File z:\sources\lunor\repos\rougemeilland\palmtree.math.core.uint\palmtree.math.core.uint\pmc_interface_csharp.cpp

; 492  :             return (ex.GetStatusCode());

  00089	8b 45 10	 mov	 eax, DWORD PTR $T3[ebp]

; 493  :         }
; 494  :     }

  0008c	8b 4d f4	 mov	 ecx, DWORD PTR __$EHRec$[ebp+4]
  0008f	64 89 0d 00 00
	00 00		 mov	 DWORD PTR fs:0, ecx
  00096	59		 pop	 ecx
  00097	5f		 pop	 edi
  00098	5e		 pop	 esi
  00099	5b		 pop	 ebx
  0009a	8b e5		 mov	 esp, ebp
  0009c	5d		 pop	 ebp
  0009d	c2 0c 00	 ret	 12			; 0000000cH
_TEXT	ENDS
;	COMDAT text$x
text$x	SEGMENT
__ehhandler$_PMCCS_Subtruct_X_X@12:
  00000	8b 54 24 08	 mov	 edx, DWORD PTR [esp+8]
  00004	8d 42 0c	 lea	 eax, DWORD PTR [edx+12]
  00007	8b 4a e8	 mov	 ecx, DWORD PTR [edx-24]
  0000a	33 c8		 xor	 ecx, eax
  0000c	e8 00 00 00 00	 call	 @__security_check_cookie@4
  00011	b8 00 00 00 00	 mov	 eax, OFFSET __ehfuncinfo$_PMCCS_Subtruct_X_X@12
  00016	e9 00 00 00 00	 jmp	 ___CxxFrameHandler3
text$x	ENDS
_PMCCS_Subtruct_X_X@12 ENDP
; Function compile flags: /Ogtp
; File z:\sources\lunor\repos\rougemeilland\palmtree.math.core.uint\palmtree.math.core.uint\pmc_interface_csharp.cpp
; File z:\sources\lunor\repos\rougemeilland\palmtree.math.core.uint\palmtree.math.core.uint\pmc_exception.h
; File z:\sources\lunor\repos\rougemeilland\palmtree.math.core.uint\palmtree.math.core.uint\pmc_interface_csharp.cpp
;	COMDAT _PMCCS_Subtruct_X_L@16
_TEXT	SEGMENT
_ex$2 = -20						; size = 4
__$EHRec$ = -16						; size = 16
_u$ = 8							; size = 4
_v$ = 12						; size = 8
$T3 = 20						; size = 4
_w$ = 20						; size = 4
_PMCCS_Subtruct_X_L@16 PROC				; COMDAT

; 467  :     {

  00000	55		 push	 ebp
  00001	8b ec		 mov	 ebp, esp
  00003	6a ff		 push	 -1
  00005	68 00 00 00 00	 push	 __ehhandler$_PMCCS_Subtruct_X_L@16
  0000a	64 a1 00 00 00
	00		 mov	 eax, DWORD PTR fs:0
  00010	50		 push	 eax
  00011	83 ec 08	 sub	 esp, 8
  00014	53		 push	 ebx
  00015	56		 push	 esi
  00016	57		 push	 edi
  00017	a1 00 00 00 00	 mov	 eax, DWORD PTR ___security_cookie
  0001c	33 c5		 xor	 eax, ebp
  0001e	50		 push	 eax
  0001f	8d 45 f4	 lea	 eax, DWORD PTR __$EHRec$[ebp+4]
  00022	64 a3 00 00 00
	00		 mov	 DWORD PTR fs:0, eax
  00028	89 65 f0	 mov	 DWORD PTR __$EHRec$[ebp], esp

; 468  :         if (w == nullptr)

  0002b	8b 75 14	 mov	 esi, DWORD PTR _w$[ebp]
  0002e	85 f6		 test	 esi, esi
  00030	75 17		 jne	 SHORT $LN2@PMCCS_Subt

; 469  :             return (PMC_STATUS_ARGUMENT_NULL_ERROR);

  00032	8d 46 fe	 lea	 eax, DWORD PTR [esi-2]

; 478  :         }
; 479  :     }

  00035	8b 4d f4	 mov	 ecx, DWORD PTR __$EHRec$[ebp+4]
  00038	64 89 0d 00 00
	00 00		 mov	 DWORD PTR fs:0, ecx
  0003f	59		 pop	 ecx
  00040	5f		 pop	 edi
  00041	5e		 pop	 esi
  00042	5b		 pop	 ebx
  00043	8b e5		 mov	 esp, ebp
  00045	5d		 pop	 ebp
  00046	c2 10 00	 ret	 16			; 00000010H
$LN2@PMCCS_Subt:

; 470  :         try

  00049	c7 45 fc 00 00
	00 00		 mov	 DWORD PTR __$EHRec$[ebp+12], 0

; 471  :         {
; 472  :             *w = PMC_Subtruct_X_L(u, v);

  00050	ff 75 10	 push	 DWORD PTR _v$[ebp+4]
  00053	ff 75 0c	 push	 DWORD PTR _v$[ebp]
  00056	ff 75 08	 push	 DWORD PTR _u$[ebp]
  00059	e8 00 00 00 00	 call	 ?PMC_Subtruct_X_L@Internal@Core@Math@Palmtree@@YGPAU__tag_PMC_HANDLE_UINT@1234@PAU51234@_K@Z ; Palmtree::Math::Core::Internal::PMC_Subtruct_X_L
  0005e	89 06		 mov	 DWORD PTR [esi], eax

; 473  :             return (PMC_STATUS_OK);

  00060	33 c0		 xor	 eax, eax

; 478  :         }
; 479  :     }

  00062	8b 4d f4	 mov	 ecx, DWORD PTR __$EHRec$[ebp+4]
  00065	64 89 0d 00 00
	00 00		 mov	 DWORD PTR fs:0, ecx
  0006c	59		 pop	 ecx
  0006d	5f		 pop	 edi
  0006e	5e		 pop	 esi
  0006f	5b		 pop	 ebx
  00070	8b e5		 mov	 esp, ebp
  00072	5d		 pop	 ebp
  00073	c2 10 00	 ret	 16			; 00000010H
__catch$_PMCCS_Subtruct_X_L@16$0:
; File z:\sources\lunor\repos\rougemeilland\palmtree.math.core.uint\palmtree.math.core.uint\pmc_exception.h

; 75   :             return (_code);

  00076	8b 45 ec	 mov	 eax, DWORD PTR _ex$2[ebp]
  00079	8b 40 0c	 mov	 eax, DWORD PTR [eax+12]
  0007c	89 45 14	 mov	 DWORD PTR $T3[ebp], eax
; File z:\sources\lunor\repos\rougemeilland\palmtree.math.core.uint\palmtree.math.core.uint\pmc_interface_csharp.cpp

; 477  :             return (ex.GetStatusCode());

  0007f	b8 00 00 00 00	 mov	 eax, $LN8@PMCCS_Subt
  00084	c3		 ret	 0
$LN8@PMCCS_Subt:
; File z:\sources\lunor\repos\rougemeilland\palmtree.math.core.uint\palmtree.math.core.uint\pmc_exception.h
  00085	c7 45 fc ff ff
	ff ff		 mov	 DWORD PTR __$EHRec$[ebp+12], -1
; File z:\sources\lunor\repos\rougemeilland\palmtree.math.core.uint\palmtree.math.core.uint\pmc_interface_csharp.cpp

; 477  :             return (ex.GetStatusCode());

  0008c	8b 45 14	 mov	 eax, DWORD PTR $T3[ebp]

; 478  :         }
; 479  :     }

  0008f	8b 4d f4	 mov	 ecx, DWORD PTR __$EHRec$[ebp+4]
  00092	64 89 0d 00 00
	00 00		 mov	 DWORD PTR fs:0, ecx
  00099	59		 pop	 ecx
  0009a	5f		 pop	 edi
  0009b	5e		 pop	 esi
  0009c	5b		 pop	 ebx
  0009d	8b e5		 mov	 esp, ebp
  0009f	5d		 pop	 ebp
  000a0	c2 10 00	 ret	 16			; 00000010H
_TEXT	ENDS
;	COMDAT text$x
text$x	SEGMENT
__ehhandler$_PMCCS_Subtruct_X_L@16:
  00000	8b 54 24 08	 mov	 edx, DWORD PTR [esp+8]
  00004	8d 42 0c	 lea	 eax, DWORD PTR [edx+12]
  00007	8b 4a e8	 mov	 ecx, DWORD PTR [edx-24]
  0000a	33 c8		 xor	 ecx, eax
  0000c	e8 00 00 00 00	 call	 @__security_check_cookie@4
  00011	b8 00 00 00 00	 mov	 eax, OFFSET __ehfuncinfo$_PMCCS_Subtruct_X_L@16
  00016	e9 00 00 00 00	 jmp	 ___CxxFrameHandler3
text$x	ENDS
_PMCCS_Subtruct_X_L@16 ENDP
; Function compile flags: /Ogtp
; File z:\sources\lunor\repos\rougemeilland\palmtree.math.core.uint\palmtree.math.core.uint\pmc_interface_csharp.cpp
; File z:\sources\lunor\repos\rougemeilland\palmtree.math.core.uint\palmtree.math.core.uint\pmc_exception.h
; File z:\sources\lunor\repos\rougemeilland\palmtree.math.core.uint\palmtree.math.core.uint\pmc_interface_csharp.cpp
;	COMDAT _PMCCS_Subtruct_X_I@12
_TEXT	SEGMENT
_ex$2 = -20						; size = 4
__$EHRec$ = -16						; size = 16
_u$ = 8							; size = 4
_v$ = 12						; size = 4
$T3 = 16						; size = 4
_w$ = 16						; size = 4
_PMCCS_Subtruct_X_I@12 PROC				; COMDAT

; 452  :     {

  00000	55		 push	 ebp
  00001	8b ec		 mov	 ebp, esp
  00003	6a ff		 push	 -1
  00005	68 00 00 00 00	 push	 __ehhandler$_PMCCS_Subtruct_X_I@12
  0000a	64 a1 00 00 00
	00		 mov	 eax, DWORD PTR fs:0
  00010	50		 push	 eax
  00011	83 ec 08	 sub	 esp, 8
  00014	53		 push	 ebx
  00015	56		 push	 esi
  00016	57		 push	 edi
  00017	a1 00 00 00 00	 mov	 eax, DWORD PTR ___security_cookie
  0001c	33 c5		 xor	 eax, ebp
  0001e	50		 push	 eax
  0001f	8d 45 f4	 lea	 eax, DWORD PTR __$EHRec$[ebp+4]
  00022	64 a3 00 00 00
	00		 mov	 DWORD PTR fs:0, eax
  00028	89 65 f0	 mov	 DWORD PTR __$EHRec$[ebp], esp

; 453  :         if (w == nullptr)

  0002b	8b 75 10	 mov	 esi, DWORD PTR _w$[ebp]
  0002e	85 f6		 test	 esi, esi
  00030	75 17		 jne	 SHORT $LN2@PMCCS_Subt

; 454  :             return (PMC_STATUS_ARGUMENT_NULL_ERROR);

  00032	8d 46 fe	 lea	 eax, DWORD PTR [esi-2]

; 463  :         }
; 464  :     }

  00035	8b 4d f4	 mov	 ecx, DWORD PTR __$EHRec$[ebp+4]
  00038	64 89 0d 00 00
	00 00		 mov	 DWORD PTR fs:0, ecx
  0003f	59		 pop	 ecx
  00040	5f		 pop	 edi
  00041	5e		 pop	 esi
  00042	5b		 pop	 ebx
  00043	8b e5		 mov	 esp, ebp
  00045	5d		 pop	 ebp
  00046	c2 0c 00	 ret	 12			; 0000000cH
$LN2@PMCCS_Subt:

; 455  :         try

  00049	c7 45 fc 00 00
	00 00		 mov	 DWORD PTR __$EHRec$[ebp+12], 0

; 456  :         {
; 457  :             *w = PMC_Subtruct_X_I(u, v);

  00050	ff 75 0c	 push	 DWORD PTR _v$[ebp]
  00053	ff 75 08	 push	 DWORD PTR _u$[ebp]
  00056	e8 00 00 00 00	 call	 ?PMC_Subtruct_X_I@Internal@Core@Math@Palmtree@@YGPAU__tag_PMC_HANDLE_UINT@1234@PAU51234@I@Z ; Palmtree::Math::Core::Internal::PMC_Subtruct_X_I
  0005b	89 06		 mov	 DWORD PTR [esi], eax

; 458  :             return (PMC_STATUS_OK);

  0005d	33 c0		 xor	 eax, eax

; 463  :         }
; 464  :     }

  0005f	8b 4d f4	 mov	 ecx, DWORD PTR __$EHRec$[ebp+4]
  00062	64 89 0d 00 00
	00 00		 mov	 DWORD PTR fs:0, ecx
  00069	59		 pop	 ecx
  0006a	5f		 pop	 edi
  0006b	5e		 pop	 esi
  0006c	5b		 pop	 ebx
  0006d	8b e5		 mov	 esp, ebp
  0006f	5d		 pop	 ebp
  00070	c2 0c 00	 ret	 12			; 0000000cH
__catch$_PMCCS_Subtruct_X_I@12$0:
; File z:\sources\lunor\repos\rougemeilland\palmtree.math.core.uint\palmtree.math.core.uint\pmc_exception.h

; 75   :             return (_code);

  00073	8b 45 ec	 mov	 eax, DWORD PTR _ex$2[ebp]
  00076	8b 40 0c	 mov	 eax, DWORD PTR [eax+12]
  00079	89 45 10	 mov	 DWORD PTR $T3[ebp], eax
; File z:\sources\lunor\repos\rougemeilland\palmtree.math.core.uint\palmtree.math.core.uint\pmc_interface_csharp.cpp

; 462  :             return (ex.GetStatusCode());

  0007c	b8 00 00 00 00	 mov	 eax, $LN8@PMCCS_Subt
  00081	c3		 ret	 0
$LN8@PMCCS_Subt:
; File z:\sources\lunor\repos\rougemeilland\palmtree.math.core.uint\palmtree.math.core.uint\pmc_exception.h
  00082	c7 45 fc ff ff
	ff ff		 mov	 DWORD PTR __$EHRec$[ebp+12], -1
; File z:\sources\lunor\repos\rougemeilland\palmtree.math.core.uint\palmtree.math.core.uint\pmc_interface_csharp.cpp

; 462  :             return (ex.GetStatusCode());

  00089	8b 45 10	 mov	 eax, DWORD PTR $T3[ebp]

; 463  :         }
; 464  :     }

  0008c	8b 4d f4	 mov	 ecx, DWORD PTR __$EHRec$[ebp+4]
  0008f	64 89 0d 00 00
	00 00		 mov	 DWORD PTR fs:0, ecx
  00096	59		 pop	 ecx
  00097	5f		 pop	 edi
  00098	5e		 pop	 esi
  00099	5b		 pop	 ebx
  0009a	8b e5		 mov	 esp, ebp
  0009c	5d		 pop	 ebp
  0009d	c2 0c 00	 ret	 12			; 0000000cH
_TEXT	ENDS
;	COMDAT text$x
text$x	SEGMENT
__ehhandler$_PMCCS_Subtruct_X_I@12:
  00000	8b 54 24 08	 mov	 edx, DWORD PTR [esp+8]
  00004	8d 42 0c	 lea	 eax, DWORD PTR [edx+12]
  00007	8b 4a e8	 mov	 ecx, DWORD PTR [edx-24]
  0000a	33 c8		 xor	 ecx, eax
  0000c	e8 00 00 00 00	 call	 @__security_check_cookie@4
  00011	b8 00 00 00 00	 mov	 eax, OFFSET __ehfuncinfo$_PMCCS_Subtruct_X_I@12
  00016	e9 00 00 00 00	 jmp	 ___CxxFrameHandler3
text$x	ENDS
_PMCCS_Subtruct_X_I@12 ENDP
; Function compile flags: /Ogtp
; File z:\sources\lunor\repos\rougemeilland\palmtree.math.core.uint\palmtree.math.core.uint\pmc_interface_csharp.cpp
; File z:\sources\lunor\repos\rougemeilland\palmtree.math.core.uint\palmtree.math.core.uint\pmc_exception.h
; File z:\sources\lunor\repos\rougemeilland\palmtree.math.core.uint\palmtree.math.core.uint\pmc_interface_csharp.cpp
;	COMDAT _PMCCS_Subtruct_L_X@16
_TEXT	SEGMENT
_ex$2 = -20						; size = 4
__$EHRec$ = -16						; size = 16
_u$ = 8							; size = 8
_v$ = 16						; size = 4
$T3 = 20						; size = 4
_w$ = 20						; size = 4
_PMCCS_Subtruct_L_X@16 PROC				; COMDAT

; 437  :     {

  00000	55		 push	 ebp
  00001	8b ec		 mov	 ebp, esp
  00003	6a ff		 push	 -1
  00005	68 00 00 00 00	 push	 __ehhandler$_PMCCS_Subtruct_L_X@16
  0000a	64 a1 00 00 00
	00		 mov	 eax, DWORD PTR fs:0
  00010	50		 push	 eax
  00011	83 ec 08	 sub	 esp, 8
  00014	53		 push	 ebx
  00015	56		 push	 esi
  00016	57		 push	 edi
  00017	a1 00 00 00 00	 mov	 eax, DWORD PTR ___security_cookie
  0001c	33 c5		 xor	 eax, ebp
  0001e	50		 push	 eax
  0001f	8d 45 f4	 lea	 eax, DWORD PTR __$EHRec$[ebp+4]
  00022	64 a3 00 00 00
	00		 mov	 DWORD PTR fs:0, eax
  00028	89 65 f0	 mov	 DWORD PTR __$EHRec$[ebp], esp

; 438  :         if (w == nullptr)

  0002b	8b 75 14	 mov	 esi, DWORD PTR _w$[ebp]
  0002e	85 f6		 test	 esi, esi
  00030	75 17		 jne	 SHORT $LN2@PMCCS_Subt

; 439  :             return (PMC_STATUS_ARGUMENT_NULL_ERROR);

  00032	8d 46 fe	 lea	 eax, DWORD PTR [esi-2]

; 448  :         }
; 449  :     }

  00035	8b 4d f4	 mov	 ecx, DWORD PTR __$EHRec$[ebp+4]
  00038	64 89 0d 00 00
	00 00		 mov	 DWORD PTR fs:0, ecx
  0003f	59		 pop	 ecx
  00040	5f		 pop	 edi
  00041	5e		 pop	 esi
  00042	5b		 pop	 ebx
  00043	8b e5		 mov	 esp, ebp
  00045	5d		 pop	 ebp
  00046	c2 10 00	 ret	 16			; 00000010H
$LN2@PMCCS_Subt:

; 440  :         try

  00049	c7 45 fc 00 00
	00 00		 mov	 DWORD PTR __$EHRec$[ebp+12], 0

; 441  :         {
; 442  :             *w = PMC_Subtruct_L_X(u, v);

  00050	ff 75 10	 push	 DWORD PTR _v$[ebp]
  00053	ff 75 0c	 push	 DWORD PTR _u$[ebp+4]
  00056	ff 75 08	 push	 DWORD PTR _u$[ebp]
  00059	e8 00 00 00 00	 call	 ?PMC_Subtruct_L_X@Internal@Core@Math@Palmtree@@YG_K_KPAU__tag_PMC_HANDLE_UINT@1234@@Z ; Palmtree::Math::Core::Internal::PMC_Subtruct_L_X
  0005e	89 06		 mov	 DWORD PTR [esi], eax
  00060	89 56 04	 mov	 DWORD PTR [esi+4], edx

; 443  :             return (PMC_STATUS_OK);

  00063	33 c0		 xor	 eax, eax

; 448  :         }
; 449  :     }

  00065	8b 4d f4	 mov	 ecx, DWORD PTR __$EHRec$[ebp+4]
  00068	64 89 0d 00 00
	00 00		 mov	 DWORD PTR fs:0, ecx
  0006f	59		 pop	 ecx
  00070	5f		 pop	 edi
  00071	5e		 pop	 esi
  00072	5b		 pop	 ebx
  00073	8b e5		 mov	 esp, ebp
  00075	5d		 pop	 ebp
  00076	c2 10 00	 ret	 16			; 00000010H
__catch$_PMCCS_Subtruct_L_X@16$0:
; File z:\sources\lunor\repos\rougemeilland\palmtree.math.core.uint\palmtree.math.core.uint\pmc_exception.h

; 75   :             return (_code);

  00079	8b 45 ec	 mov	 eax, DWORD PTR _ex$2[ebp]
  0007c	8b 40 0c	 mov	 eax, DWORD PTR [eax+12]
  0007f	89 45 14	 mov	 DWORD PTR $T3[ebp], eax
; File z:\sources\lunor\repos\rougemeilland\palmtree.math.core.uint\palmtree.math.core.uint\pmc_interface_csharp.cpp

; 447  :             return (ex.GetStatusCode());

  00082	b8 00 00 00 00	 mov	 eax, $LN8@PMCCS_Subt
  00087	c3		 ret	 0
$LN8@PMCCS_Subt:
; File z:\sources\lunor\repos\rougemeilland\palmtree.math.core.uint\palmtree.math.core.uint\pmc_exception.h
  00088	c7 45 fc ff ff
	ff ff		 mov	 DWORD PTR __$EHRec$[ebp+12], -1
; File z:\sources\lunor\repos\rougemeilland\palmtree.math.core.uint\palmtree.math.core.uint\pmc_interface_csharp.cpp

; 447  :             return (ex.GetStatusCode());

  0008f	8b 45 14	 mov	 eax, DWORD PTR $T3[ebp]

; 448  :         }
; 449  :     }

  00092	8b 4d f4	 mov	 ecx, DWORD PTR __$EHRec$[ebp+4]
  00095	64 89 0d 00 00
	00 00		 mov	 DWORD PTR fs:0, ecx
  0009c	59		 pop	 ecx
  0009d	5f		 pop	 edi
  0009e	5e		 pop	 esi
  0009f	5b		 pop	 ebx
  000a0	8b e5		 mov	 esp, ebp
  000a2	5d		 pop	 ebp
  000a3	c2 10 00	 ret	 16			; 00000010H
_TEXT	ENDS
;	COMDAT text$x
text$x	SEGMENT
__ehhandler$_PMCCS_Subtruct_L_X@16:
  00000	8b 54 24 08	 mov	 edx, DWORD PTR [esp+8]
  00004	8d 42 0c	 lea	 eax, DWORD PTR [edx+12]
  00007	8b 4a e8	 mov	 ecx, DWORD PTR [edx-24]
  0000a	33 c8		 xor	 ecx, eax
  0000c	e8 00 00 00 00	 call	 @__security_check_cookie@4
  00011	b8 00 00 00 00	 mov	 eax, OFFSET __ehfuncinfo$_PMCCS_Subtruct_L_X@16
  00016	e9 00 00 00 00	 jmp	 ___CxxFrameHandler3
text$x	ENDS
_PMCCS_Subtruct_L_X@16 ENDP
; Function compile flags: /Ogtp
; File z:\sources\lunor\repos\rougemeilland\palmtree.math.core.uint\palmtree.math.core.uint\pmc_interface_csharp.cpp
; File z:\sources\lunor\repos\rougemeilland\palmtree.math.core.uint\palmtree.math.core.uint\pmc_exception.h
; File z:\sources\lunor\repos\rougemeilland\palmtree.math.core.uint\palmtree.math.core.uint\pmc_interface_csharp.cpp
;	COMDAT _PMCCS_Subtruct_I_X@12
_TEXT	SEGMENT
_ex$2 = -20						; size = 4
__$EHRec$ = -16						; size = 16
_u$ = 8							; size = 4
_v$ = 12						; size = 4
$T3 = 16						; size = 4
_w$ = 16						; size = 4
_PMCCS_Subtruct_I_X@12 PROC				; COMDAT

; 422  :     {

  00000	55		 push	 ebp
  00001	8b ec		 mov	 ebp, esp
  00003	6a ff		 push	 -1
  00005	68 00 00 00 00	 push	 __ehhandler$_PMCCS_Subtruct_I_X@12
  0000a	64 a1 00 00 00
	00		 mov	 eax, DWORD PTR fs:0
  00010	50		 push	 eax
  00011	83 ec 08	 sub	 esp, 8
  00014	53		 push	 ebx
  00015	56		 push	 esi
  00016	57		 push	 edi
  00017	a1 00 00 00 00	 mov	 eax, DWORD PTR ___security_cookie
  0001c	33 c5		 xor	 eax, ebp
  0001e	50		 push	 eax
  0001f	8d 45 f4	 lea	 eax, DWORD PTR __$EHRec$[ebp+4]
  00022	64 a3 00 00 00
	00		 mov	 DWORD PTR fs:0, eax
  00028	89 65 f0	 mov	 DWORD PTR __$EHRec$[ebp], esp

; 423  :         if (w == nullptr)

  0002b	8b 75 10	 mov	 esi, DWORD PTR _w$[ebp]
  0002e	85 f6		 test	 esi, esi
  00030	75 17		 jne	 SHORT $LN2@PMCCS_Subt

; 424  :             return (PMC_STATUS_ARGUMENT_NULL_ERROR);

  00032	8d 46 fe	 lea	 eax, DWORD PTR [esi-2]

; 433  :         }
; 434  :     }

  00035	8b 4d f4	 mov	 ecx, DWORD PTR __$EHRec$[ebp+4]
  00038	64 89 0d 00 00
	00 00		 mov	 DWORD PTR fs:0, ecx
  0003f	59		 pop	 ecx
  00040	5f		 pop	 edi
  00041	5e		 pop	 esi
  00042	5b		 pop	 ebx
  00043	8b e5		 mov	 esp, ebp
  00045	5d		 pop	 ebp
  00046	c2 0c 00	 ret	 12			; 0000000cH
$LN2@PMCCS_Subt:

; 425  :         try

  00049	c7 45 fc 00 00
	00 00		 mov	 DWORD PTR __$EHRec$[ebp+12], 0

; 426  :         {
; 427  :             *w = PMC_Subtruct_I_X(u, v);

  00050	ff 75 0c	 push	 DWORD PTR _v$[ebp]
  00053	ff 75 08	 push	 DWORD PTR _u$[ebp]
  00056	e8 00 00 00 00	 call	 ?PMC_Subtruct_I_X@Internal@Core@Math@Palmtree@@YGIIPAU__tag_PMC_HANDLE_UINT@1234@@Z ; Palmtree::Math::Core::Internal::PMC_Subtruct_I_X
  0005b	89 06		 mov	 DWORD PTR [esi], eax

; 428  :             return (PMC_STATUS_OK);

  0005d	33 c0		 xor	 eax, eax

; 433  :         }
; 434  :     }

  0005f	8b 4d f4	 mov	 ecx, DWORD PTR __$EHRec$[ebp+4]
  00062	64 89 0d 00 00
	00 00		 mov	 DWORD PTR fs:0, ecx
  00069	59		 pop	 ecx
  0006a	5f		 pop	 edi
  0006b	5e		 pop	 esi
  0006c	5b		 pop	 ebx
  0006d	8b e5		 mov	 esp, ebp
  0006f	5d		 pop	 ebp
  00070	c2 0c 00	 ret	 12			; 0000000cH
__catch$_PMCCS_Subtruct_I_X@12$0:
; File z:\sources\lunor\repos\rougemeilland\palmtree.math.core.uint\palmtree.math.core.uint\pmc_exception.h

; 75   :             return (_code);

  00073	8b 45 ec	 mov	 eax, DWORD PTR _ex$2[ebp]
  00076	8b 40 0c	 mov	 eax, DWORD PTR [eax+12]
  00079	89 45 10	 mov	 DWORD PTR $T3[ebp], eax
; File z:\sources\lunor\repos\rougemeilland\palmtree.math.core.uint\palmtree.math.core.uint\pmc_interface_csharp.cpp

; 432  :             return (ex.GetStatusCode());

  0007c	b8 00 00 00 00	 mov	 eax, $LN8@PMCCS_Subt
  00081	c3		 ret	 0
$LN8@PMCCS_Subt:
; File z:\sources\lunor\repos\rougemeilland\palmtree.math.core.uint\palmtree.math.core.uint\pmc_exception.h
  00082	c7 45 fc ff ff
	ff ff		 mov	 DWORD PTR __$EHRec$[ebp+12], -1
; File z:\sources\lunor\repos\rougemeilland\palmtree.math.core.uint\palmtree.math.core.uint\pmc_interface_csharp.cpp

; 432  :             return (ex.GetStatusCode());

  00089	8b 45 10	 mov	 eax, DWORD PTR $T3[ebp]

; 433  :         }
; 434  :     }

  0008c	8b 4d f4	 mov	 ecx, DWORD PTR __$EHRec$[ebp+4]
  0008f	64 89 0d 00 00
	00 00		 mov	 DWORD PTR fs:0, ecx
  00096	59		 pop	 ecx
  00097	5f		 pop	 edi
  00098	5e		 pop	 esi
  00099	5b		 pop	 ebx
  0009a	8b e5		 mov	 esp, ebp
  0009c	5d		 pop	 ebp
  0009d	c2 0c 00	 ret	 12			; 0000000cH
_TEXT	ENDS
;	COMDAT text$x
text$x	SEGMENT
__ehhandler$_PMCCS_Subtruct_I_X@12:
  00000	8b 54 24 08	 mov	 edx, DWORD PTR [esp+8]
  00004	8d 42 0c	 lea	 eax, DWORD PTR [edx+12]
  00007	8b 4a e8	 mov	 ecx, DWORD PTR [edx-24]
  0000a	33 c8		 xor	 ecx, eax
  0000c	e8 00 00 00 00	 call	 @__security_check_cookie@4
  00011	b8 00 00 00 00	 mov	 eax, OFFSET __ehfuncinfo$_PMCCS_Subtruct_I_X@12
  00016	e9 00 00 00 00	 jmp	 ___CxxFrameHandler3
text$x	ENDS
_PMCCS_Subtruct_I_X@12 ENDP
; Function compile flags: /Ogtp
; File z:\sources\lunor\repos\rougemeilland\palmtree.math.core.uint\palmtree.math.core.uint\pmc_interface_csharp.cpp
; File z:\sources\lunor\repos\rougemeilland\palmtree.math.core.uint\palmtree.math.core.uint\pmc_exception.h
; File z:\sources\lunor\repos\rougemeilland\palmtree.math.core.uint\palmtree.math.core.uint\pmc_interface_csharp.cpp
;	COMDAT _PMCCS_Add_X_X@12
_TEXT	SEGMENT
_ex$2 = -20						; size = 4
__$EHRec$ = -16						; size = 16
_u$ = 8							; size = 4
_v$ = 12						; size = 4
$T3 = 16						; size = 4
_w$ = 16						; size = 4
_PMCCS_Add_X_X@12 PROC					; COMDAT

; 407  :     {

  00000	55		 push	 ebp
  00001	8b ec		 mov	 ebp, esp
  00003	6a ff		 push	 -1
  00005	68 00 00 00 00	 push	 __ehhandler$_PMCCS_Add_X_X@12
  0000a	64 a1 00 00 00
	00		 mov	 eax, DWORD PTR fs:0
  00010	50		 push	 eax
  00011	83 ec 08	 sub	 esp, 8
  00014	53		 push	 ebx
  00015	56		 push	 esi
  00016	57		 push	 edi
  00017	a1 00 00 00 00	 mov	 eax, DWORD PTR ___security_cookie
  0001c	33 c5		 xor	 eax, ebp
  0001e	50		 push	 eax
  0001f	8d 45 f4	 lea	 eax, DWORD PTR __$EHRec$[ebp+4]
  00022	64 a3 00 00 00
	00		 mov	 DWORD PTR fs:0, eax
  00028	89 65 f0	 mov	 DWORD PTR __$EHRec$[ebp], esp

; 408  :         if (w == nullptr)

  0002b	8b 75 10	 mov	 esi, DWORD PTR _w$[ebp]
  0002e	85 f6		 test	 esi, esi
  00030	75 17		 jne	 SHORT $LN2@PMCCS_Add_

; 409  :             return (PMC_STATUS_ARGUMENT_NULL_ERROR);

  00032	8d 46 fe	 lea	 eax, DWORD PTR [esi-2]

; 418  :         }
; 419  :     }

  00035	8b 4d f4	 mov	 ecx, DWORD PTR __$EHRec$[ebp+4]
  00038	64 89 0d 00 00
	00 00		 mov	 DWORD PTR fs:0, ecx
  0003f	59		 pop	 ecx
  00040	5f		 pop	 edi
  00041	5e		 pop	 esi
  00042	5b		 pop	 ebx
  00043	8b e5		 mov	 esp, ebp
  00045	5d		 pop	 ebp
  00046	c2 0c 00	 ret	 12			; 0000000cH
$LN2@PMCCS_Add_:

; 410  :         try

  00049	c7 45 fc 00 00
	00 00		 mov	 DWORD PTR __$EHRec$[ebp+12], 0

; 411  :         {
; 412  :             *w = PMC_Add_X_X(u, v);

  00050	ff 75 0c	 push	 DWORD PTR _v$[ebp]
  00053	ff 75 08	 push	 DWORD PTR _u$[ebp]
  00056	e8 00 00 00 00	 call	 ?PMC_Add_X_X@Internal@Core@Math@Palmtree@@YGPAU__tag_PMC_HANDLE_UINT@1234@PAU51234@0@Z ; Palmtree::Math::Core::Internal::PMC_Add_X_X
  0005b	89 06		 mov	 DWORD PTR [esi], eax

; 413  :             return (PMC_STATUS_OK);

  0005d	33 c0		 xor	 eax, eax

; 418  :         }
; 419  :     }

  0005f	8b 4d f4	 mov	 ecx, DWORD PTR __$EHRec$[ebp+4]
  00062	64 89 0d 00 00
	00 00		 mov	 DWORD PTR fs:0, ecx
  00069	59		 pop	 ecx
  0006a	5f		 pop	 edi
  0006b	5e		 pop	 esi
  0006c	5b		 pop	 ebx
  0006d	8b e5		 mov	 esp, ebp
  0006f	5d		 pop	 ebp
  00070	c2 0c 00	 ret	 12			; 0000000cH
__catch$_PMCCS_Add_X_X@12$0:
; File z:\sources\lunor\repos\rougemeilland\palmtree.math.core.uint\palmtree.math.core.uint\pmc_exception.h

; 75   :             return (_code);

  00073	8b 45 ec	 mov	 eax, DWORD PTR _ex$2[ebp]
  00076	8b 40 0c	 mov	 eax, DWORD PTR [eax+12]
  00079	89 45 10	 mov	 DWORD PTR $T3[ebp], eax
; File z:\sources\lunor\repos\rougemeilland\palmtree.math.core.uint\palmtree.math.core.uint\pmc_interface_csharp.cpp

; 417  :             return (ex.GetStatusCode());

  0007c	b8 00 00 00 00	 mov	 eax, $LN8@PMCCS_Add_
  00081	c3		 ret	 0
$LN8@PMCCS_Add_:
; File z:\sources\lunor\repos\rougemeilland\palmtree.math.core.uint\palmtree.math.core.uint\pmc_exception.h
  00082	c7 45 fc ff ff
	ff ff		 mov	 DWORD PTR __$EHRec$[ebp+12], -1
; File z:\sources\lunor\repos\rougemeilland\palmtree.math.core.uint\palmtree.math.core.uint\pmc_interface_csharp.cpp

; 417  :             return (ex.GetStatusCode());

  00089	8b 45 10	 mov	 eax, DWORD PTR $T3[ebp]

; 418  :         }
; 419  :     }

  0008c	8b 4d f4	 mov	 ecx, DWORD PTR __$EHRec$[ebp+4]
  0008f	64 89 0d 00 00
	00 00		 mov	 DWORD PTR fs:0, ecx
  00096	59		 pop	 ecx
  00097	5f		 pop	 edi
  00098	5e		 pop	 esi
  00099	5b		 pop	 ebx
  0009a	8b e5		 mov	 esp, ebp
  0009c	5d		 pop	 ebp
  0009d	c2 0c 00	 ret	 12			; 0000000cH
_TEXT	ENDS
;	COMDAT text$x
text$x	SEGMENT
__ehhandler$_PMCCS_Add_X_X@12:
  00000	8b 54 24 08	 mov	 edx, DWORD PTR [esp+8]
  00004	8d 42 0c	 lea	 eax, DWORD PTR [edx+12]
  00007	8b 4a e8	 mov	 ecx, DWORD PTR [edx-24]
  0000a	33 c8		 xor	 ecx, eax
  0000c	e8 00 00 00 00	 call	 @__security_check_cookie@4
  00011	b8 00 00 00 00	 mov	 eax, OFFSET __ehfuncinfo$_PMCCS_Add_X_X@12
  00016	e9 00 00 00 00	 jmp	 ___CxxFrameHandler3
text$x	ENDS
_PMCCS_Add_X_X@12 ENDP
; Function compile flags: /Ogtp
; File z:\sources\lunor\repos\rougemeilland\palmtree.math.core.uint\palmtree.math.core.uint\pmc_interface_csharp.cpp
; File z:\sources\lunor\repos\rougemeilland\palmtree.math.core.uint\palmtree.math.core.uint\pmc_exception.h
; File z:\sources\lunor\repos\rougemeilland\palmtree.math.core.uint\palmtree.math.core.uint\pmc_interface_csharp.cpp
;	COMDAT _PMCCS_Add_X_L@16
_TEXT	SEGMENT
_ex$2 = -20						; size = 4
__$EHRec$ = -16						; size = 16
_u$ = 8							; size = 4
_v$ = 12						; size = 8
$T3 = 20						; size = 4
_w$ = 20						; size = 4
_PMCCS_Add_X_L@16 PROC					; COMDAT

; 392  :     {

  00000	55		 push	 ebp
  00001	8b ec		 mov	 ebp, esp
  00003	6a ff		 push	 -1
  00005	68 00 00 00 00	 push	 __ehhandler$_PMCCS_Add_X_L@16
  0000a	64 a1 00 00 00
	00		 mov	 eax, DWORD PTR fs:0
  00010	50		 push	 eax
  00011	83 ec 08	 sub	 esp, 8
  00014	53		 push	 ebx
  00015	56		 push	 esi
  00016	57		 push	 edi
  00017	a1 00 00 00 00	 mov	 eax, DWORD PTR ___security_cookie
  0001c	33 c5		 xor	 eax, ebp
  0001e	50		 push	 eax
  0001f	8d 45 f4	 lea	 eax, DWORD PTR __$EHRec$[ebp+4]
  00022	64 a3 00 00 00
	00		 mov	 DWORD PTR fs:0, eax
  00028	89 65 f0	 mov	 DWORD PTR __$EHRec$[ebp], esp

; 393  :         if (w == nullptr)

  0002b	8b 75 14	 mov	 esi, DWORD PTR _w$[ebp]
  0002e	85 f6		 test	 esi, esi
  00030	75 17		 jne	 SHORT $LN2@PMCCS_Add_

; 394  :             return (PMC_STATUS_ARGUMENT_NULL_ERROR);

  00032	8d 46 fe	 lea	 eax, DWORD PTR [esi-2]

; 403  :         }
; 404  :     }

  00035	8b 4d f4	 mov	 ecx, DWORD PTR __$EHRec$[ebp+4]
  00038	64 89 0d 00 00
	00 00		 mov	 DWORD PTR fs:0, ecx
  0003f	59		 pop	 ecx
  00040	5f		 pop	 edi
  00041	5e		 pop	 esi
  00042	5b		 pop	 ebx
  00043	8b e5		 mov	 esp, ebp
  00045	5d		 pop	 ebp
  00046	c2 10 00	 ret	 16			; 00000010H
$LN2@PMCCS_Add_:

; 395  :         try

  00049	c7 45 fc 00 00
	00 00		 mov	 DWORD PTR __$EHRec$[ebp+12], 0

; 396  :         {
; 397  :             *w = PMC_Add_X_L(u, v);

  00050	ff 75 10	 push	 DWORD PTR _v$[ebp+4]
  00053	ff 75 0c	 push	 DWORD PTR _v$[ebp]
  00056	ff 75 08	 push	 DWORD PTR _u$[ebp]
  00059	e8 00 00 00 00	 call	 ?PMC_Add_X_L@Internal@Core@Math@Palmtree@@YGPAU__tag_PMC_HANDLE_UINT@1234@PAU51234@_K@Z ; Palmtree::Math::Core::Internal::PMC_Add_X_L
  0005e	89 06		 mov	 DWORD PTR [esi], eax

; 398  :             return (PMC_STATUS_OK);

  00060	33 c0		 xor	 eax, eax

; 403  :         }
; 404  :     }

  00062	8b 4d f4	 mov	 ecx, DWORD PTR __$EHRec$[ebp+4]
  00065	64 89 0d 00 00
	00 00		 mov	 DWORD PTR fs:0, ecx
  0006c	59		 pop	 ecx
  0006d	5f		 pop	 edi
  0006e	5e		 pop	 esi
  0006f	5b		 pop	 ebx
  00070	8b e5		 mov	 esp, ebp
  00072	5d		 pop	 ebp
  00073	c2 10 00	 ret	 16			; 00000010H
__catch$_PMCCS_Add_X_L@16$0:
; File z:\sources\lunor\repos\rougemeilland\palmtree.math.core.uint\palmtree.math.core.uint\pmc_exception.h

; 75   :             return (_code);

  00076	8b 45 ec	 mov	 eax, DWORD PTR _ex$2[ebp]
  00079	8b 40 0c	 mov	 eax, DWORD PTR [eax+12]
  0007c	89 45 14	 mov	 DWORD PTR $T3[ebp], eax
; File z:\sources\lunor\repos\rougemeilland\palmtree.math.core.uint\palmtree.math.core.uint\pmc_interface_csharp.cpp

; 402  :             return (ex.GetStatusCode());

  0007f	b8 00 00 00 00	 mov	 eax, $LN8@PMCCS_Add_
  00084	c3		 ret	 0
$LN8@PMCCS_Add_:
; File z:\sources\lunor\repos\rougemeilland\palmtree.math.core.uint\palmtree.math.core.uint\pmc_exception.h
  00085	c7 45 fc ff ff
	ff ff		 mov	 DWORD PTR __$EHRec$[ebp+12], -1
; File z:\sources\lunor\repos\rougemeilland\palmtree.math.core.uint\palmtree.math.core.uint\pmc_interface_csharp.cpp

; 402  :             return (ex.GetStatusCode());

  0008c	8b 45 14	 mov	 eax, DWORD PTR $T3[ebp]

; 403  :         }
; 404  :     }

  0008f	8b 4d f4	 mov	 ecx, DWORD PTR __$EHRec$[ebp+4]
  00092	64 89 0d 00 00
	00 00		 mov	 DWORD PTR fs:0, ecx
  00099	59		 pop	 ecx
  0009a	5f		 pop	 edi
  0009b	5e		 pop	 esi
  0009c	5b		 pop	 ebx
  0009d	8b e5		 mov	 esp, ebp
  0009f	5d		 pop	 ebp
  000a0	c2 10 00	 ret	 16			; 00000010H
_TEXT	ENDS
;	COMDAT text$x
text$x	SEGMENT
__ehhandler$_PMCCS_Add_X_L@16:
  00000	8b 54 24 08	 mov	 edx, DWORD PTR [esp+8]
  00004	8d 42 0c	 lea	 eax, DWORD PTR [edx+12]
  00007	8b 4a e8	 mov	 ecx, DWORD PTR [edx-24]
  0000a	33 c8		 xor	 ecx, eax
  0000c	e8 00 00 00 00	 call	 @__security_check_cookie@4
  00011	b8 00 00 00 00	 mov	 eax, OFFSET __ehfuncinfo$_PMCCS_Add_X_L@16
  00016	e9 00 00 00 00	 jmp	 ___CxxFrameHandler3
text$x	ENDS
_PMCCS_Add_X_L@16 ENDP
; Function compile flags: /Ogtp
; File z:\sources\lunor\repos\rougemeilland\palmtree.math.core.uint\palmtree.math.core.uint\pmc_interface_csharp.cpp
; File z:\sources\lunor\repos\rougemeilland\palmtree.math.core.uint\palmtree.math.core.uint\pmc_exception.h
; File z:\sources\lunor\repos\rougemeilland\palmtree.math.core.uint\palmtree.math.core.uint\pmc_interface_csharp.cpp
;	COMDAT _PMCCS_Add_X_I@12
_TEXT	SEGMENT
_ex$2 = -20						; size = 4
__$EHRec$ = -16						; size = 16
_u$ = 8							; size = 4
_v$ = 12						; size = 4
$T3 = 16						; size = 4
_w$ = 16						; size = 4
_PMCCS_Add_X_I@12 PROC					; COMDAT

; 377  :     {

  00000	55		 push	 ebp
  00001	8b ec		 mov	 ebp, esp
  00003	6a ff		 push	 -1
  00005	68 00 00 00 00	 push	 __ehhandler$_PMCCS_Add_X_I@12
  0000a	64 a1 00 00 00
	00		 mov	 eax, DWORD PTR fs:0
  00010	50		 push	 eax
  00011	83 ec 08	 sub	 esp, 8
  00014	53		 push	 ebx
  00015	56		 push	 esi
  00016	57		 push	 edi
  00017	a1 00 00 00 00	 mov	 eax, DWORD PTR ___security_cookie
  0001c	33 c5		 xor	 eax, ebp
  0001e	50		 push	 eax
  0001f	8d 45 f4	 lea	 eax, DWORD PTR __$EHRec$[ebp+4]
  00022	64 a3 00 00 00
	00		 mov	 DWORD PTR fs:0, eax
  00028	89 65 f0	 mov	 DWORD PTR __$EHRec$[ebp], esp

; 378  :         if (w == nullptr)

  0002b	8b 75 10	 mov	 esi, DWORD PTR _w$[ebp]
  0002e	85 f6		 test	 esi, esi
  00030	75 17		 jne	 SHORT $LN2@PMCCS_Add_

; 379  :             return (PMC_STATUS_ARGUMENT_NULL_ERROR);

  00032	8d 46 fe	 lea	 eax, DWORD PTR [esi-2]

; 388  :         }
; 389  :     }

  00035	8b 4d f4	 mov	 ecx, DWORD PTR __$EHRec$[ebp+4]
  00038	64 89 0d 00 00
	00 00		 mov	 DWORD PTR fs:0, ecx
  0003f	59		 pop	 ecx
  00040	5f		 pop	 edi
  00041	5e		 pop	 esi
  00042	5b		 pop	 ebx
  00043	8b e5		 mov	 esp, ebp
  00045	5d		 pop	 ebp
  00046	c2 0c 00	 ret	 12			; 0000000cH
$LN2@PMCCS_Add_:

; 380  :         try

  00049	c7 45 fc 00 00
	00 00		 mov	 DWORD PTR __$EHRec$[ebp+12], 0

; 381  :         {
; 382  :             *w = PMC_Add_X_I(u, v);

  00050	ff 75 0c	 push	 DWORD PTR _v$[ebp]
  00053	ff 75 08	 push	 DWORD PTR _u$[ebp]
  00056	e8 00 00 00 00	 call	 ?PMC_Add_X_I@Internal@Core@Math@Palmtree@@YGPAU__tag_PMC_HANDLE_UINT@1234@PAU51234@I@Z ; Palmtree::Math::Core::Internal::PMC_Add_X_I
  0005b	89 06		 mov	 DWORD PTR [esi], eax

; 383  :             return (PMC_STATUS_OK);

  0005d	33 c0		 xor	 eax, eax

; 388  :         }
; 389  :     }

  0005f	8b 4d f4	 mov	 ecx, DWORD PTR __$EHRec$[ebp+4]
  00062	64 89 0d 00 00
	00 00		 mov	 DWORD PTR fs:0, ecx
  00069	59		 pop	 ecx
  0006a	5f		 pop	 edi
  0006b	5e		 pop	 esi
  0006c	5b		 pop	 ebx
  0006d	8b e5		 mov	 esp, ebp
  0006f	5d		 pop	 ebp
  00070	c2 0c 00	 ret	 12			; 0000000cH
__catch$_PMCCS_Add_X_I@12$0:
; File z:\sources\lunor\repos\rougemeilland\palmtree.math.core.uint\palmtree.math.core.uint\pmc_exception.h

; 75   :             return (_code);

  00073	8b 45 ec	 mov	 eax, DWORD PTR _ex$2[ebp]
  00076	8b 40 0c	 mov	 eax, DWORD PTR [eax+12]
  00079	89 45 10	 mov	 DWORD PTR $T3[ebp], eax
; File z:\sources\lunor\repos\rougemeilland\palmtree.math.core.uint\palmtree.math.core.uint\pmc_interface_csharp.cpp

; 387  :             return (ex.GetStatusCode());

  0007c	b8 00 00 00 00	 mov	 eax, $LN8@PMCCS_Add_
  00081	c3		 ret	 0
$LN8@PMCCS_Add_:
; File z:\sources\lunor\repos\rougemeilland\palmtree.math.core.uint\palmtree.math.core.uint\pmc_exception.h
  00082	c7 45 fc ff ff
	ff ff		 mov	 DWORD PTR __$EHRec$[ebp+12], -1
; File z:\sources\lunor\repos\rougemeilland\palmtree.math.core.uint\palmtree.math.core.uint\pmc_interface_csharp.cpp

; 387  :             return (ex.GetStatusCode());

  00089	8b 45 10	 mov	 eax, DWORD PTR $T3[ebp]

; 388  :         }
; 389  :     }

  0008c	8b 4d f4	 mov	 ecx, DWORD PTR __$EHRec$[ebp+4]
  0008f	64 89 0d 00 00
	00 00		 mov	 DWORD PTR fs:0, ecx
  00096	59		 pop	 ecx
  00097	5f		 pop	 edi
  00098	5e		 pop	 esi
  00099	5b		 pop	 ebx
  0009a	8b e5		 mov	 esp, ebp
  0009c	5d		 pop	 ebp
  0009d	c2 0c 00	 ret	 12			; 0000000cH
_TEXT	ENDS
;	COMDAT text$x
text$x	SEGMENT
__ehhandler$_PMCCS_Add_X_I@12:
  00000	8b 54 24 08	 mov	 edx, DWORD PTR [esp+8]
  00004	8d 42 0c	 lea	 eax, DWORD PTR [edx+12]
  00007	8b 4a e8	 mov	 ecx, DWORD PTR [edx-24]
  0000a	33 c8		 xor	 ecx, eax
  0000c	e8 00 00 00 00	 call	 @__security_check_cookie@4
  00011	b8 00 00 00 00	 mov	 eax, OFFSET __ehfuncinfo$_PMCCS_Add_X_I@12
  00016	e9 00 00 00 00	 jmp	 ___CxxFrameHandler3
text$x	ENDS
_PMCCS_Add_X_I@12 ENDP
; Function compile flags: /Ogtp
; File z:\sources\lunor\repos\rougemeilland\palmtree.math.core.uint\palmtree.math.core.uint\pmc_interface_csharp.cpp
; File z:\sources\lunor\repos\rougemeilland\palmtree.math.core.uint\palmtree.math.core.uint\pmc_exception.h
; File z:\sources\lunor\repos\rougemeilland\palmtree.math.core.uint\palmtree.math.core.uint\pmc_interface_csharp.cpp
;	COMDAT _PMCCS_Add_L_X@16
_TEXT	SEGMENT
_ex$2 = -20						; size = 4
__$EHRec$ = -16						; size = 16
_u$ = 8							; size = 8
_v$ = 16						; size = 4
$T3 = 20						; size = 4
_w$ = 20						; size = 4
_PMCCS_Add_L_X@16 PROC					; COMDAT

; 362  :     {

  00000	55		 push	 ebp
  00001	8b ec		 mov	 ebp, esp
  00003	6a ff		 push	 -1
  00005	68 00 00 00 00	 push	 __ehhandler$_PMCCS_Add_L_X@16
  0000a	64 a1 00 00 00
	00		 mov	 eax, DWORD PTR fs:0
  00010	50		 push	 eax
  00011	83 ec 08	 sub	 esp, 8
  00014	53		 push	 ebx
  00015	56		 push	 esi
  00016	57		 push	 edi
  00017	a1 00 00 00 00	 mov	 eax, DWORD PTR ___security_cookie
  0001c	33 c5		 xor	 eax, ebp
  0001e	50		 push	 eax
  0001f	8d 45 f4	 lea	 eax, DWORD PTR __$EHRec$[ebp+4]
  00022	64 a3 00 00 00
	00		 mov	 DWORD PTR fs:0, eax
  00028	89 65 f0	 mov	 DWORD PTR __$EHRec$[ebp], esp

; 363  :         if (w == nullptr)

  0002b	8b 75 14	 mov	 esi, DWORD PTR _w$[ebp]
  0002e	85 f6		 test	 esi, esi
  00030	75 17		 jne	 SHORT $LN2@PMCCS_Add_

; 364  :             return (PMC_STATUS_ARGUMENT_NULL_ERROR);

  00032	8d 46 fe	 lea	 eax, DWORD PTR [esi-2]

; 373  :         }
; 374  :     }

  00035	8b 4d f4	 mov	 ecx, DWORD PTR __$EHRec$[ebp+4]
  00038	64 89 0d 00 00
	00 00		 mov	 DWORD PTR fs:0, ecx
  0003f	59		 pop	 ecx
  00040	5f		 pop	 edi
  00041	5e		 pop	 esi
  00042	5b		 pop	 ebx
  00043	8b e5		 mov	 esp, ebp
  00045	5d		 pop	 ebp
  00046	c2 10 00	 ret	 16			; 00000010H
$LN2@PMCCS_Add_:

; 365  :         try

  00049	c7 45 fc 00 00
	00 00		 mov	 DWORD PTR __$EHRec$[ebp+12], 0

; 366  :         {
; 367  :             *w = PMC_Add_L_X(u, v);

  00050	ff 75 10	 push	 DWORD PTR _v$[ebp]
  00053	ff 75 0c	 push	 DWORD PTR _u$[ebp+4]
  00056	ff 75 08	 push	 DWORD PTR _u$[ebp]
  00059	e8 00 00 00 00	 call	 ?PMC_Add_L_X@Internal@Core@Math@Palmtree@@YGPAU__tag_PMC_HANDLE_UINT@1234@_KPAU51234@@Z ; Palmtree::Math::Core::Internal::PMC_Add_L_X
  0005e	89 06		 mov	 DWORD PTR [esi], eax

; 368  :             return (PMC_STATUS_OK);

  00060	33 c0		 xor	 eax, eax

; 373  :         }
; 374  :     }

  00062	8b 4d f4	 mov	 ecx, DWORD PTR __$EHRec$[ebp+4]
  00065	64 89 0d 00 00
	00 00		 mov	 DWORD PTR fs:0, ecx
  0006c	59		 pop	 ecx
  0006d	5f		 pop	 edi
  0006e	5e		 pop	 esi
  0006f	5b		 pop	 ebx
  00070	8b e5		 mov	 esp, ebp
  00072	5d		 pop	 ebp
  00073	c2 10 00	 ret	 16			; 00000010H
__catch$_PMCCS_Add_L_X@16$0:
; File z:\sources\lunor\repos\rougemeilland\palmtree.math.core.uint\palmtree.math.core.uint\pmc_exception.h

; 75   :             return (_code);

  00076	8b 45 ec	 mov	 eax, DWORD PTR _ex$2[ebp]
  00079	8b 40 0c	 mov	 eax, DWORD PTR [eax+12]
  0007c	89 45 14	 mov	 DWORD PTR $T3[ebp], eax
; File z:\sources\lunor\repos\rougemeilland\palmtree.math.core.uint\palmtree.math.core.uint\pmc_interface_csharp.cpp

; 372  :             return (ex.GetStatusCode());

  0007f	b8 00 00 00 00	 mov	 eax, $LN8@PMCCS_Add_
  00084	c3		 ret	 0
$LN8@PMCCS_Add_:
; File z:\sources\lunor\repos\rougemeilland\palmtree.math.core.uint\palmtree.math.core.uint\pmc_exception.h
  00085	c7 45 fc ff ff
	ff ff		 mov	 DWORD PTR __$EHRec$[ebp+12], -1
; File z:\sources\lunor\repos\rougemeilland\palmtree.math.core.uint\palmtree.math.core.uint\pmc_interface_csharp.cpp

; 372  :             return (ex.GetStatusCode());

  0008c	8b 45 14	 mov	 eax, DWORD PTR $T3[ebp]

; 373  :         }
; 374  :     }

  0008f	8b 4d f4	 mov	 ecx, DWORD PTR __$EHRec$[ebp+4]
  00092	64 89 0d 00 00
	00 00		 mov	 DWORD PTR fs:0, ecx
  00099	59		 pop	 ecx
  0009a	5f		 pop	 edi
  0009b	5e		 pop	 esi
  0009c	5b		 pop	 ebx
  0009d	8b e5		 mov	 esp, ebp
  0009f	5d		 pop	 ebp
  000a0	c2 10 00	 ret	 16			; 00000010H
_TEXT	ENDS
;	COMDAT text$x
text$x	SEGMENT
__ehhandler$_PMCCS_Add_L_X@16:
  00000	8b 54 24 08	 mov	 edx, DWORD PTR [esp+8]
  00004	8d 42 0c	 lea	 eax, DWORD PTR [edx+12]
  00007	8b 4a e8	 mov	 ecx, DWORD PTR [edx-24]
  0000a	33 c8		 xor	 ecx, eax
  0000c	e8 00 00 00 00	 call	 @__security_check_cookie@4
  00011	b8 00 00 00 00	 mov	 eax, OFFSET __ehfuncinfo$_PMCCS_Add_L_X@16
  00016	e9 00 00 00 00	 jmp	 ___CxxFrameHandler3
text$x	ENDS
_PMCCS_Add_L_X@16 ENDP
; Function compile flags: /Ogtp
; File z:\sources\lunor\repos\rougemeilland\palmtree.math.core.uint\palmtree.math.core.uint\pmc_interface_csharp.cpp
; File z:\sources\lunor\repos\rougemeilland\palmtree.math.core.uint\palmtree.math.core.uint\pmc_exception.h
; File z:\sources\lunor\repos\rougemeilland\palmtree.math.core.uint\palmtree.math.core.uint\pmc_interface_csharp.cpp
;	COMDAT _PMCCS_Add_I_X@12
_TEXT	SEGMENT
_ex$2 = -20						; size = 4
__$EHRec$ = -16						; size = 16
_u$ = 8							; size = 4
_v$ = 12						; size = 4
$T3 = 16						; size = 4
_w$ = 16						; size = 4
_PMCCS_Add_I_X@12 PROC					; COMDAT

; 347  :     {

  00000	55		 push	 ebp
  00001	8b ec		 mov	 ebp, esp
  00003	6a ff		 push	 -1
  00005	68 00 00 00 00	 push	 __ehhandler$_PMCCS_Add_I_X@12
  0000a	64 a1 00 00 00
	00		 mov	 eax, DWORD PTR fs:0
  00010	50		 push	 eax
  00011	83 ec 08	 sub	 esp, 8
  00014	53		 push	 ebx
  00015	56		 push	 esi
  00016	57		 push	 edi
  00017	a1 00 00 00 00	 mov	 eax, DWORD PTR ___security_cookie
  0001c	33 c5		 xor	 eax, ebp
  0001e	50		 push	 eax
  0001f	8d 45 f4	 lea	 eax, DWORD PTR __$EHRec$[ebp+4]
  00022	64 a3 00 00 00
	00		 mov	 DWORD PTR fs:0, eax
  00028	89 65 f0	 mov	 DWORD PTR __$EHRec$[ebp], esp

; 348  :         if (w == nullptr)

  0002b	8b 75 10	 mov	 esi, DWORD PTR _w$[ebp]
  0002e	85 f6		 test	 esi, esi
  00030	75 17		 jne	 SHORT $LN2@PMCCS_Add_

; 349  :             return (PMC_STATUS_ARGUMENT_NULL_ERROR);

  00032	8d 46 fe	 lea	 eax, DWORD PTR [esi-2]

; 358  :         }
; 359  :     }

  00035	8b 4d f4	 mov	 ecx, DWORD PTR __$EHRec$[ebp+4]
  00038	64 89 0d 00 00
	00 00		 mov	 DWORD PTR fs:0, ecx
  0003f	59		 pop	 ecx
  00040	5f		 pop	 edi
  00041	5e		 pop	 esi
  00042	5b		 pop	 ebx
  00043	8b e5		 mov	 esp, ebp
  00045	5d		 pop	 ebp
  00046	c2 0c 00	 ret	 12			; 0000000cH
$LN2@PMCCS_Add_:

; 350  :         try

  00049	c7 45 fc 00 00
	00 00		 mov	 DWORD PTR __$EHRec$[ebp+12], 0

; 351  :         {
; 352  :             *w = PMC_Add_I_X(u, v);

  00050	ff 75 0c	 push	 DWORD PTR _v$[ebp]
  00053	ff 75 08	 push	 DWORD PTR _u$[ebp]
  00056	e8 00 00 00 00	 call	 ?PMC_Add_I_X@Internal@Core@Math@Palmtree@@YGPAU__tag_PMC_HANDLE_UINT@1234@IPAU51234@@Z ; Palmtree::Math::Core::Internal::PMC_Add_I_X
  0005b	89 06		 mov	 DWORD PTR [esi], eax

; 353  :             return (PMC_STATUS_OK);

  0005d	33 c0		 xor	 eax, eax

; 358  :         }
; 359  :     }

  0005f	8b 4d f4	 mov	 ecx, DWORD PTR __$EHRec$[ebp+4]
  00062	64 89 0d 00 00
	00 00		 mov	 DWORD PTR fs:0, ecx
  00069	59		 pop	 ecx
  0006a	5f		 pop	 edi
  0006b	5e		 pop	 esi
  0006c	5b		 pop	 ebx
  0006d	8b e5		 mov	 esp, ebp
  0006f	5d		 pop	 ebp
  00070	c2 0c 00	 ret	 12			; 0000000cH
__catch$_PMCCS_Add_I_X@12$0:
; File z:\sources\lunor\repos\rougemeilland\palmtree.math.core.uint\palmtree.math.core.uint\pmc_exception.h

; 75   :             return (_code);

  00073	8b 45 ec	 mov	 eax, DWORD PTR _ex$2[ebp]
  00076	8b 40 0c	 mov	 eax, DWORD PTR [eax+12]
  00079	89 45 10	 mov	 DWORD PTR $T3[ebp], eax
; File z:\sources\lunor\repos\rougemeilland\palmtree.math.core.uint\palmtree.math.core.uint\pmc_interface_csharp.cpp

; 357  :             return (ex.GetStatusCode());

  0007c	b8 00 00 00 00	 mov	 eax, $LN8@PMCCS_Add_
  00081	c3		 ret	 0
$LN8@PMCCS_Add_:
; File z:\sources\lunor\repos\rougemeilland\palmtree.math.core.uint\palmtree.math.core.uint\pmc_exception.h
  00082	c7 45 fc ff ff
	ff ff		 mov	 DWORD PTR __$EHRec$[ebp+12], -1
; File z:\sources\lunor\repos\rougemeilland\palmtree.math.core.uint\palmtree.math.core.uint\pmc_interface_csharp.cpp

; 357  :             return (ex.GetStatusCode());

  00089	8b 45 10	 mov	 eax, DWORD PTR $T3[ebp]

; 358  :         }
; 359  :     }

  0008c	8b 4d f4	 mov	 ecx, DWORD PTR __$EHRec$[ebp+4]
  0008f	64 89 0d 00 00
	00 00		 mov	 DWORD PTR fs:0, ecx
  00096	59		 pop	 ecx
  00097	5f		 pop	 edi
  00098	5e		 pop	 esi
  00099	5b		 pop	 ebx
  0009a	8b e5		 mov	 esp, ebp
  0009c	5d		 pop	 ebp
  0009d	c2 0c 00	 ret	 12			; 0000000cH
_TEXT	ENDS
;	COMDAT text$x
text$x	SEGMENT
__ehhandler$_PMCCS_Add_I_X@12:
  00000	8b 54 24 08	 mov	 edx, DWORD PTR [esp+8]
  00004	8d 42 0c	 lea	 eax, DWORD PTR [edx+12]
  00007	8b 4a e8	 mov	 ecx, DWORD PTR [edx-24]
  0000a	33 c8		 xor	 ecx, eax
  0000c	e8 00 00 00 00	 call	 @__security_check_cookie@4
  00011	b8 00 00 00 00	 mov	 eax, OFFSET __ehfuncinfo$_PMCCS_Add_I_X@12
  00016	e9 00 00 00 00	 jmp	 ___CxxFrameHandler3
text$x	ENDS
_PMCCS_Add_I_X@12 ENDP
; Function compile flags: /Ogtp
; File z:\sources\lunor\repos\rougemeilland\palmtree.math.core.uint\palmtree.math.core.uint\pmc_interface_csharp.cpp
; File z:\sources\lunor\repos\rougemeilland\palmtree.math.core.uint\palmtree.math.core.uint\pmc_exception.h
; File z:\sources\lunor\repos\rougemeilland\palmtree.math.core.uint\palmtree.math.core.uint\pmc_interface_csharp.cpp
;	COMDAT _PMCCS_TryParse@20
_TEXT	SEGMENT
_ex$2 = -20						; size = 4
__$EHRec$ = -16						; size = 16
_source$ = 8						; size = 4
_number_styles$ = 12					; size = 4
_format_option$ = 16					; size = 4
$T3 = 20						; size = 4
_o$ = 20						; size = 4
_result$ = 24						; size = 4
_PMCCS_TryParse@20 PROC					; COMDAT

; 330  :     {

  00000	55		 push	 ebp
  00001	8b ec		 mov	 ebp, esp
  00003	6a ff		 push	 -1
  00005	68 00 00 00 00	 push	 __ehhandler$_PMCCS_TryParse@20
  0000a	64 a1 00 00 00
	00		 mov	 eax, DWORD PTR fs:0
  00010	50		 push	 eax
  00011	83 ec 08	 sub	 esp, 8
  00014	53		 push	 ebx
  00015	56		 push	 esi
  00016	57		 push	 edi
  00017	a1 00 00 00 00	 mov	 eax, DWORD PTR ___security_cookie
  0001c	33 c5		 xor	 eax, ebp
  0001e	50		 push	 eax
  0001f	8d 45 f4	 lea	 eax, DWORD PTR __$EHRec$[ebp+4]
  00022	64 a3 00 00 00
	00		 mov	 DWORD PTR fs:0, eax
  00028	89 65 f0	 mov	 DWORD PTR __$EHRec$[ebp], esp

; 331  :         if (o == nullptr)

  0002b	8b 45 14	 mov	 eax, DWORD PTR _o$[ebp]
  0002e	85 c0		 test	 eax, eax
  00030	75 19		 jne	 SHORT $LN2@PMCCS_TryP

; 332  :             return (PMC_STATUS_ARGUMENT_NULL_ERROR);

  00032	b8 fe ff ff ff	 mov	 eax, -2			; fffffffeH

; 343  :         }
; 344  :     }

  00037	8b 4d f4	 mov	 ecx, DWORD PTR __$EHRec$[ebp+4]
  0003a	64 89 0d 00 00
	00 00		 mov	 DWORD PTR fs:0, ecx
  00041	59		 pop	 ecx
  00042	5f		 pop	 edi
  00043	5e		 pop	 esi
  00044	5b		 pop	 ebx
  00045	8b e5		 mov	 esp, ebp
  00047	5d		 pop	 ebp
  00048	c2 14 00	 ret	 20			; 00000014H
$LN2@PMCCS_TryP:

; 333  :         try

  0004b	c7 45 fc 00 00
	00 00		 mov	 DWORD PTR __$EHRec$[ebp+12], 0

; 334  :         {
; 335  :             PMC_STATUS_CODE err = PMC_TryParse(source, number_styles, format_option, o, result);

  00052	ff 75 18	 push	 DWORD PTR _result$[ebp]
  00055	50		 push	 eax
  00056	ff 75 10	 push	 DWORD PTR _format_option$[ebp]
  00059	ff 75 0c	 push	 DWORD PTR _number_styles$[ebp]
  0005c	ff 75 08	 push	 DWORD PTR _source$[ebp]
  0005f	e8 00 00 00 00	 call	 ?PMC_TryParse@Internal@Core@Math@Palmtree@@YGHPB_WHPBU__tag_PMC_NUMBER_FORMAT_INFO@1234@PAPAU__tag_PMC_HANDLE_UINT@1234@PAI@Z ; Palmtree::Math::Core::Internal::PMC_TryParse

; 336  :             if (err != PMC_STATUS_OK)

  00064	85 c0		 test	 eax, eax
  00066	75 2d		 jne	 SHORT $LN8@PMCCS_TryP

; 343  :         }
; 344  :     }

  00068	8b 4d f4	 mov	 ecx, DWORD PTR __$EHRec$[ebp+4]
  0006b	64 89 0d 00 00
	00 00		 mov	 DWORD PTR fs:0, ecx
  00072	59		 pop	 ecx
  00073	5f		 pop	 edi
  00074	5e		 pop	 esi
  00075	5b		 pop	 ebx
  00076	8b e5		 mov	 esp, ebp
  00078	5d		 pop	 ebp
  00079	c2 14 00	 ret	 20			; 00000014H
__catch$_PMCCS_TryParse@20$0:
; File z:\sources\lunor\repos\rougemeilland\palmtree.math.core.uint\palmtree.math.core.uint\pmc_exception.h

; 75   :             return (_code);

  0007c	8b 45 ec	 mov	 eax, DWORD PTR _ex$2[ebp]
  0007f	8b 40 0c	 mov	 eax, DWORD PTR [eax+12]
  00082	89 45 14	 mov	 DWORD PTR $T3[ebp], eax
; File z:\sources\lunor\repos\rougemeilland\palmtree.math.core.uint\palmtree.math.core.uint\pmc_interface_csharp.cpp

; 342  :             return (ex.GetStatusCode());

  00085	b8 00 00 00 00	 mov	 eax, $LN9@PMCCS_TryP
  0008a	c3		 ret	 0
$LN9@PMCCS_TryP:
; File z:\sources\lunor\repos\rougemeilland\palmtree.math.core.uint\palmtree.math.core.uint\pmc_exception.h
  0008b	c7 45 fc ff ff
	ff ff		 mov	 DWORD PTR __$EHRec$[ebp+12], -1
; File z:\sources\lunor\repos\rougemeilland\palmtree.math.core.uint\palmtree.math.core.uint\pmc_interface_csharp.cpp

; 342  :             return (ex.GetStatusCode());

  00092	8b 45 14	 mov	 eax, DWORD PTR $T3[ebp]
$LN8@PMCCS_TryP:

; 343  :         }
; 344  :     }

  00095	8b 4d f4	 mov	 ecx, DWORD PTR __$EHRec$[ebp+4]
  00098	64 89 0d 00 00
	00 00		 mov	 DWORD PTR fs:0, ecx
  0009f	59		 pop	 ecx
  000a0	5f		 pop	 edi
  000a1	5e		 pop	 esi
  000a2	5b		 pop	 ebx
  000a3	8b e5		 mov	 esp, ebp
  000a5	5d		 pop	 ebp
  000a6	c2 14 00	 ret	 20			; 00000014H
_TEXT	ENDS
;	COMDAT text$x
text$x	SEGMENT
__ehhandler$_PMCCS_TryParse@20:
  00000	8b 54 24 08	 mov	 edx, DWORD PTR [esp+8]
  00004	8d 42 0c	 lea	 eax, DWORD PTR [edx+12]
  00007	8b 4a e8	 mov	 ecx, DWORD PTR [edx-24]
  0000a	33 c8		 xor	 ecx, eax
  0000c	e8 00 00 00 00	 call	 @__security_check_cookie@4
  00011	b8 00 00 00 00	 mov	 eax, OFFSET __ehfuncinfo$_PMCCS_TryParse@20
  00016	e9 00 00 00 00	 jmp	 ___CxxFrameHandler3
text$x	ENDS
_PMCCS_TryParse@20 ENDP
; Function compile flags: /Ogtp
; File z:\sources\lunor\repos\rougemeilland\palmtree.math.core.uint\palmtree.math.core.uint\pmc_interface_csharp.cpp
; File z:\sources\lunor\repos\rougemeilland\palmtree.math.core.uint\palmtree.math.core.uint\pmc_exception.h
; File z:\sources\lunor\repos\rougemeilland\palmtree.math.core.uint\palmtree.math.core.uint\pmc_interface_csharp.cpp
;	COMDAT _PMCCS_Parse@16
_TEXT	SEGMENT
_ex$2 = -20						; size = 4
__$EHRec$ = -16						; size = 16
_source$ = 8						; size = 4
_number_styles$ = 12					; size = 4
_format_option$ = 16					; size = 4
$T3 = 20						; size = 4
_result$4 = 20						; size = 4
_o$ = 20						; size = 4
_PMCCS_Parse@16 PROC					; COMDAT

; 307  :     {

  00000	55		 push	 ebp
  00001	8b ec		 mov	 ebp, esp
  00003	6a ff		 push	 -1
  00005	68 00 00 00 00	 push	 __ehhandler$_PMCCS_Parse@16
  0000a	64 a1 00 00 00
	00		 mov	 eax, DWORD PTR fs:0
  00010	50		 push	 eax
  00011	83 ec 08	 sub	 esp, 8
  00014	53		 push	 ebx
  00015	56		 push	 esi
  00016	57		 push	 edi
  00017	a1 00 00 00 00	 mov	 eax, DWORD PTR ___security_cookie
  0001c	33 c5		 xor	 eax, ebp
  0001e	50		 push	 eax
  0001f	8d 45 f4	 lea	 eax, DWORD PTR __$EHRec$[ebp+4]
  00022	64 a3 00 00 00
	00		 mov	 DWORD PTR fs:0, eax
  00028	89 65 f0	 mov	 DWORD PTR __$EHRec$[ebp], esp

; 308  :         if (o == nullptr)

  0002b	8b 45 14	 mov	 eax, DWORD PTR _o$[ebp]
  0002e	85 c0		 test	 eax, eax
  00030	75 19		 jne	 SHORT $LN2@PMCCS_Pars

; 309  :             return (PMC_STATUS_ARGUMENT_NULL_ERROR);

  00032	b8 fe ff ff ff	 mov	 eax, -2			; fffffffeH

; 326  :         }
; 327  :     }

  00037	8b 4d f4	 mov	 ecx, DWORD PTR __$EHRec$[ebp+4]
  0003a	64 89 0d 00 00
	00 00		 mov	 DWORD PTR fs:0, ecx
  00041	59		 pop	 ecx
  00042	5f		 pop	 edi
  00043	5e		 pop	 esi
  00044	5b		 pop	 ebx
  00045	8b e5		 mov	 esp, ebp
  00047	5d		 pop	 ebp
  00048	c2 10 00	 ret	 16			; 00000010H
$LN2@PMCCS_Pars:

; 310  :         try

  0004b	c7 45 fc 00 00
	00 00		 mov	 DWORD PTR __$EHRec$[ebp+12], 0

; 311  :         {
; 312  :             _UINT32_T result;
; 313  :             PMC_STATUS_CODE err = PMC_TryParse(source, number_styles | PMC_NUMBER_STYLE_ALLOW_EXCEPTION_THROWING, format_option, o, &result);

  00052	8d 4d 14	 lea	 ecx, DWORD PTR _result$4[ebp]
  00055	51		 push	 ecx
  00056	50		 push	 eax
  00057	ff 75 10	 push	 DWORD PTR _format_option$[ebp]
  0005a	8b 45 0c	 mov	 eax, DWORD PTR _number_styles$[ebp]
  0005d	0d 00 00 00 02	 or	 eax, 33554432		; 02000000H
  00062	50		 push	 eax
  00063	ff 75 08	 push	 DWORD PTR _source$[ebp]
  00066	e8 00 00 00 00	 call	 ?PMC_TryParse@Internal@Core@Math@Palmtree@@YGHPB_WHPBU__tag_PMC_NUMBER_FORMAT_INFO@1234@PAPAU__tag_PMC_HANDLE_UINT@1234@PAI@Z ; Palmtree::Math::Core::Internal::PMC_TryParse

; 314  :             if (err != PMC_STATUS_OK)

  0006b	85 c0		 test	 eax, eax
  0006d	75 4d		 jne	 SHORT $LN9@PMCCS_Pars

; 315  :                 return (err);
; 316  :             if (!result)

  0006f	39 45 14	 cmp	 DWORD PTR _result$4[ebp], eax
  00072	75 19		 jne	 SHORT $LN5@PMCCS_Pars

; 317  :             {
; 318  :                 // [gB
; 319  :                 return (PMC_STATUS_INTERNAL_ERROR);

  00074	b8 00 ff ff ff	 mov	 eax, -256		; ffffff00H

; 326  :         }
; 327  :     }

  00079	8b 4d f4	 mov	 ecx, DWORD PTR __$EHRec$[ebp+4]
  0007c	64 89 0d 00 00
	00 00		 mov	 DWORD PTR fs:0, ecx
  00083	59		 pop	 ecx
  00084	5f		 pop	 edi
  00085	5e		 pop	 esi
  00086	5b		 pop	 ebx
  00087	8b e5		 mov	 esp, ebp
  00089	5d		 pop	 ebp
  0008a	c2 10 00	 ret	 16			; 00000010H
$LN5@PMCCS_Pars:

; 320  :             }
; 321  :             return (PMC_STATUS_OK);

  0008d	33 c0		 xor	 eax, eax

; 326  :         }
; 327  :     }

  0008f	8b 4d f4	 mov	 ecx, DWORD PTR __$EHRec$[ebp+4]
  00092	64 89 0d 00 00
	00 00		 mov	 DWORD PTR fs:0, ecx
  00099	59		 pop	 ecx
  0009a	5f		 pop	 edi
  0009b	5e		 pop	 esi
  0009c	5b		 pop	 ebx
  0009d	8b e5		 mov	 esp, ebp
  0009f	5d		 pop	 ebp
  000a0	c2 10 00	 ret	 16			; 00000010H
__catch$_PMCCS_Parse@16$0:
; File z:\sources\lunor\repos\rougemeilland\palmtree.math.core.uint\palmtree.math.core.uint\pmc_exception.h

; 75   :             return (_code);

  000a3	8b 45 ec	 mov	 eax, DWORD PTR _ex$2[ebp]
  000a6	8b 40 0c	 mov	 eax, DWORD PTR [eax+12]
  000a9	89 45 14	 mov	 DWORD PTR $T3[ebp], eax
; File z:\sources\lunor\repos\rougemeilland\palmtree.math.core.uint\palmtree.math.core.uint\pmc_interface_csharp.cpp

; 325  :             return (ex.GetStatusCode());

  000ac	b8 00 00 00 00	 mov	 eax, $LN10@PMCCS_Pars
  000b1	c3		 ret	 0
$LN10@PMCCS_Pars:
; File z:\sources\lunor\repos\rougemeilland\palmtree.math.core.uint\palmtree.math.core.uint\pmc_exception.h
  000b2	c7 45 fc ff ff
	ff ff		 mov	 DWORD PTR __$EHRec$[ebp+12], -1
; File z:\sources\lunor\repos\rougemeilland\palmtree.math.core.uint\palmtree.math.core.uint\pmc_interface_csharp.cpp

; 325  :             return (ex.GetStatusCode());

  000b9	8b 45 14	 mov	 eax, DWORD PTR $T3[ebp]
$LN9@PMCCS_Pars:

; 326  :         }
; 327  :     }

  000bc	8b 4d f4	 mov	 ecx, DWORD PTR __$EHRec$[ebp+4]
  000bf	64 89 0d 00 00
	00 00		 mov	 DWORD PTR fs:0, ecx
  000c6	59		 pop	 ecx
  000c7	5f		 pop	 edi
  000c8	5e		 pop	 esi
  000c9	5b		 pop	 ebx
  000ca	8b e5		 mov	 esp, ebp
  000cc	5d		 pop	 ebp
  000cd	c2 10 00	 ret	 16			; 00000010H
_TEXT	ENDS
;	COMDAT text$x
text$x	SEGMENT
__ehhandler$_PMCCS_Parse@16:
  00000	8b 54 24 08	 mov	 edx, DWORD PTR [esp+8]
  00004	8d 42 0c	 lea	 eax, DWORD PTR [edx+12]
  00007	8b 4a e8	 mov	 ecx, DWORD PTR [edx-24]
  0000a	33 c8		 xor	 ecx, eax
  0000c	e8 00 00 00 00	 call	 @__security_check_cookie@4
  00011	b8 00 00 00 00	 mov	 eax, OFFSET __ehfuncinfo$_PMCCS_Parse@16
  00016	e9 00 00 00 00	 jmp	 ___CxxFrameHandler3
text$x	ENDS
_PMCCS_Parse@16 ENDP
; Function compile flags: /Ogtp
; File z:\sources\lunor\repos\rougemeilland\palmtree.math.core.uint\palmtree.math.core.uint\pmc_interface_csharp.cpp
; File z:\sources\lunor\repos\rougemeilland\palmtree.math.core.uint\palmtree.math.core.uint\pmc_exception.h
; File z:\sources\lunor\repos\rougemeilland\palmtree.math.core.uint\palmtree.math.core.uint\pmc_interface_csharp.cpp
;	COMDAT _PMCCS_ToString@24
_TEXT	SEGMENT
_ex$2 = -20						; size = 4
__$EHRec$ = -16						; size = 16
_x$ = 8							; size = 4
_format$ = 12						; size = 4
_format_option$ = 16					; size = 4
_buffer$ = 20						; size = 4
_buffer_size$ = 24					; size = 4
$T3 = 28						; size = 4
_size$ = 28						; size = 4
_PMCCS_ToString@24 PROC					; COMDAT

; 289  :     {

  00000	55		 push	 ebp
  00001	8b ec		 mov	 ebp, esp
  00003	6a ff		 push	 -1
  00005	68 00 00 00 00	 push	 __ehhandler$_PMCCS_ToString@24
  0000a	64 a1 00 00 00
	00		 mov	 eax, DWORD PTR fs:0
  00010	50		 push	 eax
  00011	83 ec 08	 sub	 esp, 8
  00014	53		 push	 ebx
  00015	56		 push	 esi
  00016	57		 push	 edi
  00017	a1 00 00 00 00	 mov	 eax, DWORD PTR ___security_cookie
  0001c	33 c5		 xor	 eax, ebp
  0001e	50		 push	 eax
  0001f	8d 45 f4	 lea	 eax, DWORD PTR __$EHRec$[ebp+4]
  00022	64 a3 00 00 00
	00		 mov	 DWORD PTR fs:0, eax
  00028	89 65 f0	 mov	 DWORD PTR __$EHRec$[ebp], esp

; 290  :         if (size == nullptr)

  0002b	8b 75 1c	 mov	 esi, DWORD PTR _size$[ebp]
  0002e	85 f6		 test	 esi, esi
  00030	75 17		 jne	 SHORT $LN2@PMCCS_ToSt

; 291  :             return (PMC_STATUS_ARGUMENT_NULL_ERROR);

  00032	8d 46 fe	 lea	 eax, DWORD PTR [esi-2]

; 303  :         }
; 304  :     }

  00035	8b 4d f4	 mov	 ecx, DWORD PTR __$EHRec$[ebp+4]
  00038	64 89 0d 00 00
	00 00		 mov	 DWORD PTR fs:0, ecx
  0003f	59		 pop	 ecx
  00040	5f		 pop	 edi
  00041	5e		 pop	 esi
  00042	5b		 pop	 ebx
  00043	8b e5		 mov	 esp, ebp
  00045	5d		 pop	 ebp
  00046	c2 18 00	 ret	 24			; 00000018H
$LN2@PMCCS_ToSt:

; 292  :         try

  00049	c7 45 fc 00 00
	00 00		 mov	 DWORD PTR __$EHRec$[ebp+12], 0

; 293  :         {
; 294  :             size_t r = PMC_ToString(x, format, format_option, buffer, buffer_size);

  00050	ff 75 18	 push	 DWORD PTR _buffer_size$[ebp]
  00053	ff 75 14	 push	 DWORD PTR _buffer$[ebp]
  00056	ff 75 10	 push	 DWORD PTR _format_option$[ebp]
  00059	ff 75 0c	 push	 DWORD PTR _format$[ebp]
  0005c	ff 75 08	 push	 DWORD PTR _x$[ebp]
  0005f	e8 00 00 00 00	 call	 ?PMC_ToString@Internal@Core@Math@Palmtree@@YGIPAU__tag_PMC_HANDLE_UINT@1234@PB_WPBU__tag_PMC_NUMBER_FORMAT_INFO@1234@PA_WI@Z ; Palmtree::Math::Core::Internal::PMC_ToString

; 295  :             if (r > 0x7fffffff)

  00064	3d ff ff ff 7f	 cmp	 eax, 2147483647		; 7fffffffH
  00069	76 19		 jbe	 SHORT $LN4@PMCCS_ToSt

; 296  :                 return (PMC_STATUS_NOT_ENOUGH_MEMORY);

  0006b	b8 f7 ff ff ff	 mov	 eax, -9			; fffffff7H

; 303  :         }
; 304  :     }

  00070	8b 4d f4	 mov	 ecx, DWORD PTR __$EHRec$[ebp+4]
  00073	64 89 0d 00 00
	00 00		 mov	 DWORD PTR fs:0, ecx
  0007a	59		 pop	 ecx
  0007b	5f		 pop	 edi
  0007c	5e		 pop	 esi
  0007d	5b		 pop	 ebx
  0007e	8b e5		 mov	 esp, ebp
  00080	5d		 pop	 ebp
  00081	c2 18 00	 ret	 24			; 00000018H
$LN4@PMCCS_ToSt:

; 297  :             *size = (_INT32_T)r;

  00084	89 06		 mov	 DWORD PTR [esi], eax

; 298  :             return (PMC_STATUS_OK);

  00086	33 c0		 xor	 eax, eax

; 303  :         }
; 304  :     }

  00088	8b 4d f4	 mov	 ecx, DWORD PTR __$EHRec$[ebp+4]
  0008b	64 89 0d 00 00
	00 00		 mov	 DWORD PTR fs:0, ecx
  00092	59		 pop	 ecx
  00093	5f		 pop	 edi
  00094	5e		 pop	 esi
  00095	5b		 pop	 ebx
  00096	8b e5		 mov	 esp, ebp
  00098	5d		 pop	 ebp
  00099	c2 18 00	 ret	 24			; 00000018H
__catch$_PMCCS_ToString@24$0:
; File z:\sources\lunor\repos\rougemeilland\palmtree.math.core.uint\palmtree.math.core.uint\pmc_exception.h

; 75   :             return (_code);

  0009c	8b 45 ec	 mov	 eax, DWORD PTR _ex$2[ebp]
  0009f	8b 40 0c	 mov	 eax, DWORD PTR [eax+12]
  000a2	89 45 1c	 mov	 DWORD PTR $T3[ebp], eax
; File z:\sources\lunor\repos\rougemeilland\palmtree.math.core.uint\palmtree.math.core.uint\pmc_interface_csharp.cpp

; 302  :             return (ex.GetStatusCode());

  000a5	b8 00 00 00 00	 mov	 eax, $LN9@PMCCS_ToSt
  000aa	c3		 ret	 0
$LN9@PMCCS_ToSt:
; File z:\sources\lunor\repos\rougemeilland\palmtree.math.core.uint\palmtree.math.core.uint\pmc_exception.h
  000ab	c7 45 fc ff ff
	ff ff		 mov	 DWORD PTR __$EHRec$[ebp+12], -1
; File z:\sources\lunor\repos\rougemeilland\palmtree.math.core.uint\palmtree.math.core.uint\pmc_interface_csharp.cpp

; 302  :             return (ex.GetStatusCode());

  000b2	8b 45 1c	 mov	 eax, DWORD PTR $T3[ebp]

; 303  :         }
; 304  :     }

  000b5	8b 4d f4	 mov	 ecx, DWORD PTR __$EHRec$[ebp+4]
  000b8	64 89 0d 00 00
	00 00		 mov	 DWORD PTR fs:0, ecx
  000bf	59		 pop	 ecx
  000c0	5f		 pop	 edi
  000c1	5e		 pop	 esi
  000c2	5b		 pop	 ebx
  000c3	8b e5		 mov	 esp, ebp
  000c5	5d		 pop	 ebp
  000c6	c2 18 00	 ret	 24			; 00000018H
_TEXT	ENDS
;	COMDAT text$x
text$x	SEGMENT
__ehhandler$_PMCCS_ToString@24:
  00000	8b 54 24 08	 mov	 edx, DWORD PTR [esp+8]
  00004	8d 42 0c	 lea	 eax, DWORD PTR [edx+12]
  00007	8b 4a e8	 mov	 ecx, DWORD PTR [edx-24]
  0000a	33 c8		 xor	 ecx, eax
  0000c	e8 00 00 00 00	 call	 @__security_check_cookie@4
  00011	b8 00 00 00 00	 mov	 eax, OFFSET __ehfuncinfo$_PMCCS_ToString@24
  00016	e9 00 00 00 00	 jmp	 ___CxxFrameHandler3
text$x	ENDS
_PMCCS_ToString@24 ENDP
; Function compile flags: /Ogtp
; File z:\sources\lunor\repos\rougemeilland\palmtree.math.core.uint\palmtree.math.core.uint\pmc_interface_csharp.cpp
; File z:\sources\lunor\repos\rougemeilland\palmtree.math.core.uint\palmtree.math.core.uint\pmc_exception.h
; File z:\sources\lunor\repos\rougemeilland\palmtree.math.core.uint\palmtree.math.core.uint\pmc_interface_csharp.cpp
;	COMDAT _PMCCS_To_X_L@8
_TEXT	SEGMENT
_ex$2 = -20						; size = 4
__$EHRec$ = -16						; size = 16
_p$ = 8							; size = 4
$T3 = 12						; size = 4
_o$ = 12						; size = 4
_PMCCS_To_X_L@8 PROC					; COMDAT

; 274  :     {

  00000	55		 push	 ebp
  00001	8b ec		 mov	 ebp, esp
  00003	6a ff		 push	 -1
  00005	68 00 00 00 00	 push	 __ehhandler$_PMCCS_To_X_L@8
  0000a	64 a1 00 00 00
	00		 mov	 eax, DWORD PTR fs:0
  00010	50		 push	 eax
  00011	83 ec 08	 sub	 esp, 8
  00014	53		 push	 ebx
  00015	56		 push	 esi
  00016	57		 push	 edi
  00017	a1 00 00 00 00	 mov	 eax, DWORD PTR ___security_cookie
  0001c	33 c5		 xor	 eax, ebp
  0001e	50		 push	 eax
  0001f	8d 45 f4	 lea	 eax, DWORD PTR __$EHRec$[ebp+4]
  00022	64 a3 00 00 00
	00		 mov	 DWORD PTR fs:0, eax
  00028	89 65 f0	 mov	 DWORD PTR __$EHRec$[ebp], esp

; 275  :         if (o == nullptr)

  0002b	8b 75 0c	 mov	 esi, DWORD PTR _o$[ebp]
  0002e	85 f6		 test	 esi, esi
  00030	75 17		 jne	 SHORT $LN2@PMCCS_To_X

; 276  :             return (PMC_STATUS_ARGUMENT_NULL_ERROR);

  00032	8d 46 fe	 lea	 eax, DWORD PTR [esi-2]

; 285  :         }
; 286  :     }

  00035	8b 4d f4	 mov	 ecx, DWORD PTR __$EHRec$[ebp+4]
  00038	64 89 0d 00 00
	00 00		 mov	 DWORD PTR fs:0, ecx
  0003f	59		 pop	 ecx
  00040	5f		 pop	 edi
  00041	5e		 pop	 esi
  00042	5b		 pop	 ebx
  00043	8b e5		 mov	 esp, ebp
  00045	5d		 pop	 ebp
  00046	c2 08 00	 ret	 8
$LN2@PMCCS_To_X:

; 277  :         try

  00049	c7 45 fc 00 00
	00 00		 mov	 DWORD PTR __$EHRec$[ebp+12], 0

; 278  :         {
; 279  :             *o = PMC_To_X_L(p);

  00050	ff 75 08	 push	 DWORD PTR _p$[ebp]
  00053	e8 00 00 00 00	 call	 ?PMC_To_X_L@Internal@Core@Math@Palmtree@@YG_KPAU__tag_PMC_HANDLE_UINT@1234@@Z ; Palmtree::Math::Core::Internal::PMC_To_X_L
  00058	89 06		 mov	 DWORD PTR [esi], eax
  0005a	89 56 04	 mov	 DWORD PTR [esi+4], edx

; 280  :             return (PMC_STATUS_OK);

  0005d	33 c0		 xor	 eax, eax

; 285  :         }
; 286  :     }

  0005f	8b 4d f4	 mov	 ecx, DWORD PTR __$EHRec$[ebp+4]
  00062	64 89 0d 00 00
	00 00		 mov	 DWORD PTR fs:0, ecx
  00069	59		 pop	 ecx
  0006a	5f		 pop	 edi
  0006b	5e		 pop	 esi
  0006c	5b		 pop	 ebx
  0006d	8b e5		 mov	 esp, ebp
  0006f	5d		 pop	 ebp
  00070	c2 08 00	 ret	 8
__catch$_PMCCS_To_X_L@8$0:
; File z:\sources\lunor\repos\rougemeilland\palmtree.math.core.uint\palmtree.math.core.uint\pmc_exception.h

; 75   :             return (_code);

  00073	8b 45 ec	 mov	 eax, DWORD PTR _ex$2[ebp]
  00076	8b 40 0c	 mov	 eax, DWORD PTR [eax+12]
  00079	89 45 0c	 mov	 DWORD PTR $T3[ebp], eax
; File z:\sources\lunor\repos\rougemeilland\palmtree.math.core.uint\palmtree.math.core.uint\pmc_interface_csharp.cpp

; 284  :             return (ex.GetStatusCode());

  0007c	b8 00 00 00 00	 mov	 eax, $LN8@PMCCS_To_X
  00081	c3		 ret	 0
$LN8@PMCCS_To_X:
; File z:\sources\lunor\repos\rougemeilland\palmtree.math.core.uint\palmtree.math.core.uint\pmc_exception.h
  00082	c7 45 fc ff ff
	ff ff		 mov	 DWORD PTR __$EHRec$[ebp+12], -1
; File z:\sources\lunor\repos\rougemeilland\palmtree.math.core.uint\palmtree.math.core.uint\pmc_interface_csharp.cpp

; 284  :             return (ex.GetStatusCode());

  00089	8b 45 0c	 mov	 eax, DWORD PTR $T3[ebp]

; 285  :         }
; 286  :     }

  0008c	8b 4d f4	 mov	 ecx, DWORD PTR __$EHRec$[ebp+4]
  0008f	64 89 0d 00 00
	00 00		 mov	 DWORD PTR fs:0, ecx
  00096	59		 pop	 ecx
  00097	5f		 pop	 edi
  00098	5e		 pop	 esi
  00099	5b		 pop	 ebx
  0009a	8b e5		 mov	 esp, ebp
  0009c	5d		 pop	 ebp
  0009d	c2 08 00	 ret	 8
_TEXT	ENDS
;	COMDAT text$x
text$x	SEGMENT
__ehhandler$_PMCCS_To_X_L@8:
  00000	8b 54 24 08	 mov	 edx, DWORD PTR [esp+8]
  00004	8d 42 0c	 lea	 eax, DWORD PTR [edx+12]
  00007	8b 4a e8	 mov	 ecx, DWORD PTR [edx-24]
  0000a	33 c8		 xor	 ecx, eax
  0000c	e8 00 00 00 00	 call	 @__security_check_cookie@4
  00011	b8 00 00 00 00	 mov	 eax, OFFSET __ehfuncinfo$_PMCCS_To_X_L@8
  00016	e9 00 00 00 00	 jmp	 ___CxxFrameHandler3
text$x	ENDS
_PMCCS_To_X_L@8 ENDP
; Function compile flags: /Ogtp
; File z:\sources\lunor\repos\rougemeilland\palmtree.math.core.uint\palmtree.math.core.uint\pmc_interface_csharp.cpp
; File z:\sources\lunor\repos\rougemeilland\palmtree.math.core.uint\palmtree.math.core.uint\pmc_exception.h
; File z:\sources\lunor\repos\rougemeilland\palmtree.math.core.uint\palmtree.math.core.uint\pmc_interface_csharp.cpp
;	COMDAT _PMCCS_To_X_I@8
_TEXT	SEGMENT
_ex$2 = -20						; size = 4
__$EHRec$ = -16						; size = 16
_p$ = 8							; size = 4
$T3 = 12						; size = 4
_o$ = 12						; size = 4
_PMCCS_To_X_I@8 PROC					; COMDAT

; 259  :     {

  00000	55		 push	 ebp
  00001	8b ec		 mov	 ebp, esp
  00003	6a ff		 push	 -1
  00005	68 00 00 00 00	 push	 __ehhandler$_PMCCS_To_X_I@8
  0000a	64 a1 00 00 00
	00		 mov	 eax, DWORD PTR fs:0
  00010	50		 push	 eax
  00011	83 ec 08	 sub	 esp, 8
  00014	53		 push	 ebx
  00015	56		 push	 esi
  00016	57		 push	 edi
  00017	a1 00 00 00 00	 mov	 eax, DWORD PTR ___security_cookie
  0001c	33 c5		 xor	 eax, ebp
  0001e	50		 push	 eax
  0001f	8d 45 f4	 lea	 eax, DWORD PTR __$EHRec$[ebp+4]
  00022	64 a3 00 00 00
	00		 mov	 DWORD PTR fs:0, eax
  00028	89 65 f0	 mov	 DWORD PTR __$EHRec$[ebp], esp

; 260  :         if (o == nullptr)

  0002b	8b 75 0c	 mov	 esi, DWORD PTR _o$[ebp]
  0002e	85 f6		 test	 esi, esi
  00030	75 17		 jne	 SHORT $LN2@PMCCS_To_X

; 261  :             return (PMC_STATUS_ARGUMENT_NULL_ERROR);

  00032	8d 46 fe	 lea	 eax, DWORD PTR [esi-2]

; 270  :         }
; 271  :     }

  00035	8b 4d f4	 mov	 ecx, DWORD PTR __$EHRec$[ebp+4]
  00038	64 89 0d 00 00
	00 00		 mov	 DWORD PTR fs:0, ecx
  0003f	59		 pop	 ecx
  00040	5f		 pop	 edi
  00041	5e		 pop	 esi
  00042	5b		 pop	 ebx
  00043	8b e5		 mov	 esp, ebp
  00045	5d		 pop	 ebp
  00046	c2 08 00	 ret	 8
$LN2@PMCCS_To_X:

; 262  :         try

  00049	c7 45 fc 00 00
	00 00		 mov	 DWORD PTR __$EHRec$[ebp+12], 0

; 263  :         {
; 264  :             *o = PMC_To_X_I(p);

  00050	ff 75 08	 push	 DWORD PTR _p$[ebp]
  00053	e8 00 00 00 00	 call	 ?PMC_To_X_I@Internal@Core@Math@Palmtree@@YGIPAU__tag_PMC_HANDLE_UINT@1234@@Z ; Palmtree::Math::Core::Internal::PMC_To_X_I
  00058	89 06		 mov	 DWORD PTR [esi], eax

; 265  :             return (PMC_STATUS_OK);

  0005a	33 c0		 xor	 eax, eax

; 270  :         }
; 271  :     }

  0005c	8b 4d f4	 mov	 ecx, DWORD PTR __$EHRec$[ebp+4]
  0005f	64 89 0d 00 00
	00 00		 mov	 DWORD PTR fs:0, ecx
  00066	59		 pop	 ecx
  00067	5f		 pop	 edi
  00068	5e		 pop	 esi
  00069	5b		 pop	 ebx
  0006a	8b e5		 mov	 esp, ebp
  0006c	5d		 pop	 ebp
  0006d	c2 08 00	 ret	 8
__catch$_PMCCS_To_X_I@8$0:
; File z:\sources\lunor\repos\rougemeilland\palmtree.math.core.uint\palmtree.math.core.uint\pmc_exception.h

; 75   :             return (_code);

  00070	8b 45 ec	 mov	 eax, DWORD PTR _ex$2[ebp]
  00073	8b 40 0c	 mov	 eax, DWORD PTR [eax+12]
  00076	89 45 0c	 mov	 DWORD PTR $T3[ebp], eax
; File z:\sources\lunor\repos\rougemeilland\palmtree.math.core.uint\palmtree.math.core.uint\pmc_interface_csharp.cpp

; 269  :             return (ex.GetStatusCode());

  00079	b8 00 00 00 00	 mov	 eax, $LN8@PMCCS_To_X
  0007e	c3		 ret	 0
$LN8@PMCCS_To_X:
; File z:\sources\lunor\repos\rougemeilland\palmtree.math.core.uint\palmtree.math.core.uint\pmc_exception.h
  0007f	c7 45 fc ff ff
	ff ff		 mov	 DWORD PTR __$EHRec$[ebp+12], -1
; File z:\sources\lunor\repos\rougemeilland\palmtree.math.core.uint\palmtree.math.core.uint\pmc_interface_csharp.cpp

; 269  :             return (ex.GetStatusCode());

  00086	8b 45 0c	 mov	 eax, DWORD PTR $T3[ebp]

; 270  :         }
; 271  :     }

  00089	8b 4d f4	 mov	 ecx, DWORD PTR __$EHRec$[ebp+4]
  0008c	64 89 0d 00 00
	00 00		 mov	 DWORD PTR fs:0, ecx
  00093	59		 pop	 ecx
  00094	5f		 pop	 edi
  00095	5e		 pop	 esi
  00096	5b		 pop	 ebx
  00097	8b e5		 mov	 esp, ebp
  00099	5d		 pop	 ebp
  0009a	c2 08 00	 ret	 8
_TEXT	ENDS
;	COMDAT text$x
text$x	SEGMENT
__ehhandler$_PMCCS_To_X_I@8:
  00000	8b 54 24 08	 mov	 edx, DWORD PTR [esp+8]
  00004	8d 42 0c	 lea	 eax, DWORD PTR [edx+12]
  00007	8b 4a e8	 mov	 ecx, DWORD PTR [edx-24]
  0000a	33 c8		 xor	 ecx, eax
  0000c	e8 00 00 00 00	 call	 @__security_check_cookie@4
  00011	b8 00 00 00 00	 mov	 eax, OFFSET __ehfuncinfo$_PMCCS_To_X_I@8
  00016	e9 00 00 00 00	 jmp	 ___CxxFrameHandler3
text$x	ENDS
_PMCCS_To_X_I@8 ENDP
; Function compile flags: /Ogtp
; File z:\sources\lunor\repos\rougemeilland\palmtree.math.core.uint\palmtree.math.core.uint\pmc_interface_csharp.cpp
; File z:\sources\lunor\repos\rougemeilland\palmtree.math.core.uint\palmtree.math.core.uint\pmc_exception.h
; File z:\sources\lunor\repos\rougemeilland\palmtree.math.core.uint\palmtree.math.core.uint\pmc_interface_csharp.cpp
;	COMDAT _PMCCS_GetAllocatedMemorySize@4
_TEXT	SEGMENT
_ex$2 = -20						; size = 4
__$EHRec$ = -16						; size = 16
$T3 = 8							; size = 4
_size$ = 8						; size = 4
_PMCCS_GetAllocatedMemorySize@4 PROC			; COMDAT

; 244  :     {

  00000	55		 push	 ebp
  00001	8b ec		 mov	 ebp, esp
  00003	6a ff		 push	 -1
  00005	68 00 00 00 00	 push	 __ehhandler$_PMCCS_GetAllocatedMemorySize@4
  0000a	64 a1 00 00 00
	00		 mov	 eax, DWORD PTR fs:0
  00010	50		 push	 eax
  00011	83 ec 08	 sub	 esp, 8
  00014	53		 push	 ebx
  00015	56		 push	 esi
  00016	57		 push	 edi
  00017	a1 00 00 00 00	 mov	 eax, DWORD PTR ___security_cookie
  0001c	33 c5		 xor	 eax, ebp
  0001e	50		 push	 eax
  0001f	8d 45 f4	 lea	 eax, DWORD PTR __$EHRec$[ebp+4]
  00022	64 a3 00 00 00
	00		 mov	 DWORD PTR fs:0, eax
  00028	89 65 f0	 mov	 DWORD PTR __$EHRec$[ebp], esp

; 245  :         if (size == nullptr)

  0002b	8b 75 08	 mov	 esi, DWORD PTR _size$[ebp]
  0002e	85 f6		 test	 esi, esi
  00030	75 17		 jne	 SHORT $LN2@PMCCS_GetA

; 246  :             return (PMC_STATUS_ARGUMENT_NULL_ERROR);

  00032	8d 46 fe	 lea	 eax, DWORD PTR [esi-2]

; 255  :         }
; 256  :     }

  00035	8b 4d f4	 mov	 ecx, DWORD PTR __$EHRec$[ebp+4]
  00038	64 89 0d 00 00
	00 00		 mov	 DWORD PTR fs:0, ecx
  0003f	59		 pop	 ecx
  00040	5f		 pop	 edi
  00041	5e		 pop	 esi
  00042	5b		 pop	 ebx
  00043	8b e5		 mov	 esp, ebp
  00045	5d		 pop	 ebp
  00046	c2 04 00	 ret	 4
$LN2@PMCCS_GetA:

; 247  :         try

  00049	c7 45 fc 00 00
	00 00		 mov	 DWORD PTR __$EHRec$[ebp+12], 0

; 248  :         {
; 249  :             *size = PMC_GetAllocatedMemorySize();

  00050	e8 00 00 00 00	 call	 ?PMC_GetAllocatedMemorySize@Internal@Core@Math@Palmtree@@YG_KXZ ; Palmtree::Math::Core::Internal::PMC_GetAllocatedMemorySize
  00055	89 06		 mov	 DWORD PTR [esi], eax
  00057	89 56 04	 mov	 DWORD PTR [esi+4], edx

; 250  :             return (PMC_STATUS_OK);

  0005a	33 c0		 xor	 eax, eax

; 255  :         }
; 256  :     }

  0005c	8b 4d f4	 mov	 ecx, DWORD PTR __$EHRec$[ebp+4]
  0005f	64 89 0d 00 00
	00 00		 mov	 DWORD PTR fs:0, ecx
  00066	59		 pop	 ecx
  00067	5f		 pop	 edi
  00068	5e		 pop	 esi
  00069	5b		 pop	 ebx
  0006a	8b e5		 mov	 esp, ebp
  0006c	5d		 pop	 ebp
  0006d	c2 04 00	 ret	 4
__catch$_PMCCS_GetAllocatedMemorySize@4$0:
; File z:\sources\lunor\repos\rougemeilland\palmtree.math.core.uint\palmtree.math.core.uint\pmc_exception.h

; 75   :             return (_code);

  00070	8b 45 ec	 mov	 eax, DWORD PTR _ex$2[ebp]
  00073	8b 40 0c	 mov	 eax, DWORD PTR [eax+12]
  00076	89 45 08	 mov	 DWORD PTR $T3[ebp], eax
; File z:\sources\lunor\repos\rougemeilland\palmtree.math.core.uint\palmtree.math.core.uint\pmc_interface_csharp.cpp

; 254  :             return (ex.GetStatusCode());

  00079	b8 00 00 00 00	 mov	 eax, $LN8@PMCCS_GetA
  0007e	c3		 ret	 0
$LN8@PMCCS_GetA:
; File z:\sources\lunor\repos\rougemeilland\palmtree.math.core.uint\palmtree.math.core.uint\pmc_exception.h
  0007f	c7 45 fc ff ff
	ff ff		 mov	 DWORD PTR __$EHRec$[ebp+12], -1
; File z:\sources\lunor\repos\rougemeilland\palmtree.math.core.uint\palmtree.math.core.uint\pmc_interface_csharp.cpp

; 254  :             return (ex.GetStatusCode());

  00086	8b 45 08	 mov	 eax, DWORD PTR $T3[ebp]

; 255  :         }
; 256  :     }

  00089	8b 4d f4	 mov	 ecx, DWORD PTR __$EHRec$[ebp+4]
  0008c	64 89 0d 00 00
	00 00		 mov	 DWORD PTR fs:0, ecx
  00093	59		 pop	 ecx
  00094	5f		 pop	 edi
  00095	5e		 pop	 esi
  00096	5b		 pop	 ebx
  00097	8b e5		 mov	 esp, ebp
  00099	5d		 pop	 ebp
  0009a	c2 04 00	 ret	 4
_TEXT	ENDS
;	COMDAT text$x
text$x	SEGMENT
__ehhandler$_PMCCS_GetAllocatedMemorySize@4:
  00000	8b 54 24 08	 mov	 edx, DWORD PTR [esp+8]
  00004	8d 42 0c	 lea	 eax, DWORD PTR [edx+12]
  00007	8b 4a e8	 mov	 ecx, DWORD PTR [edx-24]
  0000a	33 c8		 xor	 ecx, eax
  0000c	e8 00 00 00 00	 call	 @__security_check_cookie@4
  00011	b8 00 00 00 00	 mov	 eax, OFFSET __ehfuncinfo$_PMCCS_GetAllocatedMemorySize@4
  00016	e9 00 00 00 00	 jmp	 ___CxxFrameHandler3
text$x	ENDS
_PMCCS_GetAllocatedMemorySize@4 ENDP
; Function compile flags: /Ogtp
; File z:\sources\lunor\repos\rougemeilland\palmtree.math.core.uint\palmtree.math.core.uint\pmc_interface_csharp.cpp
; File z:\sources\lunor\repos\rougemeilland\palmtree.math.core.uint\palmtree.math.core.uint\pmc_exception.h
; File z:\sources\lunor\repos\rougemeilland\palmtree.math.core.uint\palmtree.math.core.uint\pmc_interface_csharp.cpp
;	COMDAT _PMCCS_Clone_X@8
_TEXT	SEGMENT
_ex$2 = -20						; size = 4
__$EHRec$ = -16						; size = 16
_x$ = 8							; size = 4
$T3 = 12						; size = 4
_o$ = 12						; size = 4
_PMCCS_Clone_X@8 PROC					; COMDAT

; 229  :     {

  00000	55		 push	 ebp
  00001	8b ec		 mov	 ebp, esp
  00003	6a ff		 push	 -1
  00005	68 00 00 00 00	 push	 __ehhandler$_PMCCS_Clone_X@8
  0000a	64 a1 00 00 00
	00		 mov	 eax, DWORD PTR fs:0
  00010	50		 push	 eax
  00011	83 ec 08	 sub	 esp, 8
  00014	53		 push	 ebx
  00015	56		 push	 esi
  00016	57		 push	 edi
  00017	a1 00 00 00 00	 mov	 eax, DWORD PTR ___security_cookie
  0001c	33 c5		 xor	 eax, ebp
  0001e	50		 push	 eax
  0001f	8d 45 f4	 lea	 eax, DWORD PTR __$EHRec$[ebp+4]
  00022	64 a3 00 00 00
	00		 mov	 DWORD PTR fs:0, eax
  00028	89 65 f0	 mov	 DWORD PTR __$EHRec$[ebp], esp

; 230  :         if (o == nullptr)

  0002b	8b 75 0c	 mov	 esi, DWORD PTR _o$[ebp]
  0002e	85 f6		 test	 esi, esi
  00030	75 17		 jne	 SHORT $LN2@PMCCS_Clon

; 231  :             return (PMC_STATUS_ARGUMENT_NULL_ERROR);

  00032	8d 46 fe	 lea	 eax, DWORD PTR [esi-2]

; 240  :         }
; 241  :     }

  00035	8b 4d f4	 mov	 ecx, DWORD PTR __$EHRec$[ebp+4]
  00038	64 89 0d 00 00
	00 00		 mov	 DWORD PTR fs:0, ecx
  0003f	59		 pop	 ecx
  00040	5f		 pop	 edi
  00041	5e		 pop	 esi
  00042	5b		 pop	 ebx
  00043	8b e5		 mov	 esp, ebp
  00045	5d		 pop	 ebp
  00046	c2 08 00	 ret	 8
$LN2@PMCCS_Clon:

; 232  :         try

  00049	c7 45 fc 00 00
	00 00		 mov	 DWORD PTR __$EHRec$[ebp+12], 0

; 233  :         {
; 234  :             *o = PMC_Clone_X(x);

  00050	ff 75 08	 push	 DWORD PTR _x$[ebp]
  00053	e8 00 00 00 00	 call	 ?PMC_Clone_X@Internal@Core@Math@Palmtree@@YGPAU__tag_PMC_HANDLE_UINT@1234@PAU51234@@Z ; Palmtree::Math::Core::Internal::PMC_Clone_X
  00058	89 06		 mov	 DWORD PTR [esi], eax

; 235  :             return (PMC_STATUS_OK);

  0005a	33 c0		 xor	 eax, eax

; 240  :         }
; 241  :     }

  0005c	8b 4d f4	 mov	 ecx, DWORD PTR __$EHRec$[ebp+4]
  0005f	64 89 0d 00 00
	00 00		 mov	 DWORD PTR fs:0, ecx
  00066	59		 pop	 ecx
  00067	5f		 pop	 edi
  00068	5e		 pop	 esi
  00069	5b		 pop	 ebx
  0006a	8b e5		 mov	 esp, ebp
  0006c	5d		 pop	 ebp
  0006d	c2 08 00	 ret	 8
__catch$_PMCCS_Clone_X@8$0:
; File z:\sources\lunor\repos\rougemeilland\palmtree.math.core.uint\palmtree.math.core.uint\pmc_exception.h

; 75   :             return (_code);

  00070	8b 45 ec	 mov	 eax, DWORD PTR _ex$2[ebp]
  00073	8b 40 0c	 mov	 eax, DWORD PTR [eax+12]
  00076	89 45 0c	 mov	 DWORD PTR $T3[ebp], eax
; File z:\sources\lunor\repos\rougemeilland\palmtree.math.core.uint\palmtree.math.core.uint\pmc_interface_csharp.cpp

; 239  :             return (ex.GetStatusCode());

  00079	b8 00 00 00 00	 mov	 eax, $LN8@PMCCS_Clon
  0007e	c3		 ret	 0
$LN8@PMCCS_Clon:
; File z:\sources\lunor\repos\rougemeilland\palmtree.math.core.uint\palmtree.math.core.uint\pmc_exception.h
  0007f	c7 45 fc ff ff
	ff ff		 mov	 DWORD PTR __$EHRec$[ebp+12], -1
; File z:\sources\lunor\repos\rougemeilland\palmtree.math.core.uint\palmtree.math.core.uint\pmc_interface_csharp.cpp

; 239  :             return (ex.GetStatusCode());

  00086	8b 45 0c	 mov	 eax, DWORD PTR $T3[ebp]

; 240  :         }
; 241  :     }

  00089	8b 4d f4	 mov	 ecx, DWORD PTR __$EHRec$[ebp+4]
  0008c	64 89 0d 00 00
	00 00		 mov	 DWORD PTR fs:0, ecx
  00093	59		 pop	 ecx
  00094	5f		 pop	 edi
  00095	5e		 pop	 esi
  00096	5b		 pop	 ebx
  00097	8b e5		 mov	 esp, ebp
  00099	5d		 pop	 ebp
  0009a	c2 08 00	 ret	 8
_TEXT	ENDS
;	COMDAT text$x
text$x	SEGMENT
__ehhandler$_PMCCS_Clone_X@8:
  00000	8b 54 24 08	 mov	 edx, DWORD PTR [esp+8]
  00004	8d 42 0c	 lea	 eax, DWORD PTR [edx+12]
  00007	8b 4a e8	 mov	 ecx, DWORD PTR [edx-24]
  0000a	33 c8		 xor	 ecx, eax
  0000c	e8 00 00 00 00	 call	 @__security_check_cookie@4
  00011	b8 00 00 00 00	 mov	 eax, OFFSET __ehfuncinfo$_PMCCS_Clone_X@8
  00016	e9 00 00 00 00	 jmp	 ___CxxFrameHandler3
text$x	ENDS
_PMCCS_Clone_X@8 ENDP
; Function compile flags: /Ogtp
; File z:\sources\lunor\repos\rougemeilland\palmtree.math.core.uint\palmtree.math.core.uint\pmc_interface_csharp.cpp
; File z:\sources\lunor\repos\rougemeilland\palmtree.math.core.uint\palmtree.math.core.uint\pmc_exception.h
; File z:\sources\lunor\repos\rougemeilland\palmtree.math.core.uint\palmtree.math.core.uint\pmc_interface_csharp.cpp
;	COMDAT _PMCCS_ToByteArray@16
_TEXT	SEGMENT
_ex$2 = -20						; size = 4
__$EHRec$ = -16						; size = 16
_p$ = 8							; size = 4
_buffer$ = 12						; size = 4
_buffer_size$ = 16					; size = 4
$T3 = 20						; size = 4
_size$ = 20						; size = 4
_PMCCS_ToByteArray@16 PROC				; COMDAT

; 211  :     {

  00000	55		 push	 ebp
  00001	8b ec		 mov	 ebp, esp
  00003	6a ff		 push	 -1
  00005	68 00 00 00 00	 push	 __ehhandler$_PMCCS_ToByteArray@16
  0000a	64 a1 00 00 00
	00		 mov	 eax, DWORD PTR fs:0
  00010	50		 push	 eax
  00011	83 ec 08	 sub	 esp, 8
  00014	53		 push	 ebx
  00015	56		 push	 esi
  00016	57		 push	 edi
  00017	a1 00 00 00 00	 mov	 eax, DWORD PTR ___security_cookie
  0001c	33 c5		 xor	 eax, ebp
  0001e	50		 push	 eax
  0001f	8d 45 f4	 lea	 eax, DWORD PTR __$EHRec$[ebp+4]
  00022	64 a3 00 00 00
	00		 mov	 DWORD PTR fs:0, eax
  00028	89 65 f0	 mov	 DWORD PTR __$EHRec$[ebp], esp

; 212  :         if (size == nullptr)

  0002b	8b 75 14	 mov	 esi, DWORD PTR _size$[ebp]
  0002e	85 f6		 test	 esi, esi
  00030	75 17		 jne	 SHORT $LN2@PMCCS_ToBy

; 213  :             return (PMC_STATUS_ARGUMENT_NULL_ERROR);

  00032	8d 46 fe	 lea	 eax, DWORD PTR [esi-2]

; 225  :         }
; 226  :     }

  00035	8b 4d f4	 mov	 ecx, DWORD PTR __$EHRec$[ebp+4]
  00038	64 89 0d 00 00
	00 00		 mov	 DWORD PTR fs:0, ecx
  0003f	59		 pop	 ecx
  00040	5f		 pop	 edi
  00041	5e		 pop	 esi
  00042	5b		 pop	 ebx
  00043	8b e5		 mov	 esp, ebp
  00045	5d		 pop	 ebp
  00046	c2 10 00	 ret	 16			; 00000010H
$LN2@PMCCS_ToBy:

; 214  :         try

  00049	c7 45 fc 00 00
	00 00		 mov	 DWORD PTR __$EHRec$[ebp+12], 0

; 215  :         {
; 216  :             size_t r = PMC_ToByteArray(p, buffer, buffer_size);

  00050	ff 75 10	 push	 DWORD PTR _buffer_size$[ebp]
  00053	ff 75 0c	 push	 DWORD PTR _buffer$[ebp]
  00056	ff 75 08	 push	 DWORD PTR _p$[ebp]
  00059	e8 00 00 00 00	 call	 ?PMC_ToByteArray@Internal@Core@Math@Palmtree@@YGIPAU__tag_PMC_HANDLE_UINT@1234@PAEI@Z ; Palmtree::Math::Core::Internal::PMC_ToByteArray

; 217  :             if (r > 0x7fffffff)

  0005e	3d ff ff ff 7f	 cmp	 eax, 2147483647		; 7fffffffH
  00063	76 19		 jbe	 SHORT $LN4@PMCCS_ToBy

; 218  :                 return (PMC_STATUS_NOT_ENOUGH_MEMORY);

  00065	b8 f7 ff ff ff	 mov	 eax, -9			; fffffff7H

; 225  :         }
; 226  :     }

  0006a	8b 4d f4	 mov	 ecx, DWORD PTR __$EHRec$[ebp+4]
  0006d	64 89 0d 00 00
	00 00		 mov	 DWORD PTR fs:0, ecx
  00074	59		 pop	 ecx
  00075	5f		 pop	 edi
  00076	5e		 pop	 esi
  00077	5b		 pop	 ebx
  00078	8b e5		 mov	 esp, ebp
  0007a	5d		 pop	 ebp
  0007b	c2 10 00	 ret	 16			; 00000010H
$LN4@PMCCS_ToBy:

; 219  :             *size = (_INT32_T)r;

  0007e	89 06		 mov	 DWORD PTR [esi], eax

; 220  :             return (PMC_STATUS_OK);

  00080	33 c0		 xor	 eax, eax

; 225  :         }
; 226  :     }

  00082	8b 4d f4	 mov	 ecx, DWORD PTR __$EHRec$[ebp+4]
  00085	64 89 0d 00 00
	00 00		 mov	 DWORD PTR fs:0, ecx
  0008c	59		 pop	 ecx
  0008d	5f		 pop	 edi
  0008e	5e		 pop	 esi
  0008f	5b		 pop	 ebx
  00090	8b e5		 mov	 esp, ebp
  00092	5d		 pop	 ebp
  00093	c2 10 00	 ret	 16			; 00000010H
__catch$_PMCCS_ToByteArray@16$0:
; File z:\sources\lunor\repos\rougemeilland\palmtree.math.core.uint\palmtree.math.core.uint\pmc_exception.h

; 75   :             return (_code);

  00096	8b 45 ec	 mov	 eax, DWORD PTR _ex$2[ebp]
  00099	8b 40 0c	 mov	 eax, DWORD PTR [eax+12]
  0009c	89 45 14	 mov	 DWORD PTR $T3[ebp], eax
; File z:\sources\lunor\repos\rougemeilland\palmtree.math.core.uint\palmtree.math.core.uint\pmc_interface_csharp.cpp

; 224  :             return (ex.GetStatusCode());

  0009f	b8 00 00 00 00	 mov	 eax, $LN9@PMCCS_ToBy
  000a4	c3		 ret	 0
$LN9@PMCCS_ToBy:
; File z:\sources\lunor\repos\rougemeilland\palmtree.math.core.uint\palmtree.math.core.uint\pmc_exception.h
  000a5	c7 45 fc ff ff
	ff ff		 mov	 DWORD PTR __$EHRec$[ebp+12], -1
; File z:\sources\lunor\repos\rougemeilland\palmtree.math.core.uint\palmtree.math.core.uint\pmc_interface_csharp.cpp

; 224  :             return (ex.GetStatusCode());

  000ac	8b 45 14	 mov	 eax, DWORD PTR $T3[ebp]

; 225  :         }
; 226  :     }

  000af	8b 4d f4	 mov	 ecx, DWORD PTR __$EHRec$[ebp+4]
  000b2	64 89 0d 00 00
	00 00		 mov	 DWORD PTR fs:0, ecx
  000b9	59		 pop	 ecx
  000ba	5f		 pop	 edi
  000bb	5e		 pop	 esi
  000bc	5b		 pop	 ebx
  000bd	8b e5		 mov	 esp, ebp
  000bf	5d		 pop	 ebp
  000c0	c2 10 00	 ret	 16			; 00000010H
_TEXT	ENDS
;	COMDAT text$x
text$x	SEGMENT
__ehhandler$_PMCCS_ToByteArray@16:
  00000	8b 54 24 08	 mov	 edx, DWORD PTR [esp+8]
  00004	8d 42 0c	 lea	 eax, DWORD PTR [edx+12]
  00007	8b 4a e8	 mov	 ecx, DWORD PTR [edx-24]
  0000a	33 c8		 xor	 ecx, eax
  0000c	e8 00 00 00 00	 call	 @__security_check_cookie@4
  00011	b8 00 00 00 00	 mov	 eax, OFFSET __ehfuncinfo$_PMCCS_ToByteArray@16
  00016	e9 00 00 00 00	 jmp	 ___CxxFrameHandler3
text$x	ENDS
_PMCCS_ToByteArray@16 ENDP
; Function compile flags: /Ogtp
; File z:\sources\lunor\repos\rougemeilland\palmtree.math.core.uint\palmtree.math.core.uint\pmc_interface_csharp.cpp
; File z:\sources\lunor\repos\rougemeilland\palmtree.math.core.uint\palmtree.math.core.uint\pmc_exception.h
; File z:\sources\lunor\repos\rougemeilland\palmtree.math.core.uint\palmtree.math.core.uint\pmc_interface_csharp.cpp
;	COMDAT _PMCCS_FromByteArray@12
_TEXT	SEGMENT
_ex$2 = -20						; size = 4
__$EHRec$ = -16						; size = 16
_buffer$ = 8						; size = 4
_count$ = 12						; size = 4
$T3 = 16						; size = 4
_value$ = 16						; size = 4
_PMCCS_FromByteArray@12 PROC				; COMDAT

; 196  :     {

  00000	55		 push	 ebp
  00001	8b ec		 mov	 ebp, esp
  00003	6a ff		 push	 -1
  00005	68 00 00 00 00	 push	 __ehhandler$_PMCCS_FromByteArray@12
  0000a	64 a1 00 00 00
	00		 mov	 eax, DWORD PTR fs:0
  00010	50		 push	 eax
  00011	83 ec 08	 sub	 esp, 8
  00014	53		 push	 ebx
  00015	56		 push	 esi
  00016	57		 push	 edi
  00017	a1 00 00 00 00	 mov	 eax, DWORD PTR ___security_cookie
  0001c	33 c5		 xor	 eax, ebp
  0001e	50		 push	 eax
  0001f	8d 45 f4	 lea	 eax, DWORD PTR __$EHRec$[ebp+4]
  00022	64 a3 00 00 00
	00		 mov	 DWORD PTR fs:0, eax
  00028	89 65 f0	 mov	 DWORD PTR __$EHRec$[ebp], esp

; 197  :         if (value == nullptr)

  0002b	8b 75 10	 mov	 esi, DWORD PTR _value$[ebp]
  0002e	85 f6		 test	 esi, esi
  00030	75 17		 jne	 SHORT $LN2@PMCCS_From

; 198  :             return (PMC_STATUS_ARGUMENT_NULL_ERROR);

  00032	8d 46 fe	 lea	 eax, DWORD PTR [esi-2]

; 207  :         }
; 208  :     }

  00035	8b 4d f4	 mov	 ecx, DWORD PTR __$EHRec$[ebp+4]
  00038	64 89 0d 00 00
	00 00		 mov	 DWORD PTR fs:0, ecx
  0003f	59		 pop	 ecx
  00040	5f		 pop	 edi
  00041	5e		 pop	 esi
  00042	5b		 pop	 ebx
  00043	8b e5		 mov	 esp, ebp
  00045	5d		 pop	 ebp
  00046	c2 0c 00	 ret	 12			; 0000000cH
$LN2@PMCCS_From:

; 199  :         try

  00049	c7 45 fc 00 00
	00 00		 mov	 DWORD PTR __$EHRec$[ebp+12], 0

; 200  :         {
; 201  :             *value = PMC_FromByteArray(buffer, count);

  00050	ff 75 0c	 push	 DWORD PTR _count$[ebp]
  00053	ff 75 08	 push	 DWORD PTR _buffer$[ebp]
  00056	e8 00 00 00 00	 call	 ?PMC_FromByteArray@Internal@Core@Math@Palmtree@@YGPAU__tag_PMC_HANDLE_UINT@1234@PBEI@Z ; Palmtree::Math::Core::Internal::PMC_FromByteArray
  0005b	89 06		 mov	 DWORD PTR [esi], eax

; 202  :             return (PMC_STATUS_OK);

  0005d	33 c0		 xor	 eax, eax

; 207  :         }
; 208  :     }

  0005f	8b 4d f4	 mov	 ecx, DWORD PTR __$EHRec$[ebp+4]
  00062	64 89 0d 00 00
	00 00		 mov	 DWORD PTR fs:0, ecx
  00069	59		 pop	 ecx
  0006a	5f		 pop	 edi
  0006b	5e		 pop	 esi
  0006c	5b		 pop	 ebx
  0006d	8b e5		 mov	 esp, ebp
  0006f	5d		 pop	 ebp
  00070	c2 0c 00	 ret	 12			; 0000000cH
__catch$_PMCCS_FromByteArray@12$0:
; File z:\sources\lunor\repos\rougemeilland\palmtree.math.core.uint\palmtree.math.core.uint\pmc_exception.h

; 75   :             return (_code);

  00073	8b 45 ec	 mov	 eax, DWORD PTR _ex$2[ebp]
  00076	8b 40 0c	 mov	 eax, DWORD PTR [eax+12]
  00079	89 45 10	 mov	 DWORD PTR $T3[ebp], eax
; File z:\sources\lunor\repos\rougemeilland\palmtree.math.core.uint\palmtree.math.core.uint\pmc_interface_csharp.cpp

; 206  :             return (ex.GetStatusCode());

  0007c	b8 00 00 00 00	 mov	 eax, $LN8@PMCCS_From
  00081	c3		 ret	 0
$LN8@PMCCS_From:
; File z:\sources\lunor\repos\rougemeilland\palmtree.math.core.uint\palmtree.math.core.uint\pmc_exception.h
  00082	c7 45 fc ff ff
	ff ff		 mov	 DWORD PTR __$EHRec$[ebp+12], -1
; File z:\sources\lunor\repos\rougemeilland\palmtree.math.core.uint\palmtree.math.core.uint\pmc_interface_csharp.cpp

; 206  :             return (ex.GetStatusCode());

  00089	8b 45 10	 mov	 eax, DWORD PTR $T3[ebp]

; 207  :         }
; 208  :     }

  0008c	8b 4d f4	 mov	 ecx, DWORD PTR __$EHRec$[ebp+4]
  0008f	64 89 0d 00 00
	00 00		 mov	 DWORD PTR fs:0, ecx
  00096	59		 pop	 ecx
  00097	5f		 pop	 edi
  00098	5e		 pop	 esi
  00099	5b		 pop	 ebx
  0009a	8b e5		 mov	 esp, ebp
  0009c	5d		 pop	 ebp
  0009d	c2 0c 00	 ret	 12			; 0000000cH
_TEXT	ENDS
;	COMDAT text$x
text$x	SEGMENT
__ehhandler$_PMCCS_FromByteArray@12:
  00000	8b 54 24 08	 mov	 edx, DWORD PTR [esp+8]
  00004	8d 42 0c	 lea	 eax, DWORD PTR [edx+12]
  00007	8b 4a e8	 mov	 ecx, DWORD PTR [edx-24]
  0000a	33 c8		 xor	 ecx, eax
  0000c	e8 00 00 00 00	 call	 @__security_check_cookie@4
  00011	b8 00 00 00 00	 mov	 eax, OFFSET __ehfuncinfo$_PMCCS_FromByteArray@12
  00016	e9 00 00 00 00	 jmp	 ___CxxFrameHandler3
text$x	ENDS
_PMCCS_FromByteArray@12 ENDP
; Function compile flags: /Ogtp
; File z:\sources\lunor\repos\rougemeilland\palmtree.math.core.uint\palmtree.math.core.uint\pmc_interface_csharp.cpp
; File z:\sources\lunor\repos\rougemeilland\palmtree.math.core.uint\palmtree.math.core.uint\pmc_exception.h
; File z:\sources\lunor\repos\rougemeilland\palmtree.math.core.uint\palmtree.math.core.uint\pmc_interface_csharp.cpp
;	COMDAT _PMCCS_GetConstantValue_I@8
_TEXT	SEGMENT
_ex$2 = -20						; size = 4
__$EHRec$ = -16						; size = 16
_type$ = 8						; size = 4
$T3 = 12						; size = 4
_value$ = 12						; size = 4
_PMCCS_GetConstantValue_I@8 PROC			; COMDAT

; 181  :     {

  00000	55		 push	 ebp
  00001	8b ec		 mov	 ebp, esp
  00003	6a ff		 push	 -1
  00005	68 00 00 00 00	 push	 __ehhandler$_PMCCS_GetConstantValue_I@8
  0000a	64 a1 00 00 00
	00		 mov	 eax, DWORD PTR fs:0
  00010	50		 push	 eax
  00011	83 ec 08	 sub	 esp, 8
  00014	53		 push	 ebx
  00015	56		 push	 esi
  00016	57		 push	 edi
  00017	a1 00 00 00 00	 mov	 eax, DWORD PTR ___security_cookie
  0001c	33 c5		 xor	 eax, ebp
  0001e	50		 push	 eax
  0001f	8d 45 f4	 lea	 eax, DWORD PTR __$EHRec$[ebp+4]
  00022	64 a3 00 00 00
	00		 mov	 DWORD PTR fs:0, eax
  00028	89 65 f0	 mov	 DWORD PTR __$EHRec$[ebp], esp

; 182  :         if (value == nullptr)

  0002b	8b 75 0c	 mov	 esi, DWORD PTR _value$[ebp]
  0002e	85 f6		 test	 esi, esi
  00030	75 17		 jne	 SHORT $LN2@PMCCS_GetC

; 183  :             return (PMC_STATUS_ARGUMENT_NULL_ERROR);

  00032	8d 46 fe	 lea	 eax, DWORD PTR [esi-2]

; 192  :         }
; 193  :     }

  00035	8b 4d f4	 mov	 ecx, DWORD PTR __$EHRec$[ebp+4]
  00038	64 89 0d 00 00
	00 00		 mov	 DWORD PTR fs:0, ecx
  0003f	59		 pop	 ecx
  00040	5f		 pop	 edi
  00041	5e		 pop	 esi
  00042	5b		 pop	 ebx
  00043	8b e5		 mov	 esp, ebp
  00045	5d		 pop	 ebp
  00046	c2 08 00	 ret	 8
$LN2@PMCCS_GetC:

; 184  :         try

  00049	c7 45 fc 00 00
	00 00		 mov	 DWORD PTR __$EHRec$[ebp+12], 0

; 185  :         {
; 186  :             *value = PMC_GetConstantValue_I(type);

  00050	ff 75 08	 push	 DWORD PTR _type$[ebp]
  00053	e8 00 00 00 00	 call	 ?PMC_GetConstantValue_I@Internal@Core@Math@Palmtree@@YGPAU__tag_PMC_HANDLE_UINT@1234@H@Z ; Palmtree::Math::Core::Internal::PMC_GetConstantValue_I
  00058	89 06		 mov	 DWORD PTR [esi], eax

; 187  :             return (PMC_STATUS_OK);

  0005a	33 c0		 xor	 eax, eax

; 192  :         }
; 193  :     }

  0005c	8b 4d f4	 mov	 ecx, DWORD PTR __$EHRec$[ebp+4]
  0005f	64 89 0d 00 00
	00 00		 mov	 DWORD PTR fs:0, ecx
  00066	59		 pop	 ecx
  00067	5f		 pop	 edi
  00068	5e		 pop	 esi
  00069	5b		 pop	 ebx
  0006a	8b e5		 mov	 esp, ebp
  0006c	5d		 pop	 ebp
  0006d	c2 08 00	 ret	 8
__catch$_PMCCS_GetConstantValue_I@8$0:
; File z:\sources\lunor\repos\rougemeilland\palmtree.math.core.uint\palmtree.math.core.uint\pmc_exception.h

; 75   :             return (_code);

  00070	8b 45 ec	 mov	 eax, DWORD PTR _ex$2[ebp]
  00073	8b 40 0c	 mov	 eax, DWORD PTR [eax+12]
  00076	89 45 0c	 mov	 DWORD PTR $T3[ebp], eax
; File z:\sources\lunor\repos\rougemeilland\palmtree.math.core.uint\palmtree.math.core.uint\pmc_interface_csharp.cpp

; 191  :             return (ex.GetStatusCode());

  00079	b8 00 00 00 00	 mov	 eax, $LN8@PMCCS_GetC
  0007e	c3		 ret	 0
$LN8@PMCCS_GetC:
; File z:\sources\lunor\repos\rougemeilland\palmtree.math.core.uint\palmtree.math.core.uint\pmc_exception.h
  0007f	c7 45 fc ff ff
	ff ff		 mov	 DWORD PTR __$EHRec$[ebp+12], -1
; File z:\sources\lunor\repos\rougemeilland\palmtree.math.core.uint\palmtree.math.core.uint\pmc_interface_csharp.cpp

; 191  :             return (ex.GetStatusCode());

  00086	8b 45 0c	 mov	 eax, DWORD PTR $T3[ebp]

; 192  :         }
; 193  :     }

  00089	8b 4d f4	 mov	 ecx, DWORD PTR __$EHRec$[ebp+4]
  0008c	64 89 0d 00 00
	00 00		 mov	 DWORD PTR fs:0, ecx
  00093	59		 pop	 ecx
  00094	5f		 pop	 edi
  00095	5e		 pop	 esi
  00096	5b		 pop	 ebx
  00097	8b e5		 mov	 esp, ebp
  00099	5d		 pop	 ebp
  0009a	c2 08 00	 ret	 8
_TEXT	ENDS
;	COMDAT text$x
text$x	SEGMENT
__ehhandler$_PMCCS_GetConstantValue_I@8:
  00000	8b 54 24 08	 mov	 edx, DWORD PTR [esp+8]
  00004	8d 42 0c	 lea	 eax, DWORD PTR [edx+12]
  00007	8b 4a e8	 mov	 ecx, DWORD PTR [edx-24]
  0000a	33 c8		 xor	 ecx, eax
  0000c	e8 00 00 00 00	 call	 @__security_check_cookie@4
  00011	b8 00 00 00 00	 mov	 eax, OFFSET __ehfuncinfo$_PMCCS_GetConstantValue_I@8
  00016	e9 00 00 00 00	 jmp	 ___CxxFrameHandler3
text$x	ENDS
_PMCCS_GetConstantValue_I@8 ENDP
; Function compile flags: /Ogtp
; File z:\sources\lunor\repos\rougemeilland\palmtree.math.core.uint\palmtree.math.core.uint\pmc_interface_csharp.cpp
; File z:\sources\lunor\repos\rougemeilland\palmtree.math.core.uint\palmtree.math.core.uint\pmc_exception.h
; File z:\sources\lunor\repos\rougemeilland\palmtree.math.core.uint\palmtree.math.core.uint\pmc_interface_csharp.cpp
;	COMDAT _PMCCS_Dispose@4
_TEXT	SEGMENT
_ex$2 = -20						; size = 4
__$EHRec$ = -16						; size = 16
$T3 = 8							; size = 4
_p$ = 8							; size = 4
_PMCCS_Dispose@4 PROC					; COMDAT

; 166  :     {

  00000	55		 push	 ebp
  00001	8b ec		 mov	 ebp, esp
  00003	6a ff		 push	 -1
  00005	68 00 00 00 00	 push	 __ehhandler$_PMCCS_Dispose@4
  0000a	64 a1 00 00 00
	00		 mov	 eax, DWORD PTR fs:0
  00010	50		 push	 eax
  00011	83 ec 08	 sub	 esp, 8
  00014	53		 push	 ebx
  00015	56		 push	 esi
  00016	57		 push	 edi
  00017	a1 00 00 00 00	 mov	 eax, DWORD PTR ___security_cookie
  0001c	33 c5		 xor	 eax, ebp
  0001e	50		 push	 eax
  0001f	8d 45 f4	 lea	 eax, DWORD PTR __$EHRec$[ebp+4]
  00022	64 a3 00 00 00
	00		 mov	 DWORD PTR fs:0, eax
  00028	89 65 f0	 mov	 DWORD PTR __$EHRec$[ebp], esp

; 167  :         if (p == nullptr)

  0002b	8b 45 08	 mov	 eax, DWORD PTR _p$[ebp]
  0002e	85 c0		 test	 eax, eax
  00030	75 19		 jne	 SHORT $LN2@PMCCS_Disp

; 168  :             return (PMC_STATUS_ARGUMENT_NULL_ERROR);

  00032	b8 fe ff ff ff	 mov	 eax, -2			; fffffffeH

; 177  :         }
; 178  :     }

  00037	8b 4d f4	 mov	 ecx, DWORD PTR __$EHRec$[ebp+4]
  0003a	64 89 0d 00 00
	00 00		 mov	 DWORD PTR fs:0, ecx
  00041	59		 pop	 ecx
  00042	5f		 pop	 edi
  00043	5e		 pop	 esi
  00044	5b		 pop	 ebx
  00045	8b e5		 mov	 esp, ebp
  00047	5d		 pop	 ebp
  00048	c2 04 00	 ret	 4
$LN2@PMCCS_Disp:

; 169  :         try

  0004b	c7 45 fc 00 00
	00 00		 mov	 DWORD PTR __$EHRec$[ebp+12], 0

; 170  :         {
; 171  :             PMC_Dispose(p);

  00052	50		 push	 eax
  00053	e8 00 00 00 00	 call	 ?PMC_Dispose@Internal@Core@Math@Palmtree@@YGXPAU__tag_PMC_HANDLE_UINT@1234@@Z ; Palmtree::Math::Core::Internal::PMC_Dispose

; 172  :             return (PMC_STATUS_OK);

  00058	33 c0		 xor	 eax, eax

; 177  :         }
; 178  :     }

  0005a	8b 4d f4	 mov	 ecx, DWORD PTR __$EHRec$[ebp+4]
  0005d	64 89 0d 00 00
	00 00		 mov	 DWORD PTR fs:0, ecx
  00064	59		 pop	 ecx
  00065	5f		 pop	 edi
  00066	5e		 pop	 esi
  00067	5b		 pop	 ebx
  00068	8b e5		 mov	 esp, ebp
  0006a	5d		 pop	 ebp
  0006b	c2 04 00	 ret	 4
__catch$_PMCCS_Dispose@4$0:
; File z:\sources\lunor\repos\rougemeilland\palmtree.math.core.uint\palmtree.math.core.uint\pmc_exception.h

; 75   :             return (_code);

  0006e	8b 45 ec	 mov	 eax, DWORD PTR _ex$2[ebp]
  00071	8b 40 0c	 mov	 eax, DWORD PTR [eax+12]
  00074	89 45 08	 mov	 DWORD PTR $T3[ebp], eax
; File z:\sources\lunor\repos\rougemeilland\palmtree.math.core.uint\palmtree.math.core.uint\pmc_interface_csharp.cpp

; 176  :             return (ex.GetStatusCode());

  00077	b8 00 00 00 00	 mov	 eax, $LN8@PMCCS_Disp
  0007c	c3		 ret	 0
$LN8@PMCCS_Disp:
; File z:\sources\lunor\repos\rougemeilland\palmtree.math.core.uint\palmtree.math.core.uint\pmc_exception.h
  0007d	c7 45 fc ff ff
	ff ff		 mov	 DWORD PTR __$EHRec$[ebp+12], -1
; File z:\sources\lunor\repos\rougemeilland\palmtree.math.core.uint\palmtree.math.core.uint\pmc_interface_csharp.cpp

; 176  :             return (ex.GetStatusCode());

  00084	8b 45 08	 mov	 eax, DWORD PTR $T3[ebp]

; 177  :         }
; 178  :     }

  00087	8b 4d f4	 mov	 ecx, DWORD PTR __$EHRec$[ebp+4]
  0008a	64 89 0d 00 00
	00 00		 mov	 DWORD PTR fs:0, ecx
  00091	59		 pop	 ecx
  00092	5f		 pop	 edi
  00093	5e		 pop	 esi
  00094	5b		 pop	 ebx
  00095	8b e5		 mov	 esp, ebp
  00097	5d		 pop	 ebp
  00098	c2 04 00	 ret	 4
_TEXT	ENDS
;	COMDAT text$x
text$x	SEGMENT
__ehhandler$_PMCCS_Dispose@4:
  00000	8b 54 24 08	 mov	 edx, DWORD PTR [esp+8]
  00004	8d 42 0c	 lea	 eax, DWORD PTR [edx+12]
  00007	8b 4a e8	 mov	 ecx, DWORD PTR [edx-24]
  0000a	33 c8		 xor	 ecx, eax
  0000c	e8 00 00 00 00	 call	 @__security_check_cookie@4
  00011	b8 00 00 00 00	 mov	 eax, OFFSET __ehfuncinfo$_PMCCS_Dispose@4
  00016	e9 00 00 00 00	 jmp	 ___CxxFrameHandler3
text$x	ENDS
_PMCCS_Dispose@4 ENDP
; Function compile flags: /Ogtp
; File z:\sources\lunor\repos\rougemeilland\palmtree.math.core.uint\palmtree.math.core.uint\pmc_interface_csharp.cpp
; File z:\sources\lunor\repos\rougemeilland\palmtree.math.core.uint\palmtree.math.core.uint\pmc_exception.h
; File z:\sources\lunor\repos\rougemeilland\palmtree.math.core.uint\palmtree.math.core.uint\pmc_interface_csharp.cpp
;	COMDAT _PMCCS_From_L@12
_TEXT	SEGMENT
_ex$2 = -20						; size = 4
__$EHRec$ = -16						; size = 16
_x$ = 8							; size = 8
$T3 = 16						; size = 4
_o$ = 16						; size = 4
_PMCCS_From_L@12 PROC					; COMDAT

; 151  :     {

  00000	55		 push	 ebp
  00001	8b ec		 mov	 ebp, esp
  00003	6a ff		 push	 -1
  00005	68 00 00 00 00	 push	 __ehhandler$_PMCCS_From_L@12
  0000a	64 a1 00 00 00
	00		 mov	 eax, DWORD PTR fs:0
  00010	50		 push	 eax
  00011	83 ec 08	 sub	 esp, 8
  00014	53		 push	 ebx
  00015	56		 push	 esi
  00016	57		 push	 edi
  00017	a1 00 00 00 00	 mov	 eax, DWORD PTR ___security_cookie
  0001c	33 c5		 xor	 eax, ebp
  0001e	50		 push	 eax
  0001f	8d 45 f4	 lea	 eax, DWORD PTR __$EHRec$[ebp+4]
  00022	64 a3 00 00 00
	00		 mov	 DWORD PTR fs:0, eax
  00028	89 65 f0	 mov	 DWORD PTR __$EHRec$[ebp], esp

; 152  :         if (o == nullptr)

  0002b	8b 75 10	 mov	 esi, DWORD PTR _o$[ebp]
  0002e	85 f6		 test	 esi, esi
  00030	75 17		 jne	 SHORT $LN2@PMCCS_From

; 153  :             return (PMC_STATUS_ARGUMENT_NULL_ERROR);

  00032	8d 46 fe	 lea	 eax, DWORD PTR [esi-2]

; 162  :         }
; 163  :     }

  00035	8b 4d f4	 mov	 ecx, DWORD PTR __$EHRec$[ebp+4]
  00038	64 89 0d 00 00
	00 00		 mov	 DWORD PTR fs:0, ecx
  0003f	59		 pop	 ecx
  00040	5f		 pop	 edi
  00041	5e		 pop	 esi
  00042	5b		 pop	 ebx
  00043	8b e5		 mov	 esp, ebp
  00045	5d		 pop	 ebp
  00046	c2 0c 00	 ret	 12			; 0000000cH
$LN2@PMCCS_From:

; 154  :         try

  00049	c7 45 fc 00 00
	00 00		 mov	 DWORD PTR __$EHRec$[ebp+12], 0

; 155  :         {
; 156  :             *o = PMC_From_L(x);

  00050	ff 75 0c	 push	 DWORD PTR _x$[ebp+4]
  00053	ff 75 08	 push	 DWORD PTR _x$[ebp]
  00056	e8 00 00 00 00	 call	 ?PMC_From_L@Internal@Core@Math@Palmtree@@YGPAU__tag_PMC_HANDLE_UINT@1234@_K@Z ; Palmtree::Math::Core::Internal::PMC_From_L
  0005b	89 06		 mov	 DWORD PTR [esi], eax

; 157  :             return (PMC_STATUS_OK);

  0005d	33 c0		 xor	 eax, eax

; 162  :         }
; 163  :     }

  0005f	8b 4d f4	 mov	 ecx, DWORD PTR __$EHRec$[ebp+4]
  00062	64 89 0d 00 00
	00 00		 mov	 DWORD PTR fs:0, ecx
  00069	59		 pop	 ecx
  0006a	5f		 pop	 edi
  0006b	5e		 pop	 esi
  0006c	5b		 pop	 ebx
  0006d	8b e5		 mov	 esp, ebp
  0006f	5d		 pop	 ebp
  00070	c2 0c 00	 ret	 12			; 0000000cH
__catch$_PMCCS_From_L@12$0:
; File z:\sources\lunor\repos\rougemeilland\palmtree.math.core.uint\palmtree.math.core.uint\pmc_exception.h

; 75   :             return (_code);

  00073	8b 45 ec	 mov	 eax, DWORD PTR _ex$2[ebp]
  00076	8b 40 0c	 mov	 eax, DWORD PTR [eax+12]
  00079	89 45 10	 mov	 DWORD PTR $T3[ebp], eax
; File z:\sources\lunor\repos\rougemeilland\palmtree.math.core.uint\palmtree.math.core.uint\pmc_interface_csharp.cpp

; 161  :             return (ex.GetStatusCode());

  0007c	b8 00 00 00 00	 mov	 eax, $LN8@PMCCS_From
  00081	c3		 ret	 0
$LN8@PMCCS_From:
; File z:\sources\lunor\repos\rougemeilland\palmtree.math.core.uint\palmtree.math.core.uint\pmc_exception.h
  00082	c7 45 fc ff ff
	ff ff		 mov	 DWORD PTR __$EHRec$[ebp+12], -1
; File z:\sources\lunor\repos\rougemeilland\palmtree.math.core.uint\palmtree.math.core.uint\pmc_interface_csharp.cpp

; 161  :             return (ex.GetStatusCode());

  00089	8b 45 10	 mov	 eax, DWORD PTR $T3[ebp]

; 162  :         }
; 163  :     }

  0008c	8b 4d f4	 mov	 ecx, DWORD PTR __$EHRec$[ebp+4]
  0008f	64 89 0d 00 00
	00 00		 mov	 DWORD PTR fs:0, ecx
  00096	59		 pop	 ecx
  00097	5f		 pop	 edi
  00098	5e		 pop	 esi
  00099	5b		 pop	 ebx
  0009a	8b e5		 mov	 esp, ebp
  0009c	5d		 pop	 ebp
  0009d	c2 0c 00	 ret	 12			; 0000000cH
_TEXT	ENDS
;	COMDAT text$x
text$x	SEGMENT
__ehhandler$_PMCCS_From_L@12:
  00000	8b 54 24 08	 mov	 edx, DWORD PTR [esp+8]
  00004	8d 42 0c	 lea	 eax, DWORD PTR [edx+12]
  00007	8b 4a e8	 mov	 ecx, DWORD PTR [edx-24]
  0000a	33 c8		 xor	 ecx, eax
  0000c	e8 00 00 00 00	 call	 @__security_check_cookie@4
  00011	b8 00 00 00 00	 mov	 eax, OFFSET __ehfuncinfo$_PMCCS_From_L@12
  00016	e9 00 00 00 00	 jmp	 ___CxxFrameHandler3
text$x	ENDS
_PMCCS_From_L@12 ENDP
; Function compile flags: /Ogtp
; File z:\sources\lunor\repos\rougemeilland\palmtree.math.core.uint\palmtree.math.core.uint\pmc_interface_csharp.cpp
; File z:\sources\lunor\repos\rougemeilland\palmtree.math.core.uint\palmtree.math.core.uint\pmc_exception.h
; File z:\sources\lunor\repos\rougemeilland\palmtree.math.core.uint\palmtree.math.core.uint\pmc_interface_csharp.cpp
;	COMDAT _PMCCS_From_I@8
_TEXT	SEGMENT
_ex$2 = -20						; size = 4
__$EHRec$ = -16						; size = 16
_x$ = 8							; size = 4
$T3 = 12						; size = 4
_o$ = 12						; size = 4
_PMCCS_From_I@8 PROC					; COMDAT

; 136  :     {

  00000	55		 push	 ebp
  00001	8b ec		 mov	 ebp, esp
  00003	6a ff		 push	 -1
  00005	68 00 00 00 00	 push	 __ehhandler$_PMCCS_From_I@8
  0000a	64 a1 00 00 00
	00		 mov	 eax, DWORD PTR fs:0
  00010	50		 push	 eax
  00011	83 ec 08	 sub	 esp, 8
  00014	53		 push	 ebx
  00015	56		 push	 esi
  00016	57		 push	 edi
  00017	a1 00 00 00 00	 mov	 eax, DWORD PTR ___security_cookie
  0001c	33 c5		 xor	 eax, ebp
  0001e	50		 push	 eax
  0001f	8d 45 f4	 lea	 eax, DWORD PTR __$EHRec$[ebp+4]
  00022	64 a3 00 00 00
	00		 mov	 DWORD PTR fs:0, eax
  00028	89 65 f0	 mov	 DWORD PTR __$EHRec$[ebp], esp

; 137  :         if (o == nullptr)

  0002b	8b 75 0c	 mov	 esi, DWORD PTR _o$[ebp]
  0002e	85 f6		 test	 esi, esi
  00030	75 17		 jne	 SHORT $LN2@PMCCS_From

; 138  :             return (PMC_STATUS_ARGUMENT_NULL_ERROR);

  00032	8d 46 fe	 lea	 eax, DWORD PTR [esi-2]

; 147  :         }
; 148  :     }

  00035	8b 4d f4	 mov	 ecx, DWORD PTR __$EHRec$[ebp+4]
  00038	64 89 0d 00 00
	00 00		 mov	 DWORD PTR fs:0, ecx
  0003f	59		 pop	 ecx
  00040	5f		 pop	 edi
  00041	5e		 pop	 esi
  00042	5b		 pop	 ebx
  00043	8b e5		 mov	 esp, ebp
  00045	5d		 pop	 ebp
  00046	c2 08 00	 ret	 8
$LN2@PMCCS_From:

; 139  :         try

  00049	c7 45 fc 00 00
	00 00		 mov	 DWORD PTR __$EHRec$[ebp+12], 0

; 140  :         {
; 141  :             *o = PMC_From_I(x);

  00050	ff 75 08	 push	 DWORD PTR _x$[ebp]
  00053	e8 00 00 00 00	 call	 ?PMC_From_I@Internal@Core@Math@Palmtree@@YGPAU__tag_PMC_HANDLE_UINT@1234@I@Z ; Palmtree::Math::Core::Internal::PMC_From_I
  00058	89 06		 mov	 DWORD PTR [esi], eax

; 142  :             return (PMC_STATUS_OK);

  0005a	33 c0		 xor	 eax, eax

; 147  :         }
; 148  :     }

  0005c	8b 4d f4	 mov	 ecx, DWORD PTR __$EHRec$[ebp+4]
  0005f	64 89 0d 00 00
	00 00		 mov	 DWORD PTR fs:0, ecx
  00066	59		 pop	 ecx
  00067	5f		 pop	 edi
  00068	5e		 pop	 esi
  00069	5b		 pop	 ebx
  0006a	8b e5		 mov	 esp, ebp
  0006c	5d		 pop	 ebp
  0006d	c2 08 00	 ret	 8
__catch$_PMCCS_From_I@8$0:
; File z:\sources\lunor\repos\rougemeilland\palmtree.math.core.uint\palmtree.math.core.uint\pmc_exception.h

; 75   :             return (_code);

  00070	8b 45 ec	 mov	 eax, DWORD PTR _ex$2[ebp]
  00073	8b 40 0c	 mov	 eax, DWORD PTR [eax+12]
  00076	89 45 0c	 mov	 DWORD PTR $T3[ebp], eax
; File z:\sources\lunor\repos\rougemeilland\palmtree.math.core.uint\palmtree.math.core.uint\pmc_interface_csharp.cpp

; 146  :             return (ex.GetStatusCode());

  00079	b8 00 00 00 00	 mov	 eax, $LN8@PMCCS_From
  0007e	c3		 ret	 0
$LN8@PMCCS_From:
; File z:\sources\lunor\repos\rougemeilland\palmtree.math.core.uint\palmtree.math.core.uint\pmc_exception.h
  0007f	c7 45 fc ff ff
	ff ff		 mov	 DWORD PTR __$EHRec$[ebp+12], -1
; File z:\sources\lunor\repos\rougemeilland\palmtree.math.core.uint\palmtree.math.core.uint\pmc_interface_csharp.cpp

; 146  :             return (ex.GetStatusCode());

  00086	8b 45 0c	 mov	 eax, DWORD PTR $T3[ebp]

; 147  :         }
; 148  :     }

  00089	8b 4d f4	 mov	 ecx, DWORD PTR __$EHRec$[ebp+4]
  0008c	64 89 0d 00 00
	00 00		 mov	 DWORD PTR fs:0, ecx
  00093	59		 pop	 ecx
  00094	5f		 pop	 edi
  00095	5e		 pop	 esi
  00096	5b		 pop	 ebx
  00097	8b e5		 mov	 esp, ebp
  00099	5d		 pop	 ebp
  0009a	c2 08 00	 ret	 8
_TEXT	ENDS
;	COMDAT text$x
text$x	SEGMENT
__ehhandler$_PMCCS_From_I@8:
  00000	8b 54 24 08	 mov	 edx, DWORD PTR [esp+8]
  00004	8d 42 0c	 lea	 eax, DWORD PTR [edx+12]
  00007	8b 4a e8	 mov	 ecx, DWORD PTR [edx-24]
  0000a	33 c8		 xor	 ecx, eax
  0000c	e8 00 00 00 00	 call	 @__security_check_cookie@4
  00011	b8 00 00 00 00	 mov	 eax, OFFSET __ehfuncinfo$_PMCCS_From_I@8
  00016	e9 00 00 00 00	 jmp	 ___CxxFrameHandler3
text$x	ENDS
_PMCCS_From_I@8 ENDP
; Function compile flags: /Ogtp
; File z:\sources\lunor\repos\rougemeilland\palmtree.math.core.uint\palmtree.math.core.uint\pmc_interface_csharp.cpp
;	COMDAT _PMCCS_GetStatisticsInfo@4
_TEXT	SEGMENT
_p$ = 8							; size = 4
_PMCCS_GetStatisticsInfo@4 PROC				; COMDAT

; 132  :         PMC_GetStatisticsInfo(p);

  00000	e9 00 00 00 00	 jmp	 ?PMC_GetStatisticsInfo@Internal@Core@Math@Palmtree@@YGXPAU__tag_PMC_STATISTICS_INFO@1234@@Z ; Palmtree::Math::Core::Internal::PMC_GetStatisticsInfo
_PMCCS_GetStatisticsInfo@4 ENDP
_TEXT	ENDS
; Function compile flags: /Ogtp
; File z:\sources\lunor\repos\rougemeilland\palmtree.math.core.uint\palmtree.math.core.uint\pmc_interface_csharp.cpp
; File z:\sources\lunor\repos\rougemeilland\palmtree.math.core.uint\palmtree.math.core.uint\pmc_exception.h
; File z:\sources\lunor\repos\rougemeilland\palmtree.math.core.uint\palmtree.math.core.uint\pmc_interface_csharp.cpp
;	COMDAT _PMCCS_GET_HASH_CODE@8
_TEXT	SEGMENT
_ex$2 = -20						; size = 4
__$EHRec$ = -16						; size = 16
$T3 = 8							; size = 4
_p$ = 8							; size = 4
_r$ = 12						; size = 4
_PMCCS_GET_HASH_CODE@8 PROC				; COMDAT

; 114  :     {

  00000	55		 push	 ebp
  00001	8b ec		 mov	 ebp, esp
  00003	6a ff		 push	 -1
  00005	68 00 00 00 00	 push	 __ehhandler$_PMCCS_GET_HASH_CODE@8
  0000a	64 a1 00 00 00
	00		 mov	 eax, DWORD PTR fs:0
  00010	50		 push	 eax
  00011	83 ec 08	 sub	 esp, 8
  00014	53		 push	 ebx
  00015	56		 push	 esi
  00016	57		 push	 edi
  00017	a1 00 00 00 00	 mov	 eax, DWORD PTR ___security_cookie
  0001c	33 c5		 xor	 eax, ebp
  0001e	50		 push	 eax
  0001f	8d 45 f4	 lea	 eax, DWORD PTR __$EHRec$[ebp+4]
  00022	64 a3 00 00 00
	00		 mov	 DWORD PTR fs:0, eax
  00028	89 65 f0	 mov	 DWORD PTR __$EHRec$[ebp], esp

; 115  :         if (p == nullptr)

  0002b	8b 45 08	 mov	 eax, DWORD PTR _p$[ebp]
  0002e	85 c0		 test	 eax, eax
  00030	75 19		 jne	 SHORT $LN2@PMCCS_GET_
$LN13@PMCCS_GET_:

; 127  :         }
; 128  :     }

  00032	b8 fe ff ff ff	 mov	 eax, -2			; fffffffeH
  00037	8b 4d f4	 mov	 ecx, DWORD PTR __$EHRec$[ebp+4]
  0003a	64 89 0d 00 00
	00 00		 mov	 DWORD PTR fs:0, ecx
  00041	59		 pop	 ecx
  00042	5f		 pop	 edi
  00043	5e		 pop	 esi
  00044	5b		 pop	 ebx
  00045	8b e5		 mov	 esp, ebp
  00047	5d		 pop	 ebp
  00048	c2 08 00	 ret	 8
$LN2@PMCCS_GET_:

; 116  :             return (PMC_STATUS_ARGUMENT_NULL_ERROR);
; 117  :         if (r == nullptr)

  0004b	8b 4d 0c	 mov	 ecx, DWORD PTR _r$[ebp]
  0004e	85 c9		 test	 ecx, ecx
  00050	74 e0		 je	 SHORT $LN13@PMCCS_GET_

; 118  :             return (PMC_STATUS_ARGUMENT_NULL_ERROR);
; 119  :         try

  00052	c7 45 fc 00 00
	00 00		 mov	 DWORD PTR __$EHRec$[ebp+12], 0

; 120  :         {
; 121  :             *r = (_INT32_T)p->HASH_CODE;

  00059	8b 00		 mov	 eax, DWORD PTR [eax]
  0005b	89 01		 mov	 DWORD PTR [ecx], eax

; 122  :             return (PMC_STATUS_OK);

  0005d	33 c0		 xor	 eax, eax

; 127  :         }
; 128  :     }

  0005f	8b 4d f4	 mov	 ecx, DWORD PTR __$EHRec$[ebp+4]
  00062	64 89 0d 00 00
	00 00		 mov	 DWORD PTR fs:0, ecx
  00069	59		 pop	 ecx
  0006a	5f		 pop	 edi
  0006b	5e		 pop	 esi
  0006c	5b		 pop	 ebx
  0006d	8b e5		 mov	 esp, ebp
  0006f	5d		 pop	 ebp
  00070	c2 08 00	 ret	 8
__catch$_PMCCS_GET_HASH_CODE@8$0:
; File z:\sources\lunor\repos\rougemeilland\palmtree.math.core.uint\palmtree.math.core.uint\pmc_exception.h

; 75   :             return (_code);

  00073	8b 45 ec	 mov	 eax, DWORD PTR _ex$2[ebp]
  00076	8b 40 0c	 mov	 eax, DWORD PTR [eax+12]
  00079	89 45 08	 mov	 DWORD PTR $T3[ebp], eax
; File z:\sources\lunor\repos\rougemeilland\palmtree.math.core.uint\palmtree.math.core.uint\pmc_interface_csharp.cpp

; 126  :             return (ex.GetStatusCode());

  0007c	b8 00 00 00 00	 mov	 eax, $LN9@PMCCS_GET_
  00081	c3		 ret	 0
$LN9@PMCCS_GET_:
; File z:\sources\lunor\repos\rougemeilland\palmtree.math.core.uint\palmtree.math.core.uint\pmc_exception.h
  00082	c7 45 fc ff ff
	ff ff		 mov	 DWORD PTR __$EHRec$[ebp+12], -1
; File z:\sources\lunor\repos\rougemeilland\palmtree.math.core.uint\palmtree.math.core.uint\pmc_interface_csharp.cpp

; 126  :             return (ex.GetStatusCode());

  00089	8b 45 08	 mov	 eax, DWORD PTR $T3[ebp]

; 127  :         }
; 128  :     }

  0008c	8b 4d f4	 mov	 ecx, DWORD PTR __$EHRec$[ebp+4]
  0008f	64 89 0d 00 00
	00 00		 mov	 DWORD PTR fs:0, ecx
  00096	59		 pop	 ecx
  00097	5f		 pop	 edi
  00098	5e		 pop	 esi
  00099	5b		 pop	 ebx
  0009a	8b e5		 mov	 esp, ebp
  0009c	5d		 pop	 ebp
  0009d	c2 08 00	 ret	 8
_TEXT	ENDS
;	COMDAT text$x
text$x	SEGMENT
__ehhandler$_PMCCS_GET_HASH_CODE@8:
  00000	8b 54 24 08	 mov	 edx, DWORD PTR [esp+8]
  00004	8d 42 0c	 lea	 eax, DWORD PTR [edx+12]
  00007	8b 4a e8	 mov	 ecx, DWORD PTR [edx-24]
  0000a	33 c8		 xor	 ecx, eax
  0000c	e8 00 00 00 00	 call	 @__security_check_cookie@4
  00011	b8 00 00 00 00	 mov	 eax, OFFSET __ehfuncinfo$_PMCCS_GET_HASH_CODE@8
  00016	e9 00 00 00 00	 jmp	 ___CxxFrameHandler3
text$x	ENDS
_PMCCS_GET_HASH_CODE@8 ENDP
; Function compile flags: /Ogtp
; File z:\sources\lunor\repos\rougemeilland\palmtree.math.core.uint\palmtree.math.core.uint\pmc_interface_csharp.cpp
; File z:\sources\lunor\repos\rougemeilland\palmtree.math.core.uint\palmtree.math.core.uint\pmc_exception.h
; File z:\sources\lunor\repos\rougemeilland\palmtree.math.core.uint\palmtree.math.core.uint\pmc_interface_csharp.cpp
;	COMDAT _PMCCS_IS_ZERO@8
_TEXT	SEGMENT
_ex$2 = -20						; size = 4
__$EHRec$ = -16						; size = 16
$T3 = 8							; size = 4
_p$ = 8							; size = 4
_r$ = 12						; size = 4
_PMCCS_IS_ZERO@8 PROC					; COMDAT

; 97   :     {

  00000	55		 push	 ebp
  00001	8b ec		 mov	 ebp, esp
  00003	6a ff		 push	 -1
  00005	68 00 00 00 00	 push	 __ehhandler$_PMCCS_IS_ZERO@8
  0000a	64 a1 00 00 00
	00		 mov	 eax, DWORD PTR fs:0
  00010	50		 push	 eax
  00011	83 ec 08	 sub	 esp, 8
  00014	53		 push	 ebx
  00015	56		 push	 esi
  00016	57		 push	 edi
  00017	a1 00 00 00 00	 mov	 eax, DWORD PTR ___security_cookie
  0001c	33 c5		 xor	 eax, ebp
  0001e	50		 push	 eax
  0001f	8d 45 f4	 lea	 eax, DWORD PTR __$EHRec$[ebp+4]
  00022	64 a3 00 00 00
	00		 mov	 DWORD PTR fs:0, eax
  00028	89 65 f0	 mov	 DWORD PTR __$EHRec$[ebp], esp

; 98   :         if (p == nullptr)

  0002b	8b 45 08	 mov	 eax, DWORD PTR _p$[ebp]
  0002e	85 c0		 test	 eax, eax
  00030	75 19		 jne	 SHORT $LN2@PMCCS_IS_Z
$LN13@PMCCS_IS_Z:

; 110  :         }
; 111  :     }

  00032	b8 fe ff ff ff	 mov	 eax, -2			; fffffffeH
  00037	8b 4d f4	 mov	 ecx, DWORD PTR __$EHRec$[ebp+4]
  0003a	64 89 0d 00 00
	00 00		 mov	 DWORD PTR fs:0, ecx
  00041	59		 pop	 ecx
  00042	5f		 pop	 edi
  00043	5e		 pop	 esi
  00044	5b		 pop	 ebx
  00045	8b e5		 mov	 esp, ebp
  00047	5d		 pop	 ebp
  00048	c2 08 00	 ret	 8
$LN2@PMCCS_IS_Z:

; 99   :             return (PMC_STATUS_ARGUMENT_NULL_ERROR);
; 100  :         if (r == nullptr)

  0004b	8b 4d 0c	 mov	 ecx, DWORD PTR _r$[ebp]
  0004e	85 c9		 test	 ecx, ecx
  00050	74 e0		 je	 SHORT $LN13@PMCCS_IS_Z

; 101  :             return (PMC_STATUS_ARGUMENT_NULL_ERROR);
; 102  :         try

  00052	c7 45 fc 00 00
	00 00		 mov	 DWORD PTR __$EHRec$[ebp+12], 0

; 103  :         {
; 104  :             *r = p->FLAGS.IS_ZERO;

  00059	8b 40 04	 mov	 eax, DWORD PTR [eax+4]
  0005c	83 e0 01	 and	 eax, 1
  0005f	89 01		 mov	 DWORD PTR [ecx], eax

; 105  :             return (PMC_STATUS_OK);

  00061	33 c0		 xor	 eax, eax

; 110  :         }
; 111  :     }

  00063	8b 4d f4	 mov	 ecx, DWORD PTR __$EHRec$[ebp+4]
  00066	64 89 0d 00 00
	00 00		 mov	 DWORD PTR fs:0, ecx
  0006d	59		 pop	 ecx
  0006e	5f		 pop	 edi
  0006f	5e		 pop	 esi
  00070	5b		 pop	 ebx
  00071	8b e5		 mov	 esp, ebp
  00073	5d		 pop	 ebp
  00074	c2 08 00	 ret	 8
__catch$_PMCCS_IS_ZERO@8$0:
; File z:\sources\lunor\repos\rougemeilland\palmtree.math.core.uint\palmtree.math.core.uint\pmc_exception.h

; 75   :             return (_code);

  00077	8b 45 ec	 mov	 eax, DWORD PTR _ex$2[ebp]
  0007a	8b 40 0c	 mov	 eax, DWORD PTR [eax+12]
  0007d	89 45 08	 mov	 DWORD PTR $T3[ebp], eax
; File z:\sources\lunor\repos\rougemeilland\palmtree.math.core.uint\palmtree.math.core.uint\pmc_interface_csharp.cpp

; 109  :             return (ex.GetStatusCode());

  00080	b8 00 00 00 00	 mov	 eax, $LN9@PMCCS_IS_Z
  00085	c3		 ret	 0
$LN9@PMCCS_IS_Z:
; File z:\sources\lunor\repos\rougemeilland\palmtree.math.core.uint\palmtree.math.core.uint\pmc_exception.h
  00086	c7 45 fc ff ff
	ff ff		 mov	 DWORD PTR __$EHRec$[ebp+12], -1
; File z:\sources\lunor\repos\rougemeilland\palmtree.math.core.uint\palmtree.math.core.uint\pmc_interface_csharp.cpp

; 109  :             return (ex.GetStatusCode());

  0008d	8b 45 08	 mov	 eax, DWORD PTR $T3[ebp]

; 110  :         }
; 111  :     }

  00090	8b 4d f4	 mov	 ecx, DWORD PTR __$EHRec$[ebp+4]
  00093	64 89 0d 00 00
	00 00		 mov	 DWORD PTR fs:0, ecx
  0009a	59		 pop	 ecx
  0009b	5f		 pop	 edi
  0009c	5e		 pop	 esi
  0009d	5b		 pop	 ebx
  0009e	8b e5		 mov	 esp, ebp
  000a0	5d		 pop	 ebp
  000a1	c2 08 00	 ret	 8
_TEXT	ENDS
;	COMDAT text$x
text$x	SEGMENT
__ehhandler$_PMCCS_IS_ZERO@8:
  00000	8b 54 24 08	 mov	 edx, DWORD PTR [esp+8]
  00004	8d 42 0c	 lea	 eax, DWORD PTR [edx+12]
  00007	8b 4a e8	 mov	 ecx, DWORD PTR [edx-24]
  0000a	33 c8		 xor	 ecx, eax
  0000c	e8 00 00 00 00	 call	 @__security_check_cookie@4
  00011	b8 00 00 00 00	 mov	 eax, OFFSET __ehfuncinfo$_PMCCS_IS_ZERO@8
  00016	e9 00 00 00 00	 jmp	 ___CxxFrameHandler3
text$x	ENDS
_PMCCS_IS_ZERO@8 ENDP
; Function compile flags: /Ogtp
; File z:\sources\lunor\repos\rougemeilland\palmtree.math.core.uint\palmtree.math.core.uint\pmc_interface_csharp.cpp
; File z:\sources\lunor\repos\rougemeilland\palmtree.math.core.uint\palmtree.math.core.uint\pmc_exception.h
; File z:\sources\lunor\repos\rougemeilland\palmtree.math.core.uint\palmtree.math.core.uint\pmc_interface_csharp.cpp
;	COMDAT _PMCCS_IS_POWER_OF_TWO@8
_TEXT	SEGMENT
_ex$2 = -20						; size = 4
__$EHRec$ = -16						; size = 16
$T3 = 8							; size = 4
_p$ = 8							; size = 4
_r$ = 12						; size = 4
_PMCCS_IS_POWER_OF_TWO@8 PROC				; COMDAT

; 80   :     {

  00000	55		 push	 ebp
  00001	8b ec		 mov	 ebp, esp
  00003	6a ff		 push	 -1
  00005	68 00 00 00 00	 push	 __ehhandler$_PMCCS_IS_POWER_OF_TWO@8
  0000a	64 a1 00 00 00
	00		 mov	 eax, DWORD PTR fs:0
  00010	50		 push	 eax
  00011	83 ec 08	 sub	 esp, 8
  00014	53		 push	 ebx
  00015	56		 push	 esi
  00016	57		 push	 edi
  00017	a1 00 00 00 00	 mov	 eax, DWORD PTR ___security_cookie
  0001c	33 c5		 xor	 eax, ebp
  0001e	50		 push	 eax
  0001f	8d 45 f4	 lea	 eax, DWORD PTR __$EHRec$[ebp+4]
  00022	64 a3 00 00 00
	00		 mov	 DWORD PTR fs:0, eax
  00028	89 65 f0	 mov	 DWORD PTR __$EHRec$[ebp], esp

; 81   :         if (p == nullptr)

  0002b	8b 45 08	 mov	 eax, DWORD PTR _p$[ebp]
  0002e	85 c0		 test	 eax, eax
  00030	75 19		 jne	 SHORT $LN2@PMCCS_IS_P
$LN13@PMCCS_IS_P:

; 93   :         }
; 94   :     }

  00032	b8 fe ff ff ff	 mov	 eax, -2			; fffffffeH
  00037	8b 4d f4	 mov	 ecx, DWORD PTR __$EHRec$[ebp+4]
  0003a	64 89 0d 00 00
	00 00		 mov	 DWORD PTR fs:0, ecx
  00041	59		 pop	 ecx
  00042	5f		 pop	 edi
  00043	5e		 pop	 esi
  00044	5b		 pop	 ebx
  00045	8b e5		 mov	 esp, ebp
  00047	5d		 pop	 ebp
  00048	c2 08 00	 ret	 8
$LN2@PMCCS_IS_P:

; 82   :             return (PMC_STATUS_ARGUMENT_NULL_ERROR);
; 83   :         if (r == nullptr)

  0004b	8b 4d 0c	 mov	 ecx, DWORD PTR _r$[ebp]
  0004e	85 c9		 test	 ecx, ecx
  00050	74 e0		 je	 SHORT $LN13@PMCCS_IS_P

; 84   :             return (PMC_STATUS_ARGUMENT_NULL_ERROR);
; 85   :         try

  00052	c7 45 fc 00 00
	00 00		 mov	 DWORD PTR __$EHRec$[ebp+12], 0

; 86   :         {
; 87   :             *r = p->FLAGS.IS_POWER_OF_TWO;

  00059	8b 40 04	 mov	 eax, DWORD PTR [eax+4]
  0005c	c1 e8 03	 shr	 eax, 3
  0005f	83 e0 01	 and	 eax, 1
  00062	89 01		 mov	 DWORD PTR [ecx], eax

; 88   :             return (PMC_STATUS_OK);

  00064	33 c0		 xor	 eax, eax

; 93   :         }
; 94   :     }

  00066	8b 4d f4	 mov	 ecx, DWORD PTR __$EHRec$[ebp+4]
  00069	64 89 0d 00 00
	00 00		 mov	 DWORD PTR fs:0, ecx
  00070	59		 pop	 ecx
  00071	5f		 pop	 edi
  00072	5e		 pop	 esi
  00073	5b		 pop	 ebx
  00074	8b e5		 mov	 esp, ebp
  00076	5d		 pop	 ebp
  00077	c2 08 00	 ret	 8
__catch$_PMCCS_IS_POWER_OF_TWO@8$0:
; File z:\sources\lunor\repos\rougemeilland\palmtree.math.core.uint\palmtree.math.core.uint\pmc_exception.h

; 75   :             return (_code);

  0007a	8b 45 ec	 mov	 eax, DWORD PTR _ex$2[ebp]
  0007d	8b 40 0c	 mov	 eax, DWORD PTR [eax+12]
  00080	89 45 08	 mov	 DWORD PTR $T3[ebp], eax
; File z:\sources\lunor\repos\rougemeilland\palmtree.math.core.uint\palmtree.math.core.uint\pmc_interface_csharp.cpp

; 92   :             return (ex.GetStatusCode());

  00083	b8 00 00 00 00	 mov	 eax, $LN9@PMCCS_IS_P
  00088	c3		 ret	 0
$LN9@PMCCS_IS_P:
; File z:\sources\lunor\repos\rougemeilland\palmtree.math.core.uint\palmtree.math.core.uint\pmc_exception.h
  00089	c7 45 fc ff ff
	ff ff		 mov	 DWORD PTR __$EHRec$[ebp+12], -1
; File z:\sources\lunor\repos\rougemeilland\palmtree.math.core.uint\palmtree.math.core.uint\pmc_interface_csharp.cpp

; 92   :             return (ex.GetStatusCode());

  00090	8b 45 08	 mov	 eax, DWORD PTR $T3[ebp]

; 93   :         }
; 94   :     }

  00093	8b 4d f4	 mov	 ecx, DWORD PTR __$EHRec$[ebp+4]
  00096	64 89 0d 00 00
	00 00		 mov	 DWORD PTR fs:0, ecx
  0009d	59		 pop	 ecx
  0009e	5f		 pop	 edi
  0009f	5e		 pop	 esi
  000a0	5b		 pop	 ebx
  000a1	8b e5		 mov	 esp, ebp
  000a3	5d		 pop	 ebp
  000a4	c2 08 00	 ret	 8
_TEXT	ENDS
;	COMDAT text$x
text$x	SEGMENT
__ehhandler$_PMCCS_IS_POWER_OF_TWO@8:
  00000	8b 54 24 08	 mov	 edx, DWORD PTR [esp+8]
  00004	8d 42 0c	 lea	 eax, DWORD PTR [edx+12]
  00007	8b 4a e8	 mov	 ecx, DWORD PTR [edx-24]
  0000a	33 c8		 xor	 ecx, eax
  0000c	e8 00 00 00 00	 call	 @__security_check_cookie@4
  00011	b8 00 00 00 00	 mov	 eax, OFFSET __ehfuncinfo$_PMCCS_IS_POWER_OF_TWO@8
  00016	e9 00 00 00 00	 jmp	 ___CxxFrameHandler3
text$x	ENDS
_PMCCS_IS_POWER_OF_TWO@8 ENDP
; Function compile flags: /Ogtp
; File z:\sources\lunor\repos\rougemeilland\palmtree.math.core.uint\palmtree.math.core.uint\pmc_interface_csharp.cpp
; File z:\sources\lunor\repos\rougemeilland\palmtree.math.core.uint\palmtree.math.core.uint\pmc_exception.h
; File z:\sources\lunor\repos\rougemeilland\palmtree.math.core.uint\palmtree.math.core.uint\pmc_interface_csharp.cpp
;	COMDAT _PMCCS_IS_ONE@8
_TEXT	SEGMENT
_ex$2 = -20						; size = 4
__$EHRec$ = -16						; size = 16
$T3 = 8							; size = 4
_p$ = 8							; size = 4
_r$ = 12						; size = 4
_PMCCS_IS_ONE@8 PROC					; COMDAT

; 63   :     {

  00000	55		 push	 ebp
  00001	8b ec		 mov	 ebp, esp
  00003	6a ff		 push	 -1
  00005	68 00 00 00 00	 push	 __ehhandler$_PMCCS_IS_ONE@8
  0000a	64 a1 00 00 00
	00		 mov	 eax, DWORD PTR fs:0
  00010	50		 push	 eax
  00011	83 ec 08	 sub	 esp, 8
  00014	53		 push	 ebx
  00015	56		 push	 esi
  00016	57		 push	 edi
  00017	a1 00 00 00 00	 mov	 eax, DWORD PTR ___security_cookie
  0001c	33 c5		 xor	 eax, ebp
  0001e	50		 push	 eax
  0001f	8d 45 f4	 lea	 eax, DWORD PTR __$EHRec$[ebp+4]
  00022	64 a3 00 00 00
	00		 mov	 DWORD PTR fs:0, eax
  00028	89 65 f0	 mov	 DWORD PTR __$EHRec$[ebp], esp

; 64   :         if (p == nullptr)

  0002b	8b 45 08	 mov	 eax, DWORD PTR _p$[ebp]
  0002e	85 c0		 test	 eax, eax
  00030	75 19		 jne	 SHORT $LN2@PMCCS_IS_O
$LN13@PMCCS_IS_O:

; 76   :         }
; 77   :     }

  00032	b8 fe ff ff ff	 mov	 eax, -2			; fffffffeH
  00037	8b 4d f4	 mov	 ecx, DWORD PTR __$EHRec$[ebp+4]
  0003a	64 89 0d 00 00
	00 00		 mov	 DWORD PTR fs:0, ecx
  00041	59		 pop	 ecx
  00042	5f		 pop	 edi
  00043	5e		 pop	 esi
  00044	5b		 pop	 ebx
  00045	8b e5		 mov	 esp, ebp
  00047	5d		 pop	 ebp
  00048	c2 08 00	 ret	 8
$LN2@PMCCS_IS_O:

; 65   :             return (PMC_STATUS_ARGUMENT_NULL_ERROR);
; 66   :         if (r == nullptr)

  0004b	8b 4d 0c	 mov	 ecx, DWORD PTR _r$[ebp]
  0004e	85 c9		 test	 ecx, ecx
  00050	74 e0		 je	 SHORT $LN13@PMCCS_IS_O

; 67   :             return (PMC_STATUS_ARGUMENT_NULL_ERROR);
; 68   :         try

  00052	c7 45 fc 00 00
	00 00		 mov	 DWORD PTR __$EHRec$[ebp+12], 0

; 69   :         {
; 70   :             *r = p->FLAGS.IS_ONE;

  00059	8b 40 04	 mov	 eax, DWORD PTR [eax+4]
  0005c	d1 e8		 shr	 eax, 1
  0005e	83 e0 01	 and	 eax, 1
  00061	89 01		 mov	 DWORD PTR [ecx], eax

; 71   :             return (PMC_STATUS_OK);

  00063	33 c0		 xor	 eax, eax

; 76   :         }
; 77   :     }

  00065	8b 4d f4	 mov	 ecx, DWORD PTR __$EHRec$[ebp+4]
  00068	64 89 0d 00 00
	00 00		 mov	 DWORD PTR fs:0, ecx
  0006f	59		 pop	 ecx
  00070	5f		 pop	 edi
  00071	5e		 pop	 esi
  00072	5b		 pop	 ebx
  00073	8b e5		 mov	 esp, ebp
  00075	5d		 pop	 ebp
  00076	c2 08 00	 ret	 8
__catch$_PMCCS_IS_ONE@8$0:
; File z:\sources\lunor\repos\rougemeilland\palmtree.math.core.uint\palmtree.math.core.uint\pmc_exception.h

; 75   :             return (_code);

  00079	8b 45 ec	 mov	 eax, DWORD PTR _ex$2[ebp]
  0007c	8b 40 0c	 mov	 eax, DWORD PTR [eax+12]
  0007f	89 45 08	 mov	 DWORD PTR $T3[ebp], eax
; File z:\sources\lunor\repos\rougemeilland\palmtree.math.core.uint\palmtree.math.core.uint\pmc_interface_csharp.cpp

; 75   :             return (ex.GetStatusCode());

  00082	b8 00 00 00 00	 mov	 eax, $LN9@PMCCS_IS_O
  00087	c3		 ret	 0
$LN9@PMCCS_IS_O:
; File z:\sources\lunor\repos\rougemeilland\palmtree.math.core.uint\palmtree.math.core.uint\pmc_exception.h
  00088	c7 45 fc ff ff
	ff ff		 mov	 DWORD PTR __$EHRec$[ebp+12], -1
; File z:\sources\lunor\repos\rougemeilland\palmtree.math.core.uint\palmtree.math.core.uint\pmc_interface_csharp.cpp

; 75   :             return (ex.GetStatusCode());

  0008f	8b 45 08	 mov	 eax, DWORD PTR $T3[ebp]

; 76   :         }
; 77   :     }

  00092	8b 4d f4	 mov	 ecx, DWORD PTR __$EHRec$[ebp+4]
  00095	64 89 0d 00 00
	00 00		 mov	 DWORD PTR fs:0, ecx
  0009c	59		 pop	 ecx
  0009d	5f		 pop	 edi
  0009e	5e		 pop	 esi
  0009f	5b		 pop	 ebx
  000a0	8b e5		 mov	 esp, ebp
  000a2	5d		 pop	 ebp
  000a3	c2 08 00	 ret	 8
_TEXT	ENDS
;	COMDAT text$x
text$x	SEGMENT
__ehhandler$_PMCCS_IS_ONE@8:
  00000	8b 54 24 08	 mov	 edx, DWORD PTR [esp+8]
  00004	8d 42 0c	 lea	 eax, DWORD PTR [edx+12]
  00007	8b 4a e8	 mov	 ecx, DWORD PTR [edx-24]
  0000a	33 c8		 xor	 ecx, eax
  0000c	e8 00 00 00 00	 call	 @__security_check_cookie@4
  00011	b8 00 00 00 00	 mov	 eax, OFFSET __ehfuncinfo$_PMCCS_IS_ONE@8
  00016	e9 00 00 00 00	 jmp	 ___CxxFrameHandler3
text$x	ENDS
_PMCCS_IS_ONE@8 ENDP
; Function compile flags: /Ogtp
; File z:\sources\lunor\repos\rougemeilland\palmtree.math.core.uint\palmtree.math.core.uint\pmc_interface_csharp.cpp
; File z:\sources\lunor\repos\rougemeilland\palmtree.math.core.uint\palmtree.math.core.uint\pmc_exception.h
; File z:\sources\lunor\repos\rougemeilland\palmtree.math.core.uint\palmtree.math.core.uint\pmc_interface_csharp.cpp
;	COMDAT _PMCCS_IS_EVEN@8
_TEXT	SEGMENT
_ex$2 = -20						; size = 4
__$EHRec$ = -16						; size = 16
$T3 = 8							; size = 4
_p$ = 8							; size = 4
_r$ = 12						; size = 4
_PMCCS_IS_EVEN@8 PROC					; COMDAT

; 46   :     {

  00000	55		 push	 ebp
  00001	8b ec		 mov	 ebp, esp
  00003	6a ff		 push	 -1
  00005	68 00 00 00 00	 push	 __ehhandler$_PMCCS_IS_EVEN@8
  0000a	64 a1 00 00 00
	00		 mov	 eax, DWORD PTR fs:0
  00010	50		 push	 eax
  00011	83 ec 08	 sub	 esp, 8
  00014	53		 push	 ebx
  00015	56		 push	 esi
  00016	57		 push	 edi
  00017	a1 00 00 00 00	 mov	 eax, DWORD PTR ___security_cookie
  0001c	33 c5		 xor	 eax, ebp
  0001e	50		 push	 eax
  0001f	8d 45 f4	 lea	 eax, DWORD PTR __$EHRec$[ebp+4]
  00022	64 a3 00 00 00
	00		 mov	 DWORD PTR fs:0, eax
  00028	89 65 f0	 mov	 DWORD PTR __$EHRec$[ebp], esp

; 47   :         if (p == nullptr)

  0002b	8b 45 08	 mov	 eax, DWORD PTR _p$[ebp]
  0002e	85 c0		 test	 eax, eax
  00030	75 19		 jne	 SHORT $LN2@PMCCS_IS_E
$LN13@PMCCS_IS_E:

; 59   :         }
; 60   :     }

  00032	b8 fe ff ff ff	 mov	 eax, -2			; fffffffeH
  00037	8b 4d f4	 mov	 ecx, DWORD PTR __$EHRec$[ebp+4]
  0003a	64 89 0d 00 00
	00 00		 mov	 DWORD PTR fs:0, ecx
  00041	59		 pop	 ecx
  00042	5f		 pop	 edi
  00043	5e		 pop	 esi
  00044	5b		 pop	 ebx
  00045	8b e5		 mov	 esp, ebp
  00047	5d		 pop	 ebp
  00048	c2 08 00	 ret	 8
$LN2@PMCCS_IS_E:

; 48   :             return (PMC_STATUS_ARGUMENT_NULL_ERROR);
; 49   :         if (r == nullptr)

  0004b	8b 4d 0c	 mov	 ecx, DWORD PTR _r$[ebp]
  0004e	85 c9		 test	 ecx, ecx
  00050	74 e0		 je	 SHORT $LN13@PMCCS_IS_E

; 50   :             return (PMC_STATUS_ARGUMENT_NULL_ERROR);
; 51   :         try

  00052	c7 45 fc 00 00
	00 00		 mov	 DWORD PTR __$EHRec$[ebp+12], 0

; 52   :         {
; 53   :             *r = p->FLAGS.IS_EVEN;

  00059	8b 40 04	 mov	 eax, DWORD PTR [eax+4]
  0005c	c1 e8 02	 shr	 eax, 2
  0005f	83 e0 01	 and	 eax, 1
  00062	89 01		 mov	 DWORD PTR [ecx], eax

; 54   :             return (PMC_STATUS_OK);

  00064	33 c0		 xor	 eax, eax

; 59   :         }
; 60   :     }

  00066	8b 4d f4	 mov	 ecx, DWORD PTR __$EHRec$[ebp+4]
  00069	64 89 0d 00 00
	00 00		 mov	 DWORD PTR fs:0, ecx
  00070	59		 pop	 ecx
  00071	5f		 pop	 edi
  00072	5e		 pop	 esi
  00073	5b		 pop	 ebx
  00074	8b e5		 mov	 esp, ebp
  00076	5d		 pop	 ebp
  00077	c2 08 00	 ret	 8
__catch$_PMCCS_IS_EVEN@8$0:
; File z:\sources\lunor\repos\rougemeilland\palmtree.math.core.uint\palmtree.math.core.uint\pmc_exception.h

; 75   :             return (_code);

  0007a	8b 45 ec	 mov	 eax, DWORD PTR _ex$2[ebp]
  0007d	8b 40 0c	 mov	 eax, DWORD PTR [eax+12]
  00080	89 45 08	 mov	 DWORD PTR $T3[ebp], eax
; File z:\sources\lunor\repos\rougemeilland\palmtree.math.core.uint\palmtree.math.core.uint\pmc_interface_csharp.cpp

; 58   :             return (ex.GetStatusCode());

  00083	b8 00 00 00 00	 mov	 eax, $LN9@PMCCS_IS_E
  00088	c3		 ret	 0
$LN9@PMCCS_IS_E:
; File z:\sources\lunor\repos\rougemeilland\palmtree.math.core.uint\palmtree.math.core.uint\pmc_exception.h
  00089	c7 45 fc ff ff
	ff ff		 mov	 DWORD PTR __$EHRec$[ebp+12], -1
; File z:\sources\lunor\repos\rougemeilland\palmtree.math.core.uint\palmtree.math.core.uint\pmc_interface_csharp.cpp

; 58   :             return (ex.GetStatusCode());

  00090	8b 45 08	 mov	 eax, DWORD PTR $T3[ebp]

; 59   :         }
; 60   :     }

  00093	8b 4d f4	 mov	 ecx, DWORD PTR __$EHRec$[ebp+4]
  00096	64 89 0d 00 00
	00 00		 mov	 DWORD PTR fs:0, ecx
  0009d	59		 pop	 ecx
  0009e	5f		 pop	 edi
  0009f	5e		 pop	 esi
  000a0	5b		 pop	 ebx
  000a1	8b e5		 mov	 esp, ebp
  000a3	5d		 pop	 ebp
  000a4	c2 08 00	 ret	 8
_TEXT	ENDS
;	COMDAT text$x
text$x	SEGMENT
__ehhandler$_PMCCS_IS_EVEN@8:
  00000	8b 54 24 08	 mov	 edx, DWORD PTR [esp+8]
  00004	8d 42 0c	 lea	 eax, DWORD PTR [edx+12]
  00007	8b 4a e8	 mov	 ecx, DWORD PTR [edx-24]
  0000a	33 c8		 xor	 ecx, eax
  0000c	e8 00 00 00 00	 call	 @__security_check_cookie@4
  00011	b8 00 00 00 00	 mov	 eax, OFFSET __ehfuncinfo$_PMCCS_IS_EVEN@8
  00016	e9 00 00 00 00	 jmp	 ___CxxFrameHandler3
text$x	ENDS
_PMCCS_IS_EVEN@8 ENDP
; Function compile flags: /Ogtp
; File z:\sources\lunor\repos\rougemeilland\palmtree.math.core.uint\palmtree.math.core.uint\pmc_interface_csharp.cpp
;	COMDAT _PMCCS_GetConfigurationSettings@16
_TEXT	SEGMENT
_key$ = 8						; size = 4
_value_buffer$ = 12					; size = 4
_value_buffer_size$ = 16				; size = 4
_count$ = 20						; size = 4
_PMCCS_GetConfigurationSettings@16 PROC			; COMDAT

; 41   :     {

  00000	55		 push	 ebp
  00001	8b ec		 mov	 ebp, esp

; 43   :     }

  00003	5d		 pop	 ebp

; 42   :         return (PMC_GetConfigurationSettings(key, value_buffer, value_buffer_size, count));

  00004	e9 00 00 00 00	 jmp	 ?PMC_GetConfigurationSettings@Internal@Core@Math@Palmtree@@YGHPB_WPA_WHPAH@Z ; Palmtree::Math::Core::Internal::PMC_GetConfigurationSettings
_PMCCS_GetConfigurationSettings@16 ENDP
_TEXT	ENDS
; Function compile flags: /Ogtp
; File z:\sources\lunor\repos\rougemeilland\palmtree.math.core.uint\palmtree.math.core.uint\pmc_interface_csharp.cpp
;	COMDAT _PMCCS_UINT_Initialize@4
_TEXT	SEGMENT
_conf$ = 8						; size = 4
_PMCCS_UINT_Initialize@4 PROC				; COMDAT

; 35   :     {

  00000	55		 push	 ebp
  00001	8b ec		 mov	 ebp, esp

; 36   :         _UINT32_T success = PMC_UINT_Initialize(conf) != nullptr ? 1 : 0;

  00003	ff 75 08	 push	 DWORD PTR _conf$[ebp]
  00006	e8 00 00 00 00	 call	 _PMC_UINT_Initialize@4
  0000b	f7 d8		 neg	 eax
  0000d	1b c0		 sbb	 eax, eax
  0000f	f7 d8		 neg	 eax

; 37   :         return (success);
; 38   :     }

  00011	5d		 pop	 ebp
  00012	c2 04 00	 ret	 4
_PMCCS_UINT_Initialize@4 ENDP
_TEXT	ENDS
; Function compile flags: /Ogtp
; File z:\sources\lunor\repos\rougemeilland\palmtree.math.core.uint\palmtree.math.core.uint\pmc_exception.h
;	COMDAT ?GetStatusCode@Exception@Internal@Core@Math@Palmtree@@QBEHXZ
_TEXT	SEGMENT
?GetStatusCode@Exception@Internal@Core@Math@Palmtree@@QBEHXZ PROC ; Palmtree::Math::Core::Internal::Exception::GetStatusCode, COMDAT
; _this$ = ecx

; 75   :             return (_code);

  00000	8b 41 0c	 mov	 eax, DWORD PTR [ecx+12]

; 76   :         }

  00003	c3		 ret	 0
?GetStatusCode@Exception@Internal@Core@Math@Palmtree@@QBEHXZ ENDP ; Palmtree::Math::Core::Internal::Exception::GetStatusCode
_TEXT	ENDS
END
