; Listing generated by Microsoft (R) Optimizing Compiler Version 19.16.27027.1 

	TITLE	Z:\Sources\Lunor\Repos\rougemeilland\Palmtree.Math.Core.Uint\Palmtree.Math.Core.Uint\pmc_parse.cpp
	.686P
	.XMM
	include listing.inc
	.model	flat

INCLUDELIB MSVCRT
INCLUDELIB OLDNAMES

PUBLIC	??1exception@std@@UAE@XZ			; std::exception::~exception
PUBLIC	?what@exception@std@@UBEPBDXZ			; std::exception::what
PUBLIC	??_Gexception@std@@UAEPAXI@Z			; std::exception::`scalar deleting destructor'
PUBLIC	??0Exception@Internal@Core@Math@Palmtree@@QAE@ABV01234@@Z ; Palmtree::Math::Core::Internal::Exception::Exception
PUBLIC	??1Exception@Internal@Core@Math@Palmtree@@UAE@XZ ; Palmtree::Math::Core::Internal::Exception::~Exception
PUBLIC	??_GException@Internal@Core@Math@Palmtree@@UAEPAXI@Z ; Palmtree::Math::Core::Internal::Exception::`scalar deleting destructor'
PUBLIC	??0ArgumentException@Internal@Core@Math@Palmtree@@QAE@PB_W@Z ; Palmtree::Math::Core::Internal::ArgumentException::ArgumentException
PUBLIC	??0ArgumentException@Internal@Core@Math@Palmtree@@QAE@ABV01234@@Z ; Palmtree::Math::Core::Internal::ArgumentException::ArgumentException
PUBLIC	??1ArgumentException@Internal@Core@Math@Palmtree@@UAE@XZ ; Palmtree::Math::Core::Internal::ArgumentException::~ArgumentException
PUBLIC	??_GArgumentException@Internal@Core@Math@Palmtree@@UAEPAXI@Z ; Palmtree::Math::Core::Internal::ArgumentException::`scalar deleting destructor'
PUBLIC	??0ArgumentNullException@Internal@Core@Math@Palmtree@@QAE@PB_W0@Z ; Palmtree::Math::Core::Internal::ArgumentNullException::ArgumentNullException
PUBLIC	??0ArgumentNullException@Internal@Core@Math@Palmtree@@QAE@ABV01234@@Z ; Palmtree::Math::Core::Internal::ArgumentNullException::ArgumentNullException
PUBLIC	??1ArgumentNullException@Internal@Core@Math@Palmtree@@UAE@XZ ; Palmtree::Math::Core::Internal::ArgumentNullException::~ArgumentNullException
PUBLIC	??_GArgumentNullException@Internal@Core@Math@Palmtree@@UAEPAXI@Z ; Palmtree::Math::Core::Internal::ArgumentNullException::`scalar deleting destructor'
PUBLIC	??0InsufficientBufferException@Internal@Core@Math@Palmtree@@QAE@PB_W@Z ; Palmtree::Math::Core::Internal::InsufficientBufferException::InsufficientBufferException
PUBLIC	??0InsufficientBufferException@Internal@Core@Math@Palmtree@@QAE@ABV01234@@Z ; Palmtree::Math::Core::Internal::InsufficientBufferException::InsufficientBufferException
PUBLIC	??1InsufficientBufferException@Internal@Core@Math@Palmtree@@UAE@XZ ; Palmtree::Math::Core::Internal::InsufficientBufferException::~InsufficientBufferException
PUBLIC	??_GInsufficientBufferException@Internal@Core@Math@Palmtree@@UAEPAXI@Z ; Palmtree::Math::Core::Internal::InsufficientBufferException::`scalar deleting destructor'
PUBLIC	??0InternalErrorException@Internal@Core@Math@Palmtree@@QAE@PB_W0@Z ; Palmtree::Math::Core::Internal::InternalErrorException::InternalErrorException
PUBLIC	??0InternalErrorException@Internal@Core@Math@Palmtree@@QAE@ABV01234@@Z ; Palmtree::Math::Core::Internal::InternalErrorException::InternalErrorException
PUBLIC	??1InternalErrorException@Internal@Core@Math@Palmtree@@UAE@XZ ; Palmtree::Math::Core::Internal::InternalErrorException::~InternalErrorException
PUBLIC	??_GInternalErrorException@Internal@Core@Math@Palmtree@@UAEPAXI@Z ; Palmtree::Math::Core::Internal::InternalErrorException::`scalar deleting destructor'
PUBLIC	?PeekChar@StringReader@Internal@Core@Math@Palmtree@@UAE_WXZ ; Palmtree::Math::Core::Internal::StringReader::PeekChar
PUBLIC	?Progress@StringReader@Internal@Core@Math@Palmtree@@UAEXXZ ; Palmtree::Math::Core::Internal::StringReader::Progress
PUBLIC	?StartsWith@StringReader@Internal@Core@Math@Palmtree@@UAEHPB_W@Z ; Palmtree::Math::Core::Internal::StringReader::StartsWith
PUBLIC	?SkipSpace@StringReader@Internal@Core@Math@Palmtree@@QAEXXZ ; Palmtree::Math::Core::Internal::StringReader::SkipSpace
PUBLIC	?SkipString@StringReader@Internal@Core@Math@Palmtree@@UAEXPB_W@Z ; Palmtree::Math::Core::Internal::StringReader::SkipString
PUBLIC	?Write@StringWriter@Internal@Core@Math@Palmtree@@UAEX_W@Z ; Palmtree::Math::Core::Internal::StringWriter::Write
PUBLIC	?Write@StringWriter@Internal@Core@Math@Palmtree@@UAEXPB_W@Z ; Palmtree::Math::Core::Internal::StringWriter::Write
PUBLIC	?GetString@StringWriter@Internal@Core@Math@Palmtree@@UAEPA_WXZ ; Palmtree::Math::Core::Internal::StringWriter::GetString
PUBLIC	?Initialize_Parse@Internal@Core@Math@Palmtree@@YAHPAU_tag_PROCESSOR_FEATURES@1234@@Z ; Palmtree::Math::Core::Internal::Initialize_Parse
PUBLIC	?PMC_TryParse@Internal@Core@Math@Palmtree@@YGHPB_WHPBU__tag_PMC_NUMBER_FORMAT_INFO@1234@PAPAU__tag_PMC_HANDLE_UINT@1234@PAI@Z ; Palmtree::Math::Core::Internal::PMC_TryParse
PUBLIC	?PMC_TryParseForSINT@Internal@Core@Math@Palmtree@@YGHPB_WHPBU__tag_PMC_NUMBER_FORMAT_INFO@1234@PADPAPAU__tag_PMC_HANDLE_UINT@1234@PAI@Z ; Palmtree::Math::Core::Internal::PMC_TryParseForSINT
PUBLIC	??0ParserState@Internal@Core@Math@Palmtree@@QAE@PB_WIPBU__tag_PMC_NUMBER_FORMAT_INFO@1234@PADPA_WI3I@Z ; Palmtree::Math::Core::Internal::ParserState::ParserState
PUBLIC	?ParseAsDecimalNumberString@ParserState@Internal@Core@Math@Palmtree@@QAEHXZ ; Palmtree::Math::Core::Internal::ParserState::ParseAsDecimalNumberString
PUBLIC	?ParseAsIntegerPartNumberSequence@ParserState@Internal@Core@Math@Palmtree@@AAEXXZ ; Palmtree::Math::Core::Internal::ParserState::ParseAsIntegerPartNumberSequence
PUBLIC	?ParseAsFractionPartNumberSequence@ParserState@Internal@Core@Math@Palmtree@@AAEXXZ ; Palmtree::Math::Core::Internal::ParserState::ParseAsFractionPartNumberSequence
PUBLIC	??_7exception@std@@6B@				; std::exception::`vftable'
PUBLIC	??_C@_0BC@EOODALEL@Unknown?5exception@		; `string'
PUBLIC	??_7Exception@Internal@Core@Math@Palmtree@@6B@	; Palmtree::Math::Core::Internal::Exception::`vftable'
PUBLIC	??_7ArgumentException@Internal@Core@Math@Palmtree@@6B@ ; Palmtree::Math::Core::Internal::ArgumentException::`vftable'
PUBLIC	??_7ArgumentNullException@Internal@Core@Math@Palmtree@@6B@ ; Palmtree::Math::Core::Internal::ArgumentNullException::`vftable'
PUBLIC	??_7InsufficientBufferException@Internal@Core@Math@Palmtree@@6B@ ; Palmtree::Math::Core::Internal::InsufficientBufferException::`vftable'
PUBLIC	??_7InternalErrorException@Internal@Core@Math@Palmtree@@6B@ ; Palmtree::Math::Core::Internal::InternalErrorException::`vftable'
PUBLIC	??_7StringReader@Internal@Core@Math@Palmtree@@6B@ ; Palmtree::Math::Core::Internal::StringReader::`vftable'
PUBLIC	__TI2?AVInternalErrorException@Internal@Core@Math@Palmtree@@
PUBLIC	__CTA2?AVInternalErrorException@Internal@Core@Math@Palmtree@@
PUBLIC	??_R0?AVInternalErrorException@Internal@Core@Math@Palmtree@@@8 ; Palmtree::Math::Core::Internal::InternalErrorException `RTTI Type Descriptor'
PUBLIC	__CT??_R0?AVInternalErrorException@Internal@Core@Math@Palmtree@@@8??0InternalErrorException@Internal@Core@Math@Palmtree@@QAE@ABV01234@@Z24
PUBLIC	??_R0?AVException@Internal@Core@Math@Palmtree@@@8 ; Palmtree::Math::Core::Internal::Exception `RTTI Type Descriptor'
PUBLIC	__CT??_R0?AVException@Internal@Core@Math@Palmtree@@@8??0Exception@Internal@Core@Math@Palmtree@@QAE@ABV01234@@Z24
PUBLIC	??_C@_1FA@CNGEABBJ@?$AAp?$AAm?$AAc?$AA_?$AAs?$AAt?$AAr?$AAi?$AAn?$AAg?$AAi?$AAo?$AA?4?$AAh?$AA?$DL@ ; `string'
PUBLIC	??_C@_1BM@FCPAHMHB@?$PP?$IF?$PP?h?$PP?$KI?$PP?i?$PP?$PM?$AAL?$AAz?$AA?$BP?$AAW?$AA?$HO?$AAW?$AA_?$AA?$AC@ ; `string'
PUBLIC	??_C@_1FE@KONPIGEM@?$AAp?$AAm?$AAc?$AA_?$AAs?$AAt?$AAr?$AAi?$AAn?$AAg?$AAi?$AAo?$AA?4?$AAh?$AA?$DL@ ; `string'
PUBLIC	??_7StringWriter@Internal@Core@Math@Palmtree@@6B@ ; Palmtree::Math::Core::Internal::StringWriter::`vftable'
PUBLIC	__TI2?AVInsufficientBufferException@Internal@Core@Math@Palmtree@@
PUBLIC	__CTA2?AVInsufficientBufferException@Internal@Core@Math@Palmtree@@
PUBLIC	??_R0?AVInsufficientBufferException@Internal@Core@Math@Palmtree@@@8 ; Palmtree::Math::Core::Internal::InsufficientBufferException `RTTI Type Descriptor'
PUBLIC	__CT??_R0?AVInsufficientBufferException@Internal@Core@Math@Palmtree@@@8??0InsufficientBufferException@Internal@Core@Math@Palmtree@@QAE@ABV01234@@Z24
PUBLIC	??_C@_1CO@JABAMCFP@?$PP?x?$AAM?$PP?$LM?$AA?$HP?$AAH?$PP?P?$PP?C?$PP?U?$PP?$KB?$AAn?$PP?$LF?$PP?$KE?$PP?$LK?$AAL?$AA?$AN@ ; `string'
PUBLIC	??_C@_1EK@OBHKPMHI@?$AAp?$AAm?$AAc?$AA_?$AAp?$AAa?$AAr?$AAs?$AAe?$AA?$DL?$AAP?$AAa?$AAr?$AAs?$AAe@ ; `string'
PUBLIC	??_C@_1EK@PDMPFDJG@?$AAp?$AAm?$AAc?$AA_?$AAp?$AAa?$AAr?$AAs?$AAe?$AA?$DL?$AAP?$AAa?$AAr?$AAs?$AAe@ ; `string'
PUBLIC	??_C@_1EK@ELHDDEPD@?$AAp?$AAm?$AAc?$AA_?$AAp?$AAa?$AAr?$AAs?$AAe?$AA?$DL?$AAP?$AAa?$AAr?$AAs?$AAe@ ; `string'
PUBLIC	??_C@_1EK@NGKEAMEK@?$AAp?$AAm?$AAc?$AA_?$AAp?$AAa?$AAr?$AAs?$AAe?$AA?$DL?$AAP?$AAa?$AAr?$AAs?$AAe@ ; `string'
PUBLIC	??_C@_1EK@GOBIGLCP@?$AAp?$AAm?$AAc?$AA_?$AAp?$AAa?$AAr?$AAs?$AAe?$AA?$DL?$AAP?$AAa?$AAr?$AAs?$AAe@ ; `string'
PUBLIC	??_C@_1EK@HMKNMEMB@?$AAp?$AAm?$AAc?$AA_?$AAp?$AAa?$AAr?$AAs?$AAe?$AA?$DL?$AAP?$AAa?$AAr?$AAs?$AAe@ ; `string'
PUBLIC	??_C@_1EK@MEBBKDKE@?$AAp?$AAm?$AAc?$AA_?$AAp?$AAa?$AAr?$AAs?$AAe?$AA?$DL?$AAP?$AAa?$AAr?$AAs?$AAe@ ; `string'
PUBLIC	??_C@_13JDNADJOG@?$PP?$KA@			; `string'
PUBLIC	??_C@_13HOIJIPNN@?$AA?5@			; `string'
PUBLIC	??_C@_13LLDNKHDC@?$AA?$CI@			; `string'
PUBLIC	??_C@_13DIBMAFH@?$AA?$CJ@			; `string'
PUBLIC	__TI2?AVArgumentException@Internal@Core@Math@Palmtree@@
PUBLIC	__CTA2?AVArgumentException@Internal@Core@Math@Palmtree@@
PUBLIC	??_R0?AVArgumentException@Internal@Core@Math@Palmtree@@@8 ; Palmtree::Math::Core::Internal::ArgumentException `RTTI Type Descriptor'
PUBLIC	__CT??_R0?AVArgumentException@Internal@Core@Math@Palmtree@@@8??0ArgumentException@Internal@Core@Math@Palmtree@@QAE@ABV01234@@Z24
PUBLIC	??_C@_1FG@MPGAEBOC@?$AA?$BF?$AAp?$AAn?$AAu?$AAm?$AAb?$AAe?$AAr?$AA_?$AAs?$AAt?$AAy?$AAl?$AAe?$AAs@ ; `string'
PUBLIC	__TI2?AVArgumentNullException@Internal@Core@Math@Palmtree@@
PUBLIC	__CTA2?AVArgumentNullException@Internal@Core@Math@Palmtree@@
PUBLIC	??_R0?AVArgumentNullException@Internal@Core@Math@Palmtree@@@8 ; Palmtree::Math::Core::Internal::ArgumentNullException `RTTI Type Descriptor'
PUBLIC	__CT??_R0?AVArgumentNullException@Internal@Core@Math@Palmtree@@@8??0ArgumentNullException@Internal@Core@Math@Palmtree@@QAE@ABV01234@@Z24
PUBLIC	??_C@_1O@JOABEBCL@?$AAs?$AAo?$AAu?$AAr?$AAc?$AAe@ ; `string'
PUBLIC	??_C@_1CK@ECFIEPAC@?$AA?$BF?$AAp?$AAk?$AAn?$AAu?$AAl?$AAl?$AAp?$AAt?$AAr?$AAL?$AA?$AO?$AAH?$PP?$IJ?$PP?$IM@ ; `string'
PUBLIC	??_C@_13LNPOMHLG@?$AAo@				; `string'
PUBLIC	??_C@_1O@KGDAECED@?$AAo?$AA_?$AAs?$AAi?$AAg?$AAn@ ; `string'
PUBLIC	??_C@_1M@LGAEBGCK@?$AAo?$AA_?$AAa?$AAb?$AAs@	; `string'
PUBLIC	??_R4exception@std@@6B@				; std::exception::`RTTI Complete Object Locator'
PUBLIC	??_R0?AVexception@std@@@8			; std::exception `RTTI Type Descriptor'
PUBLIC	??_R3exception@std@@8				; std::exception::`RTTI Class Hierarchy Descriptor'
PUBLIC	??_R2exception@std@@8				; std::exception::`RTTI Base Class Array'
PUBLIC	??_R1A@?0A@EA@exception@std@@8			; std::exception::`RTTI Base Class Descriptor at (0,-1,0,64)'
PUBLIC	??_R4Exception@Internal@Core@Math@Palmtree@@6B@	; Palmtree::Math::Core::Internal::Exception::`RTTI Complete Object Locator'
PUBLIC	??_R3Exception@Internal@Core@Math@Palmtree@@8	; Palmtree::Math::Core::Internal::Exception::`RTTI Class Hierarchy Descriptor'
PUBLIC	??_R2Exception@Internal@Core@Math@Palmtree@@8	; Palmtree::Math::Core::Internal::Exception::`RTTI Base Class Array'
PUBLIC	??_R1A@?0A@EA@Exception@Internal@Core@Math@Palmtree@@8 ; Palmtree::Math::Core::Internal::Exception::`RTTI Base Class Descriptor at (0,-1,0,64)'
PUBLIC	??_R1A@?0A@EN@exception@std@@8			; std::exception::`RTTI Base Class Descriptor at (0,-1,0,77)'
PUBLIC	??_R4ArgumentException@Internal@Core@Math@Palmtree@@6B@ ; Palmtree::Math::Core::Internal::ArgumentException::`RTTI Complete Object Locator'
PUBLIC	??_R3ArgumentException@Internal@Core@Math@Palmtree@@8 ; Palmtree::Math::Core::Internal::ArgumentException::`RTTI Class Hierarchy Descriptor'
PUBLIC	??_R2ArgumentException@Internal@Core@Math@Palmtree@@8 ; Palmtree::Math::Core::Internal::ArgumentException::`RTTI Base Class Array'
PUBLIC	??_R1A@?0A@EA@ArgumentException@Internal@Core@Math@Palmtree@@8 ; Palmtree::Math::Core::Internal::ArgumentException::`RTTI Base Class Descriptor at (0,-1,0,64)'
PUBLIC	??_R4ArgumentNullException@Internal@Core@Math@Palmtree@@6B@ ; Palmtree::Math::Core::Internal::ArgumentNullException::`RTTI Complete Object Locator'
PUBLIC	??_R3ArgumentNullException@Internal@Core@Math@Palmtree@@8 ; Palmtree::Math::Core::Internal::ArgumentNullException::`RTTI Class Hierarchy Descriptor'
PUBLIC	??_R2ArgumentNullException@Internal@Core@Math@Palmtree@@8 ; Palmtree::Math::Core::Internal::ArgumentNullException::`RTTI Base Class Array'
PUBLIC	??_R1A@?0A@EA@ArgumentNullException@Internal@Core@Math@Palmtree@@8 ; Palmtree::Math::Core::Internal::ArgumentNullException::`RTTI Base Class Descriptor at (0,-1,0,64)'
PUBLIC	??_R4InsufficientBufferException@Internal@Core@Math@Palmtree@@6B@ ; Palmtree::Math::Core::Internal::InsufficientBufferException::`RTTI Complete Object Locator'
PUBLIC	??_R3InsufficientBufferException@Internal@Core@Math@Palmtree@@8 ; Palmtree::Math::Core::Internal::InsufficientBufferException::`RTTI Class Hierarchy Descriptor'
PUBLIC	??_R2InsufficientBufferException@Internal@Core@Math@Palmtree@@8 ; Palmtree::Math::Core::Internal::InsufficientBufferException::`RTTI Base Class Array'
PUBLIC	??_R1A@?0A@EA@InsufficientBufferException@Internal@Core@Math@Palmtree@@8 ; Palmtree::Math::Core::Internal::InsufficientBufferException::`RTTI Base Class Descriptor at (0,-1,0,64)'
PUBLIC	??_R4InternalErrorException@Internal@Core@Math@Palmtree@@6B@ ; Palmtree::Math::Core::Internal::InternalErrorException::`RTTI Complete Object Locator'
PUBLIC	??_R3InternalErrorException@Internal@Core@Math@Palmtree@@8 ; Palmtree::Math::Core::Internal::InternalErrorException::`RTTI Class Hierarchy Descriptor'
PUBLIC	??_R2InternalErrorException@Internal@Core@Math@Palmtree@@8 ; Palmtree::Math::Core::Internal::InternalErrorException::`RTTI Base Class Array'
PUBLIC	??_R1A@?0A@EA@InternalErrorException@Internal@Core@Math@Palmtree@@8 ; Palmtree::Math::Core::Internal::InternalErrorException::`RTTI Base Class Descriptor at (0,-1,0,64)'
PUBLIC	??_R4StringReader@Internal@Core@Math@Palmtree@@6B@ ; Palmtree::Math::Core::Internal::StringReader::`RTTI Complete Object Locator'
PUBLIC	??_R0?AVStringReader@Internal@Core@Math@Palmtree@@@8 ; Palmtree::Math::Core::Internal::StringReader `RTTI Type Descriptor'
PUBLIC	??_R3StringReader@Internal@Core@Math@Palmtree@@8 ; Palmtree::Math::Core::Internal::StringReader::`RTTI Class Hierarchy Descriptor'
PUBLIC	??_R2StringReader@Internal@Core@Math@Palmtree@@8 ; Palmtree::Math::Core::Internal::StringReader::`RTTI Base Class Array'
PUBLIC	??_R1A@?0A@EA@StringReader@Internal@Core@Math@Palmtree@@8 ; Palmtree::Math::Core::Internal::StringReader::`RTTI Base Class Descriptor at (0,-1,0,64)'
PUBLIC	??_R4StringWriter@Internal@Core@Math@Palmtree@@6B@ ; Palmtree::Math::Core::Internal::StringWriter::`RTTI Complete Object Locator'
PUBLIC	??_R0?AVStringWriter@Internal@Core@Math@Palmtree@@@8 ; Palmtree::Math::Core::Internal::StringWriter `RTTI Type Descriptor'
PUBLIC	??_R3StringWriter@Internal@Core@Math@Palmtree@@8 ; Palmtree::Math::Core::Internal::StringWriter::`RTTI Class Hierarchy Descriptor'
PUBLIC	??_R2StringWriter@Internal@Core@Math@Palmtree@@8 ; Palmtree::Math::Core::Internal::StringWriter::`RTTI Base Class Array'
PUBLIC	??_R1A@?0A@EA@StringWriter@Internal@Core@Math@Palmtree@@8 ; Palmtree::Math::Core::Internal::StringWriter::`RTTI Base Class Descriptor at (0,-1,0,64)'
EXTRN	??3@YAXPAXI@Z:PROC				; operator delete
EXTRN	__imp__lstrcmpW@8:PROC
EXTRN	__imp__lstrcpyW@8:PROC
EXTRN	__imp__lstrlenW@4:PROC
EXTRN	___std_exception_destroy:PROC
EXTRN	??_Eexception@std@@UAEPAXI@Z:PROC		; std::exception::`vector deleting destructor'
EXTRN	??_EException@Internal@Core@Math@Palmtree@@UAEPAXI@Z:PROC ; Palmtree::Math::Core::Internal::Exception::`vector deleting destructor'
EXTRN	??_EArgumentException@Internal@Core@Math@Palmtree@@UAEPAXI@Z:PROC ; Palmtree::Math::Core::Internal::ArgumentException::`vector deleting destructor'
EXTRN	??_EArgumentNullException@Internal@Core@Math@Palmtree@@UAEPAXI@Z:PROC ; Palmtree::Math::Core::Internal::ArgumentNullException::`vector deleting destructor'
EXTRN	??_EInsufficientBufferException@Internal@Core@Math@Palmtree@@UAEPAXI@Z:PROC ; Palmtree::Math::Core::Internal::InsufficientBufferException::`vector deleting destructor'
EXTRN	??_EInternalErrorException@Internal@Core@Math@Palmtree@@UAEPAXI@Z:PROC ; Palmtree::Math::Core::Internal::InternalErrorException::`vector deleting destructor'
EXTRN	?CommitNumber@Internal@Core@Math@Palmtree@@YAXPAU__tag_NUMBER_HEADER@1234@@Z:PROC ; Palmtree::Math::Core::Internal::CommitNumber
EXTRN	?InitializeNumberFormatoInfo@Internal@Core@Math@Palmtree@@YAXPAU__tag_PMC_NUMBER_FORMAT_INFO@1234@@Z:PROC ; Palmtree::Math::Core::Internal::InitializeNumberFormatoInfo
EXTRN	??0ResourceHolderUINT@Internal@Core@Math@Palmtree@@QAE@XZ:PROC ; Palmtree::Math::Core::Internal::ResourceHolderUINT::ResourceHolderUINT
EXTRN	??1ResourceHolderUINT@Internal@Core@Math@Palmtree@@UAE@XZ:PROC ; Palmtree::Math::Core::Internal::ResourceHolderUINT::~ResourceHolderUINT
EXTRN	?AllocateBlock@ResourceHolderUINT@Internal@Core@Math@Palmtree@@QAEPAII@Z:PROC ; Palmtree::Math::Core::Internal::ResourceHolderUINT::AllocateBlock
EXTRN	?DeallocateBlock@ResourceHolderUINT@Internal@Core@Math@Palmtree@@QAEXPAI@Z:PROC ; Palmtree::Math::Core::Internal::ResourceHolderUINT::DeallocateBlock
EXTRN	?CheckBlock@ResourceHolderUINT@Internal@Core@Math@Palmtree@@QAEXPAI@Z:PROC ; Palmtree::Math::Core::Internal::ResourceHolderUINT::CheckBlock
EXTRN	?AllocateString@ResourceHolderUINT@Internal@Core@Math@Palmtree@@QAEPA_WI@Z:PROC ; Palmtree::Math::Core::Internal::ResourceHolderUINT::AllocateString
EXTRN	?DeallocateString@ResourceHolderUINT@Internal@Core@Math@Palmtree@@QAEXPA_W@Z:PROC ; Palmtree::Math::Core::Internal::ResourceHolderUINT::DeallocateString
EXTRN	?CheckString@ResourceHolderUINT@Internal@Core@Math@Palmtree@@QAEXPA_W@Z:PROC ; Palmtree::Math::Core::Internal::ResourceHolderUINT::CheckString
EXTRN	?AllocateNumber@ResourceHolderUINT@Internal@Core@Math@Palmtree@@QAEPAU__tag_NUMBER_HEADER@2345@I@Z:PROC ; Palmtree::Math::Core::Internal::ResourceHolderUINT::AllocateNumber
EXTRN	?HookNumber@ResourceHolderUINT@Internal@Core@Math@Palmtree@@QAEXPAU__tag_NUMBER_HEADER@2345@@Z:PROC ; Palmtree::Math::Core::Internal::ResourceHolderUINT::HookNumber
EXTRN	?DeallocateNumber@ResourceHolderUINT@Internal@Core@Math@Palmtree@@QAEXPAU__tag_NUMBER_HEADER@2345@@Z:PROC ; Palmtree::Math::Core::Internal::ResourceHolderUINT::DeallocateNumber
EXTRN	?CheckNumber@ResourceHolderUINT@Internal@Core@Math@Palmtree@@QAEXPAU__tag_NUMBER_HEADER@2345@@Z:PROC ; Palmtree::Math::Core::Internal::ResourceHolderUINT::CheckNumber
EXTRN	?UnlinkNumber@ResourceHolderUINT@Internal@Core@Math@Palmtree@@QAEXPAU__tag_NUMBER_HEADER@2345@@Z:PROC ; Palmtree::Math::Core::Internal::ResourceHolderUINT::UnlinkNumber
EXTRN	@__security_check_cookie@4:PROC
EXTRN	__CxxThrowException@8:PROC
EXTRN	___CxxFrameHandler3:PROC
EXTRN	??_7type_info@@6B@:QWORD			; type_info::`vftable'
EXTRN	?number_zero@Internal@Core@Math@Palmtree@@3U__tag_NUMBER_HEADER@1234@A:BYTE ; Palmtree::Math::Core::Internal::number_zero
EXTRN	?statistics_info@Internal@Core@Math@Palmtree@@3U__tag_PMC_STATISTICS_INFO@1234@A:BYTE ; Palmtree::Math::Core::Internal::statistics_info
EXTRN	___security_cookie:DWORD
_BSS	SEGMENT
?default_number_format_option@Internal@Core@Math@Palmtree@@3U__tag_PMC_NUMBER_FORMAT_INFO@1234@A DB 01e4H DUP (?) ; Palmtree::Math::Core::Internal::default_number_format_option
?fp_MultiplyAndAdd@Internal@Core@Math@Palmtree@@3P6APAIPAIII@ZA DD 01H DUP (?) ; Palmtree::Math::Core::Internal::fp_MultiplyAndAdd
_BSS	ENDS
;	COMDAT ??_R1A@?0A@EA@StringWriter@Internal@Core@Math@Palmtree@@8
rdata$r	SEGMENT
??_R1A@?0A@EA@StringWriter@Internal@Core@Math@Palmtree@@8 DD FLAT:??_R0?AVStringWriter@Internal@Core@Math@Palmtree@@@8 ; Palmtree::Math::Core::Internal::StringWriter::`RTTI Base Class Descriptor at (0,-1,0,64)'
	DD	00H
	DD	00H
	DD	0ffffffffH
	DD	00H
	DD	040H
	DD	FLAT:??_R3StringWriter@Internal@Core@Math@Palmtree@@8
rdata$r	ENDS
;	COMDAT ??_R2StringWriter@Internal@Core@Math@Palmtree@@8
rdata$r	SEGMENT
??_R2StringWriter@Internal@Core@Math@Palmtree@@8 DD FLAT:??_R1A@?0A@EA@StringWriter@Internal@Core@Math@Palmtree@@8 ; Palmtree::Math::Core::Internal::StringWriter::`RTTI Base Class Array'
rdata$r	ENDS
;	COMDAT ??_R3StringWriter@Internal@Core@Math@Palmtree@@8
rdata$r	SEGMENT
??_R3StringWriter@Internal@Core@Math@Palmtree@@8 DD 00H	; Palmtree::Math::Core::Internal::StringWriter::`RTTI Class Hierarchy Descriptor'
	DD	00H
	DD	01H
	DD	FLAT:??_R2StringWriter@Internal@Core@Math@Palmtree@@8
rdata$r	ENDS
;	COMDAT ??_R0?AVStringWriter@Internal@Core@Math@Palmtree@@@8
data$r	SEGMENT
??_R0?AVStringWriter@Internal@Core@Math@Palmtree@@@8 DD FLAT:??_7type_info@@6B@ ; Palmtree::Math::Core::Internal::StringWriter `RTTI Type Descriptor'
	DD	00H
	DB	'.?AVStringWriter@Internal@Core@Math@Palmtree@@', 00H
data$r	ENDS
;	COMDAT ??_R4StringWriter@Internal@Core@Math@Palmtree@@6B@
rdata$r	SEGMENT
??_R4StringWriter@Internal@Core@Math@Palmtree@@6B@ DD 00H ; Palmtree::Math::Core::Internal::StringWriter::`RTTI Complete Object Locator'
	DD	00H
	DD	00H
	DD	FLAT:??_R0?AVStringWriter@Internal@Core@Math@Palmtree@@@8
	DD	FLAT:??_R3StringWriter@Internal@Core@Math@Palmtree@@8
rdata$r	ENDS
;	COMDAT ??_R1A@?0A@EA@StringReader@Internal@Core@Math@Palmtree@@8
rdata$r	SEGMENT
??_R1A@?0A@EA@StringReader@Internal@Core@Math@Palmtree@@8 DD FLAT:??_R0?AVStringReader@Internal@Core@Math@Palmtree@@@8 ; Palmtree::Math::Core::Internal::StringReader::`RTTI Base Class Descriptor at (0,-1,0,64)'
	DD	00H
	DD	00H
	DD	0ffffffffH
	DD	00H
	DD	040H
	DD	FLAT:??_R3StringReader@Internal@Core@Math@Palmtree@@8
rdata$r	ENDS
;	COMDAT ??_R2StringReader@Internal@Core@Math@Palmtree@@8
rdata$r	SEGMENT
??_R2StringReader@Internal@Core@Math@Palmtree@@8 DD FLAT:??_R1A@?0A@EA@StringReader@Internal@Core@Math@Palmtree@@8 ; Palmtree::Math::Core::Internal::StringReader::`RTTI Base Class Array'
rdata$r	ENDS
;	COMDAT ??_R3StringReader@Internal@Core@Math@Palmtree@@8
rdata$r	SEGMENT
??_R3StringReader@Internal@Core@Math@Palmtree@@8 DD 00H	; Palmtree::Math::Core::Internal::StringReader::`RTTI Class Hierarchy Descriptor'
	DD	00H
	DD	01H
	DD	FLAT:??_R2StringReader@Internal@Core@Math@Palmtree@@8
rdata$r	ENDS
;	COMDAT ??_R0?AVStringReader@Internal@Core@Math@Palmtree@@@8
data$r	SEGMENT
??_R0?AVStringReader@Internal@Core@Math@Palmtree@@@8 DD FLAT:??_7type_info@@6B@ ; Palmtree::Math::Core::Internal::StringReader `RTTI Type Descriptor'
	DD	00H
	DB	'.?AVStringReader@Internal@Core@Math@Palmtree@@', 00H
data$r	ENDS
;	COMDAT ??_R4StringReader@Internal@Core@Math@Palmtree@@6B@
rdata$r	SEGMENT
??_R4StringReader@Internal@Core@Math@Palmtree@@6B@ DD 00H ; Palmtree::Math::Core::Internal::StringReader::`RTTI Complete Object Locator'
	DD	00H
	DD	00H
	DD	FLAT:??_R0?AVStringReader@Internal@Core@Math@Palmtree@@@8
	DD	FLAT:??_R3StringReader@Internal@Core@Math@Palmtree@@8
rdata$r	ENDS
;	COMDAT ??_R1A@?0A@EA@InternalErrorException@Internal@Core@Math@Palmtree@@8
rdata$r	SEGMENT
??_R1A@?0A@EA@InternalErrorException@Internal@Core@Math@Palmtree@@8 DD FLAT:??_R0?AVInternalErrorException@Internal@Core@Math@Palmtree@@@8 ; Palmtree::Math::Core::Internal::InternalErrorException::`RTTI Base Class Descriptor at (0,-1,0,64)'
	DD	02H
	DD	00H
	DD	0ffffffffH
	DD	00H
	DD	040H
	DD	FLAT:??_R3InternalErrorException@Internal@Core@Math@Palmtree@@8
rdata$r	ENDS
;	COMDAT ??_R2InternalErrorException@Internal@Core@Math@Palmtree@@8
rdata$r	SEGMENT
??_R2InternalErrorException@Internal@Core@Math@Palmtree@@8 DD FLAT:??_R1A@?0A@EA@InternalErrorException@Internal@Core@Math@Palmtree@@8 ; Palmtree::Math::Core::Internal::InternalErrorException::`RTTI Base Class Array'
	DD	FLAT:??_R1A@?0A@EA@Exception@Internal@Core@Math@Palmtree@@8
	DD	FLAT:??_R1A@?0A@EN@exception@std@@8
rdata$r	ENDS
;	COMDAT ??_R3InternalErrorException@Internal@Core@Math@Palmtree@@8
rdata$r	SEGMENT
??_R3InternalErrorException@Internal@Core@Math@Palmtree@@8 DD 00H ; Palmtree::Math::Core::Internal::InternalErrorException::`RTTI Class Hierarchy Descriptor'
	DD	00H
	DD	03H
	DD	FLAT:??_R2InternalErrorException@Internal@Core@Math@Palmtree@@8
rdata$r	ENDS
;	COMDAT ??_R4InternalErrorException@Internal@Core@Math@Palmtree@@6B@
rdata$r	SEGMENT
??_R4InternalErrorException@Internal@Core@Math@Palmtree@@6B@ DD 00H ; Palmtree::Math::Core::Internal::InternalErrorException::`RTTI Complete Object Locator'
	DD	00H
	DD	00H
	DD	FLAT:??_R0?AVInternalErrorException@Internal@Core@Math@Palmtree@@@8
	DD	FLAT:??_R3InternalErrorException@Internal@Core@Math@Palmtree@@8
rdata$r	ENDS
;	COMDAT ??_R1A@?0A@EA@InsufficientBufferException@Internal@Core@Math@Palmtree@@8
rdata$r	SEGMENT
??_R1A@?0A@EA@InsufficientBufferException@Internal@Core@Math@Palmtree@@8 DD FLAT:??_R0?AVInsufficientBufferException@Internal@Core@Math@Palmtree@@@8 ; Palmtree::Math::Core::Internal::InsufficientBufferException::`RTTI Base Class Descriptor at (0,-1,0,64)'
	DD	02H
	DD	00H
	DD	0ffffffffH
	DD	00H
	DD	040H
	DD	FLAT:??_R3InsufficientBufferException@Internal@Core@Math@Palmtree@@8
rdata$r	ENDS
;	COMDAT ??_R2InsufficientBufferException@Internal@Core@Math@Palmtree@@8
rdata$r	SEGMENT
??_R2InsufficientBufferException@Internal@Core@Math@Palmtree@@8 DD FLAT:??_R1A@?0A@EA@InsufficientBufferException@Internal@Core@Math@Palmtree@@8 ; Palmtree::Math::Core::Internal::InsufficientBufferException::`RTTI Base Class Array'
	DD	FLAT:??_R1A@?0A@EA@Exception@Internal@Core@Math@Palmtree@@8
	DD	FLAT:??_R1A@?0A@EN@exception@std@@8
rdata$r	ENDS
;	COMDAT ??_R3InsufficientBufferException@Internal@Core@Math@Palmtree@@8
rdata$r	SEGMENT
??_R3InsufficientBufferException@Internal@Core@Math@Palmtree@@8 DD 00H ; Palmtree::Math::Core::Internal::InsufficientBufferException::`RTTI Class Hierarchy Descriptor'
	DD	00H
	DD	03H
	DD	FLAT:??_R2InsufficientBufferException@Internal@Core@Math@Palmtree@@8
rdata$r	ENDS
;	COMDAT ??_R4InsufficientBufferException@Internal@Core@Math@Palmtree@@6B@
rdata$r	SEGMENT
??_R4InsufficientBufferException@Internal@Core@Math@Palmtree@@6B@ DD 00H ; Palmtree::Math::Core::Internal::InsufficientBufferException::`RTTI Complete Object Locator'
	DD	00H
	DD	00H
	DD	FLAT:??_R0?AVInsufficientBufferException@Internal@Core@Math@Palmtree@@@8
	DD	FLAT:??_R3InsufficientBufferException@Internal@Core@Math@Palmtree@@8
rdata$r	ENDS
;	COMDAT ??_R1A@?0A@EA@ArgumentNullException@Internal@Core@Math@Palmtree@@8
rdata$r	SEGMENT
??_R1A@?0A@EA@ArgumentNullException@Internal@Core@Math@Palmtree@@8 DD FLAT:??_R0?AVArgumentNullException@Internal@Core@Math@Palmtree@@@8 ; Palmtree::Math::Core::Internal::ArgumentNullException::`RTTI Base Class Descriptor at (0,-1,0,64)'
	DD	02H
	DD	00H
	DD	0ffffffffH
	DD	00H
	DD	040H
	DD	FLAT:??_R3ArgumentNullException@Internal@Core@Math@Palmtree@@8
rdata$r	ENDS
;	COMDAT ??_R2ArgumentNullException@Internal@Core@Math@Palmtree@@8
rdata$r	SEGMENT
??_R2ArgumentNullException@Internal@Core@Math@Palmtree@@8 DD FLAT:??_R1A@?0A@EA@ArgumentNullException@Internal@Core@Math@Palmtree@@8 ; Palmtree::Math::Core::Internal::ArgumentNullException::`RTTI Base Class Array'
	DD	FLAT:??_R1A@?0A@EA@Exception@Internal@Core@Math@Palmtree@@8
	DD	FLAT:??_R1A@?0A@EN@exception@std@@8
rdata$r	ENDS
;	COMDAT ??_R3ArgumentNullException@Internal@Core@Math@Palmtree@@8
rdata$r	SEGMENT
??_R3ArgumentNullException@Internal@Core@Math@Palmtree@@8 DD 00H ; Palmtree::Math::Core::Internal::ArgumentNullException::`RTTI Class Hierarchy Descriptor'
	DD	00H
	DD	03H
	DD	FLAT:??_R2ArgumentNullException@Internal@Core@Math@Palmtree@@8
rdata$r	ENDS
;	COMDAT ??_R4ArgumentNullException@Internal@Core@Math@Palmtree@@6B@
rdata$r	SEGMENT
??_R4ArgumentNullException@Internal@Core@Math@Palmtree@@6B@ DD 00H ; Palmtree::Math::Core::Internal::ArgumentNullException::`RTTI Complete Object Locator'
	DD	00H
	DD	00H
	DD	FLAT:??_R0?AVArgumentNullException@Internal@Core@Math@Palmtree@@@8
	DD	FLAT:??_R3ArgumentNullException@Internal@Core@Math@Palmtree@@8
rdata$r	ENDS
;	COMDAT ??_R1A@?0A@EA@ArgumentException@Internal@Core@Math@Palmtree@@8
rdata$r	SEGMENT
??_R1A@?0A@EA@ArgumentException@Internal@Core@Math@Palmtree@@8 DD FLAT:??_R0?AVArgumentException@Internal@Core@Math@Palmtree@@@8 ; Palmtree::Math::Core::Internal::ArgumentException::`RTTI Base Class Descriptor at (0,-1,0,64)'
	DD	02H
	DD	00H
	DD	0ffffffffH
	DD	00H
	DD	040H
	DD	FLAT:??_R3ArgumentException@Internal@Core@Math@Palmtree@@8
rdata$r	ENDS
;	COMDAT ??_R2ArgumentException@Internal@Core@Math@Palmtree@@8
rdata$r	SEGMENT
??_R2ArgumentException@Internal@Core@Math@Palmtree@@8 DD FLAT:??_R1A@?0A@EA@ArgumentException@Internal@Core@Math@Palmtree@@8 ; Palmtree::Math::Core::Internal::ArgumentException::`RTTI Base Class Array'
	DD	FLAT:??_R1A@?0A@EA@Exception@Internal@Core@Math@Palmtree@@8
	DD	FLAT:??_R1A@?0A@EN@exception@std@@8
rdata$r	ENDS
;	COMDAT ??_R3ArgumentException@Internal@Core@Math@Palmtree@@8
rdata$r	SEGMENT
??_R3ArgumentException@Internal@Core@Math@Palmtree@@8 DD 00H ; Palmtree::Math::Core::Internal::ArgumentException::`RTTI Class Hierarchy Descriptor'
	DD	00H
	DD	03H
	DD	FLAT:??_R2ArgumentException@Internal@Core@Math@Palmtree@@8
rdata$r	ENDS
;	COMDAT ??_R4ArgumentException@Internal@Core@Math@Palmtree@@6B@
rdata$r	SEGMENT
??_R4ArgumentException@Internal@Core@Math@Palmtree@@6B@ DD 00H ; Palmtree::Math::Core::Internal::ArgumentException::`RTTI Complete Object Locator'
	DD	00H
	DD	00H
	DD	FLAT:??_R0?AVArgumentException@Internal@Core@Math@Palmtree@@@8
	DD	FLAT:??_R3ArgumentException@Internal@Core@Math@Palmtree@@8
rdata$r	ENDS
;	COMDAT ??_R1A@?0A@EN@exception@std@@8
rdata$r	SEGMENT
??_R1A@?0A@EN@exception@std@@8 DD FLAT:??_R0?AVexception@std@@@8 ; std::exception::`RTTI Base Class Descriptor at (0,-1,0,77)'
	DD	00H
	DD	00H
	DD	0ffffffffH
	DD	00H
	DD	04dH
	DD	FLAT:??_R3exception@std@@8
rdata$r	ENDS
;	COMDAT ??_R1A@?0A@EA@Exception@Internal@Core@Math@Palmtree@@8
rdata$r	SEGMENT
??_R1A@?0A@EA@Exception@Internal@Core@Math@Palmtree@@8 DD FLAT:??_R0?AVException@Internal@Core@Math@Palmtree@@@8 ; Palmtree::Math::Core::Internal::Exception::`RTTI Base Class Descriptor at (0,-1,0,64)'
	DD	01H
	DD	00H
	DD	0ffffffffH
	DD	00H
	DD	040H
	DD	FLAT:??_R3Exception@Internal@Core@Math@Palmtree@@8
rdata$r	ENDS
;	COMDAT ??_R2Exception@Internal@Core@Math@Palmtree@@8
rdata$r	SEGMENT
??_R2Exception@Internal@Core@Math@Palmtree@@8 DD FLAT:??_R1A@?0A@EA@Exception@Internal@Core@Math@Palmtree@@8 ; Palmtree::Math::Core::Internal::Exception::`RTTI Base Class Array'
	DD	FLAT:??_R1A@?0A@EN@exception@std@@8
rdata$r	ENDS
;	COMDAT ??_R3Exception@Internal@Core@Math@Palmtree@@8
rdata$r	SEGMENT
??_R3Exception@Internal@Core@Math@Palmtree@@8 DD 00H	; Palmtree::Math::Core::Internal::Exception::`RTTI Class Hierarchy Descriptor'
	DD	00H
	DD	02H
	DD	FLAT:??_R2Exception@Internal@Core@Math@Palmtree@@8
rdata$r	ENDS
;	COMDAT ??_R4Exception@Internal@Core@Math@Palmtree@@6B@
rdata$r	SEGMENT
??_R4Exception@Internal@Core@Math@Palmtree@@6B@ DD 00H	; Palmtree::Math::Core::Internal::Exception::`RTTI Complete Object Locator'
	DD	00H
	DD	00H
	DD	FLAT:??_R0?AVException@Internal@Core@Math@Palmtree@@@8
	DD	FLAT:??_R3Exception@Internal@Core@Math@Palmtree@@8
rdata$r	ENDS
;	COMDAT ??_R1A@?0A@EA@exception@std@@8
rdata$r	SEGMENT
??_R1A@?0A@EA@exception@std@@8 DD FLAT:??_R0?AVexception@std@@@8 ; std::exception::`RTTI Base Class Descriptor at (0,-1,0,64)'
	DD	00H
	DD	00H
	DD	0ffffffffH
	DD	00H
	DD	040H
	DD	FLAT:??_R3exception@std@@8
rdata$r	ENDS
;	COMDAT ??_R2exception@std@@8
rdata$r	SEGMENT
??_R2exception@std@@8 DD FLAT:??_R1A@?0A@EA@exception@std@@8 ; std::exception::`RTTI Base Class Array'
rdata$r	ENDS
;	COMDAT ??_R3exception@std@@8
rdata$r	SEGMENT
??_R3exception@std@@8 DD 00H				; std::exception::`RTTI Class Hierarchy Descriptor'
	DD	00H
	DD	01H
	DD	FLAT:??_R2exception@std@@8
rdata$r	ENDS
;	COMDAT ??_R0?AVexception@std@@@8
data$r	SEGMENT
??_R0?AVexception@std@@@8 DD FLAT:??_7type_info@@6B@	; std::exception `RTTI Type Descriptor'
	DD	00H
	DB	'.?AVexception@std@@', 00H
data$r	ENDS
;	COMDAT ??_R4exception@std@@6B@
rdata$r	SEGMENT
??_R4exception@std@@6B@ DD 00H				; std::exception::`RTTI Complete Object Locator'
	DD	00H
	DD	00H
	DD	FLAT:??_R0?AVexception@std@@@8
	DD	FLAT:??_R3exception@std@@8
rdata$r	ENDS
;	COMDAT ??_C@_1M@LGAEBGCK@?$AAo?$AA_?$AAa?$AAb?$AAs@
CONST	SEGMENT
??_C@_1M@LGAEBGCK@?$AAo?$AA_?$AAa?$AAb?$AAs@ DB 'o', 00H, '_', 00H, 'a', 00H
	DB	'b', 00H, 's', 00H, 00H, 00H			; `string'
CONST	ENDS
;	COMDAT ??_C@_1O@KGDAECED@?$AAo?$AA_?$AAs?$AAi?$AAg?$AAn@
CONST	SEGMENT
??_C@_1O@KGDAECED@?$AAo?$AA_?$AAs?$AAi?$AAg?$AAn@ DB 'o', 00H, '_', 00H, 's'
	DB	00H, 'i', 00H, 'g', 00H, 'n', 00H, 00H, 00H	; `string'
CONST	ENDS
;	COMDAT ??_C@_13LNPOMHLG@?$AAo@
CONST	SEGMENT
??_C@_13LNPOMHLG@?$AAo@ DB 'o', 00H, 00H, 00H		; `string'
CONST	ENDS
;	COMDAT ??_C@_1CK@ECFIEPAC@?$AA?$BF?$AAp?$AAk?$AAn?$AAu?$AAl?$AAl?$AAp?$AAt?$AAr?$AAL?$AA?$AO?$AAH?$PP?$IJ?$PP?$IM@
CONST	SEGMENT
??_C@_1CK@ECFIEPAC@?$AA?$BF?$AAp?$AAk?$AAn?$AAu?$AAl?$AAl?$AAp?$AAt?$AAr?$AAL?$AA?$AO?$AAH?$PP?$IJ?$PP?$IM@ DB 015H
	DB	'_pek0n', 00H, 'u', 00H, 'l', 00H, 'l', 00H, 'p', 00H, 't', 00H
	DB	'r', 00H, 'L0', 0eH, 'NH0', 089H, '0', 08cH, '0f0D0~0Y0', 02H, '0'
	DB	00H, 00H					; `string'
CONST	ENDS
;	COMDAT ??_C@_1O@JOABEBCL@?$AAs?$AAo?$AAu?$AAr?$AAc?$AAe@
CONST	SEGMENT
??_C@_1O@JOABEBCL@?$AAs?$AAo?$AAu?$AAr?$AAc?$AAe@ DB 's', 00H, 'o', 00H, 'u'
	DB	00H, 'r', 00H, 'c', 00H, 'e', 00H, 00H, 00H	; `string'
CONST	ENDS
;	COMDAT __CT??_R0?AVArgumentNullException@Internal@Core@Math@Palmtree@@@8??0ArgumentNullException@Internal@Core@Math@Palmtree@@QAE@ABV01234@@Z24
xdata$x	SEGMENT
__CT??_R0?AVArgumentNullException@Internal@Core@Math@Palmtree@@@8??0ArgumentNullException@Internal@Core@Math@Palmtree@@QAE@ABV01234@@Z24 DD 00H
	DD	FLAT:??_R0?AVArgumentNullException@Internal@Core@Math@Palmtree@@@8
	DD	00H
	DD	0ffffffffH
	ORG $+4
	DD	018H
	DD	FLAT:??0ArgumentNullException@Internal@Core@Math@Palmtree@@QAE@ABV01234@@Z
xdata$x	ENDS
;	COMDAT ??_R0?AVArgumentNullException@Internal@Core@Math@Palmtree@@@8
data$r	SEGMENT
??_R0?AVArgumentNullException@Internal@Core@Math@Palmtree@@@8 DD FLAT:??_7type_info@@6B@ ; Palmtree::Math::Core::Internal::ArgumentNullException `RTTI Type Descriptor'
	DD	00H
	DB	'.?AVArgumentNullException@Internal@Core@Math@Palmtree@@', 00H
data$r	ENDS
;	COMDAT __CTA2?AVArgumentNullException@Internal@Core@Math@Palmtree@@
xdata$x	SEGMENT
__CTA2?AVArgumentNullException@Internal@Core@Math@Palmtree@@ DD 02H
	DD	FLAT:__CT??_R0?AVArgumentNullException@Internal@Core@Math@Palmtree@@@8??0ArgumentNullException@Internal@Core@Math@Palmtree@@QAE@ABV01234@@Z24
	DD	FLAT:__CT??_R0?AVException@Internal@Core@Math@Palmtree@@@8??0Exception@Internal@Core@Math@Palmtree@@QAE@ABV01234@@Z24
xdata$x	ENDS
;	COMDAT __TI2?AVArgumentNullException@Internal@Core@Math@Palmtree@@
xdata$x	SEGMENT
__TI2?AVArgumentNullException@Internal@Core@Math@Palmtree@@ DD 00H
	DD	FLAT:??1ArgumentNullException@Internal@Core@Math@Palmtree@@UAE@XZ
	DD	00H
	DD	FLAT:__CTA2?AVArgumentNullException@Internal@Core@Math@Palmtree@@
xdata$x	ENDS
;	COMDAT ??_C@_1FG@MPGAEBOC@?$AA?$BF?$AAp?$AAn?$AAu?$AAm?$AAb?$AAe?$AAr?$AA_?$AAs?$AAt?$AAy?$AAl?$AAe?$AAs@
CONST	SEGMENT
??_C@_1FG@MPGAEBOC@?$AA?$BF?$AAp?$AAn?$AAu?$AAm?$AAb?$AAe?$AAr?$AA_?$AAs?$AAt?$AAy?$AAl?$AAe?$AAs@ DB 015H
	DB	'_pen', 00H, 'u', 00H, 'm', 00H, 'b', 00H, 'e', 00H, 'r', 00H, '_'
	DB	00H, 's', 00H, 't', 00H, 'y', 00H, 'l', 00H, 'e', 00H, 's', 00H
	DB	'k01', 08aH, 0efH, 'SU0', 08cH, '0f0D0j0D0D}', 07fH, '0', 08H, 'T'
	DB	08fH, '0[0n0', 0d5H, '0', 0e9H, '0', 0b0H, '0L0', 07H, 'c', 09aH
	DB	'[U0', 08cH, '0~0W0_0', 02H, '0', 00H, 00H	; `string'
CONST	ENDS
;	COMDAT __CT??_R0?AVArgumentException@Internal@Core@Math@Palmtree@@@8??0ArgumentException@Internal@Core@Math@Palmtree@@QAE@ABV01234@@Z24
xdata$x	SEGMENT
__CT??_R0?AVArgumentException@Internal@Core@Math@Palmtree@@@8??0ArgumentException@Internal@Core@Math@Palmtree@@QAE@ABV01234@@Z24 DD 00H
	DD	FLAT:??_R0?AVArgumentException@Internal@Core@Math@Palmtree@@@8
	DD	00H
	DD	0ffffffffH
	ORG $+4
	DD	018H
	DD	FLAT:??0ArgumentException@Internal@Core@Math@Palmtree@@QAE@ABV01234@@Z
xdata$x	ENDS
;	COMDAT ??_R0?AVArgumentException@Internal@Core@Math@Palmtree@@@8
data$r	SEGMENT
??_R0?AVArgumentException@Internal@Core@Math@Palmtree@@@8 DD FLAT:??_7type_info@@6B@ ; Palmtree::Math::Core::Internal::ArgumentException `RTTI Type Descriptor'
	DD	00H
	DB	'.?AVArgumentException@Internal@Core@Math@Palmtree@@', 00H
data$r	ENDS
;	COMDAT __CTA2?AVArgumentException@Internal@Core@Math@Palmtree@@
xdata$x	SEGMENT
__CTA2?AVArgumentException@Internal@Core@Math@Palmtree@@ DD 02H
	DD	FLAT:__CT??_R0?AVArgumentException@Internal@Core@Math@Palmtree@@@8??0ArgumentException@Internal@Core@Math@Palmtree@@QAE@ABV01234@@Z24
	DD	FLAT:__CT??_R0?AVException@Internal@Core@Math@Palmtree@@@8??0Exception@Internal@Core@Math@Palmtree@@QAE@ABV01234@@Z24
xdata$x	ENDS
;	COMDAT __TI2?AVArgumentException@Internal@Core@Math@Palmtree@@
xdata$x	SEGMENT
__TI2?AVArgumentException@Internal@Core@Math@Palmtree@@ DD 00H
	DD	FLAT:??1ArgumentException@Internal@Core@Math@Palmtree@@UAE@XZ
	DD	00H
	DD	FLAT:__CTA2?AVArgumentException@Internal@Core@Math@Palmtree@@
xdata$x	ENDS
;	COMDAT ??_C@_13DIBMAFH@?$AA?$CJ@
CONST	SEGMENT
??_C@_13DIBMAFH@?$AA?$CJ@ DB ')', 00H, 00H, 00H		; `string'
CONST	ENDS
;	COMDAT ??_C@_13LLDNKHDC@?$AA?$CI@
CONST	SEGMENT
??_C@_13LLDNKHDC@?$AA?$CI@ DB '(', 00H, 00H, 00H	; `string'
CONST	ENDS
;	COMDAT ??_C@_13HOIJIPNN@?$AA?5@
CONST	SEGMENT
??_C@_13HOIJIPNN@?$AA?5@ DB ' ', 00H, 00H, 00H		; `string'
CONST	ENDS
;	COMDAT ??_C@_13JDNADJOG@?$PP?$KA@
CONST	SEGMENT
??_C@_13JDNADJOG@?$PP?$KA@ DB 0a0H, 00H, 00H, 00H	; `string'
CONST	ENDS
;	COMDAT ??_C@_1EK@MEBBKDKE@?$AAp?$AAm?$AAc?$AA_?$AAp?$AAa?$AAr?$AAs?$AAe?$AA?$DL?$AAP?$AAa?$AAr?$AAs?$AAe@
CONST	SEGMENT
??_C@_1EK@MEBBKDKE@?$AAp?$AAm?$AAc?$AA_?$AAp?$AAa?$AAr?$AAs?$AAe?$AA?$DL?$AAP?$AAa?$AAr?$AAs?$AAe@ DB 'p'
	DB	00H, 'm', 00H, 'c', 00H, '_', 00H, 'p', 00H, 'a', 00H, 'r', 00H
	DB	's', 00H, 'e', 00H, ';', 00H, 'P', 00H, 'a', 00H, 'r', 00H, 's'
	DB	00H, 'e', 00H, 'r', 00H, 'S', 00H, 't', 00H, 'a', 00H, 't', 00H
	DB	'e', 00H, ':', 00H, ':', 00H, 'P', 00H, 'a', 00H, 'r', 00H, 's'
	DB	00H, 'e', 00H, 'r', 00H, 'S', 00H, 't', 00H, 'a', 00H, 't', 00H
	DB	'e', 00H, ';', 00H, '7', 00H, 00H, 00H	; `string'
CONST	ENDS
;	COMDAT ??_C@_1EK@HMKNMEMB@?$AAp?$AAm?$AAc?$AA_?$AAp?$AAa?$AAr?$AAs?$AAe?$AA?$DL?$AAP?$AAa?$AAr?$AAs?$AAe@
CONST	SEGMENT
??_C@_1EK@HMKNMEMB@?$AAp?$AAm?$AAc?$AA_?$AAp?$AAa?$AAr?$AAs?$AAe?$AA?$DL?$AAP?$AAa?$AAr?$AAs?$AAe@ DB 'p'
	DB	00H, 'm', 00H, 'c', 00H, '_', 00H, 'p', 00H, 'a', 00H, 'r', 00H
	DB	's', 00H, 'e', 00H, ';', 00H, 'P', 00H, 'a', 00H, 'r', 00H, 's'
	DB	00H, 'e', 00H, 'r', 00H, 'S', 00H, 't', 00H, 'a', 00H, 't', 00H
	DB	'e', 00H, ':', 00H, ':', 00H, 'P', 00H, 'a', 00H, 'r', 00H, 's'
	DB	00H, 'e', 00H, 'r', 00H, 'S', 00H, 't', 00H, 'a', 00H, 't', 00H
	DB	'e', 00H, ';', 00H, '6', 00H, 00H, 00H	; `string'
CONST	ENDS
;	COMDAT ??_C@_1EK@GOBIGLCP@?$AAp?$AAm?$AAc?$AA_?$AAp?$AAa?$AAr?$AAs?$AAe?$AA?$DL?$AAP?$AAa?$AAr?$AAs?$AAe@
CONST	SEGMENT
??_C@_1EK@GOBIGLCP@?$AAp?$AAm?$AAc?$AA_?$AAp?$AAa?$AAr?$AAs?$AAe?$AA?$DL?$AAP?$AAa?$AAr?$AAs?$AAe@ DB 'p'
	DB	00H, 'm', 00H, 'c', 00H, '_', 00H, 'p', 00H, 'a', 00H, 'r', 00H
	DB	's', 00H, 'e', 00H, ';', 00H, 'P', 00H, 'a', 00H, 'r', 00H, 's'
	DB	00H, 'e', 00H, 'r', 00H, 'S', 00H, 't', 00H, 'a', 00H, 't', 00H
	DB	'e', 00H, ':', 00H, ':', 00H, 'P', 00H, 'a', 00H, 'r', 00H, 's'
	DB	00H, 'e', 00H, 'r', 00H, 'S', 00H, 't', 00H, 'a', 00H, 't', 00H
	DB	'e', 00H, ';', 00H, '5', 00H, 00H, 00H	; `string'
CONST	ENDS
;	COMDAT ??_C@_1EK@NGKEAMEK@?$AAp?$AAm?$AAc?$AA_?$AAp?$AAa?$AAr?$AAs?$AAe?$AA?$DL?$AAP?$AAa?$AAr?$AAs?$AAe@
CONST	SEGMENT
??_C@_1EK@NGKEAMEK@?$AAp?$AAm?$AAc?$AA_?$AAp?$AAa?$AAr?$AAs?$AAe?$AA?$DL?$AAP?$AAa?$AAr?$AAs?$AAe@ DB 'p'
	DB	00H, 'm', 00H, 'c', 00H, '_', 00H, 'p', 00H, 'a', 00H, 'r', 00H
	DB	's', 00H, 'e', 00H, ';', 00H, 'P', 00H, 'a', 00H, 'r', 00H, 's'
	DB	00H, 'e', 00H, 'r', 00H, 'S', 00H, 't', 00H, 'a', 00H, 't', 00H
	DB	'e', 00H, ':', 00H, ':', 00H, 'P', 00H, 'a', 00H, 'r', 00H, 's'
	DB	00H, 'e', 00H, 'r', 00H, 'S', 00H, 't', 00H, 'a', 00H, 't', 00H
	DB	'e', 00H, ';', 00H, '4', 00H, 00H, 00H	; `string'
CONST	ENDS
;	COMDAT ??_C@_1EK@ELHDDEPD@?$AAp?$AAm?$AAc?$AA_?$AAp?$AAa?$AAr?$AAs?$AAe?$AA?$DL?$AAP?$AAa?$AAr?$AAs?$AAe@
CONST	SEGMENT
??_C@_1EK@ELHDDEPD@?$AAp?$AAm?$AAc?$AA_?$AAp?$AAa?$AAr?$AAs?$AAe?$AA?$DL?$AAP?$AAa?$AAr?$AAs?$AAe@ DB 'p'
	DB	00H, 'm', 00H, 'c', 00H, '_', 00H, 'p', 00H, 'a', 00H, 'r', 00H
	DB	's', 00H, 'e', 00H, ';', 00H, 'P', 00H, 'a', 00H, 'r', 00H, 's'
	DB	00H, 'e', 00H, 'r', 00H, 'S', 00H, 't', 00H, 'a', 00H, 't', 00H
	DB	'e', 00H, ':', 00H, ':', 00H, 'P', 00H, 'a', 00H, 'r', 00H, 's'
	DB	00H, 'e', 00H, 'r', 00H, 'S', 00H, 't', 00H, 'a', 00H, 't', 00H
	DB	'e', 00H, ';', 00H, '3', 00H, 00H, 00H	; `string'
CONST	ENDS
;	COMDAT ??_C@_1EK@PDMPFDJG@?$AAp?$AAm?$AAc?$AA_?$AAp?$AAa?$AAr?$AAs?$AAe?$AA?$DL?$AAP?$AAa?$AAr?$AAs?$AAe@
CONST	SEGMENT
??_C@_1EK@PDMPFDJG@?$AAp?$AAm?$AAc?$AA_?$AAp?$AAa?$AAr?$AAs?$AAe?$AA?$DL?$AAP?$AAa?$AAr?$AAs?$AAe@ DB 'p'
	DB	00H, 'm', 00H, 'c', 00H, '_', 00H, 'p', 00H, 'a', 00H, 'r', 00H
	DB	's', 00H, 'e', 00H, ';', 00H, 'P', 00H, 'a', 00H, 'r', 00H, 's'
	DB	00H, 'e', 00H, 'r', 00H, 'S', 00H, 't', 00H, 'a', 00H, 't', 00H
	DB	'e', 00H, ':', 00H, ':', 00H, 'P', 00H, 'a', 00H, 'r', 00H, 's'
	DB	00H, 'e', 00H, 'r', 00H, 'S', 00H, 't', 00H, 'a', 00H, 't', 00H
	DB	'e', 00H, ';', 00H, '2', 00H, 00H, 00H	; `string'
CONST	ENDS
;	COMDAT ??_C@_1EK@OBHKPMHI@?$AAp?$AAm?$AAc?$AA_?$AAp?$AAa?$AAr?$AAs?$AAe?$AA?$DL?$AAP?$AAa?$AAr?$AAs?$AAe@
CONST	SEGMENT
??_C@_1EK@OBHKPMHI@?$AAp?$AAm?$AAc?$AA_?$AAp?$AAa?$AAr?$AAs?$AAe?$AA?$DL?$AAP?$AAa?$AAr?$AAs?$AAe@ DB 'p'
	DB	00H, 'm', 00H, 'c', 00H, '_', 00H, 'p', 00H, 'a', 00H, 'r', 00H
	DB	's', 00H, 'e', 00H, ';', 00H, 'P', 00H, 'a', 00H, 'r', 00H, 's'
	DB	00H, 'e', 00H, 'r', 00H, 'S', 00H, 't', 00H, 'a', 00H, 't', 00H
	DB	'e', 00H, ':', 00H, ':', 00H, 'P', 00H, 'a', 00H, 'r', 00H, 's'
	DB	00H, 'e', 00H, 'r', 00H, 'S', 00H, 't', 00H, 'a', 00H, 't', 00H
	DB	'e', 00H, ';', 00H, '1', 00H, 00H, 00H	; `string'
CONST	ENDS
;	COMDAT ??_C@_1CO@JABAMCFP@?$PP?x?$AAM?$PP?$LM?$AA?$HP?$AAH?$PP?P?$PP?C?$PP?U?$PP?$KB?$AAn?$PP?$LF?$PP?$KE?$PP?$LK?$AAL?$AA?$AN@
CONST	SEGMENT
??_C@_1CO@JABAMCFP@?$PP?x?$AAM?$PP?$LM?$AA?$HP?$AAH?$PP?P?$PP?C?$PP?U?$PP?$KB?$AAn?$PP?$LF?$PP?$KE?$PP?$LK?$AAL?$AA?$AN@ DB 0f8H
	DB	'fM0', 0bcH, 08fH, 07fH, '0HQ', 0d0H, '0', 0c3H, '0', 0d5H, '0'
	DB	0a1H, '0n0', 0b5H, '0', 0a4H, '0', 0baH, '0L0', 0dH, 'N', 0b3H
	DB	08dH, 'W0f0D0~0Y0', 02H, '0', 00H, 00H	; `string'
CONST	ENDS
;	COMDAT __CT??_R0?AVInsufficientBufferException@Internal@Core@Math@Palmtree@@@8??0InsufficientBufferException@Internal@Core@Math@Palmtree@@QAE@ABV01234@@Z24
xdata$x	SEGMENT
__CT??_R0?AVInsufficientBufferException@Internal@Core@Math@Palmtree@@@8??0InsufficientBufferException@Internal@Core@Math@Palmtree@@QAE@ABV01234@@Z24 DD 00H
	DD	FLAT:??_R0?AVInsufficientBufferException@Internal@Core@Math@Palmtree@@@8
	DD	00H
	DD	0ffffffffH
	ORG $+4
	DD	018H
	DD	FLAT:??0InsufficientBufferException@Internal@Core@Math@Palmtree@@QAE@ABV01234@@Z
xdata$x	ENDS
;	COMDAT ??_R0?AVInsufficientBufferException@Internal@Core@Math@Palmtree@@@8
data$r	SEGMENT
??_R0?AVInsufficientBufferException@Internal@Core@Math@Palmtree@@@8 DD FLAT:??_7type_info@@6B@ ; Palmtree::Math::Core::Internal::InsufficientBufferException `RTTI Type Descriptor'
	DD	00H
	DB	'.?AVInsufficientBufferException@Internal@Core@Math@Palmt'
	DB	'ree@@', 00H
data$r	ENDS
;	COMDAT __CTA2?AVInsufficientBufferException@Internal@Core@Math@Palmtree@@
xdata$x	SEGMENT
__CTA2?AVInsufficientBufferException@Internal@Core@Math@Palmtree@@ DD 02H
	DD	FLAT:__CT??_R0?AVInsufficientBufferException@Internal@Core@Math@Palmtree@@@8??0InsufficientBufferException@Internal@Core@Math@Palmtree@@QAE@ABV01234@@Z24
	DD	FLAT:__CT??_R0?AVException@Internal@Core@Math@Palmtree@@@8??0Exception@Internal@Core@Math@Palmtree@@QAE@ABV01234@@Z24
xdata$x	ENDS
;	COMDAT __TI2?AVInsufficientBufferException@Internal@Core@Math@Palmtree@@
xdata$x	SEGMENT
__TI2?AVInsufficientBufferException@Internal@Core@Math@Palmtree@@ DD 00H
	DD	FLAT:??1InsufficientBufferException@Internal@Core@Math@Palmtree@@UAE@XZ
	DD	00H
	DD	FLAT:__CTA2?AVInsufficientBufferException@Internal@Core@Math@Palmtree@@
xdata$x	ENDS
;	COMDAT ??_7StringWriter@Internal@Core@Math@Palmtree@@6B@
CONST	SEGMENT
??_7StringWriter@Internal@Core@Math@Palmtree@@6B@ DD FLAT:??_R4StringWriter@Internal@Core@Math@Palmtree@@6B@ ; Palmtree::Math::Core::Internal::StringWriter::`vftable'
	DD	FLAT:?Write@StringWriter@Internal@Core@Math@Palmtree@@UAEXPB_W@Z
	DD	FLAT:?Write@StringWriter@Internal@Core@Math@Palmtree@@UAEX_W@Z
	DD	FLAT:?GetString@StringWriter@Internal@Core@Math@Palmtree@@UAEPA_WXZ
CONST	ENDS
;	COMDAT ??_C@_1FE@KONPIGEM@?$AAp?$AAm?$AAc?$AA_?$AAs?$AAt?$AAr?$AAi?$AAn?$AAg?$AAi?$AAo?$AA?4?$AAh?$AA?$DL@
CONST	SEGMENT
??_C@_1FE@KONPIGEM@?$AAp?$AAm?$AAc?$AA_?$AAs?$AAt?$AAr?$AAi?$AAn?$AAg?$AAi?$AAo?$AA?4?$AAh?$AA?$DL@ DB 'p'
	DB	00H, 'm', 00H, 'c', 00H, '_', 00H, 's', 00H, 't', 00H, 'r', 00H
	DB	'i', 00H, 'n', 00H, 'g', 00H, 'i', 00H, 'o', 00H, '.', 00H, 'h'
	DB	00H, ';', 00H, 'S', 00H, 't', 00H, 'r', 00H, 'i', 00H, 'n', 00H
	DB	'g', 00H, 'R', 00H, 'e', 00H, 'a', 00H, 'd', 00H, 'e', 00H, 'r'
	DB	00H, ':', 00H, ':', 00H, 'S', 00H, 'k', 00H, 'i', 00H, 'p', 00H
	DB	'S', 00H, 't', 00H, 'r', 00H, 'i', 00H, 'n', 00H, 'g', 00H, ';'
	DB	00H, '1', 00H, 00H, 00H			; `string'
CONST	ENDS
;	COMDAT ??_C@_1BM@FCPAHMHB@?$PP?$IF?$PP?h?$PP?$KI?$PP?i?$PP?$PM?$AAL?$AAz?$AA?$BP?$AAW?$AA?$HO?$AAW?$AA_?$AA?$AC@
CONST	SEGMENT
??_C@_1BM@FCPAHMHB@?$PP?$IF?$PP?h?$PP?$KI?$PP?i?$PP?$PM?$AAL?$AAz?$AA?$BP?$AAW?$AA?$HO?$AAW?$AA_?$AA?$AC@ DB 085H
	DB	'Q', 0e8H, 090H, 0a8H, '0', 0e9H, '0', 0fcH, '0L0zv', 01fH, 'u'
	DB	'W0~0W0_0', 02H, '0', 00H, 00H		; `string'
CONST	ENDS
;	COMDAT ??_C@_1FA@CNGEABBJ@?$AAp?$AAm?$AAc?$AA_?$AAs?$AAt?$AAr?$AAi?$AAn?$AAg?$AAi?$AAo?$AA?4?$AAh?$AA?$DL@
CONST	SEGMENT
??_C@_1FA@CNGEABBJ@?$AAp?$AAm?$AAc?$AA_?$AAs?$AAt?$AAr?$AAi?$AAn?$AAg?$AAi?$AAo?$AA?4?$AAh?$AA?$DL@ DB 'p'
	DB	00H, 'm', 00H, 'c', 00H, '_', 00H, 's', 00H, 't', 00H, 'r', 00H
	DB	'i', 00H, 'n', 00H, 'g', 00H, 'i', 00H, 'o', 00H, '.', 00H, 'h'
	DB	00H, ';', 00H, 'S', 00H, 't', 00H, 'r', 00H, 'i', 00H, 'n', 00H
	DB	'g', 00H, 'R', 00H, 'e', 00H, 'a', 00H, 'd', 00H, 'e', 00H, 'r'
	DB	00H, ':', 00H, ':', 00H, 'P', 00H, 'r', 00H, 'o', 00H, 'g', 00H
	DB	'r', 00H, 'e', 00H, 's', 00H, 's', 00H, ';', 00H, '1', 00H, 00H
	DB	00H						; `string'
CONST	ENDS
;	COMDAT __CT??_R0?AVException@Internal@Core@Math@Palmtree@@@8??0Exception@Internal@Core@Math@Palmtree@@QAE@ABV01234@@Z24
xdata$x	SEGMENT
__CT??_R0?AVException@Internal@Core@Math@Palmtree@@@8??0Exception@Internal@Core@Math@Palmtree@@QAE@ABV01234@@Z24 DD 00H
	DD	FLAT:??_R0?AVException@Internal@Core@Math@Palmtree@@@8
	DD	00H
	DD	0ffffffffH
	ORG $+4
	DD	018H
	DD	FLAT:??0Exception@Internal@Core@Math@Palmtree@@QAE@ABV01234@@Z
xdata$x	ENDS
;	COMDAT ??_R0?AVException@Internal@Core@Math@Palmtree@@@8
data$r	SEGMENT
??_R0?AVException@Internal@Core@Math@Palmtree@@@8 DD FLAT:??_7type_info@@6B@ ; Palmtree::Math::Core::Internal::Exception `RTTI Type Descriptor'
	DD	00H
	DB	'.?AVException@Internal@Core@Math@Palmtree@@', 00H
data$r	ENDS
;	COMDAT __CT??_R0?AVInternalErrorException@Internal@Core@Math@Palmtree@@@8??0InternalErrorException@Internal@Core@Math@Palmtree@@QAE@ABV01234@@Z24
xdata$x	SEGMENT
__CT??_R0?AVInternalErrorException@Internal@Core@Math@Palmtree@@@8??0InternalErrorException@Internal@Core@Math@Palmtree@@QAE@ABV01234@@Z24 DD 00H
	DD	FLAT:??_R0?AVInternalErrorException@Internal@Core@Math@Palmtree@@@8
	DD	00H
	DD	0ffffffffH
	ORG $+4
	DD	018H
	DD	FLAT:??0InternalErrorException@Internal@Core@Math@Palmtree@@QAE@ABV01234@@Z
xdata$x	ENDS
;	COMDAT ??_R0?AVInternalErrorException@Internal@Core@Math@Palmtree@@@8
data$r	SEGMENT
??_R0?AVInternalErrorException@Internal@Core@Math@Palmtree@@@8 DD FLAT:??_7type_info@@6B@ ; Palmtree::Math::Core::Internal::InternalErrorException `RTTI Type Descriptor'
	DD	00H
	DB	'.?AVInternalErrorException@Internal@Core@Math@Palmtree@@'
	DB	00H
data$r	ENDS
;	COMDAT __CTA2?AVInternalErrorException@Internal@Core@Math@Palmtree@@
xdata$x	SEGMENT
__CTA2?AVInternalErrorException@Internal@Core@Math@Palmtree@@ DD 02H
	DD	FLAT:__CT??_R0?AVInternalErrorException@Internal@Core@Math@Palmtree@@@8??0InternalErrorException@Internal@Core@Math@Palmtree@@QAE@ABV01234@@Z24
	DD	FLAT:__CT??_R0?AVException@Internal@Core@Math@Palmtree@@@8??0Exception@Internal@Core@Math@Palmtree@@QAE@ABV01234@@Z24
xdata$x	ENDS
;	COMDAT __TI2?AVInternalErrorException@Internal@Core@Math@Palmtree@@
xdata$x	SEGMENT
__TI2?AVInternalErrorException@Internal@Core@Math@Palmtree@@ DD 00H
	DD	FLAT:??1InternalErrorException@Internal@Core@Math@Palmtree@@UAE@XZ
	DD	00H
	DD	FLAT:__CTA2?AVInternalErrorException@Internal@Core@Math@Palmtree@@
xdata$x	ENDS
;	COMDAT ??_7StringReader@Internal@Core@Math@Palmtree@@6B@
CONST	SEGMENT
??_7StringReader@Internal@Core@Math@Palmtree@@6B@ DD FLAT:??_R4StringReader@Internal@Core@Math@Palmtree@@6B@ ; Palmtree::Math::Core::Internal::StringReader::`vftable'
	DD	FLAT:?PeekChar@StringReader@Internal@Core@Math@Palmtree@@UAE_WXZ
	DD	FLAT:?Progress@StringReader@Internal@Core@Math@Palmtree@@UAEXXZ
	DD	FLAT:?StartsWith@StringReader@Internal@Core@Math@Palmtree@@UAEHPB_W@Z
	DD	FLAT:?SkipString@StringReader@Internal@Core@Math@Palmtree@@UAEXPB_W@Z
CONST	ENDS
;	COMDAT ??_7InternalErrorException@Internal@Core@Math@Palmtree@@6B@
CONST	SEGMENT
??_7InternalErrorException@Internal@Core@Math@Palmtree@@6B@ DD FLAT:??_R4InternalErrorException@Internal@Core@Math@Palmtree@@6B@ ; Palmtree::Math::Core::Internal::InternalErrorException::`vftable'
	DD	FLAT:??_EInternalErrorException@Internal@Core@Math@Palmtree@@UAEPAXI@Z
	DD	FLAT:?what@exception@std@@UBEPBDXZ
CONST	ENDS
;	COMDAT ??_7InsufficientBufferException@Internal@Core@Math@Palmtree@@6B@
CONST	SEGMENT
??_7InsufficientBufferException@Internal@Core@Math@Palmtree@@6B@ DD FLAT:??_R4InsufficientBufferException@Internal@Core@Math@Palmtree@@6B@ ; Palmtree::Math::Core::Internal::InsufficientBufferException::`vftable'
	DD	FLAT:??_EInsufficientBufferException@Internal@Core@Math@Palmtree@@UAEPAXI@Z
	DD	FLAT:?what@exception@std@@UBEPBDXZ
CONST	ENDS
;	COMDAT ??_7ArgumentNullException@Internal@Core@Math@Palmtree@@6B@
CONST	SEGMENT
??_7ArgumentNullException@Internal@Core@Math@Palmtree@@6B@ DD FLAT:??_R4ArgumentNullException@Internal@Core@Math@Palmtree@@6B@ ; Palmtree::Math::Core::Internal::ArgumentNullException::`vftable'
	DD	FLAT:??_EArgumentNullException@Internal@Core@Math@Palmtree@@UAEPAXI@Z
	DD	FLAT:?what@exception@std@@UBEPBDXZ
CONST	ENDS
;	COMDAT ??_7ArgumentException@Internal@Core@Math@Palmtree@@6B@
CONST	SEGMENT
??_7ArgumentException@Internal@Core@Math@Palmtree@@6B@ DD FLAT:??_R4ArgumentException@Internal@Core@Math@Palmtree@@6B@ ; Palmtree::Math::Core::Internal::ArgumentException::`vftable'
	DD	FLAT:??_EArgumentException@Internal@Core@Math@Palmtree@@UAEPAXI@Z
	DD	FLAT:?what@exception@std@@UBEPBDXZ
CONST	ENDS
;	COMDAT ??_7Exception@Internal@Core@Math@Palmtree@@6B@
CONST	SEGMENT
??_7Exception@Internal@Core@Math@Palmtree@@6B@ DD FLAT:??_R4Exception@Internal@Core@Math@Palmtree@@6B@ ; Palmtree::Math::Core::Internal::Exception::`vftable'
	DD	FLAT:??_EException@Internal@Core@Math@Palmtree@@UAEPAXI@Z
	DD	FLAT:?what@exception@std@@UBEPBDXZ
CONST	ENDS
;	COMDAT ??_C@_0BC@EOODALEL@Unknown?5exception@
CONST	SEGMENT
??_C@_0BC@EOODALEL@Unknown?5exception@ DB 'Unknown exception', 00H ; `string'
CONST	ENDS
;	COMDAT ??_7exception@std@@6B@
CONST	SEGMENT
??_7exception@std@@6B@ DD FLAT:??_R4exception@std@@6B@	; std::exception::`vftable'
	DD	FLAT:??_Eexception@std@@UAEPAXI@Z
	DD	FLAT:?what@exception@std@@UBEPBDXZ
CONST	ENDS
;	COMDAT xdata$x
xdata$x	SEGMENT
__unwindtable$?PMC_TryParse_Imp@Internal@Core@Math@Palmtree@@YAHPB_WHPBU__tag_PMC_NUMBER_FORMAT_INFO@1234@PADPAPAU__tag_NUMBER_HEADER@1234@PAI@Z DD 0ffffffffH
	DD	FLAT:__unwindfunclet$?PMC_TryParse_Imp@Internal@Core@Math@Palmtree@@YAHPB_WHPBU__tag_PMC_NUMBER_FORMAT_INFO@1234@PADPAPAU__tag_NUMBER_HEADER@1234@PAI@Z$0
__ehfuncinfo$?PMC_TryParse_Imp@Internal@Core@Math@Palmtree@@YAHPB_WHPBU__tag_PMC_NUMBER_FORMAT_INFO@1234@PADPAPAU__tag_NUMBER_HEADER@1234@PAI@Z DD 019930522H
	DD	01H
	DD	FLAT:__unwindtable$?PMC_TryParse_Imp@Internal@Core@Math@Palmtree@@YAHPB_WHPBU__tag_PMC_NUMBER_FORMAT_INFO@1234@PADPAPAU__tag_NUMBER_HEADER@1234@PAI@Z
	DD	2 DUP(00H)
	DD	2 DUP(00H)
	DD	00H
	DD	00H
xdata$x	ENDS
;	COMDAT xdata$x
xdata$x	SEGMENT
__unwindtable$?TryParseX@Internal@Core@Math@Palmtree@@YAHPB_WIPBU__tag_PMC_NUMBER_FORMAT_INFO@1234@PADPAPAU__tag_NUMBER_HEADER@1234@PAI@Z DD 0ffffffffH
	DD	FLAT:__unwindfunclet$?TryParseX@Internal@Core@Math@Palmtree@@YAHPB_WIPBU__tag_PMC_NUMBER_FORMAT_INFO@1234@PADPAPAU__tag_NUMBER_HEADER@1234@PAI@Z$0
__ehfuncinfo$?TryParseX@Internal@Core@Math@Palmtree@@YAHPB_WIPBU__tag_PMC_NUMBER_FORMAT_INFO@1234@PADPAPAU__tag_NUMBER_HEADER@1234@PAI@Z DD 019930522H
	DD	01H
	DD	FLAT:__unwindtable$?TryParseX@Internal@Core@Math@Palmtree@@YAHPB_WIPBU__tag_PMC_NUMBER_FORMAT_INFO@1234@PADPAPAU__tag_NUMBER_HEADER@1234@PAI@Z
	DD	2 DUP(00H)
	DD	2 DUP(00H)
	DD	00H
	DD	00H
xdata$x	ENDS
;	COMDAT xdata$x
xdata$x	SEGMENT
__unwindtable$?TryParseDN@Internal@Core@Math@Palmtree@@YAHPB_WIPBU__tag_PMC_NUMBER_FORMAT_INFO@1234@PADPAPAU__tag_NUMBER_HEADER@1234@PAI@Z DD 0ffffffffH
	DD	FLAT:__unwindfunclet$?TryParseDN@Internal@Core@Math@Palmtree@@YAHPB_WIPBU__tag_PMC_NUMBER_FORMAT_INFO@1234@PADPAPAU__tag_NUMBER_HEADER@1234@PAI@Z$0
	DD	00H
	DD	FLAT:__unwindfunclet$?TryParseDN@Internal@Core@Math@Palmtree@@YAHPB_WIPBU__tag_PMC_NUMBER_FORMAT_INFO@1234@PADPAPAU__tag_NUMBER_HEADER@1234@PAI@Z$1
__ehfuncinfo$?TryParseDN@Internal@Core@Math@Palmtree@@YAHPB_WIPBU__tag_PMC_NUMBER_FORMAT_INFO@1234@PADPAPAU__tag_NUMBER_HEADER@1234@PAI@Z DD 019930522H
	DD	02H
	DD	FLAT:__unwindtable$?TryParseDN@Internal@Core@Math@Palmtree@@YAHPB_WIPBU__tag_PMC_NUMBER_FORMAT_INFO@1234@PADPAPAU__tag_NUMBER_HEADER@1234@PAI@Z
	DD	2 DUP(00H)
	DD	2 DUP(00H)
	DD	00H
	DD	00H
xdata$x	ENDS
;	COMDAT xdata$x
xdata$x	SEGMENT
__unwindtable$?ConvertCardinalNumber@Internal@Core@Math@Palmtree@@YAXPAII0@Z DD 0ffffffffH
	DD	FLAT:__unwindfunclet$?ConvertCardinalNumber@Internal@Core@Math@Palmtree@@YAXPAII0@Z$0
__ehfuncinfo$?ConvertCardinalNumber@Internal@Core@Math@Palmtree@@YAXPAII0@Z DD 019930522H
	DD	01H
	DD	FLAT:__unwindtable$?ConvertCardinalNumber@Internal@Core@Math@Palmtree@@YAXPAII0@Z
	DD	2 DUP(00H)
	DD	2 DUP(00H)
	DD	00H
	DD	00H
xdata$x	ENDS
;	COMDAT xdata$x
xdata$x	SEGMENT
__unwindtable$?PMC_TryParse@Internal@Core@Math@Palmtree@@YGHPB_WHPBU__tag_PMC_NUMBER_FORMAT_INFO@1234@PAPAU__tag_PMC_HANDLE_UINT@1234@PAI@Z DD 0ffffffffH
	DD	FLAT:__unwindfunclet$?PMC_TryParse@Internal@Core@Math@Palmtree@@YGHPB_WHPBU__tag_PMC_NUMBER_FORMAT_INFO@1234@PAPAU__tag_PMC_HANDLE_UINT@1234@PAI@Z$0
__ehfuncinfo$?PMC_TryParse@Internal@Core@Math@Palmtree@@YGHPB_WHPBU__tag_PMC_NUMBER_FORMAT_INFO@1234@PAPAU__tag_PMC_HANDLE_UINT@1234@PAI@Z DD 019930522H
	DD	01H
	DD	FLAT:__unwindtable$?PMC_TryParse@Internal@Core@Math@Palmtree@@YGHPB_WHPBU__tag_PMC_NUMBER_FORMAT_INFO@1234@PAPAU__tag_PMC_HANDLE_UINT@1234@PAI@Z
	DD	2 DUP(00H)
	DD	2 DUP(00H)
	DD	00H
	DD	00H
xdata$x	ENDS
;	COMDAT xdata$x
xdata$x	SEGMENT
__unwindtable$??_GInternalErrorException@Internal@Core@Math@Palmtree@@UAEPAXI@Z DD 0ffffffffH
	DD	FLAT:__unwindfunclet$??_GInternalErrorException@Internal@Core@Math@Palmtree@@UAEPAXI@Z$0
	DD	0ffffffffH
	DD	FLAT:__unwindfunclet$??_GInternalErrorException@Internal@Core@Math@Palmtree@@UAEPAXI@Z$1
__ehfuncinfo$??_GInternalErrorException@Internal@Core@Math@Palmtree@@UAEPAXI@Z DD 019930522H
	DD	02H
	DD	FLAT:__unwindtable$??_GInternalErrorException@Internal@Core@Math@Palmtree@@UAEPAXI@Z
	DD	2 DUP(00H)
	DD	2 DUP(00H)
	DD	00H
	DD	04H
xdata$x	ENDS
;	COMDAT xdata$x
xdata$x	SEGMENT
__unwindtable$??1InternalErrorException@Internal@Core@Math@Palmtree@@UAE@XZ DD 0ffffffffH
	DD	FLAT:__unwindfunclet$??1InternalErrorException@Internal@Core@Math@Palmtree@@UAE@XZ$0
	DD	0ffffffffH
	DD	FLAT:__unwindfunclet$??1InternalErrorException@Internal@Core@Math@Palmtree@@UAE@XZ$1
__ehfuncinfo$??1InternalErrorException@Internal@Core@Math@Palmtree@@UAE@XZ DD 019930522H
	DD	02H
	DD	FLAT:__unwindtable$??1InternalErrorException@Internal@Core@Math@Palmtree@@UAE@XZ
	DD	2 DUP(00H)
	DD	2 DUP(00H)
	DD	00H
	DD	04H
xdata$x	ENDS
;	COMDAT xdata$x
xdata$x	SEGMENT
__unwindtable$??0InternalErrorException@Internal@Core@Math@Palmtree@@QAE@ABV01234@@Z DD 0ffffffffH
	DD	FLAT:__unwindfunclet$??0InternalErrorException@Internal@Core@Math@Palmtree@@QAE@ABV01234@@Z$1
	DD	0ffffffffH
	DD	FLAT:__unwindfunclet$??0InternalErrorException@Internal@Core@Math@Palmtree@@QAE@ABV01234@@Z$0
__ehfuncinfo$??0InternalErrorException@Internal@Core@Math@Palmtree@@QAE@ABV01234@@Z DD 019930522H
	DD	02H
	DD	FLAT:__unwindtable$??0InternalErrorException@Internal@Core@Math@Palmtree@@QAE@ABV01234@@Z
	DD	2 DUP(00H)
	DD	2 DUP(00H)
	DD	00H
	DD	04H
xdata$x	ENDS
;	COMDAT xdata$x
xdata$x	SEGMENT
__unwindtable$??0InternalErrorException@Internal@Core@Math@Palmtree@@QAE@PB_W0@Z DD 0ffffffffH
	DD	FLAT:__unwindfunclet$??0InternalErrorException@Internal@Core@Math@Palmtree@@QAE@PB_W0@Z$1
	DD	0ffffffffH
	DD	FLAT:__unwindfunclet$??0InternalErrorException@Internal@Core@Math@Palmtree@@QAE@PB_W0@Z$0
__ehfuncinfo$??0InternalErrorException@Internal@Core@Math@Palmtree@@QAE@PB_W0@Z DD 019930522H
	DD	02H
	DD	FLAT:__unwindtable$??0InternalErrorException@Internal@Core@Math@Palmtree@@QAE@PB_W0@Z
	DD	2 DUP(00H)
	DD	2 DUP(00H)
	DD	00H
	DD	04H
xdata$x	ENDS
;	COMDAT xdata$x
xdata$x	SEGMENT
__unwindtable$??_GInsufficientBufferException@Internal@Core@Math@Palmtree@@UAEPAXI@Z DD 0ffffffffH
	DD	FLAT:__unwindfunclet$??_GInsufficientBufferException@Internal@Core@Math@Palmtree@@UAEPAXI@Z$0
	DD	0ffffffffH
	DD	FLAT:__unwindfunclet$??_GInsufficientBufferException@Internal@Core@Math@Palmtree@@UAEPAXI@Z$1
__ehfuncinfo$??_GInsufficientBufferException@Internal@Core@Math@Palmtree@@UAEPAXI@Z DD 019930522H
	DD	02H
	DD	FLAT:__unwindtable$??_GInsufficientBufferException@Internal@Core@Math@Palmtree@@UAEPAXI@Z
	DD	2 DUP(00H)
	DD	2 DUP(00H)
	DD	00H
	DD	04H
xdata$x	ENDS
;	COMDAT xdata$x
xdata$x	SEGMENT
__unwindtable$??1InsufficientBufferException@Internal@Core@Math@Palmtree@@UAE@XZ DD 0ffffffffH
	DD	FLAT:__unwindfunclet$??1InsufficientBufferException@Internal@Core@Math@Palmtree@@UAE@XZ$0
	DD	0ffffffffH
	DD	FLAT:__unwindfunclet$??1InsufficientBufferException@Internal@Core@Math@Palmtree@@UAE@XZ$1
__ehfuncinfo$??1InsufficientBufferException@Internal@Core@Math@Palmtree@@UAE@XZ DD 019930522H
	DD	02H
	DD	FLAT:__unwindtable$??1InsufficientBufferException@Internal@Core@Math@Palmtree@@UAE@XZ
	DD	2 DUP(00H)
	DD	2 DUP(00H)
	DD	00H
	DD	04H
xdata$x	ENDS
;	COMDAT xdata$x
xdata$x	SEGMENT
__unwindtable$??0InsufficientBufferException@Internal@Core@Math@Palmtree@@QAE@ABV01234@@Z DD 0ffffffffH
	DD	FLAT:__unwindfunclet$??0InsufficientBufferException@Internal@Core@Math@Palmtree@@QAE@ABV01234@@Z$1
	DD	0ffffffffH
	DD	FLAT:__unwindfunclet$??0InsufficientBufferException@Internal@Core@Math@Palmtree@@QAE@ABV01234@@Z$0
__ehfuncinfo$??0InsufficientBufferException@Internal@Core@Math@Palmtree@@QAE@ABV01234@@Z DD 019930522H
	DD	02H
	DD	FLAT:__unwindtable$??0InsufficientBufferException@Internal@Core@Math@Palmtree@@QAE@ABV01234@@Z
	DD	2 DUP(00H)
	DD	2 DUP(00H)
	DD	00H
	DD	04H
xdata$x	ENDS
;	COMDAT xdata$x
xdata$x	SEGMENT
__unwindtable$??0InsufficientBufferException@Internal@Core@Math@Palmtree@@QAE@PB_W@Z DD 0ffffffffH
	DD	FLAT:__unwindfunclet$??0InsufficientBufferException@Internal@Core@Math@Palmtree@@QAE@PB_W@Z$1
	DD	0ffffffffH
	DD	FLAT:__unwindfunclet$??0InsufficientBufferException@Internal@Core@Math@Palmtree@@QAE@PB_W@Z$0
__ehfuncinfo$??0InsufficientBufferException@Internal@Core@Math@Palmtree@@QAE@PB_W@Z DD 019930522H
	DD	02H
	DD	FLAT:__unwindtable$??0InsufficientBufferException@Internal@Core@Math@Palmtree@@QAE@PB_W@Z
	DD	2 DUP(00H)
	DD	2 DUP(00H)
	DD	00H
	DD	00H
xdata$x	ENDS
;	COMDAT xdata$x
xdata$x	SEGMENT
__unwindtable$??_GArgumentNullException@Internal@Core@Math@Palmtree@@UAEPAXI@Z DD 0ffffffffH
	DD	FLAT:__unwindfunclet$??_GArgumentNullException@Internal@Core@Math@Palmtree@@UAEPAXI@Z$0
	DD	0ffffffffH
	DD	FLAT:__unwindfunclet$??_GArgumentNullException@Internal@Core@Math@Palmtree@@UAEPAXI@Z$1
__ehfuncinfo$??_GArgumentNullException@Internal@Core@Math@Palmtree@@UAEPAXI@Z DD 019930522H
	DD	02H
	DD	FLAT:__unwindtable$??_GArgumentNullException@Internal@Core@Math@Palmtree@@UAEPAXI@Z
	DD	2 DUP(00H)
	DD	2 DUP(00H)
	DD	00H
	DD	04H
xdata$x	ENDS
;	COMDAT xdata$x
xdata$x	SEGMENT
__unwindtable$??1ArgumentNullException@Internal@Core@Math@Palmtree@@UAE@XZ DD 0ffffffffH
	DD	FLAT:__unwindfunclet$??1ArgumentNullException@Internal@Core@Math@Palmtree@@UAE@XZ$0
	DD	0ffffffffH
	DD	FLAT:__unwindfunclet$??1ArgumentNullException@Internal@Core@Math@Palmtree@@UAE@XZ$1
__ehfuncinfo$??1ArgumentNullException@Internal@Core@Math@Palmtree@@UAE@XZ DD 019930522H
	DD	02H
	DD	FLAT:__unwindtable$??1ArgumentNullException@Internal@Core@Math@Palmtree@@UAE@XZ
	DD	2 DUP(00H)
	DD	2 DUP(00H)
	DD	00H
	DD	04H
xdata$x	ENDS
;	COMDAT xdata$x
xdata$x	SEGMENT
__unwindtable$??0ArgumentNullException@Internal@Core@Math@Palmtree@@QAE@ABV01234@@Z DD 0ffffffffH
	DD	FLAT:__unwindfunclet$??0ArgumentNullException@Internal@Core@Math@Palmtree@@QAE@ABV01234@@Z$1
	DD	0ffffffffH
	DD	FLAT:__unwindfunclet$??0ArgumentNullException@Internal@Core@Math@Palmtree@@QAE@ABV01234@@Z$0
__ehfuncinfo$??0ArgumentNullException@Internal@Core@Math@Palmtree@@QAE@ABV01234@@Z DD 019930522H
	DD	02H
	DD	FLAT:__unwindtable$??0ArgumentNullException@Internal@Core@Math@Palmtree@@QAE@ABV01234@@Z
	DD	2 DUP(00H)
	DD	2 DUP(00H)
	DD	00H
	DD	04H
xdata$x	ENDS
;	COMDAT xdata$x
xdata$x	SEGMENT
__unwindtable$??0ArgumentNullException@Internal@Core@Math@Palmtree@@QAE@PB_W0@Z DD 0ffffffffH
	DD	FLAT:__unwindfunclet$??0ArgumentNullException@Internal@Core@Math@Palmtree@@QAE@PB_W0@Z$1
	DD	0ffffffffH
	DD	FLAT:__unwindfunclet$??0ArgumentNullException@Internal@Core@Math@Palmtree@@QAE@PB_W0@Z$0
__ehfuncinfo$??0ArgumentNullException@Internal@Core@Math@Palmtree@@QAE@PB_W0@Z DD 019930522H
	DD	02H
	DD	FLAT:__unwindtable$??0ArgumentNullException@Internal@Core@Math@Palmtree@@QAE@PB_W0@Z
	DD	2 DUP(00H)
	DD	2 DUP(00H)
	DD	00H
	DD	04H
xdata$x	ENDS
;	COMDAT xdata$x
xdata$x	SEGMENT
__unwindtable$??_GArgumentException@Internal@Core@Math@Palmtree@@UAEPAXI@Z DD 0ffffffffH
	DD	FLAT:__unwindfunclet$??_GArgumentException@Internal@Core@Math@Palmtree@@UAEPAXI@Z$0
	DD	0ffffffffH
	DD	FLAT:__unwindfunclet$??_GArgumentException@Internal@Core@Math@Palmtree@@UAEPAXI@Z$1
__ehfuncinfo$??_GArgumentException@Internal@Core@Math@Palmtree@@UAEPAXI@Z DD 019930522H
	DD	02H
	DD	FLAT:__unwindtable$??_GArgumentException@Internal@Core@Math@Palmtree@@UAEPAXI@Z
	DD	2 DUP(00H)
	DD	2 DUP(00H)
	DD	00H
	DD	04H
xdata$x	ENDS
;	COMDAT xdata$x
xdata$x	SEGMENT
__unwindtable$??1ArgumentException@Internal@Core@Math@Palmtree@@UAE@XZ DD 0ffffffffH
	DD	FLAT:__unwindfunclet$??1ArgumentException@Internal@Core@Math@Palmtree@@UAE@XZ$0
	DD	0ffffffffH
	DD	FLAT:__unwindfunclet$??1ArgumentException@Internal@Core@Math@Palmtree@@UAE@XZ$1
__ehfuncinfo$??1ArgumentException@Internal@Core@Math@Palmtree@@UAE@XZ DD 019930522H
	DD	02H
	DD	FLAT:__unwindtable$??1ArgumentException@Internal@Core@Math@Palmtree@@UAE@XZ
	DD	2 DUP(00H)
	DD	2 DUP(00H)
	DD	00H
	DD	04H
xdata$x	ENDS
;	COMDAT xdata$x
xdata$x	SEGMENT
__unwindtable$??0ArgumentException@Internal@Core@Math@Palmtree@@QAE@ABV01234@@Z DD 0ffffffffH
	DD	FLAT:__unwindfunclet$??0ArgumentException@Internal@Core@Math@Palmtree@@QAE@ABV01234@@Z$1
	DD	0ffffffffH
	DD	FLAT:__unwindfunclet$??0ArgumentException@Internal@Core@Math@Palmtree@@QAE@ABV01234@@Z$0
__ehfuncinfo$??0ArgumentException@Internal@Core@Math@Palmtree@@QAE@ABV01234@@Z DD 019930522H
	DD	02H
	DD	FLAT:__unwindtable$??0ArgumentException@Internal@Core@Math@Palmtree@@QAE@ABV01234@@Z
	DD	2 DUP(00H)
	DD	2 DUP(00H)
	DD	00H
	DD	04H
xdata$x	ENDS
;	COMDAT xdata$x
xdata$x	SEGMENT
__unwindtable$??0ArgumentException@Internal@Core@Math@Palmtree@@QAE@PB_W@Z DD 0ffffffffH
	DD	FLAT:__unwindfunclet$??0ArgumentException@Internal@Core@Math@Palmtree@@QAE@PB_W@Z$1
	DD	0ffffffffH
	DD	FLAT:__unwindfunclet$??0ArgumentException@Internal@Core@Math@Palmtree@@QAE@PB_W@Z$0
__ehfuncinfo$??0ArgumentException@Internal@Core@Math@Palmtree@@QAE@PB_W@Z DD 019930522H
	DD	02H
	DD	FLAT:__unwindtable$??0ArgumentException@Internal@Core@Math@Palmtree@@QAE@PB_W@Z
	DD	2 DUP(00H)
	DD	2 DUP(00H)
	DD	00H
	DD	04H
xdata$x	ENDS
;	COMDAT xdata$x
xdata$x	SEGMENT
__unwindtable$??_GException@Internal@Core@Math@Palmtree@@UAEPAXI@Z DD 0ffffffffH
	DD	FLAT:__unwindfunclet$??_GException@Internal@Core@Math@Palmtree@@UAEPAXI@Z$0
__ehfuncinfo$??_GException@Internal@Core@Math@Palmtree@@UAEPAXI@Z DD 019930522H
	DD	01H
	DD	FLAT:__unwindtable$??_GException@Internal@Core@Math@Palmtree@@UAEPAXI@Z
	DD	2 DUP(00H)
	DD	2 DUP(00H)
	DD	00H
	DD	04H
xdata$x	ENDS
;	COMDAT xdata$x
xdata$x	SEGMENT
__unwindtable$??1Exception@Internal@Core@Math@Palmtree@@UAE@XZ DD 0ffffffffH
	DD	FLAT:__unwindfunclet$??1Exception@Internal@Core@Math@Palmtree@@UAE@XZ$0
__ehfuncinfo$??1Exception@Internal@Core@Math@Palmtree@@UAE@XZ DD 019930522H
	DD	01H
	DD	FLAT:__unwindtable$??1Exception@Internal@Core@Math@Palmtree@@UAE@XZ
	DD	2 DUP(00H)
	DD	2 DUP(00H)
	DD	00H
	DD	04H
xdata$x	ENDS
;	COMDAT xdata$x
xdata$x	SEGMENT
__unwindtable$??0Exception@Internal@Core@Math@Palmtree@@QAE@ABV01234@@Z DD 0ffffffffH
	DD	FLAT:__unwindfunclet$??0Exception@Internal@Core@Math@Palmtree@@QAE@ABV01234@@Z$0
__ehfuncinfo$??0Exception@Internal@Core@Math@Palmtree@@QAE@ABV01234@@Z DD 019930522H
	DD	01H
	DD	FLAT:__unwindtable$??0Exception@Internal@Core@Math@Palmtree@@QAE@ABV01234@@Z
	DD	2 DUP(00H)
	DD	2 DUP(00H)
	DD	00H
	DD	04H
xdata$x	ENDS
;	COMDAT xdata$x
xdata$x	SEGMENT
__unwindtable$??0Exception@Internal@Core@Math@Palmtree@@IAE@HPB_W0@Z DD 0ffffffffH
	DD	FLAT:__unwindfunclet$??0Exception@Internal@Core@Math@Palmtree@@IAE@HPB_W0@Z$0
__ehfuncinfo$??0Exception@Internal@Core@Math@Palmtree@@IAE@HPB_W0@Z DD 019930522H
	DD	01H
	DD	FLAT:__unwindtable$??0Exception@Internal@Core@Math@Palmtree@@IAE@HPB_W0@Z
	DD	2 DUP(00H)
	DD	2 DUP(00H)
	DD	00H
	DD	04H
xdata$x	ENDS
;	COMDAT xdata$x
xdata$x	SEGMENT
__unwindtable$??0Exception@Internal@Core@Math@Palmtree@@IAE@HPB_W@Z DD 0ffffffffH
	DD	FLAT:__unwindfunclet$??0Exception@Internal@Core@Math@Palmtree@@IAE@HPB_W@Z$0
__ehfuncinfo$??0Exception@Internal@Core@Math@Palmtree@@IAE@HPB_W@Z DD 019930522H
	DD	01H
	DD	FLAT:__unwindtable$??0Exception@Internal@Core@Math@Palmtree@@IAE@HPB_W@Z
	DD	2 DUP(00H)
	DD	2 DUP(00H)
	DD	00H
	DD	04H
xdata$x	ENDS
;	COMDAT xdata$x
xdata$x	SEGMENT
__ehfuncinfo$??_Gexception@std@@UAEPAXI@Z DD 019930522H
	DD	00H
	DD	00H
	DD	2 DUP(00H)
	DD	2 DUP(00H)
	DD	00H
	DD	04H
xdata$x	ENDS
;	COMDAT xdata$x
xdata$x	SEGMENT
__ehfuncinfo$??1exception@std@@UAE@XZ DD 019930522H
	DD	00H
	DD	00H
	DD	2 DUP(00H)
	DD	2 DUP(00H)
	DD	00H
	DD	04H
xdata$x	ENDS
; Function compile flags: /Ogtp
; File z:\sources\lunor\repos\rougemeilland\palmtree.math.core.uint\palmtree.math.core.uint\pmc_parse.cpp
;	COMDAT ?PMC_TryParse_Imp@Internal@Core@Math@Palmtree@@YAHPB_WHPBU__tag_PMC_NUMBER_FORMAT_INFO@1234@PADPAPAU__tag_NUMBER_HEADER@1234@PAI@Z
_TEXT	SEGMENT
$T2 = -52						; size = 24
_root$ = -28						; size = 16
__$EHRec$ = -12						; size = 12
_source$ = 8						; size = 4
_number_styles$ = 12					; size = 4
_format_option$ = 16					; size = 4
_o_sign$ = 20						; size = 4
_o_abs$ = 24						; size = 4
_result$ = 28						; size = 4
?PMC_TryParse_Imp@Internal@Core@Math@Palmtree@@YAHPB_WHPBU__tag_PMC_NUMBER_FORMAT_INFO@1234@PADPAPAU__tag_NUMBER_HEADER@1234@PAI@Z PROC ; Palmtree::Math::Core::Internal::PMC_TryParse_Imp, COMDAT

; 1271 :     {

  00000	55		 push	 ebp
  00001	8b ec		 mov	 ebp, esp
  00003	6a ff		 push	 -1
  00005	68 00 00 00 00	 push	 __ehhandler$?PMC_TryParse_Imp@Internal@Core@Math@Palmtree@@YAHPB_WHPBU__tag_PMC_NUMBER_FORMAT_INFO@1234@PADPAPAU__tag_NUMBER_HEADER@1234@PAI@Z
  0000a	64 a1 00 00 00
	00		 mov	 eax, DWORD PTR fs:0
  00010	50		 push	 eax
  00011	83 ec 28	 sub	 esp, 40			; 00000028H
  00014	53		 push	 ebx
  00015	56		 push	 esi
  00016	57		 push	 edi
  00017	a1 00 00 00 00	 mov	 eax, DWORD PTR ___security_cookie
  0001c	33 c5		 xor	 eax, ebp
  0001e	50		 push	 eax
  0001f	8d 45 f4	 lea	 eax, DWORD PTR __$EHRec$[ebp]
  00022	64 a3 00 00 00
	00		 mov	 DWORD PTR fs:0, eax

; 1272 :         ResourceHolderUINT root;

  00028	8d 4d e4	 lea	 ecx, DWORD PTR _root$[ebp]
  0002b	e8 00 00 00 00	 call	 ??0ResourceHolderUINT@Internal@Core@Math@Palmtree@@QAE@XZ ; Palmtree::Math::Core::Internal::ResourceHolderUINT::ResourceHolderUINT
  00030	c7 45 fc 00 00
	00 00		 mov	 DWORD PTR __$EHRec$[ebp+8], 0

; 1273 :         if (number_styles & PMC_NUMBER_STYLE_ALLOW_HEX_SPECIFIER)

  00037	8b 45 0c	 mov	 eax, DWORD PTR _number_styles$[ebp]
  0003a	a9 00 02 00 00	 test	 eax, 512		; 00000200H
  0003f	74 52		 je	 SHORT $LN2@PMC_TryPar

; 1274 :         {
; 1275 :             // 16
; 1276 : 
; 1277 :             // 
; 1278 :             _UINT32_T mask = PMC_NUMBER_STYLE_ALLOW_HEX_SPECIFIER | PMC_NUMBER_STYLE_ALLOW_LEADING_WHITE | PMC_NUMBER_STYLE_ALLOW_TRAILING_WHITE | PMC_NUMBER_STYLE_ALLOW_EXCEPTION_THROWING | PMC_NUMBER_STYLE_ALLOW_SIGNED_INTEGER;
; 1279 : 
; 1280 :             // 
; 1281 :             if (number_styles & ~mask)

  00041	a9 fc fd ff fc	 test	 eax, -50332164		; fcfffdfcH
  00046	0f 85 a8 00 00
	00		 jne	 $LN15@PMC_TryPar

; 1283 : 
; 1284 :             PMC_STATUS_CODE err = TryParseX(source, number_styles, format_option, o_sign, o_abs, result);

  0004c	8b 75 1c	 mov	 esi, DWORD PTR _result$[ebp]
  0004f	8b 7d 18	 mov	 edi, DWORD PTR _o_abs$[ebp]
  00052	56		 push	 esi
  00053	57		 push	 edi
  00054	ff 75 14	 push	 DWORD PTR _o_sign$[ebp]
  00057	ff 75 10	 push	 DWORD PTR _format_option$[ebp]
  0005a	50		 push	 eax
  0005b	ff 75 08	 push	 DWORD PTR _source$[ebp]
  0005e	e8 00 00 00 00	 call	 ?TryParseX@Internal@Core@Math@Palmtree@@YAHPB_WIPBU__tag_PMC_NUMBER_FORMAT_INFO@1234@PADPAPAU__tag_NUMBER_HEADER@1234@PAI@Z ; Palmtree::Math::Core::Internal::TryParseX
  00063	8b d8		 mov	 ebx, eax
  00065	83 c4 18	 add	 esp, 24			; 00000018H

; 1285 :             if (err != PMC_STATUS_OK || !*result)

  00068	85 db		 test	 ebx, ebx
  0006a	75 04		 jne	 SHORT $LN8@PMC_TryPar
  0006c	39 06		 cmp	 DWORD PTR [esi], eax
  0006e	75 47		 jne	 SHORT $LN13@PMC_TryPar
$LN8@PMC_TryPar:

; 1303 :     }

  00070	c7 45 fc ff ff
	ff ff		 mov	 DWORD PTR __$EHRec$[ebp+8], -1
  00077	8d 4d e4	 lea	 ecx, DWORD PTR _root$[ebp]
  0007a	e8 00 00 00 00	 call	 ??1ResourceHolderUINT@Internal@Core@Math@Palmtree@@UAE@XZ ; Palmtree::Math::Core::Internal::ResourceHolderUINT::~ResourceHolderUINT
  0007f	8b c3		 mov	 eax, ebx
  00081	8b 4d f4	 mov	 ecx, DWORD PTR __$EHRec$[ebp]
  00084	64 89 0d 00 00
	00 00		 mov	 DWORD PTR fs:0, ecx
  0008b	59		 pop	 ecx
  0008c	5f		 pop	 edi
  0008d	5e		 pop	 esi
  0008e	5b		 pop	 ebx
  0008f	8b e5		 mov	 esp, ebp
  00091	5d		 pop	 ebp
  00092	c3		 ret	 0
$LN2@PMC_TryPar:

; 1286 :                 return (err);
; 1287 :             root.HookNumber(*o_abs);
; 1288 :         }
; 1289 :         else
; 1290 :         {
; 1291 :             // 10
; 1292 :             PMC_STATUS_CODE err = TryParseDN(source, number_styles, format_option, o_sign, o_abs, result);

  00093	8b 75 1c	 mov	 esi, DWORD PTR _result$[ebp]
  00096	8b 7d 18	 mov	 edi, DWORD PTR _o_abs$[ebp]
  00099	56		 push	 esi
  0009a	57		 push	 edi
  0009b	ff 75 14	 push	 DWORD PTR _o_sign$[ebp]
  0009e	ff 75 10	 push	 DWORD PTR _format_option$[ebp]
  000a1	50		 push	 eax
  000a2	ff 75 08	 push	 DWORD PTR _source$[ebp]
  000a5	e8 00 00 00 00	 call	 ?TryParseDN@Internal@Core@Math@Palmtree@@YAHPB_WIPBU__tag_PMC_NUMBER_FORMAT_INFO@1234@PADPAPAU__tag_NUMBER_HEADER@1234@PAI@Z ; Palmtree::Math::Core::Internal::TryParseDN
  000aa	8b d8		 mov	 ebx, eax
  000ac	83 c4 18	 add	 esp, 24			; 00000018H

; 1293 :             if (err != PMC_STATUS_OK || !*result)

  000af	85 db		 test	 ebx, ebx
  000b1	75 bd		 jne	 SHORT $LN8@PMC_TryPar
  000b3	39 06		 cmp	 DWORD PTR [esi], eax
  000b5	74 b9		 je	 SHORT $LN8@PMC_TryPar
$LN13@PMC_TryPar:

; 1294 :                 return (err);
; 1295 :             root.HookNumber(*o_abs);
; 1296 :         }
; 1297 : #ifdef _DEBUG
; 1298 :         CheckNumber(*o_abs);
; 1299 : #endif
; 1300 :         root.UnlinkNumber(*o_abs);

  000b7	ff 37		 push	 DWORD PTR [edi]
  000b9	8d 4d e4	 lea	 ecx, DWORD PTR _root$[ebp]
  000bc	e8 00 00 00 00	 call	 ?HookNumber@ResourceHolderUINT@Internal@Core@Math@Palmtree@@QAEXPAU__tag_NUMBER_HEADER@2345@@Z ; Palmtree::Math::Core::Internal::ResourceHolderUINT::HookNumber
  000c1	ff 37		 push	 DWORD PTR [edi]
  000c3	8d 4d e4	 lea	 ecx, DWORD PTR _root$[ebp]
  000c6	e8 00 00 00 00	 call	 ?UnlinkNumber@ResourceHolderUINT@Internal@Core@Math@Palmtree@@QAEXPAU__tag_NUMBER_HEADER@2345@@Z ; Palmtree::Math::Core::Internal::ResourceHolderUINT::UnlinkNumber

; 1301 :         *result = 1;

  000cb	c7 06 01 00 00
	00		 mov	 DWORD PTR [esi], 1

; 1302 :         return (PMC_STATUS_OK);

  000d1	c7 45 fc ff ff
	ff ff		 mov	 DWORD PTR __$EHRec$[ebp+8], -1
  000d8	8d 4d e4	 lea	 ecx, DWORD PTR _root$[ebp]
  000db	e8 00 00 00 00	 call	 ??1ResourceHolderUINT@Internal@Core@Math@Palmtree@@UAE@XZ ; Palmtree::Math::Core::Internal::ResourceHolderUINT::~ResourceHolderUINT
  000e0	33 c0		 xor	 eax, eax

; 1303 :     }

  000e2	8b 4d f4	 mov	 ecx, DWORD PTR __$EHRec$[ebp]
  000e5	64 89 0d 00 00
	00 00		 mov	 DWORD PTR fs:0, ecx
  000ec	59		 pop	 ecx
  000ed	5f		 pop	 edi
  000ee	5e		 pop	 esi
  000ef	5b		 pop	 ebx
  000f0	8b e5		 mov	 esp, ebp
  000f2	5d		 pop	 ebp
  000f3	c3		 ret	 0
$LN15@PMC_TryPar:

; 1282 :                 throw ArgumentException(L"number_styles");

  000f4	68 00 00 00 00	 push	 OFFSET ??_C@_1FG@MPGAEBOC@?$AA?$BF?$AAp?$AAn?$AAu?$AAm?$AAb?$AAe?$AAr?$AA_?$AAs?$AAt?$AAy?$AAl?$AAe?$AAs@
  000f9	8d 4d cc	 lea	 ecx, DWORD PTR $T2[ebp]
  000fc	e8 00 00 00 00	 call	 ??0ArgumentException@Internal@Core@Math@Palmtree@@QAE@PB_W@Z ; Palmtree::Math::Core::Internal::ArgumentException::ArgumentException
  00101	68 00 00 00 00	 push	 OFFSET __TI2?AVArgumentException@Internal@Core@Math@Palmtree@@
  00106	8d 45 cc	 lea	 eax, DWORD PTR $T2[ebp]
  00109	50		 push	 eax
  0010a	e8 00 00 00 00	 call	 __CxxThrowException@8
$LN12@PMC_TryPar:
  0010f	cc		 int	 3
_TEXT	ENDS
;	COMDAT text$x
text$x	SEGMENT
__unwindfunclet$?PMC_TryParse_Imp@Internal@Core@Math@Palmtree@@YAHPB_WHPBU__tag_PMC_NUMBER_FORMAT_INFO@1234@PADPAPAU__tag_NUMBER_HEADER@1234@PAI@Z$0:
  00000	8d 4d e4	 lea	 ecx, DWORD PTR _root$[ebp]
  00003	e9 00 00 00 00	 jmp	 ??1ResourceHolderUINT@Internal@Core@Math@Palmtree@@UAE@XZ ; Palmtree::Math::Core::Internal::ResourceHolderUINT::~ResourceHolderUINT
__ehhandler$?PMC_TryParse_Imp@Internal@Core@Math@Palmtree@@YAHPB_WHPBU__tag_PMC_NUMBER_FORMAT_INFO@1234@PADPAPAU__tag_NUMBER_HEADER@1234@PAI@Z:
  00008	8b 54 24 08	 mov	 edx, DWORD PTR [esp+8]
  0000c	8d 42 0c	 lea	 eax, DWORD PTR [edx+12]
  0000f	8b 4a c8	 mov	 ecx, DWORD PTR [edx-56]
  00012	33 c8		 xor	 ecx, eax
  00014	e8 00 00 00 00	 call	 @__security_check_cookie@4
  00019	b8 00 00 00 00	 mov	 eax, OFFSET __ehfuncinfo$?PMC_TryParse_Imp@Internal@Core@Math@Palmtree@@YAHPB_WHPBU__tag_PMC_NUMBER_FORMAT_INFO@1234@PADPAPAU__tag_NUMBER_HEADER@1234@PAI@Z
  0001e	e9 00 00 00 00	 jmp	 ___CxxFrameHandler3
text$x	ENDS
?PMC_TryParse_Imp@Internal@Core@Math@Palmtree@@YAHPB_WHPBU__tag_PMC_NUMBER_FORMAT_INFO@1234@PADPAPAU__tag_NUMBER_HEADER@1234@PAI@Z ENDP ; Palmtree::Math::Core::Internal::PMC_TryParse_Imp
; Function compile flags: /Ogtp
; File z:\sources\lunor\repos\rougemeilland\palmtree.math.core.uint\palmtree.math.core.uint\pmc_parse.cpp
; File z:\sources\lunor\repos\rougemeilland\palmtree.math.core.uint\palmtree.math.core.uint\pmc_inline_func.h
; File z:\sources\lunor\repos\rougemeilland\palmtree.math.core.uint\palmtree.math.core.uint\pmc_parse.cpp
; File z:\sources\lunor\repos\rougemeilland\palmtree.math.core.uint\palmtree.math.core.uint\pmc_inline_func.h
; File z:\sources\lunor\repos\rougemeilland\palmtree.math.core.uint\palmtree.math.core.uint\pmc_parse.cpp
; File z:\sources\lunor\repos\rougemeilland\palmtree.math.core.uint\palmtree.math.core.uint\pmc_inline_func.h
; File z:\sources\lunor\repos\rougemeilland\palmtree.math.core.uint\palmtree.math.core.uint\pmc_parse.cpp
;	COMDAT ?TryParseX@Internal@Core@Math@Palmtree@@YAHPB_WIPBU__tag_PMC_NUMBER_FORMAT_INFO@1234@PADPAPAU__tag_NUMBER_HEADER@1234@PAI@Z
_TEXT	SEGMENT
_o_bit_count$1$ = -324					; size = 4
_source_count$1$ = -320					; size = 4
_root$ = -316						; size = 16
_result$GSCopy$1$ = -300				; size = 4
_o_abs$GSCopy$1$ = -296					; size = 4
_r$1$ = -292						; size = 4
_dummy_sign$2 = -285					; size = 1
_int_part_buf$1$ = -284					; size = 4
_o_sign$GSCopy$1$ = -280				; size = 4
_state$3 = -276						; size = 260
__$ArrayPad$ = -16					; size = 4
__$EHRec$ = -12						; size = 12
_source$ = 8						; size = 4
_number_styles$ = 12					; size = 4
_format_option$ = 16					; size = 4
_o_sign$ = 20						; size = 4
_o_abs$ = 24						; size = 4
_result$ = 28						; size = 4
?TryParseX@Internal@Core@Math@Palmtree@@YAHPB_WIPBU__tag_PMC_NUMBER_FORMAT_INFO@1234@PADPAPAU__tag_NUMBER_HEADER@1234@PAI@Z PROC ; Palmtree::Math::Core::Internal::TryParseX, COMDAT

; 1190 :     {

  00000	55		 push	 ebp
  00001	8b ec		 mov	 ebp, esp
  00003	6a ff		 push	 -1
  00005	68 00 00 00 00	 push	 __ehhandler$?TryParseX@Internal@Core@Math@Palmtree@@YAHPB_WIPBU__tag_PMC_NUMBER_FORMAT_INFO@1234@PADPAPAU__tag_NUMBER_HEADER@1234@PAI@Z
  0000a	64 a1 00 00 00
	00		 mov	 eax, DWORD PTR fs:0
  00010	50		 push	 eax
  00011	81 ec 38 01 00
	00		 sub	 esp, 312		; 00000138H
  00017	a1 00 00 00 00	 mov	 eax, DWORD PTR ___security_cookie
  0001c	33 c5		 xor	 eax, ebp
  0001e	89 45 f0	 mov	 DWORD PTR __$ArrayPad$[ebp], eax
  00021	53		 push	 ebx
  00022	56		 push	 esi
  00023	57		 push	 edi
  00024	50		 push	 eax
  00025	8d 45 f4	 lea	 eax, DWORD PTR __$EHRec$[ebp]
  00028	64 a3 00 00 00
	00		 mov	 DWORD PTR fs:0, eax
  0002e	8b 45 14	 mov	 eax, DWORD PTR _o_sign$[ebp]

; 1191 :         ResourceHolderUINT root;

  00031	8d 8d c4 fe ff
	ff		 lea	 ecx, DWORD PTR _root$[ebp]
  00037	8b 5d 08	 mov	 ebx, DWORD PTR _source$[ebp]
  0003a	8b 7d 10	 mov	 edi, DWORD PTR _format_option$[ebp]
  0003d	89 85 e8 fe ff
	ff		 mov	 DWORD PTR _o_sign$GSCopy$1$[ebp], eax
  00043	8b 45 18	 mov	 eax, DWORD PTR _o_abs$[ebp]
  00046	89 85 d8 fe ff
	ff		 mov	 DWORD PTR _o_abs$GSCopy$1$[ebp], eax
  0004c	8b 45 1c	 mov	 eax, DWORD PTR _result$[ebp]
  0004f	89 85 d4 fe ff
	ff		 mov	 DWORD PTR _result$GSCopy$1$[ebp], eax
  00055	e8 00 00 00 00	 call	 ??0ResourceHolderUINT@Internal@Core@Math@Palmtree@@QAE@XZ ; Palmtree::Math::Core::Internal::ResourceHolderUINT::ResourceHolderUINT
  0005a	c7 45 fc 00 00
	00 00		 mov	 DWORD PTR __$EHRec$[ebp+8], 0

; 1192 :         __UNIT_TYPE source_len = lstrlenW(source);

  00061	53		 push	 ebx
  00062	ff 15 00 00 00
	00		 call	 DWORD PTR __imp__lstrlenW@4

; 1193 :         size_t int_part_buf_size = source_len + 1;
; 1194 :         wchar_t* int_part_buf = root.AllocateString(source_len + 1);

  00068	8d 8d c4 fe ff
	ff		 lea	 ecx, DWORD PTR _root$[ebp]
  0006e	8d 70 01	 lea	 esi, DWORD PTR [eax+1]
  00071	56		 push	 esi
  00072	e8 00 00 00 00	 call	 ?AllocateString@ResourceHolderUINT@Internal@Core@Math@Palmtree@@QAEPA_WI@Z ; Palmtree::Math::Core::Internal::ResourceHolderUINT::AllocateString

; 1185 :         ParserState state(in_ptr, number_styles, format_option, &dummy_sign, int_part_buf, int_part_buf_size, nullptr, 0);

  00077	6a 00		 push	 0
  00079	6a 00		 push	 0
  0007b	56		 push	 esi
  0007c	8b 75 0c	 mov	 esi, DWORD PTR _number_styles$[ebp]
  0007f	8d 8d ec fe ff
	ff		 lea	 ecx, DWORD PTR _state$3[ebp]
  00085	50		 push	 eax

; 1193 :         size_t int_part_buf_size = source_len + 1;
; 1194 :         wchar_t* int_part_buf = root.AllocateString(source_len + 1);

  00086	89 85 e4 fe ff
	ff		 mov	 DWORD PTR _int_part_buf$1$[ebp], eax

; 1185 :         ParserState state(in_ptr, number_styles, format_option, &dummy_sign, int_part_buf, int_part_buf_size, nullptr, 0);

  0008c	8d 85 e3 fe ff
	ff		 lea	 eax, DWORD PTR _dummy_sign$2[ebp]
  00092	50		 push	 eax
  00093	57		 push	 edi
  00094	56		 push	 esi
  00095	53		 push	 ebx
  00096	e8 00 00 00 00	 call	 ??0ParserState@Internal@Core@Math@Palmtree@@QAE@PB_WIPBU__tag_PMC_NUMBER_FORMAT_INFO@1234@PADPA_WI3I@Z ; Palmtree::Math::Core::Internal::ParserState::ParserState

; 480  :             if (_number_styles & PMC_NUMBER_STYLE_ALLOW_LEADING_WHITE)

  0009b	f6 85 1c ff ff
	ff 01		 test	 BYTE PTR _state$3[ebp+48], 1
  000a2	74 0b		 je	 SHORT $LN22@TryParseX

; 481  :                 _source.SkipSpace();

  000a4	8d 8d ec fe ff
	ff		 lea	 ecx, DWORD PTR _state$3[ebp]
  000aa	e8 00 00 00 00	 call	 ?SkipSpace@StringReader@Internal@Core@Math@Palmtree@@QAEXXZ ; Palmtree::Math::Core::Internal::StringReader::SkipSpace
$LN22@TryParseX:

; 482  :             ParseAsIntegerPartNumberSequence();

  000af	8d 8d ec fe ff
	ff		 lea	 ecx, DWORD PTR _state$3[ebp]
  000b5	e8 00 00 00 00	 call	 ?ParseAsIntegerPartNumberSequence@ParserState@Internal@Core@Math@Palmtree@@AAEXXZ ; Palmtree::Math::Core::Internal::ParserState::ParseAsIntegerPartNumberSequence

; 483  :             if (_number_styles & PMC_NUMBER_STYLE_ALLOW_TRAILING_WHITE)

  000ba	f6 85 1c ff ff
	ff 02		 test	 BYTE PTR _state$3[ebp+48], 2
  000c1	74 0b		 je	 SHORT $LN23@TryParseX

; 484  :                 _source.SkipSpace();

  000c3	8d 8d ec fe ff
	ff		 lea	 ecx, DWORD PTR _state$3[ebp]
  000c9	e8 00 00 00 00	 call	 ?SkipSpace@StringReader@Internal@Core@Math@Palmtree@@QAEXXZ ; Palmtree::Math::Core::Internal::StringReader::SkipSpace
$LN23@TryParseX:

; 485  :             if (_source.PeekChar() != L'\0')

  000ce	8b 85 ec fe ff
	ff		 mov	 eax, DWORD PTR _state$3[ebp]
  000d4	8d 8d ec fe ff
	ff		 lea	 ecx, DWORD PTR _state$3[ebp]
  000da	ff 10		 call	 DWORD PTR [eax]

; 1195 :         int result_parsing = ParseAsHexNumberString(source, number_styles, format_option, int_part_buf, int_part_buf_size);
; 1196 :         root.CheckString(int_part_buf);

  000dc	8b bd e4 fe ff
	ff		 mov	 edi, DWORD PTR _int_part_buf$1$[ebp]
  000e2	8d 8d c4 fe ff
	ff		 lea	 ecx, DWORD PTR _root$[ebp]

; 485  :             if (_source.PeekChar() != L'\0')

  000e8	33 db		 xor	 ebx, ebx
  000ea	66 85 c0	 test	 ax, ax

; 1195 :         int result_parsing = ParseAsHexNumberString(source, number_styles, format_option, int_part_buf, int_part_buf_size);
; 1196 :         root.CheckString(int_part_buf);

  000ed	57		 push	 edi

; 485  :             if (_source.PeekChar() != L'\0')

  000ee	0f 94 c3	 sete	 bl

; 1195 :         int result_parsing = ParseAsHexNumberString(source, number_styles, format_option, int_part_buf, int_part_buf_size);
; 1196 :         root.CheckString(int_part_buf);

  000f1	e8 00 00 00 00	 call	 ?CheckString@ResourceHolderUINT@Internal@Core@Math@Palmtree@@QAEXPA_W@Z ; Palmtree::Math::Core::Internal::ResourceHolderUINT::CheckString

; 1197 :         if (!result_parsing || int_part_buf[0] == L'\0')

  000f6	85 db		 test	 ebx, ebx
  000f8	0f 84 2f 02 00
	00		 je	 $LN5@TryParseX
  000fe	0f b7 07	 movzx	 eax, WORD PTR [edi]
  00101	66 85 c0	 test	 ax, ax
  00104	0f 84 23 02 00
	00		 je	 $LN5@TryParseX

; 1201 :                 return (PMC_STATUS_FORMAT_ERROR);
; 1202 :             return (PMC_STATUS_OK);
; 1203 :         }
; 1204 : 
; 1205 :         //  1  8F 
; 1206 :         if (ParseHexDigit(int_part_buf[0]) >= 8)

  0010a	8b c8		 mov	 ecx, eax

; 49   :         if (c >= L'0' && c <= L'9')

  0010c	8d 41 d0	 lea	 eax, DWORD PTR [ecx-48]
  0010f	66 83 f8 09	 cmp	 ax, 9
  00113	77 05		 ja	 SHORT $LN29@TryParseX

; 50   :             return (c - L'0');

  00115	8d 41 d0	 lea	 eax, DWORD PTR [ecx-48]
  00118	eb 1a		 jmp	 SHORT $LN28@TryParseX
$LN29@TryParseX:

; 51   : 
; 52   :         if (c >= L'a' && c <= L'f')

  0011a	8d 41 9f	 lea	 eax, DWORD PTR [ecx-97]
  0011d	66 83 f8 05	 cmp	 ax, 5
  00121	77 05		 ja	 SHORT $LN30@TryParseX

; 53   :             return (c - L'a' + 10);

  00123	8d 41 a9	 lea	 eax, DWORD PTR [ecx-87]
  00126	eb 0c		 jmp	 SHORT $LN28@TryParseX
$LN30@TryParseX:

; 54   : 
; 55   :         if (c >= L'A' && c <= L'F')

  00128	8d 41 bf	 lea	 eax, DWORD PTR [ecx-65]
  0012b	66 83 f8 05	 cmp	 ax, 5
  0012f	77 22		 ja	 SHORT $LN7@TryParseX

; 56   :             return (c - L'A' + 10);

  00131	8d 41 c9	 lea	 eax, DWORD PTR [ecx-55]
$LN28@TryParseX:

; 1201 :                 return (PMC_STATUS_FORMAT_ERROR);
; 1202 :             return (PMC_STATUS_OK);
; 1203 :         }
; 1204 : 
; 1205 :         //  1  8F 
; 1206 :         if (ParseHexDigit(int_part_buf[0]) >= 8)

  00134	83 f8 08	 cmp	 eax, 8
  00137	7c 1a		 jl	 SHORT $LN7@TryParseX

; 1207 :         {
; 1208 :             //  1  8F 
; 1209 :             if (!(number_styles & PMC_NUMBER_STYLE_ALLOW_SIGNED_INTEGER))

  00139	8b 8d e8 fe ff
	ff		 mov	 ecx, DWORD PTR _o_sign$GSCopy$1$[ebp]
  0013f	f7 c6 00 00 00
	01		 test	 esi, 16777216		; 01000000H
  00145	0f 94 c0	 sete	 al
  00148	8d 04 45 ff ff
	ff ff		 lea	 eax, DWORD PTR [eax*2-1]
  0014f	88 01		 mov	 BYTE PTR [ecx], al

; 1210 :             {
; 1211 :                 // '8''F'
; 1212 : 
; 1213 :                 // 
; 1214 :                 *o_sign = 1;
; 1215 :             }
; 1216 :             else
; 1217 :             {
; 1218 :                 // '8''F'
; 1219 : 
; 1220 :                 // 
; 1221 :                 *o_sign = -1;
; 1222 :             }
; 1223 :         }
; 1224 :         else

  00151	eb 09		 jmp	 SHORT $LN8@TryParseX
$LN7@TryParseX:

; 1225 :         {
; 1226 :             //  1  07 
; 1227 :             *o_sign = 1;

  00153	8b 8d e8 fe ff
	ff		 mov	 ecx, DWORD PTR _o_sign$GSCopy$1$[ebp]
  00159	c6 01 01	 mov	 BYTE PTR [ecx], 1
$LN8@TryParseX:

; 1228 :         }
; 1229 : 
; 1230 :         __UNIT_TYPE o_bit_count = lstrlenW(int_part_buf) * 4;

  0015c	8b 1d 00 00 00
	00		 mov	 ebx, DWORD PTR __imp__lstrlenW@4
  00162	57		 push	 edi
  00163	ff d3		 call	 ebx
  00165	c1 e0 02	 shl	 eax, 2

; 1231 :         *o_abs = root.AllocateNumber(o_bit_count);

  00168	8d 8d c4 fe ff
	ff		 lea	 ecx, DWORD PTR _root$[ebp]
  0016e	50		 push	 eax
  0016f	89 85 bc fe ff
	ff		 mov	 DWORD PTR _o_bit_count$1$[ebp], eax
  00175	e8 00 00 00 00	 call	 ?AllocateNumber@ResourceHolderUINT@Internal@Core@Math@Palmtree@@QAEPAU__tag_NUMBER_HEADER@2345@I@Z ; Palmtree::Math::Core::Internal::ResourceHolderUINT::AllocateNumber
  0017a	8b 8d d8 fe ff
	ff		 mov	 ecx, DWORD PTR _o_abs$GSCopy$1$[ebp]

; 1164 :         __UNIT_TYPE source_count = lstrlenW(source);

  00180	57		 push	 edi

; 1231 :         *o_abs = root.AllocateNumber(o_bit_count);

  00181	89 01		 mov	 DWORD PTR [ecx], eax

; 1232 :         BuildBinaryFromHexString(int_part_buf, (*o_abs)->BLOCK);

  00183	8b 70 24	 mov	 esi, DWORD PTR [eax+36]

; 1164 :         __UNIT_TYPE source_count = lstrlenW(source);

  00186	ff d3		 call	 ebx
  00188	89 85 c0 fe ff
	ff		 mov	 DWORD PTR _source_count$1$[ebp], eax
; File z:\sources\lunor\repos\rougemeilland\palmtree.math.core.uint\palmtree.math.core.uint\pmc_inline_func.h

; 157  :             return ((u + v - 1) / v);

  0018e	8d 48 07	 lea	 ecx, DWORD PTR [eax+7]
  00191	c1 e9 03	 shr	 ecx, 3
  00194	49		 dec	 ecx
  00195	8d 1c 8e	 lea	 ebx, DWORD PTR [esi+ecx*4]
; File z:\sources\lunor\repos\rougemeilland\palmtree.math.core.uint\palmtree.math.core.uint\pmc_parse.cpp

; 1167 :         int r = source_count % word_digit_count;

  00198	8b c8		 mov	 ecx, eax
  0019a	83 e1 07	 and	 ecx, 7
  0019d	89 8d dc fe ff
	ff		 mov	 DWORD PTR _r$1$[ebp], ecx

; 1168 :         if (r > 0)

  001a3	0f 8e a0 00 00
	00		 jle	 $LN57@TryParseX

; 1116 :         __UNIT_TYPE x = ParseHexDigit(*in_ptr);

  001a9	8b d7		 mov	 edx, edi
  001ab	0f b7 0a	 movzx	 ecx, WORD PTR [edx]

; 49   :         if (c >= L'0' && c <= L'9')

  001ae	8d 41 d0	 lea	 eax, DWORD PTR [ecx-48]
  001b1	66 83 f8 09	 cmp	 ax, 9
  001b5	77 05		 ja	 SHORT $LN45@TryParseX

; 50   :             return (c - L'0');

  001b7	83 e9 30	 sub	 ecx, 48			; 00000030H
  001ba	eb 1f		 jmp	 SHORT $LN44@TryParseX
$LN45@TryParseX:

; 51   : 
; 52   :         if (c >= L'a' && c <= L'f')

  001bc	8d 41 9f	 lea	 eax, DWORD PTR [ecx-97]
  001bf	66 83 f8 05	 cmp	 ax, 5
  001c3	77 05		 ja	 SHORT $LN46@TryParseX

; 53   :             return (c - L'a' + 10);

  001c5	83 e9 57	 sub	 ecx, 87			; 00000057H
  001c8	eb 11		 jmp	 SHORT $LN44@TryParseX
$LN46@TryParseX:

; 54   : 
; 55   :         if (c >= L'A' && c <= L'F')

  001ca	8d 41 bf	 lea	 eax, DWORD PTR [ecx-65]
  001cd	66 83 f8 05	 cmp	 ax, 5
  001d1	77 05		 ja	 SHORT $LN47@TryParseX

; 56   :             return (c - L'A' + 10);

  001d3	83 e9 37	 sub	 ecx, 55			; 00000037H
  001d6	eb 03		 jmp	 SHORT $LN44@TryParseX
$LN47@TryParseX:

; 57   :         return (-1);

  001d8	83 c9 ff	 or	 ecx, -1
$LN44@TryParseX:

; 1118 :         --count;

  001db	8b bd dc fe ff
	ff		 mov	 edi, DWORD PTR _r$1$[ebp]
  001e1	8d 72 02	 lea	 esi, DWORD PTR [edx+2]
  001e4	83 c7 ff	 add	 edi, -1

; 1119 :         while (count > 0)

  001e7	74 4a		 je	 SHORT $LN42@TryParseX
  001e9	0f 1f 80 00 00
	00 00		 npad	 7
$LL41@TryParseX:

; 1120 :         {
; 1121 :             x = x * 16 + ParseHexDigit(*in_ptr);

  001f0	0f b7 16	 movzx	 edx, WORD PTR [esi]

; 49   :         if (c >= L'0' && c <= L'9')

  001f3	8d 42 d0	 lea	 eax, DWORD PTR [edx-48]
  001f6	66 83 f8 09	 cmp	 ax, 9
  001fa	77 05		 ja	 SHORT $LN50@TryParseX

; 50   :             return (c - L'0');

  001fc	8d 42 d0	 lea	 eax, DWORD PTR [edx-48]
  001ff	eb 1f		 jmp	 SHORT $LN49@TryParseX
$LN50@TryParseX:

; 51   : 
; 52   :         if (c >= L'a' && c <= L'f')

  00201	8d 42 9f	 lea	 eax, DWORD PTR [edx-97]
  00204	66 83 f8 05	 cmp	 ax, 5
  00208	77 05		 ja	 SHORT $LN51@TryParseX

; 53   :             return (c - L'a' + 10);

  0020a	8d 42 a9	 lea	 eax, DWORD PTR [edx-87]
  0020d	eb 11		 jmp	 SHORT $LN49@TryParseX
$LN51@TryParseX:

; 54   : 
; 55   :         if (c >= L'A' && c <= L'F')

  0020f	8d 42 bf	 lea	 eax, DWORD PTR [edx-65]
  00212	66 83 f8 05	 cmp	 ax, 5
  00216	77 05		 ja	 SHORT $LN52@TryParseX

; 56   :             return (c - L'A' + 10);

  00218	8d 42 c9	 lea	 eax, DWORD PTR [edx-55]
  0021b	eb 03		 jmp	 SHORT $LN49@TryParseX
$LN52@TryParseX:

; 57   :         return (-1);

  0021d	83 c8 ff	 or	 eax, -1
$LN49@TryParseX:

; 1121 :             x = x * 16 + ParseHexDigit(*in_ptr);

  00220	c1 e1 04	 shl	 ecx, 4

; 1122 :             ++in_ptr;

  00223	83 c6 02	 add	 esi, 2
  00226	03 c8		 add	 ecx, eax

; 1123 :             --count;

  00228	83 ef 01	 sub	 edi, 1
  0022b	75 c3		 jne	 SHORT $LL41@TryParseX
  0022d	8b 95 e4 fe ff
	ff		 mov	 edx, DWORD PTR _int_part_buf$1$[ebp]
$LN42@TryParseX:

; 1172 :             source_count -= r;

  00233	8b 85 c0 fe ff
	ff		 mov	 eax, DWORD PTR _source_count$1$[ebp]
  00239	89 0b		 mov	 DWORD PTR [ebx], ecx
  0023b	83 eb 04	 sub	 ebx, 4
  0023e	8b 8d dc fe ff
	ff		 mov	 ecx, DWORD PTR _r$1$[ebp]
  00244	2b c1		 sub	 eax, ecx
  00246	8d 3c 4a	 lea	 edi, DWORD PTR [edx+ecx*2]
$LN57@TryParseX:

; 1173 :         }
; 1174 :         while (source_count > 0)

  00249	85 c0		 test	 eax, eax
  0024b	74 1d		 je	 SHORT $LN35@TryParseX
  0024d	8d 70 ff	 lea	 esi, DWORD PTR [eax-1]
  00250	c1 ee 03	 shr	 esi, 3
  00253	46		 inc	 esi
$LL34@TryParseX:

; 1175 :         {
; 1176 :             *out_ptr-- = Build1WordFromHexString(in_ptr);

  00254	57		 push	 edi
  00255	e8 00 00 00 00	 call	 ?Build1WordFromHexString@Internal@Core@Math@Palmtree@@YAIPA_W@Z ; Palmtree::Math::Core::Internal::Build1WordFromHexString
  0025a	83 c4 04	 add	 esp, 4
  0025d	89 03		 mov	 DWORD PTR [ebx], eax

; 1177 :             in_ptr += word_digit_count;

  0025f	83 c7 10	 add	 edi, 16			; 00000010H
  00262	8d 5b fc	 lea	 ebx, DWORD PTR [ebx-4]
  00265	83 ee 01	 sub	 esi, 1
  00268	75 ea		 jne	 SHORT $LL34@TryParseX
$LN35@TryParseX:

; 1233 :         root.CheckNumber(*o_abs);

  0026a	8b 9d d8 fe ff
	ff		 mov	 ebx, DWORD PTR _o_abs$GSCopy$1$[ebp]
  00270	8d 8d c4 fe ff
	ff		 lea	 ecx, DWORD PTR _root$[ebp]
  00276	ff 33		 push	 DWORD PTR [ebx]
  00278	e8 00 00 00 00	 call	 ?CheckNumber@ResourceHolderUINT@Internal@Core@Math@Palmtree@@QAEXPAU__tag_NUMBER_HEADER@2345@@Z ; Palmtree::Math::Core::Internal::ResourceHolderUINT::CheckNumber

; 1234 :         root.DeallocateString(int_part_buf);

  0027d	ff b5 e4 fe ff
	ff		 push	 DWORD PTR _int_part_buf$1$[ebp]
  00283	8d 8d c4 fe ff
	ff		 lea	 ecx, DWORD PTR _root$[ebp]
  00289	e8 00 00 00 00	 call	 ?DeallocateString@ResourceHolderUINT@Internal@Core@Math@Palmtree@@QAEXPA_W@Z ; Palmtree::Math::Core::Internal::ResourceHolderUINT::DeallocateString

; 1235 :         if (*o_sign < 0)

  0028e	8b b5 e8 fe ff
	ff		 mov	 esi, DWORD PTR _o_sign$GSCopy$1$[ebp]
  00294	80 3e 00	 cmp	 BYTE PTR [esi], 0
  00297	7d 48		 jge	 SHORT $LN3@TryParseX

; 1236 :         {
; 1237 :             // 
; 1238 : 
; 1239 :             int lzcnt = o_bit_count % __UNIT_TYPE_BIT_COUNT;

  00299	8b 8d bc fe ff
	ff		 mov	 ecx, DWORD PTR _o_bit_count$1$[ebp]
  0029f	83 e1 1f	 and	 ecx, 31			; 0000001fH

; 1240 :             if (lzcnt != 0)

  002a2	74 11		 je	 SHORT $LN12@TryParseX

; 1241 :             {
; 1242 :                 __UNIT_TYPE padding = (__UNIT_TYPE)-1 << lzcnt;
; 1243 :                 (*o_abs)->BLOCK[(*o_abs)->BLOCK_COUNT - 1] |= padding;

  002a4	8b 03		 mov	 eax, DWORD PTR [ebx]
  002a6	83 ca ff	 or	 edx, -1
  002a9	d3 e2		 shl	 edx, cl
  002ab	8b 48 20	 mov	 ecx, DWORD PTR [eax+32]
  002ae	8b 40 24	 mov	 eax, DWORD PTR [eax+36]
  002b1	09 54 88 fc	 or	 DWORD PTR [eax+ecx*4-4], edx
$LN12@TryParseX:

; 1244 :             }
; 1245 : 
; 1246 :             //  (*o_abs)->BLOCK 
; 1247 :             char carry = 1;
; 1248 :             __UNIT_TYPE* p = (*o_abs)->BLOCK;

  002b5	8b 03		 mov	 eax, DWORD PTR [ebx]
  002b7	b2 01		 mov	 dl, 1
  002b9	8b 70 20	 mov	 esi, DWORD PTR [eax+32]
  002bc	8b 48 24	 mov	 ecx, DWORD PTR [eax+36]

; 1249 :             __UNIT_TYPE count = (*o_abs)->BLOCK_COUNT;
; 1250 :             while (count > 0)

  002bf	85 f6		 test	 esi, esi
  002c1	74 18		 je	 SHORT $LN68@TryParseX
$LL2@TryParseX:

; 1252 :                 carry = _ADD_UNIT(carry, ~*p, 0, p);

  002c3	8b 01		 mov	 eax, DWORD PTR [ecx]

; 1253 :                 ++p;

  002c5	8d 49 04	 lea	 ecx, DWORD PTR [ecx+4]
; File z:\sources\lunor\repos\rougemeilland\palmtree.math.core.uint\palmtree.math.core.uint\pmc_inline_func.h

; 178  :             return (_addcarry_u32(carry, u, v, w));

  002c8	80 c2 ff	 add	 dl, 255			; 000000ffH
; File z:\sources\lunor\repos\rougemeilland\palmtree.math.core.uint\palmtree.math.core.uint\pmc_parse.cpp

; 1252 :                 carry = _ADD_UNIT(carry, ~*p, 0, p);

  002cb	f7 d0		 not	 eax
; File z:\sources\lunor\repos\rougemeilland\palmtree.math.core.uint\palmtree.math.core.uint\pmc_inline_func.h

; 178  :             return (_addcarry_u32(carry, u, v, w));

  002cd	83 d0 00	 adc	 eax, 0
  002d0	89 41 fc	 mov	 DWORD PTR [ecx-4], eax
  002d3	0f 92 c2	 setb	 dl
; File z:\sources\lunor\repos\rougemeilland\palmtree.math.core.uint\palmtree.math.core.uint\pmc_parse.cpp

; 1254 :                 --count;

  002d6	83 ee 01	 sub	 esi, 1
  002d9	75 e8		 jne	 SHORT $LL2@TryParseX
$LN68@TryParseX:

; 1255 :             }
; 1256 :         }
; 1257 :         CommitNumber(*o_abs);

  002db	8b b5 e8 fe ff
	ff		 mov	 esi, DWORD PTR _o_sign$GSCopy$1$[ebp]
$LN3@TryParseX:
  002e1	ff 33		 push	 DWORD PTR [ebx]
  002e3	e8 00 00 00 00	 call	 ?CommitNumber@Internal@Core@Math@Palmtree@@YAXPAU__tag_NUMBER_HEADER@1234@@Z ; Palmtree::Math::Core::Internal::CommitNumber

; 1258 :         if ((*o_abs)->IS_ZERO)

  002e8	8b 03		 mov	 eax, DWORD PTR [ebx]
  002ea	8d 8d c4 fe ff
	ff		 lea	 ecx, DWORD PTR _root$[ebp]
  002f0	83 c4 04	 add	 esp, 4
  002f3	f6 40 04 01	 test	 BYTE PTR [eax+4], 1
  002f7	50		 push	 eax
  002f8	74 1e		 je	 SHORT $LN13@TryParseX

; 1259 :         {
; 1260 :             root.DeallocateNumber(*o_abs);

  002fa	e8 00 00 00 00	 call	 ?DeallocateNumber@ResourceHolderUINT@Internal@Core@Math@Palmtree@@QAEXPAU__tag_NUMBER_HEADER@2345@@Z ; Palmtree::Math::Core::Internal::ResourceHolderUINT::DeallocateNumber

; 1266 :         *result = 1;

  002ff	8b 85 d4 fe ff
	ff		 mov	 eax, DWORD PTR _result$GSCopy$1$[ebp]
  00305	c6 06 00	 mov	 BYTE PTR [esi], 0

; 1267 :         return (PMC_STATUS_OK);

  00308	33 f6		 xor	 esi, esi
  0030a	c7 03 00 00 00
	00		 mov	 DWORD PTR [ebx], OFFSET ?number_zero@Internal@Core@Math@Palmtree@@3U__tag_NUMBER_HEADER@1234@A ; Palmtree::Math::Core::Internal::number_zero
  00310	c7 00 01 00 00
	00		 mov	 DWORD PTR [eax], 1
  00316	eb 2e		 jmp	 SHORT $LN18@TryParseX
$LN13@TryParseX:

; 1261 :             *o_sign = 0;
; 1262 :             *o_abs = &number_zero;
; 1263 :         }
; 1264 :         else
; 1265 :             root.UnlinkNumber(*o_abs);

  00318	e8 00 00 00 00	 call	 ?UnlinkNumber@ResourceHolderUINT@Internal@Core@Math@Palmtree@@QAEXPAU__tag_NUMBER_HEADER@2345@@Z ; Palmtree::Math::Core::Internal::ResourceHolderUINT::UnlinkNumber

; 1266 :         *result = 1;

  0031d	8b 85 d4 fe ff
	ff		 mov	 eax, DWORD PTR _result$GSCopy$1$[ebp]

; 1267 :         return (PMC_STATUS_OK);

  00323	33 f6		 xor	 esi, esi
  00325	c7 00 01 00 00
	00		 mov	 DWORD PTR [eax], 1
  0032b	eb 19		 jmp	 SHORT $LN18@TryParseX
$LN5@TryParseX:

; 1198 :         {
; 1199 :             *result = 0;

  0032d	8b 85 d4 fe ff
	ff		 mov	 eax, DWORD PTR _result$GSCopy$1$[ebp]

; 1200 :             if (number_styles & PMC_NUMBER_STYLE_ALLOW_EXCEPTION_THROWING)

  00333	81 e6 00 00 00
	02		 and	 esi, 33554432		; 02000000H
  00339	f7 de		 neg	 esi
  0033b	1b f6		 sbb	 esi, esi
  0033d	c7 00 00 00 00
	00		 mov	 DWORD PTR [eax], 0
  00343	83 e6 f9	 and	 esi, -7			; fffffff9H
$LN18@TryParseX:

; 1267 :         return (PMC_STATUS_OK);

  00346	c7 45 fc ff ff
	ff ff		 mov	 DWORD PTR __$EHRec$[ebp+8], -1
  0034d	8d 8d c4 fe ff
	ff		 lea	 ecx, DWORD PTR _root$[ebp]
  00353	e8 00 00 00 00	 call	 ??1ResourceHolderUINT@Internal@Core@Math@Palmtree@@UAE@XZ ; Palmtree::Math::Core::Internal::ResourceHolderUINT::~ResourceHolderUINT
  00358	8b c6		 mov	 eax, esi

; 1268 :     }

  0035a	8b 4d f4	 mov	 ecx, DWORD PTR __$EHRec$[ebp]
  0035d	64 89 0d 00 00
	00 00		 mov	 DWORD PTR fs:0, ecx
  00364	59		 pop	 ecx
  00365	5f		 pop	 edi
  00366	5e		 pop	 esi
  00367	5b		 pop	 ebx
  00368	8b 4d f0	 mov	 ecx, DWORD PTR __$ArrayPad$[ebp]
  0036b	33 cd		 xor	 ecx, ebp
  0036d	e8 00 00 00 00	 call	 @__security_check_cookie@4
  00372	8b e5		 mov	 esp, ebp
  00374	5d		 pop	 ebp
  00375	c3		 ret	 0
_TEXT	ENDS
;	COMDAT text$x
text$x	SEGMENT
__unwindfunclet$?TryParseX@Internal@Core@Math@Palmtree@@YAHPB_WIPBU__tag_PMC_NUMBER_FORMAT_INFO@1234@PADPAPAU__tag_NUMBER_HEADER@1234@PAI@Z$0:
  00000	8d 8d c4 fe ff
	ff		 lea	 ecx, DWORD PTR _root$[ebp]
  00006	e9 00 00 00 00	 jmp	 ??1ResourceHolderUINT@Internal@Core@Math@Palmtree@@UAE@XZ ; Palmtree::Math::Core::Internal::ResourceHolderUINT::~ResourceHolderUINT
__ehhandler$?TryParseX@Internal@Core@Math@Palmtree@@YAHPB_WIPBU__tag_PMC_NUMBER_FORMAT_INFO@1234@PADPAPAU__tag_NUMBER_HEADER@1234@PAI@Z:
  0000b	8b 54 24 08	 mov	 edx, DWORD PTR [esp+8]
  0000f	8d 42 0c	 lea	 eax, DWORD PTR [edx+12]
  00012	8b 8a b8 fe ff
	ff		 mov	 ecx, DWORD PTR [edx-328]
  00018	33 c8		 xor	 ecx, eax
  0001a	e8 00 00 00 00	 call	 @__security_check_cookie@4
  0001f	8b 4a fc	 mov	 ecx, DWORD PTR [edx-4]
  00022	33 c8		 xor	 ecx, eax
  00024	e8 00 00 00 00	 call	 @__security_check_cookie@4
  00029	b8 00 00 00 00	 mov	 eax, OFFSET __ehfuncinfo$?TryParseX@Internal@Core@Math@Palmtree@@YAHPB_WIPBU__tag_PMC_NUMBER_FORMAT_INFO@1234@PADPAPAU__tag_NUMBER_HEADER@1234@PAI@Z
  0002e	e9 00 00 00 00	 jmp	 ___CxxFrameHandler3
text$x	ENDS
?TryParseX@Internal@Core@Math@Palmtree@@YAHPB_WIPBU__tag_PMC_NUMBER_FORMAT_INFO@1234@PADPAPAU__tag_NUMBER_HEADER@1234@PAI@Z ENDP ; Palmtree::Math::Core::Internal::TryParseX
; Function compile flags: /Ogtp
; File z:\sources\lunor\repos\rougemeilland\palmtree.math.core.uint\palmtree.math.core.uint\pmc_parse.cpp
;	COMDAT ?ParseAsHexNumberString@Internal@Core@Math@Palmtree@@YAHPB_WIPBU__tag_PMC_NUMBER_FORMAT_INFO@1234@PA_WI@Z
_TEXT	SEGMENT
_dummy_sign$ = -265					; size = 1
_state$ = -264						; size = 260
__$ArrayPad$ = -4					; size = 4
_in_ptr$ = 8						; size = 4
_number_styles$ = 12					; size = 4
_format_option$ = 16					; size = 4
_int_part_buf$ = 20					; size = 4
_int_part_buf_size$ = 24				; size = 4
?ParseAsHexNumberString@Internal@Core@Math@Palmtree@@YAHPB_WIPBU__tag_PMC_NUMBER_FORMAT_INFO@1234@PA_WI@Z PROC ; Palmtree::Math::Core::Internal::ParseAsHexNumberString, COMDAT

; 1183 :     {

  00000	55		 push	 ebp
  00001	8b ec		 mov	 ebp, esp
  00003	81 ec 0c 01 00
	00		 sub	 esp, 268		; 0000010cH
  00009	a1 00 00 00 00	 mov	 eax, DWORD PTR ___security_cookie
  0000e	33 c5		 xor	 eax, ebp
  00010	89 45 fc	 mov	 DWORD PTR __$ArrayPad$[ebp], eax
  00013	8b 45 14	 mov	 eax, DWORD PTR _int_part_buf$[ebp]
  00016	8b 4d 10	 mov	 ecx, DWORD PTR _format_option$[ebp]

; 1184 :         char dummy_sign;
; 1185 :         ParserState state(in_ptr, number_styles, format_option, &dummy_sign, int_part_buf, int_part_buf_size, nullptr, 0);

  00019	6a 00		 push	 0
  0001b	6a 00		 push	 0
  0001d	ff 75 18	 push	 DWORD PTR _int_part_buf_size$[ebp]
  00020	50		 push	 eax
  00021	8d 85 f7 fe ff
	ff		 lea	 eax, DWORD PTR _dummy_sign$[ebp]
  00027	50		 push	 eax
  00028	51		 push	 ecx
  00029	ff 75 0c	 push	 DWORD PTR _number_styles$[ebp]
  0002c	8d 8d f8 fe ff
	ff		 lea	 ecx, DWORD PTR _state$[ebp]
  00032	ff 75 08	 push	 DWORD PTR _in_ptr$[ebp]
  00035	e8 00 00 00 00	 call	 ??0ParserState@Internal@Core@Math@Palmtree@@QAE@PB_WIPBU__tag_PMC_NUMBER_FORMAT_INFO@1234@PADPA_WI3I@Z ; Palmtree::Math::Core::Internal::ParserState::ParserState

; 480  :             if (_number_styles & PMC_NUMBER_STYLE_ALLOW_LEADING_WHITE)

  0003a	f6 85 28 ff ff
	ff 01		 test	 BYTE PTR _state$[ebp+48], 1
  00041	74 0b		 je	 SHORT $LN4@ParseAsHex

; 481  :                 _source.SkipSpace();

  00043	8d 8d f8 fe ff
	ff		 lea	 ecx, DWORD PTR _state$[ebp]
  00049	e8 00 00 00 00	 call	 ?SkipSpace@StringReader@Internal@Core@Math@Palmtree@@QAEXXZ ; Palmtree::Math::Core::Internal::StringReader::SkipSpace
$LN4@ParseAsHex:

; 482  :             ParseAsIntegerPartNumberSequence();

  0004e	8d 8d f8 fe ff
	ff		 lea	 ecx, DWORD PTR _state$[ebp]
  00054	e8 00 00 00 00	 call	 ?ParseAsIntegerPartNumberSequence@ParserState@Internal@Core@Math@Palmtree@@AAEXXZ ; Palmtree::Math::Core::Internal::ParserState::ParseAsIntegerPartNumberSequence

; 483  :             if (_number_styles & PMC_NUMBER_STYLE_ALLOW_TRAILING_WHITE)

  00059	f6 85 28 ff ff
	ff 02		 test	 BYTE PTR _state$[ebp+48], 2
  00060	74 0b		 je	 SHORT $LN5@ParseAsHex

; 484  :                 _source.SkipSpace();

  00062	8d 8d f8 fe ff
	ff		 lea	 ecx, DWORD PTR _state$[ebp]
  00068	e8 00 00 00 00	 call	 ?SkipSpace@StringReader@Internal@Core@Math@Palmtree@@QAEXXZ ; Palmtree::Math::Core::Internal::StringReader::SkipSpace
$LN5@ParseAsHex:

; 485  :             if (_source.PeekChar() != L'\0')

  0006d	8b 85 f8 fe ff
	ff		 mov	 eax, DWORD PTR _state$[ebp]
  00073	8d 8d f8 fe ff
	ff		 lea	 ecx, DWORD PTR _state$[ebp]
  00079	ff 10		 call	 DWORD PTR [eax]
  0007b	33 c9		 xor	 ecx, ecx
  0007d	66 85 c0	 test	 ax, ax
  00080	0f 94 c1	 sete	 cl

; 1186 :         return (state.ParseAsHexNumberString());

  00083	8b c1		 mov	 eax, ecx

; 1187 :     }

  00085	8b 4d fc	 mov	 ecx, DWORD PTR __$ArrayPad$[ebp]
  00088	33 cd		 xor	 ecx, ebp
  0008a	e8 00 00 00 00	 call	 @__security_check_cookie@4
  0008f	8b e5		 mov	 esp, ebp
  00091	5d		 pop	 ebp
  00092	c3		 ret	 0
?ParseAsHexNumberString@Internal@Core@Math@Palmtree@@YAHPB_WIPBU__tag_PMC_NUMBER_FORMAT_INFO@1234@PA_WI@Z ENDP ; Palmtree::Math::Core::Internal::ParseAsHexNumberString
_TEXT	ENDS
; Function compile flags: /Ogtp
; File z:\sources\lunor\repos\rougemeilland\palmtree.math.core.uint\palmtree.math.core.uint\pmc_parse.cpp
; File z:\sources\lunor\repos\rougemeilland\palmtree.math.core.uint\palmtree.math.core.uint\pmc_inline_func.h
; File z:\sources\lunor\repos\rougemeilland\palmtree.math.core.uint\palmtree.math.core.uint\pmc_parse.cpp
; File z:\sources\lunor\repos\rougemeilland\palmtree.math.core.uint\palmtree.math.core.uint\pmc_inline_func.h
; File z:\sources\lunor\repos\rougemeilland\palmtree.math.core.uint\palmtree.math.core.uint\pmc_parse.cpp
;	COMDAT ?BuildBinaryFromHexString@Internal@Core@Math@Palmtree@@YAXPA_WPAI@Z
_TEXT	SEGMENT
_source_count$1$ = -8					; size = 4
_r$1$ = -4						; size = 4
_source$ = 8						; size = 4
_out_buf$ = 12						; size = 4
?BuildBinaryFromHexString@Internal@Core@Math@Palmtree@@YAXPA_WPAI@Z PROC ; Palmtree::Math::Core::Internal::BuildBinaryFromHexString, COMDAT

; 1162 :     {

  00000	55		 push	 ebp
  00001	8b ec		 mov	 ebp, esp
  00003	83 ec 08	 sub	 esp, 8
  00006	53		 push	 ebx
  00007	56		 push	 esi
  00008	57		 push	 edi

; 1164 :         __UNIT_TYPE source_count = lstrlenW(source);

  00009	8b 7d 08	 mov	 edi, DWORD PTR _source$[ebp]
  0000c	57		 push	 edi
  0000d	ff 15 00 00 00
	00		 call	 DWORD PTR __imp__lstrlenW@4
; File z:\sources\lunor\repos\rougemeilland\palmtree.math.core.uint\palmtree.math.core.uint\pmc_inline_func.h

; 157  :             return ((u + v - 1) / v);

  00013	8b 4d 0c	 mov	 ecx, DWORD PTR _out_buf$[ebp]
  00016	83 e9 04	 sub	 ecx, 4
; File z:\sources\lunor\repos\rougemeilland\palmtree.math.core.uint\palmtree.math.core.uint\pmc_parse.cpp

; 1164 :         __UNIT_TYPE source_count = lstrlenW(source);

  00019	89 45 f8	 mov	 DWORD PTR _source_count$1$[ebp], eax
; File z:\sources\lunor\repos\rougemeilland\palmtree.math.core.uint\palmtree.math.core.uint\pmc_inline_func.h

; 157  :             return ((u + v - 1) / v);

  0001c	8d 50 07	 lea	 edx, DWORD PTR [eax+7]
  0001f	c1 ea 03	 shr	 edx, 3
  00022	8d 1c 91	 lea	 ebx, DWORD PTR [ecx+edx*4]
; File z:\sources\lunor\repos\rougemeilland\palmtree.math.core.uint\palmtree.math.core.uint\pmc_parse.cpp

; 1167 :         int r = source_count % word_digit_count;

  00025	8b d0		 mov	 edx, eax
  00027	83 e2 07	 and	 edx, 7
  0002a	89 55 fc	 mov	 DWORD PTR _r$1$[ebp], edx

; 1168 :         if (r > 0)

  0002d	0f 8e 8d 00 00
	00		 jle	 $LN23@BuildBinar

; 1116 :         __UNIT_TYPE x = ParseHexDigit(*in_ptr);

  00033	0f b7 0f	 movzx	 ecx, WORD PTR [edi]

; 49   :         if (c >= L'0' && c <= L'9')

  00036	8d 41 d0	 lea	 eax, DWORD PTR [ecx-48]
  00039	66 83 f8 09	 cmp	 ax, 9
  0003d	77 05		 ja	 SHORT $LN13@BuildBinar

; 50   :             return (c - L'0');

  0003f	83 e9 30	 sub	 ecx, 48			; 00000030H
  00042	eb 1f		 jmp	 SHORT $LN12@BuildBinar
$LN13@BuildBinar:

; 51   : 
; 52   :         if (c >= L'a' && c <= L'f')

  00044	8d 41 9f	 lea	 eax, DWORD PTR [ecx-97]
  00047	66 83 f8 05	 cmp	 ax, 5
  0004b	77 05		 ja	 SHORT $LN14@BuildBinar

; 53   :             return (c - L'a' + 10);

  0004d	83 e9 57	 sub	 ecx, 87			; 00000057H
  00050	eb 11		 jmp	 SHORT $LN12@BuildBinar
$LN14@BuildBinar:

; 54   : 
; 55   :         if (c >= L'A' && c <= L'F')

  00052	8d 41 bf	 lea	 eax, DWORD PTR [ecx-65]
  00055	66 83 f8 05	 cmp	 ax, 5
  00059	77 05		 ja	 SHORT $LN15@BuildBinar

; 56   :             return (c - L'A' + 10);

  0005b	83 e9 37	 sub	 ecx, 55			; 00000037H
  0005e	eb 03		 jmp	 SHORT $LN12@BuildBinar
$LN15@BuildBinar:

; 57   :         return (-1);

  00060	83 c9 ff	 or	 ecx, -1
$LN12@BuildBinar:

; 1118 :         --count;

  00063	8d 42 ff	 lea	 eax, DWORD PTR [edx-1]
  00066	8d 77 02	 lea	 esi, DWORD PTR [edi+2]

; 1119 :         while (count > 0)

  00069	85 c0		 test	 eax, eax
  0006b	74 46		 je	 SHORT $LN10@BuildBinar
  0006d	8b f8		 mov	 edi, eax
  0006f	90		 npad	 1
$LL9@BuildBinar:

; 1120 :         {
; 1121 :             x = x * 16 + ParseHexDigit(*in_ptr);

  00070	0f b7 16	 movzx	 edx, WORD PTR [esi]

; 49   :         if (c >= L'0' && c <= L'9')

  00073	8d 42 d0	 lea	 eax, DWORD PTR [edx-48]
  00076	66 83 f8 09	 cmp	 ax, 9
  0007a	77 05		 ja	 SHORT $LN18@BuildBinar

; 50   :             return (c - L'0');

  0007c	8d 42 d0	 lea	 eax, DWORD PTR [edx-48]
  0007f	eb 1f		 jmp	 SHORT $LN17@BuildBinar
$LN18@BuildBinar:

; 51   : 
; 52   :         if (c >= L'a' && c <= L'f')

  00081	8d 42 9f	 lea	 eax, DWORD PTR [edx-97]
  00084	66 83 f8 05	 cmp	 ax, 5
  00088	77 05		 ja	 SHORT $LN19@BuildBinar

; 53   :             return (c - L'a' + 10);

  0008a	8d 42 a9	 lea	 eax, DWORD PTR [edx-87]
  0008d	eb 11		 jmp	 SHORT $LN17@BuildBinar
$LN19@BuildBinar:

; 54   : 
; 55   :         if (c >= L'A' && c <= L'F')

  0008f	8d 42 bf	 lea	 eax, DWORD PTR [edx-65]
  00092	66 83 f8 05	 cmp	 ax, 5
  00096	77 05		 ja	 SHORT $LN20@BuildBinar

; 56   :             return (c - L'A' + 10);

  00098	8d 42 c9	 lea	 eax, DWORD PTR [edx-55]
  0009b	eb 03		 jmp	 SHORT $LN17@BuildBinar
$LN20@BuildBinar:

; 57   :         return (-1);

  0009d	83 c8 ff	 or	 eax, -1
$LN17@BuildBinar:

; 1121 :             x = x * 16 + ParseHexDigit(*in_ptr);

  000a0	c1 e1 04	 shl	 ecx, 4

; 1122 :             ++in_ptr;

  000a3	83 c6 02	 add	 esi, 2
  000a6	03 c8		 add	 ecx, eax

; 1123 :             --count;

  000a8	83 ef 01	 sub	 edi, 1
  000ab	75 c3		 jne	 SHORT $LL9@BuildBinar
  000ad	8b 7d 08	 mov	 edi, DWORD PTR _source$[ebp]
  000b0	8b 55 fc	 mov	 edx, DWORD PTR _r$1$[ebp]
$LN10@BuildBinar:

; 1169 :         {
; 1170 :             *out_ptr-- = BuildLeading1WordFromHexString(in_ptr, r);
; 1171 :             in_ptr += r;
; 1172 :             source_count -= r;

  000b3	8b 45 f8	 mov	 eax, DWORD PTR _source_count$1$[ebp]
  000b6	8d 3c 57	 lea	 edi, DWORD PTR [edi+edx*2]
  000b9	89 0b		 mov	 DWORD PTR [ebx], ecx
  000bb	83 eb 04	 sub	 ebx, 4
  000be	2b c2		 sub	 eax, edx
$LN23@BuildBinar:

; 1173 :         }
; 1174 :         while (source_count > 0)

  000c0	85 c0		 test	 eax, eax
  000c2	74 22		 je	 SHORT $LN3@BuildBinar
  000c4	8d 70 ff	 lea	 esi, DWORD PTR [eax-1]
  000c7	c1 ee 03	 shr	 esi, 3
  000ca	46		 inc	 esi
  000cb	0f 1f 44 00 00	 npad	 5
$LL2@BuildBinar:

; 1175 :         {
; 1176 :             *out_ptr-- = Build1WordFromHexString(in_ptr);

  000d0	57		 push	 edi
  000d1	e8 00 00 00 00	 call	 ?Build1WordFromHexString@Internal@Core@Math@Palmtree@@YAIPA_W@Z ; Palmtree::Math::Core::Internal::Build1WordFromHexString
  000d6	83 c4 04	 add	 esp, 4
  000d9	89 03		 mov	 DWORD PTR [ebx], eax

; 1177 :             in_ptr += word_digit_count;

  000db	83 c7 10	 add	 edi, 16			; 00000010H
  000de	8d 5b fc	 lea	 ebx, DWORD PTR [ebx-4]
  000e1	83 ee 01	 sub	 esi, 1
  000e4	75 ea		 jne	 SHORT $LL2@BuildBinar
$LN3@BuildBinar:
  000e6	5f		 pop	 edi

; 1178 :             source_count -= word_digit_count;
; 1179 :         }
; 1180 :     }

  000e7	5e		 pop	 esi
  000e8	5b		 pop	 ebx
  000e9	8b e5		 mov	 esp, ebp
  000eb	5d		 pop	 ebp
  000ec	c3		 ret	 0
?BuildBinaryFromHexString@Internal@Core@Math@Palmtree@@YAXPA_WPAI@Z ENDP ; Palmtree::Math::Core::Internal::BuildBinaryFromHexString
_TEXT	ENDS
; Function compile flags: /Ogtp
; File z:\sources\lunor\repos\rougemeilland\palmtree.math.core.uint\palmtree.math.core.uint\pmc_parse.cpp
;	COMDAT ?Build1WordFromHexString@Internal@Core@Math@Palmtree@@YAIPA_W@Z
_TEXT	SEGMENT
_in_ptr$ = 8						; size = 4
?Build1WordFromHexString@Internal@Core@Math@Palmtree@@YAIPA_W@Z PROC ; Palmtree::Math::Core::Internal::Build1WordFromHexString, COMDAT

; 1129 :     {

  00000	55		 push	 ebp
  00001	8b ec		 mov	 ebp, esp

; 1130 :         __UNIT_TYPE x = ParseHexDigit(*in_ptr++);

  00003	8b 55 08	 mov	 edx, DWORD PTR _in_ptr$[ebp]
  00006	0f b7 0a	 movzx	 ecx, WORD PTR [edx]

; 49   :         if (c >= L'0' && c <= L'9')

  00009	8d 41 d0	 lea	 eax, DWORD PTR [ecx-48]
  0000c	66 83 f8 09	 cmp	 ax, 9
  00010	77 05		 ja	 SHORT $LN8@Build1Word

; 50   :             return (c - L'0');

  00012	83 e9 30	 sub	 ecx, 48			; 00000030H
  00015	eb 1f		 jmp	 SHORT $LN7@Build1Word
$LN8@Build1Word:

; 51   : 
; 52   :         if (c >= L'a' && c <= L'f')

  00017	8d 41 9f	 lea	 eax, DWORD PTR [ecx-97]
  0001a	66 83 f8 05	 cmp	 ax, 5
  0001e	77 05		 ja	 SHORT $LN9@Build1Word

; 53   :             return (c - L'a' + 10);

  00020	83 e9 57	 sub	 ecx, 87			; 00000057H
  00023	eb 11		 jmp	 SHORT $LN7@Build1Word
$LN9@Build1Word:

; 54   : 
; 55   :         if (c >= L'A' && c <= L'F')

  00025	8d 41 bf	 lea	 eax, DWORD PTR [ecx-65]
  00028	66 83 f8 05	 cmp	 ax, 5
  0002c	77 05		 ja	 SHORT $LN10@Build1Word

; 56   :             return (c - L'A' + 10);

  0002e	83 e9 37	 sub	 ecx, 55			; 00000037H
  00031	eb 03		 jmp	 SHORT $LN7@Build1Word
$LN10@Build1Word:

; 57   :         return (-1);

  00033	83 c9 ff	 or	 ecx, -1
$LN7@Build1Word:
  00036	56		 push	 esi

; 1131 :         if (sizeof(__UNIT_TYPE) >= sizeof(_UINT64_T))
; 1132 :         {
; 1133 :             x = x * 16 + ParseHexDigit(*in_ptr++);
; 1134 :             x = x * 16 + ParseHexDigit(*in_ptr++);
; 1135 :             x = x * 16 + ParseHexDigit(*in_ptr++);
; 1136 :             x = x * 16 + ParseHexDigit(*in_ptr++);
; 1137 :             x = x * 16 + ParseHexDigit(*in_ptr++);
; 1138 :             x = x * 16 + ParseHexDigit(*in_ptr++);
; 1139 :             x = x * 16 + ParseHexDigit(*in_ptr++);
; 1140 :             x = x * 16 + ParseHexDigit(*in_ptr++);
; 1141 :         }
; 1142 :         if (sizeof(__UNIT_TYPE) >= sizeof(_UINT32_T))
; 1143 :         {
; 1144 :             x = x * 16 + ParseHexDigit(*in_ptr++);

  00037	0f b7 72 02	 movzx	 esi, WORD PTR [edx+2]

; 49   :         if (c >= L'0' && c <= L'9')

  0003b	8d 46 d0	 lea	 eax, DWORD PTR [esi-48]
  0003e	66 83 f8 09	 cmp	 ax, 9
  00042	77 05		 ja	 SHORT $LN53@Build1Word

; 50   :             return (c - L'0');

  00044	8d 46 d0	 lea	 eax, DWORD PTR [esi-48]
  00047	eb 1f		 jmp	 SHORT $LN52@Build1Word
$LN53@Build1Word:

; 51   : 
; 52   :         if (c >= L'a' && c <= L'f')

  00049	8d 46 9f	 lea	 eax, DWORD PTR [esi-97]
  0004c	66 83 f8 05	 cmp	 ax, 5
  00050	77 05		 ja	 SHORT $LN54@Build1Word

; 53   :             return (c - L'a' + 10);

  00052	8d 46 a9	 lea	 eax, DWORD PTR [esi-87]
  00055	eb 11		 jmp	 SHORT $LN52@Build1Word
$LN54@Build1Word:

; 54   : 
; 55   :         if (c >= L'A' && c <= L'F')

  00057	8d 46 bf	 lea	 eax, DWORD PTR [esi-65]
  0005a	66 83 f8 05	 cmp	 ax, 5
  0005e	77 05		 ja	 SHORT $LN55@Build1Word

; 56   :             return (c - L'A' + 10);

  00060	8d 46 c9	 lea	 eax, DWORD PTR [esi-55]
  00063	eb 03		 jmp	 SHORT $LN52@Build1Word
$LN55@Build1Word:

; 57   :         return (-1);

  00065	83 c8 ff	 or	 eax, -1
$LN52@Build1Word:

; 1145 :             x = x * 16 + ParseHexDigit(*in_ptr++);

  00068	0f b7 72 04	 movzx	 esi, WORD PTR [edx+4]
  0006c	c1 e1 04	 shl	 ecx, 4
  0006f	03 c8		 add	 ecx, eax

; 49   :         if (c >= L'0' && c <= L'9')

  00071	8d 46 d0	 lea	 eax, DWORD PTR [esi-48]
  00074	66 83 f8 09	 cmp	 ax, 9
  00078	77 05		 ja	 SHORT $LN58@Build1Word

; 50   :             return (c - L'0');

  0007a	8d 46 d0	 lea	 eax, DWORD PTR [esi-48]
  0007d	eb 1f		 jmp	 SHORT $LN57@Build1Word
$LN58@Build1Word:

; 51   : 
; 52   :         if (c >= L'a' && c <= L'f')

  0007f	8d 46 9f	 lea	 eax, DWORD PTR [esi-97]
  00082	66 83 f8 05	 cmp	 ax, 5
  00086	77 05		 ja	 SHORT $LN59@Build1Word

; 53   :             return (c - L'a' + 10);

  00088	8d 46 a9	 lea	 eax, DWORD PTR [esi-87]
  0008b	eb 11		 jmp	 SHORT $LN57@Build1Word
$LN59@Build1Word:

; 54   : 
; 55   :         if (c >= L'A' && c <= L'F')

  0008d	8d 46 bf	 lea	 eax, DWORD PTR [esi-65]
  00090	66 83 f8 05	 cmp	 ax, 5
  00094	77 05		 ja	 SHORT $LN60@Build1Word

; 56   :             return (c - L'A' + 10);

  00096	8d 46 c9	 lea	 eax, DWORD PTR [esi-55]
  00099	eb 03		 jmp	 SHORT $LN57@Build1Word
$LN60@Build1Word:

; 57   :         return (-1);

  0009b	83 c8 ff	 or	 eax, -1
$LN57@Build1Word:

; 1146 :             x = x * 16 + ParseHexDigit(*in_ptr++);

  0009e	0f b7 72 06	 movzx	 esi, WORD PTR [edx+6]
  000a2	c1 e1 04	 shl	 ecx, 4
  000a5	03 c8		 add	 ecx, eax

; 49   :         if (c >= L'0' && c <= L'9')

  000a7	8d 46 d0	 lea	 eax, DWORD PTR [esi-48]
  000aa	66 83 f8 09	 cmp	 ax, 9
  000ae	77 05		 ja	 SHORT $LN63@Build1Word

; 50   :             return (c - L'0');

  000b0	8d 46 d0	 lea	 eax, DWORD PTR [esi-48]
  000b3	eb 1f		 jmp	 SHORT $LN62@Build1Word
$LN63@Build1Word:

; 51   : 
; 52   :         if (c >= L'a' && c <= L'f')

  000b5	8d 46 9f	 lea	 eax, DWORD PTR [esi-97]
  000b8	66 83 f8 05	 cmp	 ax, 5
  000bc	77 05		 ja	 SHORT $LN64@Build1Word

; 53   :             return (c - L'a' + 10);

  000be	8d 46 a9	 lea	 eax, DWORD PTR [esi-87]
  000c1	eb 11		 jmp	 SHORT $LN62@Build1Word
$LN64@Build1Word:

; 54   : 
; 55   :         if (c >= L'A' && c <= L'F')

  000c3	8d 46 bf	 lea	 eax, DWORD PTR [esi-65]
  000c6	66 83 f8 05	 cmp	 ax, 5
  000ca	77 05		 ja	 SHORT $LN65@Build1Word

; 56   :             return (c - L'A' + 10);

  000cc	8d 46 c9	 lea	 eax, DWORD PTR [esi-55]
  000cf	eb 03		 jmp	 SHORT $LN62@Build1Word
$LN65@Build1Word:

; 57   :         return (-1);

  000d1	83 c8 ff	 or	 eax, -1
$LN62@Build1Word:

; 1147 :             x = x * 16 + ParseHexDigit(*in_ptr++);

  000d4	0f b7 72 08	 movzx	 esi, WORD PTR [edx+8]
  000d8	c1 e1 04	 shl	 ecx, 4
  000db	03 c8		 add	 ecx, eax

; 49   :         if (c >= L'0' && c <= L'9')

  000dd	8d 46 d0	 lea	 eax, DWORD PTR [esi-48]
  000e0	66 83 f8 09	 cmp	 ax, 9
  000e4	77 05		 ja	 SHORT $LN68@Build1Word

; 50   :             return (c - L'0');

  000e6	8d 46 d0	 lea	 eax, DWORD PTR [esi-48]
  000e9	eb 1f		 jmp	 SHORT $LN67@Build1Word
$LN68@Build1Word:

; 51   : 
; 52   :         if (c >= L'a' && c <= L'f')

  000eb	8d 46 9f	 lea	 eax, DWORD PTR [esi-97]
  000ee	66 83 f8 05	 cmp	 ax, 5
  000f2	77 05		 ja	 SHORT $LN69@Build1Word

; 53   :             return (c - L'a' + 10);

  000f4	8d 46 a9	 lea	 eax, DWORD PTR [esi-87]
  000f7	eb 11		 jmp	 SHORT $LN67@Build1Word
$LN69@Build1Word:

; 54   : 
; 55   :         if (c >= L'A' && c <= L'F')

  000f9	8d 46 bf	 lea	 eax, DWORD PTR [esi-65]
  000fc	66 83 f8 05	 cmp	 ax, 5
  00100	77 05		 ja	 SHORT $LN70@Build1Word

; 56   :             return (c - L'A' + 10);

  00102	8d 46 c9	 lea	 eax, DWORD PTR [esi-55]
  00105	eb 03		 jmp	 SHORT $LN67@Build1Word
$LN70@Build1Word:

; 57   :         return (-1);

  00107	83 c8 ff	 or	 eax, -1
$LN67@Build1Word:

; 1148 :         }
; 1149 :         if (sizeof(__UNIT_TYPE) >= sizeof(_UINT16_T))
; 1150 :         {
; 1151 :             x = x * 16 + ParseHexDigit(*in_ptr++);

  0010a	0f b7 72 0a	 movzx	 esi, WORD PTR [edx+10]
  0010e	c1 e1 04	 shl	 ecx, 4
  00111	03 c8		 add	 ecx, eax

; 49   :         if (c >= L'0' && c <= L'9')

  00113	8d 46 d0	 lea	 eax, DWORD PTR [esi-48]
  00116	66 83 f8 09	 cmp	 ax, 9
  0011a	77 05		 ja	 SHORT $LN73@Build1Word

; 50   :             return (c - L'0');

  0011c	8d 46 d0	 lea	 eax, DWORD PTR [esi-48]
  0011f	eb 1f		 jmp	 SHORT $LN72@Build1Word
$LN73@Build1Word:

; 51   : 
; 52   :         if (c >= L'a' && c <= L'f')

  00121	8d 46 9f	 lea	 eax, DWORD PTR [esi-97]
  00124	66 83 f8 05	 cmp	 ax, 5
  00128	77 05		 ja	 SHORT $LN74@Build1Word

; 53   :             return (c - L'a' + 10);

  0012a	8d 46 a9	 lea	 eax, DWORD PTR [esi-87]
  0012d	eb 11		 jmp	 SHORT $LN72@Build1Word
$LN74@Build1Word:

; 54   : 
; 55   :         if (c >= L'A' && c <= L'F')

  0012f	8d 46 bf	 lea	 eax, DWORD PTR [esi-65]
  00132	66 83 f8 05	 cmp	 ax, 5
  00136	77 05		 ja	 SHORT $LN75@Build1Word

; 56   :             return (c - L'A' + 10);

  00138	8d 46 c9	 lea	 eax, DWORD PTR [esi-55]
  0013b	eb 03		 jmp	 SHORT $LN72@Build1Word
$LN75@Build1Word:

; 57   :         return (-1);

  0013d	83 c8 ff	 or	 eax, -1
$LN72@Build1Word:

; 1152 :             x = x * 16 + ParseHexDigit(*in_ptr++);

  00140	0f b7 72 0c	 movzx	 esi, WORD PTR [edx+12]
  00144	c1 e1 04	 shl	 ecx, 4
  00147	03 c8		 add	 ecx, eax

; 49   :         if (c >= L'0' && c <= L'9')

  00149	8d 46 d0	 lea	 eax, DWORD PTR [esi-48]
  0014c	66 83 f8 09	 cmp	 ax, 9
  00150	77 05		 ja	 SHORT $LN78@Build1Word

; 50   :             return (c - L'0');

  00152	8d 46 d0	 lea	 eax, DWORD PTR [esi-48]
  00155	eb 1f		 jmp	 SHORT $LN77@Build1Word
$LN78@Build1Word:

; 51   : 
; 52   :         if (c >= L'a' && c <= L'f')

  00157	8d 46 9f	 lea	 eax, DWORD PTR [esi-97]
  0015a	66 83 f8 05	 cmp	 ax, 5
  0015e	77 05		 ja	 SHORT $LN79@Build1Word

; 53   :             return (c - L'a' + 10);

  00160	8d 46 a9	 lea	 eax, DWORD PTR [esi-87]
  00163	eb 11		 jmp	 SHORT $LN77@Build1Word
$LN79@Build1Word:

; 54   : 
; 55   :         if (c >= L'A' && c <= L'F')

  00165	8d 46 bf	 lea	 eax, DWORD PTR [esi-65]
  00168	66 83 f8 05	 cmp	 ax, 5
  0016c	77 05		 ja	 SHORT $LN80@Build1Word

; 56   :             return (c - L'A' + 10);

  0016e	8d 46 c9	 lea	 eax, DWORD PTR [esi-55]
  00171	eb 03		 jmp	 SHORT $LN77@Build1Word
$LN80@Build1Word:

; 57   :         return (-1);

  00173	83 c8 ff	 or	 eax, -1
$LN77@Build1Word:

; 1153 :         }
; 1154 :         if (sizeof(__UNIT_TYPE) >= sizeof(_BYTE_T))
; 1155 :         {
; 1156 :             x = x * 16 + ParseHexDigit(*in_ptr++);

  00176	0f b7 52 0e	 movzx	 edx, WORD PTR [edx+14]
  0017a	c1 e1 04	 shl	 ecx, 4
  0017d	03 c8		 add	 ecx, eax

; 49   :         if (c >= L'0' && c <= L'9')

  0017f	5e		 pop	 esi
  00180	8d 42 d0	 lea	 eax, DWORD PTR [edx-48]
  00183	66 83 f8 09	 cmp	 ax, 9
  00187	77 0a		 ja	 SHORT $LN83@Build1Word

; 50   :             return (c - L'0');

  00189	8d 42 d0	 lea	 eax, DWORD PTR [edx-48]

; 1153 :         }
; 1154 :         if (sizeof(__UNIT_TYPE) >= sizeof(_BYTE_T))
; 1155 :         {
; 1156 :             x = x * 16 + ParseHexDigit(*in_ptr++);

  0018c	c1 e1 04	 shl	 ecx, 4
  0018f	03 c1		 add	 eax, ecx

; 1157 :         }
; 1158 :         return (x);
; 1159 :     }

  00191	5d		 pop	 ebp
  00192	c3		 ret	 0
$LN83@Build1Word:

; 52   :         if (c >= L'a' && c <= L'f')

  00193	8d 42 9f	 lea	 eax, DWORD PTR [edx-97]
  00196	66 83 f8 05	 cmp	 ax, 5
  0019a	77 0a		 ja	 SHORT $LN84@Build1Word

; 53   :             return (c - L'a' + 10);

  0019c	8d 42 a9	 lea	 eax, DWORD PTR [edx-87]

; 1153 :         }
; 1154 :         if (sizeof(__UNIT_TYPE) >= sizeof(_BYTE_T))
; 1155 :         {
; 1156 :             x = x * 16 + ParseHexDigit(*in_ptr++);

  0019f	c1 e1 04	 shl	 ecx, 4
  001a2	03 c1		 add	 eax, ecx

; 1157 :         }
; 1158 :         return (x);
; 1159 :     }

  001a4	5d		 pop	 ebp
  001a5	c3		 ret	 0
$LN84@Build1Word:

; 55   :         if (c >= L'A' && c <= L'F')

  001a6	8d 42 bf	 lea	 eax, DWORD PTR [edx-65]
  001a9	66 83 f8 05	 cmp	 ax, 5
  001ad	77 0a		 ja	 SHORT $LN85@Build1Word

; 56   :             return (c - L'A' + 10);

  001af	8d 42 c9	 lea	 eax, DWORD PTR [edx-55]

; 1153 :         }
; 1154 :         if (sizeof(__UNIT_TYPE) >= sizeof(_BYTE_T))
; 1155 :         {
; 1156 :             x = x * 16 + ParseHexDigit(*in_ptr++);

  001b2	c1 e1 04	 shl	 ecx, 4
  001b5	03 c1		 add	 eax, ecx

; 1157 :         }
; 1158 :         return (x);
; 1159 :     }

  001b7	5d		 pop	 ebp
  001b8	c3		 ret	 0
$LN85@Build1Word:

; 57   :         return (-1);

  001b9	83 c8 ff	 or	 eax, -1

; 1153 :         }
; 1154 :         if (sizeof(__UNIT_TYPE) >= sizeof(_BYTE_T))
; 1155 :         {
; 1156 :             x = x * 16 + ParseHexDigit(*in_ptr++);

  001bc	c1 e1 04	 shl	 ecx, 4
  001bf	03 c1		 add	 eax, ecx

; 1157 :         }
; 1158 :         return (x);
; 1159 :     }

  001c1	5d		 pop	 ebp
  001c2	c3		 ret	 0
?Build1WordFromHexString@Internal@Core@Math@Palmtree@@YAIPA_W@Z ENDP ; Palmtree::Math::Core::Internal::Build1WordFromHexString
_TEXT	ENDS
; Function compile flags: /Ogtp
; File z:\sources\lunor\repos\rougemeilland\palmtree.math.core.uint\palmtree.math.core.uint\pmc_parse.cpp
;	COMDAT ?BuildLeading1WordFromHexString@Internal@Core@Math@Palmtree@@YAIPA_WI@Z
_TEXT	SEGMENT
_in_ptr$ = 8						; size = 4
_count$ = 12						; size = 4
?BuildLeading1WordFromHexString@Internal@Core@Math@Palmtree@@YAIPA_WI@Z PROC ; Palmtree::Math::Core::Internal::BuildLeading1WordFromHexString, COMDAT

; 1115 :     {

  00000	55		 push	 ebp
  00001	8b ec		 mov	 ebp, esp
  00003	56		 push	 esi

; 1116 :         __UNIT_TYPE x = ParseHexDigit(*in_ptr);

  00004	8b 75 08	 mov	 esi, DWORD PTR _in_ptr$[ebp]
  00007	57		 push	 edi
  00008	0f b7 0e	 movzx	 ecx, WORD PTR [esi]

; 49   :         if (c >= L'0' && c <= L'9')

  0000b	8d 41 d0	 lea	 eax, DWORD PTR [ecx-48]
  0000e	66 83 f8 09	 cmp	 ax, 9
  00012	77 05		 ja	 SHORT $LN6@BuildLeadi

; 50   :             return (c - L'0');

  00014	83 e9 30	 sub	 ecx, 48			; 00000030H
  00017	eb 1f		 jmp	 SHORT $LN5@BuildLeadi
$LN6@BuildLeadi:

; 51   : 
; 52   :         if (c >= L'a' && c <= L'f')

  00019	8d 41 9f	 lea	 eax, DWORD PTR [ecx-97]
  0001c	66 83 f8 05	 cmp	 ax, 5
  00020	77 05		 ja	 SHORT $LN7@BuildLeadi

; 53   :             return (c - L'a' + 10);

  00022	83 e9 57	 sub	 ecx, 87			; 00000057H
  00025	eb 11		 jmp	 SHORT $LN5@BuildLeadi
$LN7@BuildLeadi:

; 54   : 
; 55   :         if (c >= L'A' && c <= L'F')

  00027	8d 41 bf	 lea	 eax, DWORD PTR [ecx-65]
  0002a	66 83 f8 05	 cmp	 ax, 5
  0002e	77 05		 ja	 SHORT $LN8@BuildLeadi

; 56   :             return (c - L'A' + 10);

  00030	83 e9 37	 sub	 ecx, 55			; 00000037H
  00033	eb 03		 jmp	 SHORT $LN5@BuildLeadi
$LN8@BuildLeadi:

; 57   :         return (-1);

  00035	83 c9 ff	 or	 ecx, -1
$LN5@BuildLeadi:

; 1116 :         __UNIT_TYPE x = ParseHexDigit(*in_ptr);

  00038	8b 7d 0c	 mov	 edi, DWORD PTR _count$[ebp]

; 1117 :         ++in_ptr;

  0003b	83 c6 02	 add	 esi, 2
  0003e	83 ef 01	 sub	 edi, 1

; 1118 :         --count;
; 1119 :         while (count > 0)

  00041	74 3d		 je	 SHORT $LN19@BuildLeadi
$LL2@BuildLeadi:

; 1120 :         {
; 1121 :             x = x * 16 + ParseHexDigit(*in_ptr);

  00043	0f b7 16	 movzx	 edx, WORD PTR [esi]

; 49   :         if (c >= L'0' && c <= L'9')

  00046	8d 42 d0	 lea	 eax, DWORD PTR [edx-48]
  00049	66 83 f8 09	 cmp	 ax, 9
  0004d	77 05		 ja	 SHORT $LN11@BuildLeadi

; 50   :             return (c - L'0');

  0004f	8d 42 d0	 lea	 eax, DWORD PTR [edx-48]
  00052	eb 1f		 jmp	 SHORT $LN10@BuildLeadi
$LN11@BuildLeadi:

; 51   : 
; 52   :         if (c >= L'a' && c <= L'f')

  00054	8d 42 9f	 lea	 eax, DWORD PTR [edx-97]
  00057	66 83 f8 05	 cmp	 ax, 5
  0005b	77 05		 ja	 SHORT $LN12@BuildLeadi

; 53   :             return (c - L'a' + 10);

  0005d	8d 42 a9	 lea	 eax, DWORD PTR [edx-87]
  00060	eb 11		 jmp	 SHORT $LN10@BuildLeadi
$LN12@BuildLeadi:

; 54   : 
; 55   :         if (c >= L'A' && c <= L'F')

  00062	8d 42 bf	 lea	 eax, DWORD PTR [edx-65]
  00065	66 83 f8 05	 cmp	 ax, 5
  00069	77 05		 ja	 SHORT $LN13@BuildLeadi

; 56   :             return (c - L'A' + 10);

  0006b	8d 42 c9	 lea	 eax, DWORD PTR [edx-55]
  0006e	eb 03		 jmp	 SHORT $LN10@BuildLeadi
$LN13@BuildLeadi:

; 57   :         return (-1);

  00070	83 c8 ff	 or	 eax, -1
$LN10@BuildLeadi:

; 1120 :         {
; 1121 :             x = x * 16 + ParseHexDigit(*in_ptr);

  00073	c1 e1 04	 shl	 ecx, 4

; 1122 :             ++in_ptr;

  00076	83 c6 02	 add	 esi, 2
  00079	03 c8		 add	 ecx, eax

; 1123 :             --count;

  0007b	83 ef 01	 sub	 edi, 1
  0007e	75 c3		 jne	 SHORT $LL2@BuildLeadi
$LN19@BuildLeadi:
  00080	5f		 pop	 edi

; 1124 :         }
; 1125 :         return (x);
; 1126 :     }

  00081	8b c1		 mov	 eax, ecx
  00083	5e		 pop	 esi
  00084	5d		 pop	 ebp
  00085	c3		 ret	 0
?BuildLeading1WordFromHexString@Internal@Core@Math@Palmtree@@YAIPA_WI@Z ENDP ; Palmtree::Math::Core::Internal::BuildLeading1WordFromHexString
_TEXT	ENDS
; Function compile flags: /Ogtp
; File z:\sources\lunor\repos\rougemeilland\palmtree.math.core.uint\palmtree.math.core.uint\pmc_parse.cpp
; File z:\sources\lunor\repos\rougemeilland\palmtree.math.core.uint\palmtree.math.core.uint\pmc_inline_func.h
; File z:\sources\lunor\repos\rougemeilland\palmtree.math.core.uint\palmtree.math.core.uint\pmc_parse.cpp
; File z:\sources\lunor\repos\rougemeilland\palmtree.math.core.uint\palmtree.math.core.uint\pmc_inline_func.h
; File z:\sources\lunor\repos\rougemeilland\palmtree.math.core.uint\palmtree.math.core.uint\pmc_parse.cpp
; File z:\sources\lunor\repos\rougemeilland\palmtree.math.core.uint\palmtree.math.core.uint\pmc_inline_func.h
; File z:\sources\lunor\repos\rougemeilland\palmtree.math.core.uint\palmtree.math.core.uint\pmc_parse.cpp
;	COMDAT ?TryParseDN@Internal@Core@Math@Palmtree@@YAHPB_WIPBU__tag_PMC_NUMBER_FORMAT_INFO@1234@PADPAPAU__tag_NUMBER_HEADER@1234@PAI@Z
_TEXT	SEGMENT
_root$2 = -332						; size = 16
_o_abs$GSCopy$1$ = -316					; size = 4
_root$ = -312						; size = 16
_source_count$1$ = -296					; size = 4
_out_buf$1$ = -296					; size = 4
_r$1$ = -292						; size = 4
_frac_part_buf$1$ = -292				; size = 4
tv664 = -292						; size = 4
_result$GSCopy$1$ = -288				; size = 4
_work_buf$1$ = -284					; size = 4
_int_part_buf$1$ = -284					; size = 4
_o_sign$GSCopy$1$ = -280				; size = 4
_bin_buf$1$ = -280					; size = 4
_state$3 = -276						; size = 260
__$ArrayPad$ = -16					; size = 4
__$EHRec$ = -12						; size = 12
_source$ = 8						; size = 4
_number_styles$ = 12					; size = 4
_format_option$ = 16					; size = 4
_o_sign$ = 20						; size = 4
_o_abs$ = 24						; size = 4
_result$ = 28						; size = 4
?TryParseDN@Internal@Core@Math@Palmtree@@YAHPB_WIPBU__tag_PMC_NUMBER_FORMAT_INFO@1234@PADPAPAU__tag_NUMBER_HEADER@1234@PAI@Z PROC ; Palmtree::Math::Core::Internal::TryParseDN, COMDAT

; 967  :     {

  00000	55		 push	 ebp
  00001	8b ec		 mov	 ebp, esp
  00003	6a ff		 push	 -1
  00005	68 00 00 00 00	 push	 __ehhandler$?TryParseDN@Internal@Core@Math@Palmtree@@YAHPB_WIPBU__tag_PMC_NUMBER_FORMAT_INFO@1234@PADPAPAU__tag_NUMBER_HEADER@1234@PAI@Z
  0000a	64 a1 00 00 00
	00		 mov	 eax, DWORD PTR fs:0
  00010	50		 push	 eax
  00011	81 ec 40 01 00
	00		 sub	 esp, 320		; 00000140H
  00017	a1 00 00 00 00	 mov	 eax, DWORD PTR ___security_cookie
  0001c	33 c5		 xor	 eax, ebp
  0001e	89 45 f0	 mov	 DWORD PTR __$ArrayPad$[ebp], eax
  00021	53		 push	 ebx
  00022	56		 push	 esi
  00023	57		 push	 edi
  00024	50		 push	 eax
  00025	8d 45 f4	 lea	 eax, DWORD PTR __$EHRec$[ebp]
  00028	64 a3 00 00 00
	00		 mov	 DWORD PTR fs:0, eax
  0002e	8b 45 14	 mov	 eax, DWORD PTR _o_sign$[ebp]

; 968  : #ifdef _M_IX86
; 969  :         int word_digit_count = 9;
; 970  : #elif defined(_M_X64)
; 971  :         int word_digit_count = 19;
; 972  : #else
; 973  : #error unknown platform
; 974  : #endif
; 975  : 
; 976  :         ResourceHolderUINT root;

  00031	8d 8d c8 fe ff
	ff		 lea	 ecx, DWORD PTR _root$[ebp]
  00037	8b 5d 08	 mov	 ebx, DWORD PTR _source$[ebp]
  0003a	8b 7d 10	 mov	 edi, DWORD PTR _format_option$[ebp]
  0003d	89 85 e8 fe ff
	ff		 mov	 DWORD PTR _o_sign$GSCopy$1$[ebp], eax
  00043	8b 45 18	 mov	 eax, DWORD PTR _o_abs$[ebp]
  00046	89 85 c4 fe ff
	ff		 mov	 DWORD PTR _o_abs$GSCopy$1$[ebp], eax
  0004c	8b 45 1c	 mov	 eax, DWORD PTR _result$[ebp]
  0004f	89 85 e0 fe ff
	ff		 mov	 DWORD PTR _result$GSCopy$1$[ebp], eax
  00055	e8 00 00 00 00	 call	 ??0ResourceHolderUINT@Internal@Core@Math@Palmtree@@QAE@XZ ; Palmtree::Math::Core::Internal::ResourceHolderUINT::ResourceHolderUINT
  0005a	c7 45 fc 00 00
	00 00		 mov	 DWORD PTR __$EHRec$[ebp+8], 0

; 977  : 
; 978  :         __UNIT_TYPE source_len = lstrlenW(source);

  00061	53		 push	 ebx
  00062	ff 15 00 00 00
	00		 call	 DWORD PTR __imp__lstrlenW@4

; 979  : 
; 980  :         size_t int_part_buf_count = source_len + 1;
; 981  :         wchar_t* int_part_buf = root.AllocateString(int_part_buf_count);

  00068	8d 8d c8 fe ff
	ff		 lea	 ecx, DWORD PTR _root$[ebp]
  0006e	8d 70 01	 lea	 esi, DWORD PTR [eax+1]
  00071	56		 push	 esi
  00072	e8 00 00 00 00	 call	 ?AllocateString@ResourceHolderUINT@Internal@Core@Math@Palmtree@@QAEPA_WI@Z ; Palmtree::Math::Core::Internal::ResourceHolderUINT::AllocateString

; 982  :         size_t frac_part_buf_count = source_len + 1;
; 983  :         wchar_t* frac_part_buf = root.AllocateString(frac_part_buf_count);

  00077	56		 push	 esi
  00078	8d 8d c8 fe ff
	ff		 lea	 ecx, DWORD PTR _root$[ebp]
  0007e	89 85 e4 fe ff
	ff		 mov	 DWORD PTR _int_part_buf$1$[ebp], eax
  00084	e8 00 00 00 00	 call	 ?AllocateString@ResourceHolderUINT@Internal@Core@Math@Palmtree@@QAEPA_WI@Z ; Palmtree::Math::Core::Internal::ResourceHolderUINT::AllocateString

; 550  :         ParserState state(in_ptr, number_styles, format_option, sign, int_part_buf, int_part_buf_size, frac_part_buf, frac_part_buf_size);

  00089	56		 push	 esi
  0008a	50		 push	 eax
  0008b	56		 push	 esi
  0008c	ff b5 e4 fe ff
	ff		 push	 DWORD PTR _int_part_buf$1$[ebp]
  00092	8d 8d ec fe ff
	ff		 lea	 ecx, DWORD PTR _state$3[ebp]

; 982  :         size_t frac_part_buf_count = source_len + 1;
; 983  :         wchar_t* frac_part_buf = root.AllocateString(frac_part_buf_count);

  00098	89 85 dc fe ff
	ff		 mov	 DWORD PTR _frac_part_buf$1$[ebp], eax

; 550  :         ParserState state(in_ptr, number_styles, format_option, sign, int_part_buf, int_part_buf_size, frac_part_buf, frac_part_buf_size);

  0009e	ff b5 e8 fe ff
	ff		 push	 DWORD PTR _o_sign$GSCopy$1$[ebp]
  000a4	57		 push	 edi
  000a5	8b 7d 0c	 mov	 edi, DWORD PTR _number_styles$[ebp]
  000a8	57		 push	 edi
  000a9	53		 push	 ebx
  000aa	e8 00 00 00 00	 call	 ??0ParserState@Internal@Core@Math@Palmtree@@QAE@PB_WIPBU__tag_PMC_NUMBER_FORMAT_INFO@1234@PADPA_WI3I@Z ; Palmtree::Math::Core::Internal::ParserState::ParserState

; 551  :         return (state.ParseAsDecimalNumberString());

  000af	8d 8d ec fe ff
	ff		 lea	 ecx, DWORD PTR _state$3[ebp]
  000b5	e8 00 00 00 00	 call	 ?ParseAsDecimalNumberString@ParserState@Internal@Core@Math@Palmtree@@QAEHXZ ; Palmtree::Math::Core::Internal::ParserState::ParseAsDecimalNumberString

; 984  :         bool result_parsing = ParseAsDecimalNumberString(source, number_styles, format_option, o_sign, int_part_buf, int_part_buf_count, frac_part_buf, frac_part_buf_count);
; 985  :         root.CheckString(int_part_buf);

  000ba	ff b5 e4 fe ff
	ff		 push	 DWORD PTR _int_part_buf$1$[ebp]
  000c0	8d 8d c8 fe ff
	ff		 lea	 ecx, DWORD PTR _root$[ebp]

; 551  :         return (state.ParseAsDecimalNumberString());

  000c6	8b f0		 mov	 esi, eax

; 984  :         bool result_parsing = ParseAsDecimalNumberString(source, number_styles, format_option, o_sign, int_part_buf, int_part_buf_count, frac_part_buf, frac_part_buf_count);
; 985  :         root.CheckString(int_part_buf);

  000c8	e8 00 00 00 00	 call	 ?CheckString@ResourceHolderUINT@Internal@Core@Math@Palmtree@@QAEXPA_W@Z ; Palmtree::Math::Core::Internal::ResourceHolderUINT::CheckString

; 986  :         root.CheckString(frac_part_buf);

  000cd	8b 9d dc fe ff
	ff		 mov	 ebx, DWORD PTR _frac_part_buf$1$[ebp]
  000d3	8d 8d c8 fe ff
	ff		 lea	 ecx, DWORD PTR _root$[ebp]
  000d9	53		 push	 ebx
  000da	e8 00 00 00 00	 call	 ?CheckString@ResourceHolderUINT@Internal@Core@Math@Palmtree@@QAEXPA_W@Z ; Palmtree::Math::Core::Internal::ResourceHolderUINT::CheckString

; 987  :         if (!result_parsing)

  000df	85 f6		 test	 esi, esi
  000e1	75 1a		 jne	 SHORT $LN9@TryParseDN

; 988  :         {
; 989  :             *result = 0;

  000e3	8b 85 e0 fe ff
	ff		 mov	 eax, DWORD PTR _result$GSCopy$1$[ebp]

; 990  :             if (number_styles & PMC_NUMBER_STYLE_ALLOW_EXCEPTION_THROWING)

  000e9	81 e7 00 00 00
	02		 and	 edi, 33554432		; 02000000H

; 620  :             source_count -= r;

  000ef	f7 df		 neg	 edi
  000f1	1b ff		 sbb	 edi, edi

; 988  :         {
; 989  :             *result = 0;

  000f3	89 30		 mov	 DWORD PTR [eax], esi

; 620  :             source_count -= r;

  000f5	83 e7 f9	 and	 edi, -7			; fffffff9H
  000f8	e9 1e 03 00 00	 jmp	 $LN39@TryParseDN
$LN9@TryParseDN:

; 991  :                 return (PMC_STATUS_FORMAT_ERROR);
; 992  :             return (PMC_STATUS_OK);
; 993  :         }
; 994  :         if (int_part_buf[0] == L'\0' && (frac_part_buf[0] == L'\0' || frac_part_buf[0] == L'.' && frac_part_buf[1] == L'\0'))

  000fd	8b b5 e4 fe ff
	ff		 mov	 esi, DWORD PTR _int_part_buf$1$[ebp]
  00103	0f b7 0e	 movzx	 ecx, WORD PTR [esi]
  00106	66 85 c9	 test	 cx, cx
  00109	75 35		 jne	 SHORT $LN11@TryParseDN
  0010b	0f b7 03	 movzx	 eax, WORD PTR [ebx]
  0010e	66 85 c0	 test	 ax, ax
  00111	74 0b		 je	 SHORT $LN12@TryParseDN
  00113	83 f8 2e	 cmp	 eax, 46			; 0000002eH
  00116	75 28		 jne	 SHORT $LN11@TryParseDN
  00118	66 39 4b 02	 cmp	 WORD PTR [ebx+2], cx
  0011c	75 22		 jne	 SHORT $LN11@TryParseDN
$LN12@TryParseDN:

; 995  :         {
; 996  :             // 
; 997  :             *result = 0;

  0011e	8b 85 e0 fe ff
	ff		 mov	 eax, DWORD PTR _result$GSCopy$1$[ebp]
  00124	c7 00 00 00 00
	00		 mov	 DWORD PTR [eax], 0

; 998  :             if (number_styles & PMC_NUMBER_STYLE_ALLOW_EXCEPTION_THROWING)

  0012a	f7 c7 00 00 00
	02		 test	 edi, 33554432		; 02000000H
  00130	0f 84 e3 02 00
	00		 je	 $LN13@TryParseDN

; 999  :                 return (PMC_STATUS_FORMAT_ERROR);

  00136	bf f9 ff ff ff	 mov	 edi, -7			; fffffff9H
  0013b	e9 db 02 00 00	 jmp	 $LN39@TryParseDN
$LN11@TryParseDN:

; 1000 :             return (PMC_STATUS_OK);
; 1001 :         }
; 1002 : 
; 1003 :         if (*o_sign < 0 && frac_part_buf[0] != L'\0')

  00140	8b 85 e8 fe ff
	ff		 mov	 eax, DWORD PTR _o_sign$GSCopy$1$[ebp]
  00146	80 38 00	 cmp	 BYTE PTR [eax], 0
  00149	7d 1f		 jge	 SHORT $LN15@TryParseDN
  0014b	66 83 3b 00	 cmp	 WORD PTR [ebx], 0
  0014f	74 19		 je	 SHORT $LN15@TryParseDN

; 1004 :         {
; 1005 :             //  (OverflowException) ( '0' )
; 1006 :             //  uint.Parse 
; 1007 : 
; 1008 :             if ((number_styles & PMC_NUMBER_STYLE_ALLOW_SIGNED_INTEGER) == 0)

  00151	f7 c7 00 00 00
	01		 test	 edi, 16777216		; 01000000H
  00157	75 11		 jne	 SHORT $LN15@TryParseDN

; 1009 :             {
; 1010 :                 // 
; 1011 : 
; 1012 :                 *result = 0;

  00159	8b 85 e0 fe ff
	ff		 mov	 eax, DWORD PTR _result$GSCopy$1$[ebp]
  0015f	c7 00 00 00 00
	00		 mov	 DWORD PTR [eax], 0
  00165	e9 94 00 00 00	 jmp	 $LN95@TryParseDN
$LN15@TryParseDN:

; 1013 :                 if (number_styles & PMC_NUMBER_STYLE_ALLOW_EXCEPTION_THROWING)
; 1014 :                     return (PMC_STATUS_OVERFLOW);
; 1015 :                 return (PMC_STATUS_OK);
; 1016 :             }
; 1017 :         }
; 1018 : 
; 1019 :         if (int_part_buf[0] == L'0')

  0016a	83 f9 30	 cmp	 ecx, 48			; 00000030H
  0016d	75 34		 jne	 SHORT $LN71@TryParseDN

; 1020 :         {
; 1021 :             //  0 
; 1022 :             wchar_t* s_ptr = int_part_buf;

  0016f	8b ce		 mov	 ecx, esi

; 1023 :             wchar_t* d_ptr = int_part_buf;

  00171	8b d6		 mov	 edx, esi
$LL2@TryParseDN:

; 1024 :             while (*s_ptr == L'0')

  00173	0f b7 41 02	 movzx	 eax, WORD PTR [ecx+2]

; 1025 :                 ++s_ptr;

  00177	83 c1 02	 add	 ecx, 2
  0017a	83 f8 30	 cmp	 eax, 48			; 00000030H
  0017d	74 f4		 je	 SHORT $LL2@TryParseDN

; 1026 :             for (;;)
; 1027 :             {
; 1028 :                 *d_ptr = *s_ptr;

  0017f	66 89 06	 mov	 WORD PTR [esi], ax

; 1029 :                 if (*s_ptr == L'\0')

  00182	66 83 39 00	 cmp	 WORD PTR [ecx], 0
  00186	74 1b		 je	 SHORT $LN71@TryParseDN
  00188	0f 1f 84 00 00
	00 00 00	 npad	 8
$LL4@TryParseDN:

; 1026 :             for (;;)
; 1027 :             {
; 1028 :                 *d_ptr = *s_ptr;

  00190	66 8b 41 02	 mov	 ax, WORD PTR [ecx+2]

; 1030 :                     break;
; 1031 :                 ++s_ptr;

  00194	8d 49 02	 lea	 ecx, DWORD PTR [ecx+2]

; 1032 :                 ++d_ptr;

  00197	8d 52 02	 lea	 edx, DWORD PTR [edx+2]
  0019a	66 89 02	 mov	 WORD PTR [edx], ax
  0019d	66 83 39 00	 cmp	 WORD PTR [ecx], 0
  001a1	75 ed		 jne	 SHORT $LL4@TryParseDN
$LN71@TryParseDN:

; 1033 :             }
; 1034 :         }
; 1035 : 
; 1036 :         //  0 
; 1037 :         wchar_t* frac_ptr = frac_part_buf + lstrlenW(frac_part_buf);

  001a3	53		 push	 ebx
  001a4	ff 15 00 00 00
	00		 call	 DWORD PTR __imp__lstrlenW@4
  001aa	8d 04 43	 lea	 eax, DWORD PTR [ebx+eax*2]

; 1038 :         while (frac_ptr > frac_part_buf && frac_ptr[-1] == L'0')

  001ad	3b c3		 cmp	 eax, ebx
  001af	76 0e		 jbe	 SHORT $LN8@TryParseDN
$LL7@TryParseDN:
  001b1	66 83 78 fe 30	 cmp	 WORD PTR [eax-2], 48	; 00000030H
  001b6	75 07		 jne	 SHORT $LN8@TryParseDN

; 1039 :             --frac_ptr;

  001b8	83 c0 fe	 add	 eax, -2			; fffffffeH
  001bb	3b c3		 cmp	 eax, ebx
  001bd	77 f2		 ja	 SHORT $LL7@TryParseDN
$LN8@TryParseDN:

; 1040 :         *frac_ptr = L'\0';

  001bf	33 c9		 xor	 ecx, ecx
  001c1	66 89 08	 mov	 WORD PTR [eax], cx

; 1041 : 
; 1042 :         //  0 
; 1043 :         if (!(frac_part_buf[0] == L'\0' || frac_part_buf[0] == L'.' && frac_part_buf[1] == L'\0'))

  001c4	0f b7 03	 movzx	 eax, WORD PTR [ebx]
  001c7	66 85 c0	 test	 ax, ax
  001ca	74 0b		 je	 SHORT $LN19@TryParseDN
  001cc	83 f8 2e	 cmp	 eax, 46			; 0000002eH
  001cf	75 25		 jne	 SHORT $LN20@TryParseDN
  001d1	66 39 4b 02	 cmp	 WORD PTR [ebx+2], cx
  001d5	75 1f		 jne	 SHORT $LN20@TryParseDN
$LN19@TryParseDN:

; 1044 :         {
; 1045 :             *result = 0;
; 1046 :             if (number_styles & PMC_NUMBER_STYLE_ALLOW_EXCEPTION_THROWING)
; 1047 :                 return (PMC_STATUS_OVERFLOW);
; 1048 :             return (PMC_STATUS_OK);
; 1049 :         }
; 1050 : 
; 1051 :         if (int_part_buf[0] == L'\0')

  001d7	8b 85 e8 fe ff
	ff		 mov	 eax, DWORD PTR _o_sign$GSCopy$1$[ebp]
  001dd	66 39 0e	 cmp	 WORD PTR [esi], cx
  001e0	75 08		 jne	 SHORT $LN22@TryParseDN

; 1052 :         {
; 1053 :             // 
; 1054 : 
; 1055 :             //  0  
; 1056 :             *o_sign = 0;

  001e2	88 08		 mov	 BYTE PTR [eax], cl

; 1057 : 
; 1058 :             //  0 
; 1059 :             int_part_buf[0] = L'0';

  001e4	c7 06 30 00 00
	00		 mov	 DWORD PTR [esi], 48	; 00000030H
$LN22@TryParseDN:

; 1060 :             int_part_buf[1] = L'\0';
; 1061 :         }
; 1062 : 
; 1063 :         if (*o_sign < 0)

  001ea	38 08		 cmp	 BYTE PTR [eax], cl
  001ec	7d 26		 jge	 SHORT $LN24@TryParseDN

; 1064 :         {
; 1065 :             // 
; 1066 : 
; 1067 :             if ((number_styles & PMC_NUMBER_STYLE_ALLOW_SIGNED_INTEGER) == 0)

  001ee	f7 c7 00 00 00
	01		 test	 edi, 16777216		; 01000000H
  001f4	75 1e		 jne	 SHORT $LN24@TryParseDN
$LN20@TryParseDN:

; 1111 :         return (PMC_STATUS_OK);

  001f6	8b 85 e0 fe ff
	ff		 mov	 eax, DWORD PTR _result$GSCopy$1$[ebp]
  001fc	89 08		 mov	 DWORD PTR [eax], ecx
$LN95@TryParseDN:
  001fe	f7 c7 00 00 00
	02		 test	 edi, 33554432		; 02000000H
  00204	0f 84 0f 02 00
	00		 je	 $LN13@TryParseDN
  0020a	bf fc ff ff ff	 mov	 edi, -4			; fffffffcH
  0020f	e9 07 02 00 00	 jmp	 $LN39@TryParseDN
$LN24@TryParseDN:

; 1068 :             {
; 1069 :                 // 
; 1070 : 
; 1071 :                 *result = 0;
; 1072 :                 if (number_styles & PMC_NUMBER_STYLE_ALLOW_EXCEPTION_THROWING)
; 1073 :                     return (PMC_STATUS_OVERFLOW);
; 1074 :                 return (PMC_STATUS_OK);
; 1075 :             }
; 1076 :         }
; 1077 : 
; 1078 :         // 
; 1079 :         root.DeallocateString(frac_part_buf);

  00214	53		 push	 ebx
  00215	8d 8d c8 fe ff
	ff		 lea	 ecx, DWORD PTR _root$[ebp]
  0021b	e8 00 00 00 00	 call	 ?DeallocateString@ResourceHolderUINT@Internal@Core@Math@Palmtree@@QAEXPA_W@Z ; Palmtree::Math::Core::Internal::ResourceHolderUINT::DeallocateString

; 1082 :         __UNIT_TYPE* bin_buf = root.AllocateBlock(_DIVIDE_CEILING_SIZE(lstrlenW(int_part_buf), word_digit_count) * __UNIT_TYPE_BIT_COUNT);

  00220	56		 push	 esi
  00221	ff 15 00 00 00
	00		 call	 DWORD PTR __imp__lstrlenW@4
; File z:\sources\lunor\repos\rougemeilland\palmtree.math.core.uint\palmtree.math.core.uint\pmc_inline_func.h

; 162  :             return ((u + v - 1) / v);

  00227	8d 48 08	 lea	 ecx, DWORD PTR [eax+8]
  0022a	b8 39 8e e3 38	 mov	 eax, 954437177		; 38e38e39H
  0022f	f7 e1		 mul	 ecx
; File z:\sources\lunor\repos\rougemeilland\palmtree.math.core.uint\palmtree.math.core.uint\pmc_parse.cpp

; 1082 :         __UNIT_TYPE* bin_buf = root.AllocateBlock(_DIVIDE_CEILING_SIZE(lstrlenW(int_part_buf), word_digit_count) * __UNIT_TYPE_BIT_COUNT);

  00231	8d 8d c8 fe ff
	ff		 lea	 ecx, DWORD PTR _root$[ebp]
; File z:\sources\lunor\repos\rougemeilland\palmtree.math.core.uint\palmtree.math.core.uint\pmc_inline_func.h

; 162  :             return ((u + v - 1) / v);

  00237	d1 ea		 shr	 edx, 1
; File z:\sources\lunor\repos\rougemeilland\palmtree.math.core.uint\palmtree.math.core.uint\pmc_parse.cpp

; 1082 :         __UNIT_TYPE* bin_buf = root.AllocateBlock(_DIVIDE_CEILING_SIZE(lstrlenW(int_part_buf), word_digit_count) * __UNIT_TYPE_BIT_COUNT);

  00239	c1 e2 05	 shl	 edx, 5
  0023c	52		 push	 edx
  0023d	e8 00 00 00 00	 call	 ?AllocateBlock@ResourceHolderUINT@Internal@Core@Math@Palmtree@@QAEPAII@Z ; Palmtree::Math::Core::Internal::ResourceHolderUINT::AllocateBlock

; 614  :         __UNIT_TYPE source_count = lstrlenW(source);

  00242	8b de		 mov	 ebx, esi

; 1082 :         __UNIT_TYPE* bin_buf = root.AllocateBlock(_DIVIDE_CEILING_SIZE(lstrlenW(int_part_buf), word_digit_count) * __UNIT_TYPE_BIT_COUNT);

  00244	89 85 e8 fe ff
	ff		 mov	 DWORD PTR _bin_buf$1$[ebp], eax

; 614  :         __UNIT_TYPE source_count = lstrlenW(source);

  0024a	53		 push	 ebx
  0024b	8b f8		 mov	 edi, eax
  0024d	ff 15 00 00 00
	00		 call	 DWORD PTR __imp__lstrlenW@4
  00253	8b c8		 mov	 ecx, eax

; 615  :         int r = source_count % word_digit_count;

  00255	c7 85 dc fe ff
	ff 09 00 00 00	 mov	 DWORD PTR tv664[ebp], 9
  0025f	33 d2		 xor	 edx, edx
  00261	89 8d d8 fe ff
	ff		 mov	 DWORD PTR _source_count$1$[ebp], ecx
  00267	f7 b5 dc fe ff
	ff		 div	 DWORD PTR tv664[ebp]
  0026d	8b c2		 mov	 eax, edx
  0026f	89 85 dc fe ff
	ff		 mov	 DWORD PTR _r$1$[ebp], eax

; 616  :         if (r > 0)

  00275	85 c0		 test	 eax, eax
  00277	7e 45		 jle	 SHORT $LN91@TryParseDN

; 556  :         __UNIT_TYPE x = 0;

  00279	33 ff		 xor	 edi, edi

; 557  :         while (count > 0)

  0027b	85 c0		 test	 eax, eax
  0027d	74 2f		 je	 SHORT $LN53@TryParseDN
  0027f	90		 npad	 1
$LL52@TryParseDN:

; 558  :         {
; 559  :             x = x * 10 + ParseDecimalDigit(*in_ptr++);

  00280	0f b7 0e	 movzx	 ecx, WORD PTR [esi]
  00283	8d 76 02	 lea	 esi, DWORD PTR [esi+2]

; 42   :         if (c >= L'0' && c <= L'9')

  00286	8d 41 d0	 lea	 eax, DWORD PTR [ecx-48]
  00289	66 83 f8 09	 cmp	 ax, 9
  0028d	77 05		 ja	 SHORT $LN56@TryParseDN

; 43   :             return (c - L'0');

  0028f	83 e9 30	 sub	 ecx, 48			; 00000030H
  00292	eb 03		 jmp	 SHORT $LN55@TryParseDN
$LN56@TryParseDN:

; 44   :         return (-1);

  00294	83 c9 ff	 or	 ecx, -1
$LN55@TryParseDN:

; 559  :             x = x * 10 + ParseDecimalDigit(*in_ptr++);

  00297	8d 04 bf	 lea	 eax, DWORD PTR [edi+edi*4]
  0029a	8d 3c 41	 lea	 edi, DWORD PTR [ecx+eax*2]

; 560  :             --count;

  0029d	83 ea 01	 sub	 edx, 1
  002a0	75 de		 jne	 SHORT $LL52@TryParseDN
  002a2	8b 85 dc fe ff
	ff		 mov	 eax, DWORD PTR _r$1$[ebp]
  002a8	8b 8d d8 fe ff
	ff		 mov	 ecx, DWORD PTR _source_count$1$[ebp]
$LN53@TryParseDN:

; 618  :             *out_ptr++ = BuildLeading1WordFromDecimalString(in_ptr, r);

  002ae	8b 95 e8 fe ff
	ff		 mov	 edx, DWORD PTR _bin_buf$1$[ebp]

; 619  :             in_ptr += r;

  002b4	8d 34 43	 lea	 esi, DWORD PTR [ebx+eax*2]

; 620  :             source_count -= r;

  002b7	2b c8		 sub	 ecx, eax
  002b9	89 3a		 mov	 DWORD PTR [edx], edi
  002bb	8d 7a 04	 lea	 edi, DWORD PTR [edx+4]
$LN91@TryParseDN:

; 621  :         }
; 622  :         while (source_count > 0)

  002be	85 c9		 test	 ecx, ecx
  002c0	74 2a		 je	 SHORT $LN48@TryParseDN
  002c2	49		 dec	 ecx
  002c3	b8 39 8e e3 38	 mov	 eax, 954437177		; 38e38e39H
  002c8	f7 e1		 mul	 ecx
  002ca	8b da		 mov	 ebx, edx
  002cc	d1 eb		 shr	 ebx, 1
  002ce	43		 inc	 ebx
  002cf	90		 npad	 1
$LL47@TryParseDN:

; 623  :         {
; 624  :             *out_ptr++ = Build1WordFromDecimalString(in_ptr);

  002d0	56		 push	 esi
  002d1	e8 00 00 00 00	 call	 ?Build1WordFromDecimalString@Internal@Core@Math@Palmtree@@YAIPA_W@Z ; Palmtree::Math::Core::Internal::Build1WordFromDecimalString
  002d6	89 07		 mov	 DWORD PTR [edi], eax
  002d8	83 c4 04	 add	 esp, 4
  002db	83 c7 04	 add	 edi, 4

; 625  :             in_ptr += word_digit_count;

  002de	83 c6 12	 add	 esi, 18			; 00000012H
  002e1	83 eb 01	 sub	 ebx, 1
  002e4	75 ea		 jne	 SHORT $LL47@TryParseDN
  002e6	8b 9d e4 fe ff
	ff		 mov	 ebx, DWORD PTR _int_part_buf$1$[ebp]
$LN48@TryParseDN:

; 626  :             source_count -= word_digit_count;
; 627  :         }
; 628  :         *out_buf_count = out_ptr - out_buf;

  002ec	8b 85 e8 fe ff
	ff		 mov	 eax, DWORD PTR _bin_buf$1$[ebp]

; 1083 :         __UNIT_TYPE bin_buf_count;
; 1084 :         BuildBinaryFromDecimalString(int_part_buf, bin_buf, &bin_buf_count);
; 1085 :         root.CheckBlock(bin_buf);

  002f2	8d 8d c8 fe ff
	ff		 lea	 ecx, DWORD PTR _root$[ebp]

; 628  :         *out_buf_count = out_ptr - out_buf;

  002f8	2b f8		 sub	 edi, eax

; 1083 :         __UNIT_TYPE bin_buf_count;
; 1084 :         BuildBinaryFromDecimalString(int_part_buf, bin_buf, &bin_buf_count);
; 1085 :         root.CheckBlock(bin_buf);

  002fa	50		 push	 eax

; 628  :         *out_buf_count = out_ptr - out_buf;

  002fb	c1 ff 02	 sar	 edi, 2

; 1083 :         __UNIT_TYPE bin_buf_count;
; 1084 :         BuildBinaryFromDecimalString(int_part_buf, bin_buf, &bin_buf_count);
; 1085 :         root.CheckBlock(bin_buf);

  002fe	e8 00 00 00 00	 call	 ?CheckBlock@ResourceHolderUINT@Internal@Core@Math@Palmtree@@QAEXPAI@Z ; Palmtree::Math::Core::Internal::ResourceHolderUINT::CheckBlock

; 1086 :         root.DeallocateString(int_part_buf);

  00303	53		 push	 ebx
  00304	8d 8d c8 fe ff
	ff		 lea	 ecx, DWORD PTR _root$[ebp]
  0030a	e8 00 00 00 00	 call	 ?DeallocateString@ResourceHolderUINT@Internal@Core@Math@Palmtree@@QAEXPA_W@Z ; Palmtree::Math::Core::Internal::ResourceHolderUINT::DeallocateString

; 1087 : 
; 1088 :         // 10^word_digit_count  10 
; 1089 :         __UNIT_TYPE o_bit_count = bin_buf_count * __UNIT_TYPE_BIT_COUNT;

  0030f	8b f7		 mov	 esi, edi

; 1090 :         *o_abs = root.AllocateNumber(o_bit_count);

  00311	8d 8d c8 fe ff
	ff		 lea	 ecx, DWORD PTR _root$[ebp]
  00317	c1 e6 05	 shl	 esi, 5
  0031a	56		 push	 esi
  0031b	e8 00 00 00 00	 call	 ?AllocateNumber@ResourceHolderUINT@Internal@Core@Math@Palmtree@@QAEPAU__tag_NUMBER_HEADER@2345@I@Z ; Palmtree::Math::Core::Internal::ResourceHolderUINT::AllocateNumber
  00320	8b 8d c4 fe ff
	ff		 mov	 ecx, DWORD PTR _o_abs$GSCopy$1$[ebp]
  00326	89 01		 mov	 DWORD PTR [ecx], eax

; 949  :         ResourceHolderUINT root;

  00328	8d 8d b4 fe ff
	ff		 lea	 ecx, DWORD PTR _root$2[ebp]

; 1091 :         ConvertCardinalNumber(bin_buf, bin_buf_count, (*o_abs)->BLOCK);

  0032e	8b 40 24	 mov	 eax, DWORD PTR [eax+36]
  00331	89 85 d8 fe ff
	ff		 mov	 DWORD PTR _out_buf$1$[ebp], eax

; 949  :         ResourceHolderUINT root;

  00337	e8 00 00 00 00	 call	 ??0ResourceHolderUINT@Internal@Core@Math@Palmtree@@QAE@XZ ; Palmtree::Math::Core::Internal::ResourceHolderUINT::ResourceHolderUINT
  0033c	c6 45 fc 01	 mov	 BYTE PTR __$EHRec$[ebp+8], 1

; 950  :         __UNIT_TYPE* work_buf = root.AllocateBlock(__UNIT_TYPE_BIT_COUNT * (in_buf_count + 1));

  00340	8d 46 20	 lea	 eax, DWORD PTR [esi+32]
  00343	50		 push	 eax
  00344	8d 8d b4 fe ff
	ff		 lea	 ecx, DWORD PTR _root$2[ebp]
  0034a	e8 00 00 00 00	 call	 ?AllocateBlock@ResourceHolderUINT@Internal@Core@Math@Palmtree@@QAEPAII@Z ; Palmtree::Math::Core::Internal::ResourceHolderUINT::AllocateBlock

; 951  :         __UNIT_TYPE work_buf_count = 1;
; 952  :         work_buf[0] = in_buf[0];

  0034f	8b 95 e8 fe ff
	ff		 mov	 edx, DWORD PTR _bin_buf$1$[ebp]
  00355	bb 01 00 00 00	 mov	 ebx, 1
  0035a	89 85 e4 fe ff
	ff		 mov	 DWORD PTR _work_buf$1$[ebp], eax
  00360	8b 0a		 mov	 ecx, DWORD PTR [edx]

; 953  :         ++in_buf;

  00362	8d 72 04	 lea	 esi, DWORD PTR [edx+4]
  00365	89 08		 mov	 DWORD PTR [eax], ecx

; 954  :         --in_buf_count;

  00367	83 c7 ff	 add	 edi, -1

; 955  :         while (in_buf_count > 0)

  0036a	74 26		 je	 SHORT $LN60@TryParseDN
  0036c	0f 1f 40 00	 npad	 4
$LL59@TryParseDN:

; 956  :         {
; 957  :             __UNIT_TYPE* w_tail = (*fp_MultiplyAndAdd)(work_buf, work_buf_count, *in_buf);

  00370	ff 36		 push	 DWORD PTR [esi]
  00372	53		 push	 ebx
  00373	50		 push	 eax
  00374	ff 15 00 00 00
	00		 call	 DWORD PTR ?fp_MultiplyAndAdd@Internal@Core@Math@Palmtree@@3P6APAIPAIII@ZA
  0037a	8b d8		 mov	 ebx, eax

; 958  :             work_buf_count = w_tail - work_buf;
; 959  :             ++in_buf;

  0037c	8d 76 04	 lea	 esi, DWORD PTR [esi+4]
  0037f	8b 85 e4 fe ff
	ff		 mov	 eax, DWORD PTR _work_buf$1$[ebp]
  00385	83 c4 0c	 add	 esp, 12			; 0000000cH
  00388	2b d8		 sub	 ebx, eax
  0038a	c1 fb 02	 sar	 ebx, 2

; 960  :             --in_buf_count;

  0038d	83 ef 01	 sub	 edi, 1
  00390	75 de		 jne	 SHORT $LL59@TryParseDN
$LN60@TryParseDN:

; 961  :         }
; 962  :         root.CheckBlock(work_buf);

  00392	50		 push	 eax
  00393	8d 8d b4 fe ff
	ff		 lea	 ecx, DWORD PTR _root$2[ebp]
  00399	e8 00 00 00 00	 call	 ?CheckBlock@ResourceHolderUINT@Internal@Core@Math@Palmtree@@QAEXPAI@Z ; Palmtree::Math::Core::Internal::ResourceHolderUINT::CheckBlock
; File z:\sources\lunor\repos\rougemeilland\palmtree.math.core.uint\palmtree.math.core.uint\pmc_inline_func.h

; 65   :             __movsd((unsigned long *)d, (unsigned long *)s, (unsigned long)count);

  0039e	8b bd d8 fe ff
	ff		 mov	 edi, DWORD PTR _out_buf$1$[ebp]
  003a4	8b cb		 mov	 ecx, ebx
  003a6	8b b5 e4 fe ff
	ff		 mov	 esi, DWORD PTR _work_buf$1$[ebp]
  003ac	f3 a5		 rep movsd
; File z:\sources\lunor\repos\rougemeilland\palmtree.math.core.uint\palmtree.math.core.uint\pmc_parse.cpp

; 964  :     }

  003ae	c6 45 fc 00	 mov	 BYTE PTR __$EHRec$[ebp+8], 0
  003b2	8d 8d b4 fe ff
	ff		 lea	 ecx, DWORD PTR _root$2[ebp]
  003b8	e8 00 00 00 00	 call	 ??1ResourceHolderUINT@Internal@Core@Math@Palmtree@@UAE@XZ ; Palmtree::Math::Core::Internal::ResourceHolderUINT::~ResourceHolderUINT

; 1092 :         root.CheckNumber(*o_abs);

  003bd	8b 9d c4 fe ff
	ff		 mov	 ebx, DWORD PTR _o_abs$GSCopy$1$[ebp]
  003c3	8d 8d c8 fe ff
	ff		 lea	 ecx, DWORD PTR _root$[ebp]
  003c9	ff 33		 push	 DWORD PTR [ebx]
  003cb	e8 00 00 00 00	 call	 ?CheckNumber@ResourceHolderUINT@Internal@Core@Math@Palmtree@@QAEXPAU__tag_NUMBER_HEADER@2345@@Z ; Palmtree::Math::Core::Internal::ResourceHolderUINT::CheckNumber

; 1093 :         root.DeallocateBlock(bin_buf);

  003d0	8b 95 e8 fe ff
	ff		 mov	 edx, DWORD PTR _bin_buf$1$[ebp]
  003d6	8d 8d c8 fe ff
	ff		 lea	 ecx, DWORD PTR _root$[ebp]
  003dc	52		 push	 edx
  003dd	e8 00 00 00 00	 call	 ?DeallocateBlock@ResourceHolderUINT@Internal@Core@Math@Palmtree@@QAEXPAI@Z ; Palmtree::Math::Core::Internal::ResourceHolderUINT::DeallocateBlock

; 1094 :         CommitNumber(*o_abs);

  003e2	ff 33		 push	 DWORD PTR [ebx]
  003e4	e8 00 00 00 00	 call	 ?CommitNumber@Internal@Core@Math@Palmtree@@YAXPAU__tag_NUMBER_HEADER@1234@@Z ; Palmtree::Math::Core::Internal::CommitNumber

; 1095 :         if ((*o_abs)->IS_ZERO)

  003e9	8b 03		 mov	 eax, DWORD PTR [ebx]
  003eb	8d 8d c8 fe ff
	ff		 lea	 ecx, DWORD PTR _root$[ebp]
  003f1	83 c4 04	 add	 esp, 4
  003f4	f6 40 04 01	 test	 BYTE PTR [eax+4], 1
  003f8	50		 push	 eax
  003f9	74 0d		 je	 SHORT $LN26@TryParseDN

; 1096 :         {
; 1097 :             root.DeallocateNumber(*o_abs);

  003fb	e8 00 00 00 00	 call	 ?DeallocateNumber@ResourceHolderUINT@Internal@Core@Math@Palmtree@@QAEXPAU__tag_NUMBER_HEADER@2345@@Z ; Palmtree::Math::Core::Internal::ResourceHolderUINT::DeallocateNumber

; 1098 :             *o_abs = &number_zero;

  00400	c7 03 00 00 00
	00		 mov	 DWORD PTR [ebx], OFFSET ?number_zero@Internal@Core@Math@Palmtree@@3U__tag_NUMBER_HEADER@1234@A ; Palmtree::Math::Core::Internal::number_zero

; 1099 :         }
; 1100 :         else

  00406	eb 05		 jmp	 SHORT $LN27@TryParseDN
$LN26@TryParseDN:

; 1101 :             root.UnlinkNumber(*o_abs);

  00408	e8 00 00 00 00	 call	 ?UnlinkNumber@ResourceHolderUINT@Internal@Core@Math@Palmtree@@QAEXPAU__tag_NUMBER_HEADER@2345@@Z ; Palmtree::Math::Core::Internal::ResourceHolderUINT::UnlinkNumber
$LN27@TryParseDN:

; 1102 : #ifdef _DEBUG
; 1103 :         if (*o_sign != 0 && *o_sign != 1 && *o_sign != -1)
; 1104 :             throw InternalErrorException(L"", L"pmc_parse.cpp;TryParseDN;1");
; 1105 :         if (*o_sign == 0 && !(*o_abs)->IS_ZERO)
; 1106 :             throw InternalErrorException(L"", L"pmc_parse.cpp;TryParseDN;2");
; 1107 :         if (*o_sign != 0 && (*o_abs)->IS_ZERO)
; 1108 :             throw InternalErrorException(L"", L"pmc_parse.cpp;TryParseDN;3");
; 1109 : #endif
; 1110 :         *result = 1;

  0040d	8b 85 e0 fe ff
	ff		 mov	 eax, DWORD PTR _result$GSCopy$1$[ebp]
  00413	c7 00 01 00 00
	00		 mov	 DWORD PTR [eax], 1
$LN13@TryParseDN:

; 1111 :         return (PMC_STATUS_OK);

  00419	33 ff		 xor	 edi, edi
$LN39@TryParseDN:
  0041b	c7 45 fc ff ff
	ff ff		 mov	 DWORD PTR __$EHRec$[ebp+8], -1
  00422	8d 8d c8 fe ff
	ff		 lea	 ecx, DWORD PTR _root$[ebp]
  00428	e8 00 00 00 00	 call	 ??1ResourceHolderUINT@Internal@Core@Math@Palmtree@@UAE@XZ ; Palmtree::Math::Core::Internal::ResourceHolderUINT::~ResourceHolderUINT
  0042d	8b c7		 mov	 eax, edi

; 1112 :     }

  0042f	8b 4d f4	 mov	 ecx, DWORD PTR __$EHRec$[ebp]
  00432	64 89 0d 00 00
	00 00		 mov	 DWORD PTR fs:0, ecx
  00439	59		 pop	 ecx
  0043a	5f		 pop	 edi
  0043b	5e		 pop	 esi
  0043c	5b		 pop	 ebx
  0043d	8b 4d f0	 mov	 ecx, DWORD PTR __$ArrayPad$[ebp]
  00440	33 cd		 xor	 ecx, ebp
  00442	e8 00 00 00 00	 call	 @__security_check_cookie@4
  00447	8b e5		 mov	 esp, ebp
  00449	5d		 pop	 ebp
  0044a	c3		 ret	 0
_TEXT	ENDS
;	COMDAT text$x
text$x	SEGMENT
__unwindfunclet$?TryParseDN@Internal@Core@Math@Palmtree@@YAHPB_WIPBU__tag_PMC_NUMBER_FORMAT_INFO@1234@PADPAPAU__tag_NUMBER_HEADER@1234@PAI@Z$0:
  00000	8d 8d c8 fe ff
	ff		 lea	 ecx, DWORD PTR _root$[ebp]
  00006	e9 00 00 00 00	 jmp	 ??1ResourceHolderUINT@Internal@Core@Math@Palmtree@@UAE@XZ ; Palmtree::Math::Core::Internal::ResourceHolderUINT::~ResourceHolderUINT
__unwindfunclet$?TryParseDN@Internal@Core@Math@Palmtree@@YAHPB_WIPBU__tag_PMC_NUMBER_FORMAT_INFO@1234@PADPAPAU__tag_NUMBER_HEADER@1234@PAI@Z$1:
  0000b	8d 8d b4 fe ff
	ff		 lea	 ecx, DWORD PTR _root$2[ebp]
  00011	e9 00 00 00 00	 jmp	 ??1ResourceHolderUINT@Internal@Core@Math@Palmtree@@UAE@XZ ; Palmtree::Math::Core::Internal::ResourceHolderUINT::~ResourceHolderUINT
__ehhandler$?TryParseDN@Internal@Core@Math@Palmtree@@YAHPB_WIPBU__tag_PMC_NUMBER_FORMAT_INFO@1234@PADPAPAU__tag_NUMBER_HEADER@1234@PAI@Z:
  00016	8b 54 24 08	 mov	 edx, DWORD PTR [esp+8]
  0001a	8d 42 0c	 lea	 eax, DWORD PTR [edx+12]
  0001d	8b 8a b0 fe ff
	ff		 mov	 ecx, DWORD PTR [edx-336]
  00023	33 c8		 xor	 ecx, eax
  00025	e8 00 00 00 00	 call	 @__security_check_cookie@4
  0002a	8b 4a fc	 mov	 ecx, DWORD PTR [edx-4]
  0002d	33 c8		 xor	 ecx, eax
  0002f	e8 00 00 00 00	 call	 @__security_check_cookie@4
  00034	b8 00 00 00 00	 mov	 eax, OFFSET __ehfuncinfo$?TryParseDN@Internal@Core@Math@Palmtree@@YAHPB_WIPBU__tag_PMC_NUMBER_FORMAT_INFO@1234@PADPAPAU__tag_NUMBER_HEADER@1234@PAI@Z
  00039	e9 00 00 00 00	 jmp	 ___CxxFrameHandler3
text$x	ENDS
?TryParseDN@Internal@Core@Math@Palmtree@@YAHPB_WIPBU__tag_PMC_NUMBER_FORMAT_INFO@1234@PADPAPAU__tag_NUMBER_HEADER@1234@PAI@Z ENDP ; Palmtree::Math::Core::Internal::TryParseDN
; Function compile flags: /Ogtp
; File z:\sources\lunor\repos\rougemeilland\palmtree.math.core.uint\palmtree.math.core.uint\pmc_parse.cpp
; File z:\sources\lunor\repos\rougemeilland\palmtree.math.core.uint\palmtree.math.core.uint\pmc_inline_func.h
; File z:\sources\lunor\repos\rougemeilland\palmtree.math.core.uint\palmtree.math.core.uint\pmc_parse.cpp
;	COMDAT ?ConvertCardinalNumber@Internal@Core@Math@Palmtree@@YAXPAII0@Z
_TEXT	SEGMENT
_root$ = -32						; size = 16
_work_buf$1$ = -16					; size = 4
__$EHRec$ = -12						; size = 12
_in_buf$ = 8						; size = 4
_in_buf_count$ = 12					; size = 4
_out_buf$ = 16						; size = 4
?ConvertCardinalNumber@Internal@Core@Math@Palmtree@@YAXPAII0@Z PROC ; Palmtree::Math::Core::Internal::ConvertCardinalNumber, COMDAT

; 948  :     {

  00000	55		 push	 ebp
  00001	8b ec		 mov	 ebp, esp
  00003	6a ff		 push	 -1
  00005	68 00 00 00 00	 push	 __ehhandler$?ConvertCardinalNumber@Internal@Core@Math@Palmtree@@YAXPAII0@Z
  0000a	64 a1 00 00 00
	00		 mov	 eax, DWORD PTR fs:0
  00010	50		 push	 eax
  00011	83 ec 14	 sub	 esp, 20			; 00000014H
  00014	53		 push	 ebx
  00015	56		 push	 esi
  00016	57		 push	 edi
  00017	a1 00 00 00 00	 mov	 eax, DWORD PTR ___security_cookie
  0001c	33 c5		 xor	 eax, ebp
  0001e	50		 push	 eax
  0001f	8d 45 f4	 lea	 eax, DWORD PTR __$EHRec$[ebp]
  00022	64 a3 00 00 00
	00		 mov	 DWORD PTR fs:0, eax

; 949  :         ResourceHolderUINT root;

  00028	8d 4d e0	 lea	 ecx, DWORD PTR _root$[ebp]
  0002b	e8 00 00 00 00	 call	 ??0ResourceHolderUINT@Internal@Core@Math@Palmtree@@QAE@XZ ; Palmtree::Math::Core::Internal::ResourceHolderUINT::ResourceHolderUINT
  00030	c7 45 fc 00 00
	00 00		 mov	 DWORD PTR __$EHRec$[ebp+8], 0

; 950  :         __UNIT_TYPE* work_buf = root.AllocateBlock(__UNIT_TYPE_BIT_COUNT * (in_buf_count + 1));

  00037	8d 4d e0	 lea	 ecx, DWORD PTR _root$[ebp]
  0003a	8b 45 0c	 mov	 eax, DWORD PTR _in_buf_count$[ebp]
  0003d	40		 inc	 eax
  0003e	c1 e0 05	 shl	 eax, 5
  00041	50		 push	 eax
  00042	e8 00 00 00 00	 call	 ?AllocateBlock@ResourceHolderUINT@Internal@Core@Math@Palmtree@@QAEPAII@Z ; Palmtree::Math::Core::Internal::ResourceHolderUINT::AllocateBlock

; 951  :         __UNIT_TYPE work_buf_count = 1;
; 952  :         work_buf[0] = in_buf[0];

  00047	8b 75 08	 mov	 esi, DWORD PTR _in_buf$[ebp]
  0004a	8b f8		 mov	 edi, eax
  0004c	bb 01 00 00 00	 mov	 ebx, 1
  00051	89 7d f0	 mov	 DWORD PTR _work_buf$1$[ebp], edi
  00054	8b 0e		 mov	 ecx, DWORD PTR [esi]

; 953  :         ++in_buf;

  00056	83 c6 04	 add	 esi, 4
  00059	29 5d 0c	 sub	 DWORD PTR _in_buf_count$[ebp], ebx
  0005c	89 0f		 mov	 DWORD PTR [edi], ecx

; 954  :         --in_buf_count;
; 955  :         while (in_buf_count > 0)

  0005e	74 1d		 je	 SHORT $LN3@ConvertCar
$LL2@ConvertCar:

; 956  :         {
; 957  :             __UNIT_TYPE* w_tail = (*fp_MultiplyAndAdd)(work_buf, work_buf_count, *in_buf);

  00060	ff 36		 push	 DWORD PTR [esi]
  00062	53		 push	 ebx
  00063	57		 push	 edi
  00064	ff 15 00 00 00
	00		 call	 DWORD PTR ?fp_MultiplyAndAdd@Internal@Core@Math@Palmtree@@3P6APAIPAIII@ZA
  0006a	8b d8		 mov	 ebx, eax

; 958  :             work_buf_count = w_tail - work_buf;
; 959  :             ++in_buf;

  0006c	8d 76 04	 lea	 esi, DWORD PTR [esi+4]
  0006f	2b df		 sub	 ebx, edi
  00071	83 c4 0c	 add	 esp, 12			; 0000000cH
  00074	c1 fb 02	 sar	 ebx, 2

; 960  :             --in_buf_count;

  00077	83 6d 0c 01	 sub	 DWORD PTR _in_buf_count$[ebp], 1
  0007b	75 e3		 jne	 SHORT $LL2@ConvertCar
$LN3@ConvertCar:

; 961  :         }
; 962  :         root.CheckBlock(work_buf);

  0007d	57		 push	 edi
  0007e	8d 4d e0	 lea	 ecx, DWORD PTR _root$[ebp]
  00081	e8 00 00 00 00	 call	 ?CheckBlock@ResourceHolderUINT@Internal@Core@Math@Palmtree@@QAEXPAI@Z ; Palmtree::Math::Core::Internal::ResourceHolderUINT::CheckBlock
; File z:\sources\lunor\repos\rougemeilland\palmtree.math.core.uint\palmtree.math.core.uint\pmc_inline_func.h

; 65   :             __movsd((unsigned long *)d, (unsigned long *)s, (unsigned long)count);

  00086	8b 7d 10	 mov	 edi, DWORD PTR _out_buf$[ebp]
  00089	8b cb		 mov	 ecx, ebx
  0008b	8b 75 f0	 mov	 esi, DWORD PTR _work_buf$1$[ebp]
  0008e	f3 a5		 rep movsd
; File z:\sources\lunor\repos\rougemeilland\palmtree.math.core.uint\palmtree.math.core.uint\pmc_parse.cpp

; 964  :     }

  00090	c7 45 fc ff ff
	ff ff		 mov	 DWORD PTR __$EHRec$[ebp+8], -1
  00097	8d 4d e0	 lea	 ecx, DWORD PTR _root$[ebp]
  0009a	e8 00 00 00 00	 call	 ??1ResourceHolderUINT@Internal@Core@Math@Palmtree@@UAE@XZ ; Palmtree::Math::Core::Internal::ResourceHolderUINT::~ResourceHolderUINT
  0009f	8b 4d f4	 mov	 ecx, DWORD PTR __$EHRec$[ebp]
  000a2	64 89 0d 00 00
	00 00		 mov	 DWORD PTR fs:0, ecx
  000a9	59		 pop	 ecx
  000aa	5f		 pop	 edi
  000ab	5e		 pop	 esi
  000ac	5b		 pop	 ebx
  000ad	8b e5		 mov	 esp, ebp
  000af	5d		 pop	 ebp
  000b0	c3		 ret	 0
_TEXT	ENDS
;	COMDAT text$x
text$x	SEGMENT
__unwindfunclet$?ConvertCardinalNumber@Internal@Core@Math@Palmtree@@YAXPAII0@Z$0:
  00000	8d 4d e0	 lea	 ecx, DWORD PTR _root$[ebp]
  00003	e9 00 00 00 00	 jmp	 ??1ResourceHolderUINT@Internal@Core@Math@Palmtree@@UAE@XZ ; Palmtree::Math::Core::Internal::ResourceHolderUINT::~ResourceHolderUINT
__ehhandler$?ConvertCardinalNumber@Internal@Core@Math@Palmtree@@YAXPAII0@Z:
  00008	8b 54 24 08	 mov	 edx, DWORD PTR [esp+8]
  0000c	8d 42 0c	 lea	 eax, DWORD PTR [edx+12]
  0000f	8b 4a dc	 mov	 ecx, DWORD PTR [edx-36]
  00012	33 c8		 xor	 ecx, eax
  00014	e8 00 00 00 00	 call	 @__security_check_cookie@4
  00019	b8 00 00 00 00	 mov	 eax, OFFSET __ehfuncinfo$?ConvertCardinalNumber@Internal@Core@Math@Palmtree@@YAXPAII0@Z
  0001e	e9 00 00 00 00	 jmp	 ___CxxFrameHandler3
text$x	ENDS
?ConvertCardinalNumber@Internal@Core@Math@Palmtree@@YAXPAII0@Z ENDP ; Palmtree::Math::Core::Internal::ConvertCardinalNumber
; Function compile flags: /Ogtp
; File z:\sources\lunor\repos\rougemeilland\palmtree.math.core.uint\palmtree.math.core.uint\pmc_parse.cpp
; File z:\sources\lunor\repos\rougemeilland\palmtree.math.core.uint\palmtree.math.core.uint\pmc_inline_func.h
; File z:\sources\lunor\repos\rougemeilland\palmtree.math.core.uint\palmtree.math.core.uint\pmc_uint_internal.h
; File z:\sources\lunor\repos\rougemeilland\palmtree.math.core.uint\palmtree.math.core.uint\pmc_inline_func.h
; File z:\sources\lunor\repos\rougemeilland\palmtree.math.core.uint\palmtree.math.core.uint\pmc_parse.cpp
; File z:\sources\lunor\repos\rougemeilland\palmtree.math.core.uint\palmtree.math.core.uint\pmc_uint_internal.h
; File z:\sources\lunor\repos\rougemeilland\palmtree.math.core.uint\palmtree.math.core.uint\pmc_parse.cpp
; File z:\sources\lunor\repos\rougemeilland\palmtree.math.core.uint\palmtree.math.core.uint\pmc_inline_func.h
; File z:\sources\lunor\repos\rougemeilland\palmtree.math.core.uint\palmtree.math.core.uint\pmc_uint_internal.h
; File z:\sources\lunor\repos\rougemeilland\palmtree.math.core.uint\palmtree.math.core.uint\pmc_inline_func.h
; File z:\sources\lunor\repos\rougemeilland\palmtree.math.core.uint\palmtree.math.core.uint\pmc_parse.cpp
; File z:\sources\lunor\repos\rougemeilland\palmtree.math.core.uint\palmtree.math.core.uint\pmc_uint_internal.h
; File z:\sources\lunor\repos\rougemeilland\palmtree.math.core.uint\palmtree.math.core.uint\pmc_parse.cpp
; File z:\sources\lunor\repos\rougemeilland\palmtree.math.core.uint\palmtree.math.core.uint\pmc_inline_func.h
; File z:\sources\lunor\repos\rougemeilland\palmtree.math.core.uint\palmtree.math.core.uint\pmc_uint_internal.h
; File z:\sources\lunor\repos\rougemeilland\palmtree.math.core.uint\palmtree.math.core.uint\pmc_inline_func.h
; File z:\sources\lunor\repos\rougemeilland\palmtree.math.core.uint\palmtree.math.core.uint\pmc_parse.cpp
; File z:\sources\lunor\repos\rougemeilland\palmtree.math.core.uint\palmtree.math.core.uint\pmc_uint_internal.h
; File z:\sources\lunor\repos\rougemeilland\palmtree.math.core.uint\palmtree.math.core.uint\pmc_parse.cpp
; File z:\sources\lunor\repos\rougemeilland\palmtree.math.core.uint\palmtree.math.core.uint\pmc_inline_func.h
; File z:\sources\lunor\repos\rougemeilland\palmtree.math.core.uint\palmtree.math.core.uint\pmc_uint_internal.h
; File z:\sources\lunor\repos\rougemeilland\palmtree.math.core.uint\palmtree.math.core.uint\pmc_inline_func.h
; File z:\sources\lunor\repos\rougemeilland\palmtree.math.core.uint\palmtree.math.core.uint\pmc_parse.cpp
; File z:\sources\lunor\repos\rougemeilland\palmtree.math.core.uint\palmtree.math.core.uint\pmc_uint_internal.h
; File z:\sources\lunor\repos\rougemeilland\palmtree.math.core.uint\palmtree.math.core.uint\pmc_parse.cpp
; File z:\sources\lunor\repos\rougemeilland\palmtree.math.core.uint\palmtree.math.core.uint\pmc_inline_func.h
; File z:\sources\lunor\repos\rougemeilland\palmtree.math.core.uint\palmtree.math.core.uint\pmc_uint_internal.h
; File z:\sources\lunor\repos\rougemeilland\palmtree.math.core.uint\palmtree.math.core.uint\pmc_inline_func.h
; File z:\sources\lunor\repos\rougemeilland\palmtree.math.core.uint\palmtree.math.core.uint\pmc_parse.cpp
; File z:\sources\lunor\repos\rougemeilland\palmtree.math.core.uint\palmtree.math.core.uint\pmc_uint_internal.h
; File z:\sources\lunor\repos\rougemeilland\palmtree.math.core.uint\palmtree.math.core.uint\pmc_parse.cpp
; File z:\sources\lunor\repos\rougemeilland\palmtree.math.core.uint\palmtree.math.core.uint\pmc_inline_func.h
; File z:\sources\lunor\repos\rougemeilland\palmtree.math.core.uint\palmtree.math.core.uint\pmc_parse.cpp
; File z:\sources\lunor\repos\rougemeilland\palmtree.math.core.uint\palmtree.math.core.uint\pmc_uint_internal.h
; File z:\sources\lunor\repos\rougemeilland\palmtree.math.core.uint\palmtree.math.core.uint\pmc_parse.cpp
;	COMDAT ?MultiplyAndAdd_using_ADCX_MULX@Internal@Core@Math@Palmtree@@YAPAIPAIII@Z
_TEXT	SEGMENT
_u_buf$ = 8						; size = 4
_u_count$ = 12						; size = 4
_x$ = 16						; size = 4
?MultiplyAndAdd_using_ADCX_MULX@Internal@Core@Math@Palmtree@@YAPAIPAIII@Z PROC ; Palmtree::Math::Core::Internal::MultiplyAndAdd_using_ADCX_MULX, COMDAT

; 805  :     {

  00000	55		 push	 ebp
  00001	8b ec		 mov	 ebp, esp

; 808  :         while (count > 0)

  00003	8b 4d 08	 mov	 ecx, DWORD PTR _u_buf$[ebp]
  00006	ba 00 ca 9a 3b	 mov	 edx, 1000000000		; 3b9aca00H
  0000b	53		 push	 ebx
  0000c	8b 5d 0c	 mov	 ebx, DWORD PTR _u_count$[ebp]
  0000f	8b c3		 mov	 eax, ebx
  00011	56		 push	 esi
  00012	c1 e8 05	 shr	 eax, 5
  00015	57		 push	 edi
  00016	8b 7d 10	 mov	 edi, DWORD PTR _x$[ebp]
  00019	85 c0		 test	 eax, eax
  0001b	0f 84 3f 03 00
	00		 je	 $LN3@MultiplyAn
  00021	8b d8		 mov	 ebx, eax
$LL2@MultiplyAn:
; File z:\sources\lunor\repos\rougemeilland\palmtree.math.core.uint\palmtree.math.core.uint\pmc_inline_func.h

; 231  :             return (_FROMDWORDTOWORD((_UINT64_T)u * v, w_hi));

  00023	8b c2		 mov	 eax, edx
  00025	f7 21		 mul	 DWORD PTR [ecx]

; 189  :             return (_addcarryx_u32(carry, u, v, w));

  00027	03 c7		 add	 eax, edi

; 231  :             return (_FROMDWORDTOWORD((_UINT64_T)u * v, w_hi));

  00029	8b f2		 mov	 esi, edx

; 189  :             return (_addcarryx_u32(carry, u, v, w));

  0002b	89 01		 mov	 DWORD PTR [ecx], eax
  0002d	b8 00 00 00 00	 mov	 eax, 0
  00032	66 0f 38 f6 f0	 adcx	 esi, eax

; 231  :             return (_FROMDWORDTOWORD((_UINT64_T)u * v, w_hi));

  00037	b8 00 ca 9a 3b	 mov	 eax, 1000000000		; 3b9aca00H
  0003c	f7 61 04	 mul	 DWORD PTR [ecx+4]

; 189  :             return (_addcarryx_u32(carry, u, v, w));

  0003f	03 c6		 add	 eax, esi

; 231  :             return (_FROMDWORDTOWORD((_UINT64_T)u * v, w_hi));

  00041	8b fa		 mov	 edi, edx

; 189  :             return (_addcarryx_u32(carry, u, v, w));

  00043	89 41 04	 mov	 DWORD PTR [ecx+4], eax
  00046	b8 00 00 00 00	 mov	 eax, 0
  0004b	66 0f 38 f6 f8	 adcx	 edi, eax

; 231  :             return (_FROMDWORDTOWORD((_UINT64_T)u * v, w_hi));

  00050	b8 00 ca 9a 3b	 mov	 eax, 1000000000		; 3b9aca00H
  00055	f7 61 08	 mul	 DWORD PTR [ecx+8]

; 189  :             return (_addcarryx_u32(carry, u, v, w));

  00058	03 c7		 add	 eax, edi

; 231  :             return (_FROMDWORDTOWORD((_UINT64_T)u * v, w_hi));

  0005a	8b f2		 mov	 esi, edx

; 189  :             return (_addcarryx_u32(carry, u, v, w));

  0005c	89 41 08	 mov	 DWORD PTR [ecx+8], eax
  0005f	b8 00 00 00 00	 mov	 eax, 0
  00064	66 0f 38 f6 f0	 adcx	 esi, eax

; 231  :             return (_FROMDWORDTOWORD((_UINT64_T)u * v, w_hi));

  00069	b8 00 ca 9a 3b	 mov	 eax, 1000000000		; 3b9aca00H
  0006e	f7 61 0c	 mul	 DWORD PTR [ecx+12]

; 189  :             return (_addcarryx_u32(carry, u, v, w));

  00071	03 c6		 add	 eax, esi

; 231  :             return (_FROMDWORDTOWORD((_UINT64_T)u * v, w_hi));

  00073	8b fa		 mov	 edi, edx

; 189  :             return (_addcarryx_u32(carry, u, v, w));

  00075	89 41 0c	 mov	 DWORD PTR [ecx+12], eax
  00078	b8 00 00 00 00	 mov	 eax, 0
  0007d	66 0f 38 f6 f8	 adcx	 edi, eax

; 231  :             return (_FROMDWORDTOWORD((_UINT64_T)u * v, w_hi));

  00082	b8 00 ca 9a 3b	 mov	 eax, 1000000000		; 3b9aca00H
  00087	f7 61 10	 mul	 DWORD PTR [ecx+16]

; 189  :             return (_addcarryx_u32(carry, u, v, w));

  0008a	03 c7		 add	 eax, edi

; 231  :             return (_FROMDWORDTOWORD((_UINT64_T)u * v, w_hi));

  0008c	8b f2		 mov	 esi, edx

; 189  :             return (_addcarryx_u32(carry, u, v, w));

  0008e	89 41 10	 mov	 DWORD PTR [ecx+16], eax
  00091	b8 00 00 00 00	 mov	 eax, 0
  00096	66 0f 38 f6 f0	 adcx	 esi, eax

; 231  :             return (_FROMDWORDTOWORD((_UINT64_T)u * v, w_hi));

  0009b	b8 00 ca 9a 3b	 mov	 eax, 1000000000		; 3b9aca00H
  000a0	f7 61 14	 mul	 DWORD PTR [ecx+20]

; 189  :             return (_addcarryx_u32(carry, u, v, w));

  000a3	03 c6		 add	 eax, esi

; 231  :             return (_FROMDWORDTOWORD((_UINT64_T)u * v, w_hi));

  000a5	8b fa		 mov	 edi, edx

; 189  :             return (_addcarryx_u32(carry, u, v, w));

  000a7	89 41 14	 mov	 DWORD PTR [ecx+20], eax
  000aa	b8 00 00 00 00	 mov	 eax, 0
  000af	66 0f 38 f6 f8	 adcx	 edi, eax

; 231  :             return (_FROMDWORDTOWORD((_UINT64_T)u * v, w_hi));

  000b4	b8 00 ca 9a 3b	 mov	 eax, 1000000000		; 3b9aca00H
  000b9	f7 61 18	 mul	 DWORD PTR [ecx+24]

; 189  :             return (_addcarryx_u32(carry, u, v, w));

  000bc	03 c7		 add	 eax, edi

; 231  :             return (_FROMDWORDTOWORD((_UINT64_T)u * v, w_hi));

  000be	8b f2		 mov	 esi, edx

; 189  :             return (_addcarryx_u32(carry, u, v, w));

  000c0	89 41 18	 mov	 DWORD PTR [ecx+24], eax
  000c3	b8 00 00 00 00	 mov	 eax, 0
  000c8	66 0f 38 f6 f0	 adcx	 esi, eax

; 231  :             return (_FROMDWORDTOWORD((_UINT64_T)u * v, w_hi));

  000cd	b8 00 ca 9a 3b	 mov	 eax, 1000000000		; 3b9aca00H
  000d2	f7 61 1c	 mul	 DWORD PTR [ecx+28]

; 189  :             return (_addcarryx_u32(carry, u, v, w));

  000d5	03 c6		 add	 eax, esi

; 231  :             return (_FROMDWORDTOWORD((_UINT64_T)u * v, w_hi));

  000d7	8b fa		 mov	 edi, edx

; 189  :             return (_addcarryx_u32(carry, u, v, w));

  000d9	89 41 1c	 mov	 DWORD PTR [ecx+28], eax
  000dc	b8 00 00 00 00	 mov	 eax, 0
  000e1	66 0f 38 f6 f8	 adcx	 edi, eax

; 231  :             return (_FROMDWORDTOWORD((_UINT64_T)u * v, w_hi));

  000e6	b8 00 ca 9a 3b	 mov	 eax, 1000000000		; 3b9aca00H
  000eb	f7 61 20	 mul	 DWORD PTR [ecx+32]

; 189  :             return (_addcarryx_u32(carry, u, v, w));

  000ee	03 c7		 add	 eax, edi

; 231  :             return (_FROMDWORDTOWORD((_UINT64_T)u * v, w_hi));

  000f0	8b f2		 mov	 esi, edx

; 189  :             return (_addcarryx_u32(carry, u, v, w));

  000f2	89 41 20	 mov	 DWORD PTR [ecx+32], eax
  000f5	b8 00 00 00 00	 mov	 eax, 0
  000fa	66 0f 38 f6 f0	 adcx	 esi, eax

; 231  :             return (_FROMDWORDTOWORD((_UINT64_T)u * v, w_hi));

  000ff	b8 00 ca 9a 3b	 mov	 eax, 1000000000		; 3b9aca00H
  00104	f7 61 24	 mul	 DWORD PTR [ecx+36]

; 189  :             return (_addcarryx_u32(carry, u, v, w));

  00107	03 c6		 add	 eax, esi

; 231  :             return (_FROMDWORDTOWORD((_UINT64_T)u * v, w_hi));

  00109	8b fa		 mov	 edi, edx

; 189  :             return (_addcarryx_u32(carry, u, v, w));

  0010b	89 41 24	 mov	 DWORD PTR [ecx+36], eax
  0010e	b8 00 00 00 00	 mov	 eax, 0
  00113	66 0f 38 f6 f8	 adcx	 edi, eax

; 231  :             return (_FROMDWORDTOWORD((_UINT64_T)u * v, w_hi));

  00118	b8 00 ca 9a 3b	 mov	 eax, 1000000000		; 3b9aca00H
  0011d	f7 61 28	 mul	 DWORD PTR [ecx+40]

; 189  :             return (_addcarryx_u32(carry, u, v, w));

  00120	03 c7		 add	 eax, edi

; 231  :             return (_FROMDWORDTOWORD((_UINT64_T)u * v, w_hi));

  00122	8b f2		 mov	 esi, edx

; 189  :             return (_addcarryx_u32(carry, u, v, w));

  00124	89 41 28	 mov	 DWORD PTR [ecx+40], eax
  00127	b8 00 00 00 00	 mov	 eax, 0
  0012c	66 0f 38 f6 f0	 adcx	 esi, eax

; 231  :             return (_FROMDWORDTOWORD((_UINT64_T)u * v, w_hi));

  00131	b8 00 ca 9a 3b	 mov	 eax, 1000000000		; 3b9aca00H
  00136	f7 61 2c	 mul	 DWORD PTR [ecx+44]
  00139	8b fa		 mov	 edi, edx

; 189  :             return (_addcarryx_u32(carry, u, v, w));

  0013b	03 c6		 add	 eax, esi
  0013d	89 41 2c	 mov	 DWORD PTR [ecx+44], eax
  00140	b8 00 00 00 00	 mov	 eax, 0
  00145	66 0f 38 f6 f8	 adcx	 edi, eax

; 231  :             return (_FROMDWORDTOWORD((_UINT64_T)u * v, w_hi));

  0014a	b8 00 ca 9a 3b	 mov	 eax, 1000000000		; 3b9aca00H
  0014f	f7 61 30	 mul	 DWORD PTR [ecx+48]

; 189  :             return (_addcarryx_u32(carry, u, v, w));

  00152	03 c7		 add	 eax, edi

; 231  :             return (_FROMDWORDTOWORD((_UINT64_T)u * v, w_hi));

  00154	8b f2		 mov	 esi, edx

; 189  :             return (_addcarryx_u32(carry, u, v, w));

  00156	89 41 30	 mov	 DWORD PTR [ecx+48], eax
  00159	b8 00 00 00 00	 mov	 eax, 0
  0015e	66 0f 38 f6 f0	 adcx	 esi, eax

; 231  :             return (_FROMDWORDTOWORD((_UINT64_T)u * v, w_hi));

  00163	b8 00 ca 9a 3b	 mov	 eax, 1000000000		; 3b9aca00H
  00168	f7 61 34	 mul	 DWORD PTR [ecx+52]

; 189  :             return (_addcarryx_u32(carry, u, v, w));

  0016b	03 c6		 add	 eax, esi

; 231  :             return (_FROMDWORDTOWORD((_UINT64_T)u * v, w_hi));

  0016d	8b fa		 mov	 edi, edx

; 189  :             return (_addcarryx_u32(carry, u, v, w));

  0016f	89 41 34	 mov	 DWORD PTR [ecx+52], eax
  00172	b8 00 00 00 00	 mov	 eax, 0
  00177	66 0f 38 f6 f8	 adcx	 edi, eax

; 231  :             return (_FROMDWORDTOWORD((_UINT64_T)u * v, w_hi));

  0017c	b8 00 ca 9a 3b	 mov	 eax, 1000000000		; 3b9aca00H
  00181	f7 61 38	 mul	 DWORD PTR [ecx+56]

; 189  :             return (_addcarryx_u32(carry, u, v, w));

  00184	03 c7		 add	 eax, edi

; 231  :             return (_FROMDWORDTOWORD((_UINT64_T)u * v, w_hi));

  00186	8b f2		 mov	 esi, edx

; 189  :             return (_addcarryx_u32(carry, u, v, w));

  00188	89 41 38	 mov	 DWORD PTR [ecx+56], eax
  0018b	b8 00 00 00 00	 mov	 eax, 0
  00190	66 0f 38 f6 f0	 adcx	 esi, eax

; 231  :             return (_FROMDWORDTOWORD((_UINT64_T)u * v, w_hi));

  00195	b8 00 ca 9a 3b	 mov	 eax, 1000000000		; 3b9aca00H
  0019a	f7 61 3c	 mul	 DWORD PTR [ecx+60]

; 189  :             return (_addcarryx_u32(carry, u, v, w));

  0019d	03 c6		 add	 eax, esi

; 231  :             return (_FROMDWORDTOWORD((_UINT64_T)u * v, w_hi));

  0019f	8b fa		 mov	 edi, edx

; 189  :             return (_addcarryx_u32(carry, u, v, w));

  001a1	89 41 3c	 mov	 DWORD PTR [ecx+60], eax
  001a4	b8 00 00 00 00	 mov	 eax, 0
  001a9	66 0f 38 f6 f8	 adcx	 edi, eax

; 231  :             return (_FROMDWORDTOWORD((_UINT64_T)u * v, w_hi));

  001ae	b8 00 ca 9a 3b	 mov	 eax, 1000000000		; 3b9aca00H
  001b3	f7 61 40	 mul	 DWORD PTR [ecx+64]

; 189  :             return (_addcarryx_u32(carry, u, v, w));

  001b6	03 c7		 add	 eax, edi

; 231  :             return (_FROMDWORDTOWORD((_UINT64_T)u * v, w_hi));

  001b8	8b f2		 mov	 esi, edx

; 189  :             return (_addcarryx_u32(carry, u, v, w));

  001ba	89 41 40	 mov	 DWORD PTR [ecx+64], eax
  001bd	b8 00 00 00 00	 mov	 eax, 0
  001c2	66 0f 38 f6 f0	 adcx	 esi, eax

; 231  :             return (_FROMDWORDTOWORD((_UINT64_T)u * v, w_hi));

  001c7	b8 00 ca 9a 3b	 mov	 eax, 1000000000		; 3b9aca00H
  001cc	f7 61 44	 mul	 DWORD PTR [ecx+68]

; 189  :             return (_addcarryx_u32(carry, u, v, w));

  001cf	03 c6		 add	 eax, esi

; 231  :             return (_FROMDWORDTOWORD((_UINT64_T)u * v, w_hi));

  001d1	8b fa		 mov	 edi, edx

; 189  :             return (_addcarryx_u32(carry, u, v, w));

  001d3	89 41 44	 mov	 DWORD PTR [ecx+68], eax
  001d6	b8 00 00 00 00	 mov	 eax, 0
  001db	66 0f 38 f6 f8	 adcx	 edi, eax

; 231  :             return (_FROMDWORDTOWORD((_UINT64_T)u * v, w_hi));

  001e0	b8 00 ca 9a 3b	 mov	 eax, 1000000000		; 3b9aca00H
  001e5	f7 61 48	 mul	 DWORD PTR [ecx+72]

; 189  :             return (_addcarryx_u32(carry, u, v, w));

  001e8	03 c7		 add	 eax, edi

; 231  :             return (_FROMDWORDTOWORD((_UINT64_T)u * v, w_hi));

  001ea	8b f2		 mov	 esi, edx

; 189  :             return (_addcarryx_u32(carry, u, v, w));

  001ec	89 41 48	 mov	 DWORD PTR [ecx+72], eax
  001ef	b8 00 00 00 00	 mov	 eax, 0
  001f4	66 0f 38 f6 f0	 adcx	 esi, eax

; 231  :             return (_FROMDWORDTOWORD((_UINT64_T)u * v, w_hi));

  001f9	b8 00 ca 9a 3b	 mov	 eax, 1000000000		; 3b9aca00H
  001fe	f7 61 4c	 mul	 DWORD PTR [ecx+76]

; 189  :             return (_addcarryx_u32(carry, u, v, w));

  00201	03 c6		 add	 eax, esi

; 231  :             return (_FROMDWORDTOWORD((_UINT64_T)u * v, w_hi));

  00203	8b fa		 mov	 edi, edx

; 189  :             return (_addcarryx_u32(carry, u, v, w));

  00205	89 41 4c	 mov	 DWORD PTR [ecx+76], eax
  00208	b8 00 00 00 00	 mov	 eax, 0
  0020d	66 0f 38 f6 f8	 adcx	 edi, eax

; 231  :             return (_FROMDWORDTOWORD((_UINT64_T)u * v, w_hi));

  00212	b8 00 ca 9a 3b	 mov	 eax, 1000000000		; 3b9aca00H
  00217	f7 61 50	 mul	 DWORD PTR [ecx+80]

; 189  :             return (_addcarryx_u32(carry, u, v, w));

  0021a	03 c7		 add	 eax, edi

; 231  :             return (_FROMDWORDTOWORD((_UINT64_T)u * v, w_hi));

  0021c	8b f2		 mov	 esi, edx

; 189  :             return (_addcarryx_u32(carry, u, v, w));

  0021e	89 41 50	 mov	 DWORD PTR [ecx+80], eax
  00221	b8 00 00 00 00	 mov	 eax, 0
  00226	66 0f 38 f6 f0	 adcx	 esi, eax

; 231  :             return (_FROMDWORDTOWORD((_UINT64_T)u * v, w_hi));

  0022b	b8 00 ca 9a 3b	 mov	 eax, 1000000000		; 3b9aca00H
  00230	f7 61 54	 mul	 DWORD PTR [ecx+84]

; 189  :             return (_addcarryx_u32(carry, u, v, w));

  00233	03 c6		 add	 eax, esi

; 231  :             return (_FROMDWORDTOWORD((_UINT64_T)u * v, w_hi));

  00235	8b fa		 mov	 edi, edx

; 189  :             return (_addcarryx_u32(carry, u, v, w));

  00237	89 41 54	 mov	 DWORD PTR [ecx+84], eax
  0023a	b8 00 00 00 00	 mov	 eax, 0
  0023f	66 0f 38 f6 f8	 adcx	 edi, eax

; 231  :             return (_FROMDWORDTOWORD((_UINT64_T)u * v, w_hi));

  00244	b8 00 ca 9a 3b	 mov	 eax, 1000000000		; 3b9aca00H
  00249	f7 61 58	 mul	 DWORD PTR [ecx+88]

; 189  :             return (_addcarryx_u32(carry, u, v, w));

  0024c	03 c7		 add	 eax, edi

; 231  :             return (_FROMDWORDTOWORD((_UINT64_T)u * v, w_hi));

  0024e	8b f2		 mov	 esi, edx

; 189  :             return (_addcarryx_u32(carry, u, v, w));

  00250	89 41 58	 mov	 DWORD PTR [ecx+88], eax
  00253	b8 00 00 00 00	 mov	 eax, 0
  00258	66 0f 38 f6 f0	 adcx	 esi, eax

; 231  :             return (_FROMDWORDTOWORD((_UINT64_T)u * v, w_hi));

  0025d	b8 00 ca 9a 3b	 mov	 eax, 1000000000		; 3b9aca00H
  00262	f7 61 5c	 mul	 DWORD PTR [ecx+92]

; 189  :             return (_addcarryx_u32(carry, u, v, w));

  00265	03 c6		 add	 eax, esi

; 231  :             return (_FROMDWORDTOWORD((_UINT64_T)u * v, w_hi));

  00267	8b fa		 mov	 edi, edx

; 189  :             return (_addcarryx_u32(carry, u, v, w));

  00269	89 41 5c	 mov	 DWORD PTR [ecx+92], eax
  0026c	b8 00 00 00 00	 mov	 eax, 0
  00271	66 0f 38 f6 f8	 adcx	 edi, eax

; 231  :             return (_FROMDWORDTOWORD((_UINT64_T)u * v, w_hi));

  00276	b8 00 ca 9a 3b	 mov	 eax, 1000000000		; 3b9aca00H
  0027b	f7 61 60	 mul	 DWORD PTR [ecx+96]

; 189  :             return (_addcarryx_u32(carry, u, v, w));

  0027e	03 c7		 add	 eax, edi

; 231  :             return (_FROMDWORDTOWORD((_UINT64_T)u * v, w_hi));

  00280	8b f2		 mov	 esi, edx

; 189  :             return (_addcarryx_u32(carry, u, v, w));

  00282	89 41 60	 mov	 DWORD PTR [ecx+96], eax
  00285	b8 00 00 00 00	 mov	 eax, 0
  0028a	66 0f 38 f6 f0	 adcx	 esi, eax

; 231  :             return (_FROMDWORDTOWORD((_UINT64_T)u * v, w_hi));

  0028f	b8 00 ca 9a 3b	 mov	 eax, 1000000000		; 3b9aca00H
  00294	f7 61 64	 mul	 DWORD PTR [ecx+100]

; 189  :             return (_addcarryx_u32(carry, u, v, w));

  00297	03 c6		 add	 eax, esi

; 231  :             return (_FROMDWORDTOWORD((_UINT64_T)u * v, w_hi));

  00299	8b fa		 mov	 edi, edx

; 189  :             return (_addcarryx_u32(carry, u, v, w));

  0029b	89 41 64	 mov	 DWORD PTR [ecx+100], eax
  0029e	b8 00 00 00 00	 mov	 eax, 0
  002a3	66 0f 38 f6 f8	 adcx	 edi, eax

; 231  :             return (_FROMDWORDTOWORD((_UINT64_T)u * v, w_hi));

  002a8	b8 00 ca 9a 3b	 mov	 eax, 1000000000		; 3b9aca00H
  002ad	f7 61 68	 mul	 DWORD PTR [ecx+104]

; 189  :             return (_addcarryx_u32(carry, u, v, w));

  002b0	03 c7		 add	 eax, edi

; 231  :             return (_FROMDWORDTOWORD((_UINT64_T)u * v, w_hi));

  002b2	8b f2		 mov	 esi, edx

; 189  :             return (_addcarryx_u32(carry, u, v, w));

  002b4	89 41 68	 mov	 DWORD PTR [ecx+104], eax
  002b7	b8 00 00 00 00	 mov	 eax, 0
  002bc	66 0f 38 f6 f0	 adcx	 esi, eax

; 231  :             return (_FROMDWORDTOWORD((_UINT64_T)u * v, w_hi));

  002c1	b8 00 ca 9a 3b	 mov	 eax, 1000000000		; 3b9aca00H
  002c6	f7 61 6c	 mul	 DWORD PTR [ecx+108]

; 189  :             return (_addcarryx_u32(carry, u, v, w));

  002c9	03 c6		 add	 eax, esi

; 231  :             return (_FROMDWORDTOWORD((_UINT64_T)u * v, w_hi));

  002cb	8b fa		 mov	 edi, edx

; 189  :             return (_addcarryx_u32(carry, u, v, w));

  002cd	89 41 6c	 mov	 DWORD PTR [ecx+108], eax
  002d0	b8 00 00 00 00	 mov	 eax, 0
  002d5	66 0f 38 f6 f8	 adcx	 edi, eax

; 231  :             return (_FROMDWORDTOWORD((_UINT64_T)u * v, w_hi));

  002da	b8 00 ca 9a 3b	 mov	 eax, 1000000000		; 3b9aca00H
  002df	f7 61 70	 mul	 DWORD PTR [ecx+112]

; 189  :             return (_addcarryx_u32(carry, u, v, w));

  002e2	03 c7		 add	 eax, edi

; 231  :             return (_FROMDWORDTOWORD((_UINT64_T)u * v, w_hi));

  002e4	8b f2		 mov	 esi, edx

; 189  :             return (_addcarryx_u32(carry, u, v, w));

  002e6	89 41 70	 mov	 DWORD PTR [ecx+112], eax
  002e9	b8 00 00 00 00	 mov	 eax, 0
  002ee	66 0f 38 f6 f0	 adcx	 esi, eax

; 231  :             return (_FROMDWORDTOWORD((_UINT64_T)u * v, w_hi));

  002f3	b8 00 ca 9a 3b	 mov	 eax, 1000000000		; 3b9aca00H
  002f8	f7 61 74	 mul	 DWORD PTR [ecx+116]

; 189  :             return (_addcarryx_u32(carry, u, v, w));

  002fb	03 c6		 add	 eax, esi

; 231  :             return (_FROMDWORDTOWORD((_UINT64_T)u * v, w_hi));

  002fd	8b fa		 mov	 edi, edx

; 189  :             return (_addcarryx_u32(carry, u, v, w));

  002ff	89 41 74	 mov	 DWORD PTR [ecx+116], eax
  00302	b8 00 00 00 00	 mov	 eax, 0
  00307	66 0f 38 f6 f8	 adcx	 edi, eax

; 231  :             return (_FROMDWORDTOWORD((_UINT64_T)u * v, w_hi));

  0030c	b8 00 ca 9a 3b	 mov	 eax, 1000000000		; 3b9aca00H
  00311	f7 61 78	 mul	 DWORD PTR [ecx+120]

; 189  :             return (_addcarryx_u32(carry, u, v, w));

  00314	03 c7		 add	 eax, edi

; 231  :             return (_FROMDWORDTOWORD((_UINT64_T)u * v, w_hi));

  00316	8b f2		 mov	 esi, edx

; 189  :             return (_addcarryx_u32(carry, u, v, w));

  00318	89 41 78	 mov	 DWORD PTR [ecx+120], eax
  0031b	b8 00 00 00 00	 mov	 eax, 0
  00320	66 0f 38 f6 f0	 adcx	 esi, eax

; 231  :             return (_FROMDWORDTOWORD((_UINT64_T)u * v, w_hi));

  00325	b8 00 ca 9a 3b	 mov	 eax, 1000000000		; 3b9aca00H
  0032a	f7 61 7c	 mul	 DWORD PTR [ecx+124]

; 189  :             return (_addcarryx_u32(carry, u, v, w));

  0032d	03 c6		 add	 eax, esi

; 231  :             return (_FROMDWORDTOWORD((_UINT64_T)u * v, w_hi));

  0032f	8b fa		 mov	 edi, edx

; 189  :             return (_addcarryx_u32(carry, u, v, w));

  00331	89 41 7c	 mov	 DWORD PTR [ecx+124], eax
; File z:\sources\lunor\repos\rougemeilland\palmtree.math.core.uint\palmtree.math.core.uint\pmc_uint_internal.h

; 339  :         _InterlockedExchangeAdd(&statistics_info.COUNT_MULTI32, value);

  00334	ba 04 00 00 00	 mov	 edx, OFFSET ?statistics_info@Internal@Core@Math@Palmtree@@3U__tag_PMC_STATISTICS_INFO@1234@A+4
; File z:\sources\lunor\repos\rougemeilland\palmtree.math.core.uint\palmtree.math.core.uint\pmc_inline_func.h

; 189  :             return (_addcarryx_u32(carry, u, v, w));

  00339	b8 00 00 00 00	 mov	 eax, 0
  0033e	66 0f 38 f6 f8	 adcx	 edi, eax
; File z:\sources\lunor\repos\rougemeilland\palmtree.math.core.uint\palmtree.math.core.uint\pmc_parse.cpp

; 842  :             u_buf += 32;

  00343	83 e9 80	 sub	 ecx, -128		; ffffff80H
; File z:\sources\lunor\repos\rougemeilland\palmtree.math.core.uint\palmtree.math.core.uint\pmc_uint_internal.h

; 339  :         _InterlockedExchangeAdd(&statistics_info.COUNT_MULTI32, value);

  00346	b8 20 00 00 00	 mov	 eax, 32			; 00000020H
  0034b	f0 0f c1 02	 lock	  xadd	 DWORD PTR [edx], eax
; File z:\sources\lunor\repos\rougemeilland\palmtree.math.core.uint\palmtree.math.core.uint\pmc_parse.cpp

; 808  :         while (count > 0)

  0034f	ba 00 ca 9a 3b	 mov	 edx, 1000000000		; 3b9aca00H

; 843  :             --count;

  00354	83 eb 01	 sub	 ebx, 1
  00357	0f 85 c6 fc ff
	ff		 jne	 $LL2@MultiplyAn

; 808  :         while (count > 0)

  0035d	8b 5d 0c	 mov	 ebx, DWORD PTR _u_count$[ebp]
$LN3@MultiplyAn:

; 844  : #ifdef ENABLED_PERFORMANCE_COUNTER
; 845  :             if (sizeof(k) == sizeof(_UINT32_T))
; 846  :                 AddToMULTI32Counter(32);
; 847  :             else
; 848  :                 AddToMULTI64Counter(32);
; 849  : #endif
; 850  :         }
; 851  : 
; 852  :         if (u_count & 0x10)

  00360	f6 c3 10	 test	 bl, 16			; 00000010H
  00363	0f 84 9c 01 00
	00		 je	 $LN8@MultiplyAn
; File z:\sources\lunor\repos\rougemeilland\palmtree.math.core.uint\palmtree.math.core.uint\pmc_inline_func.h

; 231  :             return (_FROMDWORDTOWORD((_UINT64_T)u * v, w_hi));

  00369	8b c2		 mov	 eax, edx
  0036b	f7 21		 mul	 DWORD PTR [ecx]

; 189  :             return (_addcarryx_u32(carry, u, v, w));

  0036d	03 c7		 add	 eax, edi

; 231  :             return (_FROMDWORDTOWORD((_UINT64_T)u * v, w_hi));

  0036f	8b f2		 mov	 esi, edx

; 189  :             return (_addcarryx_u32(carry, u, v, w));

  00371	89 01		 mov	 DWORD PTR [ecx], eax
  00373	b8 00 00 00 00	 mov	 eax, 0
  00378	66 0f 38 f6 f0	 adcx	 esi, eax

; 231  :             return (_FROMDWORDTOWORD((_UINT64_T)u * v, w_hi));

  0037d	b8 00 ca 9a 3b	 mov	 eax, 1000000000		; 3b9aca00H
  00382	f7 61 04	 mul	 DWORD PTR [ecx+4]

; 189  :             return (_addcarryx_u32(carry, u, v, w));

  00385	03 c6		 add	 eax, esi

; 231  :             return (_FROMDWORDTOWORD((_UINT64_T)u * v, w_hi));

  00387	8b fa		 mov	 edi, edx

; 189  :             return (_addcarryx_u32(carry, u, v, w));

  00389	89 41 04	 mov	 DWORD PTR [ecx+4], eax
  0038c	b8 00 00 00 00	 mov	 eax, 0
  00391	66 0f 38 f6 f8	 adcx	 edi, eax

; 231  :             return (_FROMDWORDTOWORD((_UINT64_T)u * v, w_hi));

  00396	b8 00 ca 9a 3b	 mov	 eax, 1000000000		; 3b9aca00H
  0039b	f7 61 08	 mul	 DWORD PTR [ecx+8]

; 189  :             return (_addcarryx_u32(carry, u, v, w));

  0039e	03 c7		 add	 eax, edi

; 231  :             return (_FROMDWORDTOWORD((_UINT64_T)u * v, w_hi));

  003a0	8b f2		 mov	 esi, edx

; 189  :             return (_addcarryx_u32(carry, u, v, w));

  003a2	89 41 08	 mov	 DWORD PTR [ecx+8], eax
  003a5	b8 00 00 00 00	 mov	 eax, 0
  003aa	66 0f 38 f6 f0	 adcx	 esi, eax

; 231  :             return (_FROMDWORDTOWORD((_UINT64_T)u * v, w_hi));

  003af	b8 00 ca 9a 3b	 mov	 eax, 1000000000		; 3b9aca00H
  003b4	f7 61 0c	 mul	 DWORD PTR [ecx+12]

; 189  :             return (_addcarryx_u32(carry, u, v, w));

  003b7	03 c6		 add	 eax, esi

; 231  :             return (_FROMDWORDTOWORD((_UINT64_T)u * v, w_hi));

  003b9	8b fa		 mov	 edi, edx

; 189  :             return (_addcarryx_u32(carry, u, v, w));

  003bb	89 41 0c	 mov	 DWORD PTR [ecx+12], eax
  003be	b8 00 00 00 00	 mov	 eax, 0
  003c3	66 0f 38 f6 f8	 adcx	 edi, eax

; 231  :             return (_FROMDWORDTOWORD((_UINT64_T)u * v, w_hi));

  003c8	b8 00 ca 9a 3b	 mov	 eax, 1000000000		; 3b9aca00H
  003cd	f7 61 10	 mul	 DWORD PTR [ecx+16]

; 189  :             return (_addcarryx_u32(carry, u, v, w));

  003d0	03 c7		 add	 eax, edi

; 231  :             return (_FROMDWORDTOWORD((_UINT64_T)u * v, w_hi));

  003d2	8b f2		 mov	 esi, edx

; 189  :             return (_addcarryx_u32(carry, u, v, w));

  003d4	89 41 10	 mov	 DWORD PTR [ecx+16], eax
  003d7	b8 00 00 00 00	 mov	 eax, 0
  003dc	66 0f 38 f6 f0	 adcx	 esi, eax

; 231  :             return (_FROMDWORDTOWORD((_UINT64_T)u * v, w_hi));

  003e1	b8 00 ca 9a 3b	 mov	 eax, 1000000000		; 3b9aca00H
  003e6	f7 61 14	 mul	 DWORD PTR [ecx+20]

; 189  :             return (_addcarryx_u32(carry, u, v, w));

  003e9	03 c6		 add	 eax, esi

; 231  :             return (_FROMDWORDTOWORD((_UINT64_T)u * v, w_hi));

  003eb	8b fa		 mov	 edi, edx

; 189  :             return (_addcarryx_u32(carry, u, v, w));

  003ed	89 41 14	 mov	 DWORD PTR [ecx+20], eax
  003f0	b8 00 00 00 00	 mov	 eax, 0
  003f5	66 0f 38 f6 f8	 adcx	 edi, eax

; 231  :             return (_FROMDWORDTOWORD((_UINT64_T)u * v, w_hi));

  003fa	b8 00 ca 9a 3b	 mov	 eax, 1000000000		; 3b9aca00H
  003ff	f7 61 18	 mul	 DWORD PTR [ecx+24]

; 189  :             return (_addcarryx_u32(carry, u, v, w));

  00402	03 c7		 add	 eax, edi

; 231  :             return (_FROMDWORDTOWORD((_UINT64_T)u * v, w_hi));

  00404	8b f2		 mov	 esi, edx

; 189  :             return (_addcarryx_u32(carry, u, v, w));

  00406	89 41 18	 mov	 DWORD PTR [ecx+24], eax
  00409	b8 00 00 00 00	 mov	 eax, 0
  0040e	66 0f 38 f6 f0	 adcx	 esi, eax

; 231  :             return (_FROMDWORDTOWORD((_UINT64_T)u * v, w_hi));

  00413	b8 00 ca 9a 3b	 mov	 eax, 1000000000		; 3b9aca00H
  00418	f7 61 1c	 mul	 DWORD PTR [ecx+28]

; 189  :             return (_addcarryx_u32(carry, u, v, w));

  0041b	03 c6		 add	 eax, esi

; 231  :             return (_FROMDWORDTOWORD((_UINT64_T)u * v, w_hi));

  0041d	8b fa		 mov	 edi, edx

; 189  :             return (_addcarryx_u32(carry, u, v, w));

  0041f	89 41 1c	 mov	 DWORD PTR [ecx+28], eax
  00422	b8 00 00 00 00	 mov	 eax, 0
  00427	66 0f 38 f6 f8	 adcx	 edi, eax

; 231  :             return (_FROMDWORDTOWORD((_UINT64_T)u * v, w_hi));

  0042c	b8 00 ca 9a 3b	 mov	 eax, 1000000000		; 3b9aca00H
  00431	f7 61 20	 mul	 DWORD PTR [ecx+32]

; 189  :             return (_addcarryx_u32(carry, u, v, w));

  00434	03 c7		 add	 eax, edi

; 231  :             return (_FROMDWORDTOWORD((_UINT64_T)u * v, w_hi));

  00436	8b f2		 mov	 esi, edx

; 189  :             return (_addcarryx_u32(carry, u, v, w));

  00438	89 41 20	 mov	 DWORD PTR [ecx+32], eax
  0043b	b8 00 00 00 00	 mov	 eax, 0
  00440	66 0f 38 f6 f0	 adcx	 esi, eax

; 231  :             return (_FROMDWORDTOWORD((_UINT64_T)u * v, w_hi));

  00445	b8 00 ca 9a 3b	 mov	 eax, 1000000000		; 3b9aca00H
  0044a	f7 61 24	 mul	 DWORD PTR [ecx+36]

; 189  :             return (_addcarryx_u32(carry, u, v, w));

  0044d	03 c6		 add	 eax, esi

; 231  :             return (_FROMDWORDTOWORD((_UINT64_T)u * v, w_hi));

  0044f	8b fa		 mov	 edi, edx

; 189  :             return (_addcarryx_u32(carry, u, v, w));

  00451	89 41 24	 mov	 DWORD PTR [ecx+36], eax
  00454	b8 00 00 00 00	 mov	 eax, 0
  00459	66 0f 38 f6 f8	 adcx	 edi, eax

; 231  :             return (_FROMDWORDTOWORD((_UINT64_T)u * v, w_hi));

  0045e	b8 00 ca 9a 3b	 mov	 eax, 1000000000		; 3b9aca00H
  00463	f7 61 28	 mul	 DWORD PTR [ecx+40]

; 189  :             return (_addcarryx_u32(carry, u, v, w));

  00466	03 c7		 add	 eax, edi

; 231  :             return (_FROMDWORDTOWORD((_UINT64_T)u * v, w_hi));

  00468	8b f2		 mov	 esi, edx

; 189  :             return (_addcarryx_u32(carry, u, v, w));

  0046a	89 41 28	 mov	 DWORD PTR [ecx+40], eax
  0046d	b8 00 00 00 00	 mov	 eax, 0
  00472	66 0f 38 f6 f0	 adcx	 esi, eax

; 231  :             return (_FROMDWORDTOWORD((_UINT64_T)u * v, w_hi));

  00477	b8 00 ca 9a 3b	 mov	 eax, 1000000000		; 3b9aca00H
  0047c	f7 61 2c	 mul	 DWORD PTR [ecx+44]
  0047f	8b fa		 mov	 edi, edx

; 189  :             return (_addcarryx_u32(carry, u, v, w));

  00481	03 c6		 add	 eax, esi
  00483	89 41 2c	 mov	 DWORD PTR [ecx+44], eax
  00486	b8 00 00 00 00	 mov	 eax, 0
  0048b	66 0f 38 f6 f8	 adcx	 edi, eax

; 231  :             return (_FROMDWORDTOWORD((_UINT64_T)u * v, w_hi));

  00490	b8 00 ca 9a 3b	 mov	 eax, 1000000000		; 3b9aca00H
  00495	f7 61 30	 mul	 DWORD PTR [ecx+48]

; 189  :             return (_addcarryx_u32(carry, u, v, w));

  00498	03 c7		 add	 eax, edi

; 231  :             return (_FROMDWORDTOWORD((_UINT64_T)u * v, w_hi));

  0049a	8b f2		 mov	 esi, edx

; 189  :             return (_addcarryx_u32(carry, u, v, w));

  0049c	89 41 30	 mov	 DWORD PTR [ecx+48], eax
  0049f	b8 00 00 00 00	 mov	 eax, 0
  004a4	66 0f 38 f6 f0	 adcx	 esi, eax

; 231  :             return (_FROMDWORDTOWORD((_UINT64_T)u * v, w_hi));

  004a9	b8 00 ca 9a 3b	 mov	 eax, 1000000000		; 3b9aca00H
  004ae	f7 61 34	 mul	 DWORD PTR [ecx+52]

; 189  :             return (_addcarryx_u32(carry, u, v, w));

  004b1	03 c6		 add	 eax, esi

; 231  :             return (_FROMDWORDTOWORD((_UINT64_T)u * v, w_hi));

  004b3	8b fa		 mov	 edi, edx

; 189  :             return (_addcarryx_u32(carry, u, v, w));

  004b5	89 41 34	 mov	 DWORD PTR [ecx+52], eax
  004b8	b8 00 00 00 00	 mov	 eax, 0
  004bd	66 0f 38 f6 f8	 adcx	 edi, eax

; 231  :             return (_FROMDWORDTOWORD((_UINT64_T)u * v, w_hi));

  004c2	b8 00 ca 9a 3b	 mov	 eax, 1000000000		; 3b9aca00H
  004c7	f7 61 38	 mul	 DWORD PTR [ecx+56]

; 189  :             return (_addcarryx_u32(carry, u, v, w));

  004ca	03 c7		 add	 eax, edi

; 231  :             return (_FROMDWORDTOWORD((_UINT64_T)u * v, w_hi));

  004cc	8b f2		 mov	 esi, edx

; 189  :             return (_addcarryx_u32(carry, u, v, w));

  004ce	89 41 38	 mov	 DWORD PTR [ecx+56], eax
  004d1	b8 00 00 00 00	 mov	 eax, 0
  004d6	66 0f 38 f6 f0	 adcx	 esi, eax

; 231  :             return (_FROMDWORDTOWORD((_UINT64_T)u * v, w_hi));

  004db	b8 00 ca 9a 3b	 mov	 eax, 1000000000		; 3b9aca00H
  004e0	f7 61 3c	 mul	 DWORD PTR [ecx+60]

; 189  :             return (_addcarryx_u32(carry, u, v, w));

  004e3	03 c6		 add	 eax, esi

; 231  :             return (_FROMDWORDTOWORD((_UINT64_T)u * v, w_hi));

  004e5	8b fa		 mov	 edi, edx

; 189  :             return (_addcarryx_u32(carry, u, v, w));

  004e7	89 41 3c	 mov	 DWORD PTR [ecx+60], eax
; File z:\sources\lunor\repos\rougemeilland\palmtree.math.core.uint\palmtree.math.core.uint\pmc_uint_internal.h

; 339  :         _InterlockedExchangeAdd(&statistics_info.COUNT_MULTI32, value);

  004ea	ba 04 00 00 00	 mov	 edx, OFFSET ?statistics_info@Internal@Core@Math@Palmtree@@3U__tag_PMC_STATISTICS_INFO@1234@A+4
; File z:\sources\lunor\repos\rougemeilland\palmtree.math.core.uint\palmtree.math.core.uint\pmc_inline_func.h

; 189  :             return (_addcarryx_u32(carry, u, v, w));

  004ef	b8 00 00 00 00	 mov	 eax, 0
  004f4	66 0f 38 f6 f8	 adcx	 edi, eax
; File z:\sources\lunor\repos\rougemeilland\palmtree.math.core.uint\palmtree.math.core.uint\pmc_parse.cpp

; 870  :             u_buf += 16;

  004f9	83 c1 40	 add	 ecx, 64			; 00000040H
; File z:\sources\lunor\repos\rougemeilland\palmtree.math.core.uint\palmtree.math.core.uint\pmc_uint_internal.h

; 339  :         _InterlockedExchangeAdd(&statistics_info.COUNT_MULTI32, value);

  004fc	b8 10 00 00 00	 mov	 eax, 16			; 00000010H
  00501	f0 0f c1 02	 lock	  xadd	 DWORD PTR [edx], eax
$LN8@MultiplyAn:
; File z:\sources\lunor\repos\rougemeilland\palmtree.math.core.uint\palmtree.math.core.uint\pmc_parse.cpp

; 879  :         if (u_count & 0x8)

  00505	f6 c3 08	 test	 bl, 8
  00508	0f 84 d9 00 00
	00		 je	 $LN11@MultiplyAn
; File z:\sources\lunor\repos\rougemeilland\palmtree.math.core.uint\palmtree.math.core.uint\pmc_inline_func.h

; 231  :             return (_FROMDWORDTOWORD((_UINT64_T)u * v, w_hi));

  0050e	b8 00 ca 9a 3b	 mov	 eax, 1000000000		; 3b9aca00H
  00513	f7 21		 mul	 DWORD PTR [ecx]

; 189  :             return (_addcarryx_u32(carry, u, v, w));

  00515	03 c7		 add	 eax, edi

; 231  :             return (_FROMDWORDTOWORD((_UINT64_T)u * v, w_hi));

  00517	8b f2		 mov	 esi, edx

; 189  :             return (_addcarryx_u32(carry, u, v, w));

  00519	89 01		 mov	 DWORD PTR [ecx], eax
  0051b	b8 00 00 00 00	 mov	 eax, 0
  00520	66 0f 38 f6 f0	 adcx	 esi, eax

; 231  :             return (_FROMDWORDTOWORD((_UINT64_T)u * v, w_hi));

  00525	b8 00 ca 9a 3b	 mov	 eax, 1000000000		; 3b9aca00H
  0052a	f7 61 04	 mul	 DWORD PTR [ecx+4]

; 189  :             return (_addcarryx_u32(carry, u, v, w));

  0052d	03 c6		 add	 eax, esi

; 231  :             return (_FROMDWORDTOWORD((_UINT64_T)u * v, w_hi));

  0052f	8b fa		 mov	 edi, edx

; 189  :             return (_addcarryx_u32(carry, u, v, w));

  00531	89 41 04	 mov	 DWORD PTR [ecx+4], eax
  00534	b8 00 00 00 00	 mov	 eax, 0
  00539	66 0f 38 f6 f8	 adcx	 edi, eax

; 231  :             return (_FROMDWORDTOWORD((_UINT64_T)u * v, w_hi));

  0053e	b8 00 ca 9a 3b	 mov	 eax, 1000000000		; 3b9aca00H
  00543	f7 61 08	 mul	 DWORD PTR [ecx+8]

; 189  :             return (_addcarryx_u32(carry, u, v, w));

  00546	03 c7		 add	 eax, edi

; 231  :             return (_FROMDWORDTOWORD((_UINT64_T)u * v, w_hi));

  00548	8b f2		 mov	 esi, edx

; 189  :             return (_addcarryx_u32(carry, u, v, w));

  0054a	89 41 08	 mov	 DWORD PTR [ecx+8], eax
  0054d	b8 00 00 00 00	 mov	 eax, 0
  00552	66 0f 38 f6 f0	 adcx	 esi, eax

; 231  :             return (_FROMDWORDTOWORD((_UINT64_T)u * v, w_hi));

  00557	b8 00 ca 9a 3b	 mov	 eax, 1000000000		; 3b9aca00H
  0055c	f7 61 0c	 mul	 DWORD PTR [ecx+12]

; 189  :             return (_addcarryx_u32(carry, u, v, w));

  0055f	03 c6		 add	 eax, esi

; 231  :             return (_FROMDWORDTOWORD((_UINT64_T)u * v, w_hi));

  00561	8b fa		 mov	 edi, edx

; 189  :             return (_addcarryx_u32(carry, u, v, w));

  00563	89 41 0c	 mov	 DWORD PTR [ecx+12], eax
  00566	b8 00 00 00 00	 mov	 eax, 0
  0056b	66 0f 38 f6 f8	 adcx	 edi, eax

; 231  :             return (_FROMDWORDTOWORD((_UINT64_T)u * v, w_hi));

  00570	b8 00 ca 9a 3b	 mov	 eax, 1000000000		; 3b9aca00H
  00575	f7 61 10	 mul	 DWORD PTR [ecx+16]

; 189  :             return (_addcarryx_u32(carry, u, v, w));

  00578	03 c7		 add	 eax, edi

; 231  :             return (_FROMDWORDTOWORD((_UINT64_T)u * v, w_hi));

  0057a	8b f2		 mov	 esi, edx

; 189  :             return (_addcarryx_u32(carry, u, v, w));

  0057c	89 41 10	 mov	 DWORD PTR [ecx+16], eax
  0057f	b8 00 00 00 00	 mov	 eax, 0
  00584	66 0f 38 f6 f0	 adcx	 esi, eax

; 231  :             return (_FROMDWORDTOWORD((_UINT64_T)u * v, w_hi));

  00589	b8 00 ca 9a 3b	 mov	 eax, 1000000000		; 3b9aca00H
  0058e	f7 61 14	 mul	 DWORD PTR [ecx+20]

; 189  :             return (_addcarryx_u32(carry, u, v, w));

  00591	03 c6		 add	 eax, esi

; 231  :             return (_FROMDWORDTOWORD((_UINT64_T)u * v, w_hi));

  00593	8b fa		 mov	 edi, edx

; 189  :             return (_addcarryx_u32(carry, u, v, w));

  00595	89 41 14	 mov	 DWORD PTR [ecx+20], eax

; 231  :             return (_FROMDWORDTOWORD((_UINT64_T)u * v, w_hi));

  00598	ba 00 ca 9a 3b	 mov	 edx, 1000000000		; 3b9aca00H

; 189  :             return (_addcarryx_u32(carry, u, v, w));

  0059d	b8 00 00 00 00	 mov	 eax, 0
  005a2	66 0f 38 f6 f8	 adcx	 edi, eax

; 231  :             return (_FROMDWORDTOWORD((_UINT64_T)u * v, w_hi));

  005a7	8b 41 18	 mov	 eax, DWORD PTR [ecx+24]
  005aa	f7 e2		 mul	 edx

; 189  :             return (_addcarryx_u32(carry, u, v, w));

  005ac	03 c7		 add	 eax, edi

; 231  :             return (_FROMDWORDTOWORD((_UINT64_T)u * v, w_hi));

  005ae	8b f2		 mov	 esi, edx

; 189  :             return (_addcarryx_u32(carry, u, v, w));

  005b0	89 41 18	 mov	 DWORD PTR [ecx+24], eax
  005b3	b8 00 00 00 00	 mov	 eax, 0
  005b8	66 0f 38 f6 f0	 adcx	 esi, eax

; 231  :             return (_FROMDWORDTOWORD((_UINT64_T)u * v, w_hi));

  005bd	b8 00 ca 9a 3b	 mov	 eax, 1000000000		; 3b9aca00H
  005c2	f7 61 1c	 mul	 DWORD PTR [ecx+28]

; 189  :             return (_addcarryx_u32(carry, u, v, w));

  005c5	03 c6		 add	 eax, esi

; 231  :             return (_FROMDWORDTOWORD((_UINT64_T)u * v, w_hi));

  005c7	8b fa		 mov	 edi, edx

; 189  :             return (_addcarryx_u32(carry, u, v, w));

  005c9	89 41 1c	 mov	 DWORD PTR [ecx+28], eax
; File z:\sources\lunor\repos\rougemeilland\palmtree.math.core.uint\palmtree.math.core.uint\pmc_uint_internal.h

; 339  :         _InterlockedExchangeAdd(&statistics_info.COUNT_MULTI32, value);

  005cc	ba 04 00 00 00	 mov	 edx, OFFSET ?statistics_info@Internal@Core@Math@Palmtree@@3U__tag_PMC_STATISTICS_INFO@1234@A+4
; File z:\sources\lunor\repos\rougemeilland\palmtree.math.core.uint\palmtree.math.core.uint\pmc_inline_func.h

; 189  :             return (_addcarryx_u32(carry, u, v, w));

  005d1	b8 00 00 00 00	 mov	 eax, 0
  005d6	66 0f 38 f6 f8	 adcx	 edi, eax
; File z:\sources\lunor\repos\rougemeilland\palmtree.math.core.uint\palmtree.math.core.uint\pmc_parse.cpp

; 889  :             u_buf += 8;

  005db	83 c1 20	 add	 ecx, 32			; 00000020H
; File z:\sources\lunor\repos\rougemeilland\palmtree.math.core.uint\palmtree.math.core.uint\pmc_uint_internal.h

; 339  :         _InterlockedExchangeAdd(&statistics_info.COUNT_MULTI32, value);

  005de	b8 08 00 00 00	 mov	 eax, 8
  005e3	f0 0f c1 02	 lock	  xadd	 DWORD PTR [edx], eax
$LN11@MultiplyAn:
; File z:\sources\lunor\repos\rougemeilland\palmtree.math.core.uint\palmtree.math.core.uint\pmc_parse.cpp

; 898  :         if (u_count & 0x4)

  005e7	f6 c3 04	 test	 bl, 4
  005ea	74 73		 je	 SHORT $LN14@MultiplyAn
; File z:\sources\lunor\repos\rougemeilland\palmtree.math.core.uint\palmtree.math.core.uint\pmc_inline_func.h

; 231  :             return (_FROMDWORDTOWORD((_UINT64_T)u * v, w_hi));

  005ec	b8 00 ca 9a 3b	 mov	 eax, 1000000000		; 3b9aca00H
  005f1	f7 21		 mul	 DWORD PTR [ecx]

; 189  :             return (_addcarryx_u32(carry, u, v, w));

  005f3	03 c7		 add	 eax, edi

; 231  :             return (_FROMDWORDTOWORD((_UINT64_T)u * v, w_hi));

  005f5	8b f2		 mov	 esi, edx

; 189  :             return (_addcarryx_u32(carry, u, v, w));

  005f7	89 01		 mov	 DWORD PTR [ecx], eax
  005f9	b8 00 00 00 00	 mov	 eax, 0
  005fe	66 0f 38 f6 f0	 adcx	 esi, eax

; 231  :             return (_FROMDWORDTOWORD((_UINT64_T)u * v, w_hi));

  00603	b8 00 ca 9a 3b	 mov	 eax, 1000000000		; 3b9aca00H
  00608	f7 61 04	 mul	 DWORD PTR [ecx+4]

; 189  :             return (_addcarryx_u32(carry, u, v, w));

  0060b	03 c6		 add	 eax, esi

; 231  :             return (_FROMDWORDTOWORD((_UINT64_T)u * v, w_hi));

  0060d	8b fa		 mov	 edi, edx

; 189  :             return (_addcarryx_u32(carry, u, v, w));

  0060f	89 41 04	 mov	 DWORD PTR [ecx+4], eax
  00612	b8 00 00 00 00	 mov	 eax, 0
  00617	66 0f 38 f6 f8	 adcx	 edi, eax

; 231  :             return (_FROMDWORDTOWORD((_UINT64_T)u * v, w_hi));

  0061c	b8 00 ca 9a 3b	 mov	 eax, 1000000000		; 3b9aca00H
  00621	f7 61 08	 mul	 DWORD PTR [ecx+8]

; 189  :             return (_addcarryx_u32(carry, u, v, w));

  00624	03 c7		 add	 eax, edi

; 231  :             return (_FROMDWORDTOWORD((_UINT64_T)u * v, w_hi));

  00626	8b f2		 mov	 esi, edx

; 189  :             return (_addcarryx_u32(carry, u, v, w));

  00628	89 41 08	 mov	 DWORD PTR [ecx+8], eax
  0062b	b8 00 00 00 00	 mov	 eax, 0
  00630	66 0f 38 f6 f0	 adcx	 esi, eax

; 231  :             return (_FROMDWORDTOWORD((_UINT64_T)u * v, w_hi));

  00635	b8 00 ca 9a 3b	 mov	 eax, 1000000000		; 3b9aca00H
  0063a	f7 61 0c	 mul	 DWORD PTR [ecx+12]

; 189  :             return (_addcarryx_u32(carry, u, v, w));

  0063d	03 c6		 add	 eax, esi

; 231  :             return (_FROMDWORDTOWORD((_UINT64_T)u * v, w_hi));

  0063f	8b fa		 mov	 edi, edx

; 189  :             return (_addcarryx_u32(carry, u, v, w));

  00641	89 41 0c	 mov	 DWORD PTR [ecx+12], eax
; File z:\sources\lunor\repos\rougemeilland\palmtree.math.core.uint\palmtree.math.core.uint\pmc_uint_internal.h

; 339  :         _InterlockedExchangeAdd(&statistics_info.COUNT_MULTI32, value);

  00644	ba 04 00 00 00	 mov	 edx, OFFSET ?statistics_info@Internal@Core@Math@Palmtree@@3U__tag_PMC_STATISTICS_INFO@1234@A+4
; File z:\sources\lunor\repos\rougemeilland\palmtree.math.core.uint\palmtree.math.core.uint\pmc_inline_func.h

; 189  :             return (_addcarryx_u32(carry, u, v, w));

  00649	b8 00 00 00 00	 mov	 eax, 0
  0064e	66 0f 38 f6 f8	 adcx	 edi, eax
; File z:\sources\lunor\repos\rougemeilland\palmtree.math.core.uint\palmtree.math.core.uint\pmc_parse.cpp

; 904  :             u_buf += 4;

  00653	83 c1 10	 add	 ecx, 16			; 00000010H
; File z:\sources\lunor\repos\rougemeilland\palmtree.math.core.uint\palmtree.math.core.uint\pmc_uint_internal.h

; 339  :         _InterlockedExchangeAdd(&statistics_info.COUNT_MULTI32, value);

  00656	b8 04 00 00 00	 mov	 eax, 4
  0065b	f0 0f c1 02	 lock	  xadd	 DWORD PTR [edx], eax
$LN14@MultiplyAn:
; File z:\sources\lunor\repos\rougemeilland\palmtree.math.core.uint\palmtree.math.core.uint\pmc_parse.cpp

; 913  :         if (u_count & 0x2)

  0065f	f6 c3 02	 test	 bl, 2
  00662	74 41		 je	 SHORT $LN17@MultiplyAn
; File z:\sources\lunor\repos\rougemeilland\palmtree.math.core.uint\palmtree.math.core.uint\pmc_inline_func.h

; 231  :             return (_FROMDWORDTOWORD((_UINT64_T)u * v, w_hi));

  00664	b8 00 ca 9a 3b	 mov	 eax, 1000000000		; 3b9aca00H
  00669	f7 21		 mul	 DWORD PTR [ecx]

; 189  :             return (_addcarryx_u32(carry, u, v, w));

  0066b	03 c7		 add	 eax, edi

; 231  :             return (_FROMDWORDTOWORD((_UINT64_T)u * v, w_hi));

  0066d	8b f2		 mov	 esi, edx

; 189  :             return (_addcarryx_u32(carry, u, v, w));

  0066f	89 01		 mov	 DWORD PTR [ecx], eax
  00671	b8 00 00 00 00	 mov	 eax, 0
  00676	66 0f 38 f6 f0	 adcx	 esi, eax

; 231  :             return (_FROMDWORDTOWORD((_UINT64_T)u * v, w_hi));

  0067b	b8 00 ca 9a 3b	 mov	 eax, 1000000000		; 3b9aca00H
  00680	f7 61 04	 mul	 DWORD PTR [ecx+4]

; 189  :             return (_addcarryx_u32(carry, u, v, w));

  00683	03 c6		 add	 eax, esi

; 231  :             return (_FROMDWORDTOWORD((_UINT64_T)u * v, w_hi));

  00685	8b fa		 mov	 edi, edx

; 189  :             return (_addcarryx_u32(carry, u, v, w));

  00687	89 41 04	 mov	 DWORD PTR [ecx+4], eax
; File z:\sources\lunor\repos\rougemeilland\palmtree.math.core.uint\palmtree.math.core.uint\pmc_uint_internal.h

; 339  :         _InterlockedExchangeAdd(&statistics_info.COUNT_MULTI32, value);

  0068a	ba 04 00 00 00	 mov	 edx, OFFSET ?statistics_info@Internal@Core@Math@Palmtree@@3U__tag_PMC_STATISTICS_INFO@1234@A+4
; File z:\sources\lunor\repos\rougemeilland\palmtree.math.core.uint\palmtree.math.core.uint\pmc_inline_func.h

; 189  :             return (_addcarryx_u32(carry, u, v, w));

  0068f	b8 00 00 00 00	 mov	 eax, 0
  00694	66 0f 38 f6 f8	 adcx	 edi, eax
; File z:\sources\lunor\repos\rougemeilland\palmtree.math.core.uint\palmtree.math.core.uint\pmc_parse.cpp

; 917  :             u_buf += 2;

  00699	83 c1 08	 add	 ecx, 8
; File z:\sources\lunor\repos\rougemeilland\palmtree.math.core.uint\palmtree.math.core.uint\pmc_uint_internal.h

; 339  :         _InterlockedExchangeAdd(&statistics_info.COUNT_MULTI32, value);

  0069c	b8 02 00 00 00	 mov	 eax, 2
  006a1	f0 0f c1 02	 lock	  xadd	 DWORD PTR [edx], eax
$LN17@MultiplyAn:
; File z:\sources\lunor\repos\rougemeilland\palmtree.math.core.uint\palmtree.math.core.uint\pmc_parse.cpp

; 926  :         if (u_count & 0x1)

  006a5	f6 c3 01	 test	 bl, 1
  006a8	74 21		 je	 SHORT $LN20@MultiplyAn
; File z:\sources\lunor\repos\rougemeilland\palmtree.math.core.uint\palmtree.math.core.uint\pmc_inline_func.h

; 231  :             return (_FROMDWORDTOWORD((_UINT64_T)u * v, w_hi));

  006aa	b8 00 ca 9a 3b	 mov	 eax, 1000000000		; 3b9aca00H
  006af	f7 21		 mul	 DWORD PTR [ecx]

; 189  :             return (_addcarryx_u32(carry, u, v, w));

  006b1	03 c7		 add	 eax, edi
  006b3	8b fa		 mov	 edi, edx
  006b5	89 01		 mov	 DWORD PTR [ecx], eax
  006b7	b8 00 00 00 00	 mov	 eax, 0
  006bc	66 0f 38 f6 f8	 adcx	 edi, eax
; File z:\sources\lunor\repos\rougemeilland\palmtree.math.core.uint\palmtree.math.core.uint\pmc_parse.cpp

; 929  :             u_buf += 1;

  006c1	83 c1 04	 add	 ecx, 4
; File z:\sources\lunor\repos\rougemeilland\palmtree.math.core.uint\palmtree.math.core.uint\pmc_uint_internal.h

; 316  :         _InterlockedIncrement(&statistics_info.COUNT_MULTI32);

  006c4	f0 ff 05 04 00
	00 00		 lock	  inc	 (null) PTR ?statistics_info@Internal@Core@Math@Palmtree@@3U__tag_PMC_STATISTICS_INFO@1234@A+4
$LN20@MultiplyAn:
; File z:\sources\lunor\repos\rougemeilland\palmtree.math.core.uint\palmtree.math.core.uint\pmc_parse.cpp

; 938  :         if (k > 0)

  006cb	85 ff		 test	 edi, edi
  006cd	74 0a		 je	 SHORT $LN680@MultiplyAn

; 939  :         {
; 940  :             u_buf[0] = k;

  006cf	89 39		 mov	 DWORD PTR [ecx], edi

; 941  :             u_buf += 1;

  006d1	8d 41 04	 lea	 eax, DWORD PTR [ecx+4]
  006d4	5f		 pop	 edi

; 942  :         }
; 943  : 
; 944  :         return (u_buf);
; 945  :     }

  006d5	5e		 pop	 esi
  006d6	5b		 pop	 ebx
  006d7	5d		 pop	 ebp
  006d8	c3		 ret	 0
$LN680@MultiplyAn:
  006d9	5f		 pop	 edi
  006da	5e		 pop	 esi
  006db	8b c1		 mov	 eax, ecx
  006dd	5b		 pop	 ebx
  006de	5d		 pop	 ebp
  006df	c3		 ret	 0
?MultiplyAndAdd_using_ADCX_MULX@Internal@Core@Math@Palmtree@@YAPAIPAIII@Z ENDP ; Palmtree::Math::Core::Internal::MultiplyAndAdd_using_ADCX_MULX
_TEXT	ENDS
; Function compile flags: /Ogtp
; File z:\sources\lunor\repos\rougemeilland\palmtree.math.core.uint\palmtree.math.core.uint\pmc_parse.cpp
; File z:\sources\lunor\repos\rougemeilland\palmtree.math.core.uint\palmtree.math.core.uint\pmc_inline_func.h
; File z:\sources\lunor\repos\rougemeilland\palmtree.math.core.uint\palmtree.math.core.uint\pmc_uint_internal.h
; File z:\sources\lunor\repos\rougemeilland\palmtree.math.core.uint\palmtree.math.core.uint\pmc_inline_func.h
; File z:\sources\lunor\repos\rougemeilland\palmtree.math.core.uint\palmtree.math.core.uint\pmc_uint_internal.h
; File z:\sources\lunor\repos\rougemeilland\palmtree.math.core.uint\palmtree.math.core.uint\pmc_parse.cpp
; File z:\sources\lunor\repos\rougemeilland\palmtree.math.core.uint\palmtree.math.core.uint\pmc_uint_internal.h
; File z:\sources\lunor\repos\rougemeilland\palmtree.math.core.uint\palmtree.math.core.uint\pmc_parse.cpp
; File z:\sources\lunor\repos\rougemeilland\palmtree.math.core.uint\palmtree.math.core.uint\pmc_inline_func.h
; File z:\sources\lunor\repos\rougemeilland\palmtree.math.core.uint\palmtree.math.core.uint\pmc_uint_internal.h
; File z:\sources\lunor\repos\rougemeilland\palmtree.math.core.uint\palmtree.math.core.uint\pmc_inline_func.h
; File z:\sources\lunor\repos\rougemeilland\palmtree.math.core.uint\palmtree.math.core.uint\pmc_uint_internal.h
; File z:\sources\lunor\repos\rougemeilland\palmtree.math.core.uint\palmtree.math.core.uint\pmc_parse.cpp
; File z:\sources\lunor\repos\rougemeilland\palmtree.math.core.uint\palmtree.math.core.uint\pmc_uint_internal.h
; File z:\sources\lunor\repos\rougemeilland\palmtree.math.core.uint\palmtree.math.core.uint\pmc_parse.cpp
; File z:\sources\lunor\repos\rougemeilland\palmtree.math.core.uint\palmtree.math.core.uint\pmc_inline_func.h
; File z:\sources\lunor\repos\rougemeilland\palmtree.math.core.uint\palmtree.math.core.uint\pmc_uint_internal.h
; File z:\sources\lunor\repos\rougemeilland\palmtree.math.core.uint\palmtree.math.core.uint\pmc_inline_func.h
; File z:\sources\lunor\repos\rougemeilland\palmtree.math.core.uint\palmtree.math.core.uint\pmc_uint_internal.h
; File z:\sources\lunor\repos\rougemeilland\palmtree.math.core.uint\palmtree.math.core.uint\pmc_parse.cpp
; File z:\sources\lunor\repos\rougemeilland\palmtree.math.core.uint\palmtree.math.core.uint\pmc_uint_internal.h
; File z:\sources\lunor\repos\rougemeilland\palmtree.math.core.uint\palmtree.math.core.uint\pmc_parse.cpp
; File z:\sources\lunor\repos\rougemeilland\palmtree.math.core.uint\palmtree.math.core.uint\pmc_inline_func.h
; File z:\sources\lunor\repos\rougemeilland\palmtree.math.core.uint\palmtree.math.core.uint\pmc_uint_internal.h
; File z:\sources\lunor\repos\rougemeilland\palmtree.math.core.uint\palmtree.math.core.uint\pmc_inline_func.h
; File z:\sources\lunor\repos\rougemeilland\palmtree.math.core.uint\palmtree.math.core.uint\pmc_uint_internal.h
; File z:\sources\lunor\repos\rougemeilland\palmtree.math.core.uint\palmtree.math.core.uint\pmc_parse.cpp
; File z:\sources\lunor\repos\rougemeilland\palmtree.math.core.uint\palmtree.math.core.uint\pmc_uint_internal.h
; File z:\sources\lunor\repos\rougemeilland\palmtree.math.core.uint\palmtree.math.core.uint\pmc_parse.cpp
; File z:\sources\lunor\repos\rougemeilland\palmtree.math.core.uint\palmtree.math.core.uint\pmc_inline_func.h
; File z:\sources\lunor\repos\rougemeilland\palmtree.math.core.uint\palmtree.math.core.uint\pmc_uint_internal.h
; File z:\sources\lunor\repos\rougemeilland\palmtree.math.core.uint\palmtree.math.core.uint\pmc_inline_func.h
; File z:\sources\lunor\repos\rougemeilland\palmtree.math.core.uint\palmtree.math.core.uint\pmc_uint_internal.h
; File z:\sources\lunor\repos\rougemeilland\palmtree.math.core.uint\palmtree.math.core.uint\pmc_parse.cpp
; File z:\sources\lunor\repos\rougemeilland\palmtree.math.core.uint\palmtree.math.core.uint\pmc_uint_internal.h
; File z:\sources\lunor\repos\rougemeilland\palmtree.math.core.uint\palmtree.math.core.uint\pmc_parse.cpp
; File z:\sources\lunor\repos\rougemeilland\palmtree.math.core.uint\palmtree.math.core.uint\pmc_inline_func.h
; File z:\sources\lunor\repos\rougemeilland\palmtree.math.core.uint\palmtree.math.core.uint\pmc_parse.cpp
; File z:\sources\lunor\repos\rougemeilland\palmtree.math.core.uint\palmtree.math.core.uint\pmc_uint_internal.h
; File z:\sources\lunor\repos\rougemeilland\palmtree.math.core.uint\palmtree.math.core.uint\pmc_parse.cpp
;	COMDAT ?MultiplyAndAdd_using_ADC_MUL@Internal@Core@Math@Palmtree@@YAPAIPAIII@Z
_TEXT	SEGMENT
_u_buf$ = 8						; size = 4
_u_count$ = 12						; size = 4
_x$ = 16						; size = 4
?MultiplyAndAdd_using_ADC_MUL@Internal@Core@Math@Palmtree@@YAPAIPAIII@Z PROC ; Palmtree::Math::Core::Internal::MultiplyAndAdd_using_ADC_MUL, COMDAT

; 662  :     {

  00000	55		 push	 ebp
  00001	8b ec		 mov	 ebp, esp

; 665  :         while (count > 0)

  00003	8b 4d 08	 mov	 ecx, DWORD PTR _u_buf$[ebp]
  00006	ba 00 ca 9a 3b	 mov	 edx, 1000000000		; 3b9aca00H
  0000b	53		 push	 ebx
  0000c	8b 5d 0c	 mov	 ebx, DWORD PTR _u_count$[ebp]
  0000f	8b c3		 mov	 eax, ebx
  00011	56		 push	 esi
  00012	c1 e8 05	 shr	 eax, 5
  00015	57		 push	 edi
  00016	8b 7d 10	 mov	 edi, DWORD PTR _x$[ebp]
  00019	85 c0		 test	 eax, eax
  0001b	0f 84 5f 02 00
	00		 je	 $LN3@MultiplyAn
  00021	8b d8		 mov	 ebx, eax
$LL2@MultiplyAn:
; File z:\sources\lunor\repos\rougemeilland\palmtree.math.core.uint\palmtree.math.core.uint\pmc_inline_func.h

; 212  :             return (_FROMDWORDTOWORD((_UINT64_T)u * v, w_hi));

  00023	8b c2		 mov	 eax, edx
  00025	f7 21		 mul	 DWORD PTR [ecx]

; 178  :             return (_addcarry_u32(carry, u, v, w));

  00027	03 c7		 add	 eax, edi

; 212  :             return (_FROMDWORDTOWORD((_UINT64_T)u * v, w_hi));

  00029	8b f2		 mov	 esi, edx

; 178  :             return (_addcarry_u32(carry, u, v, w));

  0002b	89 01		 mov	 DWORD PTR [ecx], eax

; 212  :             return (_FROMDWORDTOWORD((_UINT64_T)u * v, w_hi));

  0002d	b8 00 ca 9a 3b	 mov	 eax, 1000000000		; 3b9aca00H

; 178  :             return (_addcarry_u32(carry, u, v, w));

  00032	83 d6 00	 adc	 esi, 0

; 212  :             return (_FROMDWORDTOWORD((_UINT64_T)u * v, w_hi));

  00035	f7 61 04	 mul	 DWORD PTR [ecx+4]

; 178  :             return (_addcarry_u32(carry, u, v, w));

  00038	03 c6		 add	 eax, esi

; 212  :             return (_FROMDWORDTOWORD((_UINT64_T)u * v, w_hi));

  0003a	8b fa		 mov	 edi, edx

; 178  :             return (_addcarry_u32(carry, u, v, w));

  0003c	89 41 04	 mov	 DWORD PTR [ecx+4], eax

; 212  :             return (_FROMDWORDTOWORD((_UINT64_T)u * v, w_hi));

  0003f	b8 00 ca 9a 3b	 mov	 eax, 1000000000		; 3b9aca00H

; 178  :             return (_addcarry_u32(carry, u, v, w));

  00044	83 d7 00	 adc	 edi, 0

; 212  :             return (_FROMDWORDTOWORD((_UINT64_T)u * v, w_hi));

  00047	f7 61 08	 mul	 DWORD PTR [ecx+8]

; 178  :             return (_addcarry_u32(carry, u, v, w));

  0004a	03 c7		 add	 eax, edi

; 212  :             return (_FROMDWORDTOWORD((_UINT64_T)u * v, w_hi));

  0004c	8b f2		 mov	 esi, edx

; 178  :             return (_addcarry_u32(carry, u, v, w));

  0004e	89 41 08	 mov	 DWORD PTR [ecx+8], eax

; 212  :             return (_FROMDWORDTOWORD((_UINT64_T)u * v, w_hi));

  00051	b8 00 ca 9a 3b	 mov	 eax, 1000000000		; 3b9aca00H

; 178  :             return (_addcarry_u32(carry, u, v, w));

  00056	83 d6 00	 adc	 esi, 0

; 212  :             return (_FROMDWORDTOWORD((_UINT64_T)u * v, w_hi));

  00059	f7 61 0c	 mul	 DWORD PTR [ecx+12]

; 178  :             return (_addcarry_u32(carry, u, v, w));

  0005c	03 c6		 add	 eax, esi

; 212  :             return (_FROMDWORDTOWORD((_UINT64_T)u * v, w_hi));

  0005e	8b fa		 mov	 edi, edx

; 178  :             return (_addcarry_u32(carry, u, v, w));

  00060	89 41 0c	 mov	 DWORD PTR [ecx+12], eax

; 212  :             return (_FROMDWORDTOWORD((_UINT64_T)u * v, w_hi));

  00063	b8 00 ca 9a 3b	 mov	 eax, 1000000000		; 3b9aca00H

; 178  :             return (_addcarry_u32(carry, u, v, w));

  00068	83 d7 00	 adc	 edi, 0

; 212  :             return (_FROMDWORDTOWORD((_UINT64_T)u * v, w_hi));

  0006b	f7 61 10	 mul	 DWORD PTR [ecx+16]

; 178  :             return (_addcarry_u32(carry, u, v, w));

  0006e	03 c7		 add	 eax, edi

; 212  :             return (_FROMDWORDTOWORD((_UINT64_T)u * v, w_hi));

  00070	8b f2		 mov	 esi, edx

; 178  :             return (_addcarry_u32(carry, u, v, w));

  00072	89 41 10	 mov	 DWORD PTR [ecx+16], eax

; 212  :             return (_FROMDWORDTOWORD((_UINT64_T)u * v, w_hi));

  00075	b8 00 ca 9a 3b	 mov	 eax, 1000000000		; 3b9aca00H

; 178  :             return (_addcarry_u32(carry, u, v, w));

  0007a	83 d6 00	 adc	 esi, 0

; 212  :             return (_FROMDWORDTOWORD((_UINT64_T)u * v, w_hi));

  0007d	f7 61 14	 mul	 DWORD PTR [ecx+20]

; 178  :             return (_addcarry_u32(carry, u, v, w));

  00080	03 c6		 add	 eax, esi

; 212  :             return (_FROMDWORDTOWORD((_UINT64_T)u * v, w_hi));

  00082	8b fa		 mov	 edi, edx

; 178  :             return (_addcarry_u32(carry, u, v, w));

  00084	89 41 14	 mov	 DWORD PTR [ecx+20], eax

; 212  :             return (_FROMDWORDTOWORD((_UINT64_T)u * v, w_hi));

  00087	b8 00 ca 9a 3b	 mov	 eax, 1000000000		; 3b9aca00H

; 178  :             return (_addcarry_u32(carry, u, v, w));

  0008c	83 d7 00	 adc	 edi, 0

; 212  :             return (_FROMDWORDTOWORD((_UINT64_T)u * v, w_hi));

  0008f	f7 61 18	 mul	 DWORD PTR [ecx+24]

; 178  :             return (_addcarry_u32(carry, u, v, w));

  00092	03 c7		 add	 eax, edi

; 212  :             return (_FROMDWORDTOWORD((_UINT64_T)u * v, w_hi));

  00094	8b f2		 mov	 esi, edx

; 178  :             return (_addcarry_u32(carry, u, v, w));

  00096	89 41 18	 mov	 DWORD PTR [ecx+24], eax

; 212  :             return (_FROMDWORDTOWORD((_UINT64_T)u * v, w_hi));

  00099	b8 00 ca 9a 3b	 mov	 eax, 1000000000		; 3b9aca00H

; 178  :             return (_addcarry_u32(carry, u, v, w));

  0009e	83 d6 00	 adc	 esi, 0

; 212  :             return (_FROMDWORDTOWORD((_UINT64_T)u * v, w_hi));

  000a1	f7 61 1c	 mul	 DWORD PTR [ecx+28]

; 178  :             return (_addcarry_u32(carry, u, v, w));

  000a4	03 c6		 add	 eax, esi

; 212  :             return (_FROMDWORDTOWORD((_UINT64_T)u * v, w_hi));

  000a6	8b fa		 mov	 edi, edx

; 178  :             return (_addcarry_u32(carry, u, v, w));

  000a8	89 41 1c	 mov	 DWORD PTR [ecx+28], eax

; 212  :             return (_FROMDWORDTOWORD((_UINT64_T)u * v, w_hi));

  000ab	b8 00 ca 9a 3b	 mov	 eax, 1000000000		; 3b9aca00H

; 178  :             return (_addcarry_u32(carry, u, v, w));

  000b0	83 d7 00	 adc	 edi, 0

; 212  :             return (_FROMDWORDTOWORD((_UINT64_T)u * v, w_hi));

  000b3	f7 61 20	 mul	 DWORD PTR [ecx+32]

; 178  :             return (_addcarry_u32(carry, u, v, w));

  000b6	03 c7		 add	 eax, edi

; 212  :             return (_FROMDWORDTOWORD((_UINT64_T)u * v, w_hi));

  000b8	8b f2		 mov	 esi, edx

; 178  :             return (_addcarry_u32(carry, u, v, w));

  000ba	89 41 20	 mov	 DWORD PTR [ecx+32], eax

; 212  :             return (_FROMDWORDTOWORD((_UINT64_T)u * v, w_hi));

  000bd	b8 00 ca 9a 3b	 mov	 eax, 1000000000		; 3b9aca00H

; 178  :             return (_addcarry_u32(carry, u, v, w));

  000c2	83 d6 00	 adc	 esi, 0

; 212  :             return (_FROMDWORDTOWORD((_UINT64_T)u * v, w_hi));

  000c5	f7 61 24	 mul	 DWORD PTR [ecx+36]

; 178  :             return (_addcarry_u32(carry, u, v, w));

  000c8	03 c6		 add	 eax, esi

; 212  :             return (_FROMDWORDTOWORD((_UINT64_T)u * v, w_hi));

  000ca	8b fa		 mov	 edi, edx

; 178  :             return (_addcarry_u32(carry, u, v, w));

  000cc	89 41 24	 mov	 DWORD PTR [ecx+36], eax

; 212  :             return (_FROMDWORDTOWORD((_UINT64_T)u * v, w_hi));

  000cf	b8 00 ca 9a 3b	 mov	 eax, 1000000000		; 3b9aca00H

; 178  :             return (_addcarry_u32(carry, u, v, w));

  000d4	83 d7 00	 adc	 edi, 0

; 212  :             return (_FROMDWORDTOWORD((_UINT64_T)u * v, w_hi));

  000d7	f7 61 28	 mul	 DWORD PTR [ecx+40]

; 178  :             return (_addcarry_u32(carry, u, v, w));

  000da	03 c7		 add	 eax, edi

; 212  :             return (_FROMDWORDTOWORD((_UINT64_T)u * v, w_hi));

  000dc	8b f2		 mov	 esi, edx

; 178  :             return (_addcarry_u32(carry, u, v, w));

  000de	89 41 28	 mov	 DWORD PTR [ecx+40], eax

; 212  :             return (_FROMDWORDTOWORD((_UINT64_T)u * v, w_hi));

  000e1	b8 00 ca 9a 3b	 mov	 eax, 1000000000		; 3b9aca00H

; 178  :             return (_addcarry_u32(carry, u, v, w));

  000e6	83 d6 00	 adc	 esi, 0

; 212  :             return (_FROMDWORDTOWORD((_UINT64_T)u * v, w_hi));

  000e9	f7 61 2c	 mul	 DWORD PTR [ecx+44]

; 178  :             return (_addcarry_u32(carry, u, v, w));

  000ec	03 c6		 add	 eax, esi

; 212  :             return (_FROMDWORDTOWORD((_UINT64_T)u * v, w_hi));

  000ee	8b fa		 mov	 edi, edx

; 178  :             return (_addcarry_u32(carry, u, v, w));

  000f0	89 41 2c	 mov	 DWORD PTR [ecx+44], eax

; 212  :             return (_FROMDWORDTOWORD((_UINT64_T)u * v, w_hi));

  000f3	b8 00 ca 9a 3b	 mov	 eax, 1000000000		; 3b9aca00H

; 178  :             return (_addcarry_u32(carry, u, v, w));

  000f8	83 d7 00	 adc	 edi, 0

; 212  :             return (_FROMDWORDTOWORD((_UINT64_T)u * v, w_hi));

  000fb	f7 61 30	 mul	 DWORD PTR [ecx+48]

; 178  :             return (_addcarry_u32(carry, u, v, w));

  000fe	03 c7		 add	 eax, edi

; 212  :             return (_FROMDWORDTOWORD((_UINT64_T)u * v, w_hi));

  00100	8b f2		 mov	 esi, edx

; 178  :             return (_addcarry_u32(carry, u, v, w));

  00102	89 41 30	 mov	 DWORD PTR [ecx+48], eax

; 212  :             return (_FROMDWORDTOWORD((_UINT64_T)u * v, w_hi));

  00105	b8 00 ca 9a 3b	 mov	 eax, 1000000000		; 3b9aca00H

; 178  :             return (_addcarry_u32(carry, u, v, w));

  0010a	83 d6 00	 adc	 esi, 0

; 212  :             return (_FROMDWORDTOWORD((_UINT64_T)u * v, w_hi));

  0010d	f7 61 34	 mul	 DWORD PTR [ecx+52]
  00110	8b fa		 mov	 edi, edx

; 178  :             return (_addcarry_u32(carry, u, v, w));

  00112	03 c6		 add	 eax, esi
  00114	89 41 34	 mov	 DWORD PTR [ecx+52], eax

; 212  :             return (_FROMDWORDTOWORD((_UINT64_T)u * v, w_hi));

  00117	b8 00 ca 9a 3b	 mov	 eax, 1000000000		; 3b9aca00H

; 178  :             return (_addcarry_u32(carry, u, v, w));

  0011c	83 d7 00	 adc	 edi, 0

; 212  :             return (_FROMDWORDTOWORD((_UINT64_T)u * v, w_hi));

  0011f	f7 61 38	 mul	 DWORD PTR [ecx+56]

; 178  :             return (_addcarry_u32(carry, u, v, w));

  00122	03 c7		 add	 eax, edi

; 212  :             return (_FROMDWORDTOWORD((_UINT64_T)u * v, w_hi));

  00124	8b f2		 mov	 esi, edx

; 178  :             return (_addcarry_u32(carry, u, v, w));

  00126	89 41 38	 mov	 DWORD PTR [ecx+56], eax

; 212  :             return (_FROMDWORDTOWORD((_UINT64_T)u * v, w_hi));

  00129	b8 00 ca 9a 3b	 mov	 eax, 1000000000		; 3b9aca00H

; 178  :             return (_addcarry_u32(carry, u, v, w));

  0012e	83 d6 00	 adc	 esi, 0

; 212  :             return (_FROMDWORDTOWORD((_UINT64_T)u * v, w_hi));

  00131	f7 61 3c	 mul	 DWORD PTR [ecx+60]

; 178  :             return (_addcarry_u32(carry, u, v, w));

  00134	03 c6		 add	 eax, esi

; 212  :             return (_FROMDWORDTOWORD((_UINT64_T)u * v, w_hi));

  00136	8b fa		 mov	 edi, edx

; 178  :             return (_addcarry_u32(carry, u, v, w));

  00138	89 41 3c	 mov	 DWORD PTR [ecx+60], eax

; 212  :             return (_FROMDWORDTOWORD((_UINT64_T)u * v, w_hi));

  0013b	b8 00 ca 9a 3b	 mov	 eax, 1000000000		; 3b9aca00H

; 178  :             return (_addcarry_u32(carry, u, v, w));

  00140	83 d7 00	 adc	 edi, 0

; 212  :             return (_FROMDWORDTOWORD((_UINT64_T)u * v, w_hi));

  00143	f7 61 40	 mul	 DWORD PTR [ecx+64]

; 178  :             return (_addcarry_u32(carry, u, v, w));

  00146	03 c7		 add	 eax, edi

; 212  :             return (_FROMDWORDTOWORD((_UINT64_T)u * v, w_hi));

  00148	8b f2		 mov	 esi, edx

; 178  :             return (_addcarry_u32(carry, u, v, w));

  0014a	89 41 40	 mov	 DWORD PTR [ecx+64], eax

; 212  :             return (_FROMDWORDTOWORD((_UINT64_T)u * v, w_hi));

  0014d	b8 00 ca 9a 3b	 mov	 eax, 1000000000		; 3b9aca00H

; 178  :             return (_addcarry_u32(carry, u, v, w));

  00152	83 d6 00	 adc	 esi, 0

; 212  :             return (_FROMDWORDTOWORD((_UINT64_T)u * v, w_hi));

  00155	f7 61 44	 mul	 DWORD PTR [ecx+68]

; 178  :             return (_addcarry_u32(carry, u, v, w));

  00158	03 c6		 add	 eax, esi

; 212  :             return (_FROMDWORDTOWORD((_UINT64_T)u * v, w_hi));

  0015a	8b fa		 mov	 edi, edx

; 178  :             return (_addcarry_u32(carry, u, v, w));

  0015c	89 41 44	 mov	 DWORD PTR [ecx+68], eax

; 212  :             return (_FROMDWORDTOWORD((_UINT64_T)u * v, w_hi));

  0015f	b8 00 ca 9a 3b	 mov	 eax, 1000000000		; 3b9aca00H

; 178  :             return (_addcarry_u32(carry, u, v, w));

  00164	83 d7 00	 adc	 edi, 0

; 212  :             return (_FROMDWORDTOWORD((_UINT64_T)u * v, w_hi));

  00167	f7 61 48	 mul	 DWORD PTR [ecx+72]

; 178  :             return (_addcarry_u32(carry, u, v, w));

  0016a	03 c7		 add	 eax, edi

; 212  :             return (_FROMDWORDTOWORD((_UINT64_T)u * v, w_hi));

  0016c	8b f2		 mov	 esi, edx

; 178  :             return (_addcarry_u32(carry, u, v, w));

  0016e	89 41 48	 mov	 DWORD PTR [ecx+72], eax

; 212  :             return (_FROMDWORDTOWORD((_UINT64_T)u * v, w_hi));

  00171	b8 00 ca 9a 3b	 mov	 eax, 1000000000		; 3b9aca00H

; 178  :             return (_addcarry_u32(carry, u, v, w));

  00176	83 d6 00	 adc	 esi, 0

; 212  :             return (_FROMDWORDTOWORD((_UINT64_T)u * v, w_hi));

  00179	f7 61 4c	 mul	 DWORD PTR [ecx+76]

; 178  :             return (_addcarry_u32(carry, u, v, w));

  0017c	03 c6		 add	 eax, esi

; 212  :             return (_FROMDWORDTOWORD((_UINT64_T)u * v, w_hi));

  0017e	8b fa		 mov	 edi, edx

; 178  :             return (_addcarry_u32(carry, u, v, w));

  00180	89 41 4c	 mov	 DWORD PTR [ecx+76], eax

; 212  :             return (_FROMDWORDTOWORD((_UINT64_T)u * v, w_hi));

  00183	b8 00 ca 9a 3b	 mov	 eax, 1000000000		; 3b9aca00H

; 178  :             return (_addcarry_u32(carry, u, v, w));

  00188	83 d7 00	 adc	 edi, 0

; 212  :             return (_FROMDWORDTOWORD((_UINT64_T)u * v, w_hi));

  0018b	f7 61 50	 mul	 DWORD PTR [ecx+80]

; 178  :             return (_addcarry_u32(carry, u, v, w));

  0018e	03 c7		 add	 eax, edi

; 212  :             return (_FROMDWORDTOWORD((_UINT64_T)u * v, w_hi));

  00190	8b f2		 mov	 esi, edx

; 178  :             return (_addcarry_u32(carry, u, v, w));

  00192	89 41 50	 mov	 DWORD PTR [ecx+80], eax

; 212  :             return (_FROMDWORDTOWORD((_UINT64_T)u * v, w_hi));

  00195	b8 00 ca 9a 3b	 mov	 eax, 1000000000		; 3b9aca00H

; 178  :             return (_addcarry_u32(carry, u, v, w));

  0019a	83 d6 00	 adc	 esi, 0

; 212  :             return (_FROMDWORDTOWORD((_UINT64_T)u * v, w_hi));

  0019d	f7 61 54	 mul	 DWORD PTR [ecx+84]

; 178  :             return (_addcarry_u32(carry, u, v, w));

  001a0	03 c6		 add	 eax, esi

; 212  :             return (_FROMDWORDTOWORD((_UINT64_T)u * v, w_hi));

  001a2	8b fa		 mov	 edi, edx

; 178  :             return (_addcarry_u32(carry, u, v, w));

  001a4	89 41 54	 mov	 DWORD PTR [ecx+84], eax

; 212  :             return (_FROMDWORDTOWORD((_UINT64_T)u * v, w_hi));

  001a7	b8 00 ca 9a 3b	 mov	 eax, 1000000000		; 3b9aca00H

; 178  :             return (_addcarry_u32(carry, u, v, w));

  001ac	83 d7 00	 adc	 edi, 0

; 212  :             return (_FROMDWORDTOWORD((_UINT64_T)u * v, w_hi));

  001af	f7 61 58	 mul	 DWORD PTR [ecx+88]

; 178  :             return (_addcarry_u32(carry, u, v, w));

  001b2	03 c7		 add	 eax, edi

; 212  :             return (_FROMDWORDTOWORD((_UINT64_T)u * v, w_hi));

  001b4	8b f2		 mov	 esi, edx

; 178  :             return (_addcarry_u32(carry, u, v, w));

  001b6	89 41 58	 mov	 DWORD PTR [ecx+88], eax

; 212  :             return (_FROMDWORDTOWORD((_UINT64_T)u * v, w_hi));

  001b9	b8 00 ca 9a 3b	 mov	 eax, 1000000000		; 3b9aca00H

; 178  :             return (_addcarry_u32(carry, u, v, w));

  001be	83 d6 00	 adc	 esi, 0

; 212  :             return (_FROMDWORDTOWORD((_UINT64_T)u * v, w_hi));

  001c1	f7 61 5c	 mul	 DWORD PTR [ecx+92]

; 178  :             return (_addcarry_u32(carry, u, v, w));

  001c4	03 c6		 add	 eax, esi

; 212  :             return (_FROMDWORDTOWORD((_UINT64_T)u * v, w_hi));

  001c6	8b fa		 mov	 edi, edx

; 178  :             return (_addcarry_u32(carry, u, v, w));

  001c8	89 41 5c	 mov	 DWORD PTR [ecx+92], eax

; 212  :             return (_FROMDWORDTOWORD((_UINT64_T)u * v, w_hi));

  001cb	b8 00 ca 9a 3b	 mov	 eax, 1000000000		; 3b9aca00H

; 178  :             return (_addcarry_u32(carry, u, v, w));

  001d0	83 d7 00	 adc	 edi, 0

; 212  :             return (_FROMDWORDTOWORD((_UINT64_T)u * v, w_hi));

  001d3	f7 61 60	 mul	 DWORD PTR [ecx+96]

; 178  :             return (_addcarry_u32(carry, u, v, w));

  001d6	03 c7		 add	 eax, edi

; 212  :             return (_FROMDWORDTOWORD((_UINT64_T)u * v, w_hi));

  001d8	8b f2		 mov	 esi, edx

; 178  :             return (_addcarry_u32(carry, u, v, w));

  001da	89 41 60	 mov	 DWORD PTR [ecx+96], eax

; 212  :             return (_FROMDWORDTOWORD((_UINT64_T)u * v, w_hi));

  001dd	b8 00 ca 9a 3b	 mov	 eax, 1000000000		; 3b9aca00H

; 178  :             return (_addcarry_u32(carry, u, v, w));

  001e2	83 d6 00	 adc	 esi, 0

; 212  :             return (_FROMDWORDTOWORD((_UINT64_T)u * v, w_hi));

  001e5	f7 61 64	 mul	 DWORD PTR [ecx+100]

; 178  :             return (_addcarry_u32(carry, u, v, w));

  001e8	03 c6		 add	 eax, esi

; 212  :             return (_FROMDWORDTOWORD((_UINT64_T)u * v, w_hi));

  001ea	8b fa		 mov	 edi, edx

; 178  :             return (_addcarry_u32(carry, u, v, w));

  001ec	89 41 64	 mov	 DWORD PTR [ecx+100], eax

; 212  :             return (_FROMDWORDTOWORD((_UINT64_T)u * v, w_hi));

  001ef	b8 00 ca 9a 3b	 mov	 eax, 1000000000		; 3b9aca00H

; 178  :             return (_addcarry_u32(carry, u, v, w));

  001f4	83 d7 00	 adc	 edi, 0

; 212  :             return (_FROMDWORDTOWORD((_UINT64_T)u * v, w_hi));

  001f7	f7 61 68	 mul	 DWORD PTR [ecx+104]

; 178  :             return (_addcarry_u32(carry, u, v, w));

  001fa	03 c7		 add	 eax, edi

; 212  :             return (_FROMDWORDTOWORD((_UINT64_T)u * v, w_hi));

  001fc	8b f2		 mov	 esi, edx

; 178  :             return (_addcarry_u32(carry, u, v, w));

  001fe	89 41 68	 mov	 DWORD PTR [ecx+104], eax
  00201	83 d6 00	 adc	 esi, 0

; 212  :             return (_FROMDWORDTOWORD((_UINT64_T)u * v, w_hi));

  00204	b8 00 ca 9a 3b	 mov	 eax, 1000000000		; 3b9aca00H
  00209	f7 61 6c	 mul	 DWORD PTR [ecx+108]

; 178  :             return (_addcarry_u32(carry, u, v, w));

  0020c	03 c6		 add	 eax, esi

; 212  :             return (_FROMDWORDTOWORD((_UINT64_T)u * v, w_hi));

  0020e	8b fa		 mov	 edi, edx

; 178  :             return (_addcarry_u32(carry, u, v, w));

  00210	89 41 6c	 mov	 DWORD PTR [ecx+108], eax

; 212  :             return (_FROMDWORDTOWORD((_UINT64_T)u * v, w_hi));

  00213	b8 00 ca 9a 3b	 mov	 eax, 1000000000		; 3b9aca00H

; 178  :             return (_addcarry_u32(carry, u, v, w));

  00218	83 d7 00	 adc	 edi, 0

; 212  :             return (_FROMDWORDTOWORD((_UINT64_T)u * v, w_hi));

  0021b	f7 61 70	 mul	 DWORD PTR [ecx+112]

; 178  :             return (_addcarry_u32(carry, u, v, w));

  0021e	03 c7		 add	 eax, edi

; 212  :             return (_FROMDWORDTOWORD((_UINT64_T)u * v, w_hi));

  00220	8b f2		 mov	 esi, edx

; 178  :             return (_addcarry_u32(carry, u, v, w));

  00222	89 41 70	 mov	 DWORD PTR [ecx+112], eax

; 212  :             return (_FROMDWORDTOWORD((_UINT64_T)u * v, w_hi));

  00225	b8 00 ca 9a 3b	 mov	 eax, 1000000000		; 3b9aca00H

; 178  :             return (_addcarry_u32(carry, u, v, w));

  0022a	83 d6 00	 adc	 esi, 0

; 212  :             return (_FROMDWORDTOWORD((_UINT64_T)u * v, w_hi));

  0022d	f7 61 74	 mul	 DWORD PTR [ecx+116]

; 178  :             return (_addcarry_u32(carry, u, v, w));

  00230	03 c6		 add	 eax, esi

; 212  :             return (_FROMDWORDTOWORD((_UINT64_T)u * v, w_hi));

  00232	8b fa		 mov	 edi, edx

; 178  :             return (_addcarry_u32(carry, u, v, w));

  00234	89 41 74	 mov	 DWORD PTR [ecx+116], eax

; 212  :             return (_FROMDWORDTOWORD((_UINT64_T)u * v, w_hi));

  00237	b8 00 ca 9a 3b	 mov	 eax, 1000000000		; 3b9aca00H

; 178  :             return (_addcarry_u32(carry, u, v, w));

  0023c	83 d7 00	 adc	 edi, 0

; 212  :             return (_FROMDWORDTOWORD((_UINT64_T)u * v, w_hi));

  0023f	f7 61 78	 mul	 DWORD PTR [ecx+120]

; 178  :             return (_addcarry_u32(carry, u, v, w));

  00242	03 c7		 add	 eax, edi

; 212  :             return (_FROMDWORDTOWORD((_UINT64_T)u * v, w_hi));

  00244	8b f2		 mov	 esi, edx

; 178  :             return (_addcarry_u32(carry, u, v, w));

  00246	89 41 78	 mov	 DWORD PTR [ecx+120], eax

; 212  :             return (_FROMDWORDTOWORD((_UINT64_T)u * v, w_hi));

  00249	b8 00 ca 9a 3b	 mov	 eax, 1000000000		; 3b9aca00H

; 178  :             return (_addcarry_u32(carry, u, v, w));

  0024e	83 d6 00	 adc	 esi, 0

; 212  :             return (_FROMDWORDTOWORD((_UINT64_T)u * v, w_hi));

  00251	f7 61 7c	 mul	 DWORD PTR [ecx+124]

; 178  :             return (_addcarry_u32(carry, u, v, w));

  00254	03 c6		 add	 eax, esi

; 212  :             return (_FROMDWORDTOWORD((_UINT64_T)u * v, w_hi));

  00256	8b fa		 mov	 edi, edx

; 178  :             return (_addcarry_u32(carry, u, v, w));

  00258	89 41 7c	 mov	 DWORD PTR [ecx+124], eax
; File z:\sources\lunor\repos\rougemeilland\palmtree.math.core.uint\palmtree.math.core.uint\pmc_uint_internal.h

; 339  :         _InterlockedExchangeAdd(&statistics_info.COUNT_MULTI32, value);

  0025b	ba 04 00 00 00	 mov	 edx, OFFSET ?statistics_info@Internal@Core@Math@Palmtree@@3U__tag_PMC_STATISTICS_INFO@1234@A+4
; File z:\sources\lunor\repos\rougemeilland\palmtree.math.core.uint\palmtree.math.core.uint\pmc_inline_func.h

; 178  :             return (_addcarry_u32(carry, u, v, w));

  00260	83 d7 00	 adc	 edi, 0
; File z:\sources\lunor\repos\rougemeilland\palmtree.math.core.uint\palmtree.math.core.uint\pmc_uint_internal.h

; 339  :         _InterlockedExchangeAdd(&statistics_info.COUNT_MULTI32, value);

  00263	b8 20 00 00 00	 mov	 eax, 32			; 00000020H
; File z:\sources\lunor\repos\rougemeilland\palmtree.math.core.uint\palmtree.math.core.uint\pmc_parse.cpp

; 699  :             u_buf += 32;

  00268	83 e9 80	 sub	 ecx, -128		; ffffff80H
; File z:\sources\lunor\repos\rougemeilland\palmtree.math.core.uint\palmtree.math.core.uint\pmc_uint_internal.h

; 339  :         _InterlockedExchangeAdd(&statistics_info.COUNT_MULTI32, value);

  0026b	f0 0f c1 02	 lock	  xadd	 DWORD PTR [edx], eax
; File z:\sources\lunor\repos\rougemeilland\palmtree.math.core.uint\palmtree.math.core.uint\pmc_parse.cpp

; 665  :         while (count > 0)

  0026f	ba 00 ca 9a 3b	 mov	 edx, 1000000000		; 3b9aca00H

; 700  :             --count;

  00274	83 eb 01	 sub	 ebx, 1
  00277	0f 85 a6 fd ff
	ff		 jne	 $LL2@MultiplyAn

; 665  :         while (count > 0)

  0027d	8b 5d 0c	 mov	 ebx, DWORD PTR _u_count$[ebp]
$LN3@MultiplyAn:

; 701  : #ifdef ENABLED_PERFORMANCE_COUNTER
; 702  :             if (sizeof(k) == sizeof(_UINT32_T))
; 703  :                 AddToMULTI32Counter(32);
; 704  :             else
; 705  :                 AddToMULTI64Counter(32);
; 706  : #endif
; 707  :         }
; 708  : 
; 709  :         if (u_count & 0x10)

  00280	f6 c3 10	 test	 bl, 16			; 00000010H
  00283	0f 84 2c 01 00
	00		 je	 $LN8@MultiplyAn
; File z:\sources\lunor\repos\rougemeilland\palmtree.math.core.uint\palmtree.math.core.uint\pmc_inline_func.h

; 212  :             return (_FROMDWORDTOWORD((_UINT64_T)u * v, w_hi));

  00289	8b c2		 mov	 eax, edx
  0028b	f7 21		 mul	 DWORD PTR [ecx]

; 178  :             return (_addcarry_u32(carry, u, v, w));

  0028d	03 c7		 add	 eax, edi

; 212  :             return (_FROMDWORDTOWORD((_UINT64_T)u * v, w_hi));

  0028f	8b f2		 mov	 esi, edx

; 178  :             return (_addcarry_u32(carry, u, v, w));

  00291	89 01		 mov	 DWORD PTR [ecx], eax

; 212  :             return (_FROMDWORDTOWORD((_UINT64_T)u * v, w_hi));

  00293	b8 00 ca 9a 3b	 mov	 eax, 1000000000		; 3b9aca00H

; 178  :             return (_addcarry_u32(carry, u, v, w));

  00298	83 d6 00	 adc	 esi, 0

; 212  :             return (_FROMDWORDTOWORD((_UINT64_T)u * v, w_hi));

  0029b	f7 61 04	 mul	 DWORD PTR [ecx+4]

; 178  :             return (_addcarry_u32(carry, u, v, w));

  0029e	03 c6		 add	 eax, esi

; 212  :             return (_FROMDWORDTOWORD((_UINT64_T)u * v, w_hi));

  002a0	8b fa		 mov	 edi, edx

; 178  :             return (_addcarry_u32(carry, u, v, w));

  002a2	89 41 04	 mov	 DWORD PTR [ecx+4], eax

; 212  :             return (_FROMDWORDTOWORD((_UINT64_T)u * v, w_hi));

  002a5	b8 00 ca 9a 3b	 mov	 eax, 1000000000		; 3b9aca00H

; 178  :             return (_addcarry_u32(carry, u, v, w));

  002aa	83 d7 00	 adc	 edi, 0

; 212  :             return (_FROMDWORDTOWORD((_UINT64_T)u * v, w_hi));

  002ad	f7 61 08	 mul	 DWORD PTR [ecx+8]

; 178  :             return (_addcarry_u32(carry, u, v, w));

  002b0	03 c7		 add	 eax, edi

; 212  :             return (_FROMDWORDTOWORD((_UINT64_T)u * v, w_hi));

  002b2	8b f2		 mov	 esi, edx

; 178  :             return (_addcarry_u32(carry, u, v, w));

  002b4	89 41 08	 mov	 DWORD PTR [ecx+8], eax

; 212  :             return (_FROMDWORDTOWORD((_UINT64_T)u * v, w_hi));

  002b7	b8 00 ca 9a 3b	 mov	 eax, 1000000000		; 3b9aca00H

; 178  :             return (_addcarry_u32(carry, u, v, w));

  002bc	83 d6 00	 adc	 esi, 0

; 212  :             return (_FROMDWORDTOWORD((_UINT64_T)u * v, w_hi));

  002bf	f7 61 0c	 mul	 DWORD PTR [ecx+12]

; 178  :             return (_addcarry_u32(carry, u, v, w));

  002c2	03 c6		 add	 eax, esi

; 212  :             return (_FROMDWORDTOWORD((_UINT64_T)u * v, w_hi));

  002c4	8b fa		 mov	 edi, edx

; 178  :             return (_addcarry_u32(carry, u, v, w));

  002c6	89 41 0c	 mov	 DWORD PTR [ecx+12], eax

; 212  :             return (_FROMDWORDTOWORD((_UINT64_T)u * v, w_hi));

  002c9	b8 00 ca 9a 3b	 mov	 eax, 1000000000		; 3b9aca00H

; 178  :             return (_addcarry_u32(carry, u, v, w));

  002ce	83 d7 00	 adc	 edi, 0

; 212  :             return (_FROMDWORDTOWORD((_UINT64_T)u * v, w_hi));

  002d1	f7 61 10	 mul	 DWORD PTR [ecx+16]

; 178  :             return (_addcarry_u32(carry, u, v, w));

  002d4	03 c7		 add	 eax, edi

; 212  :             return (_FROMDWORDTOWORD((_UINT64_T)u * v, w_hi));

  002d6	8b f2		 mov	 esi, edx

; 178  :             return (_addcarry_u32(carry, u, v, w));

  002d8	89 41 10	 mov	 DWORD PTR [ecx+16], eax

; 212  :             return (_FROMDWORDTOWORD((_UINT64_T)u * v, w_hi));

  002db	b8 00 ca 9a 3b	 mov	 eax, 1000000000		; 3b9aca00H

; 178  :             return (_addcarry_u32(carry, u, v, w));

  002e0	83 d6 00	 adc	 esi, 0

; 212  :             return (_FROMDWORDTOWORD((_UINT64_T)u * v, w_hi));

  002e3	f7 61 14	 mul	 DWORD PTR [ecx+20]

; 178  :             return (_addcarry_u32(carry, u, v, w));

  002e6	03 c6		 add	 eax, esi

; 212  :             return (_FROMDWORDTOWORD((_UINT64_T)u * v, w_hi));

  002e8	8b fa		 mov	 edi, edx

; 178  :             return (_addcarry_u32(carry, u, v, w));

  002ea	89 41 14	 mov	 DWORD PTR [ecx+20], eax

; 212  :             return (_FROMDWORDTOWORD((_UINT64_T)u * v, w_hi));

  002ed	b8 00 ca 9a 3b	 mov	 eax, 1000000000		; 3b9aca00H

; 178  :             return (_addcarry_u32(carry, u, v, w));

  002f2	83 d7 00	 adc	 edi, 0

; 212  :             return (_FROMDWORDTOWORD((_UINT64_T)u * v, w_hi));

  002f5	f7 61 18	 mul	 DWORD PTR [ecx+24]

; 178  :             return (_addcarry_u32(carry, u, v, w));

  002f8	03 c7		 add	 eax, edi

; 212  :             return (_FROMDWORDTOWORD((_UINT64_T)u * v, w_hi));

  002fa	8b f2		 mov	 esi, edx

; 178  :             return (_addcarry_u32(carry, u, v, w));

  002fc	89 41 18	 mov	 DWORD PTR [ecx+24], eax

; 212  :             return (_FROMDWORDTOWORD((_UINT64_T)u * v, w_hi));

  002ff	b8 00 ca 9a 3b	 mov	 eax, 1000000000		; 3b9aca00H

; 178  :             return (_addcarry_u32(carry, u, v, w));

  00304	83 d6 00	 adc	 esi, 0

; 212  :             return (_FROMDWORDTOWORD((_UINT64_T)u * v, w_hi));

  00307	f7 61 1c	 mul	 DWORD PTR [ecx+28]

; 178  :             return (_addcarry_u32(carry, u, v, w));

  0030a	03 c6		 add	 eax, esi

; 212  :             return (_FROMDWORDTOWORD((_UINT64_T)u * v, w_hi));

  0030c	8b fa		 mov	 edi, edx

; 178  :             return (_addcarry_u32(carry, u, v, w));

  0030e	89 41 1c	 mov	 DWORD PTR [ecx+28], eax

; 212  :             return (_FROMDWORDTOWORD((_UINT64_T)u * v, w_hi));

  00311	b8 00 ca 9a 3b	 mov	 eax, 1000000000		; 3b9aca00H

; 178  :             return (_addcarry_u32(carry, u, v, w));

  00316	83 d7 00	 adc	 edi, 0

; 212  :             return (_FROMDWORDTOWORD((_UINT64_T)u * v, w_hi));

  00319	f7 61 20	 mul	 DWORD PTR [ecx+32]

; 178  :             return (_addcarry_u32(carry, u, v, w));

  0031c	03 c7		 add	 eax, edi

; 212  :             return (_FROMDWORDTOWORD((_UINT64_T)u * v, w_hi));

  0031e	8b f2		 mov	 esi, edx

; 178  :             return (_addcarry_u32(carry, u, v, w));

  00320	89 41 20	 mov	 DWORD PTR [ecx+32], eax

; 212  :             return (_FROMDWORDTOWORD((_UINT64_T)u * v, w_hi));

  00323	b8 00 ca 9a 3b	 mov	 eax, 1000000000		; 3b9aca00H

; 178  :             return (_addcarry_u32(carry, u, v, w));

  00328	83 d6 00	 adc	 esi, 0

; 212  :             return (_FROMDWORDTOWORD((_UINT64_T)u * v, w_hi));

  0032b	f7 61 24	 mul	 DWORD PTR [ecx+36]

; 178  :             return (_addcarry_u32(carry, u, v, w));

  0032e	03 c6		 add	 eax, esi

; 212  :             return (_FROMDWORDTOWORD((_UINT64_T)u * v, w_hi));

  00330	8b fa		 mov	 edi, edx

; 178  :             return (_addcarry_u32(carry, u, v, w));

  00332	89 41 24	 mov	 DWORD PTR [ecx+36], eax

; 212  :             return (_FROMDWORDTOWORD((_UINT64_T)u * v, w_hi));

  00335	b8 00 ca 9a 3b	 mov	 eax, 1000000000		; 3b9aca00H

; 178  :             return (_addcarry_u32(carry, u, v, w));

  0033a	83 d7 00	 adc	 edi, 0

; 212  :             return (_FROMDWORDTOWORD((_UINT64_T)u * v, w_hi));

  0033d	f7 61 28	 mul	 DWORD PTR [ecx+40]

; 178  :             return (_addcarry_u32(carry, u, v, w));

  00340	03 c7		 add	 eax, edi

; 212  :             return (_FROMDWORDTOWORD((_UINT64_T)u * v, w_hi));

  00342	8b f2		 mov	 esi, edx

; 178  :             return (_addcarry_u32(carry, u, v, w));

  00344	89 41 28	 mov	 DWORD PTR [ecx+40], eax

; 212  :             return (_FROMDWORDTOWORD((_UINT64_T)u * v, w_hi));

  00347	b8 00 ca 9a 3b	 mov	 eax, 1000000000		; 3b9aca00H

; 178  :             return (_addcarry_u32(carry, u, v, w));

  0034c	83 d6 00	 adc	 esi, 0

; 212  :             return (_FROMDWORDTOWORD((_UINT64_T)u * v, w_hi));

  0034f	f7 61 2c	 mul	 DWORD PTR [ecx+44]

; 178  :             return (_addcarry_u32(carry, u, v, w));

  00352	03 c6		 add	 eax, esi

; 212  :             return (_FROMDWORDTOWORD((_UINT64_T)u * v, w_hi));

  00354	8b fa		 mov	 edi, edx

; 178  :             return (_addcarry_u32(carry, u, v, w));

  00356	89 41 2c	 mov	 DWORD PTR [ecx+44], eax

; 212  :             return (_FROMDWORDTOWORD((_UINT64_T)u * v, w_hi));

  00359	b8 00 ca 9a 3b	 mov	 eax, 1000000000		; 3b9aca00H

; 178  :             return (_addcarry_u32(carry, u, v, w));

  0035e	83 d7 00	 adc	 edi, 0

; 212  :             return (_FROMDWORDTOWORD((_UINT64_T)u * v, w_hi));

  00361	f7 61 30	 mul	 DWORD PTR [ecx+48]

; 178  :             return (_addcarry_u32(carry, u, v, w));

  00364	03 c7		 add	 eax, edi

; 212  :             return (_FROMDWORDTOWORD((_UINT64_T)u * v, w_hi));

  00366	8b f2		 mov	 esi, edx

; 178  :             return (_addcarry_u32(carry, u, v, w));

  00368	89 41 30	 mov	 DWORD PTR [ecx+48], eax

; 212  :             return (_FROMDWORDTOWORD((_UINT64_T)u * v, w_hi));

  0036b	b8 00 ca 9a 3b	 mov	 eax, 1000000000		; 3b9aca00H

; 178  :             return (_addcarry_u32(carry, u, v, w));

  00370	83 d6 00	 adc	 esi, 0

; 212  :             return (_FROMDWORDTOWORD((_UINT64_T)u * v, w_hi));

  00373	f7 61 34	 mul	 DWORD PTR [ecx+52]
  00376	8b fa		 mov	 edi, edx

; 178  :             return (_addcarry_u32(carry, u, v, w));

  00378	03 c6		 add	 eax, esi
  0037a	89 41 34	 mov	 DWORD PTR [ecx+52], eax

; 212  :             return (_FROMDWORDTOWORD((_UINT64_T)u * v, w_hi));

  0037d	b8 00 ca 9a 3b	 mov	 eax, 1000000000		; 3b9aca00H

; 178  :             return (_addcarry_u32(carry, u, v, w));

  00382	83 d7 00	 adc	 edi, 0

; 212  :             return (_FROMDWORDTOWORD((_UINT64_T)u * v, w_hi));

  00385	f7 61 38	 mul	 DWORD PTR [ecx+56]

