; Listing generated by Microsoft (R) Optimizing Compiler Version 19.16.27027.1 

	TITLE	Z:\Sources\Lunor\Repos\rougemeilland\Palmtree.Math.Core.Uint\Palmtree.Math.Core.Uint\pmc_subtruct.c
	.686P
	.XMM
	include listing.inc
	.model	flat

INCLUDELIB MSVCRT
INCLUDELIB OLDNAMES

PUBLIC	_Subtruct_Imp
PUBLIC	_Initialize_Subtruct
PUBLIC	_PMC_Subtruct_I_X@12
PUBLIC	_PMC_Subtruct_L_X@16
PUBLIC	_PMC_Subtruct_X_I@12
PUBLIC	_PMC_Subtruct_X_L@16
PUBLIC	_PMC_Subtruct_X_X@12
EXTRN	_CheckBlockLight:PROC
EXTRN	_AllocateNumber:PROC
EXTRN	_DeallocateNumber:PROC
EXTRN	_CommitNumber:PROC
EXTRN	_CheckNumber:PROC
EXTRN	_DuplicateNumber:PROC
EXTRN	_number_zero:BYTE
; Function compile flags: /Ogtp
; File z:\sources\lunor\repos\rougemeilland\palmtree.math.core.uint\palmtree.math.core.uint\pmc_subtruct.c
; File z:\sources\lunor\repos\rougemeilland\palmtree.math.core.uint\palmtree.math.core.uint\pmc_inline_func.h
; File z:\sources\lunor\repos\rougemeilland\palmtree.math.core.uint\palmtree.math.core.uint\pmc_subtruct.c
; File z:\sources\lunor\repos\rougemeilland\palmtree.math.core.uint\palmtree.math.core.uint\pmc_inline_func.h
; File z:\sources\lunor\repos\rougemeilland\palmtree.math.core.uint\palmtree.math.core.uint\pmc_subtruct.c
; File z:\sources\lunor\repos\rougemeilland\palmtree.math.core.uint\palmtree.math.core.uint\pmc_inline_func.h
; File z:\sources\lunor\repos\rougemeilland\palmtree.math.core.uint\palmtree.math.core.uint\pmc_subtruct.c
;	COMDAT _Subtruct_X_2W
_TEXT	SEGMENT
_up$ = 8						; size = 4
_c$1 = 12						; size = 1
_u_count$ = 12						; size = 4
_v_hi$ = 16						; size = 4
_v_lo$ = 20						; size = 4
_wp$ = 24						; size = 4
_w_count$ = 28						; size = 4
_Subtruct_X_2W PROC					; COMDAT

; 91   : {

	push	ebp
	mov	ebp, esp
	push	ebx

; 92   :     if (u_count < 2)

	mov	ebx, DWORD PTR _u_count$[ebp]
	cmp	ebx, 2
	jae	SHORT $LN2@Subtruct_X

; 93   :     {
; 94   :         // u が 1 ワードしかなかった場合
; 95   : 
; 96   :         // 明らかに演算結果が負になるのでエラーを通知する。
; 97   :         return (PMC_STATUS_INTERNAL_BORROW);

	mov	eax, -258				; fffffefeH
	pop	ebx

; 113  :     }
; 114  : }

	pop	ebp
	ret	0
$LN2@Subtruct_X:
	push	esi
; File z:\sources\lunor\repos\rougemeilland\palmtree.math.core.uint\palmtree.math.core.uint\pmc_inline_func.h

; 265  :         return (_subborrow_u32(borrow, u, v, w));

	mov	esi, DWORD PTR _wp$[ebp]
	push	edi
; File z:\sources\lunor\repos\rougemeilland\palmtree.math.core.uint\palmtree.math.core.uint\pmc_subtruct.c

; 104  :         char c = _SUBTRUCT_UNIT(0, *up++, v_lo, wp++);

	mov	edi, DWORD PTR _up$[ebp]
	mov	eax, DWORD PTR [edi]
; File z:\sources\lunor\repos\rougemeilland\palmtree.math.core.uint\palmtree.math.core.uint\pmc_inline_func.h

; 265  :         return (_subborrow_u32(borrow, u, v, w));

	sub	eax, DWORD PTR _v_lo$[ebp]
	mov	DWORD PTR [esi], eax
; File z:\sources\lunor\repos\rougemeilland\palmtree.math.core.uint\palmtree.math.core.uint\pmc_subtruct.c

; 107  :         c = _SUBTRUCT_UNIT(c, *up++, v_hi, wp++);

	mov	ecx, DWORD PTR [edi+4]
; File z:\sources\lunor\repos\rougemeilland\palmtree.math.core.uint\palmtree.math.core.uint\pmc_inline_func.h

; 265  :         return (_subborrow_u32(borrow, u, v, w));

	setb	dl
	add	dl, 255					; 000000ffH
	sbb	ecx, DWORD PTR _v_hi$[ebp]
	mov	DWORD PTR [esi+4], ecx
	setb	al
; File z:\sources\lunor\repos\rougemeilland\palmtree.math.core.uint\palmtree.math.core.uint\pmc_subtruct.c

; 107  :         c = _SUBTRUCT_UNIT(c, *up++, v_hi, wp++);

	mov	BYTE PTR _c$1[ebp], al

; 108  :         u_count -= 2;
; 109  :         w_count -= 2;

	mov	eax, DWORD PTR _w_count$[ebp]
	add	eax, -2					; fffffffeH

; 110  : 
; 111  :         // 残りの桁の繰り上がりを計算し、復帰する。
; 112  :         return (DoBorrow(c, up, u_count, wp, w_count));

	push	eax
	lea	eax, DWORD PTR [esi+8]
	push	eax
	lea	eax, DWORD PTR [ebx-2]
	push	eax
	lea	eax, DWORD PTR [edi+8]
	push	eax
	push	DWORD PTR _c$1[ebp]
	call	_DoBorrow
	add	esp, 20					; 00000014H
	pop	edi
	pop	esi
	pop	ebx

; 113  :     }
; 114  : }

	pop	ebp
	ret	0
_Subtruct_X_2W ENDP
_TEXT	ENDS
; Function compile flags: /Ogtp
; File z:\sources\lunor\repos\rougemeilland\palmtree.math.core.uint\palmtree.math.core.uint\pmc_subtruct.c
; File z:\sources\lunor\repos\rougemeilland\palmtree.math.core.uint\palmtree.math.core.uint\pmc_inline_func.h
; File z:\sources\lunor\repos\rougemeilland\palmtree.math.core.uint\palmtree.math.core.uint\pmc_subtruct.c
; File z:\sources\lunor\repos\rougemeilland\palmtree.math.core.uint\palmtree.math.core.uint\pmc_inline_func.h
; File z:\sources\lunor\repos\rougemeilland\palmtree.math.core.uint\palmtree.math.core.uint\pmc_subtruct.c
;	COMDAT _Subtruct_X_1W
_TEXT	SEGMENT
_c$ = 8							; size = 1
_up$ = 8						; size = 4
_u_count$ = 12						; size = 4
_v$ = 16						; size = 4
_wp$ = 20						; size = 4
_w_count$ = 24						; size = 4
_Subtruct_X_1W PROC					; COMDAT

; 79   : {

	push	ebp
	mov	ebp, esp
; File z:\sources\lunor\repos\rougemeilland\palmtree.math.core.uint\palmtree.math.core.uint\pmc_inline_func.h

; 265  :         return (_subborrow_u32(borrow, u, v, w));

	mov	edx, DWORD PTR _wp$[ebp]
; File z:\sources\lunor\repos\rougemeilland\palmtree.math.core.uint\palmtree.math.core.uint\pmc_subtruct.c

; 79   : {

	push	esi

; 81   :     char c = _SUBTRUCT_UNIT(0, *up++, v, wp++);

	mov	esi, DWORD PTR _up$[ebp]
	mov	ecx, DWORD PTR [esi]
; File z:\sources\lunor\repos\rougemeilland\palmtree.math.core.uint\palmtree.math.core.uint\pmc_inline_func.h

; 265  :         return (_subborrow_u32(borrow, u, v, w));

	sub	ecx, DWORD PTR _v$[ebp]
	mov	DWORD PTR [edx], ecx
	setb	al
; File z:\sources\lunor\repos\rougemeilland\palmtree.math.core.uint\palmtree.math.core.uint\pmc_subtruct.c

; 81   :     char c = _SUBTRUCT_UNIT(0, *up++, v, wp++);

	mov	BYTE PTR _c$[ebp], al

; 82   :     --u_count;
; 83   :     --w_count;

	mov	eax, DWORD PTR _w_count$[ebp]
	dec	eax

; 84   : 
; 85   :     // 残りの桁の繰上りを行い復帰する。
; 86   :     return (DoBorrow(c, up, u_count, wp, w_count));

	push	eax
	lea	eax, DWORD PTR [edx+4]
	push	eax
	mov	eax, DWORD PTR _u_count$[ebp]
	dec	eax
	push	eax
	lea	eax, DWORD PTR [esi+4]
	push	eax
	push	DWORD PTR _c$[ebp]
	call	_DoBorrow
	add	esp, 20					; 00000014H
	pop	esi

; 87   : }

	pop	ebp
	ret	0
_Subtruct_X_1W ENDP
_TEXT	ENDS
; Function compile flags: /Ogtp
; File z:\sources\lunor\repos\rougemeilland\palmtree.math.core.uint\palmtree.math.core.uint\pmc_subtruct.c
; File z:\sources\lunor\repos\rougemeilland\palmtree.math.core.uint\palmtree.math.core.uint\pmc_inline_func.h
; File z:\sources\lunor\repos\rougemeilland\palmtree.math.core.uint\palmtree.math.core.uint\pmc_subtruct.c
;	COMDAT _DoBorrow
_TEXT	SEGMENT
_c$ = 8							; size = 1
_up$ = 12						; size = 4
_u_count$ = 16						; size = 4
_wp$ = 20						; size = 4
_w_count$ = 24						; size = 4
_DoBorrow PROC						; COMDAT

; 33   : {

	push	ebp
	mov	ebp, esp

; 34   :     // 桁借りを続く限り行う
; 35   :     for (;;)
; 36   :     {
; 37   :         if (u_count <= 0)

	mov	edx, DWORD PTR _u_count$[ebp]
	push	ebx
	mov	bl, BYTE PTR _c$[ebp]
	push	esi
	test	edx, edx
	je	SHORT $LN17@DoBorrow
	mov	eax, DWORD PTR _wp$[ebp]
	mov	esi, DWORD PTR _up$[ebp]
$LL2@DoBorrow:

; 47   :             }
; 48   : 
; 49   :             // xの最上位に達してしまった場合はいずれにしろループを中断して正常復帰する。
; 50   : 
; 51   :             return (PMC_STATUS_OK);
; 52   :         }
; 53   :         else if (c)

	test	bl, bl
	je	SHORT $LN16@DoBorrow

; 58   :             c = _SUBTRUCT_UNIT(c, *up++, 0, wp++);

	mov	ecx, DWORD PTR [esi]
; File z:\sources\lunor\repos\rougemeilland\palmtree.math.core.uint\palmtree.math.core.uint\pmc_inline_func.h

; 265  :         return (_subborrow_u32(borrow, u, v, w));

	add	bl, 255					; 000000ffH
	sbb	ecx, 0
	mov	DWORD PTR [eax], ecx
	setb	bl
; File z:\sources\lunor\repos\rougemeilland\palmtree.math.core.uint\palmtree.math.core.uint\pmc_subtruct.c

; 58   :             c = _SUBTRUCT_UNIT(c, *up++, 0, wp++);

	add	esi, 4
	add	eax, 4

; 59   :             --u_count;

	sub	edx, 1
	jne	SHORT $LL2@DoBorrow
$LN17@DoBorrow:

; 38   :         {
; 39   :             // x の最上位まで達してしまった場合
; 40   : 
; 41   :             if (c)

	test	bl, bl
	je	SHORT $LN6@DoBorrow

; 42   :             {
; 43   :                 // かつそれでも桁借りを行う必要がある場合
; 44   : 
; 45   :                 // 減算結果が負になってしまったので呼び出し元に通知する。
; 46   :                 return (PMC_STATUS_INTERNAL_BORROW);

	pop	esi
	mov	eax, -258				; fffffefeH

; 74   :         }
; 75   :     }
; 76   : }

	pop	ebx
	pop	ebp
	ret	0
$LN16@DoBorrow:

; 60   :             --w_count;
; 61   :         }
; 62   :         else
; 63   :         {
; 64   :             // xの最上位に達しておらず、かつボローが立っていない場合
; 65   : 
; 66   :             // 桁借りを中断し、xの残りのデータをzにそのまま複写し、正常復帰する。
; 67   :             while (u_count > 0)

	test	edx, edx
	je	SHORT $LN6@DoBorrow
	sub	esi, eax
$LL5@DoBorrow:

; 68   :             {
; 69   :                 *wp++ = *up++;

	mov	ecx, DWORD PTR [esi+eax]
	lea	eax, DWORD PTR [eax+4]
	mov	DWORD PTR [eax-4], ecx

; 70   :                 --u_count;

	sub	edx, 1
	jne	SHORT $LL5@DoBorrow
$LN6@DoBorrow:
	pop	esi

; 71   :                 --w_count;
; 72   :             }
; 73   :             return (PMC_STATUS_OK);

	xor	eax, eax

; 74   :         }
; 75   :     }
; 76   : }

	pop	ebx
	pop	ebp
	ret	0
_DoBorrow ENDP
_TEXT	ENDS
; Function compile flags: /Ogtp
; File z:\sources\lunor\repos\rougemeilland\palmtree.math.core.uint\palmtree.math.core.uint\autogenerated_inline_func.h
; File z:\sources\lunor\repos\rougemeilland\palmtree.math.core.uint\palmtree.math.core.uint\pmc_inline_func.h
; File z:\sources\lunor\repos\rougemeilland\palmtree.math.core.uint\palmtree.math.core.uint\autogenerated_inline_func.h
; File z:\sources\lunor\repos\rougemeilland\palmtree.math.core.uint\palmtree.math.core.uint\pmc_inline_func.h
; File z:\sources\lunor\repos\rougemeilland\palmtree.math.core.uint\palmtree.math.core.uint\autogenerated_inline_func.h
; File z:\sources\lunor\repos\rougemeilland\palmtree.math.core.uint\palmtree.math.core.uint\pmc_inline_func.h
; File z:\sources\lunor\repos\rougemeilland\palmtree.math.core.uint\palmtree.math.core.uint\autogenerated_inline_func.h
; File z:\sources\lunor\repos\rougemeilland\palmtree.math.core.uint\palmtree.math.core.uint\pmc_inline_func.h
; File z:\sources\lunor\repos\rougemeilland\palmtree.math.core.uint\palmtree.math.core.uint\autogenerated_inline_func.h
; File z:\sources\lunor\repos\rougemeilland\palmtree.math.core.uint\palmtree.math.core.uint\pmc_inline_func.h
; File z:\sources\lunor\repos\rougemeilland\palmtree.math.core.uint\palmtree.math.core.uint\autogenerated_inline_func.h
;	COMDAT __SUBTRUCT_2WORDS_SBB
_TEXT	SEGMENT
_c$ = 8							; size = 1
_xp$ = 12						; size = 4
_yp$ = 16						; size = 4
_zp$ = 20						; size = 4
__SUBTRUCT_2WORDS_SBB PROC				; COMDAT

; 4457 : {

	push	ebp
	mov	ebp, esp

; 4459 :     c = _SUBTRUCT_UNIT(c, xp[0], yp[0], &zp[0]);

	mov	edx, DWORD PTR _xp$[ebp]
; File z:\sources\lunor\repos\rougemeilland\palmtree.math.core.uint\palmtree.math.core.uint\pmc_inline_func.h

; 265  :         return (_subborrow_u32(borrow, u, v, w));

	mov	al, BYTE PTR _c$[ebp]
; File z:\sources\lunor\repos\rougemeilland\palmtree.math.core.uint\palmtree.math.core.uint\autogenerated_inline_func.h

; 4457 : {

	push	esi

; 4459 :     c = _SUBTRUCT_UNIT(c, xp[0], yp[0], &zp[0]);

	mov	esi, DWORD PTR _yp$[ebp]
; File z:\sources\lunor\repos\rougemeilland\palmtree.math.core.uint\palmtree.math.core.uint\pmc_inline_func.h

; 265  :         return (_subborrow_u32(borrow, u, v, w));

	add	al, 255					; 000000ffH
; File z:\sources\lunor\repos\rougemeilland\palmtree.math.core.uint\palmtree.math.core.uint\autogenerated_inline_func.h

; 4459 :     c = _SUBTRUCT_UNIT(c, xp[0], yp[0], &zp[0]);

	mov	ecx, DWORD PTR [edx]
	push	edi
; File z:\sources\lunor\repos\rougemeilland\palmtree.math.core.uint\palmtree.math.core.uint\pmc_inline_func.h

; 265  :         return (_subborrow_u32(borrow, u, v, w));

	mov	edi, DWORD PTR _zp$[ebp]
	sbb	ecx, DWORD PTR [esi]
	mov	DWORD PTR [edi], ecx
; File z:\sources\lunor\repos\rougemeilland\palmtree.math.core.uint\palmtree.math.core.uint\autogenerated_inline_func.h

; 4460 :     c = _SUBTRUCT_UNIT(c, xp[1], yp[1], &zp[1]);

	mov	ecx, DWORD PTR [edx+4]
; File z:\sources\lunor\repos\rougemeilland\palmtree.math.core.uint\palmtree.math.core.uint\pmc_inline_func.h

; 265  :         return (_subborrow_u32(borrow, u, v, w));

	sbb	ecx, DWORD PTR [esi+4]
	mov	DWORD PTR [edi+4], ecx
; File z:\sources\lunor\repos\rougemeilland\palmtree.math.core.uint\palmtree.math.core.uint\autogenerated_inline_func.h

; 4496 :     return (c);

	pop	edi
; File z:\sources\lunor\repos\rougemeilland\palmtree.math.core.uint\palmtree.math.core.uint\pmc_inline_func.h

; 265  :         return (_subborrow_u32(borrow, u, v, w));

	setb	al
; File z:\sources\lunor\repos\rougemeilland\palmtree.math.core.uint\palmtree.math.core.uint\autogenerated_inline_func.h

; 4496 :     return (c);

	pop	esi

; 4497 : }

	pop	ebp
	ret	0
__SUBTRUCT_2WORDS_SBB ENDP
_TEXT	ENDS
; Function compile flags: /Ogtp
; File z:\sources\lunor\repos\rougemeilland\palmtree.math.core.uint\palmtree.math.core.uint\autogenerated_inline_func.h
; File z:\sources\lunor\repos\rougemeilland\palmtree.math.core.uint\palmtree.math.core.uint\pmc_inline_func.h
; File z:\sources\lunor\repos\rougemeilland\palmtree.math.core.uint\palmtree.math.core.uint\autogenerated_inline_func.h
; File z:\sources\lunor\repos\rougemeilland\palmtree.math.core.uint\palmtree.math.core.uint\pmc_inline_func.h
; File z:\sources\lunor\repos\rougemeilland\palmtree.math.core.uint\palmtree.math.core.uint\autogenerated_inline_func.h
; File z:\sources\lunor\repos\rougemeilland\palmtree.math.core.uint\palmtree.math.core.uint\pmc_inline_func.h
; File z:\sources\lunor\repos\rougemeilland\palmtree.math.core.uint\palmtree.math.core.uint\autogenerated_inline_func.h
; File z:\sources\lunor\repos\rougemeilland\palmtree.math.core.uint\palmtree.math.core.uint\pmc_inline_func.h
; File z:\sources\lunor\repos\rougemeilland\palmtree.math.core.uint\palmtree.math.core.uint\autogenerated_inline_func.h
; File z:\sources\lunor\repos\rougemeilland\palmtree.math.core.uint\palmtree.math.core.uint\pmc_inline_func.h
; File z:\sources\lunor\repos\rougemeilland\palmtree.math.core.uint\palmtree.math.core.uint\autogenerated_inline_func.h
; File z:\sources\lunor\repos\rougemeilland\palmtree.math.core.uint\palmtree.math.core.uint\pmc_inline_func.h
; File z:\sources\lunor\repos\rougemeilland\palmtree.math.core.uint\palmtree.math.core.uint\autogenerated_inline_func.h
; File z:\sources\lunor\repos\rougemeilland\palmtree.math.core.uint\palmtree.math.core.uint\pmc_inline_func.h
; File z:\sources\lunor\repos\rougemeilland\palmtree.math.core.uint\palmtree.math.core.uint\autogenerated_inline_func.h
;	COMDAT __SUBTRUCT_4WORDS_SBB
_TEXT	SEGMENT
_c$ = 8							; size = 1
_xp$ = 12						; size = 4
_yp$ = 16						; size = 4
_zp$ = 20						; size = 4
__SUBTRUCT_4WORDS_SBB PROC				; COMDAT

; 4043 : {

	push	ebp
	mov	ebp, esp

; 4045 :     c = _SUBTRUCT_UNIT(c, xp[0], yp[0], &zp[0]);

	mov	edx, DWORD PTR _xp$[ebp]
; File z:\sources\lunor\repos\rougemeilland\palmtree.math.core.uint\palmtree.math.core.uint\pmc_inline_func.h

; 265  :         return (_subborrow_u32(borrow, u, v, w));

	mov	al, BYTE PTR _c$[ebp]
; File z:\sources\lunor\repos\rougemeilland\palmtree.math.core.uint\palmtree.math.core.uint\autogenerated_inline_func.h

; 4043 : {

	push	esi

; 4045 :     c = _SUBTRUCT_UNIT(c, xp[0], yp[0], &zp[0]);

	mov	esi, DWORD PTR _yp$[ebp]
; File z:\sources\lunor\repos\rougemeilland\palmtree.math.core.uint\palmtree.math.core.uint\pmc_inline_func.h

; 265  :         return (_subborrow_u32(borrow, u, v, w));

	add	al, 255					; 000000ffH
; File z:\sources\lunor\repos\rougemeilland\palmtree.math.core.uint\palmtree.math.core.uint\autogenerated_inline_func.h

; 4045 :     c = _SUBTRUCT_UNIT(c, xp[0], yp[0], &zp[0]);

	mov	ecx, DWORD PTR [edx]
	push	edi
; File z:\sources\lunor\repos\rougemeilland\palmtree.math.core.uint\palmtree.math.core.uint\pmc_inline_func.h

; 265  :         return (_subborrow_u32(borrow, u, v, w));

	mov	edi, DWORD PTR _zp$[ebp]
	sbb	ecx, DWORD PTR [esi]
	mov	DWORD PTR [edi], ecx
; File z:\sources\lunor\repos\rougemeilland\palmtree.math.core.uint\palmtree.math.core.uint\autogenerated_inline_func.h

; 4046 :     c = _SUBTRUCT_UNIT(c, xp[1], yp[1], &zp[1]);

	mov	eax, DWORD PTR [edx+4]
; File z:\sources\lunor\repos\rougemeilland\palmtree.math.core.uint\palmtree.math.core.uint\pmc_inline_func.h

; 265  :         return (_subborrow_u32(borrow, u, v, w));

	sbb	eax, DWORD PTR [esi+4]
	mov	DWORD PTR [edi+4], eax
; File z:\sources\lunor\repos\rougemeilland\palmtree.math.core.uint\palmtree.math.core.uint\autogenerated_inline_func.h

; 4047 :     c = _SUBTRUCT_UNIT(c, xp[2], yp[2], &zp[2]);

	mov	eax, DWORD PTR [edx+8]
; File z:\sources\lunor\repos\rougemeilland\palmtree.math.core.uint\palmtree.math.core.uint\pmc_inline_func.h

; 265  :         return (_subborrow_u32(borrow, u, v, w));

	sbb	eax, DWORD PTR [esi+8]
	mov	DWORD PTR [edi+8], eax
; File z:\sources\lunor\repos\rougemeilland\palmtree.math.core.uint\palmtree.math.core.uint\autogenerated_inline_func.h

; 4048 :     c = _SUBTRUCT_UNIT(c, xp[3], yp[3], &zp[3]);

	mov	ecx, DWORD PTR [edx+12]
; File z:\sources\lunor\repos\rougemeilland\palmtree.math.core.uint\palmtree.math.core.uint\pmc_inline_func.h

; 265  :         return (_subborrow_u32(borrow, u, v, w));

	sbb	ecx, DWORD PTR [esi+12]
	mov	DWORD PTR [edi+12], ecx
; File z:\sources\lunor\repos\rougemeilland\palmtree.math.core.uint\palmtree.math.core.uint\autogenerated_inline_func.h

; 4096 :     return (c);

	pop	edi
; File z:\sources\lunor\repos\rougemeilland\palmtree.math.core.uint\palmtree.math.core.uint\pmc_inline_func.h

; 265  :         return (_subborrow_u32(borrow, u, v, w));

	setb	al
; File z:\sources\lunor\repos\rougemeilland\palmtree.math.core.uint\palmtree.math.core.uint\autogenerated_inline_func.h

; 4096 :     return (c);

	pop	esi

; 4097 : }

	pop	ebp
	ret	0
__SUBTRUCT_4WORDS_SBB ENDP
_TEXT	ENDS
; Function compile flags: /Ogtp
; File z:\sources\lunor\repos\rougemeilland\palmtree.math.core.uint\palmtree.math.core.uint\autogenerated_inline_func.h
; File z:\sources\lunor\repos\rougemeilland\palmtree.math.core.uint\palmtree.math.core.uint\pmc_inline_func.h
; File z:\sources\lunor\repos\rougemeilland\palmtree.math.core.uint\palmtree.math.core.uint\autogenerated_inline_func.h
; File z:\sources\lunor\repos\rougemeilland\palmtree.math.core.uint\palmtree.math.core.uint\pmc_inline_func.h
; File z:\sources\lunor\repos\rougemeilland\palmtree.math.core.uint\palmtree.math.core.uint\autogenerated_inline_func.h
; File z:\sources\lunor\repos\rougemeilland\palmtree.math.core.uint\palmtree.math.core.uint\pmc_inline_func.h
; File z:\sources\lunor\repos\rougemeilland\palmtree.math.core.uint\palmtree.math.core.uint\autogenerated_inline_func.h
; File z:\sources\lunor\repos\rougemeilland\palmtree.math.core.uint\palmtree.math.core.uint\pmc_inline_func.h
; File z:\sources\lunor\repos\rougemeilland\palmtree.math.core.uint\palmtree.math.core.uint\autogenerated_inline_func.h
; File z:\sources\lunor\repos\rougemeilland\palmtree.math.core.uint\palmtree.math.core.uint\pmc_inline_func.h
; File z:\sources\lunor\repos\rougemeilland\palmtree.math.core.uint\palmtree.math.core.uint\autogenerated_inline_func.h
; File z:\sources\lunor\repos\rougemeilland\palmtree.math.core.uint\palmtree.math.core.uint\pmc_inline_func.h
; File z:\sources\lunor\repos\rougemeilland\palmtree.math.core.uint\palmtree.math.core.uint\autogenerated_inline_func.h
; File z:\sources\lunor\repos\rougemeilland\palmtree.math.core.uint\palmtree.math.core.uint\pmc_inline_func.h
; File z:\sources\lunor\repos\rougemeilland\palmtree.math.core.uint\palmtree.math.core.uint\autogenerated_inline_func.h
; File z:\sources\lunor\repos\rougemeilland\palmtree.math.core.uint\palmtree.math.core.uint\pmc_inline_func.h
; File z:\sources\lunor\repos\rougemeilland\palmtree.math.core.uint\palmtree.math.core.uint\autogenerated_inline_func.h
; File z:\sources\lunor\repos\rougemeilland\palmtree.math.core.uint\palmtree.math.core.uint\pmc_inline_func.h
; File z:\sources\lunor\repos\rougemeilland\palmtree.math.core.uint\palmtree.math.core.uint\autogenerated_inline_func.h
; File z:\sources\lunor\repos\rougemeilland\palmtree.math.core.uint\palmtree.math.core.uint\pmc_inline_func.h
; File z:\sources\lunor\repos\rougemeilland\palmtree.math.core.uint\palmtree.math.core.uint\autogenerated_inline_func.h
;	COMDAT __SUBTRUCT_8WORDS_SBB
_TEXT	SEGMENT
_c$ = 8							; size = 1
_xp$ = 12						; size = 4
_yp$ = 16						; size = 4
_zp$ = 20						; size = 4
__SUBTRUCT_8WORDS_SBB PROC				; COMDAT

; 3447 : {

	push	ebp
	mov	ebp, esp

; 3448 : #ifdef _MSC_VER
; 3449 :     c = _SUBTRUCT_UNIT(c, xp[0], yp[0], &zp[0]);

	mov	edx, DWORD PTR _xp$[ebp]
; File z:\sources\lunor\repos\rougemeilland\palmtree.math.core.uint\palmtree.math.core.uint\pmc_inline_func.h

; 265  :         return (_subborrow_u32(borrow, u, v, w));

	mov	al, BYTE PTR _c$[ebp]
	add	al, 255					; 000000ffH
; File z:\sources\lunor\repos\rougemeilland\palmtree.math.core.uint\palmtree.math.core.uint\autogenerated_inline_func.h

; 3447 : {

	push	esi

; 3448 : #ifdef _MSC_VER
; 3449 :     c = _SUBTRUCT_UNIT(c, xp[0], yp[0], &zp[0]);

	mov	esi, DWORD PTR _yp$[ebp]
	mov	ecx, DWORD PTR [edx]
	push	edi
; File z:\sources\lunor\repos\rougemeilland\palmtree.math.core.uint\palmtree.math.core.uint\pmc_inline_func.h

; 265  :         return (_subborrow_u32(borrow, u, v, w));

	mov	edi, DWORD PTR _zp$[ebp]
	sbb	ecx, DWORD PTR [esi]
	mov	DWORD PTR [edi], ecx
; File z:\sources\lunor\repos\rougemeilland\palmtree.math.core.uint\palmtree.math.core.uint\autogenerated_inline_func.h

; 3450 :     c = _SUBTRUCT_UNIT(c, xp[1], yp[1], &zp[1]);

	mov	eax, DWORD PTR [edx+4]
; File z:\sources\lunor\repos\rougemeilland\palmtree.math.core.uint\palmtree.math.core.uint\pmc_inline_func.h

; 265  :         return (_subborrow_u32(borrow, u, v, w));

	sbb	eax, DWORD PTR [esi+4]
	mov	DWORD PTR [edi+4], eax
; File z:\sources\lunor\repos\rougemeilland\palmtree.math.core.uint\palmtree.math.core.uint\autogenerated_inline_func.h

; 3451 :     c = _SUBTRUCT_UNIT(c, xp[2], yp[2], &zp[2]);

	mov	eax, DWORD PTR [edx+8]
; File z:\sources\lunor\repos\rougemeilland\palmtree.math.core.uint\palmtree.math.core.uint\pmc_inline_func.h

; 265  :         return (_subborrow_u32(borrow, u, v, w));

	sbb	eax, DWORD PTR [esi+8]
	mov	DWORD PTR [edi+8], eax
; File z:\sources\lunor\repos\rougemeilland\palmtree.math.core.uint\palmtree.math.core.uint\autogenerated_inline_func.h

; 3452 :     c = _SUBTRUCT_UNIT(c, xp[3], yp[3], &zp[3]);

	mov	eax, DWORD PTR [edx+12]
; File z:\sources\lunor\repos\rougemeilland\palmtree.math.core.uint\palmtree.math.core.uint\pmc_inline_func.h

; 265  :         return (_subborrow_u32(borrow, u, v, w));

	sbb	eax, DWORD PTR [esi+12]
	mov	DWORD PTR [edi+12], eax
; File z:\sources\lunor\repos\rougemeilland\palmtree.math.core.uint\palmtree.math.core.uint\autogenerated_inline_func.h

; 3453 :     c = _SUBTRUCT_UNIT(c, xp[4], yp[4], &zp[4]);

	mov	eax, DWORD PTR [edx+16]
; File z:\sources\lunor\repos\rougemeilland\palmtree.math.core.uint\palmtree.math.core.uint\pmc_inline_func.h

; 265  :         return (_subborrow_u32(borrow, u, v, w));

	sbb	eax, DWORD PTR [esi+16]
	mov	DWORD PTR [edi+16], eax
; File z:\sources\lunor\repos\rougemeilland\palmtree.math.core.uint\palmtree.math.core.uint\autogenerated_inline_func.h

; 3454 :     c = _SUBTRUCT_UNIT(c, xp[5], yp[5], &zp[5]);

	mov	eax, DWORD PTR [edx+20]
; File z:\sources\lunor\repos\rougemeilland\palmtree.math.core.uint\palmtree.math.core.uint\pmc_inline_func.h

; 265  :         return (_subborrow_u32(borrow, u, v, w));

	sbb	eax, DWORD PTR [esi+20]
	mov	DWORD PTR [edi+20], eax
; File z:\sources\lunor\repos\rougemeilland\palmtree.math.core.uint\palmtree.math.core.uint\autogenerated_inline_func.h

; 3455 :     c = _SUBTRUCT_UNIT(c, xp[6], yp[6], &zp[6]);

	mov	eax, DWORD PTR [edx+24]
; File z:\sources\lunor\repos\rougemeilland\palmtree.math.core.uint\palmtree.math.core.uint\pmc_inline_func.h

; 265  :         return (_subborrow_u32(borrow, u, v, w));

	sbb	eax, DWORD PTR [esi+24]
	mov	DWORD PTR [edi+24], eax
; File z:\sources\lunor\repos\rougemeilland\palmtree.math.core.uint\palmtree.math.core.uint\autogenerated_inline_func.h

; 3456 :     c = _SUBTRUCT_UNIT(c, xp[7], yp[7], &zp[7]);

	mov	ecx, DWORD PTR [edx+28]
; File z:\sources\lunor\repos\rougemeilland\palmtree.math.core.uint\palmtree.math.core.uint\pmc_inline_func.h

; 265  :         return (_subborrow_u32(borrow, u, v, w));

	sbb	ecx, DWORD PTR [esi+28]
	mov	DWORD PTR [edi+28], ecx
; File z:\sources\lunor\repos\rougemeilland\palmtree.math.core.uint\palmtree.math.core.uint\autogenerated_inline_func.h

; 3528 :     return (c);

	pop	edi
; File z:\sources\lunor\repos\rougemeilland\palmtree.math.core.uint\palmtree.math.core.uint\pmc_inline_func.h

; 265  :         return (_subborrow_u32(borrow, u, v, w));

	setb	al
; File z:\sources\lunor\repos\rougemeilland\palmtree.math.core.uint\palmtree.math.core.uint\autogenerated_inline_func.h

; 3528 :     return (c);

	pop	esi

; 3529 : }

	pop	ebp
	ret	0
__SUBTRUCT_8WORDS_SBB ENDP
_TEXT	ENDS
; Function compile flags: /Ogtp
; File z:\sources\lunor\repos\rougemeilland\palmtree.math.core.uint\palmtree.math.core.uint\autogenerated_inline_func.h
; File z:\sources\lunor\repos\rougemeilland\palmtree.math.core.uint\palmtree.math.core.uint\pmc_inline_func.h
; File z:\sources\lunor\repos\rougemeilland\palmtree.math.core.uint\palmtree.math.core.uint\autogenerated_inline_func.h
; File z:\sources\lunor\repos\rougemeilland\palmtree.math.core.uint\palmtree.math.core.uint\pmc_inline_func.h
; File z:\sources\lunor\repos\rougemeilland\palmtree.math.core.uint\palmtree.math.core.uint\autogenerated_inline_func.h
; File z:\sources\lunor\repos\rougemeilland\palmtree.math.core.uint\palmtree.math.core.uint\pmc_inline_func.h
; File z:\sources\lunor\repos\rougemeilland\palmtree.math.core.uint\palmtree.math.core.uint\autogenerated_inline_func.h
; File z:\sources\lunor\repos\rougemeilland\palmtree.math.core.uint\palmtree.math.core.uint\pmc_inline_func.h
; File z:\sources\lunor\repos\rougemeilland\palmtree.math.core.uint\palmtree.math.core.uint\autogenerated_inline_func.h
; File z:\sources\lunor\repos\rougemeilland\palmtree.math.core.uint\palmtree.math.core.uint\pmc_inline_func.h
; File z:\sources\lunor\repos\rougemeilland\palmtree.math.core.uint\palmtree.math.core.uint\autogenerated_inline_func.h
; File z:\sources\lunor\repos\rougemeilland\palmtree.math.core.uint\palmtree.math.core.uint\pmc_inline_func.h
; File z:\sources\lunor\repos\rougemeilland\palmtree.math.core.uint\palmtree.math.core.uint\autogenerated_inline_func.h
; File z:\sources\lunor\repos\rougemeilland\palmtree.math.core.uint\palmtree.math.core.uint\pmc_inline_func.h
; File z:\sources\lunor\repos\rougemeilland\palmtree.math.core.uint\palmtree.math.core.uint\autogenerated_inline_func.h
; File z:\sources\lunor\repos\rougemeilland\palmtree.math.core.uint\palmtree.math.core.uint\pmc_inline_func.h
; File z:\sources\lunor\repos\rougemeilland\palmtree.math.core.uint\palmtree.math.core.uint\autogenerated_inline_func.h
; File z:\sources\lunor\repos\rougemeilland\palmtree.math.core.uint\palmtree.math.core.uint\pmc_inline_func.h
; File z:\sources\lunor\repos\rougemeilland\palmtree.math.core.uint\palmtree.math.core.uint\autogenerated_inline_func.h
; File z:\sources\lunor\repos\rougemeilland\palmtree.math.core.uint\palmtree.math.core.uint\pmc_inline_func.h
; File z:\sources\lunor\repos\rougemeilland\palmtree.math.core.uint\palmtree.math.core.uint\autogenerated_inline_func.h
; File z:\sources\lunor\repos\rougemeilland\palmtree.math.core.uint\palmtree.math.core.uint\pmc_inline_func.h
; File z:\sources\lunor\repos\rougemeilland\palmtree.math.core.uint\palmtree.math.core.uint\autogenerated_inline_func.h
; File z:\sources\lunor\repos\rougemeilland\palmtree.math.core.uint\palmtree.math.core.uint\pmc_inline_func.h
; File z:\sources\lunor\repos\rougemeilland\palmtree.math.core.uint\palmtree.math.core.uint\autogenerated_inline_func.h
; File z:\sources\lunor\repos\rougemeilland\palmtree.math.core.uint\palmtree.math.core.uint\pmc_inline_func.h
; File z:\sources\lunor\repos\rougemeilland\palmtree.math.core.uint\palmtree.math.core.uint\autogenerated_inline_func.h
; File z:\sources\lunor\repos\rougemeilland\palmtree.math.core.uint\palmtree.math.core.uint\pmc_inline_func.h
; File z:\sources\lunor\repos\rougemeilland\palmtree.math.core.uint\palmtree.math.core.uint\autogenerated_inline_func.h
; File z:\sources\lunor\repos\rougemeilland\palmtree.math.core.uint\palmtree.math.core.uint\pmc_inline_func.h
; File z:\sources\lunor\repos\rougemeilland\palmtree.math.core.uint\palmtree.math.core.uint\autogenerated_inline_func.h
; File z:\sources\lunor\repos\rougemeilland\palmtree.math.core.uint\palmtree.math.core.uint\pmc_inline_func.h
; File z:\sources\lunor\repos\rougemeilland\palmtree.math.core.uint\palmtree.math.core.uint\autogenerated_inline_func.h
; File z:\sources\lunor\repos\rougemeilland\palmtree.math.core.uint\palmtree.math.core.uint\pmc_inline_func.h
; File z:\sources\lunor\repos\rougemeilland\palmtree.math.core.uint\palmtree.math.core.uint\autogenerated_inline_func.h
; File z:\sources\lunor\repos\rougemeilland\palmtree.math.core.uint\palmtree.math.core.uint\pmc_inline_func.h
; File z:\sources\lunor\repos\rougemeilland\palmtree.math.core.uint\palmtree.math.core.uint\autogenerated_inline_func.h
;	COMDAT __SUBTRUCT_16WORDS_SBB
_TEXT	SEGMENT
_c$ = 8							; size = 1
_xp$ = 12						; size = 4
_yp$ = 16						; size = 4
_zp$ = 20						; size = 4
__SUBTRUCT_16WORDS_SBB PROC				; COMDAT

; 2487 : {

	push	ebp
	mov	ebp, esp

; 2488 : #ifdef _MSC_VER
; 2489 :     c = _SUBTRUCT_UNIT(c, xp[0], yp[0], &zp[0]);

	mov	edx, DWORD PTR _xp$[ebp]
; File z:\sources\lunor\repos\rougemeilland\palmtree.math.core.uint\palmtree.math.core.uint\pmc_inline_func.h

; 265  :         return (_subborrow_u32(borrow, u, v, w));

	mov	al, BYTE PTR _c$[ebp]
	add	al, 255					; 000000ffH
; File z:\sources\lunor\repos\rougemeilland\palmtree.math.core.uint\palmtree.math.core.uint\autogenerated_inline_func.h

; 2487 : {

	push	esi

; 2488 : #ifdef _MSC_VER
; 2489 :     c = _SUBTRUCT_UNIT(c, xp[0], yp[0], &zp[0]);

	mov	esi, DWORD PTR _yp$[ebp]
	mov	ecx, DWORD PTR [edx]
	push	edi
; File z:\sources\lunor\repos\rougemeilland\palmtree.math.core.uint\palmtree.math.core.uint\pmc_inline_func.h

; 265  :         return (_subborrow_u32(borrow, u, v, w));

	mov	edi, DWORD PTR _zp$[ebp]
	sbb	ecx, DWORD PTR [esi]
	mov	DWORD PTR [edi], ecx
; File z:\sources\lunor\repos\rougemeilland\palmtree.math.core.uint\palmtree.math.core.uint\autogenerated_inline_func.h

; 2490 :     c = _SUBTRUCT_UNIT(c, xp[1], yp[1], &zp[1]);

	mov	eax, DWORD PTR [edx+4]
; File z:\sources\lunor\repos\rougemeilland\palmtree.math.core.uint\palmtree.math.core.uint\pmc_inline_func.h

; 265  :         return (_subborrow_u32(borrow, u, v, w));

	sbb	eax, DWORD PTR [esi+4]
	mov	DWORD PTR [edi+4], eax
; File z:\sources\lunor\repos\rougemeilland\palmtree.math.core.uint\palmtree.math.core.uint\autogenerated_inline_func.h

; 2491 :     c = _SUBTRUCT_UNIT(c, xp[2], yp[2], &zp[2]);

	mov	eax, DWORD PTR [edx+8]
; File z:\sources\lunor\repos\rougemeilland\palmtree.math.core.uint\palmtree.math.core.uint\pmc_inline_func.h

; 265  :         return (_subborrow_u32(borrow, u, v, w));

	sbb	eax, DWORD PTR [esi+8]
	mov	DWORD PTR [edi+8], eax
; File z:\sources\lunor\repos\rougemeilland\palmtree.math.core.uint\palmtree.math.core.uint\autogenerated_inline_func.h

; 2492 :     c = _SUBTRUCT_UNIT(c, xp[3], yp[3], &zp[3]);

	mov	eax, DWORD PTR [edx+12]
; File z:\sources\lunor\repos\rougemeilland\palmtree.math.core.uint\palmtree.math.core.uint\pmc_inline_func.h

; 265  :         return (_subborrow_u32(borrow, u, v, w));

	sbb	eax, DWORD PTR [esi+12]
	mov	DWORD PTR [edi+12], eax
; File z:\sources\lunor\repos\rougemeilland\palmtree.math.core.uint\palmtree.math.core.uint\autogenerated_inline_func.h

; 2493 :     c = _SUBTRUCT_UNIT(c, xp[4], yp[4], &zp[4]);

	mov	eax, DWORD PTR [edx+16]
; File z:\sources\lunor\repos\rougemeilland\palmtree.math.core.uint\palmtree.math.core.uint\pmc_inline_func.h

; 265  :         return (_subborrow_u32(borrow, u, v, w));

	sbb	eax, DWORD PTR [esi+16]
	mov	DWORD PTR [edi+16], eax
; File z:\sources\lunor\repos\rougemeilland\palmtree.math.core.uint\palmtree.math.core.uint\autogenerated_inline_func.h

; 2494 :     c = _SUBTRUCT_UNIT(c, xp[5], yp[5], &zp[5]);

	mov	eax, DWORD PTR [edx+20]
; File z:\sources\lunor\repos\rougemeilland\palmtree.math.core.uint\palmtree.math.core.uint\pmc_inline_func.h

; 265  :         return (_subborrow_u32(borrow, u, v, w));

	sbb	eax, DWORD PTR [esi+20]
	mov	DWORD PTR [edi+20], eax
; File z:\sources\lunor\repos\rougemeilland\palmtree.math.core.uint\palmtree.math.core.uint\autogenerated_inline_func.h

; 2495 :     c = _SUBTRUCT_UNIT(c, xp[6], yp[6], &zp[6]);

	mov	eax, DWORD PTR [edx+24]
; File z:\sources\lunor\repos\rougemeilland\palmtree.math.core.uint\palmtree.math.core.uint\pmc_inline_func.h

; 265  :         return (_subborrow_u32(borrow, u, v, w));

	sbb	eax, DWORD PTR [esi+24]
	mov	DWORD PTR [edi+24], eax
; File z:\sources\lunor\repos\rougemeilland\palmtree.math.core.uint\palmtree.math.core.uint\autogenerated_inline_func.h

; 2496 :     c = _SUBTRUCT_UNIT(c, xp[7], yp[7], &zp[7]);

	mov	eax, DWORD PTR [edx+28]
; File z:\sources\lunor\repos\rougemeilland\palmtree.math.core.uint\palmtree.math.core.uint\pmc_inline_func.h

; 265  :         return (_subborrow_u32(borrow, u, v, w));

	sbb	eax, DWORD PTR [esi+28]
	mov	DWORD PTR [edi+28], eax
; File z:\sources\lunor\repos\rougemeilland\palmtree.math.core.uint\palmtree.math.core.uint\autogenerated_inline_func.h

; 2497 :     c = _SUBTRUCT_UNIT(c, xp[8], yp[8], &zp[8]);

	mov	eax, DWORD PTR [edx+32]
; File z:\sources\lunor\repos\rougemeilland\palmtree.math.core.uint\palmtree.math.core.uint\pmc_inline_func.h

; 265  :         return (_subborrow_u32(borrow, u, v, w));

	sbb	eax, DWORD PTR [esi+32]
	mov	DWORD PTR [edi+32], eax
; File z:\sources\lunor\repos\rougemeilland\palmtree.math.core.uint\palmtree.math.core.uint\autogenerated_inline_func.h

; 2498 :     c = _SUBTRUCT_UNIT(c, xp[9], yp[9], &zp[9]);

	mov	eax, DWORD PTR [edx+36]
; File z:\sources\lunor\repos\rougemeilland\palmtree.math.core.uint\palmtree.math.core.uint\pmc_inline_func.h

; 265  :         return (_subborrow_u32(borrow, u, v, w));

	sbb	eax, DWORD PTR [esi+36]
	mov	DWORD PTR [edi+36], eax
; File z:\sources\lunor\repos\rougemeilland\palmtree.math.core.uint\palmtree.math.core.uint\autogenerated_inline_func.h

; 2499 :     c = _SUBTRUCT_UNIT(c, xp[10], yp[10], &zp[10]);

	mov	eax, DWORD PTR [edx+40]
; File z:\sources\lunor\repos\rougemeilland\palmtree.math.core.uint\palmtree.math.core.uint\pmc_inline_func.h

; 265  :         return (_subborrow_u32(borrow, u, v, w));

	sbb	eax, DWORD PTR [esi+40]
	mov	DWORD PTR [edi+40], eax
; File z:\sources\lunor\repos\rougemeilland\palmtree.math.core.uint\palmtree.math.core.uint\autogenerated_inline_func.h

; 2500 :     c = _SUBTRUCT_UNIT(c, xp[11], yp[11], &zp[11]);

	mov	eax, DWORD PTR [edx+44]
; File z:\sources\lunor\repos\rougemeilland\palmtree.math.core.uint\palmtree.math.core.uint\pmc_inline_func.h

; 265  :         return (_subborrow_u32(borrow, u, v, w));

	sbb	eax, DWORD PTR [esi+44]
	mov	DWORD PTR [edi+44], eax
; File z:\sources\lunor\repos\rougemeilland\palmtree.math.core.uint\palmtree.math.core.uint\autogenerated_inline_func.h

; 2501 :     c = _SUBTRUCT_UNIT(c, xp[12], yp[12], &zp[12]);

	mov	eax, DWORD PTR [edx+48]
; File z:\sources\lunor\repos\rougemeilland\palmtree.math.core.uint\palmtree.math.core.uint\pmc_inline_func.h

; 265  :         return (_subborrow_u32(borrow, u, v, w));

	sbb	eax, DWORD PTR [esi+48]
	mov	DWORD PTR [edi+48], eax
; File z:\sources\lunor\repos\rougemeilland\palmtree.math.core.uint\palmtree.math.core.uint\autogenerated_inline_func.h

; 2502 :     c = _SUBTRUCT_UNIT(c, xp[13], yp[13], &zp[13]);

	mov	eax, DWORD PTR [edx+52]
; File z:\sources\lunor\repos\rougemeilland\palmtree.math.core.uint\palmtree.math.core.uint\pmc_inline_func.h

; 265  :         return (_subborrow_u32(borrow, u, v, w));

	sbb	eax, DWORD PTR [esi+52]
	mov	DWORD PTR [edi+52], eax
; File z:\sources\lunor\repos\rougemeilland\palmtree.math.core.uint\palmtree.math.core.uint\autogenerated_inline_func.h

; 2503 :     c = _SUBTRUCT_UNIT(c, xp[14], yp[14], &zp[14]);

	mov	eax, DWORD PTR [edx+56]
; File z:\sources\lunor\repos\rougemeilland\palmtree.math.core.uint\palmtree.math.core.uint\pmc_inline_func.h

; 265  :         return (_subborrow_u32(borrow, u, v, w));

	sbb	eax, DWORD PTR [esi+56]
	mov	DWORD PTR [edi+56], eax
; File z:\sources\lunor\repos\rougemeilland\palmtree.math.core.uint\palmtree.math.core.uint\autogenerated_inline_func.h

; 2504 :     c = _SUBTRUCT_UNIT(c, xp[15], yp[15], &zp[15]);

	mov	ecx, DWORD PTR [edx+60]
; File z:\sources\lunor\repos\rougemeilland\palmtree.math.core.uint\palmtree.math.core.uint\pmc_inline_func.h

; 265  :         return (_subborrow_u32(borrow, u, v, w));

	sbb	ecx, DWORD PTR [esi+60]
	mov	DWORD PTR [edi+60], ecx
; File z:\sources\lunor\repos\rougemeilland\palmtree.math.core.uint\palmtree.math.core.uint\autogenerated_inline_func.h

; 2624 :     return (c);

	pop	edi
; File z:\sources\lunor\repos\rougemeilland\palmtree.math.core.uint\palmtree.math.core.uint\pmc_inline_func.h

; 265  :         return (_subborrow_u32(borrow, u, v, w));

	setb	al
; File z:\sources\lunor\repos\rougemeilland\palmtree.math.core.uint\palmtree.math.core.uint\autogenerated_inline_func.h

; 2624 :     return (c);

	pop	esi

; 2625 : }

	pop	ebp
	ret	0
__SUBTRUCT_16WORDS_SBB ENDP
_TEXT	ENDS
; Function compile flags: /Ogtp
; File z:\sources\lunor\repos\rougemeilland\palmtree.math.core.uint\palmtree.math.core.uint\autogenerated_inline_func.h
; File z:\sources\lunor\repos\rougemeilland\palmtree.math.core.uint\palmtree.math.core.uint\pmc_inline_func.h
; File z:\sources\lunor\repos\rougemeilland\palmtree.math.core.uint\palmtree.math.core.uint\autogenerated_inline_func.h
; File z:\sources\lunor\repos\rougemeilland\palmtree.math.core.uint\palmtree.math.core.uint\pmc_inline_func.h
; File z:\sources\lunor\repos\rougemeilland\palmtree.math.core.uint\palmtree.math.core.uint\autogenerated_inline_func.h
; File z:\sources\lunor\repos\rougemeilland\palmtree.math.core.uint\palmtree.math.core.uint\pmc_inline_func.h
; File z:\sources\lunor\repos\rougemeilland\palmtree.math.core.uint\palmtree.math.core.uint\autogenerated_inline_func.h
; File z:\sources\lunor\repos\rougemeilland\palmtree.math.core.uint\palmtree.math.core.uint\pmc_inline_func.h
; File z:\sources\lunor\repos\rougemeilland\palmtree.math.core.uint\palmtree.math.core.uint\autogenerated_inline_func.h
; File z:\sources\lunor\repos\rougemeilland\palmtree.math.core.uint\palmtree.math.core.uint\pmc_inline_func.h
; File z:\sources\lunor\repos\rougemeilland\palmtree.math.core.uint\palmtree.math.core.uint\autogenerated_inline_func.h
; File z:\sources\lunor\repos\rougemeilland\palmtree.math.core.uint\palmtree.math.core.uint\pmc_inline_func.h
; File z:\sources\lunor\repos\rougemeilland\palmtree.math.core.uint\palmtree.math.core.uint\autogenerated_inline_func.h
; File z:\sources\lunor\repos\rougemeilland\palmtree.math.core.uint\palmtree.math.core.uint\pmc_inline_func.h
; File z:\sources\lunor\repos\rougemeilland\palmtree.math.core.uint\palmtree.math.core.uint\autogenerated_inline_func.h
; File z:\sources\lunor\repos\rougemeilland\palmtree.math.core.uint\palmtree.math.core.uint\pmc_inline_func.h
; File z:\sources\lunor\repos\rougemeilland\palmtree.math.core.uint\palmtree.math.core.uint\autogenerated_inline_func.h
; File z:\sources\lunor\repos\rougemeilland\palmtree.math.core.uint\palmtree.math.core.uint\pmc_inline_func.h
; File z:\sources\lunor\repos\rougemeilland\palmtree.math.core.uint\palmtree.math.core.uint\autogenerated_inline_func.h
; File z:\sources\lunor\repos\rougemeilland\palmtree.math.core.uint\palmtree.math.core.uint\pmc_inline_func.h
; File z:\sources\lunor\repos\rougemeilland\palmtree.math.core.uint\palmtree.math.core.uint\autogenerated_inline_func.h
; File z:\sources\lunor\repos\rougemeilland\palmtree.math.core.uint\palmtree.math.core.uint\pmc_inline_func.h
; File z:\sources\lunor\repos\rougemeilland\palmtree.math.core.uint\palmtree.math.core.uint\autogenerated_inline_func.h
; File z:\sources\lunor\repos\rougemeilland\palmtree.math.core.uint\palmtree.math.core.uint\pmc_inline_func.h
; File z:\sources\lunor\repos\rougemeilland\palmtree.math.core.uint\palmtree.math.core.uint\autogenerated_inline_func.h
; File z:\sources\lunor\repos\rougemeilland\palmtree.math.core.uint\palmtree.math.core.uint\pmc_inline_func.h
; File z:\sources\lunor\repos\rougemeilland\palmtree.math.core.uint\palmtree.math.core.uint\autogenerated_inline_func.h
; File z:\sources\lunor\repos\rougemeilland\palmtree.math.core.uint\palmtree.math.core.uint\pmc_inline_func.h
; File z:\sources\lunor\repos\rougemeilland\palmtree.math.core.uint\palmtree.math.core.uint\autogenerated_inline_func.h
; File z:\sources\lunor\repos\rougemeilland\palmtree.math.core.uint\palmtree.math.core.uint\pmc_inline_func.h
; File z:\sources\lunor\repos\rougemeilland\palmtree.math.core.uint\palmtree.math.core.uint\autogenerated_inline_func.h
; File z:\sources\lunor\repos\rougemeilland\palmtree.math.core.uint\palmtree.math.core.uint\pmc_inline_func.h
; File z:\sources\lunor\repos\rougemeilland\palmtree.math.core.uint\palmtree.math.core.uint\autogenerated_inline_func.h
; File z:\sources\lunor\repos\rougemeilland\palmtree.math.core.uint\palmtree.math.core.uint\pmc_inline_func.h
; File z:\sources\lunor\repos\rougemeilland\palmtree.math.core.uint\palmtree.math.core.uint\autogenerated_inline_func.h
; File z:\sources\lunor\repos\rougemeilland\palmtree.math.core.uint\palmtree.math.core.uint\pmc_inline_func.h
; File z:\sources\lunor\repos\rougemeilland\palmtree.math.core.uint\palmtree.math.core.uint\autogenerated_inline_func.h
; File z:\sources\lunor\repos\rougemeilland\palmtree.math.core.uint\palmtree.math.core.uint\pmc_inline_func.h
; File z:\sources\lunor\repos\rougemeilland\palmtree.math.core.uint\palmtree.math.core.uint\autogenerated_inline_func.h
; File z:\sources\lunor\repos\rougemeilland\palmtree.math.core.uint\palmtree.math.core.uint\pmc_inline_func.h
; File z:\sources\lunor\repos\rougemeilland\palmtree.math.core.uint\palmtree.math.core.uint\autogenerated_inline_func.h
; File z:\sources\lunor\repos\rougemeilland\palmtree.math.core.uint\palmtree.math.core.uint\pmc_inline_func.h
; File z:\sources\lunor\repos\rougemeilland\palmtree.math.core.uint\palmtree.math.core.uint\autogenerated_inline_func.h
; File z:\sources\lunor\repos\rougemeilland\palmtree.math.core.uint\palmtree.math.core.uint\pmc_inline_func.h
; File z:\sources\lunor\repos\rougemeilland\palmtree.math.core.uint\palmtree.math.core.uint\autogenerated_inline_func.h
; File z:\sources\lunor\repos\rougemeilland\palmtree.math.core.uint\palmtree.math.core.uint\pmc_inline_func.h
; File z:\sources\lunor\repos\rougemeilland\palmtree.math.core.uint\palmtree.math.core.uint\autogenerated_inline_func.h
; File z:\sources\lunor\repos\rougemeilland\palmtree.math.core.uint\palmtree.math.core.uint\pmc_inline_func.h
; File z:\sources\lunor\repos\rougemeilland\palmtree.math.core.uint\palmtree.math.core.uint\autogenerated_inline_func.h
; File z:\sources\lunor\repos\rougemeilland\palmtree.math.core.uint\palmtree.math.core.uint\pmc_inline_func.h
; File z:\sources\lunor\repos\rougemeilland\palmtree.math.core.uint\palmtree.math.core.uint\autogenerated_inline_func.h
; File z:\sources\lunor\repos\rougemeilland\palmtree.math.core.uint\palmtree.math.core.uint\pmc_inline_func.h
; File z:\sources\lunor\repos\rougemeilland\palmtree.math.core.uint\palmtree.math.core.uint\autogenerated_inline_func.h
; File z:\sources\lunor\repos\rougemeilland\palmtree.math.core.uint\palmtree.math.core.uint\pmc_inline_func.h
; File z:\sources\lunor\repos\rougemeilland\palmtree.math.core.uint\palmtree.math.core.uint\autogenerated_inline_func.h
; File z:\sources\lunor\repos\rougemeilland\palmtree.math.core.uint\palmtree.math.core.uint\pmc_inline_func.h
; File z:\sources\lunor\repos\rougemeilland\palmtree.math.core.uint\palmtree.math.core.uint\autogenerated_inline_func.h
; File z:\sources\lunor\repos\rougemeilland\palmtree.math.core.uint\palmtree.math.core.uint\pmc_inline_func.h
; File z:\sources\lunor\repos\rougemeilland\palmtree.math.core.uint\palmtree.math.core.uint\autogenerated_inline_func.h
; File z:\sources\lunor\repos\rougemeilland\palmtree.math.core.uint\palmtree.math.core.uint\pmc_inline_func.h
; File z:\sources\lunor\repos\rougemeilland\palmtree.math.core.uint\palmtree.math.core.uint\autogenerated_inline_func.h
; File z:\sources\lunor\repos\rougemeilland\palmtree.math.core.uint\palmtree.math.core.uint\pmc_inline_func.h
; File z:\sources\lunor\repos\rougemeilland\palmtree.math.core.uint\palmtree.math.core.uint\autogenerated_inline_func.h
; File z:\sources\lunor\repos\rougemeilland\palmtree.math.core.uint\palmtree.math.core.uint\pmc_inline_func.h
; File z:\sources\lunor\repos\rougemeilland\palmtree.math.core.uint\palmtree.math.core.uint\autogenerated_inline_func.h
; File z:\sources\lunor\repos\rougemeilland\palmtree.math.core.uint\palmtree.math.core.uint\pmc_inline_func.h
; File z:\sources\lunor\repos\rougemeilland\palmtree.math.core.uint\palmtree.math.core.uint\autogenerated_inline_func.h
; File z:\sources\lunor\repos\rougemeilland\palmtree.math.core.uint\palmtree.math.core.uint\pmc_inline_func.h
; File z:\sources\lunor\repos\rougemeilland\palmtree.math.core.uint\palmtree.math.core.uint\autogenerated_inline_func.h
;	COMDAT __SUBTRUCT_32WORDS_SBB
_TEXT	SEGMENT
_c$ = 8							; size = 1
_xp$ = 12						; size = 4
_yp$ = 16						; size = 4
_zp$ = 20						; size = 4
__SUBTRUCT_32WORDS_SBB PROC				; COMDAT

; 799  : {

	push	ebp
	mov	ebp, esp

; 800  : #ifdef _MSC_VER
; 801  :     c = _SUBTRUCT_UNIT(c, xp[0], yp[0], &zp[0]);

	mov	edx, DWORD PTR _xp$[ebp]
; File z:\sources\lunor\repos\rougemeilland\palmtree.math.core.uint\palmtree.math.core.uint\pmc_inline_func.h

; 265  :         return (_subborrow_u32(borrow, u, v, w));

	mov	al, BYTE PTR _c$[ebp]
	add	al, 255					; 000000ffH
; File z:\sources\lunor\repos\rougemeilland\palmtree.math.core.uint\palmtree.math.core.uint\autogenerated_inline_func.h

; 799  : {

	push	esi

; 800  : #ifdef _MSC_VER
; 801  :     c = _SUBTRUCT_UNIT(c, xp[0], yp[0], &zp[0]);

	mov	esi, DWORD PTR _yp$[ebp]
	mov	ecx, DWORD PTR [edx]
	push	edi
; File z:\sources\lunor\repos\rougemeilland\palmtree.math.core.uint\palmtree.math.core.uint\pmc_inline_func.h

; 265  :         return (_subborrow_u32(borrow, u, v, w));

	mov	edi, DWORD PTR _zp$[ebp]
	sbb	ecx, DWORD PTR [esi]
	mov	DWORD PTR [edi], ecx
; File z:\sources\lunor\repos\rougemeilland\palmtree.math.core.uint\palmtree.math.core.uint\autogenerated_inline_func.h

; 802  :     c = _SUBTRUCT_UNIT(c, xp[1], yp[1], &zp[1]);

	mov	eax, DWORD PTR [edx+4]
; File z:\sources\lunor\repos\rougemeilland\palmtree.math.core.uint\palmtree.math.core.uint\pmc_inline_func.h

; 265  :         return (_subborrow_u32(borrow, u, v, w));

	sbb	eax, DWORD PTR [esi+4]
	mov	DWORD PTR [edi+4], eax
; File z:\sources\lunor\repos\rougemeilland\palmtree.math.core.uint\palmtree.math.core.uint\autogenerated_inline_func.h

; 803  :     c = _SUBTRUCT_UNIT(c, xp[2], yp[2], &zp[2]);

	mov	eax, DWORD PTR [edx+8]
; File z:\sources\lunor\repos\rougemeilland\palmtree.math.core.uint\palmtree.math.core.uint\pmc_inline_func.h

; 265  :         return (_subborrow_u32(borrow, u, v, w));

	sbb	eax, DWORD PTR [esi+8]
	mov	DWORD PTR [edi+8], eax
; File z:\sources\lunor\repos\rougemeilland\palmtree.math.core.uint\palmtree.math.core.uint\autogenerated_inline_func.h

; 804  :     c = _SUBTRUCT_UNIT(c, xp[3], yp[3], &zp[3]);

	mov	eax, DWORD PTR [edx+12]
; File z:\sources\lunor\repos\rougemeilland\palmtree.math.core.uint\palmtree.math.core.uint\pmc_inline_func.h

; 265  :         return (_subborrow_u32(borrow, u, v, w));

	sbb	eax, DWORD PTR [esi+12]
	mov	DWORD PTR [edi+12], eax
; File z:\sources\lunor\repos\rougemeilland\palmtree.math.core.uint\palmtree.math.core.uint\autogenerated_inline_func.h

; 805  :     c = _SUBTRUCT_UNIT(c, xp[4], yp[4], &zp[4]);

	mov	eax, DWORD PTR [edx+16]
; File z:\sources\lunor\repos\rougemeilland\palmtree.math.core.uint\palmtree.math.core.uint\pmc_inline_func.h

; 265  :         return (_subborrow_u32(borrow, u, v, w));

	sbb	eax, DWORD PTR [esi+16]
	mov	DWORD PTR [edi+16], eax
; File z:\sources\lunor\repos\rougemeilland\palmtree.math.core.uint\palmtree.math.core.uint\autogenerated_inline_func.h

; 806  :     c = _SUBTRUCT_UNIT(c, xp[5], yp[5], &zp[5]);

	mov	eax, DWORD PTR [edx+20]
; File z:\sources\lunor\repos\rougemeilland\palmtree.math.core.uint\palmtree.math.core.uint\pmc_inline_func.h

; 265  :         return (_subborrow_u32(borrow, u, v, w));

	sbb	eax, DWORD PTR [esi+20]
	mov	DWORD PTR [edi+20], eax
; File z:\sources\lunor\repos\rougemeilland\palmtree.math.core.uint\palmtree.math.core.uint\autogenerated_inline_func.h

; 807  :     c = _SUBTRUCT_UNIT(c, xp[6], yp[6], &zp[6]);

	mov	eax, DWORD PTR [edx+24]
; File z:\sources\lunor\repos\rougemeilland\palmtree.math.core.uint\palmtree.math.core.uint\pmc_inline_func.h

; 265  :         return (_subborrow_u32(borrow, u, v, w));

	sbb	eax, DWORD PTR [esi+24]
	mov	DWORD PTR [edi+24], eax
; File z:\sources\lunor\repos\rougemeilland\palmtree.math.core.uint\palmtree.math.core.uint\autogenerated_inline_func.h

; 808  :     c = _SUBTRUCT_UNIT(c, xp[7], yp[7], &zp[7]);

	mov	eax, DWORD PTR [edx+28]
; File z:\sources\lunor\repos\rougemeilland\palmtree.math.core.uint\palmtree.math.core.uint\pmc_inline_func.h

; 265  :         return (_subborrow_u32(borrow, u, v, w));

	sbb	eax, DWORD PTR [esi+28]
	mov	DWORD PTR [edi+28], eax
; File z:\sources\lunor\repos\rougemeilland\palmtree.math.core.uint\palmtree.math.core.uint\autogenerated_inline_func.h

; 809  :     c = _SUBTRUCT_UNIT(c, xp[8], yp[8], &zp[8]);

	mov	eax, DWORD PTR [edx+32]
; File z:\sources\lunor\repos\rougemeilland\palmtree.math.core.uint\palmtree.math.core.uint\pmc_inline_func.h

; 265  :         return (_subborrow_u32(borrow, u, v, w));

	sbb	eax, DWORD PTR [esi+32]
	mov	DWORD PTR [edi+32], eax
; File z:\sources\lunor\repos\rougemeilland\palmtree.math.core.uint\palmtree.math.core.uint\autogenerated_inline_func.h

; 810  :     c = _SUBTRUCT_UNIT(c, xp[9], yp[9], &zp[9]);

	mov	eax, DWORD PTR [edx+36]
; File z:\sources\lunor\repos\rougemeilland\palmtree.math.core.uint\palmtree.math.core.uint\pmc_inline_func.h

; 265  :         return (_subborrow_u32(borrow, u, v, w));

	sbb	eax, DWORD PTR [esi+36]
	mov	DWORD PTR [edi+36], eax
; File z:\sources\lunor\repos\rougemeilland\palmtree.math.core.uint\palmtree.math.core.uint\autogenerated_inline_func.h

; 811  :     c = _SUBTRUCT_UNIT(c, xp[10], yp[10], &zp[10]);

	mov	eax, DWORD PTR [edx+40]
; File z:\sources\lunor\repos\rougemeilland\palmtree.math.core.uint\palmtree.math.core.uint\pmc_inline_func.h

; 265  :         return (_subborrow_u32(borrow, u, v, w));

	sbb	eax, DWORD PTR [esi+40]
	mov	DWORD PTR [edi+40], eax
; File z:\sources\lunor\repos\rougemeilland\palmtree.math.core.uint\palmtree.math.core.uint\autogenerated_inline_func.h

; 812  :     c = _SUBTRUCT_UNIT(c, xp[11], yp[11], &zp[11]);

	mov	eax, DWORD PTR [edx+44]
; File z:\sources\lunor\repos\rougemeilland\palmtree.math.core.uint\palmtree.math.core.uint\pmc_inline_func.h

; 265  :         return (_subborrow_u32(borrow, u, v, w));

	sbb	eax, DWORD PTR [esi+44]
	mov	DWORD PTR [edi+44], eax
; File z:\sources\lunor\repos\rougemeilland\palmtree.math.core.uint\palmtree.math.core.uint\autogenerated_inline_func.h

; 813  :     c = _SUBTRUCT_UNIT(c, xp[12], yp[12], &zp[12]);

	mov	eax, DWORD PTR [edx+48]
; File z:\sources\lunor\repos\rougemeilland\palmtree.math.core.uint\palmtree.math.core.uint\pmc_inline_func.h

; 265  :         return (_subborrow_u32(borrow, u, v, w));

	sbb	eax, DWORD PTR [esi+48]
	mov	DWORD PTR [edi+48], eax
; File z:\sources\lunor\repos\rougemeilland\palmtree.math.core.uint\palmtree.math.core.uint\autogenerated_inline_func.h

; 814  :     c = _SUBTRUCT_UNIT(c, xp[13], yp[13], &zp[13]);

	mov	eax, DWORD PTR [edx+52]
; File z:\sources\lunor\repos\rougemeilland\palmtree.math.core.uint\palmtree.math.core.uint\pmc_inline_func.h

; 265  :         return (_subborrow_u32(borrow, u, v, w));

	sbb	eax, DWORD PTR [esi+52]
	mov	DWORD PTR [edi+52], eax
; File z:\sources\lunor\repos\rougemeilland\palmtree.math.core.uint\palmtree.math.core.uint\autogenerated_inline_func.h

; 815  :     c = _SUBTRUCT_UNIT(c, xp[14], yp[14], &zp[14]);

	mov	eax, DWORD PTR [edx+56]
; File z:\sources\lunor\repos\rougemeilland\palmtree.math.core.uint\palmtree.math.core.uint\pmc_inline_func.h

; 265  :         return (_subborrow_u32(borrow, u, v, w));

	sbb	eax, DWORD PTR [esi+56]
	mov	DWORD PTR [edi+56], eax
; File z:\sources\lunor\repos\rougemeilland\palmtree.math.core.uint\palmtree.math.core.uint\autogenerated_inline_func.h

; 816  :     c = _SUBTRUCT_UNIT(c, xp[15], yp[15], &zp[15]);

	mov	eax, DWORD PTR [edx+60]
; File z:\sources\lunor\repos\rougemeilland\palmtree.math.core.uint\palmtree.math.core.uint\pmc_inline_func.h

; 265  :         return (_subborrow_u32(borrow, u, v, w));

	sbb	eax, DWORD PTR [esi+60]
	mov	DWORD PTR [edi+60], eax
; File z:\sources\lunor\repos\rougemeilland\palmtree.math.core.uint\palmtree.math.core.uint\autogenerated_inline_func.h

; 817  :     c = _SUBTRUCT_UNIT(c, xp[16], yp[16], &zp[16]);

	mov	eax, DWORD PTR [edx+64]
; File z:\sources\lunor\repos\rougemeilland\palmtree.math.core.uint\palmtree.math.core.uint\pmc_inline_func.h

; 265  :         return (_subborrow_u32(borrow, u, v, w));

	sbb	eax, DWORD PTR [esi+64]
	mov	DWORD PTR [edi+64], eax
; File z:\sources\lunor\repos\rougemeilland\palmtree.math.core.uint\palmtree.math.core.uint\autogenerated_inline_func.h

; 818  :     c = _SUBTRUCT_UNIT(c, xp[17], yp[17], &zp[17]);

	mov	eax, DWORD PTR [edx+68]
; File z:\sources\lunor\repos\rougemeilland\palmtree.math.core.uint\palmtree.math.core.uint\pmc_inline_func.h

; 265  :         return (_subborrow_u32(borrow, u, v, w));

	sbb	eax, DWORD PTR [esi+68]
	mov	DWORD PTR [edi+68], eax
; File z:\sources\lunor\repos\rougemeilland\palmtree.math.core.uint\palmtree.math.core.uint\autogenerated_inline_func.h

; 819  :     c = _SUBTRUCT_UNIT(c, xp[18], yp[18], &zp[18]);

	mov	eax, DWORD PTR [edx+72]
; File z:\sources\lunor\repos\rougemeilland\palmtree.math.core.uint\palmtree.math.core.uint\pmc_inline_func.h

; 265  :         return (_subborrow_u32(borrow, u, v, w));

	sbb	eax, DWORD PTR [esi+72]
	mov	DWORD PTR [edi+72], eax
; File z:\sources\lunor\repos\rougemeilland\palmtree.math.core.uint\palmtree.math.core.uint\autogenerated_inline_func.h

; 820  :     c = _SUBTRUCT_UNIT(c, xp[19], yp[19], &zp[19]);

	mov	eax, DWORD PTR [edx+76]
; File z:\sources\lunor\repos\rougemeilland\palmtree.math.core.uint\palmtree.math.core.uint\pmc_inline_func.h

; 265  :         return (_subborrow_u32(borrow, u, v, w));

	sbb	eax, DWORD PTR [esi+76]
	mov	DWORD PTR [edi+76], eax
; File z:\sources\lunor\repos\rougemeilland\palmtree.math.core.uint\palmtree.math.core.uint\autogenerated_inline_func.h

; 821  :     c = _SUBTRUCT_UNIT(c, xp[20], yp[20], &zp[20]);

	mov	eax, DWORD PTR [edx+80]
; File z:\sources\lunor\repos\rougemeilland\palmtree.math.core.uint\palmtree.math.core.uint\pmc_inline_func.h

; 265  :         return (_subborrow_u32(borrow, u, v, w));

	sbb	eax, DWORD PTR [esi+80]
	mov	DWORD PTR [edi+80], eax
; File z:\sources\lunor\repos\rougemeilland\palmtree.math.core.uint\palmtree.math.core.uint\autogenerated_inline_func.h

; 822  :     c = _SUBTRUCT_UNIT(c, xp[21], yp[21], &zp[21]);

	mov	eax, DWORD PTR [edx+84]
; File z:\sources\lunor\repos\rougemeilland\palmtree.math.core.uint\palmtree.math.core.uint\pmc_inline_func.h

; 265  :         return (_subborrow_u32(borrow, u, v, w));

	sbb	eax, DWORD PTR [esi+84]
	mov	DWORD PTR [edi+84], eax
; File z:\sources\lunor\repos\rougemeilland\palmtree.math.core.uint\palmtree.math.core.uint\autogenerated_inline_func.h

; 823  :     c = _SUBTRUCT_UNIT(c, xp[22], yp[22], &zp[22]);

	mov	eax, DWORD PTR [edx+88]
; File z:\sources\lunor\repos\rougemeilland\palmtree.math.core.uint\palmtree.math.core.uint\pmc_inline_func.h

; 265  :         return (_subborrow_u32(borrow, u, v, w));

	sbb	eax, DWORD PTR [esi+88]
	mov	DWORD PTR [edi+88], eax
; File z:\sources\lunor\repos\rougemeilland\palmtree.math.core.uint\palmtree.math.core.uint\autogenerated_inline_func.h

; 824  :     c = _SUBTRUCT_UNIT(c, xp[23], yp[23], &zp[23]);

	mov	eax, DWORD PTR [edx+92]
; File z:\sources\lunor\repos\rougemeilland\palmtree.math.core.uint\palmtree.math.core.uint\pmc_inline_func.h

; 265  :         return (_subborrow_u32(borrow, u, v, w));

	sbb	eax, DWORD PTR [esi+92]
	mov	DWORD PTR [edi+92], eax
; File z:\sources\lunor\repos\rougemeilland\palmtree.math.core.uint\palmtree.math.core.uint\autogenerated_inline_func.h

; 825  :     c = _SUBTRUCT_UNIT(c, xp[24], yp[24], &zp[24]);

	mov	eax, DWORD PTR [edx+96]
; File z:\sources\lunor\repos\rougemeilland\palmtree.math.core.uint\palmtree.math.core.uint\pmc_inline_func.h

; 265  :         return (_subborrow_u32(borrow, u, v, w));

	sbb	eax, DWORD PTR [esi+96]
	mov	DWORD PTR [edi+96], eax
; File z:\sources\lunor\repos\rougemeilland\palmtree.math.core.uint\palmtree.math.core.uint\autogenerated_inline_func.h

; 826  :     c = _SUBTRUCT_UNIT(c, xp[25], yp[25], &zp[25]);

	mov	eax, DWORD PTR [edx+100]
; File z:\sources\lunor\repos\rougemeilland\palmtree.math.core.uint\palmtree.math.core.uint\pmc_inline_func.h

; 265  :         return (_subborrow_u32(borrow, u, v, w));

	sbb	eax, DWORD PTR [esi+100]
	mov	DWORD PTR [edi+100], eax
; File z:\sources\lunor\repos\rougemeilland\palmtree.math.core.uint\palmtree.math.core.uint\autogenerated_inline_func.h

; 827  :     c = _SUBTRUCT_UNIT(c, xp[26], yp[26], &zp[26]);

	mov	eax, DWORD PTR [edx+104]
; File z:\sources\lunor\repos\rougemeilland\palmtree.math.core.uint\palmtree.math.core.uint\pmc_inline_func.h

; 265  :         return (_subborrow_u32(borrow, u, v, w));

	sbb	eax, DWORD PTR [esi+104]
	mov	DWORD PTR [edi+104], eax
; File z:\sources\lunor\repos\rougemeilland\palmtree.math.core.uint\palmtree.math.core.uint\autogenerated_inline_func.h

; 828  :     c = _SUBTRUCT_UNIT(c, xp[27], yp[27], &zp[27]);

	mov	eax, DWORD PTR [edx+108]
; File z:\sources\lunor\repos\rougemeilland\palmtree.math.core.uint\palmtree.math.core.uint\pmc_inline_func.h

; 265  :         return (_subborrow_u32(borrow, u, v, w));

	sbb	eax, DWORD PTR [esi+108]
	mov	DWORD PTR [edi+108], eax
; File z:\sources\lunor\repos\rougemeilland\palmtree.math.core.uint\palmtree.math.core.uint\autogenerated_inline_func.h

; 829  :     c = _SUBTRUCT_UNIT(c, xp[28], yp[28], &zp[28]);

	mov	eax, DWORD PTR [edx+112]
; File z:\sources\lunor\repos\rougemeilland\palmtree.math.core.uint\palmtree.math.core.uint\pmc_inline_func.h

; 265  :         return (_subborrow_u32(borrow, u, v, w));

	sbb	eax, DWORD PTR [esi+112]
	mov	DWORD PTR [edi+112], eax
; File z:\sources\lunor\repos\rougemeilland\palmtree.math.core.uint\palmtree.math.core.uint\autogenerated_inline_func.h

; 830  :     c = _SUBTRUCT_UNIT(c, xp[29], yp[29], &zp[29]);

	mov	eax, DWORD PTR [edx+116]
; File z:\sources\lunor\repos\rougemeilland\palmtree.math.core.uint\palmtree.math.core.uint\pmc_inline_func.h

; 265  :         return (_subborrow_u32(borrow, u, v, w));

	sbb	eax, DWORD PTR [esi+116]
	mov	DWORD PTR [edi+116], eax
; File z:\sources\lunor\repos\rougemeilland\palmtree.math.core.uint\palmtree.math.core.uint\autogenerated_inline_func.h

; 831  :     c = _SUBTRUCT_UNIT(c, xp[30], yp[30], &zp[30]);

	mov	eax, DWORD PTR [edx+120]
; File z:\sources\lunor\repos\rougemeilland\palmtree.math.core.uint\palmtree.math.core.uint\pmc_inline_func.h

; 265  :         return (_subborrow_u32(borrow, u, v, w));

	sbb	eax, DWORD PTR [esi+120]
	mov	DWORD PTR [edi+120], eax
; File z:\sources\lunor\repos\rougemeilland\palmtree.math.core.uint\palmtree.math.core.uint\autogenerated_inline_func.h

; 832  :     c = _SUBTRUCT_UNIT(c, xp[31], yp[31], &zp[31]);

	mov	ecx, DWORD PTR [edx+124]
; File z:\sources\lunor\repos\rougemeilland\palmtree.math.core.uint\palmtree.math.core.uint\pmc_inline_func.h

; 265  :         return (_subborrow_u32(borrow, u, v, w));

	sbb	ecx, DWORD PTR [esi+124]
	mov	DWORD PTR [edi+124], ecx
; File z:\sources\lunor\repos\rougemeilland\palmtree.math.core.uint\palmtree.math.core.uint\autogenerated_inline_func.h

; 1048 :     return (c);

	pop	edi
; File z:\sources\lunor\repos\rougemeilland\palmtree.math.core.uint\palmtree.math.core.uint\pmc_inline_func.h

; 265  :         return (_subborrow_u32(borrow, u, v, w));

	setb	al
; File z:\sources\lunor\repos\rougemeilland\palmtree.math.core.uint\palmtree.math.core.uint\autogenerated_inline_func.h

; 1048 :     return (c);

	pop	esi

; 1049 : }

	pop	ebp
	ret	0
__SUBTRUCT_32WORDS_SBB ENDP
_TEXT	ENDS
; Function compile flags: /Ogtp
; File z:\sources\lunor\repos\rougemeilland\palmtree.math.core.uint\palmtree.math.core.uint\pmc_inline_func.h
;	COMDAT __LZCNT_ALT_UNIT
_TEXT	SEGMENT
_x$ = 8							; size = 4
__LZCNT_ALT_UNIT PROC					; COMDAT

; 623  :     {

	push	ebp
	mov	ebp, esp

; 624  :         if (x == 0)

	mov	eax, DWORD PTR _x$[ebp]
	test	eax, eax
	jne	SHORT $LN2@LZCNT_ALT_

; 625  :             return (sizeof(x) * 8);

	mov	eax, 32					; 00000020H

; 649  :     }

	pop	ebp
	ret	0
$LN2@LZCNT_ALT_:

; 626  : #ifdef _M_IX86
; 627  :         _UINT32_T pos;
; 628  : #ifdef _MSC_VER
; 629  :         _BitScanReverse(&pos, x);

	bsr	ecx, eax

; 630  : #elif defined(__GNUC__)
; 631  :         __asm__("bsrl %1, %0" : "=r"(pos) : "rm"(x));
; 632  : #else
; 633  : #error unknown compiler
; 634  : #endif
; 635  : #elif defined(_M_X64)
; 636  : #ifdef _MSC_VER
; 637  :         _UINT32_T pos;
; 638  :         _BitScanReverse64(&pos, x);
; 639  : #elif defined(__GNUC__)
; 640  :         _UINT64_T pos;
; 641  :         __asm__("bsrq %1, %0" : "=r"(pos) : "rm"(x));
; 642  : #else
; 643  : #error unknown compiler
; 644  : #endif
; 645  : #else
; 646  : #error unknown platform
; 647  : #endif
; 648  :         return (sizeof(x) * 8 - 1 - pos);

	mov	eax, 31					; 0000001fH
	sub	eax, ecx

; 649  :     }

	pop	ebp
	ret	0
__LZCNT_ALT_UNIT ENDP
_TEXT	ENDS
; Function compile flags: /Ogtp
; File z:\sources\lunor\repos\rougemeilland\palmtree.math.core.uint\palmtree.math.core.uint\pmc_inline_func.h
;	COMDAT __LZCNT_ALT_32
_TEXT	SEGMENT
_x$ = 8							; size = 4
__LZCNT_ALT_32 PROC					; COMDAT

; 590  :     {

	push	ebp
	mov	ebp, esp

; 591  :         if (x == 0)

	mov	eax, DWORD PTR _x$[ebp]
	test	eax, eax
	jne	SHORT $LN2@LZCNT_ALT_

; 592  :             return (sizeof(x) * 8);

	mov	eax, 32					; 00000020H

; 602  :     }

	pop	ebp
	ret	0
$LN2@LZCNT_ALT_:

; 593  :         _UINT32_T pos;
; 594  : #ifdef _MSC_VER
; 595  :         _BitScanReverse(&pos, x);

	bsr	ecx, eax

; 596  : #elif defined(__GNUC__)
; 597  :         __asm__("bsrl %1, %0" : "=r"(pos) : "rm"(x));
; 598  : #else
; 599  : #error unknown compiler
; 600  : #endif
; 601  :         return (sizeof(x) * 8 - 1 - pos);

	mov	eax, 31					; 0000001fH
	sub	eax, ecx

; 602  :     }

	pop	ebp
	ret	0
__LZCNT_ALT_32 ENDP
_TEXT	ENDS
; Function compile flags: /Ogtp
; File z:\sources\lunor\repos\rougemeilland\palmtree.math.core.uint\palmtree.math.core.uint\pmc_inline_func.h
;	COMDAT __SUBTRUCT_UNIT
_TEXT	SEGMENT
_borrow$ = 8						; size = 1
_u$ = 12						; size = 4
_v$ = 16						; size = 4
_w$ = 20						; size = 4
__SUBTRUCT_UNIT PROC					; COMDAT

; 263  :     {

	push	ebp
	mov	ebp, esp

; 264  : #ifdef _M_IX86
; 265  :         return (_subborrow_u32(borrow, u, v, w));

	mov	al, BYTE PTR _borrow$[ebp]
	mov	edx, DWORD PTR _w$[ebp]
	add	al, 255					; 000000ffH
	mov	ecx, DWORD PTR _u$[ebp]
	sbb	ecx, DWORD PTR _v$[ebp]
	setb	al
	mov	DWORD PTR [edx], ecx

; 266  : #elif defined(_M_X64)
; 267  :         return (_subborrow_u64(borrow, u, v, w));
; 268  : #else
; 269  : #error unknown platform
; 270  : #endif
; 271  :     }

	pop	ebp
	ret	0
__SUBTRUCT_UNIT ENDP
_TEXT	ENDS
; Function compile flags: /Ogtp
; File z:\sources\lunor\repos\rougemeilland\palmtree.math.core.uint\palmtree.math.core.uint\pmc_inline_func.h
;	COMDAT __FROMDWORDTOWORD
_TEXT	SEGMENT
_value$ = 8						; size = 8
_result_high$ = 16					; size = 4
__FROMDWORDTOWORD PROC					; COMDAT

; 176  :     {

	push	ebp
	mov	ebp, esp

; 177  :         *result_high = (_UINT32_T)(value >> 32);

	mov	eax, DWORD PTR _result_high$[ebp]
	mov	ecx, DWORD PTR _value$[ebp+4]
	mov	DWORD PTR [eax], ecx

; 178  :         return ((_UINT32_T)value);

	mov	eax, DWORD PTR _value$[ebp]

; 179  :     }

	pop	ebp
	ret	0
__FROMDWORDTOWORD ENDP
_TEXT	ENDS
; Function compile flags: /Ogtp
; File z:\sources\lunor\repos\rougemeilland\palmtree.math.core.uint\palmtree.math.core.uint\pmc_inline_func.h
;	COMDAT __FROMWORDTODWORD
_TEXT	SEGMENT
_value_high$ = 8					; size = 4
_value_low$ = 12					; size = 4
__FROMWORDTODWORD PROC					; COMDAT

; 171  :     {

	push	ebp
	mov	ebp, esp

; 172  :         return (((_UINT64_T)value_high << 32) | value_low);

	mov	edx, DWORD PTR _value_high$[ebp]
	xor	eax, eax
	or	eax, DWORD PTR _value_low$[ebp]

; 173  :     }

	pop	ebp
	ret	0
__FROMWORDTODWORD ENDP
_TEXT	ENDS
; Function compile flags: /Ogtp
; File z:\sources\lunor\repos\rougemeilland\palmtree.math.core.uint\palmtree.math.core.uint\pmc_subtruct.c
;	COMDAT _PMC_Subtruct_X_X@12
_TEXT	SEGMENT
_nz$ = 8						; size = 4
_x$ = 8							; size = 4
_nz_light_check_code$1 = 12				; size = 4
_y$ = 12						; size = 4
_o$ = 16						; size = 4
_PMC_Subtruct_X_X@12 PROC				; COMDAT

; 658  : {

	push	ebp
	mov	ebp, esp
	push	ebx
	push	esi

; 659  :     if (x == NULL)

	mov	esi, DWORD PTR _x$[ebp]
	push	edi
	test	esi, esi
	je	$LN20@PMC_Subtru

; 660  :         return (PMC_STATUS_ARGUMENT_ERROR);
; 661  :     if (y == NULL)

	mov	edi, DWORD PTR _y$[ebp]
	test	edi, edi
	je	$LN20@PMC_Subtru

; 662  :         return (PMC_STATUS_ARGUMENT_ERROR);
; 663  :     if (o == NULL)

	mov	ebx, DWORD PTR _o$[ebp]
	test	ebx, ebx
	je	$LN20@PMC_Subtru

; 665  :     NUMBER_HEADER* nx = (NUMBER_HEADER*)x;
; 666  :     NUMBER_HEADER* ny = (NUMBER_HEADER*)y;
; 667  :     PMC_STATUS_CODE result;
; 668  :     if ((result = CheckNumber(nx)) != PMC_STATUS_OK)

	push	esi
	call	_CheckNumber
	add	esp, 4
	test	eax, eax
	jne	$LN1@PMC_Subtru

; 669  :         return (result);
; 670  :     if ((result = CheckNumber(ny)) != PMC_STATUS_OK)

	push	edi
	call	_CheckNumber
	add	esp, 4
	test	eax, eax
	jne	$LN1@PMC_Subtru

; 671  :         return (result);
; 672  :     NUMBER_HEADER* nz;
; 673  :     if (nx->IS_ZERO)

	mov	eax, DWORD PTR [edi]
	and	eax, 1
	test	BYTE PTR [esi], 1
	je	SHORT $LN7@PMC_Subtru

; 674  :     {
; 675  :         if (ny->IS_ZERO)

	test	eax, eax
	je	SHORT $LN19@PMC_Subtru

; 734  : }

	pop	edi
	pop	esi
	mov	DWORD PTR [ebx], OFFSET _number_zero
	xor	eax, eax
	pop	ebx
	pop	ebp
	ret	12					; 0000000cH
$LN7@PMC_Subtru:

; 676  :         {
; 677  :             // y が 0 である場合
; 678  : 
; 679  :             // x と y がともに 0 であるので、演算結果の 0 を呼び出し元に返す。
; 680  :             *o = (PMC_HANDLE_UINT)&number_zero;
; 681  :         }
; 682  :         else
; 683  :         {
; 684  :             // y が 0 ではない場合
; 685  : 
; 686  :             // 演算結果は負となってしまうのでエラーを返す。
; 687  :             return (PMC_STATUS_OVERFLOW);
; 688  :         }
; 689  :     }
; 690  :     else
; 691  :     {
; 692  :         // x が 0 ではない場合
; 693  : 
; 694  :         if (ny->IS_ZERO)

	test	eax, eax
	je	SHORT $LN11@PMC_Subtru

; 695  :         {
; 696  :             // y が 0 である場合
; 697  : 
; 698  :             // 演算結果となる x の値を持つ NUMBER_HEADER 構造体を獲得し、呼び出し元へ返す。
; 699  :             if ((result = DuplicateNumber(nx, &nz)) != PMC_STATUS_OK)

	lea	eax, DWORD PTR _nz$[ebp]
	push	eax
	push	esi
	call	_DuplicateNumber
	add	esp, 8
	test	eax, eax
	je	$LN12@PMC_Subtru

; 734  : }

	pop	edi
	pop	esi
	pop	ebx
	pop	ebp
	ret	12					; 0000000cH
$LN11@PMC_Subtru:

; 700  :                 return (result);
; 701  :         }
; 702  :         else
; 703  :         {
; 704  :             // x と y がともに 0 ではない場合
; 705  : 
; 706  :             // x と y の差を計算する
; 707  :             __UNIT_TYPE x_bit_count = nx->UNIT_BIT_COUNT;

	mov	eax, DWORD PTR [esi+16]

; 708  :             __UNIT_TYPE y_bit_count = ny->UNIT_BIT_COUNT;
; 709  :             if (x_bit_count < y_bit_count)

	cmp	eax, DWORD PTR [edi+16]
	jae	SHORT $LN14@PMC_Subtru
$LN19@PMC_Subtru:
	pop	edi

; 734  : }

	pop	esi
	mov	eax, -2					; fffffffeH
	pop	ebx
	pop	ebp
	ret	12					; 0000000cH
$LN14@PMC_Subtru:

; 710  :             {
; 711  :                 // 演算結果は負となってしまうのでエラーを返す。
; 712  :                 return (PMC_STATUS_OVERFLOW);
; 713  :             }
; 714  :             __UNIT_TYPE z_bit_count = x_bit_count;
; 715  :             __UNIT_TYPE nz_light_check_code;
; 716  :             if ((result = AllocateNumber(&nz, z_bit_count, &nz_light_check_code)) != PMC_STATUS_OK)

	lea	ecx, DWORD PTR _nz_light_check_code$1[ebp]
	push	ecx
	push	eax
	lea	eax, DWORD PTR _nz$[ebp]
	push	eax
	call	_AllocateNumber
	add	esp, 12					; 0000000cH
	test	eax, eax
	jne	SHORT $LN1@PMC_Subtru

; 717  :                 return (result);
; 718  :             if ((result = Subtruct_Imp(nx->BLOCK, nx->UNIT_WORD_COUNT, ny->BLOCK, ny->UNIT_WORD_COUNT, nz->BLOCK, nz->BLOCK_COUNT)) != PMC_STATUS_OK)

	mov	eax, DWORD PTR _nz$[ebp]
	push	DWORD PTR [eax+32]
	push	DWORD PTR [eax+36]
	push	DWORD PTR [edi+12]
	push	DWORD PTR [edi+36]
	push	DWORD PTR [esi+12]
	push	DWORD PTR [esi+36]
	call	_Subtruct_Imp
	mov	esi, eax
	add	esp, 24					; 00000018H
	test	esi, esi
	je	SHORT $LN16@PMC_Subtru

; 719  :             {
; 720  :                 DeallocateNumber(nz);

	push	DWORD PTR _nz$[ebp]
	call	_DeallocateNumber
	add	esp, 4

; 721  :                 return (result == PMC_STATUS_INTERNAL_BORROW ? PMC_STATUS_OVERFLOW : result);

	mov	eax, -2					; fffffffeH
	cmp	esi, -258				; fffffefeH
	cmove	esi, eax
	pop	edi
	mov	eax, esi

; 734  : }

	pop	esi
	pop	ebx
	pop	ebp
	ret	12					; 0000000cH
$LN16@PMC_Subtru:

; 722  :             }
; 723  :             if ((result = CheckBlockLight(nz->BLOCK, nz_light_check_code)) != PMC_STATUS_OK)

	mov	eax, DWORD PTR _nz$[ebp]
	push	DWORD PTR _nz_light_check_code$1[ebp]
	push	DWORD PTR [eax+36]
	call	_CheckBlockLight
	add	esp, 8
	test	eax, eax
	jne	SHORT $LN1@PMC_Subtru

; 724  :                 return (result);
; 725  :             CommitNumber(nz);

	push	DWORD PTR _nz$[ebp]
	call	_CommitNumber
	add	esp, 4
$LN12@PMC_Subtru:

; 726  :         }
; 727  :         *o = (PMC_HANDLE_UINT)nz;

	mov	eax, DWORD PTR _nz$[ebp]
	pop	edi
	mov	DWORD PTR [ebx], eax

; 728  :     }
; 729  : #ifdef _DEBUG
; 730  :     if ((result = CheckNumber((NUMBER_HEADER*)*o)) != PMC_STATUS_OK)
; 731  :         return (result);
; 732  : #endif
; 733  :     return (PMC_STATUS_OK);

	xor	eax, eax

; 734  : }

	pop	esi
	pop	ebx
	pop	ebp
	ret	12					; 0000000cH
$LN20@PMC_Subtru:

; 664  :         return (PMC_STATUS_ARGUMENT_ERROR);

	or	eax, -1
$LN1@PMC_Subtru:
	pop	edi

; 734  : }

	pop	esi
	pop	ebx
	pop	ebp
	ret	12					; 0000000cH
_PMC_Subtruct_X_X@12 ENDP
_TEXT	ENDS
; Function compile flags: /Ogtp
; File z:\sources\lunor\repos\rougemeilland\palmtree.math.core.uint\palmtree.math.core.uint\pmc_subtruct.c
; File z:\sources\lunor\repos\rougemeilland\palmtree.math.core.uint\palmtree.math.core.uint\pmc_inline_func.h
; File z:\sources\lunor\repos\rougemeilland\palmtree.math.core.uint\palmtree.math.core.uint\pmc_subtruct.c
; File z:\sources\lunor\repos\rougemeilland\palmtree.math.core.uint\palmtree.math.core.uint\pmc_inline_func.h
; File z:\sources\lunor\repos\rougemeilland\palmtree.math.core.uint\palmtree.math.core.uint\pmc_subtruct.c
; File z:\sources\lunor\repos\rougemeilland\palmtree.math.core.uint\palmtree.math.core.uint\pmc_inline_func.h
; File z:\sources\lunor\repos\rougemeilland\palmtree.math.core.uint\palmtree.math.core.uint\pmc_subtruct.c
; File z:\sources\lunor\repos\rougemeilland\palmtree.math.core.uint\palmtree.math.core.uint\pmc_inline_func.h
; File z:\sources\lunor\repos\rougemeilland\palmtree.math.core.uint\palmtree.math.core.uint\pmc_subtruct.c
; File z:\sources\lunor\repos\rougemeilland\palmtree.math.core.uint\palmtree.math.core.uint\pmc_inline_func.h
; File z:\sources\lunor\repos\rougemeilland\palmtree.math.core.uint\palmtree.math.core.uint\pmc_subtruct.c
;	COMDAT _PMC_Subtruct_X_L@16
_TEXT	SEGMENT
_nz_light_check_code$1 = -12				; size = 4
_u_count$1$ = -8					; size = 4
_w_count$1$ = -4					; size = 4
_nz$ = 8						; size = 4
_x$ = 8							; size = 4
_y$ = 12						; size = 8
_wp$1$ = 20						; size = 4
_c$2 = 20						; size = 1
_nz_light_check_code$3 = 20				; size = 4
_o$ = 20						; size = 4
_PMC_Subtruct_X_L@16 PROC				; COMDAT

; 517  : {

	push	ebp
	mov	ebp, esp
	sub	esp, 12					; 0000000cH
	push	esi

; 518  :     if (__UNIT_TYPE_BIT_COUNT * 2 < sizeof(y) * 8)
; 519  :     {
; 520  :         // _UINT64_T が 2 ワードで表現しきれない処理系には対応しない
; 521  :         return (PMC_STATUS_INTERNAL_ERROR);
; 522  :     }
; 523  :     if (x == NULL)

	mov	esi, DWORD PTR _x$[ebp]
	push	edi
	test	esi, esi
	je	$LN43@PMC_Subtru

; 524  :         return (PMC_STATUS_ARGUMENT_ERROR);
; 525  :     if (o == NULL)

	mov	edi, DWORD PTR _o$[ebp]
	test	edi, edi
	je	$LN43@PMC_Subtru

; 527  :     NUMBER_HEADER* nx = (NUMBER_HEADER*)x;
; 528  :     PMC_STATUS_CODE result;
; 529  :     if ((result = CheckNumber(nx)) != PMC_STATUS_OK)

	push	esi
	call	_CheckNumber
	add	esp, 4
	test	eax, eax
	jne	$LN1@PMC_Subtru

; 530  :         return (result);
; 531  :     NUMBER_HEADER* nz;
; 532  :     if (nx->IS_ZERO)

	test	BYTE PTR [esi], 1
	push	ebx
	je	SHORT $LN6@PMC_Subtru

; 533  :     {
; 534  :         // x が 0 である場合
; 535  : 
; 536  :         if (y == 0)

	mov	eax, DWORD PTR _y$[ebp]
	or	eax, DWORD PTR _y$[ebp+4]
	jne	$LN42@PMC_Subtru

; 537  :         {
; 538  :             // y が 0 である場合
; 539  : 
; 540  :             // x と y がともに 0 であるので、演算結果の 0 を呼び出し元に返す。
; 541  :             *o = (PMC_HANDLE_UINT)&number_zero;

	pop	ebx
	mov	DWORD PTR [edi], OFFSET _number_zero
	pop	edi

; 655  : }

	pop	esi
	mov	esp, ebp
	pop	ebp
	ret	16					; 00000010H
$LN6@PMC_Subtru:

; 542  :         }
; 543  :         else
; 544  :         {
; 545  :             // y が 0 ではない場合
; 546  : 
; 547  :             // 演算結果は負となってしまうのでエラーを返す。
; 548  :             return (PMC_STATUS_OVERFLOW);
; 549  :         }
; 550  :     }
; 551  :     else
; 552  :     {
; 553  :         // x が 0 ではない場合
; 554  : 
; 555  :         if (y == 0)

	mov	ecx, DWORD PTR _y$[ebp]
	mov	eax, ecx
	mov	ebx, DWORD PTR _y$[ebp+4]
	or	eax, ebx
	jne	SHORT $LN10@PMC_Subtru

; 556  :         {
; 557  :             // y が 0 である場合
; 558  : 
; 559  :             // 演算結果となる x の値を持つ NUMBER_HEADER 構造体を獲得し、呼び出し元へ返す。
; 560  :             if ((result = DuplicateNumber(nx, &nz)) != PMC_STATUS_OK)

	lea	eax, DWORD PTR _nz$[ebp]
	push	eax
	push	esi
	call	_DuplicateNumber
	add	esp, 8
	test	eax, eax
	jne	$LN45@PMC_Subtru
	mov	eax, DWORD PTR _nz$[ebp]
	pop	ebx

; 646  :             }
; 647  :         }
; 648  :         *o = (PMC_HANDLE_UINT)nz;

	mov	DWORD PTR [edi], eax

; 649  :     }
; 650  : #ifdef _DEBUG
; 651  :     if ((result = CheckNumber((NUMBER_HEADER*)*o)) != PMC_STATUS_OK)
; 652  :         return (result);
; 653  : #endif
; 654  :     return (PMC_STATUS_OK);

	xor	eax, eax
	pop	edi

; 655  : }

	pop	esi
	mov	esp, ebp
	pop	ebp
	ret	16					; 00000010H
$LN10@PMC_Subtru:

; 561  :                 return (result);
; 562  :         }
; 563  :         else
; 564  :         {
; 565  :             // x と y がともに 0 ではない場合
; 566  : 
; 567  :             // x と y の差を計算する
; 568  :             if (__UNIT_TYPE_BIT_COUNT < sizeof(y) * 8)
; 569  :             {
; 570  :                 // _UINT64_T が 1 ワードで表現しきれない場合
; 571  : 
; 572  :                 __UNIT_TYPE x_bit_count = nx->UNIT_BIT_COUNT;

	mov	edx, DWORD PTR [esi+16]

; 573  :                 _UINT32_T y_hi;
; 574  :                 _UINT32_T y_lo = _FROMDWORDTOWORD(y, &y_hi);
; 575  :                 if (y_hi == 0)

	test	ebx, ebx
	jne	SHORT $LN15@PMC_Subtru

; 576  :                 {
; 577  :                     // y の値が 32bit で表現可能な場合
; 578  :                     __UNIT_TYPE y_bit_count = sizeof(y_lo) * 8 - _LZCNT_ALT_32(y_lo);

	push	ecx
	call	__LZCNT_ALT_32
	mov	ecx, 32					; 00000020H
	add	esp, 4
	sub	ecx, eax

; 579  :                     if (x_bit_count < y_bit_count)

	cmp	edx, ecx
	jb	SHORT $LN42@PMC_Subtru

; 580  :                     {
; 581  :                         // 演算結果は負となってしまうのでエラーを返す。
; 582  :                         return (PMC_STATUS_OVERFLOW);
; 583  :                     }
; 584  :                     __UNIT_TYPE z_bit_count = x_bit_count;
; 585  :                     __UNIT_TYPE nz_light_check_code;
; 586  :                     if ((result = AllocateNumber(&nz, z_bit_count, &nz_light_check_code)) != PMC_STATUS_OK)

	lea	eax, DWORD PTR _nz_light_check_code$3[ebp]
	push	eax
	push	edx
	lea	eax, DWORD PTR _nz$[ebp]
	push	eax
	call	_AllocateNumber
	add	esp, 12					; 0000000cH
	test	eax, eax
	jne	SHORT $LN45@PMC_Subtru

; 587  :                         return (result);
; 588  :                     if ((result = Subtruct_X_1W(nx->BLOCK, nx->UNIT_WORD_COUNT, y_lo, nz->BLOCK, nz->BLOCK_COUNT)) != PMC_STATUS_OK)

	mov	eax, DWORD PTR _nz$[ebp]
	mov	ecx, DWORD PTR _y$[ebp]
	push	DWORD PTR [eax+32]
	push	DWORD PTR [eax+36]
	push	ecx
	push	DWORD PTR [esi+12]
	push	DWORD PTR [esi+36]
	call	_Subtruct_X_1W
	mov	esi, eax
	add	esp, 20					; 00000014H
	test	esi, esi
	je	SHORT $LN19@PMC_Subtru

; 589  :                     {
; 590  :                         DeallocateNumber(nz);

	push	DWORD PTR _nz$[ebp]

; 591  :                         return (result == PMC_STATUS_INTERNAL_BORROW ? PMC_STATUS_OVERFLOW : result);

	jmp	$LN46@PMC_Subtru
$LN19@PMC_Subtru:

; 592  :                     }
; 593  :                     if ((result = CheckBlockLight(nz->BLOCK, nz_light_check_code)) != PMC_STATUS_OK)

	mov	eax, DWORD PTR _nz$[ebp]
	push	DWORD PTR _nz_light_check_code$3[ebp]
	push	DWORD PTR [eax+36]
	call	_CheckBlockLight
	add	esp, 8
	test	eax, eax
	je	$LN24@PMC_Subtru
$LN45@PMC_Subtru:
	pop	ebx
$LN1@PMC_Subtru:
	pop	edi

; 655  : }

	pop	esi
	mov	esp, ebp
	pop	ebp
	ret	16					; 00000010H
$LN15@PMC_Subtru:

; 594  :                         return (result);
; 595  :                 }
; 596  :                 else
; 597  :                 {
; 598  :                     // y の値が 32bit では表現できない場合
; 599  :                     __UNIT_TYPE y_bit_count = sizeof(y) * 8 - _LZCNT_ALT_32(y_hi);

	push	ebx
	call	__LZCNT_ALT_32
	mov	ecx, 64					; 00000040H
	add	esp, 4
	sub	ecx, eax

; 600  :                     if (x_bit_count < y_bit_count)

	cmp	edx, ecx
	jae	SHORT $LN21@PMC_Subtru
$LN42@PMC_Subtru:
	pop	ebx
	pop	edi

; 601  :                     {
; 602  :                         // 演算結果は負となってしまうのでエラーを返す。
; 603  :                         return (PMC_STATUS_OVERFLOW);

	mov	eax, -2					; fffffffeH

; 655  : }

	pop	esi
	mov	esp, ebp
	pop	ebp
	ret	16					; 00000010H
$LN21@PMC_Subtru:

; 604  :                     }
; 605  :                     __UNIT_TYPE z_bit_count = x_bit_count;
; 606  :                     __UNIT_TYPE nz_light_check_code;
; 607  :                     if ((result = AllocateNumber(&nz, z_bit_count, &nz_light_check_code)) != PMC_STATUS_OK)

	lea	eax, DWORD PTR _nz_light_check_code$1[ebp]
	push	eax
	push	edx
	lea	eax, DWORD PTR _nz$[ebp]
	push	eax
	call	_AllocateNumber
	add	esp, 12					; 0000000cH
	test	eax, eax
	jne	SHORT $LN45@PMC_Subtru

; 608  :                         return (result);
; 609  :                     if ((result = Subtruct_X_2W(nx->BLOCK, nx->UNIT_WORD_COUNT, y_hi, y_lo, nz->BLOCK, nz->BLOCK_COUNT)) != PMC_STATUS_OK)

	mov	eax, DWORD PTR _nz$[ebp]
	mov	ecx, DWORD PTR [eax+32]
	mov	edx, DWORD PTR [eax+36]
	mov	DWORD PTR _w_count$1$[ebp], ecx
	mov	ecx, DWORD PTR [esi+12]
	mov	DWORD PTR _wp$1$[ebp], edx
	mov	DWORD PTR _u_count$1$[ebp], ecx

; 92   :     if (u_count < 2)

	cmp	ecx, 2
	jae	SHORT $LN34@PMC_Subtru

; 93   :     {
; 94   :         // u が 1 ワードしかなかった場合
; 95   : 
; 96   :         // 明らかに演算結果が負になるのでエラーを通知する。
; 97   :         return (PMC_STATUS_INTERNAL_BORROW);

	mov	esi, -258				; fffffefeH
	jmp	SHORT $LN41@PMC_Subtru
$LN34@PMC_Subtru:

; 608  :                         return (result);
; 609  :                     if ((result = Subtruct_X_2W(nx->BLOCK, nx->UNIT_WORD_COUNT, y_hi, y_lo, nz->BLOCK, nz->BLOCK_COUNT)) != PMC_STATUS_OK)

	mov	esi, DWORD PTR [esi+36]
; File z:\sources\lunor\repos\rougemeilland\palmtree.math.core.uint\palmtree.math.core.uint\pmc_inline_func.h

; 265  :         return (_subborrow_u32(borrow, u, v, w));

	mov	ecx, DWORD PTR _wp$1$[ebp]
; File z:\sources\lunor\repos\rougemeilland\palmtree.math.core.uint\palmtree.math.core.uint\pmc_subtruct.c

; 104  :         char c = _SUBTRUCT_UNIT(0, *up++, v_lo, wp++);

	mov	eax, DWORD PTR [esi]
; File z:\sources\lunor\repos\rougemeilland\palmtree.math.core.uint\palmtree.math.core.uint\pmc_inline_func.h

; 265  :         return (_subborrow_u32(borrow, u, v, w));

	sub	eax, DWORD PTR _y$[ebp]
	mov	DWORD PTR [ecx], eax
	setb	dl
; File z:\sources\lunor\repos\rougemeilland\palmtree.math.core.uint\palmtree.math.core.uint\pmc_subtruct.c

; 104  :         char c = _SUBTRUCT_UNIT(0, *up++, v_lo, wp++);

	add	ecx, 4
	mov	DWORD PTR _wp$1$[ebp], ecx
; File z:\sources\lunor\repos\rougemeilland\palmtree.math.core.uint\palmtree.math.core.uint\pmc_inline_func.h

; 265  :         return (_subborrow_u32(borrow, u, v, w));

	add	dl, 255					; 000000ffH
; File z:\sources\lunor\repos\rougemeilland\palmtree.math.core.uint\palmtree.math.core.uint\pmc_subtruct.c

; 107  :         c = _SUBTRUCT_UNIT(c, *up++, v_hi, wp++);

	mov	ecx, DWORD PTR [esi+4]
; File z:\sources\lunor\repos\rougemeilland\palmtree.math.core.uint\palmtree.math.core.uint\pmc_inline_func.h

; 265  :         return (_subborrow_u32(borrow, u, v, w));

	mov	edx, DWORD PTR _wp$1$[ebp]
	sbb	ecx, ebx
	setb	al
; File z:\sources\lunor\repos\rougemeilland\palmtree.math.core.uint\palmtree.math.core.uint\pmc_subtruct.c

; 107  :         c = _SUBTRUCT_UNIT(c, *up++, v_hi, wp++);

	mov	BYTE PTR _c$2[ebp], al

; 108  :         u_count -= 2;
; 109  :         w_count -= 2;

	mov	eax, DWORD PTR _w_count$1$[ebp]
	add	eax, -2					; fffffffeH
; File z:\sources\lunor\repos\rougemeilland\palmtree.math.core.uint\palmtree.math.core.uint\pmc_inline_func.h

; 265  :         return (_subborrow_u32(borrow, u, v, w));

	mov	DWORD PTR [edx], ecx
; File z:\sources\lunor\repos\rougemeilland\palmtree.math.core.uint\palmtree.math.core.uint\pmc_subtruct.c

; 112  :         return (DoBorrow(c, up, u_count, wp, w_count));

	push	eax
	lea	eax, DWORD PTR [edx+4]
	push	eax
	mov	eax, DWORD PTR _u_count$1$[ebp]
	add	eax, -2					; fffffffeH
	push	eax
	lea	eax, DWORD PTR [esi+8]
	push	eax
	push	DWORD PTR _c$2[ebp]
	call	_DoBorrow
	mov	esi, eax
	add	esp, 20					; 00000014H

; 608  :                         return (result);
; 609  :                     if ((result = Subtruct_X_2W(nx->BLOCK, nx->UNIT_WORD_COUNT, y_hi, y_lo, nz->BLOCK, nz->BLOCK_COUNT)) != PMC_STATUS_OK)

	mov	eax, DWORD PTR _nz$[ebp]
	test	esi, esi
	je	SHORT $LN23@PMC_Subtru
$LN41@PMC_Subtru:

; 610  :                     {
; 611  :                         DeallocateNumber(nz);

	push	eax
$LN46@PMC_Subtru:
	call	_DeallocateNumber
	add	esp, 4

; 612  :                         return (result == PMC_STATUS_INTERNAL_BORROW ? PMC_STATUS_OVERFLOW : result);

	mov	eax, -2					; fffffffeH
	cmp	esi, -258				; fffffefeH
	cmove	esi, eax
	pop	ebx
	pop	edi
	mov	eax, esi

; 655  : }

	pop	esi
	mov	esp, ebp
	pop	ebp
	ret	16					; 00000010H
$LN23@PMC_Subtru:

; 613  :                     }
; 614  :                     if ((result = CheckBlockLight(nz->BLOCK, nz_light_check_code)) != PMC_STATUS_OK)

	push	DWORD PTR _nz_light_check_code$1[ebp]
	push	DWORD PTR [eax+36]
	call	_CheckBlockLight
	add	esp, 8
	test	eax, eax
	jne	$LN45@PMC_Subtru
$LN24@PMC_Subtru:

; 615  :                         return (result);
; 616  :                 }
; 617  :             }
; 618  :             else
; 619  :             {
; 620  :                 // _UINT64_T が 1 ワードで表現できる場合
; 621  : 
; 622  :                 __UNIT_TYPE x_bit_count = nx->UNIT_BIT_COUNT;
; 623  :                 __UNIT_TYPE y_bit_count = sizeof(y) * 8 - _LZCNT_ALT_UNIT((__UNIT_TYPE)y);
; 624  :                 if (x_bit_count < y_bit_count)
; 625  :                 {
; 626  :                     // 演算結果は負となってしまうのでエラーを返す。
; 627  :                     return (PMC_STATUS_OVERFLOW);
; 628  :                 }
; 629  :                 __UNIT_TYPE z_bit_count = x_bit_count;
; 630  :                 __UNIT_TYPE nz_light_check_code;
; 631  :                 if ((result = AllocateNumber(&nz, z_bit_count, &nz_light_check_code)) != PMC_STATUS_OK)
; 632  :                     return (result);
; 633  :                 if ((result = Subtruct_X_1W(nx->BLOCK, nx->UNIT_WORD_COUNT, (__UNIT_TYPE)y, nz->BLOCK, nz->BLOCK_COUNT)) != PMC_STATUS_OK)
; 634  :                 {
; 635  :                     DeallocateNumber(nz);
; 636  :                     return (result == PMC_STATUS_INTERNAL_BORROW ? PMC_STATUS_OVERFLOW : result);
; 637  :                 }
; 638  :                 if ((result = CheckBlockLight(nz->BLOCK, nz_light_check_code)) != PMC_STATUS_OK)
; 639  :                     return (result);
; 640  :             }
; 641  :             CommitNumber(nz);

	push	DWORD PTR _nz$[ebp]
	call	_CommitNumber

; 642  :             if (nz->IS_ZERO)

	mov	eax, DWORD PTR _nz$[ebp]
	add	esp, 4
	test	BYTE PTR [eax], 1
	je	SHORT $LN29@PMC_Subtru

; 643  :             {
; 644  :                 DeallocateNumber(nz);

	push	eax
	call	_DeallocateNumber
	add	esp, 4

; 645  :                 nz = &number_zero;

	mov	eax, OFFSET _number_zero
$LN29@PMC_Subtru:

; 646  :             }
; 647  :         }
; 648  :         *o = (PMC_HANDLE_UINT)nz;

	pop	ebx
	mov	DWORD PTR [edi], eax

; 649  :     }
; 650  : #ifdef _DEBUG
; 651  :     if ((result = CheckNumber((NUMBER_HEADER*)*o)) != PMC_STATUS_OK)
; 652  :         return (result);
; 653  : #endif
; 654  :     return (PMC_STATUS_OK);

	xor	eax, eax
	pop	edi

; 655  : }

	pop	esi
	mov	esp, ebp
	pop	ebp
	ret	16					; 00000010H
$LN43@PMC_Subtru:
	pop	edi

; 526  :         return (PMC_STATUS_ARGUMENT_ERROR);

	or	eax, -1

; 655  : }

	pop	esi
	mov	esp, ebp
	pop	ebp
	ret	16					; 00000010H
_PMC_Subtruct_X_L@16 ENDP
_TEXT	ENDS
; Function compile flags: /Ogtp
; File z:\sources\lunor\repos\rougemeilland\palmtree.math.core.uint\palmtree.math.core.uint\pmc_subtruct.c
;	COMDAT _PMC_Subtruct_X_I@12
_TEXT	SEGMENT
_nw$ = 8						; size = 4
_u$ = 8							; size = 4
_w_light_check_code$1 = 12				; size = 4
_v$ = 12						; size = 4
_w$ = 16						; size = 4
_PMC_Subtruct_X_I@12 PROC				; COMDAT

; 262  : {

	push	ebp
	mov	ebp, esp
	push	esi

; 263  :     if (__UNIT_TYPE_BIT_COUNT < sizeof(v) * 8)
; 264  :     {
; 265  :         // _UINT32_T が 1 ワードで表現しきれない処理系には対応しない
; 266  :         return (PMC_STATUS_INTERNAL_ERROR);
; 267  :     }
; 268  :     if (u == NULL)

	mov	esi, DWORD PTR _u$[ebp]
	push	edi
	test	esi, esi
	je	$LN20@PMC_Subtru

; 269  :         return (PMC_STATUS_ARGUMENT_ERROR);
; 270  :     if (w == NULL)

	mov	edi, DWORD PTR _w$[ebp]
	test	edi, edi
	je	$LN20@PMC_Subtru

; 272  :     NUMBER_HEADER* nu = (NUMBER_HEADER*)u;
; 273  :     PMC_STATUS_CODE result;
; 274  :     if ((result = CheckNumber(nu)) != PMC_STATUS_OK)

	push	esi
	call	_CheckNumber
	add	esp, 4
	test	eax, eax
	jne	SHORT $LN1@PMC_Subtru

; 275  :         return (result);
; 276  :     NUMBER_HEADER* nw;
; 277  :     if (nu->IS_ZERO)

	test	BYTE PTR [esi], 1
	push	ebx
	je	SHORT $LN6@PMC_Subtru

; 278  :     {
; 279  :         // u が 0 である場合
; 280  : 
; 281  :         if (v == 0)

	cmp	DWORD PTR _v$[ebp], eax
	jne	SHORT $LN19@PMC_Subtru

; 282  :         {
; 283  :             // v が 0 である場合
; 284  : 
; 285  :             // u と v がともに 0 であるので、演算結果の 0 を呼び出し元に返す。
; 286  :             *w = (PMC_HANDLE_UINT)&number_zero;

	pop	ebx
	mov	DWORD PTR [edi], OFFSET _number_zero
	pop	edi

; 345  : }

	pop	esi
	pop	ebp
	ret	12					; 0000000cH
$LN6@PMC_Subtru:

; 287  :         }
; 288  :         else
; 289  :         {
; 290  :             // v が 0 ではない場合
; 291  : 
; 292  :             // 演算結果は負となってしまうのでエラーを返す。
; 293  :             return (PMC_STATUS_OVERFLOW);
; 294  :         }
; 295  :     }
; 296  :     else
; 297  :     {
; 298  :         // u が 0 ではない場合
; 299  : 
; 300  :         if (v == 0)

	mov	ebx, DWORD PTR _v$[ebp]
	test	ebx, ebx
	jne	SHORT $LN10@PMC_Subtru

; 301  :         {
; 302  :             // v が 0 である場合
; 303  : 
; 304  :             // 演算結果となる x の値を持つ NUMBER_HEADER 構造体を獲得し、呼び出し元へ返す。
; 305  :             if ((result = DuplicateNumber(nu, &nw)) != PMC_STATUS_OK)

	lea	eax, DWORD PTR _nw$[ebp]
	push	eax
	push	esi
	call	_DuplicateNumber
	add	esp, 8
	test	eax, eax
	jne	SHORT $LN22@PMC_Subtru
	mov	eax, DWORD PTR _nw$[ebp]
	pop	ebx

; 336  :             }
; 337  :         }
; 338  :         *w = (PMC_HANDLE_UINT)nw;

	mov	DWORD PTR [edi], eax

; 339  :     }
; 340  : #ifdef _DEBUG
; 341  :     if ((result = CheckNumber((NUMBER_HEADER*)*w)) != PMC_STATUS_OK)
; 342  :         return (result);
; 343  : #endif
; 344  :     return (PMC_STATUS_OK);

	xor	eax, eax
	pop	edi

; 345  : }

	pop	esi
	pop	ebp
	ret	12					; 0000000cH
$LN10@PMC_Subtru:

; 306  :                 return (result);
; 307  :         }
; 308  :         else
; 309  :         {
; 310  :             // u と v がともに 0 ではない場合
; 311  : 
; 312  :             // u と v の差を計算する
; 313  :             __UNIT_TYPE u_bit_count = nu->UNIT_BIT_COUNT;

	mov	edx, DWORD PTR [esi+16]

; 314  :             __UNIT_TYPE v_bit_count = sizeof(v) * 8 - _LZCNT_ALT_32(v);

	push	ebx
	call	__LZCNT_ALT_32
	mov	ecx, 32					; 00000020H
	add	esp, 4
	sub	ecx, eax

; 315  :             if (u_bit_count < v_bit_count)

	cmp	edx, ecx
	jae	SHORT $LN13@PMC_Subtru
$LN19@PMC_Subtru:

; 316  :             {
; 317  :                 // 演算結果は負となってしまうのでエラーを返す。
; 318  :                 return (PMC_STATUS_OVERFLOW);

	mov	eax, -2					; fffffffeH
$LN22@PMC_Subtru:
	pop	ebx
$LN1@PMC_Subtru:
	pop	edi

; 345  : }

	pop	esi
	pop	ebp
	ret	12					; 0000000cH
$LN13@PMC_Subtru:

; 319  :             }
; 320  :             __UNIT_TYPE w_bit_count = u_bit_count;
; 321  :             __UNIT_TYPE w_light_check_code;
; 322  :             if ((result = AllocateNumber(&nw, w_bit_count, &w_light_check_code)) != PMC_STATUS_OK)

	lea	eax, DWORD PTR _w_light_check_code$1[ebp]
	push	eax
	push	edx
	lea	eax, DWORD PTR _nw$[ebp]
	push	eax
	call	_AllocateNumber
	add	esp, 12					; 0000000cH
	test	eax, eax
	jne	SHORT $LN22@PMC_Subtru

; 323  :                 return (result);
; 324  :             if ((result = Subtruct_X_1W(nu->BLOCK, nu->UNIT_WORD_COUNT, v, nw->BLOCK, nw->BLOCK_COUNT)) != PMC_STATUS_OK)

	mov	eax, DWORD PTR _nw$[ebp]
	push	DWORD PTR [eax+32]
	push	DWORD PTR [eax+36]
	push	ebx
	push	DWORD PTR [esi+12]
	push	DWORD PTR [esi+36]
	call	_Subtruct_X_1W
	mov	esi, eax
	add	esp, 20					; 00000014H
	test	esi, esi
	je	SHORT $LN15@PMC_Subtru

; 325  :             {
; 326  :                 DeallocateNumber(nw);

	push	DWORD PTR _nw$[ebp]
	call	_DeallocateNumber
	add	esp, 4

; 327  :                 return (result == PMC_STATUS_INTERNAL_BORROW ? PMC_STATUS_OVERFLOW : result);

	mov	eax, -2					; fffffffeH
	cmp	esi, -258				; fffffefeH
	cmove	esi, eax
	pop	ebx
	pop	edi
	mov	eax, esi

; 345  : }

	pop	esi
	pop	ebp
	ret	12					; 0000000cH
$LN15@PMC_Subtru:

; 328  :             }
; 329  :             if ((result = CheckBlockLight(nw->BLOCK, w_light_check_code)) != PMC_STATUS_OK)

	mov	eax, DWORD PTR _nw$[ebp]
	push	DWORD PTR _w_light_check_code$1[ebp]
	push	DWORD PTR [eax+36]
	call	_CheckBlockLight
	add	esp, 8
	test	eax, eax
	jne	SHORT $LN22@PMC_Subtru

; 330  :                 return (result);
; 331  :             CommitNumber(nw);

	push	DWORD PTR _nw$[ebp]
	call	_CommitNumber

; 332  :             if (nw->IS_ZERO)

	mov	eax, DWORD PTR _nw$[ebp]
	add	esp, 4
	test	BYTE PTR [eax], 1
	je	SHORT $LN17@PMC_Subtru

; 333  :             {
; 334  :                 DeallocateNumber(nw);

	push	eax
	call	_DeallocateNumber
	add	esp, 4

; 335  :                 nw = &number_zero;

	mov	eax, OFFSET _number_zero
$LN17@PMC_Subtru:

; 336  :             }
; 337  :         }
; 338  :         *w = (PMC_HANDLE_UINT)nw;

	pop	ebx
	mov	DWORD PTR [edi], eax

; 339  :     }
; 340  : #ifdef _DEBUG
; 341  :     if ((result = CheckNumber((NUMBER_HEADER*)*w)) != PMC_STATUS_OK)
; 342  :         return (result);
; 343  : #endif
; 344  :     return (PMC_STATUS_OK);

	xor	eax, eax
	pop	edi

; 345  : }

	pop	esi
	pop	ebp
	ret	12					; 0000000cH
$LN20@PMC_Subtru:
	pop	edi

; 271  :         return (PMC_STATUS_ARGUMENT_ERROR);

	or	eax, -1

; 345  : }

	pop	esi
	pop	ebp
	ret	12					; 0000000cH
_PMC_Subtruct_X_I@12 ENDP
_TEXT	ENDS
; Function compile flags: /Ogtp
; File z:\sources\lunor\repos\rougemeilland\palmtree.math.core.uint\palmtree.math.core.uint\pmc_subtruct.c
; File z:\sources\lunor\repos\rougemeilland\palmtree.math.core.uint\palmtree.math.core.uint\pmc_inline_func.h
; File z:\sources\lunor\repos\rougemeilland\palmtree.math.core.uint\palmtree.math.core.uint\pmc_subtruct.c
; File z:\sources\lunor\repos\rougemeilland\palmtree.math.core.uint\palmtree.math.core.uint\pmc_inline_func.h
; File z:\sources\lunor\repos\rougemeilland\palmtree.math.core.uint\palmtree.math.core.uint\pmc_subtruct.c
; File z:\sources\lunor\repos\rougemeilland\palmtree.math.core.uint\palmtree.math.core.uint\pmc_inline_func.h
; File z:\sources\lunor\repos\rougemeilland\palmtree.math.core.uint\palmtree.math.core.uint\pmc_subtruct.c
; File z:\sources\lunor\repos\rougemeilland\palmtree.math.core.uint\palmtree.math.core.uint\pmc_inline_func.h
; File z:\sources\lunor\repos\rougemeilland\palmtree.math.core.uint\palmtree.math.core.uint\pmc_subtruct.c
; File z:\sources\lunor\repos\rougemeilland\palmtree.math.core.uint\palmtree.math.core.uint\pmc_inline_func.h
; File z:\sources\lunor\repos\rougemeilland\palmtree.math.core.uint\palmtree.math.core.uint\pmc_subtruct.c
;	COMDAT _PMC_Subtruct_L_X@16
_TEXT	SEGMENT
$T1 = 8							; size = 8
_u$ = 8							; size = 8
_temp_w_lo$1$ = 16					; size = 4
_v$ = 16						; size = 4
_w$ = 20						; size = 4
_PMC_Subtruct_L_X@16 PROC				; COMDAT

; 348  : {

	push	ebp
	mov	ebp, esp
	push	ebx
	push	edi

; 349  :     if (__UNIT_TYPE_BIT_COUNT * 2 < sizeof(u) * 8)
; 350  :     {
; 351  :         // _UINT64_T が 2 ワードで表現しきれない処理系には対応しない
; 352  :         return (PMC_STATUS_INTERNAL_ERROR);
; 353  :     }
; 354  :     if (v == NULL)

	mov	edi, DWORD PTR _v$[ebp]
	test	edi, edi
	je	$LN46@PMC_Subtru

; 355  :         return (PMC_STATUS_ARGUMENT_ERROR);
; 356  :     if (w == NULL)

	mov	ebx, DWORD PTR _w$[ebp]
	test	ebx, ebx
	je	$LN46@PMC_Subtru

; 358  :     NUMBER_HEADER* nv = (NUMBER_HEADER*)v;
; 359  :     PMC_STATUS_CODE result;
; 360  :     if ((result = CheckNumber(nv)) != PMC_STATUS_OK)

	push	edi
	call	_CheckNumber
	add	esp, 4
	test	eax, eax
	jne	$LN1@PMC_Subtru

; 361  :         return (result);
; 362  :     if (u == 0)

	mov	ecx, DWORD PTR [edi]
	mov	edx, DWORD PTR _u$[ebp+4]
	and	ecx, 1
	push	esi
	mov	esi, DWORD PTR _u$[ebp]
	mov	eax, esi
	or	eax, edx
	jne	SHORT $LN6@PMC_Subtru

; 363  :     {
; 364  :         // u が 0 である場合
; 365  : 
; 366  :         if (nv->IS_ZERO)

	test	ecx, ecx
	je	$LN45@PMC_Subtru

; 367  :         {
; 368  :             // v が 0 である場合
; 369  : 
; 370  :             // x と y がともに 0 であるので、演算結果の 0 を呼び出し元に返す。
; 371  :             *w = 0;

	xorps	xmm0, xmm0
	movlpd	QWORD PTR $T1[ebp], xmm0

; 372  :         }
; 373  :         else
; 374  :         {
; 375  :             // v が 0 ではない場合
; 376  : 
; 377  :             // 演算結果は負となってしまうのでエラーを返す。
; 378  :             return (PMC_STATUS_OVERFLOW);
; 379  :         }
; 380  :     }

	mov	esi, DWORD PTR $T1[ebp]
	mov	edx, DWORD PTR $T1[ebp+4]

; 513  :     return (PMC_STATUS_OK);

	mov	DWORD PTR [ebx], esi
	pop	esi
	pop	edi
	mov	DWORD PTR [ebx+4], edx

; 514  : }

	pop	ebx
	pop	ebp
	ret	16					; 00000010H
$LN6@PMC_Subtru:

; 381  :     else
; 382  :     {
; 383  :         // u が 0 ではない場合
; 384  : 
; 385  :         if (nv->IS_ZERO)

	test	ecx, ecx
	jne	SHORT $LN25@PMC_Subtru

; 386  :         {
; 387  :             // v が 0 である場合
; 388  : 
; 389  :             // 演算結果となる u の値を持つ NUMBER_HEADER 構造体を獲得し、呼び出し元へ返す。
; 390  :             *w = u;
; 391  :         }
; 392  :         else
; 393  :         {
; 394  :             // u と v がともに 0 ではない場合
; 395  : 
; 396  :             // u と v の差を計算する
; 397  :             if (__UNIT_TYPE_BIT_COUNT < sizeof(u) * 8)
; 398  :             {
; 399  :                 // _UINT64_T が 1 ワードで表現しきれない場合
; 400  : 
; 401  :                 _UINT32_T u_hi;
; 402  :                 _UINT32_T u_lo = _FROMDWORDTOWORD(u, &u_hi);
; 403  :                 if (u_hi == 0)

	test	edx, edx
	jne	SHORT $LN14@PMC_Subtru

; 404  :                 {
; 405  :                     // u の値が 32bit で表現可能な場合
; 406  :                     __UNIT_TYPE u_bit_count = sizeof(u_lo) * 8 - _LZCNT_ALT_32(u_lo);

	push	esi
	call	__LZCNT_ALT_32
	mov	ecx, 32					; 00000020H
	add	esp, 4
	sub	ecx, eax

; 407  :                     __UNIT_TYPE v_bit_count = nv->UNIT_BIT_COUNT;
; 408  :                     if (u_bit_count < v_bit_count)

	cmp	ecx, DWORD PTR [edi+16]
	jb	SHORT $LN45@PMC_Subtru

; 409  :                     {
; 410  :                         // 明らかに u < v である場合
; 411  : 
; 412  :                         // 演算結果は負となってしまうのでエラーを返す。
; 413  :                         return (PMC_STATUS_OVERFLOW);
; 414  :                     }
; 415  :                     else
; 416  :                     {
; 417  :                         // u のビット長が v のビット長以上である場合
; 418  : 
; 419  :                         // u が32bit 整数で表現できるので v も 32bit 整数で表現できる
; 420  : 
; 421  :                         __UNIT_TYPE temp_w;
; 422  :                         char borrow = _SUBTRUCT_UNIT(0, u_lo, nv->BLOCK[0], &temp_w);

	mov	eax, DWORD PTR [edi+36]
; File z:\sources\lunor\repos\rougemeilland\palmtree.math.core.uint\palmtree.math.core.uint\pmc_inline_func.h

; 265  :         return (_subborrow_u32(borrow, u, v, w));

	sub	esi, DWORD PTR [eax]
	setb	al
; File z:\sources\lunor\repos\rougemeilland\palmtree.math.core.uint\palmtree.math.core.uint\pmc_subtruct.c

; 423  :                         if (borrow)

	test	al, al
	jne	SHORT $LN45@PMC_Subtru

; 513  :     return (PMC_STATUS_OK);

	mov	DWORD PTR [ebx], esi
	xor	eax, eax
	pop	esi
	pop	edi
	mov	DWORD PTR [ebx+4], edx

; 514  : }

	pop	ebx
	pop	ebp
	ret	16					; 00000010H
$LN14@PMC_Subtru:

; 424  :                         {
; 425  :                             // ボローが発生した場合は演算結果が負なのでエラーとする
; 426  :                             return (PMC_STATUS_OVERFLOW);
; 427  :                         }
; 428  :                         else
; 429  :                         {
; 430  :                             *w = temp_w;
; 431  :                         }
; 432  :                     }
; 433  :                 }
; 434  :                 else
; 435  :                 {
; 436  :                     // u の値が 32bit では表現できない場合
; 437  :                     __UNIT_TYPE u_bit_count = sizeof(u) * 8 - _LZCNT_ALT_32(u_hi);

	push	edx
	call	__LZCNT_ALT_32
	mov	ecx, 64					; 00000040H
	add	esp, 4
	sub	ecx, eax

; 438  :                     __UNIT_TYPE v_bit_count = nv->UNIT_BIT_COUNT;
; 439  :                     if (u_bit_count < v_bit_count)

	cmp	ecx, DWORD PTR [edi+16]
	jb	SHORT $LN45@PMC_Subtru

; 440  :                     {
; 441  :                         // 明らかに u < v である場合
; 442  : 
; 443  :                         // 演算結果は負となってしまうのでエラーを返す。
; 444  :                         return (PMC_STATUS_OVERFLOW);
; 445  :                     }
; 446  :                     else
; 447  :                     {
; 448  :                         // u のビット長が v のビット長以上である場合
; 449  : 
; 450  :                         // この時点では u は 33 ～ 64bit 整数であり、v は 1 ～ 64bit整数である
; 451  : 
; 452  :                         __UNIT_TYPE temp_w_hi;
; 453  :                         __UNIT_TYPE temp_w_lo;
; 454  :                         char borrow;
; 455  :                         borrow = _SUBTRUCT_UNIT(0, u_lo, nv->BLOCK[0], &temp_w_lo);

	mov	ecx, DWORD PTR [edi+36]
; File z:\sources\lunor\repos\rougemeilland\palmtree.math.core.uint\palmtree.math.core.uint\pmc_inline_func.h

; 265  :         return (_subborrow_u32(borrow, u, v, w));

	sub	esi, DWORD PTR [ecx]
	mov	DWORD PTR _temp_w_lo$1$[ebp], esi
	setb	al
; File z:\sources\lunor\repos\rougemeilland\palmtree.math.core.uint\palmtree.math.core.uint\pmc_subtruct.c

; 456  :                         if (nv->UNIT_WORD_COUNT <= 1)

	cmp	DWORD PTR [edi+12], 1
	ja	SHORT $LN22@PMC_Subtru
; File z:\sources\lunor\repos\rougemeilland\palmtree.math.core.uint\palmtree.math.core.uint\pmc_inline_func.h

; 265  :         return (_subborrow_u32(borrow, u, v, w));

	add	al, 255					; 000000ffH
	sbb	edx, 0
; File z:\sources\lunor\repos\rougemeilland\palmtree.math.core.uint\palmtree.math.core.uint\pmc_subtruct.c

; 460  :                         }

	jmp	SHORT $LN48@PMC_Subtru
$LN22@PMC_Subtru:
; File z:\sources\lunor\repos\rougemeilland\palmtree.math.core.uint\palmtree.math.core.uint\pmc_inline_func.h

; 265  :         return (_subborrow_u32(borrow, u, v, w));

	add	al, 255					; 000000ffH
	sbb	edx, DWORD PTR [ecx+4]
$LN48@PMC_Subtru:
; File z:\sources\lunor\repos\rougemeilland\palmtree.math.core.uint\palmtree.math.core.uint\pmc_subtruct.c

; 466  :                         if (borrow)

	setb	al
	test	al, al
	jne	SHORT $LN45@PMC_Subtru
; File z:\sources\lunor\repos\rougemeilland\palmtree.math.core.uint\palmtree.math.core.uint\pmc_inline_func.h

; 172  :         return (((_UINT64_T)value_high << 32) | value_low);

	xor	esi, esi
	or	esi, DWORD PTR _temp_w_lo$1$[ebp]
$LN25@PMC_Subtru:
; File z:\sources\lunor\repos\rougemeilland\palmtree.math.core.uint\palmtree.math.core.uint\pmc_subtruct.c

; 513  :     return (PMC_STATUS_OK);

	mov	DWORD PTR [ebx], esi
	xor	eax, eax
	mov	DWORD PTR [ebx+4], edx
	pop	esi
$LN1@PMC_Subtru:

; 514  : }

	pop	edi
	pop	ebx
	pop	ebp
	ret	16					; 00000010H
$LN45@PMC_Subtru:
	pop	esi
	pop	edi

; 467  :                         {
; 468  :                             // ボローが発生した場合は演算結果が負なのでエラーとする
; 469  :                             return (PMC_STATUS_OVERFLOW);

	mov	eax, -2					; fffffffeH

; 514  : }

	pop	ebx
	pop	ebp
	ret	16					; 00000010H
$LN46@PMC_Subtru:
	pop	edi

; 357  :         return (PMC_STATUS_ARGUMENT_ERROR);

	or	eax, -1

; 514  : }

	pop	ebx
	pop	ebp
	ret	16					; 00000010H
_PMC_Subtruct_L_X@16 ENDP
_TEXT	ENDS
; Function compile flags: /Ogtp
; File z:\sources\lunor\repos\rougemeilland\palmtree.math.core.uint\palmtree.math.core.uint\pmc_subtruct.c
; File z:\sources\lunor\repos\rougemeilland\palmtree.math.core.uint\palmtree.math.core.uint\pmc_inline_func.h
; File z:\sources\lunor\repos\rougemeilland\palmtree.math.core.uint\palmtree.math.core.uint\pmc_subtruct.c
;	COMDAT _PMC_Subtruct_I_X@12
_TEXT	SEGMENT
_u$ = 8							; size = 4
_v$ = 12						; size = 4
_w$ = 16						; size = 4
_PMC_Subtruct_I_X@12 PROC				; COMDAT

; 182  : {

	push	ebp
	mov	ebp, esp
	push	esi
	push	edi

; 183  :     if (__UNIT_TYPE_BIT_COUNT < sizeof(u) * 8)
; 184  :     {
; 185  :         // _UINT32_T が 1 ワードで表現しきれない処理系には対応しない
; 186  :         return (PMC_STATUS_INTERNAL_ERROR);
; 187  :     }
; 188  :     if (v == NULL)

	mov	edi, DWORD PTR _v$[ebp]
	test	edi, edi
	je	SHORT $LN20@PMC_Subtru

; 189  :         return (PMC_STATUS_ARGUMENT_ERROR);
; 190  :     if (w == NULL)

	mov	esi, DWORD PTR _w$[ebp]
	test	esi, esi
	je	SHORT $LN20@PMC_Subtru

; 192  :     NUMBER_HEADER* nv = (NUMBER_HEADER*)v;
; 193  :     PMC_STATUS_CODE result;
; 194  :     if ((result = CheckNumber(nv)) != PMC_STATUS_OK)

	push	edi
	call	_CheckNumber
	add	esp, 4
	test	eax, eax
	jne	SHORT $LN1@PMC_Subtru

; 195  :         return (result);
; 196  :     if (u == 0)

	mov	eax, DWORD PTR [edi]
	mov	edx, DWORD PTR _u$[ebp]
	and	eax, 1
	test	edx, edx
	jne	SHORT $LN6@PMC_Subtru

; 197  :     {
; 198  :         // u が 0 である場合
; 199  : 
; 200  :         if (nv->IS_ZERO)

	test	eax, eax
	je	SHORT $LN19@PMC_Subtru

; 201  :         {
; 202  :             // v が 0 である場合
; 203  : 
; 204  :             // u と v がともに 0 であるので、演算結果の 0 を呼び出し元に返す。
; 205  :             *w = 0;

	pop	edi
	mov	DWORD PTR [esi], edx

; 250  :                 }
; 251  :                 else
; 252  :                 {
; 253  :                     *w = (_UINT32_T)temp_w;
; 254  :                 }
; 255  :             }
; 256  :         }
; 257  :     }
; 258  :     return (PMC_STATUS_OK);

	xor	eax, eax

; 259  : }

	pop	esi
	pop	ebp
	ret	12					; 0000000cH
$LN6@PMC_Subtru:

; 206  :         }
; 207  :         else
; 208  :         {
; 209  :             // v が 0 ではない場合
; 210  : 
; 211  :             // 演算結果は負となってしまうのでエラーを返す。
; 212  :             return (PMC_STATUS_OVERFLOW);
; 213  :         }
; 214  :     }
; 215  :     else
; 216  :     {
; 217  :         // u が 0 ではない場合
; 218  : 
; 219  :         if (nv->IS_ZERO)

	test	eax, eax
	jne	SHORT $LN21@PMC_Subtru

; 220  :         {
; 221  :             // v が 0 である場合
; 222  : 
; 223  :             // 演算結果となる u の値を持つ NUMBER_HEADER 構造体を獲得し、呼び出し元へ返す。
; 224  :             *w = u;
; 225  :         }
; 226  :         else
; 227  :         {
; 228  :             // u と v がともに 0 ではない場合
; 229  : 
; 230  :             // x と y の差を計算する
; 231  :             __UNIT_TYPE u_bit_count = sizeof(u) * 8 - _LZCNT_ALT_32(u);

	push	edx
	call	__LZCNT_ALT_32
	mov	ecx, 32					; 00000020H
	add	esp, 4
	sub	ecx, eax

; 232  :             __UNIT_TYPE v_bit_count = nv->UNIT_BIT_COUNT;
; 233  :             if (u_bit_count < v_bit_count)

	cmp	ecx, DWORD PTR [edi+16]
	jb	SHORT $LN19@PMC_Subtru

; 234  :             {
; 235  :                 // 明らかに u < v である場合
; 236  :                 // 演算結果は負となってしまうのでエラーを返す。
; 237  :                 return (PMC_STATUS_OVERFLOW);
; 238  :             }
; 239  :             else
; 240  :             {
; 241  :                 // u のビット長が v のビット長以上である場合
; 242  : 
; 243  :                 // u が 32bit 整数なので、v も32bit 整数で表現できる
; 244  :                 __UNIT_TYPE temp_w;
; 245  :                 char borrow = _SUBTRUCT_UNIT(0, u, nv->BLOCK[0], &temp_w);

	mov	eax, DWORD PTR [edi+36]
; File z:\sources\lunor\repos\rougemeilland\palmtree.math.core.uint\palmtree.math.core.uint\pmc_inline_func.h

; 265  :         return (_subborrow_u32(borrow, u, v, w));

	sub	edx, DWORD PTR [eax]
	setb	al
; File z:\sources\lunor\repos\rougemeilland\palmtree.math.core.uint\palmtree.math.core.uint\pmc_subtruct.c

; 246  :                 if (borrow)

	test	al, al
	jne	SHORT $LN19@PMC_Subtru
$LN21@PMC_Subtru:
	pop	edi

; 250  :                 }
; 251  :                 else
; 252  :                 {
; 253  :                     *w = (_UINT32_T)temp_w;
; 254  :                 }
; 255  :             }
; 256  :         }
; 257  :     }
; 258  :     return (PMC_STATUS_OK);

	mov	DWORD PTR [esi], edx
	xor	eax, eax

; 259  : }

	pop	esi
	pop	ebp
	ret	12					; 0000000cH
$LN19@PMC_Subtru:
	pop	edi

; 247  :                 {
; 248  :                     // ボローが発生した場合は演算結果が負なのでエラーとする
; 249  :                     return (PMC_STATUS_OVERFLOW);

	mov	eax, -2					; fffffffeH

; 259  : }

	pop	esi
	pop	ebp
	ret	12					; 0000000cH
$LN20@PMC_Subtru:

; 191  :         return (PMC_STATUS_ARGUMENT_ERROR);

	or	eax, -1
$LN1@PMC_Subtru:
	pop	edi

; 259  : }

	pop	esi
	pop	ebp
	ret	12					; 0000000cH
_PMC_Subtruct_I_X@12 ENDP
_TEXT	ENDS
; Function compile flags: /Ogtp
; File z:\sources\lunor\repos\rougemeilland\palmtree.math.core.uint\palmtree.math.core.uint\pmc_subtruct.c
;	COMDAT _Initialize_Subtruct
_TEXT	SEGMENT
_feature$ = 8						; size = 4
_Initialize_Subtruct PROC				; COMDAT

; 738  :     return (PMC_STATUS_OK);

	xor	eax, eax

; 739  : }

	ret	0
_Initialize_Subtruct ENDP
_TEXT	ENDS
; Function compile flags: /Ogtp
; File z:\sources\lunor\repos\rougemeilland\palmtree.math.core.uint\palmtree.math.core.uint\pmc_subtruct.c
; File z:\sources\lunor\repos\rougemeilland\palmtree.math.core.uint\palmtree.math.core.uint\autogenerated_inline_func.h
; File z:\sources\lunor\repos\rougemeilland\palmtree.math.core.uint\palmtree.math.core.uint\pmc_inline_func.h
; File z:\sources\lunor\repos\rougemeilland\palmtree.math.core.uint\palmtree.math.core.uint\autogenerated_inline_func.h
; File z:\sources\lunor\repos\rougemeilland\palmtree.math.core.uint\palmtree.math.core.uint\pmc_inline_func.h
; File z:\sources\lunor\repos\rougemeilland\palmtree.math.core.uint\palmtree.math.core.uint\autogenerated_inline_func.h
; File z:\sources\lunor\repos\rougemeilland\palmtree.math.core.uint\palmtree.math.core.uint\pmc_inline_func.h
; File z:\sources\lunor\repos\rougemeilland\palmtree.math.core.uint\palmtree.math.core.uint\autogenerated_inline_func.h
; File z:\sources\lunor\repos\rougemeilland\palmtree.math.core.uint\palmtree.math.core.uint\pmc_inline_func.h
; File z:\sources\lunor\repos\rougemeilland\palmtree.math.core.uint\palmtree.math.core.uint\autogenerated_inline_func.h
; File z:\sources\lunor\repos\rougemeilland\palmtree.math.core.uint\palmtree.math.core.uint\pmc_inline_func.h
; File z:\sources\lunor\repos\rougemeilland\palmtree.math.core.uint\palmtree.math.core.uint\autogenerated_inline_func.h
; File z:\sources\lunor\repos\rougemeilland\palmtree.math.core.uint\palmtree.math.core.uint\pmc_inline_func.h
; File z:\sources\lunor\repos\rougemeilland\palmtree.math.core.uint\palmtree.math.core.uint\autogenerated_inline_func.h
; File z:\sources\lunor\repos\rougemeilland\palmtree.math.core.uint\palmtree.math.core.uint\pmc_inline_func.h
; File z:\sources\lunor\repos\rougemeilland\palmtree.math.core.uint\palmtree.math.core.uint\autogenerated_inline_func.h
; File z:\sources\lunor\repos\rougemeilland\palmtree.math.core.uint\palmtree.math.core.uint\pmc_inline_func.h
; File z:\sources\lunor\repos\rougemeilland\palmtree.math.core.uint\palmtree.math.core.uint\autogenerated_inline_func.h
; File z:\sources\lunor\repos\rougemeilland\palmtree.math.core.uint\palmtree.math.core.uint\pmc_inline_func.h
; File z:\sources\lunor\repos\rougemeilland\palmtree.math.core.uint\palmtree.math.core.uint\autogenerated_inline_func.h
; File z:\sources\lunor\repos\rougemeilland\palmtree.math.core.uint\palmtree.math.core.uint\pmc_inline_func.h
; File z:\sources\lunor\repos\rougemeilland\palmtree.math.core.uint\palmtree.math.core.uint\autogenerated_inline_func.h
; File z:\sources\lunor\repos\rougemeilland\palmtree.math.core.uint\palmtree.math.core.uint\pmc_inline_func.h
; File z:\sources\lunor\repos\rougemeilland\palmtree.math.core.uint\palmtree.math.core.uint\autogenerated_inline_func.h
; File z:\sources\lunor\repos\rougemeilland\palmtree.math.core.uint\palmtree.math.core.uint\pmc_inline_func.h
; File z:\sources\lunor\repos\rougemeilland\palmtree.math.core.uint\palmtree.math.core.uint\autogenerated_inline_func.h
; File z:\sources\lunor\repos\rougemeilland\palmtree.math.core.uint\palmtree.math.core.uint\pmc_inline_func.h
; File z:\sources\lunor\repos\rougemeilland\palmtree.math.core.uint\palmtree.math.core.uint\autogenerated_inline_func.h
; File z:\sources\lunor\repos\rougemeilland\palmtree.math.core.uint\palmtree.math.core.uint\pmc_inline_func.h
; File z:\sources\lunor\repos\rougemeilland\palmtree.math.core.uint\palmtree.math.core.uint\autogenerated_inline_func.h
; File z:\sources\lunor\repos\rougemeilland\palmtree.math.core.uint\palmtree.math.core.uint\pmc_inline_func.h
; File z:\sources\lunor\repos\rougemeilland\palmtree.math.core.uint\palmtree.math.core.uint\autogenerated_inline_func.h
; File z:\sources\lunor\repos\rougemeilland\palmtree.math.core.uint\palmtree.math.core.uint\pmc_inline_func.h
; File z:\sources\lunor\repos\rougemeilland\palmtree.math.core.uint\palmtree.math.core.uint\autogenerated_inline_func.h
; File z:\sources\lunor\repos\rougemeilland\palmtree.math.core.uint\palmtree.math.core.uint\pmc_inline_func.h
; File z:\sources\lunor\repos\rougemeilland\palmtree.math.core.uint\palmtree.math.core.uint\autogenerated_inline_func.h
; File z:\sources\lunor\repos\rougemeilland\palmtree.math.core.uint\palmtree.math.core.uint\pmc_inline_func.h
; File z:\sources\lunor\repos\rougemeilland\palmtree.math.core.uint\palmtree.math.core.uint\autogenerated_inline_func.h
; File z:\sources\lunor\repos\rougemeilland\palmtree.math.core.uint\palmtree.math.core.uint\pmc_inline_func.h
; File z:\sources\lunor\repos\rougemeilland\palmtree.math.core.uint\palmtree.math.core.uint\autogenerated_inline_func.h
; File z:\sources\lunor\repos\rougemeilland\palmtree.math.core.uint\palmtree.math.core.uint\pmc_inline_func.h
; File z:\sources\lunor\repos\rougemeilland\palmtree.math.core.uint\palmtree.math.core.uint\autogenerated_inline_func.h
; File z:\sources\lunor\repos\rougemeilland\palmtree.math.core.uint\palmtree.math.core.uint\pmc_inline_func.h
; File z:\sources\lunor\repos\rougemeilland\palmtree.math.core.uint\palmtree.math.core.uint\autogenerated_inline_func.h
; File z:\sources\lunor\repos\rougemeilland\palmtree.math.core.uint\palmtree.math.core.uint\pmc_inline_func.h
; File z:\sources\lunor\repos\rougemeilland\palmtree.math.core.uint\palmtree.math.core.uint\autogenerated_inline_func.h
; File z:\sources\lunor\repos\rougemeilland\palmtree.math.core.uint\palmtree.math.core.uint\pmc_inline_func.h
; File z:\sources\lunor\repos\rougemeilland\palmtree.math.core.uint\palmtree.math.core.uint\autogenerated_inline_func.h
; File z:\sources\lunor\repos\rougemeilland\palmtree.math.core.uint\palmtree.math.core.uint\pmc_inline_func.h
; File z:\sources\lunor\repos\rougemeilland\palmtree.math.core.uint\palmtree.math.core.uint\autogenerated_inline_func.h
; File z:\sources\lunor\repos\rougemeilland\palmtree.math.core.uint\palmtree.math.core.uint\pmc_inline_func.h
; File z:\sources\lunor\repos\rougemeilland\palmtree.math.core.uint\palmtree.math.core.uint\autogenerated_inline_func.h
; File z:\sources\lunor\repos\rougemeilland\palmtree.math.core.uint\palmtree.math.core.uint\pmc_inline_func.h
; File z:\sources\lunor\repos\rougemeilland\palmtree.math.core.uint\palmtree.math.core.uint\autogenerated_inline_func.h
; File z:\sources\lunor\repos\rougemeilland\palmtree.math.core.uint\palmtree.math.core.uint\pmc_inline_func.h
; File z:\sources\lunor\repos\rougemeilland\palmtree.math.core.uint\palmtree.math.core.uint\autogenerated_inline_func.h
; File z:\sources\lunor\repos\rougemeilland\palmtree.math.core.uint\palmtree.math.core.uint\pmc_inline_func.h
; File z:\sources\lunor\repos\rougemeilland\palmtree.math.core.uint\palmtree.math.core.uint\autogenerated_inline_func.h
; File z:\sources\lunor\repos\rougemeilland\palmtree.math.core.uint\palmtree.math.core.uint\pmc_inline_func.h
; File z:\sources\lunor\repos\rougemeilland\palmtree.math.core.uint\palmtree.math.core.uint\autogenerated_inline_func.h
; File z:\sources\lunor\repos\rougemeilland\palmtree.math.core.uint\palmtree.math.core.uint\pmc_inline_func.h
; File z:\sources\lunor\repos\rougemeilland\palmtree.math.core.uint\palmtree.math.core.uint\autogenerated_inline_func.h
; File z:\sources\lunor\repos\rougemeilland\palmtree.math.core.uint\palmtree.math.core.uint\pmc_inline_func.h
; File z:\sources\lunor\repos\rougemeilland\palmtree.math.core.uint\palmtree.math.core.uint\autogenerated_inline_func.h
; File z:\sources\lunor\repos\rougemeilland\palmtree.math.core.uint\palmtree.math.core.uint\pmc_inline_func.h
; File z:\sources\lunor\repos\rougemeilland\palmtree.math.core.uint\palmtree.math.core.uint\pmc_subtruct.c
; File z:\sources\lunor\repos\rougemeilland\palmtree.math.core.uint\palmtree.math.core.uint\autogenerated_inline_func.h
; File z:\sources\lunor\repos\rougemeilland\palmtree.math.core.uint\palmtree.math.core.uint\pmc_inline_func.h
; File z:\sources\lunor\repos\rougemeilland\palmtree.math.core.uint\palmtree.math.core.uint\autogenerated_inline_func.h
; File z:\sources\lunor\repos\rougemeilland\palmtree.math.core.uint\palmtree.math.core.uint\pmc_inline_func.h
; File z:\sources\lunor\repos\rougemeilland\palmtree.math.core.uint\palmtree.math.core.uint\autogenerated_inline_func.h
; File z:\sources\lunor\repos\rougemeilland\palmtree.math.core.uint\palmtree.math.core.uint\pmc_inline_func.h
; File z:\sources\lunor\repos\rougemeilland\palmtree.math.core.uint\palmtree.math.core.uint\autogenerated_inline_func.h
; File z:\sources\lunor\repos\rougemeilland\palmtree.math.core.uint\palmtree.math.core.uint\pmc_inline_func.h
; File z:\sources\lunor\repos\rougemeilland\palmtree.math.core.uint\palmtree.math.core.uint\autogenerated_inline_func.h
; File z:\sources\lunor\repos\rougemeilland\palmtree.math.core.uint\palmtree.math.core.uint\pmc_inline_func.h
; File z:\sources\lunor\repos\rougemeilland\palmtree.math.core.uint\palmtree.math.core.uint\autogenerated_inline_func.h
; File z:\sources\lunor\repos\rougemeilland\palmtree.math.core.uint\palmtree.math.core.uint\pmc_inline_func.h
; File z:\sources\lunor\repos\rougemeilland\palmtree.math.core.uint\palmtree.math.core.uint\autogenerated_inline_func.h
; File z:\sources\lunor\repos\rougemeilland\palmtree.math.core.uint\palmtree.math.core.uint\pmc_inline_func.h
; File z:\sources\lunor\repos\rougemeilland\palmtree.math.core.uint\palmtree.math.core.uint\autogenerated_inline_func.h
; File z:\sources\lunor\repos\rougemeilland\palmtree.math.core.uint\palmtree.math.core.uint\pmc_inline_func.h
; File z:\sources\lunor\repos\rougemeilland\palmtree.math.core.uint\palmtree.math.core.uint\pmc_subtruct.c
; File z:\sources\lunor\repos\rougemeilland\palmtree.math.core.uint\palmtree.math.core.uint\autogenerated_inline_func.h
; File z:\sources\lunor\repos\rougemeilland\palmtree.math.core.uint\palmtree.math.core.uint\pmc_inline_func.h
; File z:\sources\lunor\repos\rougemeilland\palmtree.math.core.uint\palmtree.math.core.uint\autogenerated_inline_func.h
; File z:\sources\lunor\repos\rougemeilland\palmtree.math.core.uint\palmtree.math.core.uint\pmc_inline_func.h
; File z:\sources\lunor\repos\rougemeilland\palmtree.math.core.uint\palmtree.math.core.uint\autogenerated_inline_func.h
; File z:\sources\lunor\repos\rougemeilland\palmtree.math.core.uint\palmtree.math.core.uint\pmc_inline_func.h
; File z:\sources\lunor\repos\rougemeilland\palmtree.math.core.uint\palmtree.math.core.uint\autogenerated_inline_func.h
; File z:\sources\lunor\repos\rougemeilland\palmtree.math.core.uint\palmtree.math.core.uint\pmc_inline_func.h
; File z:\sources\lunor\repos\rougemeilland\palmtree.math.core.uint\palmtree.math.core.uint\pmc_subtruct.c
; File z:\sources\lunor\repos\rougemeilland\palmtree.math.core.uint\palmtree.math.core.uint\autogenerated_inline_func.h
; File z:\sources\lunor\repos\rougemeilland\palmtree.math.core.uint\palmtree.math.core.uint\pmc_inline_func.h
; File z:\sources\lunor\repos\rougemeilland\palmtree.math.core.uint\palmtree.math.core.uint\autogenerated_inline_func.h
; File z:\sources\lunor\repos\rougemeilland\palmtree.math.core.uint\palmtree.math.core.uint\pmc_inline_func.h
; File z:\sources\lunor\repos\rougemeilland\palmtree.math.core.uint\palmtree.math.core.uint\pmc_subtruct.c
; File z:\sources\lunor\repos\rougemeilland\palmtree.math.core.uint\palmtree.math.core.uint\pmc_inline_func.h
; File z:\sources\lunor\repos\rougemeilland\palmtree.math.core.uint\palmtree.math.core.uint\pmc_subtruct.c
; File z:\sources\lunor\repos\rougemeilland\palmtree.math.core.uint\palmtree.math.core.uint\pmc_inline_func.h
; File z:\sources\lunor\repos\rougemeilland\palmtree.math.core.uint\palmtree.math.core.uint\pmc_subtruct.c
;	COMDAT _Subtruct_Imp
_TEXT	SEGMENT
_c$ = -4						; size = 1
_up$ = 8						; size = 4
_u_count$ = 12						; size = 4
_vp$ = 16						; size = 4
_v_count$ = 20						; size = 4
_wp$ = 24						; size = 4
_w_count$ = 28						; size = 4
_Subtruct_Imp PROC					; COMDAT

; 118  : {

	push	ebp
	mov	ebp, esp
	sub	esp, 8

; 119  :     char c = 0;
; 120  : 
; 121  :     // まず 32 ワードずつ減算をする。
; 122  :     __UNIT_TYPE count = v_count >> 5;

	mov	ecx, DWORD PTR _v_count$[ebp]
	xor	dl, dl
	push	ebx

; 123  :     while (count != 0)

	mov	ebx, DWORD PTR _vp$[ebp]
	mov	eax, ecx
	push	esi
	mov	esi, DWORD PTR _up$[ebp]
	shr	eax, 5
	mov	BYTE PTR _c$[ebp], dl
	push	edi
	mov	edi, DWORD PTR _wp$[ebp]
	test	eax, eax
	je	$LN3@Subtruct_I
	mov	ecx, eax
	npad	7
$LL2@Subtruct_I:
; File z:\sources\lunor\repos\rougemeilland\palmtree.math.core.uint\palmtree.math.core.uint\autogenerated_inline_func.h

; 801  :     c = _SUBTRUCT_UNIT(c, xp[0], yp[0], &zp[0]);

	mov	eax, DWORD PTR [esi]
; File z:\sources\lunor\repos\rougemeilland\palmtree.math.core.uint\palmtree.math.core.uint\pmc_inline_func.h

; 265  :         return (_subborrow_u32(borrow, u, v, w));

	add	dl, 255					; 000000ffH
	sbb	eax, DWORD PTR [ebx]
	mov	DWORD PTR [edi], eax
; File z:\sources\lunor\repos\rougemeilland\palmtree.math.core.uint\palmtree.math.core.uint\autogenerated_inline_func.h

; 802  :     c = _SUBTRUCT_UNIT(c, xp[1], yp[1], &zp[1]);

	mov	eax, DWORD PTR [esi+4]
; File z:\sources\lunor\repos\rougemeilland\palmtree.math.core.uint\palmtree.math.core.uint\pmc_inline_func.h

; 265  :         return (_subborrow_u32(borrow, u, v, w));

	sbb	eax, DWORD PTR [ebx+4]
	mov	DWORD PTR [edi+4], eax
; File z:\sources\lunor\repos\rougemeilland\palmtree.math.core.uint\palmtree.math.core.uint\autogenerated_inline_func.h

; 803  :     c = _SUBTRUCT_UNIT(c, xp[2], yp[2], &zp[2]);

	mov	eax, DWORD PTR [esi+8]
; File z:\sources\lunor\repos\rougemeilland\palmtree.math.core.uint\palmtree.math.core.uint\pmc_inline_func.h

; 265  :         return (_subborrow_u32(borrow, u, v, w));

	sbb	eax, DWORD PTR [ebx+8]
	mov	DWORD PTR [edi+8], eax
; File z:\sources\lunor\repos\rougemeilland\palmtree.math.core.uint\palmtree.math.core.uint\autogenerated_inline_func.h

; 804  :     c = _SUBTRUCT_UNIT(c, xp[3], yp[3], &zp[3]);

	mov	eax, DWORD PTR [esi+12]
; File z:\sources\lunor\repos\rougemeilland\palmtree.math.core.uint\palmtree.math.core.uint\pmc_inline_func.h

; 265  :         return (_subborrow_u32(borrow, u, v, w));

	sbb	eax, DWORD PTR [ebx+12]
	mov	DWORD PTR [edi+12], eax
; File z:\sources\lunor\repos\rougemeilland\palmtree.math.core.uint\palmtree.math.core.uint\autogenerated_inline_func.h

; 805  :     c = _SUBTRUCT_UNIT(c, xp[4], yp[4], &zp[4]);

	mov	eax, DWORD PTR [esi+16]
; File z:\sources\lunor\repos\rougemeilland\palmtree.math.core.uint\palmtree.math.core.uint\pmc_inline_func.h

; 265  :         return (_subborrow_u32(borrow, u, v, w));

	sbb	eax, DWORD PTR [ebx+16]
	mov	DWORD PTR [edi+16], eax
; File z:\sources\lunor\repos\rougemeilland\palmtree.math.core.uint\palmtree.math.core.uint\autogenerated_inline_func.h

; 806  :     c = _SUBTRUCT_UNIT(c, xp[5], yp[5], &zp[5]);

	mov	eax, DWORD PTR [esi+20]
; File z:\sources\lunor\repos\rougemeilland\palmtree.math.core.uint\palmtree.math.core.uint\pmc_inline_func.h

; 265  :         return (_subborrow_u32(borrow, u, v, w));

	sbb	eax, DWORD PTR [ebx+20]
	mov	DWORD PTR [edi+20], eax
; File z:\sources\lunor\repos\rougemeilland\palmtree.math.core.uint\palmtree.math.core.uint\autogenerated_inline_func.h

; 807  :     c = _SUBTRUCT_UNIT(c, xp[6], yp[6], &zp[6]);

	mov	eax, DWORD PTR [esi+24]
; File z:\sources\lunor\repos\rougemeilland\palmtree.math.core.uint\palmtree.math.core.uint\pmc_inline_func.h

; 265  :         return (_subborrow_u32(borrow, u, v, w));

	sbb	eax, DWORD PTR [ebx+24]
	mov	DWORD PTR [edi+24], eax
; File z:\sources\lunor\repos\rougemeilland\palmtree.math.core.uint\palmtree.math.core.uint\autogenerated_inline_func.h

; 808  :     c = _SUBTRUCT_UNIT(c, xp[7], yp[7], &zp[7]);

	mov	eax, DWORD PTR [esi+28]
; File z:\sources\lunor\repos\rougemeilland\palmtree.math.core.uint\palmtree.math.core.uint\pmc_inline_func.h

; 265  :         return (_subborrow_u32(borrow, u, v, w));

	sbb	eax, DWORD PTR [ebx+28]
	mov	DWORD PTR [edi+28], eax
; File z:\sources\lunor\repos\rougemeilland\palmtree.math.core.uint\palmtree.math.core.uint\autogenerated_inline_func.h

; 809  :     c = _SUBTRUCT_UNIT(c, xp[8], yp[8], &zp[8]);

	mov	eax, DWORD PTR [esi+32]
; File z:\sources\lunor\repos\rougemeilland\palmtree.math.core.uint\palmtree.math.core.uint\pmc_inline_func.h

; 265  :         return (_subborrow_u32(borrow, u, v, w));

	sbb	eax, DWORD PTR [ebx+32]
	mov	DWORD PTR [edi+32], eax
; File z:\sources\lunor\repos\rougemeilland\palmtree.math.core.uint\palmtree.math.core.uint\autogenerated_inline_func.h

; 810  :     c = _SUBTRUCT_UNIT(c, xp[9], yp[9], &zp[9]);

	mov	eax, DWORD PTR [esi+36]
; File z:\sources\lunor\repos\rougemeilland\palmtree.math.core.uint\palmtree.math.core.uint\pmc_inline_func.h

; 265  :         return (_subborrow_u32(borrow, u, v, w));

	sbb	eax, DWORD PTR [ebx+36]
	mov	DWORD PTR [edi+36], eax
; File z:\sources\lunor\repos\rougemeilland\palmtree.math.core.uint\palmtree.math.core.uint\autogenerated_inline_func.h

; 811  :     c = _SUBTRUCT_UNIT(c, xp[10], yp[10], &zp[10]);

	mov	eax, DWORD PTR [esi+40]
; File z:\sources\lunor\repos\rougemeilland\palmtree.math.core.uint\palmtree.math.core.uint\pmc_inline_func.h

; 265  :         return (_subborrow_u32(borrow, u, v, w));

	sbb	eax, DWORD PTR [ebx+40]
	mov	DWORD PTR [edi+40], eax
; File z:\sources\lunor\repos\rougemeilland\palmtree.math.core.uint\palmtree.math.core.uint\autogenerated_inline_func.h

; 812  :     c = _SUBTRUCT_UNIT(c, xp[11], yp[11], &zp[11]);

	mov	eax, DWORD PTR [esi+44]
; File z:\sources\lunor\repos\rougemeilland\palmtree.math.core.uint\palmtree.math.core.uint\pmc_inline_func.h

; 265  :         return (_subborrow_u32(borrow, u, v, w));

	sbb	eax, DWORD PTR [ebx+44]
	mov	DWORD PTR [edi+44], eax
; File z:\sources\lunor\repos\rougemeilland\palmtree.math.core.uint\palmtree.math.core.uint\autogenerated_inline_func.h

; 813  :     c = _SUBTRUCT_UNIT(c, xp[12], yp[12], &zp[12]);

	mov	eax, DWORD PTR [esi+48]
; File z:\sources\lunor\repos\rougemeilland\palmtree.math.core.uint\palmtree.math.core.uint\pmc_inline_func.h

; 265  :         return (_subborrow_u32(borrow, u, v, w));

	sbb	eax, DWORD PTR [ebx+48]
	mov	DWORD PTR [edi+48], eax
; File z:\sources\lunor\repos\rougemeilland\palmtree.math.core.uint\palmtree.math.core.uint\autogenerated_inline_func.h

; 814  :     c = _SUBTRUCT_UNIT(c, xp[13], yp[13], &zp[13]);

	mov	eax, DWORD PTR [esi+52]
; File z:\sources\lunor\repos\rougemeilland\palmtree.math.core.uint\palmtree.math.core.uint\pmc_inline_func.h

; 265  :         return (_subborrow_u32(borrow, u, v, w));

	sbb	eax, DWORD PTR [ebx+52]
	mov	DWORD PTR [edi+52], eax
; File z:\sources\lunor\repos\rougemeilland\palmtree.math.core.uint\palmtree.math.core.uint\autogenerated_inline_func.h

; 815  :     c = _SUBTRUCT_UNIT(c, xp[14], yp[14], &zp[14]);

	mov	eax, DWORD PTR [esi+56]
; File z:\sources\lunor\repos\rougemeilland\palmtree.math.core.uint\palmtree.math.core.uint\pmc_inline_func.h

; 265  :         return (_subborrow_u32(borrow, u, v, w));

	sbb	eax, DWORD PTR [ebx+56]
	mov	DWORD PTR [edi+56], eax
; File z:\sources\lunor\repos\rougemeilland\palmtree.math.core.uint\palmtree.math.core.uint\autogenerated_inline_func.h

; 816  :     c = _SUBTRUCT_UNIT(c, xp[15], yp[15], &zp[15]);

	mov	eax, DWORD PTR [esi+60]
; File z:\sources\lunor\repos\rougemeilland\palmtree.math.core.uint\palmtree.math.core.uint\pmc_inline_func.h

; 265  :         return (_subborrow_u32(borrow, u, v, w));

	sbb	eax, DWORD PTR [ebx+60]
	mov	DWORD PTR [edi+60], eax
; File z:\sources\lunor\repos\rougemeilland\palmtree.math.core.uint\palmtree.math.core.uint\autogenerated_inline_func.h

; 817  :     c = _SUBTRUCT_UNIT(c, xp[16], yp[16], &zp[16]);

	mov	eax, DWORD PTR [esi+64]
; File z:\sources\lunor\repos\rougemeilland\palmtree.math.core.uint\palmtree.math.core.uint\pmc_inline_func.h

; 265  :         return (_subborrow_u32(borrow, u, v, w));

	sbb	eax, DWORD PTR [ebx+64]
	mov	DWORD PTR [edi+64], eax
; File z:\sources\lunor\repos\rougemeilland\palmtree.math.core.uint\palmtree.math.core.uint\autogenerated_inline_func.h

; 818  :     c = _SUBTRUCT_UNIT(c, xp[17], yp[17], &zp[17]);

	mov	eax, DWORD PTR [esi+68]
; File z:\sources\lunor\repos\rougemeilland\palmtree.math.core.uint\palmtree.math.core.uint\pmc_inline_func.h

; 265  :         return (_subborrow_u32(borrow, u, v, w));

	sbb	eax, DWORD PTR [ebx+68]
	mov	DWORD PTR [edi+68], eax
; File z:\sources\lunor\repos\rougemeilland\palmtree.math.core.uint\palmtree.math.core.uint\autogenerated_inline_func.h

; 819  :     c = _SUBTRUCT_UNIT(c, xp[18], yp[18], &zp[18]);

	mov	eax, DWORD PTR [esi+72]
; File z:\sources\lunor\repos\rougemeilland\palmtree.math.core.uint\palmtree.math.core.uint\pmc_inline_func.h

; 265  :         return (_subborrow_u32(borrow, u, v, w));

	sbb	eax, DWORD PTR [ebx+72]
	mov	DWORD PTR [edi+72], eax
; File z:\sources\lunor\repos\rougemeilland\palmtree.math.core.uint\palmtree.math.core.uint\autogenerated_inline_func.h

; 820  :     c = _SUBTRUCT_UNIT(c, xp[19], yp[19], &zp[19]);

	mov	eax, DWORD PTR [esi+76]
; File z:\sources\lunor\repos\rougemeilland\palmtree.math.core.uint\palmtree.math.core.uint\pmc_inline_func.h

; 265  :         return (_subborrow_u32(borrow, u, v, w));

	sbb	eax, DWORD PTR [ebx+76]
	mov	DWORD PTR [edi+76], eax
; File z:\sources\lunor\repos\rougemeilland\palmtree.math.core.uint\palmtree.math.core.uint\autogenerated_inline_func.h

; 821  :     c = _SUBTRUCT_UNIT(c, xp[20], yp[20], &zp[20]);

	mov	eax, DWORD PTR [esi+80]
; File z:\sources\lunor\repos\rougemeilland\palmtree.math.core.uint\palmtree.math.core.uint\pmc_inline_func.h

; 265  :         return (_subborrow_u32(borrow, u, v, w));

	sbb	eax, DWORD PTR [ebx+80]
	mov	DWORD PTR [edi+80], eax
; File z:\sources\lunor\repos\rougemeilland\palmtree.math.core.uint\palmtree.math.core.uint\autogenerated_inline_func.h

; 822  :     c = _SUBTRUCT_UNIT(c, xp[21], yp[21], &zp[21]);

	mov	eax, DWORD PTR [esi+84]
; File z:\sources\lunor\repos\rougemeilland\palmtree.math.core.uint\palmtree.math.core.uint\pmc_inline_func.h

; 265  :         return (_subborrow_u32(borrow, u, v, w));

	sbb	eax, DWORD PTR [ebx+84]
	mov	DWORD PTR [edi+84], eax
; File z:\sources\lunor\repos\rougemeilland\palmtree.math.core.uint\palmtree.math.core.uint\autogenerated_inline_func.h

; 823  :     c = _SUBTRUCT_UNIT(c, xp[22], yp[22], &zp[22]);

	mov	eax, DWORD PTR [esi+88]
; File z:\sources\lunor\repos\rougemeilland\palmtree.math.core.uint\palmtree.math.core.uint\pmc_inline_func.h

; 265  :         return (_subborrow_u32(borrow, u, v, w));

	sbb	eax, DWORD PTR [ebx+88]
	mov	DWORD PTR [edi+88], eax
; File z:\sources\lunor\repos\rougemeilland\palmtree.math.core.uint\palmtree.math.core.uint\autogenerated_inline_func.h

; 824  :     c = _SUBTRUCT_UNIT(c, xp[23], yp[23], &zp[23]);

	mov	eax, DWORD PTR [esi+92]
; File z:\sources\lunor\repos\rougemeilland\palmtree.math.core.uint\palmtree.math.core.uint\pmc_inline_func.h

; 265  :         return (_subborrow_u32(borrow, u, v, w));

	sbb	eax, DWORD PTR [ebx+92]
	mov	DWORD PTR [edi+92], eax
; File z:\sources\lunor\repos\rougemeilland\palmtree.math.core.uint\palmtree.math.core.uint\autogenerated_inline_func.h

; 825  :     c = _SUBTRUCT_UNIT(c, xp[24], yp[24], &zp[24]);

	mov	eax, DWORD PTR [esi+96]
; File z:\sources\lunor\repos\rougemeilland\palmtree.math.core.uint\palmtree.math.core.uint\pmc_inline_func.h

; 265  :         return (_subborrow_u32(borrow, u, v, w));

	sbb	eax, DWORD PTR [ebx+96]
	mov	DWORD PTR [edi+96], eax
; File z:\sources\lunor\repos\rougemeilland\palmtree.math.core.uint\palmtree.math.core.uint\autogenerated_inline_func.h

; 826  :     c = _SUBTRUCT_UNIT(c, xp[25], yp[25], &zp[25]);

	mov	eax, DWORD PTR [esi+100]
; File z:\sources\lunor\repos\rougemeilland\palmtree.math.core.uint\palmtree.math.core.uint\pmc_inline_func.h

; 265  :         return (_subborrow_u32(borrow, u, v, w));

	sbb	eax, DWORD PTR [ebx+100]
	mov	DWORD PTR [edi+100], eax
; File z:\sources\lunor\repos\rougemeilland\palmtree.math.core.uint\palmtree.math.core.uint\autogenerated_inline_func.h

; 827  :     c = _SUBTRUCT_UNIT(c, xp[26], yp[26], &zp[26]);

	mov	eax, DWORD PTR [esi+104]
; File z:\sources\lunor\repos\rougemeilland\palmtree.math.core.uint\palmtree.math.core.uint\pmc_inline_func.h

; 265  :         return (_subborrow_u32(borrow, u, v, w));

	sbb	eax, DWORD PTR [ebx+104]
	mov	DWORD PTR [edi+104], eax
; File z:\sources\lunor\repos\rougemeilland\palmtree.math.core.uint\palmtree.math.core.uint\autogenerated_inline_func.h

; 828  :     c = _SUBTRUCT_UNIT(c, xp[27], yp[27], &zp[27]);

	mov	eax, DWORD PTR [esi+108]
; File z:\sources\lunor\repos\rougemeilland\palmtree.math.core.uint\palmtree.math.core.uint\pmc_inline_func.h

; 265  :         return (_subborrow_u32(borrow, u, v, w));

	sbb	eax, DWORD PTR [ebx+108]
	mov	DWORD PTR [edi+108], eax
; File z:\sources\lunor\repos\rougemeilland\palmtree.math.core.uint\palmtree.math.core.uint\autogenerated_inline_func.h

; 829  :     c = _SUBTRUCT_UNIT(c, xp[28], yp[28], &zp[28]);

	mov	eax, DWORD PTR [esi+112]
; File z:\sources\lunor\repos\rougemeilland\palmtree.math.core.uint\palmtree.math.core.uint\pmc_inline_func.h

; 265  :         return (_subborrow_u32(borrow, u, v, w));

	sbb	eax, DWORD PTR [ebx+112]
	mov	DWORD PTR [edi+112], eax
; File z:\sources\lunor\repos\rougemeilland\palmtree.math.core.uint\palmtree.math.core.uint\autogenerated_inline_func.h

; 830  :     c = _SUBTRUCT_UNIT(c, xp[29], yp[29], &zp[29]);

	mov	eax, DWORD PTR [esi+116]
; File z:\sources\lunor\repos\rougemeilland\palmtree.math.core.uint\palmtree.math.core.uint\pmc_inline_func.h

; 265  :         return (_subborrow_u32(borrow, u, v, w));

	sbb	eax, DWORD PTR [ebx+116]
	mov	DWORD PTR [edi+116], eax
; File z:\sources\lunor\repos\rougemeilland\palmtree.math.core.uint\palmtree.math.core.uint\autogenerated_inline_func.h

; 831  :     c = _SUBTRUCT_UNIT(c, xp[30], yp[30], &zp[30]);

	mov	eax, DWORD PTR [esi+120]
; File z:\sources\lunor\repos\rougemeilland\palmtree.math.core.uint\palmtree.math.core.uint\pmc_inline_func.h

; 265  :         return (_subborrow_u32(borrow, u, v, w));

	sbb	eax, DWORD PTR [ebx+120]
	mov	DWORD PTR [edi+120], eax
; File z:\sources\lunor\repos\rougemeilland\palmtree.math.core.uint\palmtree.math.core.uint\autogenerated_inline_func.h

; 832  :     c = _SUBTRUCT_UNIT(c, xp[31], yp[31], &zp[31]);

	mov	eax, DWORD PTR [esi+124]
; File z:\sources\lunor\repos\rougemeilland\palmtree.math.core.uint\palmtree.math.core.uint\pmc_inline_func.h

; 265  :         return (_subborrow_u32(borrow, u, v, w));

	sbb	eax, DWORD PTR [ebx+124]
	mov	DWORD PTR [edi+124], eax
	setb	dl
; File z:\sources\lunor\repos\rougemeilland\palmtree.math.core.uint\palmtree.math.core.uint\pmc_subtruct.c

; 126  :         up += 32;

	sub	esi, -128				; ffffff80H

; 127  :         vp += 32;

	sub	ebx, -128				; ffffff80H
	mov	BYTE PTR _c$[ebp], dl

; 128  :         wp += 32;

	sub	edi, -128				; ffffff80H

; 129  :         --count;

	sub	ecx, 1
	jne	$LL2@Subtruct_I

; 123  :     while (count != 0)

	mov	ecx, DWORD PTR _v_count$[ebp]
$LN3@Subtruct_I:

; 130  :     }
; 131  :     // この時点で未処理の桁は 32 ワード未満のはず
; 132  : 
; 133  :     // 未処理の桁が 16 ワード以上あるなら 16 ワード減算を行う。
; 134  :     if (v_count & 0x10)

	test	cl, 16					; 00000010H
	je	SHORT $LN4@Subtruct_I

; 135  :     {
; 136  :         c = _SUBTRUCT_16WORDS_SBB(c, up, vp, wp);

	push	edi
	push	ebx
	push	esi
	push	DWORD PTR _c$[ebp]
	call	__SUBTRUCT_16WORDS_SBB

; 137  :         up += 16;
; 138  :         vp += 16;
; 139  :         wp += 16;

	mov	ecx, DWORD PTR _v_count$[ebp]
	mov	dl, al
	add	esp, 16					; 00000010H
	mov	BYTE PTR _c$[ebp], dl
	add	esi, 64					; 00000040H
	add	ebx, 64					; 00000040H
	add	edi, 64					; 00000040H
$LN4@Subtruct_I:

; 140  :     }
; 141  :     // この時点で未処理の桁は 16 ワード未満のはず
; 142  : 
; 143  :     // 未処理の桁が 8 ワード以上あるなら 8 ワード減算を行う。
; 144  :     if (v_count & 0x8)

	test	cl, 8
	je	SHORT $LN5@Subtruct_I
; File z:\sources\lunor\repos\rougemeilland\palmtree.math.core.uint\palmtree.math.core.uint\autogenerated_inline_func.h

; 3449 :     c = _SUBTRUCT_UNIT(c, xp[0], yp[0], &zp[0]);

	mov	eax, DWORD PTR [esi]
; File z:\sources\lunor\repos\rougemeilland\palmtree.math.core.uint\palmtree.math.core.uint\pmc_inline_func.h

; 265  :         return (_subborrow_u32(borrow, u, v, w));

	add	dl, 255					; 000000ffH
	sbb	eax, DWORD PTR [ebx]
	mov	DWORD PTR [edi], eax
; File z:\sources\lunor\repos\rougemeilland\palmtree.math.core.uint\palmtree.math.core.uint\autogenerated_inline_func.h

; 3450 :     c = _SUBTRUCT_UNIT(c, xp[1], yp[1], &zp[1]);

	mov	eax, DWORD PTR [esi+4]
; File z:\sources\lunor\repos\rougemeilland\palmtree.math.core.uint\palmtree.math.core.uint\pmc_inline_func.h

; 265  :         return (_subborrow_u32(borrow, u, v, w));

	sbb	eax, DWORD PTR [ebx+4]
	mov	DWORD PTR [edi+4], eax
; File z:\sources\lunor\repos\rougemeilland\palmtree.math.core.uint\palmtree.math.core.uint\autogenerated_inline_func.h

; 3451 :     c = _SUBTRUCT_UNIT(c, xp[2], yp[2], &zp[2]);

	mov	eax, DWORD PTR [esi+8]
; File z:\sources\lunor\repos\rougemeilland\palmtree.math.core.uint\palmtree.math.core.uint\pmc_inline_func.h

; 265  :         return (_subborrow_u32(borrow, u, v, w));

	sbb	eax, DWORD PTR [ebx+8]
	mov	DWORD PTR [edi+8], eax
; File z:\sources\lunor\repos\rougemeilland\palmtree.math.core.uint\palmtree.math.core.uint\autogenerated_inline_func.h

; 3452 :     c = _SUBTRUCT_UNIT(c, xp[3], yp[3], &zp[3]);

	mov	eax, DWORD PTR [esi+12]
; File z:\sources\lunor\repos\rougemeilland\palmtree.math.core.uint\palmtree.math.core.uint\pmc_inline_func.h

; 265  :         return (_subborrow_u32(borrow, u, v, w));

	sbb	eax, DWORD PTR [ebx+12]
	mov	DWORD PTR [edi+12], eax
; File z:\sources\lunor\repos\rougemeilland\palmtree.math.core.uint\palmtree.math.core.uint\autogenerated_inline_func.h

; 3453 :     c = _SUBTRUCT_UNIT(c, xp[4], yp[4], &zp[4]);

	mov	eax, DWORD PTR [esi+16]
; File z:\sources\lunor\repos\rougemeilland\palmtree.math.core.uint\palmtree.math.core.uint\pmc_inline_func.h

; 265  :         return (_subborrow_u32(borrow, u, v, w));

	sbb	eax, DWORD PTR [ebx+16]
	mov	DWORD PTR [edi+16], eax
; File z:\sources\lunor\repos\rougemeilland\palmtree.math.core.uint\palmtree.math.core.uint\autogenerated_inline_func.h

; 3454 :     c = _SUBTRUCT_UNIT(c, xp[5], yp[5], &zp[5]);

	mov	eax, DWORD PTR [esi+20]
; File z:\sources\lunor\repos\rougemeilland\palmtree.math.core.uint\palmtree.math.core.uint\pmc_inline_func.h

; 265  :         return (_subborrow_u32(borrow, u, v, w));

	sbb	eax, DWORD PTR [ebx+20]
	mov	DWORD PTR [edi+20], eax
; File z:\sources\lunor\repos\rougemeilland\palmtree.math.core.uint\palmtree.math.core.uint\autogenerated_inline_func.h

; 3455 :     c = _SUBTRUCT_UNIT(c, xp[6], yp[6], &zp[6]);

	mov	eax, DWORD PTR [esi+24]
; File z:\sources\lunor\repos\rougemeilland\palmtree.math.core.uint\palmtree.math.core.uint\pmc_inline_func.h

; 265  :         return (_subborrow_u32(borrow, u, v, w));

	sbb	eax, DWORD PTR [ebx+24]
	mov	DWORD PTR [edi+24], eax
; File z:\sources\lunor\repos\rougemeilland\palmtree.math.core.uint\palmtree.math.core.uint\autogenerated_inline_func.h

; 3456 :     c = _SUBTRUCT_UNIT(c, xp[7], yp[7], &zp[7]);

	mov	eax, DWORD PTR [esi+28]
; File z:\sources\lunor\repos\rougemeilland\palmtree.math.core.uint\palmtree.math.core.uint\pmc_inline_func.h

; 265  :         return (_subborrow_u32(borrow, u, v, w));

	sbb	eax, DWORD PTR [ebx+28]
	mov	DWORD PTR [edi+28], eax
	setb	dl
; File z:\sources\lunor\repos\rougemeilland\palmtree.math.core.uint\palmtree.math.core.uint\pmc_subtruct.c

; 147  :         up += 8;

	add	esi, 32					; 00000020H

; 148  :         vp += 8;

	add	ebx, 32					; 00000020H
	mov	BYTE PTR _c$[ebp], dl

; 149  :         wp += 8;

	add	edi, 32					; 00000020H
$LN5@Subtruct_I:

; 150  :     }
; 151  :     // この時点で未処理の桁は 8 ワード未満のはず
; 152  : 
; 153  :     // 未処理の桁が 4 ワード以上あるなら 4 ワード減算を行う。
; 154  :     if (v_count & 0x4)

	test	cl, 4
	je	SHORT $LN6@Subtruct_I
; File z:\sources\lunor\repos\rougemeilland\palmtree.math.core.uint\palmtree.math.core.uint\autogenerated_inline_func.h

; 4045 :     c = _SUBTRUCT_UNIT(c, xp[0], yp[0], &zp[0]);

	mov	eax, DWORD PTR [esi]
; File z:\sources\lunor\repos\rougemeilland\palmtree.math.core.uint\palmtree.math.core.uint\pmc_inline_func.h

; 265  :         return (_subborrow_u32(borrow, u, v, w));

	add	dl, 255					; 000000ffH
	sbb	eax, DWORD PTR [ebx]
	mov	DWORD PTR [edi], eax
; File z:\sources\lunor\repos\rougemeilland\palmtree.math.core.uint\palmtree.math.core.uint\autogenerated_inline_func.h

; 4046 :     c = _SUBTRUCT_UNIT(c, xp[1], yp[1], &zp[1]);

	mov	eax, DWORD PTR [esi+4]
; File z:\sources\lunor\repos\rougemeilland\palmtree.math.core.uint\palmtree.math.core.uint\pmc_inline_func.h

; 265  :         return (_subborrow_u32(borrow, u, v, w));

	sbb	eax, DWORD PTR [ebx+4]
	mov	DWORD PTR [edi+4], eax
; File z:\sources\lunor\repos\rougemeilland\palmtree.math.core.uint\palmtree.math.core.uint\autogenerated_inline_func.h

; 4047 :     c = _SUBTRUCT_UNIT(c, xp[2], yp[2], &zp[2]);

	mov	eax, DWORD PTR [esi+8]
; File z:\sources\lunor\repos\rougemeilland\palmtree.math.core.uint\palmtree.math.core.uint\pmc_inline_func.h

; 265  :         return (_subborrow_u32(borrow, u, v, w));

	sbb	eax, DWORD PTR [ebx+8]
	mov	DWORD PTR [edi+8], eax
; File z:\sources\lunor\repos\rougemeilland\palmtree.math.core.uint\palmtree.math.core.uint\autogenerated_inline_func.h

; 4048 :     c = _SUBTRUCT_UNIT(c, xp[3], yp[3], &zp[3]);

	mov	eax, DWORD PTR [esi+12]
; File z:\sources\lunor\repos\rougemeilland\palmtree.math.core.uint\palmtree.math.core.uint\pmc_inline_func.h

; 265  :         return (_subborrow_u32(borrow, u, v, w));

	sbb	eax, DWORD PTR [ebx+12]
	mov	DWORD PTR [edi+12], eax
	setb	dl
; File z:\sources\lunor\repos\rougemeilland\palmtree.math.core.uint\palmtree.math.core.uint\pmc_subtruct.c

; 157  :         up += 4;

	add	esi, 16					; 00000010H

; 158  :         vp += 4;

	add	ebx, 16					; 00000010H
	mov	BYTE PTR _c$[ebp], dl

; 159  :         wp += 4;

	add	edi, 16					; 00000010H
$LN6@Subtruct_I:

; 160  :     }
; 161  :     // この時点で未処理の桁は 4 ワード未満のはず
; 162  : 
; 163  :     // 未処理の桁が 2 ワード以上あるなら 2 ワード減算を行う。
; 164  :     if (v_count & 0x2)

	test	cl, 2
	je	SHORT $LN7@Subtruct_I
; File z:\sources\lunor\repos\rougemeilland\palmtree.math.core.uint\palmtree.math.core.uint\autogenerated_inline_func.h

; 4459 :     c = _SUBTRUCT_UNIT(c, xp[0], yp[0], &zp[0]);

	mov	eax, DWORD PTR [esi]
; File z:\sources\lunor\repos\rougemeilland\palmtree.math.core.uint\palmtree.math.core.uint\pmc_inline_func.h

; 265  :         return (_subborrow_u32(borrow, u, v, w));

	add	dl, 255					; 000000ffH
	sbb	eax, DWORD PTR [ebx]
	mov	DWORD PTR [edi], eax
; File z:\sources\lunor\repos\rougemeilland\palmtree.math.core.uint\palmtree.math.core.uint\autogenerated_inline_func.h

; 4460 :     c = _SUBTRUCT_UNIT(c, xp[1], yp[1], &zp[1]);

	mov	eax, DWORD PTR [esi+4]
; File z:\sources\lunor\repos\rougemeilland\palmtree.math.core.uint\palmtree.math.core.uint\pmc_inline_func.h

; 265  :         return (_subborrow_u32(borrow, u, v, w));

	sbb	eax, DWORD PTR [ebx+4]
	mov	DWORD PTR [edi+4], eax
	setb	dl
; File z:\sources\lunor\repos\rougemeilland\palmtree.math.core.uint\palmtree.math.core.uint\pmc_subtruct.c

; 167  :         up += 2;

	add	esi, 8

; 168  :         vp += 2;

	add	ebx, 8
	mov	BYTE PTR _c$[ebp], dl

; 169  :         wp += 2;

	add	edi, 8
$LN7@Subtruct_I:

; 170  :     }
; 171  :     // この時点で未処理の桁は 2 ワード未満のはず
; 172  : 
; 173  :     // 未処理の桁が 1 ワード以上あるなら 1 ワード減算を行う。
; 174  :     if (v_count & 1)

	test	cl, 1
	je	SHORT $LN8@Subtruct_I

; 175  :         c = _SUBTRUCT_UNIT(c, *up++, *vp++, wp++);

	mov	ecx, DWORD PTR [esi]
; File z:\sources\lunor\repos\rougemeilland\palmtree.math.core.uint\palmtree.math.core.uint\pmc_inline_func.h

; 265  :         return (_subborrow_u32(borrow, u, v, w));

	add	dl, 255					; 000000ffH
	sbb	ecx, DWORD PTR [ebx]
	mov	DWORD PTR [edi], ecx
; File z:\sources\lunor\repos\rougemeilland\palmtree.math.core.uint\palmtree.math.core.uint\pmc_subtruct.c

; 175  :         c = _SUBTRUCT_UNIT(c, *up++, *vp++, wp++);

	mov	ecx, DWORD PTR _v_count$[ebp]
; File z:\sources\lunor\repos\rougemeilland\palmtree.math.core.uint\palmtree.math.core.uint\pmc_inline_func.h

; 265  :         return (_subborrow_u32(borrow, u, v, w));

	setb	al
; File z:\sources\lunor\repos\rougemeilland\palmtree.math.core.uint\palmtree.math.core.uint\pmc_subtruct.c

; 175  :         c = _SUBTRUCT_UNIT(c, *up++, *vp++, wp++);

	add	esi, 4
	mov	BYTE PTR _c$[ebp], al
	add	edi, 4
$LN8@Subtruct_I:

; 176  : 
; 177  :     // 残りの桁の繰り上がりを計算し、復帰する。
; 178  :     return (DoBorrow(c, up, u_count - v_count, wp, w_count - v_count));

	mov	eax, DWORD PTR _w_count$[ebp]
	sub	eax, ecx
	push	eax
	mov	eax, DWORD PTR _u_count$[ebp]
	push	edi
	sub	eax, ecx
	push	eax
	push	esi
	push	DWORD PTR _c$[ebp]
	call	_DoBorrow
	add	esp, 20					; 00000014H
	pop	edi
	pop	esi
	pop	ebx

; 179  : }

	mov	esp, ebp
	pop	ebp
	ret	0
_Subtruct_Imp ENDP
_TEXT	ENDS
END
