; Listing generated by Microsoft (R) Optimizing Compiler Version 19.16.27027.1 

	TITLE	Z:\Sources\Lunor\Repos\rougemeilland\Palmtree.Math.Core.Uint\Palmtree.Math.Core.Uint\pmc_pow.cpp
	.686P
	.XMM
	include listing.inc
	.model	flat

INCLUDELIB MSVCRT
INCLUDELIB OLDNAMES

PUBLIC	??1exception@std@@UAE@XZ			; std::exception::~exception
PUBLIC	?what@exception@std@@UBEPBDXZ			; std::exception::what
PUBLIC	??_Gexception@std@@UAEPAXI@Z			; std::exception::`scalar deleting destructor'
PUBLIC	??0Exception@Internal@Core@Math@Palmtree@@QAE@ABV01234@@Z ; Palmtree::Math::Core::Internal::Exception::Exception
PUBLIC	??1Exception@Internal@Core@Math@Palmtree@@UAE@XZ ; Palmtree::Math::Core::Internal::Exception::~Exception
PUBLIC	??_GException@Internal@Core@Math@Palmtree@@UAEPAXI@Z ; Palmtree::Math::Core::Internal::Exception::`scalar deleting destructor'
PUBLIC	??0ArgumentNullException@Internal@Core@Math@Palmtree@@QAE@PB_W0@Z ; Palmtree::Math::Core::Internal::ArgumentNullException::ArgumentNullException
PUBLIC	??0ArgumentNullException@Internal@Core@Math@Palmtree@@QAE@ABV01234@@Z ; Palmtree::Math::Core::Internal::ArgumentNullException::ArgumentNullException
PUBLIC	??1ArgumentNullException@Internal@Core@Math@Palmtree@@UAE@XZ ; Palmtree::Math::Core::Internal::ArgumentNullException::~ArgumentNullException
PUBLIC	??_GArgumentNullException@Internal@Core@Math@Palmtree@@UAEPAXI@Z ; Palmtree::Math::Core::Internal::ArgumentNullException::`scalar deleting destructor'
PUBLIC	??0OverflowException@Internal@Core@Math@Palmtree@@QAE@PB_W@Z ; Palmtree::Math::Core::Internal::OverflowException::OverflowException
PUBLIC	??0OverflowException@Internal@Core@Math@Palmtree@@QAE@ABV01234@@Z ; Palmtree::Math::Core::Internal::OverflowException::OverflowException
PUBLIC	??1OverflowException@Internal@Core@Math@Palmtree@@UAE@XZ ; Palmtree::Math::Core::Internal::OverflowException::~OverflowException
PUBLIC	??_GOverflowException@Internal@Core@Math@Palmtree@@UAEPAXI@Z ; Palmtree::Math::Core::Internal::OverflowException::`scalar deleting destructor'
PUBLIC	??0ArithmeticException@Internal@Core@Math@Palmtree@@QAE@PB_W@Z ; Palmtree::Math::Core::Internal::ArithmeticException::ArithmeticException
PUBLIC	??1ArithmeticException@Internal@Core@Math@Palmtree@@UAE@XZ ; Palmtree::Math::Core::Internal::ArithmeticException::~ArithmeticException
PUBLIC	??0ArithmeticException@Internal@Core@Math@Palmtree@@QAE@ABV01234@@Z ; Palmtree::Math::Core::Internal::ArithmeticException::ArithmeticException
PUBLIC	??_GArithmeticException@Internal@Core@Math@Palmtree@@UAEPAXI@Z ; Palmtree::Math::Core::Internal::ArithmeticException::`scalar deleting destructor'
PUBLIC	??0NotSupportedException@Internal@Core@Math@Palmtree@@QAE@PB_W@Z ; Palmtree::Math::Core::Internal::NotSupportedException::NotSupportedException
PUBLIC	??0NotSupportedException@Internal@Core@Math@Palmtree@@QAE@ABV01234@@Z ; Palmtree::Math::Core::Internal::NotSupportedException::NotSupportedException
PUBLIC	??1NotSupportedException@Internal@Core@Math@Palmtree@@UAE@XZ ; Palmtree::Math::Core::Internal::NotSupportedException::~NotSupportedException
PUBLIC	??_GNotSupportedException@Internal@Core@Math@Palmtree@@UAEPAXI@Z ; Palmtree::Math::Core::Internal::NotSupportedException::`scalar deleting destructor'
PUBLIC	??1InternalErrorException@Internal@Core@Math@Palmtree@@UAE@XZ ; Palmtree::Math::Core::Internal::InternalErrorException::~InternalErrorException
PUBLIC	??_GInternalErrorException@Internal@Core@Math@Palmtree@@UAEPAXI@Z ; Palmtree::Math::Core::Internal::InternalErrorException::`scalar deleting destructor'
PUBLIC	?PMC_Pow_X_I_Imp@Internal@Core@Math@Palmtree@@YAPAU__tag_NUMBER_HEADER@1234@PAU51234@I@Z ; Palmtree::Math::Core::Internal::PMC_Pow_X_I_Imp
PUBLIC	?PMC_TimesOfExponentOf10_Imp@Internal@Core@Math@Palmtree@@YAPAU__tag_NUMBER_HEADER@1234@II@Z ; Palmtree::Math::Core::Internal::PMC_TimesOfExponentOf10_Imp
PUBLIC	?Initialize_Pow@Internal@Core@Math@Palmtree@@YAHPAU_tag_PROCESSOR_FEATURES@1234@@Z ; Palmtree::Math::Core::Internal::Initialize_Pow
PUBLIC	?PMC_Pow_X_I@Internal@Core@Math@Palmtree@@YGPAU__tag_PMC_HANDLE_UINT@1234@PAU51234@I@Z ; Palmtree::Math::Core::Internal::PMC_Pow_X_I
PUBLIC	?PMC_Pow_X_L@Internal@Core@Math@Palmtree@@YGPAU__tag_PMC_HANDLE_UINT@1234@PAU51234@_K@Z ; Palmtree::Math::Core::Internal::PMC_Pow_X_L
PUBLIC	?PMC_TimesOfExponentOf10@Internal@Core@Math@Palmtree@@YGPAU__tag_PMC_HANDLE_UINT@1234@II@Z ; Palmtree::Math::Core::Internal::PMC_TimesOfExponentOf10
PUBLIC	??_7exception@std@@6B@				; std::exception::`vftable'
PUBLIC	??_C@_0BC@EOODALEL@Unknown?5exception@		; `string'
PUBLIC	??_7Exception@Internal@Core@Math@Palmtree@@6B@	; Palmtree::Math::Core::Internal::Exception::`vftable'
PUBLIC	??_7ArgumentNullException@Internal@Core@Math@Palmtree@@6B@ ; Palmtree::Math::Core::Internal::ArgumentNullException::`vftable'
PUBLIC	??_7OverflowException@Internal@Core@Math@Palmtree@@6B@ ; Palmtree::Math::Core::Internal::OverflowException::`vftable'
PUBLIC	??_7ArithmeticException@Internal@Core@Math@Palmtree@@6B@ ; Palmtree::Math::Core::Internal::ArithmeticException::`vftable'
PUBLIC	??_7NotSupportedException@Internal@Core@Math@Palmtree@@6B@ ; Palmtree::Math::Core::Internal::NotSupportedException::`vftable'
PUBLIC	??_7InternalErrorException@Internal@Core@Math@Palmtree@@6B@ ; Palmtree::Math::Core::Internal::InternalErrorException::`vftable'
PUBLIC	??_R0?AVInternalErrorException@Internal@Core@Math@Palmtree@@@8 ; Palmtree::Math::Core::Internal::InternalErrorException `RTTI Type Descriptor'
PUBLIC	??_R0?AVException@Internal@Core@Math@Palmtree@@@8 ; Palmtree::Math::Core::Internal::Exception `RTTI Type Descriptor'
PUBLIC	__CT??_R0?AVException@Internal@Core@Math@Palmtree@@@8??0Exception@Internal@Core@Math@Palmtree@@QAE@ABV01234@@Z24
PUBLIC	__TI2?AVArithmeticException@Internal@Core@Math@Palmtree@@
PUBLIC	__CTA2?AVArithmeticException@Internal@Core@Math@Palmtree@@
PUBLIC	??_R0?AVArithmeticException@Internal@Core@Math@Palmtree@@@8 ; Palmtree::Math::Core::Internal::ArithmeticException `RTTI Type Descriptor'
PUBLIC	__CT??_R0?AVArithmeticException@Internal@Core@Math@Palmtree@@@8??0ArithmeticException@Internal@Core@Math@Palmtree@@QAE@ABV01234@@Z24
PUBLIC	??_C@_1BM@OCOOKOCJ@?$AA0?$AAn?$AA0?$AAW?$AAn?$AA$?$AAo?$AA?$CK?$PP?$JK?$PP?$KJ?$AAg?$AAY?$AA?$AC@ ; `string'
PUBLIC	__TI2?AVOverflowException@Internal@Core@Math@Palmtree@@
PUBLIC	__CTA2?AVOverflowException@Internal@Core@Math@Palmtree@@
PUBLIC	??_R0?AVOverflowException@Internal@Core@Math@Palmtree@@@8 ; Palmtree::Math::Core::Internal::OverflowException `RTTI Type Descriptor'
PUBLIC	__CT??_R0?AVOverflowException@Internal@Core@Math@Palmtree@@@8??0OverflowException@Internal@Core@Math@Palmtree@@QAE@ABV01234@@Z24
PUBLIC	??_C@_1CM@JEKMNCAI@?$PP?$KK?$PP?$PM?$PP?P?$PP?$PM?$PP?U?$PP?m?$PP?$PM?$AAk?$PP?$II?$PP?$IK?$AA?$AI?$PP?$JH?$PP?$JC?$PP?$JK?$AAL@ ; `string'
PUBLIC	__TI2?AVArgumentNullException@Internal@Core@Math@Palmtree@@
PUBLIC	__CTA2?AVArgumentNullException@Internal@Core@Math@Palmtree@@
PUBLIC	??_R0?AVArgumentNullException@Internal@Core@Math@Palmtree@@@8 ; Palmtree::Math::Core::Internal::ArgumentNullException `RTTI Type Descriptor'
PUBLIC	__CT??_R0?AVArgumentNullException@Internal@Core@Math@Palmtree@@@8??0ArgumentNullException@Internal@Core@Math@Palmtree@@QAE@ABV01234@@Z24
PUBLIC	??_C@_13JAOPNPKD@?$AAv@				; `string'
PUBLIC	??_C@_1CK@ECFIEPAC@?$AA?$BF?$AAp?$AAk?$AAn?$AAu?$AAl?$AAl?$AAp?$AAt?$AAr?$AAL?$AA?$AO?$AAH?$PP?$IJ?$PP?$IM@ ; `string'
PUBLIC	__TI2?AVNotSupportedException@Internal@Core@Math@Palmtree@@
PUBLIC	__CTA2?AVNotSupportedException@Internal@Core@Math@Palmtree@@
PUBLIC	??_R0?AVNotSupportedException@Internal@Core@Math@Palmtree@@@8 ; Palmtree::Math::Core::Internal::NotSupportedException `RTTI Type Descriptor'
PUBLIC	__CT??_R0?AVNotSupportedException@Internal@Core@Math@Palmtree@@@8??0NotSupportedException@Internal@Core@Math@Palmtree@@QAE@ABV01234@@Z24
PUBLIC	??_C@_1EI@GPLDNHEN@?$PP?$PO?$AA?$CI?$AAn?$PP?W?$PP?i?$PP?C?$PP?H?$PP?U?$PP?$KJ?$PP?$PM?$PP?$OA?$AAg?$AAo?$PP?$LF?$PP?$NN@ ; `string'
PUBLIC	??_R4exception@std@@6B@				; std::exception::`RTTI Complete Object Locator'
PUBLIC	??_R0?AVexception@std@@@8			; std::exception `RTTI Type Descriptor'
PUBLIC	??_R3exception@std@@8				; std::exception::`RTTI Class Hierarchy Descriptor'
PUBLIC	??_R2exception@std@@8				; std::exception::`RTTI Base Class Array'
PUBLIC	??_R1A@?0A@EA@exception@std@@8			; std::exception::`RTTI Base Class Descriptor at (0,-1,0,64)'
PUBLIC	??_R4Exception@Internal@Core@Math@Palmtree@@6B@	; Palmtree::Math::Core::Internal::Exception::`RTTI Complete Object Locator'
PUBLIC	??_R3Exception@Internal@Core@Math@Palmtree@@8	; Palmtree::Math::Core::Internal::Exception::`RTTI Class Hierarchy Descriptor'
PUBLIC	??_R2Exception@Internal@Core@Math@Palmtree@@8	; Palmtree::Math::Core::Internal::Exception::`RTTI Base Class Array'
PUBLIC	??_R1A@?0A@EA@Exception@Internal@Core@Math@Palmtree@@8 ; Palmtree::Math::Core::Internal::Exception::`RTTI Base Class Descriptor at (0,-1,0,64)'
PUBLIC	??_R1A@?0A@EN@exception@std@@8			; std::exception::`RTTI Base Class Descriptor at (0,-1,0,77)'
PUBLIC	??_R4ArgumentNullException@Internal@Core@Math@Palmtree@@6B@ ; Palmtree::Math::Core::Internal::ArgumentNullException::`RTTI Complete Object Locator'
PUBLIC	??_R3ArgumentNullException@Internal@Core@Math@Palmtree@@8 ; Palmtree::Math::Core::Internal::ArgumentNullException::`RTTI Class Hierarchy Descriptor'
PUBLIC	??_R2ArgumentNullException@Internal@Core@Math@Palmtree@@8 ; Palmtree::Math::Core::Internal::ArgumentNullException::`RTTI Base Class Array'
PUBLIC	??_R1A@?0A@EA@ArgumentNullException@Internal@Core@Math@Palmtree@@8 ; Palmtree::Math::Core::Internal::ArgumentNullException::`RTTI Base Class Descriptor at (0,-1,0,64)'
PUBLIC	??_R4OverflowException@Internal@Core@Math@Palmtree@@6B@ ; Palmtree::Math::Core::Internal::OverflowException::`RTTI Complete Object Locator'
PUBLIC	??_R3OverflowException@Internal@Core@Math@Palmtree@@8 ; Palmtree::Math::Core::Internal::OverflowException::`RTTI Class Hierarchy Descriptor'
PUBLIC	??_R2OverflowException@Internal@Core@Math@Palmtree@@8 ; Palmtree::Math::Core::Internal::OverflowException::`RTTI Base Class Array'
PUBLIC	??_R1A@?0A@EA@OverflowException@Internal@Core@Math@Palmtree@@8 ; Palmtree::Math::Core::Internal::OverflowException::`RTTI Base Class Descriptor at (0,-1,0,64)'
PUBLIC	??_R4ArithmeticException@Internal@Core@Math@Palmtree@@6B@ ; Palmtree::Math::Core::Internal::ArithmeticException::`RTTI Complete Object Locator'
PUBLIC	??_R3ArithmeticException@Internal@Core@Math@Palmtree@@8 ; Palmtree::Math::Core::Internal::ArithmeticException::`RTTI Class Hierarchy Descriptor'
PUBLIC	??_R2ArithmeticException@Internal@Core@Math@Palmtree@@8 ; Palmtree::Math::Core::Internal::ArithmeticException::`RTTI Base Class Array'
PUBLIC	??_R1A@?0A@EA@ArithmeticException@Internal@Core@Math@Palmtree@@8 ; Palmtree::Math::Core::Internal::ArithmeticException::`RTTI Base Class Descriptor at (0,-1,0,64)'
PUBLIC	??_R4NotSupportedException@Internal@Core@Math@Palmtree@@6B@ ; Palmtree::Math::Core::Internal::NotSupportedException::`RTTI Complete Object Locator'
PUBLIC	??_R3NotSupportedException@Internal@Core@Math@Palmtree@@8 ; Palmtree::Math::Core::Internal::NotSupportedException::`RTTI Class Hierarchy Descriptor'
PUBLIC	??_R2NotSupportedException@Internal@Core@Math@Palmtree@@8 ; Palmtree::Math::Core::Internal::NotSupportedException::`RTTI Base Class Array'
PUBLIC	??_R1A@?0A@EA@NotSupportedException@Internal@Core@Math@Palmtree@@8 ; Palmtree::Math::Core::Internal::NotSupportedException::`RTTI Base Class Descriptor at (0,-1,0,64)'
PUBLIC	??_R4InternalErrorException@Internal@Core@Math@Palmtree@@6B@ ; Palmtree::Math::Core::Internal::InternalErrorException::`RTTI Complete Object Locator'
PUBLIC	??_R3InternalErrorException@Internal@Core@Math@Palmtree@@8 ; Palmtree::Math::Core::Internal::InternalErrorException::`RTTI Class Hierarchy Descriptor'
PUBLIC	??_R2InternalErrorException@Internal@Core@Math@Palmtree@@8 ; Palmtree::Math::Core::Internal::InternalErrorException::`RTTI Base Class Array'
PUBLIC	??_R1A@?0A@EA@InternalErrorException@Internal@Core@Math@Palmtree@@8 ; Palmtree::Math::Core::Internal::InternalErrorException::`RTTI Base Class Descriptor at (0,-1,0,64)'
EXTRN	??3@YAXPAXI@Z:PROC				; operator delete
EXTRN	___std_exception_destroy:PROC
EXTRN	??_Eexception@std@@UAEPAXI@Z:PROC		; std::exception::`vector deleting destructor'
EXTRN	??_EException@Internal@Core@Math@Palmtree@@UAEPAXI@Z:PROC ; Palmtree::Math::Core::Internal::Exception::`vector deleting destructor'
EXTRN	??_EArgumentNullException@Internal@Core@Math@Palmtree@@UAEPAXI@Z:PROC ; Palmtree::Math::Core::Internal::ArgumentNullException::`vector deleting destructor'
EXTRN	??_EOverflowException@Internal@Core@Math@Palmtree@@UAEPAXI@Z:PROC ; Palmtree::Math::Core::Internal::OverflowException::`vector deleting destructor'
EXTRN	??_EArithmeticException@Internal@Core@Math@Palmtree@@UAEPAXI@Z:PROC ; Palmtree::Math::Core::Internal::ArithmeticException::`vector deleting destructor'
EXTRN	??_ENotSupportedException@Internal@Core@Math@Palmtree@@UAEPAXI@Z:PROC ; Palmtree::Math::Core::Internal::NotSupportedException::`vector deleting destructor'
EXTRN	??_EInternalErrorException@Internal@Core@Math@Palmtree@@UAEPAXI@Z:PROC ; Palmtree::Math::Core::Internal::InternalErrorException::`vector deleting destructor'
EXTRN	?CommitNumber@Internal@Core@Math@Palmtree@@YAXPAU__tag_NUMBER_HEADER@1234@@Z:PROC ; Palmtree::Math::Core::Internal::CommitNumber
EXTRN	?CheckNumber@Internal@Core@Math@Palmtree@@YAXPAU__tag_NUMBER_HEADER@1234@@Z:PROC ; Palmtree::Math::Core::Internal::CheckNumber
EXTRN	?DuplicateNumber@Internal@Core@Math@Palmtree@@YAPAU__tag_NUMBER_HEADER@1234@PAU51234@@Z:PROC ; Palmtree::Math::Core::Internal::DuplicateNumber
EXTRN	?From_I_Imp@Internal@Core@Math@Palmtree@@YAPAU__tag_NUMBER_HEADER@1234@I@Z:PROC ; Palmtree::Math::Core::Internal::From_I_Imp
EXTRN	?Multiply_X_X_Imp@Internal@Core@Math@Palmtree@@YAXPAII0I0@Z:PROC ; Palmtree::Math::Core::Internal::Multiply_X_X_Imp
EXTRN	?PMC_Multiply_X_I_Imp@Internal@Core@Math@Palmtree@@YAPAU__tag_NUMBER_HEADER@1234@PAU51234@I@Z:PROC ; Palmtree::Math::Core::Internal::PMC_Multiply_X_I_Imp
EXTRN	??0ResourceHolderUINT@Internal@Core@Math@Palmtree@@QAE@XZ:PROC ; Palmtree::Math::Core::Internal::ResourceHolderUINT::ResourceHolderUINT
EXTRN	??1ResourceHolderUINT@Internal@Core@Math@Palmtree@@UAE@XZ:PROC ; Palmtree::Math::Core::Internal::ResourceHolderUINT::~ResourceHolderUINT
EXTRN	?AllocateBlock@ResourceHolderUINT@Internal@Core@Math@Palmtree@@QAEPAII@Z:PROC ; Palmtree::Math::Core::Internal::ResourceHolderUINT::AllocateBlock
EXTRN	?CheckBlock@ResourceHolderUINT@Internal@Core@Math@Palmtree@@QAEXPAI@Z:PROC ; Palmtree::Math::Core::Internal::ResourceHolderUINT::CheckBlock
EXTRN	?AllocateNumber@ResourceHolderUINT@Internal@Core@Math@Palmtree@@QAEPAU__tag_NUMBER_HEADER@2345@I@Z:PROC ; Palmtree::Math::Core::Internal::ResourceHolderUINT::AllocateNumber
EXTRN	?HookNumber@ResourceHolderUINT@Internal@Core@Math@Palmtree@@QAEXPAU__tag_NUMBER_HEADER@2345@@Z:PROC ; Palmtree::Math::Core::Internal::ResourceHolderUINT::HookNumber
EXTRN	?CheckNumber@ResourceHolderUINT@Internal@Core@Math@Palmtree@@QAEXPAU__tag_NUMBER_HEADER@2345@@Z:PROC ; Palmtree::Math::Core::Internal::ResourceHolderUINT::CheckNumber
EXTRN	?UnlinkNumber@ResourceHolderUINT@Internal@Core@Math@Palmtree@@QAEXPAU__tag_NUMBER_HEADER@2345@@Z:PROC ; Palmtree::Math::Core::Internal::ResourceHolderUINT::UnlinkNumber
EXTRN	@__security_check_cookie@4:PROC
EXTRN	__CxxThrowException@8:PROC
EXTRN	___CxxFrameHandler3:PROC
EXTRN	?number_zero@Internal@Core@Math@Palmtree@@3U__tag_NUMBER_HEADER@1234@A:BYTE ; Palmtree::Math::Core::Internal::number_zero
EXTRN	?number_one@Internal@Core@Math@Palmtree@@3U__tag_NUMBER_HEADER@1234@A:BYTE ; Palmtree::Math::Core::Internal::number_one
EXTRN	??_7type_info@@6B@:QWORD			; type_info::`vftable'
EXTRN	___security_cookie:DWORD
;	COMDAT ??_R1A@?0A@EA@InternalErrorException@Internal@Core@Math@Palmtree@@8
rdata$r	SEGMENT
??_R1A@?0A@EA@InternalErrorException@Internal@Core@Math@Palmtree@@8 DD FLAT:??_R0?AVInternalErrorException@Internal@Core@Math@Palmtree@@@8 ; Palmtree::Math::Core::Internal::InternalErrorException::`RTTI Base Class Descriptor at (0,-1,0,64)'
	DD	02H
	DD	00H
	DD	0ffffffffH
	DD	00H
	DD	040H
	DD	FLAT:??_R3InternalErrorException@Internal@Core@Math@Palmtree@@8
rdata$r	ENDS
;	COMDAT ??_R2InternalErrorException@Internal@Core@Math@Palmtree@@8
rdata$r	SEGMENT
??_R2InternalErrorException@Internal@Core@Math@Palmtree@@8 DD FLAT:??_R1A@?0A@EA@InternalErrorException@Internal@Core@Math@Palmtree@@8 ; Palmtree::Math::Core::Internal::InternalErrorException::`RTTI Base Class Array'
	DD	FLAT:??_R1A@?0A@EA@Exception@Internal@Core@Math@Palmtree@@8
	DD	FLAT:??_R1A@?0A@EN@exception@std@@8
rdata$r	ENDS
;	COMDAT ??_R3InternalErrorException@Internal@Core@Math@Palmtree@@8
rdata$r	SEGMENT
??_R3InternalErrorException@Internal@Core@Math@Palmtree@@8 DD 00H ; Palmtree::Math::Core::Internal::InternalErrorException::`RTTI Class Hierarchy Descriptor'
	DD	00H
	DD	03H
	DD	FLAT:??_R2InternalErrorException@Internal@Core@Math@Palmtree@@8
rdata$r	ENDS
;	COMDAT ??_R4InternalErrorException@Internal@Core@Math@Palmtree@@6B@
rdata$r	SEGMENT
??_R4InternalErrorException@Internal@Core@Math@Palmtree@@6B@ DD 00H ; Palmtree::Math::Core::Internal::InternalErrorException::`RTTI Complete Object Locator'
	DD	00H
	DD	00H
	DD	FLAT:??_R0?AVInternalErrorException@Internal@Core@Math@Palmtree@@@8
	DD	FLAT:??_R3InternalErrorException@Internal@Core@Math@Palmtree@@8
rdata$r	ENDS
;	COMDAT ??_R1A@?0A@EA@NotSupportedException@Internal@Core@Math@Palmtree@@8
rdata$r	SEGMENT
??_R1A@?0A@EA@NotSupportedException@Internal@Core@Math@Palmtree@@8 DD FLAT:??_R0?AVNotSupportedException@Internal@Core@Math@Palmtree@@@8 ; Palmtree::Math::Core::Internal::NotSupportedException::`RTTI Base Class Descriptor at (0,-1,0,64)'
	DD	02H
	DD	00H
	DD	0ffffffffH
	DD	00H
	DD	040H
	DD	FLAT:??_R3NotSupportedException@Internal@Core@Math@Palmtree@@8
rdata$r	ENDS
;	COMDAT ??_R2NotSupportedException@Internal@Core@Math@Palmtree@@8
rdata$r	SEGMENT
??_R2NotSupportedException@Internal@Core@Math@Palmtree@@8 DD FLAT:??_R1A@?0A@EA@NotSupportedException@Internal@Core@Math@Palmtree@@8 ; Palmtree::Math::Core::Internal::NotSupportedException::`RTTI Base Class Array'
	DD	FLAT:??_R1A@?0A@EA@Exception@Internal@Core@Math@Palmtree@@8
	DD	FLAT:??_R1A@?0A@EN@exception@std@@8
rdata$r	ENDS
;	COMDAT ??_R3NotSupportedException@Internal@Core@Math@Palmtree@@8
rdata$r	SEGMENT
??_R3NotSupportedException@Internal@Core@Math@Palmtree@@8 DD 00H ; Palmtree::Math::Core::Internal::NotSupportedException::`RTTI Class Hierarchy Descriptor'
	DD	00H
	DD	03H
	DD	FLAT:??_R2NotSupportedException@Internal@Core@Math@Palmtree@@8
rdata$r	ENDS
;	COMDAT ??_R4NotSupportedException@Internal@Core@Math@Palmtree@@6B@
rdata$r	SEGMENT
??_R4NotSupportedException@Internal@Core@Math@Palmtree@@6B@ DD 00H ; Palmtree::Math::Core::Internal::NotSupportedException::`RTTI Complete Object Locator'
	DD	00H
	DD	00H
	DD	FLAT:??_R0?AVNotSupportedException@Internal@Core@Math@Palmtree@@@8
	DD	FLAT:??_R3NotSupportedException@Internal@Core@Math@Palmtree@@8
rdata$r	ENDS
;	COMDAT ??_R1A@?0A@EA@ArithmeticException@Internal@Core@Math@Palmtree@@8
rdata$r	SEGMENT
??_R1A@?0A@EA@ArithmeticException@Internal@Core@Math@Palmtree@@8 DD FLAT:??_R0?AVArithmeticException@Internal@Core@Math@Palmtree@@@8 ; Palmtree::Math::Core::Internal::ArithmeticException::`RTTI Base Class Descriptor at (0,-1,0,64)'
	DD	02H
	DD	00H
	DD	0ffffffffH
	DD	00H
	DD	040H
	DD	FLAT:??_R3ArithmeticException@Internal@Core@Math@Palmtree@@8
rdata$r	ENDS
;	COMDAT ??_R2ArithmeticException@Internal@Core@Math@Palmtree@@8
rdata$r	SEGMENT
??_R2ArithmeticException@Internal@Core@Math@Palmtree@@8 DD FLAT:??_R1A@?0A@EA@ArithmeticException@Internal@Core@Math@Palmtree@@8 ; Palmtree::Math::Core::Internal::ArithmeticException::`RTTI Base Class Array'
	DD	FLAT:??_R1A@?0A@EA@Exception@Internal@Core@Math@Palmtree@@8
	DD	FLAT:??_R1A@?0A@EN@exception@std@@8
rdata$r	ENDS
;	COMDAT ??_R3ArithmeticException@Internal@Core@Math@Palmtree@@8
rdata$r	SEGMENT
??_R3ArithmeticException@Internal@Core@Math@Palmtree@@8 DD 00H ; Palmtree::Math::Core::Internal::ArithmeticException::`RTTI Class Hierarchy Descriptor'
	DD	00H
	DD	03H
	DD	FLAT:??_R2ArithmeticException@Internal@Core@Math@Palmtree@@8
rdata$r	ENDS
;	COMDAT ??_R4ArithmeticException@Internal@Core@Math@Palmtree@@6B@
rdata$r	SEGMENT
??_R4ArithmeticException@Internal@Core@Math@Palmtree@@6B@ DD 00H ; Palmtree::Math::Core::Internal::ArithmeticException::`RTTI Complete Object Locator'
	DD	00H
	DD	00H
	DD	FLAT:??_R0?AVArithmeticException@Internal@Core@Math@Palmtree@@@8
	DD	FLAT:??_R3ArithmeticException@Internal@Core@Math@Palmtree@@8
rdata$r	ENDS
;	COMDAT ??_R1A@?0A@EA@OverflowException@Internal@Core@Math@Palmtree@@8
rdata$r	SEGMENT
??_R1A@?0A@EA@OverflowException@Internal@Core@Math@Palmtree@@8 DD FLAT:??_R0?AVOverflowException@Internal@Core@Math@Palmtree@@@8 ; Palmtree::Math::Core::Internal::OverflowException::`RTTI Base Class Descriptor at (0,-1,0,64)'
	DD	02H
	DD	00H
	DD	0ffffffffH
	DD	00H
	DD	040H
	DD	FLAT:??_R3OverflowException@Internal@Core@Math@Palmtree@@8
rdata$r	ENDS
;	COMDAT ??_R2OverflowException@Internal@Core@Math@Palmtree@@8
rdata$r	SEGMENT
??_R2OverflowException@Internal@Core@Math@Palmtree@@8 DD FLAT:??_R1A@?0A@EA@OverflowException@Internal@Core@Math@Palmtree@@8 ; Palmtree::Math::Core::Internal::OverflowException::`RTTI Base Class Array'
	DD	FLAT:??_R1A@?0A@EA@Exception@Internal@Core@Math@Palmtree@@8
	DD	FLAT:??_R1A@?0A@EN@exception@std@@8
rdata$r	ENDS
;	COMDAT ??_R3OverflowException@Internal@Core@Math@Palmtree@@8
rdata$r	SEGMENT
??_R3OverflowException@Internal@Core@Math@Palmtree@@8 DD 00H ; Palmtree::Math::Core::Internal::OverflowException::`RTTI Class Hierarchy Descriptor'
	DD	00H
	DD	03H
	DD	FLAT:??_R2OverflowException@Internal@Core@Math@Palmtree@@8
rdata$r	ENDS
;	COMDAT ??_R4OverflowException@Internal@Core@Math@Palmtree@@6B@
rdata$r	SEGMENT
??_R4OverflowException@Internal@Core@Math@Palmtree@@6B@ DD 00H ; Palmtree::Math::Core::Internal::OverflowException::`RTTI Complete Object Locator'
	DD	00H
	DD	00H
	DD	FLAT:??_R0?AVOverflowException@Internal@Core@Math@Palmtree@@@8
	DD	FLAT:??_R3OverflowException@Internal@Core@Math@Palmtree@@8
rdata$r	ENDS
;	COMDAT ??_R1A@?0A@EA@ArgumentNullException@Internal@Core@Math@Palmtree@@8
rdata$r	SEGMENT
??_R1A@?0A@EA@ArgumentNullException@Internal@Core@Math@Palmtree@@8 DD FLAT:??_R0?AVArgumentNullException@Internal@Core@Math@Palmtree@@@8 ; Palmtree::Math::Core::Internal::ArgumentNullException::`RTTI Base Class Descriptor at (0,-1,0,64)'
	DD	02H
	DD	00H
	DD	0ffffffffH
	DD	00H
	DD	040H
	DD	FLAT:??_R3ArgumentNullException@Internal@Core@Math@Palmtree@@8
rdata$r	ENDS
;	COMDAT ??_R2ArgumentNullException@Internal@Core@Math@Palmtree@@8
rdata$r	SEGMENT
??_R2ArgumentNullException@Internal@Core@Math@Palmtree@@8 DD FLAT:??_R1A@?0A@EA@ArgumentNullException@Internal@Core@Math@Palmtree@@8 ; Palmtree::Math::Core::Internal::ArgumentNullException::`RTTI Base Class Array'
	DD	FLAT:??_R1A@?0A@EA@Exception@Internal@Core@Math@Palmtree@@8
	DD	FLAT:??_R1A@?0A@EN@exception@std@@8
rdata$r	ENDS
;	COMDAT ??_R3ArgumentNullException@Internal@Core@Math@Palmtree@@8
rdata$r	SEGMENT
??_R3ArgumentNullException@Internal@Core@Math@Palmtree@@8 DD 00H ; Palmtree::Math::Core::Internal::ArgumentNullException::`RTTI Class Hierarchy Descriptor'
	DD	00H
	DD	03H
	DD	FLAT:??_R2ArgumentNullException@Internal@Core@Math@Palmtree@@8
rdata$r	ENDS
;	COMDAT ??_R4ArgumentNullException@Internal@Core@Math@Palmtree@@6B@
rdata$r	SEGMENT
??_R4ArgumentNullException@Internal@Core@Math@Palmtree@@6B@ DD 00H ; Palmtree::Math::Core::Internal::ArgumentNullException::`RTTI Complete Object Locator'
	DD	00H
	DD	00H
	DD	FLAT:??_R0?AVArgumentNullException@Internal@Core@Math@Palmtree@@@8
	DD	FLAT:??_R3ArgumentNullException@Internal@Core@Math@Palmtree@@8
rdata$r	ENDS
;	COMDAT ??_R1A@?0A@EN@exception@std@@8
rdata$r	SEGMENT
??_R1A@?0A@EN@exception@std@@8 DD FLAT:??_R0?AVexception@std@@@8 ; std::exception::`RTTI Base Class Descriptor at (0,-1,0,77)'
	DD	00H
	DD	00H
	DD	0ffffffffH
	DD	00H
	DD	04dH
	DD	FLAT:??_R3exception@std@@8
rdata$r	ENDS
;	COMDAT ??_R1A@?0A@EA@Exception@Internal@Core@Math@Palmtree@@8
rdata$r	SEGMENT
??_R1A@?0A@EA@Exception@Internal@Core@Math@Palmtree@@8 DD FLAT:??_R0?AVException@Internal@Core@Math@Palmtree@@@8 ; Palmtree::Math::Core::Internal::Exception::`RTTI Base Class Descriptor at (0,-1,0,64)'
	DD	01H
	DD	00H
	DD	0ffffffffH
	DD	00H
	DD	040H
	DD	FLAT:??_R3Exception@Internal@Core@Math@Palmtree@@8
rdata$r	ENDS
;	COMDAT ??_R2Exception@Internal@Core@Math@Palmtree@@8
rdata$r	SEGMENT
??_R2Exception@Internal@Core@Math@Palmtree@@8 DD FLAT:??_R1A@?0A@EA@Exception@Internal@Core@Math@Palmtree@@8 ; Palmtree::Math::Core::Internal::Exception::`RTTI Base Class Array'
	DD	FLAT:??_R1A@?0A@EN@exception@std@@8
rdata$r	ENDS
;	COMDAT ??_R3Exception@Internal@Core@Math@Palmtree@@8
rdata$r	SEGMENT
??_R3Exception@Internal@Core@Math@Palmtree@@8 DD 00H	; Palmtree::Math::Core::Internal::Exception::`RTTI Class Hierarchy Descriptor'
	DD	00H
	DD	02H
	DD	FLAT:??_R2Exception@Internal@Core@Math@Palmtree@@8
rdata$r	ENDS
;	COMDAT ??_R4Exception@Internal@Core@Math@Palmtree@@6B@
rdata$r	SEGMENT
??_R4Exception@Internal@Core@Math@Palmtree@@6B@ DD 00H	; Palmtree::Math::Core::Internal::Exception::`RTTI Complete Object Locator'
	DD	00H
	DD	00H
	DD	FLAT:??_R0?AVException@Internal@Core@Math@Palmtree@@@8
	DD	FLAT:??_R3Exception@Internal@Core@Math@Palmtree@@8
rdata$r	ENDS
;	COMDAT ??_R1A@?0A@EA@exception@std@@8
rdata$r	SEGMENT
??_R1A@?0A@EA@exception@std@@8 DD FLAT:??_R0?AVexception@std@@@8 ; std::exception::`RTTI Base Class Descriptor at (0,-1,0,64)'
	DD	00H
	DD	00H
	DD	0ffffffffH
	DD	00H
	DD	040H
	DD	FLAT:??_R3exception@std@@8
rdata$r	ENDS
;	COMDAT ??_R2exception@std@@8
rdata$r	SEGMENT
??_R2exception@std@@8 DD FLAT:??_R1A@?0A@EA@exception@std@@8 ; std::exception::`RTTI Base Class Array'
rdata$r	ENDS
;	COMDAT ??_R3exception@std@@8
rdata$r	SEGMENT
??_R3exception@std@@8 DD 00H				; std::exception::`RTTI Class Hierarchy Descriptor'
	DD	00H
	DD	01H
	DD	FLAT:??_R2exception@std@@8
rdata$r	ENDS
;	COMDAT ??_R0?AVexception@std@@@8
data$r	SEGMENT
??_R0?AVexception@std@@@8 DD FLAT:??_7type_info@@6B@	; std::exception `RTTI Type Descriptor'
	DD	00H
	DB	'.?AVexception@std@@', 00H
data$r	ENDS
;	COMDAT ??_R4exception@std@@6B@
rdata$r	SEGMENT
??_R4exception@std@@6B@ DD 00H				; std::exception::`RTTI Complete Object Locator'
	DD	00H
	DD	00H
	DD	FLAT:??_R0?AVexception@std@@@8
	DD	FLAT:??_R3exception@std@@8
rdata$r	ENDS
;	COMDAT ??_C@_1EI@GPLDNHEN@?$PP?$PO?$AA?$CI?$AAn?$PP?W?$PP?i?$PP?C?$PP?H?$PP?U?$PP?$KJ?$PP?$PM?$PP?$OA?$AAg?$AAo?$PP?$LF?$PP?$NN@
CONST	SEGMENT
??_C@_1EI@GPLDNHEN@?$PP?$PO?$AA?$CI?$AAn?$PP?W?$PP?i?$PP?C?$PP?H?$PP?U?$PP?$KJ?$PP?$PM?$PP?$OA?$AAg?$AAo?$PP?$LF?$PP?$NN@ DB 0feH
	DB	's(Wn0', 0d7H, '0', 0e9H, '0', 0c3H, '0', 0c8H, '0', 0d5H, '0', 0a9H
	DB	'0', 0fcH, '0', 0e0H, '0g0o0', 0b5H, '0', 0ddH, '0', 0fcH, '0', 0c8H
	DB	'0U0', 08cH, '0j0D0_j', 0fdH, 080H, 092H, '0', 09fH, '[L', 088H
	DB	'W0', 088H, '0F0h0W0~0W0_0', 02H, '0', 00H, 00H ; `string'
CONST	ENDS
;	COMDAT __CT??_R0?AVNotSupportedException@Internal@Core@Math@Palmtree@@@8??0NotSupportedException@Internal@Core@Math@Palmtree@@QAE@ABV01234@@Z24
xdata$x	SEGMENT
__CT??_R0?AVNotSupportedException@Internal@Core@Math@Palmtree@@@8??0NotSupportedException@Internal@Core@Math@Palmtree@@QAE@ABV01234@@Z24 DD 00H
	DD	FLAT:??_R0?AVNotSupportedException@Internal@Core@Math@Palmtree@@@8
	DD	00H
	DD	0ffffffffH
	ORG $+4
	DD	018H
	DD	FLAT:??0NotSupportedException@Internal@Core@Math@Palmtree@@QAE@ABV01234@@Z
xdata$x	ENDS
;	COMDAT ??_R0?AVNotSupportedException@Internal@Core@Math@Palmtree@@@8
data$r	SEGMENT
??_R0?AVNotSupportedException@Internal@Core@Math@Palmtree@@@8 DD FLAT:??_7type_info@@6B@ ; Palmtree::Math::Core::Internal::NotSupportedException `RTTI Type Descriptor'
	DD	00H
	DB	'.?AVNotSupportedException@Internal@Core@Math@Palmtree@@', 00H
data$r	ENDS
;	COMDAT __CTA2?AVNotSupportedException@Internal@Core@Math@Palmtree@@
xdata$x	SEGMENT
__CTA2?AVNotSupportedException@Internal@Core@Math@Palmtree@@ DD 02H
	DD	FLAT:__CT??_R0?AVNotSupportedException@Internal@Core@Math@Palmtree@@@8??0NotSupportedException@Internal@Core@Math@Palmtree@@QAE@ABV01234@@Z24
	DD	FLAT:__CT??_R0?AVException@Internal@Core@Math@Palmtree@@@8??0Exception@Internal@Core@Math@Palmtree@@QAE@ABV01234@@Z24
xdata$x	ENDS
;	COMDAT __TI2?AVNotSupportedException@Internal@Core@Math@Palmtree@@
xdata$x	SEGMENT
__TI2?AVNotSupportedException@Internal@Core@Math@Palmtree@@ DD 00H
	DD	FLAT:??1NotSupportedException@Internal@Core@Math@Palmtree@@UAE@XZ
	DD	00H
	DD	FLAT:__CTA2?AVNotSupportedException@Internal@Core@Math@Palmtree@@
xdata$x	ENDS
;	COMDAT ??_C@_1CK@ECFIEPAC@?$AA?$BF?$AAp?$AAk?$AAn?$AAu?$AAl?$AAl?$AAp?$AAt?$AAr?$AAL?$AA?$AO?$AAH?$PP?$IJ?$PP?$IM@
CONST	SEGMENT
??_C@_1CK@ECFIEPAC@?$AA?$BF?$AAp?$AAk?$AAn?$AAu?$AAl?$AAl?$AAp?$AAt?$AAr?$AAL?$AA?$AO?$AAH?$PP?$IJ?$PP?$IM@ DB 015H
	DB	'_pek0n', 00H, 'u', 00H, 'l', 00H, 'l', 00H, 'p', 00H, 't', 00H
	DB	'r', 00H, 'L0', 0eH, 'NH0', 089H, '0', 08cH, '0f0D0~0Y0', 02H, '0'
	DB	00H, 00H					; `string'
CONST	ENDS
;	COMDAT ??_C@_13JAOPNPKD@?$AAv@
CONST	SEGMENT
??_C@_13JAOPNPKD@?$AAv@ DB 'v', 00H, 00H, 00H		; `string'
CONST	ENDS
;	COMDAT __CT??_R0?AVArgumentNullException@Internal@Core@Math@Palmtree@@@8??0ArgumentNullException@Internal@Core@Math@Palmtree@@QAE@ABV01234@@Z24
xdata$x	SEGMENT
__CT??_R0?AVArgumentNullException@Internal@Core@Math@Palmtree@@@8??0ArgumentNullException@Internal@Core@Math@Palmtree@@QAE@ABV01234@@Z24 DD 00H
	DD	FLAT:??_R0?AVArgumentNullException@Internal@Core@Math@Palmtree@@@8
	DD	00H
	DD	0ffffffffH
	ORG $+4
	DD	018H
	DD	FLAT:??0ArgumentNullException@Internal@Core@Math@Palmtree@@QAE@ABV01234@@Z
xdata$x	ENDS
;	COMDAT ??_R0?AVArgumentNullException@Internal@Core@Math@Palmtree@@@8
data$r	SEGMENT
??_R0?AVArgumentNullException@Internal@Core@Math@Palmtree@@@8 DD FLAT:??_7type_info@@6B@ ; Palmtree::Math::Core::Internal::ArgumentNullException `RTTI Type Descriptor'
	DD	00H
	DB	'.?AVArgumentNullException@Internal@Core@Math@Palmtree@@', 00H
data$r	ENDS
;	COMDAT __CTA2?AVArgumentNullException@Internal@Core@Math@Palmtree@@
xdata$x	SEGMENT
__CTA2?AVArgumentNullException@Internal@Core@Math@Palmtree@@ DD 02H
	DD	FLAT:__CT??_R0?AVArgumentNullException@Internal@Core@Math@Palmtree@@@8??0ArgumentNullException@Internal@Core@Math@Palmtree@@QAE@ABV01234@@Z24
	DD	FLAT:__CT??_R0?AVException@Internal@Core@Math@Palmtree@@@8??0Exception@Internal@Core@Math@Palmtree@@QAE@ABV01234@@Z24
xdata$x	ENDS
;	COMDAT __TI2?AVArgumentNullException@Internal@Core@Math@Palmtree@@
xdata$x	SEGMENT
__TI2?AVArgumentNullException@Internal@Core@Math@Palmtree@@ DD 00H
	DD	FLAT:??1ArgumentNullException@Internal@Core@Math@Palmtree@@UAE@XZ
	DD	00H
	DD	FLAT:__CTA2?AVArgumentNullException@Internal@Core@Math@Palmtree@@
xdata$x	ENDS
;	COMDAT ??_C@_1CM@JEKMNCAI@?$PP?$KK?$PP?$PM?$PP?P?$PP?$PM?$PP?U?$PP?m?$PP?$PM?$AAk?$PP?$II?$PP?$IK?$AA?$AI?$PP?$JH?$PP?$JC?$PP?$JK?$AAL@
CONST	SEGMENT
??_C@_1CM@JEKMNCAI@?$PP?$KK?$PP?$PM?$PP?P?$PP?$PM?$PP?U?$PP?m?$PP?$PM?$AAk?$PP?$II?$PP?$IK?$AA?$AI?$PP?$JH?$PP?$JC?$PP?$JK?$AAL@ DB 0aaH
	DB	'0', 0fcH, '0', 0d0H, '0', 0fcH, '0', 0d5H, '0', 0edH, '0', 0fcH
	DB	'0k0', 088H, '0', 08aH, '0', 08H, 08aH, 097H, '{', 092H, '0', 09aH
	DB	'}L', 088H, 'g0M0~0[0', 093H, '0', 02H, '0', 00H, 00H ; `string'
CONST	ENDS
;	COMDAT __CT??_R0?AVOverflowException@Internal@Core@Math@Palmtree@@@8??0OverflowException@Internal@Core@Math@Palmtree@@QAE@ABV01234@@Z24
xdata$x	SEGMENT
__CT??_R0?AVOverflowException@Internal@Core@Math@Palmtree@@@8??0OverflowException@Internal@Core@Math@Palmtree@@QAE@ABV01234@@Z24 DD 00H
	DD	FLAT:??_R0?AVOverflowException@Internal@Core@Math@Palmtree@@@8
	DD	00H
	DD	0ffffffffH
	ORG $+4
	DD	018H
	DD	FLAT:??0OverflowException@Internal@Core@Math@Palmtree@@QAE@ABV01234@@Z
xdata$x	ENDS
;	COMDAT ??_R0?AVOverflowException@Internal@Core@Math@Palmtree@@@8
data$r	SEGMENT
??_R0?AVOverflowException@Internal@Core@Math@Palmtree@@@8 DD FLAT:??_7type_info@@6B@ ; Palmtree::Math::Core::Internal::OverflowException `RTTI Type Descriptor'
	DD	00H
	DB	'.?AVOverflowException@Internal@Core@Math@Palmtree@@', 00H
data$r	ENDS
;	COMDAT __CTA2?AVOverflowException@Internal@Core@Math@Palmtree@@
xdata$x	SEGMENT
__CTA2?AVOverflowException@Internal@Core@Math@Palmtree@@ DD 02H
	DD	FLAT:__CT??_R0?AVOverflowException@Internal@Core@Math@Palmtree@@@8??0OverflowException@Internal@Core@Math@Palmtree@@QAE@ABV01234@@Z24
	DD	FLAT:__CT??_R0?AVException@Internal@Core@Math@Palmtree@@@8??0Exception@Internal@Core@Math@Palmtree@@QAE@ABV01234@@Z24
xdata$x	ENDS
;	COMDAT __TI2?AVOverflowException@Internal@Core@Math@Palmtree@@
xdata$x	SEGMENT
__TI2?AVOverflowException@Internal@Core@Math@Palmtree@@ DD 00H
	DD	FLAT:??1OverflowException@Internal@Core@Math@Palmtree@@UAE@XZ
	DD	00H
	DD	FLAT:__CTA2?AVOverflowException@Internal@Core@Math@Palmtree@@
xdata$x	ENDS
;	COMDAT ??_C@_1BM@OCOOKOCJ@?$AA0?$AAn?$AA0?$AAW?$AAn?$AA$?$AAo?$AA?$CK?$PP?$JK?$PP?$KJ?$AAg?$AAY?$AA?$AC@
CONST	SEGMENT
??_C@_1BM@OCOOKOCJ@?$AA0?$AAn?$AA0?$AAW?$AAn?$AA$?$AAo?$AA?$CK?$PP?$JK?$PP?$KJ?$AAg?$AAY?$AA?$AC@ DB '0'
	DB	00H, 'n00', 00H, 'WNn0$Po0*g', 09aH, '[', 0a9H, 07fH, 'g0Y0', 02H
	DB	'0', 00H, 00H				; `string'
CONST	ENDS
;	COMDAT __CT??_R0?AVArithmeticException@Internal@Core@Math@Palmtree@@@8??0ArithmeticException@Internal@Core@Math@Palmtree@@QAE@ABV01234@@Z24
xdata$x	SEGMENT
__CT??_R0?AVArithmeticException@Internal@Core@Math@Palmtree@@@8??0ArithmeticException@Internal@Core@Math@Palmtree@@QAE@ABV01234@@Z24 DD 00H
	DD	FLAT:??_R0?AVArithmeticException@Internal@Core@Math@Palmtree@@@8
	DD	00H
	DD	0ffffffffH
	ORG $+4
	DD	018H
	DD	FLAT:??0ArithmeticException@Internal@Core@Math@Palmtree@@QAE@ABV01234@@Z
xdata$x	ENDS
;	COMDAT ??_R0?AVArithmeticException@Internal@Core@Math@Palmtree@@@8
data$r	SEGMENT
??_R0?AVArithmeticException@Internal@Core@Math@Palmtree@@@8 DD FLAT:??_7type_info@@6B@ ; Palmtree::Math::Core::Internal::ArithmeticException `RTTI Type Descriptor'
	DD	00H
	DB	'.?AVArithmeticException@Internal@Core@Math@Palmtree@@', 00H
data$r	ENDS
;	COMDAT __CTA2?AVArithmeticException@Internal@Core@Math@Palmtree@@
xdata$x	SEGMENT
__CTA2?AVArithmeticException@Internal@Core@Math@Palmtree@@ DD 02H
	DD	FLAT:__CT??_R0?AVArithmeticException@Internal@Core@Math@Palmtree@@@8??0ArithmeticException@Internal@Core@Math@Palmtree@@QAE@ABV01234@@Z24
	DD	FLAT:__CT??_R0?AVException@Internal@Core@Math@Palmtree@@@8??0Exception@Internal@Core@Math@Palmtree@@QAE@ABV01234@@Z24
xdata$x	ENDS
;	COMDAT __TI2?AVArithmeticException@Internal@Core@Math@Palmtree@@
xdata$x	SEGMENT
__TI2?AVArithmeticException@Internal@Core@Math@Palmtree@@ DD 00H
	DD	FLAT:??1ArithmeticException@Internal@Core@Math@Palmtree@@UAE@XZ
	DD	00H
	DD	FLAT:__CTA2?AVArithmeticException@Internal@Core@Math@Palmtree@@
xdata$x	ENDS
;	COMDAT __CT??_R0?AVException@Internal@Core@Math@Palmtree@@@8??0Exception@Internal@Core@Math@Palmtree@@QAE@ABV01234@@Z24
xdata$x	SEGMENT
__CT??_R0?AVException@Internal@Core@Math@Palmtree@@@8??0Exception@Internal@Core@Math@Palmtree@@QAE@ABV01234@@Z24 DD 00H
	DD	FLAT:??_R0?AVException@Internal@Core@Math@Palmtree@@@8
	DD	00H
	DD	0ffffffffH
	ORG $+4
	DD	018H
	DD	FLAT:??0Exception@Internal@Core@Math@Palmtree@@QAE@ABV01234@@Z
xdata$x	ENDS
;	COMDAT ??_R0?AVException@Internal@Core@Math@Palmtree@@@8
data$r	SEGMENT
??_R0?AVException@Internal@Core@Math@Palmtree@@@8 DD FLAT:??_7type_info@@6B@ ; Palmtree::Math::Core::Internal::Exception `RTTI Type Descriptor'
	DD	00H
	DB	'.?AVException@Internal@Core@Math@Palmtree@@', 00H
data$r	ENDS
;	COMDAT ??_R0?AVInternalErrorException@Internal@Core@Math@Palmtree@@@8
data$r	SEGMENT
??_R0?AVInternalErrorException@Internal@Core@Math@Palmtree@@@8 DD FLAT:??_7type_info@@6B@ ; Palmtree::Math::Core::Internal::InternalErrorException `RTTI Type Descriptor'
	DD	00H
	DB	'.?AVInternalErrorException@Internal@Core@Math@Palmtree@@'
	DB	00H
data$r	ENDS
;	COMDAT ??_7InternalErrorException@Internal@Core@Math@Palmtree@@6B@
CONST	SEGMENT
??_7InternalErrorException@Internal@Core@Math@Palmtree@@6B@ DD FLAT:??_R4InternalErrorException@Internal@Core@Math@Palmtree@@6B@ ; Palmtree::Math::Core::Internal::InternalErrorException::`vftable'
	DD	FLAT:??_EInternalErrorException@Internal@Core@Math@Palmtree@@UAEPAXI@Z
	DD	FLAT:?what@exception@std@@UBEPBDXZ
CONST	ENDS
;	COMDAT ??_7NotSupportedException@Internal@Core@Math@Palmtree@@6B@
CONST	SEGMENT
??_7NotSupportedException@Internal@Core@Math@Palmtree@@6B@ DD FLAT:??_R4NotSupportedException@Internal@Core@Math@Palmtree@@6B@ ; Palmtree::Math::Core::Internal::NotSupportedException::`vftable'
	DD	FLAT:??_ENotSupportedException@Internal@Core@Math@Palmtree@@UAEPAXI@Z
	DD	FLAT:?what@exception@std@@UBEPBDXZ
CONST	ENDS
;	COMDAT ??_7ArithmeticException@Internal@Core@Math@Palmtree@@6B@
CONST	SEGMENT
??_7ArithmeticException@Internal@Core@Math@Palmtree@@6B@ DD FLAT:??_R4ArithmeticException@Internal@Core@Math@Palmtree@@6B@ ; Palmtree::Math::Core::Internal::ArithmeticException::`vftable'
	DD	FLAT:??_EArithmeticException@Internal@Core@Math@Palmtree@@UAEPAXI@Z
	DD	FLAT:?what@exception@std@@UBEPBDXZ
CONST	ENDS
;	COMDAT ??_7OverflowException@Internal@Core@Math@Palmtree@@6B@
CONST	SEGMENT
??_7OverflowException@Internal@Core@Math@Palmtree@@6B@ DD FLAT:??_R4OverflowException@Internal@Core@Math@Palmtree@@6B@ ; Palmtree::Math::Core::Internal::OverflowException::`vftable'
	DD	FLAT:??_EOverflowException@Internal@Core@Math@Palmtree@@UAEPAXI@Z
	DD	FLAT:?what@exception@std@@UBEPBDXZ
CONST	ENDS
;	COMDAT ??_7ArgumentNullException@Internal@Core@Math@Palmtree@@6B@
CONST	SEGMENT
??_7ArgumentNullException@Internal@Core@Math@Palmtree@@6B@ DD FLAT:??_R4ArgumentNullException@Internal@Core@Math@Palmtree@@6B@ ; Palmtree::Math::Core::Internal::ArgumentNullException::`vftable'
	DD	FLAT:??_EArgumentNullException@Internal@Core@Math@Palmtree@@UAEPAXI@Z
	DD	FLAT:?what@exception@std@@UBEPBDXZ
CONST	ENDS
;	COMDAT ??_7Exception@Internal@Core@Math@Palmtree@@6B@
CONST	SEGMENT
??_7Exception@Internal@Core@Math@Palmtree@@6B@ DD FLAT:??_R4Exception@Internal@Core@Math@Palmtree@@6B@ ; Palmtree::Math::Core::Internal::Exception::`vftable'
	DD	FLAT:??_EException@Internal@Core@Math@Palmtree@@UAEPAXI@Z
	DD	FLAT:?what@exception@std@@UBEPBDXZ
CONST	ENDS
;	COMDAT ??_C@_0BC@EOODALEL@Unknown?5exception@
CONST	SEGMENT
??_C@_0BC@EOODALEL@Unknown?5exception@ DB 'Unknown exception', 00H ; `string'
CONST	ENDS
;	COMDAT ??_7exception@std@@6B@
CONST	SEGMENT
??_7exception@std@@6B@ DD FLAT:??_R4exception@std@@6B@	; std::exception::`vftable'
	DD	FLAT:??_Eexception@std@@UAEPAXI@Z
	DD	FLAT:?what@exception@std@@UBEPBDXZ
CONST	ENDS
;	COMDAT xdata$x
xdata$x	SEGMENT
__unwindtable$?PMC_TimesOfExponentOf10@Internal@Core@Math@Palmtree@@YGPAU__tag_PMC_HANDLE_UINT@1234@II@Z DD 0ffffffffH
	DD	FLAT:__unwindfunclet$?PMC_TimesOfExponentOf10@Internal@Core@Math@Palmtree@@YGPAU__tag_PMC_HANDLE_UINT@1234@II@Z$0
__ehfuncinfo$?PMC_TimesOfExponentOf10@Internal@Core@Math@Palmtree@@YGPAU__tag_PMC_HANDLE_UINT@1234@II@Z DD 019930522H
	DD	01H
	DD	FLAT:__unwindtable$?PMC_TimesOfExponentOf10@Internal@Core@Math@Palmtree@@YGPAU__tag_PMC_HANDLE_UINT@1234@II@Z
	DD	2 DUP(00H)
	DD	2 DUP(00H)
	DD	00H
	DD	00H
xdata$x	ENDS
;	COMDAT xdata$x
xdata$x	SEGMENT
__unwindtable$?PMC_Pow_X_I@Internal@Core@Math@Palmtree@@YGPAU__tag_PMC_HANDLE_UINT@1234@PAU51234@I@Z DD 0ffffffffH
	DD	FLAT:__unwindfunclet$?PMC_Pow_X_I@Internal@Core@Math@Palmtree@@YGPAU__tag_PMC_HANDLE_UINT@1234@PAU51234@I@Z$0
__ehfuncinfo$?PMC_Pow_X_I@Internal@Core@Math@Palmtree@@YGPAU__tag_PMC_HANDLE_UINT@1234@PAU51234@I@Z DD 019930522H
	DD	01H
	DD	FLAT:__unwindtable$?PMC_Pow_X_I@Internal@Core@Math@Palmtree@@YGPAU__tag_PMC_HANDLE_UINT@1234@PAU51234@I@Z
	DD	2 DUP(00H)
	DD	2 DUP(00H)
	DD	00H
	DD	00H
xdata$x	ENDS
;	COMDAT xdata$x
xdata$x	SEGMENT
__unwindtable$?PMC_TimesOfExponentOf10_Imp@Internal@Core@Math@Palmtree@@YAPAU__tag_NUMBER_HEADER@1234@II@Z DD 0ffffffffH
	DD	FLAT:__unwindfunclet$?PMC_TimesOfExponentOf10_Imp@Internal@Core@Math@Palmtree@@YAPAU__tag_NUMBER_HEADER@1234@II@Z$0
__ehfuncinfo$?PMC_TimesOfExponentOf10_Imp@Internal@Core@Math@Palmtree@@YAPAU__tag_NUMBER_HEADER@1234@II@Z DD 019930522H
	DD	01H
	DD	FLAT:__unwindtable$?PMC_TimesOfExponentOf10_Imp@Internal@Core@Math@Palmtree@@YAPAU__tag_NUMBER_HEADER@1234@II@Z
	DD	2 DUP(00H)
	DD	2 DUP(00H)
	DD	00H
	DD	00H
xdata$x	ENDS
;	COMDAT xdata$x
xdata$x	SEGMENT
__unwindtable$?PMC_Pow_X_I_Imp@Internal@Core@Math@Palmtree@@YAPAU__tag_NUMBER_HEADER@1234@PAU51234@I@Z DD 0ffffffffH
	DD	FLAT:__unwindfunclet$?PMC_Pow_X_I_Imp@Internal@Core@Math@Palmtree@@YAPAU__tag_NUMBER_HEADER@1234@PAU51234@I@Z$0
__ehfuncinfo$?PMC_Pow_X_I_Imp@Internal@Core@Math@Palmtree@@YAPAU__tag_NUMBER_HEADER@1234@PAU51234@I@Z DD 019930522H
	DD	01H
	DD	FLAT:__unwindtable$?PMC_Pow_X_I_Imp@Internal@Core@Math@Palmtree@@YAPAU__tag_NUMBER_HEADER@1234@PAU51234@I@Z
	DD	2 DUP(00H)
	DD	2 DUP(00H)
	DD	00H
	DD	00H
xdata$x	ENDS
;	COMDAT xdata$x
xdata$x	SEGMENT
__unwindtable$??_GInternalErrorException@Internal@Core@Math@Palmtree@@UAEPAXI@Z DD 0ffffffffH
	DD	FLAT:__unwindfunclet$??_GInternalErrorException@Internal@Core@Math@Palmtree@@UAEPAXI@Z$0
	DD	0ffffffffH
	DD	FLAT:__unwindfunclet$??_GInternalErrorException@Internal@Core@Math@Palmtree@@UAEPAXI@Z$1
__ehfuncinfo$??_GInternalErrorException@Internal@Core@Math@Palmtree@@UAEPAXI@Z DD 019930522H
	DD	02H
	DD	FLAT:__unwindtable$??_GInternalErrorException@Internal@Core@Math@Palmtree@@UAEPAXI@Z
	DD	2 DUP(00H)
	DD	2 DUP(00H)
	DD	00H
	DD	04H
xdata$x	ENDS
;	COMDAT xdata$x
xdata$x	SEGMENT
__unwindtable$??1InternalErrorException@Internal@Core@Math@Palmtree@@UAE@XZ DD 0ffffffffH
	DD	FLAT:__unwindfunclet$??1InternalErrorException@Internal@Core@Math@Palmtree@@UAE@XZ$0
	DD	0ffffffffH
	DD	FLAT:__unwindfunclet$??1InternalErrorException@Internal@Core@Math@Palmtree@@UAE@XZ$1
__ehfuncinfo$??1InternalErrorException@Internal@Core@Math@Palmtree@@UAE@XZ DD 019930522H
	DD	02H
	DD	FLAT:__unwindtable$??1InternalErrorException@Internal@Core@Math@Palmtree@@UAE@XZ
	DD	2 DUP(00H)
	DD	2 DUP(00H)
	DD	00H
	DD	04H
xdata$x	ENDS
;	COMDAT xdata$x
xdata$x	SEGMENT
__unwindtable$??0InternalErrorException@Internal@Core@Math@Palmtree@@QAE@PB_W0@Z DD 0ffffffffH
	DD	FLAT:__unwindfunclet$??0InternalErrorException@Internal@Core@Math@Palmtree@@QAE@PB_W0@Z$1
	DD	0ffffffffH
	DD	FLAT:__unwindfunclet$??0InternalErrorException@Internal@Core@Math@Palmtree@@QAE@PB_W0@Z$0
__ehfuncinfo$??0InternalErrorException@Internal@Core@Math@Palmtree@@QAE@PB_W0@Z DD 019930522H
	DD	02H
	DD	FLAT:__unwindtable$??0InternalErrorException@Internal@Core@Math@Palmtree@@QAE@PB_W0@Z
	DD	2 DUP(00H)
	DD	2 DUP(00H)
	DD	00H
	DD	04H
xdata$x	ENDS
;	COMDAT xdata$x
xdata$x	SEGMENT
__unwindtable$??_GNotSupportedException@Internal@Core@Math@Palmtree@@UAEPAXI@Z DD 0ffffffffH
	DD	FLAT:__unwindfunclet$??_GNotSupportedException@Internal@Core@Math@Palmtree@@UAEPAXI@Z$0
	DD	0ffffffffH
	DD	FLAT:__unwindfunclet$??_GNotSupportedException@Internal@Core@Math@Palmtree@@UAEPAXI@Z$1
__ehfuncinfo$??_GNotSupportedException@Internal@Core@Math@Palmtree@@UAEPAXI@Z DD 019930522H
	DD	02H
	DD	FLAT:__unwindtable$??_GNotSupportedException@Internal@Core@Math@Palmtree@@UAEPAXI@Z
	DD	2 DUP(00H)
	DD	2 DUP(00H)
	DD	00H
	DD	04H
xdata$x	ENDS
;	COMDAT xdata$x
xdata$x	SEGMENT
__unwindtable$??1NotSupportedException@Internal@Core@Math@Palmtree@@UAE@XZ DD 0ffffffffH
	DD	FLAT:__unwindfunclet$??1NotSupportedException@Internal@Core@Math@Palmtree@@UAE@XZ$0
	DD	0ffffffffH
	DD	FLAT:__unwindfunclet$??1NotSupportedException@Internal@Core@Math@Palmtree@@UAE@XZ$1
__ehfuncinfo$??1NotSupportedException@Internal@Core@Math@Palmtree@@UAE@XZ DD 019930522H
	DD	02H
	DD	FLAT:__unwindtable$??1NotSupportedException@Internal@Core@Math@Palmtree@@UAE@XZ
	DD	2 DUP(00H)
	DD	2 DUP(00H)
	DD	00H
	DD	04H
xdata$x	ENDS
;	COMDAT xdata$x
xdata$x	SEGMENT
__unwindtable$??0NotSupportedException@Internal@Core@Math@Palmtree@@QAE@ABV01234@@Z DD 0ffffffffH
	DD	FLAT:__unwindfunclet$??0NotSupportedException@Internal@Core@Math@Palmtree@@QAE@ABV01234@@Z$1
	DD	0ffffffffH
	DD	FLAT:__unwindfunclet$??0NotSupportedException@Internal@Core@Math@Palmtree@@QAE@ABV01234@@Z$0
__ehfuncinfo$??0NotSupportedException@Internal@Core@Math@Palmtree@@QAE@ABV01234@@Z DD 019930522H
	DD	02H
	DD	FLAT:__unwindtable$??0NotSupportedException@Internal@Core@Math@Palmtree@@QAE@ABV01234@@Z
	DD	2 DUP(00H)
	DD	2 DUP(00H)
	DD	00H
	DD	04H
xdata$x	ENDS
;	COMDAT xdata$x
xdata$x	SEGMENT
__unwindtable$??0NotSupportedException@Internal@Core@Math@Palmtree@@QAE@PB_W@Z DD 0ffffffffH
	DD	FLAT:__unwindfunclet$??0NotSupportedException@Internal@Core@Math@Palmtree@@QAE@PB_W@Z$1
	DD	0ffffffffH
	DD	FLAT:__unwindfunclet$??0NotSupportedException@Internal@Core@Math@Palmtree@@QAE@PB_W@Z$0
__ehfuncinfo$??0NotSupportedException@Internal@Core@Math@Palmtree@@QAE@PB_W@Z DD 019930522H
	DD	02H
	DD	FLAT:__unwindtable$??0NotSupportedException@Internal@Core@Math@Palmtree@@QAE@PB_W@Z
	DD	2 DUP(00H)
	DD	2 DUP(00H)
	DD	00H
	DD	04H
xdata$x	ENDS
;	COMDAT xdata$x
xdata$x	SEGMENT
__unwindtable$??_GArithmeticException@Internal@Core@Math@Palmtree@@UAEPAXI@Z DD 0ffffffffH
	DD	FLAT:__unwindfunclet$??_GArithmeticException@Internal@Core@Math@Palmtree@@UAEPAXI@Z$0
	DD	0ffffffffH
	DD	FLAT:__unwindfunclet$??_GArithmeticException@Internal@Core@Math@Palmtree@@UAEPAXI@Z$1
__ehfuncinfo$??_GArithmeticException@Internal@Core@Math@Palmtree@@UAEPAXI@Z DD 019930522H
	DD	02H
	DD	FLAT:__unwindtable$??_GArithmeticException@Internal@Core@Math@Palmtree@@UAEPAXI@Z
	DD	2 DUP(00H)
	DD	2 DUP(00H)
	DD	00H
	DD	04H
xdata$x	ENDS
;	COMDAT xdata$x
xdata$x	SEGMENT
__unwindtable$??0ArithmeticException@Internal@Core@Math@Palmtree@@QAE@ABV01234@@Z DD 0ffffffffH
	DD	FLAT:__unwindfunclet$??0ArithmeticException@Internal@Core@Math@Palmtree@@QAE@ABV01234@@Z$1
	DD	0ffffffffH
	DD	FLAT:__unwindfunclet$??0ArithmeticException@Internal@Core@Math@Palmtree@@QAE@ABV01234@@Z$0
__ehfuncinfo$??0ArithmeticException@Internal@Core@Math@Palmtree@@QAE@ABV01234@@Z DD 019930522H
	DD	02H
	DD	FLAT:__unwindtable$??0ArithmeticException@Internal@Core@Math@Palmtree@@QAE@ABV01234@@Z
	DD	2 DUP(00H)
	DD	2 DUP(00H)
	DD	00H
	DD	04H
xdata$x	ENDS
;	COMDAT xdata$x
xdata$x	SEGMENT
__unwindtable$??1ArithmeticException@Internal@Core@Math@Palmtree@@UAE@XZ DD 0ffffffffH
	DD	FLAT:__unwindfunclet$??1ArithmeticException@Internal@Core@Math@Palmtree@@UAE@XZ$0
	DD	0ffffffffH
	DD	FLAT:__unwindfunclet$??1ArithmeticException@Internal@Core@Math@Palmtree@@UAE@XZ$1
__ehfuncinfo$??1ArithmeticException@Internal@Core@Math@Palmtree@@UAE@XZ DD 019930522H
	DD	02H
	DD	FLAT:__unwindtable$??1ArithmeticException@Internal@Core@Math@Palmtree@@UAE@XZ
	DD	2 DUP(00H)
	DD	2 DUP(00H)
	DD	00H
	DD	04H
xdata$x	ENDS
;	COMDAT xdata$x
xdata$x	SEGMENT
__unwindtable$??0ArithmeticException@Internal@Core@Math@Palmtree@@QAE@PB_W@Z DD 0ffffffffH
	DD	FLAT:__unwindfunclet$??0ArithmeticException@Internal@Core@Math@Palmtree@@QAE@PB_W@Z$1
	DD	0ffffffffH
	DD	FLAT:__unwindfunclet$??0ArithmeticException@Internal@Core@Math@Palmtree@@QAE@PB_W@Z$0
__ehfuncinfo$??0ArithmeticException@Internal@Core@Math@Palmtree@@QAE@PB_W@Z DD 019930522H
	DD	02H
	DD	FLAT:__unwindtable$??0ArithmeticException@Internal@Core@Math@Palmtree@@QAE@PB_W@Z
	DD	2 DUP(00H)
	DD	2 DUP(00H)
	DD	00H
	DD	04H
xdata$x	ENDS
;	COMDAT xdata$x
xdata$x	SEGMENT
__unwindtable$??_GOverflowException@Internal@Core@Math@Palmtree@@UAEPAXI@Z DD 0ffffffffH
	DD	FLAT:__unwindfunclet$??_GOverflowException@Internal@Core@Math@Palmtree@@UAEPAXI@Z$0
	DD	0ffffffffH
	DD	FLAT:__unwindfunclet$??_GOverflowException@Internal@Core@Math@Palmtree@@UAEPAXI@Z$1
__ehfuncinfo$??_GOverflowException@Internal@Core@Math@Palmtree@@UAEPAXI@Z DD 019930522H
	DD	02H
	DD	FLAT:__unwindtable$??_GOverflowException@Internal@Core@Math@Palmtree@@UAEPAXI@Z
	DD	2 DUP(00H)
	DD	2 DUP(00H)
	DD	00H
	DD	04H
xdata$x	ENDS
;	COMDAT xdata$x
xdata$x	SEGMENT
__unwindtable$??1OverflowException@Internal@Core@Math@Palmtree@@UAE@XZ DD 0ffffffffH
	DD	FLAT:__unwindfunclet$??1OverflowException@Internal@Core@Math@Palmtree@@UAE@XZ$0
	DD	0ffffffffH
	DD	FLAT:__unwindfunclet$??1OverflowException@Internal@Core@Math@Palmtree@@UAE@XZ$1
__ehfuncinfo$??1OverflowException@Internal@Core@Math@Palmtree@@UAE@XZ DD 019930522H
	DD	02H
	DD	FLAT:__unwindtable$??1OverflowException@Internal@Core@Math@Palmtree@@UAE@XZ
	DD	2 DUP(00H)
	DD	2 DUP(00H)
	DD	00H
	DD	04H
xdata$x	ENDS
;	COMDAT xdata$x
xdata$x	SEGMENT
__unwindtable$??0OverflowException@Internal@Core@Math@Palmtree@@QAE@ABV01234@@Z DD 0ffffffffH
	DD	FLAT:__unwindfunclet$??0OverflowException@Internal@Core@Math@Palmtree@@QAE@ABV01234@@Z$1
	DD	0ffffffffH
	DD	FLAT:__unwindfunclet$??0OverflowException@Internal@Core@Math@Palmtree@@QAE@ABV01234@@Z$0
__ehfuncinfo$??0OverflowException@Internal@Core@Math@Palmtree@@QAE@ABV01234@@Z DD 019930522H
	DD	02H
	DD	FLAT:__unwindtable$??0OverflowException@Internal@Core@Math@Palmtree@@QAE@ABV01234@@Z
	DD	2 DUP(00H)
	DD	2 DUP(00H)
	DD	00H
	DD	04H
xdata$x	ENDS
;	COMDAT xdata$x
xdata$x	SEGMENT
__unwindtable$??0OverflowException@Internal@Core@Math@Palmtree@@QAE@PB_W@Z DD 0ffffffffH
	DD	FLAT:__unwindfunclet$??0OverflowException@Internal@Core@Math@Palmtree@@QAE@PB_W@Z$1
	DD	0ffffffffH
	DD	FLAT:__unwindfunclet$??0OverflowException@Internal@Core@Math@Palmtree@@QAE@PB_W@Z$0
__ehfuncinfo$??0OverflowException@Internal@Core@Math@Palmtree@@QAE@PB_W@Z DD 019930522H
	DD	02H
	DD	FLAT:__unwindtable$??0OverflowException@Internal@Core@Math@Palmtree@@QAE@PB_W@Z
	DD	2 DUP(00H)
	DD	2 DUP(00H)
	DD	00H
	DD	04H
xdata$x	ENDS
;	COMDAT xdata$x
xdata$x	SEGMENT
__unwindtable$??_GArgumentNullException@Internal@Core@Math@Palmtree@@UAEPAXI@Z DD 0ffffffffH
	DD	FLAT:__unwindfunclet$??_GArgumentNullException@Internal@Core@Math@Palmtree@@UAEPAXI@Z$0
	DD	0ffffffffH
	DD	FLAT:__unwindfunclet$??_GArgumentNullException@Internal@Core@Math@Palmtree@@UAEPAXI@Z$1
__ehfuncinfo$??_GArgumentNullException@Internal@Core@Math@Palmtree@@UAEPAXI@Z DD 019930522H
	DD	02H
	DD	FLAT:__unwindtable$??_GArgumentNullException@Internal@Core@Math@Palmtree@@UAEPAXI@Z
	DD	2 DUP(00H)
	DD	2 DUP(00H)
	DD	00H
	DD	04H
xdata$x	ENDS
;	COMDAT xdata$x
xdata$x	SEGMENT
__unwindtable$??1ArgumentNullException@Internal@Core@Math@Palmtree@@UAE@XZ DD 0ffffffffH
	DD	FLAT:__unwindfunclet$??1ArgumentNullException@Internal@Core@Math@Palmtree@@UAE@XZ$0
	DD	0ffffffffH
	DD	FLAT:__unwindfunclet$??1ArgumentNullException@Internal@Core@Math@Palmtree@@UAE@XZ$1
__ehfuncinfo$??1ArgumentNullException@Internal@Core@Math@Palmtree@@UAE@XZ DD 019930522H
	DD	02H
	DD	FLAT:__unwindtable$??1ArgumentNullException@Internal@Core@Math@Palmtree@@UAE@XZ
	DD	2 DUP(00H)
	DD	2 DUP(00H)
	DD	00H
	DD	04H
xdata$x	ENDS
;	COMDAT xdata$x
xdata$x	SEGMENT
__unwindtable$??0ArgumentNullException@Internal@Core@Math@Palmtree@@QAE@ABV01234@@Z DD 0ffffffffH
	DD	FLAT:__unwindfunclet$??0ArgumentNullException@Internal@Core@Math@Palmtree@@QAE@ABV01234@@Z$1
	DD	0ffffffffH
	DD	FLAT:__unwindfunclet$??0ArgumentNullException@Internal@Core@Math@Palmtree@@QAE@ABV01234@@Z$0
__ehfuncinfo$??0ArgumentNullException@Internal@Core@Math@Palmtree@@QAE@ABV01234@@Z DD 019930522H
	DD	02H
	DD	FLAT:__unwindtable$??0ArgumentNullException@Internal@Core@Math@Palmtree@@QAE@ABV01234@@Z
	DD	2 DUP(00H)
	DD	2 DUP(00H)
	DD	00H
	DD	04H
xdata$x	ENDS
;	COMDAT xdata$x
xdata$x	SEGMENT
__unwindtable$??0ArgumentNullException@Internal@Core@Math@Palmtree@@QAE@PB_W0@Z DD 0ffffffffH
	DD	FLAT:__unwindfunclet$??0ArgumentNullException@Internal@Core@Math@Palmtree@@QAE@PB_W0@Z$1
	DD	0ffffffffH
	DD	FLAT:__unwindfunclet$??0ArgumentNullException@Internal@Core@Math@Palmtree@@QAE@PB_W0@Z$0
__ehfuncinfo$??0ArgumentNullException@Internal@Core@Math@Palmtree@@QAE@PB_W0@Z DD 019930522H
	DD	02H
	DD	FLAT:__unwindtable$??0ArgumentNullException@Internal@Core@Math@Palmtree@@QAE@PB_W0@Z
	DD	2 DUP(00H)
	DD	2 DUP(00H)
	DD	00H
	DD	04H
xdata$x	ENDS
;	COMDAT xdata$x
xdata$x	SEGMENT
__unwindtable$??_GException@Internal@Core@Math@Palmtree@@UAEPAXI@Z DD 0ffffffffH
	DD	FLAT:__unwindfunclet$??_GException@Internal@Core@Math@Palmtree@@UAEPAXI@Z$0
__ehfuncinfo$??_GException@Internal@Core@Math@Palmtree@@UAEPAXI@Z DD 019930522H
	DD	01H
	DD	FLAT:__unwindtable$??_GException@Internal@Core@Math@Palmtree@@UAEPAXI@Z
	DD	2 DUP(00H)
	DD	2 DUP(00H)
	DD	00H
	DD	04H
xdata$x	ENDS
;	COMDAT xdata$x
xdata$x	SEGMENT
__unwindtable$??1Exception@Internal@Core@Math@Palmtree@@UAE@XZ DD 0ffffffffH
	DD	FLAT:__unwindfunclet$??1Exception@Internal@Core@Math@Palmtree@@UAE@XZ$0
__ehfuncinfo$??1Exception@Internal@Core@Math@Palmtree@@UAE@XZ DD 019930522H
	DD	01H
	DD	FLAT:__unwindtable$??1Exception@Internal@Core@Math@Palmtree@@UAE@XZ
	DD	2 DUP(00H)
	DD	2 DUP(00H)
	DD	00H
	DD	04H
xdata$x	ENDS
;	COMDAT xdata$x
xdata$x	SEGMENT
__unwindtable$??0Exception@Internal@Core@Math@Palmtree@@QAE@ABV01234@@Z DD 0ffffffffH
	DD	FLAT:__unwindfunclet$??0Exception@Internal@Core@Math@Palmtree@@QAE@ABV01234@@Z$0
__ehfuncinfo$??0Exception@Internal@Core@Math@Palmtree@@QAE@ABV01234@@Z DD 019930522H
	DD	01H
	DD	FLAT:__unwindtable$??0Exception@Internal@Core@Math@Palmtree@@QAE@ABV01234@@Z
	DD	2 DUP(00H)
	DD	2 DUP(00H)
	DD	00H
	DD	04H
xdata$x	ENDS
;	COMDAT xdata$x
xdata$x	SEGMENT
__unwindtable$??0Exception@Internal@Core@Math@Palmtree@@IAE@HPB_W0@Z DD 0ffffffffH
	DD	FLAT:__unwindfunclet$??0Exception@Internal@Core@Math@Palmtree@@IAE@HPB_W0@Z$0
__ehfuncinfo$??0Exception@Internal@Core@Math@Palmtree@@IAE@HPB_W0@Z DD 019930522H
	DD	01H
	DD	FLAT:__unwindtable$??0Exception@Internal@Core@Math@Palmtree@@IAE@HPB_W0@Z
	DD	2 DUP(00H)
	DD	2 DUP(00H)
	DD	00H
	DD	04H
xdata$x	ENDS
;	COMDAT xdata$x
xdata$x	SEGMENT
__unwindtable$??0Exception@Internal@Core@Math@Palmtree@@IAE@HPB_W@Z DD 0ffffffffH
	DD	FLAT:__unwindfunclet$??0Exception@Internal@Core@Math@Palmtree@@IAE@HPB_W@Z$0
__ehfuncinfo$??0Exception@Internal@Core@Math@Palmtree@@IAE@HPB_W@Z DD 019930522H
	DD	01H
	DD	FLAT:__unwindtable$??0Exception@Internal@Core@Math@Palmtree@@IAE@HPB_W@Z
	DD	2 DUP(00H)
	DD	2 DUP(00H)
	DD	00H
	DD	04H
xdata$x	ENDS
;	COMDAT xdata$x
xdata$x	SEGMENT
__ehfuncinfo$??_Gexception@std@@UAEPAXI@Z DD 019930522H
	DD	00H
	DD	00H
	DD	2 DUP(00H)
	DD	2 DUP(00H)
	DD	00H
	DD	04H
xdata$x	ENDS
;	COMDAT xdata$x
xdata$x	SEGMENT
__ehfuncinfo$??1exception@std@@UAE@XZ DD 019930522H
	DD	00H
	DD	00H
	DD	2 DUP(00H)
	DD	2 DUP(00H)
	DD	00H
	DD	04H
xdata$x	ENDS
; Function compile flags: /Ogtp
; File z:\sources\lunor\repos\rougemeilland\palmtree.math.core.uint\palmtree.math.core.uint\pmc_pow.cpp
; File z:\sources\lunor\repos\rougemeilland\palmtree.math.core.uint\palmtree.math.core.uint\pmc_inline_func.h
; File z:\sources\lunor\repos\rougemeilland\palmtree.math.core.uint\palmtree.math.core.uint\pmc_pow.cpp
; File z:\sources\lunor\repos\rougemeilland\palmtree.math.core.uint\palmtree.math.core.uint\pmc_inline_func.h
; File z:\sources\lunor\repos\rougemeilland\palmtree.math.core.uint\palmtree.math.core.uint\pmc_pow.cpp
; File z:\sources\lunor\repos\rougemeilland\palmtree.math.core.uint\palmtree.math.core.uint\pmc_inline_func.h
; File z:\sources\lunor\repos\rougemeilland\palmtree.math.core.uint\palmtree.math.core.uint\pmc_pow.cpp
; File z:\sources\lunor\repos\rougemeilland\palmtree.math.core.uint\palmtree.math.core.uint\pmc_inline_func.h
; File z:\sources\lunor\repos\rougemeilland\palmtree.math.core.uint\palmtree.math.core.uint\pmc_pow.cpp
; File z:\sources\lunor\repos\rougemeilland\palmtree.math.core.uint\palmtree.math.core.uint\pmc_inline_func.h
; File z:\sources\lunor\repos\rougemeilland\palmtree.math.core.uint\palmtree.math.core.uint\pmc_pow.cpp
; File z:\sources\lunor\repos\rougemeilland\palmtree.math.core.uint\palmtree.math.core.uint\pmc_inline_func.h
; File z:\sources\lunor\repos\rougemeilland\palmtree.math.core.uint\palmtree.math.core.uint\pmc_pow.cpp
; File z:\sources\lunor\repos\rougemeilland\palmtree.math.core.uint\palmtree.math.core.uint\pmc_inline_func.h
; File z:\sources\lunor\repos\rougemeilland\palmtree.math.core.uint\palmtree.math.core.uint\pmc_pow.cpp
; File z:\sources\lunor\repos\rougemeilland\palmtree.math.core.uint\palmtree.math.core.uint\pmc_inline_func.h
; File z:\sources\lunor\repos\rougemeilland\palmtree.math.core.uint\palmtree.math.core.uint\pmc_pow.cpp
; File z:\sources\lunor\repos\rougemeilland\palmtree.math.core.uint\palmtree.math.core.uint\pmc_inline_func.h
; File z:\sources\lunor\repos\rougemeilland\palmtree.math.core.uint\palmtree.math.core.uint\pmc_pow.cpp
;	COMDAT ?Pow_X_I_Imp@Internal@Core@Math@Palmtree@@YAXPAIII000@Z
_TEXT	SEGMENT
tv282 = -8						; size = 4
_e_mask$1$ = -4						; size = 4
_v_buf$ = 8						; size = 4
_v_buf_count$ = 12					; size = 4
_e$ = 16						; size = 4
_u_count$2$ = 20					; size = 4
_work1_buf$ = 20					; size = 4
_work2_buf$ = 24					; size = 4
_r_buf$ = 28						; size = 4
?Pow_X_I_Imp@Internal@Core@Math@Palmtree@@YAXPAIII000@Z PROC ; Palmtree::Math::Core::Internal::Pow_X_I_Imp, COMDAT

; 37   :     {

  00000	55		 push	 ebp
  00001	8b ec		 mov	 ebp, esp
; File z:\sources\lunor\repos\rougemeilland\palmtree.math.core.uint\palmtree.math.core.uint\pmc_inline_func.h

; 422  :             if (x == 0)

  00003	8b 45 10	 mov	 eax, DWORD PTR _e$[ebp]
; File z:\sources\lunor\repos\rougemeilland\palmtree.math.core.uint\palmtree.math.core.uint\pmc_pow.cpp

; 37   :     {

  00006	83 ec 08	 sub	 esp, 8
; File z:\sources\lunor\repos\rougemeilland\palmtree.math.core.uint\palmtree.math.core.uint\pmc_inline_func.h

; 422  :             if (x == 0)

  00009	85 c0		 test	 eax, eax
  0000b	75 07		 jne	 SHORT $LN10@Pow_X_I_Im

; 423  :                 return (sizeof(x) * 8);

  0000d	b8 20 00 00 00	 mov	 eax, 32			; 00000020H
  00012	eb 0c		 jmp	 SHORT $LN9@Pow_X_I_Im
$LN10@Pow_X_I_Im:

; 424  :             DWORD pos;
; 425  : #ifdef _MSC_VER
; 426  :             _BitScanReverse(&pos, x);

  00014	0f bd c0	 bsr	 eax, eax

; 427  : #elif defined(__GNUC__)
; 428  :             __asm__("bsrl %1, %0" : "=r"(pos) : "rm"(x));
; 429  : #else
; 430  : #error unknown compiler
; 431  : #endif
; 432  :             return (sizeof(x) * 8 - 1 - pos);

  00017	b9 1f 00 00 00	 mov	 ecx, 31			; 0000001fH
  0001c	2b c8		 sub	 ecx, eax
  0001e	8b c1		 mov	 eax, ecx
$LN9@Pow_X_I_Im:
; File z:\sources\lunor\repos\rougemeilland\palmtree.math.core.uint\palmtree.math.core.uint\pmc_pow.cpp

; 45   :         __UNIT_TYPE u_count = v_buf_count;

  00020	8b 4d 0c	 mov	 ecx, DWORD PTR _v_buf_count$[ebp]
  00023	8b d1		 mov	 edx, ecx
  00025	53		 push	 ebx
  00026	8b 5d 14	 mov	 ebx, DWORD PTR _work1_buf$[ebp]
  00029	56		 push	 esi
; File z:\sources\lunor\repos\rougemeilland\palmtree.math.core.uint\palmtree.math.core.uint\pmc_inline_func.h

; 65   :             __movsd((unsigned long *)d, (unsigned long *)s, (unsigned long)count);

  0002a	8b 75 08	 mov	 esi, DWORD PTR _v_buf$[ebp]
  0002d	57		 push	 edi
  0002e	8b fb		 mov	 edi, ebx
; File z:\sources\lunor\repos\rougemeilland\palmtree.math.core.uint\palmtree.math.core.uint\pmc_pow.cpp

; 45   :         __UNIT_TYPE u_count = v_buf_count;

  00030	89 55 14	 mov	 DWORD PTR _u_count$2$[ebp], edx
; File z:\sources\lunor\repos\rougemeilland\palmtree.math.core.uint\palmtree.math.core.uint\pmc_inline_func.h

; 65   :             __movsd((unsigned long *)d, (unsigned long *)s, (unsigned long)count);

  00033	f3 a5		 rep movsd
; File z:\sources\lunor\repos\rougemeilland\palmtree.math.core.uint\palmtree.math.core.uint\pmc_pow.cpp

; 38   :         _UINT32_T e_mask = _rotr(1, _LZCNT_ALT_32(e) + 1);

  00035	8d 48 01	 lea	 ecx, DWORD PTR [eax+1]
  00038	b8 01 00 00 00	 mov	 eax, 1
  0003d	d3 c8		 ror	 eax, cl

; 46   :         __UNIT_TYPE v_count = v_buf_count;
; 47   :         _COPY_MEMORY_UNIT(work1_buf, v_buf, v_buf_count);
; 48   :         e_mask >>= 1;

  0003f	d1 e8		 shr	 eax, 1
  00041	89 45 fc	 mov	 DWORD PTR _e_mask$1$[ebp], eax

; 49   :         while (e_mask != 0)

  00044	0f 84 83 00 00
	00		 je	 $LN3@Pow_X_I_Im
  0004a	8b 7d 18	 mov	 edi, DWORD PTR _work2_buf$[ebp]
  0004d	0f 1f 00	 npad	 3
$LL2@Pow_X_I_Im:

; 50   :         {
; 51   :             // u  w 
; 52   :             _ZERO_MEMORY_UNIT(w_ptr, u_count * 2);

  00050	8d 34 12	 lea	 esi, DWORD PTR [edx+edx]
  00053	89 45 f8	 mov	 DWORD PTR tv282[ebp], eax
; File z:\sources\lunor\repos\rougemeilland\palmtree.math.core.uint\palmtree.math.core.uint\pmc_inline_func.h

; 98   :             __stosd((unsigned long*)d, 0, (unsigned long)count);

  00056	33 c0		 xor	 eax, eax
  00058	8b ce		 mov	 ecx, esi
  0005a	f3 ab		 rep stosd
; File z:\sources\lunor\repos\rougemeilland\palmtree.math.core.uint\palmtree.math.core.uint\pmc_pow.cpp

; 53   :             Multiply_X_X_Imp(u_ptr, u_count, u_ptr, u_count, w_ptr);

  0005c	8b 7d 18	 mov	 edi, DWORD PTR _work2_buf$[ebp]
  0005f	57		 push	 edi
  00060	52		 push	 edx
  00061	53		 push	 ebx
  00062	52		 push	 edx
  00063	53		 push	 ebx
  00064	e8 00 00 00 00	 call	 ?Multiply_X_X_Imp@Internal@Core@Math@Palmtree@@YAXPAII0I0@Z ; Palmtree::Math::Core::Internal::Multiply_X_X_Imp

; 54   :             u_count *= 2;
; 55   :             if (w_ptr[u_count - 1] == 0)
; 56   :                 --u_count;
; 57   : 
; 58   :             // e  bit 
; 59   :             if (e & e_mask)

  00069	8b 4d 14	 mov	 ecx, DWORD PTR _u_count$2$[ebp]
  0006c	8d 56 ff	 lea	 edx, DWORD PTR [esi-1]
  0006f	8b 45 10	 mov	 eax, DWORD PTR _e$[ebp]
  00072	83 c4 14	 add	 esp, 20			; 00000014H
  00075	83 7c cf fc 00	 cmp	 DWORD PTR [edi+ecx*8-4], 0
  0007a	0f 45 d6	 cmovne	 edx, esi
  0007d	89 55 14	 mov	 DWORD PTR _u_count$2$[ebp], edx
  00080	85 45 fc	 test	 DWORD PTR _e_mask$1$[ebp], eax
  00083	74 31		 je	 SHORT $LN5@Pow_X_I_Im

; 60   :             {
; 61   :                 // bit  u = w * v 
; 62   :                 _ZERO_MEMORY_UNIT(u_ptr, u_count + v_count);

  00085	8b 75 0c	 mov	 esi, DWORD PTR _v_buf_count$[ebp]
; File z:\sources\lunor\repos\rougemeilland\palmtree.math.core.uint\palmtree.math.core.uint\pmc_inline_func.h

; 98   :             __stosd((unsigned long*)d, 0, (unsigned long)count);

  00088	33 c0		 xor	 eax, eax
; File z:\sources\lunor\repos\rougemeilland\palmtree.math.core.uint\palmtree.math.core.uint\pmc_pow.cpp

; 63   :                 Multiply_X_X_Imp(w_ptr, u_count, v_ptr, v_count, u_ptr);

  0008a	53		 push	 ebx
  0008b	ff 75 0c	 push	 DWORD PTR _v_buf_count$[ebp]
  0008e	03 f2		 add	 esi, edx
; File z:\sources\lunor\repos\rougemeilland\palmtree.math.core.uint\palmtree.math.core.uint\pmc_inline_func.h

; 98   :             __stosd((unsigned long*)d, 0, (unsigned long)count);

  00090	8b fb		 mov	 edi, ebx
; File z:\sources\lunor\repos\rougemeilland\palmtree.math.core.uint\palmtree.math.core.uint\pmc_pow.cpp

; 63   :                 Multiply_X_X_Imp(w_ptr, u_count, v_ptr, v_count, u_ptr);

  00092	ff 75 08	 push	 DWORD PTR _v_buf$[ebp]
; File z:\sources\lunor\repos\rougemeilland\palmtree.math.core.uint\palmtree.math.core.uint\pmc_inline_func.h

; 98   :             __stosd((unsigned long*)d, 0, (unsigned long)count);

  00095	8b ce		 mov	 ecx, esi
  00097	f3 ab		 rep stosd
; File z:\sources\lunor\repos\rougemeilland\palmtree.math.core.uint\palmtree.math.core.uint\pmc_pow.cpp

; 63   :                 Multiply_X_X_Imp(w_ptr, u_count, v_ptr, v_count, u_ptr);

  00099	8b 7d 18	 mov	 edi, DWORD PTR _work2_buf$[ebp]
  0009c	52		 push	 edx
  0009d	57		 push	 edi
  0009e	e8 00 00 00 00	 call	 ?Multiply_X_X_Imp@Internal@Core@Math@Palmtree@@YAXPAII0I0@Z ; Palmtree::Math::Core::Internal::Multiply_X_X_Imp
  000a3	83 c4 14	 add	 esp, 20			; 00000014H

; 64   :                 u_count += v_count;
; 65   :                 if (u_ptr[u_count - 1] == 0)
; 66   :                     --u_count;
; 67   :             }
; 68   :             else

  000a6	8d 56 ff	 lea	 edx, DWORD PTR [esi-1]
  000a9	83 7c b3 fc 00	 cmp	 DWORD PTR [ebx+esi*4-4], 0
  000ae	0f 45 d6	 cmovne	 edx, esi
  000b1	89 55 14	 mov	 DWORD PTR _u_count$2$[ebp], edx
  000b4	eb 09		 jmp	 SHORT $LN6@Pow_X_I_Im
$LN5@Pow_X_I_Im:

; 69   :             {
; 70   :                 // u  w 
; 71   :                 __UNIT_TYPE* t_ptr = u_ptr;

  000b6	8b c3		 mov	 eax, ebx

; 72   :                 u_ptr = w_ptr;

  000b8	8b df		 mov	 ebx, edi

; 73   :                 w_ptr = t_ptr;

  000ba	8b f8		 mov	 edi, eax
  000bc	89 7d 18	 mov	 DWORD PTR _work2_buf$[ebp], edi
$LN6@Pow_X_I_Im:

; 74   :             }
; 75   : 
; 76   :             e_mask >>= 1;

  000bf	8b 45 fc	 mov	 eax, DWORD PTR _e_mask$1$[ebp]
  000c2	d1 e8		 shr	 eax, 1
  000c4	83 7d f8 02	 cmp	 DWORD PTR tv282[ebp], 2
  000c8	89 45 fc	 mov	 DWORD PTR _e_mask$1$[ebp], eax
  000cb	73 83		 jae	 SHORT $LL2@Pow_X_I_Im
$LN3@Pow_X_I_Im:
; File z:\sources\lunor\repos\rougemeilland\palmtree.math.core.uint\palmtree.math.core.uint\pmc_inline_func.h

; 65   :             __movsd((unsigned long *)d, (unsigned long *)s, (unsigned long)count);

  000cd	8b 7d 1c	 mov	 edi, DWORD PTR _r_buf$[ebp]
  000d0	8b f3		 mov	 esi, ebx
  000d2	8b ca		 mov	 ecx, edx
  000d4	f3 a5		 rep movsd
  000d6	5f		 pop	 edi
  000d7	5e		 pop	 esi
  000d8	5b		 pop	 ebx
; File z:\sources\lunor\repos\rougemeilland\palmtree.math.core.uint\palmtree.math.core.uint\pmc_pow.cpp

; 79   :     }

  000d9	8b e5		 mov	 esp, ebp
  000db	5d		 pop	 ebp
  000dc	c3		 ret	 0
?Pow_X_I_Imp@Internal@Core@Math@Palmtree@@YAXPAIII000@Z ENDP ; Palmtree::Math::Core::Internal::Pow_X_I_Imp
_TEXT	ENDS
; Function compile flags: /Ogtp
; File z:\sources\lunor\repos\rougemeilland\palmtree.math.core.uint\palmtree.math.core.uint\pmc_inline_func.h
;	COMDAT __LZCNT_ALT_32
_TEXT	SEGMENT
_x$ = 8							; size = 4
__LZCNT_ALT_32 PROC					; COMDAT

; 421  :         {

  00000	55		 push	 ebp
  00001	8b ec		 mov	 ebp, esp

; 422  :             if (x == 0)

  00003	8b 45 08	 mov	 eax, DWORD PTR _x$[ebp]
  00006	85 c0		 test	 eax, eax
  00008	75 07		 jne	 SHORT $LN2@LZCNT_ALT_

; 423  :                 return (sizeof(x) * 8);

  0000a	b8 20 00 00 00	 mov	 eax, 32			; 00000020H

; 433  :         }

  0000f	5d		 pop	 ebp
  00010	c3		 ret	 0
$LN2@LZCNT_ALT_:

; 424  :             DWORD pos;
; 425  : #ifdef _MSC_VER
; 426  :             _BitScanReverse(&pos, x);

  00011	0f bd c8	 bsr	 ecx, eax

; 427  : #elif defined(__GNUC__)
; 428  :             __asm__("bsrl %1, %0" : "=r"(pos) : "rm"(x));
; 429  : #else
; 430  : #error unknown compiler
; 431  : #endif
; 432  :             return (sizeof(x) * 8 - 1 - pos);

  00014	b8 1f 00 00 00	 mov	 eax, 31			; 0000001fH
  00019	2b c1		 sub	 eax, ecx

; 433  :         }

  0001b	5d		 pop	 ebp
  0001c	c3		 ret	 0
__LZCNT_ALT_32 ENDP
_TEXT	ENDS
; Function compile flags: /Ogtp
; File z:\sources\lunor\repos\rougemeilland\palmtree.math.core.uint\palmtree.math.core.uint\pmc_inline_func.h
;	COMDAT __ZERO_MEMORY_UNIT
_TEXT	SEGMENT
_d$ = 8							; size = 4
_count$ = 12						; size = 4
__ZERO_MEMORY_UNIT PROC					; COMDAT

; 96   :         {

  00000	55		 push	 ebp
  00001	8b ec		 mov	 ebp, esp

; 97   : #ifdef _M_IX86
; 98   :             __stosd((unsigned long*)d, 0, (unsigned long)count);

  00003	8b 4d 0c	 mov	 ecx, DWORD PTR _count$[ebp]
  00006	33 c0		 xor	 eax, eax
  00008	57		 push	 edi
  00009	8b 7d 08	 mov	 edi, DWORD PTR _d$[ebp]
  0000c	f3 ab		 rep stosd
  0000e	5f		 pop	 edi

; 99   : #elif defined(_M_X64)
; 100  :             __stosq(d, 0, count);
; 101  : #else
; 102  : #error unknown platform
; 103  : #endif
; 104  :         }

  0000f	5d		 pop	 ebp
  00010	c3		 ret	 0
__ZERO_MEMORY_UNIT ENDP
_TEXT	ENDS
; Function compile flags: /Ogtp
; File z:\sources\lunor\repos\rougemeilland\palmtree.math.core.uint\palmtree.math.core.uint\pmc_inline_func.h
;	COMDAT __COPY_MEMORY_UNIT
_TEXT	SEGMENT
_d$ = 8							; size = 4
_s$ = 12						; size = 4
_count$ = 16						; size = 4
__COPY_MEMORY_UNIT PROC					; COMDAT

; 63   :         {

  00000	55		 push	 ebp
  00001	8b ec		 mov	 ebp, esp

; 64   : #ifdef _M_IX86
; 65   :             __movsd((unsigned long *)d, (unsigned long *)s, (unsigned long)count);

  00003	8b 4d 10	 mov	 ecx, DWORD PTR _count$[ebp]
  00006	56		 push	 esi
  00007	8b 75 0c	 mov	 esi, DWORD PTR _s$[ebp]
  0000a	57		 push	 edi
  0000b	8b 7d 08	 mov	 edi, DWORD PTR _d$[ebp]
  0000e	f3 a5		 rep movsd
  00010	5f		 pop	 edi
  00011	5e		 pop	 esi

; 66   : #elif defined(_M_X64)
; 67   :             __movsq(d, s, count);
; 68   : #else
; 69   : #error unknown platform
; 70   : #endif
; 71   :         }

  00012	5d		 pop	 ebp
  00013	c3		 ret	 0
__COPY_MEMORY_UNIT ENDP
_TEXT	ENDS
; Function compile flags: /Ogtp
; File z:\sources\lunor\repos\rougemeilland\palmtree.math.core.uint\palmtree.math.core.uint\pmc_pow.cpp
;	COMDAT ?PMC_TimesOfExponentOf10@Internal@Core@Math@Palmtree@@YGPAU__tag_PMC_HANDLE_UINT@1234@II@Z
_TEXT	SEGMENT
_root$2 = -28						; size = 16
__$EHRec$ = -12						; size = 12
_v$ = 8							; size = 4
_e$ = 12						; size = 4
?PMC_TimesOfExponentOf10@Internal@Core@Math@Palmtree@@YGPAU__tag_PMC_HANDLE_UINT@1234@II@Z PROC ; Palmtree::Math::Core::Internal::PMC_TimesOfExponentOf10, COMDAT

; 345  :     {

  00000	55		 push	 ebp
  00001	8b ec		 mov	 ebp, esp
  00003	6a ff		 push	 -1
  00005	68 00 00 00 00	 push	 __ehhandler$?PMC_TimesOfExponentOf10@Internal@Core@Math@Palmtree@@YGPAU__tag_PMC_HANDLE_UINT@1234@II@Z
  0000a	64 a1 00 00 00
	00		 mov	 eax, DWORD PTR fs:0
  00010	50		 push	 eax
  00011	83 ec 10	 sub	 esp, 16			; 00000010H
  00014	56		 push	 esi
  00015	57		 push	 edi
  00016	a1 00 00 00 00	 mov	 eax, DWORD PTR ___security_cookie
  0001b	33 c5		 xor	 eax, ebp
  0001d	50		 push	 eax
  0001e	8d 45 f4	 lea	 eax, DWORD PTR __$EHRec$[ebp]
  00021	64 a3 00 00 00
	00		 mov	 DWORD PTR fs:0, eax

; 320  :         if (v == 0)

  00027	8b 7d 08	 mov	 edi, DWORD PTR _v$[ebp]
  0002a	85 ff		 test	 edi, edi
  0002c	75 18		 jne	 SHORT $LN4@PMC_TimesO

; 346  :         return ((PMC_HANDLE_UINT)PMC_TimesOfExponentOf10_Imp(v, e));

  0002e	b8 00 00 00 00	 mov	 eax, OFFSET ?number_zero@Internal@Core@Math@Palmtree@@3U__tag_NUMBER_HEADER@1234@A ; Palmtree::Math::Core::Internal::number_zero

; 347  :     }

  00033	8b 4d f4	 mov	 ecx, DWORD PTR __$EHRec$[ebp]
  00036	64 89 0d 00 00
	00 00		 mov	 DWORD PTR fs:0, ecx
  0003d	59		 pop	 ecx
  0003e	5f		 pop	 edi
  0003f	5e		 pop	 esi
  00040	8b e5		 mov	 esp, ebp
  00042	5d		 pop	 ebp
  00043	c2 08 00	 ret	 8
$LN4@PMC_TimesO:

; 322  :         if (e == 0)

  00046	83 7d 0c 00	 cmp	 DWORD PTR _e$[ebp], 0
  0004a	75 1c		 jne	 SHORT $LN5@PMC_TimesO

; 323  :             return (From_I_Imp(v));

  0004c	57		 push	 edi
  0004d	e8 00 00 00 00	 call	 ?From_I_Imp@Internal@Core@Math@Palmtree@@YAPAU__tag_NUMBER_HEADER@1234@I@Z ; Palmtree::Math::Core::Internal::From_I_Imp
  00052	83 c4 04	 add	 esp, 4

; 347  :     }

  00055	8b 4d f4	 mov	 ecx, DWORD PTR __$EHRec$[ebp]
  00058	64 89 0d 00 00
	00 00		 mov	 DWORD PTR fs:0, ecx
  0005f	59		 pop	 ecx
  00060	5f		 pop	 edi
  00061	5e		 pop	 esi
  00062	8b e5		 mov	 esp, ebp
  00064	5d		 pop	 ebp
  00065	c2 08 00	 ret	 8
$LN5@PMC_TimesO:

; 324  :         ResourceHolderUINT root;

  00068	8d 4d e4	 lea	 ecx, DWORD PTR _root$2[ebp]
  0006b	e8 00 00 00 00	 call	 ??0ResourceHolderUINT@Internal@Core@Math@Palmtree@@QAE@XZ ; Palmtree::Math::Core::Internal::ResourceHolderUINT::ResourceHolderUINT
  00070	c7 45 fc 00 00
	00 00		 mov	 DWORD PTR __$EHRec$[ebp+8], 0

; 325  :         NUMBER_HEADER* _10 = From_I_Imp(10);

  00077	6a 0a		 push	 10			; 0000000aH
  00079	e8 00 00 00 00	 call	 ?From_I_Imp@Internal@Core@Math@Palmtree@@YAPAU__tag_NUMBER_HEADER@1234@I@Z ; Palmtree::Math::Core::Internal::From_I_Imp
  0007e	83 c4 04	 add	 esp, 4

; 326  :         root.HookNumber(_10);

  00081	8d 4d e4	 lea	 ecx, DWORD PTR _root$2[ebp]
  00084	8b f0		 mov	 esi, eax
  00086	56		 push	 esi
  00087	e8 00 00 00 00	 call	 ?HookNumber@ResourceHolderUINT@Internal@Core@Math@Palmtree@@QAEXPAU__tag_NUMBER_HEADER@2345@@Z ; Palmtree::Math::Core::Internal::ResourceHolderUINT::HookNumber

; 327  : #if _M_IX86
; 328  :         NUMBER_HEADER* exponent_of_10 = PMC_Pow_X_I_Imp(_10, e);

  0008c	ff 75 0c	 push	 DWORD PTR _e$[ebp]
  0008f	56		 push	 esi
  00090	e8 00 00 00 00	 call	 ?PMC_Pow_X_I_Imp@Internal@Core@Math@Palmtree@@YAPAU__tag_NUMBER_HEADER@1234@PAU51234@I@Z ; Palmtree::Math::Core::Internal::PMC_Pow_X_I_Imp
  00095	83 c4 08	 add	 esp, 8
  00098	8b f0		 mov	 esi, eax

; 329  : #elif defined(_M_X64)
; 330  :         NUMBER_HEADER* exponent_of_10 = PMC_Pow_X_L_Imp(_10, e);
; 331  : #else
; 332  : #error unknown platform
; 333  : #endif
; 334  :         if (v == 1)

  0009a	83 ff 01	 cmp	 edi, 1
  0009d	74 15		 je	 SHORT $LN11@PMC_TimesO

; 335  :             return (exponent_of_10);
; 336  :         else
; 337  :         {
; 338  :             root.HookNumber(exponent_of_10);

  0009f	56		 push	 esi
  000a0	8d 4d e4	 lea	 ecx, DWORD PTR _root$2[ebp]
  000a3	e8 00 00 00 00	 call	 ?HookNumber@ResourceHolderUINT@Internal@Core@Math@Palmtree@@QAEXPAU__tag_NUMBER_HEADER@2345@@Z ; Palmtree::Math::Core::Internal::ResourceHolderUINT::HookNumber

; 339  :             NUMBER_HEADER* x_times_of_exponent_of_10 = PMC_Multiply_X_I_Imp(exponent_of_10, v);

  000a8	57		 push	 edi
  000a9	56		 push	 esi
  000aa	e8 00 00 00 00	 call	 ?PMC_Multiply_X_I_Imp@Internal@Core@Math@Palmtree@@YAPAU__tag_NUMBER_HEADER@1234@PAU51234@I@Z ; Palmtree::Math::Core::Internal::PMC_Multiply_X_I_Imp
  000af	83 c4 08	 add	 esp, 8

; 340  :             return (x_times_of_exponent_of_10);

  000b2	8b f0		 mov	 esi, eax
$LN11@PMC_TimesO:

; 347  :     }

  000b4	c7 45 fc ff ff
	ff ff		 mov	 DWORD PTR __$EHRec$[ebp+8], -1
  000bb	8d 4d e4	 lea	 ecx, DWORD PTR _root$2[ebp]
  000be	e8 00 00 00 00	 call	 ??1ResourceHolderUINT@Internal@Core@Math@Palmtree@@UAE@XZ ; Palmtree::Math::Core::Internal::ResourceHolderUINT::~ResourceHolderUINT
  000c3	8b c6		 mov	 eax, esi
  000c5	8b 4d f4	 mov	 ecx, DWORD PTR __$EHRec$[ebp]
  000c8	64 89 0d 00 00
	00 00		 mov	 DWORD PTR fs:0, ecx
  000cf	59		 pop	 ecx
  000d0	5f		 pop	 edi
  000d1	5e		 pop	 esi
  000d2	8b e5		 mov	 esp, ebp
  000d4	5d		 pop	 ebp
  000d5	c2 08 00	 ret	 8
_TEXT	ENDS
;	COMDAT text$x
text$x	SEGMENT
__unwindfunclet$?PMC_TimesOfExponentOf10@Internal@Core@Math@Palmtree@@YGPAU__tag_PMC_HANDLE_UINT@1234@II@Z$0:
  00000	8d 4d e4	 lea	 ecx, DWORD PTR _root$2[ebp]
  00003	e9 00 00 00 00	 jmp	 ??1ResourceHolderUINT@Internal@Core@Math@Palmtree@@UAE@XZ ; Palmtree::Math::Core::Internal::ResourceHolderUINT::~ResourceHolderUINT
__ehhandler$?PMC_TimesOfExponentOf10@Internal@Core@Math@Palmtree@@YGPAU__tag_PMC_HANDLE_UINT@1234@II@Z:
  00008	8b 54 24 08	 mov	 edx, DWORD PTR [esp+8]
  0000c	8d 42 0c	 lea	 eax, DWORD PTR [edx+12]
  0000f	8b 4a e4	 mov	 ecx, DWORD PTR [edx-28]
  00012	33 c8		 xor	 ecx, eax
  00014	e8 00 00 00 00	 call	 @__security_check_cookie@4
  00019	b8 00 00 00 00	 mov	 eax, OFFSET __ehfuncinfo$?PMC_TimesOfExponentOf10@Internal@Core@Math@Palmtree@@YGPAU__tag_PMC_HANDLE_UINT@1234@II@Z
  0001e	e9 00 00 00 00	 jmp	 ___CxxFrameHandler3
text$x	ENDS
?PMC_TimesOfExponentOf10@Internal@Core@Math@Palmtree@@YGPAU__tag_PMC_HANDLE_UINT@1234@II@Z ENDP ; Palmtree::Math::Core::Internal::PMC_TimesOfExponentOf10
; Function compile flags: /Ogtp
; File z:\sources\lunor\repos\rougemeilland\palmtree.math.core.uint\palmtree.math.core.uint\pmc_pow.cpp
;	COMDAT ?PMC_Pow_X_L@Internal@Core@Math@Palmtree@@YGPAU__tag_PMC_HANDLE_UINT@1234@PAU51234@_K@Z
_TEXT	SEGMENT
$T1 = -24						; size = 24
_v$ = 8							; size = 4
_e$ = 12						; size = 8
?PMC_Pow_X_L@Internal@Core@Math@Palmtree@@YGPAU__tag_PMC_HANDLE_UINT@1234@PAU51234@_K@Z PROC ; Palmtree::Math::Core::Internal::PMC_Pow_X_L, COMDAT

; 295  :     {

  00000	55		 push	 ebp
  00001	8b ec		 mov	 ebp, esp
  00003	83 ec 18	 sub	 esp, 24			; 00000018H

; 296  : #ifdef _M_X64
; 297  :         if (__UNIT_TYPE_BIT_COUNT < sizeof(e) * 8)
; 298  :         {
; 299  :             // _UINT32_T  1 
; 300  :             throw InternalErrorException(L"", L"pmc_pow.cpp;PMC_Pow_X_I;1");
; 301  :         }
; 302  :         if (v == nullptr)
; 303  :             throw ArgumentNullException(L"nullptr", L"v");
; 304  :         CheckNumber((NUMBER_HEADER*)v);
; 305  :         ResourceHolderUINT root;
; 306  :         NUMBER_HEADER* r = PMC_Pow_X_L_Imp((NUMBER_HEADER*)v, e);
; 307  :         root.HookNumber(r);
; 308  : #ifdef _DEBUG
; 309  :         CheckNumber(r);
; 310  : #endif
; 311  :         root.UnlinkNumber(r);
; 312  :         return ((PMC_HANDLE_UINT)r);
; 313  : #else
; 314  :         throw NotSupportedException(L"");

  00006	8d 4d e8	 lea	 ecx, DWORD PTR $T1[ebp]
  00009	68 00 00 00 00	 push	 OFFSET ??_C@_1EI@GPLDNHEN@?$PP?$PO?$AA?$CI?$AAn?$PP?W?$PP?i?$PP?C?$PP?H?$PP?U?$PP?$KJ?$PP?$PM?$PP?$OA?$AAg?$AAo?$PP?$LF?$PP?$NN@
  0000e	e8 00 00 00 00	 call	 ??0NotSupportedException@Internal@Core@Math@Palmtree@@QAE@PB_W@Z ; Palmtree::Math::Core::Internal::NotSupportedException::NotSupportedException
  00013	68 00 00 00 00	 push	 OFFSET __TI2?AVNotSupportedException@Internal@Core@Math@Palmtree@@
  00018	8d 45 e8	 lea	 eax, DWORD PTR $T1[ebp]
  0001b	50		 push	 eax
  0001c	e8 00 00 00 00	 call	 __CxxThrowException@8
$LN3@PMC_Pow_X_:
  00021	cc		 int	 3
?PMC_Pow_X_L@Internal@Core@Math@Palmtree@@YGPAU__tag_PMC_HANDLE_UINT@1234@PAU51234@_K@Z ENDP ; Palmtree::Math::Core::Internal::PMC_Pow_X_L
_TEXT	ENDS
; Function compile flags: /Ogtp
; File z:\sources\lunor\repos\rougemeilland\palmtree.math.core.uint\palmtree.math.core.uint\pmc_pow.cpp
;	COMDAT ?PMC_Pow_X_I@Internal@Core@Math@Palmtree@@YGPAU__tag_PMC_HANDLE_UINT@1234@PAU51234@I@Z
_TEXT	SEGMENT
$T2 = -52						; size = 24
_root$ = -28						; size = 16
__$EHRec$ = -12						; size = 12
_v$ = 8							; size = 4
_e$ = 12						; size = 4
?PMC_Pow_X_I@Internal@Core@Math@Palmtree@@YGPAU__tag_PMC_HANDLE_UINT@1234@PAU51234@I@Z PROC ; Palmtree::Math::Core::Internal::PMC_Pow_X_I, COMDAT

; 275  :     {

  00000	55		 push	 ebp
  00001	8b ec		 mov	 ebp, esp
  00003	6a ff		 push	 -1
  00005	68 00 00 00 00	 push	 __ehhandler$?PMC_Pow_X_I@Internal@Core@Math@Palmtree@@YGPAU__tag_PMC_HANDLE_UINT@1234@PAU51234@I@Z
  0000a	64 a1 00 00 00
	00		 mov	 eax, DWORD PTR fs:0
  00010	50		 push	 eax
  00011	83 ec 28	 sub	 esp, 40			; 00000028H
  00014	56		 push	 esi
  00015	a1 00 00 00 00	 mov	 eax, DWORD PTR ___security_cookie
  0001a	33 c5		 xor	 eax, ebp
  0001c	50		 push	 eax
  0001d	8d 45 f4	 lea	 eax, DWORD PTR __$EHRec$[ebp]
  00020	64 a3 00 00 00
	00		 mov	 DWORD PTR fs:0, eax

; 276  :         if (__UNIT_TYPE_BIT_COUNT < sizeof(e) * 8)
; 277  :         {
; 278  :             // _UINT32_T  1 
; 279  :             throw InternalErrorException(L"", L"pmc_pow.cpp;PMC_Pow_X_I;1");
; 280  :         }
; 281  :         if (v == nullptr)

  00026	8b 75 08	 mov	 esi, DWORD PTR _v$[ebp]
  00029	85 f6		 test	 esi, esi
  0002b	74 5b		 je	 SHORT $LN9@PMC_Pow_X_

; 283  :         CheckNumber((NUMBER_HEADER*)v);

  0002d	56		 push	 esi
  0002e	e8 00 00 00 00	 call	 ?CheckNumber@Internal@Core@Math@Palmtree@@YAXPAU__tag_NUMBER_HEADER@1234@@Z ; Palmtree::Math::Core::Internal::CheckNumber
  00033	83 c4 04	 add	 esp, 4

; 284  :         ResourceHolderUINT root;

  00036	8d 4d e4	 lea	 ecx, DWORD PTR _root$[ebp]
  00039	e8 00 00 00 00	 call	 ??0ResourceHolderUINT@Internal@Core@Math@Palmtree@@QAE@XZ ; Palmtree::Math::Core::Internal::ResourceHolderUINT::ResourceHolderUINT
  0003e	c7 45 fc 00 00
	00 00		 mov	 DWORD PTR __$EHRec$[ebp+8], 0

; 285  :         NUMBER_HEADER* r = PMC_Pow_X_I_Imp((NUMBER_HEADER*)v, e);

  00045	ff 75 0c	 push	 DWORD PTR _e$[ebp]
  00048	56		 push	 esi
  00049	e8 00 00 00 00	 call	 ?PMC_Pow_X_I_Imp@Internal@Core@Math@Palmtree@@YAPAU__tag_NUMBER_HEADER@1234@PAU51234@I@Z ; Palmtree::Math::Core::Internal::PMC_Pow_X_I_Imp
  0004e	83 c4 08	 add	 esp, 8

; 286  :         root.HookNumber(r);

  00051	8d 4d e4	 lea	 ecx, DWORD PTR _root$[ebp]
  00054	8b f0		 mov	 esi, eax
  00056	56		 push	 esi
  00057	e8 00 00 00 00	 call	 ?HookNumber@ResourceHolderUINT@Internal@Core@Math@Palmtree@@QAEXPAU__tag_NUMBER_HEADER@2345@@Z ; Palmtree::Math::Core::Internal::ResourceHolderUINT::HookNumber

; 287  : #ifdef _DEBUG
; 288  :         CheckNumber(r);
; 289  : #endif
; 290  :         root.UnlinkNumber(r);

  0005c	56		 push	 esi
  0005d	8d 4d e4	 lea	 ecx, DWORD PTR _root$[ebp]
  00060	e8 00 00 00 00	 call	 ?UnlinkNumber@ResourceHolderUINT@Internal@Core@Math@Palmtree@@QAEXPAU__tag_NUMBER_HEADER@2345@@Z ; Palmtree::Math::Core::Internal::ResourceHolderUINT::UnlinkNumber

; 291  :         return ((PMC_HANDLE_UINT)r);

  00065	c7 45 fc ff ff
	ff ff		 mov	 DWORD PTR __$EHRec$[ebp+8], -1
  0006c	8d 4d e4	 lea	 ecx, DWORD PTR _root$[ebp]
  0006f	e8 00 00 00 00	 call	 ??1ResourceHolderUINT@Internal@Core@Math@Palmtree@@UAE@XZ ; Palmtree::Math::Core::Internal::ResourceHolderUINT::~ResourceHolderUINT
  00074	8b c6		 mov	 eax, esi

; 292  :     }

  00076	8b 4d f4	 mov	 ecx, DWORD PTR __$EHRec$[ebp]
  00079	64 89 0d 00 00
	00 00		 mov	 DWORD PTR fs:0, ecx
  00080	59		 pop	 ecx
  00081	5e		 pop	 esi
  00082	8b e5		 mov	 esp, ebp
  00084	5d		 pop	 ebp
  00085	c2 08 00	 ret	 8
$LN9@PMC_Pow_X_:

; 282  :             throw ArgumentNullException(L"nullptr", L"v");

  00088	68 00 00 00 00	 push	 OFFSET ??_C@_13JAOPNPKD@?$AAv@
  0008d	68 00 00 00 00	 push	 OFFSET ??_C@_1CK@ECFIEPAC@?$AA?$BF?$AAp?$AAk?$AAn?$AAu?$AAl?$AAl?$AAp?$AAt?$AAr?$AAL?$AA?$AO?$AAH?$PP?$IJ?$PP?$IM@
  00092	8d 4d cc	 lea	 ecx, DWORD PTR $T2[ebp]
  00095	e8 00 00 00 00	 call	 ??0ArgumentNullException@Internal@Core@Math@Palmtree@@QAE@PB_W0@Z ; Palmtree::Math::Core::Internal::ArgumentNullException::ArgumentNullException
  0009a	68 00 00 00 00	 push	 OFFSET __TI2?AVArgumentNullException@Internal@Core@Math@Palmtree@@
  0009f	8d 45 cc	 lea	 eax, DWORD PTR $T2[ebp]
  000a2	50		 push	 eax
  000a3	e8 00 00 00 00	 call	 __CxxThrowException@8
$LN7@PMC_Pow_X_:
  000a8	cc		 int	 3
_TEXT	ENDS
;	COMDAT text$x
text$x	SEGMENT
__unwindfunclet$?PMC_Pow_X_I@Internal@Core@Math@Palmtree@@YGPAU__tag_PMC_HANDLE_UINT@1234@PAU51234@I@Z$0:
  00000	8d 4d e4	 lea	 ecx, DWORD PTR _root$[ebp]
  00003	e9 00 00 00 00	 jmp	 ??1ResourceHolderUINT@Internal@Core@Math@Palmtree@@UAE@XZ ; Palmtree::Math::Core::Internal::ResourceHolderUINT::~ResourceHolderUINT
__ehhandler$?PMC_Pow_X_I@Internal@Core@Math@Palmtree@@YGPAU__tag_PMC_HANDLE_UINT@1234@PAU51234@I@Z:
  00008	8b 54 24 08	 mov	 edx, DWORD PTR [esp+8]
  0000c	8d 42 0c	 lea	 eax, DWORD PTR [edx+12]
  0000f	8b 4a d0	 mov	 ecx, DWORD PTR [edx-48]
  00012	33 c8		 xor	 ecx, eax
  00014	e8 00 00 00 00	 call	 @__security_check_cookie@4
  00019	b8 00 00 00 00	 mov	 eax, OFFSET __ehfuncinfo$?PMC_Pow_X_I@Internal@Core@Math@Palmtree@@YGPAU__tag_PMC_HANDLE_UINT@1234@PAU51234@I@Z
  0001e	e9 00 00 00 00	 jmp	 ___CxxFrameHandler3
text$x	ENDS
?PMC_Pow_X_I@Internal@Core@Math@Palmtree@@YGPAU__tag_PMC_HANDLE_UINT@1234@PAU51234@I@Z ENDP ; Palmtree::Math::Core::Internal::PMC_Pow_X_I
; Function compile flags: /Ogtp
; File z:\sources\lunor\repos\rougemeilland\palmtree.math.core.uint\palmtree.math.core.uint\pmc_pow.cpp
;	COMDAT ?Initialize_Pow@Internal@Core@Math@Palmtree@@YAHPAU_tag_PROCESSOR_FEATURES@1234@@Z
_TEXT	SEGMENT
_feature$ = 8						; size = 4
?Initialize_Pow@Internal@Core@Math@Palmtree@@YAHPAU_tag_PROCESSOR_FEATURES@1234@@Z PROC ; Palmtree::Math::Core::Internal::Initialize_Pow, COMDAT

; 351  :         return (PMC_STATUS_OK);

  00000	33 c0		 xor	 eax, eax

; 352  :     }

  00002	c3		 ret	 0
?Initialize_Pow@Internal@Core@Math@Palmtree@@YAHPAU_tag_PROCESSOR_FEATURES@1234@@Z ENDP ; Palmtree::Math::Core::Internal::Initialize_Pow
_TEXT	ENDS
; Function compile flags: /Ogtp
; File z:\sources\lunor\repos\rougemeilland\palmtree.math.core.uint\palmtree.math.core.uint\pmc_pow.cpp
;	COMDAT ?PMC_TimesOfExponentOf10_Imp@Internal@Core@Math@Palmtree@@YAPAU__tag_NUMBER_HEADER@1234@II@Z
_TEXT	SEGMENT
_root$ = -28						; size = 16
__$EHRec$ = -12						; size = 12
_v$ = 8							; size = 4
_e$ = 12						; size = 4
?PMC_TimesOfExponentOf10_Imp@Internal@Core@Math@Palmtree@@YAPAU__tag_NUMBER_HEADER@1234@II@Z PROC ; Palmtree::Math::Core::Internal::PMC_TimesOfExponentOf10_Imp, COMDAT

; 319  :     {

  00000	55		 push	 ebp
  00001	8b ec		 mov	 ebp, esp
  00003	6a ff		 push	 -1
  00005	68 00 00 00 00	 push	 __ehhandler$?PMC_TimesOfExponentOf10_Imp@Internal@Core@Math@Palmtree@@YAPAU__tag_NUMBER_HEADER@1234@II@Z
  0000a	64 a1 00 00 00
	00		 mov	 eax, DWORD PTR fs:0
  00010	50		 push	 eax
  00011	83 ec 10	 sub	 esp, 16			; 00000010H
  00014	56		 push	 esi
  00015	57		 push	 edi
  00016	a1 00 00 00 00	 mov	 eax, DWORD PTR ___security_cookie
  0001b	33 c5		 xor	 eax, ebp
  0001d	50		 push	 eax
  0001e	8d 45 f4	 lea	 eax, DWORD PTR __$EHRec$[ebp]
  00021	64 a3 00 00 00
	00		 mov	 DWORD PTR fs:0, eax

; 320  :         if (v == 0)

  00027	8b 7d 08	 mov	 edi, DWORD PTR _v$[ebp]
  0002a	85 ff		 test	 edi, edi
  0002c	75 16		 jne	 SHORT $LN2@PMC_TimesO

; 321  :             return (&number_zero);

  0002e	b8 00 00 00 00	 mov	 eax, OFFSET ?number_zero@Internal@Core@Math@Palmtree@@3U__tag_NUMBER_HEADER@1234@A ; Palmtree::Math::Core::Internal::number_zero

; 341  :         }
; 342  :     }

  00033	8b 4d f4	 mov	 ecx, DWORD PTR __$EHRec$[ebp]
  00036	64 89 0d 00 00
	00 00		 mov	 DWORD PTR fs:0, ecx
  0003d	59		 pop	 ecx
  0003e	5f		 pop	 edi
  0003f	5e		 pop	 esi
  00040	8b e5		 mov	 esp, ebp
  00042	5d		 pop	 ebp
  00043	c3		 ret	 0
$LN2@PMC_TimesO:

; 322  :         if (e == 0)

  00044	83 7d 0c 00	 cmp	 DWORD PTR _e$[ebp], 0
  00048	75 1a		 jne	 SHORT $LN3@PMC_TimesO

; 323  :             return (From_I_Imp(v));

  0004a	57		 push	 edi
  0004b	e8 00 00 00 00	 call	 ?From_I_Imp@Internal@Core@Math@Palmtree@@YAPAU__tag_NUMBER_HEADER@1234@I@Z ; Palmtree::Math::Core::Internal::From_I_Imp
  00050	83 c4 04	 add	 esp, 4

; 341  :         }
; 342  :     }

  00053	8b 4d f4	 mov	 ecx, DWORD PTR __$EHRec$[ebp]
  00056	64 89 0d 00 00
	00 00		 mov	 DWORD PTR fs:0, ecx
  0005d	59		 pop	 ecx
  0005e	5f		 pop	 edi
  0005f	5e		 pop	 esi
  00060	8b e5		 mov	 esp, ebp
  00062	5d		 pop	 ebp
  00063	c3		 ret	 0
$LN3@PMC_TimesO:

; 324  :         ResourceHolderUINT root;

  00064	8d 4d e4	 lea	 ecx, DWORD PTR _root$[ebp]
  00067	e8 00 00 00 00	 call	 ??0ResourceHolderUINT@Internal@Core@Math@Palmtree@@QAE@XZ ; Palmtree::Math::Core::Internal::ResourceHolderUINT::ResourceHolderUINT
  0006c	c7 45 fc 00 00
	00 00		 mov	 DWORD PTR __$EHRec$[ebp+8], 0

; 325  :         NUMBER_HEADER* _10 = From_I_Imp(10);

  00073	6a 0a		 push	 10			; 0000000aH
  00075	e8 00 00 00 00	 call	 ?From_I_Imp@Internal@Core@Math@Palmtree@@YAPAU__tag_NUMBER_HEADER@1234@I@Z ; Palmtree::Math::Core::Internal::From_I_Imp
  0007a	83 c4 04	 add	 esp, 4

; 326  :         root.HookNumber(_10);

  0007d	8d 4d e4	 lea	 ecx, DWORD PTR _root$[ebp]
  00080	8b f0		 mov	 esi, eax
  00082	56		 push	 esi
  00083	e8 00 00 00 00	 call	 ?HookNumber@ResourceHolderUINT@Internal@Core@Math@Palmtree@@QAEXPAU__tag_NUMBER_HEADER@2345@@Z ; Palmtree::Math::Core::Internal::ResourceHolderUINT::HookNumber

; 327  : #if _M_IX86
; 328  :         NUMBER_HEADER* exponent_of_10 = PMC_Pow_X_I_Imp(_10, e);

  00088	ff 75 0c	 push	 DWORD PTR _e$[ebp]
  0008b	56		 push	 esi
  0008c	e8 00 00 00 00	 call	 ?PMC_Pow_X_I_Imp@Internal@Core@Math@Palmtree@@YAPAU__tag_NUMBER_HEADER@1234@PAU51234@I@Z ; Palmtree::Math::Core::Internal::PMC_Pow_X_I_Imp
  00091	83 c4 08	 add	 esp, 8
  00094	8b f0		 mov	 esi, eax

; 329  : #elif defined(_M_X64)
; 330  :         NUMBER_HEADER* exponent_of_10 = PMC_Pow_X_L_Imp(_10, e);
; 331  : #else
; 332  : #error unknown platform
; 333  : #endif
; 334  :         if (v == 1)

  00096	83 ff 01	 cmp	 edi, 1
  00099	74 15		 je	 SHORT $LN8@PMC_TimesO

; 335  :             return (exponent_of_10);
; 336  :         else
; 337  :         {
; 338  :             root.HookNumber(exponent_of_10);

  0009b	56		 push	 esi
  0009c	8d 4d e4	 lea	 ecx, DWORD PTR _root$[ebp]
  0009f	e8 00 00 00 00	 call	 ?HookNumber@ResourceHolderUINT@Internal@Core@Math@Palmtree@@QAEXPAU__tag_NUMBER_HEADER@2345@@Z ; Palmtree::Math::Core::Internal::ResourceHolderUINT::HookNumber

; 339  :             NUMBER_HEADER* x_times_of_exponent_of_10 = PMC_Multiply_X_I_Imp(exponent_of_10, v);

  000a4	57		 push	 edi
  000a5	56		 push	 esi
  000a6	e8 00 00 00 00	 call	 ?PMC_Multiply_X_I_Imp@Internal@Core@Math@Palmtree@@YAPAU__tag_NUMBER_HEADER@1234@PAU51234@I@Z ; Palmtree::Math::Core::Internal::PMC_Multiply_X_I_Imp
  000ab	83 c4 08	 add	 esp, 8

; 340  :             return (x_times_of_exponent_of_10);

  000ae	8b f0		 mov	 esi, eax
$LN8@PMC_TimesO:
  000b0	c7 45 fc ff ff
	ff ff		 mov	 DWORD PTR __$EHRec$[ebp+8], -1
  000b7	8d 4d e4	 lea	 ecx, DWORD PTR _root$[ebp]
  000ba	e8 00 00 00 00	 call	 ??1ResourceHolderUINT@Internal@Core@Math@Palmtree@@UAE@XZ ; Palmtree::Math::Core::Internal::ResourceHolderUINT::~ResourceHolderUINT
  000bf	8b c6		 mov	 eax, esi

; 341  :         }
; 342  :     }

  000c1	8b 4d f4	 mov	 ecx, DWORD PTR __$EHRec$[ebp]
  000c4	64 89 0d 00 00
	00 00		 mov	 DWORD PTR fs:0, ecx
  000cb	59		 pop	 ecx
  000cc	5f		 pop	 edi
  000cd	5e		 pop	 esi
  000ce	8b e5		 mov	 esp, ebp
  000d0	5d		 pop	 ebp
  000d1	c3		 ret	 0
_TEXT	ENDS
;	COMDAT text$x
text$x	SEGMENT
__unwindfunclet$?PMC_TimesOfExponentOf10_Imp@Internal@Core@Math@Palmtree@@YAPAU__tag_NUMBER_HEADER@1234@II@Z$0:
  00000	8d 4d e4	 lea	 ecx, DWORD PTR _root$[ebp]
  00003	e9 00 00 00 00	 jmp	 ??1ResourceHolderUINT@Internal@Core@Math@Palmtree@@UAE@XZ ; Palmtree::Math::Core::Internal::ResourceHolderUINT::~ResourceHolderUINT
__ehhandler$?PMC_TimesOfExponentOf10_Imp@Internal@Core@Math@Palmtree@@YAPAU__tag_NUMBER_HEADER@1234@II@Z:
  00008	8b 54 24 08	 mov	 edx, DWORD PTR [esp+8]
  0000c	8d 42 0c	 lea	 eax, DWORD PTR [edx+12]
  0000f	8b 4a e4	 mov	 ecx, DWORD PTR [edx-28]
  00012	33 c8		 xor	 ecx, eax
  00014	e8 00 00 00 00	 call	 @__security_check_cookie@4
  00019	b8 00 00 00 00	 mov	 eax, OFFSET __ehfuncinfo$?PMC_TimesOfExponentOf10_Imp@Internal@Core@Math@Palmtree@@YAPAU__tag_NUMBER_HEADER@1234@II@Z
  0001e	e9 00 00 00 00	 jmp	 ___CxxFrameHandler3
text$x	ENDS
?PMC_TimesOfExponentOf10_Imp@Internal@Core@Math@Palmtree@@YAPAU__tag_NUMBER_HEADER@1234@II@Z ENDP ; Palmtree::Math::Core::Internal::PMC_TimesOfExponentOf10_Imp
; Function compile flags: /Ogtp
; File z:\sources\lunor\repos\rougemeilland\palmtree.math.core.uint\palmtree.math.core.uint\pmc_pow.cpp
; File z:\sources\lunor\repos\rougemeilland\palmtree.math.core.uint\palmtree.math.core.uint\pmc_inline_func.h
; File z:\sources\lunor\repos\rougemeilland\palmtree.math.core.uint\palmtree.math.core.uint\pmc_pow.cpp
; File z:\sources\lunor\repos\rougemeilland\palmtree.math.core.uint\palmtree.math.core.uint\pmc_inline_func.h
; File z:\sources\lunor\repos\rougemeilland\palmtree.math.core.uint\palmtree.math.core.uint\pmc_pow.cpp
; File z:\sources\lunor\repos\rougemeilland\palmtree.math.core.uint\palmtree.math.core.uint\pmc_inline_func.h
; File z:\sources\lunor\repos\rougemeilland\palmtree.math.core.uint\palmtree.math.core.uint\pmc_pow.cpp
; File z:\sources\lunor\repos\rougemeilland\palmtree.math.core.uint\palmtree.math.core.uint\pmc_inline_func.h
; File z:\sources\lunor\repos\rougemeilland\palmtree.math.core.uint\palmtree.math.core.uint\pmc_pow.cpp
; File z:\sources\lunor\repos\rougemeilland\palmtree.math.core.uint\palmtree.math.core.uint\pmc_inline_func.h
; File z:\sources\lunor\repos\rougemeilland\palmtree.math.core.uint\palmtree.math.core.uint\pmc_pow.cpp
; File z:\sources\lunor\repos\rougemeilland\palmtree.math.core.uint\palmtree.math.core.uint\pmc_inline_func.h
; File z:\sources\lunor\repos\rougemeilland\palmtree.math.core.uint\palmtree.math.core.uint\pmc_pow.cpp
; File z:\sources\lunor\repos\rougemeilland\palmtree.math.core.uint\palmtree.math.core.uint\pmc_inline_func.h
; File z:\sources\lunor\repos\rougemeilland\palmtree.math.core.uint\palmtree.math.core.uint\pmc_pow.cpp
; File z:\sources\lunor\repos\rougemeilland\palmtree.math.core.uint\palmtree.math.core.uint\pmc_inline_func.h
; File z:\sources\lunor\repos\rougemeilland\palmtree.math.core.uint\palmtree.math.core.uint\pmc_pow.cpp
; File z:\sources\lunor\repos\rougemeilland\palmtree.math.core.uint\palmtree.math.core.uint\pmc_inline_func.h
; File z:\sources\lunor\repos\rougemeilland\palmtree.math.core.uint\palmtree.math.core.uint\pmc_pow.cpp
; File z:\sources\lunor\repos\rougemeilland\palmtree.math.core.uint\palmtree.math.core.uint\pmc_inline_func.h
; File z:\sources\lunor\repos\rougemeilland\palmtree.math.core.uint\palmtree.math.core.uint\pmc_pow.cpp
; File z:\sources\lunor\repos\rougemeilland\palmtree.math.core.uint\palmtree.math.core.uint\pmc_inline_func.h
; File z:\sources\lunor\repos\rougemeilland\palmtree.math.core.uint\palmtree.math.core.uint\pmc_pow.cpp
; File z:\sources\lunor\repos\rougemeilland\palmtree.math.core.uint\palmtree.math.core.uint\pmc_inline_func.h
; File z:\sources\lunor\repos\rougemeilland\palmtree.math.core.uint\palmtree.math.core.uint\pmc_pow.cpp
;	COMDAT ?PMC_Pow_X_I_Imp@Internal@Core@Math@Palmtree@@YAPAU__tag_NUMBER_HEADER@1234@PAU51234@I@Z
_TEXT	SEGMENT
$T2 = -96						; size = 24
$T3 = -72						; size = 24
_root$4 = -64						; size = 16
_r$1$ = -48						; size = 4
_r_buf$1$ = -44						; size = 4
tv383 = -40						; size = 4
_v_buf$1$ = -36						; size = 4
_work2_buf$1$ = -32					; size = 4
_work1_buf$1$ = -28					; size = 4
_e_mask$1$ = -24					; size = 4
_v_buf_count$1$ = -20					; size = 4
_u_ptr$1$ = -16						; size = 4
__$EHRec$ = -12						; size = 12
_w_ptr$1$ = 8						; size = 4
_v$ = 8							; size = 4
_e$ = 12						; size = 4
?PMC_Pow_X_I_Imp@Internal@Core@Math@Palmtree@@YAPAU__tag_NUMBER_HEADER@1234@PAU51234@I@Z PROC ; Palmtree::Math::Core::Internal::PMC_Pow_X_I_Imp, COMDAT

; 82   :     {

  00000	55		 push	 ebp
  00001	8b ec		 mov	 ebp, esp
  00003	6a ff		 push	 -1
  00005	68 00 00 00 00	 push	 __ehhandler$?PMC_Pow_X_I_Imp@Internal@Core@Math@Palmtree@@YAPAU__tag_NUMBER_HEADER@1234@PAU51234@I@Z
  0000a	64 a1 00 00 00
	00		 mov	 eax, DWORD PTR fs:0
  00010	50		 push	 eax
  00011	83 ec 54	 sub	 esp, 84			; 00000054H
  00014	53		 push	 ebx
  00015	56		 push	 esi
  00016	57		 push	 edi
  00017	a1 00 00 00 00	 mov	 eax, DWORD PTR ___security_cookie
  0001c	33 c5		 xor	 eax, ebp
  0001e	50		 push	 eax
  0001f	8d 45 f4	 lea	 eax, DWORD PTR __$EHRec$[ebp]
  00022	64 a3 00 00 00
	00		 mov	 DWORD PTR fs:0, eax

; 83   :         if (v->IS_ZERO)

  00028	8b 75 08	 mov	 esi, DWORD PTR _v$[ebp]
  0002b	8b 46 04	 mov	 eax, DWORD PTR [esi+4]
  0002e	a8 01		 test	 al, 1
  00030	74 21		 je	 SHORT $LN2@PMC_Pow_X_

; 84   :         {
; 85   :             // v  0 
; 86   : 
; 87   :             if (e == 0)

  00032	83 7d 0c 00	 cmp	 DWORD PTR _e$[ebp], 0
  00036	0f 84 d4 01 00
	00		 je	 $LN42@PMC_Pow_X_

; 93   :             }
; 94   :             else
; 95   :             {
; 96   :                 // e  0 
; 97   : 
; 98   :                 return (&number_zero);

  0003c	b8 00 00 00 00	 mov	 eax, OFFSET ?number_zero@Internal@Core@Math@Palmtree@@3U__tag_NUMBER_HEADER@1234@A ; Palmtree::Math::Core::Internal::number_zero

; 150  :             }
; 151  :         }
; 152  :     }

  00041	8b 4d f4	 mov	 ecx, DWORD PTR __$EHRec$[ebp]
  00044	64 89 0d 00 00
	00 00		 mov	 DWORD PTR fs:0, ecx
  0004b	59		 pop	 ecx
  0004c	5f		 pop	 edi
  0004d	5e		 pop	 esi
  0004e	5b		 pop	 ebx
  0004f	8b e5		 mov	 esp, ebp
  00051	5d		 pop	 ebp
  00052	c3		 ret	 0
$LN2@PMC_Pow_X_:

; 99   :             }
; 100  :         }
; 101  :         else if (v->IS_ONE)

  00053	a8 02		 test	 al, 2
  00055	74 17		 je	 SHORT $LN6@PMC_Pow_X_
$LN40@PMC_Pow_X_:

; 150  :             }
; 151  :         }
; 152  :     }

  00057	b8 00 00 00 00	 mov	 eax, OFFSET ?number_one@Internal@Core@Math@Palmtree@@3U__tag_NUMBER_HEADER@1234@A ; Palmtree::Math::Core::Internal::number_one
  0005c	8b 4d f4	 mov	 ecx, DWORD PTR __$EHRec$[ebp]
  0005f	64 89 0d 00 00
	00 00		 mov	 DWORD PTR fs:0, ecx
  00066	59		 pop	 ecx
  00067	5f		 pop	 edi
  00068	5e		 pop	 esi
  00069	5b		 pop	 ebx
  0006a	8b e5		 mov	 esp, ebp
  0006c	5d		 pop	 ebp
  0006d	c3		 ret	 0
$LN6@PMC_Pow_X_:

; 102  :         {
; 103  :             // v  1 
; 104  : 
; 105  :             // e  1 
; 106  :             return (&number_one);
; 107  :         }
; 108  :         else
; 109  :         {
; 110  :             // v  2 
; 111  : 
; 112  :             if (e == 0)

  0006e	8b 5d 0c	 mov	 ebx, DWORD PTR _e$[ebp]
  00071	85 db		 test	 ebx, ebx
  00073	74 e2		 je	 SHORT $LN40@PMC_Pow_X_

; 113  :             {
; 114  :                 // e  0 
; 115  : 
; 116  :                 //  1 
; 117  :                 return (&number_one);
; 118  :             }
; 119  :             else if (e == 1)

  00075	83 fb 01	 cmp	 ebx, 1
  00078	75 1b		 jne	 SHORT $LN10@PMC_Pow_X_

; 120  :             {
; 121  :                 // e  1 
; 122  : 
; 123  :                 //  v 
; 124  :                 return (DuplicateNumber(v));

  0007a	56		 push	 esi
  0007b	e8 00 00 00 00	 call	 ?DuplicateNumber@Internal@Core@Math@Palmtree@@YAPAU__tag_NUMBER_HEADER@1234@PAU51234@@Z ; Palmtree::Math::Core::Internal::DuplicateNumber
  00080	83 c4 04	 add	 esp, 4

; 150  :             }
; 151  :         }
; 152  :     }

  00083	8b 4d f4	 mov	 ecx, DWORD PTR __$EHRec$[ebp]
  00086	64 89 0d 00 00
	00 00		 mov	 DWORD PTR fs:0, ecx
  0008d	59		 pop	 ecx
  0008e	5f		 pop	 edi
  0008f	5e		 pop	 esi
  00090	5b		 pop	 ebx
  00091	8b e5		 mov	 esp, ebp
  00093	5d		 pop	 ebp
  00094	c3		 ret	 0
$LN10@PMC_Pow_X_:

; 125  :             }
; 126  :             else
; 127  :             {
; 128  :                 // v  e  2 
; 129  : 
; 130  :                 // v  e 
; 131  :                 ResourceHolderUINT root;

  00095	8d 4d c0	 lea	 ecx, DWORD PTR _root$4[ebp]
  00098	e8 00 00 00 00	 call	 ??0ResourceHolderUINT@Internal@Core@Math@Palmtree@@QAE@XZ ; Palmtree::Math::Core::Internal::ResourceHolderUINT::ResourceHolderUINT
  0009d	c7 45 fc 00 00
	00 00		 mov	 DWORD PTR __$EHRec$[ebp+8], 0

; 132  :                 __UNIT_TYPE v_bit_count = v->UNIT_BIT_COUNT;
; 133  : 
; 134  :                 // 
; 135  :                 if (v_bit_count > ((__UNIT_TYPE)-1 - __UNIT_TYPE_BIT_COUNT) / e)

  000a4	33 d2		 xor	 edx, edx
  000a6	b8 df ff ff ff	 mov	 eax, -33		; ffffffdfH
  000ab	8b 7e 14	 mov	 edi, DWORD PTR [esi+20]
  000ae	f7 f3		 div	 ebx
  000b0	3b f8		 cmp	 edi, eax
  000b2	0f 87 73 01 00
	00		 ja	 $LN43@PMC_Pow_X_

; 137  : 
; 138  :                 __UNIT_TYPE work_bit_count = v_bit_count * e + __UNIT_TYPE_BIT_COUNT;

  000b8	0f af fb	 imul	 edi, ebx

; 139  : 
; 140  :                 __UNIT_TYPE* work1_buf = root.AllocateBlock(work_bit_count);

  000bb	8d 4d c0	 lea	 ecx, DWORD PTR _root$4[ebp]
  000be	83 c7 20	 add	 edi, 32			; 00000020H
  000c1	57		 push	 edi
  000c2	e8 00 00 00 00	 call	 ?AllocateBlock@ResourceHolderUINT@Internal@Core@Math@Palmtree@@QAEPAII@Z ; Palmtree::Math::Core::Internal::ResourceHolderUINT::AllocateBlock

; 141  :                 __UNIT_TYPE* work2_buf = root.AllocateBlock(work_bit_count);

  000c7	57		 push	 edi
  000c8	8d 4d c0	 lea	 ecx, DWORD PTR _root$4[ebp]
  000cb	89 45 e4	 mov	 DWORD PTR _work1_buf$1$[ebp], eax
  000ce	e8 00 00 00 00	 call	 ?AllocateBlock@ResourceHolderUINT@Internal@Core@Math@Palmtree@@QAEPAII@Z ; Palmtree::Math::Core::Internal::ResourceHolderUINT::AllocateBlock

; 142  :                 NUMBER_HEADER* r = root.AllocateNumber(work_bit_count);

  000d3	57		 push	 edi
  000d4	8d 4d c0	 lea	 ecx, DWORD PTR _root$4[ebp]
  000d7	89 45 e0	 mov	 DWORD PTR _work2_buf$1$[ebp], eax
  000da	e8 00 00 00 00	 call	 ?AllocateNumber@ResourceHolderUINT@Internal@Core@Math@Palmtree@@QAEPAU__tag_NUMBER_HEADER@2345@I@Z ; Palmtree::Math::Core::Internal::ResourceHolderUINT::AllocateNumber

; 143  :                 Pow_X_I_Imp(v->BLOCK, v->UNIT_WORD_COUNT, e, work1_buf, work2_buf, r->BLOCK);

  000df	8b 7e 10	 mov	 edi, DWORD PTR [esi+16]
; File z:\sources\lunor\repos\rougemeilland\palmtree.math.core.uint\palmtree.math.core.uint\pmc_inline_func.h

; 432  :             return (sizeof(x) * 8 - 1 - pos);

  000e2	ba 1f 00 00 00	 mov	 edx, 31			; 0000001fH
; File z:\sources\lunor\repos\rougemeilland\palmtree.math.core.uint\palmtree.math.core.uint\pmc_pow.cpp

; 143  :                 Pow_X_I_Imp(v->BLOCK, v->UNIT_WORD_COUNT, e, work1_buf, work2_buf, r->BLOCK);

  000e7	8b 76 24	 mov	 esi, DWORD PTR [esi+36]
; File z:\sources\lunor\repos\rougemeilland\palmtree.math.core.uint\palmtree.math.core.uint\pmc_inline_func.h

; 426  :             _BitScanReverse(&pos, x);

  000ea	0f bd cb	 bsr	 ecx, ebx
; File z:\sources\lunor\repos\rougemeilland\palmtree.math.core.uint\palmtree.math.core.uint\pmc_pow.cpp

; 44   :         __UNIT_TYPE* w_ptr = work2_buf;

  000ed	8b 5d e0	 mov	 ebx, DWORD PTR _work2_buf$1$[ebp]

; 142  :                 NUMBER_HEADER* r = root.AllocateNumber(work_bit_count);

  000f0	89 45 d0	 mov	 DWORD PTR _r$1$[ebp], eax
; File z:\sources\lunor\repos\rougemeilland\palmtree.math.core.uint\palmtree.math.core.uint\pmc_inline_func.h

; 432  :             return (sizeof(x) * 8 - 1 - pos);

  000f3	2b d1		 sub	 edx, ecx
; File z:\sources\lunor\repos\rougemeilland\palmtree.math.core.uint\palmtree.math.core.uint\pmc_pow.cpp

; 143  :                 Pow_X_I_Imp(v->BLOCK, v->UNIT_WORD_COUNT, e, work1_buf, work2_buf, r->BLOCK);

  000f5	8b 40 24	 mov	 eax, DWORD PTR [eax+36]

; 44   :         __UNIT_TYPE* w_ptr = work2_buf;

  000f8	89 5d 08	 mov	 DWORD PTR _w_ptr$1$[ebp], ebx

; 45   :         __UNIT_TYPE u_count = v_buf_count;

  000fb	8b df		 mov	 ebx, edi

; 143  :                 Pow_X_I_Imp(v->BLOCK, v->UNIT_WORD_COUNT, e, work1_buf, work2_buf, r->BLOCK);

  000fd	89 45 d4	 mov	 DWORD PTR _r_buf$1$[ebp], eax
; File z:\sources\lunor\repos\rougemeilland\palmtree.math.core.uint\palmtree.math.core.uint\pmc_inline_func.h

; 65   :             __movsd((unsigned long *)d, (unsigned long *)s, (unsigned long)count);

  00100	8b cb		 mov	 ecx, ebx
; File z:\sources\lunor\repos\rougemeilland\palmtree.math.core.uint\palmtree.math.core.uint\pmc_pow.cpp

; 42   :         __UNIT_TYPE* u_ptr = work1_buf;

  00102	8b 45 e4	 mov	 eax, DWORD PTR _work1_buf$1$[ebp]

; 143  :                 Pow_X_I_Imp(v->BLOCK, v->UNIT_WORD_COUNT, e, work1_buf, work2_buf, r->BLOCK);

  00105	89 7d ec	 mov	 DWORD PTR _v_buf_count$1$[ebp], edi
; File z:\sources\lunor\repos\rougemeilland\palmtree.math.core.uint\palmtree.math.core.uint\pmc_inline_func.h

; 65   :             __movsd((unsigned long *)d, (unsigned long *)s, (unsigned long)count);

  00108	8b f8		 mov	 edi, eax
; File z:\sources\lunor\repos\rougemeilland\palmtree.math.core.uint\palmtree.math.core.uint\pmc_pow.cpp

; 143  :                 Pow_X_I_Imp(v->BLOCK, v->UNIT_WORD_COUNT, e, work1_buf, work2_buf, r->BLOCK);

  0010a	89 75 dc	 mov	 DWORD PTR _v_buf$1$[ebp], esi
; File z:\sources\lunor\repos\rougemeilland\palmtree.math.core.uint\palmtree.math.core.uint\pmc_inline_func.h

; 65   :             __movsd((unsigned long *)d, (unsigned long *)s, (unsigned long)count);

  0010d	f3 a5		 rep movsd
; File z:\sources\lunor\repos\rougemeilland\palmtree.math.core.uint\palmtree.math.core.uint\pmc_pow.cpp

; 38   :         _UINT32_T e_mask = _rotr(1, _LZCNT_ALT_32(e) + 1);

  0010f	8d 4a 01	 lea	 ecx, DWORD PTR [edx+1]

; 42   :         __UNIT_TYPE* u_ptr = work1_buf;

  00112	89 45 f0	 mov	 DWORD PTR _u_ptr$1$[ebp], eax
  00115	be 01 00 00 00	 mov	 esi, 1
  0011a	d3 ce		 ror	 esi, cl

; 46   :         __UNIT_TYPE v_count = v_buf_count;
; 47   :         _COPY_MEMORY_UNIT(work1_buf, v_buf, v_buf_count);
; 48   :         e_mask >>= 1;

  0011c	d1 ee		 shr	 esi, 1
  0011e	89 75 e8	 mov	 DWORD PTR _e_mask$1$[ebp], esi

; 49   :         while (e_mask != 0)

  00121	0f 84 89 00 00
	00		 je	 $LN17@PMC_Pow_X_
  00127	8b 55 08	 mov	 edx, DWORD PTR _w_ptr$1$[ebp]
  0012a	66 0f 1f 44 00
	00		 npad	 6
$LL16@PMC_Pow_X_:

; 50   :         {
; 51   :             // u  w 
; 52   :             _ZERO_MEMORY_UNIT(w_ptr, u_count * 2);

  00130	89 75 d8	 mov	 DWORD PTR tv383[ebp], esi
; File z:\sources\lunor\repos\rougemeilland\palmtree.math.core.uint\palmtree.math.core.uint\pmc_inline_func.h

; 98   :             __stosd((unsigned long*)d, 0, (unsigned long)count);

  00133	8b fa		 mov	 edi, edx
; File z:\sources\lunor\repos\rougemeilland\palmtree.math.core.uint\palmtree.math.core.uint\pmc_pow.cpp

; 53   :             Multiply_X_X_Imp(u_ptr, u_count, u_ptr, u_count, w_ptr);

  00135	52		 push	 edx
  00136	8d 34 1b	 lea	 esi, DWORD PTR [ebx+ebx]
; File z:\sources\lunor\repos\rougemeilland\palmtree.math.core.uint\palmtree.math.core.uint\pmc_inline_func.h

; 98   :             __stosd((unsigned long*)d, 0, (unsigned long)count);

  00139	33 c0		 xor	 eax, eax
  0013b	8b ce		 mov	 ecx, esi
  0013d	f3 ab		 rep stosd
; File z:\sources\lunor\repos\rougemeilland\palmtree.math.core.uint\palmtree.math.core.uint\pmc_pow.cpp

; 53   :             Multiply_X_X_Imp(u_ptr, u_count, u_ptr, u_count, w_ptr);

  0013f	8b 7d f0	 mov	 edi, DWORD PTR _u_ptr$1$[ebp]
  00142	53		 push	 ebx
  00143	57		 push	 edi
  00144	53		 push	 ebx
  00145	57		 push	 edi
  00146	e8 00 00 00 00	 call	 ?Multiply_X_X_Imp@Internal@Core@Math@Palmtree@@YAXPAII0I0@Z ; Palmtree::Math::Core::Internal::Multiply_X_X_Imp

; 54   :             u_count *= 2;
; 55   :             if (w_ptr[u_count - 1] == 0)
; 56   :                 --u_count;
; 57   : 
; 58   :             // e  bit 
; 59   :             if (e & e_mask)

  0014b	8b 55 08	 mov	 edx, DWORD PTR _w_ptr$1$[ebp]
  0014e	8d 46 ff	 lea	 eax, DWORD PTR [esi-1]
  00151	83 c4 14	 add	 esp, 20			; 00000014H
  00154	83 7c da fc 00	 cmp	 DWORD PTR [edx+ebx*8-4], 0
  00159	0f 45 c6	 cmovne	 eax, esi
  0015c	8b 75 e8	 mov	 esi, DWORD PTR _e_mask$1$[ebp]
  0015f	8b d8		 mov	 ebx, eax
  00161	85 75 0c	 test	 esi, DWORD PTR _e$[ebp]
  00164	74 32		 je	 SHORT $LN19@PMC_Pow_X_

; 62   :                 _ZERO_MEMORY_UNIT(u_ptr, u_count + v_count);

  00166	8b 75 ec	 mov	 esi, DWORD PTR _v_buf_count$1$[ebp]
; File z:\sources\lunor\repos\rougemeilland\palmtree.math.core.uint\palmtree.math.core.uint\pmc_inline_func.h

; 98   :             __stosd((unsigned long*)d, 0, (unsigned long)count);

  00169	33 c0		 xor	 eax, eax
; File z:\sources\lunor\repos\rougemeilland\palmtree.math.core.uint\palmtree.math.core.uint\pmc_pow.cpp

; 62   :                 _ZERO_MEMORY_UNIT(u_ptr, u_count + v_count);

  0016b	03 f3		 add	 esi, ebx
; File z:\sources\lunor\repos\rougemeilland\palmtree.math.core.uint\palmtree.math.core.uint\pmc_inline_func.h

; 98   :             __stosd((unsigned long*)d, 0, (unsigned long)count);

  0016d	8b ce		 mov	 ecx, esi
  0016f	f3 ab		 rep stosd
; File z:\sources\lunor\repos\rougemeilland\palmtree.math.core.uint\palmtree.math.core.uint\pmc_pow.cpp

; 63   :                 Multiply_X_X_Imp(w_ptr, u_count, v_ptr, v_count, u_ptr);

  00171	8b 7d f0	 mov	 edi, DWORD PTR _u_ptr$1$[ebp]
  00174	57		 push	 edi
  00175	ff 75 ec	 push	 DWORD PTR _v_buf_count$1$[ebp]
  00178	ff 75 dc	 push	 DWORD PTR _v_buf$1$[ebp]
  0017b	53		 push	 ebx
  0017c	52		 push	 edx
  0017d	e8 00 00 00 00	 call	 ?Multiply_X_X_Imp@Internal@Core@Math@Palmtree@@YAXPAII0I0@Z ; Palmtree::Math::Core::Internal::Multiply_X_X_Imp

; 64   :                 u_count += v_count;
; 65   :                 if (u_ptr[u_count - 1] == 0)
; 66   :                     --u_count;
; 67   :             }
; 68   :             else

  00182	8b 55 08	 mov	 edx, DWORD PTR _w_ptr$1$[ebp]
  00185	8d 5e ff	 lea	 ebx, DWORD PTR [esi-1]
  00188	83 c4 14	 add	 esp, 20			; 00000014H
  0018b	83 7c b7 fc 00	 cmp	 DWORD PTR [edi+esi*4-4], 0
  00190	0f 45 de	 cmovne	 ebx, esi
  00193	8b 75 e8	 mov	 esi, DWORD PTR _e_mask$1$[ebp]
  00196	eb 0a		 jmp	 SHORT $LN20@PMC_Pow_X_
$LN19@PMC_Pow_X_:

; 69   :             {
; 70   :                 // u  w 
; 71   :                 __UNIT_TYPE* t_ptr = u_ptr;

  00198	8b c7		 mov	 eax, edi

; 72   :                 u_ptr = w_ptr;

  0019a	89 55 f0	 mov	 DWORD PTR _u_ptr$1$[ebp], edx

; 73   :                 w_ptr = t_ptr;

  0019d	8b d0		 mov	 edx, eax
  0019f	89 55 08	 mov	 DWORD PTR _w_ptr$1$[ebp], edx
$LN20@PMC_Pow_X_:

; 74   :             }
; 75   : 
; 76   :             e_mask >>= 1;

  001a2	d1 ee		 shr	 esi, 1
  001a4	83 7d d8 02	 cmp	 DWORD PTR tv383[ebp], 2
  001a8	89 75 e8	 mov	 DWORD PTR _e_mask$1$[ebp], esi
  001ab	73 83		 jae	 SHORT $LL16@PMC_Pow_X_
  001ad	8b 45 f0	 mov	 eax, DWORD PTR _u_ptr$1$[ebp]
$LN17@PMC_Pow_X_:
; File z:\sources\lunor\repos\rougemeilland\palmtree.math.core.uint\palmtree.math.core.uint\pmc_inline_func.h

; 65   :             __movsd((unsigned long *)d, (unsigned long *)s, (unsigned long)count);

  001b0	8b 7d d4	 mov	 edi, DWORD PTR _r_buf$1$[ebp]
  001b3	8b f0		 mov	 esi, eax
; File z:\sources\lunor\repos\rougemeilland\palmtree.math.core.uint\palmtree.math.core.uint\pmc_pow.cpp

; 144  :                 root.CheckBlock(work1_buf);

  001b5	ff 75 e4	 push	 DWORD PTR _work1_buf$1$[ebp]
; File z:\sources\lunor\repos\rougemeilland\palmtree.math.core.uint\palmtree.math.core.uint\pmc_inline_func.h

; 65   :             __movsd((unsigned long *)d, (unsigned long *)s, (unsigned long)count);

  001b8	8b cb		 mov	 ecx, ebx
  001ba	f3 a5		 rep movsd
; File z:\sources\lunor\repos\rougemeilland\palmtree.math.core.uint\palmtree.math.core.uint\pmc_pow.cpp

; 144  :                 root.CheckBlock(work1_buf);

  001bc	8d 4d c0	 lea	 ecx, DWORD PTR _root$4[ebp]
  001bf	e8 00 00 00 00	 call	 ?CheckBlock@ResourceHolderUINT@Internal@Core@Math@Palmtree@@QAEXPAI@Z ; Palmtree::Math::Core::Internal::ResourceHolderUINT::CheckBlock

; 145  :                 root.CheckBlock(work2_buf);

  001c4	ff 75 e0	 push	 DWORD PTR _work2_buf$1$[ebp]
  001c7	8d 4d c0	 lea	 ecx, DWORD PTR _root$4[ebp]
  001ca	e8 00 00 00 00	 call	 ?CheckBlock@ResourceHolderUINT@Internal@Core@Math@Palmtree@@QAEXPAI@Z ; Palmtree::Math::Core::Internal::ResourceHolderUINT::CheckBlock

; 146  :                 root.CheckNumber(r);

  001cf	8b 5d d0	 mov	 ebx, DWORD PTR _r$1$[ebp]
  001d2	8d 4d c0	 lea	 ecx, DWORD PTR _root$4[ebp]
  001d5	53		 push	 ebx
  001d6	e8 00 00 00 00	 call	 ?CheckNumber@ResourceHolderUINT@Internal@Core@Math@Palmtree@@QAEXPAU__tag_NUMBER_HEADER@2345@@Z ; Palmtree::Math::Core::Internal::ResourceHolderUINT::CheckNumber

; 147  :                 CommitNumber(r);

  001db	53		 push	 ebx
  001dc	e8 00 00 00 00	 call	 ?CommitNumber@Internal@Core@Math@Palmtree@@YAXPAU__tag_NUMBER_HEADER@1234@@Z ; Palmtree::Math::Core::Internal::CommitNumber
  001e1	83 c4 04	 add	 esp, 4

; 148  :                 root.UnlinkNumber(r);

  001e4	8d 4d c0	 lea	 ecx, DWORD PTR _root$4[ebp]
  001e7	53		 push	 ebx
  001e8	e8 00 00 00 00	 call	 ?UnlinkNumber@ResourceHolderUINT@Internal@Core@Math@Palmtree@@QAEXPAU__tag_NUMBER_HEADER@2345@@Z ; Palmtree::Math::Core::Internal::ResourceHolderUINT::UnlinkNumber

; 149  :                 return (r);

  001ed	c7 45 fc ff ff
	ff ff		 mov	 DWORD PTR __$EHRec$[ebp+8], -1
  001f4	8d 4d c0	 lea	 ecx, DWORD PTR _root$4[ebp]
  001f7	e8 00 00 00 00	 call	 ??1ResourceHolderUINT@Internal@Core@Math@Palmtree@@UAE@XZ ; Palmtree::Math::Core::Internal::ResourceHolderUINT::~ResourceHolderUINT
  001fc	8b c3		 mov	 eax, ebx

; 150  :             }
; 151  :         }
; 152  :     }

  001fe	8b 4d f4	 mov	 ecx, DWORD PTR __$EHRec$[ebp]
  00201	64 89 0d 00 00
	00 00		 mov	 DWORD PTR fs:0, ecx
  00208	59		 pop	 ecx
  00209	5f		 pop	 edi
  0020a	5e		 pop	 esi
  0020b	5b		 pop	 ebx
  0020c	8b e5		 mov	 esp, ebp
  0020e	5d		 pop	 ebp
  0020f	c3		 ret	 0
$LN42@PMC_Pow_X_:

; 88   :             {
; 89   :                 // e  0 
; 90   : 
; 91   :                 // 0  0 
; 92   :                 throw ArithmeticException(L"00");

  00210	68 00 00 00 00	 push	 OFFSET ??_C@_1BM@OCOOKOCJ@?$AA0?$AAn?$AA0?$AAW?$AAn?$AA$?$AAo?$AA?$CK?$PP?$JK?$PP?$KJ?$AAg?$AAY?$AA?$AC@
  00215	8d 4d b8	 lea	 ecx, DWORD PTR $T3[ebp]
  00218	e8 00 00 00 00	 call	 ??0ArithmeticException@Internal@Core@Math@Palmtree@@QAE@PB_W@Z ; Palmtree::Math::Core::Internal::ArithmeticException::ArithmeticException
  0021d	68 00 00 00 00	 push	 OFFSET __TI2?AVArithmeticException@Internal@Core@Math@Palmtree@@
  00222	8d 45 b8	 lea	 eax, DWORD PTR $T3[ebp]
  00225	50		 push	 eax
  00226	e8 00 00 00 00	 call	 __CxxThrowException@8
$LN43@PMC_Pow_X_:

; 136  :                     throw OverflowException(L"");

  0022b	68 00 00 00 00	 push	 OFFSET ??_C@_1CM@JEKMNCAI@?$PP?$KK?$PP?$PM?$PP?P?$PP?$PM?$PP?U?$PP?m?$PP?$PM?$AAk?$PP?$II?$PP?$IK?$AA?$AI?$PP?$JH?$PP?$JC?$PP?$JK?$AAL@
  00230	8d 4d a0	 lea	 ecx, DWORD PTR $T2[ebp]
  00233	e8 00 00 00 00	 call	 ??0OverflowException@Internal@Core@Math@Palmtree@@QAE@PB_W@Z ; Palmtree::Math::Core::Internal::OverflowException::OverflowException
  00238	68 00 00 00 00	 push	 OFFSET __TI2?AVOverflowException@Internal@Core@Math@Palmtree@@
  0023d	8d 45 a0	 lea	 eax, DWORD PTR $T2[ebp]
  00240	50		 push	 eax
  00241	e8 00 00 00 00	 call	 __CxxThrowException@8
$LN39@PMC_Pow_X_:
  00246	cc		 int	 3
_TEXT	ENDS
;	COMDAT text$x
text$x	SEGMENT
__unwindfunclet$?PMC_Pow_X_I_Imp@Internal@Core@Math@Palmtree@@YAPAU__tag_NUMBER_HEADER@1234@PAU51234@I@Z$0:
  00000	8d 4d c0	 lea	 ecx, DWORD PTR _root$4[ebp]
  00003	e9 00 00 00 00	 jmp	 ??1ResourceHolderUINT@Internal@Core@Math@Palmtree@@UAE@XZ ; Palmtree::Math::Core::Internal::ResourceHolderUINT::~ResourceHolderUINT
__ehhandler$?PMC_Pow_X_I_Imp@Internal@Core@Math@Palmtree@@YAPAU__tag_NUMBER_HEADER@1234@PAU51234@I@Z:
  00008	8b 54 24 08	 mov	 edx, DWORD PTR [esp+8]
  0000c	8d 42 0c	 lea	 eax, DWORD PTR [edx+12]
  0000f	8b 4a 9c	 mov	 ecx, DWORD PTR [edx-100]
  00012	33 c8		 xor	 ecx, eax
  00014	e8 00 00 00 00	 call	 @__security_check_cookie@4
  00019	b8 00 00 00 00	 mov	 eax, OFFSET __ehfuncinfo$?PMC_Pow_X_I_Imp@Internal@Core@Math@Palmtree@@YAPAU__tag_NUMBER_HEADER@1234@PAU51234@I@Z
  0001e	e9 00 00 00 00	 jmp	 ___CxxFrameHandler3
text$x	ENDS
?PMC_Pow_X_I_Imp@Internal@Core@Math@Palmtree@@YAPAU__tag_NUMBER_HEADER@1234@PAU51234@I@Z ENDP ; Palmtree::Math::Core::Internal::PMC_Pow_X_I_Imp
; Function compile flags: /Ogtp
; File z:\sources\lunor\repos\rougemeilland\palmtree.math.core.uint\palmtree.math.core.uint\pmc_exception.h
; File c:\program files (x86)\microsoft visual studio\2017\community\vc\tools\msvc\14.16.27023\include\vcruntime_exception.h
;	COMDAT ??_GInternalErrorException@Internal@Core@Math@Palmtree@@UAEPAXI@Z
_TEXT	SEGMENT
_this$ = -16						; size = 4
__$EHRec$ = -12						; size = 12
___flags$ = 8						; size = 4
??_GInternalErrorException@Internal@Core@Math@Palmtree@@UAEPAXI@Z PROC ; Palmtree::Math::Core::Internal::InternalErrorException::`scalar deleting destructor', COMDAT
; _this$ = ecx
  00000	55		 push	 ebp
  00001	8b ec		 mov	 ebp, esp
  00003	6a ff		 push	 -1
  00005	68 00 00 00 00	 push	 __ehhandler$??_GInternalErrorException@Internal@Core@Math@Palmtree@@UAEPAXI@Z
  0000a	64 a1 00 00 00
	00		 mov	 eax, DWORD PTR fs:0
  00010	50		 push	 eax
  00011	51		 push	 ecx
  00012	56		 push	 esi
  00013	a1 00 00 00 00	 mov	 eax, DWORD PTR ___security_cookie
  00018	33 c5		 xor	 eax, ebp
  0001a	50		 push	 eax
  0001b	8d 45 f4	 lea	 eax, DWORD PTR __$EHRec$[ebp]
  0001e	64 a3 00 00 00
	00		 mov	 DWORD PTR fs:0, eax
  00024	8b f1		 mov	 esi, ecx
  00026	89 75 f0	 mov	 DWORD PTR _this$[ebp], esi
; File z:\sources\lunor\repos\rougemeilland\palmtree.math.core.uint\palmtree.math.core.uint\pmc_exception.h

; 295  :         {

  00029	c7 06 00 00 00
	00		 mov	 DWORD PTR [esi], OFFSET ??_7InternalErrorException@Internal@Core@Math@Palmtree@@6B@

; 296  :         }

  0002f	c7 45 fc ff ff
	ff ff		 mov	 DWORD PTR __$EHRec$[ebp+8], -1

; 70   :         {

  00036	c7 06 00 00 00
	00		 mov	 DWORD PTR [esi], OFFSET ??_7Exception@Internal@Core@Math@Palmtree@@6B@

; 71   :         }

  0003c	c7 45 fc ff ff
	ff ff		 mov	 DWORD PTR __$EHRec$[ebp+8], -1
; File c:\program files (x86)\microsoft visual studio\2017\community\vc\tools\msvc\14.16.27023\include\vcruntime_exception.h

; 86   :         __std_exception_destroy(&_Data);

  00043	8d 46 04	 lea	 eax, DWORD PTR [esi+4]
  00046	50		 push	 eax
  00047	c7 06 00 00 00
	00		 mov	 DWORD PTR [esi], OFFSET ??_7exception@std@@6B@
  0004d	e8 00 00 00 00	 call	 ___std_exception_destroy
  00052	83 c4 04	 add	 esp, 4
  00055	f6 45 08 01	 test	 BYTE PTR ___flags$[ebp], 1
  00059	74 0b		 je	 SHORT $LN12@scalar
  0005b	6a 18		 push	 24			; 00000018H
  0005d	56		 push	 esi
  0005e	e8 00 00 00 00	 call	 ??3@YAXPAXI@Z		; operator delete
  00063	83 c4 08	 add	 esp, 8
$LN12@scalar:
  00066	8b c6		 mov	 eax, esi
  00068	8b 4d f4	 mov	 ecx, DWORD PTR __$EHRec$[ebp]
  0006b	64 89 0d 00 00
	00 00		 mov	 DWORD PTR fs:0, ecx
  00072	59		 pop	 ecx
  00073	5e		 pop	 esi
  00074	8b e5		 mov	 esp, ebp
  00076	5d		 pop	 ebp
  00077	c2 04 00	 ret	 4
_TEXT	ENDS
;	COMDAT text$x
text$x	SEGMENT
__unwindfunclet$??_GInternalErrorException@Internal@Core@Math@Palmtree@@UAEPAXI@Z$0:
  00000	8b 4d f0	 mov	 ecx, DWORD PTR _this$[ebp]
  00003	e9 00 00 00 00	 jmp	 ??1Exception@Internal@Core@Math@Palmtree@@UAE@XZ ; Palmtree::Math::Core::Internal::Exception::~Exception
__unwindfunclet$??_GInternalErrorException@Internal@Core@Math@Palmtree@@UAEPAXI@Z$1:
  00008	8b 4d f0	 mov	 ecx, DWORD PTR _this$[ebp]
  0000b	e9 00 00 00 00	 jmp	 ??1exception@std@@UAE@XZ ; std::exception::~exception
__ehhandler$??_GInternalErrorException@Internal@Core@Math@Palmtree@@UAEPAXI@Z:
  00010	8b 54 24 08	 mov	 edx, DWORD PTR [esp+8]
  00014	8d 42 0c	 lea	 eax, DWORD PTR [edx+12]
  00017	8b 4a f4	 mov	 ecx, DWORD PTR [edx-12]
  0001a	33 c8		 xor	 ecx, eax
  0001c	e8 00 00 00 00	 call	 @__security_check_cookie@4
  00021	b8 00 00 00 00	 mov	 eax, OFFSET __ehfuncinfo$??_GInternalErrorException@Internal@Core@Math@Palmtree@@UAEPAXI@Z
  00026	e9 00 00 00 00	 jmp	 ___CxxFrameHandler3
text$x	ENDS
??_GInternalErrorException@Internal@Core@Math@Palmtree@@UAEPAXI@Z ENDP ; Palmtree::Math::Core::Internal::InternalErrorException::`scalar deleting destructor'
; Function compile flags: /Ogtp
; File z:\sources\lunor\repos\rougemeilland\palmtree.math.core.uint\palmtree.math.core.uint\pmc_exception.h
; File c:\program files (x86)\microsoft visual studio\2017\community\vc\tools\msvc\14.16.27023\include\vcruntime_exception.h
; File z:\sources\lunor\repos\rougemeilland\palmtree.math.core.uint\palmtree.math.core.uint\pmc_exception.h
;	COMDAT ??1InternalErrorException@Internal@Core@Math@Palmtree@@UAE@XZ
_TEXT	SEGMENT
_this$ = -16						; size = 4
__$EHRec$ = -12						; size = 12
??1InternalErrorException@Internal@Core@Math@Palmtree@@UAE@XZ PROC ; Palmtree::Math::Core::Internal::InternalErrorException::~InternalErrorException, COMDAT
; _this$ = ecx

; 295  :         {

  00000	55		 push	 ebp
  00001	8b ec		 mov	 ebp, esp
  00003	6a ff		 push	 -1
  00005	68 00 00 00 00	 push	 __ehhandler$??1InternalErrorException@Internal@Core@Math@Palmtree@@UAE@XZ
  0000a	64 a1 00 00 00
	00		 mov	 eax, DWORD PTR fs:0
  00010	50		 push	 eax
  00011	51		 push	 ecx
  00012	a1 00 00 00 00	 mov	 eax, DWORD PTR ___security_cookie
  00017	33 c5		 xor	 eax, ebp
  00019	50		 push	 eax
  0001a	8d 45 f4	 lea	 eax, DWORD PTR __$EHRec$[ebp]
  0001d	64 a3 00 00 00
	00		 mov	 DWORD PTR fs:0, eax
  00023	89 4d f0	 mov	 DWORD PTR _this$[ebp], ecx
  00026	c7 01 00 00 00
	00		 mov	 DWORD PTR [ecx], OFFSET ??_7InternalErrorException@Internal@Core@Math@Palmtree@@6B@

; 296  :         }

  0002c	c7 45 fc ff ff
	ff ff		 mov	 DWORD PTR __$EHRec$[ebp+8], -1

; 70   :         {

  00033	c7 01 00 00 00
	00		 mov	 DWORD PTR [ecx], OFFSET ??_7Exception@Internal@Core@Math@Palmtree@@6B@

; 71   :         }

  00039	c7 45 fc ff ff
	ff ff		 mov	 DWORD PTR __$EHRec$[ebp+8], -1
; File c:\program files (x86)\microsoft visual studio\2017\community\vc\tools\msvc\14.16.27023\include\vcruntime_exception.h

; 86   :         __std_exception_destroy(&_Data);

  00040	8d 41 04	 lea	 eax, DWORD PTR [ecx+4]
  00043	50		 push	 eax
  00044	c7 01 00 00 00
	00		 mov	 DWORD PTR [ecx], OFFSET ??_7exception@std@@6B@
  0004a	e8 00 00 00 00	 call	 ___std_exception_destroy
  0004f	83 c4 04	 add	 esp, 4
; File z:\sources\lunor\repos\rougemeilland\palmtree.math.core.uint\palmtree.math.core.uint\pmc_exception.h

; 296  :         }

  00052	8b 4d f4	 mov	 ecx, DWORD PTR __$EHRec$[ebp]
  00055	64 89 0d 00 00
	00 00		 mov	 DWORD PTR fs:0, ecx
  0005c	59		 pop	 ecx
  0005d	8b e5		 mov	 esp, ebp
  0005f	5d		 pop	 ebp
  00060	c3		 ret	 0
_TEXT	ENDS
;	COMDAT text$x
text$x	SEGMENT
__unwindfunclet$??1InternalErrorException@Internal@Core@Math@Palmtree@@UAE@XZ$0:
  00000	8b 4d f0	 mov	 ecx, DWORD PTR _this$[ebp]
  00003	e9 00 00 00 00	 jmp	 ??1Exception@Internal@Core@Math@Palmtree@@UAE@XZ ; Palmtree::Math::Core::Internal::Exception::~Exception
__unwindfunclet$??1InternalErrorException@Internal@Core@Math@Palmtree@@UAE@XZ$1:
  00008	8b 4d f0	 mov	 ecx, DWORD PTR _this$[ebp]
  0000b	e9 00 00 00 00	 jmp	 ??1exception@std@@UAE@XZ ; std::exception::~exception
__ehhandler$??1InternalErrorException@Internal@Core@Math@Palmtree@@UAE@XZ:
  00010	8b 54 24 08	 mov	 edx, DWORD PTR [esp+8]
  00014	8d 42 0c	 lea	 eax, DWORD PTR [edx+12]
  00017	8b 4a f8	 mov	 ecx, DWORD PTR [edx-8]
  0001a	33 c8		 xor	 ecx, eax
  0001c	e8 00 00 00 00	 call	 @__security_check_cookie@4
  00021	b8 00 00 00 00	 mov	 eax, OFFSET __ehfuncinfo$??1InternalErrorException@Internal@Core@Math@Palmtree@@UAE@XZ
  00026	e9 00 00 00 00	 jmp	 ___CxxFrameHandler3
text$x	ENDS
??1InternalErrorException@Internal@Core@Math@Palmtree@@UAE@XZ ENDP ; Palmtree::Math::Core::Internal::InternalErrorException::~InternalErrorException
; Function compile flags: /Ogtp
; File z:\sources\lunor\repos\rougemeilland\palmtree.math.core.uint\palmtree.math.core.uint\pmc_exception.h
; File c:\program files (x86)\microsoft visual studio\2017\community\vc\tools\msvc\14.16.27023\include\vcruntime_exception.h
; File z:\sources\lunor\repos\rougemeilland\palmtree.math.core.uint\palmtree.math.core.uint\pmc_exception.h
;	COMDAT ??0InternalErrorException@Internal@Core@Math@Palmtree@@QAE@PB_W0@Z
_TEXT	SEGMENT
_this$ = -16						; size = 4
__$EHRec$ = -12						; size = 12
_message$ = 8						; size = 4
_data$ = 12						; size = 4
??0InternalErrorException@Internal@Core@Math@Palmtree@@QAE@PB_W0@Z PROC ; Palmtree::Math::Core::Internal::InternalErrorException::InternalErrorException, COMDAT
; _this$ = ecx

; 286  :         {

  00000	55		 push	 ebp
  00001	8b ec		 mov	 ebp, esp
  00003	6a ff		 push	 -1
  00005	68 00 00 00 00	 push	 __ehhandler$??0InternalErrorException@Internal@Core@Math@Palmtree@@QAE@PB_W0@Z
  0000a	64 a1 00 00 00
	00		 mov	 eax, DWORD PTR fs:0
  00010	50		 push	 eax
  00011	51		 push	 ecx
  00012	a1 00 00 00 00	 mov	 eax, DWORD PTR ___security_cookie
  00017	33 c5		 xor	 eax, ebp
  00019	50		 push	 eax
  0001a	8d 45 f4	 lea	 eax, DWORD PTR __$EHRec$[ebp]
  0001d	64 a3 00 00 00
	00		 mov	 DWORD PTR fs:0, eax
  00023	89 4d f0	 mov	 DWORD PTR _this$[ebp], ecx
  00026	0f 57 c0	 xorps	 xmm0, xmm0
; File c:\program files (x86)\microsoft visual studio\2017\community\vc\tools\msvc\14.16.27023\include\vcruntime_exception.h

; 50   :     {

  00029	c7 01 00 00 00
	00		 mov	 DWORD PTR [ecx], OFFSET ??_7exception@std@@6B@
  0002f	66 0f d6 41 04	 movq	 QWORD PTR [ecx+4], xmm0
; File z:\sources\lunor\repos\rougemeilland\palmtree.math.core.uint\palmtree.math.core.uint\pmc_exception.h

; 54   :         Exception(PMC_STATUS_CODE code, const wchar_t* message, const wchar_t* data) noexcept(true)

  00034	c7 45 fc 00 00
	00 00		 mov	 DWORD PTR __$EHRec$[ebp+8], 0

; 55   :         {
; 56   :             _code = code;
; 57   :             _message = message;

  0003b	8b 45 08	 mov	 eax, DWORD PTR _message$[ebp]
  0003e	89 41 10	 mov	 DWORD PTR [ecx+16], eax

; 58   :             _data = data;

  00041	8b 45 0c	 mov	 eax, DWORD PTR _data$[ebp]
  00044	c7 01 00 00 00
	00		 mov	 DWORD PTR [ecx], OFFSET ??_7Exception@Internal@Core@Math@Palmtree@@6B@
  0004a	c7 41 0c 00 ff
	ff ff		 mov	 DWORD PTR [ecx+12], -256 ; ffffff00H
  00051	89 41 14	 mov	 DWORD PTR [ecx+20], eax

; 59   :         }
; 60   : 
; 61   :     public:
; 62   :         Exception(const Exception& p) noexcept(true)
; 63   :         {
; 64   :             _code = p._code;
; 65   :             _message = p._message;
; 66   :             _data = p._data;
; 67   :         }
; 68   : 
; 69   :         virtual ~Exception() noexcept(true)
; 70   :         {
; 71   :         }
; 72   : 
; 73   :         PMC_STATUS_CODE GetStatusCode() const noexcept(true)
; 74   :         {
; 75   :             return (_code);
; 76   :         }
; 77   : 
; 78   :         wchar_t const* What() const noexcept(true)
; 79   :         {
; 80   :             return (_message);
; 81   :         }
; 82   : 
; 83   :         wchar_t const* Data() const noexcept(true)
; 84   :         {
; 85   :             return (_data);
; 86   :         }
; 87   : 
; 88   :     };
; 89   : 
; 90   :     class ArgumentException
; 91   :         : public Exception
; 92   :     {
; 93   :     public:
; 94   :         ArgumentException(const wchar_t* message) noexcept(true)
; 95   :             : Exception(PMC_STATUS_ARGUMENT_ERROR, message)
; 96   :         {
; 97   :         }
; 98   : 
; 99   :         ArgumentException(const ArgumentException& p) noexcept(true)
; 100  :             : Exception(p)
; 101  :         {
; 102  :         }
; 103  : 
; 104  :         virtual ~ArgumentException() noexcept(true)
; 105  :         {
; 106  :         }
; 107  :     };
; 108  : 
; 109  :     class ArgumentNullException
; 110  :         : public Exception
; 111  :     {
; 112  :     public:
; 113  :         ArgumentNullException(const wchar_t* message, const wchar_t* param_name) noexcept(true)
; 114  :             : Exception(PMC_STATUS_ARGUMENT_NULL_ERROR, message, param_name)
; 115  :         {
; 116  :         }
; 117  : 
; 118  :         ArgumentNullException(const ArgumentNullException& p) noexcept(true)
; 119  :             : Exception(p)
; 120  :         {
; 121  :         }
; 122  : 
; 123  :         virtual ~ArgumentNullException() noexcept(true)
; 124  :         {
; 125  :         }
; 126  :     };
; 127  : 
; 128  :     class ArgumentOutOfRangeException
; 129  :         : public Exception
; 130  :     {
; 131  :     public:
; 132  :         ArgumentOutOfRangeException(const wchar_t* message) noexcept(true)
; 133  :             : Exception(PMC_STATUS_ARGUMENT_OUT_OF_RANGE_ERROR, message)
; 134  :         {
; 135  :         }
; 136  : 
; 137  :         ArgumentOutOfRangeException(const ArgumentOutOfRangeException& p) noexcept(true)
; 138  :             : Exception(p)
; 139  :         {
; 140  :         }
; 141  : 
; 142  :         virtual ~ArgumentOutOfRangeException() noexcept(true)
; 143  :         {
; 144  :         }
; 145  :     };
; 146  : 
; 147  :     class OverflowException
; 148  :         : public Exception
; 149  :     {
; 150  :     public:
; 151  :         OverflowException(const wchar_t* message) noexcept(true)
; 152  :             : Exception(PMC_STATUS_OVERFLOW, message)
; 153  :         {
; 154  :         }
; 155  : 
; 156  :         OverflowException(const OverflowException& p) noexcept(true)
; 157  :             : Exception(p)
; 158  :         {
; 159  :         }
; 160  : 
; 161  :         virtual ~OverflowException() noexcept(true)
; 162  :         {
; 163  :         }
; 164  :     };
; 165  : 
; 166  :     class DivisionByZeroException
; 167  :         : public Exception
; 168  :     {
; 169  :     public:
; 170  :         DivisionByZeroException(const wchar_t* message) noexcept(true)
; 171  :             : Exception(PMC_STATUS_DIVISION_BY_ZERO, message)
; 172  :         {
; 173  :         }
; 174  : 
; 175  :         DivisionByZeroException(const DivisionByZeroException& p) noexcept(true)
; 176  :             : Exception(p)
; 177  :         {
; 178  :         }
; 179  : 
; 180  :         virtual ~DivisionByZeroException() noexcept(true)
; 181  :         {
; 182  :         }
; 183  :     };
; 184  : 
; 185  :     class ArithmeticException
; 186  :         : public Exception
; 187  :     {
; 188  :     public:
; 189  :         ArithmeticException(const wchar_t* message) noexcept(true)
; 190  :             : Exception(PMC_STATUS_ARITHMETIC_ERROR, message)
; 191  :         {
; 192  :         }
; 193  : 
; 194  :         ArithmeticException(const OverflowException& p) noexcept(true)
; 195  :             : Exception(p)
; 196  :         {
; 197  :         }
; 198  : 
; 199  :         virtual ~ArithmeticException() noexcept(true)
; 200  :         {
; 201  :         }
; 202  :     };
; 203  : 
; 204  :     class FormatException
; 205  :         : public Exception
; 206  :     {
; 207  :     public:
; 208  :         FormatException(const wchar_t* message) noexcept(true)
; 209  :             : Exception(PMC_STATUS_FORMAT_ERROR, message)
; 210  :         {
; 211  :         }
; 212  : 
; 213  :         FormatException(const FormatException& p) noexcept(true)
; 214  :             : Exception(p)
; 215  :         {
; 216  :         }
; 217  : 
; 218  :         virtual ~FormatException() noexcept(true)
; 219  :         {
; 220  :         }
; 221  :     };
; 222  : 
; 223  :     class InsufficientBufferException
; 224  :         : public Exception
; 225  :     {
; 226  :     public:
; 227  :         InsufficientBufferException(const wchar_t* message)
; 228  :             : Exception(PMC_STATUS_INSUFFICIENT_BUFFER, message)
; 229  :         {
; 230  :         }
; 231  : 
; 232  :         InsufficientBufferException(const InsufficientBufferException& p) noexcept(true)
; 233  :             : Exception(p)
; 234  :         {
; 235  :         }
; 236  : 
; 237  :         virtual ~InsufficientBufferException() noexcept(true)
; 238  :         {
; 239  :         }
; 240  :     };
; 241  : 
; 242  :     class NotEnoughMemoryException
; 243  :         : public Exception
; 244  :     {
; 245  :     public:
; 246  :         NotEnoughMemoryException(const wchar_t* message) noexcept(true)
; 247  :             : Exception(PMC_STATUS_NOT_ENOUGH_MEMORY, message)
; 248  :         {
; 249  :         }
; 250  : 
; 251  :         NotEnoughMemoryException(const NotEnoughMemoryException& p) noexcept(true)
; 252  :             : Exception(p)
; 253  :         {
; 254  :         }
; 255  : 
; 256  :         virtual ~NotEnoughMemoryException() noexcept(true)
; 257  :         {
; 258  :         }
; 259  :     };
; 260  : 
; 261  :     class NotSupportedException
; 262  :         : public Exception
; 263  :     {
; 264  :     public:
; 265  :         NotSupportedException(const wchar_t* message) noexcept(true)
; 266  :             : Exception(PMC_STATUS_NOT_SUPPORTED, message)
; 267  :         {
; 268  :         }
; 269  : 
; 270  :         NotSupportedException(const NotSupportedException& p) noexcept(true)
; 271  :             : Exception(p)
; 272  :         {
; 273  :         }
; 274  : 
; 275  :         virtual ~NotSupportedException() noexcept(true)
; 276  :         {
; 277  :         }
; 278  :     };
; 279  : 
; 280  :     class InternalErrorException
; 281  :         : public Exception
; 282  :     {
; 283  :     public:
; 284  :         InternalErrorException(const wchar_t* message, const wchar_t* data) noexcept(true)
; 285  :             : Exception(PMC_STATUS_INTERNAL_ERROR, message, data)

  00054	c7 45 fc 01 00
	00 00		 mov	 DWORD PTR __$EHRec$[ebp+8], 1

; 286  :         {

  0005b	c7 01 00 00 00
	00		 mov	 DWORD PTR [ecx], OFFSET ??_7InternalErrorException@Internal@Core@Math@Palmtree@@6B@

; 287  :         }

  00061	c7 45 fc ff ff
	ff ff		 mov	 DWORD PTR __$EHRec$[ebp+8], -1
  00068	8b c1		 mov	 eax, ecx
  0006a	8b 4d f4	 mov	 ecx, DWORD PTR __$EHRec$[ebp]
  0006d	64 89 0d 00 00
	00 00		 mov	 DWORD PTR fs:0, ecx
  00074	59		 pop	 ecx
  00075	8b e5		 mov	 esp, ebp
  00077	5d		 pop	 ebp
  00078	c2 08 00	 ret	 8
_TEXT	ENDS
;	COMDAT text$x
text$x	SEGMENT
__unwindfunclet$??0InternalErrorException@Internal@Core@Math@Palmtree@@QAE@PB_W0@Z$1:
  00000	8b 4d f0	 mov	 ecx, DWORD PTR _this$[ebp]
  00003	e9 00 00 00 00	 jmp	 ??1exception@std@@UAE@XZ ; std::exception::~exception
__unwindfunclet$??0InternalErrorException@Internal@Core@Math@Palmtree@@QAE@PB_W0@Z$0:
  00008	8b 4d f0	 mov	 ecx, DWORD PTR _this$[ebp]
  0000b	e9 00 00 00 00	 jmp	 ??1Exception@Internal@Core@Math@Palmtree@@UAE@XZ ; Palmtree::Math::Core::Internal::Exception::~Exception
__ehhandler$??0InternalErrorException@Internal@Core@Math@Palmtree@@QAE@PB_W0@Z:
  00010	8b 54 24 08	 mov	 edx, DWORD PTR [esp+8]
  00014	8d 42 0c	 lea	 eax, DWORD PTR [edx+12]
  00017	8b 4a f8	 mov	 ecx, DWORD PTR [edx-8]
  0001a	33 c8		 xor	 ecx, eax
  0001c	e8 00 00 00 00	 call	 @__security_check_cookie@4
  00021	b8 00 00 00 00	 mov	 eax, OFFSET __ehfuncinfo$??0InternalErrorException@Internal@Core@Math@Palmtree@@QAE@PB_W0@Z
  00026	e9 00 00 00 00	 jmp	 ___CxxFrameHandler3
text$x	ENDS
??0InternalErrorException@Internal@Core@Math@Palmtree@@QAE@PB_W0@Z ENDP ; Palmtree::Math::Core::Internal::InternalErrorException::InternalErrorException
; Function compile flags: /Ogtp
; File z:\sources\lunor\repos\rougemeilland\palmtree.math.core.uint\palmtree.math.core.uint\pmc_exception.h
; File c:\program files (x86)\microsoft visual studio\2017\community\vc\tools\msvc\14.16.27023\include\vcruntime_exception.h
;	COMDAT ??_GNotSupportedException@Internal@Core@Math@Palmtree@@UAEPAXI@Z
_TEXT	SEGMENT
_this$ = -16						; size = 4
__$EHRec$ = -12						; size = 12
___flags$ = 8						; size = 4
??_GNotSupportedException@Internal@Core@Math@Palmtree@@UAEPAXI@Z PROC ; Palmtree::Math::Core::Internal::NotSupportedException::`scalar deleting destructor', COMDAT
; _this$ = ecx
  00000	55		 push	 ebp
  00001	8b ec		 mov	 ebp, esp
  00003	6a ff		 push	 -1
  00005	68 00 00 00 00	 push	 __ehhandler$??_GNotSupportedException@Internal@Core@Math@Palmtree@@UAEPAXI@Z
  0000a	64 a1 00 00 00
	00		 mov	 eax, DWORD PTR fs:0
  00010	50		 push	 eax
  00011	51		 push	 ecx
  00012	56		 push	 esi
  00013	a1 00 00 00 00	 mov	 eax, DWORD PTR ___security_cookie
  00018	33 c5		 xor	 eax, ebp
  0001a	50		 push	 eax
  0001b	8d 45 f4	 lea	 eax, DWORD PTR __$EHRec$[ebp]
  0001e	64 a3 00 00 00
	00		 mov	 DWORD PTR fs:0, eax
  00024	8b f1		 mov	 esi, ecx
  00026	89 75 f0	 mov	 DWORD PTR _this$[ebp], esi
; File z:\sources\lunor\repos\rougemeilland\palmtree.math.core.uint\palmtree.math.core.uint\pmc_exception.h

; 276  :         {

  00029	c7 06 00 00 00
	00		 mov	 DWORD PTR [esi], OFFSET ??_7NotSupportedException@Internal@Core@Math@Palmtree@@6B@

; 277  :         }

  0002f	c7 45 fc ff ff
	ff ff		 mov	 DWORD PTR __$EHRec$[ebp+8], -1

; 70   :         {

  00036	c7 06 00 00 00
	00		 mov	 DWORD PTR [esi], OFFSET ??_7Exception@Internal@Core@Math@Palmtree@@6B@

; 71   :         }

  0003c	c7 45 fc ff ff
	ff ff		 mov	 DWORD PTR __$EHRec$[ebp+8], -1
; File c:\program files (x86)\microsoft visual studio\2017\community\vc\tools\msvc\14.16.27023\include\vcruntime_exception.h

; 86   :         __std_exception_destroy(&_Data);

  00043	8d 46 04	 lea	 eax, DWORD PTR [esi+4]
  00046	50		 push	 eax
  00047	c7 06 00 00 00
	00		 mov	 DWORD PTR [esi], OFFSET ??_7exception@std@@6B@
  0004d	e8 00 00 00 00	 call	 ___std_exception_destroy
  00052	83 c4 04	 add	 esp, 4
  00055	f6 45 08 01	 test	 BYTE PTR ___flags$[ebp], 1
  00059	74 0b		 je	 SHORT $LN12@scalar
  0005b	6a 18		 push	 24			; 00000018H
  0005d	56		 push	 esi
  0005e	e8 00 00 00 00	 call	 ??3@YAXPAXI@Z		; operator delete
  00063	83 c4 08	 add	 esp, 8
$LN12@scalar:
  00066	8b c6		 mov	 eax, esi
  00068	8b 4d f4	 mov	 ecx, DWORD PTR __$EHRec$[ebp]
  0006b	64 89 0d 00 00
	00 00		 mov	 DWORD PTR fs:0, ecx
  00072	59		 pop	 ecx
  00073	5e		 pop	 esi
  00074	8b e5		 mov	 esp, ebp
  00076	5d		 pop	 ebp
  00077	c2 04 00	 ret	 4
_TEXT	ENDS
;	COMDAT text$x
text$x	SEGMENT
__unwindfunclet$??_GNotSupportedException@Internal@Core@Math@Palmtree@@UAEPAXI@Z$0:
  00000	8b 4d f0	 mov	 ecx, DWORD PTR _this$[ebp]
  00003	e9 00 00 00 00	 jmp	 ??1Exception@Internal@Core@Math@Palmtree@@UAE@XZ ; Palmtree::Math::Core::Internal::Exception::~Exception
__unwindfunclet$??_GNotSupportedException@Internal@Core@Math@Palmtree@@UAEPAXI@Z$1:
  00008	8b 4d f0	 mov	 ecx, DWORD PTR _this$[ebp]
  0000b	e9 00 00 00 00	 jmp	 ??1exception@std@@UAE@XZ ; std::exception::~exception
__ehhandler$??_GNotSupportedException@Internal@Core@Math@Palmtree@@UAEPAXI@Z:
  00010	8b 54 24 08	 mov	 edx, DWORD PTR [esp+8]
  00014	8d 42 0c	 lea	 eax, DWORD PTR [edx+12]
  00017	8b 4a f4	 mov	 ecx, DWORD PTR [edx-12]
  0001a	33 c8		 xor	 ecx, eax
  0001c	e8 00 00 00 00	 call	 @__security_check_cookie@4
  00021	b8 00 00 00 00	 mov	 eax, OFFSET __ehfuncinfo$??_GNotSupportedException@Internal@Core@Math@Palmtree@@UAEPAXI@Z
  00026	e9 00 00 00 00	 jmp	 ___CxxFrameHandler3
text$x	ENDS
??_GNotSupportedException@Internal@Core@Math@Palmtree@@UAEPAXI@Z ENDP ; Palmtree::Math::Core::Internal::NotSupportedException::`scalar deleting destructor'
; Function compile flags: /Ogtp
; File z:\sources\lunor\repos\rougemeilland\palmtree.math.core.uint\palmtree.math.core.uint\pmc_exception.h
; File c:\program files (x86)\microsoft visual studio\2017\community\vc\tools\msvc\14.16.27023\include\vcruntime_exception.h
; File z:\sources\lunor\repos\rougemeilland\palmtree.math.core.uint\palmtree.math.core.uint\pmc_exception.h
;	COMDAT ??1NotSupportedException@Internal@Core@Math@Palmtree@@UAE@XZ
_TEXT	SEGMENT
_this$ = -16						; size = 4
__$EHRec$ = -12						; size = 12
??1NotSupportedException@Internal@Core@Math@Palmtree@@UAE@XZ PROC ; Palmtree::Math::Core::Internal::NotSupportedException::~NotSupportedException, COMDAT
; _this$ = ecx

; 276  :         {

  00000	55		 push	 ebp
  00001	8b ec		 mov	 ebp, esp
  00003	6a ff		 push	 -1
  00005	68 00 00 00 00	 push	 __ehhandler$??1NotSupportedException@Internal@Core@Math@Palmtree@@UAE@XZ
  0000a	64 a1 00 00 00
	00		 mov	 eax, DWORD PTR fs:0
  00010	50		 push	 eax
  00011	51		 push	 ecx
  00012	a1 00 00 00 00	 mov	 eax, DWORD PTR ___security_cookie
  00017	33 c5		 xor	 eax, ebp
  00019	50		 push	 eax
  0001a	8d 45 f4	 lea	 eax, DWORD PTR __$EHRec$[ebp]
  0001d	64 a3 00 00 00
	00		 mov	 DWORD PTR fs:0, eax
  00023	89 4d f0	 mov	 DWORD PTR _this$[ebp], ecx
  00026	c7 01 00 00 00
	00		 mov	 DWORD PTR [ecx], OFFSET ??_7NotSupportedException@Internal@Core@Math@Palmtree@@6B@

; 277  :         }

  0002c	c7 45 fc ff ff
	ff ff		 mov	 DWORD PTR __$EHRec$[ebp+8], -1

; 70   :         {

  00033	c7 01 00 00 00
	00		 mov	 DWORD PTR [ecx], OFFSET ??_7Exception@Internal@Core@Math@Palmtree@@6B@

; 71   :         }

  00039	c7 45 fc ff ff
	ff ff		 mov	 DWORD PTR __$EHRec$[ebp+8], -1
; File c:\program files (x86)\microsoft visual studio\2017\community\vc\tools\msvc\14.16.27023\include\vcruntime_exception.h

; 86   :         __std_exception_destroy(&_Data);

  00040	8d 41 04	 lea	 eax, DWORD PTR [ecx+4]
  00043	50		 push	 eax
  00044	c7 01 00 00 00
	00		 mov	 DWORD PTR [ecx], OFFSET ??_7exception@std@@6B@
  0004a	e8 00 00 00 00	 call	 ___std_exception_destroy
  0004f	83 c4 04	 add	 esp, 4
; File z:\sources\lunor\repos\rougemeilland\palmtree.math.core.uint\palmtree.math.core.uint\pmc_exception.h

; 277  :         }

  00052	8b 4d f4	 mov	 ecx, DWORD PTR __$EHRec$[ebp]
  00055	64 89 0d 00 00
	00 00		 mov	 DWORD PTR fs:0, ecx
  0005c	59		 pop	 ecx
  0005d	8b e5		 mov	 esp, ebp
  0005f	5d		 pop	 ebp
  00060	c3		 ret	 0
_TEXT	ENDS
;	COMDAT text$x
text$x	SEGMENT
__unwindfunclet$??1NotSupportedException@Internal@Core@Math@Palmtree@@UAE@XZ$0:
  00000	8b 4d f0	 mov	 ecx, DWORD PTR _this$[ebp]
  00003	e9 00 00 00 00	 jmp	 ??1Exception@Internal@Core@Math@Palmtree@@UAE@XZ ; Palmtree::Math::Core::Internal::Exception::~Exception
__unwindfunclet$??1NotSupportedException@Internal@Core@Math@Palmtree@@UAE@XZ$1:
  00008	8b 4d f0	 mov	 ecx, DWORD PTR _this$[ebp]
  0000b	e9 00 00 00 00	 jmp	 ??1exception@std@@UAE@XZ ; std::exception::~exception
__ehhandler$??1NotSupportedException@Internal@Core@Math@Palmtree@@UAE@XZ:
  00010	8b 54 24 08	 mov	 edx, DWORD PTR [esp+8]
  00014	8d 42 0c	 lea	 eax, DWORD PTR [edx+12]
  00017	8b 4a f8	 mov	 ecx, DWORD PTR [edx-8]
  0001a	33 c8		 xor	 ecx, eax
  0001c	e8 00 00 00 00	 call	 @__security_check_cookie@4
  00021	b8 00 00 00 00	 mov	 eax, OFFSET __ehfuncinfo$??1NotSupportedException@Internal@Core@Math@Palmtree@@UAE@XZ
  00026	e9 00 00 00 00	 jmp	 ___CxxFrameHandler3
text$x	ENDS
??1NotSupportedException@Internal@Core@Math@Palmtree@@UAE@XZ ENDP ; Palmtree::Math::Core::Internal::NotSupportedException::~NotSupportedException
; Function compile flags: /Ogtp
; File z:\sources\lunor\repos\rougemeilland\palmtree.math.core.uint\palmtree.math.core.uint\pmc_exception.h
; File c:\program files (x86)\microsoft visual studio\2017\community\vc\tools\msvc\14.16.27023\include\vcruntime_exception.h
; File z:\sources\lunor\repos\rougemeilland\palmtree.math.core.uint\palmtree.math.core.uint\pmc_exception.h
;	COMDAT ??0NotSupportedException@Internal@Core@Math@Palmtree@@QAE@ABV01234@@Z
_TEXT	SEGMENT
_this$ = -16						; size = 4
__$EHRec$ = -12						; size = 12
_p$ = 8							; size = 4
??0NotSupportedException@Internal@Core@Math@Palmtree@@QAE@ABV01234@@Z PROC ; Palmtree::Math::Core::Internal::NotSupportedException::NotSupportedException, COMDAT
; _this$ = ecx

; 272  :         {

  00000	55		 push	 ebp
  00001	8b ec		 mov	 ebp, esp
  00003	6a ff		 push	 -1
  00005	68 00 00 00 00	 push	 __ehhandler$??0NotSupportedException@Internal@Core@Math@Palmtree@@QAE@ABV01234@@Z
  0000a	64 a1 00 00 00
	00		 mov	 eax, DWORD PTR fs:0
  00010	50		 push	 eax
  00011	51		 push	 ecx
  00012	a1 00 00 00 00	 mov	 eax, DWORD PTR ___security_cookie
  00017	33 c5		 xor	 eax, ebp
  00019	50		 push	 eax
  0001a	8d 45 f4	 lea	 eax, DWORD PTR __$EHRec$[ebp]
  0001d	64 a3 00 00 00
	00		 mov	 DWORD PTR fs:0, eax
  00023	8b d1		 mov	 edx, ecx
  00025	89 55 f0	 mov	 DWORD PTR _this$[ebp], edx
  00028	0f 57 c0	 xorps	 xmm0, xmm0
; File c:\program files (x86)\microsoft visual studio\2017\community\vc\tools\msvc\14.16.27023\include\vcruntime_exception.h

; 50   :     {

  0002b	c7 02 00 00 00
	00		 mov	 DWORD PTR [edx], OFFSET ??_7exception@std@@6B@
  00031	66 0f d6 42 04	 movq	 QWORD PTR [edx+4], xmm0
; File z:\sources\lunor\repos\rougemeilland\palmtree.math.core.uint\palmtree.math.core.uint\pmc_exception.h

; 62   :         Exception(const Exception& p) noexcept(true)

  00036	c7 45 fc 00 00
	00 00		 mov	 DWORD PTR __$EHRec$[ebp+8], 0

; 63   :         {
; 64   :             _code = p._code;

  0003d	8b 4d 08	 mov	 ecx, DWORD PTR _p$[ebp]
  00040	c7 02 00 00 00
	00		 mov	 DWORD PTR [edx], OFFSET ??_7Exception@Internal@Core@Math@Palmtree@@6B@
  00046	8b 41 0c	 mov	 eax, DWORD PTR [ecx+12]
  00049	89 42 0c	 mov	 DWORD PTR [edx+12], eax

; 65   :             _message = p._message;

  0004c	8b 41 10	 mov	 eax, DWORD PTR [ecx+16]
  0004f	89 42 10	 mov	 DWORD PTR [edx+16], eax

; 66   :             _data = p._data;

  00052	8b 41 14	 mov	 eax, DWORD PTR [ecx+20]
  00055	89 42 14	 mov	 DWORD PTR [edx+20], eax

; 67   :         }
; 68   : 
; 69   :         virtual ~Exception() noexcept(true)
; 70   :         {
; 71   :         }
; 72   : 
; 73   :         PMC_STATUS_CODE GetStatusCode() const noexcept(true)
; 74   :         {
; 75   :             return (_code);
; 76   :         }
; 77   : 
; 78   :         wchar_t const* What() const noexcept(true)
; 79   :         {
; 80   :             return (_message);
; 81   :         }
; 82   : 
; 83   :         wchar_t const* Data() const noexcept(true)
; 84   :         {
; 85   :             return (_data);
; 86   :         }
; 87   : 
; 88   :     };
; 89   : 
; 90   :     class ArgumentException
; 91   :         : public Exception
; 92   :     {
; 93   :     public:
; 94   :         ArgumentException(const wchar_t* message) noexcept(true)
; 95   :             : Exception(PMC_STATUS_ARGUMENT_ERROR, message)
; 96   :         {
; 97   :         }
; 98   : 
; 99   :         ArgumentException(const ArgumentException& p) noexcept(true)
; 100  :             : Exception(p)
; 101  :         {
; 102  :         }
; 103  : 
; 104  :         virtual ~ArgumentException() noexcept(true)
; 105  :         {
; 106  :         }
; 107  :     };
; 108  : 
; 109  :     class ArgumentNullException
; 110  :         : public Exception
; 111  :     {
; 112  :     public:
; 113  :         ArgumentNullException(const wchar_t* message, const wchar_t* param_name) noexcept(true)
; 114  :             : Exception(PMC_STATUS_ARGUMENT_NULL_ERROR, message, param_name)
; 115  :         {
; 116  :         }
; 117  : 
; 118  :         ArgumentNullException(const ArgumentNullException& p) noexcept(true)
; 119  :             : Exception(p)
; 120  :         {
; 121  :         }
; 122  : 
; 123  :         virtual ~ArgumentNullException() noexcept(true)
; 124  :         {
; 125  :         }
; 126  :     };
; 127  : 
; 128  :     class ArgumentOutOfRangeException
; 129  :         : public Exception
; 130  :     {
; 131  :     public:
; 132  :         ArgumentOutOfRangeException(const wchar_t* message) noexcept(true)
; 133  :             : Exception(PMC_STATUS_ARGUMENT_OUT_OF_RANGE_ERROR, message)
; 134  :         {
; 135  :         }
; 136  : 
; 137  :         ArgumentOutOfRangeException(const ArgumentOutOfRangeException& p) noexcept(true)
; 138  :             : Exception(p)
; 139  :         {
; 140  :         }
; 141  : 
; 142  :         virtual ~ArgumentOutOfRangeException() noexcept(true)
; 143  :         {
; 144  :         }
; 145  :     };
; 146  : 
; 147  :     class OverflowException
; 148  :         : public Exception
; 149  :     {
; 150  :     public:
; 151  :         OverflowException(const wchar_t* message) noexcept(true)
; 152  :             : Exception(PMC_STATUS_OVERFLOW, message)
; 153  :         {
; 154  :         }
; 155  : 
; 156  :         OverflowException(const OverflowException& p) noexcept(true)
; 157  :             : Exception(p)
; 158  :         {
; 159  :         }
; 160  : 
; 161  :         virtual ~OverflowException() noexcept(true)
; 162  :         {
; 163  :         }
; 164  :     };
; 165  : 
; 166  :     class DivisionByZeroException
; 167  :         : public Exception
; 168  :     {
; 169  :     public:
; 170  :         DivisionByZeroException(const wchar_t* message) noexcept(true)
; 171  :             : Exception(PMC_STATUS_DIVISION_BY_ZERO, message)
; 172  :         {
; 173  :         }
; 174  : 
; 175  :         DivisionByZeroException(const DivisionByZeroException& p) noexcept(true)
; 176  :             : Exception(p)
; 177  :         {
; 178  :         }
; 179  : 
; 180  :         virtual ~DivisionByZeroException() noexcept(true)
; 181  :         {
; 182  :         }
; 183  :     };
; 184  : 
; 185  :     class ArithmeticException
; 186  :         : public Exception
; 187  :     {
; 188  :     public:
; 189  :         ArithmeticException(const wchar_t* message) noexcept(true)
; 190  :             : Exception(PMC_STATUS_ARITHMETIC_ERROR, message)
; 191  :         {
; 192  :         }
; 193  : 
; 194  :         ArithmeticException(const OverflowException& p) noexcept(true)
; 195  :             : Exception(p)
; 196  :         {
; 197  :         }
; 198  : 
; 199  :         virtual ~ArithmeticException() noexcept(true)
; 200  :         {
; 201  :         }
; 202  :     };
; 203  : 
; 204  :     class FormatException
; 205  :         : public Exception
; 206  :     {
; 207  :     public:
; 208  :         FormatException(const wchar_t* message) noexcept(true)
; 209  :             : Exception(PMC_STATUS_FORMAT_ERROR, message)
; 210  :         {
; 211  :         }
; 212  : 
; 213  :         FormatException(const FormatException& p) noexcept(true)
; 214  :             : Exception(p)
; 215  :         {
; 216  :         }
; 217  : 
; 218  :         virtual ~FormatException() noexcept(true)
; 219  :         {
; 220  :         }
; 221  :     };
; 222  : 
; 223  :     class InsufficientBufferException
; 224  :         : public Exception
; 225  :     {
; 226  :     public:
; 227  :         InsufficientBufferException(const wchar_t* message)
; 228  :             : Exception(PMC_STATUS_INSUFFICIENT_BUFFER, message)
; 229  :         {
; 230  :         }
; 231  : 
; 232  :         InsufficientBufferException(const InsufficientBufferException& p) noexcept(true)
; 233  :             : Exception(p)
; 234  :         {
; 235  :         }
; 236  : 
; 237  :         virtual ~InsufficientBufferException() noexcept(true)
; 238  :         {
; 239  :         }
; 240  :     };
; 241  : 
; 242  :     class NotEnoughMemoryException
; 243  :         : public Exception
; 244  :     {
; 245  :     public:
; 246  :         NotEnoughMemoryException(const wchar_t* message) noexcept(true)
; 247  :             : Exception(PMC_STATUS_NOT_ENOUGH_MEMORY, message)
; 248  :         {
; 249  :         }
; 250  : 
; 251  :         NotEnoughMemoryException(const NotEnoughMemoryException& p) noexcept(true)
; 252  :             : Exception(p)
; 253  :         {
; 254  :         }
; 255  : 
; 256  :         virtual ~NotEnoughMemoryException() noexcept(true)
; 257  :         {
; 258  :         }
; 259  :     };
; 260  : 
; 261  :     class NotSupportedException
; 262  :         : public Exception
; 263  :     {
; 264  :     public:
; 265  :         NotSupportedException(const wchar_t* message) noexcept(true)
; 266  :             : Exception(PMC_STATUS_NOT_SUPPORTED, message)
; 267  :         {
; 268  :         }
; 269  : 
; 270  :         NotSupportedException(const NotSupportedException& p) noexcept(true)
; 271  :             : Exception(p)

  00058	c7 45 fc 01 00
	00 00		 mov	 DWORD PTR __$EHRec$[ebp+8], 1

; 272  :         {

  0005f	c7 02 00 00 00
	00		 mov	 DWORD PTR [edx], OFFSET ??_7NotSupportedException@Internal@Core@Math@Palmtree@@6B@

; 273  :         }

  00065	c7 45 fc ff ff
	ff ff		 mov	 DWORD PTR __$EHRec$[ebp+8], -1
  0006c	8b c2		 mov	 eax, edx
  0006e	8b 4d f4	 mov	 ecx, DWORD PTR __$EHRec$[ebp]
  00071	64 89 0d 00 00
	00 00		 mov	 DWORD PTR fs:0, ecx
  00078	59		 pop	 ecx
  00079	8b e5		 mov	 esp, ebp
  0007b	5d		 pop	 ebp
  0007c	c2 04 00	 ret	 4
_TEXT	ENDS
;	COMDAT text$x
text$x	SEGMENT
__unwindfunclet$??0NotSupportedException@Internal@Core@Math@Palmtree@@QAE@ABV01234@@Z$1:
  00000	8b 4d f0	 mov	 ecx, DWORD PTR _this$[ebp]
  00003	e9 00 00 00 00	 jmp	 ??1exception@std@@UAE@XZ ; std::exception::~exception
__unwindfunclet$??0NotSupportedException@Internal@Core@Math@Palmtree@@QAE@ABV01234@@Z$0:
  00008	8b 4d f0	 mov	 ecx, DWORD PTR _this$[ebp]
  0000b	e9 00 00 00 00	 jmp	 ??1Exception@Internal@Core@Math@Palmtree@@UAE@XZ ; Palmtree::Math::Core::Internal::Exception::~Exception
__ehhandler$??0NotSupportedException@Internal@Core@Math@Palmtree@@QAE@ABV01234@@Z:
  00010	8b 54 24 08	 mov	 edx, DWORD PTR [esp+8]
  00014	8d 42 0c	 lea	 eax, DWORD PTR [edx+12]
  00017	8b 4a f8	 mov	 ecx, DWORD PTR [edx-8]
  0001a	33 c8		 xor	 ecx, eax
  0001c	e8 00 00 00 00	 call	 @__security_check_cookie@4
  00021	b8 00 00 00 00	 mov	 eax, OFFSET __ehfuncinfo$??0NotSupportedException@Internal@Core@Math@Palmtree@@QAE@ABV01234@@Z
  00026	e9 00 00 00 00	 jmp	 ___CxxFrameHandler3
text$x	ENDS
??0NotSupportedException@Internal@Core@Math@Palmtree@@QAE@ABV01234@@Z ENDP ; Palmtree::Math::Core::Internal::NotSupportedException::NotSupportedException
; Function compile flags: /Ogtp
; File z:\sources\lunor\repos\rougemeilland\palmtree.math.core.uint\palmtree.math.core.uint\pmc_exception.h
; File c:\program files (x86)\microsoft visual studio\2017\community\vc\tools\msvc\14.16.27023\include\vcruntime_exception.h
; File z:\sources\lunor\repos\rougemeilland\palmtree.math.core.uint\palmtree.math.core.uint\pmc_exception.h
;	COMDAT ??0NotSupportedException@Internal@Core@Math@Palmtree@@QAE@PB_W@Z
_TEXT	SEGMENT
_this$ = -16						; size = 4
__$EHRec$ = -12						; size = 12
_message$ = 8						; size = 4
??0NotSupportedException@Internal@Core@Math@Palmtree@@QAE@PB_W@Z PROC ; Palmtree::Math::Core::Internal::NotSupportedException::NotSupportedException, COMDAT
; _this$ = ecx

; 267  :         {

  00000	55		 push	 ebp
  00001	8b ec		 mov	 ebp, esp
  00003	6a ff		 push	 -1
  00005	68 00 00 00 00	 push	 __ehhandler$??0NotSupportedException@Internal@Core@Math@Palmtree@@QAE@PB_W@Z
  0000a	64 a1 00 00 00
	00		 mov	 eax, DWORD PTR fs:0
  00010	50		 push	 eax
  00011	51		 push	 ecx
  00012	a1 00 00 00 00	 mov	 eax, DWORD PTR ___security_cookie
  00017	33 c5		 xor	 eax, ebp
  00019	50		 push	 eax
  0001a	8d 45 f4	 lea	 eax, DWORD PTR __$EHRec$[ebp]
  0001d	64 a3 00 00 00
	00		 mov	 DWORD PTR fs:0, eax
  00023	89 4d f0	 mov	 DWORD PTR _this$[ebp], ecx
  00026	0f 57 c0	 xorps	 xmm0, xmm0
; File c:\program files (x86)\microsoft visual studio\2017\community\vc\tools\msvc\14.16.27023\include\vcruntime_exception.h

; 50   :     {

  00029	c7 01 00 00 00
	00		 mov	 DWORD PTR [ecx], OFFSET ??_7exception@std@@6B@
  0002f	66 0f d6 41 04	 movq	 QWORD PTR [ecx+4], xmm0
; File z:\sources\lunor\repos\rougemeilland\palmtree.math.core.uint\palmtree.math.core.uint\pmc_exception.h

; 47   :         Exception(PMC_STATUS_CODE code, const wchar_t* message) noexcept(true)

  00034	c7 45 fc 00 00
	00 00		 mov	 DWORD PTR __$EHRec$[ebp+8], 0

; 48   :         {
; 49   :             _code = code;
; 50   :             _message = message;

  0003b	8b 45 08	 mov	 eax, DWORD PTR _message$[ebp]
  0003e	c7 01 00 00 00
	00		 mov	 DWORD PTR [ecx], OFFSET ??_7Exception@Internal@Core@Math@Palmtree@@6B@
  00044	c7 41 0c f6 ff
	ff ff		 mov	 DWORD PTR [ecx+12], -10	; fffffff6H
  0004b	89 41 10	 mov	 DWORD PTR [ecx+16], eax

; 51   :             _data = nullptr;

  0004e	c7 41 14 00 00
	00 00		 mov	 DWORD PTR [ecx+20], 0

; 52   :         }
; 53   : 
; 54   :         Exception(PMC_STATUS_CODE code, const wchar_t* message, const wchar_t* data) noexcept(true)
; 55   :         {
; 56   :             _code = code;
; 57   :             _message = message;
; 58   :             _data = data;
; 59   :         }
; 60   : 
; 61   :     public:
; 62   :         Exception(const Exception& p) noexcept(true)
; 63   :         {
; 64   :             _code = p._code;
; 65   :             _message = p._message;
; 66   :             _data = p._data;
; 67   :         }
; 68   : 
; 69   :         virtual ~Exception() noexcept(true)
; 70   :         {
; 71   :         }
; 72   : 
; 73   :         PMC_STATUS_CODE GetStatusCode() const noexcept(true)
; 74   :         {
; 75   :             return (_code);
; 76   :         }
; 77   : 
; 78   :         wchar_t const* What() const noexcept(true)
; 79   :         {
; 80   :             return (_message);
; 81   :         }
; 82   : 
; 83   :         wchar_t const* Data() const noexcept(true)
; 84   :         {
; 85   :             return (_data);
; 86   :         }
; 87   : 
; 88   :     };
; 89   : 
; 90   :     class ArgumentException
; 91   :         : public Exception
; 92   :     {
; 93   :     public:
; 94   :         ArgumentException(const wchar_t* message) noexcept(true)
; 95   :             : Exception(PMC_STATUS_ARGUMENT_ERROR, message)
; 96   :         {
; 97   :         }
; 98   : 
; 99   :         ArgumentException(const ArgumentException& p) noexcept(true)
; 100  :             : Exception(p)
; 101  :         {
; 102  :         }
; 103  : 
; 104  :         virtual ~ArgumentException() noexcept(true)
; 105  :         {
; 106  :         }
; 107  :     };
; 108  : 
; 109  :     class ArgumentNullException
; 110  :         : public Exception
; 111  :     {
; 112  :     public:
; 113  :         ArgumentNullException(const wchar_t* message, const wchar_t* param_name) noexcept(true)
; 114  :             : Exception(PMC_STATUS_ARGUMENT_NULL_ERROR, message, param_name)
; 115  :         {
; 116  :         }
; 117  : 
; 118  :         ArgumentNullException(const ArgumentNullException& p) noexcept(true)
; 119  :             : Exception(p)
; 120  :         {
; 121  :         }
; 122  : 
; 123  :         virtual ~ArgumentNullException() noexcept(true)
; 124  :         {
; 125  :         }
; 126  :     };
; 127  : 
; 128  :     class ArgumentOutOfRangeException
; 129  :         : public Exception
; 130  :     {
; 131  :     public:
; 132  :         ArgumentOutOfRangeException(const wchar_t* message) noexcept(true)
; 133  :             : Exception(PMC_STATUS_ARGUMENT_OUT_OF_RANGE_ERROR, message)
; 134  :         {
; 135  :         }
; 136  : 
; 137  :         ArgumentOutOfRangeException(const ArgumentOutOfRangeException& p) noexcept(true)
; 138  :             : Exception(p)
; 139  :         {
; 140  :         }
; 141  : 
; 142  :         virtual ~ArgumentOutOfRangeException() noexcept(true)
; 143  :         {
; 144  :         }
; 145  :     };
; 146  : 
; 147  :     class OverflowException
; 148  :         : public Exception
; 149  :     {
; 150  :     public:
; 151  :         OverflowException(const wchar_t* message) noexcept(true)
; 152  :             : Exception(PMC_STATUS_OVERFLOW, message)
; 153  :         {
; 154  :         }
; 155  : 
; 156  :         OverflowException(const OverflowException& p) noexcept(true)
; 157  :             : Exception(p)
; 158  :         {
; 159  :         }
; 160  : 
; 161  :         virtual ~OverflowException() noexcept(true)
; 162  :         {
; 163  :         }
; 164  :     };
; 165  : 
; 166  :     class DivisionByZeroException
; 167  :         : public Exception
; 168  :     {
; 169  :     public:
; 170  :         DivisionByZeroException(const wchar_t* message) noexcept(true)
; 171  :             : Exception(PMC_STATUS_DIVISION_BY_ZERO, message)
; 172  :         {
; 173  :         }
; 174  : 
; 175  :         DivisionByZeroException(const DivisionByZeroException& p) noexcept(true)
; 176  :             : Exception(p)
; 177  :         {
; 178  :         }
; 179  : 
; 180  :         virtual ~DivisionByZeroException() noexcept(true)
; 181  :         {
; 182  :         }
; 183  :     };
; 184  : 
; 185  :     class ArithmeticException
; 186  :         : public Exception
; 187  :     {
; 188  :     public:
; 189  :         ArithmeticException(const wchar_t* message) noexcept(true)
; 190  :             : Exception(PMC_STATUS_ARITHMETIC_ERROR, message)
; 191  :         {
; 192  :         }
; 193  : 
; 194  :         ArithmeticException(const OverflowException& p) noexcept(true)
; 195  :             : Exception(p)
; 196  :         {
; 197  :         }
; 198  : 
; 199  :         virtual ~ArithmeticException() noexcept(true)
; 200  :         {
; 201  :         }
; 202  :     };
; 203  : 
; 204  :     class FormatException
; 205  :         : public Exception
; 206  :     {
; 207  :     public:
; 208  :         FormatException(const wchar_t* message) noexcept(true)
; 209  :             : Exception(PMC_STATUS_FORMAT_ERROR, message)
; 210  :         {
; 211  :         }
; 212  : 
; 213  :         FormatException(const FormatException& p) noexcept(true)
; 214  :             : Exception(p)
; 215  :         {
; 216  :         }
; 217  : 
; 218  :         virtual ~FormatException() noexcept(true)
; 219  :         {
; 220  :         }
; 221  :     };
; 222  : 
; 223  :     class InsufficientBufferException
; 224  :         : public Exception
; 225  :     {
; 226  :     public:
; 227  :         InsufficientBufferException(const wchar_t* message)
; 228  :             : Exception(PMC_STATUS_INSUFFICIENT_BUFFER, message)
; 229  :         {
; 230  :         }
; 231  : 
; 232  :         InsufficientBufferException(const InsufficientBufferException& p) noexcept(true)
; 233  :             : Exception(p)
; 234  :         {
; 235  :         }
; 236  : 
; 237  :         virtual ~InsufficientBufferException() noexcept(true)
; 238  :         {
; 239  :         }
; 240  :     };
; 241  : 
; 242  :     class NotEnoughMemoryException
; 243  :         : public Exception
; 244  :     {
; 245  :     public:
; 246  :         NotEnoughMemoryException(const wchar_t* message) noexcept(true)
; 247  :             : Exception(PMC_STATUS_NOT_ENOUGH_MEMORY, message)
; 248  :         {
; 249  :         }
; 250  : 
; 251  :         NotEnoughMemoryException(const NotEnoughMemoryException& p) noexcept(true)
; 252  :             : Exception(p)
; 253  :         {
; 254  :         }
; 255  : 
; 256  :         virtual ~NotEnoughMemoryException() noexcept(true)
; 257  :         {
; 258  :         }
; 259  :     };
; 260  : 
; 261  :     class NotSupportedException
; 262  :         : public Exception
; 263  :     {
; 264  :     public:
; 265  :         NotSupportedException(const wchar_t* message) noexcept(true)
; 266  :             : Exception(PMC_STATUS_NOT_SUPPORTED, message)

  00055	c7 45 fc 01 00
	00 00		 mov	 DWORD PTR __$EHRec$[ebp+8], 1

; 267  :         {

  0005c	c7 01 00 00 00
	00		 mov	 DWORD PTR [ecx], OFFSET ??_7NotSupportedException@Internal@Core@Math@Palmtree@@6B@

; 268  :         }

  00062	c7 45 fc ff ff
	ff ff		 mov	 DWORD PTR __$EHRec$[ebp+8], -1
  00069	8b c1		 mov	 eax, ecx
  0006b	8b 4d f4	 mov	 ecx, DWORD PTR __$EHRec$[ebp]
  0006e	64 89 0d 00 00
	00 00		 mov	 DWORD PTR fs:0, ecx
  00075	59		 pop	 ecx
  00076	8b e5		 mov	 esp, ebp
  00078	5d		 pop	 ebp
  00079	c2 04 00	 ret	 4
_TEXT	ENDS
;	COMDAT text$x
text$x	SEGMENT
__unwindfunclet$??0NotSupportedException@Internal@Core@Math@Palmtree@@QAE@PB_W@Z$1:
  00000	8b 4d f0	 mov	 ecx, DWORD PTR _this$[ebp]
  00003	e9 00 00 00 00	 jmp	 ??1exception@std@@UAE@XZ ; std::exception::~exception
__unwindfunclet$??0NotSupportedException@Internal@Core@Math@Palmtree@@QAE@PB_W@Z$0:
  00008	8b 4d f0	 mov	 ecx, DWORD PTR _this$[ebp]
  0000b	e9 00 00 00 00	 jmp	 ??1Exception@Internal@Core@Math@Palmtree@@UAE@XZ ; Palmtree::Math::Core::Internal::Exception::~Exception
__ehhandler$??0NotSupportedException@Internal@Core@Math@Palmtree@@QAE@PB_W@Z:
  00010	8b 54 24 08	 mov	 edx, DWORD PTR [esp+8]
  00014	8d 42 0c	 lea	 eax, DWORD PTR [edx+12]
  00017	8b 4a f8	 mov	 ecx, DWORD PTR [edx-8]
  0001a	33 c8		 xor	 ecx, eax
  0001c	e8 00 00 00 00	 call	 @__security_check_cookie@4
  00021	b8 00 00 00 00	 mov	 eax, OFFSET __ehfuncinfo$??0NotSupportedException@Internal@Core@Math@Palmtree@@QAE@PB_W@Z
  00026	e9 00 00 00 00	 jmp	 ___CxxFrameHandler3
text$x	ENDS
??0NotSupportedException@Internal@Core@Math@Palmtree@@QAE@PB_W@Z ENDP ; Palmtree::Math::Core::Internal::NotSupportedException::NotSupportedException
; Function compile flags: /Ogtp
; File z:\sources\lunor\repos\rougemeilland\palmtree.math.core.uint\palmtree.math.core.uint\pmc_exception.h
; File c:\program files (x86)\microsoft visual studio\2017\community\vc\tools\msvc\14.16.27023\include\vcruntime_exception.h
;	COMDAT ??_GArithmeticException@Internal@Core@Math@Palmtree@@UAEPAXI@Z
_TEXT	SEGMENT
_this$ = -16						; size = 4
__$EHRec$ = -12						; size = 12
___flags$ = 8						; size = 4
??_GArithmeticException@Internal@Core@Math@Palmtree@@UAEPAXI@Z PROC ; Palmtree::Math::Core::Internal::ArithmeticException::`scalar deleting destructor', COMDAT
; _this$ = ecx
  00000	55		 push	 ebp
  00001	8b ec		 mov	 ebp, esp
  00003	6a ff		 push	 -1
  00005	68 00 00 00 00	 push	 __ehhandler$??_GArithmeticException@Internal@Core@Math@Palmtree@@UAEPAXI@Z
  0000a	64 a1 00 00 00
	00		 mov	 eax, DWORD PTR fs:0
  00010	50		 push	 eax
  00011	51		 push	 ecx
  00012	56		 push	 esi
  00013	a1 00 00 00 00	 mov	 eax, DWORD PTR ___security_cookie
  00018	33 c5		 xor	 eax, ebp
  0001a	50		 push	 eax
  0001b	8d 45 f4	 lea	 eax, DWORD PTR __$EHRec$[ebp]
  0001e	64 a3 00 00 00
	00		 mov	 DWORD PTR fs:0, eax
  00024	8b f1		 mov	 esi, ecx
  00026	89 75 f0	 mov	 DWORD PTR _this$[ebp], esi
; File z:\sources\lunor\repos\rougemeilland\palmtree.math.core.uint\palmtree.math.core.uint\pmc_exception.h

; 200  :         {

  00029	c7 06 00 00 00
	00		 mov	 DWORD PTR [esi], OFFSET ??_7ArithmeticException@Internal@Core@Math@Palmtree@@6B@

; 201  :         }

  0002f	c7 45 fc ff ff
	ff ff		 mov	 DWORD PTR __$EHRec$[ebp+8], -1

; 70   :         {

  00036	c7 06 00 00 00
	00		 mov	 DWORD PTR [esi], OFFSET ??_7Exception@Internal@Core@Math@Palmtree@@6B@

; 71   :         }

  0003c	c7 45 fc ff ff
	ff ff		 mov	 DWORD PTR __$EHRec$[ebp+8], -1
; File c:\program files (x86)\microsoft visual studio\2017\community\vc\tools\msvc\14.16.27023\include\vcruntime_exception.h

; 86   :         __std_exception_destroy(&_Data);

  00043	8d 46 04	 lea	 eax, DWORD PTR [esi+4]
  00046	50		 push	 eax
  00047	c7 06 00 00 00
	00		 mov	 DWORD PTR [esi], OFFSET ??_7exception@std@@6B@
  0004d	e8 00 00 00 00	 call	 ___std_exception_destroy
  00052	83 c4 04	 add	 esp, 4
  00055	f6 45 08 01	 test	 BYTE PTR ___flags$[ebp], 1
  00059	74 0b		 je	 SHORT $LN12@scalar
  0005b	6a 18		 push	 24			; 00000018H
  0005d	56		 push	 esi
  0005e	e8 00 00 00 00	 call	 ??3@YAXPAXI@Z		; operator delete
  00063	83 c4 08	 add	 esp, 8
$LN12@scalar:
  00066	8b c6		 mov	 eax, esi
  00068	8b 4d f4	 mov	 ecx, DWORD PTR __$EHRec$[ebp]
  0006b	64 89 0d 00 00
	00 00		 mov	 DWORD PTR fs:0, ecx
  00072	59		 pop	 ecx
  00073	5e		 pop	 esi
  00074	8b e5		 mov	 esp, ebp
  00076	5d		 pop	 ebp
  00077	c2 04 00	 ret	 4
_TEXT	ENDS
;	COMDAT text$x
text$x	SEGMENT
__unwindfunclet$??_GArithmeticException@Internal@Core@Math@Palmtree@@UAEPAXI@Z$0:
  00000	8b 4d f0	 mov	 ecx, DWORD PTR _this$[ebp]
  00003	e9 00 00 00 00	 jmp	 ??1Exception@Internal@Core@Math@Palmtree@@UAE@XZ ; Palmtree::Math::Core::Internal::Exception::~Exception
__unwindfunclet$??_GArithmeticException@Internal@Core@Math@Palmtree@@UAEPAXI@Z$1:
  00008	8b 4d f0	 mov	 ecx, DWORD PTR _this$[ebp]
  0000b	e9 00 00 00 00	 jmp	 ??1exception@std@@UAE@XZ ; std::exception::~exception
__ehhandler$??_GArithmeticException@Internal@Core@Math@Palmtree@@UAEPAXI@Z:
  00010	8b 54 24 08	 mov	 edx, DWORD PTR [esp+8]
  00014	8d 42 0c	 lea	 eax, DWORD PTR [edx+12]
  00017	8b 4a f4	 mov	 ecx, DWORD PTR [edx-12]
  0001a	33 c8		 xor	 ecx, eax
  0001c	e8 00 00 00 00	 call	 @__security_check_cookie@4
  00021	b8 00 00 00 00	 mov	 eax, OFFSET __ehfuncinfo$??_GArithmeticException@Internal@Core@Math@Palmtree@@UAEPAXI@Z
  00026	e9 00 00 00 00	 jmp	 ___CxxFrameHandler3
text$x	ENDS
??_GArithmeticException@Internal@Core@Math@Palmtree@@UAEPAXI@Z ENDP ; Palmtree::Math::Core::Internal::ArithmeticException::`scalar deleting destructor'
; Function compile flags: /Ogtp
; File c:\program files (x86)\microsoft visual studio\2017\community\vc\tools\msvc\14.16.27023\include\vcruntime_exception.h
; File z:\sources\lunor\repos\rougemeilland\palmtree.math.core.uint\palmtree.math.core.uint\pmc_exception.h
;	COMDAT ??0ArithmeticException@Internal@Core@Math@Palmtree@@QAE@ABV01234@@Z
_TEXT	SEGMENT
_this$ = -16						; size = 4
__$EHRec$ = -12						; size = 12
___that$ = 8						; size = 4
??0ArithmeticException@Internal@Core@Math@Palmtree@@QAE@ABV01234@@Z PROC ; Palmtree::Math::Core::Internal::ArithmeticException::ArithmeticException, COMDAT
; _this$ = ecx
  00000	55		 push	 ebp
  00001	8b ec		 mov	 ebp, esp
  00003	6a ff		 push	 -1
  00005	68 00 00 00 00	 push	 __ehhandler$??0ArithmeticException@Internal@Core@Math@Palmtree@@QAE@ABV01234@@Z
  0000a	64 a1 00 00 00
	00		 mov	 eax, DWORD PTR fs:0
  00010	50		 push	 eax
  00011	51		 push	 ecx
  00012	a1 00 00 00 00	 mov	 eax, DWORD PTR ___security_cookie
  00017	33 c5		 xor	 eax, ebp
  00019	50		 push	 eax
  0001a	8d 45 f4	 lea	 eax, DWORD PTR __$EHRec$[ebp]
  0001d	64 a3 00 00 00
	00		 mov	 DWORD PTR fs:0, eax
  00023	8b d1		 mov	 edx, ecx
  00025	89 55 f0	 mov	 DWORD PTR _this$[ebp], edx
  00028	0f 57 c0	 xorps	 xmm0, xmm0
; File c:\program files (x86)\microsoft visual studio\2017\community\vc\tools\msvc\14.16.27023\include\vcruntime_exception.h

; 50   :     {

  0002b	c7 02 00 00 00
	00		 mov	 DWORD PTR [edx], OFFSET ??_7exception@std@@6B@
  00031	66 0f d6 42 04	 movq	 QWORD PTR [edx+4], xmm0
; File z:\sources\lunor\repos\rougemeilland\palmtree.math.core.uint\palmtree.math.core.uint\pmc_exception.h

; 62   :         Exception(const Exception& p) noexcept(true)

  00036	c7 45 fc 00 00
	00 00		 mov	 DWORD PTR __$EHRec$[ebp+8], 0

; 63   :         {
; 64   :             _code = p._code;

  0003d	8b 4d 08	 mov	 ecx, DWORD PTR ___that$[ebp]
  00040	c7 02 00 00 00
	00		 mov	 DWORD PTR [edx], OFFSET ??_7Exception@Internal@Core@Math@Palmtree@@6B@
  00046	8b 41 0c	 mov	 eax, DWORD PTR [ecx+12]
  00049	89 42 0c	 mov	 DWORD PTR [edx+12], eax

; 65   :             _message = p._message;

  0004c	8b 41 10	 mov	 eax, DWORD PTR [ecx+16]
  0004f	89 42 10	 mov	 DWORD PTR [edx+16], eax

; 66   :             _data = p._data;

  00052	8b 41 14	 mov	 eax, DWORD PTR [ecx+20]
  00055	89 42 14	 mov	 DWORD PTR [edx+20], eax
  00058	c7 45 fc 01 00
	00 00		 mov	 DWORD PTR __$EHRec$[ebp+8], 1
  0005f	c7 02 00 00 00
	00		 mov	 DWORD PTR [edx], OFFSET ??_7ArithmeticException@Internal@Core@Math@Palmtree@@6B@
  00065	c7 45 fc ff ff
	ff ff		 mov	 DWORD PTR __$EHRec$[ebp+8], -1
  0006c	8b c2		 mov	 eax, edx
  0006e	8b 4d f4	 mov	 ecx, DWORD PTR __$EHRec$[ebp]
  00071	64 89 0d 00 00
	00 00		 mov	 DWORD PTR fs:0, ecx
  00078	59		 pop	 ecx
  00079	8b e5		 mov	 esp, ebp
  0007b	5d		 pop	 ebp
  0007c	c2 04 00	 ret	 4
_TEXT	ENDS
;	COMDAT text$x
text$x	SEGMENT
__unwindfunclet$??0ArithmeticException@Internal@Core@Math@Palmtree@@QAE@ABV01234@@Z$1:
  00000	8b 4d f0	 mov	 ecx, DWORD PTR _this$[ebp]
  00003	e9 00 00 00 00	 jmp	 ??1exception@std@@UAE@XZ ; std::exception::~exception
__unwindfunclet$??0ArithmeticException@Internal@Core@Math@Palmtree@@QAE@ABV01234@@Z$0:
  00008	8b 4d f0	 mov	 ecx, DWORD PTR _this$[ebp]
  0000b	e9 00 00 00 00	 jmp	 ??1Exception@Internal@Core@Math@Palmtree@@UAE@XZ ; Palmtree::Math::Core::Internal::Exception::~Exception
__ehhandler$??0ArithmeticException@Internal@Core@Math@Palmtree@@QAE@ABV01234@@Z:
  00010	8b 54 24 08	 mov	 edx, DWORD PTR [esp+8]
  00014	8d 42 0c	 lea	 eax, DWORD PTR [edx+12]
  00017	8b 4a f8	 mov	 ecx, DWORD PTR [edx-8]
  0001a	33 c8		 xor	 ecx, eax
  0001c	e8 00 00 00 00	 call	 @__security_check_cookie@4
  00021	b8 00 00 00 00	 mov	 eax, OFFSET __ehfuncinfo$??0ArithmeticException@Internal@Core@Math@Palmtree@@QAE@ABV01234@@Z
  00026	e9 00 00 00 00	 jmp	 ___CxxFrameHandler3
text$x	ENDS
??0ArithmeticException@Internal@Core@Math@Palmtree@@QAE@ABV01234@@Z ENDP ; Palmtree::Math::Core::Internal::ArithmeticException::ArithmeticException
; Function compile flags: /Ogtp
; File z:\sources\lunor\repos\rougemeilland\palmtree.math.core.uint\palmtree.math.core.uint\pmc_exception.h
; File c:\program files (x86)\microsoft visual studio\2017\community\vc\tools\msvc\14.16.27023\include\vcruntime_exception.h
; File z:\sources\lunor\repos\rougemeilland\palmtree.math.core.uint\palmtree.math.core.uint\pmc_exception.h
;	COMDAT ??1ArithmeticException@Internal@Core@Math@Palmtree@@UAE@XZ
_TEXT	SEGMENT
_this$ = -16						; size = 4
__$EHRec$ = -12						; size = 12
??1ArithmeticException@Internal@Core@Math@Palmtree@@UAE@XZ PROC ; Palmtree::Math::Core::Internal::ArithmeticException::~ArithmeticException, COMDAT
; _this$ = ecx

; 200  :         {

  00000	55		 push	 ebp
  00001	8b ec		 mov	 ebp, esp
  00003	6a ff		 push	 -1
  00005	68 00 00 00 00	 push	 __ehhandler$??1ArithmeticException@Internal@Core@Math@Palmtree@@UAE@XZ
  0000a	64 a1 00 00 00
	00		 mov	 eax, DWORD PTR fs:0
  00010	50		 push	 eax
  00011	51		 push	 ecx
  00012	a1 00 00 00 00	 mov	 eax, DWORD PTR ___security_cookie
  00017	33 c5		 xor	 eax, ebp
  00019	50		 push	 eax
  0001a	8d 45 f4	 lea	 eax, DWORD PTR __$EHRec$[ebp]
  0001d	64 a3 00 00 00
	00		 mov	 DWORD PTR fs:0, eax
  00023	89 4d f0	 mov	 DWORD PTR _this$[ebp], ecx
  00026	c7 01 00 00 00
	00		 mov	 DWORD PTR [ecx], OFFSET ??_7ArithmeticException@Internal@Core@Math@Palmtree@@6B@

; 201  :         }

  0002c	c7 45 fc ff ff
	ff ff		 mov	 DWORD PTR __$EHRec$[ebp+8], -1

; 70   :         {

  00033	c7 01 00 00 00
	00		 mov	 DWORD PTR [ecx], OFFSET ??_7Exception@Internal@Core@Math@Palmtree@@6B@

; 71   :         }

  00039	c7 45 fc ff ff
	ff ff		 mov	 DWORD PTR __$EHRec$[ebp+8], -1
; File c:\program files (x86)\microsoft visual studio\2017\community\vc\tools\msvc\14.16.27023\include\vcruntime_exception.h

; 86   :         __std_exception_destroy(&_Data);

  00040	8d 41 04	 lea	 eax, DWORD PTR [ecx+4]
  00043	50		 push	 eax
  00044	c7 01 00 00 00
	00		 mov	 DWORD PTR [ecx], OFFSET ??_7exception@std@@6B@
  0004a	e8 00 00 00 00	 call	 ___std_exception_destroy
  0004f	83 c4 04	 add	 esp, 4
; File z:\sources\lunor\repos\rougemeilland\palmtree.math.core.uint\palmtree.math.core.uint\pmc_exception.h

; 201  :         }

  00052	8b 4d f4	 mov	 ecx, DWORD PTR __$EHRec$[ebp]
  00055	64 89 0d 00 00
	00 00		 mov	 DWORD PTR fs:0, ecx
  0005c	59		 pop	 ecx
  0005d	8b e5		 mov	 esp, ebp
  0005f	5d		 pop	 ebp
  00060	c3		 ret	 0
_TEXT	ENDS
;	COMDAT text$x
text$x	SEGMENT
__unwindfunclet$??1ArithmeticException@Internal@Core@Math@Palmtree@@UAE@XZ$0:
  00000	8b 4d f0	 mov	 ecx, DWORD PTR _this$[ebp]
  00003	e9 00 00 00 00	 jmp	 ??1Exception@Internal@Core@Math@Palmtree@@UAE@XZ ; Palmtree::Math::Core::Internal::Exception::~Exception
__unwindfunclet$??1ArithmeticException@Internal@Core@Math@Palmtree@@UAE@XZ$1:
  00008	8b 4d f0	 mov	 ecx, DWORD PTR _this$[ebp]
  0000b	e9 00 00 00 00	 jmp	 ??1exception@std@@UAE@XZ ; std::exception::~exception
__ehhandler$??1ArithmeticException@Internal@Core@Math@Palmtree@@UAE@XZ:
  00010	8b 54 24 08	 mov	 edx, DWORD PTR [esp+8]
  00014	8d 42 0c	 lea	 eax, DWORD PTR [edx+12]
  00017	8b 4a f8	 mov	 ecx, DWORD PTR [edx-8]
  0001a	33 c8		 xor	 ecx, eax
  0001c	e8 00 00 00 00	 call	 @__security_check_cookie@4
  00021	b8 00 00 00 00	 mov	 eax, OFFSET __ehfuncinfo$??1ArithmeticException@Internal@Core@Math@Palmtree@@UAE@XZ
  00026	e9 00 00 00 00	 jmp	 ___CxxFrameHandler3
text$x	ENDS
??1ArithmeticException@Internal@Core@Math@Palmtree@@UAE@XZ ENDP ; Palmtree::Math::Core::Internal::ArithmeticException::~ArithmeticException
; Function compile flags: /Ogtp
; File z:\sources\lunor\repos\rougemeilland\palmtree.math.core.uint\palmtree.math.core.uint\pmc_exception.h
; File c:\program files (x86)\microsoft visual studio\2017\community\vc\tools\msvc\14.16.27023\include\vcruntime_exception.h
; File z:\sources\lunor\repos\rougemeilland\palmtree.math.core.uint\palmtree.math.core.uint\pmc_exception.h
;	COMDAT ??0ArithmeticException@Internal@Core@Math@Palmtree@@QAE@PB_W@Z
_TEXT	SEGMENT
_this$ = -16						; size = 4
__$EHRec$ = -12						; size = 12
_message$ = 8						; size = 4
??0ArithmeticException@Internal@Core@Math@Palmtree@@QAE@PB_W@Z PROC ; Palmtree::Math::Core::Internal::ArithmeticException::ArithmeticException, COMDAT
; _this$ = ecx

; 191  :         {

  00000	55		 push	 ebp
  00001	8b ec		 mov	 ebp, esp
  00003	6a ff		 push	 -1
  00005	68 00 00 00 00	 push	 __ehhandler$??0ArithmeticException@Internal@Core@Math@Palmtree@@QAE@PB_W@Z
  0000a	64 a1 00 00 00
	00		 mov	 eax, DWORD PTR fs:0
  00010	50		 push	 eax
  00011	51		 push	 ecx
  00012	a1 00 00 00 00	 mov	 eax, DWORD PTR ___security_cookie
  00017	33 c5		 xor	 eax, ebp
  00019	50		 push	 eax
  0001a	8d 45 f4	 lea	 eax, DWORD PTR __$EHRec$[ebp]
  0001d	64 a3 00 00 00
	00		 mov	 DWORD PTR fs:0, eax
  00023	89 4d f0	 mov	 DWORD PTR _this$[ebp], ecx
  00026	0f 57 c0	 xorps	 xmm0, xmm0
; File c:\program files (x86)\microsoft visual studio\2017\community\vc\tools\msvc\14.16.27023\include\vcruntime_exception.h

; 50   :     {

  00029	c7 01 00 00 00
	00		 mov	 DWORD PTR [ecx], OFFSET ??_7exception@std@@6B@
  0002f	66 0f d6 41 04	 movq	 QWORD PTR [ecx+4], xmm0
; File z:\sources\lunor\repos\rougemeilland\palmtree.math.core.uint\palmtree.math.core.uint\pmc_exception.h

; 47   :         Exception(PMC_STATUS_CODE code, const wchar_t* message) noexcept(true)

  00034	c7 45 fc 00 00
	00 00		 mov	 DWORD PTR __$EHRec$[ebp+8], 0

; 48   :         {
; 49   :             _code = code;
; 50   :             _message = message;

  0003b	8b 45 08	 mov	 eax, DWORD PTR _message$[ebp]
  0003e	c7 01 00 00 00
	00		 mov	 DWORD PTR [ecx], OFFSET ??_7Exception@Internal@Core@Math@Palmtree@@6B@
  00044	c7 41 0c fa ff
	ff ff		 mov	 DWORD PTR [ecx+12], -6	; fffffffaH
  0004b	89 41 10	 mov	 DWORD PTR [ecx+16], eax

; 51   :             _data = nullptr;

  0004e	c7 41 14 00 00
	00 00		 mov	 DWORD PTR [ecx+20], 0

; 52   :         }
; 53   : 
; 54   :         Exception(PMC_STATUS_CODE code, const wchar_t* message, const wchar_t* data) noexcept(true)
; 55   :         {
; 56   :             _code = code;
; 57   :             _message = message;
; 58   :             _data = data;
; 59   :         }
; 60   : 
; 61   :     public:
; 62   :         Exception(const Exception& p) noexcept(true)
; 63   :         {
; 64   :             _code = p._code;
; 65   :             _message = p._message;
; 66   :             _data = p._data;
; 67   :         }
; 68   : 
; 69   :         virtual ~Exception() noexcept(true)
; 70   :         {
; 71   :         }
; 72   : 
; 73   :         PMC_STATUS_CODE GetStatusCode() const noexcept(true)
; 74   :         {
; 75   :             return (_code);
; 76   :         }
; 77   : 
; 78   :         wchar_t const* What() const noexcept(true)
; 79   :         {
; 80   :             return (_message);
; 81   :         }
; 82   : 
; 83   :         wchar_t const* Data() const noexcept(true)
; 84   :         {
; 85   :             return (_data);
; 86   :         }
; 87   : 
; 88   :     };
; 89   : 
; 90   :     class ArgumentException
; 91   :         : public Exception
; 92   :     {
; 93   :     public:
; 94   :         ArgumentException(const wchar_t* message) noexcept(true)
; 95   :             : Exception(PMC_STATUS_ARGUMENT_ERROR, message)
; 96   :         {
; 97   :         }
; 98   : 
; 99   :         ArgumentException(const ArgumentException& p) noexcept(true)
; 100  :             : Exception(p)
; 101  :         {
; 102  :         }
; 103  : 
; 104  :         virtual ~ArgumentException() noexcept(true)
; 105  :         {
; 106  :         }
; 107  :     };
; 108  : 
; 109  :     class ArgumentNullException
; 110  :         : public Exception
; 111  :     {
; 112  :     public:
; 113  :         ArgumentNullException(const wchar_t* message, const wchar_t* param_name) noexcept(true)
; 114  :             : Exception(PMC_STATUS_ARGUMENT_NULL_ERROR, message, param_name)
; 115  :         {
; 116  :         }
; 117  : 
; 118  :         ArgumentNullException(const ArgumentNullException& p) noexcept(true)
; 119  :             : Exception(p)
; 120  :         {
; 121  :         }
; 122  : 
; 123  :         virtual ~ArgumentNullException() noexcept(true)
; 124  :         {
; 125  :         }
; 126  :     };
; 127  : 
; 128  :     class ArgumentOutOfRangeException
; 129  :         : public Exception
; 130  :     {
; 131  :     public:
; 132  :         ArgumentOutOfRangeException(const wchar_t* message) noexcept(true)
; 133  :             : Exception(PMC_STATUS_ARGUMENT_OUT_OF_RANGE_ERROR, message)
; 134  :         {
; 135  :         }
; 136  : 
; 137  :         ArgumentOutOfRangeException(const ArgumentOutOfRangeException& p) noexcept(true)
; 138  :             : Exception(p)
; 139  :         {
; 140  :         }
; 141  : 
; 142  :         virtual ~ArgumentOutOfRangeException() noexcept(true)
; 143  :         {
; 144  :         }
; 145  :     };
; 146  : 
; 147  :     class OverflowException
; 148  :         : public Exception
; 149  :     {
; 150  :     public:
; 151  :         OverflowException(const wchar_t* message) noexcept(true)
; 152  :             : Exception(PMC_STATUS_OVERFLOW, message)
; 153  :         {
; 154  :         }
; 155  : 
; 156  :         OverflowException(const OverflowException& p) noexcept(true)
; 157  :             : Exception(p)
; 158  :         {
; 159  :         }
; 160  : 
; 161  :         virtual ~OverflowException() noexcept(true)
; 162  :         {
; 163  :         }
; 164  :     };
; 165  : 
; 166  :     class DivisionByZeroException
; 167  :         : public Exception
; 168  :     {
; 169  :     public:
; 170  :         DivisionByZeroException(const wchar_t* message) noexcept(true)
; 171  :             : Exception(PMC_STATUS_DIVISION_BY_ZERO, message)
; 172  :         {
; 173  :         }
; 174  : 
; 175  :         DivisionByZeroException(const DivisionByZeroException& p) noexcept(true)
; 176  :             : Exception(p)
; 177  :         {
; 178  :         }
; 179  : 
; 180  :         virtual ~DivisionByZeroException() noexcept(true)
; 181  :         {
; 182  :         }
; 183  :     };
; 184  : 
; 185  :     class ArithmeticException
; 186  :         : public Exception
; 187  :     {
; 188  :     public:
; 189  :         ArithmeticException(const wchar_t* message) noexcept(true)
; 190  :             : Exception(PMC_STATUS_ARITHMETIC_ERROR, message)

  00055	c7 45 fc 01 00
	00 00		 mov	 DWORD PTR __$EHRec$[ebp+8], 1

; 191  :         {

  0005c	c7 01 00 00 00
	00		 mov	 DWORD PTR [ecx], OFFSET ??_7ArithmeticException@Internal@Core@Math@Palmtree@@6B@

; 192  :         }

  00062	c7 45 fc ff ff
	ff ff		 mov	 DWORD PTR __$EHRec$[ebp+8], -1
  00069	8b c1		 mov	 eax, ecx
  0006b	8b 4d f4	 mov	 ecx, DWORD PTR __$EHRec$[ebp]
  0006e	64 89 0d 00 00
	00 00		 mov	 DWORD PTR fs:0, ecx
  00075	59		 pop	 ecx
  00076	8b e5		 mov	 esp, ebp
  00078	5d		 pop	 ebp
  00079	c2 04 00	 ret	 4
_TEXT	ENDS
;	COMDAT text$x
text$x	SEGMENT
__unwindfunclet$??0ArithmeticException@Internal@Core@Math@Palmtree@@QAE@PB_W@Z$1:
  00000	8b 4d f0	 mov	 ecx, DWORD PTR _this$[ebp]
  00003	e9 00 00 00 00	 jmp	 ??1exception@std@@UAE@XZ ; std::exception::~exception
__unwindfunclet$??0ArithmeticException@Internal@Core@Math@Palmtree@@QAE@PB_W@Z$0:
  00008	8b 4d f0	 mov	 ecx, DWORD PTR _this$[ebp]
  0000b	e9 00 00 00 00	 jmp	 ??1Exception@Internal@Core@Math@Palmtree@@UAE@XZ ; Palmtree::Math::Core::Internal::Exception::~Exception
__ehhandler$??0ArithmeticException@Internal@Core@Math@Palmtree@@QAE@PB_W@Z:
  00010	8b 54 24 08	 mov	 edx, DWORD PTR [esp+8]
  00014	8d 42 0c	 lea	 eax, DWORD PTR [edx+12]
  00017	8b 4a f8	 mov	 ecx, DWORD PTR [edx-8]
  0001a	33 c8		 xor	 ecx, eax
  0001c	e8 00 00 00 00	 call	 @__security_check_cookie@4
  00021	b8 00 00 00 00	 mov	 eax, OFFSET __ehfuncinfo$??0ArithmeticException@Internal@Core@Math@Palmtree@@QAE@PB_W@Z
  00026	e9 00 00 00 00	 jmp	 ___CxxFrameHandler3
text$x	ENDS
??0ArithmeticException@Internal@Core@Math@Palmtree@@QAE@PB_W@Z ENDP ; Palmtree::Math::Core::Internal::ArithmeticException::ArithmeticException
; Function compile flags: /Ogtp
; File z:\sources\lunor\repos\rougemeilland\palmtree.math.core.uint\palmtree.math.core.uint\pmc_exception.h
; File c:\program files (x86)\microsoft visual studio\2017\community\vc\tools\msvc\14.16.27023\include\vcruntime_exception.h
;	COMDAT ??_GOverflowException@Internal@Core@Math@Palmtree@@UAEPAXI@Z
_TEXT	SEGMENT
_this$ = -16						; size = 4
__$EHRec$ = -12						; size = 12
___flags$ = 8						; size = 4
??_GOverflowException@Internal@Core@Math@Palmtree@@UAEPAXI@Z PROC ; Palmtree::Math::Core::Internal::OverflowException::`scalar deleting destructor', COMDAT
; _this$ = ecx
  00000	55		 push	 ebp
  00001	8b ec		 mov	 ebp, esp
  00003	6a ff		 push	 -1
  00005	68 00 00 00 00	 push	 __ehhandler$??_GOverflowException@Internal@Core@Math@Palmtree@@UAEPAXI@Z
  0000a	64 a1 00 00 00
	00		 mov	 eax, DWORD PTR fs:0
  00010	50		 push	 eax
  00011	51		 push	 ecx
  00012	56		 push	 esi
  00013	a1 00 00 00 00	 mov	 eax, DWORD PTR ___security_cookie
  00018	33 c5		 xor	 eax, ebp
  0001a	50		 push	 eax
  0001b	8d 45 f4	 lea	 eax, DWORD PTR __$EHRec$[ebp]
  0001e	64 a3 00 00 00
	00		 mov	 DWORD PTR fs:0, eax
  00024	8b f1		 mov	 esi, ecx
  00026	89 75 f0	 mov	 DWORD PTR _this$[ebp], esi
; File z:\sources\lunor\repos\rougemeilland\palmtree.math.core.uint\palmtree.math.core.uint\pmc_exception.h

; 162  :         {

  00029	c7 06 00 00 00
	00		 mov	 DWORD PTR [esi], OFFSET ??_7OverflowException@Internal@Core@Math@Palmtree@@6B@

; 163  :         }

  0002f	c7 45 fc ff ff
	ff ff		 mov	 DWORD PTR __$EHRec$[ebp+8], -1

; 70   :         {

  00036	c7 06 00 00 00
	00		 mov	 DWORD PTR [esi], OFFSET ??_7Exception@Internal@Core@Math@Palmtree@@6B@

; 71   :         }

  0003c	c7 45 fc ff ff
	ff ff		 mov	 DWORD PTR __$EHRec$[ebp+8], -1
; File c:\program files (x86)\microsoft visual studio\2017\community\vc\tools\msvc\14.16.27023\include\vcruntime_exception.h

; 86   :         __std_exception_destroy(&_Data);

  00043	8d 46 04	 lea	 eax, DWORD PTR [esi+4]
  00046	50		 push	 eax
  00047	c7 06 00 00 00
	00		 mov	 DWORD PTR [esi], OFFSET ??_7exception@std@@6B@
  0004d	e8 00 00 00 00	 call	 ___std_exception_destroy
  00052	83 c4 04	 add	 esp, 4
  00055	f6 45 08 01	 test	 BYTE PTR ___flags$[ebp], 1
  00059	74 0b		 je	 SHORT $LN12@scalar
  0005b	6a 18		 push	 24			; 00000018H
  0005d	56		 push	 esi
  0005e	e8 00 00 00 00	 call	 ??3@YAXPAXI@Z		; operator delete
  00063	83 c4 08	 add	 esp, 8
$LN12@scalar:
  00066	8b c6		 mov	 eax, esi
  00068	8b 4d f4	 mov	 ecx, DWORD PTR __$EHRec$[ebp]
  0006b	64 89 0d 00 00
	00 00		 mov	 DWORD PTR fs:0, ecx
  00072	59		 pop	 ecx
  00073	5e		 pop	 esi
  00074	8b e5		 mov	 esp, ebp
  00076	5d		 pop	 ebp
  00077	c2 04 00	 ret	 4
_TEXT	ENDS
;	COMDAT text$x
text$x	SEGMENT
__unwindfunclet$??_GOverflowException@Internal@Core@Math@Palmtree@@UAEPAXI@Z$0:
  00000	8b 4d f0	 mov	 ecx, DWORD PTR _this$[ebp]
  00003	e9 00 00 00 00	 jmp	 ??1Exception@Internal@Core@Math@Palmtree@@UAE@XZ ; Palmtree::Math::Core::Internal::Exception::~Exception
__unwindfunclet$??_GOverflowException@Internal@Core@Math@Palmtree@@UAEPAXI@Z$1:
  00008	8b 4d f0	 mov	 ecx, DWORD PTR _this$[ebp]
  0000b	e9 00 00 00 00	 jmp	 ??1exception@std@@UAE@XZ ; std::exception::~exception
__ehhandler$??_GOverflowException@Internal@Core@Math@Palmtree@@UAEPAXI@Z:
  00010	8b 54 24 08	 mov	 edx, DWORD PTR [esp+8]
  00014	8d 42 0c	 lea	 eax, DWORD PTR [edx+12]
  00017	8b 4a f4	 mov	 ecx, DWORD PTR [edx-12]
  0001a	33 c8		 xor	 ecx, eax
  0001c	e8 00 00 00 00	 call	 @__security_check_cookie@4
  00021	b8 00 00 00 00	 mov	 eax, OFFSET __ehfuncinfo$??_GOverflowException@Internal@Core@Math@Palmtree@@UAEPAXI@Z
  00026	e9 00 00 00 00	 jmp	 ___CxxFrameHandler3
text$x	ENDS
??_GOverflowException@Internal@Core@Math@Palmtree@@UAEPAXI@Z ENDP ; Palmtree::Math::Core::Internal::OverflowException::`scalar deleting destructor'
; Function compile flags: /Ogtp
; File z:\sources\lunor\repos\rougemeilland\palmtree.math.core.uint\palmtree.math.core.uint\pmc_exception.h
; File c:\program files (x86)\microsoft visual studio\2017\community\vc\tools\msvc\14.16.27023\include\vcruntime_exception.h
; File z:\sources\lunor\repos\rougemeilland\palmtree.math.core.uint\palmtree.math.core.uint\pmc_exception.h
;	COMDAT ??1OverflowException@Internal@Core@Math@Palmtree@@UAE@XZ
_TEXT	SEGMENT
_this$ = -16						; size = 4
__$EHRec$ = -12						; size = 12
??1OverflowException@Internal@Core@Math@Palmtree@@UAE@XZ PROC ; Palmtree::Math::Core::Internal::OverflowException::~OverflowException, COMDAT
; _this$ = ecx

; 162  :         {

  00000	55		 push	 ebp
  00001	8b ec		 mov	 ebp, esp
  00003	6a ff		 push	 -1
  00005	68 00 00 00 00	 push	 __ehhandler$??1OverflowException@Internal@Core@Math@Palmtree@@UAE@XZ
  0000a	64 a1 00 00 00
	00		 mov	 eax, DWORD PTR fs:0
  00010	50		 push	 eax
  00011	51		 push	 ecx
  00012	a1 00 00 00 00	 mov	 eax, DWORD PTR ___security_cookie
  00017	33 c5		 xor	 eax, ebp
  00019	50		 push	 eax
  0001a	8d 45 f4	 lea	 eax, DWORD PTR __$EHRec$[ebp]
  0001d	64 a3 00 00 00
	00		 mov	 DWORD PTR fs:0, eax
  00023	89 4d f0	 mov	 DWORD PTR _this$[ebp], ecx
  00026	c7 01 00 00 00
	00		 mov	 DWORD PTR [ecx], OFFSET ??_7OverflowException@Internal@Core@Math@Palmtree@@6B@

; 163  :         }

  0002c	c7 45 fc ff ff
	ff ff		 mov	 DWORD PTR __$EHRec$[ebp+8], -1

; 70   :         {

  00033	c7 01 00 00 00
	00		 mov	 DWORD PTR [ecx], OFFSET ??_7Exception@Internal@Core@Math@Palmtree@@6B@

; 71   :         }

  00039	c7 45 fc ff ff
	ff ff		 mov	 DWORD PTR __$EHRec$[ebp+8], -1
; File c:\program files (x86)\microsoft visual studio\2017\community\vc\tools\msvc\14.16.27023\include\vcruntime_exception.h

; 86   :         __std_exception_destroy(&_Data);

  00040	8d 41 04	 lea	 eax, DWORD PTR [ecx+4]
  00043	50		 push	 eax
  00044	c7 01 00 00 00
	00		 mov	 DWORD PTR [ecx], OFFSET ??_7exception@std@@6B@
  0004a	e8 00 00 00 00	 call	 ___std_exception_destroy
  0004f	83 c4 04	 add	 esp, 4
; File z:\sources\lunor\repos\rougemeilland\palmtree.math.core.uint\palmtree.math.core.uint\pmc_exception.h

; 163  :         }

  00052	8b 4d f4	 mov	 ecx, DWORD PTR __$EHRec$[ebp]
  00055	64 89 0d 00 00
	00 00		 mov	 DWORD PTR fs:0, ecx
  0005c	59		 pop	 ecx
  0005d	8b e5		 mov	 esp, ebp
  0005f	5d		 pop	 ebp
  00060	c3		 ret	 0
_TEXT	ENDS
;	COMDAT text$x
text$x	SEGMENT
__unwindfunclet$??1OverflowException@Internal@Core@Math@Palmtree@@UAE@XZ$0:
  00000	8b 4d f0	 mov	 ecx, DWORD PTR _this$[ebp]
  00003	e9 00 00 00 00	 jmp	 ??1Exception@Internal@Core@Math@Palmtree@@UAE@XZ ; Palmtree::Math::Core::Internal::Exception::~Exception
__unwindfunclet$??1OverflowException@Internal@Core@Math@Palmtree@@UAE@XZ$1:
  00008	8b 4d f0	 mov	 ecx, DWORD PTR _this$[ebp]
  0000b	e9 00 00 00 00	 jmp	 ??1exception@std@@UAE@XZ ; std::exception::~exception
__ehhandler$??1OverflowException@Internal@Core@Math@Palmtree@@UAE@XZ:
  00010	8b 54 24 08	 mov	 edx, DWORD PTR [esp+8]
  00014	8d 42 0c	 lea	 eax, DWORD PTR [edx+12]
  00017	8b 4a f8	 mov	 ecx, DWORD PTR [edx-8]
  0001a	33 c8		 xor	 ecx, eax
  0001c	e8 00 00 00 00	 call	 @__security_check_cookie@4
  00021	b8 00 00 00 00	 mov	 eax, OFFSET __ehfuncinfo$??1OverflowException@Internal@Core@Math@Palmtree@@UAE@XZ
  00026	e9 00 00 00 00	 jmp	 ___CxxFrameHandler3
text$x	ENDS
??1OverflowException@Internal@Core@Math@Palmtree@@UAE@XZ ENDP ; Palmtree::Math::Core::Internal::OverflowException::~OverflowException
; Function compile flags: /Ogtp
; File z:\sources\lunor\repos\rougemeilland\palmtree.math.core.uint\palmtree.math.core.uint\pmc_exception.h
; File c:\program files (x86)\microsoft visual studio\2017\community\vc\tools\msvc\14.16.27023\include\vcruntime_exception.h
; File z:\sources\lunor\repos\rougemeilland\palmtree.math.core.uint\palmtree.math.core.uint\pmc_exception.h
;	COMDAT ??0OverflowException@Internal@Core@Math@Palmtree@@QAE@ABV01234@@Z
_TEXT	SEGMENT
_this$ = -16						; size = 4
__$EHRec$ = -12						; size = 12
_p$ = 8							; size = 4
??0OverflowException@Internal@Core@Math@Palmtree@@QAE@ABV01234@@Z PROC ; Palmtree::Math::Core::Internal::OverflowException::OverflowException, COMDAT
; _this$ = ecx

; 158  :         {

  00000	55		 push	 ebp
  00001	8b ec		 mov	 ebp, esp
  00003	6a ff		 push	 -1
  00005	68 00 00 00 00	 push	 __ehhandler$??0OverflowException@Internal@Core@Math@Palmtree@@QAE@ABV01234@@Z
  0000a	64 a1 00 00 00
	00		 mov	 eax, DWORD PTR fs:0
  00010	50		 push	 eax
  00011	51		 push	 ecx
  00012	a1 00 00 00 00	 mov	 eax, DWORD PTR ___security_cookie
  00017	33 c5		 xor	 eax, ebp
  00019	50		 push	 eax
  0001a	8d 45 f4	 lea	 eax, DWORD PTR __$EHRec$[ebp]
  0001d	64 a3 00 00 00
	00		 mov	 DWORD PTR fs:0, eax
  00023	8b d1		 mov	 edx, ecx
  00025	89 55 f0	 mov	 DWORD PTR _this$[ebp], edx
  00028	0f 57 c0	 xorps	 xmm0, xmm0
; File c:\program files (x86)\microsoft visual studio\2017\community\vc\tools\msvc\14.16.27023\include\vcruntime_exception.h

; 50   :     {

  0002b	c7 02 00 00 00
	00		 mov	 DWORD PTR [edx], OFFSET ??_7exception@std@@6B@
  00031	66 0f d6 42 04	 movq	 QWORD PTR [edx+4], xmm0
; File z:\sources\lunor\repos\rougemeilland\palmtree.math.core.uint\palmtree.math.core.uint\pmc_exception.h

; 62   :         Exception(const Exception& p) noexcept(true)

  00036	c7 45 fc 00 00
	00 00		 mov	 DWORD PTR __$EHRec$[ebp+8], 0

; 63   :         {
; 64   :             _code = p._code;

  0003d	8b 4d 08	 mov	 ecx, DWORD PTR _p$[ebp]
  00040	c7 02 00 00 00
	00		 mov	 DWORD PTR [edx], OFFSET ??_7Exception@Internal@Core@Math@Palmtree@@6B@
  00046	8b 41 0c	 mov	 eax, DWORD PTR [ecx+12]
  00049	89 42 0c	 mov	 DWORD PTR [edx+12], eax

; 65   :             _message = p._message;

  0004c	8b 41 10	 mov	 eax, DWORD PTR [ecx+16]
  0004f	89 42 10	 mov	 DWORD PTR [edx+16], eax

; 66   :             _data = p._data;

  00052	8b 41 14	 mov	 eax, DWORD PTR [ecx+20]
  00055	89 42 14	 mov	 DWORD PTR [edx+20], eax

; 67   :         }
; 68   : 
; 69   :         virtual ~Exception() noexcept(true)
; 70   :         {
; 71   :         }
; 72   : 
; 73   :         PMC_STATUS_CODE GetStatusCode() const noexcept(true)
; 74   :         {
; 75   :             return (_code);
; 76   :         }
; 77   : 
; 78   :         wchar_t const* What() const noexcept(true)
; 79   :         {
; 80   :             return (_message);
; 81   :         }
; 82   : 
; 83   :         wchar_t const* Data() const noexcept(true)
; 84   :         {
; 85   :             return (_data);
; 86   :         }
; 87   : 
; 88   :     };
; 89   : 
; 90   :     class ArgumentException
; 91   :         : public Exception
; 92   :     {
; 93   :     public:
; 94   :         ArgumentException(const wchar_t* message) noexcept(true)
; 95   :             : Exception(PMC_STATUS_ARGUMENT_ERROR, message)
; 96   :         {
; 97   :         }
; 98   : 
; 99   :         ArgumentException(const ArgumentException& p) noexcept(true)
; 100  :             : Exception(p)
; 101  :         {
; 102  :         }
; 103  : 
; 104  :         virtual ~ArgumentException() noexcept(true)
; 105  :         {
; 106  :         }
; 107  :     };
; 108  : 
; 109  :     class ArgumentNullException
; 110  :         : public Exception
; 111  :     {
; 112  :     public:
; 113  :         ArgumentNullException(const wchar_t* message, const wchar_t* param_name) noexcept(true)
; 114  :             : Exception(PMC_STATUS_ARGUMENT_NULL_ERROR, message, param_name)
; 115  :         {
; 116  :         }
; 117  : 
; 118  :         ArgumentNullException(const ArgumentNullException& p) noexcept(true)
; 119  :             : Exception(p)
; 120  :         {
; 121  :         }
; 122  : 
; 123  :         virtual ~ArgumentNullException() noexcept(true)
; 124  :         {
; 125  :         }
; 126  :     };
; 127  : 
; 128  :     class ArgumentOutOfRangeException
; 129  :         : public Exception
; 130  :     {
; 131  :     public:
; 132  :         ArgumentOutOfRangeException(const wchar_t* message) noexcept(true)
; 133  :             : Exception(PMC_STATUS_ARGUMENT_OUT_OF_RANGE_ERROR, message)
; 134  :         {
; 135  :         }
; 136  : 
; 137  :         ArgumentOutOfRangeException(const ArgumentOutOfRangeException& p) noexcept(true)
; 138  :             : Exception(p)
; 139  :         {
; 140  :         }
; 141  : 
; 142  :         virtual ~ArgumentOutOfRangeException() noexcept(true)
; 143  :         {
; 144  :         }
; 145  :     };
; 146  : 
; 147  :     class OverflowException
; 148  :         : public Exception
; 149  :     {
; 150  :     public:
; 151  :         OverflowException(const wchar_t* message) noexcept(true)
; 152  :             : Exception(PMC_STATUS_OVERFLOW, message)
; 153  :         {
; 154  :         }
; 155  : 
; 156  :         OverflowException(const OverflowException& p) noexcept(true)
; 157  :             : Exception(p)

  00058	c7 45 fc 01 00
	00 00		 mov	 DWORD PTR __$EHRec$[ebp+8], 1

; 158  :         {

  0005f	c7 02 00 00 00
	00		 mov	 DWORD PTR [edx], OFFSET ??_7OverflowException@Internal@Core@Math@Palmtree@@6B@

; 159  :         }

  00065	c7 45 fc ff ff
	ff ff		 mov	 DWORD PTR __$EHRec$[ebp+8], -1
  0006c	8b c2		 mov	 eax, edx
  0006e	8b 4d f4	 mov	 ecx, DWORD PTR __$EHRec$[ebp]
  00071	64 89 0d 00 00
	00 00		 mov	 DWORD PTR fs:0, ecx
  00078	59		 pop	 ecx
  00079	8b e5		 mov	 esp, ebp
  0007b	5d		 pop	 ebp
  0007c	c2 04 00	 ret	 4
_TEXT	ENDS
;	COMDAT text$x
text$x	SEGMENT
__unwindfunclet$??0OverflowException@Internal@Core@Math@Palmtree@@QAE@ABV01234@@Z$1:
  00000	8b 4d f0	 mov	 ecx, DWORD PTR _this$[ebp]
  00003	e9 00 00 00 00	 jmp	 ??1exception@std@@UAE@XZ ; std::exception::~exception
__unwindfunclet$??0OverflowException@Internal@Core@Math@Palmtree@@QAE@ABV01234@@Z$0:
  00008	8b 4d f0	 mov	 ecx, DWORD PTR _this$[ebp]
  0000b	e9 00 00 00 00	 jmp	 ??1Exception@Internal@Core@Math@Palmtree@@UAE@XZ ; Palmtree::Math::Core::Internal::Exception::~Exception
__ehhandler$??0OverflowException@Internal@Core@Math@Palmtree@@QAE@ABV01234@@Z:
  00010	8b 54 24 08	 mov	 edx, DWORD PTR [esp+8]
  00014	8d 42 0c	 lea	 eax, DWORD PTR [edx+12]
  00017	8b 4a f8	 mov	 ecx, DWORD PTR [edx-8]
  0001a	33 c8		 xor	 ecx, eax
  0001c	e8 00 00 00 00	 call	 @__security_check_cookie@4
  00021	b8 00 00 00 00	 mov	 eax, OFFSET __ehfuncinfo$??0OverflowException@Internal@Core@Math@Palmtree@@QAE@ABV01234@@Z
  00026	e9 00 00 00 00	 jmp	 ___CxxFrameHandler3
text$x	ENDS
??0OverflowException@Internal@Core@Math@Palmtree@@QAE@ABV01234@@Z ENDP ; Palmtree::Math::Core::Internal::OverflowException::OverflowException
; Function compile flags: /Ogtp
; File z:\sources\lunor\repos\rougemeilland\palmtree.math.core.uint\palmtree.math.core.uint\pmc_exception.h
; File c:\program files (x86)\microsoft visual studio\2017\community\vc\tools\msvc\14.16.27023\include\vcruntime_exception.h
; File z:\sources\lunor\repos\rougemeilland\palmtree.math.core.uint\palmtree.math.core.uint\pmc_exception.h
;	COMDAT ??0OverflowException@Internal@Core@Math@Palmtree@@QAE@PB_W@Z
_TEXT	SEGMENT
_this$ = -16						; size = 4
__$EHRec$ = -12						; size = 12
_message$ = 8						; size = 4
??0OverflowException@Internal@Core@Math@Palmtree@@QAE@PB_W@Z PROC ; Palmtree::Math::Core::Internal::OverflowException::OverflowException, COMDAT
; _this$ = ecx

; 153  :         {

  00000	55		 push	 ebp
  00001	8b ec		 mov	 ebp, esp
  00003	6a ff		 push	 -1
  00005	68 00 00 00 00	 push	 __ehhandler$??0OverflowException@Internal@Core@Math@Palmtree@@QAE@PB_W@Z
  0000a	64 a1 00 00 00
	00		 mov	 eax, DWORD PTR fs:0
  00010	50		 push	 eax
  00011	51		 push	 ecx
  00012	a1 00 00 00 00	 mov	 eax, DWORD PTR ___security_cookie
  00017	33 c5		 xor	 eax, ebp
  00019	50		 push	 eax
  0001a	8d 45 f4	 lea	 eax, DWORD PTR __$EHRec$[ebp]
  0001d	64 a3 00 00 00
	00		 mov	 DWORD PTR fs:0, eax
  00023	89 4d f0	 mov	 DWORD PTR _this$[ebp], ecx
  00026	0f 57 c0	 xorps	 xmm0, xmm0
; File c:\program files (x86)\microsoft visual studio\2017\community\vc\tools\msvc\14.16.27023\include\vcruntime_exception.h

; 50   :     {

  00029	c7 01 00 00 00
	00		 mov	 DWORD PTR [ecx], OFFSET ??_7exception@std@@6B@
  0002f	66 0f d6 41 04	 movq	 QWORD PTR [ecx+4], xmm0
; File z:\sources\lunor\repos\rougemeilland\palmtree.math.core.uint\palmtree.math.core.uint\pmc_exception.h

; 47   :         Exception(PMC_STATUS_CODE code, const wchar_t* message) noexcept(true)

  00034	c7 45 fc 00 00
	00 00		 mov	 DWORD PTR __$EHRec$[ebp+8], 0

; 48   :         {
; 49   :             _code = code;
; 50   :             _message = message;

  0003b	8b 45 08	 mov	 eax, DWORD PTR _message$[ebp]
  0003e	c7 01 00 00 00
	00		 mov	 DWORD PTR [ecx], OFFSET ??_7Exception@Internal@Core@Math@Palmtree@@6B@
  00044	c7 41 0c fc ff
	ff ff		 mov	 DWORD PTR [ecx+12], -4	; fffffffcH
  0004b	89 41 10	 mov	 DWORD PTR [ecx+16], eax

; 51   :             _data = nullptr;

  0004e	c7 41 14 00 00
	00 00		 mov	 DWORD PTR [ecx+20], 0

; 52   :         }
; 53   : 
; 54   :         Exception(PMC_STATUS_CODE code, const wchar_t* message, const wchar_t* data) noexcept(true)
; 55   :         {
; 56   :             _code = code;
; 57   :             _message = message;
; 58   :             _data = data;
; 59   :         }
; 60   : 
; 61   :     public:
; 62   :         Exception(const Exception& p) noexcept(true)
; 63   :         {
; 64   :             _code = p._code;
; 65   :             _message = p._message;
; 66   :             _data = p._data;
; 67   :         }
; 68   : 
; 69   :         virtual ~Exception() noexcept(true)
; 70   :         {
; 71   :         }
; 72   : 
; 73   :         PMC_STATUS_CODE GetStatusCode() const noexcept(true)
; 74   :         {
; 75   :             return (_code);
; 76   :         }
; 77   : 
; 78   :         wchar_t const* What() const noexcept(true)
; 79   :         {
; 80   :             return (_message);
; 81   :         }
; 82   : 
; 83   :         wchar_t const* Data() const noexcept(true)
; 84   :         {
; 85   :             return (_data);
; 86   :         }
; 87   : 
; 88   :     };
; 89   : 
; 90   :     class ArgumentException
; 91   :         : public Exception
; 92   :     {
; 93   :     public:
; 94   :         ArgumentException(const wchar_t* message) noexcept(true)
; 95   :             : Exception(PMC_STATUS_ARGUMENT_ERROR, message)
; 96   :         {
; 97   :         }
; 98   : 
; 99   :         ArgumentException(const ArgumentException& p) noexcept(true)
; 100  :             : Exception(p)
; 101  :         {
; 102  :         }
; 103  : 
; 104  :         virtual ~ArgumentException() noexcept(true)
; 105  :         {
; 106  :         }
; 107  :     };
; 108  : 
; 109  :     class ArgumentNullException
; 110  :         : public Exception
; 111  :     {
; 112  :     public:
; 113  :         ArgumentNullException(const wchar_t* message, const wchar_t* param_name) noexcept(true)
; 114  :             : Exception(PMC_STATUS_ARGUMENT_NULL_ERROR, message, param_name)
; 115  :         {
; 116  :         }
; 117  : 
; 118  :         ArgumentNullException(const ArgumentNullException& p) noexcept(true)
; 119  :             : Exception(p)
; 120  :         {
; 121  :         }
; 122  : 
; 123  :         virtual ~ArgumentNullException() noexcept(true)
; 124  :         {
; 125  :         }
; 126  :     };
; 127  : 
; 128  :     class ArgumentOutOfRangeException
; 129  :         : public Exception
; 130  :     {
; 131  :     public:
; 132  :         ArgumentOutOfRangeException(const wchar_t* message) noexcept(true)
; 133  :             : Exception(PMC_STATUS_ARGUMENT_OUT_OF_RANGE_ERROR, message)
; 134  :         {
; 135  :         }
; 136  : 
; 137  :         ArgumentOutOfRangeException(const ArgumentOutOfRangeException& p) noexcept(true)
; 138  :             : Exception(p)
; 139  :         {
; 140  :         }
; 141  : 
; 142  :         virtual ~ArgumentOutOfRangeException() noexcept(true)
; 143  :         {
; 144  :         }
; 145  :     };
; 146  : 
; 147  :     class OverflowException
; 148  :         : public Exception
; 149  :     {
; 150  :     public:
; 151  :         OverflowException(const wchar_t* message) noexcept(true)
; 152  :             : Exception(PMC_STATUS_OVERFLOW, message)

  00055	c7 45 fc 01 00
	00 00		 mov	 DWORD PTR __$EHRec$[ebp+8], 1

; 153  :         {

  0005c	c7 01 00 00 00
	00		 mov	 DWORD PTR [ecx], OFFSET ??_7OverflowException@Internal@Core@Math@Palmtree@@6B@

; 154  :         }

  00062	c7 45 fc ff ff
	ff ff		 mov	 DWORD PTR __$EHRec$[ebp+8], -1
  00069	8b c1		 mov	 eax, ecx
  0006b	8b 4d f4	 mov	 ecx, DWORD PTR __$EHRec$[ebp]
  0006e	64 89 0d 00 00
	00 00		 mov	 DWORD PTR fs:0, ecx
  00075	59		 pop	 ecx
  00076	8b e5		 mov	 esp, ebp
  00078	5d		 pop	 ebp
  00079	c2 04 00	 ret	 4
_TEXT	ENDS
;	COMDAT text$x
text$x	SEGMENT
__unwindfunclet$??0OverflowException@Internal@Core@Math@Palmtree@@QAE@PB_W@Z$1:
  00000	8b 4d f0	 mov	 ecx, DWORD PTR _this$[ebp]
  00003	e9 00 00 00 00	 jmp	 ??1exception@std@@UAE@XZ ; std::exception::~exception
__unwindfunclet$??0OverflowException@Internal@Core@Math@Palmtree@@QAE@PB_W@Z$0:
  00008	8b 4d f0	 mov	 ecx, DWORD PTR _this$[ebp]
  0000b	e9 00 00 00 00	 jmp	 ??1Exception@Internal@Core@Math@Palmtree@@UAE@XZ ; Palmtree::Math::Core::Internal::Exception::~Exception
__ehhandler$??0OverflowException@Internal@Core@Math@Palmtree@@QAE@PB_W@Z:
  00010	8b 54 24 08	 mov	 edx, DWORD PTR [esp+8]
  00014	8d 42 0c	 lea	 eax, DWORD PTR [edx+12]
  00017	8b 4a f8	 mov	 ecx, DWORD PTR [edx-8]
  0001a	33 c8		 xor	 ecx, eax
  0001c	e8 00 00 00 00	 call	 @__security_check_cookie@4
  00021	b8 00 00 00 00	 mov	 eax, OFFSET __ehfuncinfo$??0OverflowException@Internal@Core@Math@Palmtree@@QAE@PB_W@Z
  00026	e9 00 00 00 00	 jmp	 ___CxxFrameHandler3
text$x	ENDS
??0OverflowException@Internal@Core@Math@Palmtree@@QAE@PB_W@Z ENDP ; Palmtree::Math::Core::Internal::OverflowException::OverflowException
; Function compile flags: /Ogtp
; File z:\sources\lunor\repos\rougemeilland\palmtree.math.core.uint\palmtree.math.core.uint\pmc_exception.h
; File c:\program files (x86)\microsoft visual studio\2017\community\vc\tools\msvc\14.16.27023\include\vcruntime_exception.h
;	COMDAT ??_GArgumentNullException@Internal@Core@Math@Palmtree@@UAEPAXI@Z
_TEXT	SEGMENT
_this$ = -16						; size = 4
__$EHRec$ = -12						; size = 12
___flags$ = 8						; size = 4
??_GArgumentNullException@Internal@Core@Math@Palmtree@@UAEPAXI@Z PROC ; Palmtree::Math::Core::Internal::ArgumentNullException::`scalar deleting destructor', COMDAT
; _this$ = ecx
  00000	55		 push	 ebp
  00001	8b ec		 mov	 ebp, esp
  00003	6a ff		 push	 -1
  00005	68 00 00 00 00	 push	 __ehhandler$??_GArgumentNullException@Internal@Core@Math@Palmtree@@UAEPAXI@Z
  0000a	64 a1 00 00 00
	00		 mov	 eax, DWORD PTR fs:0
  00010	50		 push	 eax
  00011	51		 push	 ecx
  00012	56		 push	 esi
  00013	a1 00 00 00 00	 mov	 eax, DWORD PTR ___security_cookie
  00018	33 c5		 xor	 eax, ebp
  0001a	50		 push	 eax
  0001b	8d 45 f4	 lea	 eax, DWORD PTR __$EHRec$[ebp]
  0001e	64 a3 00 00 00
	00		 mov	 DWORD PTR fs:0, eax
  00024	8b f1		 mov	 esi, ecx
  00026	89 75 f0	 mov	 DWORD PTR _this$[ebp], esi
; File z:\sources\lunor\repos\rougemeilland\palmtree.math.core.uint\palmtree.math.core.uint\pmc_exception.h

; 124  :         {

  00029	c7 06 00 00 00
	00		 mov	 DWORD PTR [esi], OFFSET ??_7ArgumentNullException@Internal@Core@Math@Palmtree@@6B@

; 125  :         }

  0002f	c7 45 fc ff ff
	ff ff		 mov	 DWORD PTR __$EHRec$[ebp+8], -1

; 70   :         {

  00036	c7 06 00 00 00
	00		 mov	 DWORD PTR [esi], OFFSET ??_7Exception@Internal@Core@Math@Palmtree@@6B@

; 71   :         }

  0003c	c7 45 fc ff ff
	ff ff		 mov	 DWORD PTR __$EHRec$[ebp+8], -1
; File c:\program files (x86)\microsoft visual studio\2017\community\vc\tools\msvc\14.16.27023\include\vcruntime_exception.h

; 86   :         __std_exception_destroy(&_Data);

  00043	8d 46 04	 lea	 eax, DWORD PTR [esi+4]
  00046	50		 push	 eax
  00047	c7 06 00 00 00
	00		 mov	 DWORD PTR [esi], OFFSET ??_7exception@std@@6B@
  0004d	e8 00 00 00 00	 call	 ___std_exception_destroy
  00052	83 c4 04	 add	 esp, 4
  00055	f6 45 08 01	 test	 BYTE PTR ___flags$[ebp], 1
  00059	74 0b		 je	 SHORT $LN12@scalar
  0005b	6a 18		 push	 24			; 00000018H
  0005d	56		 push	 esi
  0005e	e8 00 00 00 00	 call	 ??3@YAXPAXI@Z		; operator delete
  00063	83 c4 08	 add	 esp, 8
$LN12@scalar:
  00066	8b c6		 mov	 eax, esi
  00068	8b 4d f4	 mov	 ecx, DWORD PTR __$EHRec$[ebp]
  0006b	64 89 0d 00 00
	00 00		 mov	 DWORD PTR fs:0, ecx
  00072	59		 pop	 ecx
  00073	5e		 pop	 esi
  00074	8b e5		 mov	 esp, ebp
  00076	5d		 pop	 ebp
  00077	c2 04 00	 ret	 4
_TEXT	ENDS
;	COMDAT text$x
text$x	SEGMENT
__unwindfunclet$??_GArgumentNullException@Internal@Core@Math@Palmtree@@UAEPAXI@Z$0:
  00000	8b 4d f0	 mov	 ecx, DWORD PTR _this$[ebp]
  00003	e9 00 00 00 00	 jmp	 ??1Exception@Internal@Core@Math@Palmtree@@UAE@XZ ; Palmtree::Math::Core::Internal::Exception::~Exception
__unwindfunclet$??_GArgumentNullException@Internal@Core@Math@Palmtree@@UAEPAXI@Z$1:
  00008	8b 4d f0	 mov	 ecx, DWORD PTR _this$[ebp]
  0000b	e9 00 00 00 00	 jmp	 ??1exception@std@@UAE@XZ ; std::exception::~exception
__ehhandler$??_GArgumentNullException@Internal@Core@Math@Palmtree@@UAEPAXI@Z:
  00010	8b 54 24 08	 mov	 edx, DWORD PTR [esp+8]
  00014	8d 42 0c	 lea	 eax, DWORD PTR [edx+12]
  00017	8b 4a f4	 mov	 ecx, DWORD PTR [edx-12]
  0001a	33 c8		 xor	 ecx, eax
  0001c	e8 00 00 00 00	 call	 @__security_check_cookie@4
  00021	b8 00 00 00 00	 mov	 eax, OFFSET __ehfuncinfo$??_GArgumentNullException@Internal@Core@Math@Palmtree@@UAEPAXI@Z
  00026	e9 00 00 00 00	 jmp	 ___CxxFrameHandler3
text$x	ENDS
??_GArgumentNullException@Internal@Core@Math@Palmtree@@UAEPAXI@Z ENDP ; Palmtree::Math::Core::Internal::ArgumentNullException::`scalar deleting destructor'
; Function compile flags: /Ogtp
; File z:\sources\lunor\repos\rougemeilland\palmtree.math.core.uint\palmtree.math.core.uint\pmc_exception.h
; File c:\program files (x86)\microsoft visual studio\2017\community\vc\tools\msvc\14.16.27023\include\vcruntime_exception.h
; File z:\sources\lunor\repos\rougemeilland\palmtree.math.core.uint\palmtree.math.core.uint\pmc_exception.h
;	COMDAT ??1ArgumentNullException@Internal@Core@Math@Palmtree@@UAE@XZ
_TEXT	SEGMENT
_this$ = -16						; size = 4
__$EHRec$ = -12						; size = 12
??1ArgumentNullException@Internal@Core@Math@Palmtree@@UAE@XZ PROC ; Palmtree::Math::Core::Internal::ArgumentNullException::~ArgumentNullException, COMDAT
; _this$ = ecx

; 124  :         {

  00000	55		 push	 ebp
  00001	8b ec		 mov	 ebp, esp
  00003	6a ff		 push	 -1
  00005	68 00 00 00 00	 push	 __ehhandler$??1ArgumentNullException@Internal@Core@Math@Palmtree@@UAE@XZ
  0000a	64 a1 00 00 00
	00		 mov	 eax, DWORD PTR fs:0
  00010	50		 push	 eax
  00011	51		 push	 ecx
  00012	a1 00 00 00 00	 mov	 eax, DWORD PTR ___security_cookie
  00017	33 c5		 xor	 eax, ebp
  00019	50		 push	 eax
  0001a	8d 45 f4	 lea	 eax, DWORD PTR __$EHRec$[ebp]
  0001d	64 a3 00 00 00
	00		 mov	 DWORD PTR fs:0, eax
  00023	89 4d f0	 mov	 DWORD PTR _this$[ebp], ecx
  00026	c7 01 00 00 00
	00		 mov	 DWORD PTR [ecx], OFFSET ??_7ArgumentNullException@Internal@Core@Math@Palmtree@@6B@

; 125  :         }

  0002c	c7 45 fc ff ff
	ff ff		 mov	 DWORD PTR __$EHRec$[ebp+8], -1

; 70   :         {

  00033	c7 01 00 00 00
	00		 mov	 DWORD PTR [ecx], OFFSET ??_7Exception@Internal@Core@Math@Palmtree@@6B@

; 71   :         }

  00039	c7 45 fc ff ff
	ff ff		 mov	 DWORD PTR __$EHRec$[ebp+8], -1
; File c:\program files (x86)\microsoft visual studio\2017\community\vc\tools\msvc\14.16.27023\include\vcruntime_exception.h

; 86   :         __std_exception_destroy(&_Data);

  00040	8d 41 04	 lea	 eax, DWORD PTR [ecx+4]
  00043	50		 push	 eax
  00044	c7 01 00 00 00
	00		 mov	 DWORD PTR [ecx], OFFSET ??_7exception@std@@6B@
  0004a	e8 00 00 00 00	 call	 ___std_exception_destroy
  0004f	83 c4 04	 add	 esp, 4
; File z:\sources\lunor\repos\rougemeilland\palmtree.math.core.uint\palmtree.math.core.uint\pmc_exception.h

; 125  :         }

  00052	8b 4d f4	 mov	 ecx, DWORD PTR __$EHRec$[ebp]
  00055	64 89 0d 00 00
	00 00		 mov	 DWORD PTR fs:0, ecx
  0005c	59		 pop	 ecx
  0005d	8b e5		 mov	 esp, ebp
  0005f	5d		 pop	 ebp
  00060	c3		 ret	 0
_TEXT	ENDS
;	COMDAT text$x
text$x	SEGMENT
__unwindfunclet$??1ArgumentNullException@Internal@Core@Math@Palmtree@@UAE@XZ$0:
  00000	8b 4d f0	 mov	 ecx, DWORD PTR _this$[ebp]
  00003	e9 00 00 00 00	 jmp	 ??1Exception@Internal@Core@Math@Palmtree@@UAE@XZ ; Palmtree::Math::Core::Internal::Exception::~Exception
__unwindfunclet$??1ArgumentNullException@Internal@Core@Math@Palmtree@@UAE@XZ$1:
  00008	8b 4d f0	 mov	 ecx, DWORD PTR _this$[ebp]
  0000b	e9 00 00 00 00	 jmp	 ??1exception@std@@UAE@XZ ; std::exception::~exception
__ehhandler$??1ArgumentNullException@Internal@Core@Math@Palmtree@@UAE@XZ:
  00010	8b 54 24 08	 mov	 edx, DWORD PTR [esp+8]
  00014	8d 42 0c	 lea	 eax, DWORD PTR [edx+12]
  00017	8b 4a f8	 mov	 ecx, DWORD PTR [edx-8]
  0001a	33 c8		 xor	 ecx, eax
  0001c	e8 00 00 00 00	 call	 @__security_check_cookie@4
  00021	b8 00 00 00 00	 mov	 eax, OFFSET __ehfuncinfo$??1ArgumentNullException@Internal@Core@Math@Palmtree@@UAE@XZ
  00026	e9 00 00 00 00	 jmp	 ___CxxFrameHandler3
text$x	ENDS
??1ArgumentNullException@Internal@Core@Math@Palmtree@@UAE@XZ ENDP ; Palmtree::Math::Core::Internal::ArgumentNullException::~ArgumentNullException
; Function compile flags: /Ogtp
; File z:\sources\lunor\repos\rougemeilland\palmtree.math.core.uint\palmtree.math.core.uint\pmc_exception.h
; File c:\program files (x86)\microsoft visual studio\2017\community\vc\tools\msvc\14.16.27023\include\vcruntime_exception.h
; File z:\sources\lunor\repos\rougemeilland\palmtree.math.core.uint\palmtree.math.core.uint\pmc_exception.h
;	COMDAT ??0ArgumentNullException@Internal@Core@Math@Palmtree@@QAE@ABV01234@@Z
_TEXT	SEGMENT
_this$ = -16						; size = 4
__$EHRec$ = -12						; size = 12
_p$ = 8							; size = 4
??0ArgumentNullException@Internal@Core@Math@Palmtree@@QAE@ABV01234@@Z PROC ; Palmtree::Math::Core::Internal::ArgumentNullException::ArgumentNullException, COMDAT
; _this$ = ecx

; 120  :         {

  00000	55		 push	 ebp
  00001	8b ec		 mov	 ebp, esp
  00003	6a ff		 push	 -1
  00005	68 00 00 00 00	 push	 __ehhandler$??0ArgumentNullException@Internal@Core@Math@Palmtree@@QAE@ABV01234@@Z
  0000a	64 a1 00 00 00
	00		 mov	 eax, DWORD PTR fs:0
  00010	50		 push	 eax
  00011	51		 push	 ecx
  00012	a1 00 00 00 00	 mov	 eax, DWORD PTR ___security_cookie
  00017	33 c5		 xor	 eax, ebp
  00019	50		 push	 eax
  0001a	8d 45 f4	 lea	 eax, DWORD PTR __$EHRec$[ebp]
  0001d	64 a3 00 00 00
	00		 mov	 DWORD PTR fs:0, eax
  00023	8b d1		 mov	 edx, ecx
  00025	89 55 f0	 mov	 DWORD PTR _this$[ebp], edx
  00028	0f 57 c0	 xorps	 xmm0, xmm0
; File c:\program files (x86)\microsoft visual studio\2017\community\vc\tools\msvc\14.16.27023\include\vcruntime_exception.h

; 50   :     {

  0002b	c7 02 00 00 00
	00		 mov	 DWORD PTR [edx], OFFSET ??_7exception@std@@6B@
  00031	66 0f d6 42 04	 movq	 QWORD PTR [edx+4], xmm0
; File z:\sources\lunor\repos\rougemeilland\palmtree.math.core.uint\palmtree.math.core.uint\pmc_exception.h

; 62   :         Exception(const Exception& p) noexcept(true)

  00036	c7 45 fc 00 00
	00 00		 mov	 DWORD PTR __$EHRec$[ebp+8], 0

; 63   :         {
; 64   :             _code = p._code;

  0003d	8b 4d 08	 mov	 ecx, DWORD PTR _p$[ebp]
  00040	c7 02 00 00 00
	00		 mov	 DWORD PTR [edx], OFFSET ??_7Exception@Internal@Core@Math@Palmtree@@6B@
  00046	8b 41 0c	 mov	 eax, DWORD PTR [ecx+12]
  00049	89 42 0c	 mov	 DWORD PTR [edx+12], eax

; 65   :             _message = p._message;

  0004c	8b 41 10	 mov	 eax, DWORD PTR [ecx+16]
  0004f	89 42 10	 mov	 DWORD PTR [edx+16], eax

; 66   :             _data = p._data;

  00052	8b 41 14	 mov	 eax, DWORD PTR [ecx+20]
  00055	89 42 14	 mov	 DWORD PTR [edx+20], eax

; 67   :         }
; 68   : 
; 69   :         virtual ~Exception() noexcept(true)
; 70   :         {
; 71   :         }
; 72   : 
; 73   :         PMC_STATUS_CODE GetStatusCode() const noexcept(true)
; 74   :         {
; 75   :             return (_code);
; 76   :         }
; 77   : 
; 78   :         wchar_t const* What() const noexcept(true)
; 79   :         {
; 80   :             return (_message);
; 81   :         }
; 82   : 
; 83   :         wchar_t const* Data() const noexcept(true)
; 84   :         {
; 85   :             return (_data);
; 86   :         }
; 87   : 
; 88   :     };
; 89   : 
; 90   :     class ArgumentException
; 91   :         : public Exception
; 92   :     {
; 93   :     public:
; 94   :         ArgumentException(const wchar_t* message) noexcept(true)
; 95   :             : Exception(PMC_STATUS_ARGUMENT_ERROR, message)
; 96   :         {
; 97   :         }
; 98   : 
; 99   :         ArgumentException(const ArgumentException& p) noexcept(true)
; 100  :             : Exception(p)
; 101  :         {
; 102  :         }
; 103  : 
; 104  :         virtual ~ArgumentException() noexcept(true)
; 105  :         {
; 106  :         }
; 107  :     };
; 108  : 
; 109  :     class ArgumentNullException
; 110  :         : public Exception
; 111  :     {
; 112  :     public:
; 113  :         ArgumentNullException(const wchar_t* message, const wchar_t* param_name) noexcept(true)
; 114  :             : Exception(PMC_STATUS_ARGUMENT_NULL_ERROR, message, param_name)
; 115  :         {
; 116  :         }
; 117  : 
; 118  :         ArgumentNullException(const ArgumentNullException& p) noexcept(true)
; 119  :             : Exception(p)

  00058	c7 45 fc 01 00
	00 00		 mov	 DWORD PTR __$EHRec$[ebp+8], 1

; 120  :         {

  0005f	c7 02 00 00 00
	00		 mov	 DWORD PTR [edx], OFFSET ??_7ArgumentNullException@Internal@Core@Math@Palmtree@@6B@

; 121  :         }

  00065	c7 45 fc ff ff
	ff ff		 mov	 DWORD PTR __$EHRec$[ebp+8], -1
  0006c	8b c2		 mov	 eax, edx
  0006e	8b 4d f4	 mov	 ecx, DWORD PTR __$EHRec$[ebp]
  00071	64 89 0d 00 00
	00 00		 mov	 DWORD PTR fs:0, ecx
  00078	59		 pop	 ecx
  00079	8b e5		 mov	 esp, ebp
  0007b	5d		 pop	 ebp
  0007c	c2 04 00	 ret	 4
_TEXT	ENDS
;	COMDAT text$x
text$x	SEGMENT
__unwindfunclet$??0ArgumentNullException@Internal@Core@Math@Palmtree@@QAE@ABV01234@@Z$1:
  00000	8b 4d f0	 mov	 ecx, DWORD PTR _this$[ebp]
  00003	e9 00 00 00 00	 jmp	 ??1exception@std@@UAE@XZ ; std::exception::~exception
__unwindfunclet$??0ArgumentNullException@Internal@Core@Math@Palmtree@@QAE@ABV01234@@Z$0:
  00008	8b 4d f0	 mov	 ecx, DWORD PTR _this$[ebp]
  0000b	e9 00 00 00 00	 jmp	 ??1Exception@Internal@Core@Math@Palmtree@@UAE@XZ ; Palmtree::Math::Core::Internal::Exception::~Exception
__ehhandler$??0ArgumentNullException@Internal@Core@Math@Palmtree@@QAE@ABV01234@@Z:
  00010	8b 54 24 08	 mov	 edx, DWORD PTR [esp+8]
  00014	8d 42 0c	 lea	 eax, DWORD PTR [edx+12]
  00017	8b 4a f8	 mov	 ecx, DWORD PTR [edx-8]
  0001a	33 c8		 xor	 ecx, eax
  0001c	e8 00 00 00 00	 call	 @__security_check_cookie@4
  00021	b8 00 00 00 00	 mov	 eax, OFFSET __ehfuncinfo$??0ArgumentNullException@Internal@Core@Math@Palmtree@@QAE@ABV01234@@Z
  00026	e9 00 00 00 00	 jmp	 ___CxxFrameHandler3
text$x	ENDS
??0ArgumentNullException@Internal@Core@Math@Palmtree@@QAE@ABV01234@@Z ENDP ; Palmtree::Math::Core::Internal::ArgumentNullException::ArgumentNullException
; Function compile flags: /Ogtp
; File z:\sources\lunor\repos\rougemeilland\palmtree.math.core.uint\palmtree.math.core.uint\pmc_exception.h
; File c:\program files (x86)\microsoft visual studio\2017\community\vc\tools\msvc\14.16.27023\include\vcruntime_exception.h
; File z:\sources\lunor\repos\rougemeilland\palmtree.math.core.uint\palmtree.math.core.uint\pmc_exception.h
;	COMDAT ??0ArgumentNullException@Internal@Core@Math@Palmtree@@QAE@PB_W0@Z
_TEXT	SEGMENT
_this$ = -16						; size = 4
__$EHRec$ = -12						; size = 12
_message$ = 8						; size = 4
_param_name$ = 12					; size = 4
??0ArgumentNullException@Internal@Core@Math@Palmtree@@QAE@PB_W0@Z PROC ; Palmtree::Math::Core::Internal::ArgumentNullException::ArgumentNullException, COMDAT
; _this$ = ecx

; 115  :         {

  00000	55		 push	 ebp
  00001	8b ec		 mov	 ebp, esp
  00003	6a ff		 push	 -1
  00005	68 00 00 00 00	 push	 __ehhandler$??0ArgumentNullException@Internal@Core@Math@Palmtree@@QAE@PB_W0@Z
  0000a	64 a1 00 00 00
	00		 mov	 eax, DWORD PTR fs:0
  00010	50		 push	 eax
  00011	51		 push	 ecx
  00012	a1 00 00 00 00	 mov	 eax, DWORD PTR ___security_cookie
  00017	33 c5		 xor	 eax, ebp
  00019	50		 push	 eax
  0001a	8d 45 f4	 lea	 eax, DWORD PTR __$EHRec$[ebp]
  0001d	64 a3 00 00 00
	00		 mov	 DWORD PTR fs:0, eax
  00023	89 4d f0	 mov	 DWORD PTR _this$[ebp], ecx
  00026	0f 57 c0	 xorps	 xmm0, xmm0
; File c:\program files (x86)\microsoft visual studio\2017\community\vc\tools\msvc\14.16.27023\include\vcruntime_exception.h

; 50   :     {

  00029	c7 01 00 00 00
	00		 mov	 DWORD PTR [ecx], OFFSET ??_7exception@std@@6B@
  0002f	66 0f d6 41 04	 movq	 QWORD PTR [ecx+4], xmm0
; File z:\sources\lunor\repos\rougemeilland\palmtree.math.core.uint\palmtree.math.core.uint\pmc_exception.h

; 54   :         Exception(PMC_STATUS_CODE code, const wchar_t* message, const wchar_t* data) noexcept(true)

  00034	c7 45 fc 00 00
	00 00		 mov	 DWORD PTR __$EHRec$[ebp+8], 0

; 55   :         {
; 56   :             _code = code;
; 57   :             _message = message;

  0003b	8b 45 08	 mov	 eax, DWORD PTR _message$[ebp]
  0003e	89 41 10	 mov	 DWORD PTR [ecx+16], eax

; 58   :             _data = data;

  00041	8b 45 0c	 mov	 eax, DWORD PTR _param_name$[ebp]
  00044	c7 01 00 00 00
	00		 mov	 DWORD PTR [ecx], OFFSET ??_7Exception@Internal@Core@Math@Palmtree@@6B@
  0004a	c7 41 0c fe ff
	ff ff		 mov	 DWORD PTR [ecx+12], -2	; fffffffeH
  00051	89 41 14	 mov	 DWORD PTR [ecx+20], eax

; 59   :         }
; 60   : 
; 61   :     public:
; 62   :         Exception(const Exception& p) noexcept(true)
; 63   :         {
; 64   :             _code = p._code;
; 65   :             _message = p._message;
; 66   :             _data = p._data;
; 67   :         }
; 68   : 
; 69   :         virtual ~Exception() noexcept(true)
; 70   :         {
; 71   :         }
; 72   : 
; 73   :         PMC_STATUS_CODE GetStatusCode() const noexcept(true)
; 74   :         {
; 75   :             return (_code);
; 76   :         }
; 77   : 
; 78   :         wchar_t const* What() const noexcept(true)
; 79   :         {
; 80   :             return (_message);
; 81   :         }
; 82   : 
; 83   :         wchar_t const* Data() const noexcept(true)
; 84   :         {
; 85   :             return (_data);
; 86   :         }
; 87   : 
; 88   :     };
; 89   : 
; 90   :     class ArgumentException
; 91   :         : public Exception
; 92   :     {
; 93   :     public:
; 94   :         ArgumentException(const wchar_t* message) noexcept(true)
; 95   :             : Exception(PMC_STATUS_ARGUMENT_ERROR, message)
; 96   :         {
; 97   :         }
; 98   : 
; 99   :         ArgumentException(const ArgumentException& p) noexcept(true)
; 100  :             : Exception(p)
; 101  :         {
; 102  :         }
; 103  : 
; 104  :         virtual ~ArgumentException() noexcept(true)
; 105  :         {
; 106  :         }
; 107  :     };
; 108  : 
; 109  :     class ArgumentNullException
; 110  :         : public Exception
; 111  :     {
; 112  :     public:
; 113  :         ArgumentNullException(const wchar_t* message, const wchar_t* param_name) noexcept(true)
; 114  :             : Exception(PMC_STATUS_ARGUMENT_NULL_ERROR, message, param_name)

  00054	c7 45 fc 01 00
	00 00		 mov	 DWORD PTR __$EHRec$[ebp+8], 1

; 115  :         {

  0005b	c7 01 00 00 00
	00		 mov	 DWORD PTR [ecx], OFFSET ??_7ArgumentNullException@Internal@Core@Math@Palmtree@@6B@

; 116  :         }

  00061	c7 45 fc ff ff
	ff ff		 mov	 DWORD PTR __$EHRec$[ebp+8], -1
  00068	8b c1		 mov	 eax, ecx
  0006a	8b 4d f4	 mov	 ecx, DWORD PTR __$EHRec$[ebp]
  0006d	64 89 0d 00 00
	00 00		 mov	 DWORD PTR fs:0, ecx
  00074	59		 pop	 ecx
  00075	8b e5		 mov	 esp, ebp
  00077	5d		 pop	 ebp
  00078	c2 08 00	 ret	 8
_TEXT	ENDS
;	COMDAT text$x
text$x	SEGMENT
__unwindfunclet$??0ArgumentNullException@Internal@Core@Math@Palmtree@@QAE@PB_W0@Z$1:
  00000	8b 4d f0	 mov	 ecx, DWORD PTR _this$[ebp]
  00003	e9 00 00 00 00	 jmp	 ??1exception@std@@UAE@XZ ; std::exception::~exception
__unwindfunclet$??0ArgumentNullException@Internal@Core@Math@Palmtree@@QAE@PB_W0@Z$0:
  00008	8b 4d f0	 mov	 ecx, DWORD PTR _this$[ebp]
  0000b	e9 00 00 00 00	 jmp	 ??1Exception@Internal@Core@Math@Palmtree@@UAE@XZ ; Palmtree::Math::Core::Internal::Exception::~Exception
__ehhandler$??0ArgumentNullException@Internal@Core@Math@Palmtree@@QAE@PB_W0@Z:
  00010	8b 54 24 08	 mov	 edx, DWORD PTR [esp+8]
  00014	8d 42 0c	 lea	 eax, DWORD PTR [edx+12]
  00017	8b 4a f8	 mov	 ecx, DWORD PTR [edx-8]
  0001a	33 c8		 xor	 ecx, eax
  0001c	e8 00 00 00 00	 call	 @__security_check_cookie@4
  00021	b8 00 00 00 00	 mov	 eax, OFFSET __ehfuncinfo$??0ArgumentNullException@Internal@Core@Math@Palmtree@@QAE@PB_W0@Z
  00026	e9 00 00 00 00	 jmp	 ___CxxFrameHandler3
text$x	ENDS
??0ArgumentNullException@Internal@Core@Math@Palmtree@@QAE@PB_W0@Z ENDP ; Palmtree::Math::Core::Internal::ArgumentNullException::ArgumentNullException
; Function compile flags: /Ogtp
; File z:\sources\lunor\repos\rougemeilland\palmtree.math.core.uint\palmtree.math.core.uint\pmc_exception.h
; File c:\program files (x86)\microsoft visual studio\2017\community\vc\tools\msvc\14.16.27023\include\vcruntime_exception.h
;	COMDAT ??_GException@Internal@Core@Math@Palmtree@@UAEPAXI@Z
_TEXT	SEGMENT
_this$ = -16						; size = 4
__$EHRec$ = -12						; size = 12
___flags$ = 8						; size = 4
??_GException@Internal@Core@Math@Palmtree@@UAEPAXI@Z PROC ; Palmtree::Math::Core::Internal::Exception::`scalar deleting destructor', COMDAT
; _this$ = ecx
  00000	55		 push	 ebp
  00001	8b ec		 mov	 ebp, esp
  00003	6a ff		 push	 -1
  00005	68 00 00 00 00	 push	 __ehhandler$??_GException@Internal@Core@Math@Palmtree@@UAEPAXI@Z
  0000a	64 a1 00 00 00
	00		 mov	 eax, DWORD PTR fs:0
  00010	50		 push	 eax
  00011	51		 push	 ecx
  00012	56		 push	 esi
  00013	a1 00 00 00 00	 mov	 eax, DWORD PTR ___security_cookie
  00018	33 c5		 xor	 eax, ebp
  0001a	50		 push	 eax
  0001b	8d 45 f4	 lea	 eax, DWORD PTR __$EHRec$[ebp]
  0001e	64 a3 00 00 00
	00		 mov	 DWORD PTR fs:0, eax
  00024	8b f1		 mov	 esi, ecx
  00026	89 75 f0	 mov	 DWORD PTR _this$[ebp], esi
; File z:\sources\lunor\repos\rougemeilland\palmtree.math.core.uint\palmtree.math.core.uint\pmc_exception.h

; 70   :         {

  00029	c7 06 00 00 00
	00		 mov	 DWORD PTR [esi], OFFSET ??_7Exception@Internal@Core@Math@Palmtree@@6B@

; 71   :         }

  0002f	c7 45 fc ff ff
	ff ff		 mov	 DWORD PTR __$EHRec$[ebp+8], -1
; File c:\program files (x86)\microsoft visual studio\2017\community\vc\tools\msvc\14.16.27023\include\vcruntime_exception.h

; 86   :         __std_exception_destroy(&_Data);

  00036	8d 46 04	 lea	 eax, DWORD PTR [esi+4]
  00039	50		 push	 eax
  0003a	c7 06 00 00 00
	00		 mov	 DWORD PTR [esi], OFFSET ??_7exception@std@@6B@
  00040	e8 00 00 00 00	 call	 ___std_exception_destroy
  00045	83 c4 04	 add	 esp, 4
  00048	f6 45 08 01	 test	 BYTE PTR ___flags$[ebp], 1
  0004c	74 0b		 je	 SHORT $LN9@scalar
  0004e	6a 18		 push	 24			; 00000018H
  00050	56		 push	 esi
  00051	e8 00 00 00 00	 call	 ??3@YAXPAXI@Z		; operator delete
  00056	83 c4 08	 add	 esp, 8
$LN9@scalar:
  00059	8b c6		 mov	 eax, esi
  0005b	8b 4d f4	 mov	 ecx, DWORD PTR __$EHRec$[ebp]
  0005e	64 89 0d 00 00
	00 00		 mov	 DWORD PTR fs:0, ecx
  00065	59		 pop	 ecx
  00066	5e		 pop	 esi
  00067	8b e5		 mov	 esp, ebp
  00069	5d		 pop	 ebp
  0006a	c2 04 00	 ret	 4
_TEXT	ENDS
;	COMDAT text$x
text$x	SEGMENT
__unwindfunclet$??_GException@Internal@Core@Math@Palmtree@@UAEPAXI@Z$0:
  00000	8b 4d f0	 mov	 ecx, DWORD PTR _this$[ebp]
  00003	e9 00 00 00 00	 jmp	 ??1exception@std@@UAE@XZ ; std::exception::~exception
__ehhandler$??_GException@Internal@Core@Math@Palmtree@@UAEPAXI@Z:
  00008	8b 54 24 08	 mov	 edx, DWORD PTR [esp+8]
  0000c	8d 42 0c	 lea	 eax, DWORD PTR [edx+12]
  0000f	8b 4a f4	 mov	 ecx, DWORD PTR [edx-12]
  00012	33 c8		 xor	 ecx, eax
  00014	e8 00 00 00 00	 call	 @__security_check_cookie@4
  00019	b8 00 00 00 00	 mov	 eax, OFFSET __ehfuncinfo$??_GException@Internal@Core@Math@Palmtree@@UAEPAXI@Z
  0001e	e9 00 00 00 00	 jmp	 ___CxxFrameHandler3
text$x	ENDS
??_GException@Internal@Core@Math@Palmtree@@UAEPAXI@Z ENDP ; Palmtree::Math::Core::Internal::Exception::`scalar deleting destructor'
; Function compile flags: /Ogtp
; File z:\sources\lunor\repos\rougemeilland\palmtree.math.core.uint\palmtree.math.core.uint\pmc_exception.h
; File c:\program files (x86)\microsoft visual studio\2017\community\vc\tools\msvc\14.16.27023\include\vcruntime_exception.h
; File z:\sources\lunor\repos\rougemeilland\palmtree.math.core.uint\palmtree.math.core.uint\pmc_exception.h
;	COMDAT ??1Exception@Internal@Core@Math@Palmtree@@UAE@XZ
_TEXT	SEGMENT
_this$ = -16						; size = 4
__$EHRec$ = -12						; size = 12
??1Exception@Internal@Core@Math@Palmtree@@UAE@XZ PROC	; Palmtree::Math::Core::Internal::Exception::~Exception, COMDAT
; _this$ = ecx

; 70   :         {

  00000	55		 push	 ebp
  00001	8b ec		 mov	 ebp, esp
  00003	6a ff		 push	 -1
  00005	68 00 00 00 00	 push	 __ehhandler$??1Exception@Internal@Core@Math@Palmtree@@UAE@XZ
  0000a	64 a1 00 00 00
	00		 mov	 eax, DWORD PTR fs:0
  00010	50		 push	 eax
  00011	51		 push	 ecx
  00012	a1 00 00 00 00	 mov	 eax, DWORD PTR ___security_cookie
  00017	33 c5		 xor	 eax, ebp
  00019	50		 push	 eax
  0001a	8d 45 f4	 lea	 eax, DWORD PTR __$EHRec$[ebp]
  0001d	64 a3 00 00 00
	00		 mov	 DWORD PTR fs:0, eax
  00023	89 4d f0	 mov	 DWORD PTR _this$[ebp], ecx
  00026	c7 01 00 00 00
	00		 mov	 DWORD PTR [ecx], OFFSET ??_7Exception@Internal@Core@Math@Palmtree@@6B@

; 71   :         }

  0002c	c7 45 fc ff ff
	ff ff		 mov	 DWORD PTR __$EHRec$[ebp+8], -1
; File c:\program files (x86)\microsoft visual studio\2017\community\vc\tools\msvc\14.16.27023\include\vcruntime_exception.h

; 86   :         __std_exception_destroy(&_Data);

  00033	8d 41 04	 lea	 eax, DWORD PTR [ecx+4]
  00036	50		 push	 eax
  00037	c7 01 00 00 00
	00		 mov	 DWORD PTR [ecx], OFFSET ??_7exception@std@@6B@
  0003d	e8 00 00 00 00	 call	 ___std_exception_destroy
  00042	83 c4 04	 add	 esp, 4
; File z:\sources\lunor\repos\rougemeilland\palmtree.math.core.uint\palmtree.math.core.uint\pmc_exception.h

; 71   :         }

  00045	8b 4d f4	 mov	 ecx, DWORD PTR __$EHRec$[ebp]
  00048	64 89 0d 00 00
	00 00		 mov	 DWORD PTR fs:0, ecx
  0004f	59		 pop	 ecx
  00050	8b e5		 mov	 esp, ebp
  00052	5d		 pop	 ebp
  00053	c3		 ret	 0
_TEXT	ENDS
;	COMDAT text$x
text$x	SEGMENT
__unwindfunclet$??1Exception@Internal@Core@Math@Palmtree@@UAE@XZ$0:
  00000	8b 4d f0	 mov	 ecx, DWORD PTR _this$[ebp]
  00003	e9 00 00 00 00	 jmp	 ??1exception@std@@UAE@XZ ; std::exception::~exception
__ehhandler$??1Exception@Internal@Core@Math@Palmtree@@UAE@XZ:
  00008	8b 54 24 08	 mov	 edx, DWORD PTR [esp+8]
  0000c	8d 42 0c	 lea	 eax, DWORD PTR [edx+12]
  0000f	8b 4a f8	 mov	 ecx, DWORD PTR [edx-8]
  00012	33 c8		 xor	 ecx, eax
  00014	e8 00 00 00 00	 call	 @__security_check_cookie@4
  00019	b8 00 00 00 00	 mov	 eax, OFFSET __ehfuncinfo$??1Exception@Internal@Core@Math@Palmtree@@UAE@XZ
  0001e	e9 00 00 00 00	 jmp	 ___CxxFrameHandler3
text$x	ENDS
??1Exception@Internal@Core@Math@Palmtree@@UAE@XZ ENDP	; Palmtree::Math::Core::Internal::Exception::~Exception
; Function compile flags: /Ogtp
; File z:\sources\lunor\repos\rougemeilland\palmtree.math.core.uint\palmtree.math.core.uint\pmc_exception.h
; File c:\program files (x86)\microsoft visual studio\2017\community\vc\tools\msvc\14.16.27023\include\vcruntime_exception.h
; File z:\sources\lunor\repos\rougemeilland\palmtree.math.core.uint\palmtree.math.core.uint\pmc_exception.h
;	COMDAT ??0Exception@Internal@Core@Math@Palmtree@@QAE@ABV01234@@Z
_TEXT	SEGMENT
_this$ = -16						; size = 4
__$EHRec$ = -12						; size = 12
_p$ = 8							; size = 4
??0Exception@Internal@Core@Math@Palmtree@@QAE@ABV01234@@Z PROC ; Palmtree::Math::Core::Internal::Exception::Exception, COMDAT
; _this$ = ecx

; 62   :         Exception(const Exception& p) noexcept(true)

  00000	55		 push	 ebp
  00001	8b ec		 mov	 ebp, esp
  00003	6a ff		 push	 -1
  00005	68 00 00 00 00	 push	 __ehhandler$??0Exception@Internal@Core@Math@Palmtree@@QAE@ABV01234@@Z
  0000a	64 a1 00 00 00
	00		 mov	 eax, DWORD PTR fs:0
  00010	50		 push	 eax
  00011	51		 push	 ecx
  00012	a1 00 00 00 00	 mov	 eax, DWORD PTR ___security_cookie
  00017	33 c5		 xor	 eax, ebp
  00019	50		 push	 eax
  0001a	8d 45 f4	 lea	 eax, DWORD PTR __$EHRec$[ebp]
  0001d	64 a3 00 00 00
	00		 mov	 DWORD PTR fs:0, eax
  00023	8b d1		 mov	 edx, ecx
  00025	89 55 f0	 mov	 DWORD PTR _this$[ebp], edx
  00028	0f 57 c0	 xorps	 xmm0, xmm0
; File c:\program files (x86)\microsoft visual studio\2017\community\vc\tools\msvc\14.16.27023\include\vcruntime_exception.h

; 50   :     {

  0002b	c7 02 00 00 00
	00		 mov	 DWORD PTR [edx], OFFSET ??_7exception@std@@6B@
  00031	66 0f d6 42 04	 movq	 QWORD PTR [edx+4], xmm0
; File z:\sources\lunor\repos\rougemeilland\palmtree.math.core.uint\palmtree.math.core.uint\pmc_exception.h

; 62   :         Exception(const Exception& p) noexcept(true)

  00036	c7 45 fc 00 00
	00 00		 mov	 DWORD PTR __$EHRec$[ebp+8], 0

; 63   :         {
; 64   :             _code = p._code;

  0003d	8b 4d 08	 mov	 ecx, DWORD PTR _p$[ebp]
  00040	c7 02 00 00 00
	00		 mov	 DWORD PTR [edx], OFFSET ??_7Exception@Internal@Core@Math@Palmtree@@6B@
  00046	8b 41 0c	 mov	 eax, DWORD PTR [ecx+12]
  00049	89 42 0c	 mov	 DWORD PTR [edx+12], eax

; 65   :             _message = p._message;

  0004c	8b 41 10	 mov	 eax, DWORD PTR [ecx+16]
  0004f	89 42 10	 mov	 DWORD PTR [edx+16], eax

; 66   :             _data = p._data;

  00052	8b 41 14	 mov	 eax, DWORD PTR [ecx+20]
  00055	89 42 14	 mov	 DWORD PTR [edx+20], eax

; 67   :         }

  00058	c7 45 fc ff ff
	ff ff		 mov	 DWORD PTR __$EHRec$[ebp+8], -1
  0005f	8b c2		 mov	 eax, edx
  00061	8b 4d f4	 mov	 ecx, DWORD PTR __$EHRec$[ebp]
  00064	64 89 0d 00 00
	00 00		 mov	 DWORD PTR fs:0, ecx
  0006b	59		 pop	 ecx
  0006c	8b e5		 mov	 esp, ebp
  0006e	5d		 pop	 ebp
  0006f	c2 04 00	 ret	 4
_TEXT	ENDS
;	COMDAT text$x
text$x	SEGMENT
__unwindfunclet$??0Exception@Internal@Core@Math@Palmtree@@QAE@ABV01234@@Z$0:
  00000	8b 4d f0	 mov	 ecx, DWORD PTR _this$[ebp]
  00003	e9 00 00 00 00	 jmp	 ??1exception@std@@UAE@XZ ; std::exception::~exception
__ehhandler$??0Exception@Internal@Core@Math@Palmtree@@QAE@ABV01234@@Z:
  00008	8b 54 24 08	 mov	 edx, DWORD PTR [esp+8]
  0000c	8d 42 0c	 lea	 eax, DWORD PTR [edx+12]
  0000f	8b 4a f8	 mov	 ecx, DWORD PTR [edx-8]
  00012	33 c8		 xor	 ecx, eax
  00014	e8 00 00 00 00	 call	 @__security_check_cookie@4
  00019	b8 00 00 00 00	 mov	 eax, OFFSET __ehfuncinfo$??0Exception@Internal@Core@Math@Palmtree@@QAE@ABV01234@@Z
  0001e	e9 00 00 00 00	 jmp	 ___CxxFrameHandler3
text$x	ENDS
??0Exception@Internal@Core@Math@Palmtree@@QAE@ABV01234@@Z ENDP ; Palmtree::Math::Core::Internal::Exception::Exception
; Function compile flags: /Ogtp
; File z:\sources\lunor\repos\rougemeilland\palmtree.math.core.uint\palmtree.math.core.uint\pmc_exception.h
; File c:\program files (x86)\microsoft visual studio\2017\community\vc\tools\msvc\14.16.27023\include\vcruntime_exception.h
; File z:\sources\lunor\repos\rougemeilland\palmtree.math.core.uint\palmtree.math.core.uint\pmc_exception.h
;	COMDAT ??0Exception@Internal@Core@Math@Palmtree@@IAE@HPB_W0@Z
_TEXT	SEGMENT
_this$ = -16						; size = 4
__$EHRec$ = -12						; size = 12
_code$ = 8						; size = 4
_message$ = 12						; size = 4
_data$ = 16						; size = 4
??0Exception@Internal@Core@Math@Palmtree@@IAE@HPB_W0@Z PROC ; Palmtree::Math::Core::Internal::Exception::Exception, COMDAT
; _this$ = ecx

; 54   :         Exception(PMC_STATUS_CODE code, const wchar_t* message, const wchar_t* data) noexcept(true)

  00000	55		 push	 ebp
  00001	8b ec		 mov	 ebp, esp
  00003	6a ff		 push	 -1
  00005	68 00 00 00 00	 push	 __ehhandler$??0Exception@Internal@Core@Math@Palmtree@@IAE@HPB_W0@Z
  0000a	64 a1 00 00 00
	00		 mov	 eax, DWORD PTR fs:0
  00010	50		 push	 eax
  00011	51		 push	 ecx
  00012	a1 00 00 00 00	 mov	 eax, DWORD PTR ___security_cookie
  00017	33 c5		 xor	 eax, ebp
  00019	50		 push	 eax
  0001a	8d 45 f4	 lea	 eax, DWORD PTR __$EHRec$[ebp]
  0001d	64 a3 00 00 00
	00		 mov	 DWORD PTR fs:0, eax
  00023	89 4d f0	 mov	 DWORD PTR _this$[ebp], ecx
  00026	0f 57 c0	 xorps	 xmm0, xmm0
; File c:\program files (x86)\microsoft visual studio\2017\community\vc\tools\msvc\14.16.27023\include\vcruntime_exception.h

; 50   :     {

  00029	c7 01 00 00 00
	00		 mov	 DWORD PTR [ecx], OFFSET ??_7exception@std@@6B@
  0002f	66 0f d6 41 04	 movq	 QWORD PTR [ecx+4], xmm0
; File z:\sources\lunor\repos\rougemeilland\palmtree.math.core.uint\palmtree.math.core.uint\pmc_exception.h

; 54   :         Exception(PMC_STATUS_CODE code, const wchar_t* message, const wchar_t* data) noexcept(true)

  00034	c7 45 fc 00 00
	00 00		 mov	 DWORD PTR __$EHRec$[ebp+8], 0

; 55   :         {
; 56   :             _code = code;

  0003b	8b 45 08	 mov	 eax, DWORD PTR _code$[ebp]
  0003e	89 41 0c	 mov	 DWORD PTR [ecx+12], eax

; 57   :             _message = message;

  00041	8b 45 0c	 mov	 eax, DWORD PTR _message$[ebp]
  00044	89 41 10	 mov	 DWORD PTR [ecx+16], eax

; 58   :             _data = data;

  00047	8b 45 10	 mov	 eax, DWORD PTR _data$[ebp]
  0004a	c7 01 00 00 00
	00		 mov	 DWORD PTR [ecx], OFFSET ??_7Exception@Internal@Core@Math@Palmtree@@6B@
  00050	89 41 14	 mov	 DWORD PTR [ecx+20], eax

; 59   :         }

  00053	c7 45 fc ff ff
	ff ff		 mov	 DWORD PTR __$EHRec$[ebp+8], -1
  0005a	8b c1		 mov	 eax, ecx
  0005c	8b 4d f4	 mov	 ecx, DWORD PTR __$EHRec$[ebp]
  0005f	64 89 0d 00 00
	00 00		 mov	 DWORD PTR fs:0, ecx
  00066	59		 pop	 ecx
  00067	8b e5		 mov	 esp, ebp
  00069	5d		 pop	 ebp
  0006a	c2 0c 00	 ret	 12			; 0000000cH
_TEXT	ENDS
;	COMDAT text$x
text$x	SEGMENT
__unwindfunclet$??0Exception@Internal@Core@Math@Palmtree@@IAE@HPB_W0@Z$0:
  00000	8b 4d f0	 mov	 ecx, DWORD PTR _this$[ebp]
  00003	e9 00 00 00 00	 jmp	 ??1exception@std@@UAE@XZ ; std::exception::~exception
__ehhandler$??0Exception@Internal@Core@Math@Palmtree@@IAE@HPB_W0@Z:
  00008	8b 54 24 08	 mov	 edx, DWORD PTR [esp+8]
  0000c	8d 42 0c	 lea	 eax, DWORD PTR [edx+12]
  0000f	8b 4a f8	 mov	 ecx, DWORD PTR [edx-8]
  00012	33 c8		 xor	 ecx, eax
  00014	e8 00 00 00 00	 call	 @__security_check_cookie@4
  00019	b8 00 00 00 00	 mov	 eax, OFFSET __ehfuncinfo$??0Exception@Internal@Core@Math@Palmtree@@IAE@HPB_W0@Z
  0001e	e9 00 00 00 00	 jmp	 ___CxxFrameHandler3
text$x	ENDS
??0Exception@Internal@Core@Math@Palmtree@@IAE@HPB_W0@Z ENDP ; Palmtree::Math::Core::Internal::Exception::Exception
; Function compile flags: /Ogtp
; File z:\sources\lunor\repos\rougemeilland\palmtree.math.core.uint\palmtree.math.core.uint\pmc_exception.h
; File c:\program files (x86)\microsoft visual studio\2017\community\vc\tools\msvc\14.16.27023\include\vcruntime_exception.h
; File z:\sources\lunor\repos\rougemeilland\palmtree.math.core.uint\palmtree.math.core.uint\pmc_exception.h
;	COMDAT ??0Exception@Internal@Core@Math@Palmtree@@IAE@HPB_W@Z
_TEXT	SEGMENT
_this$ = -16						; size = 4
__$EHRec$ = -12						; size = 12
_code$ = 8						; size = 4
_message$ = 12						; size = 4
??0Exception@Internal@Core@Math@Palmtree@@IAE@HPB_W@Z PROC ; Palmtree::Math::Core::Internal::Exception::Exception, COMDAT
; _this$ = ecx

; 47   :         Exception(PMC_STATUS_CODE code, const wchar_t* message) noexcept(true)

  00000	55		 push	 ebp
  00001	8b ec		 mov	 ebp, esp
  00003	6a ff		 push	 -1
  00005	68 00 00 00 00	 push	 __ehhandler$??0Exception@Internal@Core@Math@Palmtree@@IAE@HPB_W@Z
  0000a	64 a1 00 00 00
	00		 mov	 eax, DWORD PTR fs:0
  00010	50		 push	 eax
  00011	51		 push	 ecx
  00012	a1 00 00 00 00	 mov	 eax, DWORD PTR ___security_cookie
  00017	33 c5		 xor	 eax, ebp
  00019	50		 push	 eax
  0001a	8d 45 f4	 lea	 eax, DWORD PTR __$EHRec$[ebp]
  0001d	64 a3 00 00 00
	00		 mov	 DWORD PTR fs:0, eax
  00023	89 4d f0	 mov	 DWORD PTR _this$[ebp], ecx
  00026	0f 57 c0	 xorps	 xmm0, xmm0
; File c:\program files (x86)\microsoft visual studio\2017\community\vc\tools\msvc\14.16.27023\include\vcruntime_exception.h

; 50   :     {

  00029	c7 01 00 00 00
	00		 mov	 DWORD PTR [ecx], OFFSET ??_7exception@std@@6B@
  0002f	66 0f d6 41 04	 movq	 QWORD PTR [ecx+4], xmm0
; File z:\sources\lunor\repos\rougemeilland\palmtree.math.core.uint\palmtree.math.core.uint\pmc_exception.h

; 47   :         Exception(PMC_STATUS_CODE code, const wchar_t* message) noexcept(true)

  00034	c7 45 fc 00 00
	00 00		 mov	 DWORD PTR __$EHRec$[ebp+8], 0

; 48   :         {
; 49   :             _code = code;

  0003b	8b 45 08	 mov	 eax, DWORD PTR _code$[ebp]
  0003e	89 41 0c	 mov	 DWORD PTR [ecx+12], eax

; 50   :             _message = message;

  00041	8b 45 0c	 mov	 eax, DWORD PTR _message$[ebp]
  00044	c7 01 00 00 00
	00		 mov	 DWORD PTR [ecx], OFFSET ??_7Exception@Internal@Core@Math@Palmtree@@6B@
  0004a	89 41 10	 mov	 DWORD PTR [ecx+16], eax

; 51   :             _data = nullptr;

  0004d	c7 41 14 00 00
	00 00		 mov	 DWORD PTR [ecx+20], 0

; 52   :         }

  00054	c7 45 fc ff ff
	ff ff		 mov	 DWORD PTR __$EHRec$[ebp+8], -1
  0005b	8b c1		 mov	 eax, ecx
  0005d	8b 4d f4	 mov	 ecx, DWORD PTR __$EHRec$[ebp]
  00060	64 89 0d 00 00
	00 00		 mov	 DWORD PTR fs:0, ecx
  00067	59		 pop	 ecx
  00068	8b e5		 mov	 esp, ebp
  0006a	5d		 pop	 ebp
  0006b	c2 08 00	 ret	 8
_TEXT	ENDS
;	COMDAT text$x
text$x	SEGMENT
__unwindfunclet$??0Exception@Internal@Core@Math@Palmtree@@IAE@HPB_W@Z$0:
  00000	8b 4d f0	 mov	 ecx, DWORD PTR _this$[ebp]
  00003	e9 00 00 00 00	 jmp	 ??1exception@std@@UAE@XZ ; std::exception::~exception
__ehhandler$??0Exception@Internal@Core@Math@Palmtree@@IAE@HPB_W@Z:
  00008	8b 54 24 08	 mov	 edx, DWORD PTR [esp+8]
  0000c	8d 42 0c	 lea	 eax, DWORD PTR [edx+12]
  0000f	8b 4a f8	 mov	 ecx, DWORD PTR [edx-8]
  00012	33 c8		 xor	 ecx, eax
  00014	e8 00 00 00 00	 call	 @__security_check_cookie@4
  00019	b8 00 00 00 00	 mov	 eax, OFFSET __ehfuncinfo$??0Exception@Internal@Core@Math@Palmtree@@IAE@HPB_W@Z
  0001e	e9 00 00 00 00	 jmp	 ___CxxFrameHandler3
text$x	ENDS
??0Exception@Internal@Core@Math@Palmtree@@IAE@HPB_W@Z ENDP ; Palmtree::Math::Core::Internal::Exception::Exception
; Function compile flags: /Ogtp
; File c:\program files (x86)\microsoft visual studio\2017\community\vc\tools\msvc\14.16.27023\include\vcruntime_exception.h
;	COMDAT ??_Gexception@std@@UAEPAXI@Z
_TEXT	SEGMENT
__$EHRec$ = -12						; size = 12
___flags$ = 8						; size = 4
??_Gexception@std@@UAEPAXI@Z PROC			; std::exception::`scalar deleting destructor', COMDAT
; _this$ = ecx
  00000	55		 push	 ebp
  00001	8b ec		 mov	 ebp, esp
  00003	6a ff		 push	 -1
  00005	68 00 00 00 00	 push	 __ehhandler$??_Gexception@std@@UAEPAXI@Z
  0000a	64 a1 00 00 00
	00		 mov	 eax, DWORD PTR fs:0
  00010	50		 push	 eax
  00011	56		 push	 esi
  00012	a1 00 00 00 00	 mov	 eax, DWORD PTR ___security_cookie
  00017	33 c5		 xor	 eax, ebp
  00019	50		 push	 eax
  0001a	8d 45 f4	 lea	 eax, DWORD PTR __$EHRec$[ebp]
  0001d	64 a3 00 00 00
	00		 mov	 DWORD PTR fs:0, eax
  00023	8b f1		 mov	 esi, ecx

; 86   :         __std_exception_destroy(&_Data);

  00025	8d 46 04	 lea	 eax, DWORD PTR [esi+4]
  00028	c7 06 00 00 00
	00		 mov	 DWORD PTR [esi], OFFSET ??_7exception@std@@6B@
  0002e	50		 push	 eax
  0002f	e8 00 00 00 00	 call	 ___std_exception_destroy
  00034	83 c4 04	 add	 esp, 4
  00037	f6 45 08 01	 test	 BYTE PTR ___flags$[ebp], 1
  0003b	74 0b		 je	 SHORT $LN6@scalar
  0003d	6a 0c		 push	 12			; 0000000cH
  0003f	56		 push	 esi
  00040	e8 00 00 00 00	 call	 ??3@YAXPAXI@Z		; operator delete
  00045	83 c4 08	 add	 esp, 8
$LN6@scalar:
  00048	8b c6		 mov	 eax, esi
  0004a	8b 4d f4	 mov	 ecx, DWORD PTR __$EHRec$[ebp]
  0004d	64 89 0d 00 00
	00 00		 mov	 DWORD PTR fs:0, ecx
  00054	59		 pop	 ecx
  00055	5e		 pop	 esi
  00056	8b e5		 mov	 esp, ebp
  00058	5d		 pop	 ebp
  00059	c2 04 00	 ret	 4
_TEXT	ENDS
;	COMDAT text$x
text$x	SEGMENT
__ehhandler$??_Gexception@std@@UAEPAXI@Z:
  00000	8b 54 24 08	 mov	 edx, DWORD PTR [esp+8]
  00004	8d 42 0c	 lea	 eax, DWORD PTR [edx+12]
  00007	8b 4a f8	 mov	 ecx, DWORD PTR [edx-8]
  0000a	33 c8		 xor	 ecx, eax
  0000c	e8 00 00 00 00	 call	 @__security_check_cookie@4
  00011	b8 00 00 00 00	 mov	 eax, OFFSET __ehfuncinfo$??_Gexception@std@@UAEPAXI@Z
  00016	e9 00 00 00 00	 jmp	 ___CxxFrameHandler3
text$x	ENDS
??_Gexception@std@@UAEPAXI@Z ENDP			; std::exception::`scalar deleting destructor'
; Function compile flags: /Ogtp
; File c:\program files (x86)\microsoft visual studio\2017\community\vc\tools\msvc\14.16.27023\include\vcruntime_exception.h
;	COMDAT ?what@exception@std@@UBEPBDXZ
_TEXT	SEGMENT
?what@exception@std@@UBEPBDXZ PROC			; std::exception::what, COMDAT
; _this$ = ecx

; 91   :         return _Data._What ? _Data._What : "Unknown exception";

  00000	8b 49 04	 mov	 ecx, DWORD PTR [ecx+4]
  00003	b8 00 00 00 00	 mov	 eax, OFFSET ??_C@_0BC@EOODALEL@Unknown?5exception@
  00008	85 c9		 test	 ecx, ecx
  0000a	0f 45 c1	 cmovne	 eax, ecx

; 92   :     }

  0000d	c3		 ret	 0
?what@exception@std@@UBEPBDXZ ENDP			; std::exception::what
_TEXT	ENDS
; Function compile flags: /Ogtp
; File c:\program files (x86)\microsoft visual studio\2017\community\vc\tools\msvc\14.16.27023\include\vcruntime_exception.h
;	COMDAT ??1exception@std@@UAE@XZ
_TEXT	SEGMENT
__$EHRec$ = -12						; size = 12
??1exception@std@@UAE@XZ PROC				; std::exception::~exception, COMDAT
; _this$ = ecx

; 85   :     {

  00000	55		 push	 ebp
  00001	8b ec		 mov	 ebp, esp
  00003	6a ff		 push	 -1
  00005	68 00 00 00 00	 push	 __ehhandler$??1exception@std@@UAE@XZ
  0000a	64 a1 00 00 00
	00		 mov	 eax, DWORD PTR fs:0
  00010	50		 push	 eax
  00011	a1 00 00 00 00	 mov	 eax, DWORD PTR ___security_cookie
  00016	33 c5		 xor	 eax, ebp
  00018	50		 push	 eax
  00019	8d 45 f4	 lea	 eax, DWORD PTR __$EHRec$[ebp]
  0001c	64 a3 00 00 00
	00		 mov	 DWORD PTR fs:0, eax

; 86   :         __std_exception_destroy(&_Data);

  00022	8d 41 04	 lea	 eax, DWORD PTR [ecx+4]
  00025	c7 01 00 00 00
	00		 mov	 DWORD PTR [ecx], OFFSET ??_7exception@std@@6B@
  0002b	50		 push	 eax
  0002c	e8 00 00 00 00	 call	 ___std_exception_destroy
  00031	83 c4 04	 add	 esp, 4

; 87   :     }

  00034	8b 4d f4	 mov	 ecx, DWORD PTR __$EHRec$[ebp]
  00037	64 89 0d 00 00
	00 00		 mov	 DWORD PTR fs:0, ecx
  0003e	59		 pop	 ecx
  0003f	8b e5		 mov	 esp, ebp
  00041	5d		 pop	 ebp
  00042	c3		 ret	 0
_TEXT	ENDS
;	COMDAT text$x
text$x	SEGMENT
__ehhandler$??1exception@std@@UAE@XZ:
  00000	8b 54 24 08	 mov	 edx, DWORD PTR [esp+8]
  00004	8d 42 0c	 lea	 eax, DWORD PTR [edx+12]
  00007	8b 4a fc	 mov	 ecx, DWORD PTR [edx-4]
  0000a	33 c8		 xor	 ecx, eax
  0000c	e8 00 00 00 00	 call	 @__security_check_cookie@4
  00011	b8 00 00 00 00	 mov	 eax, OFFSET __ehfuncinfo$??1exception@std@@UAE@XZ
  00016	e9 00 00 00 00	 jmp	 ___CxxFrameHandler3
text$x	ENDS
??1exception@std@@UAE@XZ ENDP				; std::exception::~exception
; Function compile flags: /Ogtp
; File c:\program files (x86)\microsoft visual studio\2017\community\vc\tools\msvc\14.16.27023\include\vcruntime_exception.h
;	COMDAT ??0exception@std@@QAE@XZ
_TEXT	SEGMENT
??0exception@std@@QAE@XZ PROC				; std::exception::exception, COMDAT
; _this$ = ecx

; 50   :     {

  00000	0f 57 c0	 xorps	 xmm0, xmm0
  00003	c7 01 00 00 00
	00		 mov	 DWORD PTR [ecx], OFFSET ??_7exception@std@@6B@
  00009	66 0f d6 41 04	 movq	 QWORD PTR [ecx+4], xmm0

; 51   :     }

  0000e	8b c1		 mov	 eax, ecx
  00010	c3		 ret	 0
??0exception@std@@QAE@XZ ENDP				; std::exception::exception
_TEXT	ENDS
END
