; Listing generated by Microsoft (R) Optimizing Compiler Version 19.16.27027.1 

	TITLE	Z:\Sources\Lunor\Repos\rougemeilland\Palmtree.Math.Core.Uint\Palmtree.Math.Core.Uint\pmc_memory.c
	.686P
	.XMM
	include listing.inc
	.model	flat

INCLUDELIB MSVCRT
INCLUDELIB OLDNAMES

_DATA	SEGMENT
COMM	_number_zero:BYTE:028H
COMM	_number_one:BYTE:028H
COMM	_hLocalHeap:DWORD
_DATA	ENDS
PUBLIC	_AllocateHeapArea
PUBLIC	_DeallocateHeapArea
PUBLIC	_AllocateBlock
PUBLIC	_DeallocateBlock
PUBLIC	_CheckBlockLight
PUBLIC	_AttatchNumber
PUBLIC	_AllocateNumber
PUBLIC	_DetatchNumber
PUBLIC	_DeallocateNumber
PUBLIC	_CommitNumber
PUBLIC	_CheckNumber
PUBLIC	_DuplicateNumber
PUBLIC	_InitializeChainBuffer
PUBLIC	_CleanUpChainBuffer
PUBLIC	_AllocateChainedBuffer
PUBLIC	_CheckChainedBuffer
PUBLIC	_DeallocateChainedBuffer
PUBLIC	_Initialize_Memory
PUBLIC	_PMC_Dispose@4
PUBLIC	_PMC_GetConstantValue_I@8
EXTRN	__imp__HeapCreate@12:PROC
EXTRN	__imp__HeapDestroy@4:PROC
EXTRN	__imp__HeapAlloc@12:PROC
EXTRN	__imp__HeapFree@12:PROC
EXTRN	__imp__GetTickCount@0:PROC
EXTRN	__aulldvrm:PROC
; Function compile flags: /Ogtp
; File z:\sources\lunor\repos\rougemeilland\palmtree.math.core.uint\palmtree.math.core.uint\pmc_memory.c
;	COMDAT _DeallocateChainedBuffer_Imp
_TEXT	SEGMENT
_header$ = 8						; size = 4
_DeallocateChainedBuffer_Imp PROC			; COMDAT

; 612  : {

	push	ebp
	mov	ebp, esp

; 613  :     __CHAIN_BUFFER_TAG* tag = &header->tag;
; 614  :     tag->next->prev = tag->prev;

	mov	edx, DWORD PTR _header$[ebp]

; 615  :     tag->prev->next = tag->next;
; 616  : #ifdef _DEBUG
; 617  :     _FILL_MEMORY_32((_UINT32_T*)header, 0xcccccccc, (sizeof(*header) + header->header.body.user_data_size + sizeof(_UINT32_T)) / sizeof(_UINT32_T));
; 618  : #endif
; 619  :     HeapFree(hLocalHeap, 0, tag);

	push	edx
	push	0
	mov	ecx, DWORD PTR [edx]
	mov	eax, DWORD PTR [edx+4]
	mov	DWORD PTR [ecx+4], eax
	mov	ecx, DWORD PTR [edx+4]
	mov	eax, DWORD PTR [edx]
	mov	DWORD PTR [ecx], eax
	push	DWORD PTR _hLocalHeap
	call	DWORD PTR __imp__HeapFree@12

; 620  : }

	pop	ebp
	ret	0
_DeallocateChainedBuffer_Imp ENDP
_TEXT	ENDS
; Function compile flags: /Ogtp
; File z:\sources\lunor\repos\rougemeilland\palmtree.math.core.uint\palmtree.math.core.uint\pmc_memory.c
;	COMDAT _CheckChainedBuffer_Imp
_TEXT	SEGMENT
_header$ = 8						; size = 4
_CheckChainedBuffer_Imp PROC				; COMDAT

; 597  : #ifdef _DEBUG
; 598  :     size_t user_data_size = header->header.body.user_data_size;
; 599  :     _UINT32_T code1 = header->header.body.check_code;
; 600  :     _UINT32_T code2 = *(_UINT32_T*)((unsigned char*)header + sizeof(*header) + user_data_size);
; 601  :     if (code1 != code2)
; 602  :     {
; 603  :         // コードが一致していない場合 ≒ バッファオーバーランが発生している場合
; 604  : 
; 605  :         __UNIT_TYPE_DIV temp_r;
; 606  :         _DIVREM_UNIT(0, 1, 0, &temp_r);// 故意にゼロ除算例外を発生させる
; 607  :     }
; 608  : #endif
; 609  : }

	ret	0
_CheckChainedBuffer_Imp ENDP
_TEXT	ENDS
; Function compile flags: /Ogtp
; File z:\sources\lunor\repos\rougemeilland\palmtree.math.core.uint\palmtree.math.core.uint\pmc_memory.c
; File z:\sources\lunor\repos\rougemeilland\palmtree.math.core.uint\palmtree.math.core.uint\pmc_inline_func.h
; File z:\sources\lunor\repos\rougemeilland\palmtree.math.core.uint\palmtree.math.core.uint\pmc_memory.c
;	COMDAT _GetTrailingZeroBitCount
_TEXT	SEGMENT
_p$ = 8							; size = 4
_word_count$ = 12					; size = 4
_GetTrailingZeroBitCount PROC				; COMDAT

; 465  : {

	push	ebp
	mov	ebp, esp

; 466  :     __UNIT_TYPE bit_count = 0;
; 467  :     while (word_count > 0)

	mov	eax, DWORD PTR _word_count$[ebp]
	xor	edx, edx
	push	esi
	test	eax, eax
	je	SHORT $LN3@GetTrailin
	mov	ecx, DWORD PTR _p$[ebp]
$LL2@GetTrailin:

; 468  :     {
; 469  :         --word_count;
; 470  :         if (*p != 0)

	mov	esi, DWORD PTR [ecx]
	dec	eax
	test	esi, esi
	jne	SHORT $LN10@GetTrailin

; 472  :         bit_count += __UNIT_TYPE_BIT_COUNT;

	add	edx, 32					; 00000020H

; 473  :         ++p;

	add	ecx, 4
	test	eax, eax
	jne	SHORT $LL2@GetTrailin
$LN3@GetTrailin:

; 474  :     }
; 475  :     // このルートには到達しないはず
; 476  :     return (0);

	xor	eax, eax
	pop	esi

; 477  : }

	pop	ebp
	ret	0
$LN10@GetTrailin:
; File z:\sources\lunor\repos\rougemeilland\palmtree.math.core.uint\palmtree.math.core.uint\pmc_inline_func.h

; 709  :         _BitScanForward(&pos, x);

	bsf	eax, esi
	pop	esi
; File z:\sources\lunor\repos\rougemeilland\palmtree.math.core.uint\palmtree.math.core.uint\pmc_memory.c

; 471  :             return (bit_count + _TZCNT_ALT_UNIT(*p));

	add	eax, edx

; 477  : }

	pop	ebp
	ret	0
_GetTrailingZeroBitCount ENDP
_TEXT	ENDS
; Function compile flags: /Ogtp
; File z:\sources\lunor\repos\rougemeilland\palmtree.math.core.uint\palmtree.math.core.uint\pmc_memory.c
; File z:\sources\lunor\repos\rougemeilland\palmtree.math.core.uint\palmtree.math.core.uint\pmc_inline_func.h
; File z:\sources\lunor\repos\rougemeilland\palmtree.math.core.uint\palmtree.math.core.uint\pmc_memory.c
; File z:\sources\lunor\repos\rougemeilland\palmtree.math.core.uint\palmtree.math.core.uint\pmc_inline_func.h
; File z:\sources\lunor\repos\rougemeilland\palmtree.math.core.uint\palmtree.math.core.uint\pmc_memory.c
; File z:\sources\lunor\repos\rougemeilland\palmtree.math.core.uint\palmtree.math.core.uint\pmc_inline_func.h
; File z:\sources\lunor\repos\rougemeilland\palmtree.math.core.uint\palmtree.math.core.uint\pmc_memory.c
;	COMDAT _GetEffectiveBitLength
_TEXT	SEGMENT
_p$ = 8							; size = 4
_word_count$ = 12					; size = 4
_effective_word_count$ = 16				; size = 4
_GetEffectiveBitLength PROC				; COMDAT

; 443  : {

	push	ebp
	mov	ebp, esp

; 444  :     if (p == NULL)

	mov	eax, DWORD PTR _p$[ebp]
	test	eax, eax
	je	SHORT $LN3@GetEffecti

; 445  :     {
; 446  :         *effective_word_count = 0;
; 447  :         return (0);
; 448  :     }
; 449  :     p += word_count;

	mov	edx, DWORD PTR _word_count$[ebp]
	lea	ecx, DWORD PTR [eax+edx*4]

; 450  :     while (word_count != 0)

	test	edx, edx
	je	SHORT $LN3@GetEffecti
$LL2@GetEffecti:

; 451  :     {
; 452  :         --p;
; 453  :         if (*p != 0)

	cmp	DWORD PTR [ecx-4], 0
	lea	ecx, DWORD PTR [ecx-4]
	jne	SHORT $LN11@GetEffecti

; 457  :         }
; 458  :         --word_count;

	sub	edx, 1
	jne	SHORT $LL2@GetEffecti
$LN3@GetEffecti:

; 459  :     }
; 460  :     *effective_word_count = 0;

	mov	eax, DWORD PTR _effective_word_count$[ebp]
	mov	DWORD PTR [eax], 0

; 461  :     return (0);

	xor	eax, eax

; 462  : }

	pop	ebp
	ret	0
$LN11@GetEffecti:

; 454  :         {
; 455  :             *effective_word_count = word_count;

	mov	eax, DWORD PTR _effective_word_count$[ebp]
	mov	DWORD PTR [eax], edx

; 456  :             return (word_count * __UNIT_TYPE_BIT_COUNT - _LZCNT_ALT_UNIT(*p));

	mov	eax, DWORD PTR [ecx]
; File z:\sources\lunor\repos\rougemeilland\palmtree.math.core.uint\palmtree.math.core.uint\pmc_inline_func.h

; 624  :         if (x == 0)

	test	eax, eax
	jne	SHORT $LN8@GetEffecti

; 625  :             return (sizeof(x) * 8);

	mov	eax, 32					; 00000020H
; File z:\sources\lunor\repos\rougemeilland\palmtree.math.core.uint\palmtree.math.core.uint\pmc_memory.c

; 456  :             return (word_count * __UNIT_TYPE_BIT_COUNT - _LZCNT_ALT_UNIT(*p));

	shl	edx, 5
	sub	edx, eax
	mov	eax, edx

; 462  : }

	pop	ebp
	ret	0
$LN8@GetEffecti:
; File z:\sources\lunor\repos\rougemeilland\palmtree.math.core.uint\palmtree.math.core.uint\pmc_inline_func.h

; 629  :         _BitScanReverse(&pos, x);

	bsr	ecx, eax

; 648  :         return (sizeof(x) * 8 - 1 - pos);

	mov	eax, 31					; 0000001fH
; File z:\sources\lunor\repos\rougemeilland\palmtree.math.core.uint\palmtree.math.core.uint\pmc_memory.c

; 456  :             return (word_count * __UNIT_TYPE_BIT_COUNT - _LZCNT_ALT_UNIT(*p));

	shl	edx, 5
; File z:\sources\lunor\repos\rougemeilland\palmtree.math.core.uint\palmtree.math.core.uint\pmc_inline_func.h

; 648  :         return (sizeof(x) * 8 - 1 - pos);

	sub	eax, ecx
; File z:\sources\lunor\repos\rougemeilland\palmtree.math.core.uint\palmtree.math.core.uint\pmc_memory.c

; 456  :             return (word_count * __UNIT_TYPE_BIT_COUNT - _LZCNT_ALT_UNIT(*p));

	sub	edx, eax
	mov	eax, edx

; 462  : }

	pop	ebp
	ret	0
_GetEffectiveBitLength ENDP
_TEXT	ENDS
; Function compile flags: /Ogtp
; File z:\sources\lunor\repos\rougemeilland\palmtree.math.core.uint\palmtree.math.core.uint\pmc_memory.c
; File z:\sources\lunor\repos\rougemeilland\palmtree.math.core.uint\palmtree.math.core.uint\pmc_inline_func.h
; File z:\sources\lunor\repos\rougemeilland\palmtree.math.core.uint\palmtree.math.core.uint\pmc_memory.c
; File z:\sources\lunor\repos\rougemeilland\palmtree.math.core.uint\palmtree.math.core.uint\pmc_inline_func.h
; File z:\sources\lunor\repos\rougemeilland\palmtree.math.core.uint\palmtree.math.core.uint\pmc_memory.c
;	COMDAT _CleanUpNumber
_TEXT	SEGMENT
_p$ = 8							; size = 4
_CleanUpNumber PROC					; COMDAT

; 396  : {

	push	ebp
	mov	ebp, esp
	push	esi

; 397  :     if (p->BLOCK != NULL)

	mov	esi, DWORD PTR _p$[ebp]
	mov	eax, DWORD PTR [esi+36]
	test	eax, eax
	je	SHORT $LN2@CleanUpNum

; 398  :     {
; 399  :         DeallocateBlock(p->BLOCK, p->BLOCK_COUNT);

	mov	ecx, DWORD PTR [esi+32]

; 202  :         __UNIT_TYPE* p = buffer - 1;

	lea	edx, DWORD PTR [eax-4]

; 203  :         if (*p != buffer_words)

	cmp	DWORD PTR [edx], ecx
	jne	SHORT $LN7@CleanUpNum

; 204  :         {
; 205  :             // もし、buffer の指す内容が壊れていることが明らかならば、二重解放の恐れがあるので解放処理はしない。
; 206  :         }
; 207  :         else
; 208  :         {
; 209  :             // 使用済みのバッファを既定のデータで塗りつぶす。
; 210  :             _FILL_MEMORY_UNIT(p, DEFAULT_MEMORY_DATA, buffer_words + 2);

	push	edi

; 212  :             HeapFree(hLocalHeap, 0, p);

	push	edx
	add	ecx, 2
; File z:\sources\lunor\repos\rougemeilland\palmtree.math.core.uint\palmtree.math.core.uint\pmc_inline_func.h

; 162  :         __stosd((unsigned long*)d, x, (unsigned long)count);

	mov	edi, edx
	mov	eax, -858993460				; ccccccccH
; File z:\sources\lunor\repos\rougemeilland\palmtree.math.core.uint\palmtree.math.core.uint\pmc_memory.c

; 212  :             HeapFree(hLocalHeap, 0, p);

	push	0
; File z:\sources\lunor\repos\rougemeilland\palmtree.math.core.uint\palmtree.math.core.uint\pmc_inline_func.h

; 162  :         __stosd((unsigned long*)d, x, (unsigned long)count);

	rep stosd
; File z:\sources\lunor\repos\rougemeilland\palmtree.math.core.uint\palmtree.math.core.uint\pmc_memory.c

; 212  :             HeapFree(hLocalHeap, 0, p);

	push	DWORD PTR _hLocalHeap
	call	DWORD PTR __imp__HeapFree@12
	pop	edi
$LN7@CleanUpNum:

; 400  :         p->BLOCK = NULL;

	mov	DWORD PTR [esi+36], 0
$LN2@CleanUpNum:
	pop	esi

; 401  :     }
; 402  : }

	pop	ebp
	ret	0
_CleanUpNumber ENDP
_TEXT	ENDS
; Function compile flags: /Ogtp
; File z:\sources\lunor\repos\rougemeilland\palmtree.math.core.uint\palmtree.math.core.uint\pmc_memory.c
; File z:\sources\lunor\repos\rougemeilland\palmtree.math.core.uint\palmtree.math.core.uint\pmc_inline_func.h
; File z:\sources\lunor\repos\rougemeilland\palmtree.math.core.uint\palmtree.math.core.uint\pmc_memory.c
;	COMDAT _InitializeNumber
_TEXT	SEGMENT
_p$ = 8							; size = 4
_bit_count$ = 12					; size = 4
_light_check_code$ = 16					; size = 4
_InitializeNumber PROC					; COMDAT

; 368  : {

	push	ebp
	mov	ebp, esp
	push	esi
	push	edi

; 369  :     if (bit_count > 0)

	mov	edi, DWORD PTR _bit_count$[ebp]
	test	edi, edi
	je	SHORT $LN2@Initialize
; File z:\sources\lunor\repos\rougemeilland\palmtree.math.core.uint\palmtree.math.core.uint\pmc_inline_func.h

; 188  :         return ((u + v - 1) / v);

	lea	esi, DWORD PTR [edi+31]
	shr	esi, 5
; File z:\sources\lunor\repos\rougemeilland\palmtree.math.core.uint\palmtree.math.core.uint\pmc_memory.c

; 164  : 	__UNIT_TYPE bytes = words2 * __UNIT_TYPE_BYTE_COUNT;

	lea	eax, DWORD PTR [esi*4+8]

; 165  : 	__UNIT_TYPE* buffer = (__UNIT_TYPE*)HeapAlloc(hLocalHeap, HEAP_ZERO_MEMORY, bytes);

	push	eax
	push	8
	push	DWORD PTR _hLocalHeap
	call	DWORD PTR __imp__HeapAlloc@12

; 166  : 	if (buffer == NULL)

	test	eax, eax
	je	SHORT $LN26@Initialize

; 167  : 		return (NULL);
; 168  : 	buffer[0] = words1;
; 169  :     *allocated_block_words = words1;
; 170  : #ifdef _DEBUG
; 171  :     // 乱数もどきを生成する。
; 172  : #ifdef _M_IX86
; 173  :     __UNIT_TYPE r = GetTickCount();
; 174  : #elif defined(_M_IX64)
; 175  : #ifdef _MSC_VER
; 176  :     __UNIT_TYPE r = GetTickCount64();
; 177  : #elif defined(__GNUC__)
; 178  :     _UINT32_T temp = GetTickCount();
; 179  :     __UNIT_TYPE r = _FROMWORDTODWORD(temp, temp);
; 180  : #else
; 181  : #error unknown compiler
; 182  : #endif
; 183  : #else
; 184  : #error unknown platform
; 185  : #endif
; 186  :     __UNIT_TYPE check_code = configuration_info.MEMORY_VERIFICATION_ENABLED ? CalculateCheckCode(&buffer[1], words1) : CHECK_CODE_INIT | r;
; 187  : #else
; 188  :     __UNIT_TYPE check_code = 0;
; 189  : #endif
; 190  :     buffer[words1 + 1] = check_code ^ (__UNIT_TYPE)&buffer[words1 + 1];

	lea	ecx, DWORD PTR [esi+1]
	mov	DWORD PTR [eax], esi
	lea	ecx, DWORD PTR [eax+ecx*4]
	mov	DWORD PTR [ecx], ecx

; 191  :     if (code != NULL)

	mov	ecx, DWORD PTR _light_check_code$[ebp]
	test	ecx, ecx
	je	SHORT $LN8@Initialize

; 192  :         *code = check_code;

	mov	DWORD PTR [ecx], 0
$LN8@Initialize:

; 193  :     return (&buffer[1]);

	lea	edx, DWORD PTR [eax+4]

; 370  :     {
; 371  :         __UNIT_TYPE word_count;
; 372  :         __UNIT_TYPE* block = AllocateBlock(bit_count, &word_count, light_check_code);
; 373  :         if (block == NULL)

	test	edx, edx
	je	SHORT $LN26@Initialize

; 375  :         ClearNumberHeader(p);

	mov	ecx, DWORD PTR _p$[ebp]
	push	ecx
	call	_ClearNumberHeader
	add	esp, 4

; 376  :         p->SIGNATURE1 = PMC_SIGNATURE;
; 377  :         p->SIGNATURE2 = PMC_UINT_SIGNATURE;
; 378  :         p->UNIT_BIT_COUNT = bit_count;
; 379  :         p->BLOCK_COUNT = word_count;
; 380  :         p->BLOCK = block;
; 381  :     }

	jmp	SHORT $LN3@Initialize
$LN26@Initialize:
	pop	edi

; 374  :             return (PMC_STATUS_NOT_ENOUGH_MEMORY);

	mov	eax, -6					; fffffffaH

; 393  : }

	pop	esi
	pop	ebp
	ret	0
$LN2@Initialize:

; 293  :             __p[0] = 0;

	mov	ecx, DWORD PTR _p$[ebp]

; 382  :     else
; 383  :     {
; 384  :         // bit_count に 0 が与えられるのは、数値が 0 の場合。
; 385  :         ClearNumberHeader(p);
; 386  :         p->SIGNATURE1 = PMC_SIGNATURE;
; 387  :         p->SIGNATURE2 = PMC_UINT_SIGNATURE;
; 388  :         p->UNIT_BIT_COUNT = 0;
; 389  :         p->BLOCK_COUNT = 0;
; 390  :         p->BLOCK = NULL;

	xor	edx, edx
	xor	esi, esi
	xor	edi, edi

; 293  :             __p[0] = 0;

	mov	DWORD PTR [ecx], 0

; 294  :             __p[1] = 0;
; 295  :             __p[2] = 0;
; 296  :             __p[3] = 0;

	mov	DWORD PTR [ecx+12], 0

; 297  :             __p[4] = 0;
; 298  :             __p[5] = 0;

	mov	DWORD PTR [ecx+20], 0

; 299  :             __p[6] = 0;

	mov	DWORD PTR [ecx+24], 0

; 300  :             __p[7] = 0;

	mov	DWORD PTR [ecx+28], 0
$LN3@Initialize:

; 391  :     }
; 392  :     return (PMC_STATUS_OK);

	mov	DWORD PTR [ecx+4], 1231244656		; 49634d70H
	xor	eax, eax
	mov	DWORD PTR [ecx+8], 1416522069		; 546e6955H
	mov	DWORD PTR [ecx+16], edi
	mov	DWORD PTR [ecx+32], esi
	pop	edi
	mov	DWORD PTR [ecx+36], edx

; 393  : }

	pop	esi
	pop	ebp
	ret	0
_InitializeNumber ENDP
_TEXT	ENDS
; Function compile flags: /Ogtp
; File z:\sources\lunor\repos\rougemeilland\palmtree.math.core.uint\palmtree.math.core.uint\pmc_memory.c
;	COMDAT _FillNumberHeader
_TEXT	SEGMENT
_p$ = 8							; size = 4
_FillNumberHeader PROC					; COMDAT

; 320  : {

	push	ebp
	mov	ebp, esp

; 321  : #ifdef _M_IX64
; 322  :     if (sizeof(*p) == sizeof(_UINT64_T) * 9)
; 323  :     {
; 324  :         _UINT64_T* __p = (_UINT64_T*)p;
; 325  :         __p[0] = DEFAULT_MEMORY_DATA;
; 326  :         __p[1] = DEFAULT_MEMORY_DATA;
; 327  :         __p[2] = DEFAULT_MEMORY_DATA;
; 328  :         __p[3] = DEFAULT_MEMORY_DATA;
; 329  :         __p[4] = DEFAULT_MEMORY_DATA;
; 330  :         __p[5] = DEFAULT_MEMORY_DATA;
; 331  :         __p[6] = DEFAULT_MEMORY_DATA;
; 332  :         __p[7] = DEFAULT_MEMORY_DATA;
; 333  :         __p[8] = DEFAULT_MEMORY_DATA;
; 334  :     }
; 335  :     else
; 336  :     {
; 337  : #endif
; 338  :         if (sizeof(*p) == sizeof(_UINT32_T) * 10)
; 339  :         {
; 340  :             _UINT32_T* __p = (_UINT32_T*)p;
; 341  :             __p[0] = (_UINT32_T)DEFAULT_MEMORY_DATA;

	mov	eax, DWORD PTR _p$[ebp]
	mov	DWORD PTR [eax], -858993460		; ccccccccH

; 342  :             __p[1] = (_UINT32_T)DEFAULT_MEMORY_DATA;

	mov	DWORD PTR [eax+4], -858993460		; ccccccccH

; 343  :             __p[2] = (_UINT32_T)DEFAULT_MEMORY_DATA;

	mov	DWORD PTR [eax+8], -858993460		; ccccccccH

; 344  :             __p[3] = (_UINT32_T)DEFAULT_MEMORY_DATA;

	mov	DWORD PTR [eax+12], -858993460		; ccccccccH

; 345  :             __p[4] = (_UINT32_T)DEFAULT_MEMORY_DATA;

	mov	DWORD PTR [eax+16], -858993460		; ccccccccH

; 346  :             __p[5] = (_UINT32_T)DEFAULT_MEMORY_DATA;

	mov	DWORD PTR [eax+20], -858993460		; ccccccccH

; 347  :             __p[6] = (_UINT32_T)DEFAULT_MEMORY_DATA;

	mov	DWORD PTR [eax+24], -858993460		; ccccccccH

; 348  :             __p[7] = (_UINT32_T)DEFAULT_MEMORY_DATA;

	mov	DWORD PTR [eax+28], -858993460		; ccccccccH

; 349  :             __p[8] = (_UINT32_T)DEFAULT_MEMORY_DATA;

	mov	DWORD PTR [eax+32], -858993460		; ccccccccH

; 350  :             __p[9] = (_UINT32_T)DEFAULT_MEMORY_DATA;

	mov	DWORD PTR [eax+36], -858993460		; ccccccccH

; 351  :         }
; 352  : #ifdef _M_IX64
; 353  :         else if (sizeof(*p) % sizeof(_UINT64_T) == 0)
; 354  :             _FILL_MEMORY_64((_UINT64_T*)p, DEFAULT_MEMORY_DATA, sizeof(*p) / sizeof(_UINT64_T));
; 355  : #endif
; 356  :         else if (sizeof(*p) % sizeof(_UINT32_T) == 0)
; 357  :             _FILL_MEMORY_32((_UINT32_T*)p, (_UINT32_T)DEFAULT_MEMORY_DATA, sizeof(*p) / sizeof(_UINT32_T));
; 358  :         else if (sizeof(*p) % sizeof(_UINT16_T) == 0)
; 359  :             _FILL_MEMORY_16((_UINT16_T*)p, (_UINT16_T)DEFAULT_MEMORY_DATA, sizeof(*p) / sizeof(_UINT16_T));
; 360  :         else
; 361  :             _FILL_MEMORY_BYTE(p, (unsigned char)DEFAULT_MEMORY_DATA, sizeof(*p));
; 362  : #ifdef _M_IX64
; 363  :     }
; 364  : #endif
; 365  : }

	pop	ebp
	ret	0
_FillNumberHeader ENDP
_TEXT	ENDS
; Function compile flags: /Ogtp
; File z:\sources\lunor\repos\rougemeilland\palmtree.math.core.uint\palmtree.math.core.uint\pmc_memory.c
;	COMDAT _ClearNumberHeader
_TEXT	SEGMENT
_p$ = 8							; size = 4
_ClearNumberHeader PROC					; COMDAT

; 272  : {

	push	ebp
	mov	ebp, esp

; 273  : #ifdef _M_IX64
; 274  :     if (sizeof(*p) == sizeof(_UINT64_T) * 9)
; 275  :     {
; 276  :         _UINT64_T* __p = (_UINT64_T*)p;
; 277  :         __p[0] = 0;
; 278  :         __p[1] = 0;
; 279  :         __p[2] = 0;
; 280  :         __p[3] = 0;
; 281  :         __p[4] = 0;
; 282  :         __p[5] = 0;
; 283  :         __p[6] = 0;
; 284  :         __p[7] = 0;
; 285  :         __p[8] = 0;
; 286  :     }
; 287  :     else
; 288  :     {
; 289  : #endif
; 290  :         if (sizeof(*p) == sizeof(_UINT32_T) * 10)
; 291  :         {
; 292  :             _UINT32_T* __p = (_UINT32_T*)p;
; 293  :             __p[0] = 0;

	mov	eax, DWORD PTR _p$[ebp]
	mov	DWORD PTR [eax], 0

; 294  :             __p[1] = 0;

	mov	DWORD PTR [eax+4], 0

; 295  :             __p[2] = 0;

	mov	DWORD PTR [eax+8], 0

; 296  :             __p[3] = 0;

	mov	DWORD PTR [eax+12], 0

; 297  :             __p[4] = 0;

	mov	DWORD PTR [eax+16], 0

; 298  :             __p[5] = 0;

	mov	DWORD PTR [eax+20], 0

; 299  :             __p[6] = 0;

	mov	DWORD PTR [eax+24], 0

; 300  :             __p[7] = 0;

	mov	DWORD PTR [eax+28], 0

; 301  :             __p[8] = 0;

	mov	DWORD PTR [eax+32], 0

; 302  :             __p[9] = 0;

	mov	DWORD PTR [eax+36], 0

; 303  :         }
; 304  : #ifdef _M_IX64
; 305  :         else if (sizeof(*p) % sizeof(_UINT64_T) == 0)
; 306  :             _ZERO_MEMORY_64((_UINT64_T*)p, sizeof(*p) / sizeof(_UINT64_T));
; 307  : #endif
; 308  :         else if (sizeof(*p) % sizeof(_UINT32_T) == 0)
; 309  :             _ZERO_MEMORY_32((_UINT32_T*)p, sizeof(*p) / sizeof(_UINT32_T));
; 310  :         else if (sizeof(*p) % sizeof(_UINT16_T) == 0)
; 311  :             _ZERO_MEMORY_16((_UINT16_T*)p, sizeof(*p) / sizeof(_UINT16_T));
; 312  :         else
; 313  :             _ZERO_MEMORY_BYTE(p, sizeof(*p));
; 314  : #ifdef _M_IX64
; 315  :     }
; 316  : #endif
; 317  : }

	pop	ebp
	ret	0
_ClearNumberHeader ENDP
_TEXT	ENDS
; Function compile flags: /Ogtp
; File z:\sources\lunor\repos\rougemeilland\palmtree.math.core.uint\palmtree.math.core.uint\pmc_memory.c
;	COMDAT _CheckBlock
_TEXT	SEGMENT
_buffer$ = 8						; size = 4
_CheckBlock PROC					; COMDAT

; 236  : #ifdef _DEBUG
; 237  :     if (buffer == NULL)
; 238  :         return (PMC_STATUS_OK);
; 239  :     --buffer;
; 240  :     __UNIT_TYPE words = buffer[0];
; 241  :     __UNIT_TYPE code_desired = buffer[words + 1];
; 242  :     __UNIT_TYPE code_actual = CalculateCheckCode(&buffer[1], words);
; 243  :     if (code_actual == code_desired)
; 244  :         return (PMC_STATUS_OK);
; 245  :     else
; 246  :         return (PMC_STATUS_BAD_BUFFER);
; 247  : #else
; 248  :     return (PMC_STATUS_OK);

	xor	eax, eax

; 249  : #endif
; 250  : }

	ret	0
_CheckBlock ENDP
_TEXT	ENDS
; Function compile flags: /Ogtp
; File z:\sources\lunor\repos\rougemeilland\palmtree.math.core.uint\palmtree.math.core.uint\pmc_memory.c
;	COMDAT _CommitBlock
_TEXT	SEGMENT
_buffer$ = 8						; size = 4
_CommitBlock PROC					; COMDAT

; 219  : {

	push	ebp
	mov	ebp, esp

; 220  :     if (buffer != NULL)

	mov	ecx, DWORD PTR _buffer$[ebp]
	test	ecx, ecx
	je	SHORT $LN2@CommitBloc

; 221  :     {
; 222  :         --buffer;
; 223  :         __UNIT_TYPE words = buffer[0];
; 224  : #ifdef _DEBUG
; 225  :         __UNIT_TYPE code = CalculateCheckCode(&buffer[1], words);
; 226  : #else
; 227  :         __UNIT_TYPE code = 0;
; 228  : #endif
; 229  :         buffer[words + 1] = code;

	mov	eax, DWORD PTR [ecx-4]
	mov	DWORD PTR [ecx+eax*4], 0
$LN2@CommitBloc:

; 230  :     }
; 231  : }

	pop	ebp
	ret	0
_CommitBlock ENDP
_TEXT	ENDS
; Function compile flags: /Ogtp
; File z:\sources\lunor\repos\rougemeilland\palmtree.math.core.uint\palmtree.math.core.uint\pmc_memory.c
; File z:\sources\lunor\repos\rougemeilland\palmtree.math.core.uint\palmtree.math.core.uint\pmc_inline_func.h
; File z:\sources\lunor\repos\rougemeilland\palmtree.math.core.uint\palmtree.math.core.uint\pmc_memory.c
; File z:\sources\lunor\repos\rougemeilland\palmtree.math.core.uint\palmtree.math.core.uint\pmc_inline_func.h
; File z:\sources\lunor\repos\rougemeilland\palmtree.math.core.uint\palmtree.math.core.uint\pmc_memory.c
; File z:\sources\lunor\repos\rougemeilland\palmtree.math.core.uint\palmtree.math.core.uint\pmc_inline_func.h
; File z:\sources\lunor\repos\rougemeilland\palmtree.math.core.uint\palmtree.math.core.uint\pmc_memory.c
; File z:\sources\lunor\repos\rougemeilland\palmtree.math.core.uint\palmtree.math.core.uint\pmc_inline_func.h
; File z:\sources\lunor\repos\rougemeilland\palmtree.math.core.uint\palmtree.math.core.uint\pmc_memory.c
; File z:\sources\lunor\repos\rougemeilland\palmtree.math.core.uint\palmtree.math.core.uint\pmc_inline_func.h
; File z:\sources\lunor\repos\rougemeilland\palmtree.math.core.uint\palmtree.math.core.uint\pmc_memory.c
; File z:\sources\lunor\repos\rougemeilland\palmtree.math.core.uint\palmtree.math.core.uint\pmc_inline_func.h
; File z:\sources\lunor\repos\rougemeilland\palmtree.math.core.uint\palmtree.math.core.uint\pmc_memory.c
; File z:\sources\lunor\repos\rougemeilland\palmtree.math.core.uint\palmtree.math.core.uint\pmc_inline_func.h
; File z:\sources\lunor\repos\rougemeilland\palmtree.math.core.uint\palmtree.math.core.uint\pmc_memory.c
; File z:\sources\lunor\repos\rougemeilland\palmtree.math.core.uint\palmtree.math.core.uint\pmc_inline_func.h
; File z:\sources\lunor\repos\rougemeilland\palmtree.math.core.uint\palmtree.math.core.uint\pmc_memory.c
; File z:\sources\lunor\repos\rougemeilland\palmtree.math.core.uint\palmtree.math.core.uint\pmc_inline_func.h
; File z:\sources\lunor\repos\rougemeilland\palmtree.math.core.uint\palmtree.math.core.uint\pmc_memory.c
; File z:\sources\lunor\repos\rougemeilland\palmtree.math.core.uint\palmtree.math.core.uint\pmc_inline_func.h
; File z:\sources\lunor\repos\rougemeilland\palmtree.math.core.uint\palmtree.math.core.uint\pmc_memory.c
; File z:\sources\lunor\repos\rougemeilland\palmtree.math.core.uint\palmtree.math.core.uint\pmc_inline_func.h
; File z:\sources\lunor\repos\rougemeilland\palmtree.math.core.uint\palmtree.math.core.uint\pmc_memory.c
; File z:\sources\lunor\repos\rougemeilland\palmtree.math.core.uint\palmtree.math.core.uint\pmc_inline_func.h
; File z:\sources\lunor\repos\rougemeilland\palmtree.math.core.uint\palmtree.math.core.uint\pmc_memory.c
; File z:\sources\lunor\repos\rougemeilland\palmtree.math.core.uint\palmtree.math.core.uint\pmc_inline_func.h
; File z:\sources\lunor\repos\rougemeilland\palmtree.math.core.uint\palmtree.math.core.uint\pmc_memory.c
; File z:\sources\lunor\repos\rougemeilland\palmtree.math.core.uint\palmtree.math.core.uint\pmc_inline_func.h
; File z:\sources\lunor\repos\rougemeilland\palmtree.math.core.uint\palmtree.math.core.uint\pmc_memory.c
; File z:\sources\lunor\repos\rougemeilland\palmtree.math.core.uint\palmtree.math.core.uint\pmc_inline_func.h
; File z:\sources\lunor\repos\rougemeilland\palmtree.math.core.uint\palmtree.math.core.uint\pmc_memory.c
; File z:\sources\lunor\repos\rougemeilland\palmtree.math.core.uint\palmtree.math.core.uint\pmc_inline_func.h
; File z:\sources\lunor\repos\rougemeilland\palmtree.math.core.uint\palmtree.math.core.uint\pmc_memory.c
; File z:\sources\lunor\repos\rougemeilland\palmtree.math.core.uint\palmtree.math.core.uint\pmc_inline_func.h
; File z:\sources\lunor\repos\rougemeilland\palmtree.math.core.uint\palmtree.math.core.uint\pmc_memory.c
; File z:\sources\lunor\repos\rougemeilland\palmtree.math.core.uint\palmtree.math.core.uint\pmc_inline_func.h
; File z:\sources\lunor\repos\rougemeilland\palmtree.math.core.uint\palmtree.math.core.uint\pmc_memory.c
; File z:\sources\lunor\repos\rougemeilland\palmtree.math.core.uint\palmtree.math.core.uint\pmc_inline_func.h
; File z:\sources\lunor\repos\rougemeilland\palmtree.math.core.uint\palmtree.math.core.uint\pmc_memory.c
; File z:\sources\lunor\repos\rougemeilland\palmtree.math.core.uint\palmtree.math.core.uint\pmc_inline_func.h
; File z:\sources\lunor\repos\rougemeilland\palmtree.math.core.uint\palmtree.math.core.uint\pmc_memory.c
; File z:\sources\lunor\repos\rougemeilland\palmtree.math.core.uint\palmtree.math.core.uint\pmc_inline_func.h
; File z:\sources\lunor\repos\rougemeilland\palmtree.math.core.uint\palmtree.math.core.uint\pmc_memory.c
; File z:\sources\lunor\repos\rougemeilland\palmtree.math.core.uint\palmtree.math.core.uint\pmc_inline_func.h
; File z:\sources\lunor\repos\rougemeilland\palmtree.math.core.uint\palmtree.math.core.uint\pmc_memory.c
; File z:\sources\lunor\repos\rougemeilland\palmtree.math.core.uint\palmtree.math.core.uint\pmc_inline_func.h
; File z:\sources\lunor\repos\rougemeilland\palmtree.math.core.uint\palmtree.math.core.uint\pmc_memory.c
; File z:\sources\lunor\repos\rougemeilland\palmtree.math.core.uint\palmtree.math.core.uint\pmc_inline_func.h
; File z:\sources\lunor\repos\rougemeilland\palmtree.math.core.uint\palmtree.math.core.uint\pmc_memory.c
; File z:\sources\lunor\repos\rougemeilland\palmtree.math.core.uint\palmtree.math.core.uint\pmc_inline_func.h
; File z:\sources\lunor\repos\rougemeilland\palmtree.math.core.uint\palmtree.math.core.uint\pmc_memory.c
; File z:\sources\lunor\repos\rougemeilland\palmtree.math.core.uint\palmtree.math.core.uint\pmc_inline_func.h
; File z:\sources\lunor\repos\rougemeilland\palmtree.math.core.uint\palmtree.math.core.uint\pmc_memory.c
; File z:\sources\lunor\repos\rougemeilland\palmtree.math.core.uint\palmtree.math.core.uint\pmc_inline_func.h
; File z:\sources\lunor\repos\rougemeilland\palmtree.math.core.uint\palmtree.math.core.uint\pmc_memory.c
; File z:\sources\lunor\repos\rougemeilland\palmtree.math.core.uint\palmtree.math.core.uint\pmc_inline_func.h
; File z:\sources\lunor\repos\rougemeilland\palmtree.math.core.uint\palmtree.math.core.uint\pmc_memory.c
; File z:\sources\lunor\repos\rougemeilland\palmtree.math.core.uint\palmtree.math.core.uint\pmc_inline_func.h
; File z:\sources\lunor\repos\rougemeilland\palmtree.math.core.uint\palmtree.math.core.uint\pmc_memory.c
; File z:\sources\lunor\repos\rougemeilland\palmtree.math.core.uint\palmtree.math.core.uint\pmc_inline_func.h
; File z:\sources\lunor\repos\rougemeilland\palmtree.math.core.uint\palmtree.math.core.uint\pmc_memory.c
; File z:\sources\lunor\repos\rougemeilland\palmtree.math.core.uint\palmtree.math.core.uint\pmc_inline_func.h
; File z:\sources\lunor\repos\rougemeilland\palmtree.math.core.uint\palmtree.math.core.uint\pmc_memory.c
; File z:\sources\lunor\repos\rougemeilland\palmtree.math.core.uint\palmtree.math.core.uint\pmc_inline_func.h
; File z:\sources\lunor\repos\rougemeilland\palmtree.math.core.uint\palmtree.math.core.uint\pmc_memory.c
; File z:\sources\lunor\repos\rougemeilland\palmtree.math.core.uint\palmtree.math.core.uint\pmc_inline_func.h
; File z:\sources\lunor\repos\rougemeilland\palmtree.math.core.uint\palmtree.math.core.uint\pmc_memory.c
; File z:\sources\lunor\repos\rougemeilland\palmtree.math.core.uint\palmtree.math.core.uint\pmc_inline_func.h
; File z:\sources\lunor\repos\rougemeilland\palmtree.math.core.uint\palmtree.math.core.uint\pmc_memory.c
; File z:\sources\lunor\repos\rougemeilland\palmtree.math.core.uint\palmtree.math.core.uint\pmc_inline_func.h
; File z:\sources\lunor\repos\rougemeilland\palmtree.math.core.uint\palmtree.math.core.uint\pmc_memory.c
; File z:\sources\lunor\repos\rougemeilland\palmtree.math.core.uint\palmtree.math.core.uint\pmc_inline_func.h
; File z:\sources\lunor\repos\rougemeilland\palmtree.math.core.uint\palmtree.math.core.uint\pmc_memory.c
; File z:\sources\lunor\repos\rougemeilland\palmtree.math.core.uint\palmtree.math.core.uint\pmc_inline_func.h
; File z:\sources\lunor\repos\rougemeilland\palmtree.math.core.uint\palmtree.math.core.uint\pmc_memory.c
; File z:\sources\lunor\repos\rougemeilland\palmtree.math.core.uint\palmtree.math.core.uint\pmc_inline_func.h
; File z:\sources\lunor\repos\rougemeilland\palmtree.math.core.uint\palmtree.math.core.uint\pmc_memory.c
; File z:\sources\lunor\repos\rougemeilland\palmtree.math.core.uint\palmtree.math.core.uint\pmc_inline_func.h
; File z:\sources\lunor\repos\rougemeilland\palmtree.math.core.uint\palmtree.math.core.uint\pmc_memory.c
; File z:\sources\lunor\repos\rougemeilland\palmtree.math.core.uint\palmtree.math.core.uint\pmc_inline_func.h
; File z:\sources\lunor\repos\rougemeilland\palmtree.math.core.uint\palmtree.math.core.uint\pmc_memory.c
; File z:\sources\lunor\repos\rougemeilland\palmtree.math.core.uint\palmtree.math.core.uint\pmc_inline_func.h
; File z:\sources\lunor\repos\rougemeilland\palmtree.math.core.uint\palmtree.math.core.uint\pmc_memory.c
; File z:\sources\lunor\repos\rougemeilland\palmtree.math.core.uint\palmtree.math.core.uint\pmc_inline_func.h
; File z:\sources\lunor\repos\rougemeilland\palmtree.math.core.uint\palmtree.math.core.uint\pmc_memory.c
; File z:\sources\lunor\repos\rougemeilland\palmtree.math.core.uint\palmtree.math.core.uint\pmc_inline_func.h
; File z:\sources\lunor\repos\rougemeilland\palmtree.math.core.uint\palmtree.math.core.uint\pmc_memory.c
; File z:\sources\lunor\repos\rougemeilland\palmtree.math.core.uint\palmtree.math.core.uint\pmc_inline_func.h
; File z:\sources\lunor\repos\rougemeilland\palmtree.math.core.uint\palmtree.math.core.uint\pmc_memory.c
; File z:\sources\lunor\repos\rougemeilland\palmtree.math.core.uint\palmtree.math.core.uint\pmc_inline_func.h
; File z:\sources\lunor\repos\rougemeilland\palmtree.math.core.uint\palmtree.math.core.uint\pmc_memory.c
; File z:\sources\lunor\repos\rougemeilland\palmtree.math.core.uint\palmtree.math.core.uint\pmc_inline_func.h
; File z:\sources\lunor\repos\rougemeilland\palmtree.math.core.uint\palmtree.math.core.uint\pmc_memory.c
; File z:\sources\lunor\repos\rougemeilland\palmtree.math.core.uint\palmtree.math.core.uint\pmc_inline_func.h
; File z:\sources\lunor\repos\rougemeilland\palmtree.math.core.uint\palmtree.math.core.uint\pmc_memory.c
; File z:\sources\lunor\repos\rougemeilland\palmtree.math.core.uint\palmtree.math.core.uint\pmc_inline_func.h
; File z:\sources\lunor\repos\rougemeilland\palmtree.math.core.uint\palmtree.math.core.uint\pmc_memory.c
; File z:\sources\lunor\repos\rougemeilland\palmtree.math.core.uint\palmtree.math.core.uint\pmc_inline_func.h
; File z:\sources\lunor\repos\rougemeilland\palmtree.math.core.uint\palmtree.math.core.uint\pmc_memory.c
; File z:\sources\lunor\repos\rougemeilland\palmtree.math.core.uint\palmtree.math.core.uint\pmc_inline_func.h
; File z:\sources\lunor\repos\rougemeilland\palmtree.math.core.uint\palmtree.math.core.uint\pmc_memory.c
; File z:\sources\lunor\repos\rougemeilland\palmtree.math.core.uint\palmtree.math.core.uint\pmc_inline_func.h
; File z:\sources\lunor\repos\rougemeilland\palmtree.math.core.uint\palmtree.math.core.uint\pmc_memory.c
; File z:\sources\lunor\repos\rougemeilland\palmtree.math.core.uint\palmtree.math.core.uint\pmc_inline_func.h
; File z:\sources\lunor\repos\rougemeilland\palmtree.math.core.uint\palmtree.math.core.uint\pmc_memory.c
; File z:\sources\lunor\repos\rougemeilland\palmtree.math.core.uint\palmtree.math.core.uint\pmc_inline_func.h
; File z:\sources\lunor\repos\rougemeilland\palmtree.math.core.uint\palmtree.math.core.uint\pmc_memory.c
; File z:\sources\lunor\repos\rougemeilland\palmtree.math.core.uint\palmtree.math.core.uint\pmc_inline_func.h
; File z:\sources\lunor\repos\rougemeilland\palmtree.math.core.uint\palmtree.math.core.uint\pmc_memory.c
; File z:\sources\lunor\repos\rougemeilland\palmtree.math.core.uint\palmtree.math.core.uint\pmc_inline_func.h
; File z:\sources\lunor\repos\rougemeilland\palmtree.math.core.uint\palmtree.math.core.uint\pmc_memory.c
; File z:\sources\lunor\repos\rougemeilland\palmtree.math.core.uint\palmtree.math.core.uint\pmc_inline_func.h
; File z:\sources\lunor\repos\rougemeilland\palmtree.math.core.uint\palmtree.math.core.uint\pmc_memory.c
; File z:\sources\lunor\repos\rougemeilland\palmtree.math.core.uint\palmtree.math.core.uint\pmc_inline_func.h
; File z:\sources\lunor\repos\rougemeilland\palmtree.math.core.uint\palmtree.math.core.uint\pmc_memory.c
; File z:\sources\lunor\repos\rougemeilland\palmtree.math.core.uint\palmtree.math.core.uint\pmc_inline_func.h
; File z:\sources\lunor\repos\rougemeilland\palmtree.math.core.uint\palmtree.math.core.uint\pmc_memory.c
; File z:\sources\lunor\repos\rougemeilland\palmtree.math.core.uint\palmtree.math.core.uint\pmc_inline_func.h
; File z:\sources\lunor\repos\rougemeilland\palmtree.math.core.uint\palmtree.math.core.uint\pmc_memory.c
; File z:\sources\lunor\repos\rougemeilland\palmtree.math.core.uint\palmtree.math.core.uint\pmc_inline_func.h
; File z:\sources\lunor\repos\rougemeilland\palmtree.math.core.uint\palmtree.math.core.uint\pmc_memory.c
; File z:\sources\lunor\repos\rougemeilland\palmtree.math.core.uint\palmtree.math.core.uint\pmc_inline_func.h
; File z:\sources\lunor\repos\rougemeilland\palmtree.math.core.uint\palmtree.math.core.uint\pmc_memory.c
; File z:\sources\lunor\repos\rougemeilland\palmtree.math.core.uint\palmtree.math.core.uint\pmc_inline_func.h
; File z:\sources\lunor\repos\rougemeilland\palmtree.math.core.uint\palmtree.math.core.uint\pmc_memory.c
; File z:\sources\lunor\repos\rougemeilland\palmtree.math.core.uint\palmtree.math.core.uint\pmc_inline_func.h
; File z:\sources\lunor\repos\rougemeilland\palmtree.math.core.uint\palmtree.math.core.uint\pmc_memory.c
;	COMDAT _CalculateCheckCode
_TEXT	SEGMENT
_p$ = 8							; size = 4
_words$ = 12						; size = 4
_CalculateCheckCode PROC				; COMDAT

; 53   : {

	push	ebp
	mov	ebp, esp

; 54   : 	__UNIT_TYPE code = CHECK_CODE_INIT;
; 55   : 	
; 56   :     __UNIT_TYPE count = words >> 5;
; 57   : 	while (count != 0)

	mov	ecx, DWORD PTR _p$[ebp]
	mov	eax, -2071690108			; 84848484H
	push	ebx
	mov	ebx, DWORD PTR _words$[ebp]
	mov	edx, ebx
	shr	edx, 5
	test	edx, edx
	je	$LN3@CalculateC
	npad	4
$LL2@CalculateC:
; File z:\sources\lunor\repos\rougemeilland\palmtree.math.core.uint\palmtree.math.core.uint\pmc_inline_func.h

; 477  :         return (_rotl(x, count));

	rol	eax, 3
; File z:\sources\lunor\repos\rougemeilland\palmtree.math.core.uint\palmtree.math.core.uint\pmc_memory.c

; 59   :         code = _ROTATE_L_UNIT(code, 3) ^ p[0];

	xor	eax, DWORD PTR [ecx]
; File z:\sources\lunor\repos\rougemeilland\palmtree.math.core.uint\palmtree.math.core.uint\pmc_inline_func.h

; 477  :         return (_rotl(x, count));

	rol	eax, 3
; File z:\sources\lunor\repos\rougemeilland\palmtree.math.core.uint\palmtree.math.core.uint\pmc_memory.c

; 60   :         code = _ROTATE_L_UNIT(code, 3) ^ p[1];

	xor	eax, DWORD PTR [ecx+4]
; File z:\sources\lunor\repos\rougemeilland\palmtree.math.core.uint\palmtree.math.core.uint\pmc_inline_func.h

; 477  :         return (_rotl(x, count));

	rol	eax, 3
; File z:\sources\lunor\repos\rougemeilland\palmtree.math.core.uint\palmtree.math.core.uint\pmc_memory.c

; 61   :         code = _ROTATE_L_UNIT(code, 3) ^ p[2];

	xor	eax, DWORD PTR [ecx+8]
; File z:\sources\lunor\repos\rougemeilland\palmtree.math.core.uint\palmtree.math.core.uint\pmc_inline_func.h

; 477  :         return (_rotl(x, count));

	rol	eax, 3
; File z:\sources\lunor\repos\rougemeilland\palmtree.math.core.uint\palmtree.math.core.uint\pmc_memory.c

; 62   :         code = _ROTATE_L_UNIT(code, 3) ^ p[3];

	xor	eax, DWORD PTR [ecx+12]
; File z:\sources\lunor\repos\rougemeilland\palmtree.math.core.uint\palmtree.math.core.uint\pmc_inline_func.h

; 477  :         return (_rotl(x, count));

	rol	eax, 3
; File z:\sources\lunor\repos\rougemeilland\palmtree.math.core.uint\palmtree.math.core.uint\pmc_memory.c

; 63   :         code = _ROTATE_L_UNIT(code, 3) ^ p[4];

	xor	eax, DWORD PTR [ecx+16]
; File z:\sources\lunor\repos\rougemeilland\palmtree.math.core.uint\palmtree.math.core.uint\pmc_inline_func.h

; 477  :         return (_rotl(x, count));

	rol	eax, 3
; File z:\sources\lunor\repos\rougemeilland\palmtree.math.core.uint\palmtree.math.core.uint\pmc_memory.c

; 64   :         code = _ROTATE_L_UNIT(code, 3) ^ p[5];

	xor	eax, DWORD PTR [ecx+20]
; File z:\sources\lunor\repos\rougemeilland\palmtree.math.core.uint\palmtree.math.core.uint\pmc_inline_func.h

; 477  :         return (_rotl(x, count));

	rol	eax, 3
; File z:\sources\lunor\repos\rougemeilland\palmtree.math.core.uint\palmtree.math.core.uint\pmc_memory.c

; 65   :         code = _ROTATE_L_UNIT(code, 3) ^ p[6];

	xor	eax, DWORD PTR [ecx+24]
; File z:\sources\lunor\repos\rougemeilland\palmtree.math.core.uint\palmtree.math.core.uint\pmc_inline_func.h

; 477  :         return (_rotl(x, count));

	rol	eax, 3
; File z:\sources\lunor\repos\rougemeilland\palmtree.math.core.uint\palmtree.math.core.uint\pmc_memory.c

; 66   :         code = _ROTATE_L_UNIT(code, 3) ^ p[7];

	xor	eax, DWORD PTR [ecx+28]
; File z:\sources\lunor\repos\rougemeilland\palmtree.math.core.uint\palmtree.math.core.uint\pmc_inline_func.h

; 477  :         return (_rotl(x, count));

	rol	eax, 3
; File z:\sources\lunor\repos\rougemeilland\palmtree.math.core.uint\palmtree.math.core.uint\pmc_memory.c

; 67   :         code = _ROTATE_L_UNIT(code, 3) ^ p[8];

	xor	eax, DWORD PTR [ecx+32]
; File z:\sources\lunor\repos\rougemeilland\palmtree.math.core.uint\palmtree.math.core.uint\pmc_inline_func.h

; 477  :         return (_rotl(x, count));

	rol	eax, 3
; File z:\sources\lunor\repos\rougemeilland\palmtree.math.core.uint\palmtree.math.core.uint\pmc_memory.c

; 68   :         code = _ROTATE_L_UNIT(code, 3) ^ p[9];

	xor	eax, DWORD PTR [ecx+36]
; File z:\sources\lunor\repos\rougemeilland\palmtree.math.core.uint\palmtree.math.core.uint\pmc_inline_func.h

; 477  :         return (_rotl(x, count));

	rol	eax, 3
; File z:\sources\lunor\repos\rougemeilland\palmtree.math.core.uint\palmtree.math.core.uint\pmc_memory.c

; 69   :         code = _ROTATE_L_UNIT(code, 3) ^ p[10];

	xor	eax, DWORD PTR [ecx+40]
; File z:\sources\lunor\repos\rougemeilland\palmtree.math.core.uint\palmtree.math.core.uint\pmc_inline_func.h

; 477  :         return (_rotl(x, count));

	rol	eax, 3
; File z:\sources\lunor\repos\rougemeilland\palmtree.math.core.uint\palmtree.math.core.uint\pmc_memory.c

; 70   :         code = _ROTATE_L_UNIT(code, 3) ^ p[11];

	xor	eax, DWORD PTR [ecx+44]
; File z:\sources\lunor\repos\rougemeilland\palmtree.math.core.uint\palmtree.math.core.uint\pmc_inline_func.h

; 477  :         return (_rotl(x, count));

	rol	eax, 3
; File z:\sources\lunor\repos\rougemeilland\palmtree.math.core.uint\palmtree.math.core.uint\pmc_memory.c

; 71   :         code = _ROTATE_L_UNIT(code, 3) ^ p[12];

	xor	eax, DWORD PTR [ecx+48]
; File z:\sources\lunor\repos\rougemeilland\palmtree.math.core.uint\palmtree.math.core.uint\pmc_inline_func.h

; 477  :         return (_rotl(x, count));

	rol	eax, 3
; File z:\sources\lunor\repos\rougemeilland\palmtree.math.core.uint\palmtree.math.core.uint\pmc_memory.c

; 72   :         code = _ROTATE_L_UNIT(code, 3) ^ p[13];

	xor	eax, DWORD PTR [ecx+52]
; File z:\sources\lunor\repos\rougemeilland\palmtree.math.core.uint\palmtree.math.core.uint\pmc_inline_func.h

; 477  :         return (_rotl(x, count));

	rol	eax, 3
; File z:\sources\lunor\repos\rougemeilland\palmtree.math.core.uint\palmtree.math.core.uint\pmc_memory.c

; 73   :         code = _ROTATE_L_UNIT(code, 3) ^ p[14];

	xor	eax, DWORD PTR [ecx+56]
; File z:\sources\lunor\repos\rougemeilland\palmtree.math.core.uint\palmtree.math.core.uint\pmc_inline_func.h

; 477  :         return (_rotl(x, count));

	rol	eax, 3
; File z:\sources\lunor\repos\rougemeilland\palmtree.math.core.uint\palmtree.math.core.uint\pmc_memory.c

; 74   :         code = _ROTATE_L_UNIT(code, 3) ^ p[15];

	xor	eax, DWORD PTR [ecx+60]
; File z:\sources\lunor\repos\rougemeilland\palmtree.math.core.uint\palmtree.math.core.uint\pmc_inline_func.h

; 477  :         return (_rotl(x, count));

	rol	eax, 3
; File z:\sources\lunor\repos\rougemeilland\palmtree.math.core.uint\palmtree.math.core.uint\pmc_memory.c

; 75   :         code = _ROTATE_L_UNIT(code, 3) ^ p[16];

	xor	eax, DWORD PTR [ecx+64]
; File z:\sources\lunor\repos\rougemeilland\palmtree.math.core.uint\palmtree.math.core.uint\pmc_inline_func.h

; 477  :         return (_rotl(x, count));

	rol	eax, 3
; File z:\sources\lunor\repos\rougemeilland\palmtree.math.core.uint\palmtree.math.core.uint\pmc_memory.c

; 76   :         code = _ROTATE_L_UNIT(code, 3) ^ p[17];

	xor	eax, DWORD PTR [ecx+68]
; File z:\sources\lunor\repos\rougemeilland\palmtree.math.core.uint\palmtree.math.core.uint\pmc_inline_func.h

; 477  :         return (_rotl(x, count));

	rol	eax, 3
; File z:\sources\lunor\repos\rougemeilland\palmtree.math.core.uint\palmtree.math.core.uint\pmc_memory.c

; 77   :         code = _ROTATE_L_UNIT(code, 3) ^ p[18];

	xor	eax, DWORD PTR [ecx+72]
; File z:\sources\lunor\repos\rougemeilland\palmtree.math.core.uint\palmtree.math.core.uint\pmc_inline_func.h

; 477  :         return (_rotl(x, count));

	rol	eax, 3
; File z:\sources\lunor\repos\rougemeilland\palmtree.math.core.uint\palmtree.math.core.uint\pmc_memory.c

; 78   :         code = _ROTATE_L_UNIT(code, 3) ^ p[19];

	xor	eax, DWORD PTR [ecx+76]
; File z:\sources\lunor\repos\rougemeilland\palmtree.math.core.uint\palmtree.math.core.uint\pmc_inline_func.h

; 477  :         return (_rotl(x, count));

	rol	eax, 3
; File z:\sources\lunor\repos\rougemeilland\palmtree.math.core.uint\palmtree.math.core.uint\pmc_memory.c

; 79   :         code = _ROTATE_L_UNIT(code, 3) ^ p[20];

	xor	eax, DWORD PTR [ecx+80]
; File z:\sources\lunor\repos\rougemeilland\palmtree.math.core.uint\palmtree.math.core.uint\pmc_inline_func.h

; 477  :         return (_rotl(x, count));

	rol	eax, 3
; File z:\sources\lunor\repos\rougemeilland\palmtree.math.core.uint\palmtree.math.core.uint\pmc_memory.c

; 80   :         code = _ROTATE_L_UNIT(code, 3) ^ p[21];

	xor	eax, DWORD PTR [ecx+84]
; File z:\sources\lunor\repos\rougemeilland\palmtree.math.core.uint\palmtree.math.core.uint\pmc_inline_func.h

; 477  :         return (_rotl(x, count));

	rol	eax, 3
; File z:\sources\lunor\repos\rougemeilland\palmtree.math.core.uint\palmtree.math.core.uint\pmc_memory.c

; 81   :         code = _ROTATE_L_UNIT(code, 3) ^ p[22];

	xor	eax, DWORD PTR [ecx+88]
; File z:\sources\lunor\repos\rougemeilland\palmtree.math.core.uint\palmtree.math.core.uint\pmc_inline_func.h

; 477  :         return (_rotl(x, count));

	rol	eax, 3
; File z:\sources\lunor\repos\rougemeilland\palmtree.math.core.uint\palmtree.math.core.uint\pmc_memory.c

; 82   :         code = _ROTATE_L_UNIT(code, 3) ^ p[23];

	xor	eax, DWORD PTR [ecx+92]
; File z:\sources\lunor\repos\rougemeilland\palmtree.math.core.uint\palmtree.math.core.uint\pmc_inline_func.h

; 477  :         return (_rotl(x, count));

	rol	eax, 3
; File z:\sources\lunor\repos\rougemeilland\palmtree.math.core.uint\palmtree.math.core.uint\pmc_memory.c

; 83   :         code = _ROTATE_L_UNIT(code, 3) ^ p[24];

	xor	eax, DWORD PTR [ecx+96]
; File z:\sources\lunor\repos\rougemeilland\palmtree.math.core.uint\palmtree.math.core.uint\pmc_inline_func.h

; 477  :         return (_rotl(x, count));

	rol	eax, 3
; File z:\sources\lunor\repos\rougemeilland\palmtree.math.core.uint\palmtree.math.core.uint\pmc_memory.c

; 84   :         code = _ROTATE_L_UNIT(code, 3) ^ p[25];

	xor	eax, DWORD PTR [ecx+100]
; File z:\sources\lunor\repos\rougemeilland\palmtree.math.core.uint\palmtree.math.core.uint\pmc_inline_func.h

; 477  :         return (_rotl(x, count));

	rol	eax, 3
; File z:\sources\lunor\repos\rougemeilland\palmtree.math.core.uint\palmtree.math.core.uint\pmc_memory.c

; 85   :         code = _ROTATE_L_UNIT(code, 3) ^ p[26];

	xor	eax, DWORD PTR [ecx+104]
; File z:\sources\lunor\repos\rougemeilland\palmtree.math.core.uint\palmtree.math.core.uint\pmc_inline_func.h

; 477  :         return (_rotl(x, count));

	rol	eax, 3
; File z:\sources\lunor\repos\rougemeilland\palmtree.math.core.uint\palmtree.math.core.uint\pmc_memory.c

; 86   :         code = _ROTATE_L_UNIT(code, 3) ^ p[27];

	xor	eax, DWORD PTR [ecx+108]
; File z:\sources\lunor\repos\rougemeilland\palmtree.math.core.uint\palmtree.math.core.uint\pmc_inline_func.h

; 477  :         return (_rotl(x, count));

	rol	eax, 3
; File z:\sources\lunor\repos\rougemeilland\palmtree.math.core.uint\palmtree.math.core.uint\pmc_memory.c

; 87   :         code = _ROTATE_L_UNIT(code, 3) ^ p[28];

	xor	eax, DWORD PTR [ecx+112]
; File z:\sources\lunor\repos\rougemeilland\palmtree.math.core.uint\palmtree.math.core.uint\pmc_inline_func.h

; 477  :         return (_rotl(x, count));

	rol	eax, 3
; File z:\sources\lunor\repos\rougemeilland\palmtree.math.core.uint\palmtree.math.core.uint\pmc_memory.c

; 88   :         code = _ROTATE_L_UNIT(code, 3) ^ p[29];

	xor	eax, DWORD PTR [ecx+116]
; File z:\sources\lunor\repos\rougemeilland\palmtree.math.core.uint\palmtree.math.core.uint\pmc_inline_func.h

; 477  :         return (_rotl(x, count));

	rol	eax, 3
; File z:\sources\lunor\repos\rougemeilland\palmtree.math.core.uint\palmtree.math.core.uint\pmc_memory.c

; 89   :         code = _ROTATE_L_UNIT(code, 3) ^ p[30];

	xor	eax, DWORD PTR [ecx+120]
; File z:\sources\lunor\repos\rougemeilland\palmtree.math.core.uint\palmtree.math.core.uint\pmc_inline_func.h

; 477  :         return (_rotl(x, count));

	rol	eax, 3
; File z:\sources\lunor\repos\rougemeilland\palmtree.math.core.uint\palmtree.math.core.uint\pmc_memory.c

; 90   :         code = _ROTATE_L_UNIT(code, 3) ^ p[31];

	xor	eax, DWORD PTR [ecx+124]

; 91   :         p += 32;

	sub	ecx, -128				; ffffff80H

; 92   :         --count;

	sub	edx, 1
	jne	$LL2@CalculateC
$LN3@CalculateC:

; 93   :     }
; 94   : 
; 95   : 	if (words & 0x10)

	test	bl, 16					; 00000010H
	je	SHORT $LN4@CalculateC
; File z:\sources\lunor\repos\rougemeilland\palmtree.math.core.uint\palmtree.math.core.uint\pmc_inline_func.h

; 477  :         return (_rotl(x, count));

	rol	eax, 3
; File z:\sources\lunor\repos\rougemeilland\palmtree.math.core.uint\palmtree.math.core.uint\pmc_memory.c

; 97   :         code = _ROTATE_L_UNIT(code, 3) ^ p[0];

	xor	eax, DWORD PTR [ecx]
; File z:\sources\lunor\repos\rougemeilland\palmtree.math.core.uint\palmtree.math.core.uint\pmc_inline_func.h

; 477  :         return (_rotl(x, count));

	rol	eax, 3
; File z:\sources\lunor\repos\rougemeilland\palmtree.math.core.uint\palmtree.math.core.uint\pmc_memory.c

; 98   :         code = _ROTATE_L_UNIT(code, 3) ^ p[1];

	xor	eax, DWORD PTR [ecx+4]
; File z:\sources\lunor\repos\rougemeilland\palmtree.math.core.uint\palmtree.math.core.uint\pmc_inline_func.h

; 477  :         return (_rotl(x, count));

	rol	eax, 3
; File z:\sources\lunor\repos\rougemeilland\palmtree.math.core.uint\palmtree.math.core.uint\pmc_memory.c

; 99   :         code = _ROTATE_L_UNIT(code, 3) ^ p[2];

	xor	eax, DWORD PTR [ecx+8]
; File z:\sources\lunor\repos\rougemeilland\palmtree.math.core.uint\palmtree.math.core.uint\pmc_inline_func.h

; 477  :         return (_rotl(x, count));

	rol	eax, 3
; File z:\sources\lunor\repos\rougemeilland\palmtree.math.core.uint\palmtree.math.core.uint\pmc_memory.c

; 100  :         code = _ROTATE_L_UNIT(code, 3) ^ p[3];

	xor	eax, DWORD PTR [ecx+12]
; File z:\sources\lunor\repos\rougemeilland\palmtree.math.core.uint\palmtree.math.core.uint\pmc_inline_func.h

; 477  :         return (_rotl(x, count));

	rol	eax, 3
; File z:\sources\lunor\repos\rougemeilland\palmtree.math.core.uint\palmtree.math.core.uint\pmc_memory.c

; 101  :         code = _ROTATE_L_UNIT(code, 3) ^ p[4];

	xor	eax, DWORD PTR [ecx+16]
; File z:\sources\lunor\repos\rougemeilland\palmtree.math.core.uint\palmtree.math.core.uint\pmc_inline_func.h

; 477  :         return (_rotl(x, count));

	rol	eax, 3
; File z:\sources\lunor\repos\rougemeilland\palmtree.math.core.uint\palmtree.math.core.uint\pmc_memory.c

; 102  :         code = _ROTATE_L_UNIT(code, 3) ^ p[5];

	xor	eax, DWORD PTR [ecx+20]
; File z:\sources\lunor\repos\rougemeilland\palmtree.math.core.uint\palmtree.math.core.uint\pmc_inline_func.h

; 477  :         return (_rotl(x, count));

	rol	eax, 3
; File z:\sources\lunor\repos\rougemeilland\palmtree.math.core.uint\palmtree.math.core.uint\pmc_memory.c

; 103  :         code = _ROTATE_L_UNIT(code, 3) ^ p[6];

	xor	eax, DWORD PTR [ecx+24]
; File z:\sources\lunor\repos\rougemeilland\palmtree.math.core.uint\palmtree.math.core.uint\pmc_inline_func.h

; 477  :         return (_rotl(x, count));

	rol	eax, 3
; File z:\sources\lunor\repos\rougemeilland\palmtree.math.core.uint\palmtree.math.core.uint\pmc_memory.c

; 104  :         code = _ROTATE_L_UNIT(code, 3) ^ p[7];

	xor	eax, DWORD PTR [ecx+28]
; File z:\sources\lunor\repos\rougemeilland\palmtree.math.core.uint\palmtree.math.core.uint\pmc_inline_func.h

; 477  :         return (_rotl(x, count));

	rol	eax, 3
; File z:\sources\lunor\repos\rougemeilland\palmtree.math.core.uint\palmtree.math.core.uint\pmc_memory.c

; 105  :         code = _ROTATE_L_UNIT(code, 3) ^ p[8];

	xor	eax, DWORD PTR [ecx+32]
; File z:\sources\lunor\repos\rougemeilland\palmtree.math.core.uint\palmtree.math.core.uint\pmc_inline_func.h

; 477  :         return (_rotl(x, count));

	rol	eax, 3
; File z:\sources\lunor\repos\rougemeilland\palmtree.math.core.uint\palmtree.math.core.uint\pmc_memory.c

; 106  :         code = _ROTATE_L_UNIT(code, 3) ^ p[9];

	xor	eax, DWORD PTR [ecx+36]
; File z:\sources\lunor\repos\rougemeilland\palmtree.math.core.uint\palmtree.math.core.uint\pmc_inline_func.h

; 477  :         return (_rotl(x, count));

	rol	eax, 3
; File z:\sources\lunor\repos\rougemeilland\palmtree.math.core.uint\palmtree.math.core.uint\pmc_memory.c

; 107  :         code = _ROTATE_L_UNIT(code, 3) ^ p[10];

	xor	eax, DWORD PTR [ecx+40]
; File z:\sources\lunor\repos\rougemeilland\palmtree.math.core.uint\palmtree.math.core.uint\pmc_inline_func.h

; 477  :         return (_rotl(x, count));

	rol	eax, 3
; File z:\sources\lunor\repos\rougemeilland\palmtree.math.core.uint\palmtree.math.core.uint\pmc_memory.c

; 108  :         code = _ROTATE_L_UNIT(code, 3) ^ p[11];

	xor	eax, DWORD PTR [ecx+44]
; File z:\sources\lunor\repos\rougemeilland\palmtree.math.core.uint\palmtree.math.core.uint\pmc_inline_func.h

; 477  :         return (_rotl(x, count));

	rol	eax, 3
; File z:\sources\lunor\repos\rougemeilland\palmtree.math.core.uint\palmtree.math.core.uint\pmc_memory.c

; 109  :         code = _ROTATE_L_UNIT(code, 3) ^ p[12];

	xor	eax, DWORD PTR [ecx+48]
; File z:\sources\lunor\repos\rougemeilland\palmtree.math.core.uint\palmtree.math.core.uint\pmc_inline_func.h

; 477  :         return (_rotl(x, count));

	rol	eax, 3
; File z:\sources\lunor\repos\rougemeilland\palmtree.math.core.uint\palmtree.math.core.uint\pmc_memory.c

; 110  :         code = _ROTATE_L_UNIT(code, 3) ^ p[13];

	xor	eax, DWORD PTR [ecx+52]
; File z:\sources\lunor\repos\rougemeilland\palmtree.math.core.uint\palmtree.math.core.uint\pmc_inline_func.h

; 477  :         return (_rotl(x, count));

	rol	eax, 3
; File z:\sources\lunor\repos\rougemeilland\palmtree.math.core.uint\palmtree.math.core.uint\pmc_memory.c

; 111  :         code = _ROTATE_L_UNIT(code, 3) ^ p[14];

	xor	eax, DWORD PTR [ecx+56]
; File z:\sources\lunor\repos\rougemeilland\palmtree.math.core.uint\palmtree.math.core.uint\pmc_inline_func.h

; 477  :         return (_rotl(x, count));

	rol	eax, 3
; File z:\sources\lunor\repos\rougemeilland\palmtree.math.core.uint\palmtree.math.core.uint\pmc_memory.c

; 112  :         code = _ROTATE_L_UNIT(code, 3) ^ p[15];

	xor	eax, DWORD PTR [ecx+60]

; 113  :         p += 16;

	add	ecx, 64					; 00000040H
$LN4@CalculateC:

; 114  :     }
; 115  : 
; 116  :     if (words & 0x8)

	test	bl, 8
	je	SHORT $LN5@CalculateC
; File z:\sources\lunor\repos\rougemeilland\palmtree.math.core.uint\palmtree.math.core.uint\pmc_inline_func.h

; 477  :         return (_rotl(x, count));

	rol	eax, 3
; File z:\sources\lunor\repos\rougemeilland\palmtree.math.core.uint\palmtree.math.core.uint\pmc_memory.c

; 118  :         code = _ROTATE_L_UNIT(code, 3) ^ p[0];

	xor	eax, DWORD PTR [ecx]
; File z:\sources\lunor\repos\rougemeilland\palmtree.math.core.uint\palmtree.math.core.uint\pmc_inline_func.h

; 477  :         return (_rotl(x, count));

	rol	eax, 3
; File z:\sources\lunor\repos\rougemeilland\palmtree.math.core.uint\palmtree.math.core.uint\pmc_memory.c

; 119  :         code = _ROTATE_L_UNIT(code, 3) ^ p[1];

	xor	eax, DWORD PTR [ecx+4]
; File z:\sources\lunor\repos\rougemeilland\palmtree.math.core.uint\palmtree.math.core.uint\pmc_inline_func.h

; 477  :         return (_rotl(x, count));

	rol	eax, 3
; File z:\sources\lunor\repos\rougemeilland\palmtree.math.core.uint\palmtree.math.core.uint\pmc_memory.c

; 120  :         code = _ROTATE_L_UNIT(code, 3) ^ p[2];

	xor	eax, DWORD PTR [ecx+8]
; File z:\sources\lunor\repos\rougemeilland\palmtree.math.core.uint\palmtree.math.core.uint\pmc_inline_func.h

; 477  :         return (_rotl(x, count));

	rol	eax, 3
; File z:\sources\lunor\repos\rougemeilland\palmtree.math.core.uint\palmtree.math.core.uint\pmc_memory.c

; 121  :         code = _ROTATE_L_UNIT(code, 3) ^ p[3];

	xor	eax, DWORD PTR [ecx+12]
; File z:\sources\lunor\repos\rougemeilland\palmtree.math.core.uint\palmtree.math.core.uint\pmc_inline_func.h

; 477  :         return (_rotl(x, count));

	rol	eax, 3
; File z:\sources\lunor\repos\rougemeilland\palmtree.math.core.uint\palmtree.math.core.uint\pmc_memory.c

; 122  :         code = _ROTATE_L_UNIT(code, 3) ^ p[4];

	xor	eax, DWORD PTR [ecx+16]
; File z:\sources\lunor\repos\rougemeilland\palmtree.math.core.uint\palmtree.math.core.uint\pmc_inline_func.h

; 477  :         return (_rotl(x, count));

	rol	eax, 3
; File z:\sources\lunor\repos\rougemeilland\palmtree.math.core.uint\palmtree.math.core.uint\pmc_memory.c

; 123  :         code = _ROTATE_L_UNIT(code, 3) ^ p[5];

	xor	eax, DWORD PTR [ecx+20]
; File z:\sources\lunor\repos\rougemeilland\palmtree.math.core.uint\palmtree.math.core.uint\pmc_inline_func.h

; 477  :         return (_rotl(x, count));

	rol	eax, 3
; File z:\sources\lunor\repos\rougemeilland\palmtree.math.core.uint\palmtree.math.core.uint\pmc_memory.c

; 124  :         code = _ROTATE_L_UNIT(code, 3) ^ p[6];

	xor	eax, DWORD PTR [ecx+24]
; File z:\sources\lunor\repos\rougemeilland\palmtree.math.core.uint\palmtree.math.core.uint\pmc_inline_func.h

; 477  :         return (_rotl(x, count));

	rol	eax, 3
; File z:\sources\lunor\repos\rougemeilland\palmtree.math.core.uint\palmtree.math.core.uint\pmc_memory.c

; 125  :         code = _ROTATE_L_UNIT(code, 3) ^ p[7];

	xor	eax, DWORD PTR [ecx+28]

; 126  :         p += 8;

	add	ecx, 32					; 00000020H
$LN5@CalculateC:

; 127  :     }
; 128  : 
; 129  :     if (words & 0x4)

	test	bl, 4
	je	SHORT $LN6@CalculateC
; File z:\sources\lunor\repos\rougemeilland\palmtree.math.core.uint\palmtree.math.core.uint\pmc_inline_func.h

; 477  :         return (_rotl(x, count));

	rol	eax, 3
; File z:\sources\lunor\repos\rougemeilland\palmtree.math.core.uint\palmtree.math.core.uint\pmc_memory.c

; 131  :         code = _ROTATE_L_UNIT(code, 3) ^ p[0];

	xor	eax, DWORD PTR [ecx]
; File z:\sources\lunor\repos\rougemeilland\palmtree.math.core.uint\palmtree.math.core.uint\pmc_inline_func.h

; 477  :         return (_rotl(x, count));

	rol	eax, 3
; File z:\sources\lunor\repos\rougemeilland\palmtree.math.core.uint\palmtree.math.core.uint\pmc_memory.c

; 132  :         code = _ROTATE_L_UNIT(code, 3) ^ p[1];

	xor	eax, DWORD PTR [ecx+4]
; File z:\sources\lunor\repos\rougemeilland\palmtree.math.core.uint\palmtree.math.core.uint\pmc_inline_func.h

; 477  :         return (_rotl(x, count));

	rol	eax, 3
; File z:\sources\lunor\repos\rougemeilland\palmtree.math.core.uint\palmtree.math.core.uint\pmc_memory.c

; 133  :         code = _ROTATE_L_UNIT(code, 3) ^ p[2];

	xor	eax, DWORD PTR [ecx+8]
; File z:\sources\lunor\repos\rougemeilland\palmtree.math.core.uint\palmtree.math.core.uint\pmc_inline_func.h

; 477  :         return (_rotl(x, count));

	rol	eax, 3
; File z:\sources\lunor\repos\rougemeilland\palmtree.math.core.uint\palmtree.math.core.uint\pmc_memory.c

; 134  :         code = _ROTATE_L_UNIT(code, 3) ^ p[3];

	xor	eax, DWORD PTR [ecx+12]

; 135  :         p += 4;

	add	ecx, 16					; 00000010H
$LN6@CalculateC:

; 136  :     }
; 137  : 
; 138  :     if (words & 0x2)

	test	bl, 2
	je	SHORT $LN7@CalculateC
; File z:\sources\lunor\repos\rougemeilland\palmtree.math.core.uint\palmtree.math.core.uint\pmc_inline_func.h

; 477  :         return (_rotl(x, count));

	rol	eax, 3
; File z:\sources\lunor\repos\rougemeilland\palmtree.math.core.uint\palmtree.math.core.uint\pmc_memory.c

; 140  :         code = _ROTATE_L_UNIT(code, 3) ^ p[0];

	xor	eax, DWORD PTR [ecx]
; File z:\sources\lunor\repos\rougemeilland\palmtree.math.core.uint\palmtree.math.core.uint\pmc_inline_func.h

; 477  :         return (_rotl(x, count));

	rol	eax, 3
; File z:\sources\lunor\repos\rougemeilland\palmtree.math.core.uint\palmtree.math.core.uint\pmc_memory.c

; 141  :         code = _ROTATE_L_UNIT(code, 3) ^ p[1];

	xor	eax, DWORD PTR [ecx+4]

; 142  :         p += 2;

	add	ecx, 8
$LN7@CalculateC:

; 143  :     }
; 144  : 
; 145  :     if (words & 0x1)

	test	bl, 1
	pop	ebx
	je	SHORT $LN8@CalculateC
; File z:\sources\lunor\repos\rougemeilland\palmtree.math.core.uint\palmtree.math.core.uint\pmc_inline_func.h

; 477  :         return (_rotl(x, count));

	rol	eax, 3
; File z:\sources\lunor\repos\rougemeilland\palmtree.math.core.uint\palmtree.math.core.uint\pmc_memory.c

; 146  :         code = _ROTATE_L_UNIT(code, 3) ^ p[0];

	xor	eax, DWORD PTR [ecx]
$LN8@CalculateC:

; 147  :     
; 148  :     return (code);
; 149  : }

	pop	ebp
	ret	0
_CalculateCheckCode ENDP
_TEXT	ENDS
; Function compile flags: /Ogtp
; File z:\sources\lunor\repos\rougemeilland\palmtree.math.core.uint\palmtree.math.core.uint\pmc_inline_func.h
;	COMDAT __TZCNT_ALT_UNIT
_TEXT	SEGMENT
_x$ = 8							; size = 4
__TZCNT_ALT_UNIT PROC					; COMDAT

; 703  :     {

	push	ebp
	mov	ebp, esp

; 704  :         if (x == 0)

	mov	eax, DWORD PTR _x$[ebp]
	test	eax, eax
	jne	SHORT $LN2@TZCNT_ALT_

; 705  :             return (sizeof(x) * 8);

	mov	eax, 32					; 00000020H

; 710  : #elif defined(__GNUC__)
; 711  :         __asm__("bsfl %1, %0" : "=r"(pos) : "rm"(x));
; 712  : #else
; 713  : #error unknown compiler
; 714  : #endif
; 715  : #elif defined(_M_X64)
; 716  : #ifdef _MSC_VER
; 717  :         _UINT32_T pos;
; 718  :         _BitScanForward64(&pos, x);
; 719  : #elif defined(__GNUC__)
; 720  :         _UINT64_T pos;
; 721  :         __asm__("bsfq %1, %0" : "=r"(pos) : "rm"(x));
; 722  : #else
; 723  : #error unknown compiler
; 724  : #endif
; 725  : #else
; 726  : #error unknown platform
; 727  : #endif
; 728  :         return (pos);
; 729  :     }

	pop	ebp
	ret	0
$LN2@TZCNT_ALT_:

; 706  : #ifdef _M_IX86
; 707  :         _UINT32_T pos;
; 708  : #ifdef _MSC_VER
; 709  :         _BitScanForward(&pos, x);

	bsf	eax, eax

; 710  : #elif defined(__GNUC__)
; 711  :         __asm__("bsfl %1, %0" : "=r"(pos) : "rm"(x));
; 712  : #else
; 713  : #error unknown compiler
; 714  : #endif
; 715  : #elif defined(_M_X64)
; 716  : #ifdef _MSC_VER
; 717  :         _UINT32_T pos;
; 718  :         _BitScanForward64(&pos, x);
; 719  : #elif defined(__GNUC__)
; 720  :         _UINT64_T pos;
; 721  :         __asm__("bsfq %1, %0" : "=r"(pos) : "rm"(x));
; 722  : #else
; 723  : #error unknown compiler
; 724  : #endif
; 725  : #else
; 726  : #error unknown platform
; 727  : #endif
; 728  :         return (pos);
; 729  :     }

	pop	ebp
	ret	0
__TZCNT_ALT_UNIT ENDP
_TEXT	ENDS
; Function compile flags: /Ogtp
; File z:\sources\lunor\repos\rougemeilland\palmtree.math.core.uint\palmtree.math.core.uint\pmc_inline_func.h
;	COMDAT __LZCNT_ALT_UNIT
_TEXT	SEGMENT
_x$ = 8							; size = 4
__LZCNT_ALT_UNIT PROC					; COMDAT

; 623  :     {

	push	ebp
	mov	ebp, esp

; 624  :         if (x == 0)

	mov	eax, DWORD PTR _x$[ebp]
	test	eax, eax
	jne	SHORT $LN2@LZCNT_ALT_

; 625  :             return (sizeof(x) * 8);

	mov	eax, 32					; 00000020H

; 649  :     }

	pop	ebp
	ret	0
$LN2@LZCNT_ALT_:

; 626  : #ifdef _M_IX86
; 627  :         _UINT32_T pos;
; 628  : #ifdef _MSC_VER
; 629  :         _BitScanReverse(&pos, x);

	bsr	ecx, eax

; 630  : #elif defined(__GNUC__)
; 631  :         __asm__("bsrl %1, %0" : "=r"(pos) : "rm"(x));
; 632  : #else
; 633  : #error unknown compiler
; 634  : #endif
; 635  : #elif defined(_M_X64)
; 636  : #ifdef _MSC_VER
; 637  :         _UINT32_T pos;
; 638  :         _BitScanReverse64(&pos, x);
; 639  : #elif defined(__GNUC__)
; 640  :         _UINT64_T pos;
; 641  :         __asm__("bsrq %1, %0" : "=r"(pos) : "rm"(x));
; 642  : #else
; 643  : #error unknown compiler
; 644  : #endif
; 645  : #else
; 646  : #error unknown platform
; 647  : #endif
; 648  :         return (sizeof(x) * 8 - 1 - pos);

	mov	eax, 31					; 0000001fH
	sub	eax, ecx

; 649  :     }

	pop	ebp
	ret	0
__LZCNT_ALT_UNIT ENDP
_TEXT	ENDS
; Function compile flags: /Ogtp
; File z:\sources\lunor\repos\rougemeilland\palmtree.math.core.uint\palmtree.math.core.uint\pmc_inline_func.h
;	COMDAT __ROTATE_L_UNIT
_TEXT	SEGMENT
_x$ = 8							; size = 4
_count$ = 12						; size = 4
__ROTATE_L_UNIT PROC					; COMDAT

; 475  :     {

	push	ebp
	mov	ebp, esp

; 476  : #ifdef _M_IX86
; 477  :         return (_rotl(x, count));

	mov	eax, DWORD PTR _x$[ebp]
	mov	ecx, DWORD PTR _count$[ebp]
	rol	eax, cl

; 478  : #elif defined(_M_X64)
; 479  :         return (_rotl64(x, count));
; 480  : #else
; 481  : #error unknown platform
; 482  : #endif
; 483  :     }

	pop	ebp
	ret	0
__ROTATE_L_UNIT ENDP
_TEXT	ENDS
; Function compile flags: /Ogtp
; File z:\sources\lunor\repos\rougemeilland\palmtree.math.core.uint\palmtree.math.core.uint\pmc_inline_func.h
;	COMDAT __DIVREM_UNIT
_TEXT	SEGMENT
tv70 = -8						; size = 8
tv69 = -8						; size = 8
_u_high$ = 8						; size = 4
_u_low$ = 12						; size = 4
_v$ = 16						; size = 4
_r$ = 20						; size = 4
__DIVREM_UNIT PROC					; COMDAT

; 378  :     {

	push	ebp
	mov	ebp, esp
	sub	esp, 8

; 172  :         return (((_UINT64_T)value_high << 32) | value_low);

	mov	eax, DWORD PTR _u_high$[ebp]
	xor	ecx, ecx
	or	ecx, DWORD PTR _u_low$[ebp]

; 378  :     {

	push	ebx

; 379  : #ifdef _MSC_VER
; 380  :         if (sizeof(__UNIT_TYPE_DIV) == sizeof(_UINT32_T))
; 381  :         {
; 382  :             // 64bit/32bitの除算を行う組み込み関数は実装されていない。
; 383  :             _UINT64_T t = _FROMWORDTODWORD(u_high, u_low);
; 384  :             *r = (_UINT32_T)(t % v);

	push	ebx
	push	0
	push	DWORD PTR _v$[ebp]
	push	eax
	push	ecx
	call	__aulldvrm
	mov	DWORD PTR tv69[ebp+4], ebx
	pop	ebx
	mov	DWORD PTR tv70[ebp+4], edx
	mov	edx, DWORD PTR _r$[ebp]

; 385  :             return ((_UINT32_T)(t / v));

	pop	ebx
	mov	DWORD PTR [edx], ecx

; 386  :         }
; 387  :         else if (sizeof(__UNIT_TYPE_DIV) == sizeof(_UINT64_T))
; 388  :         {
; 389  :             // 以下の理由のため、MSVCでは 128bit/64bit の除算を実装できない。運用で回避すること。
; 390  :             // ・(x64 に限らず) 除算の組み込み関数が用意されていない。
; 391  :             // ・128bit 整数のデータ型が用意されていない。
; 392  :             // ・x64 ではインラインアセンブラがサポートされていない。
; 393  :             *r = 0;
; 394  :             return (0);
; 395  :         }
; 396  :         else
; 397  :         {
; 398  :             // 未知のプラットフォームの場合はとりあえず適当なものを返す。
; 399  :             *r = 0;
; 400  :             return (0);
; 401  :         }
; 402  : #elif defined(__GNUC__)
; 403  :         __UNIT_TYPE q;
; 404  :         if (sizeof(__UNIT_TYPE_DIV) == sizeof(_UINT32_T))
; 405  :             __asm__("divl %4": "=a"(q), "=d"(*r) : "0"(u_low), "1"(u_high), "rm"(v));
; 406  :         else if (sizeof(__UNIT_TYPE_DIV) == sizeof(_UINT64_T))
; 407  :             __asm__("divq %4": "=a"(q), "=d"(*r) : "0"(u_low), "1"(u_high), "rm"(v));
; 408  :         else
; 409  :         {
; 410  :             // 未知のプラットフォームの場合はとりあえず適当なものを返す。
; 411  :             *r = 0;
; 412  :             q = 0;
; 413  :         }
; 414  :         return (q);
; 415  : #else
; 416  : #error unknown compiler
; 417  : #endif
; 418  :     }

	mov	esp, ebp
	pop	ebp
	ret	0
__DIVREM_UNIT ENDP
_TEXT	ENDS
; Function compile flags: /Ogtp
; File z:\sources\lunor\repos\rougemeilland\palmtree.math.core.uint\palmtree.math.core.uint\pmc_inline_func.h
;	COMDAT __DIVIDE_CEILING_SIZE
_TEXT	SEGMENT
_u$ = 8							; size = 4
_v$ = 12						; size = 4
__DIVIDE_CEILING_SIZE PROC				; COMDAT

; 192  :     {

	push	ebp
	mov	ebp, esp

; 193  :         return ((u + v - 1) / v);

	mov	eax, DWORD PTR _u$[ebp]
	xor	edx, edx
	dec	eax
	add	eax, DWORD PTR _v$[ebp]
	div	DWORD PTR _v$[ebp]

; 194  :     }

	pop	ebp
	ret	0
__DIVIDE_CEILING_SIZE ENDP
_TEXT	ENDS
; Function compile flags: /Ogtp
; File z:\sources\lunor\repos\rougemeilland\palmtree.math.core.uint\palmtree.math.core.uint\pmc_inline_func.h
;	COMDAT __DIVIDE_CEILING_UNIT
_TEXT	SEGMENT
_u$ = 8							; size = 4
_v$ = 12						; size = 4
__DIVIDE_CEILING_UNIT PROC				; COMDAT

; 187  :     {

	push	ebp
	mov	ebp, esp

; 188  :         return ((u + v - 1) / v);

	mov	eax, DWORD PTR _u$[ebp]
	xor	edx, edx
	dec	eax
	add	eax, DWORD PTR _v$[ebp]
	div	DWORD PTR _v$[ebp]

; 189  :     }

	pop	ebp
	ret	0
__DIVIDE_CEILING_UNIT ENDP
_TEXT	ENDS
; Function compile flags: /Ogtp
; File z:\sources\lunor\repos\rougemeilland\palmtree.math.core.uint\palmtree.math.core.uint\pmc_inline_func.h
;	COMDAT __FROMWORDTODWORD
_TEXT	SEGMENT
_value_high$ = 8					; size = 4
_value_low$ = 12					; size = 4
__FROMWORDTODWORD PROC					; COMDAT

; 171  :     {

	push	ebp
	mov	ebp, esp

; 172  :         return (((_UINT64_T)value_high << 32) | value_low);

	mov	edx, DWORD PTR _value_high$[ebp]
	xor	eax, eax
	or	eax, DWORD PTR _value_low$[ebp]

; 173  :     }

	pop	ebp
	ret	0
__FROMWORDTODWORD ENDP
_TEXT	ENDS
; Function compile flags: /Ogtp
; File z:\sources\lunor\repos\rougemeilland\palmtree.math.core.uint\palmtree.math.core.uint\pmc_inline_func.h
;	COMDAT __FILL_MEMORY_UNIT
_TEXT	SEGMENT
_d$ = 8							; size = 4
_x$ = 12						; size = 4
_count$ = 16						; size = 4
__FILL_MEMORY_UNIT PROC					; COMDAT

; 160  :     {

	push	ebp
	mov	ebp, esp

; 161  : #ifdef _M_IX86
; 162  :         __stosd((unsigned long*)d, x, (unsigned long)count);

	mov	ecx, DWORD PTR _count$[ebp]
	mov	eax, DWORD PTR _x$[ebp]
	push	edi
	mov	edi, DWORD PTR _d$[ebp]
	rep stosd
	pop	edi

; 163  : #elif defined(_M_X64)
; 164  :         __stosq(d, x, count);
; 165  : #else
; 166  : #error unknown platform
; 167  : #endif
; 168  :     }

	pop	ebp
	ret	0
__FILL_MEMORY_UNIT ENDP
_TEXT	ENDS
; Function compile flags: /Ogtp
; File z:\sources\lunor\repos\rougemeilland\palmtree.math.core.uint\palmtree.math.core.uint\pmc_inline_func.h
;	COMDAT __FILL_MEMORY_32
_TEXT	SEGMENT
_d$ = 8							; size = 4
_x$ = 12						; size = 4
_count$ = 16						; size = 4
__FILL_MEMORY_32 PROC					; COMDAT

; 148  :     {

	push	ebp
	mov	ebp, esp

; 149  :         __stosd((unsigned long*)d, x, count);

	mov	ecx, DWORD PTR _count$[ebp]
	mov	eax, DWORD PTR _x$[ebp]
	push	edi
	mov	edi, DWORD PTR _d$[ebp]
	rep stosd
	pop	edi

; 150  :     }

	pop	ebp
	ret	0
__FILL_MEMORY_32 ENDP
_TEXT	ENDS
; Function compile flags: /Ogtp
; File z:\sources\lunor\repos\rougemeilland\palmtree.math.core.uint\palmtree.math.core.uint\pmc_inline_func.h
;	COMDAT __FILL_MEMORY_16
_TEXT	SEGMENT
_d$ = 8							; size = 4
_x$ = 12						; size = 2
_count$ = 16						; size = 4
__FILL_MEMORY_16 PROC					; COMDAT

; 143  :     {

	push	ebp
	mov	ebp, esp

; 144  :         __stosw(d, x, count);

	mov	ax, WORD PTR _x$[ebp]
	mov	ecx, DWORD PTR _count$[ebp]
	push	edi
	mov	edi, DWORD PTR _d$[ebp]
	rep stosw
	pop	edi

; 145  :     }

	pop	ebp
	ret	0
__FILL_MEMORY_16 ENDP
_TEXT	ENDS
; Function compile flags: /Ogtp
; File z:\sources\lunor\repos\rougemeilland\palmtree.math.core.uint\palmtree.math.core.uint\pmc_inline_func.h
;	COMDAT __FILL_MEMORY_BYTE
_TEXT	SEGMENT
_d$ = 8							; size = 4
_x$ = 12						; size = 1
_count$ = 16						; size = 4
__FILL_MEMORY_BYTE PROC					; COMDAT

; 138  :     {

	push	ebp
	mov	ebp, esp

; 139  :         __stosb(d, x, count);

	mov	al, BYTE PTR _x$[ebp]
	mov	ecx, DWORD PTR _count$[ebp]
	push	edi
	mov	edi, DWORD PTR _d$[ebp]
	rep stosb
	pop	edi

; 140  :     }

	pop	ebp
	ret	0
__FILL_MEMORY_BYTE ENDP
_TEXT	ENDS
; Function compile flags: /Ogtp
; File z:\sources\lunor\repos\rougemeilland\palmtree.math.core.uint\palmtree.math.core.uint\pmc_inline_func.h
;	COMDAT __ZERO_MEMORY_32
_TEXT	SEGMENT
_d$ = 8							; size = 4
_count$ = 12						; size = 4
__ZERO_MEMORY_32 PROC					; COMDAT

; 98   :     {

	push	ebp
	mov	ebp, esp

; 99   :         __stosd((unsigned long*)d, 0, count);

	mov	ecx, DWORD PTR _count$[ebp]
	xor	eax, eax
	push	edi
	mov	edi, DWORD PTR _d$[ebp]
	rep stosd
	pop	edi

; 100  :     }

	pop	ebp
	ret	0
__ZERO_MEMORY_32 ENDP
_TEXT	ENDS
; Function compile flags: /Ogtp
; File z:\sources\lunor\repos\rougemeilland\palmtree.math.core.uint\palmtree.math.core.uint\pmc_inline_func.h
;	COMDAT __ZERO_MEMORY_16
_TEXT	SEGMENT
_d$ = 8							; size = 4
_count$ = 12						; size = 4
__ZERO_MEMORY_16 PROC					; COMDAT

; 93   :     {

	push	ebp
	mov	ebp, esp

; 94   :         __stosw(d, 0, count);

	mov	ecx, DWORD PTR _count$[ebp]
	xor	eax, eax
	push	edi
	mov	edi, DWORD PTR _d$[ebp]
	rep stosw
	pop	edi

; 95   :     }

	pop	ebp
	ret	0
__ZERO_MEMORY_16 ENDP
_TEXT	ENDS
; Function compile flags: /Ogtp
; File z:\sources\lunor\repos\rougemeilland\palmtree.math.core.uint\palmtree.math.core.uint\pmc_inline_func.h
;	COMDAT __ZERO_MEMORY_BYTE
_TEXT	SEGMENT
_d$ = 8							; size = 4
_count$ = 12						; size = 4
__ZERO_MEMORY_BYTE PROC					; COMDAT

; 88   :     {

	push	ebp
	mov	ebp, esp

; 89   :         __stosb(d, 0, count);

	mov	ecx, DWORD PTR _count$[ebp]
	xor	al, al
	push	edi
	mov	edi, DWORD PTR _d$[ebp]
	rep stosb
	pop	edi

; 90   :     }

	pop	ebp
	ret	0
__ZERO_MEMORY_BYTE ENDP
_TEXT	ENDS
; Function compile flags: /Ogtp
; File z:\sources\lunor\repos\rougemeilland\palmtree.math.core.uint\palmtree.math.core.uint\pmc_inline_func.h
;	COMDAT __COPY_MEMORY_UNIT
_TEXT	SEGMENT
_d$ = 8							; size = 4
_s$ = 12						; size = 4
_count$ = 16						; size = 4
__COPY_MEMORY_UNIT PROC					; COMDAT

; 60   :     {

	push	ebp
	mov	ebp, esp

; 61   : #ifdef _M_IX86
; 62   :         __movsd((unsigned long *)d, (unsigned long *)s, (unsigned long)count);

	mov	ecx, DWORD PTR _count$[ebp]
	push	esi
	mov	esi, DWORD PTR _s$[ebp]
	push	edi
	mov	edi, DWORD PTR _d$[ebp]
	rep movsd
	pop	edi
	pop	esi

; 63   : #elif defined(_M_X64)
; 64   :         __movsq(d, s, count);
; 65   : #else
; 66   : #error unknown platform
; 67   : #endif
; 68   :     }

	pop	ebp
	ret	0
__COPY_MEMORY_UNIT ENDP
_TEXT	ENDS
; Function compile flags: /Ogtp
; File z:\sources\lunor\repos\rougemeilland\palmtree.math.core.uint\palmtree.math.core.uint\pmc_memory.c
;	COMDAT _PMC_GetConstantValue_I@8
_TEXT	SEGMENT
_type$ = 8						; size = 4
_o$ = 12						; size = 4
_PMC_GetConstantValue_I@8 PROC				; COMDAT

; 554  : {

	push	ebp
	mov	ebp, esp

; 555  :     switch (type)

	mov	eax, DWORD PTR _type$[ebp]
	sub	eax, 1
	je	SHORT $LN4@PMC_GetCon
	sub	eax, 1
	je	SHORT $LN5@PMC_GetCon

; 562  :         return (PMC_STATUS_OK);
; 563  :     default:
; 564  :         return (PMC_STATUS_ARGUMENT_ERROR);

	or	eax, -1

; 565  :     }
; 566  : }

	pop	ebp
	ret	8
$LN5@PMC_GetCon:

; 559  :         return (PMC_STATUS_OK);
; 560  :     case PMC_CONSTANT_ONE:
; 561  :         *o = (PMC_HANDLE_UINT)&number_one;

	mov	eax, DWORD PTR _o$[ebp]
	mov	DWORD PTR [eax], OFFSET _number_one

; 565  :     }
; 566  : }

	xor	eax, eax
	pop	ebp
	ret	8
$LN4@PMC_GetCon:

; 556  :     {
; 557  :     case PMC_CONSTANT_ZERO:
; 558  :         *o = (PMC_HANDLE_UINT)&number_zero;

	mov	eax, DWORD PTR _o$[ebp]
	mov	DWORD PTR [eax], OFFSET _number_zero

; 565  :     }
; 566  : }

	xor	eax, eax
	pop	ebp
	ret	8
_PMC_GetConstantValue_I@8 ENDP
_TEXT	ENDS
; Function compile flags: /Ogtp
; File z:\sources\lunor\repos\rougemeilland\palmtree.math.core.uint\palmtree.math.core.uint\pmc_memory.c
; File z:\sources\lunor\repos\rougemeilland\palmtree.math.core.uint\palmtree.math.core.uint\pmc_inline_func.h
; File z:\sources\lunor\repos\rougemeilland\palmtree.math.core.uint\palmtree.math.core.uint\pmc_memory.c
; File z:\sources\lunor\repos\rougemeilland\palmtree.math.core.uint\palmtree.math.core.uint\pmc_inline_func.h
; File z:\sources\lunor\repos\rougemeilland\palmtree.math.core.uint\palmtree.math.core.uint\pmc_memory.c
;	COMDAT _PMC_Dispose@4
_TEXT	SEGMENT
_p$ = 8							; size = 4
_PMC_Dispose@4 PROC					; COMDAT

; 569  : {

	push	ebp
	mov	ebp, esp
	push	esi

; 514  :     if (p->SIGNATURE1 != PMC_SIGNATURE || p->SIGNATURE2 != PMC_UINT_SIGNATURE)

	mov	esi, DWORD PTR _p$[ebp]
	cmp	DWORD PTR [esi+4], 1231244656		; 49634d70H
	jne	$LN14@PMC_Dispos
	cmp	DWORD PTR [esi+8], 1416522069		; 546e6955H
	jne	$LN14@PMC_Dispos

; 435  :     if (p == NULL || p->IS_STATIC)

	test	BYTE PTR [esi+28], 1
	jne	$LN14@PMC_Dispos

; 397  :     if (p->BLOCK != NULL)

	mov	eax, DWORD PTR [esi+36]
	test	eax, eax
	je	SHORT $LN22@PMC_Dispos

; 398  :     {
; 399  :         DeallocateBlock(p->BLOCK, p->BLOCK_COUNT);

	mov	ecx, DWORD PTR [esi+32]

; 202  :         __UNIT_TYPE* p = buffer - 1;

	lea	edx, DWORD PTR [eax-4]

; 203  :         if (*p != buffer_words)

	cmp	DWORD PTR [edx], ecx
	jne	SHORT $LN22@PMC_Dispos

; 204  :         {
; 205  :             // もし、buffer の指す内容が壊れていることが明らかならば、二重解放の恐れがあるので解放処理はしない。
; 206  :         }
; 207  :         else
; 208  :         {
; 209  :             // 使用済みのバッファを既定のデータで塗りつぶす。
; 210  :             _FILL_MEMORY_UNIT(p, DEFAULT_MEMORY_DATA, buffer_words + 2);

	push	edi

; 212  :             HeapFree(hLocalHeap, 0, p);

	push	edx
	add	ecx, 2
; File z:\sources\lunor\repos\rougemeilland\palmtree.math.core.uint\palmtree.math.core.uint\pmc_inline_func.h

; 162  :         __stosd((unsigned long*)d, x, (unsigned long)count);

	mov	edi, edx
	mov	eax, -858993460				; ccccccccH
; File z:\sources\lunor\repos\rougemeilland\palmtree.math.core.uint\palmtree.math.core.uint\pmc_memory.c

; 212  :             HeapFree(hLocalHeap, 0, p);

	push	0
; File z:\sources\lunor\repos\rougemeilland\palmtree.math.core.uint\palmtree.math.core.uint\pmc_inline_func.h

; 162  :         __stosd((unsigned long*)d, x, (unsigned long)count);

	rep stosd
; File z:\sources\lunor\repos\rougemeilland\palmtree.math.core.uint\palmtree.math.core.uint\pmc_memory.c

; 212  :             HeapFree(hLocalHeap, 0, p);

	push	DWORD PTR _hLocalHeap
	call	DWORD PTR __imp__HeapFree@12
	pop	edi
$LN22@PMC_Dispos:

; 439  :     HeapFree(hLocalHeap, 0, p);

	push	esi
	push	0

; 341  :             __p[0] = (_UINT32_T)DEFAULT_MEMORY_DATA;

	mov	DWORD PTR [esi], -858993460		; ccccccccH

; 342  :             __p[1] = (_UINT32_T)DEFAULT_MEMORY_DATA;

	mov	DWORD PTR [esi+4], -858993460		; ccccccccH

; 343  :             __p[2] = (_UINT32_T)DEFAULT_MEMORY_DATA;

	mov	DWORD PTR [esi+8], -858993460		; ccccccccH

; 344  :             __p[3] = (_UINT32_T)DEFAULT_MEMORY_DATA;

	mov	DWORD PTR [esi+12], -858993460		; ccccccccH

; 345  :             __p[4] = (_UINT32_T)DEFAULT_MEMORY_DATA;

	mov	DWORD PTR [esi+16], -858993460		; ccccccccH

; 346  :             __p[5] = (_UINT32_T)DEFAULT_MEMORY_DATA;

	mov	DWORD PTR [esi+20], -858993460		; ccccccccH

; 347  :             __p[6] = (_UINT32_T)DEFAULT_MEMORY_DATA;

	mov	DWORD PTR [esi+24], -858993460		; ccccccccH

; 348  :             __p[7] = (_UINT32_T)DEFAULT_MEMORY_DATA;

	mov	DWORD PTR [esi+28], -858993460		; ccccccccH

; 349  :             __p[8] = (_UINT32_T)DEFAULT_MEMORY_DATA;

	mov	DWORD PTR [esi+32], -858993460		; ccccccccH

; 350  :             __p[9] = (_UINT32_T)DEFAULT_MEMORY_DATA;

	mov	DWORD PTR [esi+36], -858993460		; ccccccccH

; 439  :     HeapFree(hLocalHeap, 0, p);

	push	DWORD PTR _hLocalHeap
	call	DWORD PTR __imp__HeapFree@12
$LN14@PMC_Dispos:
	pop	esi

; 570  :     NUMBER_HEADER* np = (NUMBER_HEADER*)p;
; 571  :     PMC_STATUS_CODE result = CheckNumber(np);
; 572  :     if (result != PMC_STATUS_OK)
; 573  :         return;
; 574  :     DeallocateNumber(np);
; 575  :     return;
; 576  : }

	pop	ebp
	ret	4
_PMC_Dispose@4 ENDP
_TEXT	ENDS
; Function compile flags: /Ogtp
; File z:\sources\lunor\repos\rougemeilland\palmtree.math.core.uint\palmtree.math.core.uint\pmc_memory.c
; File z:\sources\lunor\repos\rougemeilland\palmtree.math.core.uint\palmtree.math.core.uint\pmc_inline_func.h
; File z:\sources\lunor\repos\rougemeilland\palmtree.math.core.uint\palmtree.math.core.uint\pmc_memory.c
; File z:\sources\lunor\repos\rougemeilland\palmtree.math.core.uint\palmtree.math.core.uint\pmc_inline_func.h
; File z:\sources\lunor\repos\rougemeilland\palmtree.math.core.uint\palmtree.math.core.uint\pmc_memory.c
; File z:\sources\lunor\repos\rougemeilland\palmtree.math.core.uint\palmtree.math.core.uint\pmc_inline_func.h
; File z:\sources\lunor\repos\rougemeilland\palmtree.math.core.uint\palmtree.math.core.uint\pmc_memory.c
; File z:\sources\lunor\repos\rougemeilland\palmtree.math.core.uint\palmtree.math.core.uint\pmc_inline_func.h
; File z:\sources\lunor\repos\rougemeilland\palmtree.math.core.uint\palmtree.math.core.uint\pmc_memory.c
;	COMDAT _Initialize_Memory
_TEXT	SEGMENT
_feature$ = 8						; size = 4
_Initialize_Memory PROC					; COMDAT

; 687  : {

	push	esi

; 688  :     PMC_STATUS_CODE result = PMC_STATUS_OK;
; 689  : 
; 690  :     BOOL number_zero_ok = TRUE;
; 691  :     BOOL number_one_ok = TRUE;
; 692  :     if (result == PMC_STATUS_OK)
; 693  :     {
; 694  :         result = AttatchNumber(&number_zero, 0);
; 695  :         if (result == PMC_STATUS_OK)
; 696  :         {
; 697  :             CommitNumber(&number_zero);

	push	OFFSET _number_zero

; 293  :             __p[0] = 0;

	mov	DWORD PTR _number_zero, 0

; 294  :             __p[1] = 0;
; 295  :             __p[2] = 0;
; 296  :             __p[3] = 0;

	mov	DWORD PTR _number_zero+12, 0

; 297  :             __p[4] = 0;
; 298  :             __p[5] = 0;

	mov	DWORD PTR _number_zero+20, 0

; 299  :             __p[6] = 0;

	mov	DWORD PTR _number_zero+24, 0

; 386  :         p->SIGNATURE1 = PMC_SIGNATURE;

	mov	DWORD PTR _number_zero+4, 1231244656	; 49634d70H

; 387  :         p->SIGNATURE2 = PMC_UINT_SIGNATURE;

	mov	DWORD PTR _number_zero+8, 1416522069	; 546e6955H

; 388  :         p->UNIT_BIT_COUNT = 0;

	mov	DWORD PTR _number_zero+16, 0

; 389  :         p->BLOCK_COUNT = 0;

	mov	DWORD PTR _number_zero+32, 0

; 390  :         p->BLOCK = NULL;

	mov	DWORD PTR _number_zero+36, 0

; 409  :     p->IS_STATIC = TRUE;

	mov	DWORD PTR _number_zero+28, 1

; 688  :     PMC_STATUS_CODE result = PMC_STATUS_OK;
; 689  : 
; 690  :     BOOL number_zero_ok = TRUE;
; 691  :     BOOL number_one_ok = TRUE;
; 692  :     if (result == PMC_STATUS_OK)
; 693  :     {
; 694  :         result = AttatchNumber(&number_zero, 0);
; 695  :         if (result == PMC_STATUS_OK)
; 696  :         {
; 697  :             CommitNumber(&number_zero);

	call	_CommitNumber
	add	esp, 4

; 165  : 	__UNIT_TYPE* buffer = (__UNIT_TYPE*)HeapAlloc(hLocalHeap, HEAP_ZERO_MEMORY, bytes);

	push	12					; 0000000cH
	push	8
	push	DWORD PTR _hLocalHeap
	call	DWORD PTR __imp__HeapAlloc@12

; 166  : 	if (buffer == NULL)

	test	eax, eax
	je	SHORT $LN94@Initialize

; 167  : 		return (NULL);
; 168  : 	buffer[0] = words1;
; 169  :     *allocated_block_words = words1;
; 170  : #ifdef _DEBUG
; 171  :     // 乱数もどきを生成する。
; 172  : #ifdef _M_IX86
; 173  :     __UNIT_TYPE r = GetTickCount();
; 174  : #elif defined(_M_IX64)
; 175  : #ifdef _MSC_VER
; 176  :     __UNIT_TYPE r = GetTickCount64();
; 177  : #elif defined(__GNUC__)
; 178  :     _UINT32_T temp = GetTickCount();
; 179  :     __UNIT_TYPE r = _FROMWORDTODWORD(temp, temp);
; 180  : #else
; 181  : #error unknown compiler
; 182  : #endif
; 183  : #else
; 184  : #error unknown platform
; 185  : #endif
; 186  :     __UNIT_TYPE check_code = configuration_info.MEMORY_VERIFICATION_ENABLED ? CalculateCheckCode(&buffer[1], words1) : CHECK_CODE_INIT | r;
; 187  : #else
; 188  :     __UNIT_TYPE check_code = 0;
; 189  : #endif
; 190  :     buffer[words1 + 1] = check_code ^ (__UNIT_TYPE)&buffer[words1 + 1];

	lea	ecx, DWORD PTR [eax+4]
	mov	DWORD PTR [eax], 1
	add	eax, 8
	mov	DWORD PTR [ecx+4], eax

; 373  :         if (block == NULL)

	test	ecx, ecx
	je	SHORT $LN94@Initialize

; 375  :         ClearNumberHeader(p);

	push	OFFSET _number_one
	call	_ClearNumberHeader
	add	esp, 4

; 376  :         p->SIGNATURE1 = PMC_SIGNATURE;

	mov	DWORD PTR _number_one+4, 1231244656	; 49634d70H

; 407  :     if (result != PMC_STATUS_OK)

	xor	esi, esi

; 377  :         p->SIGNATURE2 = PMC_UINT_SIGNATURE;

	mov	DWORD PTR _number_one+8, 1416522069	; 546e6955H

; 409  :     p->IS_STATIC = TRUE;

	or	DWORD PTR _number_one+28, 1

; 378  :         p->UNIT_BIT_COUNT = bit_count;

	mov	DWORD PTR _number_one+16, 1

; 379  :         p->BLOCK_COUNT = word_count;

	mov	DWORD PTR _number_one+32, 1

; 380  :         p->BLOCK = block;

	mov	DWORD PTR _number_one+36, ecx

; 409  :     p->IS_STATIC = TRUE;

	jmp	SHORT $LN38@Initialize
$LN94@Initialize:

; 374  :             return (PMC_STATUS_NOT_ENOUGH_MEMORY);

	mov	ecx, DWORD PTR _number_one+36
	mov	esi, -6					; fffffffaH
$LN38@Initialize:

; 698  :             number_zero_ok = TRUE;
; 699  :         }
; 700  :     }
; 701  : 
; 702  :     if (result == PMC_STATUS_OK)
; 703  :     {
; 704  :         result = AttatchNumber(&number_one, 1);
; 705  :         if (result == PMC_STATUS_OK)

	test	esi, esi
	jne	SHORT $LN5@Initialize

; 706  :         {
; 707  :             number_one.BLOCK[0] = 1;
; 708  :             CommitNumber(&number_one);

	push	OFFSET _number_one
	mov	DWORD PTR [ecx], 1
	call	_CommitNumber
	add	esp, 4

; 709  :             number_one_ok = TRUE;
; 710  :         }
; 711  :     }
; 712  : 
; 713  :     if (result != PMC_STATUS_OK)
; 714  :     {
; 715  :         if (number_zero_ok)
; 716  :             DetatchNumber(&number_zero);
; 717  :         if (number_one_ok)
; 718  :             DetatchNumber(&number_one);
; 719  :     }
; 720  :     return (result);

	xor	eax, eax
	pop	esi

; 721  : }

	ret	0
$LN5@Initialize:

; 428  :     if (p == NULL || !p->IS_STATIC)

	test	BYTE PTR _number_zero+28, 1
	push	edi
	je	SHORT $LN68@Initialize

; 397  :     if (p->BLOCK != NULL)

	mov	eax, DWORD PTR _number_zero+36
	test	eax, eax
	je	SHORT $LN68@Initialize

; 398  :     {
; 399  :         DeallocateBlock(p->BLOCK, p->BLOCK_COUNT);

	mov	edi, DWORD PTR _number_zero+32

; 202  :         __UNIT_TYPE* p = buffer - 1;

	lea	edx, DWORD PTR [eax-4]

; 203  :         if (*p != buffer_words)

	cmp	DWORD PTR [edx], edi
	jne	SHORT $LN76@Initialize

; 212  :             HeapFree(hLocalHeap, 0, p);

	push	edx
	lea	ecx, DWORD PTR [edi+2]
; File z:\sources\lunor\repos\rougemeilland\palmtree.math.core.uint\palmtree.math.core.uint\pmc_inline_func.h

; 162  :         __stosd((unsigned long*)d, x, (unsigned long)count);

	mov	eax, -858993460				; ccccccccH
	mov	edi, edx
; File z:\sources\lunor\repos\rougemeilland\palmtree.math.core.uint\palmtree.math.core.uint\pmc_memory.c

; 212  :             HeapFree(hLocalHeap, 0, p);

	push	0
; File z:\sources\lunor\repos\rougemeilland\palmtree.math.core.uint\palmtree.math.core.uint\pmc_inline_func.h

; 162  :         __stosd((unsigned long*)d, x, (unsigned long)count);

	rep stosd
; File z:\sources\lunor\repos\rougemeilland\palmtree.math.core.uint\palmtree.math.core.uint\pmc_memory.c

; 212  :             HeapFree(hLocalHeap, 0, p);

	push	DWORD PTR _hLocalHeap
	call	DWORD PTR __imp__HeapFree@12
	mov	ecx, DWORD PTR _number_one+36
$LN76@Initialize:

; 400  :         p->BLOCK = NULL;

	mov	DWORD PTR _number_zero+36, 0
$LN68@Initialize:

; 428  :     if (p == NULL || !p->IS_STATIC)

	test	BYTE PTR _number_one+28, 1
	je	SHORT $LN95@Initialize

; 397  :     if (p->BLOCK != NULL)

	test	ecx, ecx
	je	SHORT $LN95@Initialize

; 398  :     {
; 399  :         DeallocateBlock(p->BLOCK, p->BLOCK_COUNT);

	mov	edi, DWORD PTR _number_one+32

; 202  :         __UNIT_TYPE* p = buffer - 1;

	lea	edx, DWORD PTR [ecx-4]

; 203  :         if (*p != buffer_words)

	cmp	DWORD PTR [edx], edi
	jne	SHORT $LN90@Initialize

; 212  :             HeapFree(hLocalHeap, 0, p);

	push	edx
	lea	ecx, DWORD PTR [edi+2]
; File z:\sources\lunor\repos\rougemeilland\palmtree.math.core.uint\palmtree.math.core.uint\pmc_inline_func.h

; 162  :         __stosd((unsigned long*)d, x, (unsigned long)count);

	mov	eax, -858993460				; ccccccccH
	mov	edi, edx
; File z:\sources\lunor\repos\rougemeilland\palmtree.math.core.uint\palmtree.math.core.uint\pmc_memory.c

; 212  :             HeapFree(hLocalHeap, 0, p);

	push	0
; File z:\sources\lunor\repos\rougemeilland\palmtree.math.core.uint\palmtree.math.core.uint\pmc_inline_func.h

; 162  :         __stosd((unsigned long*)d, x, (unsigned long)count);

	rep stosd
; File z:\sources\lunor\repos\rougemeilland\palmtree.math.core.uint\palmtree.math.core.uint\pmc_memory.c

; 212  :             HeapFree(hLocalHeap, 0, p);

	push	DWORD PTR _hLocalHeap
	call	DWORD PTR __imp__HeapFree@12
$LN90@Initialize:

; 400  :         p->BLOCK = NULL;

	mov	DWORD PTR _number_one+36, 0
$LN95@Initialize:
	pop	edi

; 709  :             number_one_ok = TRUE;
; 710  :         }
; 711  :     }
; 712  : 
; 713  :     if (result != PMC_STATUS_OK)
; 714  :     {
; 715  :         if (number_zero_ok)
; 716  :             DetatchNumber(&number_zero);
; 717  :         if (number_one_ok)
; 718  :             DetatchNumber(&number_one);
; 719  :     }
; 720  :     return (result);

	mov	eax, esi
	pop	esi

; 721  : }

	ret	0
_Initialize_Memory ENDP
_TEXT	ENDS
; Function compile flags: /Ogtp
; File z:\sources\lunor\repos\rougemeilland\palmtree.math.core.uint\palmtree.math.core.uint\pmc_memory.c
;	COMDAT _DeallocateChainedBuffer
_TEXT	SEGMENT
_root$ = 8						; size = 4
_buffer$ = 12						; size = 4
_DeallocateChainedBuffer PROC				; COMDAT

; 663  : {

	push	ebp
	mov	ebp, esp

; 664  :     struct __tag_CHAIN_BUFFER_HEADER* header = (struct __tag_CHAIN_BUFFER_HEADER*)buffer - 1;
; 665  :     CheckChainedBuffer_Imp(header);
; 666  : 
; 667  :     for (__CHAIN_BUFFER_TAG* tag = root->tag.next; tag != &root->tag; tag = tag->next)

	mov	ecx, DWORD PTR _root$[ebp]
	mov	edx, DWORD PTR _buffer$[ebp]
	add	edx, -16				; fffffff0H
	mov	eax, DWORD PTR [ecx]
	cmp	eax, ecx
	je	SHORT $LN3@Deallocate
$LL4@Deallocate:

; 668  :     {
; 669  :         if (tag == (__CHAIN_BUFFER_TAG*)header)

	cmp	eax, edx
	je	SHORT $LN20@Deallocate

; 664  :     struct __tag_CHAIN_BUFFER_HEADER* header = (struct __tag_CHAIN_BUFFER_HEADER*)buffer - 1;
; 665  :     CheckChainedBuffer_Imp(header);
; 666  : 
; 667  :     for (__CHAIN_BUFFER_TAG* tag = root->tag.next; tag != &root->tag; tag = tag->next)

	mov	eax, DWORD PTR [eax]
	cmp	eax, ecx
	jne	SHORT $LL4@Deallocate

; 670  :         {
; 671  :             DeallocateChainedBuffer_Imp(header);
; 672  :             return;
; 673  :         }
; 674  :     }
; 675  :     // 指定された領域のポインタがチェーンの中に見つからなかった場合
; 676  :     // 主原因は与えられたポインタが誤っているかあるいは二重解放であること
; 677  : 
; 678  :     {
; 679  :         __UNIT_TYPE_DIV temp_r;
; 680  :         _DIVREM_UNIT(0, 1, 0, &temp_r);// 故意にゼロ除算例外を発生させる
; 681  :     }
; 682  : }

	pop	ebp
	ret	0
$LN20@Deallocate:

; 614  :     tag->next->prev = tag->prev;

	mov	ecx, DWORD PTR [edx]
	mov	eax, DWORD PTR [edx+4]

; 615  :     tag->prev->next = tag->next;
; 616  : #ifdef _DEBUG
; 617  :     _FILL_MEMORY_32((_UINT32_T*)header, 0xcccccccc, (sizeof(*header) + header->header.body.user_data_size + sizeof(_UINT32_T)) / sizeof(_UINT32_T));
; 618  : #endif
; 619  :     HeapFree(hLocalHeap, 0, tag);

	push	edx
	push	0
	mov	DWORD PTR [ecx+4], eax
	mov	ecx, DWORD PTR [edx+4]
	mov	eax, DWORD PTR [edx]
	mov	DWORD PTR [ecx], eax
	push	DWORD PTR _hLocalHeap
	call	DWORD PTR __imp__HeapFree@12
$LN3@Deallocate:

; 670  :         {
; 671  :             DeallocateChainedBuffer_Imp(header);
; 672  :             return;
; 673  :         }
; 674  :     }
; 675  :     // 指定された領域のポインタがチェーンの中に見つからなかった場合
; 676  :     // 主原因は与えられたポインタが誤っているかあるいは二重解放であること
; 677  : 
; 678  :     {
; 679  :         __UNIT_TYPE_DIV temp_r;
; 680  :         _DIVREM_UNIT(0, 1, 0, &temp_r);// 故意にゼロ除算例外を発生させる
; 681  :     }
; 682  : }

	pop	ebp
	ret	0
_DeallocateChainedBuffer ENDP
_TEXT	ENDS
; Function compile flags: /Ogtp
; File z:\sources\lunor\repos\rougemeilland\palmtree.math.core.uint\palmtree.math.core.uint\pmc_memory.c
;	COMDAT _CheckChainedBuffer
_TEXT	SEGMENT
_buffer$ = 8						; size = 4
_CheckChainedBuffer PROC				; COMDAT

; 659  :     CheckChainedBuffer_Imp((struct __tag_CHAIN_BUFFER_HEADER*)buffer - 1);
; 660  : }

	ret	0
_CheckChainedBuffer ENDP
_TEXT	ENDS
; Function compile flags: /Ogtp
; File z:\sources\lunor\repos\rougemeilland\palmtree.math.core.uint\palmtree.math.core.uint\pmc_memory.c
; File z:\sources\lunor\repos\rougemeilland\palmtree.math.core.uint\palmtree.math.core.uint\pmc_inline_func.h
; File z:\sources\lunor\repos\rougemeilland\palmtree.math.core.uint\palmtree.math.core.uint\pmc_memory.c
;	COMDAT _AllocateChainedBuffer
_TEXT	SEGMENT
_root$ = 8						; size = 4
_size$ = 12						; size = 4
_AllocateChainedBuffer PROC				; COMDAT

; 640  : {

	push	ebp
	mov	ebp, esp
	push	esi
	push	edi
; File z:\sources\lunor\repos\rougemeilland\palmtree.math.core.uint\palmtree.math.core.uint\pmc_inline_func.h

; 193  :         return ((u + v - 1) / v);

	mov	edi, DWORD PTR _size$[ebp]
	add	edi, 3
; File z:\sources\lunor\repos\rougemeilland\palmtree.math.core.uint\palmtree.math.core.uint\pmc_memory.c

; 641  :     size_t user_data_size = _DIVIDE_CEILING_SIZE(size, sizeof(_UINT32_T)) * sizeof(_UINT32_T);

	and	edi, -4					; fffffffcH

; 642  :     void* buffer = HeapAlloc(hLocalHeap, HEAP_ZERO_MEMORY, sizeof(struct __tag_CHAIN_BUFFER_HEADER) + user_data_size + sizeof(_UINT32_T));

	lea	eax, DWORD PTR [edi+20]
	push	eax
	push	8
	push	DWORD PTR _hLocalHeap
	call	DWORD PTR __imp__HeapAlloc@12
	mov	esi, eax

; 643  :     if (buffer == NULL)

	test	esi, esi
	jne	SHORT $LN2@AllocateCh

; 655  : }

	pop	edi
	pop	esi
	pop	ebp
	ret	0
$LN2@AllocateCh:

; 644  :         return (NULL);
; 645  :     _UINT32_T code = GetTickCount();

	call	DWORD PTR __imp__GetTickCount@0

; 646  :     struct __tag_CHAIN_BUFFER_HEADER* buffer_header = (struct __tag_CHAIN_BUFFER_HEADER*)buffer;
; 647  :     buffer_header->tag.prev = &root->tag;

	mov	edx, DWORD PTR _root$[ebp]
	mov	DWORD PTR [esi+4], edx

; 648  :     buffer_header->tag.next = root->tag.next;

	mov	ecx, DWORD PTR [edx]
	mov	DWORD PTR [esi], ecx

; 649  :     root->tag.next->prev = &buffer_header->tag;

	mov	ecx, DWORD PTR [edx]
	mov	DWORD PTR [ecx+4], esi

; 650  :     root->tag.next = &buffer_header->tag;

	mov	DWORD PTR [edx], esi

; 651  :     buffer_header->header.body.check_code = code;

	mov	DWORD PTR [esi+12], eax

; 652  :     buffer_header->header.body.user_data_size = user_data_size;

	mov	DWORD PTR [esi+8], edi

; 653  :     *(_UINT32_T*)&((unsigned char*)buffer)[sizeof(struct __tag_CHAIN_BUFFER_HEADER) + user_data_size] = code;

	mov	DWORD PTR [esi+edi+16], eax

; 654  :     return (&((struct __tag_CHAIN_BUFFER_HEADER*)buffer)[1]);

	lea	eax, DWORD PTR [esi+16]
	pop	edi

; 655  : }

	pop	esi
	pop	ebp
	ret	0
_AllocateChainedBuffer ENDP
_TEXT	ENDS
; Function compile flags: /Ogtp
; File z:\sources\lunor\repos\rougemeilland\palmtree.math.core.uint\palmtree.math.core.uint\pmc_memory.c
;	COMDAT _CleanUpChainBuffer
_TEXT	SEGMENT
_root$ = 8						; size = 4
_CleanUpChainBuffer PROC				; COMDAT

; 629  : {

	push	ebp
	mov	ebp, esp
	push	esi

; 630  :     __CHAIN_BUFFER_TAG* root_tag = &root->tag;
; 631  :     while (root_tag->next != root_tag)

	mov	esi, DWORD PTR _root$[ebp]
	mov	eax, DWORD PTR [esi]
	cmp	eax, esi
	je	SHORT $LN3@CleanUpCha
	push	edi
	mov	edi, DWORD PTR __imp__HeapFree@12
$LL2@CleanUpCha:

; 614  :     tag->next->prev = tag->prev;

	mov	edx, DWORD PTR [eax]
	mov	ecx, DWORD PTR [eax+4]

; 615  :     tag->prev->next = tag->next;
; 616  : #ifdef _DEBUG
; 617  :     _FILL_MEMORY_32((_UINT32_T*)header, 0xcccccccc, (sizeof(*header) + header->header.body.user_data_size + sizeof(_UINT32_T)) / sizeof(_UINT32_T));
; 618  : #endif
; 619  :     HeapFree(hLocalHeap, 0, tag);

	push	eax
	push	0
	mov	DWORD PTR [edx+4], ecx
	mov	edx, DWORD PTR [eax+4]
	mov	ecx, DWORD PTR [eax]
	mov	DWORD PTR [edx], ecx
	push	DWORD PTR _hLocalHeap
	call	edi

; 630  :     __CHAIN_BUFFER_TAG* root_tag = &root->tag;
; 631  :     while (root_tag->next != root_tag)

	mov	eax, DWORD PTR [esi]
	cmp	eax, esi
	jne	SHORT $LL2@CleanUpCha
	pop	edi
$LN3@CleanUpCha:
	pop	esi

; 632  :     {
; 633  :         __CHAIN_BUFFER_TAG* p = root_tag->next;
; 634  :         CheckChainedBuffer_Imp((struct __tag_CHAIN_BUFFER_HEADER*)p);
; 635  :         DeallocateChainedBuffer_Imp((struct __tag_CHAIN_BUFFER_HEADER*)p);
; 636  :     }
; 637  : }

	pop	ebp
	ret	0
_CleanUpChainBuffer ENDP
_TEXT	ENDS
; Function compile flags: /Ogtp
; File z:\sources\lunor\repos\rougemeilland\palmtree.math.core.uint\palmtree.math.core.uint\pmc_memory.c
;	COMDAT _InitializeChainBuffer
_TEXT	SEGMENT
_root$ = 8						; size = 4
_InitializeChainBuffer PROC				; COMDAT

; 623  : {

	push	ebp
	mov	ebp, esp

; 624  :     root->tag.next = &root->tag;

	mov	eax, DWORD PTR _root$[ebp]
	mov	DWORD PTR [eax], eax

; 625  :     root->tag.prev = &root->tag;

	mov	DWORD PTR [eax+4], eax

; 626  : }

	pop	ebp
	ret	0
_InitializeChainBuffer ENDP
_TEXT	ENDS
; Function compile flags: /Ogtp
; File z:\sources\lunor\repos\rougemeilland\palmtree.math.core.uint\palmtree.math.core.uint\pmc_memory.c
; File z:\sources\lunor\repos\rougemeilland\palmtree.math.core.uint\palmtree.math.core.uint\pmc_inline_func.h
; File z:\sources\lunor\repos\rougemeilland\palmtree.math.core.uint\palmtree.math.core.uint\pmc_memory.c
;	COMDAT _DuplicateNumber
_TEXT	SEGMENT
_x$ = 8							; size = 4
_op$ = 12						; size = 4
_DuplicateNumber PROC					; COMDAT

; 531  : {

	push	ebp
	mov	ebp, esp
	push	esi

; 532  :     if (x->IS_STATIC)

	mov	esi, DWORD PTR _x$[ebp]
	test	BYTE PTR [esi+28], 1
	je	SHORT $LN2@DuplicateN

; 533  :     {
; 534  :         *op = x;

	mov	eax, DWORD PTR _op$[ebp]
	mov	DWORD PTR [eax], esi

; 535  :         return (PMC_STATUS_OK);

	xor	eax, eax
	pop	esi

; 551  : }

	pop	ebp
	ret	0
$LN2@DuplicateN:

; 536  :     }
; 537  :     if (x->IS_ZERO)

	test	BYTE PTR [esi], 1
	je	SHORT $LN3@DuplicateN

; 538  :     {
; 539  :         *op = &number_zero;

	mov	eax, DWORD PTR _op$[ebp]
	pop	esi
	mov	DWORD PTR [eax], OFFSET _number_zero

; 540  :         return (PMC_STATUS_OK);

	xor	eax, eax

; 551  : }

	pop	ebp
	ret	0
$LN3@DuplicateN:
	push	ebx
	push	edi

; 541  :     }
; 542  :     __UNIT_TYPE x_bit_count = x->UNIT_BIT_COUNT;

	mov	edi, DWORD PTR [esi+16]

; 415  :     NUMBER_HEADER* p = (NUMBER_HEADER*)HeapAlloc(hLocalHeap, HEAP_ZERO_MEMORY, sizeof(NUMBER_HEADER));

	push	40					; 00000028H
	push	8
	push	DWORD PTR _hLocalHeap
	call	DWORD PTR __imp__HeapAlloc@12
	mov	ebx, eax

; 416  :     if (p == NULL)

	test	ebx, ebx
	jne	SHORT $LN7@DuplicateN
	pop	edi

; 417  :         return (PMC_STATUS_NOT_ENOUGH_MEMORY);

	lea	eax, DWORD PTR [ebx-6]
	pop	ebx
	pop	esi

; 551  : }

	pop	ebp
	ret	0
$LN7@DuplicateN:

; 418  :     PMC_STATUS_CODE result = InitializeNumber(p, bit_count, light_check_code);

	push	0
	push	edi
	push	ebx
	call	_InitializeNumber
	add	esp, 12					; 0000000cH

; 419  :     if (result != PMC_STATUS_OK)

	test	eax, eax
	jne	SHORT $LN15@DuplicateN

; 420  :         return (result);
; 421  :     p->IS_STATIC = FALSE;

	and	DWORD PTR [ebx+28], -2			; fffffffeH
; File z:\sources\lunor\repos\rougemeilland\palmtree.math.core.uint\palmtree.math.core.uint\pmc_inline_func.h

; 188  :         return ((u + v - 1) / v);

	lea	ecx, DWORD PTR [edi+31]

; 62   :         __movsd((unsigned long *)d, (unsigned long *)s, (unsigned long)count);

	mov	edi, DWORD PTR [ebx+36]
	mov	esi, DWORD PTR [esi+36]

; 188  :         return ((u + v - 1) / v);

	shr	ecx, 5

; 62   :         __movsd((unsigned long *)d, (unsigned long *)s, (unsigned long)count);

	rep movsd
; File z:\sources\lunor\repos\rougemeilland\palmtree.math.core.uint\palmtree.math.core.uint\pmc_memory.c

; 548  :     CommitNumber(o);

	push	ebx
	call	_CommitNumber

; 549  :     *op = o;

	mov	eax, DWORD PTR _op$[ebp]
	add	esp, 4
	mov	DWORD PTR [eax], ebx

; 550  :     return (PMC_STATUS_OK);

	xor	eax, eax
$LN15@DuplicateN:
	pop	edi
	pop	ebx
	pop	esi

; 551  : }

	pop	ebp
	ret	0
_DuplicateNumber ENDP
_TEXT	ENDS
; Function compile flags: /Ogtp
; File z:\sources\lunor\repos\rougemeilland\palmtree.math.core.uint\palmtree.math.core.uint\pmc_memory.c
;	COMDAT _CheckNumber
_TEXT	SEGMENT
_p$ = 8							; size = 4
_CheckNumber PROC					; COMDAT

; 513  : {

	push	ebp
	mov	ebp, esp

; 514  :     if (p->SIGNATURE1 != PMC_SIGNATURE || p->SIGNATURE2 != PMC_UINT_SIGNATURE)

	mov	eax, DWORD PTR _p$[ebp]
	cmp	DWORD PTR [eax+4], 1231244656		; 49634d70H
	jne	SHORT $LN3@CheckNumbe
	cmp	DWORD PTR [eax+8], 1416522069		; 546e6955H
	jne	SHORT $LN3@CheckNumbe

; 516  :     if (!p->IS_ZERO)
; 517  :     {
; 518  :         PMC_STATUS_CODE result;
; 519  :         if ((result = CheckBlock(p->BLOCK)) != PMC_STATUS_OK)
; 520  :             return (result);
; 521  : #ifdef _DEBUG
; 522  :         __UNIT_TYPE desired_hash_code = CalculateCheckCode(p->BLOCK, p->UNIT_WORD_COUNT);
; 523  :         if (desired_hash_code != p->HASH_CODE)
; 524  :             return (PMC_STATUS_BAD_BUFFER);
; 525  : #endif
; 526  :     }
; 527  :     return (PMC_STATUS_OK);

	xor	eax, eax

; 528  : }

	pop	ebp
	ret	0
$LN3@CheckNumbe:

; 515  :         return (PMC_STATUS_BAD_BUFFER);

	mov	eax, -257				; fffffeffH

; 528  : }

	pop	ebp
	ret	0
_CheckNumber ENDP
_TEXT	ENDS
; Function compile flags: /Ogtp
; File z:\sources\lunor\repos\rougemeilland\palmtree.math.core.uint\palmtree.math.core.uint\pmc_memory.c
; File z:\sources\lunor\repos\rougemeilland\palmtree.math.core.uint\palmtree.math.core.uint\pmc_inline_func.h
; File z:\sources\lunor\repos\rougemeilland\palmtree.math.core.uint\palmtree.math.core.uint\pmc_memory.c
; File z:\sources\lunor\repos\rougemeilland\palmtree.math.core.uint\palmtree.math.core.uint\pmc_inline_func.h
; File z:\sources\lunor\repos\rougemeilland\palmtree.math.core.uint\palmtree.math.core.uint\pmc_memory.c
; File z:\sources\lunor\repos\rougemeilland\palmtree.math.core.uint\palmtree.math.core.uint\pmc_inline_func.h
; File z:\sources\lunor\repos\rougemeilland\palmtree.math.core.uint\palmtree.math.core.uint\pmc_memory.c
; File z:\sources\lunor\repos\rougemeilland\palmtree.math.core.uint\palmtree.math.core.uint\pmc_inline_func.h
; File z:\sources\lunor\repos\rougemeilland\palmtree.math.core.uint\palmtree.math.core.uint\pmc_memory.c
;	COMDAT _CommitNumber
_TEXT	SEGMENT
_p$ = 8							; size = 4
_CommitNumber PROC					; COMDAT

; 480  : {

	push	ebp
	mov	ebp, esp
	push	esi
	mov	esi, DWORD PTR _p$[ebp]
	push	edi

; 481  :     CommitBlock(p->BLOCK);

	mov	ecx, DWORD PTR [esi+36]

; 220  :     if (buffer != NULL)

	test	ecx, ecx
	je	SHORT $LN8@CommitNumb

; 221  :     {
; 222  :         --buffer;
; 223  :         __UNIT_TYPE words = buffer[0];
; 224  : #ifdef _DEBUG
; 225  :         __UNIT_TYPE code = CalculateCheckCode(&buffer[1], words);
; 226  : #else
; 227  :         __UNIT_TYPE code = 0;
; 228  : #endif
; 229  :         buffer[words + 1] = code;

	mov	eax, DWORD PTR [ecx-4]
	mov	DWORD PTR [ecx+eax*4], 0
	mov	ecx, DWORD PTR [esi+36]
$LN8@CommitNumb:

; 482  :     p->UNIT_BIT_COUNT = GetEffectiveBitLength(p->BLOCK, p->BLOCK_COUNT, &p->UNIT_WORD_COUNT);

	mov	edi, DWORD PTR [esi+32]

; 444  :     if (p == NULL)

	test	ecx, ecx
	je	SHORT $LN12@CommitNumb

; 445  :     {
; 446  :         *effective_word_count = 0;
; 447  :         return (0);
; 448  :     }
; 449  :     p += word_count;

	lea	eax, DWORD PTR [ecx+edi*4]

; 450  :     while (word_count != 0)

	test	edi, edi
	je	SHORT $LN12@CommitNumb
	npad	6
$LL11@CommitNumb:

; 451  :     {
; 452  :         --p;
; 453  :         if (*p != 0)

	cmp	DWORD PTR [eax-4], 0
	lea	eax, DWORD PTR [eax-4]
	jne	SHORT $LN29@CommitNumb

; 457  :         }
; 458  :         --word_count;

	sub	edi, 1
	jne	SHORT $LL11@CommitNumb
$LN12@CommitNumb:

; 482  :     p->UNIT_BIT_COUNT = GetEffectiveBitLength(p->BLOCK, p->BLOCK_COUNT, &p->UNIT_WORD_COUNT);

	xor	edi, edi
	mov	DWORD PTR [esi+12], edi
$LN10@CommitNumb:
	mov	DWORD PTR [esi+16], edi

; 483  :     if (p->UNIT_BIT_COUNT <= 0)

	test	edi, edi
	jne	SHORT $LN2@CommitNumb

; 484  :     {
; 485  :         p->HASH_CODE = 0;
; 486  :         p->IS_ZERO = TRUE;

	mov	eax, DWORD PTR [esi]
	mov	DWORD PTR [esi+20], edi
	and	eax, -11				; fffffff5H

; 487  :         p->IS_ONE = FALSE;
; 488  :         p->IS_EVEN = TRUE;
; 489  :         p->TRAILING_ZERO_BITS_COUNT = 0;

	mov	DWORD PTR [esi+24], edi

; 490  :         p->IS_POWER_OF_TWO = FALSE;

	or	eax, 5
	pop	edi

; 509  :     }
; 510  : }

	mov	DWORD PTR [esi], eax
	pop	esi
	pop	ebp
	ret	0
$LN29@CommitNumb:

; 455  :             *effective_word_count = word_count;

	mov	DWORD PTR [esi+12], edi

; 456  :             return (word_count * __UNIT_TYPE_BIT_COUNT - _LZCNT_ALT_UNIT(*p));

	mov	eax, DWORD PTR [eax]
; File z:\sources\lunor\repos\rougemeilland\palmtree.math.core.uint\palmtree.math.core.uint\pmc_inline_func.h

; 624  :         if (x == 0)

	test	eax, eax
	jne	SHORT $LN17@CommitNumb

; 625  :             return (sizeof(x) * 8);

	mov	ecx, 32					; 00000020H
; File z:\sources\lunor\repos\rougemeilland\palmtree.math.core.uint\palmtree.math.core.uint\pmc_memory.c

; 456  :             return (word_count * __UNIT_TYPE_BIT_COUNT - _LZCNT_ALT_UNIT(*p));

	shl	edi, 5
	sub	edi, ecx
	jmp	SHORT $LN10@CommitNumb
$LN17@CommitNumb:
; File z:\sources\lunor\repos\rougemeilland\palmtree.math.core.uint\palmtree.math.core.uint\pmc_inline_func.h

; 629  :         _BitScanReverse(&pos, x);

	bsr	eax, eax

; 648  :         return (sizeof(x) * 8 - 1 - pos);

	mov	ecx, 31					; 0000001fH
; File z:\sources\lunor\repos\rougemeilland\palmtree.math.core.uint\palmtree.math.core.uint\pmc_memory.c

; 456  :             return (word_count * __UNIT_TYPE_BIT_COUNT - _LZCNT_ALT_UNIT(*p));

	shl	edi, 5
; File z:\sources\lunor\repos\rougemeilland\palmtree.math.core.uint\palmtree.math.core.uint\pmc_inline_func.h

; 648  :         return (sizeof(x) * 8 - 1 - pos);

	sub	ecx, eax
; File z:\sources\lunor\repos\rougemeilland\palmtree.math.core.uint\palmtree.math.core.uint\pmc_memory.c

; 456  :             return (word_count * __UNIT_TYPE_BIT_COUNT - _LZCNT_ALT_UNIT(*p));

	sub	edi, ecx
	jmp	SHORT $LN10@CommitNumb
$LN2@CommitNumb:

; 491  :     }
; 492  :     else if (p->UNIT_BIT_COUNT == 1)

	push	DWORD PTR [esi+12]
	push	DWORD PTR [esi+36]
	call	_CalculateCheckCode
	mov	DWORD PTR [esi+20], eax
	add	esp, 8
	mov	edx, DWORD PTR [esi]
	mov	ecx, DWORD PTR [esi+36]
	and	edx, -2					; fffffffeH
	cmp	edi, 1
	jne	SHORT $LN4@CommitNumb

; 493  :     {
; 494  :         p->HASH_CODE = CalculateCheckCode(p->BLOCK, p->UNIT_WORD_COUNT);
; 495  :         p->IS_ZERO = FALSE;

	mov	DWORD PTR [esi], edx

; 496  :         p->IS_ONE = p->BLOCK[0] == 1; // 無条件でTRUEでも大丈夫だが念のため。

	mov	edi, 2
	mov	eax, DWORD PTR [ecx]
	xor	ecx, ecx
	cmp	eax, 1

; 497  :         p->IS_EVEN = FALSE;
; 498  :         p->TRAILING_ZERO_BITS_COUNT = 0;

	mov	DWORD PTR [esi+24], 0
	cmove	ecx, edi
	and	edx, -3					; fffffffdH

; 499  :         p->IS_POWER_OF_TWO = TRUE;

	or	ecx, edx
	and	ecx, -5					; fffffffbH
	or	ecx, 8
	pop	edi

; 509  :     }
; 510  : }

	mov	DWORD PTR [esi], ecx
	pop	esi
	pop	ebp
	ret	0
$LN4@CommitNumb:

; 500  :     }
; 501  :     else
; 502  :     {
; 503  :         p->HASH_CODE = CalculateCheckCode(p->BLOCK, p->UNIT_WORD_COUNT);
; 504  :         p->IS_ZERO = FALSE;
; 505  :         p->IS_ONE = FALSE;

	and	edx, -3					; fffffffdH
	mov	DWORD PTR [esi], edx

; 506  :         p->IS_EVEN = !(p->BLOCK[0] & 1);

	mov	eax, DWORD PTR [ecx]
	shl	eax, 2
	not	eax
	xor	eax, edx
	and	eax, 4
	xor	eax, edx

; 466  :     __UNIT_TYPE bit_count = 0;

	xor	edx, edx

; 506  :         p->IS_EVEN = !(p->BLOCK[0] & 1);

	mov	DWORD PTR [esi], eax

; 507  :         p->TRAILING_ZERO_BITS_COUNT = GetTrailingZeroBitCount(p->BLOCK, p->UNIT_WORD_COUNT);

	mov	eax, DWORD PTR [esi+12]

; 467  :     while (word_count > 0)

	test	eax, eax
	je	SHORT $LN21@CommitNumb
	npad	7
$LL20@CommitNumb:

; 468  :     {
; 469  :         --word_count;
; 470  :         if (*p != 0)

	mov	edi, DWORD PTR [ecx]
	dec	eax
	test	edi, edi
	jne	SHORT $LN30@CommitNumb

; 472  :         bit_count += __UNIT_TYPE_BIT_COUNT;

	add	edx, 32					; 00000020H

; 473  :         ++p;

	add	ecx, 4
	test	eax, eax
	jne	SHORT $LL20@CommitNumb
$LN21@CommitNumb:

; 474  :     }
; 475  :     // このルートには到達しないはず
; 476  :     return (0);

	xor	eax, eax
$LN19@CommitNumb:

; 507  :         p->TRAILING_ZERO_BITS_COUNT = GetTrailingZeroBitCount(p->BLOCK, p->UNIT_WORD_COUNT);

	mov	DWORD PTR [esi+24], eax

; 508  :         p->IS_POWER_OF_TWO = p->TRAILING_ZERO_BITS_COUNT + 1 == p->UNIT_BIT_COUNT;

	xor	ecx, ecx
	inc	eax
	mov	edx, 8
	cmp	eax, DWORD PTR [esi+16]
	mov	eax, DWORD PTR [esi]
	cmove	ecx, edx
	and	eax, -9					; fffffff7H
	or	ecx, eax
	pop	edi

; 509  :     }
; 510  : }

	mov	DWORD PTR [esi], ecx
	pop	esi
	pop	ebp
	ret	0
$LN30@CommitNumb:
; File z:\sources\lunor\repos\rougemeilland\palmtree.math.core.uint\palmtree.math.core.uint\pmc_inline_func.h

; 709  :         _BitScanForward(&pos, x);

	bsf	eax, edi
; File z:\sources\lunor\repos\rougemeilland\palmtree.math.core.uint\palmtree.math.core.uint\pmc_memory.c

; 471  :             return (bit_count + _TZCNT_ALT_UNIT(*p));

	add	eax, edx
	jmp	SHORT $LN19@CommitNumb
_CommitNumber ENDP
_TEXT	ENDS
; Function compile flags: /Ogtp
; File z:\sources\lunor\repos\rougemeilland\palmtree.math.core.uint\palmtree.math.core.uint\pmc_memory.c
; File z:\sources\lunor\repos\rougemeilland\palmtree.math.core.uint\palmtree.math.core.uint\pmc_inline_func.h
; File z:\sources\lunor\repos\rougemeilland\palmtree.math.core.uint\palmtree.math.core.uint\pmc_memory.c
; File z:\sources\lunor\repos\rougemeilland\palmtree.math.core.uint\palmtree.math.core.uint\pmc_inline_func.h
; File z:\sources\lunor\repos\rougemeilland\palmtree.math.core.uint\palmtree.math.core.uint\pmc_memory.c
;	COMDAT _DeallocateNumber
_TEXT	SEGMENT
_p$ = 8							; size = 4
_DeallocateNumber PROC					; COMDAT

; 434  : {

	push	ebp
	mov	ebp, esp
	push	esi

; 435  :     if (p == NULL || p->IS_STATIC)

	mov	esi, DWORD PTR _p$[ebp]
	test	esi, esi
	je	$LN3@Deallocate
	test	BYTE PTR [esi+28], 1
	jne	$LN3@Deallocate

; 397  :     if (p->BLOCK != NULL)

	mov	eax, DWORD PTR [esi+36]
	test	eax, eax
	je	SHORT $LN11@Deallocate

; 398  :     {
; 399  :         DeallocateBlock(p->BLOCK, p->BLOCK_COUNT);

	mov	ecx, DWORD PTR [esi+32]

; 202  :         __UNIT_TYPE* p = buffer - 1;

	lea	edx, DWORD PTR [eax-4]

; 203  :         if (*p != buffer_words)

	cmp	DWORD PTR [edx], ecx
	jne	SHORT $LN11@Deallocate

; 204  :         {
; 205  :             // もし、buffer の指す内容が壊れていることが明らかならば、二重解放の恐れがあるので解放処理はしない。
; 206  :         }
; 207  :         else
; 208  :         {
; 209  :             // 使用済みのバッファを既定のデータで塗りつぶす。
; 210  :             _FILL_MEMORY_UNIT(p, DEFAULT_MEMORY_DATA, buffer_words + 2);

	push	edi

; 212  :             HeapFree(hLocalHeap, 0, p);

	push	edx
	add	ecx, 2
; File z:\sources\lunor\repos\rougemeilland\palmtree.math.core.uint\palmtree.math.core.uint\pmc_inline_func.h

; 162  :         __stosd((unsigned long*)d, x, (unsigned long)count);

	mov	edi, edx
	mov	eax, -858993460				; ccccccccH
; File z:\sources\lunor\repos\rougemeilland\palmtree.math.core.uint\palmtree.math.core.uint\pmc_memory.c

; 212  :             HeapFree(hLocalHeap, 0, p);

	push	0
; File z:\sources\lunor\repos\rougemeilland\palmtree.math.core.uint\palmtree.math.core.uint\pmc_inline_func.h

; 162  :         __stosd((unsigned long*)d, x, (unsigned long)count);

	rep stosd
; File z:\sources\lunor\repos\rougemeilland\palmtree.math.core.uint\palmtree.math.core.uint\pmc_memory.c

; 212  :             HeapFree(hLocalHeap, 0, p);

	push	DWORD PTR _hLocalHeap
	call	DWORD PTR __imp__HeapFree@12
	pop	edi
$LN11@Deallocate:

; 436  :         return;
; 437  :     CleanUpNumber(p);
; 438  :     FillNumberHeader(p);
; 439  :     HeapFree(hLocalHeap, 0, p);

	push	esi
	push	0

; 341  :             __p[0] = (_UINT32_T)DEFAULT_MEMORY_DATA;

	mov	DWORD PTR [esi], -858993460		; ccccccccH

; 342  :             __p[1] = (_UINT32_T)DEFAULT_MEMORY_DATA;

	mov	DWORD PTR [esi+4], -858993460		; ccccccccH

; 343  :             __p[2] = (_UINT32_T)DEFAULT_MEMORY_DATA;

	mov	DWORD PTR [esi+8], -858993460		; ccccccccH

; 344  :             __p[3] = (_UINT32_T)DEFAULT_MEMORY_DATA;

	mov	DWORD PTR [esi+12], -858993460		; ccccccccH

; 345  :             __p[4] = (_UINT32_T)DEFAULT_MEMORY_DATA;

	mov	DWORD PTR [esi+16], -858993460		; ccccccccH

; 346  :             __p[5] = (_UINT32_T)DEFAULT_MEMORY_DATA;

	mov	DWORD PTR [esi+20], -858993460		; ccccccccH

; 347  :             __p[6] = (_UINT32_T)DEFAULT_MEMORY_DATA;

	mov	DWORD PTR [esi+24], -858993460		; ccccccccH

; 348  :             __p[7] = (_UINT32_T)DEFAULT_MEMORY_DATA;

	mov	DWORD PTR [esi+28], -858993460		; ccccccccH

; 349  :             __p[8] = (_UINT32_T)DEFAULT_MEMORY_DATA;

	mov	DWORD PTR [esi+32], -858993460		; ccccccccH

; 350  :             __p[9] = (_UINT32_T)DEFAULT_MEMORY_DATA;

	mov	DWORD PTR [esi+36], -858993460		; ccccccccH

; 436  :         return;
; 437  :     CleanUpNumber(p);
; 438  :     FillNumberHeader(p);
; 439  :     HeapFree(hLocalHeap, 0, p);

	push	DWORD PTR _hLocalHeap
	call	DWORD PTR __imp__HeapFree@12
$LN3@Deallocate:
	pop	esi

; 440  : }

	pop	ebp
	ret	0
_DeallocateNumber ENDP
_TEXT	ENDS
; Function compile flags: /Ogtp
; File z:\sources\lunor\repos\rougemeilland\palmtree.math.core.uint\palmtree.math.core.uint\pmc_memory.c
; File z:\sources\lunor\repos\rougemeilland\palmtree.math.core.uint\palmtree.math.core.uint\pmc_inline_func.h
; File z:\sources\lunor\repos\rougemeilland\palmtree.math.core.uint\palmtree.math.core.uint\pmc_memory.c
; File z:\sources\lunor\repos\rougemeilland\palmtree.math.core.uint\palmtree.math.core.uint\pmc_inline_func.h
; File z:\sources\lunor\repos\rougemeilland\palmtree.math.core.uint\palmtree.math.core.uint\pmc_memory.c
;	COMDAT _DetatchNumber
_TEXT	SEGMENT
_p$ = 8							; size = 4
_DetatchNumber PROC					; COMDAT

; 427  : {

	push	ebp
	mov	ebp, esp
	push	esi

; 428  :     if (p == NULL || !p->IS_STATIC)

	mov	esi, DWORD PTR _p$[ebp]
	test	esi, esi
	je	SHORT $LN3@DetatchNum
	test	BYTE PTR [esi+28], 1
	je	SHORT $LN3@DetatchNum

; 397  :     if (p->BLOCK != NULL)

	mov	eax, DWORD PTR [esi+36]
	test	eax, eax
	je	SHORT $LN3@DetatchNum

; 398  :     {
; 399  :         DeallocateBlock(p->BLOCK, p->BLOCK_COUNT);

	mov	ecx, DWORD PTR [esi+32]

; 202  :         __UNIT_TYPE* p = buffer - 1;

	lea	edx, DWORD PTR [eax-4]

; 203  :         if (*p != buffer_words)

	cmp	DWORD PTR [edx], ecx
	jne	SHORT $LN11@DetatchNum

; 204  :         {
; 205  :             // もし、buffer の指す内容が壊れていることが明らかならば、二重解放の恐れがあるので解放処理はしない。
; 206  :         }
; 207  :         else
; 208  :         {
; 209  :             // 使用済みのバッファを既定のデータで塗りつぶす。
; 210  :             _FILL_MEMORY_UNIT(p, DEFAULT_MEMORY_DATA, buffer_words + 2);

	push	edi

; 212  :             HeapFree(hLocalHeap, 0, p);

	push	edx
	add	ecx, 2
; File z:\sources\lunor\repos\rougemeilland\palmtree.math.core.uint\palmtree.math.core.uint\pmc_inline_func.h

; 162  :         __stosd((unsigned long*)d, x, (unsigned long)count);

	mov	edi, edx
	mov	eax, -858993460				; ccccccccH
; File z:\sources\lunor\repos\rougemeilland\palmtree.math.core.uint\palmtree.math.core.uint\pmc_memory.c

; 212  :             HeapFree(hLocalHeap, 0, p);

	push	0
; File z:\sources\lunor\repos\rougemeilland\palmtree.math.core.uint\palmtree.math.core.uint\pmc_inline_func.h

; 162  :         __stosd((unsigned long*)d, x, (unsigned long)count);

	rep stosd
; File z:\sources\lunor\repos\rougemeilland\palmtree.math.core.uint\palmtree.math.core.uint\pmc_memory.c

; 212  :             HeapFree(hLocalHeap, 0, p);

	push	DWORD PTR _hLocalHeap
	call	DWORD PTR __imp__HeapFree@12
	pop	edi
$LN11@DetatchNum:

; 400  :         p->BLOCK = NULL;

	mov	DWORD PTR [esi+36], 0
$LN3@DetatchNum:
	pop	esi

; 429  :         return;
; 430  :     CleanUpNumber(p);
; 431  : }

	pop	ebp
	ret	0
_DetatchNumber ENDP
_TEXT	ENDS
; Function compile flags: /Ogtp
; File z:\sources\lunor\repos\rougemeilland\palmtree.math.core.uint\palmtree.math.core.uint\pmc_memory.c
;	COMDAT _AllocateNumber
_TEXT	SEGMENT
_pp$ = 8						; size = 4
_bit_count$ = 12					; size = 4
_light_check_code$ = 16					; size = 4
_AllocateNumber PROC					; COMDAT

; 414  : {

	push	ebp
	mov	ebp, esp
	push	esi

; 415  :     NUMBER_HEADER* p = (NUMBER_HEADER*)HeapAlloc(hLocalHeap, HEAP_ZERO_MEMORY, sizeof(NUMBER_HEADER));

	push	40					; 00000028H
	push	8
	push	DWORD PTR _hLocalHeap
	call	DWORD PTR __imp__HeapAlloc@12
	mov	esi, eax

; 416  :     if (p == NULL)

	test	esi, esi
	jne	SHORT $LN2@AllocateNu

; 417  :         return (PMC_STATUS_NOT_ENOUGH_MEMORY);

	lea	eax, DWORD PTR [esi-6]
	pop	esi

; 424  : }

	pop	ebp
	ret	0
$LN2@AllocateNu:

; 418  :     PMC_STATUS_CODE result = InitializeNumber(p, bit_count, light_check_code);

	push	DWORD PTR _light_check_code$[ebp]
	push	DWORD PTR _bit_count$[ebp]
	push	esi
	call	_InitializeNumber
	add	esp, 12					; 0000000cH

; 419  :     if (result != PMC_STATUS_OK)

	test	eax, eax
	jne	SHORT $LN1@AllocateNu

; 420  :         return (result);
; 421  :     p->IS_STATIC = FALSE;
; 422  :     *pp = p;

	mov	eax, DWORD PTR _pp$[ebp]
	and	DWORD PTR [esi+28], -2			; fffffffeH
	mov	DWORD PTR [eax], esi

; 423  :     return (PMC_STATUS_OK);

	xor	eax, eax
$LN1@AllocateNu:
	pop	esi

; 424  : }

	pop	ebp
	ret	0
_AllocateNumber ENDP
_TEXT	ENDS
; Function compile flags: /Ogtp
; File z:\sources\lunor\repos\rougemeilland\palmtree.math.core.uint\palmtree.math.core.uint\pmc_memory.c
;	COMDAT _AttatchNumber
_TEXT	SEGMENT
_p$ = 8							; size = 4
_bit_count$ = 12					; size = 4
_AttatchNumber PROC					; COMDAT

; 405  : {

	push	ebp
	mov	ebp, esp
	push	esi

; 406  :     PMC_STATUS_CODE result = InitializeNumber(p, bit_count, NULL);

	mov	esi, DWORD PTR _p$[ebp]
	push	0
	push	DWORD PTR _bit_count$[ebp]
	push	esi
	call	_InitializeNumber
	add	esp, 12					; 0000000cH

; 407  :     if (result != PMC_STATUS_OK)

	test	eax, eax
	jne	SHORT $LN1@AttatchNum

; 408  :         return (result);
; 409  :     p->IS_STATIC = TRUE;

	or	DWORD PTR [esi+28], 1
$LN1@AttatchNum:
	pop	esi

; 410  :     return (PMC_STATUS_OK);
; 411  : }

	pop	ebp
	ret	0
_AttatchNumber ENDP
_TEXT	ENDS
; Function compile flags: /Ogtp
; File z:\sources\lunor\repos\rougemeilland\palmtree.math.core.uint\palmtree.math.core.uint\pmc_memory.c
;	COMDAT _CheckBlockLight
_TEXT	SEGMENT
_buffer$ = 8						; size = 4
_code$ = 12						; size = 4
_CheckBlockLight PROC					; COMDAT

; 255  : #ifdef _DEBUG
; 256  :     if (buffer == NULL)
; 257  :         return (PMC_STATUS_OK);
; 258  :     --buffer;
; 259  :     __UNIT_TYPE words = buffer[0];
; 260  :     __UNIT_TYPE code_desired = buffer[words + 1] ^ (__UNIT_TYPE)&buffer[words + 1];
; 261  :     __UNIT_TYPE code_actual = code;
; 262  :     if (code_actual == code_desired)
; 263  :         return (PMC_STATUS_OK);
; 264  :     else
; 265  :         return (PMC_STATUS_BAD_BUFFER);
; 266  : #else
; 267  :     return (PMC_STATUS_OK);

	xor	eax, eax

; 268  : #endif
; 269  : }

	ret	0
_CheckBlockLight ENDP
_TEXT	ENDS
; Function compile flags: /Ogtp
; File z:\sources\lunor\repos\rougemeilland\palmtree.math.core.uint\palmtree.math.core.uint\pmc_memory.c
; File z:\sources\lunor\repos\rougemeilland\palmtree.math.core.uint\palmtree.math.core.uint\pmc_inline_func.h
; File z:\sources\lunor\repos\rougemeilland\palmtree.math.core.uint\palmtree.math.core.uint\pmc_memory.c
; File z:\sources\lunor\repos\rougemeilland\palmtree.math.core.uint\palmtree.math.core.uint\pmc_inline_func.h
; File z:\sources\lunor\repos\rougemeilland\palmtree.math.core.uint\palmtree.math.core.uint\pmc_memory.c
;	COMDAT _DeallocateBlock
_TEXT	SEGMENT
_buffer$ = 8						; size = 4
_buffer_words$ = 12					; size = 4
_DeallocateBlock PROC					; COMDAT

; 199  : {

	push	ebp
	mov	ebp, esp

; 200  : 	if (buffer != NULL)

	mov	eax, DWORD PTR _buffer$[ebp]
	test	eax, eax
	je	SHORT $LN4@Deallocate

; 201  : 	{
; 202  :         __UNIT_TYPE* p = buffer - 1;
; 203  :         if (*p != buffer_words)

	mov	ecx, DWORD PTR _buffer_words$[ebp]
	lea	edx, DWORD PTR [eax-4]
	cmp	DWORD PTR [edx], ecx
	jne	SHORT $LN4@Deallocate

; 204  :         {
; 205  :             // もし、buffer の指す内容が壊れていることが明らかならば、二重解放の恐れがあるので解放処理はしない。
; 206  :         }
; 207  :         else
; 208  :         {
; 209  :             // 使用済みのバッファを既定のデータで塗りつぶす。
; 210  :             _FILL_MEMORY_UNIT(p, DEFAULT_MEMORY_DATA, buffer_words + 2);

	push	edi

; 212  :             HeapFree(hLocalHeap, 0, p);

	push	edx
	add	ecx, 2
; File z:\sources\lunor\repos\rougemeilland\palmtree.math.core.uint\palmtree.math.core.uint\pmc_inline_func.h

; 162  :         __stosd((unsigned long*)d, x, (unsigned long)count);

	mov	edi, edx
	mov	eax, -858993460				; ccccccccH
; File z:\sources\lunor\repos\rougemeilland\palmtree.math.core.uint\palmtree.math.core.uint\pmc_memory.c

; 212  :             HeapFree(hLocalHeap, 0, p);

	push	0
; File z:\sources\lunor\repos\rougemeilland\palmtree.math.core.uint\palmtree.math.core.uint\pmc_inline_func.h

; 162  :         __stosd((unsigned long*)d, x, (unsigned long)count);

	rep stosd
; File z:\sources\lunor\repos\rougemeilland\palmtree.math.core.uint\palmtree.math.core.uint\pmc_memory.c

; 212  :             HeapFree(hLocalHeap, 0, p);

	push	DWORD PTR _hLocalHeap
	call	DWORD PTR __imp__HeapFree@12
	pop	edi
$LN4@Deallocate:

; 213  :         }
; 214  : 	}
; 215  : }

	pop	ebp
	ret	0
_DeallocateBlock ENDP
_TEXT	ENDS
; Function compile flags: /Ogtp
; File z:\sources\lunor\repos\rougemeilland\palmtree.math.core.uint\palmtree.math.core.uint\pmc_memory.c
; File z:\sources\lunor\repos\rougemeilland\palmtree.math.core.uint\palmtree.math.core.uint\pmc_inline_func.h
; File z:\sources\lunor\repos\rougemeilland\palmtree.math.core.uint\palmtree.math.core.uint\pmc_memory.c
;	COMDAT _AllocateBlock
_TEXT	SEGMENT
_bits$ = 8						; size = 4
_allocated_block_words$ = 12				; size = 4
_code$ = 16						; size = 4
_AllocateBlock PROC					; COMDAT

; 157  : {

	push	ebp
	mov	ebp, esp
	push	esi
; File z:\sources\lunor\repos\rougemeilland\palmtree.math.core.uint\palmtree.math.core.uint\pmc_inline_func.h

; 188  :         return ((u + v - 1) / v);

	mov	esi, DWORD PTR _bits$[ebp]
	lea	esi, DWORD PTR [esi+31]
	shr	esi, 5
; File z:\sources\lunor\repos\rougemeilland\palmtree.math.core.uint\palmtree.math.core.uint\pmc_memory.c

; 164  : 	__UNIT_TYPE bytes = words2 * __UNIT_TYPE_BYTE_COUNT;

	lea	eax, DWORD PTR [esi*4+8]

; 165  : 	__UNIT_TYPE* buffer = (__UNIT_TYPE*)HeapAlloc(hLocalHeap, HEAP_ZERO_MEMORY, bytes);

	push	eax
	push	8
	push	DWORD PTR _hLocalHeap
	call	DWORD PTR __imp__HeapAlloc@12
	mov	ecx, eax

; 166  : 	if (buffer == NULL)

	test	ecx, ecx
	jne	SHORT $LN2@AllocateBl
	pop	esi

; 194  : }

	pop	ebp
	ret	0
$LN2@AllocateBl:

; 167  : 		return (NULL);
; 168  : 	buffer[0] = words1;
; 169  :     *allocated_block_words = words1;

	mov	eax, DWORD PTR _allocated_block_words$[ebp]
	mov	DWORD PTR [ecx], esi
	mov	DWORD PTR [eax], esi

; 170  : #ifdef _DEBUG
; 171  :     // 乱数もどきを生成する。
; 172  : #ifdef _M_IX86
; 173  :     __UNIT_TYPE r = GetTickCount();
; 174  : #elif defined(_M_IX64)
; 175  : #ifdef _MSC_VER
; 176  :     __UNIT_TYPE r = GetTickCount64();
; 177  : #elif defined(__GNUC__)
; 178  :     _UINT32_T temp = GetTickCount();
; 179  :     __UNIT_TYPE r = _FROMWORDTODWORD(temp, temp);
; 180  : #else
; 181  : #error unknown compiler
; 182  : #endif
; 183  : #else
; 184  : #error unknown platform
; 185  : #endif
; 186  :     __UNIT_TYPE check_code = configuration_info.MEMORY_VERIFICATION_ENABLED ? CalculateCheckCode(&buffer[1], words1) : CHECK_CODE_INIT | r;
; 187  : #else
; 188  :     __UNIT_TYPE check_code = 0;
; 189  : #endif
; 190  :     buffer[words1 + 1] = check_code ^ (__UNIT_TYPE)&buffer[words1 + 1];

	lea	eax, DWORD PTR [esi+1]
	lea	eax, DWORD PTR [ecx+eax*4]
	mov	DWORD PTR [eax], eax

; 191  :     if (code != NULL)

	mov	eax, DWORD PTR _code$[ebp]
	test	eax, eax
	je	SHORT $LN3@AllocateBl

; 192  :         *code = check_code;

	mov	DWORD PTR [eax], 0
$LN3@AllocateBl:

; 193  :     return (&buffer[1]);

	lea	eax, DWORD PTR [ecx+4]
	pop	esi

; 194  : }

	pop	ebp
	ret	0
_AllocateBlock ENDP
_TEXT	ENDS
; Function compile flags: /Ogtp
; File z:\sources\lunor\repos\rougemeilland\palmtree.math.core.uint\palmtree.math.core.uint\pmc_memory.c
;	COMDAT _DeallocateHeapArea
_TEXT	SEGMENT
_DeallocateHeapArea PROC				; COMDAT

; 733  :     if (hLocalHeap != NULL)

	mov	eax, DWORD PTR _hLocalHeap
	test	eax, eax
	je	SHORT $LN2@Deallocate

; 734  :     {
; 735  :         HeapDestroy(hLocalHeap);

	push	eax
	call	DWORD PTR __imp__HeapDestroy@4

; 736  :         hLocalHeap = NULL;

	mov	DWORD PTR _hLocalHeap, 0
$LN2@Deallocate:

; 737  :     }
; 738  : }

	ret	0
_DeallocateHeapArea ENDP
_TEXT	ENDS
; Function compile flags: /Ogtp
; File z:\sources\lunor\repos\rougemeilland\palmtree.math.core.uint\palmtree.math.core.uint\pmc_memory.c
;	COMDAT _AllocateHeapArea
_TEXT	SEGMENT
_AllocateHeapArea PROC					; COMDAT

; 725  :     hLocalHeap = HeapCreate(0, 0x1000, 0);

	push	0
	push	4096					; 00001000H
	push	0
	call	DWORD PTR __imp__HeapCreate@12

; 726  :     if (hLocalHeap == NULL)

	xor	ecx, ecx
	mov	DWORD PTR _hLocalHeap, eax
	test	eax, eax
	setne	cl
	mov	eax, ecx

; 727  :         return (FALSE);
; 728  :     return (TRUE);
; 729  : }

	ret	0
_AllocateHeapArea ENDP
_TEXT	ENDS
END
