; Listing generated by Microsoft (R) Optimizing Compiler Version 19.16.27026.1 

	TITLE	Z:\Sources\Lunor\Repos\rougemeilland\Palmtree.Math.Core.Uint\Palmtree.Math.Core.Uint\pmc_from.c
	.686P
	.XMM
	include listing.inc
	.model	flat

INCLUDELIB MSVCRT
INCLUDELIB OLDNAMES

PUBLIC	_From_I_Imp
PUBLIC	_From_L_Imp
PUBLIC	_Initialize_From
PUBLIC	_PMC_From_I@8
PUBLIC	_PMC_From_L@12
EXTRN	_AllocateNumber:PROC
EXTRN	_CommitNumber:PROC
EXTRN	_number_zero:BYTE
; Function compile flags: /Ogtp
; File z:\sources\lunor\repos\rougemeilland\palmtree.math.core.uint\palmtree.math.core.uint\pmc_inline_func.h
;	COMDAT __LZCNT_ALT_UNIT
_TEXT	SEGMENT
_x$ = 8							; size = 4
__LZCNT_ALT_UNIT PROC					; COMDAT

; 623  :     {

	push	ebp
	mov	ebp, esp

; 624  :         if (x == 0)

	mov	eax, DWORD PTR _x$[ebp]
	test	eax, eax
	jne	SHORT $LN2@LZCNT_ALT_

; 625  :             return (sizeof(x) * 8);

	mov	eax, 32					; 00000020H

; 649  :     }

	pop	ebp
	ret	0
$LN2@LZCNT_ALT_:

; 626  : #ifdef _M_IX86
; 627  :         _UINT32_T pos;
; 628  : #ifdef _MSC_VER
; 629  :         _BitScanReverse(&pos, x);

	bsr	ecx, eax

; 630  : #elif defined(__GNUC__)
; 631  :         __asm__("bsrl %1, %0" : "=r"(pos) : "rm"(x));
; 632  : #else
; 633  : #error unknown compiler
; 634  : #endif
; 635  : #elif defined(_M_X64)
; 636  : #ifdef _MSC_VER
; 637  :         _UINT32_T pos;
; 638  :         _BitScanReverse64(&pos, x);
; 639  : #elif defined(__GNUC__)
; 640  :         _UINT64_T pos;
; 641  :         __asm__("bsrq %1, %0" : "=r"(pos) : "rm"(x));
; 642  : #else
; 643  : #error unknown compiler
; 644  : #endif
; 645  : #else
; 646  : #error unknown platform
; 647  : #endif
; 648  :         return (sizeof(x) * 8 - 1 - pos);

	mov	eax, 31					; 0000001fH
	sub	eax, ecx

; 649  :     }

	pop	ebp
	ret	0
__LZCNT_ALT_UNIT ENDP
_TEXT	ENDS
; Function compile flags: /Ogtp
; File z:\sources\lunor\repos\rougemeilland\palmtree.math.core.uint\palmtree.math.core.uint\pmc_inline_func.h
;	COMDAT __LZCNT_ALT_32
_TEXT	SEGMENT
_x$ = 8							; size = 4
__LZCNT_ALT_32 PROC					; COMDAT

; 590  :     {

	push	ebp
	mov	ebp, esp

; 591  :         if (x == 0)

	mov	eax, DWORD PTR _x$[ebp]
	test	eax, eax
	jne	SHORT $LN2@LZCNT_ALT_

; 592  :             return (sizeof(x) * 8);

	mov	eax, 32					; 00000020H

; 602  :     }

	pop	ebp
	ret	0
$LN2@LZCNT_ALT_:

; 593  :         _UINT32_T pos;
; 594  : #ifdef _MSC_VER
; 595  :         _BitScanReverse(&pos, x);

	bsr	ecx, eax

; 596  : #elif defined(__GNUC__)
; 597  :         __asm__("bsrl %1, %0" : "=r"(pos) : "rm"(x));
; 598  : #else
; 599  : #error unknown compiler
; 600  : #endif
; 601  :         return (sizeof(x) * 8 - 1 - pos);

	mov	eax, 31					; 0000001fH
	sub	eax, ecx

; 602  :     }

	pop	ebp
	ret	0
__LZCNT_ALT_32 ENDP
_TEXT	ENDS
; Function compile flags: /Ogtp
; File z:\sources\lunor\repos\rougemeilland\palmtree.math.core.uint\palmtree.math.core.uint\pmc_inline_func.h
;	COMDAT __FROMDWORDTOWORD
_TEXT	SEGMENT
_value$ = 8						; size = 8
_result_high$ = 16					; size = 4
__FROMDWORDTOWORD PROC					; COMDAT

; 176  :     {

	push	ebp
	mov	ebp, esp

; 177  :         *result_high = (_UINT32_T)(value >> 32);

	mov	eax, DWORD PTR _result_high$[ebp]
	mov	ecx, DWORD PTR _value$[ebp+4]
	mov	DWORD PTR [eax], ecx

; 178  :         return ((_UINT32_T)value);

	mov	eax, DWORD PTR _value$[ebp]

; 179  :     }

	pop	ebp
	ret	0
__FROMDWORDTOWORD ENDP
_TEXT	ENDS
; Function compile flags: /Ogtp
; File z:\sources\lunor\repos\rougemeilland\palmtree.math.core.uint\palmtree.math.core.uint\pmc_from.c
; File z:\sources\lunor\repos\rougemeilland\palmtree.math.core.uint\palmtree.math.core.uint\pmc_inline_func.h
; File z:\sources\lunor\repos\rougemeilland\palmtree.math.core.uint\palmtree.math.core.uint\pmc_from.c
; File z:\sources\lunor\repos\rougemeilland\palmtree.math.core.uint\palmtree.math.core.uint\pmc_inline_func.h
; File z:\sources\lunor\repos\rougemeilland\palmtree.math.core.uint\palmtree.math.core.uint\pmc_from.c
;	COMDAT _PMC_From_L@12
_TEXT	SEGMENT
_x$ = 8							; size = 8
_p$ = 12						; size = 4
_o$ = 16						; size = 4
_PMC_From_L@12 PROC					; COMDAT

; 105  : {

	push	ebp
	mov	ebp, esp
	push	esi

; 106  :     NUMBER_HEADER* p;
; 107  :     PMC_STATUS_CODE result;
; 108  :     if (sizeof(__UNIT_TYPE) * 2 < sizeof(x))
; 109  :     {
; 110  :         // 32bit未満のCPUには未対応
; 111  :         return (PMC_STATUS_INTERNAL_ERROR);
; 112  :     }
; 113  :     if (x == 0)

	mov	esi, DWORD PTR _x$[ebp]
	mov	eax, esi
	push	edi
	mov	edi, DWORD PTR _x$[ebp+4]
	or	eax, edi
	jne	SHORT $LN3@PMC_From_L

; 114  :         *o = (PMC_HANDLE_UINT)&number_zero;

	mov	eax, DWORD PTR _o$[ebp]
	pop	edi

; 126  : }

	pop	esi
	mov	DWORD PTR [eax], OFFSET _number_zero
	xor	eax, eax
	pop	ebp
	ret	12					; 0000000cH
$LN3@PMC_From_L:

; 55   :         if (x_hi == 0)

	test	edi, edi
	jne	SHORT $LN12@PMC_From_L
; File z:\sources\lunor\repos\rougemeilland\palmtree.math.core.uint\palmtree.math.core.uint\pmc_inline_func.h

; 591  :         if (x == 0)

	test	esi, esi
	jne	SHORT $LN21@PMC_From_L

; 592  :             return (sizeof(x) * 8);

	lea	ecx, DWORD PTR [edi+32]
	jmp	SHORT $LN20@PMC_From_L
$LN21@PMC_From_L:

; 595  :         _BitScanReverse(&pos, x);

	bsr	eax, esi

; 596  : #elif defined(__GNUC__)
; 597  :         __asm__("bsrl %1, %0" : "=r"(pos) : "rm"(x));
; 598  : #else
; 599  : #error unknown compiler
; 600  : #endif
; 601  :         return (sizeof(x) * 8 - 1 - pos);

	mov	ecx, 31					; 0000001fH
	sub	ecx, eax
$LN20@PMC_From_L:
; File z:\sources\lunor\repos\rougemeilland\palmtree.math.core.uint\palmtree.math.core.uint\pmc_from.c

; 57   :             __UNIT_TYPE x_bit_length = sizeof(x_lo) * 8 - _LZCNT_ALT_32(x_lo);

	mov	eax, 32					; 00000020H
	sub	eax, ecx

; 58   :             if ((result = AllocateNumber(o, x_bit_length, NULL)) != PMC_STATUS_OK)

	push	0
	push	eax
	lea	eax, DWORD PTR _p$[ebp]
	push	eax
	call	_AllocateNumber
	add	esp, 12					; 0000000cH
	test	eax, eax
	je	SHORT $LN13@PMC_From_L

; 126  : }

	pop	edi
	pop	esi
	pop	ebp
	ret	12					; 0000000cH
$LN12@PMC_From_L:
; File z:\sources\lunor\repos\rougemeilland\palmtree.math.core.uint\palmtree.math.core.uint\pmc_inline_func.h

; 595  :         _BitScanReverse(&pos, x);

	bsr	eax, edi

; 596  : #elif defined(__GNUC__)
; 597  :         __asm__("bsrl %1, %0" : "=r"(pos) : "rm"(x));
; 598  : #else
; 599  : #error unknown compiler
; 600  : #endif
; 601  :         return (sizeof(x) * 8 - 1 - pos);

	mov	ecx, 31					; 0000001fH
	sub	ecx, eax
; File z:\sources\lunor\repos\rougemeilland\palmtree.math.core.uint\palmtree.math.core.uint\pmc_from.c

; 63   :             __UNIT_TYPE x_bit_length = sizeof(x) * 8 - _LZCNT_ALT_32(x_hi);

	mov	eax, 64					; 00000040H
	sub	eax, ecx

; 64   :             if ((result = AllocateNumber(o, x_bit_length, NULL)) != PMC_STATUS_OK)

	push	0
	push	eax
	lea	eax, DWORD PTR _p$[ebp]
	push	eax
	call	_AllocateNumber
	add	esp, 12					; 0000000cH
	test	eax, eax
	jne	SHORT $LN1@PMC_From_L

; 65   :                 return (result);
; 66   :             (*o)->BLOCK[1] = x_hi;

	mov	eax, DWORD PTR _p$[ebp]
	mov	eax, DWORD PTR [eax+36]
	mov	DWORD PTR [eax+4], edi
$LN13@PMC_From_L:

; 67   :         }
; 68   :         (*o)->BLOCK[0] = x_lo;

	mov	eax, DWORD PTR _p$[ebp]
	mov	eax, DWORD PTR [eax+36]
	mov	DWORD PTR [eax], esi

; 69   :     }
; 70   :     else
; 71   :     {
; 72   :         // _UINT64_T を表現するのに 1 ワードで十分である処理系の場合
; 73   : 
; 74   :         __UNIT_TYPE x_bit_length = sizeof(x) * 8 - _LZCNT_ALT_UNIT((__UNIT_TYPE)x);
; 75   :         if ((result = AllocateNumber(o, x_bit_length, NULL)) != PMC_STATUS_OK)
; 76   :             return (result);
; 77   :         (*o)->BLOCK[0] = (__UNIT_TYPE)x;
; 78   :     }
; 79   :     CommitNumber(*o);

	push	DWORD PTR _p$[ebp]
	call	_CommitNumber

; 115  :     else
; 116  :     {
; 117  :         if ((result = From_L_Imp(x, &p)) != PMC_STATUS_OK)
; 118  :             return (result);
; 119  :         *o = (PMC_HANDLE_UINT)p;

	mov	ecx, DWORD PTR _o$[ebp]

; 79   :     CommitNumber(*o);

	add	esp, 4

; 115  :     else
; 116  :     {
; 117  :         if ((result = From_L_Imp(x, &p)) != PMC_STATUS_OK)
; 118  :             return (result);
; 119  :         *o = (PMC_HANDLE_UINT)p;

	mov	eax, DWORD PTR _p$[ebp]
	mov	DWORD PTR [ecx], eax

; 120  :     }
; 121  : #ifdef _DEBUG
; 122  :     if ((result = CheckNumber((NUMBER_HEADER*)*o)) != PMC_STATUS_OK)
; 123  :         return (result);
; 124  : #endif
; 125  :     return (PMC_STATUS_OK);

	xor	eax, eax
$LN1@PMC_From_L:

; 126  : }

	pop	edi
	pop	esi
	pop	ebp
	ret	12					; 0000000cH
_PMC_From_L@12 ENDP
_TEXT	ENDS
; Function compile flags: /Ogtp
; File z:\sources\lunor\repos\rougemeilland\palmtree.math.core.uint\palmtree.math.core.uint\pmc_from.c
; File z:\sources\lunor\repos\rougemeilland\palmtree.math.core.uint\palmtree.math.core.uint\pmc_inline_func.h
; File z:\sources\lunor\repos\rougemeilland\palmtree.math.core.uint\palmtree.math.core.uint\pmc_from.c
;	COMDAT _PMC_From_I@8
_TEXT	SEGMENT
_p$1 = 8						; size = 4
_x$ = 8							; size = 4
_o$ = 12						; size = 4
_PMC_From_I@8 PROC					; COMDAT

; 84   : {

	push	ebp
	mov	ebp, esp
	push	esi

; 85   :     PMC_STATUS_CODE result;
; 86   :     if (sizeof(__UNIT_TYPE) < sizeof(x))
; 87   :         return (PMC_STATUS_INTERNAL_ERROR);
; 88   :     if (x == 0)

	mov	esi, DWORD PTR _x$[ebp]
	test	esi, esi
	jne	SHORT $LN3@PMC_From_I

; 89   :         *o = (PMC_HANDLE_UINT)&number_zero;

	mov	eax, DWORD PTR _o$[ebp]
	pop	esi
	mov	DWORD PTR [eax], OFFSET _number_zero

; 96   :     }
; 97   : #ifdef _DEBUG
; 98   :     if ((result = CheckNumber((NUMBER_HEADER*)*o)) != PMC_STATUS_OK)
; 99   :         return (result);
; 100  : #endif
; 101  :     return (PMC_STATUS_OK);

	xor	eax, eax

; 102  : }

	pop	ebp
	ret	8
$LN3@PMC_From_I:
; File z:\sources\lunor\repos\rougemeilland\palmtree.math.core.uint\palmtree.math.core.uint\pmc_inline_func.h

; 595  :         _BitScanReverse(&pos, x);

	bsr	eax, esi

; 596  : #elif defined(__GNUC__)
; 597  :         __asm__("bsrl %1, %0" : "=r"(pos) : "rm"(x));
; 598  : #else
; 599  : #error unknown compiler
; 600  : #endif
; 601  :         return (sizeof(x) * 8 - 1 - pos);

	mov	ecx, 31					; 0000001fH
	sub	ecx, eax
; File z:\sources\lunor\repos\rougemeilland\palmtree.math.core.uint\palmtree.math.core.uint\pmc_from.c

; 34   :     if ((result = AllocateNumber(o, sizeof(x) * 8 - _LZCNT_ALT_32(x), NULL)) != PMC_STATUS_OK)

	mov	eax, 32					; 00000020H
	sub	eax, ecx
	push	0
	push	eax
	lea	eax, DWORD PTR _p$1[ebp]
	push	eax
	call	_AllocateNumber
	add	esp, 12					; 0000000cH
	test	eax, eax
	jne	SHORT $LN1@PMC_From_I

; 35   :         return (result);
; 36   :     (*o)->BLOCK[0] = x;

	mov	eax, DWORD PTR _p$1[ebp]
	mov	eax, DWORD PTR [eax+36]
	mov	DWORD PTR [eax], esi

; 37   :     CommitNumber(*o);

	push	DWORD PTR _p$1[ebp]
	call	_CommitNumber

; 90   :     else
; 91   :     {
; 92   :         NUMBER_HEADER* p;
; 93   :         if ((result = From_I_Imp(x, &p)) != PMC_STATUS_OK)
; 94   :             return (result);
; 95   :         *o = (PMC_HANDLE_UINT)p;

	mov	ecx, DWORD PTR _o$[ebp]

; 37   :     CommitNumber(*o);

	add	esp, 4

; 90   :     else
; 91   :     {
; 92   :         NUMBER_HEADER* p;
; 93   :         if ((result = From_I_Imp(x, &p)) != PMC_STATUS_OK)
; 94   :             return (result);
; 95   :         *o = (PMC_HANDLE_UINT)p;

	mov	eax, DWORD PTR _p$1[ebp]
	mov	DWORD PTR [ecx], eax

; 96   :     }
; 97   : #ifdef _DEBUG
; 98   :     if ((result = CheckNumber((NUMBER_HEADER*)*o)) != PMC_STATUS_OK)
; 99   :         return (result);
; 100  : #endif
; 101  :     return (PMC_STATUS_OK);

	xor	eax, eax
$LN1@PMC_From_I:
	pop	esi

; 102  : }

	pop	ebp
	ret	8
_PMC_From_I@8 ENDP
_TEXT	ENDS
; Function compile flags: /Ogtp
; File z:\sources\lunor\repos\rougemeilland\palmtree.math.core.uint\palmtree.math.core.uint\pmc_from.c
;	COMDAT _Initialize_From
_TEXT	SEGMENT
_feature$ = 8						; size = 4
_Initialize_From PROC					; COMDAT

; 130  :     return (PMC_STATUS_OK);

	xor	eax, eax

; 131  : }

	ret	0
_Initialize_From ENDP
_TEXT	ENDS
; Function compile flags: /Ogtp
; File z:\sources\lunor\repos\rougemeilland\palmtree.math.core.uint\palmtree.math.core.uint\pmc_from.c
; File z:\sources\lunor\repos\rougemeilland\palmtree.math.core.uint\palmtree.math.core.uint\pmc_inline_func.h
; File z:\sources\lunor\repos\rougemeilland\palmtree.math.core.uint\palmtree.math.core.uint\pmc_from.c
; File z:\sources\lunor\repos\rougemeilland\palmtree.math.core.uint\palmtree.math.core.uint\pmc_inline_func.h
; File z:\sources\lunor\repos\rougemeilland\palmtree.math.core.uint\palmtree.math.core.uint\pmc_from.c
; File z:\sources\lunor\repos\rougemeilland\palmtree.math.core.uint\palmtree.math.core.uint\pmc_inline_func.h
; File z:\sources\lunor\repos\rougemeilland\palmtree.math.core.uint\palmtree.math.core.uint\pmc_from.c
; File z:\sources\lunor\repos\rougemeilland\palmtree.math.core.uint\palmtree.math.core.uint\pmc_inline_func.h
; File z:\sources\lunor\repos\rougemeilland\palmtree.math.core.uint\palmtree.math.core.uint\pmc_from.c
;	COMDAT _From_L_Imp
_TEXT	SEGMENT
_x$ = 8							; size = 8
_o$ = 16						; size = 4
_From_L_Imp PROC					; COMDAT

; 42   : {

	push	ebp
	mov	ebp, esp
	push	ebx
; File z:\sources\lunor\repos\rougemeilland\palmtree.math.core.uint\palmtree.math.core.uint\pmc_inline_func.h

; 177  :         *result_high = (_UINT32_T)(value >> 32);

	mov	ebx, DWORD PTR _x$[ebp+4]
; File z:\sources\lunor\repos\rougemeilland\palmtree.math.core.uint\palmtree.math.core.uint\pmc_from.c

; 42   : {

	push	esi
	push	edi

; 43   :     PMC_STATUS_CODE result;
; 44   :     if (sizeof(__UNIT_TYPE) * 2 < sizeof(x))
; 45   :     {
; 46   :         // _UINT64_T を表現するのに 2 ワードでは不足する処理系には対応しない。
; 47   :         return (PMC_STATUS_INTERNAL_ERROR);
; 48   :     }
; 49   :     else if (sizeof(__UNIT_TYPE) < sizeof(x))
; 50   :     {
; 51   :         // _UINT64_T を表現するのに 1 ワードでは不足する(ちょうど 2 ワード必要とする)処理系の場合
; 52   : 
; 53   :         _UINT32_T x_hi;
; 54   :         _UINT32_T x_lo = _FROMDWORDTOWORD(x, &x_hi);

	mov	edi, DWORD PTR _x$[ebp]

; 55   :         if (x_hi == 0)

	test	ebx, ebx
	jne	SHORT $LN6@From_L_Imp
; File z:\sources\lunor\repos\rougemeilland\palmtree.math.core.uint\palmtree.math.core.uint\pmc_inline_func.h

; 591  :         if (x == 0)

	test	edi, edi
	jne	SHORT $LN15@From_L_Imp

; 592  :             return (sizeof(x) * 8);

	lea	ecx, DWORD PTR [ebx+32]
	jmp	SHORT $LN14@From_L_Imp
$LN15@From_L_Imp:

; 593  :         _UINT32_T pos;
; 594  : #ifdef _MSC_VER
; 595  :         _BitScanReverse(&pos, x);

	bsr	eax, edi

; 601  :         return (sizeof(x) * 8 - 1 - pos);

	mov	ecx, 31					; 0000001fH
	sub	ecx, eax
$LN14@From_L_Imp:
; File z:\sources\lunor\repos\rougemeilland\palmtree.math.core.uint\palmtree.math.core.uint\pmc_from.c

; 58   :             if ((result = AllocateNumber(o, x_bit_length, NULL)) != PMC_STATUS_OK)

	mov	esi, DWORD PTR _o$[ebp]
	mov	eax, 32					; 00000020H
	push	0
	sub	eax, ecx
	push	eax
	push	esi
	call	_AllocateNumber
	add	esp, 12					; 0000000cH
	test	eax, eax
	je	SHORT $LN7@From_L_Imp

; 81   : }

	pop	edi
	pop	esi
	pop	ebx
	pop	ebp
	ret	0
$LN6@From_L_Imp:

; 64   :             if ((result = AllocateNumber(o, x_bit_length, NULL)) != PMC_STATUS_OK)

	mov	esi, DWORD PTR _o$[ebp]
; File z:\sources\lunor\repos\rougemeilland\palmtree.math.core.uint\palmtree.math.core.uint\pmc_inline_func.h

; 601  :         return (sizeof(x) * 8 - 1 - pos);

	mov	ecx, 31					; 0000001fH
	bsr	eax, ebx
; File z:\sources\lunor\repos\rougemeilland\palmtree.math.core.uint\palmtree.math.core.uint\pmc_from.c

; 64   :             if ((result = AllocateNumber(o, x_bit_length, NULL)) != PMC_STATUS_OK)

	push	0
; File z:\sources\lunor\repos\rougemeilland\palmtree.math.core.uint\palmtree.math.core.uint\pmc_inline_func.h

; 601  :         return (sizeof(x) * 8 - 1 - pos);

	sub	ecx, eax
; File z:\sources\lunor\repos\rougemeilland\palmtree.math.core.uint\palmtree.math.core.uint\pmc_from.c

; 63   :             __UNIT_TYPE x_bit_length = sizeof(x) * 8 - _LZCNT_ALT_32(x_hi);

	mov	eax, 64					; 00000040H
	sub	eax, ecx

; 64   :             if ((result = AllocateNumber(o, x_bit_length, NULL)) != PMC_STATUS_OK)

	push	eax
	push	esi
	call	_AllocateNumber
	add	esp, 12					; 0000000cH
	test	eax, eax
	jne	SHORT $LN1@From_L_Imp

; 65   :                 return (result);
; 66   :             (*o)->BLOCK[1] = x_hi;

	mov	eax, DWORD PTR [esi]
	mov	eax, DWORD PTR [eax+36]
	mov	DWORD PTR [eax+4], ebx
$LN7@From_L_Imp:

; 67   :         }
; 68   :         (*o)->BLOCK[0] = x_lo;

	mov	eax, DWORD PTR [esi]
	mov	eax, DWORD PTR [eax+36]
	mov	DWORD PTR [eax], edi

; 69   :     }
; 70   :     else
; 71   :     {
; 72   :         // _UINT64_T を表現するのに 1 ワードで十分である処理系の場合
; 73   : 
; 74   :         __UNIT_TYPE x_bit_length = sizeof(x) * 8 - _LZCNT_ALT_UNIT((__UNIT_TYPE)x);
; 75   :         if ((result = AllocateNumber(o, x_bit_length, NULL)) != PMC_STATUS_OK)
; 76   :             return (result);
; 77   :         (*o)->BLOCK[0] = (__UNIT_TYPE)x;
; 78   :     }
; 79   :     CommitNumber(*o);

	push	DWORD PTR [esi]
	call	_CommitNumber
	add	esp, 4

; 80   :     return (PMC_STATUS_OK);

	xor	eax, eax
$LN1@From_L_Imp:

; 81   : }

	pop	edi
	pop	esi
	pop	ebx
	pop	ebp
	ret	0
_From_L_Imp ENDP
_TEXT	ENDS
; Function compile flags: /Ogtp
; File z:\sources\lunor\repos\rougemeilland\palmtree.math.core.uint\palmtree.math.core.uint\pmc_from.c
; File z:\sources\lunor\repos\rougemeilland\palmtree.math.core.uint\palmtree.math.core.uint\pmc_inline_func.h
; File z:\sources\lunor\repos\rougemeilland\palmtree.math.core.uint\palmtree.math.core.uint\pmc_from.c
; File z:\sources\lunor\repos\rougemeilland\palmtree.math.core.uint\palmtree.math.core.uint\pmc_inline_func.h
; File z:\sources\lunor\repos\rougemeilland\palmtree.math.core.uint\palmtree.math.core.uint\pmc_from.c
;	COMDAT _From_I_Imp
_TEXT	SEGMENT
_x$ = 8							; size = 4
_o$ = 12						; size = 4
_From_I_Imp PROC					; COMDAT

; 32   : {

	push	ebp
	mov	ebp, esp
	push	esi
; File z:\sources\lunor\repos\rougemeilland\palmtree.math.core.uint\palmtree.math.core.uint\pmc_inline_func.h

; 591  :         if (x == 0)

	mov	esi, DWORD PTR _x$[ebp]
; File z:\sources\lunor\repos\rougemeilland\palmtree.math.core.uint\palmtree.math.core.uint\pmc_from.c

; 32   : {

	push	edi
; File z:\sources\lunor\repos\rougemeilland\palmtree.math.core.uint\palmtree.math.core.uint\pmc_inline_func.h

; 591  :         if (x == 0)

	test	esi, esi
	jne	SHORT $LN5@From_I_Imp

; 592  :             return (sizeof(x) * 8);

	lea	ecx, DWORD PTR [esi+32]
	jmp	SHORT $LN4@From_I_Imp
$LN5@From_I_Imp:

; 593  :         _UINT32_T pos;
; 594  : #ifdef _MSC_VER
; 595  :         _BitScanReverse(&pos, x);

	bsr	eax, esi

; 596  : #elif defined(__GNUC__)
; 597  :         __asm__("bsrl %1, %0" : "=r"(pos) : "rm"(x));
; 598  : #else
; 599  : #error unknown compiler
; 600  : #endif
; 601  :         return (sizeof(x) * 8 - 1 - pos);

	mov	ecx, 31					; 0000001fH
	sub	ecx, eax
$LN4@From_I_Imp:
; File z:\sources\lunor\repos\rougemeilland\palmtree.math.core.uint\palmtree.math.core.uint\pmc_from.c

; 34   :     if ((result = AllocateNumber(o, sizeof(x) * 8 - _LZCNT_ALT_32(x), NULL)) != PMC_STATUS_OK)

	mov	edi, DWORD PTR _o$[ebp]
	mov	eax, 32					; 00000020H
	push	0
	sub	eax, ecx
	push	eax
	push	edi
	call	_AllocateNumber
	add	esp, 12					; 0000000cH
	test	eax, eax
	jne	SHORT $LN1@From_I_Imp

; 35   :         return (result);
; 36   :     (*o)->BLOCK[0] = x;

	mov	eax, DWORD PTR [edi]
	mov	eax, DWORD PTR [eax+36]
	mov	DWORD PTR [eax], esi

; 37   :     CommitNumber(*o);

	push	DWORD PTR [edi]
	call	_CommitNumber
	add	esp, 4

; 38   :     return (PMC_STATUS_OK);

	xor	eax, eax
$LN1@From_I_Imp:

; 39   : }

	pop	edi
	pop	esi
	pop	ebp
	ret	0
_From_I_Imp ENDP
_TEXT	ENDS
END
